
int-compile.elf:     file format elf32-littlearm


Disassembly of section .text:

00008000 <_start>:
    8000:	e3a0d302 	mov	sp, #134217728	; 0x8000000
    8004:	e3a0b000 	mov	fp, #0
    8008:	eb0002aa 	bl	8ab8 <_cstart>
    800c:	eb0002d8 	bl	8b74 <rpi_reboot>

00008010 <int_0>:
    8010:	e92d4008 	push	{r3, lr}
    8014:	e59f0014 	ldr	r0, [pc, #20]	; 8030 <int_0+0x20>
    8018:	eb000119 	bl	8484 <printk>
    801c:	e59f3010 	ldr	r3, [pc, #16]	; 8034 <int_0+0x24>
    8020:	e5932000 	ldr	r2, [r3]
    8024:	e2822001 	add	r2, r2, #1
    8028:	e5832000 	str	r2, [r3]
    802c:	e8bd8008 	pop	{r3, pc}
    8030:	00009b00 	andeq	r9, r0, r0, lsl #22
    8034:	00009e88 	andeq	r9, r0, r8, lsl #29

00008038 <int_1>:
    8038:	e92d4008 	push	{r3, lr}
    803c:	e59f0014 	ldr	r0, [pc, #20]	; 8058 <int_1+0x20>
    8040:	eb00010f 	bl	8484 <printk>
    8044:	e59f3010 	ldr	r3, [pc, #16]	; 805c <int_1+0x24>
    8048:	e5932000 	ldr	r2, [r3]
    804c:	e2822001 	add	r2, r2, #1
    8050:	e5832000 	str	r2, [r3]
    8054:	e8bd8008 	pop	{r3, pc}
    8058:	00009b08 	andeq	r9, r0, r8, lsl #22
    805c:	00009e88 	andeq	r9, r0, r8, lsl #29

00008060 <int_2>:
    8060:	e92d4008 	push	{r3, lr}
    8064:	e59f0014 	ldr	r0, [pc, #20]	; 8080 <int_2+0x20>
    8068:	eb000105 	bl	8484 <printk>
    806c:	e59f3010 	ldr	r3, [pc, #16]	; 8084 <int_2+0x24>
    8070:	e5932000 	ldr	r2, [r3]
    8074:	e2822001 	add	r2, r2, #1
    8078:	e5832000 	str	r2, [r3]
    807c:	e8bd8008 	pop	{r3, pc}
    8080:	00009b10 	andeq	r9, r0, r0, lsl fp
    8084:	00009e88 	andeq	r9, r0, r8, lsl #29

00008088 <int_3>:
    8088:	e92d4008 	push	{r3, lr}
    808c:	e59f0014 	ldr	r0, [pc, #20]	; 80a8 <int_3+0x20>
    8090:	eb0000fb 	bl	8484 <printk>
    8094:	e59f3010 	ldr	r3, [pc, #16]	; 80ac <int_3+0x24>
    8098:	e5932000 	ldr	r2, [r3]
    809c:	e2822001 	add	r2, r2, #1
    80a0:	e5832000 	str	r2, [r3]
    80a4:	e8bd8008 	pop	{r3, pc}
    80a8:	00009b18 	andeq	r9, r0, r8, lsl fp
    80ac:	00009e88 	andeq	r9, r0, r8, lsl #29

000080b0 <int_4>:
    80b0:	e92d4008 	push	{r3, lr}
    80b4:	e59f0014 	ldr	r0, [pc, #20]	; 80d0 <int_4+0x20>
    80b8:	eb0000f1 	bl	8484 <printk>
    80bc:	e59f3010 	ldr	r3, [pc, #16]	; 80d4 <int_4+0x24>
    80c0:	e5932000 	ldr	r2, [r3]
    80c4:	e2822001 	add	r2, r2, #1
    80c8:	e5832000 	str	r2, [r3]
    80cc:	e8bd8008 	pop	{r3, pc}
    80d0:	00009b20 	andeq	r9, r0, r0, lsr #22
    80d4:	00009e88 	andeq	r9, r0, r8, lsl #29

000080d8 <int_5>:
    80d8:	e92d4008 	push	{r3, lr}
    80dc:	e59f0014 	ldr	r0, [pc, #20]	; 80f8 <int_5+0x20>
    80e0:	eb0000e7 	bl	8484 <printk>
    80e4:	e59f3010 	ldr	r3, [pc, #16]	; 80fc <int_5+0x24>
    80e8:	e5932000 	ldr	r2, [r3]
    80ec:	e2822001 	add	r2, r2, #1
    80f0:	e5832000 	str	r2, [r3]
    80f4:	e8bd8008 	pop	{r3, pc}
    80f8:	00009b28 	andeq	r9, r0, r8, lsr #22
    80fc:	00009e88 	andeq	r9, r0, r8, lsl #29

00008100 <int_6>:
    8100:	e92d4008 	push	{r3, lr}
    8104:	e59f0014 	ldr	r0, [pc, #20]	; 8120 <int_6+0x20>
    8108:	eb0000dd 	bl	8484 <printk>
    810c:	e59f3010 	ldr	r3, [pc, #16]	; 8124 <int_6+0x24>
    8110:	e5932000 	ldr	r2, [r3]
    8114:	e2822001 	add	r2, r2, #1
    8118:	e5832000 	str	r2, [r3]
    811c:	e8bd8008 	pop	{r3, pc}
    8120:	00009b30 	andeq	r9, r0, r0, lsr fp
    8124:	00009e88 	andeq	r9, r0, r8, lsl #29

00008128 <int_7>:
    8128:	e92d4008 	push	{r3, lr}
    812c:	e59f0014 	ldr	r0, [pc, #20]	; 8148 <int_7+0x20>
    8130:	eb0000d3 	bl	8484 <printk>
    8134:	e59f3010 	ldr	r3, [pc, #16]	; 814c <int_7+0x24>
    8138:	e5932000 	ldr	r2, [r3]
    813c:	e2822001 	add	r2, r2, #1
    8140:	e5832000 	str	r2, [r3]
    8144:	e8bd8008 	pop	{r3, pc}
    8148:	00009b38 	andeq	r9, r0, r8, lsr fp
    814c:	00009e88 	andeq	r9, r0, r8, lsl #29

00008150 <int_compile>:
    8150:	e92d4ff0 	push	{r4, r5, r6, r7, r8, r9, sl, fp, lr}
    8154:	e24dd00c 	sub	sp, sp, #12
    8158:	e1a0b000 	mov	fp, r0
    815c:	e1a04001 	mov	r4, r1
    8160:	e3a06000 	mov	r6, #0
    8164:	e59f30f4 	ldr	r3, [pc, #244]	; 8260 <int_compile+0x110>
    8168:	e5836004 	str	r6, [r3, #4]
    816c:	e59fa0f0 	ldr	sl, [pc, #240]	; 8264 <int_compile+0x114>
    8170:	e1a05003 	mov	r5, r3
    8174:	e59f90ec 	ldr	r9, [pc, #236]	; 8268 <int_compile+0x118>
    8178:	e59f80ec 	ldr	r8, [pc, #236]	; 826c <int_compile+0x11c>
    817c:	e59f70ec 	ldr	r7, [pc, #236]	; 8270 <int_compile+0x120>
    8180:	e2830008 	add	r0, r3, #8
    8184:	e58d0004 	str	r0, [sp, #4]
    8188:	ea000022 	b	8218 <int_compile+0xc8>
    818c:	e1a0000a 	mov	r0, sl
    8190:	e1a01006 	mov	r1, r6
    8194:	eb0000ba 	bl	8484 <printk>
    8198:	e5953004 	ldr	r3, [r5, #4]
    819c:	e2832001 	add	r2, r3, #1
    81a0:	e0853103 	add	r3, r5, r3, lsl #2
    81a4:	e5839008 	str	r9, [r3, #8]
    81a8:	e2823001 	add	r3, r2, #1
    81ac:	e0852102 	add	r2, r5, r2, lsl #2
    81b0:	e5828008 	str	r8, [r2, #8]
    81b4:	e2832001 	add	r2, r3, #1
    81b8:	e0853103 	add	r3, r5, r3, lsl #2
    81bc:	e5837008 	str	r7, [r3, #8]
    81c0:	e1a03102 	lsl	r3, r2, #2
    81c4:	e59d0004 	ldr	r0, [sp, #4]
    81c8:	e0801003 	add	r1, r0, r3
    81cc:	e79b0106 	ldr	r0, [fp, r6, lsl #2]
    81d0:	e2811008 	add	r1, r1, #8
    81d4:	e0611000 	rsb	r1, r1, r0
    81d8:	e1a01121 	lsr	r1, r1, #2
    81dc:	e3c114ff 	bic	r1, r1, #-16777216	; 0xff000000
    81e0:	e38114eb 	orr	r1, r1, #-352321536	; 0xeb000000
    81e4:	e0853003 	add	r3, r5, r3
    81e8:	e5831008 	str	r1, [r3, #8]
    81ec:	e2823002 	add	r3, r2, #2
    81f0:	e2822001 	add	r2, r2, #1
    81f4:	e0852102 	add	r2, r5, r2, lsl #2
    81f8:	e59f1074 	ldr	r1, [pc, #116]	; 8274 <int_compile+0x124>
    81fc:	e5821008 	str	r1, [r2, #8]
    8200:	e2832001 	add	r2, r3, #1
    8204:	e5852004 	str	r2, [r5, #4]
    8208:	e0853103 	add	r3, r5, r3, lsl #2
    820c:	e59f2064 	ldr	r2, [pc, #100]	; 8278 <int_compile+0x128>
    8210:	e5832008 	str	r2, [r3, #8]
    8214:	e2866001 	add	r6, r6, #1
    8218:	e1560004 	cmp	r6, r4
    821c:	3affffda 	bcc	818c <int_compile+0x3c>
    8220:	e59f0054 	ldr	r0, [pc, #84]	; 827c <int_compile+0x12c>
    8224:	eb000096 	bl	8484 <printk>
    8228:	e3a05000 	mov	r5, #0
    822c:	e59f704c 	ldr	r7, [pc, #76]	; 8280 <int_compile+0x130>
    8230:	e59f6028 	ldr	r6, [pc, #40]	; 8260 <int_compile+0x110>
    8234:	ea000005 	b	8250 <int_compile+0x100>
    8238:	e0863105 	add	r3, r6, r5, lsl #2
    823c:	e1a00007 	mov	r0, r7
    8240:	e1a01005 	mov	r1, r5
    8244:	e5932008 	ldr	r2, [r3, #8]
    8248:	eb00008d 	bl	8484 <printk>
    824c:	e2855001 	add	r5, r5, #1
    8250:	e1550004 	cmp	r5, r4
    8254:	3afffff7 	bcc	8238 <int_compile+0xe8>
    8258:	e28dd00c 	add	sp, sp, #12
    825c:	e8bd8ff0 	pop	{r4, r5, r6, r7, r8, r9, sl, fp, pc}
    8260:	00009e88 	andeq	r9, r0, r8, lsl #29
    8264:	00009b40 	andeq	r9, r0, r0, asr #22
    8268:	e52d3004 	push	{r3}		; (str r3, [sp, #-4]!)
    826c:	e52de004 	push	{lr}		; (str lr, [sp, #-4]!)
    8270:	e59f3004 	ldr	r3, [pc, #4]	; 827c <int_compile+0x12c>
    8274:	e49d3004 	pop	{r3}		; (ldr r3, [sp], #4)
    8278:	e49df004 	pop	{pc}		; (ldr pc, [sp], #4)
    827c:	00009b50 	andeq	r9, r0, r0, asr fp
    8280:	00009b60 	andeq	r9, r0, r0, ror #22

00008284 <generic_call_int>:
    8284:	e92d4070 	push	{r4, r5, r6, lr}
    8288:	e1a06000 	mov	r6, r0
    828c:	e1a05001 	mov	r5, r1
    8290:	e3a04000 	mov	r4, #0
    8294:	ea000002 	b	82a4 <generic_call_int+0x20>
    8298:	e7963104 	ldr	r3, [r6, r4, lsl #2]
    829c:	e12fff33 	blx	r3
    82a0:	e2844001 	add	r4, r4, #1
    82a4:	e1540005 	cmp	r4, r5
    82a8:	3afffffa 	bcc	8298 <generic_call_int+0x14>
    82ac:	e8bd8070 	pop	{r4, r5, r6, pc}

000082b0 <specialized_call_int>:
    82b0:	e92d4008 	push	{r3, lr}
    82b4:	e59f3004 	ldr	r3, [pc, #4]	; 82c0 <specialized_call_int+0x10>
    82b8:	e12fff33 	blx	r3
    82bc:	e8bd8008 	pop	{r3, pc}
    82c0:	00009e90 	muleq	r0, r0, lr

000082c4 <notmain>:
    82c4:	e92d4030 	push	{r4, r5, lr}
    82c8:	e24dd02c 	sub	sp, sp, #44	; 0x2c
    82cc:	e28dc008 	add	ip, sp, #8
    82d0:	e59fe184 	ldr	lr, [pc, #388]	; 845c <notmain+0x198>
    82d4:	e8be000f 	ldm	lr!, {r0, r1, r2, r3}
    82d8:	e8ac000f 	stmia	ip!, {r0, r1, r2, r3}
    82dc:	e89e000f 	ldm	lr, {r0, r1, r2, r3}
    82e0:	e88c000f 	stm	ip, {r0, r1, r2, r3}
    82e4:	e3a03001 	mov	r3, #1
    82e8:	ee0f3f1c 	mcr	15, 0, r3, cr15, cr12, {0}
    82ec:	e28d0008 	add	r0, sp, #8
    82f0:	e3a01008 	mov	r1, #8
    82f4:	ebffff95 	bl	8150 <int_compile>
    82f8:	e59f4160 	ldr	r4, [pc, #352]	; 8460 <notmain+0x19c>
    82fc:	e3a03000 	mov	r3, #0
    8300:	e5843000 	str	r3, [r4]
    8304:	ee1f5f3c 	mrc	15, 0, r5, cr15, cr12, {1}
    8308:	e28d0008 	add	r0, sp, #8
    830c:	e3a01008 	mov	r1, #8
    8310:	ebffffdb 	bl	8284 <generic_call_int>
    8314:	e28d0008 	add	r0, sp, #8
    8318:	e3a01008 	mov	r1, #8
    831c:	ebffffd8 	bl	8284 <generic_call_int>
    8320:	e28d0008 	add	r0, sp, #8
    8324:	e3a01008 	mov	r1, #8
    8328:	ebffffd5 	bl	8284 <generic_call_int>
    832c:	e28d0008 	add	r0, sp, #8
    8330:	e3a01008 	mov	r1, #8
    8334:	ebffffd2 	bl	8284 <generic_call_int>
    8338:	e28d0008 	add	r0, sp, #8
    833c:	e3a01008 	mov	r1, #8
    8340:	ebffffcf 	bl	8284 <generic_call_int>
    8344:	e28d0008 	add	r0, sp, #8
    8348:	e3a01008 	mov	r1, #8
    834c:	ebffffcc 	bl	8284 <generic_call_int>
    8350:	e28d0008 	add	r0, sp, #8
    8354:	e3a01008 	mov	r1, #8
    8358:	ebffffc9 	bl	8284 <generic_call_int>
    835c:	e28d0008 	add	r0, sp, #8
    8360:	e3a01008 	mov	r1, #8
    8364:	ebffffc6 	bl	8284 <generic_call_int>
    8368:	e28d0008 	add	r0, sp, #8
    836c:	e3a01008 	mov	r1, #8
    8370:	ebffffc3 	bl	8284 <generic_call_int>
    8374:	e28d0008 	add	r0, sp, #8
    8378:	e3a01008 	mov	r1, #8
    837c:	ebffffc0 	bl	8284 <generic_call_int>
    8380:	ee1f2f3c 	mrc	15, 0, r2, cr15, cr12, {1}
    8384:	e59f00d8 	ldr	r0, [pc, #216]	; 8464 <notmain+0x1a0>
    8388:	e59f10d8 	ldr	r1, [pc, #216]	; 8468 <notmain+0x1a4>
    838c:	e0652002 	rsb	r2, r5, r2
    8390:	e59f30d4 	ldr	r3, [pc, #212]	; 846c <notmain+0x1a8>
    8394:	eb00003a 	bl	8484 <printk>
    8398:	e5943000 	ldr	r3, [r4]
    839c:	e3530050 	cmp	r3, #80	; 0x50
    83a0:	0a00000a 	beq	83d0 <notmain+0x10c>
    83a4:	eb000051 	bl	84f0 <rpi_reset_putc>
    83a8:	e5943000 	ldr	r3, [r4]
    83ac:	e58d3000 	str	r3, [sp]
    83b0:	e3a03050 	mov	r3, #80	; 0x50
    83b4:	e58d3004 	str	r3, [sp, #4]
    83b8:	e59f00b0 	ldr	r0, [pc, #176]	; 8470 <notmain+0x1ac>
    83bc:	e59f10b0 	ldr	r1, [pc, #176]	; 8474 <notmain+0x1b0>
    83c0:	e59f20b0 	ldr	r2, [pc, #176]	; 8478 <notmain+0x1b4>
    83c4:	e3a0305b 	mov	r3, #91	; 0x5b
    83c8:	eb00002d 	bl	8484 <printk>
    83cc:	eb0001a7 	bl	8a70 <clean_reboot>
    83d0:	e59f4088 	ldr	r4, [pc, #136]	; 8460 <notmain+0x19c>
    83d4:	e3a03000 	mov	r3, #0
    83d8:	e5843000 	str	r3, [r4]
    83dc:	ee1f5f3c 	mrc	15, 0, r5, cr15, cr12, {1}
    83e0:	ebffffb2 	bl	82b0 <specialized_call_int>
    83e4:	ebffffb1 	bl	82b0 <specialized_call_int>
    83e8:	ebffffb0 	bl	82b0 <specialized_call_int>
    83ec:	ebffffaf 	bl	82b0 <specialized_call_int>
    83f0:	ebffffae 	bl	82b0 <specialized_call_int>
    83f4:	ebffffad 	bl	82b0 <specialized_call_int>
    83f8:	ebffffac 	bl	82b0 <specialized_call_int>
    83fc:	ebffffab 	bl	82b0 <specialized_call_int>
    8400:	ebffffaa 	bl	82b0 <specialized_call_int>
    8404:	ebffffa9 	bl	82b0 <specialized_call_int>
    8408:	ee1f2f3c 	mrc	15, 0, r2, cr15, cr12, {1}
    840c:	e59f0050 	ldr	r0, [pc, #80]	; 8464 <notmain+0x1a0>
    8410:	e59f1064 	ldr	r1, [pc, #100]	; 847c <notmain+0x1b8>
    8414:	e0652002 	rsb	r2, r5, r2
    8418:	e59f3060 	ldr	r3, [pc, #96]	; 8480 <notmain+0x1bc>
    841c:	eb000018 	bl	8484 <printk>
    8420:	e5943000 	ldr	r3, [r4]
    8424:	e3530050 	cmp	r3, #80	; 0x50
    8428:	0a00000a 	beq	8458 <notmain+0x194>
    842c:	eb00002f 	bl	84f0 <rpi_reset_putc>
    8430:	e5943000 	ldr	r3, [r4]
    8434:	e58d3000 	str	r3, [sp]
    8438:	e3a03050 	mov	r3, #80	; 0x50
    843c:	e58d3004 	str	r3, [sp, #4]
    8440:	e59f0028 	ldr	r0, [pc, #40]	; 8470 <notmain+0x1ac>
    8444:	e59f1028 	ldr	r1, [pc, #40]	; 8474 <notmain+0x1b0>
    8448:	e59f2028 	ldr	r2, [pc, #40]	; 8478 <notmain+0x1b4>
    844c:	e3a03060 	mov	r3, #96	; 0x60
    8450:	eb00000b 	bl	8484 <printk>
    8454:	eb000185 	bl	8a70 <clean_reboot>
    8458:	eb000184 	bl	8a70 <clean_reboot>
    845c:	00009ad8 	ldrdeq	r9, [r0], -r8
    8460:	00009e88 	andeq	r9, r0, r8, lsl #29
    8464:	00009b70 	andeq	r9, r0, r0, ror fp
    8468:	00009b8c 	andeq	r9, r0, ip, lsl #23
    846c:	00009ba8 	andeq	r9, r0, r8, lsr #23
    8470:	00009bc4 	andeq	r9, r0, r4, asr #23
    8474:	00009c04 	andeq	r9, r0, r4, lsl #24
    8478:	00009af8 	strdeq	r9, [r0], -r8
    847c:	00009c14 	andeq	r9, r0, r4, lsl ip
    8480:	00009c34 	andeq	r9, r0, r4, lsr ip

00008484 <printk>:
    8484:	e92d000f 	push	{r0, r1, r2, r3}
    8488:	e92d4030 	push	{r4, r5, lr}
    848c:	e24dd00c 	sub	sp, sp, #12
    8490:	e28d301c 	add	r3, sp, #28
    8494:	e58d3004 	str	r3, [sp, #4]
    8498:	e59f4034 	ldr	r4, [pc, #52]	; 84d4 <printk+0x50>
    849c:	e1a00004 	mov	r0, r4
    84a0:	e3a01b01 	mov	r1, #1024	; 0x400
    84a4:	e59d2018 	ldr	r2, [sp, #24]
    84a8:	eb0000cb 	bl	87dc <va_printk>
    84ac:	e1a05000 	mov	r5, r0
    84b0:	e59f3020 	ldr	r3, [pc, #32]	; 84d8 <printk+0x54>
    84b4:	e5933000 	ldr	r3, [r3]
    84b8:	e1a00004 	mov	r0, r4
    84bc:	e12fff33 	blx	r3
    84c0:	e1a00005 	mov	r0, r5
    84c4:	e28dd00c 	add	sp, sp, #12
    84c8:	e8bd4030 	pop	{r4, r5, lr}
    84cc:	e28dd010 	add	sp, sp, #16
    84d0:	e12fff1e 	bx	lr
    84d4:	0000a290 	muleq	r0, r0, r2
    84d8:	00009a40 	andeq	r9, r0, r0, asr #20

000084dc <internal_putchar>:
    84dc:	e92d4010 	push	{r4, lr}
    84e0:	e1a04000 	mov	r4, r0
    84e4:	eb0003af 	bl	93a8 <uart_putc>
    84e8:	e1a00004 	mov	r0, r4
    84ec:	e8bd8010 	pop	{r4, pc}

000084f0 <rpi_reset_putc>:
    84f0:	e59f2008 	ldr	r2, [pc, #8]	; 8500 <rpi_reset_putc+0x10>
    84f4:	e59f3008 	ldr	r3, [pc, #8]	; 8504 <rpi_reset_putc+0x14>
    84f8:	e5832000 	str	r2, [r3]
    84fc:	e12fff1e 	bx	lr
    8500:	000084dc 	ldrdeq	r8, [r0], -ip
    8504:	00009a3c 	andeq	r9, r0, ip, lsr sl

00008508 <rpi_set_putc>:
    8508:	e59f3004 	ldr	r3, [pc, #4]	; 8514 <rpi_set_putc+0xc>
    850c:	e5830000 	str	r0, [r3]
    8510:	e12fff1e 	bx	lr
    8514:	00009a3c 	andeq	r9, r0, ip, lsr sl

00008518 <internal_putk>:
    8518:	e92d4038 	push	{r3, r4, r5, lr}
    851c:	e1a04000 	mov	r4, r0
    8520:	e59f5020 	ldr	r5, [pc, #32]	; 8548 <internal_putk+0x30>
    8524:	ea000002 	b	8534 <internal_putk+0x1c>
    8528:	e5953000 	ldr	r3, [r5]
    852c:	e12fff33 	blx	r3
    8530:	e2844001 	add	r4, r4, #1
    8534:	e5d40000 	ldrb	r0, [r4]
    8538:	e3500000 	cmp	r0, #0
    853c:	1afffff9 	bne	8528 <internal_putk+0x10>
    8540:	e3a00001 	mov	r0, #1
    8544:	e8bd8038 	pop	{r3, r4, r5, pc}
    8548:	00009a3c 	andeq	r9, r0, ip, lsr sl

0000854c <isdigit>:
    854c:	e2400030 	sub	r0, r0, #48	; 0x30
    8550:	e3500009 	cmp	r0, #9
    8554:	83a00000 	movhi	r0, #0
    8558:	93a00001 	movls	r0, #1
    855c:	e12fff1e 	bx	lr

00008560 <pad>:
    8560:	e0611000 	rsb	r1, r1, r0
    8564:	e3a03020 	mov	r3, #32
    8568:	ea000002 	b	8578 <pad+0x18>
    856c:	e5c03000 	strb	r3, [r0]
    8570:	e2811001 	add	r1, r1, #1
    8574:	e2800001 	add	r0, r0, #1
    8578:	e1510002 	cmp	r1, r2
    857c:	bafffffa 	blt	856c <pad+0xc>
    8580:	e3a03000 	mov	r3, #0
    8584:	e5c03000 	strb	r3, [r0]
    8588:	e12fff1e 	bx	lr

0000858c <reverse>:
    858c:	e063c002 	rsb	ip, r3, r2
    8590:	e28cc001 	add	ip, ip, #1
    8594:	e15c0001 	cmp	ip, r1
    8598:	c061100c 	rsbgt	r1, r1, ip
    859c:	c0833001 	addgt	r3, r3, r1
    85a0:	e2422001 	sub	r2, r2, #1
    85a4:	e1a01000 	mov	r1, r0
    85a8:	ea000002 	b	85b8 <reverse+0x2c>
    85ac:	e452c001 	ldrb	ip, [r2], #-1
    85b0:	e5c1c000 	strb	ip, [r1]
    85b4:	e2811001 	add	r1, r1, #1
    85b8:	e1520003 	cmp	r2, r3
    85bc:	2afffffa 	bcs	85ac <reverse+0x20>
    85c0:	e3a03000 	mov	r3, #0
    85c4:	e5c13000 	strb	r3, [r1]
    85c8:	e12fff1e 	bx	lr

000085cc <emit>:
    85cc:	e92d41f0 	push	{r4, r5, r6, r7, r8, lr}
    85d0:	e24dd048 	sub	sp, sp, #72	; 0x48
    85d4:	e1a05001 	mov	r5, r1
    85d8:	e1a04002 	mov	r4, r2
    85dc:	e59d2060 	ldr	r2, [sp, #96]	; 0x60
    85e0:	e1520004 	cmp	r2, r4
    85e4:	c2442001 	subgt	r2, r4, #1
    85e8:	e1a0c003 	mov	ip, r3
    85ec:	e2400002 	sub	r0, r0, #2
    85f0:	e350000e 	cmp	r0, #14
    85f4:	979ff100 	ldrls	pc, [pc, r0, lsl #2]
    85f8:	ea000042 	b	8708 <emit+0x13c>
    85fc:	000086e0 	andeq	r8, r0, r0, ror #13
    8600:	00008708 	andeq	r8, r0, r8, lsl #14
    8604:	00008708 	andeq	r8, r0, r8, lsl #14
    8608:	00008708 	andeq	r8, r0, r8, lsl #14
    860c:	00008708 	andeq	r8, r0, r8, lsl #14
    8610:	00008708 	andeq	r8, r0, r8, lsl #14
    8614:	000086d4 	ldrdeq	r8, [r0], -r4
    8618:	00008708 	andeq	r8, r0, r8, lsl #14
    861c:	00008638 	andeq	r8, r0, r8, lsr r6
    8620:	00008708 	andeq	r8, r0, r8, lsl #14
    8624:	00008708 	andeq	r8, r0, r8, lsl #14
    8628:	00008708 	andeq	r8, r0, r8, lsl #14
    862c:	00008708 	andeq	r8, r0, r8, lsl #14
    8630:	00008708 	andeq	r8, r0, r8, lsl #14
    8634:	000086ac 	andeq	r8, r0, ip, lsr #13
    8638:	e59d1064 	ldr	r1, [sp, #100]	; 0x64
    863c:	e2911000 	adds	r1, r1, #0
    8640:	13a01001 	movne	r1, #1
    8644:	e0111fa3 	ands	r1, r1, r3, lsr #31
    8648:	1263c000 	rsbne	ip, r3, #0
    864c:	13a08001 	movne	r8, #1
    8650:	03a08000 	moveq	r8, #0
    8654:	e28d1008 	add	r1, sp, #8
    8658:	e59f70f4 	ldr	r7, [pc, #244]	; 8754 <emit+0x188>
    865c:	e59f60f4 	ldr	r6, [pc, #244]	; 8758 <emit+0x18c>
    8660:	ea000000 	b	8668 <emit+0x9c>
    8664:	e1a01003 	mov	r1, r3
    8668:	e2813001 	add	r3, r1, #1
    866c:	e08e0c97 	umull	r0, lr, r7, ip
    8670:	e1a0e1ae 	lsr	lr, lr, #3
    8674:	e1a0000e 	mov	r0, lr
    8678:	e08ee10e 	add	lr, lr, lr, lsl #2
    867c:	e1a0e08e 	lsl	lr, lr, #1
    8680:	e06ee00c 	rsb	lr, lr, ip
    8684:	e7d6c00e 	ldrb	ip, [r6, lr]
    8688:	e5c1c000 	strb	ip, [r1]
    868c:	e1a0c000 	mov	ip, r0
    8690:	e3500000 	cmp	r0, #0
    8694:	1afffff2 	bne	8664 <emit+0x98>
    8698:	e3580000 	cmp	r8, #0
    869c:	12813002 	addne	r3, r1, #2
    86a0:	13a0002d 	movne	r0, #45	; 0x2d
    86a4:	15c10001 	strbne	r0, [r1, #1]
    86a8:	ea00001f 	b	872c <emit+0x160>
    86ac:	e28de008 	add	lr, sp, #8
    86b0:	e59f00a4 	ldr	r0, [pc, #164]	; 875c <emit+0x190>
    86b4:	e28e3001 	add	r3, lr, #1
    86b8:	e20c100f 	and	r1, ip, #15
    86bc:	e7d01001 	ldrb	r1, [r0, r1]
    86c0:	e5ce1000 	strb	r1, [lr]
    86c4:	e1a0e003 	mov	lr, r3
    86c8:	e1b0c22c 	lsrs	ip, ip, #4
    86cc:	1afffff8 	bne	86b4 <emit+0xe8>
    86d0:	ea000015 	b	872c <emit+0x160>
    86d4:	e5cd3008 	strb	r3, [sp, #8]
    86d8:	e28d3009 	add	r3, sp, #9
    86dc:	ea000012 	b	872c <emit+0x160>
    86e0:	e28de008 	add	lr, sp, #8
    86e4:	e59f0074 	ldr	r0, [pc, #116]	; 8760 <emit+0x194>
    86e8:	e28e3001 	add	r3, lr, #1
    86ec:	e20c1001 	and	r1, ip, #1
    86f0:	e7d01001 	ldrb	r1, [r0, r1]
    86f4:	e5ce1000 	strb	r1, [lr]
    86f8:	e1a0e003 	mov	lr, r3
    86fc:	e1b0c0ac 	lsrs	ip, ip, #1
    8700:	1afffff8 	bne	86e8 <emit+0x11c>
    8704:	ea000008 	b	872c <emit+0x160>
    8708:	ebffff78 	bl	84f0 <rpi_reset_putc>
    870c:	e59f3050 	ldr	r3, [pc, #80]	; 8764 <emit+0x198>
    8710:	e58d3000 	str	r3, [sp]
    8714:	e59f004c 	ldr	r0, [pc, #76]	; 8768 <emit+0x19c>
    8718:	e59f104c 	ldr	r1, [pc, #76]	; 876c <emit+0x1a0>
    871c:	e59f204c 	ldr	r2, [pc, #76]	; 8770 <emit+0x1a4>
    8720:	e3a03075 	mov	r3, #117	; 0x75
    8724:	ebffff56 	bl	8484 <printk>
    8728:	eb0000d0 	bl	8a70 <clean_reboot>
    872c:	e1a00003 	mov	r0, r3
    8730:	e28d1008 	add	r1, sp, #8
    8734:	ebffff89 	bl	8560 <pad>
    8738:	e1a02000 	mov	r2, r0
    873c:	e1a00005 	mov	r0, r5
    8740:	e1a01004 	mov	r1, r4
    8744:	e28d3008 	add	r3, sp, #8
    8748:	ebffff8f 	bl	858c <reverse>
    874c:	e28dd048 	add	sp, sp, #72	; 0x48
    8750:	e8bd81f0 	pop	{r4, r5, r6, r7, r8, pc}
    8754:	cccccccd 	stclgt	12, cr12, [ip], {205}	; 0xcd
    8758:	00009c9c 	muleq	r0, ip, ip
    875c:	00009ca8 	andeq	r9, r0, r8, lsr #25
    8760:	00009cbc 			; <UNDEFINED> instruction: 0x00009cbc
    8764:	00009c98 	muleq	r0, r8, ip
    8768:	00009c70 	andeq	r9, r0, r0, ror ip
    876c:	00009c84 	andeq	r9, r0, r4, lsl #25
    8770:	00009c4c 	andeq	r9, r0, ip, asr #24

00008774 <rpi_set_output>:
    8774:	e52de004 	push	{lr}		; (str lr, [sp, #-4]!)
    8778:	e24dd00c 	sub	sp, sp, #12
    877c:	e3500000 	cmp	r0, #0
    8780:	1a000008 	bne	87a8 <rpi_set_output+0x34>
    8784:	ebffff59 	bl	84f0 <rpi_reset_putc>
    8788:	e59f3034 	ldr	r3, [pc, #52]	; 87c4 <rpi_set_output+0x50>
    878c:	e58d3000 	str	r3, [sp]
    8790:	e59f0030 	ldr	r0, [pc, #48]	; 87c8 <rpi_set_output+0x54>
    8794:	e59f1030 	ldr	r1, [pc, #48]	; 87cc <rpi_set_output+0x58>
    8798:	e59f2030 	ldr	r2, [pc, #48]	; 87d0 <rpi_set_output+0x5c>
    879c:	e3a03020 	mov	r3, #32
    87a0:	ebffff37 	bl	8484 <printk>
    87a4:	eb0000b1 	bl	8a70 <clean_reboot>
    87a8:	e59f3024 	ldr	r3, [pc, #36]	; 87d4 <rpi_set_output+0x60>
    87ac:	e5830000 	str	r0, [r3]
    87b0:	e3510000 	cmp	r1, #0
    87b4:	159f301c 	ldrne	r3, [pc, #28]	; 87d8 <rpi_set_output+0x64>
    87b8:	15831000 	strne	r1, [r3]
    87bc:	e28dd00c 	add	sp, sp, #12
    87c0:	e49df004 	pop	{pc}		; (ldr pc, [sp], #4)
    87c4:	00009cc0 	andeq	r9, r0, r0, asr #25
    87c8:	00009c70 	andeq	r9, r0, r0, ror ip
    87cc:	00009c84 	andeq	r9, r0, r4, lsl #25
    87d0:	00009c54 	andeq	r9, r0, r4, asr ip
    87d4:	00009a3c 	andeq	r9, r0, ip, lsr sl
    87d8:	00009a40 	andeq	r9, r0, r0, asr #20

000087dc <va_printk>:
    87dc:	e92d4ff0 	push	{r4, r5, r6, r7, r8, r9, sl, fp, lr}
    87e0:	e24dd08c 	sub	sp, sp, #140	; 0x8c
    87e4:	e1a0a000 	mov	sl, r0
    87e8:	e1a09003 	mov	r9, r3
    87ec:	e2411001 	sub	r1, r1, #1
    87f0:	e0808001 	add	r8, r0, r1
    87f4:	e3a03000 	mov	r3, #0
    87f8:	e5c03000 	strb	r3, [r0]
    87fc:	e1a04000 	mov	r4, r0
    8800:	e1a0b003 	mov	fp, r3
    8804:	ea000088 	b	8a2c <va_printk+0x250>
    8808:	e3530025 	cmp	r3, #37	; 0x25
    880c:	12822001 	addne	r2, r2, #1
    8810:	15c43000 	strbne	r3, [r4]
    8814:	12844001 	addne	r4, r4, #1
    8818:	1a000083 	bne	8a2c <va_printk+0x250>
    881c:	e5d21001 	ldrb	r1, [r2, #1]
    8820:	e3510025 	cmp	r1, #37	; 0x25
    8824:	05c43000 	strbeq	r3, [r4]
    8828:	02822002 	addeq	r2, r2, #2
    882c:	02844001 	addeq	r4, r4, #1
    8830:	0a00007d 	beq	8a2c <va_printk+0x250>
    8834:	e2826001 	add	r6, r2, #1
    8838:	e1a0700b 	mov	r7, fp
    883c:	ea000004 	b	8854 <va_printk+0x78>
    8840:	e0877107 	add	r7, r7, r7, lsl #2
    8844:	e1a07087 	lsl	r7, r7, #1
    8848:	e0877005 	add	r7, r7, r5
    884c:	e2477030 	sub	r7, r7, #48	; 0x30
    8850:	e2866001 	add	r6, r6, #1
    8854:	e5d65000 	ldrb	r5, [r6]
    8858:	e1a00005 	mov	r0, r5
    885c:	ebffff3a 	bl	854c <isdigit>
    8860:	e3500000 	cmp	r0, #0
    8864:	1afffff5 	bne	8840 <va_printk+0x64>
    8868:	e357001f 	cmp	r7, #31
    886c:	9a000008 	bls	8894 <va_printk+0xb8>
    8870:	ebffff1e 	bl	84f0 <rpi_reset_putc>
    8874:	e59f31dc 	ldr	r3, [pc, #476]	; 8a58 <va_printk+0x27c>
    8878:	e58d3000 	str	r3, [sp]
    887c:	e59f01d8 	ldr	r0, [pc, #472]	; 8a5c <va_printk+0x280>
    8880:	e59f11d8 	ldr	r1, [pc, #472]	; 8a60 <va_printk+0x284>
    8884:	e59f21d8 	ldr	r2, [pc, #472]	; 8a64 <va_printk+0x288>
    8888:	e3a03092 	mov	r3, #146	; 0x92
    888c:	ebfffefc 	bl	8484 <printk>
    8890:	eb000076 	bl	8a70 <clean_reboot>
    8894:	e2455062 	sub	r5, r5, #98	; 0x62
    8898:	e3550016 	cmp	r5, #22
    889c:	979ff105 	ldrls	pc, [pc, r5, lsl #2]
    88a0:	ea00004e 	b	89e0 <va_printk+0x204>
    88a4:	0000898c 	andeq	r8, r0, ip, lsl #19
    88a8:	000089bc 			; <UNDEFINED> instruction: 0x000089bc
    88ac:	0000891c 	andeq	r8, r0, ip, lsl r9
    88b0:	000089e0 	andeq	r8, r0, r0, ror #19
    88b4:	00008900 	andeq	r8, r0, r0, lsl #18
    88b8:	000089e0 	andeq	r8, r0, r0, ror #19
    88bc:	000089e0 	andeq	r8, r0, r0, ror #19
    88c0:	000089e0 	andeq	r8, r0, r0, ror #19
    88c4:	000089e0 	andeq	r8, r0, r0, ror #19
    88c8:	000089e0 	andeq	r8, r0, r0, ror #19
    88cc:	000089e0 	andeq	r8, r0, r0, ror #19
    88d0:	000089e0 	andeq	r8, r0, r0, ror #19
    88d4:	000089e0 	andeq	r8, r0, r0, ror #19
    88d8:	000089e0 	andeq	r8, r0, r0, ror #19
    88dc:	00008968 	andeq	r8, r0, r8, ror #18
    88e0:	000089e0 	andeq	r8, r0, r0, ror #19
    88e4:	000089e0 	andeq	r8, r0, r0, ror #19
    88e8:	000089b0 			; <UNDEFINED> instruction: 0x000089b0
    88ec:	000089e0 	andeq	r8, r0, r0, ror #19
    88f0:	00008944 	andeq	r8, r0, r4, asr #18
    88f4:	000089e0 	andeq	r8, r0, r0, ror #19
    88f8:	000089e0 	andeq	r8, r0, r0, ror #19
    88fc:	00008968 	andeq	r8, r0, r8, ror #18
    8900:	ebfffefa 	bl	84f0 <rpi_reset_putc>
    8904:	e59f015c 	ldr	r0, [pc, #348]	; 8a68 <va_printk+0x28c>
    8908:	e59f1150 	ldr	r1, [pc, #336]	; 8a60 <va_printk+0x284>
    890c:	e59f2150 	ldr	r2, [pc, #336]	; 8a64 <va_printk+0x288>
    8910:	e3a03098 	mov	r3, #152	; 0x98
    8914:	ebfffeda 	bl	8484 <printk>
    8918:	eb000054 	bl	8a70 <clean_reboot>
    891c:	e5993000 	ldr	r3, [r9]
    8920:	e2899004 	add	r9, r9, #4
    8924:	e58d7000 	str	r7, [sp]
    8928:	e3a02001 	mov	r2, #1
    892c:	e58d2004 	str	r2, [sp, #4]
    8930:	e3a0000a 	mov	r0, #10
    8934:	e28d1008 	add	r1, sp, #8
    8938:	e3a02080 	mov	r2, #128	; 0x80
    893c:	ebffff22 	bl	85cc <emit>
    8940:	ea00002f 	b	8a04 <va_printk+0x228>
    8944:	e5993000 	ldr	r3, [r9]
    8948:	e2899004 	add	r9, r9, #4
    894c:	e58d7000 	str	r7, [sp]
    8950:	e58db004 	str	fp, [sp, #4]
    8954:	e3a0000a 	mov	r0, #10
    8958:	e28d1008 	add	r1, sp, #8
    895c:	e3a02080 	mov	r2, #128	; 0x80
    8960:	ebffff19 	bl	85cc <emit>
    8964:	ea000026 	b	8a04 <va_printk+0x228>
    8968:	e5993000 	ldr	r3, [r9]
    896c:	e2899004 	add	r9, r9, #4
    8970:	e58d7000 	str	r7, [sp]
    8974:	e58db004 	str	fp, [sp, #4]
    8978:	e3a00010 	mov	r0, #16
    897c:	e28d1008 	add	r1, sp, #8
    8980:	e3a02080 	mov	r2, #128	; 0x80
    8984:	ebffff10 	bl	85cc <emit>
    8988:	ea00001d 	b	8a04 <va_printk+0x228>
    898c:	e5993000 	ldr	r3, [r9]
    8990:	e2899004 	add	r9, r9, #4
    8994:	e58d7000 	str	r7, [sp]
    8998:	e58db004 	str	fp, [sp, #4]
    899c:	e3a00002 	mov	r0, #2
    89a0:	e28d1008 	add	r1, sp, #8
    89a4:	e3a02080 	mov	r2, #128	; 0x80
    89a8:	ebffff07 	bl	85cc <emit>
    89ac:	ea000014 	b	8a04 <va_printk+0x228>
    89b0:	e5990000 	ldr	r0, [r9]
    89b4:	e2899004 	add	r9, r9, #4
    89b8:	ea000011 	b	8a04 <va_printk+0x228>
    89bc:	e5993000 	ldr	r3, [r9]
    89c0:	e2899004 	add	r9, r9, #4
    89c4:	e58d7000 	str	r7, [sp]
    89c8:	e58db004 	str	fp, [sp, #4]
    89cc:	e3a00008 	mov	r0, #8
    89d0:	e08d1000 	add	r1, sp, r0
    89d4:	e3a02080 	mov	r2, #128	; 0x80
    89d8:	ebfffefb 	bl	85cc <emit>
    89dc:	ea000008 	b	8a04 <va_printk+0x228>
    89e0:	ebfffec2 	bl	84f0 <rpi_reset_putc>
    89e4:	e5d63000 	ldrb	r3, [r6]
    89e8:	e58d3000 	str	r3, [sp]
    89ec:	e59f0078 	ldr	r0, [pc, #120]	; 8a6c <va_printk+0x290>
    89f0:	e59f1068 	ldr	r1, [pc, #104]	; 8a60 <va_printk+0x284>
    89f4:	e59f2068 	ldr	r2, [pc, #104]	; 8a64 <va_printk+0x288>
    89f8:	e3a030b9 	mov	r3, #185	; 0xb9
    89fc:	ebfffea0 	bl	8484 <printk>
    8a00:	eb00001a 	bl	8a70 <clean_reboot>
    8a04:	e2862001 	add	r2, r6, #1
    8a08:	ea000002 	b	8a18 <va_printk+0x23c>
    8a0c:	e2800001 	add	r0, r0, #1
    8a10:	e5c43000 	strb	r3, [r4]
    8a14:	e2844001 	add	r4, r4, #1
    8a18:	e1540008 	cmp	r4, r8
    8a1c:	2a000002 	bcs	8a2c <va_printk+0x250>
    8a20:	e5d03000 	ldrb	r3, [r0]
    8a24:	e3530000 	cmp	r3, #0
    8a28:	1afffff7 	bne	8a0c <va_printk+0x230>
    8a2c:	e5d23000 	ldrb	r3, [r2]
    8a30:	e3530000 	cmp	r3, #0
    8a34:	0a000001 	beq	8a40 <va_printk+0x264>
    8a38:	e1540008 	cmp	r4, r8
    8a3c:	3affff71 	bcc	8808 <va_printk+0x2c>
    8a40:	e2840001 	add	r0, r4, #1
    8a44:	e3a03000 	mov	r3, #0
    8a48:	e5c43000 	strb	r3, [r4]
    8a4c:	e06a0000 	rsb	r0, sl, r0
    8a50:	e28dd08c 	add	sp, sp, #140	; 0x8c
    8a54:	e8bd8ff0 	pop	{r4, r5, r6, r7, r8, r9, sl, fp, pc}
    8a58:	00009cc8 	andeq	r9, r0, r8, asr #25
    8a5c:	00009c70 	andeq	r9, r0, r0, ror ip
    8a60:	00009c84 	andeq	r9, r0, r4, lsl #25
    8a64:	00009c64 	andeq	r9, r0, r4, ror #24
    8a68:	00009cd4 	ldrdeq	r9, [r0], -r4
    8a6c:	00009cfc 	strdeq	r9, [r0], -ip

00008a70 <clean_reboot>:
    8a70:	e92d4008 	push	{r3, lr}
    8a74:	e59f3014 	ldr	r3, [pc, #20]	; 8a90 <clean_reboot+0x20>
    8a78:	e5933000 	ldr	r3, [r3]
    8a7c:	e59f0010 	ldr	r0, [pc, #16]	; 8a94 <clean_reboot+0x24>
    8a80:	e12fff33 	blx	r3
    8a84:	e3a00064 	mov	r0, #100	; 0x64
    8a88:	eb000063 	bl	8c1c <delay_ms>
    8a8c:	eb000038 	bl	8b74 <rpi_reboot>
    8a90:	00009a40 	andeq	r9, r0, r0, asr #20
    8a94:	00009d34 	andeq	r9, r0, r4, lsr sp

00008a98 <internal_sw_putchar>:
    8a98:	e92d4010 	push	{r4, lr}
    8a9c:	e1a04000 	mov	r4, r0
    8aa0:	e59f000c 	ldr	r0, [pc, #12]	; 8ab4 <internal_sw_putchar+0x1c>
    8aa4:	e6ef1074 	uxtb	r1, r4
    8aa8:	eb000065 	bl	8c44 <sw_uart_putc>
    8aac:	e1a00004 	mov	r0, r4
    8ab0:	e8bd8010 	pop	{r4, pc}
    8ab4:	0000a690 	muleq	r0, r0, r6

00008ab8 <_cstart>:
    8ab8:	e92d4008 	push	{r3, lr}
    8abc:	e59f3068 	ldr	r3, [pc, #104]	; 8b2c <_cstart+0x74>
    8ac0:	e59f2068 	ldr	r2, [pc, #104]	; 8b30 <_cstart+0x78>
    8ac4:	e3a01000 	mov	r1, #0
    8ac8:	ea000001 	b	8ad4 <_cstart+0x1c>
    8acc:	e5831000 	str	r1, [r3]
    8ad0:	e2833004 	add	r3, r3, #4
    8ad4:	e1530002 	cmp	r3, r2
    8ad8:	3afffffb 	bcc	8acc <_cstart+0x14>
    8adc:	eb0003c4 	bl	99f4 <cb_get_block>
    8ae0:	e3500000 	cmp	r0, #0
    8ae4:	0a00000e 	beq	8b24 <_cstart+0x6c>
    8ae8:	e5d02004 	ldrb	r2, [r0, #4]
    8aec:	e3520002 	cmp	r2, #2
    8af0:	1a00000b 	bne	8b24 <_cstart+0x6c>
    8af4:	e59f1038 	ldr	r1, [pc, #56]	; 8b34 <_cstart+0x7c>
    8af8:	e59f2038 	ldr	r2, [pc, #56]	; 8b38 <_cstart+0x80>
    8afc:	e5821000 	str	r1, [r2]
    8b00:	e59fc034 	ldr	ip, [pc, #52]	; 8b3c <_cstart+0x84>
    8b04:	e2803008 	add	r3, r0, #8
    8b08:	e8930007 	ldm	r3, {r0, r1, r2}
    8b0c:	e88c0007 	stm	ip, {r0, r1, r2}
    8b10:	e1a0000c 	mov	r0, ip
    8b14:	e59f1024 	ldr	r1, [pc, #36]	; 8b40 <_cstart+0x88>
    8b18:	eb0001ac 	bl	91d0 <sw_uart_printk>
    8b1c:	e59f0020 	ldr	r0, [pc, #32]	; 8b44 <_cstart+0x8c>
    8b20:	ebfffe57 	bl	8484 <printk>
    8b24:	ebfffde6 	bl	82c4 <notmain>
    8b28:	eb000011 	bl	8b74 <rpi_reboot>
    8b2c:	00009e88 	andeq	r9, r0, r8, lsl #29
    8b30:	0000a6a0 	andeq	sl, r0, r0, lsr #13
    8b34:	00008a98 	muleq	r0, r8, sl
    8b38:	00009a3c 	andeq	r9, r0, ip, lsr sl
    8b3c:	0000a690 	muleq	r0, r0, r6
    8b40:	00009d40 	andeq	r9, r0, r0, asr #26
    8b44:	00009d64 	andeq	r9, r0, r4, ror #26

00008b48 <at_user_level>:
    8b48:	e10f0000 	mrs	r0, CPSR
    8b4c:	e200001f 	and	r0, r0, #31
    8b50:	e3500010 	cmp	r0, #16
    8b54:	13a00000 	movne	r0, #0
    8b58:	03a00001 	moveq	r0, #1
    8b5c:	e12fff1e 	bx	lr

00008b60 <set_user_level>:
    8b60:	e10f3000 	mrs	r3, CPSR
    8b64:	e3c3301f 	bic	r3, r3, #31
    8b68:	e3833010 	orr	r3, r3, #16
    8b6c:	e129f003 	msr	CPSR_fc, r3
    8b70:	e12fff1e 	bx	lr

00008b74 <rpi_reboot>:
    8b74:	e92d4008 	push	{r3, lr}
    8b78:	ebfffff2 	bl	8b48 <at_user_level>
    8b7c:	e3500000 	cmp	r0, #0
    8b80:	0a000000 	beq	8b88 <rpi_reboot+0x14>
    8b84:	ebfffff5 	bl	8b60 <set_user_level>
    8b88:	e3a0001e 	mov	r0, #30
    8b8c:	eb000022 	bl	8c1c <delay_ms>
    8b90:	e59f0014 	ldr	r0, [pc, #20]	; 8bac <rpi_reboot+0x38>
    8b94:	e59f1014 	ldr	r1, [pc, #20]	; 8bb0 <rpi_reboot+0x3c>
    8b98:	eb000220 	bl	9420 <PUT32>
    8b9c:	e59f0010 	ldr	r0, [pc, #16]	; 8bb4 <rpi_reboot+0x40>
    8ba0:	e59f1010 	ldr	r1, [pc, #16]	; 8bb8 <rpi_reboot+0x44>
    8ba4:	eb00021d 	bl	9420 <PUT32>
    8ba8:	eafffffe 	b	8ba8 <rpi_reboot+0x34>
    8bac:	20100024 	andscs	r0, r0, r4, lsr #32
    8bb0:	5a000001 	bpl	8bbc <delay_cycles>
    8bb4:	2010001c 	andscs	r0, r0, ip, lsl r0
    8bb8:	5a000020 	bpl	8c40 <delay_sec+0x10>

00008bbc <delay_cycles>:
    8bbc:	ea000001 	b	8bc8 <delay_cycles+0xc>
    8bc0:	e2811000 	add	r1, r1, #0
    8bc4:	e1a00003 	mov	r0, r3
    8bc8:	e2403001 	sub	r3, r0, #1
    8bcc:	e3500000 	cmp	r0, #0
    8bd0:	1afffffa 	bne	8bc0 <delay_cycles+0x4>
    8bd4:	e12fff1e 	bx	lr

00008bd8 <timer_get_usec_raw>:
    8bd8:	e92d4008 	push	{r3, lr}
    8bdc:	e59f0004 	ldr	r0, [pc, #4]	; 8be8 <timer_get_usec_raw+0x10>
    8be0:	eb00021a 	bl	9450 <GET32>
    8be4:	e8bd8008 	pop	{r3, pc}
    8be8:	20003004 	andcs	r3, r0, r4

00008bec <timer_get_usec>:
    8bec:	e92d4008 	push	{r3, lr}
    8bf0:	ebfffff8 	bl	8bd8 <timer_get_usec_raw>
    8bf4:	e8bd8008 	pop	{r3, pc}

00008bf8 <delay_us>:
    8bf8:	e92d4038 	push	{r3, r4, r5, lr}
    8bfc:	e1a05000 	mov	r5, r0
    8c00:	ebfffff9 	bl	8bec <timer_get_usec>
    8c04:	e1a04000 	mov	r4, r0
    8c08:	ebfffff7 	bl	8bec <timer_get_usec>
    8c0c:	e0640000 	rsb	r0, r4, r0
    8c10:	e1500005 	cmp	r0, r5
    8c14:	3afffffb 	bcc	8c08 <delay_us+0x10>
    8c18:	e8bd8038 	pop	{r3, r4, r5, pc}

00008c1c <delay_ms>:
    8c1c:	e92d4008 	push	{r3, lr}
    8c20:	e3a03ffa 	mov	r3, #1000	; 0x3e8
    8c24:	e0000093 	mul	r0, r3, r0
    8c28:	ebfffff2 	bl	8bf8 <delay_us>
    8c2c:	e8bd8008 	pop	{r3, pc}

00008c30 <delay_sec>:
    8c30:	e92d4008 	push	{r3, lr}
    8c34:	e3a03ffa 	mov	r3, #1000	; 0x3e8
    8c38:	e0000093 	mul	r0, r3, r0
    8c3c:	ebfffff6 	bl	8c1c <delay_ms>
    8c40:	e8bd8008 	pop	{r3, pc}

00008c44 <sw_uart_putc>:
    8c44:	e92d41f0 	push	{r4, r5, r6, r7, r8, lr}
    8c48:	e1a07001 	mov	r7, r1
    8c4c:	e5d06000 	ldrb	r6, [r0]
    8c50:	e5905008 	ldr	r5, [r0, #8]
    8c54:	ee1f4f3c 	mrc	15, 0, r4, cr15, cr12, {1}
    8c58:	e1a00006 	mov	r0, r6
    8c5c:	e3a01000 	mov	r1, #0
    8c60:	eb000296 	bl	96c0 <gpio_write>
    8c64:	ee1f3f3c 	mrc	15, 0, r3, cr15, cr12, {1}
    8c68:	e0643003 	rsb	r3, r4, r3
    8c6c:	e1550003 	cmp	r5, r3
    8c70:	8afffffb 	bhi	8c64 <sw_uart_putc+0x20>
    8c74:	e1a08085 	lsl	r8, r5, #1
    8c78:	e1a00006 	mov	r0, r6
    8c7c:	e2071001 	and	r1, r7, #1
    8c80:	eb00028e 	bl	96c0 <gpio_write>
    8c84:	ee1f3f3c 	mrc	15, 0, r3, cr15, cr12, {1}
    8c88:	e0643003 	rsb	r3, r4, r3
    8c8c:	e1580003 	cmp	r8, r3
    8c90:	8afffffb 	bhi	8c84 <sw_uart_putc+0x40>
    8c94:	e0888005 	add	r8, r8, r5
    8c98:	e1a00006 	mov	r0, r6
    8c9c:	e2071002 	and	r1, r7, #2
    8ca0:	eb000286 	bl	96c0 <gpio_write>
    8ca4:	ee1f3f3c 	mrc	15, 0, r3, cr15, cr12, {1}
    8ca8:	e0643003 	rsb	r3, r4, r3
    8cac:	e1580003 	cmp	r8, r3
    8cb0:	8afffffb 	bhi	8ca4 <sw_uart_putc+0x60>
    8cb4:	e0888005 	add	r8, r8, r5
    8cb8:	e1a00006 	mov	r0, r6
    8cbc:	e2071004 	and	r1, r7, #4
    8cc0:	eb00027e 	bl	96c0 <gpio_write>
    8cc4:	ee1f3f3c 	mrc	15, 0, r3, cr15, cr12, {1}
    8cc8:	e0643003 	rsb	r3, r4, r3
    8ccc:	e1580003 	cmp	r8, r3
    8cd0:	8afffffb 	bhi	8cc4 <sw_uart_putc+0x80>
    8cd4:	e0888005 	add	r8, r8, r5
    8cd8:	e1a00006 	mov	r0, r6
    8cdc:	e2071008 	and	r1, r7, #8
    8ce0:	eb000276 	bl	96c0 <gpio_write>
    8ce4:	ee1f3f3c 	mrc	15, 0, r3, cr15, cr12, {1}
    8ce8:	e0643003 	rsb	r3, r4, r3
    8cec:	e1580003 	cmp	r8, r3
    8cf0:	8afffffb 	bhi	8ce4 <sw_uart_putc+0xa0>
    8cf4:	e0888005 	add	r8, r8, r5
    8cf8:	e1a00006 	mov	r0, r6
    8cfc:	e2071010 	and	r1, r7, #16
    8d00:	eb00026e 	bl	96c0 <gpio_write>
    8d04:	ee1f3f3c 	mrc	15, 0, r3, cr15, cr12, {1}
    8d08:	e0643003 	rsb	r3, r4, r3
    8d0c:	e1580003 	cmp	r8, r3
    8d10:	8afffffb 	bhi	8d04 <sw_uart_putc+0xc0>
    8d14:	e0888005 	add	r8, r8, r5
    8d18:	e1a00006 	mov	r0, r6
    8d1c:	e2071020 	and	r1, r7, #32
    8d20:	eb000266 	bl	96c0 <gpio_write>
    8d24:	ee1f3f3c 	mrc	15, 0, r3, cr15, cr12, {1}
    8d28:	e0643003 	rsb	r3, r4, r3
    8d2c:	e1580003 	cmp	r8, r3
    8d30:	8afffffb 	bhi	8d24 <sw_uart_putc+0xe0>
    8d34:	e0888005 	add	r8, r8, r5
    8d38:	e1a00006 	mov	r0, r6
    8d3c:	e2071040 	and	r1, r7, #64	; 0x40
    8d40:	eb00025e 	bl	96c0 <gpio_write>
    8d44:	ee1f3f3c 	mrc	15, 0, r3, cr15, cr12, {1}
    8d48:	e0643003 	rsb	r3, r4, r3
    8d4c:	e1580003 	cmp	r8, r3
    8d50:	8afffffb 	bhi	8d44 <sw_uart_putc+0x100>
    8d54:	e0888005 	add	r8, r8, r5
    8d58:	e1a00006 	mov	r0, r6
    8d5c:	e2071080 	and	r1, r7, #128	; 0x80
    8d60:	eb000256 	bl	96c0 <gpio_write>
    8d64:	ee1f3f3c 	mrc	15, 0, r3, cr15, cr12, {1}
    8d68:	e0643003 	rsb	r3, r4, r3
    8d6c:	e1580003 	cmp	r8, r3
    8d70:	8afffffb 	bhi	8d64 <sw_uart_putc+0x120>
    8d74:	e0885005 	add	r5, r8, r5
    8d78:	e1a00006 	mov	r0, r6
    8d7c:	e3a01001 	mov	r1, #1
    8d80:	eb00024e 	bl	96c0 <gpio_write>
    8d84:	ee1f3f3c 	mrc	15, 0, r3, cr15, cr12, {1}
    8d88:	e0643003 	rsb	r3, r4, r3
    8d8c:	e1550003 	cmp	r5, r3
    8d90:	8afffffb 	bhi	8d84 <sw_uart_putc+0x140>
    8d94:	e8bd81f0 	pop	{r4, r5, r6, r7, r8, pc}

00008d98 <sw_uart_getc_timeout>:
    8d98:	e92d43f8 	push	{r3, r4, r5, r6, r7, r8, r9, lr}
    8d9c:	e1a09000 	mov	r9, r0
    8da0:	e5d07001 	ldrb	r7, [r0, #1]
    8da4:	e1a05007 	mov	r5, r7
    8da8:	e1a06001 	mov	r6, r1
    8dac:	ebffff89 	bl	8bd8 <timer_get_usec_raw>
    8db0:	e1a04000 	mov	r4, r0
    8db4:	e1a00005 	mov	r0, r5
    8db8:	eb00022d 	bl	9674 <gpio_read>
    8dbc:	e3500000 	cmp	r0, #0
    8dc0:	0a000005 	beq	8ddc <sw_uart_getc_timeout+0x44>
    8dc4:	ebffff83 	bl	8bd8 <timer_get_usec_raw>
    8dc8:	e0640000 	rsb	r0, r4, r0
    8dcc:	e1560000 	cmp	r6, r0
    8dd0:	2afffff7 	bcs	8db4 <sw_uart_getc_timeout+0x1c>
    8dd4:	e3a03000 	mov	r3, #0
    8dd8:	ea000000 	b	8de0 <sw_uart_getc_timeout+0x48>
    8ddc:	e3a03001 	mov	r3, #1
    8de0:	e3530000 	cmp	r3, #0
    8de4:	0a000059 	beq	8f50 <sw_uart_getc_timeout+0x1b8>
    8de8:	ee1f8f3c 	mrc	15, 0, r8, cr15, cr12, {1}
    8dec:	e5994008 	ldr	r4, [r9, #8]
    8df0:	e08420a4 	add	r2, r4, r4, lsr #1
    8df4:	ee1f3f3c 	mrc	15, 0, r3, cr15, cr12, {1}
    8df8:	e0683003 	rsb	r3, r8, r3
    8dfc:	e1520003 	cmp	r2, r3
    8e00:	8afffffb 	bhi	8df4 <sw_uart_getc_timeout+0x5c>
    8e04:	e0888004 	add	r8, r8, r4
    8e08:	e1a00007 	mov	r0, r7
    8e0c:	eb000218 	bl	9674 <gpio_read>
    8e10:	e1a09750 	asr	r9, r0, r7
    8e14:	ee1f3f3c 	mrc	15, 0, r3, cr15, cr12, {1}
    8e18:	e0683003 	rsb	r3, r8, r3
    8e1c:	e1540003 	cmp	r4, r3
    8e20:	8afffffb 	bhi	8e14 <sw_uart_getc_timeout+0x7c>
    8e24:	e0888004 	add	r8, r8, r4
    8e28:	e1a00007 	mov	r0, r7
    8e2c:	eb000210 	bl	9674 <gpio_read>
    8e30:	e1a00750 	asr	r0, r0, r7
    8e34:	e1899080 	orr	r9, r9, r0, lsl #1
    8e38:	ee1f3f3c 	mrc	15, 0, r3, cr15, cr12, {1}
    8e3c:	e0683003 	rsb	r3, r8, r3
    8e40:	e1540003 	cmp	r4, r3
    8e44:	8afffffb 	bhi	8e38 <sw_uart_getc_timeout+0xa0>
    8e48:	e0888004 	add	r8, r8, r4
    8e4c:	e1a00007 	mov	r0, r7
    8e50:	eb000207 	bl	9674 <gpio_read>
    8e54:	e1a00750 	asr	r0, r0, r7
    8e58:	e1899100 	orr	r9, r9, r0, lsl #2
    8e5c:	ee1f3f3c 	mrc	15, 0, r3, cr15, cr12, {1}
    8e60:	e0683003 	rsb	r3, r8, r3
    8e64:	e1540003 	cmp	r4, r3
    8e68:	8afffffb 	bhi	8e5c <sw_uart_getc_timeout+0xc4>
    8e6c:	e0888004 	add	r8, r8, r4
    8e70:	e1a00007 	mov	r0, r7
    8e74:	eb0001fe 	bl	9674 <gpio_read>
    8e78:	e1a00750 	asr	r0, r0, r7
    8e7c:	e1899180 	orr	r9, r9, r0, lsl #3
    8e80:	ee1f3f3c 	mrc	15, 0, r3, cr15, cr12, {1}
    8e84:	e0683003 	rsb	r3, r8, r3
    8e88:	e1540003 	cmp	r4, r3
    8e8c:	8afffffb 	bhi	8e80 <sw_uart_getc_timeout+0xe8>
    8e90:	e0888004 	add	r8, r8, r4
    8e94:	e1a00007 	mov	r0, r7
    8e98:	eb0001f5 	bl	9674 <gpio_read>
    8e9c:	e1a00750 	asr	r0, r0, r7
    8ea0:	e1899200 	orr	r9, r9, r0, lsl #4
    8ea4:	ee1f3f3c 	mrc	15, 0, r3, cr15, cr12, {1}
    8ea8:	e0683003 	rsb	r3, r8, r3
    8eac:	e1540003 	cmp	r4, r3
    8eb0:	8afffffb 	bhi	8ea4 <sw_uart_getc_timeout+0x10c>
    8eb4:	e0888004 	add	r8, r8, r4
    8eb8:	e1a00007 	mov	r0, r7
    8ebc:	eb0001ec 	bl	9674 <gpio_read>
    8ec0:	e1a00750 	asr	r0, r0, r7
    8ec4:	e1899280 	orr	r9, r9, r0, lsl #5
    8ec8:	ee1f3f3c 	mrc	15, 0, r3, cr15, cr12, {1}
    8ecc:	e0683003 	rsb	r3, r8, r3
    8ed0:	e1540003 	cmp	r4, r3
    8ed4:	8afffffb 	bhi	8ec8 <sw_uart_getc_timeout+0x130>
    8ed8:	e0888004 	add	r8, r8, r4
    8edc:	e1a00007 	mov	r0, r7
    8ee0:	eb0001e3 	bl	9674 <gpio_read>
    8ee4:	e1a00750 	asr	r0, r0, r7
    8ee8:	e1899300 	orr	r9, r9, r0, lsl #6
    8eec:	ee1f3f3c 	mrc	15, 0, r3, cr15, cr12, {1}
    8ef0:	e0683003 	rsb	r3, r8, r3
    8ef4:	e1540003 	cmp	r4, r3
    8ef8:	8afffffb 	bhi	8eec <sw_uart_getc_timeout+0x154>
    8efc:	e1a00007 	mov	r0, r7
    8f00:	eb0001db 	bl	9674 <gpio_read>
    8f04:	e1a00750 	asr	r0, r0, r7
    8f08:	e1899380 	orr	r9, r9, r0, lsl #7
    8f0c:	ebffff31 	bl	8bd8 <timer_get_usec_raw>
    8f10:	e1a04000 	mov	r4, r0
    8f14:	e1a00005 	mov	r0, r5
    8f18:	eb0001d5 	bl	9674 <gpio_read>
    8f1c:	e3500000 	cmp	r0, #0
    8f20:	0a000005 	beq	8f3c <sw_uart_getc_timeout+0x1a4>
    8f24:	ebffff2b 	bl	8bd8 <timer_get_usec_raw>
    8f28:	e0640000 	rsb	r0, r4, r0
    8f2c:	e1560000 	cmp	r6, r0
    8f30:	2afffff7 	bcs	8f14 <sw_uart_getc_timeout+0x17c>
    8f34:	e3a03000 	mov	r3, #0
    8f38:	ea000000 	b	8f40 <sw_uart_getc_timeout+0x1a8>
    8f3c:	e3a03001 	mov	r3, #1
    8f40:	e3530000 	cmp	r3, #0
    8f44:	0a000003 	beq	8f58 <sw_uart_getc_timeout+0x1c0>
    8f48:	e1a00009 	mov	r0, r9
    8f4c:	e8bd83f8 	pop	{r3, r4, r5, r6, r7, r8, r9, pc}
    8f50:	e3e00000 	mvn	r0, #0
    8f54:	e8bd83f8 	pop	{r3, r4, r5, r6, r7, r8, r9, pc}
    8f58:	e3e00000 	mvn	r0, #0
    8f5c:	e8bd83f8 	pop	{r3, r4, r5, r6, r7, r8, r9, pc}

00008f60 <sw_uart_gets_until>:
    8f60:	e92d47f0 	push	{r4, r5, r6, r7, r8, r9, sl, lr}
    8f64:	e24dd008 	sub	sp, sp, #8
    8f68:	e1a08000 	mov	r8, r0
    8f6c:	e1a06001 	mov	r6, r1
    8f70:	e1a09003 	mov	r9, r3
    8f74:	e59da028 	ldr	sl, [sp, #40]	; 0x28
    8f78:	e3520000 	cmp	r2, #0
    8f7c:	1a000008 	bne	8fa4 <sw_uart_gets_until+0x44>
    8f80:	ebfffd5a 	bl	84f0 <rpi_reset_putc>
    8f84:	e59f3068 	ldr	r3, [pc, #104]	; 8ff4 <sw_uart_gets_until+0x94>
    8f88:	e58d3000 	str	r3, [sp]
    8f8c:	e59f0064 	ldr	r0, [pc, #100]	; 8ff8 <sw_uart_gets_until+0x98>
    8f90:	e59f1064 	ldr	r1, [pc, #100]	; 8ffc <sw_uart_gets_until+0x9c>
    8f94:	e59f2064 	ldr	r2, [pc, #100]	; 9000 <sw_uart_gets_until+0xa0>
    8f98:	e3a0306d 	mov	r3, #109	; 0x6d
    8f9c:	ebfffd38 	bl	8484 <printk>
    8fa0:	ebfffeb2 	bl	8a70 <clean_reboot>
    8fa4:	e3a04000 	mov	r4, #0
    8fa8:	e5c14000 	strb	r4, [r1]
    8fac:	e2427001 	sub	r7, r2, #1
    8fb0:	ea000007 	b	8fd4 <sw_uart_gets_until+0x74>
    8fb4:	e1a00008 	mov	r0, r8
    8fb8:	e1a0100a 	mov	r1, sl
    8fbc:	ebffff75 	bl	8d98 <sw_uart_getc_timeout>
    8fc0:	e6ef0070 	uxtb	r0, r0
    8fc4:	e1500009 	cmp	r0, r9
    8fc8:	0a000004 	beq	8fe0 <sw_uart_gets_until+0x80>
    8fcc:	e7c60005 	strb	r0, [r6, r5]
    8fd0:	e2844001 	add	r4, r4, #1
    8fd4:	e1a05004 	mov	r5, r4
    8fd8:	e1540007 	cmp	r4, r7
    8fdc:	3afffff4 	bcc	8fb4 <sw_uart_gets_until+0x54>
    8fe0:	e3a03000 	mov	r3, #0
    8fe4:	e7c63005 	strb	r3, [r6, r5]
    8fe8:	e1a00004 	mov	r0, r4
    8fec:	e28dd008 	add	sp, sp, #8
    8ff0:	e8bd87f0 	pop	{r4, r5, r6, r7, r8, r9, sl, pc}
    8ff4:	00009dfc 	strdeq	r9, [r0], -ip
    8ff8:	00009c70 	andeq	r9, r0, r0, ror ip
    8ffc:	00009de8 	andeq	r9, r0, r8, ror #27
    9000:	00009d70 	andeq	r9, r0, r0, ror sp

00009004 <sw_uart_gets_timeout>:
    9004:	e92d41f0 	push	{r4, r5, r6, r7, r8, lr}
    9008:	e24dd008 	sub	sp, sp, #8
    900c:	e1a07000 	mov	r7, r0
    9010:	e1a05001 	mov	r5, r1
    9014:	e1a08003 	mov	r8, r3
    9018:	e3520000 	cmp	r2, #0
    901c:	1a000008 	bne	9044 <sw_uart_gets_timeout+0x40>
    9020:	ebfffd32 	bl	84f0 <rpi_reset_putc>
    9024:	e59f3058 	ldr	r3, [pc, #88]	; 9084 <sw_uart_gets_timeout+0x80>
    9028:	e58d3000 	str	r3, [sp]
    902c:	e59f0054 	ldr	r0, [pc, #84]	; 9088 <sw_uart_gets_timeout+0x84>
    9030:	e59f1054 	ldr	r1, [pc, #84]	; 908c <sw_uart_gets_timeout+0x88>
    9034:	e59f2054 	ldr	r2, [pc, #84]	; 9090 <sw_uart_gets_timeout+0x8c>
    9038:	e3a03083 	mov	r3, #131	; 0x83
    903c:	ebfffd10 	bl	8484 <printk>
    9040:	ebfffe8a 	bl	8a70 <clean_reboot>
    9044:	e3a04000 	mov	r4, #0
    9048:	e5c14000 	strb	r4, [r1]
    904c:	e2426001 	sub	r6, r2, #1
    9050:	ea000004 	b	9068 <sw_uart_gets_timeout+0x64>
    9054:	e1a00007 	mov	r0, r7
    9058:	e1a01008 	mov	r1, r8
    905c:	ebffff4d 	bl	8d98 <sw_uart_getc_timeout>
    9060:	e7c50004 	strb	r0, [r5, r4]
    9064:	e2844001 	add	r4, r4, #1
    9068:	e1540006 	cmp	r4, r6
    906c:	3afffff8 	bcc	9054 <sw_uart_gets_timeout+0x50>
    9070:	e3a03000 	mov	r3, #0
    9074:	e7c53004 	strb	r3, [r5, r4]
    9078:	e1a00004 	mov	r0, r4
    907c:	e28dd008 	add	sp, sp, #8
    9080:	e8bd81f0 	pop	{r4, r5, r6, r7, r8, pc}
    9084:	00009dfc 	strdeq	r9, [r0], -ip
    9088:	00009c70 	andeq	r9, r0, r0, ror ip
    908c:	00009de8 	andeq	r9, r0, r8, ror #27
    9090:	00009d84 	andeq	r9, r0, r4, lsl #27

00009094 <sw_uart_init_helper>:
    9094:	e92d41f0 	push	{r4, r5, r6, r7, r8, lr}
    9098:	e24dd008 	sub	sp, sp, #8
    909c:	e1a04000 	mov	r4, r0
    90a0:	e1a06001 	mov	r6, r1
    90a4:	e1a08002 	mov	r8, r2
    90a8:	e1a05003 	mov	r5, r3
    90ac:	e59d7020 	ldr	r7, [sp, #32]
    90b0:	e1a00001 	mov	r0, r1
    90b4:	eb0000ea 	bl	9464 <gpio_set_output>
    90b8:	e1a00008 	mov	r0, r8
    90bc:	eb000139 	bl	95a8 <gpio_set_input>
    90c0:	e3a03001 	mov	r3, #1
    90c4:	ee0f3f1c 	mcr	15, 0, r3, cr15, cr12, {0}
    90c8:	e1a00006 	mov	r0, r6
    90cc:	e3a01001 	mov	r1, #1
    90d0:	eb00017a 	bl	96c0 <gpio_write>
    90d4:	e0020795 	mul	r2, r5, r7
    90d8:	e59f3074 	ldr	r3, [pc, #116]	; 9154 <sw_uart_init_helper+0xc0>
    90dc:	e0653003 	rsb	r3, r5, r3
    90e0:	e1530002 	cmp	r3, r2
    90e4:	8a000005 	bhi	9100 <sw_uart_init_helper+0x6c>
    90e8:	e59f3064 	ldr	r3, [pc, #100]	; 9154 <sw_uart_init_helper+0xc0>
    90ec:	e0853003 	add	r3, r5, r3
    90f0:	e1530002 	cmp	r3, r2
    90f4:	2a000003 	bcs	9108 <sw_uart_init_helper+0x74>
    90f8:	e3a03000 	mov	r3, #0
    90fc:	ea000002 	b	910c <sw_uart_init_helper+0x78>
    9100:	e3a03000 	mov	r3, #0
    9104:	ea000000 	b	910c <sw_uart_init_helper+0x78>
    9108:	e3a03001 	mov	r3, #1
    910c:	e3530000 	cmp	r3, #0
    9110:	1a000008 	bne	9138 <sw_uart_init_helper+0xa4>
    9114:	ebfffcf5 	bl	84f0 <rpi_reset_putc>
    9118:	e59f3038 	ldr	r3, [pc, #56]	; 9158 <sw_uart_init_helper+0xc4>
    911c:	e58d3000 	str	r3, [sp]
    9120:	e59f0034 	ldr	r0, [pc, #52]	; 915c <sw_uart_init_helper+0xc8>
    9124:	e59f1034 	ldr	r1, [pc, #52]	; 9160 <sw_uart_init_helper+0xcc>
    9128:	e59f2034 	ldr	r2, [pc, #52]	; 9164 <sw_uart_init_helper+0xd0>
    912c:	e3a0309d 	mov	r3, #157	; 0x9d
    9130:	ebfffcd3 	bl	8484 <printk>
    9134:	ebfffe4d 	bl	8a70 <clean_reboot>
    9138:	e5c46000 	strb	r6, [r4]
    913c:	e5c48001 	strb	r8, [r4, #1]
    9140:	e5845004 	str	r5, [r4, #4]
    9144:	e5847008 	str	r7, [r4, #8]
    9148:	e1a00004 	mov	r0, r4
    914c:	e28dd008 	add	sp, sp, #8
    9150:	e8bd81f0 	pop	{r4, r5, r6, r7, r8, pc}
    9154:	29b92700 	ldmibcs	r9!, {r8, r9, sl, sp}
    9158:	00009e08 	andeq	r9, r0, r8, lsl #28
    915c:	00009c70 	andeq	r9, r0, r0, ror ip
    9160:	00009de8 	andeq	r9, r0, r8, ror #27
    9164:	00009d9c 	muleq	r0, ip, sp

00009168 <sw_uart_getc>:
    9168:	e92d4008 	push	{r3, lr}
    916c:	e3e01000 	mvn	r1, #0
    9170:	ebffff08 	bl	8d98 <sw_uart_getc_timeout>
    9174:	e3500000 	cmp	r0, #0
    9178:	a8bd8008 	popge	{r3, pc}
    917c:	ebfffcdb 	bl	84f0 <rpi_reset_putc>
    9180:	e59f0010 	ldr	r0, [pc, #16]	; 9198 <sw_uart_getc+0x30>
    9184:	e59f1010 	ldr	r1, [pc, #16]	; 919c <sw_uart_getc+0x34>
    9188:	e59f2010 	ldr	r2, [pc, #16]	; 91a0 <sw_uart_getc+0x38>
    918c:	e3a030ac 	mov	r3, #172	; 0xac
    9190:	ebfffcbb 	bl	8484 <printk>
    9194:	ebfffe35 	bl	8a70 <clean_reboot>
    9198:	00009e3c 	andeq	r9, r0, ip, lsr lr
    919c:	00009de8 	andeq	r9, r0, r8, ror #27
    91a0:	00009db0 			; <UNDEFINED> instruction: 0x00009db0

000091a4 <sw_uart_putk>:
    91a4:	e92d4038 	push	{r3, r4, r5, lr}
    91a8:	e1a05000 	mov	r5, r0
    91ac:	e1a04001 	mov	r4, r1
    91b0:	ea000002 	b	91c0 <sw_uart_putk+0x1c>
    91b4:	e1a00005 	mov	r0, r5
    91b8:	ebfffea1 	bl	8c44 <sw_uart_putc>
    91bc:	e2844001 	add	r4, r4, #1
    91c0:	e5d41000 	ldrb	r1, [r4]
    91c4:	e3510000 	cmp	r1, #0
    91c8:	1afffff9 	bne	91b4 <sw_uart_putk+0x10>
    91cc:	e8bd8038 	pop	{r3, r4, r5, pc}

000091d0 <sw_uart_printk>:
    91d0:	e92d000e 	push	{r1, r2, r3}
    91d4:	e92d4030 	push	{r4, r5, lr}
    91d8:	e24ddf76 	sub	sp, sp, #472	; 0x1d8
    91dc:	e1a05000 	mov	r5, r0
    91e0:	e28d3f7a 	add	r3, sp, #488	; 0x1e8
    91e4:	e58d3008 	str	r3, [sp, #8]
    91e8:	e28d000c 	add	r0, sp, #12
    91ec:	e3a01f73 	mov	r1, #460	; 0x1cc
    91f0:	e59d21e4 	ldr	r2, [sp, #484]	; 0x1e4
    91f4:	ebfffd78 	bl	87dc <va_printk>
    91f8:	e1a04000 	mov	r4, r0
    91fc:	e59f3048 	ldr	r3, [pc, #72]	; 924c <sw_uart_printk+0x7c>
    9200:	e1500003 	cmp	r0, r3
    9204:	9a000008 	bls	922c <sw_uart_printk+0x5c>
    9208:	ebfffcb8 	bl	84f0 <rpi_reset_putc>
    920c:	e59f303c 	ldr	r3, [pc, #60]	; 9250 <sw_uart_printk+0x80>
    9210:	e58d3000 	str	r3, [sp]
    9214:	e59f0038 	ldr	r0, [pc, #56]	; 9254 <sw_uart_printk+0x84>
    9218:	e59f1038 	ldr	r1, [pc, #56]	; 9258 <sw_uart_printk+0x88>
    921c:	e59f2038 	ldr	r2, [pc, #56]	; 925c <sw_uart_printk+0x8c>
    9220:	e3a030c0 	mov	r3, #192	; 0xc0
    9224:	ebfffc96 	bl	8484 <printk>
    9228:	ebfffe10 	bl	8a70 <clean_reboot>
    922c:	e1a00005 	mov	r0, r5
    9230:	e28d100c 	add	r1, sp, #12
    9234:	ebffffda 	bl	91a4 <sw_uart_putk>
    9238:	e1a00004 	mov	r0, r4
    923c:	e28ddf76 	add	sp, sp, #472	; 0x1d8
    9240:	e8bd4030 	pop	{r4, r5, lr}
    9244:	e28dd00c 	add	sp, sp, #12
    9248:	e12fff1e 	bx	lr
    924c:	000001ca 	andeq	r0, r0, sl, asr #3
    9250:	00009e74 	andeq	r9, r0, r4, ror lr
    9254:	00009c70 	andeq	r9, r0, r0, ror ip
    9258:	00009de8 	andeq	r9, r0, r8, ror #27
    925c:	00009dc0 	andeq	r9, r0, r0, asr #27

00009260 <sw_uart_gets_until_blk>:
    9260:	e52de004 	push	{lr}		; (str lr, [sp, #-4]!)
    9264:	e24dd00c 	sub	sp, sp, #12
    9268:	e3e0c000 	mvn	ip, #0
    926c:	e58dc000 	str	ip, [sp]
    9270:	ebffff3a 	bl	8f60 <sw_uart_gets_until>
    9274:	e3500000 	cmp	r0, #0
    9278:	aa000006 	bge	9298 <sw_uart_gets_until_blk+0x38>
    927c:	ebfffc9b 	bl	84f0 <rpi_reset_putc>
    9280:	e59f0018 	ldr	r0, [pc, #24]	; 92a0 <sw_uart_gets_until_blk+0x40>
    9284:	e59f1018 	ldr	r1, [pc, #24]	; 92a4 <sw_uart_gets_until_blk+0x44>
    9288:	e59f2018 	ldr	r2, [pc, #24]	; 92a8 <sw_uart_gets_until_blk+0x48>
    928c:	e3a030c8 	mov	r3, #200	; 0xc8
    9290:	ebfffc7b 	bl	8484 <printk>
    9294:	ebfffdf5 	bl	8a70 <clean_reboot>
    9298:	e28dd00c 	add	sp, sp, #12
    929c:	e49df004 	pop	{pc}		; (ldr pc, [sp], #4)
    92a0:	00009e3c 	andeq	r9, r0, ip, lsr lr
    92a4:	00009de8 	andeq	r9, r0, r8, ror #27
    92a8:	00009dd0 	ldrdeq	r9, [r0], -r0

000092ac <uart_init>:
    92ac:	e92d4038 	push	{r3, r4, r5, lr}
    92b0:	eb000052 	bl	9400 <dev_barrier>
    92b4:	e3a0000e 	mov	r0, #14
    92b8:	e3a01002 	mov	r1, #2
    92bc:	eb000108 	bl	96e4 <gpio_set_function>
    92c0:	e3a0000f 	mov	r0, #15
    92c4:	e3a01002 	mov	r1, #2
    92c8:	eb000105 	bl	96e4 <gpio_set_function>
    92cc:	eb00004b 	bl	9400 <dev_barrier>
    92d0:	e59f4068 	ldr	r4, [pc, #104]	; 9340 <uart_init+0x94>
    92d4:	e5945000 	ldr	r5, [r4]
    92d8:	e1a00005 	mov	r0, r5
    92dc:	eb000059 	bl	9448 <get32>
    92e0:	e3801001 	orr	r1, r0, #1
    92e4:	e1a00005 	mov	r0, r5
    92e8:	eb00004a 	bl	9418 <put32>
    92ec:	eb000043 	bl	9400 <dev_barrier>
    92f0:	e5940004 	ldr	r0, [r4, #4]
    92f4:	e3a01000 	mov	r1, #0
    92f8:	eb000046 	bl	9418 <put32>
    92fc:	e5940008 	ldr	r0, [r4, #8]
    9300:	e3a01000 	mov	r1, #0
    9304:	eb000043 	bl	9418 <put32>
    9308:	e594000c 	ldr	r0, [r4, #12]
    930c:	e3a01006 	mov	r1, #6
    9310:	eb000040 	bl	9418 <put32>
    9314:	e5940010 	ldr	r0, [r4, #16]
    9318:	e3a01003 	mov	r1, #3
    931c:	eb00003d 	bl	9418 <put32>
    9320:	e5940014 	ldr	r0, [r4, #20]
    9324:	e59f1018 	ldr	r1, [pc, #24]	; 9344 <uart_init+0x98>
    9328:	eb00003a 	bl	9418 <put32>
    932c:	e5940004 	ldr	r0, [r4, #4]
    9330:	e3a01003 	mov	r1, #3
    9334:	eb000037 	bl	9418 <put32>
    9338:	eb000030 	bl	9400 <dev_barrier>
    933c:	e8bd8038 	pop	{r3, r4, r5, pc}
    9340:	00009a44 	andeq	r9, r0, r4, asr #20
    9344:	0000010e 	andeq	r0, r0, lr, lsl #2

00009348 <uart_can_getc>:
    9348:	e92d4008 	push	{r3, lr}
    934c:	e59f300c 	ldr	r3, [pc, #12]	; 9360 <uart_can_getc+0x18>
    9350:	e5930018 	ldr	r0, [r3, #24]
    9354:	eb00003b 	bl	9448 <get32>
    9358:	e2000001 	and	r0, r0, #1
    935c:	e8bd8008 	pop	{r3, pc}
    9360:	00009a44 	andeq	r9, r0, r4, asr #20

00009364 <uart_getc>:
    9364:	e92d4008 	push	{r3, lr}
    9368:	ebfffff6 	bl	9348 <uart_can_getc>
    936c:	e3500000 	cmp	r0, #0
    9370:	0afffffc 	beq	9368 <uart_getc+0x4>
    9374:	e59f300c 	ldr	r3, [pc, #12]	; 9388 <uart_getc+0x24>
    9378:	e593001c 	ldr	r0, [r3, #28]
    937c:	eb000031 	bl	9448 <get32>
    9380:	e6ef0070 	uxtb	r0, r0
    9384:	e8bd8008 	pop	{r3, pc}
    9388:	00009a44 	andeq	r9, r0, r4, asr #20

0000938c <uart_can_putc>:
    938c:	e92d4008 	push	{r3, lr}
    9390:	e59f300c 	ldr	r3, [pc, #12]	; 93a4 <uart_can_putc+0x18>
    9394:	e5930018 	ldr	r0, [r3, #24]
    9398:	eb00002a 	bl	9448 <get32>
    939c:	e2000020 	and	r0, r0, #32
    93a0:	e8bd8008 	pop	{r3, pc}
    93a4:	00009a44 	andeq	r9, r0, r4, asr #20

000093a8 <uart_putc>:
    93a8:	e92d4010 	push	{r4, lr}
    93ac:	e1a04000 	mov	r4, r0
    93b0:	ebfffff5 	bl	938c <uart_can_putc>
    93b4:	e3500000 	cmp	r0, #0
    93b8:	0afffffc 	beq	93b0 <uart_putc+0x8>
    93bc:	e59f300c 	ldr	r3, [pc, #12]	; 93d0 <uart_putc+0x28>
    93c0:	e593001c 	ldr	r0, [r3, #28]
    93c4:	e1a01004 	mov	r1, r4
    93c8:	eb000012 	bl	9418 <put32>
    93cc:	e8bd8010 	pop	{r4, pc}
    93d0:	00009a44 	andeq	r9, r0, r4, asr #20

000093d4 <uart_has_data>:
    93d4:	e92d4008 	push	{r3, lr}
    93d8:	ebffffda 	bl	9348 <uart_can_getc>
    93dc:	e8bd8008 	pop	{r3, pc}

000093e0 <uart_getc_async>:
    93e0:	e92d4008 	push	{r3, lr}
    93e4:	ebfffffa 	bl	93d4 <uart_has_data>
    93e8:	e3500000 	cmp	r0, #0
    93ec:	0a000001 	beq	93f8 <uart_getc_async+0x18>
    93f0:	ebffffdb 	bl	9364 <uart_getc>
    93f4:	e8bd8008 	pop	{r3, pc}
    93f8:	e3e00000 	mvn	r0, #0
    93fc:	e8bd8008 	pop	{r3, pc}

00009400 <dev_barrier>:
    9400:	ea000002 	b	9410 <dsb>

00009404 <dmb>:
    9404:	e3a00000 	mov	r0, #0
    9408:	ee070fba 	mcr	15, 0, r0, cr7, cr10, {5}
    940c:	e12fff1e 	bx	lr

00009410 <dsb>:
    9410:	ee070f9a 	mcr	15, 0, r0, cr7, cr10, {4}
    9414:	e12fff1e 	bx	lr

00009418 <put32>:
    9418:	e5801000 	str	r1, [r0]
    941c:	e12fff1e 	bx	lr

00009420 <PUT32>:
    9420:	e5801000 	str	r1, [r0]
    9424:	e12fff1e 	bx	lr

00009428 <put16>:
    9428:	e1c010b0 	strh	r1, [r0]
    942c:	e12fff1e 	bx	lr

00009430 <PUT16>:
    9430:	e1c010b0 	strh	r1, [r0]
    9434:	e12fff1e 	bx	lr

00009438 <put8>:
    9438:	e5c01000 	strb	r1, [r0]
    943c:	e12fff1e 	bx	lr

00009440 <PUT8>:
    9440:	e5c01000 	strb	r1, [r0]
    9444:	e12fff1e 	bx	lr

00009448 <get32>:
    9448:	e5900000 	ldr	r0, [r0]
    944c:	e12fff1e 	bx	lr

00009450 <GET32>:
    9450:	e5900000 	ldr	r0, [r0]
    9454:	e12fff1e 	bx	lr

00009458 <GETPC>:
    9458:	e1a0000e 	mov	r0, lr
    945c:	e12fff1e 	bx	lr

00009460 <dummy>:
    9460:	e12fff1e 	bx	lr

00009464 <gpio_set_output>:
    9464:	e92d4038 	push	{r3, r4, r5, lr}
    9468:	e1a04000 	mov	r4, r0
    946c:	e350001f 	cmp	r0, #31
    9470:	88bd8038 	pophi	{r3, r4, r5, pc}
    9474:	e59f30b4 	ldr	r3, [pc, #180]	; 9530 <gpio_set_output+0xcc>
    9478:	e0832093 	umull	r2, r3, r3, r0
    947c:	e1a031a3 	lsr	r3, r3, #3
    9480:	e3530005 	cmp	r3, #5
    9484:	979ff103 	ldrls	pc, [pc, r3, lsl #2]
    9488:	ea000017 	b	94ec <gpio_set_output+0x88>
    948c:	000094a4 	andeq	r9, r0, r4, lsr #9
    9490:	000094b0 			; <UNDEFINED> instruction: 0x000094b0
    9494:	000094bc 			; <UNDEFINED> instruction: 0x000094bc
    9498:	000094c8 	andeq	r9, r0, r8, asr #9
    949c:	000094d4 	ldrdeq	r9, [r0], -r4
    94a0:	000094e0 	andeq	r9, r0, r0, ror #9
    94a4:	e59f3088 	ldr	r3, [pc, #136]	; 9534 <gpio_set_output+0xd0>
    94a8:	e5935000 	ldr	r5, [r3]
    94ac:	ea00000f 	b	94f0 <gpio_set_output+0x8c>
    94b0:	e59f307c 	ldr	r3, [pc, #124]	; 9534 <gpio_set_output+0xd0>
    94b4:	e5935004 	ldr	r5, [r3, #4]
    94b8:	ea00000c 	b	94f0 <gpio_set_output+0x8c>
    94bc:	e59f3070 	ldr	r3, [pc, #112]	; 9534 <gpio_set_output+0xd0>
    94c0:	e5935008 	ldr	r5, [r3, #8]
    94c4:	ea000009 	b	94f0 <gpio_set_output+0x8c>
    94c8:	e59f3064 	ldr	r3, [pc, #100]	; 9534 <gpio_set_output+0xd0>
    94cc:	e593500c 	ldr	r5, [r3, #12]
    94d0:	ea000006 	b	94f0 <gpio_set_output+0x8c>
    94d4:	e59f3058 	ldr	r3, [pc, #88]	; 9534 <gpio_set_output+0xd0>
    94d8:	e5935010 	ldr	r5, [r3, #16]
    94dc:	ea000003 	b	94f0 <gpio_set_output+0x8c>
    94e0:	e59f304c 	ldr	r3, [pc, #76]	; 9534 <gpio_set_output+0xd0>
    94e4:	e5935014 	ldr	r5, [r3, #20]
    94e8:	ea000000 	b	94f0 <gpio_set_output+0x8c>
    94ec:	e3a05000 	mov	r5, #0
    94f0:	e1a00005 	mov	r0, r5
    94f4:	ebffffd3 	bl	9448 <get32>
    94f8:	e59f1030 	ldr	r1, [pc, #48]	; 9530 <gpio_set_output+0xcc>
    94fc:	e0813491 	umull	r3, r1, r1, r4
    9500:	e1a011a1 	lsr	r1, r1, #3
    9504:	e0811101 	add	r1, r1, r1, lsl #2
    9508:	e1a01081 	lsl	r1, r1, #1
    950c:	e0611004 	rsb	r1, r1, r4
    9510:	e0811081 	add	r1, r1, r1, lsl #1
    9514:	e3a03007 	mov	r3, #7
    9518:	e1c03113 	bic	r3, r0, r3, lsl r1
    951c:	e1a00005 	mov	r0, r5
    9520:	e3a02001 	mov	r2, #1
    9524:	e1831112 	orr	r1, r3, r2, lsl r1
    9528:	ebffffba 	bl	9418 <put32>
    952c:	e8bd8038 	pop	{r3, r4, r5, pc}
    9530:	cccccccd 	stclgt	12, cr12, [ip], {205}	; 0xcd
    9534:	00009a78 	andeq	r9, r0, r8, ror sl

00009538 <gpio_set_on>:
    9538:	e92d4008 	push	{r3, lr}
    953c:	e350001f 	cmp	r0, #31
    9540:	88bd8008 	pophi	{r3, pc}
    9544:	959f3020 	ldrls	r3, [pc, #32]	; 956c <gpio_set_on+0x34>
    9548:	95932018 	ldrls	r2, [r3, #24]
    954c:	859f3018 	ldrhi	r3, [pc, #24]	; 956c <gpio_set_on+0x34>
    9550:	8593201c 	ldrhi	r2, [r3, #28]
    9554:	e200301f 	and	r3, r0, #31
    9558:	e1a00002 	mov	r0, r2
    955c:	e3a01001 	mov	r1, #1
    9560:	e1a01311 	lsl	r1, r1, r3
    9564:	ebffffab 	bl	9418 <put32>
    9568:	e8bd8008 	pop	{r3, pc}
    956c:	00009a78 	andeq	r9, r0, r8, ror sl

00009570 <gpio_set_off>:
    9570:	e92d4008 	push	{r3, lr}
    9574:	e350001f 	cmp	r0, #31
    9578:	88bd8008 	pophi	{r3, pc}
    957c:	959f3020 	ldrls	r3, [pc, #32]	; 95a4 <gpio_set_off+0x34>
    9580:	95932020 	ldrls	r2, [r3, #32]
    9584:	859f3018 	ldrhi	r3, [pc, #24]	; 95a4 <gpio_set_off+0x34>
    9588:	85932024 	ldrhi	r2, [r3, #36]	; 0x24
    958c:	e200301f 	and	r3, r0, #31
    9590:	e1a00002 	mov	r0, r2
    9594:	e3a01001 	mov	r1, #1
    9598:	e1a01311 	lsl	r1, r1, r3
    959c:	ebffff9d 	bl	9418 <put32>
    95a0:	e8bd8008 	pop	{r3, pc}
    95a4:	00009a78 	andeq	r9, r0, r8, ror sl

000095a8 <gpio_set_input>:
    95a8:	e92d4038 	push	{r3, r4, r5, lr}
    95ac:	e1a04000 	mov	r4, r0
    95b0:	e350001f 	cmp	r0, #31
    95b4:	88bd8038 	pophi	{r3, r4, r5, pc}
    95b8:	e59f30ac 	ldr	r3, [pc, #172]	; 966c <gpio_set_input+0xc4>
    95bc:	e0832093 	umull	r2, r3, r3, r0
    95c0:	e1a031a3 	lsr	r3, r3, #3
    95c4:	e3530005 	cmp	r3, #5
    95c8:	979ff103 	ldrls	pc, [pc, r3, lsl #2]
    95cc:	ea000017 	b	9630 <gpio_set_input+0x88>
    95d0:	000095e8 	andeq	r9, r0, r8, ror #11
    95d4:	000095f4 	strdeq	r9, [r0], -r4
    95d8:	00009600 	andeq	r9, r0, r0, lsl #12
    95dc:	0000960c 	andeq	r9, r0, ip, lsl #12
    95e0:	00009618 	andeq	r9, r0, r8, lsl r6
    95e4:	00009624 	andeq	r9, r0, r4, lsr #12
    95e8:	e59f3080 	ldr	r3, [pc, #128]	; 9670 <gpio_set_input+0xc8>
    95ec:	e5935000 	ldr	r5, [r3]
    95f0:	ea00000f 	b	9634 <gpio_set_input+0x8c>
    95f4:	e59f3074 	ldr	r3, [pc, #116]	; 9670 <gpio_set_input+0xc8>
    95f8:	e5935004 	ldr	r5, [r3, #4]
    95fc:	ea00000c 	b	9634 <gpio_set_input+0x8c>
    9600:	e59f3068 	ldr	r3, [pc, #104]	; 9670 <gpio_set_input+0xc8>
    9604:	e5935008 	ldr	r5, [r3, #8]
    9608:	ea000009 	b	9634 <gpio_set_input+0x8c>
    960c:	e59f305c 	ldr	r3, [pc, #92]	; 9670 <gpio_set_input+0xc8>
    9610:	e593500c 	ldr	r5, [r3, #12]
    9614:	ea000006 	b	9634 <gpio_set_input+0x8c>
    9618:	e59f3050 	ldr	r3, [pc, #80]	; 9670 <gpio_set_input+0xc8>
    961c:	e5935010 	ldr	r5, [r3, #16]
    9620:	ea000003 	b	9634 <gpio_set_input+0x8c>
    9624:	e59f3044 	ldr	r3, [pc, #68]	; 9670 <gpio_set_input+0xc8>
    9628:	e5935014 	ldr	r5, [r3, #20]
    962c:	ea000000 	b	9634 <gpio_set_input+0x8c>
    9630:	e3a05000 	mov	r5, #0
    9634:	e1a00005 	mov	r0, r5
    9638:	ebffff82 	bl	9448 <get32>
    963c:	e59f1028 	ldr	r1, [pc, #40]	; 966c <gpio_set_input+0xc4>
    9640:	e0813491 	umull	r3, r1, r1, r4
    9644:	e1a011a1 	lsr	r1, r1, #3
    9648:	e0811101 	add	r1, r1, r1, lsl #2
    964c:	e1a01081 	lsl	r1, r1, #1
    9650:	e0611004 	rsb	r1, r1, r4
    9654:	e0811081 	add	r1, r1, r1, lsl #1
    9658:	e3a03007 	mov	r3, #7
    965c:	e1c01113 	bic	r1, r0, r3, lsl r1
    9660:	e1a00005 	mov	r0, r5
    9664:	ebffff6b 	bl	9418 <put32>
    9668:	e8bd8038 	pop	{r3, r4, r5, pc}
    966c:	cccccccd 	stclgt	12, cr12, [ip], {205}	; 0xcd
    9670:	00009a78 	andeq	r9, r0, r8, ror sl

00009674 <gpio_read>:
    9674:	e92d4010 	push	{r4, lr}
    9678:	e1a04000 	mov	r4, r0
    967c:	e350001f 	cmp	r0, #31
    9680:	8a00000b 	bhi	96b4 <gpio_read+0x40>
    9684:	8a000003 	bhi	9698 <gpio_read+0x24>
    9688:	e59f302c 	ldr	r3, [pc, #44]	; 96bc <gpio_read+0x48>
    968c:	e5930028 	ldr	r0, [r3, #40]	; 0x28
    9690:	ebffff6c 	bl	9448 <get32>
    9694:	ea000002 	b	96a4 <gpio_read+0x30>
    9698:	e59f301c 	ldr	r3, [pc, #28]	; 96bc <gpio_read+0x48>
    969c:	e593002c 	ldr	r0, [r3, #44]	; 0x2c
    96a0:	ebffff68 	bl	9448 <get32>
    96a4:	e204401f 	and	r4, r4, #31
    96a8:	e3a03001 	mov	r3, #1
    96ac:	e0000413 	and	r0, r0, r3, lsl r4
    96b0:	e8bd8010 	pop	{r4, pc}
    96b4:	e3e00000 	mvn	r0, #0
    96b8:	e8bd8010 	pop	{r4, pc}
    96bc:	00009a78 	andeq	r9, r0, r8, ror sl

000096c0 <gpio_write>:
    96c0:	e92d4008 	push	{r3, lr}
    96c4:	e350001f 	cmp	r0, #31
    96c8:	88bd8008 	pophi	{r3, pc}
    96cc:	e3510000 	cmp	r1, #0
    96d0:	0a000001 	beq	96dc <gpio_write+0x1c>
    96d4:	ebffff97 	bl	9538 <gpio_set_on>
    96d8:	e8bd8008 	pop	{r3, pc}
    96dc:	ebffffa3 	bl	9570 <gpio_set_off>
    96e0:	e8bd8008 	pop	{r3, pc}

000096e4 <gpio_set_function>:
    96e4:	e92d4070 	push	{r4, r5, r6, lr}
    96e8:	e1a04000 	mov	r4, r0
    96ec:	e1a05001 	mov	r5, r1
    96f0:	e3510007 	cmp	r1, #7
    96f4:	9350001f 	cmpls	r0, #31
    96f8:	88bd8070 	pophi	{r4, r5, r6, pc}
    96fc:	e59f30b0 	ldr	r3, [pc, #176]	; 97b4 <gpio_set_function+0xd0>
    9700:	e0832093 	umull	r2, r3, r3, r0
    9704:	e1a031a3 	lsr	r3, r3, #3
    9708:	e3530005 	cmp	r3, #5
    970c:	979ff103 	ldrls	pc, [pc, r3, lsl #2]
    9710:	ea000017 	b	9774 <gpio_set_function+0x90>
    9714:	0000972c 	andeq	r9, r0, ip, lsr #14
    9718:	00009738 	andeq	r9, r0, r8, lsr r7
    971c:	00009744 	andeq	r9, r0, r4, asr #14
    9720:	00009750 	andeq	r9, r0, r0, asr r7
    9724:	0000975c 	andeq	r9, r0, ip, asr r7
    9728:	00009768 	andeq	r9, r0, r8, ror #14
    972c:	e59f3084 	ldr	r3, [pc, #132]	; 97b8 <gpio_set_function+0xd4>
    9730:	e5936000 	ldr	r6, [r3]
    9734:	ea00000f 	b	9778 <gpio_set_function+0x94>
    9738:	e59f3078 	ldr	r3, [pc, #120]	; 97b8 <gpio_set_function+0xd4>
    973c:	e5936004 	ldr	r6, [r3, #4]
    9740:	ea00000c 	b	9778 <gpio_set_function+0x94>
    9744:	e59f306c 	ldr	r3, [pc, #108]	; 97b8 <gpio_set_function+0xd4>
    9748:	e5936008 	ldr	r6, [r3, #8]
    974c:	ea000009 	b	9778 <gpio_set_function+0x94>
    9750:	e59f3060 	ldr	r3, [pc, #96]	; 97b8 <gpio_set_function+0xd4>
    9754:	e593600c 	ldr	r6, [r3, #12]
    9758:	ea000006 	b	9778 <gpio_set_function+0x94>
    975c:	e59f3054 	ldr	r3, [pc, #84]	; 97b8 <gpio_set_function+0xd4>
    9760:	e5936010 	ldr	r6, [r3, #16]
    9764:	ea000003 	b	9778 <gpio_set_function+0x94>
    9768:	e59f3048 	ldr	r3, [pc, #72]	; 97b8 <gpio_set_function+0xd4>
    976c:	e5936014 	ldr	r6, [r3, #20]
    9770:	ea000000 	b	9778 <gpio_set_function+0x94>
    9774:	e3a06000 	mov	r6, #0
    9778:	e1a00006 	mov	r0, r6
    977c:	ebffff31 	bl	9448 <get32>
    9780:	e59f302c 	ldr	r3, [pc, #44]	; 97b4 <gpio_set_function+0xd0>
    9784:	e0832493 	umull	r2, r3, r3, r4
    9788:	e1a031a3 	lsr	r3, r3, #3
    978c:	e0833103 	add	r3, r3, r3, lsl #2
    9790:	e1a03083 	lsl	r3, r3, #1
    9794:	e0633004 	rsb	r3, r3, r4
    9798:	e0833083 	add	r3, r3, r3, lsl #1
    979c:	e3a01007 	mov	r1, #7
    97a0:	e1c01311 	bic	r1, r0, r1, lsl r3
    97a4:	e1a00006 	mov	r0, r6
    97a8:	e1811315 	orr	r1, r1, r5, lsl r3
    97ac:	ebffff19 	bl	9418 <put32>
    97b0:	e8bd8070 	pop	{r4, r5, r6, pc}
    97b4:	cccccccd 	stclgt	12, cr12, [ip], {205}	; 0xcd
    97b8:	00009a78 	andeq	r9, r0, r8, ror sl

000097bc <is_gpio_int>:
    97bc:	e92d4008 	push	{r3, lr}
    97c0:	e59f301c 	ldr	r3, [pc, #28]	; 97e4 <is_gpio_int+0x28>
    97c4:	e5930030 	ldr	r0, [r3, #48]	; 0x30
    97c8:	ebffff1e 	bl	9448 <get32>
    97cc:	e3500000 	cmp	r0, #0
    97d0:	0a000001 	beq	97dc <is_gpio_int+0x20>
    97d4:	e3a00001 	mov	r0, #1
    97d8:	e8bd8008 	pop	{r3, pc}
    97dc:	e3a00000 	mov	r0, #0
    97e0:	e8bd8008 	pop	{r3, pc}
    97e4:	00009a78 	andeq	r9, r0, r8, ror sl

000097e8 <gpio_int_rising_edge>:
    97e8:	e92d4038 	push	{r3, r4, r5, lr}
    97ec:	e1a04000 	mov	r4, r0
    97f0:	e350001f 	cmp	r0, #31
    97f4:	88bd8038 	pophi	{r3, r4, r5, pc}
    97f8:	ebffff00 	bl	9400 <dev_barrier>
    97fc:	e354001f 	cmp	r4, #31
    9800:	8a000007 	bhi	9824 <gpio_int_rising_edge+0x3c>
    9804:	e59f505c 	ldr	r5, [pc, #92]	; 9868 <gpio_int_rising_edge+0x80>
    9808:	e5950034 	ldr	r0, [r5, #52]	; 0x34
    980c:	ebffff0d 	bl	9448 <get32>
    9810:	e3a01001 	mov	r1, #1
    9814:	e1801411 	orr	r1, r0, r1, lsl r4
    9818:	e5950034 	ldr	r0, [r5, #52]	; 0x34
    981c:	ebfffefd 	bl	9418 <put32>
    9820:	ea000007 	b	9844 <gpio_int_rising_edge+0x5c>
    9824:	e59f503c 	ldr	r5, [pc, #60]	; 9868 <gpio_int_rising_edge+0x80>
    9828:	e5950038 	ldr	r0, [r5, #56]	; 0x38
    982c:	ebffff05 	bl	9448 <get32>
    9830:	e204401f 	and	r4, r4, #31
    9834:	e3a01001 	mov	r1, #1
    9838:	e1801411 	orr	r1, r0, r1, lsl r4
    983c:	e5950038 	ldr	r0, [r5, #56]	; 0x38
    9840:	ebfffef4 	bl	9418 <put32>
    9844:	ebfffeed 	bl	9400 <dev_barrier>
    9848:	e59f4018 	ldr	r4, [pc, #24]	; 9868 <gpio_int_rising_edge+0x80>
    984c:	e594003c 	ldr	r0, [r4, #60]	; 0x3c
    9850:	ebfffefc 	bl	9448 <get32>
    9854:	e3801802 	orr	r1, r0, #131072	; 0x20000
    9858:	e594003c 	ldr	r0, [r4, #60]	; 0x3c
    985c:	ebfffeed 	bl	9418 <put32>
    9860:	ebfffee6 	bl	9400 <dev_barrier>
    9864:	e8bd8038 	pop	{r3, r4, r5, pc}
    9868:	00009a78 	andeq	r9, r0, r8, ror sl

0000986c <gpio_int_falling_edge>:
    986c:	e92d4038 	push	{r3, r4, r5, lr}
    9870:	e1a04000 	mov	r4, r0
    9874:	e350001f 	cmp	r0, #31
    9878:	88bd8038 	pophi	{r3, r4, r5, pc}
    987c:	ebfffedf 	bl	9400 <dev_barrier>
    9880:	e354001f 	cmp	r4, #31
    9884:	8a000007 	bhi	98a8 <gpio_int_falling_edge+0x3c>
    9888:	e59f505c 	ldr	r5, [pc, #92]	; 98ec <gpio_int_falling_edge+0x80>
    988c:	e5950040 	ldr	r0, [r5, #64]	; 0x40
    9890:	ebfffeec 	bl	9448 <get32>
    9894:	e3a01001 	mov	r1, #1
    9898:	e1801411 	orr	r1, r0, r1, lsl r4
    989c:	e5950040 	ldr	r0, [r5, #64]	; 0x40
    98a0:	ebfffedc 	bl	9418 <put32>
    98a4:	ea000007 	b	98c8 <gpio_int_falling_edge+0x5c>
    98a8:	e59f503c 	ldr	r5, [pc, #60]	; 98ec <gpio_int_falling_edge+0x80>
    98ac:	e5950044 	ldr	r0, [r5, #68]	; 0x44
    98b0:	ebfffee4 	bl	9448 <get32>
    98b4:	e204401f 	and	r4, r4, #31
    98b8:	e3a01001 	mov	r1, #1
    98bc:	e1801411 	orr	r1, r0, r1, lsl r4
    98c0:	e5950044 	ldr	r0, [r5, #68]	; 0x44
    98c4:	ebfffed3 	bl	9418 <put32>
    98c8:	ebfffecc 	bl	9400 <dev_barrier>
    98cc:	e59f4018 	ldr	r4, [pc, #24]	; 98ec <gpio_int_falling_edge+0x80>
    98d0:	e594003c 	ldr	r0, [r4, #60]	; 0x3c
    98d4:	ebfffedb 	bl	9448 <get32>
    98d8:	e3801601 	orr	r1, r0, #1048576	; 0x100000
    98dc:	e594003c 	ldr	r0, [r4, #60]	; 0x3c
    98e0:	ebfffecc 	bl	9418 <put32>
    98e4:	ebfffec5 	bl	9400 <dev_barrier>
    98e8:	e8bd8038 	pop	{r3, r4, r5, pc}
    98ec:	00009a78 	andeq	r9, r0, r8, ror sl

000098f0 <gpio_event_detected>:
    98f0:	e92d4010 	push	{r4, lr}
    98f4:	e1a04000 	mov	r4, r0
    98f8:	e350001f 	cmp	r0, #31
    98fc:	8a000019 	bhi	9968 <gpio_event_detected+0x78>
    9900:	ebfffebe 	bl	9400 <dev_barrier>
    9904:	e354001f 	cmp	r4, #31
    9908:	8a000008 	bhi	9930 <gpio_event_detected+0x40>
    990c:	e59f305c 	ldr	r3, [pc, #92]	; 9970 <gpio_event_detected+0x80>
    9910:	e5930048 	ldr	r0, [r3, #72]	; 0x48
    9914:	ebfffecb 	bl	9448 <get32>
    9918:	e3a03001 	mov	r3, #1
    991c:	e0103413 	ands	r3, r0, r3, lsl r4
    9920:	0a00000d 	beq	995c <gpio_event_detected+0x6c>
    9924:	ebfffeb5 	bl	9400 <dev_barrier>
    9928:	e3a00001 	mov	r0, #1
    992c:	e8bd8010 	pop	{r4, pc}
    9930:	e59f3038 	ldr	r3, [pc, #56]	; 9970 <gpio_event_detected+0x80>
    9934:	e593004c 	ldr	r0, [r3, #76]	; 0x4c
    9938:	ebfffec2 	bl	9448 <get32>
    993c:	e3a03001 	mov	r3, #1
    9940:	e0004413 	and	r4, r0, r3, lsl r4
    9944:	ebfffead 	bl	9400 <dev_barrier>
    9948:	e3540000 	cmp	r4, #0
    994c:	0a000002 	beq	995c <gpio_event_detected+0x6c>
    9950:	ebfffeaa 	bl	9400 <dev_barrier>
    9954:	e3a00001 	mov	r0, #1
    9958:	e8bd8010 	pop	{r4, pc}
    995c:	ebfffea7 	bl	9400 <dev_barrier>
    9960:	e3a00000 	mov	r0, #0
    9964:	e8bd8010 	pop	{r4, pc}
    9968:	e3e00000 	mvn	r0, #0
    996c:	e8bd8010 	pop	{r4, pc}
    9970:	00009a78 	andeq	r9, r0, r8, ror sl

00009974 <gpio_event_clear>:
    9974:	e92d4010 	push	{r4, lr}
    9978:	e1a04000 	mov	r4, r0
    997c:	e350001f 	cmp	r0, #31
    9980:	88bd8010 	pophi	{r4, pc}
    9984:	ebfffe9d 	bl	9400 <dev_barrier>
    9988:	e354001f 	cmp	r4, #31
    998c:	8a000005 	bhi	99a8 <gpio_event_clear+0x34>
    9990:	e59f3030 	ldr	r3, [pc, #48]	; 99c8 <gpio_event_clear+0x54>
    9994:	e5930048 	ldr	r0, [r3, #72]	; 0x48
    9998:	e3a01001 	mov	r1, #1
    999c:	e1a01411 	lsl	r1, r1, r4
    99a0:	ebfffe9c 	bl	9418 <put32>
    99a4:	ea000005 	b	99c0 <gpio_event_clear+0x4c>
    99a8:	e204401f 	and	r4, r4, #31
    99ac:	e59f3014 	ldr	r3, [pc, #20]	; 99c8 <gpio_event_clear+0x54>
    99b0:	e593004c 	ldr	r0, [r3, #76]	; 0x4c
    99b4:	e3a01001 	mov	r1, #1
    99b8:	e1a01411 	lsl	r1, r1, r4
    99bc:	ebfffe95 	bl	9418 <put32>
    99c0:	ebfffe8e 	bl	9400 <dev_barrier>
    99c4:	e8bd8010 	pop	{r4, pc}
    99c8:	00009a78 	andeq	r9, r0, r8, ror sl

000099cc <cb_new>:
    99cc:	e92d4008 	push	{r3, lr}
    99d0:	e3a00409 	mov	r0, #150994944	; 0x9000000
    99d4:	e3a01000 	mov	r1, #0
    99d8:	e3a02004 	mov	r2, #4
    99dc:	eb00000e 	bl	9a1c <memset>
    99e0:	e3a00409 	mov	r0, #150994944	; 0x9000000
    99e4:	e59f3004 	ldr	r3, [pc, #4]	; 99f0 <cb_new+0x24>
    99e8:	e5803000 	str	r3, [r0]
    99ec:	e8bd8008 	pop	{r3, pc}
    99f0:	12345678 	eorsne	r5, r4, #120, 12	; 0x7800000

000099f4 <cb_get_block>:
    99f4:	e3a03409 	mov	r3, #150994944	; 0x9000000
    99f8:	e5932000 	ldr	r2, [r3]
    99fc:	e59f3014 	ldr	r3, [pc, #20]	; 9a18 <cb_get_block+0x24>
    9a00:	e1520003 	cmp	r2, r3
    9a04:	0a000001 	beq	9a10 <cb_get_block+0x1c>
    9a08:	e3a00000 	mov	r0, #0
    9a0c:	e12fff1e 	bx	lr
    9a10:	e3a00409 	mov	r0, #150994944	; 0x9000000
    9a14:	e12fff1e 	bx	lr
    9a18:	12345678 	eorsne	r5, r4, #120, 12	; 0x7800000

00009a1c <memset>:
    9a1c:	e0802002 	add	r2, r0, r2
    9a20:	e1a03000 	mov	r3, r0
    9a24:	ea000001 	b	9a30 <memset+0x14>
    9a28:	e5c31000 	strb	r1, [r3]
    9a2c:	e2833001 	add	r3, r3, #1
    9a30:	e1530002 	cmp	r3, r2
    9a34:	3afffffb 	bcc	9a28 <memset+0xc>
    9a38:	e12fff1e 	bx	lr

Disassembly of section .data:

00009a3c <rpi_putchar>:
    9a3c:	000084dc 	ldrdeq	r8, [r0], -ip

00009a40 <putk>:
    9a40:	00008518 	andeq	r8, r0, r8, lsl r5

00009a44 <AUX_ENABLES>:
    9a44:	20215004 	eorcs	r5, r1, r4

00009a48 <AUX_MU_CNTL_REG>:
    9a48:	20215060 	eorcs	r5, r1, r0, rrx

00009a4c <AUX_MU_IER_REG>:
    9a4c:	20215044 	eorcs	r5, r1, r4, asr #32

00009a50 <AUX_MU_IIR_REG>:
    9a50:	20215048 	eorcs	r5, r1, r8, asr #32

00009a54 <AUX_MU_LCR_REG>:
    9a54:	2021504c 	eorcs	r5, r1, ip, asr #32

00009a58 <AUX_MU_BAUD_REG>:
    9a58:	20215068 	eorcs	r5, r1, r8, rrx

00009a5c <AUX_MU_LSR_REG>:
    9a5c:	20215054 	eorcs	r5, r1, r4, asr r0

00009a60 <AUX_MU_IO_REG>:
    9a60:	20215040 	eorcs	r5, r1, r0, asr #32

00009a64 <AUX_MU_STAT_REG>:
    9a64:	20215064 	eorcs	r5, r1, r4, rrx

00009a68 <AUX_MU_SCRATCH>:
    9a68:	2021505c 	eorcs	r5, r1, ip, asr r0

00009a6c <AUX_MU_MSR_REG>:
    9a6c:	20215058 	eorcs	r5, r1, r8, asr r0

00009a70 <AUX_MU_MCR_REG>:
    9a70:	20215050 	eorcs	r5, r1, r0, asr r0

00009a74 <AUX_IRQ>:
    9a74:	20215000 	eorcs	r5, r1, r0

00009a78 <GPFSEL0>:
    9a78:	20200000 	eorcs	r0, r0, r0

00009a7c <GPFSEL1>:
    9a7c:	20200004 	eorcs	r0, r0, r4

00009a80 <GPFSEL2>:
    9a80:	20200008 	eorcs	r0, r0, r8

00009a84 <GPFSEL3>:
    9a84:	2020000c 	eorcs	r0, r0, ip

00009a88 <GPFSEL4>:
    9a88:	20200010 	eorcs	r0, r0, r0, lsl r0

00009a8c <GPFSEL5>:
    9a8c:	20200014 	eorcs	r0, r0, r4, lsl r0

00009a90 <GPSET0>:
    9a90:	2020001c 	eorcs	r0, r0, ip, lsl r0

00009a94 <GPSET1>:
    9a94:	20200020 	eorcs	r0, r0, r0, lsr #32

00009a98 <GPCLR0>:
    9a98:	20200028 	eorcs	r0, r0, r8, lsr #32

00009a9c <GPCLR1>:
    9a9c:	2020002c 	eorcs	r0, r0, ip, lsr #32

00009aa0 <GPLEV0>:
    9aa0:	20200034 	eorcs	r0, r0, r4, lsr r0

00009aa4 <GPLEV1>:
    9aa4:	20200038 	eorcs	r0, r0, r8, lsr r0

00009aa8 <IRQ_PENDING_2>:
    9aa8:	2000b208 	andcs	fp, r0, r8, lsl #4

00009aac <GPREN0>:
    9aac:	2020004c 	eorcs	r0, r0, ip, asr #32

00009ab0 <GPREN1>:
    9ab0:	20200050 	eorcs	r0, r0, r0, asr r0

00009ab4 <ENABLE_IRQS_2>:
    9ab4:	2000b214 	andcs	fp, r0, r4, lsl r2

00009ab8 <GPFEN0>:
    9ab8:	20200058 	eorcs	r0, r0, r8, asr r0

00009abc <GPFEN1>:
    9abc:	2020005c 	eorcs	r0, r0, ip, asr r0

00009ac0 <GPEDS0>:
    9ac0:	20200040 	eorcs	r0, r0, r0, asr #32

00009ac4 <GPEDS1>:
    9ac4:	20200044 	eorcs	r0, r0, r4, asr #32

00009ac8 <IRQ_PENDING_1>:
    9ac8:	2000b204 	andcs	fp, r0, r4, lsl #4

00009acc <gpio_clr0>:
    9acc:	20200028 	eorcs	r0, r0, r8, lsr #32

00009ad0 <gpio_set0>:
    9ad0:	2020001c 	eorcs	r0, r0, ip, lsl r0

00009ad4 <gpio_fsel0>:
    9ad4:	20200000 	eorcs	r0, r0, r0

Disassembly of section .rodata:

00009ad8 <__FUNCTION__.4456-0x20>:
    9ad8:	00008010 	andeq	r8, r0, r0, lsl r0
    9adc:	00008038 	andeq	r8, r0, r8, lsr r0
    9ae0:	00008060 	andeq	r8, r0, r0, rrx
    9ae4:	00008088 	andeq	r8, r0, r8, lsl #1
    9ae8:	000080b0 	strheq	r8, [r0], -r0
    9aec:	000080d8 	ldrdeq	r8, [r0], -r8	; <UNPREDICTABLE>
    9af0:	00008100 	andeq	r8, r0, r0, lsl #2
    9af4:	00008128 	andeq	r8, r0, r8, lsr #2

00009af8 <__FUNCTION__.4456>:
    9af8:	6d746f6e 	ldclvs	15, cr6, [r4, #-440]!	; 0xfffffe48
    9afc:	006e6961 	rsbeq	r6, lr, r1, ror #18
    9b00:	30206e69 	eorcc	r6, r0, r9, ror #28
    9b04:	0000000a 	andeq	r0, r0, sl
    9b08:	31206e69 	teqcc	r0, r9, ror #28
    9b0c:	0000000a 	andeq	r0, r0, sl
    9b10:	32206e69 	eorcc	r6, r0, #1680	; 0x690
    9b14:	0000000a 	andeq	r0, r0, sl
    9b18:	33206e69 	teqcc	r0, #1680	; 0x690
    9b1c:	0000000a 	andeq	r0, r0, sl
    9b20:	34206e69 	strtcc	r6, [r0], #-3689	; 0xe69
    9b24:	0000000a 	andeq	r0, r0, sl
    9b28:	35206e69 	strcc	r6, [r0, #-3689]!	; 0xe69
    9b2c:	0000000a 	andeq	r0, r0, sl
    9b30:	36206e69 	strtcc	r6, [r0], -r9, ror #28
    9b34:	0000000a 	andeq	r0, r0, sl
    9b38:	37206e69 	strcc	r6, [r0, -r9, ror #28]!
    9b3c:	0000000a 	andeq	r0, r0, sl
    9b40:	72657469 	rsbvc	r7, r5, #1761607680	; 0x69000000
    9b44:	6f697461 	svcvs	0x00697461
    9b48:	6425206e 	strtvs	r2, [r5], #-110	; 0x6e
    9b4c:	0000000a 	andeq	r0, r0, sl
    9b50:	74696d65 	strbtvc	r6, [r9], #-3429	; 0xd65
    9b54:	20646574 	rsbcs	r6, r4, r4, ror r5
    9b58:	65646f63 	strbvs	r6, [r4, #-3939]!	; 0xf63
    9b5c:	000a203a 	andeq	r2, sl, sl, lsr r0
    9b60:	65646f63 	strbvs	r6, [r4, #-3939]!	; 0xf63
    9b64:	5d64255b 	cfstr64pl	mvdx2, [r4, #-364]!	; 0xfffffe94
    9b68:	2578303d 	ldrbcs	r3, [r8, #-61]!	; 0x3d
    9b6c:	00000a78 	andeq	r0, r0, r8, ror sl
    9b70:	203a7325 	eorscs	r7, sl, r5, lsr #6
    9b74:	63206425 	teqvs	r0, #620756992	; 0x25000000
    9b78:	656c6379 	strbvs	r6, [ip, #-889]!	; 0x379
    9b7c:	78282073 	stmdavc	r8!, {r0, r1, r4, r5, r6, sp}
    9b80:	20293031 	eorcs	r3, r9, r1, lsr r0
    9b84:	3e73253c 	mrccc	5, 3, r2, cr3, cr12, {1}
    9b88:	0000000a 	andeq	r0, r0, sl
    9b8c:	74736f63 	ldrbtvc	r6, [r3], #-3939	; 0xf63
    9b90:	20666f20 	rsbcs	r6, r6, r0, lsr #30
    9b94:	656e6567 	strbvs	r6, [lr, #-1383]!	; 0x567
    9b98:	2d636972 	stclcs	9, cr6, [r3, #-456]!	; 0xfffffe38
    9b9c:	20746e69 	rsbscs	r6, r4, r9, ror #28
    9ba0:	6c6c6163 	stfvse	f6, [ip], #-396	; 0xfffffe74
    9ba4:	00676e69 	rsbeq	r6, r7, r9, ror #28
    9ba8:	656e6567 	strbvs	r6, [lr, #-1383]!	; 0x567
    9bac:	5f636972 	svcpl	0x00636972
    9bb0:	6c6c6163 	stfvse	f6, [ip], #-396	; 0xfffffe74
    9bb4:	746e695f 	strbtvc	r6, [lr], #-2399	; 0x95f
    9bb8:	746e6928 	strbtvc	r6, [lr], #-2344	; 0x928
    9bbc:	296e2c76 	stmdbcs	lr!, {r1, r2, r4, r5, r6, sl, fp, sp}^
    9bc0:	00000000 	andeq	r0, r0, r0
    9bc4:	4f525245 	svcmi	0x00525245
    9bc8:	73253a52 	teqvc	r5, #335872	; 0x52000
    9bcc:	3a73253a 	bcc	1cd30bc <__bss_end__+0x1cc8a1c>
    9bd0:	203a6425 	eorscs	r6, sl, r5, lsr #8
    9bd4:	534c4146 	movtpl	r4, #49478	; 0xc146
    9bd8:	633c2845 	teqvs	ip, #4521984	; 0x450000
    9bdc:	3d20746e 	cfstrscc	mvf7, [r0, #-440]!	; 0xfffffe48
    9be0:	2a6e203d 	bcs	1b91cdc <__bss_end__+0x1b8763c>
    9be4:	293e3031 	ldmdbcs	lr!, {r0, r4, r5, ip, sp}
    9be8:	6322203a 	teqvs	r2, #58	; 0x3a
    9bec:	253d746e 	ldrcs	r7, [sp, #-1134]!	; 0x46e
    9bf0:	65202c64 	strvs	r2, [r0, #-3172]!	; 0xc64
    9bf4:	63657078 	cmnvs	r5, #120	; 0x78
    9bf8:	3d646574 	cfstr64cc	mvdx6, [r4, #-464]!	; 0xfffffe30
    9bfc:	6e5c6425 	cdpvs	4, 5, cr6, cr12, cr5, {1}
    9c00:	00000a22 	andeq	r0, r0, r2, lsr #20
    9c04:	2d746e69 	ldclcs	14, cr6, [r4, #-420]!	; 0xfffffe5c
    9c08:	706d6f63 	rsbvc	r6, sp, r3, ror #30
    9c0c:	2e656c69 	cdpcs	12, 6, cr6, cr5, cr9, {3}
    9c10:	00000063 	andeq	r0, r0, r3, rrx
    9c14:	74736f63 	ldrbtvc	r6, [r3], #-3939	; 0xf63
    9c18:	20666f20 	rsbcs	r6, r6, r0, lsr #30
    9c1c:	63657073 	cmnvs	r5, #115	; 0x73
    9c20:	696c6169 	stmdbvs	ip!, {r0, r3, r5, r6, r8, sp, lr}^
    9c24:	2064657a 	rsbcs	r6, r4, sl, ror r5
    9c28:	20746e69 	rsbscs	r6, r4, r9, ror #28
    9c2c:	6c6c6163 	stfvse	f6, [ip], #-396	; 0xfffffe74
    9c30:	00676e69 	rsbeq	r6, r7, r9, ror #28
    9c34:	63657073 	cmnvs	r5, #115	; 0x73
    9c38:	696c6169 	stmdbvs	ip!, {r0, r3, r5, r6, r8, sp, lr}^
    9c3c:	5f64657a 	svcpl	0x0064657a
    9c40:	6c6c6163 	stfvse	f6, [ip], #-396	; 0xfffffe74
    9c44:	746e695f 	strbtvc	r6, [lr], #-2399	; 0x95f
    9c48:	00002928 	andeq	r2, r0, r8, lsr #18

00009c4c <__FUNCTION__.4263>:
    9c4c:	74696d65 	strbtvc	r6, [r9], #-3429	; 0xd65
    9c50:	00000000 	andeq	r0, r0, r0

00009c54 <__FUNCTION__.4211>:
    9c54:	5f697072 	svcpl	0x00697072
    9c58:	5f746573 	svcpl	0x00746573
    9c5c:	7074756f 	rsbsvc	r7, r4, pc, ror #10
    9c60:	00007475 	andeq	r7, r0, r5, ror r4

00009c64 <__FUNCTION__.4285>:
    9c64:	705f6176 	subsvc	r6, pc, r6, ror r1	; <UNPREDICTABLE>
    9c68:	746e6972 	strbtvc	r6, [lr], #-2418	; 0x972
    9c6c:	0000006b 	andeq	r0, r0, fp, rrx
    9c70:	494e4150 	stmdbmi	lr, {r4, r6, r8, lr}^
    9c74:	73253a43 	teqvc	r5, #274432	; 0x43000
    9c78:	3a73253a 	bcc	1cd3168 <__bss_end__+0x1cc8ac8>
    9c7c:	253a6425 	ldrcs	r6, [sl, #-1061]!	; 0x425
    9c80:	00000a73 	andeq	r0, r0, r3, ror sl
    9c84:	6362696c 	cmnvs	r2, #108, 18	; 0x1b0000
    9c88:	2d61762f 	stclcs	6, cr7, [r1, #-188]!	; 0xffffff44
    9c8c:	6e697270 	mcrvs	2, 3, r7, cr9, cr0, {3}
    9c90:	632e6b74 	teqvs	lr, #116, 22	; 0x1d000
    9c94:	00000000 	andeq	r0, r0, r0
    9c98:	00000030 	andeq	r0, r0, r0, lsr r0
    9c9c:	33323130 	teqcc	r2, #48, 2
    9ca0:	37363534 			; <UNDEFINED> instruction: 0x37363534
    9ca4:	00003938 	andeq	r3, r0, r8, lsr r9
    9ca8:	33323130 	teqcc	r2, #48, 2
    9cac:	37363534 			; <UNDEFINED> instruction: 0x37363534
    9cb0:	62613938 	rsbvs	r3, r1, #56, 18	; 0xe0000
    9cb4:	66656463 	strbtvs	r6, [r5], -r3, ror #8
    9cb8:	00000000 	andeq	r0, r0, r0
    9cbc:	00003130 	andeq	r3, r0, r0, lsr r1
    9cc0:	63747570 	cmnvs	r4, #112, 10	; 0x1c000000
    9cc4:	0070665f 	rsbseq	r6, r0, pc, asr r6
    9cc8:	74646977 	strbtvc	r6, [r4], #-2423	; 0x977
    9ccc:	203c2068 	eorscs	r2, ip, r8, rrx
    9cd0:	00003233 	andeq	r3, r0, r3, lsr r2
    9cd4:	494e4150 	stmdbmi	lr, {r4, r6, r8, lr}^
    9cd8:	73253a43 	teqvc	r5, #274432	; 0x43000
    9cdc:	3a73253a 	bcc	1cd31cc <__bss_end__+0x1cc8b2c>
    9ce0:	663a6425 	ldrtvs	r6, [sl], -r5, lsr #8
    9ce4:	74616f6c 	strbtvc	r6, [r1], #-3948	; 0xf6c
    9ce8:	746f6e20 	strbtvc	r6, [pc], #-3616	; 9cf0 <__FUNCTION__.4285+0x8c>
    9cec:	616e6520 	cmnvs	lr, r0, lsr #10
    9cf0:	64656c62 	strbtvs	r6, [r5], #-3170	; 0xc62
    9cf4:	0a212121 	beq	852180 <__bss_end__+0x847ae0>
    9cf8:	00000000 	andeq	r0, r0, r0
    9cfc:	494e4150 	stmdbmi	lr, {r4, r6, r8, lr}^
    9d00:	73253a43 	teqvc	r5, #274432	; 0x43000
    9d04:	3a73253a 	bcc	1cd31f4 <__bss_end__+0x1cc8b54>
    9d08:	703a6425 	eorsvc	r6, sl, r5, lsr #8
    9d0c:	746e6972 	strbtvc	r6, [lr], #-2418	; 0x972
    9d10:	6e203a6b 	vnmulvs.f32	s6, s0, s23
    9d14:	6820746f 	stmdavs	r0!, {r0, r1, r2, r3, r5, r6, sl, ip, sp, lr}
    9d18:	6c646e61 	stclvs	14, cr6, [r4], #-388	; 0xfffffe7c
    9d1c:	20676e69 	rsbcs	r6, r7, r9, ror #28
    9d20:	63657073 	cmnvs	r5, #115	; 0x73
    9d24:	65696669 	strbvs	r6, [r9, #-1641]!	; 0x669
    9d28:	25272072 	strcs	r2, [r7, #-114]!	; 0x72
    9d2c:	0a0a2763 	beq	293ac0 <__bss_end__+0x289420>
    9d30:	00000000 	andeq	r0, r0, r0
    9d34:	454e4f44 	strbmi	r4, [lr, #-3908]	; 0xf44
    9d38:	0a212121 	beq	8521c4 <__bss_end__+0x847b24>
    9d3c:	00000000 	andeq	r0, r0, r0
    9d40:	756f6261 	strbvc	r6, [pc, #-609]!	; 9ae7 <gpio_fsel0+0x13>
    9d44:	6f742074 	svcvs	0x00742074
    9d48:	69727020 	ldmdbvs	r2!, {r5, ip, sp, lr}^
    9d4c:	6f20746e 	svcvs	0x0020746e
    9d50:	6572206e 	ldrbvs	r2, [r2, #-110]!	; 0x6e
    9d54:	616c7567 	cmnvs	ip, r7, ror #10
    9d58:	72702072 	rsbsvc	r2, r0, #114	; 0x72
    9d5c:	66746e69 	ldrbtvs	r6, [r4], -r9, ror #28
    9d60:	0000000a 	andeq	r0, r0, sl
    9d64:	63637573 	cmnvs	r3, #482344960	; 0x1cc00000
    9d68:	21737365 	cmncs	r3, r5, ror #6
    9d6c:	0000000a 	andeq	r0, r0, sl

00009d70 <__FUNCTION__.4312>:
    9d70:	755f7773 	ldrbvc	r7, [pc, #-1907]	; 9605 <gpio_set_input+0x5d>
    9d74:	5f747261 	svcpl	0x00747261
    9d78:	73746567 	cmnvc	r4, #432013312	; 0x19c00000
    9d7c:	746e755f 	strbtvc	r7, [lr], #-1375	; 0x55f
    9d80:	00006c69 	andeq	r6, r0, r9, ror #24

00009d84 <__FUNCTION__.4324>:
    9d84:	755f7773 	ldrbvc	r7, [pc, #-1907]	; 9619 <gpio_set_input+0x71>
    9d88:	5f747261 	svcpl	0x00747261
    9d8c:	73746567 	cmnvc	r4, #432013312	; 0x19c00000
    9d90:	6d69745f 	cfstrdvs	mvd7, [r9, #-380]!	; 0xfffffe84
    9d94:	74756f65 	ldrbtvc	r6, [r5], #-3941	; 0xf65
    9d98:	00000000 	andeq	r0, r0, r0

00009d9c <__FUNCTION__.4338>:
    9d9c:	755f7773 	ldrbvc	r7, [pc, #-1907]	; 9631 <gpio_set_input+0x89>
    9da0:	5f747261 	svcpl	0x00747261
    9da4:	74696e69 	strbtvc	r6, [r9], #-3689	; 0xe69
    9da8:	6c65685f 	stclvs	8, cr6, [r5], #-380	; 0xfffffe84
    9dac:	00726570 	rsbseq	r6, r2, r0, ror r5

00009db0 <__FUNCTION__.4344>:
    9db0:	755f7773 	ldrbvc	r7, [pc, #-1907]	; 9645 <gpio_set_input+0x9d>
    9db4:	5f747261 	svcpl	0x00747261
    9db8:	63746567 	cmnvs	r4, #432013312	; 0x19c00000
    9dbc:	00000000 	andeq	r0, r0, r0

00009dc0 <__FUNCTION__.4366>:
    9dc0:	755f7773 	ldrbvc	r7, [pc, #-1907]	; 9655 <gpio_set_input+0xad>
    9dc4:	5f747261 	svcpl	0x00747261
    9dc8:	6e697270 	mcrvs	2, 3, r7, cr9, cr0, {3}
    9dcc:	00006b74 	andeq	r6, r0, r4, ror fp

00009dd0 <__FUNCTION__.4374>:
    9dd0:	755f7773 	ldrbvc	r7, [pc, #-1907]	; 9665 <gpio_set_input+0xbd>
    9dd4:	5f747261 	svcpl	0x00747261
    9dd8:	73746567 	cmnvc	r4, #432013312	; 0x19c00000
    9ddc:	746e755f 	strbtvc	r7, [lr], #-1375	; 0x55f
    9de0:	625f6c69 	subsvs	r6, pc, #26880	; 0x6900
    9de4:	00006b6c 	andeq	r6, r0, ip, ror #22
    9de8:	732d796d 	teqvc	sp, #1785856	; 0x1b4000
    9dec:	732f6372 	teqvc	pc, #-939524095	; 0xc8000001
    9df0:	61752d77 	cmnvs	r5, r7, ror sp
    9df4:	632e7472 	teqvs	lr, #1912602624	; 0x72000000
    9df8:	00000000 	andeq	r0, r0, r0
    9dfc:	7479626e 	ldrbtvc	r6, [r9], #-622	; 0x26e
    9e00:	303e7365 	eorscc	r7, lr, r5, ror #6
    9e04:	00000000 	andeq	r0, r0, r0
    9e08:	7a686d28 	bvc	1a252b0 <__bss_end__+0x1a1ac10>
    9e0c:	62202d20 	eorvs	r2, r0, #32, 26	; 0x800
    9e10:	29647561 	stmdbcs	r4!, {r0, r5, r6, r8, sl, ip, sp, lr}^
    9e14:	203d3c20 	eorscs	r3, sp, r0, lsr #24
    9e18:	69726564 	ldmdbvs	r2!, {r2, r5, r6, r8, sl, sp, lr}^
    9e1c:	20646576 	rsbcs	r6, r4, r6, ror r5
    9e20:	64202626 	strtvs	r2, [r0], #-1574	; 0x626
    9e24:	76697265 	strbtvc	r7, [r9], -r5, ror #4
    9e28:	3c206465 	cfstrscc	mvf6, [r0], #-404	; 0xfffffe6c
    9e2c:	6d28203d 	stcvs	0, cr2, [r8, #-244]!	; 0xffffff0c
    9e30:	2b207a68 	blcs	8287d8 <__bss_end__+0x81e138>
    9e34:	75616220 	strbvc	r6, [r1, #-544]!	; 0x220
    9e38:	00002964 	andeq	r2, r0, r4, ror #18
    9e3c:	494e4150 	stmdbmi	lr, {r4, r6, r8, lr}^
    9e40:	73253a43 	teqvc	r5, #274432	; 0x43000
    9e44:	3a73253a 	bcc	1cd3334 <__bss_end__+0x1cc8c94>
    9e48:	693a6425 	ldmdbvs	sl!, {r0, r2, r5, sl, sp, lr}
    9e4c:	736f706d 	cmnvc	pc, #109	; 0x6d
    9e50:	6c626973 	stclvs	9, cr6, [r2], #-460	; 0xfffffe34
    9e54:	68203a65 	stmdavs	r0!, {r0, r2, r5, r6, r9, fp, ip, sp}
    9e58:	20657661 	rsbcs	r7, r5, r1, ror #12
    9e5c:	69206e61 	stmdbvs	r0!, {r0, r5, r6, r9, sl, fp, sp, lr}
    9e60:	6e69666e 	cdpvs	6, 6, cr6, cr9, cr14, {3}
    9e64:	20657469 	rsbcs	r7, r5, r9, ror #8
    9e68:	656d6974 	strbvs	r6, [sp, #-2420]!	; 0x974
    9e6c:	2174756f 	cmncs	r4, pc, ror #10
    9e70:	00000a0a 	andeq	r0, r0, sl, lsl #20
    9e74:	3c207a73 	stccc	10, cr7, [r0], #-460	; 0xfffffe34
    9e78:	7a697320 	bvc	1a66b00 <__bss_end__+0x1a5c460>
    9e7c:	20666f65 	rsbcs	r6, r6, r5, ror #30
    9e80:	2d667562 	cfstr64cs	mvdx7, [r6, #-392]!	; 0xfffffe78
    9e84:	00000031 	andeq	r0, r0, r1, lsr r0

Disassembly of section .bss:

00009e88 <__bss_start__>:
    9e88:	00000000 	andeq	r0, r0, r0

00009e8c <m>:
    9e8c:	00000000 	andeq	r0, r0, r0

00009e90 <code>:
	...

0000a290 <buf.4211>:
	...

0000a690 <console_uart>:
	...

Disassembly of section .ARM.attributes:

00000000 <.ARM.attributes>:
   0:	00002a41 	andeq	r2, r0, r1, asr #20
   4:	61656100 	cmnvs	r5, r0, lsl #2
   8:	01006962 	tsteq	r0, r2, ror #18
   c:	00000020 	andeq	r0, r0, r0, lsr #32
  10:	4b5a3605 	blmi	168d82c <__bss_end__+0x168318c>
  14:	08070600 	stmdaeq	r7, {r9, sl}
  18:	12010901 	andne	r0, r1, #16384	; 0x4000
  1c:	15011404 	strne	r1, [r1, #-1028]	; 0x404
  20:	18031701 	stmdane	r3, {r0, r8, r9, sl, ip}
  24:	22011a01 	andcs	r1, r1, #4096	; 0x1000
  28:	Address 0x0000000000000028 is out of bounds.


Disassembly of section .comment:

00000000 <.comment>:
   0:	3a434347 	bcc	10d0d24 <__bss_end__+0x10c6684>
   4:	4e472820 	cdpmi	8, 4, cr2, cr7, cr0, {1}
   8:	34202955 	strtcc	r2, [r0], #-2389	; 0x955
   c:	332e382e 	teqcc	lr, #3014656	; 0x2e0000
	...

Disassembly of section .debug_info:

00000000 <.debug_info>:
       0:	000009cf 	andeq	r0, r0, pc, asr #19
       4:	00000004 	andeq	r0, r0, r4
       8:	01040000 	mrseq	r0, (UNDEF: 4)
       c:	0000023b 	andeq	r0, r0, fp, lsr r2
      10:	00001a01 	andeq	r1, r0, r1, lsl #20
      14:	0002db00 	andeq	sp, r2, r0, lsl #22
      18:	00801000 	addeq	r1, r0, r0
      1c:	00047400 	andeq	r7, r4, r0, lsl #8
      20:	00000000 	andeq	r0, r0, r0
      24:	05040200 	streq	r0, [r4, #-512]	; 0x200
      28:	00746e69 	rsbseq	r6, r4, r9, ror #28
      2c:	32070403 	andcc	r0, r7, #50331648	; 0x3000000
      30:	03000000 	movweq	r0, #0
      34:	01ed0601 	mvneq	r0, r1, lsl #12
      38:	02030000 	andeq	r0, r3, #0
      3c:	0001f905 	andeq	pc, r1, r5, lsl #18
      40:	022c0400 	eoreq	r0, ip, #0, 8
      44:	28030000 	stmdacs	r3, {}	; <UNPREDICTABLE>
      48:	0000004c 	andeq	r0, r0, ip, asr #32
      4c:	56050403 	strpl	r0, [r5], -r3, lsl #8
      50:	03000000 	movweq	r0, #0
      54:	00510508 	subseq	r0, r1, r8, lsl #10
      58:	54040000 	strpl	r0, [r4], #-0
      5c:	03000003 	movweq	r0, #3
      60:	0000652e 	andeq	r6, r0, lr, lsr #10
      64:	08010300 	stmdaeq	r1, {r8, r9}
      68:	000001eb 	andeq	r0, r0, fp, ror #3
      6c:	ed070203 	sfm	f0, 4, [r7, #-12]
      70:	04000000 	streq	r0, [r0], #-0
      74:	0000022b 	andeq	r0, r0, fp, lsr #4
      78:	007e3403 	rsbseq	r3, lr, r3, lsl #8
      7c:	04030000 	streq	r0, [r3], #-0
      80:	00002d07 	andeq	r2, r0, r7, lsl #26
      84:	07080300 	streq	r0, [r8, -r0, lsl #6]
      88:	00000028 	andeq	r0, r0, r8, lsr #32
      8c:	5c070403 	cfstrspl	mvf0, [r7], {3}
      90:	05000001 	streq	r0, [r0, #-1]
      94:	00009904 	andeq	r9, r0, r4, lsl #18
      98:	01030600 	tsteq	r3, r0, lsl #12
      9c:	0001f408 	andeq	pc, r1, r8, lsl #8
      a0:	a7040500 	strge	r0, [r4, -r0, lsl #10]
      a4:	07000000 	streq	r0, [r0, -r0]
      a8:	0000009a 	muleq	r0, sl, r0
      ac:	00009a08 	andeq	r9, r0, r8, lsl #20
      b0:	0000bc00 	andeq	fp, r0, r0, lsl #24
      b4:	008c0900 	addeq	r0, ip, r0, lsl #18
      b8:	00070000 	andeq	r0, r7, r0
      bc:	0702010a 	streq	r0, [r2, -sl, lsl #2]
      c0:	00000137 	andeq	r0, r0, r7, lsr r1
      c4:	0001750b 	andeq	r7, r1, fp, lsl #10
      c8:	7c0b0000 	stcvc	0, cr0, [fp], {-0}
      cc:	01000001 	tsteq	r0, r1
      d0:	0001830b 	andeq	r8, r1, fp, lsl #6
      d4:	8a0b0200 	bhi	2c08dc <__bss_end__+0x2b623c>
      d8:	03000001 	movweq	r0, #1
      dc:	0001910b 	andeq	r9, r1, fp, lsl #2
      e0:	980b0400 	stmdals	fp, {sl}
      e4:	05000001 	streq	r0, [r0, #-1]
      e8:	00019f0b 	andeq	r9, r1, fp, lsl #30
      ec:	a60b0600 	strge	r0, [fp], -r0, lsl #12
      f0:	07000001 	streq	r0, [r0, -r1]
      f4:	0001ad0b 	andeq	sl, r1, fp, lsl #26
      f8:	b40b0800 	strlt	r0, [fp], #-2048	; 0x800
      fc:	09000001 	stmdbeq	r0, {r0}
     100:	00009c0b 	andeq	r9, r0, fp, lsl #24
     104:	a40b0a00 	strge	r0, [fp], #-2560	; 0xa00
     108:	0b000000 	bleq	110 <_start-0x7ef0>
     10c:	0000ac0b 	andeq	sl, r0, fp, lsl #24
     110:	b40b0c00 	strlt	r0, [fp], #-3072	; 0xc00
     114:	0d000000 	stceq	0, cr0, [r0, #-0]
     118:	0000bc0b 	andeq	fp, r0, fp, lsl #24
     11c:	bf0b0e00 	svclt	0x000b0e00
     120:	0f000003 	svceq	0x00000003
     124:	0002b90b 	andeq	fp, r2, fp, lsl #18
     128:	5c0b0d00 	stcpl	13, cr0, [fp], {-0}
     12c:	0e000003 	cdpeq	0, 0, cr0, cr0, cr3, {0}
     130:	0001170b 	andeq	r1, r1, fp, lsl #14
     134:	0a000f00 	beq	3d3c <_start-0x42c4>
     138:	9a200201 	bls	800944 <__bss_end__+0x7f62a4>
     13c:	0b000001 	bleq	148 <_start-0x7eb8>
     140:	0000021d 	andeq	r0, r0, sp, lsl r2
     144:	034d0b00 	movteq	r0, #56064	; 0xdb00
     148:	0b010000 	bleq	40150 <__bss_end__+0x35ab0>
     14c:	00000141 	andeq	r0, r0, r1, asr #2
     150:	01290b02 	teqeq	r9, r2, lsl #22
     154:	0b030000 	bleq	c015c <__bss_end__+0xb5abc>
     158:	00000234 	andeq	r0, r0, r4, lsr r2
     15c:	004a0b04 	subeq	r0, sl, r4, lsl #22
     160:	0b050000 	bleq	140168 <__bss_end__+0x135ac8>
     164:	0000037c 	andeq	r0, r0, ip, ror r3
     168:	03630b06 	cmneq	r3, #6144	; 0x1800
     16c:	0b070000 	bleq	1c0174 <__bss_end__+0x1b5ad4>
     170:	00000013 	andeq	r0, r0, r3, lsl r0
     174:	01dd0b08 	bicseq	r0, sp, r8, lsl #22
     178:	0b090000 	bleq	240180 <__bss_end__+0x235ae0>
     17c:	00000375 	andeq	r0, r0, r5, ror r3
     180:	01e40b0a 	mvneq	r0, sl, lsl #22
     184:	0b0b0000 	bleq	2c018c <__bss_end__+0x2b5aec>
     188:	000003af 	andeq	r0, r0, pc, lsr #7
     18c:	01bb0b0c 			; <UNDEFINED> instruction: 0x01bb0b0c
     190:	0b0d0000 	bleq	340198 <__bss_end__+0x335af8>
     194:	0000005f 	andeq	r0, r0, pc, asr r0
     198:	010a000e 	tsteq	sl, lr
     19c:	02033502 	andeq	r3, r3, #8388608	; 0x800000
     1a0:	a70b0000 	strge	r0, [fp, -r0]
     1a4:	00000002 	andeq	r0, r0, r2
     1a8:	0002030b 	andeq	r0, r2, fp, lsl #6
     1ac:	360b0100 	strcc	r0, [fp], -r0, lsl #2
     1b0:	02000001 	andeq	r0, r0, #1
     1b4:	0000000b 	andeq	r0, r0, fp
     1b8:	650b0300 	strvs	r0, [fp, #-768]	; 0x300
     1bc:	04000001 	streq	r0, [r0], #-1
     1c0:	0001d20b 	andeq	sp, r1, fp, lsl #4
     1c4:	d10b0500 	tstle	fp, r0, lsl #10
     1c8:	06000000 	streq	r0, [r0], -r0
     1cc:	00036a0b 	andeq	r6, r3, fp, lsl #20
     1d0:	910b0700 	tstls	fp, r0, lsl #14
     1d4:	08000000 	stmdaeq	r0, {}	; <UNPREDICTABLE>
     1d8:	0002ca0b 	andeq	ip, r2, fp, lsl #20
     1dc:	0c0b0900 	stceq	9, cr0, [fp], {-0}
     1e0:	0a000001 	beq	1ec <_start-0x7e14>
     1e4:	0001c70b 	andeq	ip, r1, fp, lsl #14
     1e8:	c70b0b00 	strgt	r0, [fp, -r0, lsl #22]
     1ec:	0c000003 	stceq	0, cr0, [r0], {3}
     1f0:	00003f0b 	andeq	r3, r0, fp, lsl #30
     1f4:	660b0d00 	strvs	r0, [fp], -r0, lsl #26
     1f8:	0e000000 	cdpeq	0, 0, cr0, cr0, cr0, {0}
     1fc:	00011e0b 	andeq	r1, r1, fp, lsl #28
     200:	04000f00 	streq	r0, [r0], #-3840	; 0xf00
     204:	00000224 	andeq	r0, r0, r4, lsr #4
     208:	00930701 	addseq	r0, r3, r1, lsl #14
     20c:	b60c0000 	strlt	r0, [ip], -r0
     210:	02000003 	andeq	r0, r0, #3
     214:	00730174 	rsbseq	r0, r3, r4, ror r1
     218:	38030000 	stmdacc	r3, {}	; <UNPREDICTABLE>
     21c:	0d000002 	stceq	0, cr0, [r0, #-8]
     220:	00676572 	rsbeq	r6, r7, r2, ror r5
     224:	5a017402 	bpl	5d234 <__bss_end__+0x52b94>
     228:	0e000000 	cdpeq	0, 0, cr0, cr0, cr0, {0}
     22c:	00000076 	andeq	r0, r0, r6, ror r0
     230:	73017602 	movwvc	r7, #5634	; 0x1602
     234:	00000000 	andeq	r0, r0, r0
     238:	00007b0c 	andeq	r7, r0, ip, lsl #22
     23c:	012a0200 	teqeq	sl, r0, lsl #4
     240:	00000073 	andeq	r0, r0, r3, ror r0
     244:	00027803 	andeq	r7, r2, r3, lsl #16
     248:	64720d00 	ldrbtvs	r0, [r2], #-3328	; 0xd00
     24c:	012a0200 	teqeq	sl, r0, lsl #4
     250:	0000005a 	andeq	r0, r0, sl, asr r0
     254:	006e720d 	rsbeq	r7, lr, sp, lsl #4
     258:	5a012a02 	bpl	4aa68 <__bss_end__+0x403c8>
     25c:	0f000000 	svceq	0x00000000
     260:	000002c0 	andeq	r0, r0, r0, asr #5
     264:	73012a02 	movwvc	r2, #6658	; 0x1a02
     268:	0e000000 	cdpeq	0, 0, cr0, cr0, cr0, {0}
     26c:	00000076 	andeq	r0, r0, r6, ror r0
     270:	73012c02 	movwvc	r2, #7170	; 0x1c02
     274:	00000000 	andeq	r0, r0, r0
     278:	00014810 	andeq	r4, r1, r0, lsl r8
     27c:	73d70200 	bicsvc	r0, r7, #0, 4
     280:	03000000 	movweq	r0, #0
     284:	000002dc 	ldrdeq	r0, [r0], -ip
     288:	02004c11 	andeq	r4, r0, #4352	; 0x1100
     28c:	000073d7 	ldrdeq	r7, [r0], -r7	; <UNPREDICTABLE>
     290:	72731100 	rsbsvc	r1, r3, #0, 2
     294:	d7020063 	strle	r0, [r2, -r3, rrx]
     298:	00000041 	andeq	r0, r0, r1, asr #32
     29c:	0001c212 	andeq	ip, r1, r2, lsl r2
     2a0:	41d70200 	bicsmi	r0, r7, r0, lsl #4
     2a4:	13000000 	movwne	r0, #0
     2a8:	00000076 	andeq	r0, r0, r6, ror r0
     2ac:	0073d802 	rsbseq	sp, r3, r2, lsl #16
     2b0:	70140000 	andsvc	r0, r4, r0
     2b4:	f6020063 			; <UNDEFINED> instruction: 0xf6020063
     2b8:	00000025 	andeq	r0, r0, r5, lsr #32
     2bc:	0002b213 	andeq	fp, r2, r3, lsl r2
     2c0:	25f70200 	ldrbcs	r0, [r7, #512]!	; 0x200
     2c4:	13000000 	movwne	r0, #0
     2c8:	00000130 	andeq	r0, r0, r0, lsr r1
     2cc:	002cf802 	eoreq	pc, ip, r2, lsl #16
     2d0:	75140000 	ldrvc	r0, [r4, #-0]
     2d4:	73fb0200 	mvnsvc	r0, #0, 4
     2d8:	00000000 	andeq	r0, r0, r0
     2dc:	0003950c 	andeq	r9, r3, ip, lsl #10
     2e0:	01840200 	orreq	r0, r4, r0, lsl #4
     2e4:	00000073 	andeq	r0, r0, r3, ror r0
     2e8:	00030603 	andeq	r0, r3, r3, lsl #12
     2ec:	65720d00 	ldrbvs	r0, [r2, #-3328]!	; 0xd00
     2f0:	84020067 	strhi	r0, [r2], #-103	; 0x67
     2f4:	00005a01 	andeq	r5, r0, r1, lsl #20
     2f8:	00760e00 	rsbseq	r0, r6, r0, lsl #28
     2fc:	86020000 	strhi	r0, [r2], -r0
     300:	00007301 	andeq	r7, r0, r1, lsl #6
     304:	83150000 	tsthi	r5, #0
     308:	01000003 	tsteq	r0, r3
     30c:	0080100c 	addeq	r1, r0, ip
     310:	00002800 	andeq	r2, r0, r0, lsl #16
     314:	2f9c0100 	svccs	0x009c0100
     318:	16000003 	strne	r0, [r0], -r3
     31c:	0000801c 	andeq	r8, r0, ip, lsl r0
     320:	000009ae 	andeq	r0, r0, lr, lsr #19
     324:	05500117 	ldrbeq	r0, [r0, #-279]	; 0x117
     328:	009b0003 	addseq	r0, fp, r3
     32c:	15000000 	strne	r0, [r0, #-0]
     330:	00000389 	andeq	r0, r0, r9, lsl #7
     334:	80380d01 	eorshi	r0, r8, r1, lsl #26
     338:	00280000 	eoreq	r0, r8, r0
     33c:	9c010000 	stcls	0, cr0, [r1], {-0}
     340:	00000358 	andeq	r0, r0, r8, asr r3
     344:	00804416 	addeq	r4, r0, r6, lsl r4
     348:	0009ae00 	andeq	sl, r9, r0, lsl #28
     34c:	50011700 	andpl	r1, r1, r0, lsl #14
     350:	9b080305 	blls	200f6c <__bss_end__+0x1f68cc>
     354:	00000000 	andeq	r0, r0, r0
     358:	00038f15 	andeq	r8, r3, r5, lsl pc
     35c:	600e0100 	andvs	r0, lr, r0, lsl #2
     360:	28000080 	stmdacs	r0, {r7}
     364:	01000000 	mrseq	r0, (UNDEF: 0)
     368:	0003819c 	muleq	r3, ip, r1
     36c:	806c1600 	rsbhi	r1, ip, r0, lsl #12
     370:	09ae0000 	stmibeq	lr!, {}	; <UNPREDICTABLE>
     374:	01170000 	tsteq	r7, r0
     378:	10030550 	andne	r0, r3, r0, asr r5
     37c:	0000009b 	muleq	r0, fp, r0
     380:	02d51500 	sbcseq	r1, r5, #0, 10
     384:	0f010000 	svceq	0x00010000
     388:	00008088 	andeq	r8, r0, r8, lsl #1
     38c:	00000028 	andeq	r0, r0, r8, lsr #32
     390:	03aa9c01 			; <UNDEFINED> instruction: 0x03aa9c01
     394:	94160000 	ldrls	r0, [r6], #-0
     398:	ae000080 	cdpge	0, 0, cr0, cr0, cr0, {4}
     39c:	17000009 	strne	r0, [r0, -r9]
     3a0:	03055001 	movweq	r5, #20481	; 0x5001
     3a4:	00009b18 	andeq	r9, r0, r8, lsl fp
     3a8:	9d150000 	ldcls	0, cr0, [r5, #-0]
     3ac:	01000003 	tsteq	r0, r3
     3b0:	0080b010 	addeq	fp, r0, r0, lsl r0
     3b4:	00002800 	andeq	r2, r0, r0, lsl #16
     3b8:	d39c0100 	orrsle	r0, ip, #0, 2
     3bc:	16000003 	strne	r0, [r0], -r3
     3c0:	000080bc 	strheq	r8, [r0], -ip
     3c4:	000009ae 	andeq	r0, r0, lr, lsr #19
     3c8:	05500117 	ldrbeq	r0, [r0, #-279]	; 0x117
     3cc:	009b2003 	addseq	r2, fp, r3
     3d0:	15000000 	strne	r0, [r0, #-0]
     3d4:	000003a3 	andeq	r0, r0, r3, lsr #7
     3d8:	80d81101 	sbcshi	r1, r8, r1, lsl #2
     3dc:	00280000 	eoreq	r0, r8, r0
     3e0:	9c010000 	stcls	0, cr0, [r1], {-0}
     3e4:	000003fc 	strdeq	r0, [r0], -ip
     3e8:	0080e416 	addeq	lr, r0, r6, lsl r4
     3ec:	0009ae00 	andeq	sl, r9, r0, lsl #28
     3f0:	50011700 	andpl	r1, r1, r0, lsl #14
     3f4:	9b280305 	blls	a01010 <__bss_end__+0x9f6970>
     3f8:	00000000 	andeq	r0, r0, r0
     3fc:	0003a915 	andeq	sl, r3, r5, lsl r9
     400:	00120100 	andseq	r0, r2, r0, lsl #2
     404:	28000081 	stmdacs	r0, {r0, r7}
     408:	01000000 	mrseq	r0, (UNDEF: 0)
     40c:	0004259c 	muleq	r4, ip, r5
     410:	810c1600 	tsthi	ip, r0, lsl #12
     414:	09ae0000 	stmibeq	lr!, {}	; <UNPREDICTABLE>
     418:	01170000 	tsteq	r7, r0
     41c:	30030550 	andcc	r0, r3, r0, asr r5
     420:	0000009b 	muleq	r0, fp, r0
     424:	03471500 	movteq	r1, #29952	; 0x7500
     428:	13010000 	movwne	r0, #4096	; 0x1000
     42c:	00008128 	andeq	r8, r0, r8, lsr #2
     430:	00000028 	andeq	r0, r0, r8, lsr #32
     434:	044e9c01 	strbeq	r9, [lr], #-3073	; 0xc01
     438:	34160000 	ldrcc	r0, [r6], #-0
     43c:	ae000081 	cdpge	0, 0, cr0, cr0, cr1, {4}
     440:	17000009 	strne	r0, [r0, -r9]
     444:	03055001 	movweq	r5, #20481	; 0x5001
     448:	00009b38 	andeq	r9, r0, r8, lsr fp
     44c:	00180000 	andseq	r0, r8, r0
     450:	01000001 	tsteq	r0, r1
     454:	00815018 	addeq	r5, r1, r8, lsl r0
     458:	00013400 	andeq	r3, r1, r0, lsl #8
     45c:	5b9c0100 	blpl	fe700864 <__bss_end__+0xfe6f61c4>
     460:	19000005 	stmdbne	r0, {r0, r2}
     464:	00000170 	andeq	r0, r0, r0, ror r1
     468:	055b1801 	ldrbeq	r1, [fp, #-2049]	; 0x801
     46c:	00000000 	andeq	r0, r0, r0
     470:	6e1a0000 	cdpvs	0, 1, cr0, cr10, cr0, {0}
     474:	2c180100 	ldfcss	f0, [r8], {-0}
     478:	2c000000 	stccs	0, cr0, [r0], {-0}
     47c:	1b000000 	blne	484 <_start-0x7b7c>
     480:	0000816c 	andeq	r8, r0, ip, ror #2
     484:	000000b4 	strheq	r0, [r0], -r4
     488:	00000516 	andeq	r0, r0, r6, lsl r5
     48c:	0100691c 	tsteq	r0, ip, lsl r9
     490:	0000251a 	andeq	r2, r0, sl, lsl r5
     494:	00005800 	andeq	r5, r0, r0, lsl #16
     498:	02781d00 	rsbseq	r1, r8, #0, 26
     49c:	81d00000 	bicshi	r0, r0, r0
     4a0:	00140000 	andseq	r0, r4, r0
     4a4:	1f010000 	svcne	0x00010000
     4a8:	000004ff 	strdeq	r0, [r0], -pc	; <UNPREDICTABLE>
     4ac:	00029c1e 	andeq	r9, r2, lr, lsl ip
     4b0:	00007700 	andeq	r7, r0, r0, lsl #14
     4b4:	02911e00 	addseq	r1, r1, #0, 28
     4b8:	008a0000 	addeq	r0, sl, r0
     4bc:	881e0000 	ldmdahi	lr, {}	; <UNPREDICTABLE>
     4c0:	20000002 	andcs	r0, r0, r2
     4c4:	1f000001 	svcne	0x00000001
     4c8:	000081d0 	ldrdeq	r8, [r0], -r0
     4cc:	00000014 	andeq	r0, r0, r4, lsl r0
     4d0:	0002a720 	andeq	sl, r2, r0, lsr #14
     4d4:	00013400 	andeq	r3, r1, r0, lsl #8
     4d8:	02b22000 	adcseq	r2, r2, #0
     4dc:	01480000 	mrseq	r0, (UNDEF: 72)
     4e0:	bc200000 	stclt	0, cr0, [r0], #-0
     4e4:	dd000002 	stcle	0, cr0, [r0, #-8]
     4e8:	20000001 	andcs	r0, r0, r1
     4ec:	000002c7 	andeq	r0, r0, r7, asr #5
     4f0:	00000284 	andeq	r0, r0, r4, lsl #5
     4f4:	0002d220 	andeq	sp, r2, r0, lsr #4
     4f8:	00035b00 	andeq	r5, r3, r0, lsl #22
     4fc:	16000000 	strne	r0, [r0], -r0
     500:	00008198 	muleq	r0, r8, r1
     504:	000009ae 	andeq	r0, r0, lr, lsr #19
     508:	02510117 	subseq	r0, r1, #-1073741819	; 0xc0000005
     50c:	01170076 	tsteq	r7, r6, ror r0
     510:	007a0250 	rsbseq	r0, sl, r0, asr r2
     514:	281b0000 	ldmdacs	fp, {}	; <UNPREDICTABLE>
     518:	30000082 	andcc	r0, r0, r2, lsl #1
     51c:	47000000 	strmi	r0, [r0, -r0]
     520:	1c000005 	stcne	0, cr0, [r0], {5}
     524:	26010069 	strcs	r0, [r1], -r9, rrx
     528:	00000025 	andeq	r0, r0, r5, lsr #32
     52c:	00000372 	andeq	r0, r0, r2, ror r3
     530:	00824c16 	addeq	r4, r2, r6, lsl ip
     534:	0009ae00 	andeq	sl, r9, r0, lsl #28
     538:	51011700 	tstpl	r1, r0, lsl #14
     53c:	17007502 	strne	r7, [r0, -r2, lsl #10]
     540:	77025001 	strvc	r5, [r2, -r1]
     544:	16000000 	strne	r0, [r0], -r0
     548:	00008228 	andeq	r8, r0, r8, lsr #4
     54c:	000009ae 	andeq	r0, r0, lr, lsr #19
     550:	05500117 	ldrbeq	r0, [r0, #-279]	; 0x117
     554:	009b5003 	addseq	r5, fp, r3
     558:	05000000 	streq	r0, [r0, #-0]
     55c:	00020304 	andeq	r0, r2, r4, lsl #6
     560:	00dc2100 	sbcseq	r2, ip, r0, lsl #2
     564:	2c010000 	stccs	0, cr0, [r1], {-0}
     568:	00008284 	andeq	r8, r0, r4, lsl #5
     56c:	0000002c 	andeq	r0, r0, ip, lsr #32
     570:	05aa9c01 	streq	r9, [sl, #3073]!	; 0xc01
     574:	70190000 	andsvc	r0, r9, r0
     578:	01000001 	tsteq	r0, r1
     57c:	00055b2c 	andeq	r5, r5, ip, lsr #22
     580:	00039100 	andeq	r9, r3, r0, lsl #2
     584:	006e1a00 	rsbeq	r1, lr, r0, lsl #20
     588:	002c2c01 	eoreq	r2, ip, r1, lsl #24
     58c:	03af0000 			; <UNDEFINED> instruction: 0x03af0000
     590:	901f0000 	andsls	r0, pc, r0
     594:	1c000082 	stcne	0, cr0, [r0], {130}	; 0x82
     598:	1c000000 	stcne	0, cr0, [r0], {-0}
     59c:	2d010069 	stccs	0, cr0, [r1, #-420]	; 0xfffffe5c
     5a0:	0000002c 	andeq	r0, r0, ip, lsr #32
     5a4:	000003cd 	andeq	r0, r0, sp, asr #7
     5a8:	92180000 	andsls	r0, r8, #0
     5ac:	01000002 	tsteq	r0, r2
     5b0:	0082b032 	addeq	fp, r2, r2, lsr r0
     5b4:	00001400 	andeq	r1, r0, r0, lsl #8
     5b8:	d99c0100 	ldmible	ip, {r8}
     5bc:	1c000005 	stcne	0, cr0, [r0], {5}
     5c0:	01007066 	tsteq	r0, r6, rrx
     5c4:	0000933d 	andeq	r9, r0, sp, lsr r3
     5c8:	0003ec00 	andeq	lr, r3, r0, lsl #24
     5cc:	82bc2200 	adcshi	r2, ip, #0, 4
     5d0:	03050000 	movweq	r0, #20480	; 0x5000
     5d4:	00009e90 	muleq	r0, r0, lr
     5d8:	000b1800 	andeq	r1, fp, r0, lsl #16
     5dc:	41010000 	mrsmi	r0, (UNDEF: 1)
     5e0:	000082c4 	andeq	r8, r0, r4, asr #5
     5e4:	000001c0 	andeq	r0, r0, r0, asr #3
     5e8:	09539c01 	ldmdbeq	r3, {r0, sl, fp, ip, pc}^
     5ec:	70230000 	eorvc	r0, r3, r0
     5f0:	01000001 	tsteq	r0, r1
     5f4:	00095342 	andeq	r5, r9, r2, asr #6
     5f8:	50910200 	addspl	r0, r1, r0, lsl #4
     5fc:	01006e24 	tsteq	r0, r4, lsr #28
     600:	00002c4f 	andeq	r2, r0, pc, asr #24
     604:	c4250800 	strtgt	r0, [r5], #-2048	; 0x800
     608:	63000000 	movwvs	r0, #0
     60c:	05000009 	streq	r0, [r0, #-9]
     610:	009af803 	addseq	pc, sl, r3, lsl #16
     614:	82e41b00 	rschi	r1, r4, #0, 22
     618:	00080000 	andeq	r0, r8, r0
     61c:	062e0000 	strteq	r0, [lr], -r0
     620:	69240000 	stmdbvs	r4!, {}	; <UNPREDICTABLE>
     624:	4d01006e 	stcmi	0, cr0, [r1, #-440]	; 0xfffffe48
     628:	0000002c 	andeq	r0, r0, ip, lsr #32
     62c:	041b0001 	ldreq	r0, [fp], #-1
     630:	94000083 	strls	r0, [r0], #-131	; 0x83
     634:	b5000000 	strlt	r0, [r0, #-0]
     638:	14000007 	strne	r0, [r0], #-7
     63c:	0100745f 	tsteq	r0, pc, asr r4
     640:	00002c5a 	andeq	r2, r0, sl, asr ip
     644:	83041b00 	movwhi	r1, #19200	; 0x4b00
     648:	00800000 	addeq	r0, r0, r0
     64c:	078f0000 	streq	r0, [pc, r0]
     650:	5f140000 	svcpl	0x00140000
     654:	5a010073 	bpl	40828 <__bss_end__+0x36188>
     658:	0000002c 	andeq	r0, r0, ip, lsr #32
     65c:	00655f14 	rsbeq	r5, r5, r4, lsl pc
     660:	002c5a01 	eoreq	r5, ip, r1, lsl #20
     664:	041b0000 	ldreq	r0, [fp], #-0
     668:	04000083 	streq	r0, [r0], #-131	; 0x83
     66c:	7f000000 	svcvc	0x00000000
     670:	13000006 	movwne	r0, #6
     674:	0000008c 	andeq	r0, r0, ip, lsl #1
     678:	002c5a01 	eoreq	r5, ip, r1, lsl #20
     67c:	1b000000 	blne	684 <_start-0x797c>
     680:	00008380 	andeq	r8, r0, r0, lsl #7
     684:	00000004 	andeq	r0, r0, r4
     688:	00000698 	muleq	r0, r8, r6
     68c:	00008c13 	andeq	r8, r0, r3, lsl ip
     690:	2c5a0100 	ldfcse	f0, [sl], {-0}
     694:	00000000 	andeq	r0, r0, r0
     698:	00831426 	addeq	r1, r3, r6, lsr #8
     69c:	00056100 	andeq	r6, r5, r0, lsl #2
     6a0:	0006b100 	andeq	fp, r6, r0, lsl #2
     6a4:	51011700 	tstpl	r1, r0, lsl #14
     6a8:	01173801 	tsteq	r7, r1, lsl #16
     6ac:	48910250 	ldmmi	r1, {r4, r6, r9}
     6b0:	83202600 	teqhi	r0, #0, 12
     6b4:	05610000 	strbeq	r0, [r1, #-0]!
     6b8:	06ca0000 	strbeq	r0, [sl], r0
     6bc:	01170000 	tsteq	r7, r0
     6c0:	17380151 			; <UNDEFINED> instruction: 0x17380151
     6c4:	91025001 	tstls	r2, r1
     6c8:	2c260048 	stccs	0, cr0, [r6], #-288	; 0xfffffee0
     6cc:	61000083 	smlabbvs	r0, r3, r0, r0
     6d0:	e3000005 	movw	r0, #5
     6d4:	17000006 	strne	r0, [r0, -r6]
     6d8:	38015101 	stmdacc	r1, {r0, r8, ip, lr}
     6dc:	02500117 	subseq	r0, r0, #-1073741819	; 0xc0000005
     6e0:	26004891 			; <UNDEFINED> instruction: 0x26004891
     6e4:	00008338 	andeq	r8, r0, r8, lsr r3
     6e8:	00000561 	andeq	r0, r0, r1, ror #10
     6ec:	000006fc 	strdeq	r0, [r0], -ip
     6f0:	01510117 	cmpeq	r1, r7, lsl r1
     6f4:	50011738 	andpl	r1, r1, r8, lsr r7
     6f8:	00489102 	subeq	r9, r8, r2, lsl #2
     6fc:	00834426 	addeq	r4, r3, r6, lsr #8
     700:	00056100 	andeq	r6, r5, r0, lsl #2
     704:	00071500 	andeq	r1, r7, r0, lsl #10
     708:	51011700 	tstpl	r1, r0, lsl #14
     70c:	01173801 	tsteq	r7, r1, lsl #16
     710:	48910250 	ldmmi	r1, {r4, r6, r9}
     714:	83502600 	cmphi	r0, #0, 12
     718:	05610000 	strbeq	r0, [r1, #-0]!
     71c:	072e0000 	streq	r0, [lr, -r0]!
     720:	01170000 	tsteq	r7, r0
     724:	17380151 			; <UNDEFINED> instruction: 0x17380151
     728:	91025001 	tstls	r2, r1
     72c:	5c260048 	stcpl	0, cr0, [r6], #-288	; 0xfffffee0
     730:	61000083 	smlabbvs	r0, r3, r0, r0
     734:	47000005 	strmi	r0, [r0, -r5]
     738:	17000007 	strne	r0, [r0, -r7]
     73c:	38015101 	stmdacc	r1, {r0, r8, ip, lr}
     740:	02500117 	subseq	r0, r0, #-1073741819	; 0xc0000005
     744:	26004891 			; <UNDEFINED> instruction: 0x26004891
     748:	00008368 	andeq	r8, r0, r8, ror #6
     74c:	00000561 	andeq	r0, r0, r1, ror #10
     750:	00000760 	andeq	r0, r0, r0, ror #14
     754:	01510117 	cmpeq	r1, r7, lsl r1
     758:	50011738 	andpl	r1, r1, r8, lsr r7
     75c:	00489102 	subeq	r9, r8, r2, lsl #2
     760:	00837426 	addeq	r7, r3, r6, lsr #8
     764:	00056100 	andeq	r6, r5, r0, lsl #2
     768:	00077900 	andeq	r7, r7, r0, lsl #18
     76c:	51011700 	tstpl	r1, r0, lsl #14
     770:	01173801 	tsteq	r7, r1, lsl #16
     774:	48910250 	ldmmi	r1, {r4, r6, r9}
     778:	83801600 	orrhi	r1, r0, #0, 12
     77c:	05610000 	strbeq	r0, [r1, #-0]!
     780:	01170000 	tsteq	r7, r0
     784:	17380151 			; <UNDEFINED> instruction: 0x17380151
     788:	91025001 	tstls	r2, r1
     78c:	16000048 	strne	r0, [r0], -r8, asr #32
     790:	00008398 	muleq	r0, r8, r3
     794:	000009ae 	andeq	r0, r0, lr, lsr #19
     798:	05530117 	ldrbeq	r0, [r3, #-279]	; 0x117
     79c:	009ba803 	addseq	sl, fp, r3, lsl #16
     7a0:	51011700 	tstpl	r1, r0, lsl #14
     7a4:	9b8c0305 	blls	fe3013c0 <__bss_end__+0xfe2f6d20>
     7a8:	01170000 	tsteq	r7, r0
     7ac:	70030550 	andvc	r0, r3, r0, asr r5
     7b0:	0000009b 	muleq	r0, fp, r0
     7b4:	83dc1b00 	bicshi	r1, ip, #0, 22
     7b8:	00440000 	subeq	r0, r4, r0
     7bc:	08a00000 	stmiaeq	r0!, {}	; <UNPREDICTABLE>
     7c0:	5f140000 	svcpl	0x00140000
     7c4:	5f010074 	svcpl	0x00010074
     7c8:	0000002c 	andeq	r0, r0, ip, lsr #32
     7cc:	0083dc1b 	addeq	sp, r3, fp, lsl ip
     7d0:	00003000 	andeq	r3, r0, r0
     7d4:	00087a00 	andeq	r7, r8, r0, lsl #20
     7d8:	735f1400 	cmpvc	pc, #0, 8
     7dc:	2c5f0100 	ldfcse	f0, [pc], {-0}
     7e0:	14000000 	strne	r0, [r0], #-0
     7e4:	0100655f 	tsteq	r0, pc, asr r5
     7e8:	00002c5f 	andeq	r2, r0, pc, asr ip
     7ec:	83dc1b00 	bicshi	r1, ip, #0, 22
     7f0:	00040000 	andeq	r0, r4, r0
     7f4:	08060000 	stmdaeq	r6, {}	; <UNPREDICTABLE>
     7f8:	8c130000 	ldchi	0, cr0, [r3], {-0}
     7fc:	01000000 	mrseq	r0, (UNDEF: 0)
     800:	00002c5f 	andeq	r2, r0, pc, asr ip
     804:	081b0000 	ldmdaeq	fp, {}	; <UNPREDICTABLE>
     808:	04000084 	streq	r0, [r0], #-132	; 0x84
     80c:	1f000000 	svcne	0x00000000
     810:	13000008 	movwne	r0, #8
     814:	0000008c 	andeq	r0, r0, ip, lsl #1
     818:	002c5f01 	eoreq	r5, ip, r1, lsl #30
     81c:	27000000 	strcs	r0, [r0, -r0]
     820:	000083e4 	andeq	r8, r0, r4, ror #7
     824:	000005aa 	andeq	r0, r0, sl, lsr #11
     828:	0083e827 	addeq	lr, r3, r7, lsr #16
     82c:	0005aa00 	andeq	sl, r5, r0, lsl #20
     830:	83ec2700 	mvnhi	r2, #0, 14
     834:	05aa0000 	streq	r0, [sl, #0]!
     838:	f0270000 			; <UNDEFINED> instruction: 0xf0270000
     83c:	aa000083 	bge	a50 <_start-0x75b0>
     840:	27000005 	strcs	r0, [r0, -r5]
     844:	000083f4 	strdeq	r8, [r0], -r4
     848:	000005aa 	andeq	r0, r0, sl, lsr #11
     84c:	0083f827 	addeq	pc, r3, r7, lsr #16
     850:	0005aa00 	andeq	sl, r5, r0, lsl #20
     854:	83fc2700 	mvnshi	r2, #0, 14
     858:	05aa0000 	streq	r0, [sl, #0]!
     85c:	00270000 	eoreq	r0, r7, r0
     860:	aa000084 	bge	a78 <_start-0x7588>
     864:	27000005 	strcs	r0, [r0, -r5]
     868:	00008404 	andeq	r8, r0, r4, lsl #8
     86c:	000005aa 	andeq	r0, r0, sl, lsr #11
     870:	00840827 	addeq	r0, r4, r7, lsr #16
     874:	0005aa00 	andeq	sl, r5, r0, lsl #20
     878:	20160000 	andscs	r0, r6, r0
     87c:	ae000084 	cdpge	0, 0, cr0, cr0, cr4, {4}
     880:	17000009 	strne	r0, [r0, -r9]
     884:	03055301 	movweq	r5, #21249	; 0x5301
     888:	00009c34 	andeq	r9, r0, r4, lsr ip
     88c:	05510117 	ldrbeq	r0, [r1, #-279]	; 0x117
     890:	009c1403 	addseq	r1, ip, r3, lsl #8
     894:	50011700 	andpl	r1, r1, r0, lsl #14
     898:	9b700305 	blls	1c014b4 <__bss_end__+0x1bf6e14>
     89c:	00000000 	andeq	r0, r0, r0
     8a0:	0082f826 	addeq	pc, r2, r6, lsr #16
     8a4:	00044e00 	andeq	r4, r4, r0, lsl #28
     8a8:	0008b900 	andeq	fp, r8, r0, lsl #18
     8ac:	51011700 	tstpl	r1, r0, lsl #14
     8b0:	01173801 	tsteq	r7, r1, lsl #16
     8b4:	48910250 	ldmmi	r1, {r4, r6, r9}
     8b8:	83a82700 			; <UNDEFINED> instruction: 0x83a82700
     8bc:	09c40000 	stmibeq	r4, {}^	; <UNPREDICTABLE>
     8c0:	cc260000 	stcgt	0, cr0, [r6], #-0
     8c4:	ae000083 	cdpge	0, 0, cr0, cr0, cr3, {4}
     8c8:	f8000009 			; <UNDEFINED> instruction: 0xf8000009
     8cc:	17000008 	strne	r0, [r0, -r8]
     8d0:	08025301 	stmdaeq	r2, {r0, r8, r9, ip, lr}
     8d4:	5201175b 	andpl	r1, r1, #23855104	; 0x16c0000
     8d8:	9af80305 	bls	ffe014f4 <__bss_end__+0xffdf6e54>
     8dc:	01170000 	tsteq	r7, r0
     8e0:	04030551 	streq	r0, [r3], #-1361	; 0x551
     8e4:	1700009c 			; <UNDEFINED> instruction: 0x1700009c
     8e8:	03055001 	movweq	r5, #20481	; 0x5001
     8ec:	00009bc4 	andeq	r9, r0, r4, asr #23
     8f0:	047d0217 	ldrbteq	r0, [sp], #-535	; 0x217
     8f4:	00500802 	subseq	r0, r0, r2, lsl #16
     8f8:	0083d027 	addeq	sp, r3, r7, lsr #32
     8fc:	0009cb00 	andeq	ip, r9, r0, lsl #22
     900:	84302700 	ldrthi	r2, [r0], #-1792	; 0x700
     904:	09c40000 	stmibeq	r4, {}^	; <UNPREDICTABLE>
     908:	54260000 	strtpl	r0, [r6], #-0
     90c:	ae000084 	cdpge	0, 0, cr0, cr0, cr4, {4}
     910:	40000009 	andmi	r0, r0, r9
     914:	17000009 	strne	r0, [r0, -r9]
     918:	08025301 	stmdaeq	r2, {r0, r8, r9, ip, lr}
     91c:	52011760 	andpl	r1, r1, #96, 14	; 0x1800000
     920:	9af80305 	bls	ffe0153c <__bss_end__+0xffdf6e9c>
     924:	01170000 	tsteq	r7, r0
     928:	04030551 	streq	r0, [r3], #-1361	; 0x551
     92c:	1700009c 			; <UNDEFINED> instruction: 0x1700009c
     930:	03055001 	movweq	r5, #20481	; 0x5001
     934:	00009bc4 	andeq	r9, r0, r4, asr #23
     938:	047d0217 	ldrbteq	r0, [sp], #-535	; 0x217
     93c:	00500802 	subseq	r0, r0, r2, lsl #16
     940:	00845827 	addeq	r5, r4, r7, lsr #16
     944:	0009cb00 	andeq	ip, r9, r0, lsl #22
     948:	845c2700 	ldrbhi	r2, [ip], #-1792	; 0x700
     94c:	09cb0000 	stmibeq	fp, {}^	; <UNPREDICTABLE>
     950:	08000000 	stmdaeq	r0, {}	; <UNPREDICTABLE>
     954:	00000203 	andeq	r0, r0, r3, lsl #4
     958:	00000963 	andeq	r0, r0, r3, ror #18
     95c:	00008c09 	andeq	r8, r0, r9, lsl #24
     960:	07000700 	streq	r0, [r0, -r0, lsl #14]
     964:	000000ac 	andeq	r0, r0, ip, lsr #1
     968:	746e6328 	strbtvc	r6, [lr], #-808	; 0x328
     96c:	79090100 	stmdbvc	r9, {r8}
     970:	05000009 	streq	r0, [r0, #-9]
     974:	009e8803 	addseq	r8, lr, r3, lsl #16
     978:	002c2900 	eoreq	r2, ip, r0, lsl #18
     97c:	73080000 	movwvc	r0, #32768	; 0x8000
     980:	8e000000 	cdphi	0, 0, cr0, cr0, cr0, {0}
     984:	09000009 	stmdbeq	r0, {r0, r3}
     988:	0000008c 	andeq	r0, r0, ip, lsl #1
     98c:	712300ff 	strdvc	r0, [r3, -pc]!
     990:	01000000 	mrseq	r0, (UNDEF: 0)
     994:	00097e15 	andeq	r7, r9, r5, lsl lr
     998:	90030500 	andls	r0, r3, r0, lsl #10
     99c:	2800009e 	stmdacs	r0, {r1, r2, r3, r4, r7}
     9a0:	1601006d 	strne	r0, [r1], -sp, rrx
     9a4:	0000002c 	andeq	r0, r0, ip, lsr #32
     9a8:	9e8c0305 	cdpls	3, 8, cr0, cr12, cr5, {0}
     9ac:	f22a0000 	vhadd.s32	d0, d10, d0
     9b0:	04000003 	streq	r0, [r0], #-3
     9b4:	00002529 	andeq	r2, r0, r9, lsr #10
     9b8:	0009c400 	andeq	ip, r9, r0, lsl #8
     9bc:	00a12b00 	adceq	r2, r1, r0, lsl #22
     9c0:	002c0000 	eoreq	r0, ip, r0
     9c4:	00020e2d 	andeq	r0, r2, sp, lsr #28
     9c8:	2d1e0400 	cfldrscs	mvf0, [lr, #-0]
     9cc:	0000014f 	andeq	r0, r0, pc, asr #2
     9d0:	91006604 	tstls	r0, r4, lsl #12
     9d4:	04000001 	streq	r0, [r0], #-1
     9d8:	00025500 	andeq	r5, r2, r0, lsl #10
     9dc:	3b010400 	blcc	419e4 <__bss_end__+0x37344>
     9e0:	01000002 	tsteq	r0, r2
     9e4:	000003e1 	andeq	r0, r0, r1, ror #7
     9e8:	00000403 	andeq	r0, r0, r3, lsl #8
     9ec:	00008484 	andeq	r8, r0, r4, lsl #9
     9f0:	00000058 	andeq	r0, r0, r8, asr r0
     9f4:	000001de 	ldrdeq	r0, [r0], -lr
     9f8:	0003d202 	andeq	sp, r3, r2, lsl #4
     9fc:	30280200 	eorcc	r0, r8, r0, lsl #4
     a00:	03000000 	movweq	r0, #0
     a04:	000003f9 	strdeq	r0, [r0], -r9
     a08:	47000304 	strmi	r0, [r0, -r4, lsl #6]
     a0c:	04000000 	streq	r0, [r0], #-0
     a10:	0000044c 	andeq	r0, r0, ip, asr #8
     a14:	00000047 	andeq	r0, r0, r7, asr #32
     a18:	04050000 	streq	r0, [r5], #-0
     a1c:	0003fb02 	andeq	pc, r3, r2, lsl #22
     a20:	25620200 	strbcs	r0, [r2, #-512]!	; 0x200
     a24:	06000000 	streq	r0, [r0], -r0
     a28:	6e690504 	cdpvs	5, 6, cr0, cr9, cr4, {0}
     a2c:	04070074 	streq	r0, [r7], #-116	; 0x74
     a30:	00003207 	andeq	r3, r0, r7, lsl #4
     a34:	06010700 	streq	r0, [r1], -r0, lsl #14
     a38:	000001ed 	andeq	r0, r0, sp, ror #3
     a3c:	f9050207 			; <UNDEFINED> instruction: 0xf9050207
     a40:	07000001 	streq	r0, [r0, -r1]
     a44:	00560504 	subseq	r0, r6, r4, lsl #10
     a48:	08070000 	stmdaeq	r7, {}	; <UNPREDICTABLE>
     a4c:	00005105 	andeq	r5, r0, r5, lsl #2
     a50:	08010700 	stmdaeq	r1, {r8, r9, sl}
     a54:	000001eb 	andeq	r0, r0, fp, ror #3
     a58:	ed070207 	sfm	f0, 4, [r7, #-28]	; 0xffffffe4
     a5c:	07000000 	streq	r0, [r0, -r0]
     a60:	002d0704 	eoreq	r0, sp, r4, lsl #14
     a64:	08070000 	stmdaeq	r7, {}	; <UNPREDICTABLE>
     a68:	00002807 	andeq	r2, r0, r7, lsl #16
     a6c:	07040700 	streq	r0, [r4, -r0, lsl #14]
     a70:	0000015c 	andeq	r0, r0, ip, asr r1
     a74:	00a70408 	adceq	r0, r7, r8, lsl #8
     a78:	01070000 	mrseq	r0, (UNDEF: 7)
     a7c:	0001f408 	andeq	pc, r1, r8, lsl #8
     a80:	b4040800 	strlt	r0, [r4], #-2048	; 0x800
     a84:	09000000 	stmdbeq	r0, {}	; <UNPREDICTABLE>
     a88:	000000a7 	andeq	r0, r0, r7, lsr #1
     a8c:	0003f20a 	andeq	pc, r3, sl, lsl #4
     a90:	54060100 	strpl	r0, [r6], #-256	; 0x100
     a94:	84000000 	strhi	r0, [r0], #-0
     a98:	58000084 	stmdapl	r0, {r2, r7}
     a9c:	01000000 	mrseq	r0, (UNDEF: 0)
     aa0:	0001439c 	muleq	r1, ip, r3
     aa4:	6d660b00 	vstmdbvs	r6!, {d16-d15}
     aa8:	06010074 			; <UNDEFINED> instruction: 0x06010074
     aac:	000000ae 	andeq	r0, r0, lr, lsr #1
     ab0:	0c709102 	ldfeqp	f1, [r0], #-8
     ab4:	6675620d 	ldrbtvs	r6, [r5], -sp, lsl #4
     ab8:	43080100 	movwmi	r0, #33024	; 0x8100
     abc:	05000001 	streq	r0, [r0, #-1]
     ac0:	00a29003 	adceq	r9, r2, r3
     ac4:	04470e00 	strbeq	r0, [r7], #-3584	; 0xe00
     ac8:	09010000 	stmdbeq	r1, {}	; <UNPREDICTABLE>
     acc:	00000049 	andeq	r0, r0, r9, asr #32
     ad0:	0f5c9102 	svceq	0x005c9102
     ad4:	01007a73 	tsteq	r0, r3, ror sl
     ad8:	0000540c 	andeq	r5, r0, ip, lsl #8
     adc:	00040f00 	andeq	r0, r4, r0, lsl #30
     ae0:	84ac1000 	strthi	r1, [ip], #0
     ae4:	01740000 	cmneq	r4, r0
     ae8:	01360000 	teqeq	r6, r0
     aec:	01110000 	tsteq	r1, r0
     af0:	4c910253 	lfmmi	f0, 4, [r1], {83}	; 0x53
     af4:	03520111 	cmpeq	r2, #1073741828	; 0x40000004
     af8:	11064891 			; <UNDEFINED> instruction: 0x11064891
     afc:	0a035101 	beq	d4f08 <__bss_end__+0xca868>
     b00:	01110400 	tsteq	r1, r0, lsl #8
     b04:	00740250 	rsbseq	r0, r4, r0, asr r2
     b08:	84c01200 	strbhi	r1, [r0], #512	; 0x200
     b0c:	01110000 	tsteq	r1, r0
     b10:	00740250 	rsbseq	r0, r4, r0, asr r2
     b14:	a7130000 	ldrge	r0, [r3, -r0]
     b18:	54000000 	strpl	r0, [r0], #-0
     b1c:	14000001 	strne	r0, [r0], #-1
     b20:	0000009a 	muleq	r0, sl, r0
     b24:	150003ff 	strne	r0, [r0, #-1023]	; 0x3ff
     b28:	00000054 	andeq	r0, r0, r4, asr r0
     b2c:	00000163 	andeq	r0, r0, r3, ror #2
     b30:	0000ae16 	andeq	sl, r0, r6, lsl lr
     b34:	9f170000 	svcls	0x00170000
     b38:	04000004 	streq	r0, [r0], #-4
     b3c:	00016e22 	andeq	r6, r1, r2, lsr #28
     b40:	54040800 	strpl	r0, [r4], #-2048	; 0x800
     b44:	18000001 	stmdane	r0, {r0}
     b48:	000003ef 	andeq	r0, r0, pc, ror #7
     b4c:	00540205 	subseq	r0, r4, r5, lsl #4
     b50:	a1160000 	tstge	r6, r0
     b54:	16000000 	strne	r0, [r0], -r0
     b58:	00000054 	andeq	r0, r0, r4, asr r0
     b5c:	0000ae16 	andeq	sl, r0, r6, lsl lr
     b60:	00491600 	subeq	r1, r9, r0, lsl #12
     b64:	00000000 	andeq	r0, r0, r0
     b68:	00000113 	andeq	r0, r0, r3, lsl r1
     b6c:	03860004 	orreq	r0, r6, #4
     b70:	01040000 	mrseq	r0, (UNDEF: 4)
     b74:	0000023b 	andeq	r0, r0, fp, lsr r2
     b78:	00046e01 	andeq	r6, r4, r1, lsl #28
     b7c:	00040300 	andeq	r0, r4, r0, lsl #6
     b80:	0084dc00 	addeq	sp, r4, r0, lsl #24
     b84:	00003c00 	andeq	r3, r0, r0, lsl #24
     b88:	0002e400 	andeq	lr, r2, r0, lsl #8
     b8c:	05040200 	streq	r0, [r4, #-512]	; 0x200
     b90:	00746e69 	rsbseq	r6, r4, r9, ror #28
     b94:	32070403 	andcc	r0, r7, #50331648	; 0x3000000
     b98:	03000000 	movweq	r0, #0
     b9c:	01ed0601 	mvneq	r0, r1, lsl #12
     ba0:	02030000 	andeq	r0, r3, #0
     ba4:	0001f905 	andeq	pc, r1, r5, lsl #18
     ba8:	05040300 	streq	r0, [r4, #-768]	; 0x300
     bac:	00000056 	andeq	r0, r0, r6, asr r0
     bb0:	51050803 	tstpl	r5, r3, lsl #16
     bb4:	03000000 	movweq	r0, #0
     bb8:	01eb0801 	mvneq	r0, r1, lsl #16
     bbc:	02030000 	andeq	r0, r3, #0
     bc0:	0000ed07 	andeq	lr, r0, r7, lsl #26
     bc4:	07040300 	streq	r0, [r4, -r0, lsl #6]
     bc8:	0000002d 	andeq	r0, r0, sp, lsr #32
     bcc:	28070803 	stmdacs	r7, {r0, r1, fp}
     bd0:	03000000 	movweq	r0, #0
     bd4:	015c0704 	cmpeq	ip, r4, lsl #14
     bd8:	01030000 	mrseq	r0, (UNDEF: 3)
     bdc:	0001f408 	andeq	pc, r1, r8, lsl #8
     be0:	04510400 	ldrbeq	r0, [r1], #-1024	; 0x400
     be4:	03010000 	movweq	r0, #4096	; 0x1000
     be8:	00000025 	andeq	r0, r0, r5, lsr #32
     bec:	000084dc 	ldrdeq	r8, [r0], -ip
     bf0:	00000014 	andeq	r0, r0, r4, lsl r0
     bf4:	00b09c01 	adcseq	r9, r0, r1, lsl #24
     bf8:	63050000 	movwvs	r0, #20480	; 0x5000
     bfc:	25030100 	strcs	r0, [r3, #-256]	; 0x100
     c00:	38000000 	stmdacc	r0, {}	; <UNPREDICTABLE>
     c04:	06000004 	streq	r0, [r0], -r4
     c08:	000084e8 	andeq	r8, r0, r8, ror #9
     c0c:	00000109 	andeq	r0, r0, r9, lsl #2
     c10:	02500107 	subseq	r0, r0, #-1073741823	; 0xc0000001
     c14:	00000074 	andeq	r0, r0, r4, ror r0
     c18:	00020e08 	andeq	r0, r2, r8, lsl #28
     c1c:	f0080100 			; <UNDEFINED> instruction: 0xf0080100
     c20:	18000084 	stmdane	r0, {r2, r7}
     c24:	01000000 	mrseq	r0, (UNDEF: 0)
     c28:	047d099c 	ldrbteq	r0, [sp], #-2460	; 0x99c
     c2c:	0b010000 	bleq	40c34 <__bss_end__+0x36594>
     c30:	00008508 	andeq	r8, r0, r8, lsl #10
     c34:	00000010 	andeq	r0, r0, r0, lsl r0
     c38:	00e39c01 	rsceq	r9, r3, r1, lsl #24
     c3c:	660a0000 	strvs	r0, [sl], -r0
     c40:	0b010070 	bleq	40e08 <__bss_end__+0x36768>
     c44:	000000f2 	strdeq	r0, [r0], -r2
     c48:	0b005001 	bleq	14c54 <__bss_end__+0xa5b4>
     c4c:	00000025 	andeq	r0, r0, r5, lsr #32
     c50:	000000f2 	strdeq	r0, [r0], -r2
     c54:	0000250c 	andeq	r2, r0, ip, lsl #10
     c58:	040d0000 	streq	r0, [sp], #-0
     c5c:	000000e3 	andeq	r0, r0, r3, ror #1
     c60:	0004620e 	andeq	r6, r4, lr, lsl #4
     c64:	f2060100 	vrhadd.s8	d0, d6, d0
     c68:	05000000 	streq	r0, [r0, #-0]
     c6c:	009a3c03 	addseq	r3, sl, r3, lsl #24
     c70:	05d20f00 	ldrbeq	r0, [r2, #3840]	; 0xf00
     c74:	3c020000 	stccc	0, cr0, [r2], {-0}
     c78:	00002c0c 	andeq	r2, r0, ip, lsl #24
     c7c:	ee000000 	cdp	0, 0, cr0, cr0, cr0, {0}
     c80:	04000000 	streq	r0, [r0], #-0
     c84:	00046e00 	andeq	r6, r4, r0, lsl #28
     c88:	3b010400 	blcc	41c90 <__bss_end__+0x375f0>
     c8c:	01000002 	tsteq	r0, r2
     c90:	0000048a 	andeq	r0, r0, sl, lsl #9
     c94:	00000403 	andeq	r0, r0, r3, lsl #8
     c98:	00008518 	andeq	r8, r0, r8, lsl r5
     c9c:	00000034 	andeq	r0, r0, r4, lsr r0
     ca0:	00000372 	andeq	r0, r0, r2, ror r3
     ca4:	69050402 	stmdbvs	r5, {r1, sl}
     ca8:	0300746e 	movweq	r7, #1134	; 0x46e
     cac:	00320704 	eorseq	r0, r2, r4, lsl #14
     cb0:	01030000 	mrseq	r0, (UNDEF: 3)
     cb4:	0001ed06 	andeq	lr, r1, r6, lsl #26
     cb8:	05020300 	streq	r0, [r2, #-768]	; 0x300
     cbc:	000001f9 	strdeq	r0, [r0], -r9
     cc0:	56050403 	strpl	r0, [r5], -r3, lsl #8
     cc4:	03000000 	movweq	r0, #0
     cc8:	00510508 	subseq	r0, r1, r8, lsl #10
     ccc:	01030000 	mrseq	r0, (UNDEF: 3)
     cd0:	0001eb08 	andeq	lr, r1, r8, lsl #22
     cd4:	07020300 	streq	r0, [r2, -r0, lsl #6]
     cd8:	000000ed 	andeq	r0, r0, sp, ror #1
     cdc:	2d070403 	cfstrscs	mvf0, [r7, #-12]
     ce0:	03000000 	movweq	r0, #0
     ce4:	00280708 	eoreq	r0, r8, r8, lsl #14
     ce8:	04030000 	streq	r0, [r3], #-0
     cec:	00015c07 	andeq	r5, r1, r7, lsl #24
     cf0:	08010300 	stmdaeq	r1, {r8, r9}
     cf4:	000001f4 	strdeq	r0, [r0], -r4
     cf8:	007f0404 	rsbseq	r0, pc, r4, lsl #8
     cfc:	72050000 	andvc	r0, r5, #0
     d00:	06000000 	streq	r0, [r0], -r0
     d04:	00000496 	muleq	r0, r6, r4
     d08:	00250401 	eoreq	r0, r5, r1, lsl #8
     d0c:	85180000 	ldrhi	r0, [r8, #-0]
     d10:	00340000 	eorseq	r0, r4, r0
     d14:	9c010000 	stcls	0, cr0, [r1], {-0}
     d18:	000000ab 	andeq	r0, r0, fp, lsr #1
     d1c:	01007007 	tsteq	r0, r7
     d20:	00007904 	andeq	r7, r0, r4, lsl #18
     d24:	00045600 	andeq	r5, r4, r0, lsl #12
     d28:	25080000 	strcs	r0, [r8, #-0]
     d2c:	ba000000 	blt	d34 <_start-0x72cc>
     d30:	09000000 	stmdbeq	r0, {}	; <UNPREDICTABLE>
     d34:	00000025 	andeq	r0, r0, r5, lsr #32
     d38:	04620a00 	strbteq	r0, [r2], #-2560	; 0xa00
     d3c:	1d020000 	stcne	0, cr0, [r2, #-0]
     d40:	000000c5 	andeq	r0, r0, r5, asr #1
     d44:	00ab0404 	adceq	r0, fp, r4, lsl #8
     d48:	25080000 	strcs	r0, [r8, #-0]
     d4c:	da000000 	ble	d54 <_start-0x72ac>
     d50:	09000000 	stmdbeq	r0, {}	; <UNPREDICTABLE>
     d54:	00000079 	andeq	r0, r0, r9, ror r0
     d58:	049f0b00 	ldreq	r0, [pc], #2816	; d60 <_start-0x72a0>
     d5c:	0c010000 	stceq	0, cr0, [r1], {-0}
     d60:	000000eb 	andeq	r0, r0, fp, ror #1
     d64:	9a400305 	bls	1001980 <__bss_end__+0xff72e0>
     d68:	04040000 	streq	r0, [r4], #-0
     d6c:	000000cb 	andeq	r0, r0, fp, asr #1
     d70:	0006a100 	andeq	sl, r6, r0, lsl #2
     d74:	07000400 	streq	r0, [r0, -r0, lsl #8]
     d78:	04000005 	streq	r0, [r0], #-5
     d7c:	00023b01 	andeq	r3, r2, r1, lsl #22
     d80:	04d00100 	ldrbeq	r0, [r0], #256	; 0x100
     d84:	04030000 	streq	r0, [r3], #-0
     d88:	854c0000 	strbhi	r0, [ip, #-0]
     d8c:	05240000 	streq	r0, [r4, #-0]!
     d90:	040c0000 	streq	r0, [ip], #-0
     d94:	04020000 	streq	r0, [r2], #-0
     d98:	746e6905 	strbtvc	r6, [lr], #-2309	; 0x905
     d9c:	07040300 	streq	r0, [r4, -r0, lsl #6]
     da0:	00000032 	andeq	r0, r0, r2, lsr r0
     da4:	ed060103 	stfs	f0, [r6, #-12]
     da8:	03000001 	movweq	r0, #1
     dac:	01f90502 	mvnseq	r0, r2, lsl #10
     db0:	04030000 	streq	r0, [r3], #-0
     db4:	00005605 	andeq	r5, r0, r5, lsl #12
     db8:	05080300 	streq	r0, [r8, #-768]	; 0x300
     dbc:	00000051 	andeq	r0, r0, r1, asr r0
     dc0:	eb080103 	bl	2011d4 <__bss_end__+0x1f6b34>
     dc4:	03000001 	movweq	r0, #1
     dc8:	00ed0702 	rsceq	r0, sp, r2, lsl #14
     dcc:	04030000 	streq	r0, [r3], #-0
     dd0:	00002d07 	andeq	r2, r0, r7, lsl #26
     dd4:	07080300 	streq	r0, [r8, -r0, lsl #6]
     dd8:	00000028 	andeq	r0, r0, r8, lsr #32
     ddc:	5c070403 	cfstrspl	mvf0, [r7], {3}
     de0:	04000001 	streq	r0, [r0], #-1
     de4:	7a040504 	bvc	1021fc <__bss_end__+0xf7b5c>
     de8:	03000000 	movweq	r0, #0
     dec:	01f40801 	mvnseq	r0, r1, lsl #16
     df0:	04050000 	streq	r0, [r5], #-0
     df4:	00000087 	andeq	r0, r0, r7, lsl #1
     df8:	00007a06 	andeq	r7, r0, r6, lsl #20
     dfc:	03d20700 	bicseq	r0, r2, #0, 14
     e00:	28020000 	stmdacs	r2, {}	; <UNPREDICTABLE>
     e04:	00000097 	muleq	r0, r7, r0
     e08:	0003f908 	andeq	pc, r3, r8, lsl #18
     e0c:	00040400 	andeq	r0, r4, r0, lsl #8
     e10:	000000ae 	andeq	r0, r0, lr, lsr #1
     e14:	00044c09 	andeq	r4, r4, r9, lsl #24
     e18:	00007200 	andeq	r7, r0, r0, lsl #4
     e1c:	07000000 	streq	r0, [r0, -r0]
     e20:	000003fb 	strdeq	r0, [r0], -fp
     e24:	008c6202 	addeq	r6, ip, r2, lsl #4
     e28:	b20a0000 	andlt	r0, sl, #0
     e2c:	01000004 	tsteq	r0, r4
     e30:	00002527 	andeq	r2, r0, r7, lsr #10
     e34:	00854c00 	addeq	r4, r5, r0, lsl #24
     e38:	00001400 	andeq	r1, r0, r0, lsl #8
     e3c:	e09c0100 	adds	r0, ip, r0, lsl #2
     e40:	0b000000 	bleq	e48 <_start-0x71b8>
     e44:	27010063 	strcs	r0, [r1, -r3, rrx]
     e48:	00000025 	andeq	r0, r0, r5, lsr #32
     e4c:	00000474 	andeq	r0, r0, r4, ror r4
     e50:	61700c00 	cmnvs	r0, r0, lsl #24
     e54:	2e010064 	cdpcs	0, 0, cr0, cr1, cr4, {3}
     e58:	00000074 	andeq	r0, r0, r4, ror r0
     e5c:	00008560 	andeq	r8, r0, r0, ror #10
     e60:	0000002c 	andeq	r0, r0, ip, lsr #32
     e64:	01309c01 	teqeq	r0, r1, lsl #24
     e68:	700b0000 	andvc	r0, fp, r0
     e6c:	742e0100 	strtvc	r0, [lr], #-256	; 0x100
     e70:	a2000000 	andge	r0, r0, #0
     e74:	0d000004 	stceq	0, cr0, [r0, #-16]
     e78:	000004c2 	andeq	r0, r0, r2, asr #9
     e7c:	00742e01 	rsbseq	r2, r4, r1, lsl #28
     e80:	04cd0000 	strbeq	r0, [sp], #0
     e84:	f00e0000 			; <UNDEFINED> instruction: 0xf00e0000
     e88:	01000004 	tsteq	r0, r4
     e8c:	0000252e 	andeq	r2, r0, lr, lsr #10
     e90:	0f520100 	svceq	0x00520100
     e94:	006e656c 	rsbeq	r6, lr, ip, ror #10
     e98:	00252f01 	eoreq	r2, r5, r1, lsl #30
     e9c:	51010000 	mrspl	r0, (UNDEF: 1)
     ea0:	04aa0a00 	strteq	r0, [sl], #2560	; 0xa00
     ea4:	37010000 	strcc	r0, [r1, -r0]
     ea8:	00000074 	andeq	r0, r0, r4, ror r0
     eac:	0000858c 	andeq	r8, r0, ip, lsl #11
     eb0:	00000040 	andeq	r0, r0, r0, asr #32
     eb4:	019c9c01 	orrseq	r9, ip, r1, lsl #24
     eb8:	640b0000 	strvs	r0, [fp], #-0
     ebc:	01007473 	tsteq	r0, r3, ror r4
     ec0:	00007437 	andeq	r7, r0, r7, lsr r4
     ec4:	0004ee00 	andeq	lr, r4, r0, lsl #28
     ec8:	006e0b00 	rsbeq	r0, lr, r0, lsl #22
     ecc:	00253701 	eoreq	r3, r5, r1, lsl #14
     ed0:	05260000 	streq	r0, [r6, #-0]!
     ed4:	700b0000 	andvc	r0, fp, r0
     ed8:	74370100 	ldrtvc	r0, [r7], #-256	; 0x100
     edc:	47000000 	strmi	r0, [r0, -r0]
     ee0:	0d000005 	stceq	0, cr0, [r0, #-20]	; 0xffffffec
     ee4:	000005be 			; <UNDEFINED> instruction: 0x000005be
     ee8:	00743701 	rsbseq	r3, r4, r1, lsl #14
     eec:	057d0000 	ldrbeq	r0, [sp, #-0]!
     ef0:	6c100000 	ldcvs	0, cr0, [r0], {-0}
     ef4:	01006e65 	tsteq	r0, r5, ror #28
     ef8:	00002539 	andeq	r2, r0, r9, lsr r5
     efc:	00059b00 	andeq	r9, r5, r0, lsl #22
     f00:	00730f00 	rsbseq	r0, r3, r0, lsl #30
     f04:	00743d01 	rsbseq	r3, r4, r1, lsl #26
     f08:	50010000 	andpl	r0, r1, r0
     f0c:	04fe0a00 	ldrbteq	r0, [lr], #2560	; 0xa00
     f10:	47010000 	strmi	r0, [r1, -r0]
     f14:	00000074 	andeq	r0, r0, r4, ror r0
     f18:	000085cc 	andeq	r8, r0, ip, asr #11
     f1c:	000001a8 	andeq	r0, r0, r8, lsr #3
     f20:	02df9c01 	sbcseq	r9, pc, #256	; 0x100
     f24:	c20d0000 	andgt	r0, sp, #0
     f28:	01000004 	tsteq	r0, r4
     f2c:	00002c47 	andeq	r2, r0, r7, asr #24
     f30:	0005c200 	andeq	ip, r5, r0, lsl #4
     f34:	73640b00 	cmnvc	r4, #0, 22
     f38:	47010074 	smlsdxmi	r1, r4, r0, r0
     f3c:	00000074 	andeq	r0, r0, r4, ror r0
     f40:	000005f0 	strdeq	r0, [r0], -r0	; <UNPREDICTABLE>
     f44:	01006e0b 	tsteq	r0, fp, lsl #28
     f48:	00002547 	andeq	r2, r0, r7, asr #10
     f4c:	00065e00 	andeq	r5, r6, r0, lsl #28
     f50:	61760b00 	cmnvs	r6, r0, lsl #22
     f54:	4701006c 	strmi	r0, [r1, -ip, rrx]
     f58:	00000025 	andeq	r0, r0, r5, lsr #32
     f5c:	0000068a 	andeq	r0, r0, sl, lsl #13
     f60:	0004f00d 	andeq	pc, r4, sp
     f64:	25470100 	strbcs	r0, [r7, #-256]	; 0x100
     f68:	09000000 	stmdbeq	r0, {}	; <UNPREDICTABLE>
     f6c:	0e000007 	cdpeq	0, 0, cr0, cr0, cr7, {0}
     f70:	000004c7 	andeq	r0, r0, r7, asr #9
     f74:	00254701 	eoreq	r4, r5, r1, lsl #14
     f78:	91020000 	mrsls	r0, (UNDEF: 2)
     f7c:	75620f04 	strbvc	r0, [r2, #-3844]!	; 0xf04
     f80:	4c010066 	stcmi	0, cr0, [r1], {102}	; 0x66
     f84:	000002df 	ldrdeq	r0, [r0], -pc	; <UNPREDICTABLE>
     f88:	7fa89103 	svcvc	0x00a89103
     f8c:	01007010 	tsteq	r0, r0, lsl r0
     f90:	0000744c 	andeq	r7, r0, ip, asr #8
     f94:	00073300 	andeq	r3, r7, r0, lsl #6
     f98:	00751000 	rsbseq	r1, r5, r0
     f9c:	002c4d01 	eoreq	r4, ip, r1, lsl #26
     fa0:	07ef0000 	strbeq	r0, [pc, r0]!
     fa4:	c4110000 	ldrgt	r0, [r1], #-0
     fa8:	ff000000 			; <UNDEFINED> instruction: 0xff000000
     fac:	05000002 	streq	r0, [r0, #-2]
     fb0:	009c4c03 	addseq	r4, ip, r3, lsl #24
     fb4:	86381200 	ldrthi	r1, [r8], -r0, lsl #4
     fb8:	00740000 	rsbseq	r0, r4, r0
     fbc:	02610000 	rsbeq	r0, r1, #0
     fc0:	a4130000 	ldrge	r0, [r3], #-0
     fc4:	01000004 	tsteq	r0, r4
     fc8:	00002c52 	andeq	r2, r0, r2, asr ip
     fcc:	0008f400 	andeq	pc, r8, r0, lsl #8
     fd0:	0c140000 	ldceq	0, cr0, [r4], {-0}
     fd4:	80000087 	andhi	r0, r0, r7, lsl #1
     fd8:	15000006 	strne	r0, [r0, #-6]
     fdc:	00008728 	andeq	r8, r0, r8, lsr #14
     fe0:	00000687 	andeq	r0, r0, r7, lsl #13
     fe4:	000002a3 	andeq	r0, r0, r3, lsr #5
     fe8:	02530116 	subseq	r0, r3, #-2147483643	; 0x80000005
     fec:	01167508 	tsteq	r6, r8, lsl #10
     ff0:	4c030552 	cfstr32mi	mvfx0, [r3], {82}	; 0x52
     ff4:	1600009c 			; <UNDEFINED> instruction: 0x1600009c
     ff8:	03055101 	movweq	r5, #20737	; 0x5101
     ffc:	00009c84 	andeq	r9, r0, r4, lsl #25
    1000:	05500116 	ldrbeq	r0, [r0, #-278]	; 0x116
    1004:	009c7003 	addseq	r7, ip, r3
    1008:	7d021600 	stcvc	6, cr1, [r2, #-0]
    100c:	98030500 	stmdals	r3, {r8, sl}
    1010:	0000009c 	muleq	r0, ip, r0
    1014:	00872c14 	addeq	r2, r7, r4, lsl ip
    1018:	00069d00 	andeq	r9, r6, r0, lsl #26
    101c:	87381500 	ldrhi	r1, [r8, -r0, lsl #10]!
    1020:	00e00000 	rsceq	r0, r0, r0
    1024:	02c10000 	sbceq	r0, r1, #0
    1028:	01160000 	tsteq	r6, r0
    102c:	a0910351 	addsge	r0, r1, r1, asr r3
    1030:	4c17007f 	ldcmi	0, cr0, [r7], {127}	; 0x7f
    1034:	30000087 	andcc	r0, r0, r7, lsl #1
    1038:	16000001 	strne	r0, [r0], -r1
    103c:	91035301 	tstls	r3, r1, lsl #6
    1040:	01167fa0 	tsteq	r6, r0, lsr #31
    1044:	00740251 	rsbseq	r0, r4, r1, asr r2
    1048:	02500116 	subseq	r0, r0, #-2147483643	; 0x80000005
    104c:	00000075 	andeq	r0, r0, r5, ror r0
    1050:	00007a18 	andeq	r7, r0, r8, lsl sl
    1054:	0002ef00 	andeq	lr, r2, r0, lsl #30
    1058:	006b1900 	rsbeq	r1, fp, r0, lsl #18
    105c:	003f0000 	eorseq	r0, pc, r0
    1060:	00007a18 	andeq	r7, r0, r8, lsl sl
    1064:	0002ff00 	andeq	pc, r2, r0, lsl #30
    1068:	006b1900 	rsbeq	r1, fp, r0, lsl #18
    106c:	00040000 	andeq	r0, r4, r0
    1070:	0002ef06 	andeq	lr, r2, r6, lsl #30
    1074:	04e11a00 	strbteq	r1, [r1], #2560	; 0xa00
    1078:	1f010000 	svcne	0x00010000
    107c:	00008774 	andeq	r8, r0, r4, ror r7
    1080:	00000068 	andeq	r0, r0, r8, rrx
    1084:	03929c01 	orrseq	r9, r2, #256	; 0x100
    1088:	f60d0000 			; <UNDEFINED> instruction: 0xf60d0000
    108c:	01000004 	tsteq	r0, r4
    1090:	0003a11f 	andeq	sl, r3, pc, lsl r1
    1094:	00092000 	andeq	r2, r9, r0
    1098:	04ba0d00 	ldrteq	r0, [sl], #3328	; 0xd00
    109c:	1f010000 	svcne	0x00010000
    10a0:	000003b6 			; <UNDEFINED> instruction: 0x000003b6
    10a4:	0000094c 	andeq	r0, r0, ip, asr #18
    10a8:	0000c411 	andeq	ip, r0, r1, lsl r4
    10ac:	0003cc00 	andeq	ip, r3, r0, lsl #24
    10b0:	54030500 	strpl	r0, [r3], #-1280	; 0x500
    10b4:	1400009c 	strne	r0, [r0], #-156	; 0x9c
    10b8:	00008788 	andeq	r8, r0, r8, lsl #15
    10bc:	00000680 	andeq	r0, r0, r0, lsl #13
    10c0:	0087a415 	addeq	sl, r7, r5, lsl r4
    10c4:	00068700 	andeq	r8, r6, r0, lsl #14
    10c8:	00038800 	andeq	r8, r3, r0, lsl #16
    10cc:	53011600 	movwpl	r1, #5632	; 0x1600
    10d0:	16200802 	strtne	r0, [r0], -r2, lsl #16
    10d4:	03055201 	movweq	r5, #20993	; 0x5201
    10d8:	00009c54 	andeq	r9, r0, r4, asr ip
    10dc:	05510116 	ldrbeq	r0, [r1, #-278]	; 0x116
    10e0:	009c8403 	addseq	r8, ip, r3, lsl #8
    10e4:	50011600 	andpl	r1, r1, r0, lsl #12
    10e8:	9c700305 	ldclls	3, cr0, [r0], #-20	; 0xffffffec
    10ec:	02160000 	andseq	r0, r6, #0
    10f0:	0305007d 	movweq	r0, #20605	; 0x507d
    10f4:	00009cc0 	andeq	r9, r0, r0, asr #25
    10f8:	87a81400 	strhi	r1, [r8, r0, lsl #8]!
    10fc:	069d0000 	ldreq	r0, [sp], r0
    1100:	1b000000 	blne	1108 <_start-0x6ef8>
    1104:	00000025 	andeq	r0, r0, r5, lsr #32
    1108:	000003a1 	andeq	r0, r0, r1, lsr #7
    110c:	0000251c 	andeq	r2, r0, ip, lsl r5
    1110:	04050000 	streq	r0, [r5], #-0
    1114:	00000392 	muleq	r0, r2, r3
    1118:	0000251b 	andeq	r2, r0, fp, lsl r5
    111c:	0003b600 	andeq	fp, r3, r0, lsl #12
    1120:	00811c00 	addeq	r1, r1, r0, lsl #24
    1124:	05000000 	streq	r0, [r0, #-0]
    1128:	0003a704 	andeq	sl, r3, r4, lsl #14
    112c:	007a1800 	rsbseq	r1, sl, r0, lsl #16
    1130:	03cc0000 	biceq	r0, ip, #0
    1134:	6b190000 	blvs	64113c <__bss_end__+0x636a9c>
    1138:	0e000000 	cdpeq	0, 0, cr0, cr0, cr0, {0}
    113c:	03bc0600 			; <UNDEFINED> instruction: 0x03bc0600
    1140:	ef1d0000 	svc	0x001d0000
    1144:	01000003 	tsteq	r0, r3
    1148:	0000257d 	andeq	r2, r0, sp, ror r5
    114c:	0087dc00 	addeq	sp, r7, r0, lsl #24
    1150:	00029400 	andeq	r9, r2, r0, lsl #8
    1154:	459c0100 	ldrmi	r0, [ip, #256]	; 0x100
    1158:	0b000006 	bleq	1178 <_start-0x6e88>
    115c:	00667562 	rsbeq	r7, r6, r2, ror #10
    1160:	00747d01 	rsbseq	r7, r4, r1, lsl #26
    1164:	09780000 	ldmdbeq	r8!, {}^	; <UNPREDICTABLE>
    1168:	6e0b0000 	cdpvs	0, 0, cr0, cr11, cr0, {0}
    116c:	257d0100 	ldrbcs	r0, [sp, #-256]!	; 0x100
    1170:	a4000000 	strge	r0, [r0], #-0
    1174:	0b000009 	bleq	11a0 <_start-0x6e60>
    1178:	00746d66 	rsbseq	r6, r4, r6, ror #26
    117c:	00817d01 	addeq	r7, r1, r1, lsl #26
    1180:	09d20000 	ldmibeq	r2, {}^	; <UNPREDICTABLE>
    1184:	470d0000 	strmi	r0, [sp, -r0]
    1188:	01000004 	tsteq	r0, r4
    118c:	0000ae7d 	andeq	sl, r0, sp, ror lr
    1190:	000a0600 	andeq	r0, sl, r0, lsl #12
    1194:	00701000 	rsbseq	r1, r0, r0
    1198:	00747e01 	rsbseq	r7, r4, r1, lsl #28
    119c:	0a190000 	beq	6411a4 <__bss_end__+0x636b04>
    11a0:	65100000 	ldrvs	r0, [r0, #-0]
    11a4:	747e0100 	ldrbtvc	r0, [lr], #-256	; 0x100
    11a8:	97000000 	strls	r0, [r0, -r0]
    11ac:	1100000a 	tstne	r0, sl
    11b0:	000000c4 	andeq	r0, r0, r4, asr #1
    11b4:	00000655 	andeq	r0, r0, r5, asr r6
    11b8:	9c640305 	stclls	3, cr0, [r4], #-20	; 0xffffffec
    11bc:	001e0000 	andseq	r0, lr, r0
    11c0:	10000000 	andne	r0, r0, r0
    11c4:	8b010073 	blhi	41398 <__bss_end__+0x36cf8>
    11c8:	00000074 	andeq	r0, r0, r4, ror r0
    11cc:	00000abe 			; <UNDEFINED> instruction: 0x00000abe
    11d0:	6d756e0f 	ldclvs	14, cr6, [r5, #-60]!	; 0xffffffc4
    11d4:	5a8b0100 	bpl	fe2c15dc <__bss_end__+0xfe2b6f3c>
    11d8:	03000006 	movweq	r0, #6
    11dc:	137ed891 	cmnne	lr, #9502720	; 0x910000
    11e0:	000004f0 	strdeq	r0, [r0], -r0	; <UNPREDICTABLE>
    11e4:	002c8c01 	eoreq	r8, ip, r1, lsl #24
    11e8:	0b130000 	bleq	4c11f0 <__bss_end__+0x4b6b50>
    11ec:	60150000 	andsvs	r0, r5, r0
    11f0:	b9000088 	stmdblt	r0, {r3, r7}
    11f4:	91000000 	mrsls	r0, (UNDEF: 0)
    11f8:	16000004 	strne	r0, [r0], -r4
    11fc:	75025001 	strvc	r5, [r2, #-1]
    1200:	74140000 	ldrvc	r0, [r4], #-0
    1204:	80000088 	andhi	r0, r0, r8, lsl #1
    1208:	15000006 	strne	r0, [r0, #-6]
    120c:	00008890 	muleq	r0, r0, r8
    1210:	00000687 	andeq	r0, r0, r7, lsl #13
    1214:	000004d3 	ldrdeq	r0, [r0], -r3
    1218:	02530116 	subseq	r0, r3, #-2147483643	; 0x80000005
    121c:	01169208 	tsteq	r6, r8, lsl #4
    1220:	64030552 	strvs	r0, [r3], #-1362	; 0x552
    1224:	1600009c 			; <UNDEFINED> instruction: 0x1600009c
    1228:	03055101 	movweq	r5, #20737	; 0x5101
    122c:	00009c84 	andeq	r9, r0, r4, lsl #25
    1230:	05500116 	ldrbeq	r0, [r0, #-278]	; 0x116
    1234:	009c7003 	addseq	r7, ip, r3
    1238:	7d021600 	stcvc	6, cr1, [r2, #-0]
    123c:	c8030500 	stmdagt	r3, {r8, sl}
    1240:	0000009c 	muleq	r0, ip, r0
    1244:	00889414 	addeq	r9, r8, r4, lsl r4
    1248:	00069d00 	andeq	r9, r6, r0, lsl #26
    124c:	89041400 	stmdbhi	r4, {sl, ip}
    1250:	06800000 	streq	r0, [r0], r0
    1254:	18150000 	ldmdane	r5, {}	; <UNPREDICTABLE>
    1258:	87000089 	strhi	r0, [r0, -r9, lsl #1]
    125c:	14000006 	strne	r0, [r0], #-6
    1260:	16000005 	strne	r0, [r0], -r5
    1264:	08025301 	stmdaeq	r2, {r0, r8, r9, ip, lr}
    1268:	52011698 	andpl	r1, r1, #152, 12	; 0x9800000
    126c:	9c640305 	stclls	3, cr0, [r4], #-20	; 0xffffffec
    1270:	01160000 	tsteq	r6, r0
    1274:	84030551 	strhi	r0, [r3], #-1361	; 0x551
    1278:	1600009c 			; <UNDEFINED> instruction: 0x1600009c
    127c:	03055001 	movweq	r5, #20481	; 0x5001
    1280:	00009cd4 	ldrdeq	r9, [r0], -r4
    1284:	891c1400 	ldmdbhi	ip, {sl, ip}
    1288:	069d0000 	ldreq	r0, [sp], r0
    128c:	40150000 	andsmi	r0, r5, r0
    1290:	9c000089 	stcls	0, cr0, [r0], {137}	; 0x89
    1294:	4a000001 	bmi	12a0 <_start-0x6d60>
    1298:	16000005 	strne	r0, [r0], -r5
    129c:	08025201 	stmdaeq	r2, {r0, r9, ip, lr}
    12a0:	51011680 	smlabbpl	r1, r0, r6, r1
    12a4:	7ed09103 	atnvcs	f1, f3
    12a8:	01500116 	cmpeq	r0, r6, lsl r1
    12ac:	7d02163a 	stcvc	6, cr1, [r2, #-232]	; 0xffffff18
    12b0:	16310104 	ldrtne	r0, [r1], -r4, lsl #2
    12b4:	02007d02 	andeq	r7, r0, #2, 26	; 0x80
    12b8:	15000077 	strne	r0, [r0, #-119]	; 0x77
    12bc:	00008964 	andeq	r8, r0, r4, ror #18
    12c0:	0000019c 	muleq	r0, ip, r1
    12c4:	00000578 	andeq	r0, r0, r8, ror r5
    12c8:	02520116 	subseq	r0, r2, #-2147483643	; 0x80000005
    12cc:	01168008 	tsteq	r6, r8
    12d0:	d0910351 	addsle	r0, r1, r1, asr r3
    12d4:	5001167e 	andpl	r1, r1, lr, ror r6
    12d8:	02163a01 	andseq	r3, r6, #4096	; 0x1000
    12dc:	7b02047d 	blvc	824d8 <__bss_end__+0x77e38>
    12e0:	7d021600 	stcvc	6, cr1, [r2, #-0]
    12e4:	00770200 	rsbseq	r0, r7, r0, lsl #4
    12e8:	89881500 	stmibhi	r8, {r8, sl, ip}
    12ec:	019c0000 	orrseq	r0, ip, r0
    12f0:	05a60000 	streq	r0, [r6, #0]!
    12f4:	01160000 	tsteq	r6, r0
    12f8:	80080252 	andhi	r0, r8, r2, asr r2
    12fc:	03510116 	cmpeq	r1, #-2147483643	; 0x80000005
    1300:	167ed091 			; <UNDEFINED> instruction: 0x167ed091
    1304:	40015001 	andmi	r5, r1, r1
    1308:	047d0216 	ldrbteq	r0, [sp], #-534	; 0x216
    130c:	16007b02 	strne	r7, [r0], -r2, lsl #22
    1310:	02007d02 	andeq	r7, r0, #2, 26	; 0x80
    1314:	15000077 	strne	r0, [r0, #-119]	; 0x77
    1318:	000089ac 	andeq	r8, r0, ip, lsr #19
    131c:	0000019c 	muleq	r0, ip, r1
    1320:	000005d4 	ldrdeq	r0, [r0], -r4
    1324:	02520116 	subseq	r0, r2, #-2147483643	; 0x80000005
    1328:	01168008 	tsteq	r6, r8
    132c:	d0910351 	addsle	r0, r1, r1, asr r3
    1330:	5001167e 	andpl	r1, r1, lr, ror r6
    1334:	02163201 	andseq	r3, r6, #268435456	; 0x10000000
    1338:	7b02047d 	blvc	82534 <__bss_end__+0x77e94>
    133c:	7d021600 	stcvc	6, cr1, [r2, #-0]
    1340:	00770200 	rsbseq	r0, r7, r0, lsl #4
    1344:	89dc1500 	ldmibhi	ip, {r8, sl, ip}^
    1348:	019c0000 	orrseq	r0, ip, r0
    134c:	06020000 	streq	r0, [r2], -r0
    1350:	01160000 	tsteq	r6, r0
    1354:	80080252 	andhi	r0, r8, r2, asr r2
    1358:	03510116 	cmpeq	r1, #-2147483643	; 0x80000005
    135c:	167ed091 			; <UNDEFINED> instruction: 0x167ed091
    1360:	38015001 	stmdacc	r1, {r0, ip, lr}
    1364:	047d0216 	ldrbteq	r0, [sp], #-534	; 0x216
    1368:	16007b02 	strne	r7, [r0], -r2, lsl #22
    136c:	02007d02 	andeq	r7, r0, #2, 26	; 0x80
    1370:	14000077 	strne	r0, [r0], #-119	; 0x77
    1374:	000089e4 	andeq	r8, r0, r4, ror #19
    1378:	00000680 	andeq	r0, r0, r0, lsl #13
    137c:	008a0015 	addeq	r0, sl, r5, lsl r0
    1380:	00068700 	andeq	r8, r6, r0, lsl #14
    1384:	00063a00 	andeq	r3, r6, r0, lsl #20
    1388:	53011600 	movwpl	r1, #5632	; 0x1600
    138c:	16b90802 	ldrtne	r0, [r9], r2, lsl #16
    1390:	03055201 	movweq	r5, #20993	; 0x5201
    1394:	00009c64 	andeq	r9, r0, r4, ror #24
    1398:	05510116 	ldrbeq	r0, [r1, #-278]	; 0x116
    139c:	009c8403 	addseq	r8, ip, r3, lsl #8
    13a0:	50011600 	andpl	r1, r1, r0, lsl #12
    13a4:	9cfc0305 	ldclls	3, cr0, [ip], #20
    13a8:	14000000 	strne	r0, [r0], #-0
    13ac:	00008a04 	andeq	r8, r0, r4, lsl #20
    13b0:	0000069d 	muleq	r0, sp, r6
    13b4:	7a180000 	bvc	6013bc <__bss_end__+0x5f6d1c>
    13b8:	55000000 	strpl	r0, [r0, #-0]
    13bc:	19000006 	stmdbne	r0, {r1, r2}
    13c0:	0000006b 	andeq	r0, r0, fp, rrx
    13c4:	45060009 	strmi	r0, [r6, #-9]
    13c8:	18000006 	stmdane	r0, {r1, r2}
    13cc:	0000007a 	andeq	r0, r0, sl, ror r0
    13d0:	0000066a 	andeq	r0, r0, sl, ror #12
    13d4:	00006b19 	andeq	r6, r0, r9, lsl fp
    13d8:	1f007f00 	svcne	0x00007f00
    13dc:	00000462 	andeq	r0, r0, r2, ror #8
    13e0:	03a11d03 			; <UNDEFINED> instruction: 0x03a11d03
    13e4:	9f1f0000 	svcls	0x001f0000
    13e8:	03000004 	movweq	r0, #4
    13ec:	0003b622 	andeq	fp, r3, r2, lsr #12
    13f0:	020e2000 	andeq	r2, lr, #0
    13f4:	1e030000 	cdpne	0, 0, cr0, cr3, cr0, {0}
    13f8:	0003f221 	andeq	pc, r3, r1, lsr #4
    13fc:	25290300 	strcs	r0, [r9, #-768]!	; 0x300
    1400:	9d000000 	stcls	0, cr0, [r0, #-0]
    1404:	1c000006 	stcne	0, cr0, [r0], {6}
    1408:	00000081 	andeq	r0, r0, r1, lsl #1
    140c:	4f200022 	svcmi	0x00200022
    1410:	03000001 	movweq	r0, #1
    1414:	00ff0066 	rscseq	r0, pc, r6, rrx
    1418:	00040000 	andeq	r0, r4, r0
    141c:	000006e3 	andeq	r0, r0, r3, ror #13
    1420:	023b0104 	eorseq	r0, fp, #4, 2
    1424:	0e010000 	cdpeq	0, 0, cr0, cr1, cr0, {0}
    1428:	03000005 	movweq	r0, #5
    142c:	70000004 	andvc	r0, r0, r4
    1430:	2800008a 	stmdacs	r0, {r1, r3, r7}
    1434:	f2000000 	vhadd.s8	d0, d0, d0
    1438:	02000005 	andeq	r0, r0, #5
    143c:	6e690504 	cdpvs	5, 6, cr0, cr9, cr4, {0}
    1440:	04030074 	streq	r0, [r3], #-116	; 0x74
    1444:	00003207 	andeq	r3, r0, r7, lsl #4
    1448:	06010300 	streq	r0, [r1], -r0, lsl #6
    144c:	000001ed 	andeq	r0, r0, sp, ror #3
    1450:	f9050203 			; <UNDEFINED> instruction: 0xf9050203
    1454:	03000001 	movweq	r0, #1
    1458:	00560504 	subseq	r0, r6, r4, lsl #10
    145c:	08030000 	stmdaeq	r3, {}	; <UNPREDICTABLE>
    1460:	00005105 	andeq	r5, r0, r5, lsl #2
    1464:	08010300 	stmdaeq	r1, {r8, r9}
    1468:	000001eb 	andeq	r0, r0, fp, ror #3
    146c:	ed070203 	sfm	f0, 4, [r7, #-12]
    1470:	03000000 	movweq	r0, #0
    1474:	002d0704 	eoreq	r0, sp, r4, lsl #14
    1478:	08030000 	stmdaeq	r3, {}	; <UNPREDICTABLE>
    147c:	00002807 	andeq	r2, r0, r7, lsl #16
    1480:	07040300 	streq	r0, [r4, -r0, lsl #6]
    1484:	0000015c 	andeq	r0, r0, ip, asr r1
    1488:	f4080103 	vst4.8	{d0,d2,d4,d6}, [r8], r3
    148c:	04000001 	streq	r0, [r0], #-1
    1490:	00007f04 	andeq	r7, r0, r4, lsl #30
    1494:	00720500 	rsbseq	r0, r2, r0, lsl #10
    1498:	4f060000 	svcmi	0x00060000
    149c:	01000001 	tsteq	r0, r1
    14a0:	008a7004 	addeq	r7, sl, r4
    14a4:	00002800 	andeq	r2, r0, r0, lsl #16
    14a8:	ca9c0100 	bgt	fe7018b0 <__bss_end__+0xfe6f7210>
    14ac:	07000000 	streq	r0, [r0, -r0]
    14b0:	00008a84 	andeq	r8, r0, r4, lsl #21
    14b4:	000000ac 	andeq	r0, r0, ip, lsr #1
    14b8:	05500108 	ldrbeq	r0, [r0, #-264]	; 0x108
    14bc:	009d3403 	addseq	r3, sp, r3, lsl #8
    14c0:	8c090000 	stchi	0, cr0, [r9], {-0}
    14c4:	ea00008a 	b	16f4 <_start-0x690c>
    14c8:	c0000000 	andgt	r0, r0, r0
    14cc:	08000000 	stmdaeq	r0, {}	; <UNPREDICTABLE>
    14d0:	08025001 	stmdaeq	r2, {r0, ip, lr}
    14d4:	900a0064 	andls	r0, sl, r4, rrx
    14d8:	fb00008a 	blx	170a <_start-0x68f6>
    14dc:	00000000 	andeq	r0, r0, r0
    14e0:	0000250b 	andeq	r2, r0, fp, lsl #10
    14e4:	0000d900 	andeq	sp, r0, r0, lsl #18
    14e8:	00790c00 	rsbseq	r0, r9, r0, lsl #24
    14ec:	0d000000 	stceq	0, cr0, [r0, #-0]
    14f0:	0000049f 	muleq	r0, pc, r4	; <UNPREDICTABLE>
    14f4:	00e42202 	rsceq	r2, r4, r2, lsl #4
    14f8:	04040000 	streq	r0, [r4], #-0
    14fc:	000000ca 	andeq	r0, r0, sl, asr #1
    1500:	0005280e 	andeq	r2, r5, lr, lsl #16
    1504:	fb500200 	blx	1401d0e <__bss_end__+0x13f766e>
    1508:	0c000000 	stceq	0, cr0, [r0], {-0}
    150c:	0000002c 	andeq	r0, r0, ip, lsr #32
    1510:	05030f00 	streq	r0, [r3, #-3840]	; 0xf00
    1514:	63020000 	movwvs	r0, #8192	; 0x2000
    1518:	0002dd00 	andeq	sp, r2, r0, lsl #26
    151c:	ad000400 	cfstrsge	mvf0, [r0, #-0]
    1520:	04000007 	streq	r0, [r0], #-7
    1524:	00023b01 	andeq	r3, r2, r1, lsl #22
    1528:	060b0100 	streq	r0, [fp], -r0, lsl #2
    152c:	04030000 	streq	r0, [r3], #-0
    1530:	8a980000 	bhi	fe601538 <__bss_end__+0xfe5f6e98>
    1534:	00b00000 	adcseq	r0, r0, r0
    1538:	06890000 	streq	r0, [r9], r0
    153c:	04020000 	streq	r0, [r2], #-0
    1540:	746e6905 	strbtvc	r6, [lr], #-2309	; 0x905
    1544:	07040300 	streq	r0, [r4, -r0, lsl #6]
    1548:	00000032 	andeq	r0, r0, r2, lsr r0
    154c:	ed060103 	stfs	f0, [r6, #-12]
    1550:	03000001 	movweq	r0, #1
    1554:	01f90502 	mvnseq	r0, r2, lsl #10
    1558:	04030000 	streq	r0, [r3], #-0
    155c:	00005605 	andeq	r5, r0, r5, lsl #12
    1560:	05080300 	streq	r0, [r8, #-768]	; 0x300
    1564:	00000051 	andeq	r0, r0, r1, asr r0
    1568:	00035404 	andeq	r5, r3, r4, lsl #8
    156c:	5a2e0200 	bpl	b81d74 <__bss_end__+0xb776d4>
    1570:	03000000 	movweq	r0, #0
    1574:	01eb0801 	mvneq	r0, r1, lsl #16
    1578:	02030000 	andeq	r0, r3, #0
    157c:	0000ed07 	andeq	lr, r0, r7, lsl #26
    1580:	022b0400 	eoreq	r0, fp, #0, 8
    1584:	34020000 	strcc	r0, [r2], #-0
    1588:	00000073 	andeq	r0, r0, r3, ror r0
    158c:	2d070403 	cfstrscs	mvf0, [r7, #-12]
    1590:	03000000 	movweq	r0, #0
    1594:	00280708 	eoreq	r0, r8, r8, lsl #14
    1598:	04030000 	streq	r0, [r3], #-0
    159c:	00015c07 	andeq	r5, r1, r7, lsl #24
    15a0:	08010300 	stmdaeq	r1, {r8, r9}
    15a4:	000001f4 	strdeq	r0, [r0], -r4
    15a8:	00950405 	addseq	r0, r5, r5, lsl #8
    15ac:	88060000 	stmdahi	r6, {}	; <UNPREDICTABLE>
    15b0:	07000000 	streq	r0, [r0, -r0]
    15b4:	d10e030c 	tstle	lr, ip, lsl #6
    15b8:	08000000 	stmdaeq	r0, {}	; <UNPREDICTABLE>
    15bc:	03007874 	movweq	r7, #2164	; 0x874
    15c0:	00004f0f 	andeq	r4, r0, pc, lsl #30
    15c4:	72080000 	andvc	r0, r8, #0
    15c8:	0f030078 	svceq	0x00030078
    15cc:	0000004f 	andeq	r0, r0, pc, asr #32
    15d0:	05aa0901 	streq	r0, [sl, #2305]!	; 0x901
    15d4:	10030000 	andne	r0, r3, r0
    15d8:	00000068 	andeq	r0, r0, r8, rrx
    15dc:	055b0904 	ldrbeq	r0, [fp, #-2308]	; 0x904
    15e0:	11030000 	mrsne	r0, (UNDEF: 3)
    15e4:	00000068 	andeq	r0, r0, r8, rrx
    15e8:	93040008 	movwls	r0, #16392	; 0x4008
    15ec:	03000005 	movweq	r0, #5
    15f0:	00009a12 	andeq	r9, r0, r2, lsl sl
    15f4:	04010a00 	streq	r0, [r1], #-2560	; 0xa00
    15f8:	0000f710 	andeq	pc, r0, r0, lsl r7	; <UNPREDICTABLE>
    15fc:	05af0b00 	streq	r0, [pc, #2816]!	; 2104 <_start-0x5efc>
    1600:	0b010000 	bleq	41608 <__bss_end__+0x36f68>
    1604:	0000059d 	muleq	r0, sp, r5
    1608:	05850b02 	streq	r0, [r5, #2818]	; 0xb02
    160c:	00030000 	andeq	r0, r3, r0
    1610:	0005c404 	andeq	ip, r5, r4, lsl #8
    1614:	dc100400 	cfldrsle	mvf0, [r0], {-0}
    1618:	07000000 	streq	r0, [r0, -r0]
    161c:	2f140414 	svccs	0x00140414
    1620:	09000001 	stmdbeq	r0, {r0}
    1624:	0000062b 	andeq	r0, r0, fp, lsr #12
    1628:	002c1504 	eoreq	r1, ip, r4, lsl #10
    162c:	09000000 	stmdbeq	r0, {}	; <UNPREDICTABLE>
    1630:	0000061f 	andeq	r0, r0, pc, lsl r6
    1634:	00f71804 	rscseq	r1, r7, r4, lsl #16
    1638:	09040000 	stmdbeq	r4, {}	; <UNPREDICTABLE>
    163c:	000005ea 	andeq	r0, r0, sl, ror #11
    1640:	00d11b04 	sbcseq	r1, r1, r4, lsl #22
    1644:	00080000 	andeq	r0, r8, r0
    1648:	0005dc04 	andeq	sp, r5, r4, lsl #24
    164c:	02200400 	eoreq	r0, r0, #0, 8
    1650:	0c000001 	stceq	0, cr0, [r0], {1}
    1654:	00000531 	andeq	r0, r0, r1, lsr r5
    1658:	00250601 	eoreq	r0, r5, r1, lsl #12
    165c:	8a980000 	bhi	fe601664 <__bss_end__+0xfe5f6fc4>
    1660:	00200000 	eoreq	r0, r0, r0
    1664:	9c010000 	stcls	0, cr0, [r1], {-0}
    1668:	0000017a 	andeq	r0, r0, sl, ror r1
    166c:	0100630d 	tsteq	r0, sp, lsl #6
    1670:	00002506 	andeq	r2, r0, r6, lsl #10
    1674:	000b3d00 	andeq	r3, fp, r0, lsl #26
    1678:	8aac0e00 	bhi	feb04e80 <__bss_end__+0xfeafa7e0>
    167c:	027a0000 	rsbseq	r0, sl, #0
    1680:	010f0000 	mrseq	r0, CPSR
    1684:	00740251 	rsbseq	r0, r4, r1, asr r2
    1688:	0550010f 	ldrbeq	r0, [r0, #-271]	; 0x10f
    168c:	00a69003 	adceq	r9, r6, r3
    1690:	10000000 	andne	r0, r0, r0
    1694:	000005bc 			; <UNDEFINED> instruction: 0x000005bc
    1698:	8ab80b01 	bhi	fee042a4 <__bss_end__+0xfedf9c04>
    169c:	00900000 	addseq	r0, r0, r0
    16a0:	9c010000 	stcls	0, cr0, [r1], {-0}
    16a4:	00000227 	andeq	r0, r0, r7, lsr #4
    16a8:	00054511 	andeq	r4, r5, r1, lsl r5
    16ac:	250c0100 	strcs	r0, [ip, #-256]	; 0x100
    16b0:	11000000 	mrsne	r0, (UNDEF: 0)
    16b4:	000005ff 	strdeq	r0, [r0], -pc	; <UNPREDICTABLE>
    16b8:	00250c01 	eoreq	r0, r5, r1, lsl #24
    16bc:	0b120000 	bleq	4816c4 <__bss_end__+0x477024>
    16c0:	01000000 	mrseq	r0, (UNDEF: 0)
    16c4:	7362130d 	cmnvc	r2, #872415232	; 0x34000000
    16c8:	0f010073 	svceq	0x00010073
    16cc:	00000227 	andeq	r0, r0, r7, lsr #4
    16d0:	00000b5b 	andeq	r0, r0, fp, asr fp
    16d4:	00055314 	andeq	r5, r5, r4, lsl r3
    16d8:	27100100 	ldrcs	r0, [r0, -r0, lsl #2]
    16dc:	13000002 	movwne	r0, #2
    16e0:	01006263 	tsteq	r0, r3, ror #4
    16e4:	00022d17 	andeq	r2, r2, r7, lsl sp
    16e8:	000b7b00 	andeq	r7, fp, r0, lsl #22
    16ec:	8ae01500 	bhi	ff806af4 <__bss_end__+0xff7fc454>
    16f0:	02960000 	addseq	r0, r6, #0
    16f4:	1c160000 	ldcne	0, cr0, [r6], {-0}
    16f8:	a100008b 	smlabbge	r0, fp, r0, r0
    16fc:	fd000002 	stc2	0, cr0, [r0, #-8]
    1700:	0f000001 	svceq	0x00000001
    1704:	03055101 	movweq	r5, #20737	; 0x5101
    1708:	00009d40 	andeq	r9, r0, r0, asr #26
    170c:	0550010f 	ldrbeq	r0, [r0, #-271]	; 0x10f
    1710:	00a69003 	adceq	r9, r6, r3
    1714:	24160000 	ldrcs	r0, [r6], #-0
    1718:	bc00008b 	stclt	0, cr0, [r0], {139}	; 0x8b
    171c:	14000002 	strne	r0, [r0], #-2
    1720:	0f000002 	svceq	0x00000002
    1724:	03055001 	movweq	r5, #20481	; 0x5001
    1728:	00009d64 	andeq	r9, r0, r4, ror #26
    172c:	8b281500 	blhi	a06b34 <__bss_end__+0x9fc494>
    1730:	02d20000 	sbcseq	r0, r2, #0
    1734:	2c150000 	ldccs	0, cr0, [r5], {-0}
    1738:	d900008b 	stmdble	r0, {r0, r1, r3, r7}
    173c:	00000002 	andeq	r0, r0, r2
    1740:	00250405 	eoreq	r0, r5, r5, lsl #8
    1744:	04050000 	streq	r0, [r5], #-0
    1748:	0000012f 	andeq	r0, r0, pc, lsr #2
    174c:	00056917 	andeq	r6, r5, r7, lsl r9
    1750:	d1050100 	mrsle	r0, (UNDEF: 21)
    1754:	05000000 	streq	r0, [r0, #-0]
    1758:	00a69003 	adceq	r9, r6, r3
    175c:	00251800 	eoreq	r1, r5, r0, lsl #16
    1760:	02530000 	subseq	r0, r3, #0
    1764:	25190000 	ldrcs	r0, [r9, #-0]
    1768:	00000000 	andeq	r0, r0, r0
    176c:	00046211 	andeq	r6, r4, r1, lsl r2
    1770:	5e1d0500 	cfmul32pl	mvfx0, mvfx13, mvfx0
    1774:	05000002 	streq	r0, [r0, #-2]
    1778:	00024404 	andeq	r4, r2, r4, lsl #8
    177c:	05451100 	strbeq	r1, [r5, #-256]	; 0x100
    1780:	0c010000 	stceq	0, cr0, [r1], {-0}
    1784:	00000025 	andeq	r0, r0, r5, lsr #32
    1788:	0005ff11 	andeq	pc, r5, r1, lsl pc	; <UNPREDICTABLE>
    178c:	250c0100 	strcs	r0, [ip, #-256]	; 0x100
    1790:	1a000000 	bne	1798 <_start-0x6868>
    1794:	000005cf 	andeq	r0, r0, pc, asr #11
    1798:	02904403 	addseq	r4, r0, #50331648	; 0x3000000
    179c:	90190000 	andsls	r0, r9, r0
    17a0:	19000002 	stmdbne	r0, {r1}
    17a4:	0000005a 	andeq	r0, r0, sl, asr r0
    17a8:	d1040500 	tstle	r4, r0, lsl #10
    17ac:	1b000000 	blne	17b4 <_start-0x684c>
    17b0:	000005f2 	strdeq	r0, [r0], -r2
    17b4:	022d2a04 	eoreq	r2, sp, #4, 20	; 0x4000
    17b8:	761c0000 	ldrvc	r0, [ip], -r0
    17bc:	03000005 	movweq	r0, #5
    17c0:	00002515 	andeq	r2, r0, r5, lsl r5
    17c4:	0002bc00 	andeq	fp, r2, r0, lsl #24
    17c8:	02901900 	addseq	r1, r0, #0, 18
    17cc:	8f190000 	svchi	0x00190000
    17d0:	1d000000 	stcne	0, cr0, [r0, #-0]
    17d4:	03f21c00 	mvnseq	r1, #0, 24
    17d8:	29050000 	stmdbcs	r5, {}	; <UNPREDICTABLE>
    17dc:	00000025 	andeq	r0, r0, r5, lsr #32
    17e0:	000002d2 	ldrdeq	r0, [r0], -r2
    17e4:	00008f19 	andeq	r8, r0, r9, lsl pc
    17e8:	12001d00 	andne	r1, r0, #0, 26
    17ec:	0000000b 	andeq	r0, r0, fp
    17f0:	0312d105 	tsteq	r2, #1073741825	; 0x40000001
    17f4:	05000005 	streq	r0, [r0, #-5]
    17f8:	01ad0063 			; <UNDEFINED> instruction: 0x01ad0063
    17fc:	00040000 	andeq	r0, r4, r0
    1800:	00000944 	andeq	r0, r0, r4, asr #18
    1804:	023b0104 	eorseq	r0, fp, #4, 2
    1808:	4b010000 	blmi	41810 <__bss_end__+0x37170>
    180c:	03000006 	movweq	r0, #6
    1810:	18000004 	stmdane	r0, {r2}
    1814:	00000000 	andeq	r0, r0, r0
    1818:	ae000000 	cdpge	0, 0, cr0, cr0, cr0, {0}
    181c:	02000007 	andeq	r0, r0, #7
    1820:	6e690504 	cdpvs	5, 6, cr0, cr9, cr4, {0}
    1824:	04030074 	streq	r0, [r3], #-116	; 0x74
    1828:	00003207 	andeq	r3, r0, r7, lsl #4
    182c:	06010300 	streq	r0, [r1], -r0, lsl #6
    1830:	000001ed 	andeq	r0, r0, sp, ror #3
    1834:	f9050203 			; <UNDEFINED> instruction: 0xf9050203
    1838:	03000001 	movweq	r0, #1
    183c:	00560504 	subseq	r0, r6, r4, lsl #10
    1840:	08030000 	stmdaeq	r3, {}	; <UNPREDICTABLE>
    1844:	00005105 	andeq	r5, r0, r5, lsl #2
    1848:	08010300 	stmdaeq	r1, {r8, r9}
    184c:	000001eb 	andeq	r0, r0, fp, ror #3
    1850:	ed070203 	sfm	f0, 4, [r7, #-12]
    1854:	03000000 	movweq	r0, #0
    1858:	002d0704 	eoreq	r0, sp, r4, lsl #14
    185c:	08030000 	stmdaeq	r3, {}	; <UNPREDICTABLE>
    1860:	00002807 	andeq	r2, r0, r7, lsl #16
    1864:	07040300 	streq	r0, [r4, -r0, lsl #6]
    1868:	0000015c 	andeq	r0, r0, ip, asr r1
    186c:	f4080103 	vst4.8	{d0,d2,d4,d6}, [r8], r3
    1870:	04000001 	streq	r0, [r0], #-1
    1874:	00000631 	andeq	r0, r0, r1, lsr r6
    1878:	00250e01 	eoreq	r0, r5, r1, lsl #28
    187c:	8b480000 	blhi	1201884 <__bss_end__+0x11f71e4>
    1880:	00180000 	andseq	r0, r8, r0
    1884:	9c010000 	stcls	0, cr0, [r1], {-0}
    1888:	000000a2 	andeq	r0, r0, r2, lsr #1
    188c:	00069d05 	andeq	r9, r6, r5, lsl #26
    1890:	2c0f0100 	stfcss	f0, [pc], {-0}
    1894:	9b000000 	blls	189c <_start-0x6764>
    1898:	0000000b 	andeq	r0, r0, fp
    189c:	00068006 	andeq	r8, r6, r6
    18a0:	60170100 	andsvs	r0, r7, r0, lsl #2
    18a4:	1400008b 	strne	r0, [r0], #-139	; 0x8b
    18a8:	01000000 	mrseq	r0, (UNDEF: 0)
    18ac:	0000c79c 	muleq	r0, ip, r7
    18b0:	069d0500 	ldreq	r0, [sp], r0, lsl #10
    18b4:	18010000 	stmdane	r1, {}	; <UNPREDICTABLE>
    18b8:	0000002c 	andeq	r0, r0, ip, lsr #32
    18bc:	00000bba 			; <UNDEFINED> instruction: 0x00000bba
    18c0:	05030600 	streq	r0, [r3, #-1536]	; 0x600
    18c4:	1f010000 	svcne	0x00010000
    18c8:	00008b74 	andeq	r8, r0, r4, ror fp
    18cc:	00000048 	andeq	r0, r0, r8, asr #32
    18d0:	01779c01 	cmneq	r7, r1, lsl #24
    18d4:	95070000 	strls	r0, [r7, #-0]
    18d8:	01000006 	tsteq	r0, r6
    18dc:	0001772a 	andeq	r7, r1, sl, lsr #14
    18e0:	10001c00 	andne	r1, r0, r0, lsl #24
    18e4:	06780720 	ldrbteq	r0, [r8], -r0, lsr #14
    18e8:	2b010000 	blcs	418f0 <__bss_end__+0x37250>
    18ec:	00000177 	andeq	r0, r0, r7, ror r1
    18f0:	20100024 	andscs	r0, r0, r4, lsr #32
    18f4:	00063f07 	andeq	r3, r6, r7, lsl #30
    18f8:	772c0100 	strvc	r0, [ip, -r0, lsl #2]!
    18fc:	00000001 	andeq	r0, r0, r1
    1900:	085a0000 	ldmdaeq	sl, {}^	; <UNPREDICTABLE>
    1904:	0000065f 	andeq	r0, r0, pc, asr r6
    1908:	01772d01 	cmneq	r7, r1, lsl #26
    190c:	09200000 	stmdbeq	r0!, {}	; <UNPREDICTABLE>
    1910:	00008b7c 	andeq	r8, r0, ip, ror fp
    1914:	00000079 	andeq	r0, r0, r9, ror r0
    1918:	008b8809 	addeq	r8, fp, r9, lsl #16
    191c:	0000a200 	andeq	sl, r0, r0, lsl #4
    1920:	8b900a00 	blhi	fe404128 <__bss_end__+0xfe3f9a88>
    1924:	018d0000 	orreq	r0, sp, r0
    1928:	013a0000 	teqeq	sl, r0
    192c:	010b0000 	mrseq	r0, (UNDEF: 11)
    1930:	004e0150 	subeq	r0, lr, r0, asr r1
    1934:	008b9c0a 	addeq	r9, fp, sl, lsl #24
    1938:	00019e00 	andeq	r9, r1, r0, lsl #28
    193c:	00015a00 	andeq	r5, r1, r0, lsl #20
    1940:	51010b00 	tstpl	r1, r0, lsl #22
    1944:	00010c05 	andeq	r0, r1, r5, lsl #24
    1948:	010b5a00 	tsteq	fp, r0, lsl #20
    194c:	240c0550 	strcs	r0, [ip], #-1360	; 0x550
    1950:	00201000 	eoreq	r1, r0, r0
    1954:	008ba80c 	addeq	sl, fp, ip, lsl #16
    1958:	00019e00 	andeq	r9, r1, r0, lsl #28
    195c:	51010b00 	tstpl	r1, r0, lsl #22
    1960:	00200c05 	eoreq	r0, r0, r5, lsl #24
    1964:	010b5a00 	tsteq	fp, r0, lsl #20
    1968:	1c0c0550 	cfstr32ne	mvfx0, [ip], {80}	; 0x50
    196c:	00201000 	eoreq	r1, r0, r0
    1970:	00250d00 	eoreq	r0, r5, r0, lsl #26
    1974:	34080000 	strcc	r0, [r8], #-0
    1978:	01000006 	tsteq	r0, r6
    197c:	0001880d 	andeq	r8, r1, sp, lsl #16
    1980:	2c0d1000 	stccs	0, cr1, [sp], {-0}
    1984:	0e000000 	cdpeq	0, 0, cr0, cr0, cr0, {0}
    1988:	00000528 	andeq	r0, r0, r8, lsr #10
    198c:	019e5002 	orrseq	r5, lr, r2
    1990:	2c0f0000 	stccs	0, cr0, [pc], {-0}
    1994:	00000000 	andeq	r0, r0, r0
    1998:	00068f10 	andeq	r8, r6, r0, lsl pc
    199c:	0f9c0200 	svceq	0x009c0200
    19a0:	0000002c 	andeq	r0, r0, ip, lsr #32
    19a4:	00002c0f 	andeq	r2, r0, pc, lsl #24
    19a8:	d8000000 	stmdale	r0, {}	; <UNPREDICTABLE>
    19ac:	04000001 	streq	r0, [r0], #-1
    19b0:	000a3200 	andeq	r3, sl, r0, lsl #4
    19b4:	3b010400 	blcc	429bc <__bss_end__+0x3831c>
    19b8:	01000002 	tsteq	r0, r2
    19bc:	000006bf 			; <UNDEFINED> instruction: 0x000006bf
    19c0:	00000403 	andeq	r0, r0, r3, lsl #8
    19c4:	00008bbc 			; <UNDEFINED> instruction: 0x00008bbc
    19c8:	00000088 	andeq	r0, r0, r8, lsl #1
    19cc:	0000084b 	andeq	r0, r0, fp, asr #16
    19d0:	69050402 	stmdbvs	r5, {r1, sl}
    19d4:	0300746e 	movweq	r7, #1134	; 0x46e
    19d8:	00320704 	eorseq	r0, r2, r4, lsl #14
    19dc:	01030000 	mrseq	r0, (UNDEF: 3)
    19e0:	0001ed06 	andeq	lr, r1, r6, lsl #26
    19e4:	05020300 	streq	r0, [r2, #-768]	; 0x300
    19e8:	000001f9 	strdeq	r0, [r0], -r9
    19ec:	56050403 	strpl	r0, [r5], -r3, lsl #8
    19f0:	03000000 	movweq	r0, #0
    19f4:	00510508 	subseq	r0, r1, r8, lsl #10
    19f8:	01030000 	mrseq	r0, (UNDEF: 3)
    19fc:	0001eb08 	andeq	lr, r1, r8, lsl #22
    1a00:	07020300 	streq	r0, [r2, -r0, lsl #6]
    1a04:	000000ed 	andeq	r0, r0, sp, ror #1
    1a08:	2d070403 	cfstrscs	mvf0, [r7, #-12]
    1a0c:	03000000 	movweq	r0, #0
    1a10:	00280708 	eoreq	r0, r8, r8, lsl #14
    1a14:	04030000 	streq	r0, [r3], #-0
    1a18:	00015c07 	andeq	r5, r1, r7, lsl #24
    1a1c:	08010300 	stmdaeq	r1, {r8, r9}
    1a20:	000001f4 	strdeq	r0, [r0], -r4
    1a24:	0006de04 	andeq	sp, r6, r4, lsl #28
    1a28:	bc050100 	stflts	f0, [r5], {-0}
    1a2c:	1c00008b 	stcne	0, cr0, [r0], {139}	; 0x8b
    1a30:	01000000 	mrseq	r0, (UNDEF: 0)
    1a34:	00009e9c 	muleq	r0, ip, lr
    1a38:	06d80500 	ldrbeq	r0, [r8], r0, lsl #10
    1a3c:	05010000 	streq	r0, [r1, #-0]
    1a40:	0000002c 	andeq	r0, r0, ip, lsr #32
    1a44:	00000be4 	andeq	r0, r0, r4, ror #23
    1a48:	06a20600 	strteq	r0, [r2], r0, lsl #12
    1a4c:	0b010000 	bleq	41a54 <__bss_end__+0x373b4>
    1a50:	0000002c 	andeq	r0, r0, ip, lsr #32
    1a54:	00008bd8 	ldrdeq	r8, [r0], -r8	; <UNPREDICTABLE>
    1a58:	00000014 	andeq	r0, r0, r4, lsl r0
    1a5c:	00cb9c01 	sbceq	r9, fp, r1, lsl #24
    1a60:	e4070000 	str	r0, [r7], #-0
    1a64:	ca00008b 	bgt	1c98 <_start-0x6368>
    1a68:	08000001 	stmdaeq	r0, {r0}
    1a6c:	0c055001 	stceq	0, cr5, [r5], {1}
    1a70:	20003004 	andcs	r3, r0, r4
    1a74:	f4060000 	vst4.8	{d0-d3}, [r6], r0
    1a78:	01000006 	tsteq	r0, r6
    1a7c:	00002c10 	andeq	r2, r0, r0, lsl ip
    1a80:	008bec00 	addeq	lr, fp, r0, lsl #24
    1a84:	00000c00 	andeq	r0, r0, r0, lsl #24
    1a88:	f99c0100 			; <UNDEFINED> instruction: 0xf99c0100
    1a8c:	09000000 	stmdbeq	r0, {}	; <UNPREDICTABLE>
    1a90:	14010075 	strne	r0, [r1], #-117	; 0x75
    1a94:	0000002c 	andeq	r0, r0, ip, lsr #32
    1a98:	f40a5001 	vst4.8	{d5-d8}, [sl], r1
    1a9c:	9e00008b 	cdpls	0, 0, cr0, cr0, cr11, {4}
    1aa0:	00000000 	andeq	r0, r0, r0
    1aa4:	0006eb04 	andeq	lr, r6, r4, lsl #22
    1aa8:	f8190100 			; <UNDEFINED> instruction: 0xf8190100
    1aac:	2400008b 	strcs	r0, [r0], #-139	; 0x8b
    1ab0:	01000000 	mrseq	r0, (UNDEF: 0)
    1ab4:	0001579c 	muleq	r1, ip, r7
    1ab8:	73750b00 	cmnvc	r5, #0, 22
    1abc:	2c190100 	ldfcss	f0, [r9], {-0}
    1ac0:	18000000 	stmdane	r0, {}	; <UNPREDICTABLE>
    1ac4:	0900000c 	stmdbeq	r0, {r2, r3}
    1ac8:	01006272 	tsteq	r0, r2, ror r2
    1acc:	00002c1a 	andeq	r2, r0, sl, lsl ip
    1ad0:	0c540100 	ldfeqe	f0, [r4], {-0}
    1ad4:	00008c08 	andeq	r8, r0, r8, lsl #24
    1ad8:	00000010 	andeq	r0, r0, r0, lsl r0
    1adc:	0000014d 	andeq	r0, r0, sp, asr #2
    1ae0:	0061720d 	rsbeq	r7, r1, sp, lsl #4
    1ae4:	002c1c01 	eoreq	r1, ip, r1, lsl #24
    1ae8:	0c360000 	ldceq	0, cr0, [r6], #-0
    1aec:	0c0a0000 	stceq	0, cr0, [sl], {-0}
    1af0:	cb00008c 	blgt	1d28 <_start-0x62d8>
    1af4:	00000000 	andeq	r0, r0, r0
    1af8:	008c040a 	addeq	r0, ip, sl, lsl #8
    1afc:	0000cb00 	andeq	ip, r0, r0, lsl #22
    1b00:	28040000 	stmdacs	r4, {}	; <UNPREDICTABLE>
    1b04:	01000005 	tsteq	r0, r5
    1b08:	008c1c22 	addeq	r1, ip, r2, lsr #24
    1b0c:	00001400 	andeq	r1, r0, r0, lsl #8
    1b10:	909c0100 	addsls	r0, ip, r0, lsl #2
    1b14:	0b000001 	bleq	1b20 <_start-0x64e0>
    1b18:	0100736d 	tsteq	r0, sp, ror #6
    1b1c:	00002c22 	andeq	r2, r0, r2, lsr #24
    1b20:	000c4900 	andeq	r4, ip, r0, lsl #18
    1b24:	8c2c0700 	stchi	7, cr0, [ip], #-0
    1b28:	00f90000 	rscseq	r0, r9, r0
    1b2c:	01080000 	mrseq	r0, (UNDEF: 8)
    1b30:	01f30750 	mvnseq	r0, r0, asr r7
    1b34:	03e80a50 	mvneq	r0, #80, 20	; 0x50000
    1b38:	0400001e 	streq	r0, [r0], #-30
    1b3c:	000006b5 			; <UNDEFINED> instruction: 0x000006b5
    1b40:	8c302501 	cfldr32hi	mvfx2, [r0], #-4
    1b44:	00140000 	andseq	r0, r4, r0
    1b48:	9c010000 	stcls	0, cr0, [r1], {-0}
    1b4c:	000001ca 	andeq	r0, r0, sl, asr #3
    1b50:	6365730b 	cmnvs	r5, #738197504	; 0x2c000000
    1b54:	2c250100 	stfcss	f0, [r5], #-0
    1b58:	6a000000 	bvs	1b60 <_start-0x64a0>
    1b5c:	0700000c 	streq	r0, [r0, -ip]
    1b60:	00008c40 	andeq	r8, r0, r0, asr #24
    1b64:	00000157 	andeq	r0, r0, r7, asr r1
    1b68:	07500108 	ldrbeq	r0, [r0, -r8, lsl #2]
    1b6c:	0a5001f3 	beq	1402340 <__bss_end__+0x13f7ca0>
    1b70:	001e03e8 	andseq	r0, lr, r8, ror #7
    1b74:	06d20e00 	ldrbeq	r0, [r2], r0, lsl #28
    1b78:	a8020000 	stmdage	r2, {}	; <UNPREDICTABLE>
    1b7c:	0000002c 	andeq	r0, r0, ip, lsr #32
    1b80:	00002c0f 	andeq	r2, r0, pc, lsl #24
    1b84:	f2000000 	vhadd.s8	d0, d0, d0
    1b88:	04000011 	streq	r0, [r0], #-17
    1b8c:	000b1500 	andeq	r1, fp, r0, lsl #10
    1b90:	3b010400 	blcc	42b98 <__bss_end__+0x384f8>
    1b94:	01000002 	tsteq	r0, r2
    1b98:	000007a2 	andeq	r0, r0, r2, lsr #15
    1b9c:	00000403 	andeq	r0, r0, r3, lsl #8
    1ba0:	00008c44 	andeq	r8, r0, r4, asr #24
    1ba4:	00000668 	andeq	r0, r0, r8, ror #12
    1ba8:	000008f2 	strdeq	r0, [r0], -r2
    1bac:	69050402 	stmdbvs	r5, {r1, sl}
    1bb0:	0300746e 	movweq	r7, #1134	; 0x46e
    1bb4:	00320704 	eorseq	r0, r2, r4, lsl #14
    1bb8:	01030000 	mrseq	r0, (UNDEF: 3)
    1bbc:	0001ed06 	andeq	lr, r1, r6, lsl #26
    1bc0:	05020300 	streq	r0, [r2, #-768]	; 0x300
    1bc4:	000001f9 	strdeq	r0, [r0], -r9
    1bc8:	56050403 	strpl	r0, [r5], -r3, lsl #8
    1bcc:	03000000 	movweq	r0, #0
    1bd0:	00510508 	subseq	r0, r1, r8, lsl #10
    1bd4:	54040000 	strpl	r0, [r4], #-0
    1bd8:	03000003 	movweq	r0, #3
    1bdc:	00005a2e 	andeq	r5, r0, lr, lsr #20
    1be0:	08010300 	stmdaeq	r1, {r8, r9}
    1be4:	000001eb 	andeq	r0, r0, fp, ror #3
    1be8:	ed070203 	sfm	f0, 4, [r7, #-12]
    1bec:	04000000 	streq	r0, [r0], #-0
    1bf0:	0000022b 	andeq	r0, r0, fp, lsr #4
    1bf4:	00733403 	rsbseq	r3, r3, r3, lsl #8
    1bf8:	04030000 	streq	r0, [r3], #-0
    1bfc:	00002d07 	andeq	r2, r0, r7, lsl #26
    1c00:	07080300 	streq	r0, [r8, -r0, lsl #6]
    1c04:	00000028 	andeq	r0, r0, r8, lsr #32
    1c08:	5c070403 	cfstrspl	mvf0, [r7], {3}
    1c0c:	05000001 	streq	r0, [r0, #-1]
    1c10:	90040604 	andls	r0, r4, r4, lsl #12
    1c14:	03000000 	movweq	r0, #0
    1c18:	01f40801 	mvnseq	r0, r1, lsl #16
    1c1c:	04060000 	streq	r0, [r6], #-0
    1c20:	0000009d 	muleq	r0, sp, r0
    1c24:	00009007 	andeq	r9, r0, r7
    1c28:	040c0800 	streq	r0, [ip], #-2048	; 0x800
    1c2c:	0000d90e 	andeq	sp, r0, lr, lsl #18
    1c30:	78740900 	ldmdavc	r4!, {r8, fp}^
    1c34:	4f0f0400 	svcmi	0x000f0400
    1c38:	00000000 	andeq	r0, r0, r0
    1c3c:	00787209 	rsbseq	r7, r8, r9, lsl #4
    1c40:	004f0f04 	subeq	r0, pc, r4, lsl #30
    1c44:	0a010000 	beq	41c4c <__bss_end__+0x375ac>
    1c48:	000005aa 	andeq	r0, r0, sl, lsr #11
    1c4c:	00681004 	rsbeq	r1, r8, r4
    1c50:	0a040000 	beq	101c58 <__bss_end__+0xf75b8>
    1c54:	0000055b 	andeq	r0, r0, fp, asr r5
    1c58:	00681104 	rsbeq	r1, r8, r4, lsl #2
    1c5c:	00080000 	andeq	r0, r8, r0
    1c60:	00059304 	andeq	r9, r5, r4, lsl #6
    1c64:	a2120400 	andsge	r0, r2, #0, 8
    1c68:	04000000 	streq	r0, [r0], #-0
    1c6c:	000003d2 	ldrdeq	r0, [r0], -r2
    1c70:	00ef2805 	rsceq	r2, pc, r5, lsl #16
    1c74:	f90b0000 			; <UNDEFINED> instruction: 0xf90b0000
    1c78:	04000003 	streq	r0, [r0], #-3
    1c7c:	01060009 	tsteq	r6, r9
    1c80:	4c0c0000 	stcmi	0, cr0, [ip], {-0}
    1c84:	88000004 	stmdahi	r0, {r2}
    1c88:	00000000 	andeq	r0, r0, r0
    1c8c:	03fb0400 	mvnseq	r0, #0, 8
    1c90:	62050000 	andvs	r0, r5, #0
    1c94:	000000e4 	andeq	r0, r0, r4, ror #1
    1c98:	00075c0d 	andeq	r5, r7, sp, lsl #24
    1c9c:	03090200 	movweq	r0, #37376	; 0x9200
    1ca0:	0000013f 	andeq	r0, r0, pc, lsr r1
    1ca4:	0005be0e 	andeq	fp, r5, lr, lsl #28
    1ca8:	2c090200 	sfmcs	f0, 4, [r9], {-0}
    1cac:	0f000000 	svceq	0x00000000
    1cb0:	0902006e 	stmdbeq	r2, {r1, r2, r3, r5, r6}
    1cb4:	0000002c 	andeq	r0, r0, ip, lsr #32
    1cb8:	008c1110 	addeq	r1, ip, r0, lsl r1
    1cbc:	0c020000 	stceq	0, cr0, [r2], {-0}
    1cc0:	0000002c 	andeq	r0, r0, ip, lsr #32
    1cc4:	0f0d0000 	svceq	0x000d0000
    1cc8:	02000007 	andeq	r0, r0, #7
    1ccc:	01760317 	cmneq	r6, r7, lsl r3
    1cd0:	700f0000 	andvc	r0, pc, r0
    1cd4:	02006e69 	andeq	r6, r0, #1680	; 0x690
    1cd8:	00002c17 	andeq	r2, r0, r7, lsl ip
    1cdc:	00760f00 	rsbseq	r0, r6, r0, lsl #30
    1ce0:	002c1702 	eoreq	r1, ip, r2, lsl #14
    1ce4:	be0e0000 	cdplt	0, 0, cr0, cr14, cr0, {0}
    1ce8:	02000005 	andeq	r0, r0, #5
    1cec:	00002c17 	andeq	r2, r0, r7, lsl ip
    1cf0:	07620e00 	strbeq	r0, [r2, -r0, lsl #28]!
    1cf4:	17020000 	strne	r0, [r2, -r0]
    1cf8:	0000002c 	andeq	r0, r0, ip, lsr #32
    1cfc:	05cf1200 	strbeq	r1, [pc, #512]	; 1f04 <_start-0x60fc>
    1d00:	09010000 	stmdbeq	r1, {}	; <UNPREDICTABLE>
    1d04:	00008c44 	andeq	r8, r0, r4, asr #24
    1d08:	00000154 	andeq	r0, r0, r4, asr r1
    1d0c:	07229c01 	streq	r9, [r2, -r1, lsl #24]!
    1d10:	71130000 	tstvc	r3, r0
    1d14:	01000005 	tsteq	r0, r5
    1d18:	00072209 	andeq	r2, r7, r9, lsl #4
    1d1c:	000c8b00 	andeq	r8, ip, r0, lsl #22
    1d20:	00631400 	rsbeq	r1, r3, r0, lsl #8
    1d24:	005a0901 	subseq	r0, sl, r1, lsl #18
    1d28:	0cac0000 	stceq	0, cr0, [ip]
    1d2c:	74150000 	ldrvc	r0, [r5], #-0
    1d30:	0b010078 	bleq	41f18 <__bss_end__+0x37878>
    1d34:	00000025 	andeq	r0, r0, r5, lsr #32
    1d38:	08007606 	stmdaeq	r0, {r1, r2, r9, sl, ip, sp, lr}
    1d3c:	169f1aff 			; <UNDEFINED> instruction: 0x169f1aff
    1d40:	0c01006e 	stceq	0, cr0, [r1], {110}	; 0x6e
    1d44:	00000068 	andeq	r0, r0, r8, rrx
    1d48:	00000ccd 	andeq	r0, r0, sp, asr #25
    1d4c:	01007516 	tsteq	r0, r6, lsl r5
    1d50:	0000680d 	andeq	r6, r0, sp, lsl #16
    1d54:	000ce000 	andeq	lr, ip, r0
    1d58:	00731500 	rsbseq	r1, r3, r0, lsl #10
    1d5c:	00680e01 	rsbeq	r0, r8, r1, lsl #28
    1d60:	54010000 	strpl	r0, [r1], #-0
    1d64:	008c5417 	addeq	r5, ip, r7, lsl r4
    1d68:	00000400 	andeq	r0, r0, r0, lsl #8
    1d6c:	0001f800 	andeq	pc, r1, r0, lsl #16
    1d70:	008c1800 	addeq	r1, ip, r0, lsl #16
    1d74:	0e010000 	cdpeq	0, 0, cr0, cr1, cr0, {0}
    1d78:	0000002c 	andeq	r0, r0, ip, lsr #32
    1d7c:	19005401 	stmdbne	r0, {r0, sl, ip, lr}
    1d80:	0000013f 	andeq	r0, r0, pc, lsr r1
    1d84:	00008c58 	andeq	r8, r0, r8, asr ip
    1d88:	0000001c 	andeq	r0, r0, ip, lsl r0
    1d8c:	02751101 	rsbseq	r1, r5, #1073741824	; 0x40000000
    1d90:	6a1a0000 	bvs	681d98 <__bss_end__+0x6776f8>
    1d94:	09000001 	stmdbeq	r0, {r0}
    1d98:	1b00000d 	blne	1dd4 <_start-0x622c>
    1d9c:	0000015f 	andeq	r0, r0, pc, asr r1
    1da0:	561c5401 	ldrpl	r5, [ip], -r1, lsl #8
    1da4:	00000001 	andeq	r0, r0, r1
    1da8:	00014b1b 	andeq	r4, r1, fp, lsl fp
    1dac:	19560100 	ldmdbne	r6, {r8}^
    1db0:	00000111 	andeq	r0, r0, r1, lsl r1
    1db4:	00008c64 	andeq	r8, r0, r4, ror #24
    1db8:	00000010 	andeq	r0, r0, r0, lsl r0
    1dbc:	025f1a02 	subseq	r1, pc, #8192	; 0x2000
    1dc0:	281a0000 	ldmdacs	sl, {}	; <UNPREDICTABLE>
    1dc4:	1c000001 	stcne	0, cr0, [r0], {1}
    1dc8:	1b00000d 	blne	1e04 <_start-0x61fc>
    1dcc:	0000011d 	andeq	r0, r0, sp, lsl r1
    1dd0:	641d5401 	ldrvs	r5, [sp], #-1025	; 0x401
    1dd4:	0400008c 	streq	r0, [r0], #-140	; 0x8c
    1dd8:	1e000000 	cdpne	0, 0, cr0, cr0, cr0, {0}
    1ddc:	00000132 	andeq	r0, r0, r2, lsr r1
    1de0:	00000d2f 	andeq	r0, r0, pc, lsr #26
    1de4:	641f0000 	ldrvs	r0, [pc], #-0	; 1dec <_start-0x6214>
    1de8:	5900008c 	stmdbpl	r0, {r2, r3, r7}
    1dec:	20000011 	andcs	r0, r0, r1, lsl r0
    1df0:	30015101 	andcc	r5, r1, r1, lsl #2
    1df4:	02500120 	subseq	r0, r0, #32, 2
    1df8:	00000076 	andeq	r0, r0, r6, ror r0
    1dfc:	00013f19 	andeq	r3, r1, r9, lsl pc
    1e00:	008c7800 	addeq	r7, ip, r0, lsl #16
    1e04:	00001c00 	andeq	r1, r0, r0, lsl #24
    1e08:	f8130100 			; <UNDEFINED> instruction: 0xf8130100
    1e0c:	1a000002 	bne	1e1c <_start-0x61e4>
    1e10:	0000016a 	andeq	r0, r0, sl, ror #2
    1e14:	00000d42 	andeq	r0, r0, r2, asr #26
    1e18:	00015f1b 	andeq	r5, r1, fp, lsl pc
    1e1c:	1a540100 	bne	1502224 <__bss_end__+0x14f7b84>
    1e20:	00000156 	andeq	r0, r0, r6, asr r1
    1e24:	00000d64 	andeq	r0, r0, r4, ror #26
    1e28:	00014b1b 	andeq	r4, r1, fp, lsl fp
    1e2c:	19560100 	ldmdbne	r6, {r8}^
    1e30:	00000111 	andeq	r0, r0, r1, lsl r1
    1e34:	00008c84 	andeq	r8, r0, r4, lsl #25
    1e38:	00000010 	andeq	r0, r0, r0, lsl r0
    1e3c:	02df1a02 	sbcseq	r1, pc, #8192	; 0x2000
    1e40:	281a0000 	ldmdacs	sl, {}	; <UNPREDICTABLE>
    1e44:	95000001 	strls	r0, [r0, #-1]
    1e48:	1b00000d 	blne	1e84 <_start-0x617c>
    1e4c:	0000011d 	andeq	r0, r0, sp, lsl r1
    1e50:	841d5401 	ldrhi	r5, [sp], #-1025	; 0x401
    1e54:	0400008c 	streq	r0, [r0], #-140	; 0x8c
    1e58:	1e000000 	cdpne	0, 0, cr0, cr0, cr0, {0}
    1e5c:	00000132 	andeq	r0, r0, r2, lsr r1
    1e60:	00000db7 			; <UNDEFINED> instruction: 0x00000db7
    1e64:	841f0000 	ldrhi	r0, [pc], #-0	; 1e6c <_start-0x6194>
    1e68:	5900008c 	stmdbpl	r0, {r2, r3, r7}
    1e6c:	20000011 	andcs	r0, r0, r1, lsl r0
    1e70:	77045101 	strvc	r5, [r4, -r1, lsl #2]
    1e74:	201a3100 	andscs	r3, sl, r0, lsl #2
    1e78:	76025001 	strvc	r5, [r2], -r1
    1e7c:	19000000 	stmdbne	r0, {}	; <UNPREDICTABLE>
    1e80:	0000013f 	andeq	r0, r0, pc, lsr r1
    1e84:	00008c98 	muleq	r0, r8, ip
    1e88:	0000001c 	andeq	r0, r0, ip, lsl r0
    1e8c:	03801501 	orreq	r1, r0, #4194304	; 0x400000
    1e90:	6a1a0000 	bvs	681e98 <__bss_end__+0x6777f8>
    1e94:	ca000001 	bgt	1ea0 <_start-0x6160>
    1e98:	1b00000d 	blne	1ed4 <_start-0x612c>
    1e9c:	0000015f 	andeq	r0, r0, pc, asr r1
    1ea0:	561b5401 	ldrpl	r5, [fp], -r1, lsl #8
    1ea4:	08000001 	stmdaeq	r0, {r0}
    1ea8:	1a320077 	bne	c8208c <__bss_end__+0xc779ec>
    1eac:	9f1aff08 	svcls	0x001aff08
    1eb0:	00014b1b 	andeq	r4, r1, fp, lsl fp
    1eb4:	19560100 	ldmdbne	r6, {r8}^
    1eb8:	00000111 	andeq	r0, r0, r1, lsl r1
    1ebc:	00008ca4 	andeq	r8, r0, r4, lsr #25
    1ec0:	00000010 	andeq	r0, r0, r0, lsl r0
    1ec4:	03671a02 	cmneq	r7, #8192	; 0x2000
    1ec8:	281a0000 	ldmdacs	sl, {}	; <UNPREDICTABLE>
    1ecc:	ef000001 	svc	0x00000001
    1ed0:	1b00000d 	blne	1f0c <_start-0x60f4>
    1ed4:	0000011d 	andeq	r0, r0, sp, lsl r1
    1ed8:	a41d5401 	ldrge	r5, [sp], #-1025	; 0x401
    1edc:	0400008c 	streq	r0, [r0], #-140	; 0x8c
    1ee0:	1e000000 	cdpne	0, 0, cr0, cr0, cr0, {0}
    1ee4:	00000132 	andeq	r0, r0, r2, lsr r1
    1ee8:	00000e14 	andeq	r0, r0, r4, lsl lr
    1eec:	a41f0000 	ldrge	r0, [pc], #-0	; 1ef4 <_start-0x610c>
    1ef0:	5900008c 	stmdbpl	r0, {r2, r3, r7}
    1ef4:	20000011 	andcs	r0, r0, r1, lsl r0
    1ef8:	77045101 	strvc	r5, [r4, -r1, lsl #2]
    1efc:	201a3200 	andscs	r3, sl, r0, lsl #4
    1f00:	76025001 	strvc	r5, [r2], -r1
    1f04:	19000000 	stmdbne	r0, {}	; <UNPREDICTABLE>
    1f08:	0000013f 	andeq	r0, r0, pc, lsr r1
    1f0c:	00008cb8 			; <UNDEFINED> instruction: 0x00008cb8
    1f10:	0000001c 	andeq	r0, r0, ip, lsl r0
    1f14:	04081701 	streq	r1, [r8], #-1793	; 0x701
    1f18:	6a1a0000 	bvs	681f20 <__bss_end__+0x677880>
    1f1c:	27000001 	strcs	r0, [r0, -r1]
    1f20:	1b00000e 	blne	1f60 <_start-0x60a0>
    1f24:	0000015f 	andeq	r0, r0, pc, asr r1
    1f28:	561b5401 	ldrpl	r5, [fp], -r1, lsl #8
    1f2c:	08000001 	stmdaeq	r0, {r0}
    1f30:	1a340077 	bne	d02114 <__bss_end__+0xcf7a74>
    1f34:	9f1aff08 	svcls	0x001aff08
    1f38:	00014b1b 	andeq	r4, r1, fp, lsl fp
    1f3c:	19560100 	ldmdbne	r6, {r8}^
    1f40:	00000111 	andeq	r0, r0, r1, lsl r1
    1f44:	00008cc4 	andeq	r8, r0, r4, asr #25
    1f48:	00000010 	andeq	r0, r0, r0, lsl r0
    1f4c:	03ef1a02 	mvneq	r1, #8192	; 0x2000
    1f50:	281a0000 	ldmdacs	sl, {}	; <UNPREDICTABLE>
    1f54:	49000001 	stmdbmi	r0, {r0}
    1f58:	1b00000e 	blne	1f98 <_start-0x6068>
    1f5c:	0000011d 	andeq	r0, r0, sp, lsl r1
    1f60:	c41d5401 	ldrgt	r5, [sp], #-1025	; 0x401
    1f64:	0400008c 	streq	r0, [r0], #-140	; 0x8c
    1f68:	1e000000 	cdpne	0, 0, cr0, cr0, cr0, {0}
    1f6c:	00000132 	andeq	r0, r0, r2, lsr r1
    1f70:	00000e6b 	andeq	r0, r0, fp, ror #28
    1f74:	c41f0000 	ldrgt	r0, [pc], #-0	; 1f7c <_start-0x6084>
    1f78:	5900008c 	stmdbpl	r0, {r2, r3, r7}
    1f7c:	20000011 	andcs	r0, r0, r1, lsl r0
    1f80:	77045101 	strvc	r5, [r4, -r1, lsl #2]
    1f84:	201a3400 	andscs	r3, sl, r0, lsl #8
    1f88:	76025001 	strvc	r5, [r2], -r1
    1f8c:	19000000 	stmdbne	r0, {}	; <UNPREDICTABLE>
    1f90:	0000013f 	andeq	r0, r0, pc, lsr r1
    1f94:	00008cd8 	ldrdeq	r8, [r0], -r8	; <UNPREDICTABLE>
    1f98:	0000001c 	andeq	r0, r0, ip, lsl r0
    1f9c:	04901901 	ldreq	r1, [r0], #2305	; 0x901
    1fa0:	6a1a0000 	bvs	681fa8 <__bss_end__+0x677908>
    1fa4:	7e000001 	cdpvc	0, 0, cr0, cr0, cr1, {0}
    1fa8:	1b00000e 	blne	1fe8 <_start-0x6018>
    1fac:	0000015f 	andeq	r0, r0, pc, asr r1
    1fb0:	561b5401 	ldrpl	r5, [fp], -r1, lsl #8
    1fb4:	08000001 	stmdaeq	r0, {r0}
    1fb8:	1a380077 	bne	e0219c <__bss_end__+0xdf7afc>
    1fbc:	9f1aff08 	svcls	0x001aff08
    1fc0:	00014b1b 	andeq	r4, r1, fp, lsl fp
    1fc4:	19560100 	ldmdbne	r6, {r8}^
    1fc8:	00000111 	andeq	r0, r0, r1, lsl r1
    1fcc:	00008ce4 	andeq	r8, r0, r4, ror #25
    1fd0:	00000010 	andeq	r0, r0, r0, lsl r0
    1fd4:	04771a02 	ldrbteq	r1, [r7], #-2562	; 0xa02
    1fd8:	281a0000 	ldmdacs	sl, {}	; <UNPREDICTABLE>
    1fdc:	a3000001 	movwge	r0, #1
    1fe0:	1b00000e 	blne	2020 <_start-0x5fe0>
    1fe4:	0000011d 	andeq	r0, r0, sp, lsl r1
    1fe8:	e41d5401 	ldr	r5, [sp], #-1025	; 0x401
    1fec:	0400008c 	streq	r0, [r0], #-140	; 0x8c
    1ff0:	1e000000 	cdpne	0, 0, cr0, cr0, cr0, {0}
    1ff4:	00000132 	andeq	r0, r0, r2, lsr r1
    1ff8:	00000ec8 	andeq	r0, r0, r8, asr #29
    1ffc:	e41f0000 	ldr	r0, [pc], #-0	; 2004 <_start-0x5ffc>
    2000:	5900008c 	stmdbpl	r0, {r2, r3, r7}
    2004:	20000011 	andcs	r0, r0, r1, lsl r0
    2008:	77045101 	strvc	r5, [r4, -r1, lsl #2]
    200c:	201a3800 	andscs	r3, sl, r0, lsl #16
    2010:	76025001 	strvc	r5, [r2], -r1
    2014:	19000000 	stmdbne	r0, {}	; <UNPREDICTABLE>
    2018:	0000013f 	andeq	r0, r0, pc, lsr r1
    201c:	00008cf8 	strdeq	r8, [r0], -r8	; <UNPREDICTABLE>
    2020:	0000001c 	andeq	r0, r0, ip, lsl r0
    2024:	05181b01 	ldreq	r1, [r8, #-2817]	; 0xb01
    2028:	6a1a0000 	bvs	682030 <__bss_end__+0x677990>
    202c:	db000001 	blle	2038 <_start-0x5fc8>
    2030:	1b00000e 	blne	2070 <_start-0x5f90>
    2034:	0000015f 	andeq	r0, r0, pc, asr r1
    2038:	561b5401 	ldrpl	r5, [fp], -r1, lsl #8
    203c:	08000001 	stmdaeq	r0, {r0}
    2040:	1a400077 	bne	1002224 <__bss_end__+0xff7b84>
    2044:	9f1aff08 	svcls	0x001aff08
    2048:	00014b1b 	andeq	r4, r1, fp, lsl fp
    204c:	19560100 	ldmdbne	r6, {r8}^
    2050:	00000111 	andeq	r0, r0, r1, lsl r1
    2054:	00008d04 	andeq	r8, r0, r4, lsl #26
    2058:	00000010 	andeq	r0, r0, r0, lsl r0
    205c:	04ff1a02 	ldrbteq	r1, [pc], #2562	; 2064 <_start-0x5f9c>
    2060:	281a0000 	ldmdacs	sl, {}	; <UNPREDICTABLE>
    2064:	02000001 	andeq	r0, r0, #1
    2068:	1b00000f 	blne	20ac <_start-0x5f54>
    206c:	0000011d 	andeq	r0, r0, sp, lsl r1
    2070:	041d5401 	ldreq	r5, [sp], #-1025	; 0x401
    2074:	0400008d 	streq	r0, [r0], #-141	; 0x8d
    2078:	1e000000 	cdpne	0, 0, cr0, cr0, cr0, {0}
    207c:	00000132 	andeq	r0, r0, r2, lsr r1
    2080:	00000f29 	andeq	r0, r0, r9, lsr #30
    2084:	041f0000 	ldreq	r0, [pc], #-0	; 208c <_start-0x5f74>
    2088:	5900008d 	stmdbpl	r0, {r0, r2, r3, r7}
    208c:	20000011 	andcs	r0, r0, r1, lsl r0
    2090:	77045101 	strvc	r5, [r4, -r1, lsl #2]
    2094:	201a4000 	andscs	r4, sl, r0
    2098:	76025001 	strvc	r5, [r2], -r1
    209c:	19000000 	stmdbne	r0, {}	; <UNPREDICTABLE>
    20a0:	0000013f 	andeq	r0, r0, pc, lsr r1
    20a4:	00008d18 	andeq	r8, r0, r8, lsl sp
    20a8:	0000001c 	andeq	r0, r0, ip, lsl r0
    20ac:	05a21d01 	streq	r1, [r2, #3329]!	; 0xd01
    20b0:	6a1a0000 	bvs	6820b8 <__bss_end__+0x677a18>
    20b4:	3c000001 	stccc	0, cr0, [r0], {1}
    20b8:	1b00000f 	blne	20fc <_start-0x5f04>
    20bc:	0000015f 	andeq	r0, r0, pc, asr r1
    20c0:	561b5401 	ldrpl	r5, [fp], -r1, lsl #8
    20c4:	09000001 	stmdbeq	r0, {r0}
    20c8:	20080077 	andcs	r0, r8, r7, ror r0
    20cc:	1aff081a 	bne	fffc413c <__bss_end__+0xfffb9a9c>
    20d0:	014b1b9f 			; <UNDEFINED> instruction: 0x014b1b9f
    20d4:	56010000 	strpl	r0, [r1], -r0
    20d8:	00011119 	andeq	r1, r1, r9, lsl r1
    20dc:	008d2400 	addeq	r2, sp, r0, lsl #8
    20e0:	00001000 	andeq	r1, r0, r0
    20e4:	881a0200 	ldmdahi	sl, {r9}
    20e8:	1a000005 	bne	2104 <_start-0x5efc>
    20ec:	00000128 	andeq	r0, r0, r8, lsr #2
    20f0:	00000f66 	andeq	r0, r0, r6, ror #30
    20f4:	00011d1b 	andeq	r1, r1, fp, lsl sp
    20f8:	1d540100 	ldfnee	f0, [r4, #-0]
    20fc:	00008d24 	andeq	r8, r0, r4, lsr #26
    2100:	00000004 	andeq	r0, r0, r4
    2104:	0001321e 	andeq	r3, r1, lr, lsl r2
    2108:	000f9000 	andeq	r9, pc, r0
    210c:	1f000000 	svcne	0x00000000
    2110:	00008d24 	andeq	r8, r0, r4, lsr #26
    2114:	00001159 	andeq	r1, r0, r9, asr r1
    2118:	05510120 	ldrbeq	r0, [r1, #-288]	; 0x120
    211c:	20080077 	andcs	r0, r8, r7, ror r0
    2120:	5001201a 	andpl	r2, r1, sl, lsl r0
    2124:	00007602 	andeq	r7, r0, r2, lsl #12
    2128:	013f1900 	teqeq	pc, r0, lsl #18
    212c:	8d380000 	ldchi	0, cr0, [r8, #-0]
    2130:	001c0000 	andseq	r0, ip, r0
    2134:	1f010000 	svcne	0x00010000
    2138:	0000062c 	andeq	r0, r0, ip, lsr #12
    213c:	00016a1a 	andeq	r6, r1, sl, lsl sl
    2140:	000fa300 	andeq	sl, pc, r0, lsl #6
    2144:	015f1b00 	cmpeq	pc, r0, lsl #22
    2148:	54010000 	strpl	r0, [r1], #-0
    214c:	0001561b 	andeq	r5, r1, fp, lsl r6
    2150:	00770900 	rsbseq	r0, r7, r0, lsl #18
    2154:	081a4008 	ldmdaeq	sl, {r3, lr}
    2158:	1b9f1aff 	blne	fe7c8d5c <__bss_end__+0xfe7be6bc>
    215c:	0000014b 	andeq	r0, r0, fp, asr #2
    2160:	11195601 	tstne	r9, r1, lsl #12
    2164:	44000001 	strmi	r0, [r0], #-1
    2168:	1000008d 	andne	r0, r0, sp, lsl #1
    216c:	02000000 	andeq	r0, r0, #0
    2170:	0006121a 	andeq	r1, r6, sl, lsl r2
    2174:	01281a00 	teqeq	r8, r0, lsl #20
    2178:	0fc50000 	svceq	0x00c50000
    217c:	1d1b0000 	ldcne	0, cr0, [fp, #-0]
    2180:	01000001 	tsteq	r0, r1
    2184:	8d441d54 	stclhi	13, cr1, [r4, #-336]	; 0xfffffeb0
    2188:	00040000 	andeq	r0, r4, r0
    218c:	321e0000 	andscc	r0, lr, #0
    2190:	e7000001 	str	r0, [r0, -r1]
    2194:	0000000f 	andeq	r0, r0, pc
    2198:	8d441f00 	stclhi	15, cr1, [r4, #-0]
    219c:	11590000 	cmpne	r9, r0
    21a0:	01200000 	teqeq	r0, r0
    21a4:	00770551 	rsbseq	r0, r7, r1, asr r5
    21a8:	201a4008 	andscs	r4, sl, r8
    21ac:	76025001 	strvc	r5, [r2], -r1
    21b0:	19000000 	stmdbne	r0, {}	; <UNPREDICTABLE>
    21b4:	0000013f 	andeq	r0, r0, pc, lsr r1
    21b8:	00008d58 	andeq	r8, r0, r8, asr sp
    21bc:	0000001c 	andeq	r0, r0, ip, lsl r0
    21c0:	06ac2101 	strteq	r2, [ip], r1, lsl #2
    21c4:	6a1b0000 	bvs	6c21cc <__bss_end__+0x6b7b2c>
    21c8:	01000001 	tsteq	r0, r1
    21cc:	015f1b58 	cmpeq	pc, r8, asr fp	; <UNPREDICTABLE>
    21d0:	54010000 	strpl	r0, [r1], #-0
    21d4:	0001561a 	andeq	r5, r1, sl, lsl r6
    21d8:	000ffa00 	andeq	pc, pc, r0, lsl #20
    21dc:	014b1b00 	cmpeq	fp, r0, lsl #22
    21e0:	56010000 	strpl	r0, [r1], -r0
    21e4:	00011119 	andeq	r1, r1, r9, lsl r1
    21e8:	008d6400 	addeq	r6, sp, r0, lsl #8
    21ec:	00001000 	andeq	r1, r0, r0
    21f0:	921a0200 	andsls	r0, sl, #0, 4
    21f4:	1b000006 	blne	2214 <_start-0x5dec>
    21f8:	00000128 	andeq	r0, r0, r8, lsr #2
    21fc:	1d1b5801 	ldcne	8, cr5, [fp, #-4]
    2200:	01000001 	tsteq	r0, r1
    2204:	8d641d54 	stclhi	13, cr1, [r4, #-336]!	; 0xfffffeb0
    2208:	00040000 	andeq	r0, r4, r0
    220c:	321e0000 	andscc	r0, lr, #0
    2210:	2d000001 	stccs	0, cr0, [r0, #-4]
    2214:	00000010 	andeq	r0, r0, r0, lsl r0
    2218:	8d641f00 	stclhi	15, cr1, [r4, #-0]
    221c:	11590000 	cmpne	r9, r0
    2220:	01200000 	teqeq	r0, r0
    2224:	00770551 	rsbseq	r0, r7, r1, asr r5
    2228:	201a8008 	andscs	r8, sl, r8
    222c:	76025001 	strvc	r5, [r2], -r1
    2230:	21000000 	mrscs	r0, (UNDEF: 0)
    2234:	0000013f 	andeq	r0, r0, pc, lsr r1
    2238:	00008d78 	andeq	r8, r0, r8, ror sp
    223c:	0000001c 	andeq	r0, r0, ip, lsl r0
    2240:	6a1b2301 	bvs	6cae4c <__bss_end__+0x6c07ac>
    2244:	01000001 	tsteq	r0, r1
    2248:	015f1b55 	cmpeq	pc, r5, asr fp	; <UNPREDICTABLE>
    224c:	54010000 	strpl	r0, [r1], #-0
    2250:	0001561c 	andeq	r5, r1, ip, lsl r6
    2254:	4b1b0100 	blmi	6c265c <__bss_end__+0x6b7fbc>
    2258:	01000001 	tsteq	r0, r1
    225c:	01111956 	tsteq	r1, r6, asr r9
    2260:	8d840000 	stchi	0, cr0, [r4]
    2264:	00100000 	andseq	r0, r0, r0
    2268:	1a020000 	bne	82270 <__bss_end__+0x77bd0>
    226c:	0000070b 	andeq	r0, r0, fp, lsl #14
    2270:	0001281b 	andeq	r2, r1, fp, lsl r8
    2274:	1b550100 	blne	154267c <__bss_end__+0x1537fdc>
    2278:	0000011d 	andeq	r0, r0, sp, lsl r1
    227c:	841d5401 	ldrhi	r5, [sp], #-1025	; 0x401
    2280:	0400008d 	streq	r0, [r0], #-141	; 0x8d
    2284:	1e000000 	cdpne	0, 0, cr0, cr0, cr0, {0}
    2288:	00000132 	andeq	r0, r0, r2, lsr r1
    228c:	00001040 	andeq	r1, r0, r0, asr #32
    2290:	841f0000 	ldrhi	r0, [pc], #-0	; 2298 <_start-0x5d68>
    2294:	5900008d 	stmdbpl	r0, {r0, r2, r3, r7}
    2298:	20000011 	andcs	r0, r0, r1, lsl r0
    229c:	31015101 	tstcc	r1, r1, lsl #2
    22a0:	02500120 	subseq	r0, r0, #32, 2
    22a4:	00000076 	andeq	r0, r0, r6, ror r0
    22a8:	d9040600 	stmdble	r4, {r9, sl}
    22ac:	22000000 	andcs	r0, r0, #0
    22b0:	00000825 	andeq	r0, r0, r5, lsr #16
    22b4:	00252701 	eoreq	r2, r5, r1, lsl #14
    22b8:	62030000 	andvs	r0, r3, #0
    22bc:	0f000007 	svceq	0x00000007
    22c0:	01007872 	tsteq	r0, r2, ror r8
    22c4:	00002527 	andeq	r2, r0, r7, lsr #10
    22c8:	00760f00 	rsbseq	r0, r6, r0, lsl #30
    22cc:	00252701 	eoreq	r2, r5, r1, lsl #14
    22d0:	7e0e0000 	cdpvc	0, 0, cr0, cr14, cr0, {0}
    22d4:	01000007 	tsteq	r0, r7
    22d8:	00002c27 	andeq	r2, r0, r7, lsr #24
    22dc:	05be1100 	ldreq	r1, [lr, #256]!	; 0x100
    22e0:	28010000 	stmdacs	r1, {}	; <UNPREDICTABLE>
    22e4:	0000002c 	andeq	r0, r0, ip, lsr #32
    22e8:	071f2300 	ldreq	r2, [pc, -r0, lsl #6]
    22ec:	34010000 	strcc	r0, [r1], #-0
    22f0:	00000025 	andeq	r0, r0, r5, lsr #32
    22f4:	00008d98 	muleq	r0, r8, sp
    22f8:	000001c8 	andeq	r0, r0, r8, asr #3
    22fc:	0b1e9c01 	bleq	7a9308 <__bss_end__+0x79ec68>
    2300:	71130000 	tstvc	r3, r0
    2304:	01000005 	tsteq	r0, r5
    2308:	00072234 	andeq	r2, r7, r4, lsr r2
    230c:	00105300 	andseq	r5, r0, r0, lsl #6
    2310:	077e1300 	ldrbeq	r1, [lr, -r0, lsl #6]!
    2314:	34010000 	strcc	r0, [r1], #-0
    2318:	00000025 	andeq	r0, r0, r5, lsr #32
    231c:	00001098 	muleq	r0, r8, r0
    2320:	00787215 	rsbseq	r7, r8, r5, lsl r2
    2324:	00253501 	eoreq	r3, r5, r1, lsl #10
    2328:	55010000 	strpl	r0, [r1, #-0]
    232c:	01007316 	tsteq	r0, r6, lsl r3
    2330:	00002c3c 	andeq	r2, r0, ip, lsr ip
    2334:	0010b600 	andseq	fp, r0, r0, lsl #12
    2338:	00751600 	rsbseq	r1, r5, r0, lsl #12
    233c:	00683f01 	rsbeq	r3, r8, r1, lsl #30
    2340:	10c90000 	sbcne	r0, r9, r0
    2344:	6e160000 	cdpvs	0, 1, cr0, cr6, cr0, {0}
    2348:	2c400100 	stfcse	f0, [r0], {-0}
    234c:	dc000000 	stcle	0, cr0, [r0], {-0}
    2350:	16000010 			; <UNDEFINED> instruction: 0x16000010
    2354:	41010063 	tstmi	r1, r3, rrx
    2358:	0000002c 	andeq	r0, r0, ip, lsr #32
    235c:	000010f3 	strdeq	r1, [r0], -r3
    2360:	00072819 	andeq	r2, r7, r9, lsl r8
    2364:	008dac00 	addeq	sl, sp, r0, lsl #24
    2368:	00003400 	andeq	r3, r0, r0, lsl #8
    236c:	3c380100 	ldfccs	f0, [r8], #-0
    2370:	1a000008 	bne	2398 <_start-0x5c68>
    2374:	0000074b 	andeq	r0, r0, fp, asr #14
    2378:	0000111d 	andeq	r1, r0, sp, lsl r1
    237c:	0007421c 	andeq	r4, r7, ip, lsl r2
    2380:	381b0000 	ldmdacc	fp, {}	; <UNPREDICTABLE>
    2384:	01000007 	tsteq	r0, r7
    2388:	8dac1d55 	stchi	13, cr1, [ip, #340]!	; 0x154
    238c:	00340000 	eorseq	r0, r4, r0
    2390:	561e0000 	ldrpl	r0, [lr], -r0
    2394:	3b000007 	blcc	23b8 <_start-0x5c48>
    2398:	24000011 	strcs	r0, [r0], #-17
    239c:	00008db0 			; <UNDEFINED> instruction: 0x00008db0
    23a0:	0000116f 	andeq	r1, r0, pc, ror #2
    23a4:	008dbc25 	addeq	fp, sp, r5, lsr #24
    23a8:	00117a00 	andseq	r7, r1, r0, lsl #20
    23ac:	00083100 	andeq	r3, r8, r0, lsl #2
    23b0:	50012000 	andpl	r2, r1, r0
    23b4:	00007502 	andeq	r7, r0, r2, lsl #10
    23b8:	008dc824 	addeq	ip, sp, r4, lsr #16
    23bc:	00116f00 	andseq	r6, r1, r0, lsl #30
    23c0:	17000000 	strne	r0, [r0, -r0]
    23c4:	00008de8 	andeq	r8, r0, r8, ror #27
    23c8:	00000004 	andeq	r0, r0, r4
    23cc:	00000859 	andeq	r0, r0, r9, asr r8
    23d0:	00008c26 	andeq	r8, r0, r6, lsr #24
    23d4:	2c3c0100 	ldfcss	f0, [ip], #-0
    23d8:	59000000 	stmdbpl	r0, {}	; <UNPREDICTABLE>
    23dc:	00000011 	andeq	r0, r0, r1, lsl r0
    23e0:	00011119 	andeq	r1, r1, r9, lsl r1
    23e4:	008df400 	addeq	pc, sp, r0, lsl #8
    23e8:	00001000 	andeq	r1, r0, r0
    23ec:	92440100 	subls	r0, r4, #0, 2
    23f0:	1a000008 	bne	2418 <_start-0x5be8>
    23f4:	00000128 	andeq	r0, r0, r8, lsr #2
    23f8:	0000116c 	andeq	r1, r0, ip, ror #2
    23fc:	00011d1a 	andeq	r1, r1, sl, lsl sp
    2400:	00119100 	andseq	r9, r1, r0, lsl #2
    2404:	8df41d00 	ldclhi	13, cr1, [r4]
    2408:	00040000 	andeq	r0, r4, r0
    240c:	321e0000 	andscc	r0, lr, #0
    2410:	a4000001 	strge	r0, [r0], #-1
    2414:	00000011 	andeq	r0, r0, r1, lsl r0
    2418:	01111900 	tsteq	r1, r0, lsl #18
    241c:	8e140000 	cdphi	0, 1, cr0, cr4, cr0, {0}
    2420:	00100000 	andseq	r0, r0, r0
    2424:	48010000 	stmdami	r1, {}	; <UNPREDICTABLE>
    2428:	000008cb 	andeq	r0, r0, fp, asr #17
    242c:	0001281a 	andeq	r2, r1, sl, lsl r8
    2430:	0011b700 	andseq	fp, r1, r0, lsl #14
    2434:	011d1a00 	tsteq	sp, r0, lsl #20
    2438:	11ca0000 	bicne	r0, sl, r0
    243c:	141d0000 	ldrne	r0, [sp], #-0
    2440:	0400008e 	streq	r0, [r0], #-142	; 0x8e
    2444:	1e000000 	cdpne	0, 0, cr0, cr0, cr0, {0}
    2448:	00000132 	andeq	r0, r0, r2, lsr r1
    244c:	000011dd 	ldrdeq	r1, [r0], -sp
    2450:	11190000 	tstne	r9, r0
    2454:	38000001 	stmdacc	r0, {r0}
    2458:	1000008e 	andne	r0, r0, lr, lsl #1
    245c:	01000000 	mrseq	r0, (UNDEF: 0)
    2460:	0009044b 	andeq	r0, r9, fp, asr #8
    2464:	01281a00 	teqeq	r8, r0, lsl #20
    2468:	11f00000 	mvnsne	r0, r0
    246c:	1d1a0000 	ldcne	0, cr0, [sl, #-0]
    2470:	03000001 	movweq	r0, #1
    2474:	1d000012 	stcne	0, cr0, [r0, #-72]	; 0xffffffb8
    2478:	00008e38 	andeq	r8, r0, r8, lsr lr
    247c:	00000004 	andeq	r0, r0, r4
    2480:	0001321e 	andeq	r3, r1, lr, lsl r2
    2484:	00121600 	andseq	r1, r2, r0, lsl #12
    2488:	19000000 	stmdbne	r0, {}	; <UNPREDICTABLE>
    248c:	00000111 	andeq	r0, r0, r1, lsl r1
    2490:	00008e5c 	andeq	r8, r0, ip, asr lr
    2494:	00000010 	andeq	r0, r0, r0, lsl r0
    2498:	093d4e01 	ldmdbeq	sp!, {r0, r9, sl, fp, lr}
    249c:	281a0000 	ldmdacs	sl, {}	; <UNPREDICTABLE>
    24a0:	29000001 	stmdbcs	r0, {r0}
    24a4:	1a000012 	bne	24f4 <_start-0x5b0c>
    24a8:	0000011d 	andeq	r0, r0, sp, lsl r1
    24ac:	0000123c 	andeq	r1, r0, ip, lsr r2
    24b0:	008e5c1d 	addeq	r5, lr, sp, lsl ip
    24b4:	00000400 	andeq	r0, r0, r0, lsl #8
    24b8:	01321e00 	teqeq	r2, r0, lsl #28
    24bc:	124f0000 	subne	r0, pc, #0
    24c0:	00000000 	andeq	r0, r0, r0
    24c4:	00011119 	andeq	r1, r1, r9, lsl r1
    24c8:	008e8000 	addeq	r8, lr, r0
    24cc:	00001000 	andeq	r1, r0, r0
    24d0:	76510100 	ldrbvc	r0, [r1], -r0, lsl #2
    24d4:	1a000009 	bne	2500 <_start-0x5b00>
    24d8:	00000128 	andeq	r0, r0, r8, lsr #2
    24dc:	00001262 	andeq	r1, r0, r2, ror #4
    24e0:	00011d1a 	andeq	r1, r1, sl, lsl sp
    24e4:	00127500 	andseq	r7, r2, r0, lsl #10
    24e8:	8e801d00 	cdphi	13, 8, cr1, cr0, cr0, {0}
    24ec:	00040000 	andeq	r0, r4, r0
    24f0:	321e0000 	andscc	r0, lr, #0
    24f4:	88000001 	stmdahi	r0, {r0}
    24f8:	00000012 	andeq	r0, r0, r2, lsl r0
    24fc:	01111900 	tsteq	r1, r0, lsl #18
    2500:	8ea40000 	cdphi	0, 10, cr0, cr4, cr0, {0}
    2504:	00100000 	andseq	r0, r0, r0
    2508:	54010000 	strpl	r0, [r1], #-0
    250c:	000009af 	andeq	r0, r0, pc, lsr #19
    2510:	0001281a 	andeq	r2, r1, sl, lsl r8
    2514:	00129b00 	andseq	r9, r2, r0, lsl #22
    2518:	011d1a00 	tsteq	sp, r0, lsl #20
    251c:	12ae0000 	adcne	r0, lr, #0
    2520:	a41d0000 	ldrge	r0, [sp], #-0
    2524:	0400008e 	streq	r0, [r0], #-142	; 0x8e
    2528:	1e000000 	cdpne	0, 0, cr0, cr0, cr0, {0}
    252c:	00000132 	andeq	r0, r0, r2, lsr r1
    2530:	000012c1 	andeq	r1, r0, r1, asr #5
    2534:	11190000 	tstne	r9, r0
    2538:	c8000001 	stmdagt	r0, {r0}
    253c:	1000008e 	andne	r0, r0, lr, lsl #1
    2540:	01000000 	mrseq	r0, (UNDEF: 0)
    2544:	0009e857 	andeq	lr, r9, r7, asr r8
    2548:	01281a00 	teqeq	r8, r0, lsl #20
    254c:	12d40000 	sbcsne	r0, r4, #0
    2550:	1d1a0000 	ldcne	0, cr0, [sl, #-0]
    2554:	e7000001 	str	r0, [r0, -r1]
    2558:	1d000012 	stcne	0, cr0, [r0, #-72]	; 0xffffffb8
    255c:	00008ec8 	andeq	r8, r0, r8, asr #29
    2560:	00000004 	andeq	r0, r0, r4
    2564:	0001321e 	andeq	r3, r1, lr, lsl r2
    2568:	0012fa00 	andseq	pc, r2, r0, lsl #20
    256c:	19000000 	stmdbne	r0, {}	; <UNPREDICTABLE>
    2570:	00000111 	andeq	r0, r0, r1, lsl r1
    2574:	00008eec 	andeq	r8, r0, ip, ror #29
    2578:	00000010 	andeq	r0, r0, r0, lsl r0
    257c:	0a1d5a01 	beq	758d88 <__bss_end__+0x74e6e8>
    2580:	281a0000 	ldmdacs	sl, {}	; <UNPREDICTABLE>
    2584:	0d000001 	stceq	0, cr0, [r0, #-4]
    2588:	27000013 	smladcs	r0, r3, r0, r0
    258c:	0000011d 	andeq	r0, r0, sp, lsl r1
    2590:	008eec1d 	addeq	lr, lr, sp, lsl ip
    2594:	00000400 	andeq	r0, r0, r0, lsl #8
    2598:	01321e00 	teqeq	r2, r0, lsl #28
    259c:	13200000 	teqne	r0, #0
    25a0:	00000000 	andeq	r0, r0, r0
    25a4:	00072819 	andeq	r2, r7, r9, lsl r8
    25a8:	008f0c00 	addeq	r0, pc, r0, lsl #24
    25ac:	00003400 	andeq	r3, r0, r0, lsl #8
    25b0:	81610100 	cmnhi	r1, r0, lsl #2
    25b4:	2700000a 	strcs	r0, [r0, -sl]
    25b8:	0000074b 	andeq	r0, r0, fp, asr #14
    25bc:	0007421a 	andeq	r4, r7, sl, lsl r2
    25c0:	00133300 	andseq	r3, r3, r0, lsl #6
    25c4:	07381a00 	ldreq	r1, [r8, -r0, lsl #20]!
    25c8:	13530000 	cmpne	r3, #0
    25cc:	0c1d0000 	ldceq	0, cr0, [sp], {-0}
    25d0:	3400008f 	strcc	r0, [r0], #-143	; 0x8f
    25d4:	1e000000 	cdpne	0, 0, cr0, cr0, cr0, {0}
    25d8:	00000756 	andeq	r0, r0, r6, asr r7
    25dc:	00001371 	andeq	r1, r0, r1, ror r3
    25e0:	008f1024 	addeq	r1, pc, r4, lsr #32
    25e4:	00116f00 	andseq	r6, r1, r0, lsl #30
    25e8:	8f1c2500 	svchi	0x001c2500
    25ec:	117a0000 	cmnne	sl, r0
    25f0:	0a760000 	beq	1d825f8 <__bss_end__+0x1d77f58>
    25f4:	01200000 	teqeq	r0, r0
    25f8:	00750250 	rsbseq	r0, r5, r0, asr r2
    25fc:	8f282400 	svchi	0x00282400
    2600:	116f0000 	cmnne	pc, r0
    2604:	00000000 	andeq	r0, r0, r0
    2608:	008e1025 	addeq	r1, lr, r5, lsr #32
    260c:	00117a00 	andseq	r7, r1, r0, lsl #20
    2610:	000a9500 	andeq	r9, sl, r0, lsl #10
    2614:	50012000 	andpl	r2, r1, r0
    2618:	00007502 	andeq	r7, r0, r2, lsl #10
    261c:	008e3025 	addeq	r3, lr, r5, lsr #32
    2620:	00117a00 	andseq	r7, r1, r0, lsl #20
    2624:	000aa900 	andeq	sl, sl, r0, lsl #18
    2628:	50012000 	andpl	r2, r1, r0
    262c:	00007502 	andeq	r7, r0, r2, lsl #10
    2630:	008e5425 	addeq	r5, lr, r5, lsr #8
    2634:	00117a00 	andseq	r7, r1, r0, lsl #20
    2638:	000abd00 	andeq	fp, sl, r0, lsl #26
    263c:	50012000 	andpl	r2, r1, r0
    2640:	00007502 	andeq	r7, r0, r2, lsl #10
    2644:	008e7825 	addeq	r7, lr, r5, lsr #16
    2648:	00117a00 	andseq	r7, r1, r0, lsl #20
    264c:	000ad100 	andeq	sp, sl, r0, lsl #2
    2650:	50012000 	andpl	r2, r1, r0
    2654:	00007502 	andeq	r7, r0, r2, lsl #10
    2658:	008e9c25 	addeq	r9, lr, r5, lsr #24
    265c:	00117a00 	andseq	r7, r1, r0, lsl #20
    2660:	000ae500 	andeq	lr, sl, r0, lsl #10
    2664:	50012000 	andpl	r2, r1, r0
    2668:	00007502 	andeq	r7, r0, r2, lsl #10
    266c:	008ec025 	addeq	ip, lr, r5, lsr #32
    2670:	00117a00 	andseq	r7, r1, r0, lsl #20
    2674:	000af900 	andeq	pc, sl, r0, lsl #18
    2678:	50012000 	andpl	r2, r1, r0
    267c:	00007502 	andeq	r7, r0, r2, lsl #10
    2680:	008ee425 	addeq	lr, lr, r5, lsr #8
    2684:	00117a00 	andseq	r7, r1, r0, lsl #20
    2688:	000b0d00 	andeq	r0, fp, r0, lsl #26
    268c:	50012000 	andpl	r2, r1, r0
    2690:	00007502 	andeq	r7, r0, r2, lsl #10
    2694:	008f041f 	addeq	r0, pc, pc, lsl r4	; <UNPREDICTABLE>
    2698:	00117a00 	andseq	r7, r1, r0, lsl #20
    269c:	50012000 	andpl	r2, r1, r0
    26a0:	00007502 	andeq	r7, r0, r2, lsl #10
    26a4:	07342300 	ldreq	r2, [r4, -r0, lsl #6]!
    26a8:	6c010000 	stcvs	0, cr0, [r1], {-0}
    26ac:	00000025 	andeq	r0, r0, r5, lsr #32
    26b0:	00008f60 	andeq	r8, r0, r0, ror #30
    26b4:	000000a4 	andeq	r0, r0, r4, lsr #1
    26b8:	0c0c9c01 	stceq	12, cr9, [ip], {1}
    26bc:	75140000 	ldrvc	r0, [r4, #-0]
    26c0:	226c0100 	rsbcs	r0, ip, #0, 2
    26c4:	8f000007 	svchi	0x00000007
    26c8:	14000013 	strne	r0, [r0], #-19
    26cc:	00667562 	rsbeq	r7, r6, r2, ror #10
    26d0:	0c0c6c01 	stceq	12, cr6, [ip], {1}
    26d4:	13d10000 	bicsne	r0, r1, #0
    26d8:	d0130000 	andsle	r0, r3, r0
    26dc:	01000007 	tsteq	r0, r7
    26e0:	0000686c 	andeq	r6, r0, ip, ror #16
    26e4:	00141300 	andseq	r1, r4, r0, lsl #6
    26e8:	6e651400 	cdpvs	4, 6, cr1, cr5, cr0, {0}
    26ec:	6c010064 	stcvs	0, cr0, [r1], {100}	; 0x64
    26f0:	0000004f 	andeq	r0, r0, pc, asr #32
    26f4:	0000145a 	andeq	r1, r0, sl, asr r4
    26f8:	0007e228 	andeq	lr, r7, r8, lsr #4
    26fc:	686c0100 	stmdavs	ip!, {r8}^
    2700:	02000000 	andeq	r0, r0, #0
    2704:	c4290091 	strtgt	r0, [r9], #-145	; 0x91
    2708:	22000000 	andcs	r0, r0, #0
    270c:	0500000c 	streq	r0, [r0, #-12]
    2710:	009d7003 	addseq	r7, sp, r3
    2714:	00691600 	rsbeq	r1, r9, r0, lsl #12
    2718:	00257001 	eoreq	r7, r5, r1
    271c:	14940000 	ldrne	r0, [r4], #0
    2720:	b3260000 	teqlt	r6, #0
    2724:	01000007 	tsteq	r0, r7
    2728:	00004f71 	andeq	r4, r0, r1, ror pc
    272c:	0014be00 	andseq	fp, r4, r0, lsl #28
    2730:	8f842400 	svchi	0x00842400
    2734:	118f0000 	orrne	r0, pc, r0
    2738:	a0250000 	eorge	r0, r5, r0
    273c:	9600008f 	strls	r0, [r0], -pc, lsl #1
    2740:	ec000011 	stc	0, cr0, [r0], {17}
    2744:	2000000b 	andcs	r0, r0, fp
    2748:	08025301 	stmdaeq	r2, {r0, r8, r9, ip, lr}
    274c:	5201206d 	andpl	r2, r1, #109	; 0x6d
    2750:	9d700305 	ldclls	3, cr0, [r0, #-20]!	; 0xffffffec
    2754:	01200000 	teqeq	r0, r0
    2758:	e8030551 	stmda	r3, {r0, r4, r6, r8, sl}
    275c:	2000009d 	mulcs	r0, sp, r0
    2760:	03055001 	movweq	r5, #20481	; 0x5001
    2764:	00009c70 	andeq	r9, r0, r0, ror ip
    2768:	007d0220 	rsbseq	r0, sp, r0, lsr #4
    276c:	9dfc0305 	ldclls	3, cr0, [ip, #20]!
    2770:	24000000 	strcs	r0, [r0], #-0
    2774:	00008fa4 	andeq	r8, r0, r4, lsr #31
    2778:	000011ac 	andeq	r1, r0, ip, lsr #3
    277c:	008fc01f 	addeq	ip, pc, pc, lsl r0	; <UNPREDICTABLE>
    2780:	00076200 	andeq	r6, r7, r0, lsl #4
    2784:	51012000 	mrspl	r2, (UNDEF: 1)
    2788:	20007a02 	andcs	r7, r0, r2, lsl #20
    278c:	78025001 	stmdavc	r2, {r0, ip, lr}
    2790:	06000000 	streq	r0, [r0], -r0
    2794:	00004f04 	andeq	r4, r0, r4, lsl #30
    2798:	00902a00 	addseq	r2, r0, r0, lsl #20
    279c:	0c220000 	stceq	0, cr0, [r2], #-0
    27a0:	812b0000 	teqhi	fp, r0
    27a4:	12000000 	andne	r0, r0, #0
    27a8:	0c120700 	ldceq	7, cr0, [r2], {-0}
    27ac:	bb230000 	bllt	8c27b4 <__bss_end__+0x8b8114>
    27b0:	01000007 	tsteq	r0, r7
    27b4:	00002580 	andeq	r2, r0, r0, lsl #11
    27b8:	00900400 	addseq	r0, r0, r0, lsl #8
    27bc:	00009000 	andeq	r9, r0, r0
    27c0:	f89c0100 			; <UNDEFINED> instruction: 0xf89c0100
    27c4:	1400000c 	strne	r0, [r0], #-12
    27c8:	80010075 	andhi	r0, r1, r5, ror r0
    27cc:	00000722 	andeq	r0, r0, r2, lsr #14
    27d0:	000014d1 	ldrdeq	r1, [r0], -r1	; <UNPREDICTABLE>
    27d4:	66756214 			; <UNDEFINED> instruction: 0x66756214
    27d8:	0c800100 	stfeqs	f0, [r0], {0}
    27dc:	1300000c 	movwne	r0, #12
    27e0:	13000015 	movwne	r0, #21
    27e4:	000007d0 	ldrdeq	r0, [r0], -r0	; <UNPREDICTABLE>
    27e8:	00688101 	rsbeq	r8, r8, r1, lsl #2
    27ec:	15550000 	ldrbne	r0, [r5, #-0]
    27f0:	e2130000 	ands	r0, r3, #0
    27f4:	01000007 	tsteq	r0, r7
    27f8:	00006881 	andeq	r6, r0, r1, lsl #17
    27fc:	00159c00 	andseq	r9, r5, r0, lsl #24
    2800:	00c42900 	sbceq	r2, r4, r0, lsl #18
    2804:	0d080000 	stceq	0, cr0, [r8, #-0]
    2808:	03050000 	movweq	r0, #20480	; 0x5000
    280c:	00009d84 	andeq	r9, r0, r4, lsl #27
    2810:	01006916 	tsteq	r0, r6, lsl r9
    2814:	00002586 	andeq	r2, r0, r6, lsl #11
    2818:	0015de00 	andseq	sp, r5, r0, lsl #28
    281c:	90242400 	eorls	r2, r4, r0, lsl #8
    2820:	118f0000 	orrne	r0, pc, r0
    2824:	40250000 	eormi	r0, r5, r0
    2828:	96000090 			; <UNDEFINED> instruction: 0x96000090
    282c:	d8000011 	stmdale	r0, {r0, r4}
    2830:	2000000c 	andcs	r0, r0, ip
    2834:	08025301 	stmdaeq	r2, {r0, r8, r9, ip, lr}
    2838:	52012083 	andpl	r2, r1, #131	; 0x83
    283c:	9d840305 	stcls	3, cr0, [r4, #20]
    2840:	01200000 	teqeq	r0, r0
    2844:	e8030551 	stmda	r3, {r0, r4, r6, r8, sl}
    2848:	2000009d 	mulcs	r0, sp, r0
    284c:	03055001 	movweq	r5, #20481	; 0x5001
    2850:	00009c70 	andeq	r9, r0, r0, ror ip
    2854:	007d0220 	rsbseq	r0, sp, r0, lsr #4
    2858:	9dfc0305 	ldclls	3, cr0, [ip, #20]!
    285c:	24000000 	strcs	r0, [r0], #-0
    2860:	00009044 	andeq	r9, r0, r4, asr #32
    2864:	000011ac 	andeq	r1, r0, ip, lsr #3
    2868:	0090601f 	addseq	r6, r0, pc, lsl r0
    286c:	00076200 	andeq	r6, r7, r0, lsl #4
    2870:	51012000 	mrspl	r2, (UNDEF: 1)
    2874:	20007802 	andcs	r7, r0, r2, lsl #16
    2878:	77025001 	strvc	r5, [r2, -r1]
    287c:	2a000000 	bcs	2884 <_start-0x577c>
    2880:	00000090 	muleq	r0, r0, r0
    2884:	00000d08 	andeq	r0, r0, r8, lsl #26
    2888:	0000812b 	andeq	r8, r0, fp, lsr #2
    288c:	07001400 	streq	r1, [r0, -r0, lsl #8]
    2890:	00000cf8 	strdeq	r0, [r0], -r8
    2894:	00076a23 	andeq	r6, r7, r3, lsr #20
    2898:	d9930100 	ldmible	r3, {r8}
    289c:	94000000 	strls	r0, [r0], #-0
    28a0:	d4000090 	strle	r0, [r0], #-144	; 0x90
    28a4:	01000000 	mrseq	r0, (UNDEF: 0)
    28a8:	000e329c 	muleq	lr, ip, r2
    28ac:	78741400 	ldmdavc	r4!, {sl, ip}^
    28b0:	4f930100 	svcmi	0x00930100
    28b4:	08000000 	stmdaeq	r0, {}	; <UNPREDICTABLE>
    28b8:	14000016 	strne	r0, [r0], #-22
    28bc:	01007872 	tsteq	r0, r2, ror r8
    28c0:	00004f93 	muleq	r0, r3, pc	; <UNPREDICTABLE>
    28c4:	00162900 	andseq	r2, r6, r0, lsl #18
    28c8:	05aa1300 	streq	r1, [sl, #768]!	; 0x300
    28cc:	93010000 	movwls	r0, #4096	; 0x1000
    28d0:	00000068 	andeq	r0, r0, r8, rrx
    28d4:	0000164a 	andeq	r1, r0, sl, asr #12
    28d8:	00070328 	andeq	r0, r7, r8, lsr #6
    28dc:	68930100 	ldmvs	r3, {r8}
    28e0:	02000000 	andeq	r0, r0, #0
    28e4:	6d2c0091 	stcvs	0, cr0, [ip, #-580]!	; 0xfffffdbc
    28e8:	01007a68 	tsteq	r0, r8, ror #20
    28ec:	00002c9b 	muleq	r0, fp, ip
    28f0:	b9270000 	stmdblt	r7!, {}	; <UNPREDICTABLE>
    28f4:	07542629 	ldrbeq	r2, [r4, -r9, lsr #12]
    28f8:	9c010000 	stcls	0, cr0, [r1], {-0}
    28fc:	0000002c 	andeq	r0, r0, ip, lsr #32
    2900:	00001674 	andeq	r1, r0, r4, ror r6
    2904:	0000c429 	andeq	ip, r0, r9, lsr #8
    2908:	000e4200 	andeq	r4, lr, r0, lsl #4
    290c:	9c030500 	cfstr32ls	mvfx0, [r3], {-0}
    2910:	1700009d 			; <UNDEFINED> instruction: 0x1700009d
    2914:	000090c0 	andeq	r9, r0, r0, asr #1
    2918:	00000008 	andeq	r0, r0, r8
    291c:	00000da5 	andeq	r0, r0, r5, lsr #27
    2920:	006e692d 	rsbeq	r6, lr, sp, lsr #18
    2924:	002c9701 	eoreq	r9, ip, r1, lsl #14
    2928:	00010000 	andeq	r0, r1, r0
    292c:	0090b825 	addseq	fp, r0, r5, lsr #16
    2930:	0011b300 	andseq	fp, r1, r0, lsl #6
    2934:	000db900 	andeq	fp, sp, r0, lsl #18
    2938:	50012000 	andpl	r2, r1, r0
    293c:	00007602 	andeq	r7, r0, r2, lsl #12
    2940:	0090c025 	addseq	ip, r0, r5, lsr #32
    2944:	0011c400 	andseq	ip, r1, r0, lsl #8
    2948:	000dcd00 	andeq	ip, sp, r0, lsl #26
    294c:	50012000 	andpl	r2, r1, r0
    2950:	00007802 	andeq	r7, r0, r2, lsl #16
    2954:	0090d425 	addseq	sp, r0, r5, lsr #8
    2958:	00115900 	andseq	r5, r1, r0, lsl #18
    295c:	000de600 	andeq	lr, sp, r0, lsl #12
    2960:	51012000 	mrspl	r2, (UNDEF: 1)
    2964:	01203101 	teqeq	r0, r1, lsl #2
    2968:	00760250 	rsbseq	r0, r6, r0, asr r2
    296c:	91182400 	tstls	r8, r0, lsl #8
    2970:	118f0000 	orrne	r0, pc, r0
    2974:	34250000 	strtcc	r0, [r5], #-0
    2978:	96000091 			; <UNDEFINED> instruction: 0x96000091
    297c:	28000011 	stmdacs	r0, {r0, r4}
    2980:	2000000e 	andcs	r0, r0, lr
    2984:	08025301 	stmdaeq	r2, {r0, r8, r9, ip, lr}
    2988:	5201209d 	andpl	r2, r1, #157	; 0x9d
    298c:	9d9c0305 	ldcls	3, cr0, [ip, #20]
    2990:	01200000 	teqeq	r0, r0
    2994:	e8030551 	stmda	r3, {r0, r4, r6, r8, sl}
    2998:	2000009d 	mulcs	r0, sp, r0
    299c:	03055001 	movweq	r5, #20481	; 0x5001
    29a0:	00009c70 	andeq	r9, r0, r0, ror ip
    29a4:	007d0220 	rsbseq	r0, sp, r0, lsr #4
    29a8:	9e080305 	cdpls	3, 0, cr0, cr8, cr5, {0}
    29ac:	24000000 	strcs	r0, [r0], #-0
    29b0:	00009138 	andeq	r9, r0, r8, lsr r1
    29b4:	000011ac 	andeq	r1, r0, ip, lsr #3
    29b8:	00902a00 	addseq	r2, r0, r0, lsl #20
    29bc:	0e420000 	cdpeq	0, 4, cr0, cr2, cr0, {0}
    29c0:	812b0000 	teqhi	fp, r0
    29c4:	13000000 	movwne	r0, #0
    29c8:	0e320700 	cdpeq	7, 3, cr0, cr2, cr0, {0}
    29cc:	47230000 	strmi	r0, [r3, -r0]!
    29d0:	01000007 	tsteq	r0, r7
    29d4:	000025a9 	andeq	r2, r0, r9, lsr #11
    29d8:	00916800 	addseq	r6, r1, r0, lsl #16
    29dc:	00003c00 	andeq	r3, r0, r0, lsl #24
    29e0:	ea9c0100 	b	fe702de8 <__bss_end__+0xfe6f8748>
    29e4:	1300000e 	movwne	r0, #14
    29e8:	00000571 	andeq	r0, r0, r1, ror r5
    29ec:	0722a901 	streq	sl, [r2, -r1, lsl #18]!
    29f0:	16a20000 	strtne	r0, [r2], r0
    29f4:	72160000 	andsvc	r0, r6, #0
    29f8:	01007365 	tsteq	r0, r5, ror #6
    29fc:	000025aa 	andeq	r2, r0, sl, lsr #11
    2a00:	0016c300 	andseq	ip, r6, r0, lsl #6
    2a04:	00c42900 	sbceq	r2, r4, r0, lsl #18
    2a08:	0efa0000 	cdpeq	0, 15, cr0, cr10, cr0, {0}
    2a0c:	03050000 	movweq	r0, #20480	; 0x5000
    2a10:	00009db0 			; <UNDEFINED> instruction: 0x00009db0
    2a14:	00917425 	addseq	r7, r1, r5, lsr #8
    2a18:	00076200 	andeq	r6, r7, r0, lsl #4
    2a1c:	000ea800 	andeq	sl, lr, r0, lsl #16
    2a20:	51012000 	mrspl	r2, (UNDEF: 1)
    2a24:	20ff0902 	rscscs	r0, pc, r2, lsl #18
    2a28:	f3035001 	vhadd.u8	d5, d3, d1
    2a2c:	24005001 	strcs	r5, [r0], #-1
    2a30:	00009180 	andeq	r9, r0, r0, lsl #3
    2a34:	0000118f 	andeq	r1, r0, pc, lsl #3
    2a38:	00919425 	addseq	r9, r1, r5, lsr #8
    2a3c:	00119600 	andseq	r9, r1, r0, lsl #12
    2a40:	000ee000 	andeq	lr, lr, r0
    2a44:	53012000 	movwpl	r2, #4096	; 0x1000
    2a48:	20ac0802 	adccs	r0, ip, r2, lsl #16
    2a4c:	03055201 	movweq	r5, #20993	; 0x5201
    2a50:	00009db0 			; <UNDEFINED> instruction: 0x00009db0
    2a54:	05510120 	ldrbeq	r0, [r1, #-288]	; 0x120
    2a58:	009de803 	addseq	lr, sp, r3, lsl #16
    2a5c:	50012000 	andpl	r2, r1, r0
    2a60:	9e3c0305 	cdpls	3, 3, cr0, cr12, cr5, {0}
    2a64:	24000000 	strcs	r0, [r0], #-0
    2a68:	00009198 	muleq	r0, r8, r1
    2a6c:	000011ac 	andeq	r1, r0, ip, lsr #3
    2a70:	00902a00 	addseq	r2, r0, r0, lsl #20
    2a74:	0efa0000 	cdpeq	0, 15, cr0, cr10, cr0, {0}
    2a78:	812b0000 	teqhi	fp, r0
    2a7c:	0c000000 	stceq	0, cr0, [r0], {-0}
    2a80:	0eea0700 	cdpeq	7, 14, cr0, cr10, cr0, {0}
    2a84:	8b120000 	blhi	482a8c <__bss_end__+0x4783ec>
    2a88:	01000007 	tsteq	r0, r7
    2a8c:	0091a4b0 			; <UNDEFINED> instruction: 0x0091a4b0
    2a90:	00002c00 	andeq	r2, r0, r0, lsl #24
    2a94:	439c0100 	orrsmi	r0, ip, #0, 2
    2a98:	1300000f 	movwne	r0, #15
    2a9c:	00000571 	andeq	r0, r0, r1, ror r5
    2aa0:	0722b001 	streq	fp, [r2, -r1]!
    2aa4:	16d60000 	ldrbne	r0, [r6], r0
    2aa8:	6d140000 	ldcvs	0, cr0, [r4, #-0]
    2aac:	01006773 	tsteq	r0, r3, ror r7
    2ab0:	000097b0 			; <UNDEFINED> instruction: 0x000097b0
    2ab4:	0016f400 	andseq	pc, r6, r0, lsl #8
    2ab8:	91bc1f00 			; <UNDEFINED> instruction: 0x91bc1f00
    2abc:	01760000 	cmneq	r6, r0
    2ac0:	01200000 	teqeq	r0, r0
    2ac4:	00750250 	rsbseq	r0, r5, r0, asr r2
    2ac8:	76230000 	strtvc	r0, [r3], -r0
    2acc:	01000005 	tsteq	r0, r5
    2ad0:	000025b9 			; <UNDEFINED> instruction: 0x000025b9
    2ad4:	0091d000 	addseq	sp, r1, r0
    2ad8:	00009000 	andeq	r9, r0, r0
    2adc:	419c0100 	orrsmi	r0, ip, r0, lsl #2
    2ae0:	13000010 	movwne	r0, #16
    2ae4:	00000571 	andeq	r0, r0, r1, ror r5
    2ae8:	0722b901 	streq	fp, [r2, -r1, lsl #18]!
    2aec:	17120000 	ldrne	r0, [r2, -r0]
    2af0:	662e0000 	strtvs	r0, [lr], -r0
    2af4:	0100746d 	tsteq	r0, sp, ror #8
    2af8:	000097b9 			; <UNDEFINED> instruction: 0x000097b9
    2afc:	74910200 	ldrvc	r0, [r1], #512	; 0x200
    2b00:	7562152f 	strbvc	r1, [r2, #-1327]!	; 0x52f
    2b04:	ba010066 	blt	42ca4 <__bss_end__+0x38604>
    2b08:	00001041 	andeq	r1, r0, r1, asr #32
    2b0c:	7c9c9103 	ldfvcd	f1, [ip], {3}
    2b10:	00044718 	andeq	r4, r4, r8, lsl r7
    2b14:	06bc0100 	ldrteq	r0, [ip], r0, lsl #2
    2b18:	03000001 	movweq	r0, #1
    2b1c:	167c9891 			; <UNDEFINED> instruction: 0x167c9891
    2b20:	01007a73 	tsteq	r0, r3, ror sl
    2b24:	000025be 			; <UNDEFINED> instruction: 0x000025be
    2b28:	00173e00 	andseq	r3, r7, r0, lsl #28
    2b2c:	00c42900 	sbceq	r2, r4, r0, lsl #18
    2b30:	10620000 	rsbne	r0, r2, r0
    2b34:	03050000 	movweq	r0, #20480	; 0x5000
    2b38:	00009dc0 	andeq	r9, r0, r0, asr #27
    2b3c:	0091f825 	addseq	pc, r1, r5, lsr #16
    2b40:	0011d500 	andseq	sp, r1, r0, lsl #10
    2b44:	000fde00 	andeq	sp, pc, r0, lsl #28
    2b48:	53012000 	movwpl	r2, #4096	; 0x1000
    2b4c:	20589102 	subscs	r9, r8, r2, lsl #2
    2b50:	91035201 	tstls	r3, r1, lsl #4
    2b54:	01200654 	teqeq	r0, r4, asr r6
    2b58:	cc0a0351 	stcgt	3, cr0, [sl], {81}	; 0x51
    2b5c:	50012001 	andpl	r2, r1, r1
    2b60:	7bfc9103 	blvc	fff26f74 <__bss_end__+0xfff1c8d4>
    2b64:	920c2400 	andls	r2, ip, #0, 8
    2b68:	118f0000 	orrne	r0, pc, r0
    2b6c:	28250000 	stmdacs	r5!, {}	; <UNPREDICTABLE>
    2b70:	96000092 			; <UNDEFINED> instruction: 0x96000092
    2b74:	20000011 	andcs	r0, r0, r1, lsl r0
    2b78:	20000010 	andcs	r0, r0, r0, lsl r0
    2b7c:	08025301 	stmdaeq	r2, {r0, r8, r9, ip, lr}
    2b80:	520120c0 	andpl	r2, r1, #192	; 0xc0
    2b84:	9dc00305 	stclls	3, cr0, [r0, #20]
    2b88:	01200000 	teqeq	r0, r0
    2b8c:	e8030551 	stmda	r3, {r0, r4, r6, r8, sl}
    2b90:	2000009d 	mulcs	r0, sp, r0
    2b94:	03055001 	movweq	r5, #20481	; 0x5001
    2b98:	00009c70 	andeq	r9, r0, r0, ror ip
    2b9c:	007d0220 	rsbseq	r0, sp, r0, lsr #4
    2ba0:	9e740305 	cdpls	3, 7, cr0, cr4, cr5, {0}
    2ba4:	24000000 	strcs	r0, [r0], #-0
    2ba8:	0000922c 	andeq	r9, r0, ip, lsr #4
    2bac:	000011ac 	andeq	r1, r0, ip, lsr #3
    2bb0:	0092381f 	addseq	r3, r2, pc, lsl r8
    2bb4:	000eff00 	andeq	pc, lr, r0, lsl #30
    2bb8:	51012000 	mrspl	r2, (UNDEF: 1)
    2bbc:	7bfc9103 	blvc	fff26fd0 <__bss_end__+0xfff1c930>
    2bc0:	02500120 	subseq	r0, r0, #32, 2
    2bc4:	00000075 	andeq	r0, r0, r5, ror r0
    2bc8:	0000902a 	andeq	r9, r0, sl, lsr #32
    2bcc:	00105200 	andseq	r5, r0, r0, lsl #4
    2bd0:	00813000 	addeq	r3, r1, r0
    2bd4:	01cb0000 	biceq	r0, fp, r0
    2bd8:	00902a00 	addseq	r2, r0, r0, lsl #20
    2bdc:	10620000 	rsbne	r0, r2, r0
    2be0:	812b0000 	teqhi	fp, r0
    2be4:	0e000000 	cdpeq	0, 0, cr0, cr0, cr0, {0}
    2be8:	10520700 	subsne	r0, r2, r0, lsl #14
    2bec:	fe230000 	cdp2	0, 2, cr0, cr3, cr0, {0}
    2bf0:	01000007 	tsteq	r0, r7
    2bf4:	000025c5 	andeq	r2, r0, r5, asr #11
    2bf8:	00926000 	addseq	r6, r2, r0
    2bfc:	00004c00 	andeq	r4, r0, r0, lsl #24
    2c00:	449c0100 	ldrmi	r0, [ip], #256	; 0x100
    2c04:	14000011 	strne	r0, [r0], #-17
    2c08:	c5010075 	strgt	r0, [r1, #-117]	; 0x75
    2c0c:	00000722 	andeq	r0, r0, r2, lsr #14
    2c10:	0000177d 	andeq	r1, r0, sp, ror r7
    2c14:	66756214 			; <UNDEFINED> instruction: 0x66756214
    2c18:	0cc50100 	stfeqe	f0, [r5], {0}
    2c1c:	9e00000c 	cdpls	0, 0, cr0, cr0, cr12, {0}
    2c20:	13000017 	movwne	r0, #23
    2c24:	000007d0 	ldrdeq	r0, [r0], -r0	; <UNPREDICTABLE>
    2c28:	0068c501 	rsbeq	ip, r8, r1, lsl #10
    2c2c:	17bf0000 	ldrne	r0, [pc, r0]!
    2c30:	65140000 	ldrvs	r0, [r4, #-0]
    2c34:	0100646e 	tsteq	r0, lr, ror #8
    2c38:	00004fc5 	andeq	r4, r0, r5, asr #31
    2c3c:	0017e000 	andseq	lr, r7, r0
    2c40:	65721600 	ldrbvs	r1, [r2, #-1536]!	; 0x600
    2c44:	c6010073 			; <UNDEFINED> instruction: 0xc6010073
    2c48:	00000025 	andeq	r0, r0, r5, lsr #32
    2c4c:	00001801 	andeq	r1, r0, r1, lsl #16
    2c50:	0000c429 	andeq	ip, r0, r9, lsr #8
    2c54:	00115400 	andseq	r5, r1, r0, lsl #8
    2c58:	d0030500 	andle	r0, r3, r0, lsl #10
    2c5c:	2500009d 	strcs	r0, [r0, #-157]	; 0x9d
    2c60:	00009274 	andeq	r9, r0, r4, ror r2
    2c64:	00000b1e 	andeq	r0, r0, lr, lsl fp
    2c68:	00001102 	andeq	r1, r0, r2, lsl #2
    2c6c:	03520120 	cmpeq	r2, #32, 2
    2c70:	205201f3 	ldrshcs	r0, [r2], #-19	; 0xffffffed
    2c74:	f3035101 	vrhadd.u8	d5, d3, d1
    2c78:	01205101 	teqeq	r0, r1, lsl #2
    2c7c:	01f30350 	mvnseq	r0, r0, asr r3
    2c80:	7d022050 	stcvc	0, cr2, [r2, #-320]	; 0xfffffec0
    2c84:	ff090200 			; <UNDEFINED> instruction: 0xff090200
    2c88:	92802400 	addls	r2, r0, #0, 8
    2c8c:	118f0000 	orrne	r0, pc, r0
    2c90:	94250000 	strtls	r0, [r5], #-0
    2c94:	96000092 			; <UNDEFINED> instruction: 0x96000092
    2c98:	3a000011 	bcc	2ce4 <_start-0x531c>
    2c9c:	20000011 	andcs	r0, r0, r1, lsl r0
    2ca0:	08025301 	stmdaeq	r2, {r0, r8, r9, ip, lr}
    2ca4:	520120c8 	andpl	r2, r1, #200	; 0xc8
    2ca8:	9dd00305 	ldclls	3, cr0, [r0, #20]
    2cac:	01200000 	teqeq	r0, r0
    2cb0:	e8030551 	stmda	r3, {r0, r4, r6, r8, sl}
    2cb4:	2000009d 	mulcs	r0, sp, r0
    2cb8:	03055001 	movweq	r5, #20481	; 0x5001
    2cbc:	00009e3c 	andeq	r9, r0, ip, lsr lr
    2cc0:	92982400 	addsls	r2, r8, #0, 8
    2cc4:	11ac0000 			; <UNDEFINED> instruction: 0x11ac0000
    2cc8:	2a000000 	bcs	2cd0 <_start-0x5330>
    2ccc:	00000090 	muleq	r0, r0, r0
    2cd0:	00001154 	andeq	r1, r0, r4, asr r1
    2cd4:	0000812b 	andeq	r8, r0, fp, lsr #2
    2cd8:	07001600 	streq	r1, [r0, -r0, lsl #12]
    2cdc:	00001144 	andeq	r1, r0, r4, asr #2
    2ce0:	0007d731 	andeq	sp, r7, r1, lsr r7
    2ce4:	6f210600 	svcvs	0x00210600
    2ce8:	32000011 	andcc	r0, r0, #17
    2cec:	0000002c 	andeq	r0, r0, ip, lsr #32
    2cf0:	00002c32 	andeq	r2, r0, r2, lsr ip
    2cf4:	a2330000 	eorsge	r0, r3, #0
    2cf8:	07000006 	streq	r0, [r0, -r6]
    2cfc:	00002c57 	andeq	r2, r0, r7, asr ip
    2d00:	07983400 	ldreq	r3, [r8, r0, lsl #8]
    2d04:	24060000 	strcs	r0, [r6], #-0
    2d08:	00000025 	andeq	r0, r0, r5, lsr #32
    2d0c:	0000118f 	andeq	r1, r0, pc, lsl #3
    2d10:	00002c32 	andeq	r2, r0, r2, lsr ip
    2d14:	0e350000 	cdpeq	0, 3, cr0, cr5, cr0, {0}
    2d18:	07000002 	streq	r0, [r0, -r2]
    2d1c:	03f2341e 	mvnseq	r3, #503316480	; 0x1e000000
    2d20:	29070000 	stmdbcs	r7, {}	; <UNPREDICTABLE>
    2d24:	00000025 	andeq	r0, r0, r5, lsr #32
    2d28:	000011ac 	andeq	r1, r0, ip, lsr #3
    2d2c:	00009732 	andeq	r9, r0, r2, lsr r7
    2d30:	35002f00 	strcc	r2, [r0, #-3840]	; 0xf00
    2d34:	0000014f 	andeq	r0, r0, pc, asr #2
    2d38:	15316607 	ldrne	r6, [r1, #-1543]!	; 0x607
    2d3c:	06000008 	streq	r0, [r0], -r8
    2d40:	0011c41d 	andseq	ip, r1, sp, lsl r4
    2d44:	002c3200 	eoreq	r3, ip, r0, lsl #4
    2d48:	31000000 	mrscc	r0, (UNDEF: 0)
    2d4c:	000007ef 	andeq	r0, r0, pc, ror #15
    2d50:	11d51c06 	bicsne	r1, r5, r6, lsl #24
    2d54:	2c320000 	ldccs	0, cr0, [r2], #-0
    2d58:	00000000 	andeq	r0, r0, r0
    2d5c:	0003ef36 	andeq	lr, r3, r6, lsr pc
    2d60:	25020800 	strcs	r0, [r2, #-2048]	; 0x800
    2d64:	32000000 	andcc	r0, r0, #0
    2d68:	0000008a 	andeq	r0, r0, sl, lsl #1
    2d6c:	00002532 	andeq	r2, r0, r2, lsr r5
    2d70:	00973200 	addseq	r3, r7, r0, lsl #4
    2d74:	06320000 	ldrteq	r0, [r2], -r0
    2d78:	00000001 	andeq	r0, r0, r1
    2d7c:	0003ff00 	andeq	pc, r3, r0, lsl #30
    2d80:	e7000400 	str	r0, [r0, -r0, lsl #8]
    2d84:	0400000d 	streq	r0, [r0], #-13
    2d88:	00023b01 	andeq	r3, r2, r1, lsl #22
    2d8c:	09a10100 	stmibeq	r1!, {r8}
    2d90:	04030000 	streq	r0, [r3], #-0
    2d94:	92ac0000 	adcls	r0, ip, #0
    2d98:	01540000 	cmpeq	r4, r0
    2d9c:	0c3f0000 	ldceq	0, cr0, [pc], #-0	; 2da4 <_start-0x525c>
    2da0:	04020000 	streq	r0, [r2], #-0
    2da4:	746e6905 	strbtvc	r6, [lr], #-2309	; 0x905
    2da8:	07040300 	streq	r0, [r4, -r0, lsl #6]
    2dac:	00000032 	andeq	r0, r0, r2, lsr r0
    2db0:	ed060103 	stfs	f0, [r6, #-12]
    2db4:	03000001 	movweq	r0, #1
    2db8:	01f90502 	mvnseq	r0, r2, lsl #10
    2dbc:	04030000 	streq	r0, [r3], #-0
    2dc0:	00005605 	andeq	r5, r0, r5, lsl #12
    2dc4:	05080300 	streq	r0, [r8, #-768]	; 0x300
    2dc8:	00000051 	andeq	r0, r0, r1, asr r0
    2dcc:	eb080103 	bl	2031e0 <__bss_end__+0x1f8b40>
    2dd0:	03000001 	movweq	r0, #1
    2dd4:	00ed0702 	rsceq	r0, sp, r2, lsl #14
    2dd8:	04030000 	streq	r0, [r3], #-0
    2ddc:	00002d07 	andeq	r2, r0, r7, lsl #26
    2de0:	07080300 	streq	r0, [r8, -r0, lsl #6]
    2de4:	00000028 	andeq	r0, r0, r8, lsr #32
    2de8:	5c070403 	cfstrspl	mvf0, [r7], {3}
    2dec:	03000001 	movweq	r0, #1
    2df0:	01f40801 	mvnseq	r0, r1, lsl #16
    2df4:	01040000 	mrseq	r0, (UNDEF: 4)
    2df8:	00b20c02 	adcseq	r0, r2, r2, lsl #24
    2dfc:	be050000 	cdplt	0, 0, cr0, cr5, cr0, {0}
    2e00:	00000009 	andeq	r0, r0, r9
    2e04:	0008a805 	andeq	sl, r8, r5, lsl #16
    2e08:	61050100 	mrsvs	r0, (UNDEF: 21)
    2e0c:	04000008 	streq	r0, [r0], #-8
    2e10:	0008c305 	andeq	ip, r8, r5, lsl #6
    2e14:	d2050500 	andle	r0, r5, #0, 10
    2e18:	06000008 	streq	r0, [r0], -r8
    2e1c:	0008e105 	andeq	lr, r8, r5, lsl #2
    2e20:	71050700 	tstvc	r5, r0, lsl #14
    2e24:	03000009 	movweq	r0, #9
    2e28:	0008f005 	andeq	pc, r8, r5
    2e2c:	06000200 	streq	r0, [r0], -r0, lsl #4
    2e30:	00000923 	andeq	r0, r0, r3, lsr #18
    2e34:	00791502 	rsbseq	r1, r9, r2, lsl #10
    2e38:	b9070000 	stmdblt	r7, {}	; <UNPREDICTABLE>
    2e3c:	01000008 	tsteq	r0, r8
    2e40:	0092ac37 	addseq	sl, r2, r7, lsr ip
    2e44:	00009c00 	andeq	r9, r0, r0, lsl #24
    2e48:	c39c0100 	orrsgt	r0, ip, #0, 2
    2e4c:	08000001 	stmdaeq	r0, {r0}
    2e50:	000092b4 			; <UNDEFINED> instruction: 0x000092b4
    2e54:	000003a8 	andeq	r0, r0, r8, lsr #7
    2e58:	0092c009 	addseq	ip, r2, r9
    2e5c:	0003af00 	andeq	sl, r3, r0, lsl #30
    2e60:	0000f300 	andeq	pc, r0, r0, lsl #6
    2e64:	51010a00 	tstpl	r1, r0, lsl #20
    2e68:	010a3201 	tsteq	sl, r1, lsl #4
    2e6c:	003e0150 	eorseq	r0, lr, r0, asr r1
    2e70:	0092cc09 	addseq	ip, r2, r9, lsl #24
    2e74:	0003af00 	andeq	sl, r3, r0, lsl #30
    2e78:	00010b00 	andeq	r0, r1, r0, lsl #22
    2e7c:	51010a00 	tstpl	r1, r0, lsl #20
    2e80:	010a3201 	tsteq	sl, r1, lsl #4
    2e84:	003f0150 	eorseq	r0, pc, r0, asr r1	; <UNPREDICTABLE>
    2e88:	0092d008 	addseq	sp, r2, r8
    2e8c:	0003a800 	andeq	sl, r3, r0, lsl #16
    2e90:	92e00900 	rscls	r0, r0, #0, 18
    2e94:	03c50000 	biceq	r0, r5, #0
    2e98:	01280000 	teqeq	r8, r0
    2e9c:	010a0000 	mrseq	r0, (UNDEF: 10)
    2ea0:	00750250 	rsbseq	r0, r5, r0, asr r2
    2ea4:	92ec0900 	rscls	r0, ip, #0, 18
    2ea8:	03e60000 	mvneq	r0, #0
    2eac:	013c0000 	teqeq	ip, r0
    2eb0:	010a0000 	mrseq	r0, (UNDEF: 10)
    2eb4:	00750250 	rsbseq	r0, r5, r0, asr r2
    2eb8:	92f00800 	rscsls	r0, r0, #0, 16
    2ebc:	03a80000 			; <UNDEFINED> instruction: 0x03a80000
    2ec0:	fc090000 	stc2	0, cr0, [r9], {-0}
    2ec4:	e6000092 			; <UNDEFINED> instruction: 0xe6000092
    2ec8:	58000003 	stmdapl	r0, {r0, r1}
    2ecc:	0a000001 	beq	2ed8 <_start-0x5128>
    2ed0:	30015101 	andcc	r5, r1, r1, lsl #2
    2ed4:	93080900 	movwls	r0, #35072	; 0x8900
    2ed8:	03e60000 	mvneq	r0, #0
    2edc:	016b0000 	cmneq	fp, r0
    2ee0:	010a0000 	mrseq	r0, (UNDEF: 10)
    2ee4:	00300151 	eorseq	r0, r0, r1, asr r1
    2ee8:	00931409 	addseq	r1, r3, r9, lsl #8
    2eec:	0003e600 	andeq	lr, r3, r0, lsl #12
    2ef0:	00017e00 	andeq	r7, r1, r0, lsl #28
    2ef4:	51010a00 	tstpl	r1, r0, lsl #20
    2ef8:	09003601 	stmdbeq	r0, {r0, r9, sl, ip, sp}
    2efc:	00009320 	andeq	r9, r0, r0, lsr #6
    2f00:	000003e6 	andeq	r0, r0, r6, ror #7
    2f04:	00000191 	muleq	r0, r1, r1
    2f08:	0151010a 	cmpeq	r1, sl, lsl #2
    2f0c:	2c090033 	stccs	0, cr0, [r9], {51}	; 0x33
    2f10:	e6000093 			; <UNDEFINED> instruction: 0xe6000093
    2f14:	a6000003 	strge	r0, [r0], -r3
    2f18:	0a000001 	beq	2f24 <_start-0x50dc>
    2f1c:	0a035101 	beq	d7328 <__bss_end__+0xccc88>
    2f20:	0900010e 	stmdbeq	r0, {r1, r2, r3, r8}
    2f24:	00009338 	andeq	r9, r0, r8, lsr r3
    2f28:	000003e6 	andeq	r0, r0, r6, ror #7
    2f2c:	000001b9 			; <UNDEFINED> instruction: 0x000001b9
    2f30:	0151010a 	cmpeq	r1, sl, lsl #2
    2f34:	3c080033 	stccc	0, cr0, [r8], {51}	; 0x33
    2f38:	a8000093 	stmdage	r0, {r0, r1, r4, r7}
    2f3c:	00000003 	andeq	r0, r0, r3
    2f40:	0008700b 	andeq	r7, r8, fp
    2f44:	25570100 	ldrbcs	r0, [r7, #-256]	; 0x100
    2f48:	48000000 	stmdami	r0, {}	; <UNPREDICTABLE>
    2f4c:	1c000093 	stcne	0, cr0, [r0], {147}	; 0x93
    2f50:	01000000 	mrseq	r0, (UNDEF: 0)
    2f54:	0001e69c 	muleq	r1, ip, r6
    2f58:	93580800 	cmpls	r8, #0, 16
    2f5c:	03c50000 	biceq	r0, r5, #0
    2f60:	0b000000 	bleq	2f68 <_start-0x5098>
    2f64:	0000074a 	andeq	r0, r0, sl, asr #14
    2f68:	00255d01 	eoreq	r5, r5, r1, lsl #26
    2f6c:	93640000 	cmnls	r4, #0
    2f70:	00280000 	eoreq	r0, r8, r0
    2f74:	9c010000 	stcls	0, cr0, [r1], {-0}
    2f78:	00000212 	andeq	r0, r0, r2, lsl r2
    2f7c:	00936c08 	addseq	r6, r3, r8, lsl #24
    2f80:	0001c300 	andeq	ip, r1, r0, lsl #6
    2f84:	93800800 	orrls	r0, r0, #0, 16
    2f88:	03c50000 	biceq	r0, r5, #0
    2f8c:	0b000000 	bleq	2f94 <_start-0x506c>
    2f90:	0000092f 	andeq	r0, r0, pc, lsr #18
    2f94:	00256401 	eoreq	r6, r5, r1, lsl #8
    2f98:	938c0000 	orrls	r0, ip, #0
    2f9c:	001c0000 	andseq	r0, ip, r0
    2fa0:	9c010000 	stcls	0, cr0, [r1], {-0}
    2fa4:	00000235 	andeq	r0, r0, r5, lsr r2
    2fa8:	00939c08 	addseq	r9, r3, r8, lsl #24
    2fac:	0003c500 	andeq	ip, r3, r0, lsl #10
    2fb0:	d2070000 	andle	r0, r7, #0
    2fb4:	01000005 	tsteq	r0, r5
    2fb8:	0093a86a 	addseq	sl, r3, sl, ror #16
    2fbc:	00002c00 	andeq	r2, r0, r0, lsl #24
    2fc0:	719c0100 	orrsvc	r0, ip, r0, lsl #2
    2fc4:	0c000002 	stceq	0, cr0, [r0], {2}
    2fc8:	6a010063 	bvs	4315c <__bss_end__+0x38abc>
    2fcc:	0000002c 	andeq	r0, r0, ip, lsr #32
    2fd0:	0000181f 	andeq	r1, r0, pc, lsl r8
    2fd4:	0093b408 	addseq	fp, r3, r8, lsl #8
    2fd8:	00021200 	andeq	r1, r2, r0, lsl #4
    2fdc:	93cc0d00 	bicls	r0, ip, #0, 26
    2fe0:	03e60000 	mvneq	r0, #0
    2fe4:	010a0000 	mrseq	r0, (UNDEF: 10)
    2fe8:	00740251 	rsbseq	r0, r4, r1, asr r2
    2fec:	8e0b0000 	cdphi	0, 0, cr0, cr11, cr0, {0}
    2ff0:	01000008 	tsteq	r0, r8
    2ff4:	00002574 	andeq	r2, r0, r4, ror r5
    2ff8:	0093d400 	addseq	sp, r3, r0, lsl #8
    2ffc:	00000c00 	andeq	r0, r0, r0, lsl #24
    3000:	949c0100 	ldrls	r0, [ip], #256	; 0x100
    3004:	08000002 	stmdaeq	r0, {r1}
    3008:	000093dc 	ldrdeq	r9, [r0], -ip
    300c:	000001c3 	andeq	r0, r0, r3, asr #3
    3010:	09dd0b00 	ldmibeq	sp, {r8, r9, fp}^
    3014:	78010000 	stmdavc	r1, {}	; <UNPREDICTABLE>
    3018:	00000025 	andeq	r0, r0, r5, lsr #32
    301c:	000093e0 	andeq	r9, r0, r0, ror #7
    3020:	00000020 	andeq	r0, r0, r0, lsr #32
    3024:	02c09c01 	sbceq	r9, r0, #256	; 0x100
    3028:	e8080000 	stmda	r8, {}	; <UNPREDICTABLE>
    302c:	71000093 	swpvc	r0, r3, [r0]	; <UNPREDICTABLE>
    3030:	08000002 	stmdaeq	r0, {r1}
    3034:	000093f4 	strdeq	r9, [r0], -r4
    3038:	000001e6 	andeq	r0, r0, r6, ror #3
    303c:	09490e00 	stmdbeq	r9, {r9, sl, fp}^
    3040:	16010000 	strne	r0, [r1], -r0
    3044:	000002d1 	ldrdeq	r0, [r0], -r1
    3048:	9a740305 	bls	1d03c64 <__bss_end__+0x1cf95c4>
    304c:	040f0000 	streq	r0, [pc], #-0	; 3054 <_start-0x4fac>
    3050:	000002d7 	ldrdeq	r0, [r0], -r7
    3054:	00002c10 	andeq	r2, r0, r0, lsl ip
    3058:	093d0e00 	ldmdbeq	sp!, {r9, sl, fp}
    305c:	17010000 	strne	r0, [r1, -r0]
    3060:	000002d1 	ldrdeq	r0, [r0], -r1
    3064:	9a440305 	bls	1103c80 <__bss_end__+0x10f95e0>
    3068:	440e0000 	strmi	r0, [lr], #-0
    306c:	01000008 	tsteq	r0, r8
    3070:	0002d11a 	andeq	sp, r2, sl, lsl r1
    3074:	60030500 	andvs	r0, r3, r0, lsl #10
    3078:	0e00009a 	mcreq	0, 0, r0, cr0, cr10, {4}
    307c:	000008ff 	strdeq	r0, [r0], -pc	; <UNPREDICTABLE>
    3080:	02d11b01 	sbcseq	r1, r1, #1024	; 0x400
    3084:	03050000 	movweq	r0, #20480	; 0x5000
    3088:	00009a4c 	andeq	r9, r0, ip, asr #20
    308c:	0009140e 	andeq	r1, r9, lr, lsl #8
    3090:	d11c0100 	tstle	ip, r0, lsl #2
    3094:	05000002 	streq	r0, [r0, #-2]
    3098:	009a5003 	addseq	r5, sl, r3
    309c:	09af0e00 	stmibeq	pc!, {r9, sl, fp}	; <UNPREDICTABLE>
    30a0:	1d010000 	stcne	0, cr0, [r1, #-0]
    30a4:	000002d1 	ldrdeq	r0, [r0], -r1
    30a8:	9a540305 	bls	1503cc4 <__bss_end__+0x14f9624>
    30ac:	350e0000 	strcc	r0, [lr, #-0]
    30b0:	01000008 	tsteq	r0, r8
    30b4:	0002d11e 	andeq	sp, r2, lr, lsl r1
    30b8:	70030500 	andvc	r0, r3, r0, lsl #10
    30bc:	0e00009a 	mcreq	0, 0, r0, cr0, cr10, {4}
    30c0:	000009ce 	andeq	r0, r0, lr, asr #19
    30c4:	02d11f01 	sbcseq	r1, r1, #1, 30
    30c8:	03050000 	movweq	r0, #20480	; 0x5000
    30cc:	00009a5c 	andeq	r9, r0, ip, asr sl
    30d0:	0008520e 	andeq	r5, r8, lr, lsl #4
    30d4:	d1200100 	teqle	r0, r0, lsl #2
    30d8:	05000002 	streq	r0, [r0, #-2]
    30dc:	009a6c03 	addseq	r6, sl, r3, lsl #24
    30e0:	09920e00 	ldmibeq	r2, {r9, sl, fp}
    30e4:	21010000 	mrscs	r0, (UNDEF: 1)
    30e8:	000002d1 	ldrdeq	r0, [r0], -r1
    30ec:	9a680305 	bls	1a03d08 <__bss_end__+0x19f9668>
    30f0:	7e0e0000 	cdpvc	0, 0, cr0, cr14, cr0, {0}
    30f4:	01000008 	tsteq	r0, r8
    30f8:	0002d122 	andeq	sp, r2, r2, lsr #2
    30fc:	48030500 	stmdami	r3, {r8, sl}
    3100:	0e00009a 	mcreq	0, 0, r0, cr0, cr10, {4}
    3104:	00000961 	andeq	r0, r0, r1, ror #18
    3108:	02d12301 	sbcseq	r2, r1, #67108864	; 0x4000000
    310c:	03050000 	movweq	r0, #20480	; 0x5000
    3110:	00009a64 	andeq	r9, r0, r4, ror #20
    3114:	0009510e 	andeq	r5, r9, lr, lsl #2
    3118:	d1240100 	teqle	r4, r0, lsl #2
    311c:	05000002 	streq	r0, [r0, #-2]
    3120:	009a5803 	addseq	r5, sl, r3, lsl #16
    3124:	089c1100 	ldmeq	ip, {r8, ip}
    3128:	8a030000 	bhi	c3130 <__bss_end__+0xb8a90>
    312c:	00098012 	andeq	r8, r9, r2, lsl r0
    3130:	c5190200 	ldrgt	r0, [r9, #-512]	; 0x200
    3134:	13000003 	movwne	r0, #3
    3138:	0000002c 	andeq	r0, r0, ip, lsr #32
    313c:	0000b213 	andeq	fp, r0, r3, lsl r2
    3140:	ed140000 	ldc	0, cr0, [r4, #-0]
    3144:	03000009 	movweq	r0, #9
    3148:	00002ca9 	andeq	r2, r0, r9, lsr #25
    314c:	0003da00 	andeq	sp, r3, r0, lsl #20
    3150:	03da1300 	bicseq	r1, sl, #0, 6
    3154:	0f000000 	svceq	0x00000000
    3158:	0003e004 	andeq	lr, r3, r4
    315c:	03e51500 	mvneq	r1, #0, 10
    3160:	12160000 	andsne	r0, r6, #0
    3164:	0000090e 	andeq	r0, r0, lr, lsl #18
    3168:	03fc9d03 	mvnseq	r9, #3, 26	; 0xc0
    316c:	fc130000 	ldc2	0, cr0, [r3], {-0}
    3170:	13000003 	movwne	r0, #3
    3174:	0000002c 	andeq	r0, r0, ip, lsr #32
    3178:	e5040f00 	str	r0, [r4, #-3840]	; 0xf00
    317c:	00000003 	andeq	r0, r0, r3
    3180:	00000821 	andeq	r0, r0, r1, lsr #16
    3184:	0f150004 	svceq	0x00150004
    3188:	01040000 	mrseq	r0, (UNDEF: 4)
    318c:	0000023b 	andeq	r0, r0, fp, lsr r2
    3190:	000a3d01 	andeq	r3, sl, r1, lsl #26
    3194:	00040300 	andeq	r0, r4, r0, lsl #6
    3198:	00946400 	addseq	r6, r4, r0, lsl #8
    319c:	00056800 	andeq	r6, r5, r0, lsl #16
    31a0:	000d4400 	andeq	r4, sp, r0, lsl #8
    31a4:	07080200 	streq	r0, [r8, -r0, lsl #4]
    31a8:	00000028 	andeq	r0, r0, r8, lsr #32
    31ac:	32070402 	andcc	r0, r7, #33554432	; 0x2000000
    31b0:	02000000 	andeq	r0, r0, #0
    31b4:	01ed0601 	mvneq	r0, r1, lsl #12
    31b8:	02020000 	andeq	r0, r2, #0
    31bc:	0001f905 	andeq	pc, r1, r5, lsl #18
    31c0:	05040200 	streq	r0, [r4, #-512]	; 0x200
    31c4:	00000056 	andeq	r0, r0, r6, asr r0
    31c8:	51050802 	tstpl	r5, r2, lsl #16
    31cc:	02000000 	andeq	r0, r0, #0
    31d0:	01eb0801 	mvneq	r0, r1, lsl #16
    31d4:	02020000 	andeq	r0, r2, #0
    31d8:	0000ed07 	andeq	lr, r0, r7, lsl #26
    31dc:	07040200 	streq	r0, [r4, -r0, lsl #4]
    31e0:	0000002d 	andeq	r0, r0, sp, lsr #32
    31e4:	69050403 	stmdbvs	r5, {r0, r1, sl}
    31e8:	0200746e 	andeq	r7, r0, #1845493760	; 0x6e000000
    31ec:	015c0704 	cmpeq	ip, r4, lsl #14
    31f0:	01020000 	mrseq	r0, (UNDEF: 2)
    31f4:	0001f408 	andeq	pc, r1, r8, lsl #8
    31f8:	02010400 	andeq	r0, r1, #0, 8
    31fc:	0000b20c 	andeq	fp, r0, ip, lsl #4
    3200:	09be0500 	ldmibeq	lr!, {r8, sl}
    3204:	05000000 	streq	r0, [r0, #-0]
    3208:	000008a8 	andeq	r0, r0, r8, lsr #17
    320c:	08610501 	stmdaeq	r1!, {r0, r8, sl}^
    3210:	05040000 	streq	r0, [r4, #-0]
    3214:	000008c3 	andeq	r0, r0, r3, asr #17
    3218:	08d20505 	ldmeq	r2, {r0, r2, r8, sl}^
    321c:	05060000 	streq	r0, [r6, #-0]
    3220:	000008e1 	andeq	r0, r0, r1, ror #17
    3224:	09710507 	ldmdbeq	r1!, {r0, r1, r2, r8, sl}^
    3228:	05030000 	streq	r0, [r3, #-0]
    322c:	000008f0 	strdeq	r0, [r0], -r0	; <UNPREDICTABLE>
    3230:	23060002 	movwcs	r0, #24578	; 0x6002
    3234:	02000009 	andeq	r0, r0, #9
    3238:	00007915 	andeq	r7, r0, r5, lsl r9
    323c:	08150700 	ldmdaeq	r5, {r8, r9, sl}
    3240:	3f010000 	svccc	0x00010000
    3244:	00009464 	andeq	r9, r0, r4, ror #8
    3248:	000000d4 	ldrdeq	r0, [r0], -r4
    324c:	01339c01 	teqeq	r3, r1, lsl #24
    3250:	70080000 	andvc	r0, r8, r0
    3254:	01006e69 	tsteq	r0, r9, ror #28
    3258:	00002c3f 	andeq	r2, r0, pc, lsr ip
    325c:	00183d00 	andseq	r3, r8, r0, lsl #26
    3260:	0a790900 	beq	1e45668 <__bss_end__+0x1e3afc8>
    3264:	47010000 	strmi	r0, [r1, -r0]
    3268:	00000133 	andeq	r0, r0, r3, lsr r1
    326c:	0000185b 	andeq	r1, r0, fp, asr r8
    3270:	000b6109 	andeq	r6, fp, r9, lsl #2
    3274:	2c490100 	stfcse	f0, [r9], {-0}
    3278:	b0000000 	andlt	r0, r0, r0
    327c:	09000018 	stmdbeq	r0, {r3, r4}
    3280:	00000b0c 	andeq	r0, r0, ip, lsl #22
    3284:	002c5701 	eoreq	r5, ip, r1, lsl #14
    3288:	1a7c0000 	bne	1f03290 <__bss_end__+0x1ef8bf0>
    328c:	f80a0000 			; <UNDEFINED> instruction: 0xf80a0000
    3290:	e0000094 	mul	r0, r4, r0
    3294:	22000007 	andcs	r0, r0, #7
    3298:	0b000001 	bleq	32a4 <_start-0x4d5c>
    329c:	75025001 	strvc	r5, [r2, #-1]
    32a0:	2c0c0000 	stccs	0, cr0, [ip], {-0}
    32a4:	01000095 	swpeq	r0, r5, [r0]	; <UNPREDICTABLE>
    32a8:	0b000008 	bleq	32d0 <_start-0x4d30>
    32ac:	75025001 	strvc	r5, [r2, #-1]
    32b0:	0d000000 	stceq	0, cr0, [r0, #-0]
    32b4:	00013904 	andeq	r3, r1, r4, lsl #18
    32b8:	002c0e00 	eoreq	r0, ip, r0, lsl #28
    32bc:	31070000 	mrscc	r0, (UNDEF: 7)
    32c0:	0100000b 	tsteq	r0, fp
    32c4:	00953860 	addseq	r3, r5, r0, ror #16
    32c8:	00003800 	andeq	r3, r0, r0, lsl #16
    32cc:	969c0100 	ldrls	r0, [ip], r0, lsl #2
    32d0:	08000001 	stmdaeq	r0, {r0}
    32d4:	006e6970 	rsbeq	r6, lr, r0, ror r9
    32d8:	002c6001 	eoreq	r6, ip, r1
    32dc:	1aac0000 	bne	feb032e4 <__bss_end__+0xfeaf8c44>
    32e0:	79090000 	stmdbvc	r9, {}	; <UNPREDICTABLE>
    32e4:	0100000a 	tsteq	r0, sl
    32e8:	00013367 	andeq	r3, r1, r7, ror #6
    32ec:	001acd00 	andseq	ip, sl, r0, lsl #26
    32f0:	0b0c0900 	bleq	3056f8 <__bss_end__+0x2fb058>
    32f4:	68010000 	stmdavs	r1, {}	; <UNPREDICTABLE>
    32f8:	0000002c 	andeq	r0, r0, ip, lsr #32
    32fc:	00001b03 	andeq	r1, r0, r3, lsl #22
    3300:	0095680c 	addseq	r6, r5, ip, lsl #16
    3304:	00080100 	andeq	r0, r8, r0, lsl #2
    3308:	51010b00 	tstpl	r1, r0, lsl #22
    330c:	01f33107 	mvnseq	r3, r7, lsl #2
    3310:	241a4f50 	ldrcs	r4, [sl], #-3920	; 0xf50
    3314:	30070000 	andcc	r0, r7, r0
    3318:	0100000a 	tsteq	r0, sl
    331c:	0095707b 	addseq	r7, r5, fp, ror r0
    3320:	00003800 	andeq	r3, r0, r0, lsl #16
    3324:	ee9c0100 	fmle	f0, f4, f0
    3328:	08000001 	stmdaeq	r0, {r0}
    332c:	006e6970 	rsbeq	r6, lr, r0, ror r9
    3330:	002c7b01 	eoreq	r7, ip, r1, lsl #22
    3334:	1b430000 	blne	10c333c <__bss_end__+0x10b8c9c>
    3338:	79090000 	stmdbvc	r9, {}	; <UNPREDICTABLE>
    333c:	0100000a 	tsteq	r0, sl
    3340:	00013381 	andeq	r3, r1, r1, lsl #7
    3344:	001b6400 	andseq	r6, fp, r0, lsl #8
    3348:	0b0c0900 	bleq	305750 <__bss_end__+0x2fb0b0>
    334c:	82010000 	andhi	r0, r1, #0
    3350:	0000002c 	andeq	r0, r0, ip, lsr #32
    3354:	00001b9a 	muleq	r0, sl, fp
    3358:	0095a00c 	addseq	sl, r5, ip
    335c:	00080100 	andeq	r0, r8, r0, lsl #2
    3360:	51010b00 	tstpl	r1, r0, lsl #22
    3364:	01f33107 	mvnseq	r3, r7, lsl #2
    3368:	241a4f50 	ldrcs	r4, [sl], #-3920	; 0xf50
    336c:	ef070000 	svc	0x00070000
    3370:	01000007 	tsteq	r0, r7
    3374:	0095a895 	umullseq	sl, r5, r5, r8
    3378:	0000cc00 	andeq	ip, r0, r0, lsl #24
    337c:	649c0100 	ldrvs	r0, [ip], #256	; 0x100
    3380:	08000002 	stmdaeq	r0, {r1}
    3384:	006e6970 	rsbeq	r6, lr, r0, ror r9
    3388:	002c9501 	eoreq	r9, ip, r1, lsl #10
    338c:	1bda0000 	blne	ff683394 <__bss_end__+0xff678cf4>
    3390:	79090000 	stmdbvc	r9, {}	; <UNPREDICTABLE>
    3394:	0100000a 	tsteq	r0, sl
    3398:	0001339b 	muleq	r1, fp, r3
    339c:	001bf800 	andseq	pc, fp, r0, lsl #16
    33a0:	0b610900 	bleq	18457a8 <__bss_end__+0x183b108>
    33a4:	9d010000 	stcls	0, cr0, [r1, #-0]
    33a8:	0000002c 	andeq	r0, r0, ip, lsr #32
    33ac:	00001c4d 	andeq	r1, r0, sp, asr #24
    33b0:	000b0c09 	andeq	r0, fp, r9, lsl #24
    33b4:	2cab0100 	stfcss	f0, [fp]
    33b8:	19000000 	stmdbne	r0, {}	; <UNPREDICTABLE>
    33bc:	0a00001e 	beq	343c <_start-0x4bc4>
    33c0:	0000963c 	andeq	r9, r0, ip, lsr r6
    33c4:	000007e0 	andeq	r0, r0, r0, ror #15
    33c8:	00000253 	andeq	r0, r0, r3, asr r2
    33cc:	0250010b 	subseq	r0, r0, #-1073741822	; 0xc0000002
    33d0:	0c000075 	stceq	0, cr0, [r0], {117}	; 0x75
    33d4:	00009668 	andeq	r9, r0, r8, ror #12
    33d8:	00000801 	andeq	r0, r0, r1, lsl #16
    33dc:	0250010b 	subseq	r0, r0, #-1073741822	; 0xc0000002
    33e0:	00000075 	andeq	r0, r0, r5, ror r0
    33e4:	0007980f 	andeq	r9, r7, pc, lsl #16
    33e8:	64b30100 	ldrtvs	r0, [r3], #256	; 0x100
    33ec:	74000000 	strvc	r0, [r0], #-0
    33f0:	4c000096 	stcmi	0, cr0, [r0], {150}	; 0x96
    33f4:	01000000 	mrseq	r0, (UNDEF: 0)
    33f8:	0002ac9c 	muleq	r2, ip, ip
    33fc:	69700800 	ldmdbvs	r0!, {fp}^
    3400:	b301006e 	movwlt	r0, #4206	; 0x106e
    3404:	0000002c 	andeq	r0, r0, ip, lsr #32
    3408:	00001e37 	andeq	r1, r0, r7, lsr lr
    340c:	01007610 	tsteq	r0, r0, lsl r6
    3410:	00002cb9 			; <UNDEFINED> instruction: 0x00002cb9
    3414:	001e8f00 	andseq	r8, lr, r0, lsl #30
    3418:	96941100 	ldrls	r1, [r4], r0, lsl #2
    341c:	07e00000 	strbeq	r0, [r0, r0]!
    3420:	a4110000 	ldrge	r0, [r1], #-0
    3424:	e0000096 	mul	r0, r6, r0
    3428:	00000007 	andeq	r0, r0, r7
    342c:	0007d707 	andeq	sp, r7, r7, lsl #14
    3430:	c0c50100 	sbcgt	r0, r5, r0, lsl #2
    3434:	24000096 	strcs	r0, [r0], #-150	; 0x96
    3438:	01000000 	mrseq	r0, (UNDEF: 0)
    343c:	0002fc9c 	muleq	r2, ip, ip
    3440:	69700800 	ldmdbvs	r0!, {fp}^
    3444:	c501006e 	strgt	r0, [r1, #-110]	; 0x6e
    3448:	0000002c 	andeq	r0, r0, ip, lsr #32
    344c:	00001ec5 	andeq	r1, r0, r5, asr #29
    3450:	01007608 	tsteq	r0, r8, lsl #12
    3454:	00002cc5 	andeq	r2, r0, r5, asr #25
    3458:	001eff00 	andseq	pc, lr, r0, lsl #30
    345c:	96d80a00 	ldrbls	r0, [r8], r0, lsl #20
    3460:	013e0000 	teqeq	lr, r0
    3464:	02f20000 	rscseq	r0, r2, #0
    3468:	010b0000 	mrseq	r0, (UNDEF: 11)
    346c:	01f30350 	mvnseq	r0, r0, asr r3
    3470:	e0110050 	ands	r0, r1, r0, asr r0
    3474:	96000096 			; <UNDEFINED> instruction: 0x96000096
    3478:	00000001 	andeq	r0, r0, r1
    347c:	00098007 	andeq	r8, r9, r7
    3480:	e4d10100 	ldrb	r0, [r1], #256	; 0x100
    3484:	d8000096 	stmdale	r0, {r1, r2, r4, r7}
    3488:	01000000 	mrseq	r0, (UNDEF: 0)
    348c:	0003819c 	muleq	r3, ip, r1
    3490:	69700800 	ldmdbvs	r0!, {fp}^
    3494:	d101006e 	tstle	r1, lr, rrx
    3498:	0000002c 	andeq	r0, r0, ip, lsr #32
    349c:	00001f39 	andeq	r1, r0, r9, lsr pc
    34a0:	000b1e12 	andeq	r1, fp, r2, lsl lr
    34a4:	b2d10100 	sbcslt	r0, r1, #0, 2
    34a8:	57000000 	strpl	r0, [r0, -r0]
    34ac:	0900001f 	stmdbeq	r0, {r0, r1, r2, r3, r4}
    34b0:	00000a79 	andeq	r0, r0, r9, ror sl
    34b4:	0133d901 	teqeq	r3, r1, lsl #18
    34b8:	1f780000 	svcne	0x00780000
    34bc:	61090000 	mrsvs	r0, (UNDEF: 9)
    34c0:	0100000b 	tsteq	r0, fp
    34c4:	00002cda 	ldrdeq	r2, [r0], -sl
    34c8:	001fcd00 	andseq	ip, pc, r0, lsl #26
    34cc:	0b0c0900 	bleq	3058d4 <__bss_end__+0x2fb234>
    34d0:	e8010000 	stmda	r1, {}	; <UNPREDICTABLE>
    34d4:	0000002c 	andeq	r0, r0, ip, lsr #32
    34d8:	00002199 	muleq	r0, r9, r1
    34dc:	0097800a 	addseq	r8, r7, sl
    34e0:	0007e000 	andeq	lr, r7, r0
    34e4:	00037000 	andeq	r7, r3, r0
    34e8:	50010b00 	andpl	r0, r1, r0, lsl #22
    34ec:	00007602 	andeq	r7, r0, r2, lsl #12
    34f0:	0097b00c 	addseq	fp, r7, ip
    34f4:	00080100 	andeq	r0, r8, r0, lsl #2
    34f8:	50010b00 	andpl	r0, r1, r0, lsl #22
    34fc:	00007602 	andeq	r7, r0, r2, lsl #12
    3500:	0a241300 	beq	908108 <__bss_end__+0x8fda68>
    3504:	05010000 	streq	r0, [r1, #-0]
    3508:	00006401 	andeq	r6, r0, r1, lsl #8
    350c:	0097bc00 	addseq	fp, r7, r0, lsl #24
    3510:	00002c00 	andeq	r2, r0, r0, lsl #24
    3514:	b59c0100 	ldrlt	r0, [ip, #256]	; 0x100
    3518:	14000003 	strne	r0, [r0], #-3
    351c:	00000a27 	andeq	r0, r0, r7, lsr #20
    3520:	2c010501 	cfstr32cs	mvfx0, [r1], {1}
    3524:	ca000000 	bgt	352c <_start-0x4ad4>
    3528:	11000021 	tstne	r0, r1, lsr #32
    352c:	000097cc 	andeq	r9, r0, ip, asr #15
    3530:	000007e0 	andeq	r0, r0, r0, ror #15
    3534:	0abc1500 	beq	fef0893c <__bss_end__+0xfeefe29c>
    3538:	14010000 	strne	r0, [r1], #-0
    353c:	0097e801 	addseq	lr, r7, r1, lsl #16
    3540:	00008400 	andeq	r8, r0, r0, lsl #8
    3544:	799c0100 	ldmibvc	ip, {r8}
    3548:	16000004 	strne	r0, [r0], -r4
    354c:	006e6970 	rsbeq	r6, lr, r0, ror r9
    3550:	2c011401 	cfstrscs	mvf1, [r1], {1}
    3554:	eb000000 	bl	355c <_start-0x4aa4>
    3558:	17000021 	strne	r0, [r0, -r1, lsr #32]
    355c:	00000a4b 	andeq	r0, r0, fp, asr #20
    3560:	2c012601 	stccs	6, cr2, [r1], {1}
    3564:	17000000 	strne	r0, [r0, -r0]
    3568:	18000022 	stmdane	r0, {r1, r5}
    356c:	00009804 	andeq	r9, r0, r4, lsl #16
    3570:	0000001c 	andeq	r0, r0, ip, lsl r0
    3574:	0000041b 	andeq	r0, r0, fp, lsl r4
    3578:	000b0c17 	andeq	r0, fp, r7, lsl ip
    357c:	011d0100 	tsteq	sp, r0, lsl #2
    3580:	0000002c 	andeq	r0, r0, ip, lsr #32
    3584:	00002235 	andeq	r2, r0, r5, lsr r2
    3588:	00981011 	addseq	r1, r8, r1, lsl r0
    358c:	0007e000 	andeq	lr, r7, r0
    3590:	98201100 	stmdals	r0!, {r8, ip}
    3594:	08010000 	stmdaeq	r1, {}	; <UNPREDICTABLE>
    3598:	18000000 	stmdane	r0, {}	; <UNPREDICTABLE>
    359c:	00009824 	andeq	r9, r0, r4, lsr #16
    35a0:	00000020 	andeq	r0, r0, r0, lsr #32
    35a4:	0000044b 	andeq	r0, r0, fp, asr #8
    35a8:	000b0c17 	andeq	r0, fp, r7, lsl ip
    35ac:	01210100 	teqeq	r1, r0, lsl #2
    35b0:	0000002c 	andeq	r0, r0, ip, lsr #32
    35b4:	00002253 	andeq	r2, r0, r3, asr r2
    35b8:	00983011 	addseq	r3, r8, r1, lsl r0
    35bc:	0007e000 	andeq	lr, r7, r0
    35c0:	98441100 	stmdals	r4, {r8, ip}^
    35c4:	08010000 	stmdaeq	r1, {}	; <UNPREDICTABLE>
    35c8:	11000000 	mrsne	r0, (UNDEF: 0)
    35cc:	000097fc 	strdeq	r9, [r0], -ip
    35d0:	0000081d 	andeq	r0, r0, sp, lsl r8
    35d4:	00984811 	addseq	r4, r8, r1, lsl r8
    35d8:	00081d00 	andeq	r1, r8, r0, lsl #26
    35dc:	98541100 	ldmdals	r4, {r8, ip}^
    35e0:	07e00000 	strbeq	r0, [r0, r0]!
    35e4:	60110000 	andsvs	r0, r1, r0
    35e8:	01000098 	swpeq	r0, r8, [r0]	; <UNPREDICTABLE>
    35ec:	11000008 	tstne	r0, r8
    35f0:	00009864 	andeq	r9, r0, r4, ror #16
    35f4:	0000081d 	andeq	r0, r0, sp, lsl r8
    35f8:	0b4b1500 	bleq	12c8a00 <__bss_end__+0x12be360>
    35fc:	31010000 	mrscc	r0, (UNDEF: 1)
    3600:	00986c01 	addseq	r6, r8, r1, lsl #24
    3604:	00008400 	andeq	r8, r0, r0, lsl #8
    3608:	3d9c0100 	ldfccs	f0, [ip]
    360c:	16000005 	strne	r0, [r0], -r5
    3610:	006e6970 	rsbeq	r6, lr, r0, ror r9
    3614:	2c013101 	stfcss	f3, [r1], {1}
    3618:	71000000 	mrsvc	r0, (UNDEF: 0)
    361c:	17000022 	strne	r0, [r0, -r2, lsr #32]
    3620:	00000a4b 	andeq	r0, r0, fp, asr #20
    3624:	2c014201 	sfmcs	f4, 4, [r1], {1}
    3628:	9d000000 	stcls	0, cr0, [r0, #-0]
    362c:	18000022 	stmdane	r0, {r1, r5}
    3630:	00009888 	andeq	r9, r0, r8, lsl #17
    3634:	0000001c 	andeq	r0, r0, ip, lsl r0
    3638:	000004df 	ldrdeq	r0, [r0], -pc	; <UNPREDICTABLE>
    363c:	000b0c17 	andeq	r0, fp, r7, lsl ip
    3640:	01390100 	teqeq	r9, r0, lsl #2
    3644:	0000002c 	andeq	r0, r0, ip, lsr #32
    3648:	000022bb 			; <UNDEFINED> instruction: 0x000022bb
    364c:	00989411 	addseq	r9, r8, r1, lsl r4
    3650:	0007e000 	andeq	lr, r7, r0
    3654:	98a41100 	stmials	r4!, {r8, ip}
    3658:	08010000 	stmdaeq	r1, {}	; <UNPREDICTABLE>
    365c:	18000000 	stmdane	r0, {}	; <UNPREDICTABLE>
    3660:	000098a8 	andeq	r9, r0, r8, lsr #17
    3664:	00000020 	andeq	r0, r0, r0, lsr #32
    3668:	0000050f 	andeq	r0, r0, pc, lsl #10
    366c:	000b0c17 	andeq	r0, fp, r7, lsl ip
    3670:	013d0100 	teqeq	sp, r0, lsl #2
    3674:	0000002c 	andeq	r0, r0, ip, lsr #32
    3678:	000022d9 	ldrdeq	r2, [r0], -r9
    367c:	0098b411 	addseq	fp, r8, r1, lsl r4
    3680:	0007e000 	andeq	lr, r7, r0
    3684:	98c81100 	stmials	r8, {r8, ip}^
    3688:	08010000 	stmdaeq	r1, {}	; <UNPREDICTABLE>
    368c:	11000000 	mrsne	r0, (UNDEF: 0)
    3690:	00009880 	andeq	r9, r0, r0, lsl #17
    3694:	0000081d 	andeq	r0, r0, sp, lsl r8
    3698:	0098cc11 	addseq	ip, r8, r1, lsl ip
    369c:	00081d00 	andeq	r1, r8, r0, lsl #26
    36a0:	98d81100 	ldmls	r8, {r8, ip}^
    36a4:	07e00000 	strbeq	r0, [r0, r0]!
    36a8:	e4110000 	ldr	r0, [r1], #-0
    36ac:	01000098 	swpeq	r0, r8, [r0]	; <UNPREDICTABLE>
    36b0:	11000008 	tstne	r0, r8
    36b4:	000098e8 	andeq	r9, r0, r8, ror #17
    36b8:	0000081d 	andeq	r0, r0, sp, lsl r8
    36bc:	09f31300 	ldmibeq	r3!, {r8, r9, ip}^
    36c0:	4c010000 	stcmi	0, cr0, [r1], {-0}
    36c4:	00006401 	andeq	r6, r0, r1, lsl #8
    36c8:	0098f000 	addseq	pc, r8, r0
    36cc:	00008400 	andeq	r8, r0, r0, lsl #8
    36d0:	e39c0100 	orrs	r0, ip, #0, 2
    36d4:	16000005 	strne	r0, [r0], -r5
    36d8:	006e6970 	rsbeq	r6, lr, r0, ror r9
    36dc:	2c014c01 	stccs	12, cr4, [r1], {1}
    36e0:	f7000000 			; <UNDEFINED> instruction: 0xf7000000
    36e4:	18000022 	stmdane	r0, {r1, r5}
    36e8:	0000990c 	andeq	r9, r0, ip, lsl #18
    36ec:	00000024 	andeq	r0, r0, r4, lsr #32
    36f0:	00000597 	muleq	r0, r7, r5
    36f4:	000a6217 	andeq	r6, sl, r7, lsl r2
    36f8:	01530100 	cmpeq	r3, r0, lsl #2
    36fc:	0000002c 	andeq	r0, r0, ip, lsr #32
    3700:	00002339 	andeq	r2, r0, r9, lsr r3
    3704:	00991811 	addseq	r1, r9, r1, lsl r8
    3708:	0007e000 	andeq	lr, r7, r0
    370c:	99281100 	stmdbls	r8!, {r8, ip}
    3710:	081d0000 	ldmdaeq	sp, {}	; <UNPREDICTABLE>
    3714:	18000000 	stmdane	r0, {}	; <UNPREDICTABLE>
    3718:	00009930 	andeq	r9, r0, r0, lsr r9
    371c:	0000002c 	andeq	r0, r0, ip, lsr #32
    3720:	000005d0 	ldrdeq	r0, [r0], -r0	; <UNPREDICTABLE>
    3724:	000a6217 	andeq	r6, sl, r7, lsl r2
    3728:	01560100 	cmpeq	r6, r0, lsl #2
    372c:	0000002c 	andeq	r0, r0, ip, lsr #32
    3730:	00002353 	andeq	r2, r0, r3, asr r3
    3734:	00993c11 	addseq	r3, r9, r1, lsl ip
    3738:	0007e000 	andeq	lr, r7, r0
    373c:	99481100 	stmdbls	r8, {r8, ip}^
    3740:	081d0000 	ldmdaeq	sp, {}	; <UNPREDICTABLE>
    3744:	54110000 	ldrpl	r0, [r1], #-0
    3748:	1d000099 	stcne	0, cr0, [r0, #-612]	; 0xfffffd9c
    374c:	00000008 	andeq	r0, r0, r8
    3750:	00990411 	addseq	r0, r9, r1, lsl r4
    3754:	00081d00 	andeq	r1, r8, r0, lsl #26
    3758:	99601100 	stmdbls	r0!, {r8, ip}^
    375c:	081d0000 	ldmdaeq	sp, {}	; <UNPREDICTABLE>
    3760:	15000000 	strne	r0, [r0, #-0]
    3764:	00000adf 	ldrdeq	r0, [r0], -pc	; <UNPREDICTABLE>
    3768:	74015f01 	strvc	r5, [r1], #-3841	; 0xf01
    376c:	58000099 	stmdapl	r0, {r0, r3, r4, r7}
    3770:	01000000 	mrseq	r0, (UNDEF: 0)
    3774:	0006489c 	muleq	r6, ip, r8
    3778:	69701600 	ldmdbvs	r0!, {r9, sl, ip}^
    377c:	5f01006e 	svcpl	0x0001006e
    3780:	00002c01 	andeq	r2, r0, r1, lsl #24
    3784:	00236600 	eoreq	r6, r3, r0, lsl #12
    3788:	99881100 	stmibls	r8, {r8, ip}
    378c:	081d0000 	ldmdaeq	sp, {}	; <UNPREDICTABLE>
    3790:	a40a0000 	strge	r0, [sl], #-0
    3794:	01000099 	swpeq	r0, r9, [r0]	; <UNPREDICTABLE>
    3798:	28000008 	stmdacs	r0, {r3}
    379c:	0b000006 	bleq	37bc <_start-0x4844>
    37a0:	31045101 	tstcc	r4, r1, lsl #2
    37a4:	00240074 	eoreq	r0, r4, r4, ror r0
    37a8:	0099c00a 	addseq	ip, r9, sl
    37ac:	00080100 	andeq	r0, r8, r0, lsl #2
    37b0:	00063e00 	andeq	r3, r6, r0, lsl #28
    37b4:	51010b00 	tstpl	r1, r0, lsl #22
    37b8:	00743104 	rsbseq	r3, r4, r4, lsl #2
    37bc:	c4110024 	ldrgt	r0, [r1], #-36	; 0x24
    37c0:	1d000099 	stcne	0, cr0, [r0, #-612]	; 0xfffffd9c
    37c4:	00000008 	andeq	r0, r0, r8
    37c8:	000aaa19 	andeq	sl, sl, r9, lsl sl
    37cc:	33280100 	teqcc	r8, #0, 2
    37d0:	05000001 	streq	r0, [r0, #-1]
    37d4:	009ad403 	addseq	sp, sl, r3, lsl #8
    37d8:	0b141900 	bleq	509be0 <__bss_end__+0x4ff540>
    37dc:	29010000 	stmdbcs	r1, {}	; <UNPREDICTABLE>
    37e0:	00000133 	andeq	r0, r0, r3, lsr r1
    37e4:	9ad00305 	bls	ff404400 <__bss_end__+0xff3f9d60>
    37e8:	6c190000 	ldcvs	0, cr0, [r9], {-0}
    37ec:	0100000b 	tsteq	r0, fp
    37f0:	0001332a 	andeq	r3, r1, sl, lsr #6
    37f4:	cc030500 	cfstr32gt	mvfx0, [r3], {-0}
    37f8:	1900009a 	stmdbne	r0, {r1, r3, r4, r7}
    37fc:	00000a82 	andeq	r0, r0, r2, lsl #21
    3800:	01332c01 	teqeq	r3, r1, lsl #24
    3804:	03050000 	movweq	r0, #20480	; 0x5000
    3808:	00009a78 	andeq	r9, r0, r8, ror sl
    380c:	000a8a19 	andeq	r8, sl, r9, lsl sl
    3810:	332d0100 	teqcc	sp, #0, 2
    3814:	05000001 	streq	r0, [r0, #-1]
    3818:	009a7c03 	addseq	r7, sl, r3, lsl #24
    381c:	0a071900 	beq	1c9c24 <__bss_end__+0x1bf584>
    3820:	2e010000 	cdpcs	0, 0, cr0, cr1, cr0, {0}
    3824:	00000133 	andeq	r0, r0, r3, lsr r1
    3828:	9a800305 	bls	fe004444 <__bss_end__+0xfdff9da4>
    382c:	92190000 	andsls	r0, r9, #0
    3830:	0100000a 	tsteq	r0, sl
    3834:	0001332f 	andeq	r3, r1, pc, lsr #6
    3838:	84030500 	strhi	r0, [r3], #-1280	; 0x500
    383c:	1900009a 	stmdbne	r0, {r1, r3, r4, r7}
    3840:	00000a9a 	muleq	r0, sl, sl
    3844:	01333001 	teqeq	r3, r1
    3848:	03050000 	movweq	r0, #20480	; 0x5000
    384c:	00009a88 	andeq	r9, r0, r8, lsl #21
    3850:	000aa219 	andeq	sl, sl, r9, lsl r2
    3854:	33310100 	teqcc	r1, #0, 2
    3858:	05000001 	streq	r0, [r0, #-1]
    385c:	009a8c03 	addseq	r8, sl, r3, lsl #24
    3860:	0a541900 	beq	1509c68 <__bss_end__+0x14ff5c8>
    3864:	33010000 	movwcc	r0, #4096	; 0x1000
    3868:	00000133 	andeq	r0, r0, r3, lsr r1
    386c:	9a900305 	bls	fe404488 <__bss_end__+0xfe3f9de8>
    3870:	5b190000 	blpl	643878 <__bss_end__+0x6391d8>
    3874:	0100000a 	tsteq	r0, sl
    3878:	00013334 	andeq	r3, r1, r4, lsr r3
    387c:	94030500 	strls	r0, [r3], #-1280	; 0x500
    3880:	1900009a 	stmdbne	r0, {r1, r3, r4, r7}
    3884:	00000a0f 	andeq	r0, r0, pc, lsl #20
    3888:	01333601 	teqeq	r3, r1, lsl #12
    388c:	03050000 	movweq	r0, #20480	; 0x5000
    3890:	00009a98 	muleq	r0, r8, sl
    3894:	000ab519 	andeq	fp, sl, r9, lsl r5
    3898:	33370100 	teqcc	r7, #0, 2
    389c:	05000001 	streq	r0, [r0, #-1]
    38a0:	009a9c03 	addseq	r9, sl, r3, lsl #24
    38a4:	0a6b1900 	beq	1ac9cac <__bss_end__+0x1abf60c>
    38a8:	39010000 	stmdbcc	r1, {}	; <UNPREDICTABLE>
    38ac:	00000133 	andeq	r0, r0, r3, lsr r1
    38b0:	9aa00305 	bls	fe8044cc <__bss_end__+0xfe7f9e2c>
    38b4:	72190000 	andsvc	r0, r9, #0
    38b8:	0100000a 	tsteq	r0, sl
    38bc:	0001333a 	andeq	r3, r1, sl, lsr r3
    38c0:	a4030500 	strge	r0, [r3], #-1280	; 0x500
    38c4:	1900009a 	stmdbne	r0, {r1, r3, r4, r7}
    38c8:	00000af0 	strdeq	r0, [r0], -r0	; <UNPREDICTABLE>
    38cc:	0133f001 	teqeq	r3, r1
    38d0:	03050000 	movweq	r0, #20480	; 0x5000
    38d4:	00009ac8 	andeq	r9, r0, r8, asr #21
    38d8:	000afe19 	andeq	pc, sl, r9, lsl lr	; <UNPREDICTABLE>
    38dc:	33f10100 	mvnscc	r0, #0, 2
    38e0:	05000001 	streq	r0, [r0, #-1]
    38e4:	009aa803 	addseq	sl, sl, r3, lsl #16
    38e8:	0b231900 	bleq	8c9cf0 <__bss_end__+0x8bf650>
    38ec:	f3010000 	vhadd.u8	d0, d1, d0
    38f0:	00000133 	andeq	r0, r0, r3, lsr r1
    38f4:	9ac00305 	bls	ff004510 <__bss_end__+0xfeff9e70>
    38f8:	2a190000 	bcs	643900 <__bss_end__+0x639260>
    38fc:	0100000b 	tsteq	r0, fp
    3900:	000133f4 	strdeq	r3, [r1], -r4
    3904:	c4030500 	strgt	r0, [r3], #-1280	; 0x500
    3908:	1900009a 	stmdbne	r0, {r1, r3, r4, r7}
    390c:	00000ad1 	ldrdeq	r0, [r0], -r1
    3910:	0133f601 	teqeq	r3, r1, lsl #12
    3914:	03050000 	movweq	r0, #20480	; 0x5000
    3918:	00009aac 	andeq	r9, r0, ip, lsr #21
    391c:	000ad819 	andeq	sp, sl, r9, lsl r8
    3920:	33f70100 	mvnscc	r0, #0, 2
    3924:	05000001 	streq	r0, [r0, #-1]
    3928:	009ab003 	addseq	fp, sl, r3
    392c:	0b3d1900 	bleq	f49d34 <__bss_end__+0xf3f694>
    3930:	f9010000 			; <UNDEFINED> instruction: 0xf9010000
    3934:	00000133 	andeq	r0, r0, r3, lsr r1
    3938:	9ab80305 	bls	fee04554 <__bss_end__+0xfedf9eb4>
    393c:	44190000 	ldrmi	r0, [r9], #-0
    3940:	0100000b 	tsteq	r0, fp
    3944:	000133fa 	strdeq	r3, [r1], -sl
    3948:	bc030500 	cfstr32lt	mvfx0, [r3], {-0}
    394c:	1900009a 	stmdbne	r0, {r1, r3, r4, r7}
    3950:	00000a16 	andeq	r0, r0, r6, lsl sl
    3954:	0133fc01 	teqeq	r3, r1, lsl #24
    3958:	03050000 	movweq	r0, #20480	; 0x5000
    395c:	00009ab4 			; <UNDEFINED> instruction: 0x00009ab4
    3960:	0009ed1a 	andeq	lr, r9, sl, lsl sp
    3964:	2c200100 	stfcss	f0, [r0], #-0
    3968:	f5000000 			; <UNDEFINED> instruction: 0xf5000000
    396c:	1b000007 	blne	3990 <_start-0x4670>
    3970:	000007f5 	strdeq	r0, [r0], -r5
    3974:	fb040d00 	blx	106d7e <__bss_end__+0xfc6de>
    3978:	1c000007 	stcne	0, cr0, [r0], {7}
    397c:	00000800 	andeq	r0, r0, r0, lsl #16
    3980:	090e1e1d 	stmdbeq	lr, {r0, r2, r3, r4, r9, sl, fp, ip}
    3984:	1e010000 	cdpne	0, 0, cr0, cr1, cr0, {0}
    3988:	00000817 	andeq	r0, r0, r7, lsl r8
    398c:	0008171b 	andeq	r1, r8, fp, lsl r7
    3990:	002c1b00 	eoreq	r1, ip, r0, lsl #22
    3994:	0d000000 	stceq	0, cr0, [r0, #-0]
    3998:	00080004 	andeq	r0, r8, r4
    399c:	089c1f00 	ldmeq	ip, {r8, r9, sl, fp, ip}
    39a0:	8a030000 	bhi	c39a8 <__bss_end__+0xb9308>
    39a4:	0001c300 	andeq	ip, r1, r0, lsl #6
    39a8:	de000400 	cfcpysle	mvf0, mvf0
    39ac:	04000010 	streq	r0, [r0], #-16
    39b0:	00023b01 	andeq	r3, r2, r1, lsl #22
    39b4:	0b8b0100 	bleq	fe2c3dbc <__bss_end__+0xfe2b971c>
    39b8:	04030000 	streq	r0, [r3], #-0
    39bc:	99cc0000 	stmibls	ip, {}^	; <UNPREDICTABLE>
    39c0:	00500000 	subseq	r0, r0, r0
    39c4:	0ec00000 	cdpeq	0, 12, cr0, cr0, cr0, {0}
    39c8:	04020000 	streq	r0, [r2], #-0
    39cc:	746e6905 	strbtvc	r6, [lr], #-2309	; 0x905
    39d0:	0b760300 	bleq	1d845d8 <__bss_end__+0x1d79f38>
    39d4:	d4020000 	strle	r0, [r2], #-0
    39d8:	00000037 	andeq	r0, r0, r7, lsr r0
    39dc:	32070404 	andcc	r0, r7, #4, 8	; 0x4000000
    39e0:	04000000 	streq	r0, [r0], #-0
    39e4:	01ed0601 	mvneq	r0, r1, lsl #12
    39e8:	02040000 	andeq	r0, r4, #0
    39ec:	0001f905 	andeq	pc, r1, r5, lsl #18
    39f0:	05040400 	streq	r0, [r4, #-1024]	; 0x400
    39f4:	00000056 	andeq	r0, r0, r6, asr r0
    39f8:	51050804 	tstpl	r5, r4, lsl #16
    39fc:	03000000 	movweq	r0, #0
    3a00:	00000354 	andeq	r0, r0, r4, asr r3
    3a04:	00652e03 	rsbeq	r2, r5, r3, lsl #28
    3a08:	01040000 	mrseq	r0, (UNDEF: 4)
    3a0c:	0001eb08 	andeq	lr, r1, r8, lsl #22
    3a10:	07020400 	streq	r0, [r2, -r0, lsl #8]
    3a14:	000000ed 	andeq	r0, r0, sp, ror #1
    3a18:	00022b03 	andeq	r2, r2, r3, lsl #22
    3a1c:	7e340300 	cdpvc	3, 3, cr0, cr4, cr0, {0}
    3a20:	04000000 	streq	r0, [r0], #-0
    3a24:	002d0704 	eoreq	r0, sp, r4, lsl #14
    3a28:	08040000 	stmdaeq	r4, {}	; <UNPREDICTABLE>
    3a2c:	00002807 	andeq	r2, r0, r7, lsl #16
    3a30:	07040400 	streq	r0, [r4, -r0, lsl #8]
    3a34:	0000015c 	andeq	r0, r0, ip, asr r1
    3a38:	01040405 	tsteq	r4, r5, lsl #8
    3a3c:	0001f408 	andeq	pc, r1, r8, lsl #8
    3a40:	040c0600 	streq	r0, [ip], #-1536	; 0x600
    3a44:	0000d30e 	andeq	sp, r0, lr, lsl #6
    3a48:	78740700 	ldmdavc	r4!, {r8, r9, sl}^
    3a4c:	5a0f0400 	bpl	3c4a54 <__bss_end__+0x3ba3b4>
    3a50:	00000000 	andeq	r0, r0, r0
    3a54:	00787207 	rsbseq	r7, r8, r7, lsl #4
    3a58:	005a0f04 	subseq	r0, sl, r4, lsl #30
    3a5c:	08010000 	stmdaeq	r1, {}	; <UNPREDICTABLE>
    3a60:	000005aa 	andeq	r0, r0, sl, lsr #11
    3a64:	00731004 	rsbseq	r1, r3, r4
    3a68:	08040000 	stmdaeq	r4, {}	; <UNPREDICTABLE>
    3a6c:	0000055b 	andeq	r0, r0, fp, asr r5
    3a70:	00731104 	rsbseq	r1, r3, r4, lsl #2
    3a74:	00080000 	andeq	r0, r8, r0
    3a78:	00059303 	andeq	r9, r5, r3, lsl #6
    3a7c:	9c120400 	cfldrsls	mvf0, [r2], {-0}
    3a80:	09000000 	stmdbeq	r0, {}	; <UNPREDICTABLE>
    3a84:	f9100501 			; <UNDEFINED> instruction: 0xf9100501
    3a88:	0a000000 	beq	3a90 <_start-0x4570>
    3a8c:	000005af 	andeq	r0, r0, pc, lsr #11
    3a90:	059d0a01 	ldreq	r0, [sp, #2561]	; 0xa01
    3a94:	0a020000 	beq	83a9c <__bss_end__+0x793fc>
    3a98:	00000585 	andeq	r0, r0, r5, lsl #11
    3a9c:	c4030003 	strgt	r0, [r3], #-3
    3aa0:	05000005 	streq	r0, [r0, #-5]
    3aa4:	0000de10 	andeq	sp, r0, r0, lsl lr
    3aa8:	05140600 	ldreq	r0, [r4, #-1536]	; 0x600
    3aac:	00013114 	andeq	r3, r1, r4, lsl r1
    3ab0:	062b0800 	strteq	r0, [fp], -r0, lsl #16
    3ab4:	15050000 	strne	r0, [r5, #-0]
    3ab8:	00000037 	andeq	r0, r0, r7, lsr r0
    3abc:	061f0800 	ldreq	r0, [pc], -r0, lsl #16
    3ac0:	18050000 	stmdane	r5, {}	; <UNPREDICTABLE>
    3ac4:	000000f9 	strdeq	r0, [r0], -r9
    3ac8:	05ea0804 	strbeq	r0, [sl, #2052]!	; 0x804
    3acc:	1b050000 	blne	143ad4 <__bss_end__+0x139434>
    3ad0:	000000d3 	ldrdeq	r0, [r0], -r3
    3ad4:	dc030008 	stcle	0, cr0, [r3], {8}
    3ad8:	05000005 	streq	r0, [r0, #-5]
    3adc:	00010420 	andeq	r0, r1, r0, lsr #8
    3ae0:	0b840b00 	bleq	fe1066e8 <__bss_end__+0xfe0fc048>
    3ae4:	05010000 	streq	r0, [r1, #-0]
    3ae8:	0000017e 	andeq	r0, r0, lr, ror r1
    3aec:	000099cc 	andeq	r9, r0, ip, asr #19
    3af0:	00000028 	andeq	r0, r0, r8, lsr #32
    3af4:	017e9c01 	cmneq	lr, r1, lsl #24
    3af8:	630c0000 	movwvs	r0, #49152	; 0xc000
    3afc:	7e060100 	adfvcs	f0, f6, f0
    3b00:	00000001 	andeq	r0, r0, r1
    3b04:	0d090000 	stceq	0, cr0, [r9, #-0]
    3b08:	000099e0 	andeq	r9, r0, r0, ror #19
    3b0c:	000001ab 	andeq	r0, r0, fp, lsr #3
    3b10:	0152010e 	cmpeq	r2, lr, lsl #2
    3b14:	51010e34 	tstpl	r1, r4, lsr lr
    3b18:	010e3001 	tsteq	lr, r1
    3b1c:	47420350 	smlsldmi	r0, r2, r0, r3
    3b20:	0f000024 	svceq	0x00000024
    3b24:	00013104 	andeq	r3, r1, r4, lsl #2
    3b28:	05f20b00 	ldrbeq	r0, [r2, #2816]!	; 0xb00
    3b2c:	0c010000 	stceq	0, cr0, [r1], {-0}
    3b30:	0000017e 	andeq	r0, r0, lr, ror r1
    3b34:	000099f4 	strdeq	r9, [r0], -r4
    3b38:	00000028 	andeq	r0, r0, r8, lsr #32
    3b3c:	01ab9c01 			; <UNDEFINED> instruction: 0x01ab9c01
    3b40:	630c0000 	movwvs	r0, #49152	; 0xc000
    3b44:	7e0d0100 	adfvce	f0, f5, f0
    3b48:	00000001 	andeq	r0, r0, r1
    3b4c:	00090000 	andeq	r0, r9, r0
    3b50:	000b7d10 	andeq	r7, fp, r0, lsl sp
    3b54:	931b0600 	tstls	fp, #0, 12
    3b58:	11000000 	mrsne	r0, (UNDEF: 0)
    3b5c:	00000093 	muleq	r0, r3, r0
    3b60:	00002511 	andeq	r2, r0, r1, lsl r5
    3b64:	002c1100 	eoreq	r1, ip, r0, lsl #2
    3b68:	00000000 	andeq	r0, r0, r0
    3b6c:	000000db 	ldrdeq	r0, [r0], -fp
    3b70:	11c20004 	bicne	r0, r2, r4
    3b74:	01040000 	mrseq	r0, (UNDEF: 4)
    3b78:	0000023b 	andeq	r0, r0, fp, lsr r2
    3b7c:	000ba601 	andeq	sl, fp, r1, lsl #12
    3b80:	00040300 	andeq	r0, r4, r0, lsl #6
    3b84:	009a1c00 	addseq	r1, sl, r0, lsl #24
    3b88:	00002000 	andeq	r2, r0, r0
    3b8c:	000fec00 	andeq	lr, pc, r0, lsl #24
    3b90:	06010200 	streq	r0, [r1], -r0, lsl #4
    3b94:	000001ed 	andeq	r0, r0, sp, ror #3
    3b98:	eb080102 	bl	203fa8 <__bss_end__+0x1f9908>
    3b9c:	02000001 	andeq	r0, r0, #1
    3ba0:	01f90502 	mvnseq	r0, r2, lsl #10
    3ba4:	02020000 	andeq	r0, r2, #0
    3ba8:	0000ed07 	andeq	lr, r0, r7, lsl #26
    3bac:	05040300 	streq	r0, [r4, #-768]	; 0x300
    3bb0:	00746e69 	rsbseq	r6, r4, r9, ror #28
    3bb4:	32070402 	andcc	r0, r7, #33554432	; 0x2000000
    3bb8:	02000000 	andeq	r0, r0, #0
    3bbc:	00510508 	subseq	r0, r1, r8, lsl #10
    3bc0:	08020000 	stmdaeq	r2, {}	; <UNPREDICTABLE>
    3bc4:	00002807 	andeq	r2, r0, r7, lsl #16
    3bc8:	05040200 	streq	r0, [r4, #-512]	; 0x200
    3bcc:	00000056 	andeq	r0, r0, r6, asr r0
    3bd0:	5c070402 	cfstrspl	mvf0, [r7], {2}
    3bd4:	04000001 	streq	r0, [r0], #-1
    3bd8:	07040204 	streq	r0, [r4, -r4, lsl #4]
    3bdc:	0000002d 	andeq	r0, r0, sp, lsr #32
    3be0:	007a0405 	rsbseq	r0, sl, r5, lsl #8
    3be4:	01020000 	mrseq	r0, (UNDEF: 2)
    3be8:	0001f408 	andeq	pc, r1, r8, lsl #8
    3bec:	0b760600 	bleq	1d853f4 <__bss_end__+0x1d7ad54>
    3bf0:	d4020000 	strle	r0, [r2], #-0
    3bf4:	00000048 	andeq	r0, r0, r8, asr #32
    3bf8:	000b7d07 	andeq	r7, fp, r7, lsl #26
    3bfc:	6b1b0300 	blvs	6c4804 <__bss_end__+0x6ba164>
    3c00:	1c000000 	stcne	0, cr0, [r0], {-0}
    3c04:	2000009a 	mulcs	r0, sl, r0
    3c08:	01000000 	mrseq	r0, (UNDEF: 0)
    3c0c:	705f089c 			; <UNDEFINED> instruction: 0x705f089c
    3c10:	6b030100 	blvs	c4018 <__bss_end__+0xb9978>
    3c14:	01000000 	mrseq	r0, (UNDEF: 0)
    3c18:	00630850 	rsbeq	r0, r3, r0, asr r8
    3c1c:	00410301 	subeq	r0, r1, r1, lsl #6
    3c20:	51010000 	mrspl	r0, (UNDEF: 1)
    3c24:	01006e09 	tsteq	r0, r9, lsl #28
    3c28:	00008103 	andeq	r8, r0, r3, lsl #2
    3c2c:	00239200 	eoreq	r9, r3, r0, lsl #4
    3c30:	00700a00 	rsbseq	r0, r0, r0, lsl #20
    3c34:	00740401 	rsbseq	r0, r4, r1, lsl #8
    3c38:	23b30000 			; <UNDEFINED> instruction: 0x23b30000
    3c3c:	650b0000 	strvs	r0, [fp, #-0]
    3c40:	74040100 	strvc	r0, [r4], #-256	; 0x100
    3c44:	01000000 	mrseq	r0, (UNDEF: 0)
    3c48:	Address 0x0000000000003c48 is out of bounds.


Disassembly of section .debug_abbrev:

00000000 <.debug_abbrev>:
       0:	25011101 	strcs	r1, [r1, #-257]	; 0x101
       4:	030b130e 	movweq	r1, #45838	; 0xb30e
       8:	110e1b0e 	tstne	lr, lr, lsl #22
       c:	10061201 	andne	r1, r6, r1, lsl #4
      10:	02000017 	andeq	r0, r0, #23
      14:	0b0b0024 	bleq	2c00ac <__bss_end__+0x2b5a0c>
      18:	08030b3e 	stmdaeq	r3, {r1, r2, r3, r4, r5, r8, r9, fp}
      1c:	24030000 	strcs	r0, [r3], #-0
      20:	3e0b0b00 	vmlacc.f64	d0, d11, d0
      24:	000e030b 	andeq	r0, lr, fp, lsl #6
      28:	00160400 	andseq	r0, r6, r0, lsl #8
      2c:	0b3a0e03 	bleq	e83840 <__bss_end__+0xe791a0>
      30:	13490b3b 	movtne	r0, #39739	; 0x9b3b
      34:	0f050000 	svceq	0x00050000
      38:	490b0b00 	stmdbmi	fp, {r8, r9, fp}
      3c:	06000013 			; <UNDEFINED> instruction: 0x06000013
      40:	19270015 	stmdbne	r7!, {r0, r2, r4}
      44:	26070000 	strcs	r0, [r7], -r0
      48:	00134900 	andseq	r4, r3, r0, lsl #18
      4c:	01010800 	tsteq	r1, r0, lsl #16
      50:	13011349 	movwne	r1, #4937	; 0x1349
      54:	21090000 	mrscs	r0, (UNDEF: 9)
      58:	2f134900 	svccs	0x00134900
      5c:	0a00000b 	beq	90 <_start-0x7f70>
      60:	0b0b0104 	bleq	2c0478 <__bss_end__+0x2b5dd8>
      64:	0b3b0b3a 	bleq	ec2d54 <__bss_end__+0xeb86b4>
      68:	00001301 	andeq	r1, r0, r1, lsl #6
      6c:	0300280b 	movweq	r2, #2059	; 0x80b
      70:	000d1c0e 	andeq	r1, sp, lr, lsl #24
      74:	012e0c00 	teqeq	lr, r0, lsl #24
      78:	0b3a0e03 	bleq	e8388c <__bss_end__+0xe791ec>
      7c:	1927053b 	stmdbne	r7!, {r0, r1, r3, r4, r5, r8, sl}
      80:	0b201349 	bleq	804dac <__bss_end__+0x7fa70c>
      84:	00001301 	andeq	r1, r0, r1, lsl #6
      88:	0300050d 	movweq	r0, #1293	; 0x50d
      8c:	3b0b3a08 	blcc	2ce8b4 <__bss_end__+0x2c4214>
      90:	00134905 	andseq	r4, r3, r5, lsl #18
      94:	00340e00 	eorseq	r0, r4, r0, lsl #28
      98:	0b3a0e03 	bleq	e838ac <__bss_end__+0xe7920c>
      9c:	1349053b 	movtne	r0, #38203	; 0x953b
      a0:	050f0000 	streq	r0, [pc, #-0]	; a8 <_start-0x7f58>
      a4:	3a0e0300 	bcc	380cac <__bss_end__+0x37660c>
      a8:	49053b0b 	stmdbmi	r5, {r0, r1, r3, r8, r9, fp, ip, sp}
      ac:	10000013 	andne	r0, r0, r3, lsl r0
      b0:	0e03012e 	adfeqsp	f0, f3, #0.5
      b4:	0b3b0b3a 	bleq	ec2da4 <__bss_end__+0xeb8704>
      b8:	13491927 	movtne	r1, #39207	; 0x9927
      bc:	13010b20 	movwne	r0, #6944	; 0x1b20
      c0:	05110000 	ldreq	r0, [r1, #-0]
      c4:	3a080300 	bcc	200ccc <__bss_end__+0x1f662c>
      c8:	490b3b0b 	stmdbmi	fp, {r0, r1, r3, r8, r9, fp, ip, sp}
      cc:	12000013 	andne	r0, r0, #19
      d0:	0e030005 	cdpeq	0, 0, cr0, cr3, cr5, {0}
      d4:	0b3b0b3a 	bleq	ec2dc4 <__bss_end__+0xeb8724>
      d8:	00001349 	andeq	r1, r0, r9, asr #6
      dc:	03003413 	movweq	r3, #1043	; 0x413
      e0:	3b0b3a0e 	blcc	2ce920 <__bss_end__+0x2c4280>
      e4:	0013490b 	andseq	r4, r3, fp, lsl #18
      e8:	00341400 	eorseq	r1, r4, r0, lsl #8
      ec:	0b3a0803 	bleq	e82100 <__bss_end__+0xe77a60>
      f0:	13490b3b 	movtne	r0, #39739	; 0x9b3b
      f4:	2e150000 	cdpcs	0, 1, cr0, cr5, cr0, {0}
      f8:	03193f01 	tsteq	r9, #1, 30
      fc:	3b0b3a0e 	blcc	2ce93c <__bss_end__+0x2c429c>
     100:	1201110b 	andne	r1, r1, #-1073741822	; 0xc0000002
     104:	97184006 	ldrls	r4, [r8, -r6]
     108:	13011942 	movwne	r1, #6466	; 0x1942
     10c:	89160000 	ldmdbhi	r6, {}	; <UNPREDICTABLE>
     110:	11010182 	smlabbne	r1, r2, r1, r0
     114:	00133101 	andseq	r3, r3, r1, lsl #2
     118:	828a1700 	addhi	r1, sl, #0, 14
     11c:	18020001 	stmdane	r2, {r0}
     120:	00184291 	mulseq	r8, r1, r2
     124:	012e1800 	teqeq	lr, r0, lsl #16
     128:	0e03193f 	mcreq	9, 0, r1, cr3, cr15, {1}
     12c:	0b3b0b3a 	bleq	ec2e1c <__bss_end__+0xeb877c>
     130:	01111927 	tsteq	r1, r7, lsr #18
     134:	18400612 	stmdane	r0, {r1, r4, r9, sl}^
     138:	01194297 			; <UNDEFINED> instruction: 0x01194297
     13c:	19000013 	stmdbne	r0, {r0, r1, r4}
     140:	0e030005 	cdpeq	0, 0, cr0, cr3, cr5, {0}
     144:	0b3b0b3a 	bleq	ec2e34 <__bss_end__+0xeb8794>
     148:	17021349 	strne	r1, [r2, -r9, asr #6]
     14c:	051a0000 	ldreq	r0, [sl, #-0]
     150:	3a080300 	bcc	200d58 <__bss_end__+0x1f66b8>
     154:	490b3b0b 	stmdbmi	fp, {r0, r1, r3, r8, r9, fp, ip, sp}
     158:	00170213 	andseq	r0, r7, r3, lsl r2
     15c:	010b1b00 	tsteq	fp, r0, lsl #22
     160:	06120111 			; <UNDEFINED> instruction: 0x06120111
     164:	00001301 	andeq	r1, r0, r1, lsl #6
     168:	0300341c 	movweq	r3, #1052	; 0x41c
     16c:	3b0b3a08 	blcc	2ce994 <__bss_end__+0x2c42f4>
     170:	0213490b 	andseq	r4, r3, #180224	; 0x2c000
     174:	1d000017 	stcne	0, cr0, [r0, #-92]	; 0xffffffa4
     178:	1331011d 	teqne	r1, #1073741831	; 0x40000007
     17c:	06120111 			; <UNDEFINED> instruction: 0x06120111
     180:	0b590b58 	bleq	1642ee8 <__bss_end__+0x1638848>
     184:	00001301 	andeq	r1, r0, r1, lsl #6
     188:	3100051e 	tstcc	r0, lr, lsl r5
     18c:	00170213 	andseq	r0, r7, r3, lsl r2
     190:	010b1f00 	tsteq	fp, r0, lsl #30
     194:	06120111 			; <UNDEFINED> instruction: 0x06120111
     198:	34200000 	strtcc	r0, [r0], #-0
     19c:	02133100 	andseq	r3, r3, #0, 2
     1a0:	21000017 	tstcs	r0, r7, lsl r0
     1a4:	193f012e 	ldmdbne	pc!, {r1, r2, r3, r5, r8}	; <UNPREDICTABLE>
     1a8:	0b3a0e03 	bleq	e839bc <__bss_end__+0xe7931c>
     1ac:	19270b3b 	stmdbne	r7!, {r0, r1, r3, r4, r5, r8, r9, fp}
     1b0:	06120111 			; <UNDEFINED> instruction: 0x06120111
     1b4:	42961840 	addsmi	r1, r6, #64, 16	; 0x400000
     1b8:	00130119 	andseq	r0, r3, r9, lsl r1
     1bc:	82892200 	addhi	r2, r9, #0, 4
     1c0:	01110001 	tsteq	r1, r1
     1c4:	00184293 	mulseq	r8, r3, r2
     1c8:	00342300 	eorseq	r2, r4, r0, lsl #6
     1cc:	0b3a0e03 	bleq	e839e0 <__bss_end__+0xe79340>
     1d0:	13490b3b 	movtne	r0, #39739	; 0x9b3b
     1d4:	00001802 	andeq	r1, r0, r2, lsl #16
     1d8:	03003424 	movweq	r3, #1060	; 0x424
     1dc:	3b0b3a08 	blcc	2cea04 <__bss_end__+0x2c4364>
     1e0:	1c13490b 	ldcne	9, cr4, [r3], {11}
     1e4:	2500000b 	strcs	r0, [r0, #-11]
     1e8:	0e030034 	mcreq	0, 0, r0, cr3, cr4, {1}
     1ec:	19341349 	ldmdbne	r4!, {r0, r3, r6, r8, r9, ip}
     1f0:	00001802 	andeq	r1, r0, r2, lsl #16
     1f4:	01828926 	orreq	r8, r2, r6, lsr #18
     1f8:	31011101 	tstcc	r1, r1, lsl #2
     1fc:	00130113 	andseq	r0, r3, r3, lsl r1
     200:	82892700 	addhi	r2, r9, #0, 14
     204:	01110001 	tsteq	r1, r1
     208:	00001331 	andeq	r1, r0, r1, lsr r3
     20c:	03003428 	movweq	r3, #1064	; 0x428
     210:	3b0b3a08 	blcc	2cea38 <__bss_end__+0x2c4398>
     214:	0213490b 	andseq	r4, r3, #180224	; 0x2c000
     218:	29000018 	stmdbcs	r0, {r3, r4}
     21c:	13490035 	movtne	r0, #36917	; 0x9035
     220:	2e2a0000 	cdpcs	0, 2, cr0, cr10, cr0, {0}
     224:	03193f01 	tsteq	r9, #1, 30
     228:	3b0b3a0e 	blcc	2cea68 <__bss_end__+0x2c43c8>
     22c:	4919270b 	ldmdbmi	r9, {r0, r1, r3, r8, r9, sl, sp}
     230:	01193c13 	tsteq	r9, r3, lsl ip
     234:	2b000013 	blcs	288 <_start-0x7d78>
     238:	13490005 	movtne	r0, #36869	; 0x9005
     23c:	182c0000 	stmdane	ip!, {}	; <UNPREDICTABLE>
     240:	2d000000 	stccs	0, cr0, [r0, #-0]
     244:	193f002e 	ldmdbne	pc!, {r1, r2, r3, r5}	; <UNPREDICTABLE>
     248:	0b3a0e03 	bleq	e83a5c <__bss_end__+0xe793bc>
     24c:	19270b3b 	stmdbne	r7!, {r0, r1, r3, r4, r5, r8, r9, fp}
     250:	0000193c 	andeq	r1, r0, ip, lsr r9
     254:	01110100 	tsteq	r1, r0, lsl #2
     258:	0b130e25 	bleq	4c3af4 <__bss_end__+0x4b9454>
     25c:	0e1b0e03 	cdpeq	14, 1, cr0, cr11, cr3, {0}
     260:	06120111 			; <UNDEFINED> instruction: 0x06120111
     264:	00001710 	andeq	r1, r0, r0, lsl r7
     268:	03001602 	movweq	r1, #1538	; 0x602
     26c:	3b0b3a0e 	blcc	2ceaac <__bss_end__+0x2c440c>
     270:	0013490b 	andseq	r4, r3, fp, lsl #18
     274:	01130300 	tsteq	r3, r0, lsl #6
     278:	0b0b0e03 	bleq	2c3a8c <__bss_end__+0x2b93ec>
     27c:	0b3b0b3a 	bleq	ec2f6c <__bss_end__+0xeb88cc>
     280:	00001301 	andeq	r1, r0, r1, lsl #6
     284:	03000d04 	movweq	r0, #3332	; 0xd04
     288:	3813490e 	ldmdacc	r3, {r1, r2, r3, r8, fp, lr}
     28c:	0019340b 	andseq	r3, r9, fp, lsl #8
     290:	000f0500 	andeq	r0, pc, r0, lsl #10
     294:	00000b0b 	andeq	r0, r0, fp, lsl #22
     298:	0b002406 	bleq	92b8 <uart_init+0xc>
     29c:	030b3e0b 	movweq	r3, #48651	; 0xbe0b
     2a0:	07000008 	streq	r0, [r0, -r8]
     2a4:	0b0b0024 	bleq	2c033c <__bss_end__+0x2b5c9c>
     2a8:	0e030b3e 	vmoveq.16	d3[0], r0
     2ac:	0f080000 	svceq	0x00080000
     2b0:	490b0b00 	stmdbmi	fp, {r8, r9, fp}
     2b4:	09000013 	stmdbeq	r0, {r0, r1, r4}
     2b8:	13490026 	movtne	r0, #36902	; 0x9026
     2bc:	2e0a0000 	cdpcs	0, 0, cr0, cr10, cr0, {0}
     2c0:	03193f01 	tsteq	r9, #1, 30
     2c4:	3b0b3a0e 	blcc	2ceb04 <__bss_end__+0x2c4464>
     2c8:	4919270b 	ldmdbmi	r9, {r0, r1, r3, r8, r9, sl, sp}
     2cc:	12011113 	andne	r1, r1, #-1073741820	; 0xc0000004
     2d0:	97184006 	ldrls	r4, [r8, -r6]
     2d4:	13011942 	movwne	r1, #6466	; 0x1942
     2d8:	050b0000 	streq	r0, [fp, #-0]
     2dc:	3a080300 	bcc	200ee4 <__bss_end__+0x1f6844>
     2e0:	490b3b0b 	stmdbmi	fp, {r0, r1, r3, r8, r9, fp, ip, sp}
     2e4:	00180213 	andseq	r0, r8, r3, lsl r2
     2e8:	00180c00 	andseq	r0, r8, r0, lsl #24
     2ec:	340d0000 	strcc	r0, [sp], #-0
     2f0:	3a080300 	bcc	200ef8 <__bss_end__+0x1f6858>
     2f4:	490b3b0b 	stmdbmi	fp, {r0, r1, r3, r8, r9, fp, ip, sp}
     2f8:	00180213 	andseq	r0, r8, r3, lsl r2
     2fc:	00340e00 	eorseq	r0, r4, r0, lsl #28
     300:	0b3a0e03 	bleq	e83b14 <__bss_end__+0xe79474>
     304:	13490b3b 	movtne	r0, #39739	; 0x9b3b
     308:	00001802 	andeq	r1, r0, r2, lsl #16
     30c:	0300340f 	movweq	r3, #1039	; 0x40f
     310:	3b0b3a08 	blcc	2ceb38 <__bss_end__+0x2c4498>
     314:	0213490b 	andseq	r4, r3, #180224	; 0x2c000
     318:	10000017 	andne	r0, r0, r7, lsl r0
     31c:	01018289 	smlabbeq	r1, r9, r2, r8
     320:	13310111 	teqne	r1, #1073741828	; 0x40000004
     324:	00001301 	andeq	r1, r0, r1, lsl #6
     328:	01828a11 	orreq	r8, r2, r1, lsl sl
     32c:	91180200 	tstls	r8, r0, lsl #4
     330:	00001842 	andeq	r1, r0, r2, asr #16
     334:	01828912 	orreq	r8, r2, r2, lsl r9
     338:	00011101 	andeq	r1, r1, r1, lsl #2
     33c:	01011300 	mrseq	r1, SP_irq
     340:	13011349 	movwne	r1, #4937	; 0x1349
     344:	21140000 	tstcs	r4, r0
     348:	2f134900 	svccs	0x00134900
     34c:	15000005 	strne	r0, [r0, #-5]
     350:	19270115 	stmdbne	r7!, {r0, r2, r4, r8}
     354:	13011349 	movwne	r1, #4937	; 0x1349
     358:	05160000 	ldreq	r0, [r6, #-0]
     35c:	00134900 	andseq	r4, r3, r0, lsl #18
     360:	00341700 	eorseq	r1, r4, r0, lsl #14
     364:	0b3a0e03 	bleq	e83b78 <__bss_end__+0xe794d8>
     368:	13490b3b 	movtne	r0, #39739	; 0x9b3b
     36c:	193c193f 	ldmdbne	ip!, {r0, r1, r2, r3, r4, r5, r8, fp, ip}
     370:	2e180000 	cdpcs	0, 1, cr0, cr8, cr0, {0}
     374:	03193f01 	tsteq	r9, #1, 30
     378:	3b0b3a0e 	blcc	2cebb8 <__bss_end__+0x2c4518>
     37c:	4919270b 	ldmdbmi	r9, {r0, r1, r3, r8, r9, sl, sp}
     380:	00193c13 	andseq	r3, r9, r3, lsl ip
     384:	11010000 	mrsne	r0, (UNDEF: 1)
     388:	130e2501 	movwne	r2, #58625	; 0xe501
     38c:	1b0e030b 	blne	380fc0 <__bss_end__+0x376920>
     390:	1201110e 	andne	r1, r1, #-2147483645	; 0x80000003
     394:	00171006 	andseq	r1, r7, r6
     398:	00240200 	eoreq	r0, r4, r0, lsl #4
     39c:	0b3e0b0b 	bleq	f82fd0 <__bss_end__+0xf78930>
     3a0:	00000803 	andeq	r0, r0, r3, lsl #16
     3a4:	0b002403 	bleq	93b8 <uart_putc+0x10>
     3a8:	030b3e0b 	movweq	r3, #48651	; 0xbe0b
     3ac:	0400000e 	streq	r0, [r0], #-14
     3b0:	0e03012e 	adfeqsp	f0, f3, #0.5
     3b4:	0b3b0b3a 	bleq	ec30a4 <__bss_end__+0xeb8a04>
     3b8:	13491927 	movtne	r1, #39207	; 0x9927
     3bc:	06120111 			; <UNDEFINED> instruction: 0x06120111
     3c0:	42971840 	addsmi	r1, r7, #64, 16	; 0x400000
     3c4:	00130119 	andseq	r0, r3, r9, lsl r1
     3c8:	00050500 	andeq	r0, r5, r0, lsl #10
     3cc:	0b3a0803 	bleq	e823e0 <__bss_end__+0xe77d40>
     3d0:	13490b3b 	movtne	r0, #39739	; 0x9b3b
     3d4:	00001702 	andeq	r1, r0, r2, lsl #14
     3d8:	01828906 	orreq	r8, r2, r6, lsl #18
     3dc:	31011101 	tstcc	r1, r1, lsl #2
     3e0:	07000013 	smladeq	r0, r3, r0, r0
     3e4:	0001828a 	andeq	r8, r1, sl, lsl #5
     3e8:	42911802 	addsmi	r1, r1, #131072	; 0x20000
     3ec:	08000018 	stmdaeq	r0, {r3, r4}
     3f0:	193f002e 	ldmdbne	pc!, {r1, r2, r3, r5}	; <UNPREDICTABLE>
     3f4:	0b3a0e03 	bleq	e83c08 <__bss_end__+0xe79568>
     3f8:	19270b3b 	stmdbne	r7!, {r0, r1, r3, r4, r5, r8, r9, fp}
     3fc:	06120111 			; <UNDEFINED> instruction: 0x06120111
     400:	42971840 	addsmi	r1, r7, #64, 16	; 0x400000
     404:	09000019 	stmdbeq	r0, {r0, r3, r4}
     408:	193f012e 	ldmdbne	pc!, {r1, r2, r3, r5, r8}	; <UNPREDICTABLE>
     40c:	0b3a0e03 	bleq	e83c20 <__bss_end__+0xe79580>
     410:	19270b3b 	stmdbne	r7!, {r0, r1, r3, r4, r5, r8, r9, fp}
     414:	06120111 			; <UNDEFINED> instruction: 0x06120111
     418:	42971840 	addsmi	r1, r7, #64, 16	; 0x400000
     41c:	00130119 	andseq	r0, r3, r9, lsl r1
     420:	00050a00 	andeq	r0, r5, r0, lsl #20
     424:	0b3a0803 	bleq	e82438 <__bss_end__+0xe77d98>
     428:	13490b3b 	movtne	r0, #39739	; 0x9b3b
     42c:	00001802 	andeq	r1, r0, r2, lsl #16
     430:	2701150b 	strcs	r1, [r1, -fp, lsl #10]
     434:	01134919 	tsteq	r3, r9, lsl r9
     438:	0c000013 	stceq	0, cr0, [r0], {19}
     43c:	13490005 	movtne	r0, #36869	; 0x9005
     440:	0f0d0000 	svceq	0x000d0000
     444:	490b0b00 	stmdbmi	fp, {r8, r9, fp}
     448:	0e000013 	mcreq	0, 0, r0, cr0, cr3, {0}
     44c:	0e030034 	mcreq	0, 0, r0, cr3, cr4, {1}
     450:	0b3b0b3a 	bleq	ec3140 <__bss_end__+0xeb8aa0>
     454:	193f1349 	ldmdbne	pc!, {r0, r3, r6, r8, r9, ip}	; <UNPREDICTABLE>
     458:	00001802 	andeq	r1, r0, r2, lsl #16
     45c:	3f012e0f 	svccc	0x00012e0f
     460:	3a0e0319 	bcc	3810cc <__bss_end__+0x376a2c>
     464:	270b3b0b 	strcs	r3, [fp, -fp, lsl #22]
     468:	00193c19 	andseq	r3, r9, r9, lsl ip
     46c:	11010000 	mrsne	r0, (UNDEF: 1)
     470:	130e2501 	movwne	r2, #58625	; 0xe501
     474:	1b0e030b 	blne	3810a8 <__bss_end__+0x376a08>
     478:	1201110e 	andne	r1, r1, #-2147483645	; 0x80000003
     47c:	00171006 	andseq	r1, r7, r6
     480:	00240200 	eoreq	r0, r4, r0, lsl #4
     484:	0b3e0b0b 	bleq	f830b8 <__bss_end__+0xf78a18>
     488:	00000803 	andeq	r0, r0, r3, lsl #16
     48c:	0b002403 	bleq	94a0 <gpio_set_output+0x3c>
     490:	030b3e0b 	movweq	r3, #48651	; 0xbe0b
     494:	0400000e 	streq	r0, [r0], #-14
     498:	0b0b000f 	bleq	2c04dc <__bss_end__+0x2b5e3c>
     49c:	00001349 	andeq	r1, r0, r9, asr #6
     4a0:	49002605 	stmdbmi	r0, {r0, r2, r9, sl, sp}
     4a4:	06000013 			; <UNDEFINED> instruction: 0x06000013
     4a8:	193f012e 	ldmdbne	pc!, {r1, r2, r3, r5, r8}	; <UNPREDICTABLE>
     4ac:	0b3a0e03 	bleq	e83cc0 <__bss_end__+0xe79620>
     4b0:	19270b3b 	stmdbne	r7!, {r0, r1, r3, r4, r5, r8, r9, fp}
     4b4:	01111349 	tsteq	r1, r9, asr #6
     4b8:	18400612 	stmdane	r0, {r1, r4, r9, sl}^
     4bc:	01194296 			; <UNDEFINED> instruction: 0x01194296
     4c0:	07000013 	smladeq	r0, r3, r0, r0
     4c4:	08030005 	stmdaeq	r3, {r0, r2}
     4c8:	0b3b0b3a 	bleq	ec31b8 <__bss_end__+0xeb8b18>
     4cc:	17021349 	strne	r1, [r2, -r9, asr #6]
     4d0:	15080000 	strne	r0, [r8, #-0]
     4d4:	49192701 	ldmdbmi	r9, {r0, r8, r9, sl, sp}
     4d8:	00130113 	andseq	r0, r3, r3, lsl r1
     4dc:	00050900 	andeq	r0, r5, r0, lsl #18
     4e0:	00001349 	andeq	r1, r0, r9, asr #6
     4e4:	0300340a 	movweq	r3, #1034	; 0x40a
     4e8:	3b0b3a0e 	blcc	2ced28 <__bss_end__+0x2c4688>
     4ec:	3f13490b 	svccc	0x0013490b
     4f0:	00193c19 	andseq	r3, r9, r9, lsl ip
     4f4:	00340b00 	eorseq	r0, r4, r0, lsl #22
     4f8:	0b3a0e03 	bleq	e83d0c <__bss_end__+0xe7966c>
     4fc:	13490b3b 	movtne	r0, #39739	; 0x9b3b
     500:	1802193f 	stmdane	r2, {r0, r1, r2, r3, r4, r5, r8, fp, ip}
     504:	01000000 	mrseq	r0, (UNDEF: 0)
     508:	0e250111 	mcreq	1, 1, r0, cr5, cr1, {0}
     50c:	0e030b13 	vmoveq.32	d3[0], r0
     510:	01110e1b 	tsteq	r1, fp, lsl lr
     514:	17100612 			; <UNDEFINED> instruction: 0x17100612
     518:	24020000 	strcs	r0, [r2], #-0
     51c:	3e0b0b00 	vmlacc.f64	d0, d11, d0
     520:	0008030b 	andeq	r0, r8, fp, lsl #6
     524:	00240300 	eoreq	r0, r4, r0, lsl #6
     528:	0b3e0b0b 	bleq	f8315c <__bss_end__+0xf78abc>
     52c:	00000e03 	andeq	r0, r0, r3, lsl #28
     530:	0b000f04 	bleq	4148 <_start-0x3eb8>
     534:	0500000b 	streq	r0, [r0, #-11]
     538:	0b0b000f 	bleq	2c057c <__bss_end__+0x2b5edc>
     53c:	00001349 	andeq	r1, r0, r9, asr #6
     540:	49002606 	stmdbmi	r0, {r1, r2, r9, sl, sp}
     544:	07000013 	smladeq	r0, r3, r0, r0
     548:	0e030016 	mcreq	0, 0, r0, cr3, cr6, {0}
     54c:	0b3b0b3a 	bleq	ec323c <__bss_end__+0xeb8b9c>
     550:	00001349 	andeq	r1, r0, r9, asr #6
     554:	03011308 	movweq	r1, #4872	; 0x1308
     558:	3a0b0b0e 	bcc	2c3198 <__bss_end__+0x2b8af8>
     55c:	010b3b0b 	tsteq	fp, fp, lsl #22
     560:	09000013 	stmdbeq	r0, {r0, r1, r4}
     564:	0e03000d 	cdpeq	0, 0, cr0, cr3, cr13, {0}
     568:	0b381349 	bleq	e05294 <__bss_end__+0xdfabf4>
     56c:	00001934 	andeq	r1, r0, r4, lsr r9
     570:	03012e0a 	movweq	r2, #7690	; 0x1e0a
     574:	3b0b3a0e 	blcc	2cedb4 <__bss_end__+0x2c4714>
     578:	4919270b 	ldmdbmi	r9, {r0, r1, r3, r8, r9, sl, sp}
     57c:	12011113 	andne	r1, r1, #-1073741820	; 0xc0000004
     580:	97184006 	ldrls	r4, [r8, -r6]
     584:	13011942 	movwne	r1, #6466	; 0x1942
     588:	050b0000 	streq	r0, [fp, #-0]
     58c:	3a080300 	bcc	201194 <__bss_end__+0x1f6af4>
     590:	490b3b0b 	stmdbmi	fp, {r0, r1, r3, r8, r9, fp, ip, sp}
     594:	00170213 	andseq	r0, r7, r3, lsl r2
     598:	012e0c00 	teqeq	lr, r0, lsl #24
     59c:	0b3a0803 	bleq	e825b0 <__bss_end__+0xe77f10>
     5a0:	19270b3b 	stmdbne	r7!, {r0, r1, r3, r4, r5, r8, r9, fp}
     5a4:	01111349 	tsteq	r1, r9, asr #6
     5a8:	18400612 	stmdane	r0, {r1, r4, r9, sl}^
     5ac:	01194297 			; <UNDEFINED> instruction: 0x01194297
     5b0:	0d000013 	stceq	0, cr0, [r0, #-76]	; 0xffffffb4
     5b4:	0e030005 	cdpeq	0, 0, cr0, cr3, cr5, {0}
     5b8:	0b3b0b3a 	bleq	ec32a8 <__bss_end__+0xeb8c08>
     5bc:	17021349 	strne	r1, [r2, -r9, asr #6]
     5c0:	050e0000 	streq	r0, [lr, #-0]
     5c4:	3a0e0300 	bcc	3811cc <__bss_end__+0x376b2c>
     5c8:	490b3b0b 	stmdbmi	fp, {r0, r1, r3, r8, r9, fp, ip, sp}
     5cc:	00180213 	andseq	r0, r8, r3, lsl r2
     5d0:	00340f00 	eorseq	r0, r4, r0, lsl #30
     5d4:	0b3a0803 	bleq	e825e8 <__bss_end__+0xe77f48>
     5d8:	13490b3b 	movtne	r0, #39739	; 0x9b3b
     5dc:	00001802 	andeq	r1, r0, r2, lsl #16
     5e0:	03003410 	movweq	r3, #1040	; 0x410
     5e4:	3b0b3a08 	blcc	2cee0c <__bss_end__+0x2c476c>
     5e8:	0213490b 	andseq	r4, r3, #180224	; 0x2c000
     5ec:	11000017 	tstne	r0, r7, lsl r0
     5f0:	0e030034 	mcreq	0, 0, r0, cr3, cr4, {1}
     5f4:	19341349 	ldmdbne	r4!, {r0, r3, r6, r8, r9, ip}
     5f8:	00001802 	andeq	r1, r0, r2, lsl #16
     5fc:	11010b12 	tstne	r1, r2, lsl fp
     600:	01061201 	tsteq	r6, r1, lsl #4
     604:	13000013 	movwne	r0, #19
     608:	0e030034 	mcreq	0, 0, r0, cr3, cr4, {1}
     60c:	0b3b0b3a 	bleq	ec32fc <__bss_end__+0xeb8c5c>
     610:	17021349 	strne	r1, [r2, -r9, asr #6]
     614:	89140000 	ldmdbhi	r4, {}	; <UNPREDICTABLE>
     618:	11000182 	smlabbne	r0, r2, r1, r0
     61c:	00133101 	andseq	r3, r3, r1, lsl #2
     620:	82891500 	addhi	r1, r9, #0, 10
     624:	01110101 	tsteq	r1, r1, lsl #2
     628:	13011331 	movwne	r1, #4913	; 0x1331
     62c:	8a160000 	bhi	580634 <__bss_end__+0x575f94>
     630:	02000182 	andeq	r0, r0, #-2147483616	; 0x80000020
     634:	18429118 	stmdane	r2, {r3, r4, r8, ip, pc}^
     638:	89170000 	ldmdbhi	r7, {}	; <UNPREDICTABLE>
     63c:	11010182 	smlabbne	r1, r2, r1, r0
     640:	00133101 	andseq	r3, r3, r1, lsl #2
     644:	01011800 	tsteq	r1, r0, lsl #16
     648:	13011349 	movwne	r1, #4937	; 0x1349
     64c:	21190000 	tstcs	r9, r0
     650:	2f134900 	svccs	0x00134900
     654:	1a00000b 	bne	688 <_start-0x7978>
     658:	193f012e 	ldmdbne	pc!, {r1, r2, r3, r5, r8}	; <UNPREDICTABLE>
     65c:	0b3a0e03 	bleq	e83e70 <__bss_end__+0xe797d0>
     660:	19270b3b 	stmdbne	r7!, {r0, r1, r3, r4, r5, r8, r9, fp}
     664:	06120111 			; <UNDEFINED> instruction: 0x06120111
     668:	42971840 	addsmi	r1, r7, #64, 16	; 0x400000
     66c:	00130119 	andseq	r0, r3, r9, lsl r1
     670:	01151b00 	tsteq	r5, r0, lsl #22
     674:	13491927 	movtne	r1, #39207	; 0x9927
     678:	00001301 	andeq	r1, r0, r1, lsl #6
     67c:	4900051c 	stmdbmi	r0, {r2, r3, r4, r8, sl}
     680:	1d000013 	stcne	0, cr0, [r0, #-76]	; 0xffffffb4
     684:	193f012e 	ldmdbne	pc!, {r1, r2, r3, r5, r8}	; <UNPREDICTABLE>
     688:	0b3a0e03 	bleq	e83e9c <__bss_end__+0xe797fc>
     68c:	19270b3b 	stmdbne	r7!, {r0, r1, r3, r4, r5, r8, r9, fp}
     690:	01111349 	tsteq	r1, r9, asr #6
     694:	18400612 	stmdane	r0, {r1, r4, r9, sl}^
     698:	01194297 			; <UNDEFINED> instruction: 0x01194297
     69c:	1e000013 	mcrne	0, 0, r0, cr0, cr3, {0}
     6a0:	1755010b 	ldrbne	r0, [r5, -fp, lsl #2]
     6a4:	341f0000 	ldrcc	r0, [pc], #-0	; 6ac <_start-0x7954>
     6a8:	3a0e0300 	bcc	3812b0 <__bss_end__+0x376c10>
     6ac:	490b3b0b 	stmdbmi	fp, {r0, r1, r3, r8, r9, fp, ip, sp}
     6b0:	3c193f13 	ldccc	15, cr3, [r9], {19}
     6b4:	20000019 	andcs	r0, r0, r9, lsl r0
     6b8:	193f002e 	ldmdbne	pc!, {r1, r2, r3, r5}	; <UNPREDICTABLE>
     6bc:	0b3a0e03 	bleq	e83ed0 <__bss_end__+0xe79830>
     6c0:	19270b3b 	stmdbne	r7!, {r0, r1, r3, r4, r5, r8, r9, fp}
     6c4:	0000193c 	andeq	r1, r0, ip, lsr r9
     6c8:	3f012e21 	svccc	0x00012e21
     6cc:	3a0e0319 	bcc	381338 <__bss_end__+0x376c98>
     6d0:	270b3b0b 	strcs	r3, [fp, -fp, lsl #22]
     6d4:	3c134919 	ldccc	9, cr4, [r3], {25}
     6d8:	00130119 	andseq	r0, r3, r9, lsl r1
     6dc:	00182200 	andseq	r2, r8, r0, lsl #4
     6e0:	01000000 	mrseq	r0, (UNDEF: 0)
     6e4:	0e250111 	mcreq	1, 1, r0, cr5, cr1, {0}
     6e8:	0e030b13 	vmoveq.32	d3[0], r0
     6ec:	01110e1b 	tsteq	r1, fp, lsl lr
     6f0:	17100612 			; <UNDEFINED> instruction: 0x17100612
     6f4:	24020000 	strcs	r0, [r2], #-0
     6f8:	3e0b0b00 	vmlacc.f64	d0, d11, d0
     6fc:	0008030b 	andeq	r0, r8, fp, lsl #6
     700:	00240300 	eoreq	r0, r4, r0, lsl #6
     704:	0b3e0b0b 	bleq	f83338 <__bss_end__+0xf78c98>
     708:	00000e03 	andeq	r0, r0, r3, lsl #28
     70c:	0b000f04 	bleq	4324 <_start-0x3cdc>
     710:	0013490b 	andseq	r4, r3, fp, lsl #18
     714:	00260500 	eoreq	r0, r6, r0, lsl #10
     718:	00001349 	andeq	r1, r0, r9, asr #6
     71c:	3f012e06 	svccc	0x00012e06
     720:	3a0e0319 	bcc	38138c <__bss_end__+0x376cec>
     724:	270b3b0b 	strcs	r3, [fp, -fp, lsl #22]
     728:	12011119 	andne	r1, r1, #1073741830	; 0x40000006
     72c:	97184006 	ldrls	r4, [r8, -r6]
     730:	13011942 	movwne	r1, #6466	; 0x1942
     734:	89070000 	stmdbhi	r7, {}	; <UNPREDICTABLE>
     738:	11010182 	smlabbne	r1, r2, r1, r0
     73c:	00130101 	andseq	r0, r3, r1, lsl #2
     740:	828a0800 	addhi	r0, sl, #0, 16
     744:	18020001 	stmdane	r2, {r0}
     748:	00184291 	mulseq	r8, r1, r2
     74c:	82890900 	addhi	r0, r9, #0, 18
     750:	01110101 	tsteq	r1, r1, lsl #2
     754:	13011331 	movwne	r1, #4913	; 0x1331
     758:	890a0000 	stmdbhi	sl, {}	; <UNPREDICTABLE>
     75c:	11000182 	smlabbne	r0, r2, r1, r0
     760:	00133101 	andseq	r3, r3, r1, lsl #2
     764:	01150b00 	tsteq	r5, r0, lsl #22
     768:	13491927 	movtne	r1, #39207	; 0x9927
     76c:	00001301 	andeq	r1, r0, r1, lsl #6
     770:	4900050c 	stmdbmi	r0, {r2, r3, r8, sl}
     774:	0d000013 	stceq	0, cr0, [r0, #-76]	; 0xffffffb4
     778:	0e030034 	mcreq	0, 0, r0, cr3, cr4, {1}
     77c:	0b3b0b3a 	bleq	ec346c <__bss_end__+0xeb8dcc>
     780:	193f1349 	ldmdbne	pc!, {r0, r3, r6, r8, r9, ip}	; <UNPREDICTABLE>
     784:	0000193c 	andeq	r1, r0, ip, lsr r9
     788:	3f012e0e 	svccc	0x00012e0e
     78c:	3a0e0319 	bcc	3813f8 <__bss_end__+0x376d58>
     790:	270b3b0b 	strcs	r3, [fp, -fp, lsl #22]
     794:	01193c19 	tsteq	r9, r9, lsl ip
     798:	0f000013 	svceq	0x00000013
     79c:	193f002e 	ldmdbne	pc!, {r1, r2, r3, r5}	; <UNPREDICTABLE>
     7a0:	0b3a0e03 	bleq	e83fb4 <__bss_end__+0xe79914>
     7a4:	19270b3b 	stmdbne	r7!, {r0, r1, r3, r4, r5, r8, r9, fp}
     7a8:	0000193c 	andeq	r1, r0, ip, lsr r9
     7ac:	01110100 	tsteq	r1, r0, lsl #2
     7b0:	0b130e25 	bleq	4c404c <__bss_end__+0x4b99ac>
     7b4:	0e1b0e03 	cdpeq	14, 1, cr0, cr11, cr3, {0}
     7b8:	06120111 			; <UNDEFINED> instruction: 0x06120111
     7bc:	00001710 	andeq	r1, r0, r0, lsl r7
     7c0:	0b002402 	bleq	97d0 <is_gpio_int+0x14>
     7c4:	030b3e0b 	movweq	r3, #48651	; 0xbe0b
     7c8:	03000008 	movweq	r0, #8
     7cc:	0b0b0024 	bleq	2c0864 <__bss_end__+0x2b61c4>
     7d0:	0e030b3e 	vmoveq.16	d3[0], r0
     7d4:	16040000 	strne	r0, [r4], -r0
     7d8:	3a0e0300 	bcc	3813e0 <__bss_end__+0x376d40>
     7dc:	490b3b0b 	stmdbmi	fp, {r0, r1, r3, r8, r9, fp, ip, sp}
     7e0:	05000013 	streq	r0, [r0, #-19]
     7e4:	0b0b000f 	bleq	2c0828 <__bss_end__+0x2b6188>
     7e8:	00001349 	andeq	r1, r0, r9, asr #6
     7ec:	49002606 	stmdbmi	r0, {r1, r2, r9, sl, sp}
     7f0:	07000013 	smladeq	r0, r3, r0, r0
     7f4:	0b0b0113 	bleq	2c0c48 <__bss_end__+0x2b65a8>
     7f8:	0b3b0b3a 	bleq	ec34e8 <__bss_end__+0xeb8e48>
     7fc:	00001301 	andeq	r1, r0, r1, lsl #6
     800:	03000d08 	movweq	r0, #3336	; 0xd08
     804:	3b0b3a08 	blcc	2cf02c <__bss_end__+0x2c498c>
     808:	3813490b 	ldmdacc	r3, {r0, r1, r3, r8, fp, lr}
     80c:	0900000b 	stmdbeq	r0, {r0, r1, r3}
     810:	0e03000d 	cdpeq	0, 0, cr0, cr3, cr13, {0}
     814:	0b3b0b3a 	bleq	ec3504 <__bss_end__+0xeb8e64>
     818:	0b381349 	bleq	e05544 <__bss_end__+0xdfaea4>
     81c:	040a0000 	streq	r0, [sl], #-0
     820:	3a0b0b01 	bcc	2c342c <__bss_end__+0x2b8d8c>
     824:	010b3b0b 	tsteq	fp, fp, lsl #22
     828:	0b000013 	bleq	87c <_start-0x7784>
     82c:	0e030028 	cdpeq	0, 0, cr0, cr3, cr8, {1}
     830:	00000d1c 	andeq	r0, r0, ip, lsl sp
     834:	03012e0c 	movweq	r2, #7692	; 0x1e0c
     838:	3b0b3a0e 	blcc	2cf078 <__bss_end__+0x2c49d8>
     83c:	4919270b 	ldmdbmi	r9, {r0, r1, r3, r8, r9, sl, sp}
     840:	12011113 	andne	r1, r1, #-1073741820	; 0xc0000004
     844:	97184006 	ldrls	r4, [r8, -r6]
     848:	13011942 	movwne	r1, #6466	; 0x1942
     84c:	050d0000 	streq	r0, [sp, #-0]
     850:	3a080300 	bcc	201458 <__bss_end__+0x1f6db8>
     854:	490b3b0b 	stmdbmi	fp, {r0, r1, r3, r8, r9, fp, ip, sp}
     858:	00170213 	andseq	r0, r7, r3, lsl r2
     85c:	82890e00 	addhi	r0, r9, #0, 28
     860:	01110101 	tsteq	r1, r1, lsl #2
     864:	00001331 	andeq	r1, r0, r1, lsr r3
     868:	01828a0f 	orreq	r8, r2, pc, lsl #20
     86c:	91180200 	tstls	r8, r0, lsl #4
     870:	00001842 	andeq	r1, r0, r2, asr #16
     874:	3f012e10 	svccc	0x00012e10
     878:	3a0e0319 	bcc	3814e4 <__bss_end__+0x376e44>
     87c:	110b3b0b 	tstne	fp, fp, lsl #22
     880:	40061201 	andmi	r1, r6, r1, lsl #4
     884:	19429718 	stmdbne	r2, {r3, r4, r8, r9, sl, ip, pc}^
     888:	00001301 	andeq	r1, r0, r1, lsl #6
     88c:	03003411 	movweq	r3, #1041	; 0x411
     890:	3b0b3a0e 	blcc	2cf0d0 <__bss_end__+0x2c4a30>
     894:	3f13490b 	svccc	0x0013490b
     898:	00193c19 	andseq	r3, r9, r9, lsl ip
     89c:	002e1200 	eoreq	r1, lr, r0, lsl #4
     8a0:	0e03193f 	mcreq	9, 0, r1, cr3, cr15, {1}
     8a4:	0b3b0b3a 	bleq	ec3594 <__bss_end__+0xeb8ef4>
     8a8:	193c1927 	ldmdbne	ip!, {r0, r1, r2, r5, r8, fp, ip}
     8ac:	34130000 	ldrcc	r0, [r3], #-0
     8b0:	3a080300 	bcc	2014b8 <__bss_end__+0x1f6e18>
     8b4:	490b3b0b 	stmdbmi	fp, {r0, r1, r3, r8, r9, fp, ip, sp}
     8b8:	00170213 	andseq	r0, r7, r3, lsl r2
     8bc:	00341400 	eorseq	r1, r4, r0, lsl #8
     8c0:	0b3a0e03 	bleq	e840d4 <__bss_end__+0xe79a34>
     8c4:	13490b3b 	movtne	r0, #39739	; 0x9b3b
     8c8:	89150000 	ldmdbhi	r5, {}	; <UNPREDICTABLE>
     8cc:	11000182 	smlabbne	r0, r2, r1, r0
     8d0:	00133101 	andseq	r3, r3, r1, lsl #2
     8d4:	82891600 	addhi	r1, r9, #0, 12
     8d8:	01110101 	tsteq	r1, r1, lsl #2
     8dc:	13011331 	movwne	r1, #4913	; 0x1331
     8e0:	34170000 	ldrcc	r0, [r7], #-0
     8e4:	3a0e0300 	bcc	3814ec <__bss_end__+0x376e4c>
     8e8:	490b3b0b 	stmdbmi	fp, {r0, r1, r3, r8, r9, fp, ip, sp}
     8ec:	00180213 	andseq	r0, r8, r3, lsl r2
     8f0:	01151800 	tsteq	r5, r0, lsl #16
     8f4:	13491927 	movtne	r1, #39207	; 0x9927
     8f8:	00001301 	andeq	r1, r0, r1, lsl #6
     8fc:	49000519 	stmdbmi	r0, {r0, r3, r4, r8, sl}
     900:	1a000013 	bne	954 <_start-0x76ac>
     904:	193f012e 	ldmdbne	pc!, {r1, r2, r3, r5, r8}	; <UNPREDICTABLE>
     908:	0b3a0e03 	bleq	e8411c <__bss_end__+0xe79a7c>
     90c:	19270b3b 	stmdbne	r7!, {r0, r1, r3, r4, r5, r8, r9, fp}
     910:	1301193c 	movwne	r1, #6460	; 0x193c
     914:	2e1b0000 	cdpcs	0, 1, cr0, cr11, cr0, {0}
     918:	03193f00 	tsteq	r9, #0, 30
     91c:	3b0b3a0e 	blcc	2cf15c <__bss_end__+0x2c4abc>
     920:	4919270b 	ldmdbmi	r9, {r0, r1, r3, r8, r9, sl, sp}
     924:	00193c13 	andseq	r3, r9, r3, lsl ip
     928:	012e1c00 	teqeq	lr, r0, lsl #24
     92c:	0e03193f 	mcreq	9, 0, r1, cr3, cr15, {1}
     930:	0b3b0b3a 	bleq	ec3620 <__bss_end__+0xeb8f80>
     934:	13491927 	movtne	r1, #39207	; 0x9927
     938:	1301193c 	movwne	r1, #6460	; 0x193c
     93c:	181d0000 	ldmdane	sp, {}	; <UNPREDICTABLE>
     940:	00000000 	andeq	r0, r0, r0
     944:	25011101 	strcs	r1, [r1, #-257]	; 0x101
     948:	030b130e 	movweq	r1, #45838	; 0xb30e
     94c:	550e1b0e 	strpl	r1, [lr, #-2830]	; 0xb0e
     950:	10011117 	andne	r1, r1, r7, lsl r1
     954:	02000017 	andeq	r0, r0, #23
     958:	0b0b0024 	bleq	2c09f0 <__bss_end__+0x2b6350>
     95c:	08030b3e 	stmdaeq	r3, {r1, r2, r3, r4, r5, r8, r9, fp}
     960:	24030000 	strcs	r0, [r3], #-0
     964:	3e0b0b00 	vmlacc.f64	d0, d11, d0
     968:	000e030b 	andeq	r0, lr, fp, lsl #6
     96c:	012e0400 	teqeq	lr, r0, lsl #8
     970:	0e03193f 	mcreq	9, 0, r1, cr3, cr15, {1}
     974:	0b3b0b3a 	bleq	ec3664 <__bss_end__+0xeb8fc4>
     978:	13491927 	movtne	r1, #39207	; 0x9927
     97c:	06120111 			; <UNDEFINED> instruction: 0x06120111
     980:	42971840 	addsmi	r1, r7, #64, 16	; 0x400000
     984:	00130119 	andseq	r0, r3, r9, lsl r1
     988:	00340500 	eorseq	r0, r4, r0, lsl #10
     98c:	0b3a0e03 	bleq	e841a0 <__bss_end__+0xe79b00>
     990:	13490b3b 	movtne	r0, #39739	; 0x9b3b
     994:	00001702 	andeq	r1, r0, r2, lsl #14
     998:	3f012e06 	svccc	0x00012e06
     99c:	3a0e0319 	bcc	381608 <__bss_end__+0x376f68>
     9a0:	270b3b0b 	strcs	r3, [fp, -fp, lsl #22]
     9a4:	12011119 	andne	r1, r1, #1073741830	; 0x40000006
     9a8:	97184006 	ldrls	r4, [r8, -r6]
     9ac:	13011942 	movwne	r1, #6466	; 0x1942
     9b0:	34070000 	strcc	r0, [r7], #-0
     9b4:	3a0e0300 	bcc	3815bc <__bss_end__+0x376f1c>
     9b8:	490b3b0b 	stmdbmi	fp, {r0, r1, r3, r8, r9, fp, ip, sp}
     9bc:	00061c13 	andeq	r1, r6, r3, lsl ip
     9c0:	00340800 	eorseq	r0, r4, r0, lsl #16
     9c4:	0b3a0e03 	bleq	e841d8 <__bss_end__+0xe79b38>
     9c8:	13490b3b 	movtne	r0, #39739	; 0x9b3b
     9cc:	00000b1c 	andeq	r0, r0, ip, lsl fp
     9d0:	01828909 	orreq	r8, r2, r9, lsl #18
     9d4:	31011100 	mrscc	r1, (UNDEF: 17)
     9d8:	0a000013 	beq	a2c <_start-0x75d4>
     9dc:	01018289 	smlabbeq	r1, r9, r2, r8
     9e0:	13310111 	teqne	r1, #1073741828	; 0x40000004
     9e4:	00001301 	andeq	r1, r0, r1, lsl #6
     9e8:	01828a0b 	orreq	r8, r2, fp, lsl #20
     9ec:	91180200 	tstls	r8, r0, lsl #4
     9f0:	00001842 	andeq	r1, r0, r2, asr #16
     9f4:	0182890c 	orreq	r8, r2, ip, lsl #18
     9f8:	31011101 	tstcc	r1, r1, lsl #2
     9fc:	0d000013 	stceq	0, cr0, [r0, #-76]	; 0xffffffb4
     a00:	13490026 	movtne	r0, #36902	; 0x9026
     a04:	2e0e0000 	cdpcs	0, 0, cr0, cr14, cr0, {0}
     a08:	03193f01 	tsteq	r9, #1, 30
     a0c:	3b0b3a0e 	blcc	2cf24c <__bss_end__+0x2c4bac>
     a10:	3c19270b 	ldccc	7, cr2, [r9], {11}
     a14:	00130119 	andseq	r0, r3, r9, lsl r1
     a18:	00050f00 	andeq	r0, r5, r0, lsl #30
     a1c:	00001349 	andeq	r1, r0, r9, asr #6
     a20:	3f012e10 	svccc	0x00012e10
     a24:	3a0e0319 	bcc	381690 <__bss_end__+0x376ff0>
     a28:	270b3b0b 	strcs	r3, [fp, -fp, lsl #22]
     a2c:	00193c19 	andseq	r3, r9, r9, lsl ip
     a30:	11010000 	mrsne	r0, (UNDEF: 1)
     a34:	130e2501 	movwne	r2, #58625	; 0xe501
     a38:	1b0e030b 	blne	38166c <__bss_end__+0x376fcc>
     a3c:	1201110e 	andne	r1, r1, #-2147483645	; 0x80000003
     a40:	00171006 	andseq	r1, r7, r6
     a44:	00240200 	eoreq	r0, r4, r0, lsl #4
     a48:	0b3e0b0b 	bleq	f8367c <__bss_end__+0xf78fdc>
     a4c:	00000803 	andeq	r0, r0, r3, lsl #16
     a50:	0b002403 	bleq	9a64 <AUX_MU_STAT_REG>
     a54:	030b3e0b 	movweq	r3, #48651	; 0xbe0b
     a58:	0400000e 	streq	r0, [r0], #-14
     a5c:	193f012e 	ldmdbne	pc!, {r1, r2, r3, r5, r8}	; <UNPREDICTABLE>
     a60:	0b3a0e03 	bleq	e84274 <__bss_end__+0xe79bd4>
     a64:	19270b3b 	stmdbne	r7!, {r0, r1, r3, r4, r5, r8, r9, fp}
     a68:	06120111 			; <UNDEFINED> instruction: 0x06120111
     a6c:	42971840 	addsmi	r1, r7, #64, 16	; 0x400000
     a70:	00130119 	andseq	r0, r3, r9, lsl r1
     a74:	00050500 	andeq	r0, r5, r0, lsl #10
     a78:	0b3a0e03 	bleq	e8428c <__bss_end__+0xe79bec>
     a7c:	13490b3b 	movtne	r0, #39739	; 0x9b3b
     a80:	00001702 	andeq	r1, r0, r2, lsl #14
     a84:	3f012e06 	svccc	0x00012e06
     a88:	3a0e0319 	bcc	3816f4 <__bss_end__+0x377054>
     a8c:	270b3b0b 	strcs	r3, [fp, -fp, lsl #22]
     a90:	11134919 	tstne	r3, r9, lsl r9
     a94:	40061201 	andmi	r1, r6, r1, lsl #4
     a98:	19429718 	stmdbne	r2, {r3, r4, r8, r9, sl, ip, pc}^
     a9c:	00001301 	andeq	r1, r0, r1, lsl #6
     aa0:	01828907 	orreq	r8, r2, r7, lsl #18
     aa4:	31011101 	tstcc	r1, r1, lsl #2
     aa8:	08000013 	stmdaeq	r0, {r0, r1, r4}
     aac:	0001828a 	andeq	r8, r1, sl, lsl #5
     ab0:	42911802 	addsmi	r1, r1, #131072	; 0x20000
     ab4:	09000018 	stmdbeq	r0, {r3, r4}
     ab8:	08030034 	stmdaeq	r3, {r2, r4, r5}
     abc:	0b3b0b3a 	bleq	ec37ac <__bss_end__+0xeb910c>
     ac0:	18021349 	stmdane	r2, {r0, r3, r6, r8, r9, ip}
     ac4:	890a0000 	stmdbhi	sl, {}	; <UNPREDICTABLE>
     ac8:	11000182 	smlabbne	r0, r2, r1, r0
     acc:	00133101 	andseq	r3, r3, r1, lsl #2
     ad0:	00050b00 	andeq	r0, r5, r0, lsl #22
     ad4:	0b3a0803 	bleq	e82ae8 <__bss_end__+0xe78448>
     ad8:	13490b3b 	movtne	r0, #39739	; 0x9b3b
     adc:	00001702 	andeq	r1, r0, r2, lsl #14
     ae0:	11010b0c 	tstne	r1, ip, lsl #22
     ae4:	01061201 	tsteq	r6, r1, lsl #4
     ae8:	0d000013 	stceq	0, cr0, [r0, #-76]	; 0xffffffb4
     aec:	08030034 	stmdaeq	r3, {r2, r4, r5}
     af0:	0b3b0b3a 	bleq	ec37e0 <__bss_end__+0xeb9140>
     af4:	17021349 	strne	r1, [r2, -r9, asr #6]
     af8:	2e0e0000 	cdpcs	0, 0, cr0, cr14, cr0, {0}
     afc:	03193f01 	tsteq	r9, #1, 30
     b00:	3b0b3a0e 	blcc	2cf340 <__bss_end__+0x2c4ca0>
     b04:	4919270b 	ldmdbmi	r9, {r0, r1, r3, r8, r9, sl, sp}
     b08:	00193c13 	andseq	r3, r9, r3, lsl ip
     b0c:	00050f00 	andeq	r0, r5, r0, lsl #30
     b10:	00001349 	andeq	r1, r0, r9, asr #6
     b14:	01110100 	tsteq	r1, r0, lsl #2
     b18:	0b130e25 	bleq	4c43b4 <__bss_end__+0x4b9d14>
     b1c:	0e1b0e03 	cdpeq	14, 1, cr0, cr11, cr3, {0}
     b20:	06120111 			; <UNDEFINED> instruction: 0x06120111
     b24:	00001710 	andeq	r1, r0, r0, lsl r7
     b28:	0b002402 	bleq	9b38 <__FUNCTION__.4456+0x40>
     b2c:	030b3e0b 	movweq	r3, #48651	; 0xbe0b
     b30:	03000008 	movweq	r0, #8
     b34:	0b0b0024 	bleq	2c0bcc <__bss_end__+0x2b652c>
     b38:	0e030b3e 	vmoveq.16	d3[0], r0
     b3c:	16040000 	strne	r0, [r4], -r0
     b40:	3a0e0300 	bcc	381748 <__bss_end__+0x3770a8>
     b44:	490b3b0b 	stmdbmi	fp, {r0, r1, r3, r8, r9, fp, ip, sp}
     b48:	05000013 	streq	r0, [r0, #-19]
     b4c:	0b0b000f 	bleq	2c0b90 <__bss_end__+0x2b64f0>
     b50:	0f060000 	svceq	0x00060000
     b54:	490b0b00 	stmdbmi	fp, {r8, r9, fp}
     b58:	07000013 	smladeq	r0, r3, r0, r0
     b5c:	13490026 	movtne	r0, #36902	; 0x9026
     b60:	13080000 	movwne	r0, #32768	; 0x8000
     b64:	3a0b0b01 	bcc	2c3770 <__bss_end__+0x2b90d0>
     b68:	010b3b0b 	tsteq	fp, fp, lsl #22
     b6c:	09000013 	stmdbeq	r0, {r0, r1, r4}
     b70:	0803000d 	stmdaeq	r3, {r0, r2, r3}
     b74:	0b3b0b3a 	bleq	ec3864 <__bss_end__+0xeb91c4>
     b78:	0b381349 	bleq	e058a4 <__bss_end__+0xdfb204>
     b7c:	0d0a0000 	stceq	0, cr0, [sl, #-0]
     b80:	3a0e0300 	bcc	381788 <__bss_end__+0x3770e8>
     b84:	490b3b0b 	stmdbmi	fp, {r0, r1, r3, r8, r9, fp, ip, sp}
     b88:	000b3813 	andeq	r3, fp, r3, lsl r8
     b8c:	01130b00 	tsteq	r3, r0, lsl #22
     b90:	0b0b0e03 	bleq	2c43a4 <__bss_end__+0x2b9d04>
     b94:	0b3b0b3a 	bleq	ec3884 <__bss_end__+0xeb91e4>
     b98:	00001301 	andeq	r1, r0, r1, lsl #6
     b9c:	03000d0c 	movweq	r0, #3340	; 0xd0c
     ba0:	3813490e 	ldmdacc	r3, {r1, r2, r3, r8, fp, lr}
     ba4:	0019340b 	andseq	r3, r9, fp, lsl #8
     ba8:	012e0d00 	teqeq	lr, r0, lsl #26
     bac:	0b3a0e03 	bleq	e843c0 <__bss_end__+0xe79d20>
     bb0:	19270b3b 	stmdbne	r7!, {r0, r1, r3, r4, r5, r8, r9, fp}
     bb4:	13010b20 	movwne	r0, #6944	; 0x1b20
     bb8:	050e0000 	streq	r0, [lr, #-0]
     bbc:	3a0e0300 	bcc	3817c4 <__bss_end__+0x377124>
     bc0:	490b3b0b 	stmdbmi	fp, {r0, r1, r3, r8, r9, fp, ip, sp}
     bc4:	0f000013 	svceq	0x00000013
     bc8:	08030005 	stmdaeq	r3, {r0, r2}
     bcc:	0b3b0b3a 	bleq	ec38bc <__bss_end__+0xeb921c>
     bd0:	00001349 	andeq	r1, r0, r9, asr #6
     bd4:	00010b10 	andeq	r0, r1, r0, lsl fp
     bd8:	00341100 	eorseq	r1, r4, r0, lsl #2
     bdc:	0b3a0e03 	bleq	e843f0 <__bss_end__+0xe79d50>
     be0:	13490b3b 	movtne	r0, #39739	; 0x9b3b
     be4:	2e120000 	cdpcs	0, 1, cr0, cr2, cr0, {0}
     be8:	03193f01 	tsteq	r9, #1, 30
     bec:	3b0b3a0e 	blcc	2cf42c <__bss_end__+0x2c4d8c>
     bf0:	1119270b 	tstne	r9, fp, lsl #14
     bf4:	40061201 	andmi	r1, r6, r1, lsl #4
     bf8:	19429718 	stmdbne	r2, {r3, r4, r8, r9, sl, ip, pc}^
     bfc:	00001301 	andeq	r1, r0, r1, lsl #6
     c00:	03000513 	movweq	r0, #1299	; 0x513
     c04:	3b0b3a0e 	blcc	2cf444 <__bss_end__+0x2c4da4>
     c08:	0213490b 	andseq	r4, r3, #180224	; 0x2c000
     c0c:	14000017 	strne	r0, [r0], #-23
     c10:	08030005 	stmdaeq	r3, {r0, r2}
     c14:	0b3b0b3a 	bleq	ec3904 <__bss_end__+0xeb9264>
     c18:	17021349 	strne	r1, [r2, -r9, asr #6]
     c1c:	34150000 	ldrcc	r0, [r5], #-0
     c20:	3a080300 	bcc	201828 <__bss_end__+0x1f7188>
     c24:	490b3b0b 	stmdbmi	fp, {r0, r1, r3, r8, r9, fp, ip, sp}
     c28:	00180213 	andseq	r0, r8, r3, lsl r2
     c2c:	00341600 	eorseq	r1, r4, r0, lsl #12
     c30:	0b3a0803 	bleq	e82c44 <__bss_end__+0xe785a4>
     c34:	13490b3b 	movtne	r0, #39739	; 0x9b3b
     c38:	00001702 	andeq	r1, r0, r2, lsl #14
     c3c:	11010b17 	tstne	r1, r7, lsl fp
     c40:	01061201 	tsteq	r6, r1, lsl #4
     c44:	18000013 	stmdane	r0, {r0, r1, r4}
     c48:	0e030034 	mcreq	0, 0, r0, cr3, cr4, {1}
     c4c:	0b3b0b3a 	bleq	ec393c <__bss_end__+0xeb929c>
     c50:	18021349 	stmdane	r2, {r0, r3, r6, r8, r9, ip}
     c54:	1d190000 	ldcne	0, cr0, [r9, #-0]
     c58:	11133101 	tstne	r3, r1, lsl #2
     c5c:	58061201 	stmdapl	r6, {r0, r9, ip}
     c60:	010b590b 	tsteq	fp, fp, lsl #18
     c64:	1a000013 	bne	cb8 <_start-0x7348>
     c68:	13310005 	teqne	r1, #5
     c6c:	00001702 	andeq	r1, r0, r2, lsl #14
     c70:	3100051b 	tstcc	r0, fp, lsl r5
     c74:	00180213 	andseq	r0, r8, r3, lsl r2
     c78:	00051c00 	andeq	r1, r5, r0, lsl #24
     c7c:	0b1c1331 	bleq	705948 <__bss_end__+0x6fb2a8>
     c80:	0b1d0000 	bleq	740c88 <__bss_end__+0x7365e8>
     c84:	12011101 	andne	r1, r1, #1073741824	; 0x40000000
     c88:	1e000006 	cdpne	0, 0, cr0, cr0, cr6, {0}
     c8c:	13310034 	teqne	r1, #52	; 0x34
     c90:	00001702 	andeq	r1, r0, r2, lsl #14
     c94:	0182891f 	orreq	r8, r2, pc, lsl r9
     c98:	31011101 	tstcc	r1, r1, lsl #2
     c9c:	20000013 	andcs	r0, r0, r3, lsl r0
     ca0:	0001828a 	andeq	r8, r1, sl, lsl #5
     ca4:	42911802 	addsmi	r1, r1, #131072	; 0x20000
     ca8:	21000018 	tstcs	r0, r8, lsl r0
     cac:	1331011d 	teqne	r1, #1073741831	; 0x40000007
     cb0:	06120111 			; <UNDEFINED> instruction: 0x06120111
     cb4:	0b590b58 	bleq	1643a1c <__bss_end__+0x163937c>
     cb8:	2e220000 	cdpcs	0, 2, cr0, cr2, cr0, {0}
     cbc:	3a0e0301 	bcc	3818c8 <__bss_end__+0x377228>
     cc0:	270b3b0b 	strcs	r3, [fp, -fp, lsl #22]
     cc4:	20134919 	andscs	r4, r3, r9, lsl r9
     cc8:	0013010b 	andseq	r0, r3, fp, lsl #2
     ccc:	012e2300 	teqeq	lr, r0, lsl #6
     cd0:	0e03193f 	mcreq	9, 0, r1, cr3, cr15, {1}
     cd4:	0b3b0b3a 	bleq	ec39c4 <__bss_end__+0xeb9324>
     cd8:	13491927 	movtne	r1, #39207	; 0x9927
     cdc:	06120111 			; <UNDEFINED> instruction: 0x06120111
     ce0:	42971840 	addsmi	r1, r7, #64, 16	; 0x400000
     ce4:	00130119 	andseq	r0, r3, r9, lsl r1
     ce8:	82892400 	addhi	r2, r9, #0, 8
     cec:	01110001 	tsteq	r1, r1
     cf0:	00001331 	andeq	r1, r0, r1, lsr r3
     cf4:	01828925 	orreq	r8, r2, r5, lsr #18
     cf8:	31011101 	tstcc	r1, r1, lsl #2
     cfc:	00130113 	andseq	r0, r3, r3, lsl r1
     d00:	00342600 	eorseq	r2, r4, r0, lsl #12
     d04:	0b3a0e03 	bleq	e84518 <__bss_end__+0xe79e78>
     d08:	13490b3b 	movtne	r0, #39739	; 0x9b3b
     d0c:	00001702 	andeq	r1, r0, r2, lsl #14
     d10:	31000527 	tstcc	r0, r7, lsr #10
     d14:	28000013 	stmdacs	r0, {r0, r1, r4}
     d18:	0e030005 	cdpeq	0, 0, cr0, cr3, cr5, {0}
     d1c:	0b3b0b3a 	bleq	ec3a0c <__bss_end__+0xeb936c>
     d20:	18021349 	stmdane	r2, {r0, r3, r6, r8, r9, ip}
     d24:	34290000 	strtcc	r0, [r9], #-0
     d28:	490e0300 	stmdbmi	lr, {r8, r9}
     d2c:	02193413 	andseq	r3, r9, #318767104	; 0x13000000
     d30:	2a000018 	bcs	d98 <_start-0x7268>
     d34:	13490101 	movtne	r0, #37121	; 0x9101
     d38:	00001301 	andeq	r1, r0, r1, lsl #6
     d3c:	4900212b 	stmdbmi	r0, {r0, r1, r3, r5, r8, sp}
     d40:	000b2f13 	andeq	r2, fp, r3, lsl pc
     d44:	00342c00 	eorseq	r2, r4, r0, lsl #24
     d48:	0b3a0803 	bleq	e82d5c <__bss_end__+0xe786bc>
     d4c:	13490b3b 	movtne	r0, #39739	; 0x9b3b
     d50:	0000061c 	andeq	r0, r0, ip, lsl r6
     d54:	0300342d 	movweq	r3, #1069	; 0x42d
     d58:	3b0b3a08 	blcc	2cf580 <__bss_end__+0x2c4ee0>
     d5c:	1c13490b 	ldcne	9, cr4, [r3], {11}
     d60:	2e00000b 	cdpcs	0, 0, cr0, cr0, cr11, {0}
     d64:	08030005 	stmdaeq	r3, {r0, r2}
     d68:	0b3b0b3a 	bleq	ec3a58 <__bss_end__+0xeb93b8>
     d6c:	18021349 	stmdane	r2, {r0, r3, r6, r8, r9, ip}
     d70:	182f0000 	stmdane	pc!, {}	; <UNPREDICTABLE>
     d74:	30000000 	andcc	r0, r0, r0
     d78:	13490021 	movtne	r0, #36897	; 0x9021
     d7c:	0000052f 	andeq	r0, r0, pc, lsr #10
     d80:	3f012e31 	svccc	0x00012e31
     d84:	3a0e0319 	bcc	3819f0 <__bss_end__+0x377350>
     d88:	270b3b0b 	strcs	r3, [fp, -fp, lsl #22]
     d8c:	01193c19 	tsteq	r9, r9, lsl ip
     d90:	32000013 	andcc	r0, r0, #19
     d94:	13490005 	movtne	r0, #36869	; 0x9005
     d98:	2e330000 	cdpcs	0, 3, cr0, cr3, cr0, {0}
     d9c:	03193f00 	tsteq	r9, #0, 30
     da0:	3b0b3a0e 	blcc	2cf5e0 <__bss_end__+0x2c4f40>
     da4:	4919270b 	ldmdbmi	r9, {r0, r1, r3, r8, r9, sl, sp}
     da8:	00193c13 	andseq	r3, r9, r3, lsl ip
     dac:	012e3400 	teqeq	lr, r0, lsl #8
     db0:	0e03193f 	mcreq	9, 0, r1, cr3, cr15, {1}
     db4:	0b3b0b3a 	bleq	ec3aa4 <__bss_end__+0xeb9404>
     db8:	13491927 	movtne	r1, #39207	; 0x9927
     dbc:	1301193c 	movwne	r1, #6460	; 0x193c
     dc0:	2e350000 	cdpcs	0, 3, cr0, cr5, cr0, {0}
     dc4:	03193f00 	tsteq	r9, #0, 30
     dc8:	3b0b3a0e 	blcc	2cf608 <__bss_end__+0x2c4f68>
     dcc:	3c19270b 	ldccc	7, cr2, [r9], {11}
     dd0:	36000019 			; <UNDEFINED> instruction: 0x36000019
     dd4:	193f012e 	ldmdbne	pc!, {r1, r2, r3, r5, r8}	; <UNPREDICTABLE>
     dd8:	0b3a0e03 	bleq	e845ec <__bss_end__+0xe79f4c>
     ddc:	19270b3b 	stmdbne	r7!, {r0, r1, r3, r4, r5, r8, r9, fp}
     de0:	193c1349 	ldmdbne	ip!, {r0, r3, r6, r8, r9, ip}
     de4:	01000000 	mrseq	r0, (UNDEF: 0)
     de8:	0e250111 	mcreq	1, 1, r0, cr5, cr1, {0}
     dec:	0e030b13 	vmoveq.32	d3[0], r0
     df0:	01110e1b 	tsteq	r1, fp, lsl lr
     df4:	17100612 			; <UNDEFINED> instruction: 0x17100612
     df8:	24020000 	strcs	r0, [r2], #-0
     dfc:	3e0b0b00 	vmlacc.f64	d0, d11, d0
     e00:	0008030b 	andeq	r0, r8, fp, lsl #6
     e04:	00240300 	eoreq	r0, r4, r0, lsl #6
     e08:	0b3e0b0b 	bleq	f83a3c <__bss_end__+0xf7939c>
     e0c:	00000e03 	andeq	r0, r0, r3, lsl #28
     e10:	0b010404 	bleq	41e28 <__bss_end__+0x37788>
     e14:	3b0b3a0b 	blcc	2cf648 <__bss_end__+0x2c4fa8>
     e18:	0013010b 	andseq	r0, r3, fp, lsl #2
     e1c:	00280500 	eoreq	r0, r8, r0, lsl #10
     e20:	0d1c0e03 	ldceq	14, cr0, [ip, #-12]
     e24:	16060000 	strne	r0, [r6], -r0
     e28:	3a0e0300 	bcc	381a30 <__bss_end__+0x377390>
     e2c:	490b3b0b 	stmdbmi	fp, {r0, r1, r3, r8, r9, fp, ip, sp}
     e30:	07000013 	smladeq	r0, r3, r0, r0
     e34:	193f012e 	ldmdbne	pc!, {r1, r2, r3, r5, r8}	; <UNPREDICTABLE>
     e38:	0b3a0e03 	bleq	e8464c <__bss_end__+0xe79fac>
     e3c:	19270b3b 	stmdbne	r7!, {r0, r1, r3, r4, r5, r8, r9, fp}
     e40:	06120111 			; <UNDEFINED> instruction: 0x06120111
     e44:	42971840 	addsmi	r1, r7, #64, 16	; 0x400000
     e48:	00130119 	andseq	r0, r3, r9, lsl r1
     e4c:	82890800 	addhi	r0, r9, #0, 16
     e50:	01110001 	tsteq	r1, r1
     e54:	00001331 	andeq	r1, r0, r1, lsr r3
     e58:	01828909 	orreq	r8, r2, r9, lsl #18
     e5c:	31011101 	tstcc	r1, r1, lsl #2
     e60:	00130113 	andseq	r0, r3, r3, lsl r1
     e64:	828a0a00 	addhi	r0, sl, #0, 20
     e68:	18020001 	stmdane	r2, {r0}
     e6c:	00184291 	mulseq	r8, r1, r2
     e70:	012e0b00 	teqeq	lr, r0, lsl #22
     e74:	0e03193f 	mcreq	9, 0, r1, cr3, cr15, {1}
     e78:	0b3b0b3a 	bleq	ec3b68 <__bss_end__+0xeb94c8>
     e7c:	13491927 	movtne	r1, #39207	; 0x9927
     e80:	06120111 			; <UNDEFINED> instruction: 0x06120111
     e84:	42971840 	addsmi	r1, r7, #64, 16	; 0x400000
     e88:	00130119 	andseq	r0, r3, r9, lsl r1
     e8c:	00050c00 	andeq	r0, r5, r0, lsl #24
     e90:	0b3a0803 	bleq	e82ea4 <__bss_end__+0xe78804>
     e94:	13490b3b 	movtne	r0, #39739	; 0x9b3b
     e98:	00001702 	andeq	r1, r0, r2, lsl #14
     e9c:	0182890d 	orreq	r8, r2, sp, lsl #18
     ea0:	31011101 	tstcc	r1, r1, lsl #2
     ea4:	0e000013 	mcreq	0, 0, r0, cr0, cr3, {0}
     ea8:	0e030034 	mcreq	0, 0, r0, cr3, cr4, {1}
     eac:	0b3b0b3a 	bleq	ec3b9c <__bss_end__+0xeb94fc>
     eb0:	193f1349 	ldmdbne	pc!, {r0, r3, r6, r8, r9, ip}	; <UNPREDICTABLE>
     eb4:	00001802 	andeq	r1, r0, r2, lsl #16
     eb8:	0b000f0f 	bleq	4afc <_start-0x3504>
     ebc:	0013490b 	andseq	r4, r3, fp, lsl #18
     ec0:	00351000 	eorseq	r1, r5, r0
     ec4:	00001349 	andeq	r1, r0, r9, asr #6
     ec8:	3f002e11 	svccc	0x00002e11
     ecc:	3a0e0319 	bcc	381b38 <__bss_end__+0x377498>
     ed0:	270b3b0b 	strcs	r3, [fp, -fp, lsl #22]
     ed4:	00193c19 	andseq	r3, r9, r9, lsl ip
     ed8:	012e1200 	teqeq	lr, r0, lsl #4
     edc:	0e03193f 	mcreq	9, 0, r1, cr3, cr15, {1}
     ee0:	0b3b0b3a 	bleq	ec3bd0 <__bss_end__+0xeb9530>
     ee4:	193c1927 	ldmdbne	ip!, {r0, r1, r2, r5, r8, fp, ip}
     ee8:	00001301 	andeq	r1, r0, r1, lsl #6
     eec:	49000513 	stmdbmi	r0, {r0, r1, r4, r8, sl}
     ef0:	14000013 	strne	r0, [r0], #-19
     ef4:	193f012e 	ldmdbne	pc!, {r1, r2, r3, r5, r8}	; <UNPREDICTABLE>
     ef8:	0b3a0e03 	bleq	e8470c <__bss_end__+0xe7a06c>
     efc:	19270b3b 	stmdbne	r7!, {r0, r1, r3, r4, r5, r8, r9, fp}
     f00:	193c1349 	ldmdbne	ip!, {r0, r3, r6, r8, r9, ip}
     f04:	00001301 	andeq	r1, r0, r1, lsl #6
     f08:	49002615 	stmdbmi	r0, {r0, r2, r4, r9, sl, sp}
     f0c:	16000013 			; <UNDEFINED> instruction: 0x16000013
     f10:	00000035 	andeq	r0, r0, r5, lsr r0
     f14:	01110100 	tsteq	r1, r0, lsl #2
     f18:	0b130e25 	bleq	4c47b4 <__bss_end__+0x4ba114>
     f1c:	0e1b0e03 	cdpeq	14, 1, cr0, cr11, cr3, {0}
     f20:	06120111 			; <UNDEFINED> instruction: 0x06120111
     f24:	00001710 	andeq	r1, r0, r0, lsl r7
     f28:	0b002402 	bleq	9f38 <code+0xa8>
     f2c:	030b3e0b 	movweq	r3, #48651	; 0xbe0b
     f30:	0300000e 	movweq	r0, #14
     f34:	0b0b0024 	bleq	2c0fcc <__bss_end__+0x2b692c>
     f38:	08030b3e 	stmdaeq	r3, {r1, r2, r3, r4, r5, r8, r9, fp}
     f3c:	04040000 	streq	r0, [r4], #-0
     f40:	3a0b0b01 	bcc	2c3b4c <__bss_end__+0x2b94ac>
     f44:	010b3b0b 	tsteq	fp, fp, lsl #22
     f48:	05000013 	streq	r0, [r0, #-19]
     f4c:	0e030028 	cdpeq	0, 0, cr0, cr3, cr8, {1}
     f50:	00000d1c 	andeq	r0, r0, ip, lsl sp
     f54:	03001606 	movweq	r1, #1542	; 0x606
     f58:	3b0b3a0e 	blcc	2cf798 <__bss_end__+0x2c50f8>
     f5c:	0013490b 	andseq	r4, r3, fp, lsl #18
     f60:	012e0700 	teqeq	lr, r0, lsl #14
     f64:	0e03193f 	mcreq	9, 0, r1, cr3, cr15, {1}
     f68:	0b3b0b3a 	bleq	ec3c58 <__bss_end__+0xeb95b8>
     f6c:	01111927 	tsteq	r1, r7, lsr #18
     f70:	18400612 	stmdane	r0, {r1, r4, r9, sl}^
     f74:	01194297 			; <UNDEFINED> instruction: 0x01194297
     f78:	08000013 	stmdaeq	r0, {r0, r1, r4}
     f7c:	08030005 	stmdaeq	r3, {r0, r2}
     f80:	0b3b0b3a 	bleq	ec3c70 <__bss_end__+0xeb95d0>
     f84:	17021349 	strne	r1, [r2, -r9, asr #6]
     f88:	34090000 	strcc	r0, [r9], #-0
     f8c:	3a0e0300 	bcc	381b94 <__bss_end__+0x3774f4>
     f90:	490b3b0b 	stmdbmi	fp, {r0, r1, r3, r8, r9, fp, ip, sp}
     f94:	00170213 	andseq	r0, r7, r3, lsl r2
     f98:	82890a00 	addhi	r0, r9, #0, 20
     f9c:	01110101 	tsteq	r1, r1, lsl #2
     fa0:	13011331 	movwne	r1, #4913	; 0x1331
     fa4:	8a0b0000 	bhi	2c0fac <__bss_end__+0x2b690c>
     fa8:	02000182 	andeq	r0, r0, #-2147483616	; 0x80000020
     fac:	18429118 	stmdane	r2, {r3, r4, r8, ip, pc}^
     fb0:	890c0000 	stmdbhi	ip, {}	; <UNPREDICTABLE>
     fb4:	11010182 	smlabbne	r1, r2, r1, r0
     fb8:	00133101 	andseq	r3, r3, r1, lsl #2
     fbc:	000f0d00 	andeq	r0, pc, r0, lsl #26
     fc0:	13490b0b 	movtne	r0, #39691	; 0x9b0b
     fc4:	350e0000 	strcc	r0, [lr, #-0]
     fc8:	00134900 	andseq	r4, r3, r0, lsl #18
     fcc:	012e0f00 	teqeq	lr, r0, lsl #30
     fd0:	0e03193f 	mcreq	9, 0, r1, cr3, cr15, {1}
     fd4:	0b3b0b3a 	bleq	ec3cc4 <__bss_end__+0xeb9624>
     fd8:	13491927 	movtne	r1, #39207	; 0x9927
     fdc:	06120111 			; <UNDEFINED> instruction: 0x06120111
     fe0:	42971840 	addsmi	r1, r7, #64, 16	; 0x400000
     fe4:	00130119 	andseq	r0, r3, r9, lsl r1
     fe8:	00341000 	eorseq	r1, r4, r0
     fec:	0b3a0803 	bleq	e83000 <__bss_end__+0xe78960>
     ff0:	13490b3b 	movtne	r0, #39739	; 0x9b3b
     ff4:	00001702 	andeq	r1, r0, r2, lsl #14
     ff8:	01828911 	orreq	r8, r2, r1, lsl r9
     ffc:	31011100 	mrscc	r1, (UNDEF: 17)
    1000:	12000013 	andne	r0, r0, #19
    1004:	0e030005 	cdpeq	0, 0, cr0, cr3, cr5, {0}
    1008:	0b3b0b3a 	bleq	ec3cf8 <__bss_end__+0xeb9658>
    100c:	17021349 	strne	r1, [r2, -r9, asr #6]
    1010:	2e130000 	cdpcs	0, 1, cr0, cr3, cr0, {0}
    1014:	03193f01 	tsteq	r9, #1, 30
    1018:	3b0b3a0e 	blcc	2cf858 <__bss_end__+0x2c51b8>
    101c:	49192705 	ldmdbmi	r9, {r0, r2, r8, r9, sl, sp}
    1020:	12011113 	andne	r1, r1, #-1073741820	; 0xc0000004
    1024:	97184006 	ldrls	r4, [r8, -r6]
    1028:	13011942 	movwne	r1, #6466	; 0x1942
    102c:	05140000 	ldreq	r0, [r4, #-0]
    1030:	3a0e0300 	bcc	381c38 <__bss_end__+0x377598>
    1034:	49053b0b 	stmdbmi	r5, {r0, r1, r3, r8, r9, fp, ip, sp}
    1038:	00170213 	andseq	r0, r7, r3, lsl r2
    103c:	012e1500 	teqeq	lr, r0, lsl #10
    1040:	0e03193f 	mcreq	9, 0, r1, cr3, cr15, {1}
    1044:	053b0b3a 	ldreq	r0, [fp, #-2874]!	; 0xb3a
    1048:	01111927 	tsteq	r1, r7, lsr #18
    104c:	18400612 	stmdane	r0, {r1, r4, r9, sl}^
    1050:	01194297 			; <UNDEFINED> instruction: 0x01194297
    1054:	16000013 			; <UNDEFINED> instruction: 0x16000013
    1058:	08030005 	stmdaeq	r3, {r0, r2}
    105c:	053b0b3a 	ldreq	r0, [fp, #-2874]!	; 0xb3a
    1060:	17021349 	strne	r1, [r2, -r9, asr #6]
    1064:	34170000 	ldrcc	r0, [r7], #-0
    1068:	3a0e0300 	bcc	381c70 <__bss_end__+0x3775d0>
    106c:	49053b0b 	stmdbmi	r5, {r0, r1, r3, r8, r9, fp, ip, sp}
    1070:	00170213 	andseq	r0, r7, r3, lsl r2
    1074:	010b1800 	tsteq	fp, r0, lsl #16
    1078:	06120111 			; <UNDEFINED> instruction: 0x06120111
    107c:	00001301 	andeq	r1, r0, r1, lsl #6
    1080:	03003419 	movweq	r3, #1049	; 0x419
    1084:	3b0b3a0e 	blcc	2cf8c4 <__bss_end__+0x2c5224>
    1088:	3f13490b 	svccc	0x0013490b
    108c:	00180219 	andseq	r0, r8, r9, lsl r2
    1090:	012e1a00 	teqeq	lr, r0, lsl #20
    1094:	0e03193f 	mcreq	9, 0, r1, cr3, cr15, {1}
    1098:	0b3b0b3a 	bleq	ec3d88 <__bss_end__+0xeb96e8>
    109c:	13491927 	movtne	r1, #39207	; 0x9927
    10a0:	1301193c 	movwne	r1, #6460	; 0x193c
    10a4:	051b0000 	ldreq	r0, [fp, #-0]
    10a8:	00134900 	andseq	r4, r3, r0, lsl #18
    10ac:	00261c00 	eoreq	r1, r6, r0, lsl #24
    10b0:	00001349 	andeq	r1, r0, r9, asr #6
    10b4:	0000351d 	andeq	r3, r0, sp, lsl r5
    10b8:	012e1e00 	teqeq	lr, r0, lsl #28
    10bc:	0e03193f 	mcreq	9, 0, r1, cr3, cr15, {1}
    10c0:	0b3b0b3a 	bleq	ec3db0 <__bss_end__+0xeb9710>
    10c4:	193c1927 	ldmdbne	ip!, {r0, r1, r2, r5, r8, fp, ip}
    10c8:	00001301 	andeq	r1, r0, r1, lsl #6
    10cc:	3f002e1f 	svccc	0x00002e1f
    10d0:	3a0e0319 	bcc	381d3c <__bss_end__+0x37769c>
    10d4:	270b3b0b 	strcs	r3, [fp, -fp, lsl #22]
    10d8:	00193c19 	andseq	r3, r9, r9, lsl ip
    10dc:	11010000 	mrsne	r0, (UNDEF: 1)
    10e0:	130e2501 	movwne	r2, #58625	; 0xe501
    10e4:	1b0e030b 	blne	381d18 <__bss_end__+0x377678>
    10e8:	1201110e 	andne	r1, r1, #-2147483645	; 0x80000003
    10ec:	00171006 	andseq	r1, r7, r6
    10f0:	00240200 	eoreq	r0, r4, r0, lsl #4
    10f4:	0b3e0b0b 	bleq	f83d28 <__bss_end__+0xf79688>
    10f8:	00000803 	andeq	r0, r0, r3, lsl #16
    10fc:	03001603 	movweq	r1, #1539	; 0x603
    1100:	3b0b3a0e 	blcc	2cf940 <__bss_end__+0x2c52a0>
    1104:	0013490b 	andseq	r4, r3, fp, lsl #18
    1108:	00240400 	eoreq	r0, r4, r0, lsl #8
    110c:	0b3e0b0b 	bleq	f83d40 <__bss_end__+0xf796a0>
    1110:	00000e03 	andeq	r0, r0, r3, lsl #28
    1114:	0b000f05 	bleq	4d30 <_start-0x32d0>
    1118:	0600000b 	streq	r0, [r0], -fp
    111c:	0b0b0113 	bleq	2c1570 <__bss_end__+0x2b6ed0>
    1120:	0b3b0b3a 	bleq	ec3e10 <__bss_end__+0xeb9770>
    1124:	00001301 	andeq	r1, r0, r1, lsl #6
    1128:	03000d07 	movweq	r0, #3335	; 0xd07
    112c:	3b0b3a08 	blcc	2cf954 <__bss_end__+0x2c52b4>
    1130:	3813490b 	ldmdacc	r3, {r0, r1, r3, r8, fp, lr}
    1134:	0800000b 	stmdaeq	r0, {r0, r1, r3}
    1138:	0e03000d 	cdpeq	0, 0, cr0, cr3, cr13, {0}
    113c:	0b3b0b3a 	bleq	ec3e2c <__bss_end__+0xeb978c>
    1140:	0b381349 	bleq	e05e6c <__bss_end__+0xdfb7cc>
    1144:	04090000 	streq	r0, [r9], #-0
    1148:	3a0b0b01 	bcc	2c3d54 <__bss_end__+0x2b96b4>
    114c:	010b3b0b 	tsteq	fp, fp, lsl #22
    1150:	0a000013 	beq	11a4 <_start-0x6e5c>
    1154:	0e030028 	cdpeq	0, 0, cr0, cr3, cr8, {1}
    1158:	00000d1c 	andeq	r0, r0, ip, lsl sp
    115c:	3f012e0b 	svccc	0x00012e0b
    1160:	3a0e0319 	bcc	381dcc <__bss_end__+0x37772c>
    1164:	270b3b0b 	strcs	r3, [fp, -fp, lsl #22]
    1168:	11134919 	tstne	r3, r9, lsl r9
    116c:	40061201 	andmi	r1, r6, r1, lsl #4
    1170:	19429718 	stmdbne	r2, {r3, r4, r8, r9, sl, ip, pc}^
    1174:	00001301 	andeq	r1, r0, r1, lsl #6
    1178:	0300340c 	movweq	r3, #1036	; 0x40c
    117c:	3b0b3a08 	blcc	2cf9a4 <__bss_end__+0x2c5304>
    1180:	1c13490b 	ldcne	9, cr4, [r3], {11}
    1184:	0d000006 	stceq	0, cr0, [r0, #-24]	; 0xffffffe8
    1188:	01018289 	smlabbeq	r1, r9, r2, r8
    118c:	13310111 	teqne	r1, #1073741828	; 0x40000004
    1190:	8a0e0000 	bhi	381198 <__bss_end__+0x376af8>
    1194:	02000182 	andeq	r0, r0, #-2147483616	; 0x80000020
    1198:	18429118 	stmdane	r2, {r3, r4, r8, ip, pc}^
    119c:	0f0f0000 	svceq	0x000f0000
    11a0:	490b0b00 	stmdbmi	fp, {r8, r9, fp}
    11a4:	10000013 	andne	r0, r0, r3, lsl r0
    11a8:	193f012e 	ldmdbne	pc!, {r1, r2, r3, r5, r8}	; <UNPREDICTABLE>
    11ac:	0b3a0e03 	bleq	e849c0 <__bss_end__+0xe7a320>
    11b0:	19270b3b 	stmdbne	r7!, {r0, r1, r3, r4, r5, r8, r9, fp}
    11b4:	193c1349 	ldmdbne	ip!, {r0, r3, r6, r8, r9, ip}
    11b8:	05110000 	ldreq	r0, [r1, #-0]
    11bc:	00134900 	andseq	r4, r3, r0, lsl #18
    11c0:	11010000 	mrsne	r0, (UNDEF: 1)
    11c4:	130e2501 	movwne	r2, #58625	; 0xe501
    11c8:	1b0e030b 	blne	381dfc <__bss_end__+0x37775c>
    11cc:	1201110e 	andne	r1, r1, #-2147483645	; 0x80000003
    11d0:	00171006 	andseq	r1, r7, r6
    11d4:	00240200 	eoreq	r0, r4, r0, lsl #4
    11d8:	0b3e0b0b 	bleq	f83e0c <__bss_end__+0xf7976c>
    11dc:	00000e03 	andeq	r0, r0, r3, lsl #28
    11e0:	0b002403 	bleq	a1f4 <code+0x364>
    11e4:	030b3e0b 	movweq	r3, #48651	; 0xbe0b
    11e8:	04000008 	streq	r0, [r0], #-8
    11ec:	0b0b000f 	bleq	2c1230 <__bss_end__+0x2b6b90>
    11f0:	0f050000 	svceq	0x00050000
    11f4:	490b0b00 	stmdbmi	fp, {r8, r9, fp}
    11f8:	06000013 			; <UNDEFINED> instruction: 0x06000013
    11fc:	0e030016 	mcreq	0, 0, r0, cr3, cr6, {0}
    1200:	0b3b0b3a 	bleq	ec3ef0 <__bss_end__+0xeb9850>
    1204:	00001349 	andeq	r1, r0, r9, asr #6
    1208:	3f012e07 	svccc	0x00012e07
    120c:	3a0e0319 	bcc	381e78 <__bss_end__+0x3777d8>
    1210:	270b3b0b 	strcs	r3, [fp, -fp, lsl #22]
    1214:	11134919 	tstne	r3, r9, lsl r9
    1218:	40061201 	andmi	r1, r6, r1, lsl #4
    121c:	19429718 	stmdbne	r2, {r3, r4, r8, r9, sl, ip, pc}^
    1220:	05080000 	streq	r0, [r8, #-0]
    1224:	3a080300 	bcc	201e2c <__bss_end__+0x1f778c>
    1228:	490b3b0b 	stmdbmi	fp, {r0, r1, r3, r8, r9, fp, ip, sp}
    122c:	00180213 	andseq	r0, r8, r3, lsl r2
    1230:	00050900 	andeq	r0, r5, r0, lsl #18
    1234:	0b3a0803 	bleq	e83248 <__bss_end__+0xe78ba8>
    1238:	13490b3b 	movtne	r0, #39739	; 0x9b3b
    123c:	00001702 	andeq	r1, r0, r2, lsl #14
    1240:	0300340a 	movweq	r3, #1034	; 0x40a
    1244:	3b0b3a08 	blcc	2cfa6c <__bss_end__+0x2c53cc>
    1248:	0213490b 	andseq	r4, r3, #180224	; 0x2c000
    124c:	0b000017 	bleq	12b0 <_start-0x6d50>
    1250:	08030034 	stmdaeq	r3, {r2, r4, r5}
    1254:	0b3b0b3a 	bleq	ec3f44 <__bss_end__+0xeb98a4>
    1258:	18021349 	stmdane	r2, {r0, r3, r6, r8, r9, ip}
    125c:	Address 0x000000000000125c is out of bounds.


Disassembly of section .debug_loc:

00000000 <.debug_loc>:
       0:	00000140 	andeq	r0, r0, r0, asr #2
       4:	00000174 	andeq	r0, r0, r4, ror r1
       8:	74500001 	ldrbvc	r0, [r0], #-1
       c:	50000001 	andpl	r0, r0, r1
      10:	01000002 	tsteq	r0, r2
      14:	02505b00 	subseq	r5, r0, #0, 22
      18:	02740000 	rsbseq	r0, r4, #0
      1c:	00040000 	andeq	r0, r4, r0
      20:	9f5001f3 	svcls	0x005001f3
	...
      2c:	00000140 	andeq	r0, r0, r0, asr #2
      30:	0000017c 	andeq	r0, r0, ip, ror r1
      34:	7c510001 	mrrcvc	0, 0, r0, r1, cr1
      38:	50000001 	andpl	r0, r0, r1
      3c:	01000002 	tsteq	r0, r2
      40:	02505400 	subseq	r5, r0, #0, 8
      44:	02740000 	rsbseq	r0, r4, #0
      48:	00040000 	andeq	r0, r4, r0
      4c:	9f5101f3 	svcls	0x005101f3
	...
      58:	0000015c 	andeq	r0, r0, ip, asr r1
      5c:	0000017c 	andeq	r0, r0, ip, ror r1
      60:	9f300002 	svcls	0x00300002
      64:	0000017c 	andeq	r0, r0, ip, ror r1
      68:	00000224 	andeq	r0, r0, r4, lsr #4
      6c:	00560001 	subseq	r0, r6, r1
      70:	00000000 	andeq	r0, r0, r0
      74:	c0000000 	andgt	r0, r0, r0
      78:	08000001 	stmdaeq	r0, {r0}
      7c:	01000002 	tsteq	r0, r2
      80:	00005000 	andeq	r5, r0, r0
      84:	00000000 	andeq	r0, r0, r0
      88:	01c00000 	biceq	r0, r0, r0
      8c:	01c40000 	biceq	r0, r4, r0
      90:	00010000 	andeq	r0, r1, r0
      94:	0001c451 	andeq	ip, r1, r1, asr r4
      98:	0001c800 	andeq	ip, r1, r0, lsl #16
      9c:	71000300 	mrsvc	r0, LR_irq
      a0:	01c89f78 	biceq	r9, r8, r8, ror pc
      a4:	01d80000 	bicseq	r0, r8, r0
      a8:	00070000 	andeq	r0, r7, r0
      ac:	73064c91 	movwvc	r4, #27793	; 0x6c91
      b0:	d89f2200 	ldmle	pc, {r9, sp}	; <UNPREDICTABLE>
      b4:	e4000001 	str	r0, [r0], #-1
      b8:	09000001 	stmdbeq	r0, {r0}
      bc:	32007200 	andcc	r7, r0, #0, 4
      c0:	064c9124 	strbeq	r9, [ip], -r4, lsr #2
      c4:	01e49f22 	mvneq	r9, r2, lsr #30
      c8:	01e80000 	mvneq	r0, r0
      cc:	00090000 	andeq	r0, r9, r0
      d0:	24327f72 	ldrtcs	r7, [r2], #-3954	; 0xf72
      d4:	22064c91 	andcs	r4, r6, #37120	; 0x9100
      d8:	0001e89f 	muleq	r1, pc, r8	; <UNPREDICTABLE>
      dc:	0001fc00 	andeq	pc, r1, r0, lsl #24
      e0:	73000900 	movwvc	r0, #2304	; 0x900
      e4:	9124327e 	teqls	r4, lr, ror r2
      e8:	9f22064c 	svcls	0x0022064c
      ec:	000001fc 	strdeq	r0, [r0], -ip
      f0:	00000200 	andeq	r0, r0, r0, lsl #4
      f4:	7d720009 	ldclvc	0, cr0, [r2, #-36]!	; 0xffffffdc
      f8:	4c912432 	cfldrsmi	mvf2, [r1], {50}	; 0x32
      fc:	009f2206 	addseq	r2, pc, r6, lsl #4
     100:	08000002 	stmdaeq	r0, {r1}
     104:	0f000002 	svceq	0x00000002
     108:	9e8c0300 	cdpls	3, 8, cr0, cr12, cr0, {0}
     10c:	33060000 	movwcc	r0, #24576	; 0x6000
     110:	9124321c 	teqls	r4, ip, lsl r2
     114:	9f22064c 	svcls	0x0022064c
	...
     120:	000001c0 	andeq	r0, r0, r0, asr #3
     124:	00000208 	andeq	r0, r0, r8, lsl #4
     128:	9f310002 	svcls	0x00310002
	...
     134:	000001c0 	andeq	r0, r0, r0, asr #3
     138:	00000208 	andeq	r0, r0, r8, lsl #4
     13c:	9f300002 	svcls	0x00300002
	...
     148:	000001c4 	andeq	r0, r0, r4, asr #3
     14c:	000001c8 	andeq	r0, r0, r8, asr #3
     150:	c8510001 	ldmdagt	r1, {r0}^
     154:	d8000001 	stmdale	r0, {r0}
     158:	09000001 	stmdbeq	r0, {r0}
     15c:	064c9100 	strbeq	r9, [ip], -r0, lsl #2
     160:	23220073 	teqcs	r2, #115	; 0x73
     164:	01d89f08 	bicseq	r9, r8, r8, lsl #30
     168:	01e40000 	mvneq	r0, r0
     16c:	000b0000 	andeq	r0, fp, r0
     170:	24320072 	ldrtcs	r0, [r2], #-114	; 0x72
     174:	22064c91 	andcs	r4, r6, #37120	; 0x9100
     178:	e49f0823 	ldr	r0, [pc], #2083	; 180 <_start-0x7e80>
     17c:	e8000001 	stmda	r0, {r0}
     180:	0b000001 	bleq	18c <_start-0x7e74>
     184:	327f7200 	rsbscc	r7, pc, #0, 4
     188:	064c9124 	strbeq	r9, [ip], -r4, lsr #2
     18c:	9f082322 	svcls	0x00082322
     190:	000001e8 	andeq	r0, r0, r8, ror #3
     194:	000001fc 	strdeq	r0, [r0], -ip
     198:	7e73000b 	cdpvc	0, 7, cr0, cr3, cr11, {0}
     19c:	4c912432 	cfldrsmi	mvf2, [r1], {50}	; 0x32
     1a0:	08232206 	stmdaeq	r3!, {r1, r2, r9, sp}
     1a4:	0001fc9f 	muleq	r1, pc, ip	; <UNPREDICTABLE>
     1a8:	00020000 	andeq	r0, r2, r0
     1ac:	72000b00 	andvc	r0, r0, #0, 22
     1b0:	9124327d 	teqls	r4, sp, ror r2
     1b4:	2322064c 	teqcs	r2, #76, 12	; 0x4c00000
     1b8:	02009f08 	andeq	r9, r0, #8, 30
     1bc:	02080000 	andeq	r0, r8, #0
     1c0:	00110000 	andseq	r0, r1, r0
     1c4:	009e8c03 	addseq	r8, lr, r3, lsl #24
     1c8:	1c330600 	ldcne	6, cr0, [r3], #-0
     1cc:	4c912432 	cfldrsmi	mvf2, [r1], {50}	; 0x32
     1d0:	08232206 	stmdaeq	r3!, {r1, r2, r9, sp}
     1d4:	0000009f 	muleq	r0, pc, r0	; <UNPREDICTABLE>
     1d8:	00000000 	andeq	r0, r0, r0
     1dc:	0001c800 	andeq	ip, r1, r0, lsl #16
     1e0:	0001cc00 	andeq	ip, r1, r0, lsl #24
     1e4:	51000100 	mrspl	r0, (UNDEF: 16)
     1e8:	000001cc 	andeq	r0, r0, ip, asr #3
     1ec:	000001d8 	ldrdeq	r0, [r0], -r8
     1f0:	0070000c 	rsbseq	r0, r0, ip
     1f4:	1c064c91 	stcne	12, cr4, [r6], {145}	; 0x91
     1f8:	381c0073 	ldmdacc	ip, {r0, r1, r4, r5, r6}
     1fc:	01d89f1c 	bicseq	r9, r8, ip, lsl pc
     200:	01e40000 	mvneq	r0, r0
     204:	000e0000 	andeq	r0, lr, r0
     208:	00720070 	rsbseq	r0, r2, r0, ror r0
     20c:	911c2432 	tstls	ip, r2, lsr r4
     210:	381c064c 	ldmdacc	ip, {r2, r3, r6, r9, sl}
     214:	01e49f1c 	mvneq	r9, ip, lsl pc
     218:	01e80000 	mvneq	r0, r0
     21c:	000e0000 	andeq	r0, lr, r0
     220:	7f720070 	svcvc	0x00720070
     224:	911c2432 	tstls	ip, r2, lsr r4
     228:	381c064c 	ldmdacc	ip, {r2, r3, r6, r9, sl}
     22c:	01e89f1c 	mvneq	r9, ip, lsl pc
     230:	01fc0000 	mvnseq	r0, r0
     234:	000e0000 	andeq	r0, lr, r0
     238:	7e730070 	mrcvc	0, 3, r0, cr3, cr0, {3}
     23c:	911c2432 	tstls	ip, r2, lsr r4
     240:	381c064c 	ldmdacc	ip, {r2, r3, r6, r9, sl}
     244:	01fc9f1c 	mvnseq	r9, ip, lsl pc
     248:	02000000 	andeq	r0, r0, #0
     24c:	000e0000 	andeq	r0, lr, r0
     250:	7d720070 	ldclvc	0, cr0, [r2, #-448]!	; 0xfffffe40
     254:	911c2432 	tstls	ip, r2, lsr r4
     258:	381c064c 	ldmdacc	ip, {r2, r3, r6, r9, sl}
     25c:	02009f1c 	andeq	r9, r0, #28, 30	; 0x70
     260:	02080000 	andeq	r0, r8, #0
     264:	00140000 	andseq	r0, r4, r0
     268:	8c030070 	stchi	0, cr0, [r3], {112}	; 0x70
     26c:	0600009e 			; <UNDEFINED> instruction: 0x0600009e
     270:	24321c33 	ldrtcs	r1, [r2], #-3123	; 0xc33
     274:	064c911c 			; <UNDEFINED> instruction: 0x064c911c
     278:	9f1c381c 	svcls	0x001c381c
	...
     284:	000001c8 	andeq	r0, r0, r8, asr #3
     288:	000001d4 	ldrdeq	r0, [r0], -r4
     28c:	d4510001 	ldrble	r0, [r1], #-1
     290:	d8000001 	stmdale	r0, {r0}
     294:	14000001 	strne	r0, [r0], #-1
     298:	91007000 	mrsls	r7, (UNDEF: 0)
     29c:	731c064c 	tstvc	ip, #76, 12	; 0x4c00000
     2a0:	1c381c00 	ldcne	12, cr1, [r8], #-0
     2a4:	ff0c2532 			; <UNDEFINED> instruction: 0xff0c2532
     2a8:	1a00ffff 	bne	402ac <__bss_end__+0x35c0c>
     2ac:	0001d89f 	muleq	r1, pc, r8	; <UNPREDICTABLE>
     2b0:	0001e400 	andeq	lr, r1, r0, lsl #8
     2b4:	70001600 	andvc	r1, r0, r0, lsl #12
     2b8:	32007200 	andcc	r7, r0, #0, 4
     2bc:	4c911c24 	ldcmi	12, cr1, [r1], {36}	; 0x24
     2c0:	1c381c06 	ldcne	12, cr1, [r8], #-24	; 0xffffffe8
     2c4:	ff0c2532 			; <UNDEFINED> instruction: 0xff0c2532
     2c8:	1a00ffff 	bne	402cc <__bss_end__+0x35c2c>
     2cc:	0001e49f 	muleq	r1, pc, r4	; <UNPREDICTABLE>
     2d0:	0001e800 	andeq	lr, r1, r0, lsl #16
     2d4:	70001600 	andvc	r1, r0, r0, lsl #12
     2d8:	327f7200 	rsbscc	r7, pc, #0, 4
     2dc:	4c911c24 	ldcmi	12, cr1, [r1], {36}	; 0x24
     2e0:	1c381c06 	ldcne	12, cr1, [r8], #-24	; 0xffffffe8
     2e4:	ff0c2532 			; <UNDEFINED> instruction: 0xff0c2532
     2e8:	1a00ffff 	bne	402ec <__bss_end__+0x35c4c>
     2ec:	0001e89f 	muleq	r1, pc, r8	; <UNPREDICTABLE>
     2f0:	0001fc00 	andeq	pc, r1, r0, lsl #24
     2f4:	70001600 	andvc	r1, r0, r0, lsl #12
     2f8:	327e7300 	rsbscc	r7, lr, #0, 6
     2fc:	4c911c24 	ldcmi	12, cr1, [r1], {36}	; 0x24
     300:	1c381c06 	ldcne	12, cr1, [r8], #-24	; 0xffffffe8
     304:	ff0c2532 			; <UNDEFINED> instruction: 0xff0c2532
     308:	1a00ffff 	bne	4030c <__bss_end__+0x35c6c>
     30c:	0001fc9f 	muleq	r1, pc, ip	; <UNPREDICTABLE>
     310:	00020000 	andeq	r0, r2, r0
     314:	70001600 	andvc	r1, r0, r0, lsl #12
     318:	327d7200 	rsbscc	r7, sp, #0, 4
     31c:	4c911c24 	ldcmi	12, cr1, [r1], {36}	; 0x24
     320:	1c381c06 	ldcne	12, cr1, [r8], #-24	; 0xffffffe8
     324:	ff0c2532 			; <UNDEFINED> instruction: 0xff0c2532
     328:	1a00ffff 	bne	4032c <__bss_end__+0x35c8c>
     32c:	0002009f 	muleq	r2, pc, r0	; <UNPREDICTABLE>
     330:	00020800 	andeq	r0, r2, r0, lsl #16
     334:	70001c00 	andvc	r1, r0, r0, lsl #24
     338:	9e8c0300 	cdpls	3, 8, cr0, cr12, cr0, {0}
     33c:	33060000 	movwcc	r0, #24576	; 0x6000
     340:	1c24321c 	sfmne	f3, 4, [r4], #-112	; 0xffffff90
     344:	1c064c91 	stcne	12, cr4, [r6], {145}	; 0x91
     348:	25321c38 	ldrcs	r1, [r2, #-3128]!	; 0xc38
     34c:	ffffff0c 			; <UNDEFINED> instruction: 0xffffff0c
     350:	009f1a00 	addseq	r1, pc, r0, lsl #20
     354:	00000000 	andeq	r0, r0, r0
     358:	d0000000 	andle	r0, r0, r0
     35c:	08000001 	stmdaeq	r0, {r0}
     360:	05000002 	streq	r0, [r0, #-2]
     364:	24484500 	strbcs	r4, [r8], #-1280	; 0x500
     368:	00009f1f 	andeq	r9, r0, pc, lsl pc
     36c:	00000000 	andeq	r0, r0, r0
     370:	02180000 	andseq	r0, r8, #0
     374:	02280000 	eoreq	r0, r8, #0
     378:	00020000 	andeq	r0, r2, r0
     37c:	02289f30 	eoreq	r9, r8, #48, 30	; 0xc0
     380:	02500000 	subseq	r0, r0, #0
     384:	00010000 	andeq	r0, r1, r0
     388:	00000055 	andeq	r0, r0, r5, asr r0
     38c:	00000000 	andeq	r0, r0, r0
     390:	00027400 	andeq	r7, r2, r0, lsl #8
     394:	00028800 	andeq	r8, r2, r0, lsl #16
     398:	50000100 	andpl	r0, r0, r0, lsl #2
     39c:	00000288 	andeq	r0, r0, r8, lsl #5
     3a0:	000002a0 	andeq	r0, r0, r0, lsr #5
     3a4:	00560001 	subseq	r0, r6, r1
     3a8:	00000000 	andeq	r0, r0, r0
     3ac:	74000000 	strvc	r0, [r0], #-0
     3b0:	88000002 	stmdahi	r0, {r1}
     3b4:	01000002 	tsteq	r0, r2
     3b8:	02885100 	addeq	r5, r8, #0, 2
     3bc:	02a00000 	adceq	r0, r0, #0
     3c0:	00010000 	andeq	r0, r1, r0
     3c4:	00000055 	andeq	r0, r0, r5, asr r0
     3c8:	00000000 	andeq	r0, r0, r0
     3cc:	00028000 	andeq	r8, r2, r0
     3d0:	00028800 	andeq	r8, r2, r0, lsl #16
     3d4:	30000200 	andcc	r0, r0, r0, lsl #4
     3d8:	0002889f 	muleq	r2, pc, r8	; <UNPREDICTABLE>
     3dc:	0002a000 	andeq	sl, r2, r0
     3e0:	54000100 	strpl	r0, [r0], #-256	; 0x100
	...
     3ec:	000002a8 	andeq	r0, r0, r8, lsr #5
     3f0:	000002ab 	andeq	r0, r0, fp, lsr #5
     3f4:	ab530001 	blge	14c0400 <__bss_end__+0x14b5d60>
     3f8:	b4000002 	strlt	r0, [r0], #-2
     3fc:	06000002 	streq	r0, [r0], -r2
     400:	9e900300 	cdpls	3, 9, cr0, cr0, cr0, {0}
     404:	009f0000 	addseq	r0, pc, r0
     408:	00000000 	andeq	r0, r0, r0
     40c:	2c000000 	stccs	0, cr0, [r0], {-0}
     410:	38000000 	stmdacc	r0, {}	; <UNPREDICTABLE>
     414:	01000000 	mrseq	r0, (UNDEF: 0)
     418:	00385000 	eorseq	r5, r8, r0
     41c:	00480000 	subeq	r0, r8, r0
     420:	00010000 	andeq	r0, r1, r0
     424:	00004855 	andeq	r4, r0, r5, asr r8
     428:	00005800 	andeq	r5, r0, r0, lsl #16
     42c:	50000100 	andpl	r0, r0, r0, lsl #2
	...
     43c:	0000000b 	andeq	r0, r0, fp
     440:	0b500001 	bleq	140044c <__bss_end__+0x13f5dac>
     444:	14000000 	strne	r0, [r0], #-0
     448:	01000000 	mrseq	r0, (UNDEF: 0)
     44c:	00005400 	andeq	r5, r0, r0, lsl #8
	...
     458:	00100000 	andseq	r0, r0, r0
     45c:	00010000 	andeq	r0, r1, r0
     460:	00001050 	andeq	r1, r0, r0, asr r0
     464:	00003400 	andeq	r3, r0, r0, lsl #8
     468:	54000100 	strpl	r0, [r0], #-256	; 0x100
	...
     478:	00000004 	andeq	r0, r0, r4
     47c:	04500001 	ldrbeq	r0, [r0], #-1
     480:	0c000000 	stceq	0, cr0, [r0], {-0}
     484:	03000000 	movweq	r0, #0
     488:	9f307000 	svcls	0x00307000
     48c:	0000000c 	andeq	r0, r0, ip
     490:	00000014 	andeq	r0, r0, r4, lsl r0
     494:	01f30004 	mvnseq	r0, r4
     498:	00009f50 	andeq	r9, r0, r0, asr pc
     49c:	00000000 	andeq	r0, r0, r0
     4a0:	00140000 	andseq	r0, r4, r0
     4a4:	00200000 	eoreq	r0, r0, r0
     4a8:	00010000 	andeq	r0, r1, r0
     4ac:	00002050 	andeq	r2, r0, r0, asr r0
     4b0:	00002c00 	andeq	r2, r0, r0, lsl #24
     4b4:	70000300 	andvc	r0, r0, r0, lsl #6
     4b8:	002c9f01 	eoreq	r9, ip, r1, lsl #30
     4bc:	00400000 	subeq	r0, r0, r0
     4c0:	00010000 	andeq	r0, r1, r0
     4c4:	00000050 	andeq	r0, r0, r0, asr r0
     4c8:	00000000 	andeq	r0, r0, r0
     4cc:	00001400 	andeq	r1, r0, r0, lsl #8
     4d0:	00001800 	andeq	r1, r0, r0, lsl #16
     4d4:	51000100 	mrspl	r0, (UNDEF: 16)
     4d8:	00000018 	andeq	r0, r0, r8, lsl r0
     4dc:	00000040 	andeq	r0, r0, r0, asr #32
     4e0:	01f30004 	mvnseq	r0, r4
     4e4:	00009f51 	andeq	r9, r0, r1, asr pc
     4e8:	00000000 	andeq	r0, r0, r0
     4ec:	00400000 	subeq	r0, r0, r0
     4f0:	00600000 	rsbeq	r0, r0, r0
     4f4:	00010000 	andeq	r0, r1, r0
     4f8:	00006050 	andeq	r6, r0, r0, asr r0
     4fc:	00006c00 	andeq	r6, r0, r0, lsl #24
     500:	71000300 	mrsvc	r0, LR_irq
     504:	006c9f01 	rsbeq	r9, ip, r1, lsl #30
     508:	00740000 	rsbseq	r0, r4, r0
     50c:	00010000 	andeq	r0, r1, r0
     510:	00007451 	andeq	r7, r0, r1, asr r4
     514:	00008000 	andeq	r8, r0, r0
     518:	71000300 	mrsvc	r0, LR_irq
     51c:	00009f01 	andeq	r9, r0, r1, lsl #30
     520:	00000000 	andeq	r0, r0, r0
     524:	00400000 	subeq	r0, r0, r0
     528:	00500000 	subseq	r0, r0, r0
     52c:	00010000 	andeq	r0, r1, r0
     530:	00005051 	andeq	r5, r0, r1, asr r0
     534:	00008000 	andeq	r8, r0, r0
     538:	f3000400 	vshl.u8	d0, d0, d0
     53c:	009f5101 	addseq	r5, pc, r1, lsl #2
     540:	00000000 	andeq	r0, r0, r0
     544:	40000000 	andmi	r0, r0, r0
     548:	58000000 	stmdapl	r0, {}	; <UNPREDICTABLE>
     54c:	01000000 	mrseq	r0, (UNDEF: 0)
     550:	00585200 	subseq	r5, r8, r0, lsl #4
     554:	00640000 	rsbeq	r0, r4, r0
     558:	00010000 	andeq	r0, r1, r0
     55c:	00006452 	andeq	r6, r0, r2, asr r4
     560:	00006800 	andeq	r6, r0, r0, lsl #16
     564:	72000300 	andvc	r0, r0, #0, 6
     568:	00689f01 	rsbeq	r9, r8, r1, lsl #30
     56c:	00800000 	addeq	r0, r0, r0
     570:	00010000 	andeq	r0, r1, r0
     574:	00000052 	andeq	r0, r0, r2, asr r0
     578:	00000000 	andeq	r0, r0, r0
     57c:	00004000 	andeq	r4, r0, r0
     580:	00005400 	andeq	r5, r0, r0, lsl #8
     584:	53000100 	movwpl	r0, #256	; 0x100
     588:	00000054 	andeq	r0, r0, r4, asr r0
     58c:	00000078 	andeq	r0, r0, r8, ror r0
     590:	00530001 	subseq	r0, r3, r1
     594:	00000000 	andeq	r0, r0, r0
     598:	48000000 	stmdami	r0, {}	; <UNPREDICTABLE>
     59c:	60000000 	andvs	r0, r0, r0
     5a0:	01000000 	mrseq	r0, (UNDEF: 0)
     5a4:	00605c00 	rsbeq	r5, r0, r0, lsl #24
     5a8:	00800000 	addeq	r0, r0, r0
     5ac:	000a0000 	andeq	r0, sl, r0
     5b0:	f35201f3 	vbsl	q8, q9, <illegal reg q9.5>
     5b4:	231c5301 	tstcs	ip, #67108864	; 0x4000000
     5b8:	00009f01 	andeq	r9, r0, r1, lsl #30
     5bc:	00000000 	andeq	r0, r0, r0
     5c0:	00800000 	addeq	r0, r0, r0
     5c4:	00a40000 	adceq	r0, r4, r0
     5c8:	00010000 	andeq	r0, r1, r0
     5cc:	0000a450 	andeq	sl, r0, r0, asr r4
     5d0:	00011800 	andeq	r1, r1, r0, lsl #16
     5d4:	70000300 	andvc	r0, r0, r0, lsl #6
     5d8:	01189f02 	tsteq	r8, r2, lsl #30
     5dc:	02280000 	eoreq	r0, r8, #0
     5e0:	00040000 	andeq	r0, r4, r0
     5e4:	9f5001f3 	svcls	0x005001f3
	...
     5f0:	00000080 	andeq	r0, r0, r0, lsl #1
     5f4:	000000f0 	strdeq	r0, [r0], -r0	; <UNPREDICTABLE>
     5f8:	f0510001 			; <UNDEFINED> instruction: 0xf0510001
     5fc:	60000000 	andvs	r0, r0, r0
     600:	01000001 	tsteq	r0, r1
     604:	01605500 	cmneq	r0, r0, lsl #10
     608:	01680000 	cmneq	r8, r0
     60c:	00010000 	andeq	r0, r1, r0
     610:	00016851 	andeq	r6, r1, r1, asr r8
     614:	00018800 	andeq	r8, r1, r0, lsl #16
     618:	55000100 	strpl	r0, [r0, #-256]	; 0x100
     61c:	00000188 	andeq	r0, r0, r8, lsl #3
     620:	0000019c 	muleq	r0, ip, r1
     624:	9c510001 	mrrcls	0, 0, r0, r1, cr1
     628:	bc000001 	stclt	0, cr0, [r0], {1}
     62c:	01000001 	tsteq	r0, r1
     630:	01bc5500 			; <UNDEFINED> instruction: 0x01bc5500
     634:	01bf0000 			; <UNDEFINED> instruction: 0x01bf0000
     638:	00010000 	andeq	r0, r1, r0
     63c:	0001bf51 	andeq	fp, r1, r1, asr pc
     640:	00020800 	andeq	r0, r2, r0, lsl #16
     644:	55000100 	strpl	r0, [r0, #-256]	; 0x100
     648:	00000208 	andeq	r0, r0, r8, lsl #4
     64c:	00000228 	andeq	r0, r0, r8, lsr #4
     650:	01f30004 	mvnseq	r0, r4
     654:	00009f51 	andeq	r9, r0, r1, asr pc
     658:	00000000 	andeq	r0, r0, r0
     65c:	00800000 	addeq	r0, r0, r0
     660:	00940000 	addseq	r0, r4, r0
     664:	00010000 	andeq	r0, r1, r0
     668:	00009452 	andeq	r9, r0, r2, asr r4
     66c:	00020800 	andeq	r0, r2, r0, lsl #16
     670:	54000100 	strpl	r0, [r0], #-256	; 0x100
     674:	00000208 	andeq	r0, r0, r8, lsl #4
     678:	00000228 	andeq	r0, r0, r8, lsr #4
     67c:	01f30004 	mvnseq	r0, r4
     680:	00009f52 	andeq	r9, r0, r2, asr pc
     684:	00000000 	andeq	r0, r0, r0
     688:	00800000 	addeq	r0, r0, r0
     68c:	01000000 	mrseq	r0, (UNDEF: 0)
     690:	00010000 	andeq	r0, r1, r0
     694:	00010453 	andeq	r0, r1, r3, asr r4
     698:	00010800 	andeq	r0, r1, r0, lsl #16
     69c:	53000100 	movwpl	r0, #256	; 0x100
     6a0:	00000160 	andeq	r0, r0, r0, ror #2
     6a4:	00000168 	andeq	r0, r0, r8, ror #2
     6a8:	68530001 	ldmdavs	r3, {r0}^
     6ac:	88000001 	stmdahi	r0, {r0}
     6b0:	04000001 	streq	r0, [r0], #-1
     6b4:	5301f300 	movwpl	pc, #4864	; 0x1300	; <UNPREDICTABLE>
     6b8:	0001889f 	muleq	r1, pc, r8	; <UNPREDICTABLE>
     6bc:	00019000 	andeq	r9, r1, r0
     6c0:	53000100 	movwpl	r0, #256	; 0x100
     6c4:	00000190 	muleq	r0, r0, r1
     6c8:	00000194 	muleq	r0, r4, r1
     6cc:	945c0001 	ldrbls	r0, [ip], #-1
     6d0:	9c000001 	stcls	0, cr0, [r0], {1}
     6d4:	01000001 	tsteq	r0, r1
     6d8:	019c5300 	orrseq	r5, ip, r0, lsl #6
     6dc:	01bc0000 			; <UNDEFINED> instruction: 0x01bc0000
     6e0:	00040000 	andeq	r0, r4, r0
     6e4:	9f5301f3 	svcls	0x005301f3
     6e8:	000001bc 			; <UNDEFINED> instruction: 0x000001bc
     6ec:	000001bf 			; <UNDEFINED> instruction: 0x000001bf
     6f0:	bf530001 	svclt	0x00530001
     6f4:	e0000001 	and	r0, r0, r1
     6f8:	04000001 	streq	r0, [r0], #-1
     6fc:	5301f300 	movwpl	pc, #4864	; 0x1300	; <UNPREDICTABLE>
     700:	0000009f 	muleq	r0, pc, r0	; <UNPREDICTABLE>
     704:	00000000 	andeq	r0, r0, r0
     708:	00008000 	andeq	r8, r0, r0
     70c:	00009c00 	andeq	r9, r0, r0, lsl #24
     710:	91000200 	mrsls	r0, R8_usr
     714:	00009c00 	andeq	r9, r0, r0, lsl #24
     718:	0001bf00 	andeq	fp, r1, r0, lsl #30
     71c:	52000100 	andpl	r0, r0, #0, 2
     720:	000001e0 	andeq	r0, r0, r0, ror #3
     724:	000001eb 	andeq	r0, r0, fp, ror #3
     728:	00520001 	subseq	r0, r2, r1
     72c:	00000000 	andeq	r0, r0, r0
     730:	9c000000 	stcls	0, cr0, [r0], {-0}
     734:	0c000000 	stceq	0, cr0, [r0], {-0}
     738:	04000001 	streq	r0, [r0], #-1
     73c:	7fa09100 	svcvc	0x00a09100
     740:	00010c9f 	muleq	r1, pc, ip	; <UNPREDICTABLE>
     744:	00011800 	andeq	r1, r1, r0, lsl #16
     748:	51000100 	mrspl	r0, (UNDEF: 16)
     74c:	00000118 	andeq	r0, r0, r8, lsl r1
     750:	0000011c 	andeq	r0, r0, ip, lsl r1
     754:	1c530001 	mrrcne	0, 0, r0, r3, cr1
     758:	20000001 	andcs	r0, r0, r1
     75c:	01000001 	tsteq	r0, r1
     760:	01205100 	teqeq	r0, r0, lsl #2
     764:	01600000 	cmneq	r0, r0
     768:	00010000 	andeq	r0, r1, r0
     76c:	00016053 	andeq	r6, r1, r3, asr r0
     770:	00016400 	andeq	r6, r1, r0, lsl #8
     774:	91000400 	tstls	r0, r0, lsl #8
     778:	649f7fa0 	ldrvs	r7, [pc], #4000	; 780 <_start-0x7880>
     77c:	6c000001 	stcvs	0, cr0, [r0], {1}
     780:	01000001 	tsteq	r0, r1
     784:	016c5e00 	cmneq	ip, r0, lsl #28
     788:	01880000 	orreq	r0, r8, r0
     78c:	00010000 	andeq	r0, r1, r0
     790:	00018853 	andeq	r8, r1, r3, asr r8
     794:	00019000 	andeq	r9, r1, r0
     798:	91000400 	tstls	r0, r0, lsl #8
     79c:	909f7fa1 	addsls	r7, pc, r1, lsr #31
     7a0:	94000001 	strls	r0, [r0], #-1
     7a4:	01000001 	tsteq	r0, r1
     7a8:	01945300 	orrseq	r5, r4, r0, lsl #6
     7ac:	01980000 	orrseq	r0, r8, r0
     7b0:	00040000 	andeq	r0, r4, r0
     7b4:	9f7fa091 	svcls	0x007fa091
     7b8:	00000198 	muleq	r0, r8, r1
     7bc:	000001a0 	andeq	r0, r0, r0, lsr #3
     7c0:	a05e0001 	subsge	r0, lr, r1
     7c4:	bc000001 	stclt	0, cr0, [r0], {1}
     7c8:	01000001 	tsteq	r0, r1
     7cc:	01bc5300 			; <UNDEFINED> instruction: 0x01bc5300
     7d0:	01e00000 	mvneq	r0, r0
     7d4:	00040000 	andeq	r0, r4, r0
     7d8:	9f7fa091 	svcls	0x007fa091
     7dc:	000001e0 	andeq	r0, r0, r0, ror #3
     7e0:	000001eb 	andeq	r0, r0, fp, ror #3
     7e4:	00530001 	subseq	r0, r3, r1
     7e8:	00000000 	andeq	r0, r0, r0
     7ec:	a0000000 	andge	r0, r0, r0
     7f0:	ec000000 	stc	0, cr0, [r0], {-0}
     7f4:	01000000 	mrseq	r0, (UNDEF: 0)
     7f8:	00ec5c00 	rsceq	r5, ip, r0, lsl #24
     7fc:	01000000 	mrseq	r0, (UNDEF: 0)
     800:	00010000 	andeq	r0, r1, r0
     804:	00010053 	andeq	r0, r1, r3, asr r0
     808:	00010400 	andeq	r0, r1, r0, lsl #8
     80c:	5c000100 	stfpls	f0, [r0], {-0}
     810:	00000104 	andeq	r0, r0, r4, lsl #2
     814:	00000108 	andeq	r0, r0, r8, lsl #2
     818:	08530001 	ldmdaeq	r3, {r0}^
     81c:	18000001 	stmdane	r0, {r0}
     820:	01000001 	tsteq	r0, r1
     824:	01185c00 	tsteq	r8, r0, lsl #24
     828:	011c0000 	tsteq	ip, r0
     82c:	00010000 	andeq	r0, r1, r0
     830:	00011c50 	andeq	r1, r1, r0, asr ip
     834:	00013c00 	andeq	r3, r1, r0, lsl #24
     838:	5c000100 	stfpls	f0, [r0], {-0}
     83c:	00000144 	andeq	r0, r0, r4, asr #2
     840:	00000158 	andeq	r0, r0, r8, asr r1
     844:	58500001 	ldmdapl	r0, {r0}^
     848:	60000001 	andvs	r0, r0, r1
     84c:	01000001 	tsteq	r0, r1
     850:	01605c00 	cmneq	r0, r0, lsl #24
     854:	01680000 	cmneq	r8, r0
     858:	00010000 	andeq	r0, r1, r0
     85c:	00016853 	andeq	r6, r1, r3, asr r8
     860:	00017800 	andeq	r7, r1, r0, lsl #16
     864:	5c000100 	stfpls	f0, [r0], {-0}
     868:	00000178 	andeq	r0, r0, r8, ror r1
     86c:	00000180 	andeq	r0, r0, r0, lsl #3
     870:	007c0005 	rsbseq	r0, ip, r5
     874:	809f2534 	addshi	r2, pc, r4, lsr r5	; <UNPREDICTABLE>
     878:	88000001 	stmdahi	r0, {r0}
     87c:	01000001 	tsteq	r0, r1
     880:	01885c00 	orreq	r5, r8, r0, lsl #24
     884:	01900000 	orrseq	r0, r0, r0
     888:	00010000 	andeq	r0, r1, r0
     88c:	00019053 	andeq	r9, r1, r3, asr r0
     890:	00019400 	andeq	r9, r1, r0, lsl #8
     894:	5c000100 	stfpls	f0, [r0], {-0}
     898:	00000194 	muleq	r0, r4, r1
     89c:	0000019c 	muleq	r0, ip, r1
     8a0:	9c530001 	mrrcls	0, 0, r0, r3, cr1
     8a4:	ac000001 	stcge	0, cr0, [r0], {1}
     8a8:	01000001 	tsteq	r0, r1
     8ac:	01ac5c00 			; <UNDEFINED> instruction: 0x01ac5c00
     8b0:	01b40000 			; <UNDEFINED> instruction: 0x01b40000
     8b4:	00050000 	andeq	r0, r5, r0
     8b8:	2531007c 	ldrcs	r0, [r1, #-124]!	; 0x7c
     8bc:	0001b49f 	muleq	r1, pc, r4	; <UNPREDICTABLE>
     8c0:	0001bc00 	andeq	fp, r1, r0, lsl #24
     8c4:	5c000100 	stfpls	f0, [r0], {-0}
     8c8:	000001bc 			; <UNDEFINED> instruction: 0x000001bc
     8cc:	000001bf 			; <UNDEFINED> instruction: 0x000001bf
     8d0:	bf530001 	svclt	0x00530001
     8d4:	e0000001 	and	r0, r0, r1
     8d8:	04000001 	streq	r0, [r0], #-1
     8dc:	5301f300 	movwpl	pc, #4864	; 0x1300	; <UNPREDICTABLE>
     8e0:	0001e09f 	muleq	r1, pc, r0	; <UNPREDICTABLE>
     8e4:	0001eb00 	andeq	lr, r1, r0, lsl #22
     8e8:	5c000100 	stfpls	f0, [r0], {-0}
	...
     8f4:	000000ec 	andeq	r0, r0, ip, ror #1
     8f8:	000000fc 	strdeq	r0, [r0], -ip
     8fc:	9f300002 	svcls	0x00300002
     900:	000000fc 	strdeq	r0, [r0], -ip
     904:	00000104 	andeq	r0, r0, r4, lsl #2
     908:	9f310002 	svcls	0x00310002
     90c:	00000104 	andeq	r0, r0, r4, lsl #2
     910:	00000108 	andeq	r0, r0, r8, lsl #2
     914:	9f300002 	svcls	0x00300002
	...
     920:	00000228 	andeq	r0, r0, r8, lsr #4
     924:	0000023b 	andeq	r0, r0, fp, lsr r2
     928:	3b500001 	blcc	1400934 <__bss_end__+0x13f6294>
     92c:	5c000002 	stcpl	0, cr0, [r0], {2}
     930:	04000002 	streq	r0, [r0], #-2
     934:	5001f300 	andpl	pc, r1, r0, lsl #6
     938:	00025c9f 	muleq	r2, pc, ip	; <UNPREDICTABLE>
     93c:	00029000 	andeq	r9, r2, r0
     940:	50000100 	andpl	r0, r0, r0, lsl #2
	...
     94c:	00000228 	andeq	r0, r0, r8, lsr #4
     950:	0000023b 	andeq	r0, r0, fp, lsr r2
     954:	3b510001 	blcc	1440960 <__bss_end__+0x14362c0>
     958:	5c000002 	stcpl	0, cr0, [r0], {2}
     95c:	04000002 	streq	r0, [r0], #-2
     960:	5101f300 	mrspl	pc, SP_irq	; <UNPREDICTABLE>
     964:	00025c9f 	muleq	r2, pc, ip	; <UNPREDICTABLE>
     968:	00029000 	andeq	r9, r2, r0
     96c:	51000100 	mrspl	r0, (UNDEF: 16)
	...
     978:	00000290 	muleq	r0, r0, r2
     97c:	000002bc 			; <UNDEFINED> instruction: 0x000002bc
     980:	bc500001 	mrrclt	0, 0, r0, r0, cr1	; <UNPREDICTABLE>
     984:	0c000002 	stceq	0, cr0, [r0], {2}
     988:	01000005 	tsteq	r0, r5
     98c:	050c5a00 	streq	r5, [ip, #-2560]	; 0xa00
     990:	05240000 	streq	r0, [r4, #-0]!
     994:	00040000 	andeq	r0, r4, r0
     998:	9f5001f3 	svcls	0x005001f3
	...
     9a4:	00000290 	muleq	r0, r0, r2
     9a8:	000002a4 	andeq	r0, r0, r4, lsr #5
     9ac:	a4510001 	ldrbge	r0, [r1], #-1
     9b0:	bc000002 	stclt	0, cr0, [r0], {2}
     9b4:	03000002 	movweq	r0, #2
     9b8:	9f017100 	svcls	0x00017100
     9bc:	000002bc 			; <UNDEFINED> instruction: 0x000002bc
     9c0:	00000524 	andeq	r0, r0, r4, lsr #10
     9c4:	01f30004 	mvnseq	r0, r4
     9c8:	00009f51 	andeq	r9, r0, r1, asr pc
     9cc:	00000000 	andeq	r0, r0, r0
     9d0:	02900000 	addseq	r0, r0, #0
     9d4:	02c40000 	sbceq	r0, r4, #0
     9d8:	00010000 	andeq	r0, r1, r0
     9dc:	0002c452 	andeq	ip, r2, r2, asr r4
     9e0:	0002ec00 	andeq	lr, r2, r0, lsl #24
     9e4:	52000100 	andpl	r0, r0, #0, 2
     9e8:	000002ec 	andeq	r0, r0, ip, ror #5
     9ec:	000004bc 			; <UNDEFINED> instruction: 0x000004bc
     9f0:	bc560001 	mrrclt	0, 0, r0, r6, cr1
     9f4:	24000004 	strcs	r0, [r0], #-4
     9f8:	01000005 	tsteq	r0, r5
     9fc:	00005200 	andeq	r5, r0, r0, lsl #4
     a00:	00000000 	andeq	r0, r0, r0
     a04:	02900000 	addseq	r0, r0, #0
     a08:	02ac0000 	adceq	r0, ip, #0
     a0c:	00010000 	andeq	r0, r1, r0
     a10:	00000053 	andeq	r0, r0, r3, asr r0
     a14:	00000000 	andeq	r0, r0, r0
     a18:	0002a000 	andeq	sl, r2, r0
     a1c:	0002bc00 	andeq	fp, r2, r0, lsl #24
     a20:	50000100 	andpl	r0, r0, r0, lsl #2
     a24:	000002bc 			; <UNDEFINED> instruction: 0x000002bc
     a28:	000002c0 	andeq	r0, r0, r0, asr #5
     a2c:	c0540001 	subsgt	r0, r4, r1
     a30:	cc000002 	stcgt	0, cr0, [r0], {2}
     a34:	03000002 	movweq	r0, #2
     a38:	9f017400 	svcls	0x00017400
     a3c:	000002cc 	andeq	r0, r0, ip, asr #5
     a40:	000002d8 	ldrdeq	r0, [r0], -r8
     a44:	d8540001 	ldmdale	r4, {r0}^
     a48:	e4000002 	str	r0, [r0], #-2
     a4c:	03000002 	movweq	r0, #2
     a50:	9f017400 	svcls	0x00017400
     a54:	000002e4 	andeq	r0, r0, r4, ror #5
     a58:	000004c0 	andeq	r0, r0, r0, asr #9
     a5c:	c0540001 	subsgt	r0, r4, r1
     a60:	cc000004 	stcgt	0, cr0, [r0], {4}
     a64:	03000004 	movweq	r0, #4
     a68:	9f017400 	svcls	0x00017400
     a6c:	000004cc 	andeq	r0, r0, ip, asr #9
     a70:	000004f8 	strdeq	r0, [r0], -r8
     a74:	f8540001 			; <UNDEFINED> instruction: 0xf8540001
     a78:	04000004 	streq	r0, [r0], #-4
     a7c:	01000005 	tsteq	r0, r5
     a80:	05045000 	streq	r5, [r4, #-0]
     a84:	050c0000 	streq	r0, [ip, #-0]
     a88:	00030000 	andeq	r0, r3, r0
     a8c:	009f0174 	addseq	r0, pc, r4, ror r1	; <UNPREDICTABLE>
     a90:	00000000 	andeq	r0, r0, r0
     a94:	a8000000 	stmdage	r0, {}	; <UNPREDICTABLE>
     a98:	0c000002 	stceq	0, cr0, [r0], {2}
     a9c:	01000005 	tsteq	r0, r5
     aa0:	050c5800 	streq	r5, [ip, #-2048]	; 0x800
     aa4:	05240000 	streq	r0, [r4, #-0]!
     aa8:	000a0000 	andeq	r0, sl, r0
     aac:	f35101f3 	vbsl	q8, <illegal reg q8.5>, <illegal reg q9.5>
     ab0:	31225001 	teqcc	r2, r1
     ab4:	00009f1c 	andeq	r9, r0, ip, lsl pc
     ab8:	00000000 	andeq	r0, r0, r0
     abc:	03f40000 	mvnseq	r0, #0
     ac0:	03f80000 	mvnseq	r0, #0
     ac4:	00010000 	andeq	r0, r1, r0
     ac8:	00041850 	andeq	r1, r4, r0, asr r8
     acc:	00041c00 	andeq	r1, r4, r0, lsl #24
     ad0:	50000100 	andpl	r0, r0, r0, lsl #2
     ad4:	0000043c 	andeq	r0, r0, ip, lsr r4
     ad8:	00000440 	andeq	r0, r0, r0, asr #8
     adc:	60500001 	subsvs	r0, r0, r1
     ae0:	64000004 	strvs	r0, [r0], #-4
     ae4:	01000004 	tsteq	r0, r4
     ae8:	046c5000 	strbteq	r5, [ip], #-0
     aec:	04700000 	ldrbteq	r0, [r0], #-0
     af0:	00010000 	andeq	r0, r1, r0
     af4:	00049050 	andeq	r9, r4, r0, asr r0
     af8:	00049400 	andeq	r9, r4, r0, lsl #8
     afc:	50000100 	andpl	r0, r0, r0, lsl #2
     b00:	000004b8 			; <UNDEFINED> instruction: 0x000004b8
     b04:	000004e0 	andeq	r0, r0, r0, ror #9
     b08:	00500001 	subseq	r0, r0, r1
     b0c:	00000000 	andeq	r0, r0, r0
     b10:	ec000000 	stc	0, cr0, [r0], {-0}
     b14:	f4000002 	vst4.8	{d0-d3}, [r0], r2
     b18:	02000002 	andeq	r0, r0, #2
     b1c:	f49f3000 			; <UNDEFINED> instruction: 0xf49f3000
     b20:	f8000002 			; <UNDEFINED> instruction: 0xf8000002
     b24:	01000002 	tsteq	r0, r2
     b28:	03045700 	movweq	r5, #18176	; 0x4700
     b2c:	04e00000 	strbteq	r0, [r0], #0
     b30:	00010000 	andeq	r0, r1, r0
     b34:	00000057 	andeq	r0, r0, r7, asr r0
	...
     b40:	00000c00 	andeq	r0, r0, r0, lsl #24
     b44:	50000100 	andpl	r0, r0, r0, lsl #2
     b48:	0000000c 	andeq	r0, r0, ip
     b4c:	00000020 	andeq	r0, r0, r0, lsr #32
     b50:	00540001 	subseq	r0, r4, r1
     b54:	00000000 	andeq	r0, r0, r0
     b58:	34000000 	strcc	r0, [r0], #-0
     b5c:	3c000000 	stccc	0, cr0, [r0], {-0}
     b60:	03000000 	movweq	r0, #0
     b64:	9f047300 	svcls	0x00047300
     b68:	0000003c 	andeq	r0, r0, ip, lsr r0
     b6c:	00000047 	andeq	r0, r0, r7, asr #32
     b70:	00530001 	subseq	r0, r3, r1
     b74:	00000000 	andeq	r0, r0, r0
     b78:	48000000 	stmdami	r0, {}	; <UNPREDICTABLE>
     b7c:	74000000 	strvc	r0, [r0], #-0
     b80:	01000000 	mrseq	r0, (UNDEF: 0)
     b84:	00745000 	rsbseq	r5, r4, r0
     b88:	00830000 	addeq	r0, r3, r0
     b8c:	00030000 	andeq	r0, r3, r0
     b90:	009f7873 	addseq	r7, pc, r3, ror r8	; <UNPREDICTABLE>
     b94:	00000000 	andeq	r0, r0, r0
     b98:	48000000 	stmdami	r0, {}	; <UNPREDICTABLE>
     b9c:	4c00008b 	stcmi	0, cr0, [r0], {139}	; 0x8b
     ba0:	0200008b 	andeq	r0, r0, #139	; 0x8b
     ba4:	4c9f3000 	ldcmi	0, cr3, [pc], {0}
     ba8:	5000008b 	andpl	r0, r0, fp, lsl #1
     bac:	0100008b 	smlabbeq	r0, fp, r0, r0
     bb0:	00005000 	andeq	r5, r0, r0
     bb4:	00000000 	andeq	r0, r0, r0
     bb8:	8b600000 	blhi	1800bc0 <__bss_end__+0x17f6520>
     bbc:	8b640000 	blhi	1900bc4 <__bss_end__+0x18f6524>
     bc0:	00020000 	andeq	r0, r2, r0
     bc4:	8b649f30 	blhi	192888c <__bss_end__+0x191e1ec>
     bc8:	8b680000 	blhi	1a00bd0 <__bss_end__+0x19f6530>
     bcc:	00010000 	andeq	r0, r1, r0
     bd0:	008b6c53 	addeq	r6, fp, r3, asr ip
     bd4:	008b7400 	addeq	r7, fp, r0, lsl #8
     bd8:	53000100 	movwpl	r0, #256	; 0x100
	...
     be8:	00000004 	andeq	r0, r0, r4
     bec:	04500001 	ldrbeq	r0, [r0], #-1
     bf0:	0c000000 	stceq	0, cr0, [r0], {-0}
     bf4:	01000000 	mrseq	r0, (UNDEF: 0)
     bf8:	000c5300 	andeq	r5, ip, r0, lsl #6
     bfc:	00100000 	andseq	r0, r0, r0
     c00:	00010000 	andeq	r0, r1, r0
     c04:	00001050 	andeq	r1, r0, r0, asr r0
     c08:	00001c00 	andeq	r1, r0, r0, lsl #24
     c0c:	53000100 	movwpl	r0, #256	; 0x100
	...
     c18:	0000003c 	andeq	r0, r0, ip, lsr r0
     c1c:	00000047 	andeq	r0, r0, r7, asr #32
     c20:	47500001 	ldrbmi	r0, [r0, -r1]
     c24:	60000000 	andvs	r0, r0, r0
     c28:	01000000 	mrseq	r0, (UNDEF: 0)
     c2c:	00005500 	andeq	r5, r0, r0, lsl #10
     c30:	00000000 	andeq	r0, r0, r0
     c34:	00500000 	subseq	r0, r0, r0
     c38:	00540000 	subseq	r0, r4, r0
     c3c:	00010000 	andeq	r0, r1, r0
     c40:	00000050 	andeq	r0, r0, r0, asr r0
     c44:	00000000 	andeq	r0, r0, r0
     c48:	00006000 	andeq	r6, r0, r0
     c4c:	00006c00 	andeq	r6, r0, r0, lsl #24
     c50:	50000100 	andpl	r0, r0, r0, lsl #2
     c54:	0000006c 	andeq	r0, r0, ip, rrx
     c58:	00000074 	andeq	r0, r0, r4, ror r0
     c5c:	01f30004 	mvnseq	r0, r4
     c60:	00009f50 	andeq	r9, r0, r0, asr pc
     c64:	00000000 	andeq	r0, r0, r0
     c68:	00740000 	rsbseq	r0, r4, r0
     c6c:	00800000 	addeq	r0, r0, r0
     c70:	00010000 	andeq	r0, r1, r0
     c74:	00008050 	andeq	r8, r0, r0, asr r0
     c78:	00008800 	andeq	r8, r0, r0, lsl #16
     c7c:	f3000400 	vshl.u8	d0, d0, d0
     c80:	009f5001 	addseq	r5, pc, r1
	...
     c8c:	18000000 	stmdane	r0, {}	; <UNPREDICTABLE>
     c90:	01000000 	mrseq	r0, (UNDEF: 0)
     c94:	00185000 	andseq	r5, r8, r0
     c98:	01540000 	cmpeq	r4, r0
     c9c:	00040000 	andeq	r0, r4, r0
     ca0:	9f5001f3 	svcls	0x005001f3
	...
     cb0:	0000001c 	andeq	r0, r0, ip, lsl r0
     cb4:	1c510001 	mrrcne	0, 0, r0, r1, cr1
     cb8:	54000000 	strpl	r0, [r0], #-0
     cbc:	04000001 	streq	r0, [r0], #-1
     cc0:	5101f300 	mrspl	pc, SP_irq	; <UNPREDICTABLE>
     cc4:	0000009f 	muleq	r0, pc, r0	; <UNPREDICTABLE>
     cc8:	00000000 	andeq	r0, r0, r0
     ccc:	00001000 	andeq	r1, r0, r0
     cd0:	00013400 	andeq	r3, r1, r0, lsl #8
     cd4:	55000100 	strpl	r0, [r0, #-256]	; 0x100
	...
     ce0:	00000010 	andeq	r0, r0, r0, lsl r0
     ce4:	00000034 	andeq	r0, r0, r4, lsr r0
     ce8:	34550001 	ldrbcc	r0, [r5], #-1
     cec:	34000000 	strcc	r0, [r0], #-0
     cf0:	01000001 	tsteq	r0, r1
     cf4:	01345800 	teqeq	r4, r0, lsl #16
     cf8:	01540000 	cmpeq	r4, r0
     cfc:	00010000 	andeq	r0, r1, r0
     d00:	00000055 	andeq	r0, r0, r5, asr r0
     d04:	00000000 	andeq	r0, r0, r0
     d08:	00001400 	andeq	r1, r0, r0, lsl #8
     d0c:	00013400 	andeq	r3, r1, r0, lsl #8
     d10:	55000100 	strpl	r0, [r0, #-256]	; 0x100
	...
     d1c:	00000020 	andeq	r0, r0, r0, lsr #32
     d20:	00000134 	andeq	r0, r0, r4, lsr r1
     d24:	00550001 	subseq	r0, r5, r1
     d28:	00000000 	andeq	r0, r0, r0
     d2c:	24000000 	strcs	r0, [r0], #-0
     d30:	28000000 	stmdacs	r0, {}	; <UNPREDICTABLE>
     d34:	01000000 	mrseq	r0, (UNDEF: 0)
     d38:	00005300 	andeq	r5, r0, r0, lsl #6
     d3c:	00000000 	andeq	r0, r0, r0
     d40:	00340000 	eorseq	r0, r4, r0
     d44:	00540000 	subseq	r0, r4, r0
     d48:	00010000 	andeq	r0, r1, r0
     d4c:	00005458 	andeq	r5, r0, r8, asr r4
     d50:	00013400 	andeq	r3, r1, r0, lsl #8
     d54:	75000500 	strvc	r0, [r0, #-1280]	; 0x500
     d58:	9f243100 	svcls	0x00243100
	...
     d64:	00000034 	andeq	r0, r0, r4, lsr r0
     d68:	0000003c 	andeq	r0, r0, ip, lsr r0
     d6c:	00770005 	rsbseq	r0, r7, r5
     d70:	3c9f1a31 	vldmiacc	pc, {s2-s50}
     d74:	3f000000 	svccc	0x00000000
     d78:	01000000 	mrseq	r0, (UNDEF: 0)
     d7c:	003f5100 	eorseq	r5, pc, r0, lsl #2
     d80:	01540000 	cmpeq	r4, r0
     d84:	00050000 	andeq	r0, r5, r0
     d88:	1a310077 	bne	c40f6c <__bss_end__+0xc368cc>
     d8c:	0000009f 	muleq	r0, pc, r0	; <UNPREDICTABLE>
     d90:	00000000 	andeq	r0, r0, r0
     d94:	00004000 	andeq	r4, r0, r0
     d98:	00005400 	andeq	r5, r0, r0, lsl #8
     d9c:	58000100 	stmdapl	r0, {r8}
     da0:	00000054 	andeq	r0, r0, r4, asr r0
     da4:	00000134 	andeq	r0, r0, r4, lsr r1
     da8:	00750005 	rsbseq	r0, r5, r5
     dac:	009f2431 	addseq	r2, pc, r1, lsr r4	; <UNPREDICTABLE>
     db0:	00000000 	andeq	r0, r0, r0
     db4:	44000000 	strmi	r0, [r0], #-0
     db8:	48000000 	stmdami	r0, {}	; <UNPREDICTABLE>
     dbc:	01000000 	mrseq	r0, (UNDEF: 0)
     dc0:	00005300 	andeq	r5, r0, r0, lsl #6
     dc4:	00000000 	andeq	r0, r0, r0
     dc8:	00540000 	subseq	r0, r4, r0
     dcc:	00740000 	rsbseq	r0, r4, r0
     dd0:	00010000 	andeq	r0, r1, r0
     dd4:	00007458 	andeq	r7, r0, r8, asr r4
     dd8:	00013400 	andeq	r3, r1, r0, lsl #8
     ddc:	75000800 	strvc	r0, [r0, #-2048]	; 0x800
     de0:	75243100 	strvc	r3, [r4, #-256]!	; 0x100
     de4:	009f2200 	addseq	r2, pc, r0, lsl #4
     de8:	00000000 	andeq	r0, r0, r0
     dec:	60000000 	andvs	r0, r0, r0
     df0:	74000000 	strvc	r0, [r0], #-0
     df4:	01000000 	mrseq	r0, (UNDEF: 0)
     df8:	00745800 	rsbseq	r5, r4, r0, lsl #16
     dfc:	01340000 	teqeq	r4, r0
     e00:	00080000 	andeq	r0, r8, r0
     e04:	24310075 	ldrtcs	r0, [r1], #-117	; 0x75
     e08:	9f220075 	svcls	0x00220075
	...
     e14:	00000064 	andeq	r0, r0, r4, rrx
     e18:	00000068 	andeq	r0, r0, r8, rrx
     e1c:	00530001 	subseq	r0, r3, r1
     e20:	00000000 	andeq	r0, r0, r0
     e24:	74000000 	strvc	r0, [r0], #-0
     e28:	94000000 	strls	r0, [r0], #-0
     e2c:	01000000 	mrseq	r0, (UNDEF: 0)
     e30:	00945800 	addseq	r5, r4, r0, lsl #16
     e34:	01340000 	teqeq	r4, r0
     e38:	00050000 	andeq	r0, r5, r0
     e3c:	24320075 	ldrtcs	r0, [r2], #-117	; 0x75
     e40:	0000009f 	muleq	r0, pc, r0	; <UNPREDICTABLE>
     e44:	00000000 	andeq	r0, r0, r0
     e48:	00008000 	andeq	r8, r0, r0
     e4c:	00009400 	andeq	r9, r0, r0, lsl #8
     e50:	58000100 	stmdapl	r0, {r8}
     e54:	00000094 	muleq	r0, r4, r0
     e58:	00000134 	andeq	r0, r0, r4, lsr r1
     e5c:	00750005 	rsbseq	r0, r5, r5
     e60:	009f2432 	addseq	r2, pc, r2, lsr r4	; <UNPREDICTABLE>
     e64:	00000000 	andeq	r0, r0, r0
     e68:	84000000 	strhi	r0, [r0], #-0
     e6c:	88000000 	stmdahi	r0, {}	; <UNPREDICTABLE>
     e70:	01000000 	mrseq	r0, (UNDEF: 0)
     e74:	00005300 	andeq	r5, r0, r0, lsl #6
     e78:	00000000 	andeq	r0, r0, r0
     e7c:	00940000 	addseq	r0, r4, r0
     e80:	00b40000 	adcseq	r0, r4, r0
     e84:	00010000 	andeq	r0, r1, r0
     e88:	0000b458 	andeq	fp, r0, r8, asr r4
     e8c:	00013400 	andeq	r3, r1, r0, lsl #8
     e90:	75000800 	strvc	r0, [r0, #-2048]	; 0x800
     e94:	75243200 	strvc	r3, [r4, #-512]!	; 0x200
     e98:	009f2200 	addseq	r2, pc, r0, lsl #4
     e9c:	00000000 	andeq	r0, r0, r0
     ea0:	a0000000 	andge	r0, r0, r0
     ea4:	b4000000 	strlt	r0, [r0], #-0
     ea8:	01000000 	mrseq	r0, (UNDEF: 0)
     eac:	00b45800 	adcseq	r5, r4, r0, lsl #16
     eb0:	01340000 	teqeq	r4, r0
     eb4:	00080000 	andeq	r0, r8, r0
     eb8:	24320075 	ldrtcs	r0, [r2], #-117	; 0x75
     ebc:	9f220075 	svcls	0x00220075
	...
     ec8:	000000a4 	andeq	r0, r0, r4, lsr #1
     ecc:	000000a8 	andeq	r0, r0, r8, lsr #1
     ed0:	00530001 	subseq	r0, r3, r1
     ed4:	00000000 	andeq	r0, r0, r0
     ed8:	b4000000 	strlt	r0, [r0], #-0
     edc:	d4000000 	strle	r0, [r0], #-0
     ee0:	01000000 	mrseq	r0, (UNDEF: 0)
     ee4:	00d45800 	sbcseq	r5, r4, r0, lsl #16
     ee8:	01340000 	teqeq	r4, r0
     eec:	000a0000 	andeq	r0, sl, r0
     ef0:	24320075 	ldrtcs	r0, [r2], #-117	; 0x75
     ef4:	24310075 	ldrtcs	r0, [r1], #-117	; 0x75
     ef8:	00009f22 	andeq	r9, r0, r2, lsr #30
     efc:	00000000 	andeq	r0, r0, r0
     f00:	00c00000 	sbceq	r0, r0, r0
     f04:	00d40000 	sbcseq	r0, r4, r0
     f08:	00010000 	andeq	r0, r1, r0
     f0c:	0000d458 	andeq	sp, r0, r8, asr r4
     f10:	00013400 	andeq	r3, r1, r0, lsl #8
     f14:	75000a00 	strvc	r0, [r0, #-2560]	; 0xa00
     f18:	75243200 	strvc	r3, [r4, #-512]!	; 0x200
     f1c:	22243100 	eorcs	r3, r4, #0, 2
     f20:	0000009f 	muleq	r0, pc, r0	; <UNPREDICTABLE>
     f24:	00000000 	andeq	r0, r0, r0
     f28:	0000c400 	andeq	ip, r0, r0, lsl #8
     f2c:	0000c800 	andeq	ip, r0, r0, lsl #16
     f30:	53000100 	movwpl	r0, #256	; 0x100
	...
     f3c:	000000d4 	ldrdeq	r0, [r0], -r4
     f40:	000000f4 	strdeq	r0, [r0], -r4
     f44:	f4580001 			; <UNDEFINED> instruction: 0xf4580001
     f48:	34000000 	strcc	r0, [r0], #-0
     f4c:	0d000001 	stceq	0, cr0, [r0, #-4]
     f50:	32007500 	andcc	r7, r0, #0, 10
     f54:	31007524 	tstcc	r0, r4, lsr #10
     f58:	00752224 	rsbseq	r2, r5, r4, lsr #4
     f5c:	00009f22 	andeq	r9, r0, r2, lsr #30
     f60:	00000000 	andeq	r0, r0, r0
     f64:	00e00000 	rsceq	r0, r0, r0
     f68:	00f40000 	rscseq	r0, r4, r0
     f6c:	00010000 	andeq	r0, r1, r0
     f70:	0000f458 	andeq	pc, r0, r8, asr r4	; <UNPREDICTABLE>
     f74:	00013400 	andeq	r3, r1, r0, lsl #8
     f78:	75000d00 	strvc	r0, [r0, #-3328]	; 0xd00
     f7c:	75243200 	strvc	r3, [r4, #-512]!	; 0x200
     f80:	22243100 	eorcs	r3, r4, #0, 2
     f84:	9f220075 	svcls	0x00220075
	...
     f90:	000000e4 	andeq	r0, r0, r4, ror #1
     f94:	000000e8 	andeq	r0, r0, r8, ror #1
     f98:	00530001 	subseq	r0, r3, r1
     f9c:	00000000 	andeq	r0, r0, r0
     fa0:	f4000000 	vst4.8	{d0-d3}, [r0], r0
     fa4:	14000000 	strne	r0, [r0], #-0
     fa8:	01000001 	tsteq	r0, r1
     fac:	01145800 	tsteq	r4, r0, lsl #16
     fb0:	01340000 	teqeq	r4, r0
     fb4:	00050000 	andeq	r0, r5, r0
     fb8:	24330075 	ldrtcs	r0, [r3], #-117	; 0x75
     fbc:	0000009f 	muleq	r0, pc, r0	; <UNPREDICTABLE>
     fc0:	00000000 	andeq	r0, r0, r0
     fc4:	00010000 	andeq	r0, r1, r0
     fc8:	00011400 	andeq	r1, r1, r0, lsl #8
     fcc:	58000100 	stmdapl	r0, {r8}
     fd0:	00000114 	andeq	r0, r0, r4, lsl r1
     fd4:	00000134 	andeq	r0, r0, r4, lsr r1
     fd8:	00750005 	rsbseq	r0, r5, r5
     fdc:	009f2433 	addseq	r2, pc, r3, lsr r4	; <UNPREDICTABLE>
     fe0:	00000000 	andeq	r0, r0, r0
     fe4:	04000000 	streq	r0, [r0], #-0
     fe8:	08000001 	stmdaeq	r0, {r0}
     fec:	01000001 	tsteq	r0, r1
     ff0:	00005300 	andeq	r5, r0, r0, lsl #6
     ff4:	00000000 	andeq	r0, r0, r0
     ff8:	01140000 	tsteq	r4, r0
     ffc:	011c0000 	tsteq	ip, r0
    1000:	00060000 	andeq	r0, r6, r0
    1004:	80080077 	andhi	r0, r8, r7, ror r0
    1008:	011c9f1a 	tsteq	ip, sl, lsl pc
    100c:	011f0000 	tsteq	pc, r0
    1010:	00010000 	andeq	r0, r1, r0
    1014:	00011f51 	andeq	r1, r1, r1, asr pc
    1018:	00015400 	andeq	r5, r1, r0, lsl #8
    101c:	77000600 	strvc	r0, [r0, -r0, lsl #12]
    1020:	1a800800 	bne	fe003028 <__bss_end__+0xfdff8988>
    1024:	0000009f 	muleq	r0, pc, r0	; <UNPREDICTABLE>
    1028:	00000000 	andeq	r0, r0, r0
    102c:	00012400 	andeq	r2, r1, r0, lsl #8
    1030:	00012800 	andeq	r2, r1, r0, lsl #16
    1034:	53000100 	movwpl	r0, #256	; 0x100
	...
    1040:	00000144 	andeq	r0, r0, r4, asr #2
    1044:	00000148 	andeq	r0, r0, r8, asr #2
    1048:	00530001 	subseq	r0, r3, r1
    104c:	00000000 	andeq	r0, r0, r0
    1050:	54000000 	strpl	r0, [r0], #-0
    1054:	6b000001 	blvs	1060 <_start-0x6fa0>
    1058:	01000001 	tsteq	r0, r1
    105c:	016b5000 	cmneq	fp, r0
    1060:	01d00000 	bicseq	r0, r0, r0
    1064:	00010000 	andeq	r0, r1, r0
    1068:	0001d059 	andeq	sp, r1, r9, asr r0
    106c:	00030c00 	andeq	r0, r3, r0, lsl #24
    1070:	f3000400 	vshl.u8	d0, d0, d0
    1074:	0c9f5001 	ldceq	0, cr5, [pc], {1}
    1078:	14000003 	strne	r0, [r0], #-3
    107c:	01000003 	tsteq	r0, r3
    1080:	03145900 	tsteq	r4, #0, 18
    1084:	031c0000 	tsteq	ip, #0
    1088:	00040000 	andeq	r0, r4, r0
    108c:	9f5001f3 	svcls	0x005001f3
	...
    1098:	00000154 	andeq	r0, r0, r4, asr r1
    109c:	0000016b 	andeq	r0, r0, fp, ror #2
    10a0:	6b510001 	blvs	14410ac <__bss_end__+0x1436a0c>
    10a4:	1c000001 	stcne	0, cr0, [r0], {1}
    10a8:	01000003 	tsteq	r0, r3
    10ac:	00005600 	andeq	r5, r0, r0, lsl #12
    10b0:	00000000 	andeq	r0, r0, r0
    10b4:	01a80000 			; <UNDEFINED> instruction: 0x01a80000
    10b8:	02980000 	addseq	r0, r8, #0
    10bc:	00010000 	andeq	r0, r1, r0
    10c0:	00000058 	andeq	r0, r0, r8, asr r0
    10c4:	00000000 	andeq	r0, r0, r0
    10c8:	0001ac00 	andeq	sl, r1, r0, lsl #24
    10cc:	0002d000 	andeq	sp, r2, r0
    10d0:	54000100 	strpl	r0, [r0], #-256	; 0x100
	...
    10dc:	000001ac 	andeq	r0, r0, ip, lsr #3
    10e0:	000002d0 	ldrdeq	r0, [r0], -r0	; <UNPREDICTABLE>
    10e4:	00740005 	rsbseq	r0, r4, r5
    10e8:	009f2531 	addseq	r2, pc, r1, lsr r5	; <UNPREDICTABLE>
    10ec:	00000000 	andeq	r0, r0, r0
    10f0:	ac000000 	stcge	0, cr0, [r0], {-0}
    10f4:	d0000001 	andle	r0, r0, r1
    10f8:	02000001 	andeq	r0, r0, #1
    10fc:	d09f3000 	addsle	r3, pc, r0
    1100:	0c000001 	stceq	0, cr0, [r0], {1}
    1104:	01000003 	tsteq	r0, r3
    1108:	03145900 	tsteq	r4, #0, 18
    110c:	031c0000 	tsteq	ip, #0
    1110:	00010000 	andeq	r0, r1, r0
    1114:	00000059 	andeq	r0, r0, r9, asr r0
    1118:	00000000 	andeq	r0, r0, r0
    111c:	00016800 	andeq	r6, r1, r0, lsl #16
    1120:	00016b00 	andeq	r6, r1, r0, lsl #22
    1124:	51000100 	mrspl	r0, (UNDEF: 16)
    1128:	0000016b 	andeq	r0, r0, fp, ror #2
    112c:	0000031c 	andeq	r0, r0, ip, lsl r3
    1130:	00560001 	subseq	r0, r6, r1
    1134:	00000000 	andeq	r0, r0, r0
    1138:	70000000 	andvc	r0, r0, r0
    113c:	ac000001 	stcge	0, cr0, [r0], {1}
    1140:	01000001 	tsteq	r0, r1
    1144:	030c5400 	movweq	r5, #50176	; 0xc400
    1148:	03140000 	tsteq	r4, #0
    114c:	00010000 	andeq	r0, r1, r0
    1150:	00000054 	andeq	r0, r0, r4, asr r0
    1154:	00000000 	andeq	r0, r0, r0
    1158:	0001a800 	andeq	sl, r1, r0, lsl #16
    115c:	0001c400 	andeq	ip, r1, r0, lsl #8
    1160:	58000100 	stmdapl	r0, {r8}
	...
    116c:	000001b0 			; <UNDEFINED> instruction: 0x000001b0
    1170:	000001cb 	andeq	r0, r0, fp, asr #3
    1174:	cb520001 	blgt	1481180 <__bss_end__+0x1476ae0>
    1178:	d0000001 	andle	r0, r0, r1
    117c:	08000002 	stmdaeq	r0, {r1}
    1180:	31007400 	tstcc	r0, r0, lsl #8
    1184:	22007425 	andcs	r7, r0, #620756992	; 0x25000000
    1188:	0000009f 	muleq	r0, pc, r0	; <UNPREDICTABLE>
    118c:	00000000 	andeq	r0, r0, r0
    1190:	0001b000 	andeq	fp, r1, r0
    1194:	0001c400 	andeq	ip, r1, r0, lsl #8
    1198:	58000100 	stmdapl	r0, {r8}
	...
    11a4:	000001b4 			; <UNDEFINED> instruction: 0x000001b4
    11a8:	000001b8 			; <UNDEFINED> instruction: 0x000001b8
    11ac:	00530001 	subseq	r0, r3, r1
    11b0:	00000000 	andeq	r0, r0, r0
    11b4:	d0000000 	andle	r0, r0, r0
    11b8:	d0000001 	andle	r0, r0, r1
    11bc:	01000002 	tsteq	r0, r2
    11c0:	00005400 	andeq	r5, r0, r0, lsl #8
    11c4:	00000000 	andeq	r0, r0, r0
    11c8:	01d00000 	bicseq	r0, r0, r0
    11cc:	01e40000 	mvneq	r0, r0
    11d0:	00010000 	andeq	r0, r1, r0
    11d4:	00000058 	andeq	r0, r0, r8, asr r0
    11d8:	00000000 	andeq	r0, r0, r0
    11dc:	0001d400 	andeq	sp, r1, r0, lsl #8
    11e0:	0001d800 	andeq	sp, r1, r0, lsl #16
    11e4:	53000100 	movwpl	r0, #256	; 0x100
	...
    11f0:	000001f4 	strdeq	r0, [r0], -r4
    11f4:	000002d0 	ldrdeq	r0, [r0], -r0	; <UNPREDICTABLE>
    11f8:	00540001 	subseq	r0, r4, r1
    11fc:	00000000 	andeq	r0, r0, r0
    1200:	f4000000 	vst4.8	{d0-d3}, [r0], r0
    1204:	08000001 	stmdaeq	r0, {r0}
    1208:	01000002 	tsteq	r0, r2
    120c:	00005800 	andeq	r5, r0, r0, lsl #16
    1210:	00000000 	andeq	r0, r0, r0
    1214:	01f80000 	mvnseq	r0, r0
    1218:	01fc0000 	mvnseq	r0, r0
    121c:	00010000 	andeq	r0, r1, r0
    1220:	00000053 	andeq	r0, r0, r3, asr r0
    1224:	00000000 	andeq	r0, r0, r0
    1228:	00021800 	andeq	r1, r2, r0, lsl #16
    122c:	0002d000 	andeq	sp, r2, r0
    1230:	54000100 	strpl	r0, [r0], #-256	; 0x100
	...
    123c:	00000218 	andeq	r0, r0, r8, lsl r2
    1240:	0000022c 	andeq	r0, r0, ip, lsr #4
    1244:	00580001 	subseq	r0, r8, r1
    1248:	00000000 	andeq	r0, r0, r0
    124c:	1c000000 	stcne	0, cr0, [r0], {-0}
    1250:	20000002 	andcs	r0, r0, r2
    1254:	01000002 	tsteq	r0, r2
    1258:	00005300 	andeq	r5, r0, r0, lsl #6
    125c:	00000000 	andeq	r0, r0, r0
    1260:	023c0000 	eorseq	r0, ip, #0
    1264:	02d00000 	sbcseq	r0, r0, #0
    1268:	00010000 	andeq	r0, r1, r0
    126c:	00000054 	andeq	r0, r0, r4, asr r0
    1270:	00000000 	andeq	r0, r0, r0
    1274:	00023c00 	andeq	r3, r2, r0, lsl #24
    1278:	00025000 	andeq	r5, r2, r0
    127c:	58000100 	stmdapl	r0, {r8}
	...
    1288:	00000240 	andeq	r0, r0, r0, asr #4
    128c:	00000244 	andeq	r0, r0, r4, asr #4
    1290:	00530001 	subseq	r0, r3, r1
    1294:	00000000 	andeq	r0, r0, r0
    1298:	60000000 	andvs	r0, r0, r0
    129c:	d0000002 	andle	r0, r0, r2
    12a0:	01000002 	tsteq	r0, r2
    12a4:	00005400 	andeq	r5, r0, r0, lsl #8
    12a8:	00000000 	andeq	r0, r0, r0
    12ac:	02600000 	rsbeq	r0, r0, #0
    12b0:	02740000 	rsbseq	r0, r4, #0
    12b4:	00010000 	andeq	r0, r1, r0
    12b8:	00000058 	andeq	r0, r0, r8, asr r0
    12bc:	00000000 	andeq	r0, r0, r0
    12c0:	00026400 	andeq	r6, r2, r0, lsl #8
    12c4:	00026800 	andeq	r6, r2, r0, lsl #16
    12c8:	53000100 	movwpl	r0, #256	; 0x100
	...
    12d4:	00000284 	andeq	r0, r0, r4, lsl #5
    12d8:	000002d0 	ldrdeq	r0, [r0], -r0	; <UNPREDICTABLE>
    12dc:	00540001 	subseq	r0, r4, r1
    12e0:	00000000 	andeq	r0, r0, r0
    12e4:	84000000 	strhi	r0, [r0], #-0
    12e8:	98000002 	stmdals	r0, {r1}
    12ec:	01000002 	tsteq	r0, r2
    12f0:	00005800 	andeq	r5, r0, r0, lsl #16
    12f4:	00000000 	andeq	r0, r0, r0
    12f8:	02880000 	addeq	r0, r8, #0
    12fc:	028c0000 	addeq	r0, ip, #0
    1300:	00010000 	andeq	r0, r1, r0
    1304:	00000053 	andeq	r0, r0, r3, asr r0
    1308:	00000000 	andeq	r0, r0, r0
    130c:	0002a800 	andeq	sl, r2, r0, lsl #16
    1310:	0002d000 	andeq	sp, r2, r0
    1314:	54000100 	strpl	r0, [r0], #-256	; 0x100
	...
    1320:	000002ac 	andeq	r0, r0, ip, lsr #5
    1324:	000002b0 			; <UNDEFINED> instruction: 0x000002b0
    1328:	00530001 	subseq	r0, r3, r1
    132c:	00000000 	andeq	r0, r0, r0
    1330:	c8000000 	stmdagt	r0, {}	; <UNPREDICTABLE>
    1334:	0c000002 	stceq	0, cr0, [r0], {2}
    1338:	02000003 	andeq	r0, r0, #3
    133c:	149f3000 	ldrne	r3, [pc], #0	; 1344 <_start-0x6cbc>
    1340:	1c000003 	stcne	0, cr0, [r0], {3}
    1344:	02000003 	andeq	r0, r0, #3
    1348:	009f3000 	addseq	r3, pc, r0
    134c:	00000000 	andeq	r0, r0, r0
    1350:	c8000000 	stmdagt	r0, {}	; <UNPREDICTABLE>
    1354:	0c000002 	stceq	0, cr0, [r0], {2}
    1358:	01000003 	tsteq	r0, r3
    135c:	03145500 	tsteq	r4, #0, 10
    1360:	031c0000 	tsteq	ip, #0
    1364:	00010000 	andeq	r0, r1, r0
    1368:	00000055 	andeq	r0, r0, r5, asr r0
    136c:	00000000 	andeq	r0, r0, r0
    1370:	0002d000 	andeq	sp, r2, r0
    1374:	00030c00 	andeq	r0, r3, r0, lsl #24
    1378:	54000100 	strpl	r0, [r0], #-256	; 0x100
    137c:	00000314 	andeq	r0, r0, r4, lsl r3
    1380:	0000031c 	andeq	r0, r0, ip, lsl r3
    1384:	00540001 	subseq	r0, r4, r1
    1388:	00000000 	andeq	r0, r0, r0
    138c:	1c000000 	stcne	0, cr0, [r0], {-0}
    1390:	3f000003 	svccc	0x00000003
    1394:	01000003 	tsteq	r0, r3
    1398:	033f5000 	teqeq	pc, #0
    139c:	03600000 	cmneq	r0, #0
    13a0:	00010000 	andeq	r0, r1, r0
    13a4:	00036058 	andeq	r6, r3, r8, asr r0
    13a8:	00037000 	andeq	r7, r3, r0
    13ac:	50000100 	andpl	r0, r0, r0, lsl #2
    13b0:	00000370 	andeq	r0, r0, r0, ror r3
    13b4:	000003b0 			; <UNDEFINED> instruction: 0x000003b0
    13b8:	b0580001 	subslt	r0, r8, r1
    13bc:	c0000003 	andgt	r0, r0, r3
    13c0:	04000003 	streq	r0, [r0], #-3
    13c4:	5001f300 	andpl	pc, r1, r0, lsl #6
    13c8:	0000009f 	muleq	r0, pc, r0	; <UNPREDICTABLE>
    13cc:	00000000 	andeq	r0, r0, r0
    13d0:	00031c00 	andeq	r1, r3, r0, lsl #24
    13d4:	00033f00 	andeq	r3, r3, r0, lsl #30
    13d8:	51000100 	mrspl	r0, (UNDEF: 16)
    13dc:	0000033f 	andeq	r0, r0, pc, lsr r3
    13e0:	00000360 	andeq	r0, r0, r0, ror #6
    13e4:	60560001 	subsvs	r0, r6, r1
    13e8:	70000003 	andvc	r0, r0, r3
    13ec:	01000003 	tsteq	r0, r3
    13f0:	03705100 	cmneq	r0, #0, 2
    13f4:	03b00000 	movseq	r0, #0
    13f8:	00010000 	andeq	r0, r1, r0
    13fc:	0003b056 	andeq	fp, r3, r6, asr r0
    1400:	0003c000 	andeq	ip, r3, r0
    1404:	f3000400 	vshl.u8	d0, d0, d0
    1408:	009f5101 	addseq	r5, pc, r1, lsl #2
    140c:	00000000 	andeq	r0, r0, r0
    1410:	1c000000 	stcne	0, cr0, [r0], {-0}
    1414:	3f000003 	svccc	0x00000003
    1418:	01000003 	tsteq	r0, r3
    141c:	033f5200 	teqeq	pc, #0, 4
    1420:	03600000 	cmneq	r0, #0
    1424:	00040000 	andeq	r0, r4, r0
    1428:	9f5201f3 	svcls	0x005201f3
    142c:	00000360 	andeq	r0, r0, r0, ror #6
    1430:	00000370 	andeq	r0, r0, r0, ror r3
    1434:	70520001 	subsvc	r0, r2, r1
    1438:	b0000003 	andlt	r0, r0, r3
    143c:	03000003 	movweq	r0, #3
    1440:	9f017700 	svcls	0x00017700
    1444:	000003b0 			; <UNDEFINED> instruction: 0x000003b0
    1448:	000003c0 	andeq	r0, r0, r0, asr #7
    144c:	01f30004 	mvnseq	r0, r4
    1450:	00009f52 	andeq	r9, r0, r2, asr pc
    1454:	00000000 	andeq	r0, r0, r0
    1458:	031c0000 	tsteq	ip, #0
    145c:	033f0000 	teqeq	pc, #0
    1460:	00010000 	andeq	r0, r1, r0
    1464:	00033f53 	andeq	r3, r3, r3, asr pc
    1468:	00036000 	andeq	r6, r3, r0
    146c:	f3000400 	vshl.u8	d0, d0, d0
    1470:	609f5301 	addsvs	r5, pc, r1, lsl #6
    1474:	70000003 	andvc	r0, r0, r3
    1478:	01000003 	tsteq	r0, r3
    147c:	03705300 	cmneq	r0, #0, 6
    1480:	03c00000 	biceq	r0, r0, #0
    1484:	00040000 	andeq	r0, r4, r0
    1488:	9f5301f3 	svcls	0x005301f3
	...
    1494:	00000368 	andeq	r0, r0, r8, ror #6
    1498:	00000370 	andeq	r0, r0, r0, ror r3
    149c:	9f300002 	svcls	0x00300002
    14a0:	00000370 	andeq	r0, r0, r0, ror r3
    14a4:	000003b0 			; <UNDEFINED> instruction: 0x000003b0
    14a8:	b0540001 	subslt	r0, r4, r1
    14ac:	c0000003 	andgt	r0, r0, r3
    14b0:	01000003 	tsteq	r0, r3
    14b4:	00005000 	andeq	r5, r0, r0
    14b8:	00000000 	andeq	r0, r0, r0
    14bc:	03800000 	orreq	r0, r0, #0
    14c0:	03900000 	orrseq	r0, r0, #0
    14c4:	00010000 	andeq	r0, r1, r0
    14c8:	00000050 	andeq	r0, r0, r0, asr r0
    14cc:	00000000 	andeq	r0, r0, r0
    14d0:	0003c000 	andeq	ip, r3, r0
    14d4:	0003df00 	andeq	sp, r3, r0, lsl #30
    14d8:	50000100 	andpl	r0, r0, r0, lsl #2
    14dc:	000003df 	ldrdeq	r0, [r0], -pc	; <UNPREDICTABLE>
    14e0:	00000400 	andeq	r0, r0, r0, lsl #8
    14e4:	00570001 	subseq	r0, r7, r1
    14e8:	10000004 	andne	r0, r0, r4
    14ec:	01000004 	tsteq	r0, r4
    14f0:	04105000 	ldreq	r5, [r0], #-0
    14f4:	04400000 	strbeq	r0, [r0], #-0
    14f8:	00010000 	andeq	r0, r1, r0
    14fc:	00044057 	andeq	r4, r4, r7, asr r0
    1500:	00045000 	andeq	r5, r4, r0
    1504:	f3000400 	vshl.u8	d0, d0, d0
    1508:	009f5001 	addseq	r5, pc, r1
    150c:	00000000 	andeq	r0, r0, r0
    1510:	c0000000 	andgt	r0, r0, r0
    1514:	df000003 	svcle	0x00000003
    1518:	01000003 	tsteq	r0, r3
    151c:	03df5100 	bicseq	r5, pc, #0, 2
    1520:	04000000 	streq	r0, [r0], #-0
    1524:	00010000 	andeq	r0, r1, r0
    1528:	00040055 	andeq	r0, r4, r5, asr r0
    152c:	00041000 	andeq	r1, r4, r0
    1530:	51000100 	mrspl	r0, (UNDEF: 16)
    1534:	00000410 	andeq	r0, r0, r0, lsl r4
    1538:	00000440 	andeq	r0, r0, r0, asr #8
    153c:	40550001 	subsmi	r0, r5, r1
    1540:	50000004 	andpl	r0, r0, r4
    1544:	04000004 	streq	r0, [r0], #-4
    1548:	5101f300 	mrspl	pc, SP_irq	; <UNPREDICTABLE>
    154c:	0000009f 	muleq	r0, pc, r0	; <UNPREDICTABLE>
    1550:	00000000 	andeq	r0, r0, r0
    1554:	0003c000 	andeq	ip, r3, r0
    1558:	0003df00 	andeq	sp, r3, r0, lsl #30
    155c:	52000100 	andpl	r0, r0, #0, 2
    1560:	000003df 	ldrdeq	r0, [r0], -pc	; <UNPREDICTABLE>
    1564:	00000400 	andeq	r0, r0, r0, lsl #8
    1568:	01f30004 	mvnseq	r0, r4
    156c:	04009f52 	streq	r9, [r0], #-3922	; 0xf52
    1570:	04100000 	ldreq	r0, [r0], #-0
    1574:	00010000 	andeq	r0, r1, r0
    1578:	00041052 	andeq	r1, r4, r2, asr r0
    157c:	00044000 	andeq	r4, r4, r0
    1580:	76000300 	strvc	r0, [r0], -r0, lsl #6
    1584:	04409f01 	strbeq	r9, [r0], #-3841	; 0xf01
    1588:	04500000 	ldrbeq	r0, [r0], #-0
    158c:	00040000 	andeq	r0, r4, r0
    1590:	9f5201f3 	svcls	0x005201f3
	...
    159c:	000003c0 	andeq	r0, r0, r0, asr #7
    15a0:	000003df 	ldrdeq	r0, [r0], -pc	; <UNPREDICTABLE>
    15a4:	df530001 	svcle	0x00530001
    15a8:	00000003 	andeq	r0, r0, r3
    15ac:	01000004 	tsteq	r0, r4
    15b0:	04005800 	streq	r5, [r0], #-2048	; 0x800
    15b4:	04100000 	ldreq	r0, [r0], #-0
    15b8:	00010000 	andeq	r0, r1, r0
    15bc:	00041053 	andeq	r1, r4, r3, asr r0
    15c0:	00044000 	andeq	r4, r4, r0
    15c4:	58000100 	stmdapl	r0, {r8}
    15c8:	00000440 	andeq	r0, r0, r0, asr #8
    15cc:	00000450 	andeq	r0, r0, r0, asr r4
    15d0:	01f30004 	mvnseq	r0, r4
    15d4:	00009f53 	andeq	r9, r0, r3, asr pc
    15d8:	00000000 	andeq	r0, r0, r0
    15dc:	04080000 	streq	r0, [r8], #-0
    15e0:	04100000 	ldreq	r0, [r0], #-0
    15e4:	00020000 	andeq	r0, r2, r0
    15e8:	04109f30 	ldreq	r9, [r0], #-3888	; 0xf30
    15ec:	04400000 	strbeq	r0, [r0], #-0
    15f0:	00010000 	andeq	r0, r1, r0
    15f4:	00044054 	andeq	r4, r4, r4, asr r0
    15f8:	00045000 	andeq	r5, r4, r0
    15fc:	50000100 	andpl	r0, r0, r0, lsl #2
	...
    1608:	00000450 	andeq	r0, r0, r0, asr r4
    160c:	00000473 	andeq	r0, r0, r3, ror r4
    1610:	73510001 	cmpvc	r1, #1
    1614:	24000004 	strcs	r0, [r0], #-4
    1618:	04000005 	streq	r0, [r0], #-5
    161c:	5101f300 	mrspl	pc, SP_irq	; <UNPREDICTABLE>
    1620:	0000009f 	muleq	r0, pc, r0	; <UNPREDICTABLE>
    1624:	00000000 	andeq	r0, r0, r0
    1628:	00045000 	andeq	r5, r4, r0
    162c:	00047300 	andeq	r7, r4, r0, lsl #6
    1630:	52000100 	andpl	r0, r0, #0, 2
    1634:	00000473 	andeq	r0, r0, r3, ror r4
    1638:	00000524 	andeq	r0, r0, r4, lsr #10
    163c:	01f30004 	mvnseq	r0, r4
    1640:	00009f52 	andeq	r9, r0, r2, asr pc
    1644:	00000000 	andeq	r0, r0, r0
    1648:	04500000 	ldrbeq	r0, [r0], #-0
    164c:	04730000 	ldrbteq	r0, [r3], #-0
    1650:	00010000 	andeq	r0, r1, r0
    1654:	00047353 	andeq	r7, r4, r3, asr r3
    1658:	00051000 	andeq	r1, r5, r0
    165c:	55000100 	strpl	r0, [r0, #-256]	; 0x100
    1660:	00000510 	andeq	r0, r0, r0, lsl r5
    1664:	00000524 	andeq	r0, r0, r4, lsr #10
    1668:	04700002 	ldrbteq	r0, [r0], #-2
	...
    1674:	00000494 	muleq	r0, r4, r4
    1678:	000004d3 	ldrdeq	r0, [r0], -r3
    167c:	d3520001 	cmple	r2, #1
    1680:	f4000004 	vst4.8	{d0-d3}, [r0], r4
    1684:	06000004 	streq	r0, [r0], -r4
    1688:	77007500 	strvc	r7, [r0, -r0, lsl #10]
    168c:	f49f1e00 			; <UNDEFINED> instruction: 0xf49f1e00
    1690:	24000004 	strcs	r0, [r0], #-4
    1694:	01000005 	tsteq	r0, r5
    1698:	00005200 	andeq	r5, r0, r0, lsl #4
    169c:	00000000 	andeq	r0, r0, r0
    16a0:	05240000 	streq	r0, [r4, #-0]!
    16a4:	052f0000 	streq	r0, [pc, #-0]!	; 16ac <_start-0x6954>
    16a8:	00010000 	andeq	r0, r1, r0
    16ac:	00052f50 	andeq	r2, r5, r0, asr pc
    16b0:	00056000 	andeq	r6, r5, r0
    16b4:	f3000400 	vshl.u8	d0, d0, d0
    16b8:	009f5001 	addseq	r5, pc, r1
    16bc:	00000000 	andeq	r0, r0, r0
    16c0:	30000000 	andcc	r0, r0, r0
    16c4:	3b000005 	blcc	16e0 <_start-0x6920>
    16c8:	01000005 	tsteq	r0, r5
    16cc:	00005000 	andeq	r5, r0, r0
    16d0:	00000000 	andeq	r0, r0, r0
    16d4:	05600000 	strbeq	r0, [r0, #-0]!
    16d8:	05700000 	ldrbeq	r0, [r0, #-0]!
    16dc:	00010000 	andeq	r0, r1, r0
    16e0:	00057050 	andeq	r7, r5, r0, asr r0
    16e4:	00058c00 	andeq	r8, r5, r0, lsl #24
    16e8:	55000100 	strpl	r0, [r0, #-256]	; 0x100
	...
    16f4:	00000560 	andeq	r0, r0, r0, ror #10
    16f8:	00000570 	andeq	r0, r0, r0, ror r5
    16fc:	70510001 	subsvc	r0, r1, r1
    1700:	8c000005 	stchi	0, cr0, [r0], {5}
    1704:	01000005 	tsteq	r0, r5
    1708:	00005400 	andeq	r5, r0, r0, lsl #8
    170c:	00000000 	andeq	r0, r0, r0
    1710:	058c0000 	streq	r0, [ip]
    1714:	05a80000 	streq	r0, [r8, #0]!
    1718:	00010000 	andeq	r0, r1, r0
    171c:	0005a850 	andeq	sl, r5, r0, asr r8
    1720:	00060000 	andeq	r0, r6, r0
    1724:	55000100 	strpl	r0, [r0, #-256]	; 0x100
    1728:	00000600 	andeq	r0, r0, r0, lsl #12
    172c:	0000061c 	andeq	r0, r0, ip, lsl r6
    1730:	01f30004 	mvnseq	r0, r4
    1734:	00009f50 	andeq	r9, r0, r0, asr pc
    1738:	00000000 	andeq	r0, r0, r0
    173c:	05b80000 	ldreq	r0, [r8, #0]!
    1740:	05c70000 	strbeq	r0, [r7]
    1744:	00010000 	andeq	r0, r1, r0
    1748:	0005c750 	andeq	ip, r5, r0, asr r7
    174c:	0005e800 	andeq	lr, r5, r0, lsl #16
    1750:	54000100 	strpl	r0, [r0], #-256	; 0x100
    1754:	000005e8 	andeq	r0, r0, r8, ror #11
    1758:	000005ec 	andeq	r0, r0, ip, ror #11
    175c:	ec500001 	mrrc	0, 0, r0, r0, cr1	; <UNPREDICTABLE>
    1760:	00000005 	andeq	r0, r0, r5
    1764:	01000006 	tsteq	r0, r6
    1768:	06005400 	streq	r5, [r0], -r0, lsl #8
    176c:	061c0000 	ldreq	r0, [ip], -r0
    1770:	00010000 	andeq	r0, r1, r0
    1774:	00000050 	andeq	r0, r0, r0, asr r0
    1778:	00000000 	andeq	r0, r0, r0
    177c:	00061c00 	andeq	r1, r6, r0, lsl #24
    1780:	00062f00 	andeq	r2, r6, r0, lsl #30
    1784:	50000100 	andpl	r0, r0, r0, lsl #2
    1788:	0000062f 	andeq	r0, r0, pc, lsr #12
    178c:	00000668 	andeq	r0, r0, r8, ror #12
    1790:	01f30004 	mvnseq	r0, r4
    1794:	00009f50 	andeq	r9, r0, r0, asr pc
    1798:	00000000 	andeq	r0, r0, r0
    179c:	061c0000 	ldreq	r0, [ip], -r0
    17a0:	062f0000 	strteq	r0, [pc], -r0
    17a4:	00010000 	andeq	r0, r1, r0
    17a8:	00062f51 	andeq	r2, r6, r1, asr pc
    17ac:	00066800 	andeq	r6, r6, r0, lsl #16
    17b0:	f3000400 	vshl.u8	d0, d0, d0
    17b4:	009f5101 	addseq	r5, pc, r1, lsl #2
    17b8:	00000000 	andeq	r0, r0, r0
    17bc:	1c000000 	stcne	0, cr0, [r0], {-0}
    17c0:	2f000006 	svccs	0x00000006
    17c4:	01000006 	tsteq	r0, r6
    17c8:	062f5200 	strteq	r5, [pc], -r0, lsl #4
    17cc:	06680000 	strbteq	r0, [r8], -r0
    17d0:	00040000 	andeq	r0, r4, r0
    17d4:	9f5201f3 	svcls	0x005201f3
	...
    17e0:	0000061c 	andeq	r0, r0, ip, lsl r6
    17e4:	0000062f 	andeq	r0, r0, pc, lsr #12
    17e8:	2f530001 	svccs	0x00530001
    17ec:	68000006 	stmdavs	r0, {r1, r2}
    17f0:	04000006 	streq	r0, [r0], #-6
    17f4:	5301f300 	movwpl	pc, #4864	; 0x1300	; <UNPREDICTABLE>
    17f8:	0000009f 	muleq	r0, pc, r0	; <UNPREDICTABLE>
    17fc:	00000000 	andeq	r0, r0, r0
    1800:	00063000 	andeq	r3, r6, r0
    1804:	00063b00 	andeq	r3, r6, r0, lsl #22
    1808:	50000100 	andpl	r0, r0, r0, lsl #2
    180c:	00000654 	andeq	r0, r0, r4, asr r6
    1810:	00000668 	andeq	r0, r0, r8, ror #12
    1814:	00500001 	subseq	r0, r0, r1
    1818:	00000000 	andeq	r0, r0, r0
    181c:	fc000000 	stc2	0, cr0, [r0], {-0}
    1820:	04000000 	streq	r0, [r0], #-0
    1824:	01000001 	tsteq	r0, r1
    1828:	01045000 	mrseq	r5, (UNDEF: 4)
    182c:	01280000 	teqeq	r8, r0
    1830:	00010000 	andeq	r0, r1, r0
    1834:	00000054 	andeq	r0, r0, r4, asr r0
	...
    1840:	00009000 	andeq	r9, r0, r0
    1844:	50000100 	andpl	r0, r0, r0, lsl #2
    1848:	00000090 	muleq	r0, r0, r0
    184c:	000000d4 	ldrdeq	r0, [r0], -r4
    1850:	00540001 	subseq	r0, r4, r1
    1854:	00000000 	andeq	r0, r0, r0
    1858:	48000000 	stmdami	r0, {}	; <UNPREDICTABLE>
    185c:	4c000000 	stcmi	0, cr0, [r0], {-0}
    1860:	01000000 	mrseq	r0, (UNDEF: 0)
    1864:	00545500 	subseq	r5, r4, r0, lsl #10
    1868:	00580000 	subseq	r0, r8, r0
    186c:	00010000 	andeq	r0, r1, r0
    1870:	00006055 	andeq	r6, r0, r5, asr r0
    1874:	00006400 	andeq	r6, r0, r0, lsl #8
    1878:	55000100 	strpl	r0, [r0, #-256]	; 0x100
    187c:	0000006c 	andeq	r0, r0, ip, rrx
    1880:	00000070 	andeq	r0, r0, r0, ror r0
    1884:	78550001 	ldmdavc	r5, {r0}^
    1888:	7c000000 	stcvc	0, cr0, [r0], {-0}
    188c:	01000000 	mrseq	r0, (UNDEF: 0)
    1890:	00845500 	addeq	r5, r4, r0, lsl #10
    1894:	00880000 	addeq	r0, r8, r0
    1898:	00010000 	andeq	r0, r1, r0
    189c:	00008c55 	andeq	r8, r0, r5, asr ip
    18a0:	0000d400 	andeq	sp, r0, r0, lsl #8
    18a4:	55000100 	strpl	r0, [r0, #-256]	; 0x100
	...
    18b0:	0000001c 	andeq	r0, r0, ip, lsl r0
    18b4:	00000044 	andeq	r0, r0, r4, asr #32
    18b8:	44530001 	ldrbmi	r0, [r3], #-1
    18bc:	4c000000 	stcmi	0, cr0, [r0], {-0}
    18c0:	1c000000 	stcne	0, cr0, [r0], {-0}
    18c4:	f7007000 			; <UNDEFINED> instruction: 0xf7007000
    18c8:	f425f72c 	vld1.8	{d15}, [r5 :128], ip
    18cc:	cccd0825 	stclgt	8, cr0, [sp], {37}	; 0x25
    18d0:	0000cccc 	andeq	ip, r0, ip, asr #25
    18d4:	081e0000 	ldmdaeq	lr, {}	; <UNPREDICTABLE>
    18d8:	2525f720 	strcs	pc, [r5, #-1824]!	; 0x720
    18dc:	25332cf7 	ldrcs	r2, [r3, #-3319]!	; 0xcf7
    18e0:	00004c9f 	muleq	r0, pc, ip	; <UNPREDICTABLE>
    18e4:	00005000 	andeq	r5, r0, r0
    18e8:	53000100 	movwpl	r0, #256	; 0x100
    18ec:	00000050 	andeq	r0, r0, r0, asr r0
    18f0:	00000058 	andeq	r0, r0, r8, asr r0
    18f4:	0070001c 	rsbseq	r0, r0, ip, lsl r0
    18f8:	25f72cf7 	ldrbcs	r2, [r7, #3319]!	; 0xcf7
    18fc:	cd0825f4 	cfstr32gt	mvfx2, [r8, #-976]	; 0xfffffc30
    1900:	00cccccc 	sbceq	ip, ip, ip, asr #25
    1904:	1e000000 	cdpne	0, 0, cr0, cr0, cr0, {0}
    1908:	25f72008 	ldrbcs	r2, [r7, #8]!
    190c:	332cf725 	msrcc	CPSR_fs, #9699328	; 0x940000
    1910:	00589f25 	subseq	r9, r8, r5, lsr #30
    1914:	005c0000 	subseq	r0, ip, r0
    1918:	00010000 	andeq	r0, r1, r0
    191c:	00005c53 	andeq	r5, r0, r3, asr ip
    1920:	00006400 	andeq	r6, r0, r0, lsl #8
    1924:	70001c00 	andvc	r1, r0, r0, lsl #24
    1928:	f72cf700 			; <UNDEFINED> instruction: 0xf72cf700
    192c:	0825f425 	stmdaeq	r5!, {r0, r2, r5, sl, ip, sp, lr, pc}
    1930:	cccccccd 	stclgt	12, cr12, [ip], {205}	; 0xcd
    1934:	00000000 	andeq	r0, r0, r0
    1938:	f720081e 			; <UNDEFINED> instruction: 0xf720081e
    193c:	2cf72525 	cfldr64cs	mvdx2, [r7], #148	; 0x94
    1940:	649f2533 	ldrvs	r2, [pc], #1331	; 1948 <_start-0x66b8>
    1944:	68000000 	stmdavs	r0, {}	; <UNPREDICTABLE>
    1948:	01000000 	mrseq	r0, (UNDEF: 0)
    194c:	00685300 	rsbeq	r5, r8, r0, lsl #6
    1950:	00700000 	rsbseq	r0, r0, r0
    1954:	001c0000 	andseq	r0, ip, r0
    1958:	2cf70070 	ldclcs	0, cr0, [r7], #448	; 0x1c0
    195c:	25f425f7 	ldrbcs	r2, [r4, #1527]!	; 0x5f7
    1960:	cccccd08 	stclgt	13, cr12, [ip], {8}
    1964:	000000cc 	andeq	r0, r0, ip, asr #1
    1968:	20081e00 	andcs	r1, r8, r0, lsl #28
    196c:	f72525f7 			; <UNDEFINED> instruction: 0xf72525f7
    1970:	9f25332c 	svcls	0x0025332c
    1974:	00000070 	andeq	r0, r0, r0, ror r0
    1978:	00000074 	andeq	r0, r0, r4, ror r0
    197c:	74530001 	ldrbvc	r0, [r3], #-1
    1980:	7c000000 	stcvc	0, cr0, [r0], {-0}
    1984:	1c000000 	stcne	0, cr0, [r0], {-0}
    1988:	f7007000 			; <UNDEFINED> instruction: 0xf7007000
    198c:	f425f72c 	vld1.8	{d15}, [r5 :128], ip
    1990:	cccd0825 	stclgt	8, cr0, [sp], {37}	; 0x25
    1994:	0000cccc 	andeq	ip, r0, ip, asr #25
    1998:	081e0000 	ldmdaeq	lr, {}	; <UNPREDICTABLE>
    199c:	2525f720 	strcs	pc, [r5, #-1824]!	; 0x720
    19a0:	25332cf7 	ldrcs	r2, [r3, #-3319]!	; 0xcf7
    19a4:	00007c9f 	muleq	r0, pc, ip	; <UNPREDICTABLE>
    19a8:	00008000 	andeq	r8, r0, r0
    19ac:	53000100 	movwpl	r0, #256	; 0x100
    19b0:	00000080 	andeq	r0, r0, r0, lsl #1
    19b4:	00000088 	andeq	r0, r0, r8, lsl #1
    19b8:	0070001c 	rsbseq	r0, r0, ip, lsl r0
    19bc:	25f72cf7 	ldrbcs	r2, [r7, #3319]!	; 0xcf7
    19c0:	cd0825f4 	cfstr32gt	mvfx2, [r8, #-976]	; 0xfffffc30
    19c4:	00cccccc 	sbceq	ip, ip, ip, asr #25
    19c8:	1e000000 	cdpne	0, 0, cr0, cr0, cr0, {0}
    19cc:	25f72008 	ldrbcs	r2, [r7, #8]!
    19d0:	332cf725 	msrcc	CPSR_fs, #9699328	; 0x940000
    19d4:	00889f25 	addeq	r9, r8, r5, lsr #30
    19d8:	008c0000 	addeq	r0, ip, r0
    19dc:	00010000 	andeq	r0, r1, r0
    19e0:	00008c53 	andeq	r8, r0, r3, asr ip
    19e4:	00009000 	andeq	r9, r0, r0
    19e8:	70001c00 	andvc	r1, r0, r0, lsl #24
    19ec:	f72cf700 			; <UNDEFINED> instruction: 0xf72cf700
    19f0:	0825f425 	stmdaeq	r5!, {r0, r2, r5, sl, ip, sp, lr, pc}
    19f4:	cccccccd 	stclgt	12, cr12, [ip], {205}	; 0xcd
    19f8:	00000000 	andeq	r0, r0, r0
    19fc:	f720081e 			; <UNDEFINED> instruction: 0xf720081e
    1a00:	2cf72525 	cfldr64cs	mvdx2, [r7], #148	; 0x94
    1a04:	909f2533 	addsls	r2, pc, r3, lsr r5	; <UNPREDICTABLE>
    1a08:	98000000 	stmdals	r0, {}	; <UNPREDICTABLE>
    1a0c:	1c000000 	stcne	0, cr0, [r0], {-0}
    1a10:	f7007400 			; <UNDEFINED> instruction: 0xf7007400
    1a14:	f425f72c 	vld1.8	{d15}, [r5 :128], ip
    1a18:	cccd0825 	stclgt	8, cr0, [sp], {37}	; 0x25
    1a1c:	0000cccc 	andeq	ip, r0, ip, asr #25
    1a20:	081e0000 	ldmdaeq	lr, {}	; <UNPREDICTABLE>
    1a24:	2525f720 	strcs	pc, [r5, #-1824]!	; 0x720
    1a28:	25332cf7 	ldrcs	r2, [r3, #-3319]!	; 0xcf7
    1a2c:	0000989f 	muleq	r0, pc, r8	; <UNPREDICTABLE>
    1a30:	00009c00 	andeq	r9, r0, r0, lsl #24
    1a34:	74001700 	strvc	r1, [r0], #-1792	; 0x700
    1a38:	f72cf700 			; <UNDEFINED> instruction: 0xf72cf700
    1a3c:	f7007125 			; <UNDEFINED> instruction: 0xf7007125
    1a40:	1e25f72c 	cdpne	7, 2, cr15, cr5, cr12, {1}
    1a44:	25f72008 	ldrbcs	r2, [r7, #8]!
    1a48:	332cf725 	msrcc	CPSR_fs, #9699328	; 0x940000
    1a4c:	009c9f25 	addseq	r9, ip, r5, lsr #30
    1a50:	00d40000 	sbcseq	r0, r4, r0
    1a54:	001c0000 	andseq	r0, ip, r0
    1a58:	2cf70074 	ldclcs	0, cr0, [r7], #464	; 0x1d0
    1a5c:	25f425f7 	ldrbcs	r2, [r4, #1527]!	; 0x5f7
    1a60:	cccccd08 	stclgt	13, cr12, [ip], {8}
    1a64:	000000cc 	andeq	r0, r0, ip, asr #1
    1a68:	20081e00 	andcs	r1, r8, r0, lsl #28
    1a6c:	f72525f7 			; <UNDEFINED> instruction: 0xf72525f7
    1a70:	9f25332c 	svcls	0x0025332c
	...
    1a7c:	00000094 	muleq	r0, r4, r0
    1a80:	000000b8 	strheq	r0, [r0], -r8
    1a84:	b8500001 	ldmdalt	r0, {r0}^
    1a88:	c4000000 	strgt	r0, [r0], #-0
    1a8c:	08000000 	stmdaeq	r0, {}	; <UNPREDICTABLE>
    1a90:	00713100 	rsbseq	r3, r1, r0, lsl #2
    1a94:	21007324 	tstcs	r0, r4, lsr #6
    1a98:	0000c49f 	muleq	r0, pc, r4	; <UNPREDICTABLE>
    1a9c:	0000c700 	andeq	ip, r0, r0, lsl #14
    1aa0:	51000100 	mrspl	r0, (UNDEF: 16)
	...
    1aac:	000000d4 	ldrdeq	r0, [r0], -r4
    1ab0:	000000f8 	strdeq	r0, [r0], -r8
    1ab4:	f8500001 			; <UNDEFINED> instruction: 0xf8500001
    1ab8:	0c000000 	stceq	0, cr0, [r0], {-0}
    1abc:	04000001 	streq	r0, [r0], #-1
    1ac0:	5001f300 	andpl	pc, r1, r0, lsl #6
    1ac4:	0000009f 	muleq	r0, pc, r0	; <UNPREDICTABLE>
    1ac8:	00000000 	andeq	r0, r0, r0
    1acc:	0000e000 	andeq	lr, r0, r0
    1ad0:	0000e800 	andeq	lr, r0, r0, lsl #16
    1ad4:	30000200 	andcc	r0, r0, r0, lsl #4
    1ad8:	0000e89f 	muleq	r0, pc, r8	; <UNPREDICTABLE>
    1adc:	0000e800 	andeq	lr, r0, r0, lsl #16
    1ae0:	52000100 	andpl	r0, r0, #0, 2
    1ae4:	000000e8 	andeq	r0, r0, r8, ror #1
    1ae8:	000000f0 	strdeq	r0, [r0], -r0	; <UNPREDICTABLE>
    1aec:	9f300002 	svcls	0x00300002
    1af0:	000000f0 	strdeq	r0, [r0], -r0	; <UNPREDICTABLE>
    1af4:	00000103 	andeq	r0, r0, r3, lsl #2
    1af8:	00520001 	subseq	r0, r2, r1
    1afc:	00000000 	andeq	r0, r0, r0
    1b00:	e0000000 	and	r0, r0, r0
    1b04:	f4000000 	vst4.8	{d0-d3}, [r0], r0
    1b08:	02000000 	andeq	r0, r0, #0
    1b0c:	f49f3000 			; <UNDEFINED> instruction: 0xf49f3000
    1b10:	00000000 	andeq	r0, r0, r0
    1b14:	05000001 	streq	r0, [r0, #-1]
    1b18:	00733100 	rsbseq	r3, r3, r0, lsl #2
    1b1c:	01009f24 	tsteq	r0, r4, lsr #30
    1b20:	01030000 	mrseq	r0, (UNDEF: 3)
    1b24:	00010000 	andeq	r0, r1, r0
    1b28:	00010351 	andeq	r0, r1, r1, asr r3
    1b2c:	00010c00 	andeq	r0, r1, r0, lsl #24
    1b30:	31000800 	tstcc	r0, r0, lsl #16
    1b34:	4f5001f3 	svcmi	0x005001f3
    1b38:	009f241a 	addseq	r2, pc, sl, lsl r4	; <UNPREDICTABLE>
    1b3c:	00000000 	andeq	r0, r0, r0
    1b40:	0c000000 	stceq	0, cr0, [r0], {-0}
    1b44:	30000001 	andcc	r0, r0, r1
    1b48:	01000001 	tsteq	r0, r1
    1b4c:	01305000 	teqeq	r0, r0
    1b50:	01440000 	mrseq	r0, (UNDEF: 68)
    1b54:	00040000 	andeq	r0, r4, r0
    1b58:	9f5001f3 	svcls	0x005001f3
	...
    1b64:	00000118 	andeq	r0, r0, r8, lsl r1
    1b68:	00000120 	andeq	r0, r0, r0, lsr #2
    1b6c:	9f300002 	svcls	0x00300002
    1b70:	00000120 	andeq	r0, r0, r0, lsr #2
    1b74:	00000120 	andeq	r0, r0, r0, lsr #2
    1b78:	20520001 	subscs	r0, r2, r1
    1b7c:	28000001 	stmdacs	r0, {r0}
    1b80:	02000001 	andeq	r0, r0, #1
    1b84:	289f3000 	ldmcs	pc, {ip, sp}	; <UNPREDICTABLE>
    1b88:	3b000001 	blcc	1b94 <_start-0x646c>
    1b8c:	01000001 	tsteq	r0, r1
    1b90:	00005200 	andeq	r5, r0, r0, lsl #4
    1b94:	00000000 	andeq	r0, r0, r0
    1b98:	01180000 	tsteq	r8, r0
    1b9c:	012c0000 	teqeq	ip, r0
    1ba0:	00020000 	andeq	r0, r2, r0
    1ba4:	012c9f30 	teqeq	ip, r0, lsr pc
    1ba8:	01380000 	teqeq	r8, r0
    1bac:	00050000 	andeq	r0, r5, r0
    1bb0:	24007331 	strcs	r7, [r0], #-817	; 0x331
    1bb4:	0001389f 	muleq	r1, pc, r8	; <UNPREDICTABLE>
    1bb8:	00013b00 	andeq	r3, r1, r0, lsl #22
    1bbc:	51000100 	mrspl	r0, (UNDEF: 16)
    1bc0:	0000013b 	andeq	r0, r0, fp, lsr r1
    1bc4:	00000144 	andeq	r0, r0, r4, asr #2
    1bc8:	f3310008 	vhadd.u<illegal width 64>	d0, d1, d8
    1bcc:	1a4f5001 	bne	13d5bd8 <__bss_end__+0x13cb538>
    1bd0:	00009f24 	andeq	r9, r0, r4, lsr #30
    1bd4:	00000000 	andeq	r0, r0, r0
    1bd8:	01440000 	mrseq	r0, (UNDEF: 68)
    1bdc:	01d40000 	bicseq	r0, r4, r0
    1be0:	00010000 	andeq	r0, r1, r0
    1be4:	0001d450 	andeq	sp, r1, r0, asr r4
    1be8:	00021000 	andeq	r1, r2, r0
    1bec:	54000100 	strpl	r0, [r0], #-256	; 0x100
	...
    1bf8:	0000018c 	andeq	r0, r0, ip, lsl #3
    1bfc:	00000190 	muleq	r0, r0, r1
    1c00:	98550001 	ldmdals	r5, {r0}^
    1c04:	9c000001 	stcls	0, cr0, [r0], {1}
    1c08:	01000001 	tsteq	r0, r1
    1c0c:	01a45500 			; <UNDEFINED> instruction: 0x01a45500
    1c10:	01a80000 			; <UNDEFINED> instruction: 0x01a80000
    1c14:	00010000 	andeq	r0, r1, r0
    1c18:	0001b055 	andeq	fp, r1, r5, asr r0
    1c1c:	0001b400 	andeq	fp, r1, r0, lsl #8
    1c20:	55000100 	strpl	r0, [r0, #-256]	; 0x100
    1c24:	000001bc 			; <UNDEFINED> instruction: 0x000001bc
    1c28:	000001c0 	andeq	r0, r0, r0, asr #3
    1c2c:	c8550001 	ldmdagt	r5, {r0}^
    1c30:	cc000001 	stcgt	0, cr0, [r0], {1}
    1c34:	01000001 	tsteq	r0, r1
    1c38:	01d05500 	bicseq	r5, r0, r0, lsl #10
    1c3c:	02100000 	andseq	r0, r0, #0
    1c40:	00010000 	andeq	r0, r1, r0
    1c44:	00000055 	andeq	r0, r0, r5, asr r0
    1c48:	00000000 	andeq	r0, r0, r0
    1c4c:	00016000 	andeq	r6, r1, r0
    1c50:	00018800 	andeq	r8, r1, r0, lsl #16
    1c54:	53000100 	movwpl	r0, #256	; 0x100
    1c58:	00000188 	andeq	r0, r0, r8, lsl #3
    1c5c:	00000190 	muleq	r0, r0, r1
    1c60:	0070001c 	rsbseq	r0, r0, ip, lsl r0
    1c64:	25f72cf7 	ldrbcs	r2, [r7, #3319]!	; 0xcf7
    1c68:	cd0825f4 	cfstr32gt	mvfx2, [r8, #-976]	; 0xfffffc30
    1c6c:	00cccccc 	sbceq	ip, ip, ip, asr #25
    1c70:	1e000000 	cdpne	0, 0, cr0, cr0, cr0, {0}
    1c74:	25f72008 	ldrbcs	r2, [r7, #8]!
    1c78:	332cf725 	msrcc	CPSR_fs, #9699328	; 0x940000
    1c7c:	01909f25 	orrseq	r9, r0, r5, lsr #30
    1c80:	01940000 	orrseq	r0, r4, r0
    1c84:	00010000 	andeq	r0, r1, r0
    1c88:	00019453 	andeq	r9, r1, r3, asr r4
    1c8c:	00019c00 	andeq	r9, r1, r0, lsl #24
    1c90:	70001c00 	andvc	r1, r0, r0, lsl #24
    1c94:	f72cf700 			; <UNDEFINED> instruction: 0xf72cf700
    1c98:	0825f425 	stmdaeq	r5!, {r0, r2, r5, sl, ip, sp, lr, pc}
    1c9c:	cccccccd 	stclgt	12, cr12, [ip], {205}	; 0xcd
    1ca0:	00000000 	andeq	r0, r0, r0
    1ca4:	f720081e 			; <UNDEFINED> instruction: 0xf720081e
    1ca8:	2cf72525 	cfldr64cs	mvdx2, [r7], #148	; 0x94
    1cac:	9c9f2533 	cfldr32ls	mvfx2, [pc], {51}	; 0x33
    1cb0:	a0000001 	andge	r0, r0, r1
    1cb4:	01000001 	tsteq	r0, r1
    1cb8:	01a05300 	lsleq	r5, r0, #6
    1cbc:	01a80000 			; <UNDEFINED> instruction: 0x01a80000
    1cc0:	001c0000 	andseq	r0, ip, r0
    1cc4:	2cf70070 	ldclcs	0, cr0, [r7], #448	; 0x1c0
    1cc8:	25f425f7 	ldrbcs	r2, [r4, #1527]!	; 0x5f7
    1ccc:	cccccd08 	stclgt	13, cr12, [ip], {8}
    1cd0:	000000cc 	andeq	r0, r0, ip, asr #1
    1cd4:	20081e00 	andcs	r1, r8, r0, lsl #28
    1cd8:	f72525f7 			; <UNDEFINED> instruction: 0xf72525f7
    1cdc:	9f25332c 	svcls	0x0025332c
    1ce0:	000001a8 	andeq	r0, r0, r8, lsr #3
    1ce4:	000001ac 	andeq	r0, r0, ip, lsr #3
    1ce8:	ac530001 	mrrcge	0, 0, r0, r3, cr1
    1cec:	b4000001 	strlt	r0, [r0], #-1
    1cf0:	1c000001 	stcne	0, cr0, [r0], {1}
    1cf4:	f7007000 			; <UNDEFINED> instruction: 0xf7007000
    1cf8:	f425f72c 	vld1.8	{d15}, [r5 :128], ip
    1cfc:	cccd0825 	stclgt	8, cr0, [sp], {37}	; 0x25
    1d00:	0000cccc 	andeq	ip, r0, ip, asr #25
    1d04:	081e0000 	ldmdaeq	lr, {}	; <UNPREDICTABLE>
    1d08:	2525f720 	strcs	pc, [r5, #-1824]!	; 0x720
    1d0c:	25332cf7 	ldrcs	r2, [r3, #-3319]!	; 0xcf7
    1d10:	0001b49f 	muleq	r1, pc, r4	; <UNPREDICTABLE>
    1d14:	0001b800 	andeq	fp, r1, r0, lsl #16
    1d18:	53000100 	movwpl	r0, #256	; 0x100
    1d1c:	000001b8 			; <UNDEFINED> instruction: 0x000001b8
    1d20:	000001c0 	andeq	r0, r0, r0, asr #3
    1d24:	0070001c 	rsbseq	r0, r0, ip, lsl r0
    1d28:	25f72cf7 	ldrbcs	r2, [r7, #3319]!	; 0xcf7
    1d2c:	cd0825f4 	cfstr32gt	mvfx2, [r8, #-976]	; 0xfffffc30
    1d30:	00cccccc 	sbceq	ip, ip, ip, asr #25
    1d34:	1e000000 	cdpne	0, 0, cr0, cr0, cr0, {0}
    1d38:	25f72008 	ldrbcs	r2, [r7, #8]!
    1d3c:	332cf725 	msrcc	CPSR_fs, #9699328	; 0x940000
    1d40:	01c09f25 	biceq	r9, r0, r5, lsr #30
    1d44:	01c40000 	biceq	r0, r4, r0
    1d48:	00010000 	andeq	r0, r1, r0
    1d4c:	0001c453 	andeq	ip, r1, r3, asr r4
    1d50:	0001cc00 	andeq	ip, r1, r0, lsl #24
    1d54:	70001c00 	andvc	r1, r0, r0, lsl #24
    1d58:	f72cf700 			; <UNDEFINED> instruction: 0xf72cf700
    1d5c:	0825f425 	stmdaeq	r5!, {r0, r2, r5, sl, ip, sp, lr, pc}
    1d60:	cccccccd 	stclgt	12, cr12, [ip], {205}	; 0xcd
    1d64:	00000000 	andeq	r0, r0, r0
    1d68:	f720081e 			; <UNDEFINED> instruction: 0xf720081e
    1d6c:	2cf72525 	cfldr64cs	mvdx2, [r7], #148	; 0x94
    1d70:	cc9f2533 	cfldr32gt	mvfx2, [pc], {51}	; 0x33
    1d74:	d0000001 	andle	r0, r0, r1
    1d78:	01000001 	tsteq	r0, r1
    1d7c:	01d05300 	bicseq	r5, r0, r0, lsl #6
    1d80:	01d40000 	bicseq	r0, r4, r0
    1d84:	001c0000 	andseq	r0, ip, r0
    1d88:	2cf70070 	ldclcs	0, cr0, [r7], #448	; 0x1c0
    1d8c:	25f425f7 	ldrbcs	r2, [r4, #1527]!	; 0x5f7
    1d90:	cccccd08 	stclgt	13, cr12, [ip], {8}
    1d94:	000000cc 	andeq	r0, r0, ip, asr #1
    1d98:	20081e00 	andcs	r1, r8, r0, lsl #28
    1d9c:	f72525f7 			; <UNDEFINED> instruction: 0xf72525f7
    1da0:	9f25332c 	svcls	0x0025332c
    1da4:	000001d4 	ldrdeq	r0, [r0], -r4
    1da8:	000001dc 	ldrdeq	r0, [r0], -ip
    1dac:	0074001c 	rsbseq	r0, r4, ip, lsl r0
    1db0:	25f72cf7 	ldrbcs	r2, [r7, #3319]!	; 0xcf7
    1db4:	cd0825f4 	cfstr32gt	mvfx2, [r8, #-976]	; 0xfffffc30
    1db8:	00cccccc 	sbceq	ip, ip, ip, asr #25
    1dbc:	1e000000 	cdpne	0, 0, cr0, cr0, cr0, {0}
    1dc0:	25f72008 	ldrbcs	r2, [r7, #8]!
    1dc4:	332cf725 	msrcc	CPSR_fs, #9699328	; 0x940000
    1dc8:	01dc9f25 	bicseq	r9, ip, r5, lsr #30
    1dcc:	01e00000 	mvneq	r0, r0
    1dd0:	00170000 	andseq	r0, r7, r0
    1dd4:	2cf70074 	ldclcs	0, cr0, [r7], #464	; 0x1d0
    1dd8:	007125f7 	ldrshteq	r2, [r1], #-87	; 0xffffffa9
    1ddc:	25f72cf7 	ldrbcs	r2, [r7, #3319]!	; 0xcf7
    1de0:	f720081e 			; <UNDEFINED> instruction: 0xf720081e
    1de4:	2cf72525 	cfldr64cs	mvdx2, [r7], #148	; 0x94
    1de8:	e09f2533 	adds	r2, pc, r3, lsr r5	; <UNPREDICTABLE>
    1dec:	10000001 	andne	r0, r0, r1
    1df0:	1c000002 	stcne	0, cr0, [r0], {2}
    1df4:	f7007400 			; <UNDEFINED> instruction: 0xf7007400
    1df8:	f425f72c 	vld1.8	{d15}, [r5 :128], ip
    1dfc:	cccd0825 	stclgt	8, cr0, [sp], {37}	; 0x25
    1e00:	0000cccc 	andeq	ip, r0, ip, asr #25
    1e04:	081e0000 	ldmdaeq	lr, {}	; <UNPREDICTABLE>
    1e08:	2525f720 	strcs	pc, [r5, #-1824]!	; 0x720
    1e0c:	25332cf7 	ldrcs	r2, [r3, #-3319]!	; 0xcf7
    1e10:	0000009f 	muleq	r0, pc, r0	; <UNPREDICTABLE>
    1e14:	00000000 	andeq	r0, r0, r0
    1e18:	0001d800 	andeq	sp, r1, r0, lsl #16
    1e1c:	0001fc00 	andeq	pc, r1, r0, lsl #24
    1e20:	50000100 	andpl	r0, r0, r0, lsl #2
    1e24:	000001fc 	strdeq	r0, [r0], -ip
    1e28:	00000203 	andeq	r0, r0, r3, lsl #4
    1e2c:	00510001 	subseq	r0, r1, r1
    1e30:	00000000 	andeq	r0, r0, r0
    1e34:	10000000 	andne	r0, r0, r0
    1e38:	2c000002 	stccs	0, cr0, [r0], {2}
    1e3c:	01000002 	tsteq	r0, r2
    1e40:	022c5000 	eoreq	r5, ip, #0
    1e44:	02340000 	eorseq	r0, r4, #0
    1e48:	00010000 	andeq	r0, r1, r0
    1e4c:	00023454 	andeq	r3, r2, r4, asr r4
    1e50:	00023c00 	andeq	r3, r2, r0, lsl #24
    1e54:	50000100 	andpl	r0, r0, r0, lsl #2
    1e58:	0000023c 	andeq	r0, r0, ip, lsr r2
    1e5c:	00000244 	andeq	r0, r0, r4, asr #4
    1e60:	44540001 	ldrbmi	r0, [r4], #-1
    1e64:	50000002 	andpl	r0, r0, r2
    1e68:	04000002 	streq	r0, [r0], #-2
    1e6c:	5001f300 	andpl	pc, r1, r0, lsl #6
    1e70:	0002509f 	muleq	r2, pc, r0	; <UNPREDICTABLE>
    1e74:	00025400 	andeq	r5, r2, r0, lsl #8
    1e78:	50000100 	andpl	r0, r0, r0, lsl #2
    1e7c:	00000254 	andeq	r0, r0, r4, asr r2
    1e80:	0000025c 	andeq	r0, r0, ip, asr r2
    1e84:	00540001 	subseq	r0, r4, r1
    1e88:	00000000 	andeq	r0, r0, r0
    1e8c:	20000000 	andcs	r0, r0, r0
    1e90:	30000002 	andcc	r0, r0, r2
    1e94:	02000002 	andeq	r0, r0, #2
    1e98:	309f3000 	addscc	r3, pc, r0
    1e9c:	34000002 	strcc	r0, [r0], #-2
    1ea0:	01000002 	tsteq	r0, r2
    1ea4:	02345000 	eorseq	r5, r4, #0
    1ea8:	02400000 	subeq	r0, r0, #0
    1eac:	00020000 	andeq	r0, r2, r0
    1eb0:	02409f30 	subeq	r9, r0, #48, 30	; 0xc0
    1eb4:	024c0000 	subeq	r0, ip, #0
    1eb8:	00010000 	andeq	r0, r1, r0
    1ebc:	00000050 	andeq	r0, r0, r0, asr r0
    1ec0:	00000000 	andeq	r0, r0, r0
    1ec4:	00025c00 	andeq	r5, r2, r0, lsl #24
    1ec8:	00027300 	andeq	r7, r2, r0, lsl #6
    1ecc:	50000100 	andpl	r0, r0, r0, lsl #2
    1ed0:	00000273 	andeq	r0, r0, r3, ror r2
    1ed4:	00000278 	andeq	r0, r0, r8, ror r2
    1ed8:	01f30004 	mvnseq	r0, r4
    1edc:	02789f50 	rsbseq	r9, r8, #80, 30	; 0x140
    1ee0:	027b0000 	rsbseq	r0, fp, #0
    1ee4:	00010000 	andeq	r0, r1, r0
    1ee8:	00027b50 	andeq	r7, r2, r0, asr fp
    1eec:	00028000 	andeq	r8, r2, r0
    1ef0:	f3000400 	vshl.u8	d0, d0, d0
    1ef4:	009f5001 	addseq	r5, pc, r1
    1ef8:	00000000 	andeq	r0, r0, r0
    1efc:	5c000000 	stcpl	0, cr0, [r0], {-0}
    1f00:	73000002 	movwvc	r0, #2
    1f04:	01000002 	tsteq	r0, r2
    1f08:	02735100 	rsbseq	r5, r3, #0, 2
    1f0c:	02780000 	rsbseq	r0, r8, #0
    1f10:	00040000 	andeq	r0, r4, r0
    1f14:	9f5101f3 	svcls	0x005101f3
    1f18:	00000278 	andeq	r0, r0, r8, ror r2
    1f1c:	0000027b 	andeq	r0, r0, fp, ror r2
    1f20:	7b510001 	blvc	1441f2c <__bss_end__+0x143788c>
    1f24:	80000002 	andhi	r0, r0, r2
    1f28:	04000002 	streq	r0, [r0], #-2
    1f2c:	5101f300 	mrspl	pc, SP_irq	; <UNPREDICTABLE>
    1f30:	0000009f 	muleq	r0, pc, r0	; <UNPREDICTABLE>
    1f34:	00000000 	andeq	r0, r0, r0
    1f38:	00028000 	andeq	r8, r2, r0
    1f3c:	00031800 	andeq	r1, r3, r0, lsl #16
    1f40:	50000100 	andpl	r0, r0, r0, lsl #2
    1f44:	00000318 	andeq	r0, r0, r8, lsl r3
    1f48:	00000358 	andeq	r0, r0, r8, asr r3
    1f4c:	00540001 	subseq	r0, r4, r1
    1f50:	00000000 	andeq	r0, r0, r0
    1f54:	80000000 	andhi	r0, r0, r0
    1f58:	1b000002 	blne	1f68 <_start-0x6098>
    1f5c:	01000003 	tsteq	r0, r3
    1f60:	031b5100 	tsteq	fp, #0, 2
    1f64:	03580000 	cmpeq	r8, #0
    1f68:	00040000 	andeq	r0, r4, r0
    1f6c:	9f5101f3 	svcls	0x005101f3
	...
    1f78:	000002d0 	ldrdeq	r0, [r0], -r0	; <UNPREDICTABLE>
    1f7c:	000002d4 	ldrdeq	r0, [r0], -r4
    1f80:	dc560001 	mrrcle	0, 0, r0, r6, cr1
    1f84:	e0000002 	and	r0, r0, r2
    1f88:	01000002 	tsteq	r0, r2
    1f8c:	02e85600 	rsceq	r5, r8, #0, 12
    1f90:	02ec0000 	rsceq	r0, ip, #0
    1f94:	00010000 	andeq	r0, r1, r0
    1f98:	0002f456 	andeq	pc, r2, r6, asr r4	; <UNPREDICTABLE>
    1f9c:	0002f800 	andeq	pc, r2, r0, lsl #16
    1fa0:	56000100 	strpl	r0, [r0], -r0, lsl #2
    1fa4:	00000300 	andeq	r0, r0, r0, lsl #6
    1fa8:	00000304 	andeq	r0, r0, r4, lsl #6
    1fac:	0c560001 	mrrceq	0, 0, r0, r6, cr1
    1fb0:	10000003 	andne	r0, r0, r3
    1fb4:	01000003 	tsteq	r0, r3
    1fb8:	03145600 	tsteq	r4, #0, 12
    1fbc:	03580000 	cmpeq	r8, #0
    1fc0:	00010000 	andeq	r0, r1, r0
    1fc4:	00000056 	andeq	r0, r0, r6, asr r0
    1fc8:	00000000 	andeq	r0, r0, r0
    1fcc:	0002a400 	andeq	sl, r2, r0, lsl #8
    1fd0:	0002cc00 	andeq	ip, r2, r0, lsl #24
    1fd4:	53000100 	movwpl	r0, #256	; 0x100
    1fd8:	000002cc 	andeq	r0, r0, ip, asr #5
    1fdc:	000002d4 	ldrdeq	r0, [r0], -r4
    1fe0:	0070001c 	rsbseq	r0, r0, ip, lsl r0
    1fe4:	25f72cf7 	ldrbcs	r2, [r7, #3319]!	; 0xcf7
    1fe8:	cd0825f4 	cfstr32gt	mvfx2, [r8, #-976]	; 0xfffffc30
    1fec:	00cccccc 	sbceq	ip, ip, ip, asr #25
    1ff0:	1e000000 	cdpne	0, 0, cr0, cr0, cr0, {0}
    1ff4:	25f72008 	ldrbcs	r2, [r7, #8]!
    1ff8:	332cf725 	msrcc	CPSR_fs, #9699328	; 0x940000
    1ffc:	02d49f25 	sbcseq	r9, r4, #37, 30	; 0x94
    2000:	02d80000 	sbcseq	r0, r8, #0
    2004:	00010000 	andeq	r0, r1, r0
    2008:	0002d853 	andeq	sp, r2, r3, asr r8
    200c:	0002e000 	andeq	lr, r2, r0
    2010:	70001c00 	andvc	r1, r0, r0, lsl #24
    2014:	f72cf700 			; <UNDEFINED> instruction: 0xf72cf700
    2018:	0825f425 	stmdaeq	r5!, {r0, r2, r5, sl, ip, sp, lr, pc}
    201c:	cccccccd 	stclgt	12, cr12, [ip], {205}	; 0xcd
    2020:	00000000 	andeq	r0, r0, r0
    2024:	f720081e 			; <UNDEFINED> instruction: 0xf720081e
    2028:	2cf72525 	cfldr64cs	mvdx2, [r7], #148	; 0x94
    202c:	e09f2533 	adds	r2, pc, r3, lsr r5	; <UNPREDICTABLE>
    2030:	e4000002 	str	r0, [r0], #-2
    2034:	01000002 	tsteq	r0, r2
    2038:	02e45300 	rsceq	r5, r4, #0, 6
    203c:	02ec0000 	rsceq	r0, ip, #0
    2040:	001c0000 	andseq	r0, ip, r0
    2044:	2cf70070 	ldclcs	0, cr0, [r7], #448	; 0x1c0
    2048:	25f425f7 	ldrbcs	r2, [r4, #1527]!	; 0x5f7
    204c:	cccccd08 	stclgt	13, cr12, [ip], {8}
    2050:	000000cc 	andeq	r0, r0, ip, asr #1
    2054:	20081e00 	andcs	r1, r8, r0, lsl #28
    2058:	f72525f7 			; <UNDEFINED> instruction: 0xf72525f7
    205c:	9f25332c 	svcls	0x0025332c
    2060:	000002ec 	andeq	r0, r0, ip, ror #5
    2064:	000002f0 	strdeq	r0, [r0], -r0	; <UNPREDICTABLE>
    2068:	f0530001 			; <UNDEFINED> instruction: 0xf0530001
    206c:	f8000002 			; <UNDEFINED> instruction: 0xf8000002
    2070:	1c000002 	stcne	0, cr0, [r0], {2}
    2074:	f7007000 			; <UNDEFINED> instruction: 0xf7007000
    2078:	f425f72c 	vld1.8	{d15}, [r5 :128], ip
    207c:	cccd0825 	stclgt	8, cr0, [sp], {37}	; 0x25
    2080:	0000cccc 	andeq	ip, r0, ip, asr #25
    2084:	081e0000 	ldmdaeq	lr, {}	; <UNPREDICTABLE>
    2088:	2525f720 	strcs	pc, [r5, #-1824]!	; 0x720
    208c:	25332cf7 	ldrcs	r2, [r3, #-3319]!	; 0xcf7
    2090:	0002f89f 	muleq	r2, pc, r8	; <UNPREDICTABLE>
    2094:	0002fc00 	andeq	pc, r2, r0, lsl #24
    2098:	53000100 	movwpl	r0, #256	; 0x100
    209c:	000002fc 	strdeq	r0, [r0], -ip
    20a0:	00000304 	andeq	r0, r0, r4, lsl #6
    20a4:	0070001c 	rsbseq	r0, r0, ip, lsl r0
    20a8:	25f72cf7 	ldrbcs	r2, [r7, #3319]!	; 0xcf7
    20ac:	cd0825f4 	cfstr32gt	mvfx2, [r8, #-976]	; 0xfffffc30
    20b0:	00cccccc 	sbceq	ip, ip, ip, asr #25
    20b4:	1e000000 	cdpne	0, 0, cr0, cr0, cr0, {0}
    20b8:	25f72008 	ldrbcs	r2, [r7, #8]!
    20bc:	332cf725 	msrcc	CPSR_fs, #9699328	; 0x940000
    20c0:	03049f25 	movweq	r9, #20261	; 0x4f25
    20c4:	03080000 	movweq	r0, #32768	; 0x8000
    20c8:	00010000 	andeq	r0, r1, r0
    20cc:	00030853 	andeq	r0, r3, r3, asr r8
    20d0:	00031000 	andeq	r1, r3, r0
    20d4:	70001c00 	andvc	r1, r0, r0, lsl #24
    20d8:	f72cf700 			; <UNDEFINED> instruction: 0xf72cf700
    20dc:	0825f425 	stmdaeq	r5!, {r0, r2, r5, sl, ip, sp, lr, pc}
    20e0:	cccccccd 	stclgt	12, cr12, [ip], {205}	; 0xcd
    20e4:	00000000 	andeq	r0, r0, r0
    20e8:	f720081e 			; <UNDEFINED> instruction: 0xf720081e
    20ec:	2cf72525 	cfldr64cs	mvdx2, [r7], #148	; 0x94
    20f0:	109f2533 	addsne	r2, pc, r3, lsr r5	; <UNPREDICTABLE>
    20f4:	14000003 	strne	r0, [r0], #-3
    20f8:	01000003 	tsteq	r0, r3
    20fc:	03145300 	tsteq	r4, #0, 6
    2100:	03180000 	tsteq	r8, #0
    2104:	001c0000 	andseq	r0, ip, r0
    2108:	2cf70070 	ldclcs	0, cr0, [r7], #448	; 0x1c0
    210c:	25f425f7 	ldrbcs	r2, [r4, #1527]!	; 0x5f7
    2110:	cccccd08 	stclgt	13, cr12, [ip], {8}
    2114:	000000cc 	andeq	r0, r0, ip, asr #1
    2118:	20081e00 	andcs	r1, r8, r0, lsl #28
    211c:	f72525f7 			; <UNDEFINED> instruction: 0xf72525f7
    2120:	9f25332c 	svcls	0x0025332c
    2124:	00000318 	andeq	r0, r0, r8, lsl r3
    2128:	00000320 	andeq	r0, r0, r0, lsr #6
    212c:	0074001c 	rsbseq	r0, r4, ip, lsl r0
    2130:	25f72cf7 	ldrbcs	r2, [r7, #3319]!	; 0xcf7
    2134:	cd0825f4 	cfstr32gt	mvfx2, [r8, #-976]	; 0xfffffc30
    2138:	00cccccc 	sbceq	ip, ip, ip, asr #25
    213c:	1e000000 	cdpne	0, 0, cr0, cr0, cr0, {0}
    2140:	25f72008 	ldrbcs	r2, [r7, #8]!
    2144:	332cf725 	msrcc	CPSR_fs, #9699328	; 0x940000
    2148:	03209f25 	teqeq	r0, #37, 30	; 0x94
    214c:	03240000 	teqeq	r4, #0
    2150:	00170000 	andseq	r0, r7, r0
    2154:	2cf70074 	ldclcs	0, cr0, [r7], #464	; 0x1d0
    2158:	007325f7 	ldrshteq	r2, [r3], #-87	; 0xffffffa9
    215c:	25f72cf7 	ldrbcs	r2, [r7, #3319]!	; 0xcf7
    2160:	f720081e 			; <UNDEFINED> instruction: 0xf720081e
    2164:	2cf72525 	cfldr64cs	mvdx2, [r7], #148	; 0x94
    2168:	249f2533 	ldrcs	r2, [pc], #1331	; 2170 <_start-0x5e90>
    216c:	58000003 	stmdapl	r0, {r0, r1}
    2170:	1c000003 	stcne	0, cr0, [r0], {3}
    2174:	f7007400 			; <UNDEFINED> instruction: 0xf7007400
    2178:	f425f72c 	vld1.8	{d15}, [r5 :128], ip
    217c:	cccd0825 	stclgt	8, cr0, [sp], {37}	; 0x25
    2180:	0000cccc 	andeq	ip, r0, ip, asr #25
    2184:	081e0000 	ldmdaeq	lr, {}	; <UNPREDICTABLE>
    2188:	2525f720 	strcs	pc, [r5, #-1824]!	; 0x720
    218c:	25332cf7 	ldrcs	r2, [r3, #-3319]!	; 0xcf7
    2190:	0000009f 	muleq	r0, pc, r0	; <UNPREDICTABLE>
    2194:	00000000 	andeq	r0, r0, r0
    2198:	00031c00 	andeq	r1, r3, r0, lsl #24
    219c:	00034000 	andeq	r4, r3, r0
    21a0:	50000100 	andpl	r0, r0, r0, lsl #2
    21a4:	00000340 	andeq	r0, r0, r0, asr #6
    21a8:	00000348 	andeq	r0, r0, r8, asr #6
    21ac:	00750009 	rsbseq	r0, r5, r9
    21b0:	71240073 	teqvc	r4, r3, ror r0
    21b4:	489f2100 	ldmmi	pc, {r8, sp}	; <UNPREDICTABLE>
    21b8:	4b000003 	blmi	21cc <_start-0x5e34>
    21bc:	01000003 	tsteq	r0, r3
    21c0:	00005100 	andeq	r5, r0, r0, lsl #2
    21c4:	00000000 	andeq	r0, r0, r0
    21c8:	03580000 	cmpeq	r8, #0
    21cc:	03640000 	cmneq	r4, #0
    21d0:	00010000 	andeq	r0, r1, r0
    21d4:	00036450 	andeq	r6, r3, r0, asr r4
    21d8:	00038400 	andeq	r8, r3, r0, lsl #8
    21dc:	f3000400 	vshl.u8	d0, d0, d0
    21e0:	009f5001 	addseq	r5, pc, r1
    21e4:	00000000 	andeq	r0, r0, r0
    21e8:	84000000 	strhi	r0, [r0], #-0
    21ec:	97000003 	strls	r0, [r0, -r3]
    21f0:	01000003 	tsteq	r0, r3
    21f4:	03975000 	orrseq	r5, r7, #0
    21f8:	03d00000 	bicseq	r0, r0, #0
    21fc:	00010000 	andeq	r0, r1, r0
    2200:	0003d054 	andeq	sp, r3, r4, asr r0
    2204:	00040800 	andeq	r0, r4, r0, lsl #16
    2208:	f3000400 	vshl.u8	d0, d0, d0
    220c:	009f5001 	addseq	r5, pc, r1
    2210:	00000000 	andeq	r0, r0, r0
    2214:	f0000000 			; <UNDEFINED> instruction: 0xf0000000
    2218:	f4000003 	vst4.8	{d0-d3}, [r0], r3
    221c:	01000003 	tsteq	r0, r3
    2220:	03f45000 	mvnseq	r5, #0
    2224:	03fb0000 	mvnseq	r0, #0
    2228:	00010000 	andeq	r0, r1, r0
    222c:	00000051 	andeq	r0, r0, r1, asr r0
    2230:	00000000 	andeq	r0, r0, r0
    2234:	0003ac00 	andeq	sl, r3, r0, lsl #24
    2238:	0003b400 	andeq	fp, r3, r0, lsl #8
    223c:	50000100 	andpl	r0, r0, r0, lsl #2
    2240:	000003b4 			; <UNDEFINED> instruction: 0x000003b4
    2244:	000003bb 			; <UNDEFINED> instruction: 0x000003bb
    2248:	00510001 	subseq	r0, r1, r1
    224c:	00000000 	andeq	r0, r0, r0
    2250:	cc000000 	stcgt	0, cr0, [r0], {-0}
    2254:	d8000003 	stmdale	r0, {r0, r1}
    2258:	01000003 	tsteq	r0, r3
    225c:	03d85000 	bicseq	r5, r8, #0
    2260:	03df0000 	bicseq	r0, pc, #0
    2264:	00010000 	andeq	r0, r1, r0
    2268:	00000051 	andeq	r0, r0, r1, asr r0
    226c:	00000000 	andeq	r0, r0, r0
    2270:	00040800 	andeq	r0, r4, r0, lsl #16
    2274:	00041b00 	andeq	r1, r4, r0, lsl #22
    2278:	50000100 	andpl	r0, r0, r0, lsl #2
    227c:	0000041b 	andeq	r0, r0, fp, lsl r4
    2280:	00000454 	andeq	r0, r0, r4, asr r4
    2284:	54540001 	ldrbpl	r0, [r4], #-1
    2288:	8c000004 	stchi	0, cr0, [r0], {4}
    228c:	04000004 	streq	r0, [r0], #-4
    2290:	5001f300 	andpl	pc, r1, r0, lsl #6
    2294:	0000009f 	muleq	r0, pc, r0	; <UNPREDICTABLE>
    2298:	00000000 	andeq	r0, r0, r0
    229c:	00047400 	andeq	r7, r4, r0, lsl #8
    22a0:	00047800 	andeq	r7, r4, r0, lsl #16
    22a4:	50000100 	andpl	r0, r0, r0, lsl #2
    22a8:	00000478 	andeq	r0, r0, r8, ror r4
    22ac:	0000047f 	andeq	r0, r0, pc, ror r4
    22b0:	00510001 	subseq	r0, r1, r1
    22b4:	00000000 	andeq	r0, r0, r0
    22b8:	30000000 	andcc	r0, r0, r0
    22bc:	38000004 	stmdacc	r0, {r2}
    22c0:	01000004 	tsteq	r0, r4
    22c4:	04385000 	ldrteq	r5, [r8], #-0
    22c8:	043f0000 	ldrteq	r0, [pc], #-0	; 22d0 <_start-0x5d30>
    22cc:	00010000 	andeq	r0, r1, r0
    22d0:	00000051 	andeq	r0, r0, r1, asr r0
    22d4:	00000000 	andeq	r0, r0, r0
    22d8:	00045000 	andeq	r5, r4, r0
    22dc:	00045c00 	andeq	r5, r4, r0, lsl #24
    22e0:	50000100 	andpl	r0, r0, r0, lsl #2
    22e4:	0000045c 	andeq	r0, r0, ip, asr r4
    22e8:	00000463 	andeq	r0, r0, r3, ror #8
    22ec:	00510001 	subseq	r0, r1, r1
    22f0:	00000000 	andeq	r0, r0, r0
    22f4:	8c000000 	stchi	0, cr0, [r0], {-0}
    22f8:	9f000004 	svcls	0x00000004
    22fc:	01000004 	tsteq	r0, r4
    2300:	049f5000 	ldreq	r5, [pc], #0	; 2308 <_start-0x5cf8>
    2304:	04e00000 	strbteq	r0, [r0], #0
    2308:	00010000 	andeq	r0, r1, r0
    230c:	0004e054 	andeq	lr, r4, r4, asr r0
    2310:	00050400 	andeq	r0, r5, r0, lsl #8
    2314:	f3000400 	vshl.u8	d0, d0, d0
    2318:	049f5001 	ldreq	r5, [pc], #1	; 2320 <_start-0x5ce0>
    231c:	08000005 	stmdaeq	r0, {r0, r2}
    2320:	01000005 	tsteq	r0, r5
    2324:	05085000 	streq	r5, [r8, #-0]
    2328:	05100000 	ldreq	r0, [r0, #-0]
    232c:	00010000 	andeq	r0, r1, r0
    2330:	00000054 	andeq	r0, r0, r4, asr r0
    2334:	00000000 	andeq	r0, r0, r0
    2338:	0004b400 	andeq	fp, r4, r0, lsl #8
    233c:	0004c300 	andeq	ip, r4, r0, lsl #6
    2340:	31000800 	tstcc	r0, r0, lsl #16
    2344:	70240074 	eorvc	r0, r4, r4, ror r0
    2348:	009f1a00 	addseq	r1, pc, r0, lsl #20
    234c:	00000000 	andeq	r0, r0, r0
    2350:	e0000000 	and	r0, r0, r0
    2354:	f8000004 			; <UNDEFINED> instruction: 0xf8000004
    2358:	01000004 	tsteq	r0, r4
    235c:	00005400 	andeq	r5, r0, r0, lsl #8
    2360:	00000000 	andeq	r0, r0, r0
    2364:	05100000 	ldreq	r0, [r0, #-0]
    2368:	05230000 	streq	r0, [r3, #-0]!
    236c:	00010000 	andeq	r0, r1, r0
    2370:	00052350 	andeq	r2, r5, r0, asr r3
    2374:	00054800 	andeq	r4, r5, r0, lsl #16
    2378:	54000100 	strpl	r0, [r0], #-256	; 0x100
    237c:	00000548 	andeq	r0, r0, r8, asr #10
    2380:	00000568 	andeq	r0, r0, r8, ror #10
    2384:	01f30004 	mvnseq	r0, r4
    2388:	00009f50 	andeq	r9, r0, r0, asr pc
	...
    2394:	00040000 	andeq	r0, r4, r0
    2398:	00010000 	andeq	r0, r1, r0
    239c:	00000452 	andeq	r0, r0, r2, asr r4
    23a0:	00002000 	andeq	r2, r0, r0
    23a4:	f3000400 	vshl.u8	d0, d0, d0
    23a8:	009f5201 	addseq	r5, pc, r1, lsl #4
	...
    23b4:	0c000000 	stceq	0, cr0, [r0], {-0}
    23b8:	01000000 	mrseq	r0, (UNDEF: 0)
    23bc:	000c5000 	andeq	r5, ip, r0
    23c0:	00140000 	andseq	r0, r4, r0
    23c4:	00030000 	andeq	r0, r3, r0
    23c8:	149f0173 	ldrne	r0, [pc], #371	; 23d0 <_start-0x5c30>
    23cc:	20000000 	andcs	r0, r0, r0
    23d0:	01000000 	mrseq	r0, (UNDEF: 0)
    23d4:	00005300 	andeq	r5, r0, r0, lsl #6
    23d8:	00000000 	andeq	r0, r0, r0
	...

Disassembly of section .debug_aranges:

00000000 <.debug_aranges>:
   0:	0000001c 	andeq	r0, r0, ip, lsl r0
   4:	00000002 	andeq	r0, r0, r2
   8:	00040000 	andeq	r0, r4, r0
   c:	00000000 	andeq	r0, r0, r0
  10:	00008010 	andeq	r8, r0, r0, lsl r0
  14:	00000474 	andeq	r0, r0, r4, ror r4
	...
  20:	0000001c 	andeq	r0, r0, ip, lsl r0
  24:	09d30002 	ldmibeq	r3, {r1}^
  28:	00040000 	andeq	r0, r4, r0
  2c:	00000000 	andeq	r0, r0, r0
  30:	00008484 	andeq	r8, r0, r4, lsl #9
  34:	00000058 	andeq	r0, r0, r8, asr r0
	...
  40:	0000001c 	andeq	r0, r0, ip, lsl r0
  44:	0b680002 	bleq	1a00054 <__bss_end__+0x19f59b4>
  48:	00040000 	andeq	r0, r4, r0
  4c:	00000000 	andeq	r0, r0, r0
  50:	000084dc 	ldrdeq	r8, [r0], -ip
  54:	0000003c 	andeq	r0, r0, ip, lsr r0
	...
  60:	0000001c 	andeq	r0, r0, ip, lsl r0
  64:	0c7f0002 	ldcleq	0, cr0, [pc], #-8	; 64 <_start-0x7f9c>
  68:	00040000 	andeq	r0, r4, r0
  6c:	00000000 	andeq	r0, r0, r0
  70:	00008518 	andeq	r8, r0, r8, lsl r5
  74:	00000034 	andeq	r0, r0, r4, lsr r0
	...
  80:	0000001c 	andeq	r0, r0, ip, lsl r0
  84:	0d710002 	ldcleq	0, cr0, [r1, #-8]!
  88:	00040000 	andeq	r0, r4, r0
  8c:	00000000 	andeq	r0, r0, r0
  90:	0000854c 	andeq	r8, r0, ip, asr #10
  94:	00000524 	andeq	r0, r0, r4, lsr #10
	...
  a0:	0000001c 	andeq	r0, r0, ip, lsl r0
  a4:	14160002 	ldrne	r0, [r6], #-2
  a8:	00040000 	andeq	r0, r4, r0
  ac:	00000000 	andeq	r0, r0, r0
  b0:	00008a70 	andeq	r8, r0, r0, ror sl
  b4:	00000028 	andeq	r0, r0, r8, lsr #32
	...
  c0:	0000001c 	andeq	r0, r0, ip, lsl r0
  c4:	15190002 	ldrne	r0, [r9, #-2]
  c8:	00040000 	andeq	r0, r4, r0
  cc:	00000000 	andeq	r0, r0, r0
  d0:	00008a98 	muleq	r0, r8, sl
  d4:	000000b0 	strheq	r0, [r0], -r0	; <UNPREDICTABLE>
	...
  e0:	0000001c 	andeq	r0, r0, ip, lsl r0
  e4:	17fa0002 	ldrbne	r0, [sl, r2]!
  e8:	00040000 	andeq	r0, r4, r0
  ec:	00000000 	andeq	r0, r0, r0
  f0:	00008b48 	andeq	r8, r0, r8, asr #22
  f4:	00000074 	andeq	r0, r0, r4, ror r0
	...
 100:	0000001c 	andeq	r0, r0, ip, lsl r0
 104:	19ab0002 	stmibne	fp!, {r1}
 108:	00040000 	andeq	r0, r4, r0
 10c:	00000000 	andeq	r0, r0, r0
 110:	00008bbc 			; <UNDEFINED> instruction: 0x00008bbc
 114:	00000088 	andeq	r0, r0, r8, lsl #1
	...
 120:	0000001c 	andeq	r0, r0, ip, lsl r0
 124:	1b870002 	blne	fe1c0134 <__bss_end__+0xfe1b5a94>
 128:	00040000 	andeq	r0, r4, r0
 12c:	00000000 	andeq	r0, r0, r0
 130:	00008c44 	andeq	r8, r0, r4, asr #24
 134:	00000668 	andeq	r0, r0, r8, ror #12
	...
 140:	0000001c 	andeq	r0, r0, ip, lsl r0
 144:	2d7d0002 	ldclcs	0, cr0, [sp, #-8]!
 148:	00040000 	andeq	r0, r4, r0
 14c:	00000000 	andeq	r0, r0, r0
 150:	000092ac 	andeq	r9, r0, ip, lsr #5
 154:	00000154 	andeq	r0, r0, r4, asr r1
	...
 160:	0000001c 	andeq	r0, r0, ip, lsl r0
 164:	31800002 	orrcc	r0, r0, r2
 168:	00040000 	andeq	r0, r4, r0
 16c:	00000000 	andeq	r0, r0, r0
 170:	00009464 	andeq	r9, r0, r4, ror #8
 174:	00000568 	andeq	r0, r0, r8, ror #10
	...
 180:	0000001c 	andeq	r0, r0, ip, lsl r0
 184:	39a50002 	stmibcc	r5!, {r1}
 188:	00040000 	andeq	r0, r4, r0
 18c:	00000000 	andeq	r0, r0, r0
 190:	000099cc 	andeq	r9, r0, ip, asr #19
 194:	00000050 	andeq	r0, r0, r0, asr r0
	...
 1a0:	0000001c 	andeq	r0, r0, ip, lsl r0
 1a4:	3b6c0002 	blcc	1b001b4 <__bss_end__+0x1af5b14>
 1a8:	00040000 	andeq	r0, r4, r0
 1ac:	00000000 	andeq	r0, r0, r0
 1b0:	00009a1c 	andeq	r9, r0, ip, lsl sl
 1b4:	00000020 	andeq	r0, r0, r0, lsr #32
	...

Disassembly of section .debug_line:

00000000 <.debug_line>:
       0:	000001da 	ldrdeq	r0, [r0], -sl
       4:	00f00002 	rscseq	r0, r0, r2
       8:	01020000 	mrseq	r0, (UNDEF: 2)
       c:	000d0efb 	strdeq	r0, [sp], -fp
      10:	01010101 	tsteq	r1, r1, lsl #2
      14:	01000000 	mrseq	r0, (UNDEF: 0)
      18:	2e010000 	cdpcs	0, 0, cr0, cr1, cr0, {0}
      1c:	6e752f2e 	cdpvs	15, 7, cr2, cr5, cr14, {1}
      20:	732d7869 	teqvc	sp, #6881280	; 0x690000
      24:	00656469 	rsbeq	r6, r5, r9, ror #8
      28:	7273752f 	rsbsvc	r7, r3, #197132288	; 0xbc00000
      2c:	636f6c2f 	cmnvs	pc, #12032	; 0x2f00
      30:	432f6c61 	teqmi	pc, #24832	; 0x6100
      34:	616c6c65 	cmnvs	ip, r5, ror #24
      38:	72612f72 	rsbvc	r2, r1, #456	; 0x1c8
      3c:	6f6e2d6d 	svcvs	0x006e2d6d
      40:	652d656e 	strvs	r6, [sp, #-1390]!	; 0x56e
      44:	2f696261 	svccs	0x00696261
      48:	2e382e34 	mrccs	14, 1, r2, cr8, cr4, {1}
      4c:	73632d33 	cmnvc	r3, #3264	; 0xcc0
      50:	65303731 	ldrvs	r3, [r0, #-1841]!	; 0x731
      54:	62696c2f 	rsbvs	r6, r9, #12032	; 0x2f00
      58:	6363672f 	cmnvs	r3, #12320768	; 0xbc0000
      5c:	6d72612f 	ldfvse	f6, [r2, #-188]!	; 0xffffff44
      60:	6e6f6e2d 	cdpvs	14, 6, cr6, cr15, cr13, {1}
      64:	61652d65 	cmnvs	r5, r5, ror #26
      68:	342f6962 	strtcc	r6, [pc], #-2402	; 70 <_start-0x7f90>
      6c:	332e382e 	teqcc	lr, #3014656	; 0x2e0000
      70:	636e692f 	cmnvs	lr, #770048	; 0xbc000
      74:	6564756c 	strbvs	r7, [r4, #-1388]!	; 0x56c
      78:	73552f00 	cmpvc	r5, #0, 30
      7c:	2f737265 	svccs	0x00737265
      80:	61697262 	cmnvs	r9, r2, ror #4
      84:	6e756a6e 	vsubvs.f32	s13, s10, s29
      88:	7365442f 	cmnvc	r5, #788529152	; 0x2f000000
      8c:	706f746b 	rsbvc	r7, pc, fp, ror #8
      90:	6863732f 	stmdavs	r3!, {r0, r1, r2, r3, r5, r8, r9, ip, sp, lr}^
      94:	2f6c6f6f 	svccs	0x006c6f6f
      98:	746e6957 	strbtvc	r6, [lr], #-2391	; 0x957
      9c:	39317265 	ldmdbcc	r1!, {r0, r2, r5, r6, r9, ip, sp, lr}
      a0:	432f3032 	teqmi	pc, #50	; 0x32
      a4:	30343153 	eorscc	r3, r4, r3, asr r1
      a8:	73632f45 	cmnvc	r3, #276	; 0x114
      ac:	65303431 	ldrvs	r3, [r0, #-1073]!	; 0x431
      b0:	7730322d 	ldrvc	r3, [r0, -sp, lsr #4]!
      b4:	6c2f6e69 	stcvs	14, cr6, [pc], #-420	; ffffff18 <__bss_end__+0xffff5878>
      b8:	69706269 	ldmdbvs	r0!, {r0, r3, r5, r6, r9, sp, lr}^
      bc:	6e690000 	cdpvs	0, 6, cr0, cr9, cr0, {0}
      c0:	6f632d74 	svcvs	0x00632d74
      c4:	6c69706d 	stclvs	0, cr7, [r9], #-436	; 0xfffffe4c
      c8:	00632e65 	rsbeq	r2, r3, r5, ror #28
      cc:	61000000 	mrsvs	r0, (UNDEF: 0)
      d0:	36766d72 			; <UNDEFINED> instruction: 0x36766d72
      d4:	736e692d 	cmnvc	lr, #737280	; 0xb4000
      d8:	682e7374 	stmdavs	lr!, {r2, r4, r5, r6, r8, r9, ip, sp, lr}
      dc:	00000100 	andeq	r0, r0, r0, lsl #2
      e0:	69647473 	stmdbvs	r4!, {r0, r1, r4, r5, r6, sl, ip, sp, lr}^
      e4:	672d746e 	strvs	r7, [sp, -lr, ror #8]!
      e8:	682e6363 	stmdavs	lr!, {r0, r1, r5, r6, r8, r9, sp, lr}
      ec:	00000200 	andeq	r0, r0, r0, lsl #4
      f0:	2e697072 	mcrcs	0, 3, r7, cr9, cr2, {3}
      f4:	00030068 	andeq	r0, r3, r8, rrx
      f8:	05000000 	streq	r0, [r0, #-0]
      fc:	00801002 	addeq	r1, r0, r2
     100:	010b0300 	mrseq	r0, (UNDEF: 59)
     104:	2e21082e 	cdpcs	8, 2, cr0, cr1, cr14, {1}
     108:	082e2108 	stmdaeq	lr!, {r3, r8, sp}
     10c:	21082e21 	tstcs	r8, r1, lsr #28
     110:	2e21082e 	cdpcs	8, 2, cr0, cr1, cr14, {1}
     114:	082e2108 	stmdaeq	lr!, {r3, r8, sp}
     118:	25082e21 	strcs	r2, [r8, #-3617]	; 0xe21
     11c:	4b2f6883 	blmi	bda330 <__bss_end__+0xbcfc90>
     120:	00452f2f 	subeq	r2, r5, pc, lsr #30
     124:	2f020402 	svccs	0x00020402
     128:	02040200 	andeq	r0, r4, #0, 4
     12c:	04020067 	streq	r0, [r2], #-103	; 0x67
     130:	02008302 	andeq	r8, r0, #134217728	; 0x8000000
     134:	00670204 	rsbeq	r0, r7, r4, lsl #4
     138:	67020402 	strvs	r0, [r2, -r2, lsl #8]
     13c:	02000204 	andeq	r0, r0, #4, 4	; 0x40000000
     140:	d7030204 	strle	r0, [r3, -r4, lsl #4]
     144:	02008201 	andeq	r8, r0, #268435456	; 0x10000000
     148:	002f0204 	eoreq	r0, pc, r4, lsl #4
     14c:	30020402 	andcc	r0, r2, r2, lsl #8
     150:	02040200 	andeq	r0, r4, #0, 4
     154:	0402002f 	streq	r0, [r2], #-47	; 0x2f
     158:	01043002 	tsteq	r4, r2
     15c:	02040200 	andeq	r0, r4, #0, 4
     160:	2e7ea303 	cdpcs	3, 7, cr10, cr14, cr3, {0}
     164:	02040200 	andeq	r0, r4, #0, 4
     168:	0402004c 	streq	r0, [r2], #-76	; 0x4c
     16c:	02002d02 	andeq	r2, r0, #2, 26	; 0x80
     170:	002f0204 	eoreq	r0, pc, r4, lsl #4
     174:	67020402 	strvs	r0, [r2, -r2, lsl #8]
     178:	02040200 	andeq	r0, r4, #0, 4
     17c:	009e7803 	addseq	r7, lr, r3, lsl #16
     180:	06010402 	streq	r0, [r1], -r2, lsl #8
     184:	0b03062e 	bleq	c1a44 <__bss_end__+0xb73a4>
     188:	492f4b4a 	stmdbmi	pc!, {r1, r3, r6, r8, r9, fp, lr}	; <UNPREDICTABLE>
     18c:	02040200 	andeq	r0, r4, #0, 4
     190:	0402002f 	streq	r0, [r2], #-47	; 0x2f
     194:	02009d02 	andeq	r9, r0, #2, 26	; 0x80
     198:	2e060104 	adfcss	f0, f6, f4
     19c:	5b084d06 	blpl	2135bc <__bss_end__+0x208f1c>
     1a0:	04020067 	streq	r0, [r2], #-103	; 0x67
     1a4:	02004b02 	andeq	r4, r0, #2048	; 0x800
     1a8:	00490204 	subeq	r0, r9, r4, lsl #4
     1ac:	06010402 	streq	r0, [r1], -r2, lsl #8
     1b0:	314c062e 	cmpcc	ip, lr, lsr #12
     1b4:	2f2e0b03 	svccs	0x002e0b03
     1b8:	0b034b69 	bleq	d2f64 <__bss_end__+0xc88c4>
     1bc:	676e4eba 			; <UNDEFINED> instruction: 0x676e4eba
     1c0:	00134a02 	andseq	r4, r3, r2, lsl #20
     1c4:	06010402 	streq	r0, [r1], -r2, lsl #8
     1c8:	5b080666 	blpl	201b68 <__bss_end__+0x1f74c8>
     1cc:	13220267 	teqne	r2, #1879048198	; 0x70000006
     1d0:	01040200 	mrseq	r0, R12_usr
     1d4:	08066606 	stmdaeq	r6, {r1, r2, r9, sl, sp, lr}
     1d8:	0016025a 	andseq	r0, r6, sl, asr r2
     1dc:	01020101 	tsteq	r2, r1, lsl #2
     1e0:	00020000 	andeq	r0, r2, r0
     1e4:	000000eb 	andeq	r0, r0, fp, ror #1
     1e8:	0efb0102 	cdpeq	1, 15, cr0, cr11, cr2, {0}
     1ec:	0101000d 	tsteq	r1, sp
     1f0:	00000101 	andeq	r0, r0, r1, lsl #2
     1f4:	00000100 	andeq	r0, r0, r0, lsl #2
     1f8:	62696c01 	rsbvs	r6, r9, #256	; 0x100
     1fc:	752f0063 	strvc	r0, [pc, #-99]!	; 1a1 <_start-0x7e5f>
     200:	6c2f7273 	sfmvs	f7, 4, [pc], #-460	; 3c <_start-0x7fc4>
     204:	6c61636f 	stclvs	3, cr6, [r1], #-444	; 0xfffffe44
     208:	6c65432f 	stclvs	3, cr4, [r5], #-188	; 0xffffff44
     20c:	2f72616c 	svccs	0x0072616c
     210:	2d6d7261 	sfmcs	f7, 2, [sp, #-388]!	; 0xfffffe7c
     214:	656e6f6e 	strbvs	r6, [lr, #-3950]!	; 0xf6e
     218:	6261652d 	rsbvs	r6, r1, #188743680	; 0xb400000
     21c:	2e342f69 	cdpcs	15, 3, cr2, cr4, cr9, {3}
     220:	2d332e38 	ldccs	14, cr2, [r3, #-224]!	; 0xffffff20
     224:	37317363 	ldrcc	r7, [r1, -r3, ror #6]!
     228:	6c2f6530 	cfstr32vs	mvfx6, [pc], #-192	; 170 <_start-0x7e90>
     22c:	672f6269 	strvs	r6, [pc, -r9, ror #4]!
     230:	612f6363 	teqvs	pc, r3, ror #6
     234:	6e2d6d72 	mcrvs	13, 1, r6, cr13, cr2, {3}
     238:	2d656e6f 	stclcs	14, cr6, [r5, #-444]!	; 0xfffffe44
     23c:	69626165 	stmdbvs	r2!, {r0, r2, r5, r6, r8, sp, lr}^
     240:	382e342f 	stmdacc	lr!, {r0, r1, r2, r3, r5, sl, ip, sp}
     244:	692f332e 	stmdbvs	pc!, {r1, r2, r3, r5, r8, r9, ip, sp}	; <UNPREDICTABLE>
     248:	756c636e 	strbvc	r6, [ip, #-878]!	; 0x36e
     24c:	2f006564 	svccs	0x00006564
     250:	72657355 	rsbvc	r7, r5, #1409286145	; 0x54000001
     254:	72622f73 	rsbvc	r2, r2, #460	; 0x1cc
     258:	6a6e6169 	bvs	1b98804 <__bss_end__+0x1b8e164>
     25c:	442f6e75 	strtmi	r6, [pc], #-3701	; 264 <_start-0x7d9c>
     260:	746b7365 	strbtvc	r7, [fp], #-869	; 0x365
     264:	732f706f 	teqvc	pc, #111	; 0x6f
     268:	6f6f6863 	svcvs	0x006f6863
     26c:	69572f6c 	ldmdbvs	r7, {r2, r3, r5, r6, r8, r9, sl, fp, sp}^
     270:	7265746e 	rsbvc	r7, r5, #1845493760	; 0x6e000000
     274:	30323931 	eorscc	r3, r2, r1, lsr r9
     278:	3153432f 	cmpcc	r3, pc, lsr #6
     27c:	2f453034 	svccs	0x00453034
     280:	34317363 	ldrtcc	r7, [r1], #-867	; 0x363
     284:	322d6530 	eorcc	r6, sp, #48, 10	; 0xc000000
     288:	6e697730 	mcrvs	7, 3, r7, cr9, cr0, {1}
     28c:	62696c2f 	rsbvs	r6, r9, #12032	; 0x2f00
     290:	00006970 	andeq	r6, r0, r0, ror r9
     294:	6e697270 	mcrvs	2, 3, r7, cr9, cr0, {3}
     298:	632e6b74 	teqvs	lr, #116, 22	; 0x1d000
     29c:	00000100 	andeq	r0, r0, r0, lsl #2
     2a0:	61647473 	smcvs	18243	; 0x4743
     2a4:	682e6772 	stmdavs	lr!, {r1, r4, r5, r6, r8, r9, sl, sp, lr}
     2a8:	00000200 	andeq	r0, r0, r0, lsl #4
     2ac:	6975623c 	ldmdbvs	r5!, {r2, r3, r4, r5, r9, sp, lr}^
     2b0:	692d746c 	pushvs	{r2, r3, r5, r6, sl, ip, sp, lr}
     2b4:	00003e6e 	andeq	r3, r0, lr, ror #28
     2b8:	70720000 	rsbsvc	r0, r2, r0
     2bc:	00682e69 	rsbeq	r2, r8, r9, ror #28
     2c0:	76000003 	strvc	r0, [r0], -r3
     2c4:	72702d61 	rsbsvc	r2, r0, #6208	; 0x1840
     2c8:	6b746e69 	blvs	1d1bc74 <__bss_end__+0x1d115d4>
     2cc:	0100682e 	tsteq	r0, lr, lsr #16
     2d0:	00000000 	andeq	r0, r0, r0
     2d4:	84840205 	strhi	r0, [r4], #517	; 0x205
     2d8:	6b170000 	blvs	5c02e0 <__bss_end__+0x5b5c40>
     2dc:	0289bf4b 	addeq	fp, r9, #300	; 0x12c
     2e0:	0101000e 	tsteq	r1, lr
     2e4:	0000008a 	andeq	r0, r0, sl, lsl #1
     2e8:	00720002 	rsbseq	r0, r2, r2
     2ec:	01020000 	mrseq	r0, (UNDEF: 2)
     2f0:	000d0efb 	strdeq	r0, [sp], -fp
     2f4:	01010101 	tsteq	r1, r1, lsl #2
     2f8:	01000000 	mrseq	r0, (UNDEF: 0)
     2fc:	6c010000 	stcvs	0, cr0, [r1], {-0}
     300:	00636269 	rsbeq	r6, r3, r9, ror #4
     304:	6573552f 	ldrbvs	r5, [r3, #-1327]!	; 0x52f
     308:	622f7372 	eorvs	r7, pc, #-939524095	; 0xc8000001
     30c:	6e616972 	mcrvs	9, 3, r6, cr1, cr2, {3}
     310:	2f6e756a 	svccs	0x006e756a
     314:	6b736544 	blvs	1cd982c <__bss_end__+0x1ccf18c>
     318:	2f706f74 	svccs	0x00706f74
     31c:	6f686373 	svcvs	0x00686373
     320:	572f6c6f 	strpl	r6, [pc, -pc, ror #24]!
     324:	65746e69 	ldrbvs	r6, [r4, #-3689]!	; 0xe69
     328:	32393172 	eorscc	r3, r9, #-2147483620	; 0x8000001c
     32c:	53432f30 	movtpl	r2, #16176	; 0x3f30
     330:	45303431 	ldrmi	r3, [r0, #-1073]!	; 0x431
     334:	3173632f 	cmncc	r3, pc, lsr #6
     338:	2d653034 	stclcs	0, cr3, [r5, #-208]!	; 0xffffff30
     33c:	69773032 	ldmdbvs	r7!, {r1, r4, r5, ip, sp}^
     340:	696c2f6e 	stmdbvs	ip!, {r1, r2, r3, r5, r6, r8, r9, sl, fp, sp}^
     344:	00697062 	rsbeq	r7, r9, r2, rrx
     348:	74757000 	ldrbtvc	r7, [r5], #-0
     34c:	72616863 	rsbvc	r6, r1, #6488064	; 0x630000
     350:	0100632e 	tsteq	r0, lr, lsr #6
     354:	70720000 	rsbsvc	r0, r2, r0
     358:	00682e69 	rsbeq	r2, r8, r9, ror #28
     35c:	00000002 	andeq	r0, r0, r2
     360:	dc020500 	cfstr32le	mvfx0, [r2], {-0}
     364:	14000084 	strne	r0, [r0], #-132	; 0x84
     368:	bc136b4a 	ldclt	11, cr6, [r3], {74}	; 0x4a
     36c:	00080213 	andeq	r0, r8, r3, lsl r2
     370:	00960101 	addseq	r0, r6, r1, lsl #2
     374:	00020000 	andeq	r0, r2, r0
     378:	0000006f 	andeq	r0, r0, pc, rrx
     37c:	0efb0102 	cdpeq	1, 15, cr0, cr11, cr2, {0}
     380:	0101000d 	tsteq	r1, sp
     384:	00000101 	andeq	r0, r0, r1, lsl #2
     388:	00000100 	andeq	r0, r0, r0, lsl #2
     38c:	62696c01 	rsbvs	r6, r9, #256	; 0x100
     390:	552f0063 	strpl	r0, [pc, #-99]!	; 335 <_start-0x7ccb>
     394:	73726573 	cmnvc	r2, #482344960	; 0x1cc00000
     398:	6972622f 	ldmdbvs	r2!, {r0, r1, r2, r3, r5, r9, sp, lr}^
     39c:	756a6e61 	strbvc	r6, [sl, #-3681]!	; 0xe61
     3a0:	65442f6e 	strbvs	r2, [r4, #-3950]	; 0xf6e
     3a4:	6f746b73 	svcvs	0x00746b73
     3a8:	63732f70 	cmnvs	r3, #112, 30	; 0x1c0
     3ac:	6c6f6f68 	stclvs	15, cr6, [pc], #-416	; 214 <_start-0x7dec>
     3b0:	6e69572f 	cdpvs	7, 6, cr5, cr9, cr15, {1}
     3b4:	31726574 	cmncc	r2, r4, ror r5
     3b8:	2f303239 	svccs	0x00303239
     3bc:	34315343 	ldrtcc	r5, [r1], #-835	; 0x343
     3c0:	632f4530 	teqvs	pc, #48, 10	; 0xc000000
     3c4:	30343173 	eorscc	r3, r4, r3, ror r1
     3c8:	30322d65 	eorscc	r2, r2, r5, ror #26
     3cc:	2f6e6977 	svccs	0x006e6977
     3d0:	7062696c 	rsbvc	r6, r2, ip, ror #18
     3d4:	70000069 	andvc	r0, r0, r9, rrx
     3d8:	2e6b7475 	mcrcs	4, 3, r7, cr11, cr5, {3}
     3dc:	00010063 	andeq	r0, r1, r3, rrx
     3e0:	69707200 	ldmdbvs	r0!, {r9, ip, sp, lr}^
     3e4:	0200682e 	andeq	r6, r0, #3014656	; 0x2e0000
     3e8:	00000000 	andeq	r0, r0, r0
     3ec:	85180205 	ldrhi	r0, [r8, #-517]	; 0x205
     3f0:	4c150000 	ldcmi	0, cr0, [r5], {-0}
     3f4:	0402002d 	streq	r0, [r2], #-45	; 0x2d
     3f8:	02002f02 	andeq	r2, r0, #2, 30
     3fc:	00490204 	subeq	r0, r9, r4, lsl #4
     400:	06010402 	streq	r0, [r1], -r2, lsl #8
     404:	026b062e 	rsbeq	r0, fp, #48234496	; 0x2e00000
     408:	01010006 	tsteq	r1, r6
     40c:	000001e2 	andeq	r0, r0, r2, ror #3
     410:	00df0002 	sbcseq	r0, pc, r2
     414:	01020000 	mrseq	r0, (UNDEF: 2)
     418:	000d0efb 	strdeq	r0, [sp], -fp
     41c:	01010101 	tsteq	r1, r1, lsl #2
     420:	01000000 	mrseq	r0, (UNDEF: 0)
     424:	6c010000 	stcvs	0, cr0, [r1], {-0}
     428:	00636269 	rsbeq	r6, r3, r9, ror #4
     42c:	7273752f 	rsbsvc	r7, r3, #197132288	; 0xbc00000
     430:	636f6c2f 	cmnvs	pc, #12032	; 0x2f00
     434:	432f6c61 	teqmi	pc, #24832	; 0x6100
     438:	616c6c65 	cmnvs	ip, r5, ror #24
     43c:	72612f72 	rsbvc	r2, r1, #456	; 0x1c8
     440:	6f6e2d6d 	svcvs	0x006e2d6d
     444:	652d656e 	strvs	r6, [sp, #-1390]!	; 0x56e
     448:	2f696261 	svccs	0x00696261
     44c:	2e382e34 	mrccs	14, 1, r2, cr8, cr4, {1}
     450:	73632d33 	cmnvc	r3, #3264	; 0xcc0
     454:	65303731 	ldrvs	r3, [r0, #-1841]!	; 0x731
     458:	62696c2f 	rsbvs	r6, r9, #12032	; 0x2f00
     45c:	6363672f 	cmnvs	r3, #12320768	; 0xbc0000
     460:	6d72612f 	ldfvse	f6, [r2, #-188]!	; 0xffffff44
     464:	6e6f6e2d 	cdpvs	14, 6, cr6, cr15, cr13, {1}
     468:	61652d65 	cmnvs	r5, r5, ror #26
     46c:	342f6962 	strtcc	r6, [pc], #-2402	; 474 <_start-0x7b8c>
     470:	332e382e 	teqcc	lr, #3014656	; 0x2e0000
     474:	636e692f 	cmnvs	lr, #770048	; 0xbc000
     478:	6564756c 	strbvs	r7, [r4, #-1388]!	; 0x56c
     47c:	73552f00 	cmpvc	r5, #0, 30
     480:	2f737265 	svccs	0x00737265
     484:	61697262 	cmnvs	r9, r2, ror #4
     488:	6e756a6e 	vsubvs.f32	s13, s10, s29
     48c:	7365442f 	cmnvc	r5, #788529152	; 0x2f000000
     490:	706f746b 	rsbvc	r7, pc, fp, ror #8
     494:	6863732f 	stmdavs	r3!, {r0, r1, r2, r3, r5, r8, r9, ip, sp, lr}^
     498:	2f6c6f6f 	svccs	0x006c6f6f
     49c:	746e6957 	strbtvc	r6, [lr], #-2391	; 0x957
     4a0:	39317265 	ldmdbcc	r1!, {r0, r2, r5, r6, r9, ip, sp, lr}
     4a4:	432f3032 	teqmi	pc, #50	; 0x32
     4a8:	30343153 	eorscc	r3, r4, r3, asr r1
     4ac:	73632f45 	cmnvc	r3, #276	; 0x114
     4b0:	65303431 	ldrvs	r3, [r0, #-1073]!	; 0x431
     4b4:	7730322d 	ldrvc	r3, [r0, -sp, lsr #4]!
     4b8:	6c2f6e69 	stcvs	14, cr6, [pc], #-420	; 31c <_start-0x7ce4>
     4bc:	69706269 	ldmdbvs	r0!, {r0, r3, r5, r6, r9, sp, lr}^
     4c0:	61760000 	cmnvs	r6, r0
     4c4:	6972702d 	ldmdbvs	r2!, {r0, r2, r3, r5, ip, sp, lr}^
     4c8:	2e6b746e 	cdpcs	4, 6, cr7, cr11, cr14, {3}
     4cc:	00010063 	andeq	r0, r1, r3, rrx
     4d0:	64747300 	ldrbtvs	r7, [r4], #-768	; 0x300
     4d4:	2e677261 	cdpcs	2, 6, cr7, cr7, cr1, {3}
     4d8:	00020068 	andeq	r0, r2, r8, rrx
     4dc:	69707200 	ldmdbvs	r0!, {r9, ip, sp, lr}^
     4e0:	0300682e 	movweq	r6, #2094	; 0x82e
     4e4:	623c0000 	eorsvs	r0, ip, #0
     4e8:	746c6975 	strbtvc	r6, [ip], #-2421	; 0x975
     4ec:	3e6e692d 	cdpcc	9, 6, cr6, cr14, cr13, {1}
     4f0:	00000000 	andeq	r0, r0, r0
     4f4:	02050000 	andeq	r0, r5, #0
     4f8:	0000854c 	andeq	r8, r0, ip, asr #10
     4fc:	01012603 	tsteq	r1, r3, lsl #12
     500:	2d3113a5 	ldccs	3, cr1, [r1, #-660]!	; 0xfffffd6c
     504:	02040200 	andeq	r0, r4, #0, 4
     508:	0402002f 	streq	r0, [r2], #-47	; 0x2f
     50c:	02002d02 	andeq	r2, r0, #2, 26	; 0x80
     510:	002f0204 	eoreq	r0, pc, r4, lsl #4
     514:	2d010402 	cfstrscs	mvf0, [r1, #-8]
     518:	14304c4c 	ldrtne	r4, [r0], #-3148	; 0xc4c
     51c:	004f2f4b 	subeq	r2, pc, fp, asr #30
     520:	67020402 	strvs	r0, [r2, -r2, lsl #8]
     524:	01040200 	mrseq	r0, R12_usr
     528:	304d4c65 	subcc	r4, sp, r5, ror #24
     52c:	30312fa0 	eorscc	r2, r1, r0, lsr #31
     530:	84162602 	ldrhi	r2, [r6], #-1538	; 0x602
     534:	02002c2d 	andeq	r2, r0, #11520	; 0x2d00
     538:	00300104 	eorseq	r0, r0, r4, lsl #2
     53c:	33010402 	movwcc	r0, #5122	; 0x1402
     540:	02006606 	andeq	r6, r0, #6291456	; 0x600000
     544:	002e0104 	eoreq	r0, lr, r4, lsl #2
     548:	06010402 	streq	r0, [r1], -r2, lsl #8
     54c:	2f672108 	svccs	0x00672108
     550:	03827303 	orreq	r7, r2, #201326592	; 0xc000000
     554:	02002e13 	andeq	r2, r0, #304	; 0x130
     558:	2e060104 	adfcss	f0, f6, f4
     55c:	01040200 	mrseq	r0, R12_usr
     560:	4b6a9f06 	blmi	1aa8180 <__bss_end__+0x1a9dae0>
     564:	032e6703 	teqeq	lr, #786432	; 0xc0000
     568:	02002e21 	andeq	r2, r0, #528	; 0x210
     56c:	2e060104 	adfcss	f0, f6, f4
     570:	01040200 	mrseq	r0, R12_usr
     574:	02009f06 	andeq	r9, r0, #6, 30
     578:	086a0104 	stmdaeq	sl!, {r2, r8}^
     57c:	a603f323 	strge	pc, [r3], -r3, lsr #6
     580:	4b3c087f 	blmi	f02784 <__bss_end__+0xef80e4>
     584:	01040200 	mrseq	r0, R12_usr
     588:	08064a06 	stmdaeq	r6, {r1, r2, r9, fp, lr}
     58c:	4b2f4b21 	blmi	bd3218 <__bss_end__+0xbc8b78>
     590:	f200d903 	vmla.i8	d13, d0, d3
     594:	03484c83 	movteq	r4, #35971	; 0x8c83
     598:	75032e0e 	strvc	r2, [r3, #-3598]	; 0xe0e
     59c:	842f2f2e 	strthi	r2, [pc], #-3886	; 5a4 <_start-0x7a5c>
     5a0:	4d2d2f4b 	stcmi	15, cr2, [sp, #-300]!	; 0xfffffed4
     5a4:	832f3031 	teqhi	pc, #49	; 0x31
     5a8:	01040200 	mrseq	r0, R12_usr
     5ac:	0200a22c 	andeq	sl, r0, #44, 4	; 0xc0000002
     5b0:	4a060104 	bmi	1809c8 <__bss_end__+0x176328>
     5b4:	02220806 	eoreq	r0, r2, #393216	; 0x60000
     5b8:	0e031636 	mcreq	6, 0, r1, cr3, cr6, {1}
     5bc:	302108d6 	ldrdcc	r0, [r1], -r6	; <UNPREDICTABLE>
     5c0:	30f331f3 	ldrshtcc	r3, [r3], #19
     5c4:	304b30f3 	strdcc	r3, [fp], #-3
     5c8:	230830f3 	movwcs	r3, #33011	; 0x80f3
     5cc:	02002f31 	andeq	r2, r0, #49, 30	; 0xc4
     5d0:	00650104 	rsbeq	r0, r5, r4, lsl #2
     5d4:	06020402 	streq	r0, [r2], -r2, lsl #8
     5d8:	0402004a 	streq	r0, [r2], #-74	; 0x4a
     5dc:	42030601 	andmi	r0, r3, #1048576	; 0x100000
     5e0:	04020066 	streq	r0, [r2], #-102	; 0x66
     5e4:	06660602 	strbteq	r0, [r6], -r2, lsl #12
     5e8:	4a00c203 	bmi	30dfc <__bss_end__+0x2675c>
     5ec:	00120268 	andseq	r0, r2, r8, ror #4
     5f0:	00930101 	addseq	r0, r3, r1, lsl #2
     5f4:	00020000 	andeq	r0, r2, r0
     5f8:	0000007d 	andeq	r0, r0, sp, ror r0
     5fc:	0efb0102 	cdpeq	1, 15, cr0, cr11, cr2, {0}
     600:	0101000d 	tsteq	r1, sp
     604:	00000101 	andeq	r0, r0, r1, lsl #2
     608:	00000100 	andeq	r0, r0, r0, lsl #2
     60c:	31736301 	cmncc	r3, r1, lsl #6
     610:	2d653034 	stclcs	0, cr3, [r5, #-208]!	; 0xffffff30
     614:	00637273 	rsbeq	r7, r3, r3, ror r2
     618:	6573552f 	ldrbvs	r5, [r3, #-1327]!	; 0x52f
     61c:	622f7372 	eorvs	r7, pc, #-939524095	; 0xc8000001
     620:	6e616972 	mcrvs	9, 3, r6, cr1, cr2, {3}
     624:	2f6e756a 	svccs	0x006e756a
     628:	6b736544 	blvs	1cd9b40 <__bss_end__+0x1ccf4a0>
     62c:	2f706f74 	svccs	0x00706f74
     630:	6f686373 	svcvs	0x00686373
     634:	572f6c6f 	strpl	r6, [pc, -pc, ror #24]!
     638:	65746e69 	ldrbvs	r6, [r4, #-3689]!	; 0xe69
     63c:	32393172 	eorscc	r3, r9, #-2147483620	; 0x8000001c
     640:	53432f30 	movtpl	r2, #16176	; 0x3f30
     644:	45303431 	ldrmi	r3, [r0, #-1073]!	; 0x431
     648:	3173632f 	cmncc	r3, pc, lsr #6
     64c:	2d653034 	stclcs	0, cr3, [r5, #-208]!	; 0xffffff30
     650:	69773032 	ldmdbvs	r7!, {r1, r4, r5, ip, sp}^
     654:	696c2f6e 	stmdbvs	ip!, {r1, r2, r3, r5, r6, r8, r9, sl, fp, sp}^
     658:	00697062 	rsbeq	r7, r9, r2, rrx
     65c:	656c6300 	strbvs	r6, [ip, #-768]!	; 0x300
     660:	722d6e61 	eorvc	r6, sp, #1552	; 0x610
     664:	6f6f6265 	svcvs	0x006f6265
     668:	00632e74 	rsbeq	r2, r3, r4, ror lr
     66c:	72000001 	andvc	r0, r0, #1
     670:	682e6970 	stmdavs	lr!, {r4, r5, r6, r8, fp, sp, lr}
     674:	00000200 	andeq	r0, r0, r0, lsl #4
     678:	02050000 	andeq	r0, r5, #0
     67c:	00008a70 	andeq	r8, r0, r0, ror sl
     680:	4b832f15 	blmi	fe0cc2dc <__bss_end__+0xfe0c1c3c>
     684:	01000602 	tsteq	r0, r2, lsl #12
     688:	00012101 	andeq	r2, r1, r1, lsl #2
     68c:	f8000200 			; <UNDEFINED> instruction: 0xf8000200
     690:	02000000 	andeq	r0, r0, #0
     694:	0d0efb01 	vstreq	d15, [lr, #-4]
     698:	01010100 	mrseq	r0, (UNDEF: 17)
     69c:	00000001 	andeq	r0, r0, r1
     6a0:	01000001 	tsteq	r0, r1
     6a4:	34317363 	ldrtcc	r7, [r1], #-867	; 0x363
     6a8:	732d6530 	teqvc	sp, #48, 10	; 0xc000000
     6ac:	2f006372 	svccs	0x00006372
     6b0:	2f727375 	svccs	0x00727375
     6b4:	61636f6c 	cmnvs	r3, ip, ror #30
     6b8:	65432f6c 	strbvs	r2, [r3, #-3948]	; 0xf6c
     6bc:	72616c6c 	rsbvc	r6, r1, #108, 24	; 0x6c00
     6c0:	6d72612f 	ldfvse	f6, [r2, #-188]!	; 0xffffff44
     6c4:	6e6f6e2d 	cdpvs	14, 6, cr6, cr15, cr13, {1}
     6c8:	61652d65 	cmnvs	r5, r5, ror #26
     6cc:	342f6962 	strtcc	r6, [pc], #-2402	; 6d4 <_start-0x792c>
     6d0:	332e382e 	teqcc	lr, #3014656	; 0x2e0000
     6d4:	3173632d 	cmncc	r3, sp, lsr #6
     6d8:	2f653037 	svccs	0x00653037
     6dc:	2f62696c 	svccs	0x0062696c
     6e0:	2f636367 	svccs	0x00636367
     6e4:	2d6d7261 	sfmcs	f7, 2, [sp, #-388]!	; 0xfffffe7c
     6e8:	656e6f6e 	strbvs	r6, [lr, #-3950]!	; 0xf6e
     6ec:	6261652d 	rsbvs	r6, r1, #188743680	; 0xb400000
     6f0:	2e342f69 	cdpcs	15, 3, cr2, cr4, cr9, {3}
     6f4:	2f332e38 	svccs	0x00332e38
     6f8:	6c636e69 	stclvs	14, cr6, [r3], #-420	; 0xfffffe5c
     6fc:	00656475 	rsbeq	r6, r5, r5, ror r4
     700:	6573552f 	ldrbvs	r5, [r3, #-1327]!	; 0x52f
     704:	622f7372 	eorvs	r7, pc, #-939524095	; 0xc8000001
     708:	6e616972 	mcrvs	9, 3, r6, cr1, cr2, {3}
     70c:	2f6e756a 	svccs	0x006e756a
     710:	6b736544 	blvs	1cd9c28 <__bss_end__+0x1ccf588>
     714:	2f706f74 	svccs	0x00706f74
     718:	6f686373 	svcvs	0x00686373
     71c:	572f6c6f 	strpl	r6, [pc, -pc, ror #24]!
     720:	65746e69 	ldrbvs	r6, [r4, #-3689]!	; 0xe69
     724:	32393172 	eorscc	r3, r9, #-2147483620	; 0x8000001c
     728:	53432f30 	movtpl	r2, #16176	; 0x3f30
     72c:	45303431 	ldrmi	r3, [r0, #-1073]!	; 0x431
     730:	3173632f 	cmncc	r3, pc, lsr #6
     734:	2d653034 	stclcs	0, cr3, [r5, #-208]!	; 0xffffff30
     738:	69773032 	ldmdbvs	r7!, {r1, r4, r5, ip, sp}^
     73c:	696c2f6e 	stmdbvs	ip!, {r1, r2, r3, r5, r6, r8, r9, sl, fp, sp}^
     740:	00697062 	rsbeq	r7, r9, r2, rrx
     744:	74736300 	ldrbtvc	r6, [r3], #-768	; 0x300
     748:	2e747261 	cdpcs	2, 7, cr7, cr4, cr1, {3}
     74c:	00010063 	andeq	r0, r1, r3, rrx
     750:	64747300 	ldrbtvs	r7, [r4], #-768	; 0x300
     754:	2d746e69 	ldclcs	14, cr6, [r4, #-420]!	; 0xfffffe5c
     758:	2e636367 	cdpcs	3, 6, cr6, cr3, cr7, {3}
     75c:	00020068 	andeq	r0, r2, r8, rrx
     760:	2d777300 	ldclcs	3, cr7, [r7, #-0]
     764:	74726175 	ldrbtvc	r6, [r2], #-373	; 0x175
     768:	0100682e 	tsteq	r0, lr, lsr #16
     76c:	6f630000 	svcvs	0x00630000
     770:	6f72746e 	svcvs	0x0072746e
     774:	6c622d6c 	stclvs	13, cr2, [r2], #-432	; 0xfffffe50
     778:	2e6b636f 	cdpcs	3, 6, cr6, cr11, cr15, {3}
     77c:	00010068 	andeq	r0, r1, r8, rrx
     780:	69707200 	ldmdbvs	r0!, {r9, ip, sp, lr}^
     784:	0300682e 	movweq	r6, #2094	; 0x82e
     788:	00000000 	andeq	r0, r0, r0
     78c:	8a980205 	bhi	fe600fa8 <__bss_end__+0xfe5f6908>
     790:	4b170000 	blmi	5c0798 <__bss_end__+0x5b60f8>
     794:	31326868 	teqcc	r2, r8, ror #16
     798:	002f2d2f 	eoreq	r2, pc, pc, lsr #26
     79c:	49010402 	stmdbmi	r1, {r1, sl}
     7a0:	674b2f4f 	strbvs	r2, [fp, -pc, asr #30]
     7a4:	4e678367 	cdpmi	3, 6, cr8, cr7, cr7, {3}
     7a8:	0010022f 	andseq	r0, r0, pc, lsr #4
     7ac:	00990101 	addseq	r0, r9, r1, lsl #2
     7b0:	00020000 	andeq	r0, r2, r0
     7b4:	00000077 	andeq	r0, r0, r7, ror r0
     7b8:	0efb0102 	cdpeq	1, 15, cr0, cr11, cr2, {0}
     7bc:	0101000d 	tsteq	r1, sp
     7c0:	00000101 	andeq	r0, r0, r1, lsl #2
     7c4:	00000100 	andeq	r0, r0, r0, lsl #2
     7c8:	31736301 	cmncc	r3, r1, lsl #6
     7cc:	2d653034 	stclcs	0, cr3, [r5, #-208]!	; 0xffffff30
     7d0:	00637273 	rsbeq	r7, r3, r3, ror r2
     7d4:	6573552f 	ldrbvs	r5, [r3, #-1327]!	; 0x52f
     7d8:	622f7372 	eorvs	r7, pc, #-939524095	; 0xc8000001
     7dc:	6e616972 	mcrvs	9, 3, r6, cr1, cr2, {3}
     7e0:	2f6e756a 	svccs	0x006e756a
     7e4:	6b736544 	blvs	1cd9cfc <__bss_end__+0x1ccf65c>
     7e8:	2f706f74 	svccs	0x00706f74
     7ec:	6f686373 	svcvs	0x00686373
     7f0:	572f6c6f 	strpl	r6, [pc, -pc, ror #24]!
     7f4:	65746e69 	ldrbvs	r6, [r4, #-3689]!	; 0xe69
     7f8:	32393172 	eorscc	r3, r9, #-2147483620	; 0x8000001c
     7fc:	53432f30 	movtpl	r2, #16176	; 0x3f30
     800:	45303431 	ldrmi	r3, [r0, #-1073]!	; 0x431
     804:	3173632f 	cmncc	r3, pc, lsr #6
     808:	2d653034 	stclcs	0, cr3, [r5, #-208]!	; 0xffffff30
     80c:	69773032 	ldmdbvs	r7!, {r1, r4, r5, ip, sp}^
     810:	696c2f6e 	stmdbvs	ip!, {r1, r2, r3, r5, r6, r8, r9, sl, fp, sp}^
     814:	00697062 	rsbeq	r7, r9, r2, rrx
     818:	62657200 	rsbvs	r7, r5, #0, 4
     81c:	2e746f6f 	cdpcs	15, 7, cr6, cr4, cr15, {3}
     820:	00010063 	andeq	r0, r1, r3, rrx
     824:	69707200 	ldmdbvs	r0!, {r9, ip, sp, lr}^
     828:	0200682e 	andeq	r6, r0, #3014656	; 0x2e0000
     82c:	00000000 	andeq	r0, r0, r0
     830:	8b480205 	blhi	120104c <__bss_end__+0x11f69ac>
     834:	0d030000 	stceq	0, cr0, [r3, #-0]
     838:	2f311401 	svccs	0x00311401
     83c:	4b2f1585 	blmi	bc5e58 <__bss_end__+0xbbb7b8>
     840:	35672f4d 	strbcc	r2, [r7, #-3917]!	; 0xf4d
     844:	10026752 	andne	r6, r2, r2, asr r7
     848:	a3010100 	movwge	r0, #4352	; 0x1100
     84c:	02000000 	andeq	r0, r0, #0
     850:	00007600 	andeq	r7, r0, r0, lsl #12
     854:	fb010200 	blx	4105e <__bss_end__+0x369be>
     858:	01000d0e 	tsteq	r0, lr, lsl #26
     85c:	00010101 	andeq	r0, r1, r1, lsl #2
     860:	00010000 	andeq	r0, r1, r0
     864:	73630100 	cmnvc	r3, #0, 2
     868:	65303431 	ldrvs	r3, [r0, #-1073]!	; 0x431
     86c:	6372732d 	cmnvs	r2, #-1275068416	; 0xb4000000
     870:	73552f00 	cmpvc	r5, #0, 30
     874:	2f737265 	svccs	0x00737265
     878:	61697262 	cmnvs	r9, r2, ror #4
     87c:	6e756a6e 	vsubvs.f32	s13, s10, s29
     880:	7365442f 	cmnvc	r5, #788529152	; 0x2f000000
     884:	706f746b 	rsbvc	r7, pc, fp, ror #8
     888:	6863732f 	stmdavs	r3!, {r0, r1, r2, r3, r5, r8, r9, ip, sp, lr}^
     88c:	2f6c6f6f 	svccs	0x006c6f6f
     890:	746e6957 	strbtvc	r6, [lr], #-2391	; 0x957
     894:	39317265 	ldmdbcc	r1!, {r0, r2, r5, r6, r9, ip, sp, lr}
     898:	432f3032 	teqmi	pc, #50	; 0x32
     89c:	30343153 	eorscc	r3, r4, r3, asr r1
     8a0:	73632f45 	cmnvc	r3, #276	; 0x114
     8a4:	65303431 	ldrvs	r3, [r0, #-1073]!	; 0x431
     8a8:	7730322d 	ldrvc	r3, [r0, -sp, lsr #4]!
     8ac:	6c2f6e69 	stcvs	14, cr6, [pc], #-420	; 710 <_start-0x78f0>
     8b0:	69706269 	ldmdbvs	r0!, {r0, r3, r5, r6, r9, sp, lr}^
     8b4:	69740000 	ldmdbvs	r4!, {}^	; <UNPREDICTABLE>
     8b8:	2e72656d 	cdpcs	5, 7, cr6, cr2, cr13, {3}
     8bc:	00010063 	andeq	r0, r1, r3, rrx
     8c0:	69707200 	ldmdbvs	r0!, {r9, ip, sp, lr}^
     8c4:	0200682e 	andeq	r6, r0, #3014656	; 0x2e0000
     8c8:	00000000 	andeq	r0, r0, r0
     8cc:	8bbc0205 	blhi	fef010e8 <__bss_end__+0xfeef6a48>
     8d0:	13160000 	tstne	r6, #0
     8d4:	02002d2f 	andeq	r2, r0, #3008	; 0xbc0
     8d8:	2e060104 	adfcss	f0, f6, f4
     8dc:	2f316806 	svccs	0x00316806
     8e0:	31324d4b 	teqcc	r2, fp, asr #26
     8e4:	2f4c4b30 	svccs	0x004c4b30
     8e8:	842f2f6a 	strthi	r2, [pc], #-3946	; 8f0 <_start-0x7710>
     8ec:	0008022f 	andeq	r0, r8, pc, lsr #4
     8f0:	03490101 	movteq	r0, #37121	; 0x9101
     8f4:	00020000 	andeq	r0, r2, r0
     8f8:	000001bd 			; <UNDEFINED> instruction: 0x000001bd
     8fc:	0efb0102 	cdpeq	1, 15, cr0, cr11, cr2, {0}
     900:	0101000d 	tsteq	r1, sp
     904:	00000101 	andeq	r0, r0, r1, lsl #2
     908:	00000100 	andeq	r0, r0, r0, lsl #2
     90c:	2d796d01 	ldclcs	13, cr6, [r9, #-4]!
     910:	00637273 	rsbeq	r7, r3, r3, ror r2
     914:	6573552f 	ldrbvs	r5, [r3, #-1327]!	; 0x52f
     918:	622f7372 	eorvs	r7, pc, #-939524095	; 0xc8000001
     91c:	6e616972 	mcrvs	9, 3, r6, cr1, cr2, {3}
     920:	2f6e756a 	svccs	0x006e756a
     924:	6b736544 	blvs	1cd9e3c <__bss_end__+0x1ccf79c>
     928:	2f706f74 	svccs	0x00706f74
     92c:	6f686373 	svcvs	0x00686373
     930:	572f6c6f 	strpl	r6, [pc, -pc, ror #24]!
     934:	65746e69 	ldrbvs	r6, [r4, #-3689]!	; 0xe69
     938:	32393172 	eorscc	r3, r9, #-2147483620	; 0x8000001c
     93c:	53432f30 	movtpl	r2, #16176	; 0x3f30
     940:	45303431 	ldrmi	r3, [r0, #-1073]!	; 0x431
     944:	3173632f 	cmncc	r3, pc, lsr #6
     948:	2d653034 	stclcs	0, cr3, [r5, #-208]!	; 0xffffff30
     94c:	69773032 	ldmdbvs	r7!, {r1, r4, r5, ip, sp}^
     950:	696c2f6e 	stmdbvs	ip!, {r1, r2, r3, r5, r6, r8, r9, sl, fp, sp}^
     954:	2f697062 	svccs	0x00697062
     958:	34317363 	ldrtcc	r7, [r1], #-867	; 0x363
     95c:	732d6530 	teqvc	sp, #48, 10	; 0xc000000
     960:	2f006372 	svccs	0x00006372
     964:	2f727375 	svccs	0x00727375
     968:	61636f6c 	cmnvs	r3, ip, ror #30
     96c:	65432f6c 	strbvs	r2, [r3, #-3948]	; 0xf6c
     970:	72616c6c 	rsbvc	r6, r1, #108, 24	; 0x6c00
     974:	6d72612f 	ldfvse	f6, [r2, #-188]!	; 0xffffff44
     978:	6e6f6e2d 	cdpvs	14, 6, cr6, cr15, cr13, {1}
     97c:	61652d65 	cmnvs	r5, r5, ror #26
     980:	342f6962 	strtcc	r6, [pc], #-2402	; 988 <_start-0x7678>
     984:	332e382e 	teqcc	lr, #3014656	; 0x2e0000
     988:	3173632d 	cmncc	r3, sp, lsr #6
     98c:	2f653037 	svccs	0x00653037
     990:	2f62696c 	svccs	0x0062696c
     994:	2f636367 	svccs	0x00636367
     998:	2d6d7261 	sfmcs	f7, 2, [sp, #-388]!	; 0xfffffe7c
     99c:	656e6f6e 	strbvs	r6, [lr, #-3950]!	; 0xf6e
     9a0:	6261652d 	rsbvs	r6, r1, #188743680	; 0xb400000
     9a4:	2e342f69 	cdpcs	15, 3, cr2, cr4, cr9, {3}
     9a8:	2f332e38 	svccs	0x00332e38
     9ac:	6c636e69 	stclvs	14, cr6, [r3], #-420	; 0xfffffe5c
     9b0:	00656475 	rsbeq	r6, r5, r5, ror r4
     9b4:	6573552f 	ldrbvs	r5, [r3, #-1327]!	; 0x52f
     9b8:	622f7372 	eorvs	r7, pc, #-939524095	; 0xc8000001
     9bc:	6e616972 	mcrvs	9, 3, r6, cr1, cr2, {3}
     9c0:	2f6e756a 	svccs	0x006e756a
     9c4:	6b736544 	blvs	1cd9edc <__bss_end__+0x1ccf83c>
     9c8:	2f706f74 	svccs	0x00706f74
     9cc:	6f686373 	svcvs	0x00686373
     9d0:	572f6c6f 	strpl	r6, [pc, -pc, ror #24]!
     9d4:	65746e69 	ldrbvs	r6, [r4, #-3689]!	; 0xe69
     9d8:	32393172 	eorscc	r3, r9, #-2147483620	; 0x8000001c
     9dc:	53432f30 	movtpl	r2, #16176	; 0x3f30
     9e0:	45303431 	ldrmi	r3, [r0, #-1073]!	; 0x431
     9e4:	3173632f 	cmncc	r3, pc, lsr #6
     9e8:	2d653034 	stclcs	0, cr3, [r5, #-208]!	; 0xffffff30
     9ec:	69773032 	ldmdbvs	r7!, {r1, r4, r5, ip, sp}^
     9f0:	696c2f6e 	stmdbvs	ip!, {r1, r2, r3, r5, r6, r8, r9, sl, fp, sp}^
     9f4:	00697062 	rsbeq	r7, r9, r2, rrx
     9f8:	6573552f 	ldrbvs	r5, [r3, #-1327]!	; 0x52f
     9fc:	622f7372 	eorvs	r7, pc, #-939524095	; 0xc8000001
     a00:	6e616972 	mcrvs	9, 3, r6, cr1, cr2, {3}
     a04:	2f6e756a 	svccs	0x006e756a
     a08:	6b736544 	blvs	1cd9f20 <__bss_end__+0x1ccf880>
     a0c:	2f706f74 	svccs	0x00706f74
     a10:	6f686373 	svcvs	0x00686373
     a14:	572f6c6f 	strpl	r6, [pc, -pc, ror #24]!
     a18:	65746e69 	ldrbvs	r6, [r4, #-3689]!	; 0xe69
     a1c:	32393172 	eorscc	r3, r9, #-2147483620	; 0x8000001c
     a20:	53432f30 	movtpl	r2, #16176	; 0x3f30
     a24:	45303431 	ldrmi	r3, [r0, #-1073]!	; 0x431
     a28:	3173632f 	cmncc	r3, pc, lsr #6
     a2c:	2d653034 	stclcs	0, cr3, [r5, #-208]!	; 0xffffff30
     a30:	69773032 	ldmdbvs	r7!, {r1, r4, r5, ip, sp}^
     a34:	696c2f6e 	stmdbvs	ip!, {r1, r2, r3, r5, r6, r8, r9, sl, fp, sp}^
     a38:	2f697062 	svccs	0x00697062
     a3c:	6362696c 	cmnvs	r2, #108, 18	; 0x1b0000
     a40:	77730000 	ldrbvc	r0, [r3, -r0]!
     a44:	7261752d 	rsbvc	r7, r1, #188743680	; 0xb400000
     a48:	00632e74 	rsbeq	r2, r3, r4, ror lr
     a4c:	63000001 	movwvs	r0, #1
     a50:	656c6379 	strbvs	r6, [ip, #-889]!	; 0x379
     a54:	6974752d 	ldmdbvs	r4!, {r0, r2, r3, r5, r8, sl, ip, sp, lr}^
     a58:	00682e6c 	rsbeq	r2, r8, ip, ror #28
     a5c:	73000002 	movwvc	r0, #2
     a60:	6e696474 	mcrvs	4, 3, r6, cr9, cr4, {3}
     a64:	63672d74 	cmnvs	r7, #116, 26	; 0x1d00
     a68:	00682e63 	rsbeq	r2, r8, r3, ror #28
     a6c:	73000003 	movwvc	r0, #3
     a70:	61752d77 	cmnvs	r5, r7, ror sp
     a74:	682e7472 	stmdavs	lr!, {r1, r4, r5, r6, sl, ip, sp, lr}
     a78:	00000200 	andeq	r0, r0, r0, lsl #4
     a7c:	61647473 	smcvs	18243	; 0x4743
     a80:	682e6772 	stmdavs	lr!, {r1, r4, r5, r6, r8, r9, sl, sp, lr}
     a84:	00000300 	andeq	r0, r0, r0, lsl #6
     a88:	6f697067 	svcvs	0x00697067
     a8c:	0200682e 	andeq	r6, r0, #3014656	; 0x2e0000
     a90:	70720000 	rsbsvc	r0, r2, r0
     a94:	00682e69 	rsbeq	r2, r8, r9, ror #28
     a98:	76000004 	strvc	r0, [r0], -r4
     a9c:	72702d61 	rsbsvc	r2, r0, #6208	; 0x1840
     aa0:	6b746e69 	blvs	1d1c44c <__bss_end__+0x1d11dac>
     aa4:	0500682e 	streq	r6, [r0, #-2094]	; 0x82e
     aa8:	623c0000 	eorsvs	r0, ip, #0
     aac:	746c6975 	strbtvc	r6, [ip], #-2421	; 0x975
     ab0:	3e6e692d 	cdpcc	9, 6, cr6, cr14, cr13, {1}
     ab4:	00000000 	andeq	r0, r0, r0
     ab8:	02050000 	andeq	r0, r5, #0
     abc:	00008c44 	andeq	r8, r0, r4, asr #24
     ac0:	302f4c1a 	eorcc	r4, pc, sl, lsl ip	; <UNPREDICTABLE>
     ac4:	0b030204 	bleq	c12dc <__bss_end__+0xb6c3c>
     ac8:	6673032e 	ldrbtvs	r0, [r3], -lr, lsr #6
     acc:	04880104 	streq	r0, [r8], #260	; 0x104
     ad0:	73033502 	movwvc	r3, #13570	; 0x3502
     ad4:	8a010466 	bhi	41c74 <__bss_end__+0x375d4>
     ad8:	03330204 	teqeq	r3, #4, 4	; 0x40000000
     adc:	01046673 	tsteq	r4, r3, ror r6
     ae0:	04820a03 	streq	r0, [r2], #2563	; 0xa03
     ae4:	73033102 	movwvc	r3, #12546	; 0x3102
     ae8:	03010466 	movweq	r0, #5222	; 0x1466
     aec:	0204820c 	andeq	r8, r4, #12, 4	; 0xc0000000
     af0:	6673032f 	ldrbtvs	r0, [r3], -pc, lsr #6
     af4:	0e030104 	adfeqs	f0, f3, f4
     af8:	2d020482 	cfstrscs	mvf0, [r2, #-520]	; 0xfffffdf8
     afc:	04667303 	strbteq	r7, [r6], #-771	; 0x303
     b00:	82100301 	andshi	r0, r0, #67108864	; 0x4000000
     b04:	032b0204 	teqeq	fp, #4, 4	; 0x40000000
     b08:	01046673 	tsteq	r4, r3, ror r6
     b0c:	04821203 	streq	r1, [r2], #515	; 0x203
     b10:	73032902 	movwvc	r2, #14594	; 0x3902
     b14:	03010466 	movweq	r0, #5222	; 0x1466
     b18:	02048214 	andeq	r8, r4, #20, 4	; 0x40000001
     b1c:	032e7903 	teqeq	lr, #49152	; 0xc000
     b20:	01046673 	tsteq	r4, r3, ror r6
     b24:	04821603 	streq	r1, [r2], #1539	; 0x603
     b28:	2e770302 	cdpcs	3, 7, cr0, cr7, cr2, {0}
     b2c:	04667303 	strbteq	r7, [r6], #-771	; 0x303
     b30:	82180301 	andshi	r0, r8, #67108864	; 0x4000000
     b34:	4b2e1003 	blmi	b84b48 <__bss_end__+0xb7a4a8>
     b38:	2e70034d 	cdpcs	3, 7, cr0, cr0, cr13, {2}
     b3c:	4883844c 	stmmi	r3, {r2, r3, r6, sl, pc}
     b40:	4e2e0d03 	cdpmi	13, 2, cr0, cr14, cr3, {0}
     b44:	02043331 	andeq	r3, r4, #-1006632960	; 0xc4000000
     b48:	042e4803 	strteq	r4, [lr], #-2051	; 0x803
     b4c:	823a0301 	eorshi	r0, sl, #67108864	; 0x4000000
     b50:	0302042f 	movweq	r0, #9263	; 0x242f
     b54:	01046645 	tsteq	r4, r5, asr #12
     b58:	2f823d03 	svccs	0x00823d03
     b5c:	42030204 	andmi	r0, r3, #4, 4	; 0x40000000
     b60:	03010482 	movweq	r0, #5250	; 0x1482
     b64:	2f8200c0 	svccs	0x008200c0
     b68:	bf030204 	svclt	0x00030204
     b6c:	0104827f 	tsteq	r4, pc, ror r2
     b70:	8200c303 	andhi	ip, r0, #201326592	; 0xc000000
     b74:	0302042f 	movweq	r0, #9263	; 0x242f
     b78:	04827fbc 	streq	r7, [r2], #4028	; 0xfbc
     b7c:	00c60301 	sbceq	r0, r6, r1, lsl #6
     b80:	02042f82 	andeq	r2, r4, #520	; 0x208
     b84:	827fb903 	rsbshi	fp, pc, #49152	; 0xc000
     b88:	c9030104 	stmdbgt	r3, {r2, r8}
     b8c:	042f8200 	strteq	r8, [pc], #-512	; b94 <_start-0x746c>
     b90:	7fb60302 	svcvc	0x00b60302
     b94:	03010482 	movweq	r0, #5250	; 0x1482
     b98:	2f8200cc 	svccs	0x008200cc
     b9c:	b3030204 	movwlt	r0, #12804	; 0x3204
     ba0:	0104827f 	tsteq	r4, pc, ror r2
     ba4:	8200d003 	andhi	sp, r0, #3
     ba8:	4c824c03 	stcmi	12, cr4, [r2], {3}
     bac:	03488384 	movteq	r8, #33668	; 0x8384
     bb0:	034e2e36 	movteq	r2, #60982	; 0xee36
     bb4:	29034a54 	stmdbcs	r3, {r2, r4, r6, r9, fp, lr}
     bb8:	bb34324a 	bllt	d0d4e8 <__bss_end__+0xd02e48>
     bbc:	01040200 	mrseq	r0, R12_usr
     bc0:	08064a06 	stmdaeq	r6, {r1, r2, r9, fp, lr}
     bc4:	bb4b4e21 	bllt	12d4450 <__bss_end__+0x12c9db0>
     bc8:	0402002c 	streq	r0, [r2], #-44	; 0x2c
     bcc:	062e0601 	strteq	r0, [lr], -r1, lsl #12
     bd0:	a0dc4c6d 	sbcsge	r4, ip, sp, ror #24
     bd4:	01040200 	mrseq	r0, R12_usr
     bd8:	08064a06 	stmdaeq	r6, {r1, r2, r9, fp, lr}
     bdc:	02004d21 	andeq	r4, r0, #2112	; 0x840
     be0:	004b0204 	subeq	r0, fp, r4, lsl #4
     be4:	81020402 	tsthi	r2, r2, lsl #8
     be8:	01040200 	mrseq	r0, R12_usr
     bec:	4d062e06 	stcmi	14, cr2, [r6, #-24]	; 0xffffffe8
     bf0:	4bd8dd4c 	blmi	ff638128 <__bss_end__+0xff62da88>
     bf4:	2f6a4b4b 	svccs	0x006a4b4b
     bf8:	01040200 	mrseq	r0, R12_usr
     bfc:	00828206 	addeq	r8, r2, r6, lsl #4
     c00:	9e040402 	cdpls	4, 0, cr0, cr4, cr2, {0}
     c04:	01040200 	mrseq	r0, R12_usr
     c08:	2308064a 	movwcs	r0, #34378	; 0x864a
     c0c:	4b2ff588 	blmi	bfe234 <__bss_end__+0xbf3b94>
     c10:	6740084b 	strbvs	r0, [r0, -fp, asr #16]
     c14:	02040200 	andeq	r0, r4, #0, 4
     c18:	0402002f 	streq	r0, [r2], #-47	; 0x2f
     c1c:	02004902 	andeq	r4, r0, #32768	; 0x8000
     c20:	2e060104 	adfcss	f0, f6, f4
     c24:	86346806 	ldrthi	r6, [r4], -r6, lsl #16
     c28:	0200a04b 	andeq	sl, r0, #75	; 0x4b
     c2c:	66060104 	strvs	r0, [r6], -r4, lsl #2
     c30:	68210806 	stmdavs	r1!, {r1, r2, fp}
     c34:	674b3e08 	strbvs	r3, [fp, -r8, lsl #28]
     c38:	0a02d84b 	beq	b6d6c <__bss_end__+0xac6cc>
     c3c:	01010100 	mrseq	r0, (UNDEF: 17)
     c40:	02000001 	andeq	r0, r0, #1
     c44:	0000ca00 	andeq	ip, r0, r0, lsl #20
     c48:	fb010200 	blx	41452 <__bss_end__+0x36db2>
     c4c:	01000d0e 	tsteq	r0, lr, lsl #26
     c50:	00010101 	andeq	r0, r1, r1, lsl #2
     c54:	00010000 	andeq	r0, r1, r0
     c58:	796d0100 	stmdbvc	sp!, {r8}^
     c5c:	6372732d 	cmnvs	r2, #-1275068416	; 0xb4000000
     c60:	73552f00 	cmpvc	r5, #0, 30
     c64:	2f737265 	svccs	0x00737265
     c68:	61697262 	cmnvs	r9, r2, ror #4
     c6c:	6e756a6e 	vsubvs.f32	s13, s10, s29
     c70:	7365442f 	cmnvc	r5, #788529152	; 0x2f000000
     c74:	706f746b 	rsbvc	r7, pc, fp, ror #8
     c78:	6863732f 	stmdavs	r3!, {r0, r1, r2, r3, r5, r8, r9, ip, sp, lr}^
     c7c:	2f6c6f6f 	svccs	0x006c6f6f
     c80:	746e6957 	strbtvc	r6, [lr], #-2391	; 0x957
     c84:	39317265 	ldmdbcc	r1!, {r0, r2, r5, r6, r9, ip, sp, lr}
     c88:	432f3032 	teqmi	pc, #50	; 0x32
     c8c:	30343153 	eorscc	r3, r4, r3, asr r1
     c90:	73632f45 	cmnvc	r3, #276	; 0x114
     c94:	65303431 	ldrvs	r3, [r0, #-1073]!	; 0x431
     c98:	7730322d 	ldrvc	r3, [r0, -sp, lsr #4]!
     c9c:	6c2f6e69 	stcvs	14, cr6, [pc], #-420	; b00 <_start-0x7500>
     ca0:	69706269 	ldmdbvs	r0!, {r0, r3, r5, r6, r9, sp, lr}^
     ca4:	3173632f 	cmncc	r3, pc, lsr #6
     ca8:	2d653034 	stclcs	0, cr3, [r5, #-208]!	; 0xffffff30
     cac:	00637273 	rsbeq	r7, r3, r3, ror r2
     cb0:	6573552f 	ldrbvs	r5, [r3, #-1327]!	; 0x52f
     cb4:	622f7372 	eorvs	r7, pc, #-939524095	; 0xc8000001
     cb8:	6e616972 	mcrvs	9, 3, r6, cr1, cr2, {3}
     cbc:	2f6e756a 	svccs	0x006e756a
     cc0:	6b736544 	blvs	1cda1d8 <__bss_end__+0x1ccfb38>
     cc4:	2f706f74 	svccs	0x00706f74
     cc8:	6f686373 	svcvs	0x00686373
     ccc:	572f6c6f 	strpl	r6, [pc, -pc, ror #24]!
     cd0:	65746e69 	ldrbvs	r6, [r4, #-3689]!	; 0xe69
     cd4:	32393172 	eorscc	r3, r9, #-2147483620	; 0x8000001c
     cd8:	53432f30 	movtpl	r2, #16176	; 0x3f30
     cdc:	45303431 	ldrmi	r3, [r0, #-1073]!	; 0x431
     ce0:	3173632f 	cmncc	r3, pc, lsr #6
     ce4:	2d653034 	stclcs	0, cr3, [r5, #-208]!	; 0xffffff30
     ce8:	69773032 	ldmdbvs	r7!, {r1, r4, r5, ip, sp}^
     cec:	696c2f6e 	stmdbvs	ip!, {r1, r2, r3, r5, r6, r8, r9, sl, fp, sp}^
     cf0:	00697062 	rsbeq	r7, r9, r2, rrx
     cf4:	72617500 	rsbvc	r7, r1, #0, 10
     cf8:	00632e74 	rsbeq	r2, r3, r4, ror lr
     cfc:	67000001 	strvs	r0, [r0, -r1]
     d00:	2e6f6970 	mcrcs	9, 3, r6, cr15, cr0, {3}
     d04:	00020068 	andeq	r0, r2, r8, rrx
     d08:	69707200 	ldmdbvs	r0!, {r9, ip, sp, lr}^
     d0c:	0300682e 	movweq	r6, #2094	; 0x82e
     d10:	00000000 	andeq	r0, r0, r0
     d14:	92ac0205 	adcls	r0, ip, #1342177280	; 0x50000000
     d18:	36030000 	strcc	r0, [r3], -r0
     d1c:	67333001 	ldrvs	r3, [r3, -r1]!
     d20:	30d8306d 	sbcscc	r3, r8, sp, rrx
     d24:	67676767 	strbvs	r6, [r7, -r7, ror #14]!
     d28:	2f866867 	svccs	0x00866867
     d2c:	67306a67 	ldrvs	r6, [r0, -r7, ror #20]!
     d30:	672f6967 	strvs	r6, [pc, -r7, ror #18]!
     d34:	c1674c6a 	cmngt	r7, sl, ror #24
     d38:	2f302f2f 	svccs	0x00302f2f
     d3c:	02304968 	eorseq	r4, r0, #104, 18	; 0x1a0000
     d40:	01010002 	tsteq	r1, r2
     d44:	00000178 	andeq	r0, r0, r8, ror r1
     d48:	00ca0002 	sbceq	r0, sl, r2
     d4c:	01020000 	mrseq	r0, (UNDEF: 2)
     d50:	000d0efb 	strdeq	r0, [sp], -fp
     d54:	01010101 	tsteq	r1, r1, lsl #2
     d58:	01000000 	mrseq	r0, (UNDEF: 0)
     d5c:	6d010000 	stcvs	0, cr0, [r1, #-0]
     d60:	72732d79 	rsbsvc	r2, r3, #7744	; 0x1e40
     d64:	552f0063 	strpl	r0, [pc, #-99]!	; d09 <_start-0x72f7>
     d68:	73726573 	cmnvc	r2, #482344960	; 0x1cc00000
     d6c:	6972622f 	ldmdbvs	r2!, {r0, r1, r2, r3, r5, r9, sp, lr}^
     d70:	756a6e61 	strbvc	r6, [sl, #-3681]!	; 0xe61
     d74:	65442f6e 	strbvs	r2, [r4, #-3950]	; 0xf6e
     d78:	6f746b73 	svcvs	0x00746b73
     d7c:	63732f70 	cmnvs	r3, #112, 30	; 0x1c0
     d80:	6c6f6f68 	stclvs	15, cr6, [pc], #-416	; be8 <_start-0x7418>
     d84:	6e69572f 	cdpvs	7, 6, cr5, cr9, cr15, {1}
     d88:	31726574 	cmncc	r2, r4, ror r5
     d8c:	2f303239 	svccs	0x00303239
     d90:	34315343 	ldrtcc	r5, [r1], #-835	; 0x343
     d94:	632f4530 	teqvs	pc, #48, 10	; 0xc000000
     d98:	30343173 	eorscc	r3, r4, r3, ror r1
     d9c:	30322d65 	eorscc	r2, r2, r5, ror #26
     da0:	2f6e6977 	svccs	0x006e6977
     da4:	7062696c 	rsbvc	r6, r2, ip, ror #18
     da8:	73632f69 	cmnvc	r3, #420	; 0x1a4
     dac:	65303431 	ldrvs	r3, [r0, #-1073]!	; 0x431
     db0:	6372732d 	cmnvs	r2, #-1275068416	; 0xb4000000
     db4:	73552f00 	cmpvc	r5, #0, 30
     db8:	2f737265 	svccs	0x00737265
     dbc:	61697262 	cmnvs	r9, r2, ror #4
     dc0:	6e756a6e 	vsubvs.f32	s13, s10, s29
     dc4:	7365442f 	cmnvc	r5, #788529152	; 0x2f000000
     dc8:	706f746b 	rsbvc	r7, pc, fp, ror #8
     dcc:	6863732f 	stmdavs	r3!, {r0, r1, r2, r3, r5, r8, r9, ip, sp, lr}^
     dd0:	2f6c6f6f 	svccs	0x006c6f6f
     dd4:	746e6957 	strbtvc	r6, [lr], #-2391	; 0x957
     dd8:	39317265 	ldmdbcc	r1!, {r0, r2, r5, r6, r9, ip, sp, lr}
     ddc:	432f3032 	teqmi	pc, #50	; 0x32
     de0:	30343153 	eorscc	r3, r4, r3, asr r1
     de4:	73632f45 	cmnvc	r3, #276	; 0x114
     de8:	65303431 	ldrvs	r3, [r0, #-1073]!	; 0x431
     dec:	7730322d 	ldrvc	r3, [r0, -sp, lsr #4]!
     df0:	6c2f6e69 	stcvs	14, cr6, [pc], #-420	; c54 <_start-0x73ac>
     df4:	69706269 	ldmdbvs	r0!, {r0, r3, r5, r6, r9, sp, lr}^
     df8:	70670000 	rsbvc	r0, r7, r0
     dfc:	632e6f69 	teqvs	lr, #420	; 0x1a4
     e00:	00000100 	andeq	r0, r0, r0, lsl #2
     e04:	6f697067 	svcvs	0x00697067
     e08:	0200682e 	andeq	r6, r0, #3014656	; 0x2e0000
     e0c:	70720000 	rsbsvc	r0, r2, r0
     e10:	00682e69 	rsbeq	r2, r8, r9, ror #28
     e14:	00000003 	andeq	r0, r0, r3
     e18:	64020500 	strvs	r0, [r2], #-1280	; 0x500
     e1c:	03000094 	movweq	r0, #148	; 0x94
     e20:	504e013e 	subpl	r0, lr, lr, lsr r1
     e24:	67210869 	strvs	r0, [r1, -r9, ror #16]!
     e28:	67676767 	strbvs	r6, [r7, -r7, ror #14]!
     e2c:	084b3267 	stmdaeq	fp, {r0, r1, r2, r5, r6, r9, ip, sp}^
     e30:	5131dc22 	teqpl	r1, r2, lsr #24
     e34:	30504e13 	subscc	r4, r0, r3, lsl lr
     e38:	135031be 	cmpne	r0, #-2147483601	; 0x8000002f
     e3c:	c0304f4d 	eorsgt	r4, r0, sp, asr #30
     e40:	0869504c 	stmdaeq	r9!, {r2, r3, r6, ip, lr}^
     e44:	67676721 	strbvs	r6, [r7, -r1, lsr #14]!
     e48:	32676767 	rsbcc	r6, r7, #27000832	; 0x19c0000
     e4c:	a421084b 	strtge	r0, [r1], #-2123	; 0x84b
     e50:	842f504c 	strthi	r5, [pc], #-76	; e58 <_start-0x71a8>
     e54:	82750369 	rsbshi	r0, r5, #-1543503871	; 0xa4000001
     e58:	4d2e0c03 	stcmi	12, cr0, [lr, #-12]!
     e5c:	4c4b4e30 	mcrrmi	14, 3, r4, fp, cr0
     e60:	696b6a4d 	stmdbvs	fp!, {r0, r2, r3, r6, r9, fp, sp, lr}^
     e64:	67672108 	strbvs	r2, [r7, -r8, lsl #2]!
     e68:	67676767 	strbvs	r6, [r7, -r7, ror #14]!
     e6c:	22084b32 	andcs	r4, r8, #51200	; 0xc800
     e70:	31ba1a03 			; <UNDEFINED> instruction: 0x31ba1a03
     e74:	522f4c9f 	eorpl	r4, pc, #40704	; 0x9f00
     e78:	4b2f4e4d 	blmi	bd47b4 <__bss_end__+0xbca114>
     e7c:	67684b67 	strbvs	r4, [r8, -r7, ror #22]!
     e80:	672f4c67 	strvs	r4, [pc, -r7, ror #24]!
     e84:	4c6e4b2f 	stclmi	11, cr4, [lr], #-188	; 0xffffff44
     e88:	674b2f4e 	strbvs	r2, [fp, -lr, asr #30]
     e8c:	6767684b 	strbvs	r6, [r7, -fp, asr #16]!
     e90:	2f672f4c 	svccs	0x00672f4c
     e94:	4e4b6d4b 	cdpmi	13, 4, cr6, cr11, cr11, {2}
     e98:	00674b2f 	rsbeq	r4, r7, pc, lsr #22
     e9c:	06010402 	streq	r0, [r1], -r2, lsl #8
     ea0:	9f680666 	svcls	0x00680666
     ea4:	0402002f 	streq	r0, [r2], #-47	; 0x2f
     ea8:	064a0601 	strbeq	r0, [sl], -r1, lsl #12
     eac:	73032f68 	movwvc	r2, #16232	; 0x3f68
     eb0:	2e0e034a 	cdpcs	3, 0, cr0, cr14, cr10, {2}
     eb4:	2f4e4c4d 	svccs	0x004e4c4d
     eb8:	02bcbc4b 	adcseq	fp, ip, #19200	; 0x4b00
     ebc:	01010006 	tsteq	r1, r6
     ec0:	00000128 	andeq	r0, r0, r8, lsr #2
     ec4:	010d0002 	tsteq	sp, r2
     ec8:	01020000 	mrseq	r0, (UNDEF: 2)
     ecc:	000d0efb 	strdeq	r0, [sp], -fp
     ed0:	01010101 	tsteq	r1, r1, lsl #2
     ed4:	01000000 	mrseq	r0, (UNDEF: 0)
     ed8:	63010000 	movwvs	r0, #4096	; 0x1000
     edc:	30343173 	eorscc	r3, r4, r3, ror r1
     ee0:	72732d65 	rsbsvc	r2, r3, #6464	; 0x1940
     ee4:	752f0063 	strvc	r0, [pc, #-99]!	; e89 <_start-0x7177>
     ee8:	6c2f7273 	sfmvs	f7, 4, [pc], #-460	; d24 <_start-0x72dc>
     eec:	6c61636f 	stclvs	3, cr6, [r1], #-444	; 0xfffffe44
     ef0:	6c65432f 	stclvs	3, cr4, [r5], #-188	; 0xffffff44
     ef4:	2f72616c 	svccs	0x0072616c
     ef8:	2d6d7261 	sfmcs	f7, 2, [sp, #-388]!	; 0xfffffe7c
     efc:	656e6f6e 	strbvs	r6, [lr, #-3950]!	; 0xf6e
     f00:	6261652d 	rsbvs	r6, r1, #188743680	; 0xb400000
     f04:	2e342f69 	cdpcs	15, 3, cr2, cr4, cr9, {3}
     f08:	2d332e38 	ldccs	14, cr2, [r3, #-224]!	; 0xffffff20
     f0c:	37317363 	ldrcc	r7, [r1, -r3, ror #6]!
     f10:	6c2f6530 	cfstr32vs	mvfx6, [pc], #-192	; e58 <_start-0x71a8>
     f14:	672f6269 	strvs	r6, [pc, -r9, ror #4]!
     f18:	612f6363 	teqvs	pc, r3, ror #6
     f1c:	6e2d6d72 	mcrvs	13, 1, r6, cr13, cr2, {3}
     f20:	2d656e6f 	stclcs	14, cr6, [r5, #-444]!	; 0xfffffe44
     f24:	69626165 	stmdbvs	r2!, {r0, r2, r5, r6, r8, sp, lr}^
     f28:	382e342f 	stmdacc	lr!, {r0, r1, r2, r3, r5, sl, ip, sp}
     f2c:	692f332e 	stmdbvs	pc!, {r1, r2, r3, r5, r8, r9, ip, sp}	; <UNPREDICTABLE>
     f30:	756c636e 	strbvc	r6, [ip, #-878]!	; 0x36e
     f34:	2f006564 	svccs	0x00006564
     f38:	2f727375 	svccs	0x00727375
     f3c:	61636f6c 	cmnvs	r3, ip, ror #30
     f40:	65432f6c 	strbvs	r2, [r3, #-3948]	; 0xf6c
     f44:	72616c6c 	rsbvc	r6, r1, #108, 24	; 0x6c00
     f48:	6d72612f 	ldfvse	f6, [r2, #-188]!	; 0xffffff44
     f4c:	6e6f6e2d 	cdpvs	14, 6, cr6, cr15, cr13, {1}
     f50:	61652d65 	cmnvs	r5, r5, ror #26
     f54:	342f6962 	strtcc	r6, [pc], #-2402	; f5c <_start-0x70a4>
     f58:	332e382e 	teqcc	lr, #3014656	; 0x2e0000
     f5c:	3173632d 	cmncc	r3, sp, lsr #6
     f60:	2f653037 	svccs	0x00653037
     f64:	2d6d7261 	sfmcs	f7, 2, [sp, #-388]!	; 0xfffffe7c
     f68:	656e6f6e 	strbvs	r6, [lr, #-3950]!	; 0xf6e
     f6c:	6261652d 	rsbvs	r6, r1, #188743680	; 0xb400000
     f70:	6e692f69 	cdpvs	15, 6, cr2, cr9, cr9, {3}
     f74:	64756c63 	ldrbtvs	r6, [r5], #-3171	; 0xc63
     f78:	63000065 	movwvs	r0, #101	; 0x65
     f7c:	72746e6f 	rsbsvc	r6, r4, #1776	; 0x6f0
     f80:	622d6c6f 	eorvs	r6, sp, #28416	; 0x6f00
     f84:	6b636f6c 	blvs	18dcd3c <__bss_end__+0x18d269c>
     f88:	0100632e 	tsteq	r0, lr, lsr #6
     f8c:	74730000 	ldrbtvc	r0, [r3], #-0
     f90:	66656464 	strbtvs	r6, [r5], -r4, ror #8
     f94:	0200682e 	andeq	r6, r0, #3014656	; 0x2e0000
     f98:	74730000 	ldrbtvc	r0, [r3], #-0
     f9c:	746e6964 	strbtvc	r6, [lr], #-2404	; 0x964
     fa0:	6363672d 	cmnvs	r3, #11796480	; 0xb40000
     fa4:	0200682e 	andeq	r6, r0, #3014656	; 0x2e0000
     fa8:	77730000 	ldrbvc	r0, [r3, -r0]!
     fac:	7261752d 	rsbvc	r7, r1, #188743680	; 0xb400000
     fb0:	00682e74 	rsbeq	r2, r8, r4, ror lr
     fb4:	63000001 	movwvs	r0, #1
     fb8:	72746e6f 	rsbsvc	r6, r4, #1776	; 0x6f0
     fbc:	622d6c6f 	eorvs	r6, sp, #28416	; 0x6f00
     fc0:	6b636f6c 	blvs	18dcd78 <__bss_end__+0x18d26d8>
     fc4:	0100682e 	tsteq	r0, lr, lsr #16
     fc8:	74730000 	ldrbtvc	r0, [r3], #-0
     fcc:	676e6972 			; <UNDEFINED> instruction: 0x676e6972
     fd0:	0300682e 	movweq	r6, #2094	; 0x82e
     fd4:	00000000 	andeq	r0, r0, r0
     fd8:	99cc0205 	stmibls	ip, {r0, r2, r9}^
     fdc:	30160000 	andscc	r0, r6, r0
     fe0:	144c6883 	strbne	r6, [ip], #-2179	; 0x883
     fe4:	022f4b9f 	eoreq	r4, pc, #162816	; 0x27c00
     fe8:	01010004 	tsteq	r1, r4
     fec:	000000ec 	andeq	r0, r0, ip, ror #1
     ff0:	00d00002 	sbcseq	r0, r0, r2
     ff4:	01020000 	mrseq	r0, (UNDEF: 2)
     ff8:	000d0efb 	strdeq	r0, [sp], -fp
     ffc:	01010101 	tsteq	r1, r1, lsl #2
    1000:	01000000 	mrseq	r0, (UNDEF: 0)
    1004:	6c010000 	stcvs	0, cr0, [r1], {-0}
    1008:	00636269 	rsbeq	r6, r3, r9, ror #4
    100c:	7273752f 	rsbsvc	r7, r3, #197132288	; 0xbc00000
    1010:	636f6c2f 	cmnvs	pc, #12032	; 0x2f00
    1014:	432f6c61 	teqmi	pc, #24832	; 0x6100
    1018:	616c6c65 	cmnvs	ip, r5, ror #24
    101c:	72612f72 	rsbvc	r2, r1, #456	; 0x1c8
    1020:	6f6e2d6d 	svcvs	0x006e2d6d
    1024:	652d656e 	strvs	r6, [sp, #-1390]!	; 0x56e
    1028:	2f696261 	svccs	0x00696261
    102c:	2e382e34 	mrccs	14, 1, r2, cr8, cr4, {1}
    1030:	73632d33 	cmnvc	r3, #3264	; 0xcc0
    1034:	65303731 	ldrvs	r3, [r0, #-1841]!	; 0x731
    1038:	62696c2f 	rsbvs	r6, r9, #12032	; 0x2f00
    103c:	6363672f 	cmnvs	r3, #12320768	; 0xbc0000
    1040:	6d72612f 	ldfvse	f6, [r2, #-188]!	; 0xffffff44
    1044:	6e6f6e2d 	cdpvs	14, 6, cr6, cr15, cr13, {1}
    1048:	61652d65 	cmnvs	r5, r5, ror #26
    104c:	342f6962 	strtcc	r6, [pc], #-2402	; 1054 <_start-0x6fac>
    1050:	332e382e 	teqcc	lr, #3014656	; 0x2e0000
    1054:	636e692f 	cmnvs	lr, #770048	; 0xbc000
    1058:	6564756c 	strbvs	r7, [r4, #-1388]!	; 0x56c
    105c:	73752f00 	cmnvc	r5, #0, 30
    1060:	6f6c2f72 	svcvs	0x006c2f72
    1064:	2f6c6163 	svccs	0x006c6163
    1068:	6c6c6543 	cfstr64vs	mvdx6, [ip], #-268	; 0xfffffef4
    106c:	612f7261 	teqvs	pc, r1, ror #4
    1070:	6e2d6d72 	mcrvs	13, 1, r6, cr13, cr2, {3}
    1074:	2d656e6f 	stclcs	14, cr6, [r5, #-444]!	; 0xfffffe44
    1078:	69626165 	stmdbvs	r2!, {r0, r2, r5, r6, r8, sp, lr}^
    107c:	382e342f 	stmdacc	lr!, {r0, r1, r2, r3, r5, sl, ip, sp}
    1080:	632d332e 	teqvs	sp, #-1207959552	; 0xb8000000
    1084:	30373173 	eorscc	r3, r7, r3, ror r1
    1088:	72612f65 	rsbvc	r2, r1, #404	; 0x194
    108c:	6f6e2d6d 	svcvs	0x006e2d6d
    1090:	652d656e 	strvs	r6, [sp, #-1390]!	; 0x56e
    1094:	2f696261 	svccs	0x00696261
    1098:	6c636e69 	stclvs	14, cr6, [r3], #-420	; 0xfffffe5c
    109c:	00656475 	rsbeq	r6, r5, r5, ror r4
    10a0:	6d656d00 	stclvs	13, cr6, [r5, #-0]
    10a4:	2e746573 	mrccs	5, 3, r6, cr4, cr3, {3}
    10a8:	00010063 	andeq	r0, r1, r3, rrx
    10ac:	64747300 	ldrbtvs	r7, [r4], #-768	; 0x300
    10b0:	2e666564 	cdpcs	5, 6, cr6, cr6, cr4, {3}
    10b4:	00020068 	andeq	r0, r2, r8, rrx
    10b8:	72747300 	rsbsvc	r7, r4, #0, 6
    10bc:	2e676e69 	cdpcs	14, 6, cr6, cr7, cr9, {3}
    10c0:	00030068 	andeq	r0, r3, r8, rrx
    10c4:	05000000 	streq	r0, [r0, #-0]
    10c8:	009a1c02 	addseq	r1, sl, r2, lsl #24
    10cc:	4c131400 	cfldrsmi	mvf1, [r3], {-0}
    10d0:	0402002f 	streq	r0, [r2], #-47	; 0x2f
    10d4:	024d4901 	subeq	r4, sp, #16384	; 0x4000
    10d8:	01010002 	tsteq	r1, r2

Disassembly of section .debug_str:

00000000 <.debug_str>:
   0:	5f6d7261 	svcpl	0x006d7261
   4:	5f627372 	svcpl	0x00627372
   8:	6e00706f 	cdpvs	0, 0, cr7, cr0, cr15, {3}
   c:	616d746f 	cmnvs	sp, pc, ror #8
  10:	61006e69 	tstvs	r0, r9, ror #28
  14:	485f6d72 	ldmdami	pc, {r1, r4, r5, r6, r8, sl, fp, sp, lr}^	; <UNPREDICTABLE>
  18:	6e690049 	cdpvs	0, 6, cr0, cr9, cr9, {2}
  1c:	6f632d74 	svcvs	0x00632d74
  20:	6c69706d 	stclvs	0, cr7, [r9], #-436	; 0xfffffe4c
  24:	00632e65 	rsbeq	r2, r3, r5, ror #28
  28:	676e6f6c 	strbvs	r6, [lr, -ip, ror #30]!
  2c:	6e6f6c20 	cdpvs	12, 6, cr6, cr15, cr0, {1}
  30:	6e752067 	cdpvs	0, 7, cr2, cr5, cr7, {3}
  34:	6e676973 	mcrvs	9, 3, r6, cr7, cr3, {3}
  38:	69206465 	stmdbvs	r0!, {r0, r2, r5, r6, sl, sp, lr}
  3c:	6100746e 	tstvs	r0, lr, ror #8
  40:	6d5f6d72 	ldclvs	13, cr6, [pc, #-456]	; fffffe80 <__bss_end__+0xffff57e0>
  44:	6f5f766f 	svcvs	0x005f766f
  48:	72610070 	rsbvc	r0, r1, #112	; 0x70
  4c:	4c505f6d 	mrrcmi	15, 6, r5, r0, cr13
  50:	6e6f6c00 	cdpvs	12, 6, cr6, cr15, cr0, {0}
  54:	6f6c2067 	svcvs	0x006c2067
  58:	6920676e 	stmdbvs	r0!, {r1, r2, r3, r5, r6, r8, r9, sl, sp, lr}
  5c:	6100746e 	tstvs	r0, lr, ror #8
  60:	415f6d72 	cmpmi	pc, r2, ror sp	; <UNPREDICTABLE>
  64:	7261004c 	rsbvc	r0, r1, #76	; 0x4c
  68:	69625f6d 	stmdbvs	r2!, {r0, r2, r3, r5, r6, r8, r9, sl, fp, ip, lr}^
  6c:	706f5f63 	rsbvc	r5, pc, r3, ror #30
  70:	646f6300 	strbtvs	r6, [pc], #-768	; 78 <_start-0x7f88>
  74:	6e690065 	cdpvs	0, 6, cr0, cr9, cr5, {3}
  78:	61007473 	tstvs	r0, r3, ror r4
  7c:	6c5f6d72 	mrrcvs	13, 7, r6, pc, cr2	; <UNPREDICTABLE>
  80:	775f7264 	ldrbvc	r7, [pc, -r4, ror #4]
  84:	5f64726f 	svcpl	0x0064726f
  88:	006d6d69 	rsbeq	r6, sp, r9, ror #26
  8c:	74756f5f 	ldrbtvc	r6, [r5], #-3935	; 0xf5f
  90:	6d726100 	ldfvse	f6, [r2, #-0]
  94:	7473745f 	ldrbtvc	r7, [r3], #-1119	; 0x45f
  98:	00706f5f 	rsbseq	r6, r0, pc, asr pc
  9c:	5f6d7261 	svcpl	0x006d7261
  a0:	00303172 	eorseq	r3, r0, r2, ror r1
  a4:	5f6d7261 	svcpl	0x006d7261
  a8:	00313172 	eorseq	r3, r1, r2, ror r1
  ac:	5f6d7261 	svcpl	0x006d7261
  b0:	00323172 	eorseq	r3, r2, r2, ror r1
  b4:	5f6d7261 	svcpl	0x006d7261
  b8:	00333172 	eorseq	r3, r3, r2, ror r1
  bc:	5f6d7261 	svcpl	0x006d7261
  c0:	00343172 	eorseq	r3, r4, r2, ror r1
  c4:	55465f5f 	strbpl	r5, [r6, #-3935]	; 0xf5f
  c8:	4954434e 	ldmdbmi	r4, {r1, r2, r3, r6, r8, r9, lr}^
  cc:	5f5f4e4f 	svcpl	0x005f4e4f
  d0:	6d726100 	ldfvse	f6, [r2, #-0]
  d4:	6362735f 	cmnvs	r2, #2080374785	; 0x7c000001
  d8:	00706f5f 	rsbseq	r6, r0, pc, asr pc
  dc:	656e6567 	strbvs	r6, [lr, #-1383]!	; 0x567
  e0:	5f636972 	svcpl	0x00636972
  e4:	6c6c6163 	stfvse	f6, [ip], #-396	; 0xfffffe74
  e8:	746e695f 	strbtvc	r6, [lr], #-2399	; 0x95f
  ec:	6f687300 	svcvs	0x00687300
  f0:	75207472 	strvc	r7, [r0, #-1138]!	; 0x472
  f4:	6769736e 	strbvs	r7, [r9, -lr, ror #6]!
  f8:	2064656e 	rsbcs	r6, r4, lr, ror #10
  fc:	00746e69 	rsbseq	r6, r4, r9, ror #28
 100:	5f746e69 	svcpl	0x00746e69
 104:	706d6f63 	rsbvc	r6, sp, r3, ror #30
 108:	00656c69 	rsbeq	r6, r5, r9, ror #24
 10c:	5f6d7261 	svcpl	0x006d7261
 110:	5f706d63 	svcpl	0x00706d63
 114:	6100706f 	tstvs	r0, pc, rrx
 118:	705f6d72 	subsvc	r6, pc, r2, ror sp	; <UNPREDICTABLE>
 11c:	72610063 	rsbvc	r0, r1, #99	; 0x63
 120:	766d5f6d 	strbtvc	r5, [sp], -sp, ror #30
 124:	706f5f6e 	rsbvc	r5, pc, lr, ror #30
 128:	6d726100 	ldfvse	f6, [r2, #-0]
 12c:	0043435f 	subeq	r4, r3, pc, asr r3
 130:	326d6d69 	rsbcc	r6, sp, #6720	; 0x1a40
 134:	72610034 	rsbvc	r0, r1, #52	; 0x34
 138:	75735f6d 	ldrbvc	r5, [r3, #-3949]!	; 0xf6d
 13c:	706f5f62 	rsbvc	r5, pc, r2, ror #30
 140:	6d726100 	ldfvse	f6, [r2, #-0]
 144:	0053435f 	subseq	r4, r3, pc, asr r3
 148:	5f6d7261 	svcpl	0x006d7261
 14c:	63003362 	movwvs	r3, #866	; 0x362
 150:	6e61656c 	cdpvs	5, 6, cr6, cr1, cr12, {3}
 154:	6265725f 	rsbvs	r7, r5, #-268435451	; 0xf0000005
 158:	00746f6f 	rsbseq	r6, r4, pc, ror #30
 15c:	657a6973 	ldrbvs	r6, [sl, #-2419]!	; 0x973
 160:	65707974 	ldrbvs	r7, [r0, #-2420]!	; 0x974
 164:	6d726100 	ldfvse	f6, [r2, #-0]
 168:	6464615f 	strbtvs	r6, [r4], #-351	; 0x15f
 16c:	00706f5f 	rsbseq	r6, r0, pc, asr pc
 170:	76746e69 	ldrbtvc	r6, [r4], -r9, ror #28
 174:	6d726100 	ldfvse	f6, [r2, #-0]
 178:	0030725f 	eorseq	r7, r0, pc, asr r2
 17c:	5f6d7261 	svcpl	0x006d7261
 180:	61003172 	tstvs	r0, r2, ror r1
 184:	725f6d72 	subsvc	r6, pc, #7296	; 0x1c80
 188:	72610032 	rsbvc	r0, r1, #50	; 0x32
 18c:	33725f6d 	cmncc	r2, #436	; 0x1b4
 190:	6d726100 	ldfvse	f6, [r2, #-0]
 194:	0034725f 	eorseq	r7, r4, pc, asr r2
 198:	5f6d7261 	svcpl	0x006d7261
 19c:	61003572 	tstvs	r0, r2, ror r5
 1a0:	725f6d72 	subsvc	r6, pc, #7296	; 0x1c80
 1a4:	72610036 	rsbvc	r0, r1, #54	; 0x36
 1a8:	37725f6d 	ldrbcc	r5, [r2, -sp, ror #30]!
 1ac:	6d726100 	ldfvse	f6, [r2, #-0]
 1b0:	0038725f 	eorseq	r7, r8, pc, asr r2
 1b4:	5f6d7261 	svcpl	0x006d7261
 1b8:	61003972 	tstvs	r0, r2, ror r9
 1bc:	4c5f6d72 	mrrcmi	13, 7, r6, pc, cr2	; <UNPREDICTABLE>
 1c0:	65640045 	strbvs	r0, [r4, #-69]!	; 0x45
 1c4:	61007473 	tstvs	r0, r3, ror r4
 1c8:	635f6d72 	cmpvs	pc, #7296	; 0x1c80
 1cc:	6f5f6e6d 	svcvs	0x005f6e6d
 1d0:	72610070 	rsbvc	r0, r1, #112	; 0x70
 1d4:	64615f6d 	strbtvs	r5, [r1], #-3949	; 0xf6d
 1d8:	706f5f63 	rsbvc	r5, pc, r3, ror #30
 1dc:	6d726100 	ldfvse	f6, [r2, #-0]
 1e0:	00534c5f 	subseq	r4, r3, pc, asr ip
 1e4:	5f6d7261 	svcpl	0x006d7261
 1e8:	7500544c 	strvc	r5, [r0, #-1100]	; 0x44c
 1ec:	6769736e 	strbvs	r7, [r9, -lr, ror #6]!
 1f0:	2064656e 	rsbcs	r6, r4, lr, ror #10
 1f4:	72616863 	rsbvc	r6, r1, #6488064	; 0x630000
 1f8:	6f687300 	svcvs	0x00687300
 1fc:	69207472 	stmdbvs	r0!, {r1, r4, r5, r6, sl, ip, sp, lr}
 200:	6100746e 	tstvs	r0, lr, ror #8
 204:	655f6d72 	ldrbvs	r6, [pc, #-3442]	; fffff49a <__bss_end__+0xffff4dfa>
 208:	6f5f726f 	svcvs	0x005f726f
 20c:	70720070 	rsbsvc	r0, r2, r0, ror r0
 210:	65725f69 	ldrbvs	r5, [r2, #-3945]!	; 0xf69
 214:	5f746573 	svcpl	0x00746573
 218:	63747570 	cmnvs	r4, #112, 10	; 0x1c000000
 21c:	6d726100 	ldfvse	f6, [r2, #-0]
 220:	0051455f 	subseq	r4, r1, pc, asr r5
 224:	5f746e69 	svcpl	0x00746e69
 228:	75007066 	strvc	r7, [r0, #-102]	; 0x66
 22c:	33746e69 	cmncc	r4, #1680	; 0x690
 230:	00745f32 	rsbseq	r5, r4, r2, lsr pc
 234:	5f6d7261 	svcpl	0x006d7261
 238:	4700494d 	strmi	r4, [r0, -sp, asr #18]
 23c:	4320554e 	teqmi	r0, #327155712	; 0x13800000
 240:	382e3420 	stmdacc	lr!, {r5, sl, ip, sp}
 244:	2d20332e 	stccs	3, cr3, [r0, #-184]!	; 0xffffff48
 248:	7570636d 	ldrbvc	r6, [r0, #-877]!	; 0x36d
 24c:	6d72613d 	ldfvse	f6, [r2, #-244]!	; 0xffffff0c
 250:	36373131 			; <UNDEFINED> instruction: 0x36373131
 254:	2d667a6a 	vstmdbcs	r6!, {s15-s120}
 258:	6d2d2073 	stcvs	0, cr2, [sp, #-460]!	; 0xfffffe34
 25c:	656e7574 	strbvs	r7, [lr, #-1396]!	; 0x574
 260:	6d72613d 	ldfvse	f6, [r2, #-244]!	; 0xffffff0c
 264:	36373131 			; <UNDEFINED> instruction: 0x36373131
 268:	2d667a6a 	vstmdbcs	r6!, {s15-s120}
 26c:	672d2073 			; <UNDEFINED> instruction: 0x672d2073
 270:	20626467 	rsbcs	r6, r2, r7, ror #8
 274:	20674f2d 	rsbcs	r4, r7, sp, lsr #30
 278:	6474732d 	ldrbtvs	r7, [r4], #-813	; 0x32d
 27c:	756e673d 	strbvc	r6, [lr, #-1853]!	; 0x73d
 280:	2d203939 	stccs	9, cr3, [r0, #-228]!	; 0xffffff1c
 284:	65726666 	ldrbvs	r6, [r2, #-1638]!	; 0x666
 288:	61747365 	cmnvs	r4, r5, ror #6
 28c:	6e69646e 	cdpvs	4, 6, cr6, cr9, cr14, {3}
 290:	70730067 	rsbsvc	r0, r3, r7, rrx
 294:	61696365 	cmnvs	r9, r5, ror #6
 298:	657a696c 	ldrbvs	r6, [sl, #-2412]!	; 0x96c
 29c:	61635f64 	cmnvs	r3, r4, ror #30
 2a0:	695f6c6c 	ldmdbvs	pc, {r2, r3, r5, r6, sl, fp, sp, lr}^	; <UNPREDICTABLE>
 2a4:	6100746e 	tstvs	r0, lr, ror #8
 2a8:	615f6d72 	cmpvs	pc, r2, ror sp	; <UNPREDICTABLE>
 2ac:	6f5f646e 	svcvs	0x005f646e
 2b0:	666f0070 			; <UNDEFINED> instruction: 0x666f0070
 2b4:	74657366 	strbtvc	r7, [r5], #-870	; 0x366
 2b8:	6d726100 	ldfvse	f6, [r2, #-0]
 2bc:	0070735f 	rsbseq	r7, r0, pc, asr r3
 2c0:	7366666f 	cmnvc	r6, #116391936	; 0x6f00000
 2c4:	315f7465 	cmpcc	pc, r5, ror #8
 2c8:	72610032 	rsbvc	r0, r1, #50	; 0x32
 2cc:	65745f6d 	ldrbvs	r5, [r4, #-3949]!	; 0xf6d
 2d0:	706f5f71 	rsbvc	r5, pc, r1, ror pc	; <UNPREDICTABLE>
 2d4:	746e6900 	strbtvc	r6, [lr], #-2304	; 0x900
 2d8:	2f00335f 	svccs	0x0000335f
 2dc:	72657355 	rsbvc	r7, r5, #1409286145	; 0x54000001
 2e0:	72622f73 	rsbvc	r2, r2, #460	; 0x1cc
 2e4:	6a6e6169 	bvs	1b98890 <__bss_end__+0x1b8e1f0>
 2e8:	442f6e75 	strtmi	r6, [pc], #-3701	; 2f0 <_start-0x7d10>
 2ec:	746b7365 	strbtvc	r7, [fp], #-869	; 0x365
 2f0:	732f706f 	teqvc	pc, #111	; 0x6f
 2f4:	6f6f6863 	svcvs	0x006f6863
 2f8:	70532f6c 	subsvc	r2, r3, ip, ror #30
 2fc:	676e6972 			; <UNDEFINED> instruction: 0x676e6972
 300:	30323931 	eorscc	r3, r2, r1, lsr r9
 304:	3253432f 	subscc	r4, r3, #-1140850688	; 0xbc000000
 308:	584c3034 	stmdapl	ip, {r2, r4, r5, ip, sp}^
 30c:	3273632f 	rsbscc	r6, r3, #-1140850688	; 0xbc000000
 310:	786c3034 	stmdavc	ip!, {r2, r4, r5, ip, sp}^
 314:	7330322d 	teqvc	r0, #-805306366	; 0xd0000002
 318:	6c2f7270 	sfmvs	f7, 4, [pc], #-448	; 160 <_start-0x7ea0>
 31c:	2f736261 	svccs	0x00736261
 320:	79642d32 	stmdbvc	r4!, {r1, r4, r5, r8, sl, fp, sp}^
 324:	696d616e 	stmdbvs	sp!, {r1, r2, r3, r5, r6, r8, sp, lr}^
 328:	6f632d63 	svcvs	0x00632d63
 32c:	672d6564 	strvs	r6, [sp, -r4, ror #10]!
 330:	632f6e65 	teqvs	pc, #1616	; 0x650
 334:	2f65646f 	svccs	0x0065646f
 338:	6e692d32 	mcrvs	13, 3, r2, cr9, cr2, {1}
 33c:	6f632d74 	svcvs	0x00632d74
 340:	6c69706d 	stclvs	0, cr7, [r9], #-436	; 0xfffffe4c
 344:	69007265 	stmdbvs	r0, {r0, r2, r5, r6, r9, ip, sp, lr}
 348:	375f746e 	ldrbcc	r7, [pc, -lr, ror #8]
 34c:	6d726100 	ldfvse	f6, [r2, #-0]
 350:	00454e5f 	subeq	r4, r5, pc, asr lr
 354:	746e6975 	strbtvc	r6, [lr], #-2421	; 0x975
 358:	00745f38 	rsbseq	r5, r4, r8, lsr pc
 35c:	5f6d7261 	svcpl	0x006d7261
 360:	6100726c 	tstvs	r0, ip, ror #4
 364:	565f6d72 			; <UNDEFINED> instruction: 0x565f6d72
 368:	72610043 	rsbvc	r0, r1, #67	; 0x43
 36c:	73725f6d 	cmnvc	r2, #436	; 0x1b4
 370:	706f5f63 	rsbvc	r5, pc, r3, ror #30
 374:	6d726100 	ldfvse	f6, [r2, #-0]
 378:	0045475f 	subeq	r4, r5, pc, asr r7
 37c:	5f6d7261 	svcpl	0x006d7261
 380:	69005356 	stmdbvs	r0, {r1, r2, r4, r6, r8, r9, ip, lr}
 384:	305f746e 	subscc	r7, pc, lr, ror #8
 388:	746e6900 	strbtvc	r6, [lr], #-2304	; 0x900
 38c:	6900315f 	stmdbvs	r0, {r0, r1, r2, r3, r4, r6, r8, ip, sp}
 390:	325f746e 	subscc	r7, pc, #1845493760	; 0x6e000000
 394:	6d726100 	ldfvse	f6, [r2, #-0]
 398:	706f705f 	rsbvc	r7, pc, pc, asr r0	; <UNPREDICTABLE>
 39c:	746e6900 	strbtvc	r6, [lr], #-2304	; 0x900
 3a0:	6900345f 	stmdbvs	r0, {r0, r1, r2, r3, r4, r6, sl, ip, sp}
 3a4:	355f746e 	ldrbcc	r7, [pc, #-1134]	; ffffff3e <__bss_end__+0xffff589e>
 3a8:	746e6900 	strbtvc	r6, [lr], #-2304	; 0x900
 3ac:	6100365f 	tstvs	r0, pc, asr r6
 3b0:	475f6d72 			; <UNDEFINED> instruction: 0x475f6d72
 3b4:	72610054 	rsbvc	r0, r1, #84	; 0x54
 3b8:	75705f6d 	ldrbvc	r5, [r0, #-3949]!	; 0xf6d
 3bc:	61006873 	tstvs	r0, r3, ror r8
 3c0:	725f6d72 	subsvc	r6, pc, #7296	; 0x1c80
 3c4:	61003531 	tstvs	r0, r1, lsr r5
 3c8:	6f5f6d72 	svcvs	0x005f6d72
 3cc:	6f5f7272 	svcvs	0x005f7272
 3d0:	5f5f0070 	svcpl	0x005f0070
 3d4:	63756e67 	cmnvs	r5, #1648	; 0x670
 3d8:	5f61765f 	svcpl	0x0061765f
 3dc:	7473696c 	ldrbtvc	r6, [r3], #-2412	; 0x96c
 3e0:	62696c00 	rsbvs	r6, r9, #0, 24
 3e4:	72702f63 	rsbsvc	r2, r0, #396	; 0x18c
 3e8:	6b746e69 	blvs	1d1bd94 <__bss_end__+0x1d116f4>
 3ec:	7600632e 	strvc	r6, [r0], -lr, lsr #6
 3f0:	72705f61 	rsbsvc	r5, r0, #388	; 0x184
 3f4:	6b746e69 	blvs	1d1bda0 <__bss_end__+0x1d11700>
 3f8:	765f5f00 	ldrbvc	r5, [pc], -r0, lsl #30
 3fc:	696c5f61 	stmdbvs	ip!, {r0, r5, r6, r8, r9, sl, fp, ip, lr}^
 400:	2f007473 	svccs	0x00007473
 404:	72657355 	rsbvc	r7, r5, #1409286145	; 0x54000001
 408:	72622f73 	rsbvc	r2, r2, #460	; 0x1cc
 40c:	6a6e6169 	bvs	1b989b8 <__bss_end__+0x1b8e318>
 410:	442f6e75 	strtmi	r6, [pc], #-3701	; 418 <_start-0x7be8>
 414:	746b7365 	strbtvc	r7, [fp], #-869	; 0x365
 418:	732f706f 	teqvc	pc, #111	; 0x6f
 41c:	6f6f6863 	svcvs	0x006f6863
 420:	69572f6c 	ldmdbvs	r7, {r2, r3, r5, r6, r8, r9, sl, fp, sp}^
 424:	7265746e 	rsbvc	r7, r5, #1845493760	; 0x6e000000
 428:	30323931 	eorscc	r3, r2, r1, lsr r9
 42c:	3153432f 	cmpcc	r3, pc, lsr #6
 430:	2f453034 	svccs	0x00453034
 434:	34317363 	ldrtcc	r7, [r1], #-867	; 0x363
 438:	322d6530 	eorcc	r6, sp, #48, 10	; 0xc000000
 43c:	6e697730 	mcrvs	7, 3, r7, cr9, cr0, {1}
 440:	62696c2f 	rsbvs	r6, r9, #12032	; 0x2f00
 444:	61006970 	tstvs	r0, r0, ror r9
 448:	00736772 	rsbseq	r6, r3, r2, ror r7
 44c:	70615f5f 	rsbvc	r5, r1, pc, asr pc
 450:	746e6900 	strbtvc	r6, [lr], #-2304	; 0x900
 454:	616e7265 	cmnvs	lr, r5, ror #4
 458:	75705f6c 	ldrbvc	r5, [r0, #-3948]!	; 0xf6c
 45c:	61686374 	smcvs	34356	; 0x8634
 460:	70720072 	rsbsvc	r0, r2, r2, ror r0
 464:	75705f69 	ldrbvc	r5, [r0, #-3945]!	; 0xf69
 468:	61686374 	smcvs	34356	; 0x8634
 46c:	696c0072 	stmdbvs	ip!, {r1, r4, r5, r6}^
 470:	702f6362 	eorvc	r6, pc, r2, ror #6
 474:	68637475 	stmdavs	r3!, {r0, r2, r4, r5, r6, sl, ip, sp, lr}^
 478:	632e7261 	teqvs	lr, #268435462	; 0x10000006
 47c:	69707200 	ldmdbvs	r0!, {r9, ip, sp, lr}^
 480:	7465735f 	strbtvc	r7, [r5], #-863	; 0x35f
 484:	7475705f 	ldrbtvc	r7, [r5], #-95	; 0x5f
 488:	696c0063 	stmdbvs	ip!, {r0, r1, r5, r6}^
 48c:	702f6362 	eorvc	r6, pc, r2, ror #6
 490:	2e6b7475 	mcrcs	4, 3, r7, cr11, cr5, {3}
 494:	6e690063 	cdpvs	0, 6, cr0, cr9, cr3, {3}
 498:	6e726574 	mrcvs	5, 3, r6, cr2, cr4, {3}
 49c:	705f6c61 	subsvc	r6, pc, r1, ror #24
 4a0:	006b7475 	rsbeq	r7, fp, r5, ror r4
 4a4:	5f67656e 	svcpl	0x0067656e
 4a8:	65720070 	ldrbvs	r0, [r2, #-112]!	; 0x70
 4ac:	73726576 	cmnvc	r2, #494927872	; 0x1d800000
 4b0:	73690065 	cmnvc	r9, #101	; 0x65
 4b4:	69676964 	stmdbvs	r7!, {r2, r5, r6, r8, fp, sp, lr}^
 4b8:	75700074 	ldrbvc	r0, [r0, #-116]!	; 0x74
 4bc:	665f7374 			; <UNDEFINED> instruction: 0x665f7374
 4c0:	61620070 	smcvs	8192	; 0x2000
 4c4:	73006573 	movwvc	r6, #1395	; 0x573
 4c8:	656e6769 	strbvs	r6, [lr, #-1897]!	; 0x769
 4cc:	00705f64 	rsbseq	r5, r0, r4, ror #30
 4d0:	6362696c 	cmnvs	r2, #108, 18	; 0x1b0000
 4d4:	2d61762f 	stclcs	6, cr7, [r1, #-188]!	; 0xffffff44
 4d8:	6e697270 	mcrvs	2, 3, r7, cr9, cr0, {3}
 4dc:	632e6b74 	teqvs	lr, #116, 22	; 0x1d000
 4e0:	69707200 	ldmdbvs	r0!, {r9, ip, sp, lr}^
 4e4:	7465735f 	strbtvc	r7, [r5], #-863	; 0x35f
 4e8:	74756f5f 	ldrbtvc	r6, [r5], #-3935	; 0xf5f
 4ec:	00747570 	rsbseq	r7, r4, r0, ror r5
 4f0:	74646977 	strbtvc	r6, [r4], #-2423	; 0x977
 4f4:	75700068 	ldrbvc	r0, [r0, #-104]!	; 0x68
 4f8:	665f6374 			; <UNDEFINED> instruction: 0x665f6374
 4fc:	6d650070 	stclvs	0, cr0, [r5, #-448]!	; 0xfffffe40
 500:	72007469 	andvc	r7, r0, #1761607680	; 0x69000000
 504:	725f6970 	subsvc	r6, pc, #112, 18	; 0x1c0000
 508:	6f6f6265 	svcvs	0x006f6265
 50c:	73630074 	cmnvc	r3, #116	; 0x74
 510:	65303431 	ldrvs	r3, [r0, #-1073]!	; 0x431
 514:	6372732d 	cmnvs	r2, #-1275068416	; 0xb4000000
 518:	656c632f 	strbvs	r6, [ip, #-815]!	; 0x32f
 51c:	722d6e61 	eorvc	r6, sp, #1552	; 0x610
 520:	6f6f6265 	svcvs	0x006f6265
 524:	00632e74 	rsbeq	r2, r3, r4, ror lr
 528:	616c6564 	cmnvs	ip, r4, ror #10
 52c:	736d5f79 	cmnvc	sp, #484	; 0x1e4
 530:	746e6900 	strbtvc	r6, [lr], #-2304	; 0x900
 534:	616e7265 	cmnvs	lr, r5, ror #4
 538:	77735f6c 	ldrbvc	r5, [r3, -ip, ror #30]!
 53c:	7475705f 	ldrbtvc	r7, [r5], #-95	; 0x5f
 540:	72616863 	rsbvc	r6, r1, #6488064	; 0x630000
 544:	625f5f00 	subsvs	r5, pc, #0, 30
 548:	735f7373 	cmpvc	pc, #-872415231	; 0xcc000001
 54c:	74726174 	ldrbtvc	r6, [r2], #-372	; 0x174
 550:	62005f5f 	andvs	r5, r0, #380	; 0x17c
 554:	655f7373 	ldrbvs	r7, [pc, #-883]	; 1e9 <_start-0x7e17>
 558:	6300646e 	movwvs	r6, #1134	; 0x46e
 55c:	656c6379 	strbvs	r6, [ip, #-889]!	; 0x379
 560:	7265705f 	rsbvc	r7, r5, #95	; 0x5f
 564:	7469625f 	strbtvc	r6, [r9], #-607	; 0x25f
 568:	6e6f6300 	cdpvs	3, 6, cr6, cr15, cr0, {0}
 56c:	656c6f73 	strbvs	r6, [ip, #-3955]!	; 0xf73
 570:	7261755f 	rsbvc	r7, r1, #398458880	; 0x17c00000
 574:	77730074 			; <UNDEFINED> instruction: 0x77730074
 578:	7261755f 	rsbvc	r7, r1, #398458880	; 0x17c00000
 57c:	72705f74 	rsbsvc	r5, r0, #116, 30	; 0x1d0
 580:	6b746e69 	blvs	1d1bf2c <__bss_end__+0x1d1188c>
 584:	54555000 	ldrbpl	r5, [r5], #-0
 588:	53455f43 	movtpl	r5, #24387	; 0x5f43
 58c:	41555f50 	cmpmi	r5, r0, asr pc
 590:	73005452 	movwvc	r5, #1106	; 0x452
 594:	61755f77 	cmnvs	r5, r7, ror pc
 598:	745f7472 	ldrbvc	r7, [pc], #-1138	; 5a0 <_start-0x7a60>
 59c:	54555000 	ldrbpl	r5, [r5], #-0
 5a0:	57535f43 	ldrbpl	r5, [r3, -r3, asr #30]
 5a4:	5241555f 	subpl	r5, r1, #398458880	; 0x17c00000
 5a8:	61620054 	qdsubvs	r0, r4, r2
 5ac:	50006475 	andpl	r6, r0, r5, ror r4
 5b0:	5f435455 	svcpl	0x00435455
 5b4:	555f5748 	ldrbpl	r5, [pc, #-1864]	; fffffe74 <__bss_end__+0xffff57d4>
 5b8:	00545241 	subseq	r5, r4, r1, asr #4
 5bc:	7473635f 	ldrbtvc	r6, [r3], #-863	; 0x35f
 5c0:	00747261 	rsbseq	r7, r4, r1, ror #4
 5c4:	74726175 	ldrbtvc	r6, [r2], #-373	; 0x175
 5c8:	7665645f 			; <UNDEFINED> instruction: 0x7665645f
 5cc:	7300745f 	movwvc	r7, #1119	; 0x45f
 5d0:	61755f77 	cmnvs	r5, r7, ror pc
 5d4:	705f7472 	subsvc	r7, pc, r2, ror r4	; <UNPREDICTABLE>
 5d8:	00637475 	rsbeq	r7, r3, r5, ror r4
 5dc:	746e6f63 	strbtvc	r6, [lr], #-3939	; 0xf63
 5e0:	5f6c6f72 	svcpl	0x006c6f72
 5e4:	5f6b6c62 	svcpl	0x006b6c62
 5e8:	77730074 			; <UNDEFINED> instruction: 0x77730074
 5ec:	7261755f 	rsbvc	r7, r1, #398458880	; 0x17c00000
 5f0:	62630074 	rsbvs	r0, r3, #116	; 0x74
 5f4:	7465675f 	strbtvc	r6, [r5], #-1887	; 0x75f
 5f8:	6f6c625f 	svcvs	0x006c625f
 5fc:	5f006b63 	svcpl	0x00006b63
 600:	7373625f 	cmnvc	r3, #-268435451	; 0xf0000005
 604:	646e655f 	strbtvs	r6, [lr], #-1375	; 0x55f
 608:	63005f5f 	movwvs	r5, #3935	; 0xf5f
 60c:	30343173 	eorscc	r3, r4, r3, ror r1
 610:	72732d65 	rsbsvc	r2, r3, #6464	; 0x1940
 614:	73632f63 	cmnvc	r3, #396	; 0x18c
 618:	74726174 	ldrbtvc	r6, [r2], #-372	; 0x174
 61c:	6300632e 	movwvs	r6, #814	; 0x32e
 620:	6f736e6f 	svcvs	0x00736e6f
 624:	645f656c 	ldrbvs	r6, [pc], #-1388	; 62c <_start-0x79d4>
 628:	6d007665 	stcvs	6, cr7, [r0, #-404]	; 0xfffffe6c
 62c:	63696761 	cmnvs	r9, #25427968	; 0x1840000
 630:	5f746100 	svcpl	0x00746100
 634:	72657375 	rsbvc	r7, r5, #-738197503	; 0xd4000001
 638:	76656c5f 			; <UNDEFINED> instruction: 0x76656c5f
 63c:	50006c65 	andpl	r6, r0, r5, ror #24
 640:	41505f4d 	cmpmi	r0, sp, asr #30
 644:	4f575353 	svcmi	0x00575353
 648:	63004452 	movwvs	r4, #1106	; 0x452
 64c:	30343173 	eorscc	r3, r4, r3, ror r1
 650:	72732d65 	rsbsvc	r2, r3, #6464	; 0x1940
 654:	65722f63 	ldrbvs	r2, [r2, #-3939]!	; 0xf63
 658:	746f6f62 	strbtvc	r6, [pc], #-3938	; 660 <_start-0x79a0>
 65c:	5000632e 	andpl	r6, r0, lr, lsr #6
 660:	53525f4d 	cmppl	r2, #308	; 0x134
 664:	575f4354 			; <UNDEFINED> instruction: 0x575f4354
 668:	47464352 	smlsldmi	r4, r6, r2, r3
 66c:	4c55465f 	mrrcmi	6, 5, r4, r5, cr15
 670:	45525f4c 	ldrbmi	r5, [r2, #-3916]	; 0xf4c
 674:	00544553 	subseq	r4, r4, r3, asr r5
 678:	575f4d50 			; <UNDEFINED> instruction: 0x575f4d50
 67c:	00474f44 	subeq	r4, r7, r4, asr #30
 680:	5f746573 	svcpl	0x00746573
 684:	72657375 	rsbvc	r7, r5, #-738197503	; 0xd4000001
 688:	76656c5f 			; <UNDEFINED> instruction: 0x76656c5f
 68c:	50006c65 	andpl	r6, r0, r5, ror #24
 690:	32335455 	eorscc	r5, r3, #1426063360	; 0x55000000
 694:	5f4d5000 	svcpl	0x004d5000
 698:	43545352 	cmpmi	r4, #1207959553	; 0x48000001
 69c:	73706300 	cmnvc	r0, #0, 6
 6a0:	69740072 	ldmdbvs	r4!, {r1, r4, r5, r6}^
 6a4:	5f72656d 	svcpl	0x0072656d
 6a8:	5f746567 	svcpl	0x00746567
 6ac:	63657375 	cmnvs	r5, #-738197503	; 0xd4000001
 6b0:	7761725f 			; <UNDEFINED> instruction: 0x7761725f
 6b4:	6c656400 	cfstrdvs	mvd6, [r5], #-0
 6b8:	735f7961 	cmpvc	pc, #1589248	; 0x184000
 6bc:	63006365 	movwvs	r6, #869	; 0x365
 6c0:	30343173 	eorscc	r3, r4, r3, ror r1
 6c4:	72732d65 	rsbsvc	r2, r3, #6464	; 0x1940
 6c8:	69742f63 	ldmdbvs	r4!, {r0, r1, r5, r6, r8, r9, sl, fp, sp}^
 6cc:	2e72656d 	cdpcs	5, 7, cr6, cr2, cr13, {3}
 6d0:	45470063 	strbmi	r0, [r7, #-99]	; 0x63
 6d4:	00323354 	eorseq	r3, r2, r4, asr r3
 6d8:	6b636974 	blvs	18dacb0 <__bss_end__+0x18d0610>
 6dc:	65640073 	strbvs	r0, [r4, #-115]!	; 0x73
 6e0:	5f79616c 	svcpl	0x0079616c
 6e4:	6c637963 	stclvs	9, cr7, [r3], #-396	; 0xfffffe74
 6e8:	64007365 	strvs	r7, [r0], #-869	; 0x365
 6ec:	79616c65 	stmdbvc	r1!, {r0, r2, r5, r6, sl, fp, sp, lr}^
 6f0:	0073755f 	rsbseq	r7, r3, pc, asr r5
 6f4:	656d6974 	strbvs	r6, [sp, #-2420]!	; 0x974
 6f8:	65675f72 	strbvs	r5, [r7, #-3954]!	; 0xf72
 6fc:	73755f74 	cmnvc	r5, #116, 30	; 0x1d0
 700:	63006365 	movwvs	r6, #869	; 0x365
 704:	705f6379 	subsvc	r6, pc, r9, ror r3	; <UNPREDICTABLE>
 708:	625f7265 	subsvs	r7, pc, #1342177286	; 0x50000006
 70c:	77007469 	strvc	r7, [r0, -r9, ror #8]
 710:	65746972 	ldrbvs	r6, [r4, #-2418]!	; 0x972
 714:	6379635f 	cmnvs	r9, #2080374785	; 0x7c000001
 718:	746e755f 	strbtvc	r7, [lr], #-1375	; 0x55f
 71c:	73006c69 	movwvc	r6, #3177	; 0xc69
 720:	61755f77 	cmnvs	r5, r7, ror pc
 724:	675f7472 			; <UNDEFINED> instruction: 0x675f7472
 728:	5f637465 	svcpl	0x00637465
 72c:	656d6974 	strbvs	r6, [sp, #-2420]!	; 0x974
 730:	0074756f 	rsbseq	r7, r4, pc, ror #10
 734:	755f7773 	ldrbvc	r7, [pc, #-1907]	; ffffffc9 <__bss_end__+0xffff5929>
 738:	5f747261 	svcpl	0x00747261
 73c:	73746567 	cmnvc	r4, #432013312	; 0x19c00000
 740:	746e755f 	strbtvc	r7, [lr], #-1375	; 0x55f
 744:	73006c69 	movwvc	r6, #3177	; 0xc69
 748:	61755f77 	cmnvs	r5, r7, ror pc
 74c:	675f7472 			; <UNDEFINED> instruction: 0x675f7472
 750:	00637465 	rsbeq	r7, r3, r5, ror #8
 754:	69726564 	ldmdbvs	r2!, {r2, r5, r6, r8, sl, sp, lr}^
 758:	00646576 	rsbeq	r6, r4, r6, ror r5
 75c:	616c6564 	cmnvs	ip, r4, ror #10
 760:	636e5f79 	cmnvs	lr, #484	; 0x1e4
 764:	656c6379 	strbvs	r6, [ip, #-889]!	; 0x379
 768:	77730073 			; <UNDEFINED> instruction: 0x77730073
 76c:	7261755f 	rsbvc	r7, r1, #398458880	; 0x17c00000
 770:	6e695f74 	mcrvs	15, 3, r5, cr9, cr4, {3}
 774:	685f7469 	ldmdavs	pc, {r0, r3, r5, r6, sl, ip, sp, lr}^	; <UNPREDICTABLE>
 778:	65706c65 	ldrbvs	r6, [r0, #-3173]!	; 0xc65
 77c:	69740072 	ldmdbvs	r4!, {r1, r4, r5, r6}^
 780:	756f656d 	strbvc	r6, [pc, #-1389]!	; 21b <_start-0x7de5>
 784:	73755f74 	cmnvc	r5, #116, 30	; 0x1d0
 788:	73006365 	movwvc	r6, #869	; 0x365
 78c:	61755f77 	cmnvs	r5, r7, ror pc
 790:	705f7472 	subsvc	r7, pc, r2, ror r4	; <UNPREDICTABLE>
 794:	006b7475 	rsbeq	r7, fp, r5, ror r4
 798:	6f697067 	svcvs	0x00697067
 79c:	6165725f 	cmnvs	r5, pc, asr r2
 7a0:	796d0064 	stmdbvc	sp!, {r2, r5, r6}^
 7a4:	6372732d 	cmnvs	r2, #-1275068416	; 0xb4000000
 7a8:	2d77732f 	ldclcs	3, cr7, [r7, #-188]!	; 0xffffff44
 7ac:	74726175 	ldrbtvc	r6, [r2], #-373	; 0x175
 7b0:	6300632e 	movwvs	r6, #814	; 0x32e
 7b4:	5f726168 	svcpl	0x00726168
 7b8:	73006e69 	movwvc	r6, #3689	; 0xe69
 7bc:	61755f77 	cmnvs	r5, r7, ror pc
 7c0:	675f7472 			; <UNDEFINED> instruction: 0x675f7472
 7c4:	5f737465 	svcpl	0x00737465
 7c8:	656d6974 	strbvs	r6, [sp, #-2420]!	; 0x974
 7cc:	0074756f 	rsbseq	r7, r4, pc, ror #10
 7d0:	7479626e 	ldrbtvc	r6, [r9], #-622	; 0x26e
 7d4:	67007365 	strvs	r7, [r0, -r5, ror #6]
 7d8:	5f6f6970 	svcpl	0x006f6970
 7dc:	74697277 	strbtvc	r7, [r9], #-631	; 0x277
 7e0:	73750065 	cmnvc	r5, #101	; 0x65
 7e4:	745f6365 	ldrbvc	r6, [pc], #-869	; 7ec <_start-0x7814>
 7e8:	6f656d69 	svcvs	0x00656d69
 7ec:	67007475 	smlsdxvs	r0, r5, r4, r7
 7f0:	5f6f6970 	svcpl	0x006f6970
 7f4:	5f746573 	svcpl	0x00746573
 7f8:	75706e69 	ldrbvc	r6, [r0, #-3689]!	; 0xe69
 7fc:	77730074 			; <UNDEFINED> instruction: 0x77730074
 800:	7261755f 	rsbvc	r7, r1, #398458880	; 0x17c00000
 804:	65675f74 	strbvs	r5, [r7, #-3956]!	; 0xf74
 808:	755f7374 	ldrbvc	r7, [pc, #-884]	; 49c <_start-0x7b64>
 80c:	6c69746e 	cfstrdvs	mvd7, [r9], #-440	; 0xfffffe48
 810:	6b6c625f 	blvs	1b19194 <__bss_end__+0x1b0eaf4>
 814:	69706700 	ldmdbvs	r0!, {r8, r9, sl, sp, lr}^
 818:	65735f6f 	ldrbvs	r5, [r3, #-3951]!	; 0xf6f
 81c:	756f5f74 	strbvc	r5, [pc, #-3956]!	; fffff8b0 <__bss_end__+0xffff5210>
 820:	74757074 	ldrbtvc	r7, [r5], #-116	; 0x74
 824:	69617700 	stmdbvs	r1!, {r8, r9, sl, ip, sp, lr}^
 828:	6e755f74 	mrcvs	15, 3, r5, cr5, cr4, {3}
 82c:	5f6c6974 	svcpl	0x006c6974
 830:	63657375 	cmnvs	r5, #-738197503	; 0xd4000001
 834:	58554100 	ldmdapl	r5, {r8, lr}^
 838:	5f554d5f 	svcpl	0x00554d5f
 83c:	5f52434d 	svcpl	0x0052434d
 840:	00474552 	subeq	r4, r7, r2, asr r5
 844:	5f585541 	svcpl	0x00585541
 848:	495f554d 	ldmdbmi	pc, {r0, r2, r3, r6, r8, sl, ip, lr}^	; <UNPREDICTABLE>
 84c:	45525f4f 	ldrbmi	r5, [r2, #-3919]	; 0xf4f
 850:	55410047 	strbpl	r0, [r1, #-71]	; 0x47
 854:	554d5f58 	strbpl	r5, [sp, #-3928]	; 0xf58
 858:	52534d5f 	subspl	r4, r3, #6080	; 0x17c0
 85c:	4745525f 	smlsldmi	r5, r5, pc, r2	; <UNPREDICTABLE>
 860:	49504700 	ldmdbmi	r0, {r8, r9, sl, lr}^
 864:	55465f4f 	strbpl	r5, [r6, #-3919]	; 0xf4f
 868:	415f434e 	cmpmi	pc, lr, asr #6
 86c:	0030544c 	eorseq	r5, r0, ip, asr #8
 870:	74726175 	ldrbtvc	r6, [r2], #-373	; 0x175
 874:	6e61635f 	mcrvs	3, 3, r6, cr1, cr15, {2}
 878:	7465675f 	strbtvc	r6, [r5], #-1887	; 0x75f
 87c:	55410063 	strbpl	r0, [r1, #-99]	; 0x63
 880:	554d5f58 	strbpl	r5, [sp, #-3928]	; 0xf58
 884:	544e435f 	strbpl	r4, [lr], #-863	; 0x35f
 888:	45525f4c 	ldrbmi	r5, [r2, #-3916]	; 0xf4c
 88c:	61750047 	cmnvs	r5, r7, asr #32
 890:	685f7472 	ldmdavs	pc, {r1, r4, r5, r6, sl, ip, sp, lr}^	; <UNPREDICTABLE>
 894:	645f7361 	ldrbvs	r7, [pc], #-865	; 89c <_start-0x7764>
 898:	00617461 	rsbeq	r7, r1, r1, ror #8
 89c:	5f766564 	svcpl	0x00766564
 8a0:	72726162 	rsbsvc	r6, r2, #-2147483624	; 0x80000018
 8a4:	00726569 	rsbseq	r6, r2, r9, ror #10
 8a8:	4f495047 	svcmi	0x00495047
 8ac:	4e55465f 	mrcmi	6, 2, r4, cr5, cr15, {2}
 8b0:	554f5f43 	strbpl	r5, [pc, #-3907]	; fffff975 <__bss_end__+0xffff52d5>
 8b4:	54555054 	ldrbpl	r5, [r5], #-84	; 0x54
 8b8:	72617500 	rsbvc	r7, r1, #0, 10
 8bc:	6e695f74 	mcrvs	15, 3, r5, cr9, cr4, {3}
 8c0:	47007469 	strmi	r7, [r0, -r9, ror #8]
 8c4:	5f4f4950 	svcpl	0x004f4950
 8c8:	434e5546 	movtmi	r5, #58694	; 0xe546
 8cc:	544c415f 	strbpl	r4, [ip], #-351	; 0x15f
 8d0:	50470031 	subpl	r0, r7, r1, lsr r0
 8d4:	465f4f49 	ldrbmi	r4, [pc], -r9, asr #30
 8d8:	5f434e55 	svcpl	0x00434e55
 8dc:	32544c41 	subscc	r4, r4, #16640	; 0x4100
 8e0:	49504700 	ldmdbmi	r0, {r8, r9, sl, lr}^
 8e4:	55465f4f 	strbpl	r5, [r6, #-3919]	; 0xf4f
 8e8:	415f434e 	cmpmi	pc, lr, asr #6
 8ec:	0033544c 	eorseq	r5, r3, ip, asr #8
 8f0:	4f495047 	svcmi	0x00495047
 8f4:	4e55465f 	mrcmi	6, 2, r4, cr5, cr15, {2}
 8f8:	4c415f43 	mcrrmi	15, 4, r5, r1, cr3
 8fc:	41003554 	tstmi	r0, r4, asr r5
 900:	4d5f5855 	ldclmi	8, cr5, [pc, #-340]	; 7b4 <_start-0x784c>
 904:	45495f55 	strbmi	r5, [r9, #-3925]	; 0xf55
 908:	45525f52 	ldrbmi	r5, [r2, #-3922]	; 0xf52
 90c:	75700047 	ldrbvc	r0, [r0, #-71]!	; 0x47
 910:	00323374 	eorseq	r3, r2, r4, ror r3
 914:	5f585541 	svcpl	0x00585541
 918:	495f554d 	ldmdbmi	pc, {r0, r2, r3, r6, r8, sl, ip, lr}^	; <UNPREDICTABLE>
 91c:	525f5249 	subspl	r5, pc, #-1879048188	; 0x90000004
 920:	67004745 	strvs	r4, [r0, -r5, asr #14]
 924:	5f6f6970 	svcpl	0x006f6970
 928:	636e7566 	cmnvs	lr, #427819008	; 0x19800000
 92c:	7500745f 	strvc	r7, [r0, #-1119]	; 0x45f
 930:	5f747261 	svcpl	0x00747261
 934:	5f6e6163 	svcpl	0x006e6163
 938:	63747570 	cmnvs	r4, #112, 10	; 0x1c000000
 93c:	58554100 	ldmdapl	r5, {r8, lr}^
 940:	414e455f 	cmpmi	lr, pc, asr r5
 944:	53454c42 	movtpl	r4, #23618	; 0x5c42
 948:	58554100 	ldmdapl	r5, {r8, lr}^
 94c:	5152495f 	cmppl	r2, pc, asr r9
 950:	58554100 	ldmdapl	r5, {r8, lr}^
 954:	5f554d5f 	svcpl	0x00554d5f
 958:	44554142 	ldrbmi	r4, [r5], #-322	; 0x142
 95c:	4745525f 	smlsldmi	r5, r5, pc, r2	; <UNPREDICTABLE>
 960:	58554100 	ldmdapl	r5, {r8, lr}^
 964:	5f554d5f 	svcpl	0x00554d5f
 968:	54415453 	strbpl	r5, [r1], #-1107	; 0x453
 96c:	4745525f 	smlsldmi	r5, r5, pc, r2	; <UNPREDICTABLE>
 970:	49504700 	ldmdbmi	r0, {r8, r9, sl, lr}^
 974:	55465f4f 	strbpl	r5, [r6, #-3919]	; 0xf4f
 978:	415f434e 	cmpmi	pc, lr, asr #6
 97c:	0034544c 	eorseq	r5, r4, ip, asr #8
 980:	6f697067 	svcvs	0x00697067
 984:	7465735f 	strbtvc	r7, [r5], #-863	; 0x35f
 988:	6e75665f 	mrcvs	6, 3, r6, cr5, cr15, {2}
 98c:	6f697463 	svcvs	0x00697463
 990:	5541006e 	strbpl	r0, [r1, #-110]	; 0x6e
 994:	554d5f58 	strbpl	r5, [sp, #-3928]	; 0xf58
 998:	5243535f 	subpl	r5, r3, #2080374785	; 0x7c000001
 99c:	48435441 	stmdami	r3, {r0, r6, sl, ip, lr}^
 9a0:	2d796d00 	ldclcs	13, cr6, [r9, #-0]
 9a4:	2f637273 	svccs	0x00637273
 9a8:	74726175 	ldrbtvc	r6, [r2], #-373	; 0x175
 9ac:	4100632e 	tstmi	r0, lr, lsr #6
 9b0:	4d5f5855 	ldclmi	8, cr5, [pc, #-340]	; 864 <_start-0x779c>
 9b4:	434c5f55 	movtmi	r5, #53077	; 0xcf55
 9b8:	45525f52 	ldrbmi	r5, [r2, #-3922]	; 0xf52
 9bc:	50470047 	subpl	r0, r7, r7, asr #32
 9c0:	465f4f49 	ldrbmi	r4, [pc], -r9, asr #30
 9c4:	5f434e55 	svcpl	0x00434e55
 9c8:	55504e49 	ldrbpl	r4, [r0, #-3657]	; 0xe49
 9cc:	55410054 	strbpl	r0, [r1, #-84]	; 0x54
 9d0:	554d5f58 	strbpl	r5, [sp, #-3928]	; 0xf58
 9d4:	52534c5f 	subspl	r4, r3, #24320	; 0x5f00
 9d8:	4745525f 	smlsldmi	r5, r5, pc, r2	; <UNPREDICTABLE>
 9dc:	72617500 	rsbvc	r7, r1, #0, 10
 9e0:	65675f74 	strbvs	r5, [r7, #-3956]!	; 0xf74
 9e4:	615f6374 	cmpvs	pc, r4, ror r3	; <UNPREDICTABLE>
 9e8:	636e7973 	cmnvs	lr, #1884160	; 0x1cc000
 9ec:	74656700 	strbtvc	r6, [r5], #-1792	; 0x700
 9f0:	67003233 	smladxvs	r0, r3, r2, r3
 9f4:	5f6f6970 	svcpl	0x006f6970
 9f8:	6e657665 	cdpvs	6, 6, cr7, cr5, cr5, {3}
 9fc:	65645f74 	strbvs	r5, [r4, #-3956]!	; 0xf74
 a00:	74636574 	strbtvc	r6, [r3], #-1396	; 0x574
 a04:	47006465 	strmi	r6, [r0, -r5, ror #8]
 a08:	45534650 	ldrbmi	r4, [r3, #-1616]	; 0x650
 a0c:	4700324c 	strmi	r3, [r0, -ip, asr #4]
 a10:	524c4350 	subpl	r4, ip, #80, 6	; 0x40000001
 a14:	4e450030 	mcrmi	0, 2, r0, cr5, cr0, {1}
 a18:	454c4241 	strbmi	r4, [ip, #-577]	; 0x241
 a1c:	5152495f 	cmppl	r2, pc, asr r9
 a20:	00325f53 	eorseq	r5, r2, r3, asr pc
 a24:	675f7369 	ldrbvs	r7, [pc, -r9, ror #6]
 a28:	5f6f6970 	svcpl	0x006f6970
 a2c:	00746e69 	rsbseq	r6, r4, r9, ror #28
 a30:	6f697067 	svcvs	0x00697067
 a34:	7465735f 	strbtvc	r7, [r5], #-863	; 0x35f
 a38:	66666f5f 	uqsaxvs	r6, r6, pc	; <UNPREDICTABLE>
 a3c:	2d796d00 	ldclcs	13, cr6, [r9, #-0]
 a40:	2f637273 	svccs	0x00637273
 a44:	6f697067 	svcvs	0x00697067
 a48:	6900632e 	stmdbvs	r0, {r1, r2, r3, r5, r8, r9, sp, lr}
 a4c:	6d5f746e 	cfldrdvs	mvd7, [pc, #-440]	; 89c <_start-0x7764>
 a50:	006b7361 	rsbeq	r7, fp, r1, ror #6
 a54:	45535047 	ldrbmi	r5, [r3, #-71]	; 0x47
 a58:	47003054 	smlsdmi	r0, r4, r0, r3
 a5c:	54455350 	strbpl	r5, [r5], #-848	; 0x350
 a60:	65720031 	ldrbvs	r0, [r2, #-49]!	; 0x31
 a64:	74735f67 	ldrbtvc	r5, [r3], #-3943	; 0xf67
 a68:	47007461 	strmi	r7, [r0, -r1, ror #8]
 a6c:	56454c50 			; <UNDEFINED> instruction: 0x56454c50
 a70:	50470030 	subpl	r0, r7, r0, lsr r0
 a74:	3156454c 	cmpcc	r6, ip, asr #10
 a78:	69706700 	ldmdbvs	r0!, {r8, r9, sl, sp, lr}^
 a7c:	65725f6f 	ldrbvs	r5, [r2, #-3951]!	; 0xf6f
 a80:	50470067 	subpl	r0, r7, r7, rrx
 a84:	4c455346 	mcrrmi	3, 4, r5, r5, cr6
 a88:	50470030 	subpl	r0, r7, r0, lsr r0
 a8c:	4c455346 	mcrrmi	3, 4, r5, r5, cr6
 a90:	50470031 	subpl	r0, r7, r1, lsr r0
 a94:	4c455346 	mcrrmi	3, 4, r5, r5, cr6
 a98:	50470033 	subpl	r0, r7, r3, lsr r0
 a9c:	4c455346 	mcrrmi	3, 4, r5, r5, cr6
 aa0:	50470034 	subpl	r0, r7, r4, lsr r0
 aa4:	4c455346 	mcrrmi	3, 4, r5, r5, cr6
 aa8:	70670035 	rsbvc	r0, r7, r5, lsr r0
 aac:	665f6f69 	ldrbvs	r6, [pc], -r9, ror #30
 ab0:	306c6573 	rsbcc	r6, ip, r3, ror r5
 ab4:	43504700 	cmpmi	r0, #0, 14
 ab8:	0031524c 	eorseq	r5, r1, ip, asr #4
 abc:	6f697067 	svcvs	0x00697067
 ac0:	746e695f 	strbtvc	r6, [lr], #-2399	; 0x95f
 ac4:	7369725f 	cmnvc	r9, #-268435451	; 0xf0000005
 ac8:	5f676e69 	svcpl	0x00676e69
 acc:	65676465 	strbvs	r6, [r7, #-1125]!	; 0x465
 ad0:	52504700 	subspl	r4, r0, #0, 14
 ad4:	00304e45 	eorseq	r4, r0, r5, asr #28
 ad8:	45525047 	ldrbmi	r5, [r2, #-71]	; 0x47
 adc:	6700314e 	strvs	r3, [r0, -lr, asr #2]
 ae0:	5f6f6970 	svcpl	0x006f6970
 ae4:	6e657665 	cdpvs	6, 6, cr7, cr5, cr5, {3}
 ae8:	6c635f74 	stclvs	15, cr5, [r3], #-464	; 0xfffffe30
 aec:	00726165 	rsbseq	r6, r2, r5, ror #2
 af0:	5f515249 	svcpl	0x00515249
 af4:	444e4550 	strbmi	r4, [lr], #-1360	; 0x550
 af8:	5f474e49 	svcpl	0x00474e49
 afc:	52490031 	subpl	r0, r9, #49	; 0x31
 b00:	45505f51 	ldrbmi	r5, [r0, #-3921]	; 0xf51
 b04:	4e49444e 	cdpmi	4, 4, cr4, cr9, cr14, {2}
 b08:	00325f47 	eorseq	r5, r2, r7, asr #30
 b0c:	6d746962 	ldclvs	9, cr6, [r4, #-392]!	; 0xfffffe78
 b10:	006b7361 	rsbeq	r7, fp, r1, ror #6
 b14:	6f697067 	svcvs	0x00697067
 b18:	7465735f 	strbtvc	r7, [r5], #-863	; 0x35f
 b1c:	75660030 	strbvc	r0, [r6, #-48]!	; 0x30
 b20:	4700636e 	strmi	r6, [r0, -lr, ror #6]
 b24:	53444550 	movtpl	r4, #17744	; 0x4550
 b28:	50470030 	subpl	r0, r7, r0, lsr r0
 b2c:	31534445 	cmpcc	r3, r5, asr #8
 b30:	69706700 	ldmdbvs	r0!, {r8, r9, sl, sp, lr}^
 b34:	65735f6f 	ldrbvs	r5, [r3, #-3951]!	; 0xf6f
 b38:	6e6f5f74 	mcrvs	15, 3, r5, cr15, cr4, {3}
 b3c:	46504700 	ldrbmi	r4, [r0], -r0, lsl #14
 b40:	00304e45 	eorseq	r4, r0, r5, asr #28
 b44:	45465047 	strbmi	r5, [r6, #-71]	; 0x47
 b48:	6700314e 	strvs	r3, [r0, -lr, asr #2]
 b4c:	5f6f6970 	svcpl	0x006f6970
 b50:	5f746e69 	svcpl	0x00746e69
 b54:	6c6c6166 	stfvse	f6, [ip], #-408	; 0xfffffe68
 b58:	5f676e69 	svcpl	0x00676e69
 b5c:	65676465 	strbvs	r6, [r7, #-1125]!	; 0x465
 b60:	67657200 	strbvs	r7, [r5, -r0, lsl #4]!
 b64:	6c65735f 	stclvs	3, cr7, [r5], #-380	; 0xfffffe84
 b68:	00746365 	rsbseq	r6, r4, r5, ror #6
 b6c:	6f697067 	svcvs	0x00697067
 b70:	726c635f 	rsbvc	r6, ip, #2080374785	; 0x7c000001
 b74:	69730030 	ldmdbvs	r3!, {r4, r5}^
 b78:	745f657a 	ldrbvc	r6, [pc], #-1402	; b80 <_start-0x7480>
 b7c:	6d656d00 	stclvs	13, cr6, [r5, #-0]
 b80:	00746573 	rsbseq	r6, r4, r3, ror r5
 b84:	6e5f6263 	cdpvs	2, 5, cr6, cr15, cr3, {3}
 b88:	63007765 	movwvs	r7, #1893	; 0x765
 b8c:	30343173 	eorscc	r3, r4, r3, ror r1
 b90:	72732d65 	rsbsvc	r2, r3, #6464	; 0x1940
 b94:	6f632f63 	svcvs	0x00632f63
 b98:	6f72746e 	svcvs	0x0072746e
 b9c:	6c622d6c 	stclvs	13, cr2, [r2], #-432	; 0xfffffe50
 ba0:	2e6b636f 	cdpcs	3, 6, cr6, cr11, cr15, {3}
 ba4:	696c0063 	stmdbvs	ip!, {r0, r1, r5, r6}^
 ba8:	6d2f6362 	stcvs	3, cr6, [pc, #-392]!	; a28 <_start-0x75d8>
 bac:	65736d65 	ldrbvs	r6, [r3, #-3429]!	; 0xd65
 bb0:	00632e74 	rsbeq	r2, r3, r4, ror lr

Disassembly of section .debug_frame:

00000000 <.debug_frame>:
   0:	0000000c 	andeq	r0, r0, ip
   4:	ffffffff 			; <UNDEFINED> instruction: 0xffffffff
   8:	7c020001 	stcvc	0, cr0, [r2], {1}
   c:	000d0c0e 	andeq	r0, sp, lr, lsl #24
  10:	00000014 	andeq	r0, r0, r4, lsl r0
  14:	00000000 	andeq	r0, r0, r0
  18:	00008010 	andeq	r8, r0, r0, lsl r0
  1c:	00000028 	andeq	r0, r0, r8, lsr #32
  20:	83080e42 	movwhi	r0, #36418	; 0x8e42
  24:	00018e02 	andeq	r8, r1, r2, lsl #28
  28:	00000014 	andeq	r0, r0, r4, lsl r0
  2c:	00000000 	andeq	r0, r0, r0
  30:	00008038 	andeq	r8, r0, r8, lsr r0
  34:	00000028 	andeq	r0, r0, r8, lsr #32
  38:	83080e42 	movwhi	r0, #36418	; 0x8e42
  3c:	00018e02 	andeq	r8, r1, r2, lsl #28
  40:	00000014 	andeq	r0, r0, r4, lsl r0
  44:	00000000 	andeq	r0, r0, r0
  48:	00008060 	andeq	r8, r0, r0, rrx
  4c:	00000028 	andeq	r0, r0, r8, lsr #32
  50:	83080e42 	movwhi	r0, #36418	; 0x8e42
  54:	00018e02 	andeq	r8, r1, r2, lsl #28
  58:	00000014 	andeq	r0, r0, r4, lsl r0
  5c:	00000000 	andeq	r0, r0, r0
  60:	00008088 	andeq	r8, r0, r8, lsl #1
  64:	00000028 	andeq	r0, r0, r8, lsr #32
  68:	83080e42 	movwhi	r0, #36418	; 0x8e42
  6c:	00018e02 	andeq	r8, r1, r2, lsl #28
  70:	00000014 	andeq	r0, r0, r4, lsl r0
  74:	00000000 	andeq	r0, r0, r0
  78:	000080b0 	strheq	r8, [r0], -r0
  7c:	00000028 	andeq	r0, r0, r8, lsr #32
  80:	83080e42 	movwhi	r0, #36418	; 0x8e42
  84:	00018e02 	andeq	r8, r1, r2, lsl #28
  88:	00000014 	andeq	r0, r0, r4, lsl r0
  8c:	00000000 	andeq	r0, r0, r0
  90:	000080d8 	ldrdeq	r8, [r0], -r8	; <UNPREDICTABLE>
  94:	00000028 	andeq	r0, r0, r8, lsr #32
  98:	83080e42 	movwhi	r0, #36418	; 0x8e42
  9c:	00018e02 	andeq	r8, r1, r2, lsl #28
  a0:	00000014 	andeq	r0, r0, r4, lsl r0
  a4:	00000000 	andeq	r0, r0, r0
  a8:	00008100 	andeq	r8, r0, r0, lsl #2
  ac:	00000028 	andeq	r0, r0, r8, lsr #32
  b0:	83080e42 	movwhi	r0, #36418	; 0x8e42
  b4:	00018e02 	andeq	r8, r1, r2, lsl #28
  b8:	00000014 	andeq	r0, r0, r4, lsl r0
  bc:	00000000 	andeq	r0, r0, r0
  c0:	00008128 	andeq	r8, r0, r8, lsr #2
  c4:	00000028 	andeq	r0, r0, r8, lsr #32
  c8:	83080e42 	movwhi	r0, #36418	; 0x8e42
  cc:	00018e02 	andeq	r8, r1, r2, lsl #28
  d0:	00000024 	andeq	r0, r0, r4, lsr #32
  d4:	00000000 	andeq	r0, r0, r0
  d8:	00008150 	andeq	r8, r0, r0, asr r1
  dc:	00000134 	andeq	r0, r0, r4, lsr r1
  e0:	84240e42 	strthi	r0, [r4], #-3650	; 0xe42
  e4:	86088509 	strhi	r8, [r8], -r9, lsl #10
  e8:	88068707 	stmdahi	r6, {r0, r1, r2, r8, r9, sl, pc}
  ec:	8a048905 	bhi	122508 <__bss_end__+0x117e68>
  f0:	8e028b03 	vmlahi.f64	d8, d2, d3
  f4:	300e4201 	andcc	r4, lr, r1, lsl #4
  f8:	00000018 	andeq	r0, r0, r8, lsl r0
  fc:	00000000 	andeq	r0, r0, r0
 100:	00008284 	andeq	r8, r0, r4, lsl #5
 104:	0000002c 	andeq	r0, r0, ip, lsr #32
 108:	84100e42 	ldrhi	r0, [r0], #-3650	; 0xe42
 10c:	86038504 	strhi	r8, [r3], -r4, lsl #10
 110:	00018e02 	andeq	r8, r1, r2, lsl #28
 114:	00000014 	andeq	r0, r0, r4, lsl r0
 118:	00000000 	andeq	r0, r0, r0
 11c:	000082b0 			; <UNDEFINED> instruction: 0x000082b0
 120:	00000014 	andeq	r0, r0, r4, lsl r0
 124:	83080e42 	movwhi	r0, #36418	; 0x8e42
 128:	00018e02 	andeq	r8, r1, r2, lsl #28
 12c:	00000018 	andeq	r0, r0, r8, lsl r0
 130:	00000000 	andeq	r0, r0, r0
 134:	000082c4 	andeq	r8, r0, r4, asr #5
 138:	000001c0 	andeq	r0, r0, r0, asr #3
 13c:	840c0e42 	strhi	r0, [ip], #-3650	; 0xe42
 140:	8e028503 	cfsh32hi	mvfx8, mvfx2, #3
 144:	380e4201 	stmdacc	lr, {r0, r9, lr}
 148:	0000000c 	andeq	r0, r0, ip
 14c:	ffffffff 			; <UNDEFINED> instruction: 0xffffffff
 150:	7c020001 	stcvc	0, cr0, [r2], {1}
 154:	000d0c0e 	andeq	r0, sp, lr, lsl #24
 158:	00000024 	andeq	r0, r0, r4, lsr #32
 15c:	00000148 	andeq	r0, r0, r8, asr #2
 160:	00008484 	andeq	r8, r0, r4, lsl #9
 164:	00000058 	andeq	r0, r0, r8, asr r0
 168:	80100e42 	andshi	r0, r0, r2, asr #28
 16c:	82038104 	andhi	r8, r3, #4, 2
 170:	42018302 	andmi	r8, r1, #134217728	; 0x8000000
 174:	07841c0e 	streq	r1, [r4, lr, lsl #24]
 178:	058e0685 	streq	r0, [lr, #1669]	; 0x685
 17c:	00280e42 	eoreq	r0, r8, r2, asr #28
 180:	0000000c 	andeq	r0, r0, ip
 184:	ffffffff 			; <UNDEFINED> instruction: 0xffffffff
 188:	7c020001 	stcvc	0, cr0, [r2], {1}
 18c:	000d0c0e 	andeq	r0, sp, lr, lsl #24
 190:	00000014 	andeq	r0, r0, r4, lsl r0
 194:	00000180 	andeq	r0, r0, r0, lsl #3
 198:	000084dc 	ldrdeq	r8, [r0], -ip
 19c:	00000014 	andeq	r0, r0, r4, lsl r0
 1a0:	84080e42 	strhi	r0, [r8], #-3650	; 0xe42
 1a4:	00018e02 	andeq	r8, r1, r2, lsl #28
 1a8:	0000000c 	andeq	r0, r0, ip
 1ac:	00000180 	andeq	r0, r0, r0, lsl #3
 1b0:	000084f0 	strdeq	r8, [r0], -r0
 1b4:	00000018 	andeq	r0, r0, r8, lsl r0
 1b8:	0000000c 	andeq	r0, r0, ip
 1bc:	00000180 	andeq	r0, r0, r0, lsl #3
 1c0:	00008508 	andeq	r8, r0, r8, lsl #10
 1c4:	00000010 	andeq	r0, r0, r0, lsl r0
 1c8:	0000000c 	andeq	r0, r0, ip
 1cc:	ffffffff 			; <UNDEFINED> instruction: 0xffffffff
 1d0:	7c020001 	stcvc	0, cr0, [r2], {1}
 1d4:	000d0c0e 	andeq	r0, sp, lr, lsl #24
 1d8:	00000018 	andeq	r0, r0, r8, lsl r0
 1dc:	000001c8 	andeq	r0, r0, r8, asr #3
 1e0:	00008518 	andeq	r8, r0, r8, lsl r5
 1e4:	00000034 	andeq	r0, r0, r4, lsr r0
 1e8:	83100e42 	tsthi	r0, #1056	; 0x420
 1ec:	85038404 	strhi	r8, [r3, #-1028]	; 0x404
 1f0:	00018e02 	andeq	r8, r1, r2, lsl #28
 1f4:	0000000c 	andeq	r0, r0, ip
 1f8:	ffffffff 			; <UNDEFINED> instruction: 0xffffffff
 1fc:	7c020001 	stcvc	0, cr0, [r2], {1}
 200:	000d0c0e 	andeq	r0, sp, lr, lsl #24
 204:	0000000c 	andeq	r0, r0, ip
 208:	000001f4 	strdeq	r0, [r0], -r4
 20c:	0000854c 	andeq	r8, r0, ip, asr #10
 210:	00000014 	andeq	r0, r0, r4, lsl r0
 214:	0000000c 	andeq	r0, r0, ip
 218:	000001f4 	strdeq	r0, [r0], -r4
 21c:	00008560 	andeq	r8, r0, r0, ror #10
 220:	0000002c 	andeq	r0, r0, ip, lsr #32
 224:	0000000c 	andeq	r0, r0, ip
 228:	000001f4 	strdeq	r0, [r0], -r4
 22c:	0000858c 	andeq	r8, r0, ip, lsl #11
 230:	00000040 	andeq	r0, r0, r0, asr #32
 234:	00000020 	andeq	r0, r0, r0, lsr #32
 238:	000001f4 	strdeq	r0, [r0], -r4
 23c:	000085cc 	andeq	r8, r0, ip, asr #11
 240:	000001a8 	andeq	r0, r0, r8, lsr #3
 244:	84180e42 	ldrhi	r0, [r8], #-3650	; 0xe42
 248:	86058506 	strhi	r8, [r5], -r6, lsl #10
 24c:	88038704 	stmdahi	r3, {r2, r8, r9, sl, pc}
 250:	42018e02 	andmi	r8, r1, #2, 28
 254:	0000600e 	andeq	r6, r0, lr
 258:	00000014 	andeq	r0, r0, r4, lsl r0
 25c:	000001f4 	strdeq	r0, [r0], -r4
 260:	00008774 	andeq	r8, r0, r4, ror r7
 264:	00000068 	andeq	r0, r0, r8, rrx
 268:	8e040e42 	cdphi	14, 0, cr0, cr4, cr2, {2}
 26c:	100e4201 	andne	r4, lr, r1, lsl #4
 270:	00000028 	andeq	r0, r0, r8, lsr #32
 274:	000001f4 	strdeq	r0, [r0], -r4
 278:	000087dc 	ldrdeq	r8, [r0], -ip
 27c:	00000294 	muleq	r0, r4, r2
 280:	84240e42 	strthi	r0, [r4], #-3650	; 0xe42
 284:	86088509 	strhi	r8, [r8], -r9, lsl #10
 288:	88068707 	stmdahi	r6, {r0, r1, r2, r8, r9, sl, pc}
 28c:	8a048905 	bhi	1226a8 <__bss_end__+0x118008>
 290:	8e028b03 	vmlahi.f64	d8, d2, d3
 294:	b00e4201 	andlt	r4, lr, r1, lsl #4
 298:	00000001 	andeq	r0, r0, r1
 29c:	0000000c 	andeq	r0, r0, ip
 2a0:	ffffffff 			; <UNDEFINED> instruction: 0xffffffff
 2a4:	7c020001 	stcvc	0, cr0, [r2], {1}
 2a8:	000d0c0e 	andeq	r0, sp, lr, lsl #24
 2ac:	00000014 	andeq	r0, r0, r4, lsl r0
 2b0:	0000029c 	muleq	r0, ip, r2
 2b4:	00008a70 	andeq	r8, r0, r0, ror sl
 2b8:	00000028 	andeq	r0, r0, r8, lsr #32
 2bc:	83080e42 	movwhi	r0, #36418	; 0x8e42
 2c0:	00018e02 	andeq	r8, r1, r2, lsl #28
 2c4:	0000000c 	andeq	r0, r0, ip
 2c8:	ffffffff 			; <UNDEFINED> instruction: 0xffffffff
 2cc:	7c020001 	stcvc	0, cr0, [r2], {1}
 2d0:	000d0c0e 	andeq	r0, sp, lr, lsl #24
 2d4:	00000014 	andeq	r0, r0, r4, lsl r0
 2d8:	000002c4 	andeq	r0, r0, r4, asr #5
 2dc:	00008a98 	muleq	r0, r8, sl
 2e0:	00000020 	andeq	r0, r0, r0, lsr #32
 2e4:	84080e42 	strhi	r0, [r8], #-3650	; 0xe42
 2e8:	00018e02 	andeq	r8, r1, r2, lsl #28
 2ec:	00000014 	andeq	r0, r0, r4, lsl r0
 2f0:	000002c4 	andeq	r0, r0, r4, asr #5
 2f4:	00008ab8 			; <UNDEFINED> instruction: 0x00008ab8
 2f8:	00000090 	muleq	r0, r0, r0
 2fc:	83080e42 	movwhi	r0, #36418	; 0x8e42
 300:	00018e02 	andeq	r8, r1, r2, lsl #28
 304:	0000000c 	andeq	r0, r0, ip
 308:	ffffffff 			; <UNDEFINED> instruction: 0xffffffff
 30c:	7c020001 	stcvc	0, cr0, [r2], {1}
 310:	000d0c0e 	andeq	r0, sp, lr, lsl #24
 314:	0000000c 	andeq	r0, r0, ip
 318:	00000304 	andeq	r0, r0, r4, lsl #6
 31c:	00008b48 	andeq	r8, r0, r8, asr #22
 320:	00000018 	andeq	r0, r0, r8, lsl r0
 324:	0000000c 	andeq	r0, r0, ip
 328:	00000304 	andeq	r0, r0, r4, lsl #6
 32c:	00008b60 	andeq	r8, r0, r0, ror #22
 330:	00000014 	andeq	r0, r0, r4, lsl r0
 334:	00000014 	andeq	r0, r0, r4, lsl r0
 338:	00000304 	andeq	r0, r0, r4, lsl #6
 33c:	00008b74 	andeq	r8, r0, r4, ror fp
 340:	00000048 	andeq	r0, r0, r8, asr #32
 344:	83080e42 	movwhi	r0, #36418	; 0x8e42
 348:	00018e02 	andeq	r8, r1, r2, lsl #28
 34c:	0000000c 	andeq	r0, r0, ip
 350:	ffffffff 			; <UNDEFINED> instruction: 0xffffffff
 354:	7c020001 	stcvc	0, cr0, [r2], {1}
 358:	000d0c0e 	andeq	r0, sp, lr, lsl #24
 35c:	0000000c 	andeq	r0, r0, ip
 360:	0000034c 	andeq	r0, r0, ip, asr #6
 364:	00008bbc 			; <UNDEFINED> instruction: 0x00008bbc
 368:	0000001c 	andeq	r0, r0, ip, lsl r0
 36c:	00000014 	andeq	r0, r0, r4, lsl r0
 370:	0000034c 	andeq	r0, r0, ip, asr #6
 374:	00008bd8 	ldrdeq	r8, [r0], -r8	; <UNPREDICTABLE>
 378:	00000014 	andeq	r0, r0, r4, lsl r0
 37c:	83080e42 	movwhi	r0, #36418	; 0x8e42
 380:	00018e02 	andeq	r8, r1, r2, lsl #28
 384:	00000014 	andeq	r0, r0, r4, lsl r0
 388:	0000034c 	andeq	r0, r0, ip, asr #6
 38c:	00008bec 	andeq	r8, r0, ip, ror #23
 390:	0000000c 	andeq	r0, r0, ip
 394:	83080e42 	movwhi	r0, #36418	; 0x8e42
 398:	00018e02 	andeq	r8, r1, r2, lsl #28
 39c:	00000018 	andeq	r0, r0, r8, lsl r0
 3a0:	0000034c 	andeq	r0, r0, ip, asr #6
 3a4:	00008bf8 	strdeq	r8, [r0], -r8	; <UNPREDICTABLE>
 3a8:	00000024 	andeq	r0, r0, r4, lsr #32
 3ac:	83100e42 	tsthi	r0, #1056	; 0x420
 3b0:	85038404 	strhi	r8, [r3, #-1028]	; 0x404
 3b4:	00018e02 	andeq	r8, r1, r2, lsl #28
 3b8:	00000014 	andeq	r0, r0, r4, lsl r0
 3bc:	0000034c 	andeq	r0, r0, ip, asr #6
 3c0:	00008c1c 	andeq	r8, r0, ip, lsl ip
 3c4:	00000014 	andeq	r0, r0, r4, lsl r0
 3c8:	83080e42 	movwhi	r0, #36418	; 0x8e42
 3cc:	00018e02 	andeq	r8, r1, r2, lsl #28
 3d0:	00000014 	andeq	r0, r0, r4, lsl r0
 3d4:	0000034c 	andeq	r0, r0, ip, asr #6
 3d8:	00008c30 	andeq	r8, r0, r0, lsr ip
 3dc:	00000014 	andeq	r0, r0, r4, lsl r0
 3e0:	83080e42 	movwhi	r0, #36418	; 0x8e42
 3e4:	00018e02 	andeq	r8, r1, r2, lsl #28
 3e8:	0000000c 	andeq	r0, r0, ip
 3ec:	ffffffff 			; <UNDEFINED> instruction: 0xffffffff
 3f0:	7c020001 	stcvc	0, cr0, [r2], {1}
 3f4:	000d0c0e 	andeq	r0, sp, lr, lsl #24
 3f8:	0000001c 	andeq	r0, r0, ip, lsl r0
 3fc:	000003e8 	andeq	r0, r0, r8, ror #7
 400:	00008c44 	andeq	r8, r0, r4, asr #24
 404:	00000154 	andeq	r0, r0, r4, asr r1
 408:	84180e42 	ldrhi	r0, [r8], #-3650	; 0xe42
 40c:	86058506 	strhi	r8, [r5], -r6, lsl #10
 410:	88038704 	stmdahi	r3, {r2, r8, r9, sl, pc}
 414:	00018e02 	andeq	r8, r1, r2, lsl #28
 418:	00000020 	andeq	r0, r0, r0, lsr #32
 41c:	000003e8 	andeq	r0, r0, r8, ror #7
 420:	00008d98 	muleq	r0, r8, sp
 424:	000001c8 	andeq	r0, r0, r8, asr #3
 428:	83200e42 	teqhi	r0, #1056	; 0x420
 42c:	85078408 	strhi	r8, [r7, #-1032]	; 0x408
 430:	87058606 	strhi	r8, [r5, -r6, lsl #12]
 434:	89038804 	stmdbhi	r3, {r2, fp, pc}
 438:	00018e02 	andeq	r8, r1, r2, lsl #28
 43c:	00000024 	andeq	r0, r0, r4, lsr #32
 440:	000003e8 	andeq	r0, r0, r8, ror #7
 444:	00008f60 	andeq	r8, r0, r0, ror #30
 448:	000000a4 	andeq	r0, r0, r4, lsr #1
 44c:	84200e42 	strthi	r0, [r0], #-3650	; 0xe42
 450:	86078508 	strhi	r8, [r7], -r8, lsl #10
 454:	88058706 	stmdahi	r5, {r1, r2, r8, r9, sl, pc}
 458:	8a038904 	bhi	e2870 <__bss_end__+0xd81d0>
 45c:	42018e02 	andmi	r8, r1, #2, 28
 460:	0000280e 	andeq	r2, r0, lr, lsl #16
 464:	00000020 	andeq	r0, r0, r0, lsr #32
 468:	000003e8 	andeq	r0, r0, r8, ror #7
 46c:	00009004 	andeq	r9, r0, r4
 470:	00000090 	muleq	r0, r0, r0
 474:	84180e42 	ldrhi	r0, [r8], #-3650	; 0xe42
 478:	86058506 	strhi	r8, [r5], -r6, lsl #10
 47c:	88038704 	stmdahi	r3, {r2, r8, r9, sl, pc}
 480:	42018e02 	andmi	r8, r1, #2, 28
 484:	0000200e 	andeq	r2, r0, lr
 488:	00000020 	andeq	r0, r0, r0, lsr #32
 48c:	000003e8 	andeq	r0, r0, r8, ror #7
 490:	00009094 	muleq	r0, r4, r0
 494:	000000d4 	ldrdeq	r0, [r0], -r4
 498:	84180e42 	ldrhi	r0, [r8], #-3650	; 0xe42
 49c:	86058506 	strhi	r8, [r5], -r6, lsl #10
 4a0:	88038704 	stmdahi	r3, {r2, r8, r9, sl, pc}
 4a4:	42018e02 	andmi	r8, r1, #2, 28
 4a8:	0000200e 	andeq	r2, r0, lr
 4ac:	00000014 	andeq	r0, r0, r4, lsl r0
 4b0:	000003e8 	andeq	r0, r0, r8, ror #7
 4b4:	00009168 	andeq	r9, r0, r8, ror #2
 4b8:	0000003c 	andeq	r0, r0, ip, lsr r0
 4bc:	83080e42 	movwhi	r0, #36418	; 0x8e42
 4c0:	00018e02 	andeq	r8, r1, r2, lsl #28
 4c4:	00000018 	andeq	r0, r0, r8, lsl r0
 4c8:	000003e8 	andeq	r0, r0, r8, ror #7
 4cc:	000091a4 	andeq	r9, r0, r4, lsr #3
 4d0:	0000002c 	andeq	r0, r0, ip, lsr #32
 4d4:	83100e42 	tsthi	r0, #1056	; 0x420
 4d8:	85038404 	strhi	r8, [r3, #-1028]	; 0x404
 4dc:	00018e02 	andeq	r8, r1, r2, lsl #28
 4e0:	00000024 	andeq	r0, r0, r4, lsr #32
 4e4:	000003e8 	andeq	r0, r0, r8, ror #7
 4e8:	000091d0 	ldrdeq	r9, [r0], -r0
 4ec:	00000090 	muleq	r0, r0, r0
 4f0:	810c0e42 	tsthi	ip, r2, asr #28
 4f4:	83028203 	movwhi	r8, #8707	; 0x2203
 4f8:	180e4201 	stmdane	lr, {r0, r9, lr}
 4fc:	05850684 	streq	r0, [r5, #1668]	; 0x684
 500:	0e42048e 	cdpeq	4, 4, cr0, cr2, cr14, {4}
 504:	000003f0 	strdeq	r0, [r0], -r0	; <UNPREDICTABLE>
 508:	00000014 	andeq	r0, r0, r4, lsl r0
 50c:	000003e8 	andeq	r0, r0, r8, ror #7
 510:	00009260 	andeq	r9, r0, r0, ror #4
 514:	0000004c 	andeq	r0, r0, ip, asr #32
 518:	8e040e42 	cdphi	14, 0, cr0, cr4, cr2, {2}
 51c:	100e4201 	andne	r4, lr, r1, lsl #4
 520:	0000000c 	andeq	r0, r0, ip
 524:	ffffffff 			; <UNDEFINED> instruction: 0xffffffff
 528:	7c020001 	stcvc	0, cr0, [r2], {1}
 52c:	000d0c0e 	andeq	r0, sp, lr, lsl #24
 530:	00000018 	andeq	r0, r0, r8, lsl r0
 534:	00000520 	andeq	r0, r0, r0, lsr #10
 538:	000092ac 	andeq	r9, r0, ip, lsr #5
 53c:	0000009c 	muleq	r0, ip, r0
 540:	83100e42 	tsthi	r0, #1056	; 0x420
 544:	85038404 	strhi	r8, [r3, #-1028]	; 0x404
 548:	00018e02 	andeq	r8, r1, r2, lsl #28
 54c:	00000014 	andeq	r0, r0, r4, lsl r0
 550:	00000520 	andeq	r0, r0, r0, lsr #10
 554:	00009348 	andeq	r9, r0, r8, asr #6
 558:	0000001c 	andeq	r0, r0, ip, lsl r0
 55c:	83080e42 	movwhi	r0, #36418	; 0x8e42
 560:	00018e02 	andeq	r8, r1, r2, lsl #28
 564:	00000014 	andeq	r0, r0, r4, lsl r0
 568:	00000520 	andeq	r0, r0, r0, lsr #10
 56c:	00009364 	andeq	r9, r0, r4, ror #6
 570:	00000028 	andeq	r0, r0, r8, lsr #32
 574:	83080e42 	movwhi	r0, #36418	; 0x8e42
 578:	00018e02 	andeq	r8, r1, r2, lsl #28
 57c:	00000014 	andeq	r0, r0, r4, lsl r0
 580:	00000520 	andeq	r0, r0, r0, lsr #10
 584:	0000938c 	andeq	r9, r0, ip, lsl #7
 588:	0000001c 	andeq	r0, r0, ip, lsl r0
 58c:	83080e42 	movwhi	r0, #36418	; 0x8e42
 590:	00018e02 	andeq	r8, r1, r2, lsl #28
 594:	00000014 	andeq	r0, r0, r4, lsl r0
 598:	00000520 	andeq	r0, r0, r0, lsr #10
 59c:	000093a8 	andeq	r9, r0, r8, lsr #7
 5a0:	0000002c 	andeq	r0, r0, ip, lsr #32
 5a4:	84080e42 	strhi	r0, [r8], #-3650	; 0xe42
 5a8:	00018e02 	andeq	r8, r1, r2, lsl #28
 5ac:	00000014 	andeq	r0, r0, r4, lsl r0
 5b0:	00000520 	andeq	r0, r0, r0, lsr #10
 5b4:	000093d4 	ldrdeq	r9, [r0], -r4
 5b8:	0000000c 	andeq	r0, r0, ip
 5bc:	83080e42 	movwhi	r0, #36418	; 0x8e42
 5c0:	00018e02 	andeq	r8, r1, r2, lsl #28
 5c4:	00000014 	andeq	r0, r0, r4, lsl r0
 5c8:	00000520 	andeq	r0, r0, r0, lsr #10
 5cc:	000093e0 	andeq	r9, r0, r0, ror #7
 5d0:	00000020 	andeq	r0, r0, r0, lsr #32
 5d4:	83080e42 	movwhi	r0, #36418	; 0x8e42
 5d8:	00018e02 	andeq	r8, r1, r2, lsl #28
 5dc:	0000000c 	andeq	r0, r0, ip
 5e0:	ffffffff 			; <UNDEFINED> instruction: 0xffffffff
 5e4:	7c020001 	stcvc	0, cr0, [r2], {1}
 5e8:	000d0c0e 	andeq	r0, sp, lr, lsl #24
 5ec:	00000018 	andeq	r0, r0, r8, lsl r0
 5f0:	000005dc 	ldrdeq	r0, [r0], -ip
 5f4:	00009464 	andeq	r9, r0, r4, ror #8
 5f8:	000000d4 	ldrdeq	r0, [r0], -r4
 5fc:	83100e42 	tsthi	r0, #1056	; 0x420
 600:	85038404 	strhi	r8, [r3, #-1028]	; 0x404
 604:	00018e02 	andeq	r8, r1, r2, lsl #28
 608:	00000014 	andeq	r0, r0, r4, lsl r0
 60c:	000005dc 	ldrdeq	r0, [r0], -ip
 610:	00009538 	andeq	r9, r0, r8, lsr r5
 614:	00000038 	andeq	r0, r0, r8, lsr r0
 618:	83080e42 	movwhi	r0, #36418	; 0x8e42
 61c:	00018e02 	andeq	r8, r1, r2, lsl #28
 620:	00000014 	andeq	r0, r0, r4, lsl r0
 624:	000005dc 	ldrdeq	r0, [r0], -ip
 628:	00009570 	andeq	r9, r0, r0, ror r5
 62c:	00000038 	andeq	r0, r0, r8, lsr r0
 630:	83080e42 	movwhi	r0, #36418	; 0x8e42
 634:	00018e02 	andeq	r8, r1, r2, lsl #28
 638:	00000018 	andeq	r0, r0, r8, lsl r0
 63c:	000005dc 	ldrdeq	r0, [r0], -ip
 640:	000095a8 	andeq	r9, r0, r8, lsr #11
 644:	000000cc 	andeq	r0, r0, ip, asr #1
 648:	83100e42 	tsthi	r0, #1056	; 0x420
 64c:	85038404 	strhi	r8, [r3, #-1028]	; 0x404
 650:	00018e02 	andeq	r8, r1, r2, lsl #28
 654:	00000014 	andeq	r0, r0, r4, lsl r0
 658:	000005dc 	ldrdeq	r0, [r0], -ip
 65c:	00009674 	andeq	r9, r0, r4, ror r6
 660:	0000004c 	andeq	r0, r0, ip, asr #32
 664:	84080e42 	strhi	r0, [r8], #-3650	; 0xe42
 668:	00018e02 	andeq	r8, r1, r2, lsl #28
 66c:	00000014 	andeq	r0, r0, r4, lsl r0
 670:	000005dc 	ldrdeq	r0, [r0], -ip
 674:	000096c0 	andeq	r9, r0, r0, asr #13
 678:	00000024 	andeq	r0, r0, r4, lsr #32
 67c:	83080e42 	movwhi	r0, #36418	; 0x8e42
 680:	00018e02 	andeq	r8, r1, r2, lsl #28
 684:	00000018 	andeq	r0, r0, r8, lsl r0
 688:	000005dc 	ldrdeq	r0, [r0], -ip
 68c:	000096e4 	andeq	r9, r0, r4, ror #13
 690:	000000d8 	ldrdeq	r0, [r0], -r8
 694:	84100e42 	ldrhi	r0, [r0], #-3650	; 0xe42
 698:	86038504 	strhi	r8, [r3], -r4, lsl #10
 69c:	00018e02 	andeq	r8, r1, r2, lsl #28
 6a0:	00000014 	andeq	r0, r0, r4, lsl r0
 6a4:	000005dc 	ldrdeq	r0, [r0], -ip
 6a8:	000097bc 			; <UNDEFINED> instruction: 0x000097bc
 6ac:	0000002c 	andeq	r0, r0, ip, lsr #32
 6b0:	83080e42 	movwhi	r0, #36418	; 0x8e42
 6b4:	00018e02 	andeq	r8, r1, r2, lsl #28
 6b8:	00000018 	andeq	r0, r0, r8, lsl r0
 6bc:	000005dc 	ldrdeq	r0, [r0], -ip
 6c0:	000097e8 	andeq	r9, r0, r8, ror #15
 6c4:	00000084 	andeq	r0, r0, r4, lsl #1
 6c8:	83100e42 	tsthi	r0, #1056	; 0x420
 6cc:	85038404 	strhi	r8, [r3, #-1028]	; 0x404
 6d0:	00018e02 	andeq	r8, r1, r2, lsl #28
 6d4:	00000018 	andeq	r0, r0, r8, lsl r0
 6d8:	000005dc 	ldrdeq	r0, [r0], -ip
 6dc:	0000986c 	andeq	r9, r0, ip, ror #16
 6e0:	00000084 	andeq	r0, r0, r4, lsl #1
 6e4:	83100e42 	tsthi	r0, #1056	; 0x420
 6e8:	85038404 	strhi	r8, [r3, #-1028]	; 0x404
 6ec:	00018e02 	andeq	r8, r1, r2, lsl #28
 6f0:	00000014 	andeq	r0, r0, r4, lsl r0
 6f4:	000005dc 	ldrdeq	r0, [r0], -ip
 6f8:	000098f0 	strdeq	r9, [r0], -r0
 6fc:	00000084 	andeq	r0, r0, r4, lsl #1
 700:	84080e42 	strhi	r0, [r8], #-3650	; 0xe42
 704:	00018e02 	andeq	r8, r1, r2, lsl #28
 708:	00000014 	andeq	r0, r0, r4, lsl r0
 70c:	000005dc 	ldrdeq	r0, [r0], -ip
 710:	00009974 	andeq	r9, r0, r4, ror r9
 714:	00000058 	andeq	r0, r0, r8, asr r0
 718:	84080e42 	strhi	r0, [r8], #-3650	; 0xe42
 71c:	00018e02 	andeq	r8, r1, r2, lsl #28
 720:	0000000c 	andeq	r0, r0, ip
 724:	ffffffff 			; <UNDEFINED> instruction: 0xffffffff
 728:	7c020001 	stcvc	0, cr0, [r2], {1}
 72c:	000d0c0e 	andeq	r0, sp, lr, lsl #24
 730:	00000014 	andeq	r0, r0, r4, lsl r0
 734:	00000720 	andeq	r0, r0, r0, lsr #14
 738:	000099cc 	andeq	r9, r0, ip, asr #19
 73c:	00000028 	andeq	r0, r0, r8, lsr #32
 740:	83080e42 	movwhi	r0, #36418	; 0x8e42
 744:	00018e02 	andeq	r8, r1, r2, lsl #28
 748:	0000000c 	andeq	r0, r0, ip
 74c:	00000720 	andeq	r0, r0, r0, lsr #14
 750:	000099f4 	strdeq	r9, [r0], -r4
 754:	00000028 	andeq	r0, r0, r8, lsr #32
 758:	0000000c 	andeq	r0, r0, ip
 75c:	ffffffff 			; <UNDEFINED> instruction: 0xffffffff
 760:	7c020001 	stcvc	0, cr0, [r2], {1}
 764:	000d0c0e 	andeq	r0, sp, lr, lsl #24
 768:	0000000c 	andeq	r0, r0, ip
 76c:	00000758 	andeq	r0, r0, r8, asr r7
 770:	00009a1c 	andeq	r9, r0, ip, lsl sl
 774:	00000020 	andeq	r0, r0, r0, lsr #32

Disassembly of section .debug_ranges:

00000000 <.debug_ranges>:
   0:	000002b4 			; <UNDEFINED> instruction: 0x000002b4
   4:	000002b8 			; <UNDEFINED> instruction: 0x000002b8
   8:	000002e8 	andeq	r0, r0, r8, ror #5
   c:	000004e0 	andeq	r0, r0, r0, ror #9
	...
  18:	00008b48 	andeq	r8, r0, r8, asr #22
  1c:	00008bbc 			; <UNDEFINED> instruction: 0x00008bbc
	...
