
tests/16-part1-test3.elf:     file format elf32-littlearm


Disassembly of section .text:

00008000 <__code_start__>:
    8000:	e3a0d302 	mov	sp, #134217728	; 0x8000000
    8004:	e3a0b000 	mov	fp, #0
    8008:	eb0003b2 	bl	8ed8 <_cstart>
    800c:	eb00042b 	bl	90c0 <rpi_reboot>

00008010 <user_test>:
    8010:	e3a03000 	mov	r3, #0
    8014:	e59f2028 	ldr	r2, [pc, #40]	; 8044 <user_test+0x34>
    8018:	ea000003 	b	802c <user_test+0x1c>
    801c:	e5921000 	ldr	r1, [r2]
    8020:	e2811001 	add	r1, r1, #1
    8024:	e5821000 	str	r1, [r2]
    8028:	e2833001 	add	r3, r3, #1
    802c:	e3530063 	cmp	r3, #99	; 0x63
    8030:	dafffff9 	ble	801c <user_test+0xc>
    8034:	e3a02001 	mov	r2, #1
    8038:	e59f3008 	ldr	r3, [pc, #8]	; 8048 <user_test+0x38>
    803c:	e5832000 	str	r2, [r3]
    8040:	e12fff1e 	bx	lr
    8044:	00009b34 	andeq	r9, r0, r4, lsr fp
    8048:	00009b30 	andeq	r9, r0, r0, lsr fp

0000804c <single_step_handler>:
    804c:	e92d4010 	push	{r4, lr}
    8050:	e24dd008 	sub	sp, sp, #8
    8054:	e1a04001 	mov	r4, r1
    8058:	e59f3118 	ldr	r3, [pc, #280]	; 8178 <single_step_handler+0x12c>
    805c:	e5933000 	ldr	r3, [r3]
    8060:	e3530000 	cmp	r3, #0
    8064:	0a000007 	beq	8088 <single_step_handler+0x3c>
    8068:	e58d1000 	str	r1, [sp]
    806c:	e59f3108 	ldr	r3, [pc, #264]	; 817c <single_step_handler+0x130>
    8070:	e58d3004 	str	r3, [sp, #4]
    8074:	e59f0104 	ldr	r0, [pc, #260]	; 8180 <single_step_handler+0x134>
    8078:	e59f1104 	ldr	r1, [pc, #260]	; 8184 <single_step_handler+0x138>
    807c:	e59f2104 	ldr	r2, [pc, #260]	; 8188 <single_step_handler+0x13c>
    8080:	e3a03015 	mov	r3, #21
    8084:	eb0001f0 	bl	884c <printk>
    8088:	ee153f30 	mrc	15, 0, r3, cr5, cr0, {1}
    808c:	e203300f 	and	r3, r3, #15
    8090:	e3530002 	cmp	r3, #2
    8094:	0a000006 	beq	80b4 <single_step_handler+0x68>
    8098:	eb000206 	bl	88b8 <rpi_reset_putc>
    809c:	e59f00e8 	ldr	r0, [pc, #232]	; 818c <single_step_handler+0x140>
    80a0:	e59f10dc 	ldr	r1, [pc, #220]	; 8184 <single_step_handler+0x138>
    80a4:	e59f20dc 	ldr	r2, [pc, #220]	; 8188 <single_step_handler+0x13c>
    80a8:	e3a03018 	mov	r3, #24
    80ac:	eb0001e6 	bl	884c <printk>
    80b0:	eb00037d 	bl	8eac <clean_reboot>
    80b4:	e59f30d4 	ldr	r3, [pc, #212]	; 8190 <single_step_handler+0x144>
    80b8:	e5933000 	ldr	r3, [r3]
    80bc:	e3530000 	cmp	r3, #0
    80c0:	0a000013 	beq	8114 <single_step_handler+0xc8>
    80c4:	e59f30c8 	ldr	r3, [pc, #200]	; 8194 <single_step_handler+0x148>
    80c8:	e5933000 	ldr	r3, [r3]
    80cc:	e3530064 	cmp	r3, #100	; 0x64
    80d0:	0a000008 	beq	80f8 <single_step_handler+0xac>
    80d4:	eb0001f7 	bl	88b8 <rpi_reset_putc>
    80d8:	e59f30b8 	ldr	r3, [pc, #184]	; 8198 <single_step_handler+0x14c>
    80dc:	e58d3000 	str	r3, [sp]
    80e0:	e59f00b4 	ldr	r0, [pc, #180]	; 819c <single_step_handler+0x150>
    80e4:	e59f1098 	ldr	r1, [pc, #152]	; 8184 <single_step_handler+0x138>
    80e8:	e59f2098 	ldr	r2, [pc, #152]	; 8188 <single_step_handler+0x13c>
    80ec:	e3a0301b 	mov	r3, #27
    80f0:	eb0001d5 	bl	884c <printk>
    80f4:	eb00036c 	bl	8eac <clean_reboot>
    80f8:	e59f00a0 	ldr	r0, [pc, #160]	; 81a0 <single_step_handler+0x154>
    80fc:	eb0001d2 	bl	884c <printk>
    8100:	e59f308c 	ldr	r3, [pc, #140]	; 8194 <single_step_handler+0x148>
    8104:	e5931000 	ldr	r1, [r3]
    8108:	e59f0094 	ldr	r0, [pc, #148]	; 81a4 <single_step_handler+0x158>
    810c:	eb0001ce 	bl	884c <printk>
    8110:	eb000365 	bl	8eac <clean_reboot>
    8114:	e59f305c 	ldr	r3, [pc, #92]	; 8178 <single_step_handler+0x12c>
    8118:	e5933000 	ldr	r3, [r3]
    811c:	e3530000 	cmp	r3, #0
    8120:	0a000005 	beq	813c <single_step_handler+0xf0>
    8124:	e58d4000 	str	r4, [sp]
    8128:	e59f0078 	ldr	r0, [pc, #120]	; 81a8 <single_step_handler+0x15c>
    812c:	e59f1050 	ldr	r1, [pc, #80]	; 8184 <single_step_handler+0x138>
    8130:	e59f2050 	ldr	r2, [pc, #80]	; 8188 <single_step_handler+0x13c>
    8134:	e3a0301e 	mov	r3, #30
    8138:	eb0001c3 	bl	884c <printk>
    813c:	e1a00004 	mov	r0, r4
    8140:	e59f1064 	ldr	r1, [pc, #100]	; 81ac <single_step_handler+0x160>
    8144:	eb000156 	bl	86a4 <brkpt_mismatch_set0>
    8148:	e59f3028 	ldr	r3, [pc, #40]	; 8178 <single_step_handler+0x12c>
    814c:	e5933000 	ldr	r3, [r3]
    8150:	e3530000 	cmp	r3, #0
    8154:	0a000005 	beq	8170 <single_step_handler+0x124>
    8158:	e58d4000 	str	r4, [sp]
    815c:	e59f004c 	ldr	r0, [pc, #76]	; 81b0 <single_step_handler+0x164>
    8160:	e59f101c 	ldr	r1, [pc, #28]	; 8184 <single_step_handler+0x138>
    8164:	e59f201c 	ldr	r2, [pc, #28]	; 8188 <single_step_handler+0x13c>
    8168:	e3a03020 	mov	r3, #32
    816c:	eb0001b6 	bl	884c <printk>
    8170:	e28dd008 	add	sp, sp, #8
    8174:	e8bd8010 	pop	{r4, pc}
    8178:	00009b40 	andeq	r9, r0, r0, asr #22
    817c:	00008010 	andeq	r8, r0, r0, lsl r0
    8180:	000094a8 	andeq	r9, r0, r8, lsr #9
    8184:	000094d8 	ldrdeq	r9, [r0], -r8
    8188:	00009700 	andeq	r9, r0, r0, lsl #14
    818c:	000094f0 	strdeq	r9, [r0], -r0
    8190:	00009b30 	andeq	r9, r0, r0, lsr fp
    8194:	00009b34 	andeq	r9, r0, r4, lsr fp
    8198:	0000953c 	andeq	r9, r0, ip, lsr r5
    819c:	00009528 	andeq	r9, r0, r8, lsr #10
    81a0:	00009548 	andeq	r9, r0, r8, asr #10
    81a4:	00009554 	andeq	r9, r0, r4, asr r5
    81a8:	00009574 	andeq	r9, r0, r4, ror r5
    81ac:	0000804c 	andeq	r8, r0, ip, asr #32
    81b0:	0000959c 	muleq	r0, ip, r5

000081b4 <notmain>:
    81b4:	e92d4030 	push	{r4, r5, lr}
    81b8:	e24dd00c 	sub	sp, sp, #12
    81bc:	eb0000ea 	bl	856c <cp14_enable>
    81c0:	eb000331 	bl	8e8c <enable_cache>
    81c4:	e10f5000 	mrs	r5, CPSR
    81c8:	e3a02001 	mov	r2, #1
    81cc:	e59f31b4 	ldr	r3, [pc, #436]	; 8388 <notmain+0x1d4>
    81d0:	e5832000 	str	r2, [r3]
    81d4:	e10f4000 	mrs	r4, CPSR
    81d8:	e204301f 	and	r3, r4, #31
    81dc:	e3530012 	cmp	r3, #18
    81e0:	13530010 	cmpne	r3, #16
    81e4:	0a000005 	beq	8200 <notmain+0x4c>
    81e8:	e3530017 	cmp	r3, #23
    81ec:	13530013 	cmpne	r3, #19
    81f0:	0a000004 	beq	8208 <notmain+0x54>
    81f4:	e353001f 	cmp	r3, #31
    81f8:	1a000004 	bne	8210 <notmain+0x5c>
    81fc:	ea000004 	b	8214 <notmain+0x60>
    8200:	e3a02001 	mov	r2, #1
    8204:	ea000002 	b	8214 <notmain+0x60>
    8208:	e3a02001 	mov	r2, #1
    820c:	ea000000 	b	8214 <notmain+0x60>
    8210:	e3a02000 	mov	r2, #0
    8214:	e3520000 	cmp	r2, #0
    8218:	1a000008 	bne	8240 <notmain+0x8c>
    821c:	eb0001a5 	bl	88b8 <rpi_reset_putc>
    8220:	e59f3164 	ldr	r3, [pc, #356]	; 838c <notmain+0x1d8>
    8224:	e58d3000 	str	r3, [sp]
    8228:	e59f0160 	ldr	r0, [pc, #352]	; 8390 <notmain+0x1dc>
    822c:	e59f1160 	ldr	r1, [pc, #352]	; 8394 <notmain+0x1e0>
    8230:	e59f2160 	ldr	r2, [pc, #352]	; 8398 <notmain+0x1e4>
    8234:	e3a03011 	mov	r3, #17
    8238:	eb000183 	bl	884c <printk>
    823c:	eb00031a 	bl	8eac <clean_reboot>
    8240:	e2433010 	sub	r3, r3, #16
    8244:	e353000f 	cmp	r3, #15
    8248:	979ff103 	ldrls	pc, [pc, r3, lsl #2]
    824c:	ea000019 	b	82b8 <notmain+0x104>
    8250:	000082d8 	ldrdeq	r8, [r0], -r8	; <UNPREDICTABLE>
    8254:	000082e0 	andeq	r8, r0, r0, ror #5
    8258:	00008290 	muleq	r0, r0, r2
    825c:	00008298 	muleq	r0, r8, r2
    8260:	000082b8 			; <UNDEFINED> instruction: 0x000082b8
    8264:	000082b8 			; <UNDEFINED> instruction: 0x000082b8
    8268:	000082b8 			; <UNDEFINED> instruction: 0x000082b8
    826c:	000082a0 	andeq	r8, r0, r0, lsr #5
    8270:	000082b8 			; <UNDEFINED> instruction: 0x000082b8
    8274:	000082b8 			; <UNDEFINED> instruction: 0x000082b8
    8278:	000082b8 			; <UNDEFINED> instruction: 0x000082b8
    827c:	000082a8 	andeq	r8, r0, r8, lsr #5
    8280:	000082b8 			; <UNDEFINED> instruction: 0x000082b8
    8284:	000082b8 			; <UNDEFINED> instruction: 0x000082b8
    8288:	000082b8 			; <UNDEFINED> instruction: 0x000082b8
    828c:	000082b0 			; <UNDEFINED> instruction: 0x000082b0
    8290:	e59f3104 	ldr	r3, [pc, #260]	; 839c <notmain+0x1e8>
    8294:	ea000012 	b	82e4 <notmain+0x130>
    8298:	e59f3100 	ldr	r3, [pc, #256]	; 83a0 <notmain+0x1ec>
    829c:	ea000010 	b	82e4 <notmain+0x130>
    82a0:	e59f30fc 	ldr	r3, [pc, #252]	; 83a4 <notmain+0x1f0>
    82a4:	ea00000e 	b	82e4 <notmain+0x130>
    82a8:	e59f30f8 	ldr	r3, [pc, #248]	; 83a8 <notmain+0x1f4>
    82ac:	ea00000c 	b	82e4 <notmain+0x130>
    82b0:	e59f30f4 	ldr	r3, [pc, #244]	; 83ac <notmain+0x1f8>
    82b4:	ea00000a 	b	82e4 <notmain+0x130>
    82b8:	eb00017e 	bl	88b8 <rpi_reset_putc>
    82bc:	e58d4000 	str	r4, [sp]
    82c0:	e59f00e8 	ldr	r0, [pc, #232]	; 83b0 <notmain+0x1fc>
    82c4:	e59f10c8 	ldr	r1, [pc, #200]	; 8394 <notmain+0x1e0>
    82c8:	e59f20e4 	ldr	r2, [pc, #228]	; 83b4 <notmain+0x200>
    82cc:	e3a03021 	mov	r3, #33	; 0x21
    82d0:	eb00015d 	bl	884c <printk>
    82d4:	eb0002f4 	bl	8eac <clean_reboot>
    82d8:	e59f30d8 	ldr	r3, [pc, #216]	; 83b8 <notmain+0x204>
    82dc:	ea000000 	b	82e4 <notmain+0x130>
    82e0:	e59f30d4 	ldr	r3, [pc, #212]	; 83bc <notmain+0x208>
    82e4:	e58d3000 	str	r3, [sp]
    82e8:	e59f00d0 	ldr	r0, [pc, #208]	; 83c0 <notmain+0x20c>
    82ec:	e59f10d0 	ldr	r1, [pc, #208]	; 83c4 <notmain+0x210>
    82f0:	e59f20d0 	ldr	r2, [pc, #208]	; 83c8 <notmain+0x214>
    82f4:	e3a0302d 	mov	r3, #45	; 0x2d
    82f8:	eb000153 	bl	884c <printk>
    82fc:	e59f3084 	ldr	r3, [pc, #132]	; 8388 <notmain+0x1d4>
    8300:	e5933000 	ldr	r3, [r3]
    8304:	e3530000 	cmp	r3, #0
    8308:	0a000004 	beq	8320 <notmain+0x16c>
    830c:	e59f00b8 	ldr	r0, [pc, #184]	; 83cc <notmain+0x218>
    8310:	e59f10ac 	ldr	r1, [pc, #172]	; 83c4 <notmain+0x210>
    8314:	e59f20ac 	ldr	r2, [pc, #172]	; 83c8 <notmain+0x214>
    8318:	e3a03030 	mov	r3, #48	; 0x30
    831c:	eb00014a 	bl	884c <printk>
    8320:	e3a00000 	mov	r0, #0
    8324:	e59f10a4 	ldr	r1, [pc, #164]	; 83d0 <notmain+0x21c>
    8328:	eb0000dd 	bl	86a4 <brkpt_mismatch_set0>
    832c:	e59f3054 	ldr	r3, [pc, #84]	; 8388 <notmain+0x1d4>
    8330:	e5933000 	ldr	r3, [r3]
    8334:	e3530000 	cmp	r3, #0
    8338:	0a000004 	beq	8350 <notmain+0x19c>
    833c:	e59f0090 	ldr	r0, [pc, #144]	; 83d4 <notmain+0x220>
    8340:	e59f107c 	ldr	r1, [pc, #124]	; 83c4 <notmain+0x210>
    8344:	e59f207c 	ldr	r2, [pc, #124]	; 83c8 <notmain+0x214>
    8348:	e3a03032 	mov	r3, #50	; 0x32
    834c:	eb00013e 	bl	884c <printk>
    8350:	e3a02000 	mov	r2, #0
    8354:	e59f302c 	ldr	r3, [pc, #44]	; 8388 <notmain+0x1d4>
    8358:	e5832000 	str	r2, [r3]
    835c:	e3c5001f 	bic	r0, r5, #31
    8360:	e3800010 	orr	r0, r0, #16
    8364:	e59f106c 	ldr	r1, [pc, #108]	; 83d8 <notmain+0x224>
    8368:	eb00012d 	bl	8824 <user_trampoline_no_ret>
    836c:	eb000151 	bl	88b8 <rpi_reset_putc>
    8370:	e59f0064 	ldr	r0, [pc, #100]	; 83dc <notmain+0x228>
    8374:	e59f1048 	ldr	r1, [pc, #72]	; 83c4 <notmain+0x210>
    8378:	e59f2048 	ldr	r2, [pc, #72]	; 83c8 <notmain+0x214>
    837c:	e3a03038 	mov	r3, #56	; 0x38
    8380:	eb000131 	bl	884c <printk>
    8384:	eb0002c8 	bl	8eac <clean_reboot>
    8388:	00009b40 	andeq	r9, r0, r0, asr #22
    838c:	0000962c 	andeq	r9, r0, ip, lsr #12
    8390:	00009528 	andeq	r9, r0, r8, lsr #10
    8394:	0000961c 	andeq	r9, r0, ip, lsl r6
    8398:	00009720 	andeq	r9, r0, r0, lsr #14
    839c:	000095e0 	andeq	r9, r0, r0, ror #11
    83a0:	000095ec 	andeq	r9, r0, ip, ror #11
    83a4:	000095f8 	strdeq	r9, [r0], -r8
    83a8:	00009604 	andeq	r9, r0, r4, lsl #12
    83ac:	00009610 	andeq	r9, r0, r0, lsl r6
    83b0:	00009640 	andeq	r9, r0, r0, asr #12
    83b4:	00009714 	andeq	r9, r0, r4, lsl r7
    83b8:	000095c8 	andeq	r9, r0, r8, asr #11
    83bc:	000095d4 	ldrdeq	r9, [r0], -r4
    83c0:	00009664 	andeq	r9, r0, r4, ror #12
    83c4:	000094d8 	ldrdeq	r9, [r0], -r8
    83c8:	000096f8 	strdeq	r9, [r0], -r8
    83cc:	00009680 	andeq	r9, r0, r0, lsl #13
    83d0:	0000804c 	andeq	r8, r0, ip, asr #32
    83d4:	000096a8 	andeq	r9, r0, r8, lsr #13
    83d8:	00008010 	andeq	r8, r0, r0, lsl r0
    83dc:	000096c8 	andeq	r9, r0, r8, asr #13

000083e0 <watchpt_set0>:
    83e0:	e52de004 	push	{lr}		; (str lr, [sp, #-4]!)
    83e4:	e24dd00c 	sub	sp, sp, #12
    83e8:	ee103ef0 	mrc	14, 0, r3, cr0, cr0, {7}
    83ec:	e3c33001 	bic	r3, r3, #1
    83f0:	ee003ef0 	mcr	14, 0, r3, cr0, cr0, {7}
    83f4:	ee102ef0 	mrc	14, 0, r2, cr0, cr0, {7}
    83f8:	e1530002 	cmp	r3, r2
    83fc:	0a000008 	beq	8424 <watchpt_set0+0x44>
    8400:	eb00012c 	bl	88b8 <rpi_reset_putc>
    8404:	e59f306c 	ldr	r3, [pc, #108]	; 8478 <watchpt_set0+0x98>
    8408:	e58d3000 	str	r3, [sp]
    840c:	e59f0068 	ldr	r0, [pc, #104]	; 847c <watchpt_set0+0x9c>
    8410:	e59f1068 	ldr	r1, [pc, #104]	; 8480 <watchpt_set0+0xa0>
    8414:	e59f2068 	ldr	r2, [pc, #104]	; 8484 <watchpt_set0+0xa4>
    8418:	e3a03041 	mov	r3, #65	; 0x41
    841c:	eb00010a 	bl	884c <printk>
    8420:	eb0002a1 	bl	8eac <clean_reboot>
    8424:	ee000ed0 	mcr	14, 0, r0, cr0, cr0, {6}
    8428:	e59f3058 	ldr	r3, [pc, #88]	; 8488 <watchpt_set0+0xa8>
    842c:	ee003ef0 	mcr	14, 0, r3, cr0, cr0, {7}
    8430:	ee102ef0 	mrc	14, 0, r2, cr0, cr0, {7}
    8434:	e1520003 	cmp	r2, r3
    8438:	0a000008 	beq	8460 <watchpt_set0+0x80>
    843c:	eb00011d 	bl	88b8 <rpi_reset_putc>
    8440:	e59f3030 	ldr	r3, [pc, #48]	; 8478 <watchpt_set0+0x98>
    8444:	e58d3000 	str	r3, [sp]
    8448:	e59f002c 	ldr	r0, [pc, #44]	; 847c <watchpt_set0+0x9c>
    844c:	e59f102c 	ldr	r1, [pc, #44]	; 8480 <watchpt_set0+0xa0>
    8450:	e59f202c 	ldr	r2, [pc, #44]	; 8484 <watchpt_set0+0xa4>
    8454:	e3a03052 	mov	r3, #82	; 0x52
    8458:	eb0000fb 	bl	884c <printk>
    845c:	eb000292 	bl	8eac <clean_reboot>
    8460:	e3a03000 	mov	r3, #0
    8464:	ee073f95 	mcr	15, 0, r3, cr7, cr5, {4}
    8468:	e59f301c 	ldr	r3, [pc, #28]	; 848c <watchpt_set0+0xac>
    846c:	e5831000 	str	r1, [r3]
    8470:	e28dd00c 	add	sp, sp, #12
    8474:	e49df004 	pop	{pc}		; (ldr pc, [sp], #4)
    8478:	00009760 	andeq	r9, r0, r0, ror #14
    847c:	00009528 	andeq	r9, r0, r8, lsr #10
    8480:	00009750 	andeq	r9, r0, r0, asr r7
    8484:	00009854 	andeq	r9, r0, r4, asr r8
    8488:	000001ff 	strdeq	r0, [r0], -pc	; <UNPREDICTABLE>
    848c:	00009b38 	andeq	r9, r0, r8, lsr fp

00008490 <data_abort_vector>:
    8490:	e52de004 	push	{lr}		; (str lr, [sp, #-4]!)
    8494:	e24dd00c 	sub	sp, sp, #12
    8498:	e1a01000 	mov	r1, r0
    849c:	ee153f10 	mrc	15, 0, r3, cr5, cr0, {0}
    84a0:	ee153f10 	mrc	15, 0, r3, cr5, cr0, {0}
    84a4:	e203300f 	and	r3, r3, #15
    84a8:	e3530002 	cmp	r3, #2
    84ac:	0a000006 	beq	84cc <data_abort_vector+0x3c>
    84b0:	eb000100 	bl	88b8 <rpi_reset_putc>
    84b4:	e59f008c 	ldr	r0, [pc, #140]	; 8548 <data_abort_vector+0xb8>
    84b8:	e59f108c 	ldr	r1, [pc, #140]	; 854c <data_abort_vector+0xbc>
    84bc:	e59f208c 	ldr	r2, [pc, #140]	; 8550 <data_abort_vector+0xc0>
    84c0:	e3a03079 	mov	r3, #121	; 0x79
    84c4:	eb0000e0 	bl	884c <printk>
    84c8:	eb000277 	bl	8eac <clean_reboot>
    84cc:	ee103e16 	mrc	14, 0, r3, cr0, cr6, {0}
    84d0:	e2433004 	sub	r3, r3, #4
    84d4:	e1530000 	cmp	r3, r0
    84d8:	0a000008 	beq	8500 <data_abort_vector+0x70>
    84dc:	eb0000f5 	bl	88b8 <rpi_reset_putc>
    84e0:	e59f306c 	ldr	r3, [pc, #108]	; 8554 <data_abort_vector+0xc4>
    84e4:	e58d3000 	str	r3, [sp]
    84e8:	e59f0068 	ldr	r0, [pc, #104]	; 8558 <data_abort_vector+0xc8>
    84ec:	e59f1068 	ldr	r1, [pc, #104]	; 855c <data_abort_vector+0xcc>
    84f0:	e59f2068 	ldr	r2, [pc, #104]	; 8560 <data_abort_vector+0xd0>
    84f4:	e3a03067 	mov	r3, #103	; 0x67
    84f8:	eb0000d3 	bl	884c <printk>
    84fc:	eb00026a 	bl	8eac <clean_reboot>
    8500:	e59f305c 	ldr	r3, [pc, #92]	; 8564 <data_abort_vector+0xd4>
    8504:	e5933000 	ldr	r3, [r3]
    8508:	e3530000 	cmp	r3, #0
    850c:	1a000008 	bne	8534 <data_abort_vector+0xa4>
    8510:	eb0000e8 	bl	88b8 <rpi_reset_putc>
    8514:	e59f304c 	ldr	r3, [pc, #76]	; 8568 <data_abort_vector+0xd8>
    8518:	e58d3000 	str	r3, [sp]
    851c:	e59f0034 	ldr	r0, [pc, #52]	; 8558 <data_abort_vector+0xc8>
    8520:	e59f1034 	ldr	r1, [pc, #52]	; 855c <data_abort_vector+0xcc>
    8524:	e59f2034 	ldr	r2, [pc, #52]	; 8560 <data_abort_vector+0xd0>
    8528:	e3a03069 	mov	r3, #105	; 0x69
    852c:	eb0000c6 	bl	884c <printk>
    8530:	eb00025d 	bl	8eac <clean_reboot>
    8534:	ee162f10 	mrc	15, 0, r2, cr6, cr0, {0}
    8538:	e3a00000 	mov	r0, #0
    853c:	e12fff33 	blx	r3
    8540:	e28dd00c 	add	sp, sp, #12
    8544:	e49df004 	pop	{pc}		; (ldr pc, [sp], #4)
    8548:	00009778 	andeq	r9, r0, r8, ror r7
    854c:	000097b0 			; <UNDEFINED> instruction: 0x000097b0
    8550:	00009878 	andeq	r9, r0, r8, ror r8
    8554:	000097c0 	andeq	r9, r0, r0, asr #15
    8558:	00009528 	andeq	r9, r0, r8, lsr #10
    855c:	00009750 	andeq	r9, r0, r0, asr r7
    8560:	00009864 	andeq	r9, r0, r4, ror #16
    8564:	00009b38 	andeq	r9, r0, r8, lsr fp
    8568:	000097d4 	ldrdeq	r9, [r0], -r4

0000856c <cp14_enable>:
    856c:	e92d4008 	push	{r3, lr}
    8570:	e59f302c 	ldr	r3, [pc, #44]	; 85a4 <cp14_enable+0x38>
    8574:	e5933000 	ldr	r3, [r3]
    8578:	e3530000 	cmp	r3, #0
    857c:	1a000003 	bne	8590 <cp14_enable+0x24>
    8580:	eb0002a8 	bl	9028 <int_init>
    8584:	e3a02001 	mov	r2, #1
    8588:	e59f3014 	ldr	r3, [pc, #20]	; 85a4 <cp14_enable+0x38>
    858c:	e5832000 	str	r2, [r3]
    8590:	e3a03902 	mov	r3, #32768	; 0x8000
    8594:	ee003e11 	mcr	14, 0, r3, cr0, cr1, {0}
    8598:	e3a03000 	mov	r3, #0
    859c:	ee073f95 	mcr	15, 0, r3, cr7, cr5, {4}
    85a0:	e8bd8008 	pop	{r3, pc}
    85a4:	00009b48 	andeq	r9, r0, r8, asr #22

000085a8 <brkpt_set0>:
    85a8:	ee103eb0 	mrc	14, 0, r3, cr0, cr0, {5}
    85ac:	e3c33001 	bic	r3, r3, #1
    85b0:	ee003eb0 	mcr	14, 0, r3, cr0, cr0, {5}
    85b4:	ee000e90 	mcr	14, 0, r0, cr0, cr0, {4}
    85b8:	e59f3014 	ldr	r3, [pc, #20]	; 85d4 <brkpt_set0+0x2c>
    85bc:	ee003eb0 	mcr	14, 0, r3, cr0, cr0, {5}
    85c0:	e3a03000 	mov	r3, #0
    85c4:	ee073f95 	mcr	15, 0, r3, cr7, cr5, {4}
    85c8:	e59f3008 	ldr	r3, [pc, #8]	; 85d8 <brkpt_set0+0x30>
    85cc:	e5831000 	str	r1, [r3]
    85d0:	e12fff1e 	bx	lr
    85d4:	000001e7 	andeq	r0, r0, r7, ror #3
    85d8:	00009b3c 	andeq	r9, r0, ip, lsr fp

000085dc <prefetch_abort_vector>:
    85dc:	e52de004 	push	{lr}		; (str lr, [sp, #-4]!)
    85e0:	e24dd00c 	sub	sp, sp, #12
    85e4:	e1a01000 	mov	r1, r0
    85e8:	ee153f30 	mrc	15, 0, r3, cr5, cr0, {1}
    85ec:	e203300f 	and	r3, r3, #15
    85f0:	e3530002 	cmp	r3, #2
    85f4:	0a000006 	beq	8614 <prefetch_abort_vector+0x38>
    85f8:	eb0000ae 	bl	88b8 <rpi_reset_putc>
    85fc:	e59f0058 	ldr	r0, [pc, #88]	; 865c <prefetch_abort_vector+0x80>
    8600:	e59f1058 	ldr	r1, [pc, #88]	; 8660 <prefetch_abort_vector+0x84>
    8604:	e59f2058 	ldr	r2, [pc, #88]	; 8664 <prefetch_abort_vector+0x88>
    8608:	e3a030c7 	mov	r3, #199	; 0xc7
    860c:	eb00008e 	bl	884c <printk>
    8610:	eb000225 	bl	8eac <clean_reboot>
    8614:	e59f304c 	ldr	r3, [pc, #76]	; 8668 <prefetch_abort_vector+0x8c>
    8618:	e5933000 	ldr	r3, [r3]
    861c:	e3530000 	cmp	r3, #0
    8620:	1a000008 	bne	8648 <prefetch_abort_vector+0x6c>
    8624:	eb0000a3 	bl	88b8 <rpi_reset_putc>
    8628:	e59f303c 	ldr	r3, [pc, #60]	; 866c <prefetch_abort_vector+0x90>
    862c:	e58d3000 	str	r3, [sp]
    8630:	e59f0038 	ldr	r0, [pc, #56]	; 8670 <prefetch_abort_vector+0x94>
    8634:	e59f1024 	ldr	r1, [pc, #36]	; 8660 <prefetch_abort_vector+0x84>
    8638:	e59f2024 	ldr	r2, [pc, #36]	; 8664 <prefetch_abort_vector+0x88>
    863c:	e3a030c8 	mov	r3, #200	; 0xc8
    8640:	eb000081 	bl	884c <printk>
    8644:	eb000218 	bl	8eac <clean_reboot>
    8648:	ee162f10 	mrc	15, 0, r2, cr6, cr0, {0}
    864c:	e3a00000 	mov	r0, #0
    8650:	e12fff33 	blx	r3
    8654:	e28dd00c 	add	sp, sp, #12
    8658:	e49df004 	pop	{pc}		; (ldr pc, [sp], #4)
    865c:	000094f0 	strdeq	r9, [r0], -r0
    8660:	00009750 	andeq	r9, r0, r0, asr r7
    8664:	0000988c 	andeq	r9, r0, ip, lsl #17
    8668:	00009b3c 	andeq	r9, r0, ip, lsr fp
    866c:	000097e8 	andeq	r9, r0, r8, ror #15
    8670:	00009528 	andeq	r9, r0, r8, lsr #10

00008674 <interrupt_vector>:
    8674:	e12fff1e 	bx	lr

00008678 <brk_no_ret_error>:
    8678:	e92d4008 	push	{r3, lr}
    867c:	eb00008d 	bl	88b8 <rpi_reset_putc>
    8680:	e59f0010 	ldr	r0, [pc, #16]	; 8698 <brk_no_ret_error+0x20>
    8684:	e59f1010 	ldr	r1, [pc, #16]	; 869c <brk_no_ret_error+0x24>
    8688:	e59f2010 	ldr	r2, [pc, #16]	; 86a0 <brk_no_ret_error+0x28>
    868c:	e3a030d9 	mov	r3, #217	; 0xd9
    8690:	eb00006d 	bl	884c <printk>
    8694:	eb000204 	bl	8eac <clean_reboot>
    8698:	000097f8 	strdeq	r9, [r0], -r8
    869c:	00009750 	andeq	r9, r0, r0, asr r7
    86a0:	000098a4 	andeq	r9, r0, r4, lsr #17

000086a4 <brkpt_mismatch_set0>:
    86a4:	ee103eb0 	mrc	14, 0, r3, cr0, cr0, {5}
    86a8:	e3c33001 	bic	r3, r3, #1
    86ac:	ee003eb0 	mcr	14, 0, r3, cr0, cr0, {5}
    86b0:	ee000e90 	mcr	14, 0, r0, cr0, cr0, {4}
    86b4:	e59f3014 	ldr	r3, [pc, #20]	; 86d0 <brkpt_mismatch_set0+0x2c>
    86b8:	ee003eb0 	mcr	14, 0, r3, cr0, cr0, {5}
    86bc:	e3a03000 	mov	r3, #0
    86c0:	ee073f95 	mcr	15, 0, r3, cr7, cr5, {4}
    86c4:	e59f3008 	ldr	r3, [pc, #8]	; 86d4 <brkpt_mismatch_set0+0x30>
    86c8:	e5831000 	str	r1, [r3]
    86cc:	e12fff1e 	bx	lr
    86d0:	004001e7 	subeq	r0, r0, r7, ror #3
    86d4:	00009b3c 	andeq	r9, r0, ip, lsr fp

000086d8 <brkpt_mismatch_disable0>:
    86d8:	e92d4008 	push	{r3, lr}
    86dc:	eb000075 	bl	88b8 <rpi_reset_putc>
    86e0:	e59f0010 	ldr	r0, [pc, #16]	; 86f8 <brkpt_mismatch_disable0+0x20>
    86e4:	e59f1010 	ldr	r1, [pc, #16]	; 86fc <brkpt_mismatch_disable0+0x24>
    86e8:	e59f2010 	ldr	r2, [pc, #16]	; 8700 <brkpt_mismatch_disable0+0x28>
    86ec:	e3a030f9 	mov	r3, #249	; 0xf9
    86f0:	eb000055 	bl	884c <printk>
    86f4:	eb0001ec 	bl	8eac <clean_reboot>
    86f8:	00009828 	andeq	r9, r0, r8, lsr #16
    86fc:	00009750 	andeq	r9, r0, r0, asr r7
    8700:	000098b8 			; <UNDEFINED> instruction: 0x000098b8

00008704 <syscall_vector>:
    8704:	e92d4008 	push	{r3, lr}
    8708:	eb00006a 	bl	88b8 <rpi_reset_putc>
    870c:	e59f0010 	ldr	r0, [pc, #16]	; 8724 <syscall_vector+0x20>
    8710:	e59f1010 	ldr	r1, [pc, #16]	; 8728 <syscall_vector+0x24>
    8714:	e59f2010 	ldr	r2, [pc, #16]	; 872c <syscall_vector+0x28>
    8718:	e59f3010 	ldr	r3, [pc, #16]	; 8730 <syscall_vector+0x2c>
    871c:	eb00004a 	bl	884c <printk>
    8720:	eb0001e1 	bl	8eac <clean_reboot>
    8724:	00009828 	andeq	r9, r0, r8, lsr #16
    8728:	00009750 	andeq	r9, r0, r0, asr r7
    872c:	000098d0 	ldrdeq	r9, [r0], -r0
    8730:	00000103 	andeq	r0, r0, r3, lsl #2

00008734 <_interrupt_table>:
    8734:	e59ff020 	ldr	pc, [pc, #32]	; 875c <_reset_asm>
    8738:	e59ff020 	ldr	pc, [pc, #32]	; 8760 <_undefined_instruction_asm>
    873c:	e59ff020 	ldr	pc, [pc, #32]	; 8764 <_software_interrupt_asm>
    8740:	e59ff020 	ldr	pc, [pc, #32]	; 8768 <_prefetch_abort_asm>
    8744:	e59ff020 	ldr	pc, [pc, #32]	; 876c <_data_abort_asm>
    8748:	e59ff00c 	ldr	pc, [pc, #12]	; 875c <_reset_asm>
    874c:	e59ff01c 	ldr	pc, [pc, #28]	; 8770 <_interrupt_asm>

00008750 <fast_interrupt_asm>:
    8750:	e3a0d409 	mov	sp, #150994944	; 0x9000000
    8754:	e24ee004 	sub	lr, lr, #4
    8758:	eb0001ec 	bl	8f10 <fast_interrupt_vector>

0000875c <_reset_asm>:
    875c:	00008790 	muleq	r0, r0, r7

00008760 <_undefined_instruction_asm>:
    8760:	000087b0 			; <UNDEFINED> instruction: 0x000087b0

00008764 <_software_interrupt_asm>:
    8764:	000087d0 	ldrdeq	r8, [r0], -r0

00008768 <_prefetch_abort_asm>:
    8768:	000087dc 	ldrdeq	r8, [r0], -ip

0000876c <_data_abort_asm>:
    876c:	00008800 	andeq	r8, r0, r0, lsl #16

00008770 <_interrupt_asm>:
    8770:	00008774 	andeq	r8, r0, r4, ror r7

00008774 <_interrupt_table_end>:
    8774:	e3a0d409 	mov	sp, #150994944	; 0x9000000
    8778:	e24ee004 	sub	lr, lr, #4
    877c:	e92d5fff 	push	{r0, r1, r2, r3, r4, r5, r6, r7, r8, r9, sl, fp, ip, lr}
    8780:	e1a0000e 	mov	r0, lr
    8784:	ebffffba 	bl	8674 <interrupt_vector>
    8788:	e8bd5fff 	pop	{r0, r1, r2, r3, r4, r5, r6, r7, r8, r9, sl, fp, ip, lr}
    878c:	e1b0f00e 	movs	pc, lr

00008790 <reset_asm>:
    8790:	e3a0d409 	mov	sp, #150994944	; 0x9000000
    8794:	e24ee004 	sub	lr, lr, #4
    8798:	e3a0d409 	mov	sp, #150994944	; 0x9000000
    879c:	e92d5fff 	push	{r0, r1, r2, r3, r4, r5, r6, r7, r8, r9, sl, fp, ip, lr}
    87a0:	e1a0000e 	mov	r0, lr
    87a4:	eb0001ea 	bl	8f54 <reset_vector>
    87a8:	e8bd5fff 	pop	{r0, r1, r2, r3, r4, r5, r6, r7, r8, r9, sl, fp, ip, lr}
    87ac:	e1b0f00e 	movs	pc, lr

000087b0 <undefined_instruction_asm>:
    87b0:	e3a0d409 	mov	sp, #150994944	; 0x9000000
    87b4:	e24ee004 	sub	lr, lr, #4
    87b8:	e3a0d409 	mov	sp, #150994944	; 0x9000000
    87bc:	e92d5fff 	push	{r0, r1, r2, r3, r4, r5, r6, r7, r8, r9, sl, fp, ip, lr}
    87c0:	e1a0000e 	mov	r0, lr
    87c4:	eb000204 	bl	8fdc <undefined_instruction_vector>
    87c8:	e8bd5fff 	pop	{r0, r1, r2, r3, r4, r5, r6, r7, r8, r9, sl, fp, ip, lr}
    87cc:	e1b0f00e 	movs	pc, lr

000087d0 <software_interrupt_asm>:
    87d0:	e3a0d409 	mov	sp, #150994944	; 0x9000000
    87d4:	e24ee004 	sub	lr, lr, #4
    87d8:	eb0001ee 	bl	8f98 <software_interrupt_vector>

000087dc <prefetch_abort_asm>:
    87dc:	e3a0d409 	mov	sp, #150994944	; 0x9000000
    87e0:	e1a0000e 	mov	r0, lr
    87e4:	e24ee004 	sub	lr, lr, #4
    87e8:	e3a0d409 	mov	sp, #150994944	; 0x9000000
    87ec:	e92d5fff 	push	{r0, r1, r2, r3, r4, r5, r6, r7, r8, r9, sl, fp, ip, lr}
    87f0:	e1a0000e 	mov	r0, lr
    87f4:	ebffff78 	bl	85dc <prefetch_abort_vector>
    87f8:	e8bd5fff 	pop	{r0, r1, r2, r3, r4, r5, r6, r7, r8, r9, sl, fp, ip, lr}
    87fc:	e1b0f00e 	movs	pc, lr

00008800 <data_abort_asm>:
    8800:	e3a0d409 	mov	sp, #150994944	; 0x9000000
    8804:	e1a0000e 	mov	r0, lr
    8808:	e24ee008 	sub	lr, lr, #8
    880c:	e3a0d409 	mov	sp, #150994944	; 0x9000000
    8810:	e92d5fff 	push	{r0, r1, r2, r3, r4, r5, r6, r7, r8, r9, sl, fp, ip, lr}
    8814:	e1a0000e 	mov	r0, lr
    8818:	ebffff1c 	bl	8490 <data_abort_vector>
    881c:	e8bd5fff 	pop	{r0, r1, r2, r3, r4, r5, r6, r7, r8, r9, sl, fp, ip, lr}
    8820:	e1b0f00e 	movs	pc, lr

00008824 <user_trampoline_no_ret>:
    8824:	e584d000 	str	sp, [r4]
    8828:	e10f5000 	mrs	r5, CPSR
    882c:	e169f005 	msr	SPSR_fc, r5
    8830:	e129f000 	msr	CPSR_fc, r0
    8834:	e3a06000 	mov	r6, #0
    8838:	ee076f95 	mcr	15, 0, r6, cr7, cr5, {4}
    883c:	e594d000 	ldr	sp, [r4]
    8840:	e12fff31 	blx	r1
    8844:	ebffff8b 	bl	8678 <brk_no_ret_error>

00008848 <user_trampoline_ret>:
    8848:	e12fff1e 	bx	lr

0000884c <printk>:
    884c:	e92d000f 	push	{r0, r1, r2, r3}
    8850:	e92d4030 	push	{r4, r5, lr}
    8854:	e24dd00c 	sub	sp, sp, #12
    8858:	e28d301c 	add	r3, sp, #28
    885c:	e58d3004 	str	r3, [sp, #4]
    8860:	e59f4034 	ldr	r4, [pc, #52]	; 889c <printk+0x50>
    8864:	e1a00004 	mov	r0, r4
    8868:	e3a01b01 	mov	r1, #1024	; 0x400
    886c:	e59d2018 	ldr	r2, [sp, #24]
    8870:	eb0000d0 	bl	8bb8 <va_printk>
    8874:	e1a05000 	mov	r5, r0
    8878:	e59f3020 	ldr	r3, [pc, #32]	; 88a0 <printk+0x54>
    887c:	e5933000 	ldr	r3, [r3]
    8880:	e1a00004 	mov	r0, r4
    8884:	e12fff33 	blx	r3
    8888:	e1a00005 	mov	r0, r5
    888c:	e28dd00c 	add	sp, sp, #12
    8890:	e8bd4030 	pop	{r4, r5, lr}
    8894:	e28dd010 	add	sp, sp, #16
    8898:	e12fff1e 	bx	lr
    889c:	00009b4c 	andeq	r9, r0, ip, asr #22
    88a0:	000094a4 	andeq	r9, r0, r4, lsr #9

000088a4 <internal_putchar>:
    88a4:	e92d4010 	push	{r4, lr}
    88a8:	e1a04000 	mov	r4, r0
    88ac:	eb0002a2 	bl	933c <uart_putc>
    88b0:	e1a00004 	mov	r0, r4
    88b4:	e8bd8010 	pop	{r4, pc}

000088b8 <rpi_reset_putc>:
    88b8:	e59f2008 	ldr	r2, [pc, #8]	; 88c8 <rpi_reset_putc+0x10>
    88bc:	e59f3008 	ldr	r3, [pc, #8]	; 88cc <rpi_reset_putc+0x14>
    88c0:	e5832000 	str	r2, [r3]
    88c4:	e12fff1e 	bx	lr
    88c8:	000088a4 	andeq	r8, r0, r4, lsr #17
    88cc:	000094a0 	andeq	r9, r0, r0, lsr #9

000088d0 <rpi_set_putc>:
    88d0:	e59f3004 	ldr	r3, [pc, #4]	; 88dc <rpi_set_putc+0xc>
    88d4:	e5830000 	str	r0, [r3]
    88d8:	e12fff1e 	bx	lr
    88dc:	000094a0 	andeq	r9, r0, r0, lsr #9

000088e0 <internal_putk>:
    88e0:	e92d4038 	push	{r3, r4, r5, lr}
    88e4:	e1a04000 	mov	r4, r0
    88e8:	e59f5020 	ldr	r5, [pc, #32]	; 8910 <internal_putk+0x30>
    88ec:	ea000002 	b	88fc <internal_putk+0x1c>
    88f0:	e5953000 	ldr	r3, [r5]
    88f4:	e12fff33 	blx	r3
    88f8:	e2844001 	add	r4, r4, #1
    88fc:	e5d40000 	ldrb	r0, [r4]
    8900:	e3500000 	cmp	r0, #0
    8904:	1afffff9 	bne	88f0 <internal_putk+0x10>
    8908:	e3a00001 	mov	r0, #1
    890c:	e8bd8038 	pop	{r3, r4, r5, pc}
    8910:	000094a0 	andeq	r9, r0, r0, lsr #9

00008914 <isdigit>:
    8914:	e2400030 	sub	r0, r0, #48	; 0x30
    8918:	e3500009 	cmp	r0, #9
    891c:	83a00000 	movhi	r0, #0
    8920:	93a00001 	movls	r0, #1
    8924:	e12fff1e 	bx	lr

00008928 <pad>:
    8928:	e0611000 	rsb	r1, r1, r0
    892c:	e3a03020 	mov	r3, #32
    8930:	ea000002 	b	8940 <pad+0x18>
    8934:	e5c03000 	strb	r3, [r0]
    8938:	e2811001 	add	r1, r1, #1
    893c:	e2800001 	add	r0, r0, #1
    8940:	e1510002 	cmp	r1, r2
    8944:	bafffffa 	blt	8934 <pad+0xc>
    8948:	e3a03000 	mov	r3, #0
    894c:	e5c03000 	strb	r3, [r0]
    8950:	e12fff1e 	bx	lr

00008954 <reverse>:
    8954:	e063c002 	rsb	ip, r3, r2
    8958:	e28cc001 	add	ip, ip, #1
    895c:	e15c0001 	cmp	ip, r1
    8960:	c061100c 	rsbgt	r1, r1, ip
    8964:	c0833001 	addgt	r3, r3, r1
    8968:	e2422001 	sub	r2, r2, #1
    896c:	e1a01000 	mov	r1, r0
    8970:	ea000002 	b	8980 <reverse+0x2c>
    8974:	e452c001 	ldrb	ip, [r2], #-1
    8978:	e5c1c000 	strb	ip, [r1]
    897c:	e2811001 	add	r1, r1, #1
    8980:	e1520003 	cmp	r2, r3
    8984:	2afffffa 	bcs	8974 <reverse+0x20>
    8988:	e3a03000 	mov	r3, #0
    898c:	e5c13000 	strb	r3, [r1]
    8990:	e12fff1e 	bx	lr

00008994 <emit>:
    8994:	e92d41f0 	push	{r4, r5, r6, r7, r8, lr}
    8998:	e24dd048 	sub	sp, sp, #72	; 0x48
    899c:	e1a05001 	mov	r5, r1
    89a0:	e1a04002 	mov	r4, r2
    89a4:	e59d2060 	ldr	r2, [sp, #96]	; 0x60
    89a8:	e1520004 	cmp	r2, r4
    89ac:	c2442001 	subgt	r2, r4, #1
    89b0:	e1a0c003 	mov	ip, r3
    89b4:	e2400002 	sub	r0, r0, #2
    89b8:	e350000e 	cmp	r0, #14
    89bc:	979ff100 	ldrls	pc, [pc, r0, lsl #2]
    89c0:	ea000048 	b	8ae8 <emit+0x154>
    89c4:	00008ac0 	andeq	r8, r0, r0, asr #21
    89c8:	00008ae8 	andeq	r8, r0, r8, ror #21
    89cc:	00008ae8 	andeq	r8, r0, r8, ror #21
    89d0:	00008ae8 	andeq	r8, r0, r8, ror #21
    89d4:	00008ae8 	andeq	r8, r0, r8, ror #21
    89d8:	00008ae8 	andeq	r8, r0, r8, ror #21
    89dc:	00008ab4 			; <UNDEFINED> instruction: 0x00008ab4
    89e0:	00008ae8 	andeq	r8, r0, r8, ror #21
    89e4:	00008a00 	andeq	r8, r0, r0, lsl #20
    89e8:	00008ae8 	andeq	r8, r0, r8, ror #21
    89ec:	00008ae8 	andeq	r8, r0, r8, ror #21
    89f0:	00008ae8 	andeq	r8, r0, r8, ror #21
    89f4:	00008ae8 	andeq	r8, r0, r8, ror #21
    89f8:	00008ae8 	andeq	r8, r0, r8, ror #21
    89fc:	00008a74 	andeq	r8, r0, r4, ror sl
    8a00:	e59d1064 	ldr	r1, [sp, #100]	; 0x64
    8a04:	e2911000 	adds	r1, r1, #0
    8a08:	13a01001 	movne	r1, #1
    8a0c:	e0111fa3 	ands	r1, r1, r3, lsr #31
    8a10:	1263c000 	rsbne	ip, r3, #0
    8a14:	13a08001 	movne	r8, #1
    8a18:	03a08000 	moveq	r8, #0
    8a1c:	e28d1008 	add	r1, sp, #8
    8a20:	e59f7108 	ldr	r7, [pc, #264]	; 8b30 <emit+0x19c>
    8a24:	e59f6108 	ldr	r6, [pc, #264]	; 8b34 <emit+0x1a0>
    8a28:	ea000000 	b	8a30 <emit+0x9c>
    8a2c:	e1a01000 	mov	r1, r0
    8a30:	e2810001 	add	r0, r1, #1
    8a34:	e083ec97 	umull	lr, r3, r7, ip
    8a38:	e1a031a3 	lsr	r3, r3, #3
    8a3c:	e1a0e003 	mov	lr, r3
    8a40:	e0833103 	add	r3, r3, r3, lsl #2
    8a44:	e1a03083 	lsl	r3, r3, #1
    8a48:	e063300c 	rsb	r3, r3, ip
    8a4c:	e7d63003 	ldrb	r3, [r6, r3]
    8a50:	e5c13000 	strb	r3, [r1]
    8a54:	e1a0c00e 	mov	ip, lr
    8a58:	e35e0000 	cmp	lr, #0
    8a5c:	1afffff2 	bne	8a2c <emit+0x98>
    8a60:	e3580000 	cmp	r8, #0
    8a64:	12810002 	addne	r0, r1, #2
    8a68:	13a0302d 	movne	r3, #45	; 0x2d
    8a6c:	15c13001 	strbne	r3, [r1, #1]
    8a70:	ea000025 	b	8b0c <emit+0x178>
    8a74:	e28d3008 	add	r3, sp, #8
    8a78:	e59fe0b8 	ldr	lr, [pc, #184]	; 8b38 <emit+0x1a4>
    8a7c:	ea000000 	b	8a84 <emit+0xf0>
    8a80:	e1a03000 	mov	r3, r0
    8a84:	e2830001 	add	r0, r3, #1
    8a88:	e20c100f 	and	r1, ip, #15
    8a8c:	e7de1001 	ldrb	r1, [lr, r1]
    8a90:	e5c31000 	strb	r1, [r3]
    8a94:	e1b0c22c 	lsrs	ip, ip, #4
    8a98:	1afffff8 	bne	8a80 <emit+0xec>
    8a9c:	e3a01078 	mov	r1, #120	; 0x78
    8aa0:	e5c31001 	strb	r1, [r3, #1]
    8aa4:	e2830003 	add	r0, r3, #3
    8aa8:	e3a01030 	mov	r1, #48	; 0x30
    8aac:	e5c31002 	strb	r1, [r3, #2]
    8ab0:	ea000015 	b	8b0c <emit+0x178>
    8ab4:	e5cd3008 	strb	r3, [sp, #8]
    8ab8:	e28d0009 	add	r0, sp, #9
    8abc:	ea000012 	b	8b0c <emit+0x178>
    8ac0:	e28d3008 	add	r3, sp, #8
    8ac4:	e59fe070 	ldr	lr, [pc, #112]	; 8b3c <emit+0x1a8>
    8ac8:	e2830001 	add	r0, r3, #1
    8acc:	e20c1001 	and	r1, ip, #1
    8ad0:	e7de1001 	ldrb	r1, [lr, r1]
    8ad4:	e5c31000 	strb	r1, [r3]
    8ad8:	e1a03000 	mov	r3, r0
    8adc:	e1b0c0ac 	lsrs	ip, ip, #1
    8ae0:	1afffff8 	bne	8ac8 <emit+0x134>
    8ae4:	ea000008 	b	8b0c <emit+0x178>
    8ae8:	ebffff72 	bl	88b8 <rpi_reset_putc>
    8aec:	e59f304c 	ldr	r3, [pc, #76]	; 8b40 <emit+0x1ac>
    8af0:	e58d3000 	str	r3, [sp]
    8af4:	e59f0048 	ldr	r0, [pc, #72]	; 8b44 <emit+0x1b0>
    8af8:	e59f1048 	ldr	r1, [pc, #72]	; 8b48 <emit+0x1b4>
    8afc:	e59f2048 	ldr	r2, [pc, #72]	; 8b4c <emit+0x1b8>
    8b00:	e3a03077 	mov	r3, #119	; 0x77
    8b04:	ebffff50 	bl	884c <printk>
    8b08:	eb0000e7 	bl	8eac <clean_reboot>
    8b0c:	e28d1008 	add	r1, sp, #8
    8b10:	ebffff84 	bl	8928 <pad>
    8b14:	e1a02000 	mov	r2, r0
    8b18:	e1a00005 	mov	r0, r5
    8b1c:	e1a01004 	mov	r1, r4
    8b20:	e28d3008 	add	r3, sp, #8
    8b24:	ebffff8a 	bl	8954 <reverse>
    8b28:	e28dd048 	add	sp, sp, #72	; 0x48
    8b2c:	e8bd81f0 	pop	{r4, r5, r6, r7, r8, pc}
    8b30:	cccccccd 	stclgt	12, cr12, [ip], {205}	; 0xcd
    8b34:	0000991c 	andeq	r9, r0, ip, lsl r9
    8b38:	00009928 	andeq	r9, r0, r8, lsr #18
    8b3c:	0000993c 	andeq	r9, r0, ip, lsr r9
    8b40:	00009918 	andeq	r9, r0, r8, lsl r9
    8b44:	00009528 	andeq	r9, r0, r8, lsr #10
    8b48:	00009904 	andeq	r9, r0, r4, lsl #18
    8b4c:	000098e0 	andeq	r9, r0, r0, ror #17

00008b50 <rpi_set_output>:
    8b50:	e52de004 	push	{lr}		; (str lr, [sp, #-4]!)
    8b54:	e24dd00c 	sub	sp, sp, #12
    8b58:	e3500000 	cmp	r0, #0
    8b5c:	1a000008 	bne	8b84 <rpi_set_output+0x34>
    8b60:	ebffff54 	bl	88b8 <rpi_reset_putc>
    8b64:	e59f3034 	ldr	r3, [pc, #52]	; 8ba0 <rpi_set_output+0x50>
    8b68:	e58d3000 	str	r3, [sp]
    8b6c:	e59f0030 	ldr	r0, [pc, #48]	; 8ba4 <rpi_set_output+0x54>
    8b70:	e59f1030 	ldr	r1, [pc, #48]	; 8ba8 <rpi_set_output+0x58>
    8b74:	e59f2030 	ldr	r2, [pc, #48]	; 8bac <rpi_set_output+0x5c>
    8b78:	e3a03020 	mov	r3, #32
    8b7c:	ebffff32 	bl	884c <printk>
    8b80:	eb0000c9 	bl	8eac <clean_reboot>
    8b84:	e59f3024 	ldr	r3, [pc, #36]	; 8bb0 <rpi_set_output+0x60>
    8b88:	e5830000 	str	r0, [r3]
    8b8c:	e3510000 	cmp	r1, #0
    8b90:	159f301c 	ldrne	r3, [pc, #28]	; 8bb4 <rpi_set_output+0x64>
    8b94:	15831000 	strne	r1, [r3]
    8b98:	e28dd00c 	add	sp, sp, #12
    8b9c:	e49df004 	pop	{pc}		; (ldr pc, [sp], #4)
    8ba0:	00009940 	andeq	r9, r0, r0, asr #18
    8ba4:	00009528 	andeq	r9, r0, r8, lsr #10
    8ba8:	00009904 	andeq	r9, r0, r4, lsl #18
    8bac:	000098e8 	andeq	r9, r0, r8, ror #17
    8bb0:	000094a0 	andeq	r9, r0, r0, lsr #9
    8bb4:	000094a4 	andeq	r9, r0, r4, lsr #9

00008bb8 <va_printk>:
    8bb8:	e92d4ff0 	push	{r4, r5, r6, r7, r8, r9, sl, fp, lr}
    8bbc:	e24dd094 	sub	sp, sp, #148	; 0x94
    8bc0:	e1a0b000 	mov	fp, r0
    8bc4:	e58d200c 	str	r2, [sp, #12]
    8bc8:	e1a0a003 	mov	sl, r3
    8bcc:	e2411001 	sub	r1, r1, #1
    8bd0:	e0808001 	add	r8, r0, r1
    8bd4:	e3a03000 	mov	r3, #0
    8bd8:	e5c03000 	strb	r3, [r0]
    8bdc:	e1a04000 	mov	r4, r0
    8be0:	e1a06002 	mov	r6, r2
    8be4:	ea000095 	b	8e40 <va_printk+0x288>
    8be8:	e3530025 	cmp	r3, #37	; 0x25
    8bec:	12866001 	addne	r6, r6, #1
    8bf0:	15c43000 	strbne	r3, [r4]
    8bf4:	12844001 	addne	r4, r4, #1
    8bf8:	1a000090 	bne	8e40 <va_printk+0x288>
    8bfc:	e5d62001 	ldrb	r2, [r6, #1]
    8c00:	e3520025 	cmp	r2, #37	; 0x25
    8c04:	05c43000 	strbeq	r3, [r4]
    8c08:	02866002 	addeq	r6, r6, #2
    8c0c:	02844001 	addeq	r4, r4, #1
    8c10:	0a00008a 	beq	8e40 <va_printk+0x288>
    8c14:	e2866001 	add	r6, r6, #1
    8c18:	e3a07000 	mov	r7, #0
    8c1c:	ea000004 	b	8c34 <va_printk+0x7c>
    8c20:	e0877107 	add	r7, r7, r7, lsl #2
    8c24:	e1a07087 	lsl	r7, r7, #1
    8c28:	e0877005 	add	r7, r7, r5
    8c2c:	e2477030 	sub	r7, r7, #48	; 0x30
    8c30:	e2866001 	add	r6, r6, #1
    8c34:	e5d65000 	ldrb	r5, [r6]
    8c38:	e1a09005 	mov	r9, r5
    8c3c:	e1a00005 	mov	r0, r5
    8c40:	ebffff33 	bl	8914 <isdigit>
    8c44:	e3500000 	cmp	r0, #0
    8c48:	1afffff4 	bne	8c20 <va_printk+0x68>
    8c4c:	e357001f 	cmp	r7, #31
    8c50:	9a000008 	bls	8c78 <va_printk+0xc0>
    8c54:	ebffff17 	bl	88b8 <rpi_reset_putc>
    8c58:	e59f320c 	ldr	r3, [pc, #524]	; 8e6c <va_printk+0x2b4>
    8c5c:	e58d3000 	str	r3, [sp]
    8c60:	e59f0208 	ldr	r0, [pc, #520]	; 8e70 <va_printk+0x2b8>
    8c64:	e59f1208 	ldr	r1, [pc, #520]	; 8e74 <va_printk+0x2bc>
    8c68:	e59f2208 	ldr	r2, [pc, #520]	; 8e78 <va_printk+0x2c0>
    8c6c:	e3a03095 	mov	r3, #149	; 0x95
    8c70:	ebfffef5 	bl	884c <printk>
    8c74:	eb00008c 	bl	8eac <clean_reboot>
    8c78:	e2455062 	sub	r5, r5, #98	; 0x62
    8c7c:	e3550016 	cmp	r5, #22
    8c80:	979ff105 	ldrls	pc, [pc, r5, lsl #2]
    8c84:	ea000052 	b	8dd4 <va_printk+0x21c>
    8c88:	00008d78 	andeq	r8, r0, r8, ror sp
    8c8c:	00008dac 	andeq	r8, r0, ip, lsr #27
    8c90:	00008d00 	andeq	r8, r0, r0, lsl #26
    8c94:	00008dd4 	ldrdeq	r8, [r0], -r4
    8c98:	00008ce4 	andeq	r8, r0, r4, ror #25
    8c9c:	00008dd4 	ldrdeq	r8, [r0], -r4
    8ca0:	00008dd4 	ldrdeq	r8, [r0], -r4
    8ca4:	00008dd4 	ldrdeq	r8, [r0], -r4
    8ca8:	00008dd4 	ldrdeq	r8, [r0], -r4
    8cac:	00008dd4 	ldrdeq	r8, [r0], -r4
    8cb0:	00008dd4 	ldrdeq	r8, [r0], -r4
    8cb4:	00008dd4 	ldrdeq	r8, [r0], -r4
    8cb8:	00008dd4 	ldrdeq	r8, [r0], -r4
    8cbc:	00008dd4 	ldrdeq	r8, [r0], -r4
    8cc0:	00008d50 	andeq	r8, r0, r0, asr sp
    8cc4:	00008dd4 	ldrdeq	r8, [r0], -r4
    8cc8:	00008dd4 	ldrdeq	r8, [r0], -r4
    8ccc:	00008da0 	andeq	r8, r0, r0, lsr #27
    8cd0:	00008dd4 	ldrdeq	r8, [r0], -r4
    8cd4:	00008d28 	andeq	r8, r0, r8, lsr #26
    8cd8:	00008dd4 	ldrdeq	r8, [r0], -r4
    8cdc:	00008dd4 	ldrdeq	r8, [r0], -r4
    8ce0:	00008d50 	andeq	r8, r0, r0, asr sp
    8ce4:	ebfffef3 	bl	88b8 <rpi_reset_putc>
    8ce8:	e59f018c 	ldr	r0, [pc, #396]	; 8e7c <va_printk+0x2c4>
    8cec:	e59f1180 	ldr	r1, [pc, #384]	; 8e74 <va_printk+0x2bc>
    8cf0:	e59f2180 	ldr	r2, [pc, #384]	; 8e78 <va_printk+0x2c0>
    8cf4:	e3a0309b 	mov	r3, #155	; 0x9b
    8cf8:	ebfffed3 	bl	884c <printk>
    8cfc:	eb00006a 	bl	8eac <clean_reboot>
    8d00:	e59a3000 	ldr	r3, [sl]
    8d04:	e28aa004 	add	sl, sl, #4
    8d08:	e58d7000 	str	r7, [sp]
    8d0c:	e3a02001 	mov	r2, #1
    8d10:	e58d2004 	str	r2, [sp, #4]
    8d14:	e3a0000a 	mov	r0, #10
    8d18:	e28d1010 	add	r1, sp, #16
    8d1c:	e3a02080 	mov	r2, #128	; 0x80
    8d20:	ebffff1b 	bl	8994 <emit>
    8d24:	ea00003b 	b	8e18 <va_printk+0x260>
    8d28:	e59a3000 	ldr	r3, [sl]
    8d2c:	e28aa004 	add	sl, sl, #4
    8d30:	e58d7000 	str	r7, [sp]
    8d34:	e3a02000 	mov	r2, #0
    8d38:	e58d2004 	str	r2, [sp, #4]
    8d3c:	e3a0000a 	mov	r0, #10
    8d40:	e28d1010 	add	r1, sp, #16
    8d44:	e3a02080 	mov	r2, #128	; 0x80
    8d48:	ebffff11 	bl	8994 <emit>
    8d4c:	ea000031 	b	8e18 <va_printk+0x260>
    8d50:	e59a3000 	ldr	r3, [sl]
    8d54:	e28aa004 	add	sl, sl, #4
    8d58:	e58d7000 	str	r7, [sp]
    8d5c:	e3a02000 	mov	r2, #0
    8d60:	e58d2004 	str	r2, [sp, #4]
    8d64:	e3a00010 	mov	r0, #16
    8d68:	e08d1000 	add	r1, sp, r0
    8d6c:	e3a02080 	mov	r2, #128	; 0x80
    8d70:	ebffff07 	bl	8994 <emit>
    8d74:	ea000027 	b	8e18 <va_printk+0x260>
    8d78:	e59a3000 	ldr	r3, [sl]
    8d7c:	e28aa004 	add	sl, sl, #4
    8d80:	e58d7000 	str	r7, [sp]
    8d84:	e3a02000 	mov	r2, #0
    8d88:	e58d2004 	str	r2, [sp, #4]
    8d8c:	e3a00002 	mov	r0, #2
    8d90:	e28d1010 	add	r1, sp, #16
    8d94:	e3a02080 	mov	r2, #128	; 0x80
    8d98:	ebfffefd 	bl	8994 <emit>
    8d9c:	ea00001d 	b	8e18 <va_printk+0x260>
    8da0:	e59a0000 	ldr	r0, [sl]
    8da4:	e28aa004 	add	sl, sl, #4
    8da8:	ea00001a 	b	8e18 <va_printk+0x260>
    8dac:	e59a3000 	ldr	r3, [sl]
    8db0:	e28aa004 	add	sl, sl, #4
    8db4:	e58d7000 	str	r7, [sp]
    8db8:	e3a02000 	mov	r2, #0
    8dbc:	e58d2004 	str	r2, [sp, #4]
    8dc0:	e3a00008 	mov	r0, #8
    8dc4:	e28d1010 	add	r1, sp, #16
    8dc8:	e3a02080 	mov	r2, #128	; 0x80
    8dcc:	ebfffef0 	bl	8994 <emit>
    8dd0:	ea000010 	b	8e18 <va_printk+0x260>
    8dd4:	e3a03000 	mov	r3, #0
    8dd8:	e5c63001 	strb	r3, [r6, #1]
    8ddc:	e59f009c 	ldr	r0, [pc, #156]	; 8e80 <va_printk+0x2c8>
    8de0:	e1a01009 	mov	r1, r9
    8de4:	e1a02009 	mov	r2, r9
    8de8:	ebfffe97 	bl	884c <printk>
    8dec:	e59f3090 	ldr	r3, [pc, #144]	; 8e84 <va_printk+0x2cc>
    8df0:	e5933000 	ldr	r3, [r3]
    8df4:	e59d000c 	ldr	r0, [sp, #12]
    8df8:	e12fff33 	blx	r3
    8dfc:	ebfffead 	bl	88b8 <rpi_reset_putc>
    8e00:	e59f0080 	ldr	r0, [pc, #128]	; 8e88 <va_printk+0x2d0>
    8e04:	e59f1068 	ldr	r1, [pc, #104]	; 8e74 <va_printk+0x2bc>
    8e08:	e59f2068 	ldr	r2, [pc, #104]	; 8e78 <va_printk+0x2c0>
    8e0c:	e3a030bf 	mov	r3, #191	; 0xbf
    8e10:	ebfffe8d 	bl	884c <printk>
    8e14:	eb000024 	bl	8eac <clean_reboot>
    8e18:	e2866001 	add	r6, r6, #1
    8e1c:	ea000002 	b	8e2c <va_printk+0x274>
    8e20:	e2800001 	add	r0, r0, #1
    8e24:	e5c43000 	strb	r3, [r4]
    8e28:	e2844001 	add	r4, r4, #1
    8e2c:	e1540008 	cmp	r4, r8
    8e30:	2a000002 	bcs	8e40 <va_printk+0x288>
    8e34:	e5d03000 	ldrb	r3, [r0]
    8e38:	e3530000 	cmp	r3, #0
    8e3c:	1afffff7 	bne	8e20 <va_printk+0x268>
    8e40:	e5d63000 	ldrb	r3, [r6]
    8e44:	e3530000 	cmp	r3, #0
    8e48:	0a000001 	beq	8e54 <va_printk+0x29c>
    8e4c:	e1540008 	cmp	r4, r8
    8e50:	3affff64 	bcc	8be8 <va_printk+0x30>
    8e54:	e2840001 	add	r0, r4, #1
    8e58:	e3a03000 	mov	r3, #0
    8e5c:	e5c43000 	strb	r3, [r4]
    8e60:	e06b0000 	rsb	r0, fp, r0
    8e64:	e28dd094 	add	sp, sp, #148	; 0x94
    8e68:	e8bd8ff0 	pop	{r4, r5, r6, r7, r8, r9, sl, fp, pc}
    8e6c:	00009948 	andeq	r9, r0, r8, asr #18
    8e70:	00009528 	andeq	r9, r0, r8, lsr #10
    8e74:	00009904 	andeq	r9, r0, r4, lsl #18
    8e78:	000098f8 	strdeq	r9, [r0], -r8
    8e7c:	00009954 	andeq	r9, r0, r4, asr r9
    8e80:	0000997c 	andeq	r9, r0, ip, ror r9
    8e84:	000094a4 	andeq	r9, r0, r4, lsr #9
    8e88:	000099ac 	andeq	r9, r0, ip, lsr #19

00008e8c <enable_cache>:
    8e8c:	ee113f10 	mrc	15, 0, r3, cr1, cr0, {0}
    8e90:	e3833b06 	orr	r3, r3, #6144	; 0x1800
    8e94:	ee013f10 	mcr	15, 0, r3, cr1, cr0, {0}
    8e98:	e12fff1e 	bx	lr

00008e9c <disable_cache>:
    8e9c:	ee113f10 	mrc	15, 0, r3, cr1, cr0, {0}
    8ea0:	e3c33b06 	bic	r3, r3, #6144	; 0x1800
    8ea4:	ee013f10 	mcr	15, 0, r3, cr1, cr0, {0}
    8ea8:	e12fff1e 	bx	lr

00008eac <clean_reboot>:
    8eac:	e92d4008 	push	{r3, lr}
    8eb0:	eb00005b 	bl	9024 <reboot_handler>
    8eb4:	e59f3014 	ldr	r3, [pc, #20]	; 8ed0 <clean_reboot+0x24>
    8eb8:	e5933000 	ldr	r3, [r3]
    8ebc:	e59f0010 	ldr	r0, [pc, #16]	; 8ed4 <clean_reboot+0x28>
    8ec0:	e12fff33 	blx	r3
    8ec4:	e3a00064 	mov	r0, #100	; 0x64
    8ec8:	eb0000aa 	bl	9178 <delay_ms>
    8ecc:	eb00007b 	bl	90c0 <rpi_reboot>
    8ed0:	000094a4 	andeq	r9, r0, r4, lsr #9
    8ed4:	000099cc 	andeq	r9, r0, ip, asr #19

00008ed8 <_cstart>:
    8ed8:	e92d4008 	push	{r3, lr}
    8edc:	e59f3024 	ldr	r3, [pc, #36]	; 8f08 <_cstart+0x30>
    8ee0:	e59f2024 	ldr	r2, [pc, #36]	; 8f0c <_cstart+0x34>
    8ee4:	e3a01000 	mov	r1, #0
    8ee8:	ea000001 	b	8ef4 <_cstart+0x1c>
    8eec:	e5831000 	str	r1, [r3]
    8ef0:	e2833004 	add	r3, r3, #4
    8ef4:	e1530002 	cmp	r3, r2
    8ef8:	3afffffb 	bcc	8eec <_cstart+0x14>
    8efc:	eb000047 	bl	9020 <cstart_handler>
    8f00:	ebfffcab 	bl	81b4 <notmain>
    8f04:	ebffffe8 	bl	8eac <clean_reboot>
    8f08:	00009b30 	andeq	r9, r0, r0, lsr fp
    8f0c:	00009f50 	andeq	r9, r0, r0, asr pc

00008f10 <fast_interrupt_vector>:
    8f10:	e52de004 	push	{lr}		; (str lr, [sp, #-4]!)
    8f14:	e24dd00c 	sub	sp, sp, #12
    8f18:	e1a04000 	mov	r4, r0
    8f1c:	ebfffe65 	bl	88b8 <rpi_reset_putc>
    8f20:	e59f301c 	ldr	r3, [pc, #28]	; 8f44 <fast_interrupt_vector+0x34>
    8f24:	e58d3000 	str	r3, [sp]
    8f28:	e58d4004 	str	r4, [sp, #4]
    8f2c:	e59f0014 	ldr	r0, [pc, #20]	; 8f48 <fast_interrupt_vector+0x38>
    8f30:	e59f1014 	ldr	r1, [pc, #20]	; 8f4c <fast_interrupt_vector+0x3c>
    8f34:	e59f2014 	ldr	r2, [pc, #20]	; 8f50 <fast_interrupt_vector+0x40>
    8f38:	e3a03002 	mov	r3, #2
    8f3c:	ebfffe42 	bl	884c <printk>
    8f40:	ebffffd9 	bl	8eac <clean_reboot>
    8f44:	00009a50 	andeq	r9, r0, r0, asr sl
    8f48:	000099f0 	strdeq	r9, [r0], -r0
    8f4c:	00009a2c 	andeq	r9, r0, ip, lsr #20
    8f50:	000099d8 	ldrdeq	r9, [r0], -r8

00008f54 <reset_vector>:
    8f54:	e52de004 	push	{lr}		; (str lr, [sp, #-4]!)
    8f58:	e24dd00c 	sub	sp, sp, #12
    8f5c:	e1a04000 	mov	r4, r0
    8f60:	ebfffe54 	bl	88b8 <rpi_reset_putc>
    8f64:	e59f301c 	ldr	r3, [pc, #28]	; 8f88 <reset_vector+0x34>
    8f68:	e58d3000 	str	r3, [sp]
    8f6c:	e58d4004 	str	r4, [sp, #4]
    8f70:	e59f0014 	ldr	r0, [pc, #20]	; 8f8c <reset_vector+0x38>
    8f74:	e59f1014 	ldr	r1, [pc, #20]	; 8f90 <reset_vector+0x3c>
    8f78:	e59f2014 	ldr	r2, [pc, #20]	; 8f94 <reset_vector+0x40>
    8f7c:	e3a03002 	mov	r3, #2
    8f80:	ebfffe31 	bl	884c <printk>
    8f84:	ebffffc8 	bl	8eac <clean_reboot>
    8f88:	00009a8c 	andeq	r9, r0, ip, lsl #21
    8f8c:	000099f0 	strdeq	r9, [r0], -r0
    8f90:	00009a68 	andeq	r9, r0, r8, ror #20
    8f94:	00009a58 	andeq	r9, r0, r8, asr sl

00008f98 <software_interrupt_vector>:
    8f98:	e52de004 	push	{lr}		; (str lr, [sp, #-4]!)
    8f9c:	e24dd00c 	sub	sp, sp, #12
    8fa0:	e1a04000 	mov	r4, r0
    8fa4:	ebfffe43 	bl	88b8 <rpi_reset_putc>
    8fa8:	e59f301c 	ldr	r3, [pc, #28]	; 8fcc <software_interrupt_vector+0x34>
    8fac:	e58d3000 	str	r3, [sp]
    8fb0:	e58d4004 	str	r4, [sp, #4]
    8fb4:	e59f0014 	ldr	r0, [pc, #20]	; 8fd0 <software_interrupt_vector+0x38>
    8fb8:	e59f1014 	ldr	r1, [pc, #20]	; 8fd4 <software_interrupt_vector+0x3c>
    8fbc:	e59f2014 	ldr	r2, [pc, #20]	; 8fd8 <software_interrupt_vector+0x40>
    8fc0:	e3a03002 	mov	r3, #2
    8fc4:	ebfffe20 	bl	884c <printk>
    8fc8:	ebffffb7 	bl	8eac <clean_reboot>
    8fcc:	00009ad0 	ldrdeq	r9, [r0], -r0
    8fd0:	000099f0 	strdeq	r9, [r0], -r0
    8fd4:	00009ab0 			; <UNDEFINED> instruction: 0x00009ab0
    8fd8:	00009a94 	muleq	r0, r4, sl

00008fdc <undefined_instruction_vector>:
    8fdc:	e52de004 	push	{lr}		; (str lr, [sp, #-4]!)
    8fe0:	e24dd00c 	sub	sp, sp, #12
    8fe4:	e1a04000 	mov	r4, r0
    8fe8:	ebfffe32 	bl	88b8 <rpi_reset_putc>
    8fec:	e59f301c 	ldr	r3, [pc, #28]	; 9010 <undefined_instruction_vector+0x34>
    8ff0:	e58d3000 	str	r3, [sp]
    8ff4:	e58d4004 	str	r4, [sp, #4]
    8ff8:	e59f0014 	ldr	r0, [pc, #20]	; 9014 <undefined_instruction_vector+0x38>
    8ffc:	e59f1014 	ldr	r1, [pc, #20]	; 9018 <undefined_instruction_vector+0x3c>
    9000:	e59f2014 	ldr	r2, [pc, #20]	; 901c <undefined_instruction_vector+0x40>
    9004:	e3a03002 	mov	r3, #2
    9008:	ebfffe0f 	bl	884c <printk>
    900c:	ebffffa6 	bl	8eac <clean_reboot>
    9010:	00009b20 	andeq	r9, r0, r0, lsr #22
    9014:	000099f0 	strdeq	r9, [r0], -r0
    9018:	00009af4 	strdeq	r9, [r0], -r4
    901c:	00009ad4 	ldrdeq	r9, [r0], -r4

00009020 <cstart_handler>:
    9020:	e12fff1e 	bx	lr

00009024 <reboot_handler>:
    9024:	e12fff1e 	bx	lr

00009028 <int_init>:
    9028:	e92d4008 	push	{r3, lr}
    902c:	eb00005b 	bl	91a0 <dev_barrier>
    9030:	e59f004c 	ldr	r0, [pc, #76]	; 9084 <int_init+0x5c>
    9034:	e3e01000 	mvn	r1, #0
    9038:	eb000060 	bl	91c0 <PUT32>
    903c:	e59f0044 	ldr	r0, [pc, #68]	; 9088 <int_init+0x60>
    9040:	e3e01000 	mvn	r1, #0
    9044:	eb00005d 	bl	91c0 <PUT32>
    9048:	eb000054 	bl	91a0 <dev_barrier>
    904c:	e59f3038 	ldr	r3, [pc, #56]	; 908c <int_init+0x64>
    9050:	e59f0038 	ldr	r0, [pc, #56]	; 9090 <int_init+0x68>
    9054:	e0630000 	rsb	r0, r3, r0
    9058:	e1a00140 	asr	r0, r0, #2
    905c:	e3a03000 	mov	r3, #0
    9060:	e59fc024 	ldr	ip, [pc, #36]	; 908c <int_init+0x64>
    9064:	ea000003 	b	9078 <int_init+0x50>
    9068:	e1a02103 	lsl	r2, r3, #2
    906c:	e79c1103 	ldr	r1, [ip, r3, lsl #2]
    9070:	e5821000 	str	r1, [r2]
    9074:	e2833001 	add	r3, r3, #1
    9078:	e1530000 	cmp	r3, r0
    907c:	3afffff9 	bcc	9068 <int_init+0x40>
    9080:	e8bd8008 	pop	{r3, pc}
    9084:	2000b21c 	andcs	fp, r0, ip, lsl r2
    9088:	2000b220 	andcs	fp, r0, r0, lsr #4
    908c:	00008734 	andeq	r8, r0, r4, lsr r7
    9090:	00008774 	andeq	r8, r0, r4, ror r7

00009094 <at_user_level>:
    9094:	e10f0000 	mrs	r0, CPSR
    9098:	e200001f 	and	r0, r0, #31
    909c:	e3500010 	cmp	r0, #16
    90a0:	13a00000 	movne	r0, #0
    90a4:	03a00001 	moveq	r0, #1
    90a8:	e12fff1e 	bx	lr

000090ac <set_user_level>:
    90ac:	e10f3000 	mrs	r3, CPSR
    90b0:	e3c3301f 	bic	r3, r3, #31
    90b4:	e3833010 	orr	r3, r3, #16
    90b8:	e129f003 	msr	CPSR_fc, r3
    90bc:	e12fff1e 	bx	lr

000090c0 <rpi_reboot>:
    90c0:	e92d4008 	push	{r3, lr}
    90c4:	ebfffff2 	bl	9094 <at_user_level>
    90c8:	e3500000 	cmp	r0, #0
    90cc:	0a000000 	beq	90d4 <rpi_reboot+0x14>
    90d0:	ebfffff5 	bl	90ac <set_user_level>
    90d4:	e3a0001e 	mov	r0, #30
    90d8:	eb000026 	bl	9178 <delay_ms>
    90dc:	e59f0014 	ldr	r0, [pc, #20]	; 90f8 <rpi_reboot+0x38>
    90e0:	e59f1014 	ldr	r1, [pc, #20]	; 90fc <rpi_reboot+0x3c>
    90e4:	eb000035 	bl	91c0 <PUT32>
    90e8:	e59f0010 	ldr	r0, [pc, #16]	; 9100 <rpi_reboot+0x40>
    90ec:	e59f1010 	ldr	r1, [pc, #16]	; 9104 <rpi_reboot+0x44>
    90f0:	eb000032 	bl	91c0 <PUT32>
    90f4:	eafffffe 	b	90f4 <rpi_reboot+0x34>
    90f8:	20100024 	andscs	r0, r0, r4, lsr #32
    90fc:	5a000001 	bpl	9108 <delay_cycles>
    9100:	2010001c 	andscs	r0, r0, ip, lsl r0
    9104:	5a000020 	bpl	918c <delay_sec>

00009108 <delay_cycles>:
    9108:	ea000001 	b	9114 <delay_cycles+0xc>
    910c:	e2811000 	add	r1, r1, #0
    9110:	e1a00003 	mov	r0, r3
    9114:	e2403001 	sub	r3, r0, #1
    9118:	e3500000 	cmp	r0, #0
    911c:	1afffffa 	bne	910c <delay_cycles+0x4>
    9120:	e12fff1e 	bx	lr

00009124 <timer_get_usec_raw>:
    9124:	e92d4008 	push	{r3, lr}
    9128:	e59f0004 	ldr	r0, [pc, #4]	; 9134 <timer_get_usec_raw+0x10>
    912c:	eb00002f 	bl	91f0 <GET32>
    9130:	e8bd8008 	pop	{r3, pc}
    9134:	20003004 	andcs	r3, r0, r4

00009138 <timer_get_usec>:
    9138:	e92d4010 	push	{r4, lr}
    913c:	eb000017 	bl	91a0 <dev_barrier>
    9140:	ebfffff7 	bl	9124 <timer_get_usec_raw>
    9144:	e1a04000 	mov	r4, r0
    9148:	eb000014 	bl	91a0 <dev_barrier>
    914c:	e1a00004 	mov	r0, r4
    9150:	e8bd8010 	pop	{r4, pc}

00009154 <delay_us>:
    9154:	e92d4038 	push	{r3, r4, r5, lr}
    9158:	e1a05000 	mov	r5, r0
    915c:	ebfffff5 	bl	9138 <timer_get_usec>
    9160:	e1a04000 	mov	r4, r0
    9164:	ebfffff3 	bl	9138 <timer_get_usec>
    9168:	e0640000 	rsb	r0, r4, r0
    916c:	e1500005 	cmp	r0, r5
    9170:	3afffffb 	bcc	9164 <delay_us+0x10>
    9174:	e8bd8038 	pop	{r3, r4, r5, pc}

00009178 <delay_ms>:
    9178:	e92d4008 	push	{r3, lr}
    917c:	e3a03ffa 	mov	r3, #1000	; 0x3e8
    9180:	e0000093 	mul	r0, r3, r0
    9184:	ebfffff2 	bl	9154 <delay_us>
    9188:	e8bd8008 	pop	{r3, pc}

0000918c <delay_sec>:
    918c:	e92d4008 	push	{r3, lr}
    9190:	e3a03ffa 	mov	r3, #1000	; 0x3e8
    9194:	e0000093 	mul	r0, r3, r0
    9198:	ebfffff6 	bl	9178 <delay_ms>
    919c:	e8bd8008 	pop	{r3, pc}

000091a0 <dev_barrier>:
    91a0:	ea000002 	b	91b0 <dsb>

000091a4 <dmb>:
    91a4:	e3a00000 	mov	r0, #0
    91a8:	ee070fba 	mcr	15, 0, r0, cr7, cr10, {5}
    91ac:	e12fff1e 	bx	lr

000091b0 <dsb>:
    91b0:	ee070f9a 	mcr	15, 0, r0, cr7, cr10, {4}
    91b4:	e12fff1e 	bx	lr

000091b8 <put32>:
    91b8:	e5801000 	str	r1, [r0]
    91bc:	e12fff1e 	bx	lr

000091c0 <PUT32>:
    91c0:	e5801000 	str	r1, [r0]
    91c4:	e12fff1e 	bx	lr

000091c8 <put16>:
    91c8:	e1c010b0 	strh	r1, [r0]
    91cc:	e12fff1e 	bx	lr

000091d0 <PUT16>:
    91d0:	e1c010b0 	strh	r1, [r0]
    91d4:	e12fff1e 	bx	lr

000091d8 <put8>:
    91d8:	e5c01000 	strb	r1, [r0]
    91dc:	e12fff1e 	bx	lr

000091e0 <PUT8>:
    91e0:	e5c01000 	strb	r1, [r0]
    91e4:	e12fff1e 	bx	lr

000091e8 <get32>:
    91e8:	e5900000 	ldr	r0, [r0]
    91ec:	e12fff1e 	bx	lr

000091f0 <GET32>:
    91f0:	e5900000 	ldr	r0, [r0]
    91f4:	e12fff1e 	bx	lr

000091f8 <GETPC>:
    91f8:	e1a0000e 	mov	r0, lr
    91fc:	e12fff1e 	bx	lr

00009200 <dummy>:
    9200:	e12fff1e 	bx	lr

00009204 <or_in32>:
    9204:	e92d4070 	push	{r4, r5, r6, lr}
    9208:	e1a04000 	mov	r4, r0
    920c:	e1a05001 	mov	r5, r1
    9210:	ebfffff4 	bl	91e8 <get32>
    9214:	e1801005 	orr	r1, r0, r5
    9218:	e1a00004 	mov	r0, r4
    921c:	ebffffe5 	bl	91b8 <put32>
    9220:	e8bd8070 	pop	{r4, r5, r6, pc}

00009224 <uart_init>:
    9224:	e92d4010 	push	{r4, lr}
    9228:	e3a01002 	mov	r1, #2
    922c:	e3a0000e 	mov	r0, #14
    9230:	eb000051 	bl	937c <gpio_set_function>
    9234:	e3a01002 	mov	r1, #2
    9238:	e3a0000f 	mov	r0, #15
    923c:	eb00004e 	bl	937c <gpio_set_function>
    9240:	ebffffd6 	bl	91a0 <dev_barrier>
    9244:	e3a01001 	mov	r1, #1
    9248:	e59f0064 	ldr	r0, [pc, #100]	; 92b4 <uart_init+0x90>
    924c:	ebffffec 	bl	9204 <or_in32>
    9250:	ebffffd2 	bl	91a0 <dev_barrier>
    9254:	e59f405c 	ldr	r4, [pc, #92]	; 92b8 <uart_init+0x94>
    9258:	e3a01000 	mov	r1, #0
    925c:	e1a00004 	mov	r0, r4
    9260:	ebffffd4 	bl	91b8 <put32>
    9264:	e3a01000 	mov	r1, #0
    9268:	e59f004c 	ldr	r0, [pc, #76]	; 92bc <uart_init+0x98>
    926c:	ebffffd1 	bl	91b8 <put32>
    9270:	e3a01003 	mov	r1, #3
    9274:	e59f0044 	ldr	r0, [pc, #68]	; 92c0 <uart_init+0x9c>
    9278:	ebffffce 	bl	91b8 <put32>
    927c:	e3a01000 	mov	r1, #0
    9280:	e59f003c 	ldr	r0, [pc, #60]	; 92c4 <uart_init+0xa0>
    9284:	ebffffcb 	bl	91b8 <put32>
    9288:	e3a010c7 	mov	r1, #199	; 0xc7
    928c:	e59f0034 	ldr	r0, [pc, #52]	; 92c8 <uart_init+0xa4>
    9290:	ebffffc8 	bl	91b8 <put32>
    9294:	e59f1030 	ldr	r1, [pc, #48]	; 92cc <uart_init+0xa8>
    9298:	e59f0030 	ldr	r0, [pc, #48]	; 92d0 <uart_init+0xac>
    929c:	ebffffc5 	bl	91b8 <put32>
    92a0:	e3a01003 	mov	r1, #3
    92a4:	e1a00004 	mov	r0, r4
    92a8:	ebffffc2 	bl	91b8 <put32>
    92ac:	ebffffbb 	bl	91a0 <dev_barrier>
    92b0:	e8bd8010 	pop	{r4, pc}
    92b4:	20215004 	eorcs	r5, r1, r4
    92b8:	20215060 	eorcs	r5, r1, r0, rrx
    92bc:	20215044 	eorcs	r5, r1, r4, asr #32
    92c0:	2021504c 	eorcs	r5, r1, ip, asr #32
    92c4:	20215050 	eorcs	r5, r1, r0, asr r0
    92c8:	20215048 	eorcs	r5, r1, r8, asr #32
    92cc:	0000010e 	andeq	r0, r0, lr, lsl #2
    92d0:	20215068 	eorcs	r5, r1, r8, rrx

000092d4 <uart_can_getc>:
    92d4:	e92d4010 	push	{r4, lr}
    92d8:	e59f0008 	ldr	r0, [pc, #8]	; 92e8 <uart_can_getc+0x14>
    92dc:	ebffffc1 	bl	91e8 <get32>
    92e0:	e2000001 	and	r0, r0, #1
    92e4:	e8bd8010 	pop	{r4, pc}
    92e8:	20215064 	eorcs	r5, r1, r4, rrx

000092ec <uart_can_putc>:
    92ec:	e92d4010 	push	{r4, lr}
    92f0:	e59f0010 	ldr	r0, [pc, #16]	; 9308 <uart_can_putc+0x1c>
    92f4:	ebffffbb 	bl	91e8 <get32>
    92f8:	e3100002 	tst	r0, #2
    92fc:	13a00001 	movne	r0, #1
    9300:	03a00000 	moveq	r0, #0
    9304:	e8bd8010 	pop	{r4, pc}
    9308:	20215064 	eorcs	r5, r1, r4, rrx

0000930c <uart_getc>:
    930c:	e92d4010 	push	{r4, lr}
    9310:	ebffffa2 	bl	91a0 <dev_barrier>
    9314:	ebffffee 	bl	92d4 <uart_can_getc>
    9318:	e3500000 	cmp	r0, #0
    931c:	0afffffc 	beq	9314 <uart_getc+0x8>
    9320:	e59f0010 	ldr	r0, [pc, #16]	; 9338 <uart_getc+0x2c>
    9324:	ebffffaf 	bl	91e8 <get32>
    9328:	e6ef4070 	uxtb	r4, r0
    932c:	ebffff9b 	bl	91a0 <dev_barrier>
    9330:	e1a00004 	mov	r0, r4
    9334:	e8bd8010 	pop	{r4, pc}
    9338:	20215040 	eorcs	r5, r1, r0, asr #32

0000933c <uart_putc>:
    933c:	e92d4010 	push	{r4, lr}
    9340:	e1a04000 	mov	r4, r0
    9344:	ebffff95 	bl	91a0 <dev_barrier>
    9348:	ebffffe7 	bl	92ec <uart_can_putc>
    934c:	e3500000 	cmp	r0, #0
    9350:	0afffffc 	beq	9348 <uart_putc+0xc>
    9354:	e6ef1074 	uxtb	r1, r4
    9358:	e59f0008 	ldr	r0, [pc, #8]	; 9368 <uart_putc+0x2c>
    935c:	ebffff95 	bl	91b8 <put32>
    9360:	ebffff8e 	bl	91a0 <dev_barrier>
    9364:	e8bd8010 	pop	{r4, pc}
    9368:	20215040 	eorcs	r5, r1, r0, asr #32

0000936c <uart_has_data>:
    936c:	e92d4010 	push	{r4, lr}
    9370:	ebffff8a 	bl	91a0 <dev_barrier>
    9374:	ebffffd6 	bl	92d4 <uart_can_getc>
    9378:	e8bd8010 	pop	{r4, pc}

0000937c <gpio_set_function>:
    937c:	e350001f 	cmp	r0, #31
    9380:	812fff1e 	bxhi	lr
    9384:	e3d13007 	bics	r3, r1, #7
    9388:	112fff1e 	bxne	lr
    938c:	e92d4070 	push	{r4, r5, r6, lr}
    9390:	e1a05001 	mov	r5, r1
    9394:	e59f3044 	ldr	r3, [pc, #68]	; 93e0 <gpio_set_function+0x64>
    9398:	e0832093 	umull	r2, r3, r3, r0
    939c:	e1a031a3 	lsr	r3, r3, #3
    93a0:	e1a06003 	mov	r6, r3
    93a4:	e0833103 	add	r3, r3, r3, lsl #2
    93a8:	e1a02083 	lsl	r2, r3, #1
    93ac:	e0403002 	sub	r3, r0, r2
    93b0:	e0834083 	add	r4, r3, r3, lsl #1
    93b4:	e2866302 	add	r6, r6, #134217728	; 0x8000000
    93b8:	e2866702 	add	r6, r6, #524288	; 0x80000
    93bc:	e1a06106 	lsl	r6, r6, #2
    93c0:	e1a00006 	mov	r0, r6
    93c4:	ebffff89 	bl	91f0 <GET32>
    93c8:	e3a01007 	mov	r1, #7
    93cc:	e1c01411 	bic	r1, r0, r1, lsl r4
    93d0:	e1811415 	orr	r1, r1, r5, lsl r4
    93d4:	e1a00006 	mov	r0, r6
    93d8:	ebffff78 	bl	91c0 <PUT32>
    93dc:	e8bd8070 	pop	{r4, r5, r6, pc}
    93e0:	cccccccd 	stclgt	12, cr12, [ip], {205}	; 0xcd

000093e4 <gpio_set_output>:
    93e4:	e92d4010 	push	{r4, lr}
    93e8:	e3a01001 	mov	r1, #1
    93ec:	ebffffe2 	bl	937c <gpio_set_function>
    93f0:	e8bd8010 	pop	{r4, pc}

000093f4 <gpio_set_on>:
    93f4:	e350001f 	cmp	r0, #31
    93f8:	812fff1e 	bxhi	lr
    93fc:	e92d4010 	push	{r4, lr}
    9400:	e3a01001 	mov	r1, #1
    9404:	e1a01011 	lsl	r1, r1, r0
    9408:	e59f0004 	ldr	r0, [pc, #4]	; 9414 <gpio_set_on+0x20>
    940c:	ebffff6b 	bl	91c0 <PUT32>
    9410:	e8bd8010 	pop	{r4, pc}
    9414:	2020001c 	eorcs	r0, r0, ip, lsl r0

00009418 <gpio_set_off>:
    9418:	e350001f 	cmp	r0, #31
    941c:	812fff1e 	bxhi	lr
    9420:	e92d4010 	push	{r4, lr}
    9424:	e3a01001 	mov	r1, #1
    9428:	e1a01011 	lsl	r1, r1, r0
    942c:	e59f0004 	ldr	r0, [pc, #4]	; 9438 <gpio_set_off+0x20>
    9430:	ebffff62 	bl	91c0 <PUT32>
    9434:	e8bd8010 	pop	{r4, pc}
    9438:	20200028 	eorcs	r0, r0, r8, lsr #32

0000943c <gpio_set_input>:
    943c:	e92d4010 	push	{r4, lr}
    9440:	e3a01000 	mov	r1, #0
    9444:	ebffffcc 	bl	937c <gpio_set_function>
    9448:	e8bd8010 	pop	{r4, pc}

0000944c <gpio_write>:
    944c:	e92d4010 	push	{r4, lr}
    9450:	e3510000 	cmp	r1, #0
    9454:	1a000001 	bne	9460 <gpio_write+0x14>
    9458:	ebffffee 	bl	9418 <gpio_set_off>
    945c:	e8bd8010 	pop	{r4, pc}
    9460:	ebffffe3 	bl	93f4 <gpio_set_on>
    9464:	e8bd8010 	pop	{r4, pc}

00009468 <gpio_read>:
    9468:	e350001f 	cmp	r0, #31
    946c:	8a000007 	bhi	9490 <gpio_read+0x28>
    9470:	e92d4010 	push	{r4, lr}
    9474:	e200401f 	and	r4, r0, #31
    9478:	e59f3018 	ldr	r3, [pc, #24]	; 9498 <gpio_read+0x30>
    947c:	e08302a0 	add	r0, r3, r0, lsr #5
    9480:	ebffff5a 	bl	91f0 <GET32>
    9484:	e1a00430 	lsr	r0, r0, r4
    9488:	e2000001 	and	r0, r0, #1
    948c:	e8bd8010 	pop	{r4, pc}
    9490:	e3e00000 	mvn	r0, #0
    9494:	e12fff1e 	bx	lr
    9498:	20200034 	eorcs	r0, r0, r4, lsr r0

0000949c <__code_end__>:
    949c:	00000000 	andeq	r0, r0, r0

Disassembly of section .data:

000094a0 <__data_start__>:
    94a0:	000088a4 	andeq	r8, r0, r4, lsr #17

000094a4 <putk>:
    94a4:	000088e0 	andeq	r8, r0, r0, ror #17

Disassembly of section .rodata:

000094a8 <__FUNCTION__.4407-0x250>:
    94a8:	253a7325 	ldrcs	r7, [sl, #-805]!	; 0x325
    94ac:	64253a73 	strtvs	r3, [r5], #-2675	; 0xa73
    94b0:	6572703a 	ldrbvs	r7, [r2, #-58]!	; 0x3a
    94b4:	63746566 	cmnvs	r4, #427819008	; 0x19800000
    94b8:	62612068 	rsbvs	r2, r1, #104	; 0x68
    94bc:	2074726f 	rsbscs	r7, r4, pc, ror #4
    94c0:	25207461 	strcs	r7, [r0, #-1121]!	; 0x461
    94c4:	75202c70 	strvc	r2, [r0, #-3184]!	; 0xc70
    94c8:	5f726573 	svcpl	0x00726573
    94cc:	74736574 	ldrbtvc	r6, [r3], #-1396	; 0x574
    94d0:	25203d20 	strcs	r3, [r0, #-3360]!	; 0xd20
    94d4:	00000a70 	andeq	r0, r0, r0, ror sl
    94d8:	74736574 	ldrbtvc	r6, [r3], #-1396	; 0x574
    94dc:	36312f73 	shsub16cc	r2, r1, r3
    94e0:	7261702d 	rsbvc	r7, r1, #45	; 0x2d
    94e4:	742d3174 	strtvc	r3, [sp], #-372	; 0x174
    94e8:	33747365 	cmncc	r4, #-1811939327	; 0x94000001
    94ec:	0000632e 	andeq	r6, r0, lr, lsr #6
    94f0:	494e4150 	stmdbmi	lr, {r4, r6, r8, lr}^
    94f4:	73253a43 	teqvc	r5, #274432	; 0x43000
    94f8:	3a73253a 	bcc	1cd29e8 <__bss_end__+0x1cc8a98>
    94fc:	693a6425 	ldmdbvs	sl!, {r0, r2, r5, sl, sp, lr}
    9500:	736f706d 	cmnvc	pc, #109	; 0x6d
    9504:	6c626973 	stclvs	9, cr6, [r2], #-460	; 0xfffffe34
    9508:	73203a65 	teqvc	r0, #413696	; 0x65000
    950c:	6c756f68 	ldclvs	15, cr6, [r5], #-416	; 0xfffffe60
    9510:	65672064 	strbvs	r2, [r7, #-100]!	; 0x64
    9514:	6f6e2074 	svcvs	0x006e2074
    9518:	68746f20 	ldmdavs	r4!, {r5, r8, r9, sl, fp, sp, lr}^
    951c:	66207265 	strtvs	r7, [r0], -r5, ror #4
    9520:	746c7561 	strbtvc	r7, [ip], #-1377	; 0x561
    9524:	000a0a73 	andeq	r0, sl, r3, ror sl
    9528:	494e4150 	stmdbmi	lr, {r4, r6, r8, lr}^
    952c:	73253a43 	teqvc	r5, #274432	; 0x43000
    9530:	3a73253a 	bcc	1cd2a20 <__bss_end__+0x1cc8ad0>
    9534:	253a6425 	ldrcs	r6, [sl, #-1061]!	; 0x425
    9538:	00000a73 	andeq	r0, r0, r3, ror sl
    953c:	20746e63 	rsbscs	r6, r4, r3, ror #28
    9540:	4e203d3d 	mcrmi	13, 1, r3, cr0, cr13, {1}
    9544:	00000000 	andeq	r0, r0, r0
    9548:	43435553 	movtmi	r5, #13651	; 0x3553
    954c:	3a535345 	bcc	14de268 <__bss_end__+0x14d4318>
    9550:	00000000 	andeq	r0, r0, r0
    9554:	656e6f64 	strbvs	r6, [lr, #-3940]!	; 0xf64
    9558:	6e697320 	cdpvs	3, 6, cr7, cr9, cr0, {1}
    955c:	20656c67 	rsbcs	r6, r5, r7, ror #24
    9560:	70657473 	rsbvc	r7, r5, r3, ror r4
    9564:	676e6970 			; <UNDEFINED> instruction: 0x676e6970
    9568:	6e63203a 	mcrvs	0, 3, r2, cr3, cr10, {1}
    956c:	64253d74 	strtvs	r3, [r5], #-3444	; 0xd74
    9570:	000a2121 	andeq	r2, sl, r1, lsr #2
    9574:	253a7325 	ldrcs	r7, [sl, #-805]!	; 0x325
    9578:	64253a73 	strtvs	r3, [r5], #-2675	; 0xa73
    957c:	7465733a 	strbtvc	r7, [r5], #-826	; 0x33a
    9580:	676e6974 			; <UNDEFINED> instruction: 0x676e6974
    9584:	20707520 	rsbscs	r7, r0, r0, lsr #10
    9588:	696d2061 	stmdbvs	sp!, {r0, r5, r6, sp}^
    958c:	74616d73 	strbtvc	r6, [r1], #-3443	; 0xd73
    9590:	6f206863 	svcvs	0x00206863
    9594:	7025206e 	eorvc	r2, r5, lr, rrx
    9598:	0000000a 	andeq	r0, r0, sl
    959c:	253a7325 	ldrcs	r7, [sl, #-805]!	; 0x325
    95a0:	64253a73 	strtvs	r3, [r5], #-2675	; 0xa73
    95a4:	6e6f643a 	mcrvs	4, 3, r6, cr15, cr10, {1}
    95a8:	65732065 	ldrbvs	r2, [r3, #-101]!	; 0x65
    95ac:	6e697474 	mcrvs	4, 3, r7, cr9, cr4, {3}
    95b0:	70752067 	rsbsvc	r2, r5, r7, rrx
    95b4:	6d206120 	stfvss	f6, [r0, #-128]!	; 0xffffff80
    95b8:	616d7369 	cmnvs	sp, r9, ror #6
    95bc:	20686374 	rsbcs	r6, r8, r4, ror r3
    95c0:	25206e6f 	strcs	r6, [r0, #-3695]!	; 0xe6f
    95c4:	00000a70 	andeq	r0, r0, r0, ror sl
    95c8:	52455355 	subpl	r5, r5, #1409286145	; 0x54000001
    95cc:	444f4d20 	strbmi	r4, [pc], #-3360	; 95d4 <__data_end__+0x12c>
    95d0:	00000045 	andeq	r0, r0, r5, asr #32
    95d4:	20514946 	subscs	r4, r1, r6, asr #18
    95d8:	45444f4d 	strbmi	r4, [r4, #-3917]	; 0xf4d
    95dc:	00000000 	andeq	r0, r0, r0
    95e0:	20515249 	subscs	r5, r1, r9, asr #4
    95e4:	45444f4d 	strbmi	r4, [r4, #-3917]	; 0xf4d
    95e8:	00000000 	andeq	r0, r0, r0
    95ec:	45505553 	ldrbmi	r5, [r0, #-1363]	; 0x553
    95f0:	4f4d2052 	svcmi	0x004d2052
    95f4:	00004544 	andeq	r4, r0, r4, asr #10
    95f8:	524f4241 	subpl	r4, pc, #268435460	; 0x10000004
    95fc:	4f4d2054 	svcmi	0x004d2054
    9600:	00004544 	andeq	r4, r0, r4, asr #10
    9604:	45444e55 	strbmi	r4, [r4, #-3669]	; 0xe55
    9608:	4f4d2046 	svcmi	0x004d2046
    960c:	00004544 	andeq	r4, r0, r4, asr #10
    9610:	20535953 	subscs	r5, r3, r3, asr r9
    9614:	45444f4d 	strbmi	r4, [r4, #-3917]	; 0xf4d
    9618:	00000000 	andeq	r0, r0, r0
    961c:	70632f2e 	rsbvc	r2, r3, lr, lsr #30
    9620:	752d7273 	strvc	r7, [sp, #-627]!	; 0x273
    9624:	2e6c6974 	mcrcs	9, 3, r6, cr12, cr4, {3}
    9628:	00000068 	andeq	r0, r0, r8, rrx
    962c:	65646f6d 	strbvs	r6, [r4, #-3949]!	; 0xf6d
    9630:	67656c5f 			; <UNDEFINED> instruction: 0x67656c5f
    9634:	6d286c61 	stcvs	12, cr6, [r8, #-388]!	; 0xfffffe7c
    9638:	2965646f 	stmdbcs	r5!, {r0, r1, r2, r3, r5, r6, sl, sp, lr}^
    963c:	00000000 	andeq	r0, r0, r0
    9640:	494e4150 	stmdbmi	lr, {r4, r6, r8, lr}^
    9644:	73253a43 	teqvc	r5, #274432	; 0x43000
    9648:	3a73253a 	bcc	1cd2b38 <__bss_end__+0x1cc8be8>
    964c:	753a6425 	ldrvc	r6, [sl, #-1061]!	; 0x425
    9650:	6f6e6b6e 	svcvs	0x006e6b6e
    9654:	6d206e77 	stcvs	14, cr6, [r0, #-476]!	; 0xfffffe24
    9658:	3a65646f 	bcc	196281c <__bss_end__+0x19588cc>
    965c:	78253c20 	stmdavc	r5!, {r5, sl, fp, ip, sp}
    9660:	000a0a3e 	andeq	r0, sl, lr, lsr sl
    9664:	253a7325 	ldrcs	r7, [sl, #-805]!	; 0x325
    9668:	64253a73 	strtvs	r3, [r5], #-2675	; 0xa73
    966c:	7275633a 	rsbsvc	r6, r5, #-402653184	; 0xe8000000
    9670:	746e6572 	strbtvc	r6, [lr], #-1394	; 0x572
    9674:	646f6d20 	strbtvs	r6, [pc], #-3360	; 967c <__data_end__+0x1d4>
    9678:	203d2065 	eorscs	r2, sp, r5, rrx
    967c:	000a7325 	andeq	r7, sl, r5, lsr #6
    9680:	253a7325 	ldrcs	r7, [sl, #-805]!	; 0x325
    9684:	64253a73 	strtvs	r3, [r5], #-2675	; 0xa73
    9688:	6f62613a 	svcvs	0x0062613a
    968c:	74207475 	strtvc	r7, [r0], #-1141	; 0x475
    9690:	6573206f 	ldrbvs	r2, [r3, #-111]!	; 0x6f
    9694:	696d2074 	stmdbvs	sp!, {r2, r4, r5, r6, sp}^
    9698:	74616d73 	strbtvc	r6, [r1], #-3443	; 0xd73
    969c:	62206863 	eorvs	r6, r0, #6488064	; 0x630000
    96a0:	74706b72 	ldrbtvc	r6, [r0], #-2930	; 0xb72
    96a4:	0000000a 	andeq	r0, r0, sl
    96a8:	253a7325 	ldrcs	r7, [sl, #-805]!	; 0x325
    96ac:	64253a73 	strtvs	r3, [r5], #-2675	; 0xa73
    96b0:	7465733a 	strbtvc	r7, [r5], #-826	; 0x33a
    96b4:	73696d20 	cmnvc	r9, #32, 26	; 0x800
    96b8:	6374616d 	cmnvs	r4, #1073741851	; 0x4000001b
    96bc:	72622068 	rsbvc	r2, r2, #104	; 0x68
    96c0:	0a74706b 	beq	1d25874 <__bss_end__+0x1d1b924>
    96c4:	00000000 	andeq	r0, r0, r0
    96c8:	494e4150 	stmdbmi	lr, {r4, r6, r8, lr}^
    96cc:	73253a43 	teqvc	r5, #274432	; 0x43000
    96d0:	3a73253a 	bcc	1cd2bc0 <__bss_end__+0x1cc8c70>
    96d4:	463a6425 	ldrtmi	r6, [sl], -r5, lsr #8
    96d8:	454c4941 	strbmi	r4, [ip, #-2369]	; 0x941
    96dc:	73203a44 	teqvc	r0, #68, 20	; 0x44000
    96e0:	6c756f68 	ldclvs	15, cr6, [r5], #-416	; 0xfffffe60
    96e4:	6f6e2064 	svcvs	0x006e2064
    96e8:	65672074 	strbvs	r2, [r7, #-116]!	; 0x74
    96ec:	65682074 	strbvs	r2, [r8, #-116]!	; 0x74
    96f0:	0a0a6572 	beq	2a2cc0 <__bss_end__+0x298d70>
    96f4:	00000000 	andeq	r0, r0, r0

000096f8 <__FUNCTION__.4407>:
    96f8:	6d746f6e 	ldclvs	15, cr6, [r4, #-440]!	; 0xfffffe48
    96fc:	006e6961 	rsbeq	r6, lr, r1, ror #18

00009700 <__FUNCTION__.4402>:
    9700:	676e6973 			; <UNDEFINED> instruction: 0x676e6973
    9704:	735f656c 	cmpvc	pc, #108, 10	; 0x1b000000
    9708:	5f706574 	svcpl	0x00706574
    970c:	646e6168 	strbtvs	r6, [lr], #-360	; 0x168
    9710:	0072656c 	rsbseq	r6, r2, ip, ror #10

00009714 <__FUNCTION__.4387>:
    9714:	65646f6d 	strbvs	r6, [r4, #-3949]!	; 0xf6d
    9718:	7274735f 	rsbsvc	r7, r4, #2080374785	; 0x7c000001
    971c:	00000000 	andeq	r0, r0, r0

00009720 <__FUNCTION__.4370>:
    9720:	65646f6d 	strbvs	r6, [r4, #-3949]!	; 0xf6d
    9724:	7465675f 	strbtvc	r6, [r5], #-1887	; 0x75f
    9728:	00000000 	andeq	r0, r0, r0

0000972c <__FUNCTION__.4251>:
    972c:	73746962 	cmnvc	r4, #1605632	; 0x188000
    9730:	7465675f 	strbtvc	r6, [r5], #-1887	; 0x75f
    9734:	00000000 	andeq	r0, r0, r0

00009738 <__FUNCTION__.4375>:
    9738:	65646f6d 	strbvs	r6, [r4, #-3949]!	; 0xf6d
    973c:	7465735f 	strbtvc	r7, [r5], #-863	; 0x35f
    9740:	00000000 	andeq	r0, r0, r0

00009744 <__FUNCTION__.4258>:
    9744:	73746962 	cmnvc	r4, #1605632	; 0x188000
    9748:	726c635f 	rsbvc	r6, ip, #2080374785	; 0x7c000001
    974c:	00000000 	andeq	r0, r0, r0
    9750:	34317063 	ldrtcc	r7, [r1], #-99	; 0x63
    9754:	6265642d 	rsbvs	r6, r5, #754974720	; 0x2d000000
    9758:	632e6775 	teqvs	lr, #30670848	; 0x1d40000
    975c:	00000000 	andeq	r0, r0, r0
    9760:	30726377 	rsbscc	r6, r2, r7, ror r3
    9764:	6765725f 			; <UNDEFINED> instruction: 0x6765725f
    9768:	203d3d20 	eorscs	r3, sp, r0, lsr #26
    976c:	30726377 	rsbscc	r6, r2, r7, ror r3
    9770:	7465675f 	strbtvc	r6, [r5], #-1887	; 0x75f
    9774:	00002928 	andeq	r2, r0, r8, lsr #18
    9778:	494e4150 	stmdbmi	lr, {r4, r6, r8, lr}^
    977c:	73253a43 	teqvc	r5, #274432	; 0x43000
    9780:	3a73253a 	bcc	1cd2c70 <__bss_end__+0x1cc8d20>
    9784:	693a6425 	ldmdbvs	sl!, {r0, r2, r5, sl, sp, lr}
    9788:	736f706d 	cmnvc	pc, #109	; 0x6d
    978c:	6c626973 	stclvs	9, cr6, [r2], #-460	; 0xfffffe34
    9790:	73203a65 	teqvc	r0, #413696	; 0x65000
    9794:	6c756f68 	ldclvs	15, cr6, [r5], #-416	; 0xfffffe60
    9798:	6e6f2064 	cdpvs	0, 6, cr2, cr15, cr4, {3}
    979c:	6720796c 	strvs	r7, [r0, -ip, ror #18]!
    97a0:	64207465 	strtvs	r7, [r0], #-1125	; 0x465
    97a4:	66617461 	strbtvs	r7, [r1], -r1, ror #8
    97a8:	746c7561 	strbtvc	r7, [ip], #-1377	; 0x561
    97ac:	000a0a73 	andeq	r0, sl, r3, ror sl
    97b0:	34317063 	ldrtcc	r7, [r1], #-99	; 0x63
    97b4:	6265642d 	rsbvs	r6, r5, #754974720	; 0x2d000000
    97b8:	682e6775 	stmdavs	lr!, {r0, r2, r4, r5, r6, r8, r9, sl, sp, lr}
    97bc:	00000000 	andeq	r0, r0, r0
    97c0:	72616677 	rsbvc	r6, r1, #124780544	; 0x7700000
    97c4:	7465675f 	strbtvc	r6, [r5], #-1887	; 0x75f
    97c8:	342d2928 	strtcc	r2, [sp], #-2344	; 0x928
    97cc:	203d3d20 	eorscs	r3, sp, r0, lsr #26
    97d0:	00006370 	andeq	r6, r0, r0, ror r3
    97d4:	63746177 	cmnvs	r4, #-1073741795	; 0xc000001d
    97d8:	5f747068 	svcpl	0x00747068
    97dc:	646e6168 	strbtvs	r6, [lr], #-360	; 0x168
    97e0:	3072656c 	rsbscc	r6, r2, ip, ror #10
    97e4:	00000000 	andeq	r0, r0, r0
    97e8:	706b7262 	rsbvc	r7, fp, r2, ror #4
    97ec:	61685f74 	smcvs	34292	; 0x85f4
    97f0:	656c646e 	strbvs	r6, [ip, #-1134]!	; 0x46e
    97f4:	00003072 	andeq	r3, r0, r2, ror r0
    97f8:	494e4150 	stmdbmi	lr, {r4, r6, r8, lr}^
    97fc:	73253a43 	teqvc	r5, #274432	; 0x43000
    9800:	3a73253a 	bcc	1cd2cf0 <__bss_end__+0x1cc8da0>
    9804:	723a6425 	eorsvc	r6, sl, #620756992	; 0x25000000
    9808:	72757465 	rsbsvc	r7, r5, #1694498816	; 0x65000000
    980c:	2064656e 	rsbcs	r6, r4, lr, ror #10
    9810:	20646e61 	rsbcs	r6, r4, r1, ror #28
    9814:	756f6873 	strbvc	r6, [pc, #-2163]!	; 8fa9 <software_interrupt_vector+0x11>
    9818:	6e20646c 	cdpvs	4, 2, cr6, cr0, cr12, {3}
    981c:	6820746f 	stmdavs	r0!, {r0, r1, r2, r3, r5, r6, sl, ip, sp, lr}
    9820:	21657661 	cmncs	r5, r1, ror #12
    9824:	00000a0a 	andeq	r0, r0, sl, lsl #20
    9828:	494e4150 	stmdbmi	lr, {r4, r6, r8, lr}^
    982c:	73253a43 	teqvc	r5, #274432	; 0x43000
    9830:	3a73253a 	bcc	1cd2d20 <__bss_end__+0x1cc8dd0>
    9834:	693a6425 	ldmdbvs	sl!, {r0, r2, r5, sl, sp, lr}
    9838:	656c706d 	strbvs	r7, [ip, #-109]!	; 0x6d
    983c:	746e656d 	strbtvc	r6, [lr], #-1389	; 0x56d
    9840:	69687420 	stmdbvs	r8!, {r5, sl, ip, sp, lr}^
    9844:	75662073 	strbvc	r2, [r6, #-115]!	; 0x73
    9848:	6974636e 	ldmdbvs	r4!, {r1, r2, r3, r5, r6, r8, r9, sp, lr}^
    984c:	0a216e6f 	beq	865210 <__bss_end__+0x85b2c0>
    9850:	0000000a 	andeq	r0, r0, sl

00009854 <__FUNCTION__.4393>:
    9854:	63746177 	cmnvs	r4, #-1073741795	; 0xc000001d
    9858:	5f747068 	svcpl	0x00747068
    985c:	30746573 	rsbscc	r6, r4, r3, ror r5
    9860:	00000000 	andeq	r0, r0, r0

00009864 <__FUNCTION__.4399>:
    9864:	61746164 	cmnvs	r4, r4, ror #2
    9868:	6f62615f 	svcvs	0x0062615f
    986c:	765f7472 			; <UNDEFINED> instruction: 0x765f7472
    9870:	6f746365 	svcvs	0x00746365
    9874:	00000072 	andeq	r0, r0, r2, ror r0

00009878 <__FUNCTION__.4306>:
    9878:	5f736177 	svcpl	0x00736177
    987c:	75626564 	strbvc	r6, [r2, #-1380]!	; 0x564
    9880:	61645f67 	cmnvs	r4, r7, ror #30
    9884:	61666174 	smcvs	26132	; 0x6614
    9888:	00746c75 	rsbseq	r6, r4, r5, ror ip

0000988c <__FUNCTION__.4443>:
    988c:	66657270 			; <UNDEFINED> instruction: 0x66657270
    9890:	68637465 	stmdavs	r3!, {r0, r2, r5, r6, sl, ip, sp, lr}^
    9894:	6f62615f 	svcvs	0x0062615f
    9898:	765f7472 			; <UNDEFINED> instruction: 0x765f7472
    989c:	6f746365 	svcvs	0x00746365
    98a0:	00000072 	andeq	r0, r0, r2, ror r0

000098a4 <__FUNCTION__.4451>:
    98a4:	5f6b7262 	svcpl	0x006b7262
    98a8:	725f6f6e 	subsvc	r6, pc, #440	; 0x1b8
    98ac:	655f7465 	ldrbvs	r7, [pc, #-1125]	; 944f <gpio_write+0x3>
    98b0:	726f7272 	rsbvc	r7, pc, #536870919	; 0x20000007
    98b4:	00000000 	andeq	r0, r0, r0

000098b8 <__FUNCTION__.4461>:
    98b8:	706b7262 	rsbvc	r7, fp, r2, ror #4
    98bc:	696d5f74 	stmdbvs	sp!, {r2, r4, r5, r6, r8, r9, sl, fp, ip, lr}^
    98c0:	74616d73 	strbtvc	r6, [r1], #-3443	; 0xd73
    98c4:	645f6863 	ldrbvs	r6, [pc], #-2147	; 98cc <__FUNCTION__.4461+0x14>
    98c8:	62617369 	rsbvs	r7, r1, #-1543503871	; 0xa4000001
    98cc:	0030656c 	eorseq	r6, r0, ip, ror #10

000098d0 <__FUNCTION__.4466>:
    98d0:	63737973 	cmnvs	r3, #1884160	; 0x1cc000
    98d4:	5f6c6c61 	svcpl	0x006c6c61
    98d8:	74636576 	strbtvc	r6, [r3], #-1398	; 0x576
    98dc:	0000726f 	andeq	r7, r0, pc, ror #4

000098e0 <__FUNCTION__.4249>:
    98e0:	74696d65 	strbtvc	r6, [r9], #-3429	; 0xd65
    98e4:	00000000 	andeq	r0, r0, r0

000098e8 <__FUNCTION__.4197>:
    98e8:	5f697072 	svcpl	0x00697072
    98ec:	5f746573 	svcpl	0x00746573
    98f0:	7074756f 	rsbsvc	r7, r4, pc, ror #10
    98f4:	00007475 	andeq	r7, r0, r5, ror r4

000098f8 <__FUNCTION__.4272>:
    98f8:	705f6176 	subsvc	r6, pc, r6, ror r1	; <UNPREDICTABLE>
    98fc:	746e6972 	strbtvc	r6, [lr], #-2418	; 0x972
    9900:	0000006b 	andeq	r0, r0, fp, rrx
    9904:	6362696c 	cmnvs	r2, #108, 18	; 0x1b0000
    9908:	2d61762f 	stclcs	6, cr7, [r1, #-188]!	; 0xffffff44
    990c:	6e697270 	mcrvs	2, 3, r7, cr9, cr0, {3}
    9910:	632e6b74 	teqvs	lr, #116, 22	; 0x1d000
    9914:	00000000 	andeq	r0, r0, r0
    9918:	00000030 	andeq	r0, r0, r0, lsr r0
    991c:	33323130 	teqcc	r2, #48, 2
    9920:	37363534 			; <UNDEFINED> instruction: 0x37363534
    9924:	00003938 	andeq	r3, r0, r8, lsr r9
    9928:	33323130 	teqcc	r2, #48, 2
    992c:	37363534 			; <UNDEFINED> instruction: 0x37363534
    9930:	62613938 	rsbvs	r3, r1, #56, 18	; 0xe0000
    9934:	66656463 	strbtvs	r6, [r5], -r3, ror #8
    9938:	00000000 	andeq	r0, r0, r0
    993c:	00003130 	andeq	r3, r0, r0, lsr r1
    9940:	63747570 	cmnvs	r4, #112, 10	; 0x1c000000
    9944:	0070665f 	rsbseq	r6, r0, pc, asr r6
    9948:	74646977 	strbtvc	r6, [r4], #-2423	; 0x977
    994c:	203c2068 	eorscs	r2, ip, r8, rrx
    9950:	00003233 	andeq	r3, r0, r3, lsr r2
    9954:	494e4150 	stmdbmi	lr, {r4, r6, r8, lr}^
    9958:	73253a43 	teqvc	r5, #274432	; 0x43000
    995c:	3a73253a 	bcc	1cd2e4c <__bss_end__+0x1cc8efc>
    9960:	663a6425 	ldrtvs	r6, [sl], -r5, lsr #8
    9964:	74616f6c 	strbtvc	r6, [r1], #-3948	; 0xf6c
    9968:	746f6e20 	strbtvc	r6, [pc], #-3616	; 9970 <__FUNCTION__.4272+0x78>
    996c:	616e6520 	cmnvs	lr, r0, lsr #10
    9970:	64656c62 	strbtvs	r6, [r5], #-3170	; 0xc62
    9974:	0a212121 	beq	851e00 <__bss_end__+0x847eb0>
    9978:	00000000 	andeq	r0, r0, r0
    997c:	6e697270 	mcrvs	2, 3, r7, cr9, cr0, {3}
    9980:	203a6b74 	eorscs	r6, sl, r4, ror fp
    9984:	20746f6e 	rsbscs	r6, r4, lr, ror #30
    9988:	646e6168 	strbtvs	r6, [lr], #-360	; 0x168
    998c:	676e696c 	strbvs	r6, [lr, -ip, ror #18]!
    9990:	65707320 	ldrbvs	r7, [r0, #-800]!	; 0x320
    9994:	69666963 	stmdbvs	r6!, {r0, r1, r5, r6, r8, fp, sp, lr}^
    9998:	27207265 	strcs	r7, [r0, -r5, ror #4]!
    999c:	20276325 	eorcs	r6, r7, r5, lsr #6
    99a0:	63736128 	cmnvs	r3, #40, 2
    99a4:	253d6969 	ldrcs	r6, [sp, #-2409]!	; 0x969
    99a8:	000a2964 	andeq	r2, sl, r4, ror #18
    99ac:	494e4150 	stmdbmi	lr, {r4, r6, r8, lr}^
    99b0:	73253a43 	teqvc	r5, #274432	; 0x43000
    99b4:	3a73253a 	bcc	1cd2ea4 <__bss_end__+0x1cc8f54>
    99b8:	703a6425 	eorsvc	r6, sl, r5, lsr #8
    99bc:	746e6972 	strbtvc	r6, [lr], #-2418	; 0x972
    99c0:	7265206b 	rsbvc	r2, r5, #107	; 0x6b
    99c4:	0a726f72 	beq	1ca5794 <__bss_end__+0x1c9b844>
    99c8:	0000000a 	andeq	r0, r0, sl
    99cc:	454e4f44 	strbmi	r4, [lr, #-3908]	; 0xf44
    99d0:	0a212121 	beq	851e5c <__bss_end__+0x847f0c>
    99d4:	00000000 	andeq	r0, r0, r0

000099d8 <__FUNCTION__.4220>:
    99d8:	74736166 	ldrbtvc	r6, [r3], #-358	; 0x166
    99dc:	746e695f 	strbtvc	r6, [lr], #-2399	; 0x95f
    99e0:	75727265 	ldrbvc	r7, [r2, #-613]!	; 0x265
    99e4:	765f7470 			; <UNDEFINED> instruction: 0x765f7470
    99e8:	6f746365 	svcvs	0x00746365
    99ec:	00000072 	andeq	r0, r0, r2, ror r0
    99f0:	494e4150 	stmdbmi	lr, {r4, r6, r8, lr}^
    99f4:	73253a43 	teqvc	r5, #274432	; 0x43000
    99f8:	3a73253a 	bcc	1cd2ee8 <__bss_end__+0x1cc8f98>
    99fc:	453a6425 	ldrmi	r6, [sl, #-1061]!	; 0x425
    9a00:	524f5252 	subpl	r5, pc, #536870917	; 0x20000005
    9a04:	6e75203a 	mrcvs	0, 3, r2, cr5, cr10, {1}
    9a08:	646e6168 	strbtvs	r6, [lr], #-360	; 0x168
    9a0c:	2064656c 	rsbcs	r6, r4, ip, ror #10
    9a10:	65637865 	strbvs	r7, [r3, #-2149]!	; 0x865
    9a14:	6f697470 	svcvs	0x00697470
    9a18:	253c206e 	ldrcs	r2, [ip, #-110]!	; 0x6e
    9a1c:	61203e73 	teqvs	r0, r3, ror lr
    9a20:	43502074 	cmpmi	r0, #116	; 0x74
    9a24:	0a78253d 	beq	1e12f20 <__bss_end__+0x1e08fd0>
    9a28:	0000000a 	andeq	r0, r0, sl
    9a2c:	66617473 			; <UNDEFINED> instruction: 0x66617473
    9a30:	72732d66 	rsbsvc	r2, r3, #6528	; 0x1980
    9a34:	65642f63 	strbvs	r2, [r4, #-3939]!	; 0xf63
    9a38:	6c756166 	ldfvse	f6, [r5], #-408	; 0xfffffe68
    9a3c:	61682d74 	smcvs	33492	; 0x82d4
    9a40:	656c646e 	strbvs	r6, [ip, #-1134]!	; 0x46e
    9a44:	61662d72 	smcvs	25298	; 0x62d2
    9a48:	632e7473 	teqvs	lr, #1929379840	; 0x73000000
    9a4c:	00000000 	andeq	r0, r0, r0
    9a50:	74736166 	ldrbtvc	r6, [r3], #-358	; 0x166
    9a54:	00000000 	andeq	r0, r0, r0

00009a58 <__FUNCTION__.4220>:
    9a58:	65736572 	ldrbvs	r6, [r3, #-1394]!	; 0x572
    9a5c:	65765f74 	ldrbvs	r5, [r6, #-3956]!	; 0xf74
    9a60:	726f7463 	rsbvc	r7, pc, #1660944384	; 0x63000000
    9a64:	00000000 	andeq	r0, r0, r0
    9a68:	66617473 			; <UNDEFINED> instruction: 0x66617473
    9a6c:	72732d66 	rsbsvc	r2, r3, #6528	; 0x1980
    9a70:	65642f63 	strbvs	r2, [r4, #-3939]!	; 0xf63
    9a74:	6c756166 	ldfvse	f6, [r5], #-408	; 0xfffffe68
    9a78:	61682d74 	smcvs	33492	; 0x82d4
    9a7c:	656c646e 	strbvs	r6, [ip, #-1134]!	; 0x46e
    9a80:	65722d72 	ldrbvs	r2, [r2, #-3442]!	; 0xd72
    9a84:	2e746573 	mrccs	5, 3, r6, cr4, cr3, {3}
    9a88:	00000063 	andeq	r0, r0, r3, rrx
    9a8c:	65736572 	ldrbvs	r6, [r3, #-1394]!	; 0x572
    9a90:	00000074 	andeq	r0, r0, r4, ror r0

00009a94 <__FUNCTION__.4220>:
    9a94:	74666f73 	strbtvc	r6, [r6], #-3955	; 0xf73
    9a98:	65726177 	ldrbvs	r6, [r2, #-375]!	; 0x177
    9a9c:	746e695f 	strbtvc	r6, [lr], #-2399	; 0x95f
    9aa0:	75727265 	ldrbvc	r7, [r2, #-613]!	; 0x265
    9aa4:	765f7470 			; <UNDEFINED> instruction: 0x765f7470
    9aa8:	6f746365 	svcvs	0x00746365
    9aac:	00000072 	andeq	r0, r0, r2, ror r0
    9ab0:	66617473 			; <UNDEFINED> instruction: 0x66617473
    9ab4:	72732d66 	rsbsvc	r2, r3, #6528	; 0x1980
    9ab8:	65642f63 	strbvs	r2, [r4, #-3939]!	; 0xf63
    9abc:	6c756166 	ldfvse	f6, [r5], #-408	; 0xfffffe68
    9ac0:	61682d74 	smcvs	33492	; 0x82d4
    9ac4:	656c646e 	strbvs	r6, [ip, #-1134]!	; 0x46e
    9ac8:	77732d72 			; <UNDEFINED> instruction: 0x77732d72
    9acc:	00632e69 	rsbeq	r2, r3, r9, ror #28
    9ad0:	00697773 	rsbeq	r7, r9, r3, ror r7

00009ad4 <__FUNCTION__.4220>:
    9ad4:	65646e75 	strbvs	r6, [r4, #-3701]!	; 0xe75
    9ad8:	656e6966 	strbvs	r6, [lr, #-2406]!	; 0x966
    9adc:	6e695f64 	cdpvs	15, 6, cr5, cr9, cr4, {3}
    9ae0:	75727473 	ldrbvc	r7, [r2, #-1139]!	; 0x473
    9ae4:	6f697463 	svcvs	0x00697463
    9ae8:	65765f6e 	ldrbvs	r5, [r6, #-3950]!	; 0xf6e
    9aec:	726f7463 	rsbvc	r7, pc, #1660944384	; 0x63000000
    9af0:	00000000 	andeq	r0, r0, r0
    9af4:	66617473 			; <UNDEFINED> instruction: 0x66617473
    9af8:	72732d66 	rsbsvc	r2, r3, #6528	; 0x1980
    9afc:	65642f63 	strbvs	r2, [r4, #-3939]!	; 0xf63
    9b00:	6c756166 	ldfvse	f6, [r5], #-408	; 0xfffffe68
    9b04:	61682d74 	smcvs	33492	; 0x82d4
    9b08:	656c646e 	strbvs	r6, [ip, #-1134]!	; 0x46e
    9b0c:	6e752d72 	mrcvs	13, 3, r2, cr5, cr2, {3}
    9b10:	69666564 	stmdbvs	r6!, {r2, r5, r6, r8, sl, sp, lr}^
    9b14:	2d64656e 	cfstr64cs	mvdx6, [r4, #-440]!	; 0xfffffe48
    9b18:	74736e69 	ldrbtvc	r6, [r3], #-3689	; 0xe69
    9b1c:	0000632e 	andeq	r6, r0, lr, lsr #6
    9b20:	65646e75 	strbvs	r6, [r4, #-3701]!	; 0xe75
    9b24:	656e6966 	strbvs	r6, [lr, #-2406]!	; 0x966
    9b28:	6e692064 	cdpvs	0, 6, cr2, cr9, cr4, {3}
    9b2c:	00007473 	andeq	r7, r0, r3, ror r4

Disassembly of section .bss:

00009b30 <__bss_start__>:
    9b30:	00000000 	andeq	r0, r0, r0

00009b34 <cnt>:
    9b34:	00000000 	andeq	r0, r0, r0

00009b38 <watchpt_handler0>:
    9b38:	00000000 	andeq	r0, r0, r0

00009b3c <brkpt_handler0>:
    9b3c:	00000000 	andeq	r0, r0, r0

00009b40 <brk_verbose_p>:
    9b40:	00000000 	andeq	r0, r0, r0

00009b44 <nfaults.4398>:
    9b44:	00000000 	andeq	r0, r0, r0

00009b48 <init_p.4404>:
    9b48:	00000000 	andeq	r0, r0, r0

00009b4c <buf.4189>:
	...

Disassembly of section .ARM.attributes:

00000000 <.ARM.attributes>:
   0:	00002a41 	andeq	r2, r0, r1, asr #20
   4:	61656100 	cmnvs	r5, r0, lsl #2
   8:	01006962 	tsteq	r0, r2, ror #18
   c:	00000020 	andeq	r0, r0, r0, lsr #32
  10:	4b5a3605 	blmi	168d82c <__bss_end__+0x16838dc>
  14:	08070600 	stmdaeq	r7, {r9, sl}
  18:	12010901 	andne	r0, r1, #16384	; 0x4000
  1c:	15011404 	strne	r1, [r1, #-1028]	; 0x404
  20:	18031701 	stmdane	r3, {r0, r8, r9, sl, ip}
  24:	22011a01 	andcs	r1, r1, #4096	; 0x1000
  28:	Address 0x0000000000000028 is out of bounds.


Disassembly of section .comment:

00000000 <.comment>:
   0:	3a434347 	bcc	10d0d24 <__bss_end__+0x10c6dd4>
   4:	4e472820 	cdpmi	8, 4, cr2, cr7, cr0, {1}
   8:	34202955 	strtcc	r2, [r0], #-2389	; 0x955
   c:	332e382e 	teqcc	lr, #3014656	; 0x2e0000
  10:	43434700 	movtmi	r4, #14080	; 0x3700
  14:	3128203a 	teqcc	r8, sl, lsr r0
  18:	2e363a35 	mrccs	10, 1, r3, cr6, cr5, {1}
  1c:	2b312e33 	blcs	c4b8f0 <__bss_end__+0xc419a0>
  20:	326e7673 	rsbcc	r7, lr, #120586240	; 0x7300000
  24:	33303335 	teqcc	r0, #-738197504	; 0xd4000000
  28:	62312d39 	eorsvs	r2, r1, #3648	; 0xe40
  2c:	646c6975 	strbtvs	r6, [ip], #-2421	; 0x975
  30:	36202931 			; <UNDEFINED> instruction: 0x36202931
  34:	312e332e 	teqcc	lr, lr, lsr #6
  38:	31303220 	teqcc	r0, r0, lsr #4
  3c:	32363037 	eorscc	r3, r6, #55	; 0x37
  40:	Address 0x0000000000000040 is out of bounds.


Disassembly of section .debug_info:

00000000 <.debug_info>:
       0:	0000092a 	andeq	r0, r0, sl, lsr #18
       4:	00000004 	andeq	r0, r0, r4
       8:	01040000 	mrseq	r0, (UNDEF: 4)
       c:	0000013e 	andeq	r0, r0, lr, lsr r1
      10:	00002601 	andeq	r2, r0, r1, lsl #12
      14:	00006300 	andeq	r6, r0, r0, lsl #6
      18:	00801000 	addeq	r1, r0, r0
      1c:	0003d000 	andeq	sp, r3, r0
      20:	00000000 	andeq	r0, r0, r0
      24:	05040200 	streq	r0, [r4, #-512]	; 0x200
      28:	00746e69 	rsbseq	r6, r4, r9, ror #28
      2c:	cc070403 	cfstrsgt	mvf0, [r7], {3}
      30:	03000001 	movweq	r0, #1
      34:	00e40601 	rsceq	r0, r4, r1, lsl #12
      38:	02030000 	andeq	r0, r3, #0
      3c:	00022005 	andeq	r2, r2, r5
      40:	05040300 	streq	r0, [r4, #-768]	; 0x300
      44:	00000200 	andeq	r0, r0, r0, lsl #4
      48:	fb050803 	blx	14205e <__bss_end__+0x13810e>
      4c:	03000001 	movweq	r0, #1
      50:	00e20801 	rsceq	r0, r2, r1, lsl #16
      54:	02030000 	andeq	r0, r3, #0
      58:	00004b07 	andeq	r4, r0, r7, lsl #22
      5c:	01060400 	tsteq	r6, r0, lsl #8
      60:	34060000 	strcc	r0, [r6], #-0
      64:	00000068 	andeq	r0, r0, r8, rrx
      68:	c7070403 	strgt	r0, [r7, -r3, lsl #8]
      6c:	03000001 	movweq	r0, #1
      70:	01c20708 	biceq	r0, r2, r8, lsl #14
      74:	04030000 	streq	r0, [r3], #-0
      78:	0001e807 	andeq	lr, r1, r7, lsl #16
      7c:	83040500 	movwhi	r0, #17664	; 0x4500
      80:	06000000 	streq	r0, [r0], -r0
      84:	eb080103 	bl	200498 <__bss_end__+0x1f6548>
      88:	05000000 	streq	r0, [r0, #-0]
      8c:	00009104 	andeq	r9, r0, r4, lsl #2
      90:	00840700 	addeq	r0, r4, r0, lsl #14
      94:	84080000 	strhi	r0, [r8], #-0
      98:	a6000000 	strge	r0, [r0], -r0
      9c:	09000000 	stmdbeq	r0, {}	; <UNPREDICTABLE>
      a0:	00000076 	andeq	r0, r0, r6, ror r0
      a4:	de040007 	cdple	0, 0, cr0, cr4, cr7, {0}
      a8:	02000001 	andeq	r0, r0, #1
      ac:	0000b18a 	andeq	fp, r0, sl, lsl #3
      b0:	b7040500 	strlt	r0, [r4, -r0, lsl #10]
      b4:	0a000000 	beq	bc <__code_start__-0x7f44>
      b8:	000000cc 	andeq	r0, r0, ip, asr #1
      bc:	0000cc0b 	andeq	ip, r0, fp, lsl #24
      c0:	005d0b00 	subseq	r0, sp, r0, lsl #22
      c4:	5d0b0000 	stcpl	0, cr0, [fp, #-0]
      c8:	00000000 	andeq	r0, r0, r0
      cc:	005d0405 	subseq	r0, sp, r5, lsl #8
      d0:	2a0c0000 	bcs	3000d8 <__bss_end__+0x2f6188>
      d4:	02000002 	andeq	r0, r0, #2
      d8:	00005da6 	andeq	r5, r0, r6, lsr #27
      dc:	00ee0300 	rsceq	r0, lr, r0, lsl #6
      e0:	720d0000 	andvc	r0, sp, #0
      e4:	02007465 	andeq	r7, r0, #1694498816	; 0x65000000
      e8:	00005da6 	andeq	r5, r0, r6, lsr #27
      ec:	3e0c0000 	cdpcc	0, 0, cr0, cr12, cr0, {0}
      f0:	02000002 	andeq	r0, r0, #2
      f4:	00002ca9 	andeq	r2, r0, r9, lsr #25
      f8:	01080300 	mrseq	r0, (UNDEF: 56)
      fc:	720d0000 	andvc	r0, sp, #0
     100:	2caa0200 	sfmcs	f0, 4, [sl]
     104:	00000000 	andeq	r0, r0, r0
     108:	0002330c 	andeq	r3, r2, ip, lsl #6
     10c:	25070500 	strcs	r0, [r7, #-1280]	; 0x500
     110:	03000000 	movweq	r0, #0
     114:	00000124 	andeq	r0, r0, r4, lsr #2
     118:	0001d90e 	andeq	sp, r1, lr, lsl #18
     11c:	2c070500 	cfstr32cs	mvfx0, [r7], {-0}
     120:	00000000 	andeq	r0, r0, r0
     124:	00025e0c 	andeq	r5, r2, ip, lsl #28
     128:	5d260300 	stcpl	3, cr0, [r6, #-0]
     12c:	03000000 	movweq	r0, #0
     130:	00000140 	andeq	r0, r0, r0, asr #2
     134:	00003d0f 	andeq	r3, r0, pc, lsl #26
     138:	5d270300 	stcpl	3, cr0, [r7, #-0]
     13c:	00000000 	andeq	r0, r0, r0
     140:	0000c410 	andeq	ip, r0, r0, lsl r4
     144:	03c30200 	biceq	r0, r3, #0, 4
     148:	00000158 	andeq	r0, r0, r8, asr r1
     14c:	00005e0e 	andeq	r5, r0, lr, lsl #28
     150:	25c30200 	strbcs	r0, [r3, #512]	; 0x200
     154:	00000000 	andeq	r0, r0, r0
     158:	0001f111 	andeq	pc, r1, r1, lsl r1	; <UNPREDICTABLE>
     15c:	100c0100 	andne	r0, ip, r0, lsl #2
     160:	3c000080 	stccc	0, cr0, [r0], {128}	; 0x80
     164:	01000000 	mrseq	r0, (UNDEF: 0)
     168:	0001859c 	muleq	r1, ip, r5
     16c:	80101200 	andshi	r1, r0, r0, lsl #4
     170:	00240000 	eoreq	r0, r4, r0
     174:	69130000 	ldmdbvs	r3, {}	; <UNPREDICTABLE>
     178:	250d0100 	strcs	r0, [sp, #-256]	; 0x100
	...
     184:	012a1400 	teqeq	sl, r0, lsl #8
     188:	14010000 	strne	r0, [r1], #-0
     18c:	0000804c 	andeq	r8, r0, ip, asr #32
     190:	00000168 	andeq	r0, r0, r8, ror #2
     194:	03a09c01 	moveq	r9, #256	; 0x100
     198:	1b150000 	blne	5401a0 <__bss_end__+0x536250>
     19c:	01000002 	tsteq	r0, r2
     1a0:	0000cc14 	andeq	ip, r0, r4, lsl ip
     1a4:	00001f00 	andeq	r1, r0, r0, lsl #30
     1a8:	63701600 	cmnvs	r0, #0, 12
     1ac:	5d140100 	ldfpls	f0, [r4, #-0]
     1b0:	40000000 	andmi	r0, r0, r0
     1b4:	15000000 	strne	r0, [r0, #-0]
     1b8:	000003d7 	ldrdeq	r0, [r0], -r7
     1bc:	005d1401 	subseq	r1, sp, r1, lsl #8
     1c0:	006c0000 	rsbeq	r0, ip, r0
     1c4:	1d170000 	ldcne	0, cr0, [r7, #-0]
     1c8:	b0000001 	andlt	r0, r0, r1
     1cc:	05000003 	streq	r0, [r0, #-3]
     1d0:	00970003 	addseq	r0, r7, r3
     1d4:	00ee1800 	rsceq	r1, lr, r0, lsl #16
     1d8:	80880000 	addhi	r0, r8, r0
     1dc:	00080000 	andeq	r0, r8, r0
     1e0:	17010000 	strne	r0, [r1, -r0]
     1e4:	0000021b 	andeq	r0, r0, fp, lsl r2
     1e8:	00808812 	addeq	r8, r0, r2, lsl r8
     1ec:	00000800 	andeq	r0, r0, r0, lsl #16
     1f0:	00fe1900 	rscseq	r1, lr, r0, lsl #18
     1f4:	d21a0000 	andsle	r0, sl, #0
     1f8:	88000000 	stmdahi	r0, {}	; <UNPREDICTABLE>
     1fc:	04000080 	streq	r0, [r0], #-128	; 0x80
     200:	02000000 	andeq	r0, r0, #0
     204:	808812aa 	addhi	r1, r8, sl, lsr #5
     208:	00040000 	andeq	r0, r4, r0
     20c:	e21b0000 	ands	r0, fp, #0
     210:	8d000000 	stchi	0, cr0, [r0, #-0]
     214:	00000000 	andeq	r0, r0, r0
     218:	1c000000 	stcne	0, cr0, [r0], {-0}
     21c:	00008088 	andeq	r8, r0, r8, lsl #1
     220:	000008d3 	ldrdeq	r0, [r0], -r3
     224:	0000025a 	andeq	r0, r0, sl, asr r2
     228:	0153011d 	cmpeq	r3, sp, lsl r1
     22c:	52011d45 	andpl	r1, r1, #4416	; 0x1140
     230:	97000305 	strls	r0, [r0, -r5, lsl #6]
     234:	011d0000 	tsteq	sp, r0
     238:	d8030551 	stmdale	r3, {r0, r4, r6, r8, sl}
     23c:	1d000094 	stcne	0, cr0, [r0, #-592]	; 0xfffffdb0
     240:	03055001 	movweq	r5, #20481	; 0x5001
     244:	000094a8 	andeq	r9, r0, r8, lsr #9
     248:	047d021d 	ldrbteq	r0, [sp], #-541	; 0x21d
     24c:	80100305 	andshi	r0, r0, r5, lsl #6
     250:	021d0000 	andseq	r0, sp, #0
     254:	7402007d 	strvc	r0, [r2], #-125	; 0x7d
     258:	9c1e0000 	ldcls	0, cr0, [lr], {-0}
     25c:	e9000080 	stmdb	r0, {r7}
     260:	1c000008 	stcne	0, cr0, [r0], {8}
     264:	000080b0 	strheq	r8, [r0], -r0
     268:	000008d3 	ldrdeq	r0, [r0], -r3
     26c:	00000291 	muleq	r0, r1, r2
     270:	0153011d 	cmpeq	r3, sp, lsl r1
     274:	52011d48 	andpl	r1, r1, #72, 26	; 0x1200
     278:	97000305 	strls	r0, [r0, -r5, lsl #6]
     27c:	011d0000 	tsteq	sp, r0
     280:	d8030551 	stmdale	r3, {r0, r4, r6, r8, sl}
     284:	1d000094 	stcne	0, cr0, [r0, #-592]	; 0xfffffdb0
     288:	03055001 	movweq	r5, #20481	; 0x5001
     28c:	000094f0 	strdeq	r9, [r0], -r0
     290:	80b41e00 	adcshi	r1, r4, r0, lsl #28
     294:	08f00000 	ldmeq	r0!, {}^	; <UNPREDICTABLE>
     298:	d81e0000 	ldmdale	lr, {}	; <UNPREDICTABLE>
     29c:	e9000080 	stmdb	r0, {r7}
     2a0:	1c000008 	stcne	0, cr0, [r0], {8}
     2a4:	000080f4 	strdeq	r8, [r0], -r4
     2a8:	000008d3 	ldrdeq	r0, [r0], -r3
     2ac:	000002db 	ldrdeq	r0, [r0], -fp
     2b0:	0153011d 	cmpeq	r3, sp, lsl r1
     2b4:	52011d4b 	andpl	r1, r1, #4800	; 0x12c0
     2b8:	97000305 	strls	r0, [r0, -r5, lsl #6]
     2bc:	011d0000 	tsteq	sp, r0
     2c0:	d8030551 	stmdale	r3, {r0, r4, r6, r8, sl}
     2c4:	1d000094 	stcne	0, cr0, [r0, #-592]	; 0xfffffdb0
     2c8:	03055001 	movweq	r5, #20481	; 0x5001
     2cc:	00009528 	andeq	r9, r0, r8, lsr #10
     2d0:	007d021d 	rsbseq	r0, sp, sp, lsl r2
     2d4:	953c0305 	ldrls	r0, [ip, #-773]!	; 0x305
     2d8:	1e000000 	cdpne	0, 0, cr0, cr0, cr0, {0}
     2dc:	000080f8 	strdeq	r8, [r0], -r8	; <UNPREDICTABLE>
     2e0:	000008f0 	strdeq	r0, [r0], -r0	; <UNPREDICTABLE>
     2e4:	0081001c 	addeq	r0, r1, ip, lsl r0
     2e8:	0008d300 	andeq	sp, r8, r0, lsl #6
     2ec:	0002fb00 	andeq	pc, r2, r0, lsl #22
     2f0:	50011d00 	andpl	r1, r1, r0, lsl #26
     2f4:	95480305 	strbls	r0, [r8, #-773]	; 0x305
     2f8:	1c000000 	stcne	0, cr0, [r0], {-0}
     2fc:	00008110 	andeq	r8, r0, r0, lsl r1
     300:	000008d3 	ldrdeq	r0, [r0], -r3
     304:	00000312 	andeq	r0, r0, r2, lsl r3
     308:	0550011d 	ldrbeq	r0, [r0, #-285]	; 0x11d
     30c:	00955403 	addseq	r5, r5, r3, lsl #8
     310:	141e0000 	ldrne	r0, [lr], #-0
     314:	f0000081 			; <UNDEFINED> instruction: 0xf0000081
     318:	1c000008 	stcne	0, cr0, [r0], {8}
     31c:	0000813c 	andeq	r8, r0, ip, lsr r1
     320:	000008d3 	ldrdeq	r0, [r0], -r3
     324:	00000350 	andeq	r0, r0, r0, asr r3
     328:	0153011d 	cmpeq	r3, sp, lsl r1
     32c:	52011d4e 	andpl	r1, r1, #4992	; 0x1380
     330:	97000305 	strls	r0, [r0, -r5, lsl #6]
     334:	011d0000 	tsteq	sp, r0
     338:	d8030551 	stmdale	r3, {r0, r4, r6, r8, sl}
     33c:	1d000094 	stcne	0, cr0, [r0, #-592]	; 0xfffffdb0
     340:	03055001 	movweq	r5, #20481	; 0x5001
     344:	00009574 	andeq	r9, r0, r4, ror r5
     348:	007d021d 	rsbseq	r0, sp, sp, lsl r2
     34c:	00007402 	andeq	r7, r0, r2, lsl #8
     350:	0081481c 	addeq	r4, r1, ip, lsl r8
     354:	0008f700 	andeq	pc, r8, r0, lsl #14
     358:	00036d00 	andeq	r6, r3, r0, lsl #26
     35c:	51011d00 	tstpl	r1, r0, lsl #26
     360:	804c0305 	subhi	r0, ip, r5, lsl #6
     364:	011d0000 	tsteq	sp, r0
     368:	00740250 	rsbseq	r0, r4, r0, asr r2
     36c:	81701f00 	cmnhi	r0, r0, lsl #30
     370:	08d30000 	ldmeq	r3, {}^	; <UNPREDICTABLE>
     374:	011d0000 	tsteq	sp, r0
     378:	20080253 	andcs	r0, r8, r3, asr r2
     37c:	0552011d 	ldrbeq	r0, [r2, #-285]	; 0x11d
     380:	00970003 	addseq	r0, r7, r3
     384:	51011d00 	tstpl	r1, r0, lsl #26
     388:	94d80305 	ldrbls	r0, [r8], #773	; 0x305
     38c:	011d0000 	tsteq	sp, r0
     390:	9c030550 	cfstr32ls	mvfx0, [r3], {80}	; 0x50
     394:	1d000095 	stcne	0, cr0, [r0, #-596]	; 0xfffffdac
     398:	02007d02 	andeq	r7, r0, #2, 26	; 0x80
     39c:	00000074 	andeq	r0, r0, r4, ror r0
     3a0:	00008408 	andeq	r8, r0, r8, lsl #8
     3a4:	0003b000 	andeq	fp, r3, r0
     3a8:	00760900 	rsbseq	r0, r6, r0, lsl #18
     3ac:	00130000 	andseq	r0, r3, r0
     3b0:	0003a007 	andeq	sl, r3, r7
     3b4:	00420c00 	subeq	r0, r2, r0, lsl #24
     3b8:	18050000 	stmdane	r5, {}	; <UNPREDICTABLE>
     3bc:	0000008b 	andeq	r0, r0, fp, lsl #1
     3c0:	0003de03 	andeq	sp, r3, r3, lsl #28
     3c4:	003d0e00 	eorseq	r0, sp, r0, lsl #28
     3c8:	18050000 	stmdane	r5, {}	; <UNPREDICTABLE>
     3cc:	0000005d 	andeq	r0, r0, sp, asr r0
     3d0:	00011d20 	andeq	r1, r1, r0, lsr #26
     3d4:	0003ee00 	andeq	lr, r3, r0, lsl #28
     3d8:	00004200 	andeq	r4, r0, r0, lsl #4
     3dc:	84080000 	strhi	r0, [r8], #-0
     3e0:	ee000000 	cdp	0, 0, cr0, cr0, cr0, {0}
     3e4:	09000003 	stmdbeq	r0, {r0, r1}
     3e8:	00000076 	andeq	r0, r0, r6, ror r0
     3ec:	de070008 	cdple	0, 0, cr0, cr7, cr8, {0}
     3f0:	0c000003 	stceq	0, cr0, [r0], {3}
     3f4:	00000000 	andeq	r0, r0, r0
     3f8:	005d0f05 	subseq	r0, sp, r5, lsl #30
     3fc:	27030000 	strcs	r0, [r3, -r0]
     400:	0e000004 	cdpeq	0, 0, cr0, cr0, cr4, {0}
     404:	0000003d 	andeq	r0, r0, sp, lsr r0
     408:	005d0f05 	subseq	r0, sp, r5, lsl #30
     40c:	d90f0000 	stmdble	pc, {}	; <UNPREDICTABLE>
     410:	05000001 	streq	r0, [r0, #-1]
     414:	00002c10 	andeq	r2, r0, r0, lsl ip
     418:	011d2000 	tsteq	sp, r0
     41c:	04270000 	strteq	r0, [r7], #-0
     420:	00000000 	andeq	r0, r0, r0
     424:	07000000 	streq	r0, [r0, -r0]
     428:	000003de 	ldrdeq	r0, [r0], -lr
     42c:	00001d0c 	andeq	r1, r0, ip, lsl #26
     430:	5d1c0400 	cfldrspl	mvf0, [ip, #-0]
     434:	03000000 	movweq	r0, #0
     438:	00000470 	andeq	r0, r0, r0, ror r4
     43c:	04007821 	streq	r7, [r0], #-2081	; 0x821
     440:	00005d1c 	andeq	r5, r0, ip, lsl sp
     444:	626c2100 	rsbvs	r2, ip, #0, 2
     448:	2c1c0400 	cfldrscs	mvf0, [ip], {-0}
     44c:	21000000 	mrscs	r0, (UNDEF: 0)
     450:	04006275 	streq	r6, [r0], #-629	; 0x275
     454:	00002c1c 	andeq	r2, r0, ip, lsl ip
     458:	011d2000 	tsteq	sp, r0
     45c:	04700000 	ldrbteq	r0, [r0], #-0
     460:	001d0000 	andseq	r0, sp, r0
     464:	6e0d0000 	cdpvs	0, 0, cr0, cr13, cr0, {0}
     468:	2c1f0400 	cfldrscs	mvf0, [pc], {-0}
     46c:	00000000 	andeq	r0, r0, r0
     470:	0003de07 	andeq	sp, r3, r7, lsl #28
     474:	00d00c00 	sbcseq	r0, r0, r0, lsl #24
     478:	14050000 	strne	r0, [r5], #-0
     47c:	0000005d 	andeq	r0, r0, sp, asr r0
     480:	0004a903 	andeq	sl, r4, r3, lsl #18
     484:	003d0e00 	eorseq	r0, sp, r0, lsl #28
     488:	14050000 	strne	r0, [r5], #-0
     48c:	0000005d 	andeq	r0, r0, sp, asr r0
     490:	0001d90e 	andeq	sp, r1, lr, lsl #18
     494:	2c140500 	cfldr32cs	mvfx0, [r4], {-0}
     498:	20000000 	andcs	r0, r0, r0
     49c:	0000011d 	andeq	r0, r0, sp, lsl r1
     4a0:	000004a9 	andeq	r0, r0, r9, lsr #9
     4a4:	000000d0 	ldrdeq	r0, [r0], -r0	; <UNPREDICTABLE>
     4a8:	03de0700 	bicseq	r0, lr, #0, 14
     4ac:	fd0c0000 	stc2	0, cr0, [ip, #-0]
     4b0:	04000000 	streq	r0, [r0], #-0
     4b4:	00005d25 	andeq	r5, r0, r5, lsr #26
     4b8:	04fd0300 	ldrbteq	r0, [sp], #768	; 0x300
     4bc:	78210000 	stmdavc	r1!, {}	; <UNPREDICTABLE>
     4c0:	5d250400 	cfstrspl	mvf0, [r5, #-0]
     4c4:	21000000 	mrscs	r0, (UNDEF: 0)
     4c8:	0400626c 	streq	r6, [r0], #-620	; 0x26c
     4cc:	00002c25 	andeq	r2, r0, r5, lsr #24
     4d0:	62752100 	rsbsvs	r2, r5, #0, 2
     4d4:	2c250400 	cfstrscs	mvf0, [r5], #-0
     4d8:	20000000 	andcs	r0, r0, r0
     4dc:	0000011d 	andeq	r0, r0, sp, lsl r1
     4e0:	000004fd 	strdeq	r0, [r0], -sp
     4e4:	000000fd 	strdeq	r0, [r0], -sp
     4e8:	04006e0d 	streq	r6, [r0], #-3597	; 0xe0d
     4ec:	00002c28 	andeq	r2, r0, r8, lsr #24
     4f0:	02090f00 	andeq	r0, r9, #0, 30
     4f4:	2a040000 	bcs	1004fc <__bss_end__+0xf65ac>
     4f8:	0000002c 	andeq	r0, r0, ip, lsr #32
     4fc:	03de0700 	bicseq	r0, lr, #0, 14
     500:	bc110000 	ldclt	0, cr0, [r1], {-0}
     504:	01000000 	mrseq	r0, (UNDEF: 0)
     508:	0081b424 	addeq	fp, r1, r4, lsr #8
     50c:	00022c00 	andeq	r2, r2, r0, lsl #24
     510:	9c9c0100 	ldflss	f0, [ip], {0}
     514:	22000008 	andcs	r0, r0, #8
     518:	000000d9 	ldrdeq	r0, [r0], -r9
     51c:	005d2a01 	subseq	r2, sp, r1, lsl #20
     520:	55010000 	strpl	r0, [r1, #-0]
     524:	00011d17 	andeq	r1, r1, r7, lsl sp
     528:	00089c00 	andeq	r9, r8, r0, lsl #24
     52c:	f8030500 			; <UNDEFINED> instruction: 0xf8030500
     530:	18000096 	stmdane	r0, {r1, r2, r4, r7}
     534:	00000124 	andeq	r0, r0, r4, lsr #2
     538:	000081c4 	andeq	r8, r0, r4, asr #3
     53c:	00000004 	andeq	r0, r0, r4
     540:	05582a01 	ldrbeq	r2, [r8, #-2561]	; 0xa01
     544:	c4120000 	ldrgt	r0, [r2], #-0
     548:	04000081 	streq	r0, [r0], #-129	; 0x81
     54c:	23000000 	movwcs	r0, #0
     550:	00000134 	andeq	r0, r0, r4, lsr r1
     554:	00005501 	andeq	r5, r0, r1, lsl #10
     558:	00014018 	andeq	r4, r1, r8, lsl r0
     55c:	0081c800 	addeq	ip, r1, r0, lsl #16
     560:	00000c00 	andeq	r0, r0, r0, lsl #24
     564:	722c0100 	eorvc	r0, ip, #0, 2
     568:	24000005 	strcs	r0, [r0], #-5
     56c:	0000014c 	andeq	r0, r0, ip, asr #2
     570:	24180001 	ldrcs	r0, [r8], #-1
     574:	d4000001 	strle	r0, [r0], #-1
     578:	04000081 	streq	r0, [r0], #-129	; 0x81
     57c:	01000000 	mrseq	r0, (UNDEF: 0)
     580:	0005972d 	andeq	r9, r5, sp, lsr #14
     584:	81d41200 	bicshi	r1, r4, r0, lsl #4
     588:	00040000 	andeq	r0, r4, r0
     58c:	34230000 	strtcc	r0, [r3], #-0
     590:	01000001 	tsteq	r0, r1
     594:	18000054 	stmdane	r0, {r2, r4, r6}
     598:	000003b5 			; <UNDEFINED> instruction: 0x000003b5
     59c:	000081d8 	ldrdeq	r8, [r0], -r8	; <UNPREDICTABLE>
     5a0:	0000010c 	andeq	r0, r0, ip, lsl #2
     5a4:	06e92d01 	strbteq	r2, [r9], r1, lsl #26
     5a8:	c5250000 	strgt	r0, [r5, #-0]!
     5ac:	01000003 	tsteq	r0, r3
     5b0:	81d81254 	bicshi	r1, r8, r4, asr r2
     5b4:	010c0000 	mrseq	r0, (UNDEF: 12)
     5b8:	d0230000 	eorle	r0, r3, r0
     5bc:	05000003 	streq	r0, [r0, #-3]
     5c0:	00971403 	addseq	r1, r7, r3, lsl #8
     5c4:	03f31800 	mvnseq	r1, #0, 16
     5c8:	81d80000 	bicshi	r0, r8, r0
     5cc:	00680000 	rsbeq	r0, r8, r0
     5d0:	19050000 	stmdbne	r5, {}	; <UNPREDICTABLE>
     5d4:	0000069f 	muleq	r0, pc, r6	; <UNPREDICTABLE>
     5d8:	00040325 	andeq	r0, r4, r5, lsr #6
     5dc:	12540100 	subsne	r0, r4, #0, 2
     5e0:	000081d8 	ldrdeq	r8, [r0], -r8	; <UNPREDICTABLE>
     5e4:	00000068 	andeq	r0, r0, r8, rrx
     5e8:	00040e19 	andeq	r0, r4, r9, lsl lr
     5ec:	04192300 	ldreq	r2, [r9], #-768	; 0x300
     5f0:	03050000 	movweq	r0, #20480	; 0x5000
     5f4:	00009720 	andeq	r9, r0, r0, lsr #14
     5f8:	00042c18 	andeq	r2, r4, r8, lsl ip
     5fc:	0081d800 	addeq	sp, r1, r0, lsl #16
     600:	00000400 	andeq	r0, r0, r0, lsl #8
     604:	3a100500 	bcc	401a0c <__bss_end__+0x3f7abc>
     608:	24000006 	strcs	r0, [r0], #-6
     60c:	0000044f 	andeq	r0, r0, pc, asr #8
     610:	04452404 	strbeq	r2, [r5], #-1028	; 0x404
     614:	25000000 	strcs	r0, [r0, #-0]
     618:	0000043c 	andeq	r0, r0, ip, lsr r4
     61c:	d8125401 	ldmdale	r2, {r0, sl, ip, lr}
     620:	04000081 	streq	r0, [r0], #-129	; 0x81
     624:	26000000 	strcs	r0, [r0], -r0
     628:	00000466 	andeq	r0, r0, r6, ror #8
     62c:	04592305 	ldrbeq	r2, [r9], #-773	; 0x305
     630:	03050000 	movweq	r0, #20480	; 0x5000
     634:	0000972c 	andeq	r9, r0, ip, lsr #14
     638:	08180000 	ldmdaeq	r8, {}	; <UNPREDICTABLE>
     63c:	dc000001 	stcle	0, cr0, [r0], {1}
     640:	38000081 	stmdacc	r0, {r0, r7}
     644:	05000000 	streq	r0, [r0, #-0]
     648:	00065311 	andeq	r5, r6, r1, lsl r3
     64c:	01182700 	tsteq	r8, r0, lsl #14
     650:	1e000000 	cdpne	0, 0, cr0, cr0, cr0, {0}
     654:	00008220 	andeq	r8, r0, r0, lsr #4
     658:	000008e9 	andeq	r0, r0, r9, ror #17
     65c:	00823c1c 	addeq	r3, r2, ip, lsl ip
     660:	0008d300 	andeq	sp, r8, r0, lsl #6
     664:	00069400 	andeq	r9, r6, r0, lsl #8
     668:	53011d00 	movwpl	r1, #7424	; 0x1d00
     66c:	011d4101 	tsteq	sp, r1, lsl #2
     670:	20030552 	andcs	r0, r3, r2, asr r5
     674:	1d000097 	stcne	0, cr0, [r0, #-604]	; 0xfffffda4
     678:	03055101 	movweq	r5, #20737	; 0x5101
     67c:	0000961c 	andeq	r9, r0, ip, lsl r6
     680:	0550011d 	ldrbeq	r0, [r0, #-285]	; 0x11d
     684:	00952803 	addseq	r2, r5, r3, lsl #16
     688:	7d021d00 	stcvc	13, cr1, [r2, #-0]
     68c:	2c030500 	cfstr32cs	mvfx0, [r3], {-0}
     690:	00000096 	muleq	r0, r6, r0
     694:	0082401e 	addeq	r4, r2, lr, lsl r0
     698:	0008f000 	andeq	pc, r8, r0
     69c:	1e000000 	cdpne	0, 0, cr0, cr0, cr0, {0}
     6a0:	000082bc 			; <UNDEFINED> instruction: 0x000082bc
     6a4:	000008e9 	andeq	r0, r0, r9, ror #17
     6a8:	0082d41c 	addeq	sp, r2, ip, lsl r4
     6ac:	0008d300 	andeq	sp, r8, r0, lsl #6
     6b0:	0006de00 	andeq	sp, r6, r0, lsl #28
     6b4:	53011d00 	movwpl	r1, #7424	; 0x1d00
     6b8:	1d210802 	stcne	8, cr0, [r1, #-8]!
     6bc:	03055201 	movweq	r5, #20993	; 0x5201
     6c0:	00009714 	andeq	r9, r0, r4, lsl r7
     6c4:	0551011d 	ldrbeq	r0, [r1, #-285]	; 0x11d
     6c8:	00961c03 	addseq	r1, r6, r3, lsl #24
     6cc:	50011d00 	andpl	r1, r1, r0, lsl #26
     6d0:	96400305 	strbls	r0, [r0], -r5, lsl #6
     6d4:	021d0000 	andseq	r0, sp, #0
     6d8:	7402007d 	strvc	r0, [r2], #-125	; 0x7d
     6dc:	d81e0000 	ldmdale	lr, {}	; <UNPREDICTABLE>
     6e0:	f0000082 			; <UNDEFINED> instruction: 0xf0000082
     6e4:	00000008 	andeq	r0, r0, r8
     6e8:	01401800 	cmpeq	r0, r0, lsl #16
     6ec:	83500000 	cmphi	r0, #0
     6f0:	000c0000 	andeq	r0, ip, r0
     6f4:	35010000 	strcc	r0, [r1, #-0]
     6f8:	00000703 	andeq	r0, r0, r3, lsl #14
     6fc:	00014c24 	andeq	r4, r1, r4, lsr #24
     700:	18000000 	stmdane	r0, {}	; <UNPREDICTABLE>
     704:	00000475 	andeq	r0, r0, r5, ror r4
     708:	0000835c 	andeq	r8, r0, ip, asr r3
     70c:	00000004 	andeq	r0, r0, r4
     710:	077d3601 	ldrbeq	r3, [sp, -r1, lsl #12]!
     714:	90240000 	eorls	r0, r4, r0
     718:	10000004 	andne	r0, r0, r4
     71c:	00048525 	andeq	r8, r4, r5, lsr #10
     720:	12550100 	subsne	r0, r5, #0, 2
     724:	0000835c 	andeq	r8, r0, ip, asr r3
     728:	00000004 	andeq	r0, r0, r4
     72c:	00049b23 	andeq	r9, r4, r3, lsr #22
     730:	38030500 	stmdacc	r3, {r8, sl}
     734:	1a000097 	bne	998 <__code_start__-0x7668>
     738:	000004ae 	andeq	r0, r0, lr, lsr #9
     73c:	0000835c 	andeq	r8, r0, ip, asr r3
     740:	00000004 	andeq	r0, r0, r4
     744:	d1241605 	teqle	r4, r5, lsl #12
     748:	04000004 	streq	r0, [r0], #-4
     74c:	0004c724 	andeq	ip, r4, r4, lsr #14
     750:	be250000 	cdplt	0, 2, cr0, cr5, cr0, {0}
     754:	01000004 	tsteq	r0, r4
     758:	835c1255 	cmphi	ip, #1342177285	; 0x50000005
     75c:	00040000 	andeq	r0, r4, r0
     760:	e8260000 	stmda	r6!, {}	; <UNPREDICTABLE>
     764:	05000004 	streq	r0, [r0, #-4]
     768:	0004f126 	andeq	pc, r4, r6, lsr #2
     76c:	db231f00 	blle	8c8374 <__bss_end__+0x8be424>
     770:	05000004 	streq	r0, [r0, #-4]
     774:	00974403 	addseq	r4, r7, r3, lsl #8
     778:	00000000 	andeq	r0, r0, r0
     77c:	81c01e00 	bichi	r1, r0, r0, lsl #28
     780:	090d0000 	stmdbeq	sp, {}	; <UNPREDICTABLE>
     784:	c41e0000 	ldrgt	r0, [lr], #-0
     788:	14000081 	strne	r0, [r0], #-129	; 0x81
     78c:	1c000009 	stcne	0, cr0, [r0], {9}
     790:	000082fc 	strdeq	r8, [r0], -ip
     794:	000008d3 	ldrdeq	r0, [r0], -r3
     798:	000007be 			; <UNDEFINED> instruction: 0x000007be
     79c:	0253011d 	subseq	r0, r3, #1073741831	; 0x40000007
     7a0:	011d2d08 	tsteq	sp, r8, lsl #26
     7a4:	f8030552 			; <UNDEFINED> instruction: 0xf8030552
     7a8:	1d000096 	stcne	0, cr0, [r0, #-600]	; 0xfffffda8
     7ac:	03055101 	movweq	r5, #20737	; 0x5101
     7b0:	000094d8 	ldrdeq	r9, [r0], -r8
     7b4:	0550011d 	ldrbeq	r0, [r0, #-285]	; 0x11d
     7b8:	00966403 	addseq	r6, r6, r3, lsl #8
     7bc:	201c0000 	andscs	r0, ip, r0
     7c0:	d3000083 	movwle	r0, #131	; 0x83
     7c4:	ed000008 	stc	0, cr0, [r0, #-32]	; 0xffffffe0
     7c8:	1d000007 	stcne	0, cr0, [r0, #-28]	; 0xffffffe4
     7cc:	08025301 	stmdaeq	r2, {r0, r8, r9, ip, lr}
     7d0:	52011d30 	andpl	r1, r1, #48, 26	; 0xc00
     7d4:	96f80305 	ldrbtls	r0, [r8], r5, lsl #6
     7d8:	011d0000 	tsteq	sp, r0
     7dc:	d8030551 	stmdale	r3, {r0, r4, r6, r8, sl}
     7e0:	1d000094 	stcne	0, cr0, [r0, #-592]	; 0xfffffdb0
     7e4:	03055001 	movweq	r5, #20481	; 0x5001
     7e8:	00009680 	andeq	r9, r0, r0, lsl #13
     7ec:	832c1c00 	teqhi	ip, #0, 24
     7f0:	08f70000 	ldmeq	r7!, {}^	; <UNPREDICTABLE>
     7f4:	08090000 	stmdaeq	r9, {}	; <UNPREDICTABLE>
     7f8:	011d0000 	tsteq	sp, r0
     7fc:	4c030551 	cfstr32mi	mvfx0, [r3], {81}	; 0x51
     800:	1d000080 	stcne	0, cr0, [r0, #-512]	; 0xfffffe00
     804:	30015001 	andcc	r5, r1, r1
     808:	83501c00 	cmphi	r0, #0, 24
     80c:	08d30000 	ldmeq	r3, {}^	; <UNPREDICTABLE>
     810:	08380000 	ldmdaeq	r8!, {}	; <UNPREDICTABLE>
     814:	011d0000 	tsteq	sp, r0
     818:	32080253 	andcc	r0, r8, #805306373	; 0x30000005
     81c:	0552011d 	ldrbeq	r0, [r2, #-285]	; 0x11d
     820:	0096f803 	addseq	pc, r6, r3, lsl #16
     824:	51011d00 	tstpl	r1, r0, lsl #26
     828:	94d80305 	ldrbls	r0, [r8], #773	; 0x305
     82c:	011d0000 	tsteq	sp, r0
     830:	a8030550 	stmdage	r3, {r4, r6, r8, sl}
     834:	00000096 	muleq	r0, r6, r0
     838:	00836c1c 	addeq	r6, r3, ip, lsl ip
     83c:	00091b00 	andeq	r1, r9, r0, lsl #22
     840:	00085a00 	andeq	r5, r8, r0, lsl #20
     844:	51011d00 	tstpl	r1, r0, lsl #26
     848:	80100305 	andshi	r0, r0, r5, lsl #6
     84c:	011d0000 	tsteq	sp, r0
     850:	00750750 	rsbseq	r0, r5, r0, asr r7
     854:	401ae009 	andsmi	lr, sl, r9
     858:	701e0021 	andsvc	r0, lr, r1, lsr #32
     85c:	e9000083 	stmdb	r0, {r0, r1, r7}
     860:	1c000008 	stcne	0, cr0, [r0], {8}
     864:	00008384 	andeq	r8, r0, r4, lsl #7
     868:	000008d3 	ldrdeq	r0, [r0], -r3
     86c:	00000892 	muleq	r0, r2, r8
     870:	0253011d 	subseq	r0, r3, #1073741831	; 0x40000007
     874:	011d3808 	tsteq	sp, r8, lsl #16
     878:	f8030552 			; <UNDEFINED> instruction: 0xf8030552
     87c:	1d000096 	stcne	0, cr0, [r0, #-600]	; 0xfffffda8
     880:	03055101 	movweq	r5, #20737	; 0x5101
     884:	000094d8 	ldrdeq	r9, [r0], -r8
     888:	0550011d 	ldrbeq	r0, [r0, #-285]	; 0x11d
     88c:	0096c803 	addseq	ip, r6, r3, lsl #16
     890:	881e0000 	ldmdahi	lr, {}	; <UNPREDICTABLE>
     894:	f0000083 			; <UNDEFINED> instruction: 0xf0000083
     898:	00000008 	andeq	r0, r0, r8
     89c:	00009607 	andeq	r9, r0, r7, lsl #12
     8a0:	02762200 	rsbseq	r2, r6, #0, 4
     8a4:	08010000 	stmdaeq	r1, {}	; <UNPREDICTABLE>
     8a8:	000008b2 			; <UNDEFINED> instruction: 0x000008b2
     8ac:	9b300305 	blls	c014c8 <__bss_end__+0xbf7578>
     8b0:	25280000 	strcs	r0, [r8, #-0]!
     8b4:	29000000 	stmdbcs	r0, {}	; <UNPREDICTABLE>
     8b8:	00746e63 	rsbseq	r6, r4, r3, ror #28
     8bc:	08b20801 	ldmeq	r2!, {r0, fp}
     8c0:	03050000 	movweq	r0, #20480	; 0x5000
     8c4:	00009b34 	andeq	r9, r0, r4, lsr fp
     8c8:	00010f2a 	andeq	r0, r1, sl, lsr #30
     8cc:	25c20200 	strbcs	r0, [r2, #512]	; 0x200
     8d0:	2b000000 	blcs	8d8 <__code_start__-0x7728>
     8d4:	00000495 	muleq	r0, r5, r4
     8d8:	00252907 	eoreq	r2, r5, r7, lsl #18
     8dc:	08e90000 	stmiaeq	r9!, {}^	; <UNPREDICTABLE>
     8e0:	8b0b0000 	blhi	2c08e8 <__bss_end__+0x2b6998>
     8e4:	2c000000 	stccs	0, cr0, [r0], {-0}
     8e8:	02672d00 	rsbeq	r2, r7, #0, 26
     8ec:	1e070000 	cdpne	0, 0, cr0, cr7, cr0, {0}
     8f0:	0000f02d 	andeq	pc, r0, sp, lsr #32
     8f4:	2e650700 	cdpcs	7, 6, cr0, cr5, cr0, {0}
     8f8:	00000009 	andeq	r0, r0, r9
     8fc:	090dd902 	stmdbeq	sp, {r1, r8, fp, ip, lr, pc}
     900:	5d0b0000 	stcpl	0, cr0, [fp, #-0]
     904:	0b000000 	bleq	90c <__code_start__-0x76f4>
     908:	000000a6 	andeq	r0, r0, r6, lsr #1
     90c:	02522d00 	subseq	r2, r2, #0, 26
     910:	90020000 	andls	r0, r2, r0
     914:	00020e2d 	andeq	r0, r2, sp, lsr #28
     918:	2f8d0700 	svccs	0x008d0700
     91c:	000001ab 	andeq	r0, r0, fp, lsr #3
     920:	5d0bce02 	stcpl	14, cr12, [fp, #-8]
     924:	0b000000 	bleq	92c <__code_start__-0x76d4>
     928:	0000007d 	andeq	r0, r0, sp, ror r0
     92c:	0c580000 	mraeq	r0, r8, acc0
     930:	00040000 	andeq	r0, r4, r0
     934:	00000259 	andeq	r0, r0, r9, asr r2
     938:	013e0104 	teqeq	lr, r4, lsl #2
     93c:	b7010000 	strlt	r0, [r1, -r0]
     940:	63000002 	movwvs	r0, #2
     944:	e0000000 	and	r0, r0, r0
     948:	54000083 	strpl	r0, [r0], #-131	; 0x83
     94c:	e4000003 	str	r0, [r0], #-3
     950:	02000001 	andeq	r0, r0, #1
     954:	6e690504 	cdpvs	5, 6, cr0, cr9, cr4, {0}
     958:	04030074 	streq	r0, [r3], #-116	; 0x74
     95c:	0001cc07 	andeq	ip, r1, r7, lsl #24
     960:	06010300 	streq	r0, [r1], -r0, lsl #6
     964:	000000e4 	andeq	r0, r0, r4, ror #1
     968:	20050203 	andcs	r0, r5, r3, lsl #4
     96c:	03000002 	movweq	r0, #2
     970:	02000504 	andeq	r0, r0, #4, 10	; 0x1000000
     974:	08030000 	stmdaeq	r3, {}	; <UNPREDICTABLE>
     978:	0001fb05 	andeq	pc, r1, r5, lsl #22
     97c:	08010300 	stmdaeq	r1, {r8, r9}
     980:	000000e2 	andeq	r0, r0, r2, ror #1
     984:	4b070203 	blmi	1c1198 <__bss_end__+0x1b7248>
     988:	04000000 	streq	r0, [r0], #-0
     98c:	00000106 	andeq	r0, r0, r6, lsl #2
     990:	00683403 	rsbeq	r3, r8, r3, lsl #8
     994:	04030000 	streq	r0, [r3], #-0
     998:	0001c707 	andeq	ip, r1, r7, lsl #14
     99c:	07080300 	streq	r0, [r8, -r0, lsl #6]
     9a0:	000001c2 	andeq	r0, r0, r2, asr #3
     9a4:	e8070403 	stmda	r7, {r0, r1, sl}
     9a8:	05000001 	streq	r0, [r0, #-1]
     9ac:	08010304 	stmdaeq	r1, {r2, r8, r9}
     9b0:	000000eb 	andeq	r0, r0, fp, ror #1
     9b4:	008c0406 	addeq	r0, ip, r6, lsl #8
     9b8:	7f070000 	svcvc	0x00070000
     9bc:	08000000 	stmdaeq	r0, {}	; <UNPREDICTABLE>
     9c0:	0000007f 	andeq	r0, r0, pc, ror r0
     9c4:	000000a1 	andeq	r0, r0, r1, lsr #1
     9c8:	00007609 	andeq	r7, r0, r9, lsl #12
     9cc:	04001700 	streq	r1, [r0], #-1792	; 0x700
     9d0:	000001de 	ldrdeq	r0, [r0], -lr
     9d4:	00ac8a02 	adceq	r8, ip, r2, lsl #20
     9d8:	04060000 	streq	r0, [r6], #-0
     9dc:	000000b2 	strheq	r0, [r0], -r2
     9e0:	0000c70a 	andeq	ip, r0, sl, lsl #14
     9e4:	00c70b00 	sbceq	r0, r7, r0, lsl #22
     9e8:	5d0b0000 	stcpl	0, cr0, [fp, #-0]
     9ec:	0b000000 	bleq	9f4 <__code_start__-0x760c>
     9f0:	0000005d 	andeq	r0, r0, sp, asr r0
     9f4:	5d040600 	stcpl	6, cr0, [r4, #-0]
     9f8:	0c000000 	stceq	0, cr0, [r0], {-0}
     9fc:	000003be 			; <UNDEFINED> instruction: 0x000003be
     a00:	005d5f02 	subseq	r5, sp, r2, lsl #30
     a04:	e9030000 	stmdb	r3, {}	; <UNPREDICTABLE>
     a08:	0d000000 	stceq	0, cr0, [r0, #-0]
     a0c:	00746572 	rsbseq	r6, r4, r2, ror r5
     a10:	005d5f02 	subseq	r5, sp, r2, lsl #30
     a14:	0c000000 	stceq	0, cr0, [r0], {-0}
     a18:	0000022a 	andeq	r0, r0, sl, lsr #4
     a1c:	005da602 	subseq	sl, sp, r2, lsl #12
     a20:	05030000 	streq	r0, [r3, #-0]
     a24:	0d000001 	stceq	0, cr0, [r0, #-4]
     a28:	00746572 	rsbseq	r6, r4, r2, ror r5
     a2c:	005da602 	subseq	sl, sp, r2, lsl #12
     a30:	0c000000 	stceq	0, cr0, [r0], {-0}
     a34:	0000039c 	muleq	r0, ip, r3
     a38:	002c7002 	eoreq	r7, ip, r2
     a3c:	1f030000 	svcne	0x00030000
     a40:	0e000001 	cdpeq	0, 0, cr0, cr0, cr1, {0}
     a44:	70020072 	andvc	r0, r2, r2, ror r0
     a48:	0000005d 	andeq	r0, r0, sp, asr r0
     a4c:	02d60c00 	sbcseq	r0, r6, #0, 24
     a50:	18010000 	stmdane	r1, {}	; <UNPREDICTABLE>
     a54:	0000005d 	andeq	r0, r0, sp, asr r0
     a58:	00013b03 	andeq	r3, r1, r3, lsl #22
     a5c:	65720d00 	ldrbvs	r0, [r2, #-3328]!	; 0xd00
     a60:	18010074 	stmdane	r1, {r2, r4, r5, r6}
     a64:	0000005d 	andeq	r0, r0, sp, asr r0
     a68:	040c0f00 	streq	r0, [ip], #-3840	; 0xf00
     a6c:	1e010000 	cdpne	0, 0, cr0, cr1, cr0, {0}
     a70:	00015103 	andeq	r5, r1, r3, lsl #2
     a74:	00760e00 	rsbseq	r0, r6, r0, lsl #28
     a78:	005d1e01 	subseq	r1, sp, r1, lsl #28
     a7c:	0f000000 	svceq	0x00000000
     a80:	00000319 	andeq	r0, r0, r9, lsl r3
     a84:	67032601 	strvs	r2, [r3, -r1, lsl #12]
     a88:	0e000001 	cdpeq	0, 0, cr0, cr0, cr1, {0}
     a8c:	26010076 			; <UNDEFINED> instruction: 0x26010076
     a90:	0000005d 	andeq	r0, r0, sp, asr r0
     a94:	03dc0f00 	bicseq	r0, ip, #0, 30
     a98:	0d010000 	stceq	0, cr0, [r1, #-0]
     a9c:	00017d03 	andeq	r7, r1, r3, lsl #26
     aa0:	00760e00 	rsbseq	r0, r6, r0, lsl #28
     aa4:	005d0d01 	subseq	r0, sp, r1, lsl #26
     aa8:	0c000000 	stceq	0, cr0, [r0], {-0}
     aac:	0000037c 	andeq	r0, r0, ip, ror r3
     ab0:	002c6602 	eoreq	r6, ip, r2, lsl #12
     ab4:	99030000 	stmdbls	r3, {}	; <UNPREDICTABLE>
     ab8:	10000001 	andne	r0, r0, r1
     abc:	00000341 	andeq	r0, r0, r1, asr #6
     ac0:	005d6702 	subseq	r6, sp, r2, lsl #14
     ac4:	0c000000 	stceq	0, cr0, [r0], {-0}
     ac8:	000003f8 	strdeq	r0, [r0], -r8
     acc:	005d5602 	subseq	r5, sp, r2, lsl #12
     ad0:	b5030000 	strlt	r0, [r3, #-0]
     ad4:	0d000001 	stceq	0, cr0, [r0, #-4]
     ad8:	00746572 	rsbseq	r6, r4, r2, ror r5
     adc:	005d5602 	subseq	r5, sp, r2, lsl #12
     ae0:	0c000000 	stceq	0, cr0, [r0], {-0}
     ae4:	0000034b 	andeq	r0, r0, fp, asr #6
     ae8:	005d6302 	subseq	r6, sp, r2, lsl #6
     aec:	d1030000 	mrsle	r0, (UNDEF: 3)
     af0:	0d000001 	stceq	0, cr0, [r0, #-4]
     af4:	00746572 	rsbseq	r6, r4, r2, ror r5
     af8:	005d6302 	subseq	r6, sp, r2, lsl #6
     afc:	0f000000 	svceq	0x00000000
     b00:	000002c4 	andeq	r0, r0, r4, asr #5
     b04:	e7033201 	str	r3, [r3, -r1, lsl #4]
     b08:	0e000001 	cdpeq	0, 0, cr0, cr0, cr1, {0}
     b0c:	32010076 	andcc	r0, r1, #118	; 0x76
     b10:	0000005d 	andeq	r0, r0, sp, asr r0
     b14:	03330c00 	teqeq	r3, #0, 24
     b18:	8d010000 	stchi	0, cr0, [r1, #-0]
     b1c:	0000005d 	andeq	r0, r0, sp, asr r0
     b20:	00020303 	andeq	r0, r2, r3, lsl #6
     b24:	65720d00 	ldrbvs	r0, [r2, #-3328]!	; 0xd00
     b28:	8d010074 	stchi	0, cr0, [r1, #-464]	; 0xfffffe30
     b2c:	0000005d 	andeq	r0, r0, sp, asr r0
     b30:	02f50f00 	rscseq	r0, r5, #0, 30
     b34:	8e010000 	cdphi	0, 0, cr0, cr1, cr0, {0}
     b38:	00021903 	andeq	r1, r2, r3, lsl #18
     b3c:	00760e00 	rsbseq	r0, r6, r0, lsl #28
     b40:	005d8e01 	subseq	r8, sp, r1, lsl #28
     b44:	0f000000 	svceq	0x00000000
     b48:	0000038e 	andeq	r0, r0, lr, lsl #7
     b4c:	2f038c01 	svccs	0x00038c01
     b50:	0e000002 	cdpeq	0, 0, cr0, cr0, cr2, {0}
     b54:	8c010076 	stchi	0, cr0, [r1], {118}	; 0x76
     b58:	0000005d 	andeq	r0, r0, sp, asr r0
     b5c:	023e0c00 	eorseq	r0, lr, #0, 24
     b60:	a9020000 	stmdbge	r2, {}	; <UNPREDICTABLE>
     b64:	0000002c 	andeq	r0, r0, ip, lsr #32
     b68:	00024903 	andeq	r4, r2, r3, lsl #18
     b6c:	00720d00 	rsbseq	r0, r2, r0, lsl #26
     b70:	002caa02 	eoreq	sl, ip, r2, lsl #20
     b74:	0c000000 	stceq	0, cr0, [r0], {-0}
     b78:	0000034a 	andeq	r0, r0, sl, asr #6
     b7c:	005d9702 	subseq	r9, sp, r2, lsl #14
     b80:	65030000 	strvs	r0, [r3, #-0]
     b84:	0d000002 	stceq	0, cr0, [r0, #-8]
     b88:	00746572 	rsbseq	r6, r4, r2, ror r5
     b8c:	005d9702 	subseq	r9, sp, r2, lsl #14
     b90:	11000000 	mrsne	r0, (UNDEF: 0)
     b94:	0000030c 	andeq	r0, r0, ip, lsl #6
     b98:	83e03601 	mvnhi	r3, #1048576	; 0x100000
     b9c:	00b00000 	adcseq	r0, r0, r0
     ba0:	9c010000 	stcls	0, cr0, [r1], {-0}
     ba4:	00000440 	andeq	r0, r0, r0, asr #8
     ba8:	0003d612 	andeq	sp, r3, r2, lsl r6
     bac:	7d360100 	ldfvcs	f0, [r6, #-0]
     bb0:	a0000000 	andge	r0, r0, r0
     bb4:	12000000 	andne	r0, r0, #0
     bb8:	00000136 	andeq	r0, r0, r6, lsr r1
     bbc:	00a13601 	adceq	r3, r1, r1, lsl #12
     bc0:	00e50000 	rsceq	r0, r5, r0
     bc4:	cd130000 	ldcgt	0, cr0, [r3, #-0]
     bc8:	01000002 	tsteq	r0, r2
     bcc:	00005d39 	andeq	r5, r0, r9, lsr sp
     bd0:	00012a00 	andeq	r2, r1, r0, lsl #20
     bd4:	011d1400 	tsteq	sp, r0, lsl #8
     bd8:	04500000 	ldrbeq	r0, [r0], #-0
     bdc:	03050000 	movweq	r0, #20480	; 0x5000
     be0:	00009854 	andeq	r9, r0, r4, asr r8
     be4:	00030313 	andeq	r0, r3, r3, lsl r3
     be8:	5d430100 	stfple	f0, [r3, #-0]
     bec:	56000000 	strpl	r0, [r0], -r0
     bf0:	15000001 	strne	r0, [r0, #-1]
     bf4:	0000011f 	andeq	r0, r0, pc, lsl r1
     bf8:	000083e8 	andeq	r8, r0, r8, ror #7
     bfc:	00000004 	andeq	r0, r0, r4
     c00:	02ec3901 	rsceq	r3, ip, #16384	; 0x4000
     c04:	e8160000 	ldmda	r6, {}	; <UNPREDICTABLE>
     c08:	04000083 	streq	r0, [r0], #-131	; 0x83
     c0c:	17000000 	strne	r0, [r0, -r0]
     c10:	0000012f 	andeq	r0, r0, pc, lsr #2
     c14:	00000182 	andeq	r0, r0, r2, lsl #3
     c18:	3b150000 	blcc	540c20 <__bss_end__+0x536cd0>
     c1c:	f0000001 			; <UNDEFINED> instruction: 0xf0000001
     c20:	04000083 	streq	r0, [r0], #-131	; 0x83
     c24:	01000000 	mrseq	r0, (UNDEF: 0)
     c28:	0003093f 	andeq	r0, r3, pc, lsr r9
     c2c:	01471800 	cmpeq	r7, r0, lsl #16
     c30:	01950000 	orrseq	r0, r5, r0
     c34:	15000000 	strne	r0, [r0, #-0]
     c38:	0000011f 	andeq	r0, r0, pc, lsl r1
     c3c:	000083f4 	strdeq	r8, [r0], -r4
     c40:	00000004 	andeq	r0, r0, r4
     c44:	03304101 	teqeq	r0, #1073741824	; 0x40000000
     c48:	f4160000 			; <UNDEFINED> instruction: 0xf4160000
     c4c:	04000083 	streq	r0, [r0], #-131	; 0x83
     c50:	17000000 	strne	r0, [r0, -r0]
     c54:	0000012f 	andeq	r0, r0, pc, lsr #2
     c58:	000001b3 			; <UNDEFINED> instruction: 0x000001b3
     c5c:	51150000 	tstpl	r5, r0
     c60:	24000001 	strcs	r0, [r0], #-1
     c64:	04000084 	streq	r0, [r0], #-132	; 0x84
     c68:	01000000 	mrseq	r0, (UNDEF: 0)
     c6c:	00034d46 	andeq	r4, r3, r6, asr #26
     c70:	015d1800 	cmpeq	sp, r0, lsl #16
     c74:	01560000 	cmpeq	r6, r0
     c78:	15000000 	strne	r0, [r0, #-0]
     c7c:	0000013b 	andeq	r0, r0, fp, lsr r1
     c80:	00008428 	andeq	r8, r0, r8, lsr #8
     c84:	00000008 	andeq	r0, r0, r8
     c88:	03685001 	cmneq	r8, #1
     c8c:	47190000 	ldrmi	r0, [r9, -r0]
     c90:	ff000001 			; <UNDEFINED> instruction: 0xff000001
     c94:	1f150001 	svcne	0x00150001
     c98:	30000001 	andcc	r0, r0, r1
     c9c:	04000084 	streq	r0, [r0], #-132	; 0x84
     ca0:	01000000 	mrseq	r0, (UNDEF: 0)
     ca4:	00038f52 	andeq	r8, r3, r2, asr pc
     ca8:	84301600 	ldrthi	r1, [r0], #-1536	; 0x600
     cac:	00040000 	andeq	r0, r4, r0
     cb0:	2f170000 	svccs	0x00170000
     cb4:	d1000001 	tstle	r0, r1
     cb8:	00000001 	andeq	r0, r0, r1
     cbc:	01671500 	cmneq	r7, r0, lsl #10
     cc0:	84600000 	strbthi	r0, [r0], #-0
     cc4:	00080000 	andeq	r0, r8, r0
     cc8:	54010000 	strpl	r0, [r1], #-0
     ccc:	000003a9 	andeq	r0, r0, r9, lsr #7
     cd0:	0001731a 	andeq	r7, r1, sl, lsl r3
     cd4:	1b000000 	blne	cdc <__code_start__-0x7324>
     cd8:	00008404 	andeq	r8, r0, r4, lsl #8
     cdc:	00000c30 	andeq	r0, r0, r0, lsr ip
     ce0:	0084201c 	addeq	r2, r4, ip, lsl r0
     ce4:	000c3700 	andeq	r3, ip, r0, lsl #14
     ce8:	0003eb00 	andeq	lr, r3, r0, lsl #22
     cec:	53011d00 	movwpl	r1, #7424	; 0x1d00
     cf0:	1d410802 	stclne	8, cr0, [r1, #-8]
     cf4:	03055201 	movweq	r5, #20993	; 0x5201
     cf8:	00009854 	andeq	r9, r0, r4, asr r8
     cfc:	0551011d 	ldrbeq	r0, [r1, #-285]	; 0x11d
     d00:	00975003 	addseq	r5, r7, r3
     d04:	50011d00 	andpl	r1, r1, r0, lsl #26
     d08:	95280305 	strls	r0, [r8, #-773]!	; 0x305
     d0c:	021d0000 	andseq	r0, sp, #0
     d10:	0305007d 	movweq	r0, #20605	; 0x507d
     d14:	00009760 	andeq	r9, r0, r0, ror #14
     d18:	84241b00 	strthi	r1, [r4], #-2816	; 0xb00
     d1c:	0c4d0000 	mareq	acc0, r0, sp
     d20:	401b0000 	andsmi	r0, fp, r0
     d24:	30000084 	andcc	r0, r0, r4, lsl #1
     d28:	1c00000c 	stcne	0, cr0, [r0], {12}
     d2c:	0000845c 	andeq	r8, r0, ip, asr r4
     d30:	00000c37 	andeq	r0, r0, r7, lsr ip
     d34:	00000436 	andeq	r0, r0, r6, lsr r4
     d38:	0253011d 	subseq	r0, r3, #1073741831	; 0x40000007
     d3c:	011d5208 	tsteq	sp, r8, lsl #4
     d40:	54030552 	strpl	r0, [r3], #-1362	; 0x552
     d44:	1d000098 	stcne	0, cr0, [r0, #-608]	; 0xfffffda0
     d48:	03055101 	movweq	r5, #20737	; 0x5101
     d4c:	00009750 	andeq	r9, r0, r0, asr r7
     d50:	0550011d 	ldrbeq	r0, [r0, #-285]	; 0x11d
     d54:	00952803 	addseq	r2, r5, r3, lsl #16
     d58:	7d021d00 	stcvc	13, cr1, [r2, #-0]
     d5c:	60030500 	andvs	r0, r3, r0, lsl #10
     d60:	00000097 	muleq	r0, r7, r0
     d64:	0084601b 	addeq	r6, r4, fp, lsl r0
     d68:	000c4d00 	andeq	r4, ip, r0, lsl #26
     d6c:	7f080000 	svcvc	0x00080000
     d70:	50000000 	andpl	r0, r0, r0
     d74:	09000004 	stmdbeq	r0, {r2}
     d78:	00000076 	andeq	r0, r0, r6, ror r0
     d7c:	4007000c 	andmi	r0, r7, ip
     d80:	0c000004 	stceq	0, cr0, [r0], {4}
     d84:	000002a3 	andeq	r0, r0, r3, lsr #5
     d88:	002c7602 	eoreq	r7, ip, r2, lsl #12
     d8c:	7c030000 	stcvc	0, cr0, [r3], {-0}
     d90:	0d000004 	stceq	0, cr0, [r0, #-16]
     d94:	77020072 	smlsdxvc	r2, r2, r0, r0
     d98:	0000002c 	andeq	r0, r0, ip, lsr #32
     d9c:	00011d1e 	andeq	r1, r1, lr, lsl sp
     da0:	00048c00 	andeq	r8, r4, r0, lsl #24
     da4:	0002a300 	andeq	sl, r2, r0, lsl #6
     da8:	7f080000 	svcvc	0x00080000
     dac:	8c000000 	stchi	0, cr0, [r0], {-0}
     db0:	09000004 	stmdbeq	r0, {r2}
     db4:	00000076 	andeq	r0, r0, r6, ror r0
     db8:	7c070013 	stcvc	0, cr0, [r7], {19}
     dbc:	11000004 	tstne	r0, r4
     dc0:	0000027b 	andeq	r0, r0, fp, ror r2
     dc4:	84905901 	ldrhi	r5, [r0], #2305	; 0x901
     dc8:	00dc0000 	sbcseq	r0, ip, r0
     dcc:	9c010000 	stcls	0, cr0, [r1], {-0}
     dd0:	000006c0 	andeq	r0, r0, r0, asr #13
     dd4:	0063701f 	rsbeq	r7, r3, pc, lsl r0
     dd8:	002c5901 	eoreq	r5, ip, r1, lsl #18
     ddc:	01ef0000 	mvneq	r0, r0
     de0:	ad200000 	stcge	0, cr0, [r0, #-0]
     de4:	01000003 	tsteq	r0, r3
     de8:	0000255a 	andeq	r2, r0, sl, asr r5
     dec:	44030500 	strmi	r0, [r3], #-1280	; 0x500
     df0:	1400009b 	strne	r0, [r0], #-155	; 0x9b
     df4:	0000011d 	andeq	r0, r0, sp, lsl r1
     df8:	000006d0 	ldrdeq	r0, [r0], -r0	; <UNPREDICTABLE>
     dfc:	98640305 	stmdals	r4!, {r0, r2, r8, r9}^
     e00:	d7100000 	ldrle	r0, [r0, -r0]
     e04:	01000003 	tsteq	r0, r3
     e08:	00005d6b 	andeq	r5, r0, fp, ror #26
     e0c:	017d1500 	cmneq	sp, r0, lsl #10
     e10:	849c0000 	ldrhi	r0, [ip], #0
     e14:	00040000 	andeq	r0, r4, r0
     e18:	5c010000 	stcpl	0, cr0, [r1], {-0}
     e1c:	00000521 	andeq	r0, r0, r1, lsr #10
     e20:	00849c16 	addeq	r9, r4, r6, lsl ip
     e24:	00000400 	andeq	r0, r0, r0, lsl #8
     e28:	018d2100 	orreq	r2, sp, r0, lsl #2
     e2c:	cd220000 	stcgt	0, cr0, [r2, #-0]
     e30:	9c000000 	stcls	0, cr0, [r0], {-0}
     e34:	04000084 	streq	r0, [r0], #-132	; 0x84
     e38:	02000000 	andeq	r0, r0, #0
     e3c:	849c1667 	ldrhi	r1, [ip], #1639	; 0x667
     e40:	00040000 	andeq	r0, r4, r0
     e44:	dd210000 	stcle	0, cr0, [r1, #-0]
     e48:	00000000 	andeq	r0, r0, r0
     e4c:	15000000 	strne	r0, [r0, #-0]
     e50:	00000455 	andeq	r0, r0, r5, asr r4
     e54:	000084a0 	andeq	r8, r0, r0, lsr #9
     e58:	0000002c 	andeq	r0, r0, ip, lsr #32
     e5c:	05d46201 	ldrbeq	r6, [r4, #513]	; 0x201
     e60:	a0160000 	andsge	r0, r6, r0
     e64:	2c000084 	stccs	0, cr0, [r0], {132}	; 0x84
     e68:	21000000 	mrscs	r0, (UNDEF: 0)
     e6c:	00000465 	andeq	r0, r0, r5, ror #8
     e70:	00046e23 	andeq	r6, r4, r3, lsr #28
     e74:	78030500 	stmdavc	r3, {r8, sl}
     e78:	15000098 	strne	r0, [r0, #-152]	; 0x98
     e7c:	000000cd 	andeq	r0, r0, sp, asr #1
     e80:	000084a0 	andeq	r8, r0, r0, lsr #9
     e84:	00000004 	andeq	r0, r0, r4
     e88:	05747702 	ldrbeq	r7, [r4, #-1794]!	; 0x702
     e8c:	a0160000 	andsge	r0, r6, r0
     e90:	04000084 	streq	r0, [r0], #-132	; 0x84
     e94:	17000000 	strne	r0, [r0, -r0]
     e98:	000000dd 	ldrdeq	r0, [r0], -sp
     e9c:	00000266 	andeq	r0, r0, r6, ror #4
     ea0:	05150000 	ldreq	r0, [r5, #-0]
     ea4:	a4000001 	strge	r0, [r0], #-1
     ea8:	04000084 	streq	r0, [r0], #-132	; 0x84
     eac:	02000000 	andeq	r0, r0, #0
     eb0:	00059178 	andeq	r9, r5, r8, ror r1
     eb4:	01151800 	tsteq	r5, r0, lsl #16
     eb8:	02660000 	rsbeq	r0, r6, #0
     ebc:	1b000000 	blne	ec4 <__code_start__-0x713c>
     ec0:	000084b4 			; <UNDEFINED> instruction: 0x000084b4
     ec4:	00000c30 	andeq	r0, r0, r0, lsr ip
     ec8:	0084c81c 	addeq	ip, r4, ip, lsl r8
     ecc:	000c3700 	andeq	r3, ip, r0, lsl #14
     ed0:	0005c900 	andeq	ip, r5, r0, lsl #18
     ed4:	53011d00 	movwpl	r1, #7424	; 0x1d00
     ed8:	1d790802 	ldclne	8, cr0, [r9, #-8]!
     edc:	03055201 	movweq	r5, #20993	; 0x5201
     ee0:	00009878 	andeq	r9, r0, r8, ror r8
     ee4:	0551011d 	ldrbeq	r0, [r1, #-285]	; 0x11d
     ee8:	0097b003 	addseq	fp, r7, r3
     eec:	50011d00 	andpl	r1, r1, r0, lsl #26
     ef0:	97780305 	ldrbls	r0, [r8, -r5, lsl #6]!
     ef4:	1b000000 	blne	efc <__code_start__-0x7104>
     ef8:	000084cc 	andeq	r8, r0, ip, asr #9
     efc:	00000c4d 	andeq	r0, r0, sp, asr #24
     f00:	99150000 	ldmdbls	r5, {}	; <UNPREDICTABLE>
     f04:	cc000001 	stcgt	0, cr0, [r0], {1}
     f08:	04000084 	streq	r0, [r0], #-132	; 0x84
     f0c:	01000000 	mrseq	r0, (UNDEF: 0)
     f10:	0005fb67 	andeq	pc, r5, r7, ror #22
     f14:	84cc1600 	strbhi	r1, [ip], #1536	; 0x600
     f18:	00040000 	andeq	r0, r4, r0
     f1c:	a9170000 	ldmdbge	r7, {}	; <UNPREDICTABLE>
     f20:	79000001 	stmdbvc	r0, {r0}
     f24:	00000002 	andeq	r0, r0, r2
     f28:	01b51500 			; <UNDEFINED> instruction: 0x01b51500
     f2c:	85340000 	ldrhi	r0, [r4, #-0]!
     f30:	00040000 	andeq	r0, r4, r0
     f34:	6b010000 	blvs	40f3c <__bss_end__+0x36fec>
     f38:	0000061e 	andeq	r0, r0, lr, lsl r6
     f3c:	00853416 	addeq	r3, r5, r6, lsl r4
     f40:	00000400 	andeq	r0, r0, r0, lsl #8
     f44:	01c52100 	biceq	r2, r5, r0, lsl #2
     f48:	00000000 	andeq	r0, r0, r0
     f4c:	0084e01b 	addeq	lr, r4, fp, lsl r0
     f50:	000c3000 	andeq	r3, ip, r0
     f54:	84fc1c00 	ldrbthi	r1, [ip], #3072	; 0xc00
     f58:	0c370000 	ldceq	0, cr0, [r7], #-0
     f5c:	06600000 	strbteq	r0, [r0], -r0
     f60:	011d0000 	tsteq	sp, r0
     f64:	67080253 	smlsdvs	r8, r3, r2, r0
     f68:	0552011d 	ldrbeq	r0, [r2, #-285]	; 0x11d
     f6c:	00986403 	addseq	r6, r8, r3, lsl #8
     f70:	51011d00 	tstpl	r1, r0, lsl #26
     f74:	97500305 	ldrbls	r0, [r0, -r5, lsl #6]
     f78:	011d0000 	tsteq	sp, r0
     f7c:	28030550 	stmdacs	r3, {r4, r6, r8, sl}
     f80:	1d000095 	stcne	0, cr0, [r0, #-596]	; 0xfffffdac
     f84:	05007d02 	streq	r7, [r0, #-3330]	; 0xd02
     f88:	0097c003 	addseq	ip, r7, r3
     f8c:	001b0000 	andseq	r0, fp, r0
     f90:	4d000085 	stcmi	0, cr0, [r0, #-532]	; 0xfffffdec
     f94:	1b00000c 	blne	fcc <__code_start__-0x7034>
     f98:	00008514 	andeq	r8, r0, r4, lsl r5
     f9c:	00000c30 	andeq	r0, r0, r0, lsr ip
     fa0:	0085301c 	addeq	r3, r5, ip, lsl r0
     fa4:	000c3700 	andeq	r3, ip, r0, lsl #14
     fa8:	0006ab00 	andeq	sl, r6, r0, lsl #22
     fac:	53011d00 	movwpl	r1, #7424	; 0x1d00
     fb0:	1d690802 	stclne	8, cr0, [r9, #-8]!
     fb4:	03055201 	movweq	r5, #20993	; 0x5201
     fb8:	00009864 	andeq	r9, r0, r4, ror #16
     fbc:	0551011d 	ldrbeq	r0, [r1, #-285]	; 0x11d
     fc0:	00975003 	addseq	r5, r7, r3
     fc4:	50011d00 	andpl	r1, r1, r0, lsl #26
     fc8:	95280305 	strls	r0, [r8, #-773]!	; 0x305
     fcc:	021d0000 	andseq	r0, sp, #0
     fd0:	0305007d 	movweq	r0, #20605	; 0x507d
     fd4:	000097d4 	ldrdeq	r9, [r0], -r4
     fd8:	85341b00 	ldrhi	r1, [r4, #-2816]!	; 0xb00
     fdc:	0c4d0000 	mareq	acc0, r0, sp
     fe0:	40240000 	eormi	r0, r4, r0
     fe4:	1d000085 	stcne	0, cr0, [r0, #-532]	; 0xfffffdec
     fe8:	30015001 	andcc	r5, r1, r1
     fec:	7f080000 	svcvc	0x00080000
     ff0:	d0000000 	andle	r0, r0, r0
     ff4:	09000006 	stmdbeq	r0, {r1, r2}
     ff8:	00000076 	andeq	r0, r0, r6, ror r0
     ffc:	c0070011 	andgt	r0, r7, r1, lsl r0
    1000:	11000006 	tstne	r0, r6
    1004:	00000252 	andeq	r0, r0, r2, asr r2
    1008:	856c7201 	strbhi	r7, [ip, #-513]!	; 0x201
    100c:	003c0000 	eorseq	r0, ip, r0
    1010:	9c010000 	stcls	0, cr0, [r1], {-0}
    1014:	00000745 	andeq	r0, r0, r5, asr #14
    1018:	0002df20 	andeq	sp, r2, r0, lsr #30
    101c:	25730100 	ldrbcs	r0, [r3, #-256]!	; 0x100
    1020:	05000000 	streq	r0, [r0, #-0]
    1024:	009b4803 	addseq	r4, fp, r3, lsl #16
    1028:	00762500 	rsbseq	r2, r6, r0, lsl #10
    102c:	005d7c01 	subseq	r7, sp, r1, lsl #24
    1030:	80000000 	andhi	r0, r0, r0
    1034:	0001d115 	andeq	sp, r1, r5, lsl r1
    1038:	00859000 	addeq	r9, r5, r0
    103c:	00000800 	andeq	r0, r0, r0, lsl #16
    1040:	217e0100 	cmncs	lr, r0, lsl #2
    1044:	19000007 	stmdbne	r0, {r0, r1, r2}
    1048:	000001dd 	ldrdeq	r0, [r0], -sp
    104c:	15008000 	strne	r8, [r0, #-0]
    1050:	00000167 	andeq	r0, r0, r7, ror #2
    1054:	00008598 	muleq	r0, r8, r5
    1058:	00000010 	andeq	r0, r0, r0, lsl r0
    105c:	073b8001 	ldreq	r8, [fp, -r1]!
    1060:	731a0000 	tstvc	sl, #0
    1064:	00000001 	andeq	r0, r0, r1
    1068:	85841b00 	strhi	r1, [r4, #2816]	; 0xb00
    106c:	0c540000 	mraeq	r0, r4, acc0
    1070:	11000000 	mrsne	r0, (UNDEF: 0)
    1074:	00000401 	andeq	r0, r0, r1, lsl #8
    1078:	85a8a801 	strhi	sl, [r8, #2049]!	; 0x801
    107c:	00340000 	eorseq	r0, r4, r0
    1080:	9c010000 	stcls	0, cr0, [r1], {-0}
    1084:	00000821 	andeq	r0, r0, r1, lsr #16
    1088:	0003d726 	andeq	sp, r3, r6, lsr #14
    108c:	5da80100 	stfpls	f0, [r8]
    1090:	01000000 	mrseq	r0, (UNDEF: 0)
    1094:	01362650 	teqeq	r6, r0, asr r6
    1098:	a8010000 	stmdage	r1, {}	; <UNPREDICTABLE>
    109c:	000000a1 	andeq	r0, r0, r1, lsr #1
    10a0:	ef135101 	svc	0x00135101
    10a4:	01000003 	tsteq	r0, r3
    10a8:	00005da9 	andeq	r5, r0, r9, lsr #27
    10ac:	0002a600 	andeq	sl, r2, r0, lsl #12
    10b0:	03b52000 			; <UNDEFINED> instruction: 0x03b52000
    10b4:	b1010000 	mrslt	r0, (UNDEF: 1)
    10b8:	0000005d 	andeq	r0, r0, sp, asr r0
    10bc:	e7155001 	ldr	r5, [r5, -r1]
    10c0:	a8000001 	stmdage	r0, {r0}
    10c4:	04000085 	streq	r0, [r0], #-133	; 0x85
    10c8:	01000000 	mrseq	r0, (UNDEF: 0)
    10cc:	0007b7a9 	andeq	fp, r7, r9, lsr #15
    10d0:	85a81600 	strhi	r1, [r8, #1536]!	; 0x600
    10d4:	00040000 	andeq	r0, r4, r0
    10d8:	f7170000 			; <UNDEFINED> instruction: 0xf7170000
    10dc:	c7000001 	strgt	r0, [r0, -r1]
    10e0:	00000002 	andeq	r0, r0, r2
    10e4:	02031500 	andeq	r1, r3, #0, 10
    10e8:	85b00000 	ldrhi	r0, [r0, #0]!
    10ec:	00040000 	andeq	r0, r4, r0
    10f0:	af010000 	svcge	0x00010000
    10f4:	000007d4 	ldrdeq	r0, [r0], -r4
    10f8:	00020f18 	andeq	r0, r2, r8, lsl pc
    10fc:	0002da00 	andeq	sp, r2, r0, lsl #20
    1100:	19150000 	ldmdbne	r5, {}	; <UNPREDICTABLE>
    1104:	b4000002 	strlt	r0, [r0], #-2
    1108:	04000085 	streq	r0, [r0], #-133	; 0x85
    110c:	01000000 	mrseq	r0, (UNDEF: 0)
    1110:	0007efb4 			; <UNDEFINED> instruction: 0x0007efb4
    1114:	02252700 	eoreq	r2, r5, #0, 14
    1118:	50010000 	andpl	r0, r1, r0
    111c:	02031500 	andeq	r1, r3, #0, 10
    1120:	85b80000 	ldrhi	r0, [r8, #0]!
    1124:	00080000 	andeq	r0, r8, r0
    1128:	be010000 	cdplt	0, 0, cr0, cr1, cr0, {0}
    112c:	0000080a 	andeq	r0, r0, sl, lsl #16
    1130:	00020f19 	andeq	r0, r2, r9, lsl pc
    1134:	0001e700 	andeq	lr, r1, r0, lsl #14
    1138:	00016722 	andeq	r6, r1, r2, lsr #14
    113c:	0085c000 	addeq	ip, r5, r0
    1140:	00000800 	andeq	r0, r0, r0, lsl #16
    1144:	1abf0100 	bne	fefc154c <__bss_end__+0xfefb75fc>
    1148:	00000173 	andeq	r0, r0, r3, ror r1
    114c:	11000000 	mrsne	r0, (UNDEF: 0)
    1150:	0000028d 	andeq	r0, r0, sp, lsl #5
    1154:	85dcc401 	ldrbhi	ip, [ip, #1025]	; 0x401
    1158:	00980000 	addseq	r0, r8, r0
    115c:	9c010000 	stcls	0, cr0, [r1], {-0}
    1160:	00000954 	andeq	r0, r0, r4, asr r9
    1164:	0063701f 	rsbeq	r7, r3, pc, lsl r0
    1168:	002cc401 	eoreq	ip, ip, r1, lsl #8
    116c:	02ed0000 	rsceq	r0, sp, #0
    1170:	1d140000 	ldcne	0, cr0, [r4, #-0]
    1174:	64000001 	strvs	r0, [r0], #-1
    1178:	05000009 	streq	r0, [r0, #-9]
    117c:	00988c03 	addseq	r8, r8, r3, lsl #24
    1180:	022f1500 	eoreq	r1, pc, #0, 10
    1184:	85e80000 	strbhi	r0, [r8, #0]!
    1188:	00080000 	andeq	r0, r8, r0
    118c:	c6010000 	strgt	r0, [r1], -r0
    1190:	00000899 	muleq	r0, r9, r8
    1194:	0085e816 	addeq	lr, r5, r6, lsl r8
    1198:	00000800 	andeq	r0, r0, r0, lsl #16
    119c:	023f2100 	eorseq	r2, pc, #0, 2
    11a0:	e9220000 	stmdb	r2!, {}	; <UNPREDICTABLE>
    11a4:	e8000000 	stmda	r0, {}	; <UNPREDICTABLE>
    11a8:	04000085 	streq	r0, [r0], #-133	; 0x85
    11ac:	02000000 	andeq	r0, r0, #0
    11b0:	85e816aa 	strbhi	r1, [r8, #1706]!	; 0x6aa
    11b4:	00040000 	andeq	r0, r4, r0
    11b8:	f9170000 			; <UNDEFINED> instruction: 0xf9170000
    11bc:	4b000000 	blmi	11c4 <__code_start__-0x6e3c>
    11c0:	00000003 	andeq	r0, r0, r3
    11c4:	15000000 	strne	r0, [r0, #-0]
    11c8:	00000249 	andeq	r0, r0, r9, asr #4
    11cc:	00008648 	andeq	r8, r0, r8, asr #12
    11d0:	00000004 	andeq	r0, r0, r4
    11d4:	08bcca01 	ldmeq	ip!, {r0, r9, fp, lr, pc}
    11d8:	48160000 	ldmdami	r6, {}	; <UNPREDICTABLE>
    11dc:	04000086 	streq	r0, [r0], #-134	; 0x86
    11e0:	21000000 	mrscs	r0, (UNDEF: 0)
    11e4:	00000259 	andeq	r0, r0, r9, asr r2
    11e8:	fc1b0000 	ldc2	0, cr0, [fp], {-0}
    11ec:	30000085 	andcc	r0, r0, r5, lsl #1
    11f0:	1c00000c 	stcne	0, cr0, [r0], {12}
    11f4:	00008610 	andeq	r8, r0, r0, lsl r6
    11f8:	00000c37 	andeq	r0, r0, r7, lsr ip
    11fc:	000008f4 	strdeq	r0, [r0], -r4
    1200:	0253011d 	subseq	r0, r3, #1073741831	; 0x40000007
    1204:	011dc708 	tsteq	sp, r8, lsl #14
    1208:	8c030552 	cfstr32hi	mvfx0, [r3], {82}	; 0x52
    120c:	1d000098 	stcne	0, cr0, [r0, #-608]	; 0xfffffda0
    1210:	03055101 	movweq	r5, #20737	; 0x5101
    1214:	00009750 	andeq	r9, r0, r0, asr r7
    1218:	0550011d 	ldrbeq	r0, [r0, #-285]	; 0x11d
    121c:	0094f003 	addseq	pc, r4, r3
    1220:	141b0000 	ldrne	r0, [fp], #-0
    1224:	4d000086 	stcmi	0, cr0, [r0, #-536]	; 0xfffffde8
    1228:	1b00000c 	blne	1260 <__code_start__-0x6da0>
    122c:	00008628 	andeq	r8, r0, r8, lsr #12
    1230:	00000c30 	andeq	r0, r0, r0, lsr ip
    1234:	0086441c 	addeq	r4, r6, ip, lsl r4
    1238:	000c3700 	andeq	r3, ip, r0, lsl #14
    123c:	00093f00 	andeq	r3, r9, r0, lsl #30
    1240:	53011d00 	movwpl	r1, #7424	; 0x1d00
    1244:	1dc80802 	stclne	8, cr0, [r8, #8]
    1248:	03055201 	movweq	r5, #20993	; 0x5201
    124c:	0000988c 	andeq	r9, r0, ip, lsl #17
    1250:	0551011d 	ldrbeq	r0, [r1, #-285]	; 0x11d
    1254:	00975003 	addseq	r5, r7, r3
    1258:	50011d00 	andpl	r1, r1, r0, lsl #26
    125c:	95280305 	strls	r0, [r8, #-773]!	; 0x305
    1260:	021d0000 	andseq	r0, sp, #0
    1264:	0305007d 	movweq	r0, #20605	; 0x507d
    1268:	000097e8 	andeq	r9, r0, r8, ror #15
    126c:	86481b00 	strbhi	r1, [r8], -r0, lsl #22
    1270:	0c4d0000 	mareq	acc0, r0, sp
    1274:	54240000 	strtpl	r0, [r4], #-0
    1278:	1d000086 	stcne	0, cr0, [r0, #-536]	; 0xfffffde8
    127c:	30015001 	andcc	r5, r1, r1
    1280:	7f080000 	svcvc	0x00080000
    1284:	64000000 	strvs	r0, [r0], #-0
    1288:	09000009 	stmdbeq	r0, {r0, r3}
    128c:	00000076 	andeq	r0, r0, r6, ror r0
    1290:	54070015 	strpl	r0, [r7], #-21
    1294:	11000009 	tstne	r0, r9
    1298:	000006e9 	andeq	r0, r0, r9, ror #13
    129c:	8674cd01 	ldrbthi	ip, [r4], -r1, lsl #26
    12a0:	00040000 	andeq	r0, r4, r0
    12a4:	9c010000 	stcls	0, cr0, [r1], {-0}
    12a8:	0000098b 	andeq	r0, r0, fp, lsl #19
    12ac:	00637028 	rsbeq	r7, r3, r8, lsr #32
    12b0:	002ccd01 	eoreq	ip, ip, r1, lsl #26
    12b4:	50010000 	andpl	r0, r1, r0
    12b8:	03221100 	teqeq	r2, #0, 2
    12bc:	d8010000 	stmdale	r1, {}	; <UNPREDICTABLE>
    12c0:	00008678 	andeq	r8, r0, r8, ror r6
    12c4:	0000002c 	andeq	r0, r0, ip, lsr #32
    12c8:	09f19c01 	ldmibeq	r1!, {r0, sl, fp, ip, pc}^
    12cc:	1d140000 	ldcne	0, cr0, [r4, #-0]
    12d0:	01000001 	tsteq	r0, r1
    12d4:	0500000a 	streq	r0, [r0, #-10]
    12d8:	0098a403 	addseq	sl, r8, r3, lsl #8
    12dc:	86801b00 	strhi	r1, [r0], r0, lsl #22
    12e0:	0c300000 	ldceq	0, cr0, [r0], #-0
    12e4:	941c0000 	ldrls	r0, [ip], #-0
    12e8:	37000086 	strcc	r0, [r0, -r6, lsl #1]
    12ec:	e700000c 	str	r0, [r0, -ip]
    12f0:	1d000009 	stcne	0, cr0, [r0, #-36]	; 0xffffffdc
    12f4:	08025301 	stmdaeq	r2, {r0, r8, r9, ip, lr}
    12f8:	52011dd9 	andpl	r1, r1, #13888	; 0x3640
    12fc:	98a40305 	stmials	r4!, {r0, r2, r8, r9}
    1300:	011d0000 	tsteq	sp, r0
    1304:	50030551 	andpl	r0, r3, r1, asr r5
    1308:	1d000097 	stcne	0, cr0, [r0, #-604]	; 0xfffffda4
    130c:	03055001 	movweq	r5, #20481	; 0x5001
    1310:	000097f8 	strdeq	r9, [r0], -r8
    1314:	86981b00 	ldrhi	r1, [r8], r0, lsl #22
    1318:	0c4d0000 	mareq	acc0, r0, sp
    131c:	08000000 	stmdaeq	r0, {}	; <UNPREDICTABLE>
    1320:	0000007f 	andeq	r0, r0, pc, ror r0
    1324:	00000a01 	andeq	r0, r0, r1, lsl #20
    1328:	00007609 	andeq	r7, r0, r9, lsl #12
    132c:	07001000 	streq	r1, [r0, -r0]
    1330:	000009f1 	strdeq	r0, [r0], -r1
    1334:	00000911 	andeq	r0, r0, r1, lsl r9
    1338:	a4dc0100 	ldrbge	r0, [ip], #256	; 0x100
    133c:	34000086 	strcc	r0, [r0], #-134	; 0x86
    1340:	01000000 	mrseq	r0, (UNDEF: 0)
    1344:	000ae49c 	muleq	sl, ip, r4
    1348:	03d72600 	bicseq	r2, r7, #0, 12
    134c:	dc010000 	stcle	0, cr0, [r1], {-0}
    1350:	0000005d 	andeq	r0, r0, sp, asr r0
    1354:	36265001 	strtcc	r5, [r6], -r1
    1358:	01000001 	tsteq	r0, r1
    135c:	0000a1dc 	ldrdeq	sl, [r0], -ip
    1360:	13510100 	cmpne	r1, #0, 2
    1364:	000003ef 	andeq	r0, r0, pc, ror #7
    1368:	005ddd01 	subseq	sp, sp, r1, lsl #26
    136c:	035e0000 	cmpeq	lr, #0
    1370:	b5200000 	strlt	r0, [r0, #-0]!
    1374:	01000003 	tsteq	r0, r3
    1378:	00005de5 	andeq	r5, r0, r5, ror #27
    137c:	15500100 	ldrbne	r0, [r0, #-256]	; 0x100
    1380:	000001e7 	andeq	r0, r0, r7, ror #3
    1384:	000086a4 	andeq	r8, r0, r4, lsr #13
    1388:	00000004 	andeq	r0, r0, r4
    138c:	0a78dd01 	beq	1e38798 <__bss_end__+0x1e2e848>
    1390:	a4160000 	ldrge	r0, [r6], #-0
    1394:	04000086 	streq	r0, [r0], #-134	; 0x86
    1398:	17000000 	strne	r0, [r0, -r0]
    139c:	000001f7 	strdeq	r0, [r0], -r7
    13a0:	00000381 	andeq	r0, r0, r1, lsl #7
    13a4:	03150000 	tsteq	r5, #0
    13a8:	ac000002 	stcge	0, cr0, [r0], {2}
    13ac:	04000086 	streq	r0, [r0], #-134	; 0x86
    13b0:	01000000 	mrseq	r0, (UNDEF: 0)
    13b4:	000a95e3 	andeq	r9, sl, r3, ror #11
    13b8:	020f1800 	andeq	r1, pc, #0, 16
    13bc:	03940000 	orrseq	r0, r4, #0
    13c0:	15000000 	strne	r0, [r0, #-0]
    13c4:	00000219 	andeq	r0, r0, r9, lsl r2
    13c8:	000086b0 			; <UNDEFINED> instruction: 0x000086b0
    13cc:	00000004 	andeq	r0, r0, r4
    13d0:	0ab0e801 	beq	fec3b3dc <__bss_end__+0xfec3148c>
    13d4:	25270000 	strcs	r0, [r7, #-0]!
    13d8:	01000002 	tsteq	r0, r2
    13dc:	03150050 	tsteq	r5, #80	; 0x50
    13e0:	b4000002 	strlt	r0, [r0], #-2
    13e4:	08000086 	stmdaeq	r0, {r1, r2, r7}
    13e8:	01000000 	mrseq	r0, (UNDEF: 0)
    13ec:	000acdf2 	strdeq	ip, [sl], -r2
    13f0:	020f2900 	andeq	r2, pc, #0, 18
    13f4:	01e70000 	mvneq	r0, r0
    13f8:	22000040 	andcs	r0, r0, #64	; 0x40
    13fc:	00000167 	andeq	r0, r0, r7, ror #2
    1400:	000086bc 			; <UNDEFINED> instruction: 0x000086bc
    1404:	00000008 	andeq	r0, r0, r8
    1408:	731af301 	tstvc	sl, #67108864	; 0x4000000
    140c:	00000001 	andeq	r0, r0, r1
    1410:	64110000 	ldrvs	r0, [r1], #-0
    1414:	01000003 	tsteq	r0, r3
    1418:	0086d8f8 	strdeq	sp, [r6], r8
    141c:	00002c00 	andeq	r2, r0, r0, lsl #24
    1420:	599c0100 	ldmibpl	ip, {r8}
    1424:	1200000b 	andne	r0, r0, #11
    1428:	000003d7 	ldrdeq	r0, [r0], -r7
    142c:	005df801 	subseq	pc, sp, r1, lsl #16
    1430:	03a70000 			; <UNDEFINED> instruction: 0x03a70000
    1434:	1d140000 	ldcne	0, cr0, [r4, #-0]
    1438:	59000001 	stmdbpl	r0, {r0}
    143c:	0500000b 	streq	r0, [r0, #-11]
    1440:	0098b803 	addseq	fp, r8, r3, lsl #16
    1444:	86e01b00 	strbthi	r1, [r0], r0, lsl #22
    1448:	0c300000 	ldceq	0, cr0, [r0], #-0
    144c:	f41c0000 			; <UNDEFINED> instruction: 0xf41c0000
    1450:	37000086 	strcc	r0, [r0, -r6, lsl #1]
    1454:	4f00000c 	svcmi	0x0000000c
    1458:	1d00000b 	stcne	0, cr0, [r0, #-44]	; 0xffffffd4
    145c:	08025301 	stmdaeq	r2, {r0, r8, r9, ip, lr}
    1460:	52011df9 	andpl	r1, r1, #15936	; 0x3e40
    1464:	98b80305 	ldmls	r8!, {r0, r2, r8, r9}
    1468:	011d0000 	tsteq	sp, r0
    146c:	50030551 	andpl	r0, r3, r1, asr r5
    1470:	1d000097 	stcne	0, cr0, [r0, #-604]	; 0xfffffda4
    1474:	03055001 	movweq	r5, #20481	; 0x5001
    1478:	00009828 	andeq	r9, r0, r8, lsr #16
    147c:	86f81b00 	ldrbthi	r1, [r8], r0, lsl #22
    1480:	0c4d0000 	mareq	acc0, r0, sp
    1484:	07000000 	streq	r0, [r0, -r0]
    1488:	00000091 	muleq	r0, r1, r0
    148c:	0003c72a 	andeq	ip, r3, sl, lsr #14
    1490:	01020100 	mrseq	r0, (UNDEF: 18)
    1494:	00000025 	andeq	r0, r0, r5, lsr #32
    1498:	00008704 	andeq	r8, r0, r4, lsl #14
    149c:	00000030 	andeq	r0, r0, r0, lsr r0
    14a0:	0be89c01 	bleq	ffa284ac <__bss_end__+0xffa1e55c>
    14a4:	702b0000 	eorvc	r0, fp, r0
    14a8:	02010063 	andeq	r0, r1, #99	; 0x63
    14ac:	00002c01 	andeq	r2, r0, r1, lsl #24
    14b0:	0003c800 	andeq	ip, r3, r0, lsl #16
    14b4:	30722b00 	rsbscc	r2, r2, r0, lsl #22
    14b8:	01020100 	mrseq	r0, (UNDEF: 18)
    14bc:	0000005d 	andeq	r0, r0, sp, asr r0
    14c0:	000003e9 	andeq	r0, r0, r9, ror #7
    14c4:	00011d14 	andeq	r1, r1, r4, lsl sp
    14c8:	000bf800 	andeq	pc, fp, r0, lsl #16
    14cc:	d0030500 	andle	r0, r3, r0, lsl #10
    14d0:	1b000098 	blne	1738 <__code_start__-0x68c8>
    14d4:	0000870c 	andeq	r8, r0, ip, lsl #14
    14d8:	00000c30 	andeq	r0, r0, r0, lsr ip
    14dc:	0087201c 	addeq	r2, r7, ip, lsl r0
    14e0:	000c3700 	andeq	r3, ip, r0, lsl #14
    14e4:	000bde00 	andeq	sp, fp, r0, lsl #28
    14e8:	53011d00 	movwpl	r1, #7424	; 0x1d00
    14ec:	01030a03 	tsteq	r3, r3, lsl #20
    14f0:	0552011d 	ldrbeq	r0, [r2, #-285]	; 0x11d
    14f4:	0098d003 	addseq	sp, r8, r3
    14f8:	51011d00 	tstpl	r1, r0, lsl #26
    14fc:	97500305 	ldrbls	r0, [r0, -r5, lsl #6]
    1500:	011d0000 	tsteq	sp, r0
    1504:	28030550 	stmdacs	r3, {r4, r6, r8, sl}
    1508:	00000098 	muleq	r0, r8, r0
    150c:	0087241b 	addeq	r2, r7, fp, lsl r4
    1510:	000c4d00 	andeq	r4, ip, r0, lsl #26
    1514:	7f080000 	svcvc	0x00080000
    1518:	f8000000 			; <UNDEFINED> instruction: 0xf8000000
    151c:	0900000b 	stmdbeq	r0, {r0, r1, r3}
    1520:	00000076 	andeq	r0, r0, r6, ror r0
    1524:	e807000e 	stmda	r7, {r1, r2, r3}
    1528:	2000000b 	andcs	r0, r0, fp
    152c:	00000353 	andeq	r0, r0, r3, asr r3
    1530:	00a10b01 	adceq	r0, r1, r1, lsl #22
    1534:	03050000 	movweq	r0, #20480	; 0x5000
    1538:	00009b38 	andeq	r9, r0, r8, lsr fp
    153c:	0002e620 	andeq	lr, r2, r0, lsr #12
    1540:	a1890100 	orrge	r0, r9, r0, lsl #2
    1544:	05000000 	streq	r0, [r0, #-0]
    1548:	009b3c03 	addseq	r3, fp, r3, lsl #24
    154c:	010f2c00 	tsteq	pc, r0, lsl #24
    1550:	d5010000 	strle	r0, [r1, #-0]
    1554:	00000025 	andeq	r0, r0, r5, lsr #32
    1558:	9b400305 	blls	1002174 <__bss_end__+0xff8224>
    155c:	672d0000 	strvs	r0, [sp, -r0]!
    1560:	04000002 	streq	r0, [r0], #-2
    1564:	04952e1e 	ldreq	r2, [r5], #3614	; 0xe1e
    1568:	29040000 	stmdbcs	r4, {}	; <UNPREDICTABLE>
    156c:	00000025 	andeq	r0, r0, r5, lsr #32
    1570:	00000c4d 	andeq	r0, r0, sp, asr #24
    1574:	0000860b 	andeq	r8, r0, fp, lsl #12
    1578:	2d002f00 	stccs	15, cr2, [r0, #-0]
    157c:	000000f0 	strdeq	r0, [r0], -r0	; <UNPREDICTABLE>
    1580:	152d6504 	strne	r6, [sp, #-1284]!	; 0x504
    1584:	05000004 	streq	r0, [r0, #-4]
    1588:	01910036 	orrseq	r0, r1, r6, lsr r0
    158c:	00040000 	andeq	r0, r4, r0
    1590:	000004b4 			; <UNDEFINED> instruction: 0x000004b4
    1594:	043b0104 	ldrteq	r0, [fp], #-260	; 0x104
    1598:	2d010000 	stccs	0, cr0, [r1, #-0]
    159c:	a6000004 	strge	r0, [r0], -r4
    15a0:	4c000004 	stcmi	0, cr0, [r0], {4}
    15a4:	58000088 	stmdapl	r0, {r3, r7}
    15a8:	c6000000 	strgt	r0, [r0], -r0
    15ac:	02000003 	andeq	r0, r0, #3
    15b0:	0000041e 	andeq	r0, r0, lr, lsl r4
    15b4:	00302802 	eorseq	r2, r0, r2, lsl #16
    15b8:	9c030000 	stcls	0, cr0, [r3], {-0}
    15bc:	04000004 	streq	r0, [r0], #-4
    15c0:	00470003 	subeq	r0, r7, r3
    15c4:	ec040000 	stc	0, cr0, [r4], {-0}
    15c8:	47000004 	strmi	r0, [r0, -r4]
    15cc:	00000000 	andeq	r0, r0, r0
    15d0:	02040500 	andeq	r0, r4, #0, 10
    15d4:	0000049e 	muleq	r0, lr, r4
    15d8:	00256202 	eoreq	r6, r5, r2, lsl #4
    15dc:	04060000 	streq	r0, [r6], #-0
    15e0:	746e6905 	strbtvc	r6, [lr], #-2309	; 0x905
    15e4:	07040700 	streq	r0, [r4, -r0, lsl #14]
    15e8:	000001cc 	andeq	r0, r0, ip, asr #3
    15ec:	e4060107 	str	r0, [r6], #-263	; 0x107
    15f0:	07000000 	streq	r0, [r0, -r0]
    15f4:	02200502 	eoreq	r0, r0, #8388608	; 0x800000
    15f8:	04070000 	streq	r0, [r7], #-0
    15fc:	00020005 	andeq	r0, r2, r5
    1600:	05080700 	streq	r0, [r8, #-1792]	; 0x700
    1604:	000001fb 	strdeq	r0, [r0], -fp
    1608:	e2080107 	and	r0, r8, #-1073741823	; 0xc0000001
    160c:	07000000 	streq	r0, [r0, -r0]
    1610:	004b0702 	subeq	r0, fp, r2, lsl #14
    1614:	04070000 	streq	r0, [r7], #-0
    1618:	0001c707 	andeq	ip, r1, r7, lsl #14
    161c:	07080700 	streq	r0, [r8, -r0, lsl #14]
    1620:	000001c2 	andeq	r0, r0, r2, asr #3
    1624:	e8070407 	stmda	r7, {r0, r1, r2, sl}
    1628:	08000001 	stmdaeq	r0, {r0}
    162c:	0000a704 	andeq	sl, r0, r4, lsl #14
    1630:	08010700 	stmdaeq	r1, {r8, r9, sl}
    1634:	000000eb 	andeq	r0, r0, fp, ror #1
    1638:	00b40408 	adcseq	r0, r4, r8, lsl #8
    163c:	a7090000 	strge	r0, [r9, -r0]
    1640:	0a000000 	beq	1648 <__code_start__-0x69b8>
    1644:	00000495 	muleq	r0, r5, r4
    1648:	00540601 	subseq	r0, r4, r1, lsl #12
    164c:	884c0000 	stmdahi	ip, {}^	; <UNPREDICTABLE>
    1650:	00580000 	subseq	r0, r8, r0
    1654:	9c010000 	stcls	0, cr0, [r1], {-0}
    1658:	00000143 	andeq	r0, r0, r3, asr #2
    165c:	746d660b 	strbtvc	r6, [sp], #-1547	; 0x60b
    1660:	ae060100 	adfges	f0, f6, f0
    1664:	02000000 	andeq	r0, r0, #0
    1668:	0d0c7091 	stceq	0, cr7, [ip, #-580]	; 0xfffffdbc
    166c:	00667562 	rsbeq	r7, r6, r2, ror #10
    1670:	01430801 	cmpeq	r3, r1, lsl #16
    1674:	03050000 	movweq	r0, #20480	; 0x5000
    1678:	00009b4c 	andeq	r9, r0, ip, asr #22
    167c:	0009e20e 	andeq	lr, r9, lr, lsl #4
    1680:	49090100 	stmdbmi	r9, {r8}
    1684:	02000000 	andeq	r0, r0, #0
    1688:	730f5c91 	movwvc	r5, #64657	; 0xfc91
    168c:	0c01007a 	stceq	0, cr0, [r1], {122}	; 0x7a
    1690:	00000054 	andeq	r0, r0, r4, asr r0
    1694:	0000040a 	andeq	r0, r0, sl, lsl #8
    1698:	00887410 	addeq	r7, r8, r0, lsl r4
    169c:	00017400 	andeq	r7, r1, r0, lsl #8
    16a0:	00013600 	andeq	r3, r1, r0, lsl #12
    16a4:	53011100 	movwpl	r1, #4352	; 0x1100
    16a8:	114c9102 	cmpne	ip, r2, lsl #2
    16ac:	91035201 	tstls	r3, r1, lsl #4
    16b0:	01110648 	tsteq	r1, r8, asr #12
    16b4:	000a0351 	andeq	r0, sl, r1, asr r3
    16b8:	50011104 	andpl	r1, r1, r4, lsl #2
    16bc:	00007402 	andeq	r7, r0, r2, lsl #8
    16c0:	00888812 	addeq	r8, r8, r2, lsl r8
    16c4:	50011100 	andpl	r1, r1, r0, lsl #2
    16c8:	00007402 	andeq	r7, r0, r2, lsl #8
    16cc:	00a71300 	adceq	r1, r7, r0, lsl #6
    16d0:	01540000 	cmpeq	r4, r0
    16d4:	9a140000 	bls	5016dc <__bss_end__+0x4f778c>
    16d8:	ff000000 			; <UNDEFINED> instruction: 0xff000000
    16dc:	54150003 	ldrpl	r0, [r5], #-3
    16e0:	63000000 	movwvs	r0, #0
    16e4:	16000001 	strne	r0, [r0], -r1
    16e8:	000000ae 	andeq	r0, r0, lr, lsr #1
    16ec:	05491700 	strbeq	r1, [r9, #-1792]	; 0x700
    16f0:	22040000 	andcs	r0, r4, #0
    16f4:	0000016e 	andeq	r0, r0, lr, ror #2
    16f8:	01540408 	cmpeq	r4, r8, lsl #8
    16fc:	92180000 	andsls	r0, r8, #0
    1700:	05000004 	streq	r0, [r0, #-4]
    1704:	00005402 	andeq	r5, r0, r2, lsl #8
    1708:	00a11600 	adceq	r1, r1, r0, lsl #12
    170c:	54160000 	ldrpl	r0, [r6], #-0
    1710:	16000000 	strne	r0, [r0], -r0
    1714:	000000ae 	andeq	r0, r0, lr, lsr #1
    1718:	00004916 	andeq	r4, r0, r6, lsl r9
    171c:	13000000 	movwne	r0, #0
    1720:	04000001 	streq	r0, [r0], #-1
    1724:	0005e500 	andeq	lr, r5, r0, lsl #10
    1728:	3b010400 	blcc	42730 <__bss_end__+0x387e0>
    172c:	01000004 	tsteq	r0, r4
    1730:	00000518 	andeq	r0, r0, r8, lsl r5
    1734:	000004a6 	andeq	r0, r0, r6, lsr #9
    1738:	000088a4 	andeq	r8, r0, r4, lsr #17
    173c:	0000003c 	andeq	r0, r0, ip, lsr r0
    1740:	000004d6 	ldrdeq	r0, [r0], -r6
    1744:	69050402 	stmdbvs	r5, {r1, sl}
    1748:	0300746e 	movweq	r7, #1134	; 0x46e
    174c:	01cc0704 	biceq	r0, ip, r4, lsl #14
    1750:	01030000 	mrseq	r0, (UNDEF: 3)
    1754:	0000e406 	andeq	lr, r0, r6, lsl #8
    1758:	05020300 	streq	r0, [r2, #-768]	; 0x300
    175c:	00000220 	andeq	r0, r0, r0, lsr #4
    1760:	00050403 	andeq	r0, r5, r3, lsl #8
    1764:	03000002 	movweq	r0, #2
    1768:	01fb0508 	mvnseq	r0, r8, lsl #10
    176c:	01030000 	mrseq	r0, (UNDEF: 3)
    1770:	0000e208 	andeq	lr, r0, r8, lsl #4
    1774:	07020300 	streq	r0, [r2, -r0, lsl #6]
    1778:	0000004b 	andeq	r0, r0, fp, asr #32
    177c:	c7070403 	strgt	r0, [r7, -r3, lsl #8]
    1780:	03000001 	movweq	r0, #1
    1784:	01c20708 	biceq	r0, r2, r8, lsl #14
    1788:	04030000 	streq	r0, [r3], #-0
    178c:	0001e807 	andeq	lr, r1, r7, lsl #16
    1790:	08010300 	stmdaeq	r1, {r8, r9}
    1794:	000000eb 	andeq	r0, r0, fp, ror #1
    1798:	0004fb04 	andeq	pc, r4, r4, lsl #22
    179c:	25030100 	strcs	r0, [r3, #-256]	; 0x100
    17a0:	a4000000 	strge	r0, [r0], #-0
    17a4:	14000088 	strne	r0, [r0], #-136	; 0x88
    17a8:	01000000 	mrseq	r0, (UNDEF: 0)
    17ac:	0000b09c 	muleq	r0, ip, r0
    17b0:	00630500 	rsbeq	r0, r3, r0, lsl #10
    17b4:	00250301 	eoreq	r0, r5, r1, lsl #6
    17b8:	04330000 	ldrteq	r0, [r3], #-0
    17bc:	b0060000 	andlt	r0, r6, r0
    17c0:	09000088 	stmdbeq	r0, {r3, r7}
    17c4:	07000001 	streq	r0, [r0, -r1]
    17c8:	74025001 	strvc	r5, [r2], #-1
    17cc:	08000000 	stmdaeq	r0, {}	; <UNPREDICTABLE>
    17d0:	00000267 	andeq	r0, r0, r7, ror #4
    17d4:	88b80801 	ldmhi	r8!, {r0, fp}
    17d8:	00180000 	andseq	r0, r8, r0
    17dc:	9c010000 	stcls	0, cr0, [r1], {-0}
    17e0:	00052709 	andeq	r2, r5, r9, lsl #14
    17e4:	d00b0100 	andle	r0, fp, r0, lsl #2
    17e8:	10000088 	andne	r0, r0, r8, lsl #1
    17ec:	01000000 	mrseq	r0, (UNDEF: 0)
    17f0:	0000e39c 	muleq	r0, ip, r3
    17f4:	70660a00 	rsbvc	r0, r6, r0, lsl #20
    17f8:	f20b0100 	vrhadd.s8	d0, d11, d0
    17fc:	01000000 	mrseq	r0, (UNDEF: 0)
    1800:	250b0050 	strcs	r0, [fp, #-80]	; 0x50
    1804:	f2000000 	vhadd.s8	d0, d0, d0
    1808:	0c000000 	stceq	0, cr0, [r0], {-0}
    180c:	00000025 	andeq	r0, r0, r5, lsr #32
    1810:	e3040d00 	movw	r0, #19712	; 0x4d00
    1814:	0e000000 	cdpeq	0, 0, cr0, cr0, cr0, {0}
    1818:	0000050c 	andeq	r0, r0, ip, lsl #10
    181c:	00f20601 	rscseq	r0, r2, r1, lsl #12
    1820:	03050000 	movweq	r0, #20480	; 0x5000
    1824:	000094a0 	andeq	r9, r0, r0, lsr #9
    1828:	0004f10f 	andeq	pc, r4, pc, lsl #2
    182c:	0c3c0200 	lfmeq	f0, 4, [ip], #-0
    1830:	0000002c 	andeq	r0, r0, ip, lsr #32
    1834:	00ee0000 	rsceq	r0, lr, r0
    1838:	00040000 	andeq	r0, r4, r0
    183c:	000006cd 	andeq	r0, r0, sp, asr #13
    1840:	043b0104 	ldrteq	r0, [fp], #-260	; 0x104
    1844:	34010000 	strcc	r0, [r1], #-0
    1848:	a6000005 	strge	r0, [r0], -r5
    184c:	e0000004 	and	r0, r0, r4
    1850:	34000088 	strcc	r0, [r0], #-136	; 0x88
    1854:	6e000000 	cdpvs	0, 0, cr0, cr0, cr0, {0}
    1858:	02000005 	andeq	r0, r0, #5
    185c:	6e690504 	cdpvs	5, 6, cr0, cr9, cr4, {0}
    1860:	04030074 	streq	r0, [r3], #-116	; 0x74
    1864:	0001cc07 	andeq	ip, r1, r7, lsl #24
    1868:	06010300 	streq	r0, [r1], -r0, lsl #6
    186c:	000000e4 	andeq	r0, r0, r4, ror #1
    1870:	20050203 	andcs	r0, r5, r3, lsl #4
    1874:	03000002 	movweq	r0, #2
    1878:	02000504 	andeq	r0, r0, #4, 10	; 0x1000000
    187c:	08030000 	stmdaeq	r3, {}	; <UNPREDICTABLE>
    1880:	0001fb05 	andeq	pc, r1, r5, lsl #22
    1884:	08010300 	stmdaeq	r1, {r8, r9}
    1888:	000000e2 	andeq	r0, r0, r2, ror #1
    188c:	4b070203 	blmi	1c20a0 <__bss_end__+0x1b8150>
    1890:	03000000 	movweq	r0, #0
    1894:	01c70704 	biceq	r0, r7, r4, lsl #14
    1898:	08030000 	stmdaeq	r3, {}	; <UNPREDICTABLE>
    189c:	0001c207 	andeq	ip, r1, r7, lsl #4
    18a0:	07040300 	streq	r0, [r4, -r0, lsl #6]
    18a4:	000001e8 	andeq	r0, r0, r8, ror #3
    18a8:	eb080103 	bl	201cbc <__bss_end__+0x1f7d6c>
    18ac:	04000000 	streq	r0, [r0], #-0
    18b0:	00007f04 	andeq	r7, r0, r4, lsl #30
    18b4:	00720500 	rsbseq	r0, r2, r0, lsl #10
    18b8:	40060000 	andmi	r0, r6, r0
    18bc:	01000005 	tsteq	r0, r5
    18c0:	00002504 	andeq	r2, r0, r4, lsl #10
    18c4:	0088e000 	addeq	lr, r8, r0
    18c8:	00003400 	andeq	r3, r0, r0, lsl #8
    18cc:	ab9c0100 	blge	fe701cd4 <__bss_end__+0xfe6f7d84>
    18d0:	07000000 	streq	r0, [r0, -r0]
    18d4:	04010070 	streq	r0, [r1], #-112	; 0x70
    18d8:	00000079 	andeq	r0, r0, r9, ror r0
    18dc:	00000451 	andeq	r0, r0, r1, asr r4
    18e0:	00250800 	eoreq	r0, r5, r0, lsl #16
    18e4:	00ba0000 	adcseq	r0, sl, r0
    18e8:	25090000 	strcs	r0, [r9, #-0]
    18ec:	00000000 	andeq	r0, r0, r0
    18f0:	00050c0a 	andeq	r0, r5, sl, lsl #24
    18f4:	c51d0200 	ldrgt	r0, [sp, #-512]	; 0x200
    18f8:	04000000 	streq	r0, [r0], #-0
    18fc:	0000ab04 	andeq	sl, r0, r4, lsl #22
    1900:	00250800 	eoreq	r0, r5, r0, lsl #16
    1904:	00da0000 	sbcseq	r0, sl, r0
    1908:	79090000 	stmdbvc	r9, {}	; <UNPREDICTABLE>
    190c:	00000000 	andeq	r0, r0, r0
    1910:	0005490b 	andeq	r4, r5, fp, lsl #18
    1914:	eb0c0100 	bl	301d1c <__bss_end__+0x2f7dcc>
    1918:	05000000 	streq	r0, [r0, #-0]
    191c:	0094a403 	addseq	sl, r4, r3, lsl #8
    1920:	cb040400 	blgt	102928 <__bss_end__+0xf89d8>
    1924:	00000000 	andeq	r0, r0, r0
    1928:	000006e5 	andeq	r0, r0, r5, ror #13
    192c:	07660004 	strbeq	r0, [r6, -r4]!
    1930:	01040000 	mrseq	r0, (UNDEF: 4)
    1934:	0000043b 	andeq	r0, r0, fp, lsr r4
    1938:	00057f01 	andeq	r7, r5, r1, lsl #30
    193c:	0004a600 	andeq	sl, r4, r0, lsl #12
    1940:	00891400 	addeq	r1, r9, r0, lsl #8
    1944:	00057800 	andeq	r7, r5, r0, lsl #16
    1948:	00061200 	andeq	r1, r6, r0, lsl #4
    194c:	05040200 	streq	r0, [r4, #-512]	; 0x200
    1950:	00746e69 	rsbseq	r6, r4, r9, ror #28
    1954:	cc070403 	cfstrsgt	mvf0, [r7], {3}
    1958:	03000001 	movweq	r0, #1
    195c:	00e40601 	rsceq	r0, r4, r1, lsl #12
    1960:	02030000 	andeq	r0, r3, #0
    1964:	00022005 	andeq	r2, r2, r5
    1968:	05040300 	streq	r0, [r4, #-768]	; 0x300
    196c:	00000200 	andeq	r0, r0, r0, lsl #4
    1970:	fb050803 	blx	143986 <__bss_end__+0x139a36>
    1974:	03000001 	movweq	r0, #1
    1978:	00e20801 	rsceq	r0, r2, r1, lsl #16
    197c:	02030000 	andeq	r0, r3, #0
    1980:	00004b07 	andeq	r4, r0, r7, lsl #22
    1984:	07040300 	streq	r0, [r4, -r0, lsl #6]
    1988:	000001c7 	andeq	r0, r0, r7, asr #3
    198c:	c2070803 	andgt	r0, r7, #196608	; 0x30000
    1990:	03000001 	movweq	r0, #1
    1994:	01e80704 	mvneq	r0, r4, lsl #14
    1998:	04040000 	streq	r0, [r4], #-0
    199c:	007a0405 	rsbseq	r0, sl, r5, lsl #8
    19a0:	01030000 	mrseq	r0, (UNDEF: 3)
    19a4:	0000eb08 	andeq	lr, r0, r8, lsl #22
    19a8:	87040500 	strhi	r0, [r4, -r0, lsl #10]
    19ac:	06000000 	streq	r0, [r0], -r0
    19b0:	0000007a 	andeq	r0, r0, sl, ror r0
    19b4:	00041e07 	andeq	r1, r4, r7, lsl #28
    19b8:	97280200 	strls	r0, [r8, -r0, lsl #4]!
    19bc:	08000000 	stmdaeq	r0, {}	; <UNPREDICTABLE>
    19c0:	0000049c 	muleq	r0, ip, r4
    19c4:	ae000404 	cdpge	4, 0, cr0, cr0, cr4, {0}
    19c8:	09000000 	stmdbeq	r0, {}	; <UNPREDICTABLE>
    19cc:	000004ec 	andeq	r0, r0, ip, ror #9
    19d0:	00000072 	andeq	r0, r0, r2, ror r0
    19d4:	9e070000 	cdpls	0, 0, cr0, cr7, cr0, {0}
    19d8:	02000004 	andeq	r0, r0, #4
    19dc:	00008c62 	andeq	r8, r0, r2, ror #24
    19e0:	05660a00 	strbeq	r0, [r6, #-2560]!	; 0xa00
    19e4:	27010000 	strcs	r0, [r1, -r0]
    19e8:	00000025 	andeq	r0, r0, r5, lsr #32
    19ec:	00008914 	andeq	r8, r0, r4, lsl r9
    19f0:	00000014 	andeq	r0, r0, r4, lsl r0
    19f4:	00e09c01 	rsceq	r9, r0, r1, lsl #24
    19f8:	630b0000 	movwvs	r0, #45056	; 0xb000
    19fc:	25270100 	strcs	r0, [r7, #-256]!	; 0x100
    1a00:	6f000000 	svcvs	0x00000000
    1a04:	00000004 	andeq	r0, r0, r4
    1a08:	6461700c 	strbtvs	r7, [r1], #-12
    1a0c:	742e0100 	strtvc	r0, [lr], #-256	; 0x100
    1a10:	28000000 	stmdacs	r0, {}	; <UNPREDICTABLE>
    1a14:	2c000089 	stccs	0, cr0, [r0], {137}	; 0x89
    1a18:	01000000 	mrseq	r0, (UNDEF: 0)
    1a1c:	0001309c 	muleq	r1, ip, r0
    1a20:	00700b00 	rsbseq	r0, r0, r0, lsl #22
    1a24:	00742e01 	rsbseq	r2, r4, r1, lsl #28
    1a28:	049d0000 	ldreq	r0, [sp], #0
    1a2c:	c00d0000 	andgt	r0, sp, r0
    1a30:	01000009 	tsteq	r0, r9
    1a34:	0000742e 	andeq	r7, r0, lr, lsr #8
    1a38:	0004c800 	andeq	ip, r4, r0, lsl #16
    1a3c:	059f0e00 	ldreq	r0, [pc, #3584]	; 2844 <__code_start__-0x57bc>
    1a40:	2e010000 	cdpcs	0, 0, cr0, cr1, cr0, {0}
    1a44:	00000025 	andeq	r0, r0, r5, lsr #32
    1a48:	6c0f5201 	sfmvs	f5, 4, [pc], {1}
    1a4c:	01006e65 	tsteq	r0, r5, ror #28
    1a50:	0000252f 	andeq	r2, r0, pc, lsr #10
    1a54:	00510100 	subseq	r0, r1, r0, lsl #2
    1a58:	00055e0a 	andeq	r5, r5, sl, lsl #28
    1a5c:	74370100 	ldrtvc	r0, [r7], #-256	; 0x100
    1a60:	54000000 	strpl	r0, [r0], #-0
    1a64:	40000089 	andmi	r0, r0, r9, lsl #1
    1a68:	01000000 	mrseq	r0, (UNDEF: 0)
    1a6c:	00019c9c 	muleq	r1, ip, ip
    1a70:	73640b00 	cmnvc	r4, #0, 22
    1a74:	37010074 	smlsdxcc	r1, r4, r0, r0
    1a78:	00000074 	andeq	r0, r0, r4, ror r0
    1a7c:	000004e9 	andeq	r0, r0, r9, ror #9
    1a80:	01006e0b 	tsteq	r0, fp, lsl #28
    1a84:	00002537 	andeq	r2, r0, r7, lsr r5
    1a88:	00052100 	andeq	r2, r5, r0, lsl #2
    1a8c:	00700b00 	rsbseq	r0, r0, r0, lsl #22
    1a90:	00743701 	rsbseq	r3, r4, r1, lsl #14
    1a94:	05420000 	strbeq	r0, [r2, #-0]
    1a98:	520d0000 	andpl	r0, sp, #0
    1a9c:	01000005 	tsteq	r0, r5
    1aa0:	00007437 	andeq	r7, r0, r7, lsr r4
    1aa4:	00057800 	andeq	r7, r5, r0, lsl #16
    1aa8:	656c1000 	strbvs	r1, [ip, #-0]!
    1aac:	3901006e 	stmdbcc	r1, {r1, r2, r3, r5, r6}
    1ab0:	00000025 	andeq	r0, r0, r5, lsr #32
    1ab4:	00000596 	muleq	r0, r6, r5
    1ab8:	0100730f 	tsteq	r0, pc, lsl #6
    1abc:	0000743d 	andeq	r7, r0, sp, lsr r4
    1ac0:	00500100 	subseq	r0, r0, r0, lsl #2
    1ac4:	0005ad0a 	andeq	sl, r5, sl, lsl #26
    1ac8:	74470100 	strbvc	r0, [r7], #-256	; 0x100
    1acc:	94000000 	strls	r0, [r0], #-0
    1ad0:	bc000089 	stclt	0, cr0, [r0], {137}	; 0x89
    1ad4:	01000001 	tsteq	r0, r1
    1ad8:	0002df9c 	muleq	r2, ip, pc	; <UNPREDICTABLE>
    1adc:	09c00d00 	stmibeq	r0, {r8, sl, fp}^
    1ae0:	47010000 	strmi	r0, [r1, -r0]
    1ae4:	0000002c 	andeq	r0, r0, ip, lsr #32
    1ae8:	000005bd 			; <UNDEFINED> instruction: 0x000005bd
    1aec:	7473640b 	ldrbtvc	r6, [r3], #-1035	; 0x40b
    1af0:	74470100 	strbvc	r0, [r7], #-256	; 0x100
    1af4:	eb000000 	bl	1afc <__code_start__-0x6504>
    1af8:	0b000005 	bleq	1b14 <__code_start__-0x64ec>
    1afc:	4701006e 	strmi	r0, [r1, -lr, rrx]
    1b00:	00000025 	andeq	r0, r0, r5, lsr #32
    1b04:	00000659 	andeq	r0, r0, r9, asr r6
    1b08:	6c61760b 	stclvs	6, cr7, [r1], #-44	; 0xffffffd4
    1b0c:	25470100 	strbcs	r0, [r7, #-256]	; 0x100
    1b10:	85000000 	strhi	r0, [r0, #-0]
    1b14:	0d000006 	stceq	0, cr0, [r0, #-24]	; 0xffffffe8
    1b18:	0000059f 	muleq	r0, pc, r5	; <UNPREDICTABLE>
    1b1c:	00254701 	eoreq	r4, r5, r1, lsl #14
    1b20:	07040000 	streq	r0, [r4, -r0]
    1b24:	760e0000 	strvc	r0, [lr], -r0
    1b28:	01000005 	tsteq	r0, r5
    1b2c:	00002547 	andeq	r2, r0, r7, asr #10
    1b30:	04910200 	ldreq	r0, [r1], #512	; 0x200
    1b34:	6675620f 	ldrbtvs	r6, [r5], -pc, lsl #4
    1b38:	df4c0100 	svcle	0x004c0100
    1b3c:	03000002 	movweq	r0, #2
    1b40:	107fa891 			; <UNDEFINED> instruction: 0x107fa891
    1b44:	4c010070 	stcmi	0, cr0, [r1], {112}	; 0x70
    1b48:	00000074 	andeq	r0, r0, r4, ror r0
    1b4c:	0000072e 	andeq	r0, r0, lr, lsr #14
    1b50:	01007510 	tsteq	r0, r0, lsl r5
    1b54:	00002c4d 	andeq	r2, r0, sp, asr #24
    1b58:	00081800 	andeq	r1, r8, r0, lsl #16
    1b5c:	011d1100 	tsteq	sp, r0, lsl #2
    1b60:	02ff0000 	rscseq	r0, pc, #0
    1b64:	03050000 	movweq	r0, #20480	; 0x5000
    1b68:	000098e0 	andeq	r9, r0, r0, ror #17
    1b6c:	008a0012 	addeq	r0, sl, r2, lsl r0
    1b70:	00007400 	andeq	r7, r0, r0, lsl #8
    1b74:	00026100 	andeq	r6, r2, r0, lsl #2
    1b78:	05581300 	ldrbeq	r1, [r8, #-768]	; 0x300
    1b7c:	52010000 	andpl	r0, r1, #0
    1b80:	0000002c 	andeq	r0, r0, ip, lsr #32
    1b84:	000008db 	ldrdeq	r0, [r0], -fp
    1b88:	8aec1400 	bhi	ffb06b90 <__bss_end__+0xffafcc40>
    1b8c:	06c40000 	strbeq	r0, [r4], r0
    1b90:	08150000 	ldmdaeq	r5, {}	; <UNPREDICTABLE>
    1b94:	cb00008b 	blgt	1dc8 <__code_start__-0x6238>
    1b98:	a3000006 	movwge	r0, #6
    1b9c:	16000002 	strne	r0, [r0], -r2
    1ba0:	08025301 	stmdaeq	r2, {r0, r8, r9, ip, lr}
    1ba4:	52011677 	andpl	r1, r1, #124780544	; 0x7700000
    1ba8:	98e00305 	stmials	r0!, {r0, r2, r8, r9}^
    1bac:	01160000 	tsteq	r6, r0
    1bb0:	04030551 	streq	r0, [r3], #-1361	; 0x551
    1bb4:	16000099 			; <UNDEFINED> instruction: 0x16000099
    1bb8:	03055001 	movweq	r5, #20481	; 0x5001
    1bbc:	00009528 	andeq	r9, r0, r8, lsr #10
    1bc0:	007d0216 	rsbseq	r0, sp, r6, lsl r2
    1bc4:	99180305 	ldmdbls	r8, {r0, r2, r8, r9}
    1bc8:	14000000 	strne	r0, [r0], #-0
    1bcc:	00008b0c 	andeq	r8, r0, ip, lsl #22
    1bd0:	000006e1 	andeq	r0, r0, r1, ror #13
    1bd4:	008b1415 	addeq	r1, fp, r5, lsl r4
    1bd8:	0000e000 	andeq	lr, r0, r0
    1bdc:	0002c100 	andeq	ip, r2, r0, lsl #2
    1be0:	51011600 	tstpl	r1, r0, lsl #12
    1be4:	7fa09103 	svcvc	0x00a09103
    1be8:	8b281700 	blhi	a077f0 <__bss_end__+0x9fd8a0>
    1bec:	01300000 	teqeq	r0, r0
    1bf0:	01160000 	tsteq	r6, r0
    1bf4:	a0910353 	addsge	r0, r1, r3, asr r3
    1bf8:	5101167f 	tstpl	r1, pc, ror r6
    1bfc:	16007402 	strne	r7, [r0], -r2, lsl #8
    1c00:	75025001 	strvc	r5, [r2, #-1]
    1c04:	18000000 	stmdane	r0, {}	; <UNPREDICTABLE>
    1c08:	0000007a 	andeq	r0, r0, sl, ror r0
    1c0c:	000002ef 	andeq	r0, r0, pc, ror #5
    1c10:	00006b19 	andeq	r6, r0, r9, lsl fp
    1c14:	18003f00 	stmdane	r0, {r8, r9, sl, fp, ip, sp}
    1c18:	0000007a 	andeq	r0, r0, sl, ror r0
    1c1c:	000002ff 	strdeq	r0, [r0], -pc	; <UNPREDICTABLE>
    1c20:	00006b19 	andeq	r6, r0, r9, lsl fp
    1c24:	06000400 	streq	r0, [r0], -r0, lsl #8
    1c28:	000002ef 	andeq	r0, r0, pc, ror #5
    1c2c:	0005901a 	andeq	r9, r5, sl, lsl r0
    1c30:	501f0100 	andspl	r0, pc, r0, lsl #2
    1c34:	6800008b 	stmdavs	r0, {r0, r1, r3, r7}
    1c38:	01000000 	mrseq	r0, (UNDEF: 0)
    1c3c:	0003929c 	muleq	r3, ip, r2
    1c40:	05a50d00 	streq	r0, [r5, #3328]!	; 0xd00
    1c44:	1f010000 	svcne	0x00010000
    1c48:	000003a1 	andeq	r0, r0, r1, lsr #7
    1c4c:	00000907 	andeq	r0, r0, r7, lsl #18
    1c50:	00056e0d 	andeq	r6, r5, sp, lsl #28
    1c54:	b61f0100 	ldrlt	r0, [pc], -r0, lsl #2
    1c58:	33000003 	movwcc	r0, #3
    1c5c:	11000009 	tstne	r0, r9
    1c60:	0000011d 	andeq	r0, r0, sp, lsl r1
    1c64:	000003cc 	andeq	r0, r0, ip, asr #7
    1c68:	98e80305 	stmials	r8!, {r0, r2, r8, r9}^
    1c6c:	64140000 	ldrvs	r0, [r4], #-0
    1c70:	c400008b 	strgt	r0, [r0], #-139	; 0x8b
    1c74:	15000006 	strne	r0, [r0, #-6]
    1c78:	00008b80 	andeq	r8, r0, r0, lsl #23
    1c7c:	000006cb 	andeq	r0, r0, fp, asr #13
    1c80:	00000388 	andeq	r0, r0, r8, lsl #7
    1c84:	02530116 	subseq	r0, r3, #-2147483643	; 0x80000005
    1c88:	01162008 	tsteq	r6, r8
    1c8c:	e8030552 	stmda	r3, {r1, r4, r6, r8, sl}
    1c90:	16000098 			; <UNDEFINED> instruction: 0x16000098
    1c94:	03055101 	movweq	r5, #20737	; 0x5101
    1c98:	00009904 	andeq	r9, r0, r4, lsl #18
    1c9c:	05500116 	ldrbeq	r0, [r0, #-278]	; 0x116
    1ca0:	00952803 	addseq	r2, r5, r3, lsl #16
    1ca4:	7d021600 	stcvc	6, cr1, [r2, #-0]
    1ca8:	40030500 	andmi	r0, r3, r0, lsl #10
    1cac:	00000099 	muleq	r0, r9, r0
    1cb0:	008b8414 	addeq	r8, fp, r4, lsl r4
    1cb4:	0006e100 	andeq	lr, r6, r0, lsl #2
    1cb8:	251b0000 	ldrcs	r0, [fp, #-0]
    1cbc:	a1000000 	mrsge	r0, (UNDEF: 0)
    1cc0:	1c000003 	stcne	0, cr0, [r0], {3}
    1cc4:	00000025 	andeq	r0, r0, r5, lsr #32
    1cc8:	92040500 	andls	r0, r4, #0, 10
    1ccc:	1b000003 	blne	1ce0 <__code_start__-0x6320>
    1cd0:	00000025 	andeq	r0, r0, r5, lsr #32
    1cd4:	000003b6 			; <UNDEFINED> instruction: 0x000003b6
    1cd8:	0000811c 	andeq	r8, r0, ip, lsl r1
    1cdc:	04050000 	streq	r0, [r5], #-0
    1ce0:	000003a7 	andeq	r0, r0, r7, lsr #7
    1ce4:	00007a18 	andeq	r7, r0, r8, lsl sl
    1ce8:	0003cc00 	andeq	ip, r3, r0, lsl #24
    1cec:	006b1900 	rsbeq	r1, fp, r0, lsl #18
    1cf0:	000e0000 	andeq	r0, lr, r0
    1cf4:	0003bc06 	andeq	fp, r3, r6, lsl #24
    1cf8:	04921d00 	ldreq	r1, [r2], #3328	; 0xd00
    1cfc:	7f010000 	svcvc	0x00010000
    1d00:	00000025 	andeq	r0, r0, r5, lsr #32
    1d04:	00008bb8 			; <UNDEFINED> instruction: 0x00008bb8
    1d08:	000002d4 	ldrdeq	r0, [r0], -r4
    1d0c:	06899c01 	streq	r9, [r9], r1, lsl #24
    1d10:	620b0000 	andvs	r0, fp, #0
    1d14:	01006675 	tsteq	r0, r5, ror r6
    1d18:	0000747f 	andeq	r7, r0, pc, ror r4
    1d1c:	00095f00 	andeq	r5, r9, r0, lsl #30
    1d20:	006e0b00 	rsbeq	r0, lr, r0, lsl #22
    1d24:	00257f01 	eoreq	r7, r5, r1, lsl #30
    1d28:	098b0000 	stmibeq	fp, {}	; <UNPREDICTABLE>
    1d2c:	660b0000 	strvs	r0, [fp], -r0
    1d30:	0100746d 	tsteq	r0, sp, ror #8
    1d34:	0000817f 	andeq	r8, r0, pc, ror r1
    1d38:	0009b900 	andeq	fp, r9, r0, lsl #18
    1d3c:	09e20d00 	stmibeq	r2!, {r8, sl, fp}^
    1d40:	7f010000 	svcvc	0x00010000
    1d44:	000000ae 	andeq	r0, r0, lr, lsr #1
    1d48:	000009d7 	ldrdeq	r0, [r0], -r7
    1d4c:	01007010 	tsteq	r0, r0, lsl r0
    1d50:	00007480 	andeq	r7, r0, r0, lsl #9
    1d54:	0009ea00 	andeq	lr, r9, r0, lsl #20
    1d58:	00651000 	rsbeq	r1, r5, r0
    1d5c:	00748001 	rsbseq	r8, r4, r1
    1d60:	0a680000 	beq	1a01d68 <__bss_end__+0x19f7e18>
    1d64:	4e130000 	cdpmi	0, 1, cr0, cr3, cr0, {0}
    1d68:	01000005 	tsteq	r0, r5
    1d6c:	00008183 	andeq	r8, r0, r3, lsl #3
    1d70:	000a8f00 	andeq	r8, sl, r0, lsl #30
    1d74:	011d1100 	tsteq	sp, r0, lsl #2
    1d78:	06990000 	ldreq	r0, [r9], r0
    1d7c:	03050000 	movweq	r0, #20480	; 0x5000
    1d80:	000098f8 	strdeq	r9, [r0], -r8
    1d84:	008c141e 	addeq	r1, ip, lr, lsl r4
    1d88:	00022c00 	andeq	r2, r2, r0, lsl #24
    1d8c:	00731000 	rsbseq	r1, r3, r0
    1d90:	00748e01 	rsbseq	r8, r4, r1, lsl #28
    1d94:	0aaf0000 	beq	febc1d9c <__bss_end__+0xfebb7e4c>
    1d98:	6e0f0000 	cdpvs	0, 0, cr0, cr15, cr0, {0}
    1d9c:	01006d75 	tsteq	r0, r5, ror sp
    1da0:	00069e8e 	andeq	r9, r6, lr, lsl #29
    1da4:	d8910300 	ldmle	r1, {r8, r9}
    1da8:	059f137e 	ldreq	r1, [pc, #894]	; 212e <__code_start__-0x5ed2>
    1dac:	8f010000 	svchi	0x00010000
    1db0:	0000002c 	andeq	r0, r0, ip, lsr #32
    1db4:	00000b04 	andeq	r0, r0, r4, lsl #22
    1db8:	008c4415 	addeq	r4, ip, r5, lsl r4
    1dbc:	0000b900 	andeq	fp, r0, r0, lsl #18
    1dc0:	0004a400 	andeq	sl, r4, r0, lsl #8
    1dc4:	50011600 	andpl	r1, r1, r0, lsl #12
    1dc8:	00007502 	andeq	r7, r0, r2, lsl #10
    1dcc:	008c5814 	addeq	r5, ip, r4, lsl r8
    1dd0:	0006c400 	andeq	ip, r6, r0, lsl #8
    1dd4:	8c741500 	cfldr64hi	mvdx1, [r4], #-0
    1dd8:	06cb0000 	strbeq	r0, [fp], r0
    1ddc:	04e60000 	strbteq	r0, [r6], #0
    1de0:	01160000 	tsteq	r6, r0
    1de4:	95080253 	strls	r0, [r8, #-595]	; 0x253
    1de8:	05520116 	ldrbeq	r0, [r2, #-278]	; 0x116
    1dec:	0098f803 	addseq	pc, r8, r3, lsl #16
    1df0:	51011600 	tstpl	r1, r0, lsl #12
    1df4:	99040305 	stmdbls	r4, {r0, r2, r8, r9}
    1df8:	01160000 	tsteq	r6, r0
    1dfc:	28030550 	stmdacs	r3, {r4, r6, r8, sl}
    1e00:	16000095 			; <UNDEFINED> instruction: 0x16000095
    1e04:	05007d02 	streq	r7, [r0, #-3330]	; 0xd02
    1e08:	00994803 	addseq	r4, r9, r3, lsl #16
    1e0c:	78140000 	ldmdavc	r4, {}	; <UNPREDICTABLE>
    1e10:	e100008c 	smlabb	r0, ip, r0, r0
    1e14:	14000006 	strne	r0, [r0], #-6
    1e18:	00008ce8 	andeq	r8, r0, r8, ror #25
    1e1c:	000006c4 	andeq	r0, r0, r4, asr #13
    1e20:	008cfc15 	addeq	pc, ip, r5, lsl ip	; <UNPREDICTABLE>
    1e24:	0006cb00 	andeq	ip, r6, r0, lsl #22
    1e28:	00052700 	andeq	r2, r5, r0, lsl #14
    1e2c:	53011600 	movwpl	r1, #5632	; 0x1600
    1e30:	169b0802 	ldrne	r0, [fp], r2, lsl #16
    1e34:	03055201 	movweq	r5, #20993	; 0x5201
    1e38:	000098f8 	strdeq	r9, [r0], -r8
    1e3c:	05510116 	ldrbeq	r0, [r1, #-278]	; 0x116
    1e40:	00990403 	addseq	r0, r9, r3, lsl #8
    1e44:	50011600 	andpl	r1, r1, r0, lsl #12
    1e48:	99540305 	ldmdbls	r4, {r0, r2, r8, r9}^
    1e4c:	14000000 	strne	r0, [r0], #-0
    1e50:	00008d00 	andeq	r8, r0, r0, lsl #26
    1e54:	000006e1 	andeq	r0, r0, r1, ror #13
    1e58:	008d2415 	addeq	r2, sp, r5, lsl r4
    1e5c:	00019c00 	andeq	r9, r1, r0, lsl #24
    1e60:	00055d00 	andeq	r5, r5, r0, lsl #26
    1e64:	52011600 	andpl	r1, r1, #0, 12
    1e68:	16800802 	strne	r0, [r0], r2, lsl #16
    1e6c:	91035101 	tstls	r3, r1, lsl #2
    1e70:	01167ed0 			; <UNDEFINED> instruction: 0x01167ed0
    1e74:	163a0150 			; <UNDEFINED> instruction: 0x163a0150
    1e78:	01047d02 	tsteq	r4, r2, lsl #26
    1e7c:	7d021631 	stcvc	6, cr1, [r2, #-196]	; 0xffffff3c
    1e80:	00770200 	rsbseq	r0, r7, r0, lsl #4
    1e84:	8d4c1500 	cfstr64hi	mvdx1, [ip, #-0]
    1e88:	019c0000 	orrseq	r0, ip, r0
    1e8c:	058a0000 	streq	r0, [sl]
    1e90:	01160000 	tsteq	r6, r0
    1e94:	80080252 	andhi	r0, r8, r2, asr r2
    1e98:	03510116 	cmpeq	r1, #-2147483643	; 0x80000005
    1e9c:	167ed091 			; <UNDEFINED> instruction: 0x167ed091
    1ea0:	3a015001 	bcc	55eac <__bss_end__+0x4bf5c>
    1ea4:	047d0216 	ldrbteq	r0, [sp], #-534	; 0x216
    1ea8:	02163001 	andseq	r3, r6, #1
    1eac:	7702007d 	smlsdxvc	r2, sp, r0, r0
    1eb0:	74150000 	ldrvc	r0, [r5], #-0
    1eb4:	9c00008d 	stcls	0, cr0, [r0], {141}	; 0x8d
    1eb8:	b7000001 	strlt	r0, [r0, -r1]
    1ebc:	16000005 	strne	r0, [r0], -r5
    1ec0:	08025201 	stmdaeq	r2, {r0, r9, ip, lr}
    1ec4:	51011680 	smlabbpl	r1, r0, r6, r1
    1ec8:	7ed09103 	atnvcs	f1, f3
    1ecc:	01500116 	cmpeq	r0, r6, lsl r1
    1ed0:	7d021640 	stcvc	6, cr1, [r2, #-256]	; 0xffffff00
    1ed4:	16300104 	ldrtne	r0, [r0], -r4, lsl #2
    1ed8:	02007d02 	andeq	r7, r0, #2, 26	; 0x80
    1edc:	15000077 	strne	r0, [r0, #-119]	; 0x77
    1ee0:	00008d9c 	muleq	r0, ip, sp
    1ee4:	0000019c 	muleq	r0, ip, r1
    1ee8:	000005e4 	andeq	r0, r0, r4, ror #11
    1eec:	02520116 	subseq	r0, r2, #-2147483643	; 0x80000005
    1ef0:	01168008 	tsteq	r6, r8
    1ef4:	d0910351 	addsle	r0, r1, r1, asr r3
    1ef8:	5001167e 	andpl	r1, r1, lr, ror r6
    1efc:	02163201 	andseq	r3, r6, #268435456	; 0x10000000
    1f00:	3001047d 	andcc	r0, r1, sp, ror r4
    1f04:	007d0216 	rsbseq	r0, sp, r6, lsl r2
    1f08:	00007702 	andeq	r7, r0, r2, lsl #14
    1f0c:	008dd015 	addeq	sp, sp, r5, lsl r0
    1f10:	00019c00 	andeq	r9, r1, r0, lsl #24
    1f14:	00061100 	andeq	r1, r6, r0, lsl #2
    1f18:	52011600 	andpl	r1, r1, #0, 12
    1f1c:	16800802 	strne	r0, [r0], r2, lsl #16
    1f20:	91035101 	tstls	r3, r1, lsl #2
    1f24:	01167ed0 			; <UNDEFINED> instruction: 0x01167ed0
    1f28:	16380150 			; <UNDEFINED> instruction: 0x16380150
    1f2c:	01047d02 	tsteq	r4, r2, lsl #26
    1f30:	7d021630 	stcvc	6, cr1, [r2, #-192]	; 0xffffff40
    1f34:	00770200 	rsbseq	r0, r7, r0, lsl #4
    1f38:	8dec1500 	cfstr64hi	mvdx1, [ip]
    1f3c:	06cb0000 	strbeq	r0, [fp], r0
    1f40:	06340000 	ldrteq	r0, [r4], -r0
    1f44:	01160000 	tsteq	r6, r0
    1f48:	00790252 	rsbseq	r0, r9, r2, asr r2
    1f4c:	02510116 	subseq	r0, r1, #-2147483643	; 0x80000005
    1f50:	01160079 	tsteq	r6, r9, ror r0
    1f54:	7c030550 	cfstr32vc	mvfx0, [r3], {80}	; 0x50
    1f58:	00000099 	muleq	r0, r9, r0
    1f5c:	008dfc1f 	addeq	pc, sp, pc, lsl ip	; <UNPREDICTABLE>
    1f60:	00064600 	andeq	r4, r6, r0, lsl #12
    1f64:	50011600 	andpl	r1, r1, r0, lsl #12
    1f68:	7ecc9104 	acsvce	f1, f4
    1f6c:	00140006 	andseq	r0, r4, r6
    1f70:	c400008e 	strgt	r0, [r0], #-142	; 0x8e
    1f74:	15000006 	strne	r0, [r0, #-6]
    1f78:	00008e14 	andeq	r8, r0, r4, lsl lr
    1f7c:	000006cb 	andeq	r0, r0, fp, asr #13
    1f80:	0000067e 	andeq	r0, r0, lr, ror r6
    1f84:	02530116 	subseq	r0, r3, #-2147483643	; 0x80000005
    1f88:	0116bf08 	tsteq	r6, r8, lsl #30
    1f8c:	f8030552 			; <UNDEFINED> instruction: 0xf8030552
    1f90:	16000098 			; <UNDEFINED> instruction: 0x16000098
    1f94:	03055101 	movweq	r5, #20737	; 0x5101
    1f98:	00009904 	andeq	r9, r0, r4, lsl #18
    1f9c:	05500116 	ldrbeq	r0, [r0, #-278]	; 0x116
    1fa0:	0099ac03 	addseq	sl, r9, r3, lsl #24
    1fa4:	18140000 	ldmdane	r4, {}	; <UNPREDICTABLE>
    1fa8:	e100008e 	smlabb	r0, lr, r0, r0
    1fac:	00000006 	andeq	r0, r0, r6
    1fb0:	007a1800 	rsbseq	r1, sl, r0, lsl #16
    1fb4:	06990000 	ldreq	r0, [r9], r0
    1fb8:	6b190000 	blvs	641fc0 <__bss_end__+0x638070>
    1fbc:	09000000 	stmdbeq	r0, {}	; <UNPREDICTABLE>
    1fc0:	06890600 	streq	r0, [r9], r0, lsl #12
    1fc4:	7a180000 	bvc	601fcc <__bss_end__+0x5f807c>
    1fc8:	ae000000 	cdpge	0, 0, cr0, cr0, cr0, {0}
    1fcc:	19000006 	stmdbne	r0, {r1, r2}
    1fd0:	0000006b 	andeq	r0, r0, fp, rrx
    1fd4:	0c20007f 	stceq	0, cr0, [r0], #-508	; 0xfffffe04
    1fd8:	03000005 	movweq	r0, #5
    1fdc:	0003a11d 	andeq	sl, r3, sp, lsl r1
    1fe0:	05492000 	strbeq	r2, [r9, #-0]
    1fe4:	22030000 	andcs	r0, r3, #0
    1fe8:	000003b6 			; <UNDEFINED> instruction: 0x000003b6
    1fec:	00026721 	andeq	r6, r2, r1, lsr #14
    1ff0:	221e0300 	andscs	r0, lr, #0, 6
    1ff4:	00000495 	muleq	r0, r5, r4
    1ff8:	00252903 	eoreq	r2, r5, r3, lsl #18
    1ffc:	06e10000 	strbteq	r0, [r1], r0
    2000:	811c0000 	tsthi	ip, r0
    2004:	23000000 	movwcs	r0, #0
    2008:	00f02100 	rscseq	r2, r0, r0, lsl #2
    200c:	65030000 	strvs	r0, [r3, #-0]
    2010:	0000b800 	andeq	fp, r0, r0, lsl #16
    2014:	4f000400 	svcmi	0x00000400
    2018:	04000009 	streq	r0, [r0], #-9
    201c:	00043b01 	andeq	r3, r4, r1, lsl #22
    2020:	05c00100 	strbeq	r0, [r0, #256]	; 0x100
    2024:	04a60000 	strteq	r0, [r6], #0
    2028:	8e8c0000 	cdphi	0, 8, cr0, cr12, cr0, {0}
    202c:	00200000 	eoreq	r0, r0, r0
    2030:	08070000 	stmdaeq	r7, {}	; <UNPREDICTABLE>
    2034:	04020000 	streq	r0, [r2], #-0
    2038:	746e6905 	strbtvc	r6, [lr], #-2309	; 0x905
    203c:	07040300 	streq	r0, [r4, -r0, lsl #6]
    2040:	000001cc 	andeq	r0, r0, ip, asr #3
    2044:	e4060103 	str	r0, [r6], #-259	; 0x103
    2048:	03000000 	movweq	r0, #0
    204c:	02200502 	eoreq	r0, r0, #8388608	; 0x800000
    2050:	04030000 	streq	r0, [r3], #-0
    2054:	00020005 	andeq	r0, r2, r5
    2058:	05080300 	streq	r0, [r8, #-768]	; 0x300
    205c:	000001fb 	strdeq	r0, [r0], -fp
    2060:	e2080103 	and	r0, r8, #-1073741824	; 0xc0000000
    2064:	03000000 	movweq	r0, #0
    2068:	004b0702 	subeq	r0, fp, r2, lsl #14
    206c:	04030000 	streq	r0, [r3], #-0
    2070:	0001c707 	andeq	ip, r1, r7, lsl #14
    2074:	07080300 	streq	r0, [r8, -r0, lsl #6]
    2078:	000001c2 	andeq	r0, r0, r2, asr #3
    207c:	e8070403 	stmda	r7, {r0, r1, sl}
    2080:	03000001 	movweq	r0, #1
    2084:	00eb0801 	rsceq	r0, fp, r1, lsl #16
    2088:	0e040000 	cdpeq	0, 0, cr0, cr4, cr0, {0}
    208c:	01000002 	tsteq	r0, r2
    2090:	008e8c03 	addeq	r8, lr, r3, lsl #24
    2094:	00001000 	andeq	r1, r0, r0
    2098:	9c9c0100 	ldflss	f0, [ip], {0}
    209c:	05000000 	streq	r0, [r0, #-0]
    20a0:	04010072 	streq	r0, [r1], #-114	; 0x72
    20a4:	0000002c 	andeq	r0, r0, ip, lsr #32
    20a8:	00000b2e 	andeq	r0, r0, lr, lsr #22
    20ac:	05b20600 	ldreq	r0, [r2, #1536]!	; 0x600
    20b0:	0c010000 	stceq	0, cr0, [r1], {-0}
    20b4:	00008e9c 	muleq	r0, ip, lr
    20b8:	00000010 	andeq	r0, r0, r0, lsl r0
    20bc:	72059c01 	andvc	r9, r5, #256	; 0x100
    20c0:	2c0d0100 	stfcss	f0, [sp], {-0}
    20c4:	52000000 	andpl	r0, r0, #0
    20c8:	0000000b 	andeq	r0, r0, fp
    20cc:	00010f00 	andeq	r0, r1, r0, lsl #30
    20d0:	ba000400 	blt	30d8 <__code_start__-0x4f28>
    20d4:	04000009 	streq	r0, [r0], #-9
    20d8:	00043b01 	andeq	r3, r4, r1, lsl #22
    20dc:	05e10100 	strbeq	r0, [r1, #256]!	; 0x100
    20e0:	04a60000 	strteq	r0, [r6], #0
    20e4:	8eac0000 	cdphi	0, 10, cr0, cr12, cr0, {0}
    20e8:	002c0000 	eoreq	r0, ip, r0
    20ec:	084d0000 	stmdaeq	sp, {}^	; <UNPREDICTABLE>
    20f0:	04020000 	streq	r0, [r2], #-0
    20f4:	746e6905 	strbtvc	r6, [lr], #-2309	; 0x905
    20f8:	07040300 	streq	r0, [r4, -r0, lsl #6]
    20fc:	000001cc 	andeq	r0, r0, ip, asr #3
    2100:	e4060103 	str	r0, [r6], #-259	; 0x103
    2104:	03000000 	movweq	r0, #0
    2108:	02200502 	eoreq	r0, r0, #8388608	; 0x800000
    210c:	04030000 	streq	r0, [r3], #-0
    2110:	00020005 	andeq	r0, r2, r5
    2114:	05080300 	streq	r0, [r8, #-768]	; 0x300
    2118:	000001fb 	strdeq	r0, [r0], -fp
    211c:	e2080103 	and	r0, r8, #-1073741824	; 0xc0000000
    2120:	03000000 	movweq	r0, #0
    2124:	004b0702 	subeq	r0, fp, r2, lsl #14
    2128:	04030000 	streq	r0, [r3], #-0
    212c:	0001c707 	andeq	ip, r1, r7, lsl #14
    2130:	07080300 	streq	r0, [r8, -r0, lsl #6]
    2134:	000001c2 	andeq	r0, r0, r2, asr #3
    2138:	e8070403 	stmda	r7, {r0, r1, sl}
    213c:	03000001 	movweq	r0, #1
    2140:	00eb0801 	rsceq	r0, fp, r1, lsl #16
    2144:	04040000 	streq	r0, [r4], #-0
    2148:	0000007f 	andeq	r0, r0, pc, ror r0
    214c:	00007205 	andeq	r7, r0, r5, lsl #4
    2150:	00f00600 	rscseq	r0, r0, r0, lsl #12
    2154:	04010000 	streq	r0, [r1], #-0
    2158:	00008eac 	andeq	r8, r0, ip, lsr #29
    215c:	0000002c 	andeq	r0, r0, ip, lsr #32
    2160:	00d39c01 	sbcseq	r9, r3, r1, lsl #24
    2164:	b4070000 	strlt	r0, [r7], #-0
    2168:	f300008e 	vhadd.u8	d0, d16, d14
    216c:	08000000 	stmdaeq	r0, {}	; <UNPREDICTABLE>
    2170:	00008ec4 	andeq	r8, r0, r4, asr #29
    2174:	000000b5 	strheq	r0, [r0], -r5
    2178:	05500109 	ldrbeq	r0, [r0, #-265]	; 0x109
    217c:	0099cc03 	addseq	ip, r9, r3, lsl #24
    2180:	cc0a0000 	stcgt	0, cr0, [sl], {-0}
    2184:	fa00008e 	blx	23c4 <__code_start__-0x5c3c>
    2188:	c9000000 	stmdbgt	r0, {}	; <UNPREDICTABLE>
    218c:	09000000 	stmdbeq	r0, {}	; <UNPREDICTABLE>
    2190:	08025001 	stmdaeq	r2, {r0, ip, lr}
    2194:	d0070064 	andle	r0, r7, r4, rrx
    2198:	0b00008e 	bleq	23d8 <__code_start__-0x5c28>
    219c:	00000001 	andeq	r0, r0, r1
    21a0:	0000250b 	andeq	r2, r0, fp, lsl #10
    21a4:	0000e200 	andeq	lr, r0, r0, lsl #4
    21a8:	00790c00 	rsbseq	r0, r9, r0, lsl #24
    21ac:	0d000000 	stceq	0, cr0, [r0, #-0]
    21b0:	00000549 	andeq	r0, r0, r9, asr #10
    21b4:	00ed2202 	rsceq	r2, sp, r2, lsl #4
    21b8:	04040000 	streq	r0, [r4], #-0
    21bc:	000000d3 	ldrdeq	r0, [r0], -r3
    21c0:	0005d20e 	andeq	sp, r5, lr, lsl #4
    21c4:	0fdc0200 	svceq	0x00dc0200
    21c8:	00000605 	andeq	r0, r0, r5, lsl #12
    21cc:	010b4f02 	tsteq	fp, r2, lsl #30
    21d0:	2c0c0000 	stccs	0, cr0, [ip], {-0}
    21d4:	00000000 	andeq	r0, r0, r0
    21d8:	0005fa0e 	andeq	pc, r5, lr, lsl #20
    21dc:	00620200 	rsbeq	r0, r2, r0, lsl #4
    21e0:	0000010f 	andeq	r0, r0, pc, lsl #2
    21e4:	0a840004 	beq	fe1021fc <__bss_end__+0xfe0f82ac>
    21e8:	01040000 	mrseq	r0, (UNDEF: 4)
    21ec:	0000043b 	andeq	r0, r0, fp, lsr r4
    21f0:	00064701 	andeq	r4, r6, r1, lsl #14
    21f4:	0004a600 	andeq	sl, r4, r0, lsl #12
    21f8:	008ed800 	addeq	sp, lr, r0, lsl #16
    21fc:	00003800 	andeq	r3, r0, r0, lsl #16
    2200:	0008ee00 	andeq	lr, r8, r0, lsl #28
    2204:	05040200 	streq	r0, [r4, #-512]	; 0x200
    2208:	00746e69 	rsbseq	r6, r4, r9, ror #28
    220c:	cc070403 	cfstrsgt	mvf0, [r7], {3}
    2210:	03000001 	movweq	r0, #1
    2214:	00e40601 	rsceq	r0, r4, r1, lsl #12
    2218:	02030000 	andeq	r0, r3, #0
    221c:	00022005 	andeq	r2, r2, r5
    2220:	05040300 	streq	r0, [r4, #-768]	; 0x300
    2224:	00000200 	andeq	r0, r0, r0, lsl #4
    2228:	fb050803 	blx	14423e <__bss_end__+0x13a2ee>
    222c:	03000001 	movweq	r0, #1
    2230:	00e20801 	rsceq	r0, r2, r1, lsl #16
    2234:	02030000 	andeq	r0, r3, #0
    2238:	00004b07 	andeq	r4, r0, r7, lsl #22
    223c:	07040300 	streq	r0, [r4, -r0, lsl #6]
    2240:	000001c7 	andeq	r0, r0, r7, asr #3
    2244:	c2070803 	andgt	r0, r7, #196608	; 0x30000
    2248:	03000001 	movweq	r0, #1
    224c:	01e80704 	mvneq	r0, r4, lsl #14
    2250:	01030000 	mrseq	r0, (UNDEF: 3)
    2254:	0000eb08 	andeq	lr, r0, r8, lsl #22
    2258:	063f0400 	ldrteq	r0, [pc], -r0, lsl #8
    225c:	0d010000 	stceq	0, cr0, [r1, #-0]
    2260:	00008ed8 	ldrdeq	r8, [r0], -r8	; <UNPREDICTABLE>
    2264:	00000038 	andeq	r0, r0, r8, lsr r0
    2268:	00e19c01 	rsceq	r9, r1, r1, lsl #24
    226c:	0e050000 	cdpeq	0, 0, cr0, cr5, cr0, {0}
    2270:	01000006 	tsteq	r0, r6
    2274:	0000250e 	andeq	r2, r0, lr, lsl #10
    2278:	061c0500 	ldreq	r0, [ip], -r0, lsl #10
    227c:	0e010000 	cdpeq	0, 0, cr0, cr1, cr0, {0}
    2280:	00000025 	andeq	r0, r0, r5, lsr #32
    2284:	0000bc06 	andeq	fp, r0, r6, lsl #24
    2288:	070f0100 	streq	r0, [pc, -r0, lsl #2]
    228c:	00737362 	rsbseq	r7, r3, r2, ror #6
    2290:	00e11101 	rsceq	r1, r1, r1, lsl #2
    2294:	0b760000 	bleq	1d8229c <__bss_end__+0x1d7834c>
    2298:	37080000 	strcc	r0, [r8, -r0]
    229c:	01000006 	tsteq	r0, r6
    22a0:	0000e112 	andeq	lr, r0, r2, lsl r1
    22a4:	8f000900 	svchi	0x00000900
    22a8:	00fd0000 	rscseq	r0, sp, r0
    22ac:	04090000 	streq	r0, [r9], #-0
    22b0:	0400008f 	streq	r0, [r0], #-143	; 0x8f
    22b4:	09000001 	stmdbeq	r0, {r0}
    22b8:	00008f08 	andeq	r8, r0, r8, lsl #30
    22bc:	0000010b 	andeq	r0, r0, fp, lsl #2
    22c0:	25040a00 	strcs	r0, [r4, #-2560]	; 0xa00
    22c4:	05000000 	streq	r0, [r0, #-0]
    22c8:	0000060e 	andeq	r0, r0, lr, lsl #12
    22cc:	00250e01 	eoreq	r0, r5, r1, lsl #28
    22d0:	1c050000 	stcne	0, cr0, [r5], {-0}
    22d4:	01000006 	tsteq	r0, r6
    22d8:	0000250e 	andeq	r2, r0, lr, lsl #10
    22dc:	06280600 	strteq	r0, [r8], -r0, lsl #12
    22e0:	da020000 	ble	822e8 <__bss_end__+0x78398>
    22e4:	0000bc06 	andeq	fp, r0, r6, lsl #24
    22e8:	06d70200 	ldrbeq	r0, [r7], r0, lsl #4
    22ec:	000000f0 	strdeq	r0, [r0], -r0	; <UNPREDICTABLE>
    22f0:	3e006502 	cfsh32cc	mvfx6, mvfx0, #2
    22f4:	04000001 	streq	r0, [r0], #-1
    22f8:	000b1800 	andeq	r1, fp, r0, lsl #16
    22fc:	3b010400 	blcc	43304 <__bss_end__+0x393b4>
    2300:	01000004 	tsteq	r0, r4
    2304:	0000065a 	andeq	r0, r0, sl, asr r6
    2308:	000004a6 	andeq	r0, r0, r6, lsr #9
    230c:	00008f10 	andeq	r8, r0, r0, lsl pc
    2310:	00000044 	andeq	r0, r0, r4, asr #32
    2314:	00000998 	muleq	r0, r8, r9
    2318:	69050402 	stmdbvs	r5, {r1, sl}
    231c:	0300746e 	movweq	r7, #1134	; 0x46e
    2320:	01cc0704 	biceq	r0, ip, r4, lsl #14
    2324:	01030000 	mrseq	r0, (UNDEF: 3)
    2328:	0000e406 	andeq	lr, r0, r6, lsl #8
    232c:	05020300 	streq	r0, [r2, #-768]	; 0x300
    2330:	00000220 	andeq	r0, r0, r0, lsr #4
    2334:	00050403 	andeq	r0, r5, r3, lsl #8
    2338:	03000002 	movweq	r0, #2
    233c:	01fb0508 	mvnseq	r0, r8, lsl #10
    2340:	01030000 	mrseq	r0, (UNDEF: 3)
    2344:	0000e208 	andeq	lr, r0, r8, lsl #4
    2348:	07020300 	streq	r0, [r2, -r0, lsl #6]
    234c:	0000004b 	andeq	r0, r0, fp, asr #32
    2350:	c7070403 	strgt	r0, [r7, -r3, lsl #8]
    2354:	03000001 	movweq	r0, #1
    2358:	01c20708 	biceq	r0, r2, r8, lsl #14
    235c:	04030000 	streq	r0, [r3], #-0
    2360:	0001e807 	andeq	lr, r1, r7, lsl #16
    2364:	08010300 	stmdaeq	r1, {r8, r9}
    2368:	000000eb 	andeq	r0, r0, fp, ror #1
    236c:	007f0404 	rsbseq	r0, pc, r4, lsl #8
    2370:	72050000 	andvc	r0, r5, #0
    2374:	06000000 	streq	r0, [r0], -r0
    2378:	0000067b 	andeq	r0, r0, fp, ror r6
    237c:	8f100201 	svchi	0x00100201
    2380:	00440000 	subeq	r0, r4, r0
    2384:	9c010000 	stcls	0, cr0, [r1], {-0}
    2388:	00000108 	andeq	r0, r0, r8, lsl #2
    238c:	00637007 	rsbeq	r7, r3, r7
    2390:	002c0201 	eoreq	r0, ip, r1, lsl #4
    2394:	0b960000 	bleq	fe58239c <__bss_end__+0xfe57844c>
    2398:	1d080000 	stcne	0, cr0, [r8, #-0]
    239c:	18000001 	stmdane	r0, {r0}
    23a0:	05000001 	streq	r0, [r0, #-1]
    23a4:	0099d803 	addseq	sp, r9, r3, lsl #16
    23a8:	8f200900 	svchi	0x00200900
    23ac:	011d0000 	tsteq	sp, r0
    23b0:	400a0000 	andmi	r0, sl, r0
    23b4:	2400008f 	strcs	r0, [r0], #-143	; 0x8f
    23b8:	fe000001 	cdp2	0, 0, cr0, cr0, cr1, {0}
    23bc:	0b000000 	bleq	23c4 <__code_start__-0x5c3c>
    23c0:	32015301 	andcc	r5, r1, #67108864	; 0x4000000
    23c4:	0552010b 	ldrbeq	r0, [r2, #-267]	; 0x10b
    23c8:	0099d803 	addseq	sp, r9, r3, lsl #16
    23cc:	51010b00 	tstpl	r1, r0, lsl #22
    23d0:	9a2c0305 	bls	b02fec <__bss_end__+0xaf909c>
    23d4:	010b0000 	mrseq	r0, (UNDEF: 11)
    23d8:	f0030550 			; <UNDEFINED> instruction: 0xf0030550
    23dc:	0b000099 	bleq	2648 <__code_start__-0x59b8>
    23e0:	02047d02 	andeq	r7, r4, #2, 26	; 0x80
    23e4:	020b0074 	andeq	r0, fp, #116	; 0x74
    23e8:	0305007d 	movweq	r0, #20605	; 0x507d
    23ec:	00009a50 	andeq	r9, r0, r0, asr sl
    23f0:	8f440900 	svchi	0x00440900
    23f4:	013a0000 	teqeq	sl, r0
    23f8:	0c000000 	stceq	0, cr0, [r0], {-0}
    23fc:	00000072 	andeq	r0, r0, r2, ror r0
    2400:	00000118 	andeq	r0, r0, r8, lsl r1
    2404:	00006b0d 	andeq	r6, r0, sp, lsl #22
    2408:	05001500 	streq	r1, [r0, #-1280]	; 0x500
    240c:	00000108 	andeq	r0, r0, r8, lsl #2
    2410:	0002670e 	andeq	r6, r2, lr, lsl #14
    2414:	0f1e0200 	svceq	0x001e0200
    2418:	00000495 	muleq	r0, r5, r4
    241c:	00252902 	eoreq	r2, r5, r2, lsl #18
    2420:	013a0000 	teqeq	sl, r0
    2424:	79100000 	ldmdbvc	r0, {}	; <UNPREDICTABLE>
    2428:	11000000 	mrsne	r0, (UNDEF: 0)
    242c:	00f00e00 	rscseq	r0, r0, r0, lsl #28
    2430:	65020000 	strvs	r0, [r2, #-0]
    2434:	00013e00 	andeq	r3, r1, r0, lsl #28
    2438:	f0000400 			; <UNDEFINED> instruction: 0xf0000400
    243c:	0400000b 	streq	r0, [r0], #-11
    2440:	00043b01 	andeq	r3, r4, r1, lsl #22
    2444:	069e0100 	ldreq	r0, [lr], r0, lsl #2
    2448:	04a60000 	strteq	r0, [r6], #0
    244c:	8f540000 	svchi	0x00540000
    2450:	00440000 	subeq	r0, r4, r0
    2454:	0a3e0000 	beq	f8245c <__bss_end__+0xf7850c>
    2458:	04020000 	streq	r0, [r2], #-0
    245c:	746e6905 	strbtvc	r6, [lr], #-2309	; 0x905
    2460:	07040300 	streq	r0, [r4, -r0, lsl #6]
    2464:	000001cc 	andeq	r0, r0, ip, asr #3
    2468:	e4060103 	str	r0, [r6], #-259	; 0x103
    246c:	03000000 	movweq	r0, #0
    2470:	02200502 	eoreq	r0, r0, #8388608	; 0x800000
    2474:	04030000 	streq	r0, [r3], #-0
    2478:	00020005 	andeq	r0, r2, r5
    247c:	05080300 	streq	r0, [r8, #-768]	; 0x300
    2480:	000001fb 	strdeq	r0, [r0], -fp
    2484:	e2080103 	and	r0, r8, #-1073741824	; 0xc0000000
    2488:	03000000 	movweq	r0, #0
    248c:	004b0702 	subeq	r0, fp, r2, lsl #14
    2490:	04030000 	streq	r0, [r3], #-0
    2494:	0001c707 	andeq	ip, r1, r7, lsl #14
    2498:	07080300 	streq	r0, [r8, -r0, lsl #6]
    249c:	000001c2 	andeq	r0, r0, r2, asr #3
    24a0:	e8070403 	stmda	r7, {r0, r1, sl}
    24a4:	03000001 	movweq	r0, #1
    24a8:	00eb0801 	rsceq	r0, fp, r1, lsl #16
    24ac:	04040000 	streq	r0, [r4], #-0
    24b0:	0000007f 	andeq	r0, r0, pc, ror r0
    24b4:	00007205 	andeq	r7, r0, r5, lsl #4
    24b8:	06910600 	ldreq	r0, [r1], r0, lsl #12
    24bc:	02010000 	andeq	r0, r1, #0
    24c0:	00008f54 	andeq	r8, r0, r4, asr pc
    24c4:	00000044 	andeq	r0, r0, r4, asr #32
    24c8:	01089c01 	tsteq	r8, r1, lsl #24
    24cc:	70070000 	andvc	r0, r7, r0
    24d0:	02010063 	andeq	r0, r1, #99	; 0x63
    24d4:	0000002c 	andeq	r0, r0, ip, lsr #32
    24d8:	00000bb4 			; <UNDEFINED> instruction: 0x00000bb4
    24dc:	00011d08 	andeq	r1, r1, r8, lsl #26
    24e0:	00011800 	andeq	r1, r1, r0, lsl #16
    24e4:	58030500 	stmdapl	r3, {r8, sl}
    24e8:	0900009a 	stmdbeq	r0, {r1, r3, r4, r7}
    24ec:	00008f64 	andeq	r8, r0, r4, ror #30
    24f0:	0000011d 	andeq	r0, r0, sp, lsl r1
    24f4:	008f840a 	addeq	r8, pc, sl, lsl #8
    24f8:	00012400 	andeq	r2, r1, r0, lsl #8
    24fc:	0000fe00 	andeq	pc, r0, r0, lsl #28
    2500:	53010b00 	movwpl	r0, #6912	; 0x1b00
    2504:	010b3201 	tsteq	fp, r1, lsl #4
    2508:	58030552 	stmdapl	r3, {r1, r4, r6, r8, sl}
    250c:	0b00009a 	bleq	277c <__code_start__-0x5884>
    2510:	03055101 	movweq	r5, #20737	; 0x5101
    2514:	00009a68 	andeq	r9, r0, r8, ror #20
    2518:	0550010b 	ldrbeq	r0, [r0, #-267]	; 0x10b
    251c:	0099f003 	addseq	pc, r9, r3
    2520:	7d020b00 	vstrvc	d0, [r2, #-0]
    2524:	00740204 	rsbseq	r0, r4, r4, lsl #4
    2528:	007d020b 	rsbseq	r0, sp, fp, lsl #4
    252c:	9a8c0305 	bls	fe303148 <__bss_end__+0xfe2f91f8>
    2530:	09000000 	stmdbeq	r0, {}	; <UNPREDICTABLE>
    2534:	00008f88 	andeq	r8, r0, r8, lsl #31
    2538:	0000013a 	andeq	r0, r0, sl, lsr r1
    253c:	00720c00 	rsbseq	r0, r2, r0, lsl #24
    2540:	01180000 	tsteq	r8, r0
    2544:	6b0d0000 	blvs	34254c <__bss_end__+0x3385fc>
    2548:	0c000000 	stceq	0, cr0, [r0], {-0}
    254c:	01080500 	tsteq	r8, r0, lsl #10
    2550:	670e0000 	strvs	r0, [lr, -r0]
    2554:	02000002 	andeq	r0, r0, #2
    2558:	04950f1e 	ldreq	r0, [r5], #3870	; 0xf1e
    255c:	29020000 	stmdbcs	r2, {}	; <UNPREDICTABLE>
    2560:	00000025 	andeq	r0, r0, r5, lsr #32
    2564:	0000013a 	andeq	r0, r0, sl, lsr r1
    2568:	00007910 	andeq	r7, r0, r0, lsl r9
    256c:	0e001100 	adfeqs	f1, f0, f0
    2570:	000000f0 	strdeq	r0, [r0], -r0	; <UNPREDICTABLE>
    2574:	3e006502 	cfsh32cc	mvfx6, mvfx0, #2
    2578:	04000001 	streq	r0, [r0], #-1
    257c:	000cc800 	andeq	ip, ip, r0, lsl #16
    2580:	3b010400 	blcc	43588 <__bss_end__+0x39638>
    2584:	01000004 	tsteq	r0, r4
    2588:	000006c0 	andeq	r0, r0, r0, asr #13
    258c:	000004a6 	andeq	r0, r0, r6, lsr #9
    2590:	00008f98 	muleq	r0, r8, pc	; <UNPREDICTABLE>
    2594:	00000044 	andeq	r0, r0, r4, asr #32
    2598:	00000ae5 	andeq	r0, r0, r5, ror #21
    259c:	69050402 	stmdbvs	r5, {r1, sl}
    25a0:	0300746e 	movweq	r7, #1134	; 0x46e
    25a4:	01cc0704 	biceq	r0, ip, r4, lsl #14
    25a8:	01030000 	mrseq	r0, (UNDEF: 3)
    25ac:	0000e406 	andeq	lr, r0, r6, lsl #8
    25b0:	05020300 	streq	r0, [r2, #-768]	; 0x300
    25b4:	00000220 	andeq	r0, r0, r0, lsr #4
    25b8:	00050403 	andeq	r0, r5, r3, lsl #8
    25bc:	03000002 	movweq	r0, #2
    25c0:	01fb0508 	mvnseq	r0, r8, lsl #10
    25c4:	01030000 	mrseq	r0, (UNDEF: 3)
    25c8:	0000e208 	andeq	lr, r0, r8, lsl #4
    25cc:	07020300 	streq	r0, [r2, -r0, lsl #6]
    25d0:	0000004b 	andeq	r0, r0, fp, asr #32
    25d4:	c7070403 	strgt	r0, [r7, -r3, lsl #8]
    25d8:	03000001 	movweq	r0, #1
    25dc:	01c20708 	biceq	r0, r2, r8, lsl #14
    25e0:	04030000 	streq	r0, [r3], #-0
    25e4:	0001e807 	andeq	lr, r1, r7, lsl #16
    25e8:	08010300 	stmdaeq	r1, {r8, r9}
    25ec:	000000eb 	andeq	r0, r0, fp, ror #1
    25f0:	007f0404 	rsbseq	r0, pc, r4, lsl #8
    25f4:	72050000 	andvc	r0, r5, #0
    25f8:	06000000 	streq	r0, [r0], -r0
    25fc:	00000072 	andeq	r0, r0, r2, ror r0
    2600:	00000094 	muleq	r0, r4, r0
    2604:	00006b07 	andeq	r6, r0, r7, lsl #22
    2608:	08001900 	stmdaeq	r0, {r8, fp, ip}
    260c:	000006e0 	andeq	r0, r0, r0, ror #13
    2610:	8f980201 	svchi	0x00980201
    2614:	00440000 	subeq	r0, r4, r0
    2618:	9c010000 	stcls	0, cr0, [r1], {-0}
    261c:	00000118 	andeq	r0, r0, r8, lsl r1
    2620:	00637009 	rsbeq	r7, r3, r9
    2624:	002c0201 	eoreq	r0, ip, r1, lsl #4
    2628:	0bd20000 	bleq	ff482630 <__bss_end__+0xff4786e0>
    262c:	1d0a0000 	stcne	0, cr0, [sl, #-0]
    2630:	18000001 	stmdane	r0, {r0}
    2634:	05000001 	streq	r0, [r0, #-1]
    2638:	009a9403 	addseq	r9, sl, r3, lsl #8
    263c:	8fa80b00 	svchi	0x00a80b00
    2640:	011d0000 	tsteq	sp, r0
    2644:	c80c0000 	stmdagt	ip, {}	; <UNPREDICTABLE>
    2648:	2400008f 	strcs	r0, [r0], #-143	; 0x8f
    264c:	0e000001 	cdpeq	0, 0, cr0, cr0, cr1, {0}
    2650:	0d000001 	stceq	0, cr0, [r0, #-4]
    2654:	32015301 	andcc	r5, r1, #67108864	; 0x4000000
    2658:	0552010d 	ldrbeq	r0, [r2, #-269]	; 0x10d
    265c:	009a9403 	addseq	r9, sl, r3, lsl #8
    2660:	51010d00 	tstpl	r1, r0, lsl #26
    2664:	9ab00305 	bls	fec03280 <__bss_end__+0xfebf9330>
    2668:	010d0000 	mrseq	r0, (UNDEF: 13)
    266c:	f0030550 			; <UNDEFINED> instruction: 0xf0030550
    2670:	0d000099 	stceq	0, cr0, [r0, #-612]	; 0xfffffd9c
    2674:	02047d02 	andeq	r7, r4, #2, 26	; 0x80
    2678:	020d0074 	andeq	r0, sp, #116	; 0x74
    267c:	0305007d 	movweq	r0, #20605	; 0x507d
    2680:	00009ad0 	ldrdeq	r9, [r0], -r0
    2684:	8fcc0b00 	svchi	0x00cc0b00
    2688:	013a0000 	teqeq	sl, r0
    268c:	05000000 	streq	r0, [r0, #-0]
    2690:	00000084 	andeq	r0, r0, r4, lsl #1
    2694:	0002670e 	andeq	r6, r2, lr, lsl #14
    2698:	0f1e0200 	svceq	0x001e0200
    269c:	00000495 	muleq	r0, r5, r4
    26a0:	00252902 	eoreq	r2, r5, r2, lsl #18
    26a4:	013a0000 	teqeq	sl, r0
    26a8:	79100000 	ldmdbvc	r0, {}	; <UNPREDICTABLE>
    26ac:	11000000 	mrsne	r0, (UNDEF: 0)
    26b0:	00f00e00 	rscseq	r0, r0, r0, lsl #28
    26b4:	65020000 	strvs	r0, [r2, #-0]
    26b8:	00013e00 	andeq	r3, r1, r0, lsl #28
    26bc:	a0000400 	andge	r0, r0, r0, lsl #8
    26c0:	0400000d 	streq	r0, [r0], #-13
    26c4:	00043b01 	andeq	r3, r4, r1, lsl #22
    26c8:	06fa0100 	ldrbteq	r0, [sl], r0, lsl #2
    26cc:	04a60000 	strteq	r0, [r6], #0
    26d0:	8fdc0000 	svchi	0x00dc0000
    26d4:	00440000 	subeq	r0, r4, r0
    26d8:	0b8a0000 	bleq	fe2826e0 <__bss_end__+0xfe278790>
    26dc:	04020000 	streq	r0, [r2], #-0
    26e0:	746e6905 	strbtvc	r6, [lr], #-2309	; 0x905
    26e4:	07040300 	streq	r0, [r4, -r0, lsl #6]
    26e8:	000001cc 	andeq	r0, r0, ip, asr #3
    26ec:	e4060103 	str	r0, [r6], #-259	; 0x103
    26f0:	03000000 	movweq	r0, #0
    26f4:	02200502 	eoreq	r0, r0, #8388608	; 0x800000
    26f8:	04030000 	streq	r0, [r3], #-0
    26fc:	00020005 	andeq	r0, r2, r5
    2700:	05080300 	streq	r0, [r8, #-768]	; 0x300
    2704:	000001fb 	strdeq	r0, [r0], -fp
    2708:	e2080103 	and	r0, r8, #-1073741824	; 0xc0000000
    270c:	03000000 	movweq	r0, #0
    2710:	004b0702 	subeq	r0, fp, r2, lsl #14
    2714:	04030000 	streq	r0, [r3], #-0
    2718:	0001c707 	andeq	ip, r1, r7, lsl #14
    271c:	07080300 	streq	r0, [r8, -r0, lsl #6]
    2720:	000001c2 	andeq	r0, r0, r2, asr #3
    2724:	e8070403 	stmda	r7, {r0, r1, sl}
    2728:	03000001 	movweq	r0, #1
    272c:	00eb0801 	rsceq	r0, fp, r1, lsl #16
    2730:	04040000 	streq	r0, [r4], #-0
    2734:	0000007f 	andeq	r0, r0, pc, ror r0
    2738:	00007205 	andeq	r7, r0, r5, lsl #4
    273c:	07250600 	streq	r0, [r5, -r0, lsl #12]!
    2740:	02010000 	andeq	r0, r1, #0
    2744:	00008fdc 	ldrdeq	r8, [r0], -ip
    2748:	00000044 	andeq	r0, r0, r4, asr #32
    274c:	01089c01 	tsteq	r8, r1, lsl #24
    2750:	70070000 	andvc	r0, r7, r0
    2754:	02010063 	andeq	r0, r1, #99	; 0x63
    2758:	0000002c 	andeq	r0, r0, ip, lsr #32
    275c:	00000bf0 	strdeq	r0, [r0], -r0	; <UNPREDICTABLE>
    2760:	00011d08 	andeq	r1, r1, r8, lsl #26
    2764:	00011800 	andeq	r1, r1, r0, lsl #16
    2768:	d4030500 	strle	r0, [r3], #-1280	; 0x500
    276c:	0900009a 	stmdbeq	r0, {r1, r3, r4, r7}
    2770:	00008fec 	andeq	r8, r0, ip, ror #31
    2774:	0000011d 	andeq	r0, r0, sp, lsl r1
    2778:	00900c0a 	addseq	r0, r0, sl, lsl #24
    277c:	00012400 	andeq	r2, r1, r0, lsl #8
    2780:	0000fe00 	andeq	pc, r0, r0, lsl #28
    2784:	53010b00 	movwpl	r0, #6912	; 0x1b00
    2788:	010b3201 	tsteq	fp, r1, lsl #4
    278c:	d4030552 	strle	r0, [r3], #-1362	; 0x552
    2790:	0b00009a 	bleq	2a00 <__code_start__-0x5600>
    2794:	03055101 	movweq	r5, #20737	; 0x5101
    2798:	00009af4 	strdeq	r9, [r0], -r4
    279c:	0550010b 	ldrbeq	r0, [r0, #-267]	; 0x10b
    27a0:	0099f003 	addseq	pc, r9, r3
    27a4:	7d020b00 	vstrvc	d0, [r2, #-0]
    27a8:	00740204 	rsbseq	r0, r4, r4, lsl #4
    27ac:	007d020b 	rsbseq	r0, sp, fp, lsl #4
    27b0:	9b200305 	blls	8033cc <__bss_end__+0x7f947c>
    27b4:	09000000 	stmdbeq	r0, {}	; <UNPREDICTABLE>
    27b8:	00009010 	andeq	r9, r0, r0, lsl r0
    27bc:	0000013a 	andeq	r0, r0, sl, lsr r1
    27c0:	00720c00 	rsbseq	r0, r2, r0, lsl #24
    27c4:	01180000 	tsteq	r8, r0
    27c8:	6b0d0000 	blvs	3427d0 <__bss_end__+0x338880>
    27cc:	1c000000 	stcne	0, cr0, [r0], {-0}
    27d0:	01080500 	tsteq	r8, r0, lsl #10
    27d4:	670e0000 	strvs	r0, [lr, -r0]
    27d8:	02000002 	andeq	r0, r0, #2
    27dc:	04950f1e 	ldreq	r0, [r5], #3870	; 0xf1e
    27e0:	29020000 	stmdbcs	r2, {}	; <UNPREDICTABLE>
    27e4:	00000025 	andeq	r0, r0, r5, lsr #32
    27e8:	0000013a 	andeq	r0, r0, sl, lsr r1
    27ec:	00007910 	andeq	r7, r0, r0, lsl r9
    27f0:	0e001100 	adfeqs	f1, f0, f0
    27f4:	000000f0 	strdeq	r0, [r0], -r0	; <UNPREDICTABLE>
    27f8:	98006502 	stmdals	r0, {r1, r8, sl, sp, lr}
    27fc:	04000000 	streq	r0, [r0], #-0
    2800:	000e7800 	andeq	r7, lr, r0, lsl #16
    2804:	3b010400 	blcc	4380c <__bss_end__+0x398bc>
    2808:	01000004 	tsteq	r0, r4
    280c:	00000742 	andeq	r0, r0, r2, asr #14
    2810:	000004a6 	andeq	r0, r0, r6, lsr #9
    2814:	00009020 	andeq	r9, r0, r0, lsr #32
    2818:	00000008 	andeq	r0, r0, r8
    281c:	00000c3a 	andeq	r0, r0, sl, lsr ip
    2820:	69050402 	stmdbvs	r5, {r1, sl}
    2824:	0300746e 	movweq	r7, #1134	; 0x46e
    2828:	01cc0704 	biceq	r0, ip, r4, lsl #14
    282c:	01030000 	mrseq	r0, (UNDEF: 3)
    2830:	0000e406 	andeq	lr, r0, r6, lsl #8
    2834:	05020300 	streq	r0, [r2, #-768]	; 0x300
    2838:	00000220 	andeq	r0, r0, r0, lsr #4
    283c:	00050403 	andeq	r0, r5, r3, lsl #8
    2840:	03000002 	movweq	r0, #2
    2844:	01fb0508 	mvnseq	r0, r8, lsl #10
    2848:	01030000 	mrseq	r0, (UNDEF: 3)
    284c:	0000e208 	andeq	lr, r0, r8, lsl #4
    2850:	07020300 	streq	r0, [r2, -r0, lsl #6]
    2854:	0000004b 	andeq	r0, r0, fp, asr #32
    2858:	c7070403 	strgt	r0, [r7, -r3, lsl #8]
    285c:	03000001 	movweq	r0, #1
    2860:	01c20708 	biceq	r0, r2, r8, lsl #14
    2864:	04030000 	streq	r0, [r3], #-0
    2868:	0001e807 	andeq	lr, r1, r7, lsl #16
    286c:	08010300 	stmdaeq	r1, {r8, r9}
    2870:	000000eb 	andeq	r0, r0, fp, ror #1
    2874:	00062804 	andeq	r2, r6, r4, lsl #16
    2878:	20040100 	andcs	r0, r4, r0, lsl #2
    287c:	04000090 	streq	r0, [r0], #-144	; 0x90
    2880:	01000000 	mrseq	r0, (UNDEF: 0)
    2884:	05d2049c 	ldrbeq	r0, [r2, #1180]	; 0x49c
    2888:	05010000 	streq	r0, [r1, #-0]
    288c:	00009024 	andeq	r9, r0, r4, lsr #32
    2890:	00000004 	andeq	r0, r0, r4
    2894:	d7009c01 	strle	r9, [r0, -r1, lsl #24]
    2898:	04000001 	streq	r0, [r0], #-1
    289c:	000eba00 	andeq	fp, lr, r0, lsl #20
    28a0:	3b010400 	blcc	438a8 <__bss_end__+0x39958>
    28a4:	01000004 	tsteq	r0, r4
    28a8:	000007fe 	strdeq	r0, [r0], -lr
    28ac:	000004a6 	andeq	r0, r0, r6, lsr #9
    28b0:	00009028 	andeq	r9, r0, r8, lsr #32
    28b4:	0000006c 	andeq	r0, r0, ip, rrx
    28b8:	00000c85 	andeq	r0, r0, r5, lsl #25
    28bc:	69050402 	stmdbvs	r5, {r1, sl}
    28c0:	0300746e 	movweq	r7, #1134	; 0x46e
    28c4:	01cc0704 	biceq	r0, ip, r4, lsl #14
    28c8:	01030000 	mrseq	r0, (UNDEF: 3)
    28cc:	0000e406 	andeq	lr, r0, r6, lsl #8
    28d0:	05020300 	streq	r0, [r2, #-768]	; 0x300
    28d4:	00000220 	andeq	r0, r0, r0, lsr #4
    28d8:	00050403 	andeq	r0, r5, r3, lsl #8
    28dc:	03000002 	movweq	r0, #2
    28e0:	01fb0508 	mvnseq	r0, r8, lsl #10
    28e4:	01030000 	mrseq	r0, (UNDEF: 3)
    28e8:	0000e208 	andeq	lr, r0, r8, lsl #4
    28ec:	07020300 	streq	r0, [r2, -r0, lsl #6]
    28f0:	0000004b 	andeq	r0, r0, fp, asr #32
    28f4:	c7070403 	strgt	r0, [r7, -r3, lsl #8]
    28f8:	03000001 	movweq	r0, #1
    28fc:	01c20708 	biceq	r0, r2, r8, lsl #14
    2900:	04030000 	streq	r0, [r3], #-0
    2904:	0001e807 	andeq	lr, r1, r7, lsl #16
    2908:	08010300 	stmdaeq	r1, {r8, r9}
    290c:	000000eb 	andeq	r0, r0, fp, ror #1
    2910:	14020404 	strne	r0, [r2], #-1028	; 0x404
    2914:	000000f0 	strdeq	r0, [r0], -r0	; <UNPREDICTABLE>
    2918:	00081705 	andeq	r1, r8, r5, lsl #14
    291c:	82e48000 	rschi	r8, r4, #0
    2920:	9d050280 	sfmls	f0, 4, [r5, #-512]	; 0xfffffe00
    2924:	80000007 	andhi	r0, r0, r7
    2928:	028082e4 	addeq	r8, r0, #228, 4	; 0x4000000e
    292c:	00084405 	andeq	r4, r8, r5, lsl #8
    2930:	82e48400 	rschi	r8, r4, #0, 8
    2934:	5f050280 	svcpl	0x00050280
    2938:	88000007 	stmdahi	r0, {r0, r1, r2}
    293c:	028082e4 	addeq	r8, r0, #228, 4	; 0x4000000e
    2940:	00078005 	andeq	r8, r7, r5
    2944:	82e48c00 	rschi	r8, r4, #0, 24
    2948:	c1050280 	smlabbgt	r5, r0, r2, r0
    294c:	90000007 	andls	r0, r0, r7
    2950:	028082e4 	addeq	r8, r0, #228, 4	; 0x4000000e
    2954:	0007cf05 	andeq	ip, r7, r5, lsl #30
    2958:	82e49400 	rschi	r9, r4, #0, 8
    295c:	af050280 	svcge	0x00050280
    2960:	98000007 	stmdals	r0, {r0, r1, r2}
    2964:	028082e4 	addeq	r8, r0, #228, 4	; 0x4000000e
    2968:	00082605 	andeq	r2, r8, r5, lsl #12
    296c:	82e49c00 	rschi	r9, r4, #0, 24
    2970:	35050280 	strcc	r0, [r5, #-640]	; 0x280
    2974:	a0000008 	andge	r0, r0, r8
    2978:	028082e4 	addeq	r8, r0, #228, 4	; 0x4000000e
    297c:	00076d05 	andeq	r6, r7, r5, lsl #26
    2980:	82e4a400 	rschi	sl, r4, #0, 8
    2984:	06000280 	streq	r0, [r0], -r0, lsl #5
    2988:	00000415 	andeq	r0, r0, r5, lsl r4
    298c:	90281b01 	eorls	r1, r8, r1, lsl #22
    2990:	006c0000 	rsbeq	r0, ip, r0
    2994:	9c010000 	stcls	0, cr0, [r1], {-0}
    2998:	000001a5 	andeq	r0, r0, r5, lsr #3
    299c:	00078c07 	andeq	r8, r7, r7, lsl #24
    29a0:	2c230100 	stfcss	f0, [r3], #-0
    29a4:	07000000 	streq	r0, [r0, -r0]
    29a8:	000007dd 	ldrdeq	r0, [r0], -sp
    29ac:	002c2401 	eoreq	r2, ip, r1, lsl #8
    29b0:	64080000 	strvs	r0, [r8], #-0
    29b4:	01007473 	tsteq	r0, r3, ror r4
    29b8:	0001a527 	andeq	sl, r1, r7, lsr #10
    29bc:	73090000 	movwvc	r0, #36864	; 0x9000
    29c0:	01006372 	tsteq	r0, r2, ror r3
    29c4:	0001a528 	andeq	sl, r1, r8, lsr #10
    29c8:	006e0a00 	rsbeq	r0, lr, r0, lsl #20
    29cc:	002c2901 	eoreq	r2, ip, r1, lsl #18
    29d0:	50010000 	andpl	r0, r1, r0
    29d4:	00905c0b 	addseq	r5, r0, fp, lsl #24
    29d8:	00002400 	andeq	r2, r0, r0, lsl #8
    29dc:	00015800 	andeq	r5, r1, r0, lsl #16
    29e0:	00690c00 	rsbeq	r0, r9, r0, lsl #24
    29e4:	00252a01 	eoreq	r2, r5, r1, lsl #20
    29e8:	0c0e0000 	stceq	0, cr0, [lr], {-0}
    29ec:	0d000000 	stceq	0, cr0, [r0, #-0]
    29f0:	00009030 	andeq	r9, r0, r0, lsr r0
    29f4:	000001c1 	andeq	r0, r0, r1, asr #3
    29f8:	00903c0e 	addseq	r3, r0, lr, lsl #24
    29fc:	0001c800 	andeq	ip, r1, r0, lsl #16
    2a00:	00017e00 	andeq	r7, r1, r0, lsl #28
    2a04:	51010f00 	tstpl	r1, r0, lsl #30
    2a08:	0fff0902 	svceq	0x00ff0902
    2a0c:	0c055001 	stceq	0, cr5, [r5], {1}
    2a10:	2000b21c 	andcs	fp, r0, ip, lsl r2
    2a14:	90480e00 	subls	r0, r8, r0, lsl #28
    2a18:	01c80000 	biceq	r0, r8, r0
    2a1c:	019b0000 	orrseq	r0, fp, r0
    2a20:	010f0000 	mrseq	r0, CPSR
    2a24:	ff090251 			; <UNDEFINED> instruction: 0xff090251
    2a28:	0550010f 	ldrbeq	r0, [r0, #-271]	; 0x10f
    2a2c:	00b2200c 	adcseq	r2, r2, ip
    2a30:	4c0d0020 	stcmi	0, cr0, [sp], {32}
    2a34:	c1000090 	swpgt	r0, r0, [r0]	; <UNPREDICTABLE>
    2a38:	00000001 	andeq	r0, r0, r1
    2a3c:	002c0410 	eoreq	r0, ip, r0, lsl r4
    2a40:	8c070000 	stchi	0, cr0, [r7], {-0}
    2a44:	01000007 	tsteq	r0, r7
    2a48:	00002c23 	andeq	r2, r0, r3, lsr #24
    2a4c:	07dd0700 	ldrbeq	r0, [sp, r0, lsl #14]
    2a50:	24010000 	strcs	r0, [r1], #-0
    2a54:	0000002c 	andeq	r0, r0, ip, lsr #32
    2a58:	0007f211 	andeq	pc, r7, r1, lsl r2	; <UNPREDICTABLE>
    2a5c:	12890300 	addne	r0, r9, #0, 6
    2a60:	00000820 	andeq	r0, r0, r0, lsr #16
    2a64:	2c139b03 	ldccs	11, cr9, [r3], {3}
    2a68:	13000000 	movwne	r0, #0
    2a6c:	0000002c 	andeq	r0, r0, ip, lsr #32
    2a70:	01ad0000 			; <UNDEFINED> instruction: 0x01ad0000
    2a74:	00040000 	andeq	r0, r4, r0
    2a78:	00000fc0 	andeq	r0, r0, r0, asr #31
    2a7c:	043b0104 	ldrteq	r0, [fp], #-260	; 0x104
    2a80:	60010000 	andvs	r0, r1, r0
    2a84:	a6000008 	strge	r0, [r0], -r8
    2a88:	00000004 	andeq	r0, r0, r4
    2a8c:	00000000 	andeq	r0, r0, r0
    2a90:	52000000 	andpl	r0, r0, #0
    2a94:	0200000d 	andeq	r0, r0, #13
    2a98:	6e690504 	cdpvs	5, 6, cr0, cr9, cr4, {0}
    2a9c:	04030074 	streq	r0, [r3], #-116	; 0x74
    2aa0:	0001cc07 	andeq	ip, r1, r7, lsl #24
    2aa4:	06010300 	streq	r0, [r1], -r0, lsl #6
    2aa8:	000000e4 	andeq	r0, r0, r4, ror #1
    2aac:	20050203 	andcs	r0, r5, r3, lsl #4
    2ab0:	03000002 	movweq	r0, #2
    2ab4:	02000504 	andeq	r0, r0, #4, 10	; 0x1000000
    2ab8:	08030000 	stmdaeq	r3, {}	; <UNPREDICTABLE>
    2abc:	0001fb05 	andeq	pc, r1, r5, lsl #22
    2ac0:	08010300 	stmdaeq	r1, {r8, r9}
    2ac4:	000000e2 	andeq	r0, r0, r2, ror #1
    2ac8:	4b070203 	blmi	1c32dc <__bss_end__+0x1b938c>
    2acc:	03000000 	movweq	r0, #0
    2ad0:	01c70704 	biceq	r0, r7, r4, lsl #14
    2ad4:	08030000 	stmdaeq	r3, {}	; <UNPREDICTABLE>
    2ad8:	0001c207 	andeq	ip, r1, r7, lsl #4
    2adc:	07040300 	streq	r0, [r4, -r0, lsl #6]
    2ae0:	000001e8 	andeq	r0, r0, r8, ror #3
    2ae4:	eb080103 	bl	202ef8 <__bss_end__+0x1f8fa8>
    2ae8:	04000000 	streq	r0, [r0], #-0
    2aec:	00000852 	andeq	r0, r0, r2, asr r8
    2af0:	00250e01 	eoreq	r0, r5, r1, lsl #28
    2af4:	90940000 	addsls	r0, r4, r0
    2af8:	00180000 	andseq	r0, r8, r0
    2afc:	9c010000 	stcls	0, cr0, [r1], {-0}
    2b00:	000000a2 	andeq	r0, r0, r2, lsr #1
    2b04:	00003d05 	andeq	r3, r0, r5, lsl #26
    2b08:	2c0f0100 	stfcss	f0, [pc], {-0}
    2b0c:	2d000000 	stccs	0, cr0, [r0, #-0]
    2b10:	0000000c 	andeq	r0, r0, ip
    2b14:	00089406 	andeq	r9, r8, r6, lsl #8
    2b18:	ac170100 	ldfges	f0, [r7], {-0}
    2b1c:	14000090 	strne	r0, [r0], #-144	; 0x90
    2b20:	01000000 	mrseq	r0, (UNDEF: 0)
    2b24:	0000c79c 	muleq	r0, ip, r7
    2b28:	003d0500 	eorseq	r0, sp, r0, lsl #10
    2b2c:	18010000 	stmdane	r1, {}	; <UNPREDICTABLE>
    2b30:	0000002c 	andeq	r0, r0, ip, lsr #32
    2b34:	00000c4c 	andeq	r0, r0, ip, asr #24
    2b38:	05fa0600 	ldrbeq	r0, [sl, #1536]!	; 0x600
    2b3c:	1f010000 	svcne	0x00010000
    2b40:	000090c0 	andeq	r9, r0, r0, asr #1
    2b44:	00000048 	andeq	r0, r0, r8, asr #32
    2b48:	01779c01 	cmneq	r7, r1, lsl #24
    2b4c:	af070000 	svcge	0x00070000
    2b50:	01000008 	tsteq	r0, r8
    2b54:	0001772a 	andeq	r7, r1, sl, lsr #14
    2b58:	10001c00 	andne	r1, r0, r0, lsl #24
    2b5c:	088c0720 	stmeq	ip, {r5, r8, r9, sl}
    2b60:	2b010000 	blcs	42b68 <__bss_end__+0x38c18>
    2b64:	00000177 	andeq	r0, r0, r7, ror r1
    2b68:	20100024 	andscs	r0, r0, r4, lsr #32
    2b6c:	0008a307 	andeq	sl, r8, r7, lsl #6
    2b70:	772c0100 	strvc	r0, [ip, -r0, lsl #2]!
    2b74:	00000001 	andeq	r0, r0, r1
    2b78:	085a0000 	ldmdaeq	sl, {}^	; <UNPREDICTABLE>
    2b7c:	00000873 	andeq	r0, r0, r3, ror r8
    2b80:	01772d01 	cmneq	r7, r1, lsl #26
    2b84:	09200000 	stmdbeq	r0!, {}	; <UNPREDICTABLE>
    2b88:	000090c8 	andeq	r9, r0, r8, asr #1
    2b8c:	00000079 	andeq	r0, r0, r9, ror r0
    2b90:	0090d409 	addseq	sp, r0, r9, lsl #8
    2b94:	0000a200 	andeq	sl, r0, r0, lsl #4
    2b98:	90dc0a00 	sbcsls	r0, ip, r0, lsl #20
    2b9c:	018d0000 	orreq	r0, sp, r0
    2ba0:	013a0000 	teqeq	sl, r0
    2ba4:	010b0000 	mrseq	r0, (UNDEF: 11)
    2ba8:	004e0150 	subeq	r0, lr, r0, asr r1
    2bac:	0090e80a 	addseq	lr, r0, sl, lsl #16
    2bb0:	00019e00 	andeq	r9, r1, r0, lsl #28
    2bb4:	00015a00 	andeq	r5, r1, r0, lsl #20
    2bb8:	51010b00 	tstpl	r1, r0, lsl #22
    2bbc:	00010c05 	andeq	r0, r1, r5, lsl #24
    2bc0:	010b5a00 	tsteq	fp, r0, lsl #20
    2bc4:	240c0550 	strcs	r0, [ip], #-1360	; 0x550
    2bc8:	00201000 	eoreq	r1, r0, r0
    2bcc:	0090f40c 	addseq	pc, r0, ip, lsl #8
    2bd0:	00019e00 	andeq	r9, r1, r0, lsl #28
    2bd4:	51010b00 	tstpl	r1, r0, lsl #22
    2bd8:	00200c05 	eoreq	r0, r0, r5, lsl #24
    2bdc:	010b5a00 	tsteq	fp, r0, lsl #20
    2be0:	1c0c0550 	cfstr32ne	mvfx0, [ip], {80}	; 0x50
    2be4:	00201000 	eoreq	r1, r0, r0
    2be8:	00250d00 	eoreq	r0, r5, r0, lsl #26
    2bec:	55080000 	strpl	r0, [r8, #-0]
    2bf0:	01000008 	tsteq	r0, r8
    2bf4:	0001880d 	andeq	r8, r1, sp, lsl #16
    2bf8:	2c0d1000 	stccs	0, cr1, [sp], {-0}
    2bfc:	0e000000 	cdpeq	0, 0, cr0, cr0, cr0, {0}
    2c00:	00000605 	andeq	r0, r0, r5, lsl #12
    2c04:	019e4f02 	orrseq	r4, lr, r2, lsl #30
    2c08:	2c0f0000 	stccs	0, cr0, [pc], {-0}
    2c0c:	00000000 	andeq	r0, r0, r0
    2c10:	00082010 	andeq	r2, r8, r0, lsl r0
    2c14:	0f9b0200 	svceq	0x009b0200
    2c18:	0000002c 	andeq	r0, r0, ip, lsr #32
    2c1c:	00002c0f 	andeq	r2, r0, pc, lsl #24
    2c20:	f7000000 			; <UNDEFINED> instruction: 0xf7000000
    2c24:	04000001 	streq	r0, [r0], #-1
    2c28:	0010ae00 	andseq	sl, r0, r0, lsl #28
    2c2c:	3b010400 	blcc	43c34 <__bss_end__+0x39ce4>
    2c30:	01000004 	tsteq	r0, r4
    2c34:	000008d4 	ldrdeq	r0, [r0], -r4
    2c38:	000004a6 	andeq	r0, r0, r6, lsr #9
    2c3c:	00009108 	andeq	r9, r0, r8, lsl #2
    2c40:	00000098 	muleq	r0, r8, r0
    2c44:	00000df8 	strdeq	r0, [r0], -r8
    2c48:	69050402 	stmdbvs	r5, {r1, sl}
    2c4c:	0300746e 	movweq	r7, #1134	; 0x46e
    2c50:	01cc0704 	biceq	r0, ip, r4, lsl #14
    2c54:	01030000 	mrseq	r0, (UNDEF: 3)
    2c58:	0000e406 	andeq	lr, r0, r6, lsl #8
    2c5c:	05020300 	streq	r0, [r2, #-768]	; 0x300
    2c60:	00000220 	andeq	r0, r0, r0, lsr #4
    2c64:	00050403 	andeq	r0, r5, r3, lsl #8
    2c68:	03000002 	movweq	r0, #2
    2c6c:	01fb0508 	mvnseq	r0, r8, lsl #10
    2c70:	01030000 	mrseq	r0, (UNDEF: 3)
    2c74:	0000e208 	andeq	lr, r0, r8, lsl #4
    2c78:	07020300 	streq	r0, [r2, -r0, lsl #6]
    2c7c:	0000004b 	andeq	r0, r0, fp, asr #32
    2c80:	c7070403 	strgt	r0, [r7, -r3, lsl #8]
    2c84:	03000001 	movweq	r0, #1
    2c88:	01c20708 	biceq	r0, r2, r8, lsl #14
    2c8c:	04030000 	streq	r0, [r3], #-0
    2c90:	0001e807 	andeq	lr, r1, r7, lsl #16
    2c94:	08010300 	stmdaeq	r1, {r8, r9}
    2c98:	000000eb 	andeq	r0, r0, fp, ror #1
    2c9c:	0008f204 	andeq	pc, r8, r4, lsl #4
    2ca0:	08050100 	stmdaeq	r5, {r8}
    2ca4:	1c000091 	stcne	0, cr0, [r0], {145}	; 0x91
    2ca8:	01000000 	mrseq	r0, (UNDEF: 0)
    2cac:	00009e9c 	muleq	r0, ip, lr
    2cb0:	08ec0500 	stmiaeq	ip!, {r8, sl}^
    2cb4:	05010000 	streq	r0, [r1, #-0]
    2cb8:	0000002c 	andeq	r0, r0, ip, lsr #32
    2cbc:	00000c76 	andeq	r0, r0, r6, ror ip
    2cc0:	08b70600 	ldmeq	r7!, {r9, sl}
    2cc4:	11010000 	mrsne	r0, (UNDEF: 1)
    2cc8:	0000002c 	andeq	r0, r0, ip, lsr #32
    2ccc:	00009124 	andeq	r9, r0, r4, lsr #2
    2cd0:	00000014 	andeq	r0, r0, r4, lsl r0
    2cd4:	00cb9c01 	sbceq	r9, fp, r1, lsl #24
    2cd8:	30070000 	andcc	r0, r7, r0
    2cdc:	de000091 	mcrle	0, 0, r0, cr0, cr1, {4}
    2ce0:	08000001 	stmdaeq	r0, {r0}
    2ce4:	0c055001 	stceq	0, cr5, [r5], {1}
    2ce8:	20003004 	andcs	r3, r0, r4
    2cec:	08060000 	stmdaeq	r6, {}	; <UNPREDICTABLE>
    2cf0:	01000009 	tsteq	r0, r9
    2cf4:	00002c16 	andeq	r2, r0, r6, lsl ip
    2cf8:	00913800 	addseq	r3, r1, r0, lsl #16
    2cfc:	00001c00 	andeq	r1, r0, r0, lsl #24
    2d00:	0d9c0100 	ldfeqs	f0, [ip]
    2d04:	09000001 	stmdbeq	r0, {r0}
    2d08:	1a010075 	bne	42ee4 <__bss_end__+0x38f94>
    2d0c:	0000002c 	andeq	r0, r0, ip, lsr #32
    2d10:	00000caa 	andeq	r0, r0, sl, lsr #25
    2d14:	0091400a 	addseq	r4, r1, sl
    2d18:	0001f300 	andeq	pc, r1, r0, lsl #6
    2d1c:	91440a00 	cmpls	r4, r0, lsl #20
    2d20:	009e0000 	addseq	r0, lr, r0
    2d24:	4c0a0000 	stcmi	0, cr0, [sl], {-0}
    2d28:	f3000091 	vqadd.u8	d0, d16, d1
    2d2c:	00000001 	andeq	r0, r0, r1
    2d30:	0008ff04 	andeq	pc, r8, r4, lsl #30
    2d34:	541f0100 	ldrpl	r0, [pc], #-256	; 2d3c <__code_start__-0x52c4>
    2d38:	24000091 	strcs	r0, [r0], #-145	; 0x91
    2d3c:	01000000 	mrseq	r0, (UNDEF: 0)
    2d40:	00016b9c 	muleq	r1, ip, fp
    2d44:	73750b00 	cmnvc	r5, #0, 22
    2d48:	2c1f0100 	ldfcss	f0, [pc], {-0}
    2d4c:	c8000000 	stmdagt	r0, {}	; <UNPREDICTABLE>
    2d50:	0c00000c 	stceq	0, cr0, [r0], {12}
    2d54:	01006272 	tsteq	r0, r2, ror r2
    2d58:	00002c20 	andeq	r2, r0, r0, lsr #24
    2d5c:	0d540100 	ldfeqe	f0, [r4, #-0]
    2d60:	00009164 	andeq	r9, r0, r4, ror #2
    2d64:	00000010 	andeq	r0, r0, r0, lsl r0
    2d68:	00000161 	andeq	r0, r0, r1, ror #2
    2d6c:	00617209 	rsbeq	r7, r1, r9, lsl #4
    2d70:	002c2201 	eoreq	r2, ip, r1, lsl #4
    2d74:	0ce60000 	stcleq	0, cr0, [r6]
    2d78:	680a0000 	stmdavs	sl, {}	; <UNPREDICTABLE>
    2d7c:	cb000091 	blgt	2fc8 <__code_start__-0x5038>
    2d80:	00000000 	andeq	r0, r0, r0
    2d84:	0091600a 	addseq	r6, r1, sl
    2d88:	0000cb00 	andeq	ip, r0, r0, lsl #22
    2d8c:	05040000 	streq	r0, [r4, #-0]
    2d90:	01000006 	tsteq	r0, r6
    2d94:	00917828 	addseq	r7, r1, r8, lsr #16
    2d98:	00001400 	andeq	r1, r0, r0, lsl #8
    2d9c:	a49c0100 	ldrge	r0, [ip], #256	; 0x100
    2da0:	0b000001 	bleq	2dac <__code_start__-0x5254>
    2da4:	0100736d 	tsteq	r0, sp, ror #6
    2da8:	00002c28 	andeq	r2, r0, r8, lsr #24
    2dac:	000cf900 	andeq	pc, ip, r0, lsl #18
    2db0:	91880700 	orrls	r0, r8, r0, lsl #14
    2db4:	010d0000 	mrseq	r0, (UNDEF: 13)
    2db8:	01080000 	mrseq	r0, (UNDEF: 8)
    2dbc:	01f30750 	mvnseq	r0, r0, asr r7
    2dc0:	03e80a50 	mvneq	r0, #80, 20	; 0x50000
    2dc4:	0400001e 	streq	r0, [r0], #-30
    2dc8:	000008ca 	andeq	r0, r0, sl, asr #17
    2dcc:	918c2b01 	orrls	r2, ip, r1, lsl #22
    2dd0:	00140000 	andseq	r0, r4, r0
    2dd4:	9c010000 	stcls	0, cr0, [r1], {-0}
    2dd8:	000001de 	ldrdeq	r0, [r0], -lr
    2ddc:	6365730b 	cmnvs	r5, #738197504	; 0x2c000000
    2de0:	2c2b0100 	stfcss	f0, [fp], #-0
    2de4:	1a000000 	bne	2dec <__code_start__-0x5214>
    2de8:	0700000d 	streq	r0, [r0, -sp]
    2dec:	0000919c 	muleq	r0, ip, r1
    2df0:	0000016b 	andeq	r0, r0, fp, ror #2
    2df4:	07500108 	ldrbeq	r0, [r0, -r8, lsl #2]
    2df8:	0a5001f3 	beq	14035cc <__bss_end__+0x13f967c>
    2dfc:	001e03e8 	andseq	r0, lr, r8, ror #7
    2e00:	08e60e00 	stmiaeq	r6!, {r9, sl, fp}^
    2e04:	a7020000 	strge	r0, [r2, -r0]
    2e08:	0000002c 	andeq	r0, r0, ip, lsr #32
    2e0c:	000001f3 	strdeq	r0, [r0], -r3
    2e10:	00002c0f 	andeq	r2, r0, pc, lsl #24
    2e14:	f2100000 	vhadd.s16	d0, d0, d0
    2e18:	02000007 	andeq	r0, r0, #7
    2e1c:	0cc50089 	stcleq	0, cr0, [r5], {137}	; 0x89
    2e20:	00040000 	andeq	r0, r4, r0
    2e24:	000011a4 	andeq	r1, r0, r4, lsr #3
    2e28:	0cb30104 	ldfeqs	f0, [r3], #16
    2e2c:	160c0000 	strne	r0, [ip], -r0
    2e30:	3100000a 	tstcc	r0, sl
    2e34:	0400000a 	streq	r0, [r0], #-10
    2e38:	78000092 	stmdavc	r0, {r1, r4, r7}
    2e3c:	aa000001 	bge	2e48 <__code_start__-0x51b8>
    2e40:	0200000e 	andeq	r0, r0, #14
    2e44:	6e690504 	cdpvs	5, 6, cr0, cr9, cr4, {0}
    2e48:	04030074 	streq	r0, [r3], #-116	; 0x74
    2e4c:	0001cc07 	andeq	ip, r1, r7, lsl #24
    2e50:	002c0400 	eoreq	r0, ip, r0, lsl #8
    2e54:	01030000 	mrseq	r0, (UNDEF: 3)
    2e58:	0000e406 	andeq	lr, r0, r6, lsl #8
    2e5c:	05020300 	streq	r0, [r2, #-768]	; 0x300
    2e60:	00000220 	andeq	r0, r0, r0, lsr #4
    2e64:	00050403 	andeq	r0, r5, r3, lsl #8
    2e68:	03000002 	movweq	r0, #2
    2e6c:	01fb0508 	mvnseq	r0, r8, lsl #10
    2e70:	01030000 	mrseq	r0, (UNDEF: 3)
    2e74:	0000e208 	andeq	lr, r0, r8, lsl #4
    2e78:	07020300 	streq	r0, [r2, -r0, lsl #6]
    2e7c:	0000004b 	andeq	r0, r0, fp, asr #32
    2e80:	c7070403 	strgt	r0, [r7, -r3, lsl #8]
    2e84:	03000001 	movweq	r0, #1
    2e88:	01c20708 	biceq	r0, r2, r8, lsl #14
    2e8c:	c8050000 	stmdagt	r5, {}	; <UNPREDICTABLE>
    2e90:	0200000b 	andeq	r0, r0, #11
    2e94:	00002507 	andeq	r2, r0, r7, lsl #10
    2e98:	0bb20500 	bleq	fec842a0 <__bss_end__+0xfec7a350>
    2e9c:	2c030000 	stccs	0, cr0, [r3], {-0}
    2ea0:	00000046 	andeq	r0, r0, r6, asr #32
    2ea4:	000c8e05 	andeq	r8, ip, r5, lsl #28
    2ea8:	46720300 	ldrbtmi	r0, [r2], -r0, lsl #6
    2eac:	06000000 	streq	r0, [r0], -r0
    2eb0:	00000b56 	andeq	r0, r0, r6, asr fp
    2eb4:	2c016504 	cfstr32cs	mvfx6, [r1], {4}
    2eb8:	07000000 	streq	r0, [r0, -r0]
    2ebc:	bca60304 	stclt	3, cr0, [r6], #16
    2ec0:	08000000 	stmdaeq	r0, {}	; <UNPREDICTABLE>
    2ec4:	00000b41 	andeq	r0, r0, r1, asr #22
    2ec8:	0091a803 	addseq	sl, r1, r3, lsl #16
    2ecc:	e9080000 	stmdb	r8, {}	; <UNPREDICTABLE>
    2ed0:	0300000a 	movweq	r0, #10
    2ed4:	0000bca9 	andeq	fp, r0, r9, lsr #25
    2ed8:	54090000 	strpl	r0, [r9], #-0
    2edc:	cc000000 	stcgt	0, cr0, [r0], {-0}
    2ee0:	0a000000 	beq	2ee8 <__code_start__-0x5118>
    2ee4:	000000cc 	andeq	r0, r0, ip, asr #1
    2ee8:	04030003 	streq	r0, [r3], #-3
    2eec:	0001e807 	andeq	lr, r1, r7, lsl #16
    2ef0:	03080b00 	movweq	r0, #35584	; 0x8b00
    2ef4:	0000f4a3 	andeq	pc, r0, r3, lsr #9
    2ef8:	0c730c00 	ldcleq	12, cr0, [r3], #-0
    2efc:	a5030000 	strge	r0, [r3, #-0]
    2f00:	00000025 	andeq	r0, r0, r5, lsr #32
    2f04:	0c7b0c00 	ldcleq	12, cr0, [fp], #-0
    2f08:	aa030000 	bge	c2f10 <__bss_end__+0xb8fc0>
    2f0c:	0000009d 	muleq	r0, sp, r0
    2f10:	06050004 	streq	r0, [r5], -r4
    2f14:	0300000c 	movweq	r0, #12
    2f18:	0000d3ab 	andeq	sp, r0, fp, lsr #7
    2f1c:	0ab20500 	beq	fec84324 <__bss_end__+0xfec7a3d4>
    2f20:	af030000 	svcge	0x00030000
    2f24:	00000070 	andeq	r0, r0, r0, ror r0
    2f28:	040e040d 	streq	r0, [lr], #-1037	; 0x40d
    2f2c:	00000112 	andeq	r0, r0, r2, lsl r1
    2f30:	eb080103 	bl	203344 <__bss_end__+0x1f93f4>
    2f34:	0f000000 	svceq	0x00000000
    2f38:	00000112 	andeq	r0, r0, r2, lsl r1
    2f3c:	000d3005 	andeq	r3, sp, r5
    2f40:	62160500 	andsvs	r0, r6, #0, 10
    2f44:	10000000 	andne	r0, r0, r0
    2f48:	00000ac3 	andeq	r0, r0, r3, asr #21
    2f4c:	7c2d0518 	cfstr32vc	mvfx0, [sp], #-96	; 0xffffffa0
    2f50:	0c000001 	stceq	0, cr0, [r0], {1}
    2f54:	00000c27 	andeq	r0, r0, r7, lsr #24
    2f58:	017c2f05 	cmneq	ip, r5, lsl #30
    2f5c:	11000000 	mrsne	r0, (UNDEF: 0)
    2f60:	05006b5f 	streq	r6, [r0, #-2911]	; 0xb5f
    2f64:	00002530 	andeq	r2, r0, r0, lsr r5
    2f68:	5e0c0400 	cfcpyspl	mvf0, mvf12
    2f6c:	0500000c 	streq	r0, [r0, #-12]
    2f70:	00002530 	andeq	r2, r0, r0, lsr r5
    2f74:	9e0c0800 	cdpls	8, 0, cr0, cr12, cr0, {0}
    2f78:	0500000a 	streq	r0, [r0, #-10]
    2f7c:	00002530 	andeq	r2, r0, r0, lsr r5
    2f80:	770c0c00 	strvc	r0, [ip, -r0, lsl #24]
    2f84:	0500000d 	streq	r0, [r0, #-13]
    2f88:	00002530 	andeq	r2, r0, r0, lsr r5
    2f8c:	5f111000 	svcpl	0x00111000
    2f90:	31050078 	tstcc	r5, r8, ror r0
    2f94:	00000182 	andeq	r0, r0, r2, lsl #3
    2f98:	040e0014 	streq	r0, [lr], #-20
    2f9c:	00000129 	andeq	r0, r0, r9, lsr #2
    2fa0:	00011e09 	andeq	r1, r1, r9, lsl #28
    2fa4:	00019200 	andeq	r9, r1, r0, lsl #4
    2fa8:	00cc0a00 	sbceq	r0, ip, r0, lsl #20
    2fac:	00000000 	andeq	r0, r0, r0
    2fb0:	000ae410 	andeq	lr, sl, r0, lsl r4
    2fb4:	35052400 	strcc	r2, [r5, #-1024]	; 0x400
    2fb8:	0000020b 	andeq	r0, r0, fp, lsl #4
    2fbc:	00099c0c 	andeq	r9, r9, ip, lsl #24
    2fc0:	25370500 	ldrcs	r0, [r7, #-1280]!	; 0x500
    2fc4:	00000000 	andeq	r0, r0, r0
    2fc8:	000c960c 	andeq	r9, ip, ip, lsl #12
    2fcc:	25380500 	ldrcs	r0, [r8, #-1280]!	; 0x500
    2fd0:	04000000 	streq	r0, [r0], #-0
    2fd4:	0009ca0c 	andeq	ip, r9, ip, lsl #20
    2fd8:	25390500 	ldrcs	r0, [r9, #-1280]!	; 0x500
    2fdc:	08000000 	stmdaeq	r0, {}	; <UNPREDICTABLE>
    2fe0:	000e670c 	andeq	r6, lr, ip, lsl #14
    2fe4:	253a0500 	ldrcs	r0, [sl, #-1280]!	; 0x500
    2fe8:	0c000000 	stceq	0, cr0, [r0], {-0}
    2fec:	000b960c 	andeq	r9, fp, ip, lsl #12
    2ff0:	253b0500 	ldrcs	r0, [fp, #-1280]!	; 0x500
    2ff4:	10000000 	andne	r0, r0, r0
    2ff8:	000b6b0c 	andeq	r6, fp, ip, lsl #22
    2ffc:	253c0500 	ldrcs	r0, [ip, #-1280]!	; 0x500
    3000:	14000000 	strne	r0, [r0], #-0
    3004:	000d7c0c 	andeq	r7, sp, ip, lsl #24
    3008:	253d0500 	ldrcs	r0, [sp, #-1280]!	; 0x500
    300c:	18000000 	stmdane	r0, {}	; <UNPREDICTABLE>
    3010:	000be80c 	andeq	lr, fp, ip, lsl #16
    3014:	253e0500 	ldrcs	r0, [lr, #-1280]!	; 0x500
    3018:	1c000000 	stcne	0, cr0, [r0], {-0}
    301c:	000e2e0c 	andeq	r2, lr, ip, lsl #28
    3020:	253f0500 	ldrcs	r0, [pc, #-1280]!	; 2b28 <__code_start__-0x54d8>
    3024:	20000000 	andcs	r0, r0, r0
    3028:	09d91200 	ldmibeq	r9, {r9, ip}^
    302c:	01080000 	mrseq	r0, (UNDEF: 8)
    3030:	024b4805 	subeq	r4, fp, #327680	; 0x50000
    3034:	850c0000 	strhi	r0, [ip, #-0]
    3038:	0500000a 	streq	r0, [r0, #-10]
    303c:	00024b49 	andeq	r4, r2, r9, asr #22
    3040:	170c0000 	strne	r0, [ip, -r0]
    3044:	05000009 	streq	r0, [r0, #-9]
    3048:	00024b4a 	andeq	r4, r2, sl, asr #22
    304c:	22138000 	andscs	r8, r3, #0
    3050:	0500000d 	streq	r0, [r0, #-13]
    3054:	00011e4c 	andeq	r1, r1, ip, asr #28
    3058:	13010000 	movwne	r0, #4096	; 0x1000
    305c:	000009fe 	strdeq	r0, [r0], -lr
    3060:	011e4f05 	tsteq	lr, r5, lsl #30
    3064:	01040000 	mrseq	r0, (UNDEF: 4)
    3068:	010a0900 	tsteq	sl, r0, lsl #18
    306c:	025b0000 	subseq	r0, fp, #0
    3070:	cc0a0000 	stcgt	0, cr0, [sl], {-0}
    3074:	1f000000 	svcne	0x00000000
    3078:	0b9f1200 	bleq	fe7c7880 <__bss_end__+0xfe7bd930>
    307c:	01900000 	orrseq	r0, r0, r0
    3080:	02995b05 	addseq	r5, r9, #5120	; 0x1400
    3084:	270c0000 	strcs	r0, [ip, -r0]
    3088:	0500000c 	streq	r0, [r0, #-12]
    308c:	0002995c 	andeq	r9, r2, ip, asr r9
    3090:	3f0c0000 	svccc	0x000c0000
    3094:	0500000c 	streq	r0, [r0, #-12]
    3098:	0000255d 	andeq	r2, r0, sp, asr r5
    309c:	990c0400 	stmdbls	ip, {sl}
    30a0:	0500000a 	streq	r0, [r0, #-10]
    30a4:	00029f5f 	andeq	r9, r2, pc, asr pc
    30a8:	d90c0800 	stmdble	ip, {fp}
    30ac:	05000009 	streq	r0, [r0, #-9]
    30b0:	00020b60 	andeq	r0, r2, r0, ror #22
    30b4:	0e008800 	cdpeq	8, 0, cr8, cr0, cr0, {0}
    30b8:	00025b04 	andeq	r5, r2, r4, lsl #22
    30bc:	02af0900 	adceq	r0, pc, #0, 18
    30c0:	02af0000 	adceq	r0, pc, #0
    30c4:	cc0a0000 	stcgt	0, cr0, [sl], {-0}
    30c8:	1f000000 	svcne	0x00000000
    30cc:	b5040e00 	strlt	r0, [r4, #-3584]	; 0xe00
    30d0:	14000002 	strne	r0, [r0], #-2
    30d4:	000bf210 	andeq	pc, fp, r0, lsl r2	; <UNPREDICTABLE>
    30d8:	73050800 	movwvc	r0, #22528	; 0x5800
    30dc:	000002db 	ldrdeq	r0, [r0], -fp
    30e0:	0009bf0c 	andeq	fp, r9, ip, lsl #30
    30e4:	db740500 	blle	1d044ec <__bss_end__+0x1cfa59c>
    30e8:	00000002 	andeq	r0, r0, r2
    30ec:	0009230c 	andeq	r2, r9, ip, lsl #6
    30f0:	25750500 	ldrbcs	r0, [r5, #-1280]!	; 0x500
    30f4:	04000000 	streq	r0, [r0], #-0
    30f8:	54040e00 	strpl	r0, [r4], #-3584	; 0xe00
    30fc:	10000000 	andne	r0, r0, r0
    3100:	00000c11 	andeq	r0, r0, r1, lsl ip
    3104:	0bb30568 	bleq	fecc46ac <__bss_end__+0xfecba75c>
    3108:	11000004 	tstne	r0, r4
    310c:	0500705f 	streq	r7, [r0, #-95]	; 0x5f
    3110:	0002dbb4 			; <UNDEFINED> instruction: 0x0002dbb4
    3114:	5f110000 	svcpl	0x00110000
    3118:	b5050072 	strlt	r0, [r5, #-114]	; 0x72
    311c:	00000025 	andeq	r0, r0, r5, lsr #32
    3120:	775f1104 	ldrbvc	r1, [pc, -r4, lsl #2]
    3124:	25b60500 	ldrcs	r0, [r6, #1280]!	; 0x500
    3128:	08000000 	stmdaeq	r0, {}	; <UNPREDICTABLE>
    312c:	0009f70c 	andeq	pc, r9, ip, lsl #14
    3130:	3fb70500 	svccc	0x00b70500
    3134:	0c000000 	stceq	0, cr0, [r0], {-0}
    3138:	000b0a0c 	andeq	r0, fp, ip, lsl #20
    313c:	3fb80500 	svccc	0x00b80500
    3140:	0e000000 	cdpeq	0, 0, cr0, cr0, cr0, {0}
    3144:	66625f11 	uqadd16vs	r5, r2, r1
    3148:	b6b90500 	ldrtlt	r0, [r9], r0, lsl #10
    314c:	10000002 	andne	r0, r0, r2
    3150:	0009660c 	andeq	r6, r9, ip, lsl #12
    3154:	25ba0500 	ldrcs	r0, [sl, #1280]!	; 0x500
    3158:	18000000 	stmdane	r0, {}	; <UNPREDICTABLE>
    315c:	0009e70c 	andeq	lr, r9, ip, lsl #14
    3160:	0ac10500 	beq	ff044568 <__bss_end__+0xff03a618>
    3164:	1c000001 	stcne	0, cr0, [r0], {1}
    3168:	000e8e0c 	andeq	r8, lr, ip, lsl #28
    316c:	66c30500 	strbvs	r0, [r3], r0, lsl #10
    3170:	20000005 	andcs	r0, r0, r5
    3174:	000ea80c 	andeq	sl, lr, ip, lsl #16
    3178:	90c50500 	sbcls	r0, r5, r0, lsl #10
    317c:	24000005 	strcs	r0, [r0], #-5
    3180:	000c830c 	andeq	r8, ip, ip, lsl #6
    3184:	b4c80500 	strblt	r0, [r8], #1280	; 0x500
    3188:	28000005 	stmdacs	r0, {r0, r2}
    318c:	000e480c 	andeq	r4, lr, ip, lsl #16
    3190:	cec90500 	cdpgt	5, 12, cr0, cr9, cr0, {0}
    3194:	2c000005 	stccs	0, cr0, [r0], {5}
    3198:	62755f11 	rsbsvs	r5, r5, #17, 30	; 0x44
    319c:	b6cc0500 	strblt	r0, [ip], r0, lsl #10
    31a0:	30000002 	andcc	r0, r0, r2
    31a4:	70755f11 	rsbsvc	r5, r5, r1, lsl pc
    31a8:	dbcd0500 	blle	ff3445b0 <__bss_end__+0xff33a660>
    31ac:	38000002 	stmdacc	r0, {r1}
    31b0:	72755f11 	rsbsvc	r5, r5, #17, 30	; 0x44
    31b4:	25ce0500 	strbcs	r0, [lr, #1280]	; 0x500
    31b8:	3c000000 	stccc	0, cr0, [r0], {-0}
    31bc:	0009aa0c 	andeq	sl, r9, ip, lsl #20
    31c0:	d4d10500 	ldrble	r0, [r1], #1280	; 0x500
    31c4:	40000005 	andmi	r0, r0, r5
    31c8:	000df30c 	andeq	pc, sp, ip, lsl #6
    31cc:	e4d20500 	ldrb	r0, [r2], #1280	; 0x500
    31d0:	43000005 	movwmi	r0, #5
    31d4:	626c5f11 	rsbvs	r5, ip, #17, 30	; 0x44
    31d8:	b6d50500 	ldrblt	r0, [r5], r0, lsl #10
    31dc:	44000002 	strmi	r0, [r0], #-2
    31e0:	000a0d0c 	andeq	r0, sl, ip, lsl #26
    31e4:	25d80500 	ldrbcs	r0, [r8, #1280]	; 0x500
    31e8:	4c000000 	stcmi	0, cr0, [r0], {-0}
    31ec:	000b750c 	andeq	r7, fp, ip, lsl #10
    31f0:	7bd90500 	blvc	ff6445f8 <__bss_end__+0xff63a6a8>
    31f4:	50000000 	andpl	r0, r0, r0
    31f8:	000dde0c 	andeq	sp, sp, ip, lsl #28
    31fc:	29dc0500 	ldmibcs	ip, {r8, sl}^
    3200:	54000004 	strpl	r0, [r0], #-4
    3204:	000b5d0c 	andeq	r5, fp, ip, lsl #26
    3208:	ffe00500 			; <UNDEFINED> instruction: 0xffe00500
    320c:	58000000 	stmdapl	r0, {}	; <UNPREDICTABLE>
    3210:	000c190c 	andeq	r1, ip, ip, lsl #18
    3214:	f4e20500 	vld2.16	{d16[0],d17[0]}, [r2], r0
    3218:	5c000000 	stcpl	0, cr0, [r0], {-0}
    321c:	000b630c 	andeq	r6, fp, ip, lsl #6
    3220:	25e30500 	strbcs	r0, [r3, #1280]!	; 0x500
    3224:	64000000 	strvs	r0, [r0], #-0
    3228:	00251500 	eoreq	r1, r5, r0, lsl #10
    322c:	04290000 	strteq	r0, [r9], #-0
    3230:	29160000 	ldmdbcs	r6, {}	; <UNPREDICTABLE>
    3234:	16000004 	strne	r0, [r0], -r4
    3238:	0000010a 	andeq	r0, r0, sl, lsl #2
    323c:	00010c16 	andeq	r0, r1, r6, lsl ip
    3240:	00251600 	eoreq	r1, r5, r0, lsl #12
    3244:	0e000000 	cdpeq	0, 0, cr0, cr0, cr0, {0}
    3248:	00043404 	andeq	r3, r4, r4, lsl #8
    324c:	04290f00 	strteq	r0, [r9], #-3840	; 0xf00
    3250:	66170000 	ldrvs	r0, [r7], -r0
    3254:	2800000c 	stmdacs	r0, {r2, r3}
    3258:	02380504 	eorseq	r0, r8, #4, 10	; 0x1000000
    325c:	00000566 	andeq	r0, r0, r6, ror #10
    3260:	000be118 	andeq	lr, fp, r8, lsl r1
    3264:	023a0500 	eorseq	r0, sl, #0, 10
    3268:	00000025 	andeq	r0, r0, r5, lsr #32
    326c:	0a061800 	beq	189274 <__bss_end__+0x17f324>
    3270:	3f050000 	svccc	0x00050000
    3274:	00063b02 	andeq	r3, r6, r2, lsl #22
    3278:	fa180400 	blx	604280 <__bss_end__+0x5fa330>
    327c:	0500000a 	streq	r0, [r0, #-10]
    3280:	063b023f 			; <UNDEFINED> instruction: 0x063b023f
    3284:	18080000 	stmdane	r8, {}	; <UNPREDICTABLE>
    3288:	00000abb 			; <UNDEFINED> instruction: 0x00000abb
    328c:	3b023f05 	blcc	92ea8 <__bss_end__+0x88f58>
    3290:	0c000006 	stceq	0, cr0, [r0], {6}
    3294:	000c3a18 	andeq	r3, ip, r8, lsl sl
    3298:	02410500 	subeq	r0, r1, #0, 10
    329c:	00000025 	andeq	r0, r0, r5, lsr #32
    32a0:	09311810 	ldmdbeq	r1!, {r4, fp, ip}
    32a4:	42050000 	andmi	r0, r5, #0
    32a8:	00081d02 	andeq	r1, r8, r2, lsl #26
    32ac:	58181400 	ldmdapl	r8, {sl, ip}
    32b0:	0500000d 	streq	r0, [r0, #-13]
    32b4:	00250244 	eoreq	r0, r5, r4, asr #4
    32b8:	18300000 	ldmdane	r0!, {}	; <UNPREDICTABLE>
    32bc:	00000c44 	andeq	r0, r0, r4, asr #24
    32c0:	8a024505 	bhi	946dc <__bss_end__+0x8a78c>
    32c4:	34000005 	strcc	r0, [r0], #-5
    32c8:	000ba718 	andeq	sl, fp, r8, lsl r7
    32cc:	02470500 	subeq	r0, r7, #0, 10
    32d0:	00000025 	andeq	r0, r0, r5, lsr #32
    32d4:	0c541838 	mrrceq	8, 3, r1, r4, cr8
    32d8:	49050000 	stmdbmi	r5, {}	; <UNPREDICTABLE>
    32dc:	00083802 	andeq	r3, r8, r2, lsl #16
    32e0:	39183c00 	ldmdbcc	r8, {sl, fp, ip, sp}
    32e4:	0500000b 	streq	r0, [r0, #-11]
    32e8:	017c024c 	cmneq	ip, ip, asr #4
    32ec:	18400000 	stmdane	r0, {}^	; <UNPREDICTABLE>
    32f0:	00000ada 	ldrdeq	r0, [r0], -sl
    32f4:	25024d05 	strcs	r4, [r2, #-3333]	; 0xd05
    32f8:	44000000 	strmi	r0, [r0], #-0
    32fc:	000e6218 	andeq	r6, lr, r8, lsl r2
    3300:	024e0500 	subeq	r0, lr, #0, 10
    3304:	0000017c 	andeq	r0, r0, ip, ror r1
    3308:	0bbe1848 	bleq	fef89430 <__bss_end__+0xfef7f4e0>
    330c:	4f050000 	svcmi	0x00050000
    3310:	00083e02 	andeq	r3, r8, r2, lsl #28
    3314:	02184c00 	andseq	r4, r8, #0, 24
    3318:	0500000b 	streq	r0, [r0, #-11]
    331c:	00250252 	eoreq	r0, r5, r2, asr r2
    3320:	18500000 	ldmdane	r0, {}^	; <UNPREDICTABLE>
    3324:	00000a29 	andeq	r0, r0, r9, lsr #20
    3328:	0c025305 	stceq	3, cr5, [r2], {5}
    332c:	54000001 	strpl	r0, [r0], #-1
    3330:	000bda18 	andeq	sp, fp, r8, lsl sl
    3334:	02760500 	rsbseq	r0, r6, #0, 10
    3338:	000007fb 	strdeq	r0, [r0], -fp
    333c:	0b9f1958 	bleq	fe7c98a4 <__bss_end__+0xfe7bf954>
    3340:	7a050000 	bvc	143348 <__bss_end__+0x1393f8>
    3344:	00029902 	andeq	r9, r2, r2, lsl #18
    3348:	19014800 	stmdbne	r1, {fp, lr}
    334c:	00000b17 	andeq	r0, r0, r7, lsl fp
    3350:	5b027b05 	blpl	a1f6c <__bss_end__+0x9801c>
    3354:	4c000002 	stcmi	0, cr0, [r0], {2}
    3358:	0dc41901 	stcleq	9, cr1, [r4, #4]
    335c:	7f050000 	svcvc	0x00050000
    3360:	00084f02 	andeq	r4, r8, r2, lsl #30
    3364:	1902dc00 	stmdbne	r2, {sl, fp, ip, lr, pc}
    3368:	000009ef 	andeq	r0, r0, pc, ror #19
    336c:	00028405 	andeq	r8, r2, r5, lsl #8
    3370:	e0000006 	and	r0, r0, r6
    3374:	09d41902 	ldmibeq	r4, {r1, r8, fp, ip}^
    3378:	85050000 	strhi	r0, [r5, #-0]
    337c:	00085b02 	andeq	r5, r8, r2, lsl #22
    3380:	0002ec00 	andeq	lr, r2, r0, lsl #24
    3384:	040b040e 	streq	r0, [fp], #-1038	; 0x40e
    3388:	25150000 	ldrcs	r0, [r5, #-0]
    338c:	8a000000 	bhi	3394 <__code_start__-0x4c6c>
    3390:	16000005 	strne	r0, [r0], -r5
    3394:	00000429 	andeq	r0, r0, r9, lsr #8
    3398:	00010a16 	andeq	r0, r1, r6, lsl sl
    339c:	058a1600 	streq	r1, [sl, #1536]	; 0x600
    33a0:	25160000 	ldrcs	r0, [r6, #-0]
    33a4:	00000000 	andeq	r0, r0, r0
    33a8:	0119040e 	tsteq	r9, lr, lsl #8
    33ac:	040e0000 	streq	r0, [lr], #-0
    33b0:	0000056c 	andeq	r0, r0, ip, ror #10
    33b4:	00008615 	andeq	r8, r0, r5, lsl r6
    33b8:	0005b400 	andeq	fp, r5, r0, lsl #8
    33bc:	04291600 	strteq	r1, [r9], #-1536	; 0x600
    33c0:	0a160000 	beq	5833c8 <__bss_end__+0x579478>
    33c4:	16000001 	strne	r0, [r0], -r1
    33c8:	00000086 	andeq	r0, r0, r6, lsl #1
    33cc:	00002516 	andeq	r2, r0, r6, lsl r5
    33d0:	040e0000 	streq	r0, [lr], #-0
    33d4:	00000596 	muleq	r0, r6, r5
    33d8:	00002515 	andeq	r2, r0, r5, lsl r5
    33dc:	0005ce00 	andeq	ip, r5, r0, lsl #28
    33e0:	04291600 	strteq	r1, [r9], #-1536	; 0x600
    33e4:	0a160000 	beq	5833ec <__bss_end__+0x57949c>
    33e8:	00000001 	andeq	r0, r0, r1
    33ec:	05ba040e 	ldreq	r0, [sl, #1038]!	; 0x40e
    33f0:	54090000 	strpl	r0, [r9], #-0
    33f4:	e4000000 	str	r0, [r0], #-0
    33f8:	0a000005 	beq	3414 <__code_start__-0x4bec>
    33fc:	000000cc 	andeq	r0, r0, ip, asr #1
    3400:	54090002 	strpl	r0, [r9], #-2
    3404:	f4000000 	vst4.8	{d0-d3}, [r0], r0
    3408:	0a000005 	beq	3424 <__code_start__-0x4bdc>
    340c:	000000cc 	andeq	r0, r0, ip, asr #1
    3410:	ff060000 			; <UNDEFINED> instruction: 0xff060000
    3414:	0500000b 	streq	r0, [r0, #-11]
    3418:	02e1011d 	rsceq	r0, r1, #1073741831	; 0x40000007
    341c:	861a0000 	ldrhi	r0, [sl], -r0
    3420:	0c00000d 	stceq	0, cr0, [r0], {13}
    3424:	35012105 	strcc	r2, [r1, #-261]	; 0x105
    3428:	18000006 	stmdane	r0, {r1, r2}
    342c:	00000c27 	andeq	r0, r0, r7, lsr #24
    3430:	35012305 	strcc	r2, [r1, #-773]	; 0x305
    3434:	00000006 	andeq	r0, r0, r6
    3438:	000b1018 	andeq	r1, fp, r8, lsl r0
    343c:	01240500 	teqeq	r4, r0, lsl #10
    3440:	00000025 	andeq	r0, r0, r5, lsr #32
    3444:	0bf91804 	bleq	ffe4945c <__bss_end__+0xffe3f50c>
    3448:	25050000 	strcs	r0, [r5, #-0]
    344c:	00063b01 	andeq	r3, r6, r1, lsl #22
    3450:	0e000800 	cdpeq	8, 0, cr0, cr0, cr0, {0}
    3454:	00060004 	andeq	r0, r6, r4
    3458:	f4040e00 			; <UNDEFINED> instruction: 0xf4040e00
    345c:	1a000005 	bne	3478 <__code_start__-0x4b88>
    3460:	00000929 	andeq	r0, r0, r9, lsr #18
    3464:	013d050e 	teqeq	sp, lr, lsl #10
    3468:	00000676 	andeq	r0, r0, r6, ror r6
    346c:	000c6d18 	andeq	r6, ip, r8, lsl sp
    3470:	013e0500 	teqeq	lr, r0, lsl #10
    3474:	00000676 	andeq	r0, r0, r6, ror r6
    3478:	0ca71800 	stceq	8, cr1, [r7]
    347c:	3f050000 	svccc	0x00050000
    3480:	00067601 	andeq	r7, r6, r1, lsl #12
    3484:	2b180600 	blcs	604c8c <__bss_end__+0x5fad3c>
    3488:	0500000d 	streq	r0, [r0, #-13]
    348c:	005b0140 	subseq	r0, fp, r0, asr #2
    3490:	000c0000 	andeq	r0, ip, r0
    3494:	00005b09 	andeq	r5, r0, r9, lsl #22
    3498:	00068600 	andeq	r8, r6, r0, lsl #12
    349c:	00cc0a00 	sbceq	r0, ip, r0, lsl #20
    34a0:	00020000 	andeq	r0, r2, r0
    34a4:	5705d01b 	smladpl	r5, fp, r0, sp
    34a8:	00078702 	andeq	r8, r7, r2, lsl #14
    34ac:	0d6a1800 	stcleq	8, cr1, [sl, #-0]
    34b0:	59050000 	stmdbpl	r5, {}	; <UNPREDICTABLE>
    34b4:	00002c02 	andeq	r2, r0, r2, lsl #24
    34b8:	15180000 	ldrne	r0, [r8, #-0]
    34bc:	0500000d 	streq	r0, [r0, #-13]
    34c0:	010c025a 	tsteq	ip, sl, asr r2
    34c4:	18040000 	stmdane	r4, {}	; <UNPREDICTABLE>
    34c8:	00000b2c 	andeq	r0, r0, ip, lsr #22
    34cc:	87025b05 	strhi	r5, [r2, -r5, lsl #22]
    34d0:	08000007 	stmdaeq	r0, {r0, r1, r2}
    34d4:	000e3918 	andeq	r3, lr, r8, lsl r9
    34d8:	025c0500 	subseq	r0, ip, #0, 10
    34dc:	00000192 	muleq	r0, r2, r1
    34e0:	0acb1824 	beq	ff2c9578 <__bss_end__+0xff2bf628>
    34e4:	5d050000 	stcpl	0, cr0, [r5, #-0]
    34e8:	00002502 	andeq	r2, r0, r2, lsl #10
    34ec:	22184800 	andscs	r4, r8, #0, 16
    34f0:	0500000c 	streq	r0, [r0, #-12]
    34f4:	0069025e 	rsbeq	r0, r9, lr, asr r2
    34f8:	18500000 	ldmdane	r0, {}^	; <UNPREDICTABLE>
    34fc:	00000e4f 	andeq	r0, r0, pc, asr #28
    3500:	41025f05 	tstmi	r2, r5, lsl #30
    3504:	58000006 	stmdapl	r0, {r1, r2}
    3508:	000c2d18 	andeq	r2, ip, r8, lsl sp
    350c:	02600500 	rsbeq	r0, r0, #0, 10
    3510:	000000f4 	strdeq	r0, [r0], -r4
    3514:	0e541868 	cdpeq	8, 5, cr1, cr4, cr8, {3}
    3518:	61050000 	mrsvs	r0, (UNDEF: 5)
    351c:	0000f402 	andeq	pc, r0, r2, lsl #8
    3520:	8e187000 	cdphi	0, 1, cr7, cr8, cr0, {0}
    3524:	05000009 	streq	r0, [r0, #-9]
    3528:	00f40262 	rscseq	r0, r4, r2, ror #4
    352c:	18780000 	ldmdane	r8!, {}^	; <UNPREDICTABLE>
    3530:	00000da6 	andeq	r0, r0, r6, lsr #27
    3534:	97026305 	strls	r6, [r2, -r5, lsl #6]
    3538:	80000007 	andhi	r0, r0, r7
    353c:	000b2018 	andeq	r2, fp, r8, lsl r0
    3540:	02640500 	rsbeq	r0, r4, #0, 10
    3544:	000007a7 	andeq	r0, r0, r7, lsr #15
    3548:	0d381888 	ldceq	8, cr1, [r8, #-544]!	; 0xfffffde0
    354c:	65050000 	strvs	r0, [r5, #-0]
    3550:	00002502 	andeq	r2, r0, r2, lsl #10
    3554:	7718a000 	ldrvc	sl, [r8, -r0]
    3558:	0500000a 	streq	r0, [r0, #-10]
    355c:	00f40266 	rscseq	r0, r4, r6, ror #4
    3560:	18a40000 	stmiane	r4!, {}	; <UNPREDICTABLE>
    3564:	0000097f 	andeq	r0, r0, pc, ror r9
    3568:	f4026705 	vst1.8	{d6}, [r2], r5
    356c:	ac000000 	stcge	0, cr0, [r0], {-0}
    3570:	000a6618 	andeq	r6, sl, r8, lsl r6
    3574:	02680500 	rsbeq	r0, r8, #0, 10
    3578:	000000f4 	strdeq	r0, [r0], -r4
    357c:	094618b4 	stmdbeq	r6, {r2, r4, r5, r7, fp, ip}^
    3580:	69050000 	stmdbvs	r5, {}	; <UNPREDICTABLE>
    3584:	0000f402 	andeq	pc, r0, r2, lsl #8
    3588:	5518bc00 	ldrpl	fp, [r8, #-3072]	; 0xc00
    358c:	05000009 	streq	r0, [r0, #-9]
    3590:	00f4026a 	rscseq	r0, r4, sl, ror #4
    3594:	18c40000 	stmiane	r4, {}^	; <UNPREDICTABLE>
    3598:	00000bdf 	ldrdeq	r0, [r0], -pc	; <UNPREDICTABLE>
    359c:	25026b05 	strcs	r6, [r2, #-2821]	; 0xb05
    35a0:	cc000000 	stcgt	0, cr0, [r0], {-0}
    35a4:	01120900 	tsteq	r2, r0, lsl #18
    35a8:	07970000 	ldreq	r0, [r7, r0]
    35ac:	cc0a0000 	stcgt	0, cr0, [sl], {-0}
    35b0:	19000000 	stmdbne	r0, {}	; <UNPREDICTABLE>
    35b4:	01120900 	tsteq	r2, r0, lsl #18
    35b8:	07a70000 	streq	r0, [r7, r0]!
    35bc:	cc0a0000 	stcgt	0, cr0, [sl], {-0}
    35c0:	07000000 	streq	r0, [r0, -r0]
    35c4:	01120900 	tsteq	r2, r0, lsl #18
    35c8:	07b70000 	ldreq	r0, [r7, r0]!
    35cc:	cc0a0000 	stcgt	0, cr0, [sl], {-0}
    35d0:	17000000 	strne	r0, [r0, -r0]
    35d4:	05f01b00 	ldrbeq	r1, [r0, #2816]!	; 0xb00
    35d8:	07db0270 			; <UNDEFINED> instruction: 0x07db0270
    35dc:	8f180000 	svchi	0x00180000
    35e0:	0500000b 	streq	r0, [r0, #-11]
    35e4:	07db0273 			; <UNDEFINED> instruction: 0x07db0273
    35e8:	18000000 	stmdane	r0, {}	; <UNPREDICTABLE>
    35ec:	00000d9d 	muleq	r0, sp, sp
    35f0:	eb027405 	bl	a060c <__bss_end__+0x966bc>
    35f4:	78000007 	stmdavc	r0, {r0, r1, r2}
    35f8:	02db0900 	sbcseq	r0, fp, #0, 18
    35fc:	07eb0000 	strbeq	r0, [fp, r0]!
    3600:	cc0a0000 	stcgt	0, cr0, [sl], {-0}
    3604:	1d000000 	stcne	0, cr0, [r0, #-0]
    3608:	002c0900 	eoreq	r0, ip, r0, lsl #18
    360c:	07fb0000 	ldrbeq	r0, [fp, r0]!
    3610:	cc0a0000 	stcgt	0, cr0, [sl], {-0}
    3614:	1d000000 	stcne	0, cr0, [r0, #-0]
    3618:	05f01c00 	ldrbeq	r1, [r0, #3072]!	; 0xc00
    361c:	081d0255 	ldmdaeq	sp, {r0, r2, r4, r6, r9}
    3620:	661d0000 	ldrvs	r0, [sp], -r0
    3624:	0500000c 	streq	r0, [r0, #-12]
    3628:	0686026c 	streq	r0, [r6], ip, ror #4
    362c:	f91d0000 			; <UNDEFINED> instruction: 0xf91d0000
    3630:	0500000d 	streq	r0, [r0, #-13]
    3634:	07b70275 			; <UNDEFINED> instruction: 0x07b70275
    3638:	09000000 	stmdbeq	r0, {}	; <UNPREDICTABLE>
    363c:	00000112 	andeq	r0, r0, r2, lsl r1
    3640:	0000082d 	andeq	r0, r0, sp, lsr #16
    3644:	0000cc0a 	andeq	ip, r0, sl, lsl #24
    3648:	1e001800 	cdpne	8, 0, cr1, cr0, cr0, {0}
    364c:	00000838 	andeq	r0, r0, r8, lsr r8
    3650:	00042916 	andeq	r2, r4, r6, lsl r9
    3654:	040e0000 	streq	r0, [lr], #-0
    3658:	0000082d 	andeq	r0, r0, sp, lsr #16
    365c:	017c040e 	cmneq	ip, lr, lsl #8
    3660:	4f1e0000 	svcmi	0x001e0000
    3664:	16000008 	strne	r0, [r0], -r8
    3668:	00000025 	andeq	r0, r0, r5, lsr #32
    366c:	55040e00 	strpl	r0, [r4, #-3584]	; 0xe00
    3670:	0e000008 	cdpeq	0, 0, cr0, cr0, cr8, {0}
    3674:	00084404 	andeq	r4, r8, r4, lsl #8
    3678:	05f40900 	ldrbeq	r0, [r4, #2304]!	; 0x900
    367c:	086b0000 	stmdaeq	fp!, {}^	; <UNPREDICTABLE>
    3680:	cc0a0000 	stcgt	0, cr0, [sl], {-0}
    3684:	02000000 	andeq	r0, r0, #0
    3688:	0d4c1f00 	stcleq	15, cr1, [ip, #-0]
    368c:	fd050000 	stc2	0, cr0, [r5, #-0]
    3690:	00042902 	andeq	r2, r4, r2, lsl #18
    3694:	0d451f00 	stcleq	15, cr1, [r5, #-0]
    3698:	fe050000 	cdp2	0, 0, cr0, cr5, cr0, {0}
    369c:	00042f02 	andeq	r2, r4, r2, lsl #30
    36a0:	00251500 	eoreq	r1, r5, r0, lsl #10
    36a4:	08920000 	ldmeq	r2, {}	; <UNPREDICTABLE>
    36a8:	25160000 	ldrcs	r0, [r6, #-0]
    36ac:	00000000 	andeq	r0, r0, r0
    36b0:	00050c20 	andeq	r0, r5, r0, lsr #24
    36b4:	9d1d0600 	ldcls	6, cr0, [sp, #-0]
    36b8:	0e000008 	cdpeq	0, 0, cr0, cr0, cr8, {0}
    36bc:	00088304 	andeq	r8, r8, r4, lsl #6
    36c0:	00251500 	eoreq	r1, r5, r0, lsl #10
    36c4:	08b20000 	ldmeq	r2!, {}	; <UNPREDICTABLE>
    36c8:	8a160000 	bhi	5836d0 <__bss_end__+0x579780>
    36cc:	00000005 	andeq	r0, r0, r5
    36d0:	00054920 	andeq	r4, r5, r0, lsr #18
    36d4:	bd220600 	stclt	6, cr0, [r2, #-0]
    36d8:	0e000008 	cdpeq	0, 0, cr0, cr0, cr8, {0}
    36dc:	0008a304 	andeq	sl, r8, r4, lsl #6
    36e0:	54012100 	strpl	r2, [r1], #-256	; 0x100
    36e4:	08000000 	stmdaeq	r0, {}	; <UNPREDICTABLE>
    36e8:	0009000c 	andeq	r0, r9, ip
    36ec:	096f2200 	stmdbeq	pc!, {r9, sp}^	; <UNPREDICTABLE>
    36f0:	22000000 	andcs	r0, r0, #0
    36f4:	00000d8c 	andeq	r0, r0, ip, lsl #27
    36f8:	0de42201 	sfmeq	f2, 2, [r4, #4]!
    36fc:	22040000 	andcs	r0, r4, #0
    3700:	000009b0 			; <UNDEFINED> instruction: 0x000009b0
    3704:	0b472205 	bleq	11cbf20 <__bss_end__+0x11c1fd0>
    3708:	22060000 	andcs	r0, r6, #0
    370c:	00000e01 	andeq	r0, r0, r1, lsl #28
    3710:	0e102207 	cdpeq	2, 1, cr2, cr0, cr7, {0}
    3714:	22030000 	andcs	r0, r3, #0
    3718:	00000e1f 	andeq	r0, r0, pc, lsl lr
    371c:	1d100002 	ldcne	0, cr0, [r0, #-8]
    3720:	2c00000a 	stccs	0, cr0, [r0], {10}
    3724:	09900607 	ldmibeq	r0, {r0, r1, r2, r9, sl}
    3728:	69110000 	ldmdbvs	r1, {}	; <UNPREDICTABLE>
    372c:	0907006f 	stmdbeq	r7, {r0, r1, r2, r3, r5, r6}
    3730:	00000033 	andeq	r0, r0, r3, lsr r0
    3734:	65691100 	strbvs	r1, [r9, #-256]!	; 0x100
    3738:	0a070072 	beq	1c3908 <__bss_end__+0x1b99b8>
    373c:	00000033 	andeq	r0, r0, r3, lsr r0
    3740:	69691104 	stmdbvs	r9!, {r2, r8, ip}^
    3744:	11070072 	tstne	r7, r2, ror r0
    3748:	00000033 	andeq	r0, r0, r3, lsr r0
    374c:	636c1108 	cmnvs	ip, #8, 2
    3750:	13070072 	movwne	r0, #28786	; 0x7072
    3754:	00000033 	andeq	r0, r0, r3, lsr r0
    3758:	636d110c 	cmnvs	sp, #12, 2
    375c:	14070072 	strne	r0, [r7], #-114	; 0x72
    3760:	00000033 	andeq	r0, r0, r3, lsr r0
    3764:	736c1110 	cmnvc	ip, #16, 2
    3768:	15070072 	strne	r0, [r7, #-114]	; 0x72
    376c:	00000033 	andeq	r0, r0, r3, lsr r0
    3770:	736d1114 	cmnvc	sp, #20, 2
    3774:	16070072 			; <UNDEFINED> instruction: 0x16070072
    3778:	00000033 	andeq	r0, r0, r3, lsr r0
    377c:	0c9f0c18 	ldceq	12, cr0, [pc], {24}
    3780:	17070000 	strne	r0, [r7, -r0]
    3784:	00000033 	andeq	r0, r0, r3, lsr r0
    3788:	09c50c1c 	stmibeq	r5, {r2, r3, r4, sl, fp}^
    378c:	1b070000 	blne	1c3794 <__bss_end__+0x1b9844>
    3790:	00000033 	andeq	r0, r0, r3, lsr r0
    3794:	09a50c20 	stmibeq	r5!, {r5, sl, fp}
    3798:	1d070000 	stcne	0, cr0, [r7, #-0]
    379c:	00000033 	andeq	r0, r0, r3, lsr r0
    37a0:	0c890c24 	stceq	12, cr0, [r9], {36}	; 0x24
    37a4:	1e070000 	cdpne	0, 0, cr0, cr7, cr0, {0}
    37a8:	00000033 	andeq	r0, r0, r3, lsr r0
    37ac:	8d230028 	stchi	0, cr0, [r3, #-160]!	; 0xffffff60
    37b0:	0100000a 	tsteq	r0, sl
    37b4:	0009a507 	andeq	sl, r9, r7, lsl #10
    37b8:	21500400 	cmpcs	r0, r0, lsl #8
    37bc:	33040e20 	movwcc	r0, #20000	; 0x4e20
    37c0:	0f000000 	svceq	0x00000000
    37c4:	0000099f 	muleq	r0, pc, r9	; <UNPREDICTABLE>
    37c8:	000bb923 	andeq	fp, fp, r3, lsr #18
    37cc:	bf280100 	svclt	0x00280100
    37d0:	40000009 	andmi	r0, r0, r9
    37d4:	0e202150 	mcreq	1, 1, r2, cr0, cr0, {2}
    37d8:	00090004 	andeq	r0, r9, r4
    37dc:	09b90f00 	ldmibeq	r9!, {r8, r9, sl, fp}
    37e0:	d6240000 	strtle	r0, [r4], -r0
    37e4:	0100000d 	tsteq	r0, sp
    37e8:	000025a7 	andeq	r2, r0, r7, lsr #11
    37ec:	00936c00 	addseq	r6, r3, r0, lsl #24
    37f0:	00001000 	andeq	r1, r0, r0
    37f4:	f09c0100 			; <UNDEFINED> instruction: 0xf09c0100
    37f8:	25000009 	strcs	r0, [r0, #-9]
    37fc:	00009374 	andeq	r9, r0, r4, ror r3
    3800:	00000c9c 	muleq	r0, ip, ip
    3804:	00937825 	addseq	r7, r3, r5, lsr #16
    3808:	000ad200 	andeq	sp, sl, r0, lsl #4
    380c:	f1260000 			; <UNDEFINED> instruction: 0xf1260000
    3810:	01000004 	tsteq	r0, r4
    3814:	00933c9f 	umullseq	r3, r3, pc, ip	; <UNPREDICTABLE>
    3818:	00003000 	andeq	r3, r0, r0
    381c:	4e9c0100 	fmlmie	f0, f4, f0
    3820:	2700000a 	strcs	r0, [r0, -sl]
    3824:	9f010063 	svcls	0x00010063
    3828:	0000002c 	andeq	r0, r0, ip, lsr #32
    382c:	00000d3b 	andeq	r0, r0, fp, lsr sp
    3830:	00934825 	addseq	r4, r3, r5, lsr #16
    3834:	000c9c00 	andeq	r9, ip, r0, lsl #24
    3838:	934c2500 	movtls	r2, #50432	; 0xc500
    383c:	0aa50000 	beq	fe943844 <__bss_end__+0xfe9398f4>
    3840:	60280000 	eorvs	r0, r8, r0
    3844:	a7000093 			; <UNDEFINED> instruction: 0xa7000093
    3848:	4400000c 	strmi	r0, [r0], #-12
    384c:	2900000a 	stmdbcs	r0, {r1, r3}
    3850:	0c055001 	stceq	0, cr5, [r5], {1}
    3854:	20215040 	eorcs	r5, r1, r0, asr #32
    3858:	05510129 	ldrbeq	r0, [r1, #-297]	; 0x129
    385c:	ff080074 			; <UNDEFINED> instruction: 0xff080074
    3860:	6425001a 	strtvs	r0, [r5], #-26
    3864:	9c000093 	stcls	0, cr0, [r0], {147}	; 0x93
    3868:	0000000c 	andeq	r0, r0, ip
    386c:	000af024 	andeq	pc, sl, r4, lsr #32
    3870:	25970100 	ldrcs	r0, [r7, #256]	; 0x100
    3874:	0c000000 	stceq	0, cr0, [r0], {-0}
    3878:	30000093 	mulcc	r0, r3, r0
    387c:	01000000 	mrseq	r0, (UNDEF: 0)
    3880:	000aa59c 	muleq	sl, ip, r5
    3884:	00632a00 	rsbeq	r2, r3, r0, lsl #20
    3888:	00259b01 	eoreq	r9, r5, r1, lsl #22
    388c:	54010000 	strpl	r0, [r1], #-0
    3890:	00931425 	addseq	r1, r3, r5, lsr #8
    3894:	000c9c00 	andeq	r9, ip, r0, lsl #24
    3898:	93182500 	tstls	r8, #0, 10
    389c:	0ad20000 	beq	ff4838a4 <__bss_end__+0xff479954>
    38a0:	28280000 	stmdacs	r8!, {}	; <UNPREDICTABLE>
    38a4:	b2000093 	andlt	r0, r0, #147	; 0x93
    38a8:	9b00000c 	blls	38e0 <__code_start__-0x4720>
    38ac:	2900000a 	stmdbcs	r0, {r1, r3}
    38b0:	0c055001 	stceq	0, cr5, [r5], {1}
    38b4:	20215040 	eorcs	r5, r1, r0, asr #32
    38b8:	93302500 	teqls	r0, #0, 10
    38bc:	0c9c0000 	ldceq	0, cr0, [ip], {0}
    38c0:	24000000 	strcs	r0, [r0], #-0
    38c4:	00000aa4 	andeq	r0, r0, r4, lsr #21
    38c8:	00258801 	eoreq	r8, r5, r1, lsl #16
    38cc:	92ec0000 	rscls	r0, ip, #0
    38d0:	00200000 	eoreq	r0, r0, r0
    38d4:	9c010000 	stcls	0, cr0, [r1], {-0}
    38d8:	00000ad2 	ldrdeq	r0, [r0], -r2
    38dc:	0092f82b 	addseq	pc, r2, fp, lsr #16
    38e0:	000cb200 	andeq	fp, ip, r0, lsl #4
    38e4:	50012900 	andpl	r2, r1, r0, lsl #18
    38e8:	50640c05 	rsbpl	r0, r4, r5, lsl #24
    38ec:	00002021 	andeq	r2, r0, r1, lsr #32
    38f0:	000db624 	andeq	fp, sp, r4, lsr #12
    38f4:	257f0100 	ldrbcs	r0, [pc, #-256]!	; 37fc <__code_start__-0x4804>
    38f8:	d4000000 	strle	r0, [r0], #-0
    38fc:	18000092 	stmdane	r0, {r1, r4, r7}
    3900:	01000000 	mrseq	r0, (UNDEF: 0)
    3904:	000aff9c 	muleq	sl, ip, pc	; <UNPREDICTABLE>
    3908:	92e02b00 	rscls	r2, r0, #0, 22
    390c:	0cb20000 	ldceq	0, cr0, [r2]
    3910:	01290000 	teqeq	r9, r0
    3914:	640c0550 	strvs	r0, [ip], #-1360	; 0x550
    3918:	00202150 	eoreq	r2, r0, r0, asr r1
    391c:	093c2600 	ldmdbeq	ip!, {r9, sl, sp}
    3920:	3a010000 	bcc	43928 <__bss_end__+0x399d8>
    3924:	00009224 	andeq	r9, r0, r4, lsr #4
    3928:	000000b0 	strheq	r0, [r0], -r0	; <UNPREDICTABLE>
    392c:	0c3d9c01 	ldceq	12, cr9, [sp], #-4
    3930:	34280000 	strtcc	r0, [r8], #-0
    3934:	bd000092 	stclt	0, cr0, [r0, #-584]	; 0xfffffdb8
    3938:	2c00000c 	stccs	0, cr0, [r0], {12}
    393c:	2900000b 	stmdbcs	r0, {r0, r1, r3}
    3940:	3e015001 	cdpcc	0, 0, cr5, cr1, cr1, {0}
    3944:	01510129 	cmpeq	r1, r9, lsr #2
    3948:	40280032 	eormi	r0, r8, r2, lsr r0
    394c:	bd000092 	stclt	0, cr0, [r0, #-584]	; 0xfffffdb8
    3950:	4400000c 	strmi	r0, [r0], #-12
    3954:	2900000b 	stmdbcs	r0, {r0, r1, r3}
    3958:	3f015001 	svccc	0x00015001
    395c:	01510129 	cmpeq	r1, r9, lsr #2
    3960:	44250032 	strtmi	r0, [r5], #-50	; 0x32
    3964:	9c000092 	stcls	0, cr0, [r0], {146}	; 0x92
    3968:	2800000c 	stmdacs	r0, {r2, r3}
    396c:	00009250 	andeq	r9, r0, r0, asr r2
    3970:	00000c3d 	andeq	r0, r0, sp, lsr ip
    3974:	00000b69 	andeq	r0, r0, r9, ror #22
    3978:	05500129 	ldrbeq	r0, [r0, #-297]	; 0x129
    397c:	2150040c 	cmpcs	r0, ip, lsl #8
    3980:	51012920 	tstpl	r1, r0, lsr #18
    3984:	25003101 	strcs	r3, [r0, #-257]	; 0x101
    3988:	00009254 	andeq	r9, r0, r4, asr r2
    398c:	00000c9c 	muleq	r0, ip, ip
    3990:	00926428 	addseq	r6, r2, r8, lsr #8
    3994:	000ca700 	andeq	sl, ip, r0, lsl #14
    3998:	000b8b00 	andeq	r8, fp, r0, lsl #22
    399c:	50012900 	andpl	r2, r1, r0, lsl #18
    39a0:	29007402 	stmdbcs	r0, {r1, sl, ip, sp, lr}
    39a4:	30015101 	andcc	r5, r1, r1, lsl #2
    39a8:	92702800 	rsbsls	r2, r0, #0, 16
    39ac:	0ca70000 	stceq	0, cr0, [r7]
    39b0:	0ba70000 	bleq	fe9c39b8 <__bss_end__+0xfe9b9a68>
    39b4:	01290000 	teqeq	r9, r0
    39b8:	440c0550 	strmi	r0, [ip], #-1360	; 0x550
    39bc:	29202150 	stmdbcs	r0!, {r4, r6, r8, sp}
    39c0:	30015101 	andcc	r5, r1, r1, lsl #2
    39c4:	927c2800 	rsbsls	r2, ip, #0, 16
    39c8:	0ca70000 	stceq	0, cr0, [r7]
    39cc:	0bc30000 	bleq	ff0c39d4 <__bss_end__+0xff0b9a84>
    39d0:	01290000 	teqeq	r9, r0
    39d4:	4c0c0550 	cfstr32mi	mvfx0, [ip], {80}	; 0x50
    39d8:	29202150 	stmdbcs	r0!, {r4, r6, r8, sp}
    39dc:	33015101 	movwcc	r5, #4353	; 0x1101
    39e0:	92882800 	addls	r2, r8, #0, 16
    39e4:	0ca70000 	stceq	0, cr0, [r7]
    39e8:	0bdf0000 	bleq	ff7c39f0 <__bss_end__+0xff7b9aa0>
    39ec:	01290000 	teqeq	r9, r0
    39f0:	500c0550 	andpl	r0, ip, r0, asr r5
    39f4:	29202150 	stmdbcs	r0!, {r4, r6, r8, sp}
    39f8:	30015101 	andcc	r5, r1, r1, lsl #2
    39fc:	92942800 	addsls	r2, r4, #0, 16
    3a00:	0ca70000 	stceq	0, cr0, [r7]
    3a04:	0bfc0000 	bleq	fff03a0c <__bss_end__+0xffef9abc>
    3a08:	01290000 	teqeq	r9, r0
    3a0c:	480c0550 	stmdami	ip, {r4, r6, r8, sl}
    3a10:	29202150 	stmdbcs	r0!, {r4, r6, r8, sp}
    3a14:	08025101 	stmdaeq	r2, {r0, r8, ip, lr}
    3a18:	a02800c7 	eorge	r0, r8, r7, asr #1
    3a1c:	a7000092 			; <UNDEFINED> instruction: 0xa7000092
    3a20:	1a00000c 	bne	3a58 <__code_start__-0x45a8>
    3a24:	2900000c 	stmdbcs	r0, {r2, r3}
    3a28:	0c055001 	stceq	0, cr5, [r5], {1}
    3a2c:	20215068 	eorcs	r5, r1, r8, rrx
    3a30:	03510129 	cmpeq	r1, #1073741834	; 0x4000000a
    3a34:	00010e0a 	andeq	r0, r1, sl, lsl #28
    3a38:	0092ac28 	addseq	sl, r2, r8, lsr #24
    3a3c:	000ca700 	andeq	sl, ip, r0, lsl #14
    3a40:	000c3300 	andeq	r3, ip, r0, lsl #6
    3a44:	50012900 	andpl	r2, r1, r0, lsl #18
    3a48:	29007402 	stmdbcs	r0, {r1, sl, ip, sp, lr}
    3a4c:	33015101 	movwcc	r5, #4353	; 0x1101
    3a50:	92b02500 	adcsls	r2, r0, #0, 10
    3a54:	0c9c0000 	ldceq	0, cr0, [ip], {0}
    3a58:	2c000000 	stccs	0, cr0, [r0], {-0}
    3a5c:	00000dce 	andeq	r0, r0, lr, asr #27
    3a60:	92042d01 	andls	r2, r4, #1, 26	; 0x40
    3a64:	00200000 	eoreq	r0, r0, r0
    3a68:	9c010000 	stcls	0, cr0, [r1], {-0}
    3a6c:	00000c95 	muleq	r0, r5, ip
    3a70:	0003d72d 	andeq	sp, r3, sp, lsr #14
    3a74:	952d0100 	strls	r0, [sp, #-256]!	; 0x100
    3a78:	5900000c 	stmdbpl	r0, {r2, r3}
    3a7c:	2700000d 	strcs	r0, [r0, -sp]
    3a80:	006c6176 	rsbeq	r6, ip, r6, ror r1
    3a84:	002c2d01 	eoreq	r2, ip, r1, lsl #26
    3a88:	0d770000 	ldcleq	0, cr0, [r7, #-0]
    3a8c:	14280000 	strtne	r0, [r8], #-0
    3a90:	b2000092 	andlt	r0, r0, #146	; 0x92
    3a94:	8400000c 	strhi	r0, [r0], #-12
    3a98:	2900000c 	stmdbcs	r0, {r2, r3}
    3a9c:	74025001 	strvc	r5, [r2], #-1
    3aa0:	202b0000 	eorcs	r0, fp, r0
    3aa4:	a7000092 			; <UNDEFINED> instruction: 0xa7000092
    3aa8:	2900000c 	stmdbcs	r0, {r2, r3}
    3aac:	74025001 	strvc	r5, [r2], #-1
    3ab0:	0e000000 	cdpeq	0, 0, cr0, cr0, cr0, {0}
    3ab4:	000c9b04 	andeq	r9, ip, r4, lsl #22
    3ab8:	f22f2e00 			; <UNDEFINED> instruction: 0xf22f2e00
    3abc:	f2000007 	vhadd.s8	d0, d0, d7
    3ac0:	06000007 	streq	r0, [r0], -r7
    3ac4:	0cad2f89 	stceq	15, cr2, [sp], #548	; 0x224
    3ac8:	0cad0000 	stceq	0, cr0, [sp]
    3acc:	9c060000 	stcls	0, cr0, [r6], {-0}
    3ad0:	000db02f 	andeq	fp, sp, pc, lsr #32
    3ad4:	000db000 	andeq	fp, sp, r0
    3ad8:	2fa80600 	svccs	0x00a80600
    3adc:	00000b7d 	andeq	r0, r0, sp, ror fp
    3ae0:	00000b7d 	andeq	r0, r0, sp, ror fp
    3ae4:	70001908 	andvc	r1, r0, r8, lsl #18
    3ae8:	0400000b 	streq	r0, [r0], #-11
    3aec:	00141800 	andseq	r1, r4, r0, lsl #16
    3af0:	b3010400 	movwlt	r0, #5120	; 0x1400
    3af4:	0c00000c 	stceq	0, cr0, [r0], {12}
    3af8:	00000e83 	andeq	r0, r0, r3, lsl #29
    3afc:	00000a31 	andeq	r0, r0, r1, lsr sl
    3b00:	0000937c 	andeq	r9, r0, ip, ror r3
    3b04:	00000120 	andeq	r0, r0, r0, lsr #2
    3b08:	00000ff6 	strdeq	r0, [r0], -r6
    3b0c:	69050402 	stmdbvs	r5, {r1, sl}
    3b10:	0300746e 	movweq	r7, #1134	; 0x46e
    3b14:	01cc0704 	biceq	r0, ip, r4, lsl #14
    3b18:	2c040000 	stccs	0, cr0, [r4], {-0}
    3b1c:	03000000 	movweq	r0, #0
    3b20:	00e40601 	rsceq	r0, r4, r1, lsl #12
    3b24:	02030000 	andeq	r0, r3, #0
    3b28:	00022005 	andeq	r2, r2, r5
    3b2c:	05040300 	streq	r0, [r4, #-768]	; 0x300
    3b30:	00000200 	andeq	r0, r0, r0, lsl #4
    3b34:	fb050803 	blx	145b4a <__bss_end__+0x13bbfa>
    3b38:	03000001 	movweq	r0, #1
    3b3c:	00e20801 	rsceq	r0, r2, r1, lsl #16
    3b40:	02030000 	andeq	r0, r3, #0
    3b44:	00004b07 	andeq	r4, r0, r7, lsl #22
    3b48:	07040300 	streq	r0, [r4, -r0, lsl #6]
    3b4c:	000001c7 	andeq	r0, r0, r7, asr #3
    3b50:	c2070803 	andgt	r0, r7, #196608	; 0x30000
    3b54:	05000001 	streq	r0, [r0, #-1]
    3b58:	00000bc8 	andeq	r0, r0, r8, asr #23
    3b5c:	00250702 	eoreq	r0, r5, r2, lsl #14
    3b60:	b2050000 	andlt	r0, r5, #0
    3b64:	0300000b 	movweq	r0, #11
    3b68:	0000462c 	andeq	r4, r0, ip, lsr #12
    3b6c:	0c8e0500 	cfstr32eq	mvfx0, [lr], {0}
    3b70:	72030000 	andvc	r0, r3, #0
    3b74:	00000046 	andeq	r0, r0, r6, asr #32
    3b78:	000b5606 	andeq	r5, fp, r6, lsl #12
    3b7c:	01650400 	cmneq	r5, r0, lsl #8
    3b80:	0000002c 	andeq	r0, r0, ip, lsr #32
    3b84:	a6030407 	strge	r0, [r3], -r7, lsl #8
    3b88:	000000bc 	strheq	r0, [r0], -ip
    3b8c:	000b4108 	andeq	r4, fp, r8, lsl #2
    3b90:	91a80300 			; <UNDEFINED> instruction: 0x91a80300
    3b94:	08000000 	stmdaeq	r0, {}	; <UNPREDICTABLE>
    3b98:	00000ae9 	andeq	r0, r0, r9, ror #21
    3b9c:	00bca903 	adcseq	sl, ip, r3, lsl #18
    3ba0:	09000000 	stmdbeq	r0, {}	; <UNPREDICTABLE>
    3ba4:	00000054 	andeq	r0, r0, r4, asr r0
    3ba8:	000000cc 	andeq	r0, r0, ip, asr #1
    3bac:	0000cc0a 	andeq	ip, r0, sl, lsl #24
    3bb0:	03000300 	movweq	r0, #768	; 0x300
    3bb4:	01e80704 	mvneq	r0, r4, lsl #14
    3bb8:	080b0000 	stmdaeq	fp, {}	; <UNPREDICTABLE>
    3bbc:	00f4a303 	rscseq	sl, r4, r3, lsl #6
    3bc0:	730c0000 	movwvc	r0, #49152	; 0xc000
    3bc4:	0300000c 	movweq	r0, #12
    3bc8:	000025a5 	andeq	r2, r0, r5, lsr #11
    3bcc:	7b0c0000 	blvc	303bd4 <__bss_end__+0x2f9c84>
    3bd0:	0300000c 	movweq	r0, #12
    3bd4:	00009daa 	andeq	r9, r0, sl, lsr #27
    3bd8:	05000400 	streq	r0, [r0, #-1024]	; 0x400
    3bdc:	00000c06 	andeq	r0, r0, r6, lsl #24
    3be0:	00d3ab03 	sbcseq	sl, r3, r3, lsl #22
    3be4:	b2050000 	andlt	r0, r5, #0
    3be8:	0300000a 	movweq	r0, #10
    3bec:	000070af 	andeq	r7, r0, pc, lsr #1
    3bf0:	0e040d00 	cdpeq	13, 0, cr0, cr4, cr0, {0}
    3bf4:	00011204 	andeq	r1, r1, r4, lsl #4
    3bf8:	08010300 	stmdaeq	r1, {r8, r9}
    3bfc:	000000eb 	andeq	r0, r0, fp, ror #1
    3c00:	00011204 	andeq	r1, r1, r4, lsl #4
    3c04:	0d300500 	cfldr32eq	mvfx0, [r0, #-0]
    3c08:	16050000 	strne	r0, [r5], -r0
    3c0c:	00000062 	andeq	r0, r0, r2, rrx
    3c10:	000ac30f 	andeq	ip, sl, pc, lsl #6
    3c14:	2d051800 	stccs	8, cr1, [r5, #-0]
    3c18:	0000017c 	andeq	r0, r0, ip, ror r1
    3c1c:	000c270c 	andeq	r2, ip, ip, lsl #14
    3c20:	7c2f0500 	cfstr32vc	mvfx0, [pc], #-0	; 3c28 <__code_start__-0x43d8>
    3c24:	00000001 	andeq	r0, r0, r1
    3c28:	006b5f10 	rsbeq	r5, fp, r0, lsl pc
    3c2c:	00253005 	eoreq	r3, r5, r5
    3c30:	0c040000 	stceq	0, cr0, [r4], {-0}
    3c34:	00000c5e 	andeq	r0, r0, lr, asr ip
    3c38:	00253005 	eoreq	r3, r5, r5
    3c3c:	0c080000 	stceq	0, cr0, [r8], {-0}
    3c40:	00000a9e 	muleq	r0, lr, sl
    3c44:	00253005 	eoreq	r3, r5, r5
    3c48:	0c0c0000 	stceq	0, cr0, [ip], {-0}
    3c4c:	00000d77 	andeq	r0, r0, r7, ror sp
    3c50:	00253005 	eoreq	r3, r5, r5
    3c54:	10100000 	andsne	r0, r0, r0
    3c58:	0500785f 	streq	r7, [r0, #-2143]	; 0x85f
    3c5c:	00018231 	andeq	r8, r1, r1, lsr r2
    3c60:	0e001400 	cfcpyseq	mvf1, mvf0
    3c64:	00012904 	andeq	r2, r1, r4, lsl #18
    3c68:	011e0900 	tsteq	lr, r0, lsl #18
    3c6c:	01920000 	orrseq	r0, r2, r0
    3c70:	cc0a0000 	stcgt	0, cr0, [sl], {-0}
    3c74:	00000000 	andeq	r0, r0, r0
    3c78:	0ae40f00 	beq	ff907880 <__bss_end__+0xff8fd930>
    3c7c:	05240000 	streq	r0, [r4, #-0]!
    3c80:	00020b35 	andeq	r0, r2, r5, lsr fp
    3c84:	099c0c00 	ldmibeq	ip, {sl, fp}
    3c88:	37050000 	strcc	r0, [r5, -r0]
    3c8c:	00000025 	andeq	r0, r0, r5, lsr #32
    3c90:	0c960c00 	ldceq	12, cr0, [r6], {0}
    3c94:	38050000 	stmdacc	r5, {}	; <UNPREDICTABLE>
    3c98:	00000025 	andeq	r0, r0, r5, lsr #32
    3c9c:	09ca0c04 	stmibeq	sl, {r2, sl, fp}^
    3ca0:	39050000 	stmdbcc	r5, {}	; <UNPREDICTABLE>
    3ca4:	00000025 	andeq	r0, r0, r5, lsr #32
    3ca8:	0e670c08 	cdpeq	12, 6, cr0, cr7, cr8, {0}
    3cac:	3a050000 	bcc	143cb4 <__bss_end__+0x139d64>
    3cb0:	00000025 	andeq	r0, r0, r5, lsr #32
    3cb4:	0b960c0c 	bleq	fe586cec <__bss_end__+0xfe57cd9c>
    3cb8:	3b050000 	blcc	143cc0 <__bss_end__+0x139d70>
    3cbc:	00000025 	andeq	r0, r0, r5, lsr #32
    3cc0:	0b6b0c10 	bleq	1ac6d08 <__bss_end__+0x1abcdb8>
    3cc4:	3c050000 	stccc	0, cr0, [r5], {-0}
    3cc8:	00000025 	andeq	r0, r0, r5, lsr #32
    3ccc:	0d7c0c14 	ldcleq	12, cr0, [ip, #-80]!	; 0xffffffb0
    3cd0:	3d050000 	stccc	0, cr0, [r5, #-0]
    3cd4:	00000025 	andeq	r0, r0, r5, lsr #32
    3cd8:	0be80c18 	bleq	ffa06d40 <__bss_end__+0xff9fcdf0>
    3cdc:	3e050000 	cdpcc	0, 0, cr0, cr5, cr0, {0}
    3ce0:	00000025 	andeq	r0, r0, r5, lsr #32
    3ce4:	0e2e0c1c 	mcreq	12, 1, r0, cr14, cr12, {0}
    3ce8:	3f050000 	svccc	0x00050000
    3cec:	00000025 	andeq	r0, r0, r5, lsr #32
    3cf0:	d9110020 	ldmdble	r1, {r5}
    3cf4:	08000009 	stmdaeq	r0, {r0, r3}
    3cf8:	4b480501 	blmi	1205104 <__bss_end__+0x11fb1b4>
    3cfc:	0c000002 	stceq	0, cr0, [r0], {2}
    3d00:	00000a85 	andeq	r0, r0, r5, lsl #21
    3d04:	024b4905 	subeq	r4, fp, #81920	; 0x14000
    3d08:	0c000000 	stceq	0, cr0, [r0], {-0}
    3d0c:	00000917 	andeq	r0, r0, r7, lsl r9
    3d10:	024b4a05 	subeq	r4, fp, #20480	; 0x5000
    3d14:	12800000 	addne	r0, r0, #0
    3d18:	00000d22 	andeq	r0, r0, r2, lsr #26
    3d1c:	011e4c05 	tsteq	lr, r5, lsl #24
    3d20:	01000000 	mrseq	r0, (UNDEF: 0)
    3d24:	0009fe12 	andeq	pc, r9, r2, lsl lr	; <UNPREDICTABLE>
    3d28:	1e4f0500 	cdpne	5, 4, cr0, cr15, cr0, {0}
    3d2c:	04000001 	streq	r0, [r0], #-1
    3d30:	0a090001 	beq	243d3c <__bss_end__+0x239dec>
    3d34:	5b000001 	blpl	3d40 <__code_start__-0x42c0>
    3d38:	0a000002 	beq	3d48 <__code_start__-0x42b8>
    3d3c:	000000cc 	andeq	r0, r0, ip, asr #1
    3d40:	9f11001f 	svcls	0x0011001f
    3d44:	9000000b 	andls	r0, r0, fp
    3d48:	995b0501 	ldmdbls	fp, {r0, r8, sl}^
    3d4c:	0c000002 	stceq	0, cr0, [r0], {2}
    3d50:	00000c27 	andeq	r0, r0, r7, lsr #24
    3d54:	02995c05 	addseq	r5, r9, #1280	; 0x500
    3d58:	0c000000 	stceq	0, cr0, [r0], {-0}
    3d5c:	00000c3f 	andeq	r0, r0, pc, lsr ip
    3d60:	00255d05 	eoreq	r5, r5, r5, lsl #26
    3d64:	0c040000 	stceq	0, cr0, [r4], {-0}
    3d68:	00000a99 	muleq	r0, r9, sl
    3d6c:	029f5f05 	addseq	r5, pc, #5, 30
    3d70:	0c080000 	stceq	0, cr0, [r8], {-0}
    3d74:	000009d9 	ldrdeq	r0, [r0], -r9
    3d78:	020b6005 	andeq	r6, fp, #5
    3d7c:	00880000 	addeq	r0, r8, r0
    3d80:	025b040e 	subseq	r0, fp, #234881024	; 0xe000000
    3d84:	af090000 	svcge	0x00090000
    3d88:	af000002 	svcge	0x00000002
    3d8c:	0a000002 	beq	3d9c <__code_start__-0x4264>
    3d90:	000000cc 	andeq	r0, r0, ip, asr #1
    3d94:	040e001f 	streq	r0, [lr], #-31
    3d98:	000002b5 			; <UNDEFINED> instruction: 0x000002b5
    3d9c:	0bf20f13 	bleq	ffc879f0 <__bss_end__+0xffc7daa0>
    3da0:	05080000 	streq	r0, [r8, #-0]
    3da4:	0002db73 	andeq	sp, r2, r3, ror fp
    3da8:	09bf0c00 	ldmibeq	pc!, {sl, fp}	; <UNPREDICTABLE>
    3dac:	74050000 	strvc	r0, [r5], #-0
    3db0:	000002db 	ldrdeq	r0, [r0], -fp
    3db4:	09230c00 	stmdbeq	r3!, {sl, fp}
    3db8:	75050000 	strvc	r0, [r5, #-0]
    3dbc:	00000025 	andeq	r0, r0, r5, lsr #32
    3dc0:	040e0004 	streq	r0, [lr], #-4
    3dc4:	00000054 	andeq	r0, r0, r4, asr r0
    3dc8:	000c110f 	andeq	r1, ip, pc, lsl #2
    3dcc:	b3056800 	movwlt	r6, #22528	; 0x5800
    3dd0:	0000040b 	andeq	r0, r0, fp, lsl #8
    3dd4:	00705f10 	rsbseq	r5, r0, r0, lsl pc
    3dd8:	02dbb405 	sbcseq	fp, fp, #83886080	; 0x5000000
    3ddc:	10000000 	andne	r0, r0, r0
    3de0:	0500725f 	streq	r7, [r0, #-607]	; 0x25f
    3de4:	000025b5 			; <UNDEFINED> instruction: 0x000025b5
    3de8:	5f100400 	svcpl	0x00100400
    3dec:	b6050077 			; <UNDEFINED> instruction: 0xb6050077
    3df0:	00000025 	andeq	r0, r0, r5, lsr #32
    3df4:	09f70c08 	ldmibeq	r7!, {r3, sl, fp}^
    3df8:	b7050000 	strlt	r0, [r5, -r0]
    3dfc:	0000003f 	andeq	r0, r0, pc, lsr r0
    3e00:	0b0a0c0c 	bleq	286e38 <__bss_end__+0x27cee8>
    3e04:	b8050000 	stmdalt	r5, {}	; <UNPREDICTABLE>
    3e08:	0000003f 	andeq	r0, r0, pc, lsr r0
    3e0c:	625f100e 	subsvs	r1, pc, #14
    3e10:	b9050066 	stmdblt	r5, {r1, r2, r5, r6}
    3e14:	000002b6 			; <UNDEFINED> instruction: 0x000002b6
    3e18:	09660c10 	stmdbeq	r6!, {r4, sl, fp}^
    3e1c:	ba050000 	blt	143e24 <__bss_end__+0x139ed4>
    3e20:	00000025 	andeq	r0, r0, r5, lsr #32
    3e24:	09e70c18 	stmibeq	r7!, {r3, r4, sl, fp}^
    3e28:	c1050000 	mrsgt	r0, (UNDEF: 5)
    3e2c:	0000010a 	andeq	r0, r0, sl, lsl #2
    3e30:	0e8e0c1c 	mcreq	12, 4, r0, cr14, cr12, {0}
    3e34:	c3050000 	movwgt	r0, #20480	; 0x5000
    3e38:	00000566 	andeq	r0, r0, r6, ror #10
    3e3c:	0ea80c20 	cdpeq	12, 10, cr0, cr8, cr0, {1}
    3e40:	c5050000 	strgt	r0, [r5, #-0]
    3e44:	00000590 	muleq	r0, r0, r5
    3e48:	0c830c24 	stceq	12, cr0, [r3], {36}	; 0x24
    3e4c:	c8050000 	stmdagt	r5, {}	; <UNPREDICTABLE>
    3e50:	000005b4 			; <UNDEFINED> instruction: 0x000005b4
    3e54:	0e480c28 	cdpeq	12, 4, cr0, cr8, cr8, {1}
    3e58:	c9050000 	stmdbgt	r5, {}	; <UNPREDICTABLE>
    3e5c:	000005ce 	andeq	r0, r0, lr, asr #11
    3e60:	755f102c 	ldrbvc	r1, [pc, #-44]	; 3e3c <__code_start__-0x41c4>
    3e64:	cc050062 	stcgt	0, cr0, [r5], {98}	; 0x62
    3e68:	000002b6 			; <UNDEFINED> instruction: 0x000002b6
    3e6c:	755f1030 	ldrbvc	r1, [pc, #-48]	; 3e44 <__code_start__-0x41bc>
    3e70:	cd050070 	stcgt	0, cr0, [r5, #-448]	; 0xfffffe40
    3e74:	000002db 	ldrdeq	r0, [r0], -fp
    3e78:	755f1038 	ldrbvc	r1, [pc, #-56]	; 3e48 <__code_start__-0x41b8>
    3e7c:	ce050072 	mcrgt	0, 0, r0, cr5, cr2, {3}
    3e80:	00000025 	andeq	r0, r0, r5, lsr #32
    3e84:	09aa0c3c 	stmibeq	sl!, {r2, r3, r4, r5, sl, fp}
    3e88:	d1050000 	mrsle	r0, (UNDEF: 5)
    3e8c:	000005d4 	ldrdeq	r0, [r0], -r4
    3e90:	0df30c40 	ldcleq	12, cr0, [r3, #256]!	; 0x100
    3e94:	d2050000 	andle	r0, r5, #0
    3e98:	000005e4 	andeq	r0, r0, r4, ror #11
    3e9c:	6c5f1043 	mrrcvs	0, 4, r1, pc, cr3	; <UNPREDICTABLE>
    3ea0:	d5050062 	strle	r0, [r5, #-98]	; 0x62
    3ea4:	000002b6 			; <UNDEFINED> instruction: 0x000002b6
    3ea8:	0a0d0c44 	beq	346fc0 <__bss_end__+0x33d070>
    3eac:	d8050000 	stmdale	r5, {}	; <UNPREDICTABLE>
    3eb0:	00000025 	andeq	r0, r0, r5, lsr #32
    3eb4:	0b750c4c 	bleq	1d46fec <__bss_end__+0x1d3d09c>
    3eb8:	d9050000 	stmdble	r5, {}	; <UNPREDICTABLE>
    3ebc:	0000007b 	andeq	r0, r0, fp, ror r0
    3ec0:	0dde0c50 	ldcleq	12, cr0, [lr, #320]	; 0x140
    3ec4:	dc050000 	stcle	0, cr0, [r5], {-0}
    3ec8:	00000429 	andeq	r0, r0, r9, lsr #8
    3ecc:	0b5d0c54 	bleq	1747024 <__bss_end__+0x173d0d4>
    3ed0:	e0050000 	and	r0, r5, r0
    3ed4:	000000ff 	strdeq	r0, [r0], -pc	; <UNPREDICTABLE>
    3ed8:	0c190c58 	ldceq	12, cr0, [r9], {88}	; 0x58
    3edc:	e2050000 	and	r0, r5, #0
    3ee0:	000000f4 	strdeq	r0, [r0], -r4
    3ee4:	0b630c5c 	bleq	18c705c <__bss_end__+0x18bd10c>
    3ee8:	e3050000 	movw	r0, #20480	; 0x5000
    3eec:	00000025 	andeq	r0, r0, r5, lsr #32
    3ef0:	25140064 	ldrcs	r0, [r4, #-100]	; 0x64
    3ef4:	29000000 	stmdbcs	r0, {}	; <UNPREDICTABLE>
    3ef8:	15000004 	strne	r0, [r0, #-4]
    3efc:	00000429 	andeq	r0, r0, r9, lsr #8
    3f00:	00010a15 	andeq	r0, r1, r5, lsl sl
    3f04:	010c1500 	tsteq	ip, r0, lsl #10
    3f08:	25150000 	ldrcs	r0, [r5, #-0]
    3f0c:	00000000 	andeq	r0, r0, r0
    3f10:	0434040e 	ldrteq	r0, [r4], #-1038	; 0x40e
    3f14:	29040000 	stmdbcs	r4, {}	; <UNPREDICTABLE>
    3f18:	16000004 	strne	r0, [r0], -r4
    3f1c:	00000c66 	andeq	r0, r0, r6, ror #24
    3f20:	38050428 	stmdacc	r5, {r3, r5, sl}
    3f24:	00056602 	andeq	r6, r5, r2, lsl #12
    3f28:	0be11700 	bleq	ff849b30 <__bss_end__+0xff83fbe0>
    3f2c:	3a050000 	bcc	143f34 <__bss_end__+0x139fe4>
    3f30:	00002502 	andeq	r2, r0, r2, lsl #10
    3f34:	06170000 	ldreq	r0, [r7], -r0
    3f38:	0500000a 	streq	r0, [r0, #-10]
    3f3c:	063b023f 			; <UNDEFINED> instruction: 0x063b023f
    3f40:	17040000 	strne	r0, [r4, -r0]
    3f44:	00000afa 	strdeq	r0, [r0], -sl
    3f48:	3b023f05 	blcc	93b64 <__bss_end__+0x89c14>
    3f4c:	08000006 	stmdaeq	r0, {r1, r2}
    3f50:	000abb17 	andeq	fp, sl, r7, lsl fp
    3f54:	023f0500 	eorseq	r0, pc, #0, 10
    3f58:	0000063b 	andeq	r0, r0, fp, lsr r6
    3f5c:	0c3a170c 	ldceq	7, cr1, [sl], #-48	; 0xffffffd0
    3f60:	41050000 	mrsmi	r0, (UNDEF: 5)
    3f64:	00002502 	andeq	r2, r0, r2, lsl #10
    3f68:	31171000 	tstcc	r7, r0
    3f6c:	05000009 	streq	r0, [r0, #-9]
    3f70:	081d0242 	ldmdaeq	sp, {r1, r6, r9}
    3f74:	17140000 	ldrne	r0, [r4, -r0]
    3f78:	00000d58 	andeq	r0, r0, r8, asr sp
    3f7c:	25024405 	strcs	r4, [r2, #-1029]	; 0x405
    3f80:	30000000 	andcc	r0, r0, r0
    3f84:	000c4417 	andeq	r4, ip, r7, lsl r4
    3f88:	02450500 	subeq	r0, r5, #0, 10
    3f8c:	0000058a 	andeq	r0, r0, sl, lsl #11
    3f90:	0ba71734 	bleq	fe9c9c68 <__bss_end__+0xfe9bfd18>
    3f94:	47050000 	strmi	r0, [r5, -r0]
    3f98:	00002502 	andeq	r2, r0, r2, lsl #10
    3f9c:	54173800 	ldrpl	r3, [r7], #-2048	; 0x800
    3fa0:	0500000c 	streq	r0, [r0, #-12]
    3fa4:	08380249 	ldmdaeq	r8!, {r0, r3, r6, r9}
    3fa8:	173c0000 	ldrne	r0, [ip, -r0]!
    3fac:	00000b39 	andeq	r0, r0, r9, lsr fp
    3fb0:	7c024c05 	stcvc	12, cr4, [r2], {5}
    3fb4:	40000001 	andmi	r0, r0, r1
    3fb8:	000ada17 	andeq	sp, sl, r7, lsl sl
    3fbc:	024d0500 	subeq	r0, sp, #0, 10
    3fc0:	00000025 	andeq	r0, r0, r5, lsr #32
    3fc4:	0e621744 	cdpeq	7, 6, cr1, cr2, cr4, {2}
    3fc8:	4e050000 	cdpmi	0, 0, cr0, cr5, cr0, {0}
    3fcc:	00017c02 	andeq	r7, r1, r2, lsl #24
    3fd0:	be174800 	cdplt	8, 1, cr4, cr7, cr0, {0}
    3fd4:	0500000b 	streq	r0, [r0, #-11]
    3fd8:	083e024f 	ldmdaeq	lr!, {r0, r1, r2, r3, r6, r9}
    3fdc:	174c0000 	strbne	r0, [ip, -r0]
    3fe0:	00000b02 	andeq	r0, r0, r2, lsl #22
    3fe4:	25025205 	strcs	r5, [r2, #-517]	; 0x205
    3fe8:	50000000 	andpl	r0, r0, r0
    3fec:	000a2917 	andeq	r2, sl, r7, lsl r9
    3ff0:	02530500 	subseq	r0, r3, #0, 10
    3ff4:	0000010c 	andeq	r0, r0, ip, lsl #2
    3ff8:	0bda1754 	bleq	ff689d50 <__bss_end__+0xff67fe00>
    3ffc:	76050000 	strvc	r0, [r5], -r0
    4000:	0007fb02 	andeq	pc, r7, r2, lsl #22
    4004:	9f185800 	svcls	0x00185800
    4008:	0500000b 	streq	r0, [r0, #-11]
    400c:	0299027a 	addseq	r0, r9, #-1610612729	; 0xa0000007
    4010:	01480000 	mrseq	r0, (UNDEF: 72)
    4014:	000b1718 	andeq	r1, fp, r8, lsl r7
    4018:	027b0500 	rsbseq	r0, fp, #0, 10
    401c:	0000025b 	andeq	r0, r0, fp, asr r2
    4020:	c418014c 	ldrgt	r0, [r8], #-332	; 0x14c
    4024:	0500000d 	streq	r0, [r0, #-13]
    4028:	084f027f 	stmdaeq	pc, {r0, r1, r2, r3, r4, r5, r6, r9}^	; <UNPREDICTABLE>
    402c:	02dc0000 	sbcseq	r0, ip, #0
    4030:	0009ef18 	andeq	lr, r9, r8, lsl pc
    4034:	02840500 	addeq	r0, r4, #0, 10
    4038:	00000600 	andeq	r0, r0, r0, lsl #12
    403c:	d41802e0 	ldrle	r0, [r8], #-736	; 0x2e0
    4040:	05000009 	streq	r0, [r0, #-9]
    4044:	085b0285 	ldmdaeq	fp, {r0, r2, r7, r9}^
    4048:	02ec0000 	rsceq	r0, ip, #0
    404c:	0b040e00 	bleq	107854 <__bss_end__+0xfd904>
    4050:	14000004 	strne	r0, [r0], #-4
    4054:	00000025 	andeq	r0, r0, r5, lsr #32
    4058:	0000058a 	andeq	r0, r0, sl, lsl #11
    405c:	00042915 	andeq	r2, r4, r5, lsl r9
    4060:	010a1500 	tsteq	sl, r0, lsl #10
    4064:	8a150000 	bhi	54406c <__bss_end__+0x53a11c>
    4068:	15000005 	strne	r0, [r0, #-5]
    406c:	00000025 	andeq	r0, r0, r5, lsr #32
    4070:	19040e00 	stmdbne	r4, {r9, sl, fp}
    4074:	0e000001 	cdpeq	0, 0, cr0, cr0, cr1, {0}
    4078:	00056c04 	andeq	r6, r5, r4, lsl #24
    407c:	00861400 	addeq	r1, r6, r0, lsl #8
    4080:	05b40000 	ldreq	r0, [r4, #0]!
    4084:	29150000 	ldmdbcs	r5, {}	; <UNPREDICTABLE>
    4088:	15000004 	strne	r0, [r0, #-4]
    408c:	0000010a 	andeq	r0, r0, sl, lsl #2
    4090:	00008615 	andeq	r8, r0, r5, lsl r6
    4094:	00251500 	eoreq	r1, r5, r0, lsl #10
    4098:	0e000000 	cdpeq	0, 0, cr0, cr0, cr0, {0}
    409c:	00059604 	andeq	r9, r5, r4, lsl #12
    40a0:	00251400 	eoreq	r1, r5, r0, lsl #8
    40a4:	05ce0000 	strbeq	r0, [lr]
    40a8:	29150000 	ldmdbcs	r5, {}	; <UNPREDICTABLE>
    40ac:	15000004 	strne	r0, [r0, #-4]
    40b0:	0000010a 	andeq	r0, r0, sl, lsl #2
    40b4:	ba040e00 	blt	1078bc <__bss_end__+0xfd96c>
    40b8:	09000005 	stmdbeq	r0, {r0, r2}
    40bc:	00000054 	andeq	r0, r0, r4, asr r0
    40c0:	000005e4 	andeq	r0, r0, r4, ror #11
    40c4:	0000cc0a 	andeq	ip, r0, sl, lsl #24
    40c8:	09000200 	stmdbeq	r0, {r9}
    40cc:	00000054 	andeq	r0, r0, r4, asr r0
    40d0:	000005f4 	strdeq	r0, [r0], -r4
    40d4:	0000cc0a 	andeq	ip, r0, sl, lsl #24
    40d8:	06000000 	streq	r0, [r0], -r0
    40dc:	00000bff 	strdeq	r0, [r0], -pc	; <UNPREDICTABLE>
    40e0:	e1011d05 	tst	r1, r5, lsl #26
    40e4:	19000002 	stmdbne	r0, {r1}
    40e8:	00000d86 	andeq	r0, r0, r6, lsl #27
    40ec:	0121050c 	teqeq	r1, ip, lsl #10
    40f0:	00000635 	andeq	r0, r0, r5, lsr r6
    40f4:	000c2717 	andeq	r2, ip, r7, lsl r7
    40f8:	01230500 	teqeq	r3, r0, lsl #10
    40fc:	00000635 	andeq	r0, r0, r5, lsr r6
    4100:	0b101700 	bleq	409d08 <__bss_end__+0x3ffdb8>
    4104:	24050000 	strcs	r0, [r5], #-0
    4108:	00002501 	andeq	r2, r0, r1, lsl #10
    410c:	f9170400 			; <UNDEFINED> instruction: 0xf9170400
    4110:	0500000b 	streq	r0, [r0, #-11]
    4114:	063b0125 	ldrteq	r0, [fp], -r5, lsr #2
    4118:	00080000 	andeq	r0, r8, r0
    411c:	0600040e 	streq	r0, [r0], -lr, lsl #8
    4120:	040e0000 	streq	r0, [lr], #-0
    4124:	000005f4 	strdeq	r0, [r0], -r4
    4128:	00092919 	andeq	r2, r9, r9, lsl r9
    412c:	3d050e00 	stccc	14, cr0, [r5, #-0]
    4130:	00067601 	andeq	r7, r6, r1, lsl #12
    4134:	0c6d1700 	stcleq	7, cr1, [sp], #-0
    4138:	3e050000 	cdpcc	0, 0, cr0, cr5, cr0, {0}
    413c:	00067601 	andeq	r7, r6, r1, lsl #12
    4140:	a7170000 	ldrge	r0, [r7, -r0]
    4144:	0500000c 	streq	r0, [r0, #-12]
    4148:	0676013f 			; <UNDEFINED> instruction: 0x0676013f
    414c:	17060000 	strne	r0, [r6, -r0]
    4150:	00000d2b 	andeq	r0, r0, fp, lsr #26
    4154:	5b014005 	blpl	54170 <__bss_end__+0x4a220>
    4158:	0c000000 	stceq	0, cr0, [r0], {-0}
    415c:	005b0900 	subseq	r0, fp, r0, lsl #18
    4160:	06860000 	streq	r0, [r6], r0
    4164:	cc0a0000 	stcgt	0, cr0, [sl], {-0}
    4168:	02000000 	andeq	r0, r0, #0
    416c:	05d01a00 	ldrbeq	r1, [r0, #2560]	; 0xa00
    4170:	07870257 			; <UNDEFINED> instruction: 0x07870257
    4174:	6a170000 	bvs	5c417c <__bss_end__+0x5ba22c>
    4178:	0500000d 	streq	r0, [r0, #-13]
    417c:	002c0259 	eoreq	r0, ip, r9, asr r2
    4180:	17000000 	strne	r0, [r0, -r0]
    4184:	00000d15 	andeq	r0, r0, r5, lsl sp
    4188:	0c025a05 	stceq	10, cr5, [r2], {5}
    418c:	04000001 	streq	r0, [r0], #-1
    4190:	000b2c17 	andeq	r2, fp, r7, lsl ip
    4194:	025b0500 	subseq	r0, fp, #0, 10
    4198:	00000787 	andeq	r0, r0, r7, lsl #15
    419c:	0e391708 	cdpeq	7, 3, cr1, cr9, cr8, {0}
    41a0:	5c050000 	stcpl	0, cr0, [r5], {-0}
    41a4:	00019202 	andeq	r9, r1, r2, lsl #4
    41a8:	cb172400 	blgt	5cd1b0 <__bss_end__+0x5c3260>
    41ac:	0500000a 	streq	r0, [r0, #-10]
    41b0:	0025025d 	eoreq	r0, r5, sp, asr r2
    41b4:	17480000 	strbne	r0, [r8, -r0]
    41b8:	00000c22 	andeq	r0, r0, r2, lsr #24
    41bc:	69025e05 	stmdbvs	r2, {r0, r2, r9, sl, fp, ip, lr}
    41c0:	50000000 	andpl	r0, r0, r0
    41c4:	000e4f17 	andeq	r4, lr, r7, lsl pc
    41c8:	025f0500 	subseq	r0, pc, #0, 10
    41cc:	00000641 	andeq	r0, r0, r1, asr #12
    41d0:	0c2d1758 	stceq	7, cr1, [sp], #-352	; 0xfffffea0
    41d4:	60050000 	andvs	r0, r5, r0
    41d8:	0000f402 	andeq	pc, r0, r2, lsl #8
    41dc:	54176800 	ldrpl	r6, [r7], #-2048	; 0x800
    41e0:	0500000e 	streq	r0, [r0, #-14]
    41e4:	00f40261 	rscseq	r0, r4, r1, ror #4
    41e8:	17700000 	ldrbne	r0, [r0, -r0]!
    41ec:	0000098e 	andeq	r0, r0, lr, lsl #19
    41f0:	f4026205 	vst1.8	{d6-d9}, [r2], r5
    41f4:	78000000 	stmdavc	r0, {}	; <UNPREDICTABLE>
    41f8:	000da617 	andeq	sl, sp, r7, lsl r6
    41fc:	02630500 	rsbeq	r0, r3, #0, 10
    4200:	00000797 	muleq	r0, r7, r7
    4204:	0b201780 	bleq	80a00c <__bss_end__+0x8000bc>
    4208:	64050000 	strvs	r0, [r5], #-0
    420c:	0007a702 	andeq	sl, r7, r2, lsl #14
    4210:	38178800 	ldmdacc	r7, {fp, pc}
    4214:	0500000d 	streq	r0, [r0, #-13]
    4218:	00250265 	eoreq	r0, r5, r5, ror #4
    421c:	17a00000 	strne	r0, [r0, r0]!
    4220:	00000a77 	andeq	r0, r0, r7, ror sl
    4224:	f4026605 	vst1.8	{d6-d8}, [r2], r5
    4228:	a4000000 	strge	r0, [r0], #-0
    422c:	00097f17 	andeq	r7, r9, r7, lsl pc
    4230:	02670500 	rsbeq	r0, r7, #0, 10
    4234:	000000f4 	strdeq	r0, [r0], -r4
    4238:	0a6617ac 	beq	198a0f0 <__bss_end__+0x19801a0>
    423c:	68050000 	stmdavs	r5, {}	; <UNPREDICTABLE>
    4240:	0000f402 	andeq	pc, r0, r2, lsl #8
    4244:	4617b400 	ldrmi	fp, [r7], -r0, lsl #8
    4248:	05000009 	streq	r0, [r0, #-9]
    424c:	00f40269 	rscseq	r0, r4, r9, ror #4
    4250:	17bc0000 	ldrne	r0, [ip, r0]!
    4254:	00000955 	andeq	r0, r0, r5, asr r9
    4258:	f4026a05 	vst1.8	{d6-d7}, [r2], r5
    425c:	c4000000 	strgt	r0, [r0], #-0
    4260:	000bdf17 	andeq	sp, fp, r7, lsl pc
    4264:	026b0500 	rsbeq	r0, fp, #0, 10
    4268:	00000025 	andeq	r0, r0, r5, lsr #32
    426c:	120900cc 	andne	r0, r9, #204	; 0xcc
    4270:	97000001 	strls	r0, [r0, -r1]
    4274:	0a000007 	beq	4298 <__code_start__-0x3d68>
    4278:	000000cc 	andeq	r0, r0, ip, asr #1
    427c:	12090019 	andne	r0, r9, #25
    4280:	a7000001 	strge	r0, [r0, -r1]
    4284:	0a000007 	beq	42a8 <__code_start__-0x3d58>
    4288:	000000cc 	andeq	r0, r0, ip, asr #1
    428c:	12090007 	andne	r0, r9, #7
    4290:	b7000001 	strlt	r0, [r0, -r1]
    4294:	0a000007 	beq	42b8 <__code_start__-0x3d48>
    4298:	000000cc 	andeq	r0, r0, ip, asr #1
    429c:	f01a0017 			; <UNDEFINED> instruction: 0xf01a0017
    42a0:	db027005 	blle	a02bc <__bss_end__+0x9636c>
    42a4:	17000007 	strne	r0, [r0, -r7]
    42a8:	00000b8f 	andeq	r0, r0, pc, lsl #23
    42ac:	db027305 	blle	a0ec8 <__bss_end__+0x96f78>
    42b0:	00000007 	andeq	r0, r0, r7
    42b4:	000d9d17 	andeq	r9, sp, r7, lsl sp
    42b8:	02740500 	rsbseq	r0, r4, #0, 10
    42bc:	000007eb 	andeq	r0, r0, fp, ror #15
    42c0:	db090078 	blle	2444a8 <__bss_end__+0x23a558>
    42c4:	eb000002 	bl	42d4 <__code_start__-0x3d2c>
    42c8:	0a000007 	beq	42ec <__code_start__-0x3d14>
    42cc:	000000cc 	andeq	r0, r0, ip, asr #1
    42d0:	2c09001d 	stccs	0, cr0, [r9], {29}
    42d4:	fb000000 	blx	42de <__code_start__-0x3d22>
    42d8:	0a000007 	beq	42fc <__code_start__-0x3d04>
    42dc:	000000cc 	andeq	r0, r0, ip, asr #1
    42e0:	f01b001d 			; <UNDEFINED> instruction: 0xf01b001d
    42e4:	1d025505 	cfstr32ne	mvfx5, [r2, #-20]	; 0xffffffec
    42e8:	1c000008 	stcne	0, cr0, [r0], {8}
    42ec:	00000c66 	andeq	r0, r0, r6, ror #24
    42f0:	86026c05 	strhi	r6, [r2], -r5, lsl #24
    42f4:	1c000006 	stcne	0, cr0, [r0], {6}
    42f8:	00000df9 	strdeq	r0, [r0], -r9
    42fc:	b7027505 	strlt	r7, [r2, -r5, lsl #10]
    4300:	00000007 	andeq	r0, r0, r7
    4304:	00011209 	andeq	r1, r1, r9, lsl #4
    4308:	00082d00 	andeq	r2, r8, r0, lsl #26
    430c:	00cc0a00 	sbceq	r0, ip, r0, lsl #20
    4310:	00180000 	andseq	r0, r8, r0
    4314:	0008381d 	andeq	r3, r8, sp, lsl r8
    4318:	04291500 	strteq	r1, [r9], #-1280	; 0x500
    431c:	0e000000 	cdpeq	0, 0, cr0, cr0, cr0, {0}
    4320:	00082d04 	andeq	r2, r8, r4, lsl #26
    4324:	7c040e00 	stcvc	14, cr0, [r4], {-0}
    4328:	1d000001 	stcne	0, cr0, [r0, #-4]
    432c:	0000084f 	andeq	r0, r0, pc, asr #16
    4330:	00002515 	andeq	r2, r0, r5, lsl r5
    4334:	040e0000 	streq	r0, [lr], #-0
    4338:	00000855 	andeq	r0, r0, r5, asr r8
    433c:	0844040e 	stmdaeq	r4, {r1, r2, r3, sl}^
    4340:	f4090000 	vst4.8	{d0-d3}, [r9], r0
    4344:	6b000005 	blvs	4360 <__code_start__-0x3ca0>
    4348:	0a000008 	beq	4370 <__code_start__-0x3c90>
    434c:	000000cc 	andeq	r0, r0, ip, asr #1
    4350:	4c1e0002 	ldcmi	0, cr0, [lr], {2}
    4354:	0500000d 	streq	r0, [r0, #-13]
    4358:	042902fd 	strteq	r0, [r9], #-765	; 0x2fd
    435c:	451e0000 	ldrmi	r0, [lr, #-0]
    4360:	0500000d 	streq	r0, [r0, #-13]
    4364:	042f02fe 	strteq	r0, [pc], #-766	; 436c <__code_start__-0x3c94>
    4368:	25140000 	ldrcs	r0, [r4, #-0]
    436c:	92000000 	andls	r0, r0, #0
    4370:	15000008 	strne	r0, [r0, #-8]
    4374:	00000025 	andeq	r0, r0, r5, lsr #32
    4378:	050c1f00 	streq	r1, [ip, #-3840]	; 0xf00
    437c:	1d060000 	stcne	0, cr0, [r6, #-0]
    4380:	0000089d 	muleq	r0, sp, r8
    4384:	0883040e 	stmeq	r3, {r1, r2, r3, sl}
    4388:	25140000 	ldrcs	r0, [r4, #-0]
    438c:	b2000000 	andlt	r0, r0, #0
    4390:	15000008 	strne	r0, [r0, #-8]
    4394:	0000058a 	andeq	r0, r0, sl, lsl #11
    4398:	05491f00 	strbeq	r1, [r9, #-3840]	; 0xf00
    439c:	22060000 	andcs	r0, r6, #0
    43a0:	000008bd 			; <UNDEFINED> instruction: 0x000008bd
    43a4:	08a3040e 	stmiaeq	r3!, {r1, r2, r3, sl}
    43a8:	01200000 	teqeq	r0, r0
    43ac:	00000054 	andeq	r0, r0, r4, asr r0
    43b0:	09000c07 	stmdbeq	r0, {r0, r1, r2, sl, fp}
    43b4:	6f210000 	svcvs	0x00210000
    43b8:	00000009 	andeq	r0, r0, r9
    43bc:	000d8c21 	andeq	r8, sp, r1, lsr #24
    43c0:	e4210100 	strt	r0, [r1], #-256	; 0x100
    43c4:	0400000d 	streq	r0, [r0], #-13
    43c8:	0009b021 	andeq	fp, r9, r1, lsr #32
    43cc:	47210500 	strmi	r0, [r1, -r0, lsl #10]!
    43d0:	0600000b 	streq	r0, [r0], -fp
    43d4:	000e0121 	andeq	r0, lr, r1, lsr #2
    43d8:	10210700 	eorne	r0, r1, r0, lsl #14
    43dc:	0300000e 	movweq	r0, #14
    43e0:	000e1f21 	andeq	r1, lr, r1, lsr #30
    43e4:	05000200 	streq	r0, [r0, #-512]	; 0x200
    43e8:	00000ede 	ldrdeq	r0, [r0], -lr
    43ec:	08c31507 	stmiaeq	r3, {r0, r1, r2, r8, sl, ip}^
    43f0:	af220000 	svcge	0x00220000
    43f4:	0100000e 	tsteq	r0, lr
    43f8:	0000331d 	andeq	r3, r0, sp, lsl r3
    43fc:	20001c00 	andcs	r1, r0, r0, lsl #24
    4400:	0eea2220 	cdpeq	2, 14, cr2, cr10, cr0, {1}
    4404:	1e010000 	cdpne	0, 0, cr0, cr1, cr0, {0}
    4408:	00000033 	andeq	r0, r0, r3, lsr r0
    440c:	20200028 	eorcs	r0, r0, r8, lsr #32
    4410:	000eb922 	andeq	fp, lr, r2, lsr #18
    4414:	331f0100 	tstcc	pc, #0, 2
    4418:	34000000 	strcc	r0, [r0], #-0
    441c:	23202000 	teqcs	r0, #0
    4420:	00000e8a 	andeq	r0, r0, sl, lsl #29
    4424:	00255601 	eoreq	r5, r5, r1, lsl #12
    4428:	94680000 	strbtls	r0, [r8], #-0
    442c:	00340000 	eorseq	r0, r4, r0
    4430:	9c010000 	stcls	0, cr0, [r1], {-0}
    4434:	00000998 	muleq	r0, r8, r9
    4438:	6e697024 	cdpvs	0, 6, cr7, cr9, cr4, {1}
    443c:	2c560100 	ldfcse	f0, [r6], {-0}
    4440:	95000000 	strls	r0, [r0, #-0]
    4444:	2500000d 	strcs	r0, [r0, #-13]
    4448:	00000e7e 	andeq	r0, r0, lr, ror lr
    444c:	002c5901 	eoreq	r5, ip, r1, lsl #18
    4450:	0dcf0000 	stcleq	0, cr0, [pc]	; 4458 <__code_start__-0x3ba8>
    4454:	6f260000 	svcvs	0x00260000
    4458:	01006666 	tsteq	r0, r6, ror #12
    445c:	00002c5a 	andeq	r2, r0, sl, asr ip
    4460:	000e0d00 	andeq	r0, lr, r0, lsl #26
    4464:	94842700 	strls	r2, [r4], #1792	; 0x700
    4468:	0b5d0000 	bleq	1744470 <__bss_end__+0x173a520>
    446c:	01280000 	teqeq	r8, r0
    4470:	01f30b50 	mvnseq	r0, r0, asr fp
    4474:	23253550 	teqcs	r5, #80, 10	; 0x14000000
    4478:	818080b4 	strhhi	r8, [r0, r4]
    447c:	29000002 	stmdbcs	r0, {r1}
    4480:	00000ea4 	andeq	r0, r0, r4, lsr #29
    4484:	944c4f01 	strbls	r4, [ip], #-3841	; 0xf01
    4488:	001c0000 	andseq	r0, ip, r0
    448c:	9c010000 	stcls	0, cr0, [r1], {-0}
    4490:	000009e8 	andeq	r0, r0, r8, ror #19
    4494:	6e697024 	cdpvs	0, 6, cr7, cr9, cr4, {1}
    4498:	2c4f0100 	stfcse	f0, [pc], {-0}
    449c:	20000000 	andcs	r0, r0, r0
    44a0:	2400000e 	strcs	r0, [r0], #-14
    44a4:	4f010076 	svcmi	0x00010076
    44a8:	0000002c 	andeq	r0, r0, ip, lsr #32
    44ac:	00000e5a 	andeq	r0, r0, sl, asr lr
    44b0:	00945c2a 	addseq	r5, r4, sl, lsr #24
    44b4:	000a2300 	andeq	r2, sl, r0, lsl #6
    44b8:	0009de00 	andeq	sp, r9, r0, lsl #28
    44bc:	50012800 	andpl	r2, r1, r0, lsl #16
    44c0:	5001f303 	andpl	pc, r1, r3, lsl #6
    44c4:	94642b00 	strbtls	r2, [r4], #-2816	; 0xb00
    44c8:	0a640000 	beq	19044d0 <__bss_end__+0x18fa580>
    44cc:	29000000 	stmdbcs	r0, {}	; <UNPREDICTABLE>
    44d0:	00000ec3 	andeq	r0, r0, r3, asr #29
    44d4:	943c4a01 	ldrtls	r4, [ip], #-2561	; 0xa01
    44d8:	00100000 	andseq	r0, r0, r0
    44dc:	9c010000 	stcls	0, cr0, [r1], {-0}
    44e0:	00000a23 	andeq	r0, r0, r3, lsr #20
    44e4:	6e697024 	cdpvs	0, 6, cr7, cr9, cr4, {1}
    44e8:	2c4a0100 	stfcse	f0, [sl], {-0}
    44ec:	94000000 	strls	r0, [r0], #-0
    44f0:	2700000e 	strcs	r0, [r0, -lr]
    44f4:	00009448 	andeq	r9, r0, r8, asr #8
    44f8:	00000ae0 	andeq	r0, r0, r0, ror #21
    44fc:	03500128 	cmpeq	r0, #40, 2
    4500:	285001f3 	ldmdacs	r0, {r0, r1, r4, r5, r6, r7, r8}^
    4504:	30015101 	andcc	r5, r1, r1, lsl #2
    4508:	71290000 	teqvc	r9, r0
    450c:	0100000e 	tsteq	r0, lr
    4510:	00941843 	addseq	r1, r4, r3, asr #16
    4514:	00002400 	andeq	r2, r0, r0, lsl #8
    4518:	649c0100 	ldrvs	r0, [ip], #256	; 0x100
    451c:	2400000a 	strcs	r0, [r0], #-10
    4520:	006e6970 	rsbeq	r6, lr, r0, ror r9
    4524:	002c4301 	eoreq	r4, ip, r1, lsl #6
    4528:	0eb50000 	cdpeq	0, 11, cr0, cr5, cr0, {0}
    452c:	34270000 	strtcc	r0, [r7], #-0
    4530:	68000094 	stmdavs	r0, {r2, r4, r7}
    4534:	2800000b 	stmdacs	r0, {r0, r1, r3}
    4538:	0c055001 	stceq	0, cr5, [r5], {1}
    453c:	20200028 	eorcs	r0, r0, r8, lsr #32
    4540:	05510128 	ldrbeq	r0, [r1, #-296]	; 0x128
    4544:	5001f331 	andpl	pc, r1, r1, lsr r3	; <UNPREDICTABLE>
    4548:	29000024 	stmdbcs	r0, {r2, r5}
    454c:	00000ed2 	ldrdeq	r0, [r0], -r2
    4550:	93f43c01 	mvnsls	r3, #256	; 0x100
    4554:	00240000 	eoreq	r0, r4, r0
    4558:	9c010000 	stcls	0, cr0, [r1], {-0}
    455c:	00000aa5 	andeq	r0, r0, r5, lsr #21
    4560:	6e697024 	cdpvs	0, 6, cr7, cr9, cr4, {1}
    4564:	2c3c0100 	ldfcss	f0, [ip], #-0
    4568:	d6000000 	strle	r0, [r0], -r0
    456c:	2700000e 	strcs	r0, [r0, -lr]
    4570:	00009410 	andeq	r9, r0, r0, lsl r4
    4574:	00000b68 	andeq	r0, r0, r8, ror #22
    4578:	05500128 	ldrbeq	r0, [r0, #-296]	; 0x128
    457c:	20001c0c 	andcs	r1, r0, ip, lsl #24
    4580:	51012820 	tstpl	r1, r0, lsr #16
    4584:	01f33105 	mvnseq	r3, r5, lsl #2
    4588:	00002450 	andeq	r2, r0, r0, asr r4
    458c:	000e9429 	andeq	r9, lr, r9, lsr #8
    4590:	e4370100 	ldrt	r0, [r7], #-256	; 0x100
    4594:	10000093 	mulne	r0, r3, r0
    4598:	01000000 	mrseq	r0, (UNDEF: 0)
    459c:	000ae09c 	muleq	sl, ip, r0
    45a0:	69702400 	ldmdbvs	r0!, {sl, sp}^
    45a4:	3701006e 	strcc	r0, [r1, -lr, rrx]
    45a8:	0000002c 	andeq	r0, r0, ip, lsr #32
    45ac:	00000ef7 	strdeq	r0, [r0], -r7
    45b0:	0093f027 	addseq	pc, r3, r7, lsr #32
    45b4:	000ae000 	andeq	lr, sl, r0
    45b8:	50012800 	andpl	r2, r1, r0, lsl #16
    45bc:	5001f303 	andpl	pc, r1, r3, lsl #6
    45c0:	01510128 	cmpeq	r1, r8, lsr #2
    45c4:	29000031 	stmdbcs	r0, {r0, r4, r5}
    45c8:	00000b7d 	andeq	r0, r0, sp, ror fp
    45cc:	937c2801 	cmnls	ip, #65536	; 0x10000
    45d0:	00680000 	rsbeq	r0, r8, r0
    45d4:	9c010000 	stcls	0, cr0, [r1], {-0}
    45d8:	00000b5d 	andeq	r0, r0, sp, asr fp
    45dc:	6e697024 	cdpvs	0, 6, cr7, cr9, cr4, {1}
    45e0:	2c280100 	stfcss	f0, [r8], #-0
    45e4:	18000000 	stmdane	r0, {}	; <UNPREDICTABLE>
    45e8:	2c00000f 	stccs	0, cr0, [r0], {15}
    45ec:	00000dc9 	andeq	r0, r0, r9, asr #27
    45f0:	09002801 	stmdbeq	r0, {r0, fp, sp}
    45f4:	0f390000 	svceq	0x00390000
    45f8:	6f2d0000 	svcvs	0x002d0000
    45fc:	01006666 	tsteq	r0, r6, ror #12
    4600:	00002c2d 	andeq	r2, r0, sp, lsr #24
    4604:	2d540100 	ldfcse	f0, [r4, #-0]
    4608:	2f010067 	svccs	0x00010067
    460c:	0000002c 	andeq	r0, r0, ip, lsr #32
    4610:	76265601 	strtvc	r5, [r6], -r1, lsl #12
    4614:	2c310100 	ldfcss	f0, [r1], #-0
    4618:	5a000000 	bpl	4620 <__code_start__-0x39e0>
    461c:	2a00000f 	bcs	4660 <__code_start__-0x39a0>
    4620:	000093c8 	andeq	r9, r0, r8, asr #7
    4624:	00000b5d 	andeq	r0, r0, sp, asr fp
    4628:	00000b4c 	andeq	r0, r0, ip, asr #22
    462c:	02500128 	subseq	r0, r0, #40, 2
    4630:	27000076 	smlsdxcs	r0, r6, r0, r0
    4634:	000093dc 	ldrdeq	r9, [r0], -ip
    4638:	00000b68 	andeq	r0, r0, r8, ror #22
    463c:	02500128 	subseq	r0, r0, #40, 2
    4640:	00000076 	andeq	r0, r0, r6, ror r0
    4644:	0008e62e 	andeq	lr, r8, lr, lsr #12
    4648:	0008e600 	andeq	lr, r8, r0, lsl #12
    464c:	2ea70600 	cdpcs	6, 10, cr0, cr7, cr0, {0}
    4650:	00000820 	andeq	r0, r0, r0, lsr #16
    4654:	00000820 	andeq	r0, r0, r0, lsr #16
    4658:	Address 0x0000000000004658 is out of bounds.


Disassembly of section .debug_abbrev:

00000000 <.debug_abbrev>:
       0:	25011101 	strcs	r1, [r1, #-257]	; 0x101
       4:	030b130e 	movweq	r1, #45838	; 0xb30e
       8:	110e1b0e 	tstne	lr, lr, lsl #22
       c:	10061201 	andne	r1, r6, r1, lsl #4
      10:	02000017 	andeq	r0, r0, #23
      14:	0b0b0024 	bleq	2c00ac <__bss_end__+0x2b615c>
      18:	08030b3e 	stmdaeq	r3, {r1, r2, r3, r4, r5, r8, r9, fp}
      1c:	24030000 	strcs	r0, [r3], #-0
      20:	3e0b0b00 	vmlacc.f64	d0, d11, d0
      24:	000e030b 	andeq	r0, lr, fp, lsl #6
      28:	00160400 	andseq	r0, r6, r0, lsl #8
      2c:	0b3a0e03 	bleq	e83840 <__bss_end__+0xe798f0>
      30:	13490b3b 	movtne	r0, #39739	; 0x9b3b
      34:	0f050000 	svceq	0x00050000
      38:	490b0b00 	stmdbmi	fp, {r8, r9, fp}
      3c:	06000013 			; <UNDEFINED> instruction: 0x06000013
      40:	19270015 	stmdbne	r7!, {r0, r2, r4}
      44:	26070000 	strcs	r0, [r7], -r0
      48:	00134900 	andseq	r4, r3, r0, lsl #18
      4c:	01010800 	tsteq	r1, r0, lsl #16
      50:	13011349 	movwne	r1, #4937	; 0x1349
      54:	21090000 	mrscs	r0, (UNDEF: 9)
      58:	2f134900 	svccs	0x00134900
      5c:	0a00000b 	beq	90 <__code_start__-0x7f70>
      60:	19270115 	stmdbne	r7!, {r0, r2, r4, r8}
      64:	00001301 	andeq	r1, r0, r1, lsl #6
      68:	4900050b 	stmdbmi	r0, {r0, r1, r3, r8, sl}
      6c:	0c000013 	stceq	0, cr0, [r0], {19}
      70:	0e03012e 	adfeqsp	f0, f3, #0.5
      74:	0b3b0b3a 	bleq	ec2d64 <__bss_end__+0xeb8e14>
      78:	13491927 	movtne	r1, #39207	; 0x9927
      7c:	13010b20 	movwne	r0, #6944	; 0x1b20
      80:	340d0000 	strcc	r0, [sp], #-0
      84:	3a080300 	bcc	200c8c <__bss_end__+0x1f6d3c>
      88:	490b3b0b 	stmdbmi	fp, {r0, r1, r3, r8, r9, fp, ip, sp}
      8c:	0e000013 	mcreq	0, 0, r0, cr0, cr3, {0}
      90:	0e030005 	cdpeq	0, 0, cr0, cr3, cr5, {0}
      94:	0b3b0b3a 	bleq	ec2d84 <__bss_end__+0xeb8e34>
      98:	00001349 	andeq	r1, r0, r9, asr #6
      9c:	0300340f 	movweq	r3, #1039	; 0x40f
      a0:	3b0b3a0e 	blcc	2ce8e0 <__bss_end__+0x2c4990>
      a4:	0013490b 	andseq	r4, r3, fp, lsl #18
      a8:	012e1000 	teqeq	lr, r0
      ac:	0b3a0e03 	bleq	e838c0 <__bss_end__+0xe79970>
      b0:	19270b3b 	stmdbne	r7!, {r0, r1, r3, r4, r5, r8, r9, fp}
      b4:	13010b20 	movwne	r0, #6944	; 0x1b20
      b8:	2e110000 	cdpcs	0, 1, cr0, cr1, cr0, {0}
      bc:	03193f01 	tsteq	r9, #1, 30
      c0:	3b0b3a0e 	blcc	2ce900 <__bss_end__+0x2c49b0>
      c4:	1119270b 	tstne	r9, fp, lsl #14
      c8:	40061201 	andmi	r1, r6, r1, lsl #4
      cc:	19429718 	stmdbne	r2, {r3, r4, r8, r9, sl, ip, pc}^
      d0:	00001301 	andeq	r1, r0, r1, lsl #6
      d4:	11010b12 	tstne	r1, r2, lsl fp
      d8:	00061201 	andeq	r1, r6, r1, lsl #4
      dc:	00341300 	eorseq	r1, r4, r0, lsl #6
      e0:	0b3a0803 	bleq	e820f4 <__bss_end__+0xe781a4>
      e4:	13490b3b 	movtne	r0, #39739	; 0x9b3b
      e8:	00001702 	andeq	r1, r0, r2, lsl #14
      ec:	03012e14 	movweq	r2, #7700	; 0x1e14
      f0:	3b0b3a0e 	blcc	2ce930 <__bss_end__+0x2c49e0>
      f4:	1119270b 	tstne	r9, fp, lsl #14
      f8:	40061201 	andmi	r1, r6, r1, lsl #4
      fc:	19429718 	stmdbne	r2, {r3, r4, r8, r9, sl, ip, pc}^
     100:	00001301 	andeq	r1, r0, r1, lsl #6
     104:	03000515 	movweq	r0, #1301	; 0x515
     108:	3b0b3a0e 	blcc	2ce948 <__bss_end__+0x2c49f8>
     10c:	0213490b 	andseq	r4, r3, #180224	; 0x2c000
     110:	16000017 			; <UNDEFINED> instruction: 0x16000017
     114:	08030005 	stmdaeq	r3, {r0, r2}
     118:	0b3b0b3a 	bleq	ec2e08 <__bss_end__+0xeb8eb8>
     11c:	17021349 	strne	r1, [r2, -r9, asr #6]
     120:	34170000 	ldrcc	r0, [r7], #-0
     124:	490e0300 	stmdbmi	lr, {r8, r9}
     128:	02193413 	andseq	r3, r9, #318767104	; 0x13000000
     12c:	18000018 	stmdane	r0, {r3, r4}
     130:	1331011d 	teqne	r1, #1073741831	; 0x40000007
     134:	06120111 			; <UNDEFINED> instruction: 0x06120111
     138:	0b590b58 	bleq	1642ea0 <__bss_end__+0x1638f50>
     13c:	00001301 	andeq	r1, r0, r1, lsl #6
     140:	31003419 	tstcc	r0, r9, lsl r4
     144:	1a000013 	bne	198 <__code_start__-0x7e68>
     148:	1331011d 	teqne	r1, #1073741831	; 0x40000007
     14c:	06120111 			; <UNDEFINED> instruction: 0x06120111
     150:	0b590b58 	bleq	1642eb8 <__bss_end__+0x1638f68>
     154:	341b0000 	ldrcc	r0, [fp], #-0
     158:	02133100 	andseq	r3, r3, #0, 2
     15c:	1c000017 	stcne	0, cr0, [r0], {23}
     160:	01018289 	smlabbeq	r1, r9, r2, r8
     164:	13310111 	teqne	r1, #1073741828	; 0x40000004
     168:	00001301 	andeq	r1, r0, r1, lsl #6
     16c:	01828a1d 	orreq	r8, r2, sp, lsl sl
     170:	91180200 	tstls	r8, r0, lsl #4
     174:	00001842 	andeq	r1, r0, r2, asr #16
     178:	0182891e 	orreq	r8, r2, lr, lsl r9
     17c:	31011100 	mrscc	r1, (UNDEF: 17)
     180:	1f000013 	svcne	0x00000013
     184:	01018289 	smlabbeq	r1, r9, r2, r8
     188:	13310111 	teqne	r1, #1073741828	; 0x40000004
     18c:	34200000 	strtcc	r0, [r0], #-0
     190:	490e0300 	stmdbmi	lr, {r8, r9}
     194:	1c193413 	cfldrsne	mvf3, [r9], {19}
     198:	2100000e 	tstcs	r0, lr
     19c:	08030005 	stmdaeq	r3, {r0, r2}
     1a0:	0b3b0b3a 	bleq	ec2e90 <__bss_end__+0xeb8f40>
     1a4:	00001349 	andeq	r1, r0, r9, asr #6
     1a8:	03003422 	movweq	r3, #1058	; 0x422
     1ac:	3b0b3a0e 	blcc	2ce9ec <__bss_end__+0x2c4a9c>
     1b0:	0213490b 	andseq	r4, r3, #180224	; 0x2c000
     1b4:	23000018 	movwcs	r0, #24
     1b8:	13310034 	teqne	r1, #52	; 0x34
     1bc:	00001802 	andeq	r1, r0, r2, lsl #16
     1c0:	31000524 	tstcc	r0, r4, lsr #10
     1c4:	000b1c13 	andeq	r1, fp, r3, lsl ip
     1c8:	00052500 	andeq	r2, r5, r0, lsl #10
     1cc:	18021331 	stmdane	r2, {r0, r4, r5, r8, r9, ip}
     1d0:	34260000 	strtcc	r0, [r6], #-0
     1d4:	1c133100 	ldfnes	f3, [r3], {-0}
     1d8:	2700000b 	strcs	r0, [r0, -fp]
     1dc:	13310005 	teqne	r1, #5
     1e0:	35280000 	strcc	r0, [r8, #-0]!
     1e4:	00134900 	andseq	r4, r3, r0, lsl #18
     1e8:	00342900 	eorseq	r2, r4, r0, lsl #18
     1ec:	0b3a0803 	bleq	e82200 <__bss_end__+0xe782b0>
     1f0:	13490b3b 	movtne	r0, #39739	; 0x9b3b
     1f4:	00001802 	andeq	r1, r0, r2, lsl #16
     1f8:	0300342a 	movweq	r3, #1066	; 0x42a
     1fc:	3b0b3a0e 	blcc	2cea3c <__bss_end__+0x2c4aec>
     200:	3f13490b 	svccc	0x0013490b
     204:	00193c19 	andseq	r3, r9, r9, lsl ip
     208:	012e2b00 	teqeq	lr, r0, lsl #22
     20c:	0e03193f 	mcreq	9, 0, r1, cr3, cr15, {1}
     210:	0b3b0b3a 	bleq	ec2f00 <__bss_end__+0xeb8fb0>
     214:	13491927 	movtne	r1, #39207	; 0x9927
     218:	1301193c 	movwne	r1, #6460	; 0x193c
     21c:	182c0000 	stmdane	ip!, {}	; <UNPREDICTABLE>
     220:	2d000000 	stccs	0, cr0, [r0, #-0]
     224:	193f002e 	ldmdbne	pc!, {r1, r2, r3, r5}	; <UNPREDICTABLE>
     228:	0b3a0e03 	bleq	e83a3c <__bss_end__+0xe79aec>
     22c:	19270b3b 	stmdbne	r7!, {r0, r1, r3, r4, r5, r8, r9, fp}
     230:	0000193c 	andeq	r1, r0, ip, lsr r9
     234:	3f012e2e 	svccc	0x00012e2e
     238:	3a0e0319 	bcc	380ea4 <__bss_end__+0x376f54>
     23c:	270b3b0b 	strcs	r3, [fp, -fp, lsl #22]
     240:	01193c19 	tsteq	r9, r9, lsl ip
     244:	2f000013 	svccs	0x00000013
     248:	193f012e 	ldmdbne	pc!, {r1, r2, r3, r5, r8}	; <UNPREDICTABLE>
     24c:	0b3a0e03 	bleq	e83a60 <__bss_end__+0xe79b10>
     250:	19270b3b 	stmdbne	r7!, {r0, r1, r3, r4, r5, r8, r9, fp}
     254:	0000193c 	andeq	r1, r0, ip, lsr r9
     258:	01110100 	tsteq	r1, r0, lsl #2
     25c:	0b130e25 	bleq	4c3af8 <__bss_end__+0x4b9ba8>
     260:	0e1b0e03 	cdpeq	14, 1, cr0, cr11, cr3, {0}
     264:	06120111 			; <UNDEFINED> instruction: 0x06120111
     268:	00001710 	andeq	r1, r0, r0, lsl r7
     26c:	0b002402 	bleq	927c <uart_init+0x58>
     270:	030b3e0b 	movweq	r3, #48651	; 0xbe0b
     274:	03000008 	movweq	r0, #8
     278:	0b0b0024 	bleq	2c0310 <__bss_end__+0x2b63c0>
     27c:	0e030b3e 	vmoveq.16	d3[0], r0
     280:	16040000 	strne	r0, [r4], -r0
     284:	3a0e0300 	bcc	380e8c <__bss_end__+0x376f3c>
     288:	490b3b0b 	stmdbmi	fp, {r0, r1, r3, r8, r9, fp, ip, sp}
     28c:	05000013 	streq	r0, [r0, #-19]
     290:	0b0b000f 	bleq	2c02d4 <__bss_end__+0x2b6384>
     294:	0f060000 	svceq	0x00060000
     298:	490b0b00 	stmdbmi	fp, {r8, r9, fp}
     29c:	07000013 	smladeq	r0, r3, r0, r0
     2a0:	13490026 	movtne	r0, #36902	; 0x9026
     2a4:	01080000 	mrseq	r0, (UNDEF: 8)
     2a8:	01134901 	tsteq	r3, r1, lsl #18
     2ac:	09000013 	stmdbeq	r0, {r0, r1, r4}
     2b0:	13490021 	movtne	r0, #36897	; 0x9021
     2b4:	00000b2f 	andeq	r0, r0, pc, lsr #22
     2b8:	2701150a 	strcs	r1, [r1, -sl, lsl #10]
     2bc:	00130119 	andseq	r0, r3, r9, lsl r1
     2c0:	00050b00 	andeq	r0, r5, r0, lsl #22
     2c4:	00001349 	andeq	r1, r0, r9, asr #6
     2c8:	03012e0c 	movweq	r2, #7692	; 0x1e0c
     2cc:	3b0b3a0e 	blcc	2ceb0c <__bss_end__+0x2c4bbc>
     2d0:	4919270b 	ldmdbmi	r9, {r0, r1, r3, r8, r9, sl, sp}
     2d4:	010b2013 	tsteq	fp, r3, lsl r0
     2d8:	0d000013 	stceq	0, cr0, [r0, #-76]	; 0xffffffb4
     2dc:	08030034 	stmdaeq	r3, {r2, r4, r5}
     2e0:	0b3b0b3a 	bleq	ec2fd0 <__bss_end__+0xeb9080>
     2e4:	00001349 	andeq	r1, r0, r9, asr #6
     2e8:	0300050e 	movweq	r0, #1294	; 0x50e
     2ec:	3b0b3a08 	blcc	2ceb14 <__bss_end__+0x2c4bc4>
     2f0:	0013490b 	andseq	r4, r3, fp, lsl #18
     2f4:	012e0f00 	teqeq	lr, r0, lsl #30
     2f8:	0b3a0e03 	bleq	e83b0c <__bss_end__+0xe79bbc>
     2fc:	19270b3b 	stmdbne	r7!, {r0, r1, r3, r4, r5, r8, r9, fp}
     300:	13010b20 	movwne	r0, #6944	; 0x1b20
     304:	34100000 	ldrcc	r0, [r0], #-0
     308:	3a0e0300 	bcc	380f10 <__bss_end__+0x376fc0>
     30c:	490b3b0b 	stmdbmi	fp, {r0, r1, r3, r8, r9, fp, ip, sp}
     310:	11000013 	tstne	r0, r3, lsl r0
     314:	193f012e 	ldmdbne	pc!, {r1, r2, r3, r5, r8}	; <UNPREDICTABLE>
     318:	0b3a0e03 	bleq	e83b2c <__bss_end__+0xe79bdc>
     31c:	19270b3b 	stmdbne	r7!, {r0, r1, r3, r4, r5, r8, r9, fp}
     320:	06120111 			; <UNDEFINED> instruction: 0x06120111
     324:	42971840 	addsmi	r1, r7, #64, 16	; 0x400000
     328:	00130119 	andseq	r0, r3, r9, lsl r1
     32c:	00051200 	andeq	r1, r5, r0, lsl #4
     330:	0b3a0e03 	bleq	e83b44 <__bss_end__+0xe79bf4>
     334:	13490b3b 	movtne	r0, #39739	; 0x9b3b
     338:	00001702 	andeq	r1, r0, r2, lsl #14
     33c:	03003413 	movweq	r3, #1043	; 0x413
     340:	3b0b3a0e 	blcc	2ceb80 <__bss_end__+0x2c4c30>
     344:	0213490b 	andseq	r4, r3, #180224	; 0x2c000
     348:	14000017 	strne	r0, [r0], #-23
     34c:	0e030034 	mcreq	0, 0, r0, cr3, cr4, {1}
     350:	19341349 	ldmdbne	r4!, {r0, r3, r6, r8, r9, ip}
     354:	00001802 	andeq	r1, r0, r2, lsl #16
     358:	31011d15 	tstcc	r1, r5, lsl sp
     35c:	12011113 	andne	r1, r1, #-1073741820	; 0xc0000004
     360:	590b5806 	stmdbpl	fp, {r1, r2, fp, ip, lr}
     364:	0013010b 	andseq	r0, r3, fp, lsl #2
     368:	010b1600 	tsteq	fp, r0, lsl #12
     36c:	06120111 			; <UNDEFINED> instruction: 0x06120111
     370:	34170000 	ldrcc	r0, [r7], #-0
     374:	02133100 	andseq	r3, r3, #0, 2
     378:	18000017 	stmdane	r0, {r0, r1, r2, r4}
     37c:	13310005 	teqne	r1, #5
     380:	00001702 	andeq	r1, r0, r2, lsl #14
     384:	31000519 	tstcc	r0, r9, lsl r5
     388:	00051c13 	andeq	r1, r5, r3, lsl ip
     38c:	00051a00 	andeq	r1, r5, r0, lsl #20
     390:	0b1c1331 	bleq	70505c <__bss_end__+0x6fb10c>
     394:	891b0000 	ldmdbhi	fp, {}	; <UNPREDICTABLE>
     398:	11000182 	smlabbne	r0, r2, r1, r0
     39c:	00133101 	andseq	r3, r3, r1, lsl #2
     3a0:	82891c00 	addhi	r1, r9, #0, 24
     3a4:	01110101 	tsteq	r1, r1, lsl #2
     3a8:	13011331 	movwne	r1, #4913	; 0x1331
     3ac:	8a1d0000 	bhi	7403b4 <__bss_end__+0x736464>
     3b0:	02000182 	andeq	r0, r0, #-2147483616	; 0x80000020
     3b4:	18429118 	stmdane	r2, {r3, r4, r8, ip, pc}^
     3b8:	341e0000 	ldrcc	r0, [lr], #-0
     3bc:	490e0300 	stmdbmi	lr, {r8, r9}
     3c0:	1c193413 	cfldrsne	mvf3, [r9], {19}
     3c4:	1f00000e 	svcne	0x0000000e
     3c8:	08030005 	stmdaeq	r3, {r0, r2}
     3cc:	0b3b0b3a 	bleq	ec30bc <__bss_end__+0xeb916c>
     3d0:	17021349 	strne	r1, [r2, -r9, asr #6]
     3d4:	34200000 	strtcc	r0, [r0], #-0
     3d8:	3a0e0300 	bcc	380fe0 <__bss_end__+0x377090>
     3dc:	490b3b0b 	stmdbmi	fp, {r0, r1, r3, r8, r9, fp, ip, sp}
     3e0:	00180213 	andseq	r0, r8, r3, lsl r2
     3e4:	00342100 	eorseq	r2, r4, r0, lsl #2
     3e8:	00001331 	andeq	r1, r0, r1, lsr r3
     3ec:	31011d22 	tstcc	r1, r2, lsr #26
     3f0:	12011113 	andne	r1, r1, #-1073741820	; 0xc0000004
     3f4:	590b5806 	stmdbpl	fp, {r1, r2, fp, ip, lr}
     3f8:	2300000b 	movwcs	r0, #11
     3fc:	13310034 	teqne	r1, #52	; 0x34
     400:	00001802 	andeq	r1, r0, r2, lsl #16
     404:	01828924 	orreq	r8, r2, r4, lsr #18
     408:	00011101 	andeq	r1, r1, r1, lsl #2
     40c:	00342500 	eorseq	r2, r4, r0, lsl #10
     410:	0b3a0803 	bleq	e82424 <__bss_end__+0xe784d4>
     414:	13490b3b 	movtne	r0, #39739	; 0x9b3b
     418:	0000051c 	andeq	r0, r0, ip, lsl r5
     41c:	03000526 	movweq	r0, #1318	; 0x526
     420:	3b0b3a0e 	blcc	2cec60 <__bss_end__+0x2c4d10>
     424:	0213490b 	andseq	r4, r3, #180224	; 0x2c000
     428:	27000018 	smladcs	r0, r8, r0, r0
     42c:	13310005 	teqne	r1, #5
     430:	00001802 	andeq	r1, r0, r2, lsl #16
     434:	03000528 	movweq	r0, #1320	; 0x528
     438:	3b0b3a08 	blcc	2cec60 <__bss_end__+0x2c4d10>
     43c:	0213490b 	andseq	r4, r3, #180224	; 0x2c000
     440:	29000018 	stmdbcs	r0, {r3, r4}
     444:	13310005 	teqne	r1, #5
     448:	0000061c 	andeq	r0, r0, ip, lsl r6
     44c:	3f012e2a 	svccc	0x00012e2a
     450:	3a0e0319 	bcc	3810bc <__bss_end__+0x37716c>
     454:	27053b0b 	strcs	r3, [r5, -fp, lsl #22]
     458:	11134919 	tstne	r3, r9, lsl r9
     45c:	40061201 	andmi	r1, r6, r1, lsl #4
     460:	19429718 	stmdbne	r2, {r3, r4, r8, r9, sl, ip, pc}^
     464:	00001301 	andeq	r1, r0, r1, lsl #6
     468:	0300052b 	movweq	r0, #1323	; 0x52b
     46c:	3b0b3a08 	blcc	2cec94 <__bss_end__+0x2c4d44>
     470:	02134905 	andseq	r4, r3, #81920	; 0x14000
     474:	2c000017 	stccs	0, cr0, [r0], {23}
     478:	0e030034 	mcreq	0, 0, r0, cr3, cr4, {1}
     47c:	0b3b0b3a 	bleq	ec316c <__bss_end__+0xeb921c>
     480:	193f1349 	ldmdbne	pc!, {r0, r3, r6, r8, r9, ip}	; <UNPREDICTABLE>
     484:	00001802 	andeq	r1, r0, r2, lsl #16
     488:	3f002e2d 	svccc	0x00002e2d
     48c:	3a0e0319 	bcc	3810f8 <__bss_end__+0x3771a8>
     490:	270b3b0b 	strcs	r3, [fp, -fp, lsl #22]
     494:	00193c19 	andseq	r3, r9, r9, lsl ip
     498:	012e2e00 	teqeq	lr, r0, lsl #28
     49c:	0e03193f 	mcreq	9, 0, r1, cr3, cr15, {1}
     4a0:	0b3b0b3a 	bleq	ec3190 <__bss_end__+0xeb9240>
     4a4:	13491927 	movtne	r1, #39207	; 0x9927
     4a8:	1301193c 	movwne	r1, #6460	; 0x193c
     4ac:	182f0000 	stmdane	pc!, {}	; <UNPREDICTABLE>
     4b0:	00000000 	andeq	r0, r0, r0
     4b4:	25011101 	strcs	r1, [r1, #-257]	; 0x101
     4b8:	030b130e 	movweq	r1, #45838	; 0xb30e
     4bc:	110e1b0e 	tstne	lr, lr, lsl #22
     4c0:	10061201 	andne	r1, r6, r1, lsl #4
     4c4:	02000017 	andeq	r0, r0, #23
     4c8:	0e030016 	mcreq	0, 0, r0, cr3, cr6, {0}
     4cc:	0b3b0b3a 	bleq	ec31bc <__bss_end__+0xeb926c>
     4d0:	00001349 	andeq	r1, r0, r9, asr #6
     4d4:	03011303 	movweq	r1, #4867	; 0x1303
     4d8:	3a0b0b0e 	bcc	2c3118 <__bss_end__+0x2b91c8>
     4dc:	010b3b0b 	tsteq	fp, fp, lsl #22
     4e0:	04000013 	streq	r0, [r0], #-19
     4e4:	0e03000d 	cdpeq	0, 0, cr0, cr3, cr13, {0}
     4e8:	0b381349 	bleq	e05214 <__bss_end__+0xdfb2c4>
     4ec:	00001934 	andeq	r1, r0, r4, lsr r9
     4f0:	0b000f05 	bleq	410c <__code_start__-0x3ef4>
     4f4:	0600000b 	streq	r0, [r0], -fp
     4f8:	0b0b0024 	bleq	2c0590 <__bss_end__+0x2b6640>
     4fc:	08030b3e 	stmdaeq	r3, {r1, r2, r3, r4, r5, r8, r9, fp}
     500:	24070000 	strcs	r0, [r7], #-0
     504:	3e0b0b00 	vmlacc.f64	d0, d11, d0
     508:	000e030b 	andeq	r0, lr, fp, lsl #6
     50c:	000f0800 	andeq	r0, pc, r0, lsl #16
     510:	13490b0b 	movtne	r0, #39691	; 0x9b0b
     514:	26090000 	strcs	r0, [r9], -r0
     518:	00134900 	andseq	r4, r3, r0, lsl #18
     51c:	012e0a00 	teqeq	lr, r0, lsl #20
     520:	0e03193f 	mcreq	9, 0, r1, cr3, cr15, {1}
     524:	0b3b0b3a 	bleq	ec3214 <__bss_end__+0xeb92c4>
     528:	13491927 	movtne	r1, #39207	; 0x9927
     52c:	06120111 			; <UNDEFINED> instruction: 0x06120111
     530:	42971840 	addsmi	r1, r7, #64, 16	; 0x400000
     534:	00130119 	andseq	r0, r3, r9, lsl r1
     538:	00050b00 	andeq	r0, r5, r0, lsl #22
     53c:	0b3a0803 	bleq	e82550 <__bss_end__+0xe78600>
     540:	13490b3b 	movtne	r0, #39739	; 0x9b3b
     544:	00001802 	andeq	r1, r0, r2, lsl #16
     548:	0000180c 	andeq	r1, r0, ip, lsl #16
     54c:	00340d00 	eorseq	r0, r4, r0, lsl #26
     550:	0b3a0803 	bleq	e82564 <__bss_end__+0xe78614>
     554:	13490b3b 	movtne	r0, #39739	; 0x9b3b
     558:	00001802 	andeq	r1, r0, r2, lsl #16
     55c:	0300340e 	movweq	r3, #1038	; 0x40e
     560:	3b0b3a0e 	blcc	2ceda0 <__bss_end__+0x2c4e50>
     564:	0213490b 	andseq	r4, r3, #180224	; 0x2c000
     568:	0f000018 	svceq	0x00000018
     56c:	08030034 	stmdaeq	r3, {r2, r4, r5}
     570:	0b3b0b3a 	bleq	ec3260 <__bss_end__+0xeb9310>
     574:	17021349 	strne	r1, [r2, -r9, asr #6]
     578:	89100000 	ldmdbhi	r0, {}	; <UNPREDICTABLE>
     57c:	11010182 	smlabbne	r1, r2, r1, r0
     580:	01133101 	tsteq	r3, r1, lsl #2
     584:	11000013 	tstne	r0, r3, lsl r0
     588:	0001828a 	andeq	r8, r1, sl, lsl #5
     58c:	42911802 	addsmi	r1, r1, #131072	; 0x20000
     590:	12000018 	andne	r0, r0, #24
     594:	01018289 	smlabbeq	r1, r9, r2, r8
     598:	00000111 	andeq	r0, r0, r1, lsl r1
     59c:	49010113 	stmdbmi	r1, {r0, r1, r4, r8}
     5a0:	00130113 	andseq	r0, r3, r3, lsl r1
     5a4:	00211400 	eoreq	r1, r1, r0, lsl #8
     5a8:	052f1349 	streq	r1, [pc, #-841]!	; 267 <__code_start__-0x7d99>
     5ac:	15150000 	ldrne	r0, [r5, #-0]
     5b0:	49192701 	ldmdbmi	r9, {r0, r8, r9, sl, sp}
     5b4:	00130113 	andseq	r0, r3, r3, lsl r1
     5b8:	00051600 	andeq	r1, r5, r0, lsl #12
     5bc:	00001349 	andeq	r1, r0, r9, asr #6
     5c0:	03003417 	movweq	r3, #1047	; 0x417
     5c4:	3b0b3a0e 	blcc	2cee04 <__bss_end__+0x2c4eb4>
     5c8:	3f13490b 	svccc	0x0013490b
     5cc:	00193c19 	andseq	r3, r9, r9, lsl ip
     5d0:	012e1800 	teqeq	lr, r0, lsl #16
     5d4:	0e03193f 	mcreq	9, 0, r1, cr3, cr15, {1}
     5d8:	0b3b0b3a 	bleq	ec32c8 <__bss_end__+0xeb9378>
     5dc:	13491927 	movtne	r1, #39207	; 0x9927
     5e0:	0000193c 	andeq	r1, r0, ip, lsr r9
     5e4:	01110100 	tsteq	r1, r0, lsl #2
     5e8:	0b130e25 	bleq	4c3e84 <__bss_end__+0x4b9f34>
     5ec:	0e1b0e03 	cdpeq	14, 1, cr0, cr11, cr3, {0}
     5f0:	06120111 			; <UNDEFINED> instruction: 0x06120111
     5f4:	00001710 	andeq	r1, r0, r0, lsl r7
     5f8:	0b002402 	bleq	9608 <__data_end__+0x160>
     5fc:	030b3e0b 	movweq	r3, #48651	; 0xbe0b
     600:	03000008 	movweq	r0, #8
     604:	0b0b0024 	bleq	2c069c <__bss_end__+0x2b674c>
     608:	0e030b3e 	vmoveq.16	d3[0], r0
     60c:	2e040000 	cdpcs	0, 0, cr0, cr4, cr0, {0}
     610:	3a0e0301 	bcc	38121c <__bss_end__+0x3772cc>
     614:	270b3b0b 	strcs	r3, [fp, -fp, lsl #22]
     618:	11134919 	tstne	r3, r9, lsl r9
     61c:	40061201 	andmi	r1, r6, r1, lsl #4
     620:	19429718 	stmdbne	r2, {r3, r4, r8, r9, sl, ip, pc}^
     624:	00001301 	andeq	r1, r0, r1, lsl #6
     628:	03000505 	movweq	r0, #1285	; 0x505
     62c:	3b0b3a08 	blcc	2cee54 <__bss_end__+0x2c4f04>
     630:	0213490b 	andseq	r4, r3, #180224	; 0x2c000
     634:	06000017 			; <UNDEFINED> instruction: 0x06000017
     638:	01018289 	smlabbeq	r1, r9, r2, r8
     63c:	13310111 	teqne	r1, #1073741828	; 0x40000004
     640:	8a070000 	bhi	1c0648 <__bss_end__+0x1b66f8>
     644:	02000182 	andeq	r0, r0, #-2147483616	; 0x80000020
     648:	18429118 	stmdane	r2, {r3, r4, r8, ip, pc}^
     64c:	2e080000 	cdpcs	0, 0, cr0, cr8, cr0, {0}
     650:	03193f00 	tsteq	r9, #0, 30
     654:	3b0b3a0e 	blcc	2cee94 <__bss_end__+0x2c4f44>
     658:	1119270b 	tstne	r9, fp, lsl #14
     65c:	40061201 	andmi	r1, r6, r1, lsl #4
     660:	19429718 	stmdbne	r2, {r3, r4, r8, r9, sl, ip, pc}^
     664:	2e090000 	cdpcs	0, 0, cr0, cr9, cr0, {0}
     668:	03193f01 	tsteq	r9, #1, 30
     66c:	3b0b3a0e 	blcc	2ceeac <__bss_end__+0x2c4f5c>
     670:	1119270b 	tstne	r9, fp, lsl #14
     674:	40061201 	andmi	r1, r6, r1, lsl #4
     678:	19429718 	stmdbne	r2, {r3, r4, r8, r9, sl, ip, pc}^
     67c:	00001301 	andeq	r1, r0, r1, lsl #6
     680:	0300050a 	movweq	r0, #1290	; 0x50a
     684:	3b0b3a08 	blcc	2ceeac <__bss_end__+0x2c4f5c>
     688:	0213490b 	andseq	r4, r3, #180224	; 0x2c000
     68c:	0b000018 	bleq	6f4 <__code_start__-0x790c>
     690:	19270115 	stmdbne	r7!, {r0, r2, r4, r8}
     694:	13011349 	movwne	r1, #4937	; 0x1349
     698:	050c0000 	streq	r0, [ip, #-0]
     69c:	00134900 	andseq	r4, r3, r0, lsl #18
     6a0:	000f0d00 	andeq	r0, pc, r0, lsl #26
     6a4:	13490b0b 	movtne	r0, #39691	; 0x9b0b
     6a8:	340e0000 	strcc	r0, [lr], #-0
     6ac:	3a0e0300 	bcc	3812b4 <__bss_end__+0x377364>
     6b0:	490b3b0b 	stmdbmi	fp, {r0, r1, r3, r8, r9, fp, ip, sp}
     6b4:	02193f13 	andseq	r3, r9, #19, 30	; 0x4c
     6b8:	0f000018 	svceq	0x00000018
     6bc:	193f012e 	ldmdbne	pc!, {r1, r2, r3, r5, r8}	; <UNPREDICTABLE>
     6c0:	0b3a0e03 	bleq	e83ed4 <__bss_end__+0xe79f84>
     6c4:	19270b3b 	stmdbne	r7!, {r0, r1, r3, r4, r5, r8, r9, fp}
     6c8:	0000193c 	andeq	r1, r0, ip, lsr r9
     6cc:	01110100 	tsteq	r1, r0, lsl #2
     6d0:	0b130e25 	bleq	4c3f6c <__bss_end__+0x4ba01c>
     6d4:	0e1b0e03 	cdpeq	14, 1, cr0, cr11, cr3, {0}
     6d8:	06120111 			; <UNDEFINED> instruction: 0x06120111
     6dc:	00001710 	andeq	r1, r0, r0, lsl r7
     6e0:	0b002402 	bleq	96f0 <__data_end__+0x248>
     6e4:	030b3e0b 	movweq	r3, #48651	; 0xbe0b
     6e8:	03000008 	movweq	r0, #8
     6ec:	0b0b0024 	bleq	2c0784 <__bss_end__+0x2b6834>
     6f0:	0e030b3e 	vmoveq.16	d3[0], r0
     6f4:	0f040000 	svceq	0x00040000
     6f8:	490b0b00 	stmdbmi	fp, {r8, r9, fp}
     6fc:	05000013 	streq	r0, [r0, #-19]
     700:	13490026 	movtne	r0, #36902	; 0x9026
     704:	2e060000 	cdpcs	0, 0, cr0, cr6, cr0, {0}
     708:	03193f01 	tsteq	r9, #1, 30
     70c:	3b0b3a0e 	blcc	2cef4c <__bss_end__+0x2c4ffc>
     710:	4919270b 	ldmdbmi	r9, {r0, r1, r3, r8, r9, sl, sp}
     714:	12011113 	andne	r1, r1, #-1073741820	; 0xc0000004
     718:	96184006 	ldrls	r4, [r8], -r6
     71c:	13011942 	movwne	r1, #6466	; 0x1942
     720:	05070000 	streq	r0, [r7, #-0]
     724:	3a080300 	bcc	20132c <__bss_end__+0x1f73dc>
     728:	490b3b0b 	stmdbmi	fp, {r0, r1, r3, r8, r9, fp, ip, sp}
     72c:	00170213 	andseq	r0, r7, r3, lsl r2
     730:	01150800 	tsteq	r5, r0, lsl #16
     734:	13491927 	movtne	r1, #39207	; 0x9927
     738:	00001301 	andeq	r1, r0, r1, lsl #6
     73c:	49000509 	stmdbmi	r0, {r0, r3, r8, sl}
     740:	0a000013 	beq	794 <__code_start__-0x786c>
     744:	0e030034 	mcreq	0, 0, r0, cr3, cr4, {1}
     748:	0b3b0b3a 	bleq	ec3438 <__bss_end__+0xeb94e8>
     74c:	193f1349 	ldmdbne	pc!, {r0, r3, r6, r8, r9, ip}	; <UNPREDICTABLE>
     750:	0000193c 	andeq	r1, r0, ip, lsr r9
     754:	0300340b 	movweq	r3, #1035	; 0x40b
     758:	3b0b3a0e 	blcc	2cef98 <__bss_end__+0x2c5048>
     75c:	3f13490b 	svccc	0x0013490b
     760:	00180219 	andseq	r0, r8, r9, lsl r2
     764:	11010000 	mrsne	r0, (UNDEF: 1)
     768:	130e2501 	movwne	r2, #58625	; 0xe501
     76c:	1b0e030b 	blne	3813a0 <__bss_end__+0x377450>
     770:	1201110e 	andne	r1, r1, #-2147483645	; 0x80000003
     774:	00171006 	andseq	r1, r7, r6
     778:	00240200 	eoreq	r0, r4, r0, lsl #4
     77c:	0b3e0b0b 	bleq	f833b0 <__bss_end__+0xf79460>
     780:	00000803 	andeq	r0, r0, r3, lsl #16
     784:	0b002403 	bleq	9798 <__FUNCTION__.4258+0x54>
     788:	030b3e0b 	movweq	r3, #48651	; 0xbe0b
     78c:	0400000e 	streq	r0, [r0], #-14
     790:	0b0b000f 	bleq	2c07d4 <__bss_end__+0x2b6884>
     794:	0f050000 	svceq	0x00050000
     798:	490b0b00 	stmdbmi	fp, {r8, r9, fp}
     79c:	06000013 			; <UNDEFINED> instruction: 0x06000013
     7a0:	13490026 	movtne	r0, #36902	; 0x9026
     7a4:	16070000 	strne	r0, [r7], -r0
     7a8:	3a0e0300 	bcc	3813b0 <__bss_end__+0x377460>
     7ac:	490b3b0b 	stmdbmi	fp, {r0, r1, r3, r8, r9, fp, ip, sp}
     7b0:	08000013 	stmdaeq	r0, {r0, r1, r4}
     7b4:	0e030113 	mcreq	1, 0, r0, cr3, cr3, {0}
     7b8:	0b3a0b0b 	bleq	e833ec <__bss_end__+0xe7949c>
     7bc:	13010b3b 	movwne	r0, #6971	; 0x1b3b
     7c0:	0d090000 	stceq	0, cr0, [r9, #-0]
     7c4:	490e0300 	stmdbmi	lr, {r8, r9}
     7c8:	340b3813 	strcc	r3, [fp], #-2067	; 0x813
     7cc:	0a000019 	beq	838 <__code_start__-0x77c8>
     7d0:	0e03012e 	adfeqsp	f0, f3, #0.5
     7d4:	0b3b0b3a 	bleq	ec34c4 <__bss_end__+0xeb9574>
     7d8:	13491927 	movtne	r1, #39207	; 0x9927
     7dc:	06120111 			; <UNDEFINED> instruction: 0x06120111
     7e0:	42971840 	addsmi	r1, r7, #64, 16	; 0x400000
     7e4:	00130119 	andseq	r0, r3, r9, lsl r1
     7e8:	00050b00 	andeq	r0, r5, r0, lsl #22
     7ec:	0b3a0803 	bleq	e82800 <__bss_end__+0xe788b0>
     7f0:	13490b3b 	movtne	r0, #39739	; 0x9b3b
     7f4:	00001702 	andeq	r1, r0, r2, lsl #14
     7f8:	03012e0c 	movweq	r2, #7692	; 0x1e0c
     7fc:	3b0b3a08 	blcc	2cf024 <__bss_end__+0x2c50d4>
     800:	4919270b 	ldmdbmi	r9, {r0, r1, r3, r8, r9, sl, sp}
     804:	12011113 	andne	r1, r1, #-1073741820	; 0xc0000004
     808:	97184006 	ldrls	r4, [r8, -r6]
     80c:	13011942 	movwne	r1, #6466	; 0x1942
     810:	050d0000 	streq	r0, [sp, #-0]
     814:	3a0e0300 	bcc	38141c <__bss_end__+0x3774cc>
     818:	490b3b0b 	stmdbmi	fp, {r0, r1, r3, r8, r9, fp, ip, sp}
     81c:	00170213 	andseq	r0, r7, r3, lsl r2
     820:	00050e00 	andeq	r0, r5, r0, lsl #28
     824:	0b3a0e03 	bleq	e84038 <__bss_end__+0xe7a0e8>
     828:	13490b3b 	movtne	r0, #39739	; 0x9b3b
     82c:	00001802 	andeq	r1, r0, r2, lsl #16
     830:	0300340f 	movweq	r3, #1039	; 0x40f
     834:	3b0b3a08 	blcc	2cf05c <__bss_end__+0x2c510c>
     838:	0213490b 	andseq	r4, r3, #180224	; 0x2c000
     83c:	10000018 	andne	r0, r0, r8, lsl r0
     840:	08030034 	stmdaeq	r3, {r2, r4, r5}
     844:	0b3b0b3a 	bleq	ec3534 <__bss_end__+0xeb95e4>
     848:	17021349 	strne	r1, [r2, -r9, asr #6]
     84c:	34110000 	ldrcc	r0, [r1], #-0
     850:	490e0300 	stmdbmi	lr, {r8, r9}
     854:	02193413 	andseq	r3, r9, #318767104	; 0x13000000
     858:	12000018 	andne	r0, r0, #24
     85c:	0111010b 	tsteq	r1, fp, lsl #2
     860:	13010612 	movwne	r0, #5650	; 0x1612
     864:	34130000 	ldrcc	r0, [r3], #-0
     868:	3a0e0300 	bcc	381470 <__bss_end__+0x377520>
     86c:	490b3b0b 	stmdbmi	fp, {r0, r1, r3, r8, r9, fp, ip, sp}
     870:	00170213 	andseq	r0, r7, r3, lsl r2
     874:	82891400 	addhi	r1, r9, #0, 8
     878:	01110001 	tsteq	r1, r1
     87c:	00001331 	andeq	r1, r0, r1, lsr r3
     880:	01828915 	orreq	r8, r2, r5, lsl r9
     884:	31011101 	tstcc	r1, r1, lsl #2
     888:	00130113 	andseq	r0, r3, r3, lsl r1
     88c:	828a1600 	addhi	r1, sl, #0, 12
     890:	18020001 	stmdane	r2, {r0}
     894:	00184291 	mulseq	r8, r1, r2
     898:	82891700 	addhi	r1, r9, #0, 14
     89c:	01110101 	tsteq	r1, r1, lsl #2
     8a0:	00001331 	andeq	r1, r0, r1, lsr r3
     8a4:	49010118 	stmdbmi	r1, {r3, r4, r8}
     8a8:	00130113 	andseq	r0, r3, r3, lsl r1
     8ac:	00211900 	eoreq	r1, r1, r0, lsl #18
     8b0:	0b2f1349 	bleq	bc55dc <__bss_end__+0xbbb68c>
     8b4:	2e1a0000 	cdpcs	0, 1, cr0, cr10, cr0, {0}
     8b8:	03193f01 	tsteq	r9, #1, 30
     8bc:	3b0b3a0e 	blcc	2cf0fc <__bss_end__+0x2c51ac>
     8c0:	1119270b 	tstne	r9, fp, lsl #14
     8c4:	40061201 	andmi	r1, r6, r1, lsl #4
     8c8:	19429718 	stmdbne	r2, {r3, r4, r8, r9, sl, ip, pc}^
     8cc:	00001301 	andeq	r1, r0, r1, lsl #6
     8d0:	2701151b 	smladcs	r1, fp, r5, r1
     8d4:	01134919 	tsteq	r3, r9, lsl r9
     8d8:	1c000013 	stcne	0, cr0, [r0], {19}
     8dc:	13490005 	movtne	r0, #36869	; 0x9005
     8e0:	2e1d0000 	cdpcs	0, 1, cr0, cr13, cr0, {0}
     8e4:	03193f01 	tsteq	r9, #1, 30
     8e8:	3b0b3a0e 	blcc	2cf128 <__bss_end__+0x2c51d8>
     8ec:	4919270b 	ldmdbmi	r9, {r0, r1, r3, r8, r9, sl, sp}
     8f0:	12011113 	andne	r1, r1, #-1073741820	; 0xc0000004
     8f4:	97184006 	ldrls	r4, [r8, -r6]
     8f8:	13011942 	movwne	r1, #6466	; 0x1942
     8fc:	0b1e0000 	bleq	780904 <__bss_end__+0x7769b4>
     900:	12011101 	andne	r1, r1, #1073741824	; 0x40000000
     904:	1f000006 	svcne	0x00000006
     908:	01018289 	smlabbeq	r1, r9, r2, r8
     90c:	13010111 	movwne	r0, #4369	; 0x1111
     910:	34200000 	strtcc	r0, [r0], #-0
     914:	3a0e0300 	bcc	38151c <__bss_end__+0x3775cc>
     918:	490b3b0b 	stmdbmi	fp, {r0, r1, r3, r8, r9, fp, ip, sp}
     91c:	3c193f13 	ldccc	15, cr3, [r9], {19}
     920:	21000019 	tstcs	r0, r9, lsl r0
     924:	193f002e 	ldmdbne	pc!, {r1, r2, r3, r5}	; <UNPREDICTABLE>
     928:	0b3a0e03 	bleq	e8413c <__bss_end__+0xe7a1ec>
     92c:	19270b3b 	stmdbne	r7!, {r0, r1, r3, r4, r5, r8, r9, fp}
     930:	0000193c 	andeq	r1, r0, ip, lsr r9
     934:	3f012e22 	svccc	0x00012e22
     938:	3a0e0319 	bcc	3815a4 <__bss_end__+0x377654>
     93c:	270b3b0b 	strcs	r3, [fp, -fp, lsl #22]
     940:	3c134919 	ldccc	9, cr4, [r3], {25}
     944:	00130119 	andseq	r0, r3, r9, lsl r1
     948:	00182300 	andseq	r2, r8, r0, lsl #6
     94c:	01000000 	mrseq	r0, (UNDEF: 0)
     950:	0e250111 	mcreq	1, 1, r0, cr5, cr1, {0}
     954:	0e030b13 	vmoveq.32	d3[0], r0
     958:	01110e1b 	tsteq	r1, fp, lsl lr
     95c:	17100612 			; <UNDEFINED> instruction: 0x17100612
     960:	24020000 	strcs	r0, [r2], #-0
     964:	3e0b0b00 	vmlacc.f64	d0, d11, d0
     968:	0008030b 	andeq	r0, r8, fp, lsl #6
     96c:	00240300 	eoreq	r0, r4, r0, lsl #6
     970:	0b3e0b0b 	bleq	f835a4 <__bss_end__+0xf79654>
     974:	00000e03 	andeq	r0, r0, r3, lsl #28
     978:	3f012e04 	svccc	0x00012e04
     97c:	3a0e0319 	bcc	3815e8 <__bss_end__+0x377698>
     980:	270b3b0b 	strcs	r3, [fp, -fp, lsl #22]
     984:	12011119 	andne	r1, r1, #1073741830	; 0x40000006
     988:	97184006 	ldrls	r4, [r8, -r6]
     98c:	13011942 	movwne	r1, #6466	; 0x1942
     990:	34050000 	strcc	r0, [r5], #-0
     994:	3a080300 	bcc	20159c <__bss_end__+0x1f764c>
     998:	490b3b0b 	stmdbmi	fp, {r0, r1, r3, r8, r9, fp, ip, sp}
     99c:	00170213 	andseq	r0, r7, r3, lsl r2
     9a0:	012e0600 	teqeq	lr, r0, lsl #12
     9a4:	0e03193f 	mcreq	9, 0, r1, cr3, cr15, {1}
     9a8:	0b3b0b3a 	bleq	ec3698 <__bss_end__+0xeb9748>
     9ac:	01111927 	tsteq	r1, r7, lsr #18
     9b0:	18400612 	stmdane	r0, {r1, r4, r9, sl}^
     9b4:	00194297 	mulseq	r9, r7, r2
     9b8:	11010000 	mrsne	r0, (UNDEF: 1)
     9bc:	130e2501 	movwne	r2, #58625	; 0xe501
     9c0:	1b0e030b 	blne	3815f4 <__bss_end__+0x3776a4>
     9c4:	1201110e 	andne	r1, r1, #-2147483645	; 0x80000003
     9c8:	00171006 	andseq	r1, r7, r6
     9cc:	00240200 	eoreq	r0, r4, r0, lsl #4
     9d0:	0b3e0b0b 	bleq	f83604 <__bss_end__+0xf796b4>
     9d4:	00000803 	andeq	r0, r0, r3, lsl #16
     9d8:	0b002403 	bleq	99ec <__FUNCTION__.4220+0x14>
     9dc:	030b3e0b 	movweq	r3, #48651	; 0xbe0b
     9e0:	0400000e 	streq	r0, [r0], #-14
     9e4:	0b0b000f 	bleq	2c0a28 <__bss_end__+0x2b6ad8>
     9e8:	00001349 	andeq	r1, r0, r9, asr #6
     9ec:	49002605 	stmdbmi	r0, {r0, r2, r9, sl, sp}
     9f0:	06000013 			; <UNDEFINED> instruction: 0x06000013
     9f4:	193f012e 	ldmdbne	pc!, {r1, r2, r3, r5, r8}	; <UNPREDICTABLE>
     9f8:	0b3a0e03 	bleq	e8420c <__bss_end__+0xe7a2bc>
     9fc:	19270b3b 	stmdbne	r7!, {r0, r1, r3, r4, r5, r8, r9, fp}
     a00:	06120111 			; <UNDEFINED> instruction: 0x06120111
     a04:	42971840 	addsmi	r1, r7, #64, 16	; 0x400000
     a08:	00130119 	andseq	r0, r3, r9, lsl r1
     a0c:	82890700 	addhi	r0, r9, #0, 14
     a10:	01110001 	tsteq	r1, r1
     a14:	00001331 	andeq	r1, r0, r1, lsr r3
     a18:	01828908 	orreq	r8, r2, r8, lsl #18
     a1c:	01011101 	tsteq	r1, r1, lsl #2
     a20:	09000013 	stmdbeq	r0, {r0, r1, r4}
     a24:	0001828a 	andeq	r8, r1, sl, lsl #5
     a28:	42911802 	addsmi	r1, r1, #131072	; 0x20000
     a2c:	0a000018 	beq	a94 <__code_start__-0x756c>
     a30:	01018289 	smlabbeq	r1, r9, r2, r8
     a34:	13310111 	teqne	r1, #1073741828	; 0x40000004
     a38:	00001301 	andeq	r1, r0, r1, lsl #6
     a3c:	2701150b 	strcs	r1, [r1, -fp, lsl #10]
     a40:	01134919 	tsteq	r3, r9, lsl r9
     a44:	0c000013 	stceq	0, cr0, [r0], {19}
     a48:	13490005 	movtne	r0, #36869	; 0x9005
     a4c:	340d0000 	strcc	r0, [sp], #-0
     a50:	3a0e0300 	bcc	381658 <__bss_end__+0x377708>
     a54:	490b3b0b 	stmdbmi	fp, {r0, r1, r3, r8, r9, fp, ip, sp}
     a58:	3c193f13 	ldccc	15, cr3, [r9], {19}
     a5c:	0e000019 	mcreq	0, 0, r0, cr0, cr9, {0}
     a60:	193f002e 	ldmdbne	pc!, {r1, r2, r3, r5}	; <UNPREDICTABLE>
     a64:	0b3a0e03 	bleq	e84278 <__bss_end__+0xe7a328>
     a68:	19270b3b 	stmdbne	r7!, {r0, r1, r3, r4, r5, r8, r9, fp}
     a6c:	0000193c 	andeq	r1, r0, ip, lsr r9
     a70:	3f012e0f 	svccc	0x00012e0f
     a74:	3a0e0319 	bcc	3816e0 <__bss_end__+0x377790>
     a78:	270b3b0b 	strcs	r3, [fp, -fp, lsl #22]
     a7c:	01193c19 	tsteq	r9, r9, lsl ip
     a80:	00000013 	andeq	r0, r0, r3, lsl r0
     a84:	25011101 	strcs	r1, [r1, #-257]	; 0x101
     a88:	030b130e 	movweq	r1, #45838	; 0xb30e
     a8c:	110e1b0e 	tstne	lr, lr, lsl #22
     a90:	10061201 	andne	r1, r6, r1, lsl #4
     a94:	02000017 	andeq	r0, r0, #23
     a98:	0b0b0024 	bleq	2c0b30 <__bss_end__+0x2b6be0>
     a9c:	08030b3e 	stmdaeq	r3, {r1, r2, r3, r4, r5, r8, r9, fp}
     aa0:	24030000 	strcs	r0, [r3], #-0
     aa4:	3e0b0b00 	vmlacc.f64	d0, d11, d0
     aa8:	000e030b 	andeq	r0, lr, fp, lsl #6
     aac:	012e0400 	teqeq	lr, r0, lsl #8
     ab0:	0e03193f 	mcreq	9, 0, r1, cr3, cr15, {1}
     ab4:	0b3b0b3a 	bleq	ec37a4 <__bss_end__+0xeb9854>
     ab8:	06120111 			; <UNDEFINED> instruction: 0x06120111
     abc:	42971840 	addsmi	r1, r7, #64, 16	; 0x400000
     ac0:	00130119 	andseq	r0, r3, r9, lsl r1
     ac4:	00340500 	eorseq	r0, r4, r0, lsl #10
     ac8:	0b3a0e03 	bleq	e842dc <__bss_end__+0xe7a38c>
     acc:	13490b3b 	movtne	r0, #39739	; 0x9b3b
     ad0:	193c193f 	ldmdbne	ip!, {r0, r1, r2, r3, r4, r5, r8, fp, ip}
     ad4:	2e060000 	cdpcs	0, 0, cr0, cr6, cr0, {0}
     ad8:	03193f00 	tsteq	r9, #0, 30
     adc:	3b0b3a0e 	blcc	2cf31c <__bss_end__+0x2c53cc>
     ae0:	3c19270b 	ldccc	7, cr2, [r9], {11}
     ae4:	07000019 	smladeq	r0, r9, r0, r0
     ae8:	08030034 	stmdaeq	r3, {r2, r4, r5}
     aec:	0b3b0b3a 	bleq	ec37dc <__bss_end__+0xeb988c>
     af0:	17021349 	strne	r1, [r2, -r9, asr #6]
     af4:	34080000 	strcc	r0, [r8], #-0
     af8:	3a0e0300 	bcc	381700 <__bss_end__+0x3777b0>
     afc:	490b3b0b 	stmdbmi	fp, {r0, r1, r3, r8, r9, fp, ip, sp}
     b00:	09000013 	stmdbeq	r0, {r0, r1, r4}
     b04:	00018289 	andeq	r8, r1, r9, lsl #5
     b08:	13310111 	teqne	r1, #1073741828	; 0x40000004
     b0c:	0f0a0000 	svceq	0x000a0000
     b10:	490b0b00 	stmdbmi	fp, {r8, r9, fp}
     b14:	00000013 	andeq	r0, r0, r3, lsl r0
     b18:	25011101 	strcs	r1, [r1, #-257]	; 0x101
     b1c:	030b130e 	movweq	r1, #45838	; 0xb30e
     b20:	110e1b0e 	tstne	lr, lr, lsl #22
     b24:	10061201 	andne	r1, r6, r1, lsl #4
     b28:	02000017 	andeq	r0, r0, #23
     b2c:	0b0b0024 	bleq	2c0bc4 <__bss_end__+0x2b6c74>
     b30:	08030b3e 	stmdaeq	r3, {r1, r2, r3, r4, r5, r8, r9, fp}
     b34:	24030000 	strcs	r0, [r3], #-0
     b38:	3e0b0b00 	vmlacc.f64	d0, d11, d0
     b3c:	000e030b 	andeq	r0, lr, fp, lsl #6
     b40:	000f0400 	andeq	r0, pc, r0, lsl #8
     b44:	13490b0b 	movtne	r0, #39691	; 0x9b0b
     b48:	26050000 	strcs	r0, [r5], -r0
     b4c:	00134900 	andseq	r4, r3, r0, lsl #18
     b50:	012e0600 	teqeq	lr, r0, lsl #12
     b54:	0e03193f 	mcreq	9, 0, r1, cr3, cr15, {1}
     b58:	0b3b0b3a 	bleq	ec3848 <__bss_end__+0xeb98f8>
     b5c:	01111927 	tsteq	r1, r7, lsr #18
     b60:	18400612 	stmdane	r0, {r1, r4, r9, sl}^
     b64:	01194297 			; <UNDEFINED> instruction: 0x01194297
     b68:	07000013 	smladeq	r0, r3, r0, r0
     b6c:	08030005 	stmdaeq	r3, {r0, r2}
     b70:	0b3b0b3a 	bleq	ec3860 <__bss_end__+0xeb9910>
     b74:	17021349 	strne	r1, [r2, -r9, asr #6]
     b78:	34080000 	strcc	r0, [r8], #-0
     b7c:	490e0300 	stmdbmi	lr, {r8, r9}
     b80:	02193413 	andseq	r3, r9, #318767104	; 0x13000000
     b84:	09000018 	stmdbeq	r0, {r3, r4}
     b88:	00018289 	andeq	r8, r1, r9, lsl #5
     b8c:	13310111 	teqne	r1, #1073741828	; 0x40000004
     b90:	890a0000 	stmdbhi	sl, {}	; <UNPREDICTABLE>
     b94:	11010182 	smlabbne	r1, r2, r1, r0
     b98:	01133101 	tsteq	r3, r1, lsl #2
     b9c:	0b000013 	bleq	bf0 <__code_start__-0x7410>
     ba0:	0001828a 	andeq	r8, r1, sl, lsl #5
     ba4:	42911802 	addsmi	r1, r1, #131072	; 0x20000
     ba8:	0c000018 	stceq	0, cr0, [r0], {24}
     bac:	13490101 	movtne	r0, #37121	; 0x9101
     bb0:	00001301 	andeq	r1, r0, r1, lsl #6
     bb4:	4900210d 	stmdbmi	r0, {r0, r2, r3, r8, sp}
     bb8:	000b2f13 	andeq	r2, fp, r3, lsl pc
     bbc:	002e0e00 	eoreq	r0, lr, r0, lsl #28
     bc0:	0e03193f 	mcreq	9, 0, r1, cr3, cr15, {1}
     bc4:	0b3b0b3a 	bleq	ec38b4 <__bss_end__+0xeb9964>
     bc8:	193c1927 	ldmdbne	ip!, {r0, r1, r2, r5, r8, fp, ip}
     bcc:	2e0f0000 	cdpcs	0, 0, cr0, cr15, cr0, {0}
     bd0:	03193f01 	tsteq	r9, #1, 30
     bd4:	3b0b3a0e 	blcc	2cf414 <__bss_end__+0x2c54c4>
     bd8:	4919270b 	ldmdbmi	r9, {r0, r1, r3, r8, r9, sl, sp}
     bdc:	01193c13 	tsteq	r9, r3, lsl ip
     be0:	10000013 	andne	r0, r0, r3, lsl r0
     be4:	13490005 	movtne	r0, #36869	; 0x9005
     be8:	18110000 	ldmdane	r1, {}	; <UNPREDICTABLE>
     bec:	00000000 	andeq	r0, r0, r0
     bf0:	25011101 	strcs	r1, [r1, #-257]	; 0x101
     bf4:	030b130e 	movweq	r1, #45838	; 0xb30e
     bf8:	110e1b0e 	tstne	lr, lr, lsl #22
     bfc:	10061201 	andne	r1, r6, r1, lsl #4
     c00:	02000017 	andeq	r0, r0, #23
     c04:	0b0b0024 	bleq	2c0c9c <__bss_end__+0x2b6d4c>
     c08:	08030b3e 	stmdaeq	r3, {r1, r2, r3, r4, r5, r8, r9, fp}
     c0c:	24030000 	strcs	r0, [r3], #-0
     c10:	3e0b0b00 	vmlacc.f64	d0, d11, d0
     c14:	000e030b 	andeq	r0, lr, fp, lsl #6
     c18:	000f0400 	andeq	r0, pc, r0, lsl #8
     c1c:	13490b0b 	movtne	r0, #39691	; 0x9b0b
     c20:	26050000 	strcs	r0, [r5], -r0
     c24:	00134900 	andseq	r4, r3, r0, lsl #18
     c28:	012e0600 	teqeq	lr, r0, lsl #12
     c2c:	0e03193f 	mcreq	9, 0, r1, cr3, cr15, {1}
     c30:	0b3b0b3a 	bleq	ec3920 <__bss_end__+0xeb99d0>
     c34:	01111927 	tsteq	r1, r7, lsr #18
     c38:	18400612 	stmdane	r0, {r1, r4, r9, sl}^
     c3c:	01194297 			; <UNDEFINED> instruction: 0x01194297
     c40:	07000013 	smladeq	r0, r3, r0, r0
     c44:	08030005 	stmdaeq	r3, {r0, r2}
     c48:	0b3b0b3a 	bleq	ec3938 <__bss_end__+0xeb99e8>
     c4c:	17021349 	strne	r1, [r2, -r9, asr #6]
     c50:	34080000 	strcc	r0, [r8], #-0
     c54:	490e0300 	stmdbmi	lr, {r8, r9}
     c58:	02193413 	andseq	r3, r9, #318767104	; 0x13000000
     c5c:	09000018 	stmdbeq	r0, {r3, r4}
     c60:	00018289 	andeq	r8, r1, r9, lsl #5
     c64:	13310111 	teqne	r1, #1073741828	; 0x40000004
     c68:	890a0000 	stmdbhi	sl, {}	; <UNPREDICTABLE>
     c6c:	11010182 	smlabbne	r1, r2, r1, r0
     c70:	01133101 	tsteq	r3, r1, lsl #2
     c74:	0b000013 	bleq	cc8 <__code_start__-0x7338>
     c78:	0001828a 	andeq	r8, r1, sl, lsl #5
     c7c:	42911802 	addsmi	r1, r1, #131072	; 0x20000
     c80:	0c000018 	stceq	0, cr0, [r0], {24}
     c84:	13490101 	movtne	r0, #37121	; 0x9101
     c88:	00001301 	andeq	r1, r0, r1, lsl #6
     c8c:	4900210d 	stmdbmi	r0, {r0, r2, r3, r8, sp}
     c90:	000b2f13 	andeq	r2, fp, r3, lsl pc
     c94:	002e0e00 	eoreq	r0, lr, r0, lsl #28
     c98:	0e03193f 	mcreq	9, 0, r1, cr3, cr15, {1}
     c9c:	0b3b0b3a 	bleq	ec398c <__bss_end__+0xeb9a3c>
     ca0:	193c1927 	ldmdbne	ip!, {r0, r1, r2, r5, r8, fp, ip}
     ca4:	2e0f0000 	cdpcs	0, 0, cr0, cr15, cr0, {0}
     ca8:	03193f01 	tsteq	r9, #1, 30
     cac:	3b0b3a0e 	blcc	2cf4ec <__bss_end__+0x2c559c>
     cb0:	4919270b 	ldmdbmi	r9, {r0, r1, r3, r8, r9, sl, sp}
     cb4:	01193c13 	tsteq	r9, r3, lsl ip
     cb8:	10000013 	andne	r0, r0, r3, lsl r0
     cbc:	13490005 	movtne	r0, #36869	; 0x9005
     cc0:	18110000 	ldmdane	r1, {}	; <UNPREDICTABLE>
     cc4:	00000000 	andeq	r0, r0, r0
     cc8:	25011101 	strcs	r1, [r1, #-257]	; 0x101
     ccc:	030b130e 	movweq	r1, #45838	; 0xb30e
     cd0:	110e1b0e 	tstne	lr, lr, lsl #22
     cd4:	10061201 	andne	r1, r6, r1, lsl #4
     cd8:	02000017 	andeq	r0, r0, #23
     cdc:	0b0b0024 	bleq	2c0d74 <__bss_end__+0x2b6e24>
     ce0:	08030b3e 	stmdaeq	r3, {r1, r2, r3, r4, r5, r8, r9, fp}
     ce4:	24030000 	strcs	r0, [r3], #-0
     ce8:	3e0b0b00 	vmlacc.f64	d0, d11, d0
     cec:	000e030b 	andeq	r0, lr, fp, lsl #6
     cf0:	000f0400 	andeq	r0, pc, r0, lsl #8
     cf4:	13490b0b 	movtne	r0, #39691	; 0x9b0b
     cf8:	26050000 	strcs	r0, [r5], -r0
     cfc:	00134900 	andseq	r4, r3, r0, lsl #18
     d00:	01010600 	tsteq	r1, r0, lsl #12
     d04:	13011349 	movwne	r1, #4937	; 0x1349
     d08:	21070000 	mrscs	r0, (UNDEF: 7)
     d0c:	2f134900 	svccs	0x00134900
     d10:	0800000b 	stmdaeq	r0, {r0, r1, r3}
     d14:	193f012e 	ldmdbne	pc!, {r1, r2, r3, r5, r8}	; <UNPREDICTABLE>
     d18:	0b3a0e03 	bleq	e8452c <__bss_end__+0xe7a5dc>
     d1c:	19270b3b 	stmdbne	r7!, {r0, r1, r3, r4, r5, r8, r9, fp}
     d20:	06120111 			; <UNDEFINED> instruction: 0x06120111
     d24:	42971840 	addsmi	r1, r7, #64, 16	; 0x400000
     d28:	00130119 	andseq	r0, r3, r9, lsl r1
     d2c:	00050900 	andeq	r0, r5, r0, lsl #18
     d30:	0b3a0803 	bleq	e82d44 <__bss_end__+0xe78df4>
     d34:	13490b3b 	movtne	r0, #39739	; 0x9b3b
     d38:	00001702 	andeq	r1, r0, r2, lsl #14
     d3c:	0300340a 	movweq	r3, #1034	; 0x40a
     d40:	3413490e 	ldrcc	r4, [r3], #-2318	; 0x90e
     d44:	00180219 	andseq	r0, r8, r9, lsl r2
     d48:	82890b00 	addhi	r0, r9, #0, 22
     d4c:	01110001 	tsteq	r1, r1
     d50:	00001331 	andeq	r1, r0, r1, lsr r3
     d54:	0182890c 	orreq	r8, r2, ip, lsl #18
     d58:	31011101 	tstcc	r1, r1, lsl #2
     d5c:	00130113 	andseq	r0, r3, r3, lsl r1
     d60:	828a0d00 	addhi	r0, sl, #0, 26
     d64:	18020001 	stmdane	r2, {r0}
     d68:	00184291 	mulseq	r8, r1, r2
     d6c:	002e0e00 	eoreq	r0, lr, r0, lsl #28
     d70:	0e03193f 	mcreq	9, 0, r1, cr3, cr15, {1}
     d74:	0b3b0b3a 	bleq	ec3a64 <__bss_end__+0xeb9b14>
     d78:	193c1927 	ldmdbne	ip!, {r0, r1, r2, r5, r8, fp, ip}
     d7c:	2e0f0000 	cdpcs	0, 0, cr0, cr15, cr0, {0}
     d80:	03193f01 	tsteq	r9, #1, 30
     d84:	3b0b3a0e 	blcc	2cf5c4 <__bss_end__+0x2c5674>
     d88:	4919270b 	ldmdbmi	r9, {r0, r1, r3, r8, r9, sl, sp}
     d8c:	01193c13 	tsteq	r9, r3, lsl ip
     d90:	10000013 	andne	r0, r0, r3, lsl r0
     d94:	13490005 	movtne	r0, #36869	; 0x9005
     d98:	18110000 	ldmdane	r1, {}	; <UNPREDICTABLE>
     d9c:	00000000 	andeq	r0, r0, r0
     da0:	25011101 	strcs	r1, [r1, #-257]	; 0x101
     da4:	030b130e 	movweq	r1, #45838	; 0xb30e
     da8:	110e1b0e 	tstne	lr, lr, lsl #22
     dac:	10061201 	andne	r1, r6, r1, lsl #4
     db0:	02000017 	andeq	r0, r0, #23
     db4:	0b0b0024 	bleq	2c0e4c <__bss_end__+0x2b6efc>
     db8:	08030b3e 	stmdaeq	r3, {r1, r2, r3, r4, r5, r8, r9, fp}
     dbc:	24030000 	strcs	r0, [r3], #-0
     dc0:	3e0b0b00 	vmlacc.f64	d0, d11, d0
     dc4:	000e030b 	andeq	r0, lr, fp, lsl #6
     dc8:	000f0400 	andeq	r0, pc, r0, lsl #8
     dcc:	13490b0b 	movtne	r0, #39691	; 0x9b0b
     dd0:	26050000 	strcs	r0, [r5], -r0
     dd4:	00134900 	andseq	r4, r3, r0, lsl #18
     dd8:	012e0600 	teqeq	lr, r0, lsl #12
     ddc:	0e03193f 	mcreq	9, 0, r1, cr3, cr15, {1}
     de0:	0b3b0b3a 	bleq	ec3ad0 <__bss_end__+0xeb9b80>
     de4:	01111927 	tsteq	r1, r7, lsr #18
     de8:	18400612 	stmdane	r0, {r1, r4, r9, sl}^
     dec:	01194297 			; <UNDEFINED> instruction: 0x01194297
     df0:	07000013 	smladeq	r0, r3, r0, r0
     df4:	08030005 	stmdaeq	r3, {r0, r2}
     df8:	0b3b0b3a 	bleq	ec3ae8 <__bss_end__+0xeb9b98>
     dfc:	17021349 	strne	r1, [r2, -r9, asr #6]
     e00:	34080000 	strcc	r0, [r8], #-0
     e04:	490e0300 	stmdbmi	lr, {r8, r9}
     e08:	02193413 	andseq	r3, r9, #318767104	; 0x13000000
     e0c:	09000018 	stmdbeq	r0, {r3, r4}
     e10:	00018289 	andeq	r8, r1, r9, lsl #5
     e14:	13310111 	teqne	r1, #1073741828	; 0x40000004
     e18:	890a0000 	stmdbhi	sl, {}	; <UNPREDICTABLE>
     e1c:	11010182 	smlabbne	r1, r2, r1, r0
     e20:	01133101 	tsteq	r3, r1, lsl #2
     e24:	0b000013 	bleq	e78 <__code_start__-0x7188>
     e28:	0001828a 	andeq	r8, r1, sl, lsl #5
     e2c:	42911802 	addsmi	r1, r1, #131072	; 0x20000
     e30:	0c000018 	stceq	0, cr0, [r0], {24}
     e34:	13490101 	movtne	r0, #37121	; 0x9101
     e38:	00001301 	andeq	r1, r0, r1, lsl #6
     e3c:	4900210d 	stmdbmi	r0, {r0, r2, r3, r8, sp}
     e40:	000b2f13 	andeq	r2, fp, r3, lsl pc
     e44:	002e0e00 	eoreq	r0, lr, r0, lsl #28
     e48:	0e03193f 	mcreq	9, 0, r1, cr3, cr15, {1}
     e4c:	0b3b0b3a 	bleq	ec3b3c <__bss_end__+0xeb9bec>
     e50:	193c1927 	ldmdbne	ip!, {r0, r1, r2, r5, r8, fp, ip}
     e54:	2e0f0000 	cdpcs	0, 0, cr0, cr15, cr0, {0}
     e58:	03193f01 	tsteq	r9, #1, 30
     e5c:	3b0b3a0e 	blcc	2cf69c <__bss_end__+0x2c574c>
     e60:	4919270b 	ldmdbmi	r9, {r0, r1, r3, r8, r9, sl, sp}
     e64:	01193c13 	tsteq	r9, r3, lsl ip
     e68:	10000013 	andne	r0, r0, r3, lsl r0
     e6c:	13490005 	movtne	r0, #36869	; 0x9005
     e70:	18110000 	ldmdane	r1, {}	; <UNPREDICTABLE>
     e74:	00000000 	andeq	r0, r0, r0
     e78:	25011101 	strcs	r1, [r1, #-257]	; 0x101
     e7c:	030b130e 	movweq	r1, #45838	; 0xb30e
     e80:	110e1b0e 	tstne	lr, lr, lsl #22
     e84:	10061201 	andne	r1, r6, r1, lsl #4
     e88:	02000017 	andeq	r0, r0, #23
     e8c:	0b0b0024 	bleq	2c0f24 <__bss_end__+0x2b6fd4>
     e90:	08030b3e 	stmdaeq	r3, {r1, r2, r3, r4, r5, r8, r9, fp}
     e94:	24030000 	strcs	r0, [r3], #-0
     e98:	3e0b0b00 	vmlacc.f64	d0, d11, d0
     e9c:	000e030b 	andeq	r0, lr, fp, lsl #6
     ea0:	002e0400 	eoreq	r0, lr, r0, lsl #8
     ea4:	0e03193f 	mcreq	9, 0, r1, cr3, cr15, {1}
     ea8:	0b3b0b3a 	bleq	ec3b98 <__bss_end__+0xeb9c48>
     eac:	01111927 	tsteq	r1, r7, lsr #18
     eb0:	18400612 	stmdane	r0, {r1, r4, r9, sl}^
     eb4:	00194297 	mulseq	r9, r7, r2
     eb8:	11010000 	mrsne	r0, (UNDEF: 1)
     ebc:	130e2501 	movwne	r2, #58625	; 0xe501
     ec0:	1b0e030b 	blne	381af4 <__bss_end__+0x377ba4>
     ec4:	1201110e 	andne	r1, r1, #-2147483645	; 0x80000003
     ec8:	00171006 	andseq	r1, r7, r6
     ecc:	00240200 	eoreq	r0, r4, r0, lsl #4
     ed0:	0b3e0b0b 	bleq	f83b04 <__bss_end__+0xf79bb4>
     ed4:	00000803 	andeq	r0, r0, r3, lsl #16
     ed8:	0b002403 	bleq	9eec <buf.4189+0x3a0>
     edc:	030b3e0b 	movweq	r3, #48651	; 0xbe0b
     ee0:	0400000e 	streq	r0, [r0], #-14
     ee4:	0b0b0104 	bleq	2c12fc <__bss_end__+0x2b73ac>
     ee8:	0b3b0b3a 	bleq	ec3bd8 <__bss_end__+0xeb9c88>
     eec:	00001301 	andeq	r1, r0, r1, lsl #6
     ef0:	03002805 	movweq	r2, #2053	; 0x805
     ef4:	000d1c0e 	andeq	r1, sp, lr, lsl #24
     ef8:	012e0600 	teqeq	lr, r0, lsl #12
     efc:	0e03193f 	mcreq	9, 0, r1, cr3, cr15, {1}
     f00:	0b3b0b3a 	bleq	ec3bf0 <__bss_end__+0xeb9ca0>
     f04:	01111927 	tsteq	r1, r7, lsr #18
     f08:	18400612 	stmdane	r0, {r1, r4, r9, sl}^
     f0c:	01194297 			; <UNDEFINED> instruction: 0x01194297
     f10:	07000013 	smladeq	r0, r3, r0, r0
     f14:	0e030034 	mcreq	0, 0, r0, cr3, cr4, {1}
     f18:	0b3b0b3a 	bleq	ec3c08 <__bss_end__+0xeb9cb8>
     f1c:	193f1349 	ldmdbne	pc!, {r0, r3, r6, r8, r9, ip}	; <UNPREDICTABLE>
     f20:	0000193c 	andeq	r1, r0, ip, lsr r9
     f24:	03003408 	movweq	r3, #1032	; 0x408
     f28:	3b0b3a08 	blcc	2cf750 <__bss_end__+0x2c5800>
     f2c:	1c13490b 	ldcne	9, cr4, [r3], {11}
     f30:	0900000b 	stmdbeq	r0, {r0, r1, r3}
     f34:	08030034 	stmdaeq	r3, {r2, r4, r5}
     f38:	0b3b0b3a 	bleq	ec3c28 <__bss_end__+0xeb9cd8>
     f3c:	00001349 	andeq	r1, r0, r9, asr #6
     f40:	0300340a 	movweq	r3, #1034	; 0x40a
     f44:	3b0b3a08 	blcc	2cf76c <__bss_end__+0x2c581c>
     f48:	0213490b 	andseq	r4, r3, #180224	; 0x2c000
     f4c:	0b000018 	bleq	fb4 <__code_start__-0x704c>
     f50:	0111010b 	tsteq	r1, fp, lsl #2
     f54:	13010612 	movwne	r0, #5650	; 0x1612
     f58:	340c0000 	strcc	r0, [ip], #-0
     f5c:	3a080300 	bcc	201b64 <__bss_end__+0x1f7c14>
     f60:	490b3b0b 	stmdbmi	fp, {r0, r1, r3, r8, r9, fp, ip, sp}
     f64:	00170213 	andseq	r0, r7, r3, lsl r2
     f68:	82890d00 	addhi	r0, r9, #0, 26
     f6c:	01110001 	tsteq	r1, r1
     f70:	00001331 	andeq	r1, r0, r1, lsr r3
     f74:	0182890e 	orreq	r8, r2, lr, lsl #18
     f78:	31011101 	tstcc	r1, r1, lsl #2
     f7c:	00130113 	andseq	r0, r3, r3, lsl r1
     f80:	828a0f00 	addhi	r0, sl, #0, 30
     f84:	18020001 	stmdane	r2, {r0}
     f88:	00184291 	mulseq	r8, r1, r2
     f8c:	000f1000 	andeq	r1, pc, r0
     f90:	13490b0b 	movtne	r0, #39691	; 0x9b0b
     f94:	2e110000 	cdpcs	0, 1, cr0, cr1, cr0, {0}
     f98:	03193f00 	tsteq	r9, #0, 30
     f9c:	3b0b3a0e 	blcc	2cf7dc <__bss_end__+0x2c588c>
     fa0:	3c19270b 	ldccc	7, cr2, [r9], {11}
     fa4:	12000019 	andne	r0, r0, #25
     fa8:	193f012e 	ldmdbne	pc!, {r1, r2, r3, r5, r8}	; <UNPREDICTABLE>
     fac:	0b3a0e03 	bleq	e847c0 <__bss_end__+0xe7a870>
     fb0:	19270b3b 	stmdbne	r7!, {r0, r1, r3, r4, r5, r8, r9, fp}
     fb4:	0000193c 	andeq	r1, r0, ip, lsr r9
     fb8:	49000513 	stmdbmi	r0, {r0, r1, r4, r8, sl}
     fbc:	00000013 	andeq	r0, r0, r3, lsl r0
     fc0:	25011101 	strcs	r1, [r1, #-257]	; 0x101
     fc4:	030b130e 	movweq	r1, #45838	; 0xb30e
     fc8:	550e1b0e 	strpl	r1, [lr, #-2830]	; 0xb0e
     fcc:	10011117 	andne	r1, r1, r7, lsl r1
     fd0:	02000017 	andeq	r0, r0, #23
     fd4:	0b0b0024 	bleq	2c106c <__bss_end__+0x2b711c>
     fd8:	08030b3e 	stmdaeq	r3, {r1, r2, r3, r4, r5, r8, r9, fp}
     fdc:	24030000 	strcs	r0, [r3], #-0
     fe0:	3e0b0b00 	vmlacc.f64	d0, d11, d0
     fe4:	000e030b 	andeq	r0, lr, fp, lsl #6
     fe8:	012e0400 	teqeq	lr, r0, lsl #8
     fec:	0e03193f 	mcreq	9, 0, r1, cr3, cr15, {1}
     ff0:	0b3b0b3a 	bleq	ec3ce0 <__bss_end__+0xeb9d90>
     ff4:	13491927 	movtne	r1, #39207	; 0x9927
     ff8:	06120111 			; <UNDEFINED> instruction: 0x06120111
     ffc:	42971840 	addsmi	r1, r7, #64, 16	; 0x400000
    1000:	00130119 	andseq	r0, r3, r9, lsl r1
    1004:	00340500 	eorseq	r0, r4, r0, lsl #10
    1008:	0b3a0e03 	bleq	e8481c <__bss_end__+0xe7a8cc>
    100c:	13490b3b 	movtne	r0, #39739	; 0x9b3b
    1010:	00001702 	andeq	r1, r0, r2, lsl #14
    1014:	3f012e06 	svccc	0x00012e06
    1018:	3a0e0319 	bcc	381c84 <__bss_end__+0x377d34>
    101c:	270b3b0b 	strcs	r3, [fp, -fp, lsl #22]
    1020:	12011119 	andne	r1, r1, #1073741830	; 0x40000006
    1024:	97184006 	ldrls	r4, [r8, -r6]
    1028:	13011942 	movwne	r1, #6466	; 0x1942
    102c:	34070000 	strcc	r0, [r7], #-0
    1030:	3a0e0300 	bcc	381c38 <__bss_end__+0x377ce8>
    1034:	490b3b0b 	stmdbmi	fp, {r0, r1, r3, r8, r9, fp, ip, sp}
    1038:	00061c13 	andeq	r1, r6, r3, lsl ip
    103c:	00340800 	eorseq	r0, r4, r0, lsl #16
    1040:	0b3a0e03 	bleq	e84854 <__bss_end__+0xe7a904>
    1044:	13490b3b 	movtne	r0, #39739	; 0x9b3b
    1048:	00000b1c 	andeq	r0, r0, ip, lsl fp
    104c:	01828909 	orreq	r8, r2, r9, lsl #18
    1050:	31011100 	mrscc	r1, (UNDEF: 17)
    1054:	0a000013 	beq	10a8 <__code_start__-0x6f58>
    1058:	01018289 	smlabbeq	r1, r9, r2, r8
    105c:	13310111 	teqne	r1, #1073741828	; 0x40000004
    1060:	00001301 	andeq	r1, r0, r1, lsl #6
    1064:	01828a0b 	orreq	r8, r2, fp, lsl #20
    1068:	91180200 	tstls	r8, r0, lsl #4
    106c:	00001842 	andeq	r1, r0, r2, asr #16
    1070:	0182890c 	orreq	r8, r2, ip, lsl #18
    1074:	31011101 	tstcc	r1, r1, lsl #2
    1078:	0d000013 	stceq	0, cr0, [r0, #-76]	; 0xffffffb4
    107c:	13490026 	movtne	r0, #36902	; 0x9026
    1080:	2e0e0000 	cdpcs	0, 0, cr0, cr14, cr0, {0}
    1084:	03193f01 	tsteq	r9, #1, 30
    1088:	3b0b3a0e 	blcc	2cf8c8 <__bss_end__+0x2c5978>
    108c:	3c19270b 	ldccc	7, cr2, [r9], {11}
    1090:	00130119 	andseq	r0, r3, r9, lsl r1
    1094:	00050f00 	andeq	r0, r5, r0, lsl #30
    1098:	00001349 	andeq	r1, r0, r9, asr #6
    109c:	3f012e10 	svccc	0x00012e10
    10a0:	3a0e0319 	bcc	381d0c <__bss_end__+0x377dbc>
    10a4:	270b3b0b 	strcs	r3, [fp, -fp, lsl #22]
    10a8:	00193c19 	andseq	r3, r9, r9, lsl ip
    10ac:	11010000 	mrsne	r0, (UNDEF: 1)
    10b0:	130e2501 	movwne	r2, #58625	; 0xe501
    10b4:	1b0e030b 	blne	381ce8 <__bss_end__+0x377d98>
    10b8:	1201110e 	andne	r1, r1, #-2147483645	; 0x80000003
    10bc:	00171006 	andseq	r1, r7, r6
    10c0:	00240200 	eoreq	r0, r4, r0, lsl #4
    10c4:	0b3e0b0b 	bleq	f83cf8 <__bss_end__+0xf79da8>
    10c8:	00000803 	andeq	r0, r0, r3, lsl #16
    10cc:	0b002403 	bleq	a0e0 <__bss_end__+0x190>
    10d0:	030b3e0b 	movweq	r3, #48651	; 0xbe0b
    10d4:	0400000e 	streq	r0, [r0], #-14
    10d8:	193f012e 	ldmdbne	pc!, {r1, r2, r3, r5, r8}	; <UNPREDICTABLE>
    10dc:	0b3a0e03 	bleq	e848f0 <__bss_end__+0xe7a9a0>
    10e0:	19270b3b 	stmdbne	r7!, {r0, r1, r3, r4, r5, r8, r9, fp}
    10e4:	06120111 			; <UNDEFINED> instruction: 0x06120111
    10e8:	42971840 	addsmi	r1, r7, #64, 16	; 0x400000
    10ec:	00130119 	andseq	r0, r3, r9, lsl r1
    10f0:	00050500 	andeq	r0, r5, r0, lsl #10
    10f4:	0b3a0e03 	bleq	e84908 <__bss_end__+0xe7a9b8>
    10f8:	13490b3b 	movtne	r0, #39739	; 0x9b3b
    10fc:	00001702 	andeq	r1, r0, r2, lsl #14
    1100:	3f012e06 	svccc	0x00012e06
    1104:	3a0e0319 	bcc	381d70 <__bss_end__+0x377e20>
    1108:	270b3b0b 	strcs	r3, [fp, -fp, lsl #22]
    110c:	11134919 	tstne	r3, r9, lsl r9
    1110:	40061201 	andmi	r1, r6, r1, lsl #4
    1114:	19429718 	stmdbne	r2, {r3, r4, r8, r9, sl, ip, pc}^
    1118:	00001301 	andeq	r1, r0, r1, lsl #6
    111c:	01828907 	orreq	r8, r2, r7, lsl #18
    1120:	31011101 	tstcc	r1, r1, lsl #2
    1124:	08000013 	stmdaeq	r0, {r0, r1, r4}
    1128:	0001828a 	andeq	r8, r1, sl, lsl #5
    112c:	42911802 	addsmi	r1, r1, #131072	; 0x20000
    1130:	09000018 	stmdbeq	r0, {r3, r4}
    1134:	08030034 	stmdaeq	r3, {r2, r4, r5}
    1138:	0b3b0b3a 	bleq	ec3e28 <__bss_end__+0xeb9ed8>
    113c:	17021349 	strne	r1, [r2, -r9, asr #6]
    1140:	890a0000 	stmdbhi	sl, {}	; <UNPREDICTABLE>
    1144:	11000182 	smlabbne	r0, r2, r1, r0
    1148:	00133101 	andseq	r3, r3, r1, lsl #2
    114c:	00050b00 	andeq	r0, r5, r0, lsl #22
    1150:	0b3a0803 	bleq	e83164 <__bss_end__+0xe79214>
    1154:	13490b3b 	movtne	r0, #39739	; 0x9b3b
    1158:	00001702 	andeq	r1, r0, r2, lsl #14
    115c:	0300340c 	movweq	r3, #1036	; 0x40c
    1160:	3b0b3a08 	blcc	2cf988 <__bss_end__+0x2c5a38>
    1164:	0213490b 	andseq	r4, r3, #180224	; 0x2c000
    1168:	0d000018 	stceq	0, cr0, [r0, #-96]	; 0xffffffa0
    116c:	0111010b 	tsteq	r1, fp, lsl #2
    1170:	13010612 	movwne	r0, #5650	; 0x1612
    1174:	2e0e0000 	cdpcs	0, 0, cr0, cr14, cr0, {0}
    1178:	03193f01 	tsteq	r9, #1, 30
    117c:	3b0b3a0e 	blcc	2cf9bc <__bss_end__+0x2c5a6c>
    1180:	4919270b 	ldmdbmi	r9, {r0, r1, r3, r8, r9, sl, sp}
    1184:	01193c13 	tsteq	r9, r3, lsl ip
    1188:	0f000013 	svceq	0x00000013
    118c:	13490005 	movtne	r0, #36869	; 0x9005
    1190:	2e100000 	cdpcs	0, 1, cr0, cr0, cr0, {0}
    1194:	03193f00 	tsteq	r9, #0, 30
    1198:	3b0b3a0e 	blcc	2cf9d8 <__bss_end__+0x2c5a88>
    119c:	3c19270b 	ldccc	7, cr2, [r9], {11}
    11a0:	00000019 	andeq	r0, r0, r9, lsl r0
    11a4:	25011101 	strcs	r1, [r1, #-257]	; 0x101
    11a8:	030b130e 	movweq	r1, #45838	; 0xb30e
    11ac:	110e1b0e 	tstne	lr, lr, lsl #22
    11b0:	10061201 	andne	r1, r6, r1, lsl #4
    11b4:	02000017 	andeq	r0, r0, #23
    11b8:	0b0b0024 	bleq	2c1250 <__bss_end__+0x2b7300>
    11bc:	08030b3e 	stmdaeq	r3, {r1, r2, r3, r4, r5, r8, r9, fp}
    11c0:	24030000 	strcs	r0, [r3], #-0
    11c4:	3e0b0b00 	vmlacc.f64	d0, d11, d0
    11c8:	000e030b 	andeq	r0, lr, fp, lsl #6
    11cc:	00350400 	eorseq	r0, r5, r0, lsl #8
    11d0:	00001349 	andeq	r1, r0, r9, asr #6
    11d4:	03001605 	movweq	r1, #1541	; 0x605
    11d8:	3b0b3a0e 	blcc	2cfa18 <__bss_end__+0x2c5ac8>
    11dc:	0013490b 	andseq	r4, r3, fp, lsl #18
    11e0:	00160600 	andseq	r0, r6, r0, lsl #12
    11e4:	0b3a0e03 	bleq	e849f8 <__bss_end__+0xe7aaa8>
    11e8:	1349053b 	movtne	r0, #38203	; 0x953b
    11ec:	17070000 	strne	r0, [r7, -r0]
    11f0:	3a0b0b01 	bcc	2c3dfc <__bss_end__+0x2b9eac>
    11f4:	010b3b0b 	tsteq	fp, fp, lsl #22
    11f8:	08000013 	stmdaeq	r0, {r0, r1, r4}
    11fc:	0e03000d 	cdpeq	0, 0, cr0, cr3, cr13, {0}
    1200:	0b3b0b3a 	bleq	ec3ef0 <__bss_end__+0xeb9fa0>
    1204:	00001349 	andeq	r1, r0, r9, asr #6
    1208:	49010109 	stmdbmi	r1, {r0, r3, r8}
    120c:	00130113 	andseq	r0, r3, r3, lsl r1
    1210:	00210a00 	eoreq	r0, r1, r0, lsl #20
    1214:	0b2f1349 	bleq	bc5f40 <__bss_end__+0xbbbff0>
    1218:	130b0000 	movwne	r0, #45056	; 0xb000
    121c:	3a0b0b01 	bcc	2c3e28 <__bss_end__+0x2b9ed8>
    1220:	010b3b0b 	tsteq	fp, fp, lsl #22
    1224:	0c000013 	stceq	0, cr0, [r0], {19}
    1228:	0e03000d 	cdpeq	0, 0, cr0, cr3, cr13, {0}
    122c:	0b3b0b3a 	bleq	ec3f1c <__bss_end__+0xeb9fcc>
    1230:	0b381349 	bleq	e05f5c <__bss_end__+0xdfc00c>
    1234:	0f0d0000 	svceq	0x000d0000
    1238:	000b0b00 	andeq	r0, fp, r0, lsl #22
    123c:	000f0e00 	andeq	r0, pc, r0, lsl #28
    1240:	13490b0b 	movtne	r0, #39691	; 0x9b0b
    1244:	260f0000 	strcs	r0, [pc], -r0
    1248:	00134900 	andseq	r4, r3, r0, lsl #18
    124c:	01131000 	tsteq	r3, r0
    1250:	0b0b0e03 	bleq	2c4a64 <__bss_end__+0x2bab14>
    1254:	0b3b0b3a 	bleq	ec3f44 <__bss_end__+0xeb9ff4>
    1258:	00001301 	andeq	r1, r0, r1, lsl #6
    125c:	03000d11 	movweq	r0, #3345	; 0xd11
    1260:	3b0b3a08 	blcc	2cfa88 <__bss_end__+0x2c5b38>
    1264:	3813490b 	ldmdacc	r3, {r0, r1, r3, r8, fp, lr}
    1268:	1200000b 	andne	r0, r0, #11
    126c:	0e030113 	mcreq	1, 0, r0, cr3, cr3, {0}
    1270:	0b3a050b 	bleq	e826a4 <__bss_end__+0xe78754>
    1274:	13010b3b 	movwne	r0, #6971	; 0x1b3b
    1278:	0d130000 	ldceq	0, cr0, [r3, #-0]
    127c:	3a0e0300 	bcc	381e84 <__bss_end__+0x377f34>
    1280:	490b3b0b 	stmdbmi	fp, {r0, r1, r3, r8, r9, fp, ip, sp}
    1284:	00053813 	andeq	r3, r5, r3, lsl r8
    1288:	00151400 	andseq	r1, r5, r0, lsl #8
    128c:	00001927 	andeq	r1, r0, r7, lsr #18
    1290:	27011515 	smladcs	r1, r5, r5, r1
    1294:	01134919 	tsteq	r3, r9, lsl r9
    1298:	16000013 			; <UNDEFINED> instruction: 0x16000013
    129c:	13490005 	movtne	r0, #36869	; 0x9005
    12a0:	13170000 	tstne	r7, #0
    12a4:	0b0e0301 	bleq	381eb0 <__bss_end__+0x377f60>
    12a8:	3b0b3a05 	blcc	2cfac4 <__bss_end__+0x2c5b74>
    12ac:	00130105 	andseq	r0, r3, r5, lsl #2
    12b0:	000d1800 	andeq	r1, sp, r0, lsl #16
    12b4:	0b3a0e03 	bleq	e84ac8 <__bss_end__+0xe7ab78>
    12b8:	1349053b 	movtne	r0, #38203	; 0x953b
    12bc:	00000b38 	andeq	r0, r0, r8, lsr fp
    12c0:	03000d19 	movweq	r0, #3353	; 0xd19
    12c4:	3b0b3a0e 	blcc	2cfb04 <__bss_end__+0x2c5bb4>
    12c8:	38134905 	ldmdacc	r3, {r0, r2, r8, fp, lr}
    12cc:	1a000005 	bne	12e8 <__code_start__-0x6d18>
    12d0:	0e030113 	mcreq	1, 0, r0, cr3, cr3, {0}
    12d4:	0b3a0b0b 	bleq	e83f08 <__bss_end__+0xe79fb8>
    12d8:	1301053b 	movwne	r0, #5435	; 0x153b
    12dc:	131b0000 	tstne	fp, #0
    12e0:	3a0b0b01 	bcc	2c3eec <__bss_end__+0x2b9f9c>
    12e4:	01053b0b 	tsteq	r5, fp, lsl #22
    12e8:	1c000013 	stcne	0, cr0, [r0], {19}
    12ec:	0b0b0117 	bleq	2c1750 <__bss_end__+0x2b7800>
    12f0:	053b0b3a 	ldreq	r0, [fp, #-2874]!	; 0xb3a
    12f4:	00001301 	andeq	r1, r0, r1, lsl #6
    12f8:	03000d1d 	movweq	r0, #3357	; 0xd1d
    12fc:	3b0b3a0e 	blcc	2cfb3c <__bss_end__+0x2c5bec>
    1300:	00134905 	andseq	r4, r3, r5, lsl #18
    1304:	01151e00 	tsteq	r5, r0, lsl #28
    1308:	13011927 	movwne	r1, #6439	; 0x1927
    130c:	341f0000 	ldrcc	r0, [pc], #-0	; 1314 <__code_start__-0x6cec>
    1310:	3a0e0300 	bcc	381f18 <__bss_end__+0x377fc8>
    1314:	49053b0b 	stmdbmi	r5, {r0, r1, r3, r8, r9, fp, ip, sp}
    1318:	3c193f13 	ldccc	15, cr3, [r9], {19}
    131c:	20000019 	andcs	r0, r0, r9, lsl r0
    1320:	0e030034 	mcreq	0, 0, r0, cr3, cr4, {1}
    1324:	0b3b0b3a 	bleq	ec4014 <__bss_end__+0xeba0c4>
    1328:	193f1349 	ldmdbne	pc!, {r0, r3, r6, r8, r9, ip}	; <UNPREDICTABLE>
    132c:	0000193c 	andeq	r1, r0, ip, lsr r9
    1330:	0b010421 	bleq	423bc <__bss_end__+0x3846c>
    1334:	3a13490b 	bcc	4d3768 <__bss_end__+0x4c9818>
    1338:	010b3b0b 	tsteq	fp, fp, lsl #22
    133c:	22000013 	andcs	r0, r0, #19
    1340:	0e030028 	cdpeq	0, 0, cr0, cr3, cr8, {1}
    1344:	00000b1c 	andeq	r0, r0, ip, lsl fp
    1348:	03003423 	movweq	r3, #1059	; 0x423
    134c:	3b0b3a0e 	blcc	2cfb8c <__bss_end__+0x2c5c3c>
    1350:	1c13490b 	ldcne	9, cr4, [r3], {11}
    1354:	24000006 	strcs	r0, [r0], #-6
    1358:	193f012e 	ldmdbne	pc!, {r1, r2, r3, r5, r8}	; <UNPREDICTABLE>
    135c:	0b3a0e03 	bleq	e84b70 <__bss_end__+0xe7ac20>
    1360:	19270b3b 	stmdbne	r7!, {r0, r1, r3, r4, r5, r8, r9, fp}
    1364:	01111349 	tsteq	r1, r9, asr #6
    1368:	18400612 	stmdane	r0, {r1, r4, r9, sl}^
    136c:	01194297 			; <UNDEFINED> instruction: 0x01194297
    1370:	25000013 	strcs	r0, [r0, #-19]
    1374:	00018289 	andeq	r8, r1, r9, lsl #5
    1378:	13310111 	teqne	r1, #1073741828	; 0x40000004
    137c:	2e260000 	cdpcs	0, 2, cr0, cr6, cr0, {0}
    1380:	03193f01 	tsteq	r9, #1, 30
    1384:	3b0b3a0e 	blcc	2cfbc4 <__bss_end__+0x2c5c74>
    1388:	1119270b 	tstne	r9, fp, lsl #14
    138c:	40061201 	andmi	r1, r6, r1, lsl #4
    1390:	19429718 	stmdbne	r2, {r3, r4, r8, r9, sl, ip, pc}^
    1394:	00001301 	andeq	r1, r0, r1, lsl #6
    1398:	03000527 	movweq	r0, #1319	; 0x527
    139c:	3b0b3a08 	blcc	2cfbc4 <__bss_end__+0x2c5c74>
    13a0:	0213490b 	andseq	r4, r3, #180224	; 0x2c000
    13a4:	28000017 	stmdacs	r0, {r0, r1, r2, r4}
    13a8:	01018289 	smlabbeq	r1, r9, r2, r8
    13ac:	13310111 	teqne	r1, #1073741828	; 0x40000004
    13b0:	00001301 	andeq	r1, r0, r1, lsl #6
    13b4:	01828a29 	orreq	r8, r2, r9, lsr #20
    13b8:	91180200 	tstls	r8, r0, lsl #4
    13bc:	00001842 	andeq	r1, r0, r2, asr #16
    13c0:	0300342a 	movweq	r3, #1066	; 0x42a
    13c4:	3b0b3a08 	blcc	2cfbec <__bss_end__+0x2c5c9c>
    13c8:	0213490b 	andseq	r4, r3, #180224	; 0x2c000
    13cc:	2b000018 	blcs	1434 <__code_start__-0x6bcc>
    13d0:	01018289 	smlabbeq	r1, r9, r2, r8
    13d4:	13310111 	teqne	r1, #1073741828	; 0x40000004
    13d8:	2e2c0000 	cdpcs	0, 2, cr0, cr12, cr0, {0}
    13dc:	3a0e0301 	bcc	381fe8 <__bss_end__+0x378098>
    13e0:	270b3b0b 	strcs	r3, [fp, -fp, lsl #22]
    13e4:	12011119 	andne	r1, r1, #1073741830	; 0x40000006
    13e8:	97184006 	ldrls	r4, [r8, -r6]
    13ec:	13011942 	movwne	r1, #6466	; 0x1942
    13f0:	052d0000 	streq	r0, [sp, #-0]!
    13f4:	3a0e0300 	bcc	381ffc <__bss_end__+0x3780ac>
    13f8:	490b3b0b 	stmdbmi	fp, {r0, r1, r3, r8, r9, fp, ip, sp}
    13fc:	00170213 	andseq	r0, r7, r3, lsl r2
    1400:	00352e00 	eorseq	r2, r5, r0, lsl #28
    1404:	2e2f0000 	cdpcs	0, 2, cr0, cr15, cr0, {0}
    1408:	3c193f00 	ldccc	15, cr3, [r9], {-0}
    140c:	030e6e19 	movweq	r6, #60953	; 0xee19
    1410:	3b0b3a0e 	blcc	2cfc50 <__bss_end__+0x2c5d00>
    1414:	0000000b 	andeq	r0, r0, fp
    1418:	25011101 	strcs	r1, [r1, #-257]	; 0x101
    141c:	030b130e 	movweq	r1, #45838	; 0xb30e
    1420:	110e1b0e 	tstne	lr, lr, lsl #22
    1424:	10061201 	andne	r1, r6, r1, lsl #4
    1428:	02000017 	andeq	r0, r0, #23
    142c:	0b0b0024 	bleq	2c14c4 <__bss_end__+0x2b7574>
    1430:	08030b3e 	stmdaeq	r3, {r1, r2, r3, r4, r5, r8, r9, fp}
    1434:	24030000 	strcs	r0, [r3], #-0
    1438:	3e0b0b00 	vmlacc.f64	d0, d11, d0
    143c:	000e030b 	andeq	r0, lr, fp, lsl #6
    1440:	00260400 	eoreq	r0, r6, r0, lsl #8
    1444:	00001349 	andeq	r1, r0, r9, asr #6
    1448:	03001605 	movweq	r1, #1541	; 0x605
    144c:	3b0b3a0e 	blcc	2cfc8c <__bss_end__+0x2c5d3c>
    1450:	0013490b 	andseq	r4, r3, fp, lsl #18
    1454:	00160600 	andseq	r0, r6, r0, lsl #12
    1458:	0b3a0e03 	bleq	e84c6c <__bss_end__+0xe7ad1c>
    145c:	1349053b 	movtne	r0, #38203	; 0x953b
    1460:	17070000 	strne	r0, [r7, -r0]
    1464:	3a0b0b01 	bcc	2c4070 <__bss_end__+0x2ba120>
    1468:	010b3b0b 	tsteq	fp, fp, lsl #22
    146c:	08000013 	stmdaeq	r0, {r0, r1, r4}
    1470:	0e03000d 	cdpeq	0, 0, cr0, cr3, cr13, {0}
    1474:	0b3b0b3a 	bleq	ec4164 <__bss_end__+0xeba214>
    1478:	00001349 	andeq	r1, r0, r9, asr #6
    147c:	49010109 	stmdbmi	r1, {r0, r3, r8}
    1480:	00130113 	andseq	r0, r3, r3, lsl r1
    1484:	00210a00 	eoreq	r0, r1, r0, lsl #20
    1488:	0b2f1349 	bleq	bc61b4 <__bss_end__+0xbbc264>
    148c:	130b0000 	movwne	r0, #45056	; 0xb000
    1490:	3a0b0b01 	bcc	2c409c <__bss_end__+0x2ba14c>
    1494:	010b3b0b 	tsteq	fp, fp, lsl #22
    1498:	0c000013 	stceq	0, cr0, [r0], {19}
    149c:	0e03000d 	cdpeq	0, 0, cr0, cr3, cr13, {0}
    14a0:	0b3b0b3a 	bleq	ec4190 <__bss_end__+0xeba240>
    14a4:	0b381349 	bleq	e061d0 <__bss_end__+0xdfc280>
    14a8:	0f0d0000 	svceq	0x000d0000
    14ac:	000b0b00 	andeq	r0, fp, r0, lsl #22
    14b0:	000f0e00 	andeq	r0, pc, r0, lsl #28
    14b4:	13490b0b 	movtne	r0, #39691	; 0x9b0b
    14b8:	130f0000 	movwne	r0, #61440	; 0xf000
    14bc:	0b0e0301 	bleq	3820c8 <__bss_end__+0x378178>
    14c0:	3b0b3a0b 	blcc	2cfcf4 <__bss_end__+0x2c5da4>
    14c4:	0013010b 	andseq	r0, r3, fp, lsl #2
    14c8:	000d1000 	andeq	r1, sp, r0
    14cc:	0b3a0803 	bleq	e834e0 <__bss_end__+0xe79590>
    14d0:	13490b3b 	movtne	r0, #39739	; 0x9b3b
    14d4:	00000b38 	andeq	r0, r0, r8, lsr fp
    14d8:	03011311 	movweq	r1, #4881	; 0x1311
    14dc:	3a050b0e 	bcc	14411c <__bss_end__+0x13a1cc>
    14e0:	010b3b0b 	tsteq	fp, fp, lsl #22
    14e4:	12000013 	andne	r0, r0, #19
    14e8:	0e03000d 	cdpeq	0, 0, cr0, cr3, cr13, {0}
    14ec:	0b3b0b3a 	bleq	ec41dc <__bss_end__+0xeba28c>
    14f0:	05381349 	ldreq	r1, [r8, #-841]!	; 0x349
    14f4:	15130000 	ldrne	r0, [r3, #-0]
    14f8:	00192700 	andseq	r2, r9, r0, lsl #14
    14fc:	01151400 	tsteq	r5, r0, lsl #8
    1500:	13491927 	movtne	r1, #39207	; 0x9927
    1504:	00001301 	andeq	r1, r0, r1, lsl #6
    1508:	49000515 	stmdbmi	r0, {r0, r2, r4, r8, sl}
    150c:	16000013 			; <UNDEFINED> instruction: 0x16000013
    1510:	0e030113 	mcreq	1, 0, r0, cr3, cr3, {0}
    1514:	0b3a050b 	bleq	e82948 <__bss_end__+0xe789f8>
    1518:	1301053b 	movwne	r0, #5435	; 0x153b
    151c:	0d170000 	ldceq	0, cr0, [r7, #-0]
    1520:	3a0e0300 	bcc	382128 <__bss_end__+0x3781d8>
    1524:	49053b0b 	stmdbmi	r5, {r0, r1, r3, r8, r9, fp, ip, sp}
    1528:	000b3813 	andeq	r3, fp, r3, lsl r8
    152c:	000d1800 	andeq	r1, sp, r0, lsl #16
    1530:	0b3a0e03 	bleq	e84d44 <__bss_end__+0xe7adf4>
    1534:	1349053b 	movtne	r0, #38203	; 0x953b
    1538:	00000538 	andeq	r0, r0, r8, lsr r5
    153c:	03011319 	movweq	r1, #4889	; 0x1319
    1540:	3a0b0b0e 	bcc	2c4180 <__bss_end__+0x2ba230>
    1544:	01053b0b 	tsteq	r5, fp, lsl #22
    1548:	1a000013 	bne	159c <__code_start__-0x6a64>
    154c:	0b0b0113 	bleq	2c19a0 <__bss_end__+0x2b7a50>
    1550:	053b0b3a 	ldreq	r0, [fp, #-2874]!	; 0xb3a
    1554:	00001301 	andeq	r1, r0, r1, lsl #6
    1558:	0b01171b 	bleq	471cc <__bss_end__+0x3d27c>
    155c:	3b0b3a0b 	blcc	2cfd90 <__bss_end__+0x2c5e40>
    1560:	00130105 	andseq	r0, r3, r5, lsl #2
    1564:	000d1c00 	andeq	r1, sp, r0, lsl #24
    1568:	0b3a0e03 	bleq	e84d7c <__bss_end__+0xe7ae2c>
    156c:	1349053b 	movtne	r0, #38203	; 0x953b
    1570:	151d0000 	ldrne	r0, [sp, #-0]
    1574:	01192701 	tsteq	r9, r1, lsl #14
    1578:	1e000013 	mcrne	0, 0, r0, cr0, cr3, {0}
    157c:	0e030034 	mcreq	0, 0, r0, cr3, cr4, {1}
    1580:	053b0b3a 	ldreq	r0, [fp, #-2874]!	; 0xb3a
    1584:	193f1349 	ldmdbne	pc!, {r0, r3, r6, r8, r9, ip}	; <UNPREDICTABLE>
    1588:	0000193c 	andeq	r1, r0, ip, lsr r9
    158c:	0300341f 	movweq	r3, #1055	; 0x41f
    1590:	3b0b3a0e 	blcc	2cfdd0 <__bss_end__+0x2c5e80>
    1594:	3f13490b 	svccc	0x0013490b
    1598:	00193c19 	andseq	r3, r9, r9, lsl ip
    159c:	01042000 	mrseq	r2, (UNDEF: 4)
    15a0:	13490b0b 	movtne	r0, #39691	; 0x9b0b
    15a4:	0b3b0b3a 	bleq	ec4294 <__bss_end__+0xeba344>
    15a8:	00001301 	andeq	r1, r0, r1, lsl #6
    15ac:	03002821 	movweq	r2, #2081	; 0x821
    15b0:	000b1c0e 	andeq	r1, fp, lr, lsl #24
    15b4:	00342200 	eorseq	r2, r4, r0, lsl #4
    15b8:	0b3a0e03 	bleq	e84dcc <__bss_end__+0xe7ae7c>
    15bc:	13490b3b 	movtne	r0, #39739	; 0x9b3b
    15c0:	0000061c 	andeq	r0, r0, ip, lsl r6
    15c4:	3f012e23 	svccc	0x00012e23
    15c8:	3a0e0319 	bcc	382234 <__bss_end__+0x3782e4>
    15cc:	270b3b0b 	strcs	r3, [fp, -fp, lsl #22]
    15d0:	11134919 	tstne	r3, r9, lsl r9
    15d4:	40061201 	andmi	r1, r6, r1, lsl #4
    15d8:	19429718 	stmdbne	r2, {r3, r4, r8, r9, sl, ip, pc}^
    15dc:	00001301 	andeq	r1, r0, r1, lsl #6
    15e0:	03000524 	movweq	r0, #1316	; 0x524
    15e4:	3b0b3a08 	blcc	2cfe0c <__bss_end__+0x2c5ebc>
    15e8:	0213490b 	andseq	r4, r3, #180224	; 0x2c000
    15ec:	25000017 	strcs	r0, [r0, #-23]
    15f0:	0e030034 	mcreq	0, 0, r0, cr3, cr4, {1}
    15f4:	0b3b0b3a 	bleq	ec42e4 <__bss_end__+0xeba394>
    15f8:	17021349 	strne	r1, [r2, -r9, asr #6]
    15fc:	34260000 	strtcc	r0, [r6], #-0
    1600:	3a080300 	bcc	202208 <__bss_end__+0x1f82b8>
    1604:	490b3b0b 	stmdbmi	fp, {r0, r1, r3, r8, r9, fp, ip, sp}
    1608:	00170213 	andseq	r0, r7, r3, lsl r2
    160c:	82892700 	addhi	r2, r9, #0, 14
    1610:	01110101 	tsteq	r1, r1, lsl #2
    1614:	00001331 	andeq	r1, r0, r1, lsr r3
    1618:	01828a28 	orreq	r8, r2, r8, lsr #20
    161c:	91180200 	tstls	r8, r0, lsl #4
    1620:	00001842 	andeq	r1, r0, r2, asr #16
    1624:	3f012e29 	svccc	0x00012e29
    1628:	3a0e0319 	bcc	382294 <__bss_end__+0x378344>
    162c:	270b3b0b 	strcs	r3, [fp, -fp, lsl #22]
    1630:	12011119 	andne	r1, r1, #1073741830	; 0x40000006
    1634:	97184006 	ldrls	r4, [r8, -r6]
    1638:	13011942 	movwne	r1, #6466	; 0x1942
    163c:	892a0000 	stmdbhi	sl!, {}	; <UNPREDICTABLE>
    1640:	11010182 	smlabbne	r1, r2, r1, r0
    1644:	01133101 	tsteq	r3, r1, lsl #2
    1648:	2b000013 	blcs	169c <__code_start__-0x6964>
    164c:	00018289 	andeq	r8, r1, r9, lsl #5
    1650:	13310111 	teqne	r1, #1073741828	; 0x40000004
    1654:	052c0000 	streq	r0, [ip, #-0]!
    1658:	3a0e0300 	bcc	382260 <__bss_end__+0x378310>
    165c:	490b3b0b 	stmdbmi	fp, {r0, r1, r3, r8, r9, fp, ip, sp}
    1660:	00170213 	andseq	r0, r7, r3, lsl r2
    1664:	00342d00 	eorseq	r2, r4, r0, lsl #26
    1668:	0b3a0803 	bleq	e8367c <__bss_end__+0xe7972c>
    166c:	13490b3b 	movtne	r0, #39739	; 0x9b3b
    1670:	00001802 	andeq	r1, r0, r2, lsl #16
    1674:	3f002e2e 	svccc	0x00002e2e
    1678:	6e193c19 	mrcvs	12, 0, r3, cr9, cr9, {0}
    167c:	3a0e030e 	bcc	3822bc <__bss_end__+0x37836c>
    1680:	000b3b0b 	andeq	r3, fp, fp, lsl #22
	...

Disassembly of section .debug_loc:

00000000 <.debug_loc>:
   0:	00000000 	andeq	r0, r0, r0
   4:	0000000c 	andeq	r0, r0, ip
   8:	9f300002 	svcls	0x00300002
   c:	0000000c 	andeq	r0, r0, ip
  10:	0000002c 	andeq	r0, r0, ip, lsr #32
  14:	00530001 	subseq	r0, r3, r1
  18:	00000000 	andeq	r0, r0, r0
  1c:	3c000000 	stccc	0, cr0, [r0], {-0}
  20:	68000000 	stmdavs	r0, {}	; <UNPREDICTABLE>
  24:	01000000 	mrseq	r0, (UNDEF: 0)
  28:	00685000 	rsbeq	r5, r8, r0
  2c:	01a40000 			; <UNDEFINED> instruction: 0x01a40000
  30:	00040000 	andeq	r0, r4, r0
  34:	9f5001f3 	svcls	0x005001f3
	...
  40:	0000003c 	andeq	r0, r0, ip, lsr r0
  44:	0000006c 	andeq	r0, r0, ip, rrx
  48:	6c510001 	mrrcvs	0, 0, r0, r1, cr1
  4c:	68000000 	stmdavs	r0, {}	; <UNPREDICTABLE>
  50:	01000001 	tsteq	r0, r1
  54:	01685400 	cmneq	r8, r0, lsl #8
  58:	01a40000 			; <UNDEFINED> instruction: 0x01a40000
  5c:	00040000 	andeq	r0, r4, r0
  60:	9f5101f3 	svcls	0x005101f3
	...
  6c:	0000003c 	andeq	r0, r0, ip, lsr r0
  70:	00000070 	andeq	r0, r0, r0, ror r0
  74:	70520001 	subsvc	r0, r2, r1
  78:	a4000000 	strge	r0, [r0], #-0
  7c:	04000001 	streq	r0, [r0], #-1
  80:	5201f300 	andpl	pc, r1, #0, 6
  84:	0000009f 	muleq	r0, pc, r0	; <UNPREDICTABLE>
  88:	00000000 	andeq	r0, r0, r0
  8c:	00007c00 	andeq	r7, r0, r0, lsl #24
  90:	00008000 	andeq	r8, r0, r0
  94:	53000100 	movwpl	r0, #256	; 0x100
	...
  a4:	00000023 	andeq	r0, r0, r3, lsr #32
  a8:	23500001 	cmpcs	r0, #1
  ac:	44000000 	strmi	r0, [r0], #-0
  b0:	04000000 	streq	r0, [r0], #-0
  b4:	5001f300 	andpl	pc, r1, r0, lsl #6
  b8:	0000449f 	muleq	r0, pc, r4	; <UNPREDICTABLE>
  bc:	00005f00 	andeq	r5, r0, r0, lsl #30
  c0:	50000100 	andpl	r0, r0, r0, lsl #2
  c4:	0000005f 	andeq	r0, r0, pc, asr r0
  c8:	00000080 	andeq	r0, r0, r0, lsl #1
  cc:	01f30004 	mvnseq	r0, r4
  d0:	00809f50 	addeq	r9, r0, r0, asr pc
  d4:	00b00000 	adcseq	r0, r0, r0
  d8:	00010000 	andeq	r0, r1, r0
  dc:	00000050 	andeq	r0, r0, r0, asr r0
	...
  e8:	00002300 	andeq	r2, r0, r0, lsl #6
  ec:	51000100 	mrspl	r0, (UNDEF: 16)
  f0:	00000023 	andeq	r0, r0, r3, lsr #32
  f4:	00000044 	andeq	r0, r0, r4, asr #32
  f8:	01f30004 	mvnseq	r0, r4
  fc:	00449f51 	subeq	r9, r4, r1, asr pc
 100:	005f0000 	subseq	r0, pc, r0
 104:	00010000 	andeq	r0, r1, r0
 108:	00005f51 	andeq	r5, r0, r1, asr pc
 10c:	00008000 	andeq	r8, r0, r0
 110:	f3000400 	vshl.u8	d0, d0, d0
 114:	809f5101 	addshi	r5, pc, r1, lsl #2
 118:	b0000000 	andlt	r0, r0, r0
 11c:	01000000 	mrseq	r0, (UNDEF: 0)
 120:	00005100 	andeq	r5, r0, r0, lsl #2
 124:	00000000 	andeq	r0, r0, r0
 128:	00100000 	andseq	r0, r0, r0
 12c:	00230000 	eoreq	r0, r3, r0
 130:	00010000 	andeq	r0, r1, r0
 134:	00004453 	andeq	r4, r0, r3, asr r4
 138:	00004800 	andeq	r4, r0, r0, lsl #16
 13c:	53000100 	movwpl	r0, #256	; 0x100
 140:	00000048 	andeq	r0, r0, r8, asr #32
 144:	000000b0 	strheq	r0, [r0], -r0	; <UNPREDICTABLE>
 148:	ff0a0004 			; <UNDEFINED> instruction: 0xff0a0004
 14c:	00009f01 	andeq	r9, r0, r1, lsl #30
 150:	00000000 	andeq	r0, r0, r0
 154:	00440000 	subeq	r0, r4, r0
 158:	005f0000 	subseq	r0, pc, r0
 15c:	00010000 	andeq	r0, r1, r0
 160:	00005f50 	andeq	r5, r0, r0, asr pc
 164:	00008000 	andeq	r8, r0, r0
 168:	f3000400 	vshl.u8	d0, d0, d0
 16c:	809f5001 	addshi	r5, pc, r1
 170:	b0000000 	andlt	r0, r0, r0
 174:	01000000 	mrseq	r0, (UNDEF: 0)
 178:	00005000 	andeq	r5, r0, r0
 17c:	00000000 	andeq	r0, r0, r0
 180:	000c0000 	andeq	r0, ip, r0
 184:	00100000 	andseq	r0, r0, r0
 188:	00010000 	andeq	r0, r1, r0
 18c:	00000053 	andeq	r0, r0, r3, asr r0
 190:	00000000 	andeq	r0, r0, r0
 194:	00001000 	andeq	r1, r0, r0
 198:	00002300 	andeq	r2, r0, r0, lsl #6
 19c:	53000100 	movwpl	r0, #256	; 0x100
 1a0:	00000044 	andeq	r0, r0, r4, asr #32
 1a4:	0000004c 	andeq	r0, r0, ip, asr #32
 1a8:	00530001 	subseq	r0, r3, r1
 1ac:	00000000 	andeq	r0, r0, r0
 1b0:	18000000 	stmdane	r0, {}	; <UNPREDICTABLE>
 1b4:	23000000 	movwcs	r0, #0
 1b8:	01000000 	mrseq	r0, (UNDEF: 0)
 1bc:	00445200 	subeq	r5, r4, r0, lsl #4
 1c0:	00540000 	subseq	r0, r4, r0
 1c4:	00010000 	andeq	r0, r1, r0
 1c8:	00000052 	andeq	r0, r0, r2, asr r0
 1cc:	00000000 	andeq	r0, r0, r0
 1d0:	00005400 	andeq	r5, r0, r0, lsl #8
 1d4:	00005f00 	andeq	r5, r0, r0, lsl #30
 1d8:	52000100 	andpl	r0, r0, #0, 2
 1dc:	00000080 	andeq	r0, r0, r0, lsl #1
 1e0:	000000b0 	strheq	r0, [r0], -r0	; <UNPREDICTABLE>
 1e4:	00520001 	subseq	r0, r2, r1
 1e8:	00000000 	andeq	r0, r0, r0
 1ec:	b0000000 	andlt	r0, r0, r0
 1f0:	d3000000 	movwle	r0, #0
 1f4:	01000000 	mrseq	r0, (UNDEF: 0)
 1f8:	00d35000 	sbcseq	r5, r3, r0
 1fc:	00ec0000 	rsceq	r0, ip, r0
 200:	00040000 	andeq	r0, r4, r0
 204:	9f5001f3 	svcls	0x005001f3
 208:	000000ec 	andeq	r0, r0, ip, ror #1
 20c:	000000ff 	strdeq	r0, [r0], -pc	; <UNPREDICTABLE>
 210:	ff500001 			; <UNDEFINED> instruction: 0xff500001
 214:	20000000 	andcs	r0, r0, r0
 218:	04000001 	streq	r0, [r0], #-1
 21c:	5001f300 	andpl	pc, r1, r0, lsl #6
 220:	0001209f 	muleq	r1, pc, r0	; <UNPREDICTABLE>
 224:	00013300 	andeq	r3, r1, r0, lsl #6
 228:	50000100 	andpl	r0, r0, r0, lsl #2
 22c:	00000133 	andeq	r0, r0, r3, lsr r1
 230:	00000154 	andeq	r0, r0, r4, asr r1
 234:	01f30004 	mvnseq	r0, r4
 238:	01549f50 	cmpeq	r4, r0, asr pc
 23c:	015c0000 	cmpeq	ip, r0
 240:	00010000 	andeq	r0, r1, r0
 244:	00015c50 	andeq	r5, r1, r0, asr ip
 248:	00015f00 	andeq	r5, r1, r0, lsl #30
 24c:	51000100 	mrspl	r0, (UNDEF: 16)
 250:	0000015f 	andeq	r0, r0, pc, asr r1
 254:	0000018c 	andeq	r0, r0, ip, lsl #3
 258:	01f30004 	mvnseq	r0, r4
 25c:	00009f50 	andeq	r9, r0, r0, asr pc
 260:	00000000 	andeq	r0, r0, r0
 264:	00c40000 	sbceq	r0, r4, r0
 268:	00c80000 	sbceq	r0, r8, r0
 26c:	00010000 	andeq	r0, r1, r0
 270:	00000053 	andeq	r0, r0, r3, asr r0
 274:	00000000 	andeq	r0, r0, r0
 278:	0000f000 	andeq	pc, r0, r0
 27c:	0000f400 	andeq	pc, r0, r0, lsl #8
 280:	53000100 	movwpl	r0, #256	; 0x100
 284:	000000f4 	strdeq	r0, [r0], -r4
 288:	000000ff 	strdeq	r0, [r0], -pc	; <UNPREDICTABLE>
 28c:	04730003 	ldrbteq	r0, [r3], #-3
 290:	0001209f 	muleq	r1, pc, r0	; <UNPREDICTABLE>
 294:	00012400 	andeq	r2, r1, r0, lsl #8
 298:	73000300 	movwvc	r0, #768	; 0x300
 29c:	00009f04 	andeq	r9, r0, r4, lsl #30
 2a0:	00000000 	andeq	r0, r0, r0
 2a4:	01d00000 	bicseq	r0, r0, r0
 2a8:	01d80000 	bicseq	r0, r8, r0
 2ac:	00010000 	andeq	r0, r1, r0
 2b0:	0001d853 	andeq	sp, r1, r3, asr r8
 2b4:	0001fc00 	andeq	pc, r1, r0, lsl #24
 2b8:	0a000400 	beq	12c0 <__code_start__-0x6d40>
 2bc:	009f01e7 	addseq	r0, pc, r7, ror #3
 2c0:	00000000 	andeq	r0, r0, r0
 2c4:	cc000000 	stcgt	0, cr0, [r0], {-0}
 2c8:	d0000001 	andle	r0, r0, r1
 2cc:	01000001 	tsteq	r0, r1
 2d0:	00005300 	andeq	r5, r0, r0, lsl #6
 2d4:	00000000 	andeq	r0, r0, r0
 2d8:	01d00000 	bicseq	r0, r0, r0
 2dc:	01dc0000 	bicseq	r0, ip, r0
 2e0:	00010000 	andeq	r0, r1, r0
 2e4:	00000053 	andeq	r0, r0, r3, asr r0
 2e8:	00000000 	andeq	r0, r0, r0
 2ec:	0001fc00 	andeq	pc, r1, r0, lsl #24
 2f0:	00021b00 	andeq	r1, r2, r0, lsl #22
 2f4:	50000100 	andpl	r0, r0, r0, lsl #2
 2f8:	0000021b 	andeq	r0, r0, fp, lsl r2
 2fc:	00000234 	andeq	r0, r0, r4, lsr r2
 300:	01f30004 	mvnseq	r0, r4
 304:	02349f50 	eorseq	r9, r4, #80, 30	; 0x140
 308:	02470000 	subeq	r0, r7, #0
 30c:	00010000 	andeq	r0, r1, r0
 310:	00024750 	andeq	r4, r2, r0, asr r7
 314:	00026800 	andeq	r6, r2, r0, lsl #16
 318:	f3000400 	vshl.u8	d0, d0, d0
 31c:	689f5001 	ldmvs	pc, {r0, ip, lr}	; <UNPREDICTABLE>
 320:	70000002 	andvc	r0, r0, r2
 324:	01000002 	tsteq	r0, r2
 328:	02705000 	rsbseq	r5, r0, #0
 32c:	02730000 	rsbseq	r0, r3, #0
 330:	00010000 	andeq	r0, r1, r0
 334:	00027351 	andeq	r7, r2, r1, asr r3
 338:	00029400 	andeq	r9, r2, r0, lsl #8
 33c:	f3000400 	vshl.u8	d0, d0, d0
 340:	009f5001 	addseq	r5, pc, r1
 344:	00000000 	andeq	r0, r0, r0
 348:	0c000000 	stceq	0, cr0, [r0], {-0}
 34c:	10000002 	andne	r0, r0, r2
 350:	01000002 	tsteq	r0, r2
 354:	00005300 	andeq	r5, r0, r0, lsl #6
 358:	00000000 	andeq	r0, r0, r0
 35c:	02cc0000 	sbceq	r0, ip, #0
 360:	02d40000 	sbcseq	r0, r4, #0
 364:	00010000 	andeq	r0, r1, r0
 368:	0002d453 	andeq	sp, r2, r3, asr r4
 36c:	0002f800 	andeq	pc, r2, r0, lsl #16
 370:	0c000600 	stceq	6, cr0, [r0], {-0}
 374:	004001e7 	subeq	r0, r0, r7, ror #3
 378:	0000009f 	muleq	r0, pc, r0	; <UNPREDICTABLE>
 37c:	00000000 	andeq	r0, r0, r0
 380:	0002c800 	andeq	ip, r2, r0, lsl #16
 384:	0002cc00 	andeq	ip, r2, r0, lsl #24
 388:	53000100 	movwpl	r0, #256	; 0x100
	...
 394:	000002cc 	andeq	r0, r0, ip, asr #5
 398:	000002d8 	ldrdeq	r0, [r0], -r8
 39c:	00530001 	subseq	r0, r3, r1
 3a0:	00000000 	andeq	r0, r0, r0
 3a4:	f8000000 			; <UNDEFINED> instruction: 0xf8000000
 3a8:	ff000002 			; <UNDEFINED> instruction: 0xff000002
 3ac:	01000002 	tsteq	r0, r2
 3b0:	02ff5000 	rscseq	r5, pc, #0
 3b4:	03240000 	teqeq	r4, #0
 3b8:	00040000 	andeq	r0, r4, r0
 3bc:	9f5001f3 	svcls	0x005001f3
	...
 3c8:	00000324 	andeq	r0, r0, r4, lsr #6
 3cc:	0000032b 	andeq	r0, r0, fp, lsr #6
 3d0:	2b500001 	blcs	14003dc <__bss_end__+0x13f648c>
 3d4:	54000003 	strpl	r0, [r0], #-3
 3d8:	04000003 	streq	r0, [r0], #-3
 3dc:	5001f300 	andpl	pc, r1, r0, lsl #6
 3e0:	0000009f 	muleq	r0, pc, r0	; <UNPREDICTABLE>
 3e4:	00000000 	andeq	r0, r0, r0
 3e8:	00032400 	andeq	r2, r3, r0, lsl #8
 3ec:	00032b00 	andeq	r2, r3, r0, lsl #22
 3f0:	51000100 	mrspl	r0, (UNDEF: 16)
 3f4:	0000032b 	andeq	r0, r0, fp, lsr #6
 3f8:	00000354 	andeq	r0, r0, r4, asr r3
 3fc:	01f30004 	mvnseq	r0, r4
 400:	00009f51 	andeq	r9, r0, r1, asr pc
 404:	00000000 	andeq	r0, r0, r0
 408:	002c0000 	eoreq	r0, ip, r0
 40c:	00380000 	eorseq	r0, r8, r0
 410:	00010000 	andeq	r0, r1, r0
 414:	00003850 	andeq	r3, r0, r0, asr r8
 418:	00004800 	andeq	r4, r0, r0, lsl #16
 41c:	55000100 	strpl	r0, [r0, #-256]	; 0x100
 420:	00000048 	andeq	r0, r0, r8, asr #32
 424:	00000058 	andeq	r0, r0, r8, asr r0
 428:	00500001 	subseq	r0, r0, r1
	...
 434:	0b000000 	bleq	43c <__code_start__-0x7bc4>
 438:	01000000 	mrseq	r0, (UNDEF: 0)
 43c:	000b5000 	andeq	r5, fp, r0
 440:	00140000 	andseq	r0, r4, r0
 444:	00010000 	andeq	r0, r1, r0
 448:	00000054 	andeq	r0, r0, r4, asr r0
	...
 454:	00001000 	andeq	r1, r0, r0
 458:	50000100 	andpl	r0, r0, r0, lsl #2
 45c:	00000010 	andeq	r0, r0, r0, lsl r0
 460:	00000034 	andeq	r0, r0, r4, lsr r0
 464:	00540001 	subseq	r0, r4, r1
	...
 470:	04000000 	streq	r0, [r0], #-0
 474:	01000000 	mrseq	r0, (UNDEF: 0)
 478:	00045000 	andeq	r5, r4, r0
 47c:	000c0000 	andeq	r0, ip, r0
 480:	00030000 	andeq	r0, r3, r0
 484:	0c9f3070 	ldceq	0, cr3, [pc], {112}	; 0x70
 488:	14000000 	strne	r0, [r0], #-0
 48c:	04000000 	streq	r0, [r0], #-0
 490:	5001f300 	andpl	pc, r1, r0, lsl #6
 494:	0000009f 	muleq	r0, pc, r0	; <UNPREDICTABLE>
 498:	00000000 	andeq	r0, r0, r0
 49c:	00001400 	andeq	r1, r0, r0, lsl #8
 4a0:	00002000 	andeq	r2, r0, r0
 4a4:	50000100 	andpl	r0, r0, r0, lsl #2
 4a8:	00000020 	andeq	r0, r0, r0, lsr #32
 4ac:	0000002c 	andeq	r0, r0, ip, lsr #32
 4b0:	01700003 	cmneq	r0, r3
 4b4:	00002c9f 	muleq	r0, pc, ip	; <UNPREDICTABLE>
 4b8:	00004000 	andeq	r4, r0, r0
 4bc:	50000100 	andpl	r0, r0, r0, lsl #2
	...
 4c8:	00000014 	andeq	r0, r0, r4, lsl r0
 4cc:	00000018 	andeq	r0, r0, r8, lsl r0
 4d0:	18510001 	ldmdane	r1, {r0}^
 4d4:	40000000 	andmi	r0, r0, r0
 4d8:	04000000 	streq	r0, [r0], #-0
 4dc:	5101f300 	mrspl	pc, SP_irq	; <UNPREDICTABLE>
 4e0:	0000009f 	muleq	r0, pc, r0	; <UNPREDICTABLE>
 4e4:	00000000 	andeq	r0, r0, r0
 4e8:	00004000 	andeq	r4, r0, r0
 4ec:	00006000 	andeq	r6, r0, r0
 4f0:	50000100 	andpl	r0, r0, r0, lsl #2
 4f4:	00000060 	andeq	r0, r0, r0, rrx
 4f8:	0000006c 	andeq	r0, r0, ip, rrx
 4fc:	01710003 	cmneq	r1, r3
 500:	00006c9f 	muleq	r0, pc, ip	; <UNPREDICTABLE>
 504:	00007400 	andeq	r7, r0, r0, lsl #8
 508:	51000100 	mrspl	r0, (UNDEF: 16)
 50c:	00000074 	andeq	r0, r0, r4, ror r0
 510:	00000080 	andeq	r0, r0, r0, lsl #1
 514:	01710003 	cmneq	r1, r3
 518:	0000009f 	muleq	r0, pc, r0	; <UNPREDICTABLE>
 51c:	00000000 	andeq	r0, r0, r0
 520:	00004000 	andeq	r4, r0, r0
 524:	00005000 	andeq	r5, r0, r0
 528:	51000100 	mrspl	r0, (UNDEF: 16)
 52c:	00000050 	andeq	r0, r0, r0, asr r0
 530:	00000080 	andeq	r0, r0, r0, lsl #1
 534:	01f30004 	mvnseq	r0, r4
 538:	00009f51 	andeq	r9, r0, r1, asr pc
 53c:	00000000 	andeq	r0, r0, r0
 540:	00400000 	subeq	r0, r0, r0
 544:	00580000 	subseq	r0, r8, r0
 548:	00010000 	andeq	r0, r1, r0
 54c:	00005852 	andeq	r5, r0, r2, asr r8
 550:	00006400 	andeq	r6, r0, r0, lsl #8
 554:	52000100 	andpl	r0, r0, #0, 2
 558:	00000064 	andeq	r0, r0, r4, rrx
 55c:	00000068 	andeq	r0, r0, r8, rrx
 560:	01720003 	cmneq	r2, r3
 564:	0000689f 	muleq	r0, pc, r8	; <UNPREDICTABLE>
 568:	00008000 	andeq	r8, r0, r0
 56c:	52000100 	andpl	r0, r0, #0, 2
	...
 578:	00000040 	andeq	r0, r0, r0, asr #32
 57c:	00000054 	andeq	r0, r0, r4, asr r0
 580:	54530001 	ldrbpl	r0, [r3], #-1
 584:	78000000 	stmdavc	r0, {}	; <UNPREDICTABLE>
 588:	01000000 	mrseq	r0, (UNDEF: 0)
 58c:	00005300 	andeq	r5, r0, r0, lsl #6
 590:	00000000 	andeq	r0, r0, r0
 594:	00480000 	subeq	r0, r8, r0
 598:	00600000 	rsbeq	r0, r0, r0
 59c:	00010000 	andeq	r0, r1, r0
 5a0:	0000605c 	andeq	r6, r0, ip, asr r0
 5a4:	00008000 	andeq	r8, r0, r0
 5a8:	f3000a00 	vpmax.u8	d0, d0, d0
 5ac:	01f35201 	mvnseq	r5, r1, lsl #4
 5b0:	01231c53 	teqeq	r3, r3, asr ip
 5b4:	0000009f 	muleq	r0, pc, r0	; <UNPREDICTABLE>
 5b8:	00000000 	andeq	r0, r0, r0
 5bc:	00008000 	andeq	r8, r0, r0
 5c0:	0000a400 	andeq	sl, r0, r0, lsl #8
 5c4:	50000100 	andpl	r0, r0, r0, lsl #2
 5c8:	000000a4 	andeq	r0, r0, r4, lsr #1
 5cc:	00000118 	andeq	r0, r0, r8, lsl r1
 5d0:	02700003 	rsbseq	r0, r0, #3
 5d4:	0001189f 	muleq	r1, pc, r8	; <UNPREDICTABLE>
 5d8:	00023c00 	andeq	r3, r2, r0, lsl #24
 5dc:	f3000400 	vshl.u8	d0, d0, d0
 5e0:	009f5001 	addseq	r5, pc, r1
 5e4:	00000000 	andeq	r0, r0, r0
 5e8:	80000000 	andhi	r0, r0, r0
 5ec:	f0000000 			; <UNDEFINED> instruction: 0xf0000000
 5f0:	01000000 	mrseq	r0, (UNDEF: 0)
 5f4:	00f05100 	rscseq	r5, r0, r0, lsl #2
 5f8:	01600000 	cmneq	r0, r0
 5fc:	00010000 	andeq	r0, r1, r0
 600:	00016055 	andeq	r6, r1, r5, asr r0
 604:	00016c00 	andeq	r6, r1, r0, lsl #24
 608:	51000100 	mrspl	r0, (UNDEF: 16)
 60c:	0000016c 	andeq	r0, r0, ip, ror #2
 610:	000001a0 	andeq	r0, r0, r0, lsr #3
 614:	a0550001 	subsge	r0, r5, r1
 618:	b4000001 	strlt	r0, [r0], #-1
 61c:	01000001 	tsteq	r0, r1
 620:	01b45100 			; <UNDEFINED> instruction: 0x01b45100
 624:	01d40000 	bicseq	r0, r4, r0
 628:	00010000 	andeq	r0, r1, r0
 62c:	0001d455 	andeq	sp, r1, r5, asr r4
 630:	0001d700 	andeq	sp, r1, r0, lsl #14
 634:	51000100 	mrspl	r0, (UNDEF: 16)
 638:	000001d7 	ldrdeq	r0, [r0], -r7
 63c:	0000021c 	andeq	r0, r0, ip, lsl r2
 640:	1c550001 	mrrcne	0, 0, r0, r5, cr1
 644:	3c000002 	stccc	0, cr0, [r0], {2}
 648:	04000002 	streq	r0, [r0], #-2
 64c:	5101f300 	mrspl	pc, SP_irq	; <UNPREDICTABLE>
 650:	0000009f 	muleq	r0, pc, r0	; <UNPREDICTABLE>
 654:	00000000 	andeq	r0, r0, r0
 658:	00008000 	andeq	r8, r0, r0
 65c:	00009400 	andeq	r9, r0, r0, lsl #8
 660:	52000100 	andpl	r0, r0, #0, 2
 664:	00000094 	muleq	r0, r4, r0
 668:	0000021c 	andeq	r0, r0, ip, lsl r2
 66c:	1c540001 	mrrcne	0, 0, r0, r4, cr1
 670:	3c000002 	stccc	0, cr0, [r0], {2}
 674:	04000002 	streq	r0, [r0], #-2
 678:	5201f300 	andpl	pc, r1, #0, 6
 67c:	0000009f 	muleq	r0, pc, r0	; <UNPREDICTABLE>
 680:	00000000 	andeq	r0, r0, r0
 684:	00008000 	andeq	r8, r0, r0
 688:	00010000 	andeq	r0, r1, r0
 68c:	53000100 	movwpl	r0, #256	; 0x100
 690:	00000104 	andeq	r0, r0, r4, lsl #2
 694:	00000108 	andeq	r0, r0, r8, lsl #2
 698:	60530001 	subsvs	r0, r3, r1
 69c:	64000001 	strvs	r0, [r0], #-1
 6a0:	01000001 	tsteq	r0, r1
 6a4:	01645300 	cmneq	r4, r0, lsl #6
 6a8:	016c0000 	cmneq	ip, r0
 6ac:	00010000 	andeq	r0, r1, r0
 6b0:	00016c5c 	andeq	r6, r1, ip, asr ip
 6b4:	0001a000 	andeq	sl, r1, r0
 6b8:	f3000400 	vshl.u8	d0, d0, d0
 6bc:	a09f5301 	addsge	r5, pc, r1, lsl #6
 6c0:	b0000001 	andlt	r0, r0, r1
 6c4:	01000001 	tsteq	r0, r1
 6c8:	01b05300 	lslseq	r5, r0, #6
 6cc:	01b40000 			; <UNDEFINED> instruction: 0x01b40000
 6d0:	00010000 	andeq	r0, r1, r0
 6d4:	0001b45c 	andeq	fp, r1, ip, asr r4
 6d8:	0001d400 	andeq	sp, r1, r0, lsl #8
 6dc:	f3000400 	vshl.u8	d0, d0, d0
 6e0:	d49f5301 	ldrle	r5, [pc], #769	; 6e8 <__code_start__-0x7918>
 6e4:	d7000001 	strle	r0, [r0, -r1]
 6e8:	01000001 	tsteq	r0, r1
 6ec:	01d75300 	bicseq	r5, r7, r0, lsl #6
 6f0:	01f80000 	mvnseq	r0, r0
 6f4:	00040000 	andeq	r0, r4, r0
 6f8:	9f5301f3 	svcls	0x005301f3
	...
 704:	00000080 	andeq	r0, r0, r0, lsl #1
 708:	0000009c 	muleq	r0, ip, r0
 70c:	00910002 	addseq	r0, r1, r2
 710:	0000009c 	muleq	r0, ip, r0
 714:	000001d7 	ldrdeq	r0, [r0], -r7
 718:	f8520001 			; <UNDEFINED> instruction: 0xf8520001
 71c:	ff000001 			; <UNDEFINED> instruction: 0xff000001
 720:	01000001 	tsteq	r0, r1
 724:	00005200 	andeq	r5, r0, r0, lsl #4
 728:	00000000 	andeq	r0, r0, r0
 72c:	009c0000 	addseq	r0, ip, r0
 730:	010c0000 	mrseq	r0, (UNDEF: 12)
 734:	00040000 	andeq	r0, r4, r0
 738:	9f7fa091 	svcls	0x007fa091
 73c:	0000010c 	andeq	r0, r0, ip, lsl #2
 740:	00000118 	andeq	r0, r0, r8, lsl r1
 744:	18510001 	ldmdane	r1, {r0}^
 748:	1c000001 	stcne	0, cr0, [r0], {1}
 74c:	01000001 	tsteq	r0, r1
 750:	011c5000 	tsteq	ip, r0
 754:	01200000 	teqeq	r0, r0
 758:	00010000 	andeq	r0, r1, r0
 75c:	00012051 	andeq	r2, r1, r1, asr r0
 760:	00016000 	andeq	r6, r1, r0
 764:	50000100 	andpl	r0, r0, r0, lsl #2
 768:	00000160 	andeq	r0, r0, r0, ror #2
 76c:	00000164 	andeq	r0, r0, r4, ror #2
 770:	a0910004 	addsge	r0, r1, r4
 774:	01649f7f 	smceq	18943	; 0x49ff
 778:	016c0000 	cmneq	ip, r0
 77c:	00010000 	andeq	r0, r1, r0
 780:	00016c53 	andeq	r6, r1, r3, asr ip
 784:	00017000 	andeq	r7, r1, r0
 788:	50000100 	andpl	r0, r0, r0, lsl #2
 78c:	00000170 	andeq	r0, r0, r0, ror r1
 790:	00000174 	andeq	r0, r0, r4, ror r1
 794:	74530001 	ldrbvc	r0, [r3], #-1
 798:	88000001 	stmdahi	r0, {r0}
 79c:	01000001 	tsteq	r0, r1
 7a0:	01885000 	orreq	r5, r8, r0
 7a4:	01940000 	orrseq	r0, r4, r0
 7a8:	00030000 	andeq	r0, r3, r0
 7ac:	949f0170 	ldrls	r0, [pc], #368	; 7b4 <__code_start__-0x784c>
 7b0:	a0000001 	andge	r0, r0, r1
 7b4:	01000001 	tsteq	r0, r1
 7b8:	01a05000 	moveq	r5, r0
 7bc:	01a80000 			; <UNDEFINED> instruction: 0x01a80000
 7c0:	00040000 	andeq	r0, r4, r0
 7c4:	9f7fa191 	svcls	0x007fa191
 7c8:	000001a8 	andeq	r0, r0, r8, lsr #3
 7cc:	000001ac 	andeq	r0, r0, ip, lsr #3
 7d0:	ac500001 	mrrcge	0, 0, r0, r0, cr1	; <UNPREDICTABLE>
 7d4:	b0000001 	andlt	r0, r0, r1
 7d8:	04000001 	streq	r0, [r0], #-1
 7dc:	7fa09100 	svcvc	0x00a09100
 7e0:	0001b09f 	muleq	r1, pc, r0	; <UNPREDICTABLE>
 7e4:	0001b800 	andeq	fp, r1, r0, lsl #16
 7e8:	53000100 	movwpl	r0, #256	; 0x100
 7ec:	000001b8 			; <UNDEFINED> instruction: 0x000001b8
 7f0:	000001d4 	ldrdeq	r0, [r0], -r4
 7f4:	d4500001 	ldrble	r0, [r0], #-1
 7f8:	f8000001 			; <UNDEFINED> instruction: 0xf8000001
 7fc:	04000001 	streq	r0, [r0], #-1
 800:	7fa09100 	svcvc	0x00a09100
 804:	0001f89f 	muleq	r1, pc, r8	; <UNPREDICTABLE>
 808:	0001ff00 	andeq	pc, r1, r0, lsl #30
 80c:	50000100 	andpl	r0, r0, r0, lsl #2
	...
 818:	000000a0 	andeq	r0, r0, r0, lsr #1
 81c:	000000ec 	andeq	r0, r0, ip, ror #1
 820:	ec5c0001 	mrrc	0, 0, r0, ip, cr1
 824:	00000000 	andeq	r0, r0, r0
 828:	01000001 	tsteq	r0, r1
 82c:	01005300 	mrseq	r5, LR_irq
 830:	01040000 	mrseq	r0, (UNDEF: 4)
 834:	00010000 	andeq	r0, r1, r0
 838:	0001045c 	andeq	r0, r1, ip, asr r4
 83c:	00010800 	andeq	r0, r1, r0, lsl #16
 840:	53000100 	movwpl	r0, #256	; 0x100
 844:	00000108 	andeq	r0, r0, r8, lsl #2
 848:	00000160 	andeq	r0, r0, r0, ror #2
 84c:	605c0001 	subsvs	r0, ip, r1
 850:	64000001 	strvs	r0, [r0], #-1
 854:	01000001 	tsteq	r0, r1
 858:	01645300 	cmneq	r4, r0, lsl #6
 85c:	01800000 	orreq	r0, r0, r0
 860:	00010000 	andeq	r0, r1, r0
 864:	0001805c 	andeq	r8, r1, ip, asr r0
 868:	00018400 	andeq	r8, r1, r0, lsl #8
 86c:	7c000500 	cfstr32vc	mvfx0, [r0], {-0}
 870:	9f253400 	svcls	0x00253400
 874:	00000184 	andeq	r0, r0, r4, lsl #3
 878:	000001a0 	andeq	r0, r0, r0, lsr #3
 87c:	a05c0001 	subsge	r0, ip, r1
 880:	b0000001 	andlt	r0, r0, r1
 884:	01000001 	tsteq	r0, r1
 888:	01b05300 	lslseq	r5, r0, #6
 88c:	01c40000 	biceq	r0, r4, r0
 890:	00010000 	andeq	r0, r1, r0
 894:	0001c45c 	andeq	ip, r1, ip, asr r4
 898:	0001cc00 	andeq	ip, r1, r0, lsl #24
 89c:	7c000500 	cfstr32vc	mvfx0, [r0], {-0}
 8a0:	9f253100 	svcls	0x00253100
 8a4:	000001cc 	andeq	r0, r0, ip, asr #3
 8a8:	000001d4 	ldrdeq	r0, [r0], -r4
 8ac:	d45c0001 	ldrble	r0, [ip], #-1
 8b0:	d7000001 	strle	r0, [r0, -r1]
 8b4:	01000001 	tsteq	r0, r1
 8b8:	01d75300 	bicseq	r5, r7, r0, lsl #6
 8bc:	01f80000 	mvnseq	r0, r0
 8c0:	00040000 	andeq	r0, r4, r0
 8c4:	9f5301f3 	svcls	0x005301f3
 8c8:	000001f8 	strdeq	r0, [r0], -r8
 8cc:	000001ff 	strdeq	r0, [r0], -pc	; <UNPREDICTABLE>
 8d0:	005c0001 	subseq	r0, ip, r1
 8d4:	00000000 	andeq	r0, r0, r0
 8d8:	ec000000 	stc	0, cr0, [r0], {-0}
 8dc:	fc000000 	stc2	0, cr0, [r0], {-0}
 8e0:	02000000 	andeq	r0, r0, #0
 8e4:	fc9f3000 	ldc2	0, cr3, [pc], {0}
 8e8:	04000000 	streq	r0, [r0], #-0
 8ec:	02000001 	andeq	r0, r0, #1
 8f0:	049f3100 	ldreq	r3, [pc], #256	; 8f8 <__code_start__-0x7708>
 8f4:	08000001 	stmdaeq	r0, {r0}
 8f8:	02000001 	andeq	r0, r0, #1
 8fc:	009f3000 	addseq	r3, pc, r0
 900:	00000000 	andeq	r0, r0, r0
 904:	3c000000 	stccc	0, cr0, [r0], {-0}
 908:	4f000002 	svcmi	0x00000002
 90c:	01000002 	tsteq	r0, r2
 910:	024f5000 	subeq	r5, pc, #0
 914:	02700000 	rsbseq	r0, r0, #0
 918:	00040000 	andeq	r0, r4, r0
 91c:	9f5001f3 	svcls	0x005001f3
 920:	00000270 	andeq	r0, r0, r0, ror r2
 924:	000002a4 	andeq	r0, r0, r4, lsr #5
 928:	00500001 	subseq	r0, r0, r1
 92c:	00000000 	andeq	r0, r0, r0
 930:	3c000000 	stccc	0, cr0, [r0], {-0}
 934:	4f000002 	svcmi	0x00000002
 938:	01000002 	tsteq	r0, r2
 93c:	024f5100 	subeq	r5, pc, #0, 2
 940:	02700000 	rsbseq	r0, r0, #0
 944:	00040000 	andeq	r0, r4, r0
 948:	9f5101f3 	svcls	0x005101f3
 94c:	00000270 	andeq	r0, r0, r0, ror r2
 950:	000002a4 	andeq	r0, r0, r4, lsr #5
 954:	00510001 	subseq	r0, r1, r1
 958:	00000000 	andeq	r0, r0, r0
 95c:	a4000000 	strge	r0, [r0], #-0
 960:	d4000002 	strle	r0, [r0], #-2
 964:	01000002 	tsteq	r0, r2
 968:	02d45000 	sbcseq	r5, r4, #0
 96c:	05580000 	ldrbeq	r0, [r8, #-0]
 970:	00010000 	andeq	r0, r1, r0
 974:	0005585b 	andeq	r5, r5, fp, asr r8
 978:	00057800 	andeq	r7, r5, r0, lsl #16
 97c:	f3000400 	vshl.u8	d0, d0, d0
 980:	009f5001 	addseq	r5, pc, r1
 984:	00000000 	andeq	r0, r0, r0
 988:	a4000000 	strge	r0, [r0], #-0
 98c:	bc000002 	stclt	0, cr0, [r0], {2}
 990:	01000002 	tsteq	r0, r2
 994:	02bc5100 	adcseq	r5, ip, #0, 2
 998:	02d40000 	sbcseq	r0, r4, #0
 99c:	00030000 	andeq	r0, r3, r0
 9a0:	d49f0171 	ldrle	r0, [pc], #369	; 9a8 <__code_start__-0x7658>
 9a4:	78000002 	stmdavc	r0, {r1}
 9a8:	04000005 	streq	r0, [r0], #-5
 9ac:	5101f300 	mrspl	pc, SP_irq	; <UNPREDICTABLE>
 9b0:	0000009f 	muleq	r0, pc, r0	; <UNPREDICTABLE>
 9b4:	00000000 	andeq	r0, r0, r0
 9b8:	0002a400 	andeq	sl, r2, r0, lsl #8
 9bc:	0002d400 	andeq	sp, r2, r0, lsl #8
 9c0:	52000100 	andpl	r0, r0, #0, 2
 9c4:	000002d4 	ldrdeq	r0, [r0], -r4
 9c8:	00000558 	andeq	r0, r0, r8, asr r5
 9cc:	00560001 	subseq	r0, r6, r1
 9d0:	00000000 	andeq	r0, r0, r0
 9d4:	a4000000 	strge	r0, [r0], #-0
 9d8:	c4000002 	strgt	r0, [r0], #-2
 9dc:	01000002 	tsteq	r0, r2
 9e0:	00005300 	andeq	r5, r0, r0, lsl #6
 9e4:	00000000 	andeq	r0, r0, r0
 9e8:	02b80000 	adcseq	r0, r8, #0
 9ec:	02d40000 	sbcseq	r0, r4, #0
 9f0:	00010000 	andeq	r0, r1, r0
 9f4:	0002d450 	andeq	sp, r2, r0, asr r4
 9f8:	0002d800 	andeq	sp, r2, r0, lsl #16
 9fc:	54000100 	strpl	r0, [r0], #-256	; 0x100
 a00:	000002d8 	ldrdeq	r0, [r0], -r8
 a04:	000002e4 	andeq	r0, r0, r4, ror #5
 a08:	01740003 	cmneq	r4, r3
 a0c:	0002e49f 	muleq	r2, pc, r4	; <UNPREDICTABLE>
 a10:	0002f000 	andeq	pc, r2, r0
 a14:	54000100 	strpl	r0, [r0], #-256	; 0x100
 a18:	000002f0 	strdeq	r0, [r0], -r0	; <UNPREDICTABLE>
 a1c:	000002fc 	strdeq	r0, [r0], -ip
 a20:	01740003 	cmneq	r4, r3
 a24:	0002fc9f 	muleq	r2, pc, ip	; <UNPREDICTABLE>
 a28:	00050c00 	andeq	r0, r5, r0, lsl #24
 a2c:	54000100 	strpl	r0, [r0], #-256	; 0x100
 a30:	0000050c 	andeq	r0, r0, ip, lsl #10
 a34:	00000518 	andeq	r0, r0, r8, lsl r5
 a38:	01740003 	cmneq	r4, r3
 a3c:	0005189f 	muleq	r5, pc, r8	; <UNPREDICTABLE>
 a40:	00054400 	andeq	r4, r5, r0, lsl #8
 a44:	54000100 	strpl	r0, [r0], #-256	; 0x100
 a48:	00000544 	andeq	r0, r0, r4, asr #10
 a4c:	00000550 	andeq	r0, r0, r0, asr r5
 a50:	50500001 	subspl	r0, r0, r1
 a54:	58000005 	stmdapl	r0, {r0, r2}
 a58:	03000005 	movweq	r0, #5
 a5c:	9f017400 	svcls	0x00017400
	...
 a68:	000002c0 	andeq	r0, r0, r0, asr #5
 a6c:	00000558 	andeq	r0, r0, r8, asr r5
 a70:	58580001 	ldmdapl	r8, {r0}^
 a74:	78000005 	stmdavc	r0, {r0, r2}
 a78:	0a000005 	beq	a94 <__code_start__-0x756c>
 a7c:	5101f300 	mrspl	pc, SP_irq	; <UNPREDICTABLE>
 a80:	225001f3 	subscs	r0, r0, #-1073741764	; 0xc000003c
 a84:	009f1c31 	addseq	r1, pc, r1, lsr ip	; <UNPREDICTABLE>
 a88:	00000000 	andeq	r0, r0, r0
 a8c:	c8000000 	stmdagt	r0, {}	; <UNPREDICTABLE>
 a90:	d4000002 	strle	r0, [r0], #-2
 a94:	01000002 	tsteq	r0, r2
 a98:	02d45200 	sbcseq	r5, r4, #0, 4
 a9c:	05780000 	ldrbeq	r0, [r8, #-0]!
 aa0:	00030000 	andeq	r0, r3, r0
 aa4:	007ecc91 			; <UNDEFINED> instruction: 0x007ecc91
 aa8:	00000000 	andeq	r0, r0, r0
 aac:	10000000 	andne	r0, r0, r0
 ab0:	14000004 	strne	r0, [r0], #-4
 ab4:	01000004 	tsteq	r0, r4
 ab8:	04385000 	ldrteq	r5, [r8], #-0
 abc:	043c0000 	ldrteq	r0, [ip], #-0
 ac0:	00010000 	andeq	r0, r1, r0
 ac4:	00046050 	andeq	r6, r4, r0, asr r0
 ac8:	00046400 	andeq	r6, r4, r0, lsl #8
 acc:	50000100 	andpl	r0, r0, r0, lsl #2
 ad0:	00000488 	andeq	r0, r0, r8, lsl #9
 ad4:	0000048c 	andeq	r0, r0, ip, lsl #9
 ad8:	94500001 	ldrbls	r0, [r0], #-1
 adc:	98000004 	stmdals	r0, {r2}
 ae0:	01000004 	tsteq	r0, r4
 ae4:	04bc5000 	ldrteq	r5, [ip], #0
 ae8:	04c00000 	strbeq	r0, [r0], #0
 aec:	00010000 	andeq	r0, r1, r0
 af0:	00050450 	andeq	r0, r5, r0, asr r4
 af4:	00052c00 	andeq	r2, r5, r0, lsl #24
 af8:	50000100 	andpl	r0, r0, r0, lsl #2
	...
 b04:	00000304 	andeq	r0, r0, r4, lsl #6
 b08:	0000030c 	andeq	r0, r0, ip, lsl #6
 b0c:	9f300002 	svcls	0x00300002
 b10:	0000030c 	andeq	r0, r0, ip, lsl #6
 b14:	00000310 	andeq	r0, r0, r0, lsl r3
 b18:	1c570001 	mrrcne	0, 0, r0, r7, cr1
 b1c:	2c000003 	stccs	0, cr0, [r0], {3}
 b20:	01000005 	tsteq	r0, r5
 b24:	00005700 	andeq	r5, r0, r0, lsl #14
 b28:	00000000 	andeq	r0, r0, r0
 b2c:	00040000 	andeq	r0, r4, r0
 b30:	00080000 	andeq	r0, r8, r0
 b34:	00070000 	andeq	r0, r7, r0
 b38:	000a0073 	andeq	r0, sl, r3, ror r0
 b3c:	089f2110 	ldmeq	pc, {r4, r8, sp}	; <UNPREDICTABLE>
 b40:	10000000 	andne	r0, r0, r0
 b44:	01000000 	mrseq	r0, (UNDEF: 0)
 b48:	00005300 	andeq	r5, r0, r0, lsl #6
 b4c:	00000000 	andeq	r0, r0, r0
 b50:	00140000 	andseq	r0, r4, r0
 b54:	00180000 	andseq	r0, r8, r0
 b58:	00070000 	andeq	r0, r7, r0
 b5c:	ff0b0073 			; <UNDEFINED> instruction: 0xff0b0073
 b60:	189f1aef 	ldmne	pc, {r0, r1, r2, r3, r5, r6, r7, r9, fp, ip}	; <UNPREDICTABLE>
 b64:	20000000 	andcs	r0, r0, r0
 b68:	01000000 	mrseq	r0, (UNDEF: 0)
 b6c:	00005300 	andeq	r5, r0, r0, lsl #6
 b70:	00000000 	andeq	r0, r0, r0
 b74:	00140000 	andseq	r0, r4, r0
 b78:	001c0000 	andseq	r0, ip, r0
 b7c:	00030000 	andeq	r0, r3, r0
 b80:	1c9f0473 	cfldrsne	mvf0, [pc], {115}	; 0x73
 b84:	27000000 	strcs	r0, [r0, -r0]
 b88:	01000000 	mrseq	r0, (UNDEF: 0)
 b8c:	00005300 	andeq	r5, r0, r0, lsl #6
	...
 b98:	000f0000 	andeq	r0, pc, r0
 b9c:	00010000 	andeq	r0, r1, r0
 ba0:	00000f50 	andeq	r0, r0, r0, asr pc
 ba4:	00004400 	andeq	r4, r0, r0, lsl #8
 ba8:	54000100 	strpl	r0, [r0], #-256	; 0x100
	...
 bb8:	0000000f 	andeq	r0, r0, pc
 bbc:	0f500001 	svceq	0x00500001
 bc0:	44000000 	strmi	r0, [r0], #-0
 bc4:	01000000 	mrseq	r0, (UNDEF: 0)
 bc8:	00005400 	andeq	r5, r0, r0, lsl #8
	...
 bd4:	000f0000 	andeq	r0, pc, r0
 bd8:	00010000 	andeq	r0, r1, r0
 bdc:	00000f50 	andeq	r0, r0, r0, asr pc
 be0:	00004400 	andeq	r4, r0, r0, lsl #8
 be4:	54000100 	strpl	r0, [r0], #-256	; 0x100
	...
 bf4:	0000000f 	andeq	r0, r0, pc
 bf8:	0f500001 	svceq	0x00500001
 bfc:	44000000 	strmi	r0, [r0], #-0
 c00:	01000000 	mrseq	r0, (UNDEF: 0)
 c04:	00005400 	andeq	r5, r0, r0, lsl #8
 c08:	00000000 	andeq	r0, r0, r0
 c0c:	00340000 	eorseq	r0, r4, r0
 c10:	00400000 	subeq	r0, r0, r0
 c14:	00020000 	andeq	r0, r2, r0
 c18:	00409f30 	subeq	r9, r0, r0, lsr pc
 c1c:	006c0000 	rsbeq	r0, ip, r0
 c20:	00010000 	andeq	r0, r1, r0
 c24:	00000053 	andeq	r0, r0, r3, asr r0
 c28:	00000000 	andeq	r0, r0, r0
 c2c:	00909400 	addseq	r9, r0, r0, lsl #8
 c30:	00909800 	addseq	r9, r0, r0, lsl #16
 c34:	30000200 	andcc	r0, r0, r0, lsl #4
 c38:	0090989f 	umullseq	r9, r0, pc, r8	; <UNPREDICTABLE>
 c3c:	00909c00 	addseq	r9, r0, r0, lsl #24
 c40:	50000100 	andpl	r0, r0, r0, lsl #2
	...
 c4c:	000090ac 	andeq	r9, r0, ip, lsr #1
 c50:	000090b0 	strheq	r9, [r0], -r0
 c54:	9f300002 	svcls	0x00300002
 c58:	000090b0 	strheq	r9, [r0], -r0
 c5c:	000090b4 	strheq	r9, [r0], -r4
 c60:	b8530001 	ldmdalt	r3, {r0}^
 c64:	c0000090 	mulgt	r0, r0, r0
 c68:	01000090 	swpeq	r0, r0, [r0]	; <UNPREDICTABLE>
 c6c:	00005300 	andeq	r5, r0, r0, lsl #6
	...
 c78:	00040000 	andeq	r0, r4, r0
 c7c:	00010000 	andeq	r0, r1, r0
 c80:	00000450 	andeq	r0, r0, r0, asr r4
 c84:	00000c00 	andeq	r0, r0, r0, lsl #24
 c88:	53000100 	movwpl	r0, #256	; 0x100
 c8c:	0000000c 	andeq	r0, r0, ip
 c90:	00000010 	andeq	r0, r0, r0, lsl r0
 c94:	10500001 	subsne	r0, r0, r1
 c98:	1c000000 	stcne	0, cr0, [r0], {-0}
 c9c:	01000000 	mrseq	r0, (UNDEF: 0)
 ca0:	00005300 	andeq	r5, r0, r0, lsl #6
 ca4:	00000000 	andeq	r0, r0, r0
 ca8:	00400000 	subeq	r0, r0, r0
 cac:	00430000 	subeq	r0, r3, r0
 cb0:	00010000 	andeq	r0, r1, r0
 cb4:	00004350 	andeq	r4, r0, r0, asr r3
 cb8:	00004c00 	andeq	r4, r0, r0, lsl #24
 cbc:	54000100 	strpl	r0, [r0], #-256	; 0x100
	...
 cc8:	0000004c 	andeq	r0, r0, ip, asr #32
 ccc:	00000057 	andeq	r0, r0, r7, asr r0
 cd0:	57500001 	ldrbpl	r0, [r0, -r1]
 cd4:	70000000 	andvc	r0, r0, r0
 cd8:	01000000 	mrseq	r0, (UNDEF: 0)
 cdc:	00005500 	andeq	r5, r0, r0, lsl #10
 ce0:	00000000 	andeq	r0, r0, r0
 ce4:	00600000 	rsbeq	r0, r0, r0
 ce8:	00640000 	rsbeq	r0, r4, r0
 cec:	00010000 	andeq	r0, r1, r0
 cf0:	00000050 	andeq	r0, r0, r0, asr r0
 cf4:	00000000 	andeq	r0, r0, r0
 cf8:	00007000 	andeq	r7, r0, r0
 cfc:	00007c00 	andeq	r7, r0, r0, lsl #24
 d00:	50000100 	andpl	r0, r0, r0, lsl #2
 d04:	0000007c 	andeq	r0, r0, ip, ror r0
 d08:	00000084 	andeq	r0, r0, r4, lsl #1
 d0c:	01f30004 	mvnseq	r0, r4
 d10:	00009f50 	andeq	r9, r0, r0, asr pc
 d14:	00000000 	andeq	r0, r0, r0
 d18:	00840000 	addeq	r0, r4, r0
 d1c:	00900000 	addseq	r0, r0, r0
 d20:	00010000 	andeq	r0, r1, r0
 d24:	00009050 	andeq	r9, r0, r0, asr r0
 d28:	00009800 	andeq	r9, r0, r0, lsl #16
 d2c:	f3000400 	vshl.u8	d0, d0, d0
 d30:	009f5001 	addseq	r5, pc, r1
 d34:	00000000 	andeq	r0, r0, r0
 d38:	38000000 	stmdacc	r0, {}	; <UNPREDICTABLE>
 d3c:	43000001 	movwmi	r0, #1
 d40:	01000001 	tsteq	r0, r1
 d44:	01435000 	mrseq	r5, (UNDEF: 67)
 d48:	01680000 	cmneq	r8, r0
 d4c:	00010000 	andeq	r0, r1, r0
 d50:	00000054 	andeq	r0, r0, r4, asr r0
	...
 d5c:	00000f00 	andeq	r0, r0, r0, lsl #30
 d60:	50000100 	andpl	r0, r0, r0, lsl #2
 d64:	0000000f 	andeq	r0, r0, pc
 d68:	00000020 	andeq	r0, r0, r0, lsr #32
 d6c:	00540001 	subseq	r0, r4, r1
	...
 d78:	0f000000 	svceq	0x00000000
 d7c:	01000000 	mrseq	r0, (UNDEF: 0)
 d80:	000f5100 	andeq	r5, pc, r0, lsl #2
 d84:	00200000 	eoreq	r0, r0, r0
 d88:	00010000 	andeq	r0, r1, r0
 d8c:	00000055 	andeq	r0, r0, r5, asr r0
 d90:	00000000 	andeq	r0, r0, r0
 d94:	0000ec00 	andeq	lr, r0, r0, lsl #24
 d98:	00010400 	andeq	r0, r1, r0, lsl #8
 d9c:	50000100 	andpl	r0, r0, r0, lsl #2
 da0:	00000104 	andeq	r0, r0, r4, lsl #2
 da4:	00000114 	andeq	r0, r0, r4, lsl r1
 da8:	01f30004 	mvnseq	r0, r4
 dac:	01149f50 	tsteq	r4, r0, asr pc
 db0:	01180000 	tsteq	r8, r0
 db4:	00010000 	andeq	r0, r1, r0
 db8:	00011850 	andeq	r1, r1, r0, asr r8
 dbc:	00012000 	andeq	r2, r1, r0
 dc0:	f3000400 	vshl.u8	d0, d0, d0
 dc4:	009f5001 	addseq	r5, pc, r1
 dc8:	00000000 	andeq	r0, r0, r0
 dcc:	f8000000 			; <UNDEFINED> instruction: 0xf8000000
 dd0:	04000000 	streq	r0, [r0], #-0
 dd4:	0b000001 	bleq	de0 <__code_start__-0x7220>
 dd8:	35007000 	strcc	r7, [r0, #-0]
 ddc:	80b42325 	adcshi	r2, r4, r5, lsr #6
 de0:	9f028180 	svcls	0x00028180
 de4:	00000104 	andeq	r0, r0, r4, lsl #2
 de8:	00000107 	andeq	r0, r0, r7, lsl #2
 dec:	07500001 	ldrbeq	r0, [r0, -r1]
 df0:	14000001 	strne	r0, [r0], #-1
 df4:	0c000001 	stceq	0, cr0, [r0], {1}
 df8:	5001f300 	andpl	pc, r1, r0, lsl #6
 dfc:	b4232535 	strtlt	r2, [r3], #-1333	; 0x535
 e00:	02818080 	addeq	r8, r1, #128	; 0x80
 e04:	0000009f 	muleq	r0, pc, r0	; <UNPREDICTABLE>
 e08:	00000000 	andeq	r0, r0, r0
 e0c:	0000fc00 	andeq	pc, r0, r0, lsl #24
 e10:	00011400 	andeq	r1, r1, r0, lsl #8
 e14:	54000100 	strpl	r0, [r0], #-256	; 0x100
	...
 e20:	000000d0 	ldrdeq	r0, [r0], -r0	; <UNPREDICTABLE>
 e24:	000000df 	ldrdeq	r0, [r0], -pc	; <UNPREDICTABLE>
 e28:	df500001 	svcle	0x00500001
 e2c:	e4000000 	str	r0, [r0], #-0
 e30:	04000000 	streq	r0, [r0], #-0
 e34:	5001f300 	andpl	pc, r1, r0, lsl #6
 e38:	0000e49f 	muleq	r0, pc, r4	; <UNPREDICTABLE>
 e3c:	0000e700 	andeq	lr, r0, r0, lsl #14
 e40:	50000100 	andpl	r0, r0, r0, lsl #2
 e44:	000000e7 	andeq	r0, r0, r7, ror #1
 e48:	000000ec 	andeq	r0, r0, ip, ror #1
 e4c:	01f30004 	mvnseq	r0, r4
 e50:	00009f50 	andeq	r9, r0, r0, asr pc
 e54:	00000000 	andeq	r0, r0, r0
 e58:	00d00000 	sbcseq	r0, r0, r0
 e5c:	00df0000 	sbcseq	r0, pc, r0
 e60:	00010000 	andeq	r0, r1, r0
 e64:	0000df51 	andeq	sp, r0, r1, asr pc
 e68:	0000e400 	andeq	lr, r0, r0, lsl #8
 e6c:	f3000400 	vshl.u8	d0, d0, d0
 e70:	e49f5101 	ldr	r5, [pc], #257	; e78 <__code_start__-0x7188>
 e74:	e7000000 	str	r0, [r0, -r0]
 e78:	01000000 	mrseq	r0, (UNDEF: 0)
 e7c:	00e75100 	rsceq	r5, r7, r0, lsl #2
 e80:	00ec0000 	rsceq	r0, ip, r0
 e84:	00040000 	andeq	r0, r4, r0
 e88:	9f5101f3 	svcls	0x005101f3
	...
 e94:	000000c0 	andeq	r0, r0, r0, asr #1
 e98:	000000cb 	andeq	r0, r0, fp, asr #1
 e9c:	cb500001 	blgt	1400ea8 <__bss_end__+0x13f6f58>
 ea0:	d0000000 	andle	r0, r0, r0
 ea4:	04000000 	streq	r0, [r0], #-0
 ea8:	5001f300 	andpl	pc, r1, r0, lsl #6
 eac:	0000009f 	muleq	r0, pc, r0	; <UNPREDICTABLE>
 eb0:	00000000 	andeq	r0, r0, r0
 eb4:	00009c00 	andeq	r9, r0, r0, lsl #24
 eb8:	0000b400 	andeq	fp, r0, r0, lsl #8
 ebc:	50000100 	andpl	r0, r0, r0, lsl #2
 ec0:	000000b4 	strheq	r0, [r0], -r4
 ec4:	000000c0 	andeq	r0, r0, r0, asr #1
 ec8:	01f30004 	mvnseq	r0, r4
 ecc:	00009f50 	andeq	r9, r0, r0, asr pc
 ed0:	00000000 	andeq	r0, r0, r0
 ed4:	00780000 	rsbseq	r0, r8, r0
 ed8:	00900000 	addseq	r0, r0, r0
 edc:	00010000 	andeq	r0, r1, r0
 ee0:	00009050 	andeq	r9, r0, r0, asr r0
 ee4:	00009c00 	andeq	r9, r0, r0, lsl #24
 ee8:	f3000400 	vshl.u8	d0, d0, d0
 eec:	009f5001 	addseq	r5, pc, r1
 ef0:	00000000 	andeq	r0, r0, r0
 ef4:	68000000 	stmdavs	r0, {}	; <UNPREDICTABLE>
 ef8:	73000000 	movwvc	r0, #0
 efc:	01000000 	mrseq	r0, (UNDEF: 0)
 f00:	00735000 	rsbseq	r5, r3, r0
 f04:	00780000 	rsbseq	r0, r8, r0
 f08:	00040000 	andeq	r0, r4, r0
 f0c:	9f5001f3 	svcls	0x005001f3
	...
 f1c:	00000048 	andeq	r0, r0, r8, asr #32
 f20:	48500001 	ldmdami	r0, {r0}^
 f24:	68000000 	stmdavs	r0, {}	; <UNPREDICTABLE>
 f28:	04000000 	streq	r0, [r0], #-0
 f2c:	5001f300 	andpl	pc, r1, r0, lsl #6
 f30:	0000009f 	muleq	r0, pc, r0	; <UNPREDICTABLE>
	...
 f3c:	00004b00 	andeq	r4, r0, r0, lsl #22
 f40:	51000100 	mrspl	r0, (UNDEF: 16)
 f44:	0000004b 	andeq	r0, r0, fp, asr #32
 f48:	00000068 	andeq	r0, r0, r8, rrx
 f4c:	01f30004 	mvnseq	r0, r4
 f50:	00009f51 	andeq	r9, r0, r1, asr pc
 f54:	00000000 	andeq	r0, r0, r0
 f58:	004c0000 	subeq	r0, ip, r0
 f5c:	00540000 	subseq	r0, r4, r0
 f60:	00010000 	andeq	r0, r1, r0
 f64:	00005450 	andeq	r5, r0, r0, asr r4
 f68:	00005800 	andeq	r5, r0, r0, lsl #16
 f6c:	75000900 	strvc	r0, [r0, #-2304]	; 0x900
 f70:	24007400 	strcs	r7, [r0], #-1024	; 0x400
 f74:	9f210071 	svcls	0x00210071
 f78:	00000058 	andeq	r0, r0, r8, asr r0
 f7c:	0000005f 	andeq	r0, r0, pc, asr r0
 f80:	00510001 	subseq	r0, r1, r1
 f84:	00000000 	andeq	r0, r0, r0
 f88:	Address 0x0000000000000f88 is out of bounds.


Disassembly of section .debug_aranges:

00000000 <.debug_aranges>:
   0:	0000001c 	andeq	r0, r0, ip, lsl r0
   4:	00000002 	andeq	r0, r0, r2
   8:	00040000 	andeq	r0, r4, r0
   c:	00000000 	andeq	r0, r0, r0
  10:	00008010 	andeq	r8, r0, r0, lsl r0
  14:	000003d0 	ldrdeq	r0, [r0], -r0	; <UNPREDICTABLE>
	...
  20:	0000001c 	andeq	r0, r0, ip, lsl r0
  24:	092e0002 	stmdbeq	lr!, {r1}
  28:	00040000 	andeq	r0, r4, r0
  2c:	00000000 	andeq	r0, r0, r0
  30:	000083e0 	andeq	r8, r0, r0, ror #7
  34:	00000354 	andeq	r0, r0, r4, asr r3
	...
  40:	0000001c 	andeq	r0, r0, ip, lsl r0
  44:	158a0002 	strne	r0, [sl, #2]
  48:	00040000 	andeq	r0, r4, r0
  4c:	00000000 	andeq	r0, r0, r0
  50:	0000884c 	andeq	r8, r0, ip, asr #16
  54:	00000058 	andeq	r0, r0, r8, asr r0
	...
  60:	0000001c 	andeq	r0, r0, ip, lsl r0
  64:	171f0002 	ldrne	r0, [pc, -r2]
  68:	00040000 	andeq	r0, r4, r0
  6c:	00000000 	andeq	r0, r0, r0
  70:	000088a4 	andeq	r8, r0, r4, lsr #17
  74:	0000003c 	andeq	r0, r0, ip, lsr r0
	...
  80:	0000001c 	andeq	r0, r0, ip, lsl r0
  84:	18360002 	ldmdane	r6!, {r1}
  88:	00040000 	andeq	r0, r4, r0
  8c:	00000000 	andeq	r0, r0, r0
  90:	000088e0 	andeq	r8, r0, r0, ror #17
  94:	00000034 	andeq	r0, r0, r4, lsr r0
	...
  a0:	0000001c 	andeq	r0, r0, ip, lsl r0
  a4:	19280002 	stmdbne	r8!, {r1}
  a8:	00040000 	andeq	r0, r4, r0
  ac:	00000000 	andeq	r0, r0, r0
  b0:	00008914 	andeq	r8, r0, r4, lsl r9
  b4:	00000578 	andeq	r0, r0, r8, ror r5
	...
  c0:	0000001c 	andeq	r0, r0, ip, lsl r0
  c4:	20110002 	andscs	r0, r1, r2
  c8:	00040000 	andeq	r0, r4, r0
  cc:	00000000 	andeq	r0, r0, r0
  d0:	00008e8c 	andeq	r8, r0, ip, lsl #29
  d4:	00000020 	andeq	r0, r0, r0, lsr #32
	...
  e0:	0000001c 	andeq	r0, r0, ip, lsl r0
  e4:	20cd0002 	sbccs	r0, sp, r2
  e8:	00040000 	andeq	r0, r4, r0
  ec:	00000000 	andeq	r0, r0, r0
  f0:	00008eac 	andeq	r8, r0, ip, lsr #29
  f4:	0000002c 	andeq	r0, r0, ip, lsr #32
	...
 100:	0000001c 	andeq	r0, r0, ip, lsl r0
 104:	21e00002 	mvncs	r0, r2
 108:	00040000 	andeq	r0, r4, r0
 10c:	00000000 	andeq	r0, r0, r0
 110:	00008ed8 	ldrdeq	r8, [r0], -r8	; <UNPREDICTABLE>
 114:	00000038 	andeq	r0, r0, r8, lsr r0
	...
 120:	0000001c 	andeq	r0, r0, ip, lsl r0
 124:	22f30002 	rscscs	r0, r3, #2
 128:	00040000 	andeq	r0, r4, r0
 12c:	00000000 	andeq	r0, r0, r0
 130:	00008f10 	andeq	r8, r0, r0, lsl pc
 134:	00000044 	andeq	r0, r0, r4, asr #32
	...
 140:	0000001c 	andeq	r0, r0, ip, lsl r0
 144:	24350002 	ldrtcs	r0, [r5], #-2
 148:	00040000 	andeq	r0, r4, r0
 14c:	00000000 	andeq	r0, r0, r0
 150:	00008f54 	andeq	r8, r0, r4, asr pc
 154:	00000044 	andeq	r0, r0, r4, asr #32
	...
 160:	0000001c 	andeq	r0, r0, ip, lsl r0
 164:	25770002 	ldrbcs	r0, [r7, #-2]!
 168:	00040000 	andeq	r0, r4, r0
 16c:	00000000 	andeq	r0, r0, r0
 170:	00008f98 	muleq	r0, r8, pc	; <UNPREDICTABLE>
 174:	00000044 	andeq	r0, r0, r4, asr #32
	...
 180:	0000001c 	andeq	r0, r0, ip, lsl r0
 184:	26b90002 	ldrtcs	r0, [r9], r2
 188:	00040000 	andeq	r0, r4, r0
 18c:	00000000 	andeq	r0, r0, r0
 190:	00008fdc 	ldrdeq	r8, [r0], -ip
 194:	00000044 	andeq	r0, r0, r4, asr #32
	...
 1a0:	0000001c 	andeq	r0, r0, ip, lsl r0
 1a4:	27fb0002 	ldrbcs	r0, [fp, r2]!
 1a8:	00040000 	andeq	r0, r4, r0
 1ac:	00000000 	andeq	r0, r0, r0
 1b0:	00009020 	andeq	r9, r0, r0, lsr #32
 1b4:	00000008 	andeq	r0, r0, r8
	...
 1c0:	0000001c 	andeq	r0, r0, ip, lsl r0
 1c4:	28970002 	ldmcs	r7, {r1}
 1c8:	00040000 	andeq	r0, r4, r0
 1cc:	00000000 	andeq	r0, r0, r0
 1d0:	00009028 	andeq	r9, r0, r8, lsr #32
 1d4:	0000006c 	andeq	r0, r0, ip, rrx
	...
 1e0:	0000001c 	andeq	r0, r0, ip, lsl r0
 1e4:	2a720002 	bcs	1c801f4 <__bss_end__+0x1c762a4>
 1e8:	00040000 	andeq	r0, r4, r0
 1ec:	00000000 	andeq	r0, r0, r0
 1f0:	00009094 	muleq	r0, r4, r0
 1f4:	00000074 	andeq	r0, r0, r4, ror r0
	...
 200:	0000001c 	andeq	r0, r0, ip, lsl r0
 204:	2c230002 	stccs	0, cr0, [r3], #-8
 208:	00040000 	andeq	r0, r4, r0
 20c:	00000000 	andeq	r0, r0, r0
 210:	00009108 	andeq	r9, r0, r8, lsl #2
 214:	00000098 	muleq	r0, r8, r0
	...
 220:	0000001c 	andeq	r0, r0, ip, lsl r0
 224:	2e1e0002 	cdpcs	0, 1, cr0, cr14, cr2, {0}
 228:	00040000 	andeq	r0, r4, r0
 22c:	00000000 	andeq	r0, r0, r0
 230:	00009204 	andeq	r9, r0, r4, lsl #4
 234:	00000178 	andeq	r0, r0, r8, ror r1
	...
 240:	0000001c 	andeq	r0, r0, ip, lsl r0
 244:	3ae70002 	bcc	ff9c0254 <__bss_end__+0xff9b6304>
 248:	00040000 	andeq	r0, r4, r0
 24c:	00000000 	andeq	r0, r0, r0
 250:	0000937c 	andeq	r9, r0, ip, ror r3
 254:	00000120 	andeq	r0, r0, r0, lsr #2
	...

Disassembly of section .debug_line:

00000000 <.debug_line>:
       0:	000001e0 	andeq	r0, r0, r0, ror #3
       4:	012b0002 	teqeq	fp, r2
       8:	01020000 	mrseq	r0, (UNDEF: 2)
       c:	000d0efb 	strdeq	r0, [sp], -fp
      10:	01010101 	tsteq	r1, r1, lsl #2
      14:	01000000 	mrseq	r0, (UNDEF: 0)
      18:	74010000 	strvc	r0, [r1], #-0
      1c:	73747365 	cmnvc	r4, #-1811939327	; 0x94000001
      20:	2f002e00 	svccs	0x00002e00
      24:	72657355 	rsbvc	r7, r5, #1409286145	; 0x54000001
      28:	72622f73 	rsbvc	r2, r2, #460	; 0x1cc
      2c:	6a6e6169 	bvs	1b985d8 <__bss_end__+0x1b8e688>
      30:	442f6e75 	strtmi	r6, [pc], #-3701	; 38 <__code_start__-0x7fc8>
      34:	746b7365 	strbtvc	r7, [fp], #-869	; 0x365
      38:	732f706f 	teqvc	pc, #111	; 0x6f
      3c:	6f6f6863 	svcvs	0x006f6863
      40:	70532f6c 	subsvc	r2, r3, ip, ror #30
      44:	676e6972 			; <UNDEFINED> instruction: 0x676e6972
      48:	30323931 	eorscc	r3, r2, r1, lsr r9
      4c:	3253432f 	subscc	r4, r3, #-1140850688	; 0xbc000000
      50:	584c3034 	stmdapl	ip, {r2, r4, r5, ip, sp}^
      54:	3273632f 	rsbscc	r6, r3, #-1140850688	; 0xbc000000
      58:	786c3034 	stmdavc	ip!, {r2, r4, r5, ip, sp}^
      5c:	7330322d 	teqvc	r0, #-805306366	; 0xd0000002
      60:	6c2f7270 	sfmvs	f7, 4, [pc], #-448	; fffffea8 <__bss_end__+0xffff5f58>
      64:	69706269 	ldmdbvs	r0!, {r0, r3, r5, r6, r9, sp, lr}^
      68:	636e692f 	cmnvs	lr, #770048	; 0xbc000
      6c:	6564756c 	strbvs	r7, [r4, #-1388]!	; 0x56c
      70:	73752f00 	cmnvc	r5, #0, 30
      74:	6f6c2f72 	svcvs	0x006c2f72
      78:	2f6c6163 	svccs	0x006c6163
      7c:	6c6c6543 	cfstr64vs	mvdx6, [ip], #-268	; 0xfffffef4
      80:	612f7261 	teqvs	pc, r1, ror #4
      84:	6e2d6d72 	mcrvs	13, 1, r6, cr13, cr2, {3}
      88:	2d656e6f 	stclcs	14, cr6, [r5, #-444]!	; 0xfffffe44
      8c:	69626165 	stmdbvs	r2!, {r0, r2, r5, r6, r8, sp, lr}^
      90:	382e342f 	stmdacc	lr!, {r0, r1, r2, r3, r5, sl, ip, sp}
      94:	632d332e 	teqvs	sp, #-1207959552	; 0xb8000000
      98:	30373173 	eorscc	r3, r7, r3, ror r1
      9c:	696c2f65 	stmdbvs	ip!, {r0, r2, r5, r6, r8, r9, sl, fp, sp}^
      a0:	63672f62 	cmnvs	r7, #392	; 0x188
      a4:	72612f63 	rsbvc	r2, r1, #396	; 0x18c
      a8:	6f6e2d6d 	svcvs	0x006e2d6d
      ac:	652d656e 	strvs	r6, [sp, #-1390]!	; 0x56e
      b0:	2f696261 	svccs	0x00696261
      b4:	2e382e34 	mrccs	14, 1, r2, cr8, cr4, {1}
      b8:	6e692f33 	mcrvs	15, 3, r2, cr9, cr3, {1}
      bc:	64756c63 	ldrbtvs	r6, [r5], #-3171	; 0xc63
      c0:	31000065 	tstcc	r0, r5, rrx
      c4:	61702d36 	cmnvs	r0, r6, lsr sp
      c8:	2d317472 	cfldrscs	mvf7, [r1, #-456]!	; 0xfffffe38
      cc:	74736574 	ldrbtvc	r6, [r3], #-1396	; 0x574
      d0:	00632e33 	rsbeq	r2, r3, r3, lsr lr
      d4:	63000001 	movwvs	r0, #1
      d8:	2d343170 	ldfcss	f3, [r4, #-448]!	; 0xfffffe40
      dc:	75626564 	strbvc	r6, [r2, #-1380]!	; 0x564
      e0:	00682e67 	rsbeq	r2, r8, r7, ror #28
      e4:	72000002 	andvc	r0, r0, #2
      e8:	692d6970 	pushvs	{r4, r5, r6, r8, fp, sp, lr}
      ec:	7265746e 	rsbvc	r7, r5, #1845493760	; 0x6e000000
      f0:	74707572 	ldrbtvc	r7, [r0], #-1394	; 0x572
      f4:	00682e73 	rsbeq	r2, r8, r3, ror lr
      f8:	62000003 	andvs	r0, r0, #3
      fc:	732d7469 	teqvc	sp, #1761607680	; 0x69000000
     100:	6f707075 	svcvs	0x00707075
     104:	682e7472 	stmdavs	lr!, {r1, r4, r5, r6, sl, ip, sp, lr}
     108:	00000200 	andeq	r0, r0, r0, lsl #4
     10c:	72737063 	rsbsvc	r7, r3, #99	; 0x63
     110:	6974752d 	ldmdbvs	r4!, {r0, r2, r3, r5, r8, sl, ip, sp, lr}^
     114:	00682e6c 	rsbeq	r2, r8, ip, ror #28
     118:	73000002 	movwvc	r0, #2
     11c:	6e696474 	mcrvs	4, 3, r6, cr9, cr4, {3}
     120:	63672d74 	cmnvs	r7, #116, 26	; 0x1d00
     124:	00682e63 	rsbeq	r2, r8, r3, ror #28
     128:	72000004 	andvc	r0, r0, #4
     12c:	682e6970 	stmdavs	lr!, {r4, r5, r6, r8, fp, sp, lr}
     130:	00000300 	andeq	r0, r0, r0, lsl #6
     134:	02050000 	andeq	r0, r5, #0
     138:	00008010 	andeq	r8, r0, r0, lsl r0
     13c:	13010b03 	movwne	r0, #6915	; 0x1b03
     140:	02002d2f 	andeq	r2, r0, #3008	; 0xbc0
     144:	002f0204 	eoreq	r0, pc, r4, lsl #4
     148:	65020402 	strvs	r0, [r2, #-1026]	; 0x402
     14c:	01040200 	mrseq	r0, R12_usr
     150:	4d062e06 	stcmi	14, cr2, [r6, #-24]	; 0xffffffe8
     154:	020067be 	andeq	r6, r0, #49807360	; 0x2f80000
     158:	82060104 	andhi	r0, r6, #4, 2
     15c:	03060204 	movweq	r0, #25092	; 0x6204
     160:	33f20191 	mvnscc	r0, #1073741860	; 0x40000024
     164:	ec030104 	stfs	f0, [r3], {4}
     168:	d84b2e7e 	stmdale	fp, {r1, r2, r3, r4, r5, r6, r9, sl, fp, sp}^
     16c:	04020083 	streq	r0, [r2], #-131	; 0x83
     170:	06820601 	streq	r0, [r2], r1, lsl #12
     174:	00d82108 	sbcseq	r2, r8, r8, lsl #2
     178:	06010402 	streq	r0, [r1], -r2, lsl #8
     17c:	67bb0682 	ldrvs	r0, [fp, r2, lsl #13]!
     180:	01040200 	mrseq	r0, R12_usr
     184:	bc068206 	sfmlt	f0, 1, [r6], {6}
     188:	4b142202 	blmi	508998 <__bss_end__+0x4fea48>
     18c:	2e030431 	cfmvdhrcs	mvd3, r0
     190:	9b030204 	blls	c09a8 <__bss_end__+0xb6a58>
     194:	03042e01 	movweq	r2, #19969	; 0x4e01
     198:	667ee503 	ldrbtvs	lr, [lr], -r3, lsl #10
     19c:	78030404 	stmdavc	r3, {r2, sl}
     1a0:	0305042e 	movweq	r0, #21550	; 0x542e
     1a4:	67652e6c 	strbvs	r2, [r5, -ip, ror #28]!
     1a8:	026008f7 	rsbeq	r0, r0, #16187392	; 0xf70000
     1ac:	4b4b1528 	blmi	12c5654 <__bss_end__+0x12bb704>
     1b0:	034b4b4b 	movteq	r4, #47947	; 0xbb4b
     1b4:	044bf279 	strbeq	pc, [fp], #-633	; 0x279	; <UNPREDICTABLE>
     1b8:	2e120301 	cdpcs	3, 1, cr0, cr2, cr1, {0}
     1bc:	040200bd 	streq	r0, [r2], #-189	; 0xbd
     1c0:	06820601 	streq	r0, [r2], r1, lsl #12
     1c4:	0200679f 	andeq	r6, r0, #41680896	; 0x27c0000
     1c8:	82060104 	andhi	r0, r6, #4, 2
     1cc:	03060204 	movweq	r0, #25092	; 0x6204
     1d0:	049e0191 	ldreq	r0, [lr], #401	; 0x191
     1d4:	7ee80304 	cdpvc	3, 14, cr0, cr8, cr4, {0}
     1d8:	03010466 	movweq	r0, #5222	; 0x1466
     1dc:	02682e0b 	rsbeq	r2, r8, #11, 28	; 0xb0
     1e0:	0101003a 	tsteq	r1, sl, lsr r0
     1e4:	000001de 	ldrdeq	r0, [r0], -lr
     1e8:	00ff0002 	rscseq	r0, pc, r2
     1ec:	01020000 	mrseq	r0, (UNDEF: 2)
     1f0:	000d0efb 	strdeq	r0, [sp], -fp
     1f4:	01010101 	tsteq	r1, r1, lsl #2
     1f8:	01000000 	mrseq	r0, (UNDEF: 0)
     1fc:	2f010000 	svccs	0x00010000
     200:	2f727375 	svccs	0x00727375
     204:	61636f6c 	cmnvs	r3, ip, ror #30
     208:	65432f6c 	strbvs	r2, [r3, #-3948]	; 0xf6c
     20c:	72616c6c 	rsbvc	r6, r1, #108, 24	; 0x6c00
     210:	6d72612f 	ldfvse	f6, [r2, #-188]!	; 0xffffff44
     214:	6e6f6e2d 	cdpvs	14, 6, cr6, cr15, cr13, {1}
     218:	61652d65 	cmnvs	r5, r5, ror #26
     21c:	342f6962 	strtcc	r6, [pc], #-2402	; 224 <__code_start__-0x7ddc>
     220:	332e382e 	teqcc	lr, #3014656	; 0x2e0000
     224:	3173632d 	cmncc	r3, sp, lsr #6
     228:	2f653037 	svccs	0x00653037
     22c:	2f62696c 	svccs	0x0062696c
     230:	2f636367 	svccs	0x00636367
     234:	2d6d7261 	sfmcs	f7, 2, [sp, #-388]!	; 0xfffffe7c
     238:	656e6f6e 	strbvs	r6, [lr, #-3950]!	; 0xf6e
     23c:	6261652d 	rsbvs	r6, r1, #188743680	; 0xb400000
     240:	2e342f69 	cdpcs	15, 3, cr2, cr4, cr9, {3}
     244:	2f332e38 	svccs	0x00332e38
     248:	6c636e69 	stclvs	14, cr6, [r3], #-420	; 0xfffffe5c
     24c:	00656475 	rsbeq	r6, r5, r5, ror r4
     250:	6573552f 	ldrbvs	r5, [r3, #-1327]!	; 0x52f
     254:	622f7372 	eorvs	r7, pc, #-939524095	; 0xc8000001
     258:	6e616972 	mcrvs	9, 3, r6, cr1, cr2, {3}
     25c:	2f6e756a 	svccs	0x006e756a
     260:	6b736544 	blvs	1cd9778 <__bss_end__+0x1ccf828>
     264:	2f706f74 	svccs	0x00706f74
     268:	6f686373 	svcvs	0x00686373
     26c:	532f6c6f 	teqpl	pc, #28416	; 0x6f00
     270:	6e697270 	mcrvs	2, 3, r7, cr9, cr0, {3}
     274:	32393167 	eorscc	r3, r9, #-1073741799	; 0xc0000019
     278:	53432f30 	movtpl	r2, #16176	; 0x3f30
     27c:	4c303432 	cfldrsmi	mvf3, [r0], #-200	; 0xffffff38
     280:	73632f58 	cmnvc	r3, #88, 30	; 0x160
     284:	6c303432 	cfldrsvs	mvf3, [r0], #-200	; 0xffffff38
     288:	30322d78 	eorscc	r2, r2, r8, ror sp
     28c:	2f727073 	svccs	0x00727073
     290:	7062696c 	rsbvc	r6, r2, ip, ror #18
     294:	6e692f69 	cdpvs	15, 6, cr2, cr9, cr9, {3}
     298:	64756c63 	ldrbtvs	r6, [r5], #-3171	; 0xc63
     29c:	63000065 	movwvs	r0, #101	; 0x65
     2a0:	2d343170 	ldfcss	f3, [r4, #-448]!	; 0xfffffe40
     2a4:	75626564 	strbvc	r6, [r2, #-1380]!	; 0x564
     2a8:	00632e67 	rsbeq	r2, r3, r7, ror #28
     2ac:	63000000 	movwvs	r0, #0
     2b0:	2d343170 	ldfcss	f3, [r4, #-448]!	; 0xfffffe40
     2b4:	75626564 	strbvc	r6, [r2, #-1380]!	; 0x564
     2b8:	00682e67 	rsbeq	r2, r8, r7, ror #28
     2bc:	73000000 	movwvc	r0, #0
     2c0:	6e696474 	mcrvs	4, 3, r6, cr9, cr4, {3}
     2c4:	63672d74 	cmnvs	r7, #116, 26	; 0x1d00
     2c8:	00682e63 	rsbeq	r2, r8, r3, ror #28
     2cc:	72000001 	andvc	r0, r0, #1
     2d0:	682e6970 	stmdavs	lr!, {r4, r5, r6, r8, fp, sp, lr}
     2d4:	00000200 	andeq	r0, r0, r0, lsl #4
     2d8:	2d697072 	stclcs	0, cr7, [r9, #-456]!	; 0xfffffe38
     2dc:	65746e69 	ldrbvs	r6, [r4, #-3689]!	; 0xe69
     2e0:	70757272 	rsbsvc	r7, r5, r2, ror r2
     2e4:	682e7374 	stmdavs	lr!, {r2, r4, r5, r6, r8, r9, ip, sp, lr}
     2e8:	00000200 	andeq	r0, r0, r0, lsl #4
     2ec:	02050000 	andeq	r0, r5, #0
     2f0:	000083e0 	andeq	r8, r0, r0, ror #7
     2f4:	03013503 	movweq	r3, #5379	; 0x1503
     2f8:	24034a62 	strcs	r4, [r3], #-2658	; 0xa62
     2fc:	2e62032e 	cdpcs	3, 6, cr0, cr2, cr14, {1}
     300:	032e7a03 	teqeq	lr, #12288	; 0x3000
     304:	02002e29 	andeq	r2, r0, #656	; 0x290
     308:	4a060104 	bmi	180720 <__bss_end__+0x1767d0>
     30c:	08650306 	stmdaeq	r5!, {r1, r2, r8, r9}^
     310:	2e780320 	cdpcs	3, 7, cr0, cr8, cr0, {1}
     314:	034a7a03 	movteq	r7, #43523	; 0xaa03
     318:	02002e3a 	andeq	r2, r0, #928	; 0x3a0
     31c:	4a060104 	bmi	180734 <__bss_end__+0x1767e4>
     320:	7fbb0306 	svcvc	0x00bb0306
     324:	c8032008 	stmdagt	r3, {r3, sp}
     328:	f54b4a00 			; <UNDEFINED> instruction: 0xf54b4a00
     32c:	036c0204 	cmneq	ip, #4, 4	; 0x40000000
     330:	4b344a13 	blmi	d12b84 <__bss_end__+0xd08c34>
     334:	04d65d03 	ldrbeq	r5, [r6], #3331	; 0xd03
     338:	2e110301 	cdpcs	3, 1, cr0, cr1, cr1, {0}
     33c:	01040200 	mrseq	r0, R12_usr
     340:	08066606 	stmdaeq	r6, {r1, r2, r9, sl, sp, lr}
     344:	04020022 	streq	r0, [r2], #-34	; 0x22
     348:	04820601 	streq	r0, [r2], #1537	; 0x601
     34c:	7a030602 	bvc	c1b5c <__bss_end__+0xb7c0c>
     350:	01042008 	tsteq	r4, r8
     354:	4b2e0c03 	blmi	b83368 <__bss_end__+0xb79418>
     358:	83315a08 	teqhi	r1, #8, 20	; 0x8000
     35c:	7fbb032f 	svcvc	0x00bb032f
     360:	4a5b0366 	bmi	16c1100 <__bss_end__+0x16b71b0>
     364:	82019b03 	andhi	r9, r1, #3072	; 0xc00
     368:	03016503 	movweq	r6, #5379	; 0x1503
     36c:	62032e1f 	andvs	r2, r3, #496	; 0x1f0
     370:	03302c2e 	teqeq	r0, #11776	; 0x2e00
     374:	034a7eff 	movteq	r7, #44799	; 0xaeff
     378:	a24a01b3 	subge	r0, sl, #-1073741780	; 0xc000002c
     37c:	62030204 	andvs	r0, r3, #4, 4	; 0x40000000
     380:	01043366 	tsteq	r4, r6, ror #6
     384:	4b2e1b03 	blmi	b86f98 <__bss_end__+0xb7d048>
     388:	040200d7 	streq	r0, [r2], #-215	; 0xd7
     38c:	04820601 	streq	r0, [r2], #1537	; 0x601
     390:	4f030602 	svcmi	0x00030602
     394:	01042008 	tsteq	r4, r8
     398:	4b2e3303 	blmi	b8cfac <__bss_end__+0xb8305c>
     39c:	2e0b03f4 	mcrcs	3, 0, r0, cr11, cr4, {7}
     3a0:	3f082f01 	svccc	0x00082f01
     3a4:	017fb103 	cmneq	pc, r3, lsl #2
     3a8:	2e00d303 	cdpcs	3, 0, cr13, cr0, cr3, {0}
     3ac:	2e7fae03 	cdpcs	14, 7, cr10, cr15, cr3, {0}
     3b0:	ff03302c 			; <UNDEFINED> instruction: 0xff03302c
     3b4:	e7034a7e 	smlsdx	r3, lr, sl, r4
     3b8:	2fa24a01 	svccs	0x00a24a01
     3bc:	3c080903 	stccc	9, cr0, [r8], {3}
     3c0:	0016022f 	andseq	r0, r6, pc, lsr #4
     3c4:	010c0101 	tsteq	ip, r1, lsl #2
     3c8:	00020000 	andeq	r0, r2, r0
     3cc:	000000f5 	strdeq	r0, [r0], -r5
     3d0:	0efb0102 	cdpeq	1, 15, cr0, cr11, cr2, {0}
     3d4:	0101000d 	tsteq	r1, sp
     3d8:	00000101 	andeq	r0, r0, r1, lsl #2
     3dc:	00000100 	andeq	r0, r0, r0, lsl #2
     3e0:	62696c01 	rsbvs	r6, r9, #256	; 0x100
     3e4:	752f0063 	strvc	r0, [pc, #-99]!	; 389 <__code_start__-0x7c77>
     3e8:	6c2f7273 	sfmvs	f7, 4, [pc], #-460	; 224 <__code_start__-0x7ddc>
     3ec:	6c61636f 	stclvs	3, cr6, [r1], #-444	; 0xfffffe44
     3f0:	6c65432f 	stclvs	3, cr4, [r5], #-188	; 0xffffff44
     3f4:	2f72616c 	svccs	0x0072616c
     3f8:	2d6d7261 	sfmcs	f7, 2, [sp, #-388]!	; 0xfffffe7c
     3fc:	656e6f6e 	strbvs	r6, [lr, #-3950]!	; 0xf6e
     400:	6261652d 	rsbvs	r6, r1, #188743680	; 0xb400000
     404:	2e342f69 	cdpcs	15, 3, cr2, cr4, cr9, {3}
     408:	2d332e38 	ldccs	14, cr2, [r3, #-224]!	; 0xffffff20
     40c:	37317363 	ldrcc	r7, [r1, -r3, ror #6]!
     410:	6c2f6530 	cfstr32vs	mvfx6, [pc], #-192	; 358 <__code_start__-0x7ca8>
     414:	672f6269 	strvs	r6, [pc, -r9, ror #4]!
     418:	612f6363 	teqvs	pc, r3, ror #6
     41c:	6e2d6d72 	mcrvs	13, 1, r6, cr13, cr2, {3}
     420:	2d656e6f 	stclcs	14, cr6, [r5, #-444]!	; 0xfffffe44
     424:	69626165 	stmdbvs	r2!, {r0, r2, r5, r6, r8, sp, lr}^
     428:	382e342f 	stmdacc	lr!, {r0, r1, r2, r3, r5, sl, ip, sp}
     42c:	692f332e 	stmdbvs	pc!, {r1, r2, r3, r5, r8, r9, ip, sp}	; <UNPREDICTABLE>
     430:	756c636e 	strbvc	r6, [ip, #-878]!	; 0x36e
     434:	2f006564 	svccs	0x00006564
     438:	72657355 	rsbvc	r7, r5, #1409286145	; 0x54000001
     43c:	72622f73 	rsbvc	r2, r2, #460	; 0x1cc
     440:	6a6e6169 	bvs	1b989ec <__bss_end__+0x1b8ea9c>
     444:	442f6e75 	strtmi	r6, [pc], #-3701	; 44c <__code_start__-0x7bb4>
     448:	746b7365 	strbtvc	r7, [fp], #-869	; 0x365
     44c:	732f706f 	teqvc	pc, #111	; 0x6f
     450:	6f6f6863 	svcvs	0x006f6863
     454:	70532f6c 	subsvc	r2, r3, ip, ror #30
     458:	676e6972 			; <UNDEFINED> instruction: 0x676e6972
     45c:	30323931 	eorscc	r3, r2, r1, lsr r9
     460:	3253432f 	subscc	r4, r3, #-1140850688	; 0xbc000000
     464:	584c3034 	stmdapl	ip, {r2, r4, r5, ip, sp}^
     468:	3273632f 	rsbscc	r6, r3, #-1140850688	; 0xbc000000
     46c:	786c3034 	stmdavc	ip!, {r2, r4, r5, ip, sp}^
     470:	7330322d 	teqvc	r0, #-805306366	; 0xd0000002
     474:	6c2f7270 	sfmvs	f7, 4, [pc], #-448	; 2bc <__code_start__-0x7d44>
     478:	69706269 	ldmdbvs	r0!, {r0, r3, r5, r6, r9, sp, lr}^
     47c:	636e692f 	cmnvs	lr, #770048	; 0xbc000
     480:	6564756c 	strbvs	r7, [r4, #-1388]!	; 0x56c
     484:	72700000 	rsbsvc	r0, r0, #0
     488:	6b746e69 	blvs	1d1be34 <__bss_end__+0x1d11ee4>
     48c:	0100632e 	tsteq	r0, lr, lsr #6
     490:	74730000 	ldrbtvc	r0, [r3], #-0
     494:	67726164 	ldrbvs	r6, [r2, -r4, ror #2]!
     498:	0200682e 	andeq	r6, r0, #3014656	; 0x2e0000
     49c:	623c0000 	eorsvs	r0, ip, #0
     4a0:	746c6975 	strbtvc	r6, [ip], #-2421	; 0x975
     4a4:	3e6e692d 	cdpcc	9, 6, cr6, cr14, cr13, {1}
     4a8:	00000000 	andeq	r0, r0, r0
     4ac:	2e697072 	mcrcs	0, 3, r7, cr9, cr2, {3}
     4b0:	00030068 	andeq	r0, r3, r8, rrx
     4b4:	2d617600 	stclcs	6, cr7, [r1, #-0]
     4b8:	6e697270 	mcrvs	2, 3, r7, cr9, cr0, {3}
     4bc:	682e6b74 	stmdavs	lr!, {r2, r4, r5, r6, r8, r9, fp, sp, lr}
     4c0:	00000100 	andeq	r0, r0, r0, lsl #2
     4c4:	02050000 	andeq	r0, r5, #0
     4c8:	0000884c 	andeq	r8, r0, ip, asr #16
     4cc:	bf4b6b17 	svclt	0x004b6b17
     4d0:	000e0289 	andeq	r0, lr, r9, lsl #5
     4d4:	00940101 	addseq	r0, r4, r1, lsl #2
     4d8:	00020000 	andeq	r0, r2, r0
     4dc:	0000007c 	andeq	r0, r0, ip, ror r0
     4e0:	0efb0102 	cdpeq	1, 15, cr0, cr11, cr2, {0}
     4e4:	0101000d 	tsteq	r1, sp
     4e8:	00000101 	andeq	r0, r0, r1, lsl #2
     4ec:	00000100 	andeq	r0, r0, r0, lsl #2
     4f0:	62696c01 	rsbvs	r6, r9, #256	; 0x100
     4f4:	552f0063 	strpl	r0, [pc, #-99]!	; 499 <__code_start__-0x7b67>
     4f8:	73726573 	cmnvc	r2, #482344960	; 0x1cc00000
     4fc:	6972622f 	ldmdbvs	r2!, {r0, r1, r2, r3, r5, r9, sp, lr}^
     500:	756a6e61 	strbvc	r6, [sl, #-3681]!	; 0xe61
     504:	65442f6e 	strbvs	r2, [r4, #-3950]	; 0xf6e
     508:	6f746b73 	svcvs	0x00746b73
     50c:	63732f70 	cmnvs	r3, #112, 30	; 0x1c0
     510:	6c6f6f68 	stclvs	15, cr6, [pc], #-416	; 378 <__code_start__-0x7c88>
     514:	7270532f 	rsbsvc	r5, r0, #-1140850688	; 0xbc000000
     518:	31676e69 	cmncc	r7, r9, ror #28
     51c:	2f303239 	svccs	0x00303239
     520:	34325343 	ldrtcc	r5, [r2], #-835	; 0x343
     524:	2f584c30 	svccs	0x00584c30
     528:	34327363 	ldrtcc	r7, [r2], #-867	; 0x363
     52c:	2d786c30 	ldclcs	12, cr6, [r8, #-192]!	; 0xffffff40
     530:	70733032 	rsbsvc	r3, r3, r2, lsr r0
     534:	696c2f72 	stmdbvs	ip!, {r1, r4, r5, r6, r8, r9, sl, fp, sp}^
     538:	2f697062 	svccs	0x00697062
     53c:	6c636e69 	stclvs	14, cr6, [r3], #-420	; 0xfffffe5c
     540:	00656475 	rsbeq	r6, r5, r5, ror r4
     544:	74757000 	ldrbtvc	r7, [r5], #-0
     548:	72616863 	rsbvc	r6, r1, #6488064	; 0x630000
     54c:	0100632e 	tsteq	r0, lr, lsr #6
     550:	70720000 	rsbsvc	r0, r2, r0
     554:	00682e69 	rsbeq	r2, r8, r9, ror #28
     558:	00000002 	andeq	r0, r0, r2
     55c:	a4020500 	strge	r0, [r2], #-1280	; 0x500
     560:	14000088 	strne	r0, [r0], #-136	; 0x88
     564:	bc136b4a 	ldclt	11, cr6, [r3], {74}	; 0x4a
     568:	00080213 	andeq	r0, r8, r3, lsl r2
     56c:	00a00101 	adceq	r0, r0, r1, lsl #2
     570:	00020000 	andeq	r0, r2, r0
     574:	00000079 	andeq	r0, r0, r9, ror r0
     578:	0efb0102 	cdpeq	1, 15, cr0, cr11, cr2, {0}
     57c:	0101000d 	tsteq	r1, sp
     580:	00000101 	andeq	r0, r0, r1, lsl #2
     584:	00000100 	andeq	r0, r0, r0, lsl #2
     588:	62696c01 	rsbvs	r6, r9, #256	; 0x100
     58c:	552f0063 	strpl	r0, [pc, #-99]!	; 531 <__code_start__-0x7acf>
     590:	73726573 	cmnvc	r2, #482344960	; 0x1cc00000
     594:	6972622f 	ldmdbvs	r2!, {r0, r1, r2, r3, r5, r9, sp, lr}^
     598:	756a6e61 	strbvc	r6, [sl, #-3681]!	; 0xe61
     59c:	65442f6e 	strbvs	r2, [r4, #-3950]	; 0xf6e
     5a0:	6f746b73 	svcvs	0x00746b73
     5a4:	63732f70 	cmnvs	r3, #112, 30	; 0x1c0
     5a8:	6c6f6f68 	stclvs	15, cr6, [pc], #-416	; 410 <__code_start__-0x7bf0>
     5ac:	7270532f 	rsbsvc	r5, r0, #-1140850688	; 0xbc000000
     5b0:	31676e69 	cmncc	r7, r9, ror #28
     5b4:	2f303239 	svccs	0x00303239
     5b8:	34325343 	ldrtcc	r5, [r2], #-835	; 0x343
     5bc:	2f584c30 	svccs	0x00584c30
     5c0:	34327363 	ldrtcc	r7, [r2], #-867	; 0x363
     5c4:	2d786c30 	ldclcs	12, cr6, [r8, #-192]!	; 0xffffff40
     5c8:	70733032 	rsbsvc	r3, r3, r2, lsr r0
     5cc:	696c2f72 	stmdbvs	ip!, {r1, r4, r5, r6, r8, r9, sl, fp, sp}^
     5d0:	2f697062 	svccs	0x00697062
     5d4:	6c636e69 	stclvs	14, cr6, [r3], #-420	; 0xfffffe5c
     5d8:	00656475 	rsbeq	r6, r5, r5, ror r4
     5dc:	74757000 	ldrbtvc	r7, [r5], #-0
     5e0:	00632e6b 	rsbeq	r2, r3, fp, ror #28
     5e4:	72000001 	andvc	r0, r0, #1
     5e8:	682e6970 	stmdavs	lr!, {r4, r5, r6, r8, fp, sp, lr}
     5ec:	00000200 	andeq	r0, r0, r0, lsl #4
     5f0:	02050000 	andeq	r0, r5, #0
     5f4:	000088e0 	andeq	r8, r0, r0, ror #17
     5f8:	002d4c15 	eoreq	r4, sp, r5, lsl ip
     5fc:	2f020402 	svccs	0x00020402
     600:	02040200 	andeq	r0, r4, #0, 4
     604:	04020049 	streq	r0, [r2], #-73	; 0x49
     608:	062e0601 	strteq	r0, [lr], -r1, lsl #12
     60c:	0006026b 	andeq	r0, r6, fp, ror #4
     610:	01f10101 	mvnseq	r0, r1, lsl #2
     614:	00020000 	andeq	r0, r2, r0
     618:	000000e9 	andeq	r0, r0, r9, ror #1
     61c:	0efb0102 	cdpeq	1, 15, cr0, cr11, cr2, {0}
     620:	0101000d 	tsteq	r1, sp
     624:	00000101 	andeq	r0, r0, r1, lsl #2
     628:	00000100 	andeq	r0, r0, r0, lsl #2
     62c:	62696c01 	rsbvs	r6, r9, #256	; 0x100
     630:	752f0063 	strvc	r0, [pc, #-99]!	; 5d5 <__code_start__-0x7a2b>
     634:	6c2f7273 	sfmvs	f7, 4, [pc], #-460	; 470 <__code_start__-0x7b90>
     638:	6c61636f 	stclvs	3, cr6, [r1], #-444	; 0xfffffe44
     63c:	6c65432f 	stclvs	3, cr4, [r5], #-188	; 0xffffff44
     640:	2f72616c 	svccs	0x0072616c
     644:	2d6d7261 	sfmcs	f7, 2, [sp, #-388]!	; 0xfffffe7c
     648:	656e6f6e 	strbvs	r6, [lr, #-3950]!	; 0xf6e
     64c:	6261652d 	rsbvs	r6, r1, #188743680	; 0xb400000
     650:	2e342f69 	cdpcs	15, 3, cr2, cr4, cr9, {3}
     654:	2d332e38 	ldccs	14, cr2, [r3, #-224]!	; 0xffffff20
     658:	37317363 	ldrcc	r7, [r1, -r3, ror #6]!
     65c:	6c2f6530 	cfstr32vs	mvfx6, [pc], #-192	; 5a4 <__code_start__-0x7a5c>
     660:	672f6269 	strvs	r6, [pc, -r9, ror #4]!
     664:	612f6363 	teqvs	pc, r3, ror #6
     668:	6e2d6d72 	mcrvs	13, 1, r6, cr13, cr2, {3}
     66c:	2d656e6f 	stclcs	14, cr6, [r5, #-444]!	; 0xfffffe44
     670:	69626165 	stmdbvs	r2!, {r0, r2, r5, r6, r8, sp, lr}^
     674:	382e342f 	stmdacc	lr!, {r0, r1, r2, r3, r5, sl, ip, sp}
     678:	692f332e 	stmdbvs	pc!, {r1, r2, r3, r5, r8, r9, ip, sp}	; <UNPREDICTABLE>
     67c:	756c636e 	strbvc	r6, [ip, #-878]!	; 0x36e
     680:	2f006564 	svccs	0x00006564
     684:	72657355 	rsbvc	r7, r5, #1409286145	; 0x54000001
     688:	72622f73 	rsbvc	r2, r2, #460	; 0x1cc
     68c:	6a6e6169 	bvs	1b98c38 <__bss_end__+0x1b8ece8>
     690:	442f6e75 	strtmi	r6, [pc], #-3701	; 698 <__code_start__-0x7968>
     694:	746b7365 	strbtvc	r7, [fp], #-869	; 0x365
     698:	732f706f 	teqvc	pc, #111	; 0x6f
     69c:	6f6f6863 	svcvs	0x006f6863
     6a0:	70532f6c 	subsvc	r2, r3, ip, ror #30
     6a4:	676e6972 			; <UNDEFINED> instruction: 0x676e6972
     6a8:	30323931 	eorscc	r3, r2, r1, lsr r9
     6ac:	3253432f 	subscc	r4, r3, #-1140850688	; 0xbc000000
     6b0:	584c3034 	stmdapl	ip, {r2, r4, r5, ip, sp}^
     6b4:	3273632f 	rsbscc	r6, r3, #-1140850688	; 0xbc000000
     6b8:	786c3034 	stmdavc	ip!, {r2, r4, r5, ip, sp}^
     6bc:	7330322d 	teqvc	r0, #-805306366	; 0xd0000002
     6c0:	6c2f7270 	sfmvs	f7, 4, [pc], #-448	; 508 <__code_start__-0x7af8>
     6c4:	69706269 	ldmdbvs	r0!, {r0, r3, r5, r6, r9, sp, lr}^
     6c8:	636e692f 	cmnvs	lr, #770048	; 0xbc000
     6cc:	6564756c 	strbvs	r7, [r4, #-1388]!	; 0x56c
     6d0:	61760000 	cmnvs	r6, r0
     6d4:	6972702d 	ldmdbvs	r2!, {r0, r2, r3, r5, ip, sp, lr}^
     6d8:	2e6b746e 	cdpcs	4, 6, cr7, cr11, cr14, {3}
     6dc:	00010063 	andeq	r0, r1, r3, rrx
     6e0:	64747300 	ldrbtvs	r7, [r4], #-768	; 0x300
     6e4:	2e677261 	cdpcs	2, 6, cr7, cr7, cr1, {3}
     6e8:	00020068 	andeq	r0, r2, r8, rrx
     6ec:	69707200 	ldmdbvs	r0!, {r9, ip, sp, lr}^
     6f0:	0300682e 	movweq	r6, #2094	; 0x82e
     6f4:	623c0000 	eorsvs	r0, ip, #0
     6f8:	746c6975 	strbtvc	r6, [ip], #-2421	; 0x975
     6fc:	3e6e692d 	cdpcc	9, 6, cr6, cr14, cr13, {1}
     700:	00000000 	andeq	r0, r0, r0
     704:	02050000 	andeq	r0, r5, #0
     708:	00008914 	andeq	r8, r0, r4, lsl r9
     70c:	01012603 	tsteq	r1, r3, lsl #12
     710:	2d3113a5 	ldccs	3, cr1, [r1, #-660]!	; 0xfffffd6c
     714:	02040200 	andeq	r0, r4, #0, 4
     718:	0402002f 	streq	r0, [r2], #-47	; 0x2f
     71c:	02002d02 	andeq	r2, r0, #2, 26	; 0x80
     720:	002f0204 	eoreq	r0, pc, r4, lsl #4
     724:	2d010402 	cfstrscs	mvf0, [r1, #-8]
     728:	14304c4c 	ldrtne	r4, [r0], #-3148	; 0xc4c
     72c:	004f2f4b 	subeq	r2, pc, fp, asr #30
     730:	67020402 	strvs	r0, [r2, -r2, lsl #8]
     734:	01040200 	mrseq	r0, R12_usr
     738:	304d4c65 	subcc	r4, sp, r5, ror #24
     73c:	30312fa0 	eorscc	r2, r1, r0, lsr #31
     740:	84162602 	ldrhi	r2, [r6], #-1538	; 0x602
     744:	02002c2d 	andeq	r2, r0, #11520	; 0x2d00
     748:	00300104 	eorseq	r0, r0, r4, lsl #2
     74c:	33010402 	movwcc	r0, #5122	; 0x1402
     750:	02006606 	andeq	r6, r0, #6291456	; 0x600000
     754:	002e0104 	eoreq	r0, lr, r4, lsl #2
     758:	06010402 	streq	r0, [r1], -r2, lsl #8
     75c:	2f672108 	svccs	0x00672108
     760:	03827303 	orreq	r7, r2, #201326592	; 0xc000000
     764:	02002e13 	andeq	r2, r0, #304	; 0x130
     768:	66060104 	strvs	r0, [r6], -r4, lsl #2
     76c:	01040200 	mrseq	r0, R12_usr
     770:	4b4b8306 	blmi	12e1390 <__bss_end__+0x12d7440>
     774:	034b3167 	movteq	r3, #45415	; 0xb167
     778:	23032e65 	movwcs	r2, #15973	; 0x3e65
     77c:	0402002e 	streq	r0, [r2], #-46	; 0x2e
     780:	002e0601 	eoreq	r0, lr, r1, lsl #12
     784:	06010402 	streq	r0, [r1], -r2, lsl #8
     788:	0402009f 	streq	r0, [r2], #-159	; 0x9f
     78c:	23086a01 	movwcs	r6, #35329	; 0x8a01
     790:	7fa403d7 	svcvc	0x00a403d7
     794:	004b3c08 	subeq	r3, fp, r8, lsl #24
     798:	06010402 	streq	r0, [r1], -r2, lsl #8
     79c:	2108064a 	tstcs	r8, sl, asr #12
     7a0:	034b2f4b 	movteq	r2, #48971	; 0xbf4b
     7a4:	9ff200db 	svcls	0x00f200db
     7a8:	4b32484c 	blmi	c928e0 <__bss_end__+0xc88990>
     7ac:	2f4b842f 	svccs	0x004b842f
     7b0:	30314d2d 	eorscc	r4, r1, sp, lsr #26
     7b4:	0200832f 	andeq	r8, r0, #-1140850688	; 0xbc000000
     7b8:	be2c0104 	suflte	f0, f4, f4
     7bc:	01040200 	mrseq	r0, R12_usr
     7c0:	08064a06 	stmdaeq	r6, {r1, r2, r9, fp, lr}
     7c4:	16360222 	ldrtne	r0, [r6], -r2, lsr #4
     7c8:	08d60e03 	ldmeq	r6, {r0, r1, r9, sl, fp}^
     7cc:	21083021 	tstcs	r8, r1, lsr #32
     7d0:	30210831 	eorcc	r0, r1, r1, lsr r8
     7d4:	4b302108 	blmi	c08bfc <__bss_end__+0xbfecac>
     7d8:	30210830 	eorcc	r0, r1, r0, lsr r8
     7dc:	d983834b 	stmible	r3, {r0, r1, r3, r6, r8, r9, pc}
     7e0:	02002f31 	andeq	r2, r0, #49, 30	; 0xc4
     7e4:	00650104 	rsbeq	r0, r5, r4, lsl #2
     7e8:	06020402 	streq	r0, [r2], -r2, lsl #8
     7ec:	0402004a 	streq	r0, [r2], #-74	; 0x4a
     7f0:	bf030601 	svclt	0x00030601
     7f4:	0200667f 	andeq	r6, r0, #133169152	; 0x7f00000
     7f8:	66060204 	strvs	r0, [r6], -r4, lsl #4
     7fc:	00c50306 	sbceq	r0, r5, r6, lsl #6
     800:	1602684a 	strne	r6, [r2], -sl, asr #16
     804:	42010100 	andmi	r0, r1, #0, 2
     808:	02000000 	andeq	r0, r0, #0
     80c:	00002800 	andeq	r2, r0, r0, lsl #16
     810:	fb010200 	blx	4101a <__bss_end__+0x370ca>
     814:	01000d0e 	tsteq	r0, lr, lsl #26
     818:	00010101 	andeq	r0, r1, r1, lsl #2
     81c:	00010000 	andeq	r0, r1, r0
     820:	74730100 	ldrbtvc	r0, [r3], #-256	; 0x100
     824:	2d666661 	stclcs	6, cr6, [r6, #-388]!	; 0xfffffe7c
     828:	00637273 	rsbeq	r7, r3, r3, ror r2
     82c:	63616300 	cmnvs	r1, #0, 6
     830:	632e6568 	teqvs	lr, #104, 10	; 0x1a000000
     834:	00000100 	andeq	r0, r0, r0, lsl #2
     838:	02050000 	andeq	r0, r5, #0
     83c:	00008e8c 	andeq	r8, r0, ip, lsl #29
     840:	2f301414 	svccs	0x00301414
     844:	2f31144e 	svccs	0x0031144e
     848:	01000402 	tsteq	r0, r2, lsl #8
     84c:	00009d01 	andeq	r9, r0, r1, lsl #26
     850:	86000200 	strhi	r0, [r0], -r0, lsl #4
     854:	02000000 	andeq	r0, r0, #0
     858:	0d0efb01 	vstreq	d15, [lr, #-4]
     85c:	01010100 	mrseq	r0, (UNDEF: 17)
     860:	00000001 	andeq	r0, r0, r1
     864:	01000001 	tsteq	r0, r1
     868:	66617473 			; <UNDEFINED> instruction: 0x66617473
     86c:	72732d66 	rsbsvc	r2, r3, #6528	; 0x1980
     870:	552f0063 	strpl	r0, [pc, #-99]!	; 815 <__code_start__-0x77eb>
     874:	73726573 	cmnvc	r2, #482344960	; 0x1cc00000
     878:	6972622f 	ldmdbvs	r2!, {r0, r1, r2, r3, r5, r9, sp, lr}^
     87c:	756a6e61 	strbvc	r6, [sl, #-3681]!	; 0xe61
     880:	65442f6e 	strbvs	r2, [r4, #-3950]	; 0xf6e
     884:	6f746b73 	svcvs	0x00746b73
     888:	63732f70 	cmnvs	r3, #112, 30	; 0x1c0
     88c:	6c6f6f68 	stclvs	15, cr6, [pc], #-416	; 6f4 <__code_start__-0x790c>
     890:	7270532f 	rsbsvc	r5, r0, #-1140850688	; 0xbc000000
     894:	31676e69 	cmncc	r7, r9, ror #28
     898:	2f303239 	svccs	0x00303239
     89c:	34325343 	ldrtcc	r5, [r2], #-835	; 0x343
     8a0:	2f584c30 	svccs	0x00584c30
     8a4:	34327363 	ldrtcc	r7, [r2], #-867	; 0x363
     8a8:	2d786c30 	ldclcs	12, cr6, [r8, #-192]!	; 0xffffff40
     8ac:	70733032 	rsbsvc	r3, r3, r2, lsr r0
     8b0:	696c2f72 	stmdbvs	ip!, {r1, r4, r5, r6, r8, r9, sl, fp, sp}^
     8b4:	2f697062 	svccs	0x00697062
     8b8:	6c636e69 	stclvs	14, cr6, [r3], #-420	; 0xfffffe5c
     8bc:	00656475 	rsbeq	r6, r5, r5, ror r4
     8c0:	656c6300 	strbvs	r6, [ip, #-768]!	; 0x300
     8c4:	722d6e61 	eorvc	r6, sp, #1552	; 0x610
     8c8:	6f6f6265 	svcvs	0x006f6265
     8cc:	00632e74 	rsbeq	r2, r3, r4, ror lr
     8d0:	72000001 	andvc	r0, r0, #1
     8d4:	682e6970 	stmdavs	lr!, {r4, r5, r6, r8, fp, sp, lr}
     8d8:	00000200 	andeq	r0, r0, r0, lsl #4
     8dc:	02050000 	andeq	r0, r5, #0
     8e0:	00008eac 	andeq	r8, r0, ip, lsr #29
     8e4:	832f2f15 	teqhi	pc, #21, 30	; 0x54
     8e8:	0006024b 	andeq	r0, r6, fp, asr #4
     8ec:	00a60101 	adceq	r0, r6, r1, lsl #2
     8f0:	00020000 	andeq	r0, r2, r0
     8f4:	00000080 	andeq	r0, r0, r0, lsl #1
     8f8:	0efb0102 	cdpeq	1, 15, cr0, cr11, cr2, {0}
     8fc:	0101000d 	tsteq	r1, sp
     900:	00000101 	andeq	r0, r0, r1, lsl #2
     904:	00000100 	andeq	r0, r0, r0, lsl #2
     908:	61747301 	cmnvs	r4, r1, lsl #6
     90c:	732d6666 	teqvc	sp, #106954752	; 0x6600000
     910:	2f006372 	svccs	0x00006372
     914:	72657355 	rsbvc	r7, r5, #1409286145	; 0x54000001
     918:	72622f73 	rsbvc	r2, r2, #460	; 0x1cc
     91c:	6a6e6169 	bvs	1b98ec8 <__bss_end__+0x1b8ef78>
     920:	442f6e75 	strtmi	r6, [pc], #-3701	; 928 <__code_start__-0x76d8>
     924:	746b7365 	strbtvc	r7, [fp], #-869	; 0x365
     928:	732f706f 	teqvc	pc, #111	; 0x6f
     92c:	6f6f6863 	svcvs	0x006f6863
     930:	70532f6c 	subsvc	r2, r3, ip, ror #30
     934:	676e6972 			; <UNDEFINED> instruction: 0x676e6972
     938:	30323931 	eorscc	r3, r2, r1, lsr r9
     93c:	3253432f 	subscc	r4, r3, #-1140850688	; 0xbc000000
     940:	584c3034 	stmdapl	ip, {r2, r4, r5, ip, sp}^
     944:	3273632f 	rsbscc	r6, r3, #-1140850688	; 0xbc000000
     948:	786c3034 	stmdavc	ip!, {r2, r4, r5, ip, sp}^
     94c:	7330322d 	teqvc	r0, #-805306366	; 0xd0000002
     950:	6c2f7270 	sfmvs	f7, 4, [pc], #-448	; 798 <__code_start__-0x7868>
     954:	69706269 	ldmdbvs	r0!, {r0, r3, r5, r6, r9, sp, lr}^
     958:	636e692f 	cmnvs	lr, #770048	; 0xbc000
     95c:	6564756c 	strbvs	r7, [r4, #-1388]!	; 0x56c
     960:	73630000 	cmnvc	r3, #0
     964:	74726174 	ldrbtvc	r6, [r2], #-372	; 0x174
     968:	0100632e 	tsteq	r0, lr, lsr #6
     96c:	70720000 	rsbsvc	r0, r2, r0
     970:	00682e69 	rsbeq	r2, r8, r9, ror #28
     974:	00000002 	andeq	r0, r0, r2
     978:	d8020500 	stmdale	r2, {r8, sl}
     97c:	0300008e 	movweq	r0, #142	; 0x8e
     980:	3132010c 	teqcc	r2, ip, lsl #2
     984:	002f2d2f 	eoreq	r2, pc, pc, lsr #26
     988:	49010402 	stmdbmi	r1, {r1, sl}
     98c:	034a0903 	movteq	r0, #43267	; 0xa903
     990:	022f2e0d 	eoreq	r2, pc, #13, 28	; 0xd0
     994:	01010006 	tsteq	r1, r6
     998:	000000a2 	andeq	r0, r0, r2, lsr #1
     99c:	008e0002 	addeq	r0, lr, r2
     9a0:	01020000 	mrseq	r0, (UNDEF: 2)
     9a4:	000d0efb 	strdeq	r0, [sp], -fp
     9a8:	01010101 	tsteq	r1, r1, lsl #2
     9ac:	01000000 	mrseq	r0, (UNDEF: 0)
     9b0:	73010000 	movwvc	r0, #4096	; 0x1000
     9b4:	66666174 			; <UNDEFINED> instruction: 0x66666174
     9b8:	6372732d 	cmnvs	r2, #-1275068416	; 0xb4000000
     9bc:	73552f00 	cmpvc	r5, #0, 30
     9c0:	2f737265 	svccs	0x00737265
     9c4:	61697262 	cmnvs	r9, r2, ror #4
     9c8:	6e756a6e 	vsubvs.f32	s13, s10, s29
     9cc:	7365442f 	cmnvc	r5, #788529152	; 0x2f000000
     9d0:	706f746b 	rsbvc	r7, pc, fp, ror #8
     9d4:	6863732f 	stmdavs	r3!, {r0, r1, r2, r3, r5, r8, r9, ip, sp, lr}^
     9d8:	2f6c6f6f 	svccs	0x006c6f6f
     9dc:	69727053 	ldmdbvs	r2!, {r0, r1, r4, r6, ip, sp, lr}^
     9e0:	3931676e 	ldmdbcc	r1!, {r1, r2, r3, r5, r6, r8, r9, sl, sp, lr}
     9e4:	432f3032 	teqmi	pc, #50	; 0x32
     9e8:	30343253 	eorscc	r3, r4, r3, asr r2
     9ec:	632f584c 	teqvs	pc, #76, 16	; 0x4c0000
     9f0:	30343273 	eorscc	r3, r4, r3, ror r2
     9f4:	322d786c 	eorcc	r7, sp, #108, 16	; 0x6c0000
     9f8:	72707330 	rsbsvc	r7, r0, #48, 6	; 0xc0000000
     9fc:	62696c2f 	rsbvs	r6, r9, #12032	; 0x2f00
     a00:	692f6970 	stmdbvs	pc!, {r4, r5, r6, r8, fp, sp, lr}	; <UNPREDICTABLE>
     a04:	756c636e 	strbvc	r6, [ip, #-878]!	; 0x36e
     a08:	00006564 	andeq	r6, r0, r4, ror #10
     a0c:	61666564 	cmnvs	r6, r4, ror #10
     a10:	2d746c75 	ldclcs	12, cr6, [r4, #-468]!	; 0xfffffe2c
     a14:	646e6168 	strbtvs	r6, [lr], #-360	; 0x168
     a18:	2d72656c 	cfldr64cs	mvdx6, [r2, #-432]!	; 0xfffffe50
     a1c:	74736166 	ldrbtvc	r6, [r3], #-358	; 0x166
     a20:	0100632e 	tsteq	r0, lr, lsr #6
     a24:	70720000 	rsbsvc	r0, r2, r0
     a28:	00682e69 	rsbeq	r2, r8, r9, ror #28
     a2c:	00000002 	andeq	r0, r0, r2
     a30:	10020500 	andne	r0, r2, r0, lsl #10
     a34:	1300008f 	movwne	r0, #143	; 0x8f
     a38:	001c0266 	andseq	r0, ip, r6, ror #4
     a3c:	00a30101 	adceq	r0, r3, r1, lsl #2
     a40:	00020000 	andeq	r0, r2, r0
     a44:	0000008f 	andeq	r0, r0, pc, lsl #1
     a48:	0efb0102 	cdpeq	1, 15, cr0, cr11, cr2, {0}
     a4c:	0101000d 	tsteq	r1, sp
     a50:	00000101 	andeq	r0, r0, r1, lsl #2
     a54:	00000100 	andeq	r0, r0, r0, lsl #2
     a58:	61747301 	cmnvs	r4, r1, lsl #6
     a5c:	732d6666 	teqvc	sp, #106954752	; 0x6600000
     a60:	2f006372 	svccs	0x00006372
     a64:	72657355 	rsbvc	r7, r5, #1409286145	; 0x54000001
     a68:	72622f73 	rsbvc	r2, r2, #460	; 0x1cc
     a6c:	6a6e6169 	bvs	1b99018 <__bss_end__+0x1b8f0c8>
     a70:	442f6e75 	strtmi	r6, [pc], #-3701	; a78 <__code_start__-0x7588>
     a74:	746b7365 	strbtvc	r7, [fp], #-869	; 0x365
     a78:	732f706f 	teqvc	pc, #111	; 0x6f
     a7c:	6f6f6863 	svcvs	0x006f6863
     a80:	70532f6c 	subsvc	r2, r3, ip, ror #30
     a84:	676e6972 			; <UNDEFINED> instruction: 0x676e6972
     a88:	30323931 	eorscc	r3, r2, r1, lsr r9
     a8c:	3253432f 	subscc	r4, r3, #-1140850688	; 0xbc000000
     a90:	584c3034 	stmdapl	ip, {r2, r4, r5, ip, sp}^
     a94:	3273632f 	rsbscc	r6, r3, #-1140850688	; 0xbc000000
     a98:	786c3034 	stmdavc	ip!, {r2, r4, r5, ip, sp}^
     a9c:	7330322d 	teqvc	r0, #-805306366	; 0xd0000002
     aa0:	6c2f7270 	sfmvs	f7, 4, [pc], #-448	; 8e8 <__code_start__-0x7718>
     aa4:	69706269 	ldmdbvs	r0!, {r0, r3, r5, r6, r9, sp, lr}^
     aa8:	636e692f 	cmnvs	lr, #770048	; 0xbc000
     aac:	6564756c 	strbvs	r7, [r4, #-1388]!	; 0x56c
     ab0:	65640000 	strbvs	r0, [r4, #-0]!
     ab4:	6c756166 	ldfvse	f6, [r5], #-408	; 0xfffffe68
     ab8:	61682d74 	smcvs	33492	; 0x82d4
     abc:	656c646e 	strbvs	r6, [ip, #-1134]!	; 0x46e
     ac0:	65722d72 	ldrbvs	r2, [r2, #-3442]!	; 0xd72
     ac4:	2e746573 	mrccs	5, 3, r6, cr4, cr3, {3}
     ac8:	00010063 	andeq	r0, r1, r3, rrx
     acc:	69707200 	ldmdbvs	r0!, {r9, ip, sp, lr}^
     ad0:	0200682e 	andeq	r6, r0, #3014656	; 0x2e0000
     ad4:	00000000 	andeq	r0, r0, r0
     ad8:	8f540205 	svchi	0x00540205
     adc:	66130000 	ldrvs	r0, [r3], -r0
     ae0:	01001c02 	tsteq	r0, r2, lsl #24
     ae4:	0000a101 	andeq	sl, r0, r1, lsl #2
     ae8:	8d000200 	sfmhi	f0, 4, [r0, #-0]
     aec:	02000000 	andeq	r0, r0, #0
     af0:	0d0efb01 	vstreq	d15, [lr, #-4]
     af4:	01010100 	mrseq	r0, (UNDEF: 17)
     af8:	00000001 	andeq	r0, r0, r1
     afc:	01000001 	tsteq	r0, r1
     b00:	66617473 			; <UNDEFINED> instruction: 0x66617473
     b04:	72732d66 	rsbsvc	r2, r3, #6528	; 0x1980
     b08:	552f0063 	strpl	r0, [pc, #-99]!	; aad <__code_start__-0x7553>
     b0c:	73726573 	cmnvc	r2, #482344960	; 0x1cc00000
     b10:	6972622f 	ldmdbvs	r2!, {r0, r1, r2, r3, r5, r9, sp, lr}^
     b14:	756a6e61 	strbvc	r6, [sl, #-3681]!	; 0xe61
     b18:	65442f6e 	strbvs	r2, [r4, #-3950]	; 0xf6e
     b1c:	6f746b73 	svcvs	0x00746b73
     b20:	63732f70 	cmnvs	r3, #112, 30	; 0x1c0
     b24:	6c6f6f68 	stclvs	15, cr6, [pc], #-416	; 98c <__code_start__-0x7674>
     b28:	7270532f 	rsbsvc	r5, r0, #-1140850688	; 0xbc000000
     b2c:	31676e69 	cmncc	r7, r9, ror #28
     b30:	2f303239 	svccs	0x00303239
     b34:	34325343 	ldrtcc	r5, [r2], #-835	; 0x343
     b38:	2f584c30 	svccs	0x00584c30
     b3c:	34327363 	ldrtcc	r7, [r2], #-867	; 0x363
     b40:	2d786c30 	ldclcs	12, cr6, [r8, #-192]!	; 0xffffff40
     b44:	70733032 	rsbsvc	r3, r3, r2, lsr r0
     b48:	696c2f72 	stmdbvs	ip!, {r1, r4, r5, r6, r8, r9, sl, fp, sp}^
     b4c:	2f697062 	svccs	0x00697062
     b50:	6c636e69 	stclvs	14, cr6, [r3], #-420	; 0xfffffe5c
     b54:	00656475 	rsbeq	r6, r5, r5, ror r4
     b58:	66656400 	strbtvs	r6, [r5], -r0, lsl #8
     b5c:	746c7561 	strbtvc	r7, [ip], #-1377	; 0x561
     b60:	6e61682d 	cdpvs	8, 6, cr6, cr1, cr13, {1}
     b64:	72656c64 	rsbvc	r6, r5, #100, 24	; 0x6400
     b68:	6977732d 	ldmdbvs	r7!, {r0, r2, r3, r5, r8, r9, ip, sp, lr}^
     b6c:	0100632e 	tsteq	r0, lr, lsr #6
     b70:	70720000 	rsbsvc	r0, r2, r0
     b74:	00682e69 	rsbeq	r2, r8, r9, ror #28
     b78:	00000002 	andeq	r0, r0, r2
     b7c:	98020500 	stmdals	r2, {r8, sl}
     b80:	1300008f 	movwne	r0, #143	; 0x8f
     b84:	001c0266 	andseq	r0, ip, r6, ror #4
     b88:	00ac0101 	adceq	r0, ip, r1, lsl #2
     b8c:	00020000 	andeq	r0, r2, r0
     b90:	00000098 	muleq	r0, r8, r0
     b94:	0efb0102 	cdpeq	1, 15, cr0, cr11, cr2, {0}
     b98:	0101000d 	tsteq	r1, sp
     b9c:	00000101 	andeq	r0, r0, r1, lsl #2
     ba0:	00000100 	andeq	r0, r0, r0, lsl #2
     ba4:	61747301 	cmnvs	r4, r1, lsl #6
     ba8:	732d6666 	teqvc	sp, #106954752	; 0x6600000
     bac:	2f006372 	svccs	0x00006372
     bb0:	72657355 	rsbvc	r7, r5, #1409286145	; 0x54000001
     bb4:	72622f73 	rsbvc	r2, r2, #460	; 0x1cc
     bb8:	6a6e6169 	bvs	1b99164 <__bss_end__+0x1b8f214>
     bbc:	442f6e75 	strtmi	r6, [pc], #-3701	; bc4 <__code_start__-0x743c>
     bc0:	746b7365 	strbtvc	r7, [fp], #-869	; 0x365
     bc4:	732f706f 	teqvc	pc, #111	; 0x6f
     bc8:	6f6f6863 	svcvs	0x006f6863
     bcc:	70532f6c 	subsvc	r2, r3, ip, ror #30
     bd0:	676e6972 			; <UNDEFINED> instruction: 0x676e6972
     bd4:	30323931 	eorscc	r3, r2, r1, lsr r9
     bd8:	3253432f 	subscc	r4, r3, #-1140850688	; 0xbc000000
     bdc:	584c3034 	stmdapl	ip, {r2, r4, r5, ip, sp}^
     be0:	3273632f 	rsbscc	r6, r3, #-1140850688	; 0xbc000000
     be4:	786c3034 	stmdavc	ip!, {r2, r4, r5, ip, sp}^
     be8:	7330322d 	teqvc	r0, #-805306366	; 0xd0000002
     bec:	6c2f7270 	sfmvs	f7, 4, [pc], #-448	; a34 <__code_start__-0x75cc>
     bf0:	69706269 	ldmdbvs	r0!, {r0, r3, r5, r6, r9, sp, lr}^
     bf4:	636e692f 	cmnvs	lr, #770048	; 0xbc000
     bf8:	6564756c 	strbvs	r7, [r4, #-1388]!	; 0x56c
     bfc:	65640000 	strbvs	r0, [r4, #-0]!
     c00:	6c756166 	ldfvse	f6, [r5], #-408	; 0xfffffe68
     c04:	61682d74 	smcvs	33492	; 0x82d4
     c08:	656c646e 	strbvs	r6, [ip, #-1134]!	; 0x46e
     c0c:	6e752d72 	mrcvs	13, 3, r2, cr5, cr2, {3}
     c10:	69666564 	stmdbvs	r6!, {r2, r5, r6, r8, sl, sp, lr}^
     c14:	2d64656e 	cfstr64cs	mvdx6, [r4, #-440]!	; 0xfffffe48
     c18:	74736e69 	ldrbtvc	r6, [r3], #-3689	; 0xe69
     c1c:	0100632e 	tsteq	r0, lr, lsr #6
     c20:	70720000 	rsbsvc	r0, r2, r0
     c24:	00682e69 	rsbeq	r2, r8, r9, ror #28
     c28:	00000002 	andeq	r0, r0, r2
     c2c:	dc020500 	cfstr32le	mvfx0, [r2], {-0}
     c30:	1300008f 	movwne	r0, #143	; 0x8f
     c34:	001c0266 	andseq	r0, ip, r6, ror #4
     c38:	00470101 	subeq	r0, r7, r1, lsl #2
     c3c:	00020000 	andeq	r0, r2, r0
     c40:	00000033 	andeq	r0, r0, r3, lsr r0
     c44:	0efb0102 	cdpeq	1, 15, cr0, cr11, cr2, {0}
     c48:	0101000d 	tsteq	r1, sp
     c4c:	00000101 	andeq	r0, r0, r1, lsl #2
     c50:	00000100 	andeq	r0, r0, r0, lsl #2
     c54:	61747301 	cmnvs	r4, r1, lsl #6
     c58:	732d6666 	teqvc	sp, #106954752	; 0x6600000
     c5c:	00006372 	andeq	r6, r0, r2, ror r3
     c60:	61666564 	cmnvs	r6, r4, ror #10
     c64:	2d746c75 	ldclcs	12, cr6, [r4, #-468]!	; 0xfffffe2c
     c68:	646e6168 	strbtvs	r6, [lr], #-360	; 0x168
     c6c:	7372656c 	cmnvc	r2, #108, 10	; 0x1b000000
     c70:	0100632e 	tsteq	r0, lr, lsr #6
     c74:	00000000 	andeq	r0, r0, r0
     c78:	90200205 	eorls	r0, r0, r5, lsl #4
     c7c:	2f150000 	svccs	0x00150000
     c80:	01000202 	tsteq	r0, r2, lsl #4
     c84:	0000c901 	andeq	ip, r0, r1, lsl #18
     c88:	9a000200 	bls	1490 <__code_start__-0x6b70>
     c8c:	02000000 	andeq	r0, r0, #0
     c90:	0d0efb01 	vstreq	d15, [lr, #-4]
     c94:	01010100 	mrseq	r0, (UNDEF: 17)
     c98:	00000001 	andeq	r0, r0, r1
     c9c:	01000001 	tsteq	r0, r1
     ca0:	66617473 			; <UNDEFINED> instruction: 0x66617473
     ca4:	72732d66 	rsbsvc	r2, r3, #6528	; 0x1980
     ca8:	552f0063 	strpl	r0, [pc, #-99]!	; c4d <__code_start__-0x73b3>
     cac:	73726573 	cmnvc	r2, #482344960	; 0x1cc00000
     cb0:	6972622f 	ldmdbvs	r2!, {r0, r1, r2, r3, r5, r9, sp, lr}^
     cb4:	756a6e61 	strbvc	r6, [sl, #-3681]!	; 0xe61
     cb8:	65442f6e 	strbvs	r2, [r4, #-3950]	; 0xf6e
     cbc:	6f746b73 	svcvs	0x00746b73
     cc0:	63732f70 	cmnvs	r3, #112, 30	; 0x1c0
     cc4:	6c6f6f68 	stclvs	15, cr6, [pc], #-416	; b2c <__code_start__-0x74d4>
     cc8:	7270532f 	rsbsvc	r5, r0, #-1140850688	; 0xbc000000
     ccc:	31676e69 	cmncc	r7, r9, ror #28
     cd0:	2f303239 	svccs	0x00303239
     cd4:	34325343 	ldrtcc	r5, [r2], #-835	; 0x343
     cd8:	2f584c30 	svccs	0x00584c30
     cdc:	34327363 	ldrtcc	r7, [r2], #-867	; 0x363
     ce0:	2d786c30 	ldclcs	12, cr6, [r8, #-192]!	; 0xffffff40
     ce4:	70733032 	rsbsvc	r3, r3, r2, lsr r0
     ce8:	696c2f72 	stmdbvs	ip!, {r1, r4, r5, r6, r8, r9, sl, fp, sp}^
     cec:	2f697062 	svccs	0x00697062
     cf0:	6c636e69 	stclvs	14, cr6, [r3], #-420	; 0xfffffe5c
     cf4:	00656475 	rsbeq	r6, r5, r5, ror r4
     cf8:	746e6900 	strbtvc	r6, [lr], #-2304	; 0x900
     cfc:	75727265 	ldrbvc	r7, [r2, #-613]!	; 0x265
     d00:	2d737470 	cfldrdcs	mvd7, [r3, #-448]!	; 0xfffffe40
     d04:	00632e63 	rsbeq	r2, r3, r3, ror #28
     d08:	72000001 	andvc	r0, r0, #1
     d0c:	692d6970 	pushvs	{r4, r5, r6, r8, fp, sp, lr}
     d10:	7265746e 	rsbvc	r7, r5, #1845493760	; 0x6e000000
     d14:	74707572 	ldrbtvc	r7, [r0], #-1394	; 0x572
     d18:	00682e73 	rsbeq	r2, r8, r3, ror lr
     d1c:	72000002 	andvc	r0, r0, #2
     d20:	682e6970 	stmdavs	lr!, {r4, r5, r6, r8, fp, sp, lr}
     d24:	00000200 	andeq	r0, r0, r0, lsl #4
     d28:	02050000 	andeq	r0, r5, #0
     d2c:	00009028 	andeq	r9, r0, r8, lsr #32
     d30:	31011a03 	tstcc	r1, r3, lsl #20
     d34:	3667672f 	strbtcc	r6, [r7], -pc, lsr #14
     d38:	002d2f83 	eoreq	r2, sp, r3, lsl #31
     d3c:	2f020402 	svccs	0x00020402
     d40:	02040200 	andeq	r0, r4, #0, 4
     d44:	04020065 	streq	r0, [r2], #-101	; 0x65
     d48:	062e0601 	strteq	r0, [lr], -r1, lsl #12
     d4c:	000a024c 	andeq	r0, sl, ip, asr #4
     d50:	00a20101 	adceq	r0, r2, r1, lsl #2
     d54:	00020000 	andeq	r0, r2, r0
     d58:	00000080 	andeq	r0, r0, r0, lsl #1
     d5c:	0efb0102 	cdpeq	1, 15, cr0, cr11, cr2, {0}
     d60:	0101000d 	tsteq	r1, sp
     d64:	00000101 	andeq	r0, r0, r1, lsl #2
     d68:	00000100 	andeq	r0, r0, r0, lsl #2
     d6c:	61747301 	cmnvs	r4, r1, lsl #6
     d70:	732d6666 	teqvc	sp, #106954752	; 0x6600000
     d74:	2f006372 	svccs	0x00006372
     d78:	72657355 	rsbvc	r7, r5, #1409286145	; 0x54000001
     d7c:	72622f73 	rsbvc	r2, r2, #460	; 0x1cc
     d80:	6a6e6169 	bvs	1b9932c <__bss_end__+0x1b8f3dc>
     d84:	442f6e75 	strtmi	r6, [pc], #-3701	; d8c <__code_start__-0x7274>
     d88:	746b7365 	strbtvc	r7, [fp], #-869	; 0x365
     d8c:	732f706f 	teqvc	pc, #111	; 0x6f
     d90:	6f6f6863 	svcvs	0x006f6863
     d94:	70532f6c 	subsvc	r2, r3, ip, ror #30
     d98:	676e6972 			; <UNDEFINED> instruction: 0x676e6972
     d9c:	30323931 	eorscc	r3, r2, r1, lsr r9
     da0:	3253432f 	subscc	r4, r3, #-1140850688	; 0xbc000000
     da4:	584c3034 	stmdapl	ip, {r2, r4, r5, ip, sp}^
     da8:	3273632f 	rsbscc	r6, r3, #-1140850688	; 0xbc000000
     dac:	786c3034 	stmdavc	ip!, {r2, r4, r5, ip, sp}^
     db0:	7330322d 	teqvc	r0, #-805306366	; 0xd0000002
     db4:	6c2f7270 	sfmvs	f7, 4, [pc], #-448	; bfc <__code_start__-0x7404>
     db8:	69706269 	ldmdbvs	r0!, {r0, r3, r5, r6, r9, sp, lr}^
     dbc:	636e692f 	cmnvs	lr, #770048	; 0xbc000
     dc0:	6564756c 	strbvs	r7, [r4, #-1388]!	; 0x56c
     dc4:	65720000 	ldrbvs	r0, [r2, #-0]!
     dc8:	746f6f62 	strbtvc	r6, [pc], #-3938	; dd0 <__code_start__-0x7230>
     dcc:	0100632e 	tsteq	r0, lr, lsr #6
     dd0:	70720000 	rsbsvc	r0, r2, r0
     dd4:	00682e69 	rsbeq	r2, r8, r9, ror #28
     dd8:	00000002 	andeq	r0, r0, r2
     ddc:	94020500 	strls	r0, [r2], #-1280	; 0x500
     de0:	03000090 	movweq	r0, #144	; 0x90
     de4:	3114010d 	tstcc	r4, sp, lsl #2
     de8:	2f15852f 	svccs	0x0015852f
     dec:	672f4d4b 	strvs	r4, [pc, -fp, asr #26]!
     df0:	02675235 	rsbeq	r5, r7, #1342177283	; 0x50000003
     df4:	01010010 	tsteq	r1, r0, lsl r0
     df8:	000000ae 	andeq	r0, r0, lr, lsr #1
     dfc:	007f0002 	rsbseq	r0, pc, r2
     e00:	01020000 	mrseq	r0, (UNDEF: 2)
     e04:	000d0efb 	strdeq	r0, [sp], -fp
     e08:	01010101 	tsteq	r1, r1, lsl #2
     e0c:	01000000 	mrseq	r0, (UNDEF: 0)
     e10:	73010000 	movwvc	r0, #4096	; 0x1000
     e14:	66666174 			; <UNDEFINED> instruction: 0x66666174
     e18:	6372732d 	cmnvs	r2, #-1275068416	; 0xb4000000
     e1c:	73552f00 	cmpvc	r5, #0, 30
     e20:	2f737265 	svccs	0x00737265
     e24:	61697262 	cmnvs	r9, r2, ror #4
     e28:	6e756a6e 	vsubvs.f32	s13, s10, s29
     e2c:	7365442f 	cmnvc	r5, #788529152	; 0x2f000000
     e30:	706f746b 	rsbvc	r7, pc, fp, ror #8
     e34:	6863732f 	stmdavs	r3!, {r0, r1, r2, r3, r5, r8, r9, ip, sp, lr}^
     e38:	2f6c6f6f 	svccs	0x006c6f6f
     e3c:	69727053 	ldmdbvs	r2!, {r0, r1, r4, r6, ip, sp, lr}^
     e40:	3931676e 	ldmdbcc	r1!, {r1, r2, r3, r5, r6, r8, r9, sl, sp, lr}
     e44:	432f3032 	teqmi	pc, #50	; 0x32
     e48:	30343253 	eorscc	r3, r4, r3, asr r2
     e4c:	632f584c 	teqvs	pc, #76, 16	; 0x4c0000
     e50:	30343273 	eorscc	r3, r4, r3, ror r2
     e54:	322d786c 	eorcc	r7, sp, #108, 16	; 0x6c0000
     e58:	72707330 	rsbsvc	r7, r0, #48, 6	; 0xc0000000
     e5c:	62696c2f 	rsbvs	r6, r9, #12032	; 0x2f00
     e60:	692f6970 	stmdbvs	pc!, {r4, r5, r6, r8, fp, sp, lr}	; <UNPREDICTABLE>
     e64:	756c636e 	strbvc	r6, [ip, #-878]!	; 0x36e
     e68:	00006564 	andeq	r6, r0, r4, ror #10
     e6c:	656d6974 	strbvs	r6, [sp, #-2420]!	; 0x974
     e70:	00632e72 	rsbeq	r2, r3, r2, ror lr
     e74:	72000001 	andvc	r0, r0, #1
     e78:	682e6970 	stmdavs	lr!, {r4, r5, r6, r8, fp, sp, lr}
     e7c:	00000200 	andeq	r0, r0, r0, lsl #4
     e80:	02050000 	andeq	r0, r5, #0
     e84:	00009108 	andeq	r9, r0, r8, lsl #2
     e88:	2d2f1416 	cfstrscs	mvf1, [pc, #-88]!	; e38 <__code_start__-0x71c8>
     e8c:	01040200 	mrseq	r0, R12_usr
     e90:	6d062e06 	stcvs	14, cr2, [r6, #-24]	; 0xffffffe8
     e94:	4d4b2f31 	stclmi	15, cr2, [fp, #-196]	; 0xffffff3c
     e98:	304b2f31 	subcc	r2, fp, r1, lsr pc
     e9c:	2f4c4b4c 	svccs	0x004c4b4c
     ea0:	842f2f6a 	strthi	r2, [pc], #-3946	; ea8 <__code_start__-0x7158>
     ea4:	0008022f 	andeq	r0, r8, pc, lsr #4
     ea8:	01480101 	cmpeq	r8, r1, lsl #2
     eac:	00020000 	andeq	r0, r2, r0
     eb0:	00000102 	andeq	r0, r0, r2, lsl #2
     eb4:	0efb0102 	cdpeq	1, 15, cr0, cr11, cr2, {0}
     eb8:	0101000d 	tsteq	r1, sp
     ebc:	00000101 	andeq	r0, r0, r1, lsl #2
     ec0:	00000100 	andeq	r0, r0, r0, lsl #2
     ec4:	73752f01 	cmnvc	r5, #1, 30
     ec8:	6e692f72 	mcrvs	15, 3, r2, cr9, cr2, {3}
     ecc:	64756c63 	ldrbtvs	r6, [r5], #-3171	; 0xc63
     ed0:	656e2f65 	strbvs	r2, [lr, #-3941]!	; 0xf65
     ed4:	62696c77 	rsbvs	r6, r9, #30464	; 0x7700
     ed8:	7379732f 	cmnvc	r9, #-1140850688	; 0xbc000000
     edc:	73752f00 	cmnvc	r5, #0, 30
     ee0:	696c2f72 	stmdbvs	ip!, {r1, r4, r5, r6, r8, r9, sl, fp, sp}^
     ee4:	63672f62 	cmnvs	r7, #392	; 0x188
     ee8:	72612f63 	rsbvc	r2, r1, #396	; 0x18c
     eec:	6f6e2d6d 	svcvs	0x006e2d6d
     ef0:	652d656e 	strvs	r6, [sp, #-1390]!	; 0x56e
     ef4:	2f696261 	svccs	0x00696261
     ef8:	2e332e36 	mrccs	14, 1, r2, cr3, cr6, {1}
     efc:	6e692f31 	mcrvs	15, 3, r2, cr9, cr1, {1}
     f00:	64756c63 	ldrbtvs	r6, [r5], #-3171	; 0xc63
     f04:	682f0065 	stmdavs	pc!, {r0, r2, r5, r6}	; <UNPREDICTABLE>
     f08:	2f656d6f 	svccs	0x00656d6f
     f0c:	6c676e65 	stclvs	14, cr6, [r7], #-404	; 0xfffffe6c
     f10:	632f7265 	teqvs	pc, #1342177286	; 0x50000006
     f14:	7373616c 	cmnvc	r3, #108, 2
     f18:	3273632f 	rsbscc	r6, r3, #-1140850688	; 0xbc000000
     f1c:	786c3034 	stmdavc	ip!, {r2, r4, r5, ip, sp}^
     f20:	7330322d 	teqvc	r0, #-805306366	; 0xd0000002
     f24:	2f2f7270 	svccs	0x002f7270
     f28:	7062696c 	rsbvc	r6, r2, ip, ror #18
     f2c:	682f0069 	stmdavs	pc!, {r0, r3, r5, r6}	; <UNPREDICTABLE>
     f30:	2f656d6f 	svccs	0x00656d6f
     f34:	6c676e65 	stclvs	14, cr6, [r7], #-404	; 0xfffffe6c
     f38:	632f7265 	teqvs	pc, #1342177286	; 0x50000006
     f3c:	7373616c 	cmnvc	r3, #108, 2
     f40:	3273632f 	rsbscc	r6, r3, #-1140850688	; 0xbc000000
     f44:	786c3034 	stmdavc	ip!, {r2, r4, r5, ip, sp}^
     f48:	7330322d 	teqvc	r0, #-805306366	; 0xd0000002
     f4c:	2f2f7270 	svccs	0x002f7270
     f50:	7062696c 	rsbvc	r6, r2, ip, ror #18
     f54:	74732f69 	ldrbtvc	r2, [r3], #-3945	; 0xf69
     f58:	2d666661 	stclcs	6, cr6, [r6, #-388]!	; 0xfffffe7c
     f5c:	00637273 	rsbeq	r7, r3, r3, ror r2
     f60:	72617500 	rsbvc	r7, r1, #0, 10
     f64:	00632e74 	rsbeq	r2, r3, r4, ror lr
     f68:	6c000000 	stcvs	0, cr0, [r0], {-0}
     f6c:	2e6b636f 	cdpcs	3, 6, cr6, cr11, cr15, {3}
     f70:	00010068 	andeq	r0, r1, r8, rrx
     f74:	79745f00 	ldmdbvc	r4!, {r8, r9, sl, fp, ip, lr}^
     f78:	2e736570 	mrccs	5, 3, r6, cr3, cr0, {3}
     f7c:	00010068 	andeq	r0, r1, r8, rrx
     f80:	64747300 	ldrbtvs	r7, [r4], #-768	; 0x300
     f84:	2e666564 	cdpcs	5, 6, cr6, cr6, cr4, {3}
     f88:	00020068 	andeq	r0, r2, r8, rrx
     f8c:	65657200 	strbvs	r7, [r5, #-512]!	; 0x200
     f90:	682e746e 	stmdavs	lr!, {r1, r2, r3, r5, r6, sl, ip, sp, lr}
     f94:	00000100 	andeq	r0, r0, r0, lsl #2
     f98:	2e697072 	mcrcs	0, 3, r7, cr9, cr2, {3}
     f9c:	00030068 	andeq	r0, r3, r8, rrx
     fa0:	72617500 	rsbvc	r7, r1, #0, 10
     fa4:	00682e74 	rsbeq	r2, r8, r4, ror lr
     fa8:	67000004 	strvs	r0, [r0, -r4]
     fac:	2e6f6970 	mcrcs	9, 3, r6, cr15, cr0, {3}
     fb0:	00040068 	andeq	r0, r4, r8, rrx
     fb4:	05000000 	streq	r0, [r0, #-0]
     fb8:	00920402 	addseq	r0, r2, r2, lsl #8
     fbc:	012c0300 	teqeq	ip, r0, lsl #6
     fc0:	9e0c0367 	cdpls	3, 0, cr0, cr12, cr7, {3}
     fc4:	35686735 	strbcc	r6, [r8, #-1845]!	; 0x735
     fc8:	2e0c0368 	cdpcs	3, 0, cr0, cr12, cr8, {3}
     fcc:	69696b85 	stmdbvs	r9!, {r0, r2, r7, r8, r9, fp, sp, lr}^
     fd0:	6b660c03 	blvs	1983fe4 <__bss_end__+0x197a094>
     fd4:	34420867 	strbcc	r0, [r2], #-2151	; 0x867
     fd8:	68364b68 	ldmdavs	r6!, {r3, r5, r6, r8, r9, fp, lr}
     fdc:	02002f87 	andeq	r2, r0, #540	; 0x21c
     fe0:	682f0104 	stmdavs	pc!, {r2, r8}	; <UNPREDICTABLE>
     fe4:	4b673067 	blmi	19cd188 <__bss_end__+0x19c3238>
     fe8:	01040200 	mrseq	r0, R12_usr
     fec:	6967682f 	stmdbvs	r7!, {r0, r1, r2, r3, r5, fp, sp, lr}^
     ff0:	0006022e 	andeq	r0, r6, lr, lsr #4
     ff4:	012b0101 	teqeq	fp, r1, lsl #2
     ff8:	00020000 	andeq	r0, r2, r0
     ffc:	000000f8 	strdeq	r0, [r0], -r8
    1000:	0efb0102 	cdpeq	1, 15, cr0, cr11, cr2, {0}
    1004:	0101000d 	tsteq	r1, sp
    1008:	00000101 	andeq	r0, r0, r1, lsl #2
    100c:	00000100 	andeq	r0, r0, r0, lsl #2
    1010:	73752f01 	cmnvc	r5, #1, 30
    1014:	6e692f72 	mcrvs	15, 3, r2, cr9, cr2, {3}
    1018:	64756c63 	ldrbtvs	r6, [r5], #-3171	; 0xc63
    101c:	656e2f65 	strbvs	r2, [lr, #-3941]!	; 0xf65
    1020:	62696c77 	rsbvs	r6, r9, #30464	; 0x7700
    1024:	7379732f 	cmnvc	r9, #-1140850688	; 0xbc000000
    1028:	73752f00 	cmnvc	r5, #0, 30
    102c:	696c2f72 	stmdbvs	ip!, {r1, r4, r5, r6, r8, r9, sl, fp, sp}^
    1030:	63672f62 	cmnvs	r7, #392	; 0x188
    1034:	72612f63 	rsbvc	r2, r1, #396	; 0x18c
    1038:	6f6e2d6d 	svcvs	0x006e2d6d
    103c:	652d656e 	strvs	r6, [sp, #-1390]!	; 0x56e
    1040:	2f696261 	svccs	0x00696261
    1044:	2e332e36 	mrccs	14, 1, r2, cr3, cr6, {1}
    1048:	6e692f31 	mcrvs	15, 3, r2, cr9, cr1, {1}
    104c:	64756c63 	ldrbtvs	r6, [r5], #-3171	; 0xc63
    1050:	682f0065 	stmdavs	pc!, {r0, r2, r5, r6}	; <UNPREDICTABLE>
    1054:	2f656d6f 	svccs	0x00656d6f
    1058:	6c676e65 	stclvs	14, cr6, [r7], #-404	; 0xfffffe6c
    105c:	632f7265 	teqvs	pc, #1342177286	; 0x50000006
    1060:	7373616c 	cmnvc	r3, #108, 2
    1064:	3273632f 	rsbscc	r6, r3, #-1140850688	; 0xbc000000
    1068:	786c3034 	stmdavc	ip!, {r2, r4, r5, ip, sp}^
    106c:	7330322d 	teqvc	r0, #-805306366	; 0xd0000002
    1070:	2f2f7270 	svccs	0x002f7270
    1074:	7062696c 	rsbvc	r6, r2, ip, ror #18
    1078:	682f0069 	stmdavs	pc!, {r0, r3, r5, r6}	; <UNPREDICTABLE>
    107c:	2f656d6f 	svccs	0x00656d6f
    1080:	6c676e65 	stclvs	14, cr6, [r7], #-404	; 0xfffffe6c
    1084:	632f7265 	teqvs	pc, #1342177286	; 0x50000006
    1088:	7373616c 	cmnvc	r3, #108, 2
    108c:	3273632f 	rsbscc	r6, r3, #-1140850688	; 0xbc000000
    1090:	786c3034 	stmdavc	ip!, {r2, r4, r5, ip, sp}^
    1094:	7330322d 	teqvc	r0, #-805306366	; 0xd0000002
    1098:	2f2f7270 	svccs	0x002f7270
    109c:	7062696c 	rsbvc	r6, r2, ip, ror #18
    10a0:	74732f69 	ldrbtvc	r2, [r3], #-3945	; 0xf69
    10a4:	2d666661 	stclcs	6, cr6, [r6, #-388]!	; 0xfffffe7c
    10a8:	00637273 	rsbeq	r7, r3, r3, ror r2
    10ac:	69706700 	ldmdbvs	r0!, {r8, r9, sl, sp, lr}^
    10b0:	00632e6f 	rsbeq	r2, r3, pc, ror #28
    10b4:	6c000000 	stcvs	0, cr0, [r0], {-0}
    10b8:	2e6b636f 	cdpcs	3, 6, cr6, cr11, cr15, {3}
    10bc:	00010068 	andeq	r0, r1, r8, rrx
    10c0:	79745f00 	ldmdbvc	r4!, {r8, r9, sl, fp, ip, lr}^
    10c4:	2e736570 	mrccs	5, 3, r6, cr3, cr0, {3}
    10c8:	00010068 	andeq	r0, r1, r8, rrx
    10cc:	64747300 	ldrbtvs	r7, [r4], #-768	; 0x300
    10d0:	2e666564 	cdpcs	5, 6, cr6, cr6, cr4, {3}
    10d4:	00020068 	andeq	r0, r2, r8, rrx
    10d8:	65657200 	strbvs	r7, [r5, #-512]!	; 0x200
    10dc:	682e746e 	stmdavs	lr!, {r1, r2, r3, r5, r6, sl, ip, sp, lr}
    10e0:	00000100 	andeq	r0, r0, r0, lsl #2
    10e4:	2e697072 	mcrcs	0, 3, r7, cr9, cr2, {3}
    10e8:	00030068 	andeq	r0, r3, r8, rrx
    10ec:	69706700 	ldmdbvs	r0!, {r8, r9, sl, sp, lr}^
    10f0:	00682e6f 	rsbeq	r2, r8, pc, ror #28
    10f4:	00000004 	andeq	r0, r0, r4
    10f8:	7c020500 	cfstr32vc	mvfx0, [r2], {-0}
    10fc:	03000093 	movweq	r0, #147	; 0x93
    1100:	4c130127 	ldfmis	f0, [r3], {39}	; 0x27
    1104:	68f44f47 	ldmvs	r4!, {r0, r1, r2, r6, r8, r9, sl, fp, lr}^
    1108:	2fa14c4b 	svccs	0x00a14c4b
    110c:	3149136a 	cmpcc	r9, sl, ror #6
    1110:	314913be 	strhcc	r1, [r9, #-62]	; 0xffffffc2
    1114:	2f6a2fbe 	svccs	0x006a2fbe
    1118:	134f484d 	movtne	r4, #63565	; 0xf84d
    111c:	b72f3249 	strlt	r3, [pc, -r9, asr #4]!
    1120:	01000602 	tsteq	r0, r2, lsl #12
    1124:	Address 0x0000000000001124 is out of bounds.


Disassembly of section .debug_str:

00000000 <.debug_str>:
   0:	65646f6d 	strbvs	r6, [r4, #-3949]!	; 0xf6d
   4:	7465675f 	strbtvc	r6, [r5], #-1887	; 0x75f
   8:	6b726200 	blvs	1c98810 <__bss_end__+0x1c8e8c0>
   c:	6d5f7470 	cfldrdvs	mvd7, [pc, #-448]	; fffffe54 <__bss_end__+0xffff5f04>
  10:	616d7369 	cmnvs	sp, r9, ror #6
  14:	5f686374 	svcpl	0x00686374
  18:	30746573 	rsbscc	r6, r4, r3, ror r5
  1c:	74696200 	strbtvc	r6, [r9], #-512	; 0x200
  20:	65675f73 	strbvs	r5, [r7, #-3955]!	; 0xf73
  24:	65740074 	ldrbvs	r0, [r4, #-116]!	; 0x74
  28:	2f737473 	svccs	0x00737473
  2c:	702d3631 	eorvc	r3, sp, r1, lsr r6
  30:	31747261 	cmncc	r4, r1, ror #4
  34:	7365742d 	cmnvc	r5, #754974720	; 0x2d000000
  38:	632e3374 	teqvs	lr, #116, 6	; 0xd0000001
  3c:	73706300 	cmnvc	r0, #0, 6
  40:	6f6d0072 	svcvs	0x006d0072
  44:	735f6564 	cmpvc	pc, #100, 10	; 0x19000000
  48:	73007274 	movwvc	r7, #628	; 0x274
  4c:	74726f68 	ldrbtvc	r6, [r2], #-3944	; 0xf68
  50:	736e7520 	cmnvc	lr, #32, 10	; 0x8000000
  54:	656e6769 	strbvs	r6, [lr, #-1897]!	; 0x769
  58:	6e692064 	cdpvs	0, 6, cr2, cr9, cr4, {3}
  5c:	6e6f0074 	mcrvs	0, 3, r0, cr15, cr4, {3}
  60:	2f00705f 	svccs	0x0000705f
  64:	72657355 	rsbvc	r7, r5, #1409286145	; 0x54000001
  68:	72622f73 	rsbvc	r2, r2, #460	; 0x1cc
  6c:	6a6e6169 	bvs	1b98618 <__bss_end__+0x1b8e6c8>
  70:	442f6e75 	strtmi	r6, [pc], #-3701	; 78 <__code_start__-0x7f88>
  74:	746b7365 	strbtvc	r7, [fp], #-869	; 0x365
  78:	732f706f 	teqvc	pc, #111	; 0x6f
  7c:	6f6f6863 	svcvs	0x006f6863
  80:	70532f6c 	subsvc	r2, r3, ip, ror #30
  84:	676e6972 			; <UNDEFINED> instruction: 0x676e6972
  88:	30323931 	eorscc	r3, r2, r1, lsr r9
  8c:	3253432f 	subscc	r4, r3, #-1140850688	; 0xbc000000
  90:	584c3034 	stmdapl	ip, {r2, r4, r5, ip, sp}^
  94:	3273632f 	rsbscc	r6, r3, #-1140850688	; 0xbc000000
  98:	786c3034 	stmdavc	ip!, {r2, r4, r5, ip, sp}^
  9c:	7330322d 	teqvc	r0, #-805306366	; 0xd0000002
  a0:	6c2f7270 	sfmvs	f7, 4, [pc], #-448	; fffffee8 <__bss_end__+0xffff5f98>
  a4:	2f736261 	svccs	0x00736261
  a8:	732d3631 	teqvc	sp, #51380224	; 0x3100000
  ac:	6c676e69 	stclvs	14, cr6, [r7], #-420	; 0xfffffe5c
  b0:	74732d65 	ldrbtvc	r2, [r3], #-3429	; 0xd65
  b4:	632f7065 	teqvs	pc, #101	; 0x65
  b8:	0065646f 	rsbeq	r6, r5, pc, ror #8
  bc:	6d746f6e 	ldclvs	15, cr6, [r4, #-440]!	; 0xfffffe48
  c0:	006e6961 	rsbeq	r6, lr, r1, ror #18
  c4:	5f6b7262 	svcpl	0x006b7262
  c8:	62726576 	rsbsvs	r6, r2, #494927872	; 0x1d800000
  cc:	0065736f 	rsbeq	r7, r5, pc, ror #6
  d0:	65646f6d 	strbvs	r6, [r4, #-3949]!	; 0xf6d
  d4:	7465735f 	strbtvc	r7, [r5], #-863	; 0x35f
  d8:	73706300 	cmnvc	r0, #0, 6
  dc:	6c6f5f72 	stclvs	15, cr5, [pc], #-456	; ffffff1c <__bss_end__+0xffff5fcc>
  e0:	6e750064 	cdpvs	0, 7, cr0, cr5, cr4, {3}
  e4:	6e676973 	mcrvs	9, 3, r6, cr7, cr3, {3}
  e8:	63206465 	teqvs	r0, #1694498816	; 0x65000000
  ec:	00726168 	rsbseq	r6, r2, r8, ror #2
  f0:	61656c63 	cmnvs	r5, r3, ror #24
  f4:	65725f6e 	ldrbvs	r5, [r2, #-3950]!	; 0xf6e
  f8:	746f6f62 	strbtvc	r6, [pc], #-3938	; 100 <__code_start__-0x7f00>
  fc:	74696200 	strbtvc	r6, [r9], #-512	; 0x200
 100:	6c635f73 	stclvs	15, cr5, [r3], #-460	; 0xfffffe34
 104:	69750072 	ldmdbvs	r5!, {r1, r4, r5, r6}^
 108:	3233746e 	eorscc	r7, r3, #1845493760	; 0x6e000000
 10c:	6200745f 	andvs	r7, r0, #1593835520	; 0x5f000000
 110:	765f6b72 			; <UNDEFINED> instruction: 0x765f6b72
 114:	6f627265 	svcvs	0x00627265
 118:	705f6573 	subsvc	r6, pc, r3, ror r5	; <UNPREDICTABLE>
 11c:	465f5f00 	ldrbmi	r5, [pc], -r0, lsl #30
 120:	54434e55 	strbpl	r4, [r3], #-3669	; 0xe55
 124:	5f4e4f49 	svcpl	0x004e4f49
 128:	6973005f 	ldmdbvs	r3!, {r0, r1, r2, r3, r4, r6}^
 12c:	656c676e 	strbvs	r6, [ip, #-1902]!	; 0x76e
 130:	6574735f 	ldrbvs	r7, [r4, #-863]!	; 0x35f
 134:	61685f70 	smcvs	34288	; 0x85f0
 138:	656c646e 	strbvs	r6, [ip, #-1134]!	; 0x46e
 13c:	4e470072 	mcrmi	0, 2, r0, cr7, cr2, {3}
 140:	20432055 	subcs	r2, r3, r5, asr r0
 144:	2e382e34 	mrccs	14, 1, r2, cr8, cr4, {1}
 148:	6d2d2033 	stcvs	0, cr2, [sp, #-204]!	; 0xffffff34
 14c:	3d757063 	ldclcc	0, cr7, [r5, #-396]!	; 0xfffffe74
 150:	316d7261 	cmncc	sp, r1, ror #4
 154:	6a363731 	bvs	d8de20 <__bss_end__+0xd83ed0>
 158:	732d667a 	teqvc	sp, #127926272	; 0x7a00000
 15c:	746d2d20 	strbtvc	r2, [sp], #-3360	; 0xd20
 160:	3d656e75 	stclcc	14, cr6, [r5, #-468]!	; 0xfffffe2c
 164:	316d7261 	cmncc	sp, r1, ror #4
 168:	6a363731 	bvs	d8de34 <__bss_end__+0xd83ee4>
 16c:	732d667a 	teqvc	sp, #127926272	; 0x7a00000
 170:	67672d20 	strbvs	r2, [r7, -r0, lsr #26]!
 174:	2d206264 	sfmcs	f6, 4, [r0, #-400]!	; 0xfffffe70
 178:	2d20674f 	stccs	7, cr6, [r0, #-316]!	; 0xfffffec4
 17c:	3d647473 	cfstrdcc	mvd7, [r4, #-460]!	; 0xfffffe34
 180:	39756e67 	ldmdbcc	r5!, {r0, r1, r2, r5, r6, r9, sl, fp, sp, lr}^
 184:	662d2039 			; <UNDEFINED> instruction: 0x662d2039
 188:	65657266 	strbvs	r7, [r5, #-614]!	; 0x266
 18c:	6e617473 	mcrvs	4, 3, r7, cr1, cr3, {3}
 190:	676e6964 	strbvs	r6, [lr, -r4, ror #18]!
 194:	6e662d20 	cdpvs	13, 6, cr2, cr6, cr0, {1}
 198:	6f742d6f 	svcvs	0x00742d6f
 19c:	76656c70 			; <UNDEFINED> instruction: 0x76656c70
 1a0:	722d6c65 	eorvc	r6, sp, #25856	; 0x6500
 1a4:	64726f65 	ldrbtvs	r6, [r2], #-3941	; 0xf65
 1a8:	75007265 	strvc	r7, [r0, #-613]	; 0x265
 1ac:	5f726573 	svcpl	0x00726573
 1b0:	6d617274 	sfmvs	f7, 2, [r1, #-464]!	; 0xfffffe30
 1b4:	696c6f70 	stmdbvs	ip!, {r4, r5, r6, r8, r9, sl, fp, sp, lr}^
 1b8:	6e5f656e 	cdpvs	5, 5, cr6, cr15, cr14, {3}
 1bc:	65725f6f 	ldrbvs	r5, [r2, #-3951]!	; 0xf6f
 1c0:	6f6c0074 	svcvs	0x006c0074
 1c4:	6c20676e 	stcvs	7, cr6, [r0], #-440	; 0xfffffe48
 1c8:	20676e6f 	rsbcs	r6, r7, pc, ror #28
 1cc:	69736e75 	ldmdbvs	r3!, {r0, r2, r4, r5, r6, r9, sl, fp, sp, lr}^
 1d0:	64656e67 	strbtvs	r6, [r5], #-3687	; 0xe67
 1d4:	746e6920 	strbtvc	r6, [lr], #-2336	; 0x920
 1d8:	646f6d00 	strbtvs	r6, [pc], #-3328	; 1e0 <__code_start__-0x7e20>
 1dc:	61680065 	cmnvs	r8, r5, rrx
 1e0:	656c646e 	strbvs	r6, [ip, #-1134]!	; 0x46e
 1e4:	00745f72 	rsbseq	r5, r4, r2, ror pc
 1e8:	657a6973 	ldrbvs	r6, [sl, #-2419]!	; 0x973
 1ec:	65707974 	ldrbvs	r7, [r0, #-2420]!	; 0x974
 1f0:	65737500 	ldrbvs	r7, [r3, #-1280]!	; 0x500
 1f4:	65745f72 	ldrbvs	r5, [r4, #-3954]!	; 0xf72
 1f8:	6c007473 	cfstrsvs	mvf7, [r0], {115}	; 0x73
 1fc:	20676e6f 	rsbcs	r6, r7, pc, ror #28
 200:	676e6f6c 	strbvs	r6, [lr, -ip, ror #30]!
 204:	746e6920 	strbtvc	r6, [lr], #-2336	; 0x920
 208:	73616d00 	cmnvc	r1, #0, 26
 20c:	6e65006b 	cdpvs	0, 6, cr0, cr5, cr11, {3}
 210:	656c6261 	strbvs	r6, [ip, #-609]!	; 0x261
 214:	6361635f 	cmnvs	r1, #2080374785	; 0x7c000001
 218:	72006568 	andvc	r6, r0, #104, 10	; 0x1a000000
 21c:	00736765 	rsbseq	r6, r3, r5, ror #14
 220:	726f6873 	rsbvc	r6, pc, #7536640	; 0x730000
 224:	6e692074 	mcrvs	0, 3, r2, cr9, cr4, {3}
 228:	66690074 			; <UNDEFINED> instruction: 0x66690074
 22c:	675f7273 			; <UNDEFINED> instruction: 0x675f7273
 230:	6d007465 	cfstrsvs	mvf7, [r0, #-404]	; 0xfffffe6c
 234:	5f65646f 	svcpl	0x0065646f
 238:	6167656c 	cmnvs	r7, ip, ror #10
 23c:	6177006c 	cmnvs	r7, ip, rrx
 240:	65645f73 	strbvs	r5, [r4, #-3955]!	; 0xf73
 244:	5f677562 	svcpl	0x00677562
 248:	74736e69 	ldrbtvc	r6, [r3], #-3689	; 0xe69
 24c:	6c756166 	ldfvse	f6, [r5], #-408	; 0xfffffe68
 250:	70630074 	rsbvc	r0, r3, r4, ror r0
 254:	655f3431 	ldrbvs	r3, [pc, #-1073]	; fffffe2b <__bss_end__+0xffff5edb>
 258:	6c62616e 	stfvse	f6, [r2], #-440	; 0xfffffe48
 25c:	70630065 	rsbvc	r0, r3, r5, rrx
 260:	675f7273 			; <UNDEFINED> instruction: 0x675f7273
 264:	72007465 	andvc	r7, r0, #1694498816	; 0x65000000
 268:	725f6970 	subsvc	r6, pc, #112, 18	; 0x1c0000
 26c:	74657365 	strbtvc	r7, [r5], #-869	; 0x365
 270:	7475705f 	ldrbtvc	r7, [r5], #-95	; 0x5f
 274:	6f640063 	svcvs	0x00640063
 278:	6400656e 	strvs	r6, [r0], #-1390	; 0x56e
 27c:	5f617461 	svcpl	0x00617461
 280:	726f6261 	rsbvc	r6, pc, #268435462	; 0x10000006
 284:	65765f74 	ldrbvs	r5, [r6, #-3956]!	; 0xf74
 288:	726f7463 	rsbvc	r7, pc, #1660944384	; 0x63000000
 28c:	65727000 	ldrbvs	r7, [r2, #-0]!
 290:	63746566 	cmnvs	r4, #427819008	; 0x19800000
 294:	62615f68 	rsbvs	r5, r1, #104, 30	; 0x1a0
 298:	5f74726f 	svcpl	0x0074726f
 29c:	74636576 	strbtvc	r6, [r3], #-1398	; 0x576
 2a0:	7700726f 	strvc	r7, [r0, -pc, ror #4]
 2a4:	645f7361 	ldrbvs	r7, [pc], #-865	; 2ac <__code_start__-0x7d54>
 2a8:	67756265 	ldrbvs	r6, [r5, -r5, ror #4]!
 2ac:	7461645f 	strbtvc	r6, [r1], #-1119	; 0x45f
 2b0:	75616661 	strbvc	r6, [r1, #-1633]!	; 0x661
 2b4:	6300746c 	movwvs	r7, #1132	; 0x46c
 2b8:	2d343170 	ldfcss	f3, [r4, #-448]!	; 0xfffffe40
 2bc:	75626564 	strbvc	r6, [r2, #-1380]!	; 0x564
 2c0:	00632e67 	rsbeq	r2, r3, r7, ror #28
 2c4:	72637364 	rsbvc	r7, r3, #100, 6	; 0x90000001
 2c8:	7465735f 	strbtvc	r7, [r5], #-863	; 0x35f
 2cc:	72637700 	rsbvc	r7, r3, #0, 14
 2d0:	65725f30 	ldrbvs	r5, [r2, #-3888]!	; 0xf30
 2d4:	63770067 	cmnvs	r7, #103	; 0x67
 2d8:	675f3072 			; <UNDEFINED> instruction: 0x675f3072
 2dc:	69007465 	stmdbvs	r0, {r0, r2, r5, r6, sl, ip, sp, lr}
 2e0:	5f74696e 	svcpl	0x0074696e
 2e4:	72620070 	rsbvc	r0, r2, #112	; 0x70
 2e8:	5f74706b 	svcpl	0x0074706b
 2ec:	646e6168 	strbtvs	r6, [lr], #-360	; 0x168
 2f0:	3072656c 	rsbscc	r6, r2, ip, ror #10
 2f4:	31706300 	cmncc	r0, r0, lsl #6
 2f8:	63625f34 	cmnvs	r2, #52, 30	; 0xd0
 2fc:	735f3072 	cmpvc	pc, #114	; 0x72
 300:	77007465 	strvc	r7, [r0, -r5, ror #8]
 304:	5f307276 	svcpl	0x00307276
 308:	006c6176 	rsbeq	r6, ip, r6, ror r1
 30c:	63746177 	cmnvs	r4, #-1073741795	; 0xc000001d
 310:	5f747068 	svcpl	0x00747068
 314:	30746573 	rsbscc	r6, r4, r3, ror r5
 318:	72767700 	rsbsvc	r7, r6, #0, 14
 31c:	65735f30 	ldrbvs	r5, [r3, #-3888]!	; 0xf30
 320:	72620074 	rsbvc	r0, r2, #116	; 0x74
 324:	6f6e5f6b 	svcvs	0x006e5f6b
 328:	7465725f 	strbtvc	r7, [r5], #-607	; 0x25f
 32c:	7272655f 	rsbsvc	r6, r2, #398458880	; 0x17c00000
 330:	6300726f 	movwvs	r7, #623	; 0x26f
 334:	5f343170 	svcpl	0x00343170
 338:	30726362 	rsbscc	r6, r2, r2, ror #6
 33c:	7465675f 	strbtvc	r6, [r5], #-1887	; 0x75f
 340:	73666400 	cmnvc	r6, #0, 8
 344:	61765f72 	cmnvs	r6, r2, ror pc
 348:	6669006c 	strbtvs	r0, [r9], -ip, rrx
 34c:	675f7261 	ldrbvs	r7, [pc, -r1, ror #4]
 350:	77007465 	strvc	r7, [r0, -r5, ror #8]
 354:	68637461 	stmdavs	r3!, {r0, r5, r6, sl, ip, sp, lr}^
 358:	685f7470 	ldmdavs	pc, {r4, r5, r6, sl, ip, sp, lr}^	; <UNPREDICTABLE>
 35c:	6c646e61 	stclvs	14, cr6, [r4], #-388	; 0xfffffe7c
 360:	00307265 	eorseq	r7, r0, r5, ror #4
 364:	706b7262 	rsbvc	r7, fp, r2, ror #4
 368:	696d5f74 	stmdbvs	sp!, {r2, r4, r5, r6, r8, r9, sl, fp, ip, lr}^
 36c:	74616d73 	strbtvc	r6, [r1], #-3443	; 0xd73
 370:	645f6863 	ldrbvs	r6, [pc], #-2147	; 378 <__code_start__-0x7c88>
 374:	62617369 	rsbvs	r7, r1, #-1543503871	; 0xa4000001
 378:	0030656c 	eorseq	r6, r0, ip, ror #10
 37c:	61746164 	cmnvs	r4, r4, ror #2
 380:	6c756166 	ldfvse	f6, [r5], #-408	; 0xfffffe68
 384:	72665f74 	rsbvc	r5, r6, #116, 30	; 0x1d0
 388:	6c5f6d6f 	mrrcvs	13, 6, r6, pc, cr15	; <UNPREDICTABLE>
 38c:	70630064 	rsbvc	r0, r3, r4, rrx
 390:	625f3431 	subsvs	r3, pc, #822083584	; 0x31000000
 394:	5f307276 	svcpl	0x00307276
 398:	00746573 	rsbseq	r6, r4, r3, ror r5
 39c:	5f736177 	svcpl	0x00736177
 3a0:	75626564 	strbvc	r6, [r2, #-1380]!	; 0x564
 3a4:	75616667 	strbvc	r6, [r1, #-1639]!	; 0x667
 3a8:	725f746c 	subsvc	r7, pc, #108, 8	; 0x6c000000
 3ac:	61666e00 	cmnvs	r6, r0, lsl #28
 3b0:	73746c75 	cmnvc	r4, #29952	; 0x7500
 3b4:	72766200 	rsbsvc	r6, r6, #0, 4
 3b8:	61765f30 	cmnvs	r6, r0, lsr pc
 3bc:	6664006c 	strbtvs	r0, [r4], -ip, rrx
 3c0:	675f7273 			; <UNDEFINED> instruction: 0x675f7273
 3c4:	73007465 	movwvc	r7, #1125	; 0x465
 3c8:	61637379 	smcvs	14137	; 0x3739
 3cc:	765f6c6c 	ldrbvc	r6, [pc], -ip, ror #24
 3d0:	6f746365 	svcvs	0x00746365
 3d4:	615f0072 	cmpvs	pc, r2, ror r0	; <UNPREDICTABLE>
 3d8:	00726464 	rsbseq	r6, r2, r4, ror #8
 3dc:	66657270 			; <UNDEFINED> instruction: 0x66657270
 3e0:	68637465 	stmdavs	r3!, {r0, r2, r5, r6, sl, ip, sp, lr}^
 3e4:	756c665f 	strbvc	r6, [ip, #-1631]!	; 0x65f
 3e8:	735f6873 	cmpvc	pc, #7536640	; 0x730000
 3ec:	62007465 	andvs	r7, r0, #1694498816	; 0x65000000
 3f0:	5f307263 	svcpl	0x00307263
 3f4:	00676572 	rsbeq	r6, r7, r2, ror r5
 3f8:	72616677 	rsbvc	r6, r1, #124780544	; 0x7700000
 3fc:	7465675f 	strbtvc	r6, [r5], #-1887	; 0x75f
 400:	6b726200 	blvs	1c98c08 <__bss_end__+0x1c8ecb8>
 404:	735f7470 	cmpvc	pc, #112, 8	; 0x70000000
 408:	00307465 	eorseq	r7, r0, r5, ror #8
 40c:	30726377 	rsbscc	r6, r2, r7, ror r3
 410:	7465735f 	strbtvc	r7, [r5], #-863	; 0x35f
 414:	746e6900 	strbtvc	r6, [lr], #-2304	; 0x900
 418:	696e695f 	stmdbvs	lr!, {r0, r1, r2, r3, r4, r6, r8, fp, sp, lr}^
 41c:	5f5f0074 	svcpl	0x005f0074
 420:	63756e67 	cmnvs	r5, #1648	; 0x670
 424:	5f61765f 	svcpl	0x0061765f
 428:	7473696c 	ldrbtvc	r6, [r3], #-2412	; 0x96c
 42c:	62696c00 	rsbvs	r6, r9, #0, 24
 430:	72702f63 	rsbsvc	r2, r0, #396	; 0x18c
 434:	6b746e69 	blvs	1d1bde0 <__bss_end__+0x1d11e90>
 438:	4700632e 	strmi	r6, [r0, -lr, lsr #6]
 43c:	4320554e 	teqmi	r0, #327155712	; 0x13800000
 440:	382e3420 	stmdacc	lr!, {r5, sl, ip, sp}
 444:	2d20332e 	stccs	3, cr3, [r0, #-184]!	; 0xffffff48
 448:	7570636d 	ldrbvc	r6, [r0, #-877]!	; 0x36d
 44c:	6d72613d 	ldfvse	f6, [r2, #-244]!	; 0xffffff0c
 450:	36373131 			; <UNDEFINED> instruction: 0x36373131
 454:	2d667a6a 	vstmdbcs	r6!, {s15-s120}
 458:	6d2d2073 	stcvs	0, cr2, [sp, #-460]!	; 0xfffffe34
 45c:	656e7574 	strbvs	r7, [lr, #-1396]!	; 0x574
 460:	6d72613d 	ldfvse	f6, [r2, #-244]!	; 0xffffff0c
 464:	36373131 			; <UNDEFINED> instruction: 0x36373131
 468:	2d667a6a 	vstmdbcs	r6!, {s15-s120}
 46c:	672d2073 			; <UNDEFINED> instruction: 0x672d2073
 470:	20626467 	rsbcs	r6, r2, r7, ror #8
 474:	20674f2d 	rsbcs	r4, r7, sp, lsr #30
 478:	6474732d 	ldrbtvs	r7, [r4], #-813	; 0x32d
 47c:	756e673d 	strbvc	r6, [lr, #-1853]!	; 0x73d
 480:	2d203939 	stccs	9, cr3, [r0, #-228]!	; 0xffffff1c
 484:	65726666 	ldrbvs	r6, [r2, #-1638]!	; 0x666
 488:	61747365 	cmnvs	r4, r5, ror #6
 48c:	6e69646e 	cdpvs	4, 6, cr6, cr9, cr14, {3}
 490:	61760067 	cmnvs	r6, r7, rrx
 494:	6972705f 	ldmdbvs	r2!, {r0, r1, r2, r3, r4, r6, ip, sp, lr}^
 498:	006b746e 	rsbeq	r7, fp, lr, ror #8
 49c:	61765f5f 	cmnvs	r6, pc, asr pc
 4a0:	73696c5f 	cmnvc	r9, #24320	; 0x5f00
 4a4:	552f0074 	strpl	r0, [pc, #-116]!	; 438 <__code_start__-0x7bc8>
 4a8:	73726573 	cmnvc	r2, #482344960	; 0x1cc00000
 4ac:	6972622f 	ldmdbvs	r2!, {r0, r1, r2, r3, r5, r9, sp, lr}^
 4b0:	756a6e61 	strbvc	r6, [sl, #-3681]!	; 0xe61
 4b4:	65442f6e 	strbvs	r2, [r4, #-3950]	; 0xf6e
 4b8:	6f746b73 	svcvs	0x00746b73
 4bc:	63732f70 	cmnvs	r3, #112, 30	; 0x1c0
 4c0:	6c6f6f68 	stclvs	15, cr6, [pc], #-416	; 328 <__code_start__-0x7cd8>
 4c4:	7270532f 	rsbsvc	r5, r0, #-1140850688	; 0xbc000000
 4c8:	31676e69 	cmncc	r7, r9, ror #28
 4cc:	2f303239 	svccs	0x00303239
 4d0:	34325343 	ldrtcc	r5, [r2], #-835	; 0x343
 4d4:	2f584c30 	svccs	0x00584c30
 4d8:	34327363 	ldrtcc	r7, [r2], #-867	; 0x363
 4dc:	2d786c30 	ldclcs	12, cr6, [r8, #-192]!	; 0xffffff40
 4e0:	70733032 	rsbsvc	r3, r3, r2, lsr r0
 4e4:	696c2f72 	stmdbvs	ip!, {r1, r4, r5, r6, r8, r9, sl, fp, sp}^
 4e8:	00697062 	rsbeq	r7, r9, r2, rrx
 4ec:	70615f5f 	rsbvc	r5, r1, pc, asr pc
 4f0:	72617500 	rsbvc	r7, r1, #0, 10
 4f4:	75705f74 	ldrbvc	r5, [r0, #-3956]!	; 0xf74
 4f8:	69006374 	stmdbvs	r0, {r2, r4, r5, r6, r8, r9, sp, lr}
 4fc:	7265746e 	rsbvc	r7, r5, #1845493760	; 0x6e000000
 500:	5f6c616e 	svcpl	0x006c616e
 504:	63747570 	cmnvs	r4, #112, 10	; 0x1c000000
 508:	00726168 	rsbseq	r6, r2, r8, ror #2
 50c:	5f697072 	svcpl	0x00697072
 510:	63747570 	cmnvs	r4, #112, 10	; 0x1c000000
 514:	00726168 	rsbseq	r6, r2, r8, ror #2
 518:	6362696c 	cmnvs	r2, #108, 18	; 0x1b0000
 51c:	7475702f 	ldrbtvc	r7, [r5], #-47	; 0x2f
 520:	72616863 	rsbvc	r6, r1, #6488064	; 0x630000
 524:	7200632e 	andvc	r6, r0, #-1207959552	; 0xb8000000
 528:	735f6970 	cmpvc	pc, #112, 18	; 0x1c0000
 52c:	705f7465 	subsvc	r7, pc, r5, ror #8
 530:	00637475 	rsbeq	r7, r3, r5, ror r4
 534:	6362696c 	cmnvs	r2, #108, 18	; 0x1b0000
 538:	7475702f 	ldrbtvc	r7, [r5], #-47	; 0x2f
 53c:	00632e6b 	rsbeq	r2, r3, fp, ror #28
 540:	65746e69 	ldrbvs	r6, [r4, #-3689]!	; 0xe69
 544:	6c616e72 	stclvs	14, cr6, [r1], #-456	; 0xfffffe38
 548:	7475705f 	ldrbtvc	r7, [r5], #-95	; 0x5f
 54c:	6d66006b 	stclvs	0, cr0, [r6, #-428]!	; 0xfffffe54
 550:	74735f74 	ldrbtvc	r5, [r3], #-3956	; 0xf74
 554:	00747261 	rsbseq	r7, r4, r1, ror #4
 558:	5f67656e 	svcpl	0x0067656e
 55c:	65720070 	ldrbvs	r0, [r2, #-112]!	; 0x70
 560:	73726576 	cmnvc	r2, #494927872	; 0x1d800000
 564:	73690065 	cmnvc	r9, #101	; 0x65
 568:	69676964 	stmdbvs	r7!, {r2, r5, r6, r8, fp, sp, lr}^
 56c:	75700074 	ldrbvc	r0, [r0, #-116]!	; 0x74
 570:	665f7374 			; <UNDEFINED> instruction: 0x665f7374
 574:	69730070 	ldmdbvs	r3!, {r4, r5, r6}^
 578:	64656e67 	strbtvs	r6, [r5], #-3687	; 0xe67
 57c:	6c00705f 	stcvs	0, cr7, [r0], {95}	; 0x5f
 580:	2f636269 	svccs	0x00636269
 584:	702d6176 	eorvc	r6, sp, r6, ror r1
 588:	746e6972 	strbtvc	r6, [lr], #-2418	; 0x972
 58c:	00632e6b 	rsbeq	r2, r3, fp, ror #28
 590:	5f697072 	svcpl	0x00697072
 594:	5f746573 	svcpl	0x00746573
 598:	7074756f 	rsbsvc	r7, r4, pc, ror #10
 59c:	77007475 	smlsdxvc	r0, r5, r4, r7
 5a0:	68746469 	ldmdavs	r4!, {r0, r3, r5, r6, sl, sp, lr}^
 5a4:	74757000 	ldrbtvc	r7, [r5], #-0
 5a8:	70665f63 	rsbvc	r5, r6, r3, ror #30
 5ac:	696d6500 	stmdbvs	sp!, {r8, sl, sp, lr}^
 5b0:	69640074 	stmdbvs	r4!, {r2, r4, r5, r6}^
 5b4:	6c626173 	stfvse	f6, [r2], #-460	; 0xfffffe34
 5b8:	61635f65 	cmnvs	r3, r5, ror #30
 5bc:	00656863 	rsbeq	r6, r5, r3, ror #16
 5c0:	66617473 			; <UNDEFINED> instruction: 0x66617473
 5c4:	72732d66 	rsbsvc	r2, r3, #6528	; 0x1980
 5c8:	61632f63 	cmnvs	r3, r3, ror #30
 5cc:	2e656863 	cdpcs	8, 6, cr6, cr5, cr3, {3}
 5d0:	65720063 	ldrbvs	r0, [r2, #-99]!	; 0x63
 5d4:	746f6f62 	strbtvc	r6, [pc], #-3938	; 5dc <__code_start__-0x7a24>
 5d8:	6e61685f 	mcrvs	8, 3, r6, cr1, cr15, {2}
 5dc:	72656c64 	rsbvc	r6, r5, #100, 24	; 0x6400
 5e0:	61747300 	cmnvs	r4, r0, lsl #6
 5e4:	732d6666 	teqvc	sp, #106954752	; 0x6600000
 5e8:	632f6372 	teqvs	pc, #-939524095	; 0xc8000001
 5ec:	6e61656c 	cdpvs	5, 6, cr6, cr1, cr12, {3}
 5f0:	6265722d 	rsbvs	r7, r5, #-805306366	; 0xd0000002
 5f4:	2e746f6f 	cdpcs	15, 7, cr6, cr4, cr15, {3}
 5f8:	70720063 	rsbsvc	r0, r2, r3, rrx
 5fc:	65725f69 	ldrbvs	r5, [r2, #-3945]!	; 0xf69
 600:	746f6f62 	strbtvc	r6, [pc], #-3938	; 608 <__code_start__-0x79f8>
 604:	6c656400 	cfstrdvs	mvd6, [r5], #-0
 608:	6d5f7961 	ldclvs	9, cr7, [pc, #-388]	; 48c <__code_start__-0x7b74>
 60c:	5f5f0073 	svcpl	0x005f0073
 610:	5f737362 	svcpl	0x00737362
 614:	72617473 	rsbvc	r7, r1, #1929379840	; 0x73000000
 618:	005f5f74 	subseq	r5, pc, r4, ror pc	; <UNPREDICTABLE>
 61c:	73625f5f 	cmnvc	r2, #380	; 0x17c
 620:	6e655f73 	mcrvs	15, 3, r5, cr5, cr3, {3}
 624:	005f5f64 	subseq	r5, pc, r4, ror #30
 628:	61747363 	cmnvs	r4, r3, ror #6
 62c:	685f7472 	ldmdavs	pc, {r1, r4, r5, r6, sl, ip, sp, lr}^	; <UNPREDICTABLE>
 630:	6c646e61 	stclvs	14, cr6, [r4], #-388	; 0xfffffe7c
 634:	62007265 	andvs	r7, r0, #1342177286	; 0x50000006
 638:	655f7373 	ldrbvs	r7, [pc, #-883]	; 2cd <__code_start__-0x7d33>
 63c:	5f00646e 	svcpl	0x0000646e
 640:	61747363 	cmnvs	r4, r3, ror #6
 644:	73007472 	movwvc	r7, #1138	; 0x472
 648:	66666174 			; <UNDEFINED> instruction: 0x66666174
 64c:	6372732d 	cmnvs	r2, #-1275068416	; 0xb4000000
 650:	7473632f 	ldrbtvc	r6, [r3], #-815	; 0x32f
 654:	2e747261 	cdpcs	2, 7, cr7, cr4, cr1, {3}
 658:	74730063 	ldrbtvc	r0, [r3], #-99	; 0x63
 65c:	2d666661 	stclcs	6, cr6, [r6, #-388]!	; 0xfffffe7c
 660:	2f637273 	svccs	0x00637273
 664:	61666564 	cmnvs	r6, r4, ror #10
 668:	2d746c75 	ldclcs	12, cr6, [r4, #-468]!	; 0xfffffe2c
 66c:	646e6168 	strbtvs	r6, [lr], #-360	; 0x168
 670:	2d72656c 	cfldr64cs	mvdx6, [r2, #-432]!	; 0xfffffe50
 674:	74736166 	ldrbtvc	r6, [r3], #-358	; 0x166
 678:	6600632e 	strvs	r6, [r0], -lr, lsr #6
 67c:	5f747361 	svcpl	0x00747361
 680:	65746e69 	ldrbvs	r6, [r4, #-3689]!	; 0xe69
 684:	70757272 	rsbsvc	r7, r5, r2, ror r2
 688:	65765f74 	ldrbvs	r5, [r6, #-3956]!	; 0xf74
 68c:	726f7463 	rsbvc	r7, pc, #1660944384	; 0x63000000
 690:	73657200 	cmnvc	r5, #0, 4
 694:	765f7465 	ldrbvc	r7, [pc], -r5, ror #8
 698:	6f746365 	svcvs	0x00746365
 69c:	74730072 	ldrbtvc	r0, [r3], #-114	; 0x72
 6a0:	2d666661 	stclcs	6, cr6, [r6, #-388]!	; 0xfffffe7c
 6a4:	2f637273 	svccs	0x00637273
 6a8:	61666564 	cmnvs	r6, r4, ror #10
 6ac:	2d746c75 	ldclcs	12, cr6, [r4, #-468]!	; 0xfffffe2c
 6b0:	646e6168 	strbtvs	r6, [lr], #-360	; 0x168
 6b4:	2d72656c 	cfldr64cs	mvdx6, [r2, #-432]!	; 0xfffffe50
 6b8:	65736572 	ldrbvs	r6, [r3, #-1394]!	; 0x572
 6bc:	00632e74 	rsbeq	r2, r3, r4, ror lr
 6c0:	66617473 			; <UNDEFINED> instruction: 0x66617473
 6c4:	72732d66 	rsbsvc	r2, r3, #6528	; 0x1980
 6c8:	65642f63 	strbvs	r2, [r4, #-3939]!	; 0xf63
 6cc:	6c756166 	ldfvse	f6, [r5], #-408	; 0xfffffe68
 6d0:	61682d74 	smcvs	33492	; 0x82d4
 6d4:	656c646e 	strbvs	r6, [ip, #-1134]!	; 0x46e
 6d8:	77732d72 			; <UNDEFINED> instruction: 0x77732d72
 6dc:	00632e69 	rsbeq	r2, r3, r9, ror #28
 6e0:	74666f73 	strbtvc	r6, [r6], #-3955	; 0xf73
 6e4:	65726177 	ldrbvs	r6, [r2, #-375]!	; 0x177
 6e8:	746e695f 	strbtvc	r6, [lr], #-2399	; 0x95f
 6ec:	75727265 	ldrbvc	r7, [r2, #-613]!	; 0x265
 6f0:	765f7470 			; <UNDEFINED> instruction: 0x765f7470
 6f4:	6f746365 	svcvs	0x00746365
 6f8:	74730072 	ldrbtvc	r0, [r3], #-114	; 0x72
 6fc:	2d666661 	stclcs	6, cr6, [r6, #-388]!	; 0xfffffe7c
 700:	2f637273 	svccs	0x00637273
 704:	61666564 	cmnvs	r6, r4, ror #10
 708:	2d746c75 	ldclcs	12, cr6, [r4, #-468]!	; 0xfffffe2c
 70c:	646e6168 	strbtvs	r6, [lr], #-360	; 0x168
 710:	2d72656c 	cfldr64cs	mvdx6, [r2, #-432]!	; 0xfffffe50
 714:	65646e75 	strbvs	r6, [r4, #-3701]!	; 0xe75
 718:	656e6966 	strbvs	r6, [lr, #-2406]!	; 0x966
 71c:	6e692d64 	cdpvs	13, 6, cr2, cr9, cr4, {3}
 720:	632e7473 	teqvs	lr, #1929379840	; 0x73000000
 724:	646e7500 	strbtvs	r7, [lr], #-1280	; 0x500
 728:	6e696665 	cdpvs	6, 6, cr6, cr9, cr5, {3}
 72c:	695f6465 	ldmdbvs	pc, {r0, r2, r5, r6, sl, sp, lr}^	; <UNPREDICTABLE>
 730:	7274736e 	rsbsvc	r7, r4, #-1207959551	; 0xb8000001
 734:	69746375 	ldmdbvs	r4!, {r0, r2, r4, r5, r6, r8, r9, sp, lr}^
 738:	765f6e6f 	ldrbvc	r6, [pc], -pc, ror #28
 73c:	6f746365 	svcvs	0x00746365
 740:	74730072 	ldrbtvc	r0, [r3], #-114	; 0x72
 744:	2d666661 	stclcs	6, cr6, [r6, #-388]!	; 0xfffffe7c
 748:	2f637273 	svccs	0x00637273
 74c:	61666564 	cmnvs	r6, r4, ror #10
 750:	2d746c75 	ldclcs	12, cr6, [r4, #-468]!	; 0xfffffe2c
 754:	646e6168 	strbtvs	r6, [lr], #-360	; 0x168
 758:	7372656c 	cmnvc	r2, #108, 10	; 0x1b000000
 75c:	4900632e 	stmdbmi	r0, {r1, r2, r3, r5, r8, r9, sp, lr}
 760:	705f5152 	subsvc	r5, pc, r2, asr r1	; <UNPREDICTABLE>
 764:	69646e65 	stmdbvs	r4!, {r0, r2, r5, r6, r9, sl, fp, sp, lr}^
 768:	325f676e 	subscc	r6, pc, #28835840	; 0x1b80000
 76c:	73694400 	cmnvc	r9, #0, 8
 770:	656c6261 	strbvs	r6, [ip, #-609]!	; 0x261
 774:	7361425f 	cmnvc	r1, #-268435451	; 0xf0000005
 778:	495f6369 	ldmdbmi	pc, {r0, r3, r5, r6, r8, r9, sp, lr}^	; <UNPREDICTABLE>
 77c:	00735152 	rsbseq	r5, r3, r2, asr r1
 780:	5f514946 	svcpl	0x00514946
 784:	746e6f63 	strbtvc	r6, [lr], #-3939	; 0xf63
 788:	006c6f72 	rsbeq	r6, ip, r2, ror pc
 78c:	746e695f 	strbtvc	r6, [lr], #-2399	; 0x95f
 790:	75727265 	ldrbvc	r7, [r2, #-613]!	; 0x265
 794:	745f7470 	ldrbvc	r7, [pc], #-1136	; 79c <__code_start__-0x7864>
 798:	656c6261 	strbvs	r6, [ip, #-609]!	; 0x261
 79c:	51524900 	cmppl	r2, r0, lsl #18
 7a0:	7361625f 	cmnvc	r1, #-268435451	; 0xf0000005
 7a4:	705f6369 	subsvc	r6, pc, r9, ror #6
 7a8:	69646e65 	stmdbvs	r4!, {r0, r2, r5, r6, r9, sl, fp, sp, lr}^
 7ac:	4500676e 	strmi	r6, [r0, #-1902]	; 0x76e
 7b0:	6c62616e 	stfvse	f6, [r2], #-440	; 0xfffffe48
 7b4:	61425f65 	cmpvs	r2, r5, ror #30
 7b8:	5f636973 	svcpl	0x00636973
 7bc:	73515249 	cmpvc	r1, #-1879048188	; 0x90000004
 7c0:	616e4500 	cmnvs	lr, r0, lsl #10
 7c4:	5f656c62 	svcpl	0x00656c62
 7c8:	73515249 	cmpvc	r1, #-1879048188	; 0x90000004
 7cc:	4500315f 	strmi	r3, [r0, #-351]	; 0x15f
 7d0:	6c62616e 	stfvse	f6, [r2], #-440	; 0xfffffe48
 7d4:	52495f65 	subpl	r5, r9, #404	; 0x194
 7d8:	325f7351 	subscc	r7, pc, #1140850689	; 0x44000001
 7dc:	6e695f00 	cdpvs	15, 6, cr5, cr9, cr0, {0}
 7e0:	72726574 	rsbsvc	r6, r2, #116, 10	; 0x1d000000
 7e4:	5f747075 	svcpl	0x00747075
 7e8:	6c626174 	stfvse	f6, [r2], #-464	; 0xfffffe30
 7ec:	6e655f65 	cdpvs	15, 6, cr5, cr5, cr5, {3}
 7f0:	65640064 	strbvs	r0, [r4, #-100]!	; 0x64
 7f4:	61625f76 	smcvs	9718	; 0x25f6
 7f8:	65697272 	strbvs	r7, [r9, #-626]!	; 0x272
 7fc:	74730072 	ldrbtvc	r0, [r3], #-114	; 0x72
 800:	2d666661 	stclcs	6, cr6, [r6, #-388]!	; 0xfffffe7c
 804:	2f637273 	svccs	0x00637273
 808:	65746e69 	ldrbvs	r6, [r4, #-3689]!	; 0xe69
 80c:	70757272 	rsbsvc	r7, r5, r2, ror r2
 810:	632d7374 	teqvs	sp, #116, 6	; 0xd0000001
 814:	4900632e 	stmdbmi	r0, {r1, r2, r3, r5, r8, r9, sp, lr}
 818:	425f5152 	subsmi	r5, pc, #-2147483628	; 0x80000014
 81c:	00657361 	rsbeq	r7, r5, r1, ror #6
 820:	33545550 	cmpcc	r4, #80, 10	; 0x14000000
 824:	69440032 	stmdbvs	r4, {r1, r4, r5}^
 828:	6c626173 	stfvse	f6, [r2], #-460	; 0xfffffe34
 82c:	52495f65 	subpl	r5, r9, #404	; 0x194
 830:	315f7351 	cmpcc	pc, r1, asr r3	; <UNPREDICTABLE>
 834:	73694400 	cmnvc	r9, #0, 8
 838:	656c6261 	strbvs	r6, [ip, #-609]!	; 0x261
 83c:	5152495f 	cmppl	r2, pc, asr r9
 840:	00325f73 	eorseq	r5, r2, r3, ror pc
 844:	5f515249 	svcpl	0x00515249
 848:	646e6570 	strbtvs	r6, [lr], #-1392	; 0x570
 84c:	5f676e69 	svcpl	0x00676e69
 850:	74610031 	strbtvc	r0, [r1], #-49	; 0x31
 854:	6573755f 	ldrbvs	r7, [r3, #-1375]!	; 0x55f
 858:	656c5f72 	strbvs	r5, [ip, #-3954]!	; 0xf72
 85c:	006c6576 	rsbeq	r6, ip, r6, ror r5
 860:	66617473 			; <UNDEFINED> instruction: 0x66617473
 864:	72732d66 	rsbsvc	r2, r3, #6528	; 0x1980
 868:	65722f63 	ldrbvs	r2, [r2, #-3939]!	; 0xf63
 86c:	746f6f62 	strbtvc	r6, [pc], #-3938	; 874 <__code_start__-0x778c>
 870:	5000632e 	andpl	r6, r0, lr, lsr #6
 874:	53525f4d 	cmppl	r2, #308	; 0x134
 878:	575f4354 			; <UNDEFINED> instruction: 0x575f4354
 87c:	47464352 	smlsldmi	r4, r6, r2, r3
 880:	4c55465f 	mrrcmi	6, 5, r4, r5, cr15
 884:	45525f4c 	ldrbmi	r5, [r2, #-3916]	; 0xf4c
 888:	00544553 	subseq	r4, r4, r3, asr r5
 88c:	575f4d50 			; <UNDEFINED> instruction: 0x575f4d50
 890:	00474f44 	subeq	r4, r7, r4, asr #30
 894:	5f746573 	svcpl	0x00746573
 898:	72657375 	rsbvc	r7, r5, #-738197503	; 0xd4000001
 89c:	76656c5f 			; <UNDEFINED> instruction: 0x76656c5f
 8a0:	50006c65 	andpl	r6, r0, r5, ror #24
 8a4:	41505f4d 	cmpmi	r0, sp, asr #30
 8a8:	4f575353 	svcmi	0x00575353
 8ac:	50004452 	andpl	r4, r0, r2, asr r4
 8b0:	53525f4d 	cmppl	r2, #308	; 0x134
 8b4:	74004354 	strvc	r4, [r0], #-852	; 0x354
 8b8:	72656d69 	rsbvc	r6, r5, #6720	; 0x1a40
 8bc:	7465675f 	strbtvc	r6, [r5], #-1887	; 0x75f
 8c0:	6573755f 	ldrbvs	r7, [r3, #-1375]!	; 0x55f
 8c4:	61725f63 	cmnvs	r2, r3, ror #30
 8c8:	65640077 	strbvs	r0, [r4, #-119]!	; 0x77
 8cc:	5f79616c 	svcpl	0x0079616c
 8d0:	00636573 	rsbeq	r6, r3, r3, ror r5
 8d4:	66617473 			; <UNDEFINED> instruction: 0x66617473
 8d8:	72732d66 	rsbsvc	r2, r3, #6528	; 0x1980
 8dc:	69742f63 	ldmdbvs	r4!, {r0, r1, r5, r6, r8, r9, sl, fp, sp}^
 8e0:	2e72656d 	cdpcs	5, 7, cr6, cr2, cr13, {3}
 8e4:	45470063 	strbmi	r0, [r7, #-99]	; 0x63
 8e8:	00323354 	eorseq	r3, r2, r4, asr r3
 8ec:	6b636974 	blvs	18daec4 <__bss_end__+0x18d0f74>
 8f0:	65640073 	strbvs	r0, [r4, #-115]!	; 0x73
 8f4:	5f79616c 	svcpl	0x0079616c
 8f8:	6c637963 	stclvs	9, cr7, [r3], #-396	; 0xfffffe74
 8fc:	64007365 	strvs	r7, [r0], #-869	; 0x365
 900:	79616c65 	stmdbvc	r1!, {r0, r2, r5, r6, sl, fp, sp, lr}^
 904:	0073755f 	rsbseq	r7, r3, pc, asr r5
 908:	656d6974 	strbvs	r6, [sp, #-2420]!	; 0x974
 90c:	65675f72 	strbvs	r5, [r7, #-3954]!	; 0xf72
 910:	73755f74 	cmnvc	r5, #116, 30	; 0x1d0
 914:	5f006365 	svcpl	0x00006365
 918:	5f6f7364 	svcpl	0x006f7364
 91c:	646e6168 	strbtvs	r6, [lr], #-360	; 0x168
 920:	5f00656c 	svcpl	0x0000656c
 924:	657a6973 	ldrbvs	r6, [sl, #-2419]!	; 0x973
 928:	61725f00 	cmnvs	r2, r0, lsl #30
 92c:	3834646e 	ldmdacc	r4!, {r1, r2, r3, r5, r6, sl, sp, lr}
 930:	6d655f00 	stclvs	15, cr5, [r5, #-0]
 934:	65677265 	strbvs	r7, [r7, #-613]!	; 0x265
 938:	0079636e 	rsbseq	r6, r9, lr, ror #6
 93c:	74726175 	ldrbtvc	r6, [r2], #-373	; 0x175
 940:	696e695f 	stmdbvs	lr!, {r0, r1, r2, r3, r4, r6, r8, fp, sp, lr}^
 944:	775f0074 			; <UNDEFINED> instruction: 0x775f0074
 948:	6f747263 	svcvs	0x00747263
 94c:	735f626d 	cmpvc	pc, #-805306362	; 0xd0000006
 950:	65746174 	ldrbvs	r6, [r4, #-372]!	; 0x174
 954:	63775f00 	cmnvs	r7, #0, 30
 958:	6f747273 	svcvs	0x00747273
 95c:	5f73626d 	svcpl	0x0073626d
 960:	74617473 	strbtvc	r7, [r1], #-1139	; 0x473
 964:	6c5f0065 	mrrcvs	0, 6, r0, pc, cr5	; <UNPREDICTABLE>
 968:	69736662 	ldmdbvs	r3!, {r1, r5, r6, r9, sl, sp, lr}^
 96c:	4700657a 	smlsdxmi	r0, sl, r5, r6
 970:	5f4f4950 	svcpl	0x004f4950
 974:	434e5546 	movtmi	r5, #58694	; 0xe546
 978:	504e495f 	subpl	r4, lr, pc, asr r9
 97c:	5f005455 	svcpl	0x00005455
 980:	7472626d 	ldrbtvc	r6, [r2], #-621	; 0x26d
 984:	5f63776f 	svcpl	0x0063776f
 988:	74617473 	strbtvc	r7, [r1], #-1139	; 0x473
 98c:	775f0065 	ldrbvc	r0, [pc, -r5, rrx]
 990:	6d6f7463 	cfstrdvs	mvd7, [pc, #-396]!	; 80c <__code_start__-0x77f4>
 994:	74735f62 	ldrbtvc	r5, [r3], #-3938	; 0xf62
 998:	00657461 	rsbeq	r7, r5, r1, ror #8
 99c:	6d745f5f 	ldclvs	15, cr5, [r4, #-380]!	; 0xfffffe84
 9a0:	6365735f 	cmnvs	r5, #2080374785	; 0x7c000001
 9a4:	61747300 	cmnvs	r4, r0, lsl #6
 9a8:	755f0074 	ldrbvc	r0, [pc, #-116]	; 93c <__code_start__-0x76c4>
 9ac:	00667562 	rsbeq	r7, r6, r2, ror #10
 9b0:	4f495047 	svcmi	0x00495047
 9b4:	4e55465f 	mrcmi	6, 2, r4, cr5, cr15, {2}
 9b8:	4c415f43 	mcrrmi	15, 4, r5, r1, cr3
 9bc:	5f003154 	svcpl	0x00003154
 9c0:	65736162 	ldrbvs	r6, [r3, #-354]!	; 0x162
 9c4:	746e6300 	strbtvc	r6, [lr], #-768	; 0x300
 9c8:	5f5f006c 	svcpl	0x005f006c
 9cc:	685f6d74 	ldmdavs	pc, {r2, r4, r5, r6, r8, sl, fp, sp, lr}^	; <UNPREDICTABLE>
 9d0:	0072756f 	rsbseq	r7, r2, pc, ror #10
 9d4:	66735f5f 	uhsaxvs	r5, r3, pc	; <UNPREDICTABLE>
 9d8:	6e6f5f00 	cdpvs	15, 6, cr5, cr15, cr0, {0}
 9dc:	6978655f 	ldmdbvs	r8!, {r0, r1, r2, r3, r4, r6, r8, sl, sp, lr}^
 9e0:	72615f74 	rsbvc	r5, r1, #116, 30	; 0x1d0
 9e4:	5f007367 	svcpl	0x00007367
 9e8:	6b6f6f63 	blvs	1bdc77c <__bss_end__+0x1bd282c>
 9ec:	5f006569 	svcpl	0x00006569
 9f0:	6c67735f 	stclvs	3, cr7, [r7], #-380	; 0xfffffe84
 9f4:	5f006575 	svcpl	0x00006575
 9f8:	67616c66 	strbvs	r6, [r1, -r6, ror #24]!
 9fc:	695f0073 	ldmdbvs	pc, {r0, r1, r4, r5, r6}^	; <UNPREDICTABLE>
 a00:	78635f73 	stmdavc	r3!, {r0, r1, r4, r5, r6, r8, r9, sl, fp, ip, lr}^
 a04:	735f0061 	cmpvc	pc, #97	; 0x61
 a08:	6e696474 	mcrvs	4, 3, r6, cr9, cr4, {3}
 a0c:	6c625f00 	stclvs	15, cr5, [r2], #-0
 a10:	7a69736b 	bvc	1a5d7c4 <__bss_end__+0x1a53874>
 a14:	61750065 	cmnvs	r5, r5, rrx
 a18:	632e7472 	teqvs	lr, #1912602624	; 0x72000000
 a1c:	78756100 	ldmdavc	r5!, {r8, sp, lr}^
 a20:	7265705f 	rsbvc	r7, r5, #95	; 0x5f
 a24:	73687069 	cmnvc	r8, #105	; 0x69
 a28:	76635f00 	strbtvc	r5, [r3], -r0, lsl #30
 a2c:	66756274 			; <UNDEFINED> instruction: 0x66756274
 a30:	6f682f00 	svcvs	0x00682f00
 a34:	652f656d 	strvs	r6, [pc, #-1389]!	; 4cf <__code_start__-0x7b31>
 a38:	656c676e 	strbvs	r6, [ip, #-1902]!	; 0x76e
 a3c:	6c632f72 	stclvs	15, cr2, [r3], #-456	; 0xfffffe38
 a40:	2f737361 	svccs	0x00737361
 a44:	34327363 	ldrtcc	r7, [r2], #-867	; 0x363
 a48:	2d786c30 	ldclcs	12, cr6, [r8, #-192]!	; 0xffffff40
 a4c:	70733032 	rsbsvc	r3, r3, r2, lsr r0
 a50:	696c2f72 	stmdbvs	ip!, {r1, r4, r5, r6, r8, r9, sl, fp, sp}^
 a54:	2f697062 	svccs	0x00697062
 a58:	66617473 			; <UNDEFINED> instruction: 0x66617473
 a5c:	72702d66 	rsbsvc	r2, r0, #6528	; 0x1980
 a60:	74617669 	strbtvc	r7, [r1], #-1641	; 0x669
 a64:	6d5f0065 	ldclvs	0, cr0, [pc, #-404]	; 8d8 <__code_start__-0x7728>
 a68:	74727362 	ldrbtvc	r7, [r2], #-866	; 0x362
 a6c:	7363776f 	cmnvc	r3, #29097984	; 0x1bc0000
 a70:	6174735f 	cmnvs	r4, pc, asr r3
 a74:	5f006574 	svcpl	0x00006574
 a78:	6c72626d 	lfmvs	f6, 2, [r2], #-436	; 0xfffffe4c
 a7c:	735f6e65 	cmpvc	pc, #1616	; 0x650
 a80:	65746174 	ldrbvs	r6, [r4, #-372]!	; 0x174
 a84:	6e665f00 	cdpvs	15, 6, cr5, cr6, cr0, {0}
 a88:	73677261 	cmnvc	r7, #268435462	; 0x10000006
 a8c:	78756100 	ldmdavc	r5!, {r8, sp, lr}^
 a90:	616e655f 	cmnvs	lr, pc, asr r5
 a94:	73656c62 	cmnvc	r5, #25088	; 0x6200
 a98:	6e665f00 	cdpvs	15, 6, cr5, cr6, cr0, {0}
 a9c:	735f0073 	cmpvc	pc, #115	; 0x73
 aa0:	006e6769 	rsbeq	r6, lr, r9, ror #14
 aa4:	74726175 	ldrbtvc	r6, [r2], #-373	; 0x175
 aa8:	6e61635f 	mcrvs	3, 3, r6, cr1, cr15, {2}
 aac:	7475705f 	ldrbtvc	r7, [r5], #-95	; 0x5f
 ab0:	665f0063 	ldrbvs	r0, [pc], -r3, rrx
 ab4:	6b636f6c 	blvs	18dc86c <__bss_end__+0x18d291c>
 ab8:	5f00745f 	svcpl	0x0000745f
 abc:	65647473 	strbvs	r7, [r4, #-1139]!	; 0x473
 ac0:	5f007272 	svcpl	0x00007272
 ac4:	69676942 	stmdbvs	r7!, {r1, r6, r8, fp, sp, lr}^
 ac8:	5f00746e 	svcpl	0x0000746e
 acc:	6d6d6167 	stfvse	f6, [sp, #-412]!	; 0xfffffe64
 ad0:	69735f61 	ldmdbvs	r3!, {r0, r5, r6, r8, r9, sl, fp, ip, lr}^
 ad4:	61676e67 	cmnvs	r7, r7, ror #28
 ad8:	725f006d 	subsvc	r0, pc, #109	; 0x6d
 adc:	6c757365 	ldclvs	3, cr7, [r5], #-404	; 0xfffffe6c
 ae0:	006b5f74 	rsbeq	r5, fp, r4, ror pc
 ae4:	6d745f5f 	ldclvs	15, cr5, [r4, #-380]!	; 0xfffffe84
 ae8:	775f5f00 	ldrbvc	r5, [pc, -r0, lsl #30]
 aec:	00626863 	rsbeq	r6, r2, r3, ror #16
 af0:	74726175 	ldrbtvc	r6, [r2], #-373	; 0x175
 af4:	7465675f 	strbtvc	r6, [r5], #-1887	; 0x75f
 af8:	735f0063 	cmpvc	pc, #99	; 0x63
 afc:	756f6474 	strbvc	r6, [pc, #-1140]!	; 690 <__code_start__-0x7970>
 b00:	635f0074 	cmpvs	pc, #116	; 0x74
 b04:	656c7476 	strbvs	r7, [ip, #-1142]!	; 0x476
 b08:	665f006e 	ldrbvs	r0, [pc], -lr, rrx
 b0c:	00656c69 	rsbeq	r6, r5, r9, ror #24
 b10:	6f696e5f 	svcvs	0x00696e5f
 b14:	5f007362 	svcpl	0x00007362
 b18:	78657461 	stmdavc	r5!, {r0, r5, r6, sl, ip, sp, lr}^
 b1c:	00307469 	eorseq	r7, r0, r9, ror #8
 b20:	6769735f 			; <UNDEFINED> instruction: 0x6769735f
 b24:	5f6c616e 	svcpl	0x006c616e
 b28:	00667562 	rsbeq	r7, r6, r2, ror #10
 b2c:	6373615f 	cmnvs	r3, #-1073741801	; 0xc0000017
 b30:	656d6974 	strbvs	r6, [sp, #-2420]!	; 0x974
 b34:	6675625f 			; <UNDEFINED> instruction: 0x6675625f
 b38:	65725f00 	ldrbvs	r5, [r2, #-3840]!	; 0xf00
 b3c:	746c7573 	strbtvc	r7, [ip], #-1395	; 0x573
 b40:	775f5f00 	ldrbvc	r5, [pc, -r0, lsl #30]
 b44:	47006863 	strmi	r6, [r0, -r3, ror #16]
 b48:	5f4f4950 	svcpl	0x004f4950
 b4c:	434e5546 	movtmi	r5, #58694	; 0xe546
 b50:	544c415f 	strbpl	r4, [ip], #-351	; 0x15f
 b54:	69770032 	ldmdbvs	r7!, {r1, r4, r5}^
 b58:	745f746e 	ldrbvc	r7, [pc], #-1134	; b60 <__code_start__-0x74a0>
 b5c:	6f6c5f00 	svcvs	0x006c5f00
 b60:	5f006b63 	svcpl	0x00006b63
 b64:	67616c66 	strbvs	r6, [r1, -r6, ror #24]!
 b68:	5f003273 	svcpl	0x00003273
 b6c:	5f6d745f 	svcpl	0x006d745f
 b70:	72616579 	rsbvc	r6, r1, #507510784	; 0x1e400000
 b74:	666f5f00 	strbtvs	r5, [pc], -r0, lsl #30
 b78:	74657366 	strbtvc	r7, [r5], #-870	; 0x366
 b7c:	69706700 	ldmdbvs	r0!, {r8, r9, sl, sp, lr}^
 b80:	65735f6f 	ldrbvs	r5, [r3, #-3951]!	; 0xf6f
 b84:	75665f74 	strbvc	r5, [r6, #-3956]!	; 0xf74
 b88:	6974636e 	ldmdbvs	r4!, {r1, r2, r3, r5, r6, r8, r9, sp, lr}^
 b8c:	5f006e6f 	svcpl	0x00006e6f
 b90:	7478656e 	ldrbtvc	r6, [r8], #-1390	; 0x56e
 b94:	5f5f0066 	svcpl	0x005f0066
 b98:	6d5f6d74 	ldclvs	13, cr6, [pc, #-464]	; 9d0 <__code_start__-0x7630>
 b9c:	5f006e6f 	svcpl	0x00006e6f
 ba0:	78657461 	stmdavc	r5!, {r0, r5, r6, sl, ip, sp, lr}^
 ba4:	5f007469 	svcpl	0x00007469
 ba8:	6964735f 	stmdbvs	r4!, {r0, r1, r2, r3, r4, r6, r8, r9, ip, sp, lr}^
 bac:	696e6964 	stmdbvs	lr!, {r2, r5, r6, r8, fp, sp, lr}^
 bb0:	6f5f0074 	svcvs	0x005f0074
 bb4:	745f6666 	ldrbvc	r6, [pc], #-1638	; bbc <__code_start__-0x7444>
 bb8:	72617500 	rsbvc	r7, r1, #0, 10
 bbc:	665f0074 			; <UNDEFINED> instruction: 0x665f0074
 bc0:	6c656572 	cfstr64vs	mvdx6, [r5], #-456	; 0xfffffe38
 bc4:	00747369 	rsbseq	r7, r4, r9, ror #6
 bc8:	434f4c5f 	movtmi	r4, #64607	; 0xfc5f
 bcc:	45525f4b 	ldrbmi	r5, [r2, #-3915]	; 0xf4b
 bd0:	53525543 	cmppl	r2, #281018368	; 0x10c00000
 bd4:	5f455649 	svcpl	0x00455649
 bd8:	6e5f0054 	mrcvs	0, 2, r0, cr15, cr4, {2}
 bdc:	5f007765 	svcpl	0x00007765
 be0:	72655f68 	rsbvc	r5, r5, #104, 30	; 0x1a0
 be4:	006f6e72 	rsbeq	r6, pc, r2, ror lr	; <UNPREDICTABLE>
 be8:	6d745f5f 	ldclvs	15, cr5, [r4, #-380]!	; 0xfffffe84
 bec:	6164795f 	cmnvs	r4, pc, asr r9
 bf0:	5f5f0079 	svcpl	0x005f0079
 bf4:	66756273 			; <UNDEFINED> instruction: 0x66756273
 bf8:	6f695f00 	svcvs	0x00695f00
 bfc:	5f007362 	svcpl	0x00007362
 c00:	4c49465f 	mcrrmi	6, 5, r4, r9, cr15
 c04:	6d5f0045 	ldclvs	0, cr0, [pc, #-276]	; af8 <__code_start__-0x7508>
 c08:	61747362 	cmnvs	r4, r2, ror #6
 c0c:	745f6574 	ldrbvc	r6, [pc], #-1396	; c14 <__code_start__-0x73ec>
 c10:	735f5f00 	cmpvc	pc, #0, 30
 c14:	454c4946 	strbmi	r4, [ip, #-2374]	; 0x946
 c18:	626d5f00 	rsbvs	r5, sp, #0, 30
 c1c:	74617473 	strbtvc	r7, [r1], #-1139	; 0x473
 c20:	725f0065 	subsvc	r0, pc, #101	; 0x65
 c24:	5f646e61 	svcpl	0x00646e61
 c28:	7478656e 	ldrbtvc	r6, [r8], #-1390	; 0x56e
 c2c:	626d5f00 	rsbvs	r5, sp, #0, 30
 c30:	5f6e656c 	svcpl	0x006e656c
 c34:	74617473 	strbtvc	r7, [r1], #-1139	; 0x473
 c38:	695f0065 	ldmdbvs	pc, {r0, r2, r5, r6}^	; <UNPREDICTABLE>
 c3c:	5f00636e 	svcpl	0x0000636e
 c40:	00646e69 	rsbeq	r6, r4, r9, ror #28
 c44:	7275635f 	rsbsvc	r6, r5, #2080374785	; 0x7c000001
 c48:	746e6572 	strbtvc	r6, [lr], #-1394	; 0x572
 c4c:	636f6c5f 	cmnvs	pc, #24320	; 0x5f00
 c50:	00656c61 	rsbeq	r6, r5, r1, ror #24
 c54:	6c635f5f 	stclvs	15, cr5, [r3], #-380	; 0xfffffe84
 c58:	756e6165 	strbvc	r6, [lr, #-357]!	; 0x165
 c5c:	6d5f0070 	ldclvs	0, cr0, [pc, #-448]	; aa4 <__code_start__-0x755c>
 c60:	64777861 	ldrbtvs	r7, [r7], #-2145	; 0x861
 c64:	725f0073 	subsvc	r0, pc, #115	; 0x73
 c68:	746e6565 	strbtvc	r6, [lr], #-1381	; 0x565
 c6c:	65735f00 	ldrbvs	r5, [r3, #-3840]!	; 0xf00
 c70:	5f006465 	svcpl	0x00006465
 c74:	756f635f 	strbvc	r6, [pc, #-863]!	; 91d <__code_start__-0x76e3>
 c78:	5f00746e 	svcpl	0x0000746e
 c7c:	6c61765f 	stclvs	6, cr7, [r1], #-380	; 0xfffffe84
 c80:	5f006575 	svcpl	0x00006575
 c84:	6b656573 	blvs	195a258 <__bss_end__+0x1950308>
 c88:	75616200 	strbvc	r6, [r1, #-512]!	; 0x200
 c8c:	665f0064 	ldrbvs	r0, [pc], -r4, rrx
 c90:	5f736f70 	svcpl	0x00736f70
 c94:	5f5f0074 	svcpl	0x005f0074
 c98:	6d5f6d74 	ldclvs	13, cr6, [pc, #-464]	; ad0 <__code_start__-0x7530>
 c9c:	73006e69 	movwvc	r6, #3689	; 0xe69
 ca0:	74617263 	strbtvc	r7, [r1], #-611	; 0x263
 ca4:	5f006863 	svcpl	0x00006863
 ca8:	746c756d 	strbtvc	r7, [ip], #-1389	; 0x56d
 cac:	74757000 	ldrbtvc	r7, [r5], #-0
 cb0:	47003233 	smladxmi	r0, r3, r2, r3
 cb4:	4320554e 	teqmi	r0, #327155712	; 0x13800000
 cb8:	36203939 			; <UNDEFINED> instruction: 0x36203939
 cbc:	312e332e 	teqcc	lr, lr, lsr #6
 cc0:	31303220 	teqcc	r0, r0, lsr #4
 cc4:	32363037 	eorscc	r3, r6, #55	; 0x37
 cc8:	6d2d2030 	stcvs	0, cr2, [sp, #-192]!	; 0xffffff40
 ccc:	3d757063 	ldclcc	0, cr7, [r5, #-396]!	; 0xfffffe74
 cd0:	316d7261 	cmncc	sp, r1, ror #4
 cd4:	6a363731 	bvs	d8e9a0 <__bss_end__+0xd84a50>
 cd8:	732d667a 	teqvc	sp, #127926272	; 0x7a00000
 cdc:	746d2d20 	strbtvc	r2, [sp], #-3360	; 0xd20
 ce0:	3d656e75 	stclcc	14, cr6, [r5, #-468]!	; 0xfffffe2c
 ce4:	316d7261 	cmncc	sp, r1, ror #4
 ce8:	6a363731 	bvs	d8e9b4 <__bss_end__+0xd84a64>
 cec:	732d667a 	teqvc	sp, #127926272	; 0x7a00000
 cf0:	67672d20 	strbvs	r2, [r7, -r0, lsr #26]!
 cf4:	2d206264 	sfmcs	f6, 4, [r0, #-400]!	; 0xfffffe70
 cf8:	2d20674f 	stccs	7, cr6, [r0, #-316]!	; 0xfffffec4
 cfc:	3d647473 	cfstrdcc	mvd7, [r4, #-460]!	; 0xfffffe34
 d00:	39756e67 	ldmdbcc	r5!, {r0, r1, r2, r5, r6, r9, sl, fp, sp, lr}^
 d04:	662d2039 			; <UNDEFINED> instruction: 0x662d2039
 d08:	65657266 	strbvs	r7, [r5, #-614]!	; 0x266
 d0c:	6e617473 	mcrvs	4, 3, r7, cr1, cr3, {3}
 d10:	676e6964 	strbvs	r6, [lr, -r4, ror #18]!
 d14:	74735f00 	ldrbtvc	r5, [r3], #-3840	; 0xf00
 d18:	6b6f7472 	blvs	1bddee8 <__bss_end__+0x1bd3f98>
 d1c:	73616c5f 	cmnvc	r1, #24320	; 0x5f00
 d20:	665f0074 			; <UNDEFINED> instruction: 0x665f0074
 d24:	7079746e 	rsbsvc	r7, r9, lr, ror #8
 d28:	5f007365 	svcpl	0x00007365
 d2c:	00646461 	rsbeq	r6, r4, r1, ror #8
 d30:	4c555f5f 	mrrcmi	15, 5, r5, r5, cr15	; <UNPREDICTABLE>
 d34:	00676e6f 	rsbeq	r6, r7, pc, ror #28
 d38:	7465675f 	strbtvc	r6, [r5], #-1887	; 0x75f
 d3c:	65746164 	ldrbvs	r6, [r4, #-356]!	; 0x164
 d40:	7272655f 	rsbsvc	r6, r2, #398458880	; 0x17c00000
 d44:	6c675f00 	stclvs	15, cr5, [r7], #-0
 d48:	6c61626f 	sfmvs	f6, 2, [r1], #-444	; 0xfffffe44
 d4c:	706d695f 	rsbvc	r6, sp, pc, asr r9
 d50:	5f657275 	svcpl	0x00657275
 d54:	00727470 	rsbseq	r7, r2, r0, ror r4
 d58:	7275635f 	rsbsvc	r6, r5, #2080374785	; 0x7c000001
 d5c:	746e6572 	strbtvc	r6, [lr], #-1394	; 0x572
 d60:	7461635f 	strbtvc	r6, [r1], #-863	; 0x35f
 d64:	726f6765 	rsbvc	r6, pc, #26476544	; 0x1940000
 d68:	755f0079 	ldrbvc	r0, [pc, #-121]	; cf7 <__code_start__-0x7309>
 d6c:	6573756e 	ldrbvs	r7, [r3, #-1390]!	; 0x56e
 d70:	61725f64 	cmnvs	r2, r4, ror #30
 d74:	5f00646e 	svcpl	0x0000646e
 d78:	00736477 	rsbseq	r6, r3, r7, ror r4
 d7c:	6d745f5f 	ldclvs	15, cr5, [r4, #-380]!	; 0xfffffe84
 d80:	6164775f 	cmnvs	r4, pc, asr r7
 d84:	675f0079 			; <UNDEFINED> instruction: 0x675f0079
 d88:	0065756c 	rsbeq	r7, r5, ip, ror #10
 d8c:	4f495047 	svcmi	0x00495047
 d90:	4e55465f 	mrcmi	6, 2, r4, cr5, cr15, {2}
 d94:	554f5f43 	strbpl	r5, [pc, #-3907]	; fffffe59 <__bss_end__+0xffff5f09>
 d98:	54555054 	ldrbpl	r5, [r5], #-84	; 0x54
 d9c:	6d6e5f00 	stclvs	15, cr5, [lr, #-0]
 da0:	6f6c6c61 	svcvs	0x006c6c61
 da4:	6c5f0063 	mrrcvs	0, 6, r0, pc, cr3	; <UNPREDICTABLE>
 da8:	5f613436 	svcpl	0x00613436
 dac:	00667562 	rsbeq	r7, r6, r2, ror #10
 db0:	33746567 	cmncc	r4, #432013312	; 0x19c00000
 db4:	61750032 	cmnvs	r5, r2, lsr r0
 db8:	635f7472 	cmpvs	pc, #1912602624	; 0x72000000
 dbc:	675f6e61 	ldrbvs	r6, [pc, -r1, ror #28]
 dc0:	00637465 	rsbeq	r7, r3, r5, ror #8
 dc4:	6769735f 			; <UNDEFINED> instruction: 0x6769735f
 dc8:	6e75665f 	mrcvs	6, 3, r6, cr5, cr15, {2}
 dcc:	726f0063 	rsbvc	r0, pc, #99	; 0x63
 dd0:	336e695f 	cmncc	lr, #1556480	; 0x17c000
 dd4:	61750032 	cmnvs	r5, r2, lsr r0
 dd8:	685f7472 	ldmdavs	pc, {r1, r4, r5, r6, sl, ip, sp, lr}^	; <UNPREDICTABLE>
 ddc:	645f7361 	ldrbvs	r7, [pc], #-865	; de4 <__code_start__-0x721c>
 de0:	00617461 	rsbeq	r7, r1, r1, ror #8
 de4:	4f495047 	svcmi	0x00495047
 de8:	4e55465f 	mrcmi	6, 2, r4, cr5, cr15, {2}
 dec:	4c415f43 	mcrrmi	15, 4, r5, r1, cr3
 df0:	5f003054 	svcpl	0x00003054
 df4:	6675626e 	ldrbtvs	r6, [r5], -lr, ror #4
 df8:	6e755f00 	cdpvs	15, 7, cr5, cr5, cr0, {0}
 dfc:	64657375 	strbtvs	r7, [r5], #-885	; 0x375
 e00:	49504700 	ldmdbmi	r0, {r8, r9, sl, lr}^
 e04:	55465f4f 	strbpl	r5, [r6, #-3919]	; 0xf4f
 e08:	415f434e 	cmpmi	pc, lr, asr #6
 e0c:	0033544c 	eorseq	r5, r3, ip, asr #8
 e10:	4f495047 	svcmi	0x00495047
 e14:	4e55465f 	mrcmi	6, 2, r4, cr5, cr15, {2}
 e18:	4c415f43 	mcrrmi	15, 4, r5, r1, cr3
 e1c:	47003454 	smlsdmi	r0, r4, r4, r3
 e20:	5f4f4950 	svcpl	0x004f4950
 e24:	434e5546 	movtmi	r5, #58694	; 0xe546
 e28:	544c415f 	strbpl	r4, [ip], #-351	; 0x15f
 e2c:	5f5f0035 	svcpl	0x005f0035
 e30:	695f6d74 	ldmdbvs	pc, {r2, r4, r5, r6, r8, sl, fp, sp, lr}^	; <UNPREDICTABLE>
 e34:	74736473 	ldrbtvc	r6, [r3], #-1139	; 0x473
 e38:	6f6c5f00 	svcvs	0x006c5f00
 e3c:	746c6163 	strbtvc	r6, [ip], #-355	; 0x163
 e40:	5f656d69 	svcpl	0x00656d69
 e44:	00667562 	rsbeq	r7, r6, r2, ror #10
 e48:	6f6c635f 	svcvs	0x006c635f
 e4c:	5f006573 	svcpl	0x00006573
 e50:	00383472 	eorseq	r3, r8, r2, ror r4
 e54:	74626d5f 	strbtvc	r6, [r2], #-3423	; 0xd5f
 e58:	5f63776f 	svcpl	0x0063776f
 e5c:	74617473 	strbtvc	r7, [r1], #-1139	; 0x473
 e60:	705f0065 	subsvc	r0, pc, r5, rrx
 e64:	5f007335 	svcpl	0x00007335
 e68:	5f6d745f 	svcpl	0x006d745f
 e6c:	7961646d 	stmdbvc	r1!, {r0, r2, r3, r5, r6, sl, sp, lr}^
 e70:	69706700 	ldmdbvs	r0!, {r8, r9, sl, sp, lr}^
 e74:	65735f6f 	ldrbvs	r5, [r3, #-3951]!	; 0xf6f
 e78:	666f5f74 	uqsub16vs	r5, pc, r4	; <UNPREDICTABLE>
 e7c:	61620066 	cmnvs	r2, r6, rrx
 e80:	67006b6e 	strvs	r6, [r0, -lr, ror #22]
 e84:	2e6f6970 	mcrcs	9, 3, r6, cr15, cr0, {3}
 e88:	70670063 	rsbvc	r0, r7, r3, rrx
 e8c:	725f6f69 	subsvc	r6, pc, #420	; 0x1a4
 e90:	00646165 	rsbeq	r6, r4, r5, ror #2
 e94:	6f697067 	svcvs	0x00697067
 e98:	7465735f 	strbtvc	r7, [r5], #-863	; 0x35f
 e9c:	74756f5f 	ldrbtvc	r6, [r5], #-3935	; 0xf5f
 ea0:	00747570 	rsbseq	r7, r4, r0, ror r5
 ea4:	6f697067 	svcvs	0x00697067
 ea8:	6972775f 	ldmdbvs	r2!, {r0, r1, r2, r3, r4, r6, r8, r9, sl, ip, sp, lr}^
 eac:	67006574 	smlsdxvs	r0, r4, r5, r6
 eb0:	5f6f6970 	svcpl	0x006f6970
 eb4:	30746573 	rsbscc	r6, r4, r3, ror r5
 eb8:	69706700 	ldmdbvs	r0!, {r8, r9, sl, sp, lr}^
 ebc:	656c5f6f 	strbvs	r5, [ip, #-3951]!	; 0xf6f
 ec0:	67003076 	smlsdxvs	r0, r6, r0, r3
 ec4:	5f6f6970 	svcpl	0x006f6970
 ec8:	5f746573 	svcpl	0x00746573
 ecc:	75706e69 	ldrbvc	r6, [r0, #-3689]!	; 0xe69
 ed0:	70670074 	rsbvc	r0, r7, r4, ror r0
 ed4:	735f6f69 	cmpvc	pc, #420	; 0x1a4
 ed8:	6f5f7465 	svcvs	0x005f7465
 edc:	7067006e 	rsbvc	r0, r7, lr, rrx
 ee0:	665f6f69 	ldrbvs	r6, [pc], -r9, ror #30
 ee4:	5f636e75 	svcpl	0x00636e75
 ee8:	70670074 	rsbvc	r0, r7, r4, ror r0
 eec:	635f6f69 	cmpvs	pc, #420	; 0x1a4
 ef0:	0030726c 	eorseq	r7, r0, ip, ror #4

Disassembly of section .debug_frame:

00000000 <.debug_frame>:
   0:	0000000c 	andeq	r0, r0, ip
   4:	ffffffff 			; <UNDEFINED> instruction: 0xffffffff
   8:	7c020001 	stcvc	0, cr0, [r2], {1}
   c:	000d0c0e 	andeq	r0, sp, lr, lsl #24
  10:	0000000c 	andeq	r0, r0, ip
  14:	00000000 	andeq	r0, r0, r0
  18:	00008010 	andeq	r8, r0, r0, lsl r0
  1c:	0000003c 	andeq	r0, r0, ip, lsr r0
  20:	00000018 	andeq	r0, r0, r8, lsl r0
  24:	00000000 	andeq	r0, r0, r0
  28:	0000804c 	andeq	r8, r0, ip, asr #32
  2c:	00000168 	andeq	r0, r0, r8, ror #2
  30:	84080e42 	strhi	r0, [r8], #-3650	; 0xe42
  34:	42018e02 	andmi	r8, r1, #2, 28
  38:	0000100e 	andeq	r1, r0, lr
  3c:	00000018 	andeq	r0, r0, r8, lsl r0
  40:	00000000 	andeq	r0, r0, r0
  44:	000081b4 			; <UNDEFINED> instruction: 0x000081b4
  48:	0000022c 	andeq	r0, r0, ip, lsr #4
  4c:	840c0e42 	strhi	r0, [ip], #-3650	; 0xe42
  50:	8e028503 	cfsh32hi	mvfx8, mvfx2, #3
  54:	180e4201 	stmdane	lr, {r0, r9, lr}
  58:	0000000c 	andeq	r0, r0, ip
  5c:	ffffffff 			; <UNDEFINED> instruction: 0xffffffff
  60:	7c020001 	stcvc	0, cr0, [r2], {1}
  64:	000d0c0e 	andeq	r0, sp, lr, lsl #24
  68:	00000014 	andeq	r0, r0, r4, lsl r0
  6c:	00000058 	andeq	r0, r0, r8, asr r0
  70:	000083e0 	andeq	r8, r0, r0, ror #7
  74:	000000b0 	strheq	r0, [r0], -r0	; <UNPREDICTABLE>
  78:	8e040e42 	cdphi	14, 0, cr0, cr4, cr2, {2}
  7c:	100e4201 	andne	r4, lr, r1, lsl #4
  80:	00000014 	andeq	r0, r0, r4, lsl r0
  84:	00000058 	andeq	r0, r0, r8, asr r0
  88:	00008490 	muleq	r0, r0, r4
  8c:	000000dc 	ldrdeq	r0, [r0], -ip
  90:	8e040e42 	cdphi	14, 0, cr0, cr4, cr2, {2}
  94:	100e4201 	andne	r4, lr, r1, lsl #4
  98:	00000014 	andeq	r0, r0, r4, lsl r0
  9c:	00000058 	andeq	r0, r0, r8, asr r0
  a0:	0000856c 	andeq	r8, r0, ip, ror #10
  a4:	0000003c 	andeq	r0, r0, ip, lsr r0
  a8:	83080e42 	movwhi	r0, #36418	; 0x8e42
  ac:	00018e02 	andeq	r8, r1, r2, lsl #28
  b0:	0000000c 	andeq	r0, r0, ip
  b4:	00000058 	andeq	r0, r0, r8, asr r0
  b8:	000085a8 	andeq	r8, r0, r8, lsr #11
  bc:	00000034 	andeq	r0, r0, r4, lsr r0
  c0:	00000014 	andeq	r0, r0, r4, lsl r0
  c4:	00000058 	andeq	r0, r0, r8, asr r0
  c8:	000085dc 	ldrdeq	r8, [r0], -ip
  cc:	00000098 	muleq	r0, r8, r0
  d0:	8e040e42 	cdphi	14, 0, cr0, cr4, cr2, {2}
  d4:	100e4201 	andne	r4, lr, r1, lsl #4
  d8:	0000000c 	andeq	r0, r0, ip
  dc:	00000058 	andeq	r0, r0, r8, asr r0
  e0:	00008674 	andeq	r8, r0, r4, ror r6
  e4:	00000004 	andeq	r0, r0, r4
  e8:	00000014 	andeq	r0, r0, r4, lsl r0
  ec:	00000058 	andeq	r0, r0, r8, asr r0
  f0:	00008678 	andeq	r8, r0, r8, ror r6
  f4:	0000002c 	andeq	r0, r0, ip, lsr #32
  f8:	83080e42 	movwhi	r0, #36418	; 0x8e42
  fc:	00018e02 	andeq	r8, r1, r2, lsl #28
 100:	0000000c 	andeq	r0, r0, ip
 104:	00000058 	andeq	r0, r0, r8, asr r0
 108:	000086a4 	andeq	r8, r0, r4, lsr #13
 10c:	00000034 	andeq	r0, r0, r4, lsr r0
 110:	00000014 	andeq	r0, r0, r4, lsl r0
 114:	00000058 	andeq	r0, r0, r8, asr r0
 118:	000086d8 	ldrdeq	r8, [r0], -r8	; <UNPREDICTABLE>
 11c:	0000002c 	andeq	r0, r0, ip, lsr #32
 120:	83080e42 	movwhi	r0, #36418	; 0x8e42
 124:	00018e02 	andeq	r8, r1, r2, lsl #28
 128:	00000014 	andeq	r0, r0, r4, lsl r0
 12c:	00000058 	andeq	r0, r0, r8, asr r0
 130:	00008704 	andeq	r8, r0, r4, lsl #14
 134:	00000030 	andeq	r0, r0, r0, lsr r0
 138:	83080e42 	movwhi	r0, #36418	; 0x8e42
 13c:	00018e02 	andeq	r8, r1, r2, lsl #28
 140:	0000000c 	andeq	r0, r0, ip
 144:	ffffffff 			; <UNDEFINED> instruction: 0xffffffff
 148:	7c020001 	stcvc	0, cr0, [r2], {1}
 14c:	000d0c0e 	andeq	r0, sp, lr, lsl #24
 150:	00000024 	andeq	r0, r0, r4, lsr #32
 154:	00000140 	andeq	r0, r0, r0, asr #2
 158:	0000884c 	andeq	r8, r0, ip, asr #16
 15c:	00000058 	andeq	r0, r0, r8, asr r0
 160:	80100e42 	andshi	r0, r0, r2, asr #28
 164:	82038104 	andhi	r8, r3, #4, 2
 168:	42018302 	andmi	r8, r1, #134217728	; 0x8000000
 16c:	07841c0e 	streq	r1, [r4, lr, lsl #24]
 170:	058e0685 	streq	r0, [lr, #1669]	; 0x685
 174:	00280e42 	eoreq	r0, r8, r2, asr #28
 178:	0000000c 	andeq	r0, r0, ip
 17c:	ffffffff 			; <UNDEFINED> instruction: 0xffffffff
 180:	7c020001 	stcvc	0, cr0, [r2], {1}
 184:	000d0c0e 	andeq	r0, sp, lr, lsl #24
 188:	00000014 	andeq	r0, r0, r4, lsl r0
 18c:	00000178 	andeq	r0, r0, r8, ror r1
 190:	000088a4 	andeq	r8, r0, r4, lsr #17
 194:	00000014 	andeq	r0, r0, r4, lsl r0
 198:	84080e42 	strhi	r0, [r8], #-3650	; 0xe42
 19c:	00018e02 	andeq	r8, r1, r2, lsl #28
 1a0:	0000000c 	andeq	r0, r0, ip
 1a4:	00000178 	andeq	r0, r0, r8, ror r1
 1a8:	000088b8 			; <UNDEFINED> instruction: 0x000088b8
 1ac:	00000018 	andeq	r0, r0, r8, lsl r0
 1b0:	0000000c 	andeq	r0, r0, ip
 1b4:	00000178 	andeq	r0, r0, r8, ror r1
 1b8:	000088d0 	ldrdeq	r8, [r0], -r0
 1bc:	00000010 	andeq	r0, r0, r0, lsl r0
 1c0:	0000000c 	andeq	r0, r0, ip
 1c4:	ffffffff 			; <UNDEFINED> instruction: 0xffffffff
 1c8:	7c020001 	stcvc	0, cr0, [r2], {1}
 1cc:	000d0c0e 	andeq	r0, sp, lr, lsl #24
 1d0:	00000018 	andeq	r0, r0, r8, lsl r0
 1d4:	000001c0 	andeq	r0, r0, r0, asr #3
 1d8:	000088e0 	andeq	r8, r0, r0, ror #17
 1dc:	00000034 	andeq	r0, r0, r4, lsr r0
 1e0:	83100e42 	tsthi	r0, #1056	; 0x420
 1e4:	85038404 	strhi	r8, [r3, #-1028]	; 0x404
 1e8:	00018e02 	andeq	r8, r1, r2, lsl #28
 1ec:	0000000c 	andeq	r0, r0, ip
 1f0:	ffffffff 			; <UNDEFINED> instruction: 0xffffffff
 1f4:	7c020001 	stcvc	0, cr0, [r2], {1}
 1f8:	000d0c0e 	andeq	r0, sp, lr, lsl #24
 1fc:	0000000c 	andeq	r0, r0, ip
 200:	000001ec 	andeq	r0, r0, ip, ror #3
 204:	00008914 	andeq	r8, r0, r4, lsl r9
 208:	00000014 	andeq	r0, r0, r4, lsl r0
 20c:	0000000c 	andeq	r0, r0, ip
 210:	000001ec 	andeq	r0, r0, ip, ror #3
 214:	00008928 	andeq	r8, r0, r8, lsr #18
 218:	0000002c 	andeq	r0, r0, ip, lsr #32
 21c:	0000000c 	andeq	r0, r0, ip
 220:	000001ec 	andeq	r0, r0, ip, ror #3
 224:	00008954 	andeq	r8, r0, r4, asr r9
 228:	00000040 	andeq	r0, r0, r0, asr #32
 22c:	00000020 	andeq	r0, r0, r0, lsr #32
 230:	000001ec 	andeq	r0, r0, ip, ror #3
 234:	00008994 	muleq	r0, r4, r9
 238:	000001bc 			; <UNDEFINED> instruction: 0x000001bc
 23c:	84180e42 	ldrhi	r0, [r8], #-3650	; 0xe42
 240:	86058506 	strhi	r8, [r5], -r6, lsl #10
 244:	88038704 	stmdahi	r3, {r2, r8, r9, sl, pc}
 248:	42018e02 	andmi	r8, r1, #2, 28
 24c:	0000600e 	andeq	r6, r0, lr
 250:	00000014 	andeq	r0, r0, r4, lsl r0
 254:	000001ec 	andeq	r0, r0, ip, ror #3
 258:	00008b50 	andeq	r8, r0, r0, asr fp
 25c:	00000068 	andeq	r0, r0, r8, rrx
 260:	8e040e42 	cdphi	14, 0, cr0, cr4, cr2, {2}
 264:	100e4201 	andne	r4, lr, r1, lsl #4
 268:	00000028 	andeq	r0, r0, r8, lsr #32
 26c:	000001ec 	andeq	r0, r0, ip, ror #3
 270:	00008bb8 			; <UNDEFINED> instruction: 0x00008bb8
 274:	000002d4 	ldrdeq	r0, [r0], -r4
 278:	84240e42 	strthi	r0, [r4], #-3650	; 0xe42
 27c:	86088509 	strhi	r8, [r8], -r9, lsl #10
 280:	88068707 	stmdahi	r6, {r0, r1, r2, r8, r9, sl, pc}
 284:	8a048905 	bhi	1226a0 <__bss_end__+0x118750>
 288:	8e028b03 	vmlahi.f64	d8, d2, d3
 28c:	b80e4201 	stmdalt	lr, {r0, r9, lr}
 290:	00000001 	andeq	r0, r0, r1
 294:	0000000c 	andeq	r0, r0, ip
 298:	ffffffff 			; <UNDEFINED> instruction: 0xffffffff
 29c:	7c020001 	stcvc	0, cr0, [r2], {1}
 2a0:	000d0c0e 	andeq	r0, sp, lr, lsl #24
 2a4:	0000000c 	andeq	r0, r0, ip
 2a8:	00000294 	muleq	r0, r4, r2
 2ac:	00008e8c 	andeq	r8, r0, ip, lsl #29
 2b0:	00000010 	andeq	r0, r0, r0, lsl r0
 2b4:	0000000c 	andeq	r0, r0, ip
 2b8:	00000294 	muleq	r0, r4, r2
 2bc:	00008e9c 	muleq	r0, ip, lr
 2c0:	00000010 	andeq	r0, r0, r0, lsl r0
 2c4:	0000000c 	andeq	r0, r0, ip
 2c8:	ffffffff 			; <UNDEFINED> instruction: 0xffffffff
 2cc:	7c020001 	stcvc	0, cr0, [r2], {1}
 2d0:	000d0c0e 	andeq	r0, sp, lr, lsl #24
 2d4:	00000014 	andeq	r0, r0, r4, lsl r0
 2d8:	000002c4 	andeq	r0, r0, r4, asr #5
 2dc:	00008eac 	andeq	r8, r0, ip, lsr #29
 2e0:	0000002c 	andeq	r0, r0, ip, lsr #32
 2e4:	83080e42 	movwhi	r0, #36418	; 0x8e42
 2e8:	00018e02 	andeq	r8, r1, r2, lsl #28
 2ec:	0000000c 	andeq	r0, r0, ip
 2f0:	ffffffff 			; <UNDEFINED> instruction: 0xffffffff
 2f4:	7c020001 	stcvc	0, cr0, [r2], {1}
 2f8:	000d0c0e 	andeq	r0, sp, lr, lsl #24
 2fc:	00000014 	andeq	r0, r0, r4, lsl r0
 300:	000002ec 	andeq	r0, r0, ip, ror #5
 304:	00008ed8 	ldrdeq	r8, [r0], -r8	; <UNPREDICTABLE>
 308:	00000038 	andeq	r0, r0, r8, lsr r0
 30c:	83080e42 	movwhi	r0, #36418	; 0x8e42
 310:	00018e02 	andeq	r8, r1, r2, lsl #28
 314:	0000000c 	andeq	r0, r0, ip
 318:	ffffffff 			; <UNDEFINED> instruction: 0xffffffff
 31c:	7c020001 	stcvc	0, cr0, [r2], {1}
 320:	000d0c0e 	andeq	r0, sp, lr, lsl #24
 324:	00000014 	andeq	r0, r0, r4, lsl r0
 328:	00000314 	andeq	r0, r0, r4, lsl r3
 32c:	00008f10 	andeq	r8, r0, r0, lsl pc
 330:	00000044 	andeq	r0, r0, r4, asr #32
 334:	8e040e42 	cdphi	14, 0, cr0, cr4, cr2, {2}
 338:	100e4201 	andne	r4, lr, r1, lsl #4
 33c:	0000000c 	andeq	r0, r0, ip
 340:	ffffffff 			; <UNDEFINED> instruction: 0xffffffff
 344:	7c020001 	stcvc	0, cr0, [r2], {1}
 348:	000d0c0e 	andeq	r0, sp, lr, lsl #24
 34c:	00000014 	andeq	r0, r0, r4, lsl r0
 350:	0000033c 	andeq	r0, r0, ip, lsr r3
 354:	00008f54 	andeq	r8, r0, r4, asr pc
 358:	00000044 	andeq	r0, r0, r4, asr #32
 35c:	8e040e42 	cdphi	14, 0, cr0, cr4, cr2, {2}
 360:	100e4201 	andne	r4, lr, r1, lsl #4
 364:	0000000c 	andeq	r0, r0, ip
 368:	ffffffff 			; <UNDEFINED> instruction: 0xffffffff
 36c:	7c020001 	stcvc	0, cr0, [r2], {1}
 370:	000d0c0e 	andeq	r0, sp, lr, lsl #24
 374:	00000014 	andeq	r0, r0, r4, lsl r0
 378:	00000364 	andeq	r0, r0, r4, ror #6
 37c:	00008f98 	muleq	r0, r8, pc	; <UNPREDICTABLE>
 380:	00000044 	andeq	r0, r0, r4, asr #32
 384:	8e040e42 	cdphi	14, 0, cr0, cr4, cr2, {2}
 388:	100e4201 	andne	r4, lr, r1, lsl #4
 38c:	0000000c 	andeq	r0, r0, ip
 390:	ffffffff 			; <UNDEFINED> instruction: 0xffffffff
 394:	7c020001 	stcvc	0, cr0, [r2], {1}
 398:	000d0c0e 	andeq	r0, sp, lr, lsl #24
 39c:	00000014 	andeq	r0, r0, r4, lsl r0
 3a0:	0000038c 	andeq	r0, r0, ip, lsl #7
 3a4:	00008fdc 	ldrdeq	r8, [r0], -ip
 3a8:	00000044 	andeq	r0, r0, r4, asr #32
 3ac:	8e040e42 	cdphi	14, 0, cr0, cr4, cr2, {2}
 3b0:	100e4201 	andne	r4, lr, r1, lsl #4
 3b4:	0000000c 	andeq	r0, r0, ip
 3b8:	ffffffff 			; <UNDEFINED> instruction: 0xffffffff
 3bc:	7c020001 	stcvc	0, cr0, [r2], {1}
 3c0:	000d0c0e 	andeq	r0, sp, lr, lsl #24
 3c4:	0000000c 	andeq	r0, r0, ip
 3c8:	000003b4 			; <UNDEFINED> instruction: 0x000003b4
 3cc:	00009020 	andeq	r9, r0, r0, lsr #32
 3d0:	00000004 	andeq	r0, r0, r4
 3d4:	0000000c 	andeq	r0, r0, ip
 3d8:	000003b4 			; <UNDEFINED> instruction: 0x000003b4
 3dc:	00009024 	andeq	r9, r0, r4, lsr #32
 3e0:	00000004 	andeq	r0, r0, r4
 3e4:	0000000c 	andeq	r0, r0, ip
 3e8:	ffffffff 			; <UNDEFINED> instruction: 0xffffffff
 3ec:	7c020001 	stcvc	0, cr0, [r2], {1}
 3f0:	000d0c0e 	andeq	r0, sp, lr, lsl #24
 3f4:	00000014 	andeq	r0, r0, r4, lsl r0
 3f8:	000003e4 	andeq	r0, r0, r4, ror #7
 3fc:	00009028 	andeq	r9, r0, r8, lsr #32
 400:	0000006c 	andeq	r0, r0, ip, rrx
 404:	83080e42 	movwhi	r0, #36418	; 0x8e42
 408:	00018e02 	andeq	r8, r1, r2, lsl #28
 40c:	0000000c 	andeq	r0, r0, ip
 410:	ffffffff 			; <UNDEFINED> instruction: 0xffffffff
 414:	7c020001 	stcvc	0, cr0, [r2], {1}
 418:	000d0c0e 	andeq	r0, sp, lr, lsl #24
 41c:	0000000c 	andeq	r0, r0, ip
 420:	0000040c 	andeq	r0, r0, ip, lsl #8
 424:	00009094 	muleq	r0, r4, r0
 428:	00000018 	andeq	r0, r0, r8, lsl r0
 42c:	0000000c 	andeq	r0, r0, ip
 430:	0000040c 	andeq	r0, r0, ip, lsl #8
 434:	000090ac 	andeq	r9, r0, ip, lsr #1
 438:	00000014 	andeq	r0, r0, r4, lsl r0
 43c:	00000014 	andeq	r0, r0, r4, lsl r0
 440:	0000040c 	andeq	r0, r0, ip, lsl #8
 444:	000090c0 	andeq	r9, r0, r0, asr #1
 448:	00000048 	andeq	r0, r0, r8, asr #32
 44c:	83080e42 	movwhi	r0, #36418	; 0x8e42
 450:	00018e02 	andeq	r8, r1, r2, lsl #28
 454:	0000000c 	andeq	r0, r0, ip
 458:	ffffffff 			; <UNDEFINED> instruction: 0xffffffff
 45c:	7c020001 	stcvc	0, cr0, [r2], {1}
 460:	000d0c0e 	andeq	r0, sp, lr, lsl #24
 464:	0000000c 	andeq	r0, r0, ip
 468:	00000454 	andeq	r0, r0, r4, asr r4
 46c:	00009108 	andeq	r9, r0, r8, lsl #2
 470:	0000001c 	andeq	r0, r0, ip, lsl r0
 474:	00000014 	andeq	r0, r0, r4, lsl r0
 478:	00000454 	andeq	r0, r0, r4, asr r4
 47c:	00009124 	andeq	r9, r0, r4, lsr #2
 480:	00000014 	andeq	r0, r0, r4, lsl r0
 484:	83080e42 	movwhi	r0, #36418	; 0x8e42
 488:	00018e02 	andeq	r8, r1, r2, lsl #28
 48c:	00000014 	andeq	r0, r0, r4, lsl r0
 490:	00000454 	andeq	r0, r0, r4, asr r4
 494:	00009138 	andeq	r9, r0, r8, lsr r1
 498:	0000001c 	andeq	r0, r0, ip, lsl r0
 49c:	84080e42 	strhi	r0, [r8], #-3650	; 0xe42
 4a0:	00018e02 	andeq	r8, r1, r2, lsl #28
 4a4:	00000018 	andeq	r0, r0, r8, lsl r0
 4a8:	00000454 	andeq	r0, r0, r4, asr r4
 4ac:	00009154 	andeq	r9, r0, r4, asr r1
 4b0:	00000024 	andeq	r0, r0, r4, lsr #32
 4b4:	83100e42 	tsthi	r0, #1056	; 0x420
 4b8:	85038404 	strhi	r8, [r3, #-1028]	; 0x404
 4bc:	00018e02 	andeq	r8, r1, r2, lsl #28
 4c0:	00000014 	andeq	r0, r0, r4, lsl r0
 4c4:	00000454 	andeq	r0, r0, r4, asr r4
 4c8:	00009178 	andeq	r9, r0, r8, ror r1
 4cc:	00000014 	andeq	r0, r0, r4, lsl r0
 4d0:	83080e42 	movwhi	r0, #36418	; 0x8e42
 4d4:	00018e02 	andeq	r8, r1, r2, lsl #28
 4d8:	00000014 	andeq	r0, r0, r4, lsl r0
 4dc:	00000454 	andeq	r0, r0, r4, asr r4
 4e0:	0000918c 	andeq	r9, r0, ip, lsl #3
 4e4:	00000014 	andeq	r0, r0, r4, lsl r0
 4e8:	83080e42 	movwhi	r0, #36418	; 0x8e42
 4ec:	00018e02 	andeq	r8, r1, r2, lsl #28
 4f0:	0000000c 	andeq	r0, r0, ip
 4f4:	ffffffff 			; <UNDEFINED> instruction: 0xffffffff
 4f8:	7c020001 	stcvc	0, cr0, [r2], {1}
 4fc:	000d0c0e 	andeq	r0, sp, lr, lsl #24
 500:	00000018 	andeq	r0, r0, r8, lsl r0
 504:	000004f0 	strdeq	r0, [r0], -r0	; <UNPREDICTABLE>
 508:	00009204 	andeq	r9, r0, r4, lsl #4
 50c:	00000020 	andeq	r0, r0, r0, lsr #32
 510:	84100e42 	ldrhi	r0, [r0], #-3650	; 0xe42
 514:	86038504 	strhi	r8, [r3], -r4, lsl #10
 518:	00018e02 	andeq	r8, r1, r2, lsl #28
 51c:	00000014 	andeq	r0, r0, r4, lsl r0
 520:	000004f0 	strdeq	r0, [r0], -r0	; <UNPREDICTABLE>
 524:	00009224 	andeq	r9, r0, r4, lsr #4
 528:	000000b0 	strheq	r0, [r0], -r0	; <UNPREDICTABLE>
 52c:	84080e42 	strhi	r0, [r8], #-3650	; 0xe42
 530:	00018e02 	andeq	r8, r1, r2, lsl #28
 534:	00000014 	andeq	r0, r0, r4, lsl r0
 538:	000004f0 	strdeq	r0, [r0], -r0	; <UNPREDICTABLE>
 53c:	000092d4 	ldrdeq	r9, [r0], -r4
 540:	00000018 	andeq	r0, r0, r8, lsl r0
 544:	84080e42 	strhi	r0, [r8], #-3650	; 0xe42
 548:	00018e02 	andeq	r8, r1, r2, lsl #28
 54c:	00000014 	andeq	r0, r0, r4, lsl r0
 550:	000004f0 	strdeq	r0, [r0], -r0	; <UNPREDICTABLE>
 554:	000092ec 	andeq	r9, r0, ip, ror #5
 558:	00000020 	andeq	r0, r0, r0, lsr #32
 55c:	84080e42 	strhi	r0, [r8], #-3650	; 0xe42
 560:	00018e02 	andeq	r8, r1, r2, lsl #28
 564:	00000014 	andeq	r0, r0, r4, lsl r0
 568:	000004f0 	strdeq	r0, [r0], -r0	; <UNPREDICTABLE>
 56c:	0000930c 	andeq	r9, r0, ip, lsl #6
 570:	00000030 	andeq	r0, r0, r0, lsr r0
 574:	84080e42 	strhi	r0, [r8], #-3650	; 0xe42
 578:	00018e02 	andeq	r8, r1, r2, lsl #28
 57c:	00000014 	andeq	r0, r0, r4, lsl r0
 580:	000004f0 	strdeq	r0, [r0], -r0	; <UNPREDICTABLE>
 584:	0000933c 	andeq	r9, r0, ip, lsr r3
 588:	00000030 	andeq	r0, r0, r0, lsr r0
 58c:	84080e42 	strhi	r0, [r8], #-3650	; 0xe42
 590:	00018e02 	andeq	r8, r1, r2, lsl #28
 594:	00000014 	andeq	r0, r0, r4, lsl r0
 598:	000004f0 	strdeq	r0, [r0], -r0	; <UNPREDICTABLE>
 59c:	0000936c 	andeq	r9, r0, ip, ror #6
 5a0:	00000010 	andeq	r0, r0, r0, lsl r0
 5a4:	84080e42 	strhi	r0, [r8], #-3650	; 0xe42
 5a8:	00018e02 	andeq	r8, r1, r2, lsl #28
 5ac:	0000000c 	andeq	r0, r0, ip
 5b0:	ffffffff 			; <UNDEFINED> instruction: 0xffffffff
 5b4:	7c020001 	stcvc	0, cr0, [r2], {1}
 5b8:	000d0c0e 	andeq	r0, sp, lr, lsl #24
 5bc:	00000018 	andeq	r0, r0, r8, lsl r0
 5c0:	000005ac 	andeq	r0, r0, ip, lsr #11
 5c4:	0000937c 	andeq	r9, r0, ip, ror r3
 5c8:	00000068 	andeq	r0, r0, r8, rrx
 5cc:	84100e4a 	ldrhi	r0, [r0], #-3658	; 0xe4a
 5d0:	86038504 	strhi	r8, [r3], -r4, lsl #10
 5d4:	00018e02 	andeq	r8, r1, r2, lsl #28
 5d8:	00000014 	andeq	r0, r0, r4, lsl r0
 5dc:	000005ac 	andeq	r0, r0, ip, lsr #11
 5e0:	000093e4 	andeq	r9, r0, r4, ror #7
 5e4:	00000010 	andeq	r0, r0, r0, lsl r0
 5e8:	84080e42 	strhi	r0, [r8], #-3650	; 0xe42
 5ec:	00018e02 	andeq	r8, r1, r2, lsl #28
 5f0:	00000014 	andeq	r0, r0, r4, lsl r0
 5f4:	000005ac 	andeq	r0, r0, ip, lsr #11
 5f8:	000093f4 	strdeq	r9, [r0], -r4
 5fc:	00000024 	andeq	r0, r0, r4, lsr #32
 600:	84080e46 	strhi	r0, [r8], #-3654	; 0xe46
 604:	00018e02 	andeq	r8, r1, r2, lsl #28
 608:	00000014 	andeq	r0, r0, r4, lsl r0
 60c:	000005ac 	andeq	r0, r0, ip, lsr #11
 610:	00009418 	andeq	r9, r0, r8, lsl r4
 614:	00000024 	andeq	r0, r0, r4, lsr #32
 618:	84080e46 	strhi	r0, [r8], #-3654	; 0xe46
 61c:	00018e02 	andeq	r8, r1, r2, lsl #28
 620:	00000014 	andeq	r0, r0, r4, lsl r0
 624:	000005ac 	andeq	r0, r0, ip, lsr #11
 628:	0000943c 	andeq	r9, r0, ip, lsr r4
 62c:	00000010 	andeq	r0, r0, r0, lsl r0
 630:	84080e42 	strhi	r0, [r8], #-3650	; 0xe42
 634:	00018e02 	andeq	r8, r1, r2, lsl #28
 638:	00000014 	andeq	r0, r0, r4, lsl r0
 63c:	000005ac 	andeq	r0, r0, ip, lsr #11
 640:	0000944c 	andeq	r9, r0, ip, asr #8
 644:	0000001c 	andeq	r0, r0, ip, lsl r0
 648:	84080e42 	strhi	r0, [r8], #-3650	; 0xe42
 64c:	00018e02 	andeq	r8, r1, r2, lsl #28
 650:	00000018 	andeq	r0, r0, r8, lsl r0
 654:	000005ac 	andeq	r0, r0, ip, lsr #11
 658:	00009468 	andeq	r9, r0, r8, ror #8
 65c:	00000034 	andeq	r0, r0, r4, lsr r0
 660:	84080e46 	strhi	r0, [r8], #-3654	; 0xe46
 664:	4e018e02 	cdpmi	14, 0, cr8, cr1, cr2, {0}
 668:	cec4000e 	cdpgt	0, 12, cr0, cr4, cr14, {0}

Disassembly of section .debug_ranges:

00000000 <.debug_ranges>:
   0:	00009094 	muleq	r0, r4, r0
   4:	00009108 	andeq	r9, r0, r8, lsl #2
	...
