
tests/16-part2-test1.elf:     file format elf32-littlearm


Disassembly of section .text:

00008000 <__code_start__>:
    8000:	e3a00013 	mov	r0, #19
    8004:	e129f000 	msr	CPSR_fc, r0
    8008:	e3a00000 	mov	r0, #0
    800c:	ee073f95 	mcr	15, 0, r3, cr7, cr5, {4}
    8010:	e3a0d302 	mov	sp, #134217728	; 0x8000000
    8014:	e3a0b000 	mov	fp, #0
    8018:	eb0005e2 	bl	97a8 <_cstart>
    801c:	eb00064a 	bl	994c <rpi_reboot>

00008020 <mode_str>:
    8020:	e92d4010 	push	{r4, lr}
    8024:	e24dd008 	sub	sp, sp, #8
    8028:	e1a04000 	mov	r4, r0
    802c:	e200301f 	and	r3, r0, #31
    8030:	e3530012 	cmp	r3, #18
    8034:	13530010 	cmpne	r3, #16
    8038:	0a000006 	beq	8058 <mode_str+0x38>
    803c:	e3530017 	cmp	r3, #23
    8040:	13530013 	cmpne	r3, #19
    8044:	0a000005 	beq	8060 <mode_str+0x40>
    8048:	e353001f 	cmp	r3, #31
    804c:	1a000005 	bne	8068 <mode_str+0x48>
    8050:	e3a02001 	mov	r2, #1
    8054:	ea000004 	b	806c <mode_str+0x4c>
    8058:	e3a02001 	mov	r2, #1
    805c:	ea000002 	b	806c <mode_str+0x4c>
    8060:	e3a02001 	mov	r2, #1
    8064:	ea000000 	b	806c <mode_str+0x4c>
    8068:	e3a02000 	mov	r2, #0
    806c:	e3520000 	cmp	r2, #0
    8070:	1a000008 	bne	8098 <mode_str+0x78>
    8074:	eb000443 	bl	9188 <rpi_reset_putc>
    8078:	e59f30c4 	ldr	r3, [pc, #196]	; 8144 <mode_str+0x124>
    807c:	e58d3000 	str	r3, [sp]
    8080:	e59f00c0 	ldr	r0, [pc, #192]	; 8148 <mode_str+0x128>
    8084:	e59f10c0 	ldr	r1, [pc, #192]	; 814c <mode_str+0x12c>
    8088:	e59f20c0 	ldr	r2, [pc, #192]	; 8150 <mode_str+0x130>
    808c:	e3a03011 	mov	r3, #17
    8090:	eb000421 	bl	911c <printk>
    8094:	eb0005b8 	bl	977c <clean_reboot>
    8098:	e2433010 	sub	r3, r3, #16
    809c:	e353000f 	cmp	r3, #15
    80a0:	979ff103 	ldrls	pc, [pc, r3, lsl #2]
    80a4:	ea000019 	b	8110 <mode_str+0xf0>
    80a8:	00008130 	andeq	r8, r0, r0, lsr r1
    80ac:	00008138 	andeq	r8, r0, r8, lsr r1
    80b0:	000080e8 	andeq	r8, r0, r8, ror #1
    80b4:	000080f0 	strdeq	r8, [r0], -r0
    80b8:	00008110 	andeq	r8, r0, r0, lsl r1
    80bc:	00008110 	andeq	r8, r0, r0, lsl r1
    80c0:	00008110 	andeq	r8, r0, r0, lsl r1
    80c4:	000080f8 	strdeq	r8, [r0], -r8	; <UNPREDICTABLE>
    80c8:	00008110 	andeq	r8, r0, r0, lsl r1
    80cc:	00008110 	andeq	r8, r0, r0, lsl r1
    80d0:	00008110 	andeq	r8, r0, r0, lsl r1
    80d4:	00008100 	andeq	r8, r0, r0, lsl #2
    80d8:	00008110 	andeq	r8, r0, r0, lsl r1
    80dc:	00008110 	andeq	r8, r0, r0, lsl r1
    80e0:	00008110 	andeq	r8, r0, r0, lsl r1
    80e4:	00008108 	andeq	r8, r0, r8, lsl #2
    80e8:	e59f0064 	ldr	r0, [pc, #100]	; 8154 <mode_str+0x134>
    80ec:	ea000012 	b	813c <mode_str+0x11c>
    80f0:	e59f0060 	ldr	r0, [pc, #96]	; 8158 <mode_str+0x138>
    80f4:	ea000010 	b	813c <mode_str+0x11c>
    80f8:	e59f005c 	ldr	r0, [pc, #92]	; 815c <mode_str+0x13c>
    80fc:	ea00000e 	b	813c <mode_str+0x11c>
    8100:	e59f0058 	ldr	r0, [pc, #88]	; 8160 <mode_str+0x140>
    8104:	ea00000c 	b	813c <mode_str+0x11c>
    8108:	e59f0054 	ldr	r0, [pc, #84]	; 8164 <mode_str+0x144>
    810c:	ea00000a 	b	813c <mode_str+0x11c>
    8110:	eb00041c 	bl	9188 <rpi_reset_putc>
    8114:	e58d4000 	str	r4, [sp]
    8118:	e59f0048 	ldr	r0, [pc, #72]	; 8168 <mode_str+0x148>
    811c:	e59f1028 	ldr	r1, [pc, #40]	; 814c <mode_str+0x12c>
    8120:	e59f2044 	ldr	r2, [pc, #68]	; 816c <mode_str+0x14c>
    8124:	e3a03021 	mov	r3, #33	; 0x21
    8128:	eb0003fb 	bl	911c <printk>
    812c:	eb000592 	bl	977c <clean_reboot>
    8130:	e59f0038 	ldr	r0, [pc, #56]	; 8170 <mode_str+0x150>
    8134:	ea000000 	b	813c <mode_str+0x11c>
    8138:	e59f0034 	ldr	r0, [pc, #52]	; 8174 <mode_str+0x154>
    813c:	e28dd008 	add	sp, sp, #8
    8140:	e8bd8010 	pop	{r4, pc}
    8144:	00009da8 	andeq	r9, r0, r8, lsr #27
    8148:	00009d84 	andeq	r9, r0, r4, lsl #27
    814c:	00009d98 	muleq	r0, r8, sp
    8150:	0000a00c 	andeq	sl, r0, ip
    8154:	00009d48 	andeq	r9, r0, r8, asr #26
    8158:	00009d54 	andeq	r9, r0, r4, asr sp
    815c:	00009d60 	andeq	r9, r0, r0, ror #26
    8160:	00009d6c 	andeq	r9, r0, ip, ror #26
    8164:	00009d78 	andeq	r9, r0, r8, ror sp
    8168:	00009dbc 			; <UNDEFINED> instruction: 0x00009dbc
    816c:	0000a000 	andeq	sl, r0, r0
    8170:	00009d30 	andeq	r9, r0, r0, lsr sp
    8174:	00009d3c 	andeq	r9, r0, ip, lsr sp

00008178 <user_test>:
    8178:	e52de004 	push	{lr}		; (str lr, [sp, #-4]!)
    817c:	e24dd00c 	sub	sp, sp, #12
    8180:	e59f3068 	ldr	r3, [pc, #104]	; 81f0 <user_test+0x78>
    8184:	e5933000 	ldr	r3, [r3]
    8188:	e1530000 	cmp	r3, r0
    818c:	0a00000d 	beq	81c8 <user_test+0x50>
    8190:	eb0003fc 	bl	9188 <rpi_reset_putc>
    8194:	e59f3058 	ldr	r3, [pc, #88]	; 81f4 <user_test+0x7c>
    8198:	e58d3000 	str	r3, [sp]
    819c:	e59f0054 	ldr	r0, [pc, #84]	; 81f8 <user_test+0x80>
    81a0:	e59f1054 	ldr	r1, [pc, #84]	; 81fc <user_test+0x84>
    81a4:	e59f2054 	ldr	r2, [pc, #84]	; 8200 <user_test+0x88>
    81a8:	e3a0300f 	mov	r3, #15
    81ac:	eb0003da 	bl	911c <printk>
    81b0:	eb000571 	bl	977c <clean_reboot>
    81b4:	e5921000 	ldr	r1, [r2]
    81b8:	e2811001 	add	r1, r1, #1
    81bc:	e5821000 	str	r1, [r2]
    81c0:	e2833001 	add	r3, r3, #1
    81c4:	ea000002 	b	81d4 <user_test+0x5c>
    81c8:	e3a03000 	mov	r3, #0
    81cc:	e59f0030 	ldr	r0, [pc, #48]	; 8204 <user_test+0x8c>
    81d0:	e59f2030 	ldr	r2, [pc, #48]	; 8208 <user_test+0x90>
    81d4:	e1530000 	cmp	r3, r0
    81d8:	dafffff5 	ble	81b4 <user_test+0x3c>
    81dc:	e3a02001 	mov	r2, #1
    81e0:	e59f3024 	ldr	r3, [pc, #36]	; 820c <user_test+0x94>
    81e4:	e5832000 	str	r2, [r3]
    81e8:	e28dd00c 	add	sp, sp, #12
    81ec:	e49df004 	pop	{pc}		; (ldr pc, [sp], #4)
    81f0:	0000a5d0 	ldrdeq	sl, [r0], -r0
    81f4:	00009df8 	strdeq	r9, [r0], -r8
    81f8:	00009d84 	andeq	r9, r0, r4, lsl #27
    81fc:	00009de0 	andeq	r9, r0, r0, ror #27
    8200:	00009fc0 	andeq	r9, r0, r0, asr #31
    8204:	0000270f 	andeq	r2, r0, pc, lsl #14
    8208:	0000a5cc 	andeq	sl, r0, ip, asr #11
    820c:	0000a5c8 	andeq	sl, r0, r8, asr #11

00008210 <single_step_handler>:
    8210:	e92d4010 	push	{r4, lr}
    8214:	e24dd008 	sub	sp, sp, #8
    8218:	e1a04001 	mov	r4, r1
    821c:	e59f311c 	ldr	r3, [pc, #284]	; 8340 <single_step_handler+0x130>
    8220:	e5933000 	ldr	r3, [r3]
    8224:	e3530000 	cmp	r3, #0
    8228:	0a000007 	beq	824c <single_step_handler+0x3c>
    822c:	e58d1000 	str	r1, [sp]
    8230:	e59f310c 	ldr	r3, [pc, #268]	; 8344 <single_step_handler+0x134>
    8234:	e58d3004 	str	r3, [sp, #4]
    8238:	e59f0108 	ldr	r0, [pc, #264]	; 8348 <single_step_handler+0x138>
    823c:	e59f1108 	ldr	r1, [pc, #264]	; 834c <single_step_handler+0x13c>
    8240:	e59f2108 	ldr	r2, [pc, #264]	; 8350 <single_step_handler+0x140>
    8244:	e3a03018 	mov	r3, #24
    8248:	eb0003b3 	bl	911c <printk>
    824c:	ee153f30 	mrc	15, 0, r3, cr5, cr0, {1}
    8250:	e203300f 	and	r3, r3, #15
    8254:	e3530002 	cmp	r3, #2
    8258:	0a000006 	beq	8278 <single_step_handler+0x68>
    825c:	eb0003c9 	bl	9188 <rpi_reset_putc>
    8260:	e59f00ec 	ldr	r0, [pc, #236]	; 8354 <single_step_handler+0x144>
    8264:	e59f10e0 	ldr	r1, [pc, #224]	; 834c <single_step_handler+0x13c>
    8268:	e59f20e0 	ldr	r2, [pc, #224]	; 8350 <single_step_handler+0x140>
    826c:	e3a0301b 	mov	r3, #27
    8270:	eb0003a9 	bl	911c <printk>
    8274:	eb000540 	bl	977c <clean_reboot>
    8278:	e59f30d8 	ldr	r3, [pc, #216]	; 8358 <single_step_handler+0x148>
    827c:	e5933000 	ldr	r3, [r3]
    8280:	e3530000 	cmp	r3, #0
    8284:	0a000014 	beq	82dc <single_step_handler+0xcc>
    8288:	e59f30cc 	ldr	r3, [pc, #204]	; 835c <single_step_handler+0x14c>
    828c:	e5932000 	ldr	r2, [r3]
    8290:	e59f30c8 	ldr	r3, [pc, #200]	; 8360 <single_step_handler+0x150>
    8294:	e1520003 	cmp	r2, r3
    8298:	0a000008 	beq	82c0 <single_step_handler+0xb0>
    829c:	eb0003b9 	bl	9188 <rpi_reset_putc>
    82a0:	e59f30bc 	ldr	r3, [pc, #188]	; 8364 <single_step_handler+0x154>
    82a4:	e58d3000 	str	r3, [sp]
    82a8:	e59f00b8 	ldr	r0, [pc, #184]	; 8368 <single_step_handler+0x158>
    82ac:	e59f1098 	ldr	r1, [pc, #152]	; 834c <single_step_handler+0x13c>
    82b0:	e59f2098 	ldr	r2, [pc, #152]	; 8350 <single_step_handler+0x140>
    82b4:	e3a0301e 	mov	r3, #30
    82b8:	eb000397 	bl	911c <printk>
    82bc:	eb00052e 	bl	977c <clean_reboot>
    82c0:	e59f3094 	ldr	r3, [pc, #148]	; 835c <single_step_handler+0x14c>
    82c4:	e5931000 	ldr	r1, [r3]
    82c8:	e59f009c 	ldr	r0, [pc, #156]	; 836c <single_step_handler+0x15c>
    82cc:	eb000392 	bl	911c <printk>
    82d0:	e1a00004 	mov	r0, r4
    82d4:	eb00014e 	bl	8814 <brkpt_mismatch_disable0>
    82d8:	ea000016 	b	8338 <single_step_handler+0x128>
    82dc:	e59f305c 	ldr	r3, [pc, #92]	; 8340 <single_step_handler+0x130>
    82e0:	e5933000 	ldr	r3, [r3]
    82e4:	e3530000 	cmp	r3, #0
    82e8:	0a000005 	beq	8304 <single_step_handler+0xf4>
    82ec:	e58d4000 	str	r4, [sp]
    82f0:	e59f0078 	ldr	r0, [pc, #120]	; 8370 <single_step_handler+0x160>
    82f4:	e59f1050 	ldr	r1, [pc, #80]	; 834c <single_step_handler+0x13c>
    82f8:	e59f2050 	ldr	r2, [pc, #80]	; 8350 <single_step_handler+0x140>
    82fc:	e3a03022 	mov	r3, #34	; 0x22
    8300:	eb000385 	bl	911c <printk>
    8304:	e1a00004 	mov	r0, r4
    8308:	e59f1064 	ldr	r1, [pc, #100]	; 8374 <single_step_handler+0x164>
    830c:	eb000133 	bl	87e0 <brkpt_mismatch_set0>
    8310:	e59f3028 	ldr	r3, [pc, #40]	; 8340 <single_step_handler+0x130>
    8314:	e5933000 	ldr	r3, [r3]
    8318:	e3530000 	cmp	r3, #0
    831c:	0a000005 	beq	8338 <single_step_handler+0x128>
    8320:	e58d4000 	str	r4, [sp]
    8324:	e59f004c 	ldr	r0, [pc, #76]	; 8378 <single_step_handler+0x168>
    8328:	e59f101c 	ldr	r1, [pc, #28]	; 834c <single_step_handler+0x13c>
    832c:	e59f201c 	ldr	r2, [pc, #28]	; 8350 <single_step_handler+0x140>
    8330:	e3a03024 	mov	r3, #36	; 0x24
    8334:	eb000378 	bl	911c <printk>
    8338:	e28dd008 	add	sp, sp, #8
    833c:	e8bd8010 	pop	{r4, pc}
    8340:	0000a5dc 	ldrdeq	sl, [r0], -ip
    8344:	00008178 	andeq	r8, r0, r8, ror r1
    8348:	00009e14 	andeq	r9, r0, r4, lsl lr
    834c:	00009de0 	andeq	r9, r0, r0, ror #27
    8350:	00009fd4 	ldrdeq	r9, [r0], -r4
    8354:	00009e44 	andeq	r9, r0, r4, asr #28
    8358:	0000a5c8 	andeq	sl, r0, r8, asr #11
    835c:	0000a5cc 	andeq	sl, r0, ip, asr #11
    8360:	00002710 	andeq	r2, r0, r0, lsl r7
    8364:	00009e7c 	andeq	r9, r0, ip, ror lr
    8368:	00009d84 	andeq	r9, r0, r4, lsl #27
    836c:	00009e88 	andeq	r9, r0, r8, lsl #29
    8370:	00009ea8 	andeq	r9, r0, r8, lsr #29
    8374:	00008210 	andeq	r8, r0, r0, lsl r2
    8378:	00009ed0 	ldrdeq	r9, [r0], -r0

0000837c <notmain>:
    837c:	e92d4030 	push	{r4, r5, lr}
    8380:	e24dd00c 	sub	sp, sp, #12
    8384:	eb0000c7 	bl	86a8 <cp14_enable>
    8388:	eb0004f3 	bl	975c <enable_cache>
    838c:	e59f5144 	ldr	r5, [pc, #324]	; 84d8 <notmain+0x15c>
    8390:	e3a03001 	mov	r3, #1
    8394:	e5853000 	str	r3, [r5]
    8398:	e10f4000 	mrs	r4, CPSR
    839c:	e1a00004 	mov	r0, r4
    83a0:	ebffff1e 	bl	8020 <mode_str>
    83a4:	e1a01000 	mov	r1, r0
    83a8:	e59f012c 	ldr	r0, [pc, #300]	; 84dc <notmain+0x160>
    83ac:	e1a02004 	mov	r2, r4
    83b0:	eb000359 	bl	911c <printk>
    83b4:	e5953000 	ldr	r3, [r5]
    83b8:	e3530000 	cmp	r3, #0
    83bc:	0a000004 	beq	83d4 <notmain+0x58>
    83c0:	e59f0118 	ldr	r0, [pc, #280]	; 84e0 <notmain+0x164>
    83c4:	e59f1118 	ldr	r1, [pc, #280]	; 84e4 <notmain+0x168>
    83c8:	e59f2118 	ldr	r2, [pc, #280]	; 84e8 <notmain+0x16c>
    83cc:	e3a03034 	mov	r3, #52	; 0x34
    83d0:	eb000351 	bl	911c <printk>
    83d4:	e3a00000 	mov	r0, #0
    83d8:	e59f110c 	ldr	r1, [pc, #268]	; 84ec <notmain+0x170>
    83dc:	eb0000ff 	bl	87e0 <brkpt_mismatch_set0>
    83e0:	e59f30f0 	ldr	r3, [pc, #240]	; 84d8 <notmain+0x15c>
    83e4:	e5933000 	ldr	r3, [r3]
    83e8:	e3530000 	cmp	r3, #0
    83ec:	0a000004 	beq	8404 <notmain+0x88>
    83f0:	e59f00f8 	ldr	r0, [pc, #248]	; 84f0 <notmain+0x174>
    83f4:	e59f10e8 	ldr	r1, [pc, #232]	; 84e4 <notmain+0x168>
    83f8:	e59f20e8 	ldr	r2, [pc, #232]	; 84e8 <notmain+0x16c>
    83fc:	e3a03036 	mov	r3, #54	; 0x36
    8400:	eb000345 	bl	911c <printk>
    8404:	e3a02000 	mov	r2, #0
    8408:	e59f30c8 	ldr	r3, [pc, #200]	; 84d8 <notmain+0x15c>
    840c:	e5832000 	str	r2, [r3]
    8410:	e59f20dc 	ldr	r2, [pc, #220]	; 84f4 <notmain+0x178>
    8414:	e5822000 	str	r2, [r2]
    8418:	e3c4001f 	bic	r0, r4, #31
    841c:	e3800010 	orr	r0, r0, #16
    8420:	e59f10d0 	ldr	r1, [pc, #208]	; 84f8 <notmain+0x17c>
    8424:	eb000151 	bl	8970 <user_trampoline_ret>
    8428:	e1a00004 	mov	r0, r4
    842c:	ebfffefb 	bl	8020 <mode_str>
    8430:	e1a01000 	mov	r1, r0
    8434:	e59f00c0 	ldr	r0, [pc, #192]	; 84fc <notmain+0x180>
    8438:	e1a02004 	mov	r2, r4
    843c:	eb000336 	bl	911c <printk>
    8440:	e10f4000 	mrs	r4, CPSR
    8444:	e10f0000 	mrs	r0, CPSR
    8448:	ebfffef4 	bl	8020 <mode_str>
    844c:	e1a01000 	mov	r1, r0
    8450:	e59f0084 	ldr	r0, [pc, #132]	; 84dc <notmain+0x160>
    8454:	e1a02004 	mov	r2, r4
    8458:	eb00032f 	bl	911c <printk>
    845c:	e10f3000 	mrs	r3, CPSR
    8460:	e1540003 	cmp	r4, r3
    8464:	0a000008 	beq	848c <notmain+0x110>
    8468:	eb000346 	bl	9188 <rpi_reset_putc>
    846c:	e59f308c 	ldr	r3, [pc, #140]	; 8500 <notmain+0x184>
    8470:	e58d3000 	str	r3, [sp]
    8474:	e59f0088 	ldr	r0, [pc, #136]	; 8504 <notmain+0x188>
    8478:	e59f1064 	ldr	r1, [pc, #100]	; 84e4 <notmain+0x168>
    847c:	e59f2064 	ldr	r2, [pc, #100]	; 84e8 <notmain+0x16c>
    8480:	e3a03042 	mov	r3, #66	; 0x42
    8484:	eb000324 	bl	911c <printk>
    8488:	eb0004bb 	bl	977c <clean_reboot>
    848c:	e59f3074 	ldr	r3, [pc, #116]	; 8508 <notmain+0x18c>
    8490:	e5932000 	ldr	r2, [r3]
    8494:	e59f3070 	ldr	r3, [pc, #112]	; 850c <notmain+0x190>
    8498:	e1520003 	cmp	r2, r3
    849c:	0a000008 	beq	84c4 <notmain+0x148>
    84a0:	eb000338 	bl	9188 <rpi_reset_putc>
    84a4:	e59f3064 	ldr	r3, [pc, #100]	; 8510 <notmain+0x194>
    84a8:	e58d3000 	str	r3, [sp]
    84ac:	e59f0050 	ldr	r0, [pc, #80]	; 8504 <notmain+0x188>
    84b0:	e59f102c 	ldr	r1, [pc, #44]	; 84e4 <notmain+0x168>
    84b4:	e59f202c 	ldr	r2, [pc, #44]	; 84e8 <notmain+0x16c>
    84b8:	e3a03043 	mov	r3, #67	; 0x43
    84bc:	eb000316 	bl	911c <printk>
    84c0:	eb0004ad 	bl	977c <clean_reboot>
    84c4:	e59f0048 	ldr	r0, [pc, #72]	; 8514 <notmain+0x198>
    84c8:	eb000313 	bl	911c <printk>
    84cc:	e59f0044 	ldr	r0, [pc, #68]	; 8518 <notmain+0x19c>
    84d0:	eb000311 	bl	911c <printk>
    84d4:	eb0004a8 	bl	977c <clean_reboot>
    84d8:	0000a5dc 	ldrdeq	sl, [r0], -ip
    84dc:	00009efc 	strdeq	r9, [r0], -ip
    84e0:	00009f14 	andeq	r9, r0, r4, lsl pc
    84e4:	00009de0 	andeq	r9, r0, r0, ror #27
    84e8:	00009fcc 	andeq	r9, r0, ip, asr #31
    84ec:	00008210 	andeq	r8, r0, r0, lsl r2
    84f0:	00009f3c 	andeq	r9, r0, ip, lsr pc
    84f4:	0000a5d0 	ldrdeq	sl, [r0], -r0
    84f8:	00008178 	andeq	r8, r0, r8, ror r1
    84fc:	00009f5c 	andeq	r9, r0, ip, asr pc
    8500:	00009f78 	andeq	r9, r0, r8, ror pc
    8504:	00009d84 	andeq	r9, r0, r4, lsl #27
    8508:	0000a5cc 	andeq	sl, r0, ip, asr #11
    850c:	00002710 	andeq	r2, r0, r0, lsl r7
    8510:	00009e7c 	andeq	r9, r0, ip, ror lr
    8514:	00009f90 	muleq	r0, r0, pc	; <UNPREDICTABLE>
    8518:	00009f9c 	muleq	r0, ip, pc	; <UNPREDICTABLE>

0000851c <watchpt_set0>:
    851c:	e52de004 	push	{lr}		; (str lr, [sp, #-4]!)
    8520:	e24dd00c 	sub	sp, sp, #12
    8524:	ee103ef0 	mrc	14, 0, r3, cr0, cr0, {7}
    8528:	e3c33001 	bic	r3, r3, #1
    852c:	ee003ef0 	mcr	14, 0, r3, cr0, cr0, {7}
    8530:	ee102ef0 	mrc	14, 0, r2, cr0, cr0, {7}
    8534:	e1530002 	cmp	r3, r2
    8538:	0a000008 	beq	8560 <watchpt_set0+0x44>
    853c:	eb000311 	bl	9188 <rpi_reset_putc>
    8540:	e59f306c 	ldr	r3, [pc, #108]	; 85b4 <watchpt_set0+0x98>
    8544:	e58d3000 	str	r3, [sp]
    8548:	e59f0068 	ldr	r0, [pc, #104]	; 85b8 <watchpt_set0+0x9c>
    854c:	e59f1068 	ldr	r1, [pc, #104]	; 85bc <watchpt_set0+0xa0>
    8550:	e59f2068 	ldr	r2, [pc, #104]	; 85c0 <watchpt_set0+0xa4>
    8554:	e3a03041 	mov	r3, #65	; 0x41
    8558:	eb0002ef 	bl	911c <printk>
    855c:	eb000486 	bl	977c <clean_reboot>
    8560:	ee000ed0 	mcr	14, 0, r0, cr0, cr0, {6}
    8564:	e59f3058 	ldr	r3, [pc, #88]	; 85c4 <watchpt_set0+0xa8>
    8568:	ee003ef0 	mcr	14, 0, r3, cr0, cr0, {7}
    856c:	ee102ef0 	mrc	14, 0, r2, cr0, cr0, {7}
    8570:	e1520003 	cmp	r2, r3
    8574:	0a000008 	beq	859c <watchpt_set0+0x80>
    8578:	eb000302 	bl	9188 <rpi_reset_putc>
    857c:	e59f3030 	ldr	r3, [pc, #48]	; 85b4 <watchpt_set0+0x98>
    8580:	e58d3000 	str	r3, [sp]
    8584:	e59f002c 	ldr	r0, [pc, #44]	; 85b8 <watchpt_set0+0x9c>
    8588:	e59f102c 	ldr	r1, [pc, #44]	; 85bc <watchpt_set0+0xa0>
    858c:	e59f202c 	ldr	r2, [pc, #44]	; 85c0 <watchpt_set0+0xa4>
    8590:	e3a03052 	mov	r3, #82	; 0x52
    8594:	eb0002e0 	bl	911c <printk>
    8598:	eb000477 	bl	977c <clean_reboot>
    859c:	e3a03000 	mov	r3, #0
    85a0:	ee073f95 	mcr	15, 0, r3, cr7, cr5, {4}
    85a4:	e59f301c 	ldr	r3, [pc, #28]	; 85c8 <watchpt_set0+0xac>
    85a8:	e5831000 	str	r1, [r3]
    85ac:	e28dd00c 	add	sp, sp, #12
    85b0:	e49df004 	pop	{pc}		; (ldr pc, [sp], #4)
    85b4:	0000a034 	andeq	sl, r0, r4, lsr r0
    85b8:	00009d84 	andeq	r9, r0, r4, lsl #27
    85bc:	0000a024 	andeq	sl, r0, r4, lsr #32
    85c0:	0000a114 	andeq	sl, r0, r4, lsl r1
    85c4:	000001ff 	strdeq	r0, [r0], -pc	; <UNPREDICTABLE>
    85c8:	0000a5d4 	ldrdeq	sl, [r0], -r4

000085cc <data_abort_vector>:
    85cc:	e52de004 	push	{lr}		; (str lr, [sp, #-4]!)
    85d0:	e24dd00c 	sub	sp, sp, #12
    85d4:	e1a01000 	mov	r1, r0
    85d8:	ee153f10 	mrc	15, 0, r3, cr5, cr0, {0}
    85dc:	ee153f10 	mrc	15, 0, r3, cr5, cr0, {0}
    85e0:	e203300f 	and	r3, r3, #15
    85e4:	e3530002 	cmp	r3, #2
    85e8:	0a000006 	beq	8608 <data_abort_vector+0x3c>
    85ec:	eb0002e5 	bl	9188 <rpi_reset_putc>
    85f0:	e59f008c 	ldr	r0, [pc, #140]	; 8684 <data_abort_vector+0xb8>
    85f4:	e59f108c 	ldr	r1, [pc, #140]	; 8688 <data_abort_vector+0xbc>
    85f8:	e59f208c 	ldr	r2, [pc, #140]	; 868c <data_abort_vector+0xc0>
    85fc:	e3a03079 	mov	r3, #121	; 0x79
    8600:	eb0002c5 	bl	911c <printk>
    8604:	eb00045c 	bl	977c <clean_reboot>
    8608:	ee103e16 	mrc	14, 0, r3, cr0, cr6, {0}
    860c:	e2433004 	sub	r3, r3, #4
    8610:	e1530000 	cmp	r3, r0
    8614:	0a000008 	beq	863c <data_abort_vector+0x70>
    8618:	eb0002da 	bl	9188 <rpi_reset_putc>
    861c:	e59f306c 	ldr	r3, [pc, #108]	; 8690 <data_abort_vector+0xc4>
    8620:	e58d3000 	str	r3, [sp]
    8624:	e59f0068 	ldr	r0, [pc, #104]	; 8694 <data_abort_vector+0xc8>
    8628:	e59f1068 	ldr	r1, [pc, #104]	; 8698 <data_abort_vector+0xcc>
    862c:	e59f2068 	ldr	r2, [pc, #104]	; 869c <data_abort_vector+0xd0>
    8630:	e3a03067 	mov	r3, #103	; 0x67
    8634:	eb0002b8 	bl	911c <printk>
    8638:	eb00044f 	bl	977c <clean_reboot>
    863c:	e59f305c 	ldr	r3, [pc, #92]	; 86a0 <data_abort_vector+0xd4>
    8640:	e5933000 	ldr	r3, [r3]
    8644:	e3530000 	cmp	r3, #0
    8648:	1a000008 	bne	8670 <data_abort_vector+0xa4>
    864c:	eb0002cd 	bl	9188 <rpi_reset_putc>
    8650:	e59f304c 	ldr	r3, [pc, #76]	; 86a4 <data_abort_vector+0xd8>
    8654:	e58d3000 	str	r3, [sp]
    8658:	e59f0034 	ldr	r0, [pc, #52]	; 8694 <data_abort_vector+0xc8>
    865c:	e59f1034 	ldr	r1, [pc, #52]	; 8698 <data_abort_vector+0xcc>
    8660:	e59f2034 	ldr	r2, [pc, #52]	; 869c <data_abort_vector+0xd0>
    8664:	e3a03069 	mov	r3, #105	; 0x69
    8668:	eb0002ab 	bl	911c <printk>
    866c:	eb000442 	bl	977c <clean_reboot>
    8670:	ee162f10 	mrc	15, 0, r2, cr6, cr0, {0}
    8674:	e3a00000 	mov	r0, #0
    8678:	e12fff33 	blx	r3
    867c:	e28dd00c 	add	sp, sp, #12
    8680:	e49df004 	pop	{pc}		; (ldr pc, [sp], #4)
    8684:	0000a04c 	andeq	sl, r0, ip, asr #32
    8688:	0000a084 	andeq	sl, r0, r4, lsl #1
    868c:	0000a138 	andeq	sl, r0, r8, lsr r1
    8690:	0000a094 	muleq	r0, r4, r0
    8694:	00009d84 	andeq	r9, r0, r4, lsl #27
    8698:	0000a024 	andeq	sl, r0, r4, lsr #32
    869c:	0000a124 	andeq	sl, r0, r4, lsr #2
    86a0:	0000a5d4 	ldrdeq	sl, [r0], -r4
    86a4:	0000a0a8 	andeq	sl, r0, r8, lsr #1

000086a8 <cp14_enable>:
    86a8:	e92d4008 	push	{r3, lr}
    86ac:	e59f302c 	ldr	r3, [pc, #44]	; 86e0 <cp14_enable+0x38>
    86b0:	e5933000 	ldr	r3, [r3]
    86b4:	e3530000 	cmp	r3, #0
    86b8:	1a000003 	bne	86cc <cp14_enable+0x24>
    86bc:	eb00047c 	bl	98b4 <int_init>
    86c0:	e3a02001 	mov	r2, #1
    86c4:	e59f3014 	ldr	r3, [pc, #20]	; 86e0 <cp14_enable+0x38>
    86c8:	e5832000 	str	r2, [r3]
    86cc:	e3a03902 	mov	r3, #32768	; 0x8000
    86d0:	ee003e11 	mcr	14, 0, r3, cr0, cr1, {0}
    86d4:	e3a03000 	mov	r3, #0
    86d8:	ee073f95 	mcr	15, 0, r3, cr7, cr5, {4}
    86dc:	e8bd8008 	pop	{r3, pc}
    86e0:	0000a5e4 	andeq	sl, r0, r4, ror #11

000086e4 <brkpt_set0>:
    86e4:	ee103eb0 	mrc	14, 0, r3, cr0, cr0, {5}
    86e8:	e3c33001 	bic	r3, r3, #1
    86ec:	ee003eb0 	mcr	14, 0, r3, cr0, cr0, {5}
    86f0:	ee000e90 	mcr	14, 0, r0, cr0, cr0, {4}
    86f4:	e59f3014 	ldr	r3, [pc, #20]	; 8710 <brkpt_set0+0x2c>
    86f8:	ee003eb0 	mcr	14, 0, r3, cr0, cr0, {5}
    86fc:	e3a03000 	mov	r3, #0
    8700:	ee073f95 	mcr	15, 0, r3, cr7, cr5, {4}
    8704:	e59f3008 	ldr	r3, [pc, #8]	; 8714 <brkpt_set0+0x30>
    8708:	e5831000 	str	r1, [r3]
    870c:	e12fff1e 	bx	lr
    8710:	000001e7 	andeq	r0, r0, r7, ror #3
    8714:	0000a5d8 	ldrdeq	sl, [r0], -r8

00008718 <prefetch_abort_vector>:
    8718:	e52de004 	push	{lr}		; (str lr, [sp, #-4]!)
    871c:	e24dd00c 	sub	sp, sp, #12
    8720:	e1a01000 	mov	r1, r0
    8724:	ee153f30 	mrc	15, 0, r3, cr5, cr0, {1}
    8728:	e203300f 	and	r3, r3, #15
    872c:	e3530002 	cmp	r3, #2
    8730:	0a000006 	beq	8750 <prefetch_abort_vector+0x38>
    8734:	eb000293 	bl	9188 <rpi_reset_putc>
    8738:	e59f0058 	ldr	r0, [pc, #88]	; 8798 <prefetch_abort_vector+0x80>
    873c:	e59f1058 	ldr	r1, [pc, #88]	; 879c <prefetch_abort_vector+0x84>
    8740:	e59f2058 	ldr	r2, [pc, #88]	; 87a0 <prefetch_abort_vector+0x88>
    8744:	e3a030c7 	mov	r3, #199	; 0xc7
    8748:	eb000273 	bl	911c <printk>
    874c:	eb00040a 	bl	977c <clean_reboot>
    8750:	e59f304c 	ldr	r3, [pc, #76]	; 87a4 <prefetch_abort_vector+0x8c>
    8754:	e5933000 	ldr	r3, [r3]
    8758:	e3530000 	cmp	r3, #0
    875c:	1a000008 	bne	8784 <prefetch_abort_vector+0x6c>
    8760:	eb000288 	bl	9188 <rpi_reset_putc>
    8764:	e59f303c 	ldr	r3, [pc, #60]	; 87a8 <prefetch_abort_vector+0x90>
    8768:	e58d3000 	str	r3, [sp]
    876c:	e59f0038 	ldr	r0, [pc, #56]	; 87ac <prefetch_abort_vector+0x94>
    8770:	e59f1024 	ldr	r1, [pc, #36]	; 879c <prefetch_abort_vector+0x84>
    8774:	e59f2024 	ldr	r2, [pc, #36]	; 87a0 <prefetch_abort_vector+0x88>
    8778:	e3a030c8 	mov	r3, #200	; 0xc8
    877c:	eb000266 	bl	911c <printk>
    8780:	eb0003fd 	bl	977c <clean_reboot>
    8784:	ee162f10 	mrc	15, 0, r2, cr6, cr0, {0}
    8788:	e3a00000 	mov	r0, #0
    878c:	e12fff33 	blx	r3
    8790:	e28dd00c 	add	sp, sp, #12
    8794:	e49df004 	pop	{pc}		; (ldr pc, [sp], #4)
    8798:	00009e44 	andeq	r9, r0, r4, asr #28
    879c:	0000a024 	andeq	sl, r0, r4, lsr #32
    87a0:	0000a14c 	andeq	sl, r0, ip, asr #2
    87a4:	0000a5d8 	ldrdeq	sl, [r0], -r8
    87a8:	0000a0bc 	strheq	sl, [r0], -ip
    87ac:	00009d84 	andeq	r9, r0, r4, lsl #27

000087b0 <interrupt_vector>:
    87b0:	e12fff1e 	bx	lr

000087b4 <brk_no_ret_error>:
    87b4:	e92d4008 	push	{r3, lr}
    87b8:	eb000272 	bl	9188 <rpi_reset_putc>
    87bc:	e59f0010 	ldr	r0, [pc, #16]	; 87d4 <brk_no_ret_error+0x20>
    87c0:	e59f1010 	ldr	r1, [pc, #16]	; 87d8 <brk_no_ret_error+0x24>
    87c4:	e59f2010 	ldr	r2, [pc, #16]	; 87dc <brk_no_ret_error+0x28>
    87c8:	e3a030d9 	mov	r3, #217	; 0xd9
    87cc:	eb000252 	bl	911c <printk>
    87d0:	eb0003e9 	bl	977c <clean_reboot>
    87d4:	0000a0cc 	andeq	sl, r0, ip, asr #1
    87d8:	0000a024 	andeq	sl, r0, r4, lsr #32
    87dc:	0000a164 	andeq	sl, r0, r4, ror #2

000087e0 <brkpt_mismatch_set0>:
    87e0:	ee103eb0 	mrc	14, 0, r3, cr0, cr0, {5}
    87e4:	e3c33001 	bic	r3, r3, #1
    87e8:	ee003eb0 	mcr	14, 0, r3, cr0, cr0, {5}
    87ec:	ee000e90 	mcr	14, 0, r0, cr0, cr0, {4}
    87f0:	e59f3014 	ldr	r3, [pc, #20]	; 880c <brkpt_mismatch_set0+0x2c>
    87f4:	ee003eb0 	mcr	14, 0, r3, cr0, cr0, {5}
    87f8:	e3a03000 	mov	r3, #0
    87fc:	ee073f95 	mcr	15, 0, r3, cr7, cr5, {4}
    8800:	e59f3008 	ldr	r3, [pc, #8]	; 8810 <brkpt_mismatch_set0+0x30>
    8804:	e5831000 	str	r1, [r3]
    8808:	e12fff1e 	bx	lr
    880c:	004001e7 	subeq	r0, r0, r7, ror #3
    8810:	0000a5d8 	ldrdeq	sl, [r0], -r8

00008814 <brkpt_mismatch_disable0>:
    8814:	e59f3004 	ldr	r3, [pc, #4]	; 8820 <brkpt_mismatch_disable0+0xc>
    8818:	ee003eb0 	mcr	14, 0, r3, cr0, cr0, {5}
    881c:	e12fff1e 	bx	lr
    8820:	004001e6 	subeq	r0, r0, r6, ror #3

00008824 <syscall_vector>:
    8824:	e92d4008 	push	{r3, lr}
    8828:	e5903000 	ldr	r3, [r0]
    882c:	e3c334ff 	bic	r3, r3, #-16777216	; 0xff000000
    8830:	e3530001 	cmp	r3, #1
    8834:	1a000002 	bne	8844 <syscall_vector+0x20>
    8838:	e169f001 	msr	SPSR_fc, r1
    883c:	e3a00000 	mov	r0, #0
    8840:	e8bd8008 	pop	{r3, pc}
    8844:	e3530002 	cmp	r3, #2
    8848:	1a000005 	bne	8864 <syscall_vector+0x40>
    884c:	e5913000 	ldr	r3, [r1]
    8850:	e3530000 	cmp	r3, #0
    8854:	1a000007 	bne	8878 <syscall_vector+0x54>
    8858:	e3a00001 	mov	r0, #1
    885c:	e5810000 	str	r0, [r1]
    8860:	e8bd8008 	pop	{r3, pc}
    8864:	e59f0014 	ldr	r0, [pc, #20]	; 8880 <syscall_vector+0x5c>
    8868:	e1a01003 	mov	r1, r3
    886c:	eb00022a 	bl	911c <printk>
    8870:	e3a00000 	mov	r0, #0
    8874:	e8bd8008 	pop	{r3, pc}
    8878:	e3a00000 	mov	r0, #0
    887c:	e8bd8008 	pop	{r3, pc}
    8880:	0000a0fc 	strdeq	sl, [r0], -ip

00008884 <_interrupt_table>:
    8884:	e59ff020 	ldr	pc, [pc, #32]	; 88ac <_reset_asm>
    8888:	e59ff020 	ldr	pc, [pc, #32]	; 88b0 <_undefined_instruction_asm>
    888c:	e59ff020 	ldr	pc, [pc, #32]	; 88b4 <_software_interrupt_asm>
    8890:	e59ff020 	ldr	pc, [pc, #32]	; 88b8 <_prefetch_abort_asm>
    8894:	e59ff020 	ldr	pc, [pc, #32]	; 88bc <_data_abort_asm>
    8898:	e59ff00c 	ldr	pc, [pc, #12]	; 88ac <_reset_asm>
    889c:	e59ff01c 	ldr	pc, [pc, #28]	; 88c0 <_interrupt_asm>

000088a0 <fast_interrupt_asm>:
    88a0:	e3a0d409 	mov	sp, #150994944	; 0x9000000
    88a4:	e24ee004 	sub	lr, lr, #4
    88a8:	eb0003cc 	bl	97e0 <fast_interrupt_vector>

000088ac <_reset_asm>:
    88ac:	000088dc 	ldrdeq	r8, [r0], -ip

000088b0 <_undefined_instruction_asm>:
    88b0:	00008920 	andeq	r8, r0, r0, lsr #18

000088b4 <_software_interrupt_asm>:
    88b4:	0000892c 	andeq	r8, r0, ip, lsr #18

000088b8 <_prefetch_abort_asm>:
    88b8:	00008904 	andeq	r8, r0, r4, lsl #18

000088bc <_data_abort_asm>:
    88bc:	000088e8 	andeq	r8, r0, r8, ror #17

000088c0 <_interrupt_asm>:
    88c0:	000088c4 	andeq	r8, r0, r4, asr #17

000088c4 <_interrupt_table_end>:
    88c4:	e3a0d409 	mov	sp, #150994944	; 0x9000000
    88c8:	e24ee004 	sub	lr, lr, #4
    88cc:	e92d5fff 	push	{r0, r1, r2, r3, r4, r5, r6, r7, r8, r9, sl, fp, ip, lr}
    88d0:	e1a0000e 	mov	r0, lr
    88d4:	e8bd5fff 	pop	{r0, r1, r2, r3, r4, r5, r6, r7, r8, r9, sl, fp, ip, lr}
    88d8:	e1b0f00e 	movs	pc, lr

000088dc <reset_asm>:
    88dc:	e3a0d409 	mov	sp, #150994944	; 0x9000000
    88e0:	e24ee004 	sub	lr, lr, #4
    88e4:	eb0003ce 	bl	9824 <reset_vector>

000088e8 <data_abort_asm>:
    88e8:	e24ee008 	sub	lr, lr, #8
    88ec:	e3a0d409 	mov	sp, #150994944	; 0x9000000
    88f0:	e92d5fff 	push	{r0, r1, r2, r3, r4, r5, r6, r7, r8, r9, sl, fp, ip, lr}
    88f4:	e1a0000e 	mov	r0, lr
    88f8:	ebffff33 	bl	85cc <data_abort_vector>
    88fc:	e8bd5fff 	pop	{r0, r1, r2, r3, r4, r5, r6, r7, r8, r9, sl, fp, ip, lr}
    8900:	e1b0f00e 	movs	pc, lr

00008904 <prefetch_abort_asm>:
    8904:	e24ee004 	sub	lr, lr, #4
    8908:	e3a0d409 	mov	sp, #150994944	; 0x9000000
    890c:	e92d5fff 	push	{r0, r1, r2, r3, r4, r5, r6, r7, r8, r9, sl, fp, ip, lr}
    8910:	e1a0000e 	mov	r0, lr
    8914:	ebffff7f 	bl	8718 <prefetch_abort_vector>
    8918:	e8bd5fff 	pop	{r0, r1, r2, r3, r4, r5, r6, r7, r8, r9, sl, fp, ip, lr}
    891c:	e1b0f00e 	movs	pc, lr

00008920 <undefined_instruction_asm>:
    8920:	e3a0d409 	mov	sp, #150994944	; 0x9000000
    8924:	e24ee004 	sub	lr, lr, #4
    8928:	eb0003ce 	bl	9868 <undefined_instruction_vector>

0000892c <software_interrupt_asm>:
    892c:	e92d5ff0 	push	{r4, r5, r6, r7, r8, r9, sl, fp, ip, lr}
    8930:	e24ee004 	sub	lr, lr, #4
    8934:	e1a01000 	mov	r1, r0
    8938:	e1a0000e 	mov	r0, lr
    893c:	ebffffb8 	bl	8824 <syscall_vector>
    8940:	e8bd5ff0 	pop	{r4, r5, r6, r7, r8, r9, sl, fp, ip, lr}
    8944:	e1b0f00e 	movs	pc, lr

00008948 <user_trampoline_no_ret>:
    8948:	e1a0200d 	mov	r2, sp
    894c:	e129f000 	msr	CPSR_fc, r0
    8950:	e10f5000 	mrs	r5, CPSR
    8954:	ee070f95 	mcr	15, 0, r0, cr7, cr5, {4}
    8958:	e1a0d002 	mov	sp, r2
    895c:	e92d5ff0 	push	{r4, r5, r6, r7, r8, r9, sl, fp, ip, lr}
    8960:	e12fff31 	blx	r1
    8964:	e8bd5ff0 	pop	{r4, r5, r6, r7, r8, r9, sl, fp, ip, lr}
    8968:	eb000383 	bl	977c <clean_reboot>
    896c:	ebffff90 	bl	87b4 <brk_no_ret_error>

00008970 <user_trampoline_ret>:
    8970:	e92d5ff0 	push	{r4, r5, r6, r7, r8, r9, sl, fp, ip, lr}
    8974:	e10f4000 	mrs	r4, CPSR
    8978:	e1a0500d 	mov	r5, sp
    897c:	e129f000 	msr	CPSR_fc, r0
    8980:	e1a0d005 	mov	sp, r5
    8984:	e1a00002 	mov	r0, r2
    8988:	e12fff31 	blx	r1
    898c:	e1a00004 	mov	r0, r4
    8990:	ef000001 	svc	0x00000001
    8994:	e8bd5ff0 	pop	{r4, r5, r6, r7, r8, r9, sl, fp, ip, lr}
    8998:	e12fff1e 	bx	lr

0000899c <sys_try_lock_asm>:
    899c:	e92d5ff0 	push	{r4, r5, r6, r7, r8, r9, sl, fp, ip, lr}
    89a0:	ef000002 	svc	0x00000002
    89a4:	e8bd5ff0 	pop	{r4, r5, r6, r7, r8, r9, sl, fp, ip, lr}
    89a8:	e12fff1e 	bx	lr

000089ac <single_step_handler>:
    89ac:	e92d4030 	push	{r4, r5, lr}
    89b0:	e24dd00c 	sub	sp, sp, #12
    89b4:	e1a05001 	mov	r5, r1
    89b8:	e59f3150 	ldr	r3, [pc, #336]	; 8b10 <single_step_handler+0x164>
    89bc:	e5933000 	ldr	r3, [r3]
    89c0:	e3530000 	cmp	r3, #0
    89c4:	0a000005 	beq	89e0 <single_step_handler+0x34>
    89c8:	e58d1000 	str	r1, [sp]
    89cc:	e59f0140 	ldr	r0, [pc, #320]	; 8b14 <single_step_handler+0x168>
    89d0:	e59f1140 	ldr	r1, [pc, #320]	; 8b18 <single_step_handler+0x16c>
    89d4:	e59f2140 	ldr	r2, [pc, #320]	; 8b1c <single_step_handler+0x170>
    89d8:	e3a0300c 	mov	r3, #12
    89dc:	eb0001ce 	bl	911c <printk>
    89e0:	ee153f30 	mrc	15, 0, r3, cr5, cr0, {1}
    89e4:	e203300f 	and	r3, r3, #15
    89e8:	e3530002 	cmp	r3, #2
    89ec:	0a000006 	beq	8a0c <single_step_handler+0x60>
    89f0:	eb0001e4 	bl	9188 <rpi_reset_putc>
    89f4:	e59f0124 	ldr	r0, [pc, #292]	; 8b20 <single_step_handler+0x174>
    89f8:	e59f1118 	ldr	r1, [pc, #280]	; 8b18 <single_step_handler+0x16c>
    89fc:	e59f2118 	ldr	r2, [pc, #280]	; 8b1c <single_step_handler+0x170>
    8a00:	e3a0300e 	mov	r3, #14
    8a04:	eb0001c4 	bl	911c <printk>
    8a08:	eb00035b 	bl	977c <clean_reboot>
    8a0c:	e59f3110 	ldr	r3, [pc, #272]	; 8b24 <single_step_handler+0x178>
    8a10:	e5934000 	ldr	r4, [r3]
    8a14:	e594201c 	ldr	r2, [r4, #28]
    8a18:	e5943018 	ldr	r3, [r4, #24]
    8a1c:	e1520003 	cmp	r2, r3
    8a20:	1a000011 	bne	8a6c <single_step_handler+0xc0>
    8a24:	e59f00fc 	ldr	r0, [pc, #252]	; 8b28 <single_step_handler+0x17c>
    8a28:	e1a01005 	mov	r1, r5
    8a2c:	e5942008 	ldr	r2, [r4, #8]
    8a30:	eb0001b9 	bl	911c <printk>
    8a34:	e1a00005 	mov	r0, r5
    8a38:	ebffff75 	bl	8814 <brkpt_mismatch_disable0>
    8a3c:	e5845020 	str	r5, [r4, #32]
    8a40:	e3a03001 	mov	r3, #1
    8a44:	e5843024 	str	r3, [r4, #36]	; 0x24
    8a48:	e5943014 	ldr	r3, [r4, #20]
    8a4c:	e2833001 	add	r3, r3, #1
    8a50:	e5843014 	str	r3, [r4, #20]
    8a54:	e5943008 	ldr	r3, [r4, #8]
    8a58:	e1a00004 	mov	r0, r4
    8a5c:	e12fff33 	blx	r3
    8a60:	e59f00c4 	ldr	r0, [pc, #196]	; 8b2c <single_step_handler+0x180>
    8a64:	eb0001ac 	bl	911c <printk>
    8a68:	ea000026 	b	8b08 <single_step_handler+0x15c>
    8a6c:	e594201c 	ldr	r2, [r4, #28]
    8a70:	e5943018 	ldr	r3, [r4, #24]
    8a74:	e1520003 	cmp	r2, r3
    8a78:	3a000008 	bcc	8aa0 <single_step_handler+0xf4>
    8a7c:	eb0001c1 	bl	9188 <rpi_reset_putc>
    8a80:	e59f30a8 	ldr	r3, [pc, #168]	; 8b30 <single_step_handler+0x184>
    8a84:	e58d3000 	str	r3, [sp]
    8a88:	e59f00a4 	ldr	r0, [pc, #164]	; 8b34 <single_step_handler+0x188>
    8a8c:	e59f1084 	ldr	r1, [pc, #132]	; 8b18 <single_step_handler+0x16c>
    8a90:	e59f2084 	ldr	r2, [pc, #132]	; 8b1c <single_step_handler+0x170>
    8a94:	e3a03021 	mov	r3, #33	; 0x21
    8a98:	eb00019f 	bl	911c <printk>
    8a9c:	eb000336 	bl	977c <clean_reboot>
    8aa0:	e594301c 	ldr	r3, [r4, #28]
    8aa4:	e2833001 	add	r3, r3, #1
    8aa8:	e584301c 	str	r3, [r4, #28]
    8aac:	e59f305c 	ldr	r3, [pc, #92]	; 8b10 <single_step_handler+0x164>
    8ab0:	e5933000 	ldr	r3, [r3]
    8ab4:	e3530000 	cmp	r3, #0
    8ab8:	0a000005 	beq	8ad4 <single_step_handler+0x128>
    8abc:	e58d5000 	str	r5, [sp]
    8ac0:	e59f0070 	ldr	r0, [pc, #112]	; 8b38 <single_step_handler+0x18c>
    8ac4:	e59f104c 	ldr	r1, [pc, #76]	; 8b18 <single_step_handler+0x16c>
    8ac8:	e59f204c 	ldr	r2, [pc, #76]	; 8b1c <single_step_handler+0x170>
    8acc:	e3a03024 	mov	r3, #36	; 0x24
    8ad0:	eb000191 	bl	911c <printk>
    8ad4:	e1a00005 	mov	r0, r5
    8ad8:	e59f105c 	ldr	r1, [pc, #92]	; 8b3c <single_step_handler+0x190>
    8adc:	ebffff3f 	bl	87e0 <brkpt_mismatch_set0>
    8ae0:	e59f3028 	ldr	r3, [pc, #40]	; 8b10 <single_step_handler+0x164>
    8ae4:	e5933000 	ldr	r3, [r3]
    8ae8:	e3530000 	cmp	r3, #0
    8aec:	0a000005 	beq	8b08 <single_step_handler+0x15c>
    8af0:	e58d5000 	str	r5, [sp]
    8af4:	e59f0044 	ldr	r0, [pc, #68]	; 8b40 <single_step_handler+0x194>
    8af8:	e59f1018 	ldr	r1, [pc, #24]	; 8b18 <single_step_handler+0x16c>
    8afc:	e59f2018 	ldr	r2, [pc, #24]	; 8b1c <single_step_handler+0x170>
    8b00:	e3a03026 	mov	r3, #38	; 0x26
    8b04:	eb000184 	bl	911c <printk>
    8b08:	e28dd00c 	add	sp, sp, #12
    8b0c:	e8bd8030 	pop	{r4, r5, pc}
    8b10:	0000a5dc 	ldrdeq	sl, [r0], -ip
    8b14:	0000a178 	andeq	sl, r0, r8, ror r1
    8b18:	0000a198 	muleq	r0, r8, r1
    8b1c:	0000a368 	andeq	sl, r0, r8, ror #6
    8b20:	00009e44 	andeq	r9, r0, r4, asr #28
    8b24:	0000a5e8 	andeq	sl, r0, r8, ror #11
    8b28:	0000a1ac 	andeq	sl, r0, ip, lsr #3
    8b2c:	0000a1cc 	andeq	sl, r0, ip, asr #3
    8b30:	0000a1f4 	strdeq	sl, [r0], -r4
    8b34:	00009d84 	andeq	r9, r0, r4, lsl #27
    8b38:	00009ea8 	andeq	r9, r0, r8, lsr #29
    8b3c:	000089ac 	andeq	r8, r0, ip, lsr #19
    8b40:	00009ed0 	ldrdeq	r9, [r0], -r0

00008b44 <check_one_cswitch>:
    8b44:	e92d4ff0 	push	{r4, r5, r6, r7, r8, r9, sl, fp, lr}
    8b48:	e24dd00c 	sub	sp, sp, #12
    8b4c:	e1a04000 	mov	r4, r0
    8b50:	e10f8000 	mrs	r8, CPSR
    8b54:	e3c8701f 	bic	r7, r8, #31
    8b58:	e3877010 	orr	r7, r7, #16
    8b5c:	e59f3460 	ldr	r3, [pc, #1120]	; 8fc4 <check_one_cswitch+0x480>
    8b60:	e5830000 	str	r0, [r3]
    8b64:	e3a03001 	mov	r3, #1
    8b68:	e5803030 	str	r3, [r0, #48]	; 0x30
    8b6c:	e59f6454 	ldr	r6, [pc, #1108]	; 8fc8 <check_one_cswitch+0x484>
    8b70:	e59fb454 	ldr	fp, [pc, #1108]	; 8fcc <check_one_cswitch+0x488>
    8b74:	e59fa454 	ldr	sl, [pc, #1108]	; 8fd0 <check_one_cswitch+0x48c>
    8b78:	e59f9454 	ldr	r9, [pc, #1108]	; 8fd4 <check_one_cswitch+0x490>
    8b7c:	e59f5454 	ldr	r5, [pc, #1108]	; 8fd8 <check_one_cswitch+0x494>
    8b80:	e594300c 	ldr	r3, [r4, #12]
    8b84:	e1a00004 	mov	r0, r4
    8b88:	e12fff33 	blx	r3
    8b8c:	e5963000 	ldr	r3, [r6]
    8b90:	e3530000 	cmp	r3, #0
    8b94:	0a000006 	beq	8bb4 <check_one_cswitch+0x70>
    8b98:	e5943028 	ldr	r3, [r4, #40]	; 0x28
    8b9c:	e58d3000 	str	r3, [sp]
    8ba0:	e1a0000b 	mov	r0, fp
    8ba4:	e1a0100a 	mov	r1, sl
    8ba8:	e1a02009 	mov	r2, r9
    8bac:	e3a03033 	mov	r3, #51	; 0x33
    8bb0:	eb000159 	bl	911c <printk>
    8bb4:	e3a00000 	mov	r0, #0
    8bb8:	e1a01005 	mov	r1, r5
    8bbc:	ebffff07 	bl	87e0 <brkpt_mismatch_set0>
    8bc0:	e5943018 	ldr	r3, [r4, #24]
    8bc4:	e2833001 	add	r3, r3, #1
    8bc8:	e5843018 	str	r3, [r4, #24]
    8bcc:	e3a03000 	mov	r3, #0
    8bd0:	e584301c 	str	r3, [r4, #28]
    8bd4:	e5843024 	str	r3, [r4, #36]	; 0x24
    8bd8:	e1a00007 	mov	r0, r7
    8bdc:	e5941004 	ldr	r1, [r4, #4]
    8be0:	e1a02004 	mov	r2, r4
    8be4:	ebffff61 	bl	8970 <user_trampoline_ret>
    8be8:	e5943024 	ldr	r3, [r4, #36]	; 0x24
    8bec:	e3530000 	cmp	r3, #0
    8bf0:	1a000002 	bne	8c00 <check_one_cswitch+0xbc>
    8bf4:	e5943008 	ldr	r3, [r4, #8]
    8bf8:	e1a00004 	mov	r0, r4
    8bfc:	e12fff33 	blx	r3
    8c00:	e5943010 	ldr	r3, [r4, #16]
    8c04:	e1a00004 	mov	r0, r4
    8c08:	e12fff33 	blx	r3
    8c0c:	e3500000 	cmp	r0, #0
    8c10:	1a000006 	bne	8c30 <check_one_cswitch+0xec>
    8c14:	e5941020 	ldr	r1, [r4, #32]
    8c18:	e5942018 	ldr	r2, [r4, #24]
    8c1c:	e59f03b8 	ldr	r0, [pc, #952]	; 8fdc <check_one_cswitch+0x498>
    8c20:	eb00013d 	bl	911c <printk>
    8c24:	e594302c 	ldr	r3, [r4, #44]	; 0x2c
    8c28:	e2833001 	add	r3, r3, #1
    8c2c:	e584302c 	str	r3, [r4, #44]	; 0x2c
    8c30:	e5942028 	ldr	r2, [r4, #40]	; 0x28
    8c34:	e2822001 	add	r2, r2, #1
    8c38:	e5842028 	str	r2, [r4, #40]	; 0x28
    8c3c:	e5943024 	ldr	r3, [r4, #36]	; 0x24
    8c40:	e3530000 	cmp	r3, #0
    8c44:	1affffcd 	bne	8b80 <check_one_cswitch+0x3c>
    8c48:	e5941014 	ldr	r1, [r4, #20]
    8c4c:	e59f038c 	ldr	r0, [pc, #908]	; 8fe0 <check_one_cswitch+0x49c>
    8c50:	e594302c 	ldr	r3, [r4, #44]	; 0x2c
    8c54:	eb000130 	bl	911c <printk>
    8c58:	e208301f 	and	r3, r8, #31
    8c5c:	e3530012 	cmp	r3, #18
    8c60:	13530010 	cmpne	r3, #16
    8c64:	0a000006 	beq	8c84 <check_one_cswitch+0x140>
    8c68:	e3530017 	cmp	r3, #23
    8c6c:	13530013 	cmpne	r3, #19
    8c70:	0a000005 	beq	8c8c <check_one_cswitch+0x148>
    8c74:	e353001f 	cmp	r3, #31
    8c78:	1a000005 	bne	8c94 <check_one_cswitch+0x150>
    8c7c:	e3a02001 	mov	r2, #1
    8c80:	ea000004 	b	8c98 <check_one_cswitch+0x154>
    8c84:	e3a02001 	mov	r2, #1
    8c88:	ea000002 	b	8c98 <check_one_cswitch+0x154>
    8c8c:	e3a02001 	mov	r2, #1
    8c90:	ea000000 	b	8c98 <check_one_cswitch+0x154>
    8c94:	e3a02000 	mov	r2, #0
    8c98:	e3520000 	cmp	r2, #0
    8c9c:	1a000008 	bne	8cc4 <check_one_cswitch+0x180>
    8ca0:	eb000138 	bl	9188 <rpi_reset_putc>
    8ca4:	e59f3338 	ldr	r3, [pc, #824]	; 8fe4 <check_one_cswitch+0x4a0>
    8ca8:	e58d3000 	str	r3, [sp]
    8cac:	e59f0334 	ldr	r0, [pc, #820]	; 8fe8 <check_one_cswitch+0x4a4>
    8cb0:	e59f1334 	ldr	r1, [pc, #820]	; 8fec <check_one_cswitch+0x4a8>
    8cb4:	e59f2334 	ldr	r2, [pc, #820]	; 8ff0 <check_one_cswitch+0x4ac>
    8cb8:	e3a03011 	mov	r3, #17
    8cbc:	eb000116 	bl	911c <printk>
    8cc0:	eb0002ad 	bl	977c <clean_reboot>
    8cc4:	e2433010 	sub	r3, r3, #16
    8cc8:	e353000f 	cmp	r3, #15
    8ccc:	979ff103 	ldrls	pc, [pc, r3, lsl #2]
    8cd0:	ea000019 	b	8d3c <check_one_cswitch+0x1f8>
    8cd4:	00008d5c 	andeq	r8, r0, ip, asr sp
    8cd8:	00008d64 	andeq	r8, r0, r4, ror #26
    8cdc:	00008d14 	andeq	r8, r0, r4, lsl sp
    8ce0:	00008d1c 	andeq	r8, r0, ip, lsl sp
    8ce4:	00008d3c 	andeq	r8, r0, ip, lsr sp
    8ce8:	00008d3c 	andeq	r8, r0, ip, lsr sp
    8cec:	00008d3c 	andeq	r8, r0, ip, lsr sp
    8cf0:	00008d24 	andeq	r8, r0, r4, lsr #26
    8cf4:	00008d3c 	andeq	r8, r0, ip, lsr sp
    8cf8:	00008d3c 	andeq	r8, r0, ip, lsr sp
    8cfc:	00008d3c 	andeq	r8, r0, ip, lsr sp
    8d00:	00008d2c 	andeq	r8, r0, ip, lsr #26
    8d04:	00008d3c 	andeq	r8, r0, ip, lsr sp
    8d08:	00008d3c 	andeq	r8, r0, ip, lsr sp
    8d0c:	00008d3c 	andeq	r8, r0, ip, lsr sp
    8d10:	00008d34 	andeq	r8, r0, r4, lsr sp
    8d14:	e59f12d8 	ldr	r1, [pc, #728]	; 8ff4 <check_one_cswitch+0x4b0>
    8d18:	ea000012 	b	8d68 <check_one_cswitch+0x224>
    8d1c:	e59f12d4 	ldr	r1, [pc, #724]	; 8ff8 <check_one_cswitch+0x4b4>
    8d20:	ea000010 	b	8d68 <check_one_cswitch+0x224>
    8d24:	e59f12d0 	ldr	r1, [pc, #720]	; 8ffc <check_one_cswitch+0x4b8>
    8d28:	ea00000e 	b	8d68 <check_one_cswitch+0x224>
    8d2c:	e59f12cc 	ldr	r1, [pc, #716]	; 9000 <check_one_cswitch+0x4bc>
    8d30:	ea00000c 	b	8d68 <check_one_cswitch+0x224>
    8d34:	e59f12c8 	ldr	r1, [pc, #712]	; 9004 <check_one_cswitch+0x4c0>
    8d38:	ea00000a 	b	8d68 <check_one_cswitch+0x224>
    8d3c:	eb000111 	bl	9188 <rpi_reset_putc>
    8d40:	e58d8000 	str	r8, [sp]
    8d44:	e59f02bc 	ldr	r0, [pc, #700]	; 9008 <check_one_cswitch+0x4c4>
    8d48:	e59f129c 	ldr	r1, [pc, #668]	; 8fec <check_one_cswitch+0x4a8>
    8d4c:	e59f22b8 	ldr	r2, [pc, #696]	; 900c <check_one_cswitch+0x4c8>
    8d50:	e3a03021 	mov	r3, #33	; 0x21
    8d54:	eb0000f0 	bl	911c <printk>
    8d58:	eb000287 	bl	977c <clean_reboot>
    8d5c:	e59f12ac 	ldr	r1, [pc, #684]	; 9010 <check_one_cswitch+0x4cc>
    8d60:	ea000000 	b	8d68 <check_one_cswitch+0x224>
    8d64:	e59f12a8 	ldr	r1, [pc, #680]	; 9014 <check_one_cswitch+0x4d0>
    8d68:	e59f02a8 	ldr	r0, [pc, #680]	; 9018 <check_one_cswitch+0x4d4>
    8d6c:	e1a02008 	mov	r2, r8
    8d70:	eb0000e9 	bl	911c <printk>
    8d74:	e10f5000 	mrs	r5, CPSR
    8d78:	e205301f 	and	r3, r5, #31
    8d7c:	e3530012 	cmp	r3, #18
    8d80:	13530010 	cmpne	r3, #16
    8d84:	0a000006 	beq	8da4 <check_one_cswitch+0x260>
    8d88:	e3530017 	cmp	r3, #23
    8d8c:	13530013 	cmpne	r3, #19
    8d90:	0a000005 	beq	8dac <check_one_cswitch+0x268>
    8d94:	e353001f 	cmp	r3, #31
    8d98:	1a000005 	bne	8db4 <check_one_cswitch+0x270>
    8d9c:	e3a02001 	mov	r2, #1
    8da0:	ea000004 	b	8db8 <check_one_cswitch+0x274>
    8da4:	e3a02001 	mov	r2, #1
    8da8:	ea000002 	b	8db8 <check_one_cswitch+0x274>
    8dac:	e3a02001 	mov	r2, #1
    8db0:	ea000000 	b	8db8 <check_one_cswitch+0x274>
    8db4:	e3a02000 	mov	r2, #0
    8db8:	e3520000 	cmp	r2, #0
    8dbc:	1a000008 	bne	8de4 <check_one_cswitch+0x2a0>
    8dc0:	eb0000f0 	bl	9188 <rpi_reset_putc>
    8dc4:	e59f3218 	ldr	r3, [pc, #536]	; 8fe4 <check_one_cswitch+0x4a0>
    8dc8:	e58d3000 	str	r3, [sp]
    8dcc:	e59f0214 	ldr	r0, [pc, #532]	; 8fe8 <check_one_cswitch+0x4a4>
    8dd0:	e59f1214 	ldr	r1, [pc, #532]	; 8fec <check_one_cswitch+0x4a8>
    8dd4:	e59f2214 	ldr	r2, [pc, #532]	; 8ff0 <check_one_cswitch+0x4ac>
    8dd8:	e3a03011 	mov	r3, #17
    8ddc:	eb0000ce 	bl	911c <printk>
    8de0:	eb000265 	bl	977c <clean_reboot>
    8de4:	e2433010 	sub	r3, r3, #16
    8de8:	e353000f 	cmp	r3, #15
    8dec:	979ff103 	ldrls	pc, [pc, r3, lsl #2]
    8df0:	ea000019 	b	8e5c <check_one_cswitch+0x318>
    8df4:	00008e7c 	andeq	r8, r0, ip, ror lr
    8df8:	00008e84 	andeq	r8, r0, r4, lsl #29
    8dfc:	00008e34 	andeq	r8, r0, r4, lsr lr
    8e00:	00008e3c 	andeq	r8, r0, ip, lsr lr
    8e04:	00008e5c 	andeq	r8, r0, ip, asr lr
    8e08:	00008e5c 	andeq	r8, r0, ip, asr lr
    8e0c:	00008e5c 	andeq	r8, r0, ip, asr lr
    8e10:	00008e44 	andeq	r8, r0, r4, asr #28
    8e14:	00008e5c 	andeq	r8, r0, ip, asr lr
    8e18:	00008e5c 	andeq	r8, r0, ip, asr lr
    8e1c:	00008e5c 	andeq	r8, r0, ip, asr lr
    8e20:	00008e4c 	andeq	r8, r0, ip, asr #28
    8e24:	00008e5c 	andeq	r8, r0, ip, asr lr
    8e28:	00008e5c 	andeq	r8, r0, ip, asr lr
    8e2c:	00008e5c 	andeq	r8, r0, ip, asr lr
    8e30:	00008e54 	andeq	r8, r0, r4, asr lr
    8e34:	e59f11b8 	ldr	r1, [pc, #440]	; 8ff4 <check_one_cswitch+0x4b0>
    8e38:	ea000012 	b	8e88 <check_one_cswitch+0x344>
    8e3c:	e59f11b4 	ldr	r1, [pc, #436]	; 8ff8 <check_one_cswitch+0x4b4>
    8e40:	ea000010 	b	8e88 <check_one_cswitch+0x344>
    8e44:	e59f11b0 	ldr	r1, [pc, #432]	; 8ffc <check_one_cswitch+0x4b8>
    8e48:	ea00000e 	b	8e88 <check_one_cswitch+0x344>
    8e4c:	e59f11ac 	ldr	r1, [pc, #428]	; 9000 <check_one_cswitch+0x4bc>
    8e50:	ea00000c 	b	8e88 <check_one_cswitch+0x344>
    8e54:	e59f11a8 	ldr	r1, [pc, #424]	; 9004 <check_one_cswitch+0x4c0>
    8e58:	ea00000a 	b	8e88 <check_one_cswitch+0x344>
    8e5c:	eb0000c9 	bl	9188 <rpi_reset_putc>
    8e60:	e58d5000 	str	r5, [sp]
    8e64:	e59f019c 	ldr	r0, [pc, #412]	; 9008 <check_one_cswitch+0x4c4>
    8e68:	e59f117c 	ldr	r1, [pc, #380]	; 8fec <check_one_cswitch+0x4a8>
    8e6c:	e59f2198 	ldr	r2, [pc, #408]	; 900c <check_one_cswitch+0x4c8>
    8e70:	e3a03021 	mov	r3, #33	; 0x21
    8e74:	eb0000a8 	bl	911c <printk>
    8e78:	eb00023f 	bl	977c <clean_reboot>
    8e7c:	e59f118c 	ldr	r1, [pc, #396]	; 9010 <check_one_cswitch+0x4cc>
    8e80:	ea000000 	b	8e88 <check_one_cswitch+0x344>
    8e84:	e59f1188 	ldr	r1, [pc, #392]	; 9014 <check_one_cswitch+0x4d0>
    8e88:	e10f2000 	mrs	r2, CPSR
    8e8c:	e59f0188 	ldr	r0, [pc, #392]	; 901c <check_one_cswitch+0x4d8>
    8e90:	eb0000a1 	bl	911c <printk>
    8e94:	e3a00000 	mov	r0, #0
    8e98:	ebfffe5d 	bl	8814 <brkpt_mismatch_disable0>
    8e9c:	e208801f 	and	r8, r8, #31
    8ea0:	e3580012 	cmp	r8, #18
    8ea4:	13580010 	cmpne	r8, #16
    8ea8:	0a000006 	beq	8ec8 <check_one_cswitch+0x384>
    8eac:	e3580017 	cmp	r8, #23
    8eb0:	13580013 	cmpne	r8, #19
    8eb4:	0a000005 	beq	8ed0 <check_one_cswitch+0x38c>
    8eb8:	e358001f 	cmp	r8, #31
    8ebc:	1a000005 	bne	8ed8 <check_one_cswitch+0x394>
    8ec0:	e3a03001 	mov	r3, #1
    8ec4:	ea000004 	b	8edc <check_one_cswitch+0x398>
    8ec8:	e3a03001 	mov	r3, #1
    8ecc:	ea000002 	b	8edc <check_one_cswitch+0x398>
    8ed0:	e3a03001 	mov	r3, #1
    8ed4:	ea000000 	b	8edc <check_one_cswitch+0x398>
    8ed8:	e3a03000 	mov	r3, #0
    8edc:	e3530000 	cmp	r3, #0
    8ee0:	1a000008 	bne	8f08 <check_one_cswitch+0x3c4>
    8ee4:	eb0000a7 	bl	9188 <rpi_reset_putc>
    8ee8:	e59f30f4 	ldr	r3, [pc, #244]	; 8fe4 <check_one_cswitch+0x4a0>
    8eec:	e58d3000 	str	r3, [sp]
    8ef0:	e59f00f0 	ldr	r0, [pc, #240]	; 8fe8 <check_one_cswitch+0x4a4>
    8ef4:	e59f10f0 	ldr	r1, [pc, #240]	; 8fec <check_one_cswitch+0x4a8>
    8ef8:	e59f20f0 	ldr	r2, [pc, #240]	; 8ff0 <check_one_cswitch+0x4ac>
    8efc:	e3a03011 	mov	r3, #17
    8f00:	eb000085 	bl	911c <printk>
    8f04:	eb00021c 	bl	977c <clean_reboot>
    8f08:	e10f3000 	mrs	r3, CPSR
    8f0c:	e203301f 	and	r3, r3, #31
    8f10:	e3530012 	cmp	r3, #18
    8f14:	13530010 	cmpne	r3, #16
    8f18:	0a000006 	beq	8f38 <check_one_cswitch+0x3f4>
    8f1c:	e3530017 	cmp	r3, #23
    8f20:	13530013 	cmpne	r3, #19
    8f24:	0a000005 	beq	8f40 <check_one_cswitch+0x3fc>
    8f28:	e353001f 	cmp	r3, #31
    8f2c:	1a000005 	bne	8f48 <check_one_cswitch+0x404>
    8f30:	e3a02001 	mov	r2, #1
    8f34:	ea000004 	b	8f4c <check_one_cswitch+0x408>
    8f38:	e3a02001 	mov	r2, #1
    8f3c:	ea000002 	b	8f4c <check_one_cswitch+0x408>
    8f40:	e3a02001 	mov	r2, #1
    8f44:	ea000000 	b	8f4c <check_one_cswitch+0x408>
    8f48:	e3a02000 	mov	r2, #0
    8f4c:	e3520000 	cmp	r2, #0
    8f50:	1a000008 	bne	8f78 <check_one_cswitch+0x434>
    8f54:	eb00008b 	bl	9188 <rpi_reset_putc>
    8f58:	e59f3084 	ldr	r3, [pc, #132]	; 8fe4 <check_one_cswitch+0x4a0>
    8f5c:	e58d3000 	str	r3, [sp]
    8f60:	e59f0080 	ldr	r0, [pc, #128]	; 8fe8 <check_one_cswitch+0x4a4>
    8f64:	e59f1080 	ldr	r1, [pc, #128]	; 8fec <check_one_cswitch+0x4a8>
    8f68:	e59f2080 	ldr	r2, [pc, #128]	; 8ff0 <check_one_cswitch+0x4ac>
    8f6c:	e3a03011 	mov	r3, #17
    8f70:	eb000069 	bl	911c <printk>
    8f74:	eb000200 	bl	977c <clean_reboot>
    8f78:	e1580003 	cmp	r8, r3
    8f7c:	0a000008 	beq	8fa4 <check_one_cswitch+0x460>
    8f80:	eb000080 	bl	9188 <rpi_reset_putc>
    8f84:	e59f3094 	ldr	r3, [pc, #148]	; 9020 <check_one_cswitch+0x4dc>
    8f88:	e58d3000 	str	r3, [sp]
    8f8c:	e59f0054 	ldr	r0, [pc, #84]	; 8fe8 <check_one_cswitch+0x4a4>
    8f90:	e59f1038 	ldr	r1, [pc, #56]	; 8fd0 <check_one_cswitch+0x48c>
    8f94:	e59f2038 	ldr	r2, [pc, #56]	; 8fd4 <check_one_cswitch+0x490>
    8f98:	e3a03057 	mov	r3, #87	; 0x57
    8f9c:	eb00005e 	bl	911c <printk>
    8fa0:	eb0001f5 	bl	977c <clean_reboot>
    8fa4:	e3a03000 	mov	r3, #0
    8fa8:	e5843030 	str	r3, [r4, #48]	; 0x30
    8fac:	e594002c 	ldr	r0, [r4, #44]	; 0x2c
    8fb0:	e1500003 	cmp	r0, r3
    8fb4:	13a00000 	movne	r0, #0
    8fb8:	03a00001 	moveq	r0, #1
    8fbc:	e28dd00c 	add	sp, sp, #12
    8fc0:	e8bd8ff0 	pop	{r4, r5, r6, r7, r8, r9, sl, fp, pc}
    8fc4:	0000a5e8 	andeq	sl, r0, r8, ror #11
    8fc8:	0000a5dc 	ldrdeq	sl, [r0], -ip
    8fcc:	0000a218 	andeq	sl, r0, r8, lsl r2
    8fd0:	0000a198 	muleq	r0, r8, r1
    8fd4:	0000a354 	andeq	sl, r0, r4, asr r3
    8fd8:	000089ac 	andeq	r8, r0, ip, lsr #19
    8fdc:	0000a250 	andeq	sl, r0, r0, asr r2
    8fe0:	0000a298 	muleq	r0, r8, r2
    8fe4:	00009da8 	andeq	r9, r0, r8, lsr #27
    8fe8:	00009d84 	andeq	r9, r0, r4, lsl #27
    8fec:	0000a2cc 	andeq	sl, r0, ip, asr #5
    8ff0:	0000a3a0 	andeq	sl, r0, r0, lsr #7
    8ff4:	00009d48 	andeq	r9, r0, r8, asr #26
    8ff8:	00009d54 	andeq	r9, r0, r4, asr sp
    8ffc:	00009d60 	andeq	r9, r0, r0, ror #26
    9000:	00009d6c 	andeq	r9, r0, ip, ror #26
    9004:	00009d78 	andeq	r9, r0, r8, ror sp
    9008:	00009dbc 			; <UNDEFINED> instruction: 0x00009dbc
    900c:	0000a394 	muleq	r0, r4, r3
    9010:	00009d30 	andeq	r9, r0, r0, lsr sp
    9014:	00009d3c 	andeq	r9, r0, ip, lsr sp
    9018:	00009f5c 	andeq	r9, r0, ip, asr pc
    901c:	00009efc 	strdeq	r9, [r0], -ip
    9020:	0000a2d8 	ldrdeq	sl, [r0], -r8

00009024 <check_sequential>:
    9024:	e92d4038 	push	{r3, r4, r5, lr}
    9028:	e1a04000 	mov	r4, r0
    902c:	e3a05000 	mov	r5, #0
    9030:	ea000015 	b	908c <check_sequential+0x68>
    9034:	e594300c 	ldr	r3, [r4, #12]
    9038:	e1a00004 	mov	r0, r4
    903c:	e12fff33 	blx	r3
    9040:	e5943004 	ldr	r3, [r4, #4]
    9044:	e1a00004 	mov	r0, r4
    9048:	e12fff33 	blx	r3
    904c:	e5943008 	ldr	r3, [r4, #8]
    9050:	e1a00004 	mov	r0, r4
    9054:	e12fff33 	blx	r3
    9058:	e5943010 	ldr	r3, [r4, #16]
    905c:	e1a00004 	mov	r0, r4
    9060:	e12fff33 	blx	r3
    9064:	e3500000 	cmp	r0, #0
    9068:	1a000006 	bne	9088 <check_sequential+0x64>
    906c:	eb000045 	bl	9188 <rpi_reset_putc>
    9070:	e59f0024 	ldr	r0, [pc, #36]	; 909c <check_sequential+0x78>
    9074:	e59f1024 	ldr	r1, [pc, #36]	; 90a0 <check_sequential+0x7c>
    9078:	e59f2024 	ldr	r2, [pc, #36]	; 90a4 <check_sequential+0x80>
    907c:	e3a0306c 	mov	r3, #108	; 0x6c
    9080:	eb000025 	bl	911c <printk>
    9084:	eb0001bc 	bl	977c <clean_reboot>
    9088:	e2855001 	add	r5, r5, #1
    908c:	e3550063 	cmp	r5, #99	; 0x63
    9090:	9affffe7 	bls	9034 <check_sequential+0x10>
    9094:	e3a00001 	mov	r0, #1
    9098:	e8bd8038 	pop	{r3, r4, r5, pc}
    909c:	0000a304 	andeq	sl, r0, r4, lsl #6
    90a0:	0000a198 	muleq	r0, r8, r1
    90a4:	0000a340 	andeq	sl, r0, r0, asr #6

000090a8 <check_zero>:
    90a8:	e3a03000 	mov	r3, #0
    90ac:	e5803030 	str	r3, [r0, #48]	; 0x30
    90b0:	e580302c 	str	r3, [r0, #44]	; 0x2c
    90b4:	e5803028 	str	r3, [r0, #40]	; 0x28
    90b8:	e5803024 	str	r3, [r0, #36]	; 0x24
    90bc:	e5803020 	str	r3, [r0, #32]
    90c0:	e580301c 	str	r3, [r0, #28]
    90c4:	e5803018 	str	r3, [r0, #24]
    90c8:	e5803014 	str	r3, [r0, #20]
    90cc:	e12fff1e 	bx	lr

000090d0 <check>:
    90d0:	e92d4010 	push	{r4, lr}
    90d4:	e1a04000 	mov	r4, r0
    90d8:	ebfffd72 	bl	86a8 <cp14_enable>
    90dc:	e1a00004 	mov	r0, r4
    90e0:	ebfffff0 	bl	90a8 <check_zero>
    90e4:	e1a00004 	mov	r0, r4
    90e8:	ebffffcd 	bl	9024 <check_sequential>
    90ec:	e3500000 	cmp	r0, #0
    90f0:	0a000005 	beq	910c <check+0x3c>
    90f4:	e1a00004 	mov	r0, r4
    90f8:	ebfffe91 	bl	8b44 <check_one_cswitch>
    90fc:	e3500000 	cmp	r0, #0
    9100:	0a000003 	beq	9114 <check+0x44>
    9104:	e3a00001 	mov	r0, #1
    9108:	e8bd8010 	pop	{r4, pc}
    910c:	e3a00000 	mov	r0, #0
    9110:	e8bd8010 	pop	{r4, pc}
    9114:	e3a00000 	mov	r0, #0
    9118:	e8bd8010 	pop	{r4, pc}

0000911c <printk>:
    911c:	e92d000f 	push	{r0, r1, r2, r3}
    9120:	e92d4030 	push	{r4, r5, lr}
    9124:	e24dd00c 	sub	sp, sp, #12
    9128:	e28d301c 	add	r3, sp, #28
    912c:	e58d3004 	str	r3, [sp, #4]
    9130:	e59f4034 	ldr	r4, [pc, #52]	; 916c <printk+0x50>
    9134:	e1a00004 	mov	r0, r4
    9138:	e3a01b01 	mov	r1, #1024	; 0x400
    913c:	e59d2018 	ldr	r2, [sp, #24]
    9140:	eb0000d0 	bl	9488 <va_printk>
    9144:	e1a05000 	mov	r5, r0
    9148:	e59f3020 	ldr	r3, [pc, #32]	; 9170 <printk+0x54>
    914c:	e5933000 	ldr	r3, [r3]
    9150:	e1a00004 	mov	r0, r4
    9154:	e12fff33 	blx	r3
    9158:	e1a00005 	mov	r0, r5
    915c:	e28dd00c 	add	sp, sp, #12
    9160:	e8bd4030 	pop	{r4, r5, lr}
    9164:	e28dd010 	add	sp, sp, #16
    9168:	e12fff1e 	bx	lr
    916c:	0000a5f0 	strdeq	sl, [r0], -r0
    9170:	00009d2c 	andeq	r9, r0, ip, lsr #26

00009174 <internal_putchar>:
    9174:	e92d4010 	push	{r4, lr}
    9178:	e1a04000 	mov	r4, r0
    917c:	eb000291 	bl	9bc8 <uart_putc>
    9180:	e1a00004 	mov	r0, r4
    9184:	e8bd8010 	pop	{r4, pc}

00009188 <rpi_reset_putc>:
    9188:	e59f2008 	ldr	r2, [pc, #8]	; 9198 <rpi_reset_putc+0x10>
    918c:	e59f3008 	ldr	r3, [pc, #8]	; 919c <rpi_reset_putc+0x14>
    9190:	e5832000 	str	r2, [r3]
    9194:	e12fff1e 	bx	lr
    9198:	00009174 	andeq	r9, r0, r4, ror r1
    919c:	00009d28 	andeq	r9, r0, r8, lsr #26

000091a0 <rpi_set_putc>:
    91a0:	e59f3004 	ldr	r3, [pc, #4]	; 91ac <rpi_set_putc+0xc>
    91a4:	e5830000 	str	r0, [r3]
    91a8:	e12fff1e 	bx	lr
    91ac:	00009d28 	andeq	r9, r0, r8, lsr #26

000091b0 <internal_putk>:
    91b0:	e92d4038 	push	{r3, r4, r5, lr}
    91b4:	e1a04000 	mov	r4, r0
    91b8:	e59f5020 	ldr	r5, [pc, #32]	; 91e0 <internal_putk+0x30>
    91bc:	ea000002 	b	91cc <internal_putk+0x1c>
    91c0:	e5953000 	ldr	r3, [r5]
    91c4:	e12fff33 	blx	r3
    91c8:	e2844001 	add	r4, r4, #1
    91cc:	e5d40000 	ldrb	r0, [r4]
    91d0:	e3500000 	cmp	r0, #0
    91d4:	1afffff9 	bne	91c0 <internal_putk+0x10>
    91d8:	e3a00001 	mov	r0, #1
    91dc:	e8bd8038 	pop	{r3, r4, r5, pc}
    91e0:	00009d28 	andeq	r9, r0, r8, lsr #26

000091e4 <isdigit>:
    91e4:	e2400030 	sub	r0, r0, #48	; 0x30
    91e8:	e3500009 	cmp	r0, #9
    91ec:	83a00000 	movhi	r0, #0
    91f0:	93a00001 	movls	r0, #1
    91f4:	e12fff1e 	bx	lr

000091f8 <pad>:
    91f8:	e0611000 	rsb	r1, r1, r0
    91fc:	e3a03020 	mov	r3, #32
    9200:	ea000002 	b	9210 <pad+0x18>
    9204:	e5c03000 	strb	r3, [r0]
    9208:	e2811001 	add	r1, r1, #1
    920c:	e2800001 	add	r0, r0, #1
    9210:	e1510002 	cmp	r1, r2
    9214:	bafffffa 	blt	9204 <pad+0xc>
    9218:	e3a03000 	mov	r3, #0
    921c:	e5c03000 	strb	r3, [r0]
    9220:	e12fff1e 	bx	lr

00009224 <reverse>:
    9224:	e063c002 	rsb	ip, r3, r2
    9228:	e28cc001 	add	ip, ip, #1
    922c:	e15c0001 	cmp	ip, r1
    9230:	c061100c 	rsbgt	r1, r1, ip
    9234:	c0833001 	addgt	r3, r3, r1
    9238:	e2422001 	sub	r2, r2, #1
    923c:	e1a01000 	mov	r1, r0
    9240:	ea000002 	b	9250 <reverse+0x2c>
    9244:	e452c001 	ldrb	ip, [r2], #-1
    9248:	e5c1c000 	strb	ip, [r1]
    924c:	e2811001 	add	r1, r1, #1
    9250:	e1520003 	cmp	r2, r3
    9254:	2afffffa 	bcs	9244 <reverse+0x20>
    9258:	e3a03000 	mov	r3, #0
    925c:	e5c13000 	strb	r3, [r1]
    9260:	e12fff1e 	bx	lr

00009264 <emit>:
    9264:	e92d41f0 	push	{r4, r5, r6, r7, r8, lr}
    9268:	e24dd048 	sub	sp, sp, #72	; 0x48
    926c:	e1a05001 	mov	r5, r1
    9270:	e1a04002 	mov	r4, r2
    9274:	e59d2060 	ldr	r2, [sp, #96]	; 0x60
    9278:	e1520004 	cmp	r2, r4
    927c:	c2442001 	subgt	r2, r4, #1
    9280:	e1a0c003 	mov	ip, r3
    9284:	e2400002 	sub	r0, r0, #2
    9288:	e350000e 	cmp	r0, #14
    928c:	979ff100 	ldrls	pc, [pc, r0, lsl #2]
    9290:	ea000048 	b	93b8 <emit+0x154>
    9294:	00009390 	muleq	r0, r0, r3
    9298:	000093b8 			; <UNDEFINED> instruction: 0x000093b8
    929c:	000093b8 			; <UNDEFINED> instruction: 0x000093b8
    92a0:	000093b8 			; <UNDEFINED> instruction: 0x000093b8
    92a4:	000093b8 			; <UNDEFINED> instruction: 0x000093b8
    92a8:	000093b8 			; <UNDEFINED> instruction: 0x000093b8
    92ac:	00009384 	andeq	r9, r0, r4, lsl #7
    92b0:	000093b8 			; <UNDEFINED> instruction: 0x000093b8
    92b4:	000092d0 	ldrdeq	r9, [r0], -r0
    92b8:	000093b8 			; <UNDEFINED> instruction: 0x000093b8
    92bc:	000093b8 			; <UNDEFINED> instruction: 0x000093b8
    92c0:	000093b8 			; <UNDEFINED> instruction: 0x000093b8
    92c4:	000093b8 			; <UNDEFINED> instruction: 0x000093b8
    92c8:	000093b8 			; <UNDEFINED> instruction: 0x000093b8
    92cc:	00009344 	andeq	r9, r0, r4, asr #6
    92d0:	e59d1064 	ldr	r1, [sp, #100]	; 0x64
    92d4:	e2911000 	adds	r1, r1, #0
    92d8:	13a01001 	movne	r1, #1
    92dc:	e0111fa3 	ands	r1, r1, r3, lsr #31
    92e0:	1263c000 	rsbne	ip, r3, #0
    92e4:	13a08001 	movne	r8, #1
    92e8:	03a08000 	moveq	r8, #0
    92ec:	e28d1008 	add	r1, sp, #8
    92f0:	e59f7108 	ldr	r7, [pc, #264]	; 9400 <emit+0x19c>
    92f4:	e59f6108 	ldr	r6, [pc, #264]	; 9404 <emit+0x1a0>
    92f8:	ea000000 	b	9300 <emit+0x9c>
    92fc:	e1a01000 	mov	r1, r0
    9300:	e2810001 	add	r0, r1, #1
    9304:	e083ec97 	umull	lr, r3, r7, ip
    9308:	e1a031a3 	lsr	r3, r3, #3
    930c:	e1a0e003 	mov	lr, r3
    9310:	e0833103 	add	r3, r3, r3, lsl #2
    9314:	e1a03083 	lsl	r3, r3, #1
    9318:	e063300c 	rsb	r3, r3, ip
    931c:	e7d63003 	ldrb	r3, [r6, r3]
    9320:	e5c13000 	strb	r3, [r1]
    9324:	e1a0c00e 	mov	ip, lr
    9328:	e35e0000 	cmp	lr, #0
    932c:	1afffff2 	bne	92fc <emit+0x98>
    9330:	e3580000 	cmp	r8, #0
    9334:	12810002 	addne	r0, r1, #2
    9338:	13a0302d 	movne	r3, #45	; 0x2d
    933c:	15c13001 	strbne	r3, [r1, #1]
    9340:	ea000025 	b	93dc <emit+0x178>
    9344:	e28d3008 	add	r3, sp, #8
    9348:	e59fe0b8 	ldr	lr, [pc, #184]	; 9408 <emit+0x1a4>
    934c:	ea000000 	b	9354 <emit+0xf0>
    9350:	e1a03000 	mov	r3, r0
    9354:	e2830001 	add	r0, r3, #1
    9358:	e20c100f 	and	r1, ip, #15
    935c:	e7de1001 	ldrb	r1, [lr, r1]
    9360:	e5c31000 	strb	r1, [r3]
    9364:	e1b0c22c 	lsrs	ip, ip, #4
    9368:	1afffff8 	bne	9350 <emit+0xec>
    936c:	e3a01078 	mov	r1, #120	; 0x78
    9370:	e5c31001 	strb	r1, [r3, #1]
    9374:	e2830003 	add	r0, r3, #3
    9378:	e3a01030 	mov	r1, #48	; 0x30
    937c:	e5c31002 	strb	r1, [r3, #2]
    9380:	ea000015 	b	93dc <emit+0x178>
    9384:	e5cd3008 	strb	r3, [sp, #8]
    9388:	e28d0009 	add	r0, sp, #9
    938c:	ea000012 	b	93dc <emit+0x178>
    9390:	e28d3008 	add	r3, sp, #8
    9394:	e59fe070 	ldr	lr, [pc, #112]	; 940c <emit+0x1a8>
    9398:	e2830001 	add	r0, r3, #1
    939c:	e20c1001 	and	r1, ip, #1
    93a0:	e7de1001 	ldrb	r1, [lr, r1]
    93a4:	e5c31000 	strb	r1, [r3]
    93a8:	e1a03000 	mov	r3, r0
    93ac:	e1b0c0ac 	lsrs	ip, ip, #1
    93b0:	1afffff8 	bne	9398 <emit+0x134>
    93b4:	ea000008 	b	93dc <emit+0x178>
    93b8:	ebffff72 	bl	9188 <rpi_reset_putc>
    93bc:	e59f304c 	ldr	r3, [pc, #76]	; 9410 <emit+0x1ac>
    93c0:	e58d3000 	str	r3, [sp]
    93c4:	e59f0048 	ldr	r0, [pc, #72]	; 9414 <emit+0x1b0>
    93c8:	e59f1048 	ldr	r1, [pc, #72]	; 9418 <emit+0x1b4>
    93cc:	e59f2048 	ldr	r2, [pc, #72]	; 941c <emit+0x1b8>
    93d0:	e3a03077 	mov	r3, #119	; 0x77
    93d4:	ebffff50 	bl	911c <printk>
    93d8:	eb0000e7 	bl	977c <clean_reboot>
    93dc:	e28d1008 	add	r1, sp, #8
    93e0:	ebffff84 	bl	91f8 <pad>
    93e4:	e1a02000 	mov	r2, r0
    93e8:	e1a00005 	mov	r0, r5
    93ec:	e1a01004 	mov	r1, r4
    93f0:	e28d3008 	add	r3, sp, #8
    93f4:	ebffff8a 	bl	9224 <reverse>
    93f8:	e28dd048 	add	sp, sp, #72	; 0x48
    93fc:	e8bd81f0 	pop	{r4, r5, r6, r7, r8, pc}
    9400:	cccccccd 	stclgt	12, cr12, [ip], {205}	; 0xcd
    9404:	0000a3f4 	strdeq	sl, [r0], -r4
    9408:	0000a400 	andeq	sl, r0, r0, lsl #8
    940c:	0000a414 	andeq	sl, r0, r4, lsl r4
    9410:	0000a3f0 	strdeq	sl, [r0], -r0
    9414:	00009d84 	andeq	r9, r0, r4, lsl #27
    9418:	0000a3dc 	ldrdeq	sl, [r0], -ip
    941c:	0000a3b8 			; <UNDEFINED> instruction: 0x0000a3b8

00009420 <rpi_set_output>:
    9420:	e52de004 	push	{lr}		; (str lr, [sp, #-4]!)
    9424:	e24dd00c 	sub	sp, sp, #12
    9428:	e3500000 	cmp	r0, #0
    942c:	1a000008 	bne	9454 <rpi_set_output+0x34>
    9430:	ebffff54 	bl	9188 <rpi_reset_putc>
    9434:	e59f3034 	ldr	r3, [pc, #52]	; 9470 <rpi_set_output+0x50>
    9438:	e58d3000 	str	r3, [sp]
    943c:	e59f0030 	ldr	r0, [pc, #48]	; 9474 <rpi_set_output+0x54>
    9440:	e59f1030 	ldr	r1, [pc, #48]	; 9478 <rpi_set_output+0x58>
    9444:	e59f2030 	ldr	r2, [pc, #48]	; 947c <rpi_set_output+0x5c>
    9448:	e3a03020 	mov	r3, #32
    944c:	ebffff32 	bl	911c <printk>
    9450:	eb0000c9 	bl	977c <clean_reboot>
    9454:	e59f3024 	ldr	r3, [pc, #36]	; 9480 <rpi_set_output+0x60>
    9458:	e5830000 	str	r0, [r3]
    945c:	e3510000 	cmp	r1, #0
    9460:	159f301c 	ldrne	r3, [pc, #28]	; 9484 <rpi_set_output+0x64>
    9464:	15831000 	strne	r1, [r3]
    9468:	e28dd00c 	add	sp, sp, #12
    946c:	e49df004 	pop	{pc}		; (ldr pc, [sp], #4)
    9470:	0000a418 	andeq	sl, r0, r8, lsl r4
    9474:	00009d84 	andeq	r9, r0, r4, lsl #27
    9478:	0000a3dc 	ldrdeq	sl, [r0], -ip
    947c:	0000a3c0 	andeq	sl, r0, r0, asr #7
    9480:	00009d28 	andeq	r9, r0, r8, lsr #26
    9484:	00009d2c 	andeq	r9, r0, ip, lsr #26

00009488 <va_printk>:
    9488:	e92d4ff0 	push	{r4, r5, r6, r7, r8, r9, sl, fp, lr}
    948c:	e24dd094 	sub	sp, sp, #148	; 0x94
    9490:	e1a0b000 	mov	fp, r0
    9494:	e58d200c 	str	r2, [sp, #12]
    9498:	e1a0a003 	mov	sl, r3
    949c:	e2411001 	sub	r1, r1, #1
    94a0:	e0808001 	add	r8, r0, r1
    94a4:	e3a03000 	mov	r3, #0
    94a8:	e5c03000 	strb	r3, [r0]
    94ac:	e1a04000 	mov	r4, r0
    94b0:	e1a06002 	mov	r6, r2
    94b4:	ea000095 	b	9710 <va_printk+0x288>
    94b8:	e3530025 	cmp	r3, #37	; 0x25
    94bc:	12866001 	addne	r6, r6, #1
    94c0:	15c43000 	strbne	r3, [r4]
    94c4:	12844001 	addne	r4, r4, #1
    94c8:	1a000090 	bne	9710 <va_printk+0x288>
    94cc:	e5d62001 	ldrb	r2, [r6, #1]
    94d0:	e3520025 	cmp	r2, #37	; 0x25
    94d4:	05c43000 	strbeq	r3, [r4]
    94d8:	02866002 	addeq	r6, r6, #2
    94dc:	02844001 	addeq	r4, r4, #1
    94e0:	0a00008a 	beq	9710 <va_printk+0x288>
    94e4:	e2866001 	add	r6, r6, #1
    94e8:	e3a07000 	mov	r7, #0
    94ec:	ea000004 	b	9504 <va_printk+0x7c>
    94f0:	e0877107 	add	r7, r7, r7, lsl #2
    94f4:	e1a07087 	lsl	r7, r7, #1
    94f8:	e0877005 	add	r7, r7, r5
    94fc:	e2477030 	sub	r7, r7, #48	; 0x30
    9500:	e2866001 	add	r6, r6, #1
    9504:	e5d65000 	ldrb	r5, [r6]
    9508:	e1a09005 	mov	r9, r5
    950c:	e1a00005 	mov	r0, r5
    9510:	ebffff33 	bl	91e4 <isdigit>
    9514:	e3500000 	cmp	r0, #0
    9518:	1afffff4 	bne	94f0 <va_printk+0x68>
    951c:	e357001f 	cmp	r7, #31
    9520:	9a000008 	bls	9548 <va_printk+0xc0>
    9524:	ebffff17 	bl	9188 <rpi_reset_putc>
    9528:	e59f320c 	ldr	r3, [pc, #524]	; 973c <va_printk+0x2b4>
    952c:	e58d3000 	str	r3, [sp]
    9530:	e59f0208 	ldr	r0, [pc, #520]	; 9740 <va_printk+0x2b8>
    9534:	e59f1208 	ldr	r1, [pc, #520]	; 9744 <va_printk+0x2bc>
    9538:	e59f2208 	ldr	r2, [pc, #520]	; 9748 <va_printk+0x2c0>
    953c:	e3a03095 	mov	r3, #149	; 0x95
    9540:	ebfffef5 	bl	911c <printk>
    9544:	eb00008c 	bl	977c <clean_reboot>
    9548:	e2455062 	sub	r5, r5, #98	; 0x62
    954c:	e3550016 	cmp	r5, #22
    9550:	979ff105 	ldrls	pc, [pc, r5, lsl #2]
    9554:	ea000052 	b	96a4 <va_printk+0x21c>
    9558:	00009648 	andeq	r9, r0, r8, asr #12
    955c:	0000967c 	andeq	r9, r0, ip, ror r6
    9560:	000095d0 	ldrdeq	r9, [r0], -r0
    9564:	000096a4 	andeq	r9, r0, r4, lsr #13
    9568:	000095b4 			; <UNDEFINED> instruction: 0x000095b4
    956c:	000096a4 	andeq	r9, r0, r4, lsr #13
    9570:	000096a4 	andeq	r9, r0, r4, lsr #13
    9574:	000096a4 	andeq	r9, r0, r4, lsr #13
    9578:	000096a4 	andeq	r9, r0, r4, lsr #13
    957c:	000096a4 	andeq	r9, r0, r4, lsr #13
    9580:	000096a4 	andeq	r9, r0, r4, lsr #13
    9584:	000096a4 	andeq	r9, r0, r4, lsr #13
    9588:	000096a4 	andeq	r9, r0, r4, lsr #13
    958c:	000096a4 	andeq	r9, r0, r4, lsr #13
    9590:	00009620 	andeq	r9, r0, r0, lsr #12
    9594:	000096a4 	andeq	r9, r0, r4, lsr #13
    9598:	000096a4 	andeq	r9, r0, r4, lsr #13
    959c:	00009670 	andeq	r9, r0, r0, ror r6
    95a0:	000096a4 	andeq	r9, r0, r4, lsr #13
    95a4:	000095f8 	strdeq	r9, [r0], -r8
    95a8:	000096a4 	andeq	r9, r0, r4, lsr #13
    95ac:	000096a4 	andeq	r9, r0, r4, lsr #13
    95b0:	00009620 	andeq	r9, r0, r0, lsr #12
    95b4:	ebfffef3 	bl	9188 <rpi_reset_putc>
    95b8:	e59f018c 	ldr	r0, [pc, #396]	; 974c <va_printk+0x2c4>
    95bc:	e59f1180 	ldr	r1, [pc, #384]	; 9744 <va_printk+0x2bc>
    95c0:	e59f2180 	ldr	r2, [pc, #384]	; 9748 <va_printk+0x2c0>
    95c4:	e3a0309b 	mov	r3, #155	; 0x9b
    95c8:	ebfffed3 	bl	911c <printk>
    95cc:	eb00006a 	bl	977c <clean_reboot>
    95d0:	e59a3000 	ldr	r3, [sl]
    95d4:	e28aa004 	add	sl, sl, #4
    95d8:	e58d7000 	str	r7, [sp]
    95dc:	e3a02001 	mov	r2, #1
    95e0:	e58d2004 	str	r2, [sp, #4]
    95e4:	e3a0000a 	mov	r0, #10
    95e8:	e28d1010 	add	r1, sp, #16
    95ec:	e3a02080 	mov	r2, #128	; 0x80
    95f0:	ebffff1b 	bl	9264 <emit>
    95f4:	ea00003b 	b	96e8 <va_printk+0x260>
    95f8:	e59a3000 	ldr	r3, [sl]
    95fc:	e28aa004 	add	sl, sl, #4
    9600:	e58d7000 	str	r7, [sp]
    9604:	e3a02000 	mov	r2, #0
    9608:	e58d2004 	str	r2, [sp, #4]
    960c:	e3a0000a 	mov	r0, #10
    9610:	e28d1010 	add	r1, sp, #16
    9614:	e3a02080 	mov	r2, #128	; 0x80
    9618:	ebffff11 	bl	9264 <emit>
    961c:	ea000031 	b	96e8 <va_printk+0x260>
    9620:	e59a3000 	ldr	r3, [sl]
    9624:	e28aa004 	add	sl, sl, #4
    9628:	e58d7000 	str	r7, [sp]
    962c:	e3a02000 	mov	r2, #0
    9630:	e58d2004 	str	r2, [sp, #4]
    9634:	e3a00010 	mov	r0, #16
    9638:	e08d1000 	add	r1, sp, r0
    963c:	e3a02080 	mov	r2, #128	; 0x80
    9640:	ebffff07 	bl	9264 <emit>
    9644:	ea000027 	b	96e8 <va_printk+0x260>
    9648:	e59a3000 	ldr	r3, [sl]
    964c:	e28aa004 	add	sl, sl, #4
    9650:	e58d7000 	str	r7, [sp]
    9654:	e3a02000 	mov	r2, #0
    9658:	e58d2004 	str	r2, [sp, #4]
    965c:	e3a00002 	mov	r0, #2
    9660:	e28d1010 	add	r1, sp, #16
    9664:	e3a02080 	mov	r2, #128	; 0x80
    9668:	ebfffefd 	bl	9264 <emit>
    966c:	ea00001d 	b	96e8 <va_printk+0x260>
    9670:	e59a0000 	ldr	r0, [sl]
    9674:	e28aa004 	add	sl, sl, #4
    9678:	ea00001a 	b	96e8 <va_printk+0x260>
    967c:	e59a3000 	ldr	r3, [sl]
    9680:	e28aa004 	add	sl, sl, #4
    9684:	e58d7000 	str	r7, [sp]
    9688:	e3a02000 	mov	r2, #0
    968c:	e58d2004 	str	r2, [sp, #4]
    9690:	e3a00008 	mov	r0, #8
    9694:	e28d1010 	add	r1, sp, #16
    9698:	e3a02080 	mov	r2, #128	; 0x80
    969c:	ebfffef0 	bl	9264 <emit>
    96a0:	ea000010 	b	96e8 <va_printk+0x260>
    96a4:	e3a03000 	mov	r3, #0
    96a8:	e5c63001 	strb	r3, [r6, #1]
    96ac:	e59f009c 	ldr	r0, [pc, #156]	; 9750 <va_printk+0x2c8>
    96b0:	e1a01009 	mov	r1, r9
    96b4:	e1a02009 	mov	r2, r9
    96b8:	ebfffe97 	bl	911c <printk>
    96bc:	e59f3090 	ldr	r3, [pc, #144]	; 9754 <va_printk+0x2cc>
    96c0:	e5933000 	ldr	r3, [r3]
    96c4:	e59d000c 	ldr	r0, [sp, #12]
    96c8:	e12fff33 	blx	r3
    96cc:	ebfffead 	bl	9188 <rpi_reset_putc>
    96d0:	e59f0080 	ldr	r0, [pc, #128]	; 9758 <va_printk+0x2d0>
    96d4:	e59f1068 	ldr	r1, [pc, #104]	; 9744 <va_printk+0x2bc>
    96d8:	e59f2068 	ldr	r2, [pc, #104]	; 9748 <va_printk+0x2c0>
    96dc:	e3a030bf 	mov	r3, #191	; 0xbf
    96e0:	ebfffe8d 	bl	911c <printk>
    96e4:	eb000024 	bl	977c <clean_reboot>
    96e8:	e2866001 	add	r6, r6, #1
    96ec:	ea000002 	b	96fc <va_printk+0x274>
    96f0:	e2800001 	add	r0, r0, #1
    96f4:	e5c43000 	strb	r3, [r4]
    96f8:	e2844001 	add	r4, r4, #1
    96fc:	e1540008 	cmp	r4, r8
    9700:	2a000002 	bcs	9710 <va_printk+0x288>
    9704:	e5d03000 	ldrb	r3, [r0]
    9708:	e3530000 	cmp	r3, #0
    970c:	1afffff7 	bne	96f0 <va_printk+0x268>
    9710:	e5d63000 	ldrb	r3, [r6]
    9714:	e3530000 	cmp	r3, #0
    9718:	0a000001 	beq	9724 <va_printk+0x29c>
    971c:	e1540008 	cmp	r4, r8
    9720:	3affff64 	bcc	94b8 <va_printk+0x30>
    9724:	e2840001 	add	r0, r4, #1
    9728:	e3a03000 	mov	r3, #0
    972c:	e5c43000 	strb	r3, [r4]
    9730:	e06b0000 	rsb	r0, fp, r0
    9734:	e28dd094 	add	sp, sp, #148	; 0x94
    9738:	e8bd8ff0 	pop	{r4, r5, r6, r7, r8, r9, sl, fp, pc}
    973c:	0000a420 	andeq	sl, r0, r0, lsr #8
    9740:	00009d84 	andeq	r9, r0, r4, lsl #27
    9744:	0000a3dc 	ldrdeq	sl, [r0], -ip
    9748:	0000a3d0 	ldrdeq	sl, [r0], -r0
    974c:	0000a42c 	andeq	sl, r0, ip, lsr #8
    9750:	0000a454 	andeq	sl, r0, r4, asr r4
    9754:	00009d2c 	andeq	r9, r0, ip, lsr #26
    9758:	0000a484 	andeq	sl, r0, r4, lsl #9

0000975c <enable_cache>:
    975c:	ee113f10 	mrc	15, 0, r3, cr1, cr0, {0}
    9760:	e3833b06 	orr	r3, r3, #6144	; 0x1800
    9764:	ee013f10 	mcr	15, 0, r3, cr1, cr0, {0}
    9768:	e12fff1e 	bx	lr

0000976c <disable_cache>:
    976c:	ee113f10 	mrc	15, 0, r3, cr1, cr0, {0}
    9770:	e3c33b06 	bic	r3, r3, #6144	; 0x1800
    9774:	ee013f10 	mcr	15, 0, r3, cr1, cr0, {0}
    9778:	e12fff1e 	bx	lr

0000977c <clean_reboot>:
    977c:	e92d4008 	push	{r3, lr}
    9780:	eb00004a 	bl	98b0 <reboot_handler>
    9784:	e59f3014 	ldr	r3, [pc, #20]	; 97a0 <clean_reboot+0x24>
    9788:	e5933000 	ldr	r3, [r3]
    978c:	e59f0010 	ldr	r0, [pc, #16]	; 97a4 <clean_reboot+0x28>
    9790:	e12fff33 	blx	r3
    9794:	e3a00064 	mov	r0, #100	; 0x64
    9798:	eb000099 	bl	9a04 <delay_ms>
    979c:	eb00006a 	bl	994c <rpi_reboot>
    97a0:	00009d2c 	andeq	r9, r0, ip, lsr #26
    97a4:	0000a4a4 	andeq	sl, r0, r4, lsr #9

000097a8 <_cstart>:
    97a8:	e92d4008 	push	{r3, lr}
    97ac:	e59f3024 	ldr	r3, [pc, #36]	; 97d8 <_cstart+0x30>
    97b0:	e59f2024 	ldr	r2, [pc, #36]	; 97dc <_cstart+0x34>
    97b4:	e3a01000 	mov	r1, #0
    97b8:	ea000001 	b	97c4 <_cstart+0x1c>
    97bc:	e5831000 	str	r1, [r3]
    97c0:	e2833004 	add	r3, r3, #4
    97c4:	e1530002 	cmp	r3, r2
    97c8:	3afffffb 	bcc	97bc <_cstart+0x14>
    97cc:	eb000036 	bl	98ac <cstart_handler>
    97d0:	ebfffae9 	bl	837c <notmain>
    97d4:	ebffffe8 	bl	977c <clean_reboot>
    97d8:	0000a5c8 	andeq	sl, r0, r8, asr #11
    97dc:	0000a9f0 	strdeq	sl, [r0], -r0

000097e0 <fast_interrupt_vector>:
    97e0:	e52de004 	push	{lr}		; (str lr, [sp, #-4]!)
    97e4:	e24dd00c 	sub	sp, sp, #12
    97e8:	e1a04000 	mov	r4, r0
    97ec:	ebfffe65 	bl	9188 <rpi_reset_putc>
    97f0:	e59f301c 	ldr	r3, [pc, #28]	; 9814 <fast_interrupt_vector+0x34>
    97f4:	e58d3000 	str	r3, [sp]
    97f8:	e58d4004 	str	r4, [sp, #4]
    97fc:	e59f0014 	ldr	r0, [pc, #20]	; 9818 <fast_interrupt_vector+0x38>
    9800:	e59f1014 	ldr	r1, [pc, #20]	; 981c <fast_interrupt_vector+0x3c>
    9804:	e59f2014 	ldr	r2, [pc, #20]	; 9820 <fast_interrupt_vector+0x40>
    9808:	e3a03002 	mov	r3, #2
    980c:	ebfffe42 	bl	911c <printk>
    9810:	ebffffd9 	bl	977c <clean_reboot>
    9814:	0000a528 	andeq	sl, r0, r8, lsr #10
    9818:	0000a4c8 	andeq	sl, r0, r8, asr #9
    981c:	0000a504 	andeq	sl, r0, r4, lsl #10
    9820:	0000a4b0 			; <UNDEFINED> instruction: 0x0000a4b0

00009824 <reset_vector>:
    9824:	e52de004 	push	{lr}		; (str lr, [sp, #-4]!)
    9828:	e24dd00c 	sub	sp, sp, #12
    982c:	e1a04000 	mov	r4, r0
    9830:	ebfffe54 	bl	9188 <rpi_reset_putc>
    9834:	e59f301c 	ldr	r3, [pc, #28]	; 9858 <reset_vector+0x34>
    9838:	e58d3000 	str	r3, [sp]
    983c:	e58d4004 	str	r4, [sp, #4]
    9840:	e59f0014 	ldr	r0, [pc, #20]	; 985c <reset_vector+0x38>
    9844:	e59f1014 	ldr	r1, [pc, #20]	; 9860 <reset_vector+0x3c>
    9848:	e59f2014 	ldr	r2, [pc, #20]	; 9864 <reset_vector+0x40>
    984c:	e3a03002 	mov	r3, #2
    9850:	ebfffe31 	bl	911c <printk>
    9854:	ebffffc8 	bl	977c <clean_reboot>
    9858:	0000a564 	andeq	sl, r0, r4, ror #10
    985c:	0000a4c8 	andeq	sl, r0, r8, asr #9
    9860:	0000a540 	andeq	sl, r0, r0, asr #10
    9864:	0000a530 	andeq	sl, r0, r0, lsr r5

00009868 <undefined_instruction_vector>:
    9868:	e52de004 	push	{lr}		; (str lr, [sp, #-4]!)
    986c:	e24dd00c 	sub	sp, sp, #12
    9870:	e1a04000 	mov	r4, r0
    9874:	ebfffe43 	bl	9188 <rpi_reset_putc>
    9878:	e59f301c 	ldr	r3, [pc, #28]	; 989c <undefined_instruction_vector+0x34>
    987c:	e58d3000 	str	r3, [sp]
    9880:	e58d4004 	str	r4, [sp, #4]
    9884:	e59f0014 	ldr	r0, [pc, #20]	; 98a0 <undefined_instruction_vector+0x38>
    9888:	e59f1014 	ldr	r1, [pc, #20]	; 98a4 <undefined_instruction_vector+0x3c>
    988c:	e59f2014 	ldr	r2, [pc, #20]	; 98a8 <undefined_instruction_vector+0x40>
    9890:	e3a03002 	mov	r3, #2
    9894:	ebfffe20 	bl	911c <printk>
    9898:	ebffffb7 	bl	977c <clean_reboot>
    989c:	0000a5b8 			; <UNDEFINED> instruction: 0x0000a5b8
    98a0:	0000a4c8 	andeq	sl, r0, r8, asr #9
    98a4:	0000a58c 	andeq	sl, r0, ip, lsl #11
    98a8:	0000a56c 	andeq	sl, r0, ip, ror #10

000098ac <cstart_handler>:
    98ac:	e12fff1e 	bx	lr

000098b0 <reboot_handler>:
    98b0:	e12fff1e 	bx	lr

000098b4 <int_init>:
    98b4:	e92d4008 	push	{r3, lr}
    98b8:	eb00005b 	bl	9a2c <dev_barrier>
    98bc:	e59f004c 	ldr	r0, [pc, #76]	; 9910 <int_init+0x5c>
    98c0:	e3e01000 	mvn	r1, #0
    98c4:	eb000060 	bl	9a4c <PUT32>
    98c8:	e59f0044 	ldr	r0, [pc, #68]	; 9914 <int_init+0x60>
    98cc:	e3e01000 	mvn	r1, #0
    98d0:	eb00005d 	bl	9a4c <PUT32>
    98d4:	eb000054 	bl	9a2c <dev_barrier>
    98d8:	e59f3038 	ldr	r3, [pc, #56]	; 9918 <int_init+0x64>
    98dc:	e59f0038 	ldr	r0, [pc, #56]	; 991c <int_init+0x68>
    98e0:	e0630000 	rsb	r0, r3, r0
    98e4:	e1a00140 	asr	r0, r0, #2
    98e8:	e3a03000 	mov	r3, #0
    98ec:	e59fc024 	ldr	ip, [pc, #36]	; 9918 <int_init+0x64>
    98f0:	ea000003 	b	9904 <int_init+0x50>
    98f4:	e1a02103 	lsl	r2, r3, #2
    98f8:	e79c1103 	ldr	r1, [ip, r3, lsl #2]
    98fc:	e5821000 	str	r1, [r2]
    9900:	e2833001 	add	r3, r3, #1
    9904:	e1530000 	cmp	r3, r0
    9908:	3afffff9 	bcc	98f4 <int_init+0x40>
    990c:	e8bd8008 	pop	{r3, pc}
    9910:	2000b21c 	andcs	fp, r0, ip, lsl r2
    9914:	2000b220 	andcs	fp, r0, r0, lsr #4
    9918:	00008884 	andeq	r8, r0, r4, lsl #17
    991c:	000088c4 	andeq	r8, r0, r4, asr #17

00009920 <at_user_level>:
    9920:	e10f0000 	mrs	r0, CPSR
    9924:	e200001f 	and	r0, r0, #31
    9928:	e3500010 	cmp	r0, #16
    992c:	13a00000 	movne	r0, #0
    9930:	03a00001 	moveq	r0, #1
    9934:	e12fff1e 	bx	lr

00009938 <set_user_level>:
    9938:	e10f3000 	mrs	r3, CPSR
    993c:	e3c3301f 	bic	r3, r3, #31
    9940:	e3833010 	orr	r3, r3, #16
    9944:	e129f003 	msr	CPSR_fc, r3
    9948:	e12fff1e 	bx	lr

0000994c <rpi_reboot>:
    994c:	e92d4008 	push	{r3, lr}
    9950:	ebfffff2 	bl	9920 <at_user_level>
    9954:	e3500000 	cmp	r0, #0
    9958:	0a000000 	beq	9960 <rpi_reboot+0x14>
    995c:	ebfffff5 	bl	9938 <set_user_level>
    9960:	e3a0001e 	mov	r0, #30
    9964:	eb000026 	bl	9a04 <delay_ms>
    9968:	e59f0014 	ldr	r0, [pc, #20]	; 9984 <rpi_reboot+0x38>
    996c:	e59f1014 	ldr	r1, [pc, #20]	; 9988 <rpi_reboot+0x3c>
    9970:	eb000035 	bl	9a4c <PUT32>
    9974:	e59f0010 	ldr	r0, [pc, #16]	; 998c <rpi_reboot+0x40>
    9978:	e59f1010 	ldr	r1, [pc, #16]	; 9990 <rpi_reboot+0x44>
    997c:	eb000032 	bl	9a4c <PUT32>
    9980:	eafffffe 	b	9980 <rpi_reboot+0x34>
    9984:	20100024 	andscs	r0, r0, r4, lsr #32
    9988:	5a000001 	bpl	9994 <delay_cycles>
    998c:	2010001c 	andscs	r0, r0, ip, lsl r0
    9990:	5a000020 	bpl	9a18 <delay_sec>

00009994 <delay_cycles>:
    9994:	ea000001 	b	99a0 <delay_cycles+0xc>
    9998:	e2811000 	add	r1, r1, #0
    999c:	e1a00003 	mov	r0, r3
    99a0:	e2403001 	sub	r3, r0, #1
    99a4:	e3500000 	cmp	r0, #0
    99a8:	1afffffa 	bne	9998 <delay_cycles+0x4>
    99ac:	e12fff1e 	bx	lr

000099b0 <timer_get_usec_raw>:
    99b0:	e92d4008 	push	{r3, lr}
    99b4:	e59f0004 	ldr	r0, [pc, #4]	; 99c0 <timer_get_usec_raw+0x10>
    99b8:	eb00002f 	bl	9a7c <GET32>
    99bc:	e8bd8008 	pop	{r3, pc}
    99c0:	20003004 	andcs	r3, r0, r4

000099c4 <timer_get_usec>:
    99c4:	e92d4010 	push	{r4, lr}
    99c8:	eb000017 	bl	9a2c <dev_barrier>
    99cc:	ebfffff7 	bl	99b0 <timer_get_usec_raw>
    99d0:	e1a04000 	mov	r4, r0
    99d4:	eb000014 	bl	9a2c <dev_barrier>
    99d8:	e1a00004 	mov	r0, r4
    99dc:	e8bd8010 	pop	{r4, pc}

000099e0 <delay_us>:
    99e0:	e92d4038 	push	{r3, r4, r5, lr}
    99e4:	e1a05000 	mov	r5, r0
    99e8:	ebfffff5 	bl	99c4 <timer_get_usec>
    99ec:	e1a04000 	mov	r4, r0
    99f0:	ebfffff3 	bl	99c4 <timer_get_usec>
    99f4:	e0640000 	rsb	r0, r4, r0
    99f8:	e1500005 	cmp	r0, r5
    99fc:	3afffffb 	bcc	99f0 <delay_us+0x10>
    9a00:	e8bd8038 	pop	{r3, r4, r5, pc}

00009a04 <delay_ms>:
    9a04:	e92d4008 	push	{r3, lr}
    9a08:	e3a03ffa 	mov	r3, #1000	; 0x3e8
    9a0c:	e0000093 	mul	r0, r3, r0
    9a10:	ebfffff2 	bl	99e0 <delay_us>
    9a14:	e8bd8008 	pop	{r3, pc}

00009a18 <delay_sec>:
    9a18:	e92d4008 	push	{r3, lr}
    9a1c:	e3a03ffa 	mov	r3, #1000	; 0x3e8
    9a20:	e0000093 	mul	r0, r3, r0
    9a24:	ebfffff6 	bl	9a04 <delay_ms>
    9a28:	e8bd8008 	pop	{r3, pc}

00009a2c <dev_barrier>:
    9a2c:	ea000002 	b	9a3c <dsb>

00009a30 <dmb>:
    9a30:	e3a00000 	mov	r0, #0
    9a34:	ee070fba 	mcr	15, 0, r0, cr7, cr10, {5}
    9a38:	e12fff1e 	bx	lr

00009a3c <dsb>:
    9a3c:	ee070f9a 	mcr	15, 0, r0, cr7, cr10, {4}
    9a40:	e12fff1e 	bx	lr

00009a44 <put32>:
    9a44:	e5801000 	str	r1, [r0]
    9a48:	e12fff1e 	bx	lr

00009a4c <PUT32>:
    9a4c:	e5801000 	str	r1, [r0]
    9a50:	e12fff1e 	bx	lr

00009a54 <put16>:
    9a54:	e1c010b0 	strh	r1, [r0]
    9a58:	e12fff1e 	bx	lr

00009a5c <PUT16>:
    9a5c:	e1c010b0 	strh	r1, [r0]
    9a60:	e12fff1e 	bx	lr

00009a64 <put8>:
    9a64:	e5c01000 	strb	r1, [r0]
    9a68:	e12fff1e 	bx	lr

00009a6c <PUT8>:
    9a6c:	e5c01000 	strb	r1, [r0]
    9a70:	e12fff1e 	bx	lr

00009a74 <get32>:
    9a74:	e5900000 	ldr	r0, [r0]
    9a78:	e12fff1e 	bx	lr

00009a7c <GET32>:
    9a7c:	e5900000 	ldr	r0, [r0]
    9a80:	e12fff1e 	bx	lr

00009a84 <GETPC>:
    9a84:	e1a0000e 	mov	r0, lr
    9a88:	e12fff1e 	bx	lr

00009a8c <dummy>:
    9a8c:	e12fff1e 	bx	lr

00009a90 <or_in32>:
    9a90:	e92d4070 	push	{r4, r5, r6, lr}
    9a94:	e1a04000 	mov	r4, r0
    9a98:	e1a05001 	mov	r5, r1
    9a9c:	ebfffff4 	bl	9a74 <get32>
    9aa0:	e1801005 	orr	r1, r0, r5
    9aa4:	e1a00004 	mov	r0, r4
    9aa8:	ebffffe5 	bl	9a44 <put32>
    9aac:	e8bd8070 	pop	{r4, r5, r6, pc}

00009ab0 <uart_init>:
    9ab0:	e92d4010 	push	{r4, lr}
    9ab4:	e3a01002 	mov	r1, #2
    9ab8:	e3a0000e 	mov	r0, #14
    9abc:	eb000051 	bl	9c08 <gpio_set_function>
    9ac0:	e3a01002 	mov	r1, #2
    9ac4:	e3a0000f 	mov	r0, #15
    9ac8:	eb00004e 	bl	9c08 <gpio_set_function>
    9acc:	ebffffd6 	bl	9a2c <dev_barrier>
    9ad0:	e3a01001 	mov	r1, #1
    9ad4:	e59f0064 	ldr	r0, [pc, #100]	; 9b40 <uart_init+0x90>
    9ad8:	ebffffec 	bl	9a90 <or_in32>
    9adc:	ebffffd2 	bl	9a2c <dev_barrier>
    9ae0:	e59f405c 	ldr	r4, [pc, #92]	; 9b44 <uart_init+0x94>
    9ae4:	e3a01000 	mov	r1, #0
    9ae8:	e1a00004 	mov	r0, r4
    9aec:	ebffffd4 	bl	9a44 <put32>
    9af0:	e3a01000 	mov	r1, #0
    9af4:	e59f004c 	ldr	r0, [pc, #76]	; 9b48 <uart_init+0x98>
    9af8:	ebffffd1 	bl	9a44 <put32>
    9afc:	e3a01003 	mov	r1, #3
    9b00:	e59f0044 	ldr	r0, [pc, #68]	; 9b4c <uart_init+0x9c>
    9b04:	ebffffce 	bl	9a44 <put32>
    9b08:	e3a01000 	mov	r1, #0
    9b0c:	e59f003c 	ldr	r0, [pc, #60]	; 9b50 <uart_init+0xa0>
    9b10:	ebffffcb 	bl	9a44 <put32>
    9b14:	e3a010c7 	mov	r1, #199	; 0xc7
    9b18:	e59f0034 	ldr	r0, [pc, #52]	; 9b54 <uart_init+0xa4>
    9b1c:	ebffffc8 	bl	9a44 <put32>
    9b20:	e59f1030 	ldr	r1, [pc, #48]	; 9b58 <uart_init+0xa8>
    9b24:	e59f0030 	ldr	r0, [pc, #48]	; 9b5c <uart_init+0xac>
    9b28:	ebffffc5 	bl	9a44 <put32>
    9b2c:	e3a01003 	mov	r1, #3
    9b30:	e1a00004 	mov	r0, r4
    9b34:	ebffffc2 	bl	9a44 <put32>
    9b38:	ebffffbb 	bl	9a2c <dev_barrier>
    9b3c:	e8bd8010 	pop	{r4, pc}
    9b40:	20215004 	eorcs	r5, r1, r4
    9b44:	20215060 	eorcs	r5, r1, r0, rrx
    9b48:	20215044 	eorcs	r5, r1, r4, asr #32
    9b4c:	2021504c 	eorcs	r5, r1, ip, asr #32
    9b50:	20215050 	eorcs	r5, r1, r0, asr r0
    9b54:	20215048 	eorcs	r5, r1, r8, asr #32
    9b58:	0000010e 	andeq	r0, r0, lr, lsl #2
    9b5c:	20215068 	eorcs	r5, r1, r8, rrx

00009b60 <uart_can_getc>:
    9b60:	e92d4010 	push	{r4, lr}
    9b64:	e59f0008 	ldr	r0, [pc, #8]	; 9b74 <uart_can_getc+0x14>
    9b68:	ebffffc1 	bl	9a74 <get32>
    9b6c:	e2000001 	and	r0, r0, #1
    9b70:	e8bd8010 	pop	{r4, pc}
    9b74:	20215064 	eorcs	r5, r1, r4, rrx

00009b78 <uart_can_putc>:
    9b78:	e92d4010 	push	{r4, lr}
    9b7c:	e59f0010 	ldr	r0, [pc, #16]	; 9b94 <uart_can_putc+0x1c>
    9b80:	ebffffbb 	bl	9a74 <get32>
    9b84:	e3100002 	tst	r0, #2
    9b88:	13a00001 	movne	r0, #1
    9b8c:	03a00000 	moveq	r0, #0
    9b90:	e8bd8010 	pop	{r4, pc}
    9b94:	20215064 	eorcs	r5, r1, r4, rrx

00009b98 <uart_getc>:
    9b98:	e92d4010 	push	{r4, lr}
    9b9c:	ebffffa2 	bl	9a2c <dev_barrier>
    9ba0:	ebffffee 	bl	9b60 <uart_can_getc>
    9ba4:	e3500000 	cmp	r0, #0
    9ba8:	0afffffc 	beq	9ba0 <uart_getc+0x8>
    9bac:	e59f0010 	ldr	r0, [pc, #16]	; 9bc4 <uart_getc+0x2c>
    9bb0:	ebffffaf 	bl	9a74 <get32>
    9bb4:	e6ef4070 	uxtb	r4, r0
    9bb8:	ebffff9b 	bl	9a2c <dev_barrier>
    9bbc:	e1a00004 	mov	r0, r4
    9bc0:	e8bd8010 	pop	{r4, pc}
    9bc4:	20215040 	eorcs	r5, r1, r0, asr #32

00009bc8 <uart_putc>:
    9bc8:	e92d4010 	push	{r4, lr}
    9bcc:	e1a04000 	mov	r4, r0
    9bd0:	ebffff95 	bl	9a2c <dev_barrier>
    9bd4:	ebffffe7 	bl	9b78 <uart_can_putc>
    9bd8:	e3500000 	cmp	r0, #0
    9bdc:	0afffffc 	beq	9bd4 <uart_putc+0xc>
    9be0:	e6ef1074 	uxtb	r1, r4
    9be4:	e59f0008 	ldr	r0, [pc, #8]	; 9bf4 <uart_putc+0x2c>
    9be8:	ebffff95 	bl	9a44 <put32>
    9bec:	ebffff8e 	bl	9a2c <dev_barrier>
    9bf0:	e8bd8010 	pop	{r4, pc}
    9bf4:	20215040 	eorcs	r5, r1, r0, asr #32

00009bf8 <uart_has_data>:
    9bf8:	e92d4010 	push	{r4, lr}
    9bfc:	ebffff8a 	bl	9a2c <dev_barrier>
    9c00:	ebffffd6 	bl	9b60 <uart_can_getc>
    9c04:	e8bd8010 	pop	{r4, pc}

00009c08 <gpio_set_function>:
    9c08:	e350001f 	cmp	r0, #31
    9c0c:	812fff1e 	bxhi	lr
    9c10:	e3d13007 	bics	r3, r1, #7
    9c14:	112fff1e 	bxne	lr
    9c18:	e92d4070 	push	{r4, r5, r6, lr}
    9c1c:	e1a05001 	mov	r5, r1
    9c20:	e59f3044 	ldr	r3, [pc, #68]	; 9c6c <gpio_set_function+0x64>
    9c24:	e0832093 	umull	r2, r3, r3, r0
    9c28:	e1a031a3 	lsr	r3, r3, #3
    9c2c:	e1a06003 	mov	r6, r3
    9c30:	e0833103 	add	r3, r3, r3, lsl #2
    9c34:	e1a02083 	lsl	r2, r3, #1
    9c38:	e0403002 	sub	r3, r0, r2
    9c3c:	e0834083 	add	r4, r3, r3, lsl #1
    9c40:	e2866302 	add	r6, r6, #134217728	; 0x8000000
    9c44:	e2866702 	add	r6, r6, #524288	; 0x80000
    9c48:	e1a06106 	lsl	r6, r6, #2
    9c4c:	e1a00006 	mov	r0, r6
    9c50:	ebffff89 	bl	9a7c <GET32>
    9c54:	e3a01007 	mov	r1, #7
    9c58:	e1c01411 	bic	r1, r0, r1, lsl r4
    9c5c:	e1811415 	orr	r1, r1, r5, lsl r4
    9c60:	e1a00006 	mov	r0, r6
    9c64:	ebffff78 	bl	9a4c <PUT32>
    9c68:	e8bd8070 	pop	{r4, r5, r6, pc}
    9c6c:	cccccccd 	stclgt	12, cr12, [ip], {205}	; 0xcd

00009c70 <gpio_set_output>:
    9c70:	e92d4010 	push	{r4, lr}
    9c74:	e3a01001 	mov	r1, #1
    9c78:	ebffffe2 	bl	9c08 <gpio_set_function>
    9c7c:	e8bd8010 	pop	{r4, pc}

00009c80 <gpio_set_on>:
    9c80:	e350001f 	cmp	r0, #31
    9c84:	812fff1e 	bxhi	lr
    9c88:	e92d4010 	push	{r4, lr}
    9c8c:	e3a01001 	mov	r1, #1
    9c90:	e1a01011 	lsl	r1, r1, r0
    9c94:	e59f0004 	ldr	r0, [pc, #4]	; 9ca0 <gpio_set_on+0x20>
    9c98:	ebffff6b 	bl	9a4c <PUT32>
    9c9c:	e8bd8010 	pop	{r4, pc}
    9ca0:	2020001c 	eorcs	r0, r0, ip, lsl r0

00009ca4 <gpio_set_off>:
    9ca4:	e350001f 	cmp	r0, #31
    9ca8:	812fff1e 	bxhi	lr
    9cac:	e92d4010 	push	{r4, lr}
    9cb0:	e3a01001 	mov	r1, #1
    9cb4:	e1a01011 	lsl	r1, r1, r0
    9cb8:	e59f0004 	ldr	r0, [pc, #4]	; 9cc4 <gpio_set_off+0x20>
    9cbc:	ebffff62 	bl	9a4c <PUT32>
    9cc0:	e8bd8010 	pop	{r4, pc}
    9cc4:	20200028 	eorcs	r0, r0, r8, lsr #32

00009cc8 <gpio_set_input>:
    9cc8:	e92d4010 	push	{r4, lr}
    9ccc:	e3a01000 	mov	r1, #0
    9cd0:	ebffffcc 	bl	9c08 <gpio_set_function>
    9cd4:	e8bd8010 	pop	{r4, pc}

00009cd8 <gpio_write>:
    9cd8:	e92d4010 	push	{r4, lr}
    9cdc:	e3510000 	cmp	r1, #0
    9ce0:	1a000001 	bne	9cec <gpio_write+0x14>
    9ce4:	ebffffee 	bl	9ca4 <gpio_set_off>
    9ce8:	e8bd8010 	pop	{r4, pc}
    9cec:	ebffffe3 	bl	9c80 <gpio_set_on>
    9cf0:	e8bd8010 	pop	{r4, pc}

00009cf4 <gpio_read>:
    9cf4:	e350001f 	cmp	r0, #31
    9cf8:	8a000007 	bhi	9d1c <gpio_read+0x28>
    9cfc:	e92d4010 	push	{r4, lr}
    9d00:	e200401f 	and	r4, r0, #31
    9d04:	e59f3018 	ldr	r3, [pc, #24]	; 9d24 <gpio_read+0x30>
    9d08:	e08302a0 	add	r0, r3, r0, lsr #5
    9d0c:	ebffff5a 	bl	9a7c <GET32>
    9d10:	e1a00430 	lsr	r0, r0, r4
    9d14:	e2000001 	and	r0, r0, #1
    9d18:	e8bd8010 	pop	{r4, pc}
    9d1c:	e3e00000 	mvn	r0, #0
    9d20:	e12fff1e 	bx	lr
    9d24:	20200034 	eorcs	r0, r0, r4, lsr r0

Disassembly of section .data:

00009d28 <__data_start__>:
    9d28:	00009174 	andeq	r9, r0, r4, ror r1

00009d2c <putk>:
    9d2c:	000091b0 			; <UNDEFINED> instruction: 0x000091b0

Disassembly of section .rodata:

00009d30 <__FUNCTION__.4394-0x290>:
    9d30:	52455355 	subpl	r5, r5, #1409286145	; 0x54000001
    9d34:	444f4d20 	strbmi	r4, [pc], #-3360	; 9d3c <__data_end__+0xc>
    9d38:	00000045 	andeq	r0, r0, r5, asr #32
    9d3c:	20514946 	subscs	r4, r1, r6, asr #18
    9d40:	45444f4d 	strbmi	r4, [r4, #-3917]	; 0xf4d
    9d44:	00000000 	andeq	r0, r0, r0
    9d48:	20515249 	subscs	r5, r1, r9, asr #4
    9d4c:	45444f4d 	strbmi	r4, [r4, #-3917]	; 0xf4d
    9d50:	00000000 	andeq	r0, r0, r0
    9d54:	45505553 	ldrbmi	r5, [r0, #-1363]	; 0x553
    9d58:	4f4d2052 	svcmi	0x004d2052
    9d5c:	00004544 	andeq	r4, r0, r4, asr #10
    9d60:	524f4241 	subpl	r4, pc, #268435460	; 0x10000004
    9d64:	4f4d2054 	svcmi	0x004d2054
    9d68:	00004544 	andeq	r4, r0, r4, asr #10
    9d6c:	45444e55 	strbmi	r4, [r4, #-3669]	; 0xe55
    9d70:	4f4d2046 	svcmi	0x004d2046
    9d74:	00004544 	andeq	r4, r0, r4, asr #10
    9d78:	20535953 	subscs	r5, r3, r3, asr r9
    9d7c:	45444f4d 	strbmi	r4, [r4, #-3917]	; 0xf4d
    9d80:	00000000 	andeq	r0, r0, r0
    9d84:	494e4150 	stmdbmi	lr, {r4, r6, r8, lr}^
    9d88:	73253a43 	teqvc	r5, #274432	; 0x43000
    9d8c:	3a73253a 	bcc	1cd327c <__bss_end__+0x1cc888c>
    9d90:	253a6425 	ldrcs	r6, [sl, #-1061]!	; 0x425
    9d94:	00000a73 	andeq	r0, r0, r3, ror sl
    9d98:	70632f2e 	rsbvc	r2, r3, lr, lsr #30
    9d9c:	752d7273 	strvc	r7, [sp, #-627]!	; 0x273
    9da0:	2e6c6974 	mcrcs	9, 3, r6, cr12, cr4, {3}
    9da4:	00000068 	andeq	r0, r0, r8, rrx
    9da8:	65646f6d 	strbvs	r6, [r4, #-3949]!	; 0xf6d
    9dac:	67656c5f 			; <UNDEFINED> instruction: 0x67656c5f
    9db0:	6d286c61 	stcvs	12, cr6, [r8, #-388]!	; 0xfffffe7c
    9db4:	2965646f 	stmdbcs	r5!, {r0, r1, r2, r3, r5, r6, sl, sp, lr}^
    9db8:	00000000 	andeq	r0, r0, r0
    9dbc:	494e4150 	stmdbmi	lr, {r4, r6, r8, lr}^
    9dc0:	73253a43 	teqvc	r5, #274432	; 0x43000
    9dc4:	3a73253a 	bcc	1cd32b4 <__bss_end__+0x1cc88c4>
    9dc8:	753a6425 	ldrvc	r6, [sl, #-1061]!	; 0x425
    9dcc:	6f6e6b6e 	svcvs	0x006e6b6e
    9dd0:	6d206e77 	stcvs	14, cr6, [r0, #-476]!	; 0xfffffe24
    9dd4:	3a65646f 	bcc	1962f98 <__bss_end__+0x19585a8>
    9dd8:	78253c20 	stmdavc	r5!, {r5, sl, fp, ip, sp}
    9ddc:	000a0a3e 	andeq	r0, sl, lr, lsr sl
    9de0:	74736574 	ldrbtvc	r6, [r3], #-1396	; 0x574
    9de4:	36312f73 	shsub16cc	r2, r1, r3
    9de8:	7261702d 	rsbvc	r7, r1, #45	; 0x2d
    9dec:	742d3274 	strtvc	r3, [sp], #-628	; 0x274
    9df0:	31747365 	cmncc	r4, r5, ror #6
    9df4:	0000632e 	andeq	r6, r0, lr, lsr #6
    9df8:	646e6168 	strbtvs	r6, [lr], #-360	; 0x168
    9dfc:	3d20656c 	cfstr32cc	mvfx6, [r0, #-432]!	; 0xfffffe50
    9e00:	7865203d 	stmdavc	r5!, {r0, r2, r3, r4, r5, sp}^
    9e04:	74636570 	strbtvc	r6, [r3], #-1392	; 0x570
    9e08:	685f6465 	ldmdavs	pc, {r0, r2, r5, r6, sl, sp, lr}^	; <UNPREDICTABLE>
    9e0c:	6c646e61 	stclvs	14, cr6, [r4], #-388	; 0xfffffe7c
    9e10:	00000065 	andeq	r0, r0, r5, rrx
    9e14:	253a7325 	ldrcs	r7, [sl, #-805]!	; 0x325
    9e18:	64253a73 	strtvs	r3, [r5], #-2675	; 0xa73
    9e1c:	6572703a 	ldrbvs	r7, [r2, #-58]!	; 0x3a
    9e20:	63746566 	cmnvs	r4, #427819008	; 0x19800000
    9e24:	62612068 	rsbvs	r2, r1, #104	; 0x68
    9e28:	2074726f 	rsbscs	r7, r4, pc, ror #4
    9e2c:	25207461 	strcs	r7, [r0, #-1121]!	; 0x461
    9e30:	75202c70 	strvc	r2, [r0, #-3184]!	; 0xc70
    9e34:	5f726573 	svcpl	0x00726573
    9e38:	74736574 	ldrbtvc	r6, [r3], #-1396	; 0x574
    9e3c:	25203d20 	strcs	r3, [r0, #-3360]!	; 0xd20
    9e40:	00000a70 	andeq	r0, r0, r0, ror sl
    9e44:	494e4150 	stmdbmi	lr, {r4, r6, r8, lr}^
    9e48:	73253a43 	teqvc	r5, #274432	; 0x43000
    9e4c:	3a73253a 	bcc	1cd333c <__bss_end__+0x1cc894c>
    9e50:	693a6425 	ldmdbvs	sl!, {r0, r2, r5, sl, sp, lr}
    9e54:	736f706d 	cmnvc	pc, #109	; 0x6d
    9e58:	6c626973 	stclvs	9, cr6, [r2], #-460	; 0xfffffe34
    9e5c:	73203a65 	teqvc	r0, #413696	; 0x65000
    9e60:	6c756f68 	ldclvs	15, cr6, [r5], #-416	; 0xfffffe60
    9e64:	65672064 	strbvs	r2, [r7, #-100]!	; 0x64
    9e68:	6f6e2074 	svcvs	0x006e2074
    9e6c:	68746f20 	ldmdavs	r4!, {r5, r8, r9, sl, fp, sp, lr}^
    9e70:	66207265 	strtvs	r7, [r0], -r5, ror #4
    9e74:	746c7561 	strbtvc	r7, [ip], #-1377	; 0x561
    9e78:	000a0a73 	andeq	r0, sl, r3, ror sl
    9e7c:	20746e63 	rsbscs	r6, r4, r3, ror #28
    9e80:	4e203d3d 	mcrmi	13, 1, r3, cr0, cr13, {1}
    9e84:	00000000 	andeq	r0, r0, r0
    9e88:	656e6f64 	strbvs	r6, [lr, #-3940]!	; 0xf64
    9e8c:	6e697320 	cdpvs	3, 6, cr7, cr9, cr0, {1}
    9e90:	20656c67 	rsbcs	r6, r5, r7, ror #24
    9e94:	70657473 	rsbvc	r7, r5, r3, ror r4
    9e98:	676e6970 			; <UNDEFINED> instruction: 0x676e6970
    9e9c:	6e63203a 	mcrvs	0, 3, r2, cr3, cr10, {1}
    9ea0:	64253d74 	strtvs	r3, [r5], #-3444	; 0xd74
    9ea4:	000a2121 	andeq	r2, sl, r1, lsr #2
    9ea8:	253a7325 	ldrcs	r7, [sl, #-805]!	; 0x325
    9eac:	64253a73 	strtvs	r3, [r5], #-2675	; 0xa73
    9eb0:	7465733a 	strbtvc	r7, [r5], #-826	; 0x33a
    9eb4:	676e6974 			; <UNDEFINED> instruction: 0x676e6974
    9eb8:	20707520 	rsbscs	r7, r0, r0, lsr #10
    9ebc:	696d2061 	stmdbvs	sp!, {r0, r5, r6, sp}^
    9ec0:	74616d73 	strbtvc	r6, [r1], #-3443	; 0xd73
    9ec4:	6f206863 	svcvs	0x00206863
    9ec8:	7025206e 	eorvc	r2, r5, lr, rrx
    9ecc:	0000000a 	andeq	r0, r0, sl
    9ed0:	253a7325 	ldrcs	r7, [sl, #-805]!	; 0x325
    9ed4:	64253a73 	strtvs	r3, [r5], #-2675	; 0xa73
    9ed8:	6e6f643a 	mcrvs	4, 3, r6, cr15, cr10, {1}
    9edc:	65732065 	ldrbvs	r2, [r3, #-101]!	; 0x65
    9ee0:	6e697474 	mcrvs	4, 3, r7, cr9, cr4, {3}
    9ee4:	70752067 	rsbsvc	r2, r5, r7, rrx
    9ee8:	6d206120 	stfvss	f6, [r0, #-128]!	; 0xffffff80
    9eec:	616d7369 	cmnvs	sp, r9, ror #6
    9ef0:	20686374 	rsbcs	r6, r8, r4, ror r3
    9ef4:	25206e6f 	strcs	r6, [r0, #-3695]!	; 0xe6f
    9ef8:	00000a70 	andeq	r0, r0, r0, ror sl
    9efc:	72727563 	rsbsvc	r7, r2, #415236096	; 0x18c00000
    9f00:	20746e65 	rsbscs	r6, r4, r5, ror #28
    9f04:	65646f6d 	strbvs	r6, [r4, #-3949]!	; 0xf6d
    9f08:	25203d20 	strcs	r3, [r0, #-3360]!	; 0xd20
    9f0c:	25282073 	strcs	r2, [r8, #-115]!	; 0x73
    9f10:	000a2978 	andeq	r2, sl, r8, ror r9
    9f14:	253a7325 	ldrcs	r7, [sl, #-805]!	; 0x325
    9f18:	64253a73 	strtvs	r3, [r5], #-2675	; 0xa73
    9f1c:	6f62613a 	svcvs	0x0062613a
    9f20:	74207475 	strtvc	r7, [r0], #-1141	; 0x475
    9f24:	6573206f 	ldrbvs	r2, [r3, #-111]!	; 0x6f
    9f28:	696d2074 	stmdbvs	sp!, {r2, r4, r5, r6, sp}^
    9f2c:	74616d73 	strbtvc	r6, [r1], #-3443	; 0xd73
    9f30:	62206863 	eorvs	r6, r0, #6488064	; 0x630000
    9f34:	74706b72 	ldrbtvc	r6, [r0], #-2930	; 0xb72
    9f38:	0000000a 	andeq	r0, r0, sl
    9f3c:	253a7325 	ldrcs	r7, [sl, #-805]!	; 0x325
    9f40:	64253a73 	strtvs	r3, [r5], #-2675	; 0xa73
    9f44:	7465733a 	strbtvc	r7, [r5], #-826	; 0x33a
    9f48:	73696d20 	cmnvc	r9, #32, 26	; 0x800
    9f4c:	6374616d 	cmnvs	r4, #1073741851	; 0x4000001b
    9f50:	72622068 	rsbvc	r2, r2, #104	; 0x68
    9f54:	0a74706b 	beq	1d26108 <__bss_end__+0x1d1b718>
    9f58:	00000000 	andeq	r0, r0, r0
    9f5c:	65707865 	ldrbvs	r7, [r0, #-2149]!	; 0x865
    9f60:	64657463 	strbtvs	r7, [r5], #-1123	; 0x463
    9f64:	646f6d20 	strbtvs	r6, [pc], #-3360	; 9f6c <__data_end__+0x23c>
    9f68:	203d2065 	eorscs	r2, sp, r5, rrx
    9f6c:	28207325 	stmdacs	r0!, {r0, r2, r5, r8, r9, ip, sp, lr}
    9f70:	0a297825 	beq	a6800c <__bss_end__+0xa5d61c>
    9f74:	00000000 	andeq	r0, r0, r0
    9f78:	72737063 	rsbsvc	r7, r3, #99	; 0x63
    9f7c:	646c6f5f 	strbtvs	r6, [ip], #-3935	; 0xf5f
    9f80:	203d3d20 	eorscs	r3, sp, r0, lsr #26
    9f84:	72737063 	rsbsvc	r7, r3, #99	; 0x63
    9f88:	7465675f 	strbtvc	r6, [r5], #-1887	; 0x75f
    9f8c:	00002928 	andeq	r2, r0, r8, lsr #18
    9f90:	43435553 	movtmi	r5, #13651	; 0x3553
    9f94:	3a535345 	bcc	14decb0 <__bss_end__+0x14d42c0>
    9f98:	00000000 	andeq	r0, r0, r0
    9f9c:	6d617274 	sfmvs	f7, 2, [r1, #-464]!	; 0xfffffe30
    9fa0:	696c6f70 	stmdbvs	ip!, {r4, r5, r6, r8, r9, sl, fp, sp, lr}^
    9fa4:	7220656e 	eorvc	r6, r0, #461373440	; 0x1b800000
    9fa8:	72757465 	rsbsvc	r7, r5, #1694498816	; 0x65000000
    9fac:	2064656e 	rsbcs	r6, r4, lr, ror #10
    9fb0:	63637573 	cmnvs	r3, #482344960	; 0x1cc00000
    9fb4:	66737365 	ldrbtvs	r7, [r3], -r5, ror #6
    9fb8:	796c6c75 	stmdbvc	ip!, {r0, r2, r4, r5, r6, sl, fp, sp, lr}^
    9fbc:	0000000a 	andeq	r0, r0, sl

00009fc0 <__FUNCTION__.4394>:
    9fc0:	72657375 	rsbvc	r7, r5, #-738197503	; 0xd4000001
    9fc4:	7365745f 	cmnvc	r5, #1593835520	; 0x5f000000
    9fc8:	00000074 	andeq	r0, r0, r4, ror r0

00009fcc <__FUNCTION__.4409>:
    9fcc:	6d746f6e 	ldclvs	15, cr6, [r4, #-440]!	; 0xfffffe48
    9fd0:	006e6961 	rsbeq	r6, lr, r1, ror #18

00009fd4 <__FUNCTION__.4404>:
    9fd4:	676e6973 			; <UNDEFINED> instruction: 0x676e6973
    9fd8:	735f656c 	cmpvc	pc, #108, 10	; 0x1b000000
    9fdc:	5f706574 	svcpl	0x00706574
    9fe0:	646e6168 	strbtvs	r6, [lr], #-360	; 0x168
    9fe4:	0072656c 	rsbseq	r6, r2, ip, ror #10

00009fe8 <__FUNCTION__.4375>:
    9fe8:	65646f6d 	strbvs	r6, [r4, #-3949]!	; 0xf6d
    9fec:	7465735f 	strbtvc	r7, [r5], #-863	; 0x35f
    9ff0:	00000000 	andeq	r0, r0, r0

00009ff4 <__FUNCTION__.4258>:
    9ff4:	73746962 	cmnvc	r4, #1605632	; 0x188000
    9ff8:	726c635f 	rsbvc	r6, ip, #2080374785	; 0x7c000001
    9ffc:	00000000 	andeq	r0, r0, r0

0000a000 <__FUNCTION__.4387>:
    a000:	65646f6d 	strbvs	r6, [r4, #-3949]!	; 0xf6d
    a004:	7274735f 	rsbsvc	r7, r4, #2080374785	; 0x7c000001
    a008:	00000000 	andeq	r0, r0, r0

0000a00c <__FUNCTION__.4370>:
    a00c:	65646f6d 	strbvs	r6, [r4, #-3949]!	; 0xf6d
    a010:	7465675f 	strbtvc	r6, [r5], #-1887	; 0x75f
    a014:	00000000 	andeq	r0, r0, r0

0000a018 <__FUNCTION__.4251>:
    a018:	73746962 	cmnvc	r4, #1605632	; 0x188000
    a01c:	7465675f 	strbtvc	r6, [r5], #-1887	; 0x75f
    a020:	00000000 	andeq	r0, r0, r0
    a024:	34317063 	ldrtcc	r7, [r1], #-99	; 0x63
    a028:	6265642d 	rsbvs	r6, r5, #754974720	; 0x2d000000
    a02c:	632e6775 	teqvs	lr, #30670848	; 0x1d40000
    a030:	00000000 	andeq	r0, r0, r0
    a034:	30726377 	rsbscc	r6, r2, r7, ror r3
    a038:	6765725f 			; <UNDEFINED> instruction: 0x6765725f
    a03c:	203d3d20 	eorscs	r3, sp, r0, lsr #26
    a040:	30726377 	rsbscc	r6, r2, r7, ror r3
    a044:	7465675f 	strbtvc	r6, [r5], #-1887	; 0x75f
    a048:	00002928 	andeq	r2, r0, r8, lsr #18
    a04c:	494e4150 	stmdbmi	lr, {r4, r6, r8, lr}^
    a050:	73253a43 	teqvc	r5, #274432	; 0x43000
    a054:	3a73253a 	bcc	1cd3544 <__bss_end__+0x1cc8b54>
    a058:	693a6425 	ldmdbvs	sl!, {r0, r2, r5, sl, sp, lr}
    a05c:	736f706d 	cmnvc	pc, #109	; 0x6d
    a060:	6c626973 	stclvs	9, cr6, [r2], #-460	; 0xfffffe34
    a064:	73203a65 	teqvc	r0, #413696	; 0x65000
    a068:	6c756f68 	ldclvs	15, cr6, [r5], #-416	; 0xfffffe60
    a06c:	6e6f2064 	cdpvs	0, 6, cr2, cr15, cr4, {3}
    a070:	6720796c 	strvs	r7, [r0, -ip, ror #18]!
    a074:	64207465 	strtvs	r7, [r0], #-1125	; 0x465
    a078:	66617461 	strbtvs	r7, [r1], -r1, ror #8
    a07c:	746c7561 	strbtvc	r7, [ip], #-1377	; 0x561
    a080:	000a0a73 	andeq	r0, sl, r3, ror sl
    a084:	34317063 	ldrtcc	r7, [r1], #-99	; 0x63
    a088:	6265642d 	rsbvs	r6, r5, #754974720	; 0x2d000000
    a08c:	682e6775 	stmdavs	lr!, {r0, r2, r4, r5, r6, r8, r9, sl, sp, lr}
    a090:	00000000 	andeq	r0, r0, r0
    a094:	72616677 	rsbvc	r6, r1, #124780544	; 0x7700000
    a098:	7465675f 	strbtvc	r6, [r5], #-1887	; 0x75f
    a09c:	342d2928 	strtcc	r2, [sp], #-2344	; 0x928
    a0a0:	203d3d20 	eorscs	r3, sp, r0, lsr #26
    a0a4:	00006370 	andeq	r6, r0, r0, ror r3
    a0a8:	63746177 	cmnvs	r4, #-1073741795	; 0xc000001d
    a0ac:	5f747068 	svcpl	0x00747068
    a0b0:	646e6168 	strbtvs	r6, [lr], #-360	; 0x168
    a0b4:	3072656c 	rsbscc	r6, r2, ip, ror #10
    a0b8:	00000000 	andeq	r0, r0, r0
    a0bc:	706b7262 	rsbvc	r7, fp, r2, ror #4
    a0c0:	61685f74 	smcvs	34292	; 0x85f4
    a0c4:	656c646e 	strbvs	r6, [ip, #-1134]!	; 0x46e
    a0c8:	00003072 	andeq	r3, r0, r2, ror r0
    a0cc:	494e4150 	stmdbmi	lr, {r4, r6, r8, lr}^
    a0d0:	73253a43 	teqvc	r5, #274432	; 0x43000
    a0d4:	3a73253a 	bcc	1cd35c4 <__bss_end__+0x1cc8bd4>
    a0d8:	723a6425 	eorsvc	r6, sl, #620756992	; 0x25000000
    a0dc:	72757465 	rsbsvc	r7, r5, #1694498816	; 0x65000000
    a0e0:	2064656e 	rsbcs	r6, r4, lr, ror #10
    a0e4:	20646e61 	rsbcs	r6, r4, r1, ror #28
    a0e8:	756f6873 	strbvc	r6, [pc, #-2163]!	; 987d <undefined_instruction_vector+0x15>
    a0ec:	6e20646c 	cdpvs	4, 2, cr6, cr0, cr12, {3}
    a0f0:	6820746f 	stmdavs	r0!, {r0, r1, r2, r3, r5, r6, sl, ip, sp, lr}
    a0f4:	21657661 	cmncs	r5, r1, ror #12
    a0f8:	00000a0a 	andeq	r0, r0, sl, lsl #20
    a0fc:	656c6c69 	strbvs	r6, [ip, #-3177]!	; 0xc69
    a100:	206c6167 	rsbcs	r6, ip, r7, ror #2
    a104:	74737973 	ldrbtvc	r7, [r3], #-2419	; 0x973
    a108:	63206d65 	teqvs	r0, #6464	; 0x1940
    a10c:	206c6c61 	rsbcs	r6, ip, r1, ror #24
    a110:	000a6425 	andeq	r6, sl, r5, lsr #8

0000a114 <__FUNCTION__.4393>:
    a114:	63746177 	cmnvs	r4, #-1073741795	; 0xc000001d
    a118:	5f747068 	svcpl	0x00747068
    a11c:	30746573 	rsbscc	r6, r4, r3, ror r5
    a120:	00000000 	andeq	r0, r0, r0

0000a124 <__FUNCTION__.4399>:
    a124:	61746164 	cmnvs	r4, r4, ror #2
    a128:	6f62615f 	svcvs	0x0062615f
    a12c:	765f7472 			; <UNDEFINED> instruction: 0x765f7472
    a130:	6f746365 	svcvs	0x00746365
    a134:	00000072 	andeq	r0, r0, r2, ror r0

0000a138 <__FUNCTION__.4306>:
    a138:	5f736177 	svcpl	0x00736177
    a13c:	75626564 	strbvc	r6, [r2, #-1380]!	; 0x564
    a140:	61645f67 	cmnvs	r4, r7, ror #30
    a144:	61666174 	smcvs	26132	; 0x6614
    a148:	00746c75 	rsbseq	r6, r4, r5, ror ip

0000a14c <__FUNCTION__.4443>:
    a14c:	66657270 			; <UNDEFINED> instruction: 0x66657270
    a150:	68637465 	stmdavs	r3!, {r0, r2, r5, r6, sl, ip, sp, lr}^
    a154:	6f62615f 	svcvs	0x0062615f
    a158:	765f7472 			; <UNDEFINED> instruction: 0x765f7472
    a15c:	6f746365 	svcvs	0x00746365
    a160:	00000072 	andeq	r0, r0, r2, ror r0

0000a164 <__FUNCTION__.4451>:
    a164:	5f6b7262 	svcpl	0x006b7262
    a168:	725f6f6e 	subsvc	r6, pc, #440	; 0x1b8
    a16c:	655f7465 	ldrbvs	r7, [pc, #-1125]	; 9d0f <gpio_read+0x1b>
    a170:	726f7272 	rsbvc	r7, pc, #536870919	; 0x20000007
    a174:	00000000 	andeq	r0, r0, r0
    a178:	253a7325 	ldrcs	r7, [sl, #-805]!	; 0x325
    a17c:	64253a73 	strtvs	r3, [r5], #-2675	; 0xa73
    a180:	6572703a 	ldrbvs	r7, [r2, #-58]!	; 0x3a
    a184:	63746566 	cmnvs	r4, #427819008	; 0x19800000
    a188:	62612068 	rsbvs	r2, r1, #104	; 0x68
    a18c:	2074726f 	rsbscs	r7, r4, pc, ror #4
    a190:	25207461 	strcs	r7, [r0, #-1121]!	; 0x461
    a194:	00000a70 	andeq	r0, r0, r0, ror sl
    a198:	63656863 	cmnvs	r5, #6488064	; 0x630000
    a19c:	6e692d6b 	cdpvs	13, 6, cr2, cr9, cr11, {3}
    a1a0:	6c726574 	cfldr64vs	mvdx6, [r2], #-464	; 0xfffffe30
    a1a4:	65766165 	ldrbvs	r6, [r6, #-357]!	; 0x165
    a1a8:	0000632e 	andeq	r6, r0, lr, lsr #6
    a1ac:	756f6261 	strbvc	r6, [pc, #-609]!	; 9f53 <__data_end__+0x223>
    a1b0:	6f742074 	svcvs	0x00742074
    a1b4:	69777320 	ldmdbvs	r7!, {r5, r8, r9, ip, sp, lr}^
    a1b8:	20686374 	rsbcs	r6, r8, r4, ror r3
    a1bc:	6d6f7266 	sfmvs	f7, 2, [pc, #-408]!	; a02c <__FUNCTION__.4251+0x14>
    a1c0:	20702520 	rsbscs	r2, r0, r0, lsr #10
    a1c4:	25206f74 	strcs	r6, [r0, #-3956]!	; 0xf74
    a1c8:	00000a70 	andeq	r0, r0, r0, ror sl
    a1cc:	656e6f64 	strbvs	r6, [lr, #-3940]!	; 0xf64
    a1d0:	6e757220 	cdpvs	2, 7, cr7, cr5, cr0, {1}
    a1d4:	676e696e 	strbvs	r6, [lr, -lr, ror #18]!
    a1d8:	202c4220 	eorcs	r4, ip, r0, lsr #4
    a1dc:	6e696f67 	cdpvs	15, 6, cr6, cr9, cr7, {3}
    a1e0:	6f742067 	svcvs	0x00742067
    a1e4:	74657220 	strbtvc	r7, [r5], #-544	; 0x220
    a1e8:	206e7275 	rsbcs	r7, lr, r5, ror r2
    a1ec:	41206f74 	teqmi	r0, r4, ror pc
    a1f0:	0000000a 	andeq	r0, r0, sl
    a1f4:	693e2d63 	ldmdbvs	lr!, {r0, r1, r5, r6, r8, sl, fp, sp}
    a1f8:	5f74736e 	svcpl	0x0074736e
    a1fc:	6e756f63 	cdpvs	15, 7, cr6, cr5, cr3, {3}
    a200:	203c2074 	eorscs	r2, ip, r4, ror r0
    a204:	733e2d63 	teqvc	lr, #6336	; 0x18c0
    a208:	63746977 	cmnvs	r4, #1949696	; 0x1dc000
    a20c:	6e6f5f68 	cdpvs	15, 6, cr5, cr15, cr8, {3}
    a210:	736e695f 	cmnvc	lr, #1556480	; 0x17c000
    a214:	006e5f74 	rsbeq	r5, lr, r4, ror pc
    a218:	253a7325 	ldrcs	r7, [sl, #-805]!	; 0x325
    a21c:	64253a73 	strtvs	r3, [r5], #-2675	; 0xa73
    a220:	6972743a 	ldmdbvs	r2!, {r1, r3, r4, r5, sl, ip, sp, lr}^
    a224:	253d6c61 	ldrcs	r6, [sp, #-3169]!	; 0xc61
    a228:	61203a64 	teqvs	r0, r4, ror #20
    a22c:	74756f62 	ldrbtvc	r6, [r5], #-3938	; 0xf62
    a230:	206f7420 	rsbcs	r7, pc, r0, lsr #8
    a234:	20746573 	rsbscs	r6, r4, r3, ror r5
    a238:	6d73696d 	ldclvs	9, cr6, [r3, #-436]!	; 0xfffffe4c
    a23c:	68637461 	stmdavs	r3!, {r0, r5, r6, sl, ip, sp, lr}^
    a240:	6b726220 	blvs	1ca2ac8 <__bss_end__+0x1c980d8>
    a244:	66207470 			; <UNDEFINED> instruction: 0x66207470
    a248:	4120726f 	teqmi	r0, pc, ror #4
    a24c:	0000000a 	andeq	r0, r0, sl
    a250:	4f525245 	svcmi	0x00525245
    a254:	63203a52 	teqvs	r0, #335872	; 0x52000
    a258:	6b636568 	blvs	18e3800 <__bss_end__+0x18d8e10>
    a25c:	69616620 	stmdbvs	r1!, {r5, r9, sl, sp, lr}^
    a260:	2064656c 	rsbcs	r6, r4, ip, ror #10
    a264:	6e656877 	mcrvs	8, 3, r6, cr5, cr7, {3}
    a268:	69777320 	ldmdbvs	r7!, {r5, r8, r9, ip, sp, lr}^
    a26c:	65686374 	strbvs	r6, [r8, #-884]!	; 0x374
    a270:	6e6f2064 	cdpvs	0, 6, cr2, cr15, cr4, {3}
    a274:	64646120 	strbtvs	r6, [r4], #-288	; 0x120
    a278:	73736572 	cmnvc	r3, #478150656	; 0x1c800000
    a27c:	2c702520 	cfldr64cs	mvdx2, [r0], #-128	; 0xffffff80
    a280:	74666120 	strbtvc	r6, [r6], #-288	; 0x120
    a284:	25207265 	strcs	r7, [r0, #-613]!	; 0x265
    a288:	6e692064 	cdpvs	0, 6, cr2, cr9, cr4, {3}
    a28c:	75727473 	ldrbvc	r7, [r2, #-1139]!	; 0x473
    a290:	6f697463 	svcvs	0x00697463
    a294:	000a736e 	andeq	r7, sl, lr, ror #6
    a298:	656e6f64 	strbvs	r6, [lr, #-3940]!	; 0xf64
    a29c:	64202021 	strtvs	r2, [r0], #-33	; 0x21
    a2a0:	63206469 	teqvs	r0, #1761607680	; 0x69000000
    a2a4:	736e3e2d 	cmnvc	lr, #720	; 0x2d0
    a2a8:	63746977 	cmnvs	r4, #1949696	; 0x1dc000
    a2ac:	3d736568 	cfldr64cc	mvdx6, [r3, #-416]!	; 0xfffffe60
    a2b0:	202c6425 	eorcs	r6, ip, r5, lsr #8
    a2b4:	6972746e 	ldmdbvs	r2!, {r1, r2, r3, r5, r6, sl, ip, sp, lr}^
    a2b8:	3d736c61 	ldclcc	12, cr6, [r3, #-388]!	; 0xfffffe7c
    a2bc:	202c6425 	eorcs	r6, ip, r5, lsr #8
    a2c0:	7272656e 	rsbsvc	r6, r2, #461373440	; 0x1b800000
    a2c4:	3d73726f 	lfmcc	f7, 2, [r3, #-444]!	; 0xfffffe44
    a2c8:	000a6425 	andeq	r6, sl, r5, lsr #8
    a2cc:	72737063 	rsbsvc	r7, r3, #99	; 0x63
    a2d0:	6974752d 	ldmdbvs	r4!, {r0, r2, r3, r5, r8, sl, ip, sp, lr}^
    a2d4:	00682e6c 	rsbeq	r2, r8, ip, ror #28
    a2d8:	65646f6d 	strbvs	r6, [r4, #-3949]!	; 0xf6d
    a2dc:	7465675f 	strbtvc	r6, [r5], #-1887	; 0x75f
    a2e0:	73706328 	cmnvc	r0, #40, 6	; 0xa0000000
    a2e4:	6c6f5f72 	stclvs	15, cr5, [pc], #-456	; a124 <__FUNCTION__.4399>
    a2e8:	3d202964 	stccc	9, cr2, [r0, #-400]!	; 0xfffffe70
    a2ec:	6f6d203d 	svcvs	0x006d203d
    a2f0:	675f6564 	ldrbvs	r6, [pc, -r4, ror #10]
    a2f4:	63287465 	teqvs	r8, #1694498816	; 0x65000000
    a2f8:	5f727370 	svcpl	0x00727370
    a2fc:	28746567 	ldmdacs	r4!, {r0, r1, r2, r5, r6, r8, sl, sp, lr}^
    a300:	00002929 	andeq	r2, r0, r9, lsr #18
    a304:	494e4150 	stmdbmi	lr, {r4, r6, r8, lr}^
    a308:	73253a43 	teqvc	r5, #274432	; 0x43000
    a30c:	3a73253a 	bcc	1cd37fc <__bss_end__+0x1cc8e0c>
    a310:	633a6425 	teqvs	sl, #620756992	; 0x25000000
    a314:	6b636568 	blvs	18e38bc <__bss_end__+0x18d8ecc>
    a318:	69616620 	stmdbvs	r1!, {r5, r9, sl, sp, lr}^
    a31c:	2064656c 	rsbcs	r6, r4, ip, ror #10
    a320:	75716573 	ldrbvc	r6, [r1, #-1395]!	; 0x573
    a324:	69746e65 	ldmdbvs	r4!, {r0, r2, r5, r6, r9, sl, fp, sp, lr}^
    a328:	796c6c61 	stmdbvc	ip!, {r0, r5, r6, sl, fp, sp, lr}^
    a32c:	6f63203a 	svcvs	0x0063203a
    a330:	69206564 	stmdbvs	r0!, {r2, r5, r6, r8, sl, sp, lr}
    a334:	72622073 	rsbvc	r2, r2, #115	; 0x73
    a338:	6e656b6f 	vnmulvs.f64	d22, d5, d31
    a33c:	00000a0a 	andeq	r0, r0, sl, lsl #20

0000a340 <__FUNCTION__.4431>:
    a340:	63656863 	cmnvs	r5, #6488064	; 0x630000
    a344:	65735f6b 	ldrbvs	r5, [r3, #-3947]!	; 0xf6b
    a348:	6e657571 	mcrvs	5, 3, r7, cr5, cr1, {3}
    a34c:	6c616974 	stclvs	9, cr6, [r1], #-464	; 0xfffffe30
    a350:	00000000 	andeq	r0, r0, r0

0000a354 <__FUNCTION__.4423>:
    a354:	63656863 	cmnvs	r5, #6488064	; 0x630000
    a358:	6e6f5f6b 	cdpvs	15, 6, cr5, cr15, cr11, {3}
    a35c:	73635f65 	cmnvc	r3, #404	; 0x194
    a360:	63746977 	cmnvs	r4, #1949696	; 0x1dc000
    a364:	00000068 	andeq	r0, r0, r8, rrx

0000a368 <__FUNCTION__.4416>:
    a368:	676e6973 			; <UNDEFINED> instruction: 0x676e6973
    a36c:	735f656c 	cmpvc	pc, #108, 10	; 0x1b000000
    a370:	5f706574 	svcpl	0x00706574
    a374:	646e6168 	strbtvs	r6, [lr], #-360	; 0x168
    a378:	0072656c 	rsbseq	r6, r2, ip, ror #10

0000a37c <__FUNCTION__.4396>:
    a37c:	65646f6d 	strbvs	r6, [r4, #-3949]!	; 0xf6d
    a380:	7465735f 	strbtvc	r7, [r5], #-863	; 0x35f
    a384:	00000000 	andeq	r0, r0, r0

0000a388 <__FUNCTION__.4258>:
    a388:	73746962 	cmnvc	r4, #1605632	; 0x188000
    a38c:	726c635f 	rsbvc	r6, ip, #2080374785	; 0x7c000001
    a390:	00000000 	andeq	r0, r0, r0

0000a394 <__FUNCTION__.4408>:
    a394:	65646f6d 	strbvs	r6, [r4, #-3949]!	; 0xf6d
    a398:	7274735f 	rsbsvc	r7, r4, #2080374785	; 0x7c000001
    a39c:	00000000 	andeq	r0, r0, r0

0000a3a0 <__FUNCTION__.4391>:
    a3a0:	65646f6d 	strbvs	r6, [r4, #-3949]!	; 0xf6d
    a3a4:	7465675f 	strbtvc	r6, [r5], #-1887	; 0x75f
    a3a8:	00000000 	andeq	r0, r0, r0

0000a3ac <__FUNCTION__.4251>:
    a3ac:	73746962 	cmnvc	r4, #1605632	; 0x188000
    a3b0:	7465675f 	strbtvc	r6, [r5], #-1887	; 0x75f
    a3b4:	00000000 	andeq	r0, r0, r0

0000a3b8 <__FUNCTION__.4249>:
    a3b8:	74696d65 	strbtvc	r6, [r9], #-3429	; 0xd65
    a3bc:	00000000 	andeq	r0, r0, r0

0000a3c0 <__FUNCTION__.4197>:
    a3c0:	5f697072 	svcpl	0x00697072
    a3c4:	5f746573 	svcpl	0x00746573
    a3c8:	7074756f 	rsbsvc	r7, r4, pc, ror #10
    a3cc:	00007475 	andeq	r7, r0, r5, ror r4

0000a3d0 <__FUNCTION__.4272>:
    a3d0:	705f6176 	subsvc	r6, pc, r6, ror r1	; <UNPREDICTABLE>
    a3d4:	746e6972 	strbtvc	r6, [lr], #-2418	; 0x972
    a3d8:	0000006b 	andeq	r0, r0, fp, rrx
    a3dc:	6362696c 	cmnvs	r2, #108, 18	; 0x1b0000
    a3e0:	2d61762f 	stclcs	6, cr7, [r1, #-188]!	; 0xffffff44
    a3e4:	6e697270 	mcrvs	2, 3, r7, cr9, cr0, {3}
    a3e8:	632e6b74 	teqvs	lr, #116, 22	; 0x1d000
    a3ec:	00000000 	andeq	r0, r0, r0
    a3f0:	00000030 	andeq	r0, r0, r0, lsr r0
    a3f4:	33323130 	teqcc	r2, #48, 2
    a3f8:	37363534 			; <UNDEFINED> instruction: 0x37363534
    a3fc:	00003938 	andeq	r3, r0, r8, lsr r9
    a400:	33323130 	teqcc	r2, #48, 2
    a404:	37363534 			; <UNDEFINED> instruction: 0x37363534
    a408:	62613938 	rsbvs	r3, r1, #56, 18	; 0xe0000
    a40c:	66656463 	strbtvs	r6, [r5], -r3, ror #8
    a410:	00000000 	andeq	r0, r0, r0
    a414:	00003130 	andeq	r3, r0, r0, lsr r1
    a418:	63747570 	cmnvs	r4, #112, 10	; 0x1c000000
    a41c:	0070665f 	rsbseq	r6, r0, pc, asr r6
    a420:	74646977 	strbtvc	r6, [r4], #-2423	; 0x977
    a424:	203c2068 	eorscs	r2, ip, r8, rrx
    a428:	00003233 	andeq	r3, r0, r3, lsr r2
    a42c:	494e4150 	stmdbmi	lr, {r4, r6, r8, lr}^
    a430:	73253a43 	teqvc	r5, #274432	; 0x43000
    a434:	3a73253a 	bcc	1cd3924 <__bss_end__+0x1cc8f34>
    a438:	663a6425 	ldrtvs	r6, [sl], -r5, lsr #8
    a43c:	74616f6c 	strbtvc	r6, [r1], #-3948	; 0xf6c
    a440:	746f6e20 	strbtvc	r6, [pc], #-3616	; a448 <__FUNCTION__.4272+0x78>
    a444:	616e6520 	cmnvs	lr, r0, lsr #10
    a448:	64656c62 	strbtvs	r6, [r5], #-3170	; 0xc62
    a44c:	0a212121 	beq	8528d8 <__bss_end__+0x847ee8>
    a450:	00000000 	andeq	r0, r0, r0
    a454:	6e697270 	mcrvs	2, 3, r7, cr9, cr0, {3}
    a458:	203a6b74 	eorscs	r6, sl, r4, ror fp
    a45c:	20746f6e 	rsbscs	r6, r4, lr, ror #30
    a460:	646e6168 	strbtvs	r6, [lr], #-360	; 0x168
    a464:	676e696c 	strbvs	r6, [lr, -ip, ror #18]!
    a468:	65707320 	ldrbvs	r7, [r0, #-800]!	; 0x320
    a46c:	69666963 	stmdbvs	r6!, {r0, r1, r5, r6, r8, fp, sp, lr}^
    a470:	27207265 	strcs	r7, [r0, -r5, ror #4]!
    a474:	20276325 	eorcs	r6, r7, r5, lsr #6
    a478:	63736128 	cmnvs	r3, #40, 2
    a47c:	253d6969 	ldrcs	r6, [sp, #-2409]!	; 0x969
    a480:	000a2964 	andeq	r2, sl, r4, ror #18
    a484:	494e4150 	stmdbmi	lr, {r4, r6, r8, lr}^
    a488:	73253a43 	teqvc	r5, #274432	; 0x43000
    a48c:	3a73253a 	bcc	1cd397c <__bss_end__+0x1cc8f8c>
    a490:	703a6425 	eorsvc	r6, sl, r5, lsr #8
    a494:	746e6972 	strbtvc	r6, [lr], #-2418	; 0x972
    a498:	7265206b 	rsbvc	r2, r5, #107	; 0x6b
    a49c:	0a726f72 	beq	1ca626c <__bss_end__+0x1c9b87c>
    a4a0:	0000000a 	andeq	r0, r0, sl
    a4a4:	454e4f44 	strbmi	r4, [lr, #-3908]	; 0xf44
    a4a8:	0a212121 	beq	852934 <__bss_end__+0x847f44>
    a4ac:	00000000 	andeq	r0, r0, r0

0000a4b0 <__FUNCTION__.4220>:
    a4b0:	74736166 	ldrbtvc	r6, [r3], #-358	; 0x166
    a4b4:	746e695f 	strbtvc	r6, [lr], #-2399	; 0x95f
    a4b8:	75727265 	ldrbvc	r7, [r2, #-613]!	; 0x265
    a4bc:	765f7470 			; <UNDEFINED> instruction: 0x765f7470
    a4c0:	6f746365 	svcvs	0x00746365
    a4c4:	00000072 	andeq	r0, r0, r2, ror r0
    a4c8:	494e4150 	stmdbmi	lr, {r4, r6, r8, lr}^
    a4cc:	73253a43 	teqvc	r5, #274432	; 0x43000
    a4d0:	3a73253a 	bcc	1cd39c0 <__bss_end__+0x1cc8fd0>
    a4d4:	453a6425 	ldrmi	r6, [sl, #-1061]!	; 0x425
    a4d8:	524f5252 	subpl	r5, pc, #536870917	; 0x20000005
    a4dc:	6e75203a 	mrcvs	0, 3, r2, cr5, cr10, {1}
    a4e0:	646e6168 	strbtvs	r6, [lr], #-360	; 0x168
    a4e4:	2064656c 	rsbcs	r6, r4, ip, ror #10
    a4e8:	65637865 	strbvs	r7, [r3, #-2149]!	; 0x865
    a4ec:	6f697470 	svcvs	0x00697470
    a4f0:	253c206e 	ldrcs	r2, [ip, #-110]!	; 0x6e
    a4f4:	61203e73 	teqvs	r0, r3, ror lr
    a4f8:	43502074 	cmpmi	r0, #116	; 0x74
    a4fc:	0a78253d 	beq	1e139f8 <__bss_end__+0x1e09008>
    a500:	0000000a 	andeq	r0, r0, sl
    a504:	66617473 			; <UNDEFINED> instruction: 0x66617473
    a508:	72732d66 	rsbsvc	r2, r3, #6528	; 0x1980
    a50c:	65642f63 	strbvs	r2, [r4, #-3939]!	; 0xf63
    a510:	6c756166 	ldfvse	f6, [r5], #-408	; 0xfffffe68
    a514:	61682d74 	smcvs	33492	; 0x82d4
    a518:	656c646e 	strbvs	r6, [ip, #-1134]!	; 0x46e
    a51c:	61662d72 	smcvs	25298	; 0x62d2
    a520:	632e7473 	teqvs	lr, #1929379840	; 0x73000000
    a524:	00000000 	andeq	r0, r0, r0
    a528:	74736166 	ldrbtvc	r6, [r3], #-358	; 0x166
    a52c:	00000000 	andeq	r0, r0, r0

0000a530 <__FUNCTION__.4220>:
    a530:	65736572 	ldrbvs	r6, [r3, #-1394]!	; 0x572
    a534:	65765f74 	ldrbvs	r5, [r6, #-3956]!	; 0xf74
    a538:	726f7463 	rsbvc	r7, pc, #1660944384	; 0x63000000
    a53c:	00000000 	andeq	r0, r0, r0
    a540:	66617473 			; <UNDEFINED> instruction: 0x66617473
    a544:	72732d66 	rsbsvc	r2, r3, #6528	; 0x1980
    a548:	65642f63 	strbvs	r2, [r4, #-3939]!	; 0xf63
    a54c:	6c756166 	ldfvse	f6, [r5], #-408	; 0xfffffe68
    a550:	61682d74 	smcvs	33492	; 0x82d4
    a554:	656c646e 	strbvs	r6, [ip, #-1134]!	; 0x46e
    a558:	65722d72 	ldrbvs	r2, [r2, #-3442]!	; 0xd72
    a55c:	2e746573 	mrccs	5, 3, r6, cr4, cr3, {3}
    a560:	00000063 	andeq	r0, r0, r3, rrx
    a564:	65736572 	ldrbvs	r6, [r3, #-1394]!	; 0x572
    a568:	00000074 	andeq	r0, r0, r4, ror r0

0000a56c <__FUNCTION__.4220>:
    a56c:	65646e75 	strbvs	r6, [r4, #-3701]!	; 0xe75
    a570:	656e6966 	strbvs	r6, [lr, #-2406]!	; 0x966
    a574:	6e695f64 	cdpvs	15, 6, cr5, cr9, cr4, {3}
    a578:	75727473 	ldrbvc	r7, [r2, #-1139]!	; 0x473
    a57c:	6f697463 	svcvs	0x00697463
    a580:	65765f6e 	ldrbvs	r5, [r6, #-3950]!	; 0xf6e
    a584:	726f7463 	rsbvc	r7, pc, #1660944384	; 0x63000000
    a588:	00000000 	andeq	r0, r0, r0
    a58c:	66617473 			; <UNDEFINED> instruction: 0x66617473
    a590:	72732d66 	rsbsvc	r2, r3, #6528	; 0x1980
    a594:	65642f63 	strbvs	r2, [r4, #-3939]!	; 0xf63
    a598:	6c756166 	ldfvse	f6, [r5], #-408	; 0xfffffe68
    a59c:	61682d74 	smcvs	33492	; 0x82d4
    a5a0:	656c646e 	strbvs	r6, [ip, #-1134]!	; 0x46e
    a5a4:	6e752d72 	mrcvs	13, 3, r2, cr5, cr2, {3}
    a5a8:	69666564 	stmdbvs	r6!, {r2, r5, r6, r8, sl, sp, lr}^
    a5ac:	2d64656e 	cfstr64cs	mvdx6, [r4, #-440]!	; 0xfffffe48
    a5b0:	74736e69 	ldrbtvc	r6, [r3], #-3689	; 0xe69
    a5b4:	0000632e 	andeq	r6, r0, lr, lsr #6
    a5b8:	65646e75 	strbvs	r6, [r4, #-3701]!	; 0xe75
    a5bc:	656e6966 	strbvs	r6, [lr, #-2406]!	; 0x966
    a5c0:	6e692064 	cdpvs	0, 6, cr2, cr9, cr4, {3}
    a5c4:	00007473 	andeq	r7, r0, r3, ror r4

Disassembly of section .bss:

0000a5c8 <__bss_start__>:
    a5c8:	00000000 	andeq	r0, r0, r0

0000a5cc <cnt>:
    a5cc:	00000000 	andeq	r0, r0, r0

0000a5d0 <expected_handle>:
    a5d0:	00000000 	andeq	r0, r0, r0

0000a5d4 <watchpt_handler0>:
    a5d4:	00000000 	andeq	r0, r0, r0

0000a5d8 <brkpt_handler0>:
    a5d8:	00000000 	andeq	r0, r0, r0

0000a5dc <brk_verbose_p>:
    a5dc:	00000000 	andeq	r0, r0, r0

0000a5e0 <nfaults.4398>:
    a5e0:	00000000 	andeq	r0, r0, r0

0000a5e4 <init_p.4404>:
    a5e4:	00000000 	andeq	r0, r0, r0

0000a5e8 <checker>:
    a5e8:	00000000 	andeq	r0, r0, r0

0000a5ec <expected_handle>:
    a5ec:	00000000 	andeq	r0, r0, r0

0000a5f0 <buf.4189>:
	...

Disassembly of section .ARM.attributes:

00000000 <.ARM.attributes>:
   0:	00002a41 	andeq	r2, r0, r1, asr #20
   4:	61656100 	cmnvs	r5, r0, lsl #2
   8:	01006962 	tsteq	r0, r2, ror #18
   c:	00000020 	andeq	r0, r0, r0, lsr #32
  10:	4b5a3605 	blmi	168d82c <__bss_end__+0x1682e3c>
  14:	08070600 	stmdaeq	r7, {r9, sl}
  18:	12010901 	andne	r0, r1, #16384	; 0x4000
  1c:	15011404 	strne	r1, [r1, #-1028]	; 0x404
  20:	18031701 	stmdane	r3, {r0, r8, r9, sl, ip}
  24:	22011a01 	andcs	r1, r1, #4096	; 0x1000
  28:	Address 0x0000000000000028 is out of bounds.


Disassembly of section .comment:

00000000 <.comment>:
   0:	3a434347 	bcc	10d0d24 <__bss_end__+0x10c6334>
   4:	4e472820 	cdpmi	8, 4, cr2, cr7, cr0, {1}
   8:	34202955 	strtcc	r2, [r0], #-2389	; 0x955
   c:	332e382e 	teqcc	lr, #3014656	; 0x2e0000
  10:	43434700 	movtmi	r4, #14080	; 0x3700
  14:	3128203a 	teqcc	r8, sl, lsr r0
  18:	2e363a35 	mrccs	10, 1, r3, cr6, cr5, {1}
  1c:	2b312e33 	blcs	c4b8f0 <__bss_end__+0xc40f00>
  20:	326e7673 	rsbcc	r7, lr, #120586240	; 0x7300000
  24:	33303335 	teqcc	r0, #-738197504	; 0xd4000000
  28:	62312d39 	eorsvs	r2, r1, #3648	; 0xe40
  2c:	646c6975 	strbtvs	r6, [ip], #-2421	; 0x975
  30:	36202931 			; <UNDEFINED> instruction: 0x36202931
  34:	312e332e 	teqcc	lr, lr, lsr #6
  38:	31303220 	teqcc	r0, r0, lsr #4
  3c:	32363037 	eorscc	r3, r6, #55	; 0x37
  40:	Address 0x0000000000000040 is out of bounds.


Disassembly of section .debug_info:

00000000 <.debug_info>:
       0:	00000af0 	strdeq	r0, [r0], -r0	; <UNPREDICTABLE>
       4:	00000004 	andeq	r0, r0, r4
       8:	01040000 	mrseq	r0, (UNDEF: 4)
       c:	0000014b 	andeq	r0, r0, fp, asr #2
      10:	00021b01 	andeq	r1, r2, r1, lsl #22
      14:	00006400 	andeq	r6, r0, r0, lsl #8
      18:	00802000 	addeq	r2, r0, r0
      1c:	0004fc00 	andeq	pc, r4, r0, lsl #24
      20:	00000000 	andeq	r0, r0, r0
      24:	05040200 	streq	r0, [r4, #-512]	; 0x200
      28:	00746e69 	rsbseq	r6, r4, r9, ror #28
      2c:	c2070403 	andgt	r0, r7, #50331648	; 0x3000000
      30:	03000001 	movweq	r0, #1
      34:	00e50601 	rsceq	r0, r5, r1, lsl #12
      38:	02030000 	andeq	r0, r3, #0
      3c:	00023705 	andeq	r3, r2, r5, lsl #14
      40:	05040300 	streq	r0, [r4, #-768]	; 0x300
      44:	00000200 	andeq	r0, r0, r0, lsl #4
      48:	fb050803 	blx	14205e <__bss_end__+0x13766e>
      4c:	03000001 	movweq	r0, #1
      50:	00e30801 	rsceq	r0, r3, r1, lsl #16
      54:	02030000 	andeq	r0, r3, #0
      58:	00004c07 	andeq	r4, r0, r7, lsl #24
      5c:	01170400 	tsteq	r7, r0, lsl #8
      60:	34060000 	strcc	r0, [r6], #-0
      64:	00000068 	andeq	r0, r0, r8, rrx
      68:	bd070403 	cfstrslt	mvf0, [r7, #-12]
      6c:	03000001 	movweq	r0, #1
      70:	01b80708 			; <UNDEFINED> instruction: 0x01b80708
      74:	04030000 	streq	r0, [r3], #-0
      78:	0001de07 	andeq	sp, r1, r7, lsl #28
      7c:	03040500 	movweq	r0, #17664	; 0x4500
      80:	00ec0801 	rsceq	r0, ip, r1, lsl #16
      84:	04060000 	streq	r0, [r6], #-0
      88:	0000008c 	andeq	r0, r0, ip, lsl #1
      8c:	00007f07 	andeq	r7, r0, r7, lsl #30
      90:	007f0800 	rsbseq	r0, pc, r0, lsl #16
      94:	00a10000 	adceq	r0, r1, r0
      98:	76090000 	strvc	r0, [r9], -r0
      9c:	07000000 	streq	r0, [r0, -r0]
      a0:	01d40400 	bicseq	r0, r4, r0, lsl #8
      a4:	8a040000 	bhi	1000ac <__bss_end__+0xf56bc>
      a8:	000000ac 	andeq	r0, r0, ip, lsr #1
      ac:	00b20406 	adcseq	r0, r2, r6, lsl #8
      b0:	c70a0000 	strgt	r0, [sl, -r0]
      b4:	0b000000 	bleq	bc <__code_start__-0x7f44>
      b8:	000000c7 	andeq	r0, r0, r7, asr #1
      bc:	00005d0b 	andeq	r5, r0, fp, lsl #26
      c0:	005d0b00 	subseq	r0, sp, r0, lsl #22
      c4:	06000000 	streq	r0, [r0], -r0
      c8:	00005d04 	andeq	r5, r0, r4, lsl #26
      cc:	02410c00 	subeq	r0, r1, #0, 24
      d0:	a6040000 	strge	r0, [r4], -r0
      d4:	0000005d 	andeq	r0, r0, sp, asr r0
      d8:	0000e903 	andeq	lr, r0, r3, lsl #18
      dc:	65720d00 	ldrbvs	r0, [r2, #-3328]!	; 0xd00
      e0:	a6040074 			; <UNDEFINED> instruction: 0xa6040074
      e4:	0000005d 	andeq	r0, r0, sp, asr r0
      e8:	024a0c00 	subeq	r0, sl, #0, 24
      ec:	07010000 	streq	r0, [r1, -r0]
      f0:	00000025 	andeq	r0, r0, r5, lsr #32
      f4:	00010503 	andeq	r0, r1, r3, lsl #10
      f8:	01cf0e00 	biceq	r0, pc, r0, lsl #28
      fc:	07010000 	streq	r0, [r1, -r0]
     100:	0000002c 	andeq	r0, r0, ip, lsr #32
     104:	02550c00 	subseq	r0, r5, #0, 24
     108:	a9040000 	stmdbge	r4, {}	; <UNPREDICTABLE>
     10c:	0000002c 	andeq	r0, r0, ip, lsr #32
     110:	00011f03 	andeq	r1, r1, r3, lsl #30
     114:	00720d00 	rsbseq	r0, r2, r0, lsl #26
     118:	002caa04 	eoreq	sl, ip, r4, lsl #20
     11c:	0f000000 	svceq	0x00000000
     120:	000000c5 	andeq	r0, r0, r5, asr #1
     124:	3703c304 	strcc	ip, [r3, -r4, lsl #6]
     128:	0e000001 	cdpeq	0, 0, cr0, cr0, cr1, {0}
     12c:	0000005f 	andeq	r0, r0, pc, asr r0
     130:	0025c304 	eoreq	ip, r5, r4, lsl #6
     134:	0c000000 	stceq	0, cr0, [r0], {-0}
     138:	00000275 	andeq	r0, r0, r5, ror r2
     13c:	005d2605 	subseq	r2, sp, r5, lsl #12
     140:	53030000 	movwpl	r0, #12288	; 0x3000
     144:	10000001 	andne	r0, r0, r1
     148:	00000026 	andeq	r0, r0, r6, lsr #32
     14c:	005d2705 	subseq	r2, sp, r5, lsl #14
     150:	0c000000 	stceq	0, cr0, [r0], {-0}
     154:	00000000 	andeq	r0, r0, r0
     158:	005d0f01 	subseq	r0, sp, r1, lsl #30
     15c:	87030000 	strhi	r0, [r3, -r0]
     160:	0e000001 	cdpeq	0, 0, cr0, cr0, cr1, {0}
     164:	00000026 	andeq	r0, r0, r6, lsr #32
     168:	005d0f01 	subseq	r0, sp, r1, lsl #30
     16c:	cf100000 	svcgt	0x00100000
     170:	01000001 	tsteq	r0, r1
     174:	00002c10 	andeq	r2, r0, r0, lsl ip
     178:	012a1100 	teqeq	sl, r0, lsl #2
     17c:	01970000 	orrseq	r0, r7, r0
     180:	00000000 	andeq	r0, r0, r0
     184:	08000000 	stmdaeq	r0, {}	; <UNPREDICTABLE>
     188:	0000007f 	andeq	r0, r0, pc, ror r0
     18c:	00000197 	muleq	r0, r7, r1
     190:	00007609 	andeq	r7, r0, r9, lsl #12
     194:	07000800 	streq	r0, [r0, -r0, lsl #16]
     198:	00000187 	andeq	r0, r0, r7, lsl #3
     19c:	00001d0c 	andeq	r1, r0, ip, lsl #26
     1a0:	5d1c0200 	lfmpl	f0, 4, [ip, #-0]
     1a4:	03000000 	movweq	r0, #0
     1a8:	000001e0 	andeq	r0, r0, r0, ror #3
     1ac:	02007812 	andeq	r7, r0, #1179648	; 0x120000
     1b0:	00005d1c 	andeq	r5, r0, ip, lsl sp
     1b4:	626c1200 	rsbvs	r1, ip, #0, 4
     1b8:	2c1c0200 	lfmcs	f0, 4, [ip], {-0}
     1bc:	12000000 	andne	r0, r0, #0
     1c0:	02006275 	andeq	r6, r0, #1342177287	; 0x50000007
     1c4:	00002c1c 	andeq	r2, r0, ip, lsl ip
     1c8:	012a1100 	teqeq	sl, r0, lsl #2
     1cc:	01e00000 	mvneq	r0, r0
     1d0:	001d0000 	andseq	r0, sp, r0
     1d4:	6e0d0000 	cdpvs	0, 0, cr0, cr13, cr0, {0}
     1d8:	2c1f0200 	lfmcs	f0, 4, [pc], {-0}
     1dc:	00000000 	andeq	r0, r0, r0
     1e0:	00018707 	andeq	r8, r1, r7, lsl #14
     1e4:	002b1300 	eoreq	r1, fp, r0, lsl #6
     1e8:	18010000 	stmdane	r1, {}	; <UNPREDICTABLE>
     1ec:	00000086 	andeq	r0, r0, r6, lsl #1
     1f0:	00008020 	andeq	r8, r0, r0, lsr #32
     1f4:	00000158 	andeq	r0, r0, r8, asr r1
     1f8:	03439c01 	movteq	r9, #15361	; 0x3c01
     1fc:	26140000 	ldrcs	r0, [r4], -r0
     200:	01000000 	mrseq	r0, (UNDEF: 0)
     204:	00005d18 	andeq	r5, r0, r8, lsl sp
     208:	00000000 	andeq	r0, r0, r0
     20c:	012a1500 	teqeq	sl, r0, lsl #10
     210:	03430000 	movteq	r0, #12288	; 0x3000
     214:	03050000 	movweq	r0, #20480	; 0x5000
     218:	0000a000 	andeq	sl, r0, r0
     21c:	00015316 	andeq	r5, r1, r6, lsl r3
     220:	00802c00 	addeq	r2, r0, r0, lsl #24
     224:	00006c00 	andeq	r6, r0, r0, lsl #24
     228:	fa190100 	blx	640630 <__bss_end__+0x635c40>
     22c:	17000002 	strne	r0, [r0, -r2]
     230:	00000163 	andeq	r0, r0, r3, ror #2
     234:	000000dc 	ldrdeq	r0, [r0], -ip
     238:	00802c18 	addeq	r2, r0, r8, lsl ip
     23c:	00006c00 	andeq	r6, r0, r0, lsl #24
     240:	016e1900 	cmneq	lr, r0, lsl #18
     244:	791a0000 	ldmdbvc	sl, {}	; <UNPREDICTABLE>
     248:	05000001 	streq	r0, [r0, #-1]
     24c:	00a00c03 	adceq	r0, r0, r3, lsl #24
     250:	019c1600 	orrseq	r1, ip, r0, lsl #12
     254:	802c0000 	eorhi	r0, ip, r0
     258:	00040000 	andeq	r0, r4, r0
     25c:	10010000 	andne	r0, r1, r0
     260:	00000295 	muleq	r0, r5, r2
     264:	0001bf1b 	andeq	fp, r1, fp, lsl pc
     268:	b51b0400 	ldrlt	r0, [fp, #-1024]	; 0x400
     26c:	00000001 	andeq	r0, r0, r1
     270:	0001ac17 	andeq	sl, r1, r7, lsl ip
     274:	0000dc00 	andeq	sp, r0, r0, lsl #24
     278:	802c1800 	eorhi	r1, ip, r0, lsl #16
     27c:	00040000 	andeq	r0, r4, r0
     280:	d61c0000 	ldrle	r0, [ip], -r0
     284:	05000001 	streq	r0, [r0, #-1]
     288:	0001c91a 	andeq	ip, r1, sl, lsl r9
     28c:	18030500 	stmdane	r3, {r8, sl}
     290:	000000a0 	andeq	r0, r0, r0, lsr #1
     294:	00e91600 	rsceq	r1, r9, r0, lsl #12
     298:	80300000 	eorshi	r0, r0, r0
     29c:	003c0000 	eorseq	r0, ip, r0
     2a0:	11010000 	mrsne	r0, (UNDEF: 1)
     2a4:	000002ae 	andeq	r0, r0, lr, lsr #5
     2a8:	0000f91d 	andeq	pc, r0, sp, lsl r9	; <UNPREDICTABLE>
     2ac:	781e0000 	ldmdavc	lr, {}	; <UNPREDICTABLE>
     2b0:	72000080 	andvc	r0, r0, #128	; 0x80
     2b4:	1f00000a 	svcne	0x0000000a
     2b8:	00008094 	muleq	r0, r4, r0
     2bc:	00000a79 	andeq	r0, r0, r9, ror sl
     2c0:	000002ef 	andeq	r0, r0, pc, ror #5
     2c4:	01530120 	cmpeq	r3, r0, lsr #2
     2c8:	52012041 	andpl	r2, r1, #65	; 0x41
     2cc:	a00c0305 	andge	r0, ip, r5, lsl #6
     2d0:	01200000 	teqeq	r0, r0
     2d4:	98030551 	stmdals	r3, {r0, r4, r6, r8, sl}
     2d8:	2000009d 	mulcs	r0, sp, r0
     2dc:	03055001 	movweq	r5, #20481	; 0x5001
     2e0:	00009d84 	andeq	r9, r0, r4, lsl #27
     2e4:	007d0220 	rsbseq	r0, sp, r0, lsr #4
     2e8:	9da80305 	stcls	3, cr0, [r8, #20]!
     2ec:	1e000000 	cdpne	0, 0, cr0, cr0, cr0, {0}
     2f0:	00008098 	muleq	r0, r8, r0
     2f4:	00000a8f 	andeq	r0, r0, pc, lsl #21
     2f8:	141e0000 	ldrne	r0, [lr], #-0
     2fc:	72000081 	andvc	r0, r0, #129	; 0x81
     300:	1f00000a 	svcne	0x0000000a
     304:	0000812c 	andeq	r8, r0, ip, lsr #2
     308:	00000a79 	andeq	r0, r0, r9, ror sl
     30c:	00000339 	andeq	r0, r0, r9, lsr r3
     310:	02530120 	subseq	r0, r3, #32, 2
     314:	01202108 	teqeq	r0, r8, lsl #2
     318:	00030552 	andeq	r0, r3, r2, asr r5
     31c:	200000a0 	andcs	r0, r0, r0, lsr #1
     320:	03055101 	movweq	r5, #20737	; 0x5101
     324:	00009d98 	muleq	r0, r8, sp
     328:	05500120 	ldrbeq	r0, [r0, #-288]	; 0x120
     32c:	009dbc03 	addseq	fp, sp, r3, lsl #24
     330:	7d022000 	stcvc	0, cr2, [r2, #-0]
     334:	00740200 	rsbseq	r0, r4, r0, lsl #4
     338:	81301e00 	teqhi	r0, r0, lsl #28
     33c:	0a8f0000 	beq	fe3c0344 <__bss_end__+0xfe3b5954>
     340:	07000000 	streq	r0, [r0, -r0]
     344:	00000187 	andeq	r0, r0, r7, lsl #3
     348:	00012021 	andeq	r2, r1, r1, lsr #32
     34c:	780e0300 	stmdavc	lr, {r8, r9}
     350:	98000081 	stmdals	r0, {r0, r7}
     354:	01000000 	mrseq	r0, (UNDEF: 0)
     358:	0003dd9c 	muleq	r3, ip, sp
     35c:	01071400 	tsteq	r7, r0, lsl #8
     360:	0e030000 	cdpeq	0, 0, cr0, cr3, cr0, {0}
     364:	0000007d 	andeq	r0, r0, sp, ror r0
     368:	000001b8 			; <UNDEFINED> instruction: 0x000001b8
     36c:	00012a15 	andeq	r2, r1, r5, lsl sl
     370:	0003ed00 	andeq	lr, r3, r0, lsl #26
     374:	c0030500 	andgt	r0, r3, r0, lsl #10
     378:	2200009f 	andcs	r0, r0, #159	; 0x9f
     37c:	00000000 	andeq	r0, r0, r0
     380:	00000392 	muleq	r0, r2, r3
     384:	03006923 	movweq	r6, #2339	; 0x923
     388:	00002510 	andeq	r2, r0, r0, lsl r5
     38c:	0001f200 	andeq	pc, r1, r0, lsl #4
     390:	941e0000 	ldrls	r0, [lr], #-0
     394:	72000081 	andvc	r0, r0, #129	; 0x81
     398:	1f00000a 	svcne	0x0000000a
     39c:	000081b0 			; <UNDEFINED> instruction: 0x000081b0
     3a0:	00000a79 	andeq	r0, r0, r9, ror sl
     3a4:	000003d3 	ldrdeq	r0, [r0], -r3
     3a8:	01530120 	cmpeq	r3, r0, lsr #2
     3ac:	5201203f 	andpl	r2, r1, #63	; 0x3f
     3b0:	9fc00305 	svcls	0x00c00305
     3b4:	01200000 	teqeq	r0, r0
     3b8:	e0030551 	and	r0, r3, r1, asr r5
     3bc:	2000009d 	mulcs	r0, sp, r0
     3c0:	03055001 	movweq	r5, #20481	; 0x5001
     3c4:	00009d84 	andeq	r9, r0, r4, lsl #27
     3c8:	007d0220 	rsbseq	r0, sp, r0, lsr #4
     3cc:	9df80305 	ldclls	3, cr0, [r8, #20]!
     3d0:	1e000000 	cdpne	0, 0, cr0, cr0, cr0, {0}
     3d4:	000081b4 			; <UNDEFINED> instruction: 0x000081b4
     3d8:	00000a8f 	andeq	r0, r0, pc, lsl #21
     3dc:	007f0800 	rsbseq	r0, pc, r0, lsl #16
     3e0:	03ed0000 	mvneq	r0, #0
     3e4:	76090000 	strvc	r0, [r9], -r0
     3e8:	09000000 	stmdbeq	r0, {}	; <UNPREDICTABLE>
     3ec:	03dd0700 	bicseq	r0, sp, #0, 14
     3f0:	37240000 	strcc	r0, [r4, -r0]!
     3f4:	03000001 	movweq	r0, #1
     3f8:	00821017 	addeq	r1, r2, r7, lsl r0
     3fc:	00016c00 	andeq	r6, r1, r0, lsl #24
     400:	029c0100 	addseq	r0, ip, #0, 2
     404:	14000006 	strne	r0, [r0], #-6
     408:	00000232 	andeq	r0, r0, r2, lsr r2
     40c:	00c71703 	sbceq	r1, r7, r3, lsl #14
     410:	02100000 	andseq	r0, r0, #0
     414:	70250000 	eorvc	r0, r5, r0
     418:	17030063 	strne	r0, [r3, -r3, rrx]
     41c:	0000005d 	andeq	r0, r0, sp, asr r0
     420:	00000231 	andeq	r0, r0, r1, lsr r2
     424:	00043414 	andeq	r3, r4, r4, lsl r4
     428:	5d170300 	ldcpl	3, cr0, [r7, #-0]
     42c:	5d000000 	stcpl	0, cr0, [r0, #-0]
     430:	15000002 	strne	r0, [r0, #-2]
     434:	0000012a 	andeq	r0, r0, sl, lsr #2
     438:	00000612 	andeq	r0, r0, r2, lsl r6
     43c:	9fd40305 	svcls	0x00d40305
     440:	05160000 	ldreq	r0, [r6, #-0]
     444:	4c000001 	stcmi	0, cr0, [r0], {1}
     448:	08000082 	stmdaeq	r0, {r1, r7}
     44c:	03000000 	movweq	r0, #0
     450:	0004881a 	andeq	r8, r4, sl, lsl r8
     454:	824c1800 	subhi	r1, ip, #0, 16
     458:	00080000 	andeq	r0, r8, r0
     45c:	15190000 	ldrne	r0, [r9, #-0]
     460:	26000001 	strcs	r0, [r0], -r1
     464:	000000cd 	andeq	r0, r0, sp, asr #1
     468:	0000824c 	andeq	r8, r0, ip, asr #4
     46c:	00000004 	andeq	r0, r0, r4
     470:	4c18aa04 	ldcmi	10, cr10, [r8], {4}
     474:	04000082 	streq	r0, [r0], #-130	; 0x82
     478:	27000000 	strcs	r0, [r0, -r0]
     47c:	000000dd 	ldrdeq	r0, [r0], -sp
     480:	0000027e 	andeq	r0, r0, lr, ror r2
     484:	00000000 	andeq	r0, r0, r0
     488:	00824c1f 	addeq	r4, r2, pc, lsl ip
     48c:	000a7900 	andeq	r7, sl, r0, lsl #18
     490:	0004c700 	andeq	ip, r4, r0, lsl #14
     494:	53012000 	movwpl	r2, #4096	; 0x1000
     498:	01204801 	teqeq	r0, r1, lsl #16
     49c:	d4030552 	strle	r0, [r3], #-1362	; 0x552
     4a0:	2000009f 	mulcs	r0, pc, r0	; <UNPREDICTABLE>
     4a4:	03055101 	movweq	r5, #20737	; 0x5101
     4a8:	00009de0 	andeq	r9, r0, r0, ror #27
     4ac:	05500120 	ldrbeq	r0, [r0, #-288]	; 0x120
     4b0:	009e1403 	addseq	r1, lr, r3, lsl #8
     4b4:	7d022000 	stcvc	0, cr2, [r2, #-0]
     4b8:	78030504 	stmdavc	r3, {r2, r8, sl}
     4bc:	20000081 	andcs	r0, r0, r1, lsl #1
     4c0:	02007d02 	andeq	r7, r0, #2, 26	; 0x80
     4c4:	1e000074 	mcrne	0, 0, r0, cr0, cr4, {3}
     4c8:	00008260 	andeq	r8, r0, r0, ror #4
     4cc:	00000a72 	andeq	r0, r0, r2, ror sl
     4d0:	0082741f 	addeq	r7, r2, pc, lsl r4
     4d4:	000a7900 	andeq	r7, sl, r0, lsl #18
     4d8:	0004fe00 	andeq	pc, r4, r0, lsl #28
     4dc:	53012000 	movwpl	r2, #4096	; 0x1000
     4e0:	01204b01 	teqeq	r0, r1, lsl #22
     4e4:	d4030552 	strle	r0, [r3], #-1362	; 0x552
     4e8:	2000009f 	mulcs	r0, pc, r0	; <UNPREDICTABLE>
     4ec:	03055101 	movweq	r5, #20737	; 0x5101
     4f0:	00009de0 	andeq	r9, r0, r0, ror #27
     4f4:	05500120 	ldrbeq	r0, [r0, #-288]	; 0x120
     4f8:	009e4403 	addseq	r4, lr, r3, lsl #8
     4fc:	781e0000 	ldmdavc	lr, {}	; <UNPREDICTABLE>
     500:	8f000082 	svchi	0x00000082
     504:	1e00000a 	cdpne	0, 0, cr0, cr0, cr10, {0}
     508:	000082a0 	andeq	r8, r0, r0, lsr #5
     50c:	00000a72 	andeq	r0, r0, r2, ror sl
     510:	0082bc1f 	addeq	fp, r2, pc, lsl ip
     514:	000a7900 	andeq	r7, sl, r0, lsl #18
     518:	00054800 	andeq	r4, r5, r0, lsl #16
     51c:	53012000 	movwpl	r2, #4096	; 0x1000
     520:	01204e01 	teqeq	r0, r1, lsl #28
     524:	d4030552 	strle	r0, [r3], #-1362	; 0x552
     528:	2000009f 	mulcs	r0, pc, r0	; <UNPREDICTABLE>
     52c:	03055101 	movweq	r5, #20737	; 0x5101
     530:	00009de0 	andeq	r9, r0, r0, ror #27
     534:	05500120 	ldrbeq	r0, [r0, #-288]	; 0x120
     538:	009d8403 	addseq	r8, sp, r3, lsl #8
     53c:	7d022000 	stcvc	0, cr2, [r2, #-0]
     540:	7c030500 	cfstr32vc	mvfx0, [r3], {-0}
     544:	0000009e 	muleq	r0, lr, r0
     548:	0082c01e 	addeq	ip, r2, lr, lsl r0
     54c:	000a8f00 	andeq	r8, sl, r0, lsl #30
     550:	82d01f00 	sbcshi	r1, r0, #0, 30
     554:	0a790000 	beq	1e4055c <__bss_end__+0x1e35b6c>
     558:	05680000 	strbeq	r0, [r8, #-0]!
     55c:	01200000 	teqeq	r0, r0
     560:	88030550 	stmdahi	r3, {r4, r6, r8, sl}
     564:	0000009e 	muleq	r0, lr, r0
     568:	0082d81f 	addeq	sp, r2, pc, lsl r8
     56c:	000a9600 	andeq	r9, sl, r0, lsl #12
     570:	00057c00 	andeq	r7, r5, r0, lsl #24
     574:	50012000 	andpl	r2, r1, r0
     578:	00007402 	andeq	r7, r0, r2, lsl #8
     57c:	0083041f 	addeq	r0, r3, pc, lsl r4
     580:	000a7900 	andeq	r7, sl, r0, lsl #18
     584:	0005b200 	andeq	fp, r5, r0, lsl #4
     588:	53012000 	movwpl	r2, #4096	; 0x1000
     58c:	20220802 	eorcs	r0, r2, r2, lsl #16
     590:	03055201 	movweq	r5, #20993	; 0x5201
     594:	00009fd4 	ldrdeq	r9, [r0], -r4
     598:	05510120 	ldrbeq	r0, [r1, #-288]	; 0x120
     59c:	009de003 	addseq	lr, sp, r3
     5a0:	50012000 	andpl	r2, r1, r0
     5a4:	9ea80305 	cdpls	3, 10, cr0, cr8, cr5, {0}
     5a8:	02200000 	eoreq	r0, r0, #0
     5ac:	7402007d 	strvc	r0, [r2], #-125	; 0x7d
     5b0:	101f0000 	andsne	r0, pc, r0
     5b4:	a7000083 	strge	r0, [r0, -r3, lsl #1]
     5b8:	cf00000a 	svcgt	0x0000000a
     5bc:	20000005 	andcs	r0, r0, r5
     5c0:	03055101 	movweq	r5, #20737	; 0x5101
     5c4:	00008210 	andeq	r8, r0, r0, lsl r2
     5c8:	02500120 	subseq	r0, r0, #32, 2
     5cc:	28000074 	stmdacs	r0, {r2, r4, r5, r6}
     5d0:	00008338 	andeq	r8, r0, r8, lsr r3
     5d4:	00000a79 	andeq	r0, r0, r9, ror sl
     5d8:	02530120 	subseq	r0, r3, #32, 2
     5dc:	01202408 	teqeq	r0, r8, lsl #8
     5e0:	d4030552 	strle	r0, [r3], #-1362	; 0x552
     5e4:	2000009f 	mulcs	r0, pc, r0	; <UNPREDICTABLE>
     5e8:	03055101 	movweq	r5, #20737	; 0x5101
     5ec:	00009de0 	andeq	r9, r0, r0, ror #27
     5f0:	05500120 	ldrbeq	r0, [r0, #-288]	; 0x120
     5f4:	009ed003 	addseq	sp, lr, r3
     5f8:	7d022000 	stcvc	0, cr2, [r2, #-0]
     5fc:	00740200 	rsbseq	r0, r4, r0, lsl #4
     600:	7f080000 	svcvc	0x00080000
     604:	12000000 	andne	r0, r0, #0
     608:	09000006 	stmdbeq	r0, {r1, r2}
     60c:	00000076 	andeq	r0, r0, r6, ror r0
     610:	02070013 	andeq	r0, r7, #19
     614:	0c000006 	stceq	0, cr0, [r0], {6}
     618:	000000d1 	ldrdeq	r0, [r0], -r1
     61c:	005d1401 	subseq	r1, sp, r1, lsl #8
     620:	4b030000 	blmi	c0628 <__bss_end__+0xb5c38>
     624:	0e000006 	cdpeq	0, 0, cr0, cr0, cr6, {0}
     628:	00000026 	andeq	r0, r0, r6, lsr #32
     62c:	005d1401 	subseq	r1, sp, r1, lsl #8
     630:	cf0e0000 	svcgt	0x000e0000
     634:	01000001 	tsteq	r0, r1
     638:	00002c14 	andeq	r2, r0, r4, lsl ip
     63c:	012a1100 	teqeq	sl, r0, lsl #2
     640:	064b0000 	strbeq	r0, [fp], -r0
     644:	00d10000 	sbcseq	r0, r1, r0
     648:	07000000 	streq	r0, [r0, -r0]
     64c:	00000187 	andeq	r0, r0, r7, lsl #3
     650:	00010e0c 	andeq	r0, r1, ip, lsl #28
     654:	5d250200 	sfmpl	f0, 4, [r5, #-0]
     658:	03000000 	movweq	r0, #0
     65c:	0000069f 	muleq	r0, pc, r6	; <UNPREDICTABLE>
     660:	02007812 	andeq	r7, r0, #1179648	; 0x120000
     664:	00005d25 	andeq	r5, r0, r5, lsr #26
     668:	626c1200 	rsbvs	r1, ip, #0, 4
     66c:	2c250200 	sfmcs	f0, 4, [r5], #-0
     670:	12000000 	andne	r0, r0, #0
     674:	02006275 	andeq	r6, r0, #1342177287	; 0x50000007
     678:	00002c25 	andeq	r2, r0, r5, lsr #24
     67c:	012a1100 	teqeq	sl, r0, lsl #2
     680:	069f0000 	ldreq	r0, [pc], r0
     684:	010e0000 	mrseq	r0, (UNDEF: 14)
     688:	6e0d0000 	cdpvs	0, 0, cr0, cr13, cr0, {0}
     68c:	2c280200 	sfmcs	f0, 4, [r8], #-0
     690:	10000000 	andne	r0, r0, r0
     694:	00000216 	andeq	r0, r0, r6, lsl r2
     698:	002c2a02 	eoreq	r2, ip, r2, lsl #20
     69c:	07000000 	streq	r0, [r0, -r0]
     6a0:	00000187 	andeq	r0, r0, r7, lsl #3
     6a4:	0000bd21 	andeq	fp, r0, r1, lsr #26
     6a8:	7c280300 	stcvc	3, cr0, [r8], #-0
     6ac:	a0000083 	andge	r0, r0, r3, lsl #1
     6b0:	01000001 	tsteq	r0, r1
     6b4:	000a2a9c 	muleq	sl, ip, sl
     6b8:	00da1000 	sbcseq	r1, sl, r0
     6bc:	30030000 	andcc	r0, r3, r0
     6c0:	0000005d 	andeq	r0, r0, sp, asr r0
     6c4:	00012a15 	andeq	r2, r1, r5, lsl sl
     6c8:	000a2a00 	andeq	r2, sl, r0, lsl #20
     6cc:	cc030500 	cfstr32gt	mvfx0, [r3], {-0}
     6d0:	1600009f 			; <UNDEFINED> instruction: 0x1600009f
     6d4:	0000011f 	andeq	r0, r0, pc, lsl r1
     6d8:	0000838c 	andeq	r8, r0, ip, lsl #7
     6dc:	0000000c 	andeq	r0, r0, ip
     6e0:	06ed2e03 	strbteq	r2, [sp], r3, lsl #28
     6e4:	2b1b0000 	blcs	6c06ec <__bss_end__+0x6b5cfc>
     6e8:	01000001 	tsteq	r0, r1
     6ec:	01371600 	teqeq	r7, r0, lsl #12
     6f0:	83980000 	orrshi	r0, r8, #0
     6f4:	00040000 	andeq	r0, r4, r0
     6f8:	30030000 	andcc	r0, r3, r0
     6fc:	00000714 	andeq	r0, r0, r4, lsl r7
     700:	00839818 	addeq	r9, r3, r8, lsl r8
     704:	00000400 	andeq	r0, r0, r0, lsl #8
     708:	01472700 	cmpeq	r7, r0, lsl #14
     70c:	02910000 	addseq	r0, r1, #0
     710:	00000000 	andeq	r0, r0, r0
     714:	00011f16 	andeq	r1, r1, r6, lsl pc
     718:	00840400 	addeq	r0, r4, r0, lsl #8
     71c:	00000c00 	andeq	r0, r0, r0, lsl #24
     720:	2e390300 	cdpcs	3, 3, cr0, cr9, cr0, {0}
     724:	1b000007 	blne	748 <__code_start__-0x78b8>
     728:	0000012b 	andeq	r0, r0, fp, lsr #2
     72c:	17160000 	ldrne	r0, [r6, -r0]
     730:	18000006 	stmdane	r0, {r1, r2}
     734:	04000084 	streq	r0, [r0], #-132	; 0x84
     738:	03000000 	movweq	r0, #0
     73c:	0007ac3b 	andeq	sl, r7, fp, lsr ip
     740:	06321b00 	ldrteq	r1, [r2], -r0, lsl #22
     744:	17100000 	ldrne	r0, [r0, -r0]
     748:	00000627 	andeq	r0, r0, r7, lsr #12
     74c:	000002a4 	andeq	r0, r0, r4, lsr #5
     750:	00841818 	addeq	r1, r4, r8, lsl r8
     754:	00000400 	andeq	r0, r0, r0, lsl #8
     758:	063d1a00 	ldrteq	r1, [sp], -r0, lsl #20
     75c:	03050000 	movweq	r0, #20480	; 0x5000
     760:	00009fe8 	andeq	r9, r0, r8, ror #31
     764:	00065026 	andeq	r5, r6, r6, lsr #32
     768:	00841800 	addeq	r1, r4, r0, lsl #16
     76c:	00000400 	andeq	r0, r0, r0, lsl #8
     770:	1b160100 	blne	580b78 <__bss_end__+0x576188>
     774:	00000673 	andeq	r0, r0, r3, ror r6
     778:	06691b04 	strbteq	r1, [r9], -r4, lsl #22
     77c:	17000000 	strne	r0, [r0, -r0]
     780:	00000660 	andeq	r0, r0, r0, ror #12
     784:	000002a4 	andeq	r0, r0, r4, lsr #5
     788:	00841818 	addeq	r1, r4, r8, lsl r8
     78c:	00000400 	andeq	r0, r0, r0, lsl #8
     790:	068a1c00 	streq	r1, [sl], r0, lsl #24
     794:	1c050000 	stcne	0, cr0, [r5], {-0}
     798:	00000693 	muleq	r0, r3, r6
     79c:	067d1a1f 			; <UNDEFINED> instruction: 0x067d1a1f
     7a0:	03050000 	movweq	r0, #20480	; 0x5000
     7a4:	00009ff4 	strdeq	r9, [r0], -r4
     7a8:	00000000 	andeq	r0, r0, r0
     7ac:	00013716 	andeq	r3, r1, r6, lsl r7
     7b0:	00844000 	addeq	r4, r4, r0
     7b4:	00000400 	andeq	r0, r0, r0, lsl #8
     7b8:	cf3f0300 	svcgt	0x003f0300
     7bc:	18000007 	stmdane	r0, {r0, r1, r2}
     7c0:	00008440 	andeq	r8, r0, r0, asr #8
     7c4:	00000004 	andeq	r0, r0, r4
     7c8:	00014719 	andeq	r4, r1, r9, lsl r7
     7cc:	16000000 	strne	r0, [r0], -r0
     7d0:	00000137 	andeq	r0, r0, r7, lsr r1
     7d4:	00008444 	andeq	r8, r0, r4, asr #8
     7d8:	00000004 	andeq	r0, r0, r4
     7dc:	07f64003 	ldrbeq	r4, [r6, r3]!
     7e0:	44180000 	ldrmi	r0, [r8], #-0
     7e4:	04000084 	streq	r0, [r0], #-132	; 0x84
     7e8:	27000000 	strcs	r0, [r0, -r0]
     7ec:	00000147 	andeq	r0, r0, r7, asr #2
     7f0:	000002b7 			; <UNDEFINED> instruction: 0x000002b7
     7f4:	37160000 	ldrcc	r0, [r6, -r0]
     7f8:	5c000001 	stcpl	0, cr0, [r0], {1}
     7fc:	04000084 	streq	r0, [r0], #-132	; 0x84
     800:	03000000 	movweq	r0, #0
     804:	00081d42 	andeq	r1, r8, r2, asr #26
     808:	845c1800 	ldrbhi	r1, [ip], #-2048	; 0x800
     80c:	00040000 	andeq	r0, r4, r0
     810:	47270000 	strmi	r0, [r7, -r0]!
     814:	ca000001 	bgt	820 <__code_start__-0x77e0>
     818:	00000002 	andeq	r0, r0, r2
     81c:	83881e00 	orrhi	r1, r8, #0, 28
     820:	0abd0000 	beq	fef40828 <__bss_end__+0xfef35e38>
     824:	8c1e0000 	ldchi	0, cr0, [lr], {-0}
     828:	c4000083 	strgt	r0, [r0], #-131	; 0x83
     82c:	1f00000a 	svcne	0x0000000a
     830:	000083a4 	andeq	r8, r0, r4, lsr #7
     834:	000001e5 	andeq	r0, r0, r5, ror #3
     838:	00000843 	andeq	r0, r0, r3, asr #16
     83c:	02500120 	subseq	r0, r0, #32, 2
     840:	1f000074 	svcne	0x00000074
     844:	000083b4 			; <UNDEFINED> instruction: 0x000083b4
     848:	00000a79 	andeq	r0, r0, r9, ror sl
     84c:	00000860 	andeq	r0, r0, r0, ror #16
     850:	02520120 	subseq	r0, r2, #32, 2
     854:	01200074 	teqeq	r0, r4, ror r0
     858:	fc030550 	stc2	5, cr0, [r3], {80}	; 0x50
     85c:	0000009e 	muleq	r0, lr, r0
     860:	0083d41f 	addeq	sp, r3, pc, lsl r4
     864:	000a7900 	andeq	r7, sl, r0, lsl #18
     868:	00088f00 	andeq	r8, r8, r0, lsl #30
     86c:	53012000 	movwpl	r2, #4096	; 0x1000
     870:	20340802 	eorscs	r0, r4, r2, lsl #16
     874:	03055201 	movweq	r5, #20993	; 0x5201
     878:	00009fcc 	andeq	r9, r0, ip, asr #31
     87c:	05510120 	ldrbeq	r0, [r1, #-288]	; 0x120
     880:	009de003 	addseq	lr, sp, r3
     884:	50012000 	andpl	r2, r1, r0
     888:	9f140305 	svcls	0x00140305
     88c:	1f000000 	svcne	0x00000000
     890:	000083e0 	andeq	r8, r0, r0, ror #7
     894:	00000aa7 	andeq	r0, r0, r7, lsr #21
     898:	000008ab 	andeq	r0, r0, fp, lsr #17
     89c:	05510120 	ldrbeq	r0, [r1, #-288]	; 0x120
     8a0:	00821003 	addeq	r1, r2, r3
     8a4:	50012000 	andpl	r2, r1, r0
     8a8:	1f003001 	svcne	0x00003001
     8ac:	00008404 	andeq	r8, r0, r4, lsl #8
     8b0:	00000a79 	andeq	r0, r0, r9, ror sl
     8b4:	000008da 	ldrdeq	r0, [r0], -sl
     8b8:	02530120 	subseq	r0, r3, #32, 2
     8bc:	01203608 	teqeq	r0, r8, lsl #12
     8c0:	cc030552 	cfstr32gt	mvfx0, [r3], {82}	; 0x52
     8c4:	2000009f 	mulcs	r0, pc, r0	; <UNPREDICTABLE>
     8c8:	03055101 	movweq	r5, #20737	; 0x5101
     8cc:	00009de0 	andeq	r9, r0, r0, ror #27
     8d0:	05500120 	ldrbeq	r0, [r0, #-288]	; 0x120
     8d4:	009f3c03 	addseq	r3, pc, r3, lsl #24
     8d8:	281f0000 	ldmdacs	pc, {}	; <UNPREDICTABLE>
     8dc:	cb000084 	blgt	af4 <__code_start__-0x750c>
     8e0:	0500000a 	streq	r0, [r0, #-10]
     8e4:	20000009 	andcs	r0, r0, r9
     8e8:	03055201 	movweq	r5, #20993	; 0x5201
     8ec:	0000a5d0 	ldrdeq	sl, [r0], -r0
     8f0:	05510120 	ldrbeq	r0, [r1, #-288]	; 0x120
     8f4:	00817803 	addeq	r7, r1, r3, lsl #16
     8f8:	50012000 	andpl	r2, r1, r0
     8fc:	09007407 	stmdbeq	r0, {r0, r1, r2, sl, ip, sp, lr}
     900:	21401ae0 	smlalttcs	r1, r0, r0, sl
     904:	84301f00 	ldrthi	r1, [r0], #-3840	; 0xf00
     908:	01e50000 	mvneq	r0, r0
     90c:	09190000 	ldmdbeq	r9, {}	; <UNPREDICTABLE>
     910:	01200000 	teqeq	r0, r0
     914:	00740250 	rsbseq	r0, r4, r0, asr r2
     918:	84401f00 	strbhi	r1, [r0], #-3840	; 0xf00
     91c:	0a790000 	beq	1e40924 <__bss_end__+0x1e35f34>
     920:	09360000 	ldmdbeq	r6!, {}	; <UNPREDICTABLE>
     924:	01200000 	teqeq	r0, r0
     928:	00740252 	rsbseq	r0, r4, r2, asr r2
     92c:	05500120 	ldrbeq	r0, [r0, #-288]	; 0x120
     930:	009f5c03 	addseq	r5, pc, r3, lsl #24
     934:	4c1e0000 	ldcmi	0, cr0, [lr], {-0}
     938:	e5000084 	str	r0, [r0, #-132]	; 0x84
     93c:	1f000001 	svcne	0x00000001
     940:	0000845c 	andeq	r8, r0, ip, asr r4
     944:	00000a79 	andeq	r0, r0, r9, ror sl
     948:	0000095c 	andeq	r0, r0, ip, asr r9
     94c:	02520120 	subseq	r0, r2, #32, 2
     950:	01200074 	teqeq	r0, r4, ror r0
     954:	fc030550 	stc2	5, cr0, [r3], {80}	; 0x50
     958:	0000009e 	muleq	r0, lr, r0
     95c:	00846c1e 	addeq	r6, r4, lr, lsl ip
     960:	000a7200 	andeq	r7, sl, r0, lsl #4
     964:	84881f00 	strhi	r1, [r8], #3840	; 0xf00
     968:	0a790000 	beq	1e40970 <__bss_end__+0x1e35f80>
     96c:	099e0000 	ldmibeq	lr, {}	; <UNPREDICTABLE>
     970:	01200000 	teqeq	r0, r0
     974:	42080253 	andmi	r0, r8, #805306373	; 0x30000005
     978:	05520120 	ldrbeq	r0, [r2, #-288]	; 0x120
     97c:	009fcc03 	addseq	ip, pc, r3, lsl #24
     980:	51012000 	mrspl	r2, (UNDEF: 1)
     984:	9de00305 	stclls	3, cr0, [r0, #20]!
     988:	01200000 	teqeq	r0, r0
     98c:	84030550 	strhi	r0, [r3], #-1360	; 0x550
     990:	2000009d 	mulcs	r0, sp, r0
     994:	05007d02 	streq	r7, [r0, #-3330]	; 0xd02
     998:	009f7803 	addseq	r7, pc, r3, lsl #16
     99c:	8c1e0000 	ldchi	0, cr0, [lr], {-0}
     9a0:	8f000084 	svchi	0x00000084
     9a4:	1e00000a 	cdpne	0, 0, cr0, cr0, cr10, {0}
     9a8:	000084a4 	andeq	r8, r0, r4, lsr #9
     9ac:	00000a72 	andeq	r0, r0, r2, ror sl
     9b0:	0084c01f 	addeq	ip, r4, pc, lsl r0
     9b4:	000a7900 	andeq	r7, sl, r0, lsl #18
     9b8:	0009e900 	andeq	lr, r9, r0, lsl #18
     9bc:	53012000 	movwpl	r2, #4096	; 0x1000
     9c0:	20430802 	subcs	r0, r3, r2, lsl #16
     9c4:	03055201 	movweq	r5, #20993	; 0x5201
     9c8:	00009fcc 	andeq	r9, r0, ip, asr #31
     9cc:	05510120 	ldrbeq	r0, [r1, #-288]	; 0x120
     9d0:	009de003 	addseq	lr, sp, r3
     9d4:	50012000 	andpl	r2, r1, r0
     9d8:	9d840305 	stcls	3, cr0, [r4, #20]
     9dc:	02200000 	eoreq	r0, r0, #0
     9e0:	0305007d 	movweq	r0, #20605	; 0x507d
     9e4:	00009e7c 	andeq	r9, r0, ip, ror lr
     9e8:	84c41e00 	strbhi	r1, [r4], #3584	; 0xe00
     9ec:	0a8f0000 	beq	fe3c09f4 <__bss_end__+0xfe3b6004>
     9f0:	cc1f0000 	ldcgt	0, cr0, [pc], {-0}
     9f4:	79000084 	stmdbvc	r0, {r2, r7}
     9f8:	0900000a 	stmdbeq	r0, {r1, r3}
     9fc:	2000000a 	andcs	r0, r0, sl
     a00:	03055001 	movweq	r5, #20481	; 0x5001
     a04:	00009f90 	muleq	r0, r0, pc	; <UNPREDICTABLE>
     a08:	84d41f00 	ldrbhi	r1, [r4], #3840	; 0xf00
     a0c:	0a790000 	beq	1e40a14 <__bss_end__+0x1e36024>
     a10:	0a200000 	beq	800a18 <__bss_end__+0x7f6028>
     a14:	01200000 	teqeq	r0, r0
     a18:	9c030550 	cfstr32ls	mvfx0, [r3], {80}	; 0x50
     a1c:	0000009f 	muleq	r0, pc, r0	; <UNPREDICTABLE>
     a20:	0084d81e 	addeq	sp, r4, lr, lsl r8
     a24:	000a8f00 	andeq	r8, sl, r0, lsl #30
     a28:	91070000 	mrsls	r0, (UNDEF: 7)
     a2c:	29000000 	stmdbcs	r0, {}	; <UNPREDICTABLE>
     a30:	0000029b 	muleq	r0, fp, r2
     a34:	0a400803 	beq	1002a48 <__bss_end__+0xff8058>
     a38:	03050000 	movweq	r0, #20480	; 0x5000
     a3c:	0000a5c8 	andeq	sl, r0, r8, asr #11
     a40:	0000252a 	andeq	r2, r0, sl, lsr #10
     a44:	6e632b00 	vmulvs.f64	d18, d3, d0
     a48:	08030074 	stmdaeq	r3, {r2, r4, r5, r6}
     a4c:	00000a40 	andeq	r0, r0, r0, asr #20
     a50:	a5cc0305 	strbge	r0, [ip, #773]	; 0x305
     a54:	fe290000 	cdp2	0, 2, cr0, cr9, cr0, {0}
     a58:	03000000 	movweq	r0, #0
     a5c:	00007d0a 	andeq	r7, r0, sl, lsl #26
     a60:	d0030500 	andle	r0, r3, r0, lsl #10
     a64:	2c0000a5 	stccs	0, cr0, [r0], {165}	; 0xa5
     a68:	0000028d 	andeq	r0, r0, sp, lsl #5
     a6c:	0025c204 	eoreq	ip, r5, r4, lsl #4
     a70:	7e2d0000 	cdpvc	0, 2, cr0, cr13, cr0, {0}
     a74:	07000002 	streq	r0, [r0, -r2]
     a78:	05632e1e 	strbeq	r2, [r3, #-3614]!	; 0xe1e
     a7c:	29070000 	stmdbcs	r7, {}	; <UNPREDICTABLE>
     a80:	00000025 	andeq	r0, r0, r5, lsr #32
     a84:	00000a8f 	andeq	r0, r0, pc, lsl #21
     a88:	0000860b 	andeq	r8, r0, fp, lsl #12
     a8c:	2d002f00 	stccs	15, cr2, [r0, #-0]
     a90:	000000f1 	strdeq	r0, [r0], -r1
     a94:	34306507 	ldrtcc	r6, [r0], #-1287	; 0x507
     a98:	04000000 	streq	r0, [r0], #-0
     a9c:	000aa7e3 	andeq	sl, sl, r3, ror #15
     aa0:	005d0b00 	subseq	r0, sp, r0, lsl #22
     aa4:	30000000 	andcc	r0, r0, r0
     aa8:	00000009 	andeq	r0, r0, r9
     aac:	0abdd904 	beq	fef76ec4 <__bss_end__+0xfef6c4d4>
     ab0:	5d0b0000 	stcpl	0, cr0, [fp, #-0]
     ab4:	0b000000 	bleq	abc <__code_start__-0x7544>
     ab8:	000000a1 	andeq	r0, r0, r1, lsr #1
     abc:	02692d00 	rsbeq	r2, r9, #0, 26
     ac0:	90040000 	andls	r0, r4, r0
     ac4:	0002092d 	andeq	r0, r2, sp, lsr #18
     ac8:	308d0700 	addcc	r0, sp, r0, lsl #14
     acc:	000001e7 	andeq	r0, r0, r7, ror #3
     ad0:	0ae6f304 	beq	ff9bd6e8 <__bss_end__+0xff9b2cf8>
     ad4:	5d0b0000 	stcpl	0, cr0, [fp, #-0]
     ad8:	0b000000 	bleq	ae0 <__code_start__-0x7520>
     adc:	00000ae6 	andeq	r0, r0, r6, ror #21
     ae0:	00007d0b 	andeq	r7, r0, fp, lsl #26
     ae4:	04060000 	streq	r0, [r6], #-0
     ae8:	00000aec 	andeq	r0, r0, ip, ror #21
     aec:	007d0b31 	rsbseq	r0, sp, r1, lsr fp
     af0:	00000000 	andeq	r0, r0, r0
     af4:	00000bd7 	ldrdeq	r0, [r0], -r7
     af8:	02720004 	rsbseq	r0, r2, #4
     afc:	01040000 	mrseq	r0, (UNDEF: 4)
     b00:	0000014b 	andeq	r0, r0, fp, asr #2
     b04:	0002dc01 	andeq	sp, r2, r1, lsl #24
     b08:	00006400 	andeq	r6, r0, r0, lsl #8
     b0c:	00851c00 	addeq	r1, r5, r0, lsl #24
     b10:	00036800 	andeq	r6, r3, r0, lsl #16
     b14:	00021d00 	andeq	r1, r2, r0, lsl #26
     b18:	05040200 	streq	r0, [r4, #-512]	; 0x200
     b1c:	00746e69 	rsbseq	r6, r4, r9, ror #28
     b20:	c2070403 	andgt	r0, r7, #50331648	; 0x3000000
     b24:	03000001 	movweq	r0, #1
     b28:	00e50601 	rsceq	r0, r5, r1, lsl #12
     b2c:	02030000 	andeq	r0, r3, #0
     b30:	00023705 	andeq	r3, r2, r5, lsl #14
     b34:	05040300 	streq	r0, [r4, #-768]	; 0x300
     b38:	00000200 	andeq	r0, r0, r0, lsl #4
     b3c:	fb050803 	blx	142b52 <__bss_end__+0x138162>
     b40:	03000001 	movweq	r0, #1
     b44:	00e30801 	rsceq	r0, r3, r1, lsl #16
     b48:	02030000 	andeq	r0, r3, #0
     b4c:	00004c07 	andeq	r4, r0, r7, lsl #24
     b50:	01170400 	tsteq	r7, r0, lsl #8
     b54:	34030000 	strcc	r0, [r3], #-0
     b58:	00000068 	andeq	r0, r0, r8, rrx
     b5c:	bd070403 	cfstrslt	mvf0, [r7, #-12]
     b60:	03000001 	movweq	r0, #1
     b64:	01b80708 			; <UNDEFINED> instruction: 0x01b80708
     b68:	04030000 	streq	r0, [r3], #-0
     b6c:	0001de07 	andeq	sp, r1, r7, lsl #28
     b70:	03040500 	movweq	r0, #17664	; 0x4500
     b74:	00ec0801 	rsceq	r0, ip, r1, lsl #16
     b78:	04060000 	streq	r0, [r6], #-0
     b7c:	0000008c 	andeq	r0, r0, ip, lsl #1
     b80:	00007f07 	andeq	r7, r0, r7, lsl #30
     b84:	01d40400 	bicseq	r0, r4, r0, lsl #8
     b88:	8a020000 	bhi	80b90 <__bss_end__+0x761a0>
     b8c:	0000009c 	muleq	r0, ip, r0
     b90:	00a20406 	adceq	r0, r2, r6, lsl #8
     b94:	b7080000 	strlt	r0, [r8, -r0]
     b98:	09000000 	stmdbeq	r0, {}	; <UNPREDICTABLE>
     b9c:	000000b7 	strheq	r0, [r0], -r7
     ba0:	00005d09 	andeq	r5, r0, r9, lsl #26
     ba4:	005d0900 	subseq	r0, sp, r0, lsl #18
     ba8:	06000000 	streq	r0, [r0], -r0
     bac:	00005d04 	andeq	r5, r0, r4, lsl #26
     bb0:	03cb0a00 	biceq	r0, fp, #0, 20
     bb4:	5f020000 	svcpl	0x00020000
     bb8:	0000005d 	andeq	r0, r0, sp, asr r0
     bbc:	0000d903 	andeq	sp, r0, r3, lsl #18
     bc0:	65720b00 	ldrbvs	r0, [r2, #-2816]!	; 0xb00
     bc4:	5f020074 	svcpl	0x00020074
     bc8:	0000005d 	andeq	r0, r0, sp, asr r0
     bcc:	02410a00 	subeq	r0, r1, #0, 20
     bd0:	a6020000 	strge	r0, [r2], -r0
     bd4:	0000005d 	andeq	r0, r0, sp, asr r0
     bd8:	0000f503 	andeq	pc, r0, r3, lsl #10
     bdc:	65720b00 	ldrbvs	r0, [r2, #-2816]!	; 0xb00
     be0:	a6020074 			; <UNDEFINED> instruction: 0xa6020074
     be4:	0000005d 	andeq	r0, r0, sp, asr r0
     be8:	03a90a00 			; <UNDEFINED> instruction: 0x03a90a00
     bec:	70020000 	andvc	r0, r2, r0
     bf0:	0000002c 	andeq	r0, r0, ip, lsr #32
     bf4:	00010f03 	andeq	r0, r1, r3, lsl #30
     bf8:	00720c00 	rsbseq	r0, r2, r0, lsl #24
     bfc:	005d7002 	subseq	r7, sp, r2
     c00:	0a000000 	beq	c08 <__code_start__-0x73f8>
     c04:	000002fb 	strdeq	r0, [r0], -fp
     c08:	005d1801 	subseq	r1, sp, r1, lsl #16
     c0c:	2b030000 	blcs	c0c14 <__bss_end__+0xb6224>
     c10:	0b000001 	bleq	c1c <__code_start__-0x73e4>
     c14:	00746572 	rsbseq	r6, r4, r2, ror r5
     c18:	005d1801 	subseq	r1, sp, r1, lsl #16
     c1c:	0d000000 	stceq	0, cr0, [r0, #-0]
     c20:	0000041b 	andeq	r0, r0, fp, lsl r4
     c24:	41031e01 	tstmi	r3, r1, lsl #28
     c28:	0c000001 	stceq	0, cr0, [r0], {1}
     c2c:	1e010076 	mcrne	0, 0, r0, cr1, cr6, {3}
     c30:	0000005d 	andeq	r0, r0, sp, asr r0
     c34:	033e0d00 	teqeq	lr, #0, 26
     c38:	26010000 	strcs	r0, [r1], -r0
     c3c:	00015703 	andeq	r5, r1, r3, lsl #14
     c40:	00760c00 	rsbseq	r0, r6, r0, lsl #24
     c44:	005d2601 	subseq	r2, sp, r1, lsl #12
     c48:	0d000000 	stceq	0, cr0, [r0, #-0]
     c4c:	000003e3 	andeq	r0, r0, r3, ror #7
     c50:	6d030d01 	stcvs	13, cr0, [r3, #-4]
     c54:	0c000001 	stceq	0, cr0, [r0], {1}
     c58:	0d010076 	stceq	0, cr0, [r1, #-472]	; 0xfffffe28
     c5c:	0000005d 	andeq	r0, r0, sp, asr r0
     c60:	03890a00 	orreq	r0, r9, #0, 20
     c64:	66020000 	strvs	r0, [r2], -r0
     c68:	0000002c 	andeq	r0, r0, ip, lsr #32
     c6c:	00018903 	andeq	r8, r1, r3, lsl #18
     c70:	03660e00 	cmneq	r6, #0, 28
     c74:	67020000 	strvs	r0, [r2, -r0]
     c78:	0000005d 	andeq	r0, r0, sp, asr r0
     c7c:	03ff0a00 	mvnseq	r0, #0, 20
     c80:	56020000 	strpl	r0, [r2], -r0
     c84:	0000005d 	andeq	r0, r0, sp, asr r0
     c88:	0001a503 	andeq	sl, r1, r3, lsl #10
     c8c:	65720b00 	ldrbvs	r0, [r2, #-2816]!	; 0xb00
     c90:	56020074 			; <UNDEFINED> instruction: 0x56020074
     c94:	0000005d 	andeq	r0, r0, sp, asr r0
     c98:	03700a00 	cmneq	r0, #0, 20
     c9c:	63020000 	movwvs	r0, #8192	; 0x2000
     ca0:	0000005d 	andeq	r0, r0, sp, asr r0
     ca4:	0001c103 	andeq	ip, r1, r3, lsl #2
     ca8:	65720b00 	ldrbvs	r0, [r2, #-2816]!	; 0xb00
     cac:	63020074 	movwvs	r0, #8308	; 0x2074
     cb0:	0000005d 	andeq	r0, r0, sp, asr r0
     cb4:	02e90d00 	rsceq	r0, r9, #0, 26
     cb8:	32010000 	andcc	r0, r1, #0
     cbc:	0001d703 	andeq	sp, r1, r3, lsl #14
     cc0:	00760c00 	rsbseq	r0, r6, r0, lsl #24
     cc4:	005d3201 	subseq	r3, sp, r1, lsl #4
     cc8:	0a000000 	beq	cd0 <__code_start__-0x7330>
     ccc:	00000358 	andeq	r0, r0, r8, asr r3
     cd0:	005d8d01 	subseq	r8, sp, r1, lsl #26
     cd4:	f3030000 	vhadd.u8	d0, d3, d0
     cd8:	0b000001 	bleq	ce4 <__code_start__-0x731c>
     cdc:	00746572 	rsbseq	r6, r4, r2, ror r5
     ce0:	005d8d01 	subseq	r8, sp, r1, lsl #26
     ce4:	0d000000 	stceq	0, cr0, [r0, #-0]
     ce8:	0000031a 	andeq	r0, r0, sl, lsl r3
     cec:	09038e01 	stmdbeq	r3, {r0, r9, sl, fp, pc}
     cf0:	0c000002 	stceq	0, cr0, [r0], {2}
     cf4:	8e010076 	mcrhi	0, 0, r0, cr1, cr6, {3}
     cf8:	0000005d 	andeq	r0, r0, sp, asr r0
     cfc:	039b0d00 	orrseq	r0, fp, #0, 26
     d00:	8c010000 	stchi	0, cr0, [r1], {-0}
     d04:	00021f03 	andeq	r1, r2, r3, lsl #30
     d08:	00760c00 	rsbseq	r0, r6, r0, lsl #24
     d0c:	005d8c01 	subseq	r8, sp, r1, lsl #24
     d10:	0a000000 	beq	d18 <__code_start__-0x72e8>
     d14:	00000255 	andeq	r0, r0, r5, asr r2
     d18:	002ca902 	eoreq	sl, ip, r2, lsl #18
     d1c:	39030000 	stmdbcc	r3, {}	; <UNPREDICTABLE>
     d20:	0b000002 	bleq	d30 <__code_start__-0x72d0>
     d24:	aa020072 	bge	80ef4 <__bss_end__+0x76504>
     d28:	0000002c 	andeq	r0, r0, ip, lsr #32
     d2c:	036f0a00 	cmneq	pc, #0, 20
     d30:	97020000 	strls	r0, [r2, -r0]
     d34:	0000005d 	andeq	r0, r0, sp, asr r0
     d38:	00025503 	andeq	r5, r2, r3, lsl #10
     d3c:	65720b00 	ldrbvs	r0, [r2, #-2816]!	; 0xb00
     d40:	97020074 	smlsdxls	r2, r4, r0, r0
     d44:	0000005d 	andeq	r0, r0, sp, asr r0
     d48:	03310f00 	teqeq	r1, #0, 30
     d4c:	36010000 	strcc	r0, [r1], -r0
     d50:	0000851c 	andeq	r8, r0, ip, lsl r5
     d54:	000000b0 	strheq	r0, [r0], -r0	; <UNPREDICTABLE>
     d58:	04309c01 	ldrteq	r9, [r0], #-3073	; 0xc01
     d5c:	33100000 	tstcc	r0, #0
     d60:	01000004 	tsteq	r0, r4
     d64:	00007d36 	andeq	r7, r0, r6, lsr sp
     d68:	0002e800 	andeq	lr, r2, r0, lsl #16
     d6c:	01431000 	mrseq	r1, (UNDEF: 67)
     d70:	36010000 	strcc	r0, [r1], -r0
     d74:	00000091 	muleq	r0, r1, r0
     d78:	0000032d 	andeq	r0, r0, sp, lsr #6
     d7c:	0002f211 	andeq	pc, r2, r1, lsl r2	; <UNPREDICTABLE>
     d80:	5d390100 	ldfpls	f0, [r9, #-0]
     d84:	72000000 	andvc	r0, r0, #0
     d88:	12000003 	andne	r0, r0, #3
     d8c:	0000012a 	andeq	r0, r0, sl, lsr #2
     d90:	00000440 	andeq	r0, r0, r0, asr #8
     d94:	a1140305 	tstge	r4, r5, lsl #6
     d98:	28110000 	ldmdacs	r1, {}	; <UNPREDICTABLE>
     d9c:	01000003 	tsteq	r0, r3
     da0:	00005d43 	andeq	r5, r0, r3, asr #26
     da4:	00039e00 	andeq	r9, r3, r0, lsl #28
     da8:	010f1300 	mrseq	r1, SP_hyp
     dac:	85240000 	strhi	r0, [r4, #-0]!
     db0:	00040000 	andeq	r0, r4, r0
     db4:	39010000 	stmdbcc	r1, {}	; <UNPREDICTABLE>
     db8:	000002dc 	ldrdeq	r0, [r0], -ip
     dbc:	00852414 	addeq	r2, r5, r4, lsl r4
     dc0:	00000400 	andeq	r0, r0, r0, lsl #8
     dc4:	011f1500 	tsteq	pc, r0, lsl #10
     dc8:	03ca0000 	biceq	r0, sl, #0
     dcc:	00000000 	andeq	r0, r0, r0
     dd0:	00012b13 	andeq	r2, r1, r3, lsl fp
     dd4:	00852c00 	addeq	r2, r5, r0, lsl #24
     dd8:	00000400 	andeq	r0, r0, r0, lsl #8
     ddc:	f93f0100 			; <UNDEFINED> instruction: 0xf93f0100
     de0:	16000002 	strne	r0, [r0], -r2
     de4:	00000137 	andeq	r0, r0, r7, lsr r1
     de8:	000003dd 	ldrdeq	r0, [r0], -sp
     dec:	010f1300 	mrseq	r1, SP_hyp
     df0:	85300000 	ldrhi	r0, [r0, #-0]!
     df4:	00040000 	andeq	r0, r4, r0
     df8:	41010000 	mrsmi	r0, (UNDEF: 1)
     dfc:	00000320 	andeq	r0, r0, r0, lsr #6
     e00:	00853014 	addeq	r3, r5, r4, lsl r0
     e04:	00000400 	andeq	r0, r0, r0, lsl #8
     e08:	011f1500 	tsteq	pc, r0, lsl #10
     e0c:	03fb0000 	mvnseq	r0, #0
     e10:	00000000 	andeq	r0, r0, r0
     e14:	00014113 	andeq	r4, r1, r3, lsl r1
     e18:	00856000 	addeq	r6, r5, r0
     e1c:	00000400 	andeq	r0, r0, r0, lsl #8
     e20:	3d460100 	stfcce	f0, [r6, #-0]
     e24:	16000003 	strne	r0, [r0], -r3
     e28:	0000014d 	andeq	r0, r0, sp, asr #2
     e2c:	0000039e 	muleq	r0, lr, r3
     e30:	012b1300 	teqeq	fp, r0, lsl #6
     e34:	85640000 	strbhi	r0, [r4, #-0]!
     e38:	00080000 	andeq	r0, r8, r0
     e3c:	50010000 	andpl	r0, r1, r0
     e40:	00000358 	andeq	r0, r0, r8, asr r3
     e44:	00013717 	andeq	r3, r1, r7, lsl r7
     e48:	0001ff00 	andeq	pc, r1, r0, lsl #30
     e4c:	00010f13 	andeq	r0, r1, r3, lsl pc
     e50:	00856c00 	addeq	r6, r5, r0, lsl #24
     e54:	00000400 	andeq	r0, r0, r0, lsl #8
     e58:	7f520100 	svcvc	0x00520100
     e5c:	14000003 	strne	r0, [r0], #-3
     e60:	0000856c 	andeq	r8, r0, ip, ror #10
     e64:	00000004 	andeq	r0, r0, r4
     e68:	00011f15 	andeq	r1, r1, r5, lsl pc
     e6c:	00041900 	andeq	r1, r4, r0, lsl #18
     e70:	13000000 	movwne	r0, #0
     e74:	00000157 	andeq	r0, r0, r7, asr r1
     e78:	0000859c 	muleq	r0, ip, r5
     e7c:	00000008 	andeq	r0, r0, r8
     e80:	03995401 	orrseq	r5, r9, #16777216	; 0x1000000
     e84:	63180000 	tstvs	r8, #0
     e88:	00000001 	andeq	r0, r0, r1
     e8c:	85401900 	strbhi	r1, [r0, #-2304]	; 0x900
     e90:	0baf0000 	bleq	febc0e98 <__bss_end__+0xfebb64a8>
     e94:	5c1a0000 	ldcpl	0, cr0, [sl], {-0}
     e98:	b6000085 	strlt	r0, [r0], -r5, lsl #1
     e9c:	db00000b 	blle	ed0 <__code_start__-0x7130>
     ea0:	1b000003 	blne	eb4 <__code_start__-0x714c>
     ea4:	08025301 	stmdaeq	r2, {r0, r8, r9, ip, lr}
     ea8:	52011b41 	andpl	r1, r1, #66560	; 0x10400
     eac:	a1140305 	tstge	r4, r5, lsl #6
     eb0:	011b0000 	tsteq	fp, r0
     eb4:	24030551 	strcs	r0, [r3], #-1361	; 0x551
     eb8:	1b0000a0 	blne	1140 <__code_start__-0x6ec0>
     ebc:	03055001 	movweq	r5, #20481	; 0x5001
     ec0:	00009d84 	andeq	r9, r0, r4, lsl #27
     ec4:	007d021b 	rsbseq	r0, sp, fp, lsl r2
     ec8:	a0340305 	eorsge	r0, r4, r5, lsl #6
     ecc:	19000000 	stmdbne	r0, {}	; <UNPREDICTABLE>
     ed0:	00008560 	andeq	r8, r0, r0, ror #10
     ed4:	00000bcc 	andeq	r0, r0, ip, asr #23
     ed8:	00857c19 	addeq	r7, r5, r9, lsl ip
     edc:	000baf00 	andeq	sl, fp, r0, lsl #30
     ee0:	85981a00 	ldrhi	r1, [r8, #2560]	; 0xa00
     ee4:	0bb60000 	bleq	fed80eec <__bss_end__+0xfed764fc>
     ee8:	04260000 	strteq	r0, [r6], #-0
     eec:	011b0000 	tsteq	fp, r0
     ef0:	52080253 	andpl	r0, r8, #805306373	; 0x30000005
     ef4:	0552011b 	ldrbeq	r0, [r2, #-283]	; 0x11b
     ef8:	00a11403 	adceq	r1, r1, r3, lsl #8
     efc:	51011b00 	tstpl	r1, r0, lsl #22
     f00:	a0240305 	eorge	r0, r4, r5, lsl #6
     f04:	011b0000 	tsteq	fp, r0
     f08:	84030550 	strhi	r0, [r3], #-1360	; 0x550
     f0c:	1b00009d 	blne	1188 <__code_start__-0x6e78>
     f10:	05007d02 	streq	r7, [r0, #-3330]	; 0xd02
     f14:	00a03403 	adceq	r3, r0, r3, lsl #8
     f18:	9c190000 	ldcls	0, cr0, [r9], {-0}
     f1c:	cc000085 	stcgt	0, cr0, [r0], {133}	; 0x85
     f20:	0000000b 	andeq	r0, r0, fp
     f24:	00007f1c 	andeq	r7, r0, ip, lsl pc
     f28:	00044000 	andeq	r4, r4, r0
     f2c:	00761d00 	rsbseq	r1, r6, r0, lsl #26
     f30:	000c0000 	andeq	r0, ip, r0
     f34:	00043007 	andeq	r3, r4, r7
     f38:	02c80a00 	sbceq	r0, r8, #0, 20
     f3c:	76020000 	strvc	r0, [r2], -r0
     f40:	0000002c 	andeq	r0, r0, ip, lsr #32
     f44:	00046c03 	andeq	r6, r4, r3, lsl #24
     f48:	00720b00 	rsbseq	r0, r2, r0, lsl #22
     f4c:	002c7702 	eoreq	r7, ip, r2, lsl #14
     f50:	2a1e0000 	bcs	780f58 <__bss_end__+0x776568>
     f54:	7c000001 	stcvc	0, cr0, [r0], {1}
     f58:	c8000004 	stmdagt	r0, {r2}
     f5c:	00000002 	andeq	r0, r0, r2
     f60:	00007f1c 	andeq	r7, r0, ip, lsl pc
     f64:	00047c00 	andeq	r7, r4, r0, lsl #24
     f68:	00761d00 	rsbseq	r1, r6, r0, lsl #26
     f6c:	00130000 	andseq	r0, r3, r0
     f70:	00046c07 	andeq	r6, r4, r7, lsl #24
     f74:	02a00f00 	adceq	r0, r0, #0, 30
     f78:	59010000 	stmdbpl	r1, {}	; <UNPREDICTABLE>
     f7c:	000085cc 	andeq	r8, r0, ip, asr #11
     f80:	000000dc 	ldrdeq	r0, [r0], -ip
     f84:	06b09c01 	ldrteq	r9, [r0], r1, lsl #24
     f88:	701f0000 	andsvc	r0, pc, r0
     f8c:	59010063 	stmdbpl	r1, {r0, r1, r5, r6}
     f90:	0000002c 	andeq	r0, r0, ip, lsr #32
     f94:	00000437 	andeq	r0, r0, r7, lsr r4
     f98:	0003ba20 	andeq	fp, r3, r0, lsr #20
     f9c:	255a0100 	ldrbcs	r0, [sl, #-256]	; 0x100
     fa0:	05000000 	streq	r0, [r0, #-0]
     fa4:	00a5e003 	adceq	lr, r5, r3
     fa8:	012a1200 	teqeq	sl, r0, lsl #4
     fac:	06c00000 	strbeq	r0, [r0], r0
     fb0:	03050000 	movweq	r0, #20480	; 0x5000
     fb4:	0000a124 	andeq	sl, r0, r4, lsr #2
     fb8:	0004340e 	andeq	r3, r4, lr, lsl #8
     fbc:	5d6b0100 	stfple	f0, [fp, #-0]
     fc0:	13000000 	movwne	r0, #0
     fc4:	0000016d 	andeq	r0, r0, sp, ror #2
     fc8:	000085d8 	ldrdeq	r8, [r0], -r8	; <UNPREDICTABLE>
     fcc:	00000004 	andeq	r0, r0, r4
     fd0:	05115c01 	ldreq	r5, [r1, #-3073]	; 0xc01
     fd4:	d8140000 	ldmdale	r4, {}	; <UNPREDICTABLE>
     fd8:	04000085 	streq	r0, [r0], #-133	; 0x85
     fdc:	21000000 	mrscs	r0, (UNDEF: 0)
     fe0:	0000017d 	andeq	r0, r0, sp, ror r1
     fe4:	0000bd22 	andeq	fp, r0, r2, lsr #26
     fe8:	0085d800 	addeq	sp, r5, r0, lsl #16
     fec:	00000400 	andeq	r0, r0, r0, lsl #8
     ff0:	14670200 	strbtne	r0, [r7], #-512	; 0x200
     ff4:	000085d8 	ldrdeq	r8, [r0], -r8	; <UNPREDICTABLE>
     ff8:	00000004 	andeq	r0, r0, r4
     ffc:	0000cd21 	andeq	ip, r0, r1, lsr #26
    1000:	00000000 	andeq	r0, r0, r0
    1004:	04451300 	strbeq	r1, [r5], #-768	; 0x300
    1008:	85dc0000 	ldrbhi	r0, [ip]
    100c:	002c0000 	eoreq	r0, ip, r0
    1010:	62010000 	andvs	r0, r1, #0
    1014:	000005c4 	andeq	r0, r0, r4, asr #11
    1018:	0085dc14 	addeq	sp, r5, r4, lsl ip
    101c:	00002c00 	andeq	r2, r0, r0, lsl #24
    1020:	04552100 	ldrbeq	r2, [r5], #-256	; 0x100
    1024:	5e230000 	cdppl	0, 2, cr0, cr3, cr0, {0}
    1028:	05000004 	streq	r0, [r0, #-4]
    102c:	00a13803 	adceq	r3, r1, r3, lsl #16
    1030:	00bd1300 	adcseq	r1, sp, r0, lsl #6
    1034:	85dc0000 	ldrbhi	r0, [ip]
    1038:	00040000 	andeq	r0, r4, r0
    103c:	77020000 	strvc	r0, [r2, -r0]
    1040:	00000564 	andeq	r0, r0, r4, ror #10
    1044:	0085dc14 	addeq	sp, r5, r4, lsl ip
    1048:	00000400 	andeq	r0, r0, r0, lsl #8
    104c:	00cd1500 	sbceq	r1, sp, r0, lsl #10
    1050:	04ae0000 	strteq	r0, [lr], #0
    1054:	00000000 	andeq	r0, r0, r0
    1058:	0000f513 	andeq	pc, r0, r3, lsl r5	; <UNPREDICTABLE>
    105c:	0085e000 	addeq	lr, r5, r0
    1060:	00000400 	andeq	r0, r0, r0, lsl #8
    1064:	81780200 	cmnhi	r8, r0, lsl #4
    1068:	16000005 	strne	r0, [r0], -r5
    106c:	00000105 	andeq	r0, r0, r5, lsl #2
    1070:	000004ae 	andeq	r0, r0, lr, lsr #9
    1074:	85f01900 	ldrbhi	r1, [r0, #2304]!	; 0x900
    1078:	0baf0000 	bleq	febc1080 <__bss_end__+0xfebb6690>
    107c:	041a0000 	ldreq	r0, [sl], #-0
    1080:	b6000086 	strlt	r0, [r0], -r6, lsl #1
    1084:	b900000b 	stmdblt	r0, {r0, r1, r3}
    1088:	1b000005 	blne	10a4 <__code_start__-0x6f5c>
    108c:	08025301 	stmdaeq	r2, {r0, r8, r9, ip, lr}
    1090:	52011b79 	andpl	r1, r1, #123904	; 0x1e400
    1094:	a1380305 	teqge	r8, r5, lsl #6
    1098:	011b0000 	tsteq	fp, r0
    109c:	84030551 	strhi	r0, [r3], #-1361	; 0x551
    10a0:	1b0000a0 	blne	1328 <__code_start__-0x6cd8>
    10a4:	03055001 	movweq	r5, #20481	; 0x5001
    10a8:	0000a04c 	andeq	sl, r0, ip, asr #32
    10ac:	86081900 	strhi	r1, [r8], -r0, lsl #18
    10b0:	0bcc0000 	bleq	ff3010b8 <__bss_end__+0xff2f66c8>
    10b4:	00000000 	andeq	r0, r0, r0
    10b8:	00018913 	andeq	r8, r1, r3, lsl r9
    10bc:	00860800 	addeq	r0, r6, r0, lsl #16
    10c0:	00000400 	andeq	r0, r0, r0, lsl #8
    10c4:	eb670100 	bl	19c14cc <__bss_end__+0x19b6adc>
    10c8:	14000005 	strne	r0, [r0], #-5
    10cc:	00008608 	andeq	r8, r0, r8, lsl #12
    10d0:	00000004 	andeq	r0, r0, r4
    10d4:	00019915 	andeq	r9, r1, r5, lsl r9
    10d8:	0004c100 	andeq	ip, r4, r0, lsl #2
    10dc:	13000000 	movwne	r0, #0
    10e0:	000001a5 	andeq	r0, r0, r5, lsr #3
    10e4:	00008670 	andeq	r8, r0, r0, ror r6
    10e8:	00000004 	andeq	r0, r0, r4
    10ec:	060e6b01 	streq	r6, [lr], -r1, lsl #22
    10f0:	70140000 	andsvc	r0, r4, r0
    10f4:	04000086 	streq	r0, [r0], #-134	; 0x86
    10f8:	21000000 	mrscs	r0, (UNDEF: 0)
    10fc:	000001b5 			; <UNDEFINED> instruction: 0x000001b5
    1100:	1c190000 	ldcne	0, cr0, [r9], {-0}
    1104:	af000086 	svcge	0x00000086
    1108:	1a00000b 	bne	113c <__code_start__-0x6ec4>
    110c:	00008638 	andeq	r8, r0, r8, lsr r6
    1110:	00000bb6 			; <UNDEFINED> instruction: 0x00000bb6
    1114:	00000650 	andeq	r0, r0, r0, asr r6
    1118:	0253011b 	subseq	r0, r3, #-1073741818	; 0xc0000006
    111c:	011b6708 	tsteq	fp, r8, lsl #14
    1120:	24030552 	strcs	r0, [r3], #-1362	; 0x552
    1124:	1b0000a1 	blne	13b0 <__code_start__-0x6c50>
    1128:	03055101 	movweq	r5, #20737	; 0x5101
    112c:	0000a024 	andeq	sl, r0, r4, lsr #32
    1130:	0550011b 	ldrbeq	r0, [r0, #-283]	; 0x11b
    1134:	009d8403 	addseq	r8, sp, r3, lsl #8
    1138:	7d021b00 	vstrvc	d1, [r2, #-0]
    113c:	94030500 	strls	r0, [r3], #-1280	; 0x500
    1140:	000000a0 	andeq	r0, r0, r0, lsr #1
    1144:	00863c19 	addeq	r3, r6, r9, lsl ip
    1148:	000bcc00 	andeq	ip, fp, r0, lsl #24
    114c:	86501900 	ldrbhi	r1, [r0], -r0, lsl #18
    1150:	0baf0000 	bleq	febc1158 <__bss_end__+0xfebb6768>
    1154:	6c1a0000 	ldcvs	0, cr0, [sl], {-0}
    1158:	b6000086 	strlt	r0, [r0], -r6, lsl #1
    115c:	9b00000b 	blls	1190 <__code_start__-0x6e70>
    1160:	1b000006 	blne	1180 <__code_start__-0x6e80>
    1164:	08025301 	stmdaeq	r2, {r0, r8, r9, ip, lr}
    1168:	52011b69 	andpl	r1, r1, #107520	; 0x1a400
    116c:	a1240305 	teqge	r4, r5, lsl #6
    1170:	011b0000 	tsteq	fp, r0
    1174:	24030551 	strcs	r0, [r3], #-1361	; 0x551
    1178:	1b0000a0 	blne	1400 <__code_start__-0x6c00>
    117c:	03055001 	movweq	r5, #20481	; 0x5001
    1180:	00009d84 	andeq	r9, r0, r4, lsl #27
    1184:	007d021b 	rsbseq	r0, sp, fp, lsl r2
    1188:	a0a80305 	adcge	r0, r8, r5, lsl #6
    118c:	19000000 	stmdbne	r0, {}	; <UNPREDICTABLE>
    1190:	00008670 	andeq	r8, r0, r0, ror r6
    1194:	00000bcc 	andeq	r0, r0, ip, asr #23
    1198:	00867c24 	addeq	r7, r6, r4, lsr #24
    119c:	50011b00 	andpl	r1, r1, r0, lsl #22
    11a0:	00003001 	andeq	r3, r0, r1
    11a4:	00007f1c 	andeq	r7, r0, ip, lsl pc
    11a8:	0006c000 	andeq	ip, r6, r0
    11ac:	00761d00 	rsbseq	r1, r6, r0, lsl #26
    11b0:	00110000 	andseq	r0, r1, r0
    11b4:	0006b007 	andeq	fp, r6, r7
    11b8:	02690f00 	rsbeq	r0, r9, #0, 30
    11bc:	72010000 	andvc	r0, r1, #0
    11c0:	000086a8 	andeq	r8, r0, r8, lsr #13
    11c4:	0000003c 	andeq	r0, r0, ip, lsr r0
    11c8:	07359c01 	ldreq	r9, [r5, -r1, lsl #24]!
    11cc:	04200000 	strteq	r0, [r0], #-0
    11d0:	01000003 	tsteq	r0, r3
    11d4:	00002573 	andeq	r2, r0, r3, ror r5
    11d8:	e4030500 	str	r0, [r3], #-1280	; 0x500
    11dc:	250000a5 	strcs	r0, [r0, #-165]	; 0xa5
    11e0:	7c010076 	stcvc	0, cr0, [r1], {118}	; 0x76
    11e4:	0000005d 	andeq	r0, r0, sp, asr r0
    11e8:	c1138000 	tstgt	r3, r0
    11ec:	cc000001 	stcgt	0, cr0, [r0], {1}
    11f0:	08000086 	stmdaeq	r0, {r1, r2, r7}
    11f4:	01000000 	mrseq	r0, (UNDEF: 0)
    11f8:	0007117e 	andeq	r1, r7, lr, ror r1
    11fc:	01cd1700 	biceq	r1, sp, r0, lsl #14
    1200:	80000000 	andhi	r0, r0, r0
    1204:	01571300 	cmpeq	r7, r0, lsl #6
    1208:	86d40000 	ldrbhi	r0, [r4], r0
    120c:	00100000 	andseq	r0, r0, r0
    1210:	80010000 	andhi	r0, r1, r0
    1214:	0000072b 	andeq	r0, r0, fp, lsr #14
    1218:	00016318 	andeq	r6, r1, r8, lsl r3
    121c:	19000000 	stmdbne	r0, {}	; <UNPREDICTABLE>
    1220:	000086c0 	andeq	r8, r0, r0, asr #13
    1224:	00000bd3 	ldrdeq	r0, [r0], -r3
    1228:	04100f00 	ldreq	r0, [r0], #-3840	; 0xf00
    122c:	a8010000 	stmdage	r1, {}	; <UNPREDICTABLE>
    1230:	000086e4 	andeq	r8, r0, r4, ror #13
    1234:	00000034 	andeq	r0, r0, r4, lsr r0
    1238:	08119c01 	ldmdaeq	r1, {r0, sl, fp, ip, pc}
    123c:	34260000 	strtcc	r0, [r6], #-0
    1240:	01000004 	tsteq	r0, r4
    1244:	00005da8 	andeq	r5, r0, r8, lsr #27
    1248:	26500100 	ldrbcs	r0, [r0], -r0, lsl #2
    124c:	00000143 	andeq	r0, r0, r3, asr #2
    1250:	0091a801 	addseq	sl, r1, r1, lsl #16
    1254:	51010000 	mrspl	r0, (UNDEF: 1)
    1258:	0003f611 	andeq	pc, r3, r1, lsl r6	; <UNPREDICTABLE>
    125c:	5da90100 	stfpls	f0, [r9]
    1260:	ee000000 	cdp	0, 0, cr0, cr0, cr0, {0}
    1264:	20000004 	andcs	r0, r0, r4
    1268:	000003c2 	andeq	r0, r0, r2, asr #7
    126c:	005db101 	subseq	fp, sp, r1, lsl #2
    1270:	50010000 	andpl	r0, r1, r0
    1274:	0001d713 	andeq	sp, r1, r3, lsl r7
    1278:	0086e400 	addeq	lr, r6, r0, lsl #8
    127c:	00000400 	andeq	r0, r0, r0, lsl #8
    1280:	a7a90100 	strge	r0, [r9, r0, lsl #2]!
    1284:	14000007 	strne	r0, [r0], #-7
    1288:	000086e4 	andeq	r8, r0, r4, ror #13
    128c:	00000004 	andeq	r0, r0, r4
    1290:	0001e715 	andeq	lr, r1, r5, lsl r7
    1294:	00050f00 	andeq	r0, r5, r0, lsl #30
    1298:	13000000 	movwne	r0, #0
    129c:	000001f3 	strdeq	r0, [r0], -r3
    12a0:	000086ec 	andeq	r8, r0, ip, ror #13
    12a4:	00000004 	andeq	r0, r0, r4
    12a8:	07c4af01 	strbeq	sl, [r4, r1, lsl #30]
    12ac:	ff160000 			; <UNDEFINED> instruction: 0xff160000
    12b0:	22000001 	andcs	r0, r0, #1
    12b4:	00000005 	andeq	r0, r0, r5
    12b8:	00020913 	andeq	r0, r2, r3, lsl r9
    12bc:	0086f000 	addeq	pc, r6, r0
    12c0:	00000400 	andeq	r0, r0, r0, lsl #8
    12c4:	dfb40100 	svcle	0x00b40100
    12c8:	27000007 	strcs	r0, [r0, -r7]
    12cc:	00000215 	andeq	r0, r0, r5, lsl r2
    12d0:	13005001 	movwne	r5, #1
    12d4:	000001f3 	strdeq	r0, [r0], -r3
    12d8:	000086f4 	strdeq	r8, [r0], -r4
    12dc:	00000008 	andeq	r0, r0, r8
    12e0:	07fabe01 	ldrbeq	fp, [sl, r1, lsl #28]!
    12e4:	ff170000 			; <UNDEFINED> instruction: 0xff170000
    12e8:	e7000001 	str	r0, [r0, -r1]
    12ec:	57220001 	strpl	r0, [r2, -r1]!
    12f0:	fc000001 	stc2	0, cr0, [r0], {1}
    12f4:	08000086 	stmdaeq	r0, {r1, r2, r7}
    12f8:	01000000 	mrseq	r0, (UNDEF: 0)
    12fc:	016318bf 	strheq	r1, [r3, #-143]!	; 0xffffff71
    1300:	00000000 	andeq	r0, r0, r0
    1304:	02b20f00 	adcseq	r0, r2, #0, 30
    1308:	c4010000 	strgt	r0, [r1], #-0
    130c:	00008718 	andeq	r8, r0, r8, lsl r7
    1310:	00000098 	muleq	r0, r8, r0
    1314:	09449c01 	stmdbeq	r4, {r0, sl, fp, ip, pc}^
    1318:	701f0000 	andsvc	r0, pc, r0
    131c:	c4010063 	strgt	r0, [r1], #-99	; 0x63
    1320:	0000002c 	andeq	r0, r0, ip, lsr #32
    1324:	00000535 	andeq	r0, r0, r5, lsr r5
    1328:	00012a12 	andeq	r2, r1, r2, lsl sl
    132c:	00095400 	andeq	r5, r9, r0, lsl #8
    1330:	4c030500 	cfstr32mi	mvfx0, [r3], {-0}
    1334:	130000a1 	movwne	r0, #161	; 0xa1
    1338:	0000021f 	andeq	r0, r0, pc, lsl r2
    133c:	00008724 	andeq	r8, r0, r4, lsr #14
    1340:	00000008 	andeq	r0, r0, r8
    1344:	0889c601 	stmeq	r9, {r0, r9, sl, lr, pc}
    1348:	24140000 	ldrcs	r0, [r4], #-0
    134c:	08000087 	stmdaeq	r0, {r0, r1, r2, r7}
    1350:	21000000 	mrscs	r0, (UNDEF: 0)
    1354:	0000022f 	andeq	r0, r0, pc, lsr #4
    1358:	0000d922 	andeq	sp, r0, r2, lsr #18
    135c:	00872400 	addeq	r2, r7, r0, lsl #8
    1360:	00000400 	andeq	r0, r0, r0, lsl #8
    1364:	14aa0200 	strtne	r0, [sl], #512	; 0x200
    1368:	00008724 	andeq	r8, r0, r4, lsr #14
    136c:	00000004 	andeq	r0, r0, r4
    1370:	0000e915 	andeq	lr, r0, r5, lsl r9
    1374:	00059300 	andeq	r9, r5, r0, lsl #6
    1378:	00000000 	andeq	r0, r0, r0
    137c:	02391300 	eorseq	r1, r9, #0, 6
    1380:	87840000 	strhi	r0, [r4, r0]
    1384:	00040000 	andeq	r0, r4, r0
    1388:	ca010000 	bgt	41390 <__bss_end__+0x369a0>
    138c:	000008ac 	andeq	r0, r0, ip, lsr #17
    1390:	00878414 	addeq	r8, r7, r4, lsl r4
    1394:	00000400 	andeq	r0, r0, r0, lsl #8
    1398:	02492100 	subeq	r2, r9, #0, 2
    139c:	00000000 	andeq	r0, r0, r0
    13a0:	00873819 	addeq	r3, r7, r9, lsl r8
    13a4:	000baf00 	andeq	sl, fp, r0, lsl #30
    13a8:	874c1a00 	strbhi	r1, [ip, -r0, lsl #20]
    13ac:	0bb60000 	bleq	fed813b4 <__bss_end__+0xfed769c4>
    13b0:	08e40000 	stmiaeq	r4!, {}^	; <UNPREDICTABLE>
    13b4:	011b0000 	tsteq	fp, r0
    13b8:	c7080253 	smlsdgt	r8, r3, r2, r0
    13bc:	0552011b 	ldrbeq	r0, [r2, #-283]	; 0x11b
    13c0:	00a14c03 	adceq	r4, r1, r3, lsl #24
    13c4:	51011b00 	tstpl	r1, r0, lsl #22
    13c8:	a0240305 	eorge	r0, r4, r5, lsl #6
    13cc:	011b0000 	tsteq	fp, r0
    13d0:	44030550 	strmi	r0, [r3], #-1360	; 0x550
    13d4:	0000009e 	muleq	r0, lr, r0
    13d8:	00875019 	addeq	r5, r7, r9, lsl r0
    13dc:	000bcc00 	andeq	ip, fp, r0, lsl #24
    13e0:	87641900 	strbhi	r1, [r4, -r0, lsl #18]!
    13e4:	0baf0000 	bleq	febc13ec <__bss_end__+0xfebb69fc>
    13e8:	801a0000 	andshi	r0, sl, r0
    13ec:	b6000087 	strlt	r0, [r0], -r7, lsl #1
    13f0:	2f00000b 	svccs	0x0000000b
    13f4:	1b000009 	blne	1420 <__code_start__-0x6be0>
    13f8:	08025301 	stmdaeq	r2, {r0, r8, r9, ip, lr}
    13fc:	52011bc8 	andpl	r1, r1, #200, 22	; 0x32000
    1400:	a14c0305 	cmpge	ip, r5, lsl #6
    1404:	011b0000 	tsteq	fp, r0
    1408:	24030551 	strcs	r0, [r3], #-1361	; 0x551
    140c:	1b0000a0 	blne	1694 <__code_start__-0x696c>
    1410:	03055001 	movweq	r5, #20481	; 0x5001
    1414:	00009d84 	andeq	r9, r0, r4, lsl #27
    1418:	007d021b 	rsbseq	r0, sp, fp, lsl r2
    141c:	a0bc0305 	adcsge	r0, ip, r5, lsl #6
    1420:	19000000 	stmdbne	r0, {}	; <UNPREDICTABLE>
    1424:	00008784 	andeq	r8, r0, r4, lsl #15
    1428:	00000bcc 	andeq	r0, r0, ip, asr #23
    142c:	00879024 	addeq	r9, r7, r4, lsr #32
    1430:	50011b00 	andpl	r1, r1, r0, lsl #22
    1434:	00003001 	andeq	r3, r0, r1
    1438:	00007f1c 	andeq	r7, r0, ip, lsl pc
    143c:	00095400 	andeq	r5, r9, r0, lsl #8
    1440:	00761d00 	rsbseq	r1, r6, r0, lsl #26
    1444:	00150000 	andseq	r0, r5, r0
    1448:	00094407 	andeq	r4, r9, r7, lsl #8
    144c:	074e0f00 	strbeq	r0, [lr, -r0, lsl #30]
    1450:	cd010000 	stcgt	0, cr0, [r1, #-0]
    1454:	000087b0 			; <UNDEFINED> instruction: 0x000087b0
    1458:	00000004 	andeq	r0, r0, r4
    145c:	097b9c01 	ldmdbeq	fp!, {r0, sl, fp, ip, pc}^
    1460:	70280000 	eorvc	r0, r8, r0
    1464:	cd010063 	stcgt	0, cr0, [r1, #-396]	; 0xfffffe74
    1468:	0000002c 	andeq	r0, r0, ip, lsr #32
    146c:	0f005001 	svceq	0x00005001
    1470:	00000347 	andeq	r0, r0, r7, asr #6
    1474:	87b4d801 	ldrhi	sp, [r4, r1, lsl #16]!
    1478:	002c0000 	eoreq	r0, ip, r0
    147c:	9c010000 	stcls	0, cr0, [r1], {-0}
    1480:	000009e1 	andeq	r0, r0, r1, ror #19
    1484:	00012a12 	andeq	r2, r1, r2, lsl sl
    1488:	0009f100 	andeq	pc, r9, r0, lsl #2
    148c:	64030500 	strvs	r0, [r3], #-1280	; 0x500
    1490:	190000a1 	stmdbne	r0, {r0, r5, r7}
    1494:	000087bc 			; <UNDEFINED> instruction: 0x000087bc
    1498:	00000baf 	andeq	r0, r0, pc, lsr #23
    149c:	0087d01a 	addeq	sp, r7, sl, lsl r0
    14a0:	000bb600 	andeq	fp, fp, r0, lsl #12
    14a4:	0009d700 	andeq	sp, r9, r0, lsl #14
    14a8:	53011b00 	movwpl	r1, #6912	; 0x1b00
    14ac:	1bd90802 	blne	ff6434bc <__bss_end__+0xff638acc>
    14b0:	03055201 	movweq	r5, #20993	; 0x5201
    14b4:	0000a164 	andeq	sl, r0, r4, ror #2
    14b8:	0551011b 	ldrbeq	r0, [r1, #-283]	; 0x11b
    14bc:	00a02403 	adceq	r2, r0, r3, lsl #8
    14c0:	50011b00 	andpl	r1, r1, r0, lsl #22
    14c4:	a0cc0305 	sbcge	r0, ip, r5, lsl #6
    14c8:	19000000 	stmdbne	r0, {}	; <UNPREDICTABLE>
    14cc:	000087d4 	ldrdeq	r8, [r0], -r4
    14d0:	00000bcc 	andeq	r0, r0, ip, asr #23
    14d4:	007f1c00 	rsbseq	r1, pc, r0, lsl #24
    14d8:	09f10000 	ldmibeq	r1!, {}^	; <UNPREDICTABLE>
    14dc:	761d0000 	ldrvc	r0, [sp], -r0
    14e0:	10000000 	andne	r0, r0, r0
    14e4:	09e10700 	stmibeq	r1!, {r8, r9, sl}^
    14e8:	090f0000 	stmdbeq	pc, {}	; <UNPREDICTABLE>
    14ec:	01000000 	mrseq	r0, (UNDEF: 0)
    14f0:	0087e0dc 	ldrdeq	lr, [r7], ip
    14f4:	00003400 	andeq	r3, r0, r0, lsl #8
    14f8:	d49c0100 	ldrle	r0, [ip], #256	; 0x100
    14fc:	2600000a 	strcs	r0, [r0], -sl
    1500:	00000434 	andeq	r0, r0, r4, lsr r4
    1504:	005ddc01 	subseq	sp, sp, r1, lsl #24
    1508:	50010000 	andpl	r0, r1, r0
    150c:	00014326 	andeq	r4, r1, r6, lsr #6
    1510:	91dc0100 	bicsls	r0, ip, r0, lsl #2
    1514:	01000000 	mrseq	r0, (UNDEF: 0)
    1518:	03f61151 	mvnseq	r1, #1073741844	; 0x40000014
    151c:	dd010000 	stcle	0, cr0, [r1, #-0]
    1520:	0000005d 	andeq	r0, r0, sp, asr r0
    1524:	000005a6 	andeq	r0, r0, r6, lsr #11
    1528:	0003c220 	andeq	ip, r3, r0, lsr #4
    152c:	5de50100 	stfple	f0, [r5]
    1530:	01000000 	mrseq	r0, (UNDEF: 0)
    1534:	01d71350 	bicseq	r1, r7, r0, asr r3
    1538:	87e00000 	strbhi	r0, [r0, r0]!
    153c:	00040000 	andeq	r0, r4, r0
    1540:	dd010000 	stcle	0, cr0, [r1, #-0]
    1544:	00000a68 	andeq	r0, r0, r8, ror #20
    1548:	0087e014 	addeq	lr, r7, r4, lsl r0
    154c:	00000400 	andeq	r0, r0, r0, lsl #8
    1550:	01e71500 	mvneq	r1, r0, lsl #10
    1554:	05c90000 	strbeq	r0, [r9]
    1558:	00000000 	andeq	r0, r0, r0
    155c:	0001f313 	andeq	pc, r1, r3, lsl r3	; <UNPREDICTABLE>
    1560:	0087e800 	addeq	lr, r7, r0, lsl #16
    1564:	00000400 	andeq	r0, r0, r0, lsl #8
    1568:	85e30100 	strbhi	r0, [r3, #256]!	; 0x100
    156c:	1600000a 	strne	r0, [r0], -sl
    1570:	000001ff 	strdeq	r0, [r0], -pc	; <UNPREDICTABLE>
    1574:	000005dc 	ldrdeq	r0, [r0], -ip
    1578:	02091300 	andeq	r1, r9, #0, 6
    157c:	87ec0000 	strbhi	r0, [ip, r0]!
    1580:	00040000 	andeq	r0, r4, r0
    1584:	e8010000 	stmda	r1, {}	; <UNPREDICTABLE>
    1588:	00000aa0 	andeq	r0, r0, r0, lsr #21
    158c:	00021527 	andeq	r1, r2, r7, lsr #10
    1590:	00500100 	subseq	r0, r0, r0, lsl #2
    1594:	0001f313 	andeq	pc, r1, r3, lsl r3	; <UNPREDICTABLE>
    1598:	0087f000 	addeq	pc, r7, r0
    159c:	00000800 	andeq	r0, r0, r0, lsl #16
    15a0:	bdf20100 	ldflte	f0, [r2]
    15a4:	2900000a 	stmdbcs	r0, {r1, r3}
    15a8:	000001ff 	strdeq	r0, [r0], -pc	; <UNPREDICTABLE>
    15ac:	004001e7 	subeq	r0, r0, r7, ror #3
    15b0:	01572200 	cmpeq	r7, r0, lsl #4
    15b4:	87f80000 	ldrbhi	r0, [r8, r0]!
    15b8:	00080000 	andeq	r0, r8, r0
    15bc:	f3010000 	vhadd.u8	d0, d1, d0
    15c0:	00016318 	andeq	r6, r1, r8, lsl r3
    15c4:	00000000 	andeq	r0, r0, r0
    15c8:	0000340f 	andeq	r3, r0, pc, lsl #8
    15cc:	14f80100 	ldrbtne	r0, [r8], #256	; 0x100
    15d0:	10000088 	andne	r0, r0, r8, lsl #1
    15d4:	01000000 	mrseq	r0, (UNDEF: 0)
    15d8:	000b209c 	muleq	fp, ip, r0
    15dc:	04342600 	ldrteq	r2, [r4], #-1536	; 0x600
    15e0:	f8010000 			; <UNDEFINED> instruction: 0xf8010000
    15e4:	0000005d 	andeq	r0, r0, sp, asr r0
    15e8:	f62a5001 			; <UNDEFINED> instruction: 0xf62a5001
    15ec:	01000003 	tsteq	r0, r3
    15f0:	00005df9 	strdeq	r5, [r0], -r9
    15f4:	4001e600 	andmi	lr, r1, r0, lsl #12
    15f8:	01f32b00 	mvnseq	r2, r0, lsl #22
    15fc:	88140000 	ldmdahi	r4, {}	; <UNPREDICTABLE>
    1600:	00100000 	andseq	r0, r0, r0
    1604:	00010000 	andeq	r0, r1, r0
    1608:	01ff2901 	mvnseq	r2, r1, lsl #18
    160c:	01e60000 	mvneq	r0, r0
    1610:	00000040 	andeq	r0, r0, r0, asr #32
    1614:	0003d42c 	andeq	sp, r3, ip, lsr #8
    1618:	01090100 	mrseq	r0, (UNDEF: 25)
    161c:	00000025 	andeq	r0, r0, r5, lsr #32
    1620:	00008824 	andeq	r8, r0, r4, lsr #16
    1624:	00000060 	andeq	r0, r0, r0, rrx
    1628:	0b7c9c01 	bleq	1f28634 <__bss_end__+0x1f1dc44>
    162c:	702d0000 	eorvc	r0, sp, r0
    1630:	09010063 	stmdbeq	r1, {r0, r1, r5, r6}
    1634:	00002c01 	andeq	r2, r0, r1, lsl #24
    1638:	0005ef00 	andeq	lr, r5, r0, lsl #30
    163c:	30722d00 	rsbscc	r2, r2, r0, lsl #26
    1640:	01090100 	mrseq	r0, (UNDEF: 25)
    1644:	0000005d 	andeq	r0, r0, sp, asr r0
    1648:	0000065b 	andeq	r0, r0, fp, asr r6
    164c:	0004082e 	andeq	r0, r4, lr, lsr #16
    1650:	010a0100 	mrseq	r0, (UNDEF: 26)
    1654:	0000005d 	andeq	r0, r0, sp, asr r0
    1658:	00000687 	andeq	r0, r0, r7, lsl #13
    165c:	0088702f 	addeq	r7, r8, pc, lsr #32
    1660:	000bb600 	andeq	fp, fp, r0, lsl #12
    1664:	50011b00 	andpl	r1, r1, r0, lsl #22
    1668:	a0fc0305 	rscsge	r0, ip, r5, lsl #6
    166c:	00000000 	andeq	r0, r0, r0
    1670:	00037820 	andeq	r7, r3, r0, lsr #16
    1674:	910b0100 	mrsls	r0, (UNDEF: 27)
    1678:	05000000 	streq	r0, [r0, #-0]
    167c:	00a5d403 	adceq	sp, r5, r3, lsl #8
    1680:	030b2000 	movweq	r2, #45056	; 0xb000
    1684:	89010000 	stmdbhi	r1, {}	; <UNPREDICTABLE>
    1688:	00000091 	muleq	r0, r1, r0
    168c:	a5d80305 	ldrbge	r0, [r8, #773]	; 0x305
    1690:	8d300000 	ldchi	0, cr0, [r0, #-0]
    1694:	01000002 	tsteq	r0, r2
    1698:	000025d5 	ldrdeq	r2, [r0], -r5
    169c:	dc030500 	cfstr32le	mvfx0, [r3], {-0}
    16a0:	310000a5 	smlatbcc	r0, r5, r0, r0
    16a4:	0000027e 	andeq	r0, r0, lr, ror r2
    16a8:	63321e04 	teqvs	r2, #4, 28	; 0x40
    16ac:	04000005 	streq	r0, [r0], #-5
    16b0:	00002529 	andeq	r2, r0, r9, lsr #10
    16b4:	000bcc00 	andeq	ip, fp, r0, lsl #24
    16b8:	00860900 	addeq	r0, r6, r0, lsl #18
    16bc:	00330000 	eorseq	r0, r3, r0
    16c0:	0000f131 	andeq	pc, r0, r1, lsr r1	; <UNPREDICTABLE>
    16c4:	31650400 	cmncc	r5, r0, lsl #8
    16c8:	00000424 	andeq	r0, r0, r4, lsr #8
    16cc:	f3003605 	vmax.u8	d3, d0, d5
    16d0:	0400000e 	streq	r0, [r0], #-14
    16d4:	00050500 	andeq	r0, r5, r0, lsl #10
    16d8:	4b010400 	blmi	426e0 <__bss_end__+0x37cf0>
    16dc:	01000001 	tsteq	r0, r1
    16e0:	0000044f 	andeq	r0, r0, pc, asr #8
    16e4:	00000064 	andeq	r0, r0, r4, rrx
    16e8:	000089ac 	andeq	r8, r0, ip, lsr #19
    16ec:	00000770 	andeq	r0, r0, r0, ror r7
    16f0:	00000415 	andeq	r0, r0, r5, lsl r4
    16f4:	69050402 	stmdbvs	r5, {r1, sl}
    16f8:	0300746e 	movweq	r7, #1134	; 0x46e
    16fc:	01c20704 	biceq	r0, r2, r4, lsl #14
    1700:	01030000 	mrseq	r0, (UNDEF: 3)
    1704:	0000e506 	andeq	lr, r0, r6, lsl #10
    1708:	05020300 	streq	r0, [r2, #-768]	; 0x300
    170c:	00000237 	andeq	r0, r0, r7, lsr r2
    1710:	00050403 	andeq	r0, r5, r3, lsl #8
    1714:	03000002 	movweq	r0, #2
    1718:	01fb0508 	mvnseq	r0, r8, lsl #10
    171c:	01030000 	mrseq	r0, (UNDEF: 3)
    1720:	0000e308 	andeq	lr, r0, r8, lsl #6
    1724:	07020300 	streq	r0, [r2, -r0, lsl #6]
    1728:	0000004c 	andeq	r0, r0, ip, asr #32
    172c:	00011704 	andeq	r1, r1, r4, lsl #14
    1730:	68340600 	ldmdavs	r4!, {r9, sl}
    1734:	03000000 	movweq	r0, #0
    1738:	01bd0704 			; <UNDEFINED> instruction: 0x01bd0704
    173c:	08030000 	stmdaeq	r3, {}	; <UNPREDICTABLE>
    1740:	0001b807 	andeq	fp, r1, r7, lsl #16
    1744:	07040300 	streq	r0, [r4, -r0, lsl #6]
    1748:	000001de 	ldrdeq	r0, [r0], -lr
    174c:	01030405 	tsteq	r3, r5, lsl #8
    1750:	0000ec08 	andeq	lr, r0, r8, lsl #24
    1754:	8c040600 	stchi	6, cr0, [r4], {-0}
    1758:	07000000 	streq	r0, [r0, -r0]
    175c:	0000007f 	andeq	r0, r0, pc, ror r0
    1760:	0001d404 	andeq	sp, r1, r4, lsl #8
    1764:	9c8a0200 	sfmls	f0, 4, [sl], {0}
    1768:	06000000 	streq	r0, [r0], -r0
    176c:	0000a204 	andeq	sl, r0, r4, lsl #4
    1770:	00b70800 	adcseq	r0, r7, r0, lsl #16
    1774:	b7090000 	strlt	r0, [r9, -r0]
    1778:	09000000 	stmdbeq	r0, {}	; <UNPREDICTABLE>
    177c:	0000005d 	andeq	r0, r0, sp, asr r0
    1780:	00005d09 	andeq	r5, r0, r9, lsl #26
    1784:	04060000 	streq	r0, [r6], #-0
    1788:	0000005d 	andeq	r0, r0, sp, asr r0
    178c:	0004e40a 	andeq	lr, r4, sl, lsl #8
    1790:	0a073400 	beq	1ce798 <__bss_end__+0x1c3da8>
    1794:	00000162 	andeq	r0, r0, r2, ror #2
    1798:	000a2a0b 	andeq	r2, sl, fp, lsl #20
    179c:	620f0700 	andvs	r0, pc, #0, 14
    17a0:	00000001 	andeq	r0, r0, r1
    17a4:	0700410c 	streq	r4, [r0, -ip, lsl #2]
    17a8:	00017a12 	andeq	r7, r1, r2, lsl sl
    17ac:	420c0400 	andmi	r0, ip, #0, 8
    17b0:	7a130700 	bvc	4c33b8 <__bss_end__+0x4b89c8>
    17b4:	08000001 	stmdaeq	r0, {r0}
    17b8:	0004280b 	andeq	r2, r4, fp, lsl #16
    17bc:	7a160700 	bvc	5833c4 <__bss_end__+0x5789d4>
    17c0:	0c000001 	stceq	0, cr0, [r0], {1}
    17c4:	0004620b 	andeq	r6, r4, fp, lsl #4
    17c8:	8f180700 	svchi	0x00180700
    17cc:	10000001 	andne	r0, r0, r1
    17d0:	0004cf0b 	andeq	ip, r4, fp, lsl #30
    17d4:	951f0700 	ldrls	r0, [pc, #-1792]	; 10dc <__code_start__-0x6f24>
    17d8:	14000001 	strne	r0, [r0], #-1
    17dc:	0004be0b 	andeq	fp, r4, fp, lsl #28
    17e0:	95310700 	ldrls	r0, [r1, #-1792]!	; 0x700
    17e4:	18000001 	stmdane	r0, {r0}
    17e8:	0004390b 	andeq	r3, r4, fp, lsl #18
    17ec:	9a360700 	bls	d833f4 <__bss_end__+0xd78a04>
    17f0:	1c000001 	stcne	0, cr0, [r0], {1}
    17f4:	00042d0b 	andeq	r2, r4, fp, lsl #26
    17f8:	9a3a0700 	bls	e83400 <__bss_end__+0xe78a10>
    17fc:	20000001 	andcs	r0, r0, r1
    1800:	0004d90b 	andeq	sp, r4, fp, lsl #18
    1804:	953f0700 	ldrls	r0, [pc, #-1792]!	; 110c <__code_start__-0x6ef4>
    1808:	24000001 	strcs	r0, [r0], #-1
    180c:	00047a0b 	andeq	r7, r4, fp, lsl #20
    1810:	2c420700 	mcrrcs	7, 0, r0, r2, cr0
    1814:	28000000 	stmdacs	r0, {}	; <UNPREDICTABLE>
    1818:	0004b60b 	andeq	fp, r4, fp, lsl #12
    181c:	2c430700 	mcrrcs	7, 0, r0, r3, cr0
    1820:	2c000000 	stccs	0, cr0, [r0], {-0}
    1824:	0004a70b 	andeq	sl, r4, fp, lsl #14
    1828:	2c460700 	mcrrcs	7, 0, r0, r6, cr0
    182c:	30000000 	andcc	r0, r0, r0
    1830:	68040600 	stmdavs	r4, {r9, sl}
    1834:	0d000001 	stceq	0, cr0, [r0, #-4]
    1838:	00017408 	andeq	r7, r1, r8, lsl #8
    183c:	01740900 	cmneq	r4, r0, lsl #18
    1840:	06000000 	streq	r0, [r0], -r0
    1844:	0000bd04 	andeq	fp, r0, r4, lsl #26
    1848:	69040600 	stmdbvs	r4, {r9, sl}
    184c:	0e000001 	cdpeq	0, 0, cr0, cr0, cr1, {0}
    1850:	00000025 	andeq	r0, r0, r5, lsr #32
    1854:	0000018f 	andeq	r0, r0, pc, lsl #3
    1858:	00017409 	andeq	r7, r1, r9, lsl #8
    185c:	04060000 	streq	r0, [r6], #-0
    1860:	00000180 	andeq	r0, r0, r0, lsl #3
    1864:	00002c0f 	andeq	r2, r0, pc, lsl #24
    1868:	005d0f00 	subseq	r0, sp, r0, lsl #30
    186c:	93040000 	movwls	r0, #16384	; 0x4000
    1870:	07000004 	streq	r0, [r0, -r4]
    1874:	0000bd47 	andeq	fp, r0, r7, asr #26
    1878:	02411000 	subeq	r1, r1, #0
    187c:	a6020000 	strge	r0, [r2], -r0
    1880:	0000005d 	andeq	r0, r0, sp, asr r0
    1884:	0001c603 	andeq	ip, r1, r3, lsl #12
    1888:	65721100 	ldrbvs	r1, [r2, #-256]!	; 0x100
    188c:	a6020074 			; <UNDEFINED> instruction: 0xa6020074
    1890:	0000005d 	andeq	r0, r0, sp, asr r0
    1894:	024a1000 	subeq	r1, sl, #0
    1898:	07050000 	streq	r0, [r5, -r0]
    189c:	00000025 	andeq	r0, r0, r5, lsr #32
    18a0:	0001e203 	andeq	lr, r1, r3, lsl #4
    18a4:	01cf1200 	biceq	r1, pc, r0, lsl #4
    18a8:	07050000 	streq	r0, [r5, -r0]
    18ac:	0000002c 	andeq	r0, r0, ip, lsr #32
    18b0:	02751000 	rsbseq	r1, r5, #0
    18b4:	26030000 	strcs	r0, [r3], -r0
    18b8:	0000005d 	andeq	r0, r0, sp, asr r0
    18bc:	0001fe03 	andeq	pc, r1, r3, lsl #28
    18c0:	00261300 	eoreq	r1, r6, r0, lsl #6
    18c4:	27030000 	strcs	r0, [r3, -r0]
    18c8:	0000005d 	andeq	r0, r0, sp, asr r0
    18cc:	02551000 	subseq	r1, r5, #0
    18d0:	a9020000 	stmdbge	r2, {}	; <UNPREDICTABLE>
    18d4:	0000002c 	andeq	r0, r0, ip, lsr #32
    18d8:	00021803 	andeq	r1, r2, r3, lsl #16
    18dc:	00721100 	rsbseq	r1, r2, r0, lsl #2
    18e0:	002caa02 	eoreq	sl, ip, r2, lsl #20
    18e4:	14000000 	strne	r0, [r0], #-0
    18e8:	00000137 	andeq	r0, r0, r7, lsr r1
    18ec:	89ac0b01 	stmibhi	ip!, {r0, r8, r9, fp}
    18f0:	01980000 	orrseq	r0, r8, r0
    18f4:	9c010000 	stcls	0, cr0, [r1], {-0}
    18f8:	00000459 	andeq	r0, r0, r9, asr r4
    18fc:	00023215 	andeq	r3, r2, r5, lsl r2
    1900:	b70b0100 	strlt	r0, [fp, -r0, lsl #2]
    1904:	f7000000 			; <UNDEFINED> instruction: 0xf7000000
    1908:	16000006 	strne	r0, [r0], -r6
    190c:	01006370 	tsteq	r0, r0, ror r3
    1910:	00005d0b 	andeq	r5, r0, fp, lsl #26
    1914:	00071800 	andeq	r1, r7, r0, lsl #16
    1918:	04341500 	ldrteq	r1, [r4], #-1280	; 0x500
    191c:	0b010000 	bleq	41924 <__bss_end__+0x36f34>
    1920:	0000005d 	andeq	r0, r0, sp, asr r0
    1924:	00000744 	andeq	r0, r0, r4, asr #14
    1928:	00012a17 	andeq	r2, r1, r7, lsl sl
    192c:	00046900 	andeq	r6, r4, r0, lsl #18
    1930:	68030500 	stmdavs	r3, {r8, sl}
    1934:	180000a3 	stmdane	r0, {r0, r1, r5, r7}
    1938:	10010063 	andne	r0, r1, r3, rrx
    193c:	0000046e 	andeq	r0, r0, lr, ror #8
    1940:	00000765 	andeq	r0, r0, r5, ror #14
    1944:	0001fe19 	andeq	pc, r1, r9, lsl lr	; <UNPREDICTABLE>
    1948:	0089e000 	addeq	lr, r9, r0
    194c:	00000800 	andeq	r0, r0, r0, lsl #16
    1950:	bb0d0100 	bllt	341d58 <__bss_end__+0x337368>
    1954:	1a000002 	bne	1964 <__code_start__-0x669c>
    1958:	000089e0 	andeq	r8, r0, r0, ror #19
    195c:	00000008 	andeq	r0, r0, r8
    1960:	00020e1b 	andeq	r0, r2, fp, lsl lr
    1964:	01aa1c00 			; <UNDEFINED> instruction: 0x01aa1c00
    1968:	89e00000 	stmibhi	r0!, {}^	; <UNPREDICTABLE>
    196c:	00040000 	andeq	r0, r4, r0
    1970:	aa020000 	bge	81978 <__bss_end__+0x76f88>
    1974:	0089e01a 	addeq	lr, r9, sl, lsl r0
    1978:	00000400 	andeq	r0, r0, r0, lsl #8
    197c:	01ba1d00 			; <UNDEFINED> instruction: 0x01ba1d00
    1980:	07780000 	ldrbeq	r0, [r8, -r0]!
    1984:	00000000 	andeq	r0, r0, r0
    1988:	e01e0000 	ands	r0, lr, r0
    198c:	78000089 	stmdavc	r0, {r0, r3, r7}
    1990:	f000000e 			; <UNDEFINED> instruction: 0xf000000e
    1994:	1f000002 	svcne	0x00000002
    1998:	3c015301 	stccc	3, cr5, [r1], {1}
    199c:	0552011f 	ldrbeq	r0, [r2, #-287]	; 0x11f
    19a0:	00a36803 	adceq	r6, r3, r3, lsl #16
    19a4:	51011f00 	tstpl	r1, r0, lsl #30
    19a8:	a1980305 	orrsge	r0, r8, r5, lsl #6
    19ac:	011f0000 	tsteq	pc, r0
    19b0:	78030550 	stmdavc	r3, {r4, r6, r8, sl}
    19b4:	1f0000a1 	svcne	0x000000a1
    19b8:	02007d02 	andeq	r7, r0, #2, 26	; 0x80
    19bc:	20000075 	andcs	r0, r0, r5, ror r0
    19c0:	000089f4 	strdeq	r8, [r0], -r4
    19c4:	00000e8e 	andeq	r0, r0, lr, lsl #29
    19c8:	008a081e 	addeq	r0, sl, lr, lsl r8
    19cc:	000e7800 	andeq	r7, lr, r0, lsl #16
    19d0:	00032700 	andeq	r2, r3, r0, lsl #14
    19d4:	53011f00 	movwpl	r1, #7936	; 0x1f00
    19d8:	011f3e01 	tsteq	pc, r1, lsl #28
    19dc:	68030552 	stmdavs	r3, {r1, r4, r6, r8, sl}
    19e0:	1f0000a3 	svcne	0x000000a3
    19e4:	03055101 	movweq	r5, #20737	; 0x5101
    19e8:	0000a198 	muleq	r0, r8, r1
    19ec:	0550011f 	ldrbeq	r0, [r0, #-287]	; 0x11f
    19f0:	009e4403 	addseq	r4, lr, r3, lsl #8
    19f4:	0c200000 	stceq	0, cr0, [r0], #-0
    19f8:	9500008a 	strls	r0, [r0, #-138]	; 0x8a
    19fc:	1e00000e 	cdpne	0, 0, cr0, cr0, cr14, {0}
    1a00:	00008a34 	andeq	r8, r0, r4, lsr sl
    1a04:	00000e78 	andeq	r0, r0, r8, ror lr
    1a08:	0000034d 	andeq	r0, r0, sp, asr #6
    1a0c:	0251011f 	subseq	r0, r1, #-1073741817	; 0xc0000007
    1a10:	011f0075 	tsteq	pc, r5, ror r0	; <UNPREDICTABLE>
    1a14:	ac030550 	cfstr32ge	mvfx0, [r3], {80}	; 0x50
    1a18:	000000a1 	andeq	r0, r0, r1, lsr #1
    1a1c:	008a3c1e 	addeq	r3, sl, lr, lsl ip
    1a20:	000e9c00 	andeq	r9, lr, r0, lsl #24
    1a24:	00036100 	andeq	r6, r3, r0, lsl #2
    1a28:	50011f00 	andpl	r1, r1, r0, lsl #30
    1a2c:	00007502 	andeq	r7, r0, r2, lsl #10
    1a30:	008a6021 	addeq	r6, sl, r1, lsr #32
    1a34:	00037100 	andeq	r7, r3, r0, lsl #2
    1a38:	50011f00 	andpl	r1, r1, r0, lsl #30
    1a3c:	00007402 	andeq	r7, r0, r2, lsl #8
    1a40:	008a681e 	addeq	r6, sl, lr, lsl r8
    1a44:	000e7800 	andeq	r7, lr, r0, lsl #16
    1a48:	00038800 	andeq	r8, r3, r0, lsl #16
    1a4c:	50011f00 	andpl	r1, r1, r0, lsl #30
    1a50:	a1cc0305 	bicge	r0, ip, r5, lsl #6
    1a54:	20000000 	andcs	r0, r0, r0
    1a58:	00008a80 	andeq	r8, r0, r0, lsl #21
    1a5c:	00000e8e 	andeq	r0, r0, lr, lsl #29
    1a60:	008a9c1e 	addeq	r9, sl, lr, lsl ip
    1a64:	000e7800 	andeq	r7, lr, r0, lsl #16
    1a68:	0003ca00 	andeq	ip, r3, r0, lsl #20
    1a6c:	53011f00 	movwpl	r1, #7936	; 0x1f00
    1a70:	1f210802 	svcne	0x00210802
    1a74:	03055201 	movweq	r5, #20993	; 0x5201
    1a78:	0000a368 	andeq	sl, r0, r8, ror #6
    1a7c:	0551011f 	ldrbeq	r0, [r1, #-287]	; 0x11f
    1a80:	00a19803 	adceq	r9, r1, r3, lsl #16
    1a84:	50011f00 	andpl	r1, r1, r0, lsl #30
    1a88:	9d840305 	stcls	3, cr0, [r4, #20]
    1a8c:	021f0000 	andseq	r0, pc, #0
    1a90:	0305007d 	movweq	r0, #20605	; 0x507d
    1a94:	0000a1f4 	strdeq	sl, [r0], -r4
    1a98:	8aa02000 	bhi	fe809aa0 <__bss_end__+0xfe7ff0b0>
    1a9c:	0e950000 	cdpeq	0, 9, cr0, cr5, cr0, {0}
    1aa0:	d41e0000 	ldrle	r0, [lr], #-0
    1aa4:	7800008a 	stmdavc	r0, {r1, r3, r7}
    1aa8:	0900000e 	stmdbeq	r0, {r1, r2, r3}
    1aac:	1f000004 	svcne	0x00000004
    1ab0:	08025301 	stmdaeq	r2, {r0, r8, r9, ip, lr}
    1ab4:	52011f24 	andpl	r1, r1, #36, 30	; 0x90
    1ab8:	a3680305 	cmnge	r8, #335544320	; 0x14000000
    1abc:	011f0000 	tsteq	pc, r0
    1ac0:	98030551 	stmdals	r3, {r0, r4, r6, r8, sl}
    1ac4:	1f0000a1 	svcne	0x000000a1
    1ac8:	03055001 	movweq	r5, #20481	; 0x5001
    1acc:	00009ea8 	andeq	r9, r0, r8, lsr #29
    1ad0:	007d021f 	rsbseq	r0, sp, pc, lsl r2
    1ad4:	00007502 	andeq	r7, r0, r2, lsl #10
    1ad8:	008ae01e 	addeq	lr, sl, lr, lsl r0
    1adc:	000ead00 	andeq	sl, lr, r0, lsl #26
    1ae0:	00042600 	andeq	r2, r4, r0, lsl #12
    1ae4:	51011f00 	tstpl	r1, r0, lsl #30
    1ae8:	89ac0305 	stmibhi	ip!, {r0, r2, r8, r9}
    1aec:	011f0000 	tsteq	pc, r0
    1af0:	00750250 	rsbseq	r0, r5, r0, asr r2
    1af4:	8b082200 	blhi	20a2fc <__bss_end__+0x1ff90c>
    1af8:	0e780000 	cdpeq	0, 7, cr0, cr8, cr0, {0}
    1afc:	011f0000 	tsteq	pc, r0
    1b00:	26080253 			; <UNDEFINED> instruction: 0x26080253
    1b04:	0552011f 	ldrbeq	r0, [r2, #-287]	; 0x11f
    1b08:	00a36803 	adceq	r6, r3, r3, lsl #16
    1b0c:	51011f00 	tstpl	r1, r0, lsl #30
    1b10:	a1980305 	orrsge	r0, r8, r5, lsl #6
    1b14:	011f0000 	tsteq	pc, r0
    1b18:	d0030550 	andle	r0, r3, r0, asr r5
    1b1c:	1f00009e 	svcne	0x0000009e
    1b20:	02007d02 	andeq	r7, r0, #2, 26	; 0x80
    1b24:	00000075 	andeq	r0, r0, r5, ror r0
    1b28:	00007f23 	andeq	r7, r0, r3, lsr #30
    1b2c:	00046900 	andeq	r6, r4, r0, lsl #18
    1b30:	00762400 	rsbseq	r2, r6, r0, lsl #8
    1b34:	00130000 	andseq	r0, r3, r0
    1b38:	00045907 	andeq	r5, r4, r7, lsl #18
    1b3c:	9f040600 	svcls	0x00040600
    1b40:	10000001 	andne	r0, r0, r1
    1b44:	000000d1 	ldrdeq	r0, [r0], -r1
    1b48:	005d1405 	subseq	r1, sp, r5, lsl #8
    1b4c:	a8030000 	stmdage	r3, {}	; <UNPREDICTABLE>
    1b50:	12000004 	andne	r0, r0, #4
    1b54:	00000026 	andeq	r0, r0, r6, lsr #32
    1b58:	005d1405 	subseq	r1, sp, r5, lsl #8
    1b5c:	cf120000 	svcgt	0x00120000
    1b60:	05000001 	streq	r0, [r0, #-1]
    1b64:	00002c14 	andeq	r2, r0, r4, lsl ip
    1b68:	012a2500 	teqeq	sl, r0, lsl #10
    1b6c:	04b80000 	ldrteq	r0, [r8], #0
    1b70:	00d10000 	sbcseq	r0, r1, r0
    1b74:	23000000 	movwcs	r0, #0
    1b78:	0000007f 	andeq	r0, r0, pc, ror r0
    1b7c:	000004b8 			; <UNDEFINED> instruction: 0x000004b8
    1b80:	00007624 	andeq	r7, r0, r4, lsr #12
    1b84:	07000800 	streq	r0, [r0, -r0, lsl #16]
    1b88:	000004a8 	andeq	r0, r0, r8, lsr #9
    1b8c:	00010e10 	andeq	r0, r1, r0, lsl lr
    1b90:	5d250400 	cfstrspl	mvf0, [r5, #-0]
    1b94:	03000000 	movweq	r0, #0
    1b98:	0000050c 	andeq	r0, r0, ip, lsl #10
    1b9c:	04007826 	streq	r7, [r0], #-2086	; 0x826
    1ba0:	00005d25 	andeq	r5, r0, r5, lsr #26
    1ba4:	626c2600 	rsbvs	r2, ip, #0, 12
    1ba8:	2c250400 	cfstrscs	mvf0, [r5], #-0
    1bac:	26000000 	strcs	r0, [r0], -r0
    1bb0:	04006275 	streq	r6, [r0], #-629	; 0x275
    1bb4:	00002c25 	andeq	r2, r0, r5, lsr #24
    1bb8:	012a2500 	teqeq	sl, r0, lsl #10
    1bbc:	050c0000 	streq	r0, [ip, #-0]
    1bc0:	010e0000 	mrseq	r0, (UNDEF: 14)
    1bc4:	6e110000 	cdpvs	0, 1, cr0, cr1, cr0, {0}
    1bc8:	2c280400 	cfstrscs	mvf0, [r8], #-0
    1bcc:	13000000 	movwne	r0, #0
    1bd0:	00000216 	andeq	r0, r0, r6, lsl r2
    1bd4:	002c2a04 	eoreq	r2, ip, r4, lsl #20
    1bd8:	07000000 	streq	r0, [r0, -r0]
    1bdc:	000004a8 	andeq	r0, r0, r8, lsr #9
    1be0:	00002b10 	andeq	r2, r0, r0, lsl fp
    1be4:	86180500 	ldrhi	r0, [r8], -r0, lsl #10
    1be8:	03000000 	movweq	r0, #0
    1bec:	0000053a 	andeq	r0, r0, sl, lsr r5
    1bf0:	00002612 	andeq	r2, r0, r2, lsl r6
    1bf4:	5d180500 	cfldr32pl	mvfx0, [r8, #-0]
    1bf8:	25000000 	strcs	r0, [r0, #-0]
    1bfc:	0000012a 	andeq	r0, r0, sl, lsr #2
    1c00:	0000053a 	andeq	r0, r0, sl, lsr r5
    1c04:	0000002b 	andeq	r0, r0, fp, lsr #32
    1c08:	04a80700 	strteq	r0, [r8], #1792	; 0x700
    1c0c:	00100000 	andseq	r0, r0, r0
    1c10:	05000000 	streq	r0, [r0, #-0]
    1c14:	00005d0f 	andeq	r5, r0, pc, lsl #26
    1c18:	05730300 	ldrbeq	r0, [r3, #-768]!	; 0x300
    1c1c:	26120000 	ldrcs	r0, [r2], -r0
    1c20:	05000000 	streq	r0, [r0, #-0]
    1c24:	00005d0f 	andeq	r5, r0, pc, lsl #26
    1c28:	01cf1300 	biceq	r1, pc, r0, lsl #6
    1c2c:	10050000 	andne	r0, r5, r0
    1c30:	0000002c 	andeq	r0, r0, ip, lsr #32
    1c34:	00012a25 	andeq	r2, r1, r5, lsr #20
    1c38:	00057300 	andeq	r7, r5, r0, lsl #6
    1c3c:	00000000 	andeq	r0, r0, r0
    1c40:	a8070000 	stmdage	r7, {}	; <UNPREDICTABLE>
    1c44:	10000004 	andne	r0, r0, r4
    1c48:	0000001d 	andeq	r0, r0, sp, lsl r0
    1c4c:	005d1c04 	subseq	r1, sp, r4, lsl #24
    1c50:	bc030000 	stclt	0, cr0, [r3], {-0}
    1c54:	26000005 	strcs	r0, [r0], -r5
    1c58:	1c040078 	stcne	0, cr0, [r4], {120}	; 0x78
    1c5c:	0000005d 	andeq	r0, r0, sp, asr r0
    1c60:	00626c26 	rsbeq	r6, r2, r6, lsr #24
    1c64:	002c1c04 	eoreq	r1, ip, r4, lsl #24
    1c68:	75260000 	strvc	r0, [r6, #-0]!
    1c6c:	1c040062 	stcne	0, cr0, [r4], {98}	; 0x62
    1c70:	0000002c 	andeq	r0, r0, ip, lsr #32
    1c74:	00012a25 	andeq	r2, r1, r5, lsr #20
    1c78:	0005bc00 	andeq	fp, r5, r0, lsl #24
    1c7c:	00001d00 	andeq	r1, r0, r0, lsl #26
    1c80:	006e1100 	rsbeq	r1, lr, r0, lsl #2
    1c84:	002c1f04 	eoreq	r1, ip, r4, lsl #30
    1c88:	07000000 	streq	r0, [r0, -r0]
    1c8c:	000004a8 	andeq	r0, r0, r8, lsr #9
    1c90:	00046827 	andeq	r6, r4, r7, lsr #16
    1c94:	2c2a0100 	stfcss	f0, [sl], #-0
    1c98:	44000000 	strmi	r0, [r0], #-0
    1c9c:	e000008b 	and	r0, r0, fp, lsl #1
    1ca0:	01000004 	tsteq	r0, r4
    1ca4:	000cd49c 	muleq	ip, ip, r4
    1ca8:	00631600 	rsbeq	r1, r3, r0, lsl #12
    1cac:	046e2a01 	strbteq	r2, [lr], #-2561	; 0xa01
    1cb0:	078b0000 	streq	r0, [fp, r0]
    1cb4:	da280000 	ble	a01cbc <__bss_end__+0x9f72cc>
    1cb8:	01000000 	mrseq	r0, (UNDEF: 0)
    1cbc:	00005d2b 	andeq	r5, r0, fp, lsr #26
    1cc0:	13580100 	cmpne	r8, #0, 2
    1cc4:	0000049d 	muleq	r0, sp, r4
    1cc8:	005d2c01 	subseq	r2, sp, r1, lsl #24
    1ccc:	2a170000 	bcs	5c1cd4 <__bss_end__+0x5b72e4>
    1cd0:	e4000001 	str	r0, [r0], #-1
    1cd4:	0500000c 	streq	r0, [r0, #-12]
    1cd8:	00a35403 	adceq	r5, r3, r3, lsl #8
    1cdc:	01e21900 	mvneq	r1, r0, lsl #18
    1ce0:	8b500000 	blhi	1401ce8 <__bss_end__+0x13f72f8>
    1ce4:	00040000 	andeq	r0, r4, r0
    1ce8:	2b010000 	blcs	41cf0 <__bss_end__+0x37300>
    1cec:	00000635 	andeq	r0, r0, r5, lsr r6
    1cf0:	008b501a 	addeq	r5, fp, sl, lsl r0
    1cf4:	00000400 	andeq	r0, r0, r0, lsl #8
    1cf8:	01f21d00 	mvnseq	r1, r0, lsl #26
    1cfc:	07b70000 	ldreq	r0, [r7, r0]!
    1d00:	00000000 	andeq	r0, r0, r0
    1d04:	00047419 	andeq	r7, r4, r9, lsl r4
    1d08:	008b5400 	addeq	r5, fp, r0, lsl #8
    1d0c:	00000800 	andeq	r0, r0, r0, lsl #16
    1d10:	b32c0100 	teqlt	ip, #0, 2
    1d14:	29000006 	stmdbcs	r0, {r1, r2}
    1d18:	0000048f 	andeq	r0, r0, pc, lsl #9
    1d1c:	04842a10 	streq	r2, [r4], #2576	; 0xa10
    1d20:	07b70000 	ldreq	r0, [r7, r0]!
    1d24:	541a0000 	ldrpl	r0, [sl], #-0
    1d28:	0800008b 	stmdaeq	r0, {r0, r1, r3, r7}
    1d2c:	2b000000 	blcs	1d34 <__code_start__-0x62cc>
    1d30:	0000049a 	muleq	r0, sl, r4
    1d34:	a37c0305 	cmnge	ip, #335544320	; 0x14000000
    1d38:	bd1c0000 	ldclt	0, cr0, [ip, #-0]
    1d3c:	54000004 	strpl	r0, [r0], #-4
    1d40:	0400008b 	streq	r0, [r0], #-139	; 0x8b
    1d44:	05000000 	streq	r0, [r0, #-0]
    1d48:	04e02916 	strbteq	r2, [r0], #2326	; 0x916
    1d4c:	29040000 	stmdbcs	r4, {}	; <UNPREDICTABLE>
    1d50:	000004d6 	ldrdeq	r0, [r0], -r6
    1d54:	04cd2a00 	strbeq	r2, [sp], #2560	; 0xa00
    1d58:	07b70000 	ldreq	r0, [r7, r0]!
    1d5c:	541a0000 	ldrpl	r0, [sl], #-0
    1d60:	0400008b 	streq	r0, [r0], #-139	; 0x8b
    1d64:	2c000000 	stccs	0, cr0, [r0], {-0}
    1d68:	000004f7 	strdeq	r0, [r0], -r7
    1d6c:	05002c05 	streq	r2, [r0, #-3077]	; 0xc05
    1d70:	2b1f0000 	blcs	7c1d78 <__bss_end__+0x7b7388>
    1d74:	000004ea 	andeq	r0, r0, sl, ror #9
    1d78:	a3880305 	orrge	r0, r8, #335544320	; 0x14000000
    1d7c:	00000000 	andeq	r0, r0, r0
    1d80:	11190000 	tstne	r9, r0
    1d84:	58000005 	stmdapl	r0, {r0, r2}
    1d88:	1000008c 	andne	r0, r0, ip, lsl #1
    1d8c:	01000001 	tsteq	r0, r1
    1d90:	00080b52 	andeq	r0, r8, r2, asr fp
    1d94:	05212a00 	streq	r2, [r1, #-2560]!	; 0xa00
    1d98:	07ca0000 	strbeq	r0, [sl, r0]
    1d9c:	581a0000 	ldmdapl	sl, {}	; <UNPREDICTABLE>
    1da0:	1000008c 	andne	r0, r0, ip, lsl #1
    1da4:	2b000001 	blcs	1db0 <__code_start__-0x6250>
    1da8:	0000052c 	andeq	r0, r0, ip, lsr #10
    1dac:	a3940305 	orrsge	r0, r4, #335544320	; 0x14000000
    1db0:	3f190000 	svccc	0x00190000
    1db4:	58000005 	stmdapl	r0, {r0, r2}
    1db8:	6c00008c 	stcvs	0, cr0, [r0], {140}	; 0x8c
    1dbc:	05000000 	streq	r0, [r0, #-0]
    1dc0:	0007c119 	andeq	ip, r7, r9, lsl r1
    1dc4:	054f2a00 	strbeq	r2, [pc, #-2560]	; 13cc <__code_start__-0x6c34>
    1dc8:	07ca0000 	strbeq	r0, [sl, r0]
    1dcc:	581a0000 	ldmdapl	sl, {}	; <UNPREDICTABLE>
    1dd0:	6c00008c 	stcvs	0, cr0, [r0], {140}	; 0x8c
    1dd4:	1b000000 	blne	1ddc <__code_start__-0x6224>
    1dd8:	0000055a 	andeq	r0, r0, sl, asr r5
    1ddc:	0005652b 	andeq	r6, r5, fp, lsr #10
    1de0:	a0030500 	andge	r0, r3, r0, lsl #10
    1de4:	190000a3 	stmdbne	r0, {r0, r1, r5, r7}
    1de8:	00000578 	andeq	r0, r0, r8, ror r5
    1dec:	00008c58 	andeq	r8, r0, r8, asr ip
    1df0:	00000004 	andeq	r0, r0, r4
    1df4:	075c1005 	ldrbeq	r1, [ip, -r5]
    1df8:	9b290000 	blls	a41e00 <__bss_end__+0xa37410>
    1dfc:	04000005 	streq	r0, [r0], #-5
    1e00:	00059129 	andeq	r9, r5, r9, lsr #2
    1e04:	882a0000 	stmdahi	sl!, {}	; <UNPREDICTABLE>
    1e08:	ca000005 	bgt	1e24 <__code_start__-0x61dc>
    1e0c:	1a000007 	bne	1e30 <__code_start__-0x61d0>
    1e10:	00008c58 	andeq	r8, r0, r8, asr ip
    1e14:	00000004 	andeq	r0, r0, r4
    1e18:	0005b22c 	andeq	fp, r5, ip, lsr #4
    1e1c:	a52b0500 	strge	r0, [fp, #-1280]!	; 0x500
    1e20:	05000005 	streq	r0, [r0, #-5]
    1e24:	00a3ac03 	adceq	sl, r3, r3, lsl #24
    1e28:	19000000 	stmdbne	r0, {}	; <UNPREDICTABLE>
    1e2c:	000001c6 	andeq	r0, r0, r6, asr #3
    1e30:	00008c5c 	andeq	r8, r0, ip, asr ip
    1e34:	0000003c 	andeq	r0, r0, ip, lsr r0
    1e38:	07751105 	ldrbeq	r1, [r5, -r5, lsl #2]!
    1e3c:	d62d0000 	strtle	r0, [sp], -r0
    1e40:	00000001 	andeq	r0, r0, r1
    1e44:	008ca420 	addeq	sl, ip, r0, lsr #8
    1e48:	000e8e00 	andeq	r8, lr, r0, lsl #28
    1e4c:	8cc01e00 	stclhi	14, cr1, [r0], {0}
    1e50:	0e780000 	cdpeq	0, 7, cr0, cr8, cr0, {0}
    1e54:	07b60000 	ldreq	r0, [r6, r0]!
    1e58:	011f0000 	tsteq	pc, r0
    1e5c:	1f410153 	svcne	0x00410153
    1e60:	03055201 	movweq	r5, #20993	; 0x5201
    1e64:	0000a3a0 	andeq	sl, r0, r0, lsr #7
    1e68:	0551011f 	ldrbeq	r0, [r1, #-287]	; 0x11f
    1e6c:	00a2cc03 	adceq	ip, r2, r3, lsl #24
    1e70:	50011f00 	andpl	r1, r1, r0, lsl #30
    1e74:	9d840305 	stcls	3, cr0, [r4, #20]
    1e78:	021f0000 	andseq	r0, pc, #0
    1e7c:	0305007d 	movweq	r0, #20605	; 0x507d
    1e80:	00009da8 	andeq	r9, r0, r8, lsr #27
    1e84:	8cc42000 	stclhi	0, cr2, [r4], {0}
    1e88:	0e950000 	cdpeq	0, 9, cr0, cr5, cr0, {0}
    1e8c:	00000000 	andeq	r0, r0, r0
    1e90:	008d4020 	addeq	r4, sp, r0, lsr #32
    1e94:	000e8e00 	andeq	r8, lr, r0, lsl #28
    1e98:	8d581e00 	ldclhi	14, cr1, [r8, #-0]
    1e9c:	0e780000 	cdpeq	0, 7, cr0, cr8, cr0, {0}
    1ea0:	08000000 	stmdaeq	r0, {}	; <UNPREDICTABLE>
    1ea4:	011f0000 	tsteq	pc, r0
    1ea8:	21080253 	tstcs	r8, r3, asr r2
    1eac:	0552011f 	ldrbeq	r0, [r2, #-287]	; 0x11f
    1eb0:	00a39403 	adceq	r9, r3, r3, lsl #8
    1eb4:	51011f00 	tstpl	r1, r0, lsl #30
    1eb8:	a2cc0305 	sbcge	r0, ip, #335544320	; 0x14000000
    1ebc:	011f0000 	tsteq	pc, r0
    1ec0:	bc030550 	cfstr32lt	mvfx0, [r3], {80}	; 0x50
    1ec4:	1f00009d 	svcne	0x0000009d
    1ec8:	02007d02 	andeq	r7, r0, #2, 26	; 0x80
    1ecc:	20000078 	andcs	r0, r0, r8, ror r0
    1ed0:	00008d5c 	andeq	r8, r0, ip, asr sp
    1ed4:	00000e95 	muleq	r0, r5, lr
    1ed8:	e2190000 	ands	r0, r9, #0
    1edc:	74000001 	strvc	r0, [r0], #-1
    1ee0:	0400008d 	streq	r0, [r0], #-141	; 0x8d
    1ee4:	01000000 	mrseq	r0, (UNDEF: 0)
    1ee8:	00083253 	andeq	r3, r8, r3, asr r2
    1eec:	8d741a00 	vldmdbhi	r4!, {s3-s2}
    1ef0:	00040000 	andeq	r0, r4, r0
    1ef4:	f21d0000 	vhadd.s16	d0, d13, d0
    1ef8:	dd000001 	stcle	0, cr0, [r0, #-4]
    1efc:	00000007 	andeq	r0, r0, r7
    1f00:	05111900 	ldreq	r1, [r1, #-2304]	; 0x900
    1f04:	8d780000 	ldclhi	0, cr0, [r8, #-0]
    1f08:	01100000 	tsteq	r0, r0
    1f0c:	53010000 	movwpl	r0, #4096	; 0x1000
    1f10:	0000098a 	andeq	r0, r0, sl, lsl #19
    1f14:	0005212a 	andeq	r2, r5, sl, lsr #2
    1f18:	0007dd00 	andeq	sp, r7, r0, lsl #26
    1f1c:	8d781a00 	vldmdbhi	r8!, {s3-s2}
    1f20:	01100000 	tsteq	r0, r0
    1f24:	2c2b0000 	stccs	0, cr0, [fp], #-0
    1f28:	05000005 	streq	r0, [r0, #-5]
    1f2c:	00a39403 	adceq	r9, r3, r3, lsl #8
    1f30:	053f1900 	ldreq	r1, [pc, #-2304]!	; 1638 <__code_start__-0x69c8>
    1f34:	8d780000 	ldclhi	0, cr0, [r8, #-0]
    1f38:	006c0000 	rsbeq	r0, ip, r0
    1f3c:	19050000 	stmdbne	r5, {}	; <UNPREDICTABLE>
    1f40:	00000940 	andeq	r0, r0, r0, asr #18
    1f44:	00054f2a 	andeq	r4, r5, sl, lsr #30
    1f48:	0007dd00 	andeq	sp, r7, r0, lsl #26
    1f4c:	8d781a00 	vldmdbhi	r8!, {s3-s2}
    1f50:	006c0000 	rsbeq	r0, ip, r0
    1f54:	5a1b0000 	bpl	6c1f5c <__bss_end__+0x6b756c>
    1f58:	2b000005 	blcs	1f74 <__code_start__-0x608c>
    1f5c:	00000565 	andeq	r0, r0, r5, ror #10
    1f60:	a3a00305 	movge	r0, #335544320	; 0x14000000
    1f64:	78190000 	ldmdavc	r9, {}	; <UNPREDICTABLE>
    1f68:	78000005 	stmdavc	r0, {r0, r2}
    1f6c:	0400008d 	streq	r0, [r0], #-141	; 0x8d
    1f70:	05000000 	streq	r0, [r0, #-0]
    1f74:	0008db10 	andeq	sp, r8, r0, lsl fp
    1f78:	059b2900 	ldreq	r2, [fp, #2304]	; 0x900
    1f7c:	29040000 	stmdbcs	r4, {}	; <UNPREDICTABLE>
    1f80:	00000591 	muleq	r0, r1, r5
    1f84:	05882a00 	streq	r2, [r8, #2560]	; 0xa00
    1f88:	07dd0000 	ldrbeq	r0, [sp, r0]
    1f8c:	781a0000 	ldmdavc	sl, {}	; <UNPREDICTABLE>
    1f90:	0400008d 	streq	r0, [r0], #-141	; 0x8d
    1f94:	2c000000 	stccs	0, cr0, [r0], {-0}
    1f98:	000005b2 			; <UNDEFINED> instruction: 0x000005b2
    1f9c:	05a52b05 	streq	r2, [r5, #2821]!	; 0xb05
    1fa0:	03050000 	movweq	r0, #20480	; 0x5000
    1fa4:	0000a3ac 	andeq	sl, r0, ip, lsr #7
    1fa8:	c6190000 	ldrgt	r0, [r9], -r0
    1fac:	7c000001 	stcvc	0, cr0, [r0], {1}
    1fb0:	3c00008d 	stccc	0, cr0, [r0], {141}	; 0x8d
    1fb4:	05000000 	streq	r0, [r0, #-0]
    1fb8:	0008f411 	andeq	pc, r8, r1, lsl r4	; <UNPREDICTABLE>
    1fbc:	01d62d00 	bicseq	r2, r6, r0, lsl #26
    1fc0:	20000000 	andcs	r0, r0, r0
    1fc4:	00008dc4 	andeq	r8, r0, r4, asr #27
    1fc8:	00000e8e 	andeq	r0, r0, lr, lsl #29
    1fcc:	008de01e 	addeq	lr, sp, lr, lsl r0
    1fd0:	000e7800 	andeq	r7, lr, r0, lsl #16
    1fd4:	00093500 	andeq	r3, r9, r0, lsl #10
    1fd8:	53011f00 	movwpl	r1, #7936	; 0x1f00
    1fdc:	011f4101 	tsteq	pc, r1, lsl #2
    1fe0:	a0030552 	andge	r0, r3, r2, asr r5
    1fe4:	1f0000a3 	svcne	0x000000a3
    1fe8:	03055101 	movweq	r5, #20737	; 0x5101
    1fec:	0000a2cc 	andeq	sl, r0, ip, asr #5
    1ff0:	0550011f 	ldrbeq	r0, [r0, #-287]	; 0x11f
    1ff4:	009d8403 	addseq	r8, sp, r3, lsl #8
    1ff8:	7d021f00 	stcvc	15, cr1, [r2, #-0]
    1ffc:	a8030500 	stmdage	r3, {r8, sl}
    2000:	0000009d 	muleq	r0, sp, r0
    2004:	008de420 	addeq	lr, sp, r0, lsr #8
    2008:	000e9500 	andeq	r9, lr, r0, lsl #10
    200c:	20000000 	andcs	r0, r0, r0
    2010:	00008e60 	andeq	r8, r0, r0, ror #28
    2014:	00000e8e 	andeq	r0, r0, lr, lsl #29
    2018:	008e781e 	addeq	r7, lr, lr, lsl r8
    201c:	000e7800 	andeq	r7, lr, r0, lsl #16
    2020:	00097f00 	andeq	r7, r9, r0, lsl #30
    2024:	53011f00 	movwpl	r1, #7936	; 0x1f00
    2028:	1f210802 	svcne	0x00210802
    202c:	03055201 	movweq	r5, #20993	; 0x5201
    2030:	0000a394 	muleq	r0, r4, r3
    2034:	0551011f 	ldrbeq	r0, [r1, #-287]	; 0x11f
    2038:	00a2cc03 	adceq	ip, r2, r3, lsl #24
    203c:	50011f00 	andpl	r1, r1, r0, lsl #30
    2040:	9dbc0305 	ldcls	3, cr0, [ip, #20]!
    2044:	021f0000 	andseq	r0, pc, #0
    2048:	7502007d 	strvc	r0, [r2, #-125]	; 0x7d
    204c:	7c200000 	stcvc	0, cr0, [r0], #-0
    2050:	9500008e 	strls	r0, [r0, #-142]	; 0x8e
    2054:	0000000e 	andeq	r0, r0, lr
    2058:	01e21900 	mvneq	r1, r0, lsl #18
    205c:	8e880000 	cdphi	0, 8, cr0, cr8, cr0, {0}
    2060:	00040000 	andeq	r0, r4, r0
    2064:	53010000 	movwpl	r0, #4096	; 0x1000
    2068:	000009ad 	andeq	r0, r0, sp, lsr #19
    206c:	008e881a 	addeq	r8, lr, sl, lsl r8
    2070:	00000400 	andeq	r0, r0, r0, lsl #8
    2074:	01f21b00 	mvnseq	r1, r0, lsl #22
    2078:	00000000 	andeq	r0, r0, r0
    207c:	00053f19 	andeq	r3, r5, r9, lsl pc
    2080:	008e9c00 	addeq	r9, lr, r0, lsl #24
    2084:	00006c00 	andeq	r6, r0, r0, lsl #24
    2088:	8b570100 	blhi	15c2490 <__bss_end__+0x15b7aa0>
    208c:	2a00000a 	bcs	20bc <__code_start__-0x5f44>
    2090:	0000054f 	andeq	r0, r0, pc, asr #10
    2094:	000007f0 	strdeq	r0, [r0], -r0	; <UNPREDICTABLE>
    2098:	008e9c1a 	addeq	r9, lr, sl, lsl ip
    209c:	00006c00 	andeq	r6, r0, r0, lsl #24
    20a0:	055a1b00 	ldrbeq	r1, [sl, #-2816]	; 0xb00
    20a4:	652b0000 	strvs	r0, [fp, #-0]!
    20a8:	05000005 	streq	r0, [r0, #-5]
    20ac:	00a3a003 	adceq	sl, r3, r3
    20b0:	05781900 	ldrbeq	r1, [r8, #-2304]!	; 0x900
    20b4:	8e9c0000 	cdphi	0, 9, cr0, cr12, cr0, {0}
    20b8:	00040000 	andeq	r0, r4, r0
    20bc:	10050000 	andne	r0, r5, r0
    20c0:	00000a26 	andeq	r0, r0, r6, lsr #20
    20c4:	00059b29 	andeq	r9, r5, r9, lsr #22
    20c8:	91290400 	teqls	r9, r0, lsl #8
    20cc:	00000005 	andeq	r0, r0, r5
    20d0:	0005882a 	andeq	r8, r5, sl, lsr #16
    20d4:	0007f000 	andeq	pc, r7, r0
    20d8:	8e9c1a00 	vfnmshi.f32	s2, s24, s0
    20dc:	00040000 	andeq	r0, r4, r0
    20e0:	b22c0000 	eorlt	r0, ip, #0
    20e4:	05000005 	streq	r0, [r0, #-5]
    20e8:	0005a52b 	andeq	sl, r5, fp, lsr #10
    20ec:	ac030500 	cfstr32ge	mvfx0, [r3], {-0}
    20f0:	000000a3 	andeq	r0, r0, r3, lsr #1
    20f4:	01c61900 	biceq	r1, r6, r0, lsl #18
    20f8:	8ea00000 	cdphi	0, 10, cr0, cr0, cr0, {0}
    20fc:	003c0000 	eorseq	r0, ip, r0
    2100:	11050000 	mrsne	r0, (UNDEF: 5)
    2104:	00000a3f 	andeq	r0, r0, pc, lsr sl
    2108:	0001d62d 	andeq	sp, r1, sp, lsr #12
    210c:	e8200000 	stmda	r0!, {}	; <UNPREDICTABLE>
    2110:	8e00008e 	cdphi	0, 0, cr0, cr0, cr14, {4}
    2114:	1e00000e 	cdpne	0, 0, cr0, cr0, cr14, {0}
    2118:	00008f04 	andeq	r8, r0, r4, lsl #30
    211c:	00000e78 	andeq	r0, r0, r8, ror lr
    2120:	00000a80 	andeq	r0, r0, r0, lsl #21
    2124:	0153011f 	cmpeq	r3, pc, lsl r1
    2128:	52011f41 	andpl	r1, r1, #260	; 0x104
    212c:	a3a00305 	movge	r0, #335544320	; 0x14000000
    2130:	011f0000 	tsteq	pc, r0
    2134:	cc030551 	cfstr32gt	mvfx0, [r3], {81}	; 0x51
    2138:	1f0000a2 	svcne	0x000000a2
    213c:	03055001 	movweq	r5, #20481	; 0x5001
    2140:	00009d84 	andeq	r9, r0, r4, lsl #27
    2144:	007d021f 	rsbseq	r0, sp, pc, lsl r2
    2148:	9da80305 	stcls	3, cr0, [r8, #20]!
    214c:	20000000 	andcs	r0, r0, r0
    2150:	00008f08 	andeq	r8, r0, r8, lsl #30
    2154:	00000e95 	muleq	r0, r5, lr
    2158:	e2190000 	ands	r0, r9, #0
    215c:	08000001 	stmdaeq	r0, {r0}
    2160:	0400008f 	streq	r0, [r0], #-143	; 0x8f
    2164:	01000000 	mrseq	r0, (UNDEF: 0)
    2168:	000ab257 	andeq	fp, sl, r7, asr r2
    216c:	8f081a00 	svchi	0x00081a00
    2170:	00040000 	andeq	r0, r4, r0
    2174:	f21d0000 	vhadd.s16	d0, d13, d0
    2178:	03000001 	movweq	r0, #1
    217c:	00000008 	andeq	r0, r0, r8
    2180:	053f1900 	ldreq	r1, [pc, #-2304]!	; 1888 <__code_start__-0x6778>
    2184:	8f0c0000 	svchi	0x000c0000
    2188:	006c0000 	rsbeq	r0, ip, r0
    218c:	57010000 	strpl	r0, [r1, -r0]
    2190:	00000b90 	muleq	r0, r0, fp
    2194:	00054f2a 	andeq	r4, r5, sl, lsr #30
    2198:	00080300 	andeq	r0, r8, r0, lsl #6
    219c:	8f0c1a00 	svchi	0x000c1a00
    21a0:	006c0000 	rsbeq	r0, ip, r0
    21a4:	5a1b0000 	bpl	6c21ac <__bss_end__+0x6b77bc>
    21a8:	2b000005 	blcs	21c4 <__code_start__-0x5e3c>
    21ac:	00000565 	andeq	r0, r0, r5, ror #10
    21b0:	a3a00305 	movge	r0, #335544320	; 0x14000000
    21b4:	78190000 	ldmdavc	r9, {}	; <UNPREDICTABLE>
    21b8:	0c000005 	stceq	0, cr0, [r0], {5}
    21bc:	0400008f 	streq	r0, [r0], #-143	; 0x8f
    21c0:	05000000 	streq	r0, [r0, #-0]
    21c4:	000b2b10 	andeq	r2, fp, r0, lsl fp
    21c8:	059b2900 	ldreq	r2, [fp, #2304]	; 0x900
    21cc:	29040000 	stmdbcs	r4, {}	; <UNPREDICTABLE>
    21d0:	00000591 	muleq	r0, r1, r5
    21d4:	05882a00 	streq	r2, [r8, #2560]	; 0xa00
    21d8:	08030000 	stmdaeq	r3, {}	; <UNPREDICTABLE>
    21dc:	0c1a0000 	ldceq	0, cr0, [sl], {-0}
    21e0:	0400008f 	streq	r0, [r0], #-143	; 0x8f
    21e4:	2c000000 	stccs	0, cr0, [r0], {-0}
    21e8:	000005b2 			; <UNDEFINED> instruction: 0x000005b2
    21ec:	05a52b05 	streq	r2, [r5, #2821]!	; 0xb05
    21f0:	03050000 	movweq	r0, #20480	; 0x5000
    21f4:	0000a3ac 	andeq	sl, r0, ip, lsr #7
    21f8:	c6190000 	ldrgt	r0, [r9], -r0
    21fc:	10000001 	andne	r0, r0, r1
    2200:	3c00008f 	stccc	0, cr0, [r0], {143}	; 0x8f
    2204:	05000000 	streq	r0, [r0, #-0]
    2208:	000b4411 	andeq	r4, fp, r1, lsl r4
    220c:	01d62d00 	bicseq	r2, r6, r0, lsl #26
    2210:	20000000 	andcs	r0, r0, r0
    2214:	00008f58 	andeq	r8, r0, r8, asr pc
    2218:	00000e8e 	andeq	r0, r0, lr, lsl #29
    221c:	008f741e 	addeq	r7, pc, lr, lsl r4	; <UNPREDICTABLE>
    2220:	000e7800 	andeq	r7, lr, r0, lsl #16
    2224:	000b8500 	andeq	r8, fp, r0, lsl #10
    2228:	53011f00 	movwpl	r1, #7936	; 0x1f00
    222c:	011f4101 	tsteq	pc, r1, lsl #2
    2230:	a0030552 	andge	r0, r3, r2, asr r5
    2234:	1f0000a3 	svcne	0x000000a3
    2238:	03055101 	movweq	r5, #20737	; 0x5101
    223c:	0000a2cc 	andeq	sl, r0, ip, asr #5
    2240:	0550011f 	ldrbeq	r0, [r0, #-287]	; 0x11f
    2244:	009d8403 	addseq	r8, sp, r3, lsl #8
    2248:	7d021f00 	stcvc	15, cr1, [r2, #-0]
    224c:	a8030500 	stmdage	r3, {r8, sl}
    2250:	0000009d 	muleq	r0, sp, r0
    2254:	008f7820 	addeq	r7, pc, r0, lsr #16
    2258:	000e9500 	andeq	r9, lr, r0, lsl #10
    225c:	21000000 	mrscs	r0, (UNDEF: 0)
    2260:	00008b8c 	andeq	r8, r0, ip, lsl #23
    2264:	00000ba0 	andeq	r0, r0, r0, lsr #23
    2268:	0250011f 	subseq	r0, r0, #-1073741817	; 0xc0000007
    226c:	1e000074 	mcrne	0, 0, r0, cr0, cr4, {3}
    2270:	00008bb4 			; <UNDEFINED> instruction: 0x00008bb4
    2274:	00000e78 	andeq	r0, r0, r8, ror lr
    2278:	00000bc6 	andeq	r0, r0, r6, asr #23
    227c:	0253011f 	subseq	r0, r3, #-1073741817	; 0xc0000007
    2280:	011f3308 	tsteq	pc, r8, lsl #6
    2284:	00790252 	rsbseq	r0, r9, r2, asr r2
    2288:	0251011f 	subseq	r0, r1, #-1073741817	; 0xc0000007
    228c:	011f007a 	tsteq	pc, sl, ror r0	; <UNPREDICTABLE>
    2290:	007b0250 	rsbseq	r0, fp, r0, asr r2
    2294:	8bc01e00 	blhi	ff009a9c <__bss_end__+0xfefff0ac>
    2298:	0ead0000 	cdpeq	0, 10, cr0, cr13, cr0, {0}
    229c:	0bdf0000 	bleq	ff7c22a4 <__bss_end__+0xff7b78b4>
    22a0:	011f0000 	tsteq	pc, r0
    22a4:	00750251 	rsbseq	r0, r5, r1, asr r2
    22a8:	0150011f 	cmpeq	r0, pc, lsl r1
    22ac:	e81e0030 	ldmda	lr, {r4, r5}
    22b0:	c300008b 	movwgt	r0, #139	; 0x8b
    22b4:	f900000e 			; <UNDEFINED> instruction: 0xf900000e
    22b8:	1f00000b 	svcne	0x0000000b
    22bc:	74025201 	strvc	r5, [r2], #-513	; 0x201
    22c0:	50011f00 	andpl	r1, r1, r0, lsl #30
    22c4:	00007702 	andeq	r7, r0, r2, lsl #14
    22c8:	008c0021 	addeq	r0, ip, r1, lsr #32
    22cc:	000c0900 	andeq	r0, ip, r0, lsl #18
    22d0:	50011f00 	andpl	r1, r1, r0, lsl #30
    22d4:	00007402 	andeq	r7, r0, r2, lsl #8
    22d8:	008c0c21 	addeq	r0, ip, r1, lsr #24
    22dc:	000c1900 	andeq	r1, ip, r0, lsl #18
    22e0:	50011f00 	andpl	r1, r1, r0, lsl #30
    22e4:	00007402 	andeq	r7, r0, r2, lsl #8
    22e8:	008c241e 	addeq	r2, ip, lr, lsl r4
    22ec:	000e7800 	andeq	r7, lr, r0, lsl #16
    22f0:	000c3000 	andeq	r3, ip, r0
    22f4:	50011f00 	andpl	r1, r1, r0, lsl #30
    22f8:	a2500305 	subsge	r0, r0, #335544320	; 0x14000000
    22fc:	1e000000 	cdpne	0, 0, cr0, cr0, cr0, {0}
    2300:	00008c58 	andeq	r8, r0, r8, asr ip
    2304:	00000e78 	andeq	r0, r0, r8, ror lr
    2308:	00000c47 	andeq	r0, r0, r7, asr #24
    230c:	0550011f 	ldrbeq	r0, [r0, #-287]	; 0x11f
    2310:	00a29803 	adceq	r9, r2, r3, lsl #16
    2314:	741e0000 	ldrvc	r0, [lr], #-0
    2318:	7800008d 	stmdavc	r0, {r0, r2, r3, r7}
    231c:	6400000e 	strvs	r0, [r0], #-14
    2320:	1f00000c 	svcne	0x0000000c
    2324:	78025201 	stmdavc	r2, {r0, r9, ip, lr}
    2328:	50011f00 	andpl	r1, r1, r0, lsl #30
    232c:	9f5c0305 	svcls	0x005c0305
    2330:	1e000000 	cdpne	0, 0, cr0, cr0, cr0, {0}
    2334:	00008e94 	muleq	r0, r4, lr
    2338:	00000e78 	andeq	r0, r0, r8, ror lr
    233c:	00000c7b 	andeq	r0, r0, fp, ror ip
    2340:	0550011f 	ldrbeq	r0, [r0, #-287]	; 0x11f
    2344:	009efc03 	addseq	pc, lr, r3, lsl #24
    2348:	9c1e0000 	ldcls	0, cr0, [lr], {-0}
    234c:	9c00008e 	stcls	0, cr0, [r0], {142}	; 0x8e
    2350:	8e00000e 	cdphi	0, 0, cr0, cr0, cr14, {0}
    2354:	1f00000c 	svcne	0x0000000c
    2358:	30015001 	andcc	r5, r1, r1
    235c:	8f842000 	svchi	0x00842000
    2360:	0e8e0000 	cdpeq	0, 8, cr0, cr14, cr0, {0}
    2364:	a01e0000 	andsge	r0, lr, r0
    2368:	7800008f 	stmdavc	r0, {r0, r1, r2, r3, r7}
    236c:	ca00000e 	bgt	23ac <__code_start__-0x5c54>
    2370:	1f00000c 	svcne	0x0000000c
    2374:	08025301 	stmdaeq	r2, {r0, r8, r9, ip, lr}
    2378:	52011f57 	andpl	r1, r1, #348	; 0x15c
    237c:	1f007902 	svcne	0x00007902
    2380:	7a025101 	bvc	9678c <__bss_end__+0x8bd9c>
    2384:	50011f00 	andpl	r1, r1, r0, lsl #30
    2388:	9d840305 	stcls	3, cr0, [r4, #20]
    238c:	021f0000 	andseq	r0, pc, #0
    2390:	0305007d 	movweq	r0, #20605	; 0x507d
    2394:	0000a2d8 	ldrdeq	sl, [r0], -r8
    2398:	8fa42000 	svchi	0x00a42000
    239c:	0e950000 	cdpeq	0, 9, cr0, cr5, cr0, {0}
    23a0:	23000000 	movwcs	r0, #0
    23a4:	0000007f 	andeq	r0, r0, pc, ror r0
    23a8:	00000ce4 	andeq	r0, r0, r4, ror #25
    23ac:	00007624 	andeq	r7, r0, r4, lsr #12
    23b0:	07001100 	streq	r1, [r0, -r0, lsl #2]
    23b4:	00000cd4 	ldrdeq	r0, [r0], -r4
    23b8:	00048227 	andeq	r8, r4, r7, lsr #4
    23bc:	2c630100 	stfcse	f0, [r3], #-0
    23c0:	24000000 	strcs	r0, [r0], #-0
    23c4:	84000090 	strhi	r0, [r0], #-144	; 0x90
    23c8:	01000000 	mrseq	r0, (UNDEF: 0)
    23cc:	000dad9c 	muleq	sp, ip, sp
    23d0:	00631600 	rsbeq	r1, r3, r0, lsl #12
    23d4:	046e6301 	strbteq	r6, [lr], #-769	; 0x301
    23d8:	08160000 	ldmdaeq	r6, {}	; <UNPREDICTABLE>
    23dc:	69180000 	ldmdbvs	r8, {}	; <UNPREDICTABLE>
    23e0:	2c650100 	stfcse	f0, [r5], #-0
    23e4:	34000000 	strcc	r0, [r0], #-0
    23e8:	17000008 	strne	r0, [r0, -r8]
    23ec:	0000012a 	andeq	r0, r0, sl, lsr #2
    23f0:	00000dbd 			; <UNDEFINED> instruction: 0x00000dbd
    23f4:	a3400305 	movtge	r0, #773	; 0x305
    23f8:	40210000 	eormi	r0, r1, r0
    23fc:	3b000090 	blcc	2644 <__code_start__-0x59bc>
    2400:	1f00000d 	svcne	0x0000000d
    2404:	74025001 	strvc	r5, [r2], #-1
    2408:	4c210000 	stcmi	0, cr0, [r1], #-0
    240c:	4b000090 	blmi	2654 <__code_start__-0x59ac>
    2410:	1f00000d 	svcne	0x0000000d
    2414:	74025001 	strvc	r5, [r2], #-1
    2418:	58210000 	stmdapl	r1!, {}	; <UNPREDICTABLE>
    241c:	5b000090 	blpl	2664 <__code_start__-0x599c>
    2420:	1f00000d 	svcne	0x0000000d
    2424:	74025001 	strvc	r5, [r2], #-1
    2428:	64210000 	strtvs	r0, [r1], #-0
    242c:	6b000090 	blvs	2674 <__code_start__-0x598c>
    2430:	1f00000d 	svcne	0x0000000d
    2434:	74025001 	strvc	r5, [r2], #-1
    2438:	70200000 	eorvc	r0, r0, r0
    243c:	8e000090 	mcrhi	0, 0, r0, cr0, cr0, {4}
    2440:	1e00000e 	cdpne	0, 0, cr0, cr0, cr14, {0}
    2444:	00009084 	andeq	r9, r0, r4, lsl #1
    2448:	00000e78 	andeq	r0, r0, r8, ror lr
    244c:	00000da3 	andeq	r0, r0, r3, lsr #27
    2450:	0253011f 	subseq	r0, r3, #-1073741817	; 0xc0000007
    2454:	011f6c08 	tsteq	pc, r8, lsl #24
    2458:	40030552 	andmi	r0, r3, r2, asr r5
    245c:	1f0000a3 	svcne	0x000000a3
    2460:	03055101 	movweq	r5, #20737	; 0x5101
    2464:	0000a198 	muleq	r0, r8, r1
    2468:	0550011f 	ldrbeq	r0, [r0, #-287]	; 0x11f
    246c:	00a30403 	adceq	r0, r3, r3, lsl #8
    2470:	88200000 	stmdahi	r0!, {}	; <UNPREDICTABLE>
    2474:	95000090 	strls	r0, [r0, #-144]	; 0x90
    2478:	0000000e 	andeq	r0, r0, lr
    247c:	00007f23 	andeq	r7, r0, r3, lsr #30
    2480:	000dbd00 	andeq	fp, sp, r0, lsl #26
    2484:	00762400 	rsbseq	r2, r6, r0, lsl #8
    2488:	00100000 	andseq	r0, r0, r0
    248c:	000dad07 	andeq	sl, sp, r7, lsl #26
    2490:	04441400 	strbeq	r1, [r4], #-1024	; 0x400
    2494:	7b010000 	blvc	4249c <__bss_end__+0x37aac>
    2498:	000090a8 	andeq	r9, r0, r8, lsr #1
    249c:	00000028 	andeq	r0, r0, r8, lsr #32
    24a0:	0de39c01 	stcleq	12, cr9, [r3, #4]!
    24a4:	632e0000 	teqvs	lr, #0
    24a8:	6e7b0100 	rpwvse	f0, f3, f0
    24ac:	01000004 	tsteq	r0, r4
    24b0:	622f0050 	eorvs	r0, pc, #80	; 0x50
    24b4:	01000004 	tsteq	r0, r4
    24b8:	00002586 	andeq	r2, r0, r6, lsl #11
    24bc:	0090d000 	addseq	sp, r0, r0
    24c0:	00004c00 	andeq	r4, r0, r0, lsl #24
    24c4:	4b9c0100 	blmi	fe7028cc <__bss_end__+0xfe6f7edc>
    24c8:	1600000e 	strne	r0, [r0], -lr
    24cc:	86010063 	strhi	r0, [r1], -r3, rrx
    24d0:	0000046e 	andeq	r0, r0, lr, ror #8
    24d4:	00000853 	andeq	r0, r0, r3, asr r8
    24d8:	0090dc20 	addseq	sp, r0, r0, lsr #24
    24dc:	000eef00 	andeq	lr, lr, r0, lsl #30
    24e0:	90e41e00 	rscls	r1, r4, r0, lsl #28
    24e4:	0dc20000 	stcleq	0, cr0, [r2]
    24e8:	0e260000 	cdpeq	0, 2, cr0, cr6, cr0, {0}
    24ec:	011f0000 	tsteq	pc, r0
    24f0:	00740250 	rsbseq	r0, r4, r0, asr r2
    24f4:	90ec1e00 	rscls	r1, ip, r0, lsl #28
    24f8:	0ce90000 	stcleq	0, cr0, [r9]
    24fc:	0e3a0000 	cdpeq	0, 3, cr0, cr10, cr0, {0}
    2500:	011f0000 	tsteq	pc, r0
    2504:	00740250 	rsbseq	r0, r4, r0, asr r2
    2508:	90fc2200 	rscsls	r2, ip, r0, lsl #4
    250c:	05c10000 	strbeq	r0, [r1]
    2510:	011f0000 	tsteq	pc, r0
    2514:	00740250 	rsbseq	r0, r4, r0, asr r2
    2518:	e4280000 	strt	r0, [r8], #-0
    251c:	01000004 	tsteq	r0, r4
    2520:	00046e06 	andeq	r6, r4, r6, lsl #28
    2524:	e8030500 	stmda	r3, {r8, sl}
    2528:	280000a5 	stmdacs	r0, {r0, r2, r5, r7}
    252c:	000000fe 	strdeq	r0, [r0], -lr
    2530:	007d0801 	rsbseq	r0, sp, r1, lsl #16
    2534:	03050000 	movweq	r0, #20480	; 0x5000
    2538:	0000a5ec 	andeq	sl, r0, ip, ror #11
    253c:	00028d30 	andeq	r8, r2, r0, lsr sp
    2540:	25c20200 	strbcs	r0, [r2, #512]	; 0x200
    2544:	31000000 	mrscc	r0, (UNDEF: 0)
    2548:	00000563 	andeq	r0, r0, r3, ror #10
    254c:	00252908 	eoreq	r2, r5, r8, lsl #18
    2550:	0e8e0000 	cdpeq	0, 8, cr0, cr14, cr0, {0}
    2554:	86090000 	strhi	r0, [r9], -r0
    2558:	32000000 	andcc	r0, r0, #0
    255c:	027e3300 	rsbseq	r3, lr, #0, 6
    2560:	1e080000 	cdpne	0, 0, cr0, cr8, cr0, {0}
    2564:	0000f133 	andeq	pc, r0, r3, lsr r1	; <UNPREDICTABLE>
    2568:	34650800 	strbtcc	r0, [r5], #-2048	; 0x800
    256c:	00000034 	andeq	r0, r0, r4, lsr r0
    2570:	0eade302 	cdpeq	3, 10, cr14, cr13, cr2, {0}
    2574:	5d090000 	stcpl	0, cr0, [r9, #-0]
    2578:	00000000 	andeq	r0, r0, r0
    257c:	00000934 	andeq	r0, r0, r4, lsr r9
    2580:	c3d90200 	bicsgt	r0, r9, #0, 4
    2584:	0900000e 	stmdbeq	r0, {r1, r2, r3}
    2588:	0000005d 	andeq	r0, r0, sp, asr r0
    258c:	00009109 	andeq	r9, r0, r9, lsl #2
    2590:	e7340000 	ldr	r0, [r4, -r0]!
    2594:	02000001 	andeq	r0, r0, #1
    2598:	000edef3 	strdeq	sp, [lr], -r3
    259c:	005d0900 	subseq	r0, sp, r0, lsl #18
    25a0:	de090000 	cdple	0, 0, cr0, cr9, cr0, {0}
    25a4:	0900000e 	stmdbeq	r0, {r1, r2, r3}
    25a8:	0000007d 	andeq	r0, r0, sp, ror r0
    25ac:	e4040600 	str	r0, [r4], #-1536	; 0x600
    25b0:	0800000e 	stmdaeq	r0, {r1, r2, r3}
    25b4:	00000eef 	andeq	r0, r0, pc, ror #29
    25b8:	00007d09 	andeq	r7, r0, r9, lsl #26
    25bc:	69330000 	ldmdbvs	r3!, {}	; <UNPREDICTABLE>
    25c0:	02000002 	andeq	r0, r0, #2
    25c4:	01910090 			; <UNDEFINED> instruction: 0x01910090
    25c8:	00040000 	andeq	r0, r4, r0
    25cc:	000007a0 	andeq	r0, r0, r0, lsr #15
    25d0:	05090104 	streq	r0, [r9, #-260]	; 0x104
    25d4:	fb010000 	blx	425de <__bss_end__+0x37bee>
    25d8:	74000004 	strvc	r0, [r0], #-4
    25dc:	1c000005 	stcne	0, cr0, [r0], {5}
    25e0:	58000091 	stmdapl	r0, {r0, r4, r7}
    25e4:	7e000000 	cdpvc	0, 0, cr0, cr0, cr0, {0}
    25e8:	02000006 	andeq	r0, r0, #6
    25ec:	000004ec 	andeq	r0, r0, ip, ror #9
    25f0:	00302802 	eorseq	r2, r0, r2, lsl #16
    25f4:	6a030000 	bvs	c25fc <__bss_end__+0xb7c0c>
    25f8:	04000005 	streq	r0, [r0], #-5
    25fc:	00470003 	subeq	r0, r7, r3
    2600:	ba040000 	blt	102608 <__bss_end__+0xf7c18>
    2604:	47000005 	strmi	r0, [r0, -r5]
    2608:	00000000 	andeq	r0, r0, r0
    260c:	02040500 	andeq	r0, r4, #0, 10
    2610:	0000056c 	andeq	r0, r0, ip, ror #10
    2614:	00256202 	eoreq	r6, r5, r2, lsl #4
    2618:	04060000 	streq	r0, [r6], #-0
    261c:	746e6905 	strbtvc	r6, [lr], #-2309	; 0x905
    2620:	07040700 	streq	r0, [r4, -r0, lsl #14]
    2624:	000001c2 	andeq	r0, r0, r2, asr #3
    2628:	e5060107 	str	r0, [r6, #-263]	; 0x107
    262c:	07000000 	streq	r0, [r0, -r0]
    2630:	02370502 	eorseq	r0, r7, #8388608	; 0x800000
    2634:	04070000 	streq	r0, [r7], #-0
    2638:	00020005 	andeq	r0, r2, r5
    263c:	05080700 	streq	r0, [r8, #-1792]	; 0x700
    2640:	000001fb 	strdeq	r0, [r0], -fp
    2644:	e3080107 	movw	r0, #33031	; 0x8107
    2648:	07000000 	streq	r0, [r0, -r0]
    264c:	004c0702 	subeq	r0, ip, r2, lsl #14
    2650:	04070000 	streq	r0, [r7], #-0
    2654:	0001bd07 	andeq	fp, r1, r7, lsl #26
    2658:	07080700 	streq	r0, [r8, -r0, lsl #14]
    265c:	000001b8 			; <UNDEFINED> instruction: 0x000001b8
    2660:	de070407 	cdple	4, 0, cr0, cr7, cr7, {0}
    2664:	08000001 	stmdaeq	r0, {r0}
    2668:	0000a704 	andeq	sl, r0, r4, lsl #14
    266c:	08010700 	stmdaeq	r1, {r8, r9, sl}
    2670:	000000ec 	andeq	r0, r0, ip, ror #1
    2674:	00b40408 	adcseq	r0, r4, r8, lsl #8
    2678:	a7090000 	strge	r0, [r9, -r0]
    267c:	0a000000 	beq	2684 <__code_start__-0x597c>
    2680:	00000563 	andeq	r0, r0, r3, ror #10
    2684:	00540601 	subseq	r0, r4, r1, lsl #12
    2688:	911c0000 	tstls	ip, r0
    268c:	00580000 	subseq	r0, r8, r0
    2690:	9c010000 	stcls	0, cr0, [r1], {-0}
    2694:	00000143 	andeq	r0, r0, r3, asr #2
    2698:	746d660b 	strbtvc	r6, [sp], #-1547	; 0x60b
    269c:	ae060100 	adfges	f0, f6, f0
    26a0:	02000000 	andeq	r0, r0, #0
    26a4:	0d0c7091 	stceq	0, cr7, [ip, #-580]	; 0xfffffdbc
    26a8:	00667562 	rsbeq	r7, r6, r2, ror #10
    26ac:	01430801 	cmpeq	r3, r1, lsl #16
    26b0:	03050000 	movweq	r0, #20480	; 0x5000
    26b4:	0000a5f0 	strdeq	sl, [r0], -r0
    26b8:	000a760e 	andeq	r7, sl, lr, lsl #12
    26bc:	49090100 	stmdbmi	r9, {r8}
    26c0:	02000000 	andeq	r0, r0, #0
    26c4:	730f5c91 	movwvc	r5, #64657	; 0xfc91
    26c8:	0c01007a 	stceq	0, cr0, [r1], {122}	; 0x7a
    26cc:	00000054 	andeq	r0, r0, r4, asr r0
    26d0:	00000871 	andeq	r0, r0, r1, ror r8
    26d4:	00914410 	addseq	r4, r1, r0, lsl r4
    26d8:	00017400 	andeq	r7, r1, r0, lsl #8
    26dc:	00013600 	andeq	r3, r1, r0, lsl #12
    26e0:	53011100 	movwpl	r1, #4352	; 0x1100
    26e4:	114c9102 	cmpne	ip, r2, lsl #2
    26e8:	91035201 	tstls	r3, r1, lsl #4
    26ec:	01110648 	tsteq	r1, r8, asr #12
    26f0:	000a0351 	andeq	r0, sl, r1, asr r3
    26f4:	50011104 	andpl	r1, r1, r4, lsl #2
    26f8:	00007402 	andeq	r7, r0, r2, lsl #8
    26fc:	00915812 	addseq	r5, r1, r2, lsl r8
    2700:	50011100 	andpl	r1, r1, r0, lsl #2
    2704:	00007402 	andeq	r7, r0, r2, lsl #8
    2708:	00a71300 	adceq	r1, r7, r0, lsl #6
    270c:	01540000 	cmpeq	r4, r0
    2710:	9a140000 	bls	502718 <__bss_end__+0x4f7d28>
    2714:	ff000000 			; <UNDEFINED> instruction: 0xff000000
    2718:	54150003 	ldrpl	r0, [r5], #-3
    271c:	63000000 	movwvs	r0, #0
    2720:	16000001 	strne	r0, [r0], -r1
    2724:	000000ae 	andeq	r0, r0, lr, lsr #1
    2728:	06171700 	ldreq	r1, [r7], -r0, lsl #14
    272c:	22040000 	andcs	r0, r4, #0
    2730:	0000016e 	andeq	r0, r0, lr, ror #2
    2734:	01540408 	cmpeq	r4, r8, lsl #8
    2738:	60180000 	andsvs	r0, r8, r0
    273c:	05000005 	streq	r0, [r0, #-5]
    2740:	00005402 	andeq	r5, r0, r2, lsl #8
    2744:	00a11600 	adceq	r1, r1, r0, lsl #12
    2748:	54160000 	ldrpl	r0, [r6], #-0
    274c:	16000000 	strne	r0, [r0], -r0
    2750:	000000ae 	andeq	r0, r0, lr, lsr #1
    2754:	00004916 	andeq	r4, r0, r6, lsl r9
    2758:	13000000 	movwne	r0, #0
    275c:	04000001 	streq	r0, [r0], #-1
    2760:	0008d100 	andeq	sp, r8, r0, lsl #2
    2764:	09010400 	stmdbeq	r1, {sl}
    2768:	01000005 	tsteq	r0, r5
    276c:	000005e6 	andeq	r0, r0, r6, ror #11
    2770:	00000574 	andeq	r0, r0, r4, ror r5
    2774:	00009174 	andeq	r9, r0, r4, ror r1
    2778:	0000003c 	andeq	r0, r0, ip, lsr r0
    277c:	0000078e 	andeq	r0, r0, lr, lsl #15
    2780:	69050402 	stmdbvs	r5, {r1, sl}
    2784:	0300746e 	movweq	r7, #1134	; 0x46e
    2788:	01c20704 	biceq	r0, r2, r4, lsl #14
    278c:	01030000 	mrseq	r0, (UNDEF: 3)
    2790:	0000e506 	andeq	lr, r0, r6, lsl #10
    2794:	05020300 	streq	r0, [r2, #-768]	; 0x300
    2798:	00000237 	andeq	r0, r0, r7, lsr r2
    279c:	00050403 	andeq	r0, r5, r3, lsl #8
    27a0:	03000002 	movweq	r0, #2
    27a4:	01fb0508 	mvnseq	r0, r8, lsl #10
    27a8:	01030000 	mrseq	r0, (UNDEF: 3)
    27ac:	0000e308 	andeq	lr, r0, r8, lsl #6
    27b0:	07020300 	streq	r0, [r2, -r0, lsl #6]
    27b4:	0000004c 	andeq	r0, r0, ip, asr #32
    27b8:	bd070403 	cfstrslt	mvf0, [r7, #-12]
    27bc:	03000001 	movweq	r0, #1
    27c0:	01b80708 			; <UNDEFINED> instruction: 0x01b80708
    27c4:	04030000 	streq	r0, [r3], #-0
    27c8:	0001de07 	andeq	sp, r1, r7, lsl #28
    27cc:	08010300 	stmdaeq	r1, {r8, r9}
    27d0:	000000ec 	andeq	r0, r0, ip, ror #1
    27d4:	0005c904 	andeq	ip, r5, r4, lsl #18
    27d8:	25030100 	strcs	r0, [r3, #-256]	; 0x100
    27dc:	74000000 	strvc	r0, [r0], #-0
    27e0:	14000091 	strne	r0, [r0], #-145	; 0x91
    27e4:	01000000 	mrseq	r0, (UNDEF: 0)
    27e8:	0000b09c 	muleq	r0, ip, r0
    27ec:	00630500 	rsbeq	r0, r3, r0, lsl #10
    27f0:	00250301 	eoreq	r0, r5, r1, lsl #6
    27f4:	089a0000 	ldmeq	sl, {}	; <UNPREDICTABLE>
    27f8:	80060000 	andhi	r0, r6, r0
    27fc:	09000091 	stmdbeq	r0, {r0, r4, r7}
    2800:	07000001 	streq	r0, [r0, -r1]
    2804:	74025001 	strvc	r5, [r2], #-1
    2808:	08000000 	stmdaeq	r0, {}	; <UNPREDICTABLE>
    280c:	0000027e 	andeq	r0, r0, lr, ror r2
    2810:	91880801 	orrls	r0, r8, r1, lsl #16
    2814:	00180000 	andseq	r0, r8, r0
    2818:	9c010000 	stcls	0, cr0, [r1], {-0}
    281c:	0005f509 	andeq	pc, r5, r9, lsl #10
    2820:	a00b0100 	andge	r0, fp, r0, lsl #2
    2824:	10000091 	mulne	r0, r1, r0
    2828:	01000000 	mrseq	r0, (UNDEF: 0)
    282c:	0000e39c 	muleq	r0, ip, r3
    2830:	70660a00 	rsbvc	r0, r6, r0, lsl #20
    2834:	f20b0100 	vrhadd.s8	d0, d11, d0
    2838:	01000000 	mrseq	r0, (UNDEF: 0)
    283c:	250b0050 	strcs	r0, [fp, #-80]	; 0x50
    2840:	f2000000 	vhadd.s8	d0, d0, d0
    2844:	0c000000 	stceq	0, cr0, [r0], {-0}
    2848:	00000025 	andeq	r0, r0, r5, lsr #32
    284c:	e3040d00 	movw	r0, #19712	; 0x4d00
    2850:	0e000000 	cdpeq	0, 0, cr0, cr0, cr0, {0}
    2854:	000005da 	ldrdeq	r0, [r0], -sl
    2858:	00f20601 	rscseq	r0, r2, r1, lsl #12
    285c:	03050000 	movweq	r0, #20480	; 0x5000
    2860:	00009d28 	andeq	r9, r0, r8, lsr #26
    2864:	0005bf0f 	andeq	fp, r5, pc, lsl #30
    2868:	0c3c0200 	lfmeq	f0, 4, [ip], #-0
    286c:	0000002c 	andeq	r0, r0, ip, lsr #32
    2870:	00ee0000 	rsceq	r0, lr, r0
    2874:	00040000 	andeq	r0, r4, r0
    2878:	000009b9 			; <UNDEFINED> instruction: 0x000009b9
    287c:	05090104 	streq	r0, [r9, #-260]	; 0x104
    2880:	02010000 	andeq	r0, r1, #0
    2884:	74000006 	strvc	r0, [r0], #-6
    2888:	b0000005 	andlt	r0, r0, r5
    288c:	34000091 	strcc	r0, [r0], #-145	; 0x91
    2890:	26000000 	strcs	r0, [r0], -r0
    2894:	02000008 	andeq	r0, r0, #8
    2898:	6e690504 	cdpvs	5, 6, cr0, cr9, cr4, {0}
    289c:	04030074 	streq	r0, [r3], #-116	; 0x74
    28a0:	0001c207 	andeq	ip, r1, r7, lsl #4
    28a4:	06010300 	streq	r0, [r1], -r0, lsl #6
    28a8:	000000e5 	andeq	r0, r0, r5, ror #1
    28ac:	37050203 	strcc	r0, [r5, -r3, lsl #4]
    28b0:	03000002 	movweq	r0, #2
    28b4:	02000504 	andeq	r0, r0, #4, 10	; 0x1000000
    28b8:	08030000 	stmdaeq	r3, {}	; <UNPREDICTABLE>
    28bc:	0001fb05 	andeq	pc, r1, r5, lsl #22
    28c0:	08010300 	stmdaeq	r1, {r8, r9}
    28c4:	000000e3 	andeq	r0, r0, r3, ror #1
    28c8:	4c070203 	sfmmi	f0, 4, [r7], {3}
    28cc:	03000000 	movweq	r0, #0
    28d0:	01bd0704 			; <UNDEFINED> instruction: 0x01bd0704
    28d4:	08030000 	stmdaeq	r3, {}	; <UNPREDICTABLE>
    28d8:	0001b807 	andeq	fp, r1, r7, lsl #16
    28dc:	07040300 	streq	r0, [r4, -r0, lsl #6]
    28e0:	000001de 	ldrdeq	r0, [r0], -lr
    28e4:	ec080103 	stfs	f0, [r8], {3}
    28e8:	04000000 	streq	r0, [r0], #-0
    28ec:	00007f04 	andeq	r7, r0, r4, lsl #30
    28f0:	00720500 	rsbseq	r0, r2, r0, lsl #10
    28f4:	0e060000 	cdpeq	0, 0, cr0, cr6, cr0, {0}
    28f8:	01000006 	tsteq	r0, r6
    28fc:	00002504 	andeq	r2, r0, r4, lsl #10
    2900:	0091b000 	addseq	fp, r1, r0
    2904:	00003400 	andeq	r3, r0, r0, lsl #8
    2908:	ab9c0100 	blge	fe702d10 <__bss_end__+0xfe6f8320>
    290c:	07000000 	streq	r0, [r0, -r0]
    2910:	04010070 	streq	r0, [r1], #-112	; 0x70
    2914:	00000079 	andeq	r0, r0, r9, ror r0
    2918:	000008b8 			; <UNDEFINED> instruction: 0x000008b8
    291c:	00250800 	eoreq	r0, r5, r0, lsl #16
    2920:	00ba0000 	adcseq	r0, sl, r0
    2924:	25090000 	strcs	r0, [r9, #-0]
    2928:	00000000 	andeq	r0, r0, r0
    292c:	0005da0a 	andeq	sp, r5, sl, lsl #20
    2930:	c51d0200 	ldrgt	r0, [sp, #-512]	; 0x200
    2934:	04000000 	streq	r0, [r0], #-0
    2938:	0000ab04 	andeq	sl, r0, r4, lsl #22
    293c:	00250800 	eoreq	r0, r5, r0, lsl #16
    2940:	00da0000 	sbcseq	r0, sl, r0
    2944:	79090000 	stmdbvc	r9, {}	; <UNPREDICTABLE>
    2948:	00000000 	andeq	r0, r0, r0
    294c:	0006170b 	andeq	r1, r6, fp, lsl #14
    2950:	eb0c0100 	bl	302d58 <__bss_end__+0x2f8368>
    2954:	05000000 	streq	r0, [r0, #-0]
    2958:	009d2c03 	addseq	r2, sp, r3, lsl #24
    295c:	cb040400 	blgt	103964 <__bss_end__+0xf8f74>
    2960:	00000000 	andeq	r0, r0, r0
    2964:	000006e5 	andeq	r0, r0, r5, ror #13
    2968:	0a520004 	beq	1482980 <__bss_end__+0x1477f90>
    296c:	01040000 	mrseq	r0, (UNDEF: 4)
    2970:	00000509 	andeq	r0, r0, r9, lsl #10
    2974:	00064d01 	andeq	r4, r6, r1, lsl #26
    2978:	00057400 	andeq	r7, r5, r0, lsl #8
    297c:	0091e400 	addseq	lr, r1, r0, lsl #8
    2980:	00057800 	andeq	r7, r5, r0, lsl #16
    2984:	0008ca00 	andeq	ip, r8, r0, lsl #20
    2988:	05040200 	streq	r0, [r4, #-512]	; 0x200
    298c:	00746e69 	rsbseq	r6, r4, r9, ror #28
    2990:	c2070403 	andgt	r0, r7, #50331648	; 0x3000000
    2994:	03000001 	movweq	r0, #1
    2998:	00e50601 	rsceq	r0, r5, r1, lsl #12
    299c:	02030000 	andeq	r0, r3, #0
    29a0:	00023705 	andeq	r3, r2, r5, lsl #14
    29a4:	05040300 	streq	r0, [r4, #-768]	; 0x300
    29a8:	00000200 	andeq	r0, r0, r0, lsl #4
    29ac:	fb050803 	blx	1449c2 <__bss_end__+0x139fd2>
    29b0:	03000001 	movweq	r0, #1
    29b4:	00e30801 	rsceq	r0, r3, r1, lsl #16
    29b8:	02030000 	andeq	r0, r3, #0
    29bc:	00004c07 	andeq	r4, r0, r7, lsl #24
    29c0:	07040300 	streq	r0, [r4, -r0, lsl #6]
    29c4:	000001bd 			; <UNDEFINED> instruction: 0x000001bd
    29c8:	b8070803 	stmdalt	r7, {r0, r1, fp}
    29cc:	03000001 	movweq	r0, #1
    29d0:	01de0704 	bicseq	r0, lr, r4, lsl #14
    29d4:	04040000 	streq	r0, [r4], #-0
    29d8:	007a0405 	rsbseq	r0, sl, r5, lsl #8
    29dc:	01030000 	mrseq	r0, (UNDEF: 3)
    29e0:	0000ec08 	andeq	lr, r0, r8, lsl #24
    29e4:	87040500 	strhi	r0, [r4, -r0, lsl #10]
    29e8:	06000000 	streq	r0, [r0], -r0
    29ec:	0000007a 	andeq	r0, r0, sl, ror r0
    29f0:	0004ec07 	andeq	lr, r4, r7, lsl #24
    29f4:	97280200 	strls	r0, [r8, -r0, lsl #4]!
    29f8:	08000000 	stmdaeq	r0, {}	; <UNPREDICTABLE>
    29fc:	0000056a 	andeq	r0, r0, sl, ror #10
    2a00:	ae000404 	cdpge	4, 0, cr0, cr0, cr4, {0}
    2a04:	09000000 	stmdbeq	r0, {}	; <UNPREDICTABLE>
    2a08:	000005ba 			; <UNDEFINED> instruction: 0x000005ba
    2a0c:	00000072 	andeq	r0, r0, r2, ror r0
    2a10:	6c070000 	stcvs	0, cr0, [r7], {-0}
    2a14:	02000005 	andeq	r0, r0, #5
    2a18:	00008c62 	andeq	r8, r0, r2, ror #24
    2a1c:	06340a00 	ldrteq	r0, [r4], -r0, lsl #20
    2a20:	27010000 	strcs	r0, [r1, -r0]
    2a24:	00000025 	andeq	r0, r0, r5, lsr #32
    2a28:	000091e4 	andeq	r9, r0, r4, ror #3
    2a2c:	00000014 	andeq	r0, r0, r4, lsl r0
    2a30:	00e09c01 	rsceq	r9, r0, r1, lsl #24
    2a34:	630b0000 	movwvs	r0, #45056	; 0xb000
    2a38:	25270100 	strcs	r0, [r7, #-256]!	; 0x100
    2a3c:	d6000000 	strle	r0, [r0], -r0
    2a40:	00000008 	andeq	r0, r0, r8
    2a44:	6461700c 	strbtvs	r7, [r1], #-12
    2a48:	742e0100 	strtvc	r0, [lr], #-256	; 0x100
    2a4c:	f8000000 			; <UNDEFINED> instruction: 0xf8000000
    2a50:	2c000091 	stccs	0, cr0, [r0], {145}	; 0x91
    2a54:	01000000 	mrseq	r0, (UNDEF: 0)
    2a58:	0001309c 	muleq	r1, ip, r0
    2a5c:	00700b00 	rsbseq	r0, r0, r0, lsl #22
    2a60:	00742e01 	rsbseq	r2, r4, r1, lsl #28
    2a64:	09040000 	stmdbeq	r4, {}	; <UNPREDICTABLE>
    2a68:	540d0000 	strpl	r0, [sp], #-0
    2a6c:	0100000a 	tsteq	r0, sl
    2a70:	0000742e 	andeq	r7, r0, lr, lsr #8
    2a74:	00092f00 	andeq	r2, r9, r0, lsl #30
    2a78:	066d0e00 	strbteq	r0, [sp], -r0, lsl #28
    2a7c:	2e010000 	cdpcs	0, 0, cr0, cr1, cr0, {0}
    2a80:	00000025 	andeq	r0, r0, r5, lsr #32
    2a84:	6c0f5201 	sfmvs	f5, 4, [pc], {1}
    2a88:	01006e65 	tsteq	r0, r5, ror #28
    2a8c:	0000252f 	andeq	r2, r0, pc, lsr #10
    2a90:	00510100 	subseq	r0, r1, r0, lsl #2
    2a94:	00062c0a 	andeq	r2, r6, sl, lsl #24
    2a98:	74370100 	ldrtvc	r0, [r7], #-256	; 0x100
    2a9c:	24000000 	strcs	r0, [r0], #-0
    2aa0:	40000092 	mulmi	r0, r2, r0
    2aa4:	01000000 	mrseq	r0, (UNDEF: 0)
    2aa8:	00019c9c 	muleq	r1, ip, ip
    2aac:	73640b00 	cmnvc	r4, #0, 22
    2ab0:	37010074 	smlsdxcc	r1, r4, r0, r0
    2ab4:	00000074 	andeq	r0, r0, r4, ror r0
    2ab8:	00000950 	andeq	r0, r0, r0, asr r9
    2abc:	01006e0b 	tsteq	r0, fp, lsl #28
    2ac0:	00002537 	andeq	r2, r0, r7, lsr r5
    2ac4:	00098800 	andeq	r8, r9, r0, lsl #16
    2ac8:	00700b00 	rsbseq	r0, r0, r0, lsl #22
    2acc:	00743701 	rsbseq	r3, r4, r1, lsl #14
    2ad0:	09a90000 	stmibeq	r9!, {}	; <UNPREDICTABLE>
    2ad4:	200d0000 	andcs	r0, sp, r0
    2ad8:	01000006 	tsteq	r0, r6
    2adc:	00007437 	andeq	r7, r0, r7, lsr r4
    2ae0:	0009df00 	andeq	sp, r9, r0, lsl #30
    2ae4:	656c1000 	strbvs	r1, [ip, #-0]!
    2ae8:	3901006e 	stmdbcc	r1, {r1, r2, r3, r5, r6}
    2aec:	00000025 	andeq	r0, r0, r5, lsr #32
    2af0:	000009fd 	strdeq	r0, [r0], -sp
    2af4:	0100730f 	tsteq	r0, pc, lsl #6
    2af8:	0000743d 	andeq	r7, r0, sp, lsr r4
    2afc:	00500100 	subseq	r0, r0, r0, lsl #2
    2b00:	00067b0a 	andeq	r7, r6, sl, lsl #22
    2b04:	74470100 	strbvc	r0, [r7], #-256	; 0x100
    2b08:	64000000 	strvs	r0, [r0], #-0
    2b0c:	bc000092 	stclt	0, cr0, [r0], {146}	; 0x92
    2b10:	01000001 	tsteq	r0, r1
    2b14:	0002df9c 	muleq	r2, ip, pc	; <UNPREDICTABLE>
    2b18:	0a540d00 	beq	1505f20 <__bss_end__+0x14fb530>
    2b1c:	47010000 	strmi	r0, [r1, -r0]
    2b20:	0000002c 	andeq	r0, r0, ip, lsr #32
    2b24:	00000a24 	andeq	r0, r0, r4, lsr #20
    2b28:	7473640b 	ldrbtvc	r6, [r3], #-1035	; 0x40b
    2b2c:	74470100 	strbvc	r0, [r7], #-256	; 0x100
    2b30:	52000000 	andpl	r0, r0, #0
    2b34:	0b00000a 	bleq	2b64 <__code_start__-0x549c>
    2b38:	4701006e 	strmi	r0, [r1, -lr, rrx]
    2b3c:	00000025 	andeq	r0, r0, r5, lsr #32
    2b40:	00000ac0 	andeq	r0, r0, r0, asr #21
    2b44:	6c61760b 	stclvs	6, cr7, [r1], #-44	; 0xffffffd4
    2b48:	25470100 	strbcs	r0, [r7, #-256]	; 0x100
    2b4c:	ec000000 	stc	0, cr0, [r0], {-0}
    2b50:	0d00000a 	stceq	0, cr0, [r0, #-40]	; 0xffffffd8
    2b54:	0000066d 	andeq	r0, r0, sp, ror #12
    2b58:	00254701 	eoreq	r4, r5, r1, lsl #14
    2b5c:	0b6b0000 	bleq	1ac2b64 <__bss_end__+0x1ab8174>
    2b60:	440e0000 	strmi	r0, [lr], #-0
    2b64:	01000006 	tsteq	r0, r6
    2b68:	00002547 	andeq	r2, r0, r7, asr #10
    2b6c:	04910200 	ldreq	r0, [r1], #512	; 0x200
    2b70:	6675620f 	ldrbtvs	r6, [r5], -pc, lsl #4
    2b74:	df4c0100 	svcle	0x004c0100
    2b78:	03000002 	movweq	r0, #2
    2b7c:	107fa891 			; <UNDEFINED> instruction: 0x107fa891
    2b80:	4c010070 	stcmi	0, cr0, [r1], {112}	; 0x70
    2b84:	00000074 	andeq	r0, r0, r4, ror r0
    2b88:	00000b95 	muleq	r0, r5, fp
    2b8c:	01007510 	tsteq	r0, r0, lsl r5
    2b90:	00002c4d 	andeq	r2, r0, sp, asr #24
    2b94:	000c7f00 	andeq	r7, ip, r0, lsl #30
    2b98:	012a1100 	teqeq	sl, r0, lsl #2
    2b9c:	02ff0000 	rscseq	r0, pc, #0
    2ba0:	03050000 	movweq	r0, #20480	; 0x5000
    2ba4:	0000a3b8 			; <UNDEFINED> instruction: 0x0000a3b8
    2ba8:	0092d012 	addseq	sp, r2, r2, lsl r0
    2bac:	00007400 	andeq	r7, r0, r0, lsl #8
    2bb0:	00026100 	andeq	r6, r2, r0, lsl #2
    2bb4:	06261300 	strteq	r1, [r6], -r0, lsl #6
    2bb8:	52010000 	andpl	r0, r1, #0
    2bbc:	0000002c 	andeq	r0, r0, ip, lsr #32
    2bc0:	00000d42 	andeq	r0, r0, r2, asr #26
    2bc4:	93bc1400 			; <UNDEFINED> instruction: 0x93bc1400
    2bc8:	06c40000 	strbeq	r0, [r4], r0
    2bcc:	d8150000 	ldmdale	r5, {}	; <UNPREDICTABLE>
    2bd0:	cb000093 	blgt	2e24 <__code_start__-0x51dc>
    2bd4:	a3000006 	movwge	r0, #6
    2bd8:	16000002 	strne	r0, [r0], -r2
    2bdc:	08025301 	stmdaeq	r2, {r0, r8, r9, ip, lr}
    2be0:	52011677 	andpl	r1, r1, #124780544	; 0x7700000
    2be4:	a3b80305 			; <UNDEFINED> instruction: 0xa3b80305
    2be8:	01160000 	tsteq	r6, r0
    2bec:	dc030551 	cfstr32le	mvfx0, [r3], {81}	; 0x51
    2bf0:	160000a3 	strne	r0, [r0], -r3, lsr #1
    2bf4:	03055001 	movweq	r5, #20481	; 0x5001
    2bf8:	00009d84 	andeq	r9, r0, r4, lsl #27
    2bfc:	007d0216 	rsbseq	r0, sp, r6, lsl r2
    2c00:	a3f00305 	mvnsge	r0, #335544320	; 0x14000000
    2c04:	14000000 	strne	r0, [r0], #-0
    2c08:	000093dc 	ldrdeq	r9, [r0], -ip
    2c0c:	000006e1 	andeq	r0, r0, r1, ror #13
    2c10:	0093e415 	addseq	lr, r3, r5, lsl r4
    2c14:	0000e000 	andeq	lr, r0, r0
    2c18:	0002c100 	andeq	ip, r2, r0, lsl #2
    2c1c:	51011600 	tstpl	r1, r0, lsl #12
    2c20:	7fa09103 	svcvc	0x00a09103
    2c24:	93f81700 	mvnsls	r1, #0, 14
    2c28:	01300000 	teqeq	r0, r0
    2c2c:	01160000 	tsteq	r6, r0
    2c30:	a0910353 	addsge	r0, r1, r3, asr r3
    2c34:	5101167f 	tstpl	r1, pc, ror r6
    2c38:	16007402 	strne	r7, [r0], -r2, lsl #8
    2c3c:	75025001 	strvc	r5, [r2, #-1]
    2c40:	18000000 	stmdane	r0, {}	; <UNPREDICTABLE>
    2c44:	0000007a 	andeq	r0, r0, sl, ror r0
    2c48:	000002ef 	andeq	r0, r0, pc, ror #5
    2c4c:	00006b19 	andeq	r6, r0, r9, lsl fp
    2c50:	18003f00 	stmdane	r0, {r8, r9, sl, fp, ip, sp}
    2c54:	0000007a 	andeq	r0, r0, sl, ror r0
    2c58:	000002ff 	strdeq	r0, [r0], -pc	; <UNPREDICTABLE>
    2c5c:	00006b19 	andeq	r6, r0, r9, lsl fp
    2c60:	06000400 	streq	r0, [r0], -r0, lsl #8
    2c64:	000002ef 	andeq	r0, r0, pc, ror #5
    2c68:	00065e1a 	andeq	r5, r6, sl, lsl lr
    2c6c:	201f0100 	andscs	r0, pc, r0, lsl #2
    2c70:	68000094 	stmdavs	r0, {r2, r4, r7}
    2c74:	01000000 	mrseq	r0, (UNDEF: 0)
    2c78:	0003929c 	muleq	r3, ip, r2
    2c7c:	06730d00 	ldrbteq	r0, [r3], -r0, lsl #26
    2c80:	1f010000 	svcne	0x00010000
    2c84:	000003a1 	andeq	r0, r0, r1, lsr #7
    2c88:	00000d6e 	andeq	r0, r0, lr, ror #26
    2c8c:	00063c0d 	andeq	r3, r6, sp, lsl #24
    2c90:	b61f0100 	ldrlt	r0, [pc], -r0, lsl #2
    2c94:	9a000003 	bls	2ca8 <__code_start__-0x5358>
    2c98:	1100000d 	tstne	r0, sp
    2c9c:	0000012a 	andeq	r0, r0, sl, lsr #2
    2ca0:	000003cc 	andeq	r0, r0, ip, asr #7
    2ca4:	a3c00305 	bicge	r0, r0, #335544320	; 0x14000000
    2ca8:	34140000 	ldrcc	r0, [r4], #-0
    2cac:	c4000094 	strgt	r0, [r0], #-148	; 0x94
    2cb0:	15000006 	strne	r0, [r0, #-6]
    2cb4:	00009450 	andeq	r9, r0, r0, asr r4
    2cb8:	000006cb 	andeq	r0, r0, fp, asr #13
    2cbc:	00000388 	andeq	r0, r0, r8, lsl #7
    2cc0:	02530116 	subseq	r0, r3, #-2147483643	; 0x80000005
    2cc4:	01162008 	tsteq	r6, r8
    2cc8:	c0030552 	andgt	r0, r3, r2, asr r5
    2ccc:	160000a3 	strne	r0, [r0], -r3, lsr #1
    2cd0:	03055101 	movweq	r5, #20737	; 0x5101
    2cd4:	0000a3dc 	ldrdeq	sl, [r0], -ip
    2cd8:	05500116 	ldrbeq	r0, [r0, #-278]	; 0x116
    2cdc:	009d8403 	addseq	r8, sp, r3, lsl #8
    2ce0:	7d021600 	stcvc	6, cr1, [r2, #-0]
    2ce4:	18030500 	stmdane	r3, {r8, sl}
    2ce8:	000000a4 	andeq	r0, r0, r4, lsr #1
    2cec:	00945414 	addseq	r5, r4, r4, lsl r4
    2cf0:	0006e100 	andeq	lr, r6, r0, lsl #2
    2cf4:	251b0000 	ldrcs	r0, [fp, #-0]
    2cf8:	a1000000 	mrsge	r0, (UNDEF: 0)
    2cfc:	1c000003 	stcne	0, cr0, [r0], {3}
    2d00:	00000025 	andeq	r0, r0, r5, lsr #32
    2d04:	92040500 	andls	r0, r4, #0, 10
    2d08:	1b000003 	blne	2d1c <__code_start__-0x52e4>
    2d0c:	00000025 	andeq	r0, r0, r5, lsr #32
    2d10:	000003b6 			; <UNDEFINED> instruction: 0x000003b6
    2d14:	0000811c 	andeq	r8, r0, ip, lsl r1
    2d18:	04050000 	streq	r0, [r5], #-0
    2d1c:	000003a7 	andeq	r0, r0, r7, lsr #7
    2d20:	00007a18 	andeq	r7, r0, r8, lsl sl
    2d24:	0003cc00 	andeq	ip, r3, r0, lsl #24
    2d28:	006b1900 	rsbeq	r1, fp, r0, lsl #18
    2d2c:	000e0000 	andeq	r0, lr, r0
    2d30:	0003bc06 	andeq	fp, r3, r6, lsl #24
    2d34:	05601d00 	strbeq	r1, [r0, #-3328]!	; 0xd00
    2d38:	7f010000 	svcvc	0x00010000
    2d3c:	00000025 	andeq	r0, r0, r5, lsr #32
    2d40:	00009488 	andeq	r9, r0, r8, lsl #9
    2d44:	000002d4 	ldrdeq	r0, [r0], -r4
    2d48:	06899c01 	streq	r9, [r9], r1, lsl #24
    2d4c:	620b0000 	andvs	r0, fp, #0
    2d50:	01006675 	tsteq	r0, r5, ror r6
    2d54:	0000747f 	andeq	r7, r0, pc, ror r4
    2d58:	000dc600 	andeq	ip, sp, r0, lsl #12
    2d5c:	006e0b00 	rsbeq	r0, lr, r0, lsl #22
    2d60:	00257f01 	eoreq	r7, r5, r1, lsl #30
    2d64:	0df20000 	ldcleq	0, cr0, [r2]
    2d68:	660b0000 	strvs	r0, [fp], -r0
    2d6c:	0100746d 	tsteq	r0, sp, ror #8
    2d70:	0000817f 	andeq	r8, r0, pc, ror r1
    2d74:	000e2000 	andeq	r2, lr, r0
    2d78:	0a760d00 	beq	1d86180 <__bss_end__+0x1d7b790>
    2d7c:	7f010000 	svcvc	0x00010000
    2d80:	000000ae 	andeq	r0, r0, lr, lsr #1
    2d84:	00000e3e 	andeq	r0, r0, lr, lsr lr
    2d88:	01007010 	tsteq	r0, r0, lsl r0
    2d8c:	00007480 	andeq	r7, r0, r0, lsl #9
    2d90:	000e5100 	andeq	r5, lr, r0, lsl #2
    2d94:	00651000 	rsbeq	r1, r5, r0
    2d98:	00748001 	rsbseq	r8, r4, r1
    2d9c:	0ecf0000 	cdpeq	0, 12, cr0, cr15, cr0, {0}
    2da0:	1c130000 	ldcne	0, cr0, [r3], {-0}
    2da4:	01000006 	tsteq	r0, r6
    2da8:	00008183 	andeq	r8, r0, r3, lsl #3
    2dac:	000ef600 	andeq	pc, lr, r0, lsl #12
    2db0:	012a1100 	teqeq	sl, r0, lsl #2
    2db4:	06990000 	ldreq	r0, [r9], r0
    2db8:	03050000 	movweq	r0, #20480	; 0x5000
    2dbc:	0000a3d0 	ldrdeq	sl, [r0], -r0
    2dc0:	0094e41e 	addseq	lr, r4, lr, lsl r4
    2dc4:	00022c00 	andeq	r2, r2, r0, lsl #24
    2dc8:	00731000 	rsbseq	r1, r3, r0
    2dcc:	00748e01 	rsbseq	r8, r4, r1, lsl #28
    2dd0:	0f160000 	svceq	0x00160000
    2dd4:	6e0f0000 	cdpvs	0, 0, cr0, cr15, cr0, {0}
    2dd8:	01006d75 	tsteq	r0, r5, ror sp
    2ddc:	00069e8e 	andeq	r9, r6, lr, lsl #29
    2de0:	d8910300 	ldmle	r1, {r8, r9}
    2de4:	066d137e 			; <UNDEFINED> instruction: 0x066d137e
    2de8:	8f010000 	svchi	0x00010000
    2dec:	0000002c 	andeq	r0, r0, ip, lsr #32
    2df0:	00000f6b 	andeq	r0, r0, fp, ror #30
    2df4:	00951415 	addseq	r1, r5, r5, lsl r4
    2df8:	0000b900 	andeq	fp, r0, r0, lsl #18
    2dfc:	0004a400 	andeq	sl, r4, r0, lsl #8
    2e00:	50011600 	andpl	r1, r1, r0, lsl #12
    2e04:	00007502 	andeq	r7, r0, r2, lsl #10
    2e08:	00952814 	addseq	r2, r5, r4, lsl r8
    2e0c:	0006c400 	andeq	ip, r6, r0, lsl #8
    2e10:	95441500 	strbls	r1, [r4, #-1280]	; 0x500
    2e14:	06cb0000 	strbeq	r0, [fp], r0
    2e18:	04e60000 	strbteq	r0, [r6], #0
    2e1c:	01160000 	tsteq	r6, r0
    2e20:	95080253 	strls	r0, [r8, #-595]	; 0x253
    2e24:	05520116 	ldrbeq	r0, [r2, #-278]	; 0x116
    2e28:	00a3d003 	adceq	sp, r3, r3
    2e2c:	51011600 	tstpl	r1, r0, lsl #12
    2e30:	a3dc0305 	bicsge	r0, ip, #335544320	; 0x14000000
    2e34:	01160000 	tsteq	r6, r0
    2e38:	84030550 	strhi	r0, [r3], #-1360	; 0x550
    2e3c:	1600009d 			; <UNDEFINED> instruction: 0x1600009d
    2e40:	05007d02 	streq	r7, [r0, #-3330]	; 0xd02
    2e44:	00a42003 	adceq	r2, r4, r3
    2e48:	48140000 	ldmdami	r4, {}	; <UNPREDICTABLE>
    2e4c:	e1000095 	swp	r0, r5, [r0]	; <UNPREDICTABLE>
    2e50:	14000006 	strne	r0, [r0], #-6
    2e54:	000095b8 			; <UNDEFINED> instruction: 0x000095b8
    2e58:	000006c4 	andeq	r0, r0, r4, asr #13
    2e5c:	0095cc15 	addseq	ip, r5, r5, lsl ip
    2e60:	0006cb00 	andeq	ip, r6, r0, lsl #22
    2e64:	00052700 	andeq	r2, r5, r0, lsl #14
    2e68:	53011600 	movwpl	r1, #5632	; 0x1600
    2e6c:	169b0802 	ldrne	r0, [fp], r2, lsl #16
    2e70:	03055201 	movweq	r5, #20993	; 0x5201
    2e74:	0000a3d0 	ldrdeq	sl, [r0], -r0
    2e78:	05510116 	ldrbeq	r0, [r1, #-278]	; 0x116
    2e7c:	00a3dc03 	adceq	sp, r3, r3, lsl #24
    2e80:	50011600 	andpl	r1, r1, r0, lsl #12
    2e84:	a42c0305 	strtge	r0, [ip], #-773	; 0x305
    2e88:	14000000 	strne	r0, [r0], #-0
    2e8c:	000095d0 	ldrdeq	r9, [r0], -r0
    2e90:	000006e1 	andeq	r0, r0, r1, ror #13
    2e94:	0095f415 	addseq	pc, r5, r5, lsl r4	; <UNPREDICTABLE>
    2e98:	00019c00 	andeq	r9, r1, r0, lsl #24
    2e9c:	00055d00 	andeq	r5, r5, r0, lsl #26
    2ea0:	52011600 	andpl	r1, r1, #0, 12
    2ea4:	16800802 	strne	r0, [r0], r2, lsl #16
    2ea8:	91035101 	tstls	r3, r1, lsl #2
    2eac:	01167ed0 			; <UNDEFINED> instruction: 0x01167ed0
    2eb0:	163a0150 			; <UNDEFINED> instruction: 0x163a0150
    2eb4:	01047d02 	tsteq	r4, r2, lsl #26
    2eb8:	7d021631 	stcvc	6, cr1, [r2, #-196]	; 0xffffff3c
    2ebc:	00770200 	rsbseq	r0, r7, r0, lsl #4
    2ec0:	961c1500 	ldrls	r1, [ip], -r0, lsl #10
    2ec4:	019c0000 	orrseq	r0, ip, r0
    2ec8:	058a0000 	streq	r0, [sl]
    2ecc:	01160000 	tsteq	r6, r0
    2ed0:	80080252 	andhi	r0, r8, r2, asr r2
    2ed4:	03510116 	cmpeq	r1, #-2147483643	; 0x80000005
    2ed8:	167ed091 			; <UNDEFINED> instruction: 0x167ed091
    2edc:	3a015001 	bcc	56ee8 <__bss_end__+0x4c4f8>
    2ee0:	047d0216 	ldrbteq	r0, [sp], #-534	; 0x216
    2ee4:	02163001 	andseq	r3, r6, #1
    2ee8:	7702007d 	smlsdxvc	r2, sp, r0, r0
    2eec:	44150000 	ldrmi	r0, [r5], #-0
    2ef0:	9c000096 	stcls	0, cr0, [r0], {150}	; 0x96
    2ef4:	b7000001 	strlt	r0, [r0, -r1]
    2ef8:	16000005 	strne	r0, [r0], -r5
    2efc:	08025201 	stmdaeq	r2, {r0, r9, ip, lr}
    2f00:	51011680 	smlabbpl	r1, r0, r6, r1
    2f04:	7ed09103 	atnvcs	f1, f3
    2f08:	01500116 	cmpeq	r0, r6, lsl r1
    2f0c:	7d021640 	stcvc	6, cr1, [r2, #-256]	; 0xffffff00
    2f10:	16300104 	ldrtne	r0, [r0], -r4, lsl #2
    2f14:	02007d02 	andeq	r7, r0, #2, 26	; 0x80
    2f18:	15000077 	strne	r0, [r0, #-119]	; 0x77
    2f1c:	0000966c 	andeq	r9, r0, ip, ror #12
    2f20:	0000019c 	muleq	r0, ip, r1
    2f24:	000005e4 	andeq	r0, r0, r4, ror #11
    2f28:	02520116 	subseq	r0, r2, #-2147483643	; 0x80000005
    2f2c:	01168008 	tsteq	r6, r8
    2f30:	d0910351 	addsle	r0, r1, r1, asr r3
    2f34:	5001167e 	andpl	r1, r1, lr, ror r6
    2f38:	02163201 	andseq	r3, r6, #268435456	; 0x10000000
    2f3c:	3001047d 	andcc	r0, r1, sp, ror r4
    2f40:	007d0216 	rsbseq	r0, sp, r6, lsl r2
    2f44:	00007702 	andeq	r7, r0, r2, lsl #14
    2f48:	0096a015 	addseq	sl, r6, r5, lsl r0
    2f4c:	00019c00 	andeq	r9, r1, r0, lsl #24
    2f50:	00061100 	andeq	r1, r6, r0, lsl #2
    2f54:	52011600 	andpl	r1, r1, #0, 12
    2f58:	16800802 	strne	r0, [r0], r2, lsl #16
    2f5c:	91035101 	tstls	r3, r1, lsl #2
    2f60:	01167ed0 			; <UNDEFINED> instruction: 0x01167ed0
    2f64:	16380150 			; <UNDEFINED> instruction: 0x16380150
    2f68:	01047d02 	tsteq	r4, r2, lsl #26
    2f6c:	7d021630 	stcvc	6, cr1, [r2, #-192]	; 0xffffff40
    2f70:	00770200 	rsbseq	r0, r7, r0, lsl #4
    2f74:	96bc1500 	ldrtls	r1, [ip], r0, lsl #10
    2f78:	06cb0000 	strbeq	r0, [fp], r0
    2f7c:	06340000 	ldrteq	r0, [r4], -r0
    2f80:	01160000 	tsteq	r6, r0
    2f84:	00790252 	rsbseq	r0, r9, r2, asr r2
    2f88:	02510116 	subseq	r0, r1, #-2147483643	; 0x80000005
    2f8c:	01160079 	tsteq	r6, r9, ror r0
    2f90:	54030550 	strpl	r0, [r3], #-1360	; 0x550
    2f94:	000000a4 	andeq	r0, r0, r4, lsr #1
    2f98:	0096cc1f 	addseq	ip, r6, pc, lsl ip
    2f9c:	00064600 	andeq	r4, r6, r0, lsl #12
    2fa0:	50011600 	andpl	r1, r1, r0, lsl #12
    2fa4:	7ecc9104 	acsvce	f1, f4
    2fa8:	d0140006 	andsle	r0, r4, r6
    2fac:	c4000096 	strgt	r0, [r0], #-150	; 0x96
    2fb0:	15000006 	strne	r0, [r0, #-6]
    2fb4:	000096e4 	andeq	r9, r0, r4, ror #13
    2fb8:	000006cb 	andeq	r0, r0, fp, asr #13
    2fbc:	0000067e 	andeq	r0, r0, lr, ror r6
    2fc0:	02530116 	subseq	r0, r3, #-2147483643	; 0x80000005
    2fc4:	0116bf08 	tsteq	r6, r8, lsl #30
    2fc8:	d0030552 	andle	r0, r3, r2, asr r5
    2fcc:	160000a3 	strne	r0, [r0], -r3, lsr #1
    2fd0:	03055101 	movweq	r5, #20737	; 0x5101
    2fd4:	0000a3dc 	ldrdeq	sl, [r0], -ip
    2fd8:	05500116 	ldrbeq	r0, [r0, #-278]	; 0x116
    2fdc:	00a48403 	adceq	r8, r4, r3, lsl #8
    2fe0:	e8140000 	ldmda	r4, {}	; <UNPREDICTABLE>
    2fe4:	e1000096 	swp	r0, r6, [r0]	; <UNPREDICTABLE>
    2fe8:	00000006 	andeq	r0, r0, r6
    2fec:	007a1800 	rsbseq	r1, sl, r0, lsl #16
    2ff0:	06990000 	ldreq	r0, [r9], r0
    2ff4:	6b190000 	blvs	642ffc <__bss_end__+0x63860c>
    2ff8:	09000000 	stmdbeq	r0, {}	; <UNPREDICTABLE>
    2ffc:	06890600 	streq	r0, [r9], r0, lsl #12
    3000:	7a180000 	bvc	603008 <__bss_end__+0x5f8618>
    3004:	ae000000 	cdpge	0, 0, cr0, cr0, cr0, {0}
    3008:	19000006 	stmdbne	r0, {r1, r2}
    300c:	0000006b 	andeq	r0, r0, fp, rrx
    3010:	da20007f 	ble	803214 <__bss_end__+0x7f8824>
    3014:	03000005 	movweq	r0, #5
    3018:	0003a11d 	andeq	sl, r3, sp, lsl r1
    301c:	06172000 	ldreq	r2, [r7], -r0
    3020:	22030000 	andcs	r0, r3, #0
    3024:	000003b6 			; <UNDEFINED> instruction: 0x000003b6
    3028:	00027e21 	andeq	r7, r2, r1, lsr #28
    302c:	221e0300 	andscs	r0, lr, #0, 6
    3030:	00000563 	andeq	r0, r0, r3, ror #10
    3034:	00252903 	eoreq	r2, r5, r3, lsl #18
    3038:	06e10000 	strbteq	r0, [r1], r0
    303c:	811c0000 	tsthi	ip, r0
    3040:	23000000 	movwcs	r0, #0
    3044:	00f12100 	rscseq	r2, r1, r0, lsl #2
    3048:	65030000 	strvs	r0, [r3, #-0]
    304c:	0000b800 	andeq	fp, r0, r0, lsl #16
    3050:	3b000400 	blcc	4058 <__code_start__-0x3fa8>
    3054:	0400000c 	streq	r0, [r0], #-12
    3058:	00050901 	andeq	r0, r5, r1, lsl #18
    305c:	068e0100 	streq	r0, [lr], r0, lsl #2
    3060:	05740000 	ldrbeq	r0, [r4, #-0]!
    3064:	975c0000 	ldrbls	r0, [ip, -r0]
    3068:	00200000 	eoreq	r0, r0, r0
    306c:	0abf0000 	beq	fefc3074 <__bss_end__+0xfefb8684>
    3070:	04020000 	streq	r0, [r2], #-0
    3074:	746e6905 	strbtvc	r6, [lr], #-2309	; 0x905
    3078:	07040300 	streq	r0, [r4, -r0, lsl #6]
    307c:	000001c2 	andeq	r0, r0, r2, asr #3
    3080:	e5060103 	str	r0, [r6, #-259]	; 0x103
    3084:	03000000 	movweq	r0, #0
    3088:	02370502 	eorseq	r0, r7, #8388608	; 0x800000
    308c:	04030000 	streq	r0, [r3], #-0
    3090:	00020005 	andeq	r0, r2, r5
    3094:	05080300 	streq	r0, [r8, #-768]	; 0x300
    3098:	000001fb 	strdeq	r0, [r0], -fp
    309c:	e3080103 	movw	r0, #33027	; 0x8103
    30a0:	03000000 	movweq	r0, #0
    30a4:	004c0702 	subeq	r0, ip, r2, lsl #14
    30a8:	04030000 	streq	r0, [r3], #-0
    30ac:	0001bd07 	andeq	fp, r1, r7, lsl #26
    30b0:	07080300 	streq	r0, [r8, -r0, lsl #6]
    30b4:	000001b8 			; <UNDEFINED> instruction: 0x000001b8
    30b8:	de070403 	cdple	4, 0, cr0, cr7, cr3, {0}
    30bc:	03000001 	movweq	r0, #1
    30c0:	00ec0801 	rsceq	r0, ip, r1, lsl #16
    30c4:	09040000 	stmdbeq	r4, {}	; <UNPREDICTABLE>
    30c8:	01000002 	tsteq	r0, r2
    30cc:	00975c03 	addseq	r5, r7, r3, lsl #24
    30d0:	00001000 	andeq	r1, r0, r0
    30d4:	9c9c0100 	ldflss	f0, [ip], {0}
    30d8:	05000000 	streq	r0, [r0, #-0]
    30dc:	04010072 	streq	r0, [r1], #-114	; 0x72
    30e0:	0000002c 	andeq	r0, r0, ip, lsr #32
    30e4:	00000f95 	muleq	r0, r5, pc	; <UNPREDICTABLE>
    30e8:	06800600 	streq	r0, [r0], r0, lsl #12
    30ec:	0c010000 	stceq	0, cr0, [r1], {-0}
    30f0:	0000976c 	andeq	r9, r0, ip, ror #14
    30f4:	00000010 	andeq	r0, r0, r0, lsl r0
    30f8:	72059c01 	andvc	r9, r5, #256	; 0x100
    30fc:	2c0d0100 	stfcss	f0, [sp], {-0}
    3100:	b9000000 	stmdblt	r0, {}	; <UNPREDICTABLE>
    3104:	0000000f 	andeq	r0, r0, pc
    3108:	00010f00 	andeq	r0, r1, r0, lsl #30
    310c:	a6000400 	strge	r0, [r0], -r0, lsl #8
    3110:	0400000c 	streq	r0, [r0], #-12
    3114:	00050901 	andeq	r0, r5, r1, lsl #18
    3118:	06af0100 	strteq	r0, [pc], r0, lsl #2
    311c:	05740000 	ldrbeq	r0, [r4, #-0]!
    3120:	977c0000 	ldrbls	r0, [ip, -r0]!
    3124:	002c0000 	eoreq	r0, ip, r0
    3128:	0b050000 	bleq	143130 <__bss_end__+0x138740>
    312c:	04020000 	streq	r0, [r2], #-0
    3130:	746e6905 	strbtvc	r6, [lr], #-2309	; 0x905
    3134:	07040300 	streq	r0, [r4, -r0, lsl #6]
    3138:	000001c2 	andeq	r0, r0, r2, asr #3
    313c:	e5060103 	str	r0, [r6, #-259]	; 0x103
    3140:	03000000 	movweq	r0, #0
    3144:	02370502 	eorseq	r0, r7, #8388608	; 0x800000
    3148:	04030000 	streq	r0, [r3], #-0
    314c:	00020005 	andeq	r0, r2, r5
    3150:	05080300 	streq	r0, [r8, #-768]	; 0x300
    3154:	000001fb 	strdeq	r0, [r0], -fp
    3158:	e3080103 	movw	r0, #33027	; 0x8103
    315c:	03000000 	movweq	r0, #0
    3160:	004c0702 	subeq	r0, ip, r2, lsl #14
    3164:	04030000 	streq	r0, [r3], #-0
    3168:	0001bd07 	andeq	fp, r1, r7, lsl #26
    316c:	07080300 	streq	r0, [r8, -r0, lsl #6]
    3170:	000001b8 			; <UNDEFINED> instruction: 0x000001b8
    3174:	de070403 	cdple	4, 0, cr0, cr7, cr3, {0}
    3178:	03000001 	movweq	r0, #1
    317c:	00ec0801 	rsceq	r0, ip, r1, lsl #16
    3180:	04040000 	streq	r0, [r4], #-0
    3184:	0000007f 	andeq	r0, r0, pc, ror r0
    3188:	00007205 	andeq	r7, r0, r5, lsl #4
    318c:	00f10600 	rscseq	r0, r1, r0, lsl #12
    3190:	04010000 	streq	r0, [r1], #-0
    3194:	0000977c 	andeq	r9, r0, ip, ror r7
    3198:	0000002c 	andeq	r0, r0, ip, lsr #32
    319c:	00d39c01 	sbcseq	r9, r3, r1, lsl #24
    31a0:	84070000 	strhi	r0, [r7], #-0
    31a4:	f3000097 	vqadd.u8	d0, d16, d7
    31a8:	08000000 	stmdaeq	r0, {}	; <UNPREDICTABLE>
    31ac:	00009794 	muleq	r0, r4, r7
    31b0:	000000b5 	strheq	r0, [r0], -r5
    31b4:	05500109 	ldrbeq	r0, [r0, #-265]	; 0x109
    31b8:	00a4a403 	adceq	sl, r4, r3, lsl #8
    31bc:	9c0a0000 	stcls	0, cr0, [sl], {-0}
    31c0:	fa000097 	blx	3424 <__code_start__-0x4bdc>
    31c4:	c9000000 	stmdbgt	r0, {}	; <UNPREDICTABLE>
    31c8:	09000000 	stmdbeq	r0, {}	; <UNPREDICTABLE>
    31cc:	08025001 	stmdaeq	r2, {r0, ip, lr}
    31d0:	a0070064 	andge	r0, r7, r4, rrx
    31d4:	0b000097 	bleq	3438 <__code_start__-0x4bc8>
    31d8:	00000001 	andeq	r0, r0, r1
    31dc:	0000250b 	andeq	r2, r0, fp, lsl #10
    31e0:	0000e200 	andeq	lr, r0, r0, lsl #4
    31e4:	00790c00 	rsbseq	r0, r9, r0, lsl #24
    31e8:	0d000000 	stceq	0, cr0, [r0, #-0]
    31ec:	00000617 	andeq	r0, r0, r7, lsl r6
    31f0:	00ed2202 	rsceq	r2, sp, r2, lsl #4
    31f4:	04040000 	streq	r0, [r4], #-0
    31f8:	000000d3 	ldrdeq	r0, [r0], -r3
    31fc:	0006a00e 	andeq	sl, r6, lr
    3200:	0fdc0200 	svceq	0x00dc0200
    3204:	000006d3 	ldrdeq	r0, [r0], -r3
    3208:	010b4f02 	tsteq	fp, r2, lsl #30
    320c:	2c0c0000 	stccs	0, cr0, [ip], {-0}
    3210:	00000000 	andeq	r0, r0, r0
    3214:	0006c80e 	andeq	ip, r6, lr, lsl #16
    3218:	00620200 	rsbeq	r0, r2, r0, lsl #4
    321c:	0000010f 	andeq	r0, r0, pc, lsl #2
    3220:	0d700004 	ldcleq	0, cr0, [r0, #-16]!
    3224:	01040000 	mrseq	r0, (UNDEF: 4)
    3228:	00000509 	andeq	r0, r0, r9, lsl #10
    322c:	00071501 	andeq	r1, r7, r1, lsl #10
    3230:	00057400 	andeq	r7, r5, r0, lsl #8
    3234:	0097a800 	addseq	sl, r7, r0, lsl #16
    3238:	00003800 	andeq	r3, r0, r0, lsl #16
    323c:	000ba600 	andeq	sl, fp, r0, lsl #12
    3240:	05040200 	streq	r0, [r4, #-512]	; 0x200
    3244:	00746e69 	rsbseq	r6, r4, r9, ror #28
    3248:	c2070403 	andgt	r0, r7, #50331648	; 0x3000000
    324c:	03000001 	movweq	r0, #1
    3250:	00e50601 	rsceq	r0, r5, r1, lsl #12
    3254:	02030000 	andeq	r0, r3, #0
    3258:	00023705 	andeq	r3, r2, r5, lsl #14
    325c:	05040300 	streq	r0, [r4, #-768]	; 0x300
    3260:	00000200 	andeq	r0, r0, r0, lsl #4
    3264:	fb050803 	blx	14527a <__bss_end__+0x13a88a>
    3268:	03000001 	movweq	r0, #1
    326c:	00e30801 	rsceq	r0, r3, r1, lsl #16
    3270:	02030000 	andeq	r0, r3, #0
    3274:	00004c07 	andeq	r4, r0, r7, lsl #24
    3278:	07040300 	streq	r0, [r4, -r0, lsl #6]
    327c:	000001bd 			; <UNDEFINED> instruction: 0x000001bd
    3280:	b8070803 	stmdalt	r7, {r0, r1, fp}
    3284:	03000001 	movweq	r0, #1
    3288:	01de0704 	bicseq	r0, lr, r4, lsl #14
    328c:	01030000 	mrseq	r0, (UNDEF: 3)
    3290:	0000ec08 	andeq	lr, r0, r8, lsl #24
    3294:	070d0400 	streq	r0, [sp, -r0, lsl #8]
    3298:	0d010000 	stceq	0, cr0, [r1, #-0]
    329c:	000097a8 	andeq	r9, r0, r8, lsr #15
    32a0:	00000038 	andeq	r0, r0, r8, lsr r0
    32a4:	00e19c01 	rsceq	r9, r1, r1, lsl #24
    32a8:	dc050000 	stcle	0, cr0, [r5], {-0}
    32ac:	01000006 	tsteq	r0, r6
    32b0:	0000250e 	andeq	r2, r0, lr, lsl #10
    32b4:	06ea0500 	strbteq	r0, [sl], r0, lsl #10
    32b8:	0e010000 	cdpeq	0, 0, cr0, cr1, cr0, {0}
    32bc:	00000025 	andeq	r0, r0, r5, lsr #32
    32c0:	0000bd06 	andeq	fp, r0, r6, lsl #26
    32c4:	070f0100 	streq	r0, [pc, -r0, lsl #2]
    32c8:	00737362 	rsbseq	r7, r3, r2, ror #6
    32cc:	00e11101 	rsceq	r1, r1, r1, lsl #2
    32d0:	0fdd0000 	svceq	0x00dd0000
    32d4:	05080000 	streq	r0, [r8, #-0]
    32d8:	01000007 	tsteq	r0, r7
    32dc:	0000e112 	andeq	lr, r0, r2, lsl r1
    32e0:	97d00900 	ldrbls	r0, [r0, r0, lsl #18]
    32e4:	00fd0000 	rscseq	r0, sp, r0
    32e8:	d4090000 	strle	r0, [r9], #-0
    32ec:	04000097 	streq	r0, [r0], #-151	; 0x97
    32f0:	09000001 	stmdbeq	r0, {r0}
    32f4:	000097d8 	ldrdeq	r9, [r0], -r8
    32f8:	0000010b 	andeq	r0, r0, fp, lsl #2
    32fc:	25040a00 	strcs	r0, [r4, #-2560]	; 0xa00
    3300:	05000000 	streq	r0, [r0, #-0]
    3304:	000006dc 	ldrdeq	r0, [r0], -ip
    3308:	00250e01 	eoreq	r0, r5, r1, lsl #28
    330c:	ea050000 	b	143314 <__bss_end__+0x138924>
    3310:	01000006 	tsteq	r0, r6
    3314:	0000250e 	andeq	r2, r0, lr, lsl #10
    3318:	06f60600 	ldrbteq	r0, [r6], r0, lsl #12
    331c:	da020000 	ble	83324 <__bss_end__+0x78934>
    3320:	0000bd06 	andeq	fp, r0, r6, lsl #26
    3324:	06d70200 	ldrbeq	r0, [r7], r0, lsl #4
    3328:	000000f1 	strdeq	r0, [r0], -r1
    332c:	3e006502 	cfsh32cc	mvfx6, mvfx0, #2
    3330:	04000001 	streq	r0, [r0], #-1
    3334:	000e0400 	andeq	r0, lr, r0, lsl #8
    3338:	09010400 	stmdbeq	r1, {sl}
    333c:	01000005 	tsteq	r0, r5
    3340:	00000728 	andeq	r0, r0, r8, lsr #14
    3344:	00000574 	andeq	r0, r0, r4, ror r5
    3348:	000097e0 	andeq	r9, r0, r0, ror #15
    334c:	00000044 	andeq	r0, r0, r4, asr #32
    3350:	00000c50 	andeq	r0, r0, r0, asr ip
    3354:	69050402 	stmdbvs	r5, {r1, sl}
    3358:	0300746e 	movweq	r7, #1134	; 0x46e
    335c:	01c20704 	biceq	r0, r2, r4, lsl #14
    3360:	01030000 	mrseq	r0, (UNDEF: 3)
    3364:	0000e506 	andeq	lr, r0, r6, lsl #10
    3368:	05020300 	streq	r0, [r2, #-768]	; 0x300
    336c:	00000237 	andeq	r0, r0, r7, lsr r2
    3370:	00050403 	andeq	r0, r5, r3, lsl #8
    3374:	03000002 	movweq	r0, #2
    3378:	01fb0508 	mvnseq	r0, r8, lsl #10
    337c:	01030000 	mrseq	r0, (UNDEF: 3)
    3380:	0000e308 	andeq	lr, r0, r8, lsl #6
    3384:	07020300 	streq	r0, [r2, -r0, lsl #6]
    3388:	0000004c 	andeq	r0, r0, ip, asr #32
    338c:	bd070403 	cfstrslt	mvf0, [r7, #-12]
    3390:	03000001 	movweq	r0, #1
    3394:	01b80708 			; <UNDEFINED> instruction: 0x01b80708
    3398:	04030000 	streq	r0, [r3], #-0
    339c:	0001de07 	andeq	sp, r1, r7, lsl #28
    33a0:	08010300 	stmdaeq	r1, {r8, r9}
    33a4:	000000ec 	andeq	r0, r0, ip, ror #1
    33a8:	007f0404 	rsbseq	r0, pc, r4, lsl #8
    33ac:	72050000 	andvc	r0, r5, #0
    33b0:	06000000 	streq	r0, [r0], -r0
    33b4:	00000749 	andeq	r0, r0, r9, asr #14
    33b8:	97e00201 	strbls	r0, [r0, r1, lsl #4]!
    33bc:	00440000 	subeq	r0, r4, r0
    33c0:	9c010000 	stcls	0, cr0, [r1], {-0}
    33c4:	00000108 	andeq	r0, r0, r8, lsl #2
    33c8:	00637007 	rsbeq	r7, r3, r7
    33cc:	002c0201 	eoreq	r0, ip, r1, lsl #4
    33d0:	0ffd0000 	svceq	0x00fd0000
    33d4:	2a080000 	bcs	2033dc <__bss_end__+0x1f89ec>
    33d8:	18000001 	stmdane	r0, {r0}
    33dc:	05000001 	streq	r0, [r0, #-1]
    33e0:	00a4b003 	adceq	fp, r4, r3
    33e4:	97f00900 	ldrbls	r0, [r0, r0, lsl #18]!
    33e8:	011d0000 	tsteq	sp, r0
    33ec:	100a0000 	andne	r0, sl, r0
    33f0:	24000098 	strcs	r0, [r0], #-152	; 0x98
    33f4:	fe000001 	cdp2	0, 0, cr0, cr0, cr1, {0}
    33f8:	0b000000 	bleq	3400 <__code_start__-0x4c00>
    33fc:	32015301 	andcc	r5, r1, #67108864	; 0x4000000
    3400:	0552010b 	ldrbeq	r0, [r2, #-267]	; 0x10b
    3404:	00a4b003 	adceq	fp, r4, r3
    3408:	51010b00 	tstpl	r1, r0, lsl #22
    340c:	a5040305 	strge	r0, [r4, #-773]	; 0x305
    3410:	010b0000 	mrseq	r0, (UNDEF: 11)
    3414:	c8030550 	stmdagt	r3, {r4, r6, r8, sl}
    3418:	0b0000a4 	bleq	36b0 <__code_start__-0x4950>
    341c:	02047d02 	andeq	r7, r4, #2, 26	; 0x80
    3420:	020b0074 	andeq	r0, fp, #116	; 0x74
    3424:	0305007d 	movweq	r0, #20605	; 0x507d
    3428:	0000a528 	andeq	sl, r0, r8, lsr #10
    342c:	98140900 	ldmdals	r4, {r8, fp}
    3430:	013a0000 	teqeq	sl, r0
    3434:	0c000000 	stceq	0, cr0, [r0], {-0}
    3438:	00000072 	andeq	r0, r0, r2, ror r0
    343c:	00000118 	andeq	r0, r0, r8, lsl r1
    3440:	00006b0d 	andeq	r6, r0, sp, lsl #22
    3444:	05001500 	streq	r1, [r0, #-1280]	; 0x500
    3448:	00000108 	andeq	r0, r0, r8, lsl #2
    344c:	00027e0e 	andeq	r7, r2, lr, lsl #28
    3450:	0f1e0200 	svceq	0x001e0200
    3454:	00000563 	andeq	r0, r0, r3, ror #10
    3458:	00252902 	eoreq	r2, r5, r2, lsl #18
    345c:	013a0000 	teqeq	sl, r0
    3460:	79100000 	ldmdbvc	r0, {}	; <UNPREDICTABLE>
    3464:	11000000 	mrsne	r0, (UNDEF: 0)
    3468:	00f10e00 	rscseq	r0, r1, r0, lsl #28
    346c:	65020000 	strvs	r0, [r2, #-0]
    3470:	00013e00 	andeq	r3, r1, r0, lsl #28
    3474:	dc000400 	cfstrsle	mvf0, [r0], {-0}
    3478:	0400000e 	streq	r0, [r0], #-14
    347c:	00050901 	andeq	r0, r5, r1, lsl #18
    3480:	076c0100 	strbeq	r0, [ip, -r0, lsl #2]!
    3484:	05740000 	ldrbeq	r0, [r4, #-0]!
    3488:	98240000 	stmdals	r4!, {}	; <UNPREDICTABLE>
    348c:	00440000 	subeq	r0, r4, r0
    3490:	0cf60000 	ldcleq	0, cr0, [r6]
    3494:	04020000 	streq	r0, [r2], #-0
    3498:	746e6905 	strbtvc	r6, [lr], #-2309	; 0x905
    349c:	07040300 	streq	r0, [r4, -r0, lsl #6]
    34a0:	000001c2 	andeq	r0, r0, r2, asr #3
    34a4:	e5060103 	str	r0, [r6, #-259]	; 0x103
    34a8:	03000000 	movweq	r0, #0
    34ac:	02370502 	eorseq	r0, r7, #8388608	; 0x800000
    34b0:	04030000 	streq	r0, [r3], #-0
    34b4:	00020005 	andeq	r0, r2, r5
    34b8:	05080300 	streq	r0, [r8, #-768]	; 0x300
    34bc:	000001fb 	strdeq	r0, [r0], -fp
    34c0:	e3080103 	movw	r0, #33027	; 0x8103
    34c4:	03000000 	movweq	r0, #0
    34c8:	004c0702 	subeq	r0, ip, r2, lsl #14
    34cc:	04030000 	streq	r0, [r3], #-0
    34d0:	0001bd07 	andeq	fp, r1, r7, lsl #26
    34d4:	07080300 	streq	r0, [r8, -r0, lsl #6]
    34d8:	000001b8 			; <UNDEFINED> instruction: 0x000001b8
    34dc:	de070403 	cdple	4, 0, cr0, cr7, cr3, {0}
    34e0:	03000001 	movweq	r0, #1
    34e4:	00ec0801 	rsceq	r0, ip, r1, lsl #16
    34e8:	04040000 	streq	r0, [r4], #-0
    34ec:	0000007f 	andeq	r0, r0, pc, ror r0
    34f0:	00007205 	andeq	r7, r0, r5, lsl #4
    34f4:	075f0600 	ldrbeq	r0, [pc, -r0, lsl #12]
    34f8:	02010000 	andeq	r0, r1, #0
    34fc:	00009824 	andeq	r9, r0, r4, lsr #16
    3500:	00000044 	andeq	r0, r0, r4, asr #32
    3504:	01089c01 	tsteq	r8, r1, lsl #24
    3508:	70070000 	andvc	r0, r7, r0
    350c:	02010063 	andeq	r0, r1, #99	; 0x63
    3510:	0000002c 	andeq	r0, r0, ip, lsr #32
    3514:	0000101b 	andeq	r1, r0, fp, lsl r0
    3518:	00012a08 	andeq	r2, r1, r8, lsl #20
    351c:	00011800 	andeq	r1, r1, r0, lsl #16
    3520:	30030500 	andcc	r0, r3, r0, lsl #10
    3524:	090000a5 	stmdbeq	r0, {r0, r2, r5, r7}
    3528:	00009834 	andeq	r9, r0, r4, lsr r8
    352c:	0000011d 	andeq	r0, r0, sp, lsl r1
    3530:	0098540a 	addseq	r5, r8, sl, lsl #8
    3534:	00012400 	andeq	r2, r1, r0, lsl #8
    3538:	0000fe00 	andeq	pc, r0, r0, lsl #28
    353c:	53010b00 	movwpl	r0, #6912	; 0x1b00
    3540:	010b3201 	tsteq	fp, r1, lsl #4
    3544:	30030552 	andcc	r0, r3, r2, asr r5
    3548:	0b0000a5 	bleq	37e4 <__code_start__-0x481c>
    354c:	03055101 	movweq	r5, #20737	; 0x5101
    3550:	0000a540 	andeq	sl, r0, r0, asr #10
    3554:	0550010b 	ldrbeq	r0, [r0, #-267]	; 0x10b
    3558:	00a4c803 	adceq	ip, r4, r3, lsl #16
    355c:	7d020b00 	vstrvc	d0, [r2, #-0]
    3560:	00740204 	rsbseq	r0, r4, r4, lsl #4
    3564:	007d020b 	rsbseq	r0, sp, fp, lsl #4
    3568:	a5640305 	strbge	r0, [r4, #-773]!	; 0x305
    356c:	09000000 	stmdbeq	r0, {}	; <UNPREDICTABLE>
    3570:	00009858 	andeq	r9, r0, r8, asr r8
    3574:	0000013a 	andeq	r0, r0, sl, lsr r1
    3578:	00720c00 	rsbseq	r0, r2, r0, lsl #24
    357c:	01180000 	tsteq	r8, r0
    3580:	6b0d0000 	blvs	343588 <__bss_end__+0x338b98>
    3584:	0c000000 	stceq	0, cr0, [r0], {-0}
    3588:	01080500 	tsteq	r8, r0, lsl #10
    358c:	7e0e0000 	cdpvc	0, 0, cr0, cr14, cr0, {0}
    3590:	02000002 	andeq	r0, r0, #2
    3594:	05630f1e 	strbeq	r0, [r3, #-3870]!	; 0xf1e
    3598:	29020000 	stmdbcs	r2, {}	; <UNPREDICTABLE>
    359c:	00000025 	andeq	r0, r0, r5, lsr #32
    35a0:	0000013a 	andeq	r0, r0, sl, lsr r1
    35a4:	00007910 	andeq	r7, r0, r0, lsl r9
    35a8:	0e001100 	adfeqs	f1, f0, f0
    35ac:	000000f1 	strdeq	r0, [r0], -r1
    35b0:	3e006502 	cfsh32cc	mvfx6, mvfx0, #2
    35b4:	04000001 	streq	r0, [r0], #-1
    35b8:	000fb400 	andeq	fp, pc, r0, lsl #8
    35bc:	09010400 	stmdbeq	r1, {sl}
    35c0:	01000005 	tsteq	r0, r5
    35c4:	0000078e 	andeq	r0, r0, lr, lsl #15
    35c8:	00000574 	andeq	r0, r0, r4, ror r5
    35cc:	00009868 	andeq	r9, r0, r8, ror #16
    35d0:	00000044 	andeq	r0, r0, r4, asr #32
    35d4:	00000d9d 	muleq	r0, sp, sp
    35d8:	69050402 	stmdbvs	r5, {r1, sl}
    35dc:	0300746e 	movweq	r7, #1134	; 0x46e
    35e0:	01c20704 	biceq	r0, r2, r4, lsl #14
    35e4:	01030000 	mrseq	r0, (UNDEF: 3)
    35e8:	0000e506 	andeq	lr, r0, r6, lsl #10
    35ec:	05020300 	streq	r0, [r2, #-768]	; 0x300
    35f0:	00000237 	andeq	r0, r0, r7, lsr r2
    35f4:	00050403 	andeq	r0, r5, r3, lsl #8
    35f8:	03000002 	movweq	r0, #2
    35fc:	01fb0508 	mvnseq	r0, r8, lsl #10
    3600:	01030000 	mrseq	r0, (UNDEF: 3)
    3604:	0000e308 	andeq	lr, r0, r8, lsl #6
    3608:	07020300 	streq	r0, [r2, -r0, lsl #6]
    360c:	0000004c 	andeq	r0, r0, ip, asr #32
    3610:	bd070403 	cfstrslt	mvf0, [r7, #-12]
    3614:	03000001 	movweq	r0, #1
    3618:	01b80708 			; <UNDEFINED> instruction: 0x01b80708
    361c:	04030000 	streq	r0, [r3], #-0
    3620:	0001de07 	andeq	sp, r1, r7, lsl #28
    3624:	08010300 	stmdaeq	r1, {r8, r9}
    3628:	000000ec 	andeq	r0, r0, ip, ror #1
    362c:	007f0404 	rsbseq	r0, pc, r4, lsl #8
    3630:	72050000 	andvc	r0, r5, #0
    3634:	06000000 	streq	r0, [r0], -r0
    3638:	000007b9 			; <UNDEFINED> instruction: 0x000007b9
    363c:	98680201 	stmdals	r8!, {r0, r9}^
    3640:	00440000 	subeq	r0, r4, r0
    3644:	9c010000 	stcls	0, cr0, [r1], {-0}
    3648:	00000108 	andeq	r0, r0, r8, lsl #2
    364c:	00637007 	rsbeq	r7, r3, r7
    3650:	002c0201 	eoreq	r0, ip, r1, lsl #4
    3654:	10390000 	eorsne	r0, r9, r0
    3658:	2a080000 	bcs	203660 <__bss_end__+0x1f8c70>
    365c:	18000001 	stmdane	r0, {r0}
    3660:	05000001 	streq	r0, [r0, #-1]
    3664:	00a56c03 	adceq	r6, r5, r3, lsl #24
    3668:	98780900 	ldmdals	r8!, {r8, fp}^
    366c:	011d0000 	tsteq	sp, r0
    3670:	980a0000 	stmdals	sl, {}	; <UNPREDICTABLE>
    3674:	24000098 	strcs	r0, [r0], #-152	; 0x98
    3678:	fe000001 	cdp2	0, 0, cr0, cr0, cr1, {0}
    367c:	0b000000 	bleq	3684 <__code_start__-0x497c>
    3680:	32015301 	andcc	r5, r1, #67108864	; 0x4000000
    3684:	0552010b 	ldrbeq	r0, [r2, #-267]	; 0x10b
    3688:	00a56c03 	adceq	r6, r5, r3, lsl #24
    368c:	51010b00 	tstpl	r1, r0, lsl #22
    3690:	a58c0305 	strge	r0, [ip, #773]	; 0x305
    3694:	010b0000 	mrseq	r0, (UNDEF: 11)
    3698:	c8030550 	stmdagt	r3, {r4, r6, r8, sl}
    369c:	0b0000a4 	bleq	3934 <__code_start__-0x46cc>
    36a0:	02047d02 	andeq	r7, r4, #2, 26	; 0x80
    36a4:	020b0074 	andeq	r0, fp, #116	; 0x74
    36a8:	0305007d 	movweq	r0, #20605	; 0x507d
    36ac:	0000a5b8 			; <UNDEFINED> instruction: 0x0000a5b8
    36b0:	989c0900 	ldmls	ip, {r8, fp}
    36b4:	013a0000 	teqeq	sl, r0
    36b8:	0c000000 	stceq	0, cr0, [r0], {-0}
    36bc:	00000072 	andeq	r0, r0, r2, ror r0
    36c0:	00000118 	andeq	r0, r0, r8, lsl r1
    36c4:	00006b0d 	andeq	r6, r0, sp, lsl #22
    36c8:	05001c00 	streq	r1, [r0, #-3072]	; 0xc00
    36cc:	00000108 	andeq	r0, r0, r8, lsl #2
    36d0:	00027e0e 	andeq	r7, r2, lr, lsl #28
    36d4:	0f1e0200 	svceq	0x001e0200
    36d8:	00000563 	andeq	r0, r0, r3, ror #10
    36dc:	00252902 	eoreq	r2, r5, r2, lsl #18
    36e0:	013a0000 	teqeq	sl, r0
    36e4:	79100000 	ldmdbvc	r0, {}	; <UNPREDICTABLE>
    36e8:	11000000 	mrsne	r0, (UNDEF: 0)
    36ec:	00f10e00 	rscseq	r0, r1, r0, lsl #28
    36f0:	65020000 	strvs	r0, [r2, #-0]
    36f4:	00009800 	andeq	r9, r0, r0, lsl #16
    36f8:	8c000400 	cfstrshi	mvf0, [r0], {-0}
    36fc:	04000010 	streq	r0, [r0], #-16
    3700:	00050901 	andeq	r0, r5, r1, lsl #18
    3704:	07d60100 	ldrbeq	r0, [r6, r0, lsl #2]
    3708:	05740000 	ldrbeq	r0, [r4, #-0]!
    370c:	98ac0000 	stmials	ip!, {}	; <UNPREDICTABLE>
    3710:	00080000 	andeq	r0, r8, r0
    3714:	0e4d0000 	cdpeq	0, 4, cr0, cr13, cr0, {0}
    3718:	04020000 	streq	r0, [r2], #-0
    371c:	746e6905 	strbtvc	r6, [lr], #-2309	; 0x905
    3720:	07040300 	streq	r0, [r4, -r0, lsl #6]
    3724:	000001c2 	andeq	r0, r0, r2, asr #3
    3728:	e5060103 	str	r0, [r6, #-259]	; 0x103
    372c:	03000000 	movweq	r0, #0
    3730:	02370502 	eorseq	r0, r7, #8388608	; 0x800000
    3734:	04030000 	streq	r0, [r3], #-0
    3738:	00020005 	andeq	r0, r2, r5
    373c:	05080300 	streq	r0, [r8, #-768]	; 0x300
    3740:	000001fb 	strdeq	r0, [r0], -fp
    3744:	e3080103 	movw	r0, #33027	; 0x8103
    3748:	03000000 	movweq	r0, #0
    374c:	004c0702 	subeq	r0, ip, r2, lsl #14
    3750:	04030000 	streq	r0, [r3], #-0
    3754:	0001bd07 	andeq	fp, r1, r7, lsl #26
    3758:	07080300 	streq	r0, [r8, -r0, lsl #6]
    375c:	000001b8 			; <UNDEFINED> instruction: 0x000001b8
    3760:	de070403 	cdple	4, 0, cr0, cr7, cr3, {0}
    3764:	03000001 	movweq	r0, #1
    3768:	00ec0801 	rsceq	r0, ip, r1, lsl #16
    376c:	f6040000 			; <UNDEFINED> instruction: 0xf6040000
    3770:	01000006 	tsteq	r0, r6
    3774:	0098ac04 	addseq	sl, r8, r4, lsl #24
    3778:	00000400 	andeq	r0, r0, r0, lsl #8
    377c:	049c0100 	ldreq	r0, [ip], #256	; 0x100
    3780:	000006a0 	andeq	r0, r0, r0, lsr #13
    3784:	98b00501 	ldmls	r0!, {r0, r8, sl}
    3788:	00040000 	andeq	r0, r4, r0
    378c:	9c010000 	stcls	0, cr0, [r1], {-0}
    3790:	0001d700 	andeq	sp, r1, r0, lsl #14
    3794:	ce000400 	cfcpysgt	mvf0, mvf0
    3798:	04000010 	streq	r0, [r0], #-16
    379c:	00050901 	andeq	r0, r5, r1, lsl #18
    37a0:	08920100 	ldmeq	r2, {r8}
    37a4:	05740000 	ldrbeq	r0, [r4, #-0]!
    37a8:	98b40000 	ldmls	r4!, {}	; <UNPREDICTABLE>
    37ac:	006c0000 	rsbeq	r0, ip, r0
    37b0:	0e980000 	cdpeq	0, 9, cr0, cr8, cr0, {0}
    37b4:	04020000 	streq	r0, [r2], #-0
    37b8:	746e6905 	strbtvc	r6, [lr], #-2309	; 0x905
    37bc:	07040300 	streq	r0, [r4, -r0, lsl #6]
    37c0:	000001c2 	andeq	r0, r0, r2, asr #3
    37c4:	e5060103 	str	r0, [r6, #-259]	; 0x103
    37c8:	03000000 	movweq	r0, #0
    37cc:	02370502 	eorseq	r0, r7, #8388608	; 0x800000
    37d0:	04030000 	streq	r0, [r3], #-0
    37d4:	00020005 	andeq	r0, r2, r5
    37d8:	05080300 	streq	r0, [r8, #-768]	; 0x300
    37dc:	000001fb 	strdeq	r0, [r0], -fp
    37e0:	e3080103 	movw	r0, #33027	; 0x8103
    37e4:	03000000 	movweq	r0, #0
    37e8:	004c0702 	subeq	r0, ip, r2, lsl #14
    37ec:	04030000 	streq	r0, [r3], #-0
    37f0:	0001bd07 	andeq	fp, r1, r7, lsl #26
    37f4:	07080300 	streq	r0, [r8, -r0, lsl #6]
    37f8:	000001b8 			; <UNDEFINED> instruction: 0x000001b8
    37fc:	de070403 	cdple	4, 0, cr0, cr7, cr3, {0}
    3800:	03000001 	movweq	r0, #1
    3804:	00ec0801 	rsceq	r0, ip, r1, lsl #16
    3808:	04040000 	streq	r0, [r4], #-0
    380c:	00f01402 	rscseq	r1, r0, r2, lsl #8
    3810:	ab050000 	blge	143818 <__bss_end__+0x138e28>
    3814:	80000008 	andhi	r0, r0, r8
    3818:	028082e4 	addeq	r8, r0, #228, 4	; 0x4000000e
    381c:	00083105 	andeq	r3, r8, r5, lsl #2
    3820:	82e48000 	rschi	r8, r4, #0
    3824:	d8050280 	stmdale	r5, {r7, r9}
    3828:	84000008 	strhi	r0, [r0], #-8
    382c:	028082e4 	addeq	r8, r0, #228, 4	; 0x4000000e
    3830:	0007f305 	andeq	pc, r7, r5, lsl #6
    3834:	82e48800 	rschi	r8, r4, #0, 16
    3838:	14050280 	strne	r0, [r5], #-640	; 0x280
    383c:	8c000008 	stchi	0, cr0, [r0], {8}
    3840:	028082e4 	addeq	r8, r0, #228, 4	; 0x4000000e
    3844:	00085505 	andeq	r5, r8, r5, lsl #10
    3848:	82e49000 	rschi	r9, r4, #0
    384c:	63050280 	movwvs	r0, #21120	; 0x5280
    3850:	94000008 	strls	r0, [r0], #-8
    3854:	028082e4 	addeq	r8, r0, #228, 4	; 0x4000000e
    3858:	00084305 	andeq	r4, r8, r5, lsl #6
    385c:	82e49800 	rschi	r9, r4, #0, 16
    3860:	ba050280 	blt	144268 <__bss_end__+0x139878>
    3864:	9c000008 	stcls	0, cr0, [r0], {8}
    3868:	028082e4 	addeq	r8, r0, #228, 4	; 0x4000000e
    386c:	0008c905 	andeq	ip, r8, r5, lsl #18
    3870:	82e4a000 	rschi	sl, r4, #0
    3874:	01050280 	smlabbeq	r5, r0, r2, r0
    3878:	a4000008 	strge	r0, [r0], #-8
    387c:	028082e4 	addeq	r8, r0, #228, 4	; 0x4000000e
    3880:	04240600 	strteq	r0, [r4], #-1536	; 0x600
    3884:	1b010000 	blne	4388c <__bss_end__+0x38e9c>
    3888:	000098b4 			; <UNDEFINED> instruction: 0x000098b4
    388c:	0000006c 	andeq	r0, r0, ip, rrx
    3890:	01a59c01 			; <UNDEFINED> instruction: 0x01a59c01
    3894:	20070000 	andcs	r0, r7, r0
    3898:	01000008 	tsteq	r0, r8
    389c:	00002c23 	andeq	r2, r0, r3, lsr #24
    38a0:	08710700 	ldmdaeq	r1!, {r8, r9, sl}^
    38a4:	24010000 	strcs	r0, [r1], #-0
    38a8:	0000002c 	andeq	r0, r0, ip, lsr #32
    38ac:	74736408 	ldrbtvc	r6, [r3], #-1032	; 0x408
    38b0:	a5270100 	strge	r0, [r7, #-256]!	; 0x100
    38b4:	00000001 	andeq	r0, r0, r1
    38b8:	63727309 	cmnvs	r2, #603979776	; 0x24000000
    38bc:	a5280100 	strge	r0, [r8, #-256]!	; 0x100
    38c0:	0a000001 	beq	38cc <__code_start__-0x4734>
    38c4:	2901006e 	stmdbcs	r1, {r1, r2, r3, r5, r6}
    38c8:	0000002c 	andeq	r0, r0, ip, lsr #32
    38cc:	e80b5001 	stmda	fp, {r0, ip, lr}
    38d0:	24000098 	strcs	r0, [r0], #-152	; 0x98
    38d4:	58000000 	stmdapl	r0, {}	; <UNPREDICTABLE>
    38d8:	0c000001 	stceq	0, cr0, [r0], {1}
    38dc:	2a010069 	bcs	43a88 <__bss_end__+0x39098>
    38e0:	00000025 	andeq	r0, r0, r5, lsr #32
    38e4:	00001057 	andeq	r1, r0, r7, asr r0
    38e8:	98bc0d00 	ldmls	ip!, {r8, sl, fp}
    38ec:	01c10000 	biceq	r0, r1, r0
    38f0:	c80e0000 	stmdagt	lr, {}	; <UNPREDICTABLE>
    38f4:	c8000098 	stmdagt	r0, {r3, r4, r7}
    38f8:	7e000001 	cdpvc	0, 0, cr0, cr0, cr1, {0}
    38fc:	0f000001 	svceq	0x00000001
    3900:	09025101 	stmdbeq	r2, {r0, r8, ip, lr}
    3904:	50010fff 	strdpl	r0, [r1], -pc	; <UNPREDICTABLE>
    3908:	b21c0c05 	andslt	r0, ip, #1280	; 0x500
    390c:	0e002000 	cdpeq	0, 0, cr2, cr0, cr0, {0}
    3910:	000098d4 	ldrdeq	r9, [r0], -r4
    3914:	000001c8 	andeq	r0, r0, r8, asr #3
    3918:	0000019b 	muleq	r0, fp, r1
    391c:	0251010f 	subseq	r0, r1, #-1073741821	; 0xc0000003
    3920:	010fff09 	tsteq	pc, r9, lsl #30
    3924:	200c0550 	andcs	r0, ip, r0, asr r5
    3928:	002000b2 	strhteq	r0, [r0], -r2
    392c:	0098d80d 	addseq	sp, r8, sp, lsl #16
    3930:	0001c100 	andeq	ip, r1, r0, lsl #2
    3934:	04100000 	ldreq	r0, [r0], #-0
    3938:	0000002c 	andeq	r0, r0, ip, lsr #32
    393c:	00082007 	andeq	r2, r8, r7
    3940:	2c230100 	stfcss	f0, [r3], #-0
    3944:	07000000 	streq	r0, [r0, -r0]
    3948:	00000871 	andeq	r0, r0, r1, ror r8
    394c:	002c2401 	eoreq	r2, ip, r1, lsl #8
    3950:	86110000 	ldrhi	r0, [r1], -r0
    3954:	03000008 	movweq	r0, #8
    3958:	08b41289 	ldmeq	r4!, {r0, r3, r7, r9, ip}
    395c:	9b030000 	blls	c3964 <__bss_end__+0xb8f74>
    3960:	00002c13 	andeq	r2, r0, r3, lsl ip
    3964:	002c1300 	eoreq	r1, ip, r0, lsl #6
    3968:	00000000 	andeq	r0, r0, r0
    396c:	000001ad 	andeq	r0, r0, sp, lsr #3
    3970:	11d40004 	bicsne	r0, r4, r4
    3974:	01040000 	mrseq	r0, (UNDEF: 4)
    3978:	00000509 	andeq	r0, r0, r9, lsl #10
    397c:	0008f401 	andeq	pc, r8, r1, lsl #8
    3980:	00057400 	andeq	r7, r5, r0, lsl #8
    3984:	00001800 	andeq	r1, r0, r0, lsl #16
    3988:	00000000 	andeq	r0, r0, r0
    398c:	000f6500 	andeq	r6, pc, r0, lsl #10
    3990:	05040200 	streq	r0, [r4, #-512]	; 0x200
    3994:	00746e69 	rsbseq	r6, r4, r9, ror #28
    3998:	c2070403 	andgt	r0, r7, #50331648	; 0x3000000
    399c:	03000001 	movweq	r0, #1
    39a0:	00e50601 	rsceq	r0, r5, r1, lsl #12
    39a4:	02030000 	andeq	r0, r3, #0
    39a8:	00023705 	andeq	r3, r2, r5, lsl #14
    39ac:	05040300 	streq	r0, [r4, #-768]	; 0x300
    39b0:	00000200 	andeq	r0, r0, r0, lsl #4
    39b4:	fb050803 	blx	1459ca <__bss_end__+0x13afda>
    39b8:	03000001 	movweq	r0, #1
    39bc:	00e30801 	rsceq	r0, r3, r1, lsl #16
    39c0:	02030000 	andeq	r0, r3, #0
    39c4:	00004c07 	andeq	r4, r0, r7, lsl #24
    39c8:	07040300 	streq	r0, [r4, -r0, lsl #6]
    39cc:	000001bd 			; <UNDEFINED> instruction: 0x000001bd
    39d0:	b8070803 	stmdalt	r7, {r0, r1, fp}
    39d4:	03000001 	movweq	r0, #1
    39d8:	01de0704 	bicseq	r0, lr, r4, lsl #14
    39dc:	01030000 	mrseq	r0, (UNDEF: 3)
    39e0:	0000ec08 	andeq	lr, r0, r8, lsl #24
    39e4:	08e60400 	stmiaeq	r6!, {sl}^
    39e8:	0e010000 	cdpeq	0, 0, cr0, cr1, cr0, {0}
    39ec:	00000025 	andeq	r0, r0, r5, lsr #32
    39f0:	00009920 	andeq	r9, r0, r0, lsr #18
    39f4:	00000018 	andeq	r0, r0, r8, lsl r0
    39f8:	00a29c01 	adceq	r9, r2, r1, lsl #24
    39fc:	26050000 	strcs	r0, [r5], -r0
    3a00:	01000000 	mrseq	r0, (UNDEF: 0)
    3a04:	00002c0f 	andeq	r2, r0, pc, lsl #24
    3a08:	00107600 	andseq	r7, r0, r0, lsl #12
    3a0c:	28060000 	stmdacs	r6, {}	; <UNPREDICTABLE>
    3a10:	01000009 	tsteq	r0, r9
    3a14:	00993817 	addseq	r3, r9, r7, lsl r8
    3a18:	00001400 	andeq	r1, r0, r0, lsl #8
    3a1c:	c79c0100 	ldrgt	r0, [ip, r0, lsl #2]
    3a20:	05000000 	streq	r0, [r0, #-0]
    3a24:	00000026 	andeq	r0, r0, r6, lsr #32
    3a28:	002c1801 	eoreq	r1, ip, r1, lsl #16
    3a2c:	10950000 	addsne	r0, r5, r0
    3a30:	06000000 	streq	r0, [r0], -r0
    3a34:	000006c8 	andeq	r0, r0, r8, asr #13
    3a38:	994c1f01 	stmdbls	ip, {r0, r8, r9, sl, fp, ip}^
    3a3c:	00480000 	subeq	r0, r8, r0
    3a40:	9c010000 	stcls	0, cr0, [r1], {-0}
    3a44:	00000177 	andeq	r0, r0, r7, ror r1
    3a48:	00094307 	andeq	r4, r9, r7, lsl #6
    3a4c:	772a0100 	strvc	r0, [sl, -r0, lsl #2]!
    3a50:	1c000001 	stcne	0, cr0, [r0], {1}
    3a54:	07201000 	streq	r1, [r0, -r0]!
    3a58:	00000920 	andeq	r0, r0, r0, lsr #18
    3a5c:	01772b01 	cmneq	r7, r1, lsl #22
    3a60:	00240000 	eoreq	r0, r4, r0
    3a64:	37072010 	smladcc	r7, r0, r0, r2
    3a68:	01000009 	tsteq	r0, r9
    3a6c:	0001772c 	andeq	r7, r1, ip, lsr #14
    3a70:	00000000 	andeq	r0, r0, r0
    3a74:	0907085a 	stmdbeq	r7, {r1, r3, r4, r6, fp}
    3a78:	2d010000 	stccs	0, cr0, [r1, #-0]
    3a7c:	00000177 	andeq	r0, r0, r7, ror r1
    3a80:	99540920 	ldmdbls	r4, {r5, r8, fp}^
    3a84:	00790000 	rsbseq	r0, r9, r0
    3a88:	60090000 	andvs	r0, r9, r0
    3a8c:	a2000099 	andge	r0, r0, #153	; 0x99
    3a90:	0a000000 	beq	3a98 <__code_start__-0x4568>
    3a94:	00009968 	andeq	r9, r0, r8, ror #18
    3a98:	0000018d 	andeq	r0, r0, sp, lsl #3
    3a9c:	0000013a 	andeq	r0, r0, sl, lsr r1
    3aa0:	0150010b 	cmpeq	r0, fp, lsl #2
    3aa4:	740a004e 	strvc	r0, [sl], #-78	; 0x4e
    3aa8:	9e000099 	mcrls	0, 0, r0, cr0, cr9, {4}
    3aac:	5a000001 	bpl	3ab8 <__code_start__-0x4548>
    3ab0:	0b000001 	bleq	3abc <__code_start__-0x4544>
    3ab4:	0c055101 	stfeqs	f5, [r5], {1}
    3ab8:	5a000001 	bpl	3ac4 <__code_start__-0x453c>
    3abc:	0550010b 	ldrbeq	r0, [r0, #-267]	; 0x10b
    3ac0:	1000240c 	andne	r2, r0, ip, lsl #8
    3ac4:	800c0020 	andhi	r0, ip, r0, lsr #32
    3ac8:	9e000099 	mcrls	0, 0, r0, cr0, cr9, {4}
    3acc:	0b000001 	bleq	3ad8 <__code_start__-0x4528>
    3ad0:	0c055101 	stfeqs	f5, [r5], {1}
    3ad4:	5a000020 	bpl	3b5c <__code_start__-0x44a4>
    3ad8:	0550010b 	ldrbeq	r0, [r0, #-267]	; 0x10b
    3adc:	10001c0c 	andne	r1, r0, ip, lsl #24
    3ae0:	0d000020 	stceq	0, cr0, [r0, #-128]	; 0xffffff80
    3ae4:	00000025 	andeq	r0, r0, r5, lsr #32
    3ae8:	0008e908 	andeq	lr, r8, r8, lsl #18
    3aec:	880d0100 	stmdahi	sp, {r8}
    3af0:	10000001 	andne	r0, r0, r1
    3af4:	00002c0d 	andeq	r2, r0, sp, lsl #24
    3af8:	06d30e00 	ldrbeq	r0, [r3], r0, lsl #28
    3afc:	4f020000 	svcmi	0x00020000
    3b00:	0000019e 	muleq	r0, lr, r1
    3b04:	00002c0f 	andeq	r2, r0, pc, lsl #24
    3b08:	b4100000 	ldrlt	r0, [r0], #-0
    3b0c:	02000008 	andeq	r0, r0, #8
    3b10:	002c0f9b 	mlaeq	ip, fp, pc, r0	; <UNPREDICTABLE>
    3b14:	2c0f0000 	stccs	0, cr0, [pc], {-0}
    3b18:	00000000 	andeq	r0, r0, r0
    3b1c:	0001f700 	andeq	pc, r1, r0, lsl #14
    3b20:	c2000400 	andgt	r0, r0, #0, 8
    3b24:	04000012 	streq	r0, [r0], #-18
    3b28:	00050901 	andeq	r0, r5, r1, lsl #18
    3b2c:	09680100 	stmdbeq	r8!, {r8}^
    3b30:	05740000 	ldrbeq	r0, [r4, #-0]!
    3b34:	99940000 	ldmibls	r4, {}	; <UNPREDICTABLE>
    3b38:	00980000 	addseq	r0, r8, r0
    3b3c:	100b0000 	andne	r0, fp, r0
    3b40:	04020000 	streq	r0, [r2], #-0
    3b44:	746e6905 	strbtvc	r6, [lr], #-2309	; 0x905
    3b48:	07040300 	streq	r0, [r4, -r0, lsl #6]
    3b4c:	000001c2 	andeq	r0, r0, r2, asr #3
    3b50:	e5060103 	str	r0, [r6, #-259]	; 0x103
    3b54:	03000000 	movweq	r0, #0
    3b58:	02370502 	eorseq	r0, r7, #8388608	; 0x800000
    3b5c:	04030000 	streq	r0, [r3], #-0
    3b60:	00020005 	andeq	r0, r2, r5
    3b64:	05080300 	streq	r0, [r8, #-768]	; 0x300
    3b68:	000001fb 	strdeq	r0, [r0], -fp
    3b6c:	e3080103 	movw	r0, #33027	; 0x8103
    3b70:	03000000 	movweq	r0, #0
    3b74:	004c0702 	subeq	r0, ip, r2, lsl #14
    3b78:	04030000 	streq	r0, [r3], #-0
    3b7c:	0001bd07 	andeq	fp, r1, r7, lsl #26
    3b80:	07080300 	streq	r0, [r8, -r0, lsl #6]
    3b84:	000001b8 			; <UNDEFINED> instruction: 0x000001b8
    3b88:	de070403 	cdple	4, 0, cr0, cr7, cr3, {0}
    3b8c:	03000001 	movweq	r0, #1
    3b90:	00ec0801 	rsceq	r0, ip, r1, lsl #16
    3b94:	86040000 	strhi	r0, [r4], -r0
    3b98:	01000009 	tsteq	r0, r9
    3b9c:	00999405 	addseq	r9, r9, r5, lsl #8
    3ba0:	00001c00 	andeq	r1, r0, r0, lsl #24
    3ba4:	9e9c0100 	fmllse	f0, f4, f0
    3ba8:	05000000 	streq	r0, [r0, #-0]
    3bac:	00000980 	andeq	r0, r0, r0, lsl #19
    3bb0:	002c0501 	eoreq	r0, ip, r1, lsl #10
    3bb4:	10bf0000 	adcsne	r0, pc, r0
    3bb8:	06000000 	streq	r0, [r0], -r0
    3bbc:	0000094b 	andeq	r0, r0, fp, asr #18
    3bc0:	002c1101 	eoreq	r1, ip, r1, lsl #2
    3bc4:	99b00000 	ldmibls	r0!, {}	; <UNPREDICTABLE>
    3bc8:	00140000 	andseq	r0, r4, r0
    3bcc:	9c010000 	stcls	0, cr0, [r1], {-0}
    3bd0:	000000cb 	andeq	r0, r0, fp, asr #1
    3bd4:	0099bc07 	addseq	fp, r9, r7, lsl #24
    3bd8:	0001de00 	andeq	sp, r1, r0, lsl #28
    3bdc:	50010800 	andpl	r0, r1, r0, lsl #16
    3be0:	30040c05 	andcc	r0, r4, r5, lsl #24
    3be4:	00002000 	andeq	r2, r0, r0
    3be8:	00099c06 	andeq	r9, r9, r6, lsl #24
    3bec:	2c160100 	ldfcss	f0, [r6], {-0}
    3bf0:	c4000000 	strgt	r0, [r0], #-0
    3bf4:	1c000099 	stcne	0, cr0, [r0], {153}	; 0x99
    3bf8:	01000000 	mrseq	r0, (UNDEF: 0)
    3bfc:	00010d9c 	muleq	r1, ip, sp
    3c00:	00750900 	rsbseq	r0, r5, r0, lsl #18
    3c04:	002c1a01 	eoreq	r1, ip, r1, lsl #20
    3c08:	10f30000 	rscsne	r0, r3, r0
    3c0c:	cc0a0000 	stcgt	0, cr0, [sl], {-0}
    3c10:	f3000099 	vqadd.u8	d0, d16, d9
    3c14:	0a000001 	beq	3c20 <__code_start__-0x43e0>
    3c18:	000099d0 	ldrdeq	r9, [r0], -r0
    3c1c:	0000009e 	muleq	r0, lr, r0
    3c20:	0099d80a 	addseq	sp, r9, sl, lsl #16
    3c24:	0001f300 	andeq	pc, r1, r0, lsl #6
    3c28:	93040000 	movwls	r0, #16384	; 0x4000
    3c2c:	01000009 	tsteq	r0, r9
    3c30:	0099e01f 	addseq	lr, r9, pc, lsl r0
    3c34:	00002400 	andeq	r2, r0, r0, lsl #8
    3c38:	6b9c0100 	blvs	fe704040 <__bss_end__+0xfe6f9650>
    3c3c:	0b000001 	bleq	3c48 <__code_start__-0x43b8>
    3c40:	01007375 	tsteq	r0, r5, ror r3
    3c44:	00002c1f 	andeq	r2, r0, pc, lsl ip
    3c48:	00111100 	andseq	r1, r1, r0, lsl #2
    3c4c:	62720c00 	rsbsvs	r0, r2, #0, 24
    3c50:	2c200100 	stfcss	f0, [r0], #-0
    3c54:	01000000 	mrseq	r0, (UNDEF: 0)
    3c58:	99f00d54 	ldmibls	r0!, {r2, r4, r6, r8, sl, fp}^
    3c5c:	00100000 	andseq	r0, r0, r0
    3c60:	01610000 	cmneq	r1, r0
    3c64:	72090000 	andvc	r0, r9, #0
    3c68:	22010061 	andcs	r0, r1, #97	; 0x61
    3c6c:	0000002c 	andeq	r0, r0, ip, lsr #32
    3c70:	0000112f 	andeq	r1, r0, pc, lsr #2
    3c74:	0099f40a 	addseq	pc, r9, sl, lsl #8
    3c78:	0000cb00 	andeq	ip, r0, r0, lsl #22
    3c7c:	ec0a0000 	stc	0, cr0, [sl], {-0}
    3c80:	cb000099 	blgt	3eec <__code_start__-0x4114>
    3c84:	00000000 	andeq	r0, r0, r0
    3c88:	0006d304 	andeq	sp, r6, r4, lsl #6
    3c8c:	04280100 	strteq	r0, [r8], #-256	; 0x100
    3c90:	1400009a 	strne	r0, [r0], #-154	; 0x9a
    3c94:	01000000 	mrseq	r0, (UNDEF: 0)
    3c98:	0001a49c 	muleq	r1, ip, r4
    3c9c:	736d0b00 	cmnvc	sp, #0, 22
    3ca0:	2c280100 	stfcss	f0, [r8], #-0
    3ca4:	42000000 	andmi	r0, r0, #0
    3ca8:	07000011 	smladeq	r0, r1, r0, r0
    3cac:	00009a14 	andeq	r9, r0, r4, lsl sl
    3cb0:	0000010d 	andeq	r0, r0, sp, lsl #2
    3cb4:	07500108 	ldrbeq	r0, [r0, -r8, lsl #2]
    3cb8:	0a5001f3 	beq	140448c <__bss_end__+0x13f9a9c>
    3cbc:	001e03e8 	andseq	r0, lr, r8, ror #7
    3cc0:	095e0400 	ldmdbeq	lr, {sl}^
    3cc4:	2b010000 	blcs	43ccc <__bss_end__+0x392dc>
    3cc8:	00009a18 	andeq	r9, r0, r8, lsl sl
    3ccc:	00000014 	andeq	r0, r0, r4, lsl r0
    3cd0:	01de9c01 	bicseq	r9, lr, r1, lsl #24
    3cd4:	730b0000 	movwvc	r0, #45056	; 0xb000
    3cd8:	01006365 	tsteq	r0, r5, ror #6
    3cdc:	00002c2b 	andeq	r2, r0, fp, lsr #24
    3ce0:	00116300 	andseq	r6, r1, r0, lsl #6
    3ce4:	9a280700 	bls	a058ec <__bss_end__+0x9faefc>
    3ce8:	016b0000 	cmneq	fp, r0
    3cec:	01080000 	mrseq	r0, (UNDEF: 8)
    3cf0:	01f30750 	mvnseq	r0, r0, asr r7
    3cf4:	03e80a50 	mvneq	r0, #80, 20	; 0x50000
    3cf8:	0e00001e 	mcreq	0, 0, r0, cr0, cr14, {0}
    3cfc:	0000097a 	andeq	r0, r0, sl, ror r9
    3d00:	002ca702 	eoreq	sl, ip, r2, lsl #14
    3d04:	01f30000 	mvnseq	r0, r0
    3d08:	2c0f0000 	stccs	0, cr0, [pc], {-0}
    3d0c:	00000000 	andeq	r0, r0, r0
    3d10:	00088610 	andeq	r8, r8, r0, lsl r6
    3d14:	00890200 	addeq	r0, r9, r0, lsl #4
    3d18:	00000cc5 	andeq	r0, r0, r5, asr #25
    3d1c:	13b80004 			; <UNDEFINED> instruction: 0x13b80004
    3d20:	01040000 	mrseq	r0, (UNDEF: 4)
    3d24:	00000d47 	andeq	r0, r0, r7, asr #26
    3d28:	000aaa0c 	andeq	sl, sl, ip, lsl #20
    3d2c:	000ac500 	andeq	ip, sl, r0, lsl #10
    3d30:	009a9000 	addseq	r9, sl, r0
    3d34:	00017800 	andeq	r7, r1, r0, lsl #16
    3d38:	0010bd00 	andseq	fp, r0, r0, lsl #26
    3d3c:	05040200 	streq	r0, [r4, #-512]	; 0x200
    3d40:	00746e69 	rsbseq	r6, r4, r9, ror #28
    3d44:	c2070403 	andgt	r0, r7, #50331648	; 0x3000000
    3d48:	04000001 	streq	r0, [r0], #-1
    3d4c:	0000002c 	andeq	r0, r0, ip, lsr #32
    3d50:	e5060103 	str	r0, [r6, #-259]	; 0x103
    3d54:	03000000 	movweq	r0, #0
    3d58:	02370502 	eorseq	r0, r7, #8388608	; 0x800000
    3d5c:	04030000 	streq	r0, [r3], #-0
    3d60:	00020005 	andeq	r0, r2, r5
    3d64:	05080300 	streq	r0, [r8, #-768]	; 0x300
    3d68:	000001fb 	strdeq	r0, [r0], -fp
    3d6c:	e3080103 	movw	r0, #33027	; 0x8103
    3d70:	03000000 	movweq	r0, #0
    3d74:	004c0702 	subeq	r0, ip, r2, lsl #14
    3d78:	04030000 	streq	r0, [r3], #-0
    3d7c:	0001bd07 	andeq	fp, r1, r7, lsl #26
    3d80:	07080300 	streq	r0, [r8, -r0, lsl #6]
    3d84:	000001b8 			; <UNDEFINED> instruction: 0x000001b8
    3d88:	000c5c05 	andeq	r5, ip, r5, lsl #24
    3d8c:	25070200 	strcs	r0, [r7, #-512]	; 0x200
    3d90:	05000000 	streq	r0, [r0, #-0]
    3d94:	00000c46 	andeq	r0, r0, r6, asr #24
    3d98:	00462c03 	subeq	r2, r6, r3, lsl #24
    3d9c:	22050000 	andcs	r0, r5, #0
    3da0:	0300000d 	movweq	r0, #13
    3da4:	00004672 	andeq	r4, r0, r2, ror r6
    3da8:	0bea0600 	bleq	ffa855b0 <__bss_end__+0xffa7abc0>
    3dac:	65040000 	strvs	r0, [r4, #-0]
    3db0:	00002c01 	andeq	r2, r0, r1, lsl #24
    3db4:	03040700 	movweq	r0, #18176	; 0x4700
    3db8:	0000bca6 	andeq	fp, r0, r6, lsr #25
    3dbc:	0bd50800 	bleq	ff545dc4 <__bss_end__+0xff53b3d4>
    3dc0:	a8030000 	stmdage	r3, {}	; <UNPREDICTABLE>
    3dc4:	00000091 	muleq	r0, r1, r0
    3dc8:	000b7d08 	andeq	r7, fp, r8, lsl #26
    3dcc:	bca90300 	stclt	3, cr0, [r9]
    3dd0:	00000000 	andeq	r0, r0, r0
    3dd4:	00005409 	andeq	r5, r0, r9, lsl #8
    3dd8:	0000cc00 	andeq	ip, r0, r0, lsl #24
    3ddc:	00cc0a00 	sbceq	r0, ip, r0, lsl #20
    3de0:	00030000 	andeq	r0, r3, r0
    3de4:	de070403 	cdple	4, 0, cr0, cr7, cr3, {0}
    3de8:	0b000001 	bleq	3df4 <__code_start__-0x420c>
    3dec:	f4a30308 	vld4.8	{d0[0],d1[0],d2[0],d3[0]}, [r3], r8
    3df0:	0c000000 	stceq	0, cr0, [r0], {-0}
    3df4:	00000d07 	andeq	r0, r0, r7, lsl #26
    3df8:	0025a503 	eoreq	sl, r5, r3, lsl #10
    3dfc:	0c000000 	stceq	0, cr0, [r0], {-0}
    3e00:	00000d0f 	andeq	r0, r0, pc, lsl #26
    3e04:	009daa03 	addseq	sl, sp, r3, lsl #20
    3e08:	00040000 	andeq	r0, r4, r0
    3e0c:	000c9a05 	andeq	r9, ip, r5, lsl #20
    3e10:	d3ab0300 			; <UNDEFINED> instruction: 0xd3ab0300
    3e14:	05000000 	streq	r0, [r0, #-0]
    3e18:	00000b46 	andeq	r0, r0, r6, asr #22
    3e1c:	0070af03 	rsbseq	sl, r0, r3, lsl #30
    3e20:	040d0000 	streq	r0, [sp], #-0
    3e24:	0112040e 	tsteq	r2, lr, lsl #8
    3e28:	01030000 	mrseq	r0, (UNDEF: 3)
    3e2c:	0000ec08 	andeq	lr, r0, r8, lsl #24
    3e30:	01120f00 	tsteq	r2, r0, lsl #30
    3e34:	c4050000 	strgt	r0, [r5], #-0
    3e38:	0500000d 	streq	r0, [r0, #-13]
    3e3c:	00006216 	andeq	r6, r0, r6, lsl r2
    3e40:	0b571000 	bleq	15c7e48 <__bss_end__+0x15bd458>
    3e44:	05180000 	ldreq	r0, [r8, #-0]
    3e48:	00017c2d 	andeq	r7, r1, sp, lsr #24
    3e4c:	0cbb0c00 	ldceq	12, cr0, [fp]
    3e50:	2f050000 	svccs	0x00050000
    3e54:	0000017c 	andeq	r0, r0, ip, ror r1
    3e58:	6b5f1100 	blvs	17c8260 <__bss_end__+0x17bd870>
    3e5c:	25300500 	ldrcs	r0, [r0, #-1280]!	; 0x500
    3e60:	04000000 	streq	r0, [r0], #-0
    3e64:	000cf20c 	andeq	pc, ip, ip, lsl #4
    3e68:	25300500 	ldrcs	r0, [r0, #-1280]!	; 0x500
    3e6c:	08000000 	stmdaeq	r0, {}	; <UNPREDICTABLE>
    3e70:	000b320c 	andeq	r3, fp, ip, lsl #4
    3e74:	25300500 	ldrcs	r0, [r0, #-1280]!	; 0x500
    3e78:	0c000000 	stceq	0, cr0, [r0], {-0}
    3e7c:	000e0b0c 	andeq	r0, lr, ip, lsl #22
    3e80:	25300500 	ldrcs	r0, [r0, #-1280]!	; 0x500
    3e84:	10000000 	andne	r0, r0, r0
    3e88:	00785f11 	rsbseq	r5, r8, r1, lsl pc
    3e8c:	01823105 	orreq	r3, r2, r5, lsl #2
    3e90:	00140000 	andseq	r0, r4, r0
    3e94:	0129040e 	teqeq	r9, lr, lsl #8
    3e98:	1e090000 	cdpne	0, 0, cr0, cr9, cr0, {0}
    3e9c:	92000001 	andls	r0, r0, #1
    3ea0:	0a000001 	beq	3eac <__code_start__-0x4154>
    3ea4:	000000cc 	andeq	r0, r0, ip, asr #1
    3ea8:	78100000 	ldmdavc	r0, {}	; <UNPREDICTABLE>
    3eac:	2400000b 	strcs	r0, [r0], #-11
    3eb0:	020b3505 	andeq	r3, fp, #20971520	; 0x1400000
    3eb4:	300c0000 	andcc	r0, ip, r0
    3eb8:	0500000a 	streq	r0, [r0, #-10]
    3ebc:	00002537 	andeq	r2, r0, r7, lsr r5
    3ec0:	2a0c0000 	bcs	303ec8 <__bss_end__+0x2f94d8>
    3ec4:	0500000d 	streq	r0, [r0, #-13]
    3ec8:	00002538 	andeq	r2, r0, r8, lsr r5
    3ecc:	5e0c0400 	cfcpyspl	mvf0, mvf12
    3ed0:	0500000a 	streq	r0, [r0, #-10]
    3ed4:	00002539 	andeq	r2, r0, r9, lsr r5
    3ed8:	fb0c0800 	blx	305ee2 <__bss_end__+0x2fb4f2>
    3edc:	0500000e 	streq	r0, [r0, #-14]
    3ee0:	0000253a 	andeq	r2, r0, sl, lsr r5
    3ee4:	2a0c0c00 	bcs	306eec <__bss_end__+0x2fc4fc>
    3ee8:	0500000c 	streq	r0, [r0, #-12]
    3eec:	0000253b 	andeq	r2, r0, fp, lsr r5
    3ef0:	ff0c1000 			; <UNDEFINED> instruction: 0xff0c1000
    3ef4:	0500000b 	streq	r0, [r0, #-11]
    3ef8:	0000253c 	andeq	r2, r0, ip, lsr r5
    3efc:	100c1400 	andne	r1, ip, r0, lsl #8
    3f00:	0500000e 	streq	r0, [r0, #-14]
    3f04:	0000253d 	andeq	r2, r0, sp, lsr r5
    3f08:	7c0c1800 	stcvc	8, cr1, [ip], {-0}
    3f0c:	0500000c 	streq	r0, [r0, #-12]
    3f10:	0000253e 	andeq	r2, r0, lr, lsr r5
    3f14:	c20c1c00 	andgt	r1, ip, #0, 24
    3f18:	0500000e 	streq	r0, [r0, #-14]
    3f1c:	0000253f 	andeq	r2, r0, pc, lsr r5
    3f20:	12002000 	andne	r2, r0, #0
    3f24:	00000a6d 	andeq	r0, r0, sp, ror #20
    3f28:	48050108 	stmdami	r5, {r3, r8}
    3f2c:	0000024b 	andeq	r0, r0, fp, asr #4
    3f30:	000b190c 	andeq	r1, fp, ip, lsl #18
    3f34:	4b490500 	blmi	124533c <__bss_end__+0x123a94c>
    3f38:	00000002 	andeq	r0, r0, r2
    3f3c:	0009ab0c 	andeq	sl, r9, ip, lsl #22
    3f40:	4b4a0500 	blmi	1285348 <__bss_end__+0x127a958>
    3f44:	80000002 	andhi	r0, r0, r2
    3f48:	000db613 	andeq	fp, sp, r3, lsl r6
    3f4c:	1e4c0500 	cdpne	5, 4, cr0, cr12, cr0, {0}
    3f50:	00000001 	andeq	r0, r0, r1
    3f54:	0a921301 	beq	fe488b60 <__bss_end__+0xfe47e170>
    3f58:	4f050000 	svcmi	0x00050000
    3f5c:	0000011e 	andeq	r0, r0, lr, lsl r1
    3f60:	09000104 	stmdbeq	r0, {r2, r8}
    3f64:	0000010a 	andeq	r0, r0, sl, lsl #2
    3f68:	0000025b 	andeq	r0, r0, fp, asr r2
    3f6c:	0000cc0a 	andeq	ip, r0, sl, lsl #24
    3f70:	12001f00 	andne	r1, r0, #0, 30
    3f74:	00000c33 	andeq	r0, r0, r3, lsr ip
    3f78:	5b050190 	blpl	1445c0 <__bss_end__+0x139bd0>
    3f7c:	00000299 	muleq	r0, r9, r2
    3f80:	000cbb0c 	andeq	fp, ip, ip, lsl #22
    3f84:	995c0500 	ldmdbls	ip, {r8, sl}^
    3f88:	00000002 	andeq	r0, r0, r2
    3f8c:	000cd30c 	andeq	sp, ip, ip, lsl #6
    3f90:	255d0500 	ldrbcs	r0, [sp, #-1280]	; 0x500
    3f94:	04000000 	streq	r0, [r0], #-0
    3f98:	000b2d0c 	andeq	r2, fp, ip, lsl #26
    3f9c:	9f5f0500 	svcls	0x005f0500
    3fa0:	08000002 	stmdaeq	r0, {r1}
    3fa4:	000a6d0c 	andeq	r6, sl, ip, lsl #26
    3fa8:	0b600500 	bleq	18053b0 <__bss_end__+0x17fa9c0>
    3fac:	88000002 	stmdahi	r0, {r1}
    3fb0:	5b040e00 	blpl	1077b8 <__bss_end__+0xfcdc8>
    3fb4:	09000002 	stmdbeq	r0, {r1}
    3fb8:	000002af 	andeq	r0, r0, pc, lsr #5
    3fbc:	000002af 	andeq	r0, r0, pc, lsr #5
    3fc0:	0000cc0a 	andeq	ip, r0, sl, lsl #24
    3fc4:	0e001f00 	cdpeq	15, 0, cr1, cr0, cr0, {0}
    3fc8:	0002b504 	andeq	fp, r2, r4, lsl #10
    3fcc:	86101400 	ldrhi	r1, [r0], -r0, lsl #8
    3fd0:	0800000c 	stmdaeq	r0, {r2, r3}
    3fd4:	02db7305 	sbcseq	r7, fp, #335544320	; 0x14000000
    3fd8:	530c0000 	movwpl	r0, #49152	; 0xc000
    3fdc:	0500000a 	streq	r0, [r0, #-10]
    3fe0:	0002db74 	andeq	sp, r2, r4, ror fp
    3fe4:	b70c0000 	strlt	r0, [ip, -r0]
    3fe8:	05000009 	streq	r0, [r0, #-9]
    3fec:	00002575 	andeq	r2, r0, r5, ror r5
    3ff0:	0e000400 	cfcpyseq	mvf0, mvf0
    3ff4:	00005404 	andeq	r5, r0, r4, lsl #8
    3ff8:	0ca51000 	stceq	0, cr1, [r5]
    3ffc:	05680000 	strbeq	r0, [r8, #-0]!
    4000:	00040bb3 			; <UNDEFINED> instruction: 0x00040bb3
    4004:	705f1100 	subsvc	r1, pc, r0, lsl #2
    4008:	dbb40500 	blle	fed05410 <__bss_end__+0xfecfaa20>
    400c:	00000002 	andeq	r0, r0, r2
    4010:	00725f11 	rsbseq	r5, r2, r1, lsl pc
    4014:	0025b505 	eoreq	fp, r5, r5, lsl #10
    4018:	11040000 	mrsne	r0, (UNDEF: 4)
    401c:	0500775f 	streq	r7, [r0, #-1887]	; 0x75f
    4020:	000025b6 			; <UNDEFINED> instruction: 0x000025b6
    4024:	8b0c0800 	blhi	30602c <__bss_end__+0x2fb63c>
    4028:	0500000a 	streq	r0, [r0, #-10]
    402c:	00003fb7 			; <UNDEFINED> instruction: 0x00003fb7
    4030:	9e0c0c00 	cdpls	12, 0, cr0, cr12, cr0, {0}
    4034:	0500000b 	streq	r0, [r0, #-11]
    4038:	00003fb8 			; <UNDEFINED> instruction: 0x00003fb8
    403c:	5f110e00 	svcpl	0x00110e00
    4040:	05006662 	streq	r6, [r0, #-1634]	; 0x662
    4044:	0002b6b9 			; <UNDEFINED> instruction: 0x0002b6b9
    4048:	fa0c1000 	blx	308050 <__bss_end__+0x2fd660>
    404c:	05000009 	streq	r0, [r0, #-9]
    4050:	000025ba 			; <UNDEFINED> instruction: 0x000025ba
    4054:	7b0c1800 	blvc	30a05c <__bss_end__+0x2ff66c>
    4058:	0500000a 	streq	r0, [r0, #-10]
    405c:	00010ac1 	andeq	r0, r1, r1, asr #21
    4060:	220c1c00 	andcs	r1, ip, #0, 24
    4064:	0500000f 	streq	r0, [r0, #-15]
    4068:	000566c3 	andeq	r6, r5, r3, asr #13
    406c:	3c0c2000 	stccc	0, cr2, [ip], {-0}
    4070:	0500000f 	streq	r0, [r0, #-15]
    4074:	000590c5 	andeq	r9, r5, r5, asr #1
    4078:	170c2400 	strne	r2, [ip, -r0, lsl #8]
    407c:	0500000d 	streq	r0, [r0, #-13]
    4080:	0005b4c8 	andeq	fp, r5, r8, asr #9
    4084:	dc0c2800 	stcle	8, cr2, [ip], {-0}
    4088:	0500000e 	streq	r0, [r0, #-14]
    408c:	0005cec9 	andeq	ip, r5, r9, asr #29
    4090:	5f112c00 	svcpl	0x00112c00
    4094:	05006275 	streq	r6, [r0, #-629]	; 0x275
    4098:	0002b6cc 	andeq	fp, r2, ip, asr #13
    409c:	5f113000 	svcpl	0x00113000
    40a0:	05007075 	streq	r7, [r0, #-117]	; 0x75
    40a4:	0002dbcd 	andeq	sp, r2, sp, asr #23
    40a8:	5f113800 	svcpl	0x00113800
    40ac:	05007275 	streq	r7, [r0, #-629]	; 0x275
    40b0:	000025ce 	andeq	r2, r0, lr, asr #11
    40b4:	3e0c3c00 	cdpcc	12, 0, cr3, cr12, cr0, {0}
    40b8:	0500000a 	streq	r0, [r0, #-10]
    40bc:	0005d4d1 	ldrdeq	sp, [r5], -r1
    40c0:	870c4000 	strhi	r4, [ip, -r0]
    40c4:	0500000e 	streq	r0, [r0, #-14]
    40c8:	0005e4d2 	ldrdeq	lr, [r5], -r2
    40cc:	5f114300 	svcpl	0x00114300
    40d0:	0500626c 	streq	r6, [r0, #-620]	; 0x26c
    40d4:	0002b6d5 	ldrdeq	fp, [r2], -r5
    40d8:	a10c4400 	tstge	ip, r0, lsl #8
    40dc:	0500000a 	streq	r0, [r0, #-10]
    40e0:	000025d8 	ldrdeq	r2, [r0], -r8
    40e4:	090c4c00 	stmdbeq	ip, {sl, fp, lr}
    40e8:	0500000c 	streq	r0, [r0, #-12]
    40ec:	00007bd9 	ldrdeq	r7, [r0], -r9
    40f0:	720c5000 	andvc	r5, ip, #0
    40f4:	0500000e 	streq	r0, [r0, #-14]
    40f8:	000429dc 	ldrdeq	r2, [r4], -ip
    40fc:	f10c5400 			; <UNDEFINED> instruction: 0xf10c5400
    4100:	0500000b 	streq	r0, [r0, #-11]
    4104:	0000ffe0 	andeq	pc, r0, r0, ror #31
    4108:	ad0c5800 	stcge	8, cr5, [ip, #-0]
    410c:	0500000c 	streq	r0, [r0, #-12]
    4110:	0000f4e2 	andeq	pc, r0, r2, ror #9
    4114:	f70c5c00 			; <UNDEFINED> instruction: 0xf70c5c00
    4118:	0500000b 	streq	r0, [r0, #-11]
    411c:	000025e3 	andeq	r2, r0, r3, ror #11
    4120:	15006400 	strne	r6, [r0, #-1024]	; 0x400
    4124:	00000025 	andeq	r0, r0, r5, lsr #32
    4128:	00000429 	andeq	r0, r0, r9, lsr #8
    412c:	00042916 	andeq	r2, r4, r6, lsl r9
    4130:	010a1600 	tsteq	sl, r0, lsl #12
    4134:	0c160000 	ldceq	0, cr0, [r6], {-0}
    4138:	16000001 	strne	r0, [r0], -r1
    413c:	00000025 	andeq	r0, r0, r5, lsr #32
    4140:	34040e00 	strcc	r0, [r4], #-3584	; 0xe00
    4144:	0f000004 	svceq	0x00000004
    4148:	00000429 	andeq	r0, r0, r9, lsr #8
    414c:	000cfa17 	andeq	pc, ip, r7, lsl sl	; <UNPREDICTABLE>
    4150:	05042800 	streq	r2, [r4, #-2048]	; 0x800
    4154:	05660238 	strbeq	r0, [r6, #-568]!	; 0x238
    4158:	75180000 	ldrvc	r0, [r8, #-0]
    415c:	0500000c 	streq	r0, [r0, #-12]
    4160:	0025023a 	eoreq	r0, r5, sl, lsr r2
    4164:	18000000 	stmdane	r0, {}	; <UNPREDICTABLE>
    4168:	00000a9a 	muleq	r0, sl, sl
    416c:	3b023f05 	blcc	93d88 <__bss_end__+0x89398>
    4170:	04000006 	streq	r0, [r0], #-6
    4174:	000b8e18 	andeq	r8, fp, r8, lsl lr
    4178:	023f0500 	eorseq	r0, pc, #0, 10
    417c:	0000063b 	andeq	r0, r0, fp, lsr r6
    4180:	0b4f1808 	bleq	13ca1a8 <__bss_end__+0x13bf7b8>
    4184:	3f050000 	svccc	0x00050000
    4188:	00063b02 	andeq	r3, r6, r2, lsl #22
    418c:	ce180c00 	cdpgt	12, 1, cr0, cr8, cr0, {0}
    4190:	0500000c 	streq	r0, [r0, #-12]
    4194:	00250241 	eoreq	r0, r5, r1, asr #4
    4198:	18100000 	ldmdane	r0, {}	; <UNPREDICTABLE>
    419c:	000009c5 	andeq	r0, r0, r5, asr #19
    41a0:	1d024205 	sfmne	f4, 4, [r2, #-20]	; 0xffffffec
    41a4:	14000008 	strne	r0, [r0], #-8
    41a8:	000dec18 	andeq	lr, sp, r8, lsl ip
    41ac:	02440500 	subeq	r0, r4, #0, 10
    41b0:	00000025 	andeq	r0, r0, r5, lsr #32
    41b4:	0cd81830 	ldcleq	8, cr1, [r8], {48}	; 0x30
    41b8:	45050000 	strmi	r0, [r5, #-0]
    41bc:	00058a02 	andeq	r8, r5, r2, lsl #20
    41c0:	3b183400 	blcc	6111c8 <__bss_end__+0x6067d8>
    41c4:	0500000c 	streq	r0, [r0, #-12]
    41c8:	00250247 	eoreq	r0, r5, r7, asr #4
    41cc:	18380000 	ldmdane	r8!, {}	; <UNPREDICTABLE>
    41d0:	00000ce8 	andeq	r0, r0, r8, ror #25
    41d4:	38024905 	stmdacc	r2, {r0, r2, r8, fp, lr}
    41d8:	3c000008 	stccc	0, cr0, [r0], {8}
    41dc:	000bcd18 	andeq	ip, fp, r8, lsl sp
    41e0:	024c0500 	subeq	r0, ip, #0, 10
    41e4:	0000017c 	andeq	r0, r0, ip, ror r1
    41e8:	0b6e1840 	bleq	1b8a2f0 <__bss_end__+0x1b7f900>
    41ec:	4d050000 	stcmi	0, cr0, [r5, #-0]
    41f0:	00002502 	andeq	r2, r0, r2, lsl #10
    41f4:	f6184400 			; <UNDEFINED> instruction: 0xf6184400
    41f8:	0500000e 	streq	r0, [r0, #-14]
    41fc:	017c024e 	cmneq	ip, lr, asr #4
    4200:	18480000 	stmdane	r8, {}^	; <UNPREDICTABLE>
    4204:	00000c52 	andeq	r0, r0, r2, asr ip
    4208:	3e024f05 	cdpcc	15, 0, cr4, cr2, cr5, {0}
    420c:	4c000008 	stcmi	0, cr0, [r0], {8}
    4210:	000b9618 	andeq	r9, fp, r8, lsl r6
    4214:	02520500 	subseq	r0, r2, #0, 10
    4218:	00000025 	andeq	r0, r0, r5, lsr #32
    421c:	0abd1850 	beq	fef4a364 <__bss_end__+0xfef3f974>
    4220:	53050000 	movwpl	r0, #20480	; 0x5000
    4224:	00010c02 	andeq	r0, r1, r2, lsl #24
    4228:	6e185400 	cfmulsvs	mvf5, mvf8, mvf0
    422c:	0500000c 	streq	r0, [r0, #-12]
    4230:	07fb0276 			; <UNDEFINED> instruction: 0x07fb0276
    4234:	19580000 	ldmdbne	r8, {}^	; <UNPREDICTABLE>
    4238:	00000c33 	andeq	r0, r0, r3, lsr ip
    423c:	99027a05 	stmdbls	r2, {r0, r2, r9, fp, ip, sp, lr}
    4240:	48000002 	stmdami	r0, {r1}
    4244:	0bab1901 	bleq	feaca650 <__bss_end__+0xfeabfc60>
    4248:	7b050000 	blvc	144250 <__bss_end__+0x139860>
    424c:	00025b02 	andeq	r5, r2, r2, lsl #22
    4250:	19014c00 	stmdbne	r1, {sl, fp, lr}
    4254:	00000e58 	andeq	r0, r0, r8, asr lr
    4258:	4f027f05 	svcmi	0x00027f05
    425c:	dc000008 	stcle	0, cr0, [r0], {8}
    4260:	0a831902 	beq	fe0ca670 <__bss_end__+0xfe0bfc80>
    4264:	84050000 	strhi	r0, [r5], #-0
    4268:	00060002 	andeq	r0, r6, r2
    426c:	1902e000 	stmdbne	r2, {sp, lr, pc}
    4270:	00000a68 	andeq	r0, r0, r8, ror #20
    4274:	5b028505 	blpl	a5690 <__bss_end__+0x9aca0>
    4278:	ec000008 	stc	0, cr0, [r0], {8}
    427c:	040e0002 	streq	r0, [lr], #-2
    4280:	0000040b 	andeq	r0, r0, fp, lsl #8
    4284:	00002515 	andeq	r2, r0, r5, lsl r5
    4288:	00058a00 	andeq	r8, r5, r0, lsl #20
    428c:	04291600 	strteq	r1, [r9], #-1536	; 0x600
    4290:	0a160000 	beq	584298 <__bss_end__+0x5798a8>
    4294:	16000001 	strne	r0, [r0], -r1
    4298:	0000058a 	andeq	r0, r0, sl, lsl #11
    429c:	00002516 	andeq	r2, r0, r6, lsl r5
    42a0:	040e0000 	streq	r0, [lr], #-0
    42a4:	00000119 	andeq	r0, r0, r9, lsl r1
    42a8:	056c040e 	strbeq	r0, [ip, #-1038]!	; 0x40e
    42ac:	86150000 	ldrhi	r0, [r5], -r0
    42b0:	b4000000 	strlt	r0, [r0], #-0
    42b4:	16000005 	strne	r0, [r0], -r5
    42b8:	00000429 	andeq	r0, r0, r9, lsr #8
    42bc:	00010a16 	andeq	r0, r1, r6, lsl sl
    42c0:	00861600 	addeq	r1, r6, r0, lsl #12
    42c4:	25160000 	ldrcs	r0, [r6, #-0]
    42c8:	00000000 	andeq	r0, r0, r0
    42cc:	0596040e 	ldreq	r0, [r6, #1038]	; 0x40e
    42d0:	25150000 	ldrcs	r0, [r5, #-0]
    42d4:	ce000000 	cdpgt	0, 0, cr0, cr0, cr0, {0}
    42d8:	16000005 	strne	r0, [r0], -r5
    42dc:	00000429 	andeq	r0, r0, r9, lsr #8
    42e0:	00010a16 	andeq	r0, r1, r6, lsl sl
    42e4:	040e0000 	streq	r0, [lr], #-0
    42e8:	000005ba 			; <UNDEFINED> instruction: 0x000005ba
    42ec:	00005409 	andeq	r5, r0, r9, lsl #8
    42f0:	0005e400 	andeq	lr, r5, r0, lsl #8
    42f4:	00cc0a00 	sbceq	r0, ip, r0, lsl #20
    42f8:	00020000 	andeq	r0, r2, r0
    42fc:	00005409 	andeq	r5, r0, r9, lsl #8
    4300:	0005f400 	andeq	pc, r5, r0, lsl #8
    4304:	00cc0a00 	sbceq	r0, ip, r0, lsl #20
    4308:	00000000 	andeq	r0, r0, r0
    430c:	000c9306 	andeq	r9, ip, r6, lsl #6
    4310:	011d0500 	tsteq	sp, r0, lsl #10
    4314:	000002e1 	andeq	r0, r0, r1, ror #5
    4318:	000e1a1a 	andeq	r1, lr, sl, lsl sl
    431c:	21050c00 	tstcs	r5, r0, lsl #24
    4320:	00063501 	andeq	r3, r6, r1, lsl #10
    4324:	0cbb1800 	ldceq	8, cr1, [fp]
    4328:	23050000 	movwcs	r0, #20480	; 0x5000
    432c:	00063501 	andeq	r3, r6, r1, lsl #10
    4330:	a4180000 	ldrge	r0, [r8], #-0
    4334:	0500000b 	streq	r0, [r0, #-11]
    4338:	00250124 	eoreq	r0, r5, r4, lsr #2
    433c:	18040000 	stmdane	r4, {}	; <UNPREDICTABLE>
    4340:	00000c8d 	andeq	r0, r0, sp, lsl #25
    4344:	3b012505 	blcc	4d760 <__bss_end__+0x42d70>
    4348:	08000006 	stmdaeq	r0, {r1, r2}
    434c:	00040e00 	andeq	r0, r4, r0, lsl #28
    4350:	0e000006 	cdpeq	0, 0, cr0, cr0, cr6, {0}
    4354:	0005f404 	andeq	pc, r5, r4, lsl #8
    4358:	09bd1a00 	ldmibeq	sp!, {r9, fp, ip}
    435c:	050e0000 	streq	r0, [lr, #-0]
    4360:	0676013d 			; <UNDEFINED> instruction: 0x0676013d
    4364:	01180000 	tsteq	r8, r0
    4368:	0500000d 	streq	r0, [r0, #-13]
    436c:	0676013e 			; <UNDEFINED> instruction: 0x0676013e
    4370:	18000000 	stmdane	r0, {}	; <UNPREDICTABLE>
    4374:	00000d3b 	andeq	r0, r0, fp, lsr sp
    4378:	76013f05 	strvc	r3, [r1], -r5, lsl #30
    437c:	06000006 	streq	r0, [r0], -r6
    4380:	000dbf18 	andeq	fp, sp, r8, lsl pc
    4384:	01400500 	cmpeq	r0, r0, lsl #10
    4388:	0000005b 	andeq	r0, r0, fp, asr r0
    438c:	5b09000c 	blpl	2443c4 <__bss_end__+0x2399d4>
    4390:	86000000 	strhi	r0, [r0], -r0
    4394:	0a000006 	beq	43b4 <__code_start__-0x3c4c>
    4398:	000000cc 	andeq	r0, r0, ip, asr #1
    439c:	d01b0002 	andsle	r0, fp, r2
    43a0:	87025705 	strhi	r5, [r2, -r5, lsl #14]
    43a4:	18000007 	stmdane	r0, {r0, r1, r2}
    43a8:	00000dfe 	strdeq	r0, [r0], -lr
    43ac:	2c025905 	stccs	9, cr5, [r2], {5}
    43b0:	00000000 	andeq	r0, r0, r0
    43b4:	000da918 	andeq	sl, sp, r8, lsl r9
    43b8:	025a0500 	subseq	r0, sl, #0, 10
    43bc:	0000010c 	andeq	r0, r0, ip, lsl #2
    43c0:	0bc01804 	bleq	ff00a3d8 <__bss_end__+0xfefff9e8>
    43c4:	5b050000 	blpl	1443cc <__bss_end__+0x1399dc>
    43c8:	00078702 	andeq	r8, r7, r2, lsl #14
    43cc:	cd180800 	ldcgt	8, cr0, [r8, #-0]
    43d0:	0500000e 	streq	r0, [r0, #-14]
    43d4:	0192025c 	orrseq	r0, r2, ip, asr r2
    43d8:	18240000 	stmdane	r4!, {}	; <UNPREDICTABLE>
    43dc:	00000b5f 	andeq	r0, r0, pc, asr fp
    43e0:	25025d05 	strcs	r5, [r2, #-3333]	; 0xd05
    43e4:	48000000 	stmdami	r0, {}	; <UNPREDICTABLE>
    43e8:	000cb618 	andeq	fp, ip, r8, lsl r6
    43ec:	025e0500 	subseq	r0, lr, #0, 10
    43f0:	00000069 	andeq	r0, r0, r9, rrx
    43f4:	0ee31850 	mcreq	8, 7, r1, cr3, cr0, {2}
    43f8:	5f050000 	svcpl	0x00050000
    43fc:	00064102 	andeq	r4, r6, r2, lsl #2
    4400:	c1185800 	tstgt	r8, r0, lsl #16
    4404:	0500000c 	streq	r0, [r0, #-12]
    4408:	00f40260 	rscseq	r0, r4, r0, ror #4
    440c:	18680000 	stmdane	r8!, {}^	; <UNPREDICTABLE>
    4410:	00000ee8 	andeq	r0, r0, r8, ror #29
    4414:	f4026105 	vst4.8	{d6,d8,d10,d12}, [r2], r5
    4418:	70000000 	andvc	r0, r0, r0
    441c:	000a2218 	andeq	r2, sl, r8, lsl r2
    4420:	02620500 	rsbeq	r0, r2, #0, 10
    4424:	000000f4 	strdeq	r0, [r0], -r4
    4428:	0e3a1878 	mrceq	8, 1, r1, cr10, cr8, {3}
    442c:	63050000 	movwvs	r0, #20480	; 0x5000
    4430:	00079702 	andeq	r9, r7, r2, lsl #14
    4434:	b4188000 	ldrlt	r8, [r8], #-0
    4438:	0500000b 	streq	r0, [r0, #-11]
    443c:	07a70264 	streq	r0, [r7, r4, ror #4]!
    4440:	18880000 	stmne	r8, {}	; <UNPREDICTABLE>
    4444:	00000dcc 	andeq	r0, r0, ip, asr #27
    4448:	25026505 	strcs	r6, [r2, #-1285]	; 0x505
    444c:	a0000000 	andge	r0, r0, r0
    4450:	000b0b18 	andeq	r0, fp, r8, lsl fp
    4454:	02660500 	rsbeq	r0, r6, #0, 10
    4458:	000000f4 	strdeq	r0, [r0], -r4
    445c:	0a1318a4 	beq	4ca6f4 <__bss_end__+0x4bfd04>
    4460:	67050000 	strvs	r0, [r5, -r0]
    4464:	0000f402 	andeq	pc, r0, r2, lsl #8
    4468:	fa18ac00 	blx	62f470 <__bss_end__+0x624a80>
    446c:	0500000a 	streq	r0, [r0, #-10]
    4470:	00f40268 	rscseq	r0, r4, r8, ror #4
    4474:	18b40000 	ldmne	r4!, {}	; <UNPREDICTABLE>
    4478:	000009da 	ldrdeq	r0, [r0], -sl
    447c:	f4026905 	vst2.8	{d6,d8}, [r2], r5
    4480:	bc000000 	stclt	0, cr0, [r0], {-0}
    4484:	0009e918 	andeq	lr, r9, r8, lsl r9
    4488:	026a0500 	rsbeq	r0, sl, #0, 10
    448c:	000000f4 	strdeq	r0, [r0], -r4
    4490:	0c7318c4 	ldcleq	8, cr1, [r3], #-784	; 0xfffffcf0
    4494:	6b050000 	blvs	14449c <__bss_end__+0x139aac>
    4498:	00002502 	andeq	r2, r0, r2, lsl #10
    449c:	0900cc00 	stmdbeq	r0, {sl, fp, lr, pc}
    44a0:	00000112 	andeq	r0, r0, r2, lsl r1
    44a4:	00000797 	muleq	r0, r7, r7
    44a8:	0000cc0a 	andeq	ip, r0, sl, lsl #24
    44ac:	09001900 	stmdbeq	r0, {r8, fp, ip}
    44b0:	00000112 	andeq	r0, r0, r2, lsl r1
    44b4:	000007a7 	andeq	r0, r0, r7, lsr #15
    44b8:	0000cc0a 	andeq	ip, r0, sl, lsl #24
    44bc:	09000700 	stmdbeq	r0, {r8, r9, sl}
    44c0:	00000112 	andeq	r0, r0, r2, lsl r1
    44c4:	000007b7 			; <UNDEFINED> instruction: 0x000007b7
    44c8:	0000cc0a 	andeq	ip, r0, sl, lsl #24
    44cc:	1b001700 	blne	a0d4 <__FUNCTION__.4251+0xbc>
    44d0:	027005f0 	rsbseq	r0, r0, #240, 10	; 0x3c000000
    44d4:	000007db 	ldrdeq	r0, [r0], -fp
    44d8:	000c2318 	andeq	r2, ip, r8, lsl r3
    44dc:	02730500 	rsbseq	r0, r3, #0, 10
    44e0:	000007db 	ldrdeq	r0, [r0], -fp
    44e4:	0e311800 	cdpeq	8, 3, cr1, cr1, cr0, {0}
    44e8:	74050000 	strvc	r0, [r5], #-0
    44ec:	0007eb02 	andeq	lr, r7, r2, lsl #22
    44f0:	09007800 	stmdbeq	r0, {fp, ip, sp, lr}
    44f4:	000002db 	ldrdeq	r0, [r0], -fp
    44f8:	000007eb 	andeq	r0, r0, fp, ror #15
    44fc:	0000cc0a 	andeq	ip, r0, sl, lsl #24
    4500:	09001d00 	stmdbeq	r0, {r8, sl, fp, ip}
    4504:	0000002c 	andeq	r0, r0, ip, lsr #32
    4508:	000007fb 	strdeq	r0, [r0], -fp
    450c:	0000cc0a 	andeq	ip, r0, sl, lsl #24
    4510:	1c001d00 	stcne	13, cr1, [r0], {-0}
    4514:	025505f0 	subseq	r0, r5, #240, 10	; 0x3c000000
    4518:	0000081d 	andeq	r0, r0, sp, lsl r8
    451c:	000cfa1d 	andeq	pc, ip, sp, lsl sl	; <UNPREDICTABLE>
    4520:	026c0500 	rsbeq	r0, ip, #0, 10
    4524:	00000686 	andeq	r0, r0, r6, lsl #13
    4528:	000e8d1d 	andeq	r8, lr, sp, lsl sp
    452c:	02750500 	rsbseq	r0, r5, #0, 10
    4530:	000007b7 			; <UNDEFINED> instruction: 0x000007b7
    4534:	01120900 	tsteq	r2, r0, lsl #18
    4538:	082d0000 	stmdaeq	sp!, {}	; <UNPREDICTABLE>
    453c:	cc0a0000 	stcgt	0, cr0, [sl], {-0}
    4540:	18000000 	stmdane	r0, {}	; <UNPREDICTABLE>
    4544:	08381e00 	ldmdaeq	r8!, {r9, sl, fp, ip}
    4548:	29160000 	ldmdbcs	r6, {}	; <UNPREDICTABLE>
    454c:	00000004 	andeq	r0, r0, r4
    4550:	082d040e 	stmdaeq	sp!, {r1, r2, r3, sl}
    4554:	040e0000 	streq	r0, [lr], #-0
    4558:	0000017c 	andeq	r0, r0, ip, ror r1
    455c:	00084f1e 	andeq	r4, r8, lr, lsl pc
    4560:	00251600 	eoreq	r1, r5, r0, lsl #12
    4564:	0e000000 	cdpeq	0, 0, cr0, cr0, cr0, {0}
    4568:	00085504 	andeq	r5, r8, r4, lsl #10
    456c:	44040e00 	strmi	r0, [r4], #-3584	; 0xe00
    4570:	09000008 	stmdbeq	r0, {r3}
    4574:	000005f4 	strdeq	r0, [r0], -r4
    4578:	0000086b 	andeq	r0, r0, fp, ror #16
    457c:	0000cc0a 	andeq	ip, r0, sl, lsl #24
    4580:	1f000200 	svcne	0x00000200
    4584:	00000de0 	andeq	r0, r0, r0, ror #27
    4588:	2902fd05 	stmdbcs	r2, {r0, r2, r8, sl, fp, ip, sp, lr, pc}
    458c:	1f000004 	svcne	0x00000004
    4590:	00000dd9 	ldrdeq	r0, [r0], -r9
    4594:	2f02fe05 	svccs	0x0002fe05
    4598:	15000004 	strne	r0, [r0, #-4]
    459c:	00000025 	andeq	r0, r0, r5, lsr #32
    45a0:	00000892 	muleq	r0, r2, r8
    45a4:	00002516 	andeq	r2, r0, r6, lsl r5
    45a8:	da200000 	ble	8045b0 <__bss_end__+0x7f9bc0>
    45ac:	06000005 	streq	r0, [r0], -r5
    45b0:	00089d1d 	andeq	r9, r8, sp, lsl sp
    45b4:	83040e00 	movwhi	r0, #19968	; 0x4e00
    45b8:	15000008 	strne	r0, [r0, #-8]
    45bc:	00000025 	andeq	r0, r0, r5, lsr #32
    45c0:	000008b2 			; <UNDEFINED> instruction: 0x000008b2
    45c4:	00058a16 	andeq	r8, r5, r6, lsl sl
    45c8:	17200000 	strne	r0, [r0, -r0]!
    45cc:	06000006 	streq	r0, [r0], -r6
    45d0:	0008bd22 	andeq	fp, r8, r2, lsr #26
    45d4:	a3040e00 	movwge	r0, #19968	; 0x4e00
    45d8:	21000008 	tstcs	r0, r8
    45dc:	00005401 	andeq	r5, r0, r1, lsl #8
    45e0:	000c0800 	andeq	r0, ip, r0, lsl #16
    45e4:	22000009 	andcs	r0, r0, #9
    45e8:	00000a03 	andeq	r0, r0, r3, lsl #20
    45ec:	0e202200 	cdpeq	2, 2, cr2, cr0, cr0, {0}
    45f0:	22010000 	andcs	r0, r1, #0
    45f4:	00000e78 	andeq	r0, r0, r8, ror lr
    45f8:	0a442204 	beq	110ce10 <__bss_end__+0x1102420>
    45fc:	22050000 	andcs	r0, r5, #0
    4600:	00000bdb 	ldrdeq	r0, [r0], -fp
    4604:	0e952206 	cdpeq	2, 9, cr2, cr5, cr6, {0}
    4608:	22070000 	andcs	r0, r7, #0
    460c:	00000ea4 	andeq	r0, r0, r4, lsr #29
    4610:	0eb32203 	cdpeq	2, 11, cr2, cr3, cr3, {0}
    4614:	00020000 	andeq	r0, r2, r0
    4618:	000ab110 	andeq	fp, sl, r0, lsl r1
    461c:	06072c00 	streq	r2, [r7], -r0, lsl #24
    4620:	00000990 	muleq	r0, r0, r9
    4624:	006f6911 	rsbeq	r6, pc, r1, lsl r9	; <UNPREDICTABLE>
    4628:	00330907 	eorseq	r0, r3, r7, lsl #18
    462c:	11000000 	mrsne	r0, (UNDEF: 0)
    4630:	00726569 	rsbseq	r6, r2, r9, ror #10
    4634:	00330a07 	eorseq	r0, r3, r7, lsl #20
    4638:	11040000 	mrsne	r0, (UNDEF: 4)
    463c:	00726969 	rsbseq	r6, r2, r9, ror #18
    4640:	00331107 	eorseq	r1, r3, r7, lsl #2
    4644:	11080000 	mrsne	r0, (UNDEF: 8)
    4648:	0072636c 	rsbseq	r6, r2, ip, ror #6
    464c:	00331307 	eorseq	r1, r3, r7, lsl #6
    4650:	110c0000 	mrsne	r0, (UNDEF: 12)
    4654:	0072636d 	rsbseq	r6, r2, sp, ror #6
    4658:	00331407 	eorseq	r1, r3, r7, lsl #8
    465c:	11100000 	tstne	r0, r0
    4660:	0072736c 	rsbseq	r7, r2, ip, ror #6
    4664:	00331507 	eorseq	r1, r3, r7, lsl #10
    4668:	11140000 	tstne	r4, r0
    466c:	0072736d 	rsbseq	r7, r2, sp, ror #6
    4670:	00331607 	eorseq	r1, r3, r7, lsl #12
    4674:	0c180000 	ldceq	0, cr0, [r8], {-0}
    4678:	00000d33 	andeq	r0, r0, r3, lsr sp
    467c:	00331707 	eorseq	r1, r3, r7, lsl #14
    4680:	0c1c0000 	ldceq	0, cr0, [ip], {-0}
    4684:	00000a59 	andeq	r0, r0, r9, asr sl
    4688:	00331b07 	eorseq	r1, r3, r7, lsl #22
    468c:	0c200000 	stceq	0, cr0, [r0], #-0
    4690:	00000a39 	andeq	r0, r0, r9, lsr sl
    4694:	00331d07 	eorseq	r1, r3, r7, lsl #26
    4698:	0c240000 	stceq	0, cr0, [r4], #-0
    469c:	00000d1d 	andeq	r0, r0, sp, lsl sp
    46a0:	00331e07 	eorseq	r1, r3, r7, lsl #28
    46a4:	00280000 	eoreq	r0, r8, r0
    46a8:	000b2123 	andeq	r2, fp, r3, lsr #2
    46ac:	a5070100 	strge	r0, [r7, #-256]	; 0x100
    46b0:	04000009 	streq	r0, [r0], #-9
    46b4:	0e202150 	mcreq	1, 1, r2, cr0, cr0, {2}
    46b8:	00003304 	andeq	r3, r0, r4, lsl #6
    46bc:	099f0f00 	ldmibeq	pc, {r8, r9, sl, fp}	; <UNPREDICTABLE>
    46c0:	4d230000 	stcmi	0, cr0, [r3, #-0]
    46c4:	0100000c 	tsteq	r0, ip
    46c8:	0009bf28 	andeq	fp, r9, r8, lsr #30
    46cc:	21504000 	cmpcs	r0, r0
    46d0:	00040e20 	andeq	r0, r4, r0, lsr #28
    46d4:	0f000009 	svceq	0x00000009
    46d8:	000009b9 			; <UNDEFINED> instruction: 0x000009b9
    46dc:	000e6a24 	andeq	r6, lr, r4, lsr #20
    46e0:	25a70100 	strcs	r0, [r7, #256]!	; 0x100
    46e4:	f8000000 			; <UNDEFINED> instruction: 0xf8000000
    46e8:	1000009b 	mulne	r0, fp, r0
    46ec:	01000000 	mrseq	r0, (UNDEF: 0)
    46f0:	0009f09c 	muleq	r9, ip, r0
    46f4:	9c002500 	cfstr32ls	mvfx2, [r0], {-0}
    46f8:	0c9c0000 	ldceq	0, cr0, [ip], {0}
    46fc:	04250000 	strteq	r0, [r5], #-0
    4700:	d200009c 	andle	r0, r0, #156	; 0x9c
    4704:	0000000a 	andeq	r0, r0, sl
    4708:	0005bf26 	andeq	fp, r5, r6, lsr #30
    470c:	c89f0100 	ldmgt	pc, {r8}	; <UNPREDICTABLE>
    4710:	3000009b 	mulcc	r0, fp, r0
    4714:	01000000 	mrseq	r0, (UNDEF: 0)
    4718:	000a4e9c 	muleq	sl, ip, lr
    471c:	00632700 	rsbeq	r2, r3, r0, lsl #14
    4720:	002c9f01 	eoreq	r9, ip, r1, lsl #30
    4724:	11840000 	orrne	r0, r4, r0
    4728:	d4250000 	strtle	r0, [r5], #-0
    472c:	9c00009b 	stcls	0, cr0, [r0], {155}	; 0x9b
    4730:	2500000c 	strcs	r0, [r0, #-12]
    4734:	00009bd8 	ldrdeq	r9, [r0], -r8
    4738:	00000aa5 	andeq	r0, r0, r5, lsr #21
    473c:	009bec28 	addseq	lr, fp, r8, lsr #24
    4740:	000ca700 	andeq	sl, ip, r0, lsl #14
    4744:	000a4400 	andeq	r4, sl, r0, lsl #8
    4748:	50012900 	andpl	r2, r1, r0, lsl #18
    474c:	50400c05 	subpl	r0, r0, r5, lsl #24
    4750:	01292021 	teqeq	r9, r1, lsr #32
    4754:	00740551 	rsbseq	r0, r4, r1, asr r5
    4758:	001aff08 	andseq	pc, sl, r8, lsl #30
    475c:	009bf025 	addseq	pc, fp, r5, lsr #32
    4760:	000c9c00 	andeq	r9, ip, r0, lsl #24
    4764:	84240000 	strthi	r0, [r4], #-0
    4768:	0100000b 	tsteq	r0, fp
    476c:	00002597 	muleq	r0, r7, r5
    4770:	009b9800 	addseq	r9, fp, r0, lsl #16
    4774:	00003000 	andeq	r3, r0, r0
    4778:	a59c0100 	ldrge	r0, [ip, #256]	; 0x100
    477c:	2a00000a 	bcs	47ac <__code_start__-0x3854>
    4780:	9b010063 	blls	44914 <__bss_end__+0x39f24>
    4784:	00000025 	andeq	r0, r0, r5, lsr #32
    4788:	a0255401 	eorge	r5, r5, r1, lsl #8
    478c:	9c00009b 	stcls	0, cr0, [r0], {155}	; 0x9b
    4790:	2500000c 	strcs	r0, [r0, #-12]
    4794:	00009ba4 	andeq	r9, r0, r4, lsr #23
    4798:	00000ad2 	ldrdeq	r0, [r0], -r2
    479c:	009bb428 	addseq	fp, fp, r8, lsr #8
    47a0:	000cb200 	andeq	fp, ip, r0, lsl #4
    47a4:	000a9b00 	andeq	r9, sl, r0, lsl #22
    47a8:	50012900 	andpl	r2, r1, r0, lsl #18
    47ac:	50400c05 	subpl	r0, r0, r5, lsl #24
    47b0:	25002021 	strcs	r2, [r0, #-33]	; 0x21
    47b4:	00009bbc 			; <UNDEFINED> instruction: 0x00009bbc
    47b8:	00000c9c 	muleq	r0, ip, ip
    47bc:	0b382400 	bleq	e0d7c4 <__bss_end__+0xe02dd4>
    47c0:	88010000 	stmdahi	r1, {}	; <UNPREDICTABLE>
    47c4:	00000025 	andeq	r0, r0, r5, lsr #32
    47c8:	00009b78 	andeq	r9, r0, r8, ror fp
    47cc:	00000020 	andeq	r0, r0, r0, lsr #32
    47d0:	0ad29c01 	beq	ff4ab7dc <__bss_end__+0xff4a0dec>
    47d4:	842b0000 	strthi	r0, [fp], #-0
    47d8:	b200009b 	andlt	r0, r0, #155	; 0x9b
    47dc:	2900000c 	stmdbcs	r0, {r2, r3}
    47e0:	0c055001 	stceq	0, cr5, [r5], {1}
    47e4:	20215064 	eorcs	r5, r1, r4, rrx
    47e8:	4a240000 	bmi	9047f0 <__bss_end__+0x8f9e00>
    47ec:	0100000e 	tsteq	r0, lr
    47f0:	0000257f 	andeq	r2, r0, pc, ror r5
    47f4:	009b6000 	addseq	r6, fp, r0
    47f8:	00001800 	andeq	r1, r0, r0, lsl #16
    47fc:	ff9c0100 			; <UNDEFINED> instruction: 0xff9c0100
    4800:	2b00000a 	blcs	4830 <__code_start__-0x37d0>
    4804:	00009b6c 	andeq	r9, r0, ip, ror #22
    4808:	00000cb2 			; <UNDEFINED> instruction: 0x00000cb2
    480c:	05500129 	ldrbeq	r0, [r0, #-297]	; 0x129
    4810:	2150640c 	cmpcs	r0, ip, lsl #8
    4814:	26000020 	strcs	r0, [r0], -r0, lsr #32
    4818:	000009d0 	ldrdeq	r0, [r0], -r0	; <UNPREDICTABLE>
    481c:	9ab03a01 	bls	fec13028 <__bss_end__+0xfec08638>
    4820:	00b00000 	adcseq	r0, r0, r0
    4824:	9c010000 	stcls	0, cr0, [r1], {-0}
    4828:	00000c3d 	andeq	r0, r0, sp, lsr ip
    482c:	009ac028 	addseq	ip, sl, r8, lsr #32
    4830:	000cbd00 	andeq	fp, ip, r0, lsl #26
    4834:	000b2c00 	andeq	r2, fp, r0, lsl #24
    4838:	50012900 	andpl	r2, r1, r0, lsl #18
    483c:	01293e01 	teqeq	r9, r1, lsl #28
    4840:	00320151 	eorseq	r0, r2, r1, asr r1
    4844:	009acc28 	addseq	ip, sl, r8, lsr #24
    4848:	000cbd00 	andeq	fp, ip, r0, lsl #26
    484c:	000b4400 	andeq	r4, fp, r0, lsl #8
    4850:	50012900 	andpl	r2, r1, r0, lsl #18
    4854:	01293f01 	teqeq	r9, r1, lsl #30
    4858:	00320151 	eorseq	r0, r2, r1, asr r1
    485c:	009ad025 	addseq	sp, sl, r5, lsr #32
    4860:	000c9c00 	andeq	r9, ip, r0, lsl #24
    4864:	9adc2800 	bls	ff70e86c <__bss_end__+0xff703e7c>
    4868:	0c3d0000 	ldceq	0, cr0, [sp], #-0
    486c:	0b690000 	bleq	1a44874 <__bss_end__+0x1a39e84>
    4870:	01290000 	teqeq	r9, r0
    4874:	040c0550 	streq	r0, [ip], #-1360	; 0x550
    4878:	29202150 	stmdbcs	r0!, {r4, r6, r8, sp}
    487c:	31015101 	tstcc	r1, r1, lsl #2
    4880:	9ae02500 	bls	ff80dc88 <__bss_end__+0xff803298>
    4884:	0c9c0000 	ldceq	0, cr0, [ip], {0}
    4888:	f0280000 			; <UNDEFINED> instruction: 0xf0280000
    488c:	a700009a 			; <UNDEFINED> instruction: 0xa700009a
    4890:	8b00000c 	blhi	48c8 <__code_start__-0x3738>
    4894:	2900000b 	stmdbcs	r0, {r0, r1, r3}
    4898:	74025001 	strvc	r5, [r2], #-1
    489c:	51012900 	tstpl	r1, r0, lsl #18
    48a0:	28003001 	stmdacs	r0, {r0, ip, sp}
    48a4:	00009afc 	strdeq	r9, [r0], -ip
    48a8:	00000ca7 	andeq	r0, r0, r7, lsr #25
    48ac:	00000ba7 	andeq	r0, r0, r7, lsr #23
    48b0:	05500129 	ldrbeq	r0, [r0, #-297]	; 0x129
    48b4:	2150440c 	cmpcs	r0, ip, lsl #8
    48b8:	51012920 	tstpl	r1, r0, lsr #18
    48bc:	28003001 	stmdacs	r0, {r0, ip, sp}
    48c0:	00009b08 	andeq	r9, r0, r8, lsl #22
    48c4:	00000ca7 	andeq	r0, r0, r7, lsr #25
    48c8:	00000bc3 	andeq	r0, r0, r3, asr #23
    48cc:	05500129 	ldrbeq	r0, [r0, #-297]	; 0x129
    48d0:	21504c0c 	cmpcs	r0, ip, lsl #24
    48d4:	51012920 	tstpl	r1, r0, lsr #18
    48d8:	28003301 	stmdacs	r0, {r0, r8, r9, ip, sp}
    48dc:	00009b14 	andeq	r9, r0, r4, lsl fp
    48e0:	00000ca7 	andeq	r0, r0, r7, lsr #25
    48e4:	00000bdf 	ldrdeq	r0, [r0], -pc	; <UNPREDICTABLE>
    48e8:	05500129 	ldrbeq	r0, [r0, #-297]	; 0x129
    48ec:	2150500c 	cmpcs	r0, ip
    48f0:	51012920 	tstpl	r1, r0, lsr #18
    48f4:	28003001 	stmdacs	r0, {r0, ip, sp}
    48f8:	00009b20 	andeq	r9, r0, r0, lsr #22
    48fc:	00000ca7 	andeq	r0, r0, r7, lsr #25
    4900:	00000bfc 	strdeq	r0, [r0], -ip
    4904:	05500129 	ldrbeq	r0, [r0, #-297]	; 0x129
    4908:	2150480c 	cmpcs	r0, ip, lsl #16
    490c:	51012920 	tstpl	r1, r0, lsr #18
    4910:	00c70802 	sbceq	r0, r7, r2, lsl #16
    4914:	009b2c28 	addseq	r2, fp, r8, lsr #24
    4918:	000ca700 	andeq	sl, ip, r0, lsl #14
    491c:	000c1a00 	andeq	r1, ip, r0, lsl #20
    4920:	50012900 	andpl	r2, r1, r0, lsl #18
    4924:	50680c05 	rsbpl	r0, r8, r5, lsl #24
    4928:	01292021 	teqeq	r9, r1, lsr #32
    492c:	0e0a0351 	mcreq	3, 0, r0, cr10, cr1, {2}
    4930:	38280001 	stmdacc	r8!, {r0}
    4934:	a700009b 			; <UNDEFINED> instruction: 0xa700009b
    4938:	3300000c 	movwcc	r0, #12
    493c:	2900000c 	stmdbcs	r0, {r2, r3}
    4940:	74025001 	strvc	r5, [r2], #-1
    4944:	51012900 	tstpl	r1, r0, lsl #18
    4948:	25003301 	strcs	r3, [r0, #-769]	; 0x301
    494c:	00009b3c 	andeq	r9, r0, ip, lsr fp
    4950:	00000c9c 	muleq	r0, ip, ip
    4954:	0e622c00 	cdpeq	12, 6, cr2, cr2, cr0, {0}
    4958:	2d010000 	stccs	0, cr0, [r1, #-0]
    495c:	00009a90 	muleq	r0, r0, sl
    4960:	00000020 	andeq	r0, r0, r0, lsr #32
    4964:	0c959c01 	ldceq	12, cr9, [r5], {1}
    4968:	342d0000 	strtcc	r0, [sp], #-0
    496c:	01000004 	tsteq	r0, r4
    4970:	000c952d 	andeq	r9, ip, sp, lsr #10
    4974:	0011a200 	andseq	sl, r1, r0, lsl #4
    4978:	61762700 	cmnvs	r6, r0, lsl #14
    497c:	2d01006c 	stccs	0, cr0, [r1, #-432]	; 0xfffffe50
    4980:	0000002c 	andeq	r0, r0, ip, lsr #32
    4984:	000011c0 	andeq	r1, r0, r0, asr #3
    4988:	009aa028 	addseq	sl, sl, r8, lsr #32
    498c:	000cb200 	andeq	fp, ip, r0, lsl #4
    4990:	000c8400 	andeq	r8, ip, r0, lsl #8
    4994:	50012900 	andpl	r2, r1, r0, lsl #18
    4998:	00007402 	andeq	r7, r0, r2, lsl #8
    499c:	009aac2b 	addseq	sl, sl, fp, lsr #24
    49a0:	000ca700 	andeq	sl, ip, r0, lsl #14
    49a4:	50012900 	andpl	r2, r1, r0, lsl #18
    49a8:	00007402 	andeq	r7, r0, r2, lsl #8
    49ac:	9b040e00 	blls	1081b4 <__bss_end__+0xfd7c4>
    49b0:	2e00000c 	cdpcs	0, 0, cr0, cr0, cr12, {0}
    49b4:	0008862f 	andeq	r8, r8, pc, lsr #12
    49b8:	00088600 	andeq	r8, r8, r0, lsl #12
    49bc:	2f890600 	svccs	0x00890600
    49c0:	00000d41 	andeq	r0, r0, r1, asr #26
    49c4:	00000d41 	andeq	r0, r0, r1, asr #26
    49c8:	442f9c06 	strtmi	r9, [pc], #-3078	; 49d0 <__code_start__-0x3630>
    49cc:	4400000e 	strmi	r0, [r0], #-14
    49d0:	0600000e 	streq	r0, [r0], -lr
    49d4:	0c112fa8 	ldceq	15, cr2, [r1], {168}	; 0xa8
    49d8:	0c110000 	ldceq	0, cr0, [r1], {-0}
    49dc:	19080000 	stmdbne	r8, {}	; <UNPREDICTABLE>
    49e0:	000b7000 	andeq	r7, fp, r0
    49e4:	2c000400 	cfstrscs	mvf0, [r0], {-0}
    49e8:	04000016 	streq	r0, [r0], #-22
    49ec:	000d4701 	andeq	r4, sp, r1, lsl #14
    49f0:	0f170c00 	svceq	0x00170c00
    49f4:	0ac50000 	beq	ff1449fc <__bss_end__+0xff13a00c>
    49f8:	9c080000 	stcls	0, cr0, [r8], {-0}
    49fc:	01200000 	teqeq	r0, r0
    4a00:	12090000 	andne	r0, r9, #0
    4a04:	04020000 	streq	r0, [r2], #-0
    4a08:	746e6905 	strbtvc	r6, [lr], #-2309	; 0x905
    4a0c:	07040300 	streq	r0, [r4, -r0, lsl #6]
    4a10:	000001c2 	andeq	r0, r0, r2, asr #3
    4a14:	00002c04 	andeq	r2, r0, r4, lsl #24
    4a18:	06010300 	streq	r0, [r1], -r0, lsl #6
    4a1c:	000000e5 	andeq	r0, r0, r5, ror #1
    4a20:	37050203 	strcc	r0, [r5, -r3, lsl #4]
    4a24:	03000002 	movweq	r0, #2
    4a28:	02000504 	andeq	r0, r0, #4, 10	; 0x1000000
    4a2c:	08030000 	stmdaeq	r3, {}	; <UNPREDICTABLE>
    4a30:	0001fb05 	andeq	pc, r1, r5, lsl #22
    4a34:	08010300 	stmdaeq	r1, {r8, r9}
    4a38:	000000e3 	andeq	r0, r0, r3, ror #1
    4a3c:	4c070203 	sfmmi	f0, 4, [r7], {3}
    4a40:	03000000 	movweq	r0, #0
    4a44:	01bd0704 			; <UNDEFINED> instruction: 0x01bd0704
    4a48:	08030000 	stmdaeq	r3, {}	; <UNPREDICTABLE>
    4a4c:	0001b807 	andeq	fp, r1, r7, lsl #16
    4a50:	0c5c0500 	cfldr64eq	mvdx0, [ip], {-0}
    4a54:	07020000 	streq	r0, [r2, -r0]
    4a58:	00000025 	andeq	r0, r0, r5, lsr #32
    4a5c:	000c4605 	andeq	r4, ip, r5, lsl #12
    4a60:	462c0300 	strtmi	r0, [ip], -r0, lsl #6
    4a64:	05000000 	streq	r0, [r0, #-0]
    4a68:	00000d22 	andeq	r0, r0, r2, lsr #26
    4a6c:	00467203 	subeq	r7, r6, r3, lsl #4
    4a70:	ea060000 	b	184a78 <__bss_end__+0x17a088>
    4a74:	0400000b 	streq	r0, [r0], #-11
    4a78:	002c0165 	eoreq	r0, ip, r5, ror #2
    4a7c:	04070000 	streq	r0, [r7], #-0
    4a80:	00bca603 	adcseq	sl, ip, r3, lsl #12
    4a84:	d5080000 	strle	r0, [r8, #-0]
    4a88:	0300000b 	movweq	r0, #11
    4a8c:	000091a8 	andeq	r9, r0, r8, lsr #3
    4a90:	0b7d0800 	bleq	1f46a98 <__bss_end__+0x1f3c0a8>
    4a94:	a9030000 	stmdbge	r3, {}	; <UNPREDICTABLE>
    4a98:	000000bc 	strheq	r0, [r0], -ip
    4a9c:	00540900 	subseq	r0, r4, r0, lsl #18
    4aa0:	00cc0000 	sbceq	r0, ip, r0
    4aa4:	cc0a0000 	stcgt	0, cr0, [sl], {-0}
    4aa8:	03000000 	movweq	r0, #0
    4aac:	07040300 	streq	r0, [r4, -r0, lsl #6]
    4ab0:	000001de 	ldrdeq	r0, [r0], -lr
    4ab4:	a303080b 	movwge	r0, #14347	; 0x380b
    4ab8:	000000f4 	strdeq	r0, [r0], -r4
    4abc:	000d070c 	andeq	r0, sp, ip, lsl #14
    4ac0:	25a50300 	strcs	r0, [r5, #768]!	; 0x300
    4ac4:	00000000 	andeq	r0, r0, r0
    4ac8:	000d0f0c 	andeq	r0, sp, ip, lsl #30
    4acc:	9daa0300 	stcls	3, cr0, [sl]
    4ad0:	04000000 	streq	r0, [r0], #-0
    4ad4:	0c9a0500 	cfldr32eq	mvfx0, [sl], {0}
    4ad8:	ab030000 	blge	c4ae0 <__bss_end__+0xba0f0>
    4adc:	000000d3 	ldrdeq	r0, [r0], -r3
    4ae0:	000b4605 	andeq	r4, fp, r5, lsl #12
    4ae4:	70af0300 	adcvc	r0, pc, r0, lsl #6
    4ae8:	0d000000 	stceq	0, cr0, [r0, #-0]
    4aec:	12040e04 	andne	r0, r4, #4, 28	; 0x40
    4af0:	03000001 	movweq	r0, #1
    4af4:	00ec0801 	rsceq	r0, ip, r1, lsl #16
    4af8:	12040000 	andne	r0, r4, #0
    4afc:	05000001 	streq	r0, [r0, #-1]
    4b00:	00000dc4 	andeq	r0, r0, r4, asr #27
    4b04:	00621605 	rsbeq	r1, r2, r5, lsl #12
    4b08:	570f0000 	strpl	r0, [pc, -r0]
    4b0c:	1800000b 	stmdane	r0, {r0, r1, r3}
    4b10:	017c2d05 	cmneq	ip, r5, lsl #26
    4b14:	bb0c0000 	bllt	304b1c <__bss_end__+0x2fa12c>
    4b18:	0500000c 	streq	r0, [r0, #-12]
    4b1c:	00017c2f 	andeq	r7, r1, pc, lsr #24
    4b20:	5f100000 	svcpl	0x00100000
    4b24:	3005006b 	andcc	r0, r5, fp, rrx
    4b28:	00000025 	andeq	r0, r0, r5, lsr #32
    4b2c:	0cf20c04 	ldcleq	12, cr0, [r2], #16
    4b30:	30050000 	andcc	r0, r5, r0
    4b34:	00000025 	andeq	r0, r0, r5, lsr #32
    4b38:	0b320c08 	bleq	c87b60 <__bss_end__+0xc7d170>
    4b3c:	30050000 	andcc	r0, r5, r0
    4b40:	00000025 	andeq	r0, r0, r5, lsr #32
    4b44:	0e0b0c0c 	cdpeq	12, 0, cr0, cr11, cr12, {0}
    4b48:	30050000 	andcc	r0, r5, r0
    4b4c:	00000025 	andeq	r0, r0, r5, lsr #32
    4b50:	785f1010 	ldmdavc	pc, {r4, ip}^	; <UNPREDICTABLE>
    4b54:	82310500 	eorshi	r0, r1, #0, 10
    4b58:	14000001 	strne	r0, [r0], #-1
    4b5c:	29040e00 	stmdbcs	r4, {r9, sl, fp}
    4b60:	09000001 	stmdbeq	r0, {r0}
    4b64:	0000011e 	andeq	r0, r0, lr, lsl r1
    4b68:	00000192 	muleq	r0, r2, r1
    4b6c:	0000cc0a 	andeq	ip, r0, sl, lsl #24
    4b70:	0f000000 	svceq	0x00000000
    4b74:	00000b78 	andeq	r0, r0, r8, ror fp
    4b78:	0b350524 	bleq	d46010 <__bss_end__+0xd3b620>
    4b7c:	0c000002 	stceq	0, cr0, [r0], {2}
    4b80:	00000a30 	andeq	r0, r0, r0, lsr sl
    4b84:	00253705 	eoreq	r3, r5, r5, lsl #14
    4b88:	0c000000 	stceq	0, cr0, [r0], {-0}
    4b8c:	00000d2a 	andeq	r0, r0, sl, lsr #26
    4b90:	00253805 	eoreq	r3, r5, r5, lsl #16
    4b94:	0c040000 	stceq	0, cr0, [r4], {-0}
    4b98:	00000a5e 	andeq	r0, r0, lr, asr sl
    4b9c:	00253905 	eoreq	r3, r5, r5, lsl #18
    4ba0:	0c080000 	stceq	0, cr0, [r8], {-0}
    4ba4:	00000efb 	strdeq	r0, [r0], -fp
    4ba8:	00253a05 	eoreq	r3, r5, r5, lsl #20
    4bac:	0c0c0000 	stceq	0, cr0, [ip], {-0}
    4bb0:	00000c2a 	andeq	r0, r0, sl, lsr #24
    4bb4:	00253b05 	eoreq	r3, r5, r5, lsl #22
    4bb8:	0c100000 	ldceq	0, cr0, [r0], {-0}
    4bbc:	00000bff 	strdeq	r0, [r0], -pc	; <UNPREDICTABLE>
    4bc0:	00253c05 	eoreq	r3, r5, r5, lsl #24
    4bc4:	0c140000 	ldceq	0, cr0, [r4], {-0}
    4bc8:	00000e10 	andeq	r0, r0, r0, lsl lr
    4bcc:	00253d05 	eoreq	r3, r5, r5, lsl #26
    4bd0:	0c180000 	ldceq	0, cr0, [r8], {-0}
    4bd4:	00000c7c 	andeq	r0, r0, ip, ror ip
    4bd8:	00253e05 	eoreq	r3, r5, r5, lsl #28
    4bdc:	0c1c0000 	ldceq	0, cr0, [ip], {-0}
    4be0:	00000ec2 	andeq	r0, r0, r2, asr #29
    4be4:	00253f05 	eoreq	r3, r5, r5, lsl #30
    4be8:	00200000 	eoreq	r0, r0, r0
    4bec:	000a6d11 	andeq	r6, sl, r1, lsl sp
    4bf0:	05010800 	streq	r0, [r1, #-2048]	; 0x800
    4bf4:	00024b48 	andeq	r4, r2, r8, asr #22
    4bf8:	0b190c00 	bleq	647c00 <__bss_end__+0x63d210>
    4bfc:	49050000 	stmdbmi	r5, {}	; <UNPREDICTABLE>
    4c00:	0000024b 	andeq	r0, r0, fp, asr #4
    4c04:	09ab0c00 	stmibeq	fp!, {sl, fp}
    4c08:	4a050000 	bmi	144c10 <__bss_end__+0x13a220>
    4c0c:	0000024b 	andeq	r0, r0, fp, asr #4
    4c10:	0db61280 	lfmeq	f1, 4, [r6, #512]!	; 0x200
    4c14:	4c050000 	stcmi	0, cr0, [r5], {-0}
    4c18:	0000011e 	andeq	r0, r0, lr, lsl r1
    4c1c:	92120100 	andsls	r0, r2, #0, 2
    4c20:	0500000a 	streq	r0, [r0, #-10]
    4c24:	00011e4f 	andeq	r1, r1, pc, asr #28
    4c28:	00010400 	andeq	r0, r1, r0, lsl #8
    4c2c:	00010a09 	andeq	r0, r1, r9, lsl #20
    4c30:	00025b00 	andeq	r5, r2, r0, lsl #22
    4c34:	00cc0a00 	sbceq	r0, ip, r0, lsl #20
    4c38:	001f0000 	andseq	r0, pc, r0
    4c3c:	000c3311 	andeq	r3, ip, r1, lsl r3
    4c40:	05019000 	streq	r9, [r1, #-0]
    4c44:	0002995b 	andeq	r9, r2, fp, asr r9
    4c48:	0cbb0c00 	ldceq	12, cr0, [fp]
    4c4c:	5c050000 	stcpl	0, cr0, [r5], {-0}
    4c50:	00000299 	muleq	r0, r9, r2
    4c54:	0cd30c00 	ldcleq	12, cr0, [r3], {0}
    4c58:	5d050000 	stcpl	0, cr0, [r5, #-0]
    4c5c:	00000025 	andeq	r0, r0, r5, lsr #32
    4c60:	0b2d0c04 	bleq	b47c78 <__bss_end__+0xb3d288>
    4c64:	5f050000 	svcpl	0x00050000
    4c68:	0000029f 	muleq	r0, pc, r2	; <UNPREDICTABLE>
    4c6c:	0a6d0c08 	beq	1b47c94 <__bss_end__+0x1b3d2a4>
    4c70:	60050000 	andvs	r0, r5, r0
    4c74:	0000020b 	andeq	r0, r0, fp, lsl #4
    4c78:	040e0088 	streq	r0, [lr], #-136	; 0x88
    4c7c:	0000025b 	andeq	r0, r0, fp, asr r2
    4c80:	0002af09 	andeq	sl, r2, r9, lsl #30
    4c84:	0002af00 	andeq	sl, r2, r0, lsl #30
    4c88:	00cc0a00 	sbceq	r0, ip, r0, lsl #20
    4c8c:	001f0000 	andseq	r0, pc, r0
    4c90:	02b5040e 	adcseq	r0, r5, #234881024	; 0xe000000
    4c94:	0f130000 	svceq	0x00130000
    4c98:	00000c86 	andeq	r0, r0, r6, lsl #25
    4c9c:	db730508 	blle	1cc60c4 <__bss_end__+0x1cbb6d4>
    4ca0:	0c000002 	stceq	0, cr0, [r0], {2}
    4ca4:	00000a53 	andeq	r0, r0, r3, asr sl
    4ca8:	02db7405 	sbcseq	r7, fp, #83886080	; 0x5000000
    4cac:	0c000000 	stceq	0, cr0, [r0], {-0}
    4cb0:	000009b7 			; <UNDEFINED> instruction: 0x000009b7
    4cb4:	00257505 	eoreq	r7, r5, r5, lsl #10
    4cb8:	00040000 	andeq	r0, r4, r0
    4cbc:	0054040e 	subseq	r0, r4, lr, lsl #8
    4cc0:	a50f0000 	strge	r0, [pc, #-0]	; 4cc8 <__code_start__-0x3338>
    4cc4:	6800000c 	stmdavs	r0, {r2, r3}
    4cc8:	040bb305 	streq	fp, [fp], #-773	; 0x305
    4ccc:	5f100000 	svcpl	0x00100000
    4cd0:	b4050070 	strlt	r0, [r5], #-112	; 0x70
    4cd4:	000002db 	ldrdeq	r0, [r0], -fp
    4cd8:	725f1000 	subsvc	r1, pc, #0
    4cdc:	25b50500 	ldrcs	r0, [r5, #1280]!	; 0x500
    4ce0:	04000000 	streq	r0, [r0], #-0
    4ce4:	00775f10 	rsbseq	r5, r7, r0, lsl pc
    4ce8:	0025b605 	eoreq	fp, r5, r5, lsl #12
    4cec:	0c080000 	stceq	0, cr0, [r8], {-0}
    4cf0:	00000a8b 	andeq	r0, r0, fp, lsl #21
    4cf4:	003fb705 	eorseq	fp, pc, r5, lsl #14
    4cf8:	0c0c0000 	stceq	0, cr0, [ip], {-0}
    4cfc:	00000b9e 	muleq	r0, lr, fp
    4d00:	003fb805 	eorseq	fp, pc, r5, lsl #16
    4d04:	100e0000 	andne	r0, lr, r0
    4d08:	0066625f 	rsbeq	r6, r6, pc, asr r2
    4d0c:	02b6b905 	adcseq	fp, r6, #81920	; 0x14000
    4d10:	0c100000 	ldceq	0, cr0, [r0], {-0}
    4d14:	000009fa 	strdeq	r0, [r0], -sl
    4d18:	0025ba05 	eoreq	fp, r5, r5, lsl #20
    4d1c:	0c180000 	ldceq	0, cr0, [r8], {-0}
    4d20:	00000a7b 	andeq	r0, r0, fp, ror sl
    4d24:	010ac105 	tsteq	sl, r5, lsl #2
    4d28:	0c1c0000 	ldceq	0, cr0, [ip], {-0}
    4d2c:	00000f22 	andeq	r0, r0, r2, lsr #30
    4d30:	0566c305 	strbeq	ip, [r6, #-773]!	; 0x305
    4d34:	0c200000 	stceq	0, cr0, [r0], #-0
    4d38:	00000f3c 	andeq	r0, r0, ip, lsr pc
    4d3c:	0590c505 	ldreq	ip, [r0, #1285]	; 0x505
    4d40:	0c240000 	stceq	0, cr0, [r4], #-0
    4d44:	00000d17 	andeq	r0, r0, r7, lsl sp
    4d48:	05b4c805 	ldreq	ip, [r4, #2053]!	; 0x805
    4d4c:	0c280000 	stceq	0, cr0, [r8], #-0
    4d50:	00000edc 	ldrdeq	r0, [r0], -ip
    4d54:	05cec905 	strbeq	ip, [lr, #2309]	; 0x905
    4d58:	102c0000 	eorne	r0, ip, r0
    4d5c:	0062755f 	rsbeq	r7, r2, pc, asr r5
    4d60:	02b6cc05 	adcseq	ip, r6, #1280	; 0x500
    4d64:	10300000 	eorsne	r0, r0, r0
    4d68:	0070755f 	rsbseq	r7, r0, pc, asr r5
    4d6c:	02dbcd05 	sbcseq	ip, fp, #320	; 0x140
    4d70:	10380000 	eorsne	r0, r8, r0
    4d74:	0072755f 	rsbseq	r7, r2, pc, asr r5
    4d78:	0025ce05 	eoreq	ip, r5, r5, lsl #28
    4d7c:	0c3c0000 	ldceq	0, cr0, [ip], #-0
    4d80:	00000a3e 	andeq	r0, r0, lr, lsr sl
    4d84:	05d4d105 	ldrbeq	sp, [r4, #261]	; 0x105
    4d88:	0c400000 	mareq	acc0, r0, r0
    4d8c:	00000e87 	andeq	r0, r0, r7, lsl #29
    4d90:	05e4d205 	strbeq	sp, [r4, #517]!	; 0x205
    4d94:	10430000 	subne	r0, r3, r0
    4d98:	00626c5f 	rsbeq	r6, r2, pc, asr ip
    4d9c:	02b6d505 	adcseq	sp, r6, #20971520	; 0x1400000
    4da0:	0c440000 	mareq	acc0, r0, r4
    4da4:	00000aa1 	andeq	r0, r0, r1, lsr #21
    4da8:	0025d805 	eoreq	sp, r5, r5, lsl #16
    4dac:	0c4c0000 	mareq	acc0, r0, ip
    4db0:	00000c09 	andeq	r0, r0, r9, lsl #24
    4db4:	007bd905 	rsbseq	sp, fp, r5, lsl #18
    4db8:	0c500000 	mraeq	r0, r0, acc0
    4dbc:	00000e72 	andeq	r0, r0, r2, ror lr
    4dc0:	0429dc05 	strteq	sp, [r9], #-3077	; 0xc05
    4dc4:	0c540000 	mraeq	r0, r4, acc0
    4dc8:	00000bf1 	strdeq	r0, [r0], -r1
    4dcc:	00ffe005 	rscseq	lr, pc, r5
    4dd0:	0c580000 	mraeq	r0, r8, acc0
    4dd4:	00000cad 	andeq	r0, r0, sp, lsr #25
    4dd8:	00f4e205 	rscseq	lr, r4, r5, lsl #4
    4ddc:	0c5c0000 	mraeq	r0, ip, acc0
    4de0:	00000bf7 	strdeq	r0, [r0], -r7
    4de4:	0025e305 	eoreq	lr, r5, r5, lsl #6
    4de8:	00640000 	rsbeq	r0, r4, r0
    4dec:	00002514 	andeq	r2, r0, r4, lsl r5
    4df0:	00042900 	andeq	r2, r4, r0, lsl #18
    4df4:	04291500 	strteq	r1, [r9], #-1280	; 0x500
    4df8:	0a150000 	beq	544e00 <__bss_end__+0x53a410>
    4dfc:	15000001 	strne	r0, [r0, #-1]
    4e00:	0000010c 	andeq	r0, r0, ip, lsl #2
    4e04:	00002515 	andeq	r2, r0, r5, lsl r5
    4e08:	040e0000 	streq	r0, [lr], #-0
    4e0c:	00000434 	andeq	r0, r0, r4, lsr r4
    4e10:	00042904 	andeq	r2, r4, r4, lsl #18
    4e14:	0cfa1600 	ldcleq	6, cr1, [sl]
    4e18:	04280000 	strteq	r0, [r8], #-0
    4e1c:	66023805 	strvs	r3, [r2], -r5, lsl #16
    4e20:	17000005 	strne	r0, [r0, -r5]
    4e24:	00000c75 	andeq	r0, r0, r5, ror ip
    4e28:	25023a05 	strcs	r3, [r2, #-2565]	; 0xa05
    4e2c:	00000000 	andeq	r0, r0, r0
    4e30:	000a9a17 	andeq	r9, sl, r7, lsl sl
    4e34:	023f0500 	eorseq	r0, pc, #0, 10
    4e38:	0000063b 	andeq	r0, r0, fp, lsr r6
    4e3c:	0b8e1704 	bleq	fe38aa54 <__bss_end__+0xfe380064>
    4e40:	3f050000 	svccc	0x00050000
    4e44:	00063b02 	andeq	r3, r6, r2, lsl #22
    4e48:	4f170800 	svcmi	0x00170800
    4e4c:	0500000b 	streq	r0, [r0, #-11]
    4e50:	063b023f 			; <UNDEFINED> instruction: 0x063b023f
    4e54:	170c0000 	strne	r0, [ip, -r0]
    4e58:	00000cce 	andeq	r0, r0, lr, asr #25
    4e5c:	25024105 	strcs	r4, [r2, #-261]	; 0x105
    4e60:	10000000 	andne	r0, r0, r0
    4e64:	0009c517 	andeq	ip, r9, r7, lsl r5
    4e68:	02420500 	subeq	r0, r2, #0, 10
    4e6c:	0000081d 	andeq	r0, r0, sp, lsl r8
    4e70:	0dec1714 	stcleq	7, cr1, [ip, #80]!	; 0x50
    4e74:	44050000 	strmi	r0, [r5], #-0
    4e78:	00002502 	andeq	r2, r0, r2, lsl #10
    4e7c:	d8173000 	ldmdale	r7, {ip, sp}
    4e80:	0500000c 	streq	r0, [r0, #-12]
    4e84:	058a0245 	streq	r0, [sl, #581]	; 0x245
    4e88:	17340000 	ldrne	r0, [r4, -r0]!
    4e8c:	00000c3b 	andeq	r0, r0, fp, lsr ip
    4e90:	25024705 	strcs	r4, [r2, #-1797]	; 0x705
    4e94:	38000000 	stmdacc	r0, {}	; <UNPREDICTABLE>
    4e98:	000ce817 	andeq	lr, ip, r7, lsl r8
    4e9c:	02490500 	subeq	r0, r9, #0, 10
    4ea0:	00000838 	andeq	r0, r0, r8, lsr r8
    4ea4:	0bcd173c 	bleq	ff34ab9c <__bss_end__+0xff3401ac>
    4ea8:	4c050000 	stcmi	0, cr0, [r5], {-0}
    4eac:	00017c02 	andeq	r7, r1, r2, lsl #24
    4eb0:	6e174000 	cdpvs	0, 1, cr4, cr7, cr0, {0}
    4eb4:	0500000b 	streq	r0, [r0, #-11]
    4eb8:	0025024d 	eoreq	r0, r5, sp, asr #4
    4ebc:	17440000 	strbne	r0, [r4, -r0]
    4ec0:	00000ef6 	strdeq	r0, [r0], -r6
    4ec4:	7c024e05 	stcvc	14, cr4, [r2], {5}
    4ec8:	48000001 	stmdami	r0, {r0}
    4ecc:	000c5217 	andeq	r5, ip, r7, lsl r2
    4ed0:	024f0500 	subeq	r0, pc, #0, 10
    4ed4:	0000083e 	andeq	r0, r0, lr, lsr r8
    4ed8:	0b96174c 	bleq	fe58ac10 <__bss_end__+0xfe580220>
    4edc:	52050000 	andpl	r0, r5, #0
    4ee0:	00002502 	andeq	r2, r0, r2, lsl #10
    4ee4:	bd175000 	ldclt	0, cr5, [r7, #-0]
    4ee8:	0500000a 	streq	r0, [r0, #-10]
    4eec:	010c0253 	tsteq	ip, r3, asr r2
    4ef0:	17540000 	ldrbne	r0, [r4, -r0]
    4ef4:	00000c6e 	andeq	r0, r0, lr, ror #24
    4ef8:	fb027605 	blx	a2716 <__bss_end__+0x97d26>
    4efc:	58000007 	stmdapl	r0, {r0, r1, r2}
    4f00:	000c3318 	andeq	r3, ip, r8, lsl r3
    4f04:	027a0500 	rsbseq	r0, sl, #0, 10
    4f08:	00000299 	muleq	r0, r9, r2
    4f0c:	ab180148 	blge	605434 <__bss_end__+0x5faa44>
    4f10:	0500000b 	streq	r0, [r0, #-11]
    4f14:	025b027b 	subseq	r0, fp, #-1342177273	; 0xb0000007
    4f18:	014c0000 	mrseq	r0, (UNDEF: 76)
    4f1c:	000e5818 	andeq	r5, lr, r8, lsl r8
    4f20:	027f0500 	rsbseq	r0, pc, #0, 10
    4f24:	0000084f 	andeq	r0, r0, pc, asr #16
    4f28:	831802dc 	tsthi	r8, #220, 4	; 0xc000000d
    4f2c:	0500000a 	streq	r0, [r0, #-10]
    4f30:	06000284 	streq	r0, [r0], -r4, lsl #5
    4f34:	02e00000 	rsceq	r0, r0, #0
    4f38:	000a6818 	andeq	r6, sl, r8, lsl r8
    4f3c:	02850500 	addeq	r0, r5, #0, 10
    4f40:	0000085b 	andeq	r0, r0, fp, asr r8
    4f44:	0e0002ec 	cdpeq	2, 0, cr0, cr0, cr12, {7}
    4f48:	00040b04 	andeq	r0, r4, r4, lsl #22
    4f4c:	00251400 	eoreq	r1, r5, r0, lsl #8
    4f50:	058a0000 	streq	r0, [sl]
    4f54:	29150000 	ldmdbcs	r5, {}	; <UNPREDICTABLE>
    4f58:	15000004 	strne	r0, [r0, #-4]
    4f5c:	0000010a 	andeq	r0, r0, sl, lsl #2
    4f60:	00058a15 	andeq	r8, r5, r5, lsl sl
    4f64:	00251500 	eoreq	r1, r5, r0, lsl #10
    4f68:	0e000000 	cdpeq	0, 0, cr0, cr0, cr0, {0}
    4f6c:	00011904 	andeq	r1, r1, r4, lsl #18
    4f70:	6c040e00 	stcvs	14, cr0, [r4], {-0}
    4f74:	14000005 	strne	r0, [r0], #-5
    4f78:	00000086 	andeq	r0, r0, r6, lsl #1
    4f7c:	000005b4 			; <UNDEFINED> instruction: 0x000005b4
    4f80:	00042915 	andeq	r2, r4, r5, lsl r9
    4f84:	010a1500 	tsteq	sl, r0, lsl #10
    4f88:	86150000 	ldrhi	r0, [r5], -r0
    4f8c:	15000000 	strne	r0, [r0, #-0]
    4f90:	00000025 	andeq	r0, r0, r5, lsr #32
    4f94:	96040e00 	strls	r0, [r4], -r0, lsl #28
    4f98:	14000005 	strne	r0, [r0], #-5
    4f9c:	00000025 	andeq	r0, r0, r5, lsr #32
    4fa0:	000005ce 	andeq	r0, r0, lr, asr #11
    4fa4:	00042915 	andeq	r2, r4, r5, lsl r9
    4fa8:	010a1500 	tsteq	sl, r0, lsl #10
    4fac:	0e000000 	cdpeq	0, 0, cr0, cr0, cr0, {0}
    4fb0:	0005ba04 	andeq	fp, r5, r4, lsl #20
    4fb4:	00540900 	subseq	r0, r4, r0, lsl #18
    4fb8:	05e40000 	strbeq	r0, [r4, #0]!
    4fbc:	cc0a0000 	stcgt	0, cr0, [sl], {-0}
    4fc0:	02000000 	andeq	r0, r0, #0
    4fc4:	00540900 	subseq	r0, r4, r0, lsl #18
    4fc8:	05f40000 	ldrbeq	r0, [r4, #0]!
    4fcc:	cc0a0000 	stcgt	0, cr0, [sl], {-0}
    4fd0:	00000000 	andeq	r0, r0, r0
    4fd4:	0c930600 	ldceq	6, cr0, [r3], {0}
    4fd8:	1d050000 	stcne	0, cr0, [r5, #-0]
    4fdc:	0002e101 	andeq	lr, r2, r1, lsl #2
    4fe0:	0e1a1900 	cdpeq	9, 1, cr1, cr10, cr0, {0}
    4fe4:	050c0000 	streq	r0, [ip, #-0]
    4fe8:	06350121 	ldrteq	r0, [r5], -r1, lsr #2
    4fec:	bb170000 	bllt	5c4ff4 <__bss_end__+0x5ba604>
    4ff0:	0500000c 	streq	r0, [r0, #-12]
    4ff4:	06350123 	ldrteq	r0, [r5], -r3, lsr #2
    4ff8:	17000000 	strne	r0, [r0, -r0]
    4ffc:	00000ba4 	andeq	r0, r0, r4, lsr #23
    5000:	25012405 	strcs	r2, [r1, #-1029]	; 0x405
    5004:	04000000 	streq	r0, [r0], #-0
    5008:	000c8d17 	andeq	r8, ip, r7, lsl sp
    500c:	01250500 	teqeq	r5, r0, lsl #10
    5010:	0000063b 	andeq	r0, r0, fp, lsr r6
    5014:	040e0008 	streq	r0, [lr], #-8
    5018:	00000600 	andeq	r0, r0, r0, lsl #12
    501c:	05f4040e 	ldrbeq	r0, [r4, #1038]!	; 0x40e
    5020:	bd190000 	ldclt	0, cr0, [r9, #-0]
    5024:	0e000009 	cdpeq	0, 0, cr0, cr0, cr9, {0}
    5028:	76013d05 	strvc	r3, [r1], -r5, lsl #26
    502c:	17000006 	strne	r0, [r0, -r6]
    5030:	00000d01 	andeq	r0, r0, r1, lsl #26
    5034:	76013e05 	strvc	r3, [r1], -r5, lsl #28
    5038:	00000006 	andeq	r0, r0, r6
    503c:	000d3b17 	andeq	r3, sp, r7, lsl fp
    5040:	013f0500 	teqeq	pc, r0, lsl #10
    5044:	00000676 	andeq	r0, r0, r6, ror r6
    5048:	0dbf1706 	ldceq	7, cr1, [pc, #24]!	; 5068 <__code_start__-0x2f98>
    504c:	40050000 	andmi	r0, r5, r0
    5050:	00005b01 	andeq	r5, r0, r1, lsl #22
    5054:	09000c00 	stmdbeq	r0, {sl, fp}
    5058:	0000005b 	andeq	r0, r0, fp, asr r0
    505c:	00000686 	andeq	r0, r0, r6, lsl #13
    5060:	0000cc0a 	andeq	ip, r0, sl, lsl #24
    5064:	1a000200 	bne	586c <__code_start__-0x2794>
    5068:	025705d0 	subseq	r0, r7, #208, 10	; 0x34000000
    506c:	00000787 	andeq	r0, r0, r7, lsl #15
    5070:	000dfe17 	andeq	pc, sp, r7, lsl lr	; <UNPREDICTABLE>
    5074:	02590500 	subseq	r0, r9, #0, 10
    5078:	0000002c 	andeq	r0, r0, ip, lsr #32
    507c:	0da91700 	stceq	7, cr1, [r9]
    5080:	5a050000 	bpl	145088 <__bss_end__+0x13a698>
    5084:	00010c02 	andeq	r0, r1, r2, lsl #24
    5088:	c0170400 	andsgt	r0, r7, r0, lsl #8
    508c:	0500000b 	streq	r0, [r0, #-11]
    5090:	0787025b 			; <UNDEFINED> instruction: 0x0787025b
    5094:	17080000 	strne	r0, [r8, -r0]
    5098:	00000ecd 	andeq	r0, r0, sp, asr #29
    509c:	92025c05 	andls	r5, r2, #1280	; 0x500
    50a0:	24000001 	strcs	r0, [r0], #-1
    50a4:	000b5f17 	andeq	r5, fp, r7, lsl pc
    50a8:	025d0500 	subseq	r0, sp, #0, 10
    50ac:	00000025 	andeq	r0, r0, r5, lsr #32
    50b0:	0cb61748 	ldceq	7, cr1, [r6], #288	; 0x120
    50b4:	5e050000 	cdppl	0, 0, cr0, cr5, cr0, {0}
    50b8:	00006902 	andeq	r6, r0, r2, lsl #18
    50bc:	e3175000 	tst	r7, #0
    50c0:	0500000e 	streq	r0, [r0, #-14]
    50c4:	0641025f 			; <UNDEFINED> instruction: 0x0641025f
    50c8:	17580000 	ldrbne	r0, [r8, -r0]
    50cc:	00000cc1 	andeq	r0, r0, r1, asr #25
    50d0:	f4026005 	vst4.8	{d6-d9}, [r2], r5
    50d4:	68000000 	stmdavs	r0, {}	; <UNPREDICTABLE>
    50d8:	000ee817 	andeq	lr, lr, r7, lsl r8
    50dc:	02610500 	rsbeq	r0, r1, #0, 10
    50e0:	000000f4 	strdeq	r0, [r0], -r4
    50e4:	0a221770 	beq	88aeac <__bss_end__+0x8804bc>
    50e8:	62050000 	andvs	r0, r5, #0
    50ec:	0000f402 	andeq	pc, r0, r2, lsl #8
    50f0:	3a177800 	bcc	5e30f8 <__bss_end__+0x5d8708>
    50f4:	0500000e 	streq	r0, [r0, #-14]
    50f8:	07970263 	ldreq	r0, [r7, r3, ror #4]
    50fc:	17800000 	strne	r0, [r0, r0]
    5100:	00000bb4 			; <UNDEFINED> instruction: 0x00000bb4
    5104:	a7026405 	strge	r6, [r2, -r5, lsl #8]
    5108:	88000007 	stmdahi	r0, {r0, r1, r2}
    510c:	000dcc17 	andeq	ip, sp, r7, lsl ip
    5110:	02650500 	rsbeq	r0, r5, #0, 10
    5114:	00000025 	andeq	r0, r0, r5, lsr #32
    5118:	0b0b17a0 	bleq	2cafa0 <__bss_end__+0x2c05b0>
    511c:	66050000 	strvs	r0, [r5], -r0
    5120:	0000f402 	andeq	pc, r0, r2, lsl #8
    5124:	1317a400 	tstne	r7, #0, 8
    5128:	0500000a 	streq	r0, [r0, #-10]
    512c:	00f40267 	rscseq	r0, r4, r7, ror #4
    5130:	17ac0000 	strne	r0, [ip, r0]!
    5134:	00000afa 	strdeq	r0, [r0], -sl
    5138:	f4026805 	vst2.8	{d6-d7}, [r2], r5
    513c:	b4000000 	strlt	r0, [r0], #-0
    5140:	0009da17 	andeq	sp, r9, r7, lsl sl
    5144:	02690500 	rsbeq	r0, r9, #0, 10
    5148:	000000f4 	strdeq	r0, [r0], -r4
    514c:	09e917bc 	stmibeq	r9!, {r2, r3, r4, r5, r7, r8, r9, sl, ip}^
    5150:	6a050000 	bvs	145158 <__bss_end__+0x13a768>
    5154:	0000f402 	andeq	pc, r0, r2, lsl #8
    5158:	7317c400 	tstvc	r7, #0, 8
    515c:	0500000c 	streq	r0, [r0, #-12]
    5160:	0025026b 	eoreq	r0, r5, fp, ror #4
    5164:	00cc0000 	sbceq	r0, ip, r0
    5168:	00011209 	andeq	r1, r1, r9, lsl #4
    516c:	00079700 	andeq	r9, r7, r0, lsl #14
    5170:	00cc0a00 	sbceq	r0, ip, r0, lsl #20
    5174:	00190000 	andseq	r0, r9, r0
    5178:	00011209 	andeq	r1, r1, r9, lsl #4
    517c:	0007a700 	andeq	sl, r7, r0, lsl #14
    5180:	00cc0a00 	sbceq	r0, ip, r0, lsl #20
    5184:	00070000 	andeq	r0, r7, r0
    5188:	00011209 	andeq	r1, r1, r9, lsl #4
    518c:	0007b700 	andeq	fp, r7, r0, lsl #14
    5190:	00cc0a00 	sbceq	r0, ip, r0, lsl #20
    5194:	00170000 	andseq	r0, r7, r0
    5198:	7005f01a 	andvc	pc, r5, sl, lsl r0	; <UNPREDICTABLE>
    519c:	0007db02 	andeq	sp, r7, r2, lsl #22
    51a0:	0c231700 	stceq	7, cr1, [r3], #-0
    51a4:	73050000 	movwvc	r0, #20480	; 0x5000
    51a8:	0007db02 	andeq	sp, r7, r2, lsl #22
    51ac:	31170000 	tstcc	r7, r0
    51b0:	0500000e 	streq	r0, [r0, #-14]
    51b4:	07eb0274 			; <UNDEFINED> instruction: 0x07eb0274
    51b8:	00780000 	rsbseq	r0, r8, r0
    51bc:	0002db09 	andeq	sp, r2, r9, lsl #22
    51c0:	0007eb00 	andeq	lr, r7, r0, lsl #22
    51c4:	00cc0a00 	sbceq	r0, ip, r0, lsl #20
    51c8:	001d0000 	andseq	r0, sp, r0
    51cc:	00002c09 	andeq	r2, r0, r9, lsl #24
    51d0:	0007fb00 	andeq	pc, r7, r0, lsl #22
    51d4:	00cc0a00 	sbceq	r0, ip, r0, lsl #20
    51d8:	001d0000 	andseq	r0, sp, r0
    51dc:	5505f01b 	strpl	pc, [r5, #-27]
    51e0:	00081d02 	andeq	r1, r8, r2, lsl #26
    51e4:	0cfa1c00 	ldcleq	12, cr1, [sl]
    51e8:	6c050000 	stcvs	0, cr0, [r5], {-0}
    51ec:	00068602 	andeq	r8, r6, r2, lsl #12
    51f0:	0e8d1c00 	cdpeq	12, 8, cr1, cr13, cr0, {0}
    51f4:	75050000 	strvc	r0, [r5, #-0]
    51f8:	0007b702 	andeq	fp, r7, r2, lsl #14
    51fc:	12090000 	andne	r0, r9, #0
    5200:	2d000001 	stccs	0, cr0, [r0, #-4]
    5204:	0a000008 	beq	522c <__code_start__-0x2dd4>
    5208:	000000cc 	andeq	r0, r0, ip, asr #1
    520c:	381d0018 	ldmdacc	sp, {r3, r4}
    5210:	15000008 	strne	r0, [r0, #-8]
    5214:	00000429 	andeq	r0, r0, r9, lsr #8
    5218:	2d040e00 	stccs	14, cr0, [r4, #-0]
    521c:	0e000008 	cdpeq	0, 0, cr0, cr0, cr8, {0}
    5220:	00017c04 	andeq	r7, r1, r4, lsl #24
    5224:	084f1d00 	stmdaeq	pc, {r8, sl, fp, ip}^	; <UNPREDICTABLE>
    5228:	25150000 	ldrcs	r0, [r5, #-0]
    522c:	00000000 	andeq	r0, r0, r0
    5230:	0855040e 	ldmdaeq	r5, {r1, r2, r3, sl}^
    5234:	040e0000 	streq	r0, [lr], #-0
    5238:	00000844 	andeq	r0, r0, r4, asr #16
    523c:	0005f409 	andeq	pc, r5, r9, lsl #8
    5240:	00086b00 	andeq	r6, r8, r0, lsl #22
    5244:	00cc0a00 	sbceq	r0, ip, r0, lsl #20
    5248:	00020000 	andeq	r0, r2, r0
    524c:	000de01e 	andeq	lr, sp, lr, lsl r0
    5250:	02fd0500 	rscseq	r0, sp, #0, 10
    5254:	00000429 	andeq	r0, r0, r9, lsr #8
    5258:	000dd91e 	andeq	sp, sp, lr, lsl r9
    525c:	02fe0500 	rscseq	r0, lr, #0, 10
    5260:	0000042f 	andeq	r0, r0, pc, lsr #8
    5264:	00002514 	andeq	r2, r0, r4, lsl r5
    5268:	00089200 	andeq	r9, r8, r0, lsl #4
    526c:	00251500 	eoreq	r1, r5, r0, lsl #10
    5270:	1f000000 	svcne	0x00000000
    5274:	000005da 	ldrdeq	r0, [r0], -sl
    5278:	089d1d06 	ldmeq	sp, {r1, r2, r8, sl, fp, ip}
    527c:	040e0000 	streq	r0, [lr], #-0
    5280:	00000883 	andeq	r0, r0, r3, lsl #17
    5284:	00002514 	andeq	r2, r0, r4, lsl r5
    5288:	0008b200 	andeq	fp, r8, r0, lsl #4
    528c:	058a1500 	streq	r1, [sl, #1280]	; 0x500
    5290:	1f000000 	svcne	0x00000000
    5294:	00000617 	andeq	r0, r0, r7, lsl r6
    5298:	08bd2206 	popeq	{r1, r2, r9, sp}
    529c:	040e0000 	streq	r0, [lr], #-0
    52a0:	000008a3 	andeq	r0, r0, r3, lsr #17
    52a4:	00540120 	subseq	r0, r4, r0, lsr #2
    52a8:	0c070000 	stceq	0, cr0, [r7], {-0}
    52ac:	00000900 	andeq	r0, r0, r0, lsl #18
    52b0:	000a0321 	andeq	r0, sl, r1, lsr #6
    52b4:	20210000 	eorcs	r0, r1, r0
    52b8:	0100000e 	tsteq	r0, lr
    52bc:	000e7821 	andeq	r7, lr, r1, lsr #16
    52c0:	44210400 	strtmi	r0, [r1], #-1024	; 0x400
    52c4:	0500000a 	streq	r0, [r0, #-10]
    52c8:	000bdb21 	andeq	sp, fp, r1, lsr #22
    52cc:	95210600 	strls	r0, [r1, #-1536]!	; 0x600
    52d0:	0700000e 	streq	r0, [r0, -lr]
    52d4:	000ea421 	andeq	sl, lr, r1, lsr #8
    52d8:	b3210300 	teqlt	r1, #0, 6
    52dc:	0200000e 	andeq	r0, r0, #14
    52e0:	0f720500 	svceq	0x00720500
    52e4:	15070000 	strne	r0, [r7, #-0]
    52e8:	000008c3 	andeq	r0, r0, r3, asr #17
    52ec:	000f4322 	andeq	r4, pc, r2, lsr #6
    52f0:	331d0100 	tstcc	sp, #0, 2
    52f4:	1c000000 	stcne	0, cr0, [r0], {-0}
    52f8:	22202000 	eorcs	r2, r0, #0
    52fc:	00000f7e 	andeq	r0, r0, lr, ror pc
    5300:	00331e01 	eorseq	r1, r3, r1, lsl #28
    5304:	00280000 	eoreq	r0, r8, r0
    5308:	4d222020 	stcmi	0, cr2, [r2, #-128]!	; 0xffffff80
    530c:	0100000f 	tsteq	r0, pc
    5310:	0000331f 	andeq	r3, r0, pc, lsl r3
    5314:	20003400 	andcs	r3, r0, r0, lsl #8
    5318:	0f1e2320 	svceq	0x001e2320
    531c:	56010000 	strpl	r0, [r1], -r0
    5320:	00000025 	andeq	r0, r0, r5, lsr #32
    5324:	00009cf4 	strdeq	r9, [r0], -r4
    5328:	00000034 	andeq	r0, r0, r4, lsr r0
    532c:	09989c01 	ldmibeq	r8, {r0, sl, fp, ip, pc}
    5330:	70240000 	eorvc	r0, r4, r0
    5334:	01006e69 	tsteq	r0, r9, ror #28
    5338:	00002c56 	andeq	r2, r0, r6, asr ip
    533c:	0011de00 	andseq	sp, r1, r0, lsl #28
    5340:	0f122500 	svceq	0x00122500
    5344:	59010000 	stmdbpl	r1, {}	; <UNPREDICTABLE>
    5348:	0000002c 	andeq	r0, r0, ip, lsr #32
    534c:	00001218 	andeq	r1, r0, r8, lsl r2
    5350:	66666f26 	strbtvs	r6, [r6], -r6, lsr #30
    5354:	2c5a0100 	ldfcse	f0, [sl], {-0}
    5358:	56000000 	strpl	r0, [r0], -r0
    535c:	27000012 	smladcs	r0, r2, r0, r0
    5360:	00009d10 	andeq	r9, r0, r0, lsl sp
    5364:	00000b5d 	andeq	r0, r0, sp, asr fp
    5368:	0b500128 	bleq	1405810 <__bss_end__+0x13fae20>
    536c:	355001f3 	ldrbcc	r0, [r0, #-499]	; 0x1f3
    5370:	80b42325 	adcshi	r2, r4, r5, lsr #6
    5374:	00028180 	andeq	r8, r2, r0, lsl #3
    5378:	0f382900 	svceq	0x00382900
    537c:	4f010000 	svcmi	0x00010000
    5380:	00009cd8 	ldrdeq	r9, [r0], -r8
    5384:	0000001c 	andeq	r0, r0, ip, lsl r0
    5388:	09e89c01 	stmibeq	r8!, {r0, sl, fp, ip, pc}^
    538c:	70240000 	eorvc	r0, r4, r0
    5390:	01006e69 	tsteq	r0, r9, ror #28
    5394:	00002c4f 	andeq	r2, r0, pc, asr #24
    5398:	00126900 	andseq	r6, r2, r0, lsl #18
    539c:	00762400 	rsbseq	r2, r6, r0, lsl #8
    53a0:	002c4f01 	eoreq	r4, ip, r1, lsl #30
    53a4:	12a30000 	adcne	r0, r3, #0
    53a8:	e82a0000 	stmda	sl!, {}	; <UNPREDICTABLE>
    53ac:	2300009c 	movwcs	r0, #156	; 0x9c
    53b0:	de00000a 	cdple	0, 0, cr0, cr0, cr10, {0}
    53b4:	28000009 	stmdacs	r0, {r0, r3}
    53b8:	f3035001 	vhadd.u8	d5, d3, d1
    53bc:	2b005001 	blcs	193c8 <__bss_end__+0xe9d8>
    53c0:	00009cf0 	strdeq	r9, [r0], -r0
    53c4:	00000a64 	andeq	r0, r0, r4, ror #20
    53c8:	0f572900 	svceq	0x00572900
    53cc:	4a010000 	bmi	453d4 <__bss_end__+0x3a9e4>
    53d0:	00009cc8 	andeq	r9, r0, r8, asr #25
    53d4:	00000010 	andeq	r0, r0, r0, lsl r0
    53d8:	0a239c01 	beq	8ec3e4 <__bss_end__+0x8e19f4>
    53dc:	70240000 	eorvc	r0, r4, r0
    53e0:	01006e69 	tsteq	r0, r9, ror #28
    53e4:	00002c4a 	andeq	r2, r0, sl, asr #24
    53e8:	0012dd00 	andseq	sp, r2, r0, lsl #26
    53ec:	9cd42700 	ldclls	7, cr2, [r4], {0}
    53f0:	0ae00000 	beq	ff8053f8 <__bss_end__+0xff7faa08>
    53f4:	01280000 	teqeq	r8, r0
    53f8:	01f30350 	mvnseq	r0, r0, asr r3
    53fc:	51012850 	tstpl	r1, r0, asr r8
    5400:	00003001 	andeq	r3, r0, r1
    5404:	000f0529 	andeq	r0, pc, r9, lsr #10
    5408:	a4430100 	strbge	r0, [r3], #-256	; 0x100
    540c:	2400009c 	strcs	r0, [r0], #-156	; 0x9c
    5410:	01000000 	mrseq	r0, (UNDEF: 0)
    5414:	000a649c 	muleq	sl, ip, r4
    5418:	69702400 	ldmdbvs	r0!, {sl, sp}^
    541c:	4301006e 	movwmi	r0, #4206	; 0x106e
    5420:	0000002c 	andeq	r0, r0, ip, lsr #32
    5424:	000012fe 	strdeq	r1, [r0], -lr
    5428:	009cc027 	addseq	ip, ip, r7, lsr #32
    542c:	000b6800 	andeq	r6, fp, r0, lsl #16
    5430:	50012800 	andpl	r2, r1, r0, lsl #16
    5434:	00280c05 	eoreq	r0, r8, r5, lsl #24
    5438:	01282020 	teqeq	r8, r0, lsr #32
    543c:	f3310551 	vqrshl.u64	q0, <illegal reg q0.5>, <illegal reg q0.5>
    5440:	00245001 	eoreq	r5, r4, r1
    5444:	0f662900 	svceq	0x00662900
    5448:	3c010000 	stccc	0, cr0, [r1], {-0}
    544c:	00009c80 	andeq	r9, r0, r0, lsl #25
    5450:	00000024 	andeq	r0, r0, r4, lsr #32
    5454:	0aa59c01 	beq	fe96c460 <__bss_end__+0xfe961a70>
    5458:	70240000 	eorvc	r0, r4, r0
    545c:	01006e69 	tsteq	r0, r9, ror #28
    5460:	00002c3c 	andeq	r2, r0, ip, lsr ip
    5464:	00131f00 	andseq	r1, r3, r0, lsl #30
    5468:	9c9c2700 	ldcls	7, cr2, [ip], {0}
    546c:	0b680000 	bleq	1a05474 <__bss_end__+0x19faa84>
    5470:	01280000 	teqeq	r8, r0
    5474:	1c0c0550 	cfstr32ne	mvfx0, [ip], {80}	; 0x50
    5478:	28202000 	stmdacs	r0!, {sp}
    547c:	31055101 	tstcc	r5, r1, lsl #2
    5480:	245001f3 	ldrbcs	r0, [r0], #-499	; 0x1f3
    5484:	28290000 	stmdacs	r9!, {}	; <UNPREDICTABLE>
    5488:	0100000f 	tsteq	r0, pc
    548c:	009c7037 	addseq	r7, ip, r7, lsr r0
    5490:	00001000 	andeq	r1, r0, r0
    5494:	e09c0100 	adds	r0, ip, r0, lsl #2
    5498:	2400000a 	strcs	r0, [r0], #-10
    549c:	006e6970 	rsbeq	r6, lr, r0, ror r9
    54a0:	002c3701 	eoreq	r3, ip, r1, lsl #14
    54a4:	13400000 	movtne	r0, #0
    54a8:	7c270000 	stcvc	0, cr0, [r7], #-0
    54ac:	e000009c 	mul	r0, ip, r0
    54b0:	2800000a 	stmdacs	r0, {r1, r3}
    54b4:	f3035001 	vhadd.u8	d5, d3, d1
    54b8:	01285001 	teqeq	r8, r1
    54bc:	00310151 	eorseq	r0, r1, r1, asr r1
    54c0:	0c112900 	ldceq	9, cr2, [r1], {-0}
    54c4:	28010000 	stmdacs	r1, {}	; <UNPREDICTABLE>
    54c8:	00009c08 	andeq	r9, r0, r8, lsl #24
    54cc:	00000068 	andeq	r0, r0, r8, rrx
    54d0:	0b5d9c01 	bleq	176c4dc <__bss_end__+0x1761aec>
    54d4:	70240000 	eorvc	r0, r4, r0
    54d8:	01006e69 	tsteq	r0, r9, ror #28
    54dc:	00002c28 	andeq	r2, r0, r8, lsr #24
    54e0:	00136100 	andseq	r6, r3, r0, lsl #2
    54e4:	0e5d2c00 	cdpeq	12, 5, cr2, cr13, cr0, {0}
    54e8:	28010000 	stmdacs	r1, {}	; <UNPREDICTABLE>
    54ec:	00000900 	andeq	r0, r0, r0, lsl #18
    54f0:	00001382 	andeq	r1, r0, r2, lsl #7
    54f4:	66666f2d 	strbtvs	r6, [r6], -sp, lsr #30
    54f8:	2c2d0100 	stfcss	f0, [sp], #-0
    54fc:	01000000 	mrseq	r0, (UNDEF: 0)
    5500:	00672d54 	rsbeq	r2, r7, r4, asr sp
    5504:	002c2f01 	eoreq	r2, ip, r1, lsl #30
    5508:	56010000 	strpl	r0, [r1], -r0
    550c:	01007626 	tsteq	r0, r6, lsr #12
    5510:	00002c31 	andeq	r2, r0, r1, lsr ip
    5514:	0013a300 	andseq	sl, r3, r0, lsl #6
    5518:	9c542a00 	mrrcls	10, 0, r2, r4, cr0
    551c:	0b5d0000 	bleq	1745524 <__bss_end__+0x173ab34>
    5520:	0b4c0000 	bleq	1305528 <__bss_end__+0x12fab38>
    5524:	01280000 	teqeq	r8, r0
    5528:	00760250 	rsbseq	r0, r6, r0, asr r2
    552c:	9c682700 	stclls	7, cr2, [r8], #-0
    5530:	0b680000 	bleq	1a05538 <__bss_end__+0x19fab48>
    5534:	01280000 	teqeq	r8, r0
    5538:	00760250 	rsbseq	r0, r6, r0, asr r2
    553c:	7a2e0000 	bvc	b85544 <__bss_end__+0xb7ab54>
    5540:	7a000009 	bvc	556c <__code_start__-0x2a94>
    5544:	06000009 	streq	r0, [r0], -r9
    5548:	08b42ea7 	ldmeq	r4!, {r0, r1, r2, r5, r7, r9, sl, fp, sp}
    554c:	08b40000 	ldmeq	r4!, {}	; <UNPREDICTABLE>
    5550:	9b060000 	blls	185558 <__bss_end__+0x17ab68>
	...

Disassembly of section .debug_abbrev:

00000000 <.debug_abbrev>:
       0:	25011101 	strcs	r1, [r1, #-257]	; 0x101
       4:	030b130e 	movweq	r1, #45838	; 0xb30e
       8:	110e1b0e 	tstne	lr, lr, lsl #22
       c:	10061201 	andne	r1, r6, r1, lsl #4
      10:	02000017 	andeq	r0, r0, #23
      14:	0b0b0024 	bleq	2c00ac <__bss_end__+0x2b56bc>
      18:	08030b3e 	stmdaeq	r3, {r1, r2, r3, r4, r5, r8, r9, fp}
      1c:	24030000 	strcs	r0, [r3], #-0
      20:	3e0b0b00 	vmlacc.f64	d0, d11, d0
      24:	000e030b 	andeq	r0, lr, fp, lsl #6
      28:	00160400 	andseq	r0, r6, r0, lsl #8
      2c:	0b3a0e03 	bleq	e83840 <__bss_end__+0xe78e50>
      30:	13490b3b 	movtne	r0, #39739	; 0x9b3b
      34:	0f050000 	svceq	0x00050000
      38:	000b0b00 	andeq	r0, fp, r0, lsl #22
      3c:	000f0600 	andeq	r0, pc, r0, lsl #12
      40:	13490b0b 	movtne	r0, #39691	; 0x9b0b
      44:	26070000 	strcs	r0, [r7], -r0
      48:	00134900 	andseq	r4, r3, r0, lsl #18
      4c:	01010800 	tsteq	r1, r0, lsl #16
      50:	13011349 	movwne	r1, #4937	; 0x1349
      54:	21090000 	mrscs	r0, (UNDEF: 9)
      58:	2f134900 	svccs	0x00134900
      5c:	0a00000b 	beq	90 <__code_start__-0x7f70>
      60:	19270115 	stmdbne	r7!, {r0, r2, r4, r8}
      64:	00001301 	andeq	r1, r0, r1, lsl #6
      68:	4900050b 	stmdbmi	r0, {r0, r1, r3, r8, sl}
      6c:	0c000013 	stceq	0, cr0, [r0], {19}
      70:	0e03012e 	adfeqsp	f0, f3, #0.5
      74:	0b3b0b3a 	bleq	ec2d64 <__bss_end__+0xeb8374>
      78:	13491927 	movtne	r1, #39207	; 0x9927
      7c:	13010b20 	movwne	r0, #6944	; 0x1b20
      80:	340d0000 	strcc	r0, [sp], #-0
      84:	3a080300 	bcc	200c8c <__bss_end__+0x1f629c>
      88:	490b3b0b 	stmdbmi	fp, {r0, r1, r3, r8, r9, fp, ip, sp}
      8c:	0e000013 	mcreq	0, 0, r0, cr0, cr3, {0}
      90:	0e030005 	cdpeq	0, 0, cr0, cr3, cr5, {0}
      94:	0b3b0b3a 	bleq	ec2d84 <__bss_end__+0xeb8394>
      98:	00001349 	andeq	r1, r0, r9, asr #6
      9c:	03012e0f 	movweq	r2, #7695	; 0x1e0f
      a0:	3b0b3a0e 	blcc	2ce8e0 <__bss_end__+0x2c3ef0>
      a4:	2019270b 	andscs	r2, r9, fp, lsl #14
      a8:	0013010b 	andseq	r0, r3, fp, lsl #2
      ac:	00341000 	eorseq	r1, r4, r0
      b0:	0b3a0e03 	bleq	e838c4 <__bss_end__+0xe78ed4>
      b4:	13490b3b 	movtne	r0, #39739	; 0x9b3b
      b8:	34110000 	ldrcc	r0, [r1], #-0
      bc:	490e0300 	stmdbmi	lr, {r8, r9}
      c0:	1c193413 	cfldrsne	mvf3, [r9], {19}
      c4:	1200000e 	andne	r0, r0, #14
      c8:	08030005 	stmdaeq	r3, {r0, r2}
      cc:	0b3b0b3a 	bleq	ec2dbc <__bss_end__+0xeb83cc>
      d0:	00001349 	andeq	r1, r0, r9, asr #6
      d4:	03012e13 	movweq	r2, #7699	; 0x1e13
      d8:	3b0b3a0e 	blcc	2ce918 <__bss_end__+0x2c3f28>
      dc:	4919270b 	ldmdbmi	r9, {r0, r1, r3, r8, r9, sl, sp}
      e0:	12011113 	andne	r1, r1, #-1073741820	; 0xc0000004
      e4:	97184006 	ldrls	r4, [r8, -r6]
      e8:	13011942 	movwne	r1, #6466	; 0x1942
      ec:	05140000 	ldreq	r0, [r4, #-0]
      f0:	3a0e0300 	bcc	380cf8 <__bss_end__+0x376308>
      f4:	490b3b0b 	stmdbmi	fp, {r0, r1, r3, r8, r9, fp, ip, sp}
      f8:	00170213 	andseq	r0, r7, r3, lsl r2
      fc:	00341500 	eorseq	r1, r4, r0, lsl #10
     100:	13490e03 	movtne	r0, #40451	; 0x9e03
     104:	18021934 	stmdane	r2, {r2, r4, r5, r8, fp, ip}
     108:	1d160000 	ldcne	0, cr0, [r6, #-0]
     10c:	11133101 	tstne	r3, r1, lsl #2
     110:	58061201 	stmdapl	r6, {r0, r9, ip}
     114:	010b590b 	tsteq	fp, fp, lsl #18
     118:	17000013 	smladne	r0, r3, r0, r0
     11c:	13310005 	teqne	r1, #5
     120:	00001702 	andeq	r1, r0, r2, lsl #14
     124:	11010b18 	tstne	r1, r8, lsl fp
     128:	00061201 	andeq	r1, r6, r1, lsl #4
     12c:	00341900 	eorseq	r1, r4, r0, lsl #18
     130:	00001331 	andeq	r1, r0, r1, lsr r3
     134:	3100341a 	tstcc	r0, sl, lsl r4
     138:	00180213 	andseq	r0, r8, r3, lsl r2
     13c:	00051b00 	andeq	r1, r5, r0, lsl #22
     140:	0b1c1331 	bleq	704e0c <__bss_end__+0x6fa41c>
     144:	341c0000 	ldrcc	r0, [ip], #-0
     148:	1c133100 	ldfnes	f3, [r3], {-0}
     14c:	1d00000b 	stcne	0, cr0, [r0, #-44]	; 0xffffffd4
     150:	13310005 	teqne	r1, #5
     154:	891e0000 	ldmdbhi	lr, {}	; <UNPREDICTABLE>
     158:	11000182 	smlabbne	r0, r2, r1, r0
     15c:	00133101 	andseq	r3, r3, r1, lsl #2
     160:	82891f00 	addhi	r1, r9, #0, 30
     164:	01110101 	tsteq	r1, r1, lsl #2
     168:	13011331 	movwne	r1, #4913	; 0x1331
     16c:	8a200000 	bhi	800174 <__bss_end__+0x7f5784>
     170:	02000182 	andeq	r0, r0, #-2147483616	; 0x80000020
     174:	18429118 	stmdane	r2, {r3, r4, r8, ip, pc}^
     178:	2e210000 	cdpcs	0, 2, cr0, cr1, cr0, {0}
     17c:	03193f01 	tsteq	r9, #1, 30
     180:	3b0b3a0e 	blcc	2ce9c0 <__bss_end__+0x2c3fd0>
     184:	1119270b 	tstne	r9, fp, lsl #14
     188:	40061201 	andmi	r1, r6, r1, lsl #4
     18c:	19429718 	stmdbne	r2, {r3, r4, r8, r9, sl, ip, pc}^
     190:	00001301 	andeq	r1, r0, r1, lsl #6
     194:	55010b22 	strpl	r0, [r1, #-2850]	; 0xb22
     198:	00130117 	andseq	r0, r3, r7, lsl r1
     19c:	00342300 	eorseq	r2, r4, r0, lsl #6
     1a0:	0b3a0803 	bleq	e821b4 <__bss_end__+0xe777c4>
     1a4:	13490b3b 	movtne	r0, #39739	; 0x9b3b
     1a8:	00001702 	andeq	r1, r0, r2, lsl #14
     1ac:	03012e24 	movweq	r2, #7716	; 0x1e24
     1b0:	3b0b3a0e 	blcc	2ce9f0 <__bss_end__+0x2c4000>
     1b4:	1119270b 	tstne	r9, fp, lsl #14
     1b8:	40061201 	andmi	r1, r6, r1, lsl #4
     1bc:	19429718 	stmdbne	r2, {r3, r4, r8, r9, sl, ip, pc}^
     1c0:	00001301 	andeq	r1, r0, r1, lsl #6
     1c4:	03000525 	movweq	r0, #1317	; 0x525
     1c8:	3b0b3a08 	blcc	2ce9f0 <__bss_end__+0x2c4000>
     1cc:	0213490b 	andseq	r4, r3, #180224	; 0x2c000
     1d0:	26000017 			; <UNDEFINED> instruction: 0x26000017
     1d4:	1331011d 	teqne	r1, #1073741831	; 0x40000007
     1d8:	06120111 			; <UNDEFINED> instruction: 0x06120111
     1dc:	0b590b58 	bleq	1642f44 <__bss_end__+0x1638554>
     1e0:	34270000 	strtcc	r0, [r7], #-0
     1e4:	02133100 	andseq	r3, r3, #0, 2
     1e8:	28000017 	stmdacs	r0, {r0, r1, r2, r4}
     1ec:	01018289 	smlabbeq	r1, r9, r2, r8
     1f0:	13310111 	teqne	r1, #1073741828	; 0x40000004
     1f4:	34290000 	strtcc	r0, [r9], #-0
     1f8:	3a0e0300 	bcc	380e00 <__bss_end__+0x376410>
     1fc:	490b3b0b 	stmdbmi	fp, {r0, r1, r3, r8, r9, fp, ip, sp}
     200:	00180213 	andseq	r0, r8, r3, lsl r2
     204:	00352a00 	eorseq	r2, r5, r0, lsl #20
     208:	00001349 	andeq	r1, r0, r9, asr #6
     20c:	0300342b 	movweq	r3, #1067	; 0x42b
     210:	3b0b3a08 	blcc	2cea38 <__bss_end__+0x2c4048>
     214:	0213490b 	andseq	r4, r3, #180224	; 0x2c000
     218:	2c000018 	stccs	0, cr0, [r0], {24}
     21c:	0e030034 	mcreq	0, 0, r0, cr3, cr4, {1}
     220:	0b3b0b3a 	bleq	ec2f10 <__bss_end__+0xeb8520>
     224:	193f1349 	ldmdbne	pc!, {r0, r3, r6, r8, r9, ip}	; <UNPREDICTABLE>
     228:	0000193c 	andeq	r1, r0, ip, lsr r9
     22c:	3f002e2d 	svccc	0x00002e2d
     230:	3a0e0319 	bcc	380e9c <__bss_end__+0x3764ac>
     234:	270b3b0b 	strcs	r3, [fp, -fp, lsl #22]
     238:	00193c19 	andseq	r3, r9, r9, lsl ip
     23c:	012e2e00 	teqeq	lr, r0, lsl #28
     240:	0e03193f 	mcreq	9, 0, r1, cr3, cr15, {1}
     244:	0b3b0b3a 	bleq	ec2f34 <__bss_end__+0xeb8544>
     248:	13491927 	movtne	r1, #39207	; 0x9927
     24c:	1301193c 	movwne	r1, #6460	; 0x193c
     250:	182f0000 	stmdane	pc!, {}	; <UNPREDICTABLE>
     254:	30000000 	andcc	r0, r0, r0
     258:	193f012e 	ldmdbne	pc!, {r1, r2, r3, r5, r8}	; <UNPREDICTABLE>
     25c:	0b3a0e03 	bleq	e83a70 <__bss_end__+0xe79080>
     260:	19270b3b 	stmdbne	r7!, {r0, r1, r3, r4, r5, r8, r9, fp}
     264:	1301193c 	movwne	r1, #6460	; 0x193c
     268:	15310000 	ldrne	r0, [r1, #-0]!
     26c:	00192701 	andseq	r2, r9, r1, lsl #14
     270:	11010000 	mrsne	r0, (UNDEF: 1)
     274:	130e2501 	movwne	r2, #58625	; 0xe501
     278:	1b0e030b 	blne	380eac <__bss_end__+0x3764bc>
     27c:	1201110e 	andne	r1, r1, #-2147483645	; 0x80000003
     280:	00171006 	andseq	r1, r7, r6
     284:	00240200 	eoreq	r0, r4, r0, lsl #4
     288:	0b3e0b0b 	bleq	f82ebc <__bss_end__+0xf784cc>
     28c:	00000803 	andeq	r0, r0, r3, lsl #16
     290:	0b002403 	bleq	92a4 <emit+0x40>
     294:	030b3e0b 	movweq	r3, #48651	; 0xbe0b
     298:	0400000e 	streq	r0, [r0], #-14
     29c:	0e030016 	mcreq	0, 0, r0, cr3, cr6, {0}
     2a0:	0b3b0b3a 	bleq	ec2f90 <__bss_end__+0xeb85a0>
     2a4:	00001349 	andeq	r1, r0, r9, asr #6
     2a8:	0b000f05 	bleq	3ec4 <__code_start__-0x413c>
     2ac:	0600000b 	streq	r0, [r0], -fp
     2b0:	0b0b000f 	bleq	2c02f4 <__bss_end__+0x2b5904>
     2b4:	00001349 	andeq	r1, r0, r9, asr #6
     2b8:	49002607 	stmdbmi	r0, {r0, r1, r2, r9, sl, sp}
     2bc:	08000013 	stmdaeq	r0, {r0, r1, r4}
     2c0:	19270115 	stmdbne	r7!, {r0, r2, r4, r8}
     2c4:	00001301 	andeq	r1, r0, r1, lsl #6
     2c8:	49000509 	stmdbmi	r0, {r0, r3, r8, sl}
     2cc:	0a000013 	beq	320 <__code_start__-0x7ce0>
     2d0:	0e03012e 	adfeqsp	f0, f3, #0.5
     2d4:	0b3b0b3a 	bleq	ec2fc4 <__bss_end__+0xeb85d4>
     2d8:	13491927 	movtne	r1, #39207	; 0x9927
     2dc:	13010b20 	movwne	r0, #6944	; 0x1b20
     2e0:	340b0000 	strcc	r0, [fp], #-0
     2e4:	3a080300 	bcc	200eec <__bss_end__+0x1f64fc>
     2e8:	490b3b0b 	stmdbmi	fp, {r0, r1, r3, r8, r9, fp, ip, sp}
     2ec:	0c000013 	stceq	0, cr0, [r0], {19}
     2f0:	08030005 	stmdaeq	r3, {r0, r2}
     2f4:	0b3b0b3a 	bleq	ec2fe4 <__bss_end__+0xeb85f4>
     2f8:	00001349 	andeq	r1, r0, r9, asr #6
     2fc:	03012e0d 	movweq	r2, #7693	; 0x1e0d
     300:	3b0b3a0e 	blcc	2ceb40 <__bss_end__+0x2c4150>
     304:	2019270b 	andscs	r2, r9, fp, lsl #14
     308:	0013010b 	andseq	r0, r3, fp, lsl #2
     30c:	00340e00 	eorseq	r0, r4, r0, lsl #28
     310:	0b3a0e03 	bleq	e83b24 <__bss_end__+0xe79134>
     314:	13490b3b 	movtne	r0, #39739	; 0x9b3b
     318:	2e0f0000 	cdpcs	0, 0, cr0, cr15, cr0, {0}
     31c:	03193f01 	tsteq	r9, #1, 30
     320:	3b0b3a0e 	blcc	2ceb60 <__bss_end__+0x2c4170>
     324:	1119270b 	tstne	r9, fp, lsl #14
     328:	40061201 	andmi	r1, r6, r1, lsl #4
     32c:	19429718 	stmdbne	r2, {r3, r4, r8, r9, sl, ip, pc}^
     330:	00001301 	andeq	r1, r0, r1, lsl #6
     334:	03000510 	movweq	r0, #1296	; 0x510
     338:	3b0b3a0e 	blcc	2ceb78 <__bss_end__+0x2c4188>
     33c:	0213490b 	andseq	r4, r3, #180224	; 0x2c000
     340:	11000017 	tstne	r0, r7, lsl r0
     344:	0e030034 	mcreq	0, 0, r0, cr3, cr4, {1}
     348:	0b3b0b3a 	bleq	ec3038 <__bss_end__+0xeb8648>
     34c:	17021349 	strne	r1, [r2, -r9, asr #6]
     350:	34120000 	ldrcc	r0, [r2], #-0
     354:	490e0300 	stmdbmi	lr, {r8, r9}
     358:	02193413 	andseq	r3, r9, #318767104	; 0x13000000
     35c:	13000018 	movwne	r0, #24
     360:	1331011d 	teqne	r1, #1073741831	; 0x40000007
     364:	06120111 			; <UNDEFINED> instruction: 0x06120111
     368:	0b590b58 	bleq	16430d0 <__bss_end__+0x16386e0>
     36c:	00001301 	andeq	r1, r0, r1, lsl #6
     370:	11010b14 	tstne	r1, r4, lsl fp
     374:	00061201 	andeq	r1, r6, r1, lsl #4
     378:	00341500 	eorseq	r1, r4, r0, lsl #10
     37c:	17021331 	smladxne	r2, r1, r3, r1
     380:	05160000 	ldreq	r0, [r6, #-0]
     384:	02133100 	andseq	r3, r3, #0, 2
     388:	17000017 	smladne	r0, r7, r0, r0
     38c:	13310005 	teqne	r1, #5
     390:	0000051c 	andeq	r0, r0, ip, lsl r5
     394:	31000518 	tstcc	r0, r8, lsl r5
     398:	000b1c13 	andeq	r1, fp, r3, lsl ip
     39c:	82891900 	addhi	r1, r9, #0, 18
     3a0:	01110001 	tsteq	r1, r1
     3a4:	00001331 	andeq	r1, r0, r1, lsr r3
     3a8:	0182891a 	orreq	r8, r2, sl, lsl r9
     3ac:	31011101 	tstcc	r1, r1, lsl #2
     3b0:	00130113 	andseq	r0, r3, r3, lsl r1
     3b4:	828a1b00 	addhi	r1, sl, #0, 22
     3b8:	18020001 	stmdane	r2, {r0}
     3bc:	00184291 	mulseq	r8, r1, r2
     3c0:	01011c00 	tsteq	r1, r0, lsl #24
     3c4:	13011349 	movwne	r1, #4937	; 0x1349
     3c8:	211d0000 	tstcs	sp, r0
     3cc:	2f134900 	svccs	0x00134900
     3d0:	1e00000b 	cdpne	0, 0, cr0, cr0, cr11, {0}
     3d4:	0e030034 	mcreq	0, 0, r0, cr3, cr4, {1}
     3d8:	19341349 	ldmdbne	r4!, {r0, r3, r6, r8, r9, ip}
     3dc:	00000e1c 	andeq	r0, r0, ip, lsl lr
     3e0:	0300051f 	movweq	r0, #1311	; 0x51f
     3e4:	3b0b3a08 	blcc	2cec0c <__bss_end__+0x2c421c>
     3e8:	0213490b 	andseq	r4, r3, #180224	; 0x2c000
     3ec:	20000017 	andcs	r0, r0, r7, lsl r0
     3f0:	0e030034 	mcreq	0, 0, r0, cr3, cr4, {1}
     3f4:	0b3b0b3a 	bleq	ec30e4 <__bss_end__+0xeb86f4>
     3f8:	18021349 	stmdane	r2, {r0, r3, r6, r8, r9, ip}
     3fc:	34210000 	strtcc	r0, [r1], #-0
     400:	00133100 	andseq	r3, r3, r0, lsl #2
     404:	011d2200 	tsteq	sp, r0, lsl #4
     408:	01111331 	tsteq	r1, r1, lsr r3
     40c:	0b580612 	bleq	1601c5c <__bss_end__+0x15f726c>
     410:	00000b59 	andeq	r0, r0, r9, asr fp
     414:	31003423 	tstcc	r0, r3, lsr #8
     418:	00180213 	andseq	r0, r8, r3, lsl r2
     41c:	82892400 	addhi	r2, r9, #0, 8
     420:	01110101 	tsteq	r1, r1, lsl #2
     424:	34250000 	strtcc	r0, [r5], #-0
     428:	3a080300 	bcc	201030 <__bss_end__+0x1f6640>
     42c:	490b3b0b 	stmdbmi	fp, {r0, r1, r3, r8, r9, fp, ip, sp}
     430:	00051c13 	andeq	r1, r5, r3, lsl ip
     434:	00052600 	andeq	r2, r5, r0, lsl #12
     438:	0b3a0e03 	bleq	e83c4c <__bss_end__+0xe7925c>
     43c:	13490b3b 	movtne	r0, #39739	; 0x9b3b
     440:	00001802 	andeq	r1, r0, r2, lsl #16
     444:	31000527 	tstcc	r0, r7, lsr #10
     448:	00180213 	andseq	r0, r8, r3, lsl r2
     44c:	00052800 	andeq	r2, r5, r0, lsl #16
     450:	0b3a0803 	bleq	e82464 <__bss_end__+0xe77a74>
     454:	13490b3b 	movtne	r0, #39739	; 0x9b3b
     458:	00001802 	andeq	r1, r0, r2, lsl #16
     45c:	31000529 	tstcc	r0, r9, lsr #10
     460:	00061c13 	andeq	r1, r6, r3, lsl ip
     464:	00342a00 	eorseq	r2, r4, r0, lsl #20
     468:	0b3a0e03 	bleq	e83c7c <__bss_end__+0xe7928c>
     46c:	13490b3b 	movtne	r0, #39739	; 0x9b3b
     470:	0000061c 	andeq	r0, r0, ip, lsl r6
     474:	31011d2b 	tstcc	r1, fp, lsr #26
     478:	12011113 	andne	r1, r1, #-1073741820	; 0xc0000004
     47c:	590b5806 	stmdbpl	fp, {r1, r2, fp, ip, lr}
     480:	2c000005 	stccs	0, cr0, [r0], {5}
     484:	193f012e 	ldmdbne	pc!, {r1, r2, r3, r5, r8}	; <UNPREDICTABLE>
     488:	0b3a0e03 	bleq	e83c9c <__bss_end__+0xe792ac>
     48c:	1927053b 	stmdbne	r7!, {r0, r1, r3, r4, r5, r8, sl}
     490:	01111349 	tsteq	r1, r9, asr #6
     494:	18400612 	stmdane	r0, {r1, r4, r9, sl}^
     498:	01194297 			; <UNDEFINED> instruction: 0x01194297
     49c:	2d000013 	stccs	0, cr0, [r0, #-76]	; 0xffffffb4
     4a0:	08030005 	stmdaeq	r3, {r0, r2}
     4a4:	053b0b3a 	ldreq	r0, [fp, #-2874]!	; 0xb3a
     4a8:	17021349 	strne	r1, [r2, -r9, asr #6]
     4ac:	342e0000 	strtcc	r0, [lr], #-0
     4b0:	3a0e0300 	bcc	3810b8 <__bss_end__+0x3766c8>
     4b4:	49053b0b 	stmdbmi	r5, {r0, r1, r3, r8, r9, fp, ip, sp}
     4b8:	00170213 	andseq	r0, r7, r3, lsl r2
     4bc:	82892f00 	addhi	r2, r9, #0, 30
     4c0:	01110101 	tsteq	r1, r1, lsl #2
     4c4:	00001331 	andeq	r1, r0, r1, lsr r3
     4c8:	03003430 	movweq	r3, #1072	; 0x430
     4cc:	3b0b3a0e 	blcc	2ced0c <__bss_end__+0x2c431c>
     4d0:	3f13490b 	svccc	0x0013490b
     4d4:	00180219 	andseq	r0, r8, r9, lsl r2
     4d8:	002e3100 	eoreq	r3, lr, r0, lsl #2
     4dc:	0e03193f 	mcreq	9, 0, r1, cr3, cr15, {1}
     4e0:	0b3b0b3a 	bleq	ec31d0 <__bss_end__+0xeb87e0>
     4e4:	193c1927 	ldmdbne	ip!, {r0, r1, r2, r5, r8, fp, ip}
     4e8:	2e320000 	cdpcs	0, 3, cr0, cr2, cr0, {0}
     4ec:	03193f01 	tsteq	r9, #1, 30
     4f0:	3b0b3a0e 	blcc	2ced30 <__bss_end__+0x2c4340>
     4f4:	4919270b 	ldmdbmi	r9, {r0, r1, r3, r8, r9, sl, sp}
     4f8:	01193c13 	tsteq	r9, r3, lsl ip
     4fc:	33000013 	movwcc	r0, #19
     500:	00000018 	andeq	r0, r0, r8, lsl r0
     504:	01110100 	tsteq	r1, r0, lsl #2
     508:	0b130e25 	bleq	4c3da4 <__bss_end__+0x4b93b4>
     50c:	0e1b0e03 	cdpeq	14, 1, cr0, cr11, cr3, {0}
     510:	06120111 			; <UNDEFINED> instruction: 0x06120111
     514:	00001710 	andeq	r1, r0, r0, lsl r7
     518:	0b002402 	bleq	9528 <va_printk+0xa0>
     51c:	030b3e0b 	movweq	r3, #48651	; 0xbe0b
     520:	03000008 	movweq	r0, #8
     524:	0b0b0024 	bleq	2c05bc <__bss_end__+0x2b5bcc>
     528:	0e030b3e 	vmoveq.16	d3[0], r0
     52c:	16040000 	strne	r0, [r4], -r0
     530:	3a0e0300 	bcc	381138 <__bss_end__+0x376748>
     534:	490b3b0b 	stmdbmi	fp, {r0, r1, r3, r8, r9, fp, ip, sp}
     538:	05000013 	streq	r0, [r0, #-19]
     53c:	0b0b000f 	bleq	2c0580 <__bss_end__+0x2b5b90>
     540:	0f060000 	svceq	0x00060000
     544:	490b0b00 	stmdbmi	fp, {r8, r9, fp}
     548:	07000013 	smladeq	r0, r3, r0, r0
     54c:	13490026 	movtne	r0, #36902	; 0x9026
     550:	15080000 	strne	r0, [r8, #-0]
     554:	01192701 	tsteq	r9, r1, lsl #14
     558:	09000013 	stmdbeq	r0, {r0, r1, r4}
     55c:	13490005 	movtne	r0, #36869	; 0x9005
     560:	130a0000 	movwne	r0, #40960	; 0xa000
     564:	0b0e0301 	bleq	381170 <__bss_end__+0x376780>
     568:	3b0b3a0b 	blcc	2ced9c <__bss_end__+0x2c43ac>
     56c:	0013010b 	andseq	r0, r3, fp, lsl #2
     570:	000d0b00 	andeq	r0, sp, r0, lsl #22
     574:	0b3a0e03 	bleq	e83d88 <__bss_end__+0xe79398>
     578:	13490b3b 	movtne	r0, #39739	; 0x9b3b
     57c:	00000b38 	andeq	r0, r0, r8, lsr fp
     580:	03000d0c 	movweq	r0, #3340	; 0xd0c
     584:	3b0b3a08 	blcc	2cedac <__bss_end__+0x2c43bc>
     588:	3813490b 	ldmdacc	r3, {r0, r1, r3, r8, fp, lr}
     58c:	0d00000b 	stceq	0, cr0, [r0, #-44]	; 0xffffffd4
     590:	00000035 	andeq	r0, r0, r5, lsr r0
     594:	2701150e 	strcs	r1, [r1, -lr, lsl #10]
     598:	01134919 	tsteq	r3, r9, lsl r9
     59c:	0f000013 	svceq	0x00000013
     5a0:	13490035 	movtne	r0, #36917	; 0x9035
     5a4:	2e100000 	cdpcs	0, 1, cr0, cr0, cr0, {0}
     5a8:	3a0e0301 	bcc	3811b4 <__bss_end__+0x3767c4>
     5ac:	270b3b0b 	strcs	r3, [fp, -fp, lsl #22]
     5b0:	20134919 	andscs	r4, r3, r9, lsl r9
     5b4:	0013010b 	andseq	r0, r3, fp, lsl #2
     5b8:	00341100 	eorseq	r1, r4, r0, lsl #2
     5bc:	0b3a0803 	bleq	e825d0 <__bss_end__+0xe77be0>
     5c0:	13490b3b 	movtne	r0, #39739	; 0x9b3b
     5c4:	05120000 	ldreq	r0, [r2, #-0]
     5c8:	3a0e0300 	bcc	3811d0 <__bss_end__+0x3767e0>
     5cc:	490b3b0b 	stmdbmi	fp, {r0, r1, r3, r8, r9, fp, ip, sp}
     5d0:	13000013 	movwne	r0, #19
     5d4:	0e030034 	mcreq	0, 0, r0, cr3, cr4, {1}
     5d8:	0b3b0b3a 	bleq	ec32c8 <__bss_end__+0xeb88d8>
     5dc:	00001349 	andeq	r1, r0, r9, asr #6
     5e0:	03012e14 	movweq	r2, #7700	; 0x1e14
     5e4:	3b0b3a0e 	blcc	2cee24 <__bss_end__+0x2c4434>
     5e8:	1119270b 	tstne	r9, fp, lsl #14
     5ec:	40061201 	andmi	r1, r6, r1, lsl #4
     5f0:	19429718 	stmdbne	r2, {r3, r4, r8, r9, sl, ip, pc}^
     5f4:	00001301 	andeq	r1, r0, r1, lsl #6
     5f8:	03000515 	movweq	r0, #1301	; 0x515
     5fc:	3b0b3a0e 	blcc	2cee3c <__bss_end__+0x2c444c>
     600:	0213490b 	andseq	r4, r3, #180224	; 0x2c000
     604:	16000017 			; <UNDEFINED> instruction: 0x16000017
     608:	08030005 	stmdaeq	r3, {r0, r2}
     60c:	0b3b0b3a 	bleq	ec32fc <__bss_end__+0xeb890c>
     610:	17021349 	strne	r1, [r2, -r9, asr #6]
     614:	34170000 	ldrcc	r0, [r7], #-0
     618:	490e0300 	stmdbmi	lr, {r8, r9}
     61c:	02193413 	andseq	r3, r9, #318767104	; 0x13000000
     620:	18000018 	stmdane	r0, {r3, r4}
     624:	08030034 	stmdaeq	r3, {r2, r4, r5}
     628:	0b3b0b3a 	bleq	ec3318 <__bss_end__+0xeb8928>
     62c:	17021349 	strne	r1, [r2, -r9, asr #6]
     630:	1d190000 	ldcne	0, cr0, [r9, #-0]
     634:	11133101 	tstne	r3, r1, lsl #2
     638:	58061201 	stmdapl	r6, {r0, r9, ip}
     63c:	010b590b 	tsteq	fp, fp, lsl #18
     640:	1a000013 	bne	694 <__code_start__-0x796c>
     644:	0111010b 	tsteq	r1, fp, lsl #2
     648:	00000612 	andeq	r0, r0, r2, lsl r6
     64c:	3100341b 	tstcc	r0, fp, lsl r4
     650:	1c000013 	stcne	0, cr0, [r0], {19}
     654:	1331011d 	teqne	r1, #1073741831	; 0x40000007
     658:	06120111 			; <UNDEFINED> instruction: 0x06120111
     65c:	0b590b58 	bleq	16433c4 <__bss_end__+0x16389d4>
     660:	341d0000 	ldrcc	r0, [sp], #-0
     664:	02133100 	andseq	r3, r3, #0, 2
     668:	1e000017 	mcrne	0, 0, r0, cr0, cr7, {0}
     66c:	01018289 	smlabbeq	r1, r9, r2, r8
     670:	13310111 	teqne	r1, #1073741828	; 0x40000004
     674:	00001301 	andeq	r1, r0, r1, lsl #6
     678:	01828a1f 	orreq	r8, r2, pc, lsl sl
     67c:	91180200 	tstls	r8, r0, lsl #4
     680:	00001842 	andeq	r1, r0, r2, asr #16
     684:	01828920 	orreq	r8, r2, r0, lsr #18
     688:	31011100 	mrscc	r1, (UNDEF: 17)
     68c:	21000013 	tstcs	r0, r3, lsl r0
     690:	01018289 	smlabbeq	r1, r9, r2, r8
     694:	13010111 	movwne	r0, #4369	; 0x1111
     698:	89220000 	stmdbhi	r2!, {}	; <UNPREDICTABLE>
     69c:	11010182 	smlabbne	r1, r2, r1, r0
     6a0:	00133101 	andseq	r3, r3, r1, lsl #2
     6a4:	01012300 	mrseq	r2, SP_irq
     6a8:	13011349 	movwne	r1, #4937	; 0x1349
     6ac:	21240000 	teqcs	r4, r0
     6b0:	2f134900 	svccs	0x00134900
     6b4:	2500000b 	strcs	r0, [r0, #-11]
     6b8:	0e030034 	mcreq	0, 0, r0, cr3, cr4, {1}
     6bc:	19341349 	ldmdbne	r4!, {r0, r3, r6, r8, r9, ip}
     6c0:	00000e1c 	andeq	r0, r0, ip, lsl lr
     6c4:	03000526 	movweq	r0, #1318	; 0x526
     6c8:	3b0b3a08 	blcc	2ceef0 <__bss_end__+0x2c4500>
     6cc:	0013490b 	andseq	r4, r3, fp, lsl #18
     6d0:	012e2700 	teqeq	lr, r0, lsl #14
     6d4:	0b3a0e03 	bleq	e83ee8 <__bss_end__+0xe794f8>
     6d8:	19270b3b 	stmdbne	r7!, {r0, r1, r3, r4, r5, r8, r9, fp}
     6dc:	01111349 	tsteq	r1, r9, asr #6
     6e0:	18400612 	stmdane	r0, {r1, r4, r9, sl}^
     6e4:	01194297 			; <UNDEFINED> instruction: 0x01194297
     6e8:	28000013 	stmdacs	r0, {r0, r1, r4}
     6ec:	0e030034 	mcreq	0, 0, r0, cr3, cr4, {1}
     6f0:	0b3b0b3a 	bleq	ec33e0 <__bss_end__+0xeb89f0>
     6f4:	18021349 	stmdane	r2, {r0, r3, r6, r8, r9, ip}
     6f8:	05290000 	streq	r0, [r9, #-0]!
     6fc:	1c133100 	ldfnes	f3, [r3], {-0}
     700:	2a00000b 	bcs	734 <__code_start__-0x78cc>
     704:	13310005 	teqne	r1, #5
     708:	00001702 	andeq	r1, r0, r2, lsl #14
     70c:	3100342b 	tstcc	r0, fp, lsr #8
     710:	00180213 	andseq	r0, r8, r3, lsl r2
     714:	00342c00 	eorseq	r2, r4, r0, lsl #24
     718:	0b1c1331 	bleq	7053e4 <__bss_end__+0x6fa9f4>
     71c:	052d0000 	streq	r0, [sp, #-0]!
     720:	00133100 	andseq	r3, r3, r0, lsl #2
     724:	00052e00 	andeq	r2, r5, r0, lsl #28
     728:	0b3a0803 	bleq	e8273c <__bss_end__+0xe77d4c>
     72c:	13490b3b 	movtne	r0, #39739	; 0x9b3b
     730:	00001802 	andeq	r1, r0, r2, lsl #16
     734:	3f012e2f 	svccc	0x00012e2f
     738:	3a0e0319 	bcc	3813a4 <__bss_end__+0x3769b4>
     73c:	270b3b0b 	strcs	r3, [fp, -fp, lsl #22]
     740:	11134919 	tstne	r3, r9, lsl r9
     744:	40061201 	andmi	r1, r6, r1, lsl #4
     748:	19429718 	stmdbne	r2, {r3, r4, r8, r9, sl, ip, pc}^
     74c:	00001301 	andeq	r1, r0, r1, lsl #6
     750:	03003430 	movweq	r3, #1072	; 0x430
     754:	3b0b3a0e 	blcc	2cef94 <__bss_end__+0x2c45a4>
     758:	3f13490b 	svccc	0x0013490b
     75c:	00193c19 	andseq	r3, r9, r9, lsl ip
     760:	012e3100 	teqeq	lr, r0, lsl #2
     764:	0e03193f 	mcreq	9, 0, r1, cr3, cr15, {1}
     768:	0b3b0b3a 	bleq	ec3458 <__bss_end__+0xeb8a68>
     76c:	13491927 	movtne	r1, #39207	; 0x9927
     770:	1301193c 	movwne	r1, #6460	; 0x193c
     774:	18320000 	ldmdane	r2!, {}	; <UNPREDICTABLE>
     778:	33000000 	movwcc	r0, #0
     77c:	193f002e 	ldmdbne	pc!, {r1, r2, r3, r5}	; <UNPREDICTABLE>
     780:	0b3a0e03 	bleq	e83f94 <__bss_end__+0xe795a4>
     784:	19270b3b 	stmdbne	r7!, {r0, r1, r3, r4, r5, r8, r9, fp}
     788:	0000193c 	andeq	r1, r0, ip, lsr r9
     78c:	3f012e34 	svccc	0x00012e34
     790:	3a0e0319 	bcc	3813fc <__bss_end__+0x376a0c>
     794:	270b3b0b 	strcs	r3, [fp, -fp, lsl #22]
     798:	01193c19 	tsteq	r9, r9, lsl ip
     79c:	00000013 	andeq	r0, r0, r3, lsl r0
     7a0:	25011101 	strcs	r1, [r1, #-257]	; 0x101
     7a4:	030b130e 	movweq	r1, #45838	; 0xb30e
     7a8:	110e1b0e 	tstne	lr, lr, lsl #22
     7ac:	10061201 	andne	r1, r6, r1, lsl #4
     7b0:	02000017 	andeq	r0, r0, #23
     7b4:	0e030016 	mcreq	0, 0, r0, cr3, cr6, {0}
     7b8:	0b3b0b3a 	bleq	ec34a8 <__bss_end__+0xeb8ab8>
     7bc:	00001349 	andeq	r1, r0, r9, asr #6
     7c0:	03011303 	movweq	r1, #4867	; 0x1303
     7c4:	3a0b0b0e 	bcc	2c3404 <__bss_end__+0x2b8a14>
     7c8:	010b3b0b 	tsteq	fp, fp, lsl #22
     7cc:	04000013 	streq	r0, [r0], #-19
     7d0:	0e03000d 	cdpeq	0, 0, cr0, cr3, cr13, {0}
     7d4:	0b381349 	bleq	e05500 <__bss_end__+0xdfab10>
     7d8:	00001934 	andeq	r1, r0, r4, lsr r9
     7dc:	0b000f05 	bleq	43f8 <__code_start__-0x3c08>
     7e0:	0600000b 	streq	r0, [r0], -fp
     7e4:	0b0b0024 	bleq	2c087c <__bss_end__+0x2b5e8c>
     7e8:	08030b3e 	stmdaeq	r3, {r1, r2, r3, r4, r5, r8, r9, fp}
     7ec:	24070000 	strcs	r0, [r7], #-0
     7f0:	3e0b0b00 	vmlacc.f64	d0, d11, d0
     7f4:	000e030b 	andeq	r0, lr, fp, lsl #6
     7f8:	000f0800 	andeq	r0, pc, r0, lsl #16
     7fc:	13490b0b 	movtne	r0, #39691	; 0x9b0b
     800:	26090000 	strcs	r0, [r9], -r0
     804:	00134900 	andseq	r4, r3, r0, lsl #18
     808:	012e0a00 	teqeq	lr, r0, lsl #20
     80c:	0e03193f 	mcreq	9, 0, r1, cr3, cr15, {1}
     810:	0b3b0b3a 	bleq	ec3500 <__bss_end__+0xeb8b10>
     814:	13491927 	movtne	r1, #39207	; 0x9927
     818:	06120111 			; <UNDEFINED> instruction: 0x06120111
     81c:	42971840 	addsmi	r1, r7, #64, 16	; 0x400000
     820:	00130119 	andseq	r0, r3, r9, lsl r1
     824:	00050b00 	andeq	r0, r5, r0, lsl #22
     828:	0b3a0803 	bleq	e8283c <__bss_end__+0xe77e4c>
     82c:	13490b3b 	movtne	r0, #39739	; 0x9b3b
     830:	00001802 	andeq	r1, r0, r2, lsl #16
     834:	0000180c 	andeq	r1, r0, ip, lsl #16
     838:	00340d00 	eorseq	r0, r4, r0, lsl #26
     83c:	0b3a0803 	bleq	e82850 <__bss_end__+0xe77e60>
     840:	13490b3b 	movtne	r0, #39739	; 0x9b3b
     844:	00001802 	andeq	r1, r0, r2, lsl #16
     848:	0300340e 	movweq	r3, #1038	; 0x40e
     84c:	3b0b3a0e 	blcc	2cf08c <__bss_end__+0x2c469c>
     850:	0213490b 	andseq	r4, r3, #180224	; 0x2c000
     854:	0f000018 	svceq	0x00000018
     858:	08030034 	stmdaeq	r3, {r2, r4, r5}
     85c:	0b3b0b3a 	bleq	ec354c <__bss_end__+0xeb8b5c>
     860:	17021349 	strne	r1, [r2, -r9, asr #6]
     864:	89100000 	ldmdbhi	r0, {}	; <UNPREDICTABLE>
     868:	11010182 	smlabbne	r1, r2, r1, r0
     86c:	01133101 	tsteq	r3, r1, lsl #2
     870:	11000013 	tstne	r0, r3, lsl r0
     874:	0001828a 	andeq	r8, r1, sl, lsl #5
     878:	42911802 	addsmi	r1, r1, #131072	; 0x20000
     87c:	12000018 	andne	r0, r0, #24
     880:	01018289 	smlabbeq	r1, r9, r2, r8
     884:	00000111 	andeq	r0, r0, r1, lsl r1
     888:	49010113 	stmdbmi	r1, {r0, r1, r4, r8}
     88c:	00130113 	andseq	r0, r3, r3, lsl r1
     890:	00211400 	eoreq	r1, r1, r0, lsl #8
     894:	052f1349 	streq	r1, [pc, #-841]!	; 553 <__code_start__-0x7aad>
     898:	15150000 	ldrne	r0, [r5, #-0]
     89c:	49192701 	ldmdbmi	r9, {r0, r8, r9, sl, sp}
     8a0:	00130113 	andseq	r0, r3, r3, lsl r1
     8a4:	00051600 	andeq	r1, r5, r0, lsl #12
     8a8:	00001349 	andeq	r1, r0, r9, asr #6
     8ac:	03003417 	movweq	r3, #1047	; 0x417
     8b0:	3b0b3a0e 	blcc	2cf0f0 <__bss_end__+0x2c4700>
     8b4:	3f13490b 	svccc	0x0013490b
     8b8:	00193c19 	andseq	r3, r9, r9, lsl ip
     8bc:	012e1800 	teqeq	lr, r0, lsl #16
     8c0:	0e03193f 	mcreq	9, 0, r1, cr3, cr15, {1}
     8c4:	0b3b0b3a 	bleq	ec35b4 <__bss_end__+0xeb8bc4>
     8c8:	13491927 	movtne	r1, #39207	; 0x9927
     8cc:	0000193c 	andeq	r1, r0, ip, lsr r9
     8d0:	01110100 	tsteq	r1, r0, lsl #2
     8d4:	0b130e25 	bleq	4c4170 <__bss_end__+0x4b9780>
     8d8:	0e1b0e03 	cdpeq	14, 1, cr0, cr11, cr3, {0}
     8dc:	06120111 			; <UNDEFINED> instruction: 0x06120111
     8e0:	00001710 	andeq	r1, r0, r0, lsl r7
     8e4:	0b002402 	bleq	98f4 <int_init+0x40>
     8e8:	030b3e0b 	movweq	r3, #48651	; 0xbe0b
     8ec:	03000008 	movweq	r0, #8
     8f0:	0b0b0024 	bleq	2c0988 <__bss_end__+0x2b5f98>
     8f4:	0e030b3e 	vmoveq.16	d3[0], r0
     8f8:	2e040000 	cdpcs	0, 0, cr0, cr4, cr0, {0}
     8fc:	3a0e0301 	bcc	381508 <__bss_end__+0x376b18>
     900:	270b3b0b 	strcs	r3, [fp, -fp, lsl #22]
     904:	11134919 	tstne	r3, r9, lsl r9
     908:	40061201 	andmi	r1, r6, r1, lsl #4
     90c:	19429718 	stmdbne	r2, {r3, r4, r8, r9, sl, ip, pc}^
     910:	00001301 	andeq	r1, r0, r1, lsl #6
     914:	03000505 	movweq	r0, #1285	; 0x505
     918:	3b0b3a08 	blcc	2cf140 <__bss_end__+0x2c4750>
     91c:	0213490b 	andseq	r4, r3, #180224	; 0x2c000
     920:	06000017 			; <UNDEFINED> instruction: 0x06000017
     924:	01018289 	smlabbeq	r1, r9, r2, r8
     928:	13310111 	teqne	r1, #1073741828	; 0x40000004
     92c:	8a070000 	bhi	1c0934 <__bss_end__+0x1b5f44>
     930:	02000182 	andeq	r0, r0, #-2147483616	; 0x80000020
     934:	18429118 	stmdane	r2, {r3, r4, r8, ip, pc}^
     938:	2e080000 	cdpcs	0, 0, cr0, cr8, cr0, {0}
     93c:	03193f00 	tsteq	r9, #0, 30
     940:	3b0b3a0e 	blcc	2cf180 <__bss_end__+0x2c4790>
     944:	1119270b 	tstne	r9, fp, lsl #14
     948:	40061201 	andmi	r1, r6, r1, lsl #4
     94c:	19429718 	stmdbne	r2, {r3, r4, r8, r9, sl, ip, pc}^
     950:	2e090000 	cdpcs	0, 0, cr0, cr9, cr0, {0}
     954:	03193f01 	tsteq	r9, #1, 30
     958:	3b0b3a0e 	blcc	2cf198 <__bss_end__+0x2c47a8>
     95c:	1119270b 	tstne	r9, fp, lsl #14
     960:	40061201 	andmi	r1, r6, r1, lsl #4
     964:	19429718 	stmdbne	r2, {r3, r4, r8, r9, sl, ip, pc}^
     968:	00001301 	andeq	r1, r0, r1, lsl #6
     96c:	0300050a 	movweq	r0, #1290	; 0x50a
     970:	3b0b3a08 	blcc	2cf198 <__bss_end__+0x2c47a8>
     974:	0213490b 	andseq	r4, r3, #180224	; 0x2c000
     978:	0b000018 	bleq	9e0 <__code_start__-0x7620>
     97c:	19270115 	stmdbne	r7!, {r0, r2, r4, r8}
     980:	13011349 	movwne	r1, #4937	; 0x1349
     984:	050c0000 	streq	r0, [ip, #-0]
     988:	00134900 	andseq	r4, r3, r0, lsl #18
     98c:	000f0d00 	andeq	r0, pc, r0, lsl #26
     990:	13490b0b 	movtne	r0, #39691	; 0x9b0b
     994:	340e0000 	strcc	r0, [lr], #-0
     998:	3a0e0300 	bcc	3815a0 <__bss_end__+0x376bb0>
     99c:	490b3b0b 	stmdbmi	fp, {r0, r1, r3, r8, r9, fp, ip, sp}
     9a0:	02193f13 	andseq	r3, r9, #19, 30	; 0x4c
     9a4:	0f000018 	svceq	0x00000018
     9a8:	193f012e 	ldmdbne	pc!, {r1, r2, r3, r5, r8}	; <UNPREDICTABLE>
     9ac:	0b3a0e03 	bleq	e841c0 <__bss_end__+0xe797d0>
     9b0:	19270b3b 	stmdbne	r7!, {r0, r1, r3, r4, r5, r8, r9, fp}
     9b4:	0000193c 	andeq	r1, r0, ip, lsr r9
     9b8:	01110100 	tsteq	r1, r0, lsl #2
     9bc:	0b130e25 	bleq	4c4258 <__bss_end__+0x4b9868>
     9c0:	0e1b0e03 	cdpeq	14, 1, cr0, cr11, cr3, {0}
     9c4:	06120111 			; <UNDEFINED> instruction: 0x06120111
     9c8:	00001710 	andeq	r1, r0, r0, lsl r7
     9cc:	0b002402 	bleq	99dc <timer_get_usec+0x18>
     9d0:	030b3e0b 	movweq	r3, #48651	; 0xbe0b
     9d4:	03000008 	movweq	r0, #8
     9d8:	0b0b0024 	bleq	2c0a70 <__bss_end__+0x2b6080>
     9dc:	0e030b3e 	vmoveq.16	d3[0], r0
     9e0:	0f040000 	svceq	0x00040000
     9e4:	490b0b00 	stmdbmi	fp, {r8, r9, fp}
     9e8:	05000013 	streq	r0, [r0, #-19]
     9ec:	13490026 	movtne	r0, #36902	; 0x9026
     9f0:	2e060000 	cdpcs	0, 0, cr0, cr6, cr0, {0}
     9f4:	03193f01 	tsteq	r9, #1, 30
     9f8:	3b0b3a0e 	blcc	2cf238 <__bss_end__+0x2c4848>
     9fc:	4919270b 	ldmdbmi	r9, {r0, r1, r3, r8, r9, sl, sp}
     a00:	12011113 	andne	r1, r1, #-1073741820	; 0xc0000004
     a04:	96184006 	ldrls	r4, [r8], -r6
     a08:	13011942 	movwne	r1, #6466	; 0x1942
     a0c:	05070000 	streq	r0, [r7, #-0]
     a10:	3a080300 	bcc	201618 <__bss_end__+0x1f6c28>
     a14:	490b3b0b 	stmdbmi	fp, {r0, r1, r3, r8, r9, fp, ip, sp}
     a18:	00170213 	andseq	r0, r7, r3, lsl r2
     a1c:	01150800 	tsteq	r5, r0, lsl #16
     a20:	13491927 	movtne	r1, #39207	; 0x9927
     a24:	00001301 	andeq	r1, r0, r1, lsl #6
     a28:	49000509 	stmdbmi	r0, {r0, r3, r8, sl}
     a2c:	0a000013 	beq	a80 <__code_start__-0x7580>
     a30:	0e030034 	mcreq	0, 0, r0, cr3, cr4, {1}
     a34:	0b3b0b3a 	bleq	ec3724 <__bss_end__+0xeb8d34>
     a38:	193f1349 	ldmdbne	pc!, {r0, r3, r6, r8, r9, ip}	; <UNPREDICTABLE>
     a3c:	0000193c 	andeq	r1, r0, ip, lsr r9
     a40:	0300340b 	movweq	r3, #1035	; 0x40b
     a44:	3b0b3a0e 	blcc	2cf284 <__bss_end__+0x2c4894>
     a48:	3f13490b 	svccc	0x0013490b
     a4c:	00180219 	andseq	r0, r8, r9, lsl r2
     a50:	11010000 	mrsne	r0, (UNDEF: 1)
     a54:	130e2501 	movwne	r2, #58625	; 0xe501
     a58:	1b0e030b 	blne	38168c <__bss_end__+0x376c9c>
     a5c:	1201110e 	andne	r1, r1, #-2147483645	; 0x80000003
     a60:	00171006 	andseq	r1, r7, r6
     a64:	00240200 	eoreq	r0, r4, r0, lsl #4
     a68:	0b3e0b0b 	bleq	f8369c <__bss_end__+0xf78cac>
     a6c:	00000803 	andeq	r0, r0, r3, lsl #16
     a70:	0b002403 	bleq	9a84 <GETPC>
     a74:	030b3e0b 	movweq	r3, #48651	; 0xbe0b
     a78:	0400000e 	streq	r0, [r0], #-14
     a7c:	0b0b000f 	bleq	2c0ac0 <__bss_end__+0x2b60d0>
     a80:	0f050000 	svceq	0x00050000
     a84:	490b0b00 	stmdbmi	fp, {r8, r9, fp}
     a88:	06000013 			; <UNDEFINED> instruction: 0x06000013
     a8c:	13490026 	movtne	r0, #36902	; 0x9026
     a90:	16070000 	strne	r0, [r7], -r0
     a94:	3a0e0300 	bcc	38169c <__bss_end__+0x376cac>
     a98:	490b3b0b 	stmdbmi	fp, {r0, r1, r3, r8, r9, fp, ip, sp}
     a9c:	08000013 	stmdaeq	r0, {r0, r1, r4}
     aa0:	0e030113 	mcreq	1, 0, r0, cr3, cr3, {0}
     aa4:	0b3a0b0b 	bleq	e836d8 <__bss_end__+0xe78ce8>
     aa8:	13010b3b 	movwne	r0, #6971	; 0x1b3b
     aac:	0d090000 	stceq	0, cr0, [r9, #-0]
     ab0:	490e0300 	stmdbmi	lr, {r8, r9}
     ab4:	340b3813 	strcc	r3, [fp], #-2067	; 0x813
     ab8:	0a000019 	beq	b24 <__code_start__-0x74dc>
     abc:	0e03012e 	adfeqsp	f0, f3, #0.5
     ac0:	0b3b0b3a 	bleq	ec37b0 <__bss_end__+0xeb8dc0>
     ac4:	13491927 	movtne	r1, #39207	; 0x9927
     ac8:	06120111 			; <UNDEFINED> instruction: 0x06120111
     acc:	42971840 	addsmi	r1, r7, #64, 16	; 0x400000
     ad0:	00130119 	andseq	r0, r3, r9, lsl r1
     ad4:	00050b00 	andeq	r0, r5, r0, lsl #22
     ad8:	0b3a0803 	bleq	e82aec <__bss_end__+0xe780fc>
     adc:	13490b3b 	movtne	r0, #39739	; 0x9b3b
     ae0:	00001702 	andeq	r1, r0, r2, lsl #14
     ae4:	03012e0c 	movweq	r2, #7692	; 0x1e0c
     ae8:	3b0b3a08 	blcc	2cf310 <__bss_end__+0x2c4920>
     aec:	4919270b 	ldmdbmi	r9, {r0, r1, r3, r8, r9, sl, sp}
     af0:	12011113 	andne	r1, r1, #-1073741820	; 0xc0000004
     af4:	97184006 	ldrls	r4, [r8, -r6]
     af8:	13011942 	movwne	r1, #6466	; 0x1942
     afc:	050d0000 	streq	r0, [sp, #-0]
     b00:	3a0e0300 	bcc	381708 <__bss_end__+0x376d18>
     b04:	490b3b0b 	stmdbmi	fp, {r0, r1, r3, r8, r9, fp, ip, sp}
     b08:	00170213 	andseq	r0, r7, r3, lsl r2
     b0c:	00050e00 	andeq	r0, r5, r0, lsl #28
     b10:	0b3a0e03 	bleq	e84324 <__bss_end__+0xe79934>
     b14:	13490b3b 	movtne	r0, #39739	; 0x9b3b
     b18:	00001802 	andeq	r1, r0, r2, lsl #16
     b1c:	0300340f 	movweq	r3, #1039	; 0x40f
     b20:	3b0b3a08 	blcc	2cf348 <__bss_end__+0x2c4958>
     b24:	0213490b 	andseq	r4, r3, #180224	; 0x2c000
     b28:	10000018 	andne	r0, r0, r8, lsl r0
     b2c:	08030034 	stmdaeq	r3, {r2, r4, r5}
     b30:	0b3b0b3a 	bleq	ec3820 <__bss_end__+0xeb8e30>
     b34:	17021349 	strne	r1, [r2, -r9, asr #6]
     b38:	34110000 	ldrcc	r0, [r1], #-0
     b3c:	490e0300 	stmdbmi	lr, {r8, r9}
     b40:	02193413 	andseq	r3, r9, #318767104	; 0x13000000
     b44:	12000018 	andne	r0, r0, #24
     b48:	0111010b 	tsteq	r1, fp, lsl #2
     b4c:	13010612 	movwne	r0, #5650	; 0x1612
     b50:	34130000 	ldrcc	r0, [r3], #-0
     b54:	3a0e0300 	bcc	38175c <__bss_end__+0x376d6c>
     b58:	490b3b0b 	stmdbmi	fp, {r0, r1, r3, r8, r9, fp, ip, sp}
     b5c:	00170213 	andseq	r0, r7, r3, lsl r2
     b60:	82891400 	addhi	r1, r9, #0, 8
     b64:	01110001 	tsteq	r1, r1
     b68:	00001331 	andeq	r1, r0, r1, lsr r3
     b6c:	01828915 	orreq	r8, r2, r5, lsl r9
     b70:	31011101 	tstcc	r1, r1, lsl #2
     b74:	00130113 	andseq	r0, r3, r3, lsl r1
     b78:	828a1600 	addhi	r1, sl, #0, 12
     b7c:	18020001 	stmdane	r2, {r0}
     b80:	00184291 	mulseq	r8, r1, r2
     b84:	82891700 	addhi	r1, r9, #0, 14
     b88:	01110101 	tsteq	r1, r1, lsl #2
     b8c:	00001331 	andeq	r1, r0, r1, lsr r3
     b90:	49010118 	stmdbmi	r1, {r3, r4, r8}
     b94:	00130113 	andseq	r0, r3, r3, lsl r1
     b98:	00211900 	eoreq	r1, r1, r0, lsl #18
     b9c:	0b2f1349 	bleq	bc58c8 <__bss_end__+0xbbaed8>
     ba0:	2e1a0000 	cdpcs	0, 1, cr0, cr10, cr0, {0}
     ba4:	03193f01 	tsteq	r9, #1, 30
     ba8:	3b0b3a0e 	blcc	2cf3e8 <__bss_end__+0x2c49f8>
     bac:	1119270b 	tstne	r9, fp, lsl #14
     bb0:	40061201 	andmi	r1, r6, r1, lsl #4
     bb4:	19429718 	stmdbne	r2, {r3, r4, r8, r9, sl, ip, pc}^
     bb8:	00001301 	andeq	r1, r0, r1, lsl #6
     bbc:	2701151b 	smladcs	r1, fp, r5, r1
     bc0:	01134919 	tsteq	r3, r9, lsl r9
     bc4:	1c000013 	stcne	0, cr0, [r0], {19}
     bc8:	13490005 	movtne	r0, #36869	; 0x9005
     bcc:	2e1d0000 	cdpcs	0, 1, cr0, cr13, cr0, {0}
     bd0:	03193f01 	tsteq	r9, #1, 30
     bd4:	3b0b3a0e 	blcc	2cf414 <__bss_end__+0x2c4a24>
     bd8:	4919270b 	ldmdbmi	r9, {r0, r1, r3, r8, r9, sl, sp}
     bdc:	12011113 	andne	r1, r1, #-1073741820	; 0xc0000004
     be0:	97184006 	ldrls	r4, [r8, -r6]
     be4:	13011942 	movwne	r1, #6466	; 0x1942
     be8:	0b1e0000 	bleq	780bf0 <__bss_end__+0x776200>
     bec:	12011101 	andne	r1, r1, #1073741824	; 0x40000000
     bf0:	1f000006 	svcne	0x00000006
     bf4:	01018289 	smlabbeq	r1, r9, r2, r8
     bf8:	13010111 	movwne	r0, #4369	; 0x1111
     bfc:	34200000 	strtcc	r0, [r0], #-0
     c00:	3a0e0300 	bcc	381808 <__bss_end__+0x376e18>
     c04:	490b3b0b 	stmdbmi	fp, {r0, r1, r3, r8, r9, fp, ip, sp}
     c08:	3c193f13 	ldccc	15, cr3, [r9], {19}
     c0c:	21000019 	tstcs	r0, r9, lsl r0
     c10:	193f002e 	ldmdbne	pc!, {r1, r2, r3, r5}	; <UNPREDICTABLE>
     c14:	0b3a0e03 	bleq	e84428 <__bss_end__+0xe79a38>
     c18:	19270b3b 	stmdbne	r7!, {r0, r1, r3, r4, r5, r8, r9, fp}
     c1c:	0000193c 	andeq	r1, r0, ip, lsr r9
     c20:	3f012e22 	svccc	0x00012e22
     c24:	3a0e0319 	bcc	381890 <__bss_end__+0x376ea0>
     c28:	270b3b0b 	strcs	r3, [fp, -fp, lsl #22]
     c2c:	3c134919 	ldccc	9, cr4, [r3], {25}
     c30:	00130119 	andseq	r0, r3, r9, lsl r1
     c34:	00182300 	andseq	r2, r8, r0, lsl #6
     c38:	01000000 	mrseq	r0, (UNDEF: 0)
     c3c:	0e250111 	mcreq	1, 1, r0, cr5, cr1, {0}
     c40:	0e030b13 	vmoveq.32	d3[0], r0
     c44:	01110e1b 	tsteq	r1, fp, lsl lr
     c48:	17100612 			; <UNDEFINED> instruction: 0x17100612
     c4c:	24020000 	strcs	r0, [r2], #-0
     c50:	3e0b0b00 	vmlacc.f64	d0, d11, d0
     c54:	0008030b 	andeq	r0, r8, fp, lsl #6
     c58:	00240300 	eoreq	r0, r4, r0, lsl #6
     c5c:	0b3e0b0b 	bleq	f83890 <__bss_end__+0xf78ea0>
     c60:	00000e03 	andeq	r0, r0, r3, lsl #28
     c64:	3f012e04 	svccc	0x00012e04
     c68:	3a0e0319 	bcc	3818d4 <__bss_end__+0x376ee4>
     c6c:	270b3b0b 	strcs	r3, [fp, -fp, lsl #22]
     c70:	12011119 	andne	r1, r1, #1073741830	; 0x40000006
     c74:	97184006 	ldrls	r4, [r8, -r6]
     c78:	13011942 	movwne	r1, #6466	; 0x1942
     c7c:	34050000 	strcc	r0, [r5], #-0
     c80:	3a080300 	bcc	201888 <__bss_end__+0x1f6e98>
     c84:	490b3b0b 	stmdbmi	fp, {r0, r1, r3, r8, r9, fp, ip, sp}
     c88:	00170213 	andseq	r0, r7, r3, lsl r2
     c8c:	012e0600 	teqeq	lr, r0, lsl #12
     c90:	0e03193f 	mcreq	9, 0, r1, cr3, cr15, {1}
     c94:	0b3b0b3a 	bleq	ec3984 <__bss_end__+0xeb8f94>
     c98:	01111927 	tsteq	r1, r7, lsr #18
     c9c:	18400612 	stmdane	r0, {r1, r4, r9, sl}^
     ca0:	00194297 	mulseq	r9, r7, r2
     ca4:	11010000 	mrsne	r0, (UNDEF: 1)
     ca8:	130e2501 	movwne	r2, #58625	; 0xe501
     cac:	1b0e030b 	blne	3818e0 <__bss_end__+0x376ef0>
     cb0:	1201110e 	andne	r1, r1, #-2147483645	; 0x80000003
     cb4:	00171006 	andseq	r1, r7, r6
     cb8:	00240200 	eoreq	r0, r4, r0, lsl #4
     cbc:	0b3e0b0b 	bleq	f838f0 <__bss_end__+0xf78f00>
     cc0:	00000803 	andeq	r0, r0, r3, lsl #16
     cc4:	0b002403 	bleq	9cd8 <gpio_write>
     cc8:	030b3e0b 	movweq	r3, #48651	; 0xbe0b
     ccc:	0400000e 	streq	r0, [r0], #-14
     cd0:	0b0b000f 	bleq	2c0d14 <__bss_end__+0x2b6324>
     cd4:	00001349 	andeq	r1, r0, r9, asr #6
     cd8:	49002605 	stmdbmi	r0, {r0, r2, r9, sl, sp}
     cdc:	06000013 			; <UNDEFINED> instruction: 0x06000013
     ce0:	193f012e 	ldmdbne	pc!, {r1, r2, r3, r5, r8}	; <UNPREDICTABLE>
     ce4:	0b3a0e03 	bleq	e844f8 <__bss_end__+0xe79b08>
     ce8:	19270b3b 	stmdbne	r7!, {r0, r1, r3, r4, r5, r8, r9, fp}
     cec:	06120111 			; <UNDEFINED> instruction: 0x06120111
     cf0:	42971840 	addsmi	r1, r7, #64, 16	; 0x400000
     cf4:	00130119 	andseq	r0, r3, r9, lsl r1
     cf8:	82890700 	addhi	r0, r9, #0, 14
     cfc:	01110001 	tsteq	r1, r1
     d00:	00001331 	andeq	r1, r0, r1, lsr r3
     d04:	01828908 	orreq	r8, r2, r8, lsl #18
     d08:	01011101 	tsteq	r1, r1, lsl #2
     d0c:	09000013 	stmdbeq	r0, {r0, r1, r4}
     d10:	0001828a 	andeq	r8, r1, sl, lsl #5
     d14:	42911802 	addsmi	r1, r1, #131072	; 0x20000
     d18:	0a000018 	beq	d80 <__code_start__-0x7280>
     d1c:	01018289 	smlabbeq	r1, r9, r2, r8
     d20:	13310111 	teqne	r1, #1073741828	; 0x40000004
     d24:	00001301 	andeq	r1, r0, r1, lsl #6
     d28:	2701150b 	strcs	r1, [r1, -fp, lsl #10]
     d2c:	01134919 	tsteq	r3, r9, lsl r9
     d30:	0c000013 	stceq	0, cr0, [r0], {19}
     d34:	13490005 	movtne	r0, #36869	; 0x9005
     d38:	340d0000 	strcc	r0, [sp], #-0
     d3c:	3a0e0300 	bcc	381944 <__bss_end__+0x376f54>
     d40:	490b3b0b 	stmdbmi	fp, {r0, r1, r3, r8, r9, fp, ip, sp}
     d44:	3c193f13 	ldccc	15, cr3, [r9], {19}
     d48:	0e000019 	mcreq	0, 0, r0, cr0, cr9, {0}
     d4c:	193f002e 	ldmdbne	pc!, {r1, r2, r3, r5}	; <UNPREDICTABLE>
     d50:	0b3a0e03 	bleq	e84564 <__bss_end__+0xe79b74>
     d54:	19270b3b 	stmdbne	r7!, {r0, r1, r3, r4, r5, r8, r9, fp}
     d58:	0000193c 	andeq	r1, r0, ip, lsr r9
     d5c:	3f012e0f 	svccc	0x00012e0f
     d60:	3a0e0319 	bcc	3819cc <__bss_end__+0x376fdc>
     d64:	270b3b0b 	strcs	r3, [fp, -fp, lsl #22]
     d68:	01193c19 	tsteq	r9, r9, lsl ip
     d6c:	00000013 	andeq	r0, r0, r3, lsl r0
     d70:	25011101 	strcs	r1, [r1, #-257]	; 0x101
     d74:	030b130e 	movweq	r1, #45838	; 0xb30e
     d78:	110e1b0e 	tstne	lr, lr, lsl #22
     d7c:	10061201 	andne	r1, r6, r1, lsl #4
     d80:	02000017 	andeq	r0, r0, #23
     d84:	0b0b0024 	bleq	2c0e1c <__bss_end__+0x2b642c>
     d88:	08030b3e 	stmdaeq	r3, {r1, r2, r3, r4, r5, r8, r9, fp}
     d8c:	24030000 	strcs	r0, [r3], #-0
     d90:	3e0b0b00 	vmlacc.f64	d0, d11, d0
     d94:	000e030b 	andeq	r0, lr, fp, lsl #6
     d98:	012e0400 	teqeq	lr, r0, lsl #8
     d9c:	0e03193f 	mcreq	9, 0, r1, cr3, cr15, {1}
     da0:	0b3b0b3a 	bleq	ec3a90 <__bss_end__+0xeb90a0>
     da4:	06120111 			; <UNDEFINED> instruction: 0x06120111
     da8:	42971840 	addsmi	r1, r7, #64, 16	; 0x400000
     dac:	00130119 	andseq	r0, r3, r9, lsl r1
     db0:	00340500 	eorseq	r0, r4, r0, lsl #10
     db4:	0b3a0e03 	bleq	e845c8 <__bss_end__+0xe79bd8>
     db8:	13490b3b 	movtne	r0, #39739	; 0x9b3b
     dbc:	193c193f 	ldmdbne	ip!, {r0, r1, r2, r3, r4, r5, r8, fp, ip}
     dc0:	2e060000 	cdpcs	0, 0, cr0, cr6, cr0, {0}
     dc4:	03193f00 	tsteq	r9, #0, 30
     dc8:	3b0b3a0e 	blcc	2cf608 <__bss_end__+0x2c4c18>
     dcc:	3c19270b 	ldccc	7, cr2, [r9], {11}
     dd0:	07000019 	smladeq	r0, r9, r0, r0
     dd4:	08030034 	stmdaeq	r3, {r2, r4, r5}
     dd8:	0b3b0b3a 	bleq	ec3ac8 <__bss_end__+0xeb90d8>
     ddc:	17021349 	strne	r1, [r2, -r9, asr #6]
     de0:	34080000 	strcc	r0, [r8], #-0
     de4:	3a0e0300 	bcc	3819ec <__bss_end__+0x376ffc>
     de8:	490b3b0b 	stmdbmi	fp, {r0, r1, r3, r8, r9, fp, ip, sp}
     dec:	09000013 	stmdbeq	r0, {r0, r1, r4}
     df0:	00018289 	andeq	r8, r1, r9, lsl #5
     df4:	13310111 	teqne	r1, #1073741828	; 0x40000004
     df8:	0f0a0000 	svceq	0x000a0000
     dfc:	490b0b00 	stmdbmi	fp, {r8, r9, fp}
     e00:	00000013 	andeq	r0, r0, r3, lsl r0
     e04:	25011101 	strcs	r1, [r1, #-257]	; 0x101
     e08:	030b130e 	movweq	r1, #45838	; 0xb30e
     e0c:	110e1b0e 	tstne	lr, lr, lsl #22
     e10:	10061201 	andne	r1, r6, r1, lsl #4
     e14:	02000017 	andeq	r0, r0, #23
     e18:	0b0b0024 	bleq	2c0eb0 <__bss_end__+0x2b64c0>
     e1c:	08030b3e 	stmdaeq	r3, {r1, r2, r3, r4, r5, r8, r9, fp}
     e20:	24030000 	strcs	r0, [r3], #-0
     e24:	3e0b0b00 	vmlacc.f64	d0, d11, d0
     e28:	000e030b 	andeq	r0, lr, fp, lsl #6
     e2c:	000f0400 	andeq	r0, pc, r0, lsl #8
     e30:	13490b0b 	movtne	r0, #39691	; 0x9b0b
     e34:	26050000 	strcs	r0, [r5], -r0
     e38:	00134900 	andseq	r4, r3, r0, lsl #18
     e3c:	012e0600 	teqeq	lr, r0, lsl #12
     e40:	0e03193f 	mcreq	9, 0, r1, cr3, cr15, {1}
     e44:	0b3b0b3a 	bleq	ec3b34 <__bss_end__+0xeb9144>
     e48:	01111927 	tsteq	r1, r7, lsr #18
     e4c:	18400612 	stmdane	r0, {r1, r4, r9, sl}^
     e50:	01194297 			; <UNDEFINED> instruction: 0x01194297
     e54:	07000013 	smladeq	r0, r3, r0, r0
     e58:	08030005 	stmdaeq	r3, {r0, r2}
     e5c:	0b3b0b3a 	bleq	ec3b4c <__bss_end__+0xeb915c>
     e60:	17021349 	strne	r1, [r2, -r9, asr #6]
     e64:	34080000 	strcc	r0, [r8], #-0
     e68:	490e0300 	stmdbmi	lr, {r8, r9}
     e6c:	02193413 	andseq	r3, r9, #318767104	; 0x13000000
     e70:	09000018 	stmdbeq	r0, {r3, r4}
     e74:	00018289 	andeq	r8, r1, r9, lsl #5
     e78:	13310111 	teqne	r1, #1073741828	; 0x40000004
     e7c:	890a0000 	stmdbhi	sl, {}	; <UNPREDICTABLE>
     e80:	11010182 	smlabbne	r1, r2, r1, r0
     e84:	01133101 	tsteq	r3, r1, lsl #2
     e88:	0b000013 	bleq	edc <__code_start__-0x7124>
     e8c:	0001828a 	andeq	r8, r1, sl, lsl #5
     e90:	42911802 	addsmi	r1, r1, #131072	; 0x20000
     e94:	0c000018 	stceq	0, cr0, [r0], {24}
     e98:	13490101 	movtne	r0, #37121	; 0x9101
     e9c:	00001301 	andeq	r1, r0, r1, lsl #6
     ea0:	4900210d 	stmdbmi	r0, {r0, r2, r3, r8, sp}
     ea4:	000b2f13 	andeq	r2, fp, r3, lsl pc
     ea8:	002e0e00 	eoreq	r0, lr, r0, lsl #28
     eac:	0e03193f 	mcreq	9, 0, r1, cr3, cr15, {1}
     eb0:	0b3b0b3a 	bleq	ec3ba0 <__bss_end__+0xeb91b0>
     eb4:	193c1927 	ldmdbne	ip!, {r0, r1, r2, r5, r8, fp, ip}
     eb8:	2e0f0000 	cdpcs	0, 0, cr0, cr15, cr0, {0}
     ebc:	03193f01 	tsteq	r9, #1, 30
     ec0:	3b0b3a0e 	blcc	2cf700 <__bss_end__+0x2c4d10>
     ec4:	4919270b 	ldmdbmi	r9, {r0, r1, r3, r8, r9, sl, sp}
     ec8:	01193c13 	tsteq	r9, r3, lsl ip
     ecc:	10000013 	andne	r0, r0, r3, lsl r0
     ed0:	13490005 	movtne	r0, #36869	; 0x9005
     ed4:	18110000 	ldmdane	r1, {}	; <UNPREDICTABLE>
     ed8:	00000000 	andeq	r0, r0, r0
     edc:	25011101 	strcs	r1, [r1, #-257]	; 0x101
     ee0:	030b130e 	movweq	r1, #45838	; 0xb30e
     ee4:	110e1b0e 	tstne	lr, lr, lsl #22
     ee8:	10061201 	andne	r1, r6, r1, lsl #4
     eec:	02000017 	andeq	r0, r0, #23
     ef0:	0b0b0024 	bleq	2c0f88 <__bss_end__+0x2b6598>
     ef4:	08030b3e 	stmdaeq	r3, {r1, r2, r3, r4, r5, r8, r9, fp}
     ef8:	24030000 	strcs	r0, [r3], #-0
     efc:	3e0b0b00 	vmlacc.f64	d0, d11, d0
     f00:	000e030b 	andeq	r0, lr, fp, lsl #6
     f04:	000f0400 	andeq	r0, pc, r0, lsl #8
     f08:	13490b0b 	movtne	r0, #39691	; 0x9b0b
     f0c:	26050000 	strcs	r0, [r5], -r0
     f10:	00134900 	andseq	r4, r3, r0, lsl #18
     f14:	012e0600 	teqeq	lr, r0, lsl #12
     f18:	0e03193f 	mcreq	9, 0, r1, cr3, cr15, {1}
     f1c:	0b3b0b3a 	bleq	ec3c0c <__bss_end__+0xeb921c>
     f20:	01111927 	tsteq	r1, r7, lsr #18
     f24:	18400612 	stmdane	r0, {r1, r4, r9, sl}^
     f28:	01194297 			; <UNDEFINED> instruction: 0x01194297
     f2c:	07000013 	smladeq	r0, r3, r0, r0
     f30:	08030005 	stmdaeq	r3, {r0, r2}
     f34:	0b3b0b3a 	bleq	ec3c24 <__bss_end__+0xeb9234>
     f38:	17021349 	strne	r1, [r2, -r9, asr #6]
     f3c:	34080000 	strcc	r0, [r8], #-0
     f40:	490e0300 	stmdbmi	lr, {r8, r9}
     f44:	02193413 	andseq	r3, r9, #318767104	; 0x13000000
     f48:	09000018 	stmdbeq	r0, {r3, r4}
     f4c:	00018289 	andeq	r8, r1, r9, lsl #5
     f50:	13310111 	teqne	r1, #1073741828	; 0x40000004
     f54:	890a0000 	stmdbhi	sl, {}	; <UNPREDICTABLE>
     f58:	11010182 	smlabbne	r1, r2, r1, r0
     f5c:	01133101 	tsteq	r3, r1, lsl #2
     f60:	0b000013 	bleq	fb4 <__code_start__-0x704c>
     f64:	0001828a 	andeq	r8, r1, sl, lsl #5
     f68:	42911802 	addsmi	r1, r1, #131072	; 0x20000
     f6c:	0c000018 	stceq	0, cr0, [r0], {24}
     f70:	13490101 	movtne	r0, #37121	; 0x9101
     f74:	00001301 	andeq	r1, r0, r1, lsl #6
     f78:	4900210d 	stmdbmi	r0, {r0, r2, r3, r8, sp}
     f7c:	000b2f13 	andeq	r2, fp, r3, lsl pc
     f80:	002e0e00 	eoreq	r0, lr, r0, lsl #28
     f84:	0e03193f 	mcreq	9, 0, r1, cr3, cr15, {1}
     f88:	0b3b0b3a 	bleq	ec3c78 <__bss_end__+0xeb9288>
     f8c:	193c1927 	ldmdbne	ip!, {r0, r1, r2, r5, r8, fp, ip}
     f90:	2e0f0000 	cdpcs	0, 0, cr0, cr15, cr0, {0}
     f94:	03193f01 	tsteq	r9, #1, 30
     f98:	3b0b3a0e 	blcc	2cf7d8 <__bss_end__+0x2c4de8>
     f9c:	4919270b 	ldmdbmi	r9, {r0, r1, r3, r8, r9, sl, sp}
     fa0:	01193c13 	tsteq	r9, r3, lsl ip
     fa4:	10000013 	andne	r0, r0, r3, lsl r0
     fa8:	13490005 	movtne	r0, #36869	; 0x9005
     fac:	18110000 	ldmdane	r1, {}	; <UNPREDICTABLE>
     fb0:	00000000 	andeq	r0, r0, r0
     fb4:	25011101 	strcs	r1, [r1, #-257]	; 0x101
     fb8:	030b130e 	movweq	r1, #45838	; 0xb30e
     fbc:	110e1b0e 	tstne	lr, lr, lsl #22
     fc0:	10061201 	andne	r1, r6, r1, lsl #4
     fc4:	02000017 	andeq	r0, r0, #23
     fc8:	0b0b0024 	bleq	2c1060 <__bss_end__+0x2b6670>
     fcc:	08030b3e 	stmdaeq	r3, {r1, r2, r3, r4, r5, r8, r9, fp}
     fd0:	24030000 	strcs	r0, [r3], #-0
     fd4:	3e0b0b00 	vmlacc.f64	d0, d11, d0
     fd8:	000e030b 	andeq	r0, lr, fp, lsl #6
     fdc:	000f0400 	andeq	r0, pc, r0, lsl #8
     fe0:	13490b0b 	movtne	r0, #39691	; 0x9b0b
     fe4:	26050000 	strcs	r0, [r5], -r0
     fe8:	00134900 	andseq	r4, r3, r0, lsl #18
     fec:	012e0600 	teqeq	lr, r0, lsl #12
     ff0:	0e03193f 	mcreq	9, 0, r1, cr3, cr15, {1}
     ff4:	0b3b0b3a 	bleq	ec3ce4 <__bss_end__+0xeb92f4>
     ff8:	01111927 	tsteq	r1, r7, lsr #18
     ffc:	18400612 	stmdane	r0, {r1, r4, r9, sl}^
    1000:	01194297 			; <UNDEFINED> instruction: 0x01194297
    1004:	07000013 	smladeq	r0, r3, r0, r0
    1008:	08030005 	stmdaeq	r3, {r0, r2}
    100c:	0b3b0b3a 	bleq	ec3cfc <__bss_end__+0xeb930c>
    1010:	17021349 	strne	r1, [r2, -r9, asr #6]
    1014:	34080000 	strcc	r0, [r8], #-0
    1018:	490e0300 	stmdbmi	lr, {r8, r9}
    101c:	02193413 	andseq	r3, r9, #318767104	; 0x13000000
    1020:	09000018 	stmdbeq	r0, {r3, r4}
    1024:	00018289 	andeq	r8, r1, r9, lsl #5
    1028:	13310111 	teqne	r1, #1073741828	; 0x40000004
    102c:	890a0000 	stmdbhi	sl, {}	; <UNPREDICTABLE>
    1030:	11010182 	smlabbne	r1, r2, r1, r0
    1034:	01133101 	tsteq	r3, r1, lsl #2
    1038:	0b000013 	bleq	108c <__code_start__-0x6f74>
    103c:	0001828a 	andeq	r8, r1, sl, lsl #5
    1040:	42911802 	addsmi	r1, r1, #131072	; 0x20000
    1044:	0c000018 	stceq	0, cr0, [r0], {24}
    1048:	13490101 	movtne	r0, #37121	; 0x9101
    104c:	00001301 	andeq	r1, r0, r1, lsl #6
    1050:	4900210d 	stmdbmi	r0, {r0, r2, r3, r8, sp}
    1054:	000b2f13 	andeq	r2, fp, r3, lsl pc
    1058:	002e0e00 	eoreq	r0, lr, r0, lsl #28
    105c:	0e03193f 	mcreq	9, 0, r1, cr3, cr15, {1}
    1060:	0b3b0b3a 	bleq	ec3d50 <__bss_end__+0xeb9360>
    1064:	193c1927 	ldmdbne	ip!, {r0, r1, r2, r5, r8, fp, ip}
    1068:	2e0f0000 	cdpcs	0, 0, cr0, cr15, cr0, {0}
    106c:	03193f01 	tsteq	r9, #1, 30
    1070:	3b0b3a0e 	blcc	2cf8b0 <__bss_end__+0x2c4ec0>
    1074:	4919270b 	ldmdbmi	r9, {r0, r1, r3, r8, r9, sl, sp}
    1078:	01193c13 	tsteq	r9, r3, lsl ip
    107c:	10000013 	andne	r0, r0, r3, lsl r0
    1080:	13490005 	movtne	r0, #36869	; 0x9005
    1084:	18110000 	ldmdane	r1, {}	; <UNPREDICTABLE>
    1088:	00000000 	andeq	r0, r0, r0
    108c:	25011101 	strcs	r1, [r1, #-257]	; 0x101
    1090:	030b130e 	movweq	r1, #45838	; 0xb30e
    1094:	110e1b0e 	tstne	lr, lr, lsl #22
    1098:	10061201 	andne	r1, r6, r1, lsl #4
    109c:	02000017 	andeq	r0, r0, #23
    10a0:	0b0b0024 	bleq	2c1138 <__bss_end__+0x2b6748>
    10a4:	08030b3e 	stmdaeq	r3, {r1, r2, r3, r4, r5, r8, r9, fp}
    10a8:	24030000 	strcs	r0, [r3], #-0
    10ac:	3e0b0b00 	vmlacc.f64	d0, d11, d0
    10b0:	000e030b 	andeq	r0, lr, fp, lsl #6
    10b4:	002e0400 	eoreq	r0, lr, r0, lsl #8
    10b8:	0e03193f 	mcreq	9, 0, r1, cr3, cr15, {1}
    10bc:	0b3b0b3a 	bleq	ec3dac <__bss_end__+0xeb93bc>
    10c0:	01111927 	tsteq	r1, r7, lsr #18
    10c4:	18400612 	stmdane	r0, {r1, r4, r9, sl}^
    10c8:	00194297 	mulseq	r9, r7, r2
    10cc:	11010000 	mrsne	r0, (UNDEF: 1)
    10d0:	130e2501 	movwne	r2, #58625	; 0xe501
    10d4:	1b0e030b 	blne	381d08 <__bss_end__+0x377318>
    10d8:	1201110e 	andne	r1, r1, #-2147483645	; 0x80000003
    10dc:	00171006 	andseq	r1, r7, r6
    10e0:	00240200 	eoreq	r0, r4, r0, lsl #4
    10e4:	0b3e0b0b 	bleq	f83d18 <__bss_end__+0xf79328>
    10e8:	00000803 	andeq	r0, r0, r3, lsl #16
    10ec:	0b002403 	bleq	a100 <__FUNCTION__.4251+0xe8>
    10f0:	030b3e0b 	movweq	r3, #48651	; 0xbe0b
    10f4:	0400000e 	streq	r0, [r0], #-14
    10f8:	0b0b0104 	bleq	2c1510 <__bss_end__+0x2b6b20>
    10fc:	0b3b0b3a 	bleq	ec3dec <__bss_end__+0xeb93fc>
    1100:	00001301 	andeq	r1, r0, r1, lsl #6
    1104:	03002805 	movweq	r2, #2053	; 0x805
    1108:	000d1c0e 	andeq	r1, sp, lr, lsl #24
    110c:	012e0600 	teqeq	lr, r0, lsl #12
    1110:	0e03193f 	mcreq	9, 0, r1, cr3, cr15, {1}
    1114:	0b3b0b3a 	bleq	ec3e04 <__bss_end__+0xeb9414>
    1118:	01111927 	tsteq	r1, r7, lsr #18
    111c:	18400612 	stmdane	r0, {r1, r4, r9, sl}^
    1120:	01194297 			; <UNDEFINED> instruction: 0x01194297
    1124:	07000013 	smladeq	r0, r3, r0, r0
    1128:	0e030034 	mcreq	0, 0, r0, cr3, cr4, {1}
    112c:	0b3b0b3a 	bleq	ec3e1c <__bss_end__+0xeb942c>
    1130:	193f1349 	ldmdbne	pc!, {r0, r3, r6, r8, r9, ip}	; <UNPREDICTABLE>
    1134:	0000193c 	andeq	r1, r0, ip, lsr r9
    1138:	03003408 	movweq	r3, #1032	; 0x408
    113c:	3b0b3a08 	blcc	2cf964 <__bss_end__+0x2c4f74>
    1140:	1c13490b 	ldcne	9, cr4, [r3], {11}
    1144:	0900000b 	stmdbeq	r0, {r0, r1, r3}
    1148:	08030034 	stmdaeq	r3, {r2, r4, r5}
    114c:	0b3b0b3a 	bleq	ec3e3c <__bss_end__+0xeb944c>
    1150:	00001349 	andeq	r1, r0, r9, asr #6
    1154:	0300340a 	movweq	r3, #1034	; 0x40a
    1158:	3b0b3a08 	blcc	2cf980 <__bss_end__+0x2c4f90>
    115c:	0213490b 	andseq	r4, r3, #180224	; 0x2c000
    1160:	0b000018 	bleq	11c8 <__code_start__-0x6e38>
    1164:	0111010b 	tsteq	r1, fp, lsl #2
    1168:	13010612 	movwne	r0, #5650	; 0x1612
    116c:	340c0000 	strcc	r0, [ip], #-0
    1170:	3a080300 	bcc	201d78 <__bss_end__+0x1f7388>
    1174:	490b3b0b 	stmdbmi	fp, {r0, r1, r3, r8, r9, fp, ip, sp}
    1178:	00170213 	andseq	r0, r7, r3, lsl r2
    117c:	82890d00 	addhi	r0, r9, #0, 26
    1180:	01110001 	tsteq	r1, r1
    1184:	00001331 	andeq	r1, r0, r1, lsr r3
    1188:	0182890e 	orreq	r8, r2, lr, lsl #18
    118c:	31011101 	tstcc	r1, r1, lsl #2
    1190:	00130113 	andseq	r0, r3, r3, lsl r1
    1194:	828a0f00 	addhi	r0, sl, #0, 30
    1198:	18020001 	stmdane	r2, {r0}
    119c:	00184291 	mulseq	r8, r1, r2
    11a0:	000f1000 	andeq	r1, pc, r0
    11a4:	13490b0b 	movtne	r0, #39691	; 0x9b0b
    11a8:	2e110000 	cdpcs	0, 1, cr0, cr1, cr0, {0}
    11ac:	03193f00 	tsteq	r9, #0, 30
    11b0:	3b0b3a0e 	blcc	2cf9f0 <__bss_end__+0x2c5000>
    11b4:	3c19270b 	ldccc	7, cr2, [r9], {11}
    11b8:	12000019 	andne	r0, r0, #25
    11bc:	193f012e 	ldmdbne	pc!, {r1, r2, r3, r5, r8}	; <UNPREDICTABLE>
    11c0:	0b3a0e03 	bleq	e849d4 <__bss_end__+0xe79fe4>
    11c4:	19270b3b 	stmdbne	r7!, {r0, r1, r3, r4, r5, r8, r9, fp}
    11c8:	0000193c 	andeq	r1, r0, ip, lsr r9
    11cc:	49000513 	stmdbmi	r0, {r0, r1, r4, r8, sl}
    11d0:	00000013 	andeq	r0, r0, r3, lsl r0
    11d4:	25011101 	strcs	r1, [r1, #-257]	; 0x101
    11d8:	030b130e 	movweq	r1, #45838	; 0xb30e
    11dc:	550e1b0e 	strpl	r1, [lr, #-2830]	; 0xb0e
    11e0:	10011117 	andne	r1, r1, r7, lsl r1
    11e4:	02000017 	andeq	r0, r0, #23
    11e8:	0b0b0024 	bleq	2c1280 <__bss_end__+0x2b6890>
    11ec:	08030b3e 	stmdaeq	r3, {r1, r2, r3, r4, r5, r8, r9, fp}
    11f0:	24030000 	strcs	r0, [r3], #-0
    11f4:	3e0b0b00 	vmlacc.f64	d0, d11, d0
    11f8:	000e030b 	andeq	r0, lr, fp, lsl #6
    11fc:	012e0400 	teqeq	lr, r0, lsl #8
    1200:	0e03193f 	mcreq	9, 0, r1, cr3, cr15, {1}
    1204:	0b3b0b3a 	bleq	ec3ef4 <__bss_end__+0xeb9504>
    1208:	13491927 	movtne	r1, #39207	; 0x9927
    120c:	06120111 			; <UNDEFINED> instruction: 0x06120111
    1210:	42971840 	addsmi	r1, r7, #64, 16	; 0x400000
    1214:	00130119 	andseq	r0, r3, r9, lsl r1
    1218:	00340500 	eorseq	r0, r4, r0, lsl #10
    121c:	0b3a0e03 	bleq	e84a30 <__bss_end__+0xe7a040>
    1220:	13490b3b 	movtne	r0, #39739	; 0x9b3b
    1224:	00001702 	andeq	r1, r0, r2, lsl #14
    1228:	3f012e06 	svccc	0x00012e06
    122c:	3a0e0319 	bcc	381e98 <__bss_end__+0x3774a8>
    1230:	270b3b0b 	strcs	r3, [fp, -fp, lsl #22]
    1234:	12011119 	andne	r1, r1, #1073741830	; 0x40000006
    1238:	97184006 	ldrls	r4, [r8, -r6]
    123c:	13011942 	movwne	r1, #6466	; 0x1942
    1240:	34070000 	strcc	r0, [r7], #-0
    1244:	3a0e0300 	bcc	381e4c <__bss_end__+0x37745c>
    1248:	490b3b0b 	stmdbmi	fp, {r0, r1, r3, r8, r9, fp, ip, sp}
    124c:	00061c13 	andeq	r1, r6, r3, lsl ip
    1250:	00340800 	eorseq	r0, r4, r0, lsl #16
    1254:	0b3a0e03 	bleq	e84a68 <__bss_end__+0xe7a078>
    1258:	13490b3b 	movtne	r0, #39739	; 0x9b3b
    125c:	00000b1c 	andeq	r0, r0, ip, lsl fp
    1260:	01828909 	orreq	r8, r2, r9, lsl #18
    1264:	31011100 	mrscc	r1, (UNDEF: 17)
    1268:	0a000013 	beq	12bc <__code_start__-0x6d44>
    126c:	01018289 	smlabbeq	r1, r9, r2, r8
    1270:	13310111 	teqne	r1, #1073741828	; 0x40000004
    1274:	00001301 	andeq	r1, r0, r1, lsl #6
    1278:	01828a0b 	orreq	r8, r2, fp, lsl #20
    127c:	91180200 	tstls	r8, r0, lsl #4
    1280:	00001842 	andeq	r1, r0, r2, asr #16
    1284:	0182890c 	orreq	r8, r2, ip, lsl #18
    1288:	31011101 	tstcc	r1, r1, lsl #2
    128c:	0d000013 	stceq	0, cr0, [r0, #-76]	; 0xffffffb4
    1290:	13490026 	movtne	r0, #36902	; 0x9026
    1294:	2e0e0000 	cdpcs	0, 0, cr0, cr14, cr0, {0}
    1298:	03193f01 	tsteq	r9, #1, 30
    129c:	3b0b3a0e 	blcc	2cfadc <__bss_end__+0x2c50ec>
    12a0:	3c19270b 	ldccc	7, cr2, [r9], {11}
    12a4:	00130119 	andseq	r0, r3, r9, lsl r1
    12a8:	00050f00 	andeq	r0, r5, r0, lsl #30
    12ac:	00001349 	andeq	r1, r0, r9, asr #6
    12b0:	3f012e10 	svccc	0x00012e10
    12b4:	3a0e0319 	bcc	381f20 <__bss_end__+0x377530>
    12b8:	270b3b0b 	strcs	r3, [fp, -fp, lsl #22]
    12bc:	00193c19 	andseq	r3, r9, r9, lsl ip
    12c0:	11010000 	mrsne	r0, (UNDEF: 1)
    12c4:	130e2501 	movwne	r2, #58625	; 0xe501
    12c8:	1b0e030b 	blne	381efc <__bss_end__+0x37750c>
    12cc:	1201110e 	andne	r1, r1, #-2147483645	; 0x80000003
    12d0:	00171006 	andseq	r1, r7, r6
    12d4:	00240200 	eoreq	r0, r4, r0, lsl #4
    12d8:	0b3e0b0b 	bleq	f83f0c <__bss_end__+0xf7951c>
    12dc:	00000803 	andeq	r0, r0, r3, lsl #16
    12e0:	0b002403 	bleq	a2f4 <__FUNCTION__.4451+0x190>
    12e4:	030b3e0b 	movweq	r3, #48651	; 0xbe0b
    12e8:	0400000e 	streq	r0, [r0], #-14
    12ec:	193f012e 	ldmdbne	pc!, {r1, r2, r3, r5, r8}	; <UNPREDICTABLE>
    12f0:	0b3a0e03 	bleq	e84b04 <__bss_end__+0xe7a114>
    12f4:	19270b3b 	stmdbne	r7!, {r0, r1, r3, r4, r5, r8, r9, fp}
    12f8:	06120111 			; <UNDEFINED> instruction: 0x06120111
    12fc:	42971840 	addsmi	r1, r7, #64, 16	; 0x400000
    1300:	00130119 	andseq	r0, r3, r9, lsl r1
    1304:	00050500 	andeq	r0, r5, r0, lsl #10
    1308:	0b3a0e03 	bleq	e84b1c <__bss_end__+0xe7a12c>
    130c:	13490b3b 	movtne	r0, #39739	; 0x9b3b
    1310:	00001702 	andeq	r1, r0, r2, lsl #14
    1314:	3f012e06 	svccc	0x00012e06
    1318:	3a0e0319 	bcc	381f84 <__bss_end__+0x377594>
    131c:	270b3b0b 	strcs	r3, [fp, -fp, lsl #22]
    1320:	11134919 	tstne	r3, r9, lsl r9
    1324:	40061201 	andmi	r1, r6, r1, lsl #4
    1328:	19429718 	stmdbne	r2, {r3, r4, r8, r9, sl, ip, pc}^
    132c:	00001301 	andeq	r1, r0, r1, lsl #6
    1330:	01828907 	orreq	r8, r2, r7, lsl #18
    1334:	31011101 	tstcc	r1, r1, lsl #2
    1338:	08000013 	stmdaeq	r0, {r0, r1, r4}
    133c:	0001828a 	andeq	r8, r1, sl, lsl #5
    1340:	42911802 	addsmi	r1, r1, #131072	; 0x20000
    1344:	09000018 	stmdbeq	r0, {r3, r4}
    1348:	08030034 	stmdaeq	r3, {r2, r4, r5}
    134c:	0b3b0b3a 	bleq	ec403c <__bss_end__+0xeb964c>
    1350:	17021349 	strne	r1, [r2, -r9, asr #6]
    1354:	890a0000 	stmdbhi	sl, {}	; <UNPREDICTABLE>
    1358:	11000182 	smlabbne	r0, r2, r1, r0
    135c:	00133101 	andseq	r3, r3, r1, lsl #2
    1360:	00050b00 	andeq	r0, r5, r0, lsl #22
    1364:	0b3a0803 	bleq	e83378 <__bss_end__+0xe78988>
    1368:	13490b3b 	movtne	r0, #39739	; 0x9b3b
    136c:	00001702 	andeq	r1, r0, r2, lsl #14
    1370:	0300340c 	movweq	r3, #1036	; 0x40c
    1374:	3b0b3a08 	blcc	2cfb9c <__bss_end__+0x2c51ac>
    1378:	0213490b 	andseq	r4, r3, #180224	; 0x2c000
    137c:	0d000018 	stceq	0, cr0, [r0, #-96]	; 0xffffffa0
    1380:	0111010b 	tsteq	r1, fp, lsl #2
    1384:	13010612 	movwne	r0, #5650	; 0x1612
    1388:	2e0e0000 	cdpcs	0, 0, cr0, cr14, cr0, {0}
    138c:	03193f01 	tsteq	r9, #1, 30
    1390:	3b0b3a0e 	blcc	2cfbd0 <__bss_end__+0x2c51e0>
    1394:	4919270b 	ldmdbmi	r9, {r0, r1, r3, r8, r9, sl, sp}
    1398:	01193c13 	tsteq	r9, r3, lsl ip
    139c:	0f000013 	svceq	0x00000013
    13a0:	13490005 	movtne	r0, #36869	; 0x9005
    13a4:	2e100000 	cdpcs	0, 1, cr0, cr0, cr0, {0}
    13a8:	03193f00 	tsteq	r9, #0, 30
    13ac:	3b0b3a0e 	blcc	2cfbec <__bss_end__+0x2c51fc>
    13b0:	3c19270b 	ldccc	7, cr2, [r9], {11}
    13b4:	00000019 	andeq	r0, r0, r9, lsl r0
    13b8:	25011101 	strcs	r1, [r1, #-257]	; 0x101
    13bc:	030b130e 	movweq	r1, #45838	; 0xb30e
    13c0:	110e1b0e 	tstne	lr, lr, lsl #22
    13c4:	10061201 	andne	r1, r6, r1, lsl #4
    13c8:	02000017 	andeq	r0, r0, #23
    13cc:	0b0b0024 	bleq	2c1464 <__bss_end__+0x2b6a74>
    13d0:	08030b3e 	stmdaeq	r3, {r1, r2, r3, r4, r5, r8, r9, fp}
    13d4:	24030000 	strcs	r0, [r3], #-0
    13d8:	3e0b0b00 	vmlacc.f64	d0, d11, d0
    13dc:	000e030b 	andeq	r0, lr, fp, lsl #6
    13e0:	00350400 	eorseq	r0, r5, r0, lsl #8
    13e4:	00001349 	andeq	r1, r0, r9, asr #6
    13e8:	03001605 	movweq	r1, #1541	; 0x605
    13ec:	3b0b3a0e 	blcc	2cfc2c <__bss_end__+0x2c523c>
    13f0:	0013490b 	andseq	r4, r3, fp, lsl #18
    13f4:	00160600 	andseq	r0, r6, r0, lsl #12
    13f8:	0b3a0e03 	bleq	e84c0c <__bss_end__+0xe7a21c>
    13fc:	1349053b 	movtne	r0, #38203	; 0x953b
    1400:	17070000 	strne	r0, [r7, -r0]
    1404:	3a0b0b01 	bcc	2c4010 <__bss_end__+0x2b9620>
    1408:	010b3b0b 	tsteq	fp, fp, lsl #22
    140c:	08000013 	stmdaeq	r0, {r0, r1, r4}
    1410:	0e03000d 	cdpeq	0, 0, cr0, cr3, cr13, {0}
    1414:	0b3b0b3a 	bleq	ec4104 <__bss_end__+0xeb9714>
    1418:	00001349 	andeq	r1, r0, r9, asr #6
    141c:	49010109 	stmdbmi	r1, {r0, r3, r8}
    1420:	00130113 	andseq	r0, r3, r3, lsl r1
    1424:	00210a00 	eoreq	r0, r1, r0, lsl #20
    1428:	0b2f1349 	bleq	bc6154 <__bss_end__+0xbbb764>
    142c:	130b0000 	movwne	r0, #45056	; 0xb000
    1430:	3a0b0b01 	bcc	2c403c <__bss_end__+0x2b964c>
    1434:	010b3b0b 	tsteq	fp, fp, lsl #22
    1438:	0c000013 	stceq	0, cr0, [r0], {19}
    143c:	0e03000d 	cdpeq	0, 0, cr0, cr3, cr13, {0}
    1440:	0b3b0b3a 	bleq	ec4130 <__bss_end__+0xeb9740>
    1444:	0b381349 	bleq	e06170 <__bss_end__+0xdfb780>
    1448:	0f0d0000 	svceq	0x000d0000
    144c:	000b0b00 	andeq	r0, fp, r0, lsl #22
    1450:	000f0e00 	andeq	r0, pc, r0, lsl #28
    1454:	13490b0b 	movtne	r0, #39691	; 0x9b0b
    1458:	260f0000 	strcs	r0, [pc], -r0
    145c:	00134900 	andseq	r4, r3, r0, lsl #18
    1460:	01131000 	tsteq	r3, r0
    1464:	0b0b0e03 	bleq	2c4c78 <__bss_end__+0x2ba288>
    1468:	0b3b0b3a 	bleq	ec4158 <__bss_end__+0xeb9768>
    146c:	00001301 	andeq	r1, r0, r1, lsl #6
    1470:	03000d11 	movweq	r0, #3345	; 0xd11
    1474:	3b0b3a08 	blcc	2cfc9c <__bss_end__+0x2c52ac>
    1478:	3813490b 	ldmdacc	r3, {r0, r1, r3, r8, fp, lr}
    147c:	1200000b 	andne	r0, r0, #11
    1480:	0e030113 	mcreq	1, 0, r0, cr3, cr3, {0}
    1484:	0b3a050b 	bleq	e828b8 <__bss_end__+0xe77ec8>
    1488:	13010b3b 	movwne	r0, #6971	; 0x1b3b
    148c:	0d130000 	ldceq	0, cr0, [r3, #-0]
    1490:	3a0e0300 	bcc	382098 <__bss_end__+0x3776a8>
    1494:	490b3b0b 	stmdbmi	fp, {r0, r1, r3, r8, r9, fp, ip, sp}
    1498:	00053813 	andeq	r3, r5, r3, lsl r8
    149c:	00151400 	andseq	r1, r5, r0, lsl #8
    14a0:	00001927 	andeq	r1, r0, r7, lsr #18
    14a4:	27011515 	smladcs	r1, r5, r5, r1
    14a8:	01134919 	tsteq	r3, r9, lsl r9
    14ac:	16000013 			; <UNDEFINED> instruction: 0x16000013
    14b0:	13490005 	movtne	r0, #36869	; 0x9005
    14b4:	13170000 	tstne	r7, #0
    14b8:	0b0e0301 	bleq	3820c4 <__bss_end__+0x3776d4>
    14bc:	3b0b3a05 	blcc	2cfcd8 <__bss_end__+0x2c52e8>
    14c0:	00130105 	andseq	r0, r3, r5, lsl #2
    14c4:	000d1800 	andeq	r1, sp, r0, lsl #16
    14c8:	0b3a0e03 	bleq	e84cdc <__bss_end__+0xe7a2ec>
    14cc:	1349053b 	movtne	r0, #38203	; 0x953b
    14d0:	00000b38 	andeq	r0, r0, r8, lsr fp
    14d4:	03000d19 	movweq	r0, #3353	; 0xd19
    14d8:	3b0b3a0e 	blcc	2cfd18 <__bss_end__+0x2c5328>
    14dc:	38134905 	ldmdacc	r3, {r0, r2, r8, fp, lr}
    14e0:	1a000005 	bne	14fc <__code_start__-0x6b04>
    14e4:	0e030113 	mcreq	1, 0, r0, cr3, cr3, {0}
    14e8:	0b3a0b0b 	bleq	e8411c <__bss_end__+0xe7972c>
    14ec:	1301053b 	movwne	r0, #5435	; 0x153b
    14f0:	131b0000 	tstne	fp, #0
    14f4:	3a0b0b01 	bcc	2c4100 <__bss_end__+0x2b9710>
    14f8:	01053b0b 	tsteq	r5, fp, lsl #22
    14fc:	1c000013 	stcne	0, cr0, [r0], {19}
    1500:	0b0b0117 	bleq	2c1964 <__bss_end__+0x2b6f74>
    1504:	053b0b3a 	ldreq	r0, [fp, #-2874]!	; 0xb3a
    1508:	00001301 	andeq	r1, r0, r1, lsl #6
    150c:	03000d1d 	movweq	r0, #3357	; 0xd1d
    1510:	3b0b3a0e 	blcc	2cfd50 <__bss_end__+0x2c5360>
    1514:	00134905 	andseq	r4, r3, r5, lsl #18
    1518:	01151e00 	tsteq	r5, r0, lsl #28
    151c:	13011927 	movwne	r1, #6439	; 0x1927
    1520:	341f0000 	ldrcc	r0, [pc], #-0	; 1528 <__code_start__-0x6ad8>
    1524:	3a0e0300 	bcc	38212c <__bss_end__+0x37773c>
    1528:	49053b0b 	stmdbmi	r5, {r0, r1, r3, r8, r9, fp, ip, sp}
    152c:	3c193f13 	ldccc	15, cr3, [r9], {19}
    1530:	20000019 	andcs	r0, r0, r9, lsl r0
    1534:	0e030034 	mcreq	0, 0, r0, cr3, cr4, {1}
    1538:	0b3b0b3a 	bleq	ec4228 <__bss_end__+0xeb9838>
    153c:	193f1349 	ldmdbne	pc!, {r0, r3, r6, r8, r9, ip}	; <UNPREDICTABLE>
    1540:	0000193c 	andeq	r1, r0, ip, lsr r9
    1544:	0b010421 	bleq	425d0 <__bss_end__+0x37be0>
    1548:	3a13490b 	bcc	4d397c <__bss_end__+0x4c8f8c>
    154c:	010b3b0b 	tsteq	fp, fp, lsl #22
    1550:	22000013 	andcs	r0, r0, #19
    1554:	0e030028 	cdpeq	0, 0, cr0, cr3, cr8, {1}
    1558:	00000b1c 	andeq	r0, r0, ip, lsl fp
    155c:	03003423 	movweq	r3, #1059	; 0x423
    1560:	3b0b3a0e 	blcc	2cfda0 <__bss_end__+0x2c53b0>
    1564:	1c13490b 	ldcne	9, cr4, [r3], {11}
    1568:	24000006 	strcs	r0, [r0], #-6
    156c:	193f012e 	ldmdbne	pc!, {r1, r2, r3, r5, r8}	; <UNPREDICTABLE>
    1570:	0b3a0e03 	bleq	e84d84 <__bss_end__+0xe7a394>
    1574:	19270b3b 	stmdbne	r7!, {r0, r1, r3, r4, r5, r8, r9, fp}
    1578:	01111349 	tsteq	r1, r9, asr #6
    157c:	18400612 	stmdane	r0, {r1, r4, r9, sl}^
    1580:	01194297 			; <UNDEFINED> instruction: 0x01194297
    1584:	25000013 	strcs	r0, [r0, #-19]
    1588:	00018289 	andeq	r8, r1, r9, lsl #5
    158c:	13310111 	teqne	r1, #1073741828	; 0x40000004
    1590:	2e260000 	cdpcs	0, 2, cr0, cr6, cr0, {0}
    1594:	03193f01 	tsteq	r9, #1, 30
    1598:	3b0b3a0e 	blcc	2cfdd8 <__bss_end__+0x2c53e8>
    159c:	1119270b 	tstne	r9, fp, lsl #14
    15a0:	40061201 	andmi	r1, r6, r1, lsl #4
    15a4:	19429718 	stmdbne	r2, {r3, r4, r8, r9, sl, ip, pc}^
    15a8:	00001301 	andeq	r1, r0, r1, lsl #6
    15ac:	03000527 	movweq	r0, #1319	; 0x527
    15b0:	3b0b3a08 	blcc	2cfdd8 <__bss_end__+0x2c53e8>
    15b4:	0213490b 	andseq	r4, r3, #180224	; 0x2c000
    15b8:	28000017 	stmdacs	r0, {r0, r1, r2, r4}
    15bc:	01018289 	smlabbeq	r1, r9, r2, r8
    15c0:	13310111 	teqne	r1, #1073741828	; 0x40000004
    15c4:	00001301 	andeq	r1, r0, r1, lsl #6
    15c8:	01828a29 	orreq	r8, r2, r9, lsr #20
    15cc:	91180200 	tstls	r8, r0, lsl #4
    15d0:	00001842 	andeq	r1, r0, r2, asr #16
    15d4:	0300342a 	movweq	r3, #1066	; 0x42a
    15d8:	3b0b3a08 	blcc	2cfe00 <__bss_end__+0x2c5410>
    15dc:	0213490b 	andseq	r4, r3, #180224	; 0x2c000
    15e0:	2b000018 	blcs	1648 <__code_start__-0x69b8>
    15e4:	01018289 	smlabbeq	r1, r9, r2, r8
    15e8:	13310111 	teqne	r1, #1073741828	; 0x40000004
    15ec:	2e2c0000 	cdpcs	0, 2, cr0, cr12, cr0, {0}
    15f0:	3a0e0301 	bcc	3821fc <__bss_end__+0x37780c>
    15f4:	270b3b0b 	strcs	r3, [fp, -fp, lsl #22]
    15f8:	12011119 	andne	r1, r1, #1073741830	; 0x40000006
    15fc:	97184006 	ldrls	r4, [r8, -r6]
    1600:	13011942 	movwne	r1, #6466	; 0x1942
    1604:	052d0000 	streq	r0, [sp, #-0]!
    1608:	3a0e0300 	bcc	382210 <__bss_end__+0x377820>
    160c:	490b3b0b 	stmdbmi	fp, {r0, r1, r3, r8, r9, fp, ip, sp}
    1610:	00170213 	andseq	r0, r7, r3, lsl r2
    1614:	00352e00 	eorseq	r2, r5, r0, lsl #28
    1618:	2e2f0000 	cdpcs	0, 2, cr0, cr15, cr0, {0}
    161c:	3c193f00 	ldccc	15, cr3, [r9], {-0}
    1620:	030e6e19 	movweq	r6, #60953	; 0xee19
    1624:	3b0b3a0e 	blcc	2cfe64 <__bss_end__+0x2c5474>
    1628:	0000000b 	andeq	r0, r0, fp
    162c:	25011101 	strcs	r1, [r1, #-257]	; 0x101
    1630:	030b130e 	movweq	r1, #45838	; 0xb30e
    1634:	110e1b0e 	tstne	lr, lr, lsl #22
    1638:	10061201 	andne	r1, r6, r1, lsl #4
    163c:	02000017 	andeq	r0, r0, #23
    1640:	0b0b0024 	bleq	2c16d8 <__bss_end__+0x2b6ce8>
    1644:	08030b3e 	stmdaeq	r3, {r1, r2, r3, r4, r5, r8, r9, fp}
    1648:	24030000 	strcs	r0, [r3], #-0
    164c:	3e0b0b00 	vmlacc.f64	d0, d11, d0
    1650:	000e030b 	andeq	r0, lr, fp, lsl #6
    1654:	00260400 	eoreq	r0, r6, r0, lsl #8
    1658:	00001349 	andeq	r1, r0, r9, asr #6
    165c:	03001605 	movweq	r1, #1541	; 0x605
    1660:	3b0b3a0e 	blcc	2cfea0 <__bss_end__+0x2c54b0>
    1664:	0013490b 	andseq	r4, r3, fp, lsl #18
    1668:	00160600 	andseq	r0, r6, r0, lsl #12
    166c:	0b3a0e03 	bleq	e84e80 <__bss_end__+0xe7a490>
    1670:	1349053b 	movtne	r0, #38203	; 0x953b
    1674:	17070000 	strne	r0, [r7, -r0]
    1678:	3a0b0b01 	bcc	2c4284 <__bss_end__+0x2b9894>
    167c:	010b3b0b 	tsteq	fp, fp, lsl #22
    1680:	08000013 	stmdaeq	r0, {r0, r1, r4}
    1684:	0e03000d 	cdpeq	0, 0, cr0, cr3, cr13, {0}
    1688:	0b3b0b3a 	bleq	ec4378 <__bss_end__+0xeb9988>
    168c:	00001349 	andeq	r1, r0, r9, asr #6
    1690:	49010109 	stmdbmi	r1, {r0, r3, r8}
    1694:	00130113 	andseq	r0, r3, r3, lsl r1
    1698:	00210a00 	eoreq	r0, r1, r0, lsl #20
    169c:	0b2f1349 	bleq	bc63c8 <__bss_end__+0xbbb9d8>
    16a0:	130b0000 	movwne	r0, #45056	; 0xb000
    16a4:	3a0b0b01 	bcc	2c42b0 <__bss_end__+0x2b98c0>
    16a8:	010b3b0b 	tsteq	fp, fp, lsl #22
    16ac:	0c000013 	stceq	0, cr0, [r0], {19}
    16b0:	0e03000d 	cdpeq	0, 0, cr0, cr3, cr13, {0}
    16b4:	0b3b0b3a 	bleq	ec43a4 <__bss_end__+0xeb99b4>
    16b8:	0b381349 	bleq	e063e4 <__bss_end__+0xdfb9f4>
    16bc:	0f0d0000 	svceq	0x000d0000
    16c0:	000b0b00 	andeq	r0, fp, r0, lsl #22
    16c4:	000f0e00 	andeq	r0, pc, r0, lsl #28
    16c8:	13490b0b 	movtne	r0, #39691	; 0x9b0b
    16cc:	130f0000 	movwne	r0, #61440	; 0xf000
    16d0:	0b0e0301 	bleq	3822dc <__bss_end__+0x3778ec>
    16d4:	3b0b3a0b 	blcc	2cff08 <__bss_end__+0x2c5518>
    16d8:	0013010b 	andseq	r0, r3, fp, lsl #2
    16dc:	000d1000 	andeq	r1, sp, r0
    16e0:	0b3a0803 	bleq	e836f4 <__bss_end__+0xe78d04>
    16e4:	13490b3b 	movtne	r0, #39739	; 0x9b3b
    16e8:	00000b38 	andeq	r0, r0, r8, lsr fp
    16ec:	03011311 	movweq	r1, #4881	; 0x1311
    16f0:	3a050b0e 	bcc	144330 <__bss_end__+0x139940>
    16f4:	010b3b0b 	tsteq	fp, fp, lsl #22
    16f8:	12000013 	andne	r0, r0, #19
    16fc:	0e03000d 	cdpeq	0, 0, cr0, cr3, cr13, {0}
    1700:	0b3b0b3a 	bleq	ec43f0 <__bss_end__+0xeb9a00>
    1704:	05381349 	ldreq	r1, [r8, #-841]!	; 0x349
    1708:	15130000 	ldrne	r0, [r3, #-0]
    170c:	00192700 	andseq	r2, r9, r0, lsl #14
    1710:	01151400 	tsteq	r5, r0, lsl #8
    1714:	13491927 	movtne	r1, #39207	; 0x9927
    1718:	00001301 	andeq	r1, r0, r1, lsl #6
    171c:	49000515 	stmdbmi	r0, {r0, r2, r4, r8, sl}
    1720:	16000013 			; <UNDEFINED> instruction: 0x16000013
    1724:	0e030113 	mcreq	1, 0, r0, cr3, cr3, {0}
    1728:	0b3a050b 	bleq	e82b5c <__bss_end__+0xe7816c>
    172c:	1301053b 	movwne	r0, #5435	; 0x153b
    1730:	0d170000 	ldceq	0, cr0, [r7, #-0]
    1734:	3a0e0300 	bcc	38233c <__bss_end__+0x37794c>
    1738:	49053b0b 	stmdbmi	r5, {r0, r1, r3, r8, r9, fp, ip, sp}
    173c:	000b3813 	andeq	r3, fp, r3, lsl r8
    1740:	000d1800 	andeq	r1, sp, r0, lsl #16
    1744:	0b3a0e03 	bleq	e84f58 <__bss_end__+0xe7a568>
    1748:	1349053b 	movtne	r0, #38203	; 0x953b
    174c:	00000538 	andeq	r0, r0, r8, lsr r5
    1750:	03011319 	movweq	r1, #4889	; 0x1319
    1754:	3a0b0b0e 	bcc	2c4394 <__bss_end__+0x2b99a4>
    1758:	01053b0b 	tsteq	r5, fp, lsl #22
    175c:	1a000013 	bne	17b0 <__code_start__-0x6850>
    1760:	0b0b0113 	bleq	2c1bb4 <__bss_end__+0x2b71c4>
    1764:	053b0b3a 	ldreq	r0, [fp, #-2874]!	; 0xb3a
    1768:	00001301 	andeq	r1, r0, r1, lsl #6
    176c:	0b01171b 	bleq	473e0 <__bss_end__+0x3c9f0>
    1770:	3b0b3a0b 	blcc	2cffa4 <__bss_end__+0x2c55b4>
    1774:	00130105 	andseq	r0, r3, r5, lsl #2
    1778:	000d1c00 	andeq	r1, sp, r0, lsl #24
    177c:	0b3a0e03 	bleq	e84f90 <__bss_end__+0xe7a5a0>
    1780:	1349053b 	movtne	r0, #38203	; 0x953b
    1784:	151d0000 	ldrne	r0, [sp, #-0]
    1788:	01192701 	tsteq	r9, r1, lsl #14
    178c:	1e000013 	mcrne	0, 0, r0, cr0, cr3, {0}
    1790:	0e030034 	mcreq	0, 0, r0, cr3, cr4, {1}
    1794:	053b0b3a 	ldreq	r0, [fp, #-2874]!	; 0xb3a
    1798:	193f1349 	ldmdbne	pc!, {r0, r3, r6, r8, r9, ip}	; <UNPREDICTABLE>
    179c:	0000193c 	andeq	r1, r0, ip, lsr r9
    17a0:	0300341f 	movweq	r3, #1055	; 0x41f
    17a4:	3b0b3a0e 	blcc	2cffe4 <__bss_end__+0x2c55f4>
    17a8:	3f13490b 	svccc	0x0013490b
    17ac:	00193c19 	andseq	r3, r9, r9, lsl ip
    17b0:	01042000 	mrseq	r2, (UNDEF: 4)
    17b4:	13490b0b 	movtne	r0, #39691	; 0x9b0b
    17b8:	0b3b0b3a 	bleq	ec44a8 <__bss_end__+0xeb9ab8>
    17bc:	00001301 	andeq	r1, r0, r1, lsl #6
    17c0:	03002821 	movweq	r2, #2081	; 0x821
    17c4:	000b1c0e 	andeq	r1, fp, lr, lsl #24
    17c8:	00342200 	eorseq	r2, r4, r0, lsl #4
    17cc:	0b3a0e03 	bleq	e84fe0 <__bss_end__+0xe7a5f0>
    17d0:	13490b3b 	movtne	r0, #39739	; 0x9b3b
    17d4:	0000061c 	andeq	r0, r0, ip, lsl r6
    17d8:	3f012e23 	svccc	0x00012e23
    17dc:	3a0e0319 	bcc	382448 <__bss_end__+0x377a58>
    17e0:	270b3b0b 	strcs	r3, [fp, -fp, lsl #22]
    17e4:	11134919 	tstne	r3, r9, lsl r9
    17e8:	40061201 	andmi	r1, r6, r1, lsl #4
    17ec:	19429718 	stmdbne	r2, {r3, r4, r8, r9, sl, ip, pc}^
    17f0:	00001301 	andeq	r1, r0, r1, lsl #6
    17f4:	03000524 	movweq	r0, #1316	; 0x524
    17f8:	3b0b3a08 	blcc	2d0020 <__bss_end__+0x2c5630>
    17fc:	0213490b 	andseq	r4, r3, #180224	; 0x2c000
    1800:	25000017 	strcs	r0, [r0, #-23]
    1804:	0e030034 	mcreq	0, 0, r0, cr3, cr4, {1}
    1808:	0b3b0b3a 	bleq	ec44f8 <__bss_end__+0xeb9b08>
    180c:	17021349 	strne	r1, [r2, -r9, asr #6]
    1810:	34260000 	strtcc	r0, [r6], #-0
    1814:	3a080300 	bcc	20241c <__bss_end__+0x1f7a2c>
    1818:	490b3b0b 	stmdbmi	fp, {r0, r1, r3, r8, r9, fp, ip, sp}
    181c:	00170213 	andseq	r0, r7, r3, lsl r2
    1820:	82892700 	addhi	r2, r9, #0, 14
    1824:	01110101 	tsteq	r1, r1, lsl #2
    1828:	00001331 	andeq	r1, r0, r1, lsr r3
    182c:	01828a28 	orreq	r8, r2, r8, lsr #20
    1830:	91180200 	tstls	r8, r0, lsl #4
    1834:	00001842 	andeq	r1, r0, r2, asr #16
    1838:	3f012e29 	svccc	0x00012e29
    183c:	3a0e0319 	bcc	3824a8 <__bss_end__+0x377ab8>
    1840:	270b3b0b 	strcs	r3, [fp, -fp, lsl #22]
    1844:	12011119 	andne	r1, r1, #1073741830	; 0x40000006
    1848:	97184006 	ldrls	r4, [r8, -r6]
    184c:	13011942 	movwne	r1, #6466	; 0x1942
    1850:	892a0000 	stmdbhi	sl!, {}	; <UNPREDICTABLE>
    1854:	11010182 	smlabbne	r1, r2, r1, r0
    1858:	01133101 	tsteq	r3, r1, lsl #2
    185c:	2b000013 	blcs	18b0 <__code_start__-0x6750>
    1860:	00018289 	andeq	r8, r1, r9, lsl #5
    1864:	13310111 	teqne	r1, #1073741828	; 0x40000004
    1868:	052c0000 	streq	r0, [ip, #-0]!
    186c:	3a0e0300 	bcc	382474 <__bss_end__+0x377a84>
    1870:	490b3b0b 	stmdbmi	fp, {r0, r1, r3, r8, r9, fp, ip, sp}
    1874:	00170213 	andseq	r0, r7, r3, lsl r2
    1878:	00342d00 	eorseq	r2, r4, r0, lsl #26
    187c:	0b3a0803 	bleq	e83890 <__bss_end__+0xe78ea0>
    1880:	13490b3b 	movtne	r0, #39739	; 0x9b3b
    1884:	00001802 	andeq	r1, r0, r2, lsl #16
    1888:	3f002e2e 	svccc	0x00002e2e
    188c:	6e193c19 	mrcvs	12, 0, r3, cr9, cr9, {0}
    1890:	3a0e030e 	bcc	3824d0 <__bss_end__+0x377ae0>
    1894:	000b3b0b 	andeq	r3, fp, fp, lsl #22
	...

Disassembly of section .debug_loc:

00000000 <.debug_loc>:
       0:	00000000 	andeq	r0, r0, r0
       4:	00000057 	andeq	r0, r0, r7, asr r0
       8:	57500001 	ldrbpl	r0, [r0, -r1]
       c:	78000000 	stmdavc	r0, {}	; <UNPREDICTABLE>
      10:	01000000 	mrseq	r0, (UNDEF: 0)
      14:	00785400 	rsbseq	r5, r8, r0, lsl #8
      18:	00cc0000 	sbceq	r0, ip, r0
      1c:	00010000 	andeq	r0, r1, r0
      20:	0000cc50 	andeq	ip, r0, r0, asr ip
      24:	0000d000 	andeq	sp, r0, r0
      28:	54000100 	strpl	r0, [r0], #-256	; 0x100
      2c:	000000d0 	ldrdeq	r0, [r0], -r0	; <UNPREDICTABLE>
      30:	000000d4 	ldrdeq	r0, [r0], -r4
      34:	d4500001 	ldrble	r0, [r0], #-1
      38:	d8000000 	stmdale	r0, {}	; <UNPREDICTABLE>
      3c:	01000000 	mrseq	r0, (UNDEF: 0)
      40:	00d85400 	sbcseq	r5, r8, r0, lsl #8
      44:	00dc0000 	sbcseq	r0, ip, r0
      48:	00010000 	andeq	r0, r1, r0
      4c:	0000dc50 	andeq	sp, r0, r0, asr ip
      50:	0000e000 	andeq	lr, r0, r0
      54:	54000100 	strpl	r0, [r0], #-256	; 0x100
      58:	000000e0 	andeq	r0, r0, r0, ror #1
      5c:	000000e4 	andeq	r0, r0, r4, ror #1
      60:	e4500001 	ldrb	r0, [r0], #-1
      64:	e8000000 	stmda	r0, {}	; <UNPREDICTABLE>
      68:	01000000 	mrseq	r0, (UNDEF: 0)
      6c:	00e85400 	rsceq	r5, r8, r0, lsl #8
      70:	00ec0000 	rsceq	r0, ip, r0
      74:	00010000 	andeq	r0, r1, r0
      78:	0000ec50 	andeq	lr, r0, r0, asr ip
      7c:	0000f000 	andeq	pc, r0, r0
      80:	54000100 	strpl	r0, [r0], #-256	; 0x100
      84:	000000f0 	strdeq	r0, [r0], -r0	; <UNPREDICTABLE>
      88:	000000f3 	strdeq	r0, [r0], -r3
      8c:	f3500001 	vhadd.u16	d16, d0, d1
      90:	10000000 	andne	r0, r0, r0
      94:	01000001 	tsteq	r0, r1
      98:	01105400 	tsteq	r0, r0, lsl #8
      9c:	01140000 	tsteq	r4, r0
      a0:	00010000 	andeq	r0, r1, r0
      a4:	00011450 	andeq	r1, r1, r0, asr r4
      a8:	00011800 	andeq	r1, r1, r0, lsl #16
      ac:	54000100 	strpl	r0, [r0], #-256	; 0x100
      b0:	00000118 	andeq	r0, r0, r8, lsl r1
      b4:	0000011c 	andeq	r0, r0, ip, lsl r1
      b8:	1c500001 	mrrcne	0, 0, r0, r0, cr1	; <UNPREDICTABLE>
      bc:	24000001 	strcs	r0, [r0], #-1
      c0:	01000001 	tsteq	r0, r1
      c4:	01245400 	teqeq	r4, r0, lsl #8
      c8:	01580000 	cmpeq	r8, r0
      cc:	00040000 	andeq	r0, r4, r0
      d0:	9f5001f3 	svcls	0x005001f3
	...
      dc:	0000000c 	andeq	r0, r0, ip
      e0:	00000057 	andeq	r0, r0, r7, asr r0
      e4:	57500001 	ldrbpl	r0, [r0, -r1]
      e8:	78000000 	stmdavc	r0, {}	; <UNPREDICTABLE>
      ec:	01000000 	mrseq	r0, (UNDEF: 0)
      f0:	00785400 	rsbseq	r5, r8, r0, lsl #8
      f4:	00cc0000 	sbceq	r0, ip, r0
      f8:	00010000 	andeq	r0, r1, r0
      fc:	0000cc50 	andeq	ip, r0, r0, asr ip
     100:	0000d000 	andeq	sp, r0, r0
     104:	54000100 	strpl	r0, [r0], #-256	; 0x100
     108:	000000d0 	ldrdeq	r0, [r0], -r0	; <UNPREDICTABLE>
     10c:	000000d4 	ldrdeq	r0, [r0], -r4
     110:	d4500001 	ldrble	r0, [r0], #-1
     114:	d8000000 	stmdale	r0, {}	; <UNPREDICTABLE>
     118:	01000000 	mrseq	r0, (UNDEF: 0)
     11c:	00d85400 	sbcseq	r5, r8, r0, lsl #8
     120:	00dc0000 	sbcseq	r0, ip, r0
     124:	00010000 	andeq	r0, r1, r0
     128:	0000dc50 	andeq	sp, r0, r0, asr ip
     12c:	0000e000 	andeq	lr, r0, r0
     130:	54000100 	strpl	r0, [r0], #-256	; 0x100
     134:	000000e0 	andeq	r0, r0, r0, ror #1
     138:	000000e4 	andeq	r0, r0, r4, ror #1
     13c:	e4500001 	ldrb	r0, [r0], #-1
     140:	e8000000 	stmda	r0, {}	; <UNPREDICTABLE>
     144:	01000000 	mrseq	r0, (UNDEF: 0)
     148:	00e85400 	rsceq	r5, r8, r0, lsl #8
     14c:	00ec0000 	rsceq	r0, ip, r0
     150:	00010000 	andeq	r0, r1, r0
     154:	0000ec50 	andeq	lr, r0, r0, asr ip
     158:	0000f000 	andeq	pc, r0, r0
     15c:	54000100 	strpl	r0, [r0], #-256	; 0x100
     160:	000000f0 	strdeq	r0, [r0], -r0	; <UNPREDICTABLE>
     164:	000000f3 	strdeq	r0, [r0], -r3
     168:	f3500001 	vhadd.u16	d16, d0, d1
     16c:	10000000 	andne	r0, r0, r0
     170:	01000001 	tsteq	r0, r1
     174:	01105400 	tsteq	r0, r0, lsl #8
     178:	01140000 	tsteq	r4, r0
     17c:	00010000 	andeq	r0, r1, r0
     180:	00011450 	andeq	r1, r1, r0, asr r4
     184:	00011800 	andeq	r1, r1, r0, lsl #16
     188:	54000100 	strpl	r0, [r0], #-256	; 0x100
     18c:	00000118 	andeq	r0, r0, r8, lsl r1
     190:	0000011c 	andeq	r0, r0, ip, lsl r1
     194:	1c500001 	mrrcne	0, 0, r0, r0, cr1	; <UNPREDICTABLE>
     198:	24000001 	strcs	r0, [r0], #-1
     19c:	01000001 	tsteq	r0, r1
     1a0:	01245400 	teqeq	r4, r0, lsl #8
     1a4:	01580000 	cmpeq	r8, r0
     1a8:	00040000 	andeq	r0, r4, r0
     1ac:	9f5001f3 	svcls	0x005001f3
	...
     1b8:	00000158 	andeq	r0, r0, r8, asr r1
     1bc:	00000173 	andeq	r0, r0, r3, ror r1
     1c0:	73500001 	cmpvc	r0, #1
     1c4:	a8000001 	stmdage	r0, {r0}
     1c8:	04000001 	streq	r0, [r0], #-1
     1cc:	5001f300 	andpl	pc, r1, r0, lsl #6
     1d0:	0001a89f 	muleq	r1, pc, r8	; <UNPREDICTABLE>
     1d4:	0001b000 	andeq	fp, r1, r0
     1d8:	50000100 	andpl	r0, r0, r0, lsl #2
     1dc:	000001b0 			; <UNDEFINED> instruction: 0x000001b0
     1e0:	000001f0 	strdeq	r0, [r0], -r0	; <UNPREDICTABLE>
     1e4:	01f30004 	mvnseq	r0, r4
     1e8:	00009f50 	andeq	r9, r0, r0, asr pc
     1ec:	00000000 	andeq	r0, r0, r0
     1f0:	01940000 	orrseq	r0, r4, r0
     1f4:	01a80000 			; <UNDEFINED> instruction: 0x01a80000
     1f8:	00010000 	andeq	r0, r1, r0
     1fc:	0001b453 	andeq	fp, r1, r3, asr r4
     200:	0001c400 	andeq	ip, r1, r0, lsl #8
     204:	53000100 	movwpl	r0, #256	; 0x100
	...
     210:	000001f0 	strdeq	r0, [r0], -r0	; <UNPREDICTABLE>
     214:	0000021c 	andeq	r0, r0, ip, lsl r2
     218:	1c500001 	mrrcne	0, 0, r0, r0, cr1	; <UNPREDICTABLE>
     21c:	5c000002 	stcpl	0, cr0, [r0], {2}
     220:	04000003 	streq	r0, [r0], #-3
     224:	5001f300 	andpl	pc, r1, r0, lsl #6
     228:	0000009f 	muleq	r0, pc, r0	; <UNPREDICTABLE>
     22c:	00000000 	andeq	r0, r0, r0
     230:	0001f000 	andeq	pc, r1, r0
     234:	00022000 	andeq	r2, r2, r0
     238:	51000100 	mrspl	r0, (UNDEF: 16)
     23c:	00000220 	andeq	r0, r0, r0, lsr #4
     240:	00000320 	andeq	r0, r0, r0, lsr #6
     244:	20540001 	subscs	r0, r4, r1
     248:	5c000003 	stcpl	0, cr0, [r0], {3}
     24c:	04000003 	streq	r0, [r0], #-3
     250:	5101f300 	mrspl	pc, SP_irq	; <UNPREDICTABLE>
     254:	0000009f 	muleq	r0, pc, r0	; <UNPREDICTABLE>
     258:	00000000 	andeq	r0, r0, r0
     25c:	0001f000 	andeq	pc, r1, r0
     260:	00022400 	andeq	r2, r2, r0, lsl #8
     264:	52000100 	andpl	r0, r0, #0, 2
     268:	00000224 	andeq	r0, r0, r4, lsr #4
     26c:	0000035c 	andeq	r0, r0, ip, asr r3
     270:	01f30004 	mvnseq	r0, r4
     274:	00009f52 	andeq	r9, r0, r2, asr pc
     278:	00000000 	andeq	r0, r0, r0
     27c:	02300000 	eorseq	r0, r0, #0
     280:	02340000 	eorseq	r0, r4, #0
     284:	00010000 	andeq	r0, r1, r0
     288:	00000053 	andeq	r0, r0, r3, asr r0
     28c:	00000000 	andeq	r0, r0, r0
     290:	00037c00 	andeq	r7, r3, r0, lsl #24
     294:	00042400 	andeq	r2, r4, r0, lsl #8
     298:	54000100 	strpl	r0, [r0], #-256	; 0x100
	...
     2a4:	000003f8 	strdeq	r0, [r0], -r8
     2a8:	00000424 	andeq	r0, r0, r4, lsr #8
     2ac:	00540001 	subseq	r0, r4, r1
     2b0:	00000000 	andeq	r0, r0, r0
     2b4:	28000000 	stmdacs	r0, {}	; <UNPREDICTABLE>
     2b8:	2b000004 	blcs	2d0 <__code_start__-0x7d30>
     2bc:	01000004 	tsteq	r0, r4
     2c0:	00005000 	andeq	r5, r0, r0
     2c4:	00000000 	andeq	r0, r0, r0
     2c8:	04400000 	strbeq	r0, [r0], #-0
     2cc:	044b0000 	strbeq	r0, [fp], #-0
     2d0:	00010000 	andeq	r0, r1, r0
     2d4:	00046c53 	andeq	r6, r4, r3, asr ip
     2d8:	00047000 	andeq	r7, r4, r0
     2dc:	53000100 	movwpl	r0, #256	; 0x100
	...
     2ec:	00000023 	andeq	r0, r0, r3, lsr #32
     2f0:	23500001 	cmpcs	r0, #1
     2f4:	44000000 	strmi	r0, [r0], #-0
     2f8:	04000000 	streq	r0, [r0], #-0
     2fc:	5001f300 	andpl	pc, r1, r0, lsl #6
     300:	0000449f 	muleq	r0, pc, r4	; <UNPREDICTABLE>
     304:	00005f00 	andeq	r5, r0, r0, lsl #30
     308:	50000100 	andpl	r0, r0, r0, lsl #2
     30c:	0000005f 	andeq	r0, r0, pc, asr r0
     310:	00000080 	andeq	r0, r0, r0, lsl #1
     314:	01f30004 	mvnseq	r0, r4
     318:	00809f50 	addeq	r9, r0, r0, asr pc
     31c:	00b00000 	adcseq	r0, r0, r0
     320:	00010000 	andeq	r0, r1, r0
     324:	00000050 	andeq	r0, r0, r0, asr r0
	...
     330:	00002300 	andeq	r2, r0, r0, lsl #6
     334:	51000100 	mrspl	r0, (UNDEF: 16)
     338:	00000023 	andeq	r0, r0, r3, lsr #32
     33c:	00000044 	andeq	r0, r0, r4, asr #32
     340:	01f30004 	mvnseq	r0, r4
     344:	00449f51 	subeq	r9, r4, r1, asr pc
     348:	005f0000 	subseq	r0, pc, r0
     34c:	00010000 	andeq	r0, r1, r0
     350:	00005f51 	andeq	r5, r0, r1, asr pc
     354:	00008000 	andeq	r8, r0, r0
     358:	f3000400 	vshl.u8	d0, d0, d0
     35c:	809f5101 	addshi	r5, pc, r1, lsl #2
     360:	b0000000 	andlt	r0, r0, r0
     364:	01000000 	mrseq	r0, (UNDEF: 0)
     368:	00005100 	andeq	r5, r0, r0, lsl #2
     36c:	00000000 	andeq	r0, r0, r0
     370:	00100000 	andseq	r0, r0, r0
     374:	00230000 	eoreq	r0, r3, r0
     378:	00010000 	andeq	r0, r1, r0
     37c:	00004453 	andeq	r4, r0, r3, asr r4
     380:	00004800 	andeq	r4, r0, r0, lsl #16
     384:	53000100 	movwpl	r0, #256	; 0x100
     388:	00000048 	andeq	r0, r0, r8, asr #32
     38c:	000000b0 	strheq	r0, [r0], -r0	; <UNPREDICTABLE>
     390:	ff0a0004 			; <UNDEFINED> instruction: 0xff0a0004
     394:	00009f01 	andeq	r9, r0, r1, lsl #30
     398:	00000000 	andeq	r0, r0, r0
     39c:	00440000 	subeq	r0, r4, r0
     3a0:	005f0000 	subseq	r0, pc, r0
     3a4:	00010000 	andeq	r0, r1, r0
     3a8:	00005f50 	andeq	r5, r0, r0, asr pc
     3ac:	00008000 	andeq	r8, r0, r0
     3b0:	f3000400 	vshl.u8	d0, d0, d0
     3b4:	809f5001 	addshi	r5, pc, r1
     3b8:	b0000000 	andlt	r0, r0, r0
     3bc:	01000000 	mrseq	r0, (UNDEF: 0)
     3c0:	00005000 	andeq	r5, r0, r0
     3c4:	00000000 	andeq	r0, r0, r0
     3c8:	000c0000 	andeq	r0, ip, r0
     3cc:	00100000 	andseq	r0, r0, r0
     3d0:	00010000 	andeq	r0, r1, r0
     3d4:	00000053 	andeq	r0, r0, r3, asr r0
     3d8:	00000000 	andeq	r0, r0, r0
     3dc:	00001000 	andeq	r1, r0, r0
     3e0:	00002300 	andeq	r2, r0, r0, lsl #6
     3e4:	53000100 	movwpl	r0, #256	; 0x100
     3e8:	00000044 	andeq	r0, r0, r4, asr #32
     3ec:	0000004c 	andeq	r0, r0, ip, asr #32
     3f0:	00530001 	subseq	r0, r3, r1
     3f4:	00000000 	andeq	r0, r0, r0
     3f8:	18000000 	stmdane	r0, {}	; <UNPREDICTABLE>
     3fc:	23000000 	movwcs	r0, #0
     400:	01000000 	mrseq	r0, (UNDEF: 0)
     404:	00445200 	subeq	r5, r4, r0, lsl #4
     408:	00540000 	subseq	r0, r4, r0
     40c:	00010000 	andeq	r0, r1, r0
     410:	00000052 	andeq	r0, r0, r2, asr r0
     414:	00000000 	andeq	r0, r0, r0
     418:	00005400 	andeq	r5, r0, r0, lsl #8
     41c:	00005f00 	andeq	r5, r0, r0, lsl #30
     420:	52000100 	andpl	r0, r0, #0, 2
     424:	00000080 	andeq	r0, r0, r0, lsl #1
     428:	000000b0 	strheq	r0, [r0], -r0	; <UNPREDICTABLE>
     42c:	00520001 	subseq	r0, r2, r1
     430:	00000000 	andeq	r0, r0, r0
     434:	b0000000 	andlt	r0, r0, r0
     438:	d3000000 	movwle	r0, #0
     43c:	01000000 	mrseq	r0, (UNDEF: 0)
     440:	00d35000 	sbcseq	r5, r3, r0
     444:	00ec0000 	rsceq	r0, ip, r0
     448:	00040000 	andeq	r0, r4, r0
     44c:	9f5001f3 	svcls	0x005001f3
     450:	000000ec 	andeq	r0, r0, ip, ror #1
     454:	000000ff 	strdeq	r0, [r0], -pc	; <UNPREDICTABLE>
     458:	ff500001 			; <UNDEFINED> instruction: 0xff500001
     45c:	20000000 	andcs	r0, r0, r0
     460:	04000001 	streq	r0, [r0], #-1
     464:	5001f300 	andpl	pc, r1, r0, lsl #6
     468:	0001209f 	muleq	r1, pc, r0	; <UNPREDICTABLE>
     46c:	00013300 	andeq	r3, r1, r0, lsl #6
     470:	50000100 	andpl	r0, r0, r0, lsl #2
     474:	00000133 	andeq	r0, r0, r3, lsr r1
     478:	00000154 	andeq	r0, r0, r4, asr r1
     47c:	01f30004 	mvnseq	r0, r4
     480:	01549f50 	cmpeq	r4, r0, asr pc
     484:	015c0000 	cmpeq	ip, r0
     488:	00010000 	andeq	r0, r1, r0
     48c:	00015c50 	andeq	r5, r1, r0, asr ip
     490:	00015f00 	andeq	r5, r1, r0, lsl #30
     494:	51000100 	mrspl	r0, (UNDEF: 16)
     498:	0000015f 	andeq	r0, r0, pc, asr r1
     49c:	0000018c 	andeq	r0, r0, ip, lsl #3
     4a0:	01f30004 	mvnseq	r0, r4
     4a4:	00009f50 	andeq	r9, r0, r0, asr pc
     4a8:	00000000 	andeq	r0, r0, r0
     4ac:	00c40000 	sbceq	r0, r4, r0
     4b0:	00c80000 	sbceq	r0, r8, r0
     4b4:	00010000 	andeq	r0, r1, r0
     4b8:	00000053 	andeq	r0, r0, r3, asr r0
     4bc:	00000000 	andeq	r0, r0, r0
     4c0:	0000f000 	andeq	pc, r0, r0
     4c4:	0000f400 	andeq	pc, r0, r0, lsl #8
     4c8:	53000100 	movwpl	r0, #256	; 0x100
     4cc:	000000f4 	strdeq	r0, [r0], -r4
     4d0:	000000ff 	strdeq	r0, [r0], -pc	; <UNPREDICTABLE>
     4d4:	04730003 	ldrbteq	r0, [r3], #-3
     4d8:	0001209f 	muleq	r1, pc, r0	; <UNPREDICTABLE>
     4dc:	00012400 	andeq	r2, r1, r0, lsl #8
     4e0:	73000300 	movwvc	r0, #768	; 0x300
     4e4:	00009f04 	andeq	r9, r0, r4, lsl #30
     4e8:	00000000 	andeq	r0, r0, r0
     4ec:	01d00000 	bicseq	r0, r0, r0
     4f0:	01d80000 	bicseq	r0, r8, r0
     4f4:	00010000 	andeq	r0, r1, r0
     4f8:	0001d853 	andeq	sp, r1, r3, asr r8
     4fc:	0001fc00 	andeq	pc, r1, r0, lsl #24
     500:	0a000400 	beq	1508 <__code_start__-0x6af8>
     504:	009f01e7 	addseq	r0, pc, r7, ror #3
     508:	00000000 	andeq	r0, r0, r0
     50c:	cc000000 	stcgt	0, cr0, [r0], {-0}
     510:	d0000001 	andle	r0, r0, r1
     514:	01000001 	tsteq	r0, r1
     518:	00005300 	andeq	r5, r0, r0, lsl #6
     51c:	00000000 	andeq	r0, r0, r0
     520:	01d00000 	bicseq	r0, r0, r0
     524:	01dc0000 	bicseq	r0, ip, r0
     528:	00010000 	andeq	r0, r1, r0
     52c:	00000053 	andeq	r0, r0, r3, asr r0
     530:	00000000 	andeq	r0, r0, r0
     534:	0001fc00 	andeq	pc, r1, r0, lsl #24
     538:	00021b00 	andeq	r1, r2, r0, lsl #22
     53c:	50000100 	andpl	r0, r0, r0, lsl #2
     540:	0000021b 	andeq	r0, r0, fp, lsl r2
     544:	00000234 	andeq	r0, r0, r4, lsr r2
     548:	01f30004 	mvnseq	r0, r4
     54c:	02349f50 	eorseq	r9, r4, #80, 30	; 0x140
     550:	02470000 	subeq	r0, r7, #0
     554:	00010000 	andeq	r0, r1, r0
     558:	00024750 	andeq	r4, r2, r0, asr r7
     55c:	00026800 	andeq	r6, r2, r0, lsl #16
     560:	f3000400 	vshl.u8	d0, d0, d0
     564:	689f5001 	ldmvs	pc, {r0, ip, lr}	; <UNPREDICTABLE>
     568:	70000002 	andvc	r0, r0, r2
     56c:	01000002 	tsteq	r0, r2
     570:	02705000 	rsbseq	r5, r0, #0
     574:	02730000 	rsbseq	r0, r3, #0
     578:	00010000 	andeq	r0, r1, r0
     57c:	00027351 	andeq	r7, r2, r1, asr r3
     580:	00029400 	andeq	r9, r2, r0, lsl #8
     584:	f3000400 	vshl.u8	d0, d0, d0
     588:	009f5001 	addseq	r5, pc, r1
     58c:	00000000 	andeq	r0, r0, r0
     590:	0c000000 	stceq	0, cr0, [r0], {-0}
     594:	10000002 	andne	r0, r0, r2
     598:	01000002 	tsteq	r0, r2
     59c:	00005300 	andeq	r5, r0, r0, lsl #6
     5a0:	00000000 	andeq	r0, r0, r0
     5a4:	02cc0000 	sbceq	r0, ip, #0
     5a8:	02d40000 	sbcseq	r0, r4, #0
     5ac:	00010000 	andeq	r0, r1, r0
     5b0:	0002d453 	andeq	sp, r2, r3, asr r4
     5b4:	0002f800 	andeq	pc, r2, r0, lsl #16
     5b8:	0c000600 	stceq	6, cr0, [r0], {-0}
     5bc:	004001e7 	subeq	r0, r0, r7, ror #3
     5c0:	0000009f 	muleq	r0, pc, r0	; <UNPREDICTABLE>
     5c4:	00000000 	andeq	r0, r0, r0
     5c8:	0002c800 	andeq	ip, r2, r0, lsl #16
     5cc:	0002cc00 	andeq	ip, r2, r0, lsl #24
     5d0:	53000100 	movwpl	r0, #256	; 0x100
	...
     5dc:	000002cc 	andeq	r0, r0, ip, asr #5
     5e0:	000002d8 	ldrdeq	r0, [r0], -r8
     5e4:	00530001 	subseq	r0, r3, r1
     5e8:	00000000 	andeq	r0, r0, r0
     5ec:	08000000 	stmdaeq	r0, {}	; <UNPREDICTABLE>
     5f0:	24000003 	strcs	r0, [r0], #-3
     5f4:	01000003 	tsteq	r0, r3
     5f8:	03245000 	teqeq	r4, #0
     5fc:	03280000 	teqeq	r8, #0
     600:	00040000 	andeq	r0, r4, r0
     604:	9f5001f3 	svcls	0x005001f3
     608:	00000328 	andeq	r0, r0, r8, lsr #6
     60c:	00000340 	andeq	r0, r0, r0, asr #6
     610:	40500001 	subsmi	r0, r0, r1
     614:	48000003 	stmdami	r0, {r0, r1}
     618:	04000003 	streq	r0, [r0], #-3
     61c:	5001f300 	andpl	pc, r1, r0, lsl #6
     620:	0003489f 	muleq	r3, pc, r8	; <UNPREDICTABLE>
     624:	00034c00 	andeq	r4, r3, r0, lsl #24
     628:	50000100 	andpl	r0, r0, r0, lsl #2
     62c:	0000034c 	andeq	r0, r0, ip, asr #6
     630:	0000035c 	andeq	r0, r0, ip, asr r3
     634:	01f30004 	mvnseq	r0, r4
     638:	035c9f50 	cmpeq	ip, #80, 30	; 0x140
     63c:	03600000 	cmneq	r0, #0
     640:	00010000 	andeq	r0, r1, r0
     644:	00036050 	andeq	r6, r3, r0, asr r0
     648:	00036800 	andeq	r6, r3, r0, lsl #16
     64c:	f3000400 	vshl.u8	d0, d0, d0
     650:	009f5001 	addseq	r5, pc, r1
     654:	00000000 	andeq	r0, r0, r0
     658:	08000000 	stmdaeq	r0, {}	; <UNPREDICTABLE>
     65c:	50000003 	andpl	r0, r0, r3
     660:	01000003 	tsteq	r0, r3
     664:	03505100 	cmpeq	r0, #0, 2
     668:	035c0000 	cmpeq	ip, #0
     66c:	00040000 	andeq	r0, r4, r0
     670:	9f5101f3 	svcls	0x005101f3
     674:	0000035c 	andeq	r0, r0, ip, asr r3
     678:	00000368 	andeq	r0, r0, r8, ror #6
     67c:	00510001 	subseq	r0, r1, r1
     680:	00000000 	andeq	r0, r0, r0
     684:	14000000 	strne	r0, [r0], #-0
     688:	34000003 	strcc	r0, [r0], #-3
     68c:	01000003 	tsteq	r0, r3
     690:	03345300 	teqeq	r4, #0, 6
     694:	03400000 	movteq	r0, #0
     698:	000a0000 	andeq	r0, sl, r0
     69c:	0c060070 	stceq	0, cr0, [r6], {112}	; 0x70
     6a0:	00ffffff 	ldrshteq	pc, [pc], #255	; <UNPREDICTABLE>
     6a4:	03409f1a 	movteq	r9, #3866	; 0xf1a
     6a8:	03440000 	movteq	r0, #16384	; 0x4000
     6ac:	000b0000 	andeq	r0, fp, r0
     6b0:	065001f3 			; <UNDEFINED> instruction: 0x065001f3
     6b4:	ffffff0c 			; <UNDEFINED> instruction: 0xffffff0c
     6b8:	489f1a00 	ldmmi	pc, {r9, fp, ip}	; <UNPREDICTABLE>
     6bc:	53000003 	movwpl	r0, #3
     6c0:	01000003 	tsteq	r0, r3
     6c4:	035c5300 	cmpeq	ip, #0, 6
     6c8:	03600000 	cmneq	r0, #0
     6cc:	000a0000 	andeq	r0, sl, r0
     6d0:	0c060070 	stceq	0, cr0, [r6], {112}	; 0x70
     6d4:	00ffffff 	ldrshteq	pc, [pc], #255	; <UNPREDICTABLE>
     6d8:	03609f1a 	cmneq	r0, #26, 30	; 0x68
     6dc:	03680000 	cmneq	r8, #0
     6e0:	000b0000 	andeq	r0, fp, r0
     6e4:	065001f3 			; <UNDEFINED> instruction: 0x065001f3
     6e8:	ffffff0c 			; <UNDEFINED> instruction: 0xffffff0c
     6ec:	009f1a00 	addseq	r1, pc, r0, lsl #20
	...
     6f8:	24000000 	strcs	r0, [r0], #-0
     6fc:	01000000 	mrseq	r0, (UNDEF: 0)
     700:	00245000 	eoreq	r5, r4, r0
     704:	01980000 	orrseq	r0, r8, r0
     708:	00040000 	andeq	r0, r4, r0
     70c:	9f5001f3 	svcls	0x005001f3
	...
     71c:	00000028 	andeq	r0, r0, r8, lsr #32
     720:	28510001 	ldmdacs	r1, {r0}^
     724:	64000000 	strvs	r0, [r0], #-0
     728:	01000001 	tsteq	r0, r1
     72c:	01645500 	cmneq	r4, r0, lsl #10
     730:	01980000 	orrseq	r0, r8, r0
     734:	00040000 	andeq	r0, r4, r0
     738:	9f5101f3 	svcls	0x005101f3
	...
     748:	0000002c 	andeq	r0, r0, ip, lsr #32
     74c:	2c520001 	mrrccs	0, 0, r0, r2, cr1
     750:	98000000 	stmdals	r0, {}	; <UNPREDICTABLE>
     754:	04000001 	streq	r0, [r0], #-1
     758:	5201f300 	andpl	pc, r1, #0, 6
     75c:	0000009f 	muleq	r0, pc, r0	; <UNPREDICTABLE>
     760:	00000000 	andeq	r0, r0, r0
     764:	00006800 	andeq	r6, r0, r0, lsl #16
     768:	00016400 	andeq	r6, r1, r0, lsl #8
     76c:	54000100 	strpl	r0, [r0], #-256	; 0x100
	...
     778:	00000038 	andeq	r0, r0, r8, lsr r0
     77c:	0000003c 	andeq	r0, r0, ip, lsr r0
     780:	00530001 	subseq	r0, r3, r1
     784:	00000000 	andeq	r0, r0, r0
     788:	98000000 	stmdals	r0, {}	; <UNPREDICTABLE>
     78c:	d4000001 	strle	r0, [r0], #-1
     790:	01000001 	tsteq	r0, r1
     794:	01d45000 	bicseq	r5, r4, r0
     798:	06180000 	ldreq	r0, [r8], -r0
     79c:	00010000 	andeq	r0, r1, r0
     7a0:	00061854 	andeq	r1, r6, r4, asr r8
     7a4:	00067800 	andeq	r7, r6, r0, lsl #16
     7a8:	f3000400 	vshl.u8	d0, d0, d0
     7ac:	009f5001 	addseq	r5, pc, r1
     7b0:	00000000 	andeq	r0, r0, r0
     7b4:	a8000000 	stmdage	r0, {}	; <UNPREDICTABLE>
     7b8:	f4000001 	vst4.8	{d0-d3}, [r0], r1
     7bc:	01000004 	tsteq	r0, r4
     7c0:	00005800 	andeq	r5, r0, r0, lsl #16
     7c4:	00000000 	andeq	r0, r0, r0
     7c8:	02ac0000 	adceq	r0, ip, #0
     7cc:	04f40000 	ldrbteq	r0, [r4], #0
     7d0:	00010000 	andeq	r0, r1, r0
     7d4:	00000058 	andeq	r0, r0, r8, asr r0
     7d8:	00000000 	andeq	r0, r0, r0
     7dc:	0003cc00 	andeq	ip, r3, r0, lsl #24
     7e0:	00061800 	andeq	r1, r6, r0, lsl #16
     7e4:	55000100 	strpl	r0, [r0, #-256]	; 0x100
	...
     7f0:	000004f0 	strdeq	r0, [r0], -r0	; <UNPREDICTABLE>
     7f4:	000004f4 	strdeq	r0, [r0], -r4
     7f8:	00580001 	subseq	r0, r8, r1
     7fc:	00000000 	andeq	r0, r0, r0
     800:	60000000 	andvs	r0, r0, r0
     804:	64000005 	strvs	r0, [r0], #-5
     808:	01000005 	tsteq	r0, r5
     80c:	00005300 	andeq	r5, r0, r0, lsl #6
     810:	00000000 	andeq	r0, r0, r0
     814:	06780000 	ldrbteq	r0, [r8], -r0
     818:	06880000 	streq	r0, [r8], r0
     81c:	00010000 	andeq	r0, r1, r0
     820:	00068850 	andeq	r8, r6, r0, asr r8
     824:	0006fc00 	andeq	pc, r6, r0, lsl #24
     828:	54000100 	strpl	r0, [r0], #-256	; 0x100
	...
     834:	00000680 	andeq	r0, r0, r0, lsl #13
     838:	00000688 	andeq	r0, r0, r8, lsl #13
     83c:	9f300002 	svcls	0x00300002
     840:	00000688 	andeq	r0, r0, r8, lsl #13
     844:	000006fc 	strdeq	r0, [r0], -ip
     848:	00550001 	subseq	r0, r5, r1
     84c:	00000000 	andeq	r0, r0, r0
     850:	24000000 	strcs	r0, [r0], #-0
     854:	2f000007 	svccs	0x00000007
     858:	01000007 	tsteq	r0, r7
     85c:	072f5000 	streq	r5, [pc, -r0]!
     860:	07700000 	ldrbeq	r0, [r0, -r0]!
     864:	00010000 	andeq	r0, r1, r0
     868:	00000054 	andeq	r0, r0, r4, asr r0
     86c:	00000000 	andeq	r0, r0, r0
     870:	00002c00 	andeq	r2, r0, r0, lsl #24
     874:	00003800 	andeq	r3, r0, r0, lsl #16
     878:	50000100 	andpl	r0, r0, r0, lsl #2
     87c:	00000038 	andeq	r0, r0, r8, lsr r0
     880:	00000048 	andeq	r0, r0, r8, asr #32
     884:	48550001 	ldmdami	r5, {r0}^
     888:	58000000 	stmdapl	r0, {}	; <UNPREDICTABLE>
     88c:	01000000 	mrseq	r0, (UNDEF: 0)
     890:	00005000 	andeq	r5, r0, r0
	...
     89c:	000b0000 	andeq	r0, fp, r0
     8a0:	00010000 	andeq	r0, r1, r0
     8a4:	00000b50 	andeq	r0, r0, r0, asr fp
     8a8:	00001400 	andeq	r1, r0, r0, lsl #8
     8ac:	54000100 	strpl	r0, [r0], #-256	; 0x100
	...
     8bc:	00000010 	andeq	r0, r0, r0, lsl r0
     8c0:	10500001 	subsne	r0, r0, r1
     8c4:	34000000 	strcc	r0, [r0], #-0
     8c8:	01000000 	mrseq	r0, (UNDEF: 0)
     8cc:	00005400 	andeq	r5, r0, r0, lsl #8
	...
     8d8:	00040000 	andeq	r0, r4, r0
     8dc:	00010000 	andeq	r0, r1, r0
     8e0:	00000450 	andeq	r0, r0, r0, asr r4
     8e4:	00000c00 	andeq	r0, r0, r0, lsl #24
     8e8:	70000300 	andvc	r0, r0, r0, lsl #6
     8ec:	000c9f30 	andeq	r9, ip, r0, lsr pc
     8f0:	00140000 	andseq	r0, r4, r0
     8f4:	00040000 	andeq	r0, r4, r0
     8f8:	9f5001f3 	svcls	0x005001f3
	...
     904:	00000014 	andeq	r0, r0, r4, lsl r0
     908:	00000020 	andeq	r0, r0, r0, lsr #32
     90c:	20500001 	subscs	r0, r0, r1
     910:	2c000000 	stccs	0, cr0, [r0], {-0}
     914:	03000000 	movweq	r0, #0
     918:	9f017000 	svcls	0x00017000
     91c:	0000002c 	andeq	r0, r0, ip, lsr #32
     920:	00000040 	andeq	r0, r0, r0, asr #32
     924:	00500001 	subseq	r0, r0, r1
     928:	00000000 	andeq	r0, r0, r0
     92c:	14000000 	strne	r0, [r0], #-0
     930:	18000000 	stmdane	r0, {}	; <UNPREDICTABLE>
     934:	01000000 	mrseq	r0, (UNDEF: 0)
     938:	00185100 	andseq	r5, r8, r0, lsl #2
     93c:	00400000 	subeq	r0, r0, r0
     940:	00040000 	andeq	r0, r4, r0
     944:	9f5101f3 	svcls	0x005101f3
	...
     950:	00000040 	andeq	r0, r0, r0, asr #32
     954:	00000060 	andeq	r0, r0, r0, rrx
     958:	60500001 	subsvs	r0, r0, r1
     95c:	6c000000 	stcvs	0, cr0, [r0], {-0}
     960:	03000000 	movweq	r0, #0
     964:	9f017100 	svcls	0x00017100
     968:	0000006c 	andeq	r0, r0, ip, rrx
     96c:	00000074 	andeq	r0, r0, r4, ror r0
     970:	74510001 	ldrbvc	r0, [r1], #-1
     974:	80000000 	andhi	r0, r0, r0
     978:	03000000 	movweq	r0, #0
     97c:	9f017100 	svcls	0x00017100
	...
     988:	00000040 	andeq	r0, r0, r0, asr #32
     98c:	00000050 	andeq	r0, r0, r0, asr r0
     990:	50510001 	subspl	r0, r1, r1
     994:	80000000 	andhi	r0, r0, r0
     998:	04000000 	streq	r0, [r0], #-0
     99c:	5101f300 	mrspl	pc, SP_irq	; <UNPREDICTABLE>
     9a0:	0000009f 	muleq	r0, pc, r0	; <UNPREDICTABLE>
     9a4:	00000000 	andeq	r0, r0, r0
     9a8:	00004000 	andeq	r4, r0, r0
     9ac:	00005800 	andeq	r5, r0, r0, lsl #16
     9b0:	52000100 	andpl	r0, r0, #0, 2
     9b4:	00000058 	andeq	r0, r0, r8, asr r0
     9b8:	00000064 	andeq	r0, r0, r4, rrx
     9bc:	64520001 	ldrbvs	r0, [r2], #-1
     9c0:	68000000 	stmdavs	r0, {}	; <UNPREDICTABLE>
     9c4:	03000000 	movweq	r0, #0
     9c8:	9f017200 	svcls	0x00017200
     9cc:	00000068 	andeq	r0, r0, r8, rrx
     9d0:	00000080 	andeq	r0, r0, r0, lsl #1
     9d4:	00520001 	subseq	r0, r2, r1
     9d8:	00000000 	andeq	r0, r0, r0
     9dc:	40000000 	andmi	r0, r0, r0
     9e0:	54000000 	strpl	r0, [r0], #-0
     9e4:	01000000 	mrseq	r0, (UNDEF: 0)
     9e8:	00545300 	subseq	r5, r4, r0, lsl #6
     9ec:	00780000 	rsbseq	r0, r8, r0
     9f0:	00010000 	andeq	r0, r1, r0
     9f4:	00000053 	andeq	r0, r0, r3, asr r0
     9f8:	00000000 	andeq	r0, r0, r0
     9fc:	00004800 	andeq	r4, r0, r0, lsl #16
     a00:	00006000 	andeq	r6, r0, r0
     a04:	5c000100 	stfpls	f0, [r0], {-0}
     a08:	00000060 	andeq	r0, r0, r0, rrx
     a0c:	00000080 	andeq	r0, r0, r0, lsl #1
     a10:	01f3000a 	mvnseq	r0, sl
     a14:	5301f352 	movwpl	pc, #4946	; 0x1352	; <UNPREDICTABLE>
     a18:	9f01231c 	svcls	0x0001231c
	...
     a24:	00000080 	andeq	r0, r0, r0, lsl #1
     a28:	000000a4 	andeq	r0, r0, r4, lsr #1
     a2c:	a4500001 	ldrbge	r0, [r0], #-1
     a30:	18000000 	stmdane	r0, {}	; <UNPREDICTABLE>
     a34:	03000001 	movweq	r0, #1
     a38:	9f027000 	svcls	0x00027000
     a3c:	00000118 	andeq	r0, r0, r8, lsl r1
     a40:	0000023c 	andeq	r0, r0, ip, lsr r2
     a44:	01f30004 	mvnseq	r0, r4
     a48:	00009f50 	andeq	r9, r0, r0, asr pc
     a4c:	00000000 	andeq	r0, r0, r0
     a50:	00800000 	addeq	r0, r0, r0
     a54:	00f00000 	rscseq	r0, r0, r0
     a58:	00010000 	andeq	r0, r1, r0
     a5c:	0000f051 	andeq	pc, r0, r1, asr r0	; <UNPREDICTABLE>
     a60:	00016000 	andeq	r6, r1, r0
     a64:	55000100 	strpl	r0, [r0, #-256]	; 0x100
     a68:	00000160 	andeq	r0, r0, r0, ror #2
     a6c:	0000016c 	andeq	r0, r0, ip, ror #2
     a70:	6c510001 	mrrcvs	0, 0, r0, r1, cr1
     a74:	a0000001 	andge	r0, r0, r1
     a78:	01000001 	tsteq	r0, r1
     a7c:	01a05500 	lsleq	r5, r0, #10
     a80:	01b40000 			; <UNDEFINED> instruction: 0x01b40000
     a84:	00010000 	andeq	r0, r1, r0
     a88:	0001b451 	andeq	fp, r1, r1, asr r4
     a8c:	0001d400 	andeq	sp, r1, r0, lsl #8
     a90:	55000100 	strpl	r0, [r0, #-256]	; 0x100
     a94:	000001d4 	ldrdeq	r0, [r0], -r4
     a98:	000001d7 	ldrdeq	r0, [r0], -r7
     a9c:	d7510001 	ldrble	r0, [r1, -r1]
     aa0:	1c000001 	stcne	0, cr0, [r0], {1}
     aa4:	01000002 	tsteq	r0, r2
     aa8:	021c5500 	andseq	r5, ip, #0, 10
     aac:	023c0000 	eorseq	r0, ip, #0
     ab0:	00040000 	andeq	r0, r4, r0
     ab4:	9f5101f3 	svcls	0x005101f3
	...
     ac0:	00000080 	andeq	r0, r0, r0, lsl #1
     ac4:	00000094 	muleq	r0, r4, r0
     ac8:	94520001 	ldrbls	r0, [r2], #-1
     acc:	1c000000 	stcne	0, cr0, [r0], {-0}
     ad0:	01000002 	tsteq	r0, r2
     ad4:	021c5400 	andseq	r5, ip, #0, 8
     ad8:	023c0000 	eorseq	r0, ip, #0
     adc:	00040000 	andeq	r0, r4, r0
     ae0:	9f5201f3 	svcls	0x005201f3
	...
     aec:	00000080 	andeq	r0, r0, r0, lsl #1
     af0:	00000100 	andeq	r0, r0, r0, lsl #2
     af4:	04530001 	ldrbeq	r0, [r3], #-1
     af8:	08000001 	stmdaeq	r0, {r0}
     afc:	01000001 	tsteq	r0, r1
     b00:	01605300 	cmneq	r0, r0, lsl #6
     b04:	01640000 	cmneq	r4, r0
     b08:	00010000 	andeq	r0, r1, r0
     b0c:	00016453 	andeq	r6, r1, r3, asr r4
     b10:	00016c00 	andeq	r6, r1, r0, lsl #24
     b14:	5c000100 	stfpls	f0, [r0], {-0}
     b18:	0000016c 	andeq	r0, r0, ip, ror #2
     b1c:	000001a0 	andeq	r0, r0, r0, lsr #3
     b20:	01f30004 	mvnseq	r0, r4
     b24:	01a09f53 	asreq	r9, r3, pc
     b28:	01b00000 	movseq	r0, r0
     b2c:	00010000 	andeq	r0, r1, r0
     b30:	0001b053 	andeq	fp, r1, r3, asr r0
     b34:	0001b400 	andeq	fp, r1, r0, lsl #8
     b38:	5c000100 	stfpls	f0, [r0], {-0}
     b3c:	000001b4 			; <UNDEFINED> instruction: 0x000001b4
     b40:	000001d4 	ldrdeq	r0, [r0], -r4
     b44:	01f30004 	mvnseq	r0, r4
     b48:	01d49f53 	bicseq	r9, r4, r3, asr pc
     b4c:	01d70000 	bicseq	r0, r7, r0
     b50:	00010000 	andeq	r0, r1, r0
     b54:	0001d753 	andeq	sp, r1, r3, asr r7
     b58:	0001f800 	andeq	pc, r1, r0, lsl #16
     b5c:	f3000400 	vshl.u8	d0, d0, d0
     b60:	009f5301 	addseq	r5, pc, r1, lsl #6
     b64:	00000000 	andeq	r0, r0, r0
     b68:	80000000 	andhi	r0, r0, r0
     b6c:	9c000000 	stcls	0, cr0, [r0], {-0}
     b70:	02000000 	andeq	r0, r0, #0
     b74:	9c009100 	stflsd	f1, [r0], {-0}
     b78:	d7000000 	strle	r0, [r0, -r0]
     b7c:	01000001 	tsteq	r0, r1
     b80:	01f85200 	mvnseq	r5, r0, lsl #4
     b84:	01ff0000 	mvnseq	r0, r0
     b88:	00010000 	andeq	r0, r1, r0
     b8c:	00000052 	andeq	r0, r0, r2, asr r0
     b90:	00000000 	andeq	r0, r0, r0
     b94:	00009c00 	andeq	r9, r0, r0, lsl #24
     b98:	00010c00 	andeq	r0, r1, r0, lsl #24
     b9c:	91000400 	tstls	r0, r0, lsl #8
     ba0:	0c9f7fa0 	ldceq	15, cr7, [pc], {160}	; 0xa0
     ba4:	18000001 	stmdane	r0, {r0}
     ba8:	01000001 	tsteq	r0, r1
     bac:	01185100 	tsteq	r8, r0, lsl #2
     bb0:	011c0000 	tsteq	ip, r0
     bb4:	00010000 	andeq	r0, r1, r0
     bb8:	00011c50 	andeq	r1, r1, r0, asr ip
     bbc:	00012000 	andeq	r2, r1, r0
     bc0:	51000100 	mrspl	r0, (UNDEF: 16)
     bc4:	00000120 	andeq	r0, r0, r0, lsr #2
     bc8:	00000160 	andeq	r0, r0, r0, ror #2
     bcc:	60500001 	subsvs	r0, r0, r1
     bd0:	64000001 	strvs	r0, [r0], #-1
     bd4:	04000001 	streq	r0, [r0], #-1
     bd8:	7fa09100 	svcvc	0x00a09100
     bdc:	0001649f 	muleq	r1, pc, r4	; <UNPREDICTABLE>
     be0:	00016c00 	andeq	r6, r1, r0, lsl #24
     be4:	53000100 	movwpl	r0, #256	; 0x100
     be8:	0000016c 	andeq	r0, r0, ip, ror #2
     bec:	00000170 	andeq	r0, r0, r0, ror r1
     bf0:	70500001 	subsvc	r0, r0, r1
     bf4:	74000001 	strvc	r0, [r0], #-1
     bf8:	01000001 	tsteq	r0, r1
     bfc:	01745300 	cmneq	r4, r0, lsl #6
     c00:	01880000 	orreq	r0, r8, r0
     c04:	00010000 	andeq	r0, r1, r0
     c08:	00018850 	andeq	r8, r1, r0, asr r8
     c0c:	00019400 	andeq	r9, r1, r0, lsl #8
     c10:	70000300 	andvc	r0, r0, r0, lsl #6
     c14:	01949f01 	orrseq	r9, r4, r1, lsl #30
     c18:	01a00000 	moveq	r0, r0
     c1c:	00010000 	andeq	r0, r1, r0
     c20:	0001a050 	andeq	sl, r1, r0, asr r0
     c24:	0001a800 	andeq	sl, r1, r0, lsl #16
     c28:	91000400 	tstls	r0, r0, lsl #8
     c2c:	a89f7fa1 	ldmge	pc, {r0, r5, r7, r8, r9, sl, fp, ip, sp, lr}	; <UNPREDICTABLE>
     c30:	ac000001 	stcge	0, cr0, [r0], {1}
     c34:	01000001 	tsteq	r0, r1
     c38:	01ac5000 			; <UNDEFINED> instruction: 0x01ac5000
     c3c:	01b00000 	movseq	r0, r0
     c40:	00040000 	andeq	r0, r4, r0
     c44:	9f7fa091 	svcls	0x007fa091
     c48:	000001b0 			; <UNDEFINED> instruction: 0x000001b0
     c4c:	000001b8 			; <UNDEFINED> instruction: 0x000001b8
     c50:	b8530001 	ldmdalt	r3, {r0}^
     c54:	d4000001 	strle	r0, [r0], #-1
     c58:	01000001 	tsteq	r0, r1
     c5c:	01d45000 	bicseq	r5, r4, r0
     c60:	01f80000 	mvnseq	r0, r0
     c64:	00040000 	andeq	r0, r4, r0
     c68:	9f7fa091 	svcls	0x007fa091
     c6c:	000001f8 	strdeq	r0, [r0], -r8
     c70:	000001ff 	strdeq	r0, [r0], -pc	; <UNPREDICTABLE>
     c74:	00500001 	subseq	r0, r0, r1
     c78:	00000000 	andeq	r0, r0, r0
     c7c:	a0000000 	andge	r0, r0, r0
     c80:	ec000000 	stc	0, cr0, [r0], {-0}
     c84:	01000000 	mrseq	r0, (UNDEF: 0)
     c88:	00ec5c00 	rsceq	r5, ip, r0, lsl #24
     c8c:	01000000 	mrseq	r0, (UNDEF: 0)
     c90:	00010000 	andeq	r0, r1, r0
     c94:	00010053 	andeq	r0, r1, r3, asr r0
     c98:	00010400 	andeq	r0, r1, r0, lsl #8
     c9c:	5c000100 	stfpls	f0, [r0], {-0}
     ca0:	00000104 	andeq	r0, r0, r4, lsl #2
     ca4:	00000108 	andeq	r0, r0, r8, lsl #2
     ca8:	08530001 	ldmdaeq	r3, {r0}^
     cac:	60000001 	andvs	r0, r0, r1
     cb0:	01000001 	tsteq	r0, r1
     cb4:	01605c00 	cmneq	r0, r0, lsl #24
     cb8:	01640000 	cmneq	r4, r0
     cbc:	00010000 	andeq	r0, r1, r0
     cc0:	00016453 	andeq	r6, r1, r3, asr r4
     cc4:	00018000 	andeq	r8, r1, r0
     cc8:	5c000100 	stfpls	f0, [r0], {-0}
     ccc:	00000180 	andeq	r0, r0, r0, lsl #3
     cd0:	00000184 	andeq	r0, r0, r4, lsl #3
     cd4:	007c0005 	rsbseq	r0, ip, r5
     cd8:	849f2534 	ldrhi	r2, [pc], #1332	; ce0 <__code_start__-0x7320>
     cdc:	a0000001 	andge	r0, r0, r1
     ce0:	01000001 	tsteq	r0, r1
     ce4:	01a05c00 	lsleq	r5, r0, #24
     ce8:	01b00000 	movseq	r0, r0
     cec:	00010000 	andeq	r0, r1, r0
     cf0:	0001b053 	andeq	fp, r1, r3, asr r0
     cf4:	0001c400 	andeq	ip, r1, r0, lsl #8
     cf8:	5c000100 	stfpls	f0, [r0], {-0}
     cfc:	000001c4 	andeq	r0, r0, r4, asr #3
     d00:	000001cc 	andeq	r0, r0, ip, asr #3
     d04:	007c0005 	rsbseq	r0, ip, r5
     d08:	cc9f2531 	cfldr32gt	mvfx2, [pc], {49}	; 0x31
     d0c:	d4000001 	strle	r0, [r0], #-1
     d10:	01000001 	tsteq	r0, r1
     d14:	01d45c00 	bicseq	r5, r4, r0, lsl #24
     d18:	01d70000 	bicseq	r0, r7, r0
     d1c:	00010000 	andeq	r0, r1, r0
     d20:	0001d753 	andeq	sp, r1, r3, asr r7
     d24:	0001f800 	andeq	pc, r1, r0, lsl #16
     d28:	f3000400 	vshl.u8	d0, d0, d0
     d2c:	f89f5301 			; <UNDEFINED> instruction: 0xf89f5301
     d30:	ff000001 			; <UNDEFINED> instruction: 0xff000001
     d34:	01000001 	tsteq	r0, r1
     d38:	00005c00 	andeq	r5, r0, r0, lsl #24
     d3c:	00000000 	andeq	r0, r0, r0
     d40:	00ec0000 	rsceq	r0, ip, r0
     d44:	00fc0000 	rscseq	r0, ip, r0
     d48:	00020000 	andeq	r0, r2, r0
     d4c:	00fc9f30 	rscseq	r9, ip, r0, lsr pc
     d50:	01040000 	mrseq	r0, (UNDEF: 4)
     d54:	00020000 	andeq	r0, r2, r0
     d58:	01049f31 	tsteq	r4, r1, lsr pc
     d5c:	01080000 	mrseq	r0, (UNDEF: 8)
     d60:	00020000 	andeq	r0, r2, r0
     d64:	00009f30 	andeq	r9, r0, r0, lsr pc
     d68:	00000000 	andeq	r0, r0, r0
     d6c:	023c0000 	eorseq	r0, ip, #0
     d70:	024f0000 	subeq	r0, pc, #0
     d74:	00010000 	andeq	r0, r1, r0
     d78:	00024f50 	andeq	r4, r2, r0, asr pc
     d7c:	00027000 	andeq	r7, r2, r0
     d80:	f3000400 	vshl.u8	d0, d0, d0
     d84:	709f5001 	addsvc	r5, pc, r1
     d88:	a4000002 	strge	r0, [r0], #-2
     d8c:	01000002 	tsteq	r0, r2
     d90:	00005000 	andeq	r5, r0, r0
     d94:	00000000 	andeq	r0, r0, r0
     d98:	023c0000 	eorseq	r0, ip, #0
     d9c:	024f0000 	subeq	r0, pc, #0
     da0:	00010000 	andeq	r0, r1, r0
     da4:	00024f51 	andeq	r4, r2, r1, asr pc
     da8:	00027000 	andeq	r7, r2, r0
     dac:	f3000400 	vshl.u8	d0, d0, d0
     db0:	709f5101 	addsvc	r5, pc, r1, lsl #2
     db4:	a4000002 	strge	r0, [r0], #-2
     db8:	01000002 	tsteq	r0, r2
     dbc:	00005100 	andeq	r5, r0, r0, lsl #2
     dc0:	00000000 	andeq	r0, r0, r0
     dc4:	02a40000 	adceq	r0, r4, #0
     dc8:	02d40000 	sbcseq	r0, r4, #0
     dcc:	00010000 	andeq	r0, r1, r0
     dd0:	0002d450 	andeq	sp, r2, r0, asr r4
     dd4:	00055800 	andeq	r5, r5, r0, lsl #16
     dd8:	5b000100 	blpl	11e0 <__code_start__-0x6e20>
     ddc:	00000558 	andeq	r0, r0, r8, asr r5
     de0:	00000578 	andeq	r0, r0, r8, ror r5
     de4:	01f30004 	mvnseq	r0, r4
     de8:	00009f50 	andeq	r9, r0, r0, asr pc
     dec:	00000000 	andeq	r0, r0, r0
     df0:	02a40000 	adceq	r0, r4, #0
     df4:	02bc0000 	adcseq	r0, ip, #0
     df8:	00010000 	andeq	r0, r1, r0
     dfc:	0002bc51 	andeq	fp, r2, r1, asr ip
     e00:	0002d400 	andeq	sp, r2, r0, lsl #8
     e04:	71000300 	mrsvc	r0, LR_irq
     e08:	02d49f01 	sbcseq	r9, r4, #1, 30
     e0c:	05780000 	ldrbeq	r0, [r8, #-0]!
     e10:	00040000 	andeq	r0, r4, r0
     e14:	9f5101f3 	svcls	0x005101f3
	...
     e20:	000002a4 	andeq	r0, r0, r4, lsr #5
     e24:	000002d4 	ldrdeq	r0, [r0], -r4
     e28:	d4520001 	ldrble	r0, [r2], #-1
     e2c:	58000002 	stmdapl	r0, {r1}
     e30:	01000005 	tsteq	r0, r5
     e34:	00005600 	andeq	r5, r0, r0, lsl #12
     e38:	00000000 	andeq	r0, r0, r0
     e3c:	02a40000 	adceq	r0, r4, #0
     e40:	02c40000 	sbceq	r0, r4, #0
     e44:	00010000 	andeq	r0, r1, r0
     e48:	00000053 	andeq	r0, r0, r3, asr r0
     e4c:	00000000 	andeq	r0, r0, r0
     e50:	0002b800 	andeq	fp, r2, r0, lsl #16
     e54:	0002d400 	andeq	sp, r2, r0, lsl #8
     e58:	50000100 	andpl	r0, r0, r0, lsl #2
     e5c:	000002d4 	ldrdeq	r0, [r0], -r4
     e60:	000002d8 	ldrdeq	r0, [r0], -r8
     e64:	d8540001 	ldmdale	r4, {r0}^
     e68:	e4000002 	str	r0, [r0], #-2
     e6c:	03000002 	movweq	r0, #2
     e70:	9f017400 	svcls	0x00017400
     e74:	000002e4 	andeq	r0, r0, r4, ror #5
     e78:	000002f0 	strdeq	r0, [r0], -r0	; <UNPREDICTABLE>
     e7c:	f0540001 			; <UNDEFINED> instruction: 0xf0540001
     e80:	fc000002 	stc2	0, cr0, [r0], {2}
     e84:	03000002 	movweq	r0, #2
     e88:	9f017400 	svcls	0x00017400
     e8c:	000002fc 	strdeq	r0, [r0], -ip
     e90:	0000050c 	andeq	r0, r0, ip, lsl #10
     e94:	0c540001 	mrrceq	0, 0, r0, r4, cr1
     e98:	18000005 	stmdane	r0, {r0, r2}
     e9c:	03000005 	movweq	r0, #5
     ea0:	9f017400 	svcls	0x00017400
     ea4:	00000518 	andeq	r0, r0, r8, lsl r5
     ea8:	00000544 	andeq	r0, r0, r4, asr #10
     eac:	44540001 	ldrbmi	r0, [r4], #-1
     eb0:	50000005 	andpl	r0, r0, r5
     eb4:	01000005 	tsteq	r0, r5
     eb8:	05505000 	ldrbeq	r5, [r0, #-0]
     ebc:	05580000 	ldrbeq	r0, [r8, #-0]
     ec0:	00030000 	andeq	r0, r3, r0
     ec4:	009f0174 	addseq	r0, pc, r4, ror r1	; <UNPREDICTABLE>
     ec8:	00000000 	andeq	r0, r0, r0
     ecc:	c0000000 	andgt	r0, r0, r0
     ed0:	58000002 	stmdapl	r0, {r1}
     ed4:	01000005 	tsteq	r0, r5
     ed8:	05585800 	ldrbeq	r5, [r8, #-2048]	; 0x800
     edc:	05780000 	ldrbeq	r0, [r8, #-0]!
     ee0:	000a0000 	andeq	r0, sl, r0
     ee4:	f35101f3 	vbsl	q8, <illegal reg q8.5>, <illegal reg q9.5>
     ee8:	31225001 	teqcc	r2, r1
     eec:	00009f1c 	andeq	r9, r0, ip, lsl pc
     ef0:	00000000 	andeq	r0, r0, r0
     ef4:	02c80000 	sbceq	r0, r8, #0
     ef8:	02d40000 	sbcseq	r0, r4, #0
     efc:	00010000 	andeq	r0, r1, r0
     f00:	0002d452 	andeq	sp, r2, r2, asr r4
     f04:	00057800 	andeq	r7, r5, r0, lsl #16
     f08:	91000300 	mrsls	r0, LR_irq
     f0c:	00007ecc 	andeq	r7, r0, ip, asr #29
     f10:	00000000 	andeq	r0, r0, r0
     f14:	04100000 	ldreq	r0, [r0], #-0
     f18:	04140000 	ldreq	r0, [r4], #-0
     f1c:	00010000 	andeq	r0, r1, r0
     f20:	00043850 	andeq	r3, r4, r0, asr r8
     f24:	00043c00 	andeq	r3, r4, r0, lsl #24
     f28:	50000100 	andpl	r0, r0, r0, lsl #2
     f2c:	00000460 	andeq	r0, r0, r0, ror #8
     f30:	00000464 	andeq	r0, r0, r4, ror #8
     f34:	88500001 	ldmdahi	r0, {r0}^
     f38:	8c000004 	stchi	0, cr0, [r0], {4}
     f3c:	01000004 	tsteq	r0, r4
     f40:	04945000 	ldreq	r5, [r4], #0
     f44:	04980000 	ldreq	r0, [r8], #0
     f48:	00010000 	andeq	r0, r1, r0
     f4c:	0004bc50 	andeq	fp, r4, r0, asr ip
     f50:	0004c000 	andeq	ip, r4, r0
     f54:	50000100 	andpl	r0, r0, r0, lsl #2
     f58:	00000504 	andeq	r0, r0, r4, lsl #10
     f5c:	0000052c 	andeq	r0, r0, ip, lsr #10
     f60:	00500001 	subseq	r0, r0, r1
     f64:	00000000 	andeq	r0, r0, r0
     f68:	04000000 	streq	r0, [r0], #-0
     f6c:	0c000003 	stceq	0, cr0, [r0], {3}
     f70:	02000003 	andeq	r0, r0, #3
     f74:	0c9f3000 	ldceq	0, cr3, [pc], {0}
     f78:	10000003 	andne	r0, r0, r3
     f7c:	01000003 	tsteq	r0, r3
     f80:	031c5700 	tsteq	ip, #0, 14
     f84:	052c0000 	streq	r0, [ip, #-0]!
     f88:	00010000 	andeq	r0, r1, r0
     f8c:	00000057 	andeq	r0, r0, r7, asr r0
     f90:	00000000 	andeq	r0, r0, r0
     f94:	00000400 	andeq	r0, r0, r0, lsl #8
     f98:	00000800 	andeq	r0, r0, r0, lsl #16
     f9c:	73000700 	movwvc	r0, #1792	; 0x700
     fa0:	10000a00 	andne	r0, r0, r0, lsl #20
     fa4:	00089f21 	andeq	r9, r8, r1, lsr #30
     fa8:	00100000 	andseq	r0, r0, r0
     fac:	00010000 	andeq	r0, r1, r0
     fb0:	00000053 	andeq	r0, r0, r3, asr r0
     fb4:	00000000 	andeq	r0, r0, r0
     fb8:	00001400 	andeq	r1, r0, r0, lsl #8
     fbc:	00001800 	andeq	r1, r0, r0, lsl #16
     fc0:	73000700 	movwvc	r0, #1792	; 0x700
     fc4:	efff0b00 	svc	0x00ff0b00
     fc8:	00189f1a 	andseq	r9, r8, sl, lsl pc
     fcc:	00200000 	eoreq	r0, r0, r0
     fd0:	00010000 	andeq	r0, r1, r0
     fd4:	00000053 	andeq	r0, r0, r3, asr r0
     fd8:	00000000 	andeq	r0, r0, r0
     fdc:	00001400 	andeq	r1, r0, r0, lsl #8
     fe0:	00001c00 	andeq	r1, r0, r0, lsl #24
     fe4:	73000300 	movwvc	r0, #768	; 0x300
     fe8:	001c9f04 	andseq	r9, ip, r4, lsl #30
     fec:	00270000 	eoreq	r0, r7, r0
     ff0:	00010000 	andeq	r0, r1, r0
     ff4:	00000053 	andeq	r0, r0, r3, asr r0
	...
    1000:	00000f00 	andeq	r0, r0, r0, lsl #30
    1004:	50000100 	andpl	r0, r0, r0, lsl #2
    1008:	0000000f 	andeq	r0, r0, pc
    100c:	00000044 	andeq	r0, r0, r4, asr #32
    1010:	00540001 	subseq	r0, r4, r1
	...
    101c:	0f000000 	svceq	0x00000000
    1020:	01000000 	mrseq	r0, (UNDEF: 0)
    1024:	000f5000 	andeq	r5, pc, r0
    1028:	00440000 	subeq	r0, r4, r0
    102c:	00010000 	andeq	r0, r1, r0
    1030:	00000054 	andeq	r0, r0, r4, asr r0
	...
    103c:	00000f00 	andeq	r0, r0, r0, lsl #30
    1040:	50000100 	andpl	r0, r0, r0, lsl #2
    1044:	0000000f 	andeq	r0, r0, pc
    1048:	00000044 	andeq	r0, r0, r4, asr #32
    104c:	00540001 	subseq	r0, r4, r1
    1050:	00000000 	andeq	r0, r0, r0
    1054:	34000000 	strcc	r0, [r0], #-0
    1058:	40000000 	andmi	r0, r0, r0
    105c:	02000000 	andeq	r0, r0, #0
    1060:	409f3000 	addsmi	r3, pc, r0
    1064:	6c000000 	stcvs	0, cr0, [r0], {-0}
    1068:	01000000 	mrseq	r0, (UNDEF: 0)
    106c:	00005300 	andeq	r5, r0, r0, lsl #6
    1070:	00000000 	andeq	r0, r0, r0
    1074:	99200000 	stmdbls	r0!, {}	; <UNPREDICTABLE>
    1078:	99240000 	stmdbls	r4!, {}	; <UNPREDICTABLE>
    107c:	00020000 	andeq	r0, r2, r0
    1080:	99249f30 	stmdbls	r4!, {r4, r5, r8, r9, sl, fp, ip, pc}
    1084:	99280000 	stmdbls	r8!, {}	; <UNPREDICTABLE>
    1088:	00010000 	andeq	r0, r1, r0
    108c:	00000050 	andeq	r0, r0, r0, asr r0
    1090:	00000000 	andeq	r0, r0, r0
    1094:	00993800 	addseq	r3, r9, r0, lsl #16
    1098:	00993c00 	addseq	r3, r9, r0, lsl #24
    109c:	30000200 	andcc	r0, r0, r0, lsl #4
    10a0:	00993c9f 	umullseq	r3, r9, pc, ip	; <UNPREDICTABLE>
    10a4:	00994000 	addseq	r4, r9, r0
    10a8:	53000100 	movwpl	r0, #256	; 0x100
    10ac:	00009944 	andeq	r9, r0, r4, asr #18
    10b0:	0000994c 	andeq	r9, r0, ip, asr #18
    10b4:	00530001 	subseq	r0, r3, r1
	...
    10c0:	04000000 	streq	r0, [r0], #-0
    10c4:	01000000 	mrseq	r0, (UNDEF: 0)
    10c8:	00045000 	andeq	r5, r4, r0
    10cc:	000c0000 	andeq	r0, ip, r0
    10d0:	00010000 	andeq	r0, r1, r0
    10d4:	00000c53 	andeq	r0, r0, r3, asr ip
    10d8:	00001000 	andeq	r1, r0, r0
    10dc:	50000100 	andpl	r0, r0, r0, lsl #2
    10e0:	00000010 	andeq	r0, r0, r0, lsl r0
    10e4:	0000001c 	andeq	r0, r0, ip, lsl r0
    10e8:	00530001 	subseq	r0, r3, r1
    10ec:	00000000 	andeq	r0, r0, r0
    10f0:	40000000 	andmi	r0, r0, r0
    10f4:	43000000 	movwmi	r0, #0
    10f8:	01000000 	mrseq	r0, (UNDEF: 0)
    10fc:	00435000 	subeq	r5, r3, r0
    1100:	004c0000 	subeq	r0, ip, r0
    1104:	00010000 	andeq	r0, r1, r0
    1108:	00000054 	andeq	r0, r0, r4, asr r0
    110c:	00000000 	andeq	r0, r0, r0
    1110:	00004c00 	andeq	r4, r0, r0, lsl #24
    1114:	00005700 	andeq	r5, r0, r0, lsl #14
    1118:	50000100 	andpl	r0, r0, r0, lsl #2
    111c:	00000057 	andeq	r0, r0, r7, asr r0
    1120:	00000070 	andeq	r0, r0, r0, ror r0
    1124:	00550001 	subseq	r0, r5, r1
    1128:	00000000 	andeq	r0, r0, r0
    112c:	60000000 	andvs	r0, r0, r0
    1130:	64000000 	strvs	r0, [r0], #-0
    1134:	01000000 	mrseq	r0, (UNDEF: 0)
    1138:	00005000 	andeq	r5, r0, r0
    113c:	00000000 	andeq	r0, r0, r0
    1140:	00700000 	rsbseq	r0, r0, r0
    1144:	007c0000 	rsbseq	r0, ip, r0
    1148:	00010000 	andeq	r0, r1, r0
    114c:	00007c50 	andeq	r7, r0, r0, asr ip
    1150:	00008400 	andeq	r8, r0, r0, lsl #8
    1154:	f3000400 	vshl.u8	d0, d0, d0
    1158:	009f5001 	addseq	r5, pc, r1
    115c:	00000000 	andeq	r0, r0, r0
    1160:	84000000 	strhi	r0, [r0], #-0
    1164:	90000000 	andls	r0, r0, r0
    1168:	01000000 	mrseq	r0, (UNDEF: 0)
    116c:	00905000 	addseq	r5, r0, r0
    1170:	00980000 	addseq	r0, r8, r0
    1174:	00040000 	andeq	r0, r4, r0
    1178:	9f5001f3 	svcls	0x005001f3
	...
    1184:	00000138 	andeq	r0, r0, r8, lsr r1
    1188:	00000143 	andeq	r0, r0, r3, asr #2
    118c:	43500001 	cmpmi	r0, #1
    1190:	68000001 	stmdavs	r0, {r0}
    1194:	01000001 	tsteq	r0, r1
    1198:	00005400 	andeq	r5, r0, r0, lsl #8
	...
    11a4:	000f0000 	andeq	r0, pc, r0
    11a8:	00010000 	andeq	r0, r1, r0
    11ac:	00000f50 	andeq	r0, r0, r0, asr pc
    11b0:	00002000 	andeq	r2, r0, r0
    11b4:	54000100 	strpl	r0, [r0], #-256	; 0x100
	...
    11c4:	0000000f 	andeq	r0, r0, pc
    11c8:	0f510001 	svceq	0x00510001
    11cc:	20000000 	andcs	r0, r0, r0
    11d0:	01000000 	mrseq	r0, (UNDEF: 0)
    11d4:	00005500 	andeq	r5, r0, r0, lsl #10
    11d8:	00000000 	andeq	r0, r0, r0
    11dc:	00ec0000 	rsceq	r0, ip, r0
    11e0:	01040000 	mrseq	r0, (UNDEF: 4)
    11e4:	00010000 	andeq	r0, r1, r0
    11e8:	00010450 	andeq	r0, r1, r0, asr r4
    11ec:	00011400 	andeq	r1, r1, r0, lsl #8
    11f0:	f3000400 	vshl.u8	d0, d0, d0
    11f4:	149f5001 	ldrne	r5, [pc], #1	; 11fc <__code_start__-0x6e04>
    11f8:	18000001 	stmdane	r0, {r0}
    11fc:	01000001 	tsteq	r0, r1
    1200:	01185000 	tsteq	r8, r0
    1204:	01200000 	teqeq	r0, r0
    1208:	00040000 	andeq	r0, r4, r0
    120c:	9f5001f3 	svcls	0x005001f3
	...
    1218:	000000f8 	strdeq	r0, [r0], -r8
    121c:	00000104 	andeq	r0, r0, r4, lsl #2
    1220:	0070000b 	rsbseq	r0, r0, fp
    1224:	b4232535 	strtlt	r2, [r3], #-1333	; 0x535
    1228:	02818080 	addeq	r8, r1, #128	; 0x80
    122c:	0001049f 	muleq	r1, pc, r4	; <UNPREDICTABLE>
    1230:	00010700 	andeq	r0, r1, r0, lsl #14
    1234:	50000100 	andpl	r0, r0, r0, lsl #2
    1238:	00000107 	andeq	r0, r0, r7, lsl #2
    123c:	00000114 	andeq	r0, r0, r4, lsl r1
    1240:	01f3000c 	mvnseq	r0, ip
    1244:	23253550 	teqcs	r5, #80, 10	; 0x14000000
    1248:	818080b4 	strhhi	r8, [r0, r4]
    124c:	00009f02 	andeq	r9, r0, r2, lsl #30
    1250:	00000000 	andeq	r0, r0, r0
    1254:	00fc0000 	rscseq	r0, ip, r0
    1258:	01140000 	tsteq	r4, r0
    125c:	00010000 	andeq	r0, r1, r0
    1260:	00000054 	andeq	r0, r0, r4, asr r0
    1264:	00000000 	andeq	r0, r0, r0
    1268:	0000d000 	andeq	sp, r0, r0
    126c:	0000df00 	andeq	sp, r0, r0, lsl #30
    1270:	50000100 	andpl	r0, r0, r0, lsl #2
    1274:	000000df 	ldrdeq	r0, [r0], -pc	; <UNPREDICTABLE>
    1278:	000000e4 	andeq	r0, r0, r4, ror #1
    127c:	01f30004 	mvnseq	r0, r4
    1280:	00e49f50 	rsceq	r9, r4, r0, asr pc
    1284:	00e70000 	rsceq	r0, r7, r0
    1288:	00010000 	andeq	r0, r1, r0
    128c:	0000e750 	andeq	lr, r0, r0, asr r7
    1290:	0000ec00 	andeq	lr, r0, r0, lsl #24
    1294:	f3000400 	vshl.u8	d0, d0, d0
    1298:	009f5001 	addseq	r5, pc, r1
    129c:	00000000 	andeq	r0, r0, r0
    12a0:	d0000000 	andle	r0, r0, r0
    12a4:	df000000 	svcle	0x00000000
    12a8:	01000000 	mrseq	r0, (UNDEF: 0)
    12ac:	00df5100 	sbcseq	r5, pc, r0, lsl #2
    12b0:	00e40000 	rsceq	r0, r4, r0
    12b4:	00040000 	andeq	r0, r4, r0
    12b8:	9f5101f3 	svcls	0x005101f3
    12bc:	000000e4 	andeq	r0, r0, r4, ror #1
    12c0:	000000e7 	andeq	r0, r0, r7, ror #1
    12c4:	e7510001 	ldrb	r0, [r1, -r1]
    12c8:	ec000000 	stc	0, cr0, [r0], {-0}
    12cc:	04000000 	streq	r0, [r0], #-0
    12d0:	5101f300 	mrspl	pc, SP_irq	; <UNPREDICTABLE>
    12d4:	0000009f 	muleq	r0, pc, r0	; <UNPREDICTABLE>
    12d8:	00000000 	andeq	r0, r0, r0
    12dc:	0000c000 	andeq	ip, r0, r0
    12e0:	0000cb00 	andeq	ip, r0, r0, lsl #22
    12e4:	50000100 	andpl	r0, r0, r0, lsl #2
    12e8:	000000cb 	andeq	r0, r0, fp, asr #1
    12ec:	000000d0 	ldrdeq	r0, [r0], -r0	; <UNPREDICTABLE>
    12f0:	01f30004 	mvnseq	r0, r4
    12f4:	00009f50 	andeq	r9, r0, r0, asr pc
    12f8:	00000000 	andeq	r0, r0, r0
    12fc:	009c0000 	addseq	r0, ip, r0
    1300:	00b40000 	adcseq	r0, r4, r0
    1304:	00010000 	andeq	r0, r1, r0
    1308:	0000b450 	andeq	fp, r0, r0, asr r4
    130c:	0000c000 	andeq	ip, r0, r0
    1310:	f3000400 	vshl.u8	d0, d0, d0
    1314:	009f5001 	addseq	r5, pc, r1
    1318:	00000000 	andeq	r0, r0, r0
    131c:	78000000 	stmdavc	r0, {}	; <UNPREDICTABLE>
    1320:	90000000 	andls	r0, r0, r0
    1324:	01000000 	mrseq	r0, (UNDEF: 0)
    1328:	00905000 	addseq	r5, r0, r0
    132c:	009c0000 	addseq	r0, ip, r0
    1330:	00040000 	andeq	r0, r4, r0
    1334:	9f5001f3 	svcls	0x005001f3
	...
    1340:	00000068 	andeq	r0, r0, r8, rrx
    1344:	00000073 	andeq	r0, r0, r3, ror r0
    1348:	73500001 	cmpvc	r0, #1
    134c:	78000000 	stmdavc	r0, {}	; <UNPREDICTABLE>
    1350:	04000000 	streq	r0, [r0], #-0
    1354:	5001f300 	andpl	pc, r1, r0, lsl #6
    1358:	0000009f 	muleq	r0, pc, r0	; <UNPREDICTABLE>
	...
    1364:	00004800 	andeq	r4, r0, r0, lsl #16
    1368:	50000100 	andpl	r0, r0, r0, lsl #2
    136c:	00000048 	andeq	r0, r0, r8, asr #32
    1370:	00000068 	andeq	r0, r0, r8, rrx
    1374:	01f30004 	mvnseq	r0, r4
    1378:	00009f50 	andeq	r9, r0, r0, asr pc
	...
    1384:	004b0000 	subeq	r0, fp, r0
    1388:	00010000 	andeq	r0, r1, r0
    138c:	00004b51 	andeq	r4, r0, r1, asr fp
    1390:	00006800 	andeq	r6, r0, r0, lsl #16
    1394:	f3000400 	vshl.u8	d0, d0, d0
    1398:	009f5101 	addseq	r5, pc, r1, lsl #2
    139c:	00000000 	andeq	r0, r0, r0
    13a0:	4c000000 	stcmi	0, cr0, [r0], {-0}
    13a4:	54000000 	strpl	r0, [r0], #-0
    13a8:	01000000 	mrseq	r0, (UNDEF: 0)
    13ac:	00545000 	subseq	r5, r4, r0
    13b0:	00580000 	subseq	r0, r8, r0
    13b4:	00090000 	andeq	r0, r9, r0
    13b8:	00740075 	rsbseq	r0, r4, r5, ror r0
    13bc:	21007124 	tstcs	r0, r4, lsr #2
    13c0:	0000589f 	muleq	r0, pc, r8	; <UNPREDICTABLE>
    13c4:	00005f00 	andeq	r5, r0, r0, lsl #30
    13c8:	51000100 	mrspl	r0, (UNDEF: 16)
	...

Disassembly of section .debug_aranges:

00000000 <.debug_aranges>:
   0:	0000001c 	andeq	r0, r0, ip, lsl r0
   4:	00000002 	andeq	r0, r0, r2
   8:	00040000 	andeq	r0, r4, r0
   c:	00000000 	andeq	r0, r0, r0
  10:	00008020 	andeq	r8, r0, r0, lsr #32
  14:	000004fc 	strdeq	r0, [r0], -ip
	...
  20:	0000001c 	andeq	r0, r0, ip, lsl r0
  24:	0af40002 	beq	ffd00034 <__bss_end__+0xffcf5644>
  28:	00040000 	andeq	r0, r4, r0
  2c:	00000000 	andeq	r0, r0, r0
  30:	0000851c 	andeq	r8, r0, ip, lsl r5
  34:	00000368 	andeq	r0, r0, r8, ror #6
	...
  40:	0000001c 	andeq	r0, r0, ip, lsl r0
  44:	16cf0002 	strbne	r0, [pc], r2
  48:	00040000 	andeq	r0, r4, r0
  4c:	00000000 	andeq	r0, r0, r0
  50:	000089ac 	andeq	r8, r0, ip, lsr #19
  54:	00000770 	andeq	r0, r0, r0, ror r7
	...
  60:	0000001c 	andeq	r0, r0, ip, lsl r0
  64:	25c60002 	strbcs	r0, [r6, #2]
  68:	00040000 	andeq	r0, r4, r0
  6c:	00000000 	andeq	r0, r0, r0
  70:	0000911c 	andeq	r9, r0, ip, lsl r1
  74:	00000058 	andeq	r0, r0, r8, asr r0
	...
  80:	0000001c 	andeq	r0, r0, ip, lsl r0
  84:	275b0002 	ldrbcs	r0, [fp, -r2]
  88:	00040000 	andeq	r0, r4, r0
  8c:	00000000 	andeq	r0, r0, r0
  90:	00009174 	andeq	r9, r0, r4, ror r1
  94:	0000003c 	andeq	r0, r0, ip, lsr r0
	...
  a0:	0000001c 	andeq	r0, r0, ip, lsl r0
  a4:	28720002 	ldmdacs	r2!, {r1}^
  a8:	00040000 	andeq	r0, r4, r0
  ac:	00000000 	andeq	r0, r0, r0
  b0:	000091b0 			; <UNDEFINED> instruction: 0x000091b0
  b4:	00000034 	andeq	r0, r0, r4, lsr r0
	...
  c0:	0000001c 	andeq	r0, r0, ip, lsl r0
  c4:	29640002 	stmdbcs	r4!, {r1}^
  c8:	00040000 	andeq	r0, r4, r0
  cc:	00000000 	andeq	r0, r0, r0
  d0:	000091e4 	andeq	r9, r0, r4, ror #3
  d4:	00000578 	andeq	r0, r0, r8, ror r5
	...
  e0:	0000001c 	andeq	r0, r0, ip, lsl r0
  e4:	304d0002 	subcc	r0, sp, r2
  e8:	00040000 	andeq	r0, r4, r0
  ec:	00000000 	andeq	r0, r0, r0
  f0:	0000975c 	andeq	r9, r0, ip, asr r7
  f4:	00000020 	andeq	r0, r0, r0, lsr #32
	...
 100:	0000001c 	andeq	r0, r0, ip, lsl r0
 104:	31090002 	tstcc	r9, r2
 108:	00040000 	andeq	r0, r4, r0
 10c:	00000000 	andeq	r0, r0, r0
 110:	0000977c 	andeq	r9, r0, ip, ror r7
 114:	0000002c 	andeq	r0, r0, ip, lsr #32
	...
 120:	0000001c 	andeq	r0, r0, ip, lsl r0
 124:	321c0002 	andscc	r0, ip, #2
 128:	00040000 	andeq	r0, r4, r0
 12c:	00000000 	andeq	r0, r0, r0
 130:	000097a8 	andeq	r9, r0, r8, lsr #15
 134:	00000038 	andeq	r0, r0, r8, lsr r0
	...
 140:	0000001c 	andeq	r0, r0, ip, lsl r0
 144:	332f0002 	teqcc	pc, #2
 148:	00040000 	andeq	r0, r4, r0
 14c:	00000000 	andeq	r0, r0, r0
 150:	000097e0 	andeq	r9, r0, r0, ror #15
 154:	00000044 	andeq	r0, r0, r4, asr #32
	...
 160:	0000001c 	andeq	r0, r0, ip, lsl r0
 164:	34710002 	ldrbtcc	r0, [r1], #-2
 168:	00040000 	andeq	r0, r4, r0
 16c:	00000000 	andeq	r0, r0, r0
 170:	00009824 	andeq	r9, r0, r4, lsr #16
 174:	00000044 	andeq	r0, r0, r4, asr #32
	...
 180:	0000001c 	andeq	r0, r0, ip, lsl r0
 184:	35b30002 	ldrcc	r0, [r3, #2]!
 188:	00040000 	andeq	r0, r4, r0
 18c:	00000000 	andeq	r0, r0, r0
 190:	00009868 	andeq	r9, r0, r8, ror #16
 194:	00000044 	andeq	r0, r0, r4, asr #32
	...
 1a0:	0000001c 	andeq	r0, r0, ip, lsl r0
 1a4:	36f50002 	ldrbtcc	r0, [r5], r2
 1a8:	00040000 	andeq	r0, r4, r0
 1ac:	00000000 	andeq	r0, r0, r0
 1b0:	000098ac 	andeq	r9, r0, ip, lsr #17
 1b4:	00000008 	andeq	r0, r0, r8
	...
 1c0:	0000001c 	andeq	r0, r0, ip, lsl r0
 1c4:	37910002 	ldrcc	r0, [r1, r2]
 1c8:	00040000 	andeq	r0, r4, r0
 1cc:	00000000 	andeq	r0, r0, r0
 1d0:	000098b4 			; <UNDEFINED> instruction: 0x000098b4
 1d4:	0000006c 	andeq	r0, r0, ip, rrx
	...
 1e0:	0000001c 	andeq	r0, r0, ip, lsl r0
 1e4:	396c0002 	stmdbcc	ip!, {r1}^
 1e8:	00040000 	andeq	r0, r4, r0
 1ec:	00000000 	andeq	r0, r0, r0
 1f0:	00009920 	andeq	r9, r0, r0, lsr #18
 1f4:	00000074 	andeq	r0, r0, r4, ror r0
	...
 200:	0000001c 	andeq	r0, r0, ip, lsl r0
 204:	3b1d0002 	blcc	740214 <__bss_end__+0x735824>
 208:	00040000 	andeq	r0, r4, r0
 20c:	00000000 	andeq	r0, r0, r0
 210:	00009994 	muleq	r0, r4, r9
 214:	00000098 	muleq	r0, r8, r0
	...
 220:	0000001c 	andeq	r0, r0, ip, lsl r0
 224:	3d180002 	ldccc	0, cr0, [r8, #-8]
 228:	00040000 	andeq	r0, r4, r0
 22c:	00000000 	andeq	r0, r0, r0
 230:	00009a90 	muleq	r0, r0, sl
 234:	00000178 	andeq	r0, r0, r8, ror r1
	...
 240:	0000001c 	andeq	r0, r0, ip, lsl r0
 244:	49e10002 	stmibmi	r1!, {r1}^
 248:	00040000 	andeq	r0, r4, r0
 24c:	00000000 	andeq	r0, r0, r0
 250:	00009c08 	andeq	r9, r0, r8, lsl #24
 254:	00000120 	andeq	r0, r0, r0, lsr #2
	...

Disassembly of section .debug_ranges:

00000000 <.debug_ranges>:
   0:	00000194 	muleq	r0, r4, r1
   4:	000001a8 	andeq	r0, r0, r8, lsr #3
   8:	000001ac 	andeq	r0, r0, ip, lsr #3
   c:	000001bc 			; <UNDEFINED> instruction: 0x000001bc
	...
  18:	00009920 	andeq	r9, r0, r0, lsr #18
  1c:	00009994 	muleq	r0, r4, r9
	...

Disassembly of section .debug_line:

00000000 <.debug_line>:
       0:	00000219 	andeq	r0, r0, r9, lsl r2
       4:	012b0002 	teqeq	fp, r2
       8:	01020000 	mrseq	r0, (UNDEF: 2)
       c:	000d0efb 	strdeq	r0, [sp], -fp
      10:	01010101 	tsteq	r1, r1, lsl #2
      14:	01000000 	mrseq	r0, (UNDEF: 0)
      18:	2e010000 	cdpcs	0, 0, cr0, cr1, cr0, {0}
      1c:	73657400 	cmnvc	r5, #0, 8
      20:	2f007374 	svccs	0x00007374
      24:	72657355 	rsbvc	r7, r5, #1409286145	; 0x54000001
      28:	72622f73 	rsbvc	r2, r2, #460	; 0x1cc
      2c:	6a6e6169 	bvs	1b985d8 <__bss_end__+0x1b8dbe8>
      30:	442f6e75 	strtmi	r6, [pc], #-3701	; 38 <__code_start__-0x7fc8>
      34:	746b7365 	strbtvc	r7, [fp], #-869	; 0x365
      38:	732f706f 	teqvc	pc, #111	; 0x6f
      3c:	6f6f6863 	svcvs	0x006f6863
      40:	70532f6c 	subsvc	r2, r3, ip, ror #30
      44:	676e6972 			; <UNDEFINED> instruction: 0x676e6972
      48:	30323931 	eorscc	r3, r2, r1, lsr r9
      4c:	3253432f 	subscc	r4, r3, #-1140850688	; 0xbc000000
      50:	584c3034 	stmdapl	ip, {r2, r4, r5, ip, sp}^
      54:	3273632f 	rsbscc	r6, r3, #-1140850688	; 0xbc000000
      58:	786c3034 	stmdavc	ip!, {r2, r4, r5, ip, sp}^
      5c:	7330322d 	teqvc	r0, #-805306366	; 0xd0000002
      60:	6c2f7270 	sfmvs	f7, 4, [pc], #-448	; fffffea8 <__bss_end__+0xffff54b8>
      64:	69706269 	ldmdbvs	r0!, {r0, r3, r5, r6, r9, sp, lr}^
      68:	636e692f 	cmnvs	lr, #770048	; 0xbc000
      6c:	6564756c 	strbvs	r7, [r4, #-1388]!	; 0x56c
      70:	73752f00 	cmnvc	r5, #0, 30
      74:	6f6c2f72 	svcvs	0x006c2f72
      78:	2f6c6163 	svccs	0x006c6163
      7c:	6c6c6543 	cfstr64vs	mvdx6, [ip], #-268	; 0xfffffef4
      80:	612f7261 	teqvs	pc, r1, ror #4
      84:	6e2d6d72 	mcrvs	13, 1, r6, cr13, cr2, {3}
      88:	2d656e6f 	stclcs	14, cr6, [r5, #-444]!	; 0xfffffe44
      8c:	69626165 	stmdbvs	r2!, {r0, r2, r5, r6, r8, sp, lr}^
      90:	382e342f 	stmdacc	lr!, {r0, r1, r2, r3, r5, sl, ip, sp}
      94:	632d332e 	teqvs	sp, #-1207959552	; 0xb8000000
      98:	30373173 	eorscc	r3, r7, r3, ror r1
      9c:	696c2f65 	stmdbvs	ip!, {r0, r2, r5, r6, r8, r9, sl, fp, sp}^
      a0:	63672f62 	cmnvs	r7, #392	; 0x188
      a4:	72612f63 	rsbvc	r2, r1, #396	; 0x18c
      a8:	6f6e2d6d 	svcvs	0x006e2d6d
      ac:	652d656e 	strvs	r6, [sp, #-1390]!	; 0x56e
      b0:	2f696261 	svccs	0x00696261
      b4:	2e382e34 	mrccs	14, 1, r2, cr8, cr4, {1}
      b8:	6e692f33 	mcrvs	15, 3, r2, cr9, cr3, {1}
      bc:	64756c63 	ldrbtvs	r6, [r5], #-3171	; 0xc63
      c0:	63000065 	movwvs	r0, #101	; 0x65
      c4:	2d727370 	ldclcs	3, cr7, [r2, #-448]!	; 0xfffffe40
      c8:	6c697475 	cfstrdvs	mvd7, [r9], #-468	; 0xfffffe2c
      cc:	0100682e 	tsteq	r0, lr, lsr #16
      d0:	69620000 	stmdbvs	r2!, {}^	; <UNPREDICTABLE>
      d4:	75732d74 	ldrbvc	r2, [r3, #-3444]!	; 0xd74
      d8:	726f7070 	rsbvc	r7, pc, #112	; 0x70
      dc:	00682e74 	rsbeq	r2, r8, r4, ror lr
      e0:	31000001 	tstcc	r0, r1
      e4:	61702d36 	cmnvs	r0, r6, lsr sp
      e8:	2d327472 	cfldrscs	mvf7, [r2, #-456]!	; 0xfffffe38
      ec:	74736574 	ldrbtvc	r6, [r3], #-1396	; 0x574
      f0:	00632e31 	rsbeq	r2, r3, r1, lsr lr
      f4:	63000002 	movwvs	r0, #2
      f8:	2d343170 	ldfcss	f3, [r4, #-448]!	; 0xfffffe40
      fc:	75626564 	strbvc	r6, [r2, #-1380]!	; 0x564
     100:	00682e67 	rsbeq	r2, r8, r7, ror #28
     104:	72000001 	andvc	r0, r0, #1
     108:	692d6970 	pushvs	{r4, r5, r6, r8, fp, sp, lr}
     10c:	7265746e 	rsbvc	r7, r5, #1845493760	; 0x6e000000
     110:	74707572 	ldrbtvc	r7, [r0], #-1394	; 0x572
     114:	00682e73 	rsbeq	r2, r8, r3, ror lr
     118:	73000003 	movwvc	r0, #3
     11c:	6e696474 	mcrvs	4, 3, r6, cr9, cr4, {3}
     120:	63672d74 	cmnvs	r7, #116, 26	; 0x1d00
     124:	00682e63 	rsbeq	r2, r8, r3, ror #28
     128:	72000004 	andvc	r0, r0, #4
     12c:	682e6970 	stmdavs	lr!, {r4, r5, r6, r8, fp, sp, lr}
     130:	00000300 	andeq	r0, r0, r0, lsl #6
     134:	02050000 	andeq	r0, r5, #0
     138:	00008020 	andeq	r8, r0, r0, lsr #32
     13c:	04011703 	streq	r1, [r1], #-1795	; 0x703
     140:	01046e02 	tsteq	r4, r2, lsl #28
     144:	652e6c03 	strvs	r6, [lr, #-3075]!	; 0xc03
     148:	08250867 	stmdaeq	r5!, {r0, r1, r2, r5, r6, fp}
     14c:	15280260 	strne	r0, [r8, #-608]!	; 0x260
     150:	4b4b4b4b 	blmi	12d2e84 <__bss_end__+0x12c8494>
     154:	f279034b 	vcgt.s<illegal width 64>	q8, <illegal reg q4.5>, <illegal reg q5.5>
     158:	0304364b 	movweq	r3, #17995	; 0x464b
     15c:	c8086b03 	stmdagt	r8, {r0, r1, r8, r9, fp, sp, lr}
     160:	0402004b 	streq	r0, [r2], #-75	; 0x4b
     164:	00820601 	addeq	r0, r2, r1, lsl #12
     168:	06020402 	streq	r0, [r2], -r2, lsl #8
     16c:	02002208 	andeq	r2, r0, #8, 4	; 0x80000000
     170:	06650204 	strbteq	r0, [r5], -r4, lsl #4
     174:	002f0666 	eoreq	r0, pc, r6, ror #12
     178:	2d010402 	cfstrscs	mvf0, [r1, #-8]
     17c:	3f08674d 	svccc	0x0008674d
     180:	04020067 	streq	r0, [r2], #-103	; 0x67
     184:	04820601 	streq	r0, [r2], #1537	; 0x601
     188:	8e030604 	cfmadd32hi	mvax0, mvfx0, mvfx3, mvfx4
     18c:	0433f201 	ldrteq	pc, [r3], #-513	; 0x201	; <UNPREDICTABLE>
     190:	7eef0303 	cdpvc	3, 14, cr0, cr15, cr3, {0}
     194:	83d84b2e 	bicshi	r4, r8, #47104	; 0xb800
     198:	01040200 	mrseq	r0, R12_usr
     19c:	08069e06 	stmdaeq	r6, {r1, r2, r9, sl, fp, ip, pc}
     1a0:	00688321 	rsbeq	r8, r8, r1, lsr #6
     1a4:	06010402 	streq	r0, [r1], -r2, lsl #8
     1a8:	67bb0682 	ldrvs	r0, [fp, r2, lsl #13]!
     1ac:	01040200 	mrseq	r0, R12_usr
     1b0:	bc068206 	sfmlt	f0, 1, [r6], {6}
     1b4:	4b142202 	blmi	5089c4 <__bss_end__+0x4fdfd4>
     1b8:	03040431 	movweq	r0, #17457	; 0x4431
     1bc:	042e0197 	strteq	r0, [lr], #-407	; 0x197
     1c0:	7ee50305 	cdpvc	3, 14, cr0, cr5, cr5, {0}
     1c4:	03030466 	movweq	r0, #13414	; 0x3466
     1c8:	00bd2e09 	adcseq	r2, sp, r9, lsl #28
     1cc:	06010402 	streq	r0, [r1], -r2, lsl #8
     1d0:	679f0666 	ldrvs	r0, [pc, r6, ror #12]
     1d4:	01040200 	mrseq	r0, R12_usr
     1d8:	04048206 	streq	r8, [r4], #-518	; 0x206
     1dc:	018d0306 	orreq	r0, sp, r6, lsl #6
     1e0:	0303049e 	movweq	r0, #13470	; 0x349e
     1e4:	04667ef7 	strbteq	r7, [r6], #-3831	; 0xef7
     1e8:	4a710302 	bmi	1c40df8 <__bss_end__+0x1c36408>
     1ec:	10030304 	andne	r0, r3, r4, lsl #6
     1f0:	0504692e 	streq	r6, [r4, #-2350]	; 0x92e
     1f4:	04ba6a03 	ldrteq	r6, [sl], #2563	; 0xa03
     1f8:	4a180303 	bmi	600e0c <__bss_end__+0x5f641c>
     1fc:	68030504 	stmdavs	r3, {r2, r8, sl}
     200:	0303049e 	movweq	r0, #13470	; 0x349e
     204:	02002e1a 	andeq	r2, r0, #416	; 0x1a0
     208:	4a060104 	bmi	180620 <__bss_end__+0x175c30>
     20c:	00210806 	eoreq	r0, r1, r6, lsl #16
     210:	06010402 	streq	r0, [r1], -r2, lsl #8
     214:	2308069e 	movwcs	r0, #34462	; 0x869e
     218:	01002c02 	tsteq	r0, r2, lsl #24
     21c:	0001f401 	andeq	pc, r1, r1, lsl #8
     220:	ff000200 			; <UNDEFINED> instruction: 0xff000200
     224:	02000000 	andeq	r0, r0, #0
     228:	0d0efb01 	vstreq	d15, [lr, #-4]
     22c:	01010100 	mrseq	r0, (UNDEF: 17)
     230:	00000001 	andeq	r0, r0, r1
     234:	01000001 	tsteq	r0, r1
     238:	7273752f 	rsbsvc	r7, r3, #197132288	; 0xbc00000
     23c:	636f6c2f 	cmnvs	pc, #12032	; 0x2f00
     240:	432f6c61 	teqmi	pc, #24832	; 0x6100
     244:	616c6c65 	cmnvs	ip, r5, ror #24
     248:	72612f72 	rsbvc	r2, r1, #456	; 0x1c8
     24c:	6f6e2d6d 	svcvs	0x006e2d6d
     250:	652d656e 	strvs	r6, [sp, #-1390]!	; 0x56e
     254:	2f696261 	svccs	0x00696261
     258:	2e382e34 	mrccs	14, 1, r2, cr8, cr4, {1}
     25c:	73632d33 	cmnvc	r3, #3264	; 0xcc0
     260:	65303731 	ldrvs	r3, [r0, #-1841]!	; 0x731
     264:	62696c2f 	rsbvs	r6, r9, #12032	; 0x2f00
     268:	6363672f 	cmnvs	r3, #12320768	; 0xbc0000
     26c:	6d72612f 	ldfvse	f6, [r2, #-188]!	; 0xffffff44
     270:	6e6f6e2d 	cdpvs	14, 6, cr6, cr15, cr13, {1}
     274:	61652d65 	cmnvs	r5, r5, ror #26
     278:	342f6962 	strtcc	r6, [pc], #-2402	; 280 <__code_start__-0x7d80>
     27c:	332e382e 	teqcc	lr, #3014656	; 0x2e0000
     280:	636e692f 	cmnvs	lr, #770048	; 0xbc000
     284:	6564756c 	strbvs	r7, [r4, #-1388]!	; 0x56c
     288:	73552f00 	cmpvc	r5, #0, 30
     28c:	2f737265 	svccs	0x00737265
     290:	61697262 	cmnvs	r9, r2, ror #4
     294:	6e756a6e 	vsubvs.f32	s13, s10, s29
     298:	7365442f 	cmnvc	r5, #788529152	; 0x2f000000
     29c:	706f746b 	rsbvc	r7, pc, fp, ror #8
     2a0:	6863732f 	stmdavs	r3!, {r0, r1, r2, r3, r5, r8, r9, ip, sp, lr}^
     2a4:	2f6c6f6f 	svccs	0x006c6f6f
     2a8:	69727053 	ldmdbvs	r2!, {r0, r1, r4, r6, ip, sp, lr}^
     2ac:	3931676e 	ldmdbcc	r1!, {r1, r2, r3, r5, r6, r8, r9, sl, sp, lr}
     2b0:	432f3032 	teqmi	pc, #50	; 0x32
     2b4:	30343253 	eorscc	r3, r4, r3, asr r2
     2b8:	632f584c 	teqvs	pc, #76, 16	; 0x4c0000
     2bc:	30343273 	eorscc	r3, r4, r3, ror r2
     2c0:	322d786c 	eorcc	r7, sp, #108, 16	; 0x6c0000
     2c4:	72707330 	rsbsvc	r7, r0, #48, 6	; 0xc0000000
     2c8:	62696c2f 	rsbvs	r6, r9, #12032	; 0x2f00
     2cc:	692f6970 	stmdbvs	pc!, {r4, r5, r6, r8, fp, sp, lr}	; <UNPREDICTABLE>
     2d0:	756c636e 	strbvc	r6, [ip, #-878]!	; 0x36e
     2d4:	00006564 	andeq	r6, r0, r4, ror #10
     2d8:	34317063 	ldrtcc	r7, [r1], #-99	; 0x63
     2dc:	6265642d 	rsbvs	r6, r5, #754974720	; 0x2d000000
     2e0:	632e6775 	teqvs	lr, #30670848	; 0x1d40000
     2e4:	00000000 	andeq	r0, r0, r0
     2e8:	34317063 	ldrtcc	r7, [r1], #-99	; 0x63
     2ec:	6265642d 	rsbvs	r6, r5, #754974720	; 0x2d000000
     2f0:	682e6775 	stmdavs	lr!, {r0, r2, r4, r5, r6, r8, r9, sl, sp, lr}
     2f4:	00000000 	andeq	r0, r0, r0
     2f8:	69647473 	stmdbvs	r4!, {r0, r1, r4, r5, r6, sl, ip, sp, lr}^
     2fc:	672d746e 	strvs	r7, [sp, -lr, ror #8]!
     300:	682e6363 	stmdavs	lr!, {r0, r1, r5, r6, r8, r9, sp, lr}
     304:	00000100 	andeq	r0, r0, r0, lsl #2
     308:	2e697072 	mcrcs	0, 3, r7, cr9, cr2, {3}
     30c:	00020068 	andeq	r0, r2, r8, rrx
     310:	69707200 	ldmdbvs	r0!, {r9, ip, sp, lr}^
     314:	746e692d 	strbtvc	r6, [lr], #-2349	; 0x92d
     318:	75727265 	ldrbvc	r7, [r2, #-613]!	; 0x265
     31c:	2e737470 	mrccs	4, 3, r7, cr3, cr0, {3}
     320:	00020068 	andeq	r0, r2, r8, rrx
     324:	05000000 	streq	r0, [r0, #-0]
     328:	00851c02 	addeq	r1, r5, r2, lsl #24
     32c:	01350300 	teqeq	r5, r0, lsl #6
     330:	034a6203 	movteq	r6, #41475	; 0xa203
     334:	62032e24 	andvs	r2, r3, #36, 28	; 0x240
     338:	2e7a032e 	cdpcs	3, 7, cr0, cr10, cr14, {1}
     33c:	002e2903 	eoreq	r2, lr, r3, lsl #18
     340:	06010402 	streq	r0, [r1], -r2, lsl #8
     344:	6503064a 	strvs	r0, [r3, #-1610]	; 0x64a
     348:	78032008 	stmdavc	r3, {r3, sp}
     34c:	4a7a032e 	bmi	1e8100c <__bss_end__+0x1e7661c>
     350:	002e3a03 	eoreq	r3, lr, r3, lsl #20
     354:	06010402 	streq	r0, [r1], -r2, lsl #8
     358:	bb03064a 	bllt	c1c88 <__bss_end__+0xb7298>
     35c:	0320087f 	teqeq	r0, #8323072	; 0x7f0000
     360:	4b4a00c8 	blmi	1280688 <__bss_end__+0x1275c98>
     364:	6c0204f5 	cfstrsvs	mvf0, [r2], {245}	; 0xf5
     368:	344a1303 	strbcc	r1, [sl], #-771	; 0x303
     36c:	d65d034b 	ldrble	r0, [sp], -fp, asr #6
     370:	11030104 	tstne	r3, r4, lsl #2
     374:	0402002e 	streq	r0, [r2], #-46	; 0x2e
     378:	06660601 	strbteq	r0, [r6], -r1, lsl #12
     37c:	02002208 	andeq	r2, r0, #8, 4	; 0x80000000
     380:	82060104 	andhi	r0, r6, #4, 2
     384:	03060204 	movweq	r0, #25092	; 0x6204
     388:	0420087a 	strteq	r0, [r0], #-2170	; 0x87a
     38c:	2e0c0301 	cdpcs	3, 0, cr0, cr12, cr1, {0}
     390:	315a084b 	cmpcc	sl, fp, asr #16
     394:	bb032f83 	bllt	cc1a8 <__bss_end__+0xc17b8>
     398:	5b03667f 	blpl	d9d9c <__bss_end__+0xcf3ac>
     39c:	019b034a 	orrseq	r0, fp, sl, asr #6
     3a0:	01650382 	smulbbeq	r5, r2, r3
     3a4:	032e1f03 	teqeq	lr, #3, 30
     3a8:	302c2e62 	eorcc	r2, ip, r2, ror #28
     3ac:	4a7eff03 	bmi	1fbffc0 <__bss_end__+0x1fb55d0>
     3b0:	4a01b303 	bmi	6cfc4 <__bss_end__+0x625d4>
     3b4:	030204a2 	movweq	r0, #9378	; 0x24a2
     3b8:	04336662 	ldrteq	r6, [r3], #-1634	; 0x662
     3bc:	2e1b0301 	cdpcs	3, 1, cr0, cr11, cr1, {0}
     3c0:	0200d74b 	andeq	sp, r0, #19660800	; 0x12c0000
     3c4:	82060104 	andhi	r0, r6, #4, 2
     3c8:	03060204 	movweq	r0, #25092	; 0x6204
     3cc:	0420084f 	strteq	r0, [r0], #-2127	; 0x84f
     3d0:	2e330301 	cdpcs	3, 3, cr0, cr3, cr1, {0}
     3d4:	0b03f44b 	bleq	fd508 <__bss_end__+0xf2b18>
     3d8:	082f012e 	stmdaeq	pc!, {r1, r2, r3, r5, r8}	; <UNPREDICTABLE>
     3dc:	7fb1033f 	svcvc	0x00b1033f
     3e0:	00d30301 	sbcseq	r0, r3, r1, lsl #6
     3e4:	7fae032e 	svcvc	0x00ae032e
     3e8:	03302c2e 	teqeq	r0, #11776	; 0x2e00
     3ec:	034a7eff 	movteq	r7, #44799	; 0xaeff
     3f0:	a24a01e7 	subge	r0, sl, #-1073741767	; 0xc0000039
     3f4:	017f9603 	cmneq	pc, r3, lsl #12
     3f8:	8200fb03 	andhi	pc, r0, #3072	; 0xc00
     3fc:	034b4b31 	movteq	r4, #47921	; 0xbb31
     400:	72032e0f 	andvc	r2, r3, #15, 28	; 0xf0
     404:	4b674c4a 	blmi	19d3534 <__bss_end__+0x19c8b44>
     408:	78036935 	stmdavc	r3, {r0, r2, r4, r5, r8, fp, sp, lr}
     40c:	2e09034a 	cdpcs	3, 0, cr0, cr9, cr10, {2}
     410:	01000402 	tsteq	r0, r2, lsl #8
     414:	00026501 	andeq	r6, r2, r1, lsl #10
     418:	3b000200 	blcc	c20 <__code_start__-0x73e0>
     41c:	02000001 	andeq	r0, r0, #1
     420:	0d0efb01 	vstreq	d15, [lr, #-4]
     424:	01010100 	mrseq	r0, (UNDEF: 17)
     428:	00000001 	andeq	r0, r0, r1
     42c:	01000001 	tsteq	r0, r1
     430:	6573552f 	ldrbvs	r5, [r3, #-1327]!	; 0x52f
     434:	622f7372 	eorvs	r7, pc, #-939524095	; 0xc8000001
     438:	6e616972 	mcrvs	9, 3, r6, cr1, cr2, {3}
     43c:	2f6e756a 	svccs	0x006e756a
     440:	6b736544 	blvs	1cd9958 <__bss_end__+0x1ccef68>
     444:	2f706f74 	svccs	0x00706f74
     448:	6f686373 	svcvs	0x00686373
     44c:	532f6c6f 	teqpl	pc, #28416	; 0x6f00
     450:	6e697270 	mcrvs	2, 3, r7, cr9, cr0, {3}
     454:	32393167 	eorscc	r3, r9, #-1073741799	; 0xc0000019
     458:	53432f30 	movtpl	r2, #16176	; 0x3f30
     45c:	4c303432 	cfldrsmi	mvf3, [r0], #-200	; 0xffffff38
     460:	73632f58 	cmnvc	r3, #88, 30	; 0x160
     464:	6c303432 	cfldrsvs	mvf3, [r0], #-200	; 0xffffff38
     468:	30322d78 	eorscc	r2, r2, r8, ror sp
     46c:	2f727073 	svccs	0x00727073
     470:	7062696c 	rsbvc	r6, r2, ip, ror #18
     474:	6e692f69 	cdpvs	15, 6, cr2, cr9, cr9, {3}
     478:	64756c63 	ldrbtvs	r6, [r5], #-3171	; 0xc63
     47c:	752f0065 	strvc	r0, [pc, #-101]!	; 41f <__code_start__-0x7be1>
     480:	6c2f7273 	sfmvs	f7, 4, [pc], #-460	; 2bc <__code_start__-0x7d44>
     484:	6c61636f 	stclvs	3, cr6, [r1], #-444	; 0xfffffe44
     488:	6c65432f 	stclvs	3, cr4, [r5], #-188	; 0xffffff44
     48c:	2f72616c 	svccs	0x0072616c
     490:	2d6d7261 	sfmcs	f7, 2, [sp, #-388]!	; 0xfffffe7c
     494:	656e6f6e 	strbvs	r6, [lr, #-3950]!	; 0xf6e
     498:	6261652d 	rsbvs	r6, r1, #188743680	; 0xb400000
     49c:	2e342f69 	cdpcs	15, 3, cr2, cr4, cr9, {3}
     4a0:	2d332e38 	ldccs	14, cr2, [r3, #-224]!	; 0xffffff20
     4a4:	37317363 	ldrcc	r7, [r1, -r3, ror #6]!
     4a8:	6c2f6530 	cfstr32vs	mvfx6, [pc], #-192	; 3f0 <__code_start__-0x7c10>
     4ac:	672f6269 	strvs	r6, [pc, -r9, ror #4]!
     4b0:	612f6363 	teqvs	pc, r3, ror #6
     4b4:	6e2d6d72 	mcrvs	13, 1, r6, cr13, cr2, {3}
     4b8:	2d656e6f 	stclcs	14, cr6, [r5, #-444]!	; 0xfffffe44
     4bc:	69626165 	stmdbvs	r2!, {r0, r2, r5, r6, r8, sp, lr}^
     4c0:	382e342f 	stmdacc	lr!, {r0, r1, r2, r3, r5, sl, ip, sp}
     4c4:	692f332e 	stmdbvs	pc!, {r1, r2, r3, r5, r8, r9, ip, sp}	; <UNPREDICTABLE>
     4c8:	756c636e 	strbvc	r6, [ip, #-878]!	; 0x36e
     4cc:	00006564 	andeq	r6, r0, r4, ror #10
     4d0:	63656863 	cmnvs	r5, #6488064	; 0x630000
     4d4:	6e692d6b 	cdpvs	13, 6, cr2, cr9, cr11, {3}
     4d8:	6c726574 	cfldr64vs	mvdx6, [r2], #-464	; 0xfffffe30
     4dc:	65766165 	ldrbvs	r6, [r6, #-357]!	; 0x165
     4e0:	0000632e 	andeq	r6, r0, lr, lsr #6
     4e4:	70630000 	rsbvc	r0, r3, r0
     4e8:	642d3431 	strtvs	r3, [sp], #-1073	; 0x431
     4ec:	67756265 	ldrbvs	r6, [r5, -r5, ror #4]!
     4f0:	0000682e 	andeq	r6, r0, lr, lsr #16
     4f4:	70720000 	rsbsvc	r0, r2, r0
     4f8:	6e692d69 	cdpvs	13, 6, cr2, cr9, cr9, {3}
     4fc:	72726574 	rsbsvc	r6, r2, #116, 10	; 0x1d000000
     500:	73747075 	cmnvc	r4, #117	; 0x75
     504:	0100682e 	tsteq	r0, lr, lsr #16
     508:	69620000 	stmdbvs	r2!, {}^	; <UNPREDICTABLE>
     50c:	75732d74 	ldrbvc	r2, [r3, #-3444]!	; 0xd74
     510:	726f7070 	rsbvc	r7, pc, #112	; 0x70
     514:	00682e74 	rsbeq	r2, r8, r4, ror lr
     518:	63000000 	movwvs	r0, #0
     51c:	2d727370 	ldclcs	3, cr7, [r2, #-448]!	; 0xfffffe40
     520:	6c697475 	cfstrdvs	mvd7, [r9], #-468	; 0xfffffe2c
     524:	0000682e 	andeq	r6, r0, lr, lsr #16
     528:	74730000 	ldrbtvc	r0, [r3], #-0
     52c:	746e6964 	strbtvc	r6, [lr], #-2404	; 0x964
     530:	6363672d 	cmnvs	r3, #11796480	; 0xb40000
     534:	0200682e 	andeq	r6, r0, #3014656	; 0x2e0000
     538:	68630000 	stmdavs	r3!, {}^	; <UNPREDICTABLE>
     53c:	2d6b6365 	stclcs	3, cr6, [fp, #-404]!	; 0xfffffe6c
     540:	65746e69 	ldrbvs	r6, [r4, #-3689]!	; 0xe69
     544:	61656c72 	smcvs	22210	; 0x56c2
     548:	682e6576 	stmdavs	lr!, {r1, r2, r4, r5, r6, r8, sl, sp, lr}
     54c:	00000000 	andeq	r0, r0, r0
     550:	2e697072 	mcrcs	0, 3, r7, cr9, cr2, {3}
     554:	00010068 	andeq	r0, r1, r8, rrx
     558:	05000000 	streq	r0, [r0, #-0]
     55c:	0089ac02 	addeq	sl, r9, r2, lsl #24
     560:	010a0300 	mrseq	r0, (UNDEF: 58)
     564:	04020067 	streq	r0, [r2], #-103	; 0x67
     568:	04820601 	streq	r0, [r2], #1537	; 0x601
     56c:	9a030602 	bls	c1d7c <__bss_end__+0xb738c>
     570:	0433ba01 	ldrteq	fp, [r3], #-2561	; 0xa01
     574:	7ee20301 	cdpvc	3, 14, cr0, cr2, cr1, {0}
     578:	4dd84b2e 	vldrmi	d20, [r8, #184]	; 0xb8
     57c:	2f4b8783 	svccs	0x004b8783
     580:	6868674b 	stmdavs	r8!, {r0, r1, r3, r6, r8, r9, sl, sp, lr}^
     584:	01040200 	mrseq	r0, R12_usr
     588:	08068206 	stmdaeq	r6, {r1, r2, r9, pc}
     58c:	02006821 	andeq	r6, r0, #2162688	; 0x210000
     590:	82060104 	andhi	r0, r6, #4, 2
     594:	0067bb06 	rsbeq	fp, r7, r6, lsl #22
     598:	06010402 	streq	r0, [r1], -r2, lsl #8
     59c:	08bc0682 	ldmeq	ip!, {r1, r7, r9, sl}
     5a0:	640304ca 	strvs	r0, [r3], #-1226	; 0x4ca
     5a4:	04310404 	ldrteq	r0, [r1], #-1028	; 0x404
     5a8:	2e6b0305 	cdpcs	3, 6, cr0, cr11, cr5, {0}
     5ac:	18030104 	stmdane	r3, {r2, r8}
     5b0:	844e4b2e 	strbhi	r4, [lr], #-2862	; 0xb2e
     5b4:	0200682a 	andeq	r6, r0, #2752512	; 0x2a0000
     5b8:	66060104 	strvs	r0, [r6], -r4, lsl #2
     5bc:	676ad806 	strbvs	sp, [sl, -r6, lsl #16]!
     5c0:	6784314b 	strvs	r3, [r4, fp, asr #2]
     5c4:	69849f69 	stmibvs	r4, {r0, r3, r5, r6, r8, r9, sl, fp, ip, pc}
     5c8:	04046868 	streq	r6, [r4], #-2152	; 0x868
     5cc:	04825203 	streq	r5, [r2], #515	; 0x203
     5d0:	2e6c0305 	cdpcs	3, 6, cr0, cr12, cr5, {0}
     5d4:	25086765 	strcs	r6, [r8, #-1893]	; 0x765
     5d8:	28026008 	stmdacs	r2, {r3, sp, lr}
     5dc:	4b4b4b15 	blmi	12d3238 <__bss_end__+0x12c8848>
     5e0:	79034b4b 	stmdbvc	r3, {r0, r1, r3, r6, r8, r9, fp, lr}
     5e4:	01044bf2 	strdeq	r4, [r4, -r2]
     5e8:	042e3703 	strteq	r3, [lr], #-1795	; 0x703
     5ec:	66560303 	ldrbvs	r0, [r6], -r3, lsl #6
     5f0:	78030404 	stmdavc	r3, {r2, sl}
     5f4:	0305042e 	movweq	r0, #21550	; 0x542e
     5f8:	67652e6c 	strbvs	r2, [r5, -ip, ror #28]!
     5fc:	60082508 	andvs	r2, r8, r8, lsl #10
     600:	4b152802 	blmi	54a610 <__bss_end__+0x53fc20>
     604:	4b4b4b4b 	blmi	12d3338 <__bss_end__+0x12c8948>
     608:	4bf27903 	blmi	ffc9ea1c <__bss_end__+0xffc9402c>
     60c:	0d030304 	stceq	3, cr0, [r3, #-16]
     610:	0301042e 	movweq	r0, #5166	; 0x142e
     614:	044c2e2b 	strbeq	r2, [ip], #-3627	; 0xe2b
     618:	4a4b0304 	bmi	12c1230 <__bss_end__+0x12b6840>
     61c:	6c030504 	cfstr32vs	mvfx0, [r3], {4}
     620:	0867652e 	stmdaeq	r7!, {r1, r2, r3, r5, r8, sl, sp, lr}^
     624:	03030425 	movweq	r0, #13349	; 0x3425
     628:	04580817 	ldrbeq	r0, [r8], #-2071	; 0x817
     62c:	2e780304 	cdpcs	3, 7, cr0, cr8, cr4, {0}
     630:	6c030504 	cfstr32vs	mvfx0, [r3], {4}
     634:	0867652e 	stmdaeq	r7!, {r1, r2, r3, r5, r8, sl, sp, lr}^
     638:	03010425 	movweq	r0, #5157	; 0x1425
     63c:	580800c6 	stmdapl	r8, {r1, r2, r6, r7}
     640:	01040200 	mrseq	r0, R12_usr
     644:	08064a06 	stmdaeq	r6, {r1, r2, r9, fp, lr}
     648:	022f4c24 	eoreq	r4, pc, #36, 24	; 0x2400
     64c:	4b4d173a 	blmi	134633c <__bss_end__+0x133b94c>
     650:	9f676768 	svcls	0x00676768
     654:	00d67a03 	sbcseq	r7, r6, r3, lsl #20
     658:	06010402 	streq	r0, [r1], -r2, lsl #8
     65c:	1203062e 	andne	r0, r3, #48234496	; 0x2e00000
     660:	491aa14a 	ldmdbmi	sl, {r1, r3, r6, r8, sp, pc}
     664:	2d2d2d2d 	stccs	13, cr2, [sp, #-180]!	; 0xffffff4c
     668:	0a032d2d 	beq	cbb24 <__bss_end__+0xc1134>
     66c:	4b2f4b4a 	blmi	bd339c <__bss_end__+0xbc89ac>
     670:	01040200 	mrseq	r0, R12_usr
     674:	06828206 	streq	r8, [r2], r6, lsl #4
     678:	0002029f 	muleq	r2, pc, r2	; <UNPREDICTABLE>
     67c:	010c0101 	tsteq	ip, r1, lsl #2
     680:	00020000 	andeq	r0, r2, r0
     684:	000000f5 	strdeq	r0, [r0], -r5
     688:	0efb0102 	cdpeq	1, 15, cr0, cr11, cr2, {0}
     68c:	0101000d 	tsteq	r1, sp
     690:	00000101 	andeq	r0, r0, r1, lsl #2
     694:	00000100 	andeq	r0, r0, r0, lsl #2
     698:	62696c01 	rsbvs	r6, r9, #256	; 0x100
     69c:	752f0063 	strvc	r0, [pc, #-99]!	; 641 <__code_start__-0x79bf>
     6a0:	6c2f7273 	sfmvs	f7, 4, [pc], #-460	; 4dc <__code_start__-0x7b24>
     6a4:	6c61636f 	stclvs	3, cr6, [r1], #-444	; 0xfffffe44
     6a8:	6c65432f 	stclvs	3, cr4, [r5], #-188	; 0xffffff44
     6ac:	2f72616c 	svccs	0x0072616c
     6b0:	2d6d7261 	sfmcs	f7, 2, [sp, #-388]!	; 0xfffffe7c
     6b4:	656e6f6e 	strbvs	r6, [lr, #-3950]!	; 0xf6e
     6b8:	6261652d 	rsbvs	r6, r1, #188743680	; 0xb400000
     6bc:	2e342f69 	cdpcs	15, 3, cr2, cr4, cr9, {3}
     6c0:	2d332e38 	ldccs	14, cr2, [r3, #-224]!	; 0xffffff20
     6c4:	37317363 	ldrcc	r7, [r1, -r3, ror #6]!
     6c8:	6c2f6530 	cfstr32vs	mvfx6, [pc], #-192	; 610 <__code_start__-0x79f0>
     6cc:	672f6269 	strvs	r6, [pc, -r9, ror #4]!
     6d0:	612f6363 	teqvs	pc, r3, ror #6
     6d4:	6e2d6d72 	mcrvs	13, 1, r6, cr13, cr2, {3}
     6d8:	2d656e6f 	stclcs	14, cr6, [r5, #-444]!	; 0xfffffe44
     6dc:	69626165 	stmdbvs	r2!, {r0, r2, r5, r6, r8, sp, lr}^
     6e0:	382e342f 	stmdacc	lr!, {r0, r1, r2, r3, r5, sl, ip, sp}
     6e4:	692f332e 	stmdbvs	pc!, {r1, r2, r3, r5, r8, r9, ip, sp}	; <UNPREDICTABLE>
     6e8:	756c636e 	strbvc	r6, [ip, #-878]!	; 0x36e
     6ec:	2f006564 	svccs	0x00006564
     6f0:	72657355 	rsbvc	r7, r5, #1409286145	; 0x54000001
     6f4:	72622f73 	rsbvc	r2, r2, #460	; 0x1cc
     6f8:	6a6e6169 	bvs	1b98ca4 <__bss_end__+0x1b8e2b4>
     6fc:	442f6e75 	strtmi	r6, [pc], #-3701	; 704 <__code_start__-0x78fc>
     700:	746b7365 	strbtvc	r7, [fp], #-869	; 0x365
     704:	732f706f 	teqvc	pc, #111	; 0x6f
     708:	6f6f6863 	svcvs	0x006f6863
     70c:	70532f6c 	subsvc	r2, r3, ip, ror #30
     710:	676e6972 			; <UNDEFINED> instruction: 0x676e6972
     714:	30323931 	eorscc	r3, r2, r1, lsr r9
     718:	3253432f 	subscc	r4, r3, #-1140850688	; 0xbc000000
     71c:	584c3034 	stmdapl	ip, {r2, r4, r5, ip, sp}^
     720:	3273632f 	rsbscc	r6, r3, #-1140850688	; 0xbc000000
     724:	786c3034 	stmdavc	ip!, {r2, r4, r5, ip, sp}^
     728:	7330322d 	teqvc	r0, #-805306366	; 0xd0000002
     72c:	6c2f7270 	sfmvs	f7, 4, [pc], #-448	; 574 <__code_start__-0x7a8c>
     730:	69706269 	ldmdbvs	r0!, {r0, r3, r5, r6, r9, sp, lr}^
     734:	636e692f 	cmnvs	lr, #770048	; 0xbc000
     738:	6564756c 	strbvs	r7, [r4, #-1388]!	; 0x56c
     73c:	72700000 	rsbsvc	r0, r0, #0
     740:	6b746e69 	blvs	1d1c0ec <__bss_end__+0x1d116fc>
     744:	0100632e 	tsteq	r0, lr, lsr #6
     748:	74730000 	ldrbtvc	r0, [r3], #-0
     74c:	67726164 	ldrbvs	r6, [r2, -r4, ror #2]!
     750:	0200682e 	andeq	r6, r0, #3014656	; 0x2e0000
     754:	623c0000 	eorsvs	r0, ip, #0
     758:	746c6975 	strbtvc	r6, [ip], #-2421	; 0x975
     75c:	3e6e692d 	cdpcc	9, 6, cr6, cr14, cr13, {1}
     760:	00000000 	andeq	r0, r0, r0
     764:	2e697072 	mcrcs	0, 3, r7, cr9, cr2, {3}
     768:	00030068 	andeq	r0, r3, r8, rrx
     76c:	2d617600 	stclcs	6, cr7, [r1, #-0]
     770:	6e697270 	mcrvs	2, 3, r7, cr9, cr0, {3}
     774:	682e6b74 	stmdavs	lr!, {r2, r4, r5, r6, r8, r9, fp, sp, lr}
     778:	00000100 	andeq	r0, r0, r0, lsl #2
     77c:	02050000 	andeq	r0, r5, #0
     780:	0000911c 	andeq	r9, r0, ip, lsl r1
     784:	bf4b6b17 	svclt	0x004b6b17
     788:	000e0289 	andeq	r0, lr, r9, lsl #5
     78c:	00940101 	addseq	r0, r4, r1, lsl #2
     790:	00020000 	andeq	r0, r2, r0
     794:	0000007c 	andeq	r0, r0, ip, ror r0
     798:	0efb0102 	cdpeq	1, 15, cr0, cr11, cr2, {0}
     79c:	0101000d 	tsteq	r1, sp
     7a0:	00000101 	andeq	r0, r0, r1, lsl #2
     7a4:	00000100 	andeq	r0, r0, r0, lsl #2
     7a8:	62696c01 	rsbvs	r6, r9, #256	; 0x100
     7ac:	552f0063 	strpl	r0, [pc, #-99]!	; 751 <__code_start__-0x78af>
     7b0:	73726573 	cmnvc	r2, #482344960	; 0x1cc00000
     7b4:	6972622f 	ldmdbvs	r2!, {r0, r1, r2, r3, r5, r9, sp, lr}^
     7b8:	756a6e61 	strbvc	r6, [sl, #-3681]!	; 0xe61
     7bc:	65442f6e 	strbvs	r2, [r4, #-3950]	; 0xf6e
     7c0:	6f746b73 	svcvs	0x00746b73
     7c4:	63732f70 	cmnvs	r3, #112, 30	; 0x1c0
     7c8:	6c6f6f68 	stclvs	15, cr6, [pc], #-416	; 630 <__code_start__-0x79d0>
     7cc:	7270532f 	rsbsvc	r5, r0, #-1140850688	; 0xbc000000
     7d0:	31676e69 	cmncc	r7, r9, ror #28
     7d4:	2f303239 	svccs	0x00303239
     7d8:	34325343 	ldrtcc	r5, [r2], #-835	; 0x343
     7dc:	2f584c30 	svccs	0x00584c30
     7e0:	34327363 	ldrtcc	r7, [r2], #-867	; 0x363
     7e4:	2d786c30 	ldclcs	12, cr6, [r8, #-192]!	; 0xffffff40
     7e8:	70733032 	rsbsvc	r3, r3, r2, lsr r0
     7ec:	696c2f72 	stmdbvs	ip!, {r1, r4, r5, r6, r8, r9, sl, fp, sp}^
     7f0:	2f697062 	svccs	0x00697062
     7f4:	6c636e69 	stclvs	14, cr6, [r3], #-420	; 0xfffffe5c
     7f8:	00656475 	rsbeq	r6, r5, r5, ror r4
     7fc:	74757000 	ldrbtvc	r7, [r5], #-0
     800:	72616863 	rsbvc	r6, r1, #6488064	; 0x630000
     804:	0100632e 	tsteq	r0, lr, lsr #6
     808:	70720000 	rsbsvc	r0, r2, r0
     80c:	00682e69 	rsbeq	r2, r8, r9, ror #28
     810:	00000002 	andeq	r0, r0, r2
     814:	74020500 	strvc	r0, [r2], #-1280	; 0x500
     818:	14000091 	strne	r0, [r0], #-145	; 0x91
     81c:	bc136b4a 	ldclt	11, cr6, [r3], {74}	; 0x4a
     820:	00080213 	andeq	r0, r8, r3, lsl r2
     824:	00a00101 	adceq	r0, r0, r1, lsl #2
     828:	00020000 	andeq	r0, r2, r0
     82c:	00000079 	andeq	r0, r0, r9, ror r0
     830:	0efb0102 	cdpeq	1, 15, cr0, cr11, cr2, {0}
     834:	0101000d 	tsteq	r1, sp
     838:	00000101 	andeq	r0, r0, r1, lsl #2
     83c:	00000100 	andeq	r0, r0, r0, lsl #2
     840:	62696c01 	rsbvs	r6, r9, #256	; 0x100
     844:	552f0063 	strpl	r0, [pc, #-99]!	; 7e9 <__code_start__-0x7817>
     848:	73726573 	cmnvc	r2, #482344960	; 0x1cc00000
     84c:	6972622f 	ldmdbvs	r2!, {r0, r1, r2, r3, r5, r9, sp, lr}^
     850:	756a6e61 	strbvc	r6, [sl, #-3681]!	; 0xe61
     854:	65442f6e 	strbvs	r2, [r4, #-3950]	; 0xf6e
     858:	6f746b73 	svcvs	0x00746b73
     85c:	63732f70 	cmnvs	r3, #112, 30	; 0x1c0
     860:	6c6f6f68 	stclvs	15, cr6, [pc], #-416	; 6c8 <__code_start__-0x7938>
     864:	7270532f 	rsbsvc	r5, r0, #-1140850688	; 0xbc000000
     868:	31676e69 	cmncc	r7, r9, ror #28
     86c:	2f303239 	svccs	0x00303239
     870:	34325343 	ldrtcc	r5, [r2], #-835	; 0x343
     874:	2f584c30 	svccs	0x00584c30
     878:	34327363 	ldrtcc	r7, [r2], #-867	; 0x363
     87c:	2d786c30 	ldclcs	12, cr6, [r8, #-192]!	; 0xffffff40
     880:	70733032 	rsbsvc	r3, r3, r2, lsr r0
     884:	696c2f72 	stmdbvs	ip!, {r1, r4, r5, r6, r8, r9, sl, fp, sp}^
     888:	2f697062 	svccs	0x00697062
     88c:	6c636e69 	stclvs	14, cr6, [r3], #-420	; 0xfffffe5c
     890:	00656475 	rsbeq	r6, r5, r5, ror r4
     894:	74757000 	ldrbtvc	r7, [r5], #-0
     898:	00632e6b 	rsbeq	r2, r3, fp, ror #28
     89c:	72000001 	andvc	r0, r0, #1
     8a0:	682e6970 	stmdavs	lr!, {r4, r5, r6, r8, fp, sp, lr}
     8a4:	00000200 	andeq	r0, r0, r0, lsl #4
     8a8:	02050000 	andeq	r0, r5, #0
     8ac:	000091b0 			; <UNDEFINED> instruction: 0x000091b0
     8b0:	002d4c15 	eoreq	r4, sp, r5, lsl ip
     8b4:	2f020402 	svccs	0x00020402
     8b8:	02040200 	andeq	r0, r4, #0, 4
     8bc:	04020049 	streq	r0, [r2], #-73	; 0x49
     8c0:	062e0601 	strteq	r0, [lr], -r1, lsl #12
     8c4:	0006026b 	andeq	r0, r6, fp, ror #4
     8c8:	01f10101 	mvnseq	r0, r1, lsl #2
     8cc:	00020000 	andeq	r0, r2, r0
     8d0:	000000e9 	andeq	r0, r0, r9, ror #1
     8d4:	0efb0102 	cdpeq	1, 15, cr0, cr11, cr2, {0}
     8d8:	0101000d 	tsteq	r1, sp
     8dc:	00000101 	andeq	r0, r0, r1, lsl #2
     8e0:	00000100 	andeq	r0, r0, r0, lsl #2
     8e4:	62696c01 	rsbvs	r6, r9, #256	; 0x100
     8e8:	752f0063 	strvc	r0, [pc, #-99]!	; 88d <__code_start__-0x7773>
     8ec:	6c2f7273 	sfmvs	f7, 4, [pc], #-460	; 728 <__code_start__-0x78d8>
     8f0:	6c61636f 	stclvs	3, cr6, [r1], #-444	; 0xfffffe44
     8f4:	6c65432f 	stclvs	3, cr4, [r5], #-188	; 0xffffff44
     8f8:	2f72616c 	svccs	0x0072616c
     8fc:	2d6d7261 	sfmcs	f7, 2, [sp, #-388]!	; 0xfffffe7c
     900:	656e6f6e 	strbvs	r6, [lr, #-3950]!	; 0xf6e
     904:	6261652d 	rsbvs	r6, r1, #188743680	; 0xb400000
     908:	2e342f69 	cdpcs	15, 3, cr2, cr4, cr9, {3}
     90c:	2d332e38 	ldccs	14, cr2, [r3, #-224]!	; 0xffffff20
     910:	37317363 	ldrcc	r7, [r1, -r3, ror #6]!
     914:	6c2f6530 	cfstr32vs	mvfx6, [pc], #-192	; 85c <__code_start__-0x77a4>
     918:	672f6269 	strvs	r6, [pc, -r9, ror #4]!
     91c:	612f6363 	teqvs	pc, r3, ror #6
     920:	6e2d6d72 	mcrvs	13, 1, r6, cr13, cr2, {3}
     924:	2d656e6f 	stclcs	14, cr6, [r5, #-444]!	; 0xfffffe44
     928:	69626165 	stmdbvs	r2!, {r0, r2, r5, r6, r8, sp, lr}^
     92c:	382e342f 	stmdacc	lr!, {r0, r1, r2, r3, r5, sl, ip, sp}
     930:	692f332e 	stmdbvs	pc!, {r1, r2, r3, r5, r8, r9, ip, sp}	; <UNPREDICTABLE>
     934:	756c636e 	strbvc	r6, [ip, #-878]!	; 0x36e
     938:	2f006564 	svccs	0x00006564
     93c:	72657355 	rsbvc	r7, r5, #1409286145	; 0x54000001
     940:	72622f73 	rsbvc	r2, r2, #460	; 0x1cc
     944:	6a6e6169 	bvs	1b98ef0 <__bss_end__+0x1b8e500>
     948:	442f6e75 	strtmi	r6, [pc], #-3701	; 950 <__code_start__-0x76b0>
     94c:	746b7365 	strbtvc	r7, [fp], #-869	; 0x365
     950:	732f706f 	teqvc	pc, #111	; 0x6f
     954:	6f6f6863 	svcvs	0x006f6863
     958:	70532f6c 	subsvc	r2, r3, ip, ror #30
     95c:	676e6972 			; <UNDEFINED> instruction: 0x676e6972
     960:	30323931 	eorscc	r3, r2, r1, lsr r9
     964:	3253432f 	subscc	r4, r3, #-1140850688	; 0xbc000000
     968:	584c3034 	stmdapl	ip, {r2, r4, r5, ip, sp}^
     96c:	3273632f 	rsbscc	r6, r3, #-1140850688	; 0xbc000000
     970:	786c3034 	stmdavc	ip!, {r2, r4, r5, ip, sp}^
     974:	7330322d 	teqvc	r0, #-805306366	; 0xd0000002
     978:	6c2f7270 	sfmvs	f7, 4, [pc], #-448	; 7c0 <__code_start__-0x7840>
     97c:	69706269 	ldmdbvs	r0!, {r0, r3, r5, r6, r9, sp, lr}^
     980:	636e692f 	cmnvs	lr, #770048	; 0xbc000
     984:	6564756c 	strbvs	r7, [r4, #-1388]!	; 0x56c
     988:	61760000 	cmnvs	r6, r0
     98c:	6972702d 	ldmdbvs	r2!, {r0, r2, r3, r5, ip, sp, lr}^
     990:	2e6b746e 	cdpcs	4, 6, cr7, cr11, cr14, {3}
     994:	00010063 	andeq	r0, r1, r3, rrx
     998:	64747300 	ldrbtvs	r7, [r4], #-768	; 0x300
     99c:	2e677261 	cdpcs	2, 6, cr7, cr7, cr1, {3}
     9a0:	00020068 	andeq	r0, r2, r8, rrx
     9a4:	69707200 	ldmdbvs	r0!, {r9, ip, sp, lr}^
     9a8:	0300682e 	movweq	r6, #2094	; 0x82e
     9ac:	623c0000 	eorsvs	r0, ip, #0
     9b0:	746c6975 	strbtvc	r6, [ip], #-2421	; 0x975
     9b4:	3e6e692d 	cdpcc	9, 6, cr6, cr14, cr13, {1}
     9b8:	00000000 	andeq	r0, r0, r0
     9bc:	02050000 	andeq	r0, r5, #0
     9c0:	000091e4 	andeq	r9, r0, r4, ror #3
     9c4:	01012603 	tsteq	r1, r3, lsl #12
     9c8:	2d3113a5 	ldccs	3, cr1, [r1, #-660]!	; 0xfffffd6c
     9cc:	02040200 	andeq	r0, r4, #0, 4
     9d0:	0402002f 	streq	r0, [r2], #-47	; 0x2f
     9d4:	02002d02 	andeq	r2, r0, #2, 26	; 0x80
     9d8:	002f0204 	eoreq	r0, pc, r4, lsl #4
     9dc:	2d010402 	cfstrscs	mvf0, [r1, #-8]
     9e0:	14304c4c 	ldrtne	r4, [r0], #-3148	; 0xc4c
     9e4:	004f2f4b 	subeq	r2, pc, fp, asr #30
     9e8:	67020402 	strvs	r0, [r2, -r2, lsl #8]
     9ec:	01040200 	mrseq	r0, R12_usr
     9f0:	304d4c65 	subcc	r4, sp, r5, ror #24
     9f4:	30312fa0 	eorscc	r2, r1, r0, lsr #31
     9f8:	84162602 	ldrhi	r2, [r6], #-1538	; 0x602
     9fc:	02002c2d 	andeq	r2, r0, #11520	; 0x2d00
     a00:	00300104 	eorseq	r0, r0, r4, lsl #2
     a04:	33010402 	movwcc	r0, #5122	; 0x1402
     a08:	02006606 	andeq	r6, r0, #6291456	; 0x600000
     a0c:	002e0104 	eoreq	r0, lr, r4, lsl #2
     a10:	06010402 	streq	r0, [r1], -r2, lsl #8
     a14:	2f672108 	svccs	0x00672108
     a18:	03827303 	orreq	r7, r2, #201326592	; 0xc000000
     a1c:	02002e13 	andeq	r2, r0, #304	; 0x130
     a20:	66060104 	strvs	r0, [r6], -r4, lsl #2
     a24:	01040200 	mrseq	r0, R12_usr
     a28:	4b4b8306 	blmi	12e1648 <__bss_end__+0x12d6c58>
     a2c:	034b3167 	movteq	r3, #45415	; 0xb167
     a30:	23032e65 	movwcs	r2, #15973	; 0x3e65
     a34:	0402002e 	streq	r0, [r2], #-46	; 0x2e
     a38:	002e0601 	eoreq	r0, lr, r1, lsl #12
     a3c:	06010402 	streq	r0, [r1], -r2, lsl #8
     a40:	0402009f 	streq	r0, [r2], #-159	; 0x9f
     a44:	23086a01 	movwcs	r6, #35329	; 0x8a01
     a48:	7fa403d7 	svcvc	0x00a403d7
     a4c:	004b3c08 	subeq	r3, fp, r8, lsl #24
     a50:	06010402 	streq	r0, [r1], -r2, lsl #8
     a54:	2108064a 	tstcs	r8, sl, asr #12
     a58:	034b2f4b 	movteq	r2, #48971	; 0xbf4b
     a5c:	9ff200db 	svcls	0x00f200db
     a60:	4b32484c 	blmi	c92b98 <__bss_end__+0xc881a8>
     a64:	2f4b842f 	svccs	0x004b842f
     a68:	30314d2d 	eorscc	r4, r1, sp, lsr #26
     a6c:	0200832f 	andeq	r8, r0, #-1140850688	; 0xbc000000
     a70:	be2c0104 	suflte	f0, f4, f4
     a74:	01040200 	mrseq	r0, R12_usr
     a78:	08064a06 	stmdaeq	r6, {r1, r2, r9, fp, lr}
     a7c:	16360222 	ldrtne	r0, [r6], -r2, lsr #4
     a80:	08d60e03 	ldmeq	r6, {r0, r1, r9, sl, fp}^
     a84:	21083021 	tstcs	r8, r1, lsr #32
     a88:	30210831 	eorcc	r0, r1, r1, lsr r8
     a8c:	4b302108 	blmi	c08eb4 <__bss_end__+0xbfe4c4>
     a90:	30210830 	eorcc	r0, r1, r0, lsr r8
     a94:	d983834b 	stmible	r3, {r0, r1, r3, r6, r8, r9, pc}
     a98:	02002f31 	andeq	r2, r0, #49, 30	; 0xc4
     a9c:	00650104 	rsbeq	r0, r5, r4, lsl #2
     aa0:	06020402 	streq	r0, [r2], -r2, lsl #8
     aa4:	0402004a 	streq	r0, [r2], #-74	; 0x4a
     aa8:	bf030601 	svclt	0x00030601
     aac:	0200667f 	andeq	r6, r0, #133169152	; 0x7f00000
     ab0:	66060204 	strvs	r0, [r6], -r4, lsl #4
     ab4:	00c50306 	sbceq	r0, r5, r6, lsl #6
     ab8:	1602684a 	strne	r6, [r2], -sl, asr #16
     abc:	42010100 	andmi	r0, r1, #0, 2
     ac0:	02000000 	andeq	r0, r0, #0
     ac4:	00002800 	andeq	r2, r0, r0, lsl #16
     ac8:	fb010200 	blx	412d2 <__bss_end__+0x368e2>
     acc:	01000d0e 	tsteq	r0, lr, lsl #26
     ad0:	00010101 	andeq	r0, r1, r1, lsl #2
     ad4:	00010000 	andeq	r0, r1, r0
     ad8:	74730100 	ldrbtvc	r0, [r3], #-256	; 0x100
     adc:	2d666661 	stclcs	6, cr6, [r6, #-388]!	; 0xfffffe7c
     ae0:	00637273 	rsbeq	r7, r3, r3, ror r2
     ae4:	63616300 	cmnvs	r1, #0, 6
     ae8:	632e6568 	teqvs	lr, #104, 10	; 0x1a000000
     aec:	00000100 	andeq	r0, r0, r0, lsl #2
     af0:	02050000 	andeq	r0, r5, #0
     af4:	0000975c 	andeq	r9, r0, ip, asr r7
     af8:	2f301414 	svccs	0x00301414
     afc:	2f31144e 	svccs	0x0031144e
     b00:	01000402 	tsteq	r0, r2, lsl #8
     b04:	00009d01 	andeq	r9, r0, r1, lsl #26
     b08:	86000200 	strhi	r0, [r0], -r0, lsl #4
     b0c:	02000000 	andeq	r0, r0, #0
     b10:	0d0efb01 	vstreq	d15, [lr, #-4]
     b14:	01010100 	mrseq	r0, (UNDEF: 17)
     b18:	00000001 	andeq	r0, r0, r1
     b1c:	01000001 	tsteq	r0, r1
     b20:	66617473 			; <UNDEFINED> instruction: 0x66617473
     b24:	72732d66 	rsbsvc	r2, r3, #6528	; 0x1980
     b28:	552f0063 	strpl	r0, [pc, #-99]!	; acd <__code_start__-0x7533>
     b2c:	73726573 	cmnvc	r2, #482344960	; 0x1cc00000
     b30:	6972622f 	ldmdbvs	r2!, {r0, r1, r2, r3, r5, r9, sp, lr}^
     b34:	756a6e61 	strbvc	r6, [sl, #-3681]!	; 0xe61
     b38:	65442f6e 	strbvs	r2, [r4, #-3950]	; 0xf6e
     b3c:	6f746b73 	svcvs	0x00746b73
     b40:	63732f70 	cmnvs	r3, #112, 30	; 0x1c0
     b44:	6c6f6f68 	stclvs	15, cr6, [pc], #-416	; 9ac <__code_start__-0x7654>
     b48:	7270532f 	rsbsvc	r5, r0, #-1140850688	; 0xbc000000
     b4c:	31676e69 	cmncc	r7, r9, ror #28
     b50:	2f303239 	svccs	0x00303239
     b54:	34325343 	ldrtcc	r5, [r2], #-835	; 0x343
     b58:	2f584c30 	svccs	0x00584c30
     b5c:	34327363 	ldrtcc	r7, [r2], #-867	; 0x363
     b60:	2d786c30 	ldclcs	12, cr6, [r8, #-192]!	; 0xffffff40
     b64:	70733032 	rsbsvc	r3, r3, r2, lsr r0
     b68:	696c2f72 	stmdbvs	ip!, {r1, r4, r5, r6, r8, r9, sl, fp, sp}^
     b6c:	2f697062 	svccs	0x00697062
     b70:	6c636e69 	stclvs	14, cr6, [r3], #-420	; 0xfffffe5c
     b74:	00656475 	rsbeq	r6, r5, r5, ror r4
     b78:	656c6300 	strbvs	r6, [ip, #-768]!	; 0x300
     b7c:	722d6e61 	eorvc	r6, sp, #1552	; 0x610
     b80:	6f6f6265 	svcvs	0x006f6265
     b84:	00632e74 	rsbeq	r2, r3, r4, ror lr
     b88:	72000001 	andvc	r0, r0, #1
     b8c:	682e6970 	stmdavs	lr!, {r4, r5, r6, r8, fp, sp, lr}
     b90:	00000200 	andeq	r0, r0, r0, lsl #4
     b94:	02050000 	andeq	r0, r5, #0
     b98:	0000977c 	andeq	r9, r0, ip, ror r7
     b9c:	832f2f15 	teqhi	pc, #21, 30	; 0x54
     ba0:	0006024b 	andeq	r0, r6, fp, asr #4
     ba4:	00a60101 	adceq	r0, r6, r1, lsl #2
     ba8:	00020000 	andeq	r0, r2, r0
     bac:	00000080 	andeq	r0, r0, r0, lsl #1
     bb0:	0efb0102 	cdpeq	1, 15, cr0, cr11, cr2, {0}
     bb4:	0101000d 	tsteq	r1, sp
     bb8:	00000101 	andeq	r0, r0, r1, lsl #2
     bbc:	00000100 	andeq	r0, r0, r0, lsl #2
     bc0:	61747301 	cmnvs	r4, r1, lsl #6
     bc4:	732d6666 	teqvc	sp, #106954752	; 0x6600000
     bc8:	2f006372 	svccs	0x00006372
     bcc:	72657355 	rsbvc	r7, r5, #1409286145	; 0x54000001
     bd0:	72622f73 	rsbvc	r2, r2, #460	; 0x1cc
     bd4:	6a6e6169 	bvs	1b99180 <__bss_end__+0x1b8e790>
     bd8:	442f6e75 	strtmi	r6, [pc], #-3701	; be0 <__code_start__-0x7420>
     bdc:	746b7365 	strbtvc	r7, [fp], #-869	; 0x365
     be0:	732f706f 	teqvc	pc, #111	; 0x6f
     be4:	6f6f6863 	svcvs	0x006f6863
     be8:	70532f6c 	subsvc	r2, r3, ip, ror #30
     bec:	676e6972 			; <UNDEFINED> instruction: 0x676e6972
     bf0:	30323931 	eorscc	r3, r2, r1, lsr r9
     bf4:	3253432f 	subscc	r4, r3, #-1140850688	; 0xbc000000
     bf8:	584c3034 	stmdapl	ip, {r2, r4, r5, ip, sp}^
     bfc:	3273632f 	rsbscc	r6, r3, #-1140850688	; 0xbc000000
     c00:	786c3034 	stmdavc	ip!, {r2, r4, r5, ip, sp}^
     c04:	7330322d 	teqvc	r0, #-805306366	; 0xd0000002
     c08:	6c2f7270 	sfmvs	f7, 4, [pc], #-448	; a50 <__code_start__-0x75b0>
     c0c:	69706269 	ldmdbvs	r0!, {r0, r3, r5, r6, r9, sp, lr}^
     c10:	636e692f 	cmnvs	lr, #770048	; 0xbc000
     c14:	6564756c 	strbvs	r7, [r4, #-1388]!	; 0x56c
     c18:	73630000 	cmnvc	r3, #0
     c1c:	74726174 	ldrbtvc	r6, [r2], #-372	; 0x174
     c20:	0100632e 	tsteq	r0, lr, lsr #6
     c24:	70720000 	rsbsvc	r0, r2, r0
     c28:	00682e69 	rsbeq	r2, r8, r9, ror #28
     c2c:	00000002 	andeq	r0, r0, r2
     c30:	a8020500 	stmdage	r2, {r8, sl}
     c34:	03000097 	movweq	r0, #151	; 0x97
     c38:	3132010c 	teqcc	r2, ip, lsl #2
     c3c:	002f2d2f 	eoreq	r2, pc, pc, lsr #26
     c40:	49010402 	stmdbmi	r1, {r1, sl}
     c44:	034a0903 	movteq	r0, #43267	; 0xa903
     c48:	022f2e0d 	eoreq	r2, pc, #13, 28	; 0xd0
     c4c:	01010006 	tsteq	r1, r6
     c50:	000000a2 	andeq	r0, r0, r2, lsr #1
     c54:	008e0002 	addeq	r0, lr, r2
     c58:	01020000 	mrseq	r0, (UNDEF: 2)
     c5c:	000d0efb 	strdeq	r0, [sp], -fp
     c60:	01010101 	tsteq	r1, r1, lsl #2
     c64:	01000000 	mrseq	r0, (UNDEF: 0)
     c68:	73010000 	movwvc	r0, #4096	; 0x1000
     c6c:	66666174 			; <UNDEFINED> instruction: 0x66666174
     c70:	6372732d 	cmnvs	r2, #-1275068416	; 0xb4000000
     c74:	73552f00 	cmpvc	r5, #0, 30
     c78:	2f737265 	svccs	0x00737265
     c7c:	61697262 	cmnvs	r9, r2, ror #4
     c80:	6e756a6e 	vsubvs.f32	s13, s10, s29
     c84:	7365442f 	cmnvc	r5, #788529152	; 0x2f000000
     c88:	706f746b 	rsbvc	r7, pc, fp, ror #8
     c8c:	6863732f 	stmdavs	r3!, {r0, r1, r2, r3, r5, r8, r9, ip, sp, lr}^
     c90:	2f6c6f6f 	svccs	0x006c6f6f
     c94:	69727053 	ldmdbvs	r2!, {r0, r1, r4, r6, ip, sp, lr}^
     c98:	3931676e 	ldmdbcc	r1!, {r1, r2, r3, r5, r6, r8, r9, sl, sp, lr}
     c9c:	432f3032 	teqmi	pc, #50	; 0x32
     ca0:	30343253 	eorscc	r3, r4, r3, asr r2
     ca4:	632f584c 	teqvs	pc, #76, 16	; 0x4c0000
     ca8:	30343273 	eorscc	r3, r4, r3, ror r2
     cac:	322d786c 	eorcc	r7, sp, #108, 16	; 0x6c0000
     cb0:	72707330 	rsbsvc	r7, r0, #48, 6	; 0xc0000000
     cb4:	62696c2f 	rsbvs	r6, r9, #12032	; 0x2f00
     cb8:	692f6970 	stmdbvs	pc!, {r4, r5, r6, r8, fp, sp, lr}	; <UNPREDICTABLE>
     cbc:	756c636e 	strbvc	r6, [ip, #-878]!	; 0x36e
     cc0:	00006564 	andeq	r6, r0, r4, ror #10
     cc4:	61666564 	cmnvs	r6, r4, ror #10
     cc8:	2d746c75 	ldclcs	12, cr6, [r4, #-468]!	; 0xfffffe2c
     ccc:	646e6168 	strbtvs	r6, [lr], #-360	; 0x168
     cd0:	2d72656c 	cfldr64cs	mvdx6, [r2, #-432]!	; 0xfffffe50
     cd4:	74736166 	ldrbtvc	r6, [r3], #-358	; 0x166
     cd8:	0100632e 	tsteq	r0, lr, lsr #6
     cdc:	70720000 	rsbsvc	r0, r2, r0
     ce0:	00682e69 	rsbeq	r2, r8, r9, ror #28
     ce4:	00000002 	andeq	r0, r0, r2
     ce8:	e0020500 	and	r0, r2, r0, lsl #10
     cec:	13000097 	movwne	r0, #151	; 0x97
     cf0:	001c0266 	andseq	r0, ip, r6, ror #4
     cf4:	00a30101 	adceq	r0, r3, r1, lsl #2
     cf8:	00020000 	andeq	r0, r2, r0
     cfc:	0000008f 	andeq	r0, r0, pc, lsl #1
     d00:	0efb0102 	cdpeq	1, 15, cr0, cr11, cr2, {0}
     d04:	0101000d 	tsteq	r1, sp
     d08:	00000101 	andeq	r0, r0, r1, lsl #2
     d0c:	00000100 	andeq	r0, r0, r0, lsl #2
     d10:	61747301 	cmnvs	r4, r1, lsl #6
     d14:	732d6666 	teqvc	sp, #106954752	; 0x6600000
     d18:	2f006372 	svccs	0x00006372
     d1c:	72657355 	rsbvc	r7, r5, #1409286145	; 0x54000001
     d20:	72622f73 	rsbvc	r2, r2, #460	; 0x1cc
     d24:	6a6e6169 	bvs	1b992d0 <__bss_end__+0x1b8e8e0>
     d28:	442f6e75 	strtmi	r6, [pc], #-3701	; d30 <__code_start__-0x72d0>
     d2c:	746b7365 	strbtvc	r7, [fp], #-869	; 0x365
     d30:	732f706f 	teqvc	pc, #111	; 0x6f
     d34:	6f6f6863 	svcvs	0x006f6863
     d38:	70532f6c 	subsvc	r2, r3, ip, ror #30
     d3c:	676e6972 			; <UNDEFINED> instruction: 0x676e6972
     d40:	30323931 	eorscc	r3, r2, r1, lsr r9
     d44:	3253432f 	subscc	r4, r3, #-1140850688	; 0xbc000000
     d48:	584c3034 	stmdapl	ip, {r2, r4, r5, ip, sp}^
     d4c:	3273632f 	rsbscc	r6, r3, #-1140850688	; 0xbc000000
     d50:	786c3034 	stmdavc	ip!, {r2, r4, r5, ip, sp}^
     d54:	7330322d 	teqvc	r0, #-805306366	; 0xd0000002
     d58:	6c2f7270 	sfmvs	f7, 4, [pc], #-448	; ba0 <__code_start__-0x7460>
     d5c:	69706269 	ldmdbvs	r0!, {r0, r3, r5, r6, r9, sp, lr}^
     d60:	636e692f 	cmnvs	lr, #770048	; 0xbc000
     d64:	6564756c 	strbvs	r7, [r4, #-1388]!	; 0x56c
     d68:	65640000 	strbvs	r0, [r4, #-0]!
     d6c:	6c756166 	ldfvse	f6, [r5], #-408	; 0xfffffe68
     d70:	61682d74 	smcvs	33492	; 0x82d4
     d74:	656c646e 	strbvs	r6, [ip, #-1134]!	; 0x46e
     d78:	65722d72 	ldrbvs	r2, [r2, #-3442]!	; 0xd72
     d7c:	2e746573 	mrccs	5, 3, r6, cr4, cr3, {3}
     d80:	00010063 	andeq	r0, r1, r3, rrx
     d84:	69707200 	ldmdbvs	r0!, {r9, ip, sp, lr}^
     d88:	0200682e 	andeq	r6, r0, #3014656	; 0x2e0000
     d8c:	00000000 	andeq	r0, r0, r0
     d90:	98240205 	stmdals	r4!, {r0, r2, r9}
     d94:	66130000 	ldrvs	r0, [r3], -r0
     d98:	01001c02 	tsteq	r0, r2, lsl #24
     d9c:	0000ac01 	andeq	sl, r0, r1, lsl #24
     da0:	98000200 	stmdals	r0, {r9}
     da4:	02000000 	andeq	r0, r0, #0
     da8:	0d0efb01 	vstreq	d15, [lr, #-4]
     dac:	01010100 	mrseq	r0, (UNDEF: 17)
     db0:	00000001 	andeq	r0, r0, r1
     db4:	01000001 	tsteq	r0, r1
     db8:	66617473 			; <UNDEFINED> instruction: 0x66617473
     dbc:	72732d66 	rsbsvc	r2, r3, #6528	; 0x1980
     dc0:	552f0063 	strpl	r0, [pc, #-99]!	; d65 <__code_start__-0x729b>
     dc4:	73726573 	cmnvc	r2, #482344960	; 0x1cc00000
     dc8:	6972622f 	ldmdbvs	r2!, {r0, r1, r2, r3, r5, r9, sp, lr}^
     dcc:	756a6e61 	strbvc	r6, [sl, #-3681]!	; 0xe61
     dd0:	65442f6e 	strbvs	r2, [r4, #-3950]	; 0xf6e
     dd4:	6f746b73 	svcvs	0x00746b73
     dd8:	63732f70 	cmnvs	r3, #112, 30	; 0x1c0
     ddc:	6c6f6f68 	stclvs	15, cr6, [pc], #-416	; c44 <__code_start__-0x73bc>
     de0:	7270532f 	rsbsvc	r5, r0, #-1140850688	; 0xbc000000
     de4:	31676e69 	cmncc	r7, r9, ror #28
     de8:	2f303239 	svccs	0x00303239
     dec:	34325343 	ldrtcc	r5, [r2], #-835	; 0x343
     df0:	2f584c30 	svccs	0x00584c30
     df4:	34327363 	ldrtcc	r7, [r2], #-867	; 0x363
     df8:	2d786c30 	ldclcs	12, cr6, [r8, #-192]!	; 0xffffff40
     dfc:	70733032 	rsbsvc	r3, r3, r2, lsr r0
     e00:	696c2f72 	stmdbvs	ip!, {r1, r4, r5, r6, r8, r9, sl, fp, sp}^
     e04:	2f697062 	svccs	0x00697062
     e08:	6c636e69 	stclvs	14, cr6, [r3], #-420	; 0xfffffe5c
     e0c:	00656475 	rsbeq	r6, r5, r5, ror r4
     e10:	66656400 	strbtvs	r6, [r5], -r0, lsl #8
     e14:	746c7561 	strbtvc	r7, [ip], #-1377	; 0x561
     e18:	6e61682d 	cdpvs	8, 6, cr6, cr1, cr13, {1}
     e1c:	72656c64 	rsbvc	r6, r5, #100, 24	; 0x6400
     e20:	646e752d 	strbtvs	r7, [lr], #-1325	; 0x52d
     e24:	6e696665 	cdpvs	6, 6, cr6, cr9, cr5, {3}
     e28:	692d6465 	pushvs	{r0, r2, r5, r6, sl, sp, lr}
     e2c:	2e74736e 	cdpcs	3, 7, cr7, cr4, cr14, {3}
     e30:	00010063 	andeq	r0, r1, r3, rrx
     e34:	69707200 	ldmdbvs	r0!, {r9, ip, sp, lr}^
     e38:	0200682e 	andeq	r6, r0, #3014656	; 0x2e0000
     e3c:	00000000 	andeq	r0, r0, r0
     e40:	98680205 	stmdals	r8!, {r0, r2, r9}^
     e44:	66130000 	ldrvs	r0, [r3], -r0
     e48:	01001c02 	tsteq	r0, r2, lsl #24
     e4c:	00004701 	andeq	r4, r0, r1, lsl #14
     e50:	33000200 	movwcc	r0, #512	; 0x200
     e54:	02000000 	andeq	r0, r0, #0
     e58:	0d0efb01 	vstreq	d15, [lr, #-4]
     e5c:	01010100 	mrseq	r0, (UNDEF: 17)
     e60:	00000001 	andeq	r0, r0, r1
     e64:	01000001 	tsteq	r0, r1
     e68:	66617473 			; <UNDEFINED> instruction: 0x66617473
     e6c:	72732d66 	rsbsvc	r2, r3, #6528	; 0x1980
     e70:	64000063 	strvs	r0, [r0], #-99	; 0x63
     e74:	75616665 	strbvc	r6, [r1, #-1637]!	; 0x665
     e78:	682d746c 	stmdavs	sp!, {r2, r3, r5, r6, sl, ip, sp, lr}
     e7c:	6c646e61 	stclvs	14, cr6, [r4], #-388	; 0xfffffe7c
     e80:	2e737265 	cdpcs	2, 7, cr7, cr3, cr5, {3}
     e84:	00010063 	andeq	r0, r1, r3, rrx
     e88:	05000000 	streq	r0, [r0, #-0]
     e8c:	0098ac02 	addseq	sl, r8, r2, lsl #24
     e90:	022f1500 	eoreq	r1, pc, #0, 10
     e94:	01010002 	tsteq	r1, r2
     e98:	000000c9 	andeq	r0, r0, r9, asr #1
     e9c:	009a0002 	addseq	r0, sl, r2
     ea0:	01020000 	mrseq	r0, (UNDEF: 2)
     ea4:	000d0efb 	strdeq	r0, [sp], -fp
     ea8:	01010101 	tsteq	r1, r1, lsl #2
     eac:	01000000 	mrseq	r0, (UNDEF: 0)
     eb0:	73010000 	movwvc	r0, #4096	; 0x1000
     eb4:	66666174 			; <UNDEFINED> instruction: 0x66666174
     eb8:	6372732d 	cmnvs	r2, #-1275068416	; 0xb4000000
     ebc:	73552f00 	cmpvc	r5, #0, 30
     ec0:	2f737265 	svccs	0x00737265
     ec4:	61697262 	cmnvs	r9, r2, ror #4
     ec8:	6e756a6e 	vsubvs.f32	s13, s10, s29
     ecc:	7365442f 	cmnvc	r5, #788529152	; 0x2f000000
     ed0:	706f746b 	rsbvc	r7, pc, fp, ror #8
     ed4:	6863732f 	stmdavs	r3!, {r0, r1, r2, r3, r5, r8, r9, ip, sp, lr}^
     ed8:	2f6c6f6f 	svccs	0x006c6f6f
     edc:	69727053 	ldmdbvs	r2!, {r0, r1, r4, r6, ip, sp, lr}^
     ee0:	3931676e 	ldmdbcc	r1!, {r1, r2, r3, r5, r6, r8, r9, sl, sp, lr}
     ee4:	432f3032 	teqmi	pc, #50	; 0x32
     ee8:	30343253 	eorscc	r3, r4, r3, asr r2
     eec:	632f584c 	teqvs	pc, #76, 16	; 0x4c0000
     ef0:	30343273 	eorscc	r3, r4, r3, ror r2
     ef4:	322d786c 	eorcc	r7, sp, #108, 16	; 0x6c0000
     ef8:	72707330 	rsbsvc	r7, r0, #48, 6	; 0xc0000000
     efc:	62696c2f 	rsbvs	r6, r9, #12032	; 0x2f00
     f00:	692f6970 	stmdbvs	pc!, {r4, r5, r6, r8, fp, sp, lr}	; <UNPREDICTABLE>
     f04:	756c636e 	strbvc	r6, [ip, #-878]!	; 0x36e
     f08:	00006564 	andeq	r6, r0, r4, ror #10
     f0c:	65746e69 	ldrbvs	r6, [r4, #-3689]!	; 0xe69
     f10:	70757272 	rsbsvc	r7, r5, r2, ror r2
     f14:	632d7374 	teqvs	sp, #116, 6	; 0xd0000001
     f18:	0100632e 	tsteq	r0, lr, lsr #6
     f1c:	70720000 	rsbsvc	r0, r2, r0
     f20:	6e692d69 	cdpvs	13, 6, cr2, cr9, cr9, {3}
     f24:	72726574 	rsbsvc	r6, r2, #116, 10	; 0x1d000000
     f28:	73747075 	cmnvc	r4, #117	; 0x75
     f2c:	0200682e 	andeq	r6, r0, #3014656	; 0x2e0000
     f30:	70720000 	rsbsvc	r0, r2, r0
     f34:	00682e69 	rsbeq	r2, r8, r9, ror #28
     f38:	00000002 	andeq	r0, r0, r2
     f3c:	b4020500 	strlt	r0, [r2], #-1280	; 0x500
     f40:	03000098 	movweq	r0, #152	; 0x98
     f44:	2f31011a 	svccs	0x0031011a
     f48:	83366767 	teqhi	r6, #27000832	; 0x19c0000
     f4c:	02002d2f 	andeq	r2, r0, #3008	; 0xbc0
     f50:	002f0204 	eoreq	r0, pc, r4, lsl #4
     f54:	65020402 	strvs	r0, [r2, #-1026]	; 0x402
     f58:	01040200 	mrseq	r0, R12_usr
     f5c:	4c062e06 	stcmi	14, cr2, [r6], {6}
     f60:	01000a02 	tsteq	r0, r2, lsl #20
     f64:	0000a201 	andeq	sl, r0, r1, lsl #4
     f68:	80000200 	andhi	r0, r0, r0, lsl #4
     f6c:	02000000 	andeq	r0, r0, #0
     f70:	0d0efb01 	vstreq	d15, [lr, #-4]
     f74:	01010100 	mrseq	r0, (UNDEF: 17)
     f78:	00000001 	andeq	r0, r0, r1
     f7c:	01000001 	tsteq	r0, r1
     f80:	66617473 			; <UNDEFINED> instruction: 0x66617473
     f84:	72732d66 	rsbsvc	r2, r3, #6528	; 0x1980
     f88:	552f0063 	strpl	r0, [pc, #-99]!	; f2d <__code_start__-0x70d3>
     f8c:	73726573 	cmnvc	r2, #482344960	; 0x1cc00000
     f90:	6972622f 	ldmdbvs	r2!, {r0, r1, r2, r3, r5, r9, sp, lr}^
     f94:	756a6e61 	strbvc	r6, [sl, #-3681]!	; 0xe61
     f98:	65442f6e 	strbvs	r2, [r4, #-3950]	; 0xf6e
     f9c:	6f746b73 	svcvs	0x00746b73
     fa0:	63732f70 	cmnvs	r3, #112, 30	; 0x1c0
     fa4:	6c6f6f68 	stclvs	15, cr6, [pc], #-416	; e0c <__code_start__-0x71f4>
     fa8:	7270532f 	rsbsvc	r5, r0, #-1140850688	; 0xbc000000
     fac:	31676e69 	cmncc	r7, r9, ror #28
     fb0:	2f303239 	svccs	0x00303239
     fb4:	34325343 	ldrtcc	r5, [r2], #-835	; 0x343
     fb8:	2f584c30 	svccs	0x00584c30
     fbc:	34327363 	ldrtcc	r7, [r2], #-867	; 0x363
     fc0:	2d786c30 	ldclcs	12, cr6, [r8, #-192]!	; 0xffffff40
     fc4:	70733032 	rsbsvc	r3, r3, r2, lsr r0
     fc8:	696c2f72 	stmdbvs	ip!, {r1, r4, r5, r6, r8, r9, sl, fp, sp}^
     fcc:	2f697062 	svccs	0x00697062
     fd0:	6c636e69 	stclvs	14, cr6, [r3], #-420	; 0xfffffe5c
     fd4:	00656475 	rsbeq	r6, r5, r5, ror r4
     fd8:	62657200 	rsbvs	r7, r5, #0, 4
     fdc:	2e746f6f 	cdpcs	15, 7, cr6, cr4, cr15, {3}
     fe0:	00010063 	andeq	r0, r1, r3, rrx
     fe4:	69707200 	ldmdbvs	r0!, {r9, ip, sp, lr}^
     fe8:	0200682e 	andeq	r6, r0, #3014656	; 0x2e0000
     fec:	00000000 	andeq	r0, r0, r0
     ff0:	99200205 	stmdbls	r0!, {r0, r2, r9}
     ff4:	0d030000 	stceq	0, cr0, [r3, #-0]
     ff8:	2f311401 	svccs	0x00311401
     ffc:	4b2f1585 	blmi	bc6618 <__bss_end__+0xbbbc28>
    1000:	35672f4d 	strbcc	r2, [r7, #-3917]!	; 0xf4d
    1004:	10026752 	andne	r6, r2, r2, asr r7
    1008:	ae010100 	adfges	f0, f1, f0
    100c:	02000000 	andeq	r0, r0, #0
    1010:	00007f00 	andeq	r7, r0, r0, lsl #30
    1014:	fb010200 	blx	4181e <__bss_end__+0x36e2e>
    1018:	01000d0e 	tsteq	r0, lr, lsl #26
    101c:	00010101 	andeq	r0, r1, r1, lsl #2
    1020:	00010000 	andeq	r0, r1, r0
    1024:	74730100 	ldrbtvc	r0, [r3], #-256	; 0x100
    1028:	2d666661 	stclcs	6, cr6, [r6, #-388]!	; 0xfffffe7c
    102c:	00637273 	rsbeq	r7, r3, r3, ror r2
    1030:	6573552f 	ldrbvs	r5, [r3, #-1327]!	; 0x52f
    1034:	622f7372 	eorvs	r7, pc, #-939524095	; 0xc8000001
    1038:	6e616972 	mcrvs	9, 3, r6, cr1, cr2, {3}
    103c:	2f6e756a 	svccs	0x006e756a
    1040:	6b736544 	blvs	1cda558 <__bss_end__+0x1ccfb68>
    1044:	2f706f74 	svccs	0x00706f74
    1048:	6f686373 	svcvs	0x00686373
    104c:	532f6c6f 	teqpl	pc, #28416	; 0x6f00
    1050:	6e697270 	mcrvs	2, 3, r7, cr9, cr0, {3}
    1054:	32393167 	eorscc	r3, r9, #-1073741799	; 0xc0000019
    1058:	53432f30 	movtpl	r2, #16176	; 0x3f30
    105c:	4c303432 	cfldrsmi	mvf3, [r0], #-200	; 0xffffff38
    1060:	73632f58 	cmnvc	r3, #88, 30	; 0x160
    1064:	6c303432 	cfldrsvs	mvf3, [r0], #-200	; 0xffffff38
    1068:	30322d78 	eorscc	r2, r2, r8, ror sp
    106c:	2f727073 	svccs	0x00727073
    1070:	7062696c 	rsbvc	r6, r2, ip, ror #18
    1074:	6e692f69 	cdpvs	15, 6, cr2, cr9, cr9, {3}
    1078:	64756c63 	ldrbtvs	r6, [r5], #-3171	; 0xc63
    107c:	74000065 	strvc	r0, [r0], #-101	; 0x65
    1080:	72656d69 	rsbvc	r6, r5, #6720	; 0x1a40
    1084:	0100632e 	tsteq	r0, lr, lsr #6
    1088:	70720000 	rsbsvc	r0, r2, r0
    108c:	00682e69 	rsbeq	r2, r8, r9, ror #28
    1090:	00000002 	andeq	r0, r0, r2
    1094:	94020500 	strls	r0, [r2], #-1280	; 0x500
    1098:	16000099 			; <UNDEFINED> instruction: 0x16000099
    109c:	002d2f14 	eoreq	r2, sp, r4, lsl pc
    10a0:	06010402 	streq	r0, [r1], -r2, lsl #8
    10a4:	316d062e 	cmncc	sp, lr, lsr #12
    10a8:	314d4b2f 	cmpcc	sp, pc, lsr #22
    10ac:	4c304b2f 	ldcmi	11, cr4, [r0], #-188	; 0xffffff44
    10b0:	6a2f4c4b 	bvs	bd41e4 <__bss_end__+0xbc97f4>
    10b4:	2f842f2f 	svccs	0x00842f2f
    10b8:	01000802 	tsteq	r0, r2, lsl #16
    10bc:	00014801 	andeq	r4, r1, r1, lsl #16
    10c0:	02000200 	andeq	r0, r0, #0, 4
    10c4:	02000001 	andeq	r0, r0, #1
    10c8:	0d0efb01 	vstreq	d15, [lr, #-4]
    10cc:	01010100 	mrseq	r0, (UNDEF: 17)
    10d0:	00000001 	andeq	r0, r0, r1
    10d4:	01000001 	tsteq	r0, r1
    10d8:	7273752f 	rsbsvc	r7, r3, #197132288	; 0xbc00000
    10dc:	636e692f 	cmnvs	lr, #770048	; 0xbc000
    10e0:	6564756c 	strbvs	r7, [r4, #-1388]!	; 0x56c
    10e4:	77656e2f 	strbvc	r6, [r5, -pc, lsr #28]!
    10e8:	2f62696c 	svccs	0x0062696c
    10ec:	00737973 	rsbseq	r7, r3, r3, ror r9
    10f0:	7273752f 	rsbsvc	r7, r3, #197132288	; 0xbc00000
    10f4:	62696c2f 	rsbvs	r6, r9, #12032	; 0x2f00
    10f8:	6363672f 	cmnvs	r3, #12320768	; 0xbc0000
    10fc:	6d72612f 	ldfvse	f6, [r2, #-188]!	; 0xffffff44
    1100:	6e6f6e2d 	cdpvs	14, 6, cr6, cr15, cr13, {1}
    1104:	61652d65 	cmnvs	r5, r5, ror #26
    1108:	362f6962 	strtcc	r6, [pc], -r2, ror #18
    110c:	312e332e 	teqcc	lr, lr, lsr #6
    1110:	636e692f 	cmnvs	lr, #770048	; 0xbc000
    1114:	6564756c 	strbvs	r7, [r4, #-1388]!	; 0x56c
    1118:	6f682f00 	svcvs	0x00682f00
    111c:	652f656d 	strvs	r6, [pc, #-1389]!	; bb7 <__code_start__-0x7449>
    1120:	656c676e 	strbvs	r6, [ip, #-1902]!	; 0x76e
    1124:	6c632f72 	stclvs	15, cr2, [r3], #-456	; 0xfffffe38
    1128:	2f737361 	svccs	0x00737361
    112c:	34327363 	ldrtcc	r7, [r2], #-867	; 0x363
    1130:	2d786c30 	ldclcs	12, cr6, [r8, #-192]!	; 0xffffff40
    1134:	70733032 	rsbsvc	r3, r3, r2, lsr r0
    1138:	6c2f2f72 	stcvs	15, cr2, [pc], #-456	; f78 <__code_start__-0x7088>
    113c:	69706269 	ldmdbvs	r0!, {r0, r3, r5, r6, r9, sp, lr}^
    1140:	6f682f00 	svcvs	0x00682f00
    1144:	652f656d 	strvs	r6, [pc, #-1389]!	; bdf <__code_start__-0x7421>
    1148:	656c676e 	strbvs	r6, [ip, #-1902]!	; 0x76e
    114c:	6c632f72 	stclvs	15, cr2, [r3], #-456	; 0xfffffe38
    1150:	2f737361 	svccs	0x00737361
    1154:	34327363 	ldrtcc	r7, [r2], #-867	; 0x363
    1158:	2d786c30 	ldclcs	12, cr6, [r8, #-192]!	; 0xffffff40
    115c:	70733032 	rsbsvc	r3, r3, r2, lsr r0
    1160:	6c2f2f72 	stcvs	15, cr2, [pc], #-456	; fa0 <__code_start__-0x7060>
    1164:	69706269 	ldmdbvs	r0!, {r0, r3, r5, r6, r9, sp, lr}^
    1168:	6174732f 	cmnvs	r4, pc, lsr #6
    116c:	732d6666 	teqvc	sp, #106954752	; 0x6600000
    1170:	00006372 	andeq	r6, r0, r2, ror r3
    1174:	74726175 	ldrbtvc	r6, [r2], #-373	; 0x175
    1178:	0000632e 	andeq	r6, r0, lr, lsr #6
    117c:	6f6c0000 	svcvs	0x006c0000
    1180:	682e6b63 	stmdavs	lr!, {r0, r1, r5, r6, r8, r9, fp, sp, lr}
    1184:	00000100 	andeq	r0, r0, r0, lsl #2
    1188:	7079745f 	rsbsvc	r7, r9, pc, asr r4
    118c:	682e7365 	stmdavs	lr!, {r0, r2, r5, r6, r8, r9, ip, sp, lr}
    1190:	00000100 	andeq	r0, r0, r0, lsl #2
    1194:	64647473 	strbtvs	r7, [r4], #-1139	; 0x473
    1198:	682e6665 	stmdavs	lr!, {r0, r2, r5, r6, r9, sl, sp, lr}
    119c:	00000200 	andeq	r0, r0, r0, lsl #4
    11a0:	6e656572 	mcrvs	5, 3, r6, cr5, cr2, {3}
    11a4:	00682e74 	rsbeq	r2, r8, r4, ror lr
    11a8:	72000001 	andvc	r0, r0, #1
    11ac:	682e6970 	stmdavs	lr!, {r4, r5, r6, r8, fp, sp, lr}
    11b0:	00000300 	andeq	r0, r0, r0, lsl #6
    11b4:	74726175 	ldrbtvc	r6, [r2], #-373	; 0x175
    11b8:	0400682e 	streq	r6, [r0], #-2094	; 0x82e
    11bc:	70670000 	rsbvc	r0, r7, r0
    11c0:	682e6f69 	stmdavs	lr!, {r0, r3, r5, r6, r8, r9, sl, fp, sp, lr}
    11c4:	00000400 	andeq	r0, r0, r0, lsl #8
    11c8:	02050000 	andeq	r0, r5, #0
    11cc:	00009a90 	muleq	r0, r0, sl
    11d0:	67012c03 	strvs	r2, [r1, -r3, lsl #24]
    11d4:	359e0c03 	ldrcc	r0, [lr, #3075]	; 0xc03
    11d8:	68356867 	ldmdavs	r5!, {r0, r1, r2, r5, r6, fp, sp, lr}
    11dc:	852e0c03 	strhi	r0, [lr, #-3075]!	; 0xc03
    11e0:	0369696b 	cmneq	r9, #1753088	; 0x1ac000
    11e4:	676b660c 	strbvs	r6, [fp, -ip, lsl #12]!
    11e8:	68344208 	ldmdavs	r4!, {r3, r9, lr}
    11ec:	8768364b 	strbhi	r3, [r8, -fp, asr #12]!
    11f0:	0402002f 	streq	r0, [r2], #-47	; 0x2f
    11f4:	67682f01 	strbvs	r2, [r8, -r1, lsl #30]!
    11f8:	004b6730 	subeq	r6, fp, r0, lsr r7
    11fc:	2f010402 	svccs	0x00010402
    1200:	2e696768 	cdpcs	7, 6, cr6, cr9, cr8, {3}
    1204:	01000602 	tsteq	r0, r2, lsl #12
    1208:	00012b01 	andeq	r2, r1, r1, lsl #22
    120c:	f8000200 			; <UNDEFINED> instruction: 0xf8000200
    1210:	02000000 	andeq	r0, r0, #0
    1214:	0d0efb01 	vstreq	d15, [lr, #-4]
    1218:	01010100 	mrseq	r0, (UNDEF: 17)
    121c:	00000001 	andeq	r0, r0, r1
    1220:	01000001 	tsteq	r0, r1
    1224:	7273752f 	rsbsvc	r7, r3, #197132288	; 0xbc00000
    1228:	636e692f 	cmnvs	lr, #770048	; 0xbc000
    122c:	6564756c 	strbvs	r7, [r4, #-1388]!	; 0x56c
    1230:	77656e2f 	strbvc	r6, [r5, -pc, lsr #28]!
    1234:	2f62696c 	svccs	0x0062696c
    1238:	00737973 	rsbseq	r7, r3, r3, ror r9
    123c:	7273752f 	rsbsvc	r7, r3, #197132288	; 0xbc00000
    1240:	62696c2f 	rsbvs	r6, r9, #12032	; 0x2f00
    1244:	6363672f 	cmnvs	r3, #12320768	; 0xbc0000
    1248:	6d72612f 	ldfvse	f6, [r2, #-188]!	; 0xffffff44
    124c:	6e6f6e2d 	cdpvs	14, 6, cr6, cr15, cr13, {1}
    1250:	61652d65 	cmnvs	r5, r5, ror #26
    1254:	362f6962 	strtcc	r6, [pc], -r2, ror #18
    1258:	312e332e 	teqcc	lr, lr, lsr #6
    125c:	636e692f 	cmnvs	lr, #770048	; 0xbc000
    1260:	6564756c 	strbvs	r7, [r4, #-1388]!	; 0x56c
    1264:	6f682f00 	svcvs	0x00682f00
    1268:	652f656d 	strvs	r6, [pc, #-1389]!	; d03 <__code_start__-0x72fd>
    126c:	656c676e 	strbvs	r6, [ip, #-1902]!	; 0x76e
    1270:	6c632f72 	stclvs	15, cr2, [r3], #-456	; 0xfffffe38
    1274:	2f737361 	svccs	0x00737361
    1278:	34327363 	ldrtcc	r7, [r2], #-867	; 0x363
    127c:	2d786c30 	ldclcs	12, cr6, [r8, #-192]!	; 0xffffff40
    1280:	70733032 	rsbsvc	r3, r3, r2, lsr r0
    1284:	6c2f2f72 	stcvs	15, cr2, [pc], #-456	; 10c4 <__code_start__-0x6f3c>
    1288:	69706269 	ldmdbvs	r0!, {r0, r3, r5, r6, r9, sp, lr}^
    128c:	6f682f00 	svcvs	0x00682f00
    1290:	652f656d 	strvs	r6, [pc, #-1389]!	; d2b <__code_start__-0x72d5>
    1294:	656c676e 	strbvs	r6, [ip, #-1902]!	; 0x76e
    1298:	6c632f72 	stclvs	15, cr2, [r3], #-456	; 0xfffffe38
    129c:	2f737361 	svccs	0x00737361
    12a0:	34327363 	ldrtcc	r7, [r2], #-867	; 0x363
    12a4:	2d786c30 	ldclcs	12, cr6, [r8, #-192]!	; 0xffffff40
    12a8:	70733032 	rsbsvc	r3, r3, r2, lsr r0
    12ac:	6c2f2f72 	stcvs	15, cr2, [pc], #-456	; 10ec <__code_start__-0x6f14>
    12b0:	69706269 	ldmdbvs	r0!, {r0, r3, r5, r6, r9, sp, lr}^
    12b4:	6174732f 	cmnvs	r4, pc, lsr #6
    12b8:	732d6666 	teqvc	sp, #106954752	; 0x6600000
    12bc:	00006372 	andeq	r6, r0, r2, ror r3
    12c0:	6f697067 	svcvs	0x00697067
    12c4:	0000632e 	andeq	r6, r0, lr, lsr #6
    12c8:	6f6c0000 	svcvs	0x006c0000
    12cc:	682e6b63 	stmdavs	lr!, {r0, r1, r5, r6, r8, r9, fp, sp, lr}
    12d0:	00000100 	andeq	r0, r0, r0, lsl #2
    12d4:	7079745f 	rsbsvc	r7, r9, pc, asr r4
    12d8:	682e7365 	stmdavs	lr!, {r0, r2, r5, r6, r8, r9, ip, sp, lr}
    12dc:	00000100 	andeq	r0, r0, r0, lsl #2
    12e0:	64647473 	strbtvs	r7, [r4], #-1139	; 0x473
    12e4:	682e6665 	stmdavs	lr!, {r0, r2, r5, r6, r9, sl, sp, lr}
    12e8:	00000200 	andeq	r0, r0, r0, lsl #4
    12ec:	6e656572 	mcrvs	5, 3, r6, cr5, cr2, {3}
    12f0:	00682e74 	rsbeq	r2, r8, r4, ror lr
    12f4:	72000001 	andvc	r0, r0, #1
    12f8:	682e6970 	stmdavs	lr!, {r4, r5, r6, r8, fp, sp, lr}
    12fc:	00000300 	andeq	r0, r0, r0, lsl #6
    1300:	6f697067 	svcvs	0x00697067
    1304:	0400682e 	streq	r6, [r0], #-2094	; 0x82e
    1308:	00000000 	andeq	r0, r0, r0
    130c:	9c080205 	sfmls	f0, 4, [r8], {5}
    1310:	27030000 	strcs	r0, [r3, -r0]
    1314:	474c1301 	strbmi	r1, [ip, -r1, lsl #6]
    1318:	4b68f44f 	blmi	1a3e45c <__bss_end__+0x1a33a6c>
    131c:	6a2fa14c 	bvs	be9854 <__bss_end__+0xbdee64>
    1320:	be314913 	mrclt	9, 1, r4, cr1, cr3, {0}
    1324:	be314913 	mrclt	9, 1, r4, cr1, cr3, {0}
    1328:	4d2f6a2f 	vstmdbmi	pc!, {s12-s58}
    132c:	49134f48 	ldmdbmi	r3, {r3, r6, r8, r9, sl, fp, lr}
    1330:	02b72f32 	adcseq	r2, r7, #50, 30	; 0xc8
    1334:	01010006 	tsteq	r1, r6

Disassembly of section .debug_str:

00000000 <.debug_str>:
   0:	65646f6d 	strbvs	r6, [r4, #-3949]!	; 0xf6d
   4:	7465675f 	strbtvc	r6, [r5], #-1887	; 0x75f
   8:	6b726200 	blvs	1c98810 <__bss_end__+0x1c8de20>
   c:	6d5f7470 	cfldrdvs	mvd7, [pc, #-448]	; fffffe54 <__bss_end__+0xffff5464>
  10:	616d7369 	cmnvs	sp, r9, ror #6
  14:	5f686374 	svcpl	0x00686374
  18:	30746573 	rsbscc	r6, r4, r3, ror r5
  1c:	74696200 	strbtvc	r6, [r9], #-512	; 0x200
  20:	65675f73 	strbvs	r5, [r7, #-3955]!	; 0xf73
  24:	70630074 	rsbvc	r0, r3, r4, ror r0
  28:	6d007273 	sfmvs	f7, 4, [r0, #-460]	; 0xfffffe34
  2c:	5f65646f 	svcpl	0x0065646f
  30:	00727473 	rsbseq	r7, r2, r3, ror r4
  34:	706b7262 	rsbvc	r7, fp, r2, ror #4
  38:	696d5f74 	stmdbvs	sp!, {r2, r4, r5, r6, r8, r9, sl, fp, ip, lr}^
  3c:	74616d73 	strbtvc	r6, [r1], #-3443	; 0xd73
  40:	645f6863 	ldrbvs	r6, [pc], #-2147	; 48 <__code_start__-0x7fb8>
  44:	62617369 	rsbvs	r7, r1, #-1543503871	; 0xa4000001
  48:	0030656c 	eorseq	r6, r0, ip, ror #10
  4c:	726f6873 	rsbvc	r6, pc, #7536640	; 0x730000
  50:	6e752074 	mrcvs	0, 3, r2, cr5, cr4, {3}
  54:	6e676973 	mcrvs	9, 3, r6, cr7, cr3, {3}
  58:	69206465 	stmdbvs	r0!, {r0, r2, r5, r6, sl, sp, lr}
  5c:	6f00746e 	svcvs	0x0000746e
  60:	00705f6e 	rsbseq	r5, r0, lr, ror #30
  64:	6573552f 	ldrbvs	r5, [r3, #-1327]!	; 0x52f
  68:	622f7372 	eorvs	r7, pc, #-939524095	; 0xc8000001
  6c:	6e616972 	mcrvs	9, 3, r6, cr1, cr2, {3}
  70:	2f6e756a 	svccs	0x006e756a
  74:	6b736544 	blvs	1cd958c <__bss_end__+0x1cceb9c>
  78:	2f706f74 	svccs	0x00706f74
  7c:	6f686373 	svcvs	0x00686373
  80:	532f6c6f 	teqpl	pc, #28416	; 0x6f00
  84:	6e697270 	mcrvs	2, 3, r7, cr9, cr0, {3}
  88:	32393167 	eorscc	r3, r9, #-1073741799	; 0xc0000019
  8c:	53432f30 	movtpl	r2, #16176	; 0x3f30
  90:	4c303432 	cfldrsmi	mvf3, [r0], #-200	; 0xffffff38
  94:	73632f58 	cmnvc	r3, #88, 30	; 0x160
  98:	6c303432 	cfldrsvs	mvf3, [r0], #-200	; 0xffffff38
  9c:	30322d78 	eorscc	r2, r2, r8, ror sp
  a0:	2f727073 	svccs	0x00727073
  a4:	7362616c 	cmnvc	r2, #108, 2
  a8:	2d36312f 	ldfcss	f3, [r6, #-188]!	; 0xffffff44
  ac:	676e6973 			; <UNDEFINED> instruction: 0x676e6973
  b0:	732d656c 	teqvc	sp, #108, 10	; 0x1b000000
  b4:	2f706574 	svccs	0x00706574
  b8:	65646f63 	strbvs	r6, [r4, #-3939]!	; 0xf63
  bc:	746f6e00 	strbtvc	r6, [pc], #-3584	; c4 <__code_start__-0x7f3c>
  c0:	6e69616d 	powvsez	f6, f1, #5.0
  c4:	6b726200 	blvs	1c988cc <__bss_end__+0x1c8dedc>
  c8:	7265765f 	rsbvc	r7, r5, #99614720	; 0x5f00000
  cc:	65736f62 	ldrbvs	r6, [r3, #-3938]!	; 0xf62
  d0:	646f6d00 	strbtvs	r6, [pc], #-3328	; d8 <__code_start__-0x7f28>
  d4:	65735f65 	ldrbvs	r5, [r3, #-3941]!	; 0xf65
  d8:	70630074 	rsbvc	r0, r3, r4, ror r0
  dc:	6f5f7273 	svcvs	0x005f7273
  e0:	7500646c 	strvc	r6, [r0, #-1132]	; 0x46c
  e4:	6769736e 	strbvs	r7, [r9, -lr, ror #6]!
  e8:	2064656e 	rsbcs	r6, r4, lr, ror #10
  ec:	72616863 	rsbvc	r6, r1, #6488064	; 0x630000
  f0:	656c6300 	strbvs	r6, [ip, #-768]!	; 0x300
  f4:	725f6e61 	subsvc	r6, pc, #1552	; 0x610
  f8:	6f6f6265 	svcvs	0x006f6265
  fc:	78650074 	stmdavc	r5!, {r2, r4, r5, r6}^
 100:	74636570 	strbtvc	r6, [r3], #-1392	; 0x570
 104:	685f6465 	ldmdavs	pc, {r0, r2, r5, r6, sl, sp, lr}^	; <UNPREDICTABLE>
 108:	6c646e61 	stclvs	14, cr6, [r4], #-388	; 0xfffffe7c
 10c:	69620065 	stmdbvs	r2!, {r0, r2, r5, r6}^
 110:	635f7374 	cmpvs	pc, #116, 6	; 0xd0000001
 114:	7500726c 	strvc	r7, [r0, #-620]	; 0x26c
 118:	33746e69 	cmncc	r4, #1680	; 0x690
 11c:	00745f32 	rsbseq	r5, r4, r2, lsr pc
 120:	72657375 	rsbvc	r7, r5, #-738197503	; 0xd4000001
 124:	7365745f 	cmnvc	r5, #1593835520	; 0x5f000000
 128:	5f5f0074 	svcpl	0x005f0074
 12c:	434e5546 	movtmi	r5, #58694	; 0xe546
 130:	4e4f4954 	mcrmi	9, 2, r4, cr15, cr4, {2}
 134:	73005f5f 	movwvc	r5, #3935	; 0xf5f
 138:	6c676e69 	stclvs	14, cr6, [r7], #-420	; 0xfffffe5c
 13c:	74735f65 	ldrbtvc	r5, [r3], #-3941	; 0xf65
 140:	685f7065 	ldmdavs	pc, {r0, r2, r5, r6, ip, sp, lr}^	; <UNPREDICTABLE>
 144:	6c646e61 	stclvs	14, cr6, [r4], #-388	; 0xfffffe7c
 148:	47007265 	strmi	r7, [r0, -r5, ror #4]
 14c:	4320554e 	teqmi	r0, #327155712	; 0x13800000
 150:	382e3420 	stmdacc	lr!, {r5, sl, ip, sp}
 154:	2d20332e 	stccs	3, cr3, [r0, #-184]!	; 0xffffff48
 158:	7570636d 	ldrbvc	r6, [r0, #-877]!	; 0x36d
 15c:	6d72613d 	ldfvse	f6, [r2, #-244]!	; 0xffffff0c
 160:	36373131 			; <UNDEFINED> instruction: 0x36373131
 164:	2d667a6a 	vstmdbcs	r6!, {s15-s120}
 168:	6d2d2073 	stcvs	0, cr2, [sp, #-460]!	; 0xfffffe34
 16c:	656e7574 	strbvs	r7, [lr, #-1396]!	; 0x574
 170:	6d72613d 	ldfvse	f6, [r2, #-244]!	; 0xffffff0c
 174:	36373131 			; <UNDEFINED> instruction: 0x36373131
 178:	2d667a6a 	vstmdbcs	r6!, {s15-s120}
 17c:	672d2073 			; <UNDEFINED> instruction: 0x672d2073
 180:	20626467 	rsbcs	r6, r2, r7, ror #8
 184:	20674f2d 	rsbcs	r4, r7, sp, lsr #30
 188:	6474732d 	ldrbtvs	r7, [r4], #-813	; 0x32d
 18c:	756e673d 	strbvc	r6, [lr, #-1853]!	; 0x73d
 190:	2d203939 	stccs	9, cr3, [r0, #-228]!	; 0xffffff1c
 194:	65726666 	ldrbvs	r6, [r2, #-1638]!	; 0x666
 198:	61747365 	cmnvs	r4, r5, ror #6
 19c:	6e69646e 	cdpvs	4, 6, cr6, cr9, cr14, {3}
 1a0:	662d2067 	strtvs	r2, [sp], -r7, rrx
 1a4:	742d6f6e 	strtvc	r6, [sp], #-3950	; 0xf6e
 1a8:	656c706f 	strbvs	r7, [ip, #-111]!	; 0x6f
 1ac:	2d6c6576 	cfstr64cs	mvdx6, [ip, #-472]!	; 0xfffffe28
 1b0:	726f6572 	rsbvc	r6, pc, #478150656	; 0x1c800000
 1b4:	00726564 	rsbseq	r6, r2, r4, ror #10
 1b8:	676e6f6c 	strbvs	r6, [lr, -ip, ror #30]!
 1bc:	6e6f6c20 	cdpvs	12, 6, cr6, cr15, cr0, {1}
 1c0:	6e752067 	cdpvs	0, 7, cr2, cr5, cr7, {3}
 1c4:	6e676973 	mcrvs	9, 3, r6, cr7, cr3, {3}
 1c8:	69206465 	stmdbvs	r0!, {r0, r2, r5, r6, sl, sp, lr}
 1cc:	6d00746e 	cfstrsvs	mvf7, [r0, #-440]	; 0xfffffe48
 1d0:	0065646f 	rsbeq	r6, r5, pc, ror #8
 1d4:	646e6168 	strbtvs	r6, [lr], #-360	; 0x168
 1d8:	5f72656c 	svcpl	0x0072656c
 1dc:	69730074 	ldmdbvs	r3!, {r2, r4, r5, r6}^
 1e0:	7974657a 	ldmdbvc	r4!, {r1, r3, r4, r5, r6, r8, sl, sp, lr}^
 1e4:	75006570 	strvc	r6, [r0, #-1392]	; 0x570
 1e8:	5f726573 	svcpl	0x00726573
 1ec:	6d617274 	sfmvs	f7, 2, [r1, #-464]!	; 0xfffffe30
 1f0:	696c6f70 	stmdbvs	ip!, {r4, r5, r6, r8, r9, sl, fp, sp, lr}^
 1f4:	725f656e 	subsvc	r6, pc, #461373440	; 0x1b800000
 1f8:	6c007465 	cfstrsvs	mvf7, [r0], {101}	; 0x65
 1fc:	20676e6f 	rsbcs	r6, r7, pc, ror #28
 200:	676e6f6c 	strbvs	r6, [lr, -ip, ror #30]!
 204:	746e6920 	strbtvc	r6, [lr], #-2336	; 0x920
 208:	616e6500 	cmnvs	lr, r0, lsl #10
 20c:	5f656c62 	svcpl	0x00656c62
 210:	68636163 	stmdavs	r3!, {r0, r1, r5, r6, r8, sp, lr}^
 214:	616d0065 	cmnvs	sp, r5, rrx
 218:	74006b73 	strvc	r6, [r0], #-2931	; 0xb73
 21c:	73747365 	cmnvc	r4, #-1811939327	; 0x94000001
 220:	2d36312f 	ldfcss	f3, [r6, #-188]!	; 0xffffff44
 224:	74726170 	ldrbtvc	r6, [r2], #-368	; 0x170
 228:	65742d32 	ldrbvs	r2, [r4, #-3378]!	; 0xd32
 22c:	2e317473 	mrccs	4, 1, r7, cr1, cr3, {3}
 230:	65720063 	ldrbvs	r0, [r2, #-99]!	; 0x63
 234:	73007367 	movwvc	r7, #871	; 0x367
 238:	74726f68 	ldrbtvc	r6, [r2], #-3944	; 0xf68
 23c:	746e6920 	strbtvc	r6, [lr], #-2336	; 0x920
 240:	73666900 	cmnvc	r6, #0, 18
 244:	65675f72 	strbvs	r5, [r7, #-3954]!	; 0xf72
 248:	6f6d0074 	svcvs	0x006d0074
 24c:	6c5f6564 	cfldr64vs	mvdx6, [pc], {100}	; 0x64
 250:	6c616765 	stclvs	7, cr6, [r1], #-404	; 0xfffffe6c
 254:	73617700 	cmnvc	r1, #0, 14
 258:	6265645f 	rsbvs	r6, r5, #1593835520	; 0x5f000000
 25c:	695f6775 	ldmdbvs	pc, {r0, r2, r4, r5, r6, r8, r9, sl, sp, lr}^	; <UNPREDICTABLE>
 260:	6674736e 	ldrbtvs	r7, [r4], -lr, ror #6
 264:	746c7561 	strbtvc	r7, [ip], #-1377	; 0x561
 268:	31706300 	cmncc	r0, r0, lsl #6
 26c:	6e655f34 	mcrvs	15, 3, r5, cr5, cr4, {1}
 270:	656c6261 	strbvs	r6, [ip, #-609]!	; 0x261
 274:	73706300 	cmnvc	r0, #0, 6
 278:	65675f72 	strbvs	r5, [r7, #-3954]!	; 0xf72
 27c:	70720074 	rsbsvc	r0, r2, r4, ror r0
 280:	65725f69 	ldrbvs	r5, [r2, #-3945]!	; 0xf69
 284:	5f746573 	svcpl	0x00746573
 288:	63747570 	cmnvs	r4, #112, 10	; 0x1c000000
 28c:	6b726200 	blvs	1c98a94 <__bss_end__+0x1c8e0a4>
 290:	7265765f 	rsbvc	r7, r5, #99614720	; 0x5f00000
 294:	65736f62 	ldrbvs	r6, [r3, #-3938]!	; 0xf62
 298:	6400705f 	strvs	r7, [r0], #-95	; 0x5f
 29c:	00656e6f 	rsbeq	r6, r5, pc, ror #28
 2a0:	61746164 	cmnvs	r4, r4, ror #2
 2a4:	6f62615f 	svcvs	0x0062615f
 2a8:	765f7472 			; <UNDEFINED> instruction: 0x765f7472
 2ac:	6f746365 	svcvs	0x00746365
 2b0:	72700072 	rsbsvc	r0, r0, #114	; 0x72
 2b4:	74656665 	strbtvc	r6, [r5], #-1637	; 0x665
 2b8:	615f6863 	cmpvs	pc, r3, ror #16
 2bc:	74726f62 	ldrbtvc	r6, [r2], #-3938	; 0xf62
 2c0:	6365765f 	cmnvs	r5, #99614720	; 0x5f00000
 2c4:	00726f74 	rsbseq	r6, r2, r4, ror pc
 2c8:	5f736177 	svcpl	0x00736177
 2cc:	75626564 	strbvc	r6, [r2, #-1380]!	; 0x564
 2d0:	61645f67 	cmnvs	r4, r7, ror #30
 2d4:	61666174 	smcvs	26132	; 0x6614
 2d8:	00746c75 	rsbseq	r6, r4, r5, ror ip
 2dc:	34317063 	ldrtcc	r7, [r1], #-99	; 0x63
 2e0:	6265642d 	rsbvs	r6, r5, #754974720	; 0x2d000000
 2e4:	632e6775 	teqvs	lr, #30670848	; 0x1d40000
 2e8:	63736400 	cmnvs	r3, #0, 8
 2ec:	65735f72 	ldrbvs	r5, [r3, #-3954]!	; 0xf72
 2f0:	63770074 	cmnvs	r7, #116	; 0x74
 2f4:	725f3072 	subsvc	r3, pc, #114	; 0x72
 2f8:	77006765 	strvc	r6, [r0, -r5, ror #14]
 2fc:	5f307263 	svcpl	0x00307263
 300:	00746567 	rsbseq	r6, r4, r7, ror #10
 304:	74696e69 	strbtvc	r6, [r9], #-3689	; 0xe69
 308:	6200705f 	andvs	r7, r0, #95	; 0x5f
 30c:	74706b72 	ldrbtvc	r6, [r0], #-2930	; 0xb72
 310:	6e61685f 	mcrvs	8, 3, r6, cr1, cr15, {2}
 314:	72656c64 	rsbvc	r6, r5, #100, 24	; 0x6400
 318:	70630030 	rsbvc	r0, r3, r0, lsr r0
 31c:	625f3431 	subsvs	r3, pc, #822083584	; 0x31000000
 320:	5f307263 	svcpl	0x00307263
 324:	00746573 	rsbseq	r6, r4, r3, ror r5
 328:	30727677 	rsbscc	r7, r2, r7, ror r6
 32c:	6c61765f 	stclvs	6, cr7, [r1], #-380	; 0xfffffe84
 330:	74617700 	strbtvc	r7, [r1], #-1792	; 0x700
 334:	74706863 	ldrbtvc	r6, [r0], #-2147	; 0x863
 338:	7465735f 	strbtvc	r7, [r5], #-863	; 0x35f
 33c:	76770030 			; <UNDEFINED> instruction: 0x76770030
 340:	735f3072 	cmpvc	pc, #114	; 0x72
 344:	62007465 	andvs	r7, r0, #1694498816	; 0x65000000
 348:	6e5f6b72 	vmovvs.s8	r6, d15[3]
 34c:	65725f6f 	ldrbvs	r5, [r2, #-3951]!	; 0xf6f
 350:	72655f74 	rsbvc	r5, r5, #116, 30	; 0x1d0
 354:	00726f72 	rsbseq	r6, r2, r2, ror pc
 358:	34317063 	ldrtcc	r7, [r1], #-99	; 0x63
 35c:	7263625f 	rsbvc	r6, r3, #-268435451	; 0xf0000005
 360:	65675f30 	strbvs	r5, [r7, #-3888]!	; 0xf30
 364:	66640074 			; <UNDEFINED> instruction: 0x66640074
 368:	765f7273 			; <UNDEFINED> instruction: 0x765f7273
 36c:	69006c61 	stmdbvs	r0, {r0, r5, r6, sl, fp, sp, lr}
 370:	5f726166 	svcpl	0x00726166
 374:	00746567 	rsbseq	r6, r4, r7, ror #10
 378:	63746177 	cmnvs	r4, #-1073741795	; 0xc000001d
 37c:	5f747068 	svcpl	0x00747068
 380:	646e6168 	strbtvs	r6, [lr], #-360	; 0x168
 384:	3072656c 	rsbscc	r6, r2, ip, ror #10
 388:	74616400 	strbtvc	r6, [r1], #-1024	; 0x400
 38c:	75616661 	strbvc	r6, [r1, #-1633]!	; 0x661
 390:	665f746c 	ldrbvs	r7, [pc], -ip, ror #8
 394:	5f6d6f72 	svcpl	0x006d6f72
 398:	6300646c 	movwvs	r6, #1132	; 0x46c
 39c:	5f343170 	svcpl	0x00343170
 3a0:	30727662 	rsbscc	r7, r2, r2, ror #12
 3a4:	7465735f 	strbtvc	r7, [r5], #-863	; 0x35f
 3a8:	73617700 	cmnvc	r1, #0, 14
 3ac:	6265645f 	rsbvs	r6, r5, #1593835520	; 0x5f000000
 3b0:	61666775 	smcvs	26229	; 0x6675
 3b4:	5f746c75 	svcpl	0x00746c75
 3b8:	666e0072 			; <UNDEFINED> instruction: 0x666e0072
 3bc:	746c7561 	strbtvc	r7, [ip], #-1377	; 0x561
 3c0:	76620073 			; <UNDEFINED> instruction: 0x76620073
 3c4:	765f3072 			; <UNDEFINED> instruction: 0x765f3072
 3c8:	64006c61 	strvs	r6, [r0], #-3169	; 0xc61
 3cc:	5f727366 	svcpl	0x00727366
 3d0:	00746567 	rsbseq	r6, r4, r7, ror #10
 3d4:	63737973 	cmnvs	r3, #1884160	; 0x1cc000
 3d8:	5f6c6c61 	svcpl	0x006c6c61
 3dc:	74636576 	strbtvc	r6, [r3], #-1398	; 0x576
 3e0:	7000726f 	andvc	r7, r0, pc, ror #4
 3e4:	65666572 	strbvs	r6, [r6, #-1394]!	; 0x572
 3e8:	5f686374 	svcpl	0x00686374
 3ec:	73756c66 	cmnvc	r5, #26112	; 0x6600
 3f0:	65735f68 	ldrbvs	r5, [r3, #-3944]!	; 0xf68
 3f4:	63620074 	cmnvs	r2, #116	; 0x74
 3f8:	725f3072 	subsvc	r3, pc, #114	; 0x72
 3fc:	77006765 	strvc	r6, [r0, -r5, ror #14]
 400:	5f726166 	svcpl	0x00726166
 404:	00746567 	rsbseq	r6, r4, r7, ror #10
 408:	5f737973 	svcpl	0x00737973
 40c:	006d756e 	rsbeq	r7, sp, lr, ror #10
 410:	706b7262 	rsbvc	r7, fp, r2, ror #4
 414:	65735f74 	ldrbvs	r5, [r3, #-3956]!	; 0xf74
 418:	77003074 	smlsdxvc	r0, r4, r0, r3
 41c:	5f307263 	svcpl	0x00307263
 420:	00746573 	rsbseq	r6, r4, r3, ror r5
 424:	5f746e69 	svcpl	0x00746e69
 428:	74696e69 	strbtvc	r6, [r9], #-3689	; 0xe69
 42c:	69777300 	ldmdbvs	r7!, {r8, r9, ip, sp, lr}^
 430:	5f686374 	svcpl	0x00686374
 434:	72646461 	rsbvc	r6, r4, #1627389952	; 0x61000000
 438:	736e6900 	cmnvc	lr, #0, 18
 43c:	6f635f74 	svcvs	0x00635f74
 440:	00746e75 	rsbseq	r6, r4, r5, ror lr
 444:	63656863 	cmnvs	r5, #6488064	; 0x630000
 448:	657a5f6b 	ldrbvs	r5, [sl, #-3947]!	; 0xf6b
 44c:	63006f72 	movwvs	r6, #3954	; 0xf72
 450:	6b636568 	blvs	18d99f8 <__bss_end__+0x18cf008>
 454:	746e692d 	strbtvc	r6, [lr], #-2349	; 0x92d
 458:	656c7265 	strbvs	r7, [ip, #-613]!	; 0x265
 45c:	2e657661 	cdpcs	6, 6, cr7, cr5, cr1, {3}
 460:	68630063 	stmdavs	r3!, {r0, r1, r5, r6}^
 464:	006b6365 	rsbeq	r6, fp, r5, ror #6
 468:	63656863 	cmnvs	r5, #6488064	; 0x630000
 46c:	6e6f5f6b 	cdpvs	15, 6, cr5, cr15, cr11, {3}
 470:	73635f65 	cmnvc	r3, #404	; 0x194
 474:	63746977 	cmnvs	r4, #1949696	; 0x1dc000
 478:	746e0068 	strbtvc	r0, [lr], #-104	; 0x68
 47c:	6c616972 	stclvs	9, cr6, [r1], #-456	; 0xfffffe38
 480:	68630073 	stmdavs	r3!, {r0, r1, r4, r5, r6}^
 484:	5f6b6365 	svcpl	0x006b6365
 488:	75716573 	ldrbvc	r6, [r1, #-1395]!	; 0x573
 48c:	69746e65 	ldmdbvs	r4!, {r0, r2, r5, r6, r9, sl, fp, sp, lr}^
 490:	63006c61 	movwvs	r6, #3169	; 0xc61
 494:	6b636568 	blvs	18d9a3c <__bss_end__+0x18cf04c>
 498:	745f7265 	ldrbvc	r7, [pc], #-613	; 4a0 <__code_start__-0x7b60>
 49c:	73706300 	cmnvc	r0, #0, 6
 4a0:	73755f72 	cmnvc	r5, #456	; 0x1c8
 4a4:	69007265 	stmdbvs	r0, {r0, r2, r5, r6, r9, ip, sp, lr}
 4a8:	7265746e 	rsbvc	r7, r5, #1845493760	; 0x6e000000
 4ac:	7661656c 	strbtvc	r6, [r1], -ip, ror #10
 4b0:	5f676e69 	svcpl	0x00676e69
 4b4:	656e0070 	strbvs	r0, [lr, #-112]!	; 0x70
 4b8:	726f7272 	rsbvc	r7, pc, #536870919	; 0x20000007
 4bc:	77730073 			; <UNDEFINED> instruction: 0x77730073
 4c0:	68637469 	stmdavs	r3!, {r0, r3, r5, r6, sl, ip, sp, lr}^
 4c4:	5f6e6f5f 	svcpl	0x006e6f5f
 4c8:	74736e69 	ldrbtvc	r6, [r3], #-3689	; 0xe69
 4cc:	6e006e5f 	mcrvs	14, 0, r6, cr0, cr15, {2}
 4d0:	74697773 	strbtvc	r7, [r9], #-1907	; 0x773
 4d4:	73656863 	cmnvc	r5, #6488064	; 0x630000
 4d8:	69777300 	ldmdbvs	r7!, {r8, r9, ip, sp, lr}^
 4dc:	65686374 	strbvs	r6, [r8, #-884]!	; 0x374
 4e0:	00705f64 	rsbseq	r5, r0, r4, ror #30
 4e4:	63656863 	cmnvs	r5, #6488064	; 0x630000
 4e8:	0072656b 	rsbseq	r6, r2, fp, ror #10
 4ec:	6e675f5f 	mcrvs	15, 3, r5, cr7, cr15, {2}
 4f0:	765f6375 			; <UNDEFINED> instruction: 0x765f6375
 4f4:	696c5f61 	stmdbvs	ip!, {r0, r5, r6, r8, r9, sl, fp, ip, lr}^
 4f8:	6c007473 	cfstrsvs	mvf7, [r0], {115}	; 0x73
 4fc:	2f636269 	svccs	0x00636269
 500:	6e697270 	mcrvs	2, 3, r7, cr9, cr0, {3}
 504:	632e6b74 	teqvs	lr, #116, 22	; 0x1d000
 508:	554e4700 	strbpl	r4, [lr, #-1792]	; 0x700
 50c:	34204320 	strtcc	r4, [r0], #-800	; 0x320
 510:	332e382e 	teqcc	lr, #3014656	; 0x2e0000
 514:	636d2d20 	cmnvs	sp, #32, 26	; 0x800
 518:	613d7570 	teqvs	sp, r0, ror r5
 51c:	31316d72 	teqcc	r1, r2, ror sp
 520:	7a6a3637 	bvc	1a8de04 <__bss_end__+0x1a83414>
 524:	20732d66 	rsbscs	r2, r3, r6, ror #26
 528:	75746d2d 	ldrbvc	r6, [r4, #-3373]!	; 0xd2d
 52c:	613d656e 	teqvs	sp, lr, ror #10
 530:	31316d72 	teqcc	r1, r2, ror sp
 534:	7a6a3637 	bvc	1a8de18 <__bss_end__+0x1a83428>
 538:	20732d66 	rsbscs	r2, r3, r6, ror #26
 53c:	6467672d 	strbtvs	r6, [r7], #-1837	; 0x72d
 540:	4f2d2062 	svcmi	0x002d2062
 544:	732d2067 	teqvc	sp, #103	; 0x67
 548:	673d6474 			; <UNDEFINED> instruction: 0x673d6474
 54c:	3939756e 	ldmdbcc	r9!, {r1, r2, r3, r5, r6, r8, sl, ip, sp, lr}
 550:	66662d20 	strbtvs	r2, [r6], -r0, lsr #26
 554:	73656572 	cmnvc	r5, #478150656	; 0x1c800000
 558:	646e6174 	strbtvs	r6, [lr], #-372	; 0x174
 55c:	00676e69 	rsbeq	r6, r7, r9, ror #28
 560:	705f6176 	subsvc	r6, pc, r6, ror r1	; <UNPREDICTABLE>
 564:	746e6972 	strbtvc	r6, [lr], #-2418	; 0x972
 568:	5f5f006b 	svcpl	0x005f006b
 56c:	6c5f6176 	ldfvse	f6, [pc], {118}	; 0x76
 570:	00747369 	rsbseq	r7, r4, r9, ror #6
 574:	6573552f 	ldrbvs	r5, [r3, #-1327]!	; 0x52f
 578:	622f7372 	eorvs	r7, pc, #-939524095	; 0xc8000001
 57c:	6e616972 	mcrvs	9, 3, r6, cr1, cr2, {3}
 580:	2f6e756a 	svccs	0x006e756a
 584:	6b736544 	blvs	1cd9a9c <__bss_end__+0x1ccf0ac>
 588:	2f706f74 	svccs	0x00706f74
 58c:	6f686373 	svcvs	0x00686373
 590:	532f6c6f 	teqpl	pc, #28416	; 0x6f00
 594:	6e697270 	mcrvs	2, 3, r7, cr9, cr0, {3}
 598:	32393167 	eorscc	r3, r9, #-1073741799	; 0xc0000019
 59c:	53432f30 	movtpl	r2, #16176	; 0x3f30
 5a0:	4c303432 	cfldrsmi	mvf3, [r0], #-200	; 0xffffff38
 5a4:	73632f58 	cmnvc	r3, #88, 30	; 0x160
 5a8:	6c303432 	cfldrsvs	mvf3, [r0], #-200	; 0xffffff38
 5ac:	30322d78 	eorscc	r2, r2, r8, ror sp
 5b0:	2f727073 	svccs	0x00727073
 5b4:	7062696c 	rsbvc	r6, r2, ip, ror #18
 5b8:	5f5f0069 	svcpl	0x005f0069
 5bc:	75007061 	strvc	r7, [r0, #-97]	; 0x61
 5c0:	5f747261 	svcpl	0x00747261
 5c4:	63747570 	cmnvs	r4, #112, 10	; 0x1c000000
 5c8:	746e6900 	strbtvc	r6, [lr], #-2304	; 0x900
 5cc:	616e7265 	cmnvs	lr, r5, ror #4
 5d0:	75705f6c 	ldrbvc	r5, [r0, #-3948]!	; 0xf6c
 5d4:	61686374 	smcvs	34356	; 0x8634
 5d8:	70720072 	rsbsvc	r0, r2, r2, ror r0
 5dc:	75705f69 	ldrbvc	r5, [r0, #-3945]!	; 0xf69
 5e0:	61686374 	smcvs	34356	; 0x8634
 5e4:	696c0072 	stmdbvs	ip!, {r1, r4, r5, r6}^
 5e8:	702f6362 	eorvc	r6, pc, r2, ror #6
 5ec:	68637475 	stmdavs	r3!, {r0, r2, r4, r5, r6, sl, ip, sp, lr}^
 5f0:	632e7261 	teqvs	lr, #268435462	; 0x10000006
 5f4:	69707200 	ldmdbvs	r0!, {r9, ip, sp, lr}^
 5f8:	7465735f 	strbtvc	r7, [r5], #-863	; 0x35f
 5fc:	7475705f 	ldrbtvc	r7, [r5], #-95	; 0x5f
 600:	696c0063 	stmdbvs	ip!, {r0, r1, r5, r6}^
 604:	702f6362 	eorvc	r6, pc, r2, ror #6
 608:	2e6b7475 	mcrcs	4, 3, r7, cr11, cr5, {3}
 60c:	6e690063 	cdpvs	0, 6, cr0, cr9, cr3, {3}
 610:	6e726574 	mrcvs	5, 3, r6, cr2, cr4, {3}
 614:	705f6c61 	subsvc	r6, pc, r1, ror #24
 618:	006b7475 	rsbeq	r7, fp, r5, ror r4
 61c:	5f746d66 	svcpl	0x00746d66
 620:	72617473 	rsbvc	r7, r1, #1929379840	; 0x73000000
 624:	656e0074 	strbvs	r0, [lr, #-116]!	; 0x74
 628:	00705f67 	rsbseq	r5, r0, r7, ror #30
 62c:	65766572 	ldrbvs	r6, [r6, #-1394]!	; 0x572
 630:	00657372 	rsbeq	r7, r5, r2, ror r3
 634:	69647369 	stmdbvs	r4!, {r0, r3, r5, r6, r8, r9, ip, sp, lr}^
 638:	00746967 	rsbseq	r6, r4, r7, ror #18
 63c:	73747570 	cmnvc	r4, #112, 10	; 0x1c000000
 640:	0070665f 	rsbseq	r6, r0, pc, asr r6
 644:	6e676973 	mcrvs	9, 3, r6, cr7, cr3, {3}
 648:	705f6465 	subsvc	r6, pc, r5, ror #8
 64c:	62696c00 	rsbvs	r6, r9, #0, 24
 650:	61762f63 	cmnvs	r6, r3, ror #30
 654:	6972702d 	ldmdbvs	r2!, {r0, r2, r3, r5, ip, sp, lr}^
 658:	2e6b746e 	cdpcs	4, 6, cr7, cr11, cr14, {3}
 65c:	70720063 	rsbsvc	r0, r2, r3, rrx
 660:	65735f69 	ldrbvs	r5, [r3, #-3945]!	; 0xf69
 664:	756f5f74 	strbvc	r5, [pc, #-3956]!	; fffff6f8 <__bss_end__+0xffff4d08>
 668:	74757074 	ldrbtvc	r7, [r5], #-116	; 0x74
 66c:	64697700 	strbtvs	r7, [r9], #-1792	; 0x700
 670:	70006874 	andvc	r6, r0, r4, ror r8
 674:	5f637475 	svcpl	0x00637475
 678:	65007066 	strvs	r7, [r0, #-102]	; 0x66
 67c:	0074696d 	rsbseq	r6, r4, sp, ror #18
 680:	61736964 	cmnvs	r3, r4, ror #18
 684:	5f656c62 	svcpl	0x00656c62
 688:	68636163 	stmdavs	r3!, {r0, r1, r5, r6, r8, sp, lr}^
 68c:	74730065 	ldrbtvc	r0, [r3], #-101	; 0x65
 690:	2d666661 	stclcs	6, cr6, [r6, #-388]!	; 0xfffffe7c
 694:	2f637273 	svccs	0x00637273
 698:	68636163 	stmdavs	r3!, {r0, r1, r5, r6, r8, sp, lr}^
 69c:	00632e65 	rsbeq	r2, r3, r5, ror #28
 6a0:	6f626572 	svcvs	0x00626572
 6a4:	685f746f 	ldmdavs	pc, {r0, r1, r2, r3, r5, r6, sl, ip, sp, lr}^	; <UNPREDICTABLE>
 6a8:	6c646e61 	stclvs	14, cr6, [r4], #-388	; 0xfffffe7c
 6ac:	73007265 	movwvc	r7, #613	; 0x265
 6b0:	66666174 			; <UNDEFINED> instruction: 0x66666174
 6b4:	6372732d 	cmnvs	r2, #-1275068416	; 0xb4000000
 6b8:	656c632f 	strbvs	r6, [ip, #-815]!	; 0x32f
 6bc:	722d6e61 	eorvc	r6, sp, #1552	; 0x610
 6c0:	6f6f6265 	svcvs	0x006f6265
 6c4:	00632e74 	rsbeq	r2, r3, r4, ror lr
 6c8:	5f697072 	svcpl	0x00697072
 6cc:	6f626572 	svcvs	0x00626572
 6d0:	6400746f 	strvs	r7, [r0], #-1135	; 0x46f
 6d4:	79616c65 	stmdbvc	r1!, {r0, r2, r5, r6, sl, fp, sp, lr}^
 6d8:	00736d5f 	rsbseq	r6, r3, pc, asr sp
 6dc:	73625f5f 	cmnvc	r2, #380	; 0x17c
 6e0:	74735f73 	ldrbtvc	r5, [r3], #-3955	; 0xf73
 6e4:	5f747261 	svcpl	0x00747261
 6e8:	5f5f005f 	svcpl	0x005f005f
 6ec:	5f737362 	svcpl	0x00737362
 6f0:	5f646e65 	svcpl	0x00646e65
 6f4:	7363005f 	cmnvc	r3, #95	; 0x5f
 6f8:	74726174 	ldrbtvc	r6, [r2], #-372	; 0x174
 6fc:	6e61685f 	mcrvs	8, 3, r6, cr1, cr15, {2}
 700:	72656c64 	rsbvc	r6, r5, #100, 24	; 0x6400
 704:	73736200 	cmnvc	r3, #0, 4
 708:	646e655f 	strbtvs	r6, [lr], #-1375	; 0x55f
 70c:	73635f00 	cmnvc	r3, #0, 30
 710:	74726174 	ldrbtvc	r6, [r2], #-372	; 0x174
 714:	61747300 	cmnvs	r4, r0, lsl #6
 718:	732d6666 	teqvc	sp, #106954752	; 0x6600000
 71c:	632f6372 	teqvs	pc, #-939524095	; 0xc8000001
 720:	72617473 	rsbvc	r7, r1, #1929379840	; 0x73000000
 724:	00632e74 	rsbeq	r2, r3, r4, ror lr
 728:	66617473 			; <UNDEFINED> instruction: 0x66617473
 72c:	72732d66 	rsbsvc	r2, r3, #6528	; 0x1980
 730:	65642f63 	strbvs	r2, [r4, #-3939]!	; 0xf63
 734:	6c756166 	ldfvse	f6, [r5], #-408	; 0xfffffe68
 738:	61682d74 	smcvs	33492	; 0x82d4
 73c:	656c646e 	strbvs	r6, [ip, #-1134]!	; 0x46e
 740:	61662d72 	smcvs	25298	; 0x62d2
 744:	632e7473 	teqvs	lr, #1929379840	; 0x73000000
 748:	73616600 	cmnvc	r1, #0, 12
 74c:	6e695f74 	mcrvs	15, 3, r5, cr9, cr4, {3}
 750:	72726574 	rsbsvc	r6, r2, #116, 10	; 0x1d000000
 754:	5f747075 	svcpl	0x00747075
 758:	74636576 	strbtvc	r6, [r3], #-1398	; 0x576
 75c:	7200726f 	andvc	r7, r0, #-268435450	; 0xf0000006
 760:	74657365 	strbtvc	r7, [r5], #-869	; 0x365
 764:	6365765f 	cmnvs	r5, #99614720	; 0x5f00000
 768:	00726f74 	rsbseq	r6, r2, r4, ror pc
 76c:	66617473 			; <UNDEFINED> instruction: 0x66617473
 770:	72732d66 	rsbsvc	r2, r3, #6528	; 0x1980
 774:	65642f63 	strbvs	r2, [r4, #-3939]!	; 0xf63
 778:	6c756166 	ldfvse	f6, [r5], #-408	; 0xfffffe68
 77c:	61682d74 	smcvs	33492	; 0x82d4
 780:	656c646e 	strbvs	r6, [ip, #-1134]!	; 0x46e
 784:	65722d72 	ldrbvs	r2, [r2, #-3442]!	; 0xd72
 788:	2e746573 	mrccs	5, 3, r6, cr4, cr3, {3}
 78c:	74730063 	ldrbtvc	r0, [r3], #-99	; 0x63
 790:	2d666661 	stclcs	6, cr6, [r6, #-388]!	; 0xfffffe7c
 794:	2f637273 	svccs	0x00637273
 798:	61666564 	cmnvs	r6, r4, ror #10
 79c:	2d746c75 	ldclcs	12, cr6, [r4, #-468]!	; 0xfffffe2c
 7a0:	646e6168 	strbtvs	r6, [lr], #-360	; 0x168
 7a4:	2d72656c 	cfldr64cs	mvdx6, [r2, #-432]!	; 0xfffffe50
 7a8:	65646e75 	strbvs	r6, [r4, #-3701]!	; 0xe75
 7ac:	656e6966 	strbvs	r6, [lr, #-2406]!	; 0x966
 7b0:	6e692d64 	cdpvs	13, 6, cr2, cr9, cr4, {3}
 7b4:	632e7473 	teqvs	lr, #1929379840	; 0x73000000
 7b8:	646e7500 	strbtvs	r7, [lr], #-1280	; 0x500
 7bc:	6e696665 	cdpvs	6, 6, cr6, cr9, cr5, {3}
 7c0:	695f6465 	ldmdbvs	pc, {r0, r2, r5, r6, sl, sp, lr}^	; <UNPREDICTABLE>
 7c4:	7274736e 	rsbsvc	r7, r4, #-1207959551	; 0xb8000001
 7c8:	69746375 	ldmdbvs	r4!, {r0, r2, r4, r5, r6, r8, r9, sp, lr}^
 7cc:	765f6e6f 	ldrbvc	r6, [pc], -pc, ror #28
 7d0:	6f746365 	svcvs	0x00746365
 7d4:	74730072 	ldrbtvc	r0, [r3], #-114	; 0x72
 7d8:	2d666661 	stclcs	6, cr6, [r6, #-388]!	; 0xfffffe7c
 7dc:	2f637273 	svccs	0x00637273
 7e0:	61666564 	cmnvs	r6, r4, ror #10
 7e4:	2d746c75 	ldclcs	12, cr6, [r4, #-468]!	; 0xfffffe2c
 7e8:	646e6168 	strbtvs	r6, [lr], #-360	; 0x168
 7ec:	7372656c 	cmnvc	r2, #108, 10	; 0x1b000000
 7f0:	4900632e 	stmdbmi	r0, {r1, r2, r3, r5, r8, r9, sp, lr}
 7f4:	705f5152 	subsvc	r5, pc, r2, asr r1	; <UNPREDICTABLE>
 7f8:	69646e65 	stmdbvs	r4!, {r0, r2, r5, r6, r9, sl, fp, sp, lr}^
 7fc:	325f676e 	subscc	r6, pc, #28835840	; 0x1b80000
 800:	73694400 	cmnvc	r9, #0, 8
 804:	656c6261 	strbvs	r6, [ip, #-609]!	; 0x261
 808:	7361425f 	cmnvc	r1, #-268435451	; 0xf0000005
 80c:	495f6369 	ldmdbmi	pc, {r0, r3, r5, r6, r8, r9, sp, lr}^	; <UNPREDICTABLE>
 810:	00735152 	rsbseq	r5, r3, r2, asr r1
 814:	5f514946 	svcpl	0x00514946
 818:	746e6f63 	strbtvc	r6, [lr], #-3939	; 0xf63
 81c:	006c6f72 	rsbeq	r6, ip, r2, ror pc
 820:	746e695f 	strbtvc	r6, [lr], #-2399	; 0x95f
 824:	75727265 	ldrbvc	r7, [r2, #-613]!	; 0x265
 828:	745f7470 	ldrbvc	r7, [pc], #-1136	; 830 <__code_start__-0x77d0>
 82c:	656c6261 	strbvs	r6, [ip, #-609]!	; 0x261
 830:	51524900 	cmppl	r2, r0, lsl #18
 834:	7361625f 	cmnvc	r1, #-268435451	; 0xf0000005
 838:	705f6369 	subsvc	r6, pc, r9, ror #6
 83c:	69646e65 	stmdbvs	r4!, {r0, r2, r5, r6, r9, sl, fp, sp, lr}^
 840:	4500676e 	strmi	r6, [r0, #-1902]	; 0x76e
 844:	6c62616e 	stfvse	f6, [r2], #-440	; 0xfffffe48
 848:	61425f65 	cmpvs	r2, r5, ror #30
 84c:	5f636973 	svcpl	0x00636973
 850:	73515249 	cmpvc	r1, #-1879048188	; 0x90000004
 854:	616e4500 	cmnvs	lr, r0, lsl #10
 858:	5f656c62 	svcpl	0x00656c62
 85c:	73515249 	cmpvc	r1, #-1879048188	; 0x90000004
 860:	4500315f 	strmi	r3, [r0, #-351]	; 0x15f
 864:	6c62616e 	stfvse	f6, [r2], #-440	; 0xfffffe48
 868:	52495f65 	subpl	r5, r9, #404	; 0x194
 86c:	325f7351 	subscc	r7, pc, #1140850689	; 0x44000001
 870:	6e695f00 	cdpvs	15, 6, cr5, cr9, cr0, {0}
 874:	72726574 	rsbsvc	r6, r2, #116, 10	; 0x1d000000
 878:	5f747075 	svcpl	0x00747075
 87c:	6c626174 	stfvse	f6, [r2], #-464	; 0xfffffe30
 880:	6e655f65 	cdpvs	15, 6, cr5, cr5, cr5, {3}
 884:	65640064 	strbvs	r0, [r4, #-100]!	; 0x64
 888:	61625f76 	smcvs	9718	; 0x25f6
 88c:	65697272 	strbvs	r7, [r9, #-626]!	; 0x272
 890:	74730072 	ldrbtvc	r0, [r3], #-114	; 0x72
 894:	2d666661 	stclcs	6, cr6, [r6, #-388]!	; 0xfffffe7c
 898:	2f637273 	svccs	0x00637273
 89c:	65746e69 	ldrbvs	r6, [r4, #-3689]!	; 0xe69
 8a0:	70757272 	rsbsvc	r7, r5, r2, ror r2
 8a4:	632d7374 	teqvs	sp, #116, 6	; 0xd0000001
 8a8:	4900632e 	stmdbmi	r0, {r1, r2, r3, r5, r8, r9, sp, lr}
 8ac:	425f5152 	subsmi	r5, pc, #-2147483628	; 0x80000014
 8b0:	00657361 	rsbeq	r7, r5, r1, ror #6
 8b4:	33545550 	cmpcc	r4, #80, 10	; 0x14000000
 8b8:	69440032 	stmdbvs	r4, {r1, r4, r5}^
 8bc:	6c626173 	stfvse	f6, [r2], #-460	; 0xfffffe34
 8c0:	52495f65 	subpl	r5, r9, #404	; 0x194
 8c4:	315f7351 	cmpcc	pc, r1, asr r3	; <UNPREDICTABLE>
 8c8:	73694400 	cmnvc	r9, #0, 8
 8cc:	656c6261 	strbvs	r6, [ip, #-609]!	; 0x261
 8d0:	5152495f 	cmppl	r2, pc, asr r9
 8d4:	00325f73 	eorseq	r5, r2, r3, ror pc
 8d8:	5f515249 	svcpl	0x00515249
 8dc:	646e6570 	strbtvs	r6, [lr], #-1392	; 0x570
 8e0:	5f676e69 	svcpl	0x00676e69
 8e4:	74610031 	strbtvc	r0, [r1], #-49	; 0x31
 8e8:	6573755f 	ldrbvs	r7, [r3, #-1375]!	; 0x55f
 8ec:	656c5f72 	strbvs	r5, [ip, #-3954]!	; 0xf72
 8f0:	006c6576 	rsbeq	r6, ip, r6, ror r5
 8f4:	66617473 			; <UNDEFINED> instruction: 0x66617473
 8f8:	72732d66 	rsbsvc	r2, r3, #6528	; 0x1980
 8fc:	65722f63 	ldrbvs	r2, [r2, #-3939]!	; 0xf63
 900:	746f6f62 	strbtvc	r6, [pc], #-3938	; 908 <__code_start__-0x76f8>
 904:	5000632e 	andpl	r6, r0, lr, lsr #6
 908:	53525f4d 	cmppl	r2, #308	; 0x134
 90c:	575f4354 			; <UNDEFINED> instruction: 0x575f4354
 910:	47464352 	smlsldmi	r4, r6, r2, r3
 914:	4c55465f 	mrrcmi	6, 5, r4, r5, cr15
 918:	45525f4c 	ldrbmi	r5, [r2, #-3916]	; 0xf4c
 91c:	00544553 	subseq	r4, r4, r3, asr r5
 920:	575f4d50 			; <UNDEFINED> instruction: 0x575f4d50
 924:	00474f44 	subeq	r4, r7, r4, asr #30
 928:	5f746573 	svcpl	0x00746573
 92c:	72657375 	rsbvc	r7, r5, #-738197503	; 0xd4000001
 930:	76656c5f 			; <UNDEFINED> instruction: 0x76656c5f
 934:	50006c65 	andpl	r6, r0, r5, ror #24
 938:	41505f4d 	cmpmi	r0, sp, asr #30
 93c:	4f575353 	svcmi	0x00575353
 940:	50004452 	andpl	r4, r0, r2, asr r4
 944:	53525f4d 	cmppl	r2, #308	; 0x134
 948:	74004354 	strvc	r4, [r0], #-852	; 0x354
 94c:	72656d69 	rsbvc	r6, r5, #6720	; 0x1a40
 950:	7465675f 	strbtvc	r6, [r5], #-1887	; 0x75f
 954:	6573755f 	ldrbvs	r7, [r3, #-1375]!	; 0x55f
 958:	61725f63 	cmnvs	r2, r3, ror #30
 95c:	65640077 	strbvs	r0, [r4, #-119]!	; 0x77
 960:	5f79616c 	svcpl	0x0079616c
 964:	00636573 	rsbeq	r6, r3, r3, ror r5
 968:	66617473 			; <UNDEFINED> instruction: 0x66617473
 96c:	72732d66 	rsbsvc	r2, r3, #6528	; 0x1980
 970:	69742f63 	ldmdbvs	r4!, {r0, r1, r5, r6, r8, r9, sl, fp, sp}^
 974:	2e72656d 	cdpcs	5, 7, cr6, cr2, cr13, {3}
 978:	45470063 	strbmi	r0, [r7, #-99]	; 0x63
 97c:	00323354 	eorseq	r3, r2, r4, asr r3
 980:	6b636974 	blvs	18daf58 <__bss_end__+0x18d0568>
 984:	65640073 	strbvs	r0, [r4, #-115]!	; 0x73
 988:	5f79616c 	svcpl	0x0079616c
 98c:	6c637963 	stclvs	9, cr7, [r3], #-396	; 0xfffffe74
 990:	64007365 	strvs	r7, [r0], #-869	; 0x365
 994:	79616c65 	stmdbvc	r1!, {r0, r2, r5, r6, sl, fp, sp, lr}^
 998:	0073755f 	rsbseq	r7, r3, pc, asr r5
 99c:	656d6974 	strbvs	r6, [sp, #-2420]!	; 0x974
 9a0:	65675f72 	strbvs	r5, [r7, #-3954]!	; 0xf72
 9a4:	73755f74 	cmnvc	r5, #116, 30	; 0x1d0
 9a8:	5f006365 	svcpl	0x00006365
 9ac:	5f6f7364 	svcpl	0x006f7364
 9b0:	646e6168 	strbtvs	r6, [lr], #-360	; 0x168
 9b4:	5f00656c 	svcpl	0x0000656c
 9b8:	657a6973 	ldrbvs	r6, [sl, #-2419]!	; 0x973
 9bc:	61725f00 	cmnvs	r2, r0, lsl #30
 9c0:	3834646e 	ldmdacc	r4!, {r1, r2, r3, r5, r6, sl, sp, lr}
 9c4:	6d655f00 	stclvs	15, cr5, [r5, #-0]
 9c8:	65677265 	strbvs	r7, [r7, #-613]!	; 0x265
 9cc:	0079636e 	rsbseq	r6, r9, lr, ror #6
 9d0:	74726175 	ldrbtvc	r6, [r2], #-373	; 0x175
 9d4:	696e695f 	stmdbvs	lr!, {r0, r1, r2, r3, r4, r6, r8, fp, sp, lr}^
 9d8:	775f0074 			; <UNDEFINED> instruction: 0x775f0074
 9dc:	6f747263 	svcvs	0x00747263
 9e0:	735f626d 	cmpvc	pc, #-805306362	; 0xd0000006
 9e4:	65746174 	ldrbvs	r6, [r4, #-372]!	; 0x174
 9e8:	63775f00 	cmnvs	r7, #0, 30
 9ec:	6f747273 	svcvs	0x00747273
 9f0:	5f73626d 	svcpl	0x0073626d
 9f4:	74617473 	strbtvc	r7, [r1], #-1139	; 0x473
 9f8:	6c5f0065 	mrrcvs	0, 6, r0, pc, cr5	; <UNPREDICTABLE>
 9fc:	69736662 	ldmdbvs	r3!, {r1, r5, r6, r9, sl, sp, lr}^
 a00:	4700657a 	smlsdxmi	r0, sl, r5, r6
 a04:	5f4f4950 	svcpl	0x004f4950
 a08:	434e5546 	movtmi	r5, #58694	; 0xe546
 a0c:	504e495f 	subpl	r4, lr, pc, asr r9
 a10:	5f005455 	svcpl	0x00005455
 a14:	7472626d 	ldrbtvc	r6, [r2], #-621	; 0x26d
 a18:	5f63776f 	svcpl	0x0063776f
 a1c:	74617473 	strbtvc	r7, [r1], #-1139	; 0x473
 a20:	775f0065 	ldrbvc	r0, [pc, -r5, rrx]
 a24:	6d6f7463 	cfstrdvs	mvd7, [pc, #-396]!	; 8a0 <__code_start__-0x7760>
 a28:	74735f62 	ldrbtvc	r5, [r3], #-3938	; 0xf62
 a2c:	00657461 	rsbeq	r7, r5, r1, ror #8
 a30:	6d745f5f 	ldclvs	15, cr5, [r4, #-380]!	; 0xfffffe84
 a34:	6365735f 	cmnvs	r5, #2080374785	; 0x7c000001
 a38:	61747300 	cmnvs	r4, r0, lsl #6
 a3c:	755f0074 	ldrbvc	r0, [pc, #-116]	; 9d0 <__code_start__-0x7630>
 a40:	00667562 	rsbeq	r7, r6, r2, ror #10
 a44:	4f495047 	svcmi	0x00495047
 a48:	4e55465f 	mrcmi	6, 2, r4, cr5, cr15, {2}
 a4c:	4c415f43 	mcrrmi	15, 4, r5, r1, cr3
 a50:	5f003154 	svcpl	0x00003154
 a54:	65736162 	ldrbvs	r6, [r3, #-354]!	; 0x162
 a58:	746e6300 	strbtvc	r6, [lr], #-768	; 0x300
 a5c:	5f5f006c 	svcpl	0x005f006c
 a60:	685f6d74 	ldmdavs	pc, {r2, r4, r5, r6, r8, sl, fp, sp, lr}^	; <UNPREDICTABLE>
 a64:	0072756f 	rsbseq	r7, r2, pc, ror #10
 a68:	66735f5f 	uhsaxvs	r5, r3, pc	; <UNPREDICTABLE>
 a6c:	6e6f5f00 	cdpvs	15, 6, cr5, cr15, cr0, {0}
 a70:	6978655f 	ldmdbvs	r8!, {r0, r1, r2, r3, r4, r6, r8, sl, sp, lr}^
 a74:	72615f74 	rsbvc	r5, r1, #116, 30	; 0x1d0
 a78:	5f007367 	svcpl	0x00007367
 a7c:	6b6f6f63 	blvs	1bdc810 <__bss_end__+0x1bd1e20>
 a80:	5f006569 	svcpl	0x00006569
 a84:	6c67735f 	stclvs	3, cr7, [r7], #-380	; 0xfffffe84
 a88:	5f006575 	svcpl	0x00006575
 a8c:	67616c66 	strbvs	r6, [r1, -r6, ror #24]!
 a90:	695f0073 	ldmdbvs	pc, {r0, r1, r4, r5, r6}^	; <UNPREDICTABLE>
 a94:	78635f73 	stmdavc	r3!, {r0, r1, r4, r5, r6, r8, r9, sl, fp, ip, lr}^
 a98:	735f0061 	cmpvc	pc, #97	; 0x61
 a9c:	6e696474 	mcrvs	4, 3, r6, cr9, cr4, {3}
 aa0:	6c625f00 	stclvs	15, cr5, [r2], #-0
 aa4:	7a69736b 	bvc	1a5d858 <__bss_end__+0x1a52e68>
 aa8:	61750065 	cmnvs	r5, r5, rrx
 aac:	632e7472 	teqvs	lr, #1912602624	; 0x72000000
 ab0:	78756100 	ldmdavc	r5!, {r8, sp, lr}^
 ab4:	7265705f 	rsbvc	r7, r5, #95	; 0x5f
 ab8:	73687069 	cmnvc	r8, #105	; 0x69
 abc:	76635f00 	strbtvc	r5, [r3], -r0, lsl #30
 ac0:	66756274 			; <UNDEFINED> instruction: 0x66756274
 ac4:	6f682f00 	svcvs	0x00682f00
 ac8:	652f656d 	strvs	r6, [pc, #-1389]!	; 563 <__code_start__-0x7a9d>
 acc:	656c676e 	strbvs	r6, [ip, #-1902]!	; 0x76e
 ad0:	6c632f72 	stclvs	15, cr2, [r3], #-456	; 0xfffffe38
 ad4:	2f737361 	svccs	0x00737361
 ad8:	34327363 	ldrtcc	r7, [r2], #-867	; 0x363
 adc:	2d786c30 	ldclcs	12, cr6, [r8, #-192]!	; 0xffffff40
 ae0:	70733032 	rsbsvc	r3, r3, r2, lsr r0
 ae4:	696c2f72 	stmdbvs	ip!, {r1, r4, r5, r6, r8, r9, sl, fp, sp}^
 ae8:	2f697062 	svccs	0x00697062
 aec:	66617473 			; <UNDEFINED> instruction: 0x66617473
 af0:	72702d66 	rsbsvc	r2, r0, #6528	; 0x1980
 af4:	74617669 	strbtvc	r7, [r1], #-1641	; 0x669
 af8:	6d5f0065 	ldclvs	0, cr0, [pc, #-404]	; 96c <__code_start__-0x7694>
 afc:	74727362 	ldrbtvc	r7, [r2], #-866	; 0x362
 b00:	7363776f 	cmnvc	r3, #29097984	; 0x1bc0000
 b04:	6174735f 	cmnvs	r4, pc, asr r3
 b08:	5f006574 	svcpl	0x00006574
 b0c:	6c72626d 	lfmvs	f6, 2, [r2], #-436	; 0xfffffe4c
 b10:	735f6e65 	cmpvc	pc, #1616	; 0x650
 b14:	65746174 	ldrbvs	r6, [r4, #-372]!	; 0x174
 b18:	6e665f00 	cdpvs	15, 6, cr5, cr6, cr0, {0}
 b1c:	73677261 	cmnvc	r7, #268435462	; 0x10000006
 b20:	78756100 	ldmdavc	r5!, {r8, sp, lr}^
 b24:	616e655f 	cmnvs	lr, pc, asr r5
 b28:	73656c62 	cmnvc	r5, #25088	; 0x6200
 b2c:	6e665f00 	cdpvs	15, 6, cr5, cr6, cr0, {0}
 b30:	735f0073 	cmpvc	pc, #115	; 0x73
 b34:	006e6769 	rsbeq	r6, lr, r9, ror #14
 b38:	74726175 	ldrbtvc	r6, [r2], #-373	; 0x175
 b3c:	6e61635f 	mcrvs	3, 3, r6, cr1, cr15, {2}
 b40:	7475705f 	ldrbtvc	r7, [r5], #-95	; 0x5f
 b44:	665f0063 	ldrbvs	r0, [pc], -r3, rrx
 b48:	6b636f6c 	blvs	18dc900 <__bss_end__+0x18d1f10>
 b4c:	5f00745f 	svcpl	0x0000745f
 b50:	65647473 	strbvs	r7, [r4, #-1139]!	; 0x473
 b54:	5f007272 	svcpl	0x00007272
 b58:	69676942 	stmdbvs	r7!, {r1, r6, r8, fp, sp, lr}^
 b5c:	5f00746e 	svcpl	0x0000746e
 b60:	6d6d6167 	stfvse	f6, [sp, #-412]!	; 0xfffffe64
 b64:	69735f61 	ldmdbvs	r3!, {r0, r5, r6, r8, r9, sl, fp, ip, lr}^
 b68:	61676e67 	cmnvs	r7, r7, ror #28
 b6c:	725f006d 	subsvc	r0, pc, #109	; 0x6d
 b70:	6c757365 	ldclvs	3, cr7, [r5], #-404	; 0xfffffe6c
 b74:	006b5f74 	rsbeq	r5, fp, r4, ror pc
 b78:	6d745f5f 	ldclvs	15, cr5, [r4, #-380]!	; 0xfffffe84
 b7c:	775f5f00 	ldrbvc	r5, [pc, -r0, lsl #30]
 b80:	00626863 	rsbeq	r6, r2, r3, ror #16
 b84:	74726175 	ldrbtvc	r6, [r2], #-373	; 0x175
 b88:	7465675f 	strbtvc	r6, [r5], #-1887	; 0x75f
 b8c:	735f0063 	cmpvc	pc, #99	; 0x63
 b90:	756f6474 	strbvc	r6, [pc, #-1140]!	; 724 <__code_start__-0x78dc>
 b94:	635f0074 	cmpvs	pc, #116	; 0x74
 b98:	656c7476 	strbvs	r7, [ip, #-1142]!	; 0x476
 b9c:	665f006e 	ldrbvs	r0, [pc], -lr, rrx
 ba0:	00656c69 	rsbeq	r6, r5, r9, ror #24
 ba4:	6f696e5f 	svcvs	0x00696e5f
 ba8:	5f007362 	svcpl	0x00007362
 bac:	78657461 	stmdavc	r5!, {r0, r5, r6, sl, ip, sp, lr}^
 bb0:	00307469 	eorseq	r7, r0, r9, ror #8
 bb4:	6769735f 			; <UNDEFINED> instruction: 0x6769735f
 bb8:	5f6c616e 	svcpl	0x006c616e
 bbc:	00667562 	rsbeq	r7, r6, r2, ror #10
 bc0:	6373615f 	cmnvs	r3, #-1073741801	; 0xc0000017
 bc4:	656d6974 	strbvs	r6, [sp, #-2420]!	; 0x974
 bc8:	6675625f 			; <UNDEFINED> instruction: 0x6675625f
 bcc:	65725f00 	ldrbvs	r5, [r2, #-3840]!	; 0xf00
 bd0:	746c7573 	strbtvc	r7, [ip], #-1395	; 0x573
 bd4:	775f5f00 	ldrbvc	r5, [pc, -r0, lsl #30]
 bd8:	47006863 	strmi	r6, [r0, -r3, ror #16]
 bdc:	5f4f4950 	svcpl	0x004f4950
 be0:	434e5546 	movtmi	r5, #58694	; 0xe546
 be4:	544c415f 	strbpl	r4, [ip], #-351	; 0x15f
 be8:	69770032 	ldmdbvs	r7!, {r1, r4, r5}^
 bec:	745f746e 	ldrbvc	r7, [pc], #-1134	; bf4 <__code_start__-0x740c>
 bf0:	6f6c5f00 	svcvs	0x006c5f00
 bf4:	5f006b63 	svcpl	0x00006b63
 bf8:	67616c66 	strbvs	r6, [r1, -r6, ror #24]!
 bfc:	5f003273 	svcpl	0x00003273
 c00:	5f6d745f 	svcpl	0x006d745f
 c04:	72616579 	rsbvc	r6, r1, #507510784	; 0x1e400000
 c08:	666f5f00 	strbtvs	r5, [pc], -r0, lsl #30
 c0c:	74657366 	strbtvc	r7, [r5], #-870	; 0x366
 c10:	69706700 	ldmdbvs	r0!, {r8, r9, sl, sp, lr}^
 c14:	65735f6f 	ldrbvs	r5, [r3, #-3951]!	; 0xf6f
 c18:	75665f74 	strbvc	r5, [r6, #-3956]!	; 0xf74
 c1c:	6974636e 	ldmdbvs	r4!, {r1, r2, r3, r5, r6, r8, r9, sp, lr}^
 c20:	5f006e6f 	svcpl	0x00006e6f
 c24:	7478656e 	ldrbtvc	r6, [r8], #-1390	; 0x56e
 c28:	5f5f0066 	svcpl	0x005f0066
 c2c:	6d5f6d74 	ldclvs	13, cr6, [pc, #-464]	; a64 <__code_start__-0x759c>
 c30:	5f006e6f 	svcpl	0x00006e6f
 c34:	78657461 	stmdavc	r5!, {r0, r5, r6, sl, ip, sp, lr}^
 c38:	5f007469 	svcpl	0x00007469
 c3c:	6964735f 	stmdbvs	r4!, {r0, r1, r2, r3, r4, r6, r8, r9, ip, sp, lr}^
 c40:	696e6964 	stmdbvs	lr!, {r2, r5, r6, r8, fp, sp, lr}^
 c44:	6f5f0074 	svcvs	0x005f0074
 c48:	745f6666 	ldrbvc	r6, [pc], #-1638	; c50 <__code_start__-0x73b0>
 c4c:	72617500 	rsbvc	r7, r1, #0, 10
 c50:	665f0074 			; <UNDEFINED> instruction: 0x665f0074
 c54:	6c656572 	cfstr64vs	mvdx6, [r5], #-456	; 0xfffffe38
 c58:	00747369 	rsbseq	r7, r4, r9, ror #6
 c5c:	434f4c5f 	movtmi	r4, #64607	; 0xfc5f
 c60:	45525f4b 	ldrbmi	r5, [r2, #-3915]	; 0xf4b
 c64:	53525543 	cmppl	r2, #281018368	; 0x10c00000
 c68:	5f455649 	svcpl	0x00455649
 c6c:	6e5f0054 	mrcvs	0, 2, r0, cr15, cr4, {2}
 c70:	5f007765 	svcpl	0x00007765
 c74:	72655f68 	rsbvc	r5, r5, #104, 30	; 0x1a0
 c78:	006f6e72 	rsbeq	r6, pc, r2, ror lr	; <UNPREDICTABLE>
 c7c:	6d745f5f 	ldclvs	15, cr5, [r4, #-380]!	; 0xfffffe84
 c80:	6164795f 	cmnvs	r4, pc, asr r9
 c84:	5f5f0079 	svcpl	0x005f0079
 c88:	66756273 			; <UNDEFINED> instruction: 0x66756273
 c8c:	6f695f00 	svcvs	0x00695f00
 c90:	5f007362 	svcpl	0x00007362
 c94:	4c49465f 	mcrrmi	6, 5, r4, r9, cr15
 c98:	6d5f0045 	ldclvs	0, cr0, [pc, #-276]	; b8c <__code_start__-0x7474>
 c9c:	61747362 	cmnvs	r4, r2, ror #6
 ca0:	745f6574 	ldrbvc	r6, [pc], #-1396	; ca8 <__code_start__-0x7358>
 ca4:	735f5f00 	cmpvc	pc, #0, 30
 ca8:	454c4946 	strbmi	r4, [ip, #-2374]	; 0x946
 cac:	626d5f00 	rsbvs	r5, sp, #0, 30
 cb0:	74617473 	strbtvc	r7, [r1], #-1139	; 0x473
 cb4:	725f0065 	subsvc	r0, pc, #101	; 0x65
 cb8:	5f646e61 	svcpl	0x00646e61
 cbc:	7478656e 	ldrbtvc	r6, [r8], #-1390	; 0x56e
 cc0:	626d5f00 	rsbvs	r5, sp, #0, 30
 cc4:	5f6e656c 	svcpl	0x006e656c
 cc8:	74617473 	strbtvc	r7, [r1], #-1139	; 0x473
 ccc:	695f0065 	ldmdbvs	pc, {r0, r2, r5, r6}^	; <UNPREDICTABLE>
 cd0:	5f00636e 	svcpl	0x0000636e
 cd4:	00646e69 	rsbeq	r6, r4, r9, ror #28
 cd8:	7275635f 	rsbsvc	r6, r5, #2080374785	; 0x7c000001
 cdc:	746e6572 	strbtvc	r6, [lr], #-1394	; 0x572
 ce0:	636f6c5f 	cmnvs	pc, #24320	; 0x5f00
 ce4:	00656c61 	rsbeq	r6, r5, r1, ror #24
 ce8:	6c635f5f 	stclvs	15, cr5, [r3], #-380	; 0xfffffe84
 cec:	756e6165 	strbvc	r6, [lr, #-357]!	; 0x165
 cf0:	6d5f0070 	ldclvs	0, cr0, [pc, #-448]	; b38 <__code_start__-0x74c8>
 cf4:	64777861 	ldrbtvs	r7, [r7], #-2145	; 0x861
 cf8:	725f0073 	subsvc	r0, pc, #115	; 0x73
 cfc:	746e6565 	strbtvc	r6, [lr], #-1381	; 0x565
 d00:	65735f00 	ldrbvs	r5, [r3, #-3840]!	; 0xf00
 d04:	5f006465 	svcpl	0x00006465
 d08:	756f635f 	strbvc	r6, [pc, #-863]!	; 9b1 <__code_start__-0x764f>
 d0c:	5f00746e 	svcpl	0x0000746e
 d10:	6c61765f 	stclvs	6, cr7, [r1], #-380	; 0xfffffe84
 d14:	5f006575 	svcpl	0x00006575
 d18:	6b656573 	blvs	195a2ec <__bss_end__+0x194f8fc>
 d1c:	75616200 	strbvc	r6, [r1, #-512]!	; 0x200
 d20:	665f0064 	ldrbvs	r0, [pc], -r4, rrx
 d24:	5f736f70 	svcpl	0x00736f70
 d28:	5f5f0074 	svcpl	0x005f0074
 d2c:	6d5f6d74 	ldclvs	13, cr6, [pc, #-464]	; b64 <__code_start__-0x749c>
 d30:	73006e69 	movwvc	r6, #3689	; 0xe69
 d34:	74617263 	strbtvc	r7, [r1], #-611	; 0x263
 d38:	5f006863 	svcpl	0x00006863
 d3c:	746c756d 	strbtvc	r7, [ip], #-1389	; 0x56d
 d40:	74757000 	ldrbtvc	r7, [r5], #-0
 d44:	47003233 	smladxmi	r0, r3, r2, r3
 d48:	4320554e 	teqmi	r0, #327155712	; 0x13800000
 d4c:	36203939 			; <UNDEFINED> instruction: 0x36203939
 d50:	312e332e 	teqcc	lr, lr, lsr #6
 d54:	31303220 	teqcc	r0, r0, lsr #4
 d58:	32363037 	eorscc	r3, r6, #55	; 0x37
 d5c:	6d2d2030 	stcvs	0, cr2, [sp, #-192]!	; 0xffffff40
 d60:	3d757063 	ldclcc	0, cr7, [r5, #-396]!	; 0xfffffe74
 d64:	316d7261 	cmncc	sp, r1, ror #4
 d68:	6a363731 	bvs	d8ea34 <__bss_end__+0xd84044>
 d6c:	732d667a 	teqvc	sp, #127926272	; 0x7a00000
 d70:	746d2d20 	strbtvc	r2, [sp], #-3360	; 0xd20
 d74:	3d656e75 	stclcc	14, cr6, [r5, #-468]!	; 0xfffffe2c
 d78:	316d7261 	cmncc	sp, r1, ror #4
 d7c:	6a363731 	bvs	d8ea48 <__bss_end__+0xd84058>
 d80:	732d667a 	teqvc	sp, #127926272	; 0x7a00000
 d84:	67672d20 	strbvs	r2, [r7, -r0, lsr #26]!
 d88:	2d206264 	sfmcs	f6, 4, [r0, #-400]!	; 0xfffffe70
 d8c:	2d20674f 	stccs	7, cr6, [r0, #-316]!	; 0xfffffec4
 d90:	3d647473 	cfstrdcc	mvd7, [r4, #-460]!	; 0xfffffe34
 d94:	39756e67 	ldmdbcc	r5!, {r0, r1, r2, r5, r6, r9, sl, fp, sp, lr}^
 d98:	662d2039 			; <UNDEFINED> instruction: 0x662d2039
 d9c:	65657266 	strbvs	r7, [r5, #-614]!	; 0x266
 da0:	6e617473 	mcrvs	4, 3, r7, cr1, cr3, {3}
 da4:	676e6964 	strbvs	r6, [lr, -r4, ror #18]!
 da8:	74735f00 	ldrbtvc	r5, [r3], #-3840	; 0xf00
 dac:	6b6f7472 	blvs	1bddf7c <__bss_end__+0x1bd358c>
 db0:	73616c5f 	cmnvc	r1, #24320	; 0x5f00
 db4:	665f0074 			; <UNDEFINED> instruction: 0x665f0074
 db8:	7079746e 	rsbsvc	r7, r9, lr, ror #8
 dbc:	5f007365 	svcpl	0x00007365
 dc0:	00646461 	rsbeq	r6, r4, r1, ror #8
 dc4:	4c555f5f 	mrrcmi	15, 5, r5, r5, cr15	; <UNPREDICTABLE>
 dc8:	00676e6f 	rsbeq	r6, r7, pc, ror #28
 dcc:	7465675f 	strbtvc	r6, [r5], #-1887	; 0x75f
 dd0:	65746164 	ldrbvs	r6, [r4, #-356]!	; 0x164
 dd4:	7272655f 	rsbsvc	r6, r2, #398458880	; 0x17c00000
 dd8:	6c675f00 	stclvs	15, cr5, [r7], #-0
 ddc:	6c61626f 	sfmvs	f6, 2, [r1], #-444	; 0xfffffe44
 de0:	706d695f 	rsbvc	r6, sp, pc, asr r9
 de4:	5f657275 	svcpl	0x00657275
 de8:	00727470 	rsbseq	r7, r2, r0, ror r4
 dec:	7275635f 	rsbsvc	r6, r5, #2080374785	; 0x7c000001
 df0:	746e6572 	strbtvc	r6, [lr], #-1394	; 0x572
 df4:	7461635f 	strbtvc	r6, [r1], #-863	; 0x35f
 df8:	726f6765 	rsbvc	r6, pc, #26476544	; 0x1940000
 dfc:	755f0079 	ldrbvc	r0, [pc, #-121]	; d8b <__code_start__-0x7275>
 e00:	6573756e 	ldrbvs	r7, [r3, #-1390]!	; 0x56e
 e04:	61725f64 	cmnvs	r2, r4, ror #30
 e08:	5f00646e 	svcpl	0x0000646e
 e0c:	00736477 	rsbseq	r6, r3, r7, ror r4
 e10:	6d745f5f 	ldclvs	15, cr5, [r4, #-380]!	; 0xfffffe84
 e14:	6164775f 	cmnvs	r4, pc, asr r7
 e18:	675f0079 			; <UNDEFINED> instruction: 0x675f0079
 e1c:	0065756c 	rsbeq	r7, r5, ip, ror #10
 e20:	4f495047 	svcmi	0x00495047
 e24:	4e55465f 	mrcmi	6, 2, r4, cr5, cr15, {2}
 e28:	554f5f43 	strbpl	r5, [pc, #-3907]	; fffffeed <__bss_end__+0xffff54fd>
 e2c:	54555054 	ldrbpl	r5, [r5], #-84	; 0x54
 e30:	6d6e5f00 	stclvs	15, cr5, [lr, #-0]
 e34:	6f6c6c61 	svcvs	0x006c6c61
 e38:	6c5f0063 	mrrcvs	0, 6, r0, pc, cr3	; <UNPREDICTABLE>
 e3c:	5f613436 	svcpl	0x00613436
 e40:	00667562 	rsbeq	r7, r6, r2, ror #10
 e44:	33746567 	cmncc	r4, #432013312	; 0x19c00000
 e48:	61750032 	cmnvs	r5, r2, lsr r0
 e4c:	635f7472 	cmpvs	pc, #1912602624	; 0x72000000
 e50:	675f6e61 	ldrbvs	r6, [pc, -r1, ror #28]
 e54:	00637465 	rsbeq	r7, r3, r5, ror #8
 e58:	6769735f 			; <UNDEFINED> instruction: 0x6769735f
 e5c:	6e75665f 	mrcvs	6, 3, r6, cr5, cr15, {2}
 e60:	726f0063 	rsbvc	r0, pc, #99	; 0x63
 e64:	336e695f 	cmncc	lr, #1556480	; 0x17c000
 e68:	61750032 	cmnvs	r5, r2, lsr r0
 e6c:	685f7472 	ldmdavs	pc, {r1, r4, r5, r6, sl, ip, sp, lr}^	; <UNPREDICTABLE>
 e70:	645f7361 	ldrbvs	r7, [pc], #-865	; e78 <__code_start__-0x7188>
 e74:	00617461 	rsbeq	r7, r1, r1, ror #8
 e78:	4f495047 	svcmi	0x00495047
 e7c:	4e55465f 	mrcmi	6, 2, r4, cr5, cr15, {2}
 e80:	4c415f43 	mcrrmi	15, 4, r5, r1, cr3
 e84:	5f003054 	svcpl	0x00003054
 e88:	6675626e 	ldrbtvs	r6, [r5], -lr, ror #4
 e8c:	6e755f00 	cdpvs	15, 7, cr5, cr5, cr0, {0}
 e90:	64657375 	strbtvs	r7, [r5], #-885	; 0x375
 e94:	49504700 	ldmdbmi	r0, {r8, r9, sl, lr}^
 e98:	55465f4f 	strbpl	r5, [r6, #-3919]	; 0xf4f
 e9c:	415f434e 	cmpmi	pc, lr, asr #6
 ea0:	0033544c 	eorseq	r5, r3, ip, asr #8
 ea4:	4f495047 	svcmi	0x00495047
 ea8:	4e55465f 	mrcmi	6, 2, r4, cr5, cr15, {2}
 eac:	4c415f43 	mcrrmi	15, 4, r5, r1, cr3
 eb0:	47003454 	smlsdmi	r0, r4, r4, r3
 eb4:	5f4f4950 	svcpl	0x004f4950
 eb8:	434e5546 	movtmi	r5, #58694	; 0xe546
 ebc:	544c415f 	strbpl	r4, [ip], #-351	; 0x15f
 ec0:	5f5f0035 	svcpl	0x005f0035
 ec4:	695f6d74 	ldmdbvs	pc, {r2, r4, r5, r6, r8, sl, fp, sp, lr}^	; <UNPREDICTABLE>
 ec8:	74736473 	ldrbtvc	r6, [r3], #-1139	; 0x473
 ecc:	6f6c5f00 	svcvs	0x006c5f00
 ed0:	746c6163 	strbtvc	r6, [ip], #-355	; 0x163
 ed4:	5f656d69 	svcpl	0x00656d69
 ed8:	00667562 	rsbeq	r7, r6, r2, ror #10
 edc:	6f6c635f 	svcvs	0x006c635f
 ee0:	5f006573 	svcpl	0x00006573
 ee4:	00383472 	eorseq	r3, r8, r2, ror r4
 ee8:	74626d5f 	strbtvc	r6, [r2], #-3423	; 0xd5f
 eec:	5f63776f 	svcpl	0x0063776f
 ef0:	74617473 	strbtvc	r7, [r1], #-1139	; 0x473
 ef4:	705f0065 	subsvc	r0, pc, r5, rrx
 ef8:	5f007335 	svcpl	0x00007335
 efc:	5f6d745f 	svcpl	0x006d745f
 f00:	7961646d 	stmdbvc	r1!, {r0, r2, r3, r5, r6, sl, sp, lr}^
 f04:	69706700 	ldmdbvs	r0!, {r8, r9, sl, sp, lr}^
 f08:	65735f6f 	ldrbvs	r5, [r3, #-3951]!	; 0xf6f
 f0c:	666f5f74 	uqsub16vs	r5, pc, r4	; <UNPREDICTABLE>
 f10:	61620066 	cmnvs	r2, r6, rrx
 f14:	67006b6e 	strvs	r6, [r0, -lr, ror #22]
 f18:	2e6f6970 	mcrcs	9, 3, r6, cr15, cr0, {3}
 f1c:	70670063 	rsbvc	r0, r7, r3, rrx
 f20:	725f6f69 	subsvc	r6, pc, #420	; 0x1a4
 f24:	00646165 	rsbeq	r6, r4, r5, ror #2
 f28:	6f697067 	svcvs	0x00697067
 f2c:	7465735f 	strbtvc	r7, [r5], #-863	; 0x35f
 f30:	74756f5f 	ldrbtvc	r6, [r5], #-3935	; 0xf5f
 f34:	00747570 	rsbseq	r7, r4, r0, ror r5
 f38:	6f697067 	svcvs	0x00697067
 f3c:	6972775f 	ldmdbvs	r2!, {r0, r1, r2, r3, r4, r6, r8, r9, sl, ip, sp, lr}^
 f40:	67006574 	smlsdxvs	r0, r4, r5, r6
 f44:	5f6f6970 	svcpl	0x006f6970
 f48:	30746573 	rsbscc	r6, r4, r3, ror r5
 f4c:	69706700 	ldmdbvs	r0!, {r8, r9, sl, sp, lr}^
 f50:	656c5f6f 	strbvs	r5, [ip, #-3951]!	; 0xf6f
 f54:	67003076 	smlsdxvs	r0, r6, r0, r3
 f58:	5f6f6970 	svcpl	0x006f6970
 f5c:	5f746573 	svcpl	0x00746573
 f60:	75706e69 	ldrbvc	r6, [r0, #-3689]!	; 0xe69
 f64:	70670074 	rsbvc	r0, r7, r4, ror r0
 f68:	735f6f69 	cmpvc	pc, #420	; 0x1a4
 f6c:	6f5f7465 	svcvs	0x005f7465
 f70:	7067006e 	rsbvc	r0, r7, lr, rrx
 f74:	665f6f69 	ldrbvs	r6, [pc], -r9, ror #30
 f78:	5f636e75 	svcpl	0x00636e75
 f7c:	70670074 	rsbvc	r0, r7, r4, ror r0
 f80:	635f6f69 	cmpvs	pc, #420	; 0x1a4
 f84:	0030726c 	eorseq	r7, r0, ip, ror #4

Disassembly of section .debug_frame:

00000000 <.debug_frame>:
   0:	0000000c 	andeq	r0, r0, ip
   4:	ffffffff 			; <UNDEFINED> instruction: 0xffffffff
   8:	7c020001 	stcvc	0, cr0, [r2], {1}
   c:	000d0c0e 	andeq	r0, sp, lr, lsl #24
  10:	00000018 	andeq	r0, r0, r8, lsl r0
  14:	00000000 	andeq	r0, r0, r0
  18:	00008020 	andeq	r8, r0, r0, lsr #32
  1c:	00000158 	andeq	r0, r0, r8, asr r1
  20:	84080e42 	strhi	r0, [r8], #-3650	; 0xe42
  24:	42018e02 	andmi	r8, r1, #2, 28
  28:	0000100e 	andeq	r1, r0, lr
  2c:	00000014 	andeq	r0, r0, r4, lsl r0
  30:	00000000 	andeq	r0, r0, r0
  34:	00008178 	andeq	r8, r0, r8, ror r1
  38:	00000098 	muleq	r0, r8, r0
  3c:	8e040e42 	cdphi	14, 0, cr0, cr4, cr2, {2}
  40:	100e4201 	andne	r4, lr, r1, lsl #4
  44:	00000018 	andeq	r0, r0, r8, lsl r0
  48:	00000000 	andeq	r0, r0, r0
  4c:	00008210 	andeq	r8, r0, r0, lsl r2
  50:	0000016c 	andeq	r0, r0, ip, ror #2
  54:	84080e42 	strhi	r0, [r8], #-3650	; 0xe42
  58:	42018e02 	andmi	r8, r1, #2, 28
  5c:	0000100e 	andeq	r1, r0, lr
  60:	00000018 	andeq	r0, r0, r8, lsl r0
  64:	00000000 	andeq	r0, r0, r0
  68:	0000837c 	andeq	r8, r0, ip, ror r3
  6c:	000001a0 	andeq	r0, r0, r0, lsr #3
  70:	840c0e42 	strhi	r0, [ip], #-3650	; 0xe42
  74:	8e028503 	cfsh32hi	mvfx8, mvfx2, #3
  78:	180e4201 	stmdane	lr, {r0, r9, lr}
  7c:	0000000c 	andeq	r0, r0, ip
  80:	ffffffff 			; <UNDEFINED> instruction: 0xffffffff
  84:	7c020001 	stcvc	0, cr0, [r2], {1}
  88:	000d0c0e 	andeq	r0, sp, lr, lsl #24
  8c:	00000014 	andeq	r0, r0, r4, lsl r0
  90:	0000007c 	andeq	r0, r0, ip, ror r0
  94:	0000851c 	andeq	r8, r0, ip, lsl r5
  98:	000000b0 	strheq	r0, [r0], -r0	; <UNPREDICTABLE>
  9c:	8e040e42 	cdphi	14, 0, cr0, cr4, cr2, {2}
  a0:	100e4201 	andne	r4, lr, r1, lsl #4
  a4:	00000014 	andeq	r0, r0, r4, lsl r0
  a8:	0000007c 	andeq	r0, r0, ip, ror r0
  ac:	000085cc 	andeq	r8, r0, ip, asr #11
  b0:	000000dc 	ldrdeq	r0, [r0], -ip
  b4:	8e040e42 	cdphi	14, 0, cr0, cr4, cr2, {2}
  b8:	100e4201 	andne	r4, lr, r1, lsl #4
  bc:	00000014 	andeq	r0, r0, r4, lsl r0
  c0:	0000007c 	andeq	r0, r0, ip, ror r0
  c4:	000086a8 	andeq	r8, r0, r8, lsr #13
  c8:	0000003c 	andeq	r0, r0, ip, lsr r0
  cc:	83080e42 	movwhi	r0, #36418	; 0x8e42
  d0:	00018e02 	andeq	r8, r1, r2, lsl #28
  d4:	0000000c 	andeq	r0, r0, ip
  d8:	0000007c 	andeq	r0, r0, ip, ror r0
  dc:	000086e4 	andeq	r8, r0, r4, ror #13
  e0:	00000034 	andeq	r0, r0, r4, lsr r0
  e4:	00000014 	andeq	r0, r0, r4, lsl r0
  e8:	0000007c 	andeq	r0, r0, ip, ror r0
  ec:	00008718 	andeq	r8, r0, r8, lsl r7
  f0:	00000098 	muleq	r0, r8, r0
  f4:	8e040e42 	cdphi	14, 0, cr0, cr4, cr2, {2}
  f8:	100e4201 	andne	r4, lr, r1, lsl #4
  fc:	0000000c 	andeq	r0, r0, ip
 100:	0000007c 	andeq	r0, r0, ip, ror r0
 104:	000087b0 			; <UNDEFINED> instruction: 0x000087b0
 108:	00000004 	andeq	r0, r0, r4
 10c:	00000014 	andeq	r0, r0, r4, lsl r0
 110:	0000007c 	andeq	r0, r0, ip, ror r0
 114:	000087b4 			; <UNDEFINED> instruction: 0x000087b4
 118:	0000002c 	andeq	r0, r0, ip, lsr #32
 11c:	83080e42 	movwhi	r0, #36418	; 0x8e42
 120:	00018e02 	andeq	r8, r1, r2, lsl #28
 124:	0000000c 	andeq	r0, r0, ip
 128:	0000007c 	andeq	r0, r0, ip, ror r0
 12c:	000087e0 	andeq	r8, r0, r0, ror #15
 130:	00000034 	andeq	r0, r0, r4, lsr r0
 134:	0000000c 	andeq	r0, r0, ip
 138:	0000007c 	andeq	r0, r0, ip, ror r0
 13c:	00008814 	andeq	r8, r0, r4, lsl r8
 140:	00000010 	andeq	r0, r0, r0, lsl r0
 144:	00000014 	andeq	r0, r0, r4, lsl r0
 148:	0000007c 	andeq	r0, r0, ip, ror r0
 14c:	00008824 	andeq	r8, r0, r4, lsr #16
 150:	00000060 	andeq	r0, r0, r0, rrx
 154:	83080e42 	movwhi	r0, #36418	; 0x8e42
 158:	00018e02 	andeq	r8, r1, r2, lsl #28
 15c:	0000000c 	andeq	r0, r0, ip
 160:	ffffffff 			; <UNDEFINED> instruction: 0xffffffff
 164:	7c020001 	stcvc	0, cr0, [r2], {1}
 168:	000d0c0e 	andeq	r0, sp, lr, lsl #24
 16c:	00000018 	andeq	r0, r0, r8, lsl r0
 170:	0000015c 	andeq	r0, r0, ip, asr r1
 174:	000089ac 	andeq	r8, r0, ip, lsr #19
 178:	00000198 	muleq	r0, r8, r1
 17c:	840c0e42 	strhi	r0, [ip], #-3650	; 0xe42
 180:	8e028503 	cfsh32hi	mvfx8, mvfx2, #3
 184:	180e4201 	stmdane	lr, {r0, r9, lr}
 188:	00000024 	andeq	r0, r0, r4, lsr #32
 18c:	0000015c 	andeq	r0, r0, ip, asr r1
 190:	00008b44 	andeq	r8, r0, r4, asr #22
 194:	000004e0 	andeq	r0, r0, r0, ror #9
 198:	84240e42 	strthi	r0, [r4], #-3650	; 0xe42
 19c:	86088509 	strhi	r8, [r8], -r9, lsl #10
 1a0:	88068707 	stmdahi	r6, {r0, r1, r2, r8, r9, sl, pc}
 1a4:	8a048905 	bhi	1225c0 <__bss_end__+0x117bd0>
 1a8:	8e028b03 	vmlahi.f64	d8, d2, d3
 1ac:	300e4201 	andcc	r4, lr, r1, lsl #4
 1b0:	00000018 	andeq	r0, r0, r8, lsl r0
 1b4:	0000015c 	andeq	r0, r0, ip, asr r1
 1b8:	00009024 	andeq	r9, r0, r4, lsr #32
 1bc:	00000084 	andeq	r0, r0, r4, lsl #1
 1c0:	83100e42 	tsthi	r0, #1056	; 0x420
 1c4:	85038404 	strhi	r8, [r3, #-1028]	; 0x404
 1c8:	00018e02 	andeq	r8, r1, r2, lsl #28
 1cc:	0000000c 	andeq	r0, r0, ip
 1d0:	0000015c 	andeq	r0, r0, ip, asr r1
 1d4:	000090a8 	andeq	r9, r0, r8, lsr #1
 1d8:	00000028 	andeq	r0, r0, r8, lsr #32
 1dc:	00000014 	andeq	r0, r0, r4, lsl r0
 1e0:	0000015c 	andeq	r0, r0, ip, asr r1
 1e4:	000090d0 	ldrdeq	r9, [r0], -r0
 1e8:	0000004c 	andeq	r0, r0, ip, asr #32
 1ec:	84080e42 	strhi	r0, [r8], #-3650	; 0xe42
 1f0:	00018e02 	andeq	r8, r1, r2, lsl #28
 1f4:	0000000c 	andeq	r0, r0, ip
 1f8:	ffffffff 			; <UNDEFINED> instruction: 0xffffffff
 1fc:	7c020001 	stcvc	0, cr0, [r2], {1}
 200:	000d0c0e 	andeq	r0, sp, lr, lsl #24
 204:	00000024 	andeq	r0, r0, r4, lsr #32
 208:	000001f4 	strdeq	r0, [r0], -r4
 20c:	0000911c 	andeq	r9, r0, ip, lsl r1
 210:	00000058 	andeq	r0, r0, r8, asr r0
 214:	80100e42 	andshi	r0, r0, r2, asr #28
 218:	82038104 	andhi	r8, r3, #4, 2
 21c:	42018302 	andmi	r8, r1, #134217728	; 0x8000000
 220:	07841c0e 	streq	r1, [r4, lr, lsl #24]
 224:	058e0685 	streq	r0, [lr, #1669]	; 0x685
 228:	00280e42 	eoreq	r0, r8, r2, asr #28
 22c:	0000000c 	andeq	r0, r0, ip
 230:	ffffffff 			; <UNDEFINED> instruction: 0xffffffff
 234:	7c020001 	stcvc	0, cr0, [r2], {1}
 238:	000d0c0e 	andeq	r0, sp, lr, lsl #24
 23c:	00000014 	andeq	r0, r0, r4, lsl r0
 240:	0000022c 	andeq	r0, r0, ip, lsr #4
 244:	00009174 	andeq	r9, r0, r4, ror r1
 248:	00000014 	andeq	r0, r0, r4, lsl r0
 24c:	84080e42 	strhi	r0, [r8], #-3650	; 0xe42
 250:	00018e02 	andeq	r8, r1, r2, lsl #28
 254:	0000000c 	andeq	r0, r0, ip
 258:	0000022c 	andeq	r0, r0, ip, lsr #4
 25c:	00009188 	andeq	r9, r0, r8, lsl #3
 260:	00000018 	andeq	r0, r0, r8, lsl r0
 264:	0000000c 	andeq	r0, r0, ip
 268:	0000022c 	andeq	r0, r0, ip, lsr #4
 26c:	000091a0 	andeq	r9, r0, r0, lsr #3
 270:	00000010 	andeq	r0, r0, r0, lsl r0
 274:	0000000c 	andeq	r0, r0, ip
 278:	ffffffff 			; <UNDEFINED> instruction: 0xffffffff
 27c:	7c020001 	stcvc	0, cr0, [r2], {1}
 280:	000d0c0e 	andeq	r0, sp, lr, lsl #24
 284:	00000018 	andeq	r0, r0, r8, lsl r0
 288:	00000274 	andeq	r0, r0, r4, ror r2
 28c:	000091b0 			; <UNDEFINED> instruction: 0x000091b0
 290:	00000034 	andeq	r0, r0, r4, lsr r0
 294:	83100e42 	tsthi	r0, #1056	; 0x420
 298:	85038404 	strhi	r8, [r3, #-1028]	; 0x404
 29c:	00018e02 	andeq	r8, r1, r2, lsl #28
 2a0:	0000000c 	andeq	r0, r0, ip
 2a4:	ffffffff 			; <UNDEFINED> instruction: 0xffffffff
 2a8:	7c020001 	stcvc	0, cr0, [r2], {1}
 2ac:	000d0c0e 	andeq	r0, sp, lr, lsl #24
 2b0:	0000000c 	andeq	r0, r0, ip
 2b4:	000002a0 	andeq	r0, r0, r0, lsr #5
 2b8:	000091e4 	andeq	r9, r0, r4, ror #3
 2bc:	00000014 	andeq	r0, r0, r4, lsl r0
 2c0:	0000000c 	andeq	r0, r0, ip
 2c4:	000002a0 	andeq	r0, r0, r0, lsr #5
 2c8:	000091f8 	strdeq	r9, [r0], -r8
 2cc:	0000002c 	andeq	r0, r0, ip, lsr #32
 2d0:	0000000c 	andeq	r0, r0, ip
 2d4:	000002a0 	andeq	r0, r0, r0, lsr #5
 2d8:	00009224 	andeq	r9, r0, r4, lsr #4
 2dc:	00000040 	andeq	r0, r0, r0, asr #32
 2e0:	00000020 	andeq	r0, r0, r0, lsr #32
 2e4:	000002a0 	andeq	r0, r0, r0, lsr #5
 2e8:	00009264 	andeq	r9, r0, r4, ror #4
 2ec:	000001bc 			; <UNDEFINED> instruction: 0x000001bc
 2f0:	84180e42 	ldrhi	r0, [r8], #-3650	; 0xe42
 2f4:	86058506 	strhi	r8, [r5], -r6, lsl #10
 2f8:	88038704 	stmdahi	r3, {r2, r8, r9, sl, pc}
 2fc:	42018e02 	andmi	r8, r1, #2, 28
 300:	0000600e 	andeq	r6, r0, lr
 304:	00000014 	andeq	r0, r0, r4, lsl r0
 308:	000002a0 	andeq	r0, r0, r0, lsr #5
 30c:	00009420 	andeq	r9, r0, r0, lsr #8
 310:	00000068 	andeq	r0, r0, r8, rrx
 314:	8e040e42 	cdphi	14, 0, cr0, cr4, cr2, {2}
 318:	100e4201 	andne	r4, lr, r1, lsl #4
 31c:	00000028 	andeq	r0, r0, r8, lsr #32
 320:	000002a0 	andeq	r0, r0, r0, lsr #5
 324:	00009488 	andeq	r9, r0, r8, lsl #9
 328:	000002d4 	ldrdeq	r0, [r0], -r4
 32c:	84240e42 	strthi	r0, [r4], #-3650	; 0xe42
 330:	86088509 	strhi	r8, [r8], -r9, lsl #10
 334:	88068707 	stmdahi	r6, {r0, r1, r2, r8, r9, sl, pc}
 338:	8a048905 	bhi	122754 <__bss_end__+0x117d64>
 33c:	8e028b03 	vmlahi.f64	d8, d2, d3
 340:	b80e4201 	stmdalt	lr, {r0, r9, lr}
 344:	00000001 	andeq	r0, r0, r1
 348:	0000000c 	andeq	r0, r0, ip
 34c:	ffffffff 			; <UNDEFINED> instruction: 0xffffffff
 350:	7c020001 	stcvc	0, cr0, [r2], {1}
 354:	000d0c0e 	andeq	r0, sp, lr, lsl #24
 358:	0000000c 	andeq	r0, r0, ip
 35c:	00000348 	andeq	r0, r0, r8, asr #6
 360:	0000975c 	andeq	r9, r0, ip, asr r7
 364:	00000010 	andeq	r0, r0, r0, lsl r0
 368:	0000000c 	andeq	r0, r0, ip
 36c:	00000348 	andeq	r0, r0, r8, asr #6
 370:	0000976c 	andeq	r9, r0, ip, ror #14
 374:	00000010 	andeq	r0, r0, r0, lsl r0
 378:	0000000c 	andeq	r0, r0, ip
 37c:	ffffffff 			; <UNDEFINED> instruction: 0xffffffff
 380:	7c020001 	stcvc	0, cr0, [r2], {1}
 384:	000d0c0e 	andeq	r0, sp, lr, lsl #24
 388:	00000014 	andeq	r0, r0, r4, lsl r0
 38c:	00000378 	andeq	r0, r0, r8, ror r3
 390:	0000977c 	andeq	r9, r0, ip, ror r7
 394:	0000002c 	andeq	r0, r0, ip, lsr #32
 398:	83080e42 	movwhi	r0, #36418	; 0x8e42
 39c:	00018e02 	andeq	r8, r1, r2, lsl #28
 3a0:	0000000c 	andeq	r0, r0, ip
 3a4:	ffffffff 			; <UNDEFINED> instruction: 0xffffffff
 3a8:	7c020001 	stcvc	0, cr0, [r2], {1}
 3ac:	000d0c0e 	andeq	r0, sp, lr, lsl #24
 3b0:	00000014 	andeq	r0, r0, r4, lsl r0
 3b4:	000003a0 	andeq	r0, r0, r0, lsr #7
 3b8:	000097a8 	andeq	r9, r0, r8, lsr #15
 3bc:	00000038 	andeq	r0, r0, r8, lsr r0
 3c0:	83080e42 	movwhi	r0, #36418	; 0x8e42
 3c4:	00018e02 	andeq	r8, r1, r2, lsl #28
 3c8:	0000000c 	andeq	r0, r0, ip
 3cc:	ffffffff 			; <UNDEFINED> instruction: 0xffffffff
 3d0:	7c020001 	stcvc	0, cr0, [r2], {1}
 3d4:	000d0c0e 	andeq	r0, sp, lr, lsl #24
 3d8:	00000014 	andeq	r0, r0, r4, lsl r0
 3dc:	000003c8 	andeq	r0, r0, r8, asr #7
 3e0:	000097e0 	andeq	r9, r0, r0, ror #15
 3e4:	00000044 	andeq	r0, r0, r4, asr #32
 3e8:	8e040e42 	cdphi	14, 0, cr0, cr4, cr2, {2}
 3ec:	100e4201 	andne	r4, lr, r1, lsl #4
 3f0:	0000000c 	andeq	r0, r0, ip
 3f4:	ffffffff 			; <UNDEFINED> instruction: 0xffffffff
 3f8:	7c020001 	stcvc	0, cr0, [r2], {1}
 3fc:	000d0c0e 	andeq	r0, sp, lr, lsl #24
 400:	00000014 	andeq	r0, r0, r4, lsl r0
 404:	000003f0 	strdeq	r0, [r0], -r0	; <UNPREDICTABLE>
 408:	00009824 	andeq	r9, r0, r4, lsr #16
 40c:	00000044 	andeq	r0, r0, r4, asr #32
 410:	8e040e42 	cdphi	14, 0, cr0, cr4, cr2, {2}
 414:	100e4201 	andne	r4, lr, r1, lsl #4
 418:	0000000c 	andeq	r0, r0, ip
 41c:	ffffffff 			; <UNDEFINED> instruction: 0xffffffff
 420:	7c020001 	stcvc	0, cr0, [r2], {1}
 424:	000d0c0e 	andeq	r0, sp, lr, lsl #24
 428:	00000014 	andeq	r0, r0, r4, lsl r0
 42c:	00000418 	andeq	r0, r0, r8, lsl r4
 430:	00009868 	andeq	r9, r0, r8, ror #16
 434:	00000044 	andeq	r0, r0, r4, asr #32
 438:	8e040e42 	cdphi	14, 0, cr0, cr4, cr2, {2}
 43c:	100e4201 	andne	r4, lr, r1, lsl #4
 440:	0000000c 	andeq	r0, r0, ip
 444:	ffffffff 			; <UNDEFINED> instruction: 0xffffffff
 448:	7c020001 	stcvc	0, cr0, [r2], {1}
 44c:	000d0c0e 	andeq	r0, sp, lr, lsl #24
 450:	0000000c 	andeq	r0, r0, ip
 454:	00000440 	andeq	r0, r0, r0, asr #8
 458:	000098ac 	andeq	r9, r0, ip, lsr #17
 45c:	00000004 	andeq	r0, r0, r4
 460:	0000000c 	andeq	r0, r0, ip
 464:	00000440 	andeq	r0, r0, r0, asr #8
 468:	000098b0 			; <UNDEFINED> instruction: 0x000098b0
 46c:	00000004 	andeq	r0, r0, r4
 470:	0000000c 	andeq	r0, r0, ip
 474:	ffffffff 			; <UNDEFINED> instruction: 0xffffffff
 478:	7c020001 	stcvc	0, cr0, [r2], {1}
 47c:	000d0c0e 	andeq	r0, sp, lr, lsl #24
 480:	00000014 	andeq	r0, r0, r4, lsl r0
 484:	00000470 	andeq	r0, r0, r0, ror r4
 488:	000098b4 			; <UNDEFINED> instruction: 0x000098b4
 48c:	0000006c 	andeq	r0, r0, ip, rrx
 490:	83080e42 	movwhi	r0, #36418	; 0x8e42
 494:	00018e02 	andeq	r8, r1, r2, lsl #28
 498:	0000000c 	andeq	r0, r0, ip
 49c:	ffffffff 			; <UNDEFINED> instruction: 0xffffffff
 4a0:	7c020001 	stcvc	0, cr0, [r2], {1}
 4a4:	000d0c0e 	andeq	r0, sp, lr, lsl #24
 4a8:	0000000c 	andeq	r0, r0, ip
 4ac:	00000498 	muleq	r0, r8, r4
 4b0:	00009920 	andeq	r9, r0, r0, lsr #18
 4b4:	00000018 	andeq	r0, r0, r8, lsl r0
 4b8:	0000000c 	andeq	r0, r0, ip
 4bc:	00000498 	muleq	r0, r8, r4
 4c0:	00009938 	andeq	r9, r0, r8, lsr r9
 4c4:	00000014 	andeq	r0, r0, r4, lsl r0
 4c8:	00000014 	andeq	r0, r0, r4, lsl r0
 4cc:	00000498 	muleq	r0, r8, r4
 4d0:	0000994c 	andeq	r9, r0, ip, asr #18
 4d4:	00000048 	andeq	r0, r0, r8, asr #32
 4d8:	83080e42 	movwhi	r0, #36418	; 0x8e42
 4dc:	00018e02 	andeq	r8, r1, r2, lsl #28
 4e0:	0000000c 	andeq	r0, r0, ip
 4e4:	ffffffff 			; <UNDEFINED> instruction: 0xffffffff
 4e8:	7c020001 	stcvc	0, cr0, [r2], {1}
 4ec:	000d0c0e 	andeq	r0, sp, lr, lsl #24
 4f0:	0000000c 	andeq	r0, r0, ip
 4f4:	000004e0 	andeq	r0, r0, r0, ror #9
 4f8:	00009994 	muleq	r0, r4, r9
 4fc:	0000001c 	andeq	r0, r0, ip, lsl r0
 500:	00000014 	andeq	r0, r0, r4, lsl r0
 504:	000004e0 	andeq	r0, r0, r0, ror #9
 508:	000099b0 			; <UNDEFINED> instruction: 0x000099b0
 50c:	00000014 	andeq	r0, r0, r4, lsl r0
 510:	83080e42 	movwhi	r0, #36418	; 0x8e42
 514:	00018e02 	andeq	r8, r1, r2, lsl #28
 518:	00000014 	andeq	r0, r0, r4, lsl r0
 51c:	000004e0 	andeq	r0, r0, r0, ror #9
 520:	000099c4 	andeq	r9, r0, r4, asr #19
 524:	0000001c 	andeq	r0, r0, ip, lsl r0
 528:	84080e42 	strhi	r0, [r8], #-3650	; 0xe42
 52c:	00018e02 	andeq	r8, r1, r2, lsl #28
 530:	00000018 	andeq	r0, r0, r8, lsl r0
 534:	000004e0 	andeq	r0, r0, r0, ror #9
 538:	000099e0 	andeq	r9, r0, r0, ror #19
 53c:	00000024 	andeq	r0, r0, r4, lsr #32
 540:	83100e42 	tsthi	r0, #1056	; 0x420
 544:	85038404 	strhi	r8, [r3, #-1028]	; 0x404
 548:	00018e02 	andeq	r8, r1, r2, lsl #28
 54c:	00000014 	andeq	r0, r0, r4, lsl r0
 550:	000004e0 	andeq	r0, r0, r0, ror #9
 554:	00009a04 	andeq	r9, r0, r4, lsl #20
 558:	00000014 	andeq	r0, r0, r4, lsl r0
 55c:	83080e42 	movwhi	r0, #36418	; 0x8e42
 560:	00018e02 	andeq	r8, r1, r2, lsl #28
 564:	00000014 	andeq	r0, r0, r4, lsl r0
 568:	000004e0 	andeq	r0, r0, r0, ror #9
 56c:	00009a18 	andeq	r9, r0, r8, lsl sl
 570:	00000014 	andeq	r0, r0, r4, lsl r0
 574:	83080e42 	movwhi	r0, #36418	; 0x8e42
 578:	00018e02 	andeq	r8, r1, r2, lsl #28
 57c:	0000000c 	andeq	r0, r0, ip
 580:	ffffffff 			; <UNDEFINED> instruction: 0xffffffff
 584:	7c020001 	stcvc	0, cr0, [r2], {1}
 588:	000d0c0e 	andeq	r0, sp, lr, lsl #24
 58c:	00000018 	andeq	r0, r0, r8, lsl r0
 590:	0000057c 	andeq	r0, r0, ip, ror r5
 594:	00009a90 	muleq	r0, r0, sl
 598:	00000020 	andeq	r0, r0, r0, lsr #32
 59c:	84100e42 	ldrhi	r0, [r0], #-3650	; 0xe42
 5a0:	86038504 	strhi	r8, [r3], -r4, lsl #10
 5a4:	00018e02 	andeq	r8, r1, r2, lsl #28
 5a8:	00000014 	andeq	r0, r0, r4, lsl r0
 5ac:	0000057c 	andeq	r0, r0, ip, ror r5
 5b0:	00009ab0 			; <UNDEFINED> instruction: 0x00009ab0
 5b4:	000000b0 	strheq	r0, [r0], -r0	; <UNPREDICTABLE>
 5b8:	84080e42 	strhi	r0, [r8], #-3650	; 0xe42
 5bc:	00018e02 	andeq	r8, r1, r2, lsl #28
 5c0:	00000014 	andeq	r0, r0, r4, lsl r0
 5c4:	0000057c 	andeq	r0, r0, ip, ror r5
 5c8:	00009b60 	andeq	r9, r0, r0, ror #22
 5cc:	00000018 	andeq	r0, r0, r8, lsl r0
 5d0:	84080e42 	strhi	r0, [r8], #-3650	; 0xe42
 5d4:	00018e02 	andeq	r8, r1, r2, lsl #28
 5d8:	00000014 	andeq	r0, r0, r4, lsl r0
 5dc:	0000057c 	andeq	r0, r0, ip, ror r5
 5e0:	00009b78 	andeq	r9, r0, r8, ror fp
 5e4:	00000020 	andeq	r0, r0, r0, lsr #32
 5e8:	84080e42 	strhi	r0, [r8], #-3650	; 0xe42
 5ec:	00018e02 	andeq	r8, r1, r2, lsl #28
 5f0:	00000014 	andeq	r0, r0, r4, lsl r0
 5f4:	0000057c 	andeq	r0, r0, ip, ror r5
 5f8:	00009b98 	muleq	r0, r8, fp
 5fc:	00000030 	andeq	r0, r0, r0, lsr r0
 600:	84080e42 	strhi	r0, [r8], #-3650	; 0xe42
 604:	00018e02 	andeq	r8, r1, r2, lsl #28
 608:	00000014 	andeq	r0, r0, r4, lsl r0
 60c:	0000057c 	andeq	r0, r0, ip, ror r5
 610:	00009bc8 	andeq	r9, r0, r8, asr #23
 614:	00000030 	andeq	r0, r0, r0, lsr r0
 618:	84080e42 	strhi	r0, [r8], #-3650	; 0xe42
 61c:	00018e02 	andeq	r8, r1, r2, lsl #28
 620:	00000014 	andeq	r0, r0, r4, lsl r0
 624:	0000057c 	andeq	r0, r0, ip, ror r5
 628:	00009bf8 	strdeq	r9, [r0], -r8
 62c:	00000010 	andeq	r0, r0, r0, lsl r0
 630:	84080e42 	strhi	r0, [r8], #-3650	; 0xe42
 634:	00018e02 	andeq	r8, r1, r2, lsl #28
 638:	0000000c 	andeq	r0, r0, ip
 63c:	ffffffff 			; <UNDEFINED> instruction: 0xffffffff
 640:	7c020001 	stcvc	0, cr0, [r2], {1}
 644:	000d0c0e 	andeq	r0, sp, lr, lsl #24
 648:	00000018 	andeq	r0, r0, r8, lsl r0
 64c:	00000638 	andeq	r0, r0, r8, lsr r6
 650:	00009c08 	andeq	r9, r0, r8, lsl #24
 654:	00000068 	andeq	r0, r0, r8, rrx
 658:	84100e4a 	ldrhi	r0, [r0], #-3658	; 0xe4a
 65c:	86038504 	strhi	r8, [r3], -r4, lsl #10
 660:	00018e02 	andeq	r8, r1, r2, lsl #28
 664:	00000014 	andeq	r0, r0, r4, lsl r0
 668:	00000638 	andeq	r0, r0, r8, lsr r6
 66c:	00009c70 	andeq	r9, r0, r0, ror ip
 670:	00000010 	andeq	r0, r0, r0, lsl r0
 674:	84080e42 	strhi	r0, [r8], #-3650	; 0xe42
 678:	00018e02 	andeq	r8, r1, r2, lsl #28
 67c:	00000014 	andeq	r0, r0, r4, lsl r0
 680:	00000638 	andeq	r0, r0, r8, lsr r6
 684:	00009c80 	andeq	r9, r0, r0, lsl #25
 688:	00000024 	andeq	r0, r0, r4, lsr #32
 68c:	84080e46 	strhi	r0, [r8], #-3654	; 0xe46
 690:	00018e02 	andeq	r8, r1, r2, lsl #28
 694:	00000014 	andeq	r0, r0, r4, lsl r0
 698:	00000638 	andeq	r0, r0, r8, lsr r6
 69c:	00009ca4 	andeq	r9, r0, r4, lsr #25
 6a0:	00000024 	andeq	r0, r0, r4, lsr #32
 6a4:	84080e46 	strhi	r0, [r8], #-3654	; 0xe46
 6a8:	00018e02 	andeq	r8, r1, r2, lsl #28
 6ac:	00000014 	andeq	r0, r0, r4, lsl r0
 6b0:	00000638 	andeq	r0, r0, r8, lsr r6
 6b4:	00009cc8 	andeq	r9, r0, r8, asr #25
 6b8:	00000010 	andeq	r0, r0, r0, lsl r0
 6bc:	84080e42 	strhi	r0, [r8], #-3650	; 0xe42
 6c0:	00018e02 	andeq	r8, r1, r2, lsl #28
 6c4:	00000014 	andeq	r0, r0, r4, lsl r0
 6c8:	00000638 	andeq	r0, r0, r8, lsr r6
 6cc:	00009cd8 	ldrdeq	r9, [r0], -r8
 6d0:	0000001c 	andeq	r0, r0, ip, lsl r0
 6d4:	84080e42 	strhi	r0, [r8], #-3650	; 0xe42
 6d8:	00018e02 	andeq	r8, r1, r2, lsl #28
 6dc:	00000018 	andeq	r0, r0, r8, lsl r0
 6e0:	00000638 	andeq	r0, r0, r8, lsr r6
 6e4:	00009cf4 	strdeq	r9, [r0], -r4
 6e8:	00000034 	andeq	r0, r0, r4, lsr r0
 6ec:	84080e46 	strhi	r0, [r8], #-3654	; 0xe46
 6f0:	4e018e02 	cdpmi	14, 0, cr8, cr1, cr2, {0}
 6f4:	cec4000e 	cdpgt	0, 12, cr0, cr4, cr14, {0}
