
tests/16-part2-test4.elf:     file format elf32-littlearm


Disassembly of section .text:

00008000 <__code_start__>:
    8000:	e3a00013 	mov	r0, #19
    8004:	e129f000 	msr	CPSR_fc, r0
    8008:	e3a00000 	mov	r0, #0
    800c:	ee073f95 	mcr	15, 0, r3, cr7, cr5, {4}
    8010:	e3a0d302 	mov	sp, #134217728	; 0x8000000
    8014:	e3a0b000 	mov	fp, #0
    8018:	eb0004f2 	bl	93e8 <_cstart>
    801c:	eb00055a 	bl	958c <rpi_reboot>

00008020 <cnt_A>:
    8020:	e59f300c 	ldr	r3, [pc, #12]	; 8034 <cnt_A+0x14>
    8024:	e5932000 	ldr	r2, [r3]
    8028:	e2822001 	add	r2, r2, #1
    802c:	e5832000 	str	r2, [r3]
    8030:	e12fff1e 	bx	lr
    8034:	0000a138 	andeq	sl, r0, r8, lsr r1

00008038 <cnt_B>:
    8038:	e59f300c 	ldr	r3, [pc, #12]	; 804c <cnt_B+0x14>
    803c:	e5932000 	ldr	r2, [r3]
    8040:	e2822001 	add	r2, r2, #1
    8044:	e5832000 	str	r2, [r3]
    8048:	e12fff1e 	bx	lr
    804c:	0000a138 	andeq	sl, r0, r8, lsr r1

00008050 <cnt_init>:
    8050:	e3a02000 	mov	r2, #0
    8054:	e59f3004 	ldr	r3, [pc, #4]	; 8060 <cnt_init+0x10>
    8058:	e5832000 	str	r2, [r3]
    805c:	e12fff1e 	bx	lr
    8060:	0000a138 	andeq	sl, r0, r8, lsr r1

00008064 <cnt_check>:
    8064:	e59f3010 	ldr	r3, [pc, #16]	; 807c <cnt_check+0x18>
    8068:	e5930000 	ldr	r0, [r3]
    806c:	e3500002 	cmp	r0, #2
    8070:	13a00000 	movne	r0, #0
    8074:	03a00001 	moveq	r0, #1
    8078:	e12fff1e 	bx	lr
    807c:	0000a138 	andeq	sl, r0, r8, lsr r1

00008080 <cnt_mk_checker>:
    8080:	e1a03000 	mov	r3, r0
    8084:	e3a02000 	mov	r2, #0
    8088:	e4832004 	str	r2, [r3], #4
    808c:	e2833008 	add	r3, r3, #8
    8090:	e4832004 	str	r2, [r3], #4
    8094:	e4832004 	str	r2, [r3], #4
    8098:	e4832004 	str	r2, [r3], #4
    809c:	e4832004 	str	r2, [r3], #4
    80a0:	e4832004 	str	r2, [r3], #4
    80a4:	e4832004 	str	r2, [r3], #4
    80a8:	e4832004 	str	r2, [r3], #4
    80ac:	e4832004 	str	r2, [r3], #4
    80b0:	e4832004 	str	r2, [r3], #4
    80b4:	e5832000 	str	r2, [r3]
    80b8:	e59f301c 	ldr	r3, [pc, #28]	; 80dc <cnt_mk_checker+0x5c>
    80bc:	e5803004 	str	r3, [r0, #4]
    80c0:	e59f3018 	ldr	r3, [pc, #24]	; 80e0 <cnt_mk_checker+0x60>
    80c4:	e5803008 	str	r3, [r0, #8]
    80c8:	e59f3014 	ldr	r3, [pc, #20]	; 80e4 <cnt_mk_checker+0x64>
    80cc:	e580300c 	str	r3, [r0, #12]
    80d0:	e59f3010 	ldr	r3, [pc, #16]	; 80e8 <cnt_mk_checker+0x68>
    80d4:	e5803010 	str	r3, [r0, #16]
    80d8:	e12fff1e 	bx	lr
    80dc:	00008020 	andeq	r8, r0, r0, lsr #32
    80e0:	00008038 	andeq	r8, r0, r8, lsr r0
    80e4:	00008050 	andeq	r8, r0, r0, asr r0
    80e8:	00008064 	andeq	r8, r0, r4, rrx

000080ec <notmain>:
    80ec:	e52de004 	push	{lr}		; (str lr, [sp, #-4]!)
    80f0:	e24dd03c 	sub	sp, sp, #60	; 0x3c
    80f4:	eb0004a8 	bl	939c <enable_cache>
    80f8:	e28d0004 	add	r0, sp, #4
    80fc:	ebffffdf 	bl	8080 <cnt_mk_checker>
    8100:	e28d0004 	add	r0, sp, #4
    8104:	eb000301 	bl	8d10 <check>
    8108:	e3500000 	cmp	r0, #0
    810c:	0a000006 	beq	812c <notmain+0x40>
    8110:	eb00032c 	bl	8dc8 <rpi_reset_putc>
    8114:	e59f002c 	ldr	r0, [pc, #44]	; 8148 <notmain+0x5c>
    8118:	e59f102c 	ldr	r1, [pc, #44]	; 814c <notmain+0x60>
    811c:	e59f202c 	ldr	r2, [pc, #44]	; 8150 <notmain+0x64>
    8120:	e3a0301d 	mov	r3, #29
    8124:	eb00030c 	bl	8d5c <printk>
    8128:	eb0004a3 	bl	93bc <clean_reboot>
    812c:	e59f0020 	ldr	r0, [pc, #32]	; 8154 <notmain+0x68>
    8130:	eb000309 	bl	8d5c <printk>
    8134:	e59f001c 	ldr	r0, [pc, #28]	; 8158 <notmain+0x6c>
    8138:	e59d102c 	ldr	r1, [sp, #44]	; 0x2c
    813c:	e59d2030 	ldr	r2, [sp, #48]	; 0x30
    8140:	eb000305 	bl	8d5c <printk>
    8144:	eb00049c 	bl	93bc <clean_reboot>
    8148:	00009970 	andeq	r9, r0, r0, ror r9
    814c:	0000999c 	muleq	r0, ip, r9
    8150:	00009a2c 	andeq	r9, r0, ip, lsr #20
    8154:	000099b4 			; <UNDEFINED> instruction: 0x000099b4
    8158:	000099c0 	andeq	r9, r0, r0, asr #19

0000815c <watchpt_set0>:
    815c:	e52de004 	push	{lr}		; (str lr, [sp, #-4]!)
    8160:	e24dd00c 	sub	sp, sp, #12
    8164:	ee103ef0 	mrc	14, 0, r3, cr0, cr0, {7}
    8168:	e3c33001 	bic	r3, r3, #1
    816c:	ee003ef0 	mcr	14, 0, r3, cr0, cr0, {7}
    8170:	ee102ef0 	mrc	14, 0, r2, cr0, cr0, {7}
    8174:	e1530002 	cmp	r3, r2
    8178:	0a000008 	beq	81a0 <watchpt_set0+0x44>
    817c:	eb000311 	bl	8dc8 <rpi_reset_putc>
    8180:	e59f306c 	ldr	r3, [pc, #108]	; 81f4 <watchpt_set0+0x98>
    8184:	e58d3000 	str	r3, [sp]
    8188:	e59f0068 	ldr	r0, [pc, #104]	; 81f8 <watchpt_set0+0x9c>
    818c:	e59f1068 	ldr	r1, [pc, #104]	; 81fc <watchpt_set0+0xa0>
    8190:	e59f2068 	ldr	r2, [pc, #104]	; 8200 <watchpt_set0+0xa4>
    8194:	e3a03041 	mov	r3, #65	; 0x41
    8198:	eb0002ef 	bl	8d5c <printk>
    819c:	eb000486 	bl	93bc <clean_reboot>
    81a0:	ee000ed0 	mcr	14, 0, r0, cr0, cr0, {6}
    81a4:	e59f3058 	ldr	r3, [pc, #88]	; 8204 <watchpt_set0+0xa8>
    81a8:	ee003ef0 	mcr	14, 0, r3, cr0, cr0, {7}
    81ac:	ee102ef0 	mrc	14, 0, r2, cr0, cr0, {7}
    81b0:	e1520003 	cmp	r2, r3
    81b4:	0a000008 	beq	81dc <watchpt_set0+0x80>
    81b8:	eb000302 	bl	8dc8 <rpi_reset_putc>
    81bc:	e59f3030 	ldr	r3, [pc, #48]	; 81f4 <watchpt_set0+0x98>
    81c0:	e58d3000 	str	r3, [sp]
    81c4:	e59f002c 	ldr	r0, [pc, #44]	; 81f8 <watchpt_set0+0x9c>
    81c8:	e59f102c 	ldr	r1, [pc, #44]	; 81fc <watchpt_set0+0xa0>
    81cc:	e59f202c 	ldr	r2, [pc, #44]	; 8200 <watchpt_set0+0xa4>
    81d0:	e3a03052 	mov	r3, #82	; 0x52
    81d4:	eb0002e0 	bl	8d5c <printk>
    81d8:	eb000477 	bl	93bc <clean_reboot>
    81dc:	e3a03000 	mov	r3, #0
    81e0:	ee073f95 	mcr	15, 0, r3, cr7, cr5, {4}
    81e4:	e59f301c 	ldr	r3, [pc, #28]	; 8208 <watchpt_set0+0xac>
    81e8:	e5831000 	str	r1, [r3]
    81ec:	e28dd00c 	add	sp, sp, #12
    81f0:	e49df004 	pop	{pc}		; (ldr pc, [sp], #4)
    81f4:	00009a58 	andeq	r9, r0, r8, asr sl
    81f8:	00009a34 	andeq	r9, r0, r4, lsr sl
    81fc:	00009a48 	andeq	r9, r0, r8, asr #20
    8200:	00009b70 	andeq	r9, r0, r0, ror fp
    8204:	000001ff 	strdeq	r0, [r0], -pc	; <UNPREDICTABLE>
    8208:	0000a13c 	andeq	sl, r0, ip, lsr r1

0000820c <data_abort_vector>:
    820c:	e52de004 	push	{lr}		; (str lr, [sp, #-4]!)
    8210:	e24dd00c 	sub	sp, sp, #12
    8214:	e1a01000 	mov	r1, r0
    8218:	ee153f10 	mrc	15, 0, r3, cr5, cr0, {0}
    821c:	ee153f10 	mrc	15, 0, r3, cr5, cr0, {0}
    8220:	e203300f 	and	r3, r3, #15
    8224:	e3530002 	cmp	r3, #2
    8228:	0a000006 	beq	8248 <data_abort_vector+0x3c>
    822c:	eb0002e5 	bl	8dc8 <rpi_reset_putc>
    8230:	e59f008c 	ldr	r0, [pc, #140]	; 82c4 <data_abort_vector+0xb8>
    8234:	e59f108c 	ldr	r1, [pc, #140]	; 82c8 <data_abort_vector+0xbc>
    8238:	e59f208c 	ldr	r2, [pc, #140]	; 82cc <data_abort_vector+0xc0>
    823c:	e3a03079 	mov	r3, #121	; 0x79
    8240:	eb0002c5 	bl	8d5c <printk>
    8244:	eb00045c 	bl	93bc <clean_reboot>
    8248:	ee103e16 	mrc	14, 0, r3, cr0, cr6, {0}
    824c:	e2433004 	sub	r3, r3, #4
    8250:	e1530000 	cmp	r3, r0
    8254:	0a000008 	beq	827c <data_abort_vector+0x70>
    8258:	eb0002da 	bl	8dc8 <rpi_reset_putc>
    825c:	e59f306c 	ldr	r3, [pc, #108]	; 82d0 <data_abort_vector+0xc4>
    8260:	e58d3000 	str	r3, [sp]
    8264:	e59f0068 	ldr	r0, [pc, #104]	; 82d4 <data_abort_vector+0xc8>
    8268:	e59f1068 	ldr	r1, [pc, #104]	; 82d8 <data_abort_vector+0xcc>
    826c:	e59f2068 	ldr	r2, [pc, #104]	; 82dc <data_abort_vector+0xd0>
    8270:	e3a03067 	mov	r3, #103	; 0x67
    8274:	eb0002b8 	bl	8d5c <printk>
    8278:	eb00044f 	bl	93bc <clean_reboot>
    827c:	e59f305c 	ldr	r3, [pc, #92]	; 82e0 <data_abort_vector+0xd4>
    8280:	e5933000 	ldr	r3, [r3]
    8284:	e3530000 	cmp	r3, #0
    8288:	1a000008 	bne	82b0 <data_abort_vector+0xa4>
    828c:	eb0002cd 	bl	8dc8 <rpi_reset_putc>
    8290:	e59f304c 	ldr	r3, [pc, #76]	; 82e4 <data_abort_vector+0xd8>
    8294:	e58d3000 	str	r3, [sp]
    8298:	e59f0034 	ldr	r0, [pc, #52]	; 82d4 <data_abort_vector+0xc8>
    829c:	e59f1034 	ldr	r1, [pc, #52]	; 82d8 <data_abort_vector+0xcc>
    82a0:	e59f2034 	ldr	r2, [pc, #52]	; 82dc <data_abort_vector+0xd0>
    82a4:	e3a03069 	mov	r3, #105	; 0x69
    82a8:	eb0002ab 	bl	8d5c <printk>
    82ac:	eb000442 	bl	93bc <clean_reboot>
    82b0:	ee162f10 	mrc	15, 0, r2, cr6, cr0, {0}
    82b4:	e3a00000 	mov	r0, #0
    82b8:	e12fff33 	blx	r3
    82bc:	e28dd00c 	add	sp, sp, #12
    82c0:	e49df004 	pop	{pc}		; (ldr pc, [sp], #4)
    82c4:	00009a70 	andeq	r9, r0, r0, ror sl
    82c8:	00009aa8 	andeq	r9, r0, r8, lsr #21
    82cc:	00009b94 	muleq	r0, r4, fp
    82d0:	00009ab8 			; <UNDEFINED> instruction: 0x00009ab8
    82d4:	00009a34 	andeq	r9, r0, r4, lsr sl
    82d8:	00009a48 	andeq	r9, r0, r8, asr #20
    82dc:	00009b80 	andeq	r9, r0, r0, lsl #23
    82e0:	0000a13c 	andeq	sl, r0, ip, lsr r1
    82e4:	00009acc 	andeq	r9, r0, ip, asr #21

000082e8 <cp14_enable>:
    82e8:	e92d4008 	push	{r3, lr}
    82ec:	e59f302c 	ldr	r3, [pc, #44]	; 8320 <cp14_enable+0x38>
    82f0:	e5933000 	ldr	r3, [r3]
    82f4:	e3530000 	cmp	r3, #0
    82f8:	1a000003 	bne	830c <cp14_enable+0x24>
    82fc:	eb00047c 	bl	94f4 <int_init>
    8300:	e3a02001 	mov	r2, #1
    8304:	e59f3014 	ldr	r3, [pc, #20]	; 8320 <cp14_enable+0x38>
    8308:	e5832000 	str	r2, [r3]
    830c:	e3a03902 	mov	r3, #32768	; 0x8000
    8310:	ee003e11 	mcr	14, 0, r3, cr0, cr1, {0}
    8314:	e3a03000 	mov	r3, #0
    8318:	ee073f95 	mcr	15, 0, r3, cr7, cr5, {4}
    831c:	e8bd8008 	pop	{r3, pc}
    8320:	0000a14c 	andeq	sl, r0, ip, asr #2

00008324 <brkpt_set0>:
    8324:	ee103eb0 	mrc	14, 0, r3, cr0, cr0, {5}
    8328:	e3c33001 	bic	r3, r3, #1
    832c:	ee003eb0 	mcr	14, 0, r3, cr0, cr0, {5}
    8330:	ee000e90 	mcr	14, 0, r0, cr0, cr0, {4}
    8334:	e59f3014 	ldr	r3, [pc, #20]	; 8350 <brkpt_set0+0x2c>
    8338:	ee003eb0 	mcr	14, 0, r3, cr0, cr0, {5}
    833c:	e3a03000 	mov	r3, #0
    8340:	ee073f95 	mcr	15, 0, r3, cr7, cr5, {4}
    8344:	e59f3008 	ldr	r3, [pc, #8]	; 8354 <brkpt_set0+0x30>
    8348:	e5831000 	str	r1, [r3]
    834c:	e12fff1e 	bx	lr
    8350:	000001e7 	andeq	r0, r0, r7, ror #3
    8354:	0000a140 	andeq	sl, r0, r0, asr #2

00008358 <prefetch_abort_vector>:
    8358:	e52de004 	push	{lr}		; (str lr, [sp, #-4]!)
    835c:	e24dd00c 	sub	sp, sp, #12
    8360:	e1a01000 	mov	r1, r0
    8364:	ee153f30 	mrc	15, 0, r3, cr5, cr0, {1}
    8368:	e203300f 	and	r3, r3, #15
    836c:	e3530002 	cmp	r3, #2
    8370:	0a000006 	beq	8390 <prefetch_abort_vector+0x38>
    8374:	eb000293 	bl	8dc8 <rpi_reset_putc>
    8378:	e59f0058 	ldr	r0, [pc, #88]	; 83d8 <prefetch_abort_vector+0x80>
    837c:	e59f1058 	ldr	r1, [pc, #88]	; 83dc <prefetch_abort_vector+0x84>
    8380:	e59f2058 	ldr	r2, [pc, #88]	; 83e0 <prefetch_abort_vector+0x88>
    8384:	e3a030c7 	mov	r3, #199	; 0xc7
    8388:	eb000273 	bl	8d5c <printk>
    838c:	eb00040a 	bl	93bc <clean_reboot>
    8390:	e59f304c 	ldr	r3, [pc, #76]	; 83e4 <prefetch_abort_vector+0x8c>
    8394:	e5933000 	ldr	r3, [r3]
    8398:	e3530000 	cmp	r3, #0
    839c:	1a000008 	bne	83c4 <prefetch_abort_vector+0x6c>
    83a0:	eb000288 	bl	8dc8 <rpi_reset_putc>
    83a4:	e59f303c 	ldr	r3, [pc, #60]	; 83e8 <prefetch_abort_vector+0x90>
    83a8:	e58d3000 	str	r3, [sp]
    83ac:	e59f0038 	ldr	r0, [pc, #56]	; 83ec <prefetch_abort_vector+0x94>
    83b0:	e59f1024 	ldr	r1, [pc, #36]	; 83dc <prefetch_abort_vector+0x84>
    83b4:	e59f2024 	ldr	r2, [pc, #36]	; 83e0 <prefetch_abort_vector+0x88>
    83b8:	e3a030c8 	mov	r3, #200	; 0xc8
    83bc:	eb000266 	bl	8d5c <printk>
    83c0:	eb0003fd 	bl	93bc <clean_reboot>
    83c4:	ee162f10 	mrc	15, 0, r2, cr6, cr0, {0}
    83c8:	e3a00000 	mov	r0, #0
    83cc:	e12fff33 	blx	r3
    83d0:	e28dd00c 	add	sp, sp, #12
    83d4:	e49df004 	pop	{pc}		; (ldr pc, [sp], #4)
    83d8:	00009ae0 	andeq	r9, r0, r0, ror #21
    83dc:	00009a48 	andeq	r9, r0, r8, asr #20
    83e0:	00009ba8 	andeq	r9, r0, r8, lsr #23
    83e4:	0000a140 	andeq	sl, r0, r0, asr #2
    83e8:	00009b18 	andeq	r9, r0, r8, lsl fp
    83ec:	00009a34 	andeq	r9, r0, r4, lsr sl

000083f0 <interrupt_vector>:
    83f0:	e12fff1e 	bx	lr

000083f4 <brk_no_ret_error>:
    83f4:	e92d4008 	push	{r3, lr}
    83f8:	eb000272 	bl	8dc8 <rpi_reset_putc>
    83fc:	e59f0010 	ldr	r0, [pc, #16]	; 8414 <brk_no_ret_error+0x20>
    8400:	e59f1010 	ldr	r1, [pc, #16]	; 8418 <brk_no_ret_error+0x24>
    8404:	e59f2010 	ldr	r2, [pc, #16]	; 841c <brk_no_ret_error+0x28>
    8408:	e3a030d9 	mov	r3, #217	; 0xd9
    840c:	eb000252 	bl	8d5c <printk>
    8410:	eb0003e9 	bl	93bc <clean_reboot>
    8414:	00009b28 	andeq	r9, r0, r8, lsr #22
    8418:	00009a48 	andeq	r9, r0, r8, asr #20
    841c:	00009bc0 	andeq	r9, r0, r0, asr #23

00008420 <brkpt_mismatch_set0>:
    8420:	ee103eb0 	mrc	14, 0, r3, cr0, cr0, {5}
    8424:	e3c33001 	bic	r3, r3, #1
    8428:	ee003eb0 	mcr	14, 0, r3, cr0, cr0, {5}
    842c:	ee000e90 	mcr	14, 0, r0, cr0, cr0, {4}
    8430:	e59f3014 	ldr	r3, [pc, #20]	; 844c <brkpt_mismatch_set0+0x2c>
    8434:	ee003eb0 	mcr	14, 0, r3, cr0, cr0, {5}
    8438:	e3a03000 	mov	r3, #0
    843c:	ee073f95 	mcr	15, 0, r3, cr7, cr5, {4}
    8440:	e59f3008 	ldr	r3, [pc, #8]	; 8450 <brkpt_mismatch_set0+0x30>
    8444:	e5831000 	str	r1, [r3]
    8448:	e12fff1e 	bx	lr
    844c:	004001e7 	subeq	r0, r0, r7, ror #3
    8450:	0000a140 	andeq	sl, r0, r0, asr #2

00008454 <brkpt_mismatch_disable0>:
    8454:	e59f3004 	ldr	r3, [pc, #4]	; 8460 <brkpt_mismatch_disable0+0xc>
    8458:	ee003eb0 	mcr	14, 0, r3, cr0, cr0, {5}
    845c:	e12fff1e 	bx	lr
    8460:	004001e6 	subeq	r0, r0, r6, ror #3

00008464 <syscall_vector>:
    8464:	e92d4008 	push	{r3, lr}
    8468:	e5903000 	ldr	r3, [r0]
    846c:	e3c334ff 	bic	r3, r3, #-16777216	; 0xff000000
    8470:	e3530001 	cmp	r3, #1
    8474:	1a000002 	bne	8484 <syscall_vector+0x20>
    8478:	e169f001 	msr	SPSR_fc, r1
    847c:	e3a00000 	mov	r0, #0
    8480:	e8bd8008 	pop	{r3, pc}
    8484:	e3530002 	cmp	r3, #2
    8488:	1a000005 	bne	84a4 <syscall_vector+0x40>
    848c:	e5913000 	ldr	r3, [r1]
    8490:	e3530000 	cmp	r3, #0
    8494:	1a000007 	bne	84b8 <syscall_vector+0x54>
    8498:	e3a00001 	mov	r0, #1
    849c:	e5810000 	str	r0, [r1]
    84a0:	e8bd8008 	pop	{r3, pc}
    84a4:	e59f0014 	ldr	r0, [pc, #20]	; 84c0 <syscall_vector+0x5c>
    84a8:	e1a01003 	mov	r1, r3
    84ac:	eb00022a 	bl	8d5c <printk>
    84b0:	e3a00000 	mov	r0, #0
    84b4:	e8bd8008 	pop	{r3, pc}
    84b8:	e3a00000 	mov	r0, #0
    84bc:	e8bd8008 	pop	{r3, pc}
    84c0:	00009b58 	andeq	r9, r0, r8, asr fp

000084c4 <_interrupt_table>:
    84c4:	e59ff020 	ldr	pc, [pc, #32]	; 84ec <_reset_asm>
    84c8:	e59ff020 	ldr	pc, [pc, #32]	; 84f0 <_undefined_instruction_asm>
    84cc:	e59ff020 	ldr	pc, [pc, #32]	; 84f4 <_software_interrupt_asm>
    84d0:	e59ff020 	ldr	pc, [pc, #32]	; 84f8 <_prefetch_abort_asm>
    84d4:	e59ff020 	ldr	pc, [pc, #32]	; 84fc <_data_abort_asm>
    84d8:	e59ff00c 	ldr	pc, [pc, #12]	; 84ec <_reset_asm>
    84dc:	e59ff01c 	ldr	pc, [pc, #28]	; 8500 <_interrupt_asm>

000084e0 <fast_interrupt_asm>:
    84e0:	e3a0d409 	mov	sp, #150994944	; 0x9000000
    84e4:	e24ee004 	sub	lr, lr, #4
    84e8:	eb0003cc 	bl	9420 <fast_interrupt_vector>

000084ec <_reset_asm>:
    84ec:	0000851c 	andeq	r8, r0, ip, lsl r5

000084f0 <_undefined_instruction_asm>:
    84f0:	00008560 	andeq	r8, r0, r0, ror #10

000084f4 <_software_interrupt_asm>:
    84f4:	0000856c 	andeq	r8, r0, ip, ror #10

000084f8 <_prefetch_abort_asm>:
    84f8:	00008544 	andeq	r8, r0, r4, asr #10

000084fc <_data_abort_asm>:
    84fc:	00008528 	andeq	r8, r0, r8, lsr #10

00008500 <_interrupt_asm>:
    8500:	00008504 	andeq	r8, r0, r4, lsl #10

00008504 <_interrupt_table_end>:
    8504:	e3a0d409 	mov	sp, #150994944	; 0x9000000
    8508:	e24ee004 	sub	lr, lr, #4
    850c:	e92d5fff 	push	{r0, r1, r2, r3, r4, r5, r6, r7, r8, r9, sl, fp, ip, lr}
    8510:	e1a0000e 	mov	r0, lr
    8514:	e8bd5fff 	pop	{r0, r1, r2, r3, r4, r5, r6, r7, r8, r9, sl, fp, ip, lr}
    8518:	e1b0f00e 	movs	pc, lr

0000851c <reset_asm>:
    851c:	e3a0d409 	mov	sp, #150994944	; 0x9000000
    8520:	e24ee004 	sub	lr, lr, #4
    8524:	eb0003ce 	bl	9464 <reset_vector>

00008528 <data_abort_asm>:
    8528:	e24ee008 	sub	lr, lr, #8
    852c:	e3a0d409 	mov	sp, #150994944	; 0x9000000
    8530:	e92d5fff 	push	{r0, r1, r2, r3, r4, r5, r6, r7, r8, r9, sl, fp, ip, lr}
    8534:	e1a0000e 	mov	r0, lr
    8538:	ebffff33 	bl	820c <data_abort_vector>
    853c:	e8bd5fff 	pop	{r0, r1, r2, r3, r4, r5, r6, r7, r8, r9, sl, fp, ip, lr}
    8540:	e1b0f00e 	movs	pc, lr

00008544 <prefetch_abort_asm>:
    8544:	e24ee004 	sub	lr, lr, #4
    8548:	e3a0d409 	mov	sp, #150994944	; 0x9000000
    854c:	e92d5fff 	push	{r0, r1, r2, r3, r4, r5, r6, r7, r8, r9, sl, fp, ip, lr}
    8550:	e1a0000e 	mov	r0, lr
    8554:	ebffff7f 	bl	8358 <prefetch_abort_vector>
    8558:	e8bd5fff 	pop	{r0, r1, r2, r3, r4, r5, r6, r7, r8, r9, sl, fp, ip, lr}
    855c:	e1b0f00e 	movs	pc, lr

00008560 <undefined_instruction_asm>:
    8560:	e3a0d409 	mov	sp, #150994944	; 0x9000000
    8564:	e24ee004 	sub	lr, lr, #4
    8568:	eb0003ce 	bl	94a8 <undefined_instruction_vector>

0000856c <software_interrupt_asm>:
    856c:	e92d5ff0 	push	{r4, r5, r6, r7, r8, r9, sl, fp, ip, lr}
    8570:	e24ee004 	sub	lr, lr, #4
    8574:	e1a01000 	mov	r1, r0
    8578:	e1a0000e 	mov	r0, lr
    857c:	ebffffb8 	bl	8464 <syscall_vector>
    8580:	e8bd5ff0 	pop	{r4, r5, r6, r7, r8, r9, sl, fp, ip, lr}
    8584:	e1b0f00e 	movs	pc, lr

00008588 <user_trampoline_no_ret>:
    8588:	e1a0200d 	mov	r2, sp
    858c:	e129f000 	msr	CPSR_fc, r0
    8590:	e10f5000 	mrs	r5, CPSR
    8594:	ee070f95 	mcr	15, 0, r0, cr7, cr5, {4}
    8598:	e1a0d002 	mov	sp, r2
    859c:	e92d5ff0 	push	{r4, r5, r6, r7, r8, r9, sl, fp, ip, lr}
    85a0:	e12fff31 	blx	r1
    85a4:	e8bd5ff0 	pop	{r4, r5, r6, r7, r8, r9, sl, fp, ip, lr}
    85a8:	eb000383 	bl	93bc <clean_reboot>
    85ac:	ebffff90 	bl	83f4 <brk_no_ret_error>

000085b0 <user_trampoline_ret>:
    85b0:	e92d5ff0 	push	{r4, r5, r6, r7, r8, r9, sl, fp, ip, lr}
    85b4:	e10f4000 	mrs	r4, CPSR
    85b8:	e1a0500d 	mov	r5, sp
    85bc:	e129f000 	msr	CPSR_fc, r0
    85c0:	e1a0d005 	mov	sp, r5
    85c4:	e1a00002 	mov	r0, r2
    85c8:	e12fff31 	blx	r1
    85cc:	e1a00004 	mov	r0, r4
    85d0:	ef000001 	svc	0x00000001
    85d4:	e8bd5ff0 	pop	{r4, r5, r6, r7, r8, r9, sl, fp, ip, lr}
    85d8:	e12fff1e 	bx	lr

000085dc <sys_try_lock_asm>:
    85dc:	e92d5ff0 	push	{r4, r5, r6, r7, r8, r9, sl, fp, ip, lr}
    85e0:	ef000002 	svc	0x00000002
    85e4:	e8bd5ff0 	pop	{r4, r5, r6, r7, r8, r9, sl, fp, ip, lr}
    85e8:	e12fff1e 	bx	lr

000085ec <single_step_handler>:
    85ec:	e92d4030 	push	{r4, r5, lr}
    85f0:	e24dd00c 	sub	sp, sp, #12
    85f4:	e1a05001 	mov	r5, r1
    85f8:	e59f3150 	ldr	r3, [pc, #336]	; 8750 <single_step_handler+0x164>
    85fc:	e5933000 	ldr	r3, [r3]
    8600:	e3530000 	cmp	r3, #0
    8604:	0a000005 	beq	8620 <single_step_handler+0x34>
    8608:	e58d1000 	str	r1, [sp]
    860c:	e59f0140 	ldr	r0, [pc, #320]	; 8754 <single_step_handler+0x168>
    8610:	e59f1140 	ldr	r1, [pc, #320]	; 8758 <single_step_handler+0x16c>
    8614:	e59f2140 	ldr	r2, [pc, #320]	; 875c <single_step_handler+0x170>
    8618:	e3a0300c 	mov	r3, #12
    861c:	eb0001ce 	bl	8d5c <printk>
    8620:	ee153f30 	mrc	15, 0, r3, cr5, cr0, {1}
    8624:	e203300f 	and	r3, r3, #15
    8628:	e3530002 	cmp	r3, #2
    862c:	0a000006 	beq	864c <single_step_handler+0x60>
    8630:	eb0001e4 	bl	8dc8 <rpi_reset_putc>
    8634:	e59f0124 	ldr	r0, [pc, #292]	; 8760 <single_step_handler+0x174>
    8638:	e59f1118 	ldr	r1, [pc, #280]	; 8758 <single_step_handler+0x16c>
    863c:	e59f2118 	ldr	r2, [pc, #280]	; 875c <single_step_handler+0x170>
    8640:	e3a0300e 	mov	r3, #14
    8644:	eb0001c4 	bl	8d5c <printk>
    8648:	eb00035b 	bl	93bc <clean_reboot>
    864c:	e59f3110 	ldr	r3, [pc, #272]	; 8764 <single_step_handler+0x178>
    8650:	e5934000 	ldr	r4, [r3]
    8654:	e594201c 	ldr	r2, [r4, #28]
    8658:	e5943018 	ldr	r3, [r4, #24]
    865c:	e1520003 	cmp	r2, r3
    8660:	1a000011 	bne	86ac <single_step_handler+0xc0>
    8664:	e59f00fc 	ldr	r0, [pc, #252]	; 8768 <single_step_handler+0x17c>
    8668:	e1a01005 	mov	r1, r5
    866c:	e5942008 	ldr	r2, [r4, #8]
    8670:	eb0001b9 	bl	8d5c <printk>
    8674:	e1a00005 	mov	r0, r5
    8678:	ebffff75 	bl	8454 <brkpt_mismatch_disable0>
    867c:	e5845020 	str	r5, [r4, #32]
    8680:	e3a03001 	mov	r3, #1
    8684:	e5843024 	str	r3, [r4, #36]	; 0x24
    8688:	e5943014 	ldr	r3, [r4, #20]
    868c:	e2833001 	add	r3, r3, #1
    8690:	e5843014 	str	r3, [r4, #20]
    8694:	e5943008 	ldr	r3, [r4, #8]
    8698:	e1a00004 	mov	r0, r4
    869c:	e12fff33 	blx	r3
    86a0:	e59f00c4 	ldr	r0, [pc, #196]	; 876c <single_step_handler+0x180>
    86a4:	eb0001ac 	bl	8d5c <printk>
    86a8:	ea000026 	b	8748 <single_step_handler+0x15c>
    86ac:	e594201c 	ldr	r2, [r4, #28]
    86b0:	e5943018 	ldr	r3, [r4, #24]
    86b4:	e1520003 	cmp	r2, r3
    86b8:	3a000008 	bcc	86e0 <single_step_handler+0xf4>
    86bc:	eb0001c1 	bl	8dc8 <rpi_reset_putc>
    86c0:	e59f30a8 	ldr	r3, [pc, #168]	; 8770 <single_step_handler+0x184>
    86c4:	e58d3000 	str	r3, [sp]
    86c8:	e59f00a4 	ldr	r0, [pc, #164]	; 8774 <single_step_handler+0x188>
    86cc:	e59f1084 	ldr	r1, [pc, #132]	; 8758 <single_step_handler+0x16c>
    86d0:	e59f2084 	ldr	r2, [pc, #132]	; 875c <single_step_handler+0x170>
    86d4:	e3a03021 	mov	r3, #33	; 0x21
    86d8:	eb00019f 	bl	8d5c <printk>
    86dc:	eb000336 	bl	93bc <clean_reboot>
    86e0:	e594301c 	ldr	r3, [r4, #28]
    86e4:	e2833001 	add	r3, r3, #1
    86e8:	e584301c 	str	r3, [r4, #28]
    86ec:	e59f305c 	ldr	r3, [pc, #92]	; 8750 <single_step_handler+0x164>
    86f0:	e5933000 	ldr	r3, [r3]
    86f4:	e3530000 	cmp	r3, #0
    86f8:	0a000005 	beq	8714 <single_step_handler+0x128>
    86fc:	e58d5000 	str	r5, [sp]
    8700:	e59f0070 	ldr	r0, [pc, #112]	; 8778 <single_step_handler+0x18c>
    8704:	e59f104c 	ldr	r1, [pc, #76]	; 8758 <single_step_handler+0x16c>
    8708:	e59f204c 	ldr	r2, [pc, #76]	; 875c <single_step_handler+0x170>
    870c:	e3a03024 	mov	r3, #36	; 0x24
    8710:	eb000191 	bl	8d5c <printk>
    8714:	e1a00005 	mov	r0, r5
    8718:	e59f105c 	ldr	r1, [pc, #92]	; 877c <single_step_handler+0x190>
    871c:	ebffff3f 	bl	8420 <brkpt_mismatch_set0>
    8720:	e59f3028 	ldr	r3, [pc, #40]	; 8750 <single_step_handler+0x164>
    8724:	e5933000 	ldr	r3, [r3]
    8728:	e3530000 	cmp	r3, #0
    872c:	0a000005 	beq	8748 <single_step_handler+0x15c>
    8730:	e58d5000 	str	r5, [sp]
    8734:	e59f0044 	ldr	r0, [pc, #68]	; 8780 <single_step_handler+0x194>
    8738:	e59f1018 	ldr	r1, [pc, #24]	; 8758 <single_step_handler+0x16c>
    873c:	e59f2018 	ldr	r2, [pc, #24]	; 875c <single_step_handler+0x170>
    8740:	e3a03026 	mov	r3, #38	; 0x26
    8744:	eb000184 	bl	8d5c <printk>
    8748:	e28dd00c 	add	sp, sp, #12
    874c:	e8bd8030 	pop	{r4, r5, pc}
    8750:	0000a144 	andeq	sl, r0, r4, asr #2
    8754:	00009bd4 	ldrdeq	r9, [r0], -r4
    8758:	00009bf4 	strdeq	r9, [r0], -r4
    875c:	00009ed8 	ldrdeq	r9, [r0], -r8
    8760:	00009ae0 	andeq	r9, r0, r0, ror #21
    8764:	0000a150 	andeq	sl, r0, r0, asr r1
    8768:	00009c08 	andeq	r9, r0, r8, lsl #24
    876c:	00009c28 	andeq	r9, r0, r8, lsr #24
    8770:	00009c50 	andeq	r9, r0, r0, asr ip
    8774:	00009a34 	andeq	r9, r0, r4, lsr sl
    8778:	00009c74 	andeq	r9, r0, r4, ror ip
    877c:	000085ec 	andeq	r8, r0, ip, ror #11
    8780:	00009c9c 	muleq	r0, ip, ip

00008784 <check_one_cswitch>:
    8784:	e92d4ff0 	push	{r4, r5, r6, r7, r8, r9, sl, fp, lr}
    8788:	e24dd00c 	sub	sp, sp, #12
    878c:	e1a04000 	mov	r4, r0
    8790:	e10f8000 	mrs	r8, CPSR
    8794:	e3c8701f 	bic	r7, r8, #31
    8798:	e3877010 	orr	r7, r7, #16
    879c:	e59f3460 	ldr	r3, [pc, #1120]	; 8c04 <check_one_cswitch+0x480>
    87a0:	e5830000 	str	r0, [r3]
    87a4:	e3a03001 	mov	r3, #1
    87a8:	e5803030 	str	r3, [r0, #48]	; 0x30
    87ac:	e59f6454 	ldr	r6, [pc, #1108]	; 8c08 <check_one_cswitch+0x484>
    87b0:	e59fb454 	ldr	fp, [pc, #1108]	; 8c0c <check_one_cswitch+0x488>
    87b4:	e59fa454 	ldr	sl, [pc, #1108]	; 8c10 <check_one_cswitch+0x48c>
    87b8:	e59f9454 	ldr	r9, [pc, #1108]	; 8c14 <check_one_cswitch+0x490>
    87bc:	e59f5454 	ldr	r5, [pc, #1108]	; 8c18 <check_one_cswitch+0x494>
    87c0:	e594300c 	ldr	r3, [r4, #12]
    87c4:	e1a00004 	mov	r0, r4
    87c8:	e12fff33 	blx	r3
    87cc:	e5963000 	ldr	r3, [r6]
    87d0:	e3530000 	cmp	r3, #0
    87d4:	0a000006 	beq	87f4 <check_one_cswitch+0x70>
    87d8:	e5943028 	ldr	r3, [r4, #40]	; 0x28
    87dc:	e58d3000 	str	r3, [sp]
    87e0:	e1a0000b 	mov	r0, fp
    87e4:	e1a0100a 	mov	r1, sl
    87e8:	e1a02009 	mov	r2, r9
    87ec:	e3a03033 	mov	r3, #51	; 0x33
    87f0:	eb000159 	bl	8d5c <printk>
    87f4:	e3a00000 	mov	r0, #0
    87f8:	e1a01005 	mov	r1, r5
    87fc:	ebffff07 	bl	8420 <brkpt_mismatch_set0>
    8800:	e5943018 	ldr	r3, [r4, #24]
    8804:	e2833001 	add	r3, r3, #1
    8808:	e5843018 	str	r3, [r4, #24]
    880c:	e3a03000 	mov	r3, #0
    8810:	e584301c 	str	r3, [r4, #28]
    8814:	e5843024 	str	r3, [r4, #36]	; 0x24
    8818:	e1a00007 	mov	r0, r7
    881c:	e5941004 	ldr	r1, [r4, #4]
    8820:	e1a02004 	mov	r2, r4
    8824:	ebffff61 	bl	85b0 <user_trampoline_ret>
    8828:	e5943024 	ldr	r3, [r4, #36]	; 0x24
    882c:	e3530000 	cmp	r3, #0
    8830:	1a000002 	bne	8840 <check_one_cswitch+0xbc>
    8834:	e5943008 	ldr	r3, [r4, #8]
    8838:	e1a00004 	mov	r0, r4
    883c:	e12fff33 	blx	r3
    8840:	e5943010 	ldr	r3, [r4, #16]
    8844:	e1a00004 	mov	r0, r4
    8848:	e12fff33 	blx	r3
    884c:	e3500000 	cmp	r0, #0
    8850:	1a000006 	bne	8870 <check_one_cswitch+0xec>
    8854:	e5941020 	ldr	r1, [r4, #32]
    8858:	e5942018 	ldr	r2, [r4, #24]
    885c:	e59f03b8 	ldr	r0, [pc, #952]	; 8c1c <check_one_cswitch+0x498>
    8860:	eb00013d 	bl	8d5c <printk>
    8864:	e594302c 	ldr	r3, [r4, #44]	; 0x2c
    8868:	e2833001 	add	r3, r3, #1
    886c:	e584302c 	str	r3, [r4, #44]	; 0x2c
    8870:	e5942028 	ldr	r2, [r4, #40]	; 0x28
    8874:	e2822001 	add	r2, r2, #1
    8878:	e5842028 	str	r2, [r4, #40]	; 0x28
    887c:	e5943024 	ldr	r3, [r4, #36]	; 0x24
    8880:	e3530000 	cmp	r3, #0
    8884:	1affffcd 	bne	87c0 <check_one_cswitch+0x3c>
    8888:	e5941014 	ldr	r1, [r4, #20]
    888c:	e59f038c 	ldr	r0, [pc, #908]	; 8c20 <check_one_cswitch+0x49c>
    8890:	e594302c 	ldr	r3, [r4, #44]	; 0x2c
    8894:	eb000130 	bl	8d5c <printk>
    8898:	e208301f 	and	r3, r8, #31
    889c:	e3530012 	cmp	r3, #18
    88a0:	13530010 	cmpne	r3, #16
    88a4:	0a000006 	beq	88c4 <check_one_cswitch+0x140>
    88a8:	e3530017 	cmp	r3, #23
    88ac:	13530013 	cmpne	r3, #19
    88b0:	0a000005 	beq	88cc <check_one_cswitch+0x148>
    88b4:	e353001f 	cmp	r3, #31
    88b8:	1a000005 	bne	88d4 <check_one_cswitch+0x150>
    88bc:	e3a02001 	mov	r2, #1
    88c0:	ea000004 	b	88d8 <check_one_cswitch+0x154>
    88c4:	e3a02001 	mov	r2, #1
    88c8:	ea000002 	b	88d8 <check_one_cswitch+0x154>
    88cc:	e3a02001 	mov	r2, #1
    88d0:	ea000000 	b	88d8 <check_one_cswitch+0x154>
    88d4:	e3a02000 	mov	r2, #0
    88d8:	e3520000 	cmp	r2, #0
    88dc:	1a000008 	bne	8904 <check_one_cswitch+0x180>
    88e0:	eb000138 	bl	8dc8 <rpi_reset_putc>
    88e4:	e59f3338 	ldr	r3, [pc, #824]	; 8c24 <check_one_cswitch+0x4a0>
    88e8:	e58d3000 	str	r3, [sp]
    88ec:	e59f0334 	ldr	r0, [pc, #820]	; 8c28 <check_one_cswitch+0x4a4>
    88f0:	e59f1334 	ldr	r1, [pc, #820]	; 8c2c <check_one_cswitch+0x4a8>
    88f4:	e59f2334 	ldr	r2, [pc, #820]	; 8c30 <check_one_cswitch+0x4ac>
    88f8:	e3a03011 	mov	r3, #17
    88fc:	eb000116 	bl	8d5c <printk>
    8900:	eb0002ad 	bl	93bc <clean_reboot>
    8904:	e2433010 	sub	r3, r3, #16
    8908:	e353000f 	cmp	r3, #15
    890c:	979ff103 	ldrls	pc, [pc, r3, lsl #2]
    8910:	ea000019 	b	897c <check_one_cswitch+0x1f8>
    8914:	0000899c 	muleq	r0, ip, r9
    8918:	000089a4 	andeq	r8, r0, r4, lsr #19
    891c:	00008954 	andeq	r8, r0, r4, asr r9
    8920:	0000895c 	andeq	r8, r0, ip, asr r9
    8924:	0000897c 	andeq	r8, r0, ip, ror r9
    8928:	0000897c 	andeq	r8, r0, ip, ror r9
    892c:	0000897c 	andeq	r8, r0, ip, ror r9
    8930:	00008964 	andeq	r8, r0, r4, ror #18
    8934:	0000897c 	andeq	r8, r0, ip, ror r9
    8938:	0000897c 	andeq	r8, r0, ip, ror r9
    893c:	0000897c 	andeq	r8, r0, ip, ror r9
    8940:	0000896c 	andeq	r8, r0, ip, ror #18
    8944:	0000897c 	andeq	r8, r0, ip, ror r9
    8948:	0000897c 	andeq	r8, r0, ip, ror r9
    894c:	0000897c 	andeq	r8, r0, ip, ror r9
    8950:	00008974 	andeq	r8, r0, r4, ror r9
    8954:	e59f12d8 	ldr	r1, [pc, #728]	; 8c34 <check_one_cswitch+0x4b0>
    8958:	ea000012 	b	89a8 <check_one_cswitch+0x224>
    895c:	e59f12d4 	ldr	r1, [pc, #724]	; 8c38 <check_one_cswitch+0x4b4>
    8960:	ea000010 	b	89a8 <check_one_cswitch+0x224>
    8964:	e59f12d0 	ldr	r1, [pc, #720]	; 8c3c <check_one_cswitch+0x4b8>
    8968:	ea00000e 	b	89a8 <check_one_cswitch+0x224>
    896c:	e59f12cc 	ldr	r1, [pc, #716]	; 8c40 <check_one_cswitch+0x4bc>
    8970:	ea00000c 	b	89a8 <check_one_cswitch+0x224>
    8974:	e59f12c8 	ldr	r1, [pc, #712]	; 8c44 <check_one_cswitch+0x4c0>
    8978:	ea00000a 	b	89a8 <check_one_cswitch+0x224>
    897c:	eb000111 	bl	8dc8 <rpi_reset_putc>
    8980:	e58d8000 	str	r8, [sp]
    8984:	e59f02bc 	ldr	r0, [pc, #700]	; 8c48 <check_one_cswitch+0x4c4>
    8988:	e59f129c 	ldr	r1, [pc, #668]	; 8c2c <check_one_cswitch+0x4a8>
    898c:	e59f22b8 	ldr	r2, [pc, #696]	; 8c4c <check_one_cswitch+0x4c8>
    8990:	e3a03021 	mov	r3, #33	; 0x21
    8994:	eb0000f0 	bl	8d5c <printk>
    8998:	eb000287 	bl	93bc <clean_reboot>
    899c:	e59f12ac 	ldr	r1, [pc, #684]	; 8c50 <check_one_cswitch+0x4cc>
    89a0:	ea000000 	b	89a8 <check_one_cswitch+0x224>
    89a4:	e59f12a8 	ldr	r1, [pc, #680]	; 8c54 <check_one_cswitch+0x4d0>
    89a8:	e59f02a8 	ldr	r0, [pc, #680]	; 8c58 <check_one_cswitch+0x4d4>
    89ac:	e1a02008 	mov	r2, r8
    89b0:	eb0000e9 	bl	8d5c <printk>
    89b4:	e10f5000 	mrs	r5, CPSR
    89b8:	e205301f 	and	r3, r5, #31
    89bc:	e3530012 	cmp	r3, #18
    89c0:	13530010 	cmpne	r3, #16
    89c4:	0a000006 	beq	89e4 <check_one_cswitch+0x260>
    89c8:	e3530017 	cmp	r3, #23
    89cc:	13530013 	cmpne	r3, #19
    89d0:	0a000005 	beq	89ec <check_one_cswitch+0x268>
    89d4:	e353001f 	cmp	r3, #31
    89d8:	1a000005 	bne	89f4 <check_one_cswitch+0x270>
    89dc:	e3a02001 	mov	r2, #1
    89e0:	ea000004 	b	89f8 <check_one_cswitch+0x274>
    89e4:	e3a02001 	mov	r2, #1
    89e8:	ea000002 	b	89f8 <check_one_cswitch+0x274>
    89ec:	e3a02001 	mov	r2, #1
    89f0:	ea000000 	b	89f8 <check_one_cswitch+0x274>
    89f4:	e3a02000 	mov	r2, #0
    89f8:	e3520000 	cmp	r2, #0
    89fc:	1a000008 	bne	8a24 <check_one_cswitch+0x2a0>
    8a00:	eb0000f0 	bl	8dc8 <rpi_reset_putc>
    8a04:	e59f3218 	ldr	r3, [pc, #536]	; 8c24 <check_one_cswitch+0x4a0>
    8a08:	e58d3000 	str	r3, [sp]
    8a0c:	e59f0214 	ldr	r0, [pc, #532]	; 8c28 <check_one_cswitch+0x4a4>
    8a10:	e59f1214 	ldr	r1, [pc, #532]	; 8c2c <check_one_cswitch+0x4a8>
    8a14:	e59f2214 	ldr	r2, [pc, #532]	; 8c30 <check_one_cswitch+0x4ac>
    8a18:	e3a03011 	mov	r3, #17
    8a1c:	eb0000ce 	bl	8d5c <printk>
    8a20:	eb000265 	bl	93bc <clean_reboot>
    8a24:	e2433010 	sub	r3, r3, #16
    8a28:	e353000f 	cmp	r3, #15
    8a2c:	979ff103 	ldrls	pc, [pc, r3, lsl #2]
    8a30:	ea000019 	b	8a9c <check_one_cswitch+0x318>
    8a34:	00008abc 			; <UNDEFINED> instruction: 0x00008abc
    8a38:	00008ac4 	andeq	r8, r0, r4, asr #21
    8a3c:	00008a74 	andeq	r8, r0, r4, ror sl
    8a40:	00008a7c 	andeq	r8, r0, ip, ror sl
    8a44:	00008a9c 	muleq	r0, ip, sl
    8a48:	00008a9c 	muleq	r0, ip, sl
    8a4c:	00008a9c 	muleq	r0, ip, sl
    8a50:	00008a84 	andeq	r8, r0, r4, lsl #21
    8a54:	00008a9c 	muleq	r0, ip, sl
    8a58:	00008a9c 	muleq	r0, ip, sl
    8a5c:	00008a9c 	muleq	r0, ip, sl
    8a60:	00008a8c 	andeq	r8, r0, ip, lsl #21
    8a64:	00008a9c 	muleq	r0, ip, sl
    8a68:	00008a9c 	muleq	r0, ip, sl
    8a6c:	00008a9c 	muleq	r0, ip, sl
    8a70:	00008a94 	muleq	r0, r4, sl
    8a74:	e59f11b8 	ldr	r1, [pc, #440]	; 8c34 <check_one_cswitch+0x4b0>
    8a78:	ea000012 	b	8ac8 <check_one_cswitch+0x344>
    8a7c:	e59f11b4 	ldr	r1, [pc, #436]	; 8c38 <check_one_cswitch+0x4b4>
    8a80:	ea000010 	b	8ac8 <check_one_cswitch+0x344>
    8a84:	e59f11b0 	ldr	r1, [pc, #432]	; 8c3c <check_one_cswitch+0x4b8>
    8a88:	ea00000e 	b	8ac8 <check_one_cswitch+0x344>
    8a8c:	e59f11ac 	ldr	r1, [pc, #428]	; 8c40 <check_one_cswitch+0x4bc>
    8a90:	ea00000c 	b	8ac8 <check_one_cswitch+0x344>
    8a94:	e59f11a8 	ldr	r1, [pc, #424]	; 8c44 <check_one_cswitch+0x4c0>
    8a98:	ea00000a 	b	8ac8 <check_one_cswitch+0x344>
    8a9c:	eb0000c9 	bl	8dc8 <rpi_reset_putc>
    8aa0:	e58d5000 	str	r5, [sp]
    8aa4:	e59f019c 	ldr	r0, [pc, #412]	; 8c48 <check_one_cswitch+0x4c4>
    8aa8:	e59f117c 	ldr	r1, [pc, #380]	; 8c2c <check_one_cswitch+0x4a8>
    8aac:	e59f2198 	ldr	r2, [pc, #408]	; 8c4c <check_one_cswitch+0x4c8>
    8ab0:	e3a03021 	mov	r3, #33	; 0x21
    8ab4:	eb0000a8 	bl	8d5c <printk>
    8ab8:	eb00023f 	bl	93bc <clean_reboot>
    8abc:	e59f118c 	ldr	r1, [pc, #396]	; 8c50 <check_one_cswitch+0x4cc>
    8ac0:	ea000000 	b	8ac8 <check_one_cswitch+0x344>
    8ac4:	e59f1188 	ldr	r1, [pc, #392]	; 8c54 <check_one_cswitch+0x4d0>
    8ac8:	e10f2000 	mrs	r2, CPSR
    8acc:	e59f0188 	ldr	r0, [pc, #392]	; 8c5c <check_one_cswitch+0x4d8>
    8ad0:	eb0000a1 	bl	8d5c <printk>
    8ad4:	e3a00000 	mov	r0, #0
    8ad8:	ebfffe5d 	bl	8454 <brkpt_mismatch_disable0>
    8adc:	e208801f 	and	r8, r8, #31
    8ae0:	e3580012 	cmp	r8, #18
    8ae4:	13580010 	cmpne	r8, #16
    8ae8:	0a000006 	beq	8b08 <check_one_cswitch+0x384>
    8aec:	e3580017 	cmp	r8, #23
    8af0:	13580013 	cmpne	r8, #19
    8af4:	0a000005 	beq	8b10 <check_one_cswitch+0x38c>
    8af8:	e358001f 	cmp	r8, #31
    8afc:	1a000005 	bne	8b18 <check_one_cswitch+0x394>
    8b00:	e3a03001 	mov	r3, #1
    8b04:	ea000004 	b	8b1c <check_one_cswitch+0x398>
    8b08:	e3a03001 	mov	r3, #1
    8b0c:	ea000002 	b	8b1c <check_one_cswitch+0x398>
    8b10:	e3a03001 	mov	r3, #1
    8b14:	ea000000 	b	8b1c <check_one_cswitch+0x398>
    8b18:	e3a03000 	mov	r3, #0
    8b1c:	e3530000 	cmp	r3, #0
    8b20:	1a000008 	bne	8b48 <check_one_cswitch+0x3c4>
    8b24:	eb0000a7 	bl	8dc8 <rpi_reset_putc>
    8b28:	e59f30f4 	ldr	r3, [pc, #244]	; 8c24 <check_one_cswitch+0x4a0>
    8b2c:	e58d3000 	str	r3, [sp]
    8b30:	e59f00f0 	ldr	r0, [pc, #240]	; 8c28 <check_one_cswitch+0x4a4>
    8b34:	e59f10f0 	ldr	r1, [pc, #240]	; 8c2c <check_one_cswitch+0x4a8>
    8b38:	e59f20f0 	ldr	r2, [pc, #240]	; 8c30 <check_one_cswitch+0x4ac>
    8b3c:	e3a03011 	mov	r3, #17
    8b40:	eb000085 	bl	8d5c <printk>
    8b44:	eb00021c 	bl	93bc <clean_reboot>
    8b48:	e10f3000 	mrs	r3, CPSR
    8b4c:	e203301f 	and	r3, r3, #31
    8b50:	e3530012 	cmp	r3, #18
    8b54:	13530010 	cmpne	r3, #16
    8b58:	0a000006 	beq	8b78 <check_one_cswitch+0x3f4>
    8b5c:	e3530017 	cmp	r3, #23
    8b60:	13530013 	cmpne	r3, #19
    8b64:	0a000005 	beq	8b80 <check_one_cswitch+0x3fc>
    8b68:	e353001f 	cmp	r3, #31
    8b6c:	1a000005 	bne	8b88 <check_one_cswitch+0x404>
    8b70:	e3a02001 	mov	r2, #1
    8b74:	ea000004 	b	8b8c <check_one_cswitch+0x408>
    8b78:	e3a02001 	mov	r2, #1
    8b7c:	ea000002 	b	8b8c <check_one_cswitch+0x408>
    8b80:	e3a02001 	mov	r2, #1
    8b84:	ea000000 	b	8b8c <check_one_cswitch+0x408>
    8b88:	e3a02000 	mov	r2, #0
    8b8c:	e3520000 	cmp	r2, #0
    8b90:	1a000008 	bne	8bb8 <check_one_cswitch+0x434>
    8b94:	eb00008b 	bl	8dc8 <rpi_reset_putc>
    8b98:	e59f3084 	ldr	r3, [pc, #132]	; 8c24 <check_one_cswitch+0x4a0>
    8b9c:	e58d3000 	str	r3, [sp]
    8ba0:	e59f0080 	ldr	r0, [pc, #128]	; 8c28 <check_one_cswitch+0x4a4>
    8ba4:	e59f1080 	ldr	r1, [pc, #128]	; 8c2c <check_one_cswitch+0x4a8>
    8ba8:	e59f2080 	ldr	r2, [pc, #128]	; 8c30 <check_one_cswitch+0x4ac>
    8bac:	e3a03011 	mov	r3, #17
    8bb0:	eb000069 	bl	8d5c <printk>
    8bb4:	eb000200 	bl	93bc <clean_reboot>
    8bb8:	e1580003 	cmp	r8, r3
    8bbc:	0a000008 	beq	8be4 <check_one_cswitch+0x460>
    8bc0:	eb000080 	bl	8dc8 <rpi_reset_putc>
    8bc4:	e59f3094 	ldr	r3, [pc, #148]	; 8c60 <check_one_cswitch+0x4dc>
    8bc8:	e58d3000 	str	r3, [sp]
    8bcc:	e59f0054 	ldr	r0, [pc, #84]	; 8c28 <check_one_cswitch+0x4a4>
    8bd0:	e59f1038 	ldr	r1, [pc, #56]	; 8c10 <check_one_cswitch+0x48c>
    8bd4:	e59f2038 	ldr	r2, [pc, #56]	; 8c14 <check_one_cswitch+0x490>
    8bd8:	e3a03057 	mov	r3, #87	; 0x57
    8bdc:	eb00005e 	bl	8d5c <printk>
    8be0:	eb0001f5 	bl	93bc <clean_reboot>
    8be4:	e3a03000 	mov	r3, #0
    8be8:	e5843030 	str	r3, [r4, #48]	; 0x30
    8bec:	e594002c 	ldr	r0, [r4, #44]	; 0x2c
    8bf0:	e1500003 	cmp	r0, r3
    8bf4:	13a00000 	movne	r0, #0
    8bf8:	03a00001 	moveq	r0, #1
    8bfc:	e28dd00c 	add	sp, sp, #12
    8c00:	e8bd8ff0 	pop	{r4, r5, r6, r7, r8, r9, sl, fp, pc}
    8c04:	0000a150 	andeq	sl, r0, r0, asr r1
    8c08:	0000a144 	andeq	sl, r0, r4, asr #2
    8c0c:	00009d1c 	andeq	r9, r0, ip, lsl sp
    8c10:	00009bf4 	strdeq	r9, [r0], -r4
    8c14:	00009ec4 	andeq	r9, r0, r4, asr #29
    8c18:	000085ec 	andeq	r8, r0, ip, ror #11
    8c1c:	00009d54 	andeq	r9, r0, r4, asr sp
    8c20:	00009d9c 	muleq	r0, ip, sp
    8c24:	00009ddc 	ldrdeq	r9, [r0], -ip
    8c28:	00009a34 	andeq	r9, r0, r4, lsr sl
    8c2c:	00009dd0 	ldrdeq	r9, [r0], -r0
    8c30:	00009f10 	andeq	r9, r0, r0, lsl pc
    8c34:	00009ce0 	andeq	r9, r0, r0, ror #25
    8c38:	00009cec 	andeq	r9, r0, ip, ror #25
    8c3c:	00009cf8 	strdeq	r9, [r0], -r8
    8c40:	00009d04 	andeq	r9, r0, r4, lsl #26
    8c44:	00009d10 	andeq	r9, r0, r0, lsl sp
    8c48:	00009df0 	strdeq	r9, [r0], -r0
    8c4c:	00009f04 	andeq	r9, r0, r4, lsl #30
    8c50:	00009cc8 	andeq	r9, r0, r8, asr #25
    8c54:	00009cd4 	ldrdeq	r9, [r0], -r4
    8c58:	00009e14 	andeq	r9, r0, r4, lsl lr
    8c5c:	00009e30 	andeq	r9, r0, r0, lsr lr
    8c60:	00009e48 	andeq	r9, r0, r8, asr #28

00008c64 <check_sequential>:
    8c64:	e92d4038 	push	{r3, r4, r5, lr}
    8c68:	e1a04000 	mov	r4, r0
    8c6c:	e3a05000 	mov	r5, #0
    8c70:	ea000015 	b	8ccc <check_sequential+0x68>
    8c74:	e594300c 	ldr	r3, [r4, #12]
    8c78:	e1a00004 	mov	r0, r4
    8c7c:	e12fff33 	blx	r3
    8c80:	e5943004 	ldr	r3, [r4, #4]
    8c84:	e1a00004 	mov	r0, r4
    8c88:	e12fff33 	blx	r3
    8c8c:	e5943008 	ldr	r3, [r4, #8]
    8c90:	e1a00004 	mov	r0, r4
    8c94:	e12fff33 	blx	r3
    8c98:	e5943010 	ldr	r3, [r4, #16]
    8c9c:	e1a00004 	mov	r0, r4
    8ca0:	e12fff33 	blx	r3
    8ca4:	e3500000 	cmp	r0, #0
    8ca8:	1a000006 	bne	8cc8 <check_sequential+0x64>
    8cac:	eb000045 	bl	8dc8 <rpi_reset_putc>
    8cb0:	e59f0024 	ldr	r0, [pc, #36]	; 8cdc <check_sequential+0x78>
    8cb4:	e59f1024 	ldr	r1, [pc, #36]	; 8ce0 <check_sequential+0x7c>
    8cb8:	e59f2024 	ldr	r2, [pc, #36]	; 8ce4 <check_sequential+0x80>
    8cbc:	e3a0306c 	mov	r3, #108	; 0x6c
    8cc0:	eb000025 	bl	8d5c <printk>
    8cc4:	eb0001bc 	bl	93bc <clean_reboot>
    8cc8:	e2855001 	add	r5, r5, #1
    8ccc:	e3550063 	cmp	r5, #99	; 0x63
    8cd0:	9affffe7 	bls	8c74 <check_sequential+0x10>
    8cd4:	e3a00001 	mov	r0, #1
    8cd8:	e8bd8038 	pop	{r3, r4, r5, pc}
    8cdc:	00009e74 	andeq	r9, r0, r4, ror lr
    8ce0:	00009bf4 	strdeq	r9, [r0], -r4
    8ce4:	00009eb0 			; <UNDEFINED> instruction: 0x00009eb0

00008ce8 <check_zero>:
    8ce8:	e3a03000 	mov	r3, #0
    8cec:	e5803030 	str	r3, [r0, #48]	; 0x30
    8cf0:	e580302c 	str	r3, [r0, #44]	; 0x2c
    8cf4:	e5803028 	str	r3, [r0, #40]	; 0x28
    8cf8:	e5803024 	str	r3, [r0, #36]	; 0x24
    8cfc:	e5803020 	str	r3, [r0, #32]
    8d00:	e580301c 	str	r3, [r0, #28]
    8d04:	e5803018 	str	r3, [r0, #24]
    8d08:	e5803014 	str	r3, [r0, #20]
    8d0c:	e12fff1e 	bx	lr

00008d10 <check>:
    8d10:	e92d4010 	push	{r4, lr}
    8d14:	e1a04000 	mov	r4, r0
    8d18:	ebfffd72 	bl	82e8 <cp14_enable>
    8d1c:	e1a00004 	mov	r0, r4
    8d20:	ebfffff0 	bl	8ce8 <check_zero>
    8d24:	e1a00004 	mov	r0, r4
    8d28:	ebffffcd 	bl	8c64 <check_sequential>
    8d2c:	e3500000 	cmp	r0, #0
    8d30:	0a000005 	beq	8d4c <check+0x3c>
    8d34:	e1a00004 	mov	r0, r4
    8d38:	ebfffe91 	bl	8784 <check_one_cswitch>
    8d3c:	e3500000 	cmp	r0, #0
    8d40:	0a000003 	beq	8d54 <check+0x44>
    8d44:	e3a00001 	mov	r0, #1
    8d48:	e8bd8010 	pop	{r4, pc}
    8d4c:	e3a00000 	mov	r0, #0
    8d50:	e8bd8010 	pop	{r4, pc}
    8d54:	e3a00000 	mov	r0, #0
    8d58:	e8bd8010 	pop	{r4, pc}

00008d5c <printk>:
    8d5c:	e92d000f 	push	{r0, r1, r2, r3}
    8d60:	e92d4030 	push	{r4, r5, lr}
    8d64:	e24dd00c 	sub	sp, sp, #12
    8d68:	e28d301c 	add	r3, sp, #28
    8d6c:	e58d3004 	str	r3, [sp, #4]
    8d70:	e59f4034 	ldr	r4, [pc, #52]	; 8dac <printk+0x50>
    8d74:	e1a00004 	mov	r0, r4
    8d78:	e3a01b01 	mov	r1, #1024	; 0x400
    8d7c:	e59d2018 	ldr	r2, [sp, #24]
    8d80:	eb0000d0 	bl	90c8 <va_printk>
    8d84:	e1a05000 	mov	r5, r0
    8d88:	e59f3020 	ldr	r3, [pc, #32]	; 8db0 <printk+0x54>
    8d8c:	e5933000 	ldr	r3, [r3]
    8d90:	e1a00004 	mov	r0, r4
    8d94:	e12fff33 	blx	r3
    8d98:	e1a00005 	mov	r0, r5
    8d9c:	e28dd00c 	add	sp, sp, #12
    8da0:	e8bd4030 	pop	{r4, r5, lr}
    8da4:	e28dd010 	add	sp, sp, #16
    8da8:	e12fff1e 	bx	lr
    8dac:	0000a158 	andeq	sl, r0, r8, asr r1
    8db0:	0000996c 	andeq	r9, r0, ip, ror #18

00008db4 <internal_putchar>:
    8db4:	e92d4010 	push	{r4, lr}
    8db8:	e1a04000 	mov	r4, r0
    8dbc:	eb000291 	bl	9808 <uart_putc>
    8dc0:	e1a00004 	mov	r0, r4
    8dc4:	e8bd8010 	pop	{r4, pc}

00008dc8 <rpi_reset_putc>:
    8dc8:	e59f2008 	ldr	r2, [pc, #8]	; 8dd8 <rpi_reset_putc+0x10>
    8dcc:	e59f3008 	ldr	r3, [pc, #8]	; 8ddc <rpi_reset_putc+0x14>
    8dd0:	e5832000 	str	r2, [r3]
    8dd4:	e12fff1e 	bx	lr
    8dd8:	00008db4 			; <UNDEFINED> instruction: 0x00008db4
    8ddc:	00009968 	andeq	r9, r0, r8, ror #18

00008de0 <rpi_set_putc>:
    8de0:	e59f3004 	ldr	r3, [pc, #4]	; 8dec <rpi_set_putc+0xc>
    8de4:	e5830000 	str	r0, [r3]
    8de8:	e12fff1e 	bx	lr
    8dec:	00009968 	andeq	r9, r0, r8, ror #18

00008df0 <internal_putk>:
    8df0:	e92d4038 	push	{r3, r4, r5, lr}
    8df4:	e1a04000 	mov	r4, r0
    8df8:	e59f5020 	ldr	r5, [pc, #32]	; 8e20 <internal_putk+0x30>
    8dfc:	ea000002 	b	8e0c <internal_putk+0x1c>
    8e00:	e5953000 	ldr	r3, [r5]
    8e04:	e12fff33 	blx	r3
    8e08:	e2844001 	add	r4, r4, #1
    8e0c:	e5d40000 	ldrb	r0, [r4]
    8e10:	e3500000 	cmp	r0, #0
    8e14:	1afffff9 	bne	8e00 <internal_putk+0x10>
    8e18:	e3a00001 	mov	r0, #1
    8e1c:	e8bd8038 	pop	{r3, r4, r5, pc}
    8e20:	00009968 	andeq	r9, r0, r8, ror #18

00008e24 <isdigit>:
    8e24:	e2400030 	sub	r0, r0, #48	; 0x30
    8e28:	e3500009 	cmp	r0, #9
    8e2c:	83a00000 	movhi	r0, #0
    8e30:	93a00001 	movls	r0, #1
    8e34:	e12fff1e 	bx	lr

00008e38 <pad>:
    8e38:	e0611000 	rsb	r1, r1, r0
    8e3c:	e3a03020 	mov	r3, #32
    8e40:	ea000002 	b	8e50 <pad+0x18>
    8e44:	e5c03000 	strb	r3, [r0]
    8e48:	e2811001 	add	r1, r1, #1
    8e4c:	e2800001 	add	r0, r0, #1
    8e50:	e1510002 	cmp	r1, r2
    8e54:	bafffffa 	blt	8e44 <pad+0xc>
    8e58:	e3a03000 	mov	r3, #0
    8e5c:	e5c03000 	strb	r3, [r0]
    8e60:	e12fff1e 	bx	lr

00008e64 <reverse>:
    8e64:	e063c002 	rsb	ip, r3, r2
    8e68:	e28cc001 	add	ip, ip, #1
    8e6c:	e15c0001 	cmp	ip, r1
    8e70:	c061100c 	rsbgt	r1, r1, ip
    8e74:	c0833001 	addgt	r3, r3, r1
    8e78:	e2422001 	sub	r2, r2, #1
    8e7c:	e1a01000 	mov	r1, r0
    8e80:	ea000002 	b	8e90 <reverse+0x2c>
    8e84:	e452c001 	ldrb	ip, [r2], #-1
    8e88:	e5c1c000 	strb	ip, [r1]
    8e8c:	e2811001 	add	r1, r1, #1
    8e90:	e1520003 	cmp	r2, r3
    8e94:	2afffffa 	bcs	8e84 <reverse+0x20>
    8e98:	e3a03000 	mov	r3, #0
    8e9c:	e5c13000 	strb	r3, [r1]
    8ea0:	e12fff1e 	bx	lr

00008ea4 <emit>:
    8ea4:	e92d41f0 	push	{r4, r5, r6, r7, r8, lr}
    8ea8:	e24dd048 	sub	sp, sp, #72	; 0x48
    8eac:	e1a05001 	mov	r5, r1
    8eb0:	e1a04002 	mov	r4, r2
    8eb4:	e59d2060 	ldr	r2, [sp, #96]	; 0x60
    8eb8:	e1520004 	cmp	r2, r4
    8ebc:	c2442001 	subgt	r2, r4, #1
    8ec0:	e1a0c003 	mov	ip, r3
    8ec4:	e2400002 	sub	r0, r0, #2
    8ec8:	e350000e 	cmp	r0, #14
    8ecc:	979ff100 	ldrls	pc, [pc, r0, lsl #2]
    8ed0:	ea000048 	b	8ff8 <emit+0x154>
    8ed4:	00008fd0 	ldrdeq	r8, [r0], -r0
    8ed8:	00008ff8 	strdeq	r8, [r0], -r8	; <UNPREDICTABLE>
    8edc:	00008ff8 	strdeq	r8, [r0], -r8	; <UNPREDICTABLE>
    8ee0:	00008ff8 	strdeq	r8, [r0], -r8	; <UNPREDICTABLE>
    8ee4:	00008ff8 	strdeq	r8, [r0], -r8	; <UNPREDICTABLE>
    8ee8:	00008ff8 	strdeq	r8, [r0], -r8	; <UNPREDICTABLE>
    8eec:	00008fc4 	andeq	r8, r0, r4, asr #31
    8ef0:	00008ff8 	strdeq	r8, [r0], -r8	; <UNPREDICTABLE>
    8ef4:	00008f10 	andeq	r8, r0, r0, lsl pc
    8ef8:	00008ff8 	strdeq	r8, [r0], -r8	; <UNPREDICTABLE>
    8efc:	00008ff8 	strdeq	r8, [r0], -r8	; <UNPREDICTABLE>
    8f00:	00008ff8 	strdeq	r8, [r0], -r8	; <UNPREDICTABLE>
    8f04:	00008ff8 	strdeq	r8, [r0], -r8	; <UNPREDICTABLE>
    8f08:	00008ff8 	strdeq	r8, [r0], -r8	; <UNPREDICTABLE>
    8f0c:	00008f84 	andeq	r8, r0, r4, lsl #31
    8f10:	e59d1064 	ldr	r1, [sp, #100]	; 0x64
    8f14:	e2911000 	adds	r1, r1, #0
    8f18:	13a01001 	movne	r1, #1
    8f1c:	e0111fa3 	ands	r1, r1, r3, lsr #31
    8f20:	1263c000 	rsbne	ip, r3, #0
    8f24:	13a08001 	movne	r8, #1
    8f28:	03a08000 	moveq	r8, #0
    8f2c:	e28d1008 	add	r1, sp, #8
    8f30:	e59f7108 	ldr	r7, [pc, #264]	; 9040 <emit+0x19c>
    8f34:	e59f6108 	ldr	r6, [pc, #264]	; 9044 <emit+0x1a0>
    8f38:	ea000000 	b	8f40 <emit+0x9c>
    8f3c:	e1a01000 	mov	r1, r0
    8f40:	e2810001 	add	r0, r1, #1
    8f44:	e083ec97 	umull	lr, r3, r7, ip
    8f48:	e1a031a3 	lsr	r3, r3, #3
    8f4c:	e1a0e003 	mov	lr, r3
    8f50:	e0833103 	add	r3, r3, r3, lsl #2
    8f54:	e1a03083 	lsl	r3, r3, #1
    8f58:	e063300c 	rsb	r3, r3, ip
    8f5c:	e7d63003 	ldrb	r3, [r6, r3]
    8f60:	e5c13000 	strb	r3, [r1]
    8f64:	e1a0c00e 	mov	ip, lr
    8f68:	e35e0000 	cmp	lr, #0
    8f6c:	1afffff2 	bne	8f3c <emit+0x98>
    8f70:	e3580000 	cmp	r8, #0
    8f74:	12810002 	addne	r0, r1, #2
    8f78:	13a0302d 	movne	r3, #45	; 0x2d
    8f7c:	15c13001 	strbne	r3, [r1, #1]
    8f80:	ea000025 	b	901c <emit+0x178>
    8f84:	e28d3008 	add	r3, sp, #8
    8f88:	e59fe0b8 	ldr	lr, [pc, #184]	; 9048 <emit+0x1a4>
    8f8c:	ea000000 	b	8f94 <emit+0xf0>
    8f90:	e1a03000 	mov	r3, r0
    8f94:	e2830001 	add	r0, r3, #1
    8f98:	e20c100f 	and	r1, ip, #15
    8f9c:	e7de1001 	ldrb	r1, [lr, r1]
    8fa0:	e5c31000 	strb	r1, [r3]
    8fa4:	e1b0c22c 	lsrs	ip, ip, #4
    8fa8:	1afffff8 	bne	8f90 <emit+0xec>
    8fac:	e3a01078 	mov	r1, #120	; 0x78
    8fb0:	e5c31001 	strb	r1, [r3, #1]
    8fb4:	e2830003 	add	r0, r3, #3
    8fb8:	e3a01030 	mov	r1, #48	; 0x30
    8fbc:	e5c31002 	strb	r1, [r3, #2]
    8fc0:	ea000015 	b	901c <emit+0x178>
    8fc4:	e5cd3008 	strb	r3, [sp, #8]
    8fc8:	e28d0009 	add	r0, sp, #9
    8fcc:	ea000012 	b	901c <emit+0x178>
    8fd0:	e28d3008 	add	r3, sp, #8
    8fd4:	e59fe070 	ldr	lr, [pc, #112]	; 904c <emit+0x1a8>
    8fd8:	e2830001 	add	r0, r3, #1
    8fdc:	e20c1001 	and	r1, ip, #1
    8fe0:	e7de1001 	ldrb	r1, [lr, r1]
    8fe4:	e5c31000 	strb	r1, [r3]
    8fe8:	e1a03000 	mov	r3, r0
    8fec:	e1b0c0ac 	lsrs	ip, ip, #1
    8ff0:	1afffff8 	bne	8fd8 <emit+0x134>
    8ff4:	ea000008 	b	901c <emit+0x178>
    8ff8:	ebffff72 	bl	8dc8 <rpi_reset_putc>
    8ffc:	e59f304c 	ldr	r3, [pc, #76]	; 9050 <emit+0x1ac>
    9000:	e58d3000 	str	r3, [sp]
    9004:	e59f0048 	ldr	r0, [pc, #72]	; 9054 <emit+0x1b0>
    9008:	e59f1048 	ldr	r1, [pc, #72]	; 9058 <emit+0x1b4>
    900c:	e59f2048 	ldr	r2, [pc, #72]	; 905c <emit+0x1b8>
    9010:	e3a03077 	mov	r3, #119	; 0x77
    9014:	ebffff50 	bl	8d5c <printk>
    9018:	eb0000e7 	bl	93bc <clean_reboot>
    901c:	e28d1008 	add	r1, sp, #8
    9020:	ebffff84 	bl	8e38 <pad>
    9024:	e1a02000 	mov	r2, r0
    9028:	e1a00005 	mov	r0, r5
    902c:	e1a01004 	mov	r1, r4
    9030:	e28d3008 	add	r3, sp, #8
    9034:	ebffff8a 	bl	8e64 <reverse>
    9038:	e28dd048 	add	sp, sp, #72	; 0x48
    903c:	e8bd81f0 	pop	{r4, r5, r6, r7, r8, pc}
    9040:	cccccccd 	stclgt	12, cr12, [ip], {205}	; 0xcd
    9044:	00009f64 	andeq	r9, r0, r4, ror #30
    9048:	00009f70 	andeq	r9, r0, r0, ror pc
    904c:	00009f84 	andeq	r9, r0, r4, lsl #31
    9050:	00009f60 	andeq	r9, r0, r0, ror #30
    9054:	00009a34 	andeq	r9, r0, r4, lsr sl
    9058:	00009f4c 	andeq	r9, r0, ip, asr #30
    905c:	00009f28 	andeq	r9, r0, r8, lsr #30

00009060 <rpi_set_output>:
    9060:	e52de004 	push	{lr}		; (str lr, [sp, #-4]!)
    9064:	e24dd00c 	sub	sp, sp, #12
    9068:	e3500000 	cmp	r0, #0
    906c:	1a000008 	bne	9094 <rpi_set_output+0x34>
    9070:	ebffff54 	bl	8dc8 <rpi_reset_putc>
    9074:	e59f3034 	ldr	r3, [pc, #52]	; 90b0 <rpi_set_output+0x50>
    9078:	e58d3000 	str	r3, [sp]
    907c:	e59f0030 	ldr	r0, [pc, #48]	; 90b4 <rpi_set_output+0x54>
    9080:	e59f1030 	ldr	r1, [pc, #48]	; 90b8 <rpi_set_output+0x58>
    9084:	e59f2030 	ldr	r2, [pc, #48]	; 90bc <rpi_set_output+0x5c>
    9088:	e3a03020 	mov	r3, #32
    908c:	ebffff32 	bl	8d5c <printk>
    9090:	eb0000c9 	bl	93bc <clean_reboot>
    9094:	e59f3024 	ldr	r3, [pc, #36]	; 90c0 <rpi_set_output+0x60>
    9098:	e5830000 	str	r0, [r3]
    909c:	e3510000 	cmp	r1, #0
    90a0:	159f301c 	ldrne	r3, [pc, #28]	; 90c4 <rpi_set_output+0x64>
    90a4:	15831000 	strne	r1, [r3]
    90a8:	e28dd00c 	add	sp, sp, #12
    90ac:	e49df004 	pop	{pc}		; (ldr pc, [sp], #4)
    90b0:	00009f88 	andeq	r9, r0, r8, lsl #31
    90b4:	00009a34 	andeq	r9, r0, r4, lsr sl
    90b8:	00009f4c 	andeq	r9, r0, ip, asr #30
    90bc:	00009f30 	andeq	r9, r0, r0, lsr pc
    90c0:	00009968 	andeq	r9, r0, r8, ror #18
    90c4:	0000996c 	andeq	r9, r0, ip, ror #18

000090c8 <va_printk>:
    90c8:	e92d4ff0 	push	{r4, r5, r6, r7, r8, r9, sl, fp, lr}
    90cc:	e24dd094 	sub	sp, sp, #148	; 0x94
    90d0:	e1a0b000 	mov	fp, r0
    90d4:	e58d200c 	str	r2, [sp, #12]
    90d8:	e1a0a003 	mov	sl, r3
    90dc:	e2411001 	sub	r1, r1, #1
    90e0:	e0808001 	add	r8, r0, r1
    90e4:	e3a03000 	mov	r3, #0
    90e8:	e5c03000 	strb	r3, [r0]
    90ec:	e1a04000 	mov	r4, r0
    90f0:	e1a06002 	mov	r6, r2
    90f4:	ea000095 	b	9350 <va_printk+0x288>
    90f8:	e3530025 	cmp	r3, #37	; 0x25
    90fc:	12866001 	addne	r6, r6, #1
    9100:	15c43000 	strbne	r3, [r4]
    9104:	12844001 	addne	r4, r4, #1
    9108:	1a000090 	bne	9350 <va_printk+0x288>
    910c:	e5d62001 	ldrb	r2, [r6, #1]
    9110:	e3520025 	cmp	r2, #37	; 0x25
    9114:	05c43000 	strbeq	r3, [r4]
    9118:	02866002 	addeq	r6, r6, #2
    911c:	02844001 	addeq	r4, r4, #1
    9120:	0a00008a 	beq	9350 <va_printk+0x288>
    9124:	e2866001 	add	r6, r6, #1
    9128:	e3a07000 	mov	r7, #0
    912c:	ea000004 	b	9144 <va_printk+0x7c>
    9130:	e0877107 	add	r7, r7, r7, lsl #2
    9134:	e1a07087 	lsl	r7, r7, #1
    9138:	e0877005 	add	r7, r7, r5
    913c:	e2477030 	sub	r7, r7, #48	; 0x30
    9140:	e2866001 	add	r6, r6, #1
    9144:	e5d65000 	ldrb	r5, [r6]
    9148:	e1a09005 	mov	r9, r5
    914c:	e1a00005 	mov	r0, r5
    9150:	ebffff33 	bl	8e24 <isdigit>
    9154:	e3500000 	cmp	r0, #0
    9158:	1afffff4 	bne	9130 <va_printk+0x68>
    915c:	e357001f 	cmp	r7, #31
    9160:	9a000008 	bls	9188 <va_printk+0xc0>
    9164:	ebffff17 	bl	8dc8 <rpi_reset_putc>
    9168:	e59f320c 	ldr	r3, [pc, #524]	; 937c <va_printk+0x2b4>
    916c:	e58d3000 	str	r3, [sp]
    9170:	e59f0208 	ldr	r0, [pc, #520]	; 9380 <va_printk+0x2b8>
    9174:	e59f1208 	ldr	r1, [pc, #520]	; 9384 <va_printk+0x2bc>
    9178:	e59f2208 	ldr	r2, [pc, #520]	; 9388 <va_printk+0x2c0>
    917c:	e3a03095 	mov	r3, #149	; 0x95
    9180:	ebfffef5 	bl	8d5c <printk>
    9184:	eb00008c 	bl	93bc <clean_reboot>
    9188:	e2455062 	sub	r5, r5, #98	; 0x62
    918c:	e3550016 	cmp	r5, #22
    9190:	979ff105 	ldrls	pc, [pc, r5, lsl #2]
    9194:	ea000052 	b	92e4 <va_printk+0x21c>
    9198:	00009288 	andeq	r9, r0, r8, lsl #5
    919c:	000092bc 			; <UNDEFINED> instruction: 0x000092bc
    91a0:	00009210 	andeq	r9, r0, r0, lsl r2
    91a4:	000092e4 	andeq	r9, r0, r4, ror #5
    91a8:	000091f4 	strdeq	r9, [r0], -r4
    91ac:	000092e4 	andeq	r9, r0, r4, ror #5
    91b0:	000092e4 	andeq	r9, r0, r4, ror #5
    91b4:	000092e4 	andeq	r9, r0, r4, ror #5
    91b8:	000092e4 	andeq	r9, r0, r4, ror #5
    91bc:	000092e4 	andeq	r9, r0, r4, ror #5
    91c0:	000092e4 	andeq	r9, r0, r4, ror #5
    91c4:	000092e4 	andeq	r9, r0, r4, ror #5
    91c8:	000092e4 	andeq	r9, r0, r4, ror #5
    91cc:	000092e4 	andeq	r9, r0, r4, ror #5
    91d0:	00009260 	andeq	r9, r0, r0, ror #4
    91d4:	000092e4 	andeq	r9, r0, r4, ror #5
    91d8:	000092e4 	andeq	r9, r0, r4, ror #5
    91dc:	000092b0 			; <UNDEFINED> instruction: 0x000092b0
    91e0:	000092e4 	andeq	r9, r0, r4, ror #5
    91e4:	00009238 	andeq	r9, r0, r8, lsr r2
    91e8:	000092e4 	andeq	r9, r0, r4, ror #5
    91ec:	000092e4 	andeq	r9, r0, r4, ror #5
    91f0:	00009260 	andeq	r9, r0, r0, ror #4
    91f4:	ebfffef3 	bl	8dc8 <rpi_reset_putc>
    91f8:	e59f018c 	ldr	r0, [pc, #396]	; 938c <va_printk+0x2c4>
    91fc:	e59f1180 	ldr	r1, [pc, #384]	; 9384 <va_printk+0x2bc>
    9200:	e59f2180 	ldr	r2, [pc, #384]	; 9388 <va_printk+0x2c0>
    9204:	e3a0309b 	mov	r3, #155	; 0x9b
    9208:	ebfffed3 	bl	8d5c <printk>
    920c:	eb00006a 	bl	93bc <clean_reboot>
    9210:	e59a3000 	ldr	r3, [sl]
    9214:	e28aa004 	add	sl, sl, #4
    9218:	e58d7000 	str	r7, [sp]
    921c:	e3a02001 	mov	r2, #1
    9220:	e58d2004 	str	r2, [sp, #4]
    9224:	e3a0000a 	mov	r0, #10
    9228:	e28d1010 	add	r1, sp, #16
    922c:	e3a02080 	mov	r2, #128	; 0x80
    9230:	ebffff1b 	bl	8ea4 <emit>
    9234:	ea00003b 	b	9328 <va_printk+0x260>
    9238:	e59a3000 	ldr	r3, [sl]
    923c:	e28aa004 	add	sl, sl, #4
    9240:	e58d7000 	str	r7, [sp]
    9244:	e3a02000 	mov	r2, #0
    9248:	e58d2004 	str	r2, [sp, #4]
    924c:	e3a0000a 	mov	r0, #10
    9250:	e28d1010 	add	r1, sp, #16
    9254:	e3a02080 	mov	r2, #128	; 0x80
    9258:	ebffff11 	bl	8ea4 <emit>
    925c:	ea000031 	b	9328 <va_printk+0x260>
    9260:	e59a3000 	ldr	r3, [sl]
    9264:	e28aa004 	add	sl, sl, #4
    9268:	e58d7000 	str	r7, [sp]
    926c:	e3a02000 	mov	r2, #0
    9270:	e58d2004 	str	r2, [sp, #4]
    9274:	e3a00010 	mov	r0, #16
    9278:	e08d1000 	add	r1, sp, r0
    927c:	e3a02080 	mov	r2, #128	; 0x80
    9280:	ebffff07 	bl	8ea4 <emit>
    9284:	ea000027 	b	9328 <va_printk+0x260>
    9288:	e59a3000 	ldr	r3, [sl]
    928c:	e28aa004 	add	sl, sl, #4
    9290:	e58d7000 	str	r7, [sp]
    9294:	e3a02000 	mov	r2, #0
    9298:	e58d2004 	str	r2, [sp, #4]
    929c:	e3a00002 	mov	r0, #2
    92a0:	e28d1010 	add	r1, sp, #16
    92a4:	e3a02080 	mov	r2, #128	; 0x80
    92a8:	ebfffefd 	bl	8ea4 <emit>
    92ac:	ea00001d 	b	9328 <va_printk+0x260>
    92b0:	e59a0000 	ldr	r0, [sl]
    92b4:	e28aa004 	add	sl, sl, #4
    92b8:	ea00001a 	b	9328 <va_printk+0x260>
    92bc:	e59a3000 	ldr	r3, [sl]
    92c0:	e28aa004 	add	sl, sl, #4
    92c4:	e58d7000 	str	r7, [sp]
    92c8:	e3a02000 	mov	r2, #0
    92cc:	e58d2004 	str	r2, [sp, #4]
    92d0:	e3a00008 	mov	r0, #8
    92d4:	e28d1010 	add	r1, sp, #16
    92d8:	e3a02080 	mov	r2, #128	; 0x80
    92dc:	ebfffef0 	bl	8ea4 <emit>
    92e0:	ea000010 	b	9328 <va_printk+0x260>
    92e4:	e3a03000 	mov	r3, #0
    92e8:	e5c63001 	strb	r3, [r6, #1]
    92ec:	e59f009c 	ldr	r0, [pc, #156]	; 9390 <va_printk+0x2c8>
    92f0:	e1a01009 	mov	r1, r9
    92f4:	e1a02009 	mov	r2, r9
    92f8:	ebfffe97 	bl	8d5c <printk>
    92fc:	e59f3090 	ldr	r3, [pc, #144]	; 9394 <va_printk+0x2cc>
    9300:	e5933000 	ldr	r3, [r3]
    9304:	e59d000c 	ldr	r0, [sp, #12]
    9308:	e12fff33 	blx	r3
    930c:	ebfffead 	bl	8dc8 <rpi_reset_putc>
    9310:	e59f0080 	ldr	r0, [pc, #128]	; 9398 <va_printk+0x2d0>
    9314:	e59f1068 	ldr	r1, [pc, #104]	; 9384 <va_printk+0x2bc>
    9318:	e59f2068 	ldr	r2, [pc, #104]	; 9388 <va_printk+0x2c0>
    931c:	e3a030bf 	mov	r3, #191	; 0xbf
    9320:	ebfffe8d 	bl	8d5c <printk>
    9324:	eb000024 	bl	93bc <clean_reboot>
    9328:	e2866001 	add	r6, r6, #1
    932c:	ea000002 	b	933c <va_printk+0x274>
    9330:	e2800001 	add	r0, r0, #1
    9334:	e5c43000 	strb	r3, [r4]
    9338:	e2844001 	add	r4, r4, #1
    933c:	e1540008 	cmp	r4, r8
    9340:	2a000002 	bcs	9350 <va_printk+0x288>
    9344:	e5d03000 	ldrb	r3, [r0]
    9348:	e3530000 	cmp	r3, #0
    934c:	1afffff7 	bne	9330 <va_printk+0x268>
    9350:	e5d63000 	ldrb	r3, [r6]
    9354:	e3530000 	cmp	r3, #0
    9358:	0a000001 	beq	9364 <va_printk+0x29c>
    935c:	e1540008 	cmp	r4, r8
    9360:	3affff64 	bcc	90f8 <va_printk+0x30>
    9364:	e2840001 	add	r0, r4, #1
    9368:	e3a03000 	mov	r3, #0
    936c:	e5c43000 	strb	r3, [r4]
    9370:	e06b0000 	rsb	r0, fp, r0
    9374:	e28dd094 	add	sp, sp, #148	; 0x94
    9378:	e8bd8ff0 	pop	{r4, r5, r6, r7, r8, r9, sl, fp, pc}
    937c:	00009f90 	muleq	r0, r0, pc	; <UNPREDICTABLE>
    9380:	00009a34 	andeq	r9, r0, r4, lsr sl
    9384:	00009f4c 	andeq	r9, r0, ip, asr #30
    9388:	00009f40 	andeq	r9, r0, r0, asr #30
    938c:	00009f9c 	muleq	r0, ip, pc	; <UNPREDICTABLE>
    9390:	00009fc4 	andeq	r9, r0, r4, asr #31
    9394:	0000996c 	andeq	r9, r0, ip, ror #18
    9398:	00009ff4 	strdeq	r9, [r0], -r4

0000939c <enable_cache>:
    939c:	ee113f10 	mrc	15, 0, r3, cr1, cr0, {0}
    93a0:	e3833b06 	orr	r3, r3, #6144	; 0x1800
    93a4:	ee013f10 	mcr	15, 0, r3, cr1, cr0, {0}
    93a8:	e12fff1e 	bx	lr

000093ac <disable_cache>:
    93ac:	ee113f10 	mrc	15, 0, r3, cr1, cr0, {0}
    93b0:	e3c33b06 	bic	r3, r3, #6144	; 0x1800
    93b4:	ee013f10 	mcr	15, 0, r3, cr1, cr0, {0}
    93b8:	e12fff1e 	bx	lr

000093bc <clean_reboot>:
    93bc:	e92d4008 	push	{r3, lr}
    93c0:	eb00004a 	bl	94f0 <reboot_handler>
    93c4:	e59f3014 	ldr	r3, [pc, #20]	; 93e0 <clean_reboot+0x24>
    93c8:	e5933000 	ldr	r3, [r3]
    93cc:	e59f0010 	ldr	r0, [pc, #16]	; 93e4 <clean_reboot+0x28>
    93d0:	e12fff33 	blx	r3
    93d4:	e3a00064 	mov	r0, #100	; 0x64
    93d8:	eb000099 	bl	9644 <delay_ms>
    93dc:	eb00006a 	bl	958c <rpi_reboot>
    93e0:	0000996c 	andeq	r9, r0, ip, ror #18
    93e4:	0000a014 	andeq	sl, r0, r4, lsl r0

000093e8 <_cstart>:
    93e8:	e92d4008 	push	{r3, lr}
    93ec:	e59f3024 	ldr	r3, [pc, #36]	; 9418 <_cstart+0x30>
    93f0:	e59f2024 	ldr	r2, [pc, #36]	; 941c <_cstart+0x34>
    93f4:	e3a01000 	mov	r1, #0
    93f8:	ea000001 	b	9404 <_cstart+0x1c>
    93fc:	e5831000 	str	r1, [r3]
    9400:	e2833004 	add	r3, r3, #4
    9404:	e1530002 	cmp	r3, r2
    9408:	3afffffb 	bcc	93fc <_cstart+0x14>
    940c:	eb000036 	bl	94ec <cstart_handler>
    9410:	ebfffb35 	bl	80ec <notmain>
    9414:	ebffffe8 	bl	93bc <clean_reboot>
    9418:	0000a138 	andeq	sl, r0, r8, lsr r1
    941c:	0000a558 	andeq	sl, r0, r8, asr r5

00009420 <fast_interrupt_vector>:
    9420:	e52de004 	push	{lr}		; (str lr, [sp, #-4]!)
    9424:	e24dd00c 	sub	sp, sp, #12
    9428:	e1a04000 	mov	r4, r0
    942c:	ebfffe65 	bl	8dc8 <rpi_reset_putc>
    9430:	e59f301c 	ldr	r3, [pc, #28]	; 9454 <fast_interrupt_vector+0x34>
    9434:	e58d3000 	str	r3, [sp]
    9438:	e58d4004 	str	r4, [sp, #4]
    943c:	e59f0014 	ldr	r0, [pc, #20]	; 9458 <fast_interrupt_vector+0x38>
    9440:	e59f1014 	ldr	r1, [pc, #20]	; 945c <fast_interrupt_vector+0x3c>
    9444:	e59f2014 	ldr	r2, [pc, #20]	; 9460 <fast_interrupt_vector+0x40>
    9448:	e3a03002 	mov	r3, #2
    944c:	ebfffe42 	bl	8d5c <printk>
    9450:	ebffffd9 	bl	93bc <clean_reboot>
    9454:	0000a098 	muleq	r0, r8, r0
    9458:	0000a038 	andeq	sl, r0, r8, lsr r0
    945c:	0000a074 	andeq	sl, r0, r4, ror r0
    9460:	0000a020 	andeq	sl, r0, r0, lsr #32

00009464 <reset_vector>:
    9464:	e52de004 	push	{lr}		; (str lr, [sp, #-4]!)
    9468:	e24dd00c 	sub	sp, sp, #12
    946c:	e1a04000 	mov	r4, r0
    9470:	ebfffe54 	bl	8dc8 <rpi_reset_putc>
    9474:	e59f301c 	ldr	r3, [pc, #28]	; 9498 <reset_vector+0x34>
    9478:	e58d3000 	str	r3, [sp]
    947c:	e58d4004 	str	r4, [sp, #4]
    9480:	e59f0014 	ldr	r0, [pc, #20]	; 949c <reset_vector+0x38>
    9484:	e59f1014 	ldr	r1, [pc, #20]	; 94a0 <reset_vector+0x3c>
    9488:	e59f2014 	ldr	r2, [pc, #20]	; 94a4 <reset_vector+0x40>
    948c:	e3a03002 	mov	r3, #2
    9490:	ebfffe31 	bl	8d5c <printk>
    9494:	ebffffc8 	bl	93bc <clean_reboot>
    9498:	0000a0d4 	ldrdeq	sl, [r0], -r4
    949c:	0000a038 	andeq	sl, r0, r8, lsr r0
    94a0:	0000a0b0 	strheq	sl, [r0], -r0
    94a4:	0000a0a0 	andeq	sl, r0, r0, lsr #1

000094a8 <undefined_instruction_vector>:
    94a8:	e52de004 	push	{lr}		; (str lr, [sp, #-4]!)
    94ac:	e24dd00c 	sub	sp, sp, #12
    94b0:	e1a04000 	mov	r4, r0
    94b4:	ebfffe43 	bl	8dc8 <rpi_reset_putc>
    94b8:	e59f301c 	ldr	r3, [pc, #28]	; 94dc <undefined_instruction_vector+0x34>
    94bc:	e58d3000 	str	r3, [sp]
    94c0:	e58d4004 	str	r4, [sp, #4]
    94c4:	e59f0014 	ldr	r0, [pc, #20]	; 94e0 <undefined_instruction_vector+0x38>
    94c8:	e59f1014 	ldr	r1, [pc, #20]	; 94e4 <undefined_instruction_vector+0x3c>
    94cc:	e59f2014 	ldr	r2, [pc, #20]	; 94e8 <undefined_instruction_vector+0x40>
    94d0:	e3a03002 	mov	r3, #2
    94d4:	ebfffe20 	bl	8d5c <printk>
    94d8:	ebffffb7 	bl	93bc <clean_reboot>
    94dc:	0000a128 	andeq	sl, r0, r8, lsr #2
    94e0:	0000a038 	andeq	sl, r0, r8, lsr r0
    94e4:	0000a0fc 	strdeq	sl, [r0], -ip
    94e8:	0000a0dc 	ldrdeq	sl, [r0], -ip

000094ec <cstart_handler>:
    94ec:	e12fff1e 	bx	lr

000094f0 <reboot_handler>:
    94f0:	e12fff1e 	bx	lr

000094f4 <int_init>:
    94f4:	e92d4008 	push	{r3, lr}
    94f8:	eb00005b 	bl	966c <dev_barrier>
    94fc:	e59f004c 	ldr	r0, [pc, #76]	; 9550 <int_init+0x5c>
    9500:	e3e01000 	mvn	r1, #0
    9504:	eb000060 	bl	968c <PUT32>
    9508:	e59f0044 	ldr	r0, [pc, #68]	; 9554 <int_init+0x60>
    950c:	e3e01000 	mvn	r1, #0
    9510:	eb00005d 	bl	968c <PUT32>
    9514:	eb000054 	bl	966c <dev_barrier>
    9518:	e59f3038 	ldr	r3, [pc, #56]	; 9558 <int_init+0x64>
    951c:	e59f0038 	ldr	r0, [pc, #56]	; 955c <int_init+0x68>
    9520:	e0630000 	rsb	r0, r3, r0
    9524:	e1a00140 	asr	r0, r0, #2
    9528:	e3a03000 	mov	r3, #0
    952c:	e59fc024 	ldr	ip, [pc, #36]	; 9558 <int_init+0x64>
    9530:	ea000003 	b	9544 <int_init+0x50>
    9534:	e1a02103 	lsl	r2, r3, #2
    9538:	e79c1103 	ldr	r1, [ip, r3, lsl #2]
    953c:	e5821000 	str	r1, [r2]
    9540:	e2833001 	add	r3, r3, #1
    9544:	e1530000 	cmp	r3, r0
    9548:	3afffff9 	bcc	9534 <int_init+0x40>
    954c:	e8bd8008 	pop	{r3, pc}
    9550:	2000b21c 	andcs	fp, r0, ip, lsl r2
    9554:	2000b220 	andcs	fp, r0, r0, lsr #4
    9558:	000084c4 	andeq	r8, r0, r4, asr #9
    955c:	00008504 	andeq	r8, r0, r4, lsl #10

00009560 <at_user_level>:
    9560:	e10f0000 	mrs	r0, CPSR
    9564:	e200001f 	and	r0, r0, #31
    9568:	e3500010 	cmp	r0, #16
    956c:	13a00000 	movne	r0, #0
    9570:	03a00001 	moveq	r0, #1
    9574:	e12fff1e 	bx	lr

00009578 <set_user_level>:
    9578:	e10f3000 	mrs	r3, CPSR
    957c:	e3c3301f 	bic	r3, r3, #31
    9580:	e3833010 	orr	r3, r3, #16
    9584:	e129f003 	msr	CPSR_fc, r3
    9588:	e12fff1e 	bx	lr

0000958c <rpi_reboot>:
    958c:	e92d4008 	push	{r3, lr}
    9590:	ebfffff2 	bl	9560 <at_user_level>
    9594:	e3500000 	cmp	r0, #0
    9598:	0a000000 	beq	95a0 <rpi_reboot+0x14>
    959c:	ebfffff5 	bl	9578 <set_user_level>
    95a0:	e3a0001e 	mov	r0, #30
    95a4:	eb000026 	bl	9644 <delay_ms>
    95a8:	e59f0014 	ldr	r0, [pc, #20]	; 95c4 <rpi_reboot+0x38>
    95ac:	e59f1014 	ldr	r1, [pc, #20]	; 95c8 <rpi_reboot+0x3c>
    95b0:	eb000035 	bl	968c <PUT32>
    95b4:	e59f0010 	ldr	r0, [pc, #16]	; 95cc <rpi_reboot+0x40>
    95b8:	e59f1010 	ldr	r1, [pc, #16]	; 95d0 <rpi_reboot+0x44>
    95bc:	eb000032 	bl	968c <PUT32>
    95c0:	eafffffe 	b	95c0 <rpi_reboot+0x34>
    95c4:	20100024 	andscs	r0, r0, r4, lsr #32
    95c8:	5a000001 	bpl	95d4 <delay_cycles>
    95cc:	2010001c 	andscs	r0, r0, ip, lsl r0
    95d0:	5a000020 	bpl	9658 <delay_sec>

000095d4 <delay_cycles>:
    95d4:	ea000001 	b	95e0 <delay_cycles+0xc>
    95d8:	e2811000 	add	r1, r1, #0
    95dc:	e1a00003 	mov	r0, r3
    95e0:	e2403001 	sub	r3, r0, #1
    95e4:	e3500000 	cmp	r0, #0
    95e8:	1afffffa 	bne	95d8 <delay_cycles+0x4>
    95ec:	e12fff1e 	bx	lr

000095f0 <timer_get_usec_raw>:
    95f0:	e92d4008 	push	{r3, lr}
    95f4:	e59f0004 	ldr	r0, [pc, #4]	; 9600 <timer_get_usec_raw+0x10>
    95f8:	eb00002f 	bl	96bc <GET32>
    95fc:	e8bd8008 	pop	{r3, pc}
    9600:	20003004 	andcs	r3, r0, r4

00009604 <timer_get_usec>:
    9604:	e92d4010 	push	{r4, lr}
    9608:	eb000017 	bl	966c <dev_barrier>
    960c:	ebfffff7 	bl	95f0 <timer_get_usec_raw>
    9610:	e1a04000 	mov	r4, r0
    9614:	eb000014 	bl	966c <dev_barrier>
    9618:	e1a00004 	mov	r0, r4
    961c:	e8bd8010 	pop	{r4, pc}

00009620 <delay_us>:
    9620:	e92d4038 	push	{r3, r4, r5, lr}
    9624:	e1a05000 	mov	r5, r0
    9628:	ebfffff5 	bl	9604 <timer_get_usec>
    962c:	e1a04000 	mov	r4, r0
    9630:	ebfffff3 	bl	9604 <timer_get_usec>
    9634:	e0640000 	rsb	r0, r4, r0
    9638:	e1500005 	cmp	r0, r5
    963c:	3afffffb 	bcc	9630 <delay_us+0x10>
    9640:	e8bd8038 	pop	{r3, r4, r5, pc}

00009644 <delay_ms>:
    9644:	e92d4008 	push	{r3, lr}
    9648:	e3a03ffa 	mov	r3, #1000	; 0x3e8
    964c:	e0000093 	mul	r0, r3, r0
    9650:	ebfffff2 	bl	9620 <delay_us>
    9654:	e8bd8008 	pop	{r3, pc}

00009658 <delay_sec>:
    9658:	e92d4008 	push	{r3, lr}
    965c:	e3a03ffa 	mov	r3, #1000	; 0x3e8
    9660:	e0000093 	mul	r0, r3, r0
    9664:	ebfffff6 	bl	9644 <delay_ms>
    9668:	e8bd8008 	pop	{r3, pc}

0000966c <dev_barrier>:
    966c:	ea000002 	b	967c <dsb>

00009670 <dmb>:
    9670:	e3a00000 	mov	r0, #0
    9674:	ee070fba 	mcr	15, 0, r0, cr7, cr10, {5}
    9678:	e12fff1e 	bx	lr

0000967c <dsb>:
    967c:	ee070f9a 	mcr	15, 0, r0, cr7, cr10, {4}
    9680:	e12fff1e 	bx	lr

00009684 <put32>:
    9684:	e5801000 	str	r1, [r0]
    9688:	e12fff1e 	bx	lr

0000968c <PUT32>:
    968c:	e5801000 	str	r1, [r0]
    9690:	e12fff1e 	bx	lr

00009694 <put16>:
    9694:	e1c010b0 	strh	r1, [r0]
    9698:	e12fff1e 	bx	lr

0000969c <PUT16>:
    969c:	e1c010b0 	strh	r1, [r0]
    96a0:	e12fff1e 	bx	lr

000096a4 <put8>:
    96a4:	e5c01000 	strb	r1, [r0]
    96a8:	e12fff1e 	bx	lr

000096ac <PUT8>:
    96ac:	e5c01000 	strb	r1, [r0]
    96b0:	e12fff1e 	bx	lr

000096b4 <get32>:
    96b4:	e5900000 	ldr	r0, [r0]
    96b8:	e12fff1e 	bx	lr

000096bc <GET32>:
    96bc:	e5900000 	ldr	r0, [r0]
    96c0:	e12fff1e 	bx	lr

000096c4 <GETPC>:
    96c4:	e1a0000e 	mov	r0, lr
    96c8:	e12fff1e 	bx	lr

000096cc <dummy>:
    96cc:	e12fff1e 	bx	lr

000096d0 <or_in32>:
    96d0:	e92d4070 	push	{r4, r5, r6, lr}
    96d4:	e1a04000 	mov	r4, r0
    96d8:	e1a05001 	mov	r5, r1
    96dc:	ebfffff4 	bl	96b4 <get32>
    96e0:	e1801005 	orr	r1, r0, r5
    96e4:	e1a00004 	mov	r0, r4
    96e8:	ebffffe5 	bl	9684 <put32>
    96ec:	e8bd8070 	pop	{r4, r5, r6, pc}

000096f0 <uart_init>:
    96f0:	e92d4010 	push	{r4, lr}
    96f4:	e3a01002 	mov	r1, #2
    96f8:	e3a0000e 	mov	r0, #14
    96fc:	eb000051 	bl	9848 <gpio_set_function>
    9700:	e3a01002 	mov	r1, #2
    9704:	e3a0000f 	mov	r0, #15
    9708:	eb00004e 	bl	9848 <gpio_set_function>
    970c:	ebffffd6 	bl	966c <dev_barrier>
    9710:	e3a01001 	mov	r1, #1
    9714:	e59f0064 	ldr	r0, [pc, #100]	; 9780 <uart_init+0x90>
    9718:	ebffffec 	bl	96d0 <or_in32>
    971c:	ebffffd2 	bl	966c <dev_barrier>
    9720:	e59f405c 	ldr	r4, [pc, #92]	; 9784 <uart_init+0x94>
    9724:	e3a01000 	mov	r1, #0
    9728:	e1a00004 	mov	r0, r4
    972c:	ebffffd4 	bl	9684 <put32>
    9730:	e3a01000 	mov	r1, #0
    9734:	e59f004c 	ldr	r0, [pc, #76]	; 9788 <uart_init+0x98>
    9738:	ebffffd1 	bl	9684 <put32>
    973c:	e3a01003 	mov	r1, #3
    9740:	e59f0044 	ldr	r0, [pc, #68]	; 978c <uart_init+0x9c>
    9744:	ebffffce 	bl	9684 <put32>
    9748:	e3a01000 	mov	r1, #0
    974c:	e59f003c 	ldr	r0, [pc, #60]	; 9790 <uart_init+0xa0>
    9750:	ebffffcb 	bl	9684 <put32>
    9754:	e3a010c7 	mov	r1, #199	; 0xc7
    9758:	e59f0034 	ldr	r0, [pc, #52]	; 9794 <uart_init+0xa4>
    975c:	ebffffc8 	bl	9684 <put32>
    9760:	e59f1030 	ldr	r1, [pc, #48]	; 9798 <uart_init+0xa8>
    9764:	e59f0030 	ldr	r0, [pc, #48]	; 979c <uart_init+0xac>
    9768:	ebffffc5 	bl	9684 <put32>
    976c:	e3a01003 	mov	r1, #3
    9770:	e1a00004 	mov	r0, r4
    9774:	ebffffc2 	bl	9684 <put32>
    9778:	ebffffbb 	bl	966c <dev_barrier>
    977c:	e8bd8010 	pop	{r4, pc}
    9780:	20215004 	eorcs	r5, r1, r4
    9784:	20215060 	eorcs	r5, r1, r0, rrx
    9788:	20215044 	eorcs	r5, r1, r4, asr #32
    978c:	2021504c 	eorcs	r5, r1, ip, asr #32
    9790:	20215050 	eorcs	r5, r1, r0, asr r0
    9794:	20215048 	eorcs	r5, r1, r8, asr #32
    9798:	0000010e 	andeq	r0, r0, lr, lsl #2
    979c:	20215068 	eorcs	r5, r1, r8, rrx

000097a0 <uart_can_getc>:
    97a0:	e92d4010 	push	{r4, lr}
    97a4:	e59f0008 	ldr	r0, [pc, #8]	; 97b4 <uart_can_getc+0x14>
    97a8:	ebffffc1 	bl	96b4 <get32>
    97ac:	e2000001 	and	r0, r0, #1
    97b0:	e8bd8010 	pop	{r4, pc}
    97b4:	20215064 	eorcs	r5, r1, r4, rrx

000097b8 <uart_can_putc>:
    97b8:	e92d4010 	push	{r4, lr}
    97bc:	e59f0010 	ldr	r0, [pc, #16]	; 97d4 <uart_can_putc+0x1c>
    97c0:	ebffffbb 	bl	96b4 <get32>
    97c4:	e3100002 	tst	r0, #2
    97c8:	13a00001 	movne	r0, #1
    97cc:	03a00000 	moveq	r0, #0
    97d0:	e8bd8010 	pop	{r4, pc}
    97d4:	20215064 	eorcs	r5, r1, r4, rrx

000097d8 <uart_getc>:
    97d8:	e92d4010 	push	{r4, lr}
    97dc:	ebffffa2 	bl	966c <dev_barrier>
    97e0:	ebffffee 	bl	97a0 <uart_can_getc>
    97e4:	e3500000 	cmp	r0, #0
    97e8:	0afffffc 	beq	97e0 <uart_getc+0x8>
    97ec:	e59f0010 	ldr	r0, [pc, #16]	; 9804 <uart_getc+0x2c>
    97f0:	ebffffaf 	bl	96b4 <get32>
    97f4:	e6ef4070 	uxtb	r4, r0
    97f8:	ebffff9b 	bl	966c <dev_barrier>
    97fc:	e1a00004 	mov	r0, r4
    9800:	e8bd8010 	pop	{r4, pc}
    9804:	20215040 	eorcs	r5, r1, r0, asr #32

00009808 <uart_putc>:
    9808:	e92d4010 	push	{r4, lr}
    980c:	e1a04000 	mov	r4, r0
    9810:	ebffff95 	bl	966c <dev_barrier>
    9814:	ebffffe7 	bl	97b8 <uart_can_putc>
    9818:	e3500000 	cmp	r0, #0
    981c:	0afffffc 	beq	9814 <uart_putc+0xc>
    9820:	e6ef1074 	uxtb	r1, r4
    9824:	e59f0008 	ldr	r0, [pc, #8]	; 9834 <uart_putc+0x2c>
    9828:	ebffff95 	bl	9684 <put32>
    982c:	ebffff8e 	bl	966c <dev_barrier>
    9830:	e8bd8010 	pop	{r4, pc}
    9834:	20215040 	eorcs	r5, r1, r0, asr #32

00009838 <uart_has_data>:
    9838:	e92d4010 	push	{r4, lr}
    983c:	ebffff8a 	bl	966c <dev_barrier>
    9840:	ebffffd6 	bl	97a0 <uart_can_getc>
    9844:	e8bd8010 	pop	{r4, pc}

00009848 <gpio_set_function>:
    9848:	e350001f 	cmp	r0, #31
    984c:	812fff1e 	bxhi	lr
    9850:	e3d13007 	bics	r3, r1, #7
    9854:	112fff1e 	bxne	lr
    9858:	e92d4070 	push	{r4, r5, r6, lr}
    985c:	e1a05001 	mov	r5, r1
    9860:	e59f3044 	ldr	r3, [pc, #68]	; 98ac <gpio_set_function+0x64>
    9864:	e0832093 	umull	r2, r3, r3, r0
    9868:	e1a031a3 	lsr	r3, r3, #3
    986c:	e1a06003 	mov	r6, r3
    9870:	e0833103 	add	r3, r3, r3, lsl #2
    9874:	e1a02083 	lsl	r2, r3, #1
    9878:	e0403002 	sub	r3, r0, r2
    987c:	e0834083 	add	r4, r3, r3, lsl #1
    9880:	e2866302 	add	r6, r6, #134217728	; 0x8000000
    9884:	e2866702 	add	r6, r6, #524288	; 0x80000
    9888:	e1a06106 	lsl	r6, r6, #2
    988c:	e1a00006 	mov	r0, r6
    9890:	ebffff89 	bl	96bc <GET32>
    9894:	e3a01007 	mov	r1, #7
    9898:	e1c01411 	bic	r1, r0, r1, lsl r4
    989c:	e1811415 	orr	r1, r1, r5, lsl r4
    98a0:	e1a00006 	mov	r0, r6
    98a4:	ebffff78 	bl	968c <PUT32>
    98a8:	e8bd8070 	pop	{r4, r5, r6, pc}
    98ac:	cccccccd 	stclgt	12, cr12, [ip], {205}	; 0xcd

000098b0 <gpio_set_output>:
    98b0:	e92d4010 	push	{r4, lr}
    98b4:	e3a01001 	mov	r1, #1
    98b8:	ebffffe2 	bl	9848 <gpio_set_function>
    98bc:	e8bd8010 	pop	{r4, pc}

000098c0 <gpio_set_on>:
    98c0:	e350001f 	cmp	r0, #31
    98c4:	812fff1e 	bxhi	lr
    98c8:	e92d4010 	push	{r4, lr}
    98cc:	e3a01001 	mov	r1, #1
    98d0:	e1a01011 	lsl	r1, r1, r0
    98d4:	e59f0004 	ldr	r0, [pc, #4]	; 98e0 <gpio_set_on+0x20>
    98d8:	ebffff6b 	bl	968c <PUT32>
    98dc:	e8bd8010 	pop	{r4, pc}
    98e0:	2020001c 	eorcs	r0, r0, ip, lsl r0

000098e4 <gpio_set_off>:
    98e4:	e350001f 	cmp	r0, #31
    98e8:	812fff1e 	bxhi	lr
    98ec:	e92d4010 	push	{r4, lr}
    98f0:	e3a01001 	mov	r1, #1
    98f4:	e1a01011 	lsl	r1, r1, r0
    98f8:	e59f0004 	ldr	r0, [pc, #4]	; 9904 <gpio_set_off+0x20>
    98fc:	ebffff62 	bl	968c <PUT32>
    9900:	e8bd8010 	pop	{r4, pc}
    9904:	20200028 	eorcs	r0, r0, r8, lsr #32

00009908 <gpio_set_input>:
    9908:	e92d4010 	push	{r4, lr}
    990c:	e3a01000 	mov	r1, #0
    9910:	ebffffcc 	bl	9848 <gpio_set_function>
    9914:	e8bd8010 	pop	{r4, pc}

00009918 <gpio_write>:
    9918:	e92d4010 	push	{r4, lr}
    991c:	e3510000 	cmp	r1, #0
    9920:	1a000001 	bne	992c <gpio_write+0x14>
    9924:	ebffffee 	bl	98e4 <gpio_set_off>
    9928:	e8bd8010 	pop	{r4, pc}
    992c:	ebffffe3 	bl	98c0 <gpio_set_on>
    9930:	e8bd8010 	pop	{r4, pc}

00009934 <gpio_read>:
    9934:	e350001f 	cmp	r0, #31
    9938:	8a000007 	bhi	995c <gpio_read+0x28>
    993c:	e92d4010 	push	{r4, lr}
    9940:	e200401f 	and	r4, r0, #31
    9944:	e59f3018 	ldr	r3, [pc, #24]	; 9964 <gpio_read+0x30>
    9948:	e08302a0 	add	r0, r3, r0, lsr #5
    994c:	ebffff5a 	bl	96bc <GET32>
    9950:	e1a00430 	lsr	r0, r0, r4
    9954:	e2000001 	and	r0, r0, #1
    9958:	e8bd8010 	pop	{r4, pc}
    995c:	e3e00000 	mvn	r0, #0
    9960:	e12fff1e 	bx	lr
    9964:	20200034 	eorcs	r0, r0, r4, lsr r0

Disassembly of section .data:

00009968 <__data_start__>:
    9968:	00008db4 			; <UNDEFINED> instruction: 0x00008db4

0000996c <putk>:
    996c:	00008df0 	strdeq	r8, [r0], -r0

Disassembly of section .rodata:

00009970 <C.0.4400-0x88>:
    9970:	494e4150 	stmdbmi	lr, {r4, r6, r8, lr}^
    9974:	73253a43 	teqvc	r5, #274432	; 0x43000
    9978:	3a73253a 	bcc	1cd2e68 <__bss_end__+0x1cc8910>
    997c:	633a6425 	teqvs	sl, #620756992	; 0x25000000
    9980:	6b636568 	blvs	18e2f28 <__bss_end__+0x18d89d0>
    9984:	6f687320 	svcvs	0x00687320
    9988:	20646c75 	rsbcs	r6, r4, r5, ror ip
    998c:	65766168 	ldrbvs	r6, [r6, #-360]!	; 0x168
    9990:	69616620 	stmdbvs	r1!, {r5, r9, sl, sp, lr}^
    9994:	2164656c 	cmncs	r4, ip, ror #10
    9998:	00000a0a 	andeq	r0, r0, sl, lsl #20
    999c:	74736574 	ldrbtvc	r6, [r3], #-1396	; 0x574
    99a0:	36312f73 	shsub16cc	r2, r1, r3
    99a4:	7261702d 	rsbvc	r7, r1, #45	; 0x2d
    99a8:	742d3274 	strtvc	r3, [sp], #-628	; 0x274
    99ac:	34747365 	ldrbtcc	r7, [r4], #-869	; 0x365
    99b0:	0000632e 	andeq	r6, r0, lr, lsr #6
    99b4:	43435553 	movtmi	r5, #13651	; 0x3553
    99b8:	3a535345 	bcc	14de6d4 <__bss_end__+0x14d417c>
    99bc:	00000000 	andeq	r0, r0, r0
    99c0:	63656863 	cmnvs	r5, #6488064	; 0x630000
    99c4:	6166206b 	cmnvs	r6, fp, rrx
    99c8:	64656c69 	strbtvs	r6, [r5], #-3177	; 0xc69
    99cc:	20736120 	rsbscs	r6, r3, r0, lsr #2
    99d0:	73207469 	teqvc	r0, #1761607680	; 0x69000000
    99d4:	6c756f68 	ldclvs	15, cr6, [r5], #-416	; 0xfffffe60
    99d8:	61682064 	cmnvs	r8, r4, rrx
    99dc:	202c6576 	eorcs	r6, ip, r6, ror r5
    99e0:	6972746e 	ldmdbvs	r2!, {r1, r2, r3, r5, r6, sl, ip, sp, lr}^
    99e4:	3d736c61 	ldclcc	12, cr6, [r3, #-388]!	; 0xfffffe7c
    99e8:	202c6425 	eorcs	r6, ip, r5, lsr #8
    99ec:	7272656e 	rsbsvc	r6, r2, #461373440	; 0x1b800000
    99f0:	3d73726f 	lfmcc	f7, 2, [r3, #-444]!	; 0xfffffe44
    99f4:	000a6425 	andeq	r6, sl, r5, lsr #8

000099f8 <C.0.4400>:
    99f8:	00000000 	andeq	r0, r0, r0
    99fc:	00008020 	andeq	r8, r0, r0, lsr #32
    9a00:	00008038 	andeq	r8, r0, r8, lsr r0
    9a04:	00008050 	andeq	r8, r0, r0, asr r0
    9a08:	00008064 	andeq	r8, r0, r4, rrx
	...

00009a2c <__FUNCTION__.4406>:
    9a2c:	6d746f6e 	ldclvs	15, cr6, [r4, #-440]!	; 0xfffffe48
    9a30:	006e6961 	rsbeq	r6, lr, r1, ror #18
    9a34:	494e4150 	stmdbmi	lr, {r4, r6, r8, lr}^
    9a38:	73253a43 	teqvc	r5, #274432	; 0x43000
    9a3c:	3a73253a 	bcc	1cd2f2c <__bss_end__+0x1cc89d4>
    9a40:	253a6425 	ldrcs	r6, [sl, #-1061]!	; 0x425
    9a44:	00000a73 	andeq	r0, r0, r3, ror sl
    9a48:	34317063 	ldrtcc	r7, [r1], #-99	; 0x63
    9a4c:	6265642d 	rsbvs	r6, r5, #754974720	; 0x2d000000
    9a50:	632e6775 	teqvs	lr, #30670848	; 0x1d40000
    9a54:	00000000 	andeq	r0, r0, r0
    9a58:	30726377 	rsbscc	r6, r2, r7, ror r3
    9a5c:	6765725f 			; <UNDEFINED> instruction: 0x6765725f
    9a60:	203d3d20 	eorscs	r3, sp, r0, lsr #26
    9a64:	30726377 	rsbscc	r6, r2, r7, ror r3
    9a68:	7465675f 	strbtvc	r6, [r5], #-1887	; 0x75f
    9a6c:	00002928 	andeq	r2, r0, r8, lsr #18
    9a70:	494e4150 	stmdbmi	lr, {r4, r6, r8, lr}^
    9a74:	73253a43 	teqvc	r5, #274432	; 0x43000
    9a78:	3a73253a 	bcc	1cd2f68 <__bss_end__+0x1cc8a10>
    9a7c:	693a6425 	ldmdbvs	sl!, {r0, r2, r5, sl, sp, lr}
    9a80:	736f706d 	cmnvc	pc, #109	; 0x6d
    9a84:	6c626973 	stclvs	9, cr6, [r2], #-460	; 0xfffffe34
    9a88:	73203a65 	teqvc	r0, #413696	; 0x65000
    9a8c:	6c756f68 	ldclvs	15, cr6, [r5], #-416	; 0xfffffe60
    9a90:	6e6f2064 	cdpvs	0, 6, cr2, cr15, cr4, {3}
    9a94:	6720796c 	strvs	r7, [r0, -ip, ror #18]!
    9a98:	64207465 	strtvs	r7, [r0], #-1125	; 0x465
    9a9c:	66617461 	strbtvs	r7, [r1], -r1, ror #8
    9aa0:	746c7561 	strbtvc	r7, [ip], #-1377	; 0x561
    9aa4:	000a0a73 	andeq	r0, sl, r3, ror sl
    9aa8:	34317063 	ldrtcc	r7, [r1], #-99	; 0x63
    9aac:	6265642d 	rsbvs	r6, r5, #754974720	; 0x2d000000
    9ab0:	682e6775 	stmdavs	lr!, {r0, r2, r4, r5, r6, r8, r9, sl, sp, lr}
    9ab4:	00000000 	andeq	r0, r0, r0
    9ab8:	72616677 	rsbvc	r6, r1, #124780544	; 0x7700000
    9abc:	7465675f 	strbtvc	r6, [r5], #-1887	; 0x75f
    9ac0:	342d2928 	strtcc	r2, [sp], #-2344	; 0x928
    9ac4:	203d3d20 	eorscs	r3, sp, r0, lsr #26
    9ac8:	00006370 	andeq	r6, r0, r0, ror r3
    9acc:	63746177 	cmnvs	r4, #-1073741795	; 0xc000001d
    9ad0:	5f747068 	svcpl	0x00747068
    9ad4:	646e6168 	strbtvs	r6, [lr], #-360	; 0x168
    9ad8:	3072656c 	rsbscc	r6, r2, ip, ror #10
    9adc:	00000000 	andeq	r0, r0, r0
    9ae0:	494e4150 	stmdbmi	lr, {r4, r6, r8, lr}^
    9ae4:	73253a43 	teqvc	r5, #274432	; 0x43000
    9ae8:	3a73253a 	bcc	1cd2fd8 <__bss_end__+0x1cc8a80>
    9aec:	693a6425 	ldmdbvs	sl!, {r0, r2, r5, sl, sp, lr}
    9af0:	736f706d 	cmnvc	pc, #109	; 0x6d
    9af4:	6c626973 	stclvs	9, cr6, [r2], #-460	; 0xfffffe34
    9af8:	73203a65 	teqvc	r0, #413696	; 0x65000
    9afc:	6c756f68 	ldclvs	15, cr6, [r5], #-416	; 0xfffffe60
    9b00:	65672064 	strbvs	r2, [r7, #-100]!	; 0x64
    9b04:	6f6e2074 	svcvs	0x006e2074
    9b08:	68746f20 	ldmdavs	r4!, {r5, r8, r9, sl, fp, sp, lr}^
    9b0c:	66207265 	strtvs	r7, [r0], -r5, ror #4
    9b10:	746c7561 	strbtvc	r7, [ip], #-1377	; 0x561
    9b14:	000a0a73 	andeq	r0, sl, r3, ror sl
    9b18:	706b7262 	rsbvc	r7, fp, r2, ror #4
    9b1c:	61685f74 	smcvs	34292	; 0x85f4
    9b20:	656c646e 	strbvs	r6, [ip, #-1134]!	; 0x46e
    9b24:	00003072 	andeq	r3, r0, r2, ror r0
    9b28:	494e4150 	stmdbmi	lr, {r4, r6, r8, lr}^
    9b2c:	73253a43 	teqvc	r5, #274432	; 0x43000
    9b30:	3a73253a 	bcc	1cd3020 <__bss_end__+0x1cc8ac8>
    9b34:	723a6425 	eorsvc	r6, sl, #620756992	; 0x25000000
    9b38:	72757465 	rsbsvc	r7, r5, #1694498816	; 0x65000000
    9b3c:	2064656e 	rsbcs	r6, r4, lr, ror #10
    9b40:	20646e61 	rsbcs	r6, r4, r1, ror #28
    9b44:	756f6873 	strbvc	r6, [pc, #-2163]!	; 92d9 <va_printk+0x211>
    9b48:	6e20646c 	cdpvs	4, 2, cr6, cr0, cr12, {3}
    9b4c:	6820746f 	stmdavs	r0!, {r0, r1, r2, r3, r5, r6, sl, ip, sp, lr}
    9b50:	21657661 	cmncs	r5, r1, ror #12
    9b54:	00000a0a 	andeq	r0, r0, sl, lsl #20
    9b58:	656c6c69 	strbvs	r6, [ip, #-3177]!	; 0xc69
    9b5c:	206c6167 	rsbcs	r6, ip, r7, ror #2
    9b60:	74737973 	ldrbtvc	r7, [r3], #-2419	; 0x973
    9b64:	63206d65 	teqvs	r0, #6464	; 0x1940
    9b68:	206c6c61 	rsbcs	r6, ip, r1, ror #24
    9b6c:	000a6425 	andeq	r6, sl, r5, lsr #8

00009b70 <__FUNCTION__.4393>:
    9b70:	63746177 	cmnvs	r4, #-1073741795	; 0xc000001d
    9b74:	5f747068 	svcpl	0x00747068
    9b78:	30746573 	rsbscc	r6, r4, r3, ror r5
    9b7c:	00000000 	andeq	r0, r0, r0

00009b80 <__FUNCTION__.4399>:
    9b80:	61746164 	cmnvs	r4, r4, ror #2
    9b84:	6f62615f 	svcvs	0x0062615f
    9b88:	765f7472 			; <UNDEFINED> instruction: 0x765f7472
    9b8c:	6f746365 	svcvs	0x00746365
    9b90:	00000072 	andeq	r0, r0, r2, ror r0

00009b94 <__FUNCTION__.4306>:
    9b94:	5f736177 	svcpl	0x00736177
    9b98:	75626564 	strbvc	r6, [r2, #-1380]!	; 0x564
    9b9c:	61645f67 	cmnvs	r4, r7, ror #30
    9ba0:	61666174 	smcvs	26132	; 0x6614
    9ba4:	00746c75 	rsbseq	r6, r4, r5, ror ip

00009ba8 <__FUNCTION__.4443>:
    9ba8:	66657270 			; <UNDEFINED> instruction: 0x66657270
    9bac:	68637465 	stmdavs	r3!, {r0, r2, r5, r6, sl, ip, sp, lr}^
    9bb0:	6f62615f 	svcvs	0x0062615f
    9bb4:	765f7472 			; <UNDEFINED> instruction: 0x765f7472
    9bb8:	6f746365 	svcvs	0x00746365
    9bbc:	00000072 	andeq	r0, r0, r2, ror r0

00009bc0 <__FUNCTION__.4451>:
    9bc0:	5f6b7262 	svcpl	0x006b7262
    9bc4:	725f6f6e 	subsvc	r6, pc, #440	; 0x1b8
    9bc8:	655f7465 	ldrbvs	r7, [pc, #-1125]	; 976b <uart_init+0x7b>
    9bcc:	726f7272 	rsbvc	r7, pc, #536870919	; 0x20000007
    9bd0:	00000000 	andeq	r0, r0, r0
    9bd4:	253a7325 	ldrcs	r7, [sl, #-805]!	; 0x325
    9bd8:	64253a73 	strtvs	r3, [r5], #-2675	; 0xa73
    9bdc:	6572703a 	ldrbvs	r7, [r2, #-58]!	; 0x3a
    9be0:	63746566 	cmnvs	r4, #427819008	; 0x19800000
    9be4:	62612068 	rsbvs	r2, r1, #104	; 0x68
    9be8:	2074726f 	rsbscs	r7, r4, pc, ror #4
    9bec:	25207461 	strcs	r7, [r0, #-1121]!	; 0x461
    9bf0:	00000a70 	andeq	r0, r0, r0, ror sl
    9bf4:	63656863 	cmnvs	r5, #6488064	; 0x630000
    9bf8:	6e692d6b 	cdpvs	13, 6, cr2, cr9, cr11, {3}
    9bfc:	6c726574 	cfldr64vs	mvdx6, [r2], #-464	; 0xfffffe30
    9c00:	65766165 	ldrbvs	r6, [r6, #-357]!	; 0x165
    9c04:	0000632e 	andeq	r6, r0, lr, lsr #6
    9c08:	756f6261 	strbvc	r6, [pc, #-609]!	; 99af <__data_end__+0x3f>
    9c0c:	6f742074 	svcvs	0x00742074
    9c10:	69777320 	ldmdbvs	r7!, {r5, r8, r9, ip, sp, lr}^
    9c14:	20686374 	rsbcs	r6, r8, r4, ror r3
    9c18:	6d6f7266 	sfmvs	f7, 2, [pc, #-408]!	; 9a88 <__FUNCTION__.4406+0x5c>
    9c1c:	20702520 	rsbscs	r2, r0, r0, lsr #10
    9c20:	25206f74 	strcs	r6, [r0, #-3956]!	; 0xf74
    9c24:	00000a70 	andeq	r0, r0, r0, ror sl
    9c28:	656e6f64 	strbvs	r6, [lr, #-3940]!	; 0xf64
    9c2c:	6e757220 	cdpvs	2, 7, cr7, cr5, cr0, {1}
    9c30:	676e696e 	strbvs	r6, [lr, -lr, ror #18]!
    9c34:	202c4220 	eorcs	r4, ip, r0, lsr #4
    9c38:	6e696f67 	cdpvs	15, 6, cr6, cr9, cr7, {3}
    9c3c:	6f742067 	svcvs	0x00742067
    9c40:	74657220 	strbtvc	r7, [r5], #-544	; 0x220
    9c44:	206e7275 	rsbcs	r7, lr, r5, ror r2
    9c48:	41206f74 	teqmi	r0, r4, ror pc
    9c4c:	0000000a 	andeq	r0, r0, sl
    9c50:	693e2d63 	ldmdbvs	lr!, {r0, r1, r5, r6, r8, sl, fp, sp}
    9c54:	5f74736e 	svcpl	0x0074736e
    9c58:	6e756f63 	cdpvs	15, 7, cr6, cr5, cr3, {3}
    9c5c:	203c2074 	eorscs	r2, ip, r4, ror r0
    9c60:	733e2d63 	teqvc	lr, #6336	; 0x18c0
    9c64:	63746977 	cmnvs	r4, #1949696	; 0x1dc000
    9c68:	6e6f5f68 	cdpvs	15, 6, cr5, cr15, cr8, {3}
    9c6c:	736e695f 	cmnvc	lr, #1556480	; 0x17c000
    9c70:	006e5f74 	rsbeq	r5, lr, r4, ror pc
    9c74:	253a7325 	ldrcs	r7, [sl, #-805]!	; 0x325
    9c78:	64253a73 	strtvs	r3, [r5], #-2675	; 0xa73
    9c7c:	7465733a 	strbtvc	r7, [r5], #-826	; 0x33a
    9c80:	676e6974 			; <UNDEFINED> instruction: 0x676e6974
    9c84:	20707520 	rsbscs	r7, r0, r0, lsr #10
    9c88:	696d2061 	stmdbvs	sp!, {r0, r5, r6, sp}^
    9c8c:	74616d73 	strbtvc	r6, [r1], #-3443	; 0xd73
    9c90:	6f206863 	svcvs	0x00206863
    9c94:	7025206e 	eorvc	r2, r5, lr, rrx
    9c98:	0000000a 	andeq	r0, r0, sl
    9c9c:	253a7325 	ldrcs	r7, [sl, #-805]!	; 0x325
    9ca0:	64253a73 	strtvs	r3, [r5], #-2675	; 0xa73
    9ca4:	6e6f643a 	mcrvs	4, 3, r6, cr15, cr10, {1}
    9ca8:	65732065 	ldrbvs	r2, [r3, #-101]!	; 0x65
    9cac:	6e697474 	mcrvs	4, 3, r7, cr9, cr4, {3}
    9cb0:	70752067 	rsbsvc	r2, r5, r7, rrx
    9cb4:	6d206120 	stfvss	f6, [r0, #-128]!	; 0xffffff80
    9cb8:	616d7369 	cmnvs	sp, r9, ror #6
    9cbc:	20686374 	rsbcs	r6, r8, r4, ror r3
    9cc0:	25206e6f 	strcs	r6, [r0, #-3695]!	; 0xe6f
    9cc4:	00000a70 	andeq	r0, r0, r0, ror sl
    9cc8:	52455355 	subpl	r5, r5, #1409286145	; 0x54000001
    9ccc:	444f4d20 	strbmi	r4, [pc], #-3360	; 9cd4 <__FUNCTION__.4451+0x114>
    9cd0:	00000045 	andeq	r0, r0, r5, asr #32
    9cd4:	20514946 	subscs	r4, r1, r6, asr #18
    9cd8:	45444f4d 	strbmi	r4, [r4, #-3917]	; 0xf4d
    9cdc:	00000000 	andeq	r0, r0, r0
    9ce0:	20515249 	subscs	r5, r1, r9, asr #4
    9ce4:	45444f4d 	strbmi	r4, [r4, #-3917]	; 0xf4d
    9ce8:	00000000 	andeq	r0, r0, r0
    9cec:	45505553 	ldrbmi	r5, [r0, #-1363]	; 0x553
    9cf0:	4f4d2052 	svcmi	0x004d2052
    9cf4:	00004544 	andeq	r4, r0, r4, asr #10
    9cf8:	524f4241 	subpl	r4, pc, #268435460	; 0x10000004
    9cfc:	4f4d2054 	svcmi	0x004d2054
    9d00:	00004544 	andeq	r4, r0, r4, asr #10
    9d04:	45444e55 	strbmi	r4, [r4, #-3669]	; 0xe55
    9d08:	4f4d2046 	svcmi	0x004d2046
    9d0c:	00004544 	andeq	r4, r0, r4, asr #10
    9d10:	20535953 	subscs	r5, r3, r3, asr r9
    9d14:	45444f4d 	strbmi	r4, [r4, #-3917]	; 0xf4d
    9d18:	00000000 	andeq	r0, r0, r0
    9d1c:	253a7325 	ldrcs	r7, [sl, #-805]!	; 0x325
    9d20:	64253a73 	strtvs	r3, [r5], #-2675	; 0xa73
    9d24:	6972743a 	ldmdbvs	r2!, {r1, r3, r4, r5, sl, ip, sp, lr}^
    9d28:	253d6c61 	ldrcs	r6, [sp, #-3169]!	; 0xc61
    9d2c:	61203a64 	teqvs	r0, r4, ror #20
    9d30:	74756f62 	ldrbtvc	r6, [r5], #-3938	; 0xf62
    9d34:	206f7420 	rsbcs	r7, pc, r0, lsr #8
    9d38:	20746573 	rsbscs	r6, r4, r3, ror r5
    9d3c:	6d73696d 	ldclvs	9, cr6, [r3, #-436]!	; 0xfffffe4c
    9d40:	68637461 	stmdavs	r3!, {r0, r5, r6, sl, ip, sp, lr}^
    9d44:	6b726220 	blvs	1ca25cc <__bss_end__+0x1c98074>
    9d48:	66207470 			; <UNDEFINED> instruction: 0x66207470
    9d4c:	4120726f 	teqmi	r0, pc, ror #4
    9d50:	0000000a 	andeq	r0, r0, sl
    9d54:	4f525245 	svcmi	0x00525245
    9d58:	63203a52 	teqvs	r0, #335872	; 0x52000
    9d5c:	6b636568 	blvs	18e3304 <__bss_end__+0x18d8dac>
    9d60:	69616620 	stmdbvs	r1!, {r5, r9, sl, sp, lr}^
    9d64:	2064656c 	rsbcs	r6, r4, ip, ror #10
    9d68:	6e656877 	mcrvs	8, 3, r6, cr5, cr7, {3}
    9d6c:	69777320 	ldmdbvs	r7!, {r5, r8, r9, ip, sp, lr}^
    9d70:	65686374 	strbvs	r6, [r8, #-884]!	; 0x374
    9d74:	6e6f2064 	cdpvs	0, 6, cr2, cr15, cr4, {3}
    9d78:	64646120 	strbtvs	r6, [r4], #-288	; 0x120
    9d7c:	73736572 	cmnvc	r3, #478150656	; 0x1c800000
    9d80:	2c702520 	cfldr64cs	mvdx2, [r0], #-128	; 0xffffff80
    9d84:	74666120 	strbtvc	r6, [r6], #-288	; 0x120
    9d88:	25207265 	strcs	r7, [r0, #-613]!	; 0x265
    9d8c:	6e692064 	cdpvs	0, 6, cr2, cr9, cr4, {3}
    9d90:	75727473 	ldrbvc	r7, [r2, #-1139]!	; 0x473
    9d94:	6f697463 	svcvs	0x00697463
    9d98:	000a736e 	andeq	r7, sl, lr, ror #6
    9d9c:	656e6f64 	strbvs	r6, [lr, #-3940]!	; 0xf64
    9da0:	64202021 	strtvs	r2, [r0], #-33	; 0x21
    9da4:	63206469 	teqvs	r0, #1761607680	; 0x69000000
    9da8:	736e3e2d 	cmnvc	lr, #720	; 0x2d0
    9dac:	63746977 	cmnvs	r4, #1949696	; 0x1dc000
    9db0:	3d736568 	cfldr64cc	mvdx6, [r3, #-416]!	; 0xfffffe60
    9db4:	202c6425 	eorcs	r6, ip, r5, lsr #8
    9db8:	6972746e 	ldmdbvs	r2!, {r1, r2, r3, r5, r6, sl, ip, sp, lr}^
    9dbc:	3d736c61 	ldclcc	12, cr6, [r3, #-388]!	; 0xfffffe7c
    9dc0:	202c6425 	eorcs	r6, ip, r5, lsr #8
    9dc4:	7272656e 	rsbsvc	r6, r2, #461373440	; 0x1b800000
    9dc8:	3d73726f 	lfmcc	f7, 2, [r3, #-444]!	; 0xfffffe44
    9dcc:	000a6425 	andeq	r6, sl, r5, lsr #8
    9dd0:	72737063 	rsbsvc	r7, r3, #99	; 0x63
    9dd4:	6974752d 	ldmdbvs	r4!, {r0, r2, r3, r5, r8, sl, ip, sp, lr}^
    9dd8:	00682e6c 	rsbeq	r2, r8, ip, ror #28
    9ddc:	65646f6d 	strbvs	r6, [r4, #-3949]!	; 0xf6d
    9de0:	67656c5f 			; <UNDEFINED> instruction: 0x67656c5f
    9de4:	6d286c61 	stcvs	12, cr6, [r8, #-388]!	; 0xfffffe7c
    9de8:	2965646f 	stmdbcs	r5!, {r0, r1, r2, r3, r5, r6, sl, sp, lr}^
    9dec:	00000000 	andeq	r0, r0, r0
    9df0:	494e4150 	stmdbmi	lr, {r4, r6, r8, lr}^
    9df4:	73253a43 	teqvc	r5, #274432	; 0x43000
    9df8:	3a73253a 	bcc	1cd32e8 <__bss_end__+0x1cc8d90>
    9dfc:	753a6425 	ldrvc	r6, [sl, #-1061]!	; 0x425
    9e00:	6f6e6b6e 	svcvs	0x006e6b6e
    9e04:	6d206e77 	stcvs	14, cr6, [r0, #-476]!	; 0xfffffe24
    9e08:	3a65646f 	bcc	1962fcc <__bss_end__+0x1958a74>
    9e0c:	78253c20 	stmdavc	r5!, {r5, sl, fp, ip, sp}
    9e10:	000a0a3e 	andeq	r0, sl, lr, lsr sl
    9e14:	65707865 	ldrbvs	r7, [r0, #-2149]!	; 0x865
    9e18:	64657463 	strbtvs	r7, [r5], #-1123	; 0x463
    9e1c:	646f6d20 	strbtvs	r6, [pc], #-3360	; 9e24 <__FUNCTION__.4451+0x264>
    9e20:	203d2065 	eorscs	r2, sp, r5, rrx
    9e24:	28207325 	stmdacs	r0!, {r0, r2, r5, r8, r9, ip, sp, lr}
    9e28:	0a297825 	beq	a67ec4 <__bss_end__+0xa5d96c>
    9e2c:	00000000 	andeq	r0, r0, r0
    9e30:	72727563 	rsbsvc	r7, r2, #415236096	; 0x18c00000
    9e34:	20746e65 	rsbscs	r6, r4, r5, ror #28
    9e38:	65646f6d 	strbvs	r6, [r4, #-3949]!	; 0xf6d
    9e3c:	25203d20 	strcs	r3, [r0, #-3360]!	; 0xd20
    9e40:	25282073 	strcs	r2, [r8, #-115]!	; 0x73
    9e44:	000a2978 	andeq	r2, sl, r8, ror r9
    9e48:	65646f6d 	strbvs	r6, [r4, #-3949]!	; 0xf6d
    9e4c:	7465675f 	strbtvc	r6, [r5], #-1887	; 0x75f
    9e50:	73706328 	cmnvc	r0, #40, 6	; 0xa0000000
    9e54:	6c6f5f72 	stclvs	15, cr5, [pc], #-456	; 9c94 <__FUNCTION__.4451+0xd4>
    9e58:	3d202964 	stccc	9, cr2, [r0, #-400]!	; 0xfffffe70
    9e5c:	6f6d203d 	svcvs	0x006d203d
    9e60:	675f6564 	ldrbvs	r6, [pc, -r4, ror #10]
    9e64:	63287465 	teqvs	r8, #1694498816	; 0x65000000
    9e68:	5f727370 	svcpl	0x00727370
    9e6c:	28746567 	ldmdacs	r4!, {r0, r1, r2, r5, r6, r8, sl, sp, lr}^
    9e70:	00002929 	andeq	r2, r0, r9, lsr #18
    9e74:	494e4150 	stmdbmi	lr, {r4, r6, r8, lr}^
    9e78:	73253a43 	teqvc	r5, #274432	; 0x43000
    9e7c:	3a73253a 	bcc	1cd336c <__bss_end__+0x1cc8e14>
    9e80:	633a6425 	teqvs	sl, #620756992	; 0x25000000
    9e84:	6b636568 	blvs	18e342c <__bss_end__+0x18d8ed4>
    9e88:	69616620 	stmdbvs	r1!, {r5, r9, sl, sp, lr}^
    9e8c:	2064656c 	rsbcs	r6, r4, ip, ror #10
    9e90:	75716573 	ldrbvc	r6, [r1, #-1395]!	; 0x573
    9e94:	69746e65 	ldmdbvs	r4!, {r0, r2, r5, r6, r9, sl, fp, sp, lr}^
    9e98:	796c6c61 	stmdbvc	ip!, {r0, r5, r6, sl, fp, sp, lr}^
    9e9c:	6f63203a 	svcvs	0x0063203a
    9ea0:	69206564 	stmdbvs	r0!, {r2, r5, r6, r8, sl, sp, lr}
    9ea4:	72622073 	rsbvc	r2, r2, #115	; 0x73
    9ea8:	6e656b6f 	vnmulvs.f64	d22, d5, d31
    9eac:	00000a0a 	andeq	r0, r0, sl, lsl #20

00009eb0 <__FUNCTION__.4431>:
    9eb0:	63656863 	cmnvs	r5, #6488064	; 0x630000
    9eb4:	65735f6b 	ldrbvs	r5, [r3, #-3947]!	; 0xf6b
    9eb8:	6e657571 	mcrvs	5, 3, r7, cr5, cr1, {3}
    9ebc:	6c616974 	stclvs	9, cr6, [r1], #-464	; 0xfffffe30
    9ec0:	00000000 	andeq	r0, r0, r0

00009ec4 <__FUNCTION__.4423>:
    9ec4:	63656863 	cmnvs	r5, #6488064	; 0x630000
    9ec8:	6e6f5f6b 	cdpvs	15, 6, cr5, cr15, cr11, {3}
    9ecc:	73635f65 	cmnvc	r3, #404	; 0x194
    9ed0:	63746977 	cmnvs	r4, #1949696	; 0x1dc000
    9ed4:	00000068 	andeq	r0, r0, r8, rrx

00009ed8 <__FUNCTION__.4416>:
    9ed8:	676e6973 			; <UNDEFINED> instruction: 0x676e6973
    9edc:	735f656c 	cmpvc	pc, #108, 10	; 0x1b000000
    9ee0:	5f706574 	svcpl	0x00706574
    9ee4:	646e6168 	strbtvs	r6, [lr], #-360	; 0x168
    9ee8:	0072656c 	rsbseq	r6, r2, ip, ror #10

00009eec <__FUNCTION__.4396>:
    9eec:	65646f6d 	strbvs	r6, [r4, #-3949]!	; 0xf6d
    9ef0:	7465735f 	strbtvc	r7, [r5], #-863	; 0x35f
    9ef4:	00000000 	andeq	r0, r0, r0

00009ef8 <__FUNCTION__.4258>:
    9ef8:	73746962 	cmnvc	r4, #1605632	; 0x188000
    9efc:	726c635f 	rsbvc	r6, ip, #2080374785	; 0x7c000001
    9f00:	00000000 	andeq	r0, r0, r0

00009f04 <__FUNCTION__.4408>:
    9f04:	65646f6d 	strbvs	r6, [r4, #-3949]!	; 0xf6d
    9f08:	7274735f 	rsbsvc	r7, r4, #2080374785	; 0x7c000001
    9f0c:	00000000 	andeq	r0, r0, r0

00009f10 <__FUNCTION__.4391>:
    9f10:	65646f6d 	strbvs	r6, [r4, #-3949]!	; 0xf6d
    9f14:	7465675f 	strbtvc	r6, [r5], #-1887	; 0x75f
    9f18:	00000000 	andeq	r0, r0, r0

00009f1c <__FUNCTION__.4251>:
    9f1c:	73746962 	cmnvc	r4, #1605632	; 0x188000
    9f20:	7465675f 	strbtvc	r6, [r5], #-1887	; 0x75f
    9f24:	00000000 	andeq	r0, r0, r0

00009f28 <__FUNCTION__.4249>:
    9f28:	74696d65 	strbtvc	r6, [r9], #-3429	; 0xd65
    9f2c:	00000000 	andeq	r0, r0, r0

00009f30 <__FUNCTION__.4197>:
    9f30:	5f697072 	svcpl	0x00697072
    9f34:	5f746573 	svcpl	0x00746573
    9f38:	7074756f 	rsbsvc	r7, r4, pc, ror #10
    9f3c:	00007475 	andeq	r7, r0, r5, ror r4

00009f40 <__FUNCTION__.4272>:
    9f40:	705f6176 	subsvc	r6, pc, r6, ror r1	; <UNPREDICTABLE>
    9f44:	746e6972 	strbtvc	r6, [lr], #-2418	; 0x972
    9f48:	0000006b 	andeq	r0, r0, fp, rrx
    9f4c:	6362696c 	cmnvs	r2, #108, 18	; 0x1b0000
    9f50:	2d61762f 	stclcs	6, cr7, [r1, #-188]!	; 0xffffff44
    9f54:	6e697270 	mcrvs	2, 3, r7, cr9, cr0, {3}
    9f58:	632e6b74 	teqvs	lr, #116, 22	; 0x1d000
    9f5c:	00000000 	andeq	r0, r0, r0
    9f60:	00000030 	andeq	r0, r0, r0, lsr r0
    9f64:	33323130 	teqcc	r2, #48, 2
    9f68:	37363534 			; <UNDEFINED> instruction: 0x37363534
    9f6c:	00003938 	andeq	r3, r0, r8, lsr r9
    9f70:	33323130 	teqcc	r2, #48, 2
    9f74:	37363534 			; <UNDEFINED> instruction: 0x37363534
    9f78:	62613938 	rsbvs	r3, r1, #56, 18	; 0xe0000
    9f7c:	66656463 	strbtvs	r6, [r5], -r3, ror #8
    9f80:	00000000 	andeq	r0, r0, r0
    9f84:	00003130 	andeq	r3, r0, r0, lsr r1
    9f88:	63747570 	cmnvs	r4, #112, 10	; 0x1c000000
    9f8c:	0070665f 	rsbseq	r6, r0, pc, asr r6
    9f90:	74646977 	strbtvc	r6, [r4], #-2423	; 0x977
    9f94:	203c2068 	eorscs	r2, ip, r8, rrx
    9f98:	00003233 	andeq	r3, r0, r3, lsr r2
    9f9c:	494e4150 	stmdbmi	lr, {r4, r6, r8, lr}^
    9fa0:	73253a43 	teqvc	r5, #274432	; 0x43000
    9fa4:	3a73253a 	bcc	1cd3494 <__bss_end__+0x1cc8f3c>
    9fa8:	663a6425 	ldrtvs	r6, [sl], -r5, lsr #8
    9fac:	74616f6c 	strbtvc	r6, [r1], #-3948	; 0xf6c
    9fb0:	746f6e20 	strbtvc	r6, [pc], #-3616	; 9fb8 <__FUNCTION__.4272+0x78>
    9fb4:	616e6520 	cmnvs	lr, r0, lsr #10
    9fb8:	64656c62 	strbtvs	r6, [r5], #-3170	; 0xc62
    9fbc:	0a212121 	beq	852448 <__bss_end__+0x847ef0>
    9fc0:	00000000 	andeq	r0, r0, r0
    9fc4:	6e697270 	mcrvs	2, 3, r7, cr9, cr0, {3}
    9fc8:	203a6b74 	eorscs	r6, sl, r4, ror fp
    9fcc:	20746f6e 	rsbscs	r6, r4, lr, ror #30
    9fd0:	646e6168 	strbtvs	r6, [lr], #-360	; 0x168
    9fd4:	676e696c 	strbvs	r6, [lr, -ip, ror #18]!
    9fd8:	65707320 	ldrbvs	r7, [r0, #-800]!	; 0x320
    9fdc:	69666963 	stmdbvs	r6!, {r0, r1, r5, r6, r8, fp, sp, lr}^
    9fe0:	27207265 	strcs	r7, [r0, -r5, ror #4]!
    9fe4:	20276325 	eorcs	r6, r7, r5, lsr #6
    9fe8:	63736128 	cmnvs	r3, #40, 2
    9fec:	253d6969 	ldrcs	r6, [sp, #-2409]!	; 0x969
    9ff0:	000a2964 	andeq	r2, sl, r4, ror #18
    9ff4:	494e4150 	stmdbmi	lr, {r4, r6, r8, lr}^
    9ff8:	73253a43 	teqvc	r5, #274432	; 0x43000
    9ffc:	3a73253a 	bcc	1cd34ec <__bss_end__+0x1cc8f94>
    a000:	703a6425 	eorsvc	r6, sl, r5, lsr #8
    a004:	746e6972 	strbtvc	r6, [lr], #-2418	; 0x972
    a008:	7265206b 	rsbvc	r2, r5, #107	; 0x6b
    a00c:	0a726f72 	beq	1ca5ddc <__bss_end__+0x1c9b884>
    a010:	0000000a 	andeq	r0, r0, sl
    a014:	454e4f44 	strbmi	r4, [lr, #-3908]	; 0xf44
    a018:	0a212121 	beq	8524a4 <__bss_end__+0x847f4c>
    a01c:	00000000 	andeq	r0, r0, r0

0000a020 <__FUNCTION__.4220>:
    a020:	74736166 	ldrbtvc	r6, [r3], #-358	; 0x166
    a024:	746e695f 	strbtvc	r6, [lr], #-2399	; 0x95f
    a028:	75727265 	ldrbvc	r7, [r2, #-613]!	; 0x265
    a02c:	765f7470 			; <UNDEFINED> instruction: 0x765f7470
    a030:	6f746365 	svcvs	0x00746365
    a034:	00000072 	andeq	r0, r0, r2, ror r0
    a038:	494e4150 	stmdbmi	lr, {r4, r6, r8, lr}^
    a03c:	73253a43 	teqvc	r5, #274432	; 0x43000
    a040:	3a73253a 	bcc	1cd3530 <__bss_end__+0x1cc8fd8>
    a044:	453a6425 	ldrmi	r6, [sl, #-1061]!	; 0x425
    a048:	524f5252 	subpl	r5, pc, #536870917	; 0x20000005
    a04c:	6e75203a 	mrcvs	0, 3, r2, cr5, cr10, {1}
    a050:	646e6168 	strbtvs	r6, [lr], #-360	; 0x168
    a054:	2064656c 	rsbcs	r6, r4, ip, ror #10
    a058:	65637865 	strbvs	r7, [r3, #-2149]!	; 0x865
    a05c:	6f697470 	svcvs	0x00697470
    a060:	253c206e 	ldrcs	r2, [ip, #-110]!	; 0x6e
    a064:	61203e73 	teqvs	r0, r3, ror lr
    a068:	43502074 	cmpmi	r0, #116	; 0x74
    a06c:	0a78253d 	beq	1e13568 <__bss_end__+0x1e09010>
    a070:	0000000a 	andeq	r0, r0, sl
    a074:	66617473 			; <UNDEFINED> instruction: 0x66617473
    a078:	72732d66 	rsbsvc	r2, r3, #6528	; 0x1980
    a07c:	65642f63 	strbvs	r2, [r4, #-3939]!	; 0xf63
    a080:	6c756166 	ldfvse	f6, [r5], #-408	; 0xfffffe68
    a084:	61682d74 	smcvs	33492	; 0x82d4
    a088:	656c646e 	strbvs	r6, [ip, #-1134]!	; 0x46e
    a08c:	61662d72 	smcvs	25298	; 0x62d2
    a090:	632e7473 	teqvs	lr, #1929379840	; 0x73000000
    a094:	00000000 	andeq	r0, r0, r0
    a098:	74736166 	ldrbtvc	r6, [r3], #-358	; 0x166
    a09c:	00000000 	andeq	r0, r0, r0

0000a0a0 <__FUNCTION__.4220>:
    a0a0:	65736572 	ldrbvs	r6, [r3, #-1394]!	; 0x572
    a0a4:	65765f74 	ldrbvs	r5, [r6, #-3956]!	; 0xf74
    a0a8:	726f7463 	rsbvc	r7, pc, #1660944384	; 0x63000000
    a0ac:	00000000 	andeq	r0, r0, r0
    a0b0:	66617473 			; <UNDEFINED> instruction: 0x66617473
    a0b4:	72732d66 	rsbsvc	r2, r3, #6528	; 0x1980
    a0b8:	65642f63 	strbvs	r2, [r4, #-3939]!	; 0xf63
    a0bc:	6c756166 	ldfvse	f6, [r5], #-408	; 0xfffffe68
    a0c0:	61682d74 	smcvs	33492	; 0x82d4
    a0c4:	656c646e 	strbvs	r6, [ip, #-1134]!	; 0x46e
    a0c8:	65722d72 	ldrbvs	r2, [r2, #-3442]!	; 0xd72
    a0cc:	2e746573 	mrccs	5, 3, r6, cr4, cr3, {3}
    a0d0:	00000063 	andeq	r0, r0, r3, rrx
    a0d4:	65736572 	ldrbvs	r6, [r3, #-1394]!	; 0x572
    a0d8:	00000074 	andeq	r0, r0, r4, ror r0

0000a0dc <__FUNCTION__.4220>:
    a0dc:	65646e75 	strbvs	r6, [r4, #-3701]!	; 0xe75
    a0e0:	656e6966 	strbvs	r6, [lr, #-2406]!	; 0x966
    a0e4:	6e695f64 	cdpvs	15, 6, cr5, cr9, cr4, {3}
    a0e8:	75727473 	ldrbvc	r7, [r2, #-1139]!	; 0x473
    a0ec:	6f697463 	svcvs	0x00697463
    a0f0:	65765f6e 	ldrbvs	r5, [r6, #-3950]!	; 0xf6e
    a0f4:	726f7463 	rsbvc	r7, pc, #1660944384	; 0x63000000
    a0f8:	00000000 	andeq	r0, r0, r0
    a0fc:	66617473 			; <UNDEFINED> instruction: 0x66617473
    a100:	72732d66 	rsbsvc	r2, r3, #6528	; 0x1980
    a104:	65642f63 	strbvs	r2, [r4, #-3939]!	; 0xf63
    a108:	6c756166 	ldfvse	f6, [r5], #-408	; 0xfffffe68
    a10c:	61682d74 	smcvs	33492	; 0x82d4
    a110:	656c646e 	strbvs	r6, [ip, #-1134]!	; 0x46e
    a114:	6e752d72 	mrcvs	13, 3, r2, cr5, cr2, {3}
    a118:	69666564 	stmdbvs	r6!, {r2, r5, r6, r8, sl, sp, lr}^
    a11c:	2d64656e 	cfstr64cs	mvdx6, [r4, #-440]!	; 0xfffffe48
    a120:	74736e69 	ldrbtvc	r6, [r3], #-3689	; 0xe69
    a124:	0000632e 	andeq	r6, r0, lr, lsr #6
    a128:	65646e75 	strbvs	r6, [r4, #-3701]!	; 0xe75
    a12c:	656e6966 	strbvs	r6, [lr, #-2406]!	; 0x966
    a130:	6e692064 	cdpvs	0, 6, cr2, cr9, cr4, {3}
    a134:	00007473 	andeq	r7, r0, r3, ror r4

Disassembly of section .bss:

0000a138 <__bss_start__>:
    a138:	00000000 	andeq	r0, r0, r0

0000a13c <watchpt_handler0>:
    a13c:	00000000 	andeq	r0, r0, r0

0000a140 <brkpt_handler0>:
    a140:	00000000 	andeq	r0, r0, r0

0000a144 <brk_verbose_p>:
    a144:	00000000 	andeq	r0, r0, r0

0000a148 <nfaults.4398>:
    a148:	00000000 	andeq	r0, r0, r0

0000a14c <init_p.4404>:
    a14c:	00000000 	andeq	r0, r0, r0

0000a150 <checker>:
    a150:	00000000 	andeq	r0, r0, r0

0000a154 <expected_handle>:
    a154:	00000000 	andeq	r0, r0, r0

0000a158 <buf.4189>:
	...

Disassembly of section .ARM.attributes:

00000000 <.ARM.attributes>:
   0:	00002a41 	andeq	r2, r0, r1, asr #20
   4:	61656100 	cmnvs	r5, r0, lsl #2
   8:	01006962 	tsteq	r0, r2, ror #18
   c:	00000020 	andeq	r0, r0, r0, lsr #32
  10:	4b5a3605 	blmi	168d82c <__bss_end__+0x16832d4>
  14:	08070600 	stmdaeq	r7, {r9, sl}
  18:	12010901 	andne	r0, r1, #16384	; 0x4000
  1c:	15011404 	strne	r1, [r1, #-1028]	; 0x404
  20:	18031701 	stmdane	r3, {r0, r8, r9, sl, ip}
  24:	22011a01 	andcs	r1, r1, #4096	; 0x1000
  28:	Address 0x0000000000000028 is out of bounds.


Disassembly of section .comment:

00000000 <.comment>:
   0:	3a434347 	bcc	10d0d24 <__bss_end__+0x10c67cc>
   4:	4e472820 	cdpmi	8, 4, cr2, cr7, cr0, {1}
   8:	34202955 	strtcc	r2, [r0], #-2389	; 0x955
   c:	332e382e 	teqcc	lr, #3014656	; 0x2e0000
  10:	43434700 	movtmi	r4, #14080	; 0x3700
  14:	3128203a 	teqcc	r8, sl, lsr r0
  18:	2e363a35 	mrccs	10, 1, r3, cr6, cr5, {1}
  1c:	2b312e33 	blcs	c4b8f0 <__bss_end__+0xc41398>
  20:	326e7673 	rsbcc	r7, lr, #120586240	; 0x7300000
  24:	33303335 	teqcc	r0, #-738197504	; 0xd4000000
  28:	62312d39 	eorsvs	r2, r1, #3648	; 0xe40
  2c:	646c6975 	strbtvs	r6, [ip], #-2421	; 0x975
  30:	36202931 			; <UNDEFINED> instruction: 0x36202931
  34:	312e332e 	teqcc	lr, lr, lsr #6
  38:	31303220 	teqcc	r0, r0, lsr #4
  3c:	32363037 	eorscc	r3, r6, #55	; 0x37
  40:	Address 0x0000000000000040 is out of bounds.


Disassembly of section .debug_info:

00000000 <.debug_info>:
       0:	00000378 	andeq	r0, r0, r8, ror r3
       4:	00000004 	andeq	r0, r0, r4
       8:	01040000 	mrseq	r0, (UNDEF: 4)
       c:	0000011d 	andeq	r0, r0, sp, lsl r1
      10:	0001d901 	andeq	sp, r1, r1, lsl #18
      14:	00001b00 	andeq	r1, r0, r0, lsl #22
      18:	00802000 	addeq	r2, r0, r0
      1c:	00013c00 	andeq	r3, r1, r0, lsl #24
      20:	00000000 	andeq	r0, r0, r0
      24:	05040200 	streq	r0, [r4, #-512]	; 0x200
      28:	00746e69 	rsbseq	r6, r4, r9, ror #28
      2c:	94070403 	strls	r0, [r7], #-1027	; 0x403
      30:	03000001 	movweq	r0, #1
      34:	00a30601 	adceq	r0, r3, r1, lsl #12
      38:	02030000 	andeq	r0, r3, #0
      3c:	0000e805 	andeq	lr, r0, r5, lsl #16
      40:	05040300 	streq	r0, [r4, #-768]	; 0x300
      44:	000001b9 			; <UNDEFINED> instruction: 0x000001b9
      48:	b4050803 	strlt	r0, [r5], #-2051	; 0x803
      4c:	03000001 	movweq	r0, #1
      50:	00a10801 	adceq	r0, r1, r1, lsl #16
      54:	02030000 	andeq	r0, r3, #0
      58:	0000c707 	andeq	ip, r0, r7, lsl #14
      5c:	02070400 	andeq	r0, r7, #0, 8
      60:	34030000 	strcc	r0, [r3], #-0
      64:	00000068 	andeq	r0, r0, r8, rrx
      68:	8f070403 	svchi	0x00070403
      6c:	03000001 	movweq	r0, #1
      70:	018a0708 	orreq	r0, sl, r8, lsl #14
      74:	04030000 	streq	r0, [r3], #-0
      78:	0001ab07 	andeq	sl, r1, r7, lsl #22
      7c:	08010300 	stmdaeq	r1, {r8, r9}
      80:	000000aa 	andeq	r0, r0, sl, lsr #1
      84:	008a0405 	addeq	r0, sl, r5, lsl #8
      88:	7d060000 	stcvc	0, cr0, [r6, #-0]
      8c:	07000000 	streq	r0, [r0, -r0]
      90:	0000007d 	andeq	r0, r0, sp, ror r0
      94:	0000009f 	muleq	r0, pc, r0	; <UNPREDICTABLE>
      98:	00007608 	andeq	r7, r0, r8, lsl #12
      9c:	09000700 	stmdbeq	r0, {r8, r9, sl}
      a0:	00000115 	andeq	r0, r0, r5, lsl r1
      a4:	440a0234 	strmi	r0, [sl], #-564	; 0x234
      a8:	0a000001 	beq	b4 <__code_start__-0x7f4c>
      ac:	00000a2a 	andeq	r0, r0, sl, lsr #20
      b0:	01440f02 	cmpeq	r4, r2, lsl #30
      b4:	0b000000 	bleq	bc <__code_start__-0x7f44>
      b8:	12020041 	andne	r0, r2, #65	; 0x41
      bc:	0000015c 	andeq	r0, r0, ip, asr r1
      c0:	00420b04 	subeq	r0, r2, r4, lsl #22
      c4:	015c1302 	cmpeq	ip, r2, lsl #6
      c8:	0a080000 	beq	2000d0 <__bss_end__+0x1f5b78>
      cc:	00000004 	andeq	r0, r0, r4
      d0:	015c1602 	cmpeq	ip, r2, lsl #12
      d4:	0a0c0000 	beq	3000dc <__bss_end__+0x2f5b84>
      d8:	00000201 	andeq	r0, r0, r1, lsl #4
      dc:	01711802 	cmneq	r1, r2, lsl #16
      e0:	0a100000 	beq	4000e8 <__bss_end__+0x3f5b90>
      e4:	000001a1 	andeq	r0, r0, r1, lsr #3
      e8:	01771f02 	cmneq	r7, r2, lsl #30
      ec:	0a140000 	beq	5000f4 <__bss_end__+0x4f5b9c>
      f0:	00000090 	muleq	r0, r0, r0
      f4:	01773102 	cmneq	r7, r2, lsl #2
      f8:	0a180000 	beq	600100 <__bss_end__+0x5f5ba8>
      fc:	000000bc 	strheq	r0, [r0], -ip
     100:	017c3602 	cmneq	ip, r2, lsl #12
     104:	0a1c0000 	beq	70010c <__bss_end__+0x6f5bb4>
     108:	000001cd 	andeq	r0, r0, sp, asr #3
     10c:	017c3a02 	cmneq	ip, r2, lsl #20
     110:	0a200000 	beq	800118 <__bss_end__+0x7f5bc0>
     114:	000001c2 	andeq	r0, r0, r2, asr #3
     118:	01773f02 	cmneq	r7, r2, lsl #30
     11c:	0a240000 	beq	900124 <__bss_end__+0x8f5bcc>
     120:	00000009 	andeq	r0, r0, r9
     124:	002c4202 	eoreq	r4, ip, r2, lsl #4
     128:	0a280000 	beq	a00130 <__bss_end__+0x9f5bd8>
     12c:	00000088 	andeq	r0, r0, r8, lsl #1
     130:	002c4302 	eoreq	r4, ip, r2, lsl #6
     134:	0a2c0000 	beq	b0013c <__bss_end__+0xaf5be4>
     138:	000000ff 	strdeq	r0, [r0], -pc	; <UNPREDICTABLE>
     13c:	002c4602 	eoreq	r4, ip, r2, lsl #12
     140:	00300000 	eorseq	r0, r0, r0
     144:	014a0405 	cmpeq	sl, r5, lsl #8
     148:	0d0c0000 	stceq	0, cr0, [ip, #-0]
     14c:	00000156 	andeq	r0, r0, r6, asr r1
     150:	0001560e 	andeq	r5, r1, lr, lsl #12
     154:	04050000 	streq	r0, [r5], #-0
     158:	0000009f 	muleq	r0, pc, r0	; <UNPREDICTABLE>
     15c:	014b0405 	cmpeq	fp, r5, lsl #8
     160:	250f0000 	strcs	r0, [pc, #-0]	; 168 <__code_start__-0x7e98>
     164:	71000000 	mrsvc	r0, (UNDEF: 0)
     168:	0e000001 	cdpeq	0, 0, cr0, cr0, cr1, {0}
     16c:	00000156 	andeq	r0, r0, r6, asr r1
     170:	62040500 	andvs	r0, r4, #0, 10
     174:	10000001 	andne	r0, r0, r1
     178:	0000002c 	andeq	r0, r0, ip, lsr #32
     17c:	00005d10 	andeq	r5, r0, r0, lsl sp
     180:	00110400 	andseq	r0, r1, r0, lsl #8
     184:	47020000 	strmi	r0, [r2, -r0]
     188:	0000009f 	muleq	r0, pc, r0	; <UNPREDICTABLE>
     18c:	00007c11 	andeq	r7, r0, r1, lsl ip
     190:	20070100 	andcs	r0, r7, r0, lsl #2
     194:	18000080 	stmdane	r0, {r7}
     198:	01000000 	mrseq	r0, (UNDEF: 0)
     19c:	0001ad9c 	muleq	r1, ip, sp
     1a0:	00631200 	rsbeq	r1, r3, r0, lsl #4
     1a4:	01ad0701 			; <UNDEFINED> instruction: 0x01ad0701
     1a8:	50010000 	andpl	r0, r1, r0
     1ac:	81040500 	tsthi	r4, r0, lsl #10
     1b0:	11000001 	tstne	r0, r1
     1b4:	00000082 	andeq	r0, r0, r2, lsl #1
     1b8:	80380801 	eorshi	r0, r8, r1, lsl #16
     1bc:	00180000 	andseq	r0, r8, r0
     1c0:	9c010000 	stcls	0, cr0, [r1], {-0}
     1c4:	000001d4 	ldrdeq	r0, [r0], -r4
     1c8:	01006312 	tsteq	r0, r2, lsl r3
     1cc:	0001ad08 	andeq	sl, r1, r8, lsl #26
     1d0:	00500100 	subseq	r0, r0, r0, lsl #2
     1d4:	00000011 	andeq	r0, r0, r1, lsl r0
     1d8:	50090100 	andpl	r0, r9, r0, lsl #2
     1dc:	14000080 	strne	r0, [r0], #-128	; 0x80
     1e0:	01000000 	mrseq	r0, (UNDEF: 0)
     1e4:	0001f59c 	muleq	r1, ip, r5
     1e8:	00631200 	rsbeq	r1, r3, r0, lsl #4
     1ec:	01ad0901 			; <UNDEFINED> instruction: 0x01ad0901
     1f0:	50010000 	andpl	r0, r1, r0
     1f4:	01fd1300 	mvnseq	r1, r0, lsl #6
     1f8:	0a010000 	beq	40200 <__bss_end__+0x35ca8>
     1fc:	00000025 	andeq	r0, r0, r5, lsr #32
     200:	00008064 	andeq	r8, r0, r4, rrx
     204:	0000001c 	andeq	r0, r0, ip, lsl r0
     208:	021c9c01 	andseq	r9, ip, #256	; 0x100
     20c:	63140000 	tstvs	r4, #0
     210:	ad0a0100 	stfges	f0, [sl, #-0]
     214:	00000001 	andeq	r0, r0, r1
     218:	00000000 	andeq	r0, r0, r0
     21c:	00010e15 	andeq	r0, r1, r5, lsl lr
     220:	810c0100 	mrshi	r0, (UNDEF: 28)
     224:	80000001 	andhi	r0, r0, r1
     228:	6c000080 	stcvs	0, cr0, [r0], {128}	; 0x80
     22c:	01000000 	mrseq	r0, (UNDEF: 0)
     230:	0074169c 			; <UNDEFINED> instruction: 0x0074169c
     234:	16010000 	strne	r0, [r1], -r0
     238:	000080ec 	andeq	r8, r0, ip, ror #1
     23c:	00000070 	andeq	r0, r0, r0, ror r0
     240:	03159c01 	tsteq	r5, #256	; 0x100
     244:	63170000 	tstvs	r7, #0
     248:	9f1a0100 	svcls	0x001a0100
     24c:	02000000 	andeq	r0, r0, #0
     250:	6e184491 	cfcmpsvs	r4, mvf8, mvf1
     254:	251b0100 	ldrcs	r0, [fp, #-256]	; 0x100
     258:	19000000 	stmdbne	r0, {}	; <UNPREDICTABLE>
     25c:	000000f2 	strdeq	r0, [r0], -r2
     260:	00000315 	andeq	r0, r0, r5, lsl r3
     264:	9a2c0305 	bls	b00e80 <__bss_end__+0xaf6928>
     268:	f81a0000 			; <UNDEFINED> instruction: 0xf81a0000
     26c:	3b000080 	blcc	474 <__code_start__-0x7b8c>
     270:	1b000003 	blne	284 <__code_start__-0x7d7c>
     274:	00008100 	andeq	r8, r0, r0, lsl #2
     278:	0000021c 	andeq	r0, r0, ip, lsl r2
     27c:	00000288 	andeq	r0, r0, r8, lsl #5
     280:	0350011c 	cmpeq	r0, #28, 2
     284:	007fbc91 			; <UNDEFINED> instruction: 0x007fbc91
     288:	0081081b 	addeq	r0, r1, fp, lsl r8
     28c:	00034200 	andeq	r4, r3, r0, lsl #4
     290:	00029d00 	andeq	r9, r2, r0, lsl #26
     294:	50011c00 	andpl	r1, r1, r0, lsl #24
     298:	7fbc9103 	svcvc	0x00bc9103
     29c:	81141a00 	tsthi	r4, r0, lsl #20
     2a0:	03570000 	cmpeq	r7, #0
     2a4:	281b0000 	ldmdacs	fp, {}	; <UNPREDICTABLE>
     2a8:	5e000081 	cdppl	0, 0, cr0, cr0, cr1, {4}
     2ac:	d4000003 	strle	r0, [r0], #-3
     2b0:	1c000002 	stcne	0, cr0, [r0], {2}
     2b4:	4d015301 	stcmi	3, cr5, [r1, #-4]
     2b8:	0552011c 	ldrbeq	r0, [r2, #-284]	; 0x11c
     2bc:	009a2c03 	addseq	r2, sl, r3, lsl #24
     2c0:	51011c00 	tstpl	r1, r0, lsl #24
     2c4:	999c0305 	ldmibls	ip, {r0, r2, r8, r9}
     2c8:	011c0000 	tsteq	ip, r0
     2cc:	70030550 	andvc	r0, r3, r0, asr r5
     2d0:	00000099 	muleq	r0, r9, r0
     2d4:	00812c1a 	addeq	r2, r1, sl, lsl ip
     2d8:	00037400 	andeq	r7, r3, r0, lsl #8
     2dc:	81341b00 	teqhi	r4, r0, lsl #22
     2e0:	035e0000 	cmpeq	lr, #0
     2e4:	02f40000 	rscseq	r0, r4, #0
     2e8:	011c0000 	tsteq	ip, r0
     2ec:	b4030550 	strlt	r0, [r3], #-1360	; 0x550
     2f0:	00000099 	muleq	r0, r9, r0
     2f4:	0081441b 	addeq	r4, r1, fp, lsl r4
     2f8:	00035e00 	andeq	r5, r3, r0, lsl #28
     2fc:	00030b00 	andeq	r0, r3, r0, lsl #22
     300:	50011c00 	andpl	r1, r1, r0, lsl #24
     304:	99c00305 	stmibls	r0, {r0, r2, r8, r9}^
     308:	1a000000 	bne	310 <__code_start__-0x7cf0>
     30c:	00008148 	andeq	r8, r0, r8, asr #2
     310:	00000374 	andeq	r0, r0, r4, ror r3
     314:	008f0600 	addeq	r0, pc, r0, lsl #12
     318:	63170000 	tstvs	r7, #0
     31c:	0100746e 	tsteq	r0, lr, ror #8
     320:	00032b06 	andeq	r2, r3, r6, lsl #22
     324:	38030500 	stmdacc	r3, {r8, sl}
     328:	100000a1 	andne	r0, r0, r1, lsr #1
     32c:	00000025 	andeq	r0, r0, r5, lsr #32
     330:	0000da1d 	andeq	sp, r0, sp, lsl sl
     334:	25c20500 	strbcs	r0, [r2, #1280]	; 0x500
     338:	1e000000 	cdpne	0, 0, cr0, cr0, cr0, {0}
     33c:	000001f0 	strdeq	r0, [r0], -r0	; <UNPREDICTABLE>
     340:	011f8d04 	tsteq	pc, r4, lsl #26
     344:	02000002 	andeq	r0, r0, #2
     348:	0000254c 	andeq	r2, r0, ip, asr #10
     34c:	00035700 	andeq	r5, r3, r0, lsl #14
     350:	01ad0e00 			; <UNDEFINED> instruction: 0x01ad0e00
     354:	1e000000 	cdpne	0, 0, cr0, cr0, cr0, {0}
     358:	00000210 	andeq	r0, r0, r0, lsl r2
     35c:	631f1e04 	tstvs	pc, #4, 28	; 0x40
     360:	04000005 	streq	r0, [r0], #-5
     364:	00002529 	andeq	r2, r0, r9, lsr #10
     368:	00037400 	andeq	r7, r3, r0, lsl #8
     36c:	00840e00 	addeq	r0, r4, r0, lsl #28
     370:	00200000 	eoreq	r0, r0, r0
     374:	0000af1e 	andeq	sl, r0, lr, lsl pc
     378:	00650400 	rsbeq	r0, r5, r0, lsl #8
     37c:	00000bd7 	ldrdeq	r0, [r0], -r7
     380:	01ba0004 			; <UNDEFINED> instruction: 0x01ba0004
     384:	01040000 	mrseq	r0, (UNDEF: 4)
     388:	0000011d 	andeq	r0, r0, sp, lsl r1
     38c:	00025b01 	andeq	r5, r2, r1, lsl #22
     390:	00001b00 	andeq	r1, r0, r0, lsl #22
     394:	00815c00 	addeq	r5, r1, r0, lsl #24
     398:	00036800 	andeq	r6, r3, r0, lsl #16
     39c:	00013600 	andeq	r3, r1, r0, lsl #12
     3a0:	05040200 	streq	r0, [r4, #-512]	; 0x200
     3a4:	00746e69 	rsbseq	r6, r4, r9, ror #28
     3a8:	94070403 	strls	r0, [r7], #-1027	; 0x403
     3ac:	03000001 	movweq	r0, #1
     3b0:	00a30601 	adceq	r0, r3, r1, lsl #12
     3b4:	02030000 	andeq	r0, r3, #0
     3b8:	0000e805 	andeq	lr, r0, r5, lsl #16
     3bc:	05040300 	streq	r0, [r4, #-768]	; 0x300
     3c0:	000001b9 			; <UNDEFINED> instruction: 0x000001b9
     3c4:	b4050803 	strlt	r0, [r5], #-2051	; 0x803
     3c8:	03000001 	movweq	r0, #1
     3cc:	00a10801 	adceq	r0, r1, r1, lsl #16
     3d0:	02030000 	andeq	r0, r3, #0
     3d4:	0000c707 	andeq	ip, r0, r7, lsl #14
     3d8:	02070400 	andeq	r0, r7, #0, 8
     3dc:	34030000 	strcc	r0, [r3], #-0
     3e0:	00000068 	andeq	r0, r0, r8, rrx
     3e4:	8f070403 	svchi	0x00070403
     3e8:	03000001 	movweq	r0, #1
     3ec:	018a0708 	orreq	r0, sl, r8, lsl #14
     3f0:	04030000 	streq	r0, [r3], #-0
     3f4:	0001ab07 	andeq	sl, r1, r7, lsl #22
     3f8:	03040500 	movweq	r0, #17664	; 0x4500
     3fc:	00aa0801 	adceq	r0, sl, r1, lsl #16
     400:	04060000 	streq	r0, [r6], #-0
     404:	0000008c 	andeq	r0, r0, ip, lsl #1
     408:	00007f07 	andeq	r7, r0, r7, lsl #30
     40c:	03d30400 	bicseq	r0, r3, #0, 8
     410:	8a020000 	bhi	80418 <__bss_end__+0x75ec0>
     414:	0000009c 	muleq	r0, ip, r0
     418:	00a20406 	adceq	r0, r2, r6, lsl #8
     41c:	b7080000 	strlt	r0, [r8, -r0]
     420:	09000000 	stmdbeq	r0, {}	; <UNPREDICTABLE>
     424:	000000b7 	strheq	r0, [r0], -r7
     428:	00005d09 	andeq	r5, r0, r9, lsl #26
     42c:	005d0900 	subseq	r0, sp, r0, lsl #18
     430:	06000000 	streq	r0, [r0], -r0
     434:	00005d04 	andeq	r5, r0, r4, lsl #26
     438:	039f0a00 	orrseq	r0, pc, #0, 20
     43c:	5f020000 	svcpl	0x00020000
     440:	0000005d 	andeq	r0, r0, sp, asr r0
     444:	0000d903 	andeq	sp, r0, r3, lsl #18
     448:	65720b00 	ldrbvs	r0, [r2, #-2816]!	; 0xb00
     44c:	5f020074 	svcpl	0x00020074
     450:	0000005d 	andeq	r0, r0, sp, asr r0
     454:	031f0a00 	tsteq	pc, #0, 20
     458:	a6020000 	strge	r0, [r2], -r0
     45c:	0000005d 	andeq	r0, r0, sp, asr r0
     460:	0000f503 	andeq	pc, r0, r3, lsl #10
     464:	65720b00 	ldrbvs	r0, [r2, #-2816]!	; 0xb00
     468:	a6020074 			; <UNDEFINED> instruction: 0xa6020074
     46c:	0000005d 	andeq	r0, r0, sp, asr r0
     470:	03710a00 	cmneq	r1, #0, 20
     474:	70020000 	andvc	r0, r2, r0
     478:	0000002c 	andeq	r0, r0, ip, lsr #32
     47c:	00010f03 	andeq	r0, r1, r3, lsl #30
     480:	00720c00 	rsbseq	r0, r2, r0, lsl #24
     484:	005d7002 	subseq	r7, sp, r2
     488:	0a000000 	beq	490 <__code_start__-0x7b70>
     48c:	0000028e 	andeq	r0, r0, lr, lsl #5
     490:	005d1801 	subseq	r1, sp, r1, lsl #16
     494:	2b030000 	blcs	c049c <__bss_end__+0xb5f44>
     498:	0b000001 	bleq	4a4 <__code_start__-0x7b5c>
     49c:	00746572 	rsbseq	r6, r4, r2, ror r5
     4a0:	005d1801 	subseq	r1, sp, r1, lsl #16
     4a4:	0d000000 	stceq	0, cr0, [r0, #-0]
     4a8:	000003f9 	strdeq	r0, [r0], -r9
     4ac:	41031e01 	tstmi	r3, r1, lsl #28
     4b0:	0c000001 	stceq	0, cr0, [r0], {1}
     4b4:	1e010076 	mcrne	0, 0, r0, cr1, cr6, {3}
     4b8:	0000005d 	andeq	r0, r0, sp, asr r0
     4bc:	02d10d00 	sbcseq	r0, r1, #0, 26
     4c0:	26010000 	strcs	r0, [r1], -r0
     4c4:	00015703 	andeq	r5, r1, r3, lsl #14
     4c8:	00760c00 	rsbseq	r0, r6, r0, lsl #24
     4cc:	005d2601 	subseq	r2, sp, r1, lsl #12
     4d0:	0d000000 	stceq	0, cr0, [r0, #-0]
     4d4:	000003b7 			; <UNDEFINED> instruction: 0x000003b7
     4d8:	6d030d01 	stcvs	13, cr0, [r3, #-4]
     4dc:	0c000001 	stceq	0, cr0, [r0], {1}
     4e0:	0d010076 	stceq	0, cr0, [r1, #-472]	; 0xfffffe28
     4e4:	0000005d 	andeq	r0, r0, sp, asr r0
     4e8:	03510a00 	cmpeq	r1, #0, 20
     4ec:	66020000 	strvs	r0, [r2], -r0
     4f0:	0000002c 	andeq	r0, r0, ip, lsr #32
     4f4:	00018903 	andeq	r8, r1, r3, lsl #18
     4f8:	030d0e00 	movweq	r0, #56832	; 0xde00
     4fc:	67020000 	strvs	r0, [r2, -r0]
     500:	0000005d 	andeq	r0, r0, sp, asr r0
     504:	03dd0a00 	bicseq	r0, sp, #0, 20
     508:	56020000 	strpl	r0, [r2], -r0
     50c:	0000005d 	andeq	r0, r0, sp, asr r0
     510:	0001a503 	andeq	sl, r1, r3, lsl #10
     514:	65720b00 	ldrbvs	r0, [r2, #-2816]!	; 0xb00
     518:	56020074 			; <UNDEFINED> instruction: 0x56020074
     51c:	0000005d 	andeq	r0, r0, sp, asr r0
     520:	03170a00 	tsteq	r7, #0, 20
     524:	63020000 	movwvs	r0, #8192	; 0x2000
     528:	0000005d 	andeq	r0, r0, sp, asr r0
     52c:	0001c103 	andeq	ip, r1, r3, lsl #2
     530:	65720b00 	ldrbvs	r0, [r2, #-2816]!	; 0xb00
     534:	63020074 	movwvs	r0, #8308	; 0x2074
     538:	0000005d 	andeq	r0, r0, sp, asr r0
     53c:	027c0d00 	rsbseq	r0, ip, #0, 26
     540:	32010000 	andcc	r0, r1, #0
     544:	0001d703 	andeq	sp, r1, r3, lsl #14
     548:	00760c00 	rsbseq	r0, r6, r0, lsl #24
     54c:	005d3201 	subseq	r3, sp, r1, lsl #4
     550:	0a000000 	beq	558 <__code_start__-0x7aa8>
     554:	000002eb 	andeq	r0, r0, fp, ror #5
     558:	005d8d01 	subseq	r8, sp, r1, lsl #26
     55c:	f3030000 	vhadd.u8	d0, d3, d0
     560:	0b000001 	bleq	56c <__code_start__-0x7a94>
     564:	00746572 	rsbseq	r6, r4, r2, ror r5
     568:	005d8d01 	subseq	r8, sp, r1, lsl #26
     56c:	0d000000 	stceq	0, cr0, [r0, #-0]
     570:	000002ad 	andeq	r0, r0, sp, lsr #5
     574:	09038e01 	stmdbeq	r3, {r0, r9, sl, fp, pc}
     578:	0c000002 	stceq	0, cr0, [r0], {2}
     57c:	8e010076 	mcrhi	0, 0, r0, cr1, cr6, {3}
     580:	0000005d 	andeq	r0, r0, sp, asr r0
     584:	03630d00 	cmneq	r3, #0, 26
     588:	8c010000 	stchi	0, cr0, [r1], {-0}
     58c:	00021f03 	andeq	r1, r2, r3, lsl #30
     590:	00760c00 	rsbseq	r0, r6, r0, lsl #24
     594:	005d8c01 	subseq	r8, sp, r1, lsl #24
     598:	0a000000 	beq	5a0 <__code_start__-0x7a60>
     59c:	00000268 	andeq	r0, r0, r8, ror #4
     5a0:	002ca902 	eoreq	sl, ip, r2, lsl #18
     5a4:	39030000 	stmdbcc	r3, {}	; <UNPREDICTABLE>
     5a8:	0b000002 	bleq	5b8 <__code_start__-0x7a48>
     5ac:	aa020072 	bge	8077c <__bss_end__+0x76224>
     5b0:	0000002c 	andeq	r0, r0, ip, lsr #32
     5b4:	03160a00 	tsteq	r6, #0, 20
     5b8:	97020000 	strls	r0, [r2, -r0]
     5bc:	0000005d 	andeq	r0, r0, sp, asr r0
     5c0:	00025503 	andeq	r5, r2, r3, lsl #10
     5c4:	65720b00 	ldrbvs	r0, [r2, #-2816]!	; 0xb00
     5c8:	97020074 	smlsdxls	r2, r4, r0, r0
     5cc:	0000005d 	andeq	r0, r0, sp, asr r0
     5d0:	02c40f00 	sbceq	r0, r4, #0, 30
     5d4:	36010000 	strcc	r0, [r1], -r0
     5d8:	0000815c 	andeq	r8, r0, ip, asr r1
     5dc:	000000b0 	strheq	r0, [r0], -r0	; <UNPREDICTABLE>
     5e0:	04309c01 	ldrteq	r9, [r0], #-3073	; 0xc01
     5e4:	d3100000 	tstle	r0, #0
     5e8:	01000001 	tsteq	r0, r1
     5ec:	00007d36 	andeq	r7, r0, r6, lsr sp
     5f0:	00002100 	andeq	r2, r0, r0, lsl #2
     5f4:	04171000 	ldreq	r1, [r7], #-0
     5f8:	36010000 	strcc	r0, [r1], -r0
     5fc:	00000091 	muleq	r0, r1, r0
     600:	00000066 	andeq	r0, r0, r6, rrx
     604:	00028511 	andeq	r8, r2, r1, lsl r5
     608:	5d390100 	ldfpls	f0, [r9, #-0]
     60c:	ab000000 	blge	614 <__code_start__-0x79ec>
     610:	12000000 	andne	r0, r0, #0
     614:	000000f2 	strdeq	r0, [r0], -r2
     618:	00000440 	andeq	r0, r0, r0, asr #8
     61c:	9b700305 	blls	1c01238 <__bss_end__+0x1bf6ce0>
     620:	bb110000 	bllt	440628 <__bss_end__+0x4360d0>
     624:	01000002 	tsteq	r0, r2
     628:	00005d43 	andeq	r5, r0, r3, asr #26
     62c:	0000d700 	andeq	sp, r0, r0, lsl #14
     630:	010f1300 	mrseq	r1, SP_hyp
     634:	81640000 	cmnhi	r4, r0
     638:	00040000 	andeq	r0, r4, r0
     63c:	39010000 	stmdbcc	r1, {}	; <UNPREDICTABLE>
     640:	000002dc 	ldrdeq	r0, [r0], -ip
     644:	00816414 	addeq	r6, r1, r4, lsl r4
     648:	00000400 	andeq	r0, r0, r0, lsl #8
     64c:	011f1500 	tsteq	pc, r0, lsl #10
     650:	01030000 	mrseq	r0, (UNDEF: 3)
     654:	00000000 	andeq	r0, r0, r0
     658:	00012b13 	andeq	r2, r1, r3, lsl fp
     65c:	00816c00 	addeq	r6, r1, r0, lsl #24
     660:	00000400 	andeq	r0, r0, r0, lsl #8
     664:	f93f0100 			; <UNDEFINED> instruction: 0xf93f0100
     668:	16000002 	strne	r0, [r0], -r2
     66c:	00000137 	andeq	r0, r0, r7, lsr r1
     670:	00000116 	andeq	r0, r0, r6, lsl r1
     674:	010f1300 	mrseq	r1, SP_hyp
     678:	81700000 	cmnhi	r0, r0
     67c:	00040000 	andeq	r0, r4, r0
     680:	41010000 	mrsmi	r0, (UNDEF: 1)
     684:	00000320 	andeq	r0, r0, r0, lsr #6
     688:	00817014 	addeq	r7, r1, r4, lsl r0
     68c:	00000400 	andeq	r0, r0, r0, lsl #8
     690:	011f1500 	tsteq	pc, r0, lsl #10
     694:	01340000 	teqeq	r4, r0
     698:	00000000 	andeq	r0, r0, r0
     69c:	00014113 	andeq	r4, r1, r3, lsl r1
     6a0:	0081a000 	addeq	sl, r1, r0
     6a4:	00000400 	andeq	r0, r0, r0, lsl #8
     6a8:	3d460100 	stfcce	f0, [r6, #-0]
     6ac:	16000003 	strne	r0, [r0], -r3
     6b0:	0000014d 	andeq	r0, r0, sp, asr #2
     6b4:	000000d7 	ldrdeq	r0, [r0], -r7
     6b8:	012b1300 	teqeq	fp, r0, lsl #6
     6bc:	81a40000 			; <UNDEFINED> instruction: 0x81a40000
     6c0:	00080000 	andeq	r0, r8, r0
     6c4:	50010000 	andpl	r0, r1, r0
     6c8:	00000358 	andeq	r0, r0, r8, asr r3
     6cc:	00013717 	andeq	r3, r1, r7, lsl r7
     6d0:	0001ff00 	andeq	pc, r1, r0, lsl #30
     6d4:	00010f13 	andeq	r0, r1, r3, lsl pc
     6d8:	0081ac00 	addeq	sl, r1, r0, lsl #24
     6dc:	00000400 	andeq	r0, r0, r0, lsl #8
     6e0:	7f520100 	svcvc	0x00520100
     6e4:	14000003 	strne	r0, [r0], #-3
     6e8:	000081ac 	andeq	r8, r0, ip, lsr #3
     6ec:	00000004 	andeq	r0, r0, r4
     6f0:	00011f15 	andeq	r1, r1, r5, lsl pc
     6f4:	00015200 	andeq	r5, r1, r0, lsl #4
     6f8:	13000000 	movwne	r0, #0
     6fc:	00000157 	andeq	r0, r0, r7, asr r1
     700:	000081dc 	ldrdeq	r8, [r0], -ip
     704:	00000008 	andeq	r0, r0, r8
     708:	03995401 	orrseq	r5, r9, #16777216	; 0x1000000
     70c:	63180000 	tstvs	r8, #0
     710:	00000001 	andeq	r0, r0, r1
     714:	81801900 	orrhi	r1, r0, r0, lsl #18
     718:	0baf0000 	bleq	febc0720 <__bss_end__+0xfebb61c8>
     71c:	9c1a0000 	ldcls	0, cr0, [sl], {-0}
     720:	b6000081 	strlt	r0, [r0], -r1, lsl #1
     724:	db00000b 	blle	758 <__code_start__-0x78a8>
     728:	1b000003 	blne	73c <__code_start__-0x78c4>
     72c:	08025301 	stmdaeq	r2, {r0, r8, r9, ip, lr}
     730:	52011b41 	andpl	r1, r1, #66560	; 0x10400
     734:	9b700305 	blls	1c01350 <__bss_end__+0x1bf6df8>
     738:	011b0000 	tsteq	fp, r0
     73c:	48030551 	stmdami	r3, {r0, r4, r6, r8, sl}
     740:	1b00009a 	blne	9b0 <__code_start__-0x7650>
     744:	03055001 	movweq	r5, #20481	; 0x5001
     748:	00009a34 	andeq	r9, r0, r4, lsr sl
     74c:	007d021b 	rsbseq	r0, sp, fp, lsl r2
     750:	9a580305 	bls	160136c <__bss_end__+0x15f6e14>
     754:	19000000 	stmdbne	r0, {}	; <UNPREDICTABLE>
     758:	000081a0 	andeq	r8, r0, r0, lsr #3
     75c:	00000bcc 	andeq	r0, r0, ip, asr #23
     760:	0081bc19 	addeq	fp, r1, r9, lsl ip
     764:	000baf00 	andeq	sl, fp, r0, lsl #30
     768:	81d81a00 	bicshi	r1, r8, r0, lsl #20
     76c:	0bb60000 	bleq	fed80774 <__bss_end__+0xfed7621c>
     770:	04260000 	strteq	r0, [r6], #-0
     774:	011b0000 	tsteq	fp, r0
     778:	52080253 	andpl	r0, r8, #805306373	; 0x30000005
     77c:	0552011b 	ldrbeq	r0, [r2, #-283]	; 0x11b
     780:	009b7003 	addseq	r7, fp, r3
     784:	51011b00 	tstpl	r1, r0, lsl #22
     788:	9a480305 	bls	12013a4 <__bss_end__+0x11f6e4c>
     78c:	011b0000 	tsteq	fp, r0
     790:	34030550 	strcc	r0, [r3], #-1360	; 0x550
     794:	1b00009a 	blne	a04 <__code_start__-0x75fc>
     798:	05007d02 	streq	r7, [r0, #-3330]	; 0xd02
     79c:	009a5803 	addseq	r5, sl, r3, lsl #16
     7a0:	dc190000 	ldcle	0, cr0, [r9], {-0}
     7a4:	cc000081 	stcgt	0, cr0, [r0], {129}	; 0x81
     7a8:	0000000b 	andeq	r0, r0, fp
     7ac:	00007f1c 	andeq	r7, r0, ip, lsl pc
     7b0:	00044000 	andeq	r4, r4, r0
     7b4:	00761d00 	rsbseq	r1, r6, r0, lsl #26
     7b8:	000c0000 	andeq	r0, ip, r0
     7bc:	00043007 	andeq	r3, r4, r7
     7c0:	02470a00 	subeq	r0, r7, #0, 20
     7c4:	76020000 	strvc	r0, [r2], -r0
     7c8:	0000002c 	andeq	r0, r0, ip, lsr #32
     7cc:	00046c03 	andeq	r6, r4, r3, lsl #24
     7d0:	00720b00 	rsbseq	r0, r2, r0, lsl #22
     7d4:	002c7702 	eoreq	r7, ip, r2, lsl #14
     7d8:	f21e0000 	vhadd.s16	d0, d14, d0
     7dc:	7c000000 	stcvc	0, cr0, [r0], {-0}
     7e0:	47000004 	strmi	r0, [r0, -r4]
     7e4:	00000002 	andeq	r0, r0, r2
     7e8:	00007f1c 	andeq	r7, r0, ip, lsl pc
     7ec:	00047c00 	andeq	r7, r4, r0, lsl #24
     7f0:	00761d00 	rsbseq	r1, r6, r0, lsl #26
     7f4:	00130000 	andseq	r0, r3, r0
     7f8:	00046c07 	andeq	r6, r4, r7, lsl #24
     7fc:	021f0f00 	andseq	r0, pc, #0, 30
     800:	59010000 	stmdbpl	r1, {}	; <UNPREDICTABLE>
     804:	0000820c 	andeq	r8, r0, ip, lsl #4
     808:	000000dc 	ldrdeq	r0, [r0], -ip
     80c:	06b09c01 	ldrteq	r9, [r0], r1, lsl #24
     810:	701f0000 	andsvc	r0, pc, r0
     814:	59010063 	stmdbpl	r1, {r0, r1, r5, r6}
     818:	0000002c 	andeq	r0, r0, ip, lsr #32
     81c:	00000170 	andeq	r0, r0, r0, ror r1
     820:	00038e20 	andeq	r8, r3, r0, lsr #28
     824:	255a0100 	ldrbcs	r0, [sl, #-256]	; 0x100
     828:	05000000 	streq	r0, [r0, #-0]
     82c:	00a14803 	adceq	r4, r1, r3, lsl #16
     830:	00f21200 	rscseq	r1, r2, r0, lsl #4
     834:	06c00000 	strbeq	r0, [r0], r0
     838:	03050000 	movweq	r0, #20480	; 0x5000
     83c:	00009b80 	andeq	r9, r0, r0, lsl #23
     840:	0001d40e 	andeq	sp, r1, lr, lsl #8
     844:	5d6b0100 	stfple	f0, [fp, #-0]
     848:	13000000 	movwne	r0, #0
     84c:	0000016d 	andeq	r0, r0, sp, ror #2
     850:	00008218 	andeq	r8, r0, r8, lsl r2
     854:	00000004 	andeq	r0, r0, r4
     858:	05115c01 	ldreq	r5, [r1, #-3073]	; 0xc01
     85c:	18140000 	ldmdane	r4, {}	; <UNPREDICTABLE>
     860:	04000082 	streq	r0, [r0], #-130	; 0x82
     864:	21000000 	mrscs	r0, (UNDEF: 0)
     868:	0000017d 	andeq	r0, r0, sp, ror r1
     86c:	0000bd22 	andeq	fp, r0, r2, lsr #26
     870:	00821800 	addeq	r1, r2, r0, lsl #16
     874:	00000400 	andeq	r0, r0, r0, lsl #8
     878:	14670200 	strbtne	r0, [r7], #-512	; 0x200
     87c:	00008218 	andeq	r8, r0, r8, lsl r2
     880:	00000004 	andeq	r0, r0, r4
     884:	0000cd21 	andeq	ip, r0, r1, lsr #26
     888:	00000000 	andeq	r0, r0, r0
     88c:	04451300 	strbeq	r1, [r5], #-768	; 0x300
     890:	821c0000 	andshi	r0, ip, #0
     894:	002c0000 	eoreq	r0, ip, r0
     898:	62010000 	andvs	r0, r1, #0
     89c:	000005c4 	andeq	r0, r0, r4, asr #11
     8a0:	00821c14 	addeq	r1, r2, r4, lsl ip
     8a4:	00002c00 	andeq	r2, r0, r0, lsl #24
     8a8:	04552100 	ldrbeq	r2, [r5], #-256	; 0x100
     8ac:	5e230000 	cdppl	0, 2, cr0, cr3, cr0, {0}
     8b0:	05000004 	streq	r0, [r0, #-4]
     8b4:	009b9403 	addseq	r9, fp, r3, lsl #8
     8b8:	00bd1300 	adcseq	r1, sp, r0, lsl #6
     8bc:	821c0000 	andshi	r0, ip, #0
     8c0:	00040000 	andeq	r0, r4, r0
     8c4:	77020000 	strvc	r0, [r2, -r0]
     8c8:	00000564 	andeq	r0, r0, r4, ror #10
     8cc:	00821c14 	addeq	r1, r2, r4, lsl ip
     8d0:	00000400 	andeq	r0, r0, r0, lsl #8
     8d4:	00cd1500 	sbceq	r1, sp, r0, lsl #10
     8d8:	01e70000 	mvneq	r0, r0
     8dc:	00000000 	andeq	r0, r0, r0
     8e0:	0000f513 	andeq	pc, r0, r3, lsl r5	; <UNPREDICTABLE>
     8e4:	00822000 	addeq	r2, r2, r0
     8e8:	00000400 	andeq	r0, r0, r0, lsl #8
     8ec:	81780200 	cmnhi	r8, r0, lsl #4
     8f0:	16000005 	strne	r0, [r0], -r5
     8f4:	00000105 	andeq	r0, r0, r5, lsl #2
     8f8:	000001e7 	andeq	r0, r0, r7, ror #3
     8fc:	82301900 	eorshi	r1, r0, #0, 18
     900:	0baf0000 	bleq	febc0908 <__bss_end__+0xfebb63b0>
     904:	441a0000 	ldrmi	r0, [sl], #-0
     908:	b6000082 	strlt	r0, [r0], -r2, lsl #1
     90c:	b900000b 	stmdblt	r0, {r0, r1, r3}
     910:	1b000005 	blne	92c <__code_start__-0x76d4>
     914:	08025301 	stmdaeq	r2, {r0, r8, r9, ip, lr}
     918:	52011b79 	andpl	r1, r1, #123904	; 0x1e400
     91c:	9b940305 	blls	fe501538 <__bss_end__+0xfe4f6fe0>
     920:	011b0000 	tsteq	fp, r0
     924:	a8030551 	stmdage	r3, {r0, r4, r6, r8, sl}
     928:	1b00009a 	blne	b98 <__code_start__-0x7468>
     92c:	03055001 	movweq	r5, #20481	; 0x5001
     930:	00009a70 	andeq	r9, r0, r0, ror sl
     934:	82481900 	subhi	r1, r8, #0, 18
     938:	0bcc0000 	bleq	ff300940 <__bss_end__+0xff2f63e8>
     93c:	00000000 	andeq	r0, r0, r0
     940:	00018913 	andeq	r8, r1, r3, lsl r9
     944:	00824800 	addeq	r4, r2, r0, lsl #16
     948:	00000400 	andeq	r0, r0, r0, lsl #8
     94c:	eb670100 	bl	19c0d54 <__bss_end__+0x19b67fc>
     950:	14000005 	strne	r0, [r0], #-5
     954:	00008248 	andeq	r8, r0, r8, asr #4
     958:	00000004 	andeq	r0, r0, r4
     95c:	00019915 	andeq	r9, r1, r5, lsl r9
     960:	0001fa00 	andeq	pc, r1, r0, lsl #20
     964:	13000000 	movwne	r0, #0
     968:	000001a5 	andeq	r0, r0, r5, lsr #3
     96c:	000082b0 			; <UNDEFINED> instruction: 0x000082b0
     970:	00000004 	andeq	r0, r0, r4
     974:	060e6b01 	streq	r6, [lr], -r1, lsl #22
     978:	b0140000 	andslt	r0, r4, r0
     97c:	04000082 	streq	r0, [r0], #-130	; 0x82
     980:	21000000 	mrscs	r0, (UNDEF: 0)
     984:	000001b5 			; <UNDEFINED> instruction: 0x000001b5
     988:	5c190000 	ldcpl	0, cr0, [r9], {-0}
     98c:	af000082 	svcge	0x00000082
     990:	1a00000b 	bne	9c4 <__code_start__-0x763c>
     994:	00008278 	andeq	r8, r0, r8, ror r2
     998:	00000bb6 			; <UNDEFINED> instruction: 0x00000bb6
     99c:	00000650 	andeq	r0, r0, r0, asr r6
     9a0:	0253011b 	subseq	r0, r3, #-1073741818	; 0xc0000006
     9a4:	011b6708 	tsteq	fp, r8, lsl #14
     9a8:	80030552 	andhi	r0, r3, r2, asr r5
     9ac:	1b00009b 	blne	c20 <__code_start__-0x73e0>
     9b0:	03055101 	movweq	r5, #20737	; 0x5101
     9b4:	00009a48 	andeq	r9, r0, r8, asr #20
     9b8:	0550011b 	ldrbeq	r0, [r0, #-283]	; 0x11b
     9bc:	009a3403 	addseq	r3, sl, r3, lsl #8
     9c0:	7d021b00 	vstrvc	d1, [r2, #-0]
     9c4:	b8030500 	stmdalt	r3, {r8, sl}
     9c8:	0000009a 	muleq	r0, sl, r0
     9cc:	00827c19 	addeq	r7, r2, r9, lsl ip
     9d0:	000bcc00 	andeq	ip, fp, r0, lsl #24
     9d4:	82901900 	addshi	r1, r0, #0, 18
     9d8:	0baf0000 	bleq	febc09e0 <__bss_end__+0xfebb6488>
     9dc:	ac1a0000 	ldcge	0, cr0, [sl], {-0}
     9e0:	b6000082 	strlt	r0, [r0], -r2, lsl #1
     9e4:	9b00000b 	blls	a18 <__code_start__-0x75e8>
     9e8:	1b000006 	blne	a08 <__code_start__-0x75f8>
     9ec:	08025301 	stmdaeq	r2, {r0, r8, r9, ip, lr}
     9f0:	52011b69 	andpl	r1, r1, #107520	; 0x1a400
     9f4:	9b800305 	blls	fe001610 <__bss_end__+0xfdff70b8>
     9f8:	011b0000 	tsteq	fp, r0
     9fc:	48030551 	stmdami	r3, {r0, r4, r6, r8, sl}
     a00:	1b00009a 	blne	c70 <__code_start__-0x7390>
     a04:	03055001 	movweq	r5, #20481	; 0x5001
     a08:	00009a34 	andeq	r9, r0, r4, lsr sl
     a0c:	007d021b 	rsbseq	r0, sp, fp, lsl r2
     a10:	9acc0305 	bls	ff30162c <__bss_end__+0xff2f70d4>
     a14:	19000000 	stmdbne	r0, {}	; <UNPREDICTABLE>
     a18:	000082b0 			; <UNDEFINED> instruction: 0x000082b0
     a1c:	00000bcc 	andeq	r0, r0, ip, asr #23
     a20:	0082bc24 	addeq	fp, r2, r4, lsr #24
     a24:	50011b00 	andpl	r1, r1, r0, lsl #22
     a28:	00003001 	andeq	r3, r0, r1
     a2c:	00007f1c 	andeq	r7, r0, ip, lsl pc
     a30:	0006c000 	andeq	ip, r6, r0
     a34:	00761d00 	rsbseq	r1, r6, r0, lsl #26
     a38:	00110000 	andseq	r0, r1, r0
     a3c:	0006b007 	andeq	fp, r6, r7
     a40:	03820f00 	orreq	r0, r2, #0, 30
     a44:	72010000 	andvc	r0, r1, #0
     a48:	000082e8 	andeq	r8, r0, r8, ror #5
     a4c:	0000003c 	andeq	r0, r0, ip, lsr r0
     a50:	07359c01 	ldreq	r9, [r5, -r1, lsl #24]!
     a54:	97200000 	strls	r0, [r0, -r0]!
     a58:	01000002 	tsteq	r0, r2
     a5c:	00002573 	andeq	r2, r0, r3, ror r5
     a60:	4c030500 	cfstr32mi	mvfx0, [r3], {-0}
     a64:	250000a1 	strcs	r0, [r0, #-161]	; 0xa1
     a68:	7c010076 	stcvc	0, cr0, [r1], {118}	; 0x76
     a6c:	0000005d 	andeq	r0, r0, sp, asr r0
     a70:	c1138000 	tstgt	r3, r0
     a74:	0c000001 	stceq	0, cr0, [r0], {1}
     a78:	08000083 	stmdaeq	r0, {r0, r1, r7}
     a7c:	01000000 	mrseq	r0, (UNDEF: 0)
     a80:	0007117e 	andeq	r1, r7, lr, ror r1
     a84:	01cd1700 	biceq	r1, sp, r0, lsl #14
     a88:	80000000 	andhi	r0, r0, r0
     a8c:	01571300 	cmpeq	r7, r0, lsl #6
     a90:	83140000 	tsthi	r4, #0
     a94:	00100000 	andseq	r0, r0, r0
     a98:	80010000 	andhi	r0, r1, r0
     a9c:	0000072b 	andeq	r0, r0, fp, lsr #14
     aa0:	00016318 	andeq	r6, r1, r8, lsl r3
     aa4:	19000000 	stmdbne	r0, {}	; <UNPREDICTABLE>
     aa8:	00008300 	andeq	r8, r0, r0, lsl #6
     aac:	00000bd3 	ldrdeq	r0, [r0], -r3
     ab0:	03ee0f00 	mvneq	r0, #0, 30
     ab4:	a8010000 	stmdage	r1, {}	; <UNPREDICTABLE>
     ab8:	00008324 	andeq	r8, r0, r4, lsr #6
     abc:	00000034 	andeq	r0, r0, r4, lsr r0
     ac0:	08119c01 	ldmdaeq	r1, {r0, sl, fp, ip, pc}
     ac4:	d4260000 	strtle	r0, [r6], #-0
     ac8:	01000001 	tsteq	r0, r1
     acc:	00005da8 	andeq	r5, r0, r8, lsr #27
     ad0:	26500100 	ldrbcs	r0, [r0], -r0, lsl #2
     ad4:	00000417 	andeq	r0, r0, r7, lsl r4
     ad8:	0091a801 	addseq	sl, r1, r1, lsl #16
     adc:	51010000 	mrspl	r0, (UNDEF: 1)
     ae0:	0003ca11 	andeq	ip, r3, r1, lsl sl
     ae4:	5da90100 	stfpls	f0, [r9]
     ae8:	27000000 	strcs	r0, [r0, -r0]
     aec:	20000002 	andcs	r0, r0, r2
     af0:	00000396 	muleq	r0, r6, r3
     af4:	005db101 	subseq	fp, sp, r1, lsl #2
     af8:	50010000 	andpl	r0, r1, r0
     afc:	0001d713 	andeq	sp, r1, r3, lsl r7
     b00:	00832400 	addeq	r2, r3, r0, lsl #8
     b04:	00000400 	andeq	r0, r0, r0, lsl #8
     b08:	a7a90100 	strge	r0, [r9, r0, lsl #2]!
     b0c:	14000007 	strne	r0, [r0], #-7
     b10:	00008324 	andeq	r8, r0, r4, lsr #6
     b14:	00000004 	andeq	r0, r0, r4
     b18:	0001e715 	andeq	lr, r1, r5, lsl r7
     b1c:	00024800 	andeq	r4, r2, r0, lsl #16
     b20:	13000000 	movwne	r0, #0
     b24:	000001f3 	strdeq	r0, [r0], -r3
     b28:	0000832c 	andeq	r8, r0, ip, lsr #6
     b2c:	00000004 	andeq	r0, r0, r4
     b30:	07c4af01 	strbeq	sl, [r4, r1, lsl #30]
     b34:	ff160000 			; <UNDEFINED> instruction: 0xff160000
     b38:	5b000001 	blpl	b44 <__code_start__-0x74bc>
     b3c:	00000002 	andeq	r0, r0, r2
     b40:	00020913 	andeq	r0, r2, r3, lsl r9
     b44:	00833000 	addeq	r3, r3, r0
     b48:	00000400 	andeq	r0, r0, r0, lsl #8
     b4c:	dfb40100 	svcle	0x00b40100
     b50:	27000007 	strcs	r0, [r0, -r7]
     b54:	00000215 	andeq	r0, r0, r5, lsl r2
     b58:	13005001 	movwne	r5, #1
     b5c:	000001f3 	strdeq	r0, [r0], -r3
     b60:	00008334 	andeq	r8, r0, r4, lsr r3
     b64:	00000008 	andeq	r0, r0, r8
     b68:	07fabe01 	ldrbeq	fp, [sl, r1, lsl #28]!
     b6c:	ff170000 			; <UNDEFINED> instruction: 0xff170000
     b70:	e7000001 	str	r0, [r0, -r1]
     b74:	57220001 	strpl	r0, [r2, -r1]!
     b78:	3c000001 	stccc	0, cr0, [r0], {1}
     b7c:	08000083 	stmdaeq	r0, {r0, r1, r7}
     b80:	01000000 	mrseq	r0, (UNDEF: 0)
     b84:	016318bf 	strheq	r1, [r3, #-143]!	; 0xffffff71
     b88:	00000000 	andeq	r0, r0, r0
     b8c:	02310f00 	eorseq	r0, r1, #0, 30
     b90:	c4010000 	strgt	r0, [r1], #-0
     b94:	00008358 	andeq	r8, r0, r8, asr r3
     b98:	00000098 	muleq	r0, r8, r0
     b9c:	09449c01 	stmdbeq	r4, {r0, sl, fp, ip, pc}^
     ba0:	701f0000 	andsvc	r0, pc, r0
     ba4:	c4010063 	strgt	r0, [r1], #-99	; 0x63
     ba8:	0000002c 	andeq	r0, r0, ip, lsr #32
     bac:	0000026e 	andeq	r0, r0, lr, ror #4
     bb0:	0000f212 	andeq	pc, r0, r2, lsl r2	; <UNPREDICTABLE>
     bb4:	00095400 	andeq	r5, r9, r0, lsl #8
     bb8:	a8030500 	stmdage	r3, {r8, sl}
     bbc:	1300009b 	movwne	r0, #155	; 0x9b
     bc0:	0000021f 	andeq	r0, r0, pc, lsl r2
     bc4:	00008364 	andeq	r8, r0, r4, ror #6
     bc8:	00000008 	andeq	r0, r0, r8
     bcc:	0889c601 	stmeq	r9, {r0, r9, sl, lr, pc}
     bd0:	64140000 	ldrvs	r0, [r4], #-0
     bd4:	08000083 	stmdaeq	r0, {r0, r1, r7}
     bd8:	21000000 	mrscs	r0, (UNDEF: 0)
     bdc:	0000022f 	andeq	r0, r0, pc, lsr #4
     be0:	0000d922 	andeq	sp, r0, r2, lsr #18
     be4:	00836400 	addeq	r6, r3, r0, lsl #8
     be8:	00000400 	andeq	r0, r0, r0, lsl #8
     bec:	14aa0200 	strtne	r0, [sl], #512	; 0x200
     bf0:	00008364 	andeq	r8, r0, r4, ror #6
     bf4:	00000004 	andeq	r0, r0, r4
     bf8:	0000e915 	andeq	lr, r0, r5, lsl r9
     bfc:	0002cc00 	andeq	ip, r2, r0, lsl #24
     c00:	00000000 	andeq	r0, r0, r0
     c04:	02391300 	eorseq	r1, r9, #0, 6
     c08:	83c40000 	bichi	r0, r4, #0
     c0c:	00040000 	andeq	r0, r4, r0
     c10:	ca010000 	bgt	40c18 <__bss_end__+0x366c0>
     c14:	000008ac 	andeq	r0, r0, ip, lsr #17
     c18:	0083c414 	addeq	ip, r3, r4, lsl r4
     c1c:	00000400 	andeq	r0, r0, r0, lsl #8
     c20:	02492100 	subeq	r2, r9, #0, 2
     c24:	00000000 	andeq	r0, r0, r0
     c28:	00837819 	addeq	r7, r3, r9, lsl r8
     c2c:	000baf00 	andeq	sl, fp, r0, lsl #30
     c30:	838c1a00 	orrhi	r1, ip, #0, 20
     c34:	0bb60000 	bleq	fed80c3c <__bss_end__+0xfed766e4>
     c38:	08e40000 	stmiaeq	r4!, {}^	; <UNPREDICTABLE>
     c3c:	011b0000 	tsteq	fp, r0
     c40:	c7080253 	smlsdgt	r8, r3, r2, r0
     c44:	0552011b 	ldrbeq	r0, [r2, #-283]	; 0x11b
     c48:	009ba803 	addseq	sl, fp, r3, lsl #16
     c4c:	51011b00 	tstpl	r1, r0, lsl #22
     c50:	9a480305 	bls	120186c <__bss_end__+0x11f7314>
     c54:	011b0000 	tsteq	fp, r0
     c58:	e0030550 	and	r0, r3, r0, asr r5
     c5c:	0000009a 	muleq	r0, sl, r0
     c60:	00839019 	addeq	r9, r3, r9, lsl r0
     c64:	000bcc00 	andeq	ip, fp, r0, lsl #24
     c68:	83a41900 			; <UNDEFINED> instruction: 0x83a41900
     c6c:	0baf0000 	bleq	febc0c74 <__bss_end__+0xfebb671c>
     c70:	c01a0000 	andsgt	r0, sl, r0
     c74:	b6000083 	strlt	r0, [r0], -r3, lsl #1
     c78:	2f00000b 	svccs	0x0000000b
     c7c:	1b000009 	blne	ca8 <__code_start__-0x7358>
     c80:	08025301 	stmdaeq	r2, {r0, r8, r9, ip, lr}
     c84:	52011bc8 	andpl	r1, r1, #200, 22	; 0x32000
     c88:	9ba80305 	blls	fea018a4 <__bss_end__+0xfe9f734c>
     c8c:	011b0000 	tsteq	fp, r0
     c90:	48030551 	stmdami	r3, {r0, r4, r6, r8, sl}
     c94:	1b00009a 	blne	f04 <__code_start__-0x70fc>
     c98:	03055001 	movweq	r5, #20481	; 0x5001
     c9c:	00009a34 	andeq	r9, r0, r4, lsr sl
     ca0:	007d021b 	rsbseq	r0, sp, fp, lsl r2
     ca4:	9b180305 	blls	6018c0 <__bss_end__+0x5f7368>
     ca8:	19000000 	stmdbne	r0, {}	; <UNPREDICTABLE>
     cac:	000083c4 	andeq	r8, r0, r4, asr #7
     cb0:	00000bcc 	andeq	r0, r0, ip, asr #23
     cb4:	0083d024 	addeq	sp, r3, r4, lsr #32
     cb8:	50011b00 	andpl	r1, r1, r0, lsl #22
     cbc:	00003001 	andeq	r3, r0, r1
     cc0:	00007f1c 	andeq	r7, r0, ip, lsl pc
     cc4:	00095400 	andeq	r5, r9, r0, lsl #8
     cc8:	00761d00 	rsbseq	r1, r6, r0, lsl #26
     ccc:	00150000 	andseq	r0, r5, r0
     cd0:	00094407 	andeq	r4, r9, r7, lsl #8
     cd4:	074e0f00 	strbeq	r0, [lr, -r0, lsl #30]
     cd8:	cd010000 	stcgt	0, cr0, [r1, #-0]
     cdc:	000083f0 	strdeq	r8, [r0], -r0
     ce0:	00000004 	andeq	r0, r0, r4
     ce4:	097b9c01 	ldmdbeq	fp!, {r0, sl, fp, ip, pc}^
     ce8:	70280000 	eorvc	r0, r8, r0
     cec:	cd010063 	stcgt	0, cr0, [r1, #-396]	; 0xfffffe74
     cf0:	0000002c 	andeq	r0, r0, ip, lsr #32
     cf4:	0f005001 	svceq	0x00005001
     cf8:	000002da 	ldrdeq	r0, [r0], -sl
     cfc:	83f4d801 	mvnshi	sp, #65536	; 0x10000
     d00:	002c0000 	eoreq	r0, ip, r0
     d04:	9c010000 	stcls	0, cr0, [r1], {-0}
     d08:	000009e1 	andeq	r0, r0, r1, ror #19
     d0c:	0000f212 	andeq	pc, r0, r2, lsl r2	; <UNPREDICTABLE>
     d10:	0009f100 	andeq	pc, r9, r0, lsl #2
     d14:	c0030500 	andgt	r0, r3, r0, lsl #10
     d18:	1900009b 	stmdbne	r0, {r0, r1, r3, r4, r7}
     d1c:	000083fc 	strdeq	r8, [r0], -ip
     d20:	00000baf 	andeq	r0, r0, pc, lsr #23
     d24:	0084101a 	addeq	r1, r4, sl, lsl r0
     d28:	000bb600 	andeq	fp, fp, r0, lsl #12
     d2c:	0009d700 	andeq	sp, r9, r0, lsl #14
     d30:	53011b00 	movwpl	r1, #6912	; 0x1b00
     d34:	1bd90802 	blne	ff642d44 <__bss_end__+0xff6387ec>
     d38:	03055201 	movweq	r5, #20993	; 0x5201
     d3c:	00009bc0 	andeq	r9, r0, r0, asr #23
     d40:	0551011b 	ldrbeq	r0, [r1, #-283]	; 0x11b
     d44:	009a4803 	addseq	r4, sl, r3, lsl #16
     d48:	50011b00 	andpl	r1, r1, r0, lsl #22
     d4c:	9b280305 	blls	a01968 <__bss_end__+0x9f7410>
     d50:	19000000 	stmdbne	r0, {}	; <UNPREDICTABLE>
     d54:	00008414 	andeq	r8, r0, r4, lsl r4
     d58:	00000bcc 	andeq	r0, r0, ip, asr #23
     d5c:	007f1c00 	rsbseq	r1, pc, r0, lsl #24
     d60:	09f10000 	ldmibeq	r1!, {}^	; <UNPREDICTABLE>
     d64:	761d0000 	ldrvc	r0, [sp], -r0
     d68:	10000000 	andne	r0, r0, r0
     d6c:	09e10700 	stmibeq	r1!, {r8, r9, sl}^
     d70:	f90f0000 			; <UNDEFINED> instruction: 0xf90f0000
     d74:	01000002 	tsteq	r0, r2
     d78:	008420dc 	ldrdeq	r2, [r4], ip
     d7c:	00003400 	andeq	r3, r0, r0, lsl #8
     d80:	d49c0100 	ldrle	r0, [ip], #256	; 0x100
     d84:	2600000a 	strcs	r0, [r0], -sl
     d88:	000001d4 	ldrdeq	r0, [r0], -r4
     d8c:	005ddc01 	subseq	sp, sp, r1, lsl #24
     d90:	50010000 	andpl	r0, r1, r0
     d94:	00041726 	andeq	r1, r4, r6, lsr #14
     d98:	91dc0100 	bicsls	r0, ip, r0, lsl #2
     d9c:	01000000 	mrseq	r0, (UNDEF: 0)
     da0:	03ca1151 	biceq	r1, sl, #1073741844	; 0x40000014
     da4:	dd010000 	stcle	0, cr0, [r1, #-0]
     da8:	0000005d 	andeq	r0, r0, sp, asr r0
     dac:	000002df 	ldrdeq	r0, [r0], -pc	; <UNPREDICTABLE>
     db0:	00039620 	andeq	r9, r3, r0, lsr #12
     db4:	5de50100 	stfple	f0, [r5]
     db8:	01000000 	mrseq	r0, (UNDEF: 0)
     dbc:	01d71350 	bicseq	r1, r7, r0, asr r3
     dc0:	84200000 	strthi	r0, [r0], #-0
     dc4:	00040000 	andeq	r0, r4, r0
     dc8:	dd010000 	stcle	0, cr0, [r1, #-0]
     dcc:	00000a68 	andeq	r0, r0, r8, ror #20
     dd0:	00842014 	addeq	r2, r4, r4, lsl r0
     dd4:	00000400 	andeq	r0, r0, r0, lsl #8
     dd8:	01e71500 	mvneq	r1, r0, lsl #10
     ddc:	03020000 	movweq	r0, #8192	; 0x2000
     de0:	00000000 	andeq	r0, r0, r0
     de4:	0001f313 	andeq	pc, r1, r3, lsl r3	; <UNPREDICTABLE>
     de8:	00842800 	addeq	r2, r4, r0, lsl #16
     dec:	00000400 	andeq	r0, r0, r0, lsl #8
     df0:	85e30100 	strbhi	r0, [r3, #256]!	; 0x100
     df4:	1600000a 	strne	r0, [r0], -sl
     df8:	000001ff 	strdeq	r0, [r0], -pc	; <UNPREDICTABLE>
     dfc:	00000315 	andeq	r0, r0, r5, lsl r3
     e00:	02091300 	andeq	r1, r9, #0, 6
     e04:	842c0000 	strthi	r0, [ip], #-0
     e08:	00040000 	andeq	r0, r4, r0
     e0c:	e8010000 	stmda	r1, {}	; <UNPREDICTABLE>
     e10:	00000aa0 	andeq	r0, r0, r0, lsr #21
     e14:	00021527 	andeq	r1, r2, r7, lsr #10
     e18:	00500100 	subseq	r0, r0, r0, lsl #2
     e1c:	0001f313 	andeq	pc, r1, r3, lsl r3	; <UNPREDICTABLE>
     e20:	00843000 	addeq	r3, r4, r0
     e24:	00000800 	andeq	r0, r0, r0, lsl #16
     e28:	bdf20100 	ldflte	f0, [r2]
     e2c:	2900000a 	stmdbcs	r0, {r1, r3}
     e30:	000001ff 	strdeq	r0, [r0], -pc	; <UNPREDICTABLE>
     e34:	004001e7 	subeq	r0, r0, r7, ror #3
     e38:	01572200 	cmpeq	r7, r0, lsl #4
     e3c:	84380000 	ldrthi	r0, [r8], #-0
     e40:	00080000 	andeq	r0, r8, r0
     e44:	f3010000 	vhadd.u8	d0, d1, d0
     e48:	00016318 	andeq	r6, r1, r8, lsl r3
     e4c:	00000000 	andeq	r0, r0, r0
     e50:	0003390f 	andeq	r3, r3, pc, lsl #18
     e54:	54f80100 	ldrbtpl	r0, [r8], #256	; 0x100
     e58:	10000084 	andne	r0, r0, r4, lsl #1
     e5c:	01000000 	mrseq	r0, (UNDEF: 0)
     e60:	000b209c 	muleq	fp, ip, r0
     e64:	01d42600 	bicseq	r2, r4, r0, lsl #12
     e68:	f8010000 			; <UNDEFINED> instruction: 0xf8010000
     e6c:	0000005d 	andeq	r0, r0, sp, asr r0
     e70:	ca2a5001 	bgt	a94e7c <__bss_end__+0xa8a924>
     e74:	01000003 	tsteq	r0, r3
     e78:	00005df9 	strdeq	r5, [r0], -r9
     e7c:	4001e600 	andmi	lr, r1, r0, lsl #12
     e80:	01f32b00 	mvnseq	r2, r0, lsl #22
     e84:	84540000 	ldrbhi	r0, [r4], #-0
     e88:	00100000 	andseq	r0, r0, r0
     e8c:	00010000 	andeq	r0, r1, r0
     e90:	01ff2901 	mvnseq	r2, r1, lsl #18
     e94:	01e60000 	mvneq	r0, r0
     e98:	00000040 	andeq	r0, r0, r0, asr #32
     e9c:	0003a82c 	andeq	sl, r3, ip, lsr #16
     ea0:	01090100 	mrseq	r0, (UNDEF: 25)
     ea4:	00000025 	andeq	r0, r0, r5, lsr #32
     ea8:	00008464 	andeq	r8, r0, r4, ror #8
     eac:	00000060 	andeq	r0, r0, r0, rrx
     eb0:	0b7c9c01 	bleq	1f27ebc <__bss_end__+0x1f1d964>
     eb4:	702d0000 	eorvc	r0, sp, r0
     eb8:	09010063 	stmdbeq	r1, {r0, r1, r5, r6}
     ebc:	00002c01 	andeq	r2, r0, r1, lsl #24
     ec0:	00032800 	andeq	r2, r3, r0, lsl #16
     ec4:	30722d00 	rsbscc	r2, r2, r0, lsl #26
     ec8:	01090100 	mrseq	r0, (UNDEF: 25)
     ecc:	0000005d 	andeq	r0, r0, sp, asr r0
     ed0:	00000394 	muleq	r0, r4, r3
     ed4:	0003e62e 	andeq	lr, r3, lr, lsr #12
     ed8:	010a0100 	mrseq	r0, (UNDEF: 26)
     edc:	0000005d 	andeq	r0, r0, sp, asr r0
     ee0:	000003c0 	andeq	r0, r0, r0, asr #7
     ee4:	0084b02f 	addeq	fp, r4, pc, lsr #32
     ee8:	000bb600 	andeq	fp, fp, r0, lsl #12
     eec:	50011b00 	andpl	r1, r1, r0, lsl #22
     ef0:	9b580305 	blls	1601b0c <__bss_end__+0x15f75b4>
     ef4:	00000000 	andeq	r0, r0, r0
     ef8:	00032820 	andeq	r2, r3, r0, lsr #16
     efc:	910b0100 	mrsls	r0, (UNDEF: 27)
     f00:	05000000 	streq	r0, [r0, #-0]
     f04:	00a13c03 	adceq	r3, r1, r3, lsl #24
     f08:	029e2000 	addseq	r2, lr, #0
     f0c:	89010000 	stmdbhi	r1, {}	; <UNPREDICTABLE>
     f10:	00000091 	muleq	r0, r1, r0
     f14:	a1400305 	cmpge	r0, r5, lsl #6
     f18:	da300000 	ble	c00f20 <__bss_end__+0xbf69c8>
     f1c:	01000000 	mrseq	r0, (UNDEF: 0)
     f20:	000025d5 	ldrdeq	r2, [r0], -r5
     f24:	44030500 	strmi	r0, [r3], #-1280	; 0x500
     f28:	310000a1 	smlatbcc	r0, r1, r0, r0
     f2c:	00000210 	andeq	r0, r0, r0, lsl r2
     f30:	63321e04 	teqvs	r2, #4, 28	; 0x40
     f34:	04000005 	streq	r0, [r0], #-5
     f38:	00002529 	andeq	r2, r0, r9, lsr #10
     f3c:	000bcc00 	andeq	ip, fp, r0, lsl #24
     f40:	00860900 	addeq	r0, r6, r0, lsl #18
     f44:	00330000 	eorseq	r0, r3, r0
     f48:	0000af31 	andeq	sl, r0, r1, lsr pc
     f4c:	31650400 	cmncc	r5, r0, lsl #8
     f50:	00000402 	andeq	r0, r0, r2, lsl #8
     f54:	f3003605 	vmax.u8	d3, d0, d5
     f58:	0400000e 	streq	r0, [r0], #-14
     f5c:	00044d00 	andeq	r4, r4, r0, lsl #26
     f60:	1d010400 	cfstrsne	mvf0, [r1, #-0]
     f64:	01000001 	tsteq	r0, r1
     f68:	0000042a 	andeq	r0, r0, sl, lsr #8
     f6c:	0000001b 	andeq	r0, r0, fp, lsl r0
     f70:	000085ec 	andeq	r8, r0, ip, ror #11
     f74:	00000770 	andeq	r0, r0, r0, ror r7
     f78:	0000032e 	andeq	r0, r0, lr, lsr #6
     f7c:	69050402 	stmdbvs	r5, {r1, sl}
     f80:	0300746e 	movweq	r7, #1134	; 0x46e
     f84:	01940704 	orrseq	r0, r4, r4, lsl #14
     f88:	01030000 	mrseq	r0, (UNDEF: 3)
     f8c:	0000a306 	andeq	sl, r0, r6, lsl #6
     f90:	05020300 	streq	r0, [r2, #-768]	; 0x300
     f94:	000000e8 	andeq	r0, r0, r8, ror #1
     f98:	b9050403 	stmdblt	r5, {r0, r1, sl}
     f9c:	03000001 	movweq	r0, #1
     fa0:	01b40508 			; <UNDEFINED> instruction: 0x01b40508
     fa4:	01030000 	mrseq	r0, (UNDEF: 3)
     fa8:	0000a108 	andeq	sl, r0, r8, lsl #2
     fac:	07020300 	streq	r0, [r2, -r0, lsl #6]
     fb0:	000000c7 	andeq	r0, r0, r7, asr #1
     fb4:	00020704 	andeq	r0, r2, r4, lsl #14
     fb8:	68340600 	ldmdavs	r4!, {r9, sl}
     fbc:	03000000 	movweq	r0, #0
     fc0:	018f0704 	orreq	r0, pc, r4, lsl #14
     fc4:	08030000 	stmdaeq	r3, {}	; <UNPREDICTABLE>
     fc8:	00018a07 	andeq	r8, r1, r7, lsl #20
     fcc:	07040300 	streq	r0, [r4, -r0, lsl #6]
     fd0:	000001ab 	andeq	r0, r0, fp, lsr #3
     fd4:	01030405 	tsteq	r3, r5, lsl #8
     fd8:	0000aa08 	andeq	sl, r0, r8, lsl #20
     fdc:	8c040600 	stchi	6, cr0, [r4], {-0}
     fe0:	07000000 	streq	r0, [r0, -r0]
     fe4:	0000007f 	andeq	r0, r0, pc, ror r0
     fe8:	0003d304 	andeq	sp, r3, r4, lsl #6
     fec:	9c8a0200 	sfmls	f0, 4, [sl], {0}
     ff0:	06000000 	streq	r0, [r0], -r0
     ff4:	0000a204 	andeq	sl, r0, r4, lsl #4
     ff8:	00b70800 	adcseq	r0, r7, r0, lsl #16
     ffc:	b7090000 	strlt	r0, [r9, -r0]
    1000:	09000000 	stmdbeq	r0, {}	; <UNPREDICTABLE>
    1004:	0000005d 	andeq	r0, r0, sp, asr r0
    1008:	00005d09 	andeq	r5, r0, r9, lsl #26
    100c:	04060000 	streq	r0, [r6], #-0
    1010:	0000005d 	andeq	r0, r0, sp, asr r0
    1014:	0001150a 	andeq	r1, r1, sl, lsl #10
    1018:	0a073400 	beq	1ce020 <__bss_end__+0x1c3ac8>
    101c:	00000162 	andeq	r0, r0, r2, ror #2
    1020:	000a2a0b 	andeq	r2, sl, fp, lsl #20
    1024:	620f0700 	andvs	r0, pc, #0, 14
    1028:	00000001 	andeq	r0, r0, r1
    102c:	0700410c 	streq	r4, [r0, -ip, lsl #2]
    1030:	00017a12 	andeq	r7, r1, r2, lsl sl
    1034:	420c0400 	andmi	r0, ip, #0, 8
    1038:	7a130700 	bvc	4c2c40 <__bss_end__+0x4b86e8>
    103c:	08000001 	stmdaeq	r0, {r0}
    1040:	0000040b 	andeq	r0, r0, fp, lsl #8
    1044:	7a160700 	bvc	582c4c <__bss_end__+0x5786f4>
    1048:	0c000001 	stceq	0, cr0, [r0], {1}
    104c:	0002010b 	andeq	r0, r2, fp, lsl #2
    1050:	8f180700 	svchi	0x00180700
    1054:	10000001 	andne	r0, r0, r1
    1058:	0001a10b 	andeq	sl, r1, fp, lsl #2
    105c:	951f0700 	ldrls	r0, [pc, #-1792]	; 964 <__code_start__-0x769c>
    1060:	14000001 	strne	r0, [r0], #-1
    1064:	0000900b 	andeq	r9, r0, fp
    1068:	95310700 	ldrls	r0, [r1, #-1792]!	; 0x700
    106c:	18000001 	stmdane	r0, {r0}
    1070:	0000bc0b 	andeq	fp, r0, fp, lsl #24
    1074:	9a360700 	bls	d82c7c <__bss_end__+0xd78724>
    1078:	1c000001 	stcne	0, cr0, [r0], {1}
    107c:	0001cd0b 	andeq	ip, r1, fp, lsl #26
    1080:	9a3a0700 	bls	e82c88 <__bss_end__+0xe78730>
    1084:	20000001 	andcs	r0, r0, r1
    1088:	0001c20b 	andeq	ip, r1, fp, lsl #4
    108c:	953f0700 	ldrls	r0, [pc, #-1792]!	; 994 <__code_start__-0x766c>
    1090:	24000001 	strcs	r0, [r0], #-1
    1094:	0000090b 	andeq	r0, r0, fp, lsl #18
    1098:	2c420700 	mcrrcs	7, 0, r0, r2, cr0
    109c:	28000000 	stmdacs	r0, {}	; <UNPREDICTABLE>
    10a0:	0000880b 	andeq	r8, r0, fp, lsl #16
    10a4:	2c430700 	mcrrcs	7, 0, r0, r3, cr0
    10a8:	2c000000 	stccs	0, cr0, [r0], {-0}
    10ac:	0000ff0b 	andeq	pc, r0, fp, lsl #30
    10b0:	2c460700 	mcrrcs	7, 0, r0, r6, cr0
    10b4:	30000000 	andcc	r0, r0, r0
    10b8:	68040600 	stmdavs	r4, {r9, sl}
    10bc:	0d000001 	stceq	0, cr0, [r0, #-4]
    10c0:	00017408 	andeq	r7, r1, r8, lsl #8
    10c4:	01740900 	cmneq	r4, r0, lsl #18
    10c8:	06000000 	streq	r0, [r0], -r0
    10cc:	0000bd04 	andeq	fp, r0, r4, lsl #26
    10d0:	69040600 	stmdbvs	r4, {r9, sl}
    10d4:	0e000001 	cdpeq	0, 0, cr0, cr0, cr1, {0}
    10d8:	00000025 	andeq	r0, r0, r5, lsr #32
    10dc:	0000018f 	andeq	r0, r0, pc, lsl #3
    10e0:	00017409 	andeq	r7, r1, r9, lsl #8
    10e4:	04060000 	streq	r0, [r6], #-0
    10e8:	00000180 	andeq	r0, r0, r0, lsl #3
    10ec:	00002c0f 	andeq	r2, r0, pc, lsl #24
    10f0:	005d0f00 	subseq	r0, sp, r0, lsl #30
    10f4:	11040000 	mrsne	r0, (UNDEF: 4)
    10f8:	07000000 	streq	r0, [r0, -r0]
    10fc:	0000bd47 	andeq	fp, r0, r7, asr #26
    1100:	031f1000 	tsteq	pc, #0
    1104:	a6020000 	strge	r0, [r2], -r0
    1108:	0000005d 	andeq	r0, r0, sp, asr r0
    110c:	0001c603 	andeq	ip, r1, r3, lsl #12
    1110:	65721100 	ldrbvs	r1, [r2, #-256]!	; 0x100
    1114:	a6020074 			; <UNDEFINED> instruction: 0xa6020074
    1118:	0000005d 	andeq	r0, r0, sp, asr r0
    111c:	04ce1000 	strbeq	r1, [lr], #0
    1120:	07050000 	streq	r0, [r5, -r0]
    1124:	00000025 	andeq	r0, r0, r5, lsr #32
    1128:	0001e203 	andeq	lr, r1, r3, lsl #4
    112c:	04e71200 	strbteq	r1, [r7], #512	; 0x200
    1130:	07050000 	streq	r0, [r5, -r0]
    1134:	0000002c 	andeq	r0, r0, ip, lsr #32
    1138:	04511000 	ldrbeq	r1, [r1], #-0
    113c:	26030000 	strcs	r0, [r3], -r0
    1140:	0000005d 	andeq	r0, r0, sp, asr r0
    1144:	0001fe03 	andeq	pc, r1, r3, lsl #28
    1148:	04c91300 	strbeq	r1, [r9], #768	; 0x300
    114c:	27030000 	strcs	r0, [r3, -r0]
    1150:	0000005d 	andeq	r0, r0, sp, asr r0
    1154:	02681000 	rsbeq	r1, r8, #0
    1158:	a9020000 	stmdbge	r2, {}	; <UNPREDICTABLE>
    115c:	0000002c 	andeq	r0, r0, ip, lsr #32
    1160:	00021803 	andeq	r1, r2, r3, lsl #16
    1164:	00721100 	rsbseq	r1, r2, r0, lsl #2
    1168:	002caa02 	eoreq	sl, ip, r2, lsl #20
    116c:	14000000 	strne	r0, [r0], #-0
    1170:	0000040b 	andeq	r0, r0, fp, lsl #8
    1174:	85ec0b01 	strbhi	r0, [ip, #2817]!	; 0xb01
    1178:	01980000 	orrseq	r0, r8, r0
    117c:	9c010000 	stcls	0, cr0, [r1], {-0}
    1180:	00000459 	andeq	r0, r0, r9, asr r4
    1184:	0004e215 	andeq	lr, r4, r5, lsl r2
    1188:	b70b0100 	strlt	r0, [fp, -r0, lsl #2]
    118c:	30000000 	andcc	r0, r0, r0
    1190:	16000004 	strne	r0, [r0], -r4
    1194:	01006370 	tsteq	r0, r0, ror r3
    1198:	00005d0b 	andeq	r5, r0, fp, lsl #26
    119c:	00045100 	andeq	r5, r4, r0, lsl #2
    11a0:	01d41500 	bicseq	r1, r4, r0, lsl #10
    11a4:	0b010000 	bleq	411ac <__bss_end__+0x36c54>
    11a8:	0000005d 	andeq	r0, r0, sp, asr r0
    11ac:	0000047d 	andeq	r0, r0, sp, ror r4
    11b0:	0000f217 	andeq	pc, r0, r7, lsl r2	; <UNPREDICTABLE>
    11b4:	00046900 	andeq	r6, r4, r0, lsl #18
    11b8:	d8030500 	stmdale	r3, {r8, sl}
    11bc:	1800009e 	stmdane	r0, {r1, r2, r3, r4, r7}
    11c0:	10010063 	andne	r0, r1, r3, rrx
    11c4:	0000046e 	andeq	r0, r0, lr, ror #8
    11c8:	0000049e 	muleq	r0, lr, r4
    11cc:	0001fe19 	andeq	pc, r1, r9, lsl lr	; <UNPREDICTABLE>
    11d0:	00862000 	addeq	r2, r6, r0
    11d4:	00000800 	andeq	r0, r0, r0, lsl #16
    11d8:	bb0d0100 	bllt	3415e0 <__bss_end__+0x337088>
    11dc:	1a000002 	bne	11ec <__code_start__-0x6e14>
    11e0:	00008620 	andeq	r8, r0, r0, lsr #12
    11e4:	00000008 	andeq	r0, r0, r8
    11e8:	00020e1b 	andeq	r0, r2, fp, lsl lr
    11ec:	01aa1c00 			; <UNDEFINED> instruction: 0x01aa1c00
    11f0:	86200000 	strthi	r0, [r0], -r0
    11f4:	00040000 	andeq	r0, r4, r0
    11f8:	aa020000 	bge	81200 <__bss_end__+0x76ca8>
    11fc:	0086201a 	addeq	r2, r6, sl, lsl r0
    1200:	00000400 	andeq	r0, r0, r0, lsl #8
    1204:	01ba1d00 			; <UNDEFINED> instruction: 0x01ba1d00
    1208:	04b10000 	ldrteq	r0, [r1], #0
    120c:	00000000 	andeq	r0, r0, r0
    1210:	201e0000 	andscs	r0, lr, r0
    1214:	78000086 	stmdavc	r0, {r1, r2, r7}
    1218:	f000000e 			; <UNDEFINED> instruction: 0xf000000e
    121c:	1f000002 	svcne	0x00000002
    1220:	3c015301 	stccc	3, cr5, [r1], {1}
    1224:	0552011f 	ldrbeq	r0, [r2, #-287]	; 0x11f
    1228:	009ed803 	addseq	sp, lr, r3, lsl #16
    122c:	51011f00 	tstpl	r1, r0, lsl #30
    1230:	9bf40305 	blls	ffd01e4c <__bss_end__+0xffcf78f4>
    1234:	011f0000 	tsteq	pc, r0
    1238:	d4030550 	strle	r0, [r3], #-1360	; 0x550
    123c:	1f00009b 	svcne	0x0000009b
    1240:	02007d02 	andeq	r7, r0, #2, 26	; 0x80
    1244:	20000075 	andcs	r0, r0, r5, ror r0
    1248:	00008634 	andeq	r8, r0, r4, lsr r6
    124c:	00000e8e 	andeq	r0, r0, lr, lsl #29
    1250:	0086481e 	addeq	r4, r6, lr, lsl r8
    1254:	000e7800 	andeq	r7, lr, r0, lsl #16
    1258:	00032700 	andeq	r2, r3, r0, lsl #14
    125c:	53011f00 	movwpl	r1, #7936	; 0x1f00
    1260:	011f3e01 	tsteq	pc, r1, lsl #28
    1264:	d8030552 	stmdale	r3, {r1, r4, r6, r8, sl}
    1268:	1f00009e 	svcne	0x0000009e
    126c:	03055101 	movweq	r5, #20737	; 0x5101
    1270:	00009bf4 	strdeq	r9, [r0], -r4
    1274:	0550011f 	ldrbeq	r0, [r0, #-287]	; 0x11f
    1278:	009ae003 	addseq	lr, sl, r3
    127c:	4c200000 	stcmi	0, cr0, [r0], #-0
    1280:	95000086 	strls	r0, [r0, #-134]	; 0x86
    1284:	1e00000e 	cdpne	0, 0, cr0, cr0, cr14, {0}
    1288:	00008674 	andeq	r8, r0, r4, ror r6
    128c:	00000e78 	andeq	r0, r0, r8, ror lr
    1290:	0000034d 	andeq	r0, r0, sp, asr #6
    1294:	0251011f 	subseq	r0, r1, #-1073741817	; 0xc0000007
    1298:	011f0075 	tsteq	pc, r5, ror r0	; <UNPREDICTABLE>
    129c:	08030550 	stmdaeq	r3, {r4, r6, r8, sl}
    12a0:	0000009c 	muleq	r0, ip, r0
    12a4:	00867c1e 	addeq	r7, r6, lr, lsl ip
    12a8:	000e9c00 	andeq	r9, lr, r0, lsl #24
    12ac:	00036100 	andeq	r6, r3, r0, lsl #2
    12b0:	50011f00 	andpl	r1, r1, r0, lsl #30
    12b4:	00007502 	andeq	r7, r0, r2, lsl #10
    12b8:	0086a021 	addeq	sl, r6, r1, lsr #32
    12bc:	00037100 	andeq	r7, r3, r0, lsl #2
    12c0:	50011f00 	andpl	r1, r1, r0, lsl #30
    12c4:	00007402 	andeq	r7, r0, r2, lsl #8
    12c8:	0086a81e 	addeq	sl, r6, lr, lsl r8
    12cc:	000e7800 	andeq	r7, lr, r0, lsl #16
    12d0:	00038800 	andeq	r8, r3, r0, lsl #16
    12d4:	50011f00 	andpl	r1, r1, r0, lsl #30
    12d8:	9c280305 	stcls	3, cr0, [r8], #-20	; 0xffffffec
    12dc:	20000000 	andcs	r0, r0, r0
    12e0:	000086c0 	andeq	r8, r0, r0, asr #13
    12e4:	00000e8e 	andeq	r0, r0, lr, lsl #29
    12e8:	0086dc1e 	addeq	sp, r6, lr, lsl ip
    12ec:	000e7800 	andeq	r7, lr, r0, lsl #16
    12f0:	0003ca00 	andeq	ip, r3, r0, lsl #20
    12f4:	53011f00 	movwpl	r1, #7936	; 0x1f00
    12f8:	1f210802 	svcne	0x00210802
    12fc:	03055201 	movweq	r5, #20993	; 0x5201
    1300:	00009ed8 	ldrdeq	r9, [r0], -r8
    1304:	0551011f 	ldrbeq	r0, [r1, #-287]	; 0x11f
    1308:	009bf403 	addseq	pc, fp, r3, lsl #8
    130c:	50011f00 	andpl	r1, r1, r0, lsl #30
    1310:	9a340305 	bls	d01f2c <__bss_end__+0xcf79d4>
    1314:	021f0000 	andseq	r0, pc, #0
    1318:	0305007d 	movweq	r0, #20605	; 0x507d
    131c:	00009c50 	andeq	r9, r0, r0, asr ip
    1320:	86e02000 	strbthi	r2, [r0], r0
    1324:	0e950000 	cdpeq	0, 9, cr0, cr5, cr0, {0}
    1328:	141e0000 	ldrne	r0, [lr], #-0
    132c:	78000087 	stmdavc	r0, {r0, r1, r2, r7}
    1330:	0900000e 	stmdbeq	r0, {r1, r2, r3}
    1334:	1f000004 	svcne	0x00000004
    1338:	08025301 	stmdaeq	r2, {r0, r8, r9, ip, lr}
    133c:	52011f24 	andpl	r1, r1, #36, 30	; 0x90
    1340:	9ed80305 	cdpls	3, 13, cr0, cr8, cr5, {0}
    1344:	011f0000 	tsteq	pc, r0
    1348:	f4030551 	vst3.16	{d0,d2,d4}, [r3 :64], r1
    134c:	1f00009b 	svcne	0x0000009b
    1350:	03055001 	movweq	r5, #20481	; 0x5001
    1354:	00009c74 	andeq	r9, r0, r4, ror ip
    1358:	007d021f 	rsbseq	r0, sp, pc, lsl r2
    135c:	00007502 	andeq	r7, r0, r2, lsl #10
    1360:	0087201e 	addeq	r2, r7, lr, lsl r0
    1364:	000ead00 	andeq	sl, lr, r0, lsl #26
    1368:	00042600 	andeq	r2, r4, r0, lsl #12
    136c:	51011f00 	tstpl	r1, r0, lsl #30
    1370:	85ec0305 	strbhi	r0, [ip, #773]!	; 0x305
    1374:	011f0000 	tsteq	pc, r0
    1378:	00750250 	rsbseq	r0, r5, r0, asr r2
    137c:	87482200 	strbhi	r2, [r8, -r0, lsl #4]
    1380:	0e780000 	cdpeq	0, 7, cr0, cr8, cr0, {0}
    1384:	011f0000 	tsteq	pc, r0
    1388:	26080253 			; <UNDEFINED> instruction: 0x26080253
    138c:	0552011f 	ldrbeq	r0, [r2, #-287]	; 0x11f
    1390:	009ed803 	addseq	sp, lr, r3, lsl #16
    1394:	51011f00 	tstpl	r1, r0, lsl #30
    1398:	9bf40305 	blls	ffd01fb4 <__bss_end__+0xffcf7a5c>
    139c:	011f0000 	tsteq	pc, r0
    13a0:	9c030550 	cfstr32ls	mvfx0, [r3], {80}	; 0x50
    13a4:	1f00009c 	svcne	0x0000009c
    13a8:	02007d02 	andeq	r7, r0, #2, 26	; 0x80
    13ac:	00000075 	andeq	r0, r0, r5, ror r0
    13b0:	00007f23 	andeq	r7, r0, r3, lsr #30
    13b4:	00046900 	andeq	r6, r4, r0, lsl #18
    13b8:	00762400 	rsbseq	r2, r6, r0, lsl #8
    13bc:	00130000 	andseq	r0, r3, r0
    13c0:	00045907 	andeq	r5, r4, r7, lsl #18
    13c4:	9f040600 	svcls	0x00040600
    13c8:	10000001 	andne	r0, r0, r1
    13cc:	00000493 	muleq	r0, r3, r4
    13d0:	005d1405 	subseq	r1, sp, r5, lsl #8
    13d4:	a8030000 	stmdage	r3, {}	; <UNPREDICTABLE>
    13d8:	12000004 	andne	r0, r0, #4
    13dc:	000004c9 	andeq	r0, r0, r9, asr #9
    13e0:	005d1405 	subseq	r1, sp, r5, lsl #8
    13e4:	e7120000 	ldr	r0, [r2, -r0]
    13e8:	05000004 	streq	r0, [r0, #-4]
    13ec:	00002c14 	andeq	r2, r0, r4, lsl ip
    13f0:	00f22500 	rscseq	r2, r2, r0, lsl #10
    13f4:	04b80000 	ldrteq	r0, [r8], #0
    13f8:	04930000 	ldreq	r0, [r3], #0
    13fc:	23000000 	movwcs	r0, #0
    1400:	0000007f 	andeq	r0, r0, pc, ror r0
    1404:	000004b8 			; <UNDEFINED> instruction: 0x000004b8
    1408:	00007624 	andeq	r7, r0, r4, lsr #12
    140c:	07000800 	streq	r0, [r0, -r0, lsl #16]
    1410:	000004a8 	andeq	r0, r0, r8, lsr #9
    1414:	00046f10 	andeq	r6, r4, r0, lsl pc
    1418:	5d250400 	cfstrspl	mvf0, [r5, #-0]
    141c:	03000000 	movweq	r0, #0
    1420:	0000050c 	andeq	r0, r0, ip, lsl #10
    1424:	04007826 	streq	r7, [r0], #-2086	; 0x826
    1428:	00005d25 	andeq	r5, r0, r5, lsr #26
    142c:	626c2600 	rsbvs	r2, ip, #0, 12
    1430:	2c250400 	cfstrscs	mvf0, [r5], #-0
    1434:	26000000 	strcs	r0, [r0], -r0
    1438:	04006275 	streq	r6, [r0], #-629	; 0x275
    143c:	00002c25 	andeq	r2, r0, r5, lsr #24
    1440:	00f22500 	rscseq	r2, r2, r0, lsl #10
    1444:	050c0000 	streq	r0, [ip, #-0]
    1448:	046f0000 	strbteq	r0, [pc], #-0	; 1450 <__code_start__-0x6bb0>
    144c:	6e110000 	cdpvs	0, 1, cr0, cr1, cr0, {0}
    1450:	2c280400 	cfstrscs	mvf0, [r8], #-0
    1454:	13000000 	movwne	r0, #0
    1458:	0000046a 	andeq	r0, r0, sl, ror #8
    145c:	002c2a04 	eoreq	r2, ip, r4, lsl #20
    1460:	07000000 	streq	r0, [r0, -r0]
    1464:	000004a8 	andeq	r0, r0, r8, lsr #9
    1468:	00048a10 	andeq	r8, r4, r0, lsl sl
    146c:	86180500 	ldrhi	r0, [r8], -r0, lsl #10
    1470:	03000000 	movweq	r0, #0
    1474:	0000053a 	andeq	r0, r0, sl, lsr r5
    1478:	0004c912 	andeq	ip, r4, r2, lsl r9
    147c:	5d180500 	cfldr32pl	mvfx0, [r8, #-0]
    1480:	25000000 	strcs	r0, [r0, #-0]
    1484:	000000f2 	strdeq	r0, [r0], -r2
    1488:	0000053a 	andeq	r0, r0, sl, lsr r5
    148c:	0000048a 	andeq	r0, r0, sl, lsl #9
    1490:	04a80700 	strteq	r0, [r8], #1792	; 0x700
    1494:	d9100000 	ldmdble	r0, {}	; <UNPREDICTABLE>
    1498:	05000004 	streq	r0, [r0, #-4]
    149c:	00005d0f 	andeq	r5, r0, pc, lsl #26
    14a0:	05730300 	ldrbeq	r0, [r3, #-768]!	; 0x300
    14a4:	c9120000 	ldmdbgt	r2, {}	; <UNPREDICTABLE>
    14a8:	05000004 	streq	r0, [r0, #-4]
    14ac:	00005d0f 	andeq	r5, r0, pc, lsl #26
    14b0:	04e71300 	strbteq	r1, [r7], #768	; 0x300
    14b4:	10050000 	andne	r0, r5, r0
    14b8:	0000002c 	andeq	r0, r0, ip, lsr #32
    14bc:	0000f225 	andeq	pc, r0, r5, lsr #4
    14c0:	00057300 	andeq	r7, r5, r0, lsl #6
    14c4:	0004d900 	andeq	sp, r4, r0, lsl #18
    14c8:	a8070000 	stmdage	r7, {}	; <UNPREDICTABLE>
    14cc:	10000004 	andne	r0, r0, r4
    14d0:	000004b6 			; <UNDEFINED> instruction: 0x000004b6
    14d4:	005d1c04 	subseq	r1, sp, r4, lsl #24
    14d8:	bc030000 	stclt	0, cr0, [r3], {-0}
    14dc:	26000005 	strcs	r0, [r0], -r5
    14e0:	1c040078 	stcne	0, cr0, [r4], {120}	; 0x78
    14e4:	0000005d 	andeq	r0, r0, sp, asr r0
    14e8:	00626c26 	rsbeq	r6, r2, r6, lsr #24
    14ec:	002c1c04 	eoreq	r1, ip, r4, lsl #24
    14f0:	75260000 	strvc	r0, [r6, #-0]!
    14f4:	1c040062 	stcne	0, cr0, [r4], {98}	; 0x62
    14f8:	0000002c 	andeq	r0, r0, ip, lsr #32
    14fc:	0000f225 	andeq	pc, r0, r5, lsr #4
    1500:	0005bc00 	andeq	fp, r5, r0, lsl #24
    1504:	0004b600 	andeq	fp, r4, r0, lsl #12
    1508:	006e1100 	rsbeq	r1, lr, r0, lsl #2
    150c:	002c1f04 	eoreq	r1, ip, r4, lsl #30
    1510:	07000000 	streq	r0, [r0, -r0]
    1514:	000004a8 	andeq	r0, r0, r8, lsr #9
    1518:	00047827 	andeq	r7, r4, r7, lsr #16
    151c:	2c2a0100 	stfcss	f0, [sl], #-0
    1520:	84000000 	strhi	r0, [r0], #-0
    1524:	e0000087 	and	r0, r0, r7, lsl #1
    1528:	01000004 	tsteq	r0, r4
    152c:	000cd49c 	muleq	ip, ip, r4
    1530:	00631600 	rsbeq	r1, r3, r0, lsl #12
    1534:	046e2a01 	strbteq	r2, [lr], #-2561	; 0xa01
    1538:	04c40000 	strbeq	r0, [r4], #0
    153c:	ad280000 	stcge	0, cr0, [r8, #-0]
    1540:	01000004 	tsteq	r0, r4
    1544:	00005d2b 	andeq	r5, r0, fp, lsr #26
    1548:	13580100 	cmpne	r8, #0, 2
    154c:	000004bf 			; <UNDEFINED> instruction: 0x000004bf
    1550:	005d2c01 	subseq	r2, sp, r1, lsl #24
    1554:	f2170000 	vhadd.s16	d0, d7, d0
    1558:	e4000000 	str	r0, [r0], #-0
    155c:	0500000c 	streq	r0, [r0, #-12]
    1560:	009ec403 	addseq	ip, lr, r3, lsl #8
    1564:	01e21900 	mvneq	r1, r0, lsl #18
    1568:	87900000 	ldrhi	r0, [r0, r0]
    156c:	00040000 	andeq	r0, r4, r0
    1570:	2b010000 	blcs	41578 <__bss_end__+0x37020>
    1574:	00000635 	andeq	r0, r0, r5, lsr r6
    1578:	0087901a 	addeq	r9, r7, sl, lsl r0
    157c:	00000400 	andeq	r0, r0, r0, lsl #8
    1580:	01f21d00 	mvnseq	r1, r0, lsl #26
    1584:	04f00000 	ldrbteq	r0, [r0], #0
    1588:	00000000 	andeq	r0, r0, r0
    158c:	00047419 	andeq	r7, r4, r9, lsl r4
    1590:	00879400 	addeq	r9, r7, r0, lsl #8
    1594:	00000800 	andeq	r0, r0, r0, lsl #16
    1598:	b32c0100 	teqlt	ip, #0, 2
    159c:	29000006 	stmdbcs	r0, {r1, r2}
    15a0:	0000048f 	andeq	r0, r0, pc, lsl #9
    15a4:	04842a10 	streq	r2, [r4], #2576	; 0xa10
    15a8:	04f00000 	ldrbteq	r0, [r0], #0
    15ac:	941a0000 	ldrls	r0, [sl], #-0
    15b0:	08000087 	stmdaeq	r0, {r0, r1, r2, r7}
    15b4:	2b000000 	blcs	15bc <__code_start__-0x6a44>
    15b8:	0000049a 	muleq	r0, sl, r4
    15bc:	9eec0305 	cdpls	3, 14, cr0, cr12, cr5, {0}
    15c0:	bd1c0000 	ldclt	0, cr0, [ip, #-0]
    15c4:	94000004 	strls	r0, [r0], #-4
    15c8:	04000087 	streq	r0, [r0], #-135	; 0x87
    15cc:	05000000 	streq	r0, [r0, #-0]
    15d0:	04e02916 	strbteq	r2, [r0], #2326	; 0x916
    15d4:	29040000 	stmdbcs	r4, {}	; <UNPREDICTABLE>
    15d8:	000004d6 	ldrdeq	r0, [r0], -r6
    15dc:	04cd2a00 	strbeq	r2, [sp], #2560	; 0xa00
    15e0:	04f00000 	ldrbteq	r0, [r0], #0
    15e4:	941a0000 	ldrls	r0, [sl], #-0
    15e8:	04000087 	streq	r0, [r0], #-135	; 0x87
    15ec:	2c000000 	stccs	0, cr0, [r0], {-0}
    15f0:	000004f7 	strdeq	r0, [r0], -r7
    15f4:	05002c05 	streq	r2, [r0, #-3077]	; 0xc05
    15f8:	2b1f0000 	blcs	7c1600 <__bss_end__+0x7b70a8>
    15fc:	000004ea 	andeq	r0, r0, sl, ror #9
    1600:	9ef80305 	cdpls	3, 15, cr0, cr8, cr5, {0}
    1604:	00000000 	andeq	r0, r0, r0
    1608:	11190000 	tstne	r9, r0
    160c:	98000005 	stmdals	r0, {r0, r2}
    1610:	10000088 	andne	r0, r0, r8, lsl #1
    1614:	01000001 	tsteq	r0, r1
    1618:	00080b52 	andeq	r0, r8, r2, asr fp
    161c:	05212a00 	streq	r2, [r1, #-2560]!	; 0xa00
    1620:	05030000 	streq	r0, [r3, #-0]
    1624:	981a0000 	ldmdals	sl, {}	; <UNPREDICTABLE>
    1628:	10000088 	andne	r0, r0, r8, lsl #1
    162c:	2b000001 	blcs	1638 <__code_start__-0x69c8>
    1630:	0000052c 	andeq	r0, r0, ip, lsr #10
    1634:	9f040305 	svcls	0x00040305
    1638:	3f190000 	svccc	0x00190000
    163c:	98000005 	stmdals	r0, {r0, r2}
    1640:	6c000088 	stcvs	0, cr0, [r0], {136}	; 0x88
    1644:	05000000 	streq	r0, [r0, #-0]
    1648:	0007c119 	andeq	ip, r7, r9, lsl r1
    164c:	054f2a00 	strbeq	r2, [pc, #-2560]	; c54 <__code_start__-0x73ac>
    1650:	05030000 	streq	r0, [r3, #-0]
    1654:	981a0000 	ldmdals	sl, {}	; <UNPREDICTABLE>
    1658:	6c000088 	stcvs	0, cr0, [r0], {136}	; 0x88
    165c:	1b000000 	blne	1664 <__code_start__-0x699c>
    1660:	0000055a 	andeq	r0, r0, sl, asr r5
    1664:	0005652b 	andeq	r6, r5, fp, lsr #10
    1668:	10030500 	andne	r0, r3, r0, lsl #10
    166c:	1900009f 	stmdbne	r0, {r0, r1, r2, r3, r4, r7}
    1670:	00000578 	andeq	r0, r0, r8, ror r5
    1674:	00008898 	muleq	r0, r8, r8
    1678:	00000004 	andeq	r0, r0, r4
    167c:	075c1005 	ldrbeq	r1, [ip, -r5]
    1680:	9b290000 	blls	a41688 <__bss_end__+0xa37130>
    1684:	04000005 	streq	r0, [r0], #-5
    1688:	00059129 	andeq	r9, r5, r9, lsr #2
    168c:	882a0000 	stmdahi	sl!, {}	; <UNPREDICTABLE>
    1690:	03000005 	movweq	r0, #5
    1694:	1a000005 	bne	16b0 <__code_start__-0x6950>
    1698:	00008898 	muleq	r0, r8, r8
    169c:	00000004 	andeq	r0, r0, r4
    16a0:	0005b22c 	andeq	fp, r5, ip, lsr #4
    16a4:	a52b0500 	strge	r0, [fp, #-1280]!	; 0x500
    16a8:	05000005 	streq	r0, [r0, #-5]
    16ac:	009f1c03 	addseq	r1, pc, r3, lsl #24
    16b0:	19000000 	stmdbne	r0, {}	; <UNPREDICTABLE>
    16b4:	000001c6 	andeq	r0, r0, r6, asr #3
    16b8:	0000889c 	muleq	r0, ip, r8
    16bc:	0000003c 	andeq	r0, r0, ip, lsr r0
    16c0:	07751105 	ldrbeq	r1, [r5, -r5, lsl #2]!
    16c4:	d62d0000 	strtle	r0, [sp], -r0
    16c8:	00000001 	andeq	r0, r0, r1
    16cc:	0088e420 	addeq	lr, r8, r0, lsr #8
    16d0:	000e8e00 	andeq	r8, lr, r0, lsl #28
    16d4:	89001e00 	stmdbhi	r0, {r9, sl, fp, ip}
    16d8:	0e780000 	cdpeq	0, 7, cr0, cr8, cr0, {0}
    16dc:	07b60000 	ldreq	r0, [r6, r0]!
    16e0:	011f0000 	tsteq	pc, r0
    16e4:	1f410153 	svcne	0x00410153
    16e8:	03055201 	movweq	r5, #20993	; 0x5201
    16ec:	00009f10 	andeq	r9, r0, r0, lsl pc
    16f0:	0551011f 	ldrbeq	r0, [r1, #-287]	; 0x11f
    16f4:	009dd003 	addseq	sp, sp, r3
    16f8:	50011f00 	andpl	r1, r1, r0, lsl #30
    16fc:	9a340305 	bls	d02318 <__bss_end__+0xcf7dc0>
    1700:	021f0000 	andseq	r0, pc, #0
    1704:	0305007d 	movweq	r0, #20605	; 0x507d
    1708:	00009ddc 	ldrdeq	r9, [r0], -ip
    170c:	89042000 	stmdbhi	r4, {sp}
    1710:	0e950000 	cdpeq	0, 9, cr0, cr5, cr0, {0}
    1714:	00000000 	andeq	r0, r0, r0
    1718:	00898020 	addeq	r8, r9, r0, lsr #32
    171c:	000e8e00 	andeq	r8, lr, r0, lsl #28
    1720:	89981e00 	ldmibhi	r8, {r9, sl, fp, ip}
    1724:	0e780000 	cdpeq	0, 7, cr0, cr8, cr0, {0}
    1728:	08000000 	stmdaeq	r0, {}	; <UNPREDICTABLE>
    172c:	011f0000 	tsteq	pc, r0
    1730:	21080253 	tstcs	r8, r3, asr r2
    1734:	0552011f 	ldrbeq	r0, [r2, #-287]	; 0x11f
    1738:	009f0403 	addseq	r0, pc, r3, lsl #8
    173c:	51011f00 	tstpl	r1, r0, lsl #30
    1740:	9dd00305 	ldclls	3, cr0, [r0, #20]
    1744:	011f0000 	tsteq	pc, r0
    1748:	f0030550 			; <UNDEFINED> instruction: 0xf0030550
    174c:	1f00009d 	svcne	0x0000009d
    1750:	02007d02 	andeq	r7, r0, #2, 26	; 0x80
    1754:	20000078 	andcs	r0, r0, r8, ror r0
    1758:	0000899c 	muleq	r0, ip, r9
    175c:	00000e95 	muleq	r0, r5, lr
    1760:	e2190000 	ands	r0, r9, #0
    1764:	b4000001 	strlt	r0, [r0], #-1
    1768:	04000089 	streq	r0, [r0], #-137	; 0x89
    176c:	01000000 	mrseq	r0, (UNDEF: 0)
    1770:	00083253 	andeq	r3, r8, r3, asr r2
    1774:	89b41a00 	ldmibhi	r4!, {r9, fp, ip}
    1778:	00040000 	andeq	r0, r4, r0
    177c:	f21d0000 	vhadd.s16	d0, d13, d0
    1780:	16000001 	strne	r0, [r0], -r1
    1784:	00000005 	andeq	r0, r0, r5
    1788:	05111900 	ldreq	r1, [r1, #-2304]	; 0x900
    178c:	89b80000 	ldmibhi	r8!, {}	; <UNPREDICTABLE>
    1790:	01100000 	tsteq	r0, r0
    1794:	53010000 	movwpl	r0, #4096	; 0x1000
    1798:	0000098a 	andeq	r0, r0, sl, lsl #19
    179c:	0005212a 	andeq	r2, r5, sl, lsr #2
    17a0:	00051600 	andeq	r1, r5, r0, lsl #12
    17a4:	89b81a00 	ldmibhi	r8!, {r9, fp, ip}
    17a8:	01100000 	tsteq	r0, r0
    17ac:	2c2b0000 	stccs	0, cr0, [fp], #-0
    17b0:	05000005 	streq	r0, [r0, #-5]
    17b4:	009f0403 	addseq	r0, pc, r3, lsl #8
    17b8:	053f1900 	ldreq	r1, [pc, #-2304]!	; ec0 <__code_start__-0x7140>
    17bc:	89b80000 	ldmibhi	r8!, {}	; <UNPREDICTABLE>
    17c0:	006c0000 	rsbeq	r0, ip, r0
    17c4:	19050000 	stmdbne	r5, {}	; <UNPREDICTABLE>
    17c8:	00000940 	andeq	r0, r0, r0, asr #18
    17cc:	00054f2a 	andeq	r4, r5, sl, lsr #30
    17d0:	00051600 	andeq	r1, r5, r0, lsl #12
    17d4:	89b81a00 	ldmibhi	r8!, {r9, fp, ip}
    17d8:	006c0000 	rsbeq	r0, ip, r0
    17dc:	5a1b0000 	bpl	6c17e4 <__bss_end__+0x6b728c>
    17e0:	2b000005 	blcs	17fc <__code_start__-0x6804>
    17e4:	00000565 	andeq	r0, r0, r5, ror #10
    17e8:	9f100305 	svcls	0x00100305
    17ec:	78190000 	ldmdavc	r9, {}	; <UNPREDICTABLE>
    17f0:	b8000005 	stmdalt	r0, {r0, r2}
    17f4:	04000089 	streq	r0, [r0], #-137	; 0x89
    17f8:	05000000 	streq	r0, [r0, #-0]
    17fc:	0008db10 	andeq	sp, r8, r0, lsl fp
    1800:	059b2900 	ldreq	r2, [fp, #2304]	; 0x900
    1804:	29040000 	stmdbcs	r4, {}	; <UNPREDICTABLE>
    1808:	00000591 	muleq	r0, r1, r5
    180c:	05882a00 	streq	r2, [r8, #2560]	; 0xa00
    1810:	05160000 	ldreq	r0, [r6, #-0]
    1814:	b81a0000 	ldmdalt	sl, {}	; <UNPREDICTABLE>
    1818:	04000089 	streq	r0, [r0], #-137	; 0x89
    181c:	2c000000 	stccs	0, cr0, [r0], {-0}
    1820:	000005b2 			; <UNDEFINED> instruction: 0x000005b2
    1824:	05a52b05 	streq	r2, [r5, #2821]!	; 0xb05
    1828:	03050000 	movweq	r0, #20480	; 0x5000
    182c:	00009f1c 	andeq	r9, r0, ip, lsl pc
    1830:	c6190000 	ldrgt	r0, [r9], -r0
    1834:	bc000001 	stclt	0, cr0, [r0], {1}
    1838:	3c000089 	stccc	0, cr0, [r0], {137}	; 0x89
    183c:	05000000 	streq	r0, [r0, #-0]
    1840:	0008f411 	andeq	pc, r8, r1, lsl r4	; <UNPREDICTABLE>
    1844:	01d62d00 	bicseq	r2, r6, r0, lsl #26
    1848:	20000000 	andcs	r0, r0, r0
    184c:	00008a04 	andeq	r8, r0, r4, lsl #20
    1850:	00000e8e 	andeq	r0, r0, lr, lsl #29
    1854:	008a201e 	addeq	r2, sl, lr, lsl r0
    1858:	000e7800 	andeq	r7, lr, r0, lsl #16
    185c:	00093500 	andeq	r3, r9, r0, lsl #10
    1860:	53011f00 	movwpl	r1, #7936	; 0x1f00
    1864:	011f4101 	tsteq	pc, r1, lsl #2
    1868:	10030552 	andne	r0, r3, r2, asr r5
    186c:	1f00009f 	svcne	0x0000009f
    1870:	03055101 	movweq	r5, #20737	; 0x5101
    1874:	00009dd0 	ldrdeq	r9, [r0], -r0
    1878:	0550011f 	ldrbeq	r0, [r0, #-287]	; 0x11f
    187c:	009a3403 	addseq	r3, sl, r3, lsl #8
    1880:	7d021f00 	stcvc	15, cr1, [r2, #-0]
    1884:	dc030500 	cfstr32le	mvfx0, [r3], {-0}
    1888:	0000009d 	muleq	r0, sp, r0
    188c:	008a2420 	addeq	r2, sl, r0, lsr #8
    1890:	000e9500 	andeq	r9, lr, r0, lsl #10
    1894:	20000000 	andcs	r0, r0, r0
    1898:	00008aa0 	andeq	r8, r0, r0, lsr #21
    189c:	00000e8e 	andeq	r0, r0, lr, lsl #29
    18a0:	008ab81e 	addeq	fp, sl, lr, lsl r8
    18a4:	000e7800 	andeq	r7, lr, r0, lsl #16
    18a8:	00097f00 	andeq	r7, r9, r0, lsl #30
    18ac:	53011f00 	movwpl	r1, #7936	; 0x1f00
    18b0:	1f210802 	svcne	0x00210802
    18b4:	03055201 	movweq	r5, #20993	; 0x5201
    18b8:	00009f04 	andeq	r9, r0, r4, lsl #30
    18bc:	0551011f 	ldrbeq	r0, [r1, #-287]	; 0x11f
    18c0:	009dd003 	addseq	sp, sp, r3
    18c4:	50011f00 	andpl	r1, r1, r0, lsl #30
    18c8:	9df00305 	ldclls	3, cr0, [r0, #20]!
    18cc:	021f0000 	andseq	r0, pc, #0
    18d0:	7502007d 	strvc	r0, [r2, #-125]	; 0x7d
    18d4:	bc200000 	stclt	0, cr0, [r0], #-0
    18d8:	9500008a 	strls	r0, [r0, #-138]	; 0x8a
    18dc:	0000000e 	andeq	r0, r0, lr
    18e0:	01e21900 	mvneq	r1, r0, lsl #18
    18e4:	8ac80000 	bhi	ff2018ec <__bss_end__+0xff1f7394>
    18e8:	00040000 	andeq	r0, r4, r0
    18ec:	53010000 	movwpl	r0, #4096	; 0x1000
    18f0:	000009ad 	andeq	r0, r0, sp, lsr #19
    18f4:	008ac81a 	addeq	ip, sl, sl, lsl r8
    18f8:	00000400 	andeq	r0, r0, r0, lsl #8
    18fc:	01f21b00 	mvnseq	r1, r0, lsl #22
    1900:	00000000 	andeq	r0, r0, r0
    1904:	00053f19 	andeq	r3, r5, r9, lsl pc
    1908:	008adc00 	addeq	sp, sl, r0, lsl #24
    190c:	00006c00 	andeq	r6, r0, r0, lsl #24
    1910:	8b570100 	blhi	15c1d18 <__bss_end__+0x15b77c0>
    1914:	2a00000a 	bcs	1944 <__code_start__-0x66bc>
    1918:	0000054f 	andeq	r0, r0, pc, asr #10
    191c:	00000529 	andeq	r0, r0, r9, lsr #10
    1920:	008adc1a 	addeq	sp, sl, sl, lsl ip
    1924:	00006c00 	andeq	r6, r0, r0, lsl #24
    1928:	055a1b00 	ldrbeq	r1, [sl, #-2816]	; 0xb00
    192c:	652b0000 	strvs	r0, [fp, #-0]!
    1930:	05000005 	streq	r0, [r0, #-5]
    1934:	009f1003 	addseq	r1, pc, r3
    1938:	05781900 	ldrbeq	r1, [r8, #-2304]!	; 0x900
    193c:	8adc0000 	bhi	ff701944 <__bss_end__+0xff6f73ec>
    1940:	00040000 	andeq	r0, r4, r0
    1944:	10050000 	andne	r0, r5, r0
    1948:	00000a26 	andeq	r0, r0, r6, lsr #20
    194c:	00059b29 	andeq	r9, r5, r9, lsr #22
    1950:	91290400 	teqls	r9, r0, lsl #8
    1954:	00000005 	andeq	r0, r0, r5
    1958:	0005882a 	andeq	r8, r5, sl, lsr #16
    195c:	00052900 	andeq	r2, r5, r0, lsl #18
    1960:	8adc1a00 	bhi	ff708168 <__bss_end__+0xff6fdc10>
    1964:	00040000 	andeq	r0, r4, r0
    1968:	b22c0000 	eorlt	r0, ip, #0
    196c:	05000005 	streq	r0, [r0, #-5]
    1970:	0005a52b 	andeq	sl, r5, fp, lsr #10
    1974:	1c030500 	cfstr32ne	mvfx0, [r3], {-0}
    1978:	0000009f 	muleq	r0, pc, r0	; <UNPREDICTABLE>
    197c:	01c61900 	biceq	r1, r6, r0, lsl #18
    1980:	8ae00000 	bhi	ff801988 <__bss_end__+0xff7f7430>
    1984:	003c0000 	eorseq	r0, ip, r0
    1988:	11050000 	mrsne	r0, (UNDEF: 5)
    198c:	00000a3f 	andeq	r0, r0, pc, lsr sl
    1990:	0001d62d 	andeq	sp, r1, sp, lsr #12
    1994:	28200000 	stmdacs	r0!, {}	; <UNPREDICTABLE>
    1998:	8e00008b 	cdphi	0, 0, cr0, cr0, cr11, {4}
    199c:	1e00000e 	cdpne	0, 0, cr0, cr0, cr14, {0}
    19a0:	00008b44 	andeq	r8, r0, r4, asr #22
    19a4:	00000e78 	andeq	r0, r0, r8, ror lr
    19a8:	00000a80 	andeq	r0, r0, r0, lsl #21
    19ac:	0153011f 	cmpeq	r3, pc, lsl r1
    19b0:	52011f41 	andpl	r1, r1, #260	; 0x104
    19b4:	9f100305 	svcls	0x00100305
    19b8:	011f0000 	tsteq	pc, r0
    19bc:	d0030551 	andle	r0, r3, r1, asr r5
    19c0:	1f00009d 	svcne	0x0000009d
    19c4:	03055001 	movweq	r5, #20481	; 0x5001
    19c8:	00009a34 	andeq	r9, r0, r4, lsr sl
    19cc:	007d021f 	rsbseq	r0, sp, pc, lsl r2
    19d0:	9ddc0305 	ldclls	3, cr0, [ip, #20]
    19d4:	20000000 	andcs	r0, r0, r0
    19d8:	00008b48 	andeq	r8, r0, r8, asr #22
    19dc:	00000e95 	muleq	r0, r5, lr
    19e0:	e2190000 	ands	r0, r9, #0
    19e4:	48000001 	stmdami	r0, {r0}
    19e8:	0400008b 	streq	r0, [r0], #-139	; 0x8b
    19ec:	01000000 	mrseq	r0, (UNDEF: 0)
    19f0:	000ab257 	andeq	fp, sl, r7, asr r2
    19f4:	8b481a00 	blhi	12081fc <__bss_end__+0x11fdca4>
    19f8:	00040000 	andeq	r0, r4, r0
    19fc:	f21d0000 	vhadd.s16	d0, d13, d0
    1a00:	3c000001 	stccc	0, cr0, [r0], {1}
    1a04:	00000005 	andeq	r0, r0, r5
    1a08:	053f1900 	ldreq	r1, [pc, #-2304]!	; 1110 <__code_start__-0x6ef0>
    1a0c:	8b4c0000 	blhi	1301a14 <__bss_end__+0x12f74bc>
    1a10:	006c0000 	rsbeq	r0, ip, r0
    1a14:	57010000 	strpl	r0, [r1, -r0]
    1a18:	00000b90 	muleq	r0, r0, fp
    1a1c:	00054f2a 	andeq	r4, r5, sl, lsr #30
    1a20:	00053c00 	andeq	r3, r5, r0, lsl #24
    1a24:	8b4c1a00 	blhi	130822c <__bss_end__+0x12fdcd4>
    1a28:	006c0000 	rsbeq	r0, ip, r0
    1a2c:	5a1b0000 	bpl	6c1a34 <__bss_end__+0x6b74dc>
    1a30:	2b000005 	blcs	1a4c <__code_start__-0x65b4>
    1a34:	00000565 	andeq	r0, r0, r5, ror #10
    1a38:	9f100305 	svcls	0x00100305
    1a3c:	78190000 	ldmdavc	r9, {}	; <UNPREDICTABLE>
    1a40:	4c000005 	stcmi	0, cr0, [r0], {5}
    1a44:	0400008b 	streq	r0, [r0], #-139	; 0x8b
    1a48:	05000000 	streq	r0, [r0, #-0]
    1a4c:	000b2b10 	andeq	r2, fp, r0, lsl fp
    1a50:	059b2900 	ldreq	r2, [fp, #2304]	; 0x900
    1a54:	29040000 	stmdbcs	r4, {}	; <UNPREDICTABLE>
    1a58:	00000591 	muleq	r0, r1, r5
    1a5c:	05882a00 	streq	r2, [r8, #2560]	; 0xa00
    1a60:	053c0000 	ldreq	r0, [ip, #-0]!
    1a64:	4c1a0000 	ldcmi	0, cr0, [sl], {-0}
    1a68:	0400008b 	streq	r0, [r0], #-139	; 0x8b
    1a6c:	2c000000 	stccs	0, cr0, [r0], {-0}
    1a70:	000005b2 			; <UNDEFINED> instruction: 0x000005b2
    1a74:	05a52b05 	streq	r2, [r5, #2821]!	; 0xb05
    1a78:	03050000 	movweq	r0, #20480	; 0x5000
    1a7c:	00009f1c 	andeq	r9, r0, ip, lsl pc
    1a80:	c6190000 	ldrgt	r0, [r9], -r0
    1a84:	50000001 	andpl	r0, r0, r1
    1a88:	3c00008b 	stccc	0, cr0, [r0], {139}	; 0x8b
    1a8c:	05000000 	streq	r0, [r0, #-0]
    1a90:	000b4411 	andeq	r4, fp, r1, lsl r4
    1a94:	01d62d00 	bicseq	r2, r6, r0, lsl #26
    1a98:	20000000 	andcs	r0, r0, r0
    1a9c:	00008b98 	muleq	r0, r8, fp
    1aa0:	00000e8e 	andeq	r0, r0, lr, lsl #29
    1aa4:	008bb41e 	addeq	fp, fp, lr, lsl r4
    1aa8:	000e7800 	andeq	r7, lr, r0, lsl #16
    1aac:	000b8500 	andeq	r8, fp, r0, lsl #10
    1ab0:	53011f00 	movwpl	r1, #7936	; 0x1f00
    1ab4:	011f4101 	tsteq	pc, r1, lsl #2
    1ab8:	10030552 	andne	r0, r3, r2, asr r5
    1abc:	1f00009f 	svcne	0x0000009f
    1ac0:	03055101 	movweq	r5, #20737	; 0x5101
    1ac4:	00009dd0 	ldrdeq	r9, [r0], -r0
    1ac8:	0550011f 	ldrbeq	r0, [r0, #-287]	; 0x11f
    1acc:	009a3403 	addseq	r3, sl, r3, lsl #8
    1ad0:	7d021f00 	stcvc	15, cr1, [r2, #-0]
    1ad4:	dc030500 	cfstr32le	mvfx0, [r3], {-0}
    1ad8:	0000009d 	muleq	r0, sp, r0
    1adc:	008bb820 	addeq	fp, fp, r0, lsr #16
    1ae0:	000e9500 	andeq	r9, lr, r0, lsl #10
    1ae4:	21000000 	mrscs	r0, (UNDEF: 0)
    1ae8:	000087cc 	andeq	r8, r0, ip, asr #15
    1aec:	00000ba0 	andeq	r0, r0, r0, lsr #23
    1af0:	0250011f 	subseq	r0, r0, #-1073741817	; 0xc0000007
    1af4:	1e000074 	mcrne	0, 0, r0, cr0, cr4, {3}
    1af8:	000087f4 	strdeq	r8, [r0], -r4
    1afc:	00000e78 	andeq	r0, r0, r8, ror lr
    1b00:	00000bc6 	andeq	r0, r0, r6, asr #23
    1b04:	0253011f 	subseq	r0, r3, #-1073741817	; 0xc0000007
    1b08:	011f3308 	tsteq	pc, r8, lsl #6
    1b0c:	00790252 	rsbseq	r0, r9, r2, asr r2
    1b10:	0251011f 	subseq	r0, r1, #-1073741817	; 0xc0000007
    1b14:	011f007a 	tsteq	pc, sl, ror r0	; <UNPREDICTABLE>
    1b18:	007b0250 	rsbseq	r0, fp, r0, asr r2
    1b1c:	88001e00 	stmdahi	r0, {r9, sl, fp, ip}
    1b20:	0ead0000 	cdpeq	0, 10, cr0, cr13, cr0, {0}
    1b24:	0bdf0000 	bleq	ff7c1b2c <__bss_end__+0xff7b75d4>
    1b28:	011f0000 	tsteq	pc, r0
    1b2c:	00750251 	rsbseq	r0, r5, r1, asr r2
    1b30:	0150011f 	cmpeq	r0, pc, lsl r1
    1b34:	281e0030 	ldmdacs	lr, {r4, r5}
    1b38:	c3000088 	movwgt	r0, #136	; 0x88
    1b3c:	f900000e 			; <UNDEFINED> instruction: 0xf900000e
    1b40:	1f00000b 	svcne	0x0000000b
    1b44:	74025201 	strvc	r5, [r2], #-513	; 0x201
    1b48:	50011f00 	andpl	r1, r1, r0, lsl #30
    1b4c:	00007702 	andeq	r7, r0, r2, lsl #14
    1b50:	00884021 	addeq	r4, r8, r1, lsr #32
    1b54:	000c0900 	andeq	r0, ip, r0, lsl #18
    1b58:	50011f00 	andpl	r1, r1, r0, lsl #30
    1b5c:	00007402 	andeq	r7, r0, r2, lsl #8
    1b60:	00884c21 	addeq	r4, r8, r1, lsr #24
    1b64:	000c1900 	andeq	r1, ip, r0, lsl #18
    1b68:	50011f00 	andpl	r1, r1, r0, lsl #30
    1b6c:	00007402 	andeq	r7, r0, r2, lsl #8
    1b70:	0088641e 	addeq	r6, r8, lr, lsl r4
    1b74:	000e7800 	andeq	r7, lr, r0, lsl #16
    1b78:	000c3000 	andeq	r3, ip, r0
    1b7c:	50011f00 	andpl	r1, r1, r0, lsl #30
    1b80:	9d540305 	ldclls	3, cr0, [r4, #-20]	; 0xffffffec
    1b84:	1e000000 	cdpne	0, 0, cr0, cr0, cr0, {0}
    1b88:	00008898 	muleq	r0, r8, r8
    1b8c:	00000e78 	andeq	r0, r0, r8, ror lr
    1b90:	00000c47 	andeq	r0, r0, r7, asr #24
    1b94:	0550011f 	ldrbeq	r0, [r0, #-287]	; 0x11f
    1b98:	009d9c03 	addseq	r9, sp, r3, lsl #24
    1b9c:	b41e0000 	ldrlt	r0, [lr], #-0
    1ba0:	78000089 	stmdavc	r0, {r0, r3, r7}
    1ba4:	6400000e 	strvs	r0, [r0], #-14
    1ba8:	1f00000c 	svcne	0x0000000c
    1bac:	78025201 	stmdavc	r2, {r0, r9, ip, lr}
    1bb0:	50011f00 	andpl	r1, r1, r0, lsl #30
    1bb4:	9e140305 	cdpls	3, 1, cr0, cr4, cr5, {0}
    1bb8:	1e000000 	cdpne	0, 0, cr0, cr0, cr0, {0}
    1bbc:	00008ad4 	ldrdeq	r8, [r0], -r4
    1bc0:	00000e78 	andeq	r0, r0, r8, ror lr
    1bc4:	00000c7b 	andeq	r0, r0, fp, ror ip
    1bc8:	0550011f 	ldrbeq	r0, [r0, #-287]	; 0x11f
    1bcc:	009e3003 	addseq	r3, lr, r3
    1bd0:	dc1e0000 	ldcle	0, cr0, [lr], {-0}
    1bd4:	9c00008a 	stcls	0, cr0, [r0], {138}	; 0x8a
    1bd8:	8e00000e 	cdphi	0, 0, cr0, cr0, cr14, {0}
    1bdc:	1f00000c 	svcne	0x0000000c
    1be0:	30015001 	andcc	r5, r1, r1
    1be4:	8bc42000 	blhi	ff109bec <__bss_end__+0xff0ff694>
    1be8:	0e8e0000 	cdpeq	0, 8, cr0, cr14, cr0, {0}
    1bec:	e01e0000 	ands	r0, lr, r0
    1bf0:	7800008b 	stmdavc	r0, {r0, r1, r3, r7}
    1bf4:	ca00000e 	bgt	1c34 <__code_start__-0x63cc>
    1bf8:	1f00000c 	svcne	0x0000000c
    1bfc:	08025301 	stmdaeq	r2, {r0, r8, r9, ip, lr}
    1c00:	52011f57 	andpl	r1, r1, #348	; 0x15c
    1c04:	1f007902 	svcne	0x00007902
    1c08:	7a025101 	bvc	96014 <__bss_end__+0x8babc>
    1c0c:	50011f00 	andpl	r1, r1, r0, lsl #30
    1c10:	9a340305 	bls	d0282c <__bss_end__+0xcf82d4>
    1c14:	021f0000 	andseq	r0, pc, #0
    1c18:	0305007d 	movweq	r0, #20605	; 0x507d
    1c1c:	00009e48 	andeq	r9, r0, r8, asr #28
    1c20:	8be42000 	blhi	ff909c28 <__bss_end__+0xff8ff6d0>
    1c24:	0e950000 	cdpeq	0, 9, cr0, cr5, cr0, {0}
    1c28:	23000000 	movwcs	r0, #0
    1c2c:	0000007f 	andeq	r0, r0, pc, ror r0
    1c30:	00000ce4 	andeq	r0, r0, r4, ror #25
    1c34:	00007624 	andeq	r7, r0, r4, lsr #12
    1c38:	07001100 	streq	r1, [r0, -r0, lsl #2]
    1c3c:	00000cd4 	ldrdeq	r0, [r0], -r4
    1c40:	00049c27 	andeq	r9, r4, r7, lsr #24
    1c44:	2c630100 	stfcse	f0, [r3], #-0
    1c48:	64000000 	strvs	r0, [r0], #-0
    1c4c:	8400008c 	strhi	r0, [r0], #-140	; 0x8c
    1c50:	01000000 	mrseq	r0, (UNDEF: 0)
    1c54:	000dad9c 	muleq	sp, ip, sp
    1c58:	00631600 	rsbeq	r1, r3, r0, lsl #12
    1c5c:	046e6301 	strbteq	r6, [lr], #-769	; 0x301
    1c60:	054f0000 	strbeq	r0, [pc, #-0]	; 1c68 <__code_start__-0x6398>
    1c64:	69180000 	ldmdbvs	r8, {}	; <UNPREDICTABLE>
    1c68:	2c650100 	stfcse	f0, [r5], #-0
    1c6c:	6d000000 	stcvs	0, cr0, [r0, #-0]
    1c70:	17000005 	strne	r0, [r0, -r5]
    1c74:	000000f2 	strdeq	r0, [r0], -r2
    1c78:	00000dbd 			; <UNDEFINED> instruction: 0x00000dbd
    1c7c:	9eb00305 	cdpls	3, 11, cr0, cr0, cr5, {0}
    1c80:	80210000 	eorhi	r0, r1, r0
    1c84:	3b00008c 	blcc	1ebc <__code_start__-0x6144>
    1c88:	1f00000d 	svcne	0x0000000d
    1c8c:	74025001 	strvc	r5, [r2], #-1
    1c90:	8c210000 	stchi	0, cr0, [r1], #-0
    1c94:	4b00008c 	blmi	1ecc <__code_start__-0x6134>
    1c98:	1f00000d 	svcne	0x0000000d
    1c9c:	74025001 	strvc	r5, [r2], #-1
    1ca0:	98210000 	stmdals	r1!, {}	; <UNPREDICTABLE>
    1ca4:	5b00008c 	blpl	1edc <__code_start__-0x6124>
    1ca8:	1f00000d 	svcne	0x0000000d
    1cac:	74025001 	strvc	r5, [r2], #-1
    1cb0:	a4210000 	strtge	r0, [r1], #-0
    1cb4:	6b00008c 	blvs	1eec <__code_start__-0x6114>
    1cb8:	1f00000d 	svcne	0x0000000d
    1cbc:	74025001 	strvc	r5, [r2], #-1
    1cc0:	b0200000 	eorlt	r0, r0, r0
    1cc4:	8e00008c 	cdphi	0, 0, cr0, cr0, cr12, {4}
    1cc8:	1e00000e 	cdpne	0, 0, cr0, cr0, cr14, {0}
    1ccc:	00008cc4 	andeq	r8, r0, r4, asr #25
    1cd0:	00000e78 	andeq	r0, r0, r8, ror lr
    1cd4:	00000da3 	andeq	r0, r0, r3, lsr #27
    1cd8:	0253011f 	subseq	r0, r3, #-1073741817	; 0xc0000007
    1cdc:	011f6c08 	tsteq	pc, r8, lsl #24
    1ce0:	b0030552 	andlt	r0, r3, r2, asr r5
    1ce4:	1f00009e 	svcne	0x0000009e
    1ce8:	03055101 	movweq	r5, #20737	; 0x5101
    1cec:	00009bf4 	strdeq	r9, [r0], -r4
    1cf0:	0550011f 	ldrbeq	r0, [r0, #-287]	; 0x11f
    1cf4:	009e7403 	addseq	r7, lr, r3, lsl #8
    1cf8:	c8200000 	stmdagt	r0!, {}	; <UNPREDICTABLE>
    1cfc:	9500008c 	strls	r0, [r0, #-140]	; 0x8c
    1d00:	0000000e 	andeq	r0, r0, lr
    1d04:	00007f23 	andeq	r7, r0, r3, lsr #30
    1d08:	000dbd00 	andeq	fp, sp, r0, lsl #26
    1d0c:	00762400 	rsbseq	r2, r6, r0, lsl #8
    1d10:	00100000 	andseq	r0, r0, r0
    1d14:	000dad07 	andeq	sl, sp, r7, lsl #26
    1d18:	041f1400 	ldreq	r1, [pc], #-1024	; 1d20 <__code_start__-0x62e0>
    1d1c:	7b010000 	blvc	41d24 <__bss_end__+0x377cc>
    1d20:	00008ce8 	andeq	r8, r0, r8, ror #25
    1d24:	00000028 	andeq	r0, r0, r8, lsr #32
    1d28:	0de39c01 	stcleq	12, cr9, [r3, #4]!
    1d2c:	632e0000 	teqvs	lr, #0
    1d30:	6e7b0100 	rpwvse	f0, f3, f0
    1d34:	01000004 	tsteq	r0, r4
    1d38:	012f0050 	qsubeq	r0, r0, pc	; <UNPREDICTABLE>
    1d3c:	01000002 	tsteq	r0, r2
    1d40:	00002586 	andeq	r2, r0, r6, lsl #11
    1d44:	008d1000 	addeq	r1, sp, r0
    1d48:	00004c00 	andeq	r4, r0, r0, lsl #24
    1d4c:	4b9c0100 	blmi	fe702154 <__bss_end__+0xfe6f7bfc>
    1d50:	1600000e 	strne	r0, [r0], -lr
    1d54:	86010063 	strhi	r0, [r1], -r3, rrx
    1d58:	0000046e 	andeq	r0, r0, lr, ror #8
    1d5c:	0000058c 	andeq	r0, r0, ip, lsl #11
    1d60:	008d1c20 	addeq	r1, sp, r0, lsr #24
    1d64:	000eef00 	andeq	lr, lr, r0, lsl #30
    1d68:	8d241e00 	stchi	14, cr1, [r4, #-0]
    1d6c:	0dc20000 	stcleq	0, cr0, [r2]
    1d70:	0e260000 	cdpeq	0, 2, cr0, cr6, cr0, {0}
    1d74:	011f0000 	tsteq	pc, r0
    1d78:	00740250 	rsbseq	r0, r4, r0, asr r2
    1d7c:	8d2c1e00 	stchi	14, cr1, [ip, #-0]
    1d80:	0ce90000 	stcleq	0, cr0, [r9]
    1d84:	0e3a0000 	cdpeq	0, 3, cr0, cr10, cr0, {0}
    1d88:	011f0000 	tsteq	pc, r0
    1d8c:	00740250 	rsbseq	r0, r4, r0, asr r2
    1d90:	8d3c2200 	lfmhi	f2, 4, [ip, #-0]
    1d94:	05c10000 	strbeq	r0, [r1]
    1d98:	011f0000 	tsteq	pc, r0
    1d9c:	00740250 	rsbseq	r0, r4, r0, asr r2
    1da0:	15280000 	strne	r0, [r8, #-0]!
    1da4:	01000001 	tsteq	r0, r1
    1da8:	00046e06 	andeq	r6, r4, r6, lsl #28
    1dac:	50030500 	andpl	r0, r3, r0, lsl #10
    1db0:	280000a1 	stmdacs	r0, {r0, r5, r7}
    1db4:	0000045a 	andeq	r0, r0, sl, asr r4
    1db8:	007d0801 	rsbseq	r0, sp, r1, lsl #16
    1dbc:	03050000 	movweq	r0, #20480	; 0x5000
    1dc0:	0000a154 	andeq	sl, r0, r4, asr r1
    1dc4:	0000da30 	andeq	sp, r0, r0, lsr sl
    1dc8:	25c20200 	strbcs	r0, [r2, #512]	; 0x200
    1dcc:	31000000 	mrscc	r0, (UNDEF: 0)
    1dd0:	00000563 	andeq	r0, r0, r3, ror #10
    1dd4:	00252908 	eoreq	r2, r5, r8, lsl #18
    1dd8:	0e8e0000 	cdpeq	0, 8, cr0, cr14, cr0, {0}
    1ddc:	86090000 	strhi	r0, [r9], -r0
    1de0:	32000000 	andcc	r0, r0, #0
    1de4:	02103300 	andseq	r3, r0, #0, 6
    1de8:	1e080000 	cdpne	0, 0, cr0, cr8, cr0, {0}
    1dec:	0000af33 	andeq	sl, r0, r3, lsr pc
    1df0:	34650800 	strbtcc	r0, [r5], #-2048	; 0x800
    1df4:	00000339 	andeq	r0, r0, r9, lsr r3
    1df8:	0eade302 	cdpeq	3, 10, cr14, cr13, cr2, {0}
    1dfc:	5d090000 	stcpl	0, cr0, [r9, #-0]
    1e00:	00000000 	andeq	r0, r0, r0
    1e04:	0002f934 	andeq	pc, r2, r4, lsr r9	; <UNPREDICTABLE>
    1e08:	c3d90200 	bicsgt	r0, r9, #0, 4
    1e0c:	0900000e 	stmdbeq	r0, {r1, r2, r3}
    1e10:	0000005d 	andeq	r0, r0, sp, asr r0
    1e14:	00009109 	andeq	r9, r0, r9, lsl #2
    1e18:	3d340000 	ldccc	0, cr0, [r4, #-0]
    1e1c:	02000004 	andeq	r0, r0, #4
    1e20:	000edef3 	strdeq	sp, [lr], -r3
    1e24:	005d0900 	subseq	r0, sp, r0, lsl #18
    1e28:	de090000 	cdple	0, 0, cr0, cr9, cr0, {0}
    1e2c:	0900000e 	stmdbeq	r0, {r1, r2, r3}
    1e30:	0000007d 	andeq	r0, r0, sp, ror r0
    1e34:	e4040600 	str	r0, [r4], #-1536	; 0x600
    1e38:	0800000e 	stmdaeq	r0, {r1, r2, r3}
    1e3c:	00000eef 	andeq	r0, r0, pc, ror #29
    1e40:	00007d09 	andeq	r7, r0, r9, lsl #26
    1e44:	82330000 	eorshi	r0, r3, #0
    1e48:	02000003 	andeq	r0, r0, #3
    1e4c:	01910090 			; <UNDEFINED> instruction: 0x01910090
    1e50:	00040000 	andeq	r0, r4, r0
    1e54:	000006e8 	andeq	r0, r0, r8, ror #13
    1e58:	05090104 	streq	r0, [r9, #-260]	; 0x104
    1e5c:	fb010000 	blx	41e66 <__bss_end__+0x3790e>
    1e60:	74000004 	strvc	r0, [r0], #-4
    1e64:	5c000005 	stcpl	0, cr0, [r0], {5}
    1e68:	5800008d 	stmdapl	r0, {r0, r2, r3, r7}
    1e6c:	97000000 	strls	r0, [r0, -r0]
    1e70:	02000005 	andeq	r0, r0, #5
    1e74:	000004ec 	andeq	r0, r0, ip, ror #9
    1e78:	00302802 	eorseq	r2, r0, r2, lsl #16
    1e7c:	6a030000 	bvs	c1e84 <__bss_end__+0xb792c>
    1e80:	04000005 	streq	r0, [r0], #-5
    1e84:	00470003 	subeq	r0, r7, r3
    1e88:	ba040000 	blt	101e90 <__bss_end__+0xf7938>
    1e8c:	47000005 	strmi	r0, [r0, -r5]
    1e90:	00000000 	andeq	r0, r0, r0
    1e94:	02040500 	andeq	r0, r4, #0, 10
    1e98:	0000056c 	andeq	r0, r0, ip, ror #10
    1e9c:	00256202 	eoreq	r6, r5, r2, lsl #4
    1ea0:	04060000 	streq	r0, [r6], #-0
    1ea4:	746e6905 	strbtvc	r6, [lr], #-2309	; 0x905
    1ea8:	07040700 	streq	r0, [r4, -r0, lsl #14]
    1eac:	00000194 	muleq	r0, r4, r1
    1eb0:	a3060107 	movwge	r0, #24839	; 0x6107
    1eb4:	07000000 	streq	r0, [r0, -r0]
    1eb8:	00e80502 	rsceq	r0, r8, r2, lsl #10
    1ebc:	04070000 	streq	r0, [r7], #-0
    1ec0:	0001b905 	andeq	fp, r1, r5, lsl #18
    1ec4:	05080700 	streq	r0, [r8, #-1792]	; 0x700
    1ec8:	000001b4 			; <UNDEFINED> instruction: 0x000001b4
    1ecc:	a1080107 	tstge	r8, r7, lsl #2
    1ed0:	07000000 	streq	r0, [r0, -r0]
    1ed4:	00c70702 	sbceq	r0, r7, r2, lsl #14
    1ed8:	04070000 	streq	r0, [r7], #-0
    1edc:	00018f07 	andeq	r8, r1, r7, lsl #30
    1ee0:	07080700 	streq	r0, [r8, -r0, lsl #14]
    1ee4:	0000018a 	andeq	r0, r0, sl, lsl #3
    1ee8:	ab070407 	blge	1c2f0c <__bss_end__+0x1b89b4>
    1eec:	08000001 	stmdaeq	r0, {r0}
    1ef0:	0000a704 	andeq	sl, r0, r4, lsl #14
    1ef4:	08010700 	stmdaeq	r1, {r8, r9, sl}
    1ef8:	000000aa 	andeq	r0, r0, sl, lsr #1
    1efc:	00b40408 	adcseq	r0, r4, r8, lsl #8
    1f00:	a7090000 	strge	r0, [r9, -r0]
    1f04:	0a000000 	beq	1f0c <__code_start__-0x60f4>
    1f08:	00000563 	andeq	r0, r0, r3, ror #10
    1f0c:	00540601 	subseq	r0, r4, r1, lsl #12
    1f10:	8d5c0000 	ldclhi	0, cr0, [ip, #-0]
    1f14:	00580000 	subseq	r0, r8, r0
    1f18:	9c010000 	stcls	0, cr0, [r1], {-0}
    1f1c:	00000143 	andeq	r0, r0, r3, asr #2
    1f20:	746d660b 	strbtvc	r6, [sp], #-1547	; 0x60b
    1f24:	ae060100 	adfges	f0, f6, f0
    1f28:	02000000 	andeq	r0, r0, #0
    1f2c:	0d0c7091 	stceq	0, cr7, [ip, #-580]	; 0xfffffdbc
    1f30:	00667562 	rsbeq	r7, r6, r2, ror #10
    1f34:	01430801 	cmpeq	r3, r1, lsl #16
    1f38:	03050000 	movweq	r0, #20480	; 0x5000
    1f3c:	0000a158 	andeq	sl, r0, r8, asr r1
    1f40:	000a760e 	andeq	r7, sl, lr, lsl #12
    1f44:	49090100 	stmdbmi	r9, {r8}
    1f48:	02000000 	andeq	r0, r0, #0
    1f4c:	730f5c91 	movwvc	r5, #64657	; 0xfc91
    1f50:	0c01007a 	stceq	0, cr0, [r1], {122}	; 0x7a
    1f54:	00000054 	andeq	r0, r0, r4, asr r0
    1f58:	000005aa 	andeq	r0, r0, sl, lsr #11
    1f5c:	008d8410 	addeq	r8, sp, r0, lsl r4
    1f60:	00017400 	andeq	r7, r1, r0, lsl #8
    1f64:	00013600 	andeq	r3, r1, r0, lsl #12
    1f68:	53011100 	movwpl	r1, #4352	; 0x1100
    1f6c:	114c9102 	cmpne	ip, r2, lsl #2
    1f70:	91035201 	tstls	r3, r1, lsl #4
    1f74:	01110648 	tsteq	r1, r8, asr #12
    1f78:	000a0351 	andeq	r0, sl, r1, asr r3
    1f7c:	50011104 	andpl	r1, r1, r4, lsl #2
    1f80:	00007402 	andeq	r7, r0, r2, lsl #8
    1f84:	008d9812 	addeq	r9, sp, r2, lsl r8
    1f88:	50011100 	andpl	r1, r1, r0, lsl #2
    1f8c:	00007402 	andeq	r7, r0, r2, lsl #8
    1f90:	00a71300 	adceq	r1, r7, r0, lsl #6
    1f94:	01540000 	cmpeq	r4, r0
    1f98:	9a140000 	bls	501fa0 <__bss_end__+0x4f7a48>
    1f9c:	ff000000 			; <UNDEFINED> instruction: 0xff000000
    1fa0:	54150003 	ldrpl	r0, [r5], #-3
    1fa4:	63000000 	movwvs	r0, #0
    1fa8:	16000001 	strne	r0, [r0], -r1
    1fac:	000000ae 	andeq	r0, r0, lr, lsr #1
    1fb0:	06171700 	ldreq	r1, [r7], -r0, lsl #14
    1fb4:	22040000 	andcs	r0, r4, #0
    1fb8:	0000016e 	andeq	r0, r0, lr, ror #2
    1fbc:	01540408 	cmpeq	r4, r8, lsl #8
    1fc0:	60180000 	andsvs	r0, r8, r0
    1fc4:	05000005 	streq	r0, [r0, #-5]
    1fc8:	00005402 	andeq	r5, r0, r2, lsl #8
    1fcc:	00a11600 	adceq	r1, r1, r0, lsl #12
    1fd0:	54160000 	ldrpl	r0, [r6], #-0
    1fd4:	16000000 	strne	r0, [r0], -r0
    1fd8:	000000ae 	andeq	r0, r0, lr, lsr #1
    1fdc:	00004916 	andeq	r4, r0, r6, lsl r9
    1fe0:	13000000 	movwne	r0, #0
    1fe4:	04000001 	streq	r0, [r0], #-1
    1fe8:	00081900 	andeq	r1, r8, r0, lsl #18
    1fec:	09010400 	stmdbeq	r1, {sl}
    1ff0:	01000005 	tsteq	r0, r5
    1ff4:	000005e6 	andeq	r0, r0, r6, ror #11
    1ff8:	00000574 	andeq	r0, r0, r4, ror r5
    1ffc:	00008db4 			; <UNDEFINED> instruction: 0x00008db4
    2000:	0000003c 	andeq	r0, r0, ip, lsr r0
    2004:	000006a7 	andeq	r0, r0, r7, lsr #13
    2008:	69050402 	stmdbvs	r5, {r1, sl}
    200c:	0300746e 	movweq	r7, #1134	; 0x46e
    2010:	01940704 	orrseq	r0, r4, r4, lsl #14
    2014:	01030000 	mrseq	r0, (UNDEF: 3)
    2018:	0000a306 	andeq	sl, r0, r6, lsl #6
    201c:	05020300 	streq	r0, [r2, #-768]	; 0x300
    2020:	000000e8 	andeq	r0, r0, r8, ror #1
    2024:	b9050403 	stmdblt	r5, {r0, r1, sl}
    2028:	03000001 	movweq	r0, #1
    202c:	01b40508 			; <UNDEFINED> instruction: 0x01b40508
    2030:	01030000 	mrseq	r0, (UNDEF: 3)
    2034:	0000a108 	andeq	sl, r0, r8, lsl #2
    2038:	07020300 	streq	r0, [r2, -r0, lsl #6]
    203c:	000000c7 	andeq	r0, r0, r7, asr #1
    2040:	8f070403 	svchi	0x00070403
    2044:	03000001 	movweq	r0, #1
    2048:	018a0708 	orreq	r0, sl, r8, lsl #14
    204c:	04030000 	streq	r0, [r3], #-0
    2050:	0001ab07 	andeq	sl, r1, r7, lsl #22
    2054:	08010300 	stmdaeq	r1, {r8, r9}
    2058:	000000aa 	andeq	r0, r0, sl, lsr #1
    205c:	0005c904 	andeq	ip, r5, r4, lsl #18
    2060:	25030100 	strcs	r0, [r3, #-256]	; 0x100
    2064:	b4000000 	strlt	r0, [r0], #-0
    2068:	1400008d 	strne	r0, [r0], #-141	; 0x8d
    206c:	01000000 	mrseq	r0, (UNDEF: 0)
    2070:	0000b09c 	muleq	r0, ip, r0
    2074:	00630500 	rsbeq	r0, r3, r0, lsl #10
    2078:	00250301 	eoreq	r0, r5, r1, lsl #6
    207c:	05d30000 	ldrbeq	r0, [r3]
    2080:	c0060000 	andgt	r0, r6, r0
    2084:	0900008d 	stmdbeq	r0, {r0, r2, r3, r7}
    2088:	07000001 	streq	r0, [r0, -r1]
    208c:	74025001 	strvc	r5, [r2], #-1
    2090:	08000000 	stmdaeq	r0, {}	; <UNPREDICTABLE>
    2094:	00000210 	andeq	r0, r0, r0, lsl r2
    2098:	8dc80801 	stclhi	8, cr0, [r8, #4]
    209c:	00180000 	andseq	r0, r8, r0
    20a0:	9c010000 	stcls	0, cr0, [r1], {-0}
    20a4:	0005f509 	andeq	pc, r5, r9, lsl #10
    20a8:	e00b0100 	and	r0, fp, r0, lsl #2
    20ac:	1000008d 	andne	r0, r0, sp, lsl #1
    20b0:	01000000 	mrseq	r0, (UNDEF: 0)
    20b4:	0000e39c 	muleq	r0, ip, r3
    20b8:	70660a00 	rsbvc	r0, r6, r0, lsl #20
    20bc:	f20b0100 	vrhadd.s8	d0, d11, d0
    20c0:	01000000 	mrseq	r0, (UNDEF: 0)
    20c4:	250b0050 	strcs	r0, [fp, #-80]	; 0x50
    20c8:	f2000000 	vhadd.s8	d0, d0, d0
    20cc:	0c000000 	stceq	0, cr0, [r0], {-0}
    20d0:	00000025 	andeq	r0, r0, r5, lsr #32
    20d4:	e3040d00 	movw	r0, #19712	; 0x4d00
    20d8:	0e000000 	cdpeq	0, 0, cr0, cr0, cr0, {0}
    20dc:	000005da 	ldrdeq	r0, [r0], -sl
    20e0:	00f20601 	rscseq	r0, r2, r1, lsl #12
    20e4:	03050000 	movweq	r0, #20480	; 0x5000
    20e8:	00009968 	andeq	r9, r0, r8, ror #18
    20ec:	0005bf0f 	andeq	fp, r5, pc, lsl #30
    20f0:	0c3c0200 	lfmeq	f0, 4, [ip], #-0
    20f4:	0000002c 	andeq	r0, r0, ip, lsr #32
    20f8:	00ee0000 	rsceq	r0, lr, r0
    20fc:	00040000 	andeq	r0, r4, r0
    2100:	00000901 	andeq	r0, r0, r1, lsl #18
    2104:	05090104 	streq	r0, [r9, #-260]	; 0x104
    2108:	02010000 	andeq	r0, r1, #0
    210c:	74000006 	strvc	r0, [r0], #-6
    2110:	f0000005 			; <UNDEFINED> instruction: 0xf0000005
    2114:	3400008d 	strcc	r0, [r0], #-141	; 0x8d
    2118:	3f000000 	svccc	0x00000000
    211c:	02000007 	andeq	r0, r0, #7
    2120:	6e690504 	cdpvs	5, 6, cr0, cr9, cr4, {0}
    2124:	04030074 	streq	r0, [r3], #-116	; 0x74
    2128:	00019407 	andeq	r9, r1, r7, lsl #8
    212c:	06010300 	streq	r0, [r1], -r0, lsl #6
    2130:	000000a3 	andeq	r0, r0, r3, lsr #1
    2134:	e8050203 	stmda	r5, {r0, r1, r9}
    2138:	03000000 	movweq	r0, #0
    213c:	01b90504 			; <UNDEFINED> instruction: 0x01b90504
    2140:	08030000 	stmdaeq	r3, {}	; <UNPREDICTABLE>
    2144:	0001b405 	andeq	fp, r1, r5, lsl #8
    2148:	08010300 	stmdaeq	r1, {r8, r9}
    214c:	000000a1 	andeq	r0, r0, r1, lsr #1
    2150:	c7070203 	strgt	r0, [r7, -r3, lsl #4]
    2154:	03000000 	movweq	r0, #0
    2158:	018f0704 	orreq	r0, pc, r4, lsl #14
    215c:	08030000 	stmdaeq	r3, {}	; <UNPREDICTABLE>
    2160:	00018a07 	andeq	r8, r1, r7, lsl #20
    2164:	07040300 	streq	r0, [r4, -r0, lsl #6]
    2168:	000001ab 	andeq	r0, r0, fp, lsr #3
    216c:	aa080103 	bge	202580 <__bss_end__+0x1f8028>
    2170:	04000000 	streq	r0, [r0], #-0
    2174:	00007f04 	andeq	r7, r0, r4, lsl #30
    2178:	00720500 	rsbseq	r0, r2, r0, lsl #10
    217c:	0e060000 	cdpeq	0, 0, cr0, cr6, cr0, {0}
    2180:	01000006 	tsteq	r0, r6
    2184:	00002504 	andeq	r2, r0, r4, lsl #10
    2188:	008df000 	addeq	pc, sp, r0
    218c:	00003400 	andeq	r3, r0, r0, lsl #8
    2190:	ab9c0100 	blge	fe702598 <__bss_end__+0xfe6f8040>
    2194:	07000000 	streq	r0, [r0, -r0]
    2198:	04010070 	streq	r0, [r1], #-112	; 0x70
    219c:	00000079 	andeq	r0, r0, r9, ror r0
    21a0:	000005f1 	strdeq	r0, [r0], -r1
    21a4:	00250800 	eoreq	r0, r5, r0, lsl #16
    21a8:	00ba0000 	adcseq	r0, sl, r0
    21ac:	25090000 	strcs	r0, [r9, #-0]
    21b0:	00000000 	andeq	r0, r0, r0
    21b4:	0005da0a 	andeq	sp, r5, sl, lsl #20
    21b8:	c51d0200 	ldrgt	r0, [sp, #-512]	; 0x200
    21bc:	04000000 	streq	r0, [r0], #-0
    21c0:	0000ab04 	andeq	sl, r0, r4, lsl #22
    21c4:	00250800 	eoreq	r0, r5, r0, lsl #16
    21c8:	00da0000 	sbcseq	r0, sl, r0
    21cc:	79090000 	stmdbvc	r9, {}	; <UNPREDICTABLE>
    21d0:	00000000 	andeq	r0, r0, r0
    21d4:	0006170b 	andeq	r1, r6, fp, lsl #14
    21d8:	eb0c0100 	bl	3025e0 <__bss_end__+0x2f8088>
    21dc:	05000000 	streq	r0, [r0, #-0]
    21e0:	00996c03 	addseq	r6, r9, r3, lsl #24
    21e4:	cb040400 	blgt	1031ec <__bss_end__+0xf8c94>
    21e8:	00000000 	andeq	r0, r0, r0
    21ec:	000006e5 	andeq	r0, r0, r5, ror #13
    21f0:	099a0004 	ldmibeq	sl, {r2}
    21f4:	01040000 	mrseq	r0, (UNDEF: 4)
    21f8:	00000509 	andeq	r0, r0, r9, lsl #10
    21fc:	00064d01 	andeq	r4, r6, r1, lsl #26
    2200:	00057400 	andeq	r7, r5, r0, lsl #8
    2204:	008e2400 	addeq	r2, lr, r0, lsl #8
    2208:	00057800 	andeq	r7, r5, r0, lsl #16
    220c:	0007e300 	andeq	lr, r7, r0, lsl #6
    2210:	05040200 	streq	r0, [r4, #-512]	; 0x200
    2214:	00746e69 	rsbseq	r6, r4, r9, ror #28
    2218:	94070403 	strls	r0, [r7], #-1027	; 0x403
    221c:	03000001 	movweq	r0, #1
    2220:	00a30601 	adceq	r0, r3, r1, lsl #12
    2224:	02030000 	andeq	r0, r3, #0
    2228:	0000e805 	andeq	lr, r0, r5, lsl #16
    222c:	05040300 	streq	r0, [r4, #-768]	; 0x300
    2230:	000001b9 			; <UNDEFINED> instruction: 0x000001b9
    2234:	b4050803 	strlt	r0, [r5], #-2051	; 0x803
    2238:	03000001 	movweq	r0, #1
    223c:	00a10801 	adceq	r0, r1, r1, lsl #16
    2240:	02030000 	andeq	r0, r3, #0
    2244:	0000c707 	andeq	ip, r0, r7, lsl #14
    2248:	07040300 	streq	r0, [r4, -r0, lsl #6]
    224c:	0000018f 	andeq	r0, r0, pc, lsl #3
    2250:	8a070803 	bhi	1c4264 <__bss_end__+0x1b9d0c>
    2254:	03000001 	movweq	r0, #1
    2258:	01ab0704 			; <UNDEFINED> instruction: 0x01ab0704
    225c:	04040000 	streq	r0, [r4], #-0
    2260:	007a0405 	rsbseq	r0, sl, r5, lsl #8
    2264:	01030000 	mrseq	r0, (UNDEF: 3)
    2268:	0000aa08 	andeq	sl, r0, r8, lsl #20
    226c:	87040500 	strhi	r0, [r4, -r0, lsl #10]
    2270:	06000000 	streq	r0, [r0], -r0
    2274:	0000007a 	andeq	r0, r0, sl, ror r0
    2278:	0004ec07 	andeq	lr, r4, r7, lsl #24
    227c:	97280200 	strls	r0, [r8, -r0, lsl #4]!
    2280:	08000000 	stmdaeq	r0, {}	; <UNPREDICTABLE>
    2284:	0000056a 	andeq	r0, r0, sl, ror #10
    2288:	ae000404 	cdpge	4, 0, cr0, cr0, cr4, {0}
    228c:	09000000 	stmdbeq	r0, {}	; <UNPREDICTABLE>
    2290:	000005ba 			; <UNDEFINED> instruction: 0x000005ba
    2294:	00000072 	andeq	r0, r0, r2, ror r0
    2298:	6c070000 	stcvs	0, cr0, [r7], {-0}
    229c:	02000005 	andeq	r0, r0, #5
    22a0:	00008c62 	andeq	r8, r0, r2, ror #24
    22a4:	06340a00 	ldrteq	r0, [r4], -r0, lsl #20
    22a8:	27010000 	strcs	r0, [r1, -r0]
    22ac:	00000025 	andeq	r0, r0, r5, lsr #32
    22b0:	00008e24 	andeq	r8, r0, r4, lsr #28
    22b4:	00000014 	andeq	r0, r0, r4, lsl r0
    22b8:	00e09c01 	rsceq	r9, r0, r1, lsl #24
    22bc:	630b0000 	movwvs	r0, #45056	; 0xb000
    22c0:	25270100 	strcs	r0, [r7, #-256]!	; 0x100
    22c4:	0f000000 	svceq	0x00000000
    22c8:	00000006 	andeq	r0, r0, r6
    22cc:	6461700c 	strbtvs	r7, [r1], #-12
    22d0:	742e0100 	strtvc	r0, [lr], #-256	; 0x100
    22d4:	38000000 	stmdacc	r0, {}	; <UNPREDICTABLE>
    22d8:	2c00008e 	stccs	0, cr0, [r0], {142}	; 0x8e
    22dc:	01000000 	mrseq	r0, (UNDEF: 0)
    22e0:	0001309c 	muleq	r1, ip, r0
    22e4:	00700b00 	rsbseq	r0, r0, r0, lsl #22
    22e8:	00742e01 	rsbseq	r2, r4, r1, lsl #28
    22ec:	063d0000 	ldrteq	r0, [sp], -r0
    22f0:	540d0000 	strpl	r0, [sp], #-0
    22f4:	0100000a 	tsteq	r0, sl
    22f8:	0000742e 	andeq	r7, r0, lr, lsr #8
    22fc:	00066800 	andeq	r6, r6, r0, lsl #16
    2300:	066d0e00 	strbteq	r0, [sp], -r0, lsl #28
    2304:	2e010000 	cdpcs	0, 0, cr0, cr1, cr0, {0}
    2308:	00000025 	andeq	r0, r0, r5, lsr #32
    230c:	6c0f5201 	sfmvs	f5, 4, [pc], {1}
    2310:	01006e65 	tsteq	r0, r5, ror #28
    2314:	0000252f 	andeq	r2, r0, pc, lsr #10
    2318:	00510100 	subseq	r0, r1, r0, lsl #2
    231c:	00062c0a 	andeq	r2, r6, sl, lsl #24
    2320:	74370100 	ldrtvc	r0, [r7], #-256	; 0x100
    2324:	64000000 	strvs	r0, [r0], #-0
    2328:	4000008e 	andmi	r0, r0, lr, lsl #1
    232c:	01000000 	mrseq	r0, (UNDEF: 0)
    2330:	00019c9c 	muleq	r1, ip, ip
    2334:	73640b00 	cmnvc	r4, #0, 22
    2338:	37010074 	smlsdxcc	r1, r4, r0, r0
    233c:	00000074 	andeq	r0, r0, r4, ror r0
    2340:	00000689 	andeq	r0, r0, r9, lsl #13
    2344:	01006e0b 	tsteq	r0, fp, lsl #28
    2348:	00002537 	andeq	r2, r0, r7, lsr r5
    234c:	0006c100 	andeq	ip, r6, r0, lsl #2
    2350:	00700b00 	rsbseq	r0, r0, r0, lsl #22
    2354:	00743701 	rsbseq	r3, r4, r1, lsl #14
    2358:	06e20000 	strbteq	r0, [r2], r0
    235c:	200d0000 	andcs	r0, sp, r0
    2360:	01000006 	tsteq	r0, r6
    2364:	00007437 	andeq	r7, r0, r7, lsr r4
    2368:	00071800 	andeq	r1, r7, r0, lsl #16
    236c:	656c1000 	strbvs	r1, [ip, #-0]!
    2370:	3901006e 	stmdbcc	r1, {r1, r2, r3, r5, r6}
    2374:	00000025 	andeq	r0, r0, r5, lsr #32
    2378:	00000736 	andeq	r0, r0, r6, lsr r7
    237c:	0100730f 	tsteq	r0, pc, lsl #6
    2380:	0000743d 	andeq	r7, r0, sp, lsr r4
    2384:	00500100 	subseq	r0, r0, r0, lsl #2
    2388:	00067b0a 	andeq	r7, r6, sl, lsl #22
    238c:	74470100 	strbvc	r0, [r7], #-256	; 0x100
    2390:	a4000000 	strge	r0, [r0], #-0
    2394:	bc00008e 	stclt	0, cr0, [r0], {142}	; 0x8e
    2398:	01000001 	tsteq	r0, r1
    239c:	0002df9c 	muleq	r2, ip, pc	; <UNPREDICTABLE>
    23a0:	0a540d00 	beq	15057a8 <__bss_end__+0x14fb250>
    23a4:	47010000 	strmi	r0, [r1, -r0]
    23a8:	0000002c 	andeq	r0, r0, ip, lsr #32
    23ac:	0000075d 	andeq	r0, r0, sp, asr r7
    23b0:	7473640b 	ldrbtvc	r6, [r3], #-1035	; 0x40b
    23b4:	74470100 	strbvc	r0, [r7], #-256	; 0x100
    23b8:	8b000000 	blhi	23c0 <__code_start__-0x5c40>
    23bc:	0b000007 	bleq	23e0 <__code_start__-0x5c20>
    23c0:	4701006e 	strmi	r0, [r1, -lr, rrx]
    23c4:	00000025 	andeq	r0, r0, r5, lsr #32
    23c8:	000007f9 	strdeq	r0, [r0], -r9
    23cc:	6c61760b 	stclvs	6, cr7, [r1], #-44	; 0xffffffd4
    23d0:	25470100 	strbcs	r0, [r7, #-256]	; 0x100
    23d4:	25000000 	strcs	r0, [r0, #-0]
    23d8:	0d000008 	stceq	0, cr0, [r0, #-32]	; 0xffffffe0
    23dc:	0000066d 	andeq	r0, r0, sp, ror #12
    23e0:	00254701 	eoreq	r4, r5, r1, lsl #14
    23e4:	08a40000 	stmiaeq	r4!, {}	; <UNPREDICTABLE>
    23e8:	440e0000 	strmi	r0, [lr], #-0
    23ec:	01000006 	tsteq	r0, r6
    23f0:	00002547 	andeq	r2, r0, r7, asr #10
    23f4:	04910200 	ldreq	r0, [r1], #512	; 0x200
    23f8:	6675620f 	ldrbtvs	r6, [r5], -pc, lsl #4
    23fc:	df4c0100 	svcle	0x004c0100
    2400:	03000002 	movweq	r0, #2
    2404:	107fa891 			; <UNDEFINED> instruction: 0x107fa891
    2408:	4c010070 	stcmi	0, cr0, [r1], {112}	; 0x70
    240c:	00000074 	andeq	r0, r0, r4, ror r0
    2410:	000008ce 	andeq	r0, r0, lr, asr #17
    2414:	01007510 	tsteq	r0, r0, lsl r5
    2418:	00002c4d 	andeq	r2, r0, sp, asr #24
    241c:	0009b800 	andeq	fp, r9, r0, lsl #16
    2420:	00f21100 	rscseq	r1, r2, r0, lsl #2
    2424:	02ff0000 	rscseq	r0, pc, #0
    2428:	03050000 	movweq	r0, #20480	; 0x5000
    242c:	00009f28 	andeq	r9, r0, r8, lsr #30
    2430:	008f1012 	addeq	r1, pc, r2, lsl r0	; <UNPREDICTABLE>
    2434:	00007400 	andeq	r7, r0, r0, lsl #8
    2438:	00026100 	andeq	r6, r2, r0, lsl #2
    243c:	06261300 	strteq	r1, [r6], -r0, lsl #6
    2440:	52010000 	andpl	r0, r1, #0
    2444:	0000002c 	andeq	r0, r0, ip, lsr #32
    2448:	00000a7b 	andeq	r0, r0, fp, ror sl
    244c:	8ffc1400 	svchi	0x00fc1400
    2450:	06c40000 	strbeq	r0, [r4], r0
    2454:	18150000 	ldmdane	r5, {}	; <UNPREDICTABLE>
    2458:	cb000090 	blgt	26a0 <__code_start__-0x5960>
    245c:	a3000006 	movwge	r0, #6
    2460:	16000002 	strne	r0, [r0], -r2
    2464:	08025301 	stmdaeq	r2, {r0, r8, r9, ip, lr}
    2468:	52011677 	andpl	r1, r1, #124780544	; 0x7700000
    246c:	9f280305 	svcls	0x00280305
    2470:	01160000 	tsteq	r6, r0
    2474:	4c030551 	cfstr32mi	mvfx0, [r3], {81}	; 0x51
    2478:	1600009f 			; <UNDEFINED> instruction: 0x1600009f
    247c:	03055001 	movweq	r5, #20481	; 0x5001
    2480:	00009a34 	andeq	r9, r0, r4, lsr sl
    2484:	007d0216 	rsbseq	r0, sp, r6, lsl r2
    2488:	9f600305 	svcls	0x00600305
    248c:	14000000 	strne	r0, [r0], #-0
    2490:	0000901c 	andeq	r9, r0, ip, lsl r0
    2494:	000006e1 	andeq	r0, r0, r1, ror #13
    2498:	00902415 	addseq	r2, r0, r5, lsl r4
    249c:	0000e000 	andeq	lr, r0, r0
    24a0:	0002c100 	andeq	ip, r2, r0, lsl #2
    24a4:	51011600 	tstpl	r1, r0, lsl #12
    24a8:	7fa09103 	svcvc	0x00a09103
    24ac:	90381700 	eorsls	r1, r8, r0, lsl #14
    24b0:	01300000 	teqeq	r0, r0
    24b4:	01160000 	tsteq	r6, r0
    24b8:	a0910353 	addsge	r0, r1, r3, asr r3
    24bc:	5101167f 	tstpl	r1, pc, ror r6
    24c0:	16007402 	strne	r7, [r0], -r2, lsl #8
    24c4:	75025001 	strvc	r5, [r2, #-1]
    24c8:	18000000 	stmdane	r0, {}	; <UNPREDICTABLE>
    24cc:	0000007a 	andeq	r0, r0, sl, ror r0
    24d0:	000002ef 	andeq	r0, r0, pc, ror #5
    24d4:	00006b19 	andeq	r6, r0, r9, lsl fp
    24d8:	18003f00 	stmdane	r0, {r8, r9, sl, fp, ip, sp}
    24dc:	0000007a 	andeq	r0, r0, sl, ror r0
    24e0:	000002ff 	strdeq	r0, [r0], -pc	; <UNPREDICTABLE>
    24e4:	00006b19 	andeq	r6, r0, r9, lsl fp
    24e8:	06000400 	streq	r0, [r0], -r0, lsl #8
    24ec:	000002ef 	andeq	r0, r0, pc, ror #5
    24f0:	00065e1a 	andeq	r5, r6, sl, lsl lr
    24f4:	601f0100 	andsvs	r0, pc, r0, lsl #2
    24f8:	68000090 	stmdavs	r0, {r4, r7}
    24fc:	01000000 	mrseq	r0, (UNDEF: 0)
    2500:	0003929c 	muleq	r3, ip, r2
    2504:	06730d00 	ldrbteq	r0, [r3], -r0, lsl #26
    2508:	1f010000 	svcne	0x00010000
    250c:	000003a1 	andeq	r0, r0, r1, lsr #7
    2510:	00000aa7 	andeq	r0, r0, r7, lsr #21
    2514:	00063c0d 	andeq	r3, r6, sp, lsl #24
    2518:	b61f0100 	ldrlt	r0, [pc], -r0, lsl #2
    251c:	d3000003 	movwle	r0, #3
    2520:	1100000a 	tstne	r0, sl
    2524:	000000f2 	strdeq	r0, [r0], -r2
    2528:	000003cc 	andeq	r0, r0, ip, asr #7
    252c:	9f300305 	svcls	0x00300305
    2530:	74140000 	ldrvc	r0, [r4], #-0
    2534:	c4000090 	strgt	r0, [r0], #-144	; 0x90
    2538:	15000006 	strne	r0, [r0, #-6]
    253c:	00009090 	muleq	r0, r0, r0
    2540:	000006cb 	andeq	r0, r0, fp, asr #13
    2544:	00000388 	andeq	r0, r0, r8, lsl #7
    2548:	02530116 	subseq	r0, r3, #-2147483643	; 0x80000005
    254c:	01162008 	tsteq	r6, r8
    2550:	30030552 	andcc	r0, r3, r2, asr r5
    2554:	1600009f 			; <UNDEFINED> instruction: 0x1600009f
    2558:	03055101 	movweq	r5, #20737	; 0x5101
    255c:	00009f4c 	andeq	r9, r0, ip, asr #30
    2560:	05500116 	ldrbeq	r0, [r0, #-278]	; 0x116
    2564:	009a3403 	addseq	r3, sl, r3, lsl #8
    2568:	7d021600 	stcvc	6, cr1, [r2, #-0]
    256c:	88030500 	stmdahi	r3, {r8, sl}
    2570:	0000009f 	muleq	r0, pc, r0	; <UNPREDICTABLE>
    2574:	00909414 	addseq	r9, r0, r4, lsl r4
    2578:	0006e100 	andeq	lr, r6, r0, lsl #2
    257c:	251b0000 	ldrcs	r0, [fp, #-0]
    2580:	a1000000 	mrsge	r0, (UNDEF: 0)
    2584:	1c000003 	stcne	0, cr0, [r0], {3}
    2588:	00000025 	andeq	r0, r0, r5, lsr #32
    258c:	92040500 	andls	r0, r4, #0, 10
    2590:	1b000003 	blne	25a4 <__code_start__-0x5a5c>
    2594:	00000025 	andeq	r0, r0, r5, lsr #32
    2598:	000003b6 			; <UNDEFINED> instruction: 0x000003b6
    259c:	0000811c 	andeq	r8, r0, ip, lsl r1
    25a0:	04050000 	streq	r0, [r5], #-0
    25a4:	000003a7 	andeq	r0, r0, r7, lsr #7
    25a8:	00007a18 	andeq	r7, r0, r8, lsl sl
    25ac:	0003cc00 	andeq	ip, r3, r0, lsl #24
    25b0:	006b1900 	rsbeq	r1, fp, r0, lsl #18
    25b4:	000e0000 	andeq	r0, lr, r0
    25b8:	0003bc06 	andeq	fp, r3, r6, lsl #24
    25bc:	05601d00 	strbeq	r1, [r0, #-3328]!	; 0xd00
    25c0:	7f010000 	svcvc	0x00010000
    25c4:	00000025 	andeq	r0, r0, r5, lsr #32
    25c8:	000090c8 	andeq	r9, r0, r8, asr #1
    25cc:	000002d4 	ldrdeq	r0, [r0], -r4
    25d0:	06899c01 	streq	r9, [r9], r1, lsl #24
    25d4:	620b0000 	andvs	r0, fp, #0
    25d8:	01006675 	tsteq	r0, r5, ror r6
    25dc:	0000747f 	andeq	r7, r0, pc, ror r4
    25e0:	000aff00 	andeq	pc, sl, r0, lsl #30
    25e4:	006e0b00 	rsbeq	r0, lr, r0, lsl #22
    25e8:	00257f01 	eoreq	r7, r5, r1, lsl #30
    25ec:	0b2b0000 	bleq	ac25f4 <__bss_end__+0xab809c>
    25f0:	660b0000 	strvs	r0, [fp], -r0
    25f4:	0100746d 	tsteq	r0, sp, ror #8
    25f8:	0000817f 	andeq	r8, r0, pc, ror r1
    25fc:	000b5900 	andeq	r5, fp, r0, lsl #18
    2600:	0a760d00 	beq	1d85a08 <__bss_end__+0x1d7b4b0>
    2604:	7f010000 	svcvc	0x00010000
    2608:	000000ae 	andeq	r0, r0, lr, lsr #1
    260c:	00000b77 	andeq	r0, r0, r7, ror fp
    2610:	01007010 	tsteq	r0, r0, lsl r0
    2614:	00007480 	andeq	r7, r0, r0, lsl #9
    2618:	000b8a00 	andeq	r8, fp, r0, lsl #20
    261c:	00651000 	rsbeq	r1, r5, r0
    2620:	00748001 	rsbseq	r8, r4, r1
    2624:	0c080000 	stceq	0, cr0, [r8], {-0}
    2628:	1c130000 	ldcne	0, cr0, [r3], {-0}
    262c:	01000006 	tsteq	r0, r6
    2630:	00008183 	andeq	r8, r0, r3, lsl #3
    2634:	000c2f00 	andeq	r2, ip, r0, lsl #30
    2638:	00f21100 	rscseq	r1, r2, r0, lsl #2
    263c:	06990000 	ldreq	r0, [r9], r0
    2640:	03050000 	movweq	r0, #20480	; 0x5000
    2644:	00009f40 	andeq	r9, r0, r0, asr #30
    2648:	0091241e 	addseq	r2, r1, lr, lsl r4
    264c:	00022c00 	andeq	r2, r2, r0, lsl #24
    2650:	00731000 	rsbseq	r1, r3, r0
    2654:	00748e01 	rsbseq	r8, r4, r1, lsl #28
    2658:	0c4f0000 	mareq	acc0, r0, pc
    265c:	6e0f0000 	cdpvs	0, 0, cr0, cr15, cr0, {0}
    2660:	01006d75 	tsteq	r0, r5, ror sp
    2664:	00069e8e 	andeq	r9, r6, lr, lsl #29
    2668:	d8910300 	ldmle	r1, {r8, r9}
    266c:	066d137e 			; <UNDEFINED> instruction: 0x066d137e
    2670:	8f010000 	svchi	0x00010000
    2674:	0000002c 	andeq	r0, r0, ip, lsr #32
    2678:	00000ca4 	andeq	r0, r0, r4, lsr #25
    267c:	00915415 	addseq	r5, r1, r5, lsl r4
    2680:	0000b900 	andeq	fp, r0, r0, lsl #18
    2684:	0004a400 	andeq	sl, r4, r0, lsl #8
    2688:	50011600 	andpl	r1, r1, r0, lsl #12
    268c:	00007502 	andeq	r7, r0, r2, lsl #10
    2690:	00916814 	addseq	r6, r1, r4, lsl r8
    2694:	0006c400 	andeq	ip, r6, r0, lsl #8
    2698:	91841500 	orrls	r1, r4, r0, lsl #10
    269c:	06cb0000 	strbeq	r0, [fp], r0
    26a0:	04e60000 	strbteq	r0, [r6], #0
    26a4:	01160000 	tsteq	r6, r0
    26a8:	95080253 	strls	r0, [r8, #-595]	; 0x253
    26ac:	05520116 	ldrbeq	r0, [r2, #-278]	; 0x116
    26b0:	009f4003 	addseq	r4, pc, r3
    26b4:	51011600 	tstpl	r1, r0, lsl #12
    26b8:	9f4c0305 	svcls	0x004c0305
    26bc:	01160000 	tsteq	r6, r0
    26c0:	34030550 	strcc	r0, [r3], #-1360	; 0x550
    26c4:	1600009a 			; <UNDEFINED> instruction: 0x1600009a
    26c8:	05007d02 	streq	r7, [r0, #-3330]	; 0xd02
    26cc:	009f9003 	addseq	r9, pc, r3
    26d0:	88140000 	ldmdahi	r4, {}	; <UNPREDICTABLE>
    26d4:	e1000091 	swp	r0, r1, [r0]	; <UNPREDICTABLE>
    26d8:	14000006 	strne	r0, [r0], #-6
    26dc:	000091f8 	strdeq	r9, [r0], -r8
    26e0:	000006c4 	andeq	r0, r0, r4, asr #13
    26e4:	00920c15 	addseq	r0, r2, r5, lsl ip
    26e8:	0006cb00 	andeq	ip, r6, r0, lsl #22
    26ec:	00052700 	andeq	r2, r5, r0, lsl #14
    26f0:	53011600 	movwpl	r1, #5632	; 0x1600
    26f4:	169b0802 	ldrne	r0, [fp], r2, lsl #16
    26f8:	03055201 	movweq	r5, #20993	; 0x5201
    26fc:	00009f40 	andeq	r9, r0, r0, asr #30
    2700:	05510116 	ldrbeq	r0, [r1, #-278]	; 0x116
    2704:	009f4c03 	addseq	r4, pc, r3, lsl #24
    2708:	50011600 	andpl	r1, r1, r0, lsl #12
    270c:	9f9c0305 	svcls	0x009c0305
    2710:	14000000 	strne	r0, [r0], #-0
    2714:	00009210 	andeq	r9, r0, r0, lsl r2
    2718:	000006e1 	andeq	r0, r0, r1, ror #13
    271c:	00923415 	addseq	r3, r2, r5, lsl r4
    2720:	00019c00 	andeq	r9, r1, r0, lsl #24
    2724:	00055d00 	andeq	r5, r5, r0, lsl #26
    2728:	52011600 	andpl	r1, r1, #0, 12
    272c:	16800802 	strne	r0, [r0], r2, lsl #16
    2730:	91035101 	tstls	r3, r1, lsl #2
    2734:	01167ed0 			; <UNDEFINED> instruction: 0x01167ed0
    2738:	163a0150 			; <UNDEFINED> instruction: 0x163a0150
    273c:	01047d02 	tsteq	r4, r2, lsl #26
    2740:	7d021631 	stcvc	6, cr1, [r2, #-196]	; 0xffffff3c
    2744:	00770200 	rsbseq	r0, r7, r0, lsl #4
    2748:	925c1500 	subsls	r1, ip, #0, 10
    274c:	019c0000 	orrseq	r0, ip, r0
    2750:	058a0000 	streq	r0, [sl]
    2754:	01160000 	tsteq	r6, r0
    2758:	80080252 	andhi	r0, r8, r2, asr r2
    275c:	03510116 	cmpeq	r1, #-2147483643	; 0x80000005
    2760:	167ed091 			; <UNDEFINED> instruction: 0x167ed091
    2764:	3a015001 	bcc	56770 <__bss_end__+0x4c218>
    2768:	047d0216 	ldrbteq	r0, [sp], #-534	; 0x216
    276c:	02163001 	andseq	r3, r6, #1
    2770:	7702007d 	smlsdxvc	r2, sp, r0, r0
    2774:	84150000 	ldrhi	r0, [r5], #-0
    2778:	9c000092 	stcls	0, cr0, [r0], {146}	; 0x92
    277c:	b7000001 	strlt	r0, [r0, -r1]
    2780:	16000005 	strne	r0, [r0], -r5
    2784:	08025201 	stmdaeq	r2, {r0, r9, ip, lr}
    2788:	51011680 	smlabbpl	r1, r0, r6, r1
    278c:	7ed09103 	atnvcs	f1, f3
    2790:	01500116 	cmpeq	r0, r6, lsl r1
    2794:	7d021640 	stcvc	6, cr1, [r2, #-256]	; 0xffffff00
    2798:	16300104 	ldrtne	r0, [r0], -r4, lsl #2
    279c:	02007d02 	andeq	r7, r0, #2, 26	; 0x80
    27a0:	15000077 	strne	r0, [r0, #-119]	; 0x77
    27a4:	000092ac 	andeq	r9, r0, ip, lsr #5
    27a8:	0000019c 	muleq	r0, ip, r1
    27ac:	000005e4 	andeq	r0, r0, r4, ror #11
    27b0:	02520116 	subseq	r0, r2, #-2147483643	; 0x80000005
    27b4:	01168008 	tsteq	r6, r8
    27b8:	d0910351 	addsle	r0, r1, r1, asr r3
    27bc:	5001167e 	andpl	r1, r1, lr, ror r6
    27c0:	02163201 	andseq	r3, r6, #268435456	; 0x10000000
    27c4:	3001047d 	andcc	r0, r1, sp, ror r4
    27c8:	007d0216 	rsbseq	r0, sp, r6, lsl r2
    27cc:	00007702 	andeq	r7, r0, r2, lsl #14
    27d0:	0092e015 	addseq	lr, r2, r5, lsl r0
    27d4:	00019c00 	andeq	r9, r1, r0, lsl #24
    27d8:	00061100 	andeq	r1, r6, r0, lsl #2
    27dc:	52011600 	andpl	r1, r1, #0, 12
    27e0:	16800802 	strne	r0, [r0], r2, lsl #16
    27e4:	91035101 	tstls	r3, r1, lsl #2
    27e8:	01167ed0 			; <UNDEFINED> instruction: 0x01167ed0
    27ec:	16380150 			; <UNDEFINED> instruction: 0x16380150
    27f0:	01047d02 	tsteq	r4, r2, lsl #26
    27f4:	7d021630 	stcvc	6, cr1, [r2, #-192]	; 0xffffff40
    27f8:	00770200 	rsbseq	r0, r7, r0, lsl #4
    27fc:	92fc1500 	rscsls	r1, ip, #0, 10
    2800:	06cb0000 	strbeq	r0, [fp], r0
    2804:	06340000 	ldrteq	r0, [r4], -r0
    2808:	01160000 	tsteq	r6, r0
    280c:	00790252 	rsbseq	r0, r9, r2, asr r2
    2810:	02510116 	subseq	r0, r1, #-2147483643	; 0x80000005
    2814:	01160079 	tsteq	r6, r9, ror r0
    2818:	c4030550 	strgt	r0, [r3], #-1360	; 0x550
    281c:	0000009f 	muleq	r0, pc, r0	; <UNPREDICTABLE>
    2820:	00930c1f 	addseq	r0, r3, pc, lsl ip
    2824:	00064600 	andeq	r4, r6, r0, lsl #12
    2828:	50011600 	andpl	r1, r1, r0, lsl #12
    282c:	7ecc9104 	acsvce	f1, f4
    2830:	10140006 	andsne	r0, r4, r6
    2834:	c4000093 	strgt	r0, [r0], #-147	; 0x93
    2838:	15000006 	strne	r0, [r0, #-6]
    283c:	00009324 	andeq	r9, r0, r4, lsr #6
    2840:	000006cb 	andeq	r0, r0, fp, asr #13
    2844:	0000067e 	andeq	r0, r0, lr, ror r6
    2848:	02530116 	subseq	r0, r3, #-2147483643	; 0x80000005
    284c:	0116bf08 	tsteq	r6, r8, lsl #30
    2850:	40030552 	andmi	r0, r3, r2, asr r5
    2854:	1600009f 			; <UNDEFINED> instruction: 0x1600009f
    2858:	03055101 	movweq	r5, #20737	; 0x5101
    285c:	00009f4c 	andeq	r9, r0, ip, asr #30
    2860:	05500116 	ldrbeq	r0, [r0, #-278]	; 0x116
    2864:	009ff403 	addseq	pc, pc, r3, lsl #8
    2868:	28140000 	ldmdacs	r4, {}	; <UNPREDICTABLE>
    286c:	e1000093 	swp	r0, r3, [r0]	; <UNPREDICTABLE>
    2870:	00000006 	andeq	r0, r0, r6
    2874:	007a1800 	rsbseq	r1, sl, r0, lsl #16
    2878:	06990000 	ldreq	r0, [r9], r0
    287c:	6b190000 	blvs	642884 <__bss_end__+0x63832c>
    2880:	09000000 	stmdbeq	r0, {}	; <UNPREDICTABLE>
    2884:	06890600 	streq	r0, [r9], r0, lsl #12
    2888:	7a180000 	bvc	602890 <__bss_end__+0x5f8338>
    288c:	ae000000 	cdpge	0, 0, cr0, cr0, cr0, {0}
    2890:	19000006 	stmdbne	r0, {r1, r2}
    2894:	0000006b 	andeq	r0, r0, fp, rrx
    2898:	da20007f 	ble	802a9c <__bss_end__+0x7f8544>
    289c:	03000005 	movweq	r0, #5
    28a0:	0003a11d 	andeq	sl, r3, sp, lsl r1
    28a4:	06172000 	ldreq	r2, [r7], -r0
    28a8:	22030000 	andcs	r0, r3, #0
    28ac:	000003b6 			; <UNDEFINED> instruction: 0x000003b6
    28b0:	00021021 	andeq	r1, r2, r1, lsr #32
    28b4:	221e0300 	andscs	r0, lr, #0, 6
    28b8:	00000563 	andeq	r0, r0, r3, ror #10
    28bc:	00252903 	eoreq	r2, r5, r3, lsl #18
    28c0:	06e10000 	strbteq	r0, [r1], r0
    28c4:	811c0000 	tsthi	ip, r0
    28c8:	23000000 	movwcs	r0, #0
    28cc:	00af2100 	adceq	r2, pc, r0, lsl #2
    28d0:	65030000 	strvs	r0, [r3, #-0]
    28d4:	0000b800 	andeq	fp, r0, r0, lsl #16
    28d8:	83000400 	movwhi	r0, #1024	; 0x400
    28dc:	0400000b 	streq	r0, [r0], #-11
    28e0:	00050901 	andeq	r0, r5, r1, lsl #18
    28e4:	068e0100 	streq	r0, [lr], r0, lsl #2
    28e8:	05740000 	ldrbeq	r0, [r4, #-0]!
    28ec:	939c0000 	orrsls	r0, ip, #0
    28f0:	00200000 	eoreq	r0, r0, r0
    28f4:	09d80000 	ldmibeq	r8, {}^	; <UNPREDICTABLE>
    28f8:	04020000 	streq	r0, [r2], #-0
    28fc:	746e6905 	strbtvc	r6, [lr], #-2309	; 0x905
    2900:	07040300 	streq	r0, [r4, -r0, lsl #6]
    2904:	00000194 	muleq	r0, r4, r1
    2908:	a3060103 	movwge	r0, #24835	; 0x6103
    290c:	03000000 	movweq	r0, #0
    2910:	00e80502 	rsceq	r0, r8, r2, lsl #10
    2914:	04030000 	streq	r0, [r3], #-0
    2918:	0001b905 	andeq	fp, r1, r5, lsl #18
    291c:	05080300 	streq	r0, [r8, #-768]	; 0x300
    2920:	000001b4 			; <UNDEFINED> instruction: 0x000001b4
    2924:	a1080103 	tstge	r8, r3, lsl #2
    2928:	03000000 	movweq	r0, #0
    292c:	00c70702 	sbceq	r0, r7, r2, lsl #14
    2930:	04030000 	streq	r0, [r3], #-0
    2934:	00018f07 	andeq	r8, r1, r7, lsl #30
    2938:	07080300 	streq	r0, [r8, -r0, lsl #6]
    293c:	0000018a 	andeq	r0, r0, sl, lsl #3
    2940:	ab070403 	blge	1c3954 <__bss_end__+0x1b93fc>
    2944:	03000001 	movweq	r0, #1
    2948:	00aa0801 	adceq	r0, sl, r1, lsl #16
    294c:	f0040000 			; <UNDEFINED> instruction: 0xf0040000
    2950:	01000001 	tsteq	r0, r1
    2954:	00939c03 	addseq	r9, r3, r3, lsl #24
    2958:	00001000 	andeq	r1, r0, r0
    295c:	9c9c0100 	ldflss	f0, [ip], {0}
    2960:	05000000 	streq	r0, [r0, #-0]
    2964:	04010072 	streq	r0, [r1], #-114	; 0x72
    2968:	0000002c 	andeq	r0, r0, ip, lsr #32
    296c:	00000cce 	andeq	r0, r0, lr, asr #25
    2970:	06800600 	streq	r0, [r0], r0, lsl #12
    2974:	0c010000 	stceq	0, cr0, [r1], {-0}
    2978:	000093ac 	andeq	r9, r0, ip, lsr #7
    297c:	00000010 	andeq	r0, r0, r0, lsl r0
    2980:	72059c01 	andvc	r9, r5, #256	; 0x100
    2984:	2c0d0100 	stfcss	f0, [sp], {-0}
    2988:	f2000000 	vhadd.s8	d0, d0, d0
    298c:	0000000c 	andeq	r0, r0, ip
    2990:	00010f00 	andeq	r0, r1, r0, lsl #30
    2994:	ee000400 	cfcpys	mvf0, mvf0
    2998:	0400000b 	streq	r0, [r0], #-11
    299c:	00050901 	andeq	r0, r5, r1, lsl #18
    29a0:	06af0100 	strteq	r0, [pc], r0, lsl #2
    29a4:	05740000 	ldrbeq	r0, [r4, #-0]!
    29a8:	93bc0000 			; <UNDEFINED> instruction: 0x93bc0000
    29ac:	002c0000 	eoreq	r0, ip, r0
    29b0:	0a1e0000 	beq	7829b8 <__bss_end__+0x778460>
    29b4:	04020000 	streq	r0, [r2], #-0
    29b8:	746e6905 	strbtvc	r6, [lr], #-2309	; 0x905
    29bc:	07040300 	streq	r0, [r4, -r0, lsl #6]
    29c0:	00000194 	muleq	r0, r4, r1
    29c4:	a3060103 	movwge	r0, #24835	; 0x6103
    29c8:	03000000 	movweq	r0, #0
    29cc:	00e80502 	rsceq	r0, r8, r2, lsl #10
    29d0:	04030000 	streq	r0, [r3], #-0
    29d4:	0001b905 	andeq	fp, r1, r5, lsl #18
    29d8:	05080300 	streq	r0, [r8, #-768]	; 0x300
    29dc:	000001b4 			; <UNDEFINED> instruction: 0x000001b4
    29e0:	a1080103 	tstge	r8, r3, lsl #2
    29e4:	03000000 	movweq	r0, #0
    29e8:	00c70702 	sbceq	r0, r7, r2, lsl #14
    29ec:	04030000 	streq	r0, [r3], #-0
    29f0:	00018f07 	andeq	r8, r1, r7, lsl #30
    29f4:	07080300 	streq	r0, [r8, -r0, lsl #6]
    29f8:	0000018a 	andeq	r0, r0, sl, lsl #3
    29fc:	ab070403 	blge	1c3a10 <__bss_end__+0x1b94b8>
    2a00:	03000001 	movweq	r0, #1
    2a04:	00aa0801 	adceq	r0, sl, r1, lsl #16
    2a08:	04040000 	streq	r0, [r4], #-0
    2a0c:	0000007f 	andeq	r0, r0, pc, ror r0
    2a10:	00007205 	andeq	r7, r0, r5, lsl #4
    2a14:	00af0600 	adceq	r0, pc, r0, lsl #12
    2a18:	04010000 	streq	r0, [r1], #-0
    2a1c:	000093bc 			; <UNDEFINED> instruction: 0x000093bc
    2a20:	0000002c 	andeq	r0, r0, ip, lsr #32
    2a24:	00d39c01 	sbcseq	r9, r3, r1, lsl #24
    2a28:	c4070000 	strgt	r0, [r7], #-0
    2a2c:	f3000093 	vqadd.u8	d0, d16, d3
    2a30:	08000000 	stmdaeq	r0, {}	; <UNPREDICTABLE>
    2a34:	000093d4 	ldrdeq	r9, [r0], -r4
    2a38:	000000b5 	strheq	r0, [r0], -r5
    2a3c:	05500109 	ldrbeq	r0, [r0, #-265]	; 0x109
    2a40:	00a01403 	adceq	r1, r0, r3, lsl #8
    2a44:	dc0a0000 	stcle	0, cr0, [sl], {-0}
    2a48:	fa000093 	blx	2c9c <__code_start__-0x5364>
    2a4c:	c9000000 	stmdbgt	r0, {}	; <UNPREDICTABLE>
    2a50:	09000000 	stmdbeq	r0, {}	; <UNPREDICTABLE>
    2a54:	08025001 	stmdaeq	r2, {r0, ip, lr}
    2a58:	e0070064 	and	r0, r7, r4, rrx
    2a5c:	0b000093 	bleq	2cb0 <__code_start__-0x5350>
    2a60:	00000001 	andeq	r0, r0, r1
    2a64:	0000250b 	andeq	r2, r0, fp, lsl #10
    2a68:	0000e200 	andeq	lr, r0, r0, lsl #4
    2a6c:	00790c00 	rsbseq	r0, r9, r0, lsl #24
    2a70:	0d000000 	stceq	0, cr0, [r0, #-0]
    2a74:	00000617 	andeq	r0, r0, r7, lsl r6
    2a78:	00ed2202 	rsceq	r2, sp, r2, lsl #4
    2a7c:	04040000 	streq	r0, [r4], #-0
    2a80:	000000d3 	ldrdeq	r0, [r0], -r3
    2a84:	0006a00e 	andeq	sl, r6, lr
    2a88:	0fdc0200 	svceq	0x00dc0200
    2a8c:	000006d3 	ldrdeq	r0, [r0], -r3
    2a90:	010b4f02 	tsteq	fp, r2, lsl #30
    2a94:	2c0c0000 	stccs	0, cr0, [ip], {-0}
    2a98:	00000000 	andeq	r0, r0, r0
    2a9c:	0006c80e 	andeq	ip, r6, lr, lsl #16
    2aa0:	00620200 	rsbeq	r0, r2, r0, lsl #4
    2aa4:	0000010f 	andeq	r0, r0, pc, lsl #2
    2aa8:	0cb80004 	ldceq	0, cr0, [r8], #16
    2aac:	01040000 	mrseq	r0, (UNDEF: 4)
    2ab0:	00000509 	andeq	r0, r0, r9, lsl #10
    2ab4:	00071501 	andeq	r1, r7, r1, lsl #10
    2ab8:	00057400 	andeq	r7, r5, r0, lsl #8
    2abc:	0093e800 	addseq	lr, r3, r0, lsl #16
    2ac0:	00003800 	andeq	r3, r0, r0, lsl #16
    2ac4:	000abf00 	andeq	fp, sl, r0, lsl #30
    2ac8:	05040200 	streq	r0, [r4, #-512]	; 0x200
    2acc:	00746e69 	rsbseq	r6, r4, r9, ror #28
    2ad0:	94070403 	strls	r0, [r7], #-1027	; 0x403
    2ad4:	03000001 	movweq	r0, #1
    2ad8:	00a30601 	adceq	r0, r3, r1, lsl #12
    2adc:	02030000 	andeq	r0, r3, #0
    2ae0:	0000e805 	andeq	lr, r0, r5, lsl #16
    2ae4:	05040300 	streq	r0, [r4, #-768]	; 0x300
    2ae8:	000001b9 			; <UNDEFINED> instruction: 0x000001b9
    2aec:	b4050803 	strlt	r0, [r5], #-2051	; 0x803
    2af0:	03000001 	movweq	r0, #1
    2af4:	00a10801 	adceq	r0, r1, r1, lsl #16
    2af8:	02030000 	andeq	r0, r3, #0
    2afc:	0000c707 	andeq	ip, r0, r7, lsl #14
    2b00:	07040300 	streq	r0, [r4, -r0, lsl #6]
    2b04:	0000018f 	andeq	r0, r0, pc, lsl #3
    2b08:	8a070803 	bhi	1c4b1c <__bss_end__+0x1ba5c4>
    2b0c:	03000001 	movweq	r0, #1
    2b10:	01ab0704 			; <UNDEFINED> instruction: 0x01ab0704
    2b14:	01030000 	mrseq	r0, (UNDEF: 3)
    2b18:	0000aa08 	andeq	sl, r0, r8, lsl #20
    2b1c:	070d0400 	streq	r0, [sp, -r0, lsl #8]
    2b20:	0d010000 	stceq	0, cr0, [r1, #-0]
    2b24:	000093e8 	andeq	r9, r0, r8, ror #7
    2b28:	00000038 	andeq	r0, r0, r8, lsr r0
    2b2c:	00e19c01 	rsceq	r9, r1, r1, lsl #24
    2b30:	dc050000 	stcle	0, cr0, [r5], {-0}
    2b34:	01000006 	tsteq	r0, r6
    2b38:	0000250e 	andeq	r2, r0, lr, lsl #10
    2b3c:	06ea0500 	strbteq	r0, [sl], r0, lsl #10
    2b40:	0e010000 	cdpeq	0, 0, cr0, cr1, cr0, {0}
    2b44:	00000025 	andeq	r0, r0, r5, lsr #32
    2b48:	00007406 	andeq	r7, r0, r6, lsl #8
    2b4c:	070f0100 	streq	r0, [pc, -r0, lsl #2]
    2b50:	00737362 	rsbseq	r7, r3, r2, ror #6
    2b54:	00e11101 	rsceq	r1, r1, r1, lsl #2
    2b58:	0d160000 	ldceq	0, cr0, [r6, #-0]
    2b5c:	05080000 	streq	r0, [r8, #-0]
    2b60:	01000007 	tsteq	r0, r7
    2b64:	0000e112 	andeq	lr, r0, r2, lsl r1
    2b68:	94100900 	ldrls	r0, [r0], #-2304	; 0x900
    2b6c:	00fd0000 	rscseq	r0, sp, r0
    2b70:	14090000 	strne	r0, [r9], #-0
    2b74:	04000094 	streq	r0, [r0], #-148	; 0x94
    2b78:	09000001 	stmdbeq	r0, {r0}
    2b7c:	00009418 	andeq	r9, r0, r8, lsl r4
    2b80:	0000010b 	andeq	r0, r0, fp, lsl #2
    2b84:	25040a00 	strcs	r0, [r4, #-2560]	; 0xa00
    2b88:	05000000 	streq	r0, [r0, #-0]
    2b8c:	000006dc 	ldrdeq	r0, [r0], -ip
    2b90:	00250e01 	eoreq	r0, r5, r1, lsl #28
    2b94:	ea050000 	b	142b9c <__bss_end__+0x138644>
    2b98:	01000006 	tsteq	r0, r6
    2b9c:	0000250e 	andeq	r2, r0, lr, lsl #10
    2ba0:	06f60600 	ldrbteq	r0, [r6], r0, lsl #12
    2ba4:	da020000 	ble	82bac <__bss_end__+0x78654>
    2ba8:	00007406 	andeq	r7, r0, r6, lsl #8
    2bac:	06d70200 	ldrbeq	r0, [r7], r0, lsl #4
    2bb0:	000000af 	andeq	r0, r0, pc, lsr #1
    2bb4:	3e006502 	cfsh32cc	mvfx6, mvfx0, #2
    2bb8:	04000001 	streq	r0, [r0], #-1
    2bbc:	000d4c00 	andeq	r4, sp, r0, lsl #24
    2bc0:	09010400 	stmdbeq	r1, {sl}
    2bc4:	01000005 	tsteq	r0, r5
    2bc8:	00000728 	andeq	r0, r0, r8, lsr #14
    2bcc:	00000574 	andeq	r0, r0, r4, ror r5
    2bd0:	00009420 	andeq	r9, r0, r0, lsr #8
    2bd4:	00000044 	andeq	r0, r0, r4, asr #32
    2bd8:	00000b69 	andeq	r0, r0, r9, ror #22
    2bdc:	69050402 	stmdbvs	r5, {r1, sl}
    2be0:	0300746e 	movweq	r7, #1134	; 0x46e
    2be4:	01940704 	orrseq	r0, r4, r4, lsl #14
    2be8:	01030000 	mrseq	r0, (UNDEF: 3)
    2bec:	0000a306 	andeq	sl, r0, r6, lsl #6
    2bf0:	05020300 	streq	r0, [r2, #-768]	; 0x300
    2bf4:	000000e8 	andeq	r0, r0, r8, ror #1
    2bf8:	b9050403 	stmdblt	r5, {r0, r1, sl}
    2bfc:	03000001 	movweq	r0, #1
    2c00:	01b40508 			; <UNDEFINED> instruction: 0x01b40508
    2c04:	01030000 	mrseq	r0, (UNDEF: 3)
    2c08:	0000a108 	andeq	sl, r0, r8, lsl #2
    2c0c:	07020300 	streq	r0, [r2, -r0, lsl #6]
    2c10:	000000c7 	andeq	r0, r0, r7, asr #1
    2c14:	8f070403 	svchi	0x00070403
    2c18:	03000001 	movweq	r0, #1
    2c1c:	018a0708 	orreq	r0, sl, r8, lsl #14
    2c20:	04030000 	streq	r0, [r3], #-0
    2c24:	0001ab07 	andeq	sl, r1, r7, lsl #22
    2c28:	08010300 	stmdaeq	r1, {r8, r9}
    2c2c:	000000aa 	andeq	r0, r0, sl, lsr #1
    2c30:	007f0404 	rsbseq	r0, pc, r4, lsl #8
    2c34:	72050000 	andvc	r0, r5, #0
    2c38:	06000000 	streq	r0, [r0], -r0
    2c3c:	00000749 	andeq	r0, r0, r9, asr #14
    2c40:	94200201 	strtls	r0, [r0], #-513	; 0x201
    2c44:	00440000 	subeq	r0, r4, r0
    2c48:	9c010000 	stcls	0, cr0, [r1], {-0}
    2c4c:	00000108 	andeq	r0, r0, r8, lsl #2
    2c50:	00637007 	rsbeq	r7, r3, r7
    2c54:	002c0201 	eoreq	r0, ip, r1, lsl #4
    2c58:	0d360000 	ldceq	0, cr0, [r6, #-0]
    2c5c:	f2080000 	vhadd.s8	d0, d8, d0
    2c60:	18000000 	stmdane	r0, {}	; <UNPREDICTABLE>
    2c64:	05000001 	streq	r0, [r0, #-1]
    2c68:	00a02003 	adceq	r2, r0, r3
    2c6c:	94300900 	ldrtls	r0, [r0], #-2304	; 0x900
    2c70:	011d0000 	tsteq	sp, r0
    2c74:	500a0000 	andpl	r0, sl, r0
    2c78:	24000094 	strcs	r0, [r0], #-148	; 0x94
    2c7c:	fe000001 	cdp2	0, 0, cr0, cr0, cr1, {0}
    2c80:	0b000000 	bleq	2c88 <__code_start__-0x5378>
    2c84:	32015301 	andcc	r5, r1, #67108864	; 0x4000000
    2c88:	0552010b 	ldrbeq	r0, [r2, #-267]	; 0x10b
    2c8c:	00a02003 	adceq	r2, r0, r3
    2c90:	51010b00 	tstpl	r1, r0, lsl #22
    2c94:	a0740305 	rsbsge	r0, r4, r5, lsl #6
    2c98:	010b0000 	mrseq	r0, (UNDEF: 11)
    2c9c:	38030550 	stmdacc	r3, {r4, r6, r8, sl}
    2ca0:	0b0000a0 	bleq	2f28 <__code_start__-0x50d8>
    2ca4:	02047d02 	andeq	r7, r4, #2, 26	; 0x80
    2ca8:	020b0074 	andeq	r0, fp, #116	; 0x74
    2cac:	0305007d 	movweq	r0, #20605	; 0x507d
    2cb0:	0000a098 	muleq	r0, r8, r0
    2cb4:	94540900 	ldrbls	r0, [r4], #-2304	; 0x900
    2cb8:	013a0000 	teqeq	sl, r0
    2cbc:	0c000000 	stceq	0, cr0, [r0], {-0}
    2cc0:	00000072 	andeq	r0, r0, r2, ror r0
    2cc4:	00000118 	andeq	r0, r0, r8, lsl r1
    2cc8:	00006b0d 	andeq	r6, r0, sp, lsl #22
    2ccc:	05001500 	streq	r1, [r0, #-1280]	; 0x500
    2cd0:	00000108 	andeq	r0, r0, r8, lsl #2
    2cd4:	0002100e 	andeq	r1, r2, lr
    2cd8:	0f1e0200 	svceq	0x001e0200
    2cdc:	00000563 	andeq	r0, r0, r3, ror #10
    2ce0:	00252902 	eoreq	r2, r5, r2, lsl #18
    2ce4:	013a0000 	teqeq	sl, r0
    2ce8:	79100000 	ldmdbvc	r0, {}	; <UNPREDICTABLE>
    2cec:	11000000 	mrsne	r0, (UNDEF: 0)
    2cf0:	00af0e00 	adceq	r0, pc, r0, lsl #28
    2cf4:	65020000 	strvs	r0, [r2, #-0]
    2cf8:	00013e00 	andeq	r3, r1, r0, lsl #28
    2cfc:	24000400 	strcs	r0, [r0], #-1024	; 0x400
    2d00:	0400000e 	streq	r0, [r0], #-14
    2d04:	00050901 	andeq	r0, r5, r1, lsl #18
    2d08:	076c0100 	strbeq	r0, [ip, -r0, lsl #2]!
    2d0c:	05740000 	ldrbeq	r0, [r4, #-0]!
    2d10:	94640000 	strbtls	r0, [r4], #-0
    2d14:	00440000 	subeq	r0, r4, r0
    2d18:	0c0f0000 	stceq	0, cr0, [pc], {-0}
    2d1c:	04020000 	streq	r0, [r2], #-0
    2d20:	746e6905 	strbtvc	r6, [lr], #-2309	; 0x905
    2d24:	07040300 	streq	r0, [r4, -r0, lsl #6]
    2d28:	00000194 	muleq	r0, r4, r1
    2d2c:	a3060103 	movwge	r0, #24835	; 0x6103
    2d30:	03000000 	movweq	r0, #0
    2d34:	00e80502 	rsceq	r0, r8, r2, lsl #10
    2d38:	04030000 	streq	r0, [r3], #-0
    2d3c:	0001b905 	andeq	fp, r1, r5, lsl #18
    2d40:	05080300 	streq	r0, [r8, #-768]	; 0x300
    2d44:	000001b4 			; <UNDEFINED> instruction: 0x000001b4
    2d48:	a1080103 	tstge	r8, r3, lsl #2
    2d4c:	03000000 	movweq	r0, #0
    2d50:	00c70702 	sbceq	r0, r7, r2, lsl #14
    2d54:	04030000 	streq	r0, [r3], #-0
    2d58:	00018f07 	andeq	r8, r1, r7, lsl #30
    2d5c:	07080300 	streq	r0, [r8, -r0, lsl #6]
    2d60:	0000018a 	andeq	r0, r0, sl, lsl #3
    2d64:	ab070403 	blge	1c3d78 <__bss_end__+0x1b9820>
    2d68:	03000001 	movweq	r0, #1
    2d6c:	00aa0801 	adceq	r0, sl, r1, lsl #16
    2d70:	04040000 	streq	r0, [r4], #-0
    2d74:	0000007f 	andeq	r0, r0, pc, ror r0
    2d78:	00007205 	andeq	r7, r0, r5, lsl #4
    2d7c:	075f0600 	ldrbeq	r0, [pc, -r0, lsl #12]
    2d80:	02010000 	andeq	r0, r1, #0
    2d84:	00009464 	andeq	r9, r0, r4, ror #8
    2d88:	00000044 	andeq	r0, r0, r4, asr #32
    2d8c:	01089c01 	tsteq	r8, r1, lsl #24
    2d90:	70070000 	andvc	r0, r7, r0
    2d94:	02010063 	andeq	r0, r1, #99	; 0x63
    2d98:	0000002c 	andeq	r0, r0, ip, lsr #32
    2d9c:	00000d54 	andeq	r0, r0, r4, asr sp
    2da0:	0000f208 	andeq	pc, r0, r8, lsl #4
    2da4:	00011800 	andeq	r1, r1, r0, lsl #16
    2da8:	a0030500 	andge	r0, r3, r0, lsl #10
    2dac:	090000a0 	stmdbeq	r0, {r5, r7}
    2db0:	00009474 	andeq	r9, r0, r4, ror r4
    2db4:	0000011d 	andeq	r0, r0, sp, lsl r1
    2db8:	0094940a 	addseq	r9, r4, sl, lsl #8
    2dbc:	00012400 	andeq	r2, r1, r0, lsl #8
    2dc0:	0000fe00 	andeq	pc, r0, r0, lsl #28
    2dc4:	53010b00 	movwpl	r0, #6912	; 0x1b00
    2dc8:	010b3201 	tsteq	fp, r1, lsl #4
    2dcc:	a0030552 	andge	r0, r3, r2, asr r5
    2dd0:	0b0000a0 	bleq	3058 <__code_start__-0x4fa8>
    2dd4:	03055101 	movweq	r5, #20737	; 0x5101
    2dd8:	0000a0b0 	strheq	sl, [r0], -r0
    2ddc:	0550010b 	ldrbeq	r0, [r0, #-267]	; 0x10b
    2de0:	00a03803 	adceq	r3, r0, r3, lsl #16
    2de4:	7d020b00 	vstrvc	d0, [r2, #-0]
    2de8:	00740204 	rsbseq	r0, r4, r4, lsl #4
    2dec:	007d020b 	rsbseq	r0, sp, fp, lsl #4
    2df0:	a0d40305 	sbcsge	r0, r4, r5, lsl #6
    2df4:	09000000 	stmdbeq	r0, {}	; <UNPREDICTABLE>
    2df8:	00009498 	muleq	r0, r8, r4
    2dfc:	0000013a 	andeq	r0, r0, sl, lsr r1
    2e00:	00720c00 	rsbseq	r0, r2, r0, lsl #24
    2e04:	01180000 	tsteq	r8, r0
    2e08:	6b0d0000 	blvs	342e10 <__bss_end__+0x3388b8>
    2e0c:	0c000000 	stceq	0, cr0, [r0], {-0}
    2e10:	01080500 	tsteq	r8, r0, lsl #10
    2e14:	100e0000 	andne	r0, lr, r0
    2e18:	02000002 	andeq	r0, r0, #2
    2e1c:	05630f1e 	strbeq	r0, [r3, #-3870]!	; 0xf1e
    2e20:	29020000 	stmdbcs	r2, {}	; <UNPREDICTABLE>
    2e24:	00000025 	andeq	r0, r0, r5, lsr #32
    2e28:	0000013a 	andeq	r0, r0, sl, lsr r1
    2e2c:	00007910 	andeq	r7, r0, r0, lsl r9
    2e30:	0e001100 	adfeqs	f1, f0, f0
    2e34:	000000af 	andeq	r0, r0, pc, lsr #1
    2e38:	3e006502 	cfsh32cc	mvfx6, mvfx0, #2
    2e3c:	04000001 	streq	r0, [r0], #-1
    2e40:	000efc00 	andeq	pc, lr, r0, lsl #24
    2e44:	09010400 	stmdbeq	r1, {sl}
    2e48:	01000005 	tsteq	r0, r5
    2e4c:	0000078e 	andeq	r0, r0, lr, lsl #15
    2e50:	00000574 	andeq	r0, r0, r4, ror r5
    2e54:	000094a8 	andeq	r9, r0, r8, lsr #9
    2e58:	00000044 	andeq	r0, r0, r4, asr #32
    2e5c:	00000cb6 			; <UNDEFINED> instruction: 0x00000cb6
    2e60:	69050402 	stmdbvs	r5, {r1, sl}
    2e64:	0300746e 	movweq	r7, #1134	; 0x46e
    2e68:	01940704 	orrseq	r0, r4, r4, lsl #14
    2e6c:	01030000 	mrseq	r0, (UNDEF: 3)
    2e70:	0000a306 	andeq	sl, r0, r6, lsl #6
    2e74:	05020300 	streq	r0, [r2, #-768]	; 0x300
    2e78:	000000e8 	andeq	r0, r0, r8, ror #1
    2e7c:	b9050403 	stmdblt	r5, {r0, r1, sl}
    2e80:	03000001 	movweq	r0, #1
    2e84:	01b40508 			; <UNDEFINED> instruction: 0x01b40508
    2e88:	01030000 	mrseq	r0, (UNDEF: 3)
    2e8c:	0000a108 	andeq	sl, r0, r8, lsl #2
    2e90:	07020300 	streq	r0, [r2, -r0, lsl #6]
    2e94:	000000c7 	andeq	r0, r0, r7, asr #1
    2e98:	8f070403 	svchi	0x00070403
    2e9c:	03000001 	movweq	r0, #1
    2ea0:	018a0708 	orreq	r0, sl, r8, lsl #14
    2ea4:	04030000 	streq	r0, [r3], #-0
    2ea8:	0001ab07 	andeq	sl, r1, r7, lsl #22
    2eac:	08010300 	stmdaeq	r1, {r8, r9}
    2eb0:	000000aa 	andeq	r0, r0, sl, lsr #1
    2eb4:	007f0404 	rsbseq	r0, pc, r4, lsl #8
    2eb8:	72050000 	andvc	r0, r5, #0
    2ebc:	06000000 	streq	r0, [r0], -r0
    2ec0:	000007b9 			; <UNDEFINED> instruction: 0x000007b9
    2ec4:	94a80201 	strtls	r0, [r8], #513	; 0x201
    2ec8:	00440000 	subeq	r0, r4, r0
    2ecc:	9c010000 	stcls	0, cr0, [r1], {-0}
    2ed0:	00000108 	andeq	r0, r0, r8, lsl #2
    2ed4:	00637007 	rsbeq	r7, r3, r7
    2ed8:	002c0201 	eoreq	r0, ip, r1, lsl #4
    2edc:	0d720000 	ldcleq	0, cr0, [r2, #-0]
    2ee0:	f2080000 	vhadd.s8	d0, d8, d0
    2ee4:	18000000 	stmdane	r0, {}	; <UNPREDICTABLE>
    2ee8:	05000001 	streq	r0, [r0, #-1]
    2eec:	00a0dc03 	adceq	sp, r0, r3, lsl #24
    2ef0:	94b80900 	ldrtls	r0, [r8], #2304	; 0x900
    2ef4:	011d0000 	tsteq	sp, r0
    2ef8:	d80a0000 	stmdale	sl, {}	; <UNPREDICTABLE>
    2efc:	24000094 	strcs	r0, [r0], #-148	; 0x94
    2f00:	fe000001 	cdp2	0, 0, cr0, cr0, cr1, {0}
    2f04:	0b000000 	bleq	2f0c <__code_start__-0x50f4>
    2f08:	32015301 	andcc	r5, r1, #67108864	; 0x4000000
    2f0c:	0552010b 	ldrbeq	r0, [r2, #-267]	; 0x10b
    2f10:	00a0dc03 	adceq	sp, r0, r3, lsl #24
    2f14:	51010b00 	tstpl	r1, r0, lsl #22
    2f18:	a0fc0305 	rscsge	r0, ip, r5, lsl #6
    2f1c:	010b0000 	mrseq	r0, (UNDEF: 11)
    2f20:	38030550 	stmdacc	r3, {r4, r6, r8, sl}
    2f24:	0b0000a0 	bleq	31ac <__code_start__-0x4e54>
    2f28:	02047d02 	andeq	r7, r4, #2, 26	; 0x80
    2f2c:	020b0074 	andeq	r0, fp, #116	; 0x74
    2f30:	0305007d 	movweq	r0, #20605	; 0x507d
    2f34:	0000a128 	andeq	sl, r0, r8, lsr #2
    2f38:	94dc0900 	ldrbls	r0, [ip], #2304	; 0x900
    2f3c:	013a0000 	teqeq	sl, r0
    2f40:	0c000000 	stceq	0, cr0, [r0], {-0}
    2f44:	00000072 	andeq	r0, r0, r2, ror r0
    2f48:	00000118 	andeq	r0, r0, r8, lsl r1
    2f4c:	00006b0d 	andeq	r6, r0, sp, lsl #22
    2f50:	05001c00 	streq	r1, [r0, #-3072]	; 0xc00
    2f54:	00000108 	andeq	r0, r0, r8, lsl #2
    2f58:	0002100e 	andeq	r1, r2, lr
    2f5c:	0f1e0200 	svceq	0x001e0200
    2f60:	00000563 	andeq	r0, r0, r3, ror #10
    2f64:	00252902 	eoreq	r2, r5, r2, lsl #18
    2f68:	013a0000 	teqeq	sl, r0
    2f6c:	79100000 	ldmdbvc	r0, {}	; <UNPREDICTABLE>
    2f70:	11000000 	mrsne	r0, (UNDEF: 0)
    2f74:	00af0e00 	adceq	r0, pc, r0, lsl #28
    2f78:	65020000 	strvs	r0, [r2, #-0]
    2f7c:	00009800 	andeq	r9, r0, r0, lsl #16
    2f80:	d4000400 	strle	r0, [r0], #-1024	; 0x400
    2f84:	0400000f 	streq	r0, [r0], #-15
    2f88:	00050901 	andeq	r0, r5, r1, lsl #18
    2f8c:	07d60100 	ldrbeq	r0, [r6, r0, lsl #2]
    2f90:	05740000 	ldrbeq	r0, [r4, #-0]!
    2f94:	94ec0000 	strbtls	r0, [ip], #0
    2f98:	00080000 	andeq	r0, r8, r0
    2f9c:	0d660000 	stcleq	0, cr0, [r6, #-0]
    2fa0:	04020000 	streq	r0, [r2], #-0
    2fa4:	746e6905 	strbtvc	r6, [lr], #-2309	; 0x905
    2fa8:	07040300 	streq	r0, [r4, -r0, lsl #6]
    2fac:	00000194 	muleq	r0, r4, r1
    2fb0:	a3060103 	movwge	r0, #24835	; 0x6103
    2fb4:	03000000 	movweq	r0, #0
    2fb8:	00e80502 	rsceq	r0, r8, r2, lsl #10
    2fbc:	04030000 	streq	r0, [r3], #-0
    2fc0:	0001b905 	andeq	fp, r1, r5, lsl #18
    2fc4:	05080300 	streq	r0, [r8, #-768]	; 0x300
    2fc8:	000001b4 			; <UNDEFINED> instruction: 0x000001b4
    2fcc:	a1080103 	tstge	r8, r3, lsl #2
    2fd0:	03000000 	movweq	r0, #0
    2fd4:	00c70702 	sbceq	r0, r7, r2, lsl #14
    2fd8:	04030000 	streq	r0, [r3], #-0
    2fdc:	00018f07 	andeq	r8, r1, r7, lsl #30
    2fe0:	07080300 	streq	r0, [r8, -r0, lsl #6]
    2fe4:	0000018a 	andeq	r0, r0, sl, lsl #3
    2fe8:	ab070403 	blge	1c3ffc <__bss_end__+0x1b9aa4>
    2fec:	03000001 	movweq	r0, #1
    2ff0:	00aa0801 	adceq	r0, sl, r1, lsl #16
    2ff4:	f6040000 			; <UNDEFINED> instruction: 0xf6040000
    2ff8:	01000006 	tsteq	r0, r6
    2ffc:	0094ec04 	addseq	lr, r4, r4, lsl #24
    3000:	00000400 	andeq	r0, r0, r0, lsl #8
    3004:	049c0100 	ldreq	r0, [ip], #256	; 0x100
    3008:	000006a0 	andeq	r0, r0, r0, lsr #13
    300c:	94f00501 	ldrbtls	r0, [r0], #1281	; 0x501
    3010:	00040000 	andeq	r0, r4, r0
    3014:	9c010000 	stcls	0, cr0, [r1], {-0}
    3018:	0001d700 	andeq	sp, r1, r0, lsl #14
    301c:	16000400 	strne	r0, [r0], -r0, lsl #8
    3020:	04000010 	streq	r0, [r0], #-16
    3024:	00050901 	andeq	r0, r5, r1, lsl #18
    3028:	08920100 	ldmeq	r2, {r8}
    302c:	05740000 	ldrbeq	r0, [r4, #-0]!
    3030:	94f40000 	ldrbtls	r0, [r4], #0
    3034:	006c0000 	rsbeq	r0, ip, r0
    3038:	0db10000 	ldceq	0, cr0, [r1]
    303c:	04020000 	streq	r0, [r2], #-0
    3040:	746e6905 	strbtvc	r6, [lr], #-2309	; 0x905
    3044:	07040300 	streq	r0, [r4, -r0, lsl #6]
    3048:	00000194 	muleq	r0, r4, r1
    304c:	a3060103 	movwge	r0, #24835	; 0x6103
    3050:	03000000 	movweq	r0, #0
    3054:	00e80502 	rsceq	r0, r8, r2, lsl #10
    3058:	04030000 	streq	r0, [r3], #-0
    305c:	0001b905 	andeq	fp, r1, r5, lsl #18
    3060:	05080300 	streq	r0, [r8, #-768]	; 0x300
    3064:	000001b4 			; <UNDEFINED> instruction: 0x000001b4
    3068:	a1080103 	tstge	r8, r3, lsl #2
    306c:	03000000 	movweq	r0, #0
    3070:	00c70702 	sbceq	r0, r7, r2, lsl #14
    3074:	04030000 	streq	r0, [r3], #-0
    3078:	00018f07 	andeq	r8, r1, r7, lsl #30
    307c:	07080300 	streq	r0, [r8, -r0, lsl #6]
    3080:	0000018a 	andeq	r0, r0, sl, lsl #3
    3084:	ab070403 	blge	1c4098 <__bss_end__+0x1b9b40>
    3088:	03000001 	movweq	r0, #1
    308c:	00aa0801 	adceq	r0, sl, r1, lsl #16
    3090:	04040000 	streq	r0, [r4], #-0
    3094:	00f01402 	rscseq	r1, r0, r2, lsl #8
    3098:	ab050000 	blge	1430a0 <__bss_end__+0x138b48>
    309c:	80000008 	andhi	r0, r0, r8
    30a0:	028082e4 	addeq	r8, r0, #228, 4	; 0x4000000e
    30a4:	00083105 	andeq	r3, r8, r5, lsl #2
    30a8:	82e48000 	rschi	r8, r4, #0
    30ac:	d8050280 	stmdale	r5, {r7, r9}
    30b0:	84000008 	strhi	r0, [r0], #-8
    30b4:	028082e4 	addeq	r8, r0, #228, 4	; 0x4000000e
    30b8:	0007f305 	andeq	pc, r7, r5, lsl #6
    30bc:	82e48800 	rschi	r8, r4, #0, 16
    30c0:	14050280 	strne	r0, [r5], #-640	; 0x280
    30c4:	8c000008 	stchi	0, cr0, [r0], {8}
    30c8:	028082e4 	addeq	r8, r0, #228, 4	; 0x4000000e
    30cc:	00085505 	andeq	r5, r8, r5, lsl #10
    30d0:	82e49000 	rschi	r9, r4, #0
    30d4:	63050280 	movwvs	r0, #21120	; 0x5280
    30d8:	94000008 	strls	r0, [r0], #-8
    30dc:	028082e4 	addeq	r8, r0, #228, 4	; 0x4000000e
    30e0:	00084305 	andeq	r4, r8, r5, lsl #6
    30e4:	82e49800 	rschi	r9, r4, #0, 16
    30e8:	ba050280 	blt	143af0 <__bss_end__+0x139598>
    30ec:	9c000008 	stcls	0, cr0, [r0], {8}
    30f0:	028082e4 	addeq	r8, r0, #228, 4	; 0x4000000e
    30f4:	0008c905 	andeq	ip, r8, r5, lsl #18
    30f8:	82e4a000 	rschi	sl, r4, #0
    30fc:	01050280 	smlabbeq	r5, r0, r2, r0
    3100:	a4000008 	strge	r0, [r0], #-8
    3104:	028082e4 	addeq	r8, r0, #228, 4	; 0x4000000e
    3108:	04020600 	streq	r0, [r2], #-1536	; 0x600
    310c:	1b010000 	blne	43114 <__bss_end__+0x38bbc>
    3110:	000094f4 	strdeq	r9, [r0], -r4
    3114:	0000006c 	andeq	r0, r0, ip, rrx
    3118:	01a59c01 			; <UNDEFINED> instruction: 0x01a59c01
    311c:	20070000 	andcs	r0, r7, r0
    3120:	01000008 	tsteq	r0, r8
    3124:	00002c23 	andeq	r2, r0, r3, lsr #24
    3128:	08710700 	ldmdaeq	r1!, {r8, r9, sl}^
    312c:	24010000 	strcs	r0, [r1], #-0
    3130:	0000002c 	andeq	r0, r0, ip, lsr #32
    3134:	74736408 	ldrbtvc	r6, [r3], #-1032	; 0x408
    3138:	a5270100 	strge	r0, [r7, #-256]!	; 0x100
    313c:	00000001 	andeq	r0, r0, r1
    3140:	63727309 	cmnvs	r2, #603979776	; 0x24000000
    3144:	a5280100 	strge	r0, [r8, #-256]!	; 0x100
    3148:	0a000001 	beq	3154 <__code_start__-0x4eac>
    314c:	2901006e 	stmdbcs	r1, {r1, r2, r3, r5, r6}
    3150:	0000002c 	andeq	r0, r0, ip, lsr #32
    3154:	280b5001 	stmdacs	fp, {r0, ip, lr}
    3158:	24000095 	strcs	r0, [r0], #-149	; 0x95
    315c:	58000000 	stmdapl	r0, {}	; <UNPREDICTABLE>
    3160:	0c000001 	stceq	0, cr0, [r0], {1}
    3164:	2a010069 	bcs	43310 <__bss_end__+0x38db8>
    3168:	00000025 	andeq	r0, r0, r5, lsr #32
    316c:	00000d90 	muleq	r0, r0, sp
    3170:	94fc0d00 	ldrbtls	r0, [ip], #3328	; 0xd00
    3174:	01c10000 	biceq	r0, r1, r0
    3178:	080e0000 	stmdaeq	lr, {}	; <UNPREDICTABLE>
    317c:	c8000095 	stmdagt	r0, {r0, r2, r4, r7}
    3180:	7e000001 	cdpvc	0, 0, cr0, cr0, cr1, {0}
    3184:	0f000001 	svceq	0x00000001
    3188:	09025101 	stmdbeq	r2, {r0, r8, ip, lr}
    318c:	50010fff 	strdpl	r0, [r1], -pc	; <UNPREDICTABLE>
    3190:	b21c0c05 	andslt	r0, ip, #1280	; 0x500
    3194:	0e002000 	cdpeq	0, 0, cr2, cr0, cr0, {0}
    3198:	00009514 	andeq	r9, r0, r4, lsl r5
    319c:	000001c8 	andeq	r0, r0, r8, asr #3
    31a0:	0000019b 	muleq	r0, fp, r1
    31a4:	0251010f 	subseq	r0, r1, #-1073741821	; 0xc0000003
    31a8:	010fff09 	tsteq	pc, r9, lsl #30
    31ac:	200c0550 	andcs	r0, ip, r0, asr r5
    31b0:	002000b2 	strhteq	r0, [r0], -r2
    31b4:	0095180d 	addseq	r1, r5, sp, lsl #16
    31b8:	0001c100 	andeq	ip, r1, r0, lsl #2
    31bc:	04100000 	ldreq	r0, [r0], #-0
    31c0:	0000002c 	andeq	r0, r0, ip, lsr #32
    31c4:	00082007 	andeq	r2, r8, r7
    31c8:	2c230100 	stfcss	f0, [r3], #-0
    31cc:	07000000 	streq	r0, [r0, -r0]
    31d0:	00000871 	andeq	r0, r0, r1, ror r8
    31d4:	002c2401 	eoreq	r2, ip, r1, lsl #8
    31d8:	86110000 	ldrhi	r0, [r1], -r0
    31dc:	03000008 	movweq	r0, #8
    31e0:	08b41289 	ldmeq	r4!, {r0, r3, r7, r9, ip}
    31e4:	9b030000 	blls	c31ec <__bss_end__+0xb8c94>
    31e8:	00002c13 	andeq	r2, r0, r3, lsl ip
    31ec:	002c1300 	eoreq	r1, ip, r0, lsl #6
    31f0:	00000000 	andeq	r0, r0, r0
    31f4:	000001ad 	andeq	r0, r0, sp, lsr #3
    31f8:	111c0004 	tstne	ip, r4
    31fc:	01040000 	mrseq	r0, (UNDEF: 4)
    3200:	00000509 	andeq	r0, r0, r9, lsl #10
    3204:	0008f401 	andeq	pc, r8, r1, lsl #8
    3208:	00057400 	andeq	r7, r5, r0, lsl #8
	...
    3214:	000e7e00 	andeq	r7, lr, r0, lsl #28
    3218:	05040200 	streq	r0, [r4, #-512]	; 0x200
    321c:	00746e69 	rsbseq	r6, r4, r9, ror #28
    3220:	94070403 	strls	r0, [r7], #-1027	; 0x403
    3224:	03000001 	movweq	r0, #1
    3228:	00a30601 	adceq	r0, r3, r1, lsl #12
    322c:	02030000 	andeq	r0, r3, #0
    3230:	0000e805 	andeq	lr, r0, r5, lsl #16
    3234:	05040300 	streq	r0, [r4, #-768]	; 0x300
    3238:	000001b9 			; <UNDEFINED> instruction: 0x000001b9
    323c:	b4050803 	strlt	r0, [r5], #-2051	; 0x803
    3240:	03000001 	movweq	r0, #1
    3244:	00a10801 	adceq	r0, r1, r1, lsl #16
    3248:	02030000 	andeq	r0, r3, #0
    324c:	0000c707 	andeq	ip, r0, r7, lsl #14
    3250:	07040300 	streq	r0, [r4, -r0, lsl #6]
    3254:	0000018f 	andeq	r0, r0, pc, lsl #3
    3258:	8a070803 	bhi	1c526c <__bss_end__+0x1bad14>
    325c:	03000001 	movweq	r0, #1
    3260:	01ab0704 			; <UNDEFINED> instruction: 0x01ab0704
    3264:	01030000 	mrseq	r0, (UNDEF: 3)
    3268:	0000aa08 	andeq	sl, r0, r8, lsl #20
    326c:	08e60400 	stmiaeq	r6!, {sl}^
    3270:	0e010000 	cdpeq	0, 0, cr0, cr1, cr0, {0}
    3274:	00000025 	andeq	r0, r0, r5, lsr #32
    3278:	00009560 	andeq	r9, r0, r0, ror #10
    327c:	00000018 	andeq	r0, r0, r8, lsl r0
    3280:	00a29c01 	adceq	r9, r2, r1, lsl #24
    3284:	c9050000 	stmdbgt	r5, {}	; <UNPREDICTABLE>
    3288:	01000004 	tsteq	r0, r4
    328c:	00002c0f 	andeq	r2, r0, pc, lsl #24
    3290:	000daf00 	andeq	sl, sp, r0, lsl #30
    3294:	28060000 	stmdacs	r6, {}	; <UNPREDICTABLE>
    3298:	01000009 	tsteq	r0, r9
    329c:	00957817 	addseq	r7, r5, r7, lsl r8
    32a0:	00001400 	andeq	r1, r0, r0, lsl #8
    32a4:	c79c0100 	ldrgt	r0, [ip, r0, lsl #2]
    32a8:	05000000 	streq	r0, [r0, #-0]
    32ac:	000004c9 	andeq	r0, r0, r9, asr #9
    32b0:	002c1801 	eoreq	r1, ip, r1, lsl #16
    32b4:	0dce0000 	stcleq	0, cr0, [lr]
    32b8:	06000000 	streq	r0, [r0], -r0
    32bc:	000006c8 	andeq	r0, r0, r8, asr #13
    32c0:	958c1f01 	strls	r1, [ip, #3841]	; 0xf01
    32c4:	00480000 	subeq	r0, r8, r0
    32c8:	9c010000 	stcls	0, cr0, [r1], {-0}
    32cc:	00000177 	andeq	r0, r0, r7, ror r1
    32d0:	00094307 	andeq	r4, r9, r7, lsl #6
    32d4:	772a0100 	strvc	r0, [sl, -r0, lsl #2]!
    32d8:	1c000001 	stcne	0, cr0, [r0], {1}
    32dc:	07201000 	streq	r1, [r0, -r0]!
    32e0:	00000920 	andeq	r0, r0, r0, lsr #18
    32e4:	01772b01 	cmneq	r7, r1, lsl #22
    32e8:	00240000 	eoreq	r0, r4, r0
    32ec:	37072010 	smladcc	r7, r0, r0, r2
    32f0:	01000009 	tsteq	r0, r9
    32f4:	0001772c 	andeq	r7, r1, ip, lsr #14
    32f8:	00000000 	andeq	r0, r0, r0
    32fc:	0907085a 	stmdbeq	r7, {r1, r3, r4, r6, fp}
    3300:	2d010000 	stccs	0, cr0, [r1, #-0]
    3304:	00000177 	andeq	r0, r0, r7, ror r1
    3308:	95940920 	ldrls	r0, [r4, #2336]	; 0x920
    330c:	00790000 	rsbseq	r0, r9, r0
    3310:	a0090000 	andge	r0, r9, r0
    3314:	a2000095 	andge	r0, r0, #149	; 0x95
    3318:	0a000000 	beq	3320 <__code_start__-0x4ce0>
    331c:	000095a8 	andeq	r9, r0, r8, lsr #11
    3320:	0000018d 	andeq	r0, r0, sp, lsl #3
    3324:	0000013a 	andeq	r0, r0, sl, lsr r1
    3328:	0150010b 	cmpeq	r0, fp, lsl #2
    332c:	b40a004e 	strlt	r0, [sl], #-78	; 0x4e
    3330:	9e000095 	mcrls	0, 0, r0, cr0, cr5, {4}
    3334:	5a000001 	bpl	3340 <__code_start__-0x4cc0>
    3338:	0b000001 	bleq	3344 <__code_start__-0x4cbc>
    333c:	0c055101 	stfeqs	f5, [r5], {1}
    3340:	5a000001 	bpl	334c <__code_start__-0x4cb4>
    3344:	0550010b 	ldrbeq	r0, [r0, #-267]	; 0x10b
    3348:	1000240c 	andne	r2, r0, ip, lsl #8
    334c:	c00c0020 	andgt	r0, ip, r0, lsr #32
    3350:	9e000095 	mcrls	0, 0, r0, cr0, cr5, {4}
    3354:	0b000001 	bleq	3360 <__code_start__-0x4ca0>
    3358:	0c055101 	stfeqs	f5, [r5], {1}
    335c:	5a000020 	bpl	33e4 <__code_start__-0x4c1c>
    3360:	0550010b 	ldrbeq	r0, [r0, #-267]	; 0x10b
    3364:	10001c0c 	andne	r1, r0, ip, lsl #24
    3368:	0d000020 	stceq	0, cr0, [r0, #-128]	; 0xffffff80
    336c:	00000025 	andeq	r0, r0, r5, lsr #32
    3370:	0008e908 	andeq	lr, r8, r8, lsl #18
    3374:	880d0100 	stmdahi	sp, {r8}
    3378:	10000001 	andne	r0, r0, r1
    337c:	00002c0d 	andeq	r2, r0, sp, lsl #24
    3380:	06d30e00 	ldrbeq	r0, [r3], r0, lsl #28
    3384:	4f020000 	svcmi	0x00020000
    3388:	0000019e 	muleq	r0, lr, r1
    338c:	00002c0f 	andeq	r2, r0, pc, lsl #24
    3390:	b4100000 	ldrlt	r0, [r0], #-0
    3394:	02000008 	andeq	r0, r0, #8
    3398:	002c0f9b 	mlaeq	ip, fp, pc, r0	; <UNPREDICTABLE>
    339c:	2c0f0000 	stccs	0, cr0, [pc], {-0}
    33a0:	00000000 	andeq	r0, r0, r0
    33a4:	0001f700 	andeq	pc, r1, r0, lsl #14
    33a8:	0a000400 	beq	43b0 <__code_start__-0x3c50>
    33ac:	04000012 	streq	r0, [r0], #-18
    33b0:	00050901 	andeq	r0, r5, r1, lsl #18
    33b4:	09680100 	stmdbeq	r8!, {r8}^
    33b8:	05740000 	ldrbeq	r0, [r4, #-0]!
    33bc:	95d40000 	ldrbls	r0, [r4]
    33c0:	00980000 	addseq	r0, r8, r0
    33c4:	0f240000 	svceq	0x00240000
    33c8:	04020000 	streq	r0, [r2], #-0
    33cc:	746e6905 	strbtvc	r6, [lr], #-2309	; 0x905
    33d0:	07040300 	streq	r0, [r4, -r0, lsl #6]
    33d4:	00000194 	muleq	r0, r4, r1
    33d8:	a3060103 	movwge	r0, #24835	; 0x6103
    33dc:	03000000 	movweq	r0, #0
    33e0:	00e80502 	rsceq	r0, r8, r2, lsl #10
    33e4:	04030000 	streq	r0, [r3], #-0
    33e8:	0001b905 	andeq	fp, r1, r5, lsl #18
    33ec:	05080300 	streq	r0, [r8, #-768]	; 0x300
    33f0:	000001b4 			; <UNDEFINED> instruction: 0x000001b4
    33f4:	a1080103 	tstge	r8, r3, lsl #2
    33f8:	03000000 	movweq	r0, #0
    33fc:	00c70702 	sbceq	r0, r7, r2, lsl #14
    3400:	04030000 	streq	r0, [r3], #-0
    3404:	00018f07 	andeq	r8, r1, r7, lsl #30
    3408:	07080300 	streq	r0, [r8, -r0, lsl #6]
    340c:	0000018a 	andeq	r0, r0, sl, lsl #3
    3410:	ab070403 	blge	1c4424 <__bss_end__+0x1b9ecc>
    3414:	03000001 	movweq	r0, #1
    3418:	00aa0801 	adceq	r0, sl, r1, lsl #16
    341c:	86040000 	strhi	r0, [r4], -r0
    3420:	01000009 	tsteq	r0, r9
    3424:	0095d405 	addseq	sp, r5, r5, lsl #8
    3428:	00001c00 	andeq	r1, r0, r0, lsl #24
    342c:	9e9c0100 	fmllse	f0, f4, f0
    3430:	05000000 	streq	r0, [r0, #-0]
    3434:	00000980 	andeq	r0, r0, r0, lsl #19
    3438:	002c0501 	eoreq	r0, ip, r1, lsl #10
    343c:	0df80000 	ldcleq	0, cr0, [r8]
    3440:	06000000 	streq	r0, [r0], -r0
    3444:	0000094b 	andeq	r0, r0, fp, asr #18
    3448:	002c1101 	eoreq	r1, ip, r1, lsl #2
    344c:	95f00000 	ldrbls	r0, [r0, #0]!
    3450:	00140000 	andseq	r0, r4, r0
    3454:	9c010000 	stcls	0, cr0, [r1], {-0}
    3458:	000000cb 	andeq	r0, r0, fp, asr #1
    345c:	0095fc07 	addseq	pc, r5, r7, lsl #24
    3460:	0001de00 	andeq	sp, r1, r0, lsl #28
    3464:	50010800 	andpl	r0, r1, r0, lsl #16
    3468:	30040c05 	andcc	r0, r4, r5, lsl #24
    346c:	00002000 	andeq	r2, r0, r0
    3470:	00099c06 	andeq	r9, r9, r6, lsl #24
    3474:	2c160100 	ldfcss	f0, [r6], {-0}
    3478:	04000000 	streq	r0, [r0], #-0
    347c:	1c000096 	stcne	0, cr0, [r0], {150}	; 0x96
    3480:	01000000 	mrseq	r0, (UNDEF: 0)
    3484:	00010d9c 	muleq	r1, ip, sp
    3488:	00750900 	rsbseq	r0, r5, r0, lsl #18
    348c:	002c1a01 	eoreq	r1, ip, r1, lsl #20
    3490:	0e2c0000 	cdpeq	0, 2, cr0, cr12, cr0, {0}
    3494:	0c0a0000 	stceq	0, cr0, [sl], {-0}
    3498:	f3000096 	vqadd.u8	d0, d16, d6
    349c:	0a000001 	beq	34a8 <__code_start__-0x4b58>
    34a0:	00009610 	andeq	r9, r0, r0, lsl r6
    34a4:	0000009e 	muleq	r0, lr, r0
    34a8:	0096180a 	addseq	r1, r6, sl, lsl #16
    34ac:	0001f300 	andeq	pc, r1, r0, lsl #6
    34b0:	93040000 	movwls	r0, #16384	; 0x4000
    34b4:	01000009 	tsteq	r0, r9
    34b8:	0096201f 	addseq	r2, r6, pc, lsl r0
    34bc:	00002400 	andeq	r2, r0, r0, lsl #8
    34c0:	6b9c0100 	blvs	fe7038c8 <__bss_end__+0xfe6f9370>
    34c4:	0b000001 	bleq	34d0 <__code_start__-0x4b30>
    34c8:	01007375 	tsteq	r0, r5, ror r3
    34cc:	00002c1f 	andeq	r2, r0, pc, lsl ip
    34d0:	000e4a00 	andeq	r4, lr, r0, lsl #20
    34d4:	62720c00 	rsbsvs	r0, r2, #0, 24
    34d8:	2c200100 	stfcss	f0, [r0], #-0
    34dc:	01000000 	mrseq	r0, (UNDEF: 0)
    34e0:	96300d54 			; <UNDEFINED> instruction: 0x96300d54
    34e4:	00100000 	andseq	r0, r0, r0
    34e8:	01610000 	cmneq	r1, r0
    34ec:	72090000 	andvc	r0, r9, #0
    34f0:	22010061 	andcs	r0, r1, #97	; 0x61
    34f4:	0000002c 	andeq	r0, r0, ip, lsr #32
    34f8:	00000e68 	andeq	r0, r0, r8, ror #28
    34fc:	0096340a 	addseq	r3, r6, sl, lsl #8
    3500:	0000cb00 	andeq	ip, r0, r0, lsl #22
    3504:	2c0a0000 	stccs	0, cr0, [sl], {-0}
    3508:	cb000096 	blgt	3768 <__code_start__-0x4898>
    350c:	00000000 	andeq	r0, r0, r0
    3510:	0006d304 	andeq	sp, r6, r4, lsl #6
    3514:	44280100 	strtmi	r0, [r8], #-256	; 0x100
    3518:	14000096 	strne	r0, [r0], #-150	; 0x96
    351c:	01000000 	mrseq	r0, (UNDEF: 0)
    3520:	0001a49c 	muleq	r1, ip, r4
    3524:	736d0b00 	cmnvc	sp, #0, 22
    3528:	2c280100 	stfcss	f0, [r8], #-0
    352c:	7b000000 	blvc	3534 <__code_start__-0x4acc>
    3530:	0700000e 	streq	r0, [r0, -lr]
    3534:	00009654 	andeq	r9, r0, r4, asr r6
    3538:	0000010d 	andeq	r0, r0, sp, lsl #2
    353c:	07500108 	ldrbeq	r0, [r0, -r8, lsl #2]
    3540:	0a5001f3 	beq	1403d14 <__bss_end__+0x13f97bc>
    3544:	001e03e8 	andseq	r0, lr, r8, ror #7
    3548:	095e0400 	ldmdbeq	lr, {sl}^
    354c:	2b010000 	blcs	43554 <__bss_end__+0x38ffc>
    3550:	00009658 	andeq	r9, r0, r8, asr r6
    3554:	00000014 	andeq	r0, r0, r4, lsl r0
    3558:	01de9c01 	bicseq	r9, lr, r1, lsl #24
    355c:	730b0000 	movwvc	r0, #45056	; 0xb000
    3560:	01006365 	tsteq	r0, r5, ror #6
    3564:	00002c2b 	andeq	r2, r0, fp, lsr #24
    3568:	000e9c00 	andeq	r9, lr, r0, lsl #24
    356c:	96680700 	strbtls	r0, [r8], -r0, lsl #14
    3570:	016b0000 	cmneq	fp, r0
    3574:	01080000 	mrseq	r0, (UNDEF: 8)
    3578:	01f30750 	mvnseq	r0, r0, asr r7
    357c:	03e80a50 	mvneq	r0, #80, 20	; 0x50000
    3580:	0e00001e 	mcreq	0, 0, r0, cr0, cr14, {0}
    3584:	0000097a 	andeq	r0, r0, sl, ror r9
    3588:	002ca702 	eoreq	sl, ip, r2, lsl #14
    358c:	01f30000 	mvnseq	r0, r0
    3590:	2c0f0000 	stccs	0, cr0, [pc], {-0}
    3594:	00000000 	andeq	r0, r0, r0
    3598:	00088610 	andeq	r8, r8, r0, lsl r6
    359c:	00890200 	addeq	r0, r9, r0, lsl #4
    35a0:	00000cc5 	andeq	r0, r0, r5, asr #25
    35a4:	13000004 	movwne	r0, #4
    35a8:	01040000 	mrseq	r0, (UNDEF: 4)
    35ac:	00000d47 	andeq	r0, r0, r7, asr #26
    35b0:	000aaa0c 	andeq	sl, sl, ip, lsl #20
    35b4:	000ac500 	andeq	ip, sl, r0, lsl #10
    35b8:	0096d000 	addseq	sp, r6, r0
    35bc:	00017800 	andeq	r7, r1, r0, lsl #16
    35c0:	000fd600 	andeq	sp, pc, r0, lsl #12
    35c4:	05040200 	streq	r0, [r4, #-512]	; 0x200
    35c8:	00746e69 	rsbseq	r6, r4, r9, ror #28
    35cc:	94070403 	strls	r0, [r7], #-1027	; 0x403
    35d0:	04000001 	streq	r0, [r0], #-1
    35d4:	0000002c 	andeq	r0, r0, ip, lsr #32
    35d8:	a3060103 	movwge	r0, #24835	; 0x6103
    35dc:	03000000 	movweq	r0, #0
    35e0:	00e80502 	rsceq	r0, r8, r2, lsl #10
    35e4:	04030000 	streq	r0, [r3], #-0
    35e8:	0001b905 	andeq	fp, r1, r5, lsl #18
    35ec:	05080300 	streq	r0, [r8, #-768]	; 0x300
    35f0:	000001b4 			; <UNDEFINED> instruction: 0x000001b4
    35f4:	a1080103 	tstge	r8, r3, lsl #2
    35f8:	03000000 	movweq	r0, #0
    35fc:	00c70702 	sbceq	r0, r7, r2, lsl #14
    3600:	04030000 	streq	r0, [r3], #-0
    3604:	00018f07 	andeq	r8, r1, r7, lsl #30
    3608:	07080300 	streq	r0, [r8, -r0, lsl #6]
    360c:	0000018a 	andeq	r0, r0, sl, lsl #3
    3610:	000c5c05 	andeq	r5, ip, r5, lsl #24
    3614:	25070200 	strcs	r0, [r7, #-512]	; 0x200
    3618:	05000000 	streq	r0, [r0, #-0]
    361c:	00000c46 	andeq	r0, r0, r6, asr #24
    3620:	00462c03 	subeq	r2, r6, r3, lsl #24
    3624:	22050000 	andcs	r0, r5, #0
    3628:	0300000d 	movweq	r0, #13
    362c:	00004672 	andeq	r4, r0, r2, ror r6
    3630:	0bea0600 	bleq	ffa84e38 <__bss_end__+0xffa7a8e0>
    3634:	65040000 	strvs	r0, [r4, #-0]
    3638:	00002c01 	andeq	r2, r0, r1, lsl #24
    363c:	03040700 	movweq	r0, #18176	; 0x4700
    3640:	0000bca6 	andeq	fp, r0, r6, lsr #25
    3644:	0bd50800 	bleq	ff54564c <__bss_end__+0xff53b0f4>
    3648:	a8030000 	stmdage	r3, {}	; <UNPREDICTABLE>
    364c:	00000091 	muleq	r0, r1, r0
    3650:	000b7d08 	andeq	r7, fp, r8, lsl #26
    3654:	bca90300 	stclt	3, cr0, [r9]
    3658:	00000000 	andeq	r0, r0, r0
    365c:	00005409 	andeq	r5, r0, r9, lsl #8
    3660:	0000cc00 	andeq	ip, r0, r0, lsl #24
    3664:	00cc0a00 	sbceq	r0, ip, r0, lsl #20
    3668:	00030000 	andeq	r0, r3, r0
    366c:	ab070403 	blge	1c4680 <__bss_end__+0x1ba128>
    3670:	0b000001 	bleq	367c <__code_start__-0x4984>
    3674:	f4a30308 	vld4.8	{d0[0],d1[0],d2[0],d3[0]}, [r3], r8
    3678:	0c000000 	stceq	0, cr0, [r0], {-0}
    367c:	00000d07 	andeq	r0, r0, r7, lsl #26
    3680:	0025a503 	eoreq	sl, r5, r3, lsl #10
    3684:	0c000000 	stceq	0, cr0, [r0], {-0}
    3688:	00000d0f 	andeq	r0, r0, pc, lsl #26
    368c:	009daa03 	addseq	sl, sp, r3, lsl #20
    3690:	00040000 	andeq	r0, r4, r0
    3694:	000c9a05 	andeq	r9, ip, r5, lsl #20
    3698:	d3ab0300 			; <UNDEFINED> instruction: 0xd3ab0300
    369c:	05000000 	streq	r0, [r0, #-0]
    36a0:	00000b46 	andeq	r0, r0, r6, asr #22
    36a4:	0070af03 	rsbseq	sl, r0, r3, lsl #30
    36a8:	040d0000 	streq	r0, [sp], #-0
    36ac:	0112040e 	tsteq	r2, lr, lsl #8
    36b0:	01030000 	mrseq	r0, (UNDEF: 3)
    36b4:	0000aa08 	andeq	sl, r0, r8, lsl #20
    36b8:	01120f00 	tsteq	r2, r0, lsl #30
    36bc:	c4050000 	strgt	r0, [r5], #-0
    36c0:	0500000d 	streq	r0, [r0, #-13]
    36c4:	00006216 	andeq	r6, r0, r6, lsl r2
    36c8:	0b571000 	bleq	15c76d0 <__bss_end__+0x15bd178>
    36cc:	05180000 	ldreq	r0, [r8, #-0]
    36d0:	00017c2d 	andeq	r7, r1, sp, lsr #24
    36d4:	0cbb0c00 	ldceq	12, cr0, [fp]
    36d8:	2f050000 	svccs	0x00050000
    36dc:	0000017c 	andeq	r0, r0, ip, ror r1
    36e0:	6b5f1100 	blvs	17c7ae8 <__bss_end__+0x17bd590>
    36e4:	25300500 	ldrcs	r0, [r0, #-1280]!	; 0x500
    36e8:	04000000 	streq	r0, [r0], #-0
    36ec:	000cf20c 	andeq	pc, ip, ip, lsl #4
    36f0:	25300500 	ldrcs	r0, [r0, #-1280]!	; 0x500
    36f4:	08000000 	stmdaeq	r0, {}	; <UNPREDICTABLE>
    36f8:	000b320c 	andeq	r3, fp, ip, lsl #4
    36fc:	25300500 	ldrcs	r0, [r0, #-1280]!	; 0x500
    3700:	0c000000 	stceq	0, cr0, [r0], {-0}
    3704:	000e0b0c 	andeq	r0, lr, ip, lsl #22
    3708:	25300500 	ldrcs	r0, [r0, #-1280]!	; 0x500
    370c:	10000000 	andne	r0, r0, r0
    3710:	00785f11 	rsbseq	r5, r8, r1, lsl pc
    3714:	01823105 	orreq	r3, r2, r5, lsl #2
    3718:	00140000 	andseq	r0, r4, r0
    371c:	0129040e 	teqeq	r9, lr, lsl #8
    3720:	1e090000 	cdpne	0, 0, cr0, cr9, cr0, {0}
    3724:	92000001 	andls	r0, r0, #1
    3728:	0a000001 	beq	3734 <__code_start__-0x48cc>
    372c:	000000cc 	andeq	r0, r0, ip, asr #1
    3730:	78100000 	ldmdavc	r0, {}	; <UNPREDICTABLE>
    3734:	2400000b 	strcs	r0, [r0], #-11
    3738:	020b3505 	andeq	r3, fp, #20971520	; 0x1400000
    373c:	300c0000 	andcc	r0, ip, r0
    3740:	0500000a 	streq	r0, [r0, #-10]
    3744:	00002537 	andeq	r2, r0, r7, lsr r5
    3748:	2a0c0000 	bcs	303750 <__bss_end__+0x2f91f8>
    374c:	0500000d 	streq	r0, [r0, #-13]
    3750:	00002538 	andeq	r2, r0, r8, lsr r5
    3754:	5e0c0400 	cfcpyspl	mvf0, mvf12
    3758:	0500000a 	streq	r0, [r0, #-10]
    375c:	00002539 	andeq	r2, r0, r9, lsr r5
    3760:	fb0c0800 	blx	30576a <__bss_end__+0x2fb212>
    3764:	0500000e 	streq	r0, [r0, #-14]
    3768:	0000253a 	andeq	r2, r0, sl, lsr r5
    376c:	2a0c0c00 	bcs	306774 <__bss_end__+0x2fc21c>
    3770:	0500000c 	streq	r0, [r0, #-12]
    3774:	0000253b 	andeq	r2, r0, fp, lsr r5
    3778:	ff0c1000 			; <UNDEFINED> instruction: 0xff0c1000
    377c:	0500000b 	streq	r0, [r0, #-11]
    3780:	0000253c 	andeq	r2, r0, ip, lsr r5
    3784:	100c1400 	andne	r1, ip, r0, lsl #8
    3788:	0500000e 	streq	r0, [r0, #-14]
    378c:	0000253d 	andeq	r2, r0, sp, lsr r5
    3790:	7c0c1800 	stcvc	8, cr1, [ip], {-0}
    3794:	0500000c 	streq	r0, [r0, #-12]
    3798:	0000253e 	andeq	r2, r0, lr, lsr r5
    379c:	c20c1c00 	andgt	r1, ip, #0, 24
    37a0:	0500000e 	streq	r0, [r0, #-14]
    37a4:	0000253f 	andeq	r2, r0, pc, lsr r5
    37a8:	12002000 	andne	r2, r0, #0
    37ac:	00000a6d 	andeq	r0, r0, sp, ror #20
    37b0:	48050108 	stmdami	r5, {r3, r8}
    37b4:	0000024b 	andeq	r0, r0, fp, asr #4
    37b8:	000b190c 	andeq	r1, fp, ip, lsl #18
    37bc:	4b490500 	blmi	1244bc4 <__bss_end__+0x123a66c>
    37c0:	00000002 	andeq	r0, r0, r2
    37c4:	0009ab0c 	andeq	sl, r9, ip, lsl #22
    37c8:	4b4a0500 	blmi	1284bd0 <__bss_end__+0x127a678>
    37cc:	80000002 	andhi	r0, r0, r2
    37d0:	000db613 	andeq	fp, sp, r3, lsl r6
    37d4:	1e4c0500 	cdpne	5, 4, cr0, cr12, cr0, {0}
    37d8:	00000001 	andeq	r0, r0, r1
    37dc:	0a921301 	beq	fe4883e8 <__bss_end__+0xfe47de90>
    37e0:	4f050000 	svcmi	0x00050000
    37e4:	0000011e 	andeq	r0, r0, lr, lsl r1
    37e8:	09000104 	stmdbeq	r0, {r2, r8}
    37ec:	0000010a 	andeq	r0, r0, sl, lsl #2
    37f0:	0000025b 	andeq	r0, r0, fp, asr r2
    37f4:	0000cc0a 	andeq	ip, r0, sl, lsl #24
    37f8:	12001f00 	andne	r1, r0, #0, 30
    37fc:	00000c33 	andeq	r0, r0, r3, lsr ip
    3800:	5b050190 	blpl	143e48 <__bss_end__+0x1398f0>
    3804:	00000299 	muleq	r0, r9, r2
    3808:	000cbb0c 	andeq	fp, ip, ip, lsl #22
    380c:	995c0500 	ldmdbls	ip, {r8, sl}^
    3810:	00000002 	andeq	r0, r0, r2
    3814:	000cd30c 	andeq	sp, ip, ip, lsl #6
    3818:	255d0500 	ldrbcs	r0, [sp, #-1280]	; 0x500
    381c:	04000000 	streq	r0, [r0], #-0
    3820:	000b2d0c 	andeq	r2, fp, ip, lsl #26
    3824:	9f5f0500 	svcls	0x005f0500
    3828:	08000002 	stmdaeq	r0, {r1}
    382c:	000a6d0c 	andeq	r6, sl, ip, lsl #26
    3830:	0b600500 	bleq	1804c38 <__bss_end__+0x17fa6e0>
    3834:	88000002 	stmdahi	r0, {r1}
    3838:	5b040e00 	blpl	107040 <__bss_end__+0xfcae8>
    383c:	09000002 	stmdbeq	r0, {r1}
    3840:	000002af 	andeq	r0, r0, pc, lsr #5
    3844:	000002af 	andeq	r0, r0, pc, lsr #5
    3848:	0000cc0a 	andeq	ip, r0, sl, lsl #24
    384c:	0e001f00 	cdpeq	15, 0, cr1, cr0, cr0, {0}
    3850:	0002b504 	andeq	fp, r2, r4, lsl #10
    3854:	86101400 	ldrhi	r1, [r0], -r0, lsl #8
    3858:	0800000c 	stmdaeq	r0, {r2, r3}
    385c:	02db7305 	sbcseq	r7, fp, #335544320	; 0x14000000
    3860:	530c0000 	movwpl	r0, #49152	; 0xc000
    3864:	0500000a 	streq	r0, [r0, #-10]
    3868:	0002db74 	andeq	sp, r2, r4, ror fp
    386c:	b70c0000 	strlt	r0, [ip, -r0]
    3870:	05000009 	streq	r0, [r0, #-9]
    3874:	00002575 	andeq	r2, r0, r5, ror r5
    3878:	0e000400 	cfcpyseq	mvf0, mvf0
    387c:	00005404 	andeq	r5, r0, r4, lsl #8
    3880:	0ca51000 	stceq	0, cr1, [r5]
    3884:	05680000 	strbeq	r0, [r8, #-0]!
    3888:	00040bb3 			; <UNDEFINED> instruction: 0x00040bb3
    388c:	705f1100 	subsvc	r1, pc, r0, lsl #2
    3890:	dbb40500 	blle	fed04c98 <__bss_end__+0xfecfa740>
    3894:	00000002 	andeq	r0, r0, r2
    3898:	00725f11 	rsbseq	r5, r2, r1, lsl pc
    389c:	0025b505 	eoreq	fp, r5, r5, lsl #10
    38a0:	11040000 	mrsne	r0, (UNDEF: 4)
    38a4:	0500775f 	streq	r7, [r0, #-1887]	; 0x75f
    38a8:	000025b6 			; <UNDEFINED> instruction: 0x000025b6
    38ac:	8b0c0800 	blhi	3058b4 <__bss_end__+0x2fb35c>
    38b0:	0500000a 	streq	r0, [r0, #-10]
    38b4:	00003fb7 			; <UNDEFINED> instruction: 0x00003fb7
    38b8:	9e0c0c00 	cdpls	12, 0, cr0, cr12, cr0, {0}
    38bc:	0500000b 	streq	r0, [r0, #-11]
    38c0:	00003fb8 			; <UNDEFINED> instruction: 0x00003fb8
    38c4:	5f110e00 	svcpl	0x00110e00
    38c8:	05006662 	streq	r6, [r0, #-1634]	; 0x662
    38cc:	0002b6b9 			; <UNDEFINED> instruction: 0x0002b6b9
    38d0:	fa0c1000 	blx	3078d8 <__bss_end__+0x2fd380>
    38d4:	05000009 	streq	r0, [r0, #-9]
    38d8:	000025ba 			; <UNDEFINED> instruction: 0x000025ba
    38dc:	7b0c1800 	blvc	3098e4 <__bss_end__+0x2ff38c>
    38e0:	0500000a 	streq	r0, [r0, #-10]
    38e4:	00010ac1 	andeq	r0, r1, r1, asr #21
    38e8:	220c1c00 	andcs	r1, ip, #0, 24
    38ec:	0500000f 	streq	r0, [r0, #-15]
    38f0:	000566c3 	andeq	r6, r5, r3, asr #13
    38f4:	3c0c2000 	stccc	0, cr2, [ip], {-0}
    38f8:	0500000f 	streq	r0, [r0, #-15]
    38fc:	000590c5 	andeq	r9, r5, r5, asr #1
    3900:	170c2400 	strne	r2, [ip, -r0, lsl #8]
    3904:	0500000d 	streq	r0, [r0, #-13]
    3908:	0005b4c8 	andeq	fp, r5, r8, asr #9
    390c:	dc0c2800 	stcle	8, cr2, [ip], {-0}
    3910:	0500000e 	streq	r0, [r0, #-14]
    3914:	0005cec9 	andeq	ip, r5, r9, asr #29
    3918:	5f112c00 	svcpl	0x00112c00
    391c:	05006275 	streq	r6, [r0, #-629]	; 0x275
    3920:	0002b6cc 	andeq	fp, r2, ip, asr #13
    3924:	5f113000 	svcpl	0x00113000
    3928:	05007075 	streq	r7, [r0, #-117]	; 0x75
    392c:	0002dbcd 	andeq	sp, r2, sp, asr #23
    3930:	5f113800 	svcpl	0x00113800
    3934:	05007275 	streq	r7, [r0, #-629]	; 0x275
    3938:	000025ce 	andeq	r2, r0, lr, asr #11
    393c:	3e0c3c00 	cdpcc	12, 0, cr3, cr12, cr0, {0}
    3940:	0500000a 	streq	r0, [r0, #-10]
    3944:	0005d4d1 	ldrdeq	sp, [r5], -r1
    3948:	870c4000 	strhi	r4, [ip, -r0]
    394c:	0500000e 	streq	r0, [r0, #-14]
    3950:	0005e4d2 	ldrdeq	lr, [r5], -r2
    3954:	5f114300 	svcpl	0x00114300
    3958:	0500626c 	streq	r6, [r0, #-620]	; 0x26c
    395c:	0002b6d5 	ldrdeq	fp, [r2], -r5
    3960:	a10c4400 	tstge	ip, r0, lsl #8
    3964:	0500000a 	streq	r0, [r0, #-10]
    3968:	000025d8 	ldrdeq	r2, [r0], -r8
    396c:	090c4c00 	stmdbeq	ip, {sl, fp, lr}
    3970:	0500000c 	streq	r0, [r0, #-12]
    3974:	00007bd9 	ldrdeq	r7, [r0], -r9
    3978:	720c5000 	andvc	r5, ip, #0
    397c:	0500000e 	streq	r0, [r0, #-14]
    3980:	000429dc 	ldrdeq	r2, [r4], -ip
    3984:	f10c5400 			; <UNDEFINED> instruction: 0xf10c5400
    3988:	0500000b 	streq	r0, [r0, #-11]
    398c:	0000ffe0 	andeq	pc, r0, r0, ror #31
    3990:	ad0c5800 	stcge	8, cr5, [ip, #-0]
    3994:	0500000c 	streq	r0, [r0, #-12]
    3998:	0000f4e2 	andeq	pc, r0, r2, ror #9
    399c:	f70c5c00 			; <UNDEFINED> instruction: 0xf70c5c00
    39a0:	0500000b 	streq	r0, [r0, #-11]
    39a4:	000025e3 	andeq	r2, r0, r3, ror #11
    39a8:	15006400 	strne	r6, [r0, #-1024]	; 0x400
    39ac:	00000025 	andeq	r0, r0, r5, lsr #32
    39b0:	00000429 	andeq	r0, r0, r9, lsr #8
    39b4:	00042916 	andeq	r2, r4, r6, lsl r9
    39b8:	010a1600 	tsteq	sl, r0, lsl #12
    39bc:	0c160000 	ldceq	0, cr0, [r6], {-0}
    39c0:	16000001 	strne	r0, [r0], -r1
    39c4:	00000025 	andeq	r0, r0, r5, lsr #32
    39c8:	34040e00 	strcc	r0, [r4], #-3584	; 0xe00
    39cc:	0f000004 	svceq	0x00000004
    39d0:	00000429 	andeq	r0, r0, r9, lsr #8
    39d4:	000cfa17 	andeq	pc, ip, r7, lsl sl	; <UNPREDICTABLE>
    39d8:	05042800 	streq	r2, [r4, #-2048]	; 0x800
    39dc:	05660238 	strbeq	r0, [r6, #-568]!	; 0x238
    39e0:	75180000 	ldrvc	r0, [r8, #-0]
    39e4:	0500000c 	streq	r0, [r0, #-12]
    39e8:	0025023a 	eoreq	r0, r5, sl, lsr r2
    39ec:	18000000 	stmdane	r0, {}	; <UNPREDICTABLE>
    39f0:	00000a9a 	muleq	r0, sl, sl
    39f4:	3b023f05 	blcc	93610 <__bss_end__+0x890b8>
    39f8:	04000006 	streq	r0, [r0], #-6
    39fc:	000b8e18 	andeq	r8, fp, r8, lsl lr
    3a00:	023f0500 	eorseq	r0, pc, #0, 10
    3a04:	0000063b 	andeq	r0, r0, fp, lsr r6
    3a08:	0b4f1808 	bleq	13c9a30 <__bss_end__+0x13bf4d8>
    3a0c:	3f050000 	svccc	0x00050000
    3a10:	00063b02 	andeq	r3, r6, r2, lsl #22
    3a14:	ce180c00 	cdpgt	12, 1, cr0, cr8, cr0, {0}
    3a18:	0500000c 	streq	r0, [r0, #-12]
    3a1c:	00250241 	eoreq	r0, r5, r1, asr #4
    3a20:	18100000 	ldmdane	r0, {}	; <UNPREDICTABLE>
    3a24:	000009c5 	andeq	r0, r0, r5, asr #19
    3a28:	1d024205 	sfmne	f4, 4, [r2, #-20]	; 0xffffffec
    3a2c:	14000008 	strne	r0, [r0], #-8
    3a30:	000dec18 	andeq	lr, sp, r8, lsl ip
    3a34:	02440500 	subeq	r0, r4, #0, 10
    3a38:	00000025 	andeq	r0, r0, r5, lsr #32
    3a3c:	0cd81830 	ldcleq	8, cr1, [r8], {48}	; 0x30
    3a40:	45050000 	strmi	r0, [r5, #-0]
    3a44:	00058a02 	andeq	r8, r5, r2, lsl #20
    3a48:	3b183400 	blcc	610a50 <__bss_end__+0x6064f8>
    3a4c:	0500000c 	streq	r0, [r0, #-12]
    3a50:	00250247 	eoreq	r0, r5, r7, asr #4
    3a54:	18380000 	ldmdane	r8!, {}	; <UNPREDICTABLE>
    3a58:	00000ce8 	andeq	r0, r0, r8, ror #25
    3a5c:	38024905 	stmdacc	r2, {r0, r2, r8, fp, lr}
    3a60:	3c000008 	stccc	0, cr0, [r0], {8}
    3a64:	000bcd18 	andeq	ip, fp, r8, lsl sp
    3a68:	024c0500 	subeq	r0, ip, #0, 10
    3a6c:	0000017c 	andeq	r0, r0, ip, ror r1
    3a70:	0b6e1840 	bleq	1b89b78 <__bss_end__+0x1b7f620>
    3a74:	4d050000 	stcmi	0, cr0, [r5, #-0]
    3a78:	00002502 	andeq	r2, r0, r2, lsl #10
    3a7c:	f6184400 			; <UNDEFINED> instruction: 0xf6184400
    3a80:	0500000e 	streq	r0, [r0, #-14]
    3a84:	017c024e 	cmneq	ip, lr, asr #4
    3a88:	18480000 	stmdane	r8, {}^	; <UNPREDICTABLE>
    3a8c:	00000c52 	andeq	r0, r0, r2, asr ip
    3a90:	3e024f05 	cdpcc	15, 0, cr4, cr2, cr5, {0}
    3a94:	4c000008 	stcmi	0, cr0, [r0], {8}
    3a98:	000b9618 	andeq	r9, fp, r8, lsl r6
    3a9c:	02520500 	subseq	r0, r2, #0, 10
    3aa0:	00000025 	andeq	r0, r0, r5, lsr #32
    3aa4:	0abd1850 	beq	fef49bec <__bss_end__+0xfef3f694>
    3aa8:	53050000 	movwpl	r0, #20480	; 0x5000
    3aac:	00010c02 	andeq	r0, r1, r2, lsl #24
    3ab0:	6e185400 	cfmulsvs	mvf5, mvf8, mvf0
    3ab4:	0500000c 	streq	r0, [r0, #-12]
    3ab8:	07fb0276 			; <UNDEFINED> instruction: 0x07fb0276
    3abc:	19580000 	ldmdbne	r8, {}^	; <UNPREDICTABLE>
    3ac0:	00000c33 	andeq	r0, r0, r3, lsr ip
    3ac4:	99027a05 	stmdbls	r2, {r0, r2, r9, fp, ip, sp, lr}
    3ac8:	48000002 	stmdami	r0, {r1}
    3acc:	0bab1901 	bleq	feac9ed8 <__bss_end__+0xfeabf980>
    3ad0:	7b050000 	blvc	143ad8 <__bss_end__+0x139580>
    3ad4:	00025b02 	andeq	r5, r2, r2, lsl #22
    3ad8:	19014c00 	stmdbne	r1, {sl, fp, lr}
    3adc:	00000e58 	andeq	r0, r0, r8, asr lr
    3ae0:	4f027f05 	svcmi	0x00027f05
    3ae4:	dc000008 	stcle	0, cr0, [r0], {8}
    3ae8:	0a831902 	beq	fe0c9ef8 <__bss_end__+0xfe0bf9a0>
    3aec:	84050000 	strhi	r0, [r5], #-0
    3af0:	00060002 	andeq	r0, r6, r2
    3af4:	1902e000 	stmdbne	r2, {sp, lr, pc}
    3af8:	00000a68 	andeq	r0, r0, r8, ror #20
    3afc:	5b028505 	blpl	a4f18 <__bss_end__+0x9a9c0>
    3b00:	ec000008 	stc	0, cr0, [r0], {8}
    3b04:	040e0002 	streq	r0, [lr], #-2
    3b08:	0000040b 	andeq	r0, r0, fp, lsl #8
    3b0c:	00002515 	andeq	r2, r0, r5, lsl r5
    3b10:	00058a00 	andeq	r8, r5, r0, lsl #20
    3b14:	04291600 	strteq	r1, [r9], #-1536	; 0x600
    3b18:	0a160000 	beq	583b20 <__bss_end__+0x5795c8>
    3b1c:	16000001 	strne	r0, [r0], -r1
    3b20:	0000058a 	andeq	r0, r0, sl, lsl #11
    3b24:	00002516 	andeq	r2, r0, r6, lsl r5
    3b28:	040e0000 	streq	r0, [lr], #-0
    3b2c:	00000119 	andeq	r0, r0, r9, lsl r1
    3b30:	056c040e 	strbeq	r0, [ip, #-1038]!	; 0x40e
    3b34:	86150000 	ldrhi	r0, [r5], -r0
    3b38:	b4000000 	strlt	r0, [r0], #-0
    3b3c:	16000005 	strne	r0, [r0], -r5
    3b40:	00000429 	andeq	r0, r0, r9, lsr #8
    3b44:	00010a16 	andeq	r0, r1, r6, lsl sl
    3b48:	00861600 	addeq	r1, r6, r0, lsl #12
    3b4c:	25160000 	ldrcs	r0, [r6, #-0]
    3b50:	00000000 	andeq	r0, r0, r0
    3b54:	0596040e 	ldreq	r0, [r6, #1038]	; 0x40e
    3b58:	25150000 	ldrcs	r0, [r5, #-0]
    3b5c:	ce000000 	cdpgt	0, 0, cr0, cr0, cr0, {0}
    3b60:	16000005 	strne	r0, [r0], -r5
    3b64:	00000429 	andeq	r0, r0, r9, lsr #8
    3b68:	00010a16 	andeq	r0, r1, r6, lsl sl
    3b6c:	040e0000 	streq	r0, [lr], #-0
    3b70:	000005ba 			; <UNDEFINED> instruction: 0x000005ba
    3b74:	00005409 	andeq	r5, r0, r9, lsl #8
    3b78:	0005e400 	andeq	lr, r5, r0, lsl #8
    3b7c:	00cc0a00 	sbceq	r0, ip, r0, lsl #20
    3b80:	00020000 	andeq	r0, r2, r0
    3b84:	00005409 	andeq	r5, r0, r9, lsl #8
    3b88:	0005f400 	andeq	pc, r5, r0, lsl #8
    3b8c:	00cc0a00 	sbceq	r0, ip, r0, lsl #20
    3b90:	00000000 	andeq	r0, r0, r0
    3b94:	000c9306 	andeq	r9, ip, r6, lsl #6
    3b98:	011d0500 	tsteq	sp, r0, lsl #10
    3b9c:	000002e1 	andeq	r0, r0, r1, ror #5
    3ba0:	000e1a1a 	andeq	r1, lr, sl, lsl sl
    3ba4:	21050c00 	tstcs	r5, r0, lsl #24
    3ba8:	00063501 	andeq	r3, r6, r1, lsl #10
    3bac:	0cbb1800 	ldceq	8, cr1, [fp]
    3bb0:	23050000 	movwcs	r0, #20480	; 0x5000
    3bb4:	00063501 	andeq	r3, r6, r1, lsl #10
    3bb8:	a4180000 	ldrge	r0, [r8], #-0
    3bbc:	0500000b 	streq	r0, [r0, #-11]
    3bc0:	00250124 	eoreq	r0, r5, r4, lsr #2
    3bc4:	18040000 	stmdane	r4, {}	; <UNPREDICTABLE>
    3bc8:	00000c8d 	andeq	r0, r0, sp, lsl #25
    3bcc:	3b012505 	blcc	4cfe8 <__bss_end__+0x42a90>
    3bd0:	08000006 	stmdaeq	r0, {r1, r2}
    3bd4:	00040e00 	andeq	r0, r4, r0, lsl #28
    3bd8:	0e000006 	cdpeq	0, 0, cr0, cr0, cr6, {0}
    3bdc:	0005f404 	andeq	pc, r5, r4, lsl #8
    3be0:	09bd1a00 	ldmibeq	sp!, {r9, fp, ip}
    3be4:	050e0000 	streq	r0, [lr, #-0]
    3be8:	0676013d 			; <UNDEFINED> instruction: 0x0676013d
    3bec:	01180000 	tsteq	r8, r0
    3bf0:	0500000d 	streq	r0, [r0, #-13]
    3bf4:	0676013e 			; <UNDEFINED> instruction: 0x0676013e
    3bf8:	18000000 	stmdane	r0, {}	; <UNPREDICTABLE>
    3bfc:	00000d3b 	andeq	r0, r0, fp, lsr sp
    3c00:	76013f05 	strvc	r3, [r1], -r5, lsl #30
    3c04:	06000006 	streq	r0, [r0], -r6
    3c08:	000dbf18 	andeq	fp, sp, r8, lsl pc
    3c0c:	01400500 	cmpeq	r0, r0, lsl #10
    3c10:	0000005b 	andeq	r0, r0, fp, asr r0
    3c14:	5b09000c 	blpl	243c4c <__bss_end__+0x2396f4>
    3c18:	86000000 	strhi	r0, [r0], -r0
    3c1c:	0a000006 	beq	3c3c <__code_start__-0x43c4>
    3c20:	000000cc 	andeq	r0, r0, ip, asr #1
    3c24:	d01b0002 	andsle	r0, fp, r2
    3c28:	87025705 	strhi	r5, [r2, -r5, lsl #14]
    3c2c:	18000007 	stmdane	r0, {r0, r1, r2}
    3c30:	00000dfe 	strdeq	r0, [r0], -lr
    3c34:	2c025905 	stccs	9, cr5, [r2], {5}
    3c38:	00000000 	andeq	r0, r0, r0
    3c3c:	000da918 	andeq	sl, sp, r8, lsl r9
    3c40:	025a0500 	subseq	r0, sl, #0, 10
    3c44:	0000010c 	andeq	r0, r0, ip, lsl #2
    3c48:	0bc01804 	bleq	ff009c60 <__bss_end__+0xfefff708>
    3c4c:	5b050000 	blpl	143c54 <__bss_end__+0x1396fc>
    3c50:	00078702 	andeq	r8, r7, r2, lsl #14
    3c54:	cd180800 	ldcgt	8, cr0, [r8, #-0]
    3c58:	0500000e 	streq	r0, [r0, #-14]
    3c5c:	0192025c 	orrseq	r0, r2, ip, asr r2
    3c60:	18240000 	stmdane	r4!, {}	; <UNPREDICTABLE>
    3c64:	00000b5f 	andeq	r0, r0, pc, asr fp
    3c68:	25025d05 	strcs	r5, [r2, #-3333]	; 0xd05
    3c6c:	48000000 	stmdami	r0, {}	; <UNPREDICTABLE>
    3c70:	000cb618 	andeq	fp, ip, r8, lsl r6
    3c74:	025e0500 	subseq	r0, lr, #0, 10
    3c78:	00000069 	andeq	r0, r0, r9, rrx
    3c7c:	0ee31850 	mcreq	8, 7, r1, cr3, cr0, {2}
    3c80:	5f050000 	svcpl	0x00050000
    3c84:	00064102 	andeq	r4, r6, r2, lsl #2
    3c88:	c1185800 	tstgt	r8, r0, lsl #16
    3c8c:	0500000c 	streq	r0, [r0, #-12]
    3c90:	00f40260 	rscseq	r0, r4, r0, ror #4
    3c94:	18680000 	stmdane	r8!, {}^	; <UNPREDICTABLE>
    3c98:	00000ee8 	andeq	r0, r0, r8, ror #29
    3c9c:	f4026105 	vst4.8	{d6,d8,d10,d12}, [r2], r5
    3ca0:	70000000 	andvc	r0, r0, r0
    3ca4:	000a2218 	andeq	r2, sl, r8, lsl r2
    3ca8:	02620500 	rsbeq	r0, r2, #0, 10
    3cac:	000000f4 	strdeq	r0, [r0], -r4
    3cb0:	0e3a1878 	mrceq	8, 1, r1, cr10, cr8, {3}
    3cb4:	63050000 	movwvs	r0, #20480	; 0x5000
    3cb8:	00079702 	andeq	r9, r7, r2, lsl #14
    3cbc:	b4188000 	ldrlt	r8, [r8], #-0
    3cc0:	0500000b 	streq	r0, [r0, #-11]
    3cc4:	07a70264 	streq	r0, [r7, r4, ror #4]!
    3cc8:	18880000 	stmne	r8, {}	; <UNPREDICTABLE>
    3ccc:	00000dcc 	andeq	r0, r0, ip, asr #27
    3cd0:	25026505 	strcs	r6, [r2, #-1285]	; 0x505
    3cd4:	a0000000 	andge	r0, r0, r0
    3cd8:	000b0b18 	andeq	r0, fp, r8, lsl fp
    3cdc:	02660500 	rsbeq	r0, r6, #0, 10
    3ce0:	000000f4 	strdeq	r0, [r0], -r4
    3ce4:	0a1318a4 	beq	4c9f7c <__bss_end__+0x4bfa24>
    3ce8:	67050000 	strvs	r0, [r5, -r0]
    3cec:	0000f402 	andeq	pc, r0, r2, lsl #8
    3cf0:	fa18ac00 	blx	62ecf8 <__bss_end__+0x6247a0>
    3cf4:	0500000a 	streq	r0, [r0, #-10]
    3cf8:	00f40268 	rscseq	r0, r4, r8, ror #4
    3cfc:	18b40000 	ldmne	r4!, {}	; <UNPREDICTABLE>
    3d00:	000009da 	ldrdeq	r0, [r0], -sl
    3d04:	f4026905 	vst2.8	{d6,d8}, [r2], r5
    3d08:	bc000000 	stclt	0, cr0, [r0], {-0}
    3d0c:	0009e918 	andeq	lr, r9, r8, lsl r9
    3d10:	026a0500 	rsbeq	r0, sl, #0, 10
    3d14:	000000f4 	strdeq	r0, [r0], -r4
    3d18:	0c7318c4 	ldcleq	8, cr1, [r3], #-784	; 0xfffffcf0
    3d1c:	6b050000 	blvs	143d24 <__bss_end__+0x1397cc>
    3d20:	00002502 	andeq	r2, r0, r2, lsl #10
    3d24:	0900cc00 	stmdbeq	r0, {sl, fp, lr, pc}
    3d28:	00000112 	andeq	r0, r0, r2, lsl r1
    3d2c:	00000797 	muleq	r0, r7, r7
    3d30:	0000cc0a 	andeq	ip, r0, sl, lsl #24
    3d34:	09001900 	stmdbeq	r0, {r8, fp, ip}
    3d38:	00000112 	andeq	r0, r0, r2, lsl r1
    3d3c:	000007a7 	andeq	r0, r0, r7, lsr #15
    3d40:	0000cc0a 	andeq	ip, r0, sl, lsl #24
    3d44:	09000700 	stmdbeq	r0, {r8, r9, sl}
    3d48:	00000112 	andeq	r0, r0, r2, lsl r1
    3d4c:	000007b7 			; <UNDEFINED> instruction: 0x000007b7
    3d50:	0000cc0a 	andeq	ip, r0, sl, lsl #24
    3d54:	1b001700 	blne	995c <gpio_read+0x28>
    3d58:	027005f0 	rsbseq	r0, r0, #240, 10	; 0x3c000000
    3d5c:	000007db 	ldrdeq	r0, [r0], -fp
    3d60:	000c2318 	andeq	r2, ip, r8, lsl r3
    3d64:	02730500 	rsbseq	r0, r3, #0, 10
    3d68:	000007db 	ldrdeq	r0, [r0], -fp
    3d6c:	0e311800 	cdpeq	8, 3, cr1, cr1, cr0, {0}
    3d70:	74050000 	strvc	r0, [r5], #-0
    3d74:	0007eb02 	andeq	lr, r7, r2, lsl #22
    3d78:	09007800 	stmdbeq	r0, {fp, ip, sp, lr}
    3d7c:	000002db 	ldrdeq	r0, [r0], -fp
    3d80:	000007eb 	andeq	r0, r0, fp, ror #15
    3d84:	0000cc0a 	andeq	ip, r0, sl, lsl #24
    3d88:	09001d00 	stmdbeq	r0, {r8, sl, fp, ip}
    3d8c:	0000002c 	andeq	r0, r0, ip, lsr #32
    3d90:	000007fb 	strdeq	r0, [r0], -fp
    3d94:	0000cc0a 	andeq	ip, r0, sl, lsl #24
    3d98:	1c001d00 	stcne	13, cr1, [r0], {-0}
    3d9c:	025505f0 	subseq	r0, r5, #240, 10	; 0x3c000000
    3da0:	0000081d 	andeq	r0, r0, sp, lsl r8
    3da4:	000cfa1d 	andeq	pc, ip, sp, lsl sl	; <UNPREDICTABLE>
    3da8:	026c0500 	rsbeq	r0, ip, #0, 10
    3dac:	00000686 	andeq	r0, r0, r6, lsl #13
    3db0:	000e8d1d 	andeq	r8, lr, sp, lsl sp
    3db4:	02750500 	rsbseq	r0, r5, #0, 10
    3db8:	000007b7 			; <UNDEFINED> instruction: 0x000007b7
    3dbc:	01120900 	tsteq	r2, r0, lsl #18
    3dc0:	082d0000 	stmdaeq	sp!, {}	; <UNPREDICTABLE>
    3dc4:	cc0a0000 	stcgt	0, cr0, [sl], {-0}
    3dc8:	18000000 	stmdane	r0, {}	; <UNPREDICTABLE>
    3dcc:	08381e00 	ldmdaeq	r8!, {r9, sl, fp, ip}
    3dd0:	29160000 	ldmdbcs	r6, {}	; <UNPREDICTABLE>
    3dd4:	00000004 	andeq	r0, r0, r4
    3dd8:	082d040e 	stmdaeq	sp!, {r1, r2, r3, sl}
    3ddc:	040e0000 	streq	r0, [lr], #-0
    3de0:	0000017c 	andeq	r0, r0, ip, ror r1
    3de4:	00084f1e 	andeq	r4, r8, lr, lsl pc
    3de8:	00251600 	eoreq	r1, r5, r0, lsl #12
    3dec:	0e000000 	cdpeq	0, 0, cr0, cr0, cr0, {0}
    3df0:	00085504 	andeq	r5, r8, r4, lsl #10
    3df4:	44040e00 	strmi	r0, [r4], #-3584	; 0xe00
    3df8:	09000008 	stmdbeq	r0, {r3}
    3dfc:	000005f4 	strdeq	r0, [r0], -r4
    3e00:	0000086b 	andeq	r0, r0, fp, ror #16
    3e04:	0000cc0a 	andeq	ip, r0, sl, lsl #24
    3e08:	1f000200 	svcne	0x00000200
    3e0c:	00000de0 	andeq	r0, r0, r0, ror #27
    3e10:	2902fd05 	stmdbcs	r2, {r0, r2, r8, sl, fp, ip, sp, lr, pc}
    3e14:	1f000004 	svcne	0x00000004
    3e18:	00000dd9 	ldrdeq	r0, [r0], -r9
    3e1c:	2f02fe05 	svccs	0x0002fe05
    3e20:	15000004 	strne	r0, [r0, #-4]
    3e24:	00000025 	andeq	r0, r0, r5, lsr #32
    3e28:	00000892 	muleq	r0, r2, r8
    3e2c:	00002516 	andeq	r2, r0, r6, lsl r5
    3e30:	da200000 	ble	803e38 <__bss_end__+0x7f98e0>
    3e34:	06000005 	streq	r0, [r0], -r5
    3e38:	00089d1d 	andeq	r9, r8, sp, lsl sp
    3e3c:	83040e00 	movwhi	r0, #19968	; 0x4e00
    3e40:	15000008 	strne	r0, [r0, #-8]
    3e44:	00000025 	andeq	r0, r0, r5, lsr #32
    3e48:	000008b2 			; <UNDEFINED> instruction: 0x000008b2
    3e4c:	00058a16 	andeq	r8, r5, r6, lsl sl
    3e50:	17200000 	strne	r0, [r0, -r0]!
    3e54:	06000006 	streq	r0, [r0], -r6
    3e58:	0008bd22 	andeq	fp, r8, r2, lsr #26
    3e5c:	a3040e00 	movwge	r0, #19968	; 0x4e00
    3e60:	21000008 	tstcs	r0, r8
    3e64:	00005401 	andeq	r5, r0, r1, lsl #8
    3e68:	000c0800 	andeq	r0, ip, r0, lsl #16
    3e6c:	22000009 	andcs	r0, r0, #9
    3e70:	00000a03 	andeq	r0, r0, r3, lsl #20
    3e74:	0e202200 	cdpeq	2, 2, cr2, cr0, cr0, {0}
    3e78:	22010000 	andcs	r0, r1, #0
    3e7c:	00000e78 	andeq	r0, r0, r8, ror lr
    3e80:	0a442204 	beq	110c698 <__bss_end__+0x1102140>
    3e84:	22050000 	andcs	r0, r5, #0
    3e88:	00000bdb 	ldrdeq	r0, [r0], -fp
    3e8c:	0e952206 	cdpeq	2, 9, cr2, cr5, cr6, {0}
    3e90:	22070000 	andcs	r0, r7, #0
    3e94:	00000ea4 	andeq	r0, r0, r4, lsr #29
    3e98:	0eb32203 	cdpeq	2, 11, cr2, cr3, cr3, {0}
    3e9c:	00020000 	andeq	r0, r2, r0
    3ea0:	000ab110 	andeq	fp, sl, r0, lsl r1
    3ea4:	06072c00 	streq	r2, [r7], -r0, lsl #24
    3ea8:	00000990 	muleq	r0, r0, r9
    3eac:	006f6911 	rsbeq	r6, pc, r1, lsl r9	; <UNPREDICTABLE>
    3eb0:	00330907 	eorseq	r0, r3, r7, lsl #18
    3eb4:	11000000 	mrsne	r0, (UNDEF: 0)
    3eb8:	00726569 	rsbseq	r6, r2, r9, ror #10
    3ebc:	00330a07 	eorseq	r0, r3, r7, lsl #20
    3ec0:	11040000 	mrsne	r0, (UNDEF: 4)
    3ec4:	00726969 	rsbseq	r6, r2, r9, ror #18
    3ec8:	00331107 	eorseq	r1, r3, r7, lsl #2
    3ecc:	11080000 	mrsne	r0, (UNDEF: 8)
    3ed0:	0072636c 	rsbseq	r6, r2, ip, ror #6
    3ed4:	00331307 	eorseq	r1, r3, r7, lsl #6
    3ed8:	110c0000 	mrsne	r0, (UNDEF: 12)
    3edc:	0072636d 	rsbseq	r6, r2, sp, ror #6
    3ee0:	00331407 	eorseq	r1, r3, r7, lsl #8
    3ee4:	11100000 	tstne	r0, r0
    3ee8:	0072736c 	rsbseq	r7, r2, ip, ror #6
    3eec:	00331507 	eorseq	r1, r3, r7, lsl #10
    3ef0:	11140000 	tstne	r4, r0
    3ef4:	0072736d 	rsbseq	r7, r2, sp, ror #6
    3ef8:	00331607 	eorseq	r1, r3, r7, lsl #12
    3efc:	0c180000 	ldceq	0, cr0, [r8], {-0}
    3f00:	00000d33 	andeq	r0, r0, r3, lsr sp
    3f04:	00331707 	eorseq	r1, r3, r7, lsl #14
    3f08:	0c1c0000 	ldceq	0, cr0, [ip], {-0}
    3f0c:	00000a59 	andeq	r0, r0, r9, asr sl
    3f10:	00331b07 	eorseq	r1, r3, r7, lsl #22
    3f14:	0c200000 	stceq	0, cr0, [r0], #-0
    3f18:	00000a39 	andeq	r0, r0, r9, lsr sl
    3f1c:	00331d07 	eorseq	r1, r3, r7, lsl #26
    3f20:	0c240000 	stceq	0, cr0, [r4], #-0
    3f24:	00000d1d 	andeq	r0, r0, sp, lsl sp
    3f28:	00331e07 	eorseq	r1, r3, r7, lsl #28
    3f2c:	00280000 	eoreq	r0, r8, r0
    3f30:	000b2123 	andeq	r2, fp, r3, lsr #2
    3f34:	a5070100 	strge	r0, [r7, #-256]	; 0x100
    3f38:	04000009 	streq	r0, [r0], #-9
    3f3c:	0e202150 	mcreq	1, 1, r2, cr0, cr0, {2}
    3f40:	00003304 	andeq	r3, r0, r4, lsl #6
    3f44:	099f0f00 	ldmibeq	pc, {r8, r9, sl, fp}	; <UNPREDICTABLE>
    3f48:	4d230000 	stcmi	0, cr0, [r3, #-0]
    3f4c:	0100000c 	tsteq	r0, ip
    3f50:	0009bf28 	andeq	fp, r9, r8, lsr #30
    3f54:	21504000 	cmpcs	r0, r0
    3f58:	00040e20 	andeq	r0, r4, r0, lsr #28
    3f5c:	0f000009 	svceq	0x00000009
    3f60:	000009b9 			; <UNDEFINED> instruction: 0x000009b9
    3f64:	000e6a24 	andeq	r6, lr, r4, lsr #20
    3f68:	25a70100 	strcs	r0, [r7, #256]!	; 0x100
    3f6c:	38000000 	stmdacc	r0, {}	; <UNPREDICTABLE>
    3f70:	10000098 	mulne	r0, r8, r0
    3f74:	01000000 	mrseq	r0, (UNDEF: 0)
    3f78:	0009f09c 	muleq	r9, ip, r0
    3f7c:	98402500 	stmdals	r0, {r8, sl, sp}^
    3f80:	0c9c0000 	ldceq	0, cr0, [ip], {0}
    3f84:	44250000 	strtmi	r0, [r5], #-0
    3f88:	d2000098 	andle	r0, r0, #152	; 0x98
    3f8c:	0000000a 	andeq	r0, r0, sl
    3f90:	0005bf26 	andeq	fp, r5, r6, lsr #30
    3f94:	089f0100 	ldmeq	pc, {r8}	; <UNPREDICTABLE>
    3f98:	30000098 	mulcc	r0, r8, r0
    3f9c:	01000000 	mrseq	r0, (UNDEF: 0)
    3fa0:	000a4e9c 	muleq	sl, ip, lr
    3fa4:	00632700 	rsbeq	r2, r3, r0, lsl #14
    3fa8:	002c9f01 	eoreq	r9, ip, r1, lsl #30
    3fac:	0ebd0000 	cdpeq	0, 11, cr0, cr13, cr0, {0}
    3fb0:	14250000 	strtne	r0, [r5], #-0
    3fb4:	9c000098 	stcls	0, cr0, [r0], {152}	; 0x98
    3fb8:	2500000c 	strcs	r0, [r0, #-12]
    3fbc:	00009818 	andeq	r9, r0, r8, lsl r8
    3fc0:	00000aa5 	andeq	r0, r0, r5, lsr #21
    3fc4:	00982c28 	addseq	r2, r8, r8, lsr #24
    3fc8:	000ca700 	andeq	sl, ip, r0, lsl #14
    3fcc:	000a4400 	andeq	r4, sl, r0, lsl #8
    3fd0:	50012900 	andpl	r2, r1, r0, lsl #18
    3fd4:	50400c05 	subpl	r0, r0, r5, lsl #24
    3fd8:	01292021 	teqeq	r9, r1, lsr #32
    3fdc:	00740551 	rsbseq	r0, r4, r1, asr r5
    3fe0:	001aff08 	andseq	pc, sl, r8, lsl #30
    3fe4:	00983025 	addseq	r3, r8, r5, lsr #32
    3fe8:	000c9c00 	andeq	r9, ip, r0, lsl #24
    3fec:	84240000 	strthi	r0, [r4], #-0
    3ff0:	0100000b 	tsteq	r0, fp
    3ff4:	00002597 	muleq	r0, r7, r5
    3ff8:	0097d800 	addseq	sp, r7, r0, lsl #16
    3ffc:	00003000 	andeq	r3, r0, r0
    4000:	a59c0100 	ldrge	r0, [ip, #256]	; 0x100
    4004:	2a00000a 	bcs	4034 <__code_start__-0x3fcc>
    4008:	9b010063 	blls	4419c <__bss_end__+0x39c44>
    400c:	00000025 	andeq	r0, r0, r5, lsr #32
    4010:	e0255401 	eor	r5, r5, r1, lsl #8
    4014:	9c000097 	stcls	0, cr0, [r0], {151}	; 0x97
    4018:	2500000c 	strcs	r0, [r0, #-12]
    401c:	000097e4 	andeq	r9, r0, r4, ror #15
    4020:	00000ad2 	ldrdeq	r0, [r0], -r2
    4024:	0097f428 	addseq	pc, r7, r8, lsr #8
    4028:	000cb200 	andeq	fp, ip, r0, lsl #4
    402c:	000a9b00 	andeq	r9, sl, r0, lsl #22
    4030:	50012900 	andpl	r2, r1, r0, lsl #18
    4034:	50400c05 	subpl	r0, r0, r5, lsl #24
    4038:	25002021 	strcs	r2, [r0, #-33]	; 0x21
    403c:	000097fc 	strdeq	r9, [r0], -ip
    4040:	00000c9c 	muleq	r0, ip, ip
    4044:	0b382400 	bleq	e0d04c <__bss_end__+0xe02af4>
    4048:	88010000 	stmdahi	r1, {}	; <UNPREDICTABLE>
    404c:	00000025 	andeq	r0, r0, r5, lsr #32
    4050:	000097b8 			; <UNDEFINED> instruction: 0x000097b8
    4054:	00000020 	andeq	r0, r0, r0, lsr #32
    4058:	0ad29c01 	beq	ff4ab064 <__bss_end__+0xff4a0b0c>
    405c:	c42b0000 	strtgt	r0, [fp], #-0
    4060:	b2000097 	andlt	r0, r0, #151	; 0x97
    4064:	2900000c 	stmdbcs	r0, {r2, r3}
    4068:	0c055001 	stceq	0, cr5, [r5], {1}
    406c:	20215064 	eorcs	r5, r1, r4, rrx
    4070:	4a240000 	bmi	904078 <__bss_end__+0x8f9b20>
    4074:	0100000e 	tsteq	r0, lr
    4078:	0000257f 	andeq	r2, r0, pc, ror r5
    407c:	0097a000 	addseq	sl, r7, r0
    4080:	00001800 	andeq	r1, r0, r0, lsl #16
    4084:	ff9c0100 			; <UNDEFINED> instruction: 0xff9c0100
    4088:	2b00000a 	blcs	40b8 <__code_start__-0x3f48>
    408c:	000097ac 	andeq	r9, r0, ip, lsr #15
    4090:	00000cb2 			; <UNDEFINED> instruction: 0x00000cb2
    4094:	05500129 	ldrbeq	r0, [r0, #-297]	; 0x129
    4098:	2150640c 	cmpcs	r0, ip, lsl #8
    409c:	26000020 	strcs	r0, [r0], -r0, lsr #32
    40a0:	000009d0 	ldrdeq	r0, [r0], -r0	; <UNPREDICTABLE>
    40a4:	96f03a01 	ldrbtls	r3, [r0], r1, lsl #20
    40a8:	00b00000 	adcseq	r0, r0, r0
    40ac:	9c010000 	stcls	0, cr0, [r1], {-0}
    40b0:	00000c3d 	andeq	r0, r0, sp, lsr ip
    40b4:	00970028 	addseq	r0, r7, r8, lsr #32
    40b8:	000cbd00 	andeq	fp, ip, r0, lsl #26
    40bc:	000b2c00 	andeq	r2, fp, r0, lsl #24
    40c0:	50012900 	andpl	r2, r1, r0, lsl #18
    40c4:	01293e01 	teqeq	r9, r1, lsl #28
    40c8:	00320151 	eorseq	r0, r2, r1, asr r1
    40cc:	00970c28 	addseq	r0, r7, r8, lsr #24
    40d0:	000cbd00 	andeq	fp, ip, r0, lsl #26
    40d4:	000b4400 	andeq	r4, fp, r0, lsl #8
    40d8:	50012900 	andpl	r2, r1, r0, lsl #18
    40dc:	01293f01 	teqeq	r9, r1, lsl #30
    40e0:	00320151 	eorseq	r0, r2, r1, asr r1
    40e4:	00971025 	addseq	r1, r7, r5, lsr #32
    40e8:	000c9c00 	andeq	r9, ip, r0, lsl #24
    40ec:	971c2800 	ldrls	r2, [ip, -r0, lsl #16]
    40f0:	0c3d0000 	ldceq	0, cr0, [sp], #-0
    40f4:	0b690000 	bleq	1a440fc <__bss_end__+0x1a39ba4>
    40f8:	01290000 	teqeq	r9, r0
    40fc:	040c0550 	streq	r0, [ip], #-1360	; 0x550
    4100:	29202150 	stmdbcs	r0!, {r4, r6, r8, sp}
    4104:	31015101 	tstcc	r1, r1, lsl #2
    4108:	97202500 	strls	r2, [r0, -r0, lsl #10]!
    410c:	0c9c0000 	ldceq	0, cr0, [ip], {0}
    4110:	30280000 	eorcc	r0, r8, r0
    4114:	a7000097 			; <UNDEFINED> instruction: 0xa7000097
    4118:	8b00000c 	blhi	4150 <__code_start__-0x3eb0>
    411c:	2900000b 	stmdbcs	r0, {r0, r1, r3}
    4120:	74025001 	strvc	r5, [r2], #-1
    4124:	51012900 	tstpl	r1, r0, lsl #18
    4128:	28003001 	stmdacs	r0, {r0, ip, sp}
    412c:	0000973c 	andeq	r9, r0, ip, lsr r7
    4130:	00000ca7 	andeq	r0, r0, r7, lsr #25
    4134:	00000ba7 	andeq	r0, r0, r7, lsr #23
    4138:	05500129 	ldrbeq	r0, [r0, #-297]	; 0x129
    413c:	2150440c 	cmpcs	r0, ip, lsl #8
    4140:	51012920 	tstpl	r1, r0, lsr #18
    4144:	28003001 	stmdacs	r0, {r0, ip, sp}
    4148:	00009748 	andeq	r9, r0, r8, asr #14
    414c:	00000ca7 	andeq	r0, r0, r7, lsr #25
    4150:	00000bc3 	andeq	r0, r0, r3, asr #23
    4154:	05500129 	ldrbeq	r0, [r0, #-297]	; 0x129
    4158:	21504c0c 	cmpcs	r0, ip, lsl #24
    415c:	51012920 	tstpl	r1, r0, lsr #18
    4160:	28003301 	stmdacs	r0, {r0, r8, r9, ip, sp}
    4164:	00009754 	andeq	r9, r0, r4, asr r7
    4168:	00000ca7 	andeq	r0, r0, r7, lsr #25
    416c:	00000bdf 	ldrdeq	r0, [r0], -pc	; <UNPREDICTABLE>
    4170:	05500129 	ldrbeq	r0, [r0, #-297]	; 0x129
    4174:	2150500c 	cmpcs	r0, ip
    4178:	51012920 	tstpl	r1, r0, lsr #18
    417c:	28003001 	stmdacs	r0, {r0, ip, sp}
    4180:	00009760 	andeq	r9, r0, r0, ror #14
    4184:	00000ca7 	andeq	r0, r0, r7, lsr #25
    4188:	00000bfc 	strdeq	r0, [r0], -ip
    418c:	05500129 	ldrbeq	r0, [r0, #-297]	; 0x129
    4190:	2150480c 	cmpcs	r0, ip, lsl #16
    4194:	51012920 	tstpl	r1, r0, lsr #18
    4198:	00c70802 	sbceq	r0, r7, r2, lsl #16
    419c:	00976c28 	addseq	r6, r7, r8, lsr #24
    41a0:	000ca700 	andeq	sl, ip, r0, lsl #14
    41a4:	000c1a00 	andeq	r1, ip, r0, lsl #20
    41a8:	50012900 	andpl	r2, r1, r0, lsl #18
    41ac:	50680c05 	rsbpl	r0, r8, r5, lsl #24
    41b0:	01292021 	teqeq	r9, r1, lsr #32
    41b4:	0e0a0351 	mcreq	3, 0, r0, cr10, cr1, {2}
    41b8:	78280001 	stmdavc	r8!, {r0}
    41bc:	a7000097 			; <UNDEFINED> instruction: 0xa7000097
    41c0:	3300000c 	movwcc	r0, #12
    41c4:	2900000c 	stmdbcs	r0, {r2, r3}
    41c8:	74025001 	strvc	r5, [r2], #-1
    41cc:	51012900 	tstpl	r1, r0, lsl #18
    41d0:	25003301 	strcs	r3, [r0, #-769]	; 0x301
    41d4:	0000977c 	andeq	r9, r0, ip, ror r7
    41d8:	00000c9c 	muleq	r0, ip, ip
    41dc:	0e622c00 	cdpeq	12, 6, cr2, cr2, cr0, {0}
    41e0:	2d010000 	stccs	0, cr0, [r1, #-0]
    41e4:	000096d0 	ldrdeq	r9, [r0], -r0
    41e8:	00000020 	andeq	r0, r0, r0, lsr #32
    41ec:	0c959c01 	ldceq	12, cr9, [r5], {1}
    41f0:	d42d0000 	strtle	r0, [sp], #-0
    41f4:	01000001 	tsteq	r0, r1
    41f8:	000c952d 	andeq	r9, ip, sp, lsr #10
    41fc:	000edb00 	andeq	sp, lr, r0, lsl #22
    4200:	61762700 	cmnvs	r6, r0, lsl #14
    4204:	2d01006c 	stccs	0, cr0, [r1, #-432]	; 0xfffffe50
    4208:	0000002c 	andeq	r0, r0, ip, lsr #32
    420c:	00000ef9 	strdeq	r0, [r0], -r9
    4210:	0096e028 	addseq	lr, r6, r8, lsr #32
    4214:	000cb200 	andeq	fp, ip, r0, lsl #4
    4218:	000c8400 	andeq	r8, ip, r0, lsl #8
    421c:	50012900 	andpl	r2, r1, r0, lsl #18
    4220:	00007402 	andeq	r7, r0, r2, lsl #8
    4224:	0096ec2b 	addseq	lr, r6, fp, lsr #24
    4228:	000ca700 	andeq	sl, ip, r0, lsl #14
    422c:	50012900 	andpl	r2, r1, r0, lsl #18
    4230:	00007402 	andeq	r7, r0, r2, lsl #8
    4234:	9b040e00 	blls	107a3c <__bss_end__+0xfd4e4>
    4238:	2e00000c 	cdpcs	0, 0, cr0, cr0, cr12, {0}
    423c:	0008862f 	andeq	r8, r8, pc, lsr #12
    4240:	00088600 	andeq	r8, r8, r0, lsl #12
    4244:	2f890600 	svccs	0x00890600
    4248:	00000d41 	andeq	r0, r0, r1, asr #26
    424c:	00000d41 	andeq	r0, r0, r1, asr #26
    4250:	442f9c06 	strtmi	r9, [pc], #-3078	; 4258 <__code_start__-0x3da8>
    4254:	4400000e 	strmi	r0, [r0], #-14
    4258:	0600000e 	streq	r0, [r0], -lr
    425c:	0c112fa8 	ldceq	15, cr2, [r1], {168}	; 0xa8
    4260:	0c110000 	ldceq	0, cr0, [r1], {-0}
    4264:	19080000 	stmdbne	r8, {}	; <UNPREDICTABLE>
    4268:	000b7000 	andeq	r7, fp, r0
    426c:	74000400 	strvc	r0, [r0], #-1024	; 0x400
    4270:	04000015 	streq	r0, [r0], #-21
    4274:	000d4701 	andeq	r4, sp, r1, lsl #14
    4278:	0f170c00 	svceq	0x00170c00
    427c:	0ac50000 	beq	ff144284 <__bss_end__+0xff139d2c>
    4280:	98480000 	stmdals	r8, {}^	; <UNPREDICTABLE>
    4284:	01200000 	teqeq	r0, r0
    4288:	11220000 	teqne	r2, r0
    428c:	04020000 	streq	r0, [r2], #-0
    4290:	746e6905 	strbtvc	r6, [lr], #-2309	; 0x905
    4294:	07040300 	streq	r0, [r4, -r0, lsl #6]
    4298:	00000194 	muleq	r0, r4, r1
    429c:	00002c04 	andeq	r2, r0, r4, lsl #24
    42a0:	06010300 	streq	r0, [r1], -r0, lsl #6
    42a4:	000000a3 	andeq	r0, r0, r3, lsr #1
    42a8:	e8050203 	stmda	r5, {r0, r1, r9}
    42ac:	03000000 	movweq	r0, #0
    42b0:	01b90504 			; <UNDEFINED> instruction: 0x01b90504
    42b4:	08030000 	stmdaeq	r3, {}	; <UNPREDICTABLE>
    42b8:	0001b405 	andeq	fp, r1, r5, lsl #8
    42bc:	08010300 	stmdaeq	r1, {r8, r9}
    42c0:	000000a1 	andeq	r0, r0, r1, lsr #1
    42c4:	c7070203 	strgt	r0, [r7, -r3, lsl #4]
    42c8:	03000000 	movweq	r0, #0
    42cc:	018f0704 	orreq	r0, pc, r4, lsl #14
    42d0:	08030000 	stmdaeq	r3, {}	; <UNPREDICTABLE>
    42d4:	00018a07 	andeq	r8, r1, r7, lsl #20
    42d8:	0c5c0500 	cfldr64eq	mvdx0, [ip], {-0}
    42dc:	07020000 	streq	r0, [r2, -r0]
    42e0:	00000025 	andeq	r0, r0, r5, lsr #32
    42e4:	000c4605 	andeq	r4, ip, r5, lsl #12
    42e8:	462c0300 	strtmi	r0, [ip], -r0, lsl #6
    42ec:	05000000 	streq	r0, [r0, #-0]
    42f0:	00000d22 	andeq	r0, r0, r2, lsr #26
    42f4:	00467203 	subeq	r7, r6, r3, lsl #4
    42f8:	ea060000 	b	184300 <__bss_end__+0x179da8>
    42fc:	0400000b 	streq	r0, [r0], #-11
    4300:	002c0165 	eoreq	r0, ip, r5, ror #2
    4304:	04070000 	streq	r0, [r7], #-0
    4308:	00bca603 	adcseq	sl, ip, r3, lsl #12
    430c:	d5080000 	strle	r0, [r8, #-0]
    4310:	0300000b 	movweq	r0, #11
    4314:	000091a8 	andeq	r9, r0, r8, lsr #3
    4318:	0b7d0800 	bleq	1f46320 <__bss_end__+0x1f3bdc8>
    431c:	a9030000 	stmdbge	r3, {}	; <UNPREDICTABLE>
    4320:	000000bc 	strheq	r0, [r0], -ip
    4324:	00540900 	subseq	r0, r4, r0, lsl #18
    4328:	00cc0000 	sbceq	r0, ip, r0
    432c:	cc0a0000 	stcgt	0, cr0, [sl], {-0}
    4330:	03000000 	movweq	r0, #0
    4334:	07040300 	streq	r0, [r4, -r0, lsl #6]
    4338:	000001ab 	andeq	r0, r0, fp, lsr #3
    433c:	a303080b 	movwge	r0, #14347	; 0x380b
    4340:	000000f4 	strdeq	r0, [r0], -r4
    4344:	000d070c 	andeq	r0, sp, ip, lsl #14
    4348:	25a50300 	strcs	r0, [r5, #768]!	; 0x300
    434c:	00000000 	andeq	r0, r0, r0
    4350:	000d0f0c 	andeq	r0, sp, ip, lsl #30
    4354:	9daa0300 	stcls	3, cr0, [sl]
    4358:	04000000 	streq	r0, [r0], #-0
    435c:	0c9a0500 	cfldr32eq	mvfx0, [sl], {0}
    4360:	ab030000 	blge	c4368 <__bss_end__+0xb9e10>
    4364:	000000d3 	ldrdeq	r0, [r0], -r3
    4368:	000b4605 	andeq	r4, fp, r5, lsl #12
    436c:	70af0300 	adcvc	r0, pc, r0, lsl #6
    4370:	0d000000 	stceq	0, cr0, [r0, #-0]
    4374:	12040e04 	andne	r0, r4, #4, 28	; 0x40
    4378:	03000001 	movweq	r0, #1
    437c:	00aa0801 	adceq	r0, sl, r1, lsl #16
    4380:	12040000 	andne	r0, r4, #0
    4384:	05000001 	streq	r0, [r0, #-1]
    4388:	00000dc4 	andeq	r0, r0, r4, asr #27
    438c:	00621605 	rsbeq	r1, r2, r5, lsl #12
    4390:	570f0000 	strpl	r0, [pc, -r0]
    4394:	1800000b 	stmdane	r0, {r0, r1, r3}
    4398:	017c2d05 	cmneq	ip, r5, lsl #26
    439c:	bb0c0000 	bllt	3043a4 <__bss_end__+0x2f9e4c>
    43a0:	0500000c 	streq	r0, [r0, #-12]
    43a4:	00017c2f 	andeq	r7, r1, pc, lsr #24
    43a8:	5f100000 	svcpl	0x00100000
    43ac:	3005006b 	andcc	r0, r5, fp, rrx
    43b0:	00000025 	andeq	r0, r0, r5, lsr #32
    43b4:	0cf20c04 	ldcleq	12, cr0, [r2], #16
    43b8:	30050000 	andcc	r0, r5, r0
    43bc:	00000025 	andeq	r0, r0, r5, lsr #32
    43c0:	0b320c08 	bleq	c873e8 <__bss_end__+0xc7ce90>
    43c4:	30050000 	andcc	r0, r5, r0
    43c8:	00000025 	andeq	r0, r0, r5, lsr #32
    43cc:	0e0b0c0c 	cdpeq	12, 0, cr0, cr11, cr12, {0}
    43d0:	30050000 	andcc	r0, r5, r0
    43d4:	00000025 	andeq	r0, r0, r5, lsr #32
    43d8:	785f1010 	ldmdavc	pc, {r4, ip}^	; <UNPREDICTABLE>
    43dc:	82310500 	eorshi	r0, r1, #0, 10
    43e0:	14000001 	strne	r0, [r0], #-1
    43e4:	29040e00 	stmdbcs	r4, {r9, sl, fp}
    43e8:	09000001 	stmdbeq	r0, {r0}
    43ec:	0000011e 	andeq	r0, r0, lr, lsl r1
    43f0:	00000192 	muleq	r0, r2, r1
    43f4:	0000cc0a 	andeq	ip, r0, sl, lsl #24
    43f8:	0f000000 	svceq	0x00000000
    43fc:	00000b78 	andeq	r0, r0, r8, ror fp
    4400:	0b350524 	bleq	d45898 <__bss_end__+0xd3b340>
    4404:	0c000002 	stceq	0, cr0, [r0], {2}
    4408:	00000a30 	andeq	r0, r0, r0, lsr sl
    440c:	00253705 	eoreq	r3, r5, r5, lsl #14
    4410:	0c000000 	stceq	0, cr0, [r0], {-0}
    4414:	00000d2a 	andeq	r0, r0, sl, lsr #26
    4418:	00253805 	eoreq	r3, r5, r5, lsl #16
    441c:	0c040000 	stceq	0, cr0, [r4], {-0}
    4420:	00000a5e 	andeq	r0, r0, lr, asr sl
    4424:	00253905 	eoreq	r3, r5, r5, lsl #18
    4428:	0c080000 	stceq	0, cr0, [r8], {-0}
    442c:	00000efb 	strdeq	r0, [r0], -fp
    4430:	00253a05 	eoreq	r3, r5, r5, lsl #20
    4434:	0c0c0000 	stceq	0, cr0, [ip], {-0}
    4438:	00000c2a 	andeq	r0, r0, sl, lsr #24
    443c:	00253b05 	eoreq	r3, r5, r5, lsl #22
    4440:	0c100000 	ldceq	0, cr0, [r0], {-0}
    4444:	00000bff 	strdeq	r0, [r0], -pc	; <UNPREDICTABLE>
    4448:	00253c05 	eoreq	r3, r5, r5, lsl #24
    444c:	0c140000 	ldceq	0, cr0, [r4], {-0}
    4450:	00000e10 	andeq	r0, r0, r0, lsl lr
    4454:	00253d05 	eoreq	r3, r5, r5, lsl #26
    4458:	0c180000 	ldceq	0, cr0, [r8], {-0}
    445c:	00000c7c 	andeq	r0, r0, ip, ror ip
    4460:	00253e05 	eoreq	r3, r5, r5, lsl #28
    4464:	0c1c0000 	ldceq	0, cr0, [ip], {-0}
    4468:	00000ec2 	andeq	r0, r0, r2, asr #29
    446c:	00253f05 	eoreq	r3, r5, r5, lsl #30
    4470:	00200000 	eoreq	r0, r0, r0
    4474:	000a6d11 	andeq	r6, sl, r1, lsl sp
    4478:	05010800 	streq	r0, [r1, #-2048]	; 0x800
    447c:	00024b48 	andeq	r4, r2, r8, asr #22
    4480:	0b190c00 	bleq	647488 <__bss_end__+0x63cf30>
    4484:	49050000 	stmdbmi	r5, {}	; <UNPREDICTABLE>
    4488:	0000024b 	andeq	r0, r0, fp, asr #4
    448c:	09ab0c00 	stmibeq	fp!, {sl, fp}
    4490:	4a050000 	bmi	144498 <__bss_end__+0x139f40>
    4494:	0000024b 	andeq	r0, r0, fp, asr #4
    4498:	0db61280 	lfmeq	f1, 4, [r6, #512]!	; 0x200
    449c:	4c050000 	stcmi	0, cr0, [r5], {-0}
    44a0:	0000011e 	andeq	r0, r0, lr, lsl r1
    44a4:	92120100 	andsls	r0, r2, #0, 2
    44a8:	0500000a 	streq	r0, [r0, #-10]
    44ac:	00011e4f 	andeq	r1, r1, pc, asr #28
    44b0:	00010400 	andeq	r0, r1, r0, lsl #8
    44b4:	00010a09 	andeq	r0, r1, r9, lsl #20
    44b8:	00025b00 	andeq	r5, r2, r0, lsl #22
    44bc:	00cc0a00 	sbceq	r0, ip, r0, lsl #20
    44c0:	001f0000 	andseq	r0, pc, r0
    44c4:	000c3311 	andeq	r3, ip, r1, lsl r3
    44c8:	05019000 	streq	r9, [r1, #-0]
    44cc:	0002995b 	andeq	r9, r2, fp, asr r9
    44d0:	0cbb0c00 	ldceq	12, cr0, [fp]
    44d4:	5c050000 	stcpl	0, cr0, [r5], {-0}
    44d8:	00000299 	muleq	r0, r9, r2
    44dc:	0cd30c00 	ldcleq	12, cr0, [r3], {0}
    44e0:	5d050000 	stcpl	0, cr0, [r5, #-0]
    44e4:	00000025 	andeq	r0, r0, r5, lsr #32
    44e8:	0b2d0c04 	bleq	b47500 <__bss_end__+0xb3cfa8>
    44ec:	5f050000 	svcpl	0x00050000
    44f0:	0000029f 	muleq	r0, pc, r2	; <UNPREDICTABLE>
    44f4:	0a6d0c08 	beq	1b4751c <__bss_end__+0x1b3cfc4>
    44f8:	60050000 	andvs	r0, r5, r0
    44fc:	0000020b 	andeq	r0, r0, fp, lsl #4
    4500:	040e0088 	streq	r0, [lr], #-136	; 0x88
    4504:	0000025b 	andeq	r0, r0, fp, asr r2
    4508:	0002af09 	andeq	sl, r2, r9, lsl #30
    450c:	0002af00 	andeq	sl, r2, r0, lsl #30
    4510:	00cc0a00 	sbceq	r0, ip, r0, lsl #20
    4514:	001f0000 	andseq	r0, pc, r0
    4518:	02b5040e 	adcseq	r0, r5, #234881024	; 0xe000000
    451c:	0f130000 	svceq	0x00130000
    4520:	00000c86 	andeq	r0, r0, r6, lsl #25
    4524:	db730508 	blle	1cc594c <__bss_end__+0x1cbb3f4>
    4528:	0c000002 	stceq	0, cr0, [r0], {2}
    452c:	00000a53 	andeq	r0, r0, r3, asr sl
    4530:	02db7405 	sbcseq	r7, fp, #83886080	; 0x5000000
    4534:	0c000000 	stceq	0, cr0, [r0], {-0}
    4538:	000009b7 			; <UNDEFINED> instruction: 0x000009b7
    453c:	00257505 	eoreq	r7, r5, r5, lsl #10
    4540:	00040000 	andeq	r0, r4, r0
    4544:	0054040e 	subseq	r0, r4, lr, lsl #8
    4548:	a50f0000 	strge	r0, [pc, #-0]	; 4550 <__code_start__-0x3ab0>
    454c:	6800000c 	stmdavs	r0, {r2, r3}
    4550:	040bb305 	streq	fp, [fp], #-773	; 0x305
    4554:	5f100000 	svcpl	0x00100000
    4558:	b4050070 	strlt	r0, [r5], #-112	; 0x70
    455c:	000002db 	ldrdeq	r0, [r0], -fp
    4560:	725f1000 	subsvc	r1, pc, #0
    4564:	25b50500 	ldrcs	r0, [r5, #1280]!	; 0x500
    4568:	04000000 	streq	r0, [r0], #-0
    456c:	00775f10 	rsbseq	r5, r7, r0, lsl pc
    4570:	0025b605 	eoreq	fp, r5, r5, lsl #12
    4574:	0c080000 	stceq	0, cr0, [r8], {-0}
    4578:	00000a8b 	andeq	r0, r0, fp, lsl #21
    457c:	003fb705 	eorseq	fp, pc, r5, lsl #14
    4580:	0c0c0000 	stceq	0, cr0, [ip], {-0}
    4584:	00000b9e 	muleq	r0, lr, fp
    4588:	003fb805 	eorseq	fp, pc, r5, lsl #16
    458c:	100e0000 	andne	r0, lr, r0
    4590:	0066625f 	rsbeq	r6, r6, pc, asr r2
    4594:	02b6b905 	adcseq	fp, r6, #81920	; 0x14000
    4598:	0c100000 	ldceq	0, cr0, [r0], {-0}
    459c:	000009fa 	strdeq	r0, [r0], -sl
    45a0:	0025ba05 	eoreq	fp, r5, r5, lsl #20
    45a4:	0c180000 	ldceq	0, cr0, [r8], {-0}
    45a8:	00000a7b 	andeq	r0, r0, fp, ror sl
    45ac:	010ac105 	tsteq	sl, r5, lsl #2
    45b0:	0c1c0000 	ldceq	0, cr0, [ip], {-0}
    45b4:	00000f22 	andeq	r0, r0, r2, lsr #30
    45b8:	0566c305 	strbeq	ip, [r6, #-773]!	; 0x305
    45bc:	0c200000 	stceq	0, cr0, [r0], #-0
    45c0:	00000f3c 	andeq	r0, r0, ip, lsr pc
    45c4:	0590c505 	ldreq	ip, [r0, #1285]	; 0x505
    45c8:	0c240000 	stceq	0, cr0, [r4], #-0
    45cc:	00000d17 	andeq	r0, r0, r7, lsl sp
    45d0:	05b4c805 	ldreq	ip, [r4, #2053]!	; 0x805
    45d4:	0c280000 	stceq	0, cr0, [r8], #-0
    45d8:	00000edc 	ldrdeq	r0, [r0], -ip
    45dc:	05cec905 	strbeq	ip, [lr, #2309]	; 0x905
    45e0:	102c0000 	eorne	r0, ip, r0
    45e4:	0062755f 	rsbeq	r7, r2, pc, asr r5
    45e8:	02b6cc05 	adcseq	ip, r6, #1280	; 0x500
    45ec:	10300000 	eorsne	r0, r0, r0
    45f0:	0070755f 	rsbseq	r7, r0, pc, asr r5
    45f4:	02dbcd05 	sbcseq	ip, fp, #320	; 0x140
    45f8:	10380000 	eorsne	r0, r8, r0
    45fc:	0072755f 	rsbseq	r7, r2, pc, asr r5
    4600:	0025ce05 	eoreq	ip, r5, r5, lsl #28
    4604:	0c3c0000 	ldceq	0, cr0, [ip], #-0
    4608:	00000a3e 	andeq	r0, r0, lr, lsr sl
    460c:	05d4d105 	ldrbeq	sp, [r4, #261]	; 0x105
    4610:	0c400000 	mareq	acc0, r0, r0
    4614:	00000e87 	andeq	r0, r0, r7, lsl #29
    4618:	05e4d205 	strbeq	sp, [r4, #517]!	; 0x205
    461c:	10430000 	subne	r0, r3, r0
    4620:	00626c5f 	rsbeq	r6, r2, pc, asr ip
    4624:	02b6d505 	adcseq	sp, r6, #20971520	; 0x1400000
    4628:	0c440000 	mareq	acc0, r0, r4
    462c:	00000aa1 	andeq	r0, r0, r1, lsr #21
    4630:	0025d805 	eoreq	sp, r5, r5, lsl #16
    4634:	0c4c0000 	mareq	acc0, r0, ip
    4638:	00000c09 	andeq	r0, r0, r9, lsl #24
    463c:	007bd905 	rsbseq	sp, fp, r5, lsl #18
    4640:	0c500000 	mraeq	r0, r0, acc0
    4644:	00000e72 	andeq	r0, r0, r2, ror lr
    4648:	0429dc05 	strteq	sp, [r9], #-3077	; 0xc05
    464c:	0c540000 	mraeq	r0, r4, acc0
    4650:	00000bf1 	strdeq	r0, [r0], -r1
    4654:	00ffe005 	rscseq	lr, pc, r5
    4658:	0c580000 	mraeq	r0, r8, acc0
    465c:	00000cad 	andeq	r0, r0, sp, lsr #25
    4660:	00f4e205 	rscseq	lr, r4, r5, lsl #4
    4664:	0c5c0000 	mraeq	r0, ip, acc0
    4668:	00000bf7 	strdeq	r0, [r0], -r7
    466c:	0025e305 	eoreq	lr, r5, r5, lsl #6
    4670:	00640000 	rsbeq	r0, r4, r0
    4674:	00002514 	andeq	r2, r0, r4, lsl r5
    4678:	00042900 	andeq	r2, r4, r0, lsl #18
    467c:	04291500 	strteq	r1, [r9], #-1280	; 0x500
    4680:	0a150000 	beq	544688 <__bss_end__+0x53a130>
    4684:	15000001 	strne	r0, [r0, #-1]
    4688:	0000010c 	andeq	r0, r0, ip, lsl #2
    468c:	00002515 	andeq	r2, r0, r5, lsl r5
    4690:	040e0000 	streq	r0, [lr], #-0
    4694:	00000434 	andeq	r0, r0, r4, lsr r4
    4698:	00042904 	andeq	r2, r4, r4, lsl #18
    469c:	0cfa1600 	ldcleq	6, cr1, [sl]
    46a0:	04280000 	strteq	r0, [r8], #-0
    46a4:	66023805 	strvs	r3, [r2], -r5, lsl #16
    46a8:	17000005 	strne	r0, [r0, -r5]
    46ac:	00000c75 	andeq	r0, r0, r5, ror ip
    46b0:	25023a05 	strcs	r3, [r2, #-2565]	; 0xa05
    46b4:	00000000 	andeq	r0, r0, r0
    46b8:	000a9a17 	andeq	r9, sl, r7, lsl sl
    46bc:	023f0500 	eorseq	r0, pc, #0, 10
    46c0:	0000063b 	andeq	r0, r0, fp, lsr r6
    46c4:	0b8e1704 	bleq	fe38a2dc <__bss_end__+0xfe37fd84>
    46c8:	3f050000 	svccc	0x00050000
    46cc:	00063b02 	andeq	r3, r6, r2, lsl #22
    46d0:	4f170800 	svcmi	0x00170800
    46d4:	0500000b 	streq	r0, [r0, #-11]
    46d8:	063b023f 			; <UNDEFINED> instruction: 0x063b023f
    46dc:	170c0000 	strne	r0, [ip, -r0]
    46e0:	00000cce 	andeq	r0, r0, lr, asr #25
    46e4:	25024105 	strcs	r4, [r2, #-261]	; 0x105
    46e8:	10000000 	andne	r0, r0, r0
    46ec:	0009c517 	andeq	ip, r9, r7, lsl r5
    46f0:	02420500 	subeq	r0, r2, #0, 10
    46f4:	0000081d 	andeq	r0, r0, sp, lsl r8
    46f8:	0dec1714 	stcleq	7, cr1, [ip, #80]!	; 0x50
    46fc:	44050000 	strmi	r0, [r5], #-0
    4700:	00002502 	andeq	r2, r0, r2, lsl #10
    4704:	d8173000 	ldmdale	r7, {ip, sp}
    4708:	0500000c 	streq	r0, [r0, #-12]
    470c:	058a0245 	streq	r0, [sl, #581]	; 0x245
    4710:	17340000 	ldrne	r0, [r4, -r0]!
    4714:	00000c3b 	andeq	r0, r0, fp, lsr ip
    4718:	25024705 	strcs	r4, [r2, #-1797]	; 0x705
    471c:	38000000 	stmdacc	r0, {}	; <UNPREDICTABLE>
    4720:	000ce817 	andeq	lr, ip, r7, lsl r8
    4724:	02490500 	subeq	r0, r9, #0, 10
    4728:	00000838 	andeq	r0, r0, r8, lsr r8
    472c:	0bcd173c 	bleq	ff34a424 <__bss_end__+0xff33fecc>
    4730:	4c050000 	stcmi	0, cr0, [r5], {-0}
    4734:	00017c02 	andeq	r7, r1, r2, lsl #24
    4738:	6e174000 	cdpvs	0, 1, cr4, cr7, cr0, {0}
    473c:	0500000b 	streq	r0, [r0, #-11]
    4740:	0025024d 	eoreq	r0, r5, sp, asr #4
    4744:	17440000 	strbne	r0, [r4, -r0]
    4748:	00000ef6 	strdeq	r0, [r0], -r6
    474c:	7c024e05 	stcvc	14, cr4, [r2], {5}
    4750:	48000001 	stmdami	r0, {r0}
    4754:	000c5217 	andeq	r5, ip, r7, lsl r2
    4758:	024f0500 	subeq	r0, pc, #0, 10
    475c:	0000083e 	andeq	r0, r0, lr, lsr r8
    4760:	0b96174c 	bleq	fe58a498 <__bss_end__+0xfe57ff40>
    4764:	52050000 	andpl	r0, r5, #0
    4768:	00002502 	andeq	r2, r0, r2, lsl #10
    476c:	bd175000 	ldclt	0, cr5, [r7, #-0]
    4770:	0500000a 	streq	r0, [r0, #-10]
    4774:	010c0253 	tsteq	ip, r3, asr r2
    4778:	17540000 	ldrbne	r0, [r4, -r0]
    477c:	00000c6e 	andeq	r0, r0, lr, ror #24
    4780:	fb027605 	blx	a1f9e <__bss_end__+0x97a46>
    4784:	58000007 	stmdapl	r0, {r0, r1, r2}
    4788:	000c3318 	andeq	r3, ip, r8, lsl r3
    478c:	027a0500 	rsbseq	r0, sl, #0, 10
    4790:	00000299 	muleq	r0, r9, r2
    4794:	ab180148 	blge	604cbc <__bss_end__+0x5fa764>
    4798:	0500000b 	streq	r0, [r0, #-11]
    479c:	025b027b 	subseq	r0, fp, #-1342177273	; 0xb0000007
    47a0:	014c0000 	mrseq	r0, (UNDEF: 76)
    47a4:	000e5818 	andeq	r5, lr, r8, lsl r8
    47a8:	027f0500 	rsbseq	r0, pc, #0, 10
    47ac:	0000084f 	andeq	r0, r0, pc, asr #16
    47b0:	831802dc 	tsthi	r8, #220, 4	; 0xc000000d
    47b4:	0500000a 	streq	r0, [r0, #-10]
    47b8:	06000284 	streq	r0, [r0], -r4, lsl #5
    47bc:	02e00000 	rsceq	r0, r0, #0
    47c0:	000a6818 	andeq	r6, sl, r8, lsl r8
    47c4:	02850500 	addeq	r0, r5, #0, 10
    47c8:	0000085b 	andeq	r0, r0, fp, asr r8
    47cc:	0e0002ec 	cdpeq	2, 0, cr0, cr0, cr12, {7}
    47d0:	00040b04 	andeq	r0, r4, r4, lsl #22
    47d4:	00251400 	eoreq	r1, r5, r0, lsl #8
    47d8:	058a0000 	streq	r0, [sl]
    47dc:	29150000 	ldmdbcs	r5, {}	; <UNPREDICTABLE>
    47e0:	15000004 	strne	r0, [r0, #-4]
    47e4:	0000010a 	andeq	r0, r0, sl, lsl #2
    47e8:	00058a15 	andeq	r8, r5, r5, lsl sl
    47ec:	00251500 	eoreq	r1, r5, r0, lsl #10
    47f0:	0e000000 	cdpeq	0, 0, cr0, cr0, cr0, {0}
    47f4:	00011904 	andeq	r1, r1, r4, lsl #18
    47f8:	6c040e00 	stcvs	14, cr0, [r4], {-0}
    47fc:	14000005 	strne	r0, [r0], #-5
    4800:	00000086 	andeq	r0, r0, r6, lsl #1
    4804:	000005b4 			; <UNDEFINED> instruction: 0x000005b4
    4808:	00042915 	andeq	r2, r4, r5, lsl r9
    480c:	010a1500 	tsteq	sl, r0, lsl #10
    4810:	86150000 	ldrhi	r0, [r5], -r0
    4814:	15000000 	strne	r0, [r0, #-0]
    4818:	00000025 	andeq	r0, r0, r5, lsr #32
    481c:	96040e00 	strls	r0, [r4], -r0, lsl #28
    4820:	14000005 	strne	r0, [r0], #-5
    4824:	00000025 	andeq	r0, r0, r5, lsr #32
    4828:	000005ce 	andeq	r0, r0, lr, asr #11
    482c:	00042915 	andeq	r2, r4, r5, lsl r9
    4830:	010a1500 	tsteq	sl, r0, lsl #10
    4834:	0e000000 	cdpeq	0, 0, cr0, cr0, cr0, {0}
    4838:	0005ba04 	andeq	fp, r5, r4, lsl #20
    483c:	00540900 	subseq	r0, r4, r0, lsl #18
    4840:	05e40000 	strbeq	r0, [r4, #0]!
    4844:	cc0a0000 	stcgt	0, cr0, [sl], {-0}
    4848:	02000000 	andeq	r0, r0, #0
    484c:	00540900 	subseq	r0, r4, r0, lsl #18
    4850:	05f40000 	ldrbeq	r0, [r4, #0]!
    4854:	cc0a0000 	stcgt	0, cr0, [sl], {-0}
    4858:	00000000 	andeq	r0, r0, r0
    485c:	0c930600 	ldceq	6, cr0, [r3], {0}
    4860:	1d050000 	stcne	0, cr0, [r5, #-0]
    4864:	0002e101 	andeq	lr, r2, r1, lsl #2
    4868:	0e1a1900 	cdpeq	9, 1, cr1, cr10, cr0, {0}
    486c:	050c0000 	streq	r0, [ip, #-0]
    4870:	06350121 	ldrteq	r0, [r5], -r1, lsr #2
    4874:	bb170000 	bllt	5c487c <__bss_end__+0x5ba324>
    4878:	0500000c 	streq	r0, [r0, #-12]
    487c:	06350123 	ldrteq	r0, [r5], -r3, lsr #2
    4880:	17000000 	strne	r0, [r0, -r0]
    4884:	00000ba4 	andeq	r0, r0, r4, lsr #23
    4888:	25012405 	strcs	r2, [r1, #-1029]	; 0x405
    488c:	04000000 	streq	r0, [r0], #-0
    4890:	000c8d17 	andeq	r8, ip, r7, lsl sp
    4894:	01250500 	teqeq	r5, r0, lsl #10
    4898:	0000063b 	andeq	r0, r0, fp, lsr r6
    489c:	040e0008 	streq	r0, [lr], #-8
    48a0:	00000600 	andeq	r0, r0, r0, lsl #12
    48a4:	05f4040e 	ldrbeq	r0, [r4, #1038]!	; 0x40e
    48a8:	bd190000 	ldclt	0, cr0, [r9, #-0]
    48ac:	0e000009 	cdpeq	0, 0, cr0, cr0, cr9, {0}
    48b0:	76013d05 	strvc	r3, [r1], -r5, lsl #26
    48b4:	17000006 	strne	r0, [r0, -r6]
    48b8:	00000d01 	andeq	r0, r0, r1, lsl #26
    48bc:	76013e05 	strvc	r3, [r1], -r5, lsl #28
    48c0:	00000006 	andeq	r0, r0, r6
    48c4:	000d3b17 	andeq	r3, sp, r7, lsl fp
    48c8:	013f0500 	teqeq	pc, r0, lsl #10
    48cc:	00000676 	andeq	r0, r0, r6, ror r6
    48d0:	0dbf1706 	ldceq	7, cr1, [pc, #24]!	; 48f0 <__code_start__-0x3710>
    48d4:	40050000 	andmi	r0, r5, r0
    48d8:	00005b01 	andeq	r5, r0, r1, lsl #22
    48dc:	09000c00 	stmdbeq	r0, {sl, fp}
    48e0:	0000005b 	andeq	r0, r0, fp, asr r0
    48e4:	00000686 	andeq	r0, r0, r6, lsl #13
    48e8:	0000cc0a 	andeq	ip, r0, sl, lsl #24
    48ec:	1a000200 	bne	50f4 <__code_start__-0x2f0c>
    48f0:	025705d0 	subseq	r0, r7, #208, 10	; 0x34000000
    48f4:	00000787 	andeq	r0, r0, r7, lsl #15
    48f8:	000dfe17 	andeq	pc, sp, r7, lsl lr	; <UNPREDICTABLE>
    48fc:	02590500 	subseq	r0, r9, #0, 10
    4900:	0000002c 	andeq	r0, r0, ip, lsr #32
    4904:	0da91700 	stceq	7, cr1, [r9]
    4908:	5a050000 	bpl	144910 <__bss_end__+0x13a3b8>
    490c:	00010c02 	andeq	r0, r1, r2, lsl #24
    4910:	c0170400 	andsgt	r0, r7, r0, lsl #8
    4914:	0500000b 	streq	r0, [r0, #-11]
    4918:	0787025b 			; <UNDEFINED> instruction: 0x0787025b
    491c:	17080000 	strne	r0, [r8, -r0]
    4920:	00000ecd 	andeq	r0, r0, sp, asr #29
    4924:	92025c05 	andls	r5, r2, #1280	; 0x500
    4928:	24000001 	strcs	r0, [r0], #-1
    492c:	000b5f17 	andeq	r5, fp, r7, lsl pc
    4930:	025d0500 	subseq	r0, sp, #0, 10
    4934:	00000025 	andeq	r0, r0, r5, lsr #32
    4938:	0cb61748 	ldceq	7, cr1, [r6], #288	; 0x120
    493c:	5e050000 	cdppl	0, 0, cr0, cr5, cr0, {0}
    4940:	00006902 	andeq	r6, r0, r2, lsl #18
    4944:	e3175000 	tst	r7, #0
    4948:	0500000e 	streq	r0, [r0, #-14]
    494c:	0641025f 			; <UNDEFINED> instruction: 0x0641025f
    4950:	17580000 	ldrbne	r0, [r8, -r0]
    4954:	00000cc1 	andeq	r0, r0, r1, asr #25
    4958:	f4026005 	vst4.8	{d6-d9}, [r2], r5
    495c:	68000000 	stmdavs	r0, {}	; <UNPREDICTABLE>
    4960:	000ee817 	andeq	lr, lr, r7, lsl r8
    4964:	02610500 	rsbeq	r0, r1, #0, 10
    4968:	000000f4 	strdeq	r0, [r0], -r4
    496c:	0a221770 	beq	88a734 <__bss_end__+0x8801dc>
    4970:	62050000 	andvs	r0, r5, #0
    4974:	0000f402 	andeq	pc, r0, r2, lsl #8
    4978:	3a177800 	bcc	5e2980 <__bss_end__+0x5d8428>
    497c:	0500000e 	streq	r0, [r0, #-14]
    4980:	07970263 	ldreq	r0, [r7, r3, ror #4]
    4984:	17800000 	strne	r0, [r0, r0]
    4988:	00000bb4 			; <UNDEFINED> instruction: 0x00000bb4
    498c:	a7026405 	strge	r6, [r2, -r5, lsl #8]
    4990:	88000007 	stmdahi	r0, {r0, r1, r2}
    4994:	000dcc17 	andeq	ip, sp, r7, lsl ip
    4998:	02650500 	rsbeq	r0, r5, #0, 10
    499c:	00000025 	andeq	r0, r0, r5, lsr #32
    49a0:	0b0b17a0 	bleq	2ca828 <__bss_end__+0x2c02d0>
    49a4:	66050000 	strvs	r0, [r5], -r0
    49a8:	0000f402 	andeq	pc, r0, r2, lsl #8
    49ac:	1317a400 	tstne	r7, #0, 8
    49b0:	0500000a 	streq	r0, [r0, #-10]
    49b4:	00f40267 	rscseq	r0, r4, r7, ror #4
    49b8:	17ac0000 	strne	r0, [ip, r0]!
    49bc:	00000afa 	strdeq	r0, [r0], -sl
    49c0:	f4026805 	vst2.8	{d6-d7}, [r2], r5
    49c4:	b4000000 	strlt	r0, [r0], #-0
    49c8:	0009da17 	andeq	sp, r9, r7, lsl sl
    49cc:	02690500 	rsbeq	r0, r9, #0, 10
    49d0:	000000f4 	strdeq	r0, [r0], -r4
    49d4:	09e917bc 	stmibeq	r9!, {r2, r3, r4, r5, r7, r8, r9, sl, ip}^
    49d8:	6a050000 	bvs	1449e0 <__bss_end__+0x13a488>
    49dc:	0000f402 	andeq	pc, r0, r2, lsl #8
    49e0:	7317c400 	tstvc	r7, #0, 8
    49e4:	0500000c 	streq	r0, [r0, #-12]
    49e8:	0025026b 	eoreq	r0, r5, fp, ror #4
    49ec:	00cc0000 	sbceq	r0, ip, r0
    49f0:	00011209 	andeq	r1, r1, r9, lsl #4
    49f4:	00079700 	andeq	r9, r7, r0, lsl #14
    49f8:	00cc0a00 	sbceq	r0, ip, r0, lsl #20
    49fc:	00190000 	andseq	r0, r9, r0
    4a00:	00011209 	andeq	r1, r1, r9, lsl #4
    4a04:	0007a700 	andeq	sl, r7, r0, lsl #14
    4a08:	00cc0a00 	sbceq	r0, ip, r0, lsl #20
    4a0c:	00070000 	andeq	r0, r7, r0
    4a10:	00011209 	andeq	r1, r1, r9, lsl #4
    4a14:	0007b700 	andeq	fp, r7, r0, lsl #14
    4a18:	00cc0a00 	sbceq	r0, ip, r0, lsl #20
    4a1c:	00170000 	andseq	r0, r7, r0
    4a20:	7005f01a 	andvc	pc, r5, sl, lsl r0	; <UNPREDICTABLE>
    4a24:	0007db02 	andeq	sp, r7, r2, lsl #22
    4a28:	0c231700 	stceq	7, cr1, [r3], #-0
    4a2c:	73050000 	movwvc	r0, #20480	; 0x5000
    4a30:	0007db02 	andeq	sp, r7, r2, lsl #22
    4a34:	31170000 	tstcc	r7, r0
    4a38:	0500000e 	streq	r0, [r0, #-14]
    4a3c:	07eb0274 			; <UNDEFINED> instruction: 0x07eb0274
    4a40:	00780000 	rsbseq	r0, r8, r0
    4a44:	0002db09 	andeq	sp, r2, r9, lsl #22
    4a48:	0007eb00 	andeq	lr, r7, r0, lsl #22
    4a4c:	00cc0a00 	sbceq	r0, ip, r0, lsl #20
    4a50:	001d0000 	andseq	r0, sp, r0
    4a54:	00002c09 	andeq	r2, r0, r9, lsl #24
    4a58:	0007fb00 	andeq	pc, r7, r0, lsl #22
    4a5c:	00cc0a00 	sbceq	r0, ip, r0, lsl #20
    4a60:	001d0000 	andseq	r0, sp, r0
    4a64:	5505f01b 	strpl	pc, [r5, #-27]
    4a68:	00081d02 	andeq	r1, r8, r2, lsl #26
    4a6c:	0cfa1c00 	ldcleq	12, cr1, [sl]
    4a70:	6c050000 	stcvs	0, cr0, [r5], {-0}
    4a74:	00068602 	andeq	r8, r6, r2, lsl #12
    4a78:	0e8d1c00 	cdpeq	12, 8, cr1, cr13, cr0, {0}
    4a7c:	75050000 	strvc	r0, [r5, #-0]
    4a80:	0007b702 	andeq	fp, r7, r2, lsl #14
    4a84:	12090000 	andne	r0, r9, #0
    4a88:	2d000001 	stccs	0, cr0, [r0, #-4]
    4a8c:	0a000008 	beq	4ab4 <__code_start__-0x354c>
    4a90:	000000cc 	andeq	r0, r0, ip, asr #1
    4a94:	381d0018 	ldmdacc	sp, {r3, r4}
    4a98:	15000008 	strne	r0, [r0, #-8]
    4a9c:	00000429 	andeq	r0, r0, r9, lsr #8
    4aa0:	2d040e00 	stccs	14, cr0, [r4, #-0]
    4aa4:	0e000008 	cdpeq	0, 0, cr0, cr0, cr8, {0}
    4aa8:	00017c04 	andeq	r7, r1, r4, lsl #24
    4aac:	084f1d00 	stmdaeq	pc, {r8, sl, fp, ip}^	; <UNPREDICTABLE>
    4ab0:	25150000 	ldrcs	r0, [r5, #-0]
    4ab4:	00000000 	andeq	r0, r0, r0
    4ab8:	0855040e 	ldmdaeq	r5, {r1, r2, r3, sl}^
    4abc:	040e0000 	streq	r0, [lr], #-0
    4ac0:	00000844 	andeq	r0, r0, r4, asr #16
    4ac4:	0005f409 	andeq	pc, r5, r9, lsl #8
    4ac8:	00086b00 	andeq	r6, r8, r0, lsl #22
    4acc:	00cc0a00 	sbceq	r0, ip, r0, lsl #20
    4ad0:	00020000 	andeq	r0, r2, r0
    4ad4:	000de01e 	andeq	lr, sp, lr, lsl r0
    4ad8:	02fd0500 	rscseq	r0, sp, #0, 10
    4adc:	00000429 	andeq	r0, r0, r9, lsr #8
    4ae0:	000dd91e 	andeq	sp, sp, lr, lsl r9
    4ae4:	02fe0500 	rscseq	r0, lr, #0, 10
    4ae8:	0000042f 	andeq	r0, r0, pc, lsr #8
    4aec:	00002514 	andeq	r2, r0, r4, lsl r5
    4af0:	00089200 	andeq	r9, r8, r0, lsl #4
    4af4:	00251500 	eoreq	r1, r5, r0, lsl #10
    4af8:	1f000000 	svcne	0x00000000
    4afc:	000005da 	ldrdeq	r0, [r0], -sl
    4b00:	089d1d06 	ldmeq	sp, {r1, r2, r8, sl, fp, ip}
    4b04:	040e0000 	streq	r0, [lr], #-0
    4b08:	00000883 	andeq	r0, r0, r3, lsl #17
    4b0c:	00002514 	andeq	r2, r0, r4, lsl r5
    4b10:	0008b200 	andeq	fp, r8, r0, lsl #4
    4b14:	058a1500 	streq	r1, [sl, #1280]	; 0x500
    4b18:	1f000000 	svcne	0x00000000
    4b1c:	00000617 	andeq	r0, r0, r7, lsl r6
    4b20:	08bd2206 	popeq	{r1, r2, r9, sp}
    4b24:	040e0000 	streq	r0, [lr], #-0
    4b28:	000008a3 	andeq	r0, r0, r3, lsr #17
    4b2c:	00540120 	subseq	r0, r4, r0, lsr #2
    4b30:	0c070000 	stceq	0, cr0, [r7], {-0}
    4b34:	00000900 	andeq	r0, r0, r0, lsl #18
    4b38:	000a0321 	andeq	r0, sl, r1, lsr #6
    4b3c:	20210000 	eorcs	r0, r1, r0
    4b40:	0100000e 	tsteq	r0, lr
    4b44:	000e7821 	andeq	r7, lr, r1, lsr #16
    4b48:	44210400 	strtmi	r0, [r1], #-1024	; 0x400
    4b4c:	0500000a 	streq	r0, [r0, #-10]
    4b50:	000bdb21 	andeq	sp, fp, r1, lsr #22
    4b54:	95210600 	strls	r0, [r1, #-1536]!	; 0x600
    4b58:	0700000e 	streq	r0, [r0, -lr]
    4b5c:	000ea421 	andeq	sl, lr, r1, lsr #8
    4b60:	b3210300 	teqlt	r1, #0, 6
    4b64:	0200000e 	andeq	r0, r0, #14
    4b68:	0f720500 	svceq	0x00720500
    4b6c:	15070000 	strne	r0, [r7, #-0]
    4b70:	000008c3 	andeq	r0, r0, r3, asr #17
    4b74:	000f4322 	andeq	r4, pc, r2, lsr #6
    4b78:	331d0100 	tstcc	sp, #0, 2
    4b7c:	1c000000 	stcne	0, cr0, [r0], {-0}
    4b80:	22202000 	eorcs	r2, r0, #0
    4b84:	00000f7e 	andeq	r0, r0, lr, ror pc
    4b88:	00331e01 	eorseq	r1, r3, r1, lsl #28
    4b8c:	00280000 	eoreq	r0, r8, r0
    4b90:	4d222020 	stcmi	0, cr2, [r2, #-128]!	; 0xffffff80
    4b94:	0100000f 	tsteq	r0, pc
    4b98:	0000331f 	andeq	r3, r0, pc, lsl r3
    4b9c:	20003400 	andcs	r3, r0, r0, lsl #8
    4ba0:	0f1e2320 	svceq	0x001e2320
    4ba4:	56010000 	strpl	r0, [r1], -r0
    4ba8:	00000025 	andeq	r0, r0, r5, lsr #32
    4bac:	00009934 	andeq	r9, r0, r4, lsr r9
    4bb0:	00000034 	andeq	r0, r0, r4, lsr r0
    4bb4:	09989c01 	ldmibeq	r8, {r0, sl, fp, ip, pc}
    4bb8:	70240000 	eorvc	r0, r4, r0
    4bbc:	01006e69 	tsteq	r0, r9, ror #28
    4bc0:	00002c56 	andeq	r2, r0, r6, asr ip
    4bc4:	000f1700 	andeq	r1, pc, r0, lsl #14
    4bc8:	0f122500 	svceq	0x00122500
    4bcc:	59010000 	stmdbpl	r1, {}	; <UNPREDICTABLE>
    4bd0:	0000002c 	andeq	r0, r0, ip, lsr #32
    4bd4:	00000f51 	andeq	r0, r0, r1, asr pc
    4bd8:	66666f26 	strbtvs	r6, [r6], -r6, lsr #30
    4bdc:	2c5a0100 	ldfcse	f0, [sl], {-0}
    4be0:	8f000000 	svchi	0x00000000
    4be4:	2700000f 	strcs	r0, [r0, -pc]
    4be8:	00009950 	andeq	r9, r0, r0, asr r9
    4bec:	00000b5d 	andeq	r0, r0, sp, asr fp
    4bf0:	0b500128 	bleq	1405098 <__bss_end__+0x13fab40>
    4bf4:	355001f3 	ldrbcc	r0, [r0, #-499]	; 0x1f3
    4bf8:	80b42325 	adcshi	r2, r4, r5, lsr #6
    4bfc:	00028180 	andeq	r8, r2, r0, lsl #3
    4c00:	0f382900 	svceq	0x00382900
    4c04:	4f010000 	svcmi	0x00010000
    4c08:	00009918 	andeq	r9, r0, r8, lsl r9
    4c0c:	0000001c 	andeq	r0, r0, ip, lsl r0
    4c10:	09e89c01 	stmibeq	r8!, {r0, sl, fp, ip, pc}^
    4c14:	70240000 	eorvc	r0, r4, r0
    4c18:	01006e69 	tsteq	r0, r9, ror #28
    4c1c:	00002c4f 	andeq	r2, r0, pc, asr #24
    4c20:	000fa200 	andeq	sl, pc, r0, lsl #4
    4c24:	00762400 	rsbseq	r2, r6, r0, lsl #8
    4c28:	002c4f01 	eoreq	r4, ip, r1, lsl #30
    4c2c:	0fdc0000 	svceq	0x00dc0000
    4c30:	282a0000 	stmdacs	sl!, {}	; <UNPREDICTABLE>
    4c34:	23000099 	movwcs	r0, #153	; 0x99
    4c38:	de00000a 	cdple	0, 0, cr0, cr0, cr10, {0}
    4c3c:	28000009 	stmdacs	r0, {r0, r3}
    4c40:	f3035001 	vhadd.u8	d5, d3, d1
    4c44:	2b005001 	blcs	18c50 <__bss_end__+0xe6f8>
    4c48:	00009930 	andeq	r9, r0, r0, lsr r9
    4c4c:	00000a64 	andeq	r0, r0, r4, ror #20
    4c50:	0f572900 	svceq	0x00572900
    4c54:	4a010000 	bmi	44c5c <__bss_end__+0x3a704>
    4c58:	00009908 	andeq	r9, r0, r8, lsl #18
    4c5c:	00000010 	andeq	r0, r0, r0, lsl r0
    4c60:	0a239c01 	beq	8ebc6c <__bss_end__+0x8e1714>
    4c64:	70240000 	eorvc	r0, r4, r0
    4c68:	01006e69 	tsteq	r0, r9, ror #28
    4c6c:	00002c4a 	andeq	r2, r0, sl, asr #24
    4c70:	00101600 	andseq	r1, r0, r0, lsl #12
    4c74:	99142700 	ldmdbls	r4, {r8, r9, sl, sp}
    4c78:	0ae00000 	beq	ff804c80 <__bss_end__+0xff7fa728>
    4c7c:	01280000 	teqeq	r8, r0
    4c80:	01f30350 	mvnseq	r0, r0, asr r3
    4c84:	51012850 	tstpl	r1, r0, asr r8
    4c88:	00003001 	andeq	r3, r0, r1
    4c8c:	000f0529 	andeq	r0, pc, r9, lsr #10
    4c90:	e4430100 	strb	r0, [r3], #-256	; 0x100
    4c94:	24000098 	strcs	r0, [r0], #-152	; 0x98
    4c98:	01000000 	mrseq	r0, (UNDEF: 0)
    4c9c:	000a649c 	muleq	sl, ip, r4
    4ca0:	69702400 	ldmdbvs	r0!, {sl, sp}^
    4ca4:	4301006e 	movwmi	r0, #4206	; 0x106e
    4ca8:	0000002c 	andeq	r0, r0, ip, lsr #32
    4cac:	00001037 	andeq	r1, r0, r7, lsr r0
    4cb0:	00990027 	addseq	r0, r9, r7, lsr #32
    4cb4:	000b6800 	andeq	r6, fp, r0, lsl #16
    4cb8:	50012800 	andpl	r2, r1, r0, lsl #16
    4cbc:	00280c05 	eoreq	r0, r8, r5, lsl #24
    4cc0:	01282020 	teqeq	r8, r0, lsr #32
    4cc4:	f3310551 	vqrshl.u64	q0, <illegal reg q0.5>, <illegal reg q0.5>
    4cc8:	00245001 	eoreq	r5, r4, r1
    4ccc:	0f662900 	svceq	0x00662900
    4cd0:	3c010000 	stccc	0, cr0, [r1], {-0}
    4cd4:	000098c0 	andeq	r9, r0, r0, asr #17
    4cd8:	00000024 	andeq	r0, r0, r4, lsr #32
    4cdc:	0aa59c01 	beq	fe96bce8 <__bss_end__+0xfe961790>
    4ce0:	70240000 	eorvc	r0, r4, r0
    4ce4:	01006e69 	tsteq	r0, r9, ror #28
    4ce8:	00002c3c 	andeq	r2, r0, ip, lsr ip
    4cec:	00105800 	andseq	r5, r0, r0, lsl #16
    4cf0:	98dc2700 	ldmls	ip, {r8, r9, sl, sp}^
    4cf4:	0b680000 	bleq	1a04cfc <__bss_end__+0x19fa7a4>
    4cf8:	01280000 	teqeq	r8, r0
    4cfc:	1c0c0550 	cfstr32ne	mvfx0, [ip], {80}	; 0x50
    4d00:	28202000 	stmdacs	r0!, {sp}
    4d04:	31055101 	tstcc	r5, r1, lsl #2
    4d08:	245001f3 	ldrbcs	r0, [r0], #-499	; 0x1f3
    4d0c:	28290000 	stmdacs	r9!, {}	; <UNPREDICTABLE>
    4d10:	0100000f 	tsteq	r0, pc
    4d14:	0098b037 	addseq	fp, r8, r7, lsr r0
    4d18:	00001000 	andeq	r1, r0, r0
    4d1c:	e09c0100 	adds	r0, ip, r0, lsl #2
    4d20:	2400000a 	strcs	r0, [r0], #-10
    4d24:	006e6970 	rsbeq	r6, lr, r0, ror r9
    4d28:	002c3701 	eoreq	r3, ip, r1, lsl #14
    4d2c:	10790000 	rsbsne	r0, r9, r0
    4d30:	bc270000 	stclt	0, cr0, [r7], #-0
    4d34:	e0000098 	mul	r0, r8, r0
    4d38:	2800000a 	stmdacs	r0, {r1, r3}
    4d3c:	f3035001 	vhadd.u8	d5, d3, d1
    4d40:	01285001 	teqeq	r8, r1
    4d44:	00310151 	eorseq	r0, r1, r1, asr r1
    4d48:	0c112900 	ldceq	9, cr2, [r1], {-0}
    4d4c:	28010000 	stmdacs	r1, {}	; <UNPREDICTABLE>
    4d50:	00009848 	andeq	r9, r0, r8, asr #16
    4d54:	00000068 	andeq	r0, r0, r8, rrx
    4d58:	0b5d9c01 	bleq	176bd64 <__bss_end__+0x176180c>
    4d5c:	70240000 	eorvc	r0, r4, r0
    4d60:	01006e69 	tsteq	r0, r9, ror #28
    4d64:	00002c28 	andeq	r2, r0, r8, lsr #24
    4d68:	00109a00 	andseq	r9, r0, r0, lsl #20
    4d6c:	0e5d2c00 	cdpeq	12, 5, cr2, cr13, cr0, {0}
    4d70:	28010000 	stmdacs	r1, {}	; <UNPREDICTABLE>
    4d74:	00000900 	andeq	r0, r0, r0, lsl #18
    4d78:	000010bb 	strheq	r1, [r0], -fp
    4d7c:	66666f2d 	strbtvs	r6, [r6], -sp, lsr #30
    4d80:	2c2d0100 	stfcss	f0, [sp], #-0
    4d84:	01000000 	mrseq	r0, (UNDEF: 0)
    4d88:	00672d54 	rsbeq	r2, r7, r4, asr sp
    4d8c:	002c2f01 	eoreq	r2, ip, r1, lsl #30
    4d90:	56010000 	strpl	r0, [r1], -r0
    4d94:	01007626 	tsteq	r0, r6, lsr #12
    4d98:	00002c31 	andeq	r2, r0, r1, lsr ip
    4d9c:	0010dc00 	andseq	sp, r0, r0, lsl #24
    4da0:	98942a00 	ldmls	r4, {r9, fp, sp}
    4da4:	0b5d0000 	bleq	1744dac <__bss_end__+0x173a854>
    4da8:	0b4c0000 	bleq	1304db0 <__bss_end__+0x12fa858>
    4dac:	01280000 	teqeq	r8, r0
    4db0:	00760250 	rsbseq	r0, r6, r0, asr r2
    4db4:	98a82700 	stmials	r8!, {r8, r9, sl, sp}
    4db8:	0b680000 	bleq	1a04dc0 <__bss_end__+0x19fa868>
    4dbc:	01280000 	teqeq	r8, r0
    4dc0:	00760250 	rsbseq	r0, r6, r0, asr r2
    4dc4:	7a2e0000 	bvc	b84dcc <__bss_end__+0xb7a874>
    4dc8:	7a000009 	bvc	4df4 <__code_start__-0x320c>
    4dcc:	06000009 	streq	r0, [r0], -r9
    4dd0:	08b42ea7 	ldmeq	r4!, {r0, r1, r2, r5, r7, r9, sl, fp, sp}
    4dd4:	08b40000 	ldmeq	r4!, {}	; <UNPREDICTABLE>
    4dd8:	9b060000 	blls	184de0 <__bss_end__+0x17a888>
	...

Disassembly of section .debug_abbrev:

00000000 <.debug_abbrev>:
       0:	25011101 	strcs	r1, [r1, #-257]	; 0x101
       4:	030b130e 	movweq	r1, #45838	; 0xb30e
       8:	110e1b0e 	tstne	lr, lr, lsl #22
       c:	10061201 	andne	r1, r6, r1, lsl #4
      10:	02000017 	andeq	r0, r0, #23
      14:	0b0b0024 	bleq	2c00ac <__bss_end__+0x2b5b54>
      18:	08030b3e 	stmdaeq	r3, {r1, r2, r3, r4, r5, r8, r9, fp}
      1c:	24030000 	strcs	r0, [r3], #-0
      20:	3e0b0b00 	vmlacc.f64	d0, d11, d0
      24:	000e030b 	andeq	r0, lr, fp, lsl #6
      28:	00160400 	andseq	r0, r6, r0, lsl #8
      2c:	0b3a0e03 	bleq	e83840 <__bss_end__+0xe792e8>
      30:	13490b3b 	movtne	r0, #39739	; 0x9b3b
      34:	0f050000 	svceq	0x00050000
      38:	490b0b00 	stmdbmi	fp, {r8, r9, fp}
      3c:	06000013 			; <UNDEFINED> instruction: 0x06000013
      40:	13490026 	movtne	r0, #36902	; 0x9026
      44:	01070000 	mrseq	r0, (UNDEF: 7)
      48:	01134901 	tsteq	r3, r1, lsl #18
      4c:	08000013 	stmdaeq	r0, {r0, r1, r4}
      50:	13490021 	movtne	r0, #36897	; 0x9021
      54:	00000b2f 	andeq	r0, r0, pc, lsr #22
      58:	03011309 	movweq	r1, #4873	; 0x1309
      5c:	3a0b0b0e 	bcc	2c2c9c <__bss_end__+0x2b8744>
      60:	010b3b0b 	tsteq	fp, fp, lsl #22
      64:	0a000013 	beq	b8 <__code_start__-0x7f48>
      68:	0e03000d 	cdpeq	0, 0, cr0, cr3, cr13, {0}
      6c:	0b3b0b3a 	bleq	ec2d5c <__bss_end__+0xeb8804>
      70:	0b381349 	bleq	e04d9c <__bss_end__+0xdfa844>
      74:	0d0b0000 	stceq	0, cr0, [fp, #-0]
      78:	3a080300 	bcc	200c80 <__bss_end__+0x1f6728>
      7c:	490b3b0b 	stmdbmi	fp, {r0, r1, r3, r8, r9, fp, ip, sp}
      80:	000b3813 	andeq	r3, fp, r3, lsl r8
      84:	00350c00 	eorseq	r0, r5, r0, lsl #24
      88:	150d0000 	strne	r0, [sp, #-0]
      8c:	01192701 	tsteq	r9, r1, lsl #14
      90:	0e000013 	mcreq	0, 0, r0, cr0, cr3, {0}
      94:	13490005 	movtne	r0, #36869	; 0x9005
      98:	150f0000 	strne	r0, [pc, #-0]	; a0 <__code_start__-0x7f60>
      9c:	49192701 	ldmdbmi	r9, {r0, r8, r9, sl, sp}
      a0:	00130113 	andseq	r0, r3, r3, lsl r1
      a4:	00351000 	eorseq	r1, r5, r0
      a8:	00001349 	andeq	r1, r0, r9, asr #6
      ac:	03012e11 	movweq	r2, #7697	; 0x1e11
      b0:	3b0b3a0e 	blcc	2ce8f0 <__bss_end__+0x2c4398>
      b4:	1119270b 	tstne	r9, fp, lsl #14
      b8:	40061201 	andmi	r1, r6, r1, lsl #4
      bc:	19429718 	stmdbne	r2, {r3, r4, r8, r9, sl, ip, pc}^
      c0:	00001301 	andeq	r1, r0, r1, lsl #6
      c4:	03000512 	movweq	r0, #1298	; 0x512
      c8:	3b0b3a08 	blcc	2ce8f0 <__bss_end__+0x2c4398>
      cc:	0213490b 	andseq	r4, r3, #180224	; 0x2c000
      d0:	13000018 	movwne	r0, #24
      d4:	0e03012e 	adfeqsp	f0, f3, #0.5
      d8:	0b3b0b3a 	bleq	ec2dc8 <__bss_end__+0xeb8870>
      dc:	13491927 	movtne	r1, #39207	; 0x9927
      e0:	06120111 			; <UNDEFINED> instruction: 0x06120111
      e4:	42971840 	addsmi	r1, r7, #64, 16	; 0x400000
      e8:	00130119 	andseq	r0, r3, r9, lsl r1
      ec:	00051400 	andeq	r1, r5, r0, lsl #8
      f0:	0b3a0803 	bleq	e82104 <__bss_end__+0xe77bac>
      f4:	13490b3b 	movtne	r0, #39739	; 0x9b3b
      f8:	00001702 	andeq	r1, r0, r2, lsl #14
      fc:	3f002e15 	svccc	0x00002e15
     100:	3a0e0319 	bcc	380d6c <__bss_end__+0x376814>
     104:	270b3b0b 	strcs	r3, [fp, -fp, lsl #22]
     108:	11134919 	tstne	r3, r9, lsl r9
     10c:	40061201 	andmi	r1, r6, r1, lsl #4
     110:	19429718 	stmdbne	r2, {r3, r4, r8, r9, sl, ip, pc}^
     114:	2e160000 	cdpcs	0, 1, cr0, cr6, cr0, {0}
     118:	03193f01 	tsteq	r9, #1, 30
     11c:	3b0b3a0e 	blcc	2ce95c <__bss_end__+0x2c4404>
     120:	1119270b 	tstne	r9, fp, lsl #14
     124:	40061201 	andmi	r1, r6, r1, lsl #4
     128:	19429718 	stmdbne	r2, {r3, r4, r8, r9, sl, ip, pc}^
     12c:	00001301 	andeq	r1, r0, r1, lsl #6
     130:	03003417 	movweq	r3, #1047	; 0x417
     134:	3b0b3a08 	blcc	2ce95c <__bss_end__+0x2c4404>
     138:	0213490b 	andseq	r4, r3, #180224	; 0x2c000
     13c:	18000018 	stmdane	r0, {r3, r4}
     140:	08030034 	stmdaeq	r3, {r2, r4, r5}
     144:	0b3b0b3a 	bleq	ec2e34 <__bss_end__+0xeb88dc>
     148:	00001349 	andeq	r1, r0, r9, asr #6
     14c:	03003419 	movweq	r3, #1049	; 0x419
     150:	3413490e 	ldrcc	r4, [r3], #-2318	; 0x90e
     154:	00180219 	andseq	r0, r8, r9, lsl r2
     158:	82891a00 	addhi	r1, r9, #0, 20
     15c:	01110001 	tsteq	r1, r1
     160:	00001331 	andeq	r1, r0, r1, lsr r3
     164:	0182891b 	orreq	r8, r2, fp, lsl r9
     168:	31011101 	tstcc	r1, r1, lsl #2
     16c:	00130113 	andseq	r0, r3, r3, lsl r1
     170:	828a1c00 	addhi	r1, sl, #0, 24
     174:	18020001 	stmdane	r2, {r0}
     178:	00184291 	mulseq	r8, r1, r2
     17c:	00341d00 	eorseq	r1, r4, r0, lsl #26
     180:	0b3a0e03 	bleq	e83994 <__bss_end__+0xe7943c>
     184:	13490b3b 	movtne	r0, #39739	; 0x9b3b
     188:	193c193f 	ldmdbne	ip!, {r0, r1, r2, r3, r4, r5, r8, fp, ip}
     18c:	2e1e0000 	cdpcs	0, 1, cr0, cr14, cr0, {0}
     190:	03193f00 	tsteq	r9, #0, 30
     194:	3b0b3a0e 	blcc	2ce9d4 <__bss_end__+0x2c447c>
     198:	3c19270b 	ldccc	7, cr2, [r9], {11}
     19c:	1f000019 	svcne	0x00000019
     1a0:	193f012e 	ldmdbne	pc!, {r1, r2, r3, r5, r8}	; <UNPREDICTABLE>
     1a4:	0b3a0e03 	bleq	e839b8 <__bss_end__+0xe79460>
     1a8:	19270b3b 	stmdbne	r7!, {r0, r1, r3, r4, r5, r8, r9, fp}
     1ac:	193c1349 	ldmdbne	ip!, {r0, r3, r6, r8, r9, ip}
     1b0:	00001301 	andeq	r1, r0, r1, lsl #6
     1b4:	00001820 	andeq	r1, r0, r0, lsr #16
     1b8:	11010000 	mrsne	r0, (UNDEF: 1)
     1bc:	130e2501 	movwne	r2, #58625	; 0xe501
     1c0:	1b0e030b 	blne	380df4 <__bss_end__+0x37689c>
     1c4:	1201110e 	andne	r1, r1, #-2147483645	; 0x80000003
     1c8:	00171006 	andseq	r1, r7, r6
     1cc:	00240200 	eoreq	r0, r4, r0, lsl #4
     1d0:	0b3e0b0b 	bleq	f82e04 <__bss_end__+0xf788ac>
     1d4:	00000803 	andeq	r0, r0, r3, lsl #16
     1d8:	0b002403 	bleq	91ec <va_printk+0x124>
     1dc:	030b3e0b 	movweq	r3, #48651	; 0xbe0b
     1e0:	0400000e 	streq	r0, [r0], #-14
     1e4:	0e030016 	mcreq	0, 0, r0, cr3, cr6, {0}
     1e8:	0b3b0b3a 	bleq	ec2ed8 <__bss_end__+0xeb8980>
     1ec:	00001349 	andeq	r1, r0, r9, asr #6
     1f0:	0b000f05 	bleq	3e0c <__code_start__-0x41f4>
     1f4:	0600000b 	streq	r0, [r0], -fp
     1f8:	0b0b000f 	bleq	2c023c <__bss_end__+0x2b5ce4>
     1fc:	00001349 	andeq	r1, r0, r9, asr #6
     200:	49002607 	stmdbmi	r0, {r0, r1, r2, r9, sl, sp}
     204:	08000013 	stmdaeq	r0, {r0, r1, r4}
     208:	19270115 	stmdbne	r7!, {r0, r2, r4, r8}
     20c:	00001301 	andeq	r1, r0, r1, lsl #6
     210:	49000509 	stmdbmi	r0, {r0, r3, r8, sl}
     214:	0a000013 	beq	268 <__code_start__-0x7d98>
     218:	0e03012e 	adfeqsp	f0, f3, #0.5
     21c:	0b3b0b3a 	bleq	ec2f0c <__bss_end__+0xeb89b4>
     220:	13491927 	movtne	r1, #39207	; 0x9927
     224:	13010b20 	movwne	r0, #6944	; 0x1b20
     228:	340b0000 	strcc	r0, [fp], #-0
     22c:	3a080300 	bcc	200e34 <__bss_end__+0x1f68dc>
     230:	490b3b0b 	stmdbmi	fp, {r0, r1, r3, r8, r9, fp, ip, sp}
     234:	0c000013 	stceq	0, cr0, [r0], {19}
     238:	08030005 	stmdaeq	r3, {r0, r2}
     23c:	0b3b0b3a 	bleq	ec2f2c <__bss_end__+0xeb89d4>
     240:	00001349 	andeq	r1, r0, r9, asr #6
     244:	03012e0d 	movweq	r2, #7693	; 0x1e0d
     248:	3b0b3a0e 	blcc	2cea88 <__bss_end__+0x2c4530>
     24c:	2019270b 	andscs	r2, r9, fp, lsl #14
     250:	0013010b 	andseq	r0, r3, fp, lsl #2
     254:	00340e00 	eorseq	r0, r4, r0, lsl #28
     258:	0b3a0e03 	bleq	e83a6c <__bss_end__+0xe79514>
     25c:	13490b3b 	movtne	r0, #39739	; 0x9b3b
     260:	2e0f0000 	cdpcs	0, 0, cr0, cr15, cr0, {0}
     264:	03193f01 	tsteq	r9, #1, 30
     268:	3b0b3a0e 	blcc	2ceaa8 <__bss_end__+0x2c4550>
     26c:	1119270b 	tstne	r9, fp, lsl #14
     270:	40061201 	andmi	r1, r6, r1, lsl #4
     274:	19429718 	stmdbne	r2, {r3, r4, r8, r9, sl, ip, pc}^
     278:	00001301 	andeq	r1, r0, r1, lsl #6
     27c:	03000510 	movweq	r0, #1296	; 0x510
     280:	3b0b3a0e 	blcc	2ceac0 <__bss_end__+0x2c4568>
     284:	0213490b 	andseq	r4, r3, #180224	; 0x2c000
     288:	11000017 	tstne	r0, r7, lsl r0
     28c:	0e030034 	mcreq	0, 0, r0, cr3, cr4, {1}
     290:	0b3b0b3a 	bleq	ec2f80 <__bss_end__+0xeb8a28>
     294:	17021349 	strne	r1, [r2, -r9, asr #6]
     298:	34120000 	ldrcc	r0, [r2], #-0
     29c:	490e0300 	stmdbmi	lr, {r8, r9}
     2a0:	02193413 	andseq	r3, r9, #318767104	; 0x13000000
     2a4:	13000018 	movwne	r0, #24
     2a8:	1331011d 	teqne	r1, #1073741831	; 0x40000007
     2ac:	06120111 			; <UNDEFINED> instruction: 0x06120111
     2b0:	0b590b58 	bleq	1643018 <__bss_end__+0x1638ac0>
     2b4:	00001301 	andeq	r1, r0, r1, lsl #6
     2b8:	11010b14 	tstne	r1, r4, lsl fp
     2bc:	00061201 	andeq	r1, r6, r1, lsl #4
     2c0:	00341500 	eorseq	r1, r4, r0, lsl #10
     2c4:	17021331 	smladxne	r2, r1, r3, r1
     2c8:	05160000 	ldreq	r0, [r6, #-0]
     2cc:	02133100 	andseq	r3, r3, #0, 2
     2d0:	17000017 	smladne	r0, r7, r0, r0
     2d4:	13310005 	teqne	r1, #5
     2d8:	0000051c 	andeq	r0, r0, ip, lsl r5
     2dc:	31000518 	tstcc	r0, r8, lsl r5
     2e0:	000b1c13 	andeq	r1, fp, r3, lsl ip
     2e4:	82891900 	addhi	r1, r9, #0, 18
     2e8:	01110001 	tsteq	r1, r1
     2ec:	00001331 	andeq	r1, r0, r1, lsr r3
     2f0:	0182891a 	orreq	r8, r2, sl, lsl r9
     2f4:	31011101 	tstcc	r1, r1, lsl #2
     2f8:	00130113 	andseq	r0, r3, r3, lsl r1
     2fc:	828a1b00 	addhi	r1, sl, #0, 22
     300:	18020001 	stmdane	r2, {r0}
     304:	00184291 	mulseq	r8, r1, r2
     308:	01011c00 	tsteq	r1, r0, lsl #24
     30c:	13011349 	movwne	r1, #4937	; 0x1349
     310:	211d0000 	tstcs	sp, r0
     314:	2f134900 	svccs	0x00134900
     318:	1e00000b 	cdpne	0, 0, cr0, cr0, cr11, {0}
     31c:	0e030034 	mcreq	0, 0, r0, cr3, cr4, {1}
     320:	19341349 	ldmdbne	r4!, {r0, r3, r6, r8, r9, ip}
     324:	00000e1c 	andeq	r0, r0, ip, lsl lr
     328:	0300051f 	movweq	r0, #1311	; 0x51f
     32c:	3b0b3a08 	blcc	2ceb54 <__bss_end__+0x2c45fc>
     330:	0213490b 	andseq	r4, r3, #180224	; 0x2c000
     334:	20000017 	andcs	r0, r0, r7, lsl r0
     338:	0e030034 	mcreq	0, 0, r0, cr3, cr4, {1}
     33c:	0b3b0b3a 	bleq	ec302c <__bss_end__+0xeb8ad4>
     340:	18021349 	stmdane	r2, {r0, r3, r6, r8, r9, ip}
     344:	34210000 	strtcc	r0, [r1], #-0
     348:	00133100 	andseq	r3, r3, r0, lsl #2
     34c:	011d2200 	tsteq	sp, r0, lsl #4
     350:	01111331 	tsteq	r1, r1, lsr r3
     354:	0b580612 	bleq	1601ba4 <__bss_end__+0x15f764c>
     358:	00000b59 	andeq	r0, r0, r9, asr fp
     35c:	31003423 	tstcc	r0, r3, lsr #8
     360:	00180213 	andseq	r0, r8, r3, lsl r2
     364:	82892400 	addhi	r2, r9, #0, 8
     368:	01110101 	tsteq	r1, r1, lsl #2
     36c:	34250000 	strtcc	r0, [r5], #-0
     370:	3a080300 	bcc	200f78 <__bss_end__+0x1f6a20>
     374:	490b3b0b 	stmdbmi	fp, {r0, r1, r3, r8, r9, fp, ip, sp}
     378:	00051c13 	andeq	r1, r5, r3, lsl ip
     37c:	00052600 	andeq	r2, r5, r0, lsl #12
     380:	0b3a0e03 	bleq	e83b94 <__bss_end__+0xe7963c>
     384:	13490b3b 	movtne	r0, #39739	; 0x9b3b
     388:	00001802 	andeq	r1, r0, r2, lsl #16
     38c:	31000527 	tstcc	r0, r7, lsr #10
     390:	00180213 	andseq	r0, r8, r3, lsl r2
     394:	00052800 	andeq	r2, r5, r0, lsl #16
     398:	0b3a0803 	bleq	e823ac <__bss_end__+0xe77e54>
     39c:	13490b3b 	movtne	r0, #39739	; 0x9b3b
     3a0:	00001802 	andeq	r1, r0, r2, lsl #16
     3a4:	31000529 	tstcc	r0, r9, lsr #10
     3a8:	00061c13 	andeq	r1, r6, r3, lsl ip
     3ac:	00342a00 	eorseq	r2, r4, r0, lsl #20
     3b0:	0b3a0e03 	bleq	e83bc4 <__bss_end__+0xe7966c>
     3b4:	13490b3b 	movtne	r0, #39739	; 0x9b3b
     3b8:	0000061c 	andeq	r0, r0, ip, lsl r6
     3bc:	31011d2b 	tstcc	r1, fp, lsr #26
     3c0:	12011113 	andne	r1, r1, #-1073741820	; 0xc0000004
     3c4:	590b5806 	stmdbpl	fp, {r1, r2, fp, ip, lr}
     3c8:	2c000005 	stccs	0, cr0, [r0], {5}
     3cc:	193f012e 	ldmdbne	pc!, {r1, r2, r3, r5, r8}	; <UNPREDICTABLE>
     3d0:	0b3a0e03 	bleq	e83be4 <__bss_end__+0xe7968c>
     3d4:	1927053b 	stmdbne	r7!, {r0, r1, r3, r4, r5, r8, sl}
     3d8:	01111349 	tsteq	r1, r9, asr #6
     3dc:	18400612 	stmdane	r0, {r1, r4, r9, sl}^
     3e0:	01194297 			; <UNDEFINED> instruction: 0x01194297
     3e4:	2d000013 	stccs	0, cr0, [r0, #-76]	; 0xffffffb4
     3e8:	08030005 	stmdaeq	r3, {r0, r2}
     3ec:	053b0b3a 	ldreq	r0, [fp, #-2874]!	; 0xb3a
     3f0:	17021349 	strne	r1, [r2, -r9, asr #6]
     3f4:	342e0000 	strtcc	r0, [lr], #-0
     3f8:	3a0e0300 	bcc	381000 <__bss_end__+0x376aa8>
     3fc:	49053b0b 	stmdbmi	r5, {r0, r1, r3, r8, r9, fp, ip, sp}
     400:	00170213 	andseq	r0, r7, r3, lsl r2
     404:	82892f00 	addhi	r2, r9, #0, 30
     408:	01110101 	tsteq	r1, r1, lsl #2
     40c:	00001331 	andeq	r1, r0, r1, lsr r3
     410:	03003430 	movweq	r3, #1072	; 0x430
     414:	3b0b3a0e 	blcc	2cec54 <__bss_end__+0x2c46fc>
     418:	3f13490b 	svccc	0x0013490b
     41c:	00180219 	andseq	r0, r8, r9, lsl r2
     420:	002e3100 	eoreq	r3, lr, r0, lsl #2
     424:	0e03193f 	mcreq	9, 0, r1, cr3, cr15, {1}
     428:	0b3b0b3a 	bleq	ec3118 <__bss_end__+0xeb8bc0>
     42c:	193c1927 	ldmdbne	ip!, {r0, r1, r2, r5, r8, fp, ip}
     430:	2e320000 	cdpcs	0, 3, cr0, cr2, cr0, {0}
     434:	03193f01 	tsteq	r9, #1, 30
     438:	3b0b3a0e 	blcc	2cec78 <__bss_end__+0x2c4720>
     43c:	4919270b 	ldmdbmi	r9, {r0, r1, r3, r8, r9, sl, sp}
     440:	01193c13 	tsteq	r9, r3, lsl ip
     444:	33000013 	movwcc	r0, #19
     448:	00000018 	andeq	r0, r0, r8, lsl r0
     44c:	01110100 	tsteq	r1, r0, lsl #2
     450:	0b130e25 	bleq	4c3cec <__bss_end__+0x4b9794>
     454:	0e1b0e03 	cdpeq	14, 1, cr0, cr11, cr3, {0}
     458:	06120111 			; <UNDEFINED> instruction: 0x06120111
     45c:	00001710 	andeq	r1, r0, r0, lsl r7
     460:	0b002402 	bleq	9470 <reset_vector+0xc>
     464:	030b3e0b 	movweq	r3, #48651	; 0xbe0b
     468:	03000008 	movweq	r0, #8
     46c:	0b0b0024 	bleq	2c0504 <__bss_end__+0x2b5fac>
     470:	0e030b3e 	vmoveq.16	d3[0], r0
     474:	16040000 	strne	r0, [r4], -r0
     478:	3a0e0300 	bcc	381080 <__bss_end__+0x376b28>
     47c:	490b3b0b 	stmdbmi	fp, {r0, r1, r3, r8, r9, fp, ip, sp}
     480:	05000013 	streq	r0, [r0, #-19]
     484:	0b0b000f 	bleq	2c04c8 <__bss_end__+0x2b5f70>
     488:	0f060000 	svceq	0x00060000
     48c:	490b0b00 	stmdbmi	fp, {r8, r9, fp}
     490:	07000013 	smladeq	r0, r3, r0, r0
     494:	13490026 	movtne	r0, #36902	; 0x9026
     498:	15080000 	strne	r0, [r8, #-0]
     49c:	01192701 	tsteq	r9, r1, lsl #14
     4a0:	09000013 	stmdbeq	r0, {r0, r1, r4}
     4a4:	13490005 	movtne	r0, #36869	; 0x9005
     4a8:	130a0000 	movwne	r0, #40960	; 0xa000
     4ac:	0b0e0301 	bleq	3810b8 <__bss_end__+0x376b60>
     4b0:	3b0b3a0b 	blcc	2cece4 <__bss_end__+0x2c478c>
     4b4:	0013010b 	andseq	r0, r3, fp, lsl #2
     4b8:	000d0b00 	andeq	r0, sp, r0, lsl #22
     4bc:	0b3a0e03 	bleq	e83cd0 <__bss_end__+0xe79778>
     4c0:	13490b3b 	movtne	r0, #39739	; 0x9b3b
     4c4:	00000b38 	andeq	r0, r0, r8, lsr fp
     4c8:	03000d0c 	movweq	r0, #3340	; 0xd0c
     4cc:	3b0b3a08 	blcc	2cecf4 <__bss_end__+0x2c479c>
     4d0:	3813490b 	ldmdacc	r3, {r0, r1, r3, r8, fp, lr}
     4d4:	0d00000b 	stceq	0, cr0, [r0, #-44]	; 0xffffffd4
     4d8:	00000035 	andeq	r0, r0, r5, lsr r0
     4dc:	2701150e 	strcs	r1, [r1, -lr, lsl #10]
     4e0:	01134919 	tsteq	r3, r9, lsl r9
     4e4:	0f000013 	svceq	0x00000013
     4e8:	13490035 	movtne	r0, #36917	; 0x9035
     4ec:	2e100000 	cdpcs	0, 1, cr0, cr0, cr0, {0}
     4f0:	3a0e0301 	bcc	3810fc <__bss_end__+0x376ba4>
     4f4:	270b3b0b 	strcs	r3, [fp, -fp, lsl #22]
     4f8:	20134919 	andscs	r4, r3, r9, lsl r9
     4fc:	0013010b 	andseq	r0, r3, fp, lsl #2
     500:	00341100 	eorseq	r1, r4, r0, lsl #2
     504:	0b3a0803 	bleq	e82518 <__bss_end__+0xe77fc0>
     508:	13490b3b 	movtne	r0, #39739	; 0x9b3b
     50c:	05120000 	ldreq	r0, [r2, #-0]
     510:	3a0e0300 	bcc	381118 <__bss_end__+0x376bc0>
     514:	490b3b0b 	stmdbmi	fp, {r0, r1, r3, r8, r9, fp, ip, sp}
     518:	13000013 	movwne	r0, #19
     51c:	0e030034 	mcreq	0, 0, r0, cr3, cr4, {1}
     520:	0b3b0b3a 	bleq	ec3210 <__bss_end__+0xeb8cb8>
     524:	00001349 	andeq	r1, r0, r9, asr #6
     528:	03012e14 	movweq	r2, #7700	; 0x1e14
     52c:	3b0b3a0e 	blcc	2ced6c <__bss_end__+0x2c4814>
     530:	1119270b 	tstne	r9, fp, lsl #14
     534:	40061201 	andmi	r1, r6, r1, lsl #4
     538:	19429718 	stmdbne	r2, {r3, r4, r8, r9, sl, ip, pc}^
     53c:	00001301 	andeq	r1, r0, r1, lsl #6
     540:	03000515 	movweq	r0, #1301	; 0x515
     544:	3b0b3a0e 	blcc	2ced84 <__bss_end__+0x2c482c>
     548:	0213490b 	andseq	r4, r3, #180224	; 0x2c000
     54c:	16000017 			; <UNDEFINED> instruction: 0x16000017
     550:	08030005 	stmdaeq	r3, {r0, r2}
     554:	0b3b0b3a 	bleq	ec3244 <__bss_end__+0xeb8cec>
     558:	17021349 	strne	r1, [r2, -r9, asr #6]
     55c:	34170000 	ldrcc	r0, [r7], #-0
     560:	490e0300 	stmdbmi	lr, {r8, r9}
     564:	02193413 	andseq	r3, r9, #318767104	; 0x13000000
     568:	18000018 	stmdane	r0, {r3, r4}
     56c:	08030034 	stmdaeq	r3, {r2, r4, r5}
     570:	0b3b0b3a 	bleq	ec3260 <__bss_end__+0xeb8d08>
     574:	17021349 	strne	r1, [r2, -r9, asr #6]
     578:	1d190000 	ldcne	0, cr0, [r9, #-0]
     57c:	11133101 	tstne	r3, r1, lsl #2
     580:	58061201 	stmdapl	r6, {r0, r9, ip}
     584:	010b590b 	tsteq	fp, fp, lsl #18
     588:	1a000013 	bne	5dc <__code_start__-0x7a24>
     58c:	0111010b 	tsteq	r1, fp, lsl #2
     590:	00000612 	andeq	r0, r0, r2, lsl r6
     594:	3100341b 	tstcc	r0, fp, lsl r4
     598:	1c000013 	stcne	0, cr0, [r0], {19}
     59c:	1331011d 	teqne	r1, #1073741831	; 0x40000007
     5a0:	06120111 			; <UNDEFINED> instruction: 0x06120111
     5a4:	0b590b58 	bleq	164330c <__bss_end__+0x1638db4>
     5a8:	341d0000 	ldrcc	r0, [sp], #-0
     5ac:	02133100 	andseq	r3, r3, #0, 2
     5b0:	1e000017 	mcrne	0, 0, r0, cr0, cr7, {0}
     5b4:	01018289 	smlabbeq	r1, r9, r2, r8
     5b8:	13310111 	teqne	r1, #1073741828	; 0x40000004
     5bc:	00001301 	andeq	r1, r0, r1, lsl #6
     5c0:	01828a1f 	orreq	r8, r2, pc, lsl sl
     5c4:	91180200 	tstls	r8, r0, lsl #4
     5c8:	00001842 	andeq	r1, r0, r2, asr #16
     5cc:	01828920 	orreq	r8, r2, r0, lsr #18
     5d0:	31011100 	mrscc	r1, (UNDEF: 17)
     5d4:	21000013 	tstcs	r0, r3, lsl r0
     5d8:	01018289 	smlabbeq	r1, r9, r2, r8
     5dc:	13010111 	movwne	r0, #4369	; 0x1111
     5e0:	89220000 	stmdbhi	r2!, {}	; <UNPREDICTABLE>
     5e4:	11010182 	smlabbne	r1, r2, r1, r0
     5e8:	00133101 	andseq	r3, r3, r1, lsl #2
     5ec:	01012300 	mrseq	r2, SP_irq
     5f0:	13011349 	movwne	r1, #4937	; 0x1349
     5f4:	21240000 	teqcs	r4, r0
     5f8:	2f134900 	svccs	0x00134900
     5fc:	2500000b 	strcs	r0, [r0, #-11]
     600:	0e030034 	mcreq	0, 0, r0, cr3, cr4, {1}
     604:	19341349 	ldmdbne	r4!, {r0, r3, r6, r8, r9, ip}
     608:	00000e1c 	andeq	r0, r0, ip, lsl lr
     60c:	03000526 	movweq	r0, #1318	; 0x526
     610:	3b0b3a08 	blcc	2cee38 <__bss_end__+0x2c48e0>
     614:	0013490b 	andseq	r4, r3, fp, lsl #18
     618:	012e2700 	teqeq	lr, r0, lsl #14
     61c:	0b3a0e03 	bleq	e83e30 <__bss_end__+0xe798d8>
     620:	19270b3b 	stmdbne	r7!, {r0, r1, r3, r4, r5, r8, r9, fp}
     624:	01111349 	tsteq	r1, r9, asr #6
     628:	18400612 	stmdane	r0, {r1, r4, r9, sl}^
     62c:	01194297 			; <UNDEFINED> instruction: 0x01194297
     630:	28000013 	stmdacs	r0, {r0, r1, r4}
     634:	0e030034 	mcreq	0, 0, r0, cr3, cr4, {1}
     638:	0b3b0b3a 	bleq	ec3328 <__bss_end__+0xeb8dd0>
     63c:	18021349 	stmdane	r2, {r0, r3, r6, r8, r9, ip}
     640:	05290000 	streq	r0, [r9, #-0]!
     644:	1c133100 	ldfnes	f3, [r3], {-0}
     648:	2a00000b 	bcs	67c <__code_start__-0x7984>
     64c:	13310005 	teqne	r1, #5
     650:	00001702 	andeq	r1, r0, r2, lsl #14
     654:	3100342b 	tstcc	r0, fp, lsr #8
     658:	00180213 	andseq	r0, r8, r3, lsl r2
     65c:	00342c00 	eorseq	r2, r4, r0, lsl #24
     660:	0b1c1331 	bleq	70532c <__bss_end__+0x6fadd4>
     664:	052d0000 	streq	r0, [sp, #-0]!
     668:	00133100 	andseq	r3, r3, r0, lsl #2
     66c:	00052e00 	andeq	r2, r5, r0, lsl #28
     670:	0b3a0803 	bleq	e82684 <__bss_end__+0xe7812c>
     674:	13490b3b 	movtne	r0, #39739	; 0x9b3b
     678:	00001802 	andeq	r1, r0, r2, lsl #16
     67c:	3f012e2f 	svccc	0x00012e2f
     680:	3a0e0319 	bcc	3812ec <__bss_end__+0x376d94>
     684:	270b3b0b 	strcs	r3, [fp, -fp, lsl #22]
     688:	11134919 	tstne	r3, r9, lsl r9
     68c:	40061201 	andmi	r1, r6, r1, lsl #4
     690:	19429718 	stmdbne	r2, {r3, r4, r8, r9, sl, ip, pc}^
     694:	00001301 	andeq	r1, r0, r1, lsl #6
     698:	03003430 	movweq	r3, #1072	; 0x430
     69c:	3b0b3a0e 	blcc	2ceedc <__bss_end__+0x2c4984>
     6a0:	3f13490b 	svccc	0x0013490b
     6a4:	00193c19 	andseq	r3, r9, r9, lsl ip
     6a8:	012e3100 	teqeq	lr, r0, lsl #2
     6ac:	0e03193f 	mcreq	9, 0, r1, cr3, cr15, {1}
     6b0:	0b3b0b3a 	bleq	ec33a0 <__bss_end__+0xeb8e48>
     6b4:	13491927 	movtne	r1, #39207	; 0x9927
     6b8:	1301193c 	movwne	r1, #6460	; 0x193c
     6bc:	18320000 	ldmdane	r2!, {}	; <UNPREDICTABLE>
     6c0:	33000000 	movwcc	r0, #0
     6c4:	193f002e 	ldmdbne	pc!, {r1, r2, r3, r5}	; <UNPREDICTABLE>
     6c8:	0b3a0e03 	bleq	e83edc <__bss_end__+0xe79984>
     6cc:	19270b3b 	stmdbne	r7!, {r0, r1, r3, r4, r5, r8, r9, fp}
     6d0:	0000193c 	andeq	r1, r0, ip, lsr r9
     6d4:	3f012e34 	svccc	0x00012e34
     6d8:	3a0e0319 	bcc	381344 <__bss_end__+0x376dec>
     6dc:	270b3b0b 	strcs	r3, [fp, -fp, lsl #22]
     6e0:	01193c19 	tsteq	r9, r9, lsl ip
     6e4:	00000013 	andeq	r0, r0, r3, lsl r0
     6e8:	25011101 	strcs	r1, [r1, #-257]	; 0x101
     6ec:	030b130e 	movweq	r1, #45838	; 0xb30e
     6f0:	110e1b0e 	tstne	lr, lr, lsl #22
     6f4:	10061201 	andne	r1, r6, r1, lsl #4
     6f8:	02000017 	andeq	r0, r0, #23
     6fc:	0e030016 	mcreq	0, 0, r0, cr3, cr6, {0}
     700:	0b3b0b3a 	bleq	ec33f0 <__bss_end__+0xeb8e98>
     704:	00001349 	andeq	r1, r0, r9, asr #6
     708:	03011303 	movweq	r1, #4867	; 0x1303
     70c:	3a0b0b0e 	bcc	2c334c <__bss_end__+0x2b8df4>
     710:	010b3b0b 	tsteq	fp, fp, lsl #22
     714:	04000013 	streq	r0, [r0], #-19
     718:	0e03000d 	cdpeq	0, 0, cr0, cr3, cr13, {0}
     71c:	0b381349 	bleq	e05448 <__bss_end__+0xdfaef0>
     720:	00001934 	andeq	r1, r0, r4, lsr r9
     724:	0b000f05 	bleq	4340 <__code_start__-0x3cc0>
     728:	0600000b 	streq	r0, [r0], -fp
     72c:	0b0b0024 	bleq	2c07c4 <__bss_end__+0x2b626c>
     730:	08030b3e 	stmdaeq	r3, {r1, r2, r3, r4, r5, r8, r9, fp}
     734:	24070000 	strcs	r0, [r7], #-0
     738:	3e0b0b00 	vmlacc.f64	d0, d11, d0
     73c:	000e030b 	andeq	r0, lr, fp, lsl #6
     740:	000f0800 	andeq	r0, pc, r0, lsl #16
     744:	13490b0b 	movtne	r0, #39691	; 0x9b0b
     748:	26090000 	strcs	r0, [r9], -r0
     74c:	00134900 	andseq	r4, r3, r0, lsl #18
     750:	012e0a00 	teqeq	lr, r0, lsl #20
     754:	0e03193f 	mcreq	9, 0, r1, cr3, cr15, {1}
     758:	0b3b0b3a 	bleq	ec3448 <__bss_end__+0xeb8ef0>
     75c:	13491927 	movtne	r1, #39207	; 0x9927
     760:	06120111 			; <UNDEFINED> instruction: 0x06120111
     764:	42971840 	addsmi	r1, r7, #64, 16	; 0x400000
     768:	00130119 	andseq	r0, r3, r9, lsl r1
     76c:	00050b00 	andeq	r0, r5, r0, lsl #22
     770:	0b3a0803 	bleq	e82784 <__bss_end__+0xe7822c>
     774:	13490b3b 	movtne	r0, #39739	; 0x9b3b
     778:	00001802 	andeq	r1, r0, r2, lsl #16
     77c:	0000180c 	andeq	r1, r0, ip, lsl #16
     780:	00340d00 	eorseq	r0, r4, r0, lsl #26
     784:	0b3a0803 	bleq	e82798 <__bss_end__+0xe78240>
     788:	13490b3b 	movtne	r0, #39739	; 0x9b3b
     78c:	00001802 	andeq	r1, r0, r2, lsl #16
     790:	0300340e 	movweq	r3, #1038	; 0x40e
     794:	3b0b3a0e 	blcc	2cefd4 <__bss_end__+0x2c4a7c>
     798:	0213490b 	andseq	r4, r3, #180224	; 0x2c000
     79c:	0f000018 	svceq	0x00000018
     7a0:	08030034 	stmdaeq	r3, {r2, r4, r5}
     7a4:	0b3b0b3a 	bleq	ec3494 <__bss_end__+0xeb8f3c>
     7a8:	17021349 	strne	r1, [r2, -r9, asr #6]
     7ac:	89100000 	ldmdbhi	r0, {}	; <UNPREDICTABLE>
     7b0:	11010182 	smlabbne	r1, r2, r1, r0
     7b4:	01133101 	tsteq	r3, r1, lsl #2
     7b8:	11000013 	tstne	r0, r3, lsl r0
     7bc:	0001828a 	andeq	r8, r1, sl, lsl #5
     7c0:	42911802 	addsmi	r1, r1, #131072	; 0x20000
     7c4:	12000018 	andne	r0, r0, #24
     7c8:	01018289 	smlabbeq	r1, r9, r2, r8
     7cc:	00000111 	andeq	r0, r0, r1, lsl r1
     7d0:	49010113 	stmdbmi	r1, {r0, r1, r4, r8}
     7d4:	00130113 	andseq	r0, r3, r3, lsl r1
     7d8:	00211400 	eoreq	r1, r1, r0, lsl #8
     7dc:	052f1349 	streq	r1, [pc, #-841]!	; 49b <__code_start__-0x7b65>
     7e0:	15150000 	ldrne	r0, [r5, #-0]
     7e4:	49192701 	ldmdbmi	r9, {r0, r8, r9, sl, sp}
     7e8:	00130113 	andseq	r0, r3, r3, lsl r1
     7ec:	00051600 	andeq	r1, r5, r0, lsl #12
     7f0:	00001349 	andeq	r1, r0, r9, asr #6
     7f4:	03003417 	movweq	r3, #1047	; 0x417
     7f8:	3b0b3a0e 	blcc	2cf038 <__bss_end__+0x2c4ae0>
     7fc:	3f13490b 	svccc	0x0013490b
     800:	00193c19 	andseq	r3, r9, r9, lsl ip
     804:	012e1800 	teqeq	lr, r0, lsl #16
     808:	0e03193f 	mcreq	9, 0, r1, cr3, cr15, {1}
     80c:	0b3b0b3a 	bleq	ec34fc <__bss_end__+0xeb8fa4>
     810:	13491927 	movtne	r1, #39207	; 0x9927
     814:	0000193c 	andeq	r1, r0, ip, lsr r9
     818:	01110100 	tsteq	r1, r0, lsl #2
     81c:	0b130e25 	bleq	4c40b8 <__bss_end__+0x4b9b60>
     820:	0e1b0e03 	cdpeq	14, 1, cr0, cr11, cr3, {0}
     824:	06120111 			; <UNDEFINED> instruction: 0x06120111
     828:	00001710 	andeq	r1, r0, r0, lsl r7
     82c:	0b002402 	bleq	983c <uart_has_data+0x4>
     830:	030b3e0b 	movweq	r3, #48651	; 0xbe0b
     834:	03000008 	movweq	r0, #8
     838:	0b0b0024 	bleq	2c08d0 <__bss_end__+0x2b6378>
     83c:	0e030b3e 	vmoveq.16	d3[0], r0
     840:	2e040000 	cdpcs	0, 0, cr0, cr4, cr0, {0}
     844:	3a0e0301 	bcc	381450 <__bss_end__+0x376ef8>
     848:	270b3b0b 	strcs	r3, [fp, -fp, lsl #22]
     84c:	11134919 	tstne	r3, r9, lsl r9
     850:	40061201 	andmi	r1, r6, r1, lsl #4
     854:	19429718 	stmdbne	r2, {r3, r4, r8, r9, sl, ip, pc}^
     858:	00001301 	andeq	r1, r0, r1, lsl #6
     85c:	03000505 	movweq	r0, #1285	; 0x505
     860:	3b0b3a08 	blcc	2cf088 <__bss_end__+0x2c4b30>
     864:	0213490b 	andseq	r4, r3, #180224	; 0x2c000
     868:	06000017 			; <UNDEFINED> instruction: 0x06000017
     86c:	01018289 	smlabbeq	r1, r9, r2, r8
     870:	13310111 	teqne	r1, #1073741828	; 0x40000004
     874:	8a070000 	bhi	1c087c <__bss_end__+0x1b6324>
     878:	02000182 	andeq	r0, r0, #-2147483616	; 0x80000020
     87c:	18429118 	stmdane	r2, {r3, r4, r8, ip, pc}^
     880:	2e080000 	cdpcs	0, 0, cr0, cr8, cr0, {0}
     884:	03193f00 	tsteq	r9, #0, 30
     888:	3b0b3a0e 	blcc	2cf0c8 <__bss_end__+0x2c4b70>
     88c:	1119270b 	tstne	r9, fp, lsl #14
     890:	40061201 	andmi	r1, r6, r1, lsl #4
     894:	19429718 	stmdbne	r2, {r3, r4, r8, r9, sl, ip, pc}^
     898:	2e090000 	cdpcs	0, 0, cr0, cr9, cr0, {0}
     89c:	03193f01 	tsteq	r9, #1, 30
     8a0:	3b0b3a0e 	blcc	2cf0e0 <__bss_end__+0x2c4b88>
     8a4:	1119270b 	tstne	r9, fp, lsl #14
     8a8:	40061201 	andmi	r1, r6, r1, lsl #4
     8ac:	19429718 	stmdbne	r2, {r3, r4, r8, r9, sl, ip, pc}^
     8b0:	00001301 	andeq	r1, r0, r1, lsl #6
     8b4:	0300050a 	movweq	r0, #1290	; 0x50a
     8b8:	3b0b3a08 	blcc	2cf0e0 <__bss_end__+0x2c4b88>
     8bc:	0213490b 	andseq	r4, r3, #180224	; 0x2c000
     8c0:	0b000018 	bleq	928 <__code_start__-0x76d8>
     8c4:	19270115 	stmdbne	r7!, {r0, r2, r4, r8}
     8c8:	13011349 	movwne	r1, #4937	; 0x1349
     8cc:	050c0000 	streq	r0, [ip, #-0]
     8d0:	00134900 	andseq	r4, r3, r0, lsl #18
     8d4:	000f0d00 	andeq	r0, pc, r0, lsl #26
     8d8:	13490b0b 	movtne	r0, #39691	; 0x9b0b
     8dc:	340e0000 	strcc	r0, [lr], #-0
     8e0:	3a0e0300 	bcc	3814e8 <__bss_end__+0x376f90>
     8e4:	490b3b0b 	stmdbmi	fp, {r0, r1, r3, r8, r9, fp, ip, sp}
     8e8:	02193f13 	andseq	r3, r9, #19, 30	; 0x4c
     8ec:	0f000018 	svceq	0x00000018
     8f0:	193f012e 	ldmdbne	pc!, {r1, r2, r3, r5, r8}	; <UNPREDICTABLE>
     8f4:	0b3a0e03 	bleq	e84108 <__bss_end__+0xe79bb0>
     8f8:	19270b3b 	stmdbne	r7!, {r0, r1, r3, r4, r5, r8, r9, fp}
     8fc:	0000193c 	andeq	r1, r0, ip, lsr r9
     900:	01110100 	tsteq	r1, r0, lsl #2
     904:	0b130e25 	bleq	4c41a0 <__bss_end__+0x4b9c48>
     908:	0e1b0e03 	cdpeq	14, 1, cr0, cr11, cr3, {0}
     90c:	06120111 			; <UNDEFINED> instruction: 0x06120111
     910:	00001710 	andeq	r1, r0, r0, lsl r7
     914:	0b002402 	bleq	9924 <gpio_write+0xc>
     918:	030b3e0b 	movweq	r3, #48651	; 0xbe0b
     91c:	03000008 	movweq	r0, #8
     920:	0b0b0024 	bleq	2c09b8 <__bss_end__+0x2b6460>
     924:	0e030b3e 	vmoveq.16	d3[0], r0
     928:	0f040000 	svceq	0x00040000
     92c:	490b0b00 	stmdbmi	fp, {r8, r9, fp}
     930:	05000013 	streq	r0, [r0, #-19]
     934:	13490026 	movtne	r0, #36902	; 0x9026
     938:	2e060000 	cdpcs	0, 0, cr0, cr6, cr0, {0}
     93c:	03193f01 	tsteq	r9, #1, 30
     940:	3b0b3a0e 	blcc	2cf180 <__bss_end__+0x2c4c28>
     944:	4919270b 	ldmdbmi	r9, {r0, r1, r3, r8, r9, sl, sp}
     948:	12011113 	andne	r1, r1, #-1073741820	; 0xc0000004
     94c:	96184006 	ldrls	r4, [r8], -r6
     950:	13011942 	movwne	r1, #6466	; 0x1942
     954:	05070000 	streq	r0, [r7, #-0]
     958:	3a080300 	bcc	201560 <__bss_end__+0x1f7008>
     95c:	490b3b0b 	stmdbmi	fp, {r0, r1, r3, r8, r9, fp, ip, sp}
     960:	00170213 	andseq	r0, r7, r3, lsl r2
     964:	01150800 	tsteq	r5, r0, lsl #16
     968:	13491927 	movtne	r1, #39207	; 0x9927
     96c:	00001301 	andeq	r1, r0, r1, lsl #6
     970:	49000509 	stmdbmi	r0, {r0, r3, r8, sl}
     974:	0a000013 	beq	9c8 <__code_start__-0x7638>
     978:	0e030034 	mcreq	0, 0, r0, cr3, cr4, {1}
     97c:	0b3b0b3a 	bleq	ec366c <__bss_end__+0xeb9114>
     980:	193f1349 	ldmdbne	pc!, {r0, r3, r6, r8, r9, ip}	; <UNPREDICTABLE>
     984:	0000193c 	andeq	r1, r0, ip, lsr r9
     988:	0300340b 	movweq	r3, #1035	; 0x40b
     98c:	3b0b3a0e 	blcc	2cf1cc <__bss_end__+0x2c4c74>
     990:	3f13490b 	svccc	0x0013490b
     994:	00180219 	andseq	r0, r8, r9, lsl r2
     998:	11010000 	mrsne	r0, (UNDEF: 1)
     99c:	130e2501 	movwne	r2, #58625	; 0xe501
     9a0:	1b0e030b 	blne	3815d4 <__bss_end__+0x37707c>
     9a4:	1201110e 	andne	r1, r1, #-2147483645	; 0x80000003
     9a8:	00171006 	andseq	r1, r7, r6
     9ac:	00240200 	eoreq	r0, r4, r0, lsl #4
     9b0:	0b3e0b0b 	bleq	f835e4 <__bss_end__+0xf7908c>
     9b4:	00000803 	andeq	r0, r0, r3, lsl #16
     9b8:	0b002403 	bleq	99cc <__data_end__+0x5c>
     9bc:	030b3e0b 	movweq	r3, #48651	; 0xbe0b
     9c0:	0400000e 	streq	r0, [r0], #-14
     9c4:	0b0b000f 	bleq	2c0a08 <__bss_end__+0x2b64b0>
     9c8:	0f050000 	svceq	0x00050000
     9cc:	490b0b00 	stmdbmi	fp, {r8, r9, fp}
     9d0:	06000013 			; <UNDEFINED> instruction: 0x06000013
     9d4:	13490026 	movtne	r0, #36902	; 0x9026
     9d8:	16070000 	strne	r0, [r7], -r0
     9dc:	3a0e0300 	bcc	3815e4 <__bss_end__+0x37708c>
     9e0:	490b3b0b 	stmdbmi	fp, {r0, r1, r3, r8, r9, fp, ip, sp}
     9e4:	08000013 	stmdaeq	r0, {r0, r1, r4}
     9e8:	0e030113 	mcreq	1, 0, r0, cr3, cr3, {0}
     9ec:	0b3a0b0b 	bleq	e83620 <__bss_end__+0xe790c8>
     9f0:	13010b3b 	movwne	r0, #6971	; 0x1b3b
     9f4:	0d090000 	stceq	0, cr0, [r9, #-0]
     9f8:	490e0300 	stmdbmi	lr, {r8, r9}
     9fc:	340b3813 	strcc	r3, [fp], #-2067	; 0x813
     a00:	0a000019 	beq	a6c <__code_start__-0x7594>
     a04:	0e03012e 	adfeqsp	f0, f3, #0.5
     a08:	0b3b0b3a 	bleq	ec36f8 <__bss_end__+0xeb91a0>
     a0c:	13491927 	movtne	r1, #39207	; 0x9927
     a10:	06120111 			; <UNDEFINED> instruction: 0x06120111
     a14:	42971840 	addsmi	r1, r7, #64, 16	; 0x400000
     a18:	00130119 	andseq	r0, r3, r9, lsl r1
     a1c:	00050b00 	andeq	r0, r5, r0, lsl #22
     a20:	0b3a0803 	bleq	e82a34 <__bss_end__+0xe784dc>
     a24:	13490b3b 	movtne	r0, #39739	; 0x9b3b
     a28:	00001702 	andeq	r1, r0, r2, lsl #14
     a2c:	03012e0c 	movweq	r2, #7692	; 0x1e0c
     a30:	3b0b3a08 	blcc	2cf258 <__bss_end__+0x2c4d00>
     a34:	4919270b 	ldmdbmi	r9, {r0, r1, r3, r8, r9, sl, sp}
     a38:	12011113 	andne	r1, r1, #-1073741820	; 0xc0000004
     a3c:	97184006 	ldrls	r4, [r8, -r6]
     a40:	13011942 	movwne	r1, #6466	; 0x1942
     a44:	050d0000 	streq	r0, [sp, #-0]
     a48:	3a0e0300 	bcc	381650 <__bss_end__+0x3770f8>
     a4c:	490b3b0b 	stmdbmi	fp, {r0, r1, r3, r8, r9, fp, ip, sp}
     a50:	00170213 	andseq	r0, r7, r3, lsl r2
     a54:	00050e00 	andeq	r0, r5, r0, lsl #28
     a58:	0b3a0e03 	bleq	e8426c <__bss_end__+0xe79d14>
     a5c:	13490b3b 	movtne	r0, #39739	; 0x9b3b
     a60:	00001802 	andeq	r1, r0, r2, lsl #16
     a64:	0300340f 	movweq	r3, #1039	; 0x40f
     a68:	3b0b3a08 	blcc	2cf290 <__bss_end__+0x2c4d38>
     a6c:	0213490b 	andseq	r4, r3, #180224	; 0x2c000
     a70:	10000018 	andne	r0, r0, r8, lsl r0
     a74:	08030034 	stmdaeq	r3, {r2, r4, r5}
     a78:	0b3b0b3a 	bleq	ec3768 <__bss_end__+0xeb9210>
     a7c:	17021349 	strne	r1, [r2, -r9, asr #6]
     a80:	34110000 	ldrcc	r0, [r1], #-0
     a84:	490e0300 	stmdbmi	lr, {r8, r9}
     a88:	02193413 	andseq	r3, r9, #318767104	; 0x13000000
     a8c:	12000018 	andne	r0, r0, #24
     a90:	0111010b 	tsteq	r1, fp, lsl #2
     a94:	13010612 	movwne	r0, #5650	; 0x1612
     a98:	34130000 	ldrcc	r0, [r3], #-0
     a9c:	3a0e0300 	bcc	3816a4 <__bss_end__+0x37714c>
     aa0:	490b3b0b 	stmdbmi	fp, {r0, r1, r3, r8, r9, fp, ip, sp}
     aa4:	00170213 	andseq	r0, r7, r3, lsl r2
     aa8:	82891400 	addhi	r1, r9, #0, 8
     aac:	01110001 	tsteq	r1, r1
     ab0:	00001331 	andeq	r1, r0, r1, lsr r3
     ab4:	01828915 	orreq	r8, r2, r5, lsl r9
     ab8:	31011101 	tstcc	r1, r1, lsl #2
     abc:	00130113 	andseq	r0, r3, r3, lsl r1
     ac0:	828a1600 	addhi	r1, sl, #0, 12
     ac4:	18020001 	stmdane	r2, {r0}
     ac8:	00184291 	mulseq	r8, r1, r2
     acc:	82891700 	addhi	r1, r9, #0, 14
     ad0:	01110101 	tsteq	r1, r1, lsl #2
     ad4:	00001331 	andeq	r1, r0, r1, lsr r3
     ad8:	49010118 	stmdbmi	r1, {r3, r4, r8}
     adc:	00130113 	andseq	r0, r3, r3, lsl r1
     ae0:	00211900 	eoreq	r1, r1, r0, lsl #18
     ae4:	0b2f1349 	bleq	bc5810 <__bss_end__+0xbbb2b8>
     ae8:	2e1a0000 	cdpcs	0, 1, cr0, cr10, cr0, {0}
     aec:	03193f01 	tsteq	r9, #1, 30
     af0:	3b0b3a0e 	blcc	2cf330 <__bss_end__+0x2c4dd8>
     af4:	1119270b 	tstne	r9, fp, lsl #14
     af8:	40061201 	andmi	r1, r6, r1, lsl #4
     afc:	19429718 	stmdbne	r2, {r3, r4, r8, r9, sl, ip, pc}^
     b00:	00001301 	andeq	r1, r0, r1, lsl #6
     b04:	2701151b 	smladcs	r1, fp, r5, r1
     b08:	01134919 	tsteq	r3, r9, lsl r9
     b0c:	1c000013 	stcne	0, cr0, [r0], {19}
     b10:	13490005 	movtne	r0, #36869	; 0x9005
     b14:	2e1d0000 	cdpcs	0, 1, cr0, cr13, cr0, {0}
     b18:	03193f01 	tsteq	r9, #1, 30
     b1c:	3b0b3a0e 	blcc	2cf35c <__bss_end__+0x2c4e04>
     b20:	4919270b 	ldmdbmi	r9, {r0, r1, r3, r8, r9, sl, sp}
     b24:	12011113 	andne	r1, r1, #-1073741820	; 0xc0000004
     b28:	97184006 	ldrls	r4, [r8, -r6]
     b2c:	13011942 	movwne	r1, #6466	; 0x1942
     b30:	0b1e0000 	bleq	780b38 <__bss_end__+0x7765e0>
     b34:	12011101 	andne	r1, r1, #1073741824	; 0x40000000
     b38:	1f000006 	svcne	0x00000006
     b3c:	01018289 	smlabbeq	r1, r9, r2, r8
     b40:	13010111 	movwne	r0, #4369	; 0x1111
     b44:	34200000 	strtcc	r0, [r0], #-0
     b48:	3a0e0300 	bcc	381750 <__bss_end__+0x3771f8>
     b4c:	490b3b0b 	stmdbmi	fp, {r0, r1, r3, r8, r9, fp, ip, sp}
     b50:	3c193f13 	ldccc	15, cr3, [r9], {19}
     b54:	21000019 	tstcs	r0, r9, lsl r0
     b58:	193f002e 	ldmdbne	pc!, {r1, r2, r3, r5}	; <UNPREDICTABLE>
     b5c:	0b3a0e03 	bleq	e84370 <__bss_end__+0xe79e18>
     b60:	19270b3b 	stmdbne	r7!, {r0, r1, r3, r4, r5, r8, r9, fp}
     b64:	0000193c 	andeq	r1, r0, ip, lsr r9
     b68:	3f012e22 	svccc	0x00012e22
     b6c:	3a0e0319 	bcc	3817d8 <__bss_end__+0x377280>
     b70:	270b3b0b 	strcs	r3, [fp, -fp, lsl #22]
     b74:	3c134919 	ldccc	9, cr4, [r3], {25}
     b78:	00130119 	andseq	r0, r3, r9, lsl r1
     b7c:	00182300 	andseq	r2, r8, r0, lsl #6
     b80:	01000000 	mrseq	r0, (UNDEF: 0)
     b84:	0e250111 	mcreq	1, 1, r0, cr5, cr1, {0}
     b88:	0e030b13 	vmoveq.32	d3[0], r0
     b8c:	01110e1b 	tsteq	r1, fp, lsl lr
     b90:	17100612 			; <UNDEFINED> instruction: 0x17100612
     b94:	24020000 	strcs	r0, [r2], #-0
     b98:	3e0b0b00 	vmlacc.f64	d0, d11, d0
     b9c:	0008030b 	andeq	r0, r8, fp, lsl #6
     ba0:	00240300 	eoreq	r0, r4, r0, lsl #6
     ba4:	0b3e0b0b 	bleq	f837d8 <__bss_end__+0xf79280>
     ba8:	00000e03 	andeq	r0, r0, r3, lsl #28
     bac:	3f012e04 	svccc	0x00012e04
     bb0:	3a0e0319 	bcc	38181c <__bss_end__+0x3772c4>
     bb4:	270b3b0b 	strcs	r3, [fp, -fp, lsl #22]
     bb8:	12011119 	andne	r1, r1, #1073741830	; 0x40000006
     bbc:	97184006 	ldrls	r4, [r8, -r6]
     bc0:	13011942 	movwne	r1, #6466	; 0x1942
     bc4:	34050000 	strcc	r0, [r5], #-0
     bc8:	3a080300 	bcc	2017d0 <__bss_end__+0x1f7278>
     bcc:	490b3b0b 	stmdbmi	fp, {r0, r1, r3, r8, r9, fp, ip, sp}
     bd0:	00170213 	andseq	r0, r7, r3, lsl r2
     bd4:	012e0600 	teqeq	lr, r0, lsl #12
     bd8:	0e03193f 	mcreq	9, 0, r1, cr3, cr15, {1}
     bdc:	0b3b0b3a 	bleq	ec38cc <__bss_end__+0xeb9374>
     be0:	01111927 	tsteq	r1, r7, lsr #18
     be4:	18400612 	stmdane	r0, {r1, r4, r9, sl}^
     be8:	00194297 	mulseq	r9, r7, r2
     bec:	11010000 	mrsne	r0, (UNDEF: 1)
     bf0:	130e2501 	movwne	r2, #58625	; 0xe501
     bf4:	1b0e030b 	blne	381828 <__bss_end__+0x3772d0>
     bf8:	1201110e 	andne	r1, r1, #-2147483645	; 0x80000003
     bfc:	00171006 	andseq	r1, r7, r6
     c00:	00240200 	eoreq	r0, r4, r0, lsl #4
     c04:	0b3e0b0b 	bleq	f83838 <__bss_end__+0xf792e0>
     c08:	00000803 	andeq	r0, r0, r3, lsl #16
     c0c:	0b002403 	bleq	9c20 <__FUNCTION__.4451+0x60>
     c10:	030b3e0b 	movweq	r3, #48651	; 0xbe0b
     c14:	0400000e 	streq	r0, [r0], #-14
     c18:	0b0b000f 	bleq	2c0c5c <__bss_end__+0x2b6704>
     c1c:	00001349 	andeq	r1, r0, r9, asr #6
     c20:	49002605 	stmdbmi	r0, {r0, r2, r9, sl, sp}
     c24:	06000013 			; <UNDEFINED> instruction: 0x06000013
     c28:	193f012e 	ldmdbne	pc!, {r1, r2, r3, r5, r8}	; <UNPREDICTABLE>
     c2c:	0b3a0e03 	bleq	e84440 <__bss_end__+0xe79ee8>
     c30:	19270b3b 	stmdbne	r7!, {r0, r1, r3, r4, r5, r8, r9, fp}
     c34:	06120111 			; <UNDEFINED> instruction: 0x06120111
     c38:	42971840 	addsmi	r1, r7, #64, 16	; 0x400000
     c3c:	00130119 	andseq	r0, r3, r9, lsl r1
     c40:	82890700 	addhi	r0, r9, #0, 14
     c44:	01110001 	tsteq	r1, r1
     c48:	00001331 	andeq	r1, r0, r1, lsr r3
     c4c:	01828908 	orreq	r8, r2, r8, lsl #18
     c50:	01011101 	tsteq	r1, r1, lsl #2
     c54:	09000013 	stmdbeq	r0, {r0, r1, r4}
     c58:	0001828a 	andeq	r8, r1, sl, lsl #5
     c5c:	42911802 	addsmi	r1, r1, #131072	; 0x20000
     c60:	0a000018 	beq	cc8 <__code_start__-0x7338>
     c64:	01018289 	smlabbeq	r1, r9, r2, r8
     c68:	13310111 	teqne	r1, #1073741828	; 0x40000004
     c6c:	00001301 	andeq	r1, r0, r1, lsl #6
     c70:	2701150b 	strcs	r1, [r1, -fp, lsl #10]
     c74:	01134919 	tsteq	r3, r9, lsl r9
     c78:	0c000013 	stceq	0, cr0, [r0], {19}
     c7c:	13490005 	movtne	r0, #36869	; 0x9005
     c80:	340d0000 	strcc	r0, [sp], #-0
     c84:	3a0e0300 	bcc	38188c <__bss_end__+0x377334>
     c88:	490b3b0b 	stmdbmi	fp, {r0, r1, r3, r8, r9, fp, ip, sp}
     c8c:	3c193f13 	ldccc	15, cr3, [r9], {19}
     c90:	0e000019 	mcreq	0, 0, r0, cr0, cr9, {0}
     c94:	193f002e 	ldmdbne	pc!, {r1, r2, r3, r5}	; <UNPREDICTABLE>
     c98:	0b3a0e03 	bleq	e844ac <__bss_end__+0xe79f54>
     c9c:	19270b3b 	stmdbne	r7!, {r0, r1, r3, r4, r5, r8, r9, fp}
     ca0:	0000193c 	andeq	r1, r0, ip, lsr r9
     ca4:	3f012e0f 	svccc	0x00012e0f
     ca8:	3a0e0319 	bcc	381914 <__bss_end__+0x3773bc>
     cac:	270b3b0b 	strcs	r3, [fp, -fp, lsl #22]
     cb0:	01193c19 	tsteq	r9, r9, lsl ip
     cb4:	00000013 	andeq	r0, r0, r3, lsl r0
     cb8:	25011101 	strcs	r1, [r1, #-257]	; 0x101
     cbc:	030b130e 	movweq	r1, #45838	; 0xb30e
     cc0:	110e1b0e 	tstne	lr, lr, lsl #22
     cc4:	10061201 	andne	r1, r6, r1, lsl #4
     cc8:	02000017 	andeq	r0, r0, #23
     ccc:	0b0b0024 	bleq	2c0d64 <__bss_end__+0x2b680c>
     cd0:	08030b3e 	stmdaeq	r3, {r1, r2, r3, r4, r5, r8, r9, fp}
     cd4:	24030000 	strcs	r0, [r3], #-0
     cd8:	3e0b0b00 	vmlacc.f64	d0, d11, d0
     cdc:	000e030b 	andeq	r0, lr, fp, lsl #6
     ce0:	012e0400 	teqeq	lr, r0, lsl #8
     ce4:	0e03193f 	mcreq	9, 0, r1, cr3, cr15, {1}
     ce8:	0b3b0b3a 	bleq	ec39d8 <__bss_end__+0xeb9480>
     cec:	06120111 			; <UNDEFINED> instruction: 0x06120111
     cf0:	42971840 	addsmi	r1, r7, #64, 16	; 0x400000
     cf4:	00130119 	andseq	r0, r3, r9, lsl r1
     cf8:	00340500 	eorseq	r0, r4, r0, lsl #10
     cfc:	0b3a0e03 	bleq	e84510 <__bss_end__+0xe79fb8>
     d00:	13490b3b 	movtne	r0, #39739	; 0x9b3b
     d04:	193c193f 	ldmdbne	ip!, {r0, r1, r2, r3, r4, r5, r8, fp, ip}
     d08:	2e060000 	cdpcs	0, 0, cr0, cr6, cr0, {0}
     d0c:	03193f00 	tsteq	r9, #0, 30
     d10:	3b0b3a0e 	blcc	2cf550 <__bss_end__+0x2c4ff8>
     d14:	3c19270b 	ldccc	7, cr2, [r9], {11}
     d18:	07000019 	smladeq	r0, r9, r0, r0
     d1c:	08030034 	stmdaeq	r3, {r2, r4, r5}
     d20:	0b3b0b3a 	bleq	ec3a10 <__bss_end__+0xeb94b8>
     d24:	17021349 	strne	r1, [r2, -r9, asr #6]
     d28:	34080000 	strcc	r0, [r8], #-0
     d2c:	3a0e0300 	bcc	381934 <__bss_end__+0x3773dc>
     d30:	490b3b0b 	stmdbmi	fp, {r0, r1, r3, r8, r9, fp, ip, sp}
     d34:	09000013 	stmdbeq	r0, {r0, r1, r4}
     d38:	00018289 	andeq	r8, r1, r9, lsl #5
     d3c:	13310111 	teqne	r1, #1073741828	; 0x40000004
     d40:	0f0a0000 	svceq	0x000a0000
     d44:	490b0b00 	stmdbmi	fp, {r8, r9, fp}
     d48:	00000013 	andeq	r0, r0, r3, lsl r0
     d4c:	25011101 	strcs	r1, [r1, #-257]	; 0x101
     d50:	030b130e 	movweq	r1, #45838	; 0xb30e
     d54:	110e1b0e 	tstne	lr, lr, lsl #22
     d58:	10061201 	andne	r1, r6, r1, lsl #4
     d5c:	02000017 	andeq	r0, r0, #23
     d60:	0b0b0024 	bleq	2c0df8 <__bss_end__+0x2b68a0>
     d64:	08030b3e 	stmdaeq	r3, {r1, r2, r3, r4, r5, r8, r9, fp}
     d68:	24030000 	strcs	r0, [r3], #-0
     d6c:	3e0b0b00 	vmlacc.f64	d0, d11, d0
     d70:	000e030b 	andeq	r0, lr, fp, lsl #6
     d74:	000f0400 	andeq	r0, pc, r0, lsl #8
     d78:	13490b0b 	movtne	r0, #39691	; 0x9b0b
     d7c:	26050000 	strcs	r0, [r5], -r0
     d80:	00134900 	andseq	r4, r3, r0, lsl #18
     d84:	012e0600 	teqeq	lr, r0, lsl #12
     d88:	0e03193f 	mcreq	9, 0, r1, cr3, cr15, {1}
     d8c:	0b3b0b3a 	bleq	ec3a7c <__bss_end__+0xeb9524>
     d90:	01111927 	tsteq	r1, r7, lsr #18
     d94:	18400612 	stmdane	r0, {r1, r4, r9, sl}^
     d98:	01194297 			; <UNDEFINED> instruction: 0x01194297
     d9c:	07000013 	smladeq	r0, r3, r0, r0
     da0:	08030005 	stmdaeq	r3, {r0, r2}
     da4:	0b3b0b3a 	bleq	ec3a94 <__bss_end__+0xeb953c>
     da8:	17021349 	strne	r1, [r2, -r9, asr #6]
     dac:	34080000 	strcc	r0, [r8], #-0
     db0:	490e0300 	stmdbmi	lr, {r8, r9}
     db4:	02193413 	andseq	r3, r9, #318767104	; 0x13000000
     db8:	09000018 	stmdbeq	r0, {r3, r4}
     dbc:	00018289 	andeq	r8, r1, r9, lsl #5
     dc0:	13310111 	teqne	r1, #1073741828	; 0x40000004
     dc4:	890a0000 	stmdbhi	sl, {}	; <UNPREDICTABLE>
     dc8:	11010182 	smlabbne	r1, r2, r1, r0
     dcc:	01133101 	tsteq	r3, r1, lsl #2
     dd0:	0b000013 	bleq	e24 <__code_start__-0x71dc>
     dd4:	0001828a 	andeq	r8, r1, sl, lsl #5
     dd8:	42911802 	addsmi	r1, r1, #131072	; 0x20000
     ddc:	0c000018 	stceq	0, cr0, [r0], {24}
     de0:	13490101 	movtne	r0, #37121	; 0x9101
     de4:	00001301 	andeq	r1, r0, r1, lsl #6
     de8:	4900210d 	stmdbmi	r0, {r0, r2, r3, r8, sp}
     dec:	000b2f13 	andeq	r2, fp, r3, lsl pc
     df0:	002e0e00 	eoreq	r0, lr, r0, lsl #28
     df4:	0e03193f 	mcreq	9, 0, r1, cr3, cr15, {1}
     df8:	0b3b0b3a 	bleq	ec3ae8 <__bss_end__+0xeb9590>
     dfc:	193c1927 	ldmdbne	ip!, {r0, r1, r2, r5, r8, fp, ip}
     e00:	2e0f0000 	cdpcs	0, 0, cr0, cr15, cr0, {0}
     e04:	03193f01 	tsteq	r9, #1, 30
     e08:	3b0b3a0e 	blcc	2cf648 <__bss_end__+0x2c50f0>
     e0c:	4919270b 	ldmdbmi	r9, {r0, r1, r3, r8, r9, sl, sp}
     e10:	01193c13 	tsteq	r9, r3, lsl ip
     e14:	10000013 	andne	r0, r0, r3, lsl r0
     e18:	13490005 	movtne	r0, #36869	; 0x9005
     e1c:	18110000 	ldmdane	r1, {}	; <UNPREDICTABLE>
     e20:	00000000 	andeq	r0, r0, r0
     e24:	25011101 	strcs	r1, [r1, #-257]	; 0x101
     e28:	030b130e 	movweq	r1, #45838	; 0xb30e
     e2c:	110e1b0e 	tstne	lr, lr, lsl #22
     e30:	10061201 	andne	r1, r6, r1, lsl #4
     e34:	02000017 	andeq	r0, r0, #23
     e38:	0b0b0024 	bleq	2c0ed0 <__bss_end__+0x2b6978>
     e3c:	08030b3e 	stmdaeq	r3, {r1, r2, r3, r4, r5, r8, r9, fp}
     e40:	24030000 	strcs	r0, [r3], #-0
     e44:	3e0b0b00 	vmlacc.f64	d0, d11, d0
     e48:	000e030b 	andeq	r0, lr, fp, lsl #6
     e4c:	000f0400 	andeq	r0, pc, r0, lsl #8
     e50:	13490b0b 	movtne	r0, #39691	; 0x9b0b
     e54:	26050000 	strcs	r0, [r5], -r0
     e58:	00134900 	andseq	r4, r3, r0, lsl #18
     e5c:	012e0600 	teqeq	lr, r0, lsl #12
     e60:	0e03193f 	mcreq	9, 0, r1, cr3, cr15, {1}
     e64:	0b3b0b3a 	bleq	ec3b54 <__bss_end__+0xeb95fc>
     e68:	01111927 	tsteq	r1, r7, lsr #18
     e6c:	18400612 	stmdane	r0, {r1, r4, r9, sl}^
     e70:	01194297 			; <UNDEFINED> instruction: 0x01194297
     e74:	07000013 	smladeq	r0, r3, r0, r0
     e78:	08030005 	stmdaeq	r3, {r0, r2}
     e7c:	0b3b0b3a 	bleq	ec3b6c <__bss_end__+0xeb9614>
     e80:	17021349 	strne	r1, [r2, -r9, asr #6]
     e84:	34080000 	strcc	r0, [r8], #-0
     e88:	490e0300 	stmdbmi	lr, {r8, r9}
     e8c:	02193413 	andseq	r3, r9, #318767104	; 0x13000000
     e90:	09000018 	stmdbeq	r0, {r3, r4}
     e94:	00018289 	andeq	r8, r1, r9, lsl #5
     e98:	13310111 	teqne	r1, #1073741828	; 0x40000004
     e9c:	890a0000 	stmdbhi	sl, {}	; <UNPREDICTABLE>
     ea0:	11010182 	smlabbne	r1, r2, r1, r0
     ea4:	01133101 	tsteq	r3, r1, lsl #2
     ea8:	0b000013 	bleq	efc <__code_start__-0x7104>
     eac:	0001828a 	andeq	r8, r1, sl, lsl #5
     eb0:	42911802 	addsmi	r1, r1, #131072	; 0x20000
     eb4:	0c000018 	stceq	0, cr0, [r0], {24}
     eb8:	13490101 	movtne	r0, #37121	; 0x9101
     ebc:	00001301 	andeq	r1, r0, r1, lsl #6
     ec0:	4900210d 	stmdbmi	r0, {r0, r2, r3, r8, sp}
     ec4:	000b2f13 	andeq	r2, fp, r3, lsl pc
     ec8:	002e0e00 	eoreq	r0, lr, r0, lsl #28
     ecc:	0e03193f 	mcreq	9, 0, r1, cr3, cr15, {1}
     ed0:	0b3b0b3a 	bleq	ec3bc0 <__bss_end__+0xeb9668>
     ed4:	193c1927 	ldmdbne	ip!, {r0, r1, r2, r5, r8, fp, ip}
     ed8:	2e0f0000 	cdpcs	0, 0, cr0, cr15, cr0, {0}
     edc:	03193f01 	tsteq	r9, #1, 30
     ee0:	3b0b3a0e 	blcc	2cf720 <__bss_end__+0x2c51c8>
     ee4:	4919270b 	ldmdbmi	r9, {r0, r1, r3, r8, r9, sl, sp}
     ee8:	01193c13 	tsteq	r9, r3, lsl ip
     eec:	10000013 	andne	r0, r0, r3, lsl r0
     ef0:	13490005 	movtne	r0, #36869	; 0x9005
     ef4:	18110000 	ldmdane	r1, {}	; <UNPREDICTABLE>
     ef8:	00000000 	andeq	r0, r0, r0
     efc:	25011101 	strcs	r1, [r1, #-257]	; 0x101
     f00:	030b130e 	movweq	r1, #45838	; 0xb30e
     f04:	110e1b0e 	tstne	lr, lr, lsl #22
     f08:	10061201 	andne	r1, r6, r1, lsl #4
     f0c:	02000017 	andeq	r0, r0, #23
     f10:	0b0b0024 	bleq	2c0fa8 <__bss_end__+0x2b6a50>
     f14:	08030b3e 	stmdaeq	r3, {r1, r2, r3, r4, r5, r8, r9, fp}
     f18:	24030000 	strcs	r0, [r3], #-0
     f1c:	3e0b0b00 	vmlacc.f64	d0, d11, d0
     f20:	000e030b 	andeq	r0, lr, fp, lsl #6
     f24:	000f0400 	andeq	r0, pc, r0, lsl #8
     f28:	13490b0b 	movtne	r0, #39691	; 0x9b0b
     f2c:	26050000 	strcs	r0, [r5], -r0
     f30:	00134900 	andseq	r4, r3, r0, lsl #18
     f34:	012e0600 	teqeq	lr, r0, lsl #12
     f38:	0e03193f 	mcreq	9, 0, r1, cr3, cr15, {1}
     f3c:	0b3b0b3a 	bleq	ec3c2c <__bss_end__+0xeb96d4>
     f40:	01111927 	tsteq	r1, r7, lsr #18
     f44:	18400612 	stmdane	r0, {r1, r4, r9, sl}^
     f48:	01194297 			; <UNDEFINED> instruction: 0x01194297
     f4c:	07000013 	smladeq	r0, r3, r0, r0
     f50:	08030005 	stmdaeq	r3, {r0, r2}
     f54:	0b3b0b3a 	bleq	ec3c44 <__bss_end__+0xeb96ec>
     f58:	17021349 	strne	r1, [r2, -r9, asr #6]
     f5c:	34080000 	strcc	r0, [r8], #-0
     f60:	490e0300 	stmdbmi	lr, {r8, r9}
     f64:	02193413 	andseq	r3, r9, #318767104	; 0x13000000
     f68:	09000018 	stmdbeq	r0, {r3, r4}
     f6c:	00018289 	andeq	r8, r1, r9, lsl #5
     f70:	13310111 	teqne	r1, #1073741828	; 0x40000004
     f74:	890a0000 	stmdbhi	sl, {}	; <UNPREDICTABLE>
     f78:	11010182 	smlabbne	r1, r2, r1, r0
     f7c:	01133101 	tsteq	r3, r1, lsl #2
     f80:	0b000013 	bleq	fd4 <__code_start__-0x702c>
     f84:	0001828a 	andeq	r8, r1, sl, lsl #5
     f88:	42911802 	addsmi	r1, r1, #131072	; 0x20000
     f8c:	0c000018 	stceq	0, cr0, [r0], {24}
     f90:	13490101 	movtne	r0, #37121	; 0x9101
     f94:	00001301 	andeq	r1, r0, r1, lsl #6
     f98:	4900210d 	stmdbmi	r0, {r0, r2, r3, r8, sp}
     f9c:	000b2f13 	andeq	r2, fp, r3, lsl pc
     fa0:	002e0e00 	eoreq	r0, lr, r0, lsl #28
     fa4:	0e03193f 	mcreq	9, 0, r1, cr3, cr15, {1}
     fa8:	0b3b0b3a 	bleq	ec3c98 <__bss_end__+0xeb9740>
     fac:	193c1927 	ldmdbne	ip!, {r0, r1, r2, r5, r8, fp, ip}
     fb0:	2e0f0000 	cdpcs	0, 0, cr0, cr15, cr0, {0}
     fb4:	03193f01 	tsteq	r9, #1, 30
     fb8:	3b0b3a0e 	blcc	2cf7f8 <__bss_end__+0x2c52a0>
     fbc:	4919270b 	ldmdbmi	r9, {r0, r1, r3, r8, r9, sl, sp}
     fc0:	01193c13 	tsteq	r9, r3, lsl ip
     fc4:	10000013 	andne	r0, r0, r3, lsl r0
     fc8:	13490005 	movtne	r0, #36869	; 0x9005
     fcc:	18110000 	ldmdane	r1, {}	; <UNPREDICTABLE>
     fd0:	00000000 	andeq	r0, r0, r0
     fd4:	25011101 	strcs	r1, [r1, #-257]	; 0x101
     fd8:	030b130e 	movweq	r1, #45838	; 0xb30e
     fdc:	110e1b0e 	tstne	lr, lr, lsl #22
     fe0:	10061201 	andne	r1, r6, r1, lsl #4
     fe4:	02000017 	andeq	r0, r0, #23
     fe8:	0b0b0024 	bleq	2c1080 <__bss_end__+0x2b6b28>
     fec:	08030b3e 	stmdaeq	r3, {r1, r2, r3, r4, r5, r8, r9, fp}
     ff0:	24030000 	strcs	r0, [r3], #-0
     ff4:	3e0b0b00 	vmlacc.f64	d0, d11, d0
     ff8:	000e030b 	andeq	r0, lr, fp, lsl #6
     ffc:	002e0400 	eoreq	r0, lr, r0, lsl #8
    1000:	0e03193f 	mcreq	9, 0, r1, cr3, cr15, {1}
    1004:	0b3b0b3a 	bleq	ec3cf4 <__bss_end__+0xeb979c>
    1008:	01111927 	tsteq	r1, r7, lsr #18
    100c:	18400612 	stmdane	r0, {r1, r4, r9, sl}^
    1010:	00194297 	mulseq	r9, r7, r2
    1014:	11010000 	mrsne	r0, (UNDEF: 1)
    1018:	130e2501 	movwne	r2, #58625	; 0xe501
    101c:	1b0e030b 	blne	381c50 <__bss_end__+0x3776f8>
    1020:	1201110e 	andne	r1, r1, #-2147483645	; 0x80000003
    1024:	00171006 	andseq	r1, r7, r6
    1028:	00240200 	eoreq	r0, r4, r0, lsl #4
    102c:	0b3e0b0b 	bleq	f83c60 <__bss_end__+0xf79708>
    1030:	00000803 	andeq	r0, r0, r3, lsl #16
    1034:	0b002403 	bleq	a048 <__FUNCTION__.4220+0x28>
    1038:	030b3e0b 	movweq	r3, #48651	; 0xbe0b
    103c:	0400000e 	streq	r0, [r0], #-14
    1040:	0b0b0104 	bleq	2c1458 <__bss_end__+0x2b6f00>
    1044:	0b3b0b3a 	bleq	ec3d34 <__bss_end__+0xeb97dc>
    1048:	00001301 	andeq	r1, r0, r1, lsl #6
    104c:	03002805 	movweq	r2, #2053	; 0x805
    1050:	000d1c0e 	andeq	r1, sp, lr, lsl #24
    1054:	012e0600 	teqeq	lr, r0, lsl #12
    1058:	0e03193f 	mcreq	9, 0, r1, cr3, cr15, {1}
    105c:	0b3b0b3a 	bleq	ec3d4c <__bss_end__+0xeb97f4>
    1060:	01111927 	tsteq	r1, r7, lsr #18
    1064:	18400612 	stmdane	r0, {r1, r4, r9, sl}^
    1068:	01194297 			; <UNDEFINED> instruction: 0x01194297
    106c:	07000013 	smladeq	r0, r3, r0, r0
    1070:	0e030034 	mcreq	0, 0, r0, cr3, cr4, {1}
    1074:	0b3b0b3a 	bleq	ec3d64 <__bss_end__+0xeb980c>
    1078:	193f1349 	ldmdbne	pc!, {r0, r3, r6, r8, r9, ip}	; <UNPREDICTABLE>
    107c:	0000193c 	andeq	r1, r0, ip, lsr r9
    1080:	03003408 	movweq	r3, #1032	; 0x408
    1084:	3b0b3a08 	blcc	2cf8ac <__bss_end__+0x2c5354>
    1088:	1c13490b 	ldcne	9, cr4, [r3], {11}
    108c:	0900000b 	stmdbeq	r0, {r0, r1, r3}
    1090:	08030034 	stmdaeq	r3, {r2, r4, r5}
    1094:	0b3b0b3a 	bleq	ec3d84 <__bss_end__+0xeb982c>
    1098:	00001349 	andeq	r1, r0, r9, asr #6
    109c:	0300340a 	movweq	r3, #1034	; 0x40a
    10a0:	3b0b3a08 	blcc	2cf8c8 <__bss_end__+0x2c5370>
    10a4:	0213490b 	andseq	r4, r3, #180224	; 0x2c000
    10a8:	0b000018 	bleq	1110 <__code_start__-0x6ef0>
    10ac:	0111010b 	tsteq	r1, fp, lsl #2
    10b0:	13010612 	movwne	r0, #5650	; 0x1612
    10b4:	340c0000 	strcc	r0, [ip], #-0
    10b8:	3a080300 	bcc	201cc0 <__bss_end__+0x1f7768>
    10bc:	490b3b0b 	stmdbmi	fp, {r0, r1, r3, r8, r9, fp, ip, sp}
    10c0:	00170213 	andseq	r0, r7, r3, lsl r2
    10c4:	82890d00 	addhi	r0, r9, #0, 26
    10c8:	01110001 	tsteq	r1, r1
    10cc:	00001331 	andeq	r1, r0, r1, lsr r3
    10d0:	0182890e 	orreq	r8, r2, lr, lsl #18
    10d4:	31011101 	tstcc	r1, r1, lsl #2
    10d8:	00130113 	andseq	r0, r3, r3, lsl r1
    10dc:	828a0f00 	addhi	r0, sl, #0, 30
    10e0:	18020001 	stmdane	r2, {r0}
    10e4:	00184291 	mulseq	r8, r1, r2
    10e8:	000f1000 	andeq	r1, pc, r0
    10ec:	13490b0b 	movtne	r0, #39691	; 0x9b0b
    10f0:	2e110000 	cdpcs	0, 1, cr0, cr1, cr0, {0}
    10f4:	03193f00 	tsteq	r9, #0, 30
    10f8:	3b0b3a0e 	blcc	2cf938 <__bss_end__+0x2c53e0>
    10fc:	3c19270b 	ldccc	7, cr2, [r9], {11}
    1100:	12000019 	andne	r0, r0, #25
    1104:	193f012e 	ldmdbne	pc!, {r1, r2, r3, r5, r8}	; <UNPREDICTABLE>
    1108:	0b3a0e03 	bleq	e8491c <__bss_end__+0xe7a3c4>
    110c:	19270b3b 	stmdbne	r7!, {r0, r1, r3, r4, r5, r8, r9, fp}
    1110:	0000193c 	andeq	r1, r0, ip, lsr r9
    1114:	49000513 	stmdbmi	r0, {r0, r1, r4, r8, sl}
    1118:	00000013 	andeq	r0, r0, r3, lsl r0
    111c:	25011101 	strcs	r1, [r1, #-257]	; 0x101
    1120:	030b130e 	movweq	r1, #45838	; 0xb30e
    1124:	550e1b0e 	strpl	r1, [lr, #-2830]	; 0xb0e
    1128:	10011117 	andne	r1, r1, r7, lsl r1
    112c:	02000017 	andeq	r0, r0, #23
    1130:	0b0b0024 	bleq	2c11c8 <__bss_end__+0x2b6c70>
    1134:	08030b3e 	stmdaeq	r3, {r1, r2, r3, r4, r5, r8, r9, fp}
    1138:	24030000 	strcs	r0, [r3], #-0
    113c:	3e0b0b00 	vmlacc.f64	d0, d11, d0
    1140:	000e030b 	andeq	r0, lr, fp, lsl #6
    1144:	012e0400 	teqeq	lr, r0, lsl #8
    1148:	0e03193f 	mcreq	9, 0, r1, cr3, cr15, {1}
    114c:	0b3b0b3a 	bleq	ec3e3c <__bss_end__+0xeb98e4>
    1150:	13491927 	movtne	r1, #39207	; 0x9927
    1154:	06120111 			; <UNDEFINED> instruction: 0x06120111
    1158:	42971840 	addsmi	r1, r7, #64, 16	; 0x400000
    115c:	00130119 	andseq	r0, r3, r9, lsl r1
    1160:	00340500 	eorseq	r0, r4, r0, lsl #10
    1164:	0b3a0e03 	bleq	e84978 <__bss_end__+0xe7a420>
    1168:	13490b3b 	movtne	r0, #39739	; 0x9b3b
    116c:	00001702 	andeq	r1, r0, r2, lsl #14
    1170:	3f012e06 	svccc	0x00012e06
    1174:	3a0e0319 	bcc	381de0 <__bss_end__+0x377888>
    1178:	270b3b0b 	strcs	r3, [fp, -fp, lsl #22]
    117c:	12011119 	andne	r1, r1, #1073741830	; 0x40000006
    1180:	97184006 	ldrls	r4, [r8, -r6]
    1184:	13011942 	movwne	r1, #6466	; 0x1942
    1188:	34070000 	strcc	r0, [r7], #-0
    118c:	3a0e0300 	bcc	381d94 <__bss_end__+0x37783c>
    1190:	490b3b0b 	stmdbmi	fp, {r0, r1, r3, r8, r9, fp, ip, sp}
    1194:	00061c13 	andeq	r1, r6, r3, lsl ip
    1198:	00340800 	eorseq	r0, r4, r0, lsl #16
    119c:	0b3a0e03 	bleq	e849b0 <__bss_end__+0xe7a458>
    11a0:	13490b3b 	movtne	r0, #39739	; 0x9b3b
    11a4:	00000b1c 	andeq	r0, r0, ip, lsl fp
    11a8:	01828909 	orreq	r8, r2, r9, lsl #18
    11ac:	31011100 	mrscc	r1, (UNDEF: 17)
    11b0:	0a000013 	beq	1204 <__code_start__-0x6dfc>
    11b4:	01018289 	smlabbeq	r1, r9, r2, r8
    11b8:	13310111 	teqne	r1, #1073741828	; 0x40000004
    11bc:	00001301 	andeq	r1, r0, r1, lsl #6
    11c0:	01828a0b 	orreq	r8, r2, fp, lsl #20
    11c4:	91180200 	tstls	r8, r0, lsl #4
    11c8:	00001842 	andeq	r1, r0, r2, asr #16
    11cc:	0182890c 	orreq	r8, r2, ip, lsl #18
    11d0:	31011101 	tstcc	r1, r1, lsl #2
    11d4:	0d000013 	stceq	0, cr0, [r0, #-76]	; 0xffffffb4
    11d8:	13490026 	movtne	r0, #36902	; 0x9026
    11dc:	2e0e0000 	cdpcs	0, 0, cr0, cr14, cr0, {0}
    11e0:	03193f01 	tsteq	r9, #1, 30
    11e4:	3b0b3a0e 	blcc	2cfa24 <__bss_end__+0x2c54cc>
    11e8:	3c19270b 	ldccc	7, cr2, [r9], {11}
    11ec:	00130119 	andseq	r0, r3, r9, lsl r1
    11f0:	00050f00 	andeq	r0, r5, r0, lsl #30
    11f4:	00001349 	andeq	r1, r0, r9, asr #6
    11f8:	3f012e10 	svccc	0x00012e10
    11fc:	3a0e0319 	bcc	381e68 <__bss_end__+0x377910>
    1200:	270b3b0b 	strcs	r3, [fp, -fp, lsl #22]
    1204:	00193c19 	andseq	r3, r9, r9, lsl ip
    1208:	11010000 	mrsne	r0, (UNDEF: 1)
    120c:	130e2501 	movwne	r2, #58625	; 0xe501
    1210:	1b0e030b 	blne	381e44 <__bss_end__+0x3778ec>
    1214:	1201110e 	andne	r1, r1, #-2147483645	; 0x80000003
    1218:	00171006 	andseq	r1, r7, r6
    121c:	00240200 	eoreq	r0, r4, r0, lsl #4
    1220:	0b3e0b0b 	bleq	f83e54 <__bss_end__+0xf798fc>
    1224:	00000803 	andeq	r0, r0, r3, lsl #16
    1228:	0b002403 	bleq	a23c <buf.4189+0xe4>
    122c:	030b3e0b 	movweq	r3, #48651	; 0xbe0b
    1230:	0400000e 	streq	r0, [r0], #-14
    1234:	193f012e 	ldmdbne	pc!, {r1, r2, r3, r5, r8}	; <UNPREDICTABLE>
    1238:	0b3a0e03 	bleq	e84a4c <__bss_end__+0xe7a4f4>
    123c:	19270b3b 	stmdbne	r7!, {r0, r1, r3, r4, r5, r8, r9, fp}
    1240:	06120111 			; <UNDEFINED> instruction: 0x06120111
    1244:	42971840 	addsmi	r1, r7, #64, 16	; 0x400000
    1248:	00130119 	andseq	r0, r3, r9, lsl r1
    124c:	00050500 	andeq	r0, r5, r0, lsl #10
    1250:	0b3a0e03 	bleq	e84a64 <__bss_end__+0xe7a50c>
    1254:	13490b3b 	movtne	r0, #39739	; 0x9b3b
    1258:	00001702 	andeq	r1, r0, r2, lsl #14
    125c:	3f012e06 	svccc	0x00012e06
    1260:	3a0e0319 	bcc	381ecc <__bss_end__+0x377974>
    1264:	270b3b0b 	strcs	r3, [fp, -fp, lsl #22]
    1268:	11134919 	tstne	r3, r9, lsl r9
    126c:	40061201 	andmi	r1, r6, r1, lsl #4
    1270:	19429718 	stmdbne	r2, {r3, r4, r8, r9, sl, ip, pc}^
    1274:	00001301 	andeq	r1, r0, r1, lsl #6
    1278:	01828907 	orreq	r8, r2, r7, lsl #18
    127c:	31011101 	tstcc	r1, r1, lsl #2
    1280:	08000013 	stmdaeq	r0, {r0, r1, r4}
    1284:	0001828a 	andeq	r8, r1, sl, lsl #5
    1288:	42911802 	addsmi	r1, r1, #131072	; 0x20000
    128c:	09000018 	stmdbeq	r0, {r3, r4}
    1290:	08030034 	stmdaeq	r3, {r2, r4, r5}
    1294:	0b3b0b3a 	bleq	ec3f84 <__bss_end__+0xeb9a2c>
    1298:	17021349 	strne	r1, [r2, -r9, asr #6]
    129c:	890a0000 	stmdbhi	sl, {}	; <UNPREDICTABLE>
    12a0:	11000182 	smlabbne	r0, r2, r1, r0
    12a4:	00133101 	andseq	r3, r3, r1, lsl #2
    12a8:	00050b00 	andeq	r0, r5, r0, lsl #22
    12ac:	0b3a0803 	bleq	e832c0 <__bss_end__+0xe78d68>
    12b0:	13490b3b 	movtne	r0, #39739	; 0x9b3b
    12b4:	00001702 	andeq	r1, r0, r2, lsl #14
    12b8:	0300340c 	movweq	r3, #1036	; 0x40c
    12bc:	3b0b3a08 	blcc	2cfae4 <__bss_end__+0x2c558c>
    12c0:	0213490b 	andseq	r4, r3, #180224	; 0x2c000
    12c4:	0d000018 	stceq	0, cr0, [r0, #-96]	; 0xffffffa0
    12c8:	0111010b 	tsteq	r1, fp, lsl #2
    12cc:	13010612 	movwne	r0, #5650	; 0x1612
    12d0:	2e0e0000 	cdpcs	0, 0, cr0, cr14, cr0, {0}
    12d4:	03193f01 	tsteq	r9, #1, 30
    12d8:	3b0b3a0e 	blcc	2cfb18 <__bss_end__+0x2c55c0>
    12dc:	4919270b 	ldmdbmi	r9, {r0, r1, r3, r8, r9, sl, sp}
    12e0:	01193c13 	tsteq	r9, r3, lsl ip
    12e4:	0f000013 	svceq	0x00000013
    12e8:	13490005 	movtne	r0, #36869	; 0x9005
    12ec:	2e100000 	cdpcs	0, 1, cr0, cr0, cr0, {0}
    12f0:	03193f00 	tsteq	r9, #0, 30
    12f4:	3b0b3a0e 	blcc	2cfb34 <__bss_end__+0x2c55dc>
    12f8:	3c19270b 	ldccc	7, cr2, [r9], {11}
    12fc:	00000019 	andeq	r0, r0, r9, lsl r0
    1300:	25011101 	strcs	r1, [r1, #-257]	; 0x101
    1304:	030b130e 	movweq	r1, #45838	; 0xb30e
    1308:	110e1b0e 	tstne	lr, lr, lsl #22
    130c:	10061201 	andne	r1, r6, r1, lsl #4
    1310:	02000017 	andeq	r0, r0, #23
    1314:	0b0b0024 	bleq	2c13ac <__bss_end__+0x2b6e54>
    1318:	08030b3e 	stmdaeq	r3, {r1, r2, r3, r4, r5, r8, r9, fp}
    131c:	24030000 	strcs	r0, [r3], #-0
    1320:	3e0b0b00 	vmlacc.f64	d0, d11, d0
    1324:	000e030b 	andeq	r0, lr, fp, lsl #6
    1328:	00350400 	eorseq	r0, r5, r0, lsl #8
    132c:	00001349 	andeq	r1, r0, r9, asr #6
    1330:	03001605 	movweq	r1, #1541	; 0x605
    1334:	3b0b3a0e 	blcc	2cfb74 <__bss_end__+0x2c561c>
    1338:	0013490b 	andseq	r4, r3, fp, lsl #18
    133c:	00160600 	andseq	r0, r6, r0, lsl #12
    1340:	0b3a0e03 	bleq	e84b54 <__bss_end__+0xe7a5fc>
    1344:	1349053b 	movtne	r0, #38203	; 0x953b
    1348:	17070000 	strne	r0, [r7, -r0]
    134c:	3a0b0b01 	bcc	2c3f58 <__bss_end__+0x2b9a00>
    1350:	010b3b0b 	tsteq	fp, fp, lsl #22
    1354:	08000013 	stmdaeq	r0, {r0, r1, r4}
    1358:	0e03000d 	cdpeq	0, 0, cr0, cr3, cr13, {0}
    135c:	0b3b0b3a 	bleq	ec404c <__bss_end__+0xeb9af4>
    1360:	00001349 	andeq	r1, r0, r9, asr #6
    1364:	49010109 	stmdbmi	r1, {r0, r3, r8}
    1368:	00130113 	andseq	r0, r3, r3, lsl r1
    136c:	00210a00 	eoreq	r0, r1, r0, lsl #20
    1370:	0b2f1349 	bleq	bc609c <__bss_end__+0xbbbb44>
    1374:	130b0000 	movwne	r0, #45056	; 0xb000
    1378:	3a0b0b01 	bcc	2c3f84 <__bss_end__+0x2b9a2c>
    137c:	010b3b0b 	tsteq	fp, fp, lsl #22
    1380:	0c000013 	stceq	0, cr0, [r0], {19}
    1384:	0e03000d 	cdpeq	0, 0, cr0, cr3, cr13, {0}
    1388:	0b3b0b3a 	bleq	ec4078 <__bss_end__+0xeb9b20>
    138c:	0b381349 	bleq	e060b8 <__bss_end__+0xdfbb60>
    1390:	0f0d0000 	svceq	0x000d0000
    1394:	000b0b00 	andeq	r0, fp, r0, lsl #22
    1398:	000f0e00 	andeq	r0, pc, r0, lsl #28
    139c:	13490b0b 	movtne	r0, #39691	; 0x9b0b
    13a0:	260f0000 	strcs	r0, [pc], -r0
    13a4:	00134900 	andseq	r4, r3, r0, lsl #18
    13a8:	01131000 	tsteq	r3, r0
    13ac:	0b0b0e03 	bleq	2c4bc0 <__bss_end__+0x2ba668>
    13b0:	0b3b0b3a 	bleq	ec40a0 <__bss_end__+0xeb9b48>
    13b4:	00001301 	andeq	r1, r0, r1, lsl #6
    13b8:	03000d11 	movweq	r0, #3345	; 0xd11
    13bc:	3b0b3a08 	blcc	2cfbe4 <__bss_end__+0x2c568c>
    13c0:	3813490b 	ldmdacc	r3, {r0, r1, r3, r8, fp, lr}
    13c4:	1200000b 	andne	r0, r0, #11
    13c8:	0e030113 	mcreq	1, 0, r0, cr3, cr3, {0}
    13cc:	0b3a050b 	bleq	e82800 <__bss_end__+0xe782a8>
    13d0:	13010b3b 	movwne	r0, #6971	; 0x1b3b
    13d4:	0d130000 	ldceq	0, cr0, [r3, #-0]
    13d8:	3a0e0300 	bcc	381fe0 <__bss_end__+0x377a88>
    13dc:	490b3b0b 	stmdbmi	fp, {r0, r1, r3, r8, r9, fp, ip, sp}
    13e0:	00053813 	andeq	r3, r5, r3, lsl r8
    13e4:	00151400 	andseq	r1, r5, r0, lsl #8
    13e8:	00001927 	andeq	r1, r0, r7, lsr #18
    13ec:	27011515 	smladcs	r1, r5, r5, r1
    13f0:	01134919 	tsteq	r3, r9, lsl r9
    13f4:	16000013 			; <UNDEFINED> instruction: 0x16000013
    13f8:	13490005 	movtne	r0, #36869	; 0x9005
    13fc:	13170000 	tstne	r7, #0
    1400:	0b0e0301 	bleq	38200c <__bss_end__+0x377ab4>
    1404:	3b0b3a05 	blcc	2cfc20 <__bss_end__+0x2c56c8>
    1408:	00130105 	andseq	r0, r3, r5, lsl #2
    140c:	000d1800 	andeq	r1, sp, r0, lsl #16
    1410:	0b3a0e03 	bleq	e84c24 <__bss_end__+0xe7a6cc>
    1414:	1349053b 	movtne	r0, #38203	; 0x953b
    1418:	00000b38 	andeq	r0, r0, r8, lsr fp
    141c:	03000d19 	movweq	r0, #3353	; 0xd19
    1420:	3b0b3a0e 	blcc	2cfc60 <__bss_end__+0x2c5708>
    1424:	38134905 	ldmdacc	r3, {r0, r2, r8, fp, lr}
    1428:	1a000005 	bne	1444 <__code_start__-0x6bbc>
    142c:	0e030113 	mcreq	1, 0, r0, cr3, cr3, {0}
    1430:	0b3a0b0b 	bleq	e84064 <__bss_end__+0xe79b0c>
    1434:	1301053b 	movwne	r0, #5435	; 0x153b
    1438:	131b0000 	tstne	fp, #0
    143c:	3a0b0b01 	bcc	2c4048 <__bss_end__+0x2b9af0>
    1440:	01053b0b 	tsteq	r5, fp, lsl #22
    1444:	1c000013 	stcne	0, cr0, [r0], {19}
    1448:	0b0b0117 	bleq	2c18ac <__bss_end__+0x2b7354>
    144c:	053b0b3a 	ldreq	r0, [fp, #-2874]!	; 0xb3a
    1450:	00001301 	andeq	r1, r0, r1, lsl #6
    1454:	03000d1d 	movweq	r0, #3357	; 0xd1d
    1458:	3b0b3a0e 	blcc	2cfc98 <__bss_end__+0x2c5740>
    145c:	00134905 	andseq	r4, r3, r5, lsl #18
    1460:	01151e00 	tsteq	r5, r0, lsl #28
    1464:	13011927 	movwne	r1, #6439	; 0x1927
    1468:	341f0000 	ldrcc	r0, [pc], #-0	; 1470 <__code_start__-0x6b90>
    146c:	3a0e0300 	bcc	382074 <__bss_end__+0x377b1c>
    1470:	49053b0b 	stmdbmi	r5, {r0, r1, r3, r8, r9, fp, ip, sp}
    1474:	3c193f13 	ldccc	15, cr3, [r9], {19}
    1478:	20000019 	andcs	r0, r0, r9, lsl r0
    147c:	0e030034 	mcreq	0, 0, r0, cr3, cr4, {1}
    1480:	0b3b0b3a 	bleq	ec4170 <__bss_end__+0xeb9c18>
    1484:	193f1349 	ldmdbne	pc!, {r0, r3, r6, r8, r9, ip}	; <UNPREDICTABLE>
    1488:	0000193c 	andeq	r1, r0, ip, lsr r9
    148c:	0b010421 	bleq	42518 <__bss_end__+0x37fc0>
    1490:	3a13490b 	bcc	4d38c4 <__bss_end__+0x4c936c>
    1494:	010b3b0b 	tsteq	fp, fp, lsl #22
    1498:	22000013 	andcs	r0, r0, #19
    149c:	0e030028 	cdpeq	0, 0, cr0, cr3, cr8, {1}
    14a0:	00000b1c 	andeq	r0, r0, ip, lsl fp
    14a4:	03003423 	movweq	r3, #1059	; 0x423
    14a8:	3b0b3a0e 	blcc	2cfce8 <__bss_end__+0x2c5790>
    14ac:	1c13490b 	ldcne	9, cr4, [r3], {11}
    14b0:	24000006 	strcs	r0, [r0], #-6
    14b4:	193f012e 	ldmdbne	pc!, {r1, r2, r3, r5, r8}	; <UNPREDICTABLE>
    14b8:	0b3a0e03 	bleq	e84ccc <__bss_end__+0xe7a774>
    14bc:	19270b3b 	stmdbne	r7!, {r0, r1, r3, r4, r5, r8, r9, fp}
    14c0:	01111349 	tsteq	r1, r9, asr #6
    14c4:	18400612 	stmdane	r0, {r1, r4, r9, sl}^
    14c8:	01194297 			; <UNDEFINED> instruction: 0x01194297
    14cc:	25000013 	strcs	r0, [r0, #-19]
    14d0:	00018289 	andeq	r8, r1, r9, lsl #5
    14d4:	13310111 	teqne	r1, #1073741828	; 0x40000004
    14d8:	2e260000 	cdpcs	0, 2, cr0, cr6, cr0, {0}
    14dc:	03193f01 	tsteq	r9, #1, 30
    14e0:	3b0b3a0e 	blcc	2cfd20 <__bss_end__+0x2c57c8>
    14e4:	1119270b 	tstne	r9, fp, lsl #14
    14e8:	40061201 	andmi	r1, r6, r1, lsl #4
    14ec:	19429718 	stmdbne	r2, {r3, r4, r8, r9, sl, ip, pc}^
    14f0:	00001301 	andeq	r1, r0, r1, lsl #6
    14f4:	03000527 	movweq	r0, #1319	; 0x527
    14f8:	3b0b3a08 	blcc	2cfd20 <__bss_end__+0x2c57c8>
    14fc:	0213490b 	andseq	r4, r3, #180224	; 0x2c000
    1500:	28000017 	stmdacs	r0, {r0, r1, r2, r4}
    1504:	01018289 	smlabbeq	r1, r9, r2, r8
    1508:	13310111 	teqne	r1, #1073741828	; 0x40000004
    150c:	00001301 	andeq	r1, r0, r1, lsl #6
    1510:	01828a29 	orreq	r8, r2, r9, lsr #20
    1514:	91180200 	tstls	r8, r0, lsl #4
    1518:	00001842 	andeq	r1, r0, r2, asr #16
    151c:	0300342a 	movweq	r3, #1066	; 0x42a
    1520:	3b0b3a08 	blcc	2cfd48 <__bss_end__+0x2c57f0>
    1524:	0213490b 	andseq	r4, r3, #180224	; 0x2c000
    1528:	2b000018 	blcs	1590 <__code_start__-0x6a70>
    152c:	01018289 	smlabbeq	r1, r9, r2, r8
    1530:	13310111 	teqne	r1, #1073741828	; 0x40000004
    1534:	2e2c0000 	cdpcs	0, 2, cr0, cr12, cr0, {0}
    1538:	3a0e0301 	bcc	382144 <__bss_end__+0x377bec>
    153c:	270b3b0b 	strcs	r3, [fp, -fp, lsl #22]
    1540:	12011119 	andne	r1, r1, #1073741830	; 0x40000006
    1544:	97184006 	ldrls	r4, [r8, -r6]
    1548:	13011942 	movwne	r1, #6466	; 0x1942
    154c:	052d0000 	streq	r0, [sp, #-0]!
    1550:	3a0e0300 	bcc	382158 <__bss_end__+0x377c00>
    1554:	490b3b0b 	stmdbmi	fp, {r0, r1, r3, r8, r9, fp, ip, sp}
    1558:	00170213 	andseq	r0, r7, r3, lsl r2
    155c:	00352e00 	eorseq	r2, r5, r0, lsl #28
    1560:	2e2f0000 	cdpcs	0, 2, cr0, cr15, cr0, {0}
    1564:	3c193f00 	ldccc	15, cr3, [r9], {-0}
    1568:	030e6e19 	movweq	r6, #60953	; 0xee19
    156c:	3b0b3a0e 	blcc	2cfdac <__bss_end__+0x2c5854>
    1570:	0000000b 	andeq	r0, r0, fp
    1574:	25011101 	strcs	r1, [r1, #-257]	; 0x101
    1578:	030b130e 	movweq	r1, #45838	; 0xb30e
    157c:	110e1b0e 	tstne	lr, lr, lsl #22
    1580:	10061201 	andne	r1, r6, r1, lsl #4
    1584:	02000017 	andeq	r0, r0, #23
    1588:	0b0b0024 	bleq	2c1620 <__bss_end__+0x2b70c8>
    158c:	08030b3e 	stmdaeq	r3, {r1, r2, r3, r4, r5, r8, r9, fp}
    1590:	24030000 	strcs	r0, [r3], #-0
    1594:	3e0b0b00 	vmlacc.f64	d0, d11, d0
    1598:	000e030b 	andeq	r0, lr, fp, lsl #6
    159c:	00260400 	eoreq	r0, r6, r0, lsl #8
    15a0:	00001349 	andeq	r1, r0, r9, asr #6
    15a4:	03001605 	movweq	r1, #1541	; 0x605
    15a8:	3b0b3a0e 	blcc	2cfde8 <__bss_end__+0x2c5890>
    15ac:	0013490b 	andseq	r4, r3, fp, lsl #18
    15b0:	00160600 	andseq	r0, r6, r0, lsl #12
    15b4:	0b3a0e03 	bleq	e84dc8 <__bss_end__+0xe7a870>
    15b8:	1349053b 	movtne	r0, #38203	; 0x953b
    15bc:	17070000 	strne	r0, [r7, -r0]
    15c0:	3a0b0b01 	bcc	2c41cc <__bss_end__+0x2b9c74>
    15c4:	010b3b0b 	tsteq	fp, fp, lsl #22
    15c8:	08000013 	stmdaeq	r0, {r0, r1, r4}
    15cc:	0e03000d 	cdpeq	0, 0, cr0, cr3, cr13, {0}
    15d0:	0b3b0b3a 	bleq	ec42c0 <__bss_end__+0xeb9d68>
    15d4:	00001349 	andeq	r1, r0, r9, asr #6
    15d8:	49010109 	stmdbmi	r1, {r0, r3, r8}
    15dc:	00130113 	andseq	r0, r3, r3, lsl r1
    15e0:	00210a00 	eoreq	r0, r1, r0, lsl #20
    15e4:	0b2f1349 	bleq	bc6310 <__bss_end__+0xbbbdb8>
    15e8:	130b0000 	movwne	r0, #45056	; 0xb000
    15ec:	3a0b0b01 	bcc	2c41f8 <__bss_end__+0x2b9ca0>
    15f0:	010b3b0b 	tsteq	fp, fp, lsl #22
    15f4:	0c000013 	stceq	0, cr0, [r0], {19}
    15f8:	0e03000d 	cdpeq	0, 0, cr0, cr3, cr13, {0}
    15fc:	0b3b0b3a 	bleq	ec42ec <__bss_end__+0xeb9d94>
    1600:	0b381349 	bleq	e0632c <__bss_end__+0xdfbdd4>
    1604:	0f0d0000 	svceq	0x000d0000
    1608:	000b0b00 	andeq	r0, fp, r0, lsl #22
    160c:	000f0e00 	andeq	r0, pc, r0, lsl #28
    1610:	13490b0b 	movtne	r0, #39691	; 0x9b0b
    1614:	130f0000 	movwne	r0, #61440	; 0xf000
    1618:	0b0e0301 	bleq	382224 <__bss_end__+0x377ccc>
    161c:	3b0b3a0b 	blcc	2cfe50 <__bss_end__+0x2c58f8>
    1620:	0013010b 	andseq	r0, r3, fp, lsl #2
    1624:	000d1000 	andeq	r1, sp, r0
    1628:	0b3a0803 	bleq	e8363c <__bss_end__+0xe790e4>
    162c:	13490b3b 	movtne	r0, #39739	; 0x9b3b
    1630:	00000b38 	andeq	r0, r0, r8, lsr fp
    1634:	03011311 	movweq	r1, #4881	; 0x1311
    1638:	3a050b0e 	bcc	144278 <__bss_end__+0x139d20>
    163c:	010b3b0b 	tsteq	fp, fp, lsl #22
    1640:	12000013 	andne	r0, r0, #19
    1644:	0e03000d 	cdpeq	0, 0, cr0, cr3, cr13, {0}
    1648:	0b3b0b3a 	bleq	ec4338 <__bss_end__+0xeb9de0>
    164c:	05381349 	ldreq	r1, [r8, #-841]!	; 0x349
    1650:	15130000 	ldrne	r0, [r3, #-0]
    1654:	00192700 	andseq	r2, r9, r0, lsl #14
    1658:	01151400 	tsteq	r5, r0, lsl #8
    165c:	13491927 	movtne	r1, #39207	; 0x9927
    1660:	00001301 	andeq	r1, r0, r1, lsl #6
    1664:	49000515 	stmdbmi	r0, {r0, r2, r4, r8, sl}
    1668:	16000013 			; <UNDEFINED> instruction: 0x16000013
    166c:	0e030113 	mcreq	1, 0, r0, cr3, cr3, {0}
    1670:	0b3a050b 	bleq	e82aa4 <__bss_end__+0xe7854c>
    1674:	1301053b 	movwne	r0, #5435	; 0x153b
    1678:	0d170000 	ldceq	0, cr0, [r7, #-0]
    167c:	3a0e0300 	bcc	382284 <__bss_end__+0x377d2c>
    1680:	49053b0b 	stmdbmi	r5, {r0, r1, r3, r8, r9, fp, ip, sp}
    1684:	000b3813 	andeq	r3, fp, r3, lsl r8
    1688:	000d1800 	andeq	r1, sp, r0, lsl #16
    168c:	0b3a0e03 	bleq	e84ea0 <__bss_end__+0xe7a948>
    1690:	1349053b 	movtne	r0, #38203	; 0x953b
    1694:	00000538 	andeq	r0, r0, r8, lsr r5
    1698:	03011319 	movweq	r1, #4889	; 0x1319
    169c:	3a0b0b0e 	bcc	2c42dc <__bss_end__+0x2b9d84>
    16a0:	01053b0b 	tsteq	r5, fp, lsl #22
    16a4:	1a000013 	bne	16f8 <__code_start__-0x6908>
    16a8:	0b0b0113 	bleq	2c1afc <__bss_end__+0x2b75a4>
    16ac:	053b0b3a 	ldreq	r0, [fp, #-2874]!	; 0xb3a
    16b0:	00001301 	andeq	r1, r0, r1, lsl #6
    16b4:	0b01171b 	bleq	47328 <__bss_end__+0x3cdd0>
    16b8:	3b0b3a0b 	blcc	2cfeec <__bss_end__+0x2c5994>
    16bc:	00130105 	andseq	r0, r3, r5, lsl #2
    16c0:	000d1c00 	andeq	r1, sp, r0, lsl #24
    16c4:	0b3a0e03 	bleq	e84ed8 <__bss_end__+0xe7a980>
    16c8:	1349053b 	movtne	r0, #38203	; 0x953b
    16cc:	151d0000 	ldrne	r0, [sp, #-0]
    16d0:	01192701 	tsteq	r9, r1, lsl #14
    16d4:	1e000013 	mcrne	0, 0, r0, cr0, cr3, {0}
    16d8:	0e030034 	mcreq	0, 0, r0, cr3, cr4, {1}
    16dc:	053b0b3a 	ldreq	r0, [fp, #-2874]!	; 0xb3a
    16e0:	193f1349 	ldmdbne	pc!, {r0, r3, r6, r8, r9, ip}	; <UNPREDICTABLE>
    16e4:	0000193c 	andeq	r1, r0, ip, lsr r9
    16e8:	0300341f 	movweq	r3, #1055	; 0x41f
    16ec:	3b0b3a0e 	blcc	2cff2c <__bss_end__+0x2c59d4>
    16f0:	3f13490b 	svccc	0x0013490b
    16f4:	00193c19 	andseq	r3, r9, r9, lsl ip
    16f8:	01042000 	mrseq	r2, (UNDEF: 4)
    16fc:	13490b0b 	movtne	r0, #39691	; 0x9b0b
    1700:	0b3b0b3a 	bleq	ec43f0 <__bss_end__+0xeb9e98>
    1704:	00001301 	andeq	r1, r0, r1, lsl #6
    1708:	03002821 	movweq	r2, #2081	; 0x821
    170c:	000b1c0e 	andeq	r1, fp, lr, lsl #24
    1710:	00342200 	eorseq	r2, r4, r0, lsl #4
    1714:	0b3a0e03 	bleq	e84f28 <__bss_end__+0xe7a9d0>
    1718:	13490b3b 	movtne	r0, #39739	; 0x9b3b
    171c:	0000061c 	andeq	r0, r0, ip, lsl r6
    1720:	3f012e23 	svccc	0x00012e23
    1724:	3a0e0319 	bcc	382390 <__bss_end__+0x377e38>
    1728:	270b3b0b 	strcs	r3, [fp, -fp, lsl #22]
    172c:	11134919 	tstne	r3, r9, lsl r9
    1730:	40061201 	andmi	r1, r6, r1, lsl #4
    1734:	19429718 	stmdbne	r2, {r3, r4, r8, r9, sl, ip, pc}^
    1738:	00001301 	andeq	r1, r0, r1, lsl #6
    173c:	03000524 	movweq	r0, #1316	; 0x524
    1740:	3b0b3a08 	blcc	2cff68 <__bss_end__+0x2c5a10>
    1744:	0213490b 	andseq	r4, r3, #180224	; 0x2c000
    1748:	25000017 	strcs	r0, [r0, #-23]
    174c:	0e030034 	mcreq	0, 0, r0, cr3, cr4, {1}
    1750:	0b3b0b3a 	bleq	ec4440 <__bss_end__+0xeb9ee8>
    1754:	17021349 	strne	r1, [r2, -r9, asr #6]
    1758:	34260000 	strtcc	r0, [r6], #-0
    175c:	3a080300 	bcc	202364 <__bss_end__+0x1f7e0c>
    1760:	490b3b0b 	stmdbmi	fp, {r0, r1, r3, r8, r9, fp, ip, sp}
    1764:	00170213 	andseq	r0, r7, r3, lsl r2
    1768:	82892700 	addhi	r2, r9, #0, 14
    176c:	01110101 	tsteq	r1, r1, lsl #2
    1770:	00001331 	andeq	r1, r0, r1, lsr r3
    1774:	01828a28 	orreq	r8, r2, r8, lsr #20
    1778:	91180200 	tstls	r8, r0, lsl #4
    177c:	00001842 	andeq	r1, r0, r2, asr #16
    1780:	3f012e29 	svccc	0x00012e29
    1784:	3a0e0319 	bcc	3823f0 <__bss_end__+0x377e98>
    1788:	270b3b0b 	strcs	r3, [fp, -fp, lsl #22]
    178c:	12011119 	andne	r1, r1, #1073741830	; 0x40000006
    1790:	97184006 	ldrls	r4, [r8, -r6]
    1794:	13011942 	movwne	r1, #6466	; 0x1942
    1798:	892a0000 	stmdbhi	sl!, {}	; <UNPREDICTABLE>
    179c:	11010182 	smlabbne	r1, r2, r1, r0
    17a0:	01133101 	tsteq	r3, r1, lsl #2
    17a4:	2b000013 	blcs	17f8 <__code_start__-0x6808>
    17a8:	00018289 	andeq	r8, r1, r9, lsl #5
    17ac:	13310111 	teqne	r1, #1073741828	; 0x40000004
    17b0:	052c0000 	streq	r0, [ip, #-0]!
    17b4:	3a0e0300 	bcc	3823bc <__bss_end__+0x377e64>
    17b8:	490b3b0b 	stmdbmi	fp, {r0, r1, r3, r8, r9, fp, ip, sp}
    17bc:	00170213 	andseq	r0, r7, r3, lsl r2
    17c0:	00342d00 	eorseq	r2, r4, r0, lsl #26
    17c4:	0b3a0803 	bleq	e837d8 <__bss_end__+0xe79280>
    17c8:	13490b3b 	movtne	r0, #39739	; 0x9b3b
    17cc:	00001802 	andeq	r1, r0, r2, lsl #16
    17d0:	3f002e2e 	svccc	0x00002e2e
    17d4:	6e193c19 	mrcvs	12, 0, r3, cr9, cr9, {0}
    17d8:	3a0e030e 	bcc	382418 <__bss_end__+0x377ec0>
    17dc:	000b3b0b 	andeq	r3, fp, fp, lsl #22
	...

Disassembly of section .debug_loc:

00000000 <.debug_loc>:
       0:	00000044 	andeq	r0, r0, r4, asr #32
       4:	0000004c 	andeq	r0, r0, ip, asr #32
       8:	4c500001 	mrrcmi	0, 0, r0, r0, cr1	; <UNPREDICTABLE>
       c:	60000000 	andvs	r0, r0, r0
      10:	04000000 	streq	r0, [r0], #-0
      14:	5001f300 	andpl	pc, r1, r0, lsl #6
      18:	0000009f 	muleq	r0, pc, r0	; <UNPREDICTABLE>
	...
      24:	00002300 	andeq	r2, r0, r0, lsl #6
      28:	50000100 	andpl	r0, r0, r0, lsl #2
      2c:	00000023 	andeq	r0, r0, r3, lsr #32
      30:	00000044 	andeq	r0, r0, r4, asr #32
      34:	01f30004 	mvnseq	r0, r4
      38:	00449f50 	subeq	r9, r4, r0, asr pc
      3c:	005f0000 	subseq	r0, pc, r0
      40:	00010000 	andeq	r0, r1, r0
      44:	00005f50 	andeq	r5, r0, r0, asr pc
      48:	00008000 	andeq	r8, r0, r0
      4c:	f3000400 	vshl.u8	d0, d0, d0
      50:	809f5001 	addshi	r5, pc, r1
      54:	b0000000 	andlt	r0, r0, r0
      58:	01000000 	mrseq	r0, (UNDEF: 0)
      5c:	00005000 	andeq	r5, r0, r0
	...
      68:	00230000 	eoreq	r0, r3, r0
      6c:	00010000 	andeq	r0, r1, r0
      70:	00002351 	andeq	r2, r0, r1, asr r3
      74:	00004400 	andeq	r4, r0, r0, lsl #8
      78:	f3000400 	vshl.u8	d0, d0, d0
      7c:	449f5101 	ldrmi	r5, [pc], #257	; 84 <__code_start__-0x7f7c>
      80:	5f000000 	svcpl	0x00000000
      84:	01000000 	mrseq	r0, (UNDEF: 0)
      88:	005f5100 	subseq	r5, pc, r0, lsl #2
      8c:	00800000 	addeq	r0, r0, r0
      90:	00040000 	andeq	r0, r4, r0
      94:	9f5101f3 	svcls	0x005101f3
      98:	00000080 	andeq	r0, r0, r0, lsl #1
      9c:	000000b0 	strheq	r0, [r0], -r0	; <UNPREDICTABLE>
      a0:	00510001 	subseq	r0, r1, r1
      a4:	00000000 	andeq	r0, r0, r0
      a8:	10000000 	andne	r0, r0, r0
      ac:	23000000 	movwcs	r0, #0
      b0:	01000000 	mrseq	r0, (UNDEF: 0)
      b4:	00445300 	subeq	r5, r4, r0, lsl #6
      b8:	00480000 	subeq	r0, r8, r0
      bc:	00010000 	andeq	r0, r1, r0
      c0:	00004853 	andeq	r4, r0, r3, asr r8
      c4:	0000b000 	andeq	fp, r0, r0
      c8:	0a000400 	beq	10d0 <__code_start__-0x6f30>
      cc:	009f01ff 			; <UNDEFINED> instruction: 0x009f01ff
      d0:	00000000 	andeq	r0, r0, r0
      d4:	44000000 	strmi	r0, [r0], #-0
      d8:	5f000000 	svcpl	0x00000000
      dc:	01000000 	mrseq	r0, (UNDEF: 0)
      e0:	005f5000 	subseq	r5, pc, r0
      e4:	00800000 	addeq	r0, r0, r0
      e8:	00040000 	andeq	r0, r4, r0
      ec:	9f5001f3 	svcls	0x005001f3
      f0:	00000080 	andeq	r0, r0, r0, lsl #1
      f4:	000000b0 	strheq	r0, [r0], -r0	; <UNPREDICTABLE>
      f8:	00500001 	subseq	r0, r0, r1
      fc:	00000000 	andeq	r0, r0, r0
     100:	0c000000 	stceq	0, cr0, [r0], {-0}
     104:	10000000 	andne	r0, r0, r0
     108:	01000000 	mrseq	r0, (UNDEF: 0)
     10c:	00005300 	andeq	r5, r0, r0, lsl #6
     110:	00000000 	andeq	r0, r0, r0
     114:	00100000 	andseq	r0, r0, r0
     118:	00230000 	eoreq	r0, r3, r0
     11c:	00010000 	andeq	r0, r1, r0
     120:	00004453 	andeq	r4, r0, r3, asr r4
     124:	00004c00 	andeq	r4, r0, r0, lsl #24
     128:	53000100 	movwpl	r0, #256	; 0x100
	...
     134:	00000018 	andeq	r0, r0, r8, lsl r0
     138:	00000023 	andeq	r0, r0, r3, lsr #32
     13c:	44520001 	ldrbmi	r0, [r2], #-1
     140:	54000000 	strpl	r0, [r0], #-0
     144:	01000000 	mrseq	r0, (UNDEF: 0)
     148:	00005200 	andeq	r5, r0, r0, lsl #4
     14c:	00000000 	andeq	r0, r0, r0
     150:	00540000 	subseq	r0, r4, r0
     154:	005f0000 	subseq	r0, pc, r0
     158:	00010000 	andeq	r0, r1, r0
     15c:	00008052 	andeq	r8, r0, r2, asr r0
     160:	0000b000 	andeq	fp, r0, r0
     164:	52000100 	andpl	r0, r0, #0, 2
	...
     170:	000000b0 	strheq	r0, [r0], -r0	; <UNPREDICTABLE>
     174:	000000d3 	ldrdeq	r0, [r0], -r3
     178:	d3500001 	cmple	r0, #1
     17c:	ec000000 	stc	0, cr0, [r0], {-0}
     180:	04000000 	streq	r0, [r0], #-0
     184:	5001f300 	andpl	pc, r1, r0, lsl #6
     188:	0000ec9f 	muleq	r0, pc, ip	; <UNPREDICTABLE>
     18c:	0000ff00 	andeq	pc, r0, r0, lsl #30
     190:	50000100 	andpl	r0, r0, r0, lsl #2
     194:	000000ff 	strdeq	r0, [r0], -pc	; <UNPREDICTABLE>
     198:	00000120 	andeq	r0, r0, r0, lsr #2
     19c:	01f30004 	mvnseq	r0, r4
     1a0:	01209f50 	teqeq	r0, r0, asr pc
     1a4:	01330000 	teqeq	r3, r0
     1a8:	00010000 	andeq	r0, r1, r0
     1ac:	00013350 	andeq	r3, r1, r0, asr r3
     1b0:	00015400 	andeq	r5, r1, r0, lsl #8
     1b4:	f3000400 	vshl.u8	d0, d0, d0
     1b8:	549f5001 	ldrpl	r5, [pc], #1	; 1c0 <__code_start__-0x7e40>
     1bc:	5c000001 	stcpl	0, cr0, [r0], {1}
     1c0:	01000001 	tsteq	r0, r1
     1c4:	015c5000 	cmpeq	ip, r0
     1c8:	015f0000 	cmpeq	pc, r0
     1cc:	00010000 	andeq	r0, r1, r0
     1d0:	00015f51 	andeq	r5, r1, r1, asr pc
     1d4:	00018c00 	andeq	r8, r1, r0, lsl #24
     1d8:	f3000400 	vshl.u8	d0, d0, d0
     1dc:	009f5001 	addseq	r5, pc, r1
     1e0:	00000000 	andeq	r0, r0, r0
     1e4:	c4000000 	strgt	r0, [r0], #-0
     1e8:	c8000000 	stmdagt	r0, {}	; <UNPREDICTABLE>
     1ec:	01000000 	mrseq	r0, (UNDEF: 0)
     1f0:	00005300 	andeq	r5, r0, r0, lsl #6
     1f4:	00000000 	andeq	r0, r0, r0
     1f8:	00f00000 	rscseq	r0, r0, r0
     1fc:	00f40000 	rscseq	r0, r4, r0
     200:	00010000 	andeq	r0, r1, r0
     204:	0000f453 	andeq	pc, r0, r3, asr r4	; <UNPREDICTABLE>
     208:	0000ff00 	andeq	pc, r0, r0, lsl #30
     20c:	73000300 	movwvc	r0, #768	; 0x300
     210:	01209f04 	teqeq	r0, r4, lsl #30
     214:	01240000 	teqeq	r4, r0
     218:	00030000 	andeq	r0, r3, r0
     21c:	009f0473 	addseq	r0, pc, r3, ror r4	; <UNPREDICTABLE>
     220:	00000000 	andeq	r0, r0, r0
     224:	d0000000 	andle	r0, r0, r0
     228:	d8000001 	stmdale	r0, {r0}
     22c:	01000001 	tsteq	r0, r1
     230:	01d85300 	bicseq	r5, r8, r0, lsl #6
     234:	01fc0000 	mvnseq	r0, r0
     238:	00040000 	andeq	r0, r4, r0
     23c:	9f01e70a 	svcls	0x0001e70a
	...
     248:	000001cc 	andeq	r0, r0, ip, asr #3
     24c:	000001d0 	ldrdeq	r0, [r0], -r0	; <UNPREDICTABLE>
     250:	00530001 	subseq	r0, r3, r1
     254:	00000000 	andeq	r0, r0, r0
     258:	d0000000 	andle	r0, r0, r0
     25c:	dc000001 	stcle	0, cr0, [r0], {1}
     260:	01000001 	tsteq	r0, r1
     264:	00005300 	andeq	r5, r0, r0, lsl #6
     268:	00000000 	andeq	r0, r0, r0
     26c:	01fc0000 	mvnseq	r0, r0
     270:	021b0000 	andseq	r0, fp, #0
     274:	00010000 	andeq	r0, r1, r0
     278:	00021b50 	andeq	r1, r2, r0, asr fp
     27c:	00023400 	andeq	r3, r2, r0, lsl #8
     280:	f3000400 	vshl.u8	d0, d0, d0
     284:	349f5001 	ldrcc	r5, [pc], #1	; 28c <__code_start__-0x7d74>
     288:	47000002 	strmi	r0, [r0, -r2]
     28c:	01000002 	tsteq	r0, r2
     290:	02475000 	subeq	r5, r7, #0
     294:	02680000 	rsbeq	r0, r8, #0
     298:	00040000 	andeq	r0, r4, r0
     29c:	9f5001f3 	svcls	0x005001f3
     2a0:	00000268 	andeq	r0, r0, r8, ror #4
     2a4:	00000270 	andeq	r0, r0, r0, ror r2
     2a8:	70500001 	subsvc	r0, r0, r1
     2ac:	73000002 	movwvc	r0, #2
     2b0:	01000002 	tsteq	r0, r2
     2b4:	02735100 	rsbseq	r5, r3, #0, 2
     2b8:	02940000 	addseq	r0, r4, #0
     2bc:	00040000 	andeq	r0, r4, r0
     2c0:	9f5001f3 	svcls	0x005001f3
	...
     2cc:	0000020c 	andeq	r0, r0, ip, lsl #4
     2d0:	00000210 	andeq	r0, r0, r0, lsl r2
     2d4:	00530001 	subseq	r0, r3, r1
     2d8:	00000000 	andeq	r0, r0, r0
     2dc:	cc000000 	stcgt	0, cr0, [r0], {-0}
     2e0:	d4000002 	strle	r0, [r0], #-2
     2e4:	01000002 	tsteq	r0, r2
     2e8:	02d45300 	sbcseq	r5, r4, #0, 6
     2ec:	02f80000 	rscseq	r0, r8, #0
     2f0:	00060000 	andeq	r0, r6, r0
     2f4:	4001e70c 	andmi	lr, r1, ip, lsl #14
     2f8:	00009f00 	andeq	r9, r0, r0, lsl #30
     2fc:	00000000 	andeq	r0, r0, r0
     300:	02c80000 	sbceq	r0, r8, #0
     304:	02cc0000 	sbceq	r0, ip, #0
     308:	00010000 	andeq	r0, r1, r0
     30c:	00000053 	andeq	r0, r0, r3, asr r0
     310:	00000000 	andeq	r0, r0, r0
     314:	0002cc00 	andeq	ip, r2, r0, lsl #24
     318:	0002d800 	andeq	sp, r2, r0, lsl #16
     31c:	53000100 	movwpl	r0, #256	; 0x100
	...
     328:	00000308 	andeq	r0, r0, r8, lsl #6
     32c:	00000324 	andeq	r0, r0, r4, lsr #6
     330:	24500001 	ldrbcs	r0, [r0], #-1
     334:	28000003 	stmdacs	r0, {r0, r1}
     338:	04000003 	streq	r0, [r0], #-3
     33c:	5001f300 	andpl	pc, r1, r0, lsl #6
     340:	0003289f 	muleq	r3, pc, r8	; <UNPREDICTABLE>
     344:	00034000 	andeq	r4, r3, r0
     348:	50000100 	andpl	r0, r0, r0, lsl #2
     34c:	00000340 	andeq	r0, r0, r0, asr #6
     350:	00000348 	andeq	r0, r0, r8, asr #6
     354:	01f30004 	mvnseq	r0, r4
     358:	03489f50 	movteq	r9, #36688	; 0x8f50
     35c:	034c0000 	movteq	r0, #49152	; 0xc000
     360:	00010000 	andeq	r0, r1, r0
     364:	00034c50 	andeq	r4, r3, r0, asr ip
     368:	00035c00 	andeq	r5, r3, r0, lsl #24
     36c:	f3000400 	vshl.u8	d0, d0, d0
     370:	5c9f5001 	ldcpl	0, cr5, [pc], {1}
     374:	60000003 	andvs	r0, r0, r3
     378:	01000003 	tsteq	r0, r3
     37c:	03605000 	cmneq	r0, #0
     380:	03680000 	cmneq	r8, #0
     384:	00040000 	andeq	r0, r4, r0
     388:	9f5001f3 	svcls	0x005001f3
	...
     394:	00000308 	andeq	r0, r0, r8, lsl #6
     398:	00000350 	andeq	r0, r0, r0, asr r3
     39c:	50510001 	subspl	r0, r1, r1
     3a0:	5c000003 	stcpl	0, cr0, [r0], {3}
     3a4:	04000003 	streq	r0, [r0], #-3
     3a8:	5101f300 	mrspl	pc, SP_irq	; <UNPREDICTABLE>
     3ac:	00035c9f 	muleq	r3, pc, ip	; <UNPREDICTABLE>
     3b0:	00036800 	andeq	r6, r3, r0, lsl #16
     3b4:	51000100 	mrspl	r0, (UNDEF: 16)
	...
     3c0:	00000314 	andeq	r0, r0, r4, lsl r3
     3c4:	00000334 	andeq	r0, r0, r4, lsr r3
     3c8:	34530001 	ldrbcc	r0, [r3], #-1
     3cc:	40000003 	andmi	r0, r0, r3
     3d0:	0a000003 	beq	3e4 <__code_start__-0x7c1c>
     3d4:	06007000 	streq	r7, [r0], -r0
     3d8:	ffffff0c 			; <UNDEFINED> instruction: 0xffffff0c
     3dc:	409f1a00 	addsmi	r1, pc, r0, lsl #20
     3e0:	44000003 	strmi	r0, [r0], #-3
     3e4:	0b000003 	bleq	3f8 <__code_start__-0x7c08>
     3e8:	5001f300 	andpl	pc, r1, r0, lsl #6
     3ec:	ffff0c06 			; <UNDEFINED> instruction: 0xffff0c06
     3f0:	9f1a00ff 	svcls	0x001a00ff
     3f4:	00000348 	andeq	r0, r0, r8, asr #6
     3f8:	00000353 	andeq	r0, r0, r3, asr r3
     3fc:	5c530001 	mrrcpl	0, 0, r0, r3, cr1
     400:	60000003 	andvs	r0, r0, r3
     404:	0a000003 	beq	418 <__code_start__-0x7be8>
     408:	06007000 	streq	r7, [r0], -r0
     40c:	ffffff0c 			; <UNDEFINED> instruction: 0xffffff0c
     410:	609f1a00 	addsvs	r1, pc, r0, lsl #20
     414:	68000003 	stmdavs	r0, {r0, r1}
     418:	0b000003 	bleq	42c <__code_start__-0x7bd4>
     41c:	5001f300 	andpl	pc, r1, r0, lsl #6
     420:	ffff0c06 			; <UNDEFINED> instruction: 0xffff0c06
     424:	9f1a00ff 	svcls	0x001a00ff
	...
     434:	00000024 	andeq	r0, r0, r4, lsr #32
     438:	24500001 	ldrbcs	r0, [r0], #-1
     43c:	98000000 	stmdals	r0, {}	; <UNPREDICTABLE>
     440:	04000001 	streq	r0, [r0], #-1
     444:	5001f300 	andpl	pc, r1, r0, lsl #6
     448:	0000009f 	muleq	r0, pc, r0	; <UNPREDICTABLE>
	...
     454:	00002800 	andeq	r2, r0, r0, lsl #16
     458:	51000100 	mrspl	r0, (UNDEF: 16)
     45c:	00000028 	andeq	r0, r0, r8, lsr #32
     460:	00000164 	andeq	r0, r0, r4, ror #2
     464:	64550001 	ldrbvs	r0, [r5], #-1
     468:	98000001 	stmdals	r0, {r0}
     46c:	04000001 	streq	r0, [r0], #-1
     470:	5101f300 	mrspl	pc, SP_irq	; <UNPREDICTABLE>
     474:	0000009f 	muleq	r0, pc, r0	; <UNPREDICTABLE>
	...
     480:	00002c00 	andeq	r2, r0, r0, lsl #24
     484:	52000100 	andpl	r0, r0, #0, 2
     488:	0000002c 	andeq	r0, r0, ip, lsr #32
     48c:	00000198 	muleq	r0, r8, r1
     490:	01f30004 	mvnseq	r0, r4
     494:	00009f52 	andeq	r9, r0, r2, asr pc
     498:	00000000 	andeq	r0, r0, r0
     49c:	00680000 	rsbeq	r0, r8, r0
     4a0:	01640000 	cmneq	r4, r0
     4a4:	00010000 	andeq	r0, r1, r0
     4a8:	00000054 	andeq	r0, r0, r4, asr r0
     4ac:	00000000 	andeq	r0, r0, r0
     4b0:	00003800 	andeq	r3, r0, r0, lsl #16
     4b4:	00003c00 	andeq	r3, r0, r0, lsl #24
     4b8:	53000100 	movwpl	r0, #256	; 0x100
	...
     4c4:	00000198 	muleq	r0, r8, r1
     4c8:	000001d4 	ldrdeq	r0, [r0], -r4
     4cc:	d4500001 	ldrble	r0, [r0], #-1
     4d0:	18000001 	stmdane	r0, {r0}
     4d4:	01000006 	tsteq	r0, r6
     4d8:	06185400 	ldreq	r5, [r8], -r0, lsl #8
     4dc:	06780000 	ldrbteq	r0, [r8], -r0
     4e0:	00040000 	andeq	r0, r4, r0
     4e4:	9f5001f3 	svcls	0x005001f3
	...
     4f0:	000001a8 	andeq	r0, r0, r8, lsr #3
     4f4:	000004f4 	strdeq	r0, [r0], -r4
     4f8:	00580001 	subseq	r0, r8, r1
     4fc:	00000000 	andeq	r0, r0, r0
     500:	ac000000 	stcge	0, cr0, [r0], {-0}
     504:	f4000002 	vst4.8	{d0-d3}, [r0], r2
     508:	01000004 	tsteq	r0, r4
     50c:	00005800 	andeq	r5, r0, r0, lsl #16
     510:	00000000 	andeq	r0, r0, r0
     514:	03cc0000 	biceq	r0, ip, #0
     518:	06180000 	ldreq	r0, [r8], -r0
     51c:	00010000 	andeq	r0, r1, r0
     520:	00000055 	andeq	r0, r0, r5, asr r0
     524:	00000000 	andeq	r0, r0, r0
     528:	0004f000 	andeq	pc, r4, r0
     52c:	0004f400 	andeq	pc, r4, r0, lsl #8
     530:	58000100 	stmdapl	r0, {r8}
	...
     53c:	00000560 	andeq	r0, r0, r0, ror #10
     540:	00000564 	andeq	r0, r0, r4, ror #10
     544:	00530001 	subseq	r0, r3, r1
     548:	00000000 	andeq	r0, r0, r0
     54c:	78000000 	stmdavc	r0, {}	; <UNPREDICTABLE>
     550:	88000006 	stmdahi	r0, {r1, r2}
     554:	01000006 	tsteq	r0, r6
     558:	06885000 	streq	r5, [r8], r0
     55c:	06fc0000 	ldrbteq	r0, [ip], r0
     560:	00010000 	andeq	r0, r1, r0
     564:	00000054 	andeq	r0, r0, r4, asr r0
     568:	00000000 	andeq	r0, r0, r0
     56c:	00068000 	andeq	r8, r6, r0
     570:	00068800 	andeq	r8, r6, r0, lsl #16
     574:	30000200 	andcc	r0, r0, r0, lsl #4
     578:	0006889f 	muleq	r6, pc, r8	; <UNPREDICTABLE>
     57c:	0006fc00 	andeq	pc, r6, r0, lsl #24
     580:	55000100 	strpl	r0, [r0, #-256]	; 0x100
	...
     58c:	00000724 	andeq	r0, r0, r4, lsr #14
     590:	0000072f 	andeq	r0, r0, pc, lsr #14
     594:	2f500001 	svccs	0x00500001
     598:	70000007 	andvc	r0, r0, r7
     59c:	01000007 	tsteq	r0, r7
     5a0:	00005400 	andeq	r5, r0, r0, lsl #8
     5a4:	00000000 	andeq	r0, r0, r0
     5a8:	002c0000 	eoreq	r0, ip, r0
     5ac:	00380000 	eorseq	r0, r8, r0
     5b0:	00010000 	andeq	r0, r1, r0
     5b4:	00003850 	andeq	r3, r0, r0, asr r8
     5b8:	00004800 	andeq	r4, r0, r0, lsl #16
     5bc:	55000100 	strpl	r0, [r0, #-256]	; 0x100
     5c0:	00000048 	andeq	r0, r0, r8, asr #32
     5c4:	00000058 	andeq	r0, r0, r8, asr r0
     5c8:	00500001 	subseq	r0, r0, r1
	...
     5d4:	0b000000 	bleq	5dc <__code_start__-0x7a24>
     5d8:	01000000 	mrseq	r0, (UNDEF: 0)
     5dc:	000b5000 	andeq	r5, fp, r0
     5e0:	00140000 	andseq	r0, r4, r0
     5e4:	00010000 	andeq	r0, r1, r0
     5e8:	00000054 	andeq	r0, r0, r4, asr r0
	...
     5f4:	00001000 	andeq	r1, r0, r0
     5f8:	50000100 	andpl	r0, r0, r0, lsl #2
     5fc:	00000010 	andeq	r0, r0, r0, lsl r0
     600:	00000034 	andeq	r0, r0, r4, lsr r0
     604:	00540001 	subseq	r0, r4, r1
	...
     610:	04000000 	streq	r0, [r0], #-0
     614:	01000000 	mrseq	r0, (UNDEF: 0)
     618:	00045000 	andeq	r5, r4, r0
     61c:	000c0000 	andeq	r0, ip, r0
     620:	00030000 	andeq	r0, r3, r0
     624:	0c9f3070 	ldceq	0, cr3, [pc], {112}	; 0x70
     628:	14000000 	strne	r0, [r0], #-0
     62c:	04000000 	streq	r0, [r0], #-0
     630:	5001f300 	andpl	pc, r1, r0, lsl #6
     634:	0000009f 	muleq	r0, pc, r0	; <UNPREDICTABLE>
     638:	00000000 	andeq	r0, r0, r0
     63c:	00001400 	andeq	r1, r0, r0, lsl #8
     640:	00002000 	andeq	r2, r0, r0
     644:	50000100 	andpl	r0, r0, r0, lsl #2
     648:	00000020 	andeq	r0, r0, r0, lsr #32
     64c:	0000002c 	andeq	r0, r0, ip, lsr #32
     650:	01700003 	cmneq	r0, r3
     654:	00002c9f 	muleq	r0, pc, ip	; <UNPREDICTABLE>
     658:	00004000 	andeq	r4, r0, r0
     65c:	50000100 	andpl	r0, r0, r0, lsl #2
	...
     668:	00000014 	andeq	r0, r0, r4, lsl r0
     66c:	00000018 	andeq	r0, r0, r8, lsl r0
     670:	18510001 	ldmdane	r1, {r0}^
     674:	40000000 	andmi	r0, r0, r0
     678:	04000000 	streq	r0, [r0], #-0
     67c:	5101f300 	mrspl	pc, SP_irq	; <UNPREDICTABLE>
     680:	0000009f 	muleq	r0, pc, r0	; <UNPREDICTABLE>
     684:	00000000 	andeq	r0, r0, r0
     688:	00004000 	andeq	r4, r0, r0
     68c:	00006000 	andeq	r6, r0, r0
     690:	50000100 	andpl	r0, r0, r0, lsl #2
     694:	00000060 	andeq	r0, r0, r0, rrx
     698:	0000006c 	andeq	r0, r0, ip, rrx
     69c:	01710003 	cmneq	r1, r3
     6a0:	00006c9f 	muleq	r0, pc, ip	; <UNPREDICTABLE>
     6a4:	00007400 	andeq	r7, r0, r0, lsl #8
     6a8:	51000100 	mrspl	r0, (UNDEF: 16)
     6ac:	00000074 	andeq	r0, r0, r4, ror r0
     6b0:	00000080 	andeq	r0, r0, r0, lsl #1
     6b4:	01710003 	cmneq	r1, r3
     6b8:	0000009f 	muleq	r0, pc, r0	; <UNPREDICTABLE>
     6bc:	00000000 	andeq	r0, r0, r0
     6c0:	00004000 	andeq	r4, r0, r0
     6c4:	00005000 	andeq	r5, r0, r0
     6c8:	51000100 	mrspl	r0, (UNDEF: 16)
     6cc:	00000050 	andeq	r0, r0, r0, asr r0
     6d0:	00000080 	andeq	r0, r0, r0, lsl #1
     6d4:	01f30004 	mvnseq	r0, r4
     6d8:	00009f51 	andeq	r9, r0, r1, asr pc
     6dc:	00000000 	andeq	r0, r0, r0
     6e0:	00400000 	subeq	r0, r0, r0
     6e4:	00580000 	subseq	r0, r8, r0
     6e8:	00010000 	andeq	r0, r1, r0
     6ec:	00005852 	andeq	r5, r0, r2, asr r8
     6f0:	00006400 	andeq	r6, r0, r0, lsl #8
     6f4:	52000100 	andpl	r0, r0, #0, 2
     6f8:	00000064 	andeq	r0, r0, r4, rrx
     6fc:	00000068 	andeq	r0, r0, r8, rrx
     700:	01720003 	cmneq	r2, r3
     704:	0000689f 	muleq	r0, pc, r8	; <UNPREDICTABLE>
     708:	00008000 	andeq	r8, r0, r0
     70c:	52000100 	andpl	r0, r0, #0, 2
	...
     718:	00000040 	andeq	r0, r0, r0, asr #32
     71c:	00000054 	andeq	r0, r0, r4, asr r0
     720:	54530001 	ldrbpl	r0, [r3], #-1
     724:	78000000 	stmdavc	r0, {}	; <UNPREDICTABLE>
     728:	01000000 	mrseq	r0, (UNDEF: 0)
     72c:	00005300 	andeq	r5, r0, r0, lsl #6
     730:	00000000 	andeq	r0, r0, r0
     734:	00480000 	subeq	r0, r8, r0
     738:	00600000 	rsbeq	r0, r0, r0
     73c:	00010000 	andeq	r0, r1, r0
     740:	0000605c 	andeq	r6, r0, ip, asr r0
     744:	00008000 	andeq	r8, r0, r0
     748:	f3000a00 	vpmax.u8	d0, d0, d0
     74c:	01f35201 	mvnseq	r5, r1, lsl #4
     750:	01231c53 	teqeq	r3, r3, asr ip
     754:	0000009f 	muleq	r0, pc, r0	; <UNPREDICTABLE>
     758:	00000000 	andeq	r0, r0, r0
     75c:	00008000 	andeq	r8, r0, r0
     760:	0000a400 	andeq	sl, r0, r0, lsl #8
     764:	50000100 	andpl	r0, r0, r0, lsl #2
     768:	000000a4 	andeq	r0, r0, r4, lsr #1
     76c:	00000118 	andeq	r0, r0, r8, lsl r1
     770:	02700003 	rsbseq	r0, r0, #3
     774:	0001189f 	muleq	r1, pc, r8	; <UNPREDICTABLE>
     778:	00023c00 	andeq	r3, r2, r0, lsl #24
     77c:	f3000400 	vshl.u8	d0, d0, d0
     780:	009f5001 	addseq	r5, pc, r1
     784:	00000000 	andeq	r0, r0, r0
     788:	80000000 	andhi	r0, r0, r0
     78c:	f0000000 			; <UNDEFINED> instruction: 0xf0000000
     790:	01000000 	mrseq	r0, (UNDEF: 0)
     794:	00f05100 	rscseq	r5, r0, r0, lsl #2
     798:	01600000 	cmneq	r0, r0
     79c:	00010000 	andeq	r0, r1, r0
     7a0:	00016055 	andeq	r6, r1, r5, asr r0
     7a4:	00016c00 	andeq	r6, r1, r0, lsl #24
     7a8:	51000100 	mrspl	r0, (UNDEF: 16)
     7ac:	0000016c 	andeq	r0, r0, ip, ror #2
     7b0:	000001a0 	andeq	r0, r0, r0, lsr #3
     7b4:	a0550001 	subsge	r0, r5, r1
     7b8:	b4000001 	strlt	r0, [r0], #-1
     7bc:	01000001 	tsteq	r0, r1
     7c0:	01b45100 			; <UNDEFINED> instruction: 0x01b45100
     7c4:	01d40000 	bicseq	r0, r4, r0
     7c8:	00010000 	andeq	r0, r1, r0
     7cc:	0001d455 	andeq	sp, r1, r5, asr r4
     7d0:	0001d700 	andeq	sp, r1, r0, lsl #14
     7d4:	51000100 	mrspl	r0, (UNDEF: 16)
     7d8:	000001d7 	ldrdeq	r0, [r0], -r7
     7dc:	0000021c 	andeq	r0, r0, ip, lsl r2
     7e0:	1c550001 	mrrcne	0, 0, r0, r5, cr1
     7e4:	3c000002 	stccc	0, cr0, [r0], {2}
     7e8:	04000002 	streq	r0, [r0], #-2
     7ec:	5101f300 	mrspl	pc, SP_irq	; <UNPREDICTABLE>
     7f0:	0000009f 	muleq	r0, pc, r0	; <UNPREDICTABLE>
     7f4:	00000000 	andeq	r0, r0, r0
     7f8:	00008000 	andeq	r8, r0, r0
     7fc:	00009400 	andeq	r9, r0, r0, lsl #8
     800:	52000100 	andpl	r0, r0, #0, 2
     804:	00000094 	muleq	r0, r4, r0
     808:	0000021c 	andeq	r0, r0, ip, lsl r2
     80c:	1c540001 	mrrcne	0, 0, r0, r4, cr1
     810:	3c000002 	stccc	0, cr0, [r0], {2}
     814:	04000002 	streq	r0, [r0], #-2
     818:	5201f300 	andpl	pc, r1, #0, 6
     81c:	0000009f 	muleq	r0, pc, r0	; <UNPREDICTABLE>
     820:	00000000 	andeq	r0, r0, r0
     824:	00008000 	andeq	r8, r0, r0
     828:	00010000 	andeq	r0, r1, r0
     82c:	53000100 	movwpl	r0, #256	; 0x100
     830:	00000104 	andeq	r0, r0, r4, lsl #2
     834:	00000108 	andeq	r0, r0, r8, lsl #2
     838:	60530001 	subsvs	r0, r3, r1
     83c:	64000001 	strvs	r0, [r0], #-1
     840:	01000001 	tsteq	r0, r1
     844:	01645300 	cmneq	r4, r0, lsl #6
     848:	016c0000 	cmneq	ip, r0
     84c:	00010000 	andeq	r0, r1, r0
     850:	00016c5c 	andeq	r6, r1, ip, asr ip
     854:	0001a000 	andeq	sl, r1, r0
     858:	f3000400 	vshl.u8	d0, d0, d0
     85c:	a09f5301 	addsge	r5, pc, r1, lsl #6
     860:	b0000001 	andlt	r0, r0, r1
     864:	01000001 	tsteq	r0, r1
     868:	01b05300 	lslseq	r5, r0, #6
     86c:	01b40000 			; <UNDEFINED> instruction: 0x01b40000
     870:	00010000 	andeq	r0, r1, r0
     874:	0001b45c 	andeq	fp, r1, ip, asr r4
     878:	0001d400 	andeq	sp, r1, r0, lsl #8
     87c:	f3000400 	vshl.u8	d0, d0, d0
     880:	d49f5301 	ldrle	r5, [pc], #769	; 888 <__code_start__-0x7778>
     884:	d7000001 	strle	r0, [r0, -r1]
     888:	01000001 	tsteq	r0, r1
     88c:	01d75300 	bicseq	r5, r7, r0, lsl #6
     890:	01f80000 	mvnseq	r0, r0
     894:	00040000 	andeq	r0, r4, r0
     898:	9f5301f3 	svcls	0x005301f3
	...
     8a4:	00000080 	andeq	r0, r0, r0, lsl #1
     8a8:	0000009c 	muleq	r0, ip, r0
     8ac:	00910002 	addseq	r0, r1, r2
     8b0:	0000009c 	muleq	r0, ip, r0
     8b4:	000001d7 	ldrdeq	r0, [r0], -r7
     8b8:	f8520001 			; <UNDEFINED> instruction: 0xf8520001
     8bc:	ff000001 			; <UNDEFINED> instruction: 0xff000001
     8c0:	01000001 	tsteq	r0, r1
     8c4:	00005200 	andeq	r5, r0, r0, lsl #4
     8c8:	00000000 	andeq	r0, r0, r0
     8cc:	009c0000 	addseq	r0, ip, r0
     8d0:	010c0000 	mrseq	r0, (UNDEF: 12)
     8d4:	00040000 	andeq	r0, r4, r0
     8d8:	9f7fa091 	svcls	0x007fa091
     8dc:	0000010c 	andeq	r0, r0, ip, lsl #2
     8e0:	00000118 	andeq	r0, r0, r8, lsl r1
     8e4:	18510001 	ldmdane	r1, {r0}^
     8e8:	1c000001 	stcne	0, cr0, [r0], {1}
     8ec:	01000001 	tsteq	r0, r1
     8f0:	011c5000 	tsteq	ip, r0
     8f4:	01200000 	teqeq	r0, r0
     8f8:	00010000 	andeq	r0, r1, r0
     8fc:	00012051 	andeq	r2, r1, r1, asr r0
     900:	00016000 	andeq	r6, r1, r0
     904:	50000100 	andpl	r0, r0, r0, lsl #2
     908:	00000160 	andeq	r0, r0, r0, ror #2
     90c:	00000164 	andeq	r0, r0, r4, ror #2
     910:	a0910004 	addsge	r0, r1, r4
     914:	01649f7f 	smceq	18943	; 0x49ff
     918:	016c0000 	cmneq	ip, r0
     91c:	00010000 	andeq	r0, r1, r0
     920:	00016c53 	andeq	r6, r1, r3, asr ip
     924:	00017000 	andeq	r7, r1, r0
     928:	50000100 	andpl	r0, r0, r0, lsl #2
     92c:	00000170 	andeq	r0, r0, r0, ror r1
     930:	00000174 	andeq	r0, r0, r4, ror r1
     934:	74530001 	ldrbvc	r0, [r3], #-1
     938:	88000001 	stmdahi	r0, {r0}
     93c:	01000001 	tsteq	r0, r1
     940:	01885000 	orreq	r5, r8, r0
     944:	01940000 	orrseq	r0, r4, r0
     948:	00030000 	andeq	r0, r3, r0
     94c:	949f0170 	ldrls	r0, [pc], #368	; 954 <__code_start__-0x76ac>
     950:	a0000001 	andge	r0, r0, r1
     954:	01000001 	tsteq	r0, r1
     958:	01a05000 	moveq	r5, r0
     95c:	01a80000 			; <UNDEFINED> instruction: 0x01a80000
     960:	00040000 	andeq	r0, r4, r0
     964:	9f7fa191 	svcls	0x007fa191
     968:	000001a8 	andeq	r0, r0, r8, lsr #3
     96c:	000001ac 	andeq	r0, r0, ip, lsr #3
     970:	ac500001 	mrrcge	0, 0, r0, r0, cr1	; <UNPREDICTABLE>
     974:	b0000001 	andlt	r0, r0, r1
     978:	04000001 	streq	r0, [r0], #-1
     97c:	7fa09100 	svcvc	0x00a09100
     980:	0001b09f 	muleq	r1, pc, r0	; <UNPREDICTABLE>
     984:	0001b800 	andeq	fp, r1, r0, lsl #16
     988:	53000100 	movwpl	r0, #256	; 0x100
     98c:	000001b8 			; <UNDEFINED> instruction: 0x000001b8
     990:	000001d4 	ldrdeq	r0, [r0], -r4
     994:	d4500001 	ldrble	r0, [r0], #-1
     998:	f8000001 			; <UNDEFINED> instruction: 0xf8000001
     99c:	04000001 	streq	r0, [r0], #-1
     9a0:	7fa09100 	svcvc	0x00a09100
     9a4:	0001f89f 	muleq	r1, pc, r8	; <UNPREDICTABLE>
     9a8:	0001ff00 	andeq	pc, r1, r0, lsl #30
     9ac:	50000100 	andpl	r0, r0, r0, lsl #2
	...
     9b8:	000000a0 	andeq	r0, r0, r0, lsr #1
     9bc:	000000ec 	andeq	r0, r0, ip, ror #1
     9c0:	ec5c0001 	mrrc	0, 0, r0, ip, cr1
     9c4:	00000000 	andeq	r0, r0, r0
     9c8:	01000001 	tsteq	r0, r1
     9cc:	01005300 	mrseq	r5, LR_irq
     9d0:	01040000 	mrseq	r0, (UNDEF: 4)
     9d4:	00010000 	andeq	r0, r1, r0
     9d8:	0001045c 	andeq	r0, r1, ip, asr r4
     9dc:	00010800 	andeq	r0, r1, r0, lsl #16
     9e0:	53000100 	movwpl	r0, #256	; 0x100
     9e4:	00000108 	andeq	r0, r0, r8, lsl #2
     9e8:	00000160 	andeq	r0, r0, r0, ror #2
     9ec:	605c0001 	subsvs	r0, ip, r1
     9f0:	64000001 	strvs	r0, [r0], #-1
     9f4:	01000001 	tsteq	r0, r1
     9f8:	01645300 	cmneq	r4, r0, lsl #6
     9fc:	01800000 	orreq	r0, r0, r0
     a00:	00010000 	andeq	r0, r1, r0
     a04:	0001805c 	andeq	r8, r1, ip, asr r0
     a08:	00018400 	andeq	r8, r1, r0, lsl #8
     a0c:	7c000500 	cfstr32vc	mvfx0, [r0], {-0}
     a10:	9f253400 	svcls	0x00253400
     a14:	00000184 	andeq	r0, r0, r4, lsl #3
     a18:	000001a0 	andeq	r0, r0, r0, lsr #3
     a1c:	a05c0001 	subsge	r0, ip, r1
     a20:	b0000001 	andlt	r0, r0, r1
     a24:	01000001 	tsteq	r0, r1
     a28:	01b05300 	lslseq	r5, r0, #6
     a2c:	01c40000 	biceq	r0, r4, r0
     a30:	00010000 	andeq	r0, r1, r0
     a34:	0001c45c 	andeq	ip, r1, ip, asr r4
     a38:	0001cc00 	andeq	ip, r1, r0, lsl #24
     a3c:	7c000500 	cfstr32vc	mvfx0, [r0], {-0}
     a40:	9f253100 	svcls	0x00253100
     a44:	000001cc 	andeq	r0, r0, ip, asr #3
     a48:	000001d4 	ldrdeq	r0, [r0], -r4
     a4c:	d45c0001 	ldrble	r0, [ip], #-1
     a50:	d7000001 	strle	r0, [r0, -r1]
     a54:	01000001 	tsteq	r0, r1
     a58:	01d75300 	bicseq	r5, r7, r0, lsl #6
     a5c:	01f80000 	mvnseq	r0, r0
     a60:	00040000 	andeq	r0, r4, r0
     a64:	9f5301f3 	svcls	0x005301f3
     a68:	000001f8 	strdeq	r0, [r0], -r8
     a6c:	000001ff 	strdeq	r0, [r0], -pc	; <UNPREDICTABLE>
     a70:	005c0001 	subseq	r0, ip, r1
     a74:	00000000 	andeq	r0, r0, r0
     a78:	ec000000 	stc	0, cr0, [r0], {-0}
     a7c:	fc000000 	stc2	0, cr0, [r0], {-0}
     a80:	02000000 	andeq	r0, r0, #0
     a84:	fc9f3000 	ldc2	0, cr3, [pc], {0}
     a88:	04000000 	streq	r0, [r0], #-0
     a8c:	02000001 	andeq	r0, r0, #1
     a90:	049f3100 	ldreq	r3, [pc], #256	; a98 <__code_start__-0x7568>
     a94:	08000001 	stmdaeq	r0, {r0}
     a98:	02000001 	andeq	r0, r0, #1
     a9c:	009f3000 	addseq	r3, pc, r0
     aa0:	00000000 	andeq	r0, r0, r0
     aa4:	3c000000 	stccc	0, cr0, [r0], {-0}
     aa8:	4f000002 	svcmi	0x00000002
     aac:	01000002 	tsteq	r0, r2
     ab0:	024f5000 	subeq	r5, pc, #0
     ab4:	02700000 	rsbseq	r0, r0, #0
     ab8:	00040000 	andeq	r0, r4, r0
     abc:	9f5001f3 	svcls	0x005001f3
     ac0:	00000270 	andeq	r0, r0, r0, ror r2
     ac4:	000002a4 	andeq	r0, r0, r4, lsr #5
     ac8:	00500001 	subseq	r0, r0, r1
     acc:	00000000 	andeq	r0, r0, r0
     ad0:	3c000000 	stccc	0, cr0, [r0], {-0}
     ad4:	4f000002 	svcmi	0x00000002
     ad8:	01000002 	tsteq	r0, r2
     adc:	024f5100 	subeq	r5, pc, #0, 2
     ae0:	02700000 	rsbseq	r0, r0, #0
     ae4:	00040000 	andeq	r0, r4, r0
     ae8:	9f5101f3 	svcls	0x005101f3
     aec:	00000270 	andeq	r0, r0, r0, ror r2
     af0:	000002a4 	andeq	r0, r0, r4, lsr #5
     af4:	00510001 	subseq	r0, r1, r1
     af8:	00000000 	andeq	r0, r0, r0
     afc:	a4000000 	strge	r0, [r0], #-0
     b00:	d4000002 	strle	r0, [r0], #-2
     b04:	01000002 	tsteq	r0, r2
     b08:	02d45000 	sbcseq	r5, r4, #0
     b0c:	05580000 	ldrbeq	r0, [r8, #-0]
     b10:	00010000 	andeq	r0, r1, r0
     b14:	0005585b 	andeq	r5, r5, fp, asr r8
     b18:	00057800 	andeq	r7, r5, r0, lsl #16
     b1c:	f3000400 	vshl.u8	d0, d0, d0
     b20:	009f5001 	addseq	r5, pc, r1
     b24:	00000000 	andeq	r0, r0, r0
     b28:	a4000000 	strge	r0, [r0], #-0
     b2c:	bc000002 	stclt	0, cr0, [r0], {2}
     b30:	01000002 	tsteq	r0, r2
     b34:	02bc5100 	adcseq	r5, ip, #0, 2
     b38:	02d40000 	sbcseq	r0, r4, #0
     b3c:	00030000 	andeq	r0, r3, r0
     b40:	d49f0171 	ldrle	r0, [pc], #369	; b48 <__code_start__-0x74b8>
     b44:	78000002 	stmdavc	r0, {r1}
     b48:	04000005 	streq	r0, [r0], #-5
     b4c:	5101f300 	mrspl	pc, SP_irq	; <UNPREDICTABLE>
     b50:	0000009f 	muleq	r0, pc, r0	; <UNPREDICTABLE>
     b54:	00000000 	andeq	r0, r0, r0
     b58:	0002a400 	andeq	sl, r2, r0, lsl #8
     b5c:	0002d400 	andeq	sp, r2, r0, lsl #8
     b60:	52000100 	andpl	r0, r0, #0, 2
     b64:	000002d4 	ldrdeq	r0, [r0], -r4
     b68:	00000558 	andeq	r0, r0, r8, asr r5
     b6c:	00560001 	subseq	r0, r6, r1
     b70:	00000000 	andeq	r0, r0, r0
     b74:	a4000000 	strge	r0, [r0], #-0
     b78:	c4000002 	strgt	r0, [r0], #-2
     b7c:	01000002 	tsteq	r0, r2
     b80:	00005300 	andeq	r5, r0, r0, lsl #6
     b84:	00000000 	andeq	r0, r0, r0
     b88:	02b80000 	adcseq	r0, r8, #0
     b8c:	02d40000 	sbcseq	r0, r4, #0
     b90:	00010000 	andeq	r0, r1, r0
     b94:	0002d450 	andeq	sp, r2, r0, asr r4
     b98:	0002d800 	andeq	sp, r2, r0, lsl #16
     b9c:	54000100 	strpl	r0, [r0], #-256	; 0x100
     ba0:	000002d8 	ldrdeq	r0, [r0], -r8
     ba4:	000002e4 	andeq	r0, r0, r4, ror #5
     ba8:	01740003 	cmneq	r4, r3
     bac:	0002e49f 	muleq	r2, pc, r4	; <UNPREDICTABLE>
     bb0:	0002f000 	andeq	pc, r2, r0
     bb4:	54000100 	strpl	r0, [r0], #-256	; 0x100
     bb8:	000002f0 	strdeq	r0, [r0], -r0	; <UNPREDICTABLE>
     bbc:	000002fc 	strdeq	r0, [r0], -ip
     bc0:	01740003 	cmneq	r4, r3
     bc4:	0002fc9f 	muleq	r2, pc, ip	; <UNPREDICTABLE>
     bc8:	00050c00 	andeq	r0, r5, r0, lsl #24
     bcc:	54000100 	strpl	r0, [r0], #-256	; 0x100
     bd0:	0000050c 	andeq	r0, r0, ip, lsl #10
     bd4:	00000518 	andeq	r0, r0, r8, lsl r5
     bd8:	01740003 	cmneq	r4, r3
     bdc:	0005189f 	muleq	r5, pc, r8	; <UNPREDICTABLE>
     be0:	00054400 	andeq	r4, r5, r0, lsl #8
     be4:	54000100 	strpl	r0, [r0], #-256	; 0x100
     be8:	00000544 	andeq	r0, r0, r4, asr #10
     bec:	00000550 	andeq	r0, r0, r0, asr r5
     bf0:	50500001 	subspl	r0, r0, r1
     bf4:	58000005 	stmdapl	r0, {r0, r2}
     bf8:	03000005 	movweq	r0, #5
     bfc:	9f017400 	svcls	0x00017400
	...
     c08:	000002c0 	andeq	r0, r0, r0, asr #5
     c0c:	00000558 	andeq	r0, r0, r8, asr r5
     c10:	58580001 	ldmdapl	r8, {r0}^
     c14:	78000005 	stmdavc	r0, {r0, r2}
     c18:	0a000005 	beq	c34 <__code_start__-0x73cc>
     c1c:	5101f300 	mrspl	pc, SP_irq	; <UNPREDICTABLE>
     c20:	225001f3 	subscs	r0, r0, #-1073741764	; 0xc000003c
     c24:	009f1c31 	addseq	r1, pc, r1, lsr ip	; <UNPREDICTABLE>
     c28:	00000000 	andeq	r0, r0, r0
     c2c:	c8000000 	stmdagt	r0, {}	; <UNPREDICTABLE>
     c30:	d4000002 	strle	r0, [r0], #-2
     c34:	01000002 	tsteq	r0, r2
     c38:	02d45200 	sbcseq	r5, r4, #0, 4
     c3c:	05780000 	ldrbeq	r0, [r8, #-0]!
     c40:	00030000 	andeq	r0, r3, r0
     c44:	007ecc91 			; <UNDEFINED> instruction: 0x007ecc91
     c48:	00000000 	andeq	r0, r0, r0
     c4c:	10000000 	andne	r0, r0, r0
     c50:	14000004 	strne	r0, [r0], #-4
     c54:	01000004 	tsteq	r0, r4
     c58:	04385000 	ldrteq	r5, [r8], #-0
     c5c:	043c0000 	ldrteq	r0, [ip], #-0
     c60:	00010000 	andeq	r0, r1, r0
     c64:	00046050 	andeq	r6, r4, r0, asr r0
     c68:	00046400 	andeq	r6, r4, r0, lsl #8
     c6c:	50000100 	andpl	r0, r0, r0, lsl #2
     c70:	00000488 	andeq	r0, r0, r8, lsl #9
     c74:	0000048c 	andeq	r0, r0, ip, lsl #9
     c78:	94500001 	ldrbls	r0, [r0], #-1
     c7c:	98000004 	stmdals	r0, {r2}
     c80:	01000004 	tsteq	r0, r4
     c84:	04bc5000 	ldrteq	r5, [ip], #0
     c88:	04c00000 	strbeq	r0, [r0], #0
     c8c:	00010000 	andeq	r0, r1, r0
     c90:	00050450 	andeq	r0, r5, r0, asr r4
     c94:	00052c00 	andeq	r2, r5, r0, lsl #24
     c98:	50000100 	andpl	r0, r0, r0, lsl #2
	...
     ca4:	00000304 	andeq	r0, r0, r4, lsl #6
     ca8:	0000030c 	andeq	r0, r0, ip, lsl #6
     cac:	9f300002 	svcls	0x00300002
     cb0:	0000030c 	andeq	r0, r0, ip, lsl #6
     cb4:	00000310 	andeq	r0, r0, r0, lsl r3
     cb8:	1c570001 	mrrcne	0, 0, r0, r7, cr1
     cbc:	2c000003 	stccs	0, cr0, [r0], {3}
     cc0:	01000005 	tsteq	r0, r5
     cc4:	00005700 	andeq	r5, r0, r0, lsl #14
     cc8:	00000000 	andeq	r0, r0, r0
     ccc:	00040000 	andeq	r0, r4, r0
     cd0:	00080000 	andeq	r0, r8, r0
     cd4:	00070000 	andeq	r0, r7, r0
     cd8:	000a0073 	andeq	r0, sl, r3, ror r0
     cdc:	089f2110 	ldmeq	pc, {r4, r8, sp}	; <UNPREDICTABLE>
     ce0:	10000000 	andne	r0, r0, r0
     ce4:	01000000 	mrseq	r0, (UNDEF: 0)
     ce8:	00005300 	andeq	r5, r0, r0, lsl #6
     cec:	00000000 	andeq	r0, r0, r0
     cf0:	00140000 	andseq	r0, r4, r0
     cf4:	00180000 	andseq	r0, r8, r0
     cf8:	00070000 	andeq	r0, r7, r0
     cfc:	ff0b0073 			; <UNDEFINED> instruction: 0xff0b0073
     d00:	189f1aef 	ldmne	pc, {r0, r1, r2, r3, r5, r6, r7, r9, fp, ip}	; <UNPREDICTABLE>
     d04:	20000000 	andcs	r0, r0, r0
     d08:	01000000 	mrseq	r0, (UNDEF: 0)
     d0c:	00005300 	andeq	r5, r0, r0, lsl #6
     d10:	00000000 	andeq	r0, r0, r0
     d14:	00140000 	andseq	r0, r4, r0
     d18:	001c0000 	andseq	r0, ip, r0
     d1c:	00030000 	andeq	r0, r3, r0
     d20:	1c9f0473 	cfldrsne	mvf0, [pc], {115}	; 0x73
     d24:	27000000 	strcs	r0, [r0, -r0]
     d28:	01000000 	mrseq	r0, (UNDEF: 0)
     d2c:	00005300 	andeq	r5, r0, r0, lsl #6
	...
     d38:	000f0000 	andeq	r0, pc, r0
     d3c:	00010000 	andeq	r0, r1, r0
     d40:	00000f50 	andeq	r0, r0, r0, asr pc
     d44:	00004400 	andeq	r4, r0, r0, lsl #8
     d48:	54000100 	strpl	r0, [r0], #-256	; 0x100
	...
     d58:	0000000f 	andeq	r0, r0, pc
     d5c:	0f500001 	svceq	0x00500001
     d60:	44000000 	strmi	r0, [r0], #-0
     d64:	01000000 	mrseq	r0, (UNDEF: 0)
     d68:	00005400 	andeq	r5, r0, r0, lsl #8
	...
     d74:	000f0000 	andeq	r0, pc, r0
     d78:	00010000 	andeq	r0, r1, r0
     d7c:	00000f50 	andeq	r0, r0, r0, asr pc
     d80:	00004400 	andeq	r4, r0, r0, lsl #8
     d84:	54000100 	strpl	r0, [r0], #-256	; 0x100
	...
     d90:	00000034 	andeq	r0, r0, r4, lsr r0
     d94:	00000040 	andeq	r0, r0, r0, asr #32
     d98:	9f300002 	svcls	0x00300002
     d9c:	00000040 	andeq	r0, r0, r0, asr #32
     da0:	0000006c 	andeq	r0, r0, ip, rrx
     da4:	00530001 	subseq	r0, r3, r1
     da8:	00000000 	andeq	r0, r0, r0
     dac:	60000000 	andvs	r0, r0, r0
     db0:	64000095 	strvs	r0, [r0], #-149	; 0x95
     db4:	02000095 	andeq	r0, r0, #149	; 0x95
     db8:	649f3000 	ldrvs	r3, [pc], #0	; dc0 <__code_start__-0x7240>
     dbc:	68000095 	stmdavs	r0, {r0, r2, r4, r7}
     dc0:	01000095 	swpeq	r0, r5, [r0]	; <UNPREDICTABLE>
     dc4:	00005000 	andeq	r5, r0, r0
     dc8:	00000000 	andeq	r0, r0, r0
     dcc:	95780000 	ldrbls	r0, [r8, #-0]!
     dd0:	957c0000 	ldrbls	r0, [ip, #-0]!
     dd4:	00020000 	andeq	r0, r2, r0
     dd8:	957c9f30 	ldrbls	r9, [ip, #-3888]!	; 0xf30
     ddc:	95800000 	strls	r0, [r0]
     de0:	00010000 	andeq	r0, r1, r0
     de4:	00958453 	addseq	r8, r5, r3, asr r4
     de8:	00958c00 	addseq	r8, r5, r0, lsl #24
     dec:	53000100 	movwpl	r0, #256	; 0x100
	...
     dfc:	00000004 	andeq	r0, r0, r4
     e00:	04500001 	ldrbeq	r0, [r0], #-1
     e04:	0c000000 	stceq	0, cr0, [r0], {-0}
     e08:	01000000 	mrseq	r0, (UNDEF: 0)
     e0c:	000c5300 	andeq	r5, ip, r0, lsl #6
     e10:	00100000 	andseq	r0, r0, r0
     e14:	00010000 	andeq	r0, r1, r0
     e18:	00001050 	andeq	r1, r0, r0, asr r0
     e1c:	00001c00 	andeq	r1, r0, r0, lsl #24
     e20:	53000100 	movwpl	r0, #256	; 0x100
	...
     e2c:	00000040 	andeq	r0, r0, r0, asr #32
     e30:	00000043 	andeq	r0, r0, r3, asr #32
     e34:	43500001 	cmpmi	r0, #1
     e38:	4c000000 	stcmi	0, cr0, [r0], {-0}
     e3c:	01000000 	mrseq	r0, (UNDEF: 0)
     e40:	00005400 	andeq	r5, r0, r0, lsl #8
     e44:	00000000 	andeq	r0, r0, r0
     e48:	004c0000 	subeq	r0, ip, r0
     e4c:	00570000 	subseq	r0, r7, r0
     e50:	00010000 	andeq	r0, r1, r0
     e54:	00005750 	andeq	r5, r0, r0, asr r7
     e58:	00007000 	andeq	r7, r0, r0
     e5c:	55000100 	strpl	r0, [r0, #-256]	; 0x100
	...
     e68:	00000060 	andeq	r0, r0, r0, rrx
     e6c:	00000064 	andeq	r0, r0, r4, rrx
     e70:	00500001 	subseq	r0, r0, r1
     e74:	00000000 	andeq	r0, r0, r0
     e78:	70000000 	andvc	r0, r0, r0
     e7c:	7c000000 	stcvc	0, cr0, [r0], {-0}
     e80:	01000000 	mrseq	r0, (UNDEF: 0)
     e84:	007c5000 	rsbseq	r5, ip, r0
     e88:	00840000 	addeq	r0, r4, r0
     e8c:	00040000 	andeq	r0, r4, r0
     e90:	9f5001f3 	svcls	0x005001f3
	...
     e9c:	00000084 	andeq	r0, r0, r4, lsl #1
     ea0:	00000090 	muleq	r0, r0, r0
     ea4:	90500001 	subsls	r0, r0, r1
     ea8:	98000000 	stmdals	r0, {}	; <UNPREDICTABLE>
     eac:	04000000 	streq	r0, [r0], #-0
     eb0:	5001f300 	andpl	pc, r1, r0, lsl #6
     eb4:	0000009f 	muleq	r0, pc, r0	; <UNPREDICTABLE>
     eb8:	00000000 	andeq	r0, r0, r0
     ebc:	00013800 	andeq	r3, r1, r0, lsl #16
     ec0:	00014300 	andeq	r4, r1, r0, lsl #6
     ec4:	50000100 	andpl	r0, r0, r0, lsl #2
     ec8:	00000143 	andeq	r0, r0, r3, asr #2
     ecc:	00000168 	andeq	r0, r0, r8, ror #2
     ed0:	00540001 	subseq	r0, r4, r1
	...
     edc:	0f000000 	svceq	0x00000000
     ee0:	01000000 	mrseq	r0, (UNDEF: 0)
     ee4:	000f5000 	andeq	r5, pc, r0
     ee8:	00200000 	eoreq	r0, r0, r0
     eec:	00010000 	andeq	r0, r1, r0
     ef0:	00000054 	andeq	r0, r0, r4, asr r0
	...
     efc:	00000f00 	andeq	r0, r0, r0, lsl #30
     f00:	51000100 	mrspl	r0, (UNDEF: 16)
     f04:	0000000f 	andeq	r0, r0, pc
     f08:	00000020 	andeq	r0, r0, r0, lsr #32
     f0c:	00550001 	subseq	r0, r5, r1
     f10:	00000000 	andeq	r0, r0, r0
     f14:	ec000000 	stc	0, cr0, [r0], {-0}
     f18:	04000000 	streq	r0, [r0], #-0
     f1c:	01000001 	tsteq	r0, r1
     f20:	01045000 	mrseq	r5, (UNDEF: 4)
     f24:	01140000 	tsteq	r4, r0
     f28:	00040000 	andeq	r0, r4, r0
     f2c:	9f5001f3 	svcls	0x005001f3
     f30:	00000114 	andeq	r0, r0, r4, lsl r1
     f34:	00000118 	andeq	r0, r0, r8, lsl r1
     f38:	18500001 	ldmdane	r0, {r0}^
     f3c:	20000001 	andcs	r0, r0, r1
     f40:	04000001 	streq	r0, [r0], #-1
     f44:	5001f300 	andpl	pc, r1, r0, lsl #6
     f48:	0000009f 	muleq	r0, pc, r0	; <UNPREDICTABLE>
     f4c:	00000000 	andeq	r0, r0, r0
     f50:	0000f800 	andeq	pc, r0, r0, lsl #16
     f54:	00010400 	andeq	r0, r1, r0, lsl #8
     f58:	70000b00 	andvc	r0, r0, r0, lsl #22
     f5c:	23253500 	teqcs	r5, #0, 10
     f60:	818080b4 	strhhi	r8, [r0, r4]
     f64:	01049f02 	tsteq	r4, r2, lsl #30
     f68:	01070000 	mrseq	r0, (UNDEF: 7)
     f6c:	00010000 	andeq	r0, r1, r0
     f70:	00010750 	andeq	r0, r1, r0, asr r7
     f74:	00011400 	andeq	r1, r1, r0, lsl #8
     f78:	f3000c00 			; <UNDEFINED> instruction: 0xf3000c00
     f7c:	25355001 	ldrcs	r5, [r5, #-1]!
     f80:	8080b423 	addhi	fp, r0, r3, lsr #8
     f84:	009f0281 	addseq	r0, pc, r1, lsl #5
     f88:	00000000 	andeq	r0, r0, r0
     f8c:	fc000000 	stc2	0, cr0, [r0], {-0}
     f90:	14000000 	strne	r0, [r0], #-0
     f94:	01000001 	tsteq	r0, r1
     f98:	00005400 	andeq	r5, r0, r0, lsl #8
     f9c:	00000000 	andeq	r0, r0, r0
     fa0:	00d00000 	sbcseq	r0, r0, r0
     fa4:	00df0000 	sbcseq	r0, pc, r0
     fa8:	00010000 	andeq	r0, r1, r0
     fac:	0000df50 	andeq	sp, r0, r0, asr pc
     fb0:	0000e400 	andeq	lr, r0, r0, lsl #8
     fb4:	f3000400 	vshl.u8	d0, d0, d0
     fb8:	e49f5001 	ldr	r5, [pc], #1	; fc0 <__code_start__-0x7040>
     fbc:	e7000000 	str	r0, [r0, -r0]
     fc0:	01000000 	mrseq	r0, (UNDEF: 0)
     fc4:	00e75000 	rsceq	r5, r7, r0
     fc8:	00ec0000 	rsceq	r0, ip, r0
     fcc:	00040000 	andeq	r0, r4, r0
     fd0:	9f5001f3 	svcls	0x005001f3
	...
     fdc:	000000d0 	ldrdeq	r0, [r0], -r0	; <UNPREDICTABLE>
     fe0:	000000df 	ldrdeq	r0, [r0], -pc	; <UNPREDICTABLE>
     fe4:	df510001 	svcle	0x00510001
     fe8:	e4000000 	str	r0, [r0], #-0
     fec:	04000000 	streq	r0, [r0], #-0
     ff0:	5101f300 	mrspl	pc, SP_irq	; <UNPREDICTABLE>
     ff4:	0000e49f 	muleq	r0, pc, r4	; <UNPREDICTABLE>
     ff8:	0000e700 	andeq	lr, r0, r0, lsl #14
     ffc:	51000100 	mrspl	r0, (UNDEF: 16)
    1000:	000000e7 	andeq	r0, r0, r7, ror #1
    1004:	000000ec 	andeq	r0, r0, ip, ror #1
    1008:	01f30004 	mvnseq	r0, r4
    100c:	00009f51 	andeq	r9, r0, r1, asr pc
    1010:	00000000 	andeq	r0, r0, r0
    1014:	00c00000 	sbceq	r0, r0, r0
    1018:	00cb0000 	sbceq	r0, fp, r0
    101c:	00010000 	andeq	r0, r1, r0
    1020:	0000cb50 	andeq	ip, r0, r0, asr fp
    1024:	0000d000 	andeq	sp, r0, r0
    1028:	f3000400 	vshl.u8	d0, d0, d0
    102c:	009f5001 	addseq	r5, pc, r1
    1030:	00000000 	andeq	r0, r0, r0
    1034:	9c000000 	stcls	0, cr0, [r0], {-0}
    1038:	b4000000 	strlt	r0, [r0], #-0
    103c:	01000000 	mrseq	r0, (UNDEF: 0)
    1040:	00b45000 	adcseq	r5, r4, r0
    1044:	00c00000 	sbceq	r0, r0, r0
    1048:	00040000 	andeq	r0, r4, r0
    104c:	9f5001f3 	svcls	0x005001f3
	...
    1058:	00000078 	andeq	r0, r0, r8, ror r0
    105c:	00000090 	muleq	r0, r0, r0
    1060:	90500001 	subsls	r0, r0, r1
    1064:	9c000000 	stcls	0, cr0, [r0], {-0}
    1068:	04000000 	streq	r0, [r0], #-0
    106c:	5001f300 	andpl	pc, r1, r0, lsl #6
    1070:	0000009f 	muleq	r0, pc, r0	; <UNPREDICTABLE>
    1074:	00000000 	andeq	r0, r0, r0
    1078:	00006800 	andeq	r6, r0, r0, lsl #16
    107c:	00007300 	andeq	r7, r0, r0, lsl #6
    1080:	50000100 	andpl	r0, r0, r0, lsl #2
    1084:	00000073 	andeq	r0, r0, r3, ror r0
    1088:	00000078 	andeq	r0, r0, r8, ror r0
    108c:	01f30004 	mvnseq	r0, r4
    1090:	00009f50 	andeq	r9, r0, r0, asr pc
	...
    109c:	00480000 	subeq	r0, r8, r0
    10a0:	00010000 	andeq	r0, r1, r0
    10a4:	00004850 	andeq	r4, r0, r0, asr r8
    10a8:	00006800 	andeq	r6, r0, r0, lsl #16
    10ac:	f3000400 	vshl.u8	d0, d0, d0
    10b0:	009f5001 	addseq	r5, pc, r1
	...
    10bc:	4b000000 	blmi	10c4 <__code_start__-0x6f3c>
    10c0:	01000000 	mrseq	r0, (UNDEF: 0)
    10c4:	004b5100 	subeq	r5, fp, r0, lsl #2
    10c8:	00680000 	rsbeq	r0, r8, r0
    10cc:	00040000 	andeq	r0, r4, r0
    10d0:	9f5101f3 	svcls	0x005101f3
	...
    10dc:	0000004c 	andeq	r0, r0, ip, asr #32
    10e0:	00000054 	andeq	r0, r0, r4, asr r0
    10e4:	54500001 	ldrbpl	r0, [r0], #-1
    10e8:	58000000 	stmdapl	r0, {}	; <UNPREDICTABLE>
    10ec:	09000000 	stmdbeq	r0, {}	; <UNPREDICTABLE>
    10f0:	74007500 	strvc	r7, [r0], #-1280	; 0x500
    10f4:	00712400 	rsbseq	r2, r1, r0, lsl #8
    10f8:	00589f21 	subseq	r9, r8, r1, lsr #30
    10fc:	005f0000 	subseq	r0, pc, r0
    1100:	00010000 	andeq	r0, r1, r0
    1104:	00000051 	andeq	r0, r0, r1, asr r0
    1108:	00000000 	andeq	r0, r0, r0
	...

Disassembly of section .debug_aranges:

00000000 <.debug_aranges>:
   0:	0000001c 	andeq	r0, r0, ip, lsl r0
   4:	00000002 	andeq	r0, r0, r2
   8:	00040000 	andeq	r0, r4, r0
   c:	00000000 	andeq	r0, r0, r0
  10:	00008020 	andeq	r8, r0, r0, lsr #32
  14:	0000013c 	andeq	r0, r0, ip, lsr r1
	...
  20:	0000001c 	andeq	r0, r0, ip, lsl r0
  24:	037c0002 	cmneq	ip, #2
  28:	00040000 	andeq	r0, r4, r0
  2c:	00000000 	andeq	r0, r0, r0
  30:	0000815c 	andeq	r8, r0, ip, asr r1
  34:	00000368 	andeq	r0, r0, r8, ror #6
	...
  40:	0000001c 	andeq	r0, r0, ip, lsl r0
  44:	0f570002 	svceq	0x00570002
  48:	00040000 	andeq	r0, r4, r0
  4c:	00000000 	andeq	r0, r0, r0
  50:	000085ec 	andeq	r8, r0, ip, ror #11
  54:	00000770 	andeq	r0, r0, r0, ror r7
	...
  60:	0000001c 	andeq	r0, r0, ip, lsl r0
  64:	1e4e0002 	cdpne	0, 4, cr0, cr14, cr2, {0}
  68:	00040000 	andeq	r0, r4, r0
  6c:	00000000 	andeq	r0, r0, r0
  70:	00008d5c 	andeq	r8, r0, ip, asr sp
  74:	00000058 	andeq	r0, r0, r8, asr r0
	...
  80:	0000001c 	andeq	r0, r0, ip, lsl r0
  84:	1fe30002 	svcne	0x00e30002
  88:	00040000 	andeq	r0, r4, r0
  8c:	00000000 	andeq	r0, r0, r0
  90:	00008db4 			; <UNDEFINED> instruction: 0x00008db4
  94:	0000003c 	andeq	r0, r0, ip, lsr r0
	...
  a0:	0000001c 	andeq	r0, r0, ip, lsl r0
  a4:	20fa0002 	rscscs	r0, sl, r2
  a8:	00040000 	andeq	r0, r4, r0
  ac:	00000000 	andeq	r0, r0, r0
  b0:	00008df0 	strdeq	r8, [r0], -r0
  b4:	00000034 	andeq	r0, r0, r4, lsr r0
	...
  c0:	0000001c 	andeq	r0, r0, ip, lsl r0
  c4:	21ec0002 	mvncs	r0, r2
  c8:	00040000 	andeq	r0, r4, r0
  cc:	00000000 	andeq	r0, r0, r0
  d0:	00008e24 	andeq	r8, r0, r4, lsr #28
  d4:	00000578 	andeq	r0, r0, r8, ror r5
	...
  e0:	0000001c 	andeq	r0, r0, ip, lsl r0
  e4:	28d50002 	ldmcs	r5, {r1}^
  e8:	00040000 	andeq	r0, r4, r0
  ec:	00000000 	andeq	r0, r0, r0
  f0:	0000939c 	muleq	r0, ip, r3
  f4:	00000020 	andeq	r0, r0, r0, lsr #32
	...
 100:	0000001c 	andeq	r0, r0, ip, lsl r0
 104:	29910002 	ldmibcs	r1, {r1}
 108:	00040000 	andeq	r0, r4, r0
 10c:	00000000 	andeq	r0, r0, r0
 110:	000093bc 			; <UNDEFINED> instruction: 0x000093bc
 114:	0000002c 	andeq	r0, r0, ip, lsr #32
	...
 120:	0000001c 	andeq	r0, r0, ip, lsl r0
 124:	2aa40002 	bcs	fe900134 <__bss_end__+0xfe8f5bdc>
 128:	00040000 	andeq	r0, r4, r0
 12c:	00000000 	andeq	r0, r0, r0
 130:	000093e8 	andeq	r9, r0, r8, ror #7
 134:	00000038 	andeq	r0, r0, r8, lsr r0
	...
 140:	0000001c 	andeq	r0, r0, ip, lsl r0
 144:	2bb70002 	blcs	fedc0154 <__bss_end__+0xfedb5bfc>
 148:	00040000 	andeq	r0, r4, r0
 14c:	00000000 	andeq	r0, r0, r0
 150:	00009420 	andeq	r9, r0, r0, lsr #8
 154:	00000044 	andeq	r0, r0, r4, asr #32
	...
 160:	0000001c 	andeq	r0, r0, ip, lsl r0
 164:	2cf90002 	ldclcs	0, cr0, [r9], #8
 168:	00040000 	andeq	r0, r4, r0
 16c:	00000000 	andeq	r0, r0, r0
 170:	00009464 	andeq	r9, r0, r4, ror #8
 174:	00000044 	andeq	r0, r0, r4, asr #32
	...
 180:	0000001c 	andeq	r0, r0, ip, lsl r0
 184:	2e3b0002 	cdpcs	0, 3, cr0, cr11, cr2, {0}
 188:	00040000 	andeq	r0, r4, r0
 18c:	00000000 	andeq	r0, r0, r0
 190:	000094a8 	andeq	r9, r0, r8, lsr #9
 194:	00000044 	andeq	r0, r0, r4, asr #32
	...
 1a0:	0000001c 	andeq	r0, r0, ip, lsl r0
 1a4:	2f7d0002 	svccs	0x007d0002
 1a8:	00040000 	andeq	r0, r4, r0
 1ac:	00000000 	andeq	r0, r0, r0
 1b0:	000094ec 	andeq	r9, r0, ip, ror #9
 1b4:	00000008 	andeq	r0, r0, r8
	...
 1c0:	0000001c 	andeq	r0, r0, ip, lsl r0
 1c4:	30190002 	andscc	r0, r9, r2
 1c8:	00040000 	andeq	r0, r4, r0
 1cc:	00000000 	andeq	r0, r0, r0
 1d0:	000094f4 	strdeq	r9, [r0], -r4
 1d4:	0000006c 	andeq	r0, r0, ip, rrx
	...
 1e0:	0000001c 	andeq	r0, r0, ip, lsl r0
 1e4:	31f40002 	mvnscc	r0, r2
 1e8:	00040000 	andeq	r0, r4, r0
 1ec:	00000000 	andeq	r0, r0, r0
 1f0:	00009560 	andeq	r9, r0, r0, ror #10
 1f4:	00000074 	andeq	r0, r0, r4, ror r0
	...
 200:	0000001c 	andeq	r0, r0, ip, lsl r0
 204:	33a50002 			; <UNDEFINED> instruction: 0x33a50002
 208:	00040000 	andeq	r0, r4, r0
 20c:	00000000 	andeq	r0, r0, r0
 210:	000095d4 	ldrdeq	r9, [r0], -r4
 214:	00000098 	muleq	r0, r8, r0
	...
 220:	0000001c 	andeq	r0, r0, ip, lsl r0
 224:	35a00002 	strcc	r0, [r0, #2]!
 228:	00040000 	andeq	r0, r4, r0
 22c:	00000000 	andeq	r0, r0, r0
 230:	000096d0 	ldrdeq	r9, [r0], -r0
 234:	00000178 	andeq	r0, r0, r8, ror r1
	...
 240:	0000001c 	andeq	r0, r0, ip, lsl r0
 244:	42690002 	rsbmi	r0, r9, #2
 248:	00040000 	andeq	r0, r4, r0
 24c:	00000000 	andeq	r0, r0, r0
 250:	00009848 	andeq	r9, r0, r8, asr #16
 254:	00000120 	andeq	r0, r0, r0, lsr #2
	...

Disassembly of section .debug_line:

00000000 <.debug_line>:
       0:	00000132 	andeq	r0, r0, r2, lsr r1
       4:	010d0002 	tsteq	sp, r2
       8:	01020000 	mrseq	r0, (UNDEF: 2)
       c:	000d0efb 	strdeq	r0, [sp], -fp
      10:	01010101 	tsteq	r1, r1, lsl #2
      14:	01000000 	mrseq	r0, (UNDEF: 0)
      18:	74010000 	strvc	r0, [r1], #-0
      1c:	73747365 	cmnvc	r4, #-1811939327	; 0x94000001
      20:	2f002e00 	svccs	0x00002e00
      24:	2f727375 	svccs	0x00727375
      28:	61636f6c 	cmnvs	r3, ip, ror #30
      2c:	65432f6c 	strbvs	r2, [r3, #-3948]	; 0xf6c
      30:	72616c6c 	rsbvc	r6, r1, #108, 24	; 0x6c00
      34:	6d72612f 	ldfvse	f6, [r2, #-188]!	; 0xffffff44
      38:	6e6f6e2d 	cdpvs	14, 6, cr6, cr15, cr13, {1}
      3c:	61652d65 	cmnvs	r5, r5, ror #26
      40:	342f6962 	strtcc	r6, [pc], #-2402	; 48 <__code_start__-0x7fb8>
      44:	332e382e 	teqcc	lr, #3014656	; 0x2e0000
      48:	3173632d 	cmncc	r3, sp, lsr #6
      4c:	2f653037 	svccs	0x00653037
      50:	2f62696c 	svccs	0x0062696c
      54:	2f636367 	svccs	0x00636367
      58:	2d6d7261 	sfmcs	f7, 2, [sp, #-388]!	; 0xfffffe7c
      5c:	656e6f6e 	strbvs	r6, [lr, #-3950]!	; 0xf6e
      60:	6261652d 	rsbvs	r6, r1, #188743680	; 0xb400000
      64:	2e342f69 	cdpcs	15, 3, cr2, cr4, cr9, {3}
      68:	2f332e38 	svccs	0x00332e38
      6c:	6c636e69 	stclvs	14, cr6, [r3], #-420	; 0xfffffe5c
      70:	00656475 	rsbeq	r6, r5, r5, ror r4
      74:	6573552f 	ldrbvs	r5, [r3, #-1327]!	; 0x52f
      78:	622f7372 	eorvs	r7, pc, #-939524095	; 0xc8000001
      7c:	6e616972 	mcrvs	9, 3, r6, cr1, cr2, {3}
      80:	2f6e756a 	svccs	0x006e756a
      84:	6b736544 	blvs	1cd959c <__bss_end__+0x1ccf044>
      88:	2f706f74 	svccs	0x00706f74
      8c:	6f686373 	svcvs	0x00686373
      90:	532f6c6f 	teqpl	pc, #28416	; 0x6f00
      94:	6e697270 	mcrvs	2, 3, r7, cr9, cr0, {3}
      98:	32393167 	eorscc	r3, r9, #-1073741799	; 0xc0000019
      9c:	53432f30 	movtpl	r2, #16176	; 0x3f30
      a0:	4c303432 	cfldrsmi	mvf3, [r0], #-200	; 0xffffff38
      a4:	73632f58 	cmnvc	r3, #88, 30	; 0x160
      a8:	6c303432 	cfldrsvs	mvf3, [r0], #-200	; 0xffffff38
      ac:	30322d78 	eorscc	r2, r2, r8, ror sp
      b0:	2f727073 	svccs	0x00727073
      b4:	7062696c 	rsbvc	r6, r2, ip, ror #18
      b8:	6e692f69 	cdpvs	15, 6, cr2, cr9, cr9, {3}
      bc:	64756c63 	ldrbtvs	r6, [r5], #-3171	; 0xc63
      c0:	31000065 	tstcc	r0, r5, rrx
      c4:	61702d36 	cmnvs	r0, r6, lsr sp
      c8:	2d327472 	cfldrscs	mvf7, [r2, #-456]!	; 0xfffffe38
      cc:	74736574 	ldrbtvc	r6, [r3], #-1396	; 0x574
      d0:	00632e34 	rsbeq	r2, r3, r4, lsr lr
      d4:	63000001 	movwvs	r0, #1
      d8:	6b636568 	blvs	18d9680 <__bss_end__+0x18cf128>
      dc:	746e692d 	strbtvc	r6, [lr], #-2349	; 0x92d
      e0:	656c7265 	strbvs	r7, [ip, #-613]!	; 0x265
      e4:	2e657661 	cdpcs	6, 6, cr7, cr5, cr1, {3}
      e8:	00020068 	andeq	r0, r2, r8, rrx
      ec:	64747300 	ldrbtvs	r7, [r4], #-768	; 0x300
      f0:	2d746e69 	ldclcs	14, cr6, [r4, #-420]!	; 0xfffffe5c
      f4:	2e636367 	cdpcs	3, 6, cr6, cr3, cr7, {3}
      f8:	00030068 	andeq	r0, r3, r8, rrx
      fc:	69707200 	ldmdbvs	r0!, {r9, ip, sp, lr}^
     100:	0400682e 	streq	r6, [r0], #-2094	; 0x82e
     104:	70630000 	rsbvc	r0, r3, r0
     108:	642d3431 	strtvs	r3, [sp], #-1073	; 0x431
     10c:	67756265 	ldrbvs	r6, [r5, -r5, ror #4]!
     110:	0200682e 	andeq	r6, r0, #3014656	; 0x2e0000
     114:	00000000 	andeq	r0, r0, r0
     118:	80200205 	eorhi	r0, r0, r5, lsl #4
     11c:	01180000 	tsteq	r8, r0
     120:	01bb01bb 			; <UNDEFINED> instruction: 0x01bb01bb
     124:	13d8019f 	bicsne	r0, r8, #-1073741785	; 0xc0000027
     128:	a0192c02 	andsge	r2, r9, r2, lsl #24
     12c:	834c304c 	movthi	r3, #49228	; 0xc04c
     130:	001802d8 			; <UNDEFINED> instruction: 0x001802d8
     134:	01f40101 	mvnseq	r0, r1, lsl #2
     138:	00020000 	andeq	r0, r2, r0
     13c:	000000ff 	strdeq	r0, [r0], -pc	; <UNPREDICTABLE>
     140:	0efb0102 	cdpeq	1, 15, cr0, cr11, cr2, {0}
     144:	0101000d 	tsteq	r1, sp
     148:	00000101 	andeq	r0, r0, r1, lsl #2
     14c:	00000100 	andeq	r0, r0, r0, lsl #2
     150:	73752f01 	cmnvc	r5, #1, 30
     154:	6f6c2f72 	svcvs	0x006c2f72
     158:	2f6c6163 	svccs	0x006c6163
     15c:	6c6c6543 	cfstr64vs	mvdx6, [ip], #-268	; 0xfffffef4
     160:	612f7261 	teqvs	pc, r1, ror #4
     164:	6e2d6d72 	mcrvs	13, 1, r6, cr13, cr2, {3}
     168:	2d656e6f 	stclcs	14, cr6, [r5, #-444]!	; 0xfffffe44
     16c:	69626165 	stmdbvs	r2!, {r0, r2, r5, r6, r8, sp, lr}^
     170:	382e342f 	stmdacc	lr!, {r0, r1, r2, r3, r5, sl, ip, sp}
     174:	632d332e 	teqvs	sp, #-1207959552	; 0xb8000000
     178:	30373173 	eorscc	r3, r7, r3, ror r1
     17c:	696c2f65 	stmdbvs	ip!, {r0, r2, r5, r6, r8, r9, sl, fp, sp}^
     180:	63672f62 	cmnvs	r7, #392	; 0x188
     184:	72612f63 	rsbvc	r2, r1, #396	; 0x18c
     188:	6f6e2d6d 	svcvs	0x006e2d6d
     18c:	652d656e 	strvs	r6, [sp, #-1390]!	; 0x56e
     190:	2f696261 	svccs	0x00696261
     194:	2e382e34 	mrccs	14, 1, r2, cr8, cr4, {1}
     198:	6e692f33 	mcrvs	15, 3, r2, cr9, cr3, {1}
     19c:	64756c63 	ldrbtvs	r6, [r5], #-3171	; 0xc63
     1a0:	552f0065 	strpl	r0, [pc, #-101]!	; 143 <__code_start__-0x7ebd>
     1a4:	73726573 	cmnvc	r2, #482344960	; 0x1cc00000
     1a8:	6972622f 	ldmdbvs	r2!, {r0, r1, r2, r3, r5, r9, sp, lr}^
     1ac:	756a6e61 	strbvc	r6, [sl, #-3681]!	; 0xe61
     1b0:	65442f6e 	strbvs	r2, [r4, #-3950]	; 0xf6e
     1b4:	6f746b73 	svcvs	0x00746b73
     1b8:	63732f70 	cmnvs	r3, #112, 30	; 0x1c0
     1bc:	6c6f6f68 	stclvs	15, cr6, [pc], #-416	; 24 <__code_start__-0x7fdc>
     1c0:	7270532f 	rsbsvc	r5, r0, #-1140850688	; 0xbc000000
     1c4:	31676e69 	cmncc	r7, r9, ror #28
     1c8:	2f303239 	svccs	0x00303239
     1cc:	34325343 	ldrtcc	r5, [r2], #-835	; 0x343
     1d0:	2f584c30 	svccs	0x00584c30
     1d4:	34327363 	ldrtcc	r7, [r2], #-867	; 0x363
     1d8:	2d786c30 	ldclcs	12, cr6, [r8, #-192]!	; 0xffffff40
     1dc:	70733032 	rsbsvc	r3, r3, r2, lsr r0
     1e0:	696c2f72 	stmdbvs	ip!, {r1, r4, r5, r6, r8, r9, sl, fp, sp}^
     1e4:	2f697062 	svccs	0x00697062
     1e8:	6c636e69 	stclvs	14, cr6, [r3], #-420	; 0xfffffe5c
     1ec:	00656475 	rsbeq	r6, r5, r5, ror r4
     1f0:	31706300 	cmncc	r0, r0, lsl #6
     1f4:	65642d34 	strbvs	r2, [r4, #-3380]!	; 0xd34
     1f8:	2e677562 	cdpcs	5, 6, cr7, cr7, cr2, {3}
     1fc:	00000063 	andeq	r0, r0, r3, rrx
     200:	31706300 	cmncc	r0, r0, lsl #6
     204:	65642d34 	strbvs	r2, [r4, #-3380]!	; 0xd34
     208:	2e677562 	cdpcs	5, 6, cr7, cr7, cr2, {3}
     20c:	00000068 	andeq	r0, r0, r8, rrx
     210:	64747300 	ldrbtvs	r7, [r4], #-768	; 0x300
     214:	2d746e69 	ldclcs	14, cr6, [r4, #-420]!	; 0xfffffe5c
     218:	2e636367 	cdpcs	3, 6, cr6, cr3, cr7, {3}
     21c:	00010068 	andeq	r0, r1, r8, rrx
     220:	69707200 	ldmdbvs	r0!, {r9, ip, sp, lr}^
     224:	0200682e 	andeq	r6, r0, #3014656	; 0x2e0000
     228:	70720000 	rsbsvc	r0, r2, r0
     22c:	6e692d69 	cdpvs	13, 6, cr2, cr9, cr9, {3}
     230:	72726574 	rsbsvc	r6, r2, #116, 10	; 0x1d000000
     234:	73747075 	cmnvc	r4, #117	; 0x75
     238:	0200682e 	andeq	r6, r0, #3014656	; 0x2e0000
     23c:	00000000 	andeq	r0, r0, r0
     240:	815c0205 	cmphi	ip, r5, lsl #4
     244:	35030000 	strcc	r0, [r3, #-0]
     248:	4a620301 	bmi	1880e54 <__bss_end__+0x18768fc>
     24c:	032e2403 	teqeq	lr, #50331648	; 0x3000000
     250:	7a032e62 	bvc	cbbe0 <__bss_end__+0xc1688>
     254:	2e29032e 	cdpcs	3, 2, cr0, cr9, cr14, {1}
     258:	01040200 	mrseq	r0, R12_usr
     25c:	03064a06 	movweq	r4, #27142	; 0x6a06
     260:	03200865 	teqeq	r0, #6619136	; 0x650000
     264:	7a032e78 	bvc	cbc4c <__bss_end__+0xc16f4>
     268:	2e3a034a 	cdpcs	3, 3, cr0, cr10, cr10, {2}
     26c:	01040200 	mrseq	r0, R12_usr
     270:	03064a06 	movweq	r4, #27142	; 0x6a06
     274:	20087fbb 			; <UNDEFINED> instruction: 0x20087fbb
     278:	4a00c803 	bmi	3228c <__bss_end__+0x27d34>
     27c:	0204f54b 	andeq	pc, r4, #314572800	; 0x12c00000
     280:	4a13036c 	bmi	4c1038 <__bss_end__+0x4b6ae0>
     284:	5d034b34 	vstrpl	d4, [r3, #-208]	; 0xffffff30
     288:	030104d6 	movweq	r0, #5334	; 0x14d6
     28c:	02002e11 	andeq	r2, r0, #272	; 0x110
     290:	66060104 	strvs	r0, [r6], -r4, lsl #2
     294:	00220806 	eoreq	r0, r2, r6, lsl #16
     298:	06010402 	streq	r0, [r1], -r2, lsl #8
     29c:	06020482 	streq	r0, [r2], -r2, lsl #9
     2a0:	20087a03 	andcs	r7, r8, r3, lsl #20
     2a4:	0c030104 	stfeqs	f0, [r3], {4}
     2a8:	5a084b2e 	bpl	212f68 <__bss_end__+0x208a10>
     2ac:	032f8331 	teqeq	pc, #-1006632960	; 0xc4000000
     2b0:	03667fbb 	cmneq	r6, #748	; 0x2ec
     2b4:	9b034a5b 	blls	d2c28 <__bss_end__+0xc86d0>
     2b8:	65038201 	strvs	r8, [r3, #-513]	; 0x201
     2bc:	2e1f0301 	cdpcs	3, 1, cr0, cr15, cr1, {0}
     2c0:	2c2e6203 	sfmcs	f6, 4, [lr], #-12
     2c4:	7eff0330 	mrcvc	3, 7, r0, cr15, cr0, {1}
     2c8:	01b3034a 			; <UNDEFINED> instruction: 0x01b3034a
     2cc:	0204a24a 	andeq	sl, r4, #-1610612732	; 0xa0000004
     2d0:	33666203 	cmncc	r6, #805306368	; 0x30000000
     2d4:	1b030104 	blne	c06ec <__bss_end__+0xb6194>
     2d8:	00d74b2e 	sbcseq	r4, r7, lr, lsr #22
     2dc:	06010402 	streq	r0, [r1], -r2, lsl #8
     2e0:	06020482 	streq	r0, [r2], -r2, lsl #9
     2e4:	20084f03 	andcs	r4, r8, r3, lsl #30
     2e8:	33030104 	movwcc	r0, #12548	; 0x3104
     2ec:	03f44b2e 	mvnseq	r4, #47104	; 0xb800
     2f0:	2f012e0b 	svccs	0x00012e0b
     2f4:	b1033f08 	tstlt	r3, r8, lsl #30
     2f8:	d303017f 	movwle	r0, #12671	; 0x317f
     2fc:	ae032e00 	cdpge	14, 0, cr2, cr3, cr0, {0}
     300:	302c2e7f 	eorcc	r2, ip, pc, ror lr
     304:	4a7eff03 	bmi	1fbff18 <__bss_end__+0x1fb59c0>
     308:	4a01e703 	bmi	79f1c <__bss_end__+0x6f9c4>
     30c:	7f9603a2 	svcvc	0x009603a2
     310:	00fb0301 	rscseq	r0, fp, r1, lsl #6
     314:	4b4b3182 	blmi	12cc924 <__bss_end__+0x12c23cc>
     318:	032e0f03 	teqeq	lr, #3, 30
     31c:	674c4a72 	smlsldxvs	r4, ip, r2, sl
     320:	0369354b 	cmneq	r9, #314572800	; 0x12c00000
     324:	09034a78 	stmdbeq	r3, {r3, r4, r5, r6, r9, fp, lr}
     328:	0004022e 	andeq	r0, r4, lr, lsr #4
     32c:	02650101 	rsbeq	r0, r5, #1073741824	; 0x40000000
     330:	00020000 	andeq	r0, r2, r0
     334:	0000013b 	andeq	r0, r0, fp, lsr r1
     338:	0efb0102 	cdpeq	1, 15, cr0, cr11, cr2, {0}
     33c:	0101000d 	tsteq	r1, sp
     340:	00000101 	andeq	r0, r0, r1, lsl #2
     344:	00000100 	andeq	r0, r0, r0, lsl #2
     348:	73552f01 	cmpvc	r5, #1, 30
     34c:	2f737265 	svccs	0x00737265
     350:	61697262 	cmnvs	r9, r2, ror #4
     354:	6e756a6e 	vsubvs.f32	s13, s10, s29
     358:	7365442f 	cmnvc	r5, #788529152	; 0x2f000000
     35c:	706f746b 	rsbvc	r7, pc, fp, ror #8
     360:	6863732f 	stmdavs	r3!, {r0, r1, r2, r3, r5, r8, r9, ip, sp, lr}^
     364:	2f6c6f6f 	svccs	0x006c6f6f
     368:	69727053 	ldmdbvs	r2!, {r0, r1, r4, r6, ip, sp, lr}^
     36c:	3931676e 	ldmdbcc	r1!, {r1, r2, r3, r5, r6, r8, r9, sl, sp, lr}
     370:	432f3032 	teqmi	pc, #50	; 0x32
     374:	30343253 	eorscc	r3, r4, r3, asr r2
     378:	632f584c 	teqvs	pc, #76, 16	; 0x4c0000
     37c:	30343273 	eorscc	r3, r4, r3, ror r2
     380:	322d786c 	eorcc	r7, sp, #108, 16	; 0x6c0000
     384:	72707330 	rsbsvc	r7, r0, #48, 6	; 0xc0000000
     388:	62696c2f 	rsbvs	r6, r9, #12032	; 0x2f00
     38c:	692f6970 	stmdbvs	pc!, {r4, r5, r6, r8, fp, sp, lr}	; <UNPREDICTABLE>
     390:	756c636e 	strbvc	r6, [ip, #-878]!	; 0x36e
     394:	2f006564 	svccs	0x00006564
     398:	2f727375 	svccs	0x00727375
     39c:	61636f6c 	cmnvs	r3, ip, ror #30
     3a0:	65432f6c 	strbvs	r2, [r3, #-3948]	; 0xf6c
     3a4:	72616c6c 	rsbvc	r6, r1, #108, 24	; 0x6c00
     3a8:	6d72612f 	ldfvse	f6, [r2, #-188]!	; 0xffffff44
     3ac:	6e6f6e2d 	cdpvs	14, 6, cr6, cr15, cr13, {1}
     3b0:	61652d65 	cmnvs	r5, r5, ror #26
     3b4:	342f6962 	strtcc	r6, [pc], #-2402	; 3bc <__code_start__-0x7c44>
     3b8:	332e382e 	teqcc	lr, #3014656	; 0x2e0000
     3bc:	3173632d 	cmncc	r3, sp, lsr #6
     3c0:	2f653037 	svccs	0x00653037
     3c4:	2f62696c 	svccs	0x0062696c
     3c8:	2f636367 	svccs	0x00636367
     3cc:	2d6d7261 	sfmcs	f7, 2, [sp, #-388]!	; 0xfffffe7c
     3d0:	656e6f6e 	strbvs	r6, [lr, #-3950]!	; 0xf6e
     3d4:	6261652d 	rsbvs	r6, r1, #188743680	; 0xb400000
     3d8:	2e342f69 	cdpcs	15, 3, cr2, cr4, cr9, {3}
     3dc:	2f332e38 	svccs	0x00332e38
     3e0:	6c636e69 	stclvs	14, cr6, [r3], #-420	; 0xfffffe5c
     3e4:	00656475 	rsbeq	r6, r5, r5, ror r4
     3e8:	65686300 	strbvs	r6, [r8, #-768]!	; 0x300
     3ec:	692d6b63 	pushvs	{r0, r1, r5, r6, r8, r9, fp, sp, lr}
     3f0:	7265746e 	rsbvc	r7, r5, #1845493760	; 0x6e000000
     3f4:	7661656c 	strbtvc	r6, [r1], -ip, ror #10
     3f8:	00632e65 	rsbeq	r2, r3, r5, ror #28
     3fc:	63000000 	movwvs	r0, #0
     400:	2d343170 	ldfcss	f3, [r4, #-448]!	; 0xfffffe40
     404:	75626564 	strbvc	r6, [r2, #-1380]!	; 0x564
     408:	00682e67 	rsbeq	r2, r8, r7, ror #28
     40c:	72000000 	andvc	r0, r0, #0
     410:	692d6970 	pushvs	{r4, r5, r6, r8, fp, sp, lr}
     414:	7265746e 	rsbvc	r7, r5, #1845493760	; 0x6e000000
     418:	74707572 	ldrbtvc	r7, [r0], #-1394	; 0x572
     41c:	00682e73 	rsbeq	r2, r8, r3, ror lr
     420:	62000001 	andvs	r0, r0, #1
     424:	732d7469 	teqvc	sp, #1761607680	; 0x69000000
     428:	6f707075 	svcvs	0x00707075
     42c:	682e7472 	stmdavs	lr!, {r1, r4, r5, r6, sl, ip, sp, lr}
     430:	00000000 	andeq	r0, r0, r0
     434:	72737063 	rsbsvc	r7, r3, #99	; 0x63
     438:	6974752d 	ldmdbvs	r4!, {r0, r2, r3, r5, r8, sl, ip, sp, lr}^
     43c:	00682e6c 	rsbeq	r2, r8, ip, ror #28
     440:	73000000 	movwvc	r0, #0
     444:	6e696474 	mcrvs	4, 3, r6, cr9, cr4, {3}
     448:	63672d74 	cmnvs	r7, #116, 26	; 0x1d00
     44c:	00682e63 	rsbeq	r2, r8, r3, ror #28
     450:	63000002 	movwvs	r0, #2
     454:	6b636568 	blvs	18d99fc <__bss_end__+0x18cf4a4>
     458:	746e692d 	strbtvc	r6, [lr], #-2349	; 0x92d
     45c:	656c7265 	strbvs	r7, [ip, #-613]!	; 0x265
     460:	2e657661 	cdpcs	6, 6, cr7, cr5, cr1, {3}
     464:	00000068 	andeq	r0, r0, r8, rrx
     468:	69707200 	ldmdbvs	r0!, {r9, ip, sp, lr}^
     46c:	0100682e 	tsteq	r0, lr, lsr #16
     470:	00000000 	andeq	r0, r0, r0
     474:	85ec0205 	strbhi	r0, [ip, #517]!	; 0x205
     478:	0a030000 	beq	c0480 <__bss_end__+0xb5f28>
     47c:	02006701 	andeq	r6, r0, #262144	; 0x40000
     480:	82060104 	andhi	r0, r6, #4, 2
     484:	03060204 	movweq	r0, #25092	; 0x6204
     488:	33ba019a 			; <UNDEFINED> instruction: 0x33ba019a
     48c:	e2030104 	and	r0, r3, #4, 2
     490:	d84b2e7e 	stmdale	fp, {r1, r2, r3, r4, r5, r6, r9, sl, fp, sp}^
     494:	4b87834d 	blmi	fe1e11d0 <__bss_end__+0xfe1d6c78>
     498:	68674b2f 	stmdavs	r7!, {r0, r1, r2, r3, r5, r8, r9, fp, lr}^
     49c:	04020068 	streq	r0, [r2], #-104	; 0x68
     4a0:	06820601 	streq	r0, [r2], r1, lsl #12
     4a4:	00682108 	rsbeq	r2, r8, r8, lsl #2
     4a8:	06010402 	streq	r0, [r1], -r2, lsl #8
     4ac:	67bb0682 	ldrvs	r0, [fp, r2, lsl #13]!
     4b0:	01040200 	mrseq	r0, R12_usr
     4b4:	bc068206 	sfmlt	f0, 1, [r6], {6}
     4b8:	0304ca08 	movweq	ip, #18952	; 0x4a08
     4bc:	31040464 	tstcc	r4, r4, ror #8
     4c0:	6b030504 	blvs	c18d8 <__bss_end__+0xb7380>
     4c4:	0301042e 	movweq	r0, #5166	; 0x142e
     4c8:	4e4b2e18 	mcrmi	14, 2, r2, cr11, cr8, {0}
     4cc:	00682a84 	rsbeq	r2, r8, r4, lsl #21
     4d0:	06010402 	streq	r0, [r1], -r2, lsl #8
     4d4:	6ad80666 	bvs	ff601e74 <__bss_end__+0xff5f791c>
     4d8:	84314b67 	ldrthi	r4, [r1], #-2919	; 0xb67
     4dc:	849f6967 	ldrhi	r6, [pc], #2407	; 4e4 <__code_start__-0x7b1c>
     4e0:	04686869 	strbteq	r6, [r8], #-2153	; 0x869
     4e4:	82520304 	subshi	r0, r2, #4, 6	; 0x10000000
     4e8:	6c030504 	cfstr32vs	mvfx0, [r3], {4}
     4ec:	0867652e 	stmdaeq	r7!, {r1, r2, r3, r5, r8, sl, sp, lr}^
     4f0:	02600825 	rsbeq	r0, r0, #2424832	; 0x250000
     4f4:	4b4b1528 	blmi	12c599c <__bss_end__+0x12bb444>
     4f8:	034b4b4b 	movteq	r4, #47947	; 0xbb4b
     4fc:	044bf279 	strbeq	pc, [fp], #-633	; 0x279	; <UNPREDICTABLE>
     500:	2e370301 	cdpcs	3, 3, cr0, cr7, cr1, {0}
     504:	56030304 	strpl	r0, [r3], -r4, lsl #6
     508:	03040466 	movweq	r0, #17510	; 0x4466
     50c:	05042e78 	streq	r2, [r4, #-3704]	; 0xe78
     510:	652e6c03 	strvs	r6, [lr, #-3075]!	; 0xc03
     514:	08250867 	stmdaeq	r5!, {r0, r1, r2, r5, r6, fp}
     518:	15280260 	strne	r0, [r8, #-608]!	; 0x260
     51c:	4b4b4b4b 	blmi	12d3250 <__bss_end__+0x12c8cf8>
     520:	f279034b 	vcgt.s<illegal width 64>	q8, <illegal reg q4.5>, <illegal reg q5.5>
     524:	0303044b 	movweq	r0, #13387	; 0x344b
     528:	01042e0d 	tsteq	r4, sp, lsl #28
     52c:	4c2e2b03 	stcmi	11, cr2, [lr], #-12
     530:	4b030404 	blmi	c1548 <__bss_end__+0xb6ff0>
     534:	0305044a 	movweq	r0, #21578	; 0x544a
     538:	67652e6c 	strbvs	r2, [r5, -ip, ror #28]!
     53c:	03042508 	movweq	r2, #17672	; 0x4508
     540:	58081703 	stmdapl	r8, {r0, r1, r8, r9, sl, ip}
     544:	78030404 	stmdavc	r3, {r2, sl}
     548:	0305042e 	movweq	r0, #21550	; 0x542e
     54c:	67652e6c 	strbvs	r2, [r5, -ip, ror #28]!
     550:	01042508 	tsteq	r4, r8, lsl #10
     554:	0800c603 	stmdaeq	r0, {r0, r1, r9, sl, lr, pc}
     558:	04020058 	streq	r0, [r2], #-88	; 0x58
     55c:	064a0601 	strbeq	r0, [sl], -r1, lsl #12
     560:	2f4c2408 	svccs	0x004c2408
     564:	4d173a02 	vldrmi	s6, [r7, #-8]
     568:	6767684b 	strbvs	r6, [r7, -fp, asr #16]!
     56c:	d67a039f 			; <UNDEFINED> instruction: 0xd67a039f
     570:	01040200 	mrseq	r0, R12_usr
     574:	03062e06 	movweq	r2, #28166	; 0x6e06
     578:	1aa14a12 	bne	fe852dc8 <__bss_end__+0xfe848870>
     57c:	2d2d2d49 	stccs	13, cr2, [sp, #-292]!	; 0xfffffedc
     580:	032d2d2d 	teqeq	sp, #2880	; 0xb40
     584:	2f4b4a0a 	svccs	0x004b4a0a
     588:	0402004b 	streq	r0, [r2], #-75	; 0x4b
     58c:	82820601 	addhi	r0, r2, #1048576	; 0x100000
     590:	02029f06 	andeq	r9, r2, #6, 30
     594:	0c010100 	stfeqs	f0, [r1], {-0}
     598:	02000001 	andeq	r0, r0, #1
     59c:	0000f500 	andeq	pc, r0, r0, lsl #10
     5a0:	fb010200 	blx	40daa <__bss_end__+0x36852>
     5a4:	01000d0e 	tsteq	r0, lr, lsl #26
     5a8:	00010101 	andeq	r0, r1, r1, lsl #2
     5ac:	00010000 	andeq	r0, r1, r0
     5b0:	696c0100 	stmdbvs	ip!, {r8}^
     5b4:	2f006362 	svccs	0x00006362
     5b8:	2f727375 	svccs	0x00727375
     5bc:	61636f6c 	cmnvs	r3, ip, ror #30
     5c0:	65432f6c 	strbvs	r2, [r3, #-3948]	; 0xf6c
     5c4:	72616c6c 	rsbvc	r6, r1, #108, 24	; 0x6c00
     5c8:	6d72612f 	ldfvse	f6, [r2, #-188]!	; 0xffffff44
     5cc:	6e6f6e2d 	cdpvs	14, 6, cr6, cr15, cr13, {1}
     5d0:	61652d65 	cmnvs	r5, r5, ror #26
     5d4:	342f6962 	strtcc	r6, [pc], #-2402	; 5dc <__code_start__-0x7a24>
     5d8:	332e382e 	teqcc	lr, #3014656	; 0x2e0000
     5dc:	3173632d 	cmncc	r3, sp, lsr #6
     5e0:	2f653037 	svccs	0x00653037
     5e4:	2f62696c 	svccs	0x0062696c
     5e8:	2f636367 	svccs	0x00636367
     5ec:	2d6d7261 	sfmcs	f7, 2, [sp, #-388]!	; 0xfffffe7c
     5f0:	656e6f6e 	strbvs	r6, [lr, #-3950]!	; 0xf6e
     5f4:	6261652d 	rsbvs	r6, r1, #188743680	; 0xb400000
     5f8:	2e342f69 	cdpcs	15, 3, cr2, cr4, cr9, {3}
     5fc:	2f332e38 	svccs	0x00332e38
     600:	6c636e69 	stclvs	14, cr6, [r3], #-420	; 0xfffffe5c
     604:	00656475 	rsbeq	r6, r5, r5, ror r4
     608:	6573552f 	ldrbvs	r5, [r3, #-1327]!	; 0x52f
     60c:	622f7372 	eorvs	r7, pc, #-939524095	; 0xc8000001
     610:	6e616972 	mcrvs	9, 3, r6, cr1, cr2, {3}
     614:	2f6e756a 	svccs	0x006e756a
     618:	6b736544 	blvs	1cd9b30 <__bss_end__+0x1ccf5d8>
     61c:	2f706f74 	svccs	0x00706f74
     620:	6f686373 	svcvs	0x00686373
     624:	532f6c6f 	teqpl	pc, #28416	; 0x6f00
     628:	6e697270 	mcrvs	2, 3, r7, cr9, cr0, {3}
     62c:	32393167 	eorscc	r3, r9, #-1073741799	; 0xc0000019
     630:	53432f30 	movtpl	r2, #16176	; 0x3f30
     634:	4c303432 	cfldrsmi	mvf3, [r0], #-200	; 0xffffff38
     638:	73632f58 	cmnvc	r3, #88, 30	; 0x160
     63c:	6c303432 	cfldrsvs	mvf3, [r0], #-200	; 0xffffff38
     640:	30322d78 	eorscc	r2, r2, r8, ror sp
     644:	2f727073 	svccs	0x00727073
     648:	7062696c 	rsbvc	r6, r2, ip, ror #18
     64c:	6e692f69 	cdpvs	15, 6, cr2, cr9, cr9, {3}
     650:	64756c63 	ldrbtvs	r6, [r5], #-3171	; 0xc63
     654:	70000065 	andvc	r0, r0, r5, rrx
     658:	746e6972 	strbtvc	r6, [lr], #-2418	; 0x972
     65c:	00632e6b 	rsbeq	r2, r3, fp, ror #28
     660:	73000001 	movwvc	r0, #1
     664:	72616474 	rsbvc	r6, r1, #116, 8	; 0x74000000
     668:	00682e67 	rsbeq	r2, r8, r7, ror #28
     66c:	3c000002 	stccc	0, cr0, [r0], {2}
     670:	6c697562 	cfstr64vs	mvdx7, [r9], #-392	; 0xfffffe78
     674:	6e692d74 	mcrvs	13, 3, r2, cr9, cr4, {3}
     678:	0000003e 	andeq	r0, r0, lr, lsr r0
     67c:	69707200 	ldmdbvs	r0!, {r9, ip, sp, lr}^
     680:	0300682e 	movweq	r6, #2094	; 0x82e
     684:	61760000 	cmnvs	r6, r0
     688:	6972702d 	ldmdbvs	r2!, {r0, r2, r3, r5, ip, sp, lr}^
     68c:	2e6b746e 	cdpcs	4, 6, cr7, cr11, cr14, {3}
     690:	00010068 	andeq	r0, r1, r8, rrx
     694:	05000000 	streq	r0, [r0, #-0]
     698:	008d5c02 	addeq	r5, sp, r2, lsl #24
     69c:	4b6b1700 	blmi	1ac62a4 <__bss_end__+0x1abbd4c>
     6a0:	0e0289bf 	mcreq	9, 0, r8, cr2, cr15, {5}
     6a4:	94010100 	strls	r0, [r1], #-256	; 0x100
     6a8:	02000000 	andeq	r0, r0, #0
     6ac:	00007c00 	andeq	r7, r0, r0, lsl #24
     6b0:	fb010200 	blx	40eba <__bss_end__+0x36962>
     6b4:	01000d0e 	tsteq	r0, lr, lsl #26
     6b8:	00010101 	andeq	r0, r1, r1, lsl #2
     6bc:	00010000 	andeq	r0, r1, r0
     6c0:	696c0100 	stmdbvs	ip!, {r8}^
     6c4:	2f006362 	svccs	0x00006362
     6c8:	72657355 	rsbvc	r7, r5, #1409286145	; 0x54000001
     6cc:	72622f73 	rsbvc	r2, r2, #460	; 0x1cc
     6d0:	6a6e6169 	bvs	1b98c7c <__bss_end__+0x1b8e724>
     6d4:	442f6e75 	strtmi	r6, [pc], #-3701	; 6dc <__code_start__-0x7924>
     6d8:	746b7365 	strbtvc	r7, [fp], #-869	; 0x365
     6dc:	732f706f 	teqvc	pc, #111	; 0x6f
     6e0:	6f6f6863 	svcvs	0x006f6863
     6e4:	70532f6c 	subsvc	r2, r3, ip, ror #30
     6e8:	676e6972 			; <UNDEFINED> instruction: 0x676e6972
     6ec:	30323931 	eorscc	r3, r2, r1, lsr r9
     6f0:	3253432f 	subscc	r4, r3, #-1140850688	; 0xbc000000
     6f4:	584c3034 	stmdapl	ip, {r2, r4, r5, ip, sp}^
     6f8:	3273632f 	rsbscc	r6, r3, #-1140850688	; 0xbc000000
     6fc:	786c3034 	stmdavc	ip!, {r2, r4, r5, ip, sp}^
     700:	7330322d 	teqvc	r0, #-805306366	; 0xd0000002
     704:	6c2f7270 	sfmvs	f7, 4, [pc], #-448	; 54c <__code_start__-0x7ab4>
     708:	69706269 	ldmdbvs	r0!, {r0, r3, r5, r6, r9, sp, lr}^
     70c:	636e692f 	cmnvs	lr, #770048	; 0xbc000
     710:	6564756c 	strbvs	r7, [r4, #-1388]!	; 0x56c
     714:	75700000 	ldrbvc	r0, [r0, #-0]!
     718:	61686374 	smcvs	34356	; 0x8634
     71c:	00632e72 	rsbeq	r2, r3, r2, ror lr
     720:	72000001 	andvc	r0, r0, #1
     724:	682e6970 	stmdavs	lr!, {r4, r5, r6, r8, fp, sp, lr}
     728:	00000200 	andeq	r0, r0, r0, lsl #4
     72c:	02050000 	andeq	r0, r5, #0
     730:	00008db4 			; <UNDEFINED> instruction: 0x00008db4
     734:	136b4a14 	cmnne	fp, #20, 20	; 0x14000
     738:	080213bc 	stmdaeq	r2, {r2, r3, r4, r5, r7, r8, r9, ip}
     73c:	a0010100 	andge	r0, r1, r0, lsl #2
     740:	02000000 	andeq	r0, r0, #0
     744:	00007900 	andeq	r7, r0, r0, lsl #18
     748:	fb010200 	blx	40f52 <__bss_end__+0x369fa>
     74c:	01000d0e 	tsteq	r0, lr, lsl #26
     750:	00010101 	andeq	r0, r1, r1, lsl #2
     754:	00010000 	andeq	r0, r1, r0
     758:	696c0100 	stmdbvs	ip!, {r8}^
     75c:	2f006362 	svccs	0x00006362
     760:	72657355 	rsbvc	r7, r5, #1409286145	; 0x54000001
     764:	72622f73 	rsbvc	r2, r2, #460	; 0x1cc
     768:	6a6e6169 	bvs	1b98d14 <__bss_end__+0x1b8e7bc>
     76c:	442f6e75 	strtmi	r6, [pc], #-3701	; 774 <__code_start__-0x788c>
     770:	746b7365 	strbtvc	r7, [fp], #-869	; 0x365
     774:	732f706f 	teqvc	pc, #111	; 0x6f
     778:	6f6f6863 	svcvs	0x006f6863
     77c:	70532f6c 	subsvc	r2, r3, ip, ror #30
     780:	676e6972 			; <UNDEFINED> instruction: 0x676e6972
     784:	30323931 	eorscc	r3, r2, r1, lsr r9
     788:	3253432f 	subscc	r4, r3, #-1140850688	; 0xbc000000
     78c:	584c3034 	stmdapl	ip, {r2, r4, r5, ip, sp}^
     790:	3273632f 	rsbscc	r6, r3, #-1140850688	; 0xbc000000
     794:	786c3034 	stmdavc	ip!, {r2, r4, r5, ip, sp}^
     798:	7330322d 	teqvc	r0, #-805306366	; 0xd0000002
     79c:	6c2f7270 	sfmvs	f7, 4, [pc], #-448	; 5e4 <__code_start__-0x7a1c>
     7a0:	69706269 	ldmdbvs	r0!, {r0, r3, r5, r6, r9, sp, lr}^
     7a4:	636e692f 	cmnvs	lr, #770048	; 0xbc000
     7a8:	6564756c 	strbvs	r7, [r4, #-1388]!	; 0x56c
     7ac:	75700000 	ldrbvc	r0, [r0, #-0]!
     7b0:	632e6b74 	teqvs	lr, #116, 22	; 0x1d000
     7b4:	00000100 	andeq	r0, r0, r0, lsl #2
     7b8:	2e697072 	mcrcs	0, 3, r7, cr9, cr2, {3}
     7bc:	00020068 	andeq	r0, r2, r8, rrx
     7c0:	05000000 	streq	r0, [r0, #-0]
     7c4:	008df002 	addeq	pc, sp, r2
     7c8:	2d4c1500 	cfstr64cs	mvdx1, [ip, #-0]
     7cc:	02040200 	andeq	r0, r4, #0, 4
     7d0:	0402002f 	streq	r0, [r2], #-47	; 0x2f
     7d4:	02004902 	andeq	r4, r0, #32768	; 0x8000
     7d8:	2e060104 	adfcss	f0, f6, f4
     7dc:	06026b06 	streq	r6, [r2], -r6, lsl #22
     7e0:	f1010100 	setend	le
     7e4:	02000001 	andeq	r0, r0, #1
     7e8:	0000e900 	andeq	lr, r0, r0, lsl #18
     7ec:	fb010200 	blx	40ff6 <__bss_end__+0x36a9e>
     7f0:	01000d0e 	tsteq	r0, lr, lsl #26
     7f4:	00010101 	andeq	r0, r1, r1, lsl #2
     7f8:	00010000 	andeq	r0, r1, r0
     7fc:	696c0100 	stmdbvs	ip!, {r8}^
     800:	2f006362 	svccs	0x00006362
     804:	2f727375 	svccs	0x00727375
     808:	61636f6c 	cmnvs	r3, ip, ror #30
     80c:	65432f6c 	strbvs	r2, [r3, #-3948]	; 0xf6c
     810:	72616c6c 	rsbvc	r6, r1, #108, 24	; 0x6c00
     814:	6d72612f 	ldfvse	f6, [r2, #-188]!	; 0xffffff44
     818:	6e6f6e2d 	cdpvs	14, 6, cr6, cr15, cr13, {1}
     81c:	61652d65 	cmnvs	r5, r5, ror #26
     820:	342f6962 	strtcc	r6, [pc], #-2402	; 828 <__code_start__-0x77d8>
     824:	332e382e 	teqcc	lr, #3014656	; 0x2e0000
     828:	3173632d 	cmncc	r3, sp, lsr #6
     82c:	2f653037 	svccs	0x00653037
     830:	2f62696c 	svccs	0x0062696c
     834:	2f636367 	svccs	0x00636367
     838:	2d6d7261 	sfmcs	f7, 2, [sp, #-388]!	; 0xfffffe7c
     83c:	656e6f6e 	strbvs	r6, [lr, #-3950]!	; 0xf6e
     840:	6261652d 	rsbvs	r6, r1, #188743680	; 0xb400000
     844:	2e342f69 	cdpcs	15, 3, cr2, cr4, cr9, {3}
     848:	2f332e38 	svccs	0x00332e38
     84c:	6c636e69 	stclvs	14, cr6, [r3], #-420	; 0xfffffe5c
     850:	00656475 	rsbeq	r6, r5, r5, ror r4
     854:	6573552f 	ldrbvs	r5, [r3, #-1327]!	; 0x52f
     858:	622f7372 	eorvs	r7, pc, #-939524095	; 0xc8000001
     85c:	6e616972 	mcrvs	9, 3, r6, cr1, cr2, {3}
     860:	2f6e756a 	svccs	0x006e756a
     864:	6b736544 	blvs	1cd9d7c <__bss_end__+0x1ccf824>
     868:	2f706f74 	svccs	0x00706f74
     86c:	6f686373 	svcvs	0x00686373
     870:	532f6c6f 	teqpl	pc, #28416	; 0x6f00
     874:	6e697270 	mcrvs	2, 3, r7, cr9, cr0, {3}
     878:	32393167 	eorscc	r3, r9, #-1073741799	; 0xc0000019
     87c:	53432f30 	movtpl	r2, #16176	; 0x3f30
     880:	4c303432 	cfldrsmi	mvf3, [r0], #-200	; 0xffffff38
     884:	73632f58 	cmnvc	r3, #88, 30	; 0x160
     888:	6c303432 	cfldrsvs	mvf3, [r0], #-200	; 0xffffff38
     88c:	30322d78 	eorscc	r2, r2, r8, ror sp
     890:	2f727073 	svccs	0x00727073
     894:	7062696c 	rsbvc	r6, r2, ip, ror #18
     898:	6e692f69 	cdpvs	15, 6, cr2, cr9, cr9, {3}
     89c:	64756c63 	ldrbtvs	r6, [r5], #-3171	; 0xc63
     8a0:	76000065 	strvc	r0, [r0], -r5, rrx
     8a4:	72702d61 	rsbsvc	r2, r0, #6208	; 0x1840
     8a8:	6b746e69 	blvs	1d1c254 <__bss_end__+0x1d11cfc>
     8ac:	0100632e 	tsteq	r0, lr, lsr #6
     8b0:	74730000 	ldrbtvc	r0, [r3], #-0
     8b4:	67726164 	ldrbvs	r6, [r2, -r4, ror #2]!
     8b8:	0200682e 	andeq	r6, r0, #3014656	; 0x2e0000
     8bc:	70720000 	rsbsvc	r0, r2, r0
     8c0:	00682e69 	rsbeq	r2, r8, r9, ror #28
     8c4:	3c000003 	stccc	0, cr0, [r0], {3}
     8c8:	6c697562 	cfstr64vs	mvdx7, [r9], #-392	; 0xfffffe78
     8cc:	6e692d74 	mcrvs	13, 3, r2, cr9, cr4, {3}
     8d0:	0000003e 	andeq	r0, r0, lr, lsr r0
     8d4:	05000000 	streq	r0, [r0, #-0]
     8d8:	008e2402 	addeq	r2, lr, r2, lsl #8
     8dc:	01260300 	teqeq	r6, r0, lsl #6
     8e0:	3113a501 	tstcc	r3, r1, lsl #10
     8e4:	0402002d 	streq	r0, [r2], #-45	; 0x2d
     8e8:	02002f02 	andeq	r2, r0, #2, 30
     8ec:	002d0204 	eoreq	r0, sp, r4, lsl #4
     8f0:	2f020402 	svccs	0x00020402
     8f4:	01040200 	mrseq	r0, R12_usr
     8f8:	304c4c2d 	subcc	r4, ip, sp, lsr #24
     8fc:	4f2f4b14 	svcmi	0x002f4b14
     900:	02040200 	andeq	r0, r4, #0, 4
     904:	04020067 	streq	r0, [r2], #-103	; 0x67
     908:	4d4c6501 	cfstr64mi	mvdx6, [ip, #-4]
     90c:	312fa030 	teqcc	pc, r0, lsr r0	; <UNPREDICTABLE>
     910:	16260230 			; <UNDEFINED> instruction: 0x16260230
     914:	002c2d84 	eoreq	r2, ip, r4, lsl #27
     918:	30010402 	andcc	r0, r1, r2, lsl #8
     91c:	01040200 	mrseq	r0, R12_usr
     920:	00660633 	rsbeq	r0, r6, r3, lsr r6
     924:	2e010402 	cdpcs	4, 0, cr0, cr1, cr2, {0}
     928:	01040200 	mrseq	r0, R12_usr
     92c:	67210806 	strvs	r0, [r1, -r6, lsl #16]!
     930:	8273032f 	rsbshi	r0, r3, #-1140850688	; 0xbc000000
     934:	002e1303 	eoreq	r1, lr, r3, lsl #6
     938:	06010402 	streq	r0, [r1], -r2, lsl #8
     93c:	04020066 	streq	r0, [r2], #-102	; 0x66
     940:	4b830601 	blmi	fe0c214c <__bss_end__+0xfe0b7bf4>
     944:	4b31674b 	blmi	c5a678 <__bss_end__+0xc50120>
     948:	032e6503 	teqeq	lr, #12582912	; 0xc00000
     94c:	02002e23 	andeq	r2, r0, #560	; 0x230
     950:	2e060104 	adfcss	f0, f6, f4
     954:	01040200 	mrseq	r0, R12_usr
     958:	02009f06 	andeq	r9, r0, #6, 30
     95c:	086a0104 	stmdaeq	sl!, {r2, r8}^
     960:	a403d723 	strge	sp, [r3], #-1827	; 0x723
     964:	4b3c087f 	blmi	f02b68 <__bss_end__+0xef8610>
     968:	01040200 	mrseq	r0, R12_usr
     96c:	08064a06 	stmdaeq	r6, {r1, r2, r9, fp, lr}
     970:	4b2f4b21 	blmi	bd35fc <__bss_end__+0xbc90a4>
     974:	f200db03 	vqdmulh.s<illegal width 8>	d13, d0, d3
     978:	32484c9f 	subcc	r4, r8, #40704	; 0x9f00
     97c:	4b842f4b 	blmi	fe10c6b0 <__bss_end__+0xfe102158>
     980:	314d2d2f 	cmpcc	sp, pc, lsr #26
     984:	00832f30 	addeq	r2, r3, r0, lsr pc
     988:	2c010402 	cfstrscs	mvf0, [r1], {2}
     98c:	040200be 	streq	r0, [r2], #-190	; 0xbe
     990:	064a0601 	strbeq	r0, [sl], -r1, lsl #12
     994:	36022208 	strcc	r2, [r2], -r8, lsl #4
     998:	d60e0316 			; <UNDEFINED> instruction: 0xd60e0316
     99c:	08302108 	ldmdaeq	r0!, {r3, r8, sp}
     9a0:	21083121 	tstcs	r8, r1, lsr #2
     9a4:	30210830 	eorcc	r0, r1, r0, lsr r8
     9a8:	2108304b 	tstcs	r8, fp, asr #32
     9ac:	83834b30 	orrhi	r4, r3, #48, 22	; 0xc000
     9b0:	002f31d9 	ldrdeq	r3, [pc], -r9	; <UNPREDICTABLE>
     9b4:	65010402 	strvs	r0, [r1, #-1026]	; 0x402
     9b8:	02040200 	andeq	r0, r4, #0, 4
     9bc:	02004a06 	andeq	r4, r0, #24576	; 0x6000
     9c0:	03060104 	movweq	r0, #24836	; 0x6104
     9c4:	00667fbf 	strhteq	r7, [r6], #-255	; 0xffffff01
     9c8:	06020402 	streq	r0, [r2], -r2, lsl #8
     9cc:	c5030666 	strgt	r0, [r3, #-1638]	; 0x666
     9d0:	02684a00 	rsbeq	r4, r8, #0, 20
     9d4:	01010016 	tsteq	r1, r6, lsl r0
     9d8:	00000042 	andeq	r0, r0, r2, asr #32
     9dc:	00280002 	eoreq	r0, r8, r2
     9e0:	01020000 	mrseq	r0, (UNDEF: 2)
     9e4:	000d0efb 	strdeq	r0, [sp], -fp
     9e8:	01010101 	tsteq	r1, r1, lsl #2
     9ec:	01000000 	mrseq	r0, (UNDEF: 0)
     9f0:	73010000 	movwvc	r0, #4096	; 0x1000
     9f4:	66666174 			; <UNDEFINED> instruction: 0x66666174
     9f8:	6372732d 	cmnvs	r2, #-1275068416	; 0xb4000000
     9fc:	61630000 	cmnvs	r3, r0
     a00:	2e656863 	cdpcs	8, 6, cr6, cr5, cr3, {3}
     a04:	00010063 	andeq	r0, r1, r3, rrx
     a08:	05000000 	streq	r0, [r0, #-0]
     a0c:	00939c02 	addseq	r9, r3, r2, lsl #24
     a10:	30141400 	andscc	r1, r4, r0, lsl #8
     a14:	31144e2f 	tstcc	r4, pc, lsr #28
     a18:	0004022f 	andeq	r0, r4, pc, lsr #4
     a1c:	009d0101 	addseq	r0, sp, r1, lsl #2
     a20:	00020000 	andeq	r0, r2, r0
     a24:	00000086 	andeq	r0, r0, r6, lsl #1
     a28:	0efb0102 	cdpeq	1, 15, cr0, cr11, cr2, {0}
     a2c:	0101000d 	tsteq	r1, sp
     a30:	00000101 	andeq	r0, r0, r1, lsl #2
     a34:	00000100 	andeq	r0, r0, r0, lsl #2
     a38:	61747301 	cmnvs	r4, r1, lsl #6
     a3c:	732d6666 	teqvc	sp, #106954752	; 0x6600000
     a40:	2f006372 	svccs	0x00006372
     a44:	72657355 	rsbvc	r7, r5, #1409286145	; 0x54000001
     a48:	72622f73 	rsbvc	r2, r2, #460	; 0x1cc
     a4c:	6a6e6169 	bvs	1b98ff8 <__bss_end__+0x1b8eaa0>
     a50:	442f6e75 	strtmi	r6, [pc], #-3701	; a58 <__code_start__-0x75a8>
     a54:	746b7365 	strbtvc	r7, [fp], #-869	; 0x365
     a58:	732f706f 	teqvc	pc, #111	; 0x6f
     a5c:	6f6f6863 	svcvs	0x006f6863
     a60:	70532f6c 	subsvc	r2, r3, ip, ror #30
     a64:	676e6972 			; <UNDEFINED> instruction: 0x676e6972
     a68:	30323931 	eorscc	r3, r2, r1, lsr r9
     a6c:	3253432f 	subscc	r4, r3, #-1140850688	; 0xbc000000
     a70:	584c3034 	stmdapl	ip, {r2, r4, r5, ip, sp}^
     a74:	3273632f 	rsbscc	r6, r3, #-1140850688	; 0xbc000000
     a78:	786c3034 	stmdavc	ip!, {r2, r4, r5, ip, sp}^
     a7c:	7330322d 	teqvc	r0, #-805306366	; 0xd0000002
     a80:	6c2f7270 	sfmvs	f7, 4, [pc], #-448	; 8c8 <__code_start__-0x7738>
     a84:	69706269 	ldmdbvs	r0!, {r0, r3, r5, r6, r9, sp, lr}^
     a88:	636e692f 	cmnvs	lr, #770048	; 0xbc000
     a8c:	6564756c 	strbvs	r7, [r4, #-1388]!	; 0x56c
     a90:	6c630000 	stclvs	0, cr0, [r3], #-0
     a94:	2d6e6165 	stfcse	f6, [lr, #-404]!	; 0xfffffe6c
     a98:	6f626572 	svcvs	0x00626572
     a9c:	632e746f 	teqvs	lr, #1862270976	; 0x6f000000
     aa0:	00000100 	andeq	r0, r0, r0, lsl #2
     aa4:	2e697072 	mcrcs	0, 3, r7, cr9, cr2, {3}
     aa8:	00020068 	andeq	r0, r2, r8, rrx
     aac:	05000000 	streq	r0, [r0, #-0]
     ab0:	0093bc02 	addseq	fp, r3, r2, lsl #24
     ab4:	2f2f1500 	svccs	0x002f1500
     ab8:	06024b83 	streq	r4, [r2], -r3, lsl #23
     abc:	a6010100 	strge	r0, [r1], -r0, lsl #2
     ac0:	02000000 	andeq	r0, r0, #0
     ac4:	00008000 	andeq	r8, r0, r0
     ac8:	fb010200 	blx	412d2 <__bss_end__+0x36d7a>
     acc:	01000d0e 	tsteq	r0, lr, lsl #26
     ad0:	00010101 	andeq	r0, r1, r1, lsl #2
     ad4:	00010000 	andeq	r0, r1, r0
     ad8:	74730100 	ldrbtvc	r0, [r3], #-256	; 0x100
     adc:	2d666661 	stclcs	6, cr6, [r6, #-388]!	; 0xfffffe7c
     ae0:	00637273 	rsbeq	r7, r3, r3, ror r2
     ae4:	6573552f 	ldrbvs	r5, [r3, #-1327]!	; 0x52f
     ae8:	622f7372 	eorvs	r7, pc, #-939524095	; 0xc8000001
     aec:	6e616972 	mcrvs	9, 3, r6, cr1, cr2, {3}
     af0:	2f6e756a 	svccs	0x006e756a
     af4:	6b736544 	blvs	1cda00c <__bss_end__+0x1ccfab4>
     af8:	2f706f74 	svccs	0x00706f74
     afc:	6f686373 	svcvs	0x00686373
     b00:	532f6c6f 	teqpl	pc, #28416	; 0x6f00
     b04:	6e697270 	mcrvs	2, 3, r7, cr9, cr0, {3}
     b08:	32393167 	eorscc	r3, r9, #-1073741799	; 0xc0000019
     b0c:	53432f30 	movtpl	r2, #16176	; 0x3f30
     b10:	4c303432 	cfldrsmi	mvf3, [r0], #-200	; 0xffffff38
     b14:	73632f58 	cmnvc	r3, #88, 30	; 0x160
     b18:	6c303432 	cfldrsvs	mvf3, [r0], #-200	; 0xffffff38
     b1c:	30322d78 	eorscc	r2, r2, r8, ror sp
     b20:	2f727073 	svccs	0x00727073
     b24:	7062696c 	rsbvc	r6, r2, ip, ror #18
     b28:	6e692f69 	cdpvs	15, 6, cr2, cr9, cr9, {3}
     b2c:	64756c63 	ldrbtvs	r6, [r5], #-3171	; 0xc63
     b30:	63000065 	movwvs	r0, #101	; 0x65
     b34:	72617473 	rsbvc	r7, r1, #1929379840	; 0x73000000
     b38:	00632e74 	rsbeq	r2, r3, r4, ror lr
     b3c:	72000001 	andvc	r0, r0, #1
     b40:	682e6970 	stmdavs	lr!, {r4, r5, r6, r8, fp, sp, lr}
     b44:	00000200 	andeq	r0, r0, r0, lsl #4
     b48:	02050000 	andeq	r0, r5, #0
     b4c:	000093e8 	andeq	r9, r0, r8, ror #7
     b50:	32010c03 	andcc	r0, r1, #768	; 0x300
     b54:	2f2d2f31 	svccs	0x002d2f31
     b58:	01040200 	mrseq	r0, R12_usr
     b5c:	4a090349 	bmi	241888 <__bss_end__+0x237330>
     b60:	2f2e0d03 	svccs	0x002e0d03
     b64:	01000602 	tsteq	r0, r2, lsl #12
     b68:	0000a201 	andeq	sl, r0, r1, lsl #4
     b6c:	8e000200 	cdphi	2, 0, cr0, cr0, cr0, {0}
     b70:	02000000 	andeq	r0, r0, #0
     b74:	0d0efb01 	vstreq	d15, [lr, #-4]
     b78:	01010100 	mrseq	r0, (UNDEF: 17)
     b7c:	00000001 	andeq	r0, r0, r1
     b80:	01000001 	tsteq	r0, r1
     b84:	66617473 			; <UNDEFINED> instruction: 0x66617473
     b88:	72732d66 	rsbsvc	r2, r3, #6528	; 0x1980
     b8c:	552f0063 	strpl	r0, [pc, #-99]!	; b31 <__code_start__-0x74cf>
     b90:	73726573 	cmnvc	r2, #482344960	; 0x1cc00000
     b94:	6972622f 	ldmdbvs	r2!, {r0, r1, r2, r3, r5, r9, sp, lr}^
     b98:	756a6e61 	strbvc	r6, [sl, #-3681]!	; 0xe61
     b9c:	65442f6e 	strbvs	r2, [r4, #-3950]	; 0xf6e
     ba0:	6f746b73 	svcvs	0x00746b73
     ba4:	63732f70 	cmnvs	r3, #112, 30	; 0x1c0
     ba8:	6c6f6f68 	stclvs	15, cr6, [pc], #-416	; a10 <__code_start__-0x75f0>
     bac:	7270532f 	rsbsvc	r5, r0, #-1140850688	; 0xbc000000
     bb0:	31676e69 	cmncc	r7, r9, ror #28
     bb4:	2f303239 	svccs	0x00303239
     bb8:	34325343 	ldrtcc	r5, [r2], #-835	; 0x343
     bbc:	2f584c30 	svccs	0x00584c30
     bc0:	34327363 	ldrtcc	r7, [r2], #-867	; 0x363
     bc4:	2d786c30 	ldclcs	12, cr6, [r8, #-192]!	; 0xffffff40
     bc8:	70733032 	rsbsvc	r3, r3, r2, lsr r0
     bcc:	696c2f72 	stmdbvs	ip!, {r1, r4, r5, r6, r8, r9, sl, fp, sp}^
     bd0:	2f697062 	svccs	0x00697062
     bd4:	6c636e69 	stclvs	14, cr6, [r3], #-420	; 0xfffffe5c
     bd8:	00656475 	rsbeq	r6, r5, r5, ror r4
     bdc:	66656400 	strbtvs	r6, [r5], -r0, lsl #8
     be0:	746c7561 	strbtvc	r7, [ip], #-1377	; 0x561
     be4:	6e61682d 	cdpvs	8, 6, cr6, cr1, cr13, {1}
     be8:	72656c64 	rsbvc	r6, r5, #100, 24	; 0x6400
     bec:	7361662d 	cmnvc	r1, #47185920	; 0x2d00000
     bf0:	00632e74 	rsbeq	r2, r3, r4, ror lr
     bf4:	72000001 	andvc	r0, r0, #1
     bf8:	682e6970 	stmdavs	lr!, {r4, r5, r6, r8, fp, sp, lr}
     bfc:	00000200 	andeq	r0, r0, r0, lsl #4
     c00:	02050000 	andeq	r0, r5, #0
     c04:	00009420 	andeq	r9, r0, r0, lsr #8
     c08:	1c026613 	stcne	6, cr6, [r2], {19}
     c0c:	a3010100 	movwge	r0, #4352	; 0x1100
     c10:	02000000 	andeq	r0, r0, #0
     c14:	00008f00 	andeq	r8, r0, r0, lsl #30
     c18:	fb010200 	blx	41422 <__bss_end__+0x36eca>
     c1c:	01000d0e 	tsteq	r0, lr, lsl #26
     c20:	00010101 	andeq	r0, r1, r1, lsl #2
     c24:	00010000 	andeq	r0, r1, r0
     c28:	74730100 	ldrbtvc	r0, [r3], #-256	; 0x100
     c2c:	2d666661 	stclcs	6, cr6, [r6, #-388]!	; 0xfffffe7c
     c30:	00637273 	rsbeq	r7, r3, r3, ror r2
     c34:	6573552f 	ldrbvs	r5, [r3, #-1327]!	; 0x52f
     c38:	622f7372 	eorvs	r7, pc, #-939524095	; 0xc8000001
     c3c:	6e616972 	mcrvs	9, 3, r6, cr1, cr2, {3}
     c40:	2f6e756a 	svccs	0x006e756a
     c44:	6b736544 	blvs	1cda15c <__bss_end__+0x1ccfc04>
     c48:	2f706f74 	svccs	0x00706f74
     c4c:	6f686373 	svcvs	0x00686373
     c50:	532f6c6f 	teqpl	pc, #28416	; 0x6f00
     c54:	6e697270 	mcrvs	2, 3, r7, cr9, cr0, {3}
     c58:	32393167 	eorscc	r3, r9, #-1073741799	; 0xc0000019
     c5c:	53432f30 	movtpl	r2, #16176	; 0x3f30
     c60:	4c303432 	cfldrsmi	mvf3, [r0], #-200	; 0xffffff38
     c64:	73632f58 	cmnvc	r3, #88, 30	; 0x160
     c68:	6c303432 	cfldrsvs	mvf3, [r0], #-200	; 0xffffff38
     c6c:	30322d78 	eorscc	r2, r2, r8, ror sp
     c70:	2f727073 	svccs	0x00727073
     c74:	7062696c 	rsbvc	r6, r2, ip, ror #18
     c78:	6e692f69 	cdpvs	15, 6, cr2, cr9, cr9, {3}
     c7c:	64756c63 	ldrbtvs	r6, [r5], #-3171	; 0xc63
     c80:	64000065 	strvs	r0, [r0], #-101	; 0x65
     c84:	75616665 	strbvc	r6, [r1, #-1637]!	; 0x665
     c88:	682d746c 	stmdavs	sp!, {r2, r3, r5, r6, sl, ip, sp, lr}
     c8c:	6c646e61 	stclvs	14, cr6, [r4], #-388	; 0xfffffe7c
     c90:	722d7265 	eorvc	r7, sp, #1342177286	; 0x50000006
     c94:	74657365 	strbtvc	r7, [r5], #-869	; 0x365
     c98:	0100632e 	tsteq	r0, lr, lsr #6
     c9c:	70720000 	rsbsvc	r0, r2, r0
     ca0:	00682e69 	rsbeq	r2, r8, r9, ror #28
     ca4:	00000002 	andeq	r0, r0, r2
     ca8:	64020500 	strvs	r0, [r2], #-1280	; 0x500
     cac:	13000094 	movwne	r0, #148	; 0x94
     cb0:	001c0266 	andseq	r0, ip, r6, ror #4
     cb4:	00ac0101 	adceq	r0, ip, r1, lsl #2
     cb8:	00020000 	andeq	r0, r2, r0
     cbc:	00000098 	muleq	r0, r8, r0
     cc0:	0efb0102 	cdpeq	1, 15, cr0, cr11, cr2, {0}
     cc4:	0101000d 	tsteq	r1, sp
     cc8:	00000101 	andeq	r0, r0, r1, lsl #2
     ccc:	00000100 	andeq	r0, r0, r0, lsl #2
     cd0:	61747301 	cmnvs	r4, r1, lsl #6
     cd4:	732d6666 	teqvc	sp, #106954752	; 0x6600000
     cd8:	2f006372 	svccs	0x00006372
     cdc:	72657355 	rsbvc	r7, r5, #1409286145	; 0x54000001
     ce0:	72622f73 	rsbvc	r2, r2, #460	; 0x1cc
     ce4:	6a6e6169 	bvs	1b99290 <__bss_end__+0x1b8ed38>
     ce8:	442f6e75 	strtmi	r6, [pc], #-3701	; cf0 <__code_start__-0x7310>
     cec:	746b7365 	strbtvc	r7, [fp], #-869	; 0x365
     cf0:	732f706f 	teqvc	pc, #111	; 0x6f
     cf4:	6f6f6863 	svcvs	0x006f6863
     cf8:	70532f6c 	subsvc	r2, r3, ip, ror #30
     cfc:	676e6972 			; <UNDEFINED> instruction: 0x676e6972
     d00:	30323931 	eorscc	r3, r2, r1, lsr r9
     d04:	3253432f 	subscc	r4, r3, #-1140850688	; 0xbc000000
     d08:	584c3034 	stmdapl	ip, {r2, r4, r5, ip, sp}^
     d0c:	3273632f 	rsbscc	r6, r3, #-1140850688	; 0xbc000000
     d10:	786c3034 	stmdavc	ip!, {r2, r4, r5, ip, sp}^
     d14:	7330322d 	teqvc	r0, #-805306366	; 0xd0000002
     d18:	6c2f7270 	sfmvs	f7, 4, [pc], #-448	; b60 <__code_start__-0x74a0>
     d1c:	69706269 	ldmdbvs	r0!, {r0, r3, r5, r6, r9, sp, lr}^
     d20:	636e692f 	cmnvs	lr, #770048	; 0xbc000
     d24:	6564756c 	strbvs	r7, [r4, #-1388]!	; 0x56c
     d28:	65640000 	strbvs	r0, [r4, #-0]!
     d2c:	6c756166 	ldfvse	f6, [r5], #-408	; 0xfffffe68
     d30:	61682d74 	smcvs	33492	; 0x82d4
     d34:	656c646e 	strbvs	r6, [ip, #-1134]!	; 0x46e
     d38:	6e752d72 	mrcvs	13, 3, r2, cr5, cr2, {3}
     d3c:	69666564 	stmdbvs	r6!, {r2, r5, r6, r8, sl, sp, lr}^
     d40:	2d64656e 	cfstr64cs	mvdx6, [r4, #-440]!	; 0xfffffe48
     d44:	74736e69 	ldrbtvc	r6, [r3], #-3689	; 0xe69
     d48:	0100632e 	tsteq	r0, lr, lsr #6
     d4c:	70720000 	rsbsvc	r0, r2, r0
     d50:	00682e69 	rsbeq	r2, r8, r9, ror #28
     d54:	00000002 	andeq	r0, r0, r2
     d58:	a8020500 	stmdage	r2, {r8, sl}
     d5c:	13000094 	movwne	r0, #148	; 0x94
     d60:	001c0266 	andseq	r0, ip, r6, ror #4
     d64:	00470101 	subeq	r0, r7, r1, lsl #2
     d68:	00020000 	andeq	r0, r2, r0
     d6c:	00000033 	andeq	r0, r0, r3, lsr r0
     d70:	0efb0102 	cdpeq	1, 15, cr0, cr11, cr2, {0}
     d74:	0101000d 	tsteq	r1, sp
     d78:	00000101 	andeq	r0, r0, r1, lsl #2
     d7c:	00000100 	andeq	r0, r0, r0, lsl #2
     d80:	61747301 	cmnvs	r4, r1, lsl #6
     d84:	732d6666 	teqvc	sp, #106954752	; 0x6600000
     d88:	00006372 	andeq	r6, r0, r2, ror r3
     d8c:	61666564 	cmnvs	r6, r4, ror #10
     d90:	2d746c75 	ldclcs	12, cr6, [r4, #-468]!	; 0xfffffe2c
     d94:	646e6168 	strbtvs	r6, [lr], #-360	; 0x168
     d98:	7372656c 	cmnvc	r2, #108, 10	; 0x1b000000
     d9c:	0100632e 	tsteq	r0, lr, lsr #6
     da0:	00000000 	andeq	r0, r0, r0
     da4:	94ec0205 	strbtls	r0, [ip], #517	; 0x205
     da8:	2f150000 	svccs	0x00150000
     dac:	01000202 	tsteq	r0, r2, lsl #4
     db0:	0000c901 	andeq	ip, r0, r1, lsl #18
     db4:	9a000200 	bls	15bc <__code_start__-0x6a44>
     db8:	02000000 	andeq	r0, r0, #0
     dbc:	0d0efb01 	vstreq	d15, [lr, #-4]
     dc0:	01010100 	mrseq	r0, (UNDEF: 17)
     dc4:	00000001 	andeq	r0, r0, r1
     dc8:	01000001 	tsteq	r0, r1
     dcc:	66617473 			; <UNDEFINED> instruction: 0x66617473
     dd0:	72732d66 	rsbsvc	r2, r3, #6528	; 0x1980
     dd4:	552f0063 	strpl	r0, [pc, #-99]!	; d79 <__code_start__-0x7287>
     dd8:	73726573 	cmnvc	r2, #482344960	; 0x1cc00000
     ddc:	6972622f 	ldmdbvs	r2!, {r0, r1, r2, r3, r5, r9, sp, lr}^
     de0:	756a6e61 	strbvc	r6, [sl, #-3681]!	; 0xe61
     de4:	65442f6e 	strbvs	r2, [r4, #-3950]	; 0xf6e
     de8:	6f746b73 	svcvs	0x00746b73
     dec:	63732f70 	cmnvs	r3, #112, 30	; 0x1c0
     df0:	6c6f6f68 	stclvs	15, cr6, [pc], #-416	; c58 <__code_start__-0x73a8>
     df4:	7270532f 	rsbsvc	r5, r0, #-1140850688	; 0xbc000000
     df8:	31676e69 	cmncc	r7, r9, ror #28
     dfc:	2f303239 	svccs	0x00303239
     e00:	34325343 	ldrtcc	r5, [r2], #-835	; 0x343
     e04:	2f584c30 	svccs	0x00584c30
     e08:	34327363 	ldrtcc	r7, [r2], #-867	; 0x363
     e0c:	2d786c30 	ldclcs	12, cr6, [r8, #-192]!	; 0xffffff40
     e10:	70733032 	rsbsvc	r3, r3, r2, lsr r0
     e14:	696c2f72 	stmdbvs	ip!, {r1, r4, r5, r6, r8, r9, sl, fp, sp}^
     e18:	2f697062 	svccs	0x00697062
     e1c:	6c636e69 	stclvs	14, cr6, [r3], #-420	; 0xfffffe5c
     e20:	00656475 	rsbeq	r6, r5, r5, ror r4
     e24:	746e6900 	strbtvc	r6, [lr], #-2304	; 0x900
     e28:	75727265 	ldrbvc	r7, [r2, #-613]!	; 0x265
     e2c:	2d737470 	cfldrdcs	mvd7, [r3, #-448]!	; 0xfffffe40
     e30:	00632e63 	rsbeq	r2, r3, r3, ror #28
     e34:	72000001 	andvc	r0, r0, #1
     e38:	692d6970 	pushvs	{r4, r5, r6, r8, fp, sp, lr}
     e3c:	7265746e 	rsbvc	r7, r5, #1845493760	; 0x6e000000
     e40:	74707572 	ldrbtvc	r7, [r0], #-1394	; 0x572
     e44:	00682e73 	rsbeq	r2, r8, r3, ror lr
     e48:	72000002 	andvc	r0, r0, #2
     e4c:	682e6970 	stmdavs	lr!, {r4, r5, r6, r8, fp, sp, lr}
     e50:	00000200 	andeq	r0, r0, r0, lsl #4
     e54:	02050000 	andeq	r0, r5, #0
     e58:	000094f4 	strdeq	r9, [r0], -r4
     e5c:	31011a03 	tstcc	r1, r3, lsl #20
     e60:	3667672f 	strbtcc	r6, [r7], -pc, lsr #14
     e64:	002d2f83 	eoreq	r2, sp, r3, lsl #31
     e68:	2f020402 	svccs	0x00020402
     e6c:	02040200 	andeq	r0, r4, #0, 4
     e70:	04020065 	streq	r0, [r2], #-101	; 0x65
     e74:	062e0601 	strteq	r0, [lr], -r1, lsl #12
     e78:	000a024c 	andeq	r0, sl, ip, asr #4
     e7c:	00a20101 	adceq	r0, r2, r1, lsl #2
     e80:	00020000 	andeq	r0, r2, r0
     e84:	00000080 	andeq	r0, r0, r0, lsl #1
     e88:	0efb0102 	cdpeq	1, 15, cr0, cr11, cr2, {0}
     e8c:	0101000d 	tsteq	r1, sp
     e90:	00000101 	andeq	r0, r0, r1, lsl #2
     e94:	00000100 	andeq	r0, r0, r0, lsl #2
     e98:	61747301 	cmnvs	r4, r1, lsl #6
     e9c:	732d6666 	teqvc	sp, #106954752	; 0x6600000
     ea0:	2f006372 	svccs	0x00006372
     ea4:	72657355 	rsbvc	r7, r5, #1409286145	; 0x54000001
     ea8:	72622f73 	rsbvc	r2, r2, #460	; 0x1cc
     eac:	6a6e6169 	bvs	1b99458 <__bss_end__+0x1b8ef00>
     eb0:	442f6e75 	strtmi	r6, [pc], #-3701	; eb8 <__code_start__-0x7148>
     eb4:	746b7365 	strbtvc	r7, [fp], #-869	; 0x365
     eb8:	732f706f 	teqvc	pc, #111	; 0x6f
     ebc:	6f6f6863 	svcvs	0x006f6863
     ec0:	70532f6c 	subsvc	r2, r3, ip, ror #30
     ec4:	676e6972 			; <UNDEFINED> instruction: 0x676e6972
     ec8:	30323931 	eorscc	r3, r2, r1, lsr r9
     ecc:	3253432f 	subscc	r4, r3, #-1140850688	; 0xbc000000
     ed0:	584c3034 	stmdapl	ip, {r2, r4, r5, ip, sp}^
     ed4:	3273632f 	rsbscc	r6, r3, #-1140850688	; 0xbc000000
     ed8:	786c3034 	stmdavc	ip!, {r2, r4, r5, ip, sp}^
     edc:	7330322d 	teqvc	r0, #-805306366	; 0xd0000002
     ee0:	6c2f7270 	sfmvs	f7, 4, [pc], #-448	; d28 <__code_start__-0x72d8>
     ee4:	69706269 	ldmdbvs	r0!, {r0, r3, r5, r6, r9, sp, lr}^
     ee8:	636e692f 	cmnvs	lr, #770048	; 0xbc000
     eec:	6564756c 	strbvs	r7, [r4, #-1388]!	; 0x56c
     ef0:	65720000 	ldrbvs	r0, [r2, #-0]!
     ef4:	746f6f62 	strbtvc	r6, [pc], #-3938	; efc <__code_start__-0x7104>
     ef8:	0100632e 	tsteq	r0, lr, lsr #6
     efc:	70720000 	rsbsvc	r0, r2, r0
     f00:	00682e69 	rsbeq	r2, r8, r9, ror #28
     f04:	00000002 	andeq	r0, r0, r2
     f08:	60020500 	andvs	r0, r2, r0, lsl #10
     f0c:	03000095 	movweq	r0, #149	; 0x95
     f10:	3114010d 	tstcc	r4, sp, lsl #2
     f14:	2f15852f 	svccs	0x0015852f
     f18:	672f4d4b 	strvs	r4, [pc, -fp, asr #26]!
     f1c:	02675235 	rsbeq	r5, r7, #1342177283	; 0x50000003
     f20:	01010010 	tsteq	r1, r0, lsl r0
     f24:	000000ae 	andeq	r0, r0, lr, lsr #1
     f28:	007f0002 	rsbseq	r0, pc, r2
     f2c:	01020000 	mrseq	r0, (UNDEF: 2)
     f30:	000d0efb 	strdeq	r0, [sp], -fp
     f34:	01010101 	tsteq	r1, r1, lsl #2
     f38:	01000000 	mrseq	r0, (UNDEF: 0)
     f3c:	73010000 	movwvc	r0, #4096	; 0x1000
     f40:	66666174 			; <UNDEFINED> instruction: 0x66666174
     f44:	6372732d 	cmnvs	r2, #-1275068416	; 0xb4000000
     f48:	73552f00 	cmpvc	r5, #0, 30
     f4c:	2f737265 	svccs	0x00737265
     f50:	61697262 	cmnvs	r9, r2, ror #4
     f54:	6e756a6e 	vsubvs.f32	s13, s10, s29
     f58:	7365442f 	cmnvc	r5, #788529152	; 0x2f000000
     f5c:	706f746b 	rsbvc	r7, pc, fp, ror #8
     f60:	6863732f 	stmdavs	r3!, {r0, r1, r2, r3, r5, r8, r9, ip, sp, lr}^
     f64:	2f6c6f6f 	svccs	0x006c6f6f
     f68:	69727053 	ldmdbvs	r2!, {r0, r1, r4, r6, ip, sp, lr}^
     f6c:	3931676e 	ldmdbcc	r1!, {r1, r2, r3, r5, r6, r8, r9, sl, sp, lr}
     f70:	432f3032 	teqmi	pc, #50	; 0x32
     f74:	30343253 	eorscc	r3, r4, r3, asr r2
     f78:	632f584c 	teqvs	pc, #76, 16	; 0x4c0000
     f7c:	30343273 	eorscc	r3, r4, r3, ror r2
     f80:	322d786c 	eorcc	r7, sp, #108, 16	; 0x6c0000
     f84:	72707330 	rsbsvc	r7, r0, #48, 6	; 0xc0000000
     f88:	62696c2f 	rsbvs	r6, r9, #12032	; 0x2f00
     f8c:	692f6970 	stmdbvs	pc!, {r4, r5, r6, r8, fp, sp, lr}	; <UNPREDICTABLE>
     f90:	756c636e 	strbvc	r6, [ip, #-878]!	; 0x36e
     f94:	00006564 	andeq	r6, r0, r4, ror #10
     f98:	656d6974 	strbvs	r6, [sp, #-2420]!	; 0x974
     f9c:	00632e72 	rsbeq	r2, r3, r2, ror lr
     fa0:	72000001 	andvc	r0, r0, #1
     fa4:	682e6970 	stmdavs	lr!, {r4, r5, r6, r8, fp, sp, lr}
     fa8:	00000200 	andeq	r0, r0, r0, lsl #4
     fac:	02050000 	andeq	r0, r5, #0
     fb0:	000095d4 	ldrdeq	r9, [r0], -r4
     fb4:	2d2f1416 	cfstrscs	mvf1, [pc, #-88]!	; f64 <__code_start__-0x709c>
     fb8:	01040200 	mrseq	r0, R12_usr
     fbc:	6d062e06 	stcvs	14, cr2, [r6, #-24]	; 0xffffffe8
     fc0:	4d4b2f31 	stclmi	15, cr2, [fp, #-196]	; 0xffffff3c
     fc4:	304b2f31 	subcc	r2, fp, r1, lsr pc
     fc8:	2f4c4b4c 	svccs	0x004c4b4c
     fcc:	842f2f6a 	strthi	r2, [pc], #-3946	; fd4 <__code_start__-0x702c>
     fd0:	0008022f 	andeq	r0, r8, pc, lsr #4
     fd4:	01480101 	cmpeq	r8, r1, lsl #2
     fd8:	00020000 	andeq	r0, r2, r0
     fdc:	00000102 	andeq	r0, r0, r2, lsl #2
     fe0:	0efb0102 	cdpeq	1, 15, cr0, cr11, cr2, {0}
     fe4:	0101000d 	tsteq	r1, sp
     fe8:	00000101 	andeq	r0, r0, r1, lsl #2
     fec:	00000100 	andeq	r0, r0, r0, lsl #2
     ff0:	73752f01 	cmnvc	r5, #1, 30
     ff4:	6e692f72 	mcrvs	15, 3, r2, cr9, cr2, {3}
     ff8:	64756c63 	ldrbtvs	r6, [r5], #-3171	; 0xc63
     ffc:	656e2f65 	strbvs	r2, [lr, #-3941]!	; 0xf65
    1000:	62696c77 	rsbvs	r6, r9, #30464	; 0x7700
    1004:	7379732f 	cmnvc	r9, #-1140850688	; 0xbc000000
    1008:	73752f00 	cmnvc	r5, #0, 30
    100c:	696c2f72 	stmdbvs	ip!, {r1, r4, r5, r6, r8, r9, sl, fp, sp}^
    1010:	63672f62 	cmnvs	r7, #392	; 0x188
    1014:	72612f63 	rsbvc	r2, r1, #396	; 0x18c
    1018:	6f6e2d6d 	svcvs	0x006e2d6d
    101c:	652d656e 	strvs	r6, [sp, #-1390]!	; 0x56e
    1020:	2f696261 	svccs	0x00696261
    1024:	2e332e36 	mrccs	14, 1, r2, cr3, cr6, {1}
    1028:	6e692f31 	mcrvs	15, 3, r2, cr9, cr1, {1}
    102c:	64756c63 	ldrbtvs	r6, [r5], #-3171	; 0xc63
    1030:	682f0065 	stmdavs	pc!, {r0, r2, r5, r6}	; <UNPREDICTABLE>
    1034:	2f656d6f 	svccs	0x00656d6f
    1038:	6c676e65 	stclvs	14, cr6, [r7], #-404	; 0xfffffe6c
    103c:	632f7265 	teqvs	pc, #1342177286	; 0x50000006
    1040:	7373616c 	cmnvc	r3, #108, 2
    1044:	3273632f 	rsbscc	r6, r3, #-1140850688	; 0xbc000000
    1048:	786c3034 	stmdavc	ip!, {r2, r4, r5, ip, sp}^
    104c:	7330322d 	teqvc	r0, #-805306366	; 0xd0000002
    1050:	2f2f7270 	svccs	0x002f7270
    1054:	7062696c 	rsbvc	r6, r2, ip, ror #18
    1058:	682f0069 	stmdavs	pc!, {r0, r3, r5, r6}	; <UNPREDICTABLE>
    105c:	2f656d6f 	svccs	0x00656d6f
    1060:	6c676e65 	stclvs	14, cr6, [r7], #-404	; 0xfffffe6c
    1064:	632f7265 	teqvs	pc, #1342177286	; 0x50000006
    1068:	7373616c 	cmnvc	r3, #108, 2
    106c:	3273632f 	rsbscc	r6, r3, #-1140850688	; 0xbc000000
    1070:	786c3034 	stmdavc	ip!, {r2, r4, r5, ip, sp}^
    1074:	7330322d 	teqvc	r0, #-805306366	; 0xd0000002
    1078:	2f2f7270 	svccs	0x002f7270
    107c:	7062696c 	rsbvc	r6, r2, ip, ror #18
    1080:	74732f69 	ldrbtvc	r2, [r3], #-3945	; 0xf69
    1084:	2d666661 	stclcs	6, cr6, [r6, #-388]!	; 0xfffffe7c
    1088:	00637273 	rsbeq	r7, r3, r3, ror r2
    108c:	72617500 	rsbvc	r7, r1, #0, 10
    1090:	00632e74 	rsbeq	r2, r3, r4, ror lr
    1094:	6c000000 	stcvs	0, cr0, [r0], {-0}
    1098:	2e6b636f 	cdpcs	3, 6, cr6, cr11, cr15, {3}
    109c:	00010068 	andeq	r0, r1, r8, rrx
    10a0:	79745f00 	ldmdbvc	r4!, {r8, r9, sl, fp, ip, lr}^
    10a4:	2e736570 	mrccs	5, 3, r6, cr3, cr0, {3}
    10a8:	00010068 	andeq	r0, r1, r8, rrx
    10ac:	64747300 	ldrbtvs	r7, [r4], #-768	; 0x300
    10b0:	2e666564 	cdpcs	5, 6, cr6, cr6, cr4, {3}
    10b4:	00020068 	andeq	r0, r2, r8, rrx
    10b8:	65657200 	strbvs	r7, [r5, #-512]!	; 0x200
    10bc:	682e746e 	stmdavs	lr!, {r1, r2, r3, r5, r6, sl, ip, sp, lr}
    10c0:	00000100 	andeq	r0, r0, r0, lsl #2
    10c4:	2e697072 	mcrcs	0, 3, r7, cr9, cr2, {3}
    10c8:	00030068 	andeq	r0, r3, r8, rrx
    10cc:	72617500 	rsbvc	r7, r1, #0, 10
    10d0:	00682e74 	rsbeq	r2, r8, r4, ror lr
    10d4:	67000004 	strvs	r0, [r0, -r4]
    10d8:	2e6f6970 	mcrcs	9, 3, r6, cr15, cr0, {3}
    10dc:	00040068 	andeq	r0, r4, r8, rrx
    10e0:	05000000 	streq	r0, [r0, #-0]
    10e4:	0096d002 	addseq	sp, r6, r2
    10e8:	012c0300 	teqeq	ip, r0, lsl #6
    10ec:	9e0c0367 	cdpls	3, 0, cr0, cr12, cr7, {3}
    10f0:	35686735 	strbcc	r6, [r8, #-1845]!	; 0x735
    10f4:	2e0c0368 	cdpcs	3, 0, cr0, cr12, cr8, {3}
    10f8:	69696b85 	stmdbvs	r9!, {r0, r2, r7, r8, r9, fp, sp, lr}^
    10fc:	6b660c03 	blvs	1984110 <__bss_end__+0x1979bb8>
    1100:	34420867 	strbcc	r0, [r2], #-2151	; 0x867
    1104:	68364b68 	ldmdavs	r6!, {r3, r5, r6, r8, r9, fp, lr}
    1108:	02002f87 	andeq	r2, r0, #540	; 0x21c
    110c:	682f0104 	stmdavs	pc!, {r2, r8}	; <UNPREDICTABLE>
    1110:	4b673067 	blmi	19cd2b4 <__bss_end__+0x19c2d5c>
    1114:	01040200 	mrseq	r0, R12_usr
    1118:	6967682f 	stmdbvs	r7!, {r0, r1, r2, r3, r5, fp, sp, lr}^
    111c:	0006022e 	andeq	r0, r6, lr, lsr #4
    1120:	012b0101 	teqeq	fp, r1, lsl #2
    1124:	00020000 	andeq	r0, r2, r0
    1128:	000000f8 	strdeq	r0, [r0], -r8
    112c:	0efb0102 	cdpeq	1, 15, cr0, cr11, cr2, {0}
    1130:	0101000d 	tsteq	r1, sp
    1134:	00000101 	andeq	r0, r0, r1, lsl #2
    1138:	00000100 	andeq	r0, r0, r0, lsl #2
    113c:	73752f01 	cmnvc	r5, #1, 30
    1140:	6e692f72 	mcrvs	15, 3, r2, cr9, cr2, {3}
    1144:	64756c63 	ldrbtvs	r6, [r5], #-3171	; 0xc63
    1148:	656e2f65 	strbvs	r2, [lr, #-3941]!	; 0xf65
    114c:	62696c77 	rsbvs	r6, r9, #30464	; 0x7700
    1150:	7379732f 	cmnvc	r9, #-1140850688	; 0xbc000000
    1154:	73752f00 	cmnvc	r5, #0, 30
    1158:	696c2f72 	stmdbvs	ip!, {r1, r4, r5, r6, r8, r9, sl, fp, sp}^
    115c:	63672f62 	cmnvs	r7, #392	; 0x188
    1160:	72612f63 	rsbvc	r2, r1, #396	; 0x18c
    1164:	6f6e2d6d 	svcvs	0x006e2d6d
    1168:	652d656e 	strvs	r6, [sp, #-1390]!	; 0x56e
    116c:	2f696261 	svccs	0x00696261
    1170:	2e332e36 	mrccs	14, 1, r2, cr3, cr6, {1}
    1174:	6e692f31 	mcrvs	15, 3, r2, cr9, cr1, {1}
    1178:	64756c63 	ldrbtvs	r6, [r5], #-3171	; 0xc63
    117c:	682f0065 	stmdavs	pc!, {r0, r2, r5, r6}	; <UNPREDICTABLE>
    1180:	2f656d6f 	svccs	0x00656d6f
    1184:	6c676e65 	stclvs	14, cr6, [r7], #-404	; 0xfffffe6c
    1188:	632f7265 	teqvs	pc, #1342177286	; 0x50000006
    118c:	7373616c 	cmnvc	r3, #108, 2
    1190:	3273632f 	rsbscc	r6, r3, #-1140850688	; 0xbc000000
    1194:	786c3034 	stmdavc	ip!, {r2, r4, r5, ip, sp}^
    1198:	7330322d 	teqvc	r0, #-805306366	; 0xd0000002
    119c:	2f2f7270 	svccs	0x002f7270
    11a0:	7062696c 	rsbvc	r6, r2, ip, ror #18
    11a4:	682f0069 	stmdavs	pc!, {r0, r3, r5, r6}	; <UNPREDICTABLE>
    11a8:	2f656d6f 	svccs	0x00656d6f
    11ac:	6c676e65 	stclvs	14, cr6, [r7], #-404	; 0xfffffe6c
    11b0:	632f7265 	teqvs	pc, #1342177286	; 0x50000006
    11b4:	7373616c 	cmnvc	r3, #108, 2
    11b8:	3273632f 	rsbscc	r6, r3, #-1140850688	; 0xbc000000
    11bc:	786c3034 	stmdavc	ip!, {r2, r4, r5, ip, sp}^
    11c0:	7330322d 	teqvc	r0, #-805306366	; 0xd0000002
    11c4:	2f2f7270 	svccs	0x002f7270
    11c8:	7062696c 	rsbvc	r6, r2, ip, ror #18
    11cc:	74732f69 	ldrbtvc	r2, [r3], #-3945	; 0xf69
    11d0:	2d666661 	stclcs	6, cr6, [r6, #-388]!	; 0xfffffe7c
    11d4:	00637273 	rsbeq	r7, r3, r3, ror r2
    11d8:	69706700 	ldmdbvs	r0!, {r8, r9, sl, sp, lr}^
    11dc:	00632e6f 	rsbeq	r2, r3, pc, ror #28
    11e0:	6c000000 	stcvs	0, cr0, [r0], {-0}
    11e4:	2e6b636f 	cdpcs	3, 6, cr6, cr11, cr15, {3}
    11e8:	00010068 	andeq	r0, r1, r8, rrx
    11ec:	79745f00 	ldmdbvc	r4!, {r8, r9, sl, fp, ip, lr}^
    11f0:	2e736570 	mrccs	5, 3, r6, cr3, cr0, {3}
    11f4:	00010068 	andeq	r0, r1, r8, rrx
    11f8:	64747300 	ldrbtvs	r7, [r4], #-768	; 0x300
    11fc:	2e666564 	cdpcs	5, 6, cr6, cr6, cr4, {3}
    1200:	00020068 	andeq	r0, r2, r8, rrx
    1204:	65657200 	strbvs	r7, [r5, #-512]!	; 0x200
    1208:	682e746e 	stmdavs	lr!, {r1, r2, r3, r5, r6, sl, ip, sp, lr}
    120c:	00000100 	andeq	r0, r0, r0, lsl #2
    1210:	2e697072 	mcrcs	0, 3, r7, cr9, cr2, {3}
    1214:	00030068 	andeq	r0, r3, r8, rrx
    1218:	69706700 	ldmdbvs	r0!, {r8, r9, sl, sp, lr}^
    121c:	00682e6f 	rsbeq	r2, r8, pc, ror #28
    1220:	00000004 	andeq	r0, r0, r4
    1224:	48020500 	stmdami	r2, {r8, sl}
    1228:	03000098 	movweq	r0, #152	; 0x98
    122c:	4c130127 	ldfmis	f0, [r3], {39}	; 0x27
    1230:	68f44f47 	ldmvs	r4!, {r0, r1, r2, r6, r8, r9, sl, fp, lr}^
    1234:	2fa14c4b 	svccs	0x00a14c4b
    1238:	3149136a 	cmpcc	r9, sl, ror #6
    123c:	314913be 	strhcc	r1, [r9, #-62]	; 0xffffffc2
    1240:	2f6a2fbe 	svccs	0x006a2fbe
    1244:	134f484d 	movtne	r4, #63565	; 0xf84d
    1248:	b72f3249 	strlt	r3, [pc, -r9, asr #4]!
    124c:	01000602 	tsteq	r0, r2, lsl #12
    1250:	Address 0x0000000000001250 is out of bounds.


Disassembly of section .debug_str:

00000000 <.debug_str>:
   0:	5f746e63 	svcpl	0x00746e63
   4:	74696e69 	strbtvc	r6, [r9], #-3689	; 0xe69
   8:	72746e00 	rsbsvc	r6, r4, #0, 28
   c:	736c6169 	cmnvc	ip, #1073741850	; 0x4000001a
  10:	65686300 	strbvs	r6, [r8, #-768]!	; 0x300
  14:	72656b63 	rsbvc	r6, r5, #101376	; 0x18c00
  18:	2f00745f 	svccs	0x0000745f
  1c:	72657355 	rsbvc	r7, r5, #1409286145	; 0x54000001
  20:	72622f73 	rsbvc	r2, r2, #460	; 0x1cc
  24:	6a6e6169 	bvs	1b985d0 <__bss_end__+0x1b8e078>
  28:	442f6e75 	strtmi	r6, [pc], #-3701	; 30 <__code_start__-0x7fd0>
  2c:	746b7365 	strbtvc	r7, [fp], #-869	; 0x365
  30:	732f706f 	teqvc	pc, #111	; 0x6f
  34:	6f6f6863 	svcvs	0x006f6863
  38:	70532f6c 	subsvc	r2, r3, ip, ror #30
  3c:	676e6972 			; <UNDEFINED> instruction: 0x676e6972
  40:	30323931 	eorscc	r3, r2, r1, lsr r9
  44:	3253432f 	subscc	r4, r3, #-1140850688	; 0xbc000000
  48:	584c3034 	stmdapl	ip, {r2, r4, r5, ip, sp}^
  4c:	3273632f 	rsbscc	r6, r3, #-1140850688	; 0xbc000000
  50:	786c3034 	stmdavc	ip!, {r2, r4, r5, ip, sp}^
  54:	7330322d 	teqvc	r0, #-805306366	; 0xd0000002
  58:	6c2f7270 	sfmvs	f7, 4, [pc], #-448	; fffffea0 <__bss_end__+0xffff5948>
  5c:	2f736261 	svccs	0x00736261
  60:	732d3631 	teqvc	sp, #51380224	; 0x3100000
  64:	6c676e69 	stclvs	14, cr6, [r7], #-420	; 0xfffffe5c
  68:	74732d65 	ldrbtvc	r2, [r3], #-3429	; 0xd65
  6c:	632f7065 	teqvs	pc, #101	; 0x65
  70:	0065646f 	rsbeq	r6, r5, pc, ror #8
  74:	6d746f6e 	ldclvs	15, cr6, [r4, #-440]!	; 0xfffffe48
  78:	006e6961 	rsbeq	r6, lr, r1, ror #18
  7c:	5f746e63 	svcpl	0x00746e63
  80:	6e630041 	cdpvs	0, 6, cr0, cr3, cr1, {2}
  84:	00425f74 	subeq	r5, r2, r4, ror pc
  88:	7272656e 	rsbsvc	r6, r2, #461373440	; 0x1b800000
  8c:	0073726f 	rsbseq	r7, r3, pc, ror #4
  90:	74697773 	strbtvc	r7, [r9], #-1907	; 0x773
  94:	6f5f6863 	svcvs	0x005f6863
  98:	6e695f6e 	cdpvs	15, 6, cr5, cr9, cr14, {3}
  9c:	6e5f7473 	mrcvs	4, 2, r7, cr15, cr3, {3}
  a0:	736e7500 	cmnvc	lr, #0, 10
  a4:	656e6769 	strbvs	r6, [lr, #-1897]!	; 0x769
  a8:	68632064 	stmdavs	r3!, {r2, r5, r6, sp}^
  ac:	63007261 	movwvs	r7, #609	; 0x261
  b0:	6e61656c 	cdpvs	5, 6, cr6, cr1, cr12, {3}
  b4:	6265725f 	rsbvs	r7, r5, #-268435451	; 0xf0000005
  b8:	00746f6f 	rsbseq	r6, r4, pc, ror #30
  bc:	74736e69 	ldrbtvc	r6, [r3], #-3689	; 0xe69
  c0:	756f635f 	strbvc	r6, [pc, #-863]!	; fffffd69 <__bss_end__+0xffff5811>
  c4:	7300746e 	movwvc	r7, #1134	; 0x46e
  c8:	74726f68 	ldrbtvc	r6, [r2], #-3944	; 0xf68
  cc:	736e7520 	cmnvc	lr, #32, 10	; 0x8000000
  d0:	656e6769 	strbvs	r6, [lr, #-1897]!	; 0x769
  d4:	6e692064 	cdpvs	0, 6, cr2, cr9, cr4, {3}
  d8:	72620074 	rsbvc	r0, r2, #116	; 0x74
  dc:	65765f6b 	ldrbvs	r5, [r6, #-3947]!	; 0xf6b
  e0:	736f6272 	cmnvc	pc, #536870919	; 0x20000007
  e4:	00705f65 	rsbseq	r5, r0, r5, ror #30
  e8:	726f6873 	rsbvc	r6, pc, #7536640	; 0x730000
  ec:	6e692074 	mcrvs	0, 3, r2, cr9, cr4, {3}
  f0:	5f5f0074 	svcpl	0x005f0074
  f4:	434e5546 	movtmi	r5, #58694	; 0xe546
  f8:	4e4f4954 	mcrmi	9, 2, r4, cr15, cr4, {2}
  fc:	69005f5f 	stmdbvs	r0, {r0, r1, r2, r3, r4, r6, r8, r9, sl, fp, ip, lr}
 100:	7265746e 	rsbvc	r7, r5, #1845493760	; 0x6e000000
 104:	7661656c 	strbtvc	r6, [r1], -ip, ror #10
 108:	5f676e69 	svcpl	0x00676e69
 10c:	6e630070 	mcrvs	0, 3, r0, cr3, cr0, {3}
 110:	6b6d5f74 	blvs	1b57ee8 <__bss_end__+0x1b4d990>
 114:	6568635f 	strbvs	r6, [r8, #-863]!	; 0x35f
 118:	72656b63 	rsbvc	r6, r5, #101376	; 0x18c00
 11c:	554e4700 	strbpl	r4, [lr, #-1792]	; 0x700
 120:	34204320 	strtcc	r4, [r0], #-800	; 0x320
 124:	332e382e 	teqcc	lr, #3014656	; 0x2e0000
 128:	636d2d20 	cmnvs	sp, #32, 26	; 0x800
 12c:	613d7570 	teqvs	sp, r0, ror r5
 130:	31316d72 	teqcc	r1, r2, ror sp
 134:	7a6a3637 	bvc	1a8da18 <__bss_end__+0x1a834c0>
 138:	20732d66 	rsbscs	r2, r3, r6, ror #26
 13c:	75746d2d 	ldrbvc	r6, [r4, #-3373]!	; 0xd2d
 140:	613d656e 	teqvs	sp, lr, ror #10
 144:	31316d72 	teqcc	r1, r2, ror sp
 148:	7a6a3637 	bvc	1a8da2c <__bss_end__+0x1a834d4>
 14c:	20732d66 	rsbscs	r2, r3, r6, ror #26
 150:	6467672d 	strbtvs	r6, [r7], #-1837	; 0x72d
 154:	4f2d2062 	svcmi	0x002d2062
 158:	732d2067 	teqvc	sp, #103	; 0x67
 15c:	673d6474 			; <UNDEFINED> instruction: 0x673d6474
 160:	3939756e 	ldmdbcc	r9!, {r1, r2, r3, r5, r6, r8, sl, ip, sp, lr}
 164:	66662d20 	strbtvs	r2, [r6], -r0, lsr #26
 168:	73656572 	cmnvc	r5, #478150656	; 0x1c800000
 16c:	646e6174 	strbtvs	r6, [lr], #-372	; 0x174
 170:	20676e69 	rsbcs	r6, r7, r9, ror #28
 174:	6f6e662d 	svcvs	0x006e662d
 178:	706f742d 	rsbvc	r7, pc, sp, lsr #8
 17c:	6576656c 	ldrbvs	r6, [r6, #-1388]!	; 0x56c
 180:	65722d6c 	ldrbvs	r2, [r2, #-3436]!	; 0xd6c
 184:	6564726f 	strbvs	r7, [r4, #-623]!	; 0x26f
 188:	6f6c0072 	svcvs	0x006c0072
 18c:	6c20676e 	stcvs	7, cr6, [r0], #-440	; 0xfffffe48
 190:	20676e6f 	rsbcs	r6, r7, pc, ror #28
 194:	69736e75 	ldmdbvs	r3!, {r0, r2, r4, r5, r6, r9, sl, fp, sp, lr}^
 198:	64656e67 	strbtvs	r6, [r5], #-3687	; 0xe67
 19c:	746e6920 	strbtvc	r6, [lr], #-2336	; 0x920
 1a0:	77736e00 	ldrbvc	r6, [r3, -r0, lsl #28]!
 1a4:	68637469 	stmdavs	r3!, {r0, r3, r5, r6, sl, ip, sp, lr}^
 1a8:	73007365 	movwvc	r7, #869	; 0x365
 1ac:	74657a69 	strbtvc	r7, [r5], #-2665	; 0xa69
 1b0:	00657079 	rsbeq	r7, r5, r9, ror r0
 1b4:	676e6f6c 	strbvs	r6, [lr, -ip, ror #30]!
 1b8:	6e6f6c20 	cdpvs	12, 6, cr6, cr15, cr0, {1}
 1bc:	6e692067 	cdpvs	0, 6, cr2, cr9, cr7, {3}
 1c0:	77730074 			; <UNDEFINED> instruction: 0x77730074
 1c4:	68637469 	stmdavs	r3!, {r0, r3, r5, r6, sl, ip, sp, lr}^
 1c8:	705f6465 	subsvc	r6, pc, r5, ror #8
 1cc:	69777300 	ldmdbvs	r7!, {r8, r9, ip, sp, lr}^
 1d0:	5f686374 	svcpl	0x00686374
 1d4:	72646461 	rsbvc	r6, r4, #1627389952	; 0x61000000
 1d8:	73657400 	cmnvc	r5, #0, 8
 1dc:	312f7374 	teqcc	pc, r4, ror r3	; <UNPREDICTABLE>
 1e0:	61702d36 	cmnvs	r0, r6, lsr sp
 1e4:	2d327472 	cfldrscs	mvf7, [r2, #-456]!	; 0xfffffe38
 1e8:	74736574 	ldrbtvc	r6, [r3], #-1396	; 0x574
 1ec:	00632e34 	rsbeq	r2, r3, r4, lsr lr
 1f0:	62616e65 	rsbvs	r6, r1, #1616	; 0x650
 1f4:	635f656c 	cmpvs	pc, #108, 10	; 0x1b000000
 1f8:	65686361 	strbvs	r6, [r8, #-865]!	; 0x361
 1fc:	746e6300 	strbtvc	r6, [lr], #-768	; 0x300
 200:	6568635f 	strbvs	r6, [r8, #-863]!	; 0x35f
 204:	75006b63 	strvc	r6, [r0, #-2915]	; 0xb63
 208:	33746e69 	cmncc	r4, #1680	; 0x690
 20c:	00745f32 	rsbseq	r5, r4, r2, lsr pc
 210:	5f697072 	svcpl	0x00697072
 214:	65736572 	ldrbvs	r6, [r3, #-1394]!	; 0x572
 218:	75705f74 	ldrbvc	r5, [r0, #-3956]!	; 0xf74
 21c:	64006374 	strvs	r6, [r0], #-884	; 0x374
 220:	5f617461 	svcpl	0x00617461
 224:	726f6261 	rsbvc	r6, pc, #268435462	; 0x10000006
 228:	65765f74 	ldrbvs	r5, [r6, #-3956]!	; 0xf74
 22c:	726f7463 	rsbvc	r7, pc, #1660944384	; 0x63000000
 230:	65727000 	ldrbvs	r7, [r2, #-0]!
 234:	63746566 	cmnvs	r4, #427819008	; 0x19800000
 238:	62615f68 	rsbvs	r5, r1, #104, 30	; 0x1a0
 23c:	5f74726f 	svcpl	0x0074726f
 240:	74636576 	strbtvc	r6, [r3], #-1398	; 0x576
 244:	7700726f 	strvc	r7, [r0, -pc, ror #4]
 248:	645f7361 	ldrbvs	r7, [pc], #-865	; 250 <__code_start__-0x7db0>
 24c:	67756265 	ldrbvs	r6, [r5, -r5, ror #4]!
 250:	7461645f 	strbtvc	r6, [r1], #-1119	; 0x45f
 254:	75616661 	strbvc	r6, [r1, #-1633]!	; 0x661
 258:	6300746c 	movwvs	r7, #1132	; 0x46c
 25c:	2d343170 	ldfcss	f3, [r4, #-448]!	; 0xfffffe40
 260:	75626564 	strbvc	r6, [r2, #-1380]!	; 0x564
 264:	00632e67 	rsbeq	r2, r3, r7, ror #28
 268:	5f736177 	svcpl	0x00736177
 26c:	75626564 	strbvc	r6, [r2, #-1380]!	; 0x564
 270:	6e695f67 	cdpvs	15, 6, cr5, cr9, cr7, {3}
 274:	61667473 	smcvs	26435	; 0x6743
 278:	00746c75 	rsbseq	r6, r4, r5, ror ip
 27c:	72637364 	rsbvc	r7, r3, #100, 6	; 0x90000001
 280:	7465735f 	strbtvc	r7, [r5], #-863	; 0x35f
 284:	72637700 	rsbvc	r7, r3, #0, 14
 288:	65725f30 	ldrbvs	r5, [r2, #-3888]!	; 0xf30
 28c:	63770067 	cmnvs	r7, #103	; 0x67
 290:	675f3072 			; <UNDEFINED> instruction: 0x675f3072
 294:	69007465 	stmdbvs	r0, {r0, r2, r5, r6, sl, ip, sp, lr}
 298:	5f74696e 	svcpl	0x0074696e
 29c:	72620070 	rsbvc	r0, r2, #112	; 0x70
 2a0:	5f74706b 	svcpl	0x0074706b
 2a4:	646e6168 	strbtvs	r6, [lr], #-360	; 0x168
 2a8:	3072656c 	rsbscc	r6, r2, ip, ror #10
 2ac:	31706300 	cmncc	r0, r0, lsl #6
 2b0:	63625f34 	cmnvs	r2, #52, 30	; 0xd0
 2b4:	735f3072 	cmpvc	pc, #114	; 0x72
 2b8:	77007465 	strvc	r7, [r0, -r5, ror #8]
 2bc:	5f307276 	svcpl	0x00307276
 2c0:	006c6176 	rsbeq	r6, ip, r6, ror r1
 2c4:	63746177 	cmnvs	r4, #-1073741795	; 0xc000001d
 2c8:	5f747068 	svcpl	0x00747068
 2cc:	30746573 	rsbscc	r6, r4, r3, ror r5
 2d0:	72767700 	rsbsvc	r7, r6, #0, 14
 2d4:	65735f30 	ldrbvs	r5, [r3, #-3888]!	; 0xf30
 2d8:	72620074 	rsbvc	r0, r2, #116	; 0x74
 2dc:	6f6e5f6b 	svcvs	0x006e5f6b
 2e0:	7465725f 	strbtvc	r7, [r5], #-607	; 0x25f
 2e4:	7272655f 	rsbsvc	r6, r2, #398458880	; 0x17c00000
 2e8:	6300726f 	movwvs	r7, #623	; 0x26f
 2ec:	5f343170 	svcpl	0x00343170
 2f0:	30726362 	rsbscc	r6, r2, r2, ror #6
 2f4:	7465675f 	strbtvc	r6, [r5], #-1887	; 0x75f
 2f8:	6b726200 	blvs	1c98b00 <__bss_end__+0x1c8e5a8>
 2fc:	6d5f7470 	cfldrdvs	mvd7, [pc, #-448]	; 144 <__code_start__-0x7ebc>
 300:	616d7369 	cmnvs	sp, r9, ror #6
 304:	5f686374 	svcpl	0x00686374
 308:	30746573 	rsbscc	r6, r4, r3, ror r5
 30c:	73666400 	cmnvc	r6, #0, 8
 310:	61765f72 	cmnvs	r6, r2, ror pc
 314:	6669006c 	strbtvs	r0, [r9], -ip, rrx
 318:	675f7261 	ldrbvs	r7, [pc, -r1, ror #4]
 31c:	69007465 	stmdbvs	r0, {r0, r2, r5, r6, sl, ip, sp, lr}
 320:	5f727366 	svcpl	0x00727366
 324:	00746567 	rsbseq	r6, r4, r7, ror #10
 328:	63746177 	cmnvs	r4, #-1073741795	; 0xc000001d
 32c:	5f747068 	svcpl	0x00747068
 330:	646e6168 	strbtvs	r6, [lr], #-360	; 0x168
 334:	3072656c 	rsbscc	r6, r2, ip, ror #10
 338:	6b726200 	blvs	1c98b40 <__bss_end__+0x1c8e5e8>
 33c:	6d5f7470 	cfldrdvs	mvd7, [pc, #-448]	; 184 <__code_start__-0x7e7c>
 340:	616d7369 	cmnvs	sp, r9, ror #6
 344:	5f686374 	svcpl	0x00686374
 348:	61736964 	cmnvs	r3, r4, ror #18
 34c:	30656c62 	rsbcc	r6, r5, r2, ror #24
 350:	74616400 	strbtvc	r6, [r1], #-1024	; 0x400
 354:	75616661 	strbvc	r6, [r1, #-1633]!	; 0x661
 358:	665f746c 	ldrbvs	r7, [pc], -ip, ror #8
 35c:	5f6d6f72 	svcpl	0x006d6f72
 360:	6300646c 	movwvs	r6, #1132	; 0x46c
 364:	5f343170 	svcpl	0x00343170
 368:	30727662 	rsbscc	r7, r2, r2, ror #12
 36c:	7465735f 	strbtvc	r7, [r5], #-863	; 0x35f
 370:	73617700 	cmnvc	r1, #0, 14
 374:	6265645f 	rsbvs	r6, r5, #1593835520	; 0x5f000000
 378:	61666775 	smcvs	26229	; 0x6675
 37c:	5f746c75 	svcpl	0x00746c75
 380:	70630072 	rsbvc	r0, r3, r2, ror r0
 384:	655f3431 	ldrbvs	r3, [pc, #-1073]	; ffffff5b <__bss_end__+0xffff5a03>
 388:	6c62616e 	stfvse	f6, [r2], #-440	; 0xfffffe48
 38c:	666e0065 	strbtvs	r0, [lr], -r5, rrx
 390:	746c7561 	strbtvc	r7, [ip], #-1377	; 0x561
 394:	76620073 			; <UNDEFINED> instruction: 0x76620073
 398:	765f3072 			; <UNDEFINED> instruction: 0x765f3072
 39c:	64006c61 	strvs	r6, [r0], #-3169	; 0xc61
 3a0:	5f727366 	svcpl	0x00727366
 3a4:	00746567 	rsbseq	r6, r4, r7, ror #10
 3a8:	63737973 	cmnvs	r3, #1884160	; 0x1cc000
 3ac:	5f6c6c61 	svcpl	0x006c6c61
 3b0:	74636576 	strbtvc	r6, [r3], #-1398	; 0x576
 3b4:	7000726f 	andvc	r7, r0, pc, ror #4
 3b8:	65666572 	strbvs	r6, [r6, #-1394]!	; 0x572
 3bc:	5f686374 	svcpl	0x00686374
 3c0:	73756c66 	cmnvc	r5, #26112	; 0x6600
 3c4:	65735f68 	ldrbvs	r5, [r3, #-3944]!	; 0xf68
 3c8:	63620074 	cmnvs	r2, #116	; 0x74
 3cc:	725f3072 	subsvc	r3, pc, #114	; 0x72
 3d0:	68006765 	stmdavs	r0, {r0, r2, r5, r6, r8, r9, sl, sp, lr}
 3d4:	6c646e61 	stclvs	14, cr6, [r4], #-388	; 0xfffffe7c
 3d8:	745f7265 	ldrbvc	r7, [pc], #-613	; 3e0 <__code_start__-0x7c20>
 3dc:	61667700 	cmnvs	r6, r0, lsl #14
 3e0:	65675f72 	strbvs	r5, [r7, #-3954]!	; 0xf72
 3e4:	79730074 	ldmdbvc	r3!, {r2, r4, r5, r6}^
 3e8:	756e5f73 	strbvc	r5, [lr, #-3955]!	; 0xf73
 3ec:	7262006d 	rsbvc	r0, r2, #109	; 0x6d
 3f0:	5f74706b 	svcpl	0x0074706b
 3f4:	30746573 	rsbscc	r6, r4, r3, ror r5
 3f8:	72637700 	rsbvc	r7, r3, #0, 14
 3fc:	65735f30 	ldrbvs	r5, [r3, #-3888]!	; 0xf30
 400:	6e690074 	mcrvs	0, 3, r0, cr9, cr4, {3}
 404:	6e695f74 	mcrvs	15, 3, r5, cr9, cr4, {3}
 408:	73007469 	movwvc	r7, #1129	; 0x469
 40c:	6c676e69 	stclvs	14, cr6, [r7], #-420	; 0xfffffe5c
 410:	74735f65 	ldrbtvc	r5, [r3], #-3941	; 0xf65
 414:	685f7065 	ldmdavs	pc, {r0, r2, r5, r6, ip, sp, lr}^	; <UNPREDICTABLE>
 418:	6c646e61 	stclvs	14, cr6, [r4], #-388	; 0xfffffe7c
 41c:	63007265 	movwvs	r7, #613	; 0x265
 420:	6b636568 	blvs	18d99c8 <__bss_end__+0x18cf470>
 424:	72657a5f 	rsbvc	r7, r5, #389120	; 0x5f000
 428:	6863006f 	stmdavs	r3!, {r0, r1, r2, r3, r5, r6}^
 42c:	2d6b6365 	stclcs	3, cr6, [fp, #-404]!	; 0xfffffe6c
 430:	65746e69 	ldrbvs	r6, [r4, #-3689]!	; 0xe69
 434:	61656c72 	smcvs	22210	; 0x56c2
 438:	632e6576 	teqvs	lr, #494927872	; 0x1d800000
 43c:	65737500 	ldrbvs	r7, [r3, #-1280]!	; 0x500
 440:	72745f72 	rsbsvc	r5, r4, #456	; 0x1c8
 444:	6f706d61 	svcvs	0x00706d61
 448:	656e696c 	strbvs	r6, [lr, #-2412]!	; 0x96c
 44c:	7465725f 	strbtvc	r7, [r5], #-607	; 0x25f
 450:	73706300 	cmnvc	r0, #0, 6
 454:	65675f72 	strbvs	r5, [r7, #-3954]!	; 0xf72
 458:	78650074 	stmdavc	r5!, {r2, r4, r5, r6}^
 45c:	74636570 	strbtvc	r6, [r3], #-1392	; 0x570
 460:	685f6465 	ldmdavs	pc, {r0, r2, r5, r6, sl, sp, lr}^	; <UNPREDICTABLE>
 464:	6c646e61 	stclvs	14, cr6, [r4], #-388	; 0xfffffe7c
 468:	616d0065 	cmnvs	sp, r5, rrx
 46c:	62006b73 	andvs	r6, r0, #117760	; 0x1cc00
 470:	5f737469 	svcpl	0x00737469
 474:	00726c63 	rsbseq	r6, r2, r3, ror #24
 478:	63656863 	cmnvs	r5, #6488064	; 0x630000
 47c:	6e6f5f6b 	cdpvs	15, 6, cr5, cr15, cr11, {3}
 480:	73635f65 	cmnvc	r3, #404	; 0x194
 484:	63746977 	cmnvs	r4, #1949696	; 0x1dc000
 488:	6f6d0068 	svcvs	0x006d0068
 48c:	735f6564 	cmpvc	pc, #100, 10	; 0x19000000
 490:	6d007274 	sfmvs	f7, 4, [r0, #-464]	; 0xfffffe30
 494:	5f65646f 	svcpl	0x0065646f
 498:	00746573 	rsbseq	r6, r4, r3, ror r5
 49c:	63656863 	cmnvs	r5, #6488064	; 0x630000
 4a0:	65735f6b 	ldrbvs	r5, [r3, #-3947]!	; 0xf6b
 4a4:	6e657571 	mcrvs	5, 3, r7, cr5, cr1, {3}
 4a8:	6c616974 	stclvs	9, cr6, [r1], #-464	; 0xfffffe30
 4ac:	73706300 	cmnvc	r0, #0, 6
 4b0:	6c6f5f72 	stclvs	15, cr5, [pc], #-456	; 2f0 <__code_start__-0x7d10>
 4b4:	69620064 	stmdbvs	r2!, {r2, r5, r6}^
 4b8:	675f7374 			; <UNDEFINED> instruction: 0x675f7374
 4bc:	63007465 	movwvs	r7, #1125	; 0x465
 4c0:	5f727370 	svcpl	0x00727370
 4c4:	72657375 	rsbvc	r7, r5, #-738197503	; 0xd4000001
 4c8:	73706300 	cmnvc	r0, #0, 6
 4cc:	6f6d0072 	svcvs	0x006d0072
 4d0:	6c5f6564 	cfldr64vs	mvdx6, [pc], {100}	; 0x64
 4d4:	6c616765 	stclvs	7, cr6, [r1], #-404	; 0xfffffe6c
 4d8:	646f6d00 	strbtvs	r6, [pc], #-3328	; 4e0 <__code_start__-0x7b20>
 4dc:	65675f65 	strbvs	r5, [r7, #-3941]!	; 0xf65
 4e0:	65720074 	ldrbvs	r0, [r2, #-116]!	; 0x74
 4e4:	6d007367 	stcvs	3, cr7, [r0, #-412]	; 0xfffffe64
 4e8:	0065646f 	rsbeq	r6, r5, pc, ror #8
 4ec:	6e675f5f 	mcrvs	15, 3, r5, cr7, cr15, {2}
 4f0:	765f6375 			; <UNDEFINED> instruction: 0x765f6375
 4f4:	696c5f61 	stmdbvs	ip!, {r0, r5, r6, r8, r9, sl, fp, ip, lr}^
 4f8:	6c007473 	cfstrsvs	mvf7, [r0], {115}	; 0x73
 4fc:	2f636269 	svccs	0x00636269
 500:	6e697270 	mcrvs	2, 3, r7, cr9, cr0, {3}
 504:	632e6b74 	teqvs	lr, #116, 22	; 0x1d000
 508:	554e4700 	strbpl	r4, [lr, #-1792]	; 0x700
 50c:	34204320 	strtcc	r4, [r0], #-800	; 0x320
 510:	332e382e 	teqcc	lr, #3014656	; 0x2e0000
 514:	636d2d20 	cmnvs	sp, #32, 26	; 0x800
 518:	613d7570 	teqvs	sp, r0, ror r5
 51c:	31316d72 	teqcc	r1, r2, ror sp
 520:	7a6a3637 	bvc	1a8de04 <__bss_end__+0x1a838ac>
 524:	20732d66 	rsbscs	r2, r3, r6, ror #26
 528:	75746d2d 	ldrbvc	r6, [r4, #-3373]!	; 0xd2d
 52c:	613d656e 	teqvs	sp, lr, ror #10
 530:	31316d72 	teqcc	r1, r2, ror sp
 534:	7a6a3637 	bvc	1a8de18 <__bss_end__+0x1a838c0>
 538:	20732d66 	rsbscs	r2, r3, r6, ror #26
 53c:	6467672d 	strbtvs	r6, [r7], #-1837	; 0x72d
 540:	4f2d2062 	svcmi	0x002d2062
 544:	732d2067 	teqvc	sp, #103	; 0x67
 548:	673d6474 			; <UNDEFINED> instruction: 0x673d6474
 54c:	3939756e 	ldmdbcc	r9!, {r1, r2, r3, r5, r6, r8, sl, ip, sp, lr}
 550:	66662d20 	strbtvs	r2, [r6], -r0, lsr #26
 554:	73656572 	cmnvc	r5, #478150656	; 0x1c800000
 558:	646e6174 	strbtvs	r6, [lr], #-372	; 0x174
 55c:	00676e69 	rsbeq	r6, r7, r9, ror #28
 560:	705f6176 	subsvc	r6, pc, r6, ror r1	; <UNPREDICTABLE>
 564:	746e6972 	strbtvc	r6, [lr], #-2418	; 0x972
 568:	5f5f006b 	svcpl	0x005f006b
 56c:	6c5f6176 	ldfvse	f6, [pc], {118}	; 0x76
 570:	00747369 	rsbseq	r7, r4, r9, ror #6
 574:	6573552f 	ldrbvs	r5, [r3, #-1327]!	; 0x52f
 578:	622f7372 	eorvs	r7, pc, #-939524095	; 0xc8000001
 57c:	6e616972 	mcrvs	9, 3, r6, cr1, cr2, {3}
 580:	2f6e756a 	svccs	0x006e756a
 584:	6b736544 	blvs	1cd9a9c <__bss_end__+0x1ccf544>
 588:	2f706f74 	svccs	0x00706f74
 58c:	6f686373 	svcvs	0x00686373
 590:	532f6c6f 	teqpl	pc, #28416	; 0x6f00
 594:	6e697270 	mcrvs	2, 3, r7, cr9, cr0, {3}
 598:	32393167 	eorscc	r3, r9, #-1073741799	; 0xc0000019
 59c:	53432f30 	movtpl	r2, #16176	; 0x3f30
 5a0:	4c303432 	cfldrsmi	mvf3, [r0], #-200	; 0xffffff38
 5a4:	73632f58 	cmnvc	r3, #88, 30	; 0x160
 5a8:	6c303432 	cfldrsvs	mvf3, [r0], #-200	; 0xffffff38
 5ac:	30322d78 	eorscc	r2, r2, r8, ror sp
 5b0:	2f727073 	svccs	0x00727073
 5b4:	7062696c 	rsbvc	r6, r2, ip, ror #18
 5b8:	5f5f0069 	svcpl	0x005f0069
 5bc:	75007061 	strvc	r7, [r0, #-97]	; 0x61
 5c0:	5f747261 	svcpl	0x00747261
 5c4:	63747570 	cmnvs	r4, #112, 10	; 0x1c000000
 5c8:	746e6900 	strbtvc	r6, [lr], #-2304	; 0x900
 5cc:	616e7265 	cmnvs	lr, r5, ror #4
 5d0:	75705f6c 	ldrbvc	r5, [r0, #-3948]!	; 0xf6c
 5d4:	61686374 	smcvs	34356	; 0x8634
 5d8:	70720072 	rsbsvc	r0, r2, r2, ror r0
 5dc:	75705f69 	ldrbvc	r5, [r0, #-3945]!	; 0xf69
 5e0:	61686374 	smcvs	34356	; 0x8634
 5e4:	696c0072 	stmdbvs	ip!, {r1, r4, r5, r6}^
 5e8:	702f6362 	eorvc	r6, pc, r2, ror #6
 5ec:	68637475 	stmdavs	r3!, {r0, r2, r4, r5, r6, sl, ip, sp, lr}^
 5f0:	632e7261 	teqvs	lr, #268435462	; 0x10000006
 5f4:	69707200 	ldmdbvs	r0!, {r9, ip, sp, lr}^
 5f8:	7465735f 	strbtvc	r7, [r5], #-863	; 0x35f
 5fc:	7475705f 	ldrbtvc	r7, [r5], #-95	; 0x5f
 600:	696c0063 	stmdbvs	ip!, {r0, r1, r5, r6}^
 604:	702f6362 	eorvc	r6, pc, r2, ror #6
 608:	2e6b7475 	mcrcs	4, 3, r7, cr11, cr5, {3}
 60c:	6e690063 	cdpvs	0, 6, cr0, cr9, cr3, {3}
 610:	6e726574 	mrcvs	5, 3, r6, cr2, cr4, {3}
 614:	705f6c61 	subsvc	r6, pc, r1, ror #24
 618:	006b7475 	rsbeq	r7, fp, r5, ror r4
 61c:	5f746d66 	svcpl	0x00746d66
 620:	72617473 	rsbvc	r7, r1, #1929379840	; 0x73000000
 624:	656e0074 	strbvs	r0, [lr, #-116]!	; 0x74
 628:	00705f67 	rsbseq	r5, r0, r7, ror #30
 62c:	65766572 	ldrbvs	r6, [r6, #-1394]!	; 0x572
 630:	00657372 	rsbeq	r7, r5, r2, ror r3
 634:	69647369 	stmdbvs	r4!, {r0, r3, r5, r6, r8, r9, ip, sp, lr}^
 638:	00746967 	rsbseq	r6, r4, r7, ror #18
 63c:	73747570 	cmnvc	r4, #112, 10	; 0x1c000000
 640:	0070665f 	rsbseq	r6, r0, pc, asr r6
 644:	6e676973 	mcrvs	9, 3, r6, cr7, cr3, {3}
 648:	705f6465 	subsvc	r6, pc, r5, ror #8
 64c:	62696c00 	rsbvs	r6, r9, #0, 24
 650:	61762f63 	cmnvs	r6, r3, ror #30
 654:	6972702d 	ldmdbvs	r2!, {r0, r2, r3, r5, ip, sp, lr}^
 658:	2e6b746e 	cdpcs	4, 6, cr7, cr11, cr14, {3}
 65c:	70720063 	rsbsvc	r0, r2, r3, rrx
 660:	65735f69 	ldrbvs	r5, [r3, #-3945]!	; 0xf69
 664:	756f5f74 	strbvc	r5, [pc, #-3956]!	; fffff6f8 <__bss_end__+0xffff51a0>
 668:	74757074 	ldrbtvc	r7, [r5], #-116	; 0x74
 66c:	64697700 	strbtvs	r7, [r9], #-1792	; 0x700
 670:	70006874 	andvc	r6, r0, r4, ror r8
 674:	5f637475 	svcpl	0x00637475
 678:	65007066 	strvs	r7, [r0, #-102]	; 0x66
 67c:	0074696d 	rsbseq	r6, r4, sp, ror #18
 680:	61736964 	cmnvs	r3, r4, ror #18
 684:	5f656c62 	svcpl	0x00656c62
 688:	68636163 	stmdavs	r3!, {r0, r1, r5, r6, r8, sp, lr}^
 68c:	74730065 	ldrbtvc	r0, [r3], #-101	; 0x65
 690:	2d666661 	stclcs	6, cr6, [r6, #-388]!	; 0xfffffe7c
 694:	2f637273 	svccs	0x00637273
 698:	68636163 	stmdavs	r3!, {r0, r1, r5, r6, r8, sp, lr}^
 69c:	00632e65 	rsbeq	r2, r3, r5, ror #28
 6a0:	6f626572 	svcvs	0x00626572
 6a4:	685f746f 	ldmdavs	pc, {r0, r1, r2, r3, r5, r6, sl, ip, sp, lr}^	; <UNPREDICTABLE>
 6a8:	6c646e61 	stclvs	14, cr6, [r4], #-388	; 0xfffffe7c
 6ac:	73007265 	movwvc	r7, #613	; 0x265
 6b0:	66666174 			; <UNDEFINED> instruction: 0x66666174
 6b4:	6372732d 	cmnvs	r2, #-1275068416	; 0xb4000000
 6b8:	656c632f 	strbvs	r6, [ip, #-815]!	; 0x32f
 6bc:	722d6e61 	eorvc	r6, sp, #1552	; 0x610
 6c0:	6f6f6265 	svcvs	0x006f6265
 6c4:	00632e74 	rsbeq	r2, r3, r4, ror lr
 6c8:	5f697072 	svcpl	0x00697072
 6cc:	6f626572 	svcvs	0x00626572
 6d0:	6400746f 	strvs	r7, [r0], #-1135	; 0x46f
 6d4:	79616c65 	stmdbvc	r1!, {r0, r2, r5, r6, sl, fp, sp, lr}^
 6d8:	00736d5f 	rsbseq	r6, r3, pc, asr sp
 6dc:	73625f5f 	cmnvc	r2, #380	; 0x17c
 6e0:	74735f73 	ldrbtvc	r5, [r3], #-3955	; 0xf73
 6e4:	5f747261 	svcpl	0x00747261
 6e8:	5f5f005f 	svcpl	0x005f005f
 6ec:	5f737362 	svcpl	0x00737362
 6f0:	5f646e65 	svcpl	0x00646e65
 6f4:	7363005f 	cmnvc	r3, #95	; 0x5f
 6f8:	74726174 	ldrbtvc	r6, [r2], #-372	; 0x174
 6fc:	6e61685f 	mcrvs	8, 3, r6, cr1, cr15, {2}
 700:	72656c64 	rsbvc	r6, r5, #100, 24	; 0x6400
 704:	73736200 	cmnvc	r3, #0, 4
 708:	646e655f 	strbtvs	r6, [lr], #-1375	; 0x55f
 70c:	73635f00 	cmnvc	r3, #0, 30
 710:	74726174 	ldrbtvc	r6, [r2], #-372	; 0x174
 714:	61747300 	cmnvs	r4, r0, lsl #6
 718:	732d6666 	teqvc	sp, #106954752	; 0x6600000
 71c:	632f6372 	teqvs	pc, #-939524095	; 0xc8000001
 720:	72617473 	rsbvc	r7, r1, #1929379840	; 0x73000000
 724:	00632e74 	rsbeq	r2, r3, r4, ror lr
 728:	66617473 			; <UNDEFINED> instruction: 0x66617473
 72c:	72732d66 	rsbsvc	r2, r3, #6528	; 0x1980
 730:	65642f63 	strbvs	r2, [r4, #-3939]!	; 0xf63
 734:	6c756166 	ldfvse	f6, [r5], #-408	; 0xfffffe68
 738:	61682d74 	smcvs	33492	; 0x82d4
 73c:	656c646e 	strbvs	r6, [ip, #-1134]!	; 0x46e
 740:	61662d72 	smcvs	25298	; 0x62d2
 744:	632e7473 	teqvs	lr, #1929379840	; 0x73000000
 748:	73616600 	cmnvc	r1, #0, 12
 74c:	6e695f74 	mcrvs	15, 3, r5, cr9, cr4, {3}
 750:	72726574 	rsbsvc	r6, r2, #116, 10	; 0x1d000000
 754:	5f747075 	svcpl	0x00747075
 758:	74636576 	strbtvc	r6, [r3], #-1398	; 0x576
 75c:	7200726f 	andvc	r7, r0, #-268435450	; 0xf0000006
 760:	74657365 	strbtvc	r7, [r5], #-869	; 0x365
 764:	6365765f 	cmnvs	r5, #99614720	; 0x5f00000
 768:	00726f74 	rsbseq	r6, r2, r4, ror pc
 76c:	66617473 			; <UNDEFINED> instruction: 0x66617473
 770:	72732d66 	rsbsvc	r2, r3, #6528	; 0x1980
 774:	65642f63 	strbvs	r2, [r4, #-3939]!	; 0xf63
 778:	6c756166 	ldfvse	f6, [r5], #-408	; 0xfffffe68
 77c:	61682d74 	smcvs	33492	; 0x82d4
 780:	656c646e 	strbvs	r6, [ip, #-1134]!	; 0x46e
 784:	65722d72 	ldrbvs	r2, [r2, #-3442]!	; 0xd72
 788:	2e746573 	mrccs	5, 3, r6, cr4, cr3, {3}
 78c:	74730063 	ldrbtvc	r0, [r3], #-99	; 0x63
 790:	2d666661 	stclcs	6, cr6, [r6, #-388]!	; 0xfffffe7c
 794:	2f637273 	svccs	0x00637273
 798:	61666564 	cmnvs	r6, r4, ror #10
 79c:	2d746c75 	ldclcs	12, cr6, [r4, #-468]!	; 0xfffffe2c
 7a0:	646e6168 	strbtvs	r6, [lr], #-360	; 0x168
 7a4:	2d72656c 	cfldr64cs	mvdx6, [r2, #-432]!	; 0xfffffe50
 7a8:	65646e75 	strbvs	r6, [r4, #-3701]!	; 0xe75
 7ac:	656e6966 	strbvs	r6, [lr, #-2406]!	; 0x966
 7b0:	6e692d64 	cdpvs	13, 6, cr2, cr9, cr4, {3}
 7b4:	632e7473 	teqvs	lr, #1929379840	; 0x73000000
 7b8:	646e7500 	strbtvs	r7, [lr], #-1280	; 0x500
 7bc:	6e696665 	cdpvs	6, 6, cr6, cr9, cr5, {3}
 7c0:	695f6465 	ldmdbvs	pc, {r0, r2, r5, r6, sl, sp, lr}^	; <UNPREDICTABLE>
 7c4:	7274736e 	rsbsvc	r7, r4, #-1207959551	; 0xb8000001
 7c8:	69746375 	ldmdbvs	r4!, {r0, r2, r4, r5, r6, r8, r9, sp, lr}^
 7cc:	765f6e6f 	ldrbvc	r6, [pc], -pc, ror #28
 7d0:	6f746365 	svcvs	0x00746365
 7d4:	74730072 	ldrbtvc	r0, [r3], #-114	; 0x72
 7d8:	2d666661 	stclcs	6, cr6, [r6, #-388]!	; 0xfffffe7c
 7dc:	2f637273 	svccs	0x00637273
 7e0:	61666564 	cmnvs	r6, r4, ror #10
 7e4:	2d746c75 	ldclcs	12, cr6, [r4, #-468]!	; 0xfffffe2c
 7e8:	646e6168 	strbtvs	r6, [lr], #-360	; 0x168
 7ec:	7372656c 	cmnvc	r2, #108, 10	; 0x1b000000
 7f0:	4900632e 	stmdbmi	r0, {r1, r2, r3, r5, r8, r9, sp, lr}
 7f4:	705f5152 	subsvc	r5, pc, r2, asr r1	; <UNPREDICTABLE>
 7f8:	69646e65 	stmdbvs	r4!, {r0, r2, r5, r6, r9, sl, fp, sp, lr}^
 7fc:	325f676e 	subscc	r6, pc, #28835840	; 0x1b80000
 800:	73694400 	cmnvc	r9, #0, 8
 804:	656c6261 	strbvs	r6, [ip, #-609]!	; 0x261
 808:	7361425f 	cmnvc	r1, #-268435451	; 0xf0000005
 80c:	495f6369 	ldmdbmi	pc, {r0, r3, r5, r6, r8, r9, sp, lr}^	; <UNPREDICTABLE>
 810:	00735152 	rsbseq	r5, r3, r2, asr r1
 814:	5f514946 	svcpl	0x00514946
 818:	746e6f63 	strbtvc	r6, [lr], #-3939	; 0xf63
 81c:	006c6f72 	rsbeq	r6, ip, r2, ror pc
 820:	746e695f 	strbtvc	r6, [lr], #-2399	; 0x95f
 824:	75727265 	ldrbvc	r7, [r2, #-613]!	; 0x265
 828:	745f7470 	ldrbvc	r7, [pc], #-1136	; 830 <__code_start__-0x77d0>
 82c:	656c6261 	strbvs	r6, [ip, #-609]!	; 0x261
 830:	51524900 	cmppl	r2, r0, lsl #18
 834:	7361625f 	cmnvc	r1, #-268435451	; 0xf0000005
 838:	705f6369 	subsvc	r6, pc, r9, ror #6
 83c:	69646e65 	stmdbvs	r4!, {r0, r2, r5, r6, r9, sl, fp, sp, lr}^
 840:	4500676e 	strmi	r6, [r0, #-1902]	; 0x76e
 844:	6c62616e 	stfvse	f6, [r2], #-440	; 0xfffffe48
 848:	61425f65 	cmpvs	r2, r5, ror #30
 84c:	5f636973 	svcpl	0x00636973
 850:	73515249 	cmpvc	r1, #-1879048188	; 0x90000004
 854:	616e4500 	cmnvs	lr, r0, lsl #10
 858:	5f656c62 	svcpl	0x00656c62
 85c:	73515249 	cmpvc	r1, #-1879048188	; 0x90000004
 860:	4500315f 	strmi	r3, [r0, #-351]	; 0x15f
 864:	6c62616e 	stfvse	f6, [r2], #-440	; 0xfffffe48
 868:	52495f65 	subpl	r5, r9, #404	; 0x194
 86c:	325f7351 	subscc	r7, pc, #1140850689	; 0x44000001
 870:	6e695f00 	cdpvs	15, 6, cr5, cr9, cr0, {0}
 874:	72726574 	rsbsvc	r6, r2, #116, 10	; 0x1d000000
 878:	5f747075 	svcpl	0x00747075
 87c:	6c626174 	stfvse	f6, [r2], #-464	; 0xfffffe30
 880:	6e655f65 	cdpvs	15, 6, cr5, cr5, cr5, {3}
 884:	65640064 	strbvs	r0, [r4, #-100]!	; 0x64
 888:	61625f76 	smcvs	9718	; 0x25f6
 88c:	65697272 	strbvs	r7, [r9, #-626]!	; 0x272
 890:	74730072 	ldrbtvc	r0, [r3], #-114	; 0x72
 894:	2d666661 	stclcs	6, cr6, [r6, #-388]!	; 0xfffffe7c
 898:	2f637273 	svccs	0x00637273
 89c:	65746e69 	ldrbvs	r6, [r4, #-3689]!	; 0xe69
 8a0:	70757272 	rsbsvc	r7, r5, r2, ror r2
 8a4:	632d7374 	teqvs	sp, #116, 6	; 0xd0000001
 8a8:	4900632e 	stmdbmi	r0, {r1, r2, r3, r5, r8, r9, sp, lr}
 8ac:	425f5152 	subsmi	r5, pc, #-2147483628	; 0x80000014
 8b0:	00657361 	rsbeq	r7, r5, r1, ror #6
 8b4:	33545550 	cmpcc	r4, #80, 10	; 0x14000000
 8b8:	69440032 	stmdbvs	r4, {r1, r4, r5}^
 8bc:	6c626173 	stfvse	f6, [r2], #-460	; 0xfffffe34
 8c0:	52495f65 	subpl	r5, r9, #404	; 0x194
 8c4:	315f7351 	cmpcc	pc, r1, asr r3	; <UNPREDICTABLE>
 8c8:	73694400 	cmnvc	r9, #0, 8
 8cc:	656c6261 	strbvs	r6, [ip, #-609]!	; 0x261
 8d0:	5152495f 	cmppl	r2, pc, asr r9
 8d4:	00325f73 	eorseq	r5, r2, r3, ror pc
 8d8:	5f515249 	svcpl	0x00515249
 8dc:	646e6570 	strbtvs	r6, [lr], #-1392	; 0x570
 8e0:	5f676e69 	svcpl	0x00676e69
 8e4:	74610031 	strbtvc	r0, [r1], #-49	; 0x31
 8e8:	6573755f 	ldrbvs	r7, [r3, #-1375]!	; 0x55f
 8ec:	656c5f72 	strbvs	r5, [ip, #-3954]!	; 0xf72
 8f0:	006c6576 	rsbeq	r6, ip, r6, ror r5
 8f4:	66617473 			; <UNDEFINED> instruction: 0x66617473
 8f8:	72732d66 	rsbsvc	r2, r3, #6528	; 0x1980
 8fc:	65722f63 	ldrbvs	r2, [r2, #-3939]!	; 0xf63
 900:	746f6f62 	strbtvc	r6, [pc], #-3938	; 908 <__code_start__-0x76f8>
 904:	5000632e 	andpl	r6, r0, lr, lsr #6
 908:	53525f4d 	cmppl	r2, #308	; 0x134
 90c:	575f4354 			; <UNDEFINED> instruction: 0x575f4354
 910:	47464352 	smlsldmi	r4, r6, r2, r3
 914:	4c55465f 	mrrcmi	6, 5, r4, r5, cr15
 918:	45525f4c 	ldrbmi	r5, [r2, #-3916]	; 0xf4c
 91c:	00544553 	subseq	r4, r4, r3, asr r5
 920:	575f4d50 			; <UNDEFINED> instruction: 0x575f4d50
 924:	00474f44 	subeq	r4, r7, r4, asr #30
 928:	5f746573 	svcpl	0x00746573
 92c:	72657375 	rsbvc	r7, r5, #-738197503	; 0xd4000001
 930:	76656c5f 			; <UNDEFINED> instruction: 0x76656c5f
 934:	50006c65 	andpl	r6, r0, r5, ror #24
 938:	41505f4d 	cmpmi	r0, sp, asr #30
 93c:	4f575353 	svcmi	0x00575353
 940:	50004452 	andpl	r4, r0, r2, asr r4
 944:	53525f4d 	cmppl	r2, #308	; 0x134
 948:	74004354 	strvc	r4, [r0], #-852	; 0x354
 94c:	72656d69 	rsbvc	r6, r5, #6720	; 0x1a40
 950:	7465675f 	strbtvc	r6, [r5], #-1887	; 0x75f
 954:	6573755f 	ldrbvs	r7, [r3, #-1375]!	; 0x55f
 958:	61725f63 	cmnvs	r2, r3, ror #30
 95c:	65640077 	strbvs	r0, [r4, #-119]!	; 0x77
 960:	5f79616c 	svcpl	0x0079616c
 964:	00636573 	rsbeq	r6, r3, r3, ror r5
 968:	66617473 			; <UNDEFINED> instruction: 0x66617473
 96c:	72732d66 	rsbsvc	r2, r3, #6528	; 0x1980
 970:	69742f63 	ldmdbvs	r4!, {r0, r1, r5, r6, r8, r9, sl, fp, sp}^
 974:	2e72656d 	cdpcs	5, 7, cr6, cr2, cr13, {3}
 978:	45470063 	strbmi	r0, [r7, #-99]	; 0x63
 97c:	00323354 	eorseq	r3, r2, r4, asr r3
 980:	6b636974 	blvs	18daf58 <__bss_end__+0x18d0a00>
 984:	65640073 	strbvs	r0, [r4, #-115]!	; 0x73
 988:	5f79616c 	svcpl	0x0079616c
 98c:	6c637963 	stclvs	9, cr7, [r3], #-396	; 0xfffffe74
 990:	64007365 	strvs	r7, [r0], #-869	; 0x365
 994:	79616c65 	stmdbvc	r1!, {r0, r2, r5, r6, sl, fp, sp, lr}^
 998:	0073755f 	rsbseq	r7, r3, pc, asr r5
 99c:	656d6974 	strbvs	r6, [sp, #-2420]!	; 0x974
 9a0:	65675f72 	strbvs	r5, [r7, #-3954]!	; 0xf72
 9a4:	73755f74 	cmnvc	r5, #116, 30	; 0x1d0
 9a8:	5f006365 	svcpl	0x00006365
 9ac:	5f6f7364 	svcpl	0x006f7364
 9b0:	646e6168 	strbtvs	r6, [lr], #-360	; 0x168
 9b4:	5f00656c 	svcpl	0x0000656c
 9b8:	657a6973 	ldrbvs	r6, [sl, #-2419]!	; 0x973
 9bc:	61725f00 	cmnvs	r2, r0, lsl #30
 9c0:	3834646e 	ldmdacc	r4!, {r1, r2, r3, r5, r6, sl, sp, lr}
 9c4:	6d655f00 	stclvs	15, cr5, [r5, #-0]
 9c8:	65677265 	strbvs	r7, [r7, #-613]!	; 0x265
 9cc:	0079636e 	rsbseq	r6, r9, lr, ror #6
 9d0:	74726175 	ldrbtvc	r6, [r2], #-373	; 0x175
 9d4:	696e695f 	stmdbvs	lr!, {r0, r1, r2, r3, r4, r6, r8, fp, sp, lr}^
 9d8:	775f0074 			; <UNDEFINED> instruction: 0x775f0074
 9dc:	6f747263 	svcvs	0x00747263
 9e0:	735f626d 	cmpvc	pc, #-805306362	; 0xd0000006
 9e4:	65746174 	ldrbvs	r6, [r4, #-372]!	; 0x174
 9e8:	63775f00 	cmnvs	r7, #0, 30
 9ec:	6f747273 	svcvs	0x00747273
 9f0:	5f73626d 	svcpl	0x0073626d
 9f4:	74617473 	strbtvc	r7, [r1], #-1139	; 0x473
 9f8:	6c5f0065 	mrrcvs	0, 6, r0, pc, cr5	; <UNPREDICTABLE>
 9fc:	69736662 	ldmdbvs	r3!, {r1, r5, r6, r9, sl, sp, lr}^
 a00:	4700657a 	smlsdxmi	r0, sl, r5, r6
 a04:	5f4f4950 	svcpl	0x004f4950
 a08:	434e5546 	movtmi	r5, #58694	; 0xe546
 a0c:	504e495f 	subpl	r4, lr, pc, asr r9
 a10:	5f005455 	svcpl	0x00005455
 a14:	7472626d 	ldrbtvc	r6, [r2], #-621	; 0x26d
 a18:	5f63776f 	svcpl	0x0063776f
 a1c:	74617473 	strbtvc	r7, [r1], #-1139	; 0x473
 a20:	775f0065 	ldrbvc	r0, [pc, -r5, rrx]
 a24:	6d6f7463 	cfstrdvs	mvd7, [pc, #-396]!	; 8a0 <__code_start__-0x7760>
 a28:	74735f62 	ldrbtvc	r5, [r3], #-3938	; 0xf62
 a2c:	00657461 	rsbeq	r7, r5, r1, ror #8
 a30:	6d745f5f 	ldclvs	15, cr5, [r4, #-380]!	; 0xfffffe84
 a34:	6365735f 	cmnvs	r5, #2080374785	; 0x7c000001
 a38:	61747300 	cmnvs	r4, r0, lsl #6
 a3c:	755f0074 	ldrbvc	r0, [pc, #-116]	; 9d0 <__code_start__-0x7630>
 a40:	00667562 	rsbeq	r7, r6, r2, ror #10
 a44:	4f495047 	svcmi	0x00495047
 a48:	4e55465f 	mrcmi	6, 2, r4, cr5, cr15, {2}
 a4c:	4c415f43 	mcrrmi	15, 4, r5, r1, cr3
 a50:	5f003154 	svcpl	0x00003154
 a54:	65736162 	ldrbvs	r6, [r3, #-354]!	; 0x162
 a58:	746e6300 	strbtvc	r6, [lr], #-768	; 0x300
 a5c:	5f5f006c 	svcpl	0x005f006c
 a60:	685f6d74 	ldmdavs	pc, {r2, r4, r5, r6, r8, sl, fp, sp, lr}^	; <UNPREDICTABLE>
 a64:	0072756f 	rsbseq	r7, r2, pc, ror #10
 a68:	66735f5f 	uhsaxvs	r5, r3, pc	; <UNPREDICTABLE>
 a6c:	6e6f5f00 	cdpvs	15, 6, cr5, cr15, cr0, {0}
 a70:	6978655f 	ldmdbvs	r8!, {r0, r1, r2, r3, r4, r6, r8, sl, sp, lr}^
 a74:	72615f74 	rsbvc	r5, r1, #116, 30	; 0x1d0
 a78:	5f007367 	svcpl	0x00007367
 a7c:	6b6f6f63 	blvs	1bdc810 <__bss_end__+0x1bd22b8>
 a80:	5f006569 	svcpl	0x00006569
 a84:	6c67735f 	stclvs	3, cr7, [r7], #-380	; 0xfffffe84
 a88:	5f006575 	svcpl	0x00006575
 a8c:	67616c66 	strbvs	r6, [r1, -r6, ror #24]!
 a90:	695f0073 	ldmdbvs	pc, {r0, r1, r4, r5, r6}^	; <UNPREDICTABLE>
 a94:	78635f73 	stmdavc	r3!, {r0, r1, r4, r5, r6, r8, r9, sl, fp, ip, lr}^
 a98:	735f0061 	cmpvc	pc, #97	; 0x61
 a9c:	6e696474 	mcrvs	4, 3, r6, cr9, cr4, {3}
 aa0:	6c625f00 	stclvs	15, cr5, [r2], #-0
 aa4:	7a69736b 	bvc	1a5d858 <__bss_end__+0x1a53300>
 aa8:	61750065 	cmnvs	r5, r5, rrx
 aac:	632e7472 	teqvs	lr, #1912602624	; 0x72000000
 ab0:	78756100 	ldmdavc	r5!, {r8, sp, lr}^
 ab4:	7265705f 	rsbvc	r7, r5, #95	; 0x5f
 ab8:	73687069 	cmnvc	r8, #105	; 0x69
 abc:	76635f00 	strbtvc	r5, [r3], -r0, lsl #30
 ac0:	66756274 			; <UNDEFINED> instruction: 0x66756274
 ac4:	6f682f00 	svcvs	0x00682f00
 ac8:	652f656d 	strvs	r6, [pc, #-1389]!	; 563 <__code_start__-0x7a9d>
 acc:	656c676e 	strbvs	r6, [ip, #-1902]!	; 0x76e
 ad0:	6c632f72 	stclvs	15, cr2, [r3], #-456	; 0xfffffe38
 ad4:	2f737361 	svccs	0x00737361
 ad8:	34327363 	ldrtcc	r7, [r2], #-867	; 0x363
 adc:	2d786c30 	ldclcs	12, cr6, [r8, #-192]!	; 0xffffff40
 ae0:	70733032 	rsbsvc	r3, r3, r2, lsr r0
 ae4:	696c2f72 	stmdbvs	ip!, {r1, r4, r5, r6, r8, r9, sl, fp, sp}^
 ae8:	2f697062 	svccs	0x00697062
 aec:	66617473 			; <UNDEFINED> instruction: 0x66617473
 af0:	72702d66 	rsbsvc	r2, r0, #6528	; 0x1980
 af4:	74617669 	strbtvc	r7, [r1], #-1641	; 0x669
 af8:	6d5f0065 	ldclvs	0, cr0, [pc, #-404]	; 96c <__code_start__-0x7694>
 afc:	74727362 	ldrbtvc	r7, [r2], #-866	; 0x362
 b00:	7363776f 	cmnvc	r3, #29097984	; 0x1bc0000
 b04:	6174735f 	cmnvs	r4, pc, asr r3
 b08:	5f006574 	svcpl	0x00006574
 b0c:	6c72626d 	lfmvs	f6, 2, [r2], #-436	; 0xfffffe4c
 b10:	735f6e65 	cmpvc	pc, #1616	; 0x650
 b14:	65746174 	ldrbvs	r6, [r4, #-372]!	; 0x174
 b18:	6e665f00 	cdpvs	15, 6, cr5, cr6, cr0, {0}
 b1c:	73677261 	cmnvc	r7, #268435462	; 0x10000006
 b20:	78756100 	ldmdavc	r5!, {r8, sp, lr}^
 b24:	616e655f 	cmnvs	lr, pc, asr r5
 b28:	73656c62 	cmnvc	r5, #25088	; 0x6200
 b2c:	6e665f00 	cdpvs	15, 6, cr5, cr6, cr0, {0}
 b30:	735f0073 	cmpvc	pc, #115	; 0x73
 b34:	006e6769 	rsbeq	r6, lr, r9, ror #14
 b38:	74726175 	ldrbtvc	r6, [r2], #-373	; 0x175
 b3c:	6e61635f 	mcrvs	3, 3, r6, cr1, cr15, {2}
 b40:	7475705f 	ldrbtvc	r7, [r5], #-95	; 0x5f
 b44:	665f0063 	ldrbvs	r0, [pc], -r3, rrx
 b48:	6b636f6c 	blvs	18dc900 <__bss_end__+0x18d23a8>
 b4c:	5f00745f 	svcpl	0x0000745f
 b50:	65647473 	strbvs	r7, [r4, #-1139]!	; 0x473
 b54:	5f007272 	svcpl	0x00007272
 b58:	69676942 	stmdbvs	r7!, {r1, r6, r8, fp, sp, lr}^
 b5c:	5f00746e 	svcpl	0x0000746e
 b60:	6d6d6167 	stfvse	f6, [sp, #-412]!	; 0xfffffe64
 b64:	69735f61 	ldmdbvs	r3!, {r0, r5, r6, r8, r9, sl, fp, ip, lr}^
 b68:	61676e67 	cmnvs	r7, r7, ror #28
 b6c:	725f006d 	subsvc	r0, pc, #109	; 0x6d
 b70:	6c757365 	ldclvs	3, cr7, [r5], #-404	; 0xfffffe6c
 b74:	006b5f74 	rsbeq	r5, fp, r4, ror pc
 b78:	6d745f5f 	ldclvs	15, cr5, [r4, #-380]!	; 0xfffffe84
 b7c:	775f5f00 	ldrbvc	r5, [pc, -r0, lsl #30]
 b80:	00626863 	rsbeq	r6, r2, r3, ror #16
 b84:	74726175 	ldrbtvc	r6, [r2], #-373	; 0x175
 b88:	7465675f 	strbtvc	r6, [r5], #-1887	; 0x75f
 b8c:	735f0063 	cmpvc	pc, #99	; 0x63
 b90:	756f6474 	strbvc	r6, [pc, #-1140]!	; 724 <__code_start__-0x78dc>
 b94:	635f0074 	cmpvs	pc, #116	; 0x74
 b98:	656c7476 	strbvs	r7, [ip, #-1142]!	; 0x476
 b9c:	665f006e 	ldrbvs	r0, [pc], -lr, rrx
 ba0:	00656c69 	rsbeq	r6, r5, r9, ror #24
 ba4:	6f696e5f 	svcvs	0x00696e5f
 ba8:	5f007362 	svcpl	0x00007362
 bac:	78657461 	stmdavc	r5!, {r0, r5, r6, sl, ip, sp, lr}^
 bb0:	00307469 	eorseq	r7, r0, r9, ror #8
 bb4:	6769735f 			; <UNDEFINED> instruction: 0x6769735f
 bb8:	5f6c616e 	svcpl	0x006c616e
 bbc:	00667562 	rsbeq	r7, r6, r2, ror #10
 bc0:	6373615f 	cmnvs	r3, #-1073741801	; 0xc0000017
 bc4:	656d6974 	strbvs	r6, [sp, #-2420]!	; 0x974
 bc8:	6675625f 			; <UNDEFINED> instruction: 0x6675625f
 bcc:	65725f00 	ldrbvs	r5, [r2, #-3840]!	; 0xf00
 bd0:	746c7573 	strbtvc	r7, [ip], #-1395	; 0x573
 bd4:	775f5f00 	ldrbvc	r5, [pc, -r0, lsl #30]
 bd8:	47006863 	strmi	r6, [r0, -r3, ror #16]
 bdc:	5f4f4950 	svcpl	0x004f4950
 be0:	434e5546 	movtmi	r5, #58694	; 0xe546
 be4:	544c415f 	strbpl	r4, [ip], #-351	; 0x15f
 be8:	69770032 	ldmdbvs	r7!, {r1, r4, r5}^
 bec:	745f746e 	ldrbvc	r7, [pc], #-1134	; bf4 <__code_start__-0x740c>
 bf0:	6f6c5f00 	svcvs	0x006c5f00
 bf4:	5f006b63 	svcpl	0x00006b63
 bf8:	67616c66 	strbvs	r6, [r1, -r6, ror #24]!
 bfc:	5f003273 	svcpl	0x00003273
 c00:	5f6d745f 	svcpl	0x006d745f
 c04:	72616579 	rsbvc	r6, r1, #507510784	; 0x1e400000
 c08:	666f5f00 	strbtvs	r5, [pc], -r0, lsl #30
 c0c:	74657366 	strbtvc	r7, [r5], #-870	; 0x366
 c10:	69706700 	ldmdbvs	r0!, {r8, r9, sl, sp, lr}^
 c14:	65735f6f 	ldrbvs	r5, [r3, #-3951]!	; 0xf6f
 c18:	75665f74 	strbvc	r5, [r6, #-3956]!	; 0xf74
 c1c:	6974636e 	ldmdbvs	r4!, {r1, r2, r3, r5, r6, r8, r9, sp, lr}^
 c20:	5f006e6f 	svcpl	0x00006e6f
 c24:	7478656e 	ldrbtvc	r6, [r8], #-1390	; 0x56e
 c28:	5f5f0066 	svcpl	0x005f0066
 c2c:	6d5f6d74 	ldclvs	13, cr6, [pc, #-464]	; a64 <__code_start__-0x759c>
 c30:	5f006e6f 	svcpl	0x00006e6f
 c34:	78657461 	stmdavc	r5!, {r0, r5, r6, sl, ip, sp, lr}^
 c38:	5f007469 	svcpl	0x00007469
 c3c:	6964735f 	stmdbvs	r4!, {r0, r1, r2, r3, r4, r6, r8, r9, ip, sp, lr}^
 c40:	696e6964 	stmdbvs	lr!, {r2, r5, r6, r8, fp, sp, lr}^
 c44:	6f5f0074 	svcvs	0x005f0074
 c48:	745f6666 	ldrbvc	r6, [pc], #-1638	; c50 <__code_start__-0x73b0>
 c4c:	72617500 	rsbvc	r7, r1, #0, 10
 c50:	665f0074 			; <UNDEFINED> instruction: 0x665f0074
 c54:	6c656572 	cfstr64vs	mvdx6, [r5], #-456	; 0xfffffe38
 c58:	00747369 	rsbseq	r7, r4, r9, ror #6
 c5c:	434f4c5f 	movtmi	r4, #64607	; 0xfc5f
 c60:	45525f4b 	ldrbmi	r5, [r2, #-3915]	; 0xf4b
 c64:	53525543 	cmppl	r2, #281018368	; 0x10c00000
 c68:	5f455649 	svcpl	0x00455649
 c6c:	6e5f0054 	mrcvs	0, 2, r0, cr15, cr4, {2}
 c70:	5f007765 	svcpl	0x00007765
 c74:	72655f68 	rsbvc	r5, r5, #104, 30	; 0x1a0
 c78:	006f6e72 	rsbeq	r6, pc, r2, ror lr	; <UNPREDICTABLE>
 c7c:	6d745f5f 	ldclvs	15, cr5, [r4, #-380]!	; 0xfffffe84
 c80:	6164795f 	cmnvs	r4, pc, asr r9
 c84:	5f5f0079 	svcpl	0x005f0079
 c88:	66756273 			; <UNDEFINED> instruction: 0x66756273
 c8c:	6f695f00 	svcvs	0x00695f00
 c90:	5f007362 	svcpl	0x00007362
 c94:	4c49465f 	mcrrmi	6, 5, r4, r9, cr15
 c98:	6d5f0045 	ldclvs	0, cr0, [pc, #-276]	; b8c <__code_start__-0x7474>
 c9c:	61747362 	cmnvs	r4, r2, ror #6
 ca0:	745f6574 	ldrbvc	r6, [pc], #-1396	; ca8 <__code_start__-0x7358>
 ca4:	735f5f00 	cmpvc	pc, #0, 30
 ca8:	454c4946 	strbmi	r4, [ip, #-2374]	; 0x946
 cac:	626d5f00 	rsbvs	r5, sp, #0, 30
 cb0:	74617473 	strbtvc	r7, [r1], #-1139	; 0x473
 cb4:	725f0065 	subsvc	r0, pc, #101	; 0x65
 cb8:	5f646e61 	svcpl	0x00646e61
 cbc:	7478656e 	ldrbtvc	r6, [r8], #-1390	; 0x56e
 cc0:	626d5f00 	rsbvs	r5, sp, #0, 30
 cc4:	5f6e656c 	svcpl	0x006e656c
 cc8:	74617473 	strbtvc	r7, [r1], #-1139	; 0x473
 ccc:	695f0065 	ldmdbvs	pc, {r0, r2, r5, r6}^	; <UNPREDICTABLE>
 cd0:	5f00636e 	svcpl	0x0000636e
 cd4:	00646e69 	rsbeq	r6, r4, r9, ror #28
 cd8:	7275635f 	rsbsvc	r6, r5, #2080374785	; 0x7c000001
 cdc:	746e6572 	strbtvc	r6, [lr], #-1394	; 0x572
 ce0:	636f6c5f 	cmnvs	pc, #24320	; 0x5f00
 ce4:	00656c61 	rsbeq	r6, r5, r1, ror #24
 ce8:	6c635f5f 	stclvs	15, cr5, [r3], #-380	; 0xfffffe84
 cec:	756e6165 	strbvc	r6, [lr, #-357]!	; 0x165
 cf0:	6d5f0070 	ldclvs	0, cr0, [pc, #-448]	; b38 <__code_start__-0x74c8>
 cf4:	64777861 	ldrbtvs	r7, [r7], #-2145	; 0x861
 cf8:	725f0073 	subsvc	r0, pc, #115	; 0x73
 cfc:	746e6565 	strbtvc	r6, [lr], #-1381	; 0x565
 d00:	65735f00 	ldrbvs	r5, [r3, #-3840]!	; 0xf00
 d04:	5f006465 	svcpl	0x00006465
 d08:	756f635f 	strbvc	r6, [pc, #-863]!	; 9b1 <__code_start__-0x764f>
 d0c:	5f00746e 	svcpl	0x0000746e
 d10:	6c61765f 	stclvs	6, cr7, [r1], #-380	; 0xfffffe84
 d14:	5f006575 	svcpl	0x00006575
 d18:	6b656573 	blvs	195a2ec <__bss_end__+0x194fd94>
 d1c:	75616200 	strbvc	r6, [r1, #-512]!	; 0x200
 d20:	665f0064 	ldrbvs	r0, [pc], -r4, rrx
 d24:	5f736f70 	svcpl	0x00736f70
 d28:	5f5f0074 	svcpl	0x005f0074
 d2c:	6d5f6d74 	ldclvs	13, cr6, [pc, #-464]	; b64 <__code_start__-0x749c>
 d30:	73006e69 	movwvc	r6, #3689	; 0xe69
 d34:	74617263 	strbtvc	r7, [r1], #-611	; 0x263
 d38:	5f006863 	svcpl	0x00006863
 d3c:	746c756d 	strbtvc	r7, [ip], #-1389	; 0x56d
 d40:	74757000 	ldrbtvc	r7, [r5], #-0
 d44:	47003233 	smladxmi	r0, r3, r2, r3
 d48:	4320554e 	teqmi	r0, #327155712	; 0x13800000
 d4c:	36203939 			; <UNDEFINED> instruction: 0x36203939
 d50:	312e332e 	teqcc	lr, lr, lsr #6
 d54:	31303220 	teqcc	r0, r0, lsr #4
 d58:	32363037 	eorscc	r3, r6, #55	; 0x37
 d5c:	6d2d2030 	stcvs	0, cr2, [sp, #-192]!	; 0xffffff40
 d60:	3d757063 	ldclcc	0, cr7, [r5, #-396]!	; 0xfffffe74
 d64:	316d7261 	cmncc	sp, r1, ror #4
 d68:	6a363731 	bvs	d8ea34 <__bss_end__+0xd844dc>
 d6c:	732d667a 	teqvc	sp, #127926272	; 0x7a00000
 d70:	746d2d20 	strbtvc	r2, [sp], #-3360	; 0xd20
 d74:	3d656e75 	stclcc	14, cr6, [r5, #-468]!	; 0xfffffe2c
 d78:	316d7261 	cmncc	sp, r1, ror #4
 d7c:	6a363731 	bvs	d8ea48 <__bss_end__+0xd844f0>
 d80:	732d667a 	teqvc	sp, #127926272	; 0x7a00000
 d84:	67672d20 	strbvs	r2, [r7, -r0, lsr #26]!
 d88:	2d206264 	sfmcs	f6, 4, [r0, #-400]!	; 0xfffffe70
 d8c:	2d20674f 	stccs	7, cr6, [r0, #-316]!	; 0xfffffec4
 d90:	3d647473 	cfstrdcc	mvd7, [r4, #-460]!	; 0xfffffe34
 d94:	39756e67 	ldmdbcc	r5!, {r0, r1, r2, r5, r6, r9, sl, fp, sp, lr}^
 d98:	662d2039 			; <UNDEFINED> instruction: 0x662d2039
 d9c:	65657266 	strbvs	r7, [r5, #-614]!	; 0x266
 da0:	6e617473 	mcrvs	4, 3, r7, cr1, cr3, {3}
 da4:	676e6964 	strbvs	r6, [lr, -r4, ror #18]!
 da8:	74735f00 	ldrbtvc	r5, [r3], #-3840	; 0xf00
 dac:	6b6f7472 	blvs	1bddf7c <__bss_end__+0x1bd3a24>
 db0:	73616c5f 	cmnvc	r1, #24320	; 0x5f00
 db4:	665f0074 			; <UNDEFINED> instruction: 0x665f0074
 db8:	7079746e 	rsbsvc	r7, r9, lr, ror #8
 dbc:	5f007365 	svcpl	0x00007365
 dc0:	00646461 	rsbeq	r6, r4, r1, ror #8
 dc4:	4c555f5f 	mrrcmi	15, 5, r5, r5, cr15	; <UNPREDICTABLE>
 dc8:	00676e6f 	rsbeq	r6, r7, pc, ror #28
 dcc:	7465675f 	strbtvc	r6, [r5], #-1887	; 0x75f
 dd0:	65746164 	ldrbvs	r6, [r4, #-356]!	; 0x164
 dd4:	7272655f 	rsbsvc	r6, r2, #398458880	; 0x17c00000
 dd8:	6c675f00 	stclvs	15, cr5, [r7], #-0
 ddc:	6c61626f 	sfmvs	f6, 2, [r1], #-444	; 0xfffffe44
 de0:	706d695f 	rsbvc	r6, sp, pc, asr r9
 de4:	5f657275 	svcpl	0x00657275
 de8:	00727470 	rsbseq	r7, r2, r0, ror r4
 dec:	7275635f 	rsbsvc	r6, r5, #2080374785	; 0x7c000001
 df0:	746e6572 	strbtvc	r6, [lr], #-1394	; 0x572
 df4:	7461635f 	strbtvc	r6, [r1], #-863	; 0x35f
 df8:	726f6765 	rsbvc	r6, pc, #26476544	; 0x1940000
 dfc:	755f0079 	ldrbvc	r0, [pc, #-121]	; d8b <__code_start__-0x7275>
 e00:	6573756e 	ldrbvs	r7, [r3, #-1390]!	; 0x56e
 e04:	61725f64 	cmnvs	r2, r4, ror #30
 e08:	5f00646e 	svcpl	0x0000646e
 e0c:	00736477 	rsbseq	r6, r3, r7, ror r4
 e10:	6d745f5f 	ldclvs	15, cr5, [r4, #-380]!	; 0xfffffe84
 e14:	6164775f 	cmnvs	r4, pc, asr r7
 e18:	675f0079 			; <UNDEFINED> instruction: 0x675f0079
 e1c:	0065756c 	rsbeq	r7, r5, ip, ror #10
 e20:	4f495047 	svcmi	0x00495047
 e24:	4e55465f 	mrcmi	6, 2, r4, cr5, cr15, {2}
 e28:	554f5f43 	strbpl	r5, [pc, #-3907]	; fffffeed <__bss_end__+0xffff5995>
 e2c:	54555054 	ldrbpl	r5, [r5], #-84	; 0x54
 e30:	6d6e5f00 	stclvs	15, cr5, [lr, #-0]
 e34:	6f6c6c61 	svcvs	0x006c6c61
 e38:	6c5f0063 	mrrcvs	0, 6, r0, pc, cr3	; <UNPREDICTABLE>
 e3c:	5f613436 	svcpl	0x00613436
 e40:	00667562 	rsbeq	r7, r6, r2, ror #10
 e44:	33746567 	cmncc	r4, #432013312	; 0x19c00000
 e48:	61750032 	cmnvs	r5, r2, lsr r0
 e4c:	635f7472 	cmpvs	pc, #1912602624	; 0x72000000
 e50:	675f6e61 	ldrbvs	r6, [pc, -r1, ror #28]
 e54:	00637465 	rsbeq	r7, r3, r5, ror #8
 e58:	6769735f 			; <UNDEFINED> instruction: 0x6769735f
 e5c:	6e75665f 	mrcvs	6, 3, r6, cr5, cr15, {2}
 e60:	726f0063 	rsbvc	r0, pc, #99	; 0x63
 e64:	336e695f 	cmncc	lr, #1556480	; 0x17c000
 e68:	61750032 	cmnvs	r5, r2, lsr r0
 e6c:	685f7472 	ldmdavs	pc, {r1, r4, r5, r6, sl, ip, sp, lr}^	; <UNPREDICTABLE>
 e70:	645f7361 	ldrbvs	r7, [pc], #-865	; e78 <__code_start__-0x7188>
 e74:	00617461 	rsbeq	r7, r1, r1, ror #8
 e78:	4f495047 	svcmi	0x00495047
 e7c:	4e55465f 	mrcmi	6, 2, r4, cr5, cr15, {2}
 e80:	4c415f43 	mcrrmi	15, 4, r5, r1, cr3
 e84:	5f003054 	svcpl	0x00003054
 e88:	6675626e 	ldrbtvs	r6, [r5], -lr, ror #4
 e8c:	6e755f00 	cdpvs	15, 7, cr5, cr5, cr0, {0}
 e90:	64657375 	strbtvs	r7, [r5], #-885	; 0x375
 e94:	49504700 	ldmdbmi	r0, {r8, r9, sl, lr}^
 e98:	55465f4f 	strbpl	r5, [r6, #-3919]	; 0xf4f
 e9c:	415f434e 	cmpmi	pc, lr, asr #6
 ea0:	0033544c 	eorseq	r5, r3, ip, asr #8
 ea4:	4f495047 	svcmi	0x00495047
 ea8:	4e55465f 	mrcmi	6, 2, r4, cr5, cr15, {2}
 eac:	4c415f43 	mcrrmi	15, 4, r5, r1, cr3
 eb0:	47003454 	smlsdmi	r0, r4, r4, r3
 eb4:	5f4f4950 	svcpl	0x004f4950
 eb8:	434e5546 	movtmi	r5, #58694	; 0xe546
 ebc:	544c415f 	strbpl	r4, [ip], #-351	; 0x15f
 ec0:	5f5f0035 	svcpl	0x005f0035
 ec4:	695f6d74 	ldmdbvs	pc, {r2, r4, r5, r6, r8, sl, fp, sp, lr}^	; <UNPREDICTABLE>
 ec8:	74736473 	ldrbtvc	r6, [r3], #-1139	; 0x473
 ecc:	6f6c5f00 	svcvs	0x006c5f00
 ed0:	746c6163 	strbtvc	r6, [ip], #-355	; 0x163
 ed4:	5f656d69 	svcpl	0x00656d69
 ed8:	00667562 	rsbeq	r7, r6, r2, ror #10
 edc:	6f6c635f 	svcvs	0x006c635f
 ee0:	5f006573 	svcpl	0x00006573
 ee4:	00383472 	eorseq	r3, r8, r2, ror r4
 ee8:	74626d5f 	strbtvc	r6, [r2], #-3423	; 0xd5f
 eec:	5f63776f 	svcpl	0x0063776f
 ef0:	74617473 	strbtvc	r7, [r1], #-1139	; 0x473
 ef4:	705f0065 	subsvc	r0, pc, r5, rrx
 ef8:	5f007335 	svcpl	0x00007335
 efc:	5f6d745f 	svcpl	0x006d745f
 f00:	7961646d 	stmdbvc	r1!, {r0, r2, r3, r5, r6, sl, sp, lr}^
 f04:	69706700 	ldmdbvs	r0!, {r8, r9, sl, sp, lr}^
 f08:	65735f6f 	ldrbvs	r5, [r3, #-3951]!	; 0xf6f
 f0c:	666f5f74 	uqsub16vs	r5, pc, r4	; <UNPREDICTABLE>
 f10:	61620066 	cmnvs	r2, r6, rrx
 f14:	67006b6e 	strvs	r6, [r0, -lr, ror #22]
 f18:	2e6f6970 	mcrcs	9, 3, r6, cr15, cr0, {3}
 f1c:	70670063 	rsbvc	r0, r7, r3, rrx
 f20:	725f6f69 	subsvc	r6, pc, #420	; 0x1a4
 f24:	00646165 	rsbeq	r6, r4, r5, ror #2
 f28:	6f697067 	svcvs	0x00697067
 f2c:	7465735f 	strbtvc	r7, [r5], #-863	; 0x35f
 f30:	74756f5f 	ldrbtvc	r6, [r5], #-3935	; 0xf5f
 f34:	00747570 	rsbseq	r7, r4, r0, ror r5
 f38:	6f697067 	svcvs	0x00697067
 f3c:	6972775f 	ldmdbvs	r2!, {r0, r1, r2, r3, r4, r6, r8, r9, sl, ip, sp, lr}^
 f40:	67006574 	smlsdxvs	r0, r4, r5, r6
 f44:	5f6f6970 	svcpl	0x006f6970
 f48:	30746573 	rsbscc	r6, r4, r3, ror r5
 f4c:	69706700 	ldmdbvs	r0!, {r8, r9, sl, sp, lr}^
 f50:	656c5f6f 	strbvs	r5, [ip, #-3951]!	; 0xf6f
 f54:	67003076 	smlsdxvs	r0, r6, r0, r3
 f58:	5f6f6970 	svcpl	0x006f6970
 f5c:	5f746573 	svcpl	0x00746573
 f60:	75706e69 	ldrbvc	r6, [r0, #-3689]!	; 0xe69
 f64:	70670074 	rsbvc	r0, r7, r4, ror r0
 f68:	735f6f69 	cmpvc	pc, #420	; 0x1a4
 f6c:	6f5f7465 	svcvs	0x005f7465
 f70:	7067006e 	rsbvc	r0, r7, lr, rrx
 f74:	665f6f69 	ldrbvs	r6, [pc], -r9, ror #30
 f78:	5f636e75 	svcpl	0x00636e75
 f7c:	70670074 	rsbvc	r0, r7, r4, ror r0
 f80:	635f6f69 	cmpvs	pc, #420	; 0x1a4
 f84:	0030726c 	eorseq	r7, r0, ip, ror #4

Disassembly of section .debug_frame:

00000000 <.debug_frame>:
   0:	0000000c 	andeq	r0, r0, ip
   4:	ffffffff 			; <UNDEFINED> instruction: 0xffffffff
   8:	7c020001 	stcvc	0, cr0, [r2], {1}
   c:	000d0c0e 	andeq	r0, sp, lr, lsl #24
  10:	0000000c 	andeq	r0, r0, ip
  14:	00000000 	andeq	r0, r0, r0
  18:	00008020 	andeq	r8, r0, r0, lsr #32
  1c:	00000018 	andeq	r0, r0, r8, lsl r0
  20:	0000000c 	andeq	r0, r0, ip
  24:	00000000 	andeq	r0, r0, r0
  28:	00008038 	andeq	r8, r0, r8, lsr r0
  2c:	00000018 	andeq	r0, r0, r8, lsl r0
  30:	0000000c 	andeq	r0, r0, ip
  34:	00000000 	andeq	r0, r0, r0
  38:	00008050 	andeq	r8, r0, r0, asr r0
  3c:	00000014 	andeq	r0, r0, r4, lsl r0
  40:	0000000c 	andeq	r0, r0, ip
  44:	00000000 	andeq	r0, r0, r0
  48:	00008064 	andeq	r8, r0, r4, rrx
  4c:	0000001c 	andeq	r0, r0, ip, lsl r0
  50:	0000000c 	andeq	r0, r0, ip
  54:	00000000 	andeq	r0, r0, r0
  58:	00008080 	andeq	r8, r0, r0, lsl #1
  5c:	0000006c 	andeq	r0, r0, ip, rrx
  60:	00000014 	andeq	r0, r0, r4, lsl r0
  64:	00000000 	andeq	r0, r0, r0
  68:	000080ec 	andeq	r8, r0, ip, ror #1
  6c:	00000070 	andeq	r0, r0, r0, ror r0
  70:	8e040e42 	cdphi	14, 0, cr0, cr4, cr2, {2}
  74:	400e4201 	andmi	r4, lr, r1, lsl #4
  78:	0000000c 	andeq	r0, r0, ip
  7c:	ffffffff 			; <UNDEFINED> instruction: 0xffffffff
  80:	7c020001 	stcvc	0, cr0, [r2], {1}
  84:	000d0c0e 	andeq	r0, sp, lr, lsl #24
  88:	00000014 	andeq	r0, r0, r4, lsl r0
  8c:	00000078 	andeq	r0, r0, r8, ror r0
  90:	0000815c 	andeq	r8, r0, ip, asr r1
  94:	000000b0 	strheq	r0, [r0], -r0	; <UNPREDICTABLE>
  98:	8e040e42 	cdphi	14, 0, cr0, cr4, cr2, {2}
  9c:	100e4201 	andne	r4, lr, r1, lsl #4
  a0:	00000014 	andeq	r0, r0, r4, lsl r0
  a4:	00000078 	andeq	r0, r0, r8, ror r0
  a8:	0000820c 	andeq	r8, r0, ip, lsl #4
  ac:	000000dc 	ldrdeq	r0, [r0], -ip
  b0:	8e040e42 	cdphi	14, 0, cr0, cr4, cr2, {2}
  b4:	100e4201 	andne	r4, lr, r1, lsl #4
  b8:	00000014 	andeq	r0, r0, r4, lsl r0
  bc:	00000078 	andeq	r0, r0, r8, ror r0
  c0:	000082e8 	andeq	r8, r0, r8, ror #5
  c4:	0000003c 	andeq	r0, r0, ip, lsr r0
  c8:	83080e42 	movwhi	r0, #36418	; 0x8e42
  cc:	00018e02 	andeq	r8, r1, r2, lsl #28
  d0:	0000000c 	andeq	r0, r0, ip
  d4:	00000078 	andeq	r0, r0, r8, ror r0
  d8:	00008324 	andeq	r8, r0, r4, lsr #6
  dc:	00000034 	andeq	r0, r0, r4, lsr r0
  e0:	00000014 	andeq	r0, r0, r4, lsl r0
  e4:	00000078 	andeq	r0, r0, r8, ror r0
  e8:	00008358 	andeq	r8, r0, r8, asr r3
  ec:	00000098 	muleq	r0, r8, r0
  f0:	8e040e42 	cdphi	14, 0, cr0, cr4, cr2, {2}
  f4:	100e4201 	andne	r4, lr, r1, lsl #4
  f8:	0000000c 	andeq	r0, r0, ip
  fc:	00000078 	andeq	r0, r0, r8, ror r0
 100:	000083f0 	strdeq	r8, [r0], -r0
 104:	00000004 	andeq	r0, r0, r4
 108:	00000014 	andeq	r0, r0, r4, lsl r0
 10c:	00000078 	andeq	r0, r0, r8, ror r0
 110:	000083f4 	strdeq	r8, [r0], -r4
 114:	0000002c 	andeq	r0, r0, ip, lsr #32
 118:	83080e42 	movwhi	r0, #36418	; 0x8e42
 11c:	00018e02 	andeq	r8, r1, r2, lsl #28
 120:	0000000c 	andeq	r0, r0, ip
 124:	00000078 	andeq	r0, r0, r8, ror r0
 128:	00008420 	andeq	r8, r0, r0, lsr #8
 12c:	00000034 	andeq	r0, r0, r4, lsr r0
 130:	0000000c 	andeq	r0, r0, ip
 134:	00000078 	andeq	r0, r0, r8, ror r0
 138:	00008454 	andeq	r8, r0, r4, asr r4
 13c:	00000010 	andeq	r0, r0, r0, lsl r0
 140:	00000014 	andeq	r0, r0, r4, lsl r0
 144:	00000078 	andeq	r0, r0, r8, ror r0
 148:	00008464 	andeq	r8, r0, r4, ror #8
 14c:	00000060 	andeq	r0, r0, r0, rrx
 150:	83080e42 	movwhi	r0, #36418	; 0x8e42
 154:	00018e02 	andeq	r8, r1, r2, lsl #28
 158:	0000000c 	andeq	r0, r0, ip
 15c:	ffffffff 			; <UNDEFINED> instruction: 0xffffffff
 160:	7c020001 	stcvc	0, cr0, [r2], {1}
 164:	000d0c0e 	andeq	r0, sp, lr, lsl #24
 168:	00000018 	andeq	r0, r0, r8, lsl r0
 16c:	00000158 	andeq	r0, r0, r8, asr r1
 170:	000085ec 	andeq	r8, r0, ip, ror #11
 174:	00000198 	muleq	r0, r8, r1
 178:	840c0e42 	strhi	r0, [ip], #-3650	; 0xe42
 17c:	8e028503 	cfsh32hi	mvfx8, mvfx2, #3
 180:	180e4201 	stmdane	lr, {r0, r9, lr}
 184:	00000024 	andeq	r0, r0, r4, lsr #32
 188:	00000158 	andeq	r0, r0, r8, asr r1
 18c:	00008784 	andeq	r8, r0, r4, lsl #15
 190:	000004e0 	andeq	r0, r0, r0, ror #9
 194:	84240e42 	strthi	r0, [r4], #-3650	; 0xe42
 198:	86088509 	strhi	r8, [r8], -r9, lsl #10
 19c:	88068707 	stmdahi	r6, {r0, r1, r2, r8, r9, sl, pc}
 1a0:	8a048905 	bhi	1225bc <__bss_end__+0x118064>
 1a4:	8e028b03 	vmlahi.f64	d8, d2, d3
 1a8:	300e4201 	andcc	r4, lr, r1, lsl #4
 1ac:	00000018 	andeq	r0, r0, r8, lsl r0
 1b0:	00000158 	andeq	r0, r0, r8, asr r1
 1b4:	00008c64 	andeq	r8, r0, r4, ror #24
 1b8:	00000084 	andeq	r0, r0, r4, lsl #1
 1bc:	83100e42 	tsthi	r0, #1056	; 0x420
 1c0:	85038404 	strhi	r8, [r3, #-1028]	; 0x404
 1c4:	00018e02 	andeq	r8, r1, r2, lsl #28
 1c8:	0000000c 	andeq	r0, r0, ip
 1cc:	00000158 	andeq	r0, r0, r8, asr r1
 1d0:	00008ce8 	andeq	r8, r0, r8, ror #25
 1d4:	00000028 	andeq	r0, r0, r8, lsr #32
 1d8:	00000014 	andeq	r0, r0, r4, lsl r0
 1dc:	00000158 	andeq	r0, r0, r8, asr r1
 1e0:	00008d10 	andeq	r8, r0, r0, lsl sp
 1e4:	0000004c 	andeq	r0, r0, ip, asr #32
 1e8:	84080e42 	strhi	r0, [r8], #-3650	; 0xe42
 1ec:	00018e02 	andeq	r8, r1, r2, lsl #28
 1f0:	0000000c 	andeq	r0, r0, ip
 1f4:	ffffffff 			; <UNDEFINED> instruction: 0xffffffff
 1f8:	7c020001 	stcvc	0, cr0, [r2], {1}
 1fc:	000d0c0e 	andeq	r0, sp, lr, lsl #24
 200:	00000024 	andeq	r0, r0, r4, lsr #32
 204:	000001f0 	strdeq	r0, [r0], -r0	; <UNPREDICTABLE>
 208:	00008d5c 	andeq	r8, r0, ip, asr sp
 20c:	00000058 	andeq	r0, r0, r8, asr r0
 210:	80100e42 	andshi	r0, r0, r2, asr #28
 214:	82038104 	andhi	r8, r3, #4, 2
 218:	42018302 	andmi	r8, r1, #134217728	; 0x8000000
 21c:	07841c0e 	streq	r1, [r4, lr, lsl #24]
 220:	058e0685 	streq	r0, [lr, #1669]	; 0x685
 224:	00280e42 	eoreq	r0, r8, r2, asr #28
 228:	0000000c 	andeq	r0, r0, ip
 22c:	ffffffff 			; <UNDEFINED> instruction: 0xffffffff
 230:	7c020001 	stcvc	0, cr0, [r2], {1}
 234:	000d0c0e 	andeq	r0, sp, lr, lsl #24
 238:	00000014 	andeq	r0, r0, r4, lsl r0
 23c:	00000228 	andeq	r0, r0, r8, lsr #4
 240:	00008db4 			; <UNDEFINED> instruction: 0x00008db4
 244:	00000014 	andeq	r0, r0, r4, lsl r0
 248:	84080e42 	strhi	r0, [r8], #-3650	; 0xe42
 24c:	00018e02 	andeq	r8, r1, r2, lsl #28
 250:	0000000c 	andeq	r0, r0, ip
 254:	00000228 	andeq	r0, r0, r8, lsr #4
 258:	00008dc8 	andeq	r8, r0, r8, asr #27
 25c:	00000018 	andeq	r0, r0, r8, lsl r0
 260:	0000000c 	andeq	r0, r0, ip
 264:	00000228 	andeq	r0, r0, r8, lsr #4
 268:	00008de0 	andeq	r8, r0, r0, ror #27
 26c:	00000010 	andeq	r0, r0, r0, lsl r0
 270:	0000000c 	andeq	r0, r0, ip
 274:	ffffffff 			; <UNDEFINED> instruction: 0xffffffff
 278:	7c020001 	stcvc	0, cr0, [r2], {1}
 27c:	000d0c0e 	andeq	r0, sp, lr, lsl #24
 280:	00000018 	andeq	r0, r0, r8, lsl r0
 284:	00000270 	andeq	r0, r0, r0, ror r2
 288:	00008df0 	strdeq	r8, [r0], -r0
 28c:	00000034 	andeq	r0, r0, r4, lsr r0
 290:	83100e42 	tsthi	r0, #1056	; 0x420
 294:	85038404 	strhi	r8, [r3, #-1028]	; 0x404
 298:	00018e02 	andeq	r8, r1, r2, lsl #28
 29c:	0000000c 	andeq	r0, r0, ip
 2a0:	ffffffff 			; <UNDEFINED> instruction: 0xffffffff
 2a4:	7c020001 	stcvc	0, cr0, [r2], {1}
 2a8:	000d0c0e 	andeq	r0, sp, lr, lsl #24
 2ac:	0000000c 	andeq	r0, r0, ip
 2b0:	0000029c 	muleq	r0, ip, r2
 2b4:	00008e24 	andeq	r8, r0, r4, lsr #28
 2b8:	00000014 	andeq	r0, r0, r4, lsl r0
 2bc:	0000000c 	andeq	r0, r0, ip
 2c0:	0000029c 	muleq	r0, ip, r2
 2c4:	00008e38 	andeq	r8, r0, r8, lsr lr
 2c8:	0000002c 	andeq	r0, r0, ip, lsr #32
 2cc:	0000000c 	andeq	r0, r0, ip
 2d0:	0000029c 	muleq	r0, ip, r2
 2d4:	00008e64 	andeq	r8, r0, r4, ror #28
 2d8:	00000040 	andeq	r0, r0, r0, asr #32
 2dc:	00000020 	andeq	r0, r0, r0, lsr #32
 2e0:	0000029c 	muleq	r0, ip, r2
 2e4:	00008ea4 	andeq	r8, r0, r4, lsr #29
 2e8:	000001bc 			; <UNDEFINED> instruction: 0x000001bc
 2ec:	84180e42 	ldrhi	r0, [r8], #-3650	; 0xe42
 2f0:	86058506 	strhi	r8, [r5], -r6, lsl #10
 2f4:	88038704 	stmdahi	r3, {r2, r8, r9, sl, pc}
 2f8:	42018e02 	andmi	r8, r1, #2, 28
 2fc:	0000600e 	andeq	r6, r0, lr
 300:	00000014 	andeq	r0, r0, r4, lsl r0
 304:	0000029c 	muleq	r0, ip, r2
 308:	00009060 	andeq	r9, r0, r0, rrx
 30c:	00000068 	andeq	r0, r0, r8, rrx
 310:	8e040e42 	cdphi	14, 0, cr0, cr4, cr2, {2}
 314:	100e4201 	andne	r4, lr, r1, lsl #4
 318:	00000028 	andeq	r0, r0, r8, lsr #32
 31c:	0000029c 	muleq	r0, ip, r2
 320:	000090c8 	andeq	r9, r0, r8, asr #1
 324:	000002d4 	ldrdeq	r0, [r0], -r4
 328:	84240e42 	strthi	r0, [r4], #-3650	; 0xe42
 32c:	86088509 	strhi	r8, [r8], -r9, lsl #10
 330:	88068707 	stmdahi	r6, {r0, r1, r2, r8, r9, sl, pc}
 334:	8a048905 	bhi	122750 <__bss_end__+0x1181f8>
 338:	8e028b03 	vmlahi.f64	d8, d2, d3
 33c:	b80e4201 	stmdalt	lr, {r0, r9, lr}
 340:	00000001 	andeq	r0, r0, r1
 344:	0000000c 	andeq	r0, r0, ip
 348:	ffffffff 			; <UNDEFINED> instruction: 0xffffffff
 34c:	7c020001 	stcvc	0, cr0, [r2], {1}
 350:	000d0c0e 	andeq	r0, sp, lr, lsl #24
 354:	0000000c 	andeq	r0, r0, ip
 358:	00000344 	andeq	r0, r0, r4, asr #6
 35c:	0000939c 	muleq	r0, ip, r3
 360:	00000010 	andeq	r0, r0, r0, lsl r0
 364:	0000000c 	andeq	r0, r0, ip
 368:	00000344 	andeq	r0, r0, r4, asr #6
 36c:	000093ac 	andeq	r9, r0, ip, lsr #7
 370:	00000010 	andeq	r0, r0, r0, lsl r0
 374:	0000000c 	andeq	r0, r0, ip
 378:	ffffffff 			; <UNDEFINED> instruction: 0xffffffff
 37c:	7c020001 	stcvc	0, cr0, [r2], {1}
 380:	000d0c0e 	andeq	r0, sp, lr, lsl #24
 384:	00000014 	andeq	r0, r0, r4, lsl r0
 388:	00000374 	andeq	r0, r0, r4, ror r3
 38c:	000093bc 			; <UNDEFINED> instruction: 0x000093bc
 390:	0000002c 	andeq	r0, r0, ip, lsr #32
 394:	83080e42 	movwhi	r0, #36418	; 0x8e42
 398:	00018e02 	andeq	r8, r1, r2, lsl #28
 39c:	0000000c 	andeq	r0, r0, ip
 3a0:	ffffffff 			; <UNDEFINED> instruction: 0xffffffff
 3a4:	7c020001 	stcvc	0, cr0, [r2], {1}
 3a8:	000d0c0e 	andeq	r0, sp, lr, lsl #24
 3ac:	00000014 	andeq	r0, r0, r4, lsl r0
 3b0:	0000039c 	muleq	r0, ip, r3
 3b4:	000093e8 	andeq	r9, r0, r8, ror #7
 3b8:	00000038 	andeq	r0, r0, r8, lsr r0
 3bc:	83080e42 	movwhi	r0, #36418	; 0x8e42
 3c0:	00018e02 	andeq	r8, r1, r2, lsl #28
 3c4:	0000000c 	andeq	r0, r0, ip
 3c8:	ffffffff 			; <UNDEFINED> instruction: 0xffffffff
 3cc:	7c020001 	stcvc	0, cr0, [r2], {1}
 3d0:	000d0c0e 	andeq	r0, sp, lr, lsl #24
 3d4:	00000014 	andeq	r0, r0, r4, lsl r0
 3d8:	000003c4 	andeq	r0, r0, r4, asr #7
 3dc:	00009420 	andeq	r9, r0, r0, lsr #8
 3e0:	00000044 	andeq	r0, r0, r4, asr #32
 3e4:	8e040e42 	cdphi	14, 0, cr0, cr4, cr2, {2}
 3e8:	100e4201 	andne	r4, lr, r1, lsl #4
 3ec:	0000000c 	andeq	r0, r0, ip
 3f0:	ffffffff 			; <UNDEFINED> instruction: 0xffffffff
 3f4:	7c020001 	stcvc	0, cr0, [r2], {1}
 3f8:	000d0c0e 	andeq	r0, sp, lr, lsl #24
 3fc:	00000014 	andeq	r0, r0, r4, lsl r0
 400:	000003ec 	andeq	r0, r0, ip, ror #7
 404:	00009464 	andeq	r9, r0, r4, ror #8
 408:	00000044 	andeq	r0, r0, r4, asr #32
 40c:	8e040e42 	cdphi	14, 0, cr0, cr4, cr2, {2}
 410:	100e4201 	andne	r4, lr, r1, lsl #4
 414:	0000000c 	andeq	r0, r0, ip
 418:	ffffffff 			; <UNDEFINED> instruction: 0xffffffff
 41c:	7c020001 	stcvc	0, cr0, [r2], {1}
 420:	000d0c0e 	andeq	r0, sp, lr, lsl #24
 424:	00000014 	andeq	r0, r0, r4, lsl r0
 428:	00000414 	andeq	r0, r0, r4, lsl r4
 42c:	000094a8 	andeq	r9, r0, r8, lsr #9
 430:	00000044 	andeq	r0, r0, r4, asr #32
 434:	8e040e42 	cdphi	14, 0, cr0, cr4, cr2, {2}
 438:	100e4201 	andne	r4, lr, r1, lsl #4
 43c:	0000000c 	andeq	r0, r0, ip
 440:	ffffffff 			; <UNDEFINED> instruction: 0xffffffff
 444:	7c020001 	stcvc	0, cr0, [r2], {1}
 448:	000d0c0e 	andeq	r0, sp, lr, lsl #24
 44c:	0000000c 	andeq	r0, r0, ip
 450:	0000043c 	andeq	r0, r0, ip, lsr r4
 454:	000094ec 	andeq	r9, r0, ip, ror #9
 458:	00000004 	andeq	r0, r0, r4
 45c:	0000000c 	andeq	r0, r0, ip
 460:	0000043c 	andeq	r0, r0, ip, lsr r4
 464:	000094f0 	strdeq	r9, [r0], -r0
 468:	00000004 	andeq	r0, r0, r4
 46c:	0000000c 	andeq	r0, r0, ip
 470:	ffffffff 			; <UNDEFINED> instruction: 0xffffffff
 474:	7c020001 	stcvc	0, cr0, [r2], {1}
 478:	000d0c0e 	andeq	r0, sp, lr, lsl #24
 47c:	00000014 	andeq	r0, r0, r4, lsl r0
 480:	0000046c 	andeq	r0, r0, ip, ror #8
 484:	000094f4 	strdeq	r9, [r0], -r4
 488:	0000006c 	andeq	r0, r0, ip, rrx
 48c:	83080e42 	movwhi	r0, #36418	; 0x8e42
 490:	00018e02 	andeq	r8, r1, r2, lsl #28
 494:	0000000c 	andeq	r0, r0, ip
 498:	ffffffff 			; <UNDEFINED> instruction: 0xffffffff
 49c:	7c020001 	stcvc	0, cr0, [r2], {1}
 4a0:	000d0c0e 	andeq	r0, sp, lr, lsl #24
 4a4:	0000000c 	andeq	r0, r0, ip
 4a8:	00000494 	muleq	r0, r4, r4
 4ac:	00009560 	andeq	r9, r0, r0, ror #10
 4b0:	00000018 	andeq	r0, r0, r8, lsl r0
 4b4:	0000000c 	andeq	r0, r0, ip
 4b8:	00000494 	muleq	r0, r4, r4
 4bc:	00009578 	andeq	r9, r0, r8, ror r5
 4c0:	00000014 	andeq	r0, r0, r4, lsl r0
 4c4:	00000014 	andeq	r0, r0, r4, lsl r0
 4c8:	00000494 	muleq	r0, r4, r4
 4cc:	0000958c 	andeq	r9, r0, ip, lsl #11
 4d0:	00000048 	andeq	r0, r0, r8, asr #32
 4d4:	83080e42 	movwhi	r0, #36418	; 0x8e42
 4d8:	00018e02 	andeq	r8, r1, r2, lsl #28
 4dc:	0000000c 	andeq	r0, r0, ip
 4e0:	ffffffff 			; <UNDEFINED> instruction: 0xffffffff
 4e4:	7c020001 	stcvc	0, cr0, [r2], {1}
 4e8:	000d0c0e 	andeq	r0, sp, lr, lsl #24
 4ec:	0000000c 	andeq	r0, r0, ip
 4f0:	000004dc 	ldrdeq	r0, [r0], -ip
 4f4:	000095d4 	ldrdeq	r9, [r0], -r4
 4f8:	0000001c 	andeq	r0, r0, ip, lsl r0
 4fc:	00000014 	andeq	r0, r0, r4, lsl r0
 500:	000004dc 	ldrdeq	r0, [r0], -ip
 504:	000095f0 	strdeq	r9, [r0], -r0
 508:	00000014 	andeq	r0, r0, r4, lsl r0
 50c:	83080e42 	movwhi	r0, #36418	; 0x8e42
 510:	00018e02 	andeq	r8, r1, r2, lsl #28
 514:	00000014 	andeq	r0, r0, r4, lsl r0
 518:	000004dc 	ldrdeq	r0, [r0], -ip
 51c:	00009604 	andeq	r9, r0, r4, lsl #12
 520:	0000001c 	andeq	r0, r0, ip, lsl r0
 524:	84080e42 	strhi	r0, [r8], #-3650	; 0xe42
 528:	00018e02 	andeq	r8, r1, r2, lsl #28
 52c:	00000018 	andeq	r0, r0, r8, lsl r0
 530:	000004dc 	ldrdeq	r0, [r0], -ip
 534:	00009620 	andeq	r9, r0, r0, lsr #12
 538:	00000024 	andeq	r0, r0, r4, lsr #32
 53c:	83100e42 	tsthi	r0, #1056	; 0x420
 540:	85038404 	strhi	r8, [r3, #-1028]	; 0x404
 544:	00018e02 	andeq	r8, r1, r2, lsl #28
 548:	00000014 	andeq	r0, r0, r4, lsl r0
 54c:	000004dc 	ldrdeq	r0, [r0], -ip
 550:	00009644 	andeq	r9, r0, r4, asr #12
 554:	00000014 	andeq	r0, r0, r4, lsl r0
 558:	83080e42 	movwhi	r0, #36418	; 0x8e42
 55c:	00018e02 	andeq	r8, r1, r2, lsl #28
 560:	00000014 	andeq	r0, r0, r4, lsl r0
 564:	000004dc 	ldrdeq	r0, [r0], -ip
 568:	00009658 	andeq	r9, r0, r8, asr r6
 56c:	00000014 	andeq	r0, r0, r4, lsl r0
 570:	83080e42 	movwhi	r0, #36418	; 0x8e42
 574:	00018e02 	andeq	r8, r1, r2, lsl #28
 578:	0000000c 	andeq	r0, r0, ip
 57c:	ffffffff 			; <UNDEFINED> instruction: 0xffffffff
 580:	7c020001 	stcvc	0, cr0, [r2], {1}
 584:	000d0c0e 	andeq	r0, sp, lr, lsl #24
 588:	00000018 	andeq	r0, r0, r8, lsl r0
 58c:	00000578 	andeq	r0, r0, r8, ror r5
 590:	000096d0 	ldrdeq	r9, [r0], -r0
 594:	00000020 	andeq	r0, r0, r0, lsr #32
 598:	84100e42 	ldrhi	r0, [r0], #-3650	; 0xe42
 59c:	86038504 	strhi	r8, [r3], -r4, lsl #10
 5a0:	00018e02 	andeq	r8, r1, r2, lsl #28
 5a4:	00000014 	andeq	r0, r0, r4, lsl r0
 5a8:	00000578 	andeq	r0, r0, r8, ror r5
 5ac:	000096f0 	strdeq	r9, [r0], -r0
 5b0:	000000b0 	strheq	r0, [r0], -r0	; <UNPREDICTABLE>
 5b4:	84080e42 	strhi	r0, [r8], #-3650	; 0xe42
 5b8:	00018e02 	andeq	r8, r1, r2, lsl #28
 5bc:	00000014 	andeq	r0, r0, r4, lsl r0
 5c0:	00000578 	andeq	r0, r0, r8, ror r5
 5c4:	000097a0 	andeq	r9, r0, r0, lsr #15
 5c8:	00000018 	andeq	r0, r0, r8, lsl r0
 5cc:	84080e42 	strhi	r0, [r8], #-3650	; 0xe42
 5d0:	00018e02 	andeq	r8, r1, r2, lsl #28
 5d4:	00000014 	andeq	r0, r0, r4, lsl r0
 5d8:	00000578 	andeq	r0, r0, r8, ror r5
 5dc:	000097b8 			; <UNDEFINED> instruction: 0x000097b8
 5e0:	00000020 	andeq	r0, r0, r0, lsr #32
 5e4:	84080e42 	strhi	r0, [r8], #-3650	; 0xe42
 5e8:	00018e02 	andeq	r8, r1, r2, lsl #28
 5ec:	00000014 	andeq	r0, r0, r4, lsl r0
 5f0:	00000578 	andeq	r0, r0, r8, ror r5
 5f4:	000097d8 	ldrdeq	r9, [r0], -r8
 5f8:	00000030 	andeq	r0, r0, r0, lsr r0
 5fc:	84080e42 	strhi	r0, [r8], #-3650	; 0xe42
 600:	00018e02 	andeq	r8, r1, r2, lsl #28
 604:	00000014 	andeq	r0, r0, r4, lsl r0
 608:	00000578 	andeq	r0, r0, r8, ror r5
 60c:	00009808 	andeq	r9, r0, r8, lsl #16
 610:	00000030 	andeq	r0, r0, r0, lsr r0
 614:	84080e42 	strhi	r0, [r8], #-3650	; 0xe42
 618:	00018e02 	andeq	r8, r1, r2, lsl #28
 61c:	00000014 	andeq	r0, r0, r4, lsl r0
 620:	00000578 	andeq	r0, r0, r8, ror r5
 624:	00009838 	andeq	r9, r0, r8, lsr r8
 628:	00000010 	andeq	r0, r0, r0, lsl r0
 62c:	84080e42 	strhi	r0, [r8], #-3650	; 0xe42
 630:	00018e02 	andeq	r8, r1, r2, lsl #28
 634:	0000000c 	andeq	r0, r0, ip
 638:	ffffffff 			; <UNDEFINED> instruction: 0xffffffff
 63c:	7c020001 	stcvc	0, cr0, [r2], {1}
 640:	000d0c0e 	andeq	r0, sp, lr, lsl #24
 644:	00000018 	andeq	r0, r0, r8, lsl r0
 648:	00000634 	andeq	r0, r0, r4, lsr r6
 64c:	00009848 	andeq	r9, r0, r8, asr #16
 650:	00000068 	andeq	r0, r0, r8, rrx
 654:	84100e4a 	ldrhi	r0, [r0], #-3658	; 0xe4a
 658:	86038504 	strhi	r8, [r3], -r4, lsl #10
 65c:	00018e02 	andeq	r8, r1, r2, lsl #28
 660:	00000014 	andeq	r0, r0, r4, lsl r0
 664:	00000634 	andeq	r0, r0, r4, lsr r6
 668:	000098b0 			; <UNDEFINED> instruction: 0x000098b0
 66c:	00000010 	andeq	r0, r0, r0, lsl r0
 670:	84080e42 	strhi	r0, [r8], #-3650	; 0xe42
 674:	00018e02 	andeq	r8, r1, r2, lsl #28
 678:	00000014 	andeq	r0, r0, r4, lsl r0
 67c:	00000634 	andeq	r0, r0, r4, lsr r6
 680:	000098c0 	andeq	r9, r0, r0, asr #17
 684:	00000024 	andeq	r0, r0, r4, lsr #32
 688:	84080e46 	strhi	r0, [r8], #-3654	; 0xe46
 68c:	00018e02 	andeq	r8, r1, r2, lsl #28
 690:	00000014 	andeq	r0, r0, r4, lsl r0
 694:	00000634 	andeq	r0, r0, r4, lsr r6
 698:	000098e4 	andeq	r9, r0, r4, ror #17
 69c:	00000024 	andeq	r0, r0, r4, lsr #32
 6a0:	84080e46 	strhi	r0, [r8], #-3654	; 0xe46
 6a4:	00018e02 	andeq	r8, r1, r2, lsl #28
 6a8:	00000014 	andeq	r0, r0, r4, lsl r0
 6ac:	00000634 	andeq	r0, r0, r4, lsr r6
 6b0:	00009908 	andeq	r9, r0, r8, lsl #18
 6b4:	00000010 	andeq	r0, r0, r0, lsl r0
 6b8:	84080e42 	strhi	r0, [r8], #-3650	; 0xe42
 6bc:	00018e02 	andeq	r8, r1, r2, lsl #28
 6c0:	00000014 	andeq	r0, r0, r4, lsl r0
 6c4:	00000634 	andeq	r0, r0, r4, lsr r6
 6c8:	00009918 	andeq	r9, r0, r8, lsl r9
 6cc:	0000001c 	andeq	r0, r0, ip, lsl r0
 6d0:	84080e42 	strhi	r0, [r8], #-3650	; 0xe42
 6d4:	00018e02 	andeq	r8, r1, r2, lsl #28
 6d8:	00000018 	andeq	r0, r0, r8, lsl r0
 6dc:	00000634 	andeq	r0, r0, r4, lsr r6
 6e0:	00009934 	andeq	r9, r0, r4, lsr r9
 6e4:	00000034 	andeq	r0, r0, r4, lsr r0
 6e8:	84080e46 	strhi	r0, [r8], #-3654	; 0xe46
 6ec:	4e018e02 	cdpmi	14, 0, cr8, cr1, cr2, {0}
 6f0:	cec4000e 	cdpgt	0, 12, cr0, cr4, cr14, {0}

Disassembly of section .debug_ranges:

00000000 <.debug_ranges>:
   0:	00009560 	andeq	r9, r0, r0, ror #10
   4:	000095d4 	ldrdeq	r9, [r0], -r4
	...
