
tests/16-part1-test3.elf:     file format elf32-littlearm


Disassembly of section .text:

00008000 <__code_start__>:
    8000:	e3a00013 	mov	r0, #19
    8004:	e129f000 	msr	CPSR_fc, r0
    8008:	e3a00000 	mov	r0, #0
    800c:	ee073f95 	mcr	15, 0, r3, cr7, cr5, {4}
    8010:	e3a0d302 	mov	sp, #134217728	; 0x8000000
    8014:	e3a0b000 	mov	fp, #0
    8018:	eb0003c0 	bl	8f20 <_cstart>
    801c:	eb000439 	bl	9108 <rpi_reboot>

00008020 <user_test>:
    8020:	e92d4008 	push	{r3, lr}
    8024:	e3a03000 	mov	r3, #0
    8028:	e59f0050 	ldr	r0, [pc, #80]	; 8080 <user_test+0x60>
    802c:	e59f2050 	ldr	r2, [pc, #80]	; 8084 <user_test+0x64>
    8030:	ea000003 	b	8044 <user_test+0x24>
    8034:	e5921000 	ldr	r1, [r2]
    8038:	e2811001 	add	r1, r1, #1
    803c:	e5821000 	str	r1, [r2]
    8040:	e2833001 	add	r3, r3, #1
    8044:	e1530000 	cmp	r3, r0
    8048:	dafffff9 	ble	8034 <user_test+0x14>
    804c:	e59f3034 	ldr	r3, [pc, #52]	; 8088 <user_test+0x68>
    8050:	e5933000 	ldr	r3, [r3]
    8054:	e3530000 	cmp	r3, #0
    8058:	0a000004 	beq	8070 <user_test+0x50>
    805c:	e59f0028 	ldr	r0, [pc, #40]	; 808c <user_test+0x6c>
    8060:	e59f1028 	ldr	r1, [pc, #40]	; 8090 <user_test+0x70>
    8064:	e59f2028 	ldr	r2, [pc, #40]	; 8094 <user_test+0x74>
    8068:	e3a0300f 	mov	r3, #15
    806c:	eb000208 	bl	8894 <printk>
    8070:	e3a02001 	mov	r2, #1
    8074:	e59f301c 	ldr	r3, [pc, #28]	; 8098 <user_test+0x78>
    8078:	e5832000 	str	r2, [r3]
    807c:	e8bd8008 	pop	{r3, pc}
    8080:	0000270f 	andeq	r2, r0, pc, lsl #14
    8084:	00009ba4 	andeq	r9, r0, r4, lsr #23
    8088:	00009bb0 			; <UNDEFINED> instruction: 0x00009bb0
    808c:	000094f0 	strdeq	r9, [r0], -r0
    8090:	0000950c 	andeq	r9, r0, ip, lsl #10
    8094:	0000975c 	andeq	r9, r0, ip, asr r7
    8098:	00009ba0 	andeq	r9, r0, r0, lsr #23

0000809c <single_step_handler>:
    809c:	e92d4010 	push	{r4, lr}
    80a0:	e24dd008 	sub	sp, sp, #8
    80a4:	e1a04001 	mov	r4, r1
    80a8:	e59f311c 	ldr	r3, [pc, #284]	; 81cc <single_step_handler+0x130>
    80ac:	e5933000 	ldr	r3, [r3]
    80b0:	e3530000 	cmp	r3, #0
    80b4:	0a000007 	beq	80d8 <single_step_handler+0x3c>
    80b8:	e58d1000 	str	r1, [sp]
    80bc:	e59f310c 	ldr	r3, [pc, #268]	; 81d0 <single_step_handler+0x134>
    80c0:	e58d3004 	str	r3, [sp, #4]
    80c4:	e59f0108 	ldr	r0, [pc, #264]	; 81d4 <single_step_handler+0x138>
    80c8:	e59f1108 	ldr	r1, [pc, #264]	; 81d8 <single_step_handler+0x13c>
    80cc:	e59f2108 	ldr	r2, [pc, #264]	; 81dc <single_step_handler+0x140>
    80d0:	e3a03015 	mov	r3, #21
    80d4:	eb0001ee 	bl	8894 <printk>
    80d8:	ee153f30 	mrc	15, 0, r3, cr5, cr0, {1}
    80dc:	e203300f 	and	r3, r3, #15
    80e0:	e3530002 	cmp	r3, #2
    80e4:	0a000006 	beq	8104 <single_step_handler+0x68>
    80e8:	eb000204 	bl	8900 <rpi_reset_putc>
    80ec:	e59f00ec 	ldr	r0, [pc, #236]	; 81e0 <single_step_handler+0x144>
    80f0:	e59f10e0 	ldr	r1, [pc, #224]	; 81d8 <single_step_handler+0x13c>
    80f4:	e59f20e0 	ldr	r2, [pc, #224]	; 81dc <single_step_handler+0x140>
    80f8:	e3a03018 	mov	r3, #24
    80fc:	eb0001e4 	bl	8894 <printk>
    8100:	eb00037b 	bl	8ef4 <clean_reboot>
    8104:	e59f30d8 	ldr	r3, [pc, #216]	; 81e4 <single_step_handler+0x148>
    8108:	e5933000 	ldr	r3, [r3]
    810c:	e3530000 	cmp	r3, #0
    8110:	0a000014 	beq	8168 <single_step_handler+0xcc>
    8114:	e59f30cc 	ldr	r3, [pc, #204]	; 81e8 <single_step_handler+0x14c>
    8118:	e5932000 	ldr	r2, [r3]
    811c:	e59f30c8 	ldr	r3, [pc, #200]	; 81ec <single_step_handler+0x150>
    8120:	e1520003 	cmp	r2, r3
    8124:	0a000008 	beq	814c <single_step_handler+0xb0>
    8128:	eb0001f4 	bl	8900 <rpi_reset_putc>
    812c:	e59f30bc 	ldr	r3, [pc, #188]	; 81f0 <single_step_handler+0x154>
    8130:	e58d3000 	str	r3, [sp]
    8134:	e59f00b8 	ldr	r0, [pc, #184]	; 81f4 <single_step_handler+0x158>
    8138:	e59f1098 	ldr	r1, [pc, #152]	; 81d8 <single_step_handler+0x13c>
    813c:	e59f2098 	ldr	r2, [pc, #152]	; 81dc <single_step_handler+0x140>
    8140:	e3a0301b 	mov	r3, #27
    8144:	eb0001d2 	bl	8894 <printk>
    8148:	eb000369 	bl	8ef4 <clean_reboot>
    814c:	e59f00a4 	ldr	r0, [pc, #164]	; 81f8 <single_step_handler+0x15c>
    8150:	eb0001cf 	bl	8894 <printk>
    8154:	e59f308c 	ldr	r3, [pc, #140]	; 81e8 <single_step_handler+0x14c>
    8158:	e5931000 	ldr	r1, [r3]
    815c:	e59f0098 	ldr	r0, [pc, #152]	; 81fc <single_step_handler+0x160>
    8160:	eb0001cb 	bl	8894 <printk>
    8164:	eb000362 	bl	8ef4 <clean_reboot>
    8168:	e59f305c 	ldr	r3, [pc, #92]	; 81cc <single_step_handler+0x130>
    816c:	e5933000 	ldr	r3, [r3]
    8170:	e3530000 	cmp	r3, #0
    8174:	0a000005 	beq	8190 <single_step_handler+0xf4>
    8178:	e58d4000 	str	r4, [sp]
    817c:	e59f007c 	ldr	r0, [pc, #124]	; 8200 <single_step_handler+0x164>
    8180:	e59f1050 	ldr	r1, [pc, #80]	; 81d8 <single_step_handler+0x13c>
    8184:	e59f2050 	ldr	r2, [pc, #80]	; 81dc <single_step_handler+0x140>
    8188:	e3a0301e 	mov	r3, #30
    818c:	eb0001c0 	bl	8894 <printk>
    8190:	e1a00004 	mov	r0, r4
    8194:	e59f1068 	ldr	r1, [pc, #104]	; 8204 <single_step_handler+0x168>
    8198:	eb000157 	bl	86fc <brkpt_mismatch_set0>
    819c:	e59f3028 	ldr	r3, [pc, #40]	; 81cc <single_step_handler+0x130>
    81a0:	e5933000 	ldr	r3, [r3]
    81a4:	e3530000 	cmp	r3, #0
    81a8:	0a000005 	beq	81c4 <single_step_handler+0x128>
    81ac:	e58d4000 	str	r4, [sp]
    81b0:	e59f0050 	ldr	r0, [pc, #80]	; 8208 <single_step_handler+0x16c>
    81b4:	e59f101c 	ldr	r1, [pc, #28]	; 81d8 <single_step_handler+0x13c>
    81b8:	e59f201c 	ldr	r2, [pc, #28]	; 81dc <single_step_handler+0x140>
    81bc:	e3a03020 	mov	r3, #32
    81c0:	eb0001b3 	bl	8894 <printk>
    81c4:	e28dd008 	add	sp, sp, #8
    81c8:	e8bd8010 	pop	{r4, pc}
    81cc:	00009bb0 			; <UNDEFINED> instruction: 0x00009bb0
    81d0:	00008020 	andeq	r8, r0, r0, lsr #32
    81d4:	00009524 	andeq	r9, r0, r4, lsr #10
    81d8:	0000950c 	andeq	r9, r0, ip, lsl #10
    81dc:	00009770 	andeq	r9, r0, r0, ror r7
    81e0:	00009554 	andeq	r9, r0, r4, asr r5
    81e4:	00009ba0 	andeq	r9, r0, r0, lsr #23
    81e8:	00009ba4 	andeq	r9, r0, r4, lsr #23
    81ec:	00002710 	andeq	r2, r0, r0, lsl r7
    81f0:	000095a0 	andeq	r9, r0, r0, lsr #11
    81f4:	0000958c 	andeq	r9, r0, ip, lsl #11
    81f8:	000095ac 	andeq	r9, r0, ip, lsr #11
    81fc:	000095b8 			; <UNDEFINED> instruction: 0x000095b8
    8200:	000095d8 	ldrdeq	r9, [r0], -r8
    8204:	0000809c 	muleq	r0, ip, r0
    8208:	00009600 	andeq	r9, r0, r0, lsl #12

0000820c <notmain>:
    820c:	e92d4030 	push	{r4, r5, lr}
    8210:	e24dd00c 	sub	sp, sp, #12
    8214:	eb0000ea 	bl	85c4 <cp14_enable>
    8218:	eb00032d 	bl	8ed4 <enable_cache>
    821c:	e10f5000 	mrs	r5, CPSR
    8220:	e3a02001 	mov	r2, #1
    8224:	e59f31b4 	ldr	r3, [pc, #436]	; 83e0 <notmain+0x1d4>
    8228:	e5832000 	str	r2, [r3]
    822c:	e10f4000 	mrs	r4, CPSR
    8230:	e204301f 	and	r3, r4, #31
    8234:	e3530012 	cmp	r3, #18
    8238:	13530010 	cmpne	r3, #16
    823c:	0a000005 	beq	8258 <notmain+0x4c>
    8240:	e3530017 	cmp	r3, #23
    8244:	13530013 	cmpne	r3, #19
    8248:	0a000004 	beq	8260 <notmain+0x54>
    824c:	e353001f 	cmp	r3, #31
    8250:	1a000004 	bne	8268 <notmain+0x5c>
    8254:	ea000004 	b	826c <notmain+0x60>
    8258:	e3a02001 	mov	r2, #1
    825c:	ea000002 	b	826c <notmain+0x60>
    8260:	e3a02001 	mov	r2, #1
    8264:	ea000000 	b	826c <notmain+0x60>
    8268:	e3a02000 	mov	r2, #0
    826c:	e3520000 	cmp	r2, #0
    8270:	1a000008 	bne	8298 <notmain+0x8c>
    8274:	eb0001a1 	bl	8900 <rpi_reset_putc>
    8278:	e59f3164 	ldr	r3, [pc, #356]	; 83e4 <notmain+0x1d8>
    827c:	e58d3000 	str	r3, [sp]
    8280:	e59f0160 	ldr	r0, [pc, #352]	; 83e8 <notmain+0x1dc>
    8284:	e59f1160 	ldr	r1, [pc, #352]	; 83ec <notmain+0x1e0>
    8288:	e59f2160 	ldr	r2, [pc, #352]	; 83f0 <notmain+0x1e4>
    828c:	e3a03011 	mov	r3, #17
    8290:	eb00017f 	bl	8894 <printk>
    8294:	eb000316 	bl	8ef4 <clean_reboot>
    8298:	e2433010 	sub	r3, r3, #16
    829c:	e353000f 	cmp	r3, #15
    82a0:	979ff103 	ldrls	pc, [pc, r3, lsl #2]
    82a4:	ea000019 	b	8310 <notmain+0x104>
    82a8:	00008330 	andeq	r8, r0, r0, lsr r3
    82ac:	00008338 	andeq	r8, r0, r8, lsr r3
    82b0:	000082e8 	andeq	r8, r0, r8, ror #5
    82b4:	000082f0 	strdeq	r8, [r0], -r0
    82b8:	00008310 	andeq	r8, r0, r0, lsl r3
    82bc:	00008310 	andeq	r8, r0, r0, lsl r3
    82c0:	00008310 	andeq	r8, r0, r0, lsl r3
    82c4:	000082f8 	strdeq	r8, [r0], -r8	; <UNPREDICTABLE>
    82c8:	00008310 	andeq	r8, r0, r0, lsl r3
    82cc:	00008310 	andeq	r8, r0, r0, lsl r3
    82d0:	00008310 	andeq	r8, r0, r0, lsl r3
    82d4:	00008300 	andeq	r8, r0, r0, lsl #6
    82d8:	00008310 	andeq	r8, r0, r0, lsl r3
    82dc:	00008310 	andeq	r8, r0, r0, lsl r3
    82e0:	00008310 	andeq	r8, r0, r0, lsl r3
    82e4:	00008308 	andeq	r8, r0, r8, lsl #6
    82e8:	e59f3104 	ldr	r3, [pc, #260]	; 83f4 <notmain+0x1e8>
    82ec:	ea000012 	b	833c <notmain+0x130>
    82f0:	e59f3100 	ldr	r3, [pc, #256]	; 83f8 <notmain+0x1ec>
    82f4:	ea000010 	b	833c <notmain+0x130>
    82f8:	e59f30fc 	ldr	r3, [pc, #252]	; 83fc <notmain+0x1f0>
    82fc:	ea00000e 	b	833c <notmain+0x130>
    8300:	e59f30f8 	ldr	r3, [pc, #248]	; 8400 <notmain+0x1f4>
    8304:	ea00000c 	b	833c <notmain+0x130>
    8308:	e59f30f4 	ldr	r3, [pc, #244]	; 8404 <notmain+0x1f8>
    830c:	ea00000a 	b	833c <notmain+0x130>
    8310:	eb00017a 	bl	8900 <rpi_reset_putc>
    8314:	e58d4000 	str	r4, [sp]
    8318:	e59f00e8 	ldr	r0, [pc, #232]	; 8408 <notmain+0x1fc>
    831c:	e59f10c8 	ldr	r1, [pc, #200]	; 83ec <notmain+0x1e0>
    8320:	e59f20e4 	ldr	r2, [pc, #228]	; 840c <notmain+0x200>
    8324:	e3a03021 	mov	r3, #33	; 0x21
    8328:	eb000159 	bl	8894 <printk>
    832c:	eb0002f0 	bl	8ef4 <clean_reboot>
    8330:	e59f30d8 	ldr	r3, [pc, #216]	; 8410 <notmain+0x204>
    8334:	ea000000 	b	833c <notmain+0x130>
    8338:	e59f30d4 	ldr	r3, [pc, #212]	; 8414 <notmain+0x208>
    833c:	e58d3000 	str	r3, [sp]
    8340:	e59f00d0 	ldr	r0, [pc, #208]	; 8418 <notmain+0x20c>
    8344:	e59f10d0 	ldr	r1, [pc, #208]	; 841c <notmain+0x210>
    8348:	e59f20d0 	ldr	r2, [pc, #208]	; 8420 <notmain+0x214>
    834c:	e3a0302d 	mov	r3, #45	; 0x2d
    8350:	eb00014f 	bl	8894 <printk>
    8354:	e59f3084 	ldr	r3, [pc, #132]	; 83e0 <notmain+0x1d4>
    8358:	e5933000 	ldr	r3, [r3]
    835c:	e3530000 	cmp	r3, #0
    8360:	0a000004 	beq	8378 <notmain+0x16c>
    8364:	e59f00b8 	ldr	r0, [pc, #184]	; 8424 <notmain+0x218>
    8368:	e59f10ac 	ldr	r1, [pc, #172]	; 841c <notmain+0x210>
    836c:	e59f20ac 	ldr	r2, [pc, #172]	; 8420 <notmain+0x214>
    8370:	e3a03030 	mov	r3, #48	; 0x30
    8374:	eb000146 	bl	8894 <printk>
    8378:	e3a00000 	mov	r0, #0
    837c:	e59f10a4 	ldr	r1, [pc, #164]	; 8428 <notmain+0x21c>
    8380:	eb0000dd 	bl	86fc <brkpt_mismatch_set0>
    8384:	e59f3054 	ldr	r3, [pc, #84]	; 83e0 <notmain+0x1d4>
    8388:	e5933000 	ldr	r3, [r3]
    838c:	e3530000 	cmp	r3, #0
    8390:	0a000004 	beq	83a8 <notmain+0x19c>
    8394:	e59f0090 	ldr	r0, [pc, #144]	; 842c <notmain+0x220>
    8398:	e59f107c 	ldr	r1, [pc, #124]	; 841c <notmain+0x210>
    839c:	e59f207c 	ldr	r2, [pc, #124]	; 8420 <notmain+0x214>
    83a0:	e3a03032 	mov	r3, #50	; 0x32
    83a4:	eb00013a 	bl	8894 <printk>
    83a8:	e3a02000 	mov	r2, #0
    83ac:	e59f302c 	ldr	r3, [pc, #44]	; 83e0 <notmain+0x1d4>
    83b0:	e5832000 	str	r2, [r3]
    83b4:	e3c5001f 	bic	r0, r5, #31
    83b8:	e3800010 	orr	r0, r0, #16
    83bc:	e59f106c 	ldr	r1, [pc, #108]	; 8430 <notmain+0x224>
    83c0:	eb000129 	bl	886c <user_trampoline_no_ret>
    83c4:	eb00014d 	bl	8900 <rpi_reset_putc>
    83c8:	e59f0064 	ldr	r0, [pc, #100]	; 8434 <notmain+0x228>
    83cc:	e59f1048 	ldr	r1, [pc, #72]	; 841c <notmain+0x210>
    83d0:	e59f2048 	ldr	r2, [pc, #72]	; 8420 <notmain+0x214>
    83d4:	e3a03038 	mov	r3, #56	; 0x38
    83d8:	eb00012d 	bl	8894 <printk>
    83dc:	eb0002c4 	bl	8ef4 <clean_reboot>
    83e0:	00009bb0 			; <UNDEFINED> instruction: 0x00009bb0
    83e4:	00009690 	muleq	r0, r0, r6
    83e8:	0000958c 	andeq	r9, r0, ip, lsl #11
    83ec:	00009680 	andeq	r9, r0, r0, lsl #13
    83f0:	00009790 	muleq	r0, r0, r7
    83f4:	00009644 	andeq	r9, r0, r4, asr #12
    83f8:	00009650 	andeq	r9, r0, r0, asr r6
    83fc:	0000965c 	andeq	r9, r0, ip, asr r6
    8400:	00009668 	andeq	r9, r0, r8, ror #12
    8404:	00009674 	andeq	r9, r0, r4, ror r6
    8408:	000096a4 	andeq	r9, r0, r4, lsr #13
    840c:	00009784 	andeq	r9, r0, r4, lsl #15
    8410:	0000962c 	andeq	r9, r0, ip, lsr #12
    8414:	00009638 	andeq	r9, r0, r8, lsr r6
    8418:	000096c8 	andeq	r9, r0, r8, asr #13
    841c:	0000950c 	andeq	r9, r0, ip, lsl #10
    8420:	00009768 	andeq	r9, r0, r8, ror #14
    8424:	000096e4 	andeq	r9, r0, r4, ror #13
    8428:	0000809c 	muleq	r0, ip, r0
    842c:	0000970c 	andeq	r9, r0, ip, lsl #14
    8430:	00008020 	andeq	r8, r0, r0, lsr #32
    8434:	0000972c 	andeq	r9, r0, ip, lsr #14

00008438 <watchpt_set0>:
    8438:	e52de004 	push	{lr}		; (str lr, [sp, #-4]!)
    843c:	e24dd00c 	sub	sp, sp, #12
    8440:	ee103ef0 	mrc	14, 0, r3, cr0, cr0, {7}
    8444:	e3c33001 	bic	r3, r3, #1
    8448:	ee003ef0 	mcr	14, 0, r3, cr0, cr0, {7}
    844c:	ee102ef0 	mrc	14, 0, r2, cr0, cr0, {7}
    8450:	e1530002 	cmp	r3, r2
    8454:	0a000008 	beq	847c <watchpt_set0+0x44>
    8458:	eb000128 	bl	8900 <rpi_reset_putc>
    845c:	e59f306c 	ldr	r3, [pc, #108]	; 84d0 <watchpt_set0+0x98>
    8460:	e58d3000 	str	r3, [sp]
    8464:	e59f0068 	ldr	r0, [pc, #104]	; 84d4 <watchpt_set0+0x9c>
    8468:	e59f1068 	ldr	r1, [pc, #104]	; 84d8 <watchpt_set0+0xa0>
    846c:	e59f2068 	ldr	r2, [pc, #104]	; 84dc <watchpt_set0+0xa4>
    8470:	e3a03041 	mov	r3, #65	; 0x41
    8474:	eb000106 	bl	8894 <printk>
    8478:	eb00029d 	bl	8ef4 <clean_reboot>
    847c:	ee000ed0 	mcr	14, 0, r0, cr0, cr0, {6}
    8480:	e59f3058 	ldr	r3, [pc, #88]	; 84e0 <watchpt_set0+0xa8>
    8484:	ee003ef0 	mcr	14, 0, r3, cr0, cr0, {7}
    8488:	ee102ef0 	mrc	14, 0, r2, cr0, cr0, {7}
    848c:	e1520003 	cmp	r2, r3
    8490:	0a000008 	beq	84b8 <watchpt_set0+0x80>
    8494:	eb000119 	bl	8900 <rpi_reset_putc>
    8498:	e59f3030 	ldr	r3, [pc, #48]	; 84d0 <watchpt_set0+0x98>
    849c:	e58d3000 	str	r3, [sp]
    84a0:	e59f002c 	ldr	r0, [pc, #44]	; 84d4 <watchpt_set0+0x9c>
    84a4:	e59f102c 	ldr	r1, [pc, #44]	; 84d8 <watchpt_set0+0xa0>
    84a8:	e59f202c 	ldr	r2, [pc, #44]	; 84dc <watchpt_set0+0xa4>
    84ac:	e3a03052 	mov	r3, #82	; 0x52
    84b0:	eb0000f7 	bl	8894 <printk>
    84b4:	eb00028e 	bl	8ef4 <clean_reboot>
    84b8:	e3a03000 	mov	r3, #0
    84bc:	ee073f95 	mcr	15, 0, r3, cr7, cr5, {4}
    84c0:	e59f301c 	ldr	r3, [pc, #28]	; 84e4 <watchpt_set0+0xac>
    84c4:	e5831000 	str	r1, [r3]
    84c8:	e28dd00c 	add	sp, sp, #12
    84cc:	e49df004 	pop	{pc}		; (ldr pc, [sp], #4)
    84d0:	000097d0 	ldrdeq	r9, [r0], -r0
    84d4:	0000958c 	andeq	r9, r0, ip, lsl #11
    84d8:	000097c0 	andeq	r9, r0, r0, asr #15
    84dc:	000098c4 	andeq	r9, r0, r4, asr #17
    84e0:	000001ff 	strdeq	r0, [r0], -pc	; <UNPREDICTABLE>
    84e4:	00009ba8 	andeq	r9, r0, r8, lsr #23

000084e8 <data_abort_vector>:
    84e8:	e52de004 	push	{lr}		; (str lr, [sp, #-4]!)
    84ec:	e24dd00c 	sub	sp, sp, #12
    84f0:	e1a01000 	mov	r1, r0
    84f4:	ee153f10 	mrc	15, 0, r3, cr5, cr0, {0}
    84f8:	ee153f10 	mrc	15, 0, r3, cr5, cr0, {0}
    84fc:	e203300f 	and	r3, r3, #15
    8500:	e3530002 	cmp	r3, #2
    8504:	0a000006 	beq	8524 <data_abort_vector+0x3c>
    8508:	eb0000fc 	bl	8900 <rpi_reset_putc>
    850c:	e59f008c 	ldr	r0, [pc, #140]	; 85a0 <data_abort_vector+0xb8>
    8510:	e59f108c 	ldr	r1, [pc, #140]	; 85a4 <data_abort_vector+0xbc>
    8514:	e59f208c 	ldr	r2, [pc, #140]	; 85a8 <data_abort_vector+0xc0>
    8518:	e3a03079 	mov	r3, #121	; 0x79
    851c:	eb0000dc 	bl	8894 <printk>
    8520:	eb000273 	bl	8ef4 <clean_reboot>
    8524:	ee103e16 	mrc	14, 0, r3, cr0, cr6, {0}
    8528:	e2433004 	sub	r3, r3, #4
    852c:	e1530000 	cmp	r3, r0
    8530:	0a000008 	beq	8558 <data_abort_vector+0x70>
    8534:	eb0000f1 	bl	8900 <rpi_reset_putc>
    8538:	e59f306c 	ldr	r3, [pc, #108]	; 85ac <data_abort_vector+0xc4>
    853c:	e58d3000 	str	r3, [sp]
    8540:	e59f0068 	ldr	r0, [pc, #104]	; 85b0 <data_abort_vector+0xc8>
    8544:	e59f1068 	ldr	r1, [pc, #104]	; 85b4 <data_abort_vector+0xcc>
    8548:	e59f2068 	ldr	r2, [pc, #104]	; 85b8 <data_abort_vector+0xd0>
    854c:	e3a03067 	mov	r3, #103	; 0x67
    8550:	eb0000cf 	bl	8894 <printk>
    8554:	eb000266 	bl	8ef4 <clean_reboot>
    8558:	e59f305c 	ldr	r3, [pc, #92]	; 85bc <data_abort_vector+0xd4>
    855c:	e5933000 	ldr	r3, [r3]
    8560:	e3530000 	cmp	r3, #0
    8564:	1a000008 	bne	858c <data_abort_vector+0xa4>
    8568:	eb0000e4 	bl	8900 <rpi_reset_putc>
    856c:	e59f304c 	ldr	r3, [pc, #76]	; 85c0 <data_abort_vector+0xd8>
    8570:	e58d3000 	str	r3, [sp]
    8574:	e59f0034 	ldr	r0, [pc, #52]	; 85b0 <data_abort_vector+0xc8>
    8578:	e59f1034 	ldr	r1, [pc, #52]	; 85b4 <data_abort_vector+0xcc>
    857c:	e59f2034 	ldr	r2, [pc, #52]	; 85b8 <data_abort_vector+0xd0>
    8580:	e3a03069 	mov	r3, #105	; 0x69
    8584:	eb0000c2 	bl	8894 <printk>
    8588:	eb000259 	bl	8ef4 <clean_reboot>
    858c:	ee162f10 	mrc	15, 0, r2, cr6, cr0, {0}
    8590:	e3a00000 	mov	r0, #0
    8594:	e12fff33 	blx	r3
    8598:	e28dd00c 	add	sp, sp, #12
    859c:	e49df004 	pop	{pc}		; (ldr pc, [sp], #4)
    85a0:	000097e8 	andeq	r9, r0, r8, ror #15
    85a4:	00009820 	andeq	r9, r0, r0, lsr #16
    85a8:	000098e8 	andeq	r9, r0, r8, ror #17
    85ac:	00009830 	andeq	r9, r0, r0, lsr r8
    85b0:	0000958c 	andeq	r9, r0, ip, lsl #11
    85b4:	000097c0 	andeq	r9, r0, r0, asr #15
    85b8:	000098d4 	ldrdeq	r9, [r0], -r4
    85bc:	00009ba8 	andeq	r9, r0, r8, lsr #23
    85c0:	00009844 	andeq	r9, r0, r4, asr #16

000085c4 <cp14_enable>:
    85c4:	e92d4008 	push	{r3, lr}
    85c8:	e59f302c 	ldr	r3, [pc, #44]	; 85fc <cp14_enable+0x38>
    85cc:	e5933000 	ldr	r3, [r3]
    85d0:	e3530000 	cmp	r3, #0
    85d4:	1a000003 	bne	85e8 <cp14_enable+0x24>
    85d8:	eb0002a4 	bl	9070 <int_init>
    85dc:	e3a02001 	mov	r2, #1
    85e0:	e59f3014 	ldr	r3, [pc, #20]	; 85fc <cp14_enable+0x38>
    85e4:	e5832000 	str	r2, [r3]
    85e8:	e3a03902 	mov	r3, #32768	; 0x8000
    85ec:	ee003e11 	mcr	14, 0, r3, cr0, cr1, {0}
    85f0:	e3a03000 	mov	r3, #0
    85f4:	ee073f95 	mcr	15, 0, r3, cr7, cr5, {4}
    85f8:	e8bd8008 	pop	{r3, pc}
    85fc:	00009bb8 			; <UNDEFINED> instruction: 0x00009bb8

00008600 <brkpt_set0>:
    8600:	ee103eb0 	mrc	14, 0, r3, cr0, cr0, {5}
    8604:	e3c33001 	bic	r3, r3, #1
    8608:	ee003eb0 	mcr	14, 0, r3, cr0, cr0, {5}
    860c:	ee000e90 	mcr	14, 0, r0, cr0, cr0, {4}
    8610:	e59f3014 	ldr	r3, [pc, #20]	; 862c <brkpt_set0+0x2c>
    8614:	ee003eb0 	mcr	14, 0, r3, cr0, cr0, {5}
    8618:	e3a03000 	mov	r3, #0
    861c:	ee073f95 	mcr	15, 0, r3, cr7, cr5, {4}
    8620:	e59f3008 	ldr	r3, [pc, #8]	; 8630 <brkpt_set0+0x30>
    8624:	e5831000 	str	r1, [r3]
    8628:	e12fff1e 	bx	lr
    862c:	000001e7 	andeq	r0, r0, r7, ror #3
    8630:	00009bac 	andeq	r9, r0, ip, lsr #23

00008634 <prefetch_abort_vector>:
    8634:	e52de004 	push	{lr}		; (str lr, [sp, #-4]!)
    8638:	e24dd00c 	sub	sp, sp, #12
    863c:	e1a01000 	mov	r1, r0
    8640:	ee153f30 	mrc	15, 0, r3, cr5, cr0, {1}
    8644:	e203300f 	and	r3, r3, #15
    8648:	e3530002 	cmp	r3, #2
    864c:	0a000006 	beq	866c <prefetch_abort_vector+0x38>
    8650:	eb0000aa 	bl	8900 <rpi_reset_putc>
    8654:	e59f0058 	ldr	r0, [pc, #88]	; 86b4 <prefetch_abort_vector+0x80>
    8658:	e59f1058 	ldr	r1, [pc, #88]	; 86b8 <prefetch_abort_vector+0x84>
    865c:	e59f2058 	ldr	r2, [pc, #88]	; 86bc <prefetch_abort_vector+0x88>
    8660:	e3a030c7 	mov	r3, #199	; 0xc7
    8664:	eb00008a 	bl	8894 <printk>
    8668:	eb000221 	bl	8ef4 <clean_reboot>
    866c:	e59f304c 	ldr	r3, [pc, #76]	; 86c0 <prefetch_abort_vector+0x8c>
    8670:	e5933000 	ldr	r3, [r3]
    8674:	e3530000 	cmp	r3, #0
    8678:	1a000008 	bne	86a0 <prefetch_abort_vector+0x6c>
    867c:	eb00009f 	bl	8900 <rpi_reset_putc>
    8680:	e59f303c 	ldr	r3, [pc, #60]	; 86c4 <prefetch_abort_vector+0x90>
    8684:	e58d3000 	str	r3, [sp]
    8688:	e59f0038 	ldr	r0, [pc, #56]	; 86c8 <prefetch_abort_vector+0x94>
    868c:	e59f1024 	ldr	r1, [pc, #36]	; 86b8 <prefetch_abort_vector+0x84>
    8690:	e59f2024 	ldr	r2, [pc, #36]	; 86bc <prefetch_abort_vector+0x88>
    8694:	e3a030c8 	mov	r3, #200	; 0xc8
    8698:	eb00007d 	bl	8894 <printk>
    869c:	eb000214 	bl	8ef4 <clean_reboot>
    86a0:	ee162f10 	mrc	15, 0, r2, cr6, cr0, {0}
    86a4:	e3a00000 	mov	r0, #0
    86a8:	e12fff33 	blx	r3
    86ac:	e28dd00c 	add	sp, sp, #12
    86b0:	e49df004 	pop	{pc}		; (ldr pc, [sp], #4)
    86b4:	00009554 	andeq	r9, r0, r4, asr r5
    86b8:	000097c0 	andeq	r9, r0, r0, asr #15
    86bc:	000098fc 	strdeq	r9, [r0], -ip
    86c0:	00009bac 	andeq	r9, r0, ip, lsr #23
    86c4:	00009858 	andeq	r9, r0, r8, asr r8
    86c8:	0000958c 	andeq	r9, r0, ip, lsl #11

000086cc <interrupt_vector>:
    86cc:	e12fff1e 	bx	lr

000086d0 <brk_no_ret_error>:
    86d0:	e92d4008 	push	{r3, lr}
    86d4:	eb000089 	bl	8900 <rpi_reset_putc>
    86d8:	e59f0010 	ldr	r0, [pc, #16]	; 86f0 <brk_no_ret_error+0x20>
    86dc:	e59f1010 	ldr	r1, [pc, #16]	; 86f4 <brk_no_ret_error+0x24>
    86e0:	e59f2010 	ldr	r2, [pc, #16]	; 86f8 <brk_no_ret_error+0x28>
    86e4:	e3a030d9 	mov	r3, #217	; 0xd9
    86e8:	eb000069 	bl	8894 <printk>
    86ec:	eb000200 	bl	8ef4 <clean_reboot>
    86f0:	00009868 	andeq	r9, r0, r8, ror #16
    86f4:	000097c0 	andeq	r9, r0, r0, asr #15
    86f8:	00009914 	andeq	r9, r0, r4, lsl r9

000086fc <brkpt_mismatch_set0>:
    86fc:	ee103eb0 	mrc	14, 0, r3, cr0, cr0, {5}
    8700:	e3c33001 	bic	r3, r3, #1
    8704:	ee003eb0 	mcr	14, 0, r3, cr0, cr0, {5}
    8708:	ee000e90 	mcr	14, 0, r0, cr0, cr0, {4}
    870c:	e59f3014 	ldr	r3, [pc, #20]	; 8728 <brkpt_mismatch_set0+0x2c>
    8710:	ee003eb0 	mcr	14, 0, r3, cr0, cr0, {5}
    8714:	e3a03000 	mov	r3, #0
    8718:	ee073f95 	mcr	15, 0, r3, cr7, cr5, {4}
    871c:	e59f3008 	ldr	r3, [pc, #8]	; 872c <brkpt_mismatch_set0+0x30>
    8720:	e5831000 	str	r1, [r3]
    8724:	e12fff1e 	bx	lr
    8728:	004001e7 	subeq	r0, r0, r7, ror #3
    872c:	00009bac 	andeq	r9, r0, ip, lsr #23

00008730 <brkpt_mismatch_disable0>:
    8730:	e92d4008 	push	{r3, lr}
    8734:	eb000071 	bl	8900 <rpi_reset_putc>
    8738:	e59f0010 	ldr	r0, [pc, #16]	; 8750 <brkpt_mismatch_disable0+0x20>
    873c:	e59f1010 	ldr	r1, [pc, #16]	; 8754 <brkpt_mismatch_disable0+0x24>
    8740:	e59f2010 	ldr	r2, [pc, #16]	; 8758 <brkpt_mismatch_disable0+0x28>
    8744:	e3a030f9 	mov	r3, #249	; 0xf9
    8748:	eb000051 	bl	8894 <printk>
    874c:	eb0001e8 	bl	8ef4 <clean_reboot>
    8750:	00009898 	muleq	r0, r8, r8
    8754:	000097c0 	andeq	r9, r0, r0, asr #15
    8758:	00009928 	andeq	r9, r0, r8, lsr #18

0000875c <syscall_vector>:
    875c:	e92d4008 	push	{r3, lr}
    8760:	eb000066 	bl	8900 <rpi_reset_putc>
    8764:	e59f0010 	ldr	r0, [pc, #16]	; 877c <syscall_vector+0x20>
    8768:	e59f1010 	ldr	r1, [pc, #16]	; 8780 <syscall_vector+0x24>
    876c:	e59f2010 	ldr	r2, [pc, #16]	; 8784 <syscall_vector+0x28>
    8770:	e59f3010 	ldr	r3, [pc, #16]	; 8788 <syscall_vector+0x2c>
    8774:	eb000046 	bl	8894 <printk>
    8778:	eb0001dd 	bl	8ef4 <clean_reboot>
    877c:	00009898 	muleq	r0, r8, r8
    8780:	000097c0 	andeq	r9, r0, r0, asr #15
    8784:	00009940 	andeq	r9, r0, r0, asr #18
    8788:	00000103 	andeq	r0, r0, r3, lsl #2

0000878c <_interrupt_table>:
    878c:	e59ff020 	ldr	pc, [pc, #32]	; 87b4 <_reset_asm>
    8790:	e59ff020 	ldr	pc, [pc, #32]	; 87b8 <_undefined_instruction_asm>
    8794:	e59ff020 	ldr	pc, [pc, #32]	; 87bc <_software_interrupt_asm>
    8798:	e59ff020 	ldr	pc, [pc, #32]	; 87c0 <_prefetch_abort_asm>
    879c:	e59ff020 	ldr	pc, [pc, #32]	; 87c4 <_data_abort_asm>
    87a0:	e59ff00c 	ldr	pc, [pc, #12]	; 87b4 <_reset_asm>
    87a4:	e59ff01c 	ldr	pc, [pc, #28]	; 87c8 <_interrupt_asm>

000087a8 <fast_interrupt_asm>:
    87a8:	e3a0d409 	mov	sp, #150994944	; 0x9000000
    87ac:	e24ee004 	sub	lr, lr, #4
    87b0:	eb0001e8 	bl	8f58 <fast_interrupt_vector>

000087b4 <_reset_asm>:
    87b4:	000087e8 	andeq	r8, r0, r8, ror #15

000087b8 <_undefined_instruction_asm>:
    87b8:	00008808 	andeq	r8, r0, r8, lsl #16

000087bc <_software_interrupt_asm>:
    87bc:	00008828 	andeq	r8, r0, r8, lsr #16

000087c0 <_prefetch_abort_asm>:
    87c0:	00008834 	andeq	r8, r0, r4, lsr r8

000087c4 <_data_abort_asm>:
    87c4:	00008850 	andeq	r8, r0, r0, asr r8

000087c8 <_interrupt_asm>:
    87c8:	000087cc 	andeq	r8, r0, ip, asr #15

000087cc <_interrupt_table_end>:
    87cc:	e3a0d409 	mov	sp, #150994944	; 0x9000000
    87d0:	e24ee004 	sub	lr, lr, #4
    87d4:	e92d5fff 	push	{r0, r1, r2, r3, r4, r5, r6, r7, r8, r9, sl, fp, ip, lr}
    87d8:	e1a0000e 	mov	r0, lr
    87dc:	ebffffba 	bl	86cc <interrupt_vector>
    87e0:	e8bd5fff 	pop	{r0, r1, r2, r3, r4, r5, r6, r7, r8, r9, sl, fp, ip, lr}
    87e4:	e1b0f00e 	movs	pc, lr

000087e8 <reset_asm>:
    87e8:	e3a0d409 	mov	sp, #150994944	; 0x9000000
    87ec:	e24ee004 	sub	lr, lr, #4
    87f0:	e3a0d409 	mov	sp, #150994944	; 0x9000000
    87f4:	e92d5fff 	push	{r0, r1, r2, r3, r4, r5, r6, r7, r8, r9, sl, fp, ip, lr}
    87f8:	e1a0000e 	mov	r0, lr
    87fc:	eb0001e6 	bl	8f9c <reset_vector>
    8800:	e8bd5fff 	pop	{r0, r1, r2, r3, r4, r5, r6, r7, r8, r9, sl, fp, ip, lr}
    8804:	e1b0f00e 	movs	pc, lr

00008808 <undefined_instruction_asm>:
    8808:	e3a0d409 	mov	sp, #150994944	; 0x9000000
    880c:	e24ee004 	sub	lr, lr, #4
    8810:	e3a0d409 	mov	sp, #150994944	; 0x9000000
    8814:	e92d5fff 	push	{r0, r1, r2, r3, r4, r5, r6, r7, r8, r9, sl, fp, ip, lr}
    8818:	e1a0000e 	mov	r0, lr
    881c:	eb000200 	bl	9024 <undefined_instruction_vector>
    8820:	e8bd5fff 	pop	{r0, r1, r2, r3, r4, r5, r6, r7, r8, r9, sl, fp, ip, lr}
    8824:	e1b0f00e 	movs	pc, lr

00008828 <software_interrupt_asm>:
    8828:	e3a0d409 	mov	sp, #150994944	; 0x9000000
    882c:	e24ee004 	sub	lr, lr, #4
    8830:	eb0001ea 	bl	8fe0 <software_interrupt_vector>

00008834 <prefetch_abort_asm>:
    8834:	e24ee004 	sub	lr, lr, #4
    8838:	e3a0d409 	mov	sp, #150994944	; 0x9000000
    883c:	e92d5fff 	push	{r0, r1, r2, r3, r4, r5, r6, r7, r8, r9, sl, fp, ip, lr}
    8840:	e1a0000e 	mov	r0, lr
    8844:	ebffff7a 	bl	8634 <prefetch_abort_vector>
    8848:	e8bd5fff 	pop	{r0, r1, r2, r3, r4, r5, r6, r7, r8, r9, sl, fp, ip, lr}
    884c:	e1b0f00e 	movs	pc, lr

00008850 <data_abort_asm>:
    8850:	e24ee008 	sub	lr, lr, #8
    8854:	e3a0d409 	mov	sp, #150994944	; 0x9000000
    8858:	e92d5fff 	push	{r0, r1, r2, r3, r4, r5, r6, r7, r8, r9, sl, fp, ip, lr}
    885c:	e1a0000e 	mov	r0, lr
    8860:	ebffff20 	bl	84e8 <data_abort_vector>
    8864:	e8bd5fff 	pop	{r0, r1, r2, r3, r4, r5, r6, r7, r8, r9, sl, fp, ip, lr}
    8868:	e1b0f00e 	movs	pc, lr

0000886c <user_trampoline_no_ret>:
    886c:	e584d000 	str	sp, [r4]
    8870:	e10f5000 	mrs	r5, CPSR
    8874:	e169f005 	msr	SPSR_fc, r5
    8878:	e129f000 	msr	CPSR_fc, r0
    887c:	e3a06000 	mov	r6, #0
    8880:	ee076f95 	mcr	15, 0, r6, cr7, cr5, {4}
    8884:	e594d000 	ldr	sp, [r4]
    8888:	e12fff31 	blx	r1
    888c:	ebffff8f 	bl	86d0 <brk_no_ret_error>

00008890 <user_trampoline_ret>:
    8890:	e12fff1e 	bx	lr

00008894 <printk>:
    8894:	e92d000f 	push	{r0, r1, r2, r3}
    8898:	e92d4030 	push	{r4, r5, lr}
    889c:	e24dd00c 	sub	sp, sp, #12
    88a0:	e28d301c 	add	r3, sp, #28
    88a4:	e58d3004 	str	r3, [sp, #4]
    88a8:	e59f4034 	ldr	r4, [pc, #52]	; 88e4 <printk+0x50>
    88ac:	e1a00004 	mov	r0, r4
    88b0:	e3a01b01 	mov	r1, #1024	; 0x400
    88b4:	e59d2018 	ldr	r2, [sp, #24]
    88b8:	eb0000d0 	bl	8c00 <va_printk>
    88bc:	e1a05000 	mov	r5, r0
    88c0:	e59f3020 	ldr	r3, [pc, #32]	; 88e8 <printk+0x54>
    88c4:	e5933000 	ldr	r3, [r3]
    88c8:	e1a00004 	mov	r0, r4
    88cc:	e12fff33 	blx	r3
    88d0:	e1a00005 	mov	r0, r5
    88d4:	e28dd00c 	add	sp, sp, #12
    88d8:	e8bd4030 	pop	{r4, r5, lr}
    88dc:	e28dd010 	add	sp, sp, #16
    88e0:	e12fff1e 	bx	lr
    88e4:	00009bbc 			; <UNDEFINED> instruction: 0x00009bbc
    88e8:	000094ec 	andeq	r9, r0, ip, ror #9

000088ec <internal_putchar>:
    88ec:	e92d4010 	push	{r4, lr}
    88f0:	e1a04000 	mov	r4, r0
    88f4:	eb0002a2 	bl	9384 <uart_putc>
    88f8:	e1a00004 	mov	r0, r4
    88fc:	e8bd8010 	pop	{r4, pc}

00008900 <rpi_reset_putc>:
    8900:	e59f2008 	ldr	r2, [pc, #8]	; 8910 <rpi_reset_putc+0x10>
    8904:	e59f3008 	ldr	r3, [pc, #8]	; 8914 <rpi_reset_putc+0x14>
    8908:	e5832000 	str	r2, [r3]
    890c:	e12fff1e 	bx	lr
    8910:	000088ec 	andeq	r8, r0, ip, ror #17
    8914:	000094e8 	andeq	r9, r0, r8, ror #9

00008918 <rpi_set_putc>:
    8918:	e59f3004 	ldr	r3, [pc, #4]	; 8924 <rpi_set_putc+0xc>
    891c:	e5830000 	str	r0, [r3]
    8920:	e12fff1e 	bx	lr
    8924:	000094e8 	andeq	r9, r0, r8, ror #9

00008928 <internal_putk>:
    8928:	e92d4038 	push	{r3, r4, r5, lr}
    892c:	e1a04000 	mov	r4, r0
    8930:	e59f5020 	ldr	r5, [pc, #32]	; 8958 <internal_putk+0x30>
    8934:	ea000002 	b	8944 <internal_putk+0x1c>
    8938:	e5953000 	ldr	r3, [r5]
    893c:	e12fff33 	blx	r3
    8940:	e2844001 	add	r4, r4, #1
    8944:	e5d40000 	ldrb	r0, [r4]
    8948:	e3500000 	cmp	r0, #0
    894c:	1afffff9 	bne	8938 <internal_putk+0x10>
    8950:	e3a00001 	mov	r0, #1
    8954:	e8bd8038 	pop	{r3, r4, r5, pc}
    8958:	000094e8 	andeq	r9, r0, r8, ror #9

0000895c <isdigit>:
    895c:	e2400030 	sub	r0, r0, #48	; 0x30
    8960:	e3500009 	cmp	r0, #9
    8964:	83a00000 	movhi	r0, #0
    8968:	93a00001 	movls	r0, #1
    896c:	e12fff1e 	bx	lr

00008970 <pad>:
    8970:	e0611000 	rsb	r1, r1, r0
    8974:	e3a03020 	mov	r3, #32
    8978:	ea000002 	b	8988 <pad+0x18>
    897c:	e5c03000 	strb	r3, [r0]
    8980:	e2811001 	add	r1, r1, #1
    8984:	e2800001 	add	r0, r0, #1
    8988:	e1510002 	cmp	r1, r2
    898c:	bafffffa 	blt	897c <pad+0xc>
    8990:	e3a03000 	mov	r3, #0
    8994:	e5c03000 	strb	r3, [r0]
    8998:	e12fff1e 	bx	lr

0000899c <reverse>:
    899c:	e063c002 	rsb	ip, r3, r2
    89a0:	e28cc001 	add	ip, ip, #1
    89a4:	e15c0001 	cmp	ip, r1
    89a8:	c061100c 	rsbgt	r1, r1, ip
    89ac:	c0833001 	addgt	r3, r3, r1
    89b0:	e2422001 	sub	r2, r2, #1
    89b4:	e1a01000 	mov	r1, r0
    89b8:	ea000002 	b	89c8 <reverse+0x2c>
    89bc:	e452c001 	ldrb	ip, [r2], #-1
    89c0:	e5c1c000 	strb	ip, [r1]
    89c4:	e2811001 	add	r1, r1, #1
    89c8:	e1520003 	cmp	r2, r3
    89cc:	2afffffa 	bcs	89bc <reverse+0x20>
    89d0:	e3a03000 	mov	r3, #0
    89d4:	e5c13000 	strb	r3, [r1]
    89d8:	e12fff1e 	bx	lr

000089dc <emit>:
    89dc:	e92d41f0 	push	{r4, r5, r6, r7, r8, lr}
    89e0:	e24dd048 	sub	sp, sp, #72	; 0x48
    89e4:	e1a05001 	mov	r5, r1
    89e8:	e1a04002 	mov	r4, r2
    89ec:	e59d2060 	ldr	r2, [sp, #96]	; 0x60
    89f0:	e1520004 	cmp	r2, r4
    89f4:	c2442001 	subgt	r2, r4, #1
    89f8:	e1a0c003 	mov	ip, r3
    89fc:	e2400002 	sub	r0, r0, #2
    8a00:	e350000e 	cmp	r0, #14
    8a04:	979ff100 	ldrls	pc, [pc, r0, lsl #2]
    8a08:	ea000048 	b	8b30 <emit+0x154>
    8a0c:	00008b08 	andeq	r8, r0, r8, lsl #22
    8a10:	00008b30 	andeq	r8, r0, r0, lsr fp
    8a14:	00008b30 	andeq	r8, r0, r0, lsr fp
    8a18:	00008b30 	andeq	r8, r0, r0, lsr fp
    8a1c:	00008b30 	andeq	r8, r0, r0, lsr fp
    8a20:	00008b30 	andeq	r8, r0, r0, lsr fp
    8a24:	00008afc 	strdeq	r8, [r0], -ip
    8a28:	00008b30 	andeq	r8, r0, r0, lsr fp
    8a2c:	00008a48 	andeq	r8, r0, r8, asr #20
    8a30:	00008b30 	andeq	r8, r0, r0, lsr fp
    8a34:	00008b30 	andeq	r8, r0, r0, lsr fp
    8a38:	00008b30 	andeq	r8, r0, r0, lsr fp
    8a3c:	00008b30 	andeq	r8, r0, r0, lsr fp
    8a40:	00008b30 	andeq	r8, r0, r0, lsr fp
    8a44:	00008abc 			; <UNDEFINED> instruction: 0x00008abc
    8a48:	e59d1064 	ldr	r1, [sp, #100]	; 0x64
    8a4c:	e2911000 	adds	r1, r1, #0
    8a50:	13a01001 	movne	r1, #1
    8a54:	e0111fa3 	ands	r1, r1, r3, lsr #31
    8a58:	1263c000 	rsbne	ip, r3, #0
    8a5c:	13a08001 	movne	r8, #1
    8a60:	03a08000 	moveq	r8, #0
    8a64:	e28d1008 	add	r1, sp, #8
    8a68:	e59f7108 	ldr	r7, [pc, #264]	; 8b78 <emit+0x19c>
    8a6c:	e59f6108 	ldr	r6, [pc, #264]	; 8b7c <emit+0x1a0>
    8a70:	ea000000 	b	8a78 <emit+0x9c>
    8a74:	e1a01000 	mov	r1, r0
    8a78:	e2810001 	add	r0, r1, #1
    8a7c:	e083ec97 	umull	lr, r3, r7, ip
    8a80:	e1a031a3 	lsr	r3, r3, #3
    8a84:	e1a0e003 	mov	lr, r3
    8a88:	e0833103 	add	r3, r3, r3, lsl #2
    8a8c:	e1a03083 	lsl	r3, r3, #1
    8a90:	e063300c 	rsb	r3, r3, ip
    8a94:	e7d63003 	ldrb	r3, [r6, r3]
    8a98:	e5c13000 	strb	r3, [r1]
    8a9c:	e1a0c00e 	mov	ip, lr
    8aa0:	e35e0000 	cmp	lr, #0
    8aa4:	1afffff2 	bne	8a74 <emit+0x98>
    8aa8:	e3580000 	cmp	r8, #0
    8aac:	12810002 	addne	r0, r1, #2
    8ab0:	13a0302d 	movne	r3, #45	; 0x2d
    8ab4:	15c13001 	strbne	r3, [r1, #1]
    8ab8:	ea000025 	b	8b54 <emit+0x178>
    8abc:	e28d3008 	add	r3, sp, #8
    8ac0:	e59fe0b8 	ldr	lr, [pc, #184]	; 8b80 <emit+0x1a4>
    8ac4:	ea000000 	b	8acc <emit+0xf0>
    8ac8:	e1a03000 	mov	r3, r0
    8acc:	e2830001 	add	r0, r3, #1
    8ad0:	e20c100f 	and	r1, ip, #15
    8ad4:	e7de1001 	ldrb	r1, [lr, r1]
    8ad8:	e5c31000 	strb	r1, [r3]
    8adc:	e1b0c22c 	lsrs	ip, ip, #4
    8ae0:	1afffff8 	bne	8ac8 <emit+0xec>
    8ae4:	e3a01078 	mov	r1, #120	; 0x78
    8ae8:	e5c31001 	strb	r1, [r3, #1]
    8aec:	e2830003 	add	r0, r3, #3
    8af0:	e3a01030 	mov	r1, #48	; 0x30
    8af4:	e5c31002 	strb	r1, [r3, #2]
    8af8:	ea000015 	b	8b54 <emit+0x178>
    8afc:	e5cd3008 	strb	r3, [sp, #8]
    8b00:	e28d0009 	add	r0, sp, #9
    8b04:	ea000012 	b	8b54 <emit+0x178>
    8b08:	e28d3008 	add	r3, sp, #8
    8b0c:	e59fe070 	ldr	lr, [pc, #112]	; 8b84 <emit+0x1a8>
    8b10:	e2830001 	add	r0, r3, #1
    8b14:	e20c1001 	and	r1, ip, #1
    8b18:	e7de1001 	ldrb	r1, [lr, r1]
    8b1c:	e5c31000 	strb	r1, [r3]
    8b20:	e1a03000 	mov	r3, r0
    8b24:	e1b0c0ac 	lsrs	ip, ip, #1
    8b28:	1afffff8 	bne	8b10 <emit+0x134>
    8b2c:	ea000008 	b	8b54 <emit+0x178>
    8b30:	ebffff72 	bl	8900 <rpi_reset_putc>
    8b34:	e59f304c 	ldr	r3, [pc, #76]	; 8b88 <emit+0x1ac>
    8b38:	e58d3000 	str	r3, [sp]
    8b3c:	e59f0048 	ldr	r0, [pc, #72]	; 8b8c <emit+0x1b0>
    8b40:	e59f1048 	ldr	r1, [pc, #72]	; 8b90 <emit+0x1b4>
    8b44:	e59f2048 	ldr	r2, [pc, #72]	; 8b94 <emit+0x1b8>
    8b48:	e3a03077 	mov	r3, #119	; 0x77
    8b4c:	ebffff50 	bl	8894 <printk>
    8b50:	eb0000e7 	bl	8ef4 <clean_reboot>
    8b54:	e28d1008 	add	r1, sp, #8
    8b58:	ebffff84 	bl	8970 <pad>
    8b5c:	e1a02000 	mov	r2, r0
    8b60:	e1a00005 	mov	r0, r5
    8b64:	e1a01004 	mov	r1, r4
    8b68:	e28d3008 	add	r3, sp, #8
    8b6c:	ebffff8a 	bl	899c <reverse>
    8b70:	e28dd048 	add	sp, sp, #72	; 0x48
    8b74:	e8bd81f0 	pop	{r4, r5, r6, r7, r8, pc}
    8b78:	cccccccd 	stclgt	12, cr12, [ip], {205}	; 0xcd
    8b7c:	0000998c 	andeq	r9, r0, ip, lsl #19
    8b80:	00009998 	muleq	r0, r8, r9
    8b84:	000099ac 	andeq	r9, r0, ip, lsr #19
    8b88:	00009988 	andeq	r9, r0, r8, lsl #19
    8b8c:	0000958c 	andeq	r9, r0, ip, lsl #11
    8b90:	00009974 	andeq	r9, r0, r4, ror r9
    8b94:	00009950 	andeq	r9, r0, r0, asr r9

00008b98 <rpi_set_output>:
    8b98:	e52de004 	push	{lr}		; (str lr, [sp, #-4]!)
    8b9c:	e24dd00c 	sub	sp, sp, #12
    8ba0:	e3500000 	cmp	r0, #0
    8ba4:	1a000008 	bne	8bcc <rpi_set_output+0x34>
    8ba8:	ebffff54 	bl	8900 <rpi_reset_putc>
    8bac:	e59f3034 	ldr	r3, [pc, #52]	; 8be8 <rpi_set_output+0x50>
    8bb0:	e58d3000 	str	r3, [sp]
    8bb4:	e59f0030 	ldr	r0, [pc, #48]	; 8bec <rpi_set_output+0x54>
    8bb8:	e59f1030 	ldr	r1, [pc, #48]	; 8bf0 <rpi_set_output+0x58>
    8bbc:	e59f2030 	ldr	r2, [pc, #48]	; 8bf4 <rpi_set_output+0x5c>
    8bc0:	e3a03020 	mov	r3, #32
    8bc4:	ebffff32 	bl	8894 <printk>
    8bc8:	eb0000c9 	bl	8ef4 <clean_reboot>
    8bcc:	e59f3024 	ldr	r3, [pc, #36]	; 8bf8 <rpi_set_output+0x60>
    8bd0:	e5830000 	str	r0, [r3]
    8bd4:	e3510000 	cmp	r1, #0
    8bd8:	159f301c 	ldrne	r3, [pc, #28]	; 8bfc <rpi_set_output+0x64>
    8bdc:	15831000 	strne	r1, [r3]
    8be0:	e28dd00c 	add	sp, sp, #12
    8be4:	e49df004 	pop	{pc}		; (ldr pc, [sp], #4)
    8be8:	000099b0 			; <UNDEFINED> instruction: 0x000099b0
    8bec:	0000958c 	andeq	r9, r0, ip, lsl #11
    8bf0:	00009974 	andeq	r9, r0, r4, ror r9
    8bf4:	00009958 	andeq	r9, r0, r8, asr r9
    8bf8:	000094e8 	andeq	r9, r0, r8, ror #9
    8bfc:	000094ec 	andeq	r9, r0, ip, ror #9

00008c00 <va_printk>:
    8c00:	e92d4ff0 	push	{r4, r5, r6, r7, r8, r9, sl, fp, lr}
    8c04:	e24dd094 	sub	sp, sp, #148	; 0x94
    8c08:	e1a0b000 	mov	fp, r0
    8c0c:	e58d200c 	str	r2, [sp, #12]
    8c10:	e1a0a003 	mov	sl, r3
    8c14:	e2411001 	sub	r1, r1, #1
    8c18:	e0808001 	add	r8, r0, r1
    8c1c:	e3a03000 	mov	r3, #0
    8c20:	e5c03000 	strb	r3, [r0]
    8c24:	e1a04000 	mov	r4, r0
    8c28:	e1a06002 	mov	r6, r2
    8c2c:	ea000095 	b	8e88 <va_printk+0x288>
    8c30:	e3530025 	cmp	r3, #37	; 0x25
    8c34:	12866001 	addne	r6, r6, #1
    8c38:	15c43000 	strbne	r3, [r4]
    8c3c:	12844001 	addne	r4, r4, #1
    8c40:	1a000090 	bne	8e88 <va_printk+0x288>
    8c44:	e5d62001 	ldrb	r2, [r6, #1]
    8c48:	e3520025 	cmp	r2, #37	; 0x25
    8c4c:	05c43000 	strbeq	r3, [r4]
    8c50:	02866002 	addeq	r6, r6, #2
    8c54:	02844001 	addeq	r4, r4, #1
    8c58:	0a00008a 	beq	8e88 <va_printk+0x288>
    8c5c:	e2866001 	add	r6, r6, #1
    8c60:	e3a07000 	mov	r7, #0
    8c64:	ea000004 	b	8c7c <va_printk+0x7c>
    8c68:	e0877107 	add	r7, r7, r7, lsl #2
    8c6c:	e1a07087 	lsl	r7, r7, #1
    8c70:	e0877005 	add	r7, r7, r5
    8c74:	e2477030 	sub	r7, r7, #48	; 0x30
    8c78:	e2866001 	add	r6, r6, #1
    8c7c:	e5d65000 	ldrb	r5, [r6]
    8c80:	e1a09005 	mov	r9, r5
    8c84:	e1a00005 	mov	r0, r5
    8c88:	ebffff33 	bl	895c <isdigit>
    8c8c:	e3500000 	cmp	r0, #0
    8c90:	1afffff4 	bne	8c68 <va_printk+0x68>
    8c94:	e357001f 	cmp	r7, #31
    8c98:	9a000008 	bls	8cc0 <va_printk+0xc0>
    8c9c:	ebffff17 	bl	8900 <rpi_reset_putc>
    8ca0:	e59f320c 	ldr	r3, [pc, #524]	; 8eb4 <va_printk+0x2b4>
    8ca4:	e58d3000 	str	r3, [sp]
    8ca8:	e59f0208 	ldr	r0, [pc, #520]	; 8eb8 <va_printk+0x2b8>
    8cac:	e59f1208 	ldr	r1, [pc, #520]	; 8ebc <va_printk+0x2bc>
    8cb0:	e59f2208 	ldr	r2, [pc, #520]	; 8ec0 <va_printk+0x2c0>
    8cb4:	e3a03095 	mov	r3, #149	; 0x95
    8cb8:	ebfffef5 	bl	8894 <printk>
    8cbc:	eb00008c 	bl	8ef4 <clean_reboot>
    8cc0:	e2455062 	sub	r5, r5, #98	; 0x62
    8cc4:	e3550016 	cmp	r5, #22
    8cc8:	979ff105 	ldrls	pc, [pc, r5, lsl #2]
    8ccc:	ea000052 	b	8e1c <va_printk+0x21c>
    8cd0:	00008dc0 	andeq	r8, r0, r0, asr #27
    8cd4:	00008df4 	strdeq	r8, [r0], -r4
    8cd8:	00008d48 	andeq	r8, r0, r8, asr #26
    8cdc:	00008e1c 	andeq	r8, r0, ip, lsl lr
    8ce0:	00008d2c 	andeq	r8, r0, ip, lsr #26
    8ce4:	00008e1c 	andeq	r8, r0, ip, lsl lr
    8ce8:	00008e1c 	andeq	r8, r0, ip, lsl lr
    8cec:	00008e1c 	andeq	r8, r0, ip, lsl lr
    8cf0:	00008e1c 	andeq	r8, r0, ip, lsl lr
    8cf4:	00008e1c 	andeq	r8, r0, ip, lsl lr
    8cf8:	00008e1c 	andeq	r8, r0, ip, lsl lr
    8cfc:	00008e1c 	andeq	r8, r0, ip, lsl lr
    8d00:	00008e1c 	andeq	r8, r0, ip, lsl lr
    8d04:	00008e1c 	andeq	r8, r0, ip, lsl lr
    8d08:	00008d98 	muleq	r0, r8, sp
    8d0c:	00008e1c 	andeq	r8, r0, ip, lsl lr
    8d10:	00008e1c 	andeq	r8, r0, ip, lsl lr
    8d14:	00008de8 	andeq	r8, r0, r8, ror #27
    8d18:	00008e1c 	andeq	r8, r0, ip, lsl lr
    8d1c:	00008d70 	andeq	r8, r0, r0, ror sp
    8d20:	00008e1c 	andeq	r8, r0, ip, lsl lr
    8d24:	00008e1c 	andeq	r8, r0, ip, lsl lr
    8d28:	00008d98 	muleq	r0, r8, sp
    8d2c:	ebfffef3 	bl	8900 <rpi_reset_putc>
    8d30:	e59f018c 	ldr	r0, [pc, #396]	; 8ec4 <va_printk+0x2c4>
    8d34:	e59f1180 	ldr	r1, [pc, #384]	; 8ebc <va_printk+0x2bc>
    8d38:	e59f2180 	ldr	r2, [pc, #384]	; 8ec0 <va_printk+0x2c0>
    8d3c:	e3a0309b 	mov	r3, #155	; 0x9b
    8d40:	ebfffed3 	bl	8894 <printk>
    8d44:	eb00006a 	bl	8ef4 <clean_reboot>
    8d48:	e59a3000 	ldr	r3, [sl]
    8d4c:	e28aa004 	add	sl, sl, #4
    8d50:	e58d7000 	str	r7, [sp]
    8d54:	e3a02001 	mov	r2, #1
    8d58:	e58d2004 	str	r2, [sp, #4]
    8d5c:	e3a0000a 	mov	r0, #10
    8d60:	e28d1010 	add	r1, sp, #16
    8d64:	e3a02080 	mov	r2, #128	; 0x80
    8d68:	ebffff1b 	bl	89dc <emit>
    8d6c:	ea00003b 	b	8e60 <va_printk+0x260>
    8d70:	e59a3000 	ldr	r3, [sl]
    8d74:	e28aa004 	add	sl, sl, #4
    8d78:	e58d7000 	str	r7, [sp]
    8d7c:	e3a02000 	mov	r2, #0
    8d80:	e58d2004 	str	r2, [sp, #4]
    8d84:	e3a0000a 	mov	r0, #10
    8d88:	e28d1010 	add	r1, sp, #16
    8d8c:	e3a02080 	mov	r2, #128	; 0x80
    8d90:	ebffff11 	bl	89dc <emit>
    8d94:	ea000031 	b	8e60 <va_printk+0x260>
    8d98:	e59a3000 	ldr	r3, [sl]
    8d9c:	e28aa004 	add	sl, sl, #4
    8da0:	e58d7000 	str	r7, [sp]
    8da4:	e3a02000 	mov	r2, #0
    8da8:	e58d2004 	str	r2, [sp, #4]
    8dac:	e3a00010 	mov	r0, #16
    8db0:	e08d1000 	add	r1, sp, r0
    8db4:	e3a02080 	mov	r2, #128	; 0x80
    8db8:	ebffff07 	bl	89dc <emit>
    8dbc:	ea000027 	b	8e60 <va_printk+0x260>
    8dc0:	e59a3000 	ldr	r3, [sl]
    8dc4:	e28aa004 	add	sl, sl, #4
    8dc8:	e58d7000 	str	r7, [sp]
    8dcc:	e3a02000 	mov	r2, #0
    8dd0:	e58d2004 	str	r2, [sp, #4]
    8dd4:	e3a00002 	mov	r0, #2
    8dd8:	e28d1010 	add	r1, sp, #16
    8ddc:	e3a02080 	mov	r2, #128	; 0x80
    8de0:	ebfffefd 	bl	89dc <emit>
    8de4:	ea00001d 	b	8e60 <va_printk+0x260>
    8de8:	e59a0000 	ldr	r0, [sl]
    8dec:	e28aa004 	add	sl, sl, #4
    8df0:	ea00001a 	b	8e60 <va_printk+0x260>
    8df4:	e59a3000 	ldr	r3, [sl]
    8df8:	e28aa004 	add	sl, sl, #4
    8dfc:	e58d7000 	str	r7, [sp]
    8e00:	e3a02000 	mov	r2, #0
    8e04:	e58d2004 	str	r2, [sp, #4]
    8e08:	e3a00008 	mov	r0, #8
    8e0c:	e28d1010 	add	r1, sp, #16
    8e10:	e3a02080 	mov	r2, #128	; 0x80
    8e14:	ebfffef0 	bl	89dc <emit>
    8e18:	ea000010 	b	8e60 <va_printk+0x260>
    8e1c:	e3a03000 	mov	r3, #0
    8e20:	e5c63001 	strb	r3, [r6, #1]
    8e24:	e59f009c 	ldr	r0, [pc, #156]	; 8ec8 <va_printk+0x2c8>
    8e28:	e1a01009 	mov	r1, r9
    8e2c:	e1a02009 	mov	r2, r9
    8e30:	ebfffe97 	bl	8894 <printk>
    8e34:	e59f3090 	ldr	r3, [pc, #144]	; 8ecc <va_printk+0x2cc>
    8e38:	e5933000 	ldr	r3, [r3]
    8e3c:	e59d000c 	ldr	r0, [sp, #12]
    8e40:	e12fff33 	blx	r3
    8e44:	ebfffead 	bl	8900 <rpi_reset_putc>
    8e48:	e59f0080 	ldr	r0, [pc, #128]	; 8ed0 <va_printk+0x2d0>
    8e4c:	e59f1068 	ldr	r1, [pc, #104]	; 8ebc <va_printk+0x2bc>
    8e50:	e59f2068 	ldr	r2, [pc, #104]	; 8ec0 <va_printk+0x2c0>
    8e54:	e3a030bf 	mov	r3, #191	; 0xbf
    8e58:	ebfffe8d 	bl	8894 <printk>
    8e5c:	eb000024 	bl	8ef4 <clean_reboot>
    8e60:	e2866001 	add	r6, r6, #1
    8e64:	ea000002 	b	8e74 <va_printk+0x274>
    8e68:	e2800001 	add	r0, r0, #1
    8e6c:	e5c43000 	strb	r3, [r4]
    8e70:	e2844001 	add	r4, r4, #1
    8e74:	e1540008 	cmp	r4, r8
    8e78:	2a000002 	bcs	8e88 <va_printk+0x288>
    8e7c:	e5d03000 	ldrb	r3, [r0]
    8e80:	e3530000 	cmp	r3, #0
    8e84:	1afffff7 	bne	8e68 <va_printk+0x268>
    8e88:	e5d63000 	ldrb	r3, [r6]
    8e8c:	e3530000 	cmp	r3, #0
    8e90:	0a000001 	beq	8e9c <va_printk+0x29c>
    8e94:	e1540008 	cmp	r4, r8
    8e98:	3affff64 	bcc	8c30 <va_printk+0x30>
    8e9c:	e2840001 	add	r0, r4, #1
    8ea0:	e3a03000 	mov	r3, #0
    8ea4:	e5c43000 	strb	r3, [r4]
    8ea8:	e06b0000 	rsb	r0, fp, r0
    8eac:	e28dd094 	add	sp, sp, #148	; 0x94
    8eb0:	e8bd8ff0 	pop	{r4, r5, r6, r7, r8, r9, sl, fp, pc}
    8eb4:	000099b8 			; <UNDEFINED> instruction: 0x000099b8
    8eb8:	0000958c 	andeq	r9, r0, ip, lsl #11
    8ebc:	00009974 	andeq	r9, r0, r4, ror r9
    8ec0:	00009968 	andeq	r9, r0, r8, ror #18
    8ec4:	000099c4 	andeq	r9, r0, r4, asr #19
    8ec8:	000099ec 	andeq	r9, r0, ip, ror #19
    8ecc:	000094ec 	andeq	r9, r0, ip, ror #9
    8ed0:	00009a1c 	andeq	r9, r0, ip, lsl sl

00008ed4 <enable_cache>:
    8ed4:	ee113f10 	mrc	15, 0, r3, cr1, cr0, {0}
    8ed8:	e3833b06 	orr	r3, r3, #6144	; 0x1800
    8edc:	ee013f10 	mcr	15, 0, r3, cr1, cr0, {0}
    8ee0:	e12fff1e 	bx	lr

00008ee4 <disable_cache>:
    8ee4:	ee113f10 	mrc	15, 0, r3, cr1, cr0, {0}
    8ee8:	e3c33b06 	bic	r3, r3, #6144	; 0x1800
    8eec:	ee013f10 	mcr	15, 0, r3, cr1, cr0, {0}
    8ef0:	e12fff1e 	bx	lr

00008ef4 <clean_reboot>:
    8ef4:	e92d4008 	push	{r3, lr}
    8ef8:	eb00005b 	bl	906c <reboot_handler>
    8efc:	e59f3014 	ldr	r3, [pc, #20]	; 8f18 <clean_reboot+0x24>
    8f00:	e5933000 	ldr	r3, [r3]
    8f04:	e59f0010 	ldr	r0, [pc, #16]	; 8f1c <clean_reboot+0x28>
    8f08:	e12fff33 	blx	r3
    8f0c:	e3a00064 	mov	r0, #100	; 0x64
    8f10:	eb0000aa 	bl	91c0 <delay_ms>
    8f14:	eb00007b 	bl	9108 <rpi_reboot>
    8f18:	000094ec 	andeq	r9, r0, ip, ror #9
    8f1c:	00009a3c 	andeq	r9, r0, ip, lsr sl

00008f20 <_cstart>:
    8f20:	e92d4008 	push	{r3, lr}
    8f24:	e59f3024 	ldr	r3, [pc, #36]	; 8f50 <_cstart+0x30>
    8f28:	e59f2024 	ldr	r2, [pc, #36]	; 8f54 <_cstart+0x34>
    8f2c:	e3a01000 	mov	r1, #0
    8f30:	ea000001 	b	8f3c <_cstart+0x1c>
    8f34:	e5831000 	str	r1, [r3]
    8f38:	e2833004 	add	r3, r3, #4
    8f3c:	e1530002 	cmp	r3, r2
    8f40:	3afffffb 	bcc	8f34 <_cstart+0x14>
    8f44:	eb000047 	bl	9068 <cstart_handler>
    8f48:	ebfffcaf 	bl	820c <notmain>
    8f4c:	ebffffe8 	bl	8ef4 <clean_reboot>
    8f50:	00009ba0 	andeq	r9, r0, r0, lsr #23
    8f54:	00009fc0 	andeq	r9, r0, r0, asr #31

00008f58 <fast_interrupt_vector>:
    8f58:	e52de004 	push	{lr}		; (str lr, [sp, #-4]!)
    8f5c:	e24dd00c 	sub	sp, sp, #12
    8f60:	e1a04000 	mov	r4, r0
    8f64:	ebfffe65 	bl	8900 <rpi_reset_putc>
    8f68:	e59f301c 	ldr	r3, [pc, #28]	; 8f8c <fast_interrupt_vector+0x34>
    8f6c:	e58d3000 	str	r3, [sp]
    8f70:	e58d4004 	str	r4, [sp, #4]
    8f74:	e59f0014 	ldr	r0, [pc, #20]	; 8f90 <fast_interrupt_vector+0x38>
    8f78:	e59f1014 	ldr	r1, [pc, #20]	; 8f94 <fast_interrupt_vector+0x3c>
    8f7c:	e59f2014 	ldr	r2, [pc, #20]	; 8f98 <fast_interrupt_vector+0x40>
    8f80:	e3a03002 	mov	r3, #2
    8f84:	ebfffe42 	bl	8894 <printk>
    8f88:	ebffffd9 	bl	8ef4 <clean_reboot>
    8f8c:	00009ac0 	andeq	r9, r0, r0, asr #21
    8f90:	00009a60 	andeq	r9, r0, r0, ror #20
    8f94:	00009a9c 	muleq	r0, ip, sl
    8f98:	00009a48 	andeq	r9, r0, r8, asr #20

00008f9c <reset_vector>:
    8f9c:	e52de004 	push	{lr}		; (str lr, [sp, #-4]!)
    8fa0:	e24dd00c 	sub	sp, sp, #12
    8fa4:	e1a04000 	mov	r4, r0
    8fa8:	ebfffe54 	bl	8900 <rpi_reset_putc>
    8fac:	e59f301c 	ldr	r3, [pc, #28]	; 8fd0 <reset_vector+0x34>
    8fb0:	e58d3000 	str	r3, [sp]
    8fb4:	e58d4004 	str	r4, [sp, #4]
    8fb8:	e59f0014 	ldr	r0, [pc, #20]	; 8fd4 <reset_vector+0x38>
    8fbc:	e59f1014 	ldr	r1, [pc, #20]	; 8fd8 <reset_vector+0x3c>
    8fc0:	e59f2014 	ldr	r2, [pc, #20]	; 8fdc <reset_vector+0x40>
    8fc4:	e3a03002 	mov	r3, #2
    8fc8:	ebfffe31 	bl	8894 <printk>
    8fcc:	ebffffc8 	bl	8ef4 <clean_reboot>
    8fd0:	00009afc 	strdeq	r9, [r0], -ip
    8fd4:	00009a60 	andeq	r9, r0, r0, ror #20
    8fd8:	00009ad8 	ldrdeq	r9, [r0], -r8
    8fdc:	00009ac8 	andeq	r9, r0, r8, asr #21

00008fe0 <software_interrupt_vector>:
    8fe0:	e52de004 	push	{lr}		; (str lr, [sp, #-4]!)
    8fe4:	e24dd00c 	sub	sp, sp, #12
    8fe8:	e1a04000 	mov	r4, r0
    8fec:	ebfffe43 	bl	8900 <rpi_reset_putc>
    8ff0:	e59f301c 	ldr	r3, [pc, #28]	; 9014 <software_interrupt_vector+0x34>
    8ff4:	e58d3000 	str	r3, [sp]
    8ff8:	e58d4004 	str	r4, [sp, #4]
    8ffc:	e59f0014 	ldr	r0, [pc, #20]	; 9018 <software_interrupt_vector+0x38>
    9000:	e59f1014 	ldr	r1, [pc, #20]	; 901c <software_interrupt_vector+0x3c>
    9004:	e59f2014 	ldr	r2, [pc, #20]	; 9020 <software_interrupt_vector+0x40>
    9008:	e3a03002 	mov	r3, #2
    900c:	ebfffe20 	bl	8894 <printk>
    9010:	ebffffb7 	bl	8ef4 <clean_reboot>
    9014:	00009b40 	andeq	r9, r0, r0, asr #22
    9018:	00009a60 	andeq	r9, r0, r0, ror #20
    901c:	00009b20 	andeq	r9, r0, r0, lsr #22
    9020:	00009b04 	andeq	r9, r0, r4, lsl #22

00009024 <undefined_instruction_vector>:
    9024:	e52de004 	push	{lr}		; (str lr, [sp, #-4]!)
    9028:	e24dd00c 	sub	sp, sp, #12
    902c:	e1a04000 	mov	r4, r0
    9030:	ebfffe32 	bl	8900 <rpi_reset_putc>
    9034:	e59f301c 	ldr	r3, [pc, #28]	; 9058 <undefined_instruction_vector+0x34>
    9038:	e58d3000 	str	r3, [sp]
    903c:	e58d4004 	str	r4, [sp, #4]
    9040:	e59f0014 	ldr	r0, [pc, #20]	; 905c <undefined_instruction_vector+0x38>
    9044:	e59f1014 	ldr	r1, [pc, #20]	; 9060 <undefined_instruction_vector+0x3c>
    9048:	e59f2014 	ldr	r2, [pc, #20]	; 9064 <undefined_instruction_vector+0x40>
    904c:	e3a03002 	mov	r3, #2
    9050:	ebfffe0f 	bl	8894 <printk>
    9054:	ebffffa6 	bl	8ef4 <clean_reboot>
    9058:	00009b90 	muleq	r0, r0, fp
    905c:	00009a60 	andeq	r9, r0, r0, ror #20
    9060:	00009b64 	andeq	r9, r0, r4, ror #22
    9064:	00009b44 	andeq	r9, r0, r4, asr #22

00009068 <cstart_handler>:
    9068:	e12fff1e 	bx	lr

0000906c <reboot_handler>:
    906c:	e12fff1e 	bx	lr

00009070 <int_init>:
    9070:	e92d4008 	push	{r3, lr}
    9074:	eb00005b 	bl	91e8 <dev_barrier>
    9078:	e59f004c 	ldr	r0, [pc, #76]	; 90cc <int_init+0x5c>
    907c:	e3e01000 	mvn	r1, #0
    9080:	eb000060 	bl	9208 <PUT32>
    9084:	e59f0044 	ldr	r0, [pc, #68]	; 90d0 <int_init+0x60>
    9088:	e3e01000 	mvn	r1, #0
    908c:	eb00005d 	bl	9208 <PUT32>
    9090:	eb000054 	bl	91e8 <dev_barrier>
    9094:	e59f3038 	ldr	r3, [pc, #56]	; 90d4 <int_init+0x64>
    9098:	e59f0038 	ldr	r0, [pc, #56]	; 90d8 <int_init+0x68>
    909c:	e0630000 	rsb	r0, r3, r0
    90a0:	e1a00140 	asr	r0, r0, #2
    90a4:	e3a03000 	mov	r3, #0
    90a8:	e59fc024 	ldr	ip, [pc, #36]	; 90d4 <int_init+0x64>
    90ac:	ea000003 	b	90c0 <int_init+0x50>
    90b0:	e1a02103 	lsl	r2, r3, #2
    90b4:	e79c1103 	ldr	r1, [ip, r3, lsl #2]
    90b8:	e5821000 	str	r1, [r2]
    90bc:	e2833001 	add	r3, r3, #1
    90c0:	e1530000 	cmp	r3, r0
    90c4:	3afffff9 	bcc	90b0 <int_init+0x40>
    90c8:	e8bd8008 	pop	{r3, pc}
    90cc:	2000b21c 	andcs	fp, r0, ip, lsl r2
    90d0:	2000b220 	andcs	fp, r0, r0, lsr #4
    90d4:	0000878c 	andeq	r8, r0, ip, lsl #15
    90d8:	000087cc 	andeq	r8, r0, ip, asr #15

000090dc <at_user_level>:
    90dc:	e10f0000 	mrs	r0, CPSR
    90e0:	e200001f 	and	r0, r0, #31
    90e4:	e3500010 	cmp	r0, #16
    90e8:	13a00000 	movne	r0, #0
    90ec:	03a00001 	moveq	r0, #1
    90f0:	e12fff1e 	bx	lr

000090f4 <set_user_level>:
    90f4:	e10f3000 	mrs	r3, CPSR
    90f8:	e3c3301f 	bic	r3, r3, #31
    90fc:	e3833010 	orr	r3, r3, #16
    9100:	e129f003 	msr	CPSR_fc, r3
    9104:	e12fff1e 	bx	lr

00009108 <rpi_reboot>:
    9108:	e92d4008 	push	{r3, lr}
    910c:	ebfffff2 	bl	90dc <at_user_level>
    9110:	e3500000 	cmp	r0, #0
    9114:	0a000000 	beq	911c <rpi_reboot+0x14>
    9118:	ebfffff5 	bl	90f4 <set_user_level>
    911c:	e3a0001e 	mov	r0, #30
    9120:	eb000026 	bl	91c0 <delay_ms>
    9124:	e59f0014 	ldr	r0, [pc, #20]	; 9140 <rpi_reboot+0x38>
    9128:	e59f1014 	ldr	r1, [pc, #20]	; 9144 <rpi_reboot+0x3c>
    912c:	eb000035 	bl	9208 <PUT32>
    9130:	e59f0010 	ldr	r0, [pc, #16]	; 9148 <rpi_reboot+0x40>
    9134:	e59f1010 	ldr	r1, [pc, #16]	; 914c <rpi_reboot+0x44>
    9138:	eb000032 	bl	9208 <PUT32>
    913c:	eafffffe 	b	913c <rpi_reboot+0x34>
    9140:	20100024 	andscs	r0, r0, r4, lsr #32
    9144:	5a000001 	bpl	9150 <delay_cycles>
    9148:	2010001c 	andscs	r0, r0, ip, lsl r0
    914c:	5a000020 	bpl	91d4 <delay_sec>

00009150 <delay_cycles>:
    9150:	ea000001 	b	915c <delay_cycles+0xc>
    9154:	e2811000 	add	r1, r1, #0
    9158:	e1a00003 	mov	r0, r3
    915c:	e2403001 	sub	r3, r0, #1
    9160:	e3500000 	cmp	r0, #0
    9164:	1afffffa 	bne	9154 <delay_cycles+0x4>
    9168:	e12fff1e 	bx	lr

0000916c <timer_get_usec_raw>:
    916c:	e92d4008 	push	{r3, lr}
    9170:	e59f0004 	ldr	r0, [pc, #4]	; 917c <timer_get_usec_raw+0x10>
    9174:	eb00002f 	bl	9238 <GET32>
    9178:	e8bd8008 	pop	{r3, pc}
    917c:	20003004 	andcs	r3, r0, r4

00009180 <timer_get_usec>:
    9180:	e92d4010 	push	{r4, lr}
    9184:	eb000017 	bl	91e8 <dev_barrier>
    9188:	ebfffff7 	bl	916c <timer_get_usec_raw>
    918c:	e1a04000 	mov	r4, r0
    9190:	eb000014 	bl	91e8 <dev_barrier>
    9194:	e1a00004 	mov	r0, r4
    9198:	e8bd8010 	pop	{r4, pc}

0000919c <delay_us>:
    919c:	e92d4038 	push	{r3, r4, r5, lr}
    91a0:	e1a05000 	mov	r5, r0
    91a4:	ebfffff5 	bl	9180 <timer_get_usec>
    91a8:	e1a04000 	mov	r4, r0
    91ac:	ebfffff3 	bl	9180 <timer_get_usec>
    91b0:	e0640000 	rsb	r0, r4, r0
    91b4:	e1500005 	cmp	r0, r5
    91b8:	3afffffb 	bcc	91ac <delay_us+0x10>
    91bc:	e8bd8038 	pop	{r3, r4, r5, pc}

000091c0 <delay_ms>:
    91c0:	e92d4008 	push	{r3, lr}
    91c4:	e3a03ffa 	mov	r3, #1000	; 0x3e8
    91c8:	e0000093 	mul	r0, r3, r0
    91cc:	ebfffff2 	bl	919c <delay_us>
    91d0:	e8bd8008 	pop	{r3, pc}

000091d4 <delay_sec>:
    91d4:	e92d4008 	push	{r3, lr}
    91d8:	e3a03ffa 	mov	r3, #1000	; 0x3e8
    91dc:	e0000093 	mul	r0, r3, r0
    91e0:	ebfffff6 	bl	91c0 <delay_ms>
    91e4:	e8bd8008 	pop	{r3, pc}

000091e8 <dev_barrier>:
    91e8:	ea000002 	b	91f8 <dsb>

000091ec <dmb>:
    91ec:	e3a00000 	mov	r0, #0
    91f0:	ee070fba 	mcr	15, 0, r0, cr7, cr10, {5}
    91f4:	e12fff1e 	bx	lr

000091f8 <dsb>:
    91f8:	ee070f9a 	mcr	15, 0, r0, cr7, cr10, {4}
    91fc:	e12fff1e 	bx	lr

00009200 <put32>:
    9200:	e5801000 	str	r1, [r0]
    9204:	e12fff1e 	bx	lr

00009208 <PUT32>:
    9208:	e5801000 	str	r1, [r0]
    920c:	e12fff1e 	bx	lr

00009210 <put16>:
    9210:	e1c010b0 	strh	r1, [r0]
    9214:	e12fff1e 	bx	lr

00009218 <PUT16>:
    9218:	e1c010b0 	strh	r1, [r0]
    921c:	e12fff1e 	bx	lr

00009220 <put8>:
    9220:	e5c01000 	strb	r1, [r0]
    9224:	e12fff1e 	bx	lr

00009228 <PUT8>:
    9228:	e5c01000 	strb	r1, [r0]
    922c:	e12fff1e 	bx	lr

00009230 <get32>:
    9230:	e5900000 	ldr	r0, [r0]
    9234:	e12fff1e 	bx	lr

00009238 <GET32>:
    9238:	e5900000 	ldr	r0, [r0]
    923c:	e12fff1e 	bx	lr

00009240 <GETPC>:
    9240:	e1a0000e 	mov	r0, lr
    9244:	e12fff1e 	bx	lr

00009248 <dummy>:
    9248:	e12fff1e 	bx	lr

0000924c <or_in32>:
    924c:	e92d4070 	push	{r4, r5, r6, lr}
    9250:	e1a04000 	mov	r4, r0
    9254:	e1a05001 	mov	r5, r1
    9258:	ebfffff4 	bl	9230 <get32>
    925c:	e1801005 	orr	r1, r0, r5
    9260:	e1a00004 	mov	r0, r4
    9264:	ebffffe5 	bl	9200 <put32>
    9268:	e8bd8070 	pop	{r4, r5, r6, pc}

0000926c <uart_init>:
    926c:	e92d4010 	push	{r4, lr}
    9270:	e3a01002 	mov	r1, #2
    9274:	e3a0000e 	mov	r0, #14
    9278:	eb000051 	bl	93c4 <gpio_set_function>
    927c:	e3a01002 	mov	r1, #2
    9280:	e3a0000f 	mov	r0, #15
    9284:	eb00004e 	bl	93c4 <gpio_set_function>
    9288:	ebffffd6 	bl	91e8 <dev_barrier>
    928c:	e3a01001 	mov	r1, #1
    9290:	e59f0064 	ldr	r0, [pc, #100]	; 92fc <uart_init+0x90>
    9294:	ebffffec 	bl	924c <or_in32>
    9298:	ebffffd2 	bl	91e8 <dev_barrier>
    929c:	e59f405c 	ldr	r4, [pc, #92]	; 9300 <uart_init+0x94>
    92a0:	e3a01000 	mov	r1, #0
    92a4:	e1a00004 	mov	r0, r4
    92a8:	ebffffd4 	bl	9200 <put32>
    92ac:	e3a01000 	mov	r1, #0
    92b0:	e59f004c 	ldr	r0, [pc, #76]	; 9304 <uart_init+0x98>
    92b4:	ebffffd1 	bl	9200 <put32>
    92b8:	e3a01003 	mov	r1, #3
    92bc:	e59f0044 	ldr	r0, [pc, #68]	; 9308 <uart_init+0x9c>
    92c0:	ebffffce 	bl	9200 <put32>
    92c4:	e3a01000 	mov	r1, #0
    92c8:	e59f003c 	ldr	r0, [pc, #60]	; 930c <uart_init+0xa0>
    92cc:	ebffffcb 	bl	9200 <put32>
    92d0:	e3a010c7 	mov	r1, #199	; 0xc7
    92d4:	e59f0034 	ldr	r0, [pc, #52]	; 9310 <uart_init+0xa4>
    92d8:	ebffffc8 	bl	9200 <put32>
    92dc:	e59f1030 	ldr	r1, [pc, #48]	; 9314 <uart_init+0xa8>
    92e0:	e59f0030 	ldr	r0, [pc, #48]	; 9318 <uart_init+0xac>
    92e4:	ebffffc5 	bl	9200 <put32>
    92e8:	e3a01003 	mov	r1, #3
    92ec:	e1a00004 	mov	r0, r4
    92f0:	ebffffc2 	bl	9200 <put32>
    92f4:	ebffffbb 	bl	91e8 <dev_barrier>
    92f8:	e8bd8010 	pop	{r4, pc}
    92fc:	20215004 	eorcs	r5, r1, r4
    9300:	20215060 	eorcs	r5, r1, r0, rrx
    9304:	20215044 	eorcs	r5, r1, r4, asr #32
    9308:	2021504c 	eorcs	r5, r1, ip, asr #32
    930c:	20215050 	eorcs	r5, r1, r0, asr r0
    9310:	20215048 	eorcs	r5, r1, r8, asr #32
    9314:	0000010e 	andeq	r0, r0, lr, lsl #2
    9318:	20215068 	eorcs	r5, r1, r8, rrx

0000931c <uart_can_getc>:
    931c:	e92d4010 	push	{r4, lr}
    9320:	e59f0008 	ldr	r0, [pc, #8]	; 9330 <uart_can_getc+0x14>
    9324:	ebffffc1 	bl	9230 <get32>
    9328:	e2000001 	and	r0, r0, #1
    932c:	e8bd8010 	pop	{r4, pc}
    9330:	20215064 	eorcs	r5, r1, r4, rrx

00009334 <uart_can_putc>:
    9334:	e92d4010 	push	{r4, lr}
    9338:	e59f0010 	ldr	r0, [pc, #16]	; 9350 <uart_can_putc+0x1c>
    933c:	ebffffbb 	bl	9230 <get32>
    9340:	e3100002 	tst	r0, #2
    9344:	13a00001 	movne	r0, #1
    9348:	03a00000 	moveq	r0, #0
    934c:	e8bd8010 	pop	{r4, pc}
    9350:	20215064 	eorcs	r5, r1, r4, rrx

00009354 <uart_getc>:
    9354:	e92d4010 	push	{r4, lr}
    9358:	ebffffa2 	bl	91e8 <dev_barrier>
    935c:	ebffffee 	bl	931c <uart_can_getc>
    9360:	e3500000 	cmp	r0, #0
    9364:	0afffffc 	beq	935c <uart_getc+0x8>
    9368:	e59f0010 	ldr	r0, [pc, #16]	; 9380 <uart_getc+0x2c>
    936c:	ebffffaf 	bl	9230 <get32>
    9370:	e6ef4070 	uxtb	r4, r0
    9374:	ebffff9b 	bl	91e8 <dev_barrier>
    9378:	e1a00004 	mov	r0, r4
    937c:	e8bd8010 	pop	{r4, pc}
    9380:	20215040 	eorcs	r5, r1, r0, asr #32

00009384 <uart_putc>:
    9384:	e92d4010 	push	{r4, lr}
    9388:	e1a04000 	mov	r4, r0
    938c:	ebffff95 	bl	91e8 <dev_barrier>
    9390:	ebffffe7 	bl	9334 <uart_can_putc>
    9394:	e3500000 	cmp	r0, #0
    9398:	0afffffc 	beq	9390 <uart_putc+0xc>
    939c:	e6ef1074 	uxtb	r1, r4
    93a0:	e59f0008 	ldr	r0, [pc, #8]	; 93b0 <uart_putc+0x2c>
    93a4:	ebffff95 	bl	9200 <put32>
    93a8:	ebffff8e 	bl	91e8 <dev_barrier>
    93ac:	e8bd8010 	pop	{r4, pc}
    93b0:	20215040 	eorcs	r5, r1, r0, asr #32

000093b4 <uart_has_data>:
    93b4:	e92d4010 	push	{r4, lr}
    93b8:	ebffff8a 	bl	91e8 <dev_barrier>
    93bc:	ebffffd6 	bl	931c <uart_can_getc>
    93c0:	e8bd8010 	pop	{r4, pc}

000093c4 <gpio_set_function>:
    93c4:	e350001f 	cmp	r0, #31
    93c8:	812fff1e 	bxhi	lr
    93cc:	e3d13007 	bics	r3, r1, #7
    93d0:	112fff1e 	bxne	lr
    93d4:	e92d4070 	push	{r4, r5, r6, lr}
    93d8:	e1a05001 	mov	r5, r1
    93dc:	e59f3044 	ldr	r3, [pc, #68]	; 9428 <gpio_set_function+0x64>
    93e0:	e0832093 	umull	r2, r3, r3, r0
    93e4:	e1a031a3 	lsr	r3, r3, #3
    93e8:	e1a06003 	mov	r6, r3
    93ec:	e0833103 	add	r3, r3, r3, lsl #2
    93f0:	e1a02083 	lsl	r2, r3, #1
    93f4:	e0403002 	sub	r3, r0, r2
    93f8:	e0834083 	add	r4, r3, r3, lsl #1
    93fc:	e2866302 	add	r6, r6, #134217728	; 0x8000000
    9400:	e2866702 	add	r6, r6, #524288	; 0x80000
    9404:	e1a06106 	lsl	r6, r6, #2
    9408:	e1a00006 	mov	r0, r6
    940c:	ebffff89 	bl	9238 <GET32>
    9410:	e3a01007 	mov	r1, #7
    9414:	e1c01411 	bic	r1, r0, r1, lsl r4
    9418:	e1811415 	orr	r1, r1, r5, lsl r4
    941c:	e1a00006 	mov	r0, r6
    9420:	ebffff78 	bl	9208 <PUT32>
    9424:	e8bd8070 	pop	{r4, r5, r6, pc}
    9428:	cccccccd 	stclgt	12, cr12, [ip], {205}	; 0xcd

0000942c <gpio_set_output>:
    942c:	e92d4010 	push	{r4, lr}
    9430:	e3a01001 	mov	r1, #1
    9434:	ebffffe2 	bl	93c4 <gpio_set_function>
    9438:	e8bd8010 	pop	{r4, pc}

0000943c <gpio_set_on>:
    943c:	e350001f 	cmp	r0, #31
    9440:	812fff1e 	bxhi	lr
    9444:	e92d4010 	push	{r4, lr}
    9448:	e3a01001 	mov	r1, #1
    944c:	e1a01011 	lsl	r1, r1, r0
    9450:	e59f0004 	ldr	r0, [pc, #4]	; 945c <gpio_set_on+0x20>
    9454:	ebffff6b 	bl	9208 <PUT32>
    9458:	e8bd8010 	pop	{r4, pc}
    945c:	2020001c 	eorcs	r0, r0, ip, lsl r0

00009460 <gpio_set_off>:
    9460:	e350001f 	cmp	r0, #31
    9464:	812fff1e 	bxhi	lr
    9468:	e92d4010 	push	{r4, lr}
    946c:	e3a01001 	mov	r1, #1
    9470:	e1a01011 	lsl	r1, r1, r0
    9474:	e59f0004 	ldr	r0, [pc, #4]	; 9480 <gpio_set_off+0x20>
    9478:	ebffff62 	bl	9208 <PUT32>
    947c:	e8bd8010 	pop	{r4, pc}
    9480:	20200028 	eorcs	r0, r0, r8, lsr #32

00009484 <gpio_set_input>:
    9484:	e92d4010 	push	{r4, lr}
    9488:	e3a01000 	mov	r1, #0
    948c:	ebffffcc 	bl	93c4 <gpio_set_function>
    9490:	e8bd8010 	pop	{r4, pc}

00009494 <gpio_write>:
    9494:	e92d4010 	push	{r4, lr}
    9498:	e3510000 	cmp	r1, #0
    949c:	1a000001 	bne	94a8 <gpio_write+0x14>
    94a0:	ebffffee 	bl	9460 <gpio_set_off>
    94a4:	e8bd8010 	pop	{r4, pc}
    94a8:	ebffffe3 	bl	943c <gpio_set_on>
    94ac:	e8bd8010 	pop	{r4, pc}

000094b0 <gpio_read>:
    94b0:	e350001f 	cmp	r0, #31
    94b4:	8a000007 	bhi	94d8 <gpio_read+0x28>
    94b8:	e92d4010 	push	{r4, lr}
    94bc:	e200401f 	and	r4, r0, #31
    94c0:	e59f3018 	ldr	r3, [pc, #24]	; 94e0 <gpio_read+0x30>
    94c4:	e08302a0 	add	r0, r3, r0, lsr #5
    94c8:	ebffff5a 	bl	9238 <GET32>
    94cc:	e1a00430 	lsr	r0, r0, r4
    94d0:	e2000001 	and	r0, r0, #1
    94d4:	e8bd8010 	pop	{r4, pc}
    94d8:	e3e00000 	mvn	r0, #0
    94dc:	e12fff1e 	bx	lr
    94e0:	20200034 	eorcs	r0, r0, r4, lsr r0

000094e4 <__code_end__>:
    94e4:	00000000 	andeq	r0, r0, r0

Disassembly of section .data:

000094e8 <__data_start__>:
    94e8:	000088ec 	andeq	r8, r0, ip, ror #17

000094ec <putk>:
    94ec:	00008928 	andeq	r8, r0, r8, lsr #18

Disassembly of section .rodata:

000094f0 <__FUNCTION__.4397-0x26c>:
    94f0:	253a7325 	ldrcs	r7, [sl, #-805]!	; 0x325
    94f4:	64253a73 	strtvs	r3, [r5], #-2675	; 0xa73
    94f8:	7365743a 	cmnvc	r5, #973078528	; 0x3a000000
    94fc:	676e6974 			; <UNDEFINED> instruction: 0x676e6974
    9500:	69727020 	ldmdbvs	r2!, {r5, ip, sp, lr}^
    9504:	216b746e 	cmncs	fp, lr, ror #8
    9508:	0000000a 	andeq	r0, r0, sl
    950c:	74736574 	ldrbtvc	r6, [r3], #-1396	; 0x574
    9510:	36312f73 	shsub16cc	r2, r1, r3
    9514:	7261702d 	rsbvc	r7, r1, #45	; 0x2d
    9518:	742d3174 	strtvc	r3, [sp], #-372	; 0x174
    951c:	33747365 	cmncc	r4, #-1811939327	; 0x94000001
    9520:	0000632e 	andeq	r6, r0, lr, lsr #6
    9524:	253a7325 	ldrcs	r7, [sl, #-805]!	; 0x325
    9528:	64253a73 	strtvs	r3, [r5], #-2675	; 0xa73
    952c:	6572703a 	ldrbvs	r7, [r2, #-58]!	; 0x3a
    9530:	63746566 	cmnvs	r4, #427819008	; 0x19800000
    9534:	62612068 	rsbvs	r2, r1, #104	; 0x68
    9538:	2074726f 	rsbscs	r7, r4, pc, ror #4
    953c:	25207461 	strcs	r7, [r0, #-1121]!	; 0x461
    9540:	75202c70 	strvc	r2, [r0, #-3184]!	; 0xc70
    9544:	5f726573 	svcpl	0x00726573
    9548:	74736574 	ldrbtvc	r6, [r3], #-1396	; 0x574
    954c:	25203d20 	strcs	r3, [r0, #-3360]!	; 0xd20
    9550:	00000a70 	andeq	r0, r0, r0, ror sl
    9554:	494e4150 	stmdbmi	lr, {r4, r6, r8, lr}^
    9558:	73253a43 	teqvc	r5, #274432	; 0x43000
    955c:	3a73253a 	bcc	1cd2a4c <__bss_end__+0x1cc8a8c>
    9560:	693a6425 	ldmdbvs	sl!, {r0, r2, r5, sl, sp, lr}
    9564:	736f706d 	cmnvc	pc, #109	; 0x6d
    9568:	6c626973 	stclvs	9, cr6, [r2], #-460	; 0xfffffe34
    956c:	73203a65 	teqvc	r0, #413696	; 0x65000
    9570:	6c756f68 	ldclvs	15, cr6, [r5], #-416	; 0xfffffe60
    9574:	65672064 	strbvs	r2, [r7, #-100]!	; 0x64
    9578:	6f6e2074 	svcvs	0x006e2074
    957c:	68746f20 	ldmdavs	r4!, {r5, r8, r9, sl, fp, sp, lr}^
    9580:	66207265 	strtvs	r7, [r0], -r5, ror #4
    9584:	746c7561 	strbtvc	r7, [ip], #-1377	; 0x561
    9588:	000a0a73 	andeq	r0, sl, r3, ror sl
    958c:	494e4150 	stmdbmi	lr, {r4, r6, r8, lr}^
    9590:	73253a43 	teqvc	r5, #274432	; 0x43000
    9594:	3a73253a 	bcc	1cd2a84 <__bss_end__+0x1cc8ac4>
    9598:	253a6425 	ldrcs	r6, [sl, #-1061]!	; 0x425
    959c:	00000a73 	andeq	r0, r0, r3, ror sl
    95a0:	20746e63 	rsbscs	r6, r4, r3, ror #28
    95a4:	4e203d3d 	mcrmi	13, 1, r3, cr0, cr13, {1}
    95a8:	00000000 	andeq	r0, r0, r0
    95ac:	43435553 	movtmi	r5, #13651	; 0x3553
    95b0:	3a535345 	bcc	14de2cc <__bss_end__+0x14d430c>
    95b4:	00000000 	andeq	r0, r0, r0
    95b8:	656e6f64 	strbvs	r6, [lr, #-3940]!	; 0xf64
    95bc:	6e697320 	cdpvs	3, 6, cr7, cr9, cr0, {1}
    95c0:	20656c67 	rsbcs	r6, r5, r7, ror #24
    95c4:	70657473 	rsbvc	r7, r5, r3, ror r4
    95c8:	676e6970 			; <UNDEFINED> instruction: 0x676e6970
    95cc:	6e63203a 	mcrvs	0, 3, r2, cr3, cr10, {1}
    95d0:	64253d74 	strtvs	r3, [r5], #-3444	; 0xd74
    95d4:	000a2121 	andeq	r2, sl, r1, lsr #2
    95d8:	253a7325 	ldrcs	r7, [sl, #-805]!	; 0x325
    95dc:	64253a73 	strtvs	r3, [r5], #-2675	; 0xa73
    95e0:	7465733a 	strbtvc	r7, [r5], #-826	; 0x33a
    95e4:	676e6974 			; <UNDEFINED> instruction: 0x676e6974
    95e8:	20707520 	rsbscs	r7, r0, r0, lsr #10
    95ec:	696d2061 	stmdbvs	sp!, {r0, r5, r6, sp}^
    95f0:	74616d73 	strbtvc	r6, [r1], #-3443	; 0xd73
    95f4:	6f206863 	svcvs	0x00206863
    95f8:	7025206e 	eorvc	r2, r5, lr, rrx
    95fc:	0000000a 	andeq	r0, r0, sl
    9600:	253a7325 	ldrcs	r7, [sl, #-805]!	; 0x325
    9604:	64253a73 	strtvs	r3, [r5], #-2675	; 0xa73
    9608:	6e6f643a 	mcrvs	4, 3, r6, cr15, cr10, {1}
    960c:	65732065 	ldrbvs	r2, [r3, #-101]!	; 0x65
    9610:	6e697474 	mcrvs	4, 3, r7, cr9, cr4, {3}
    9614:	70752067 	rsbsvc	r2, r5, r7, rrx
    9618:	6d206120 	stfvss	f6, [r0, #-128]!	; 0xffffff80
    961c:	616d7369 	cmnvs	sp, r9, ror #6
    9620:	20686374 	rsbcs	r6, r8, r4, ror r3
    9624:	25206e6f 	strcs	r6, [r0, #-3695]!	; 0xe6f
    9628:	00000a70 	andeq	r0, r0, r0, ror sl
    962c:	52455355 	subpl	r5, r5, #1409286145	; 0x54000001
    9630:	444f4d20 	strbmi	r4, [pc], #-3360	; 9638 <__data_end__+0x148>
    9634:	00000045 	andeq	r0, r0, r5, asr #32
    9638:	20514946 	subscs	r4, r1, r6, asr #18
    963c:	45444f4d 	strbmi	r4, [r4, #-3917]	; 0xf4d
    9640:	00000000 	andeq	r0, r0, r0
    9644:	20515249 	subscs	r5, r1, r9, asr #4
    9648:	45444f4d 	strbmi	r4, [r4, #-3917]	; 0xf4d
    964c:	00000000 	andeq	r0, r0, r0
    9650:	45505553 	ldrbmi	r5, [r0, #-1363]	; 0x553
    9654:	4f4d2052 	svcmi	0x004d2052
    9658:	00004544 	andeq	r4, r0, r4, asr #10
    965c:	524f4241 	subpl	r4, pc, #268435460	; 0x10000004
    9660:	4f4d2054 	svcmi	0x004d2054
    9664:	00004544 	andeq	r4, r0, r4, asr #10
    9668:	45444e55 	strbmi	r4, [r4, #-3669]	; 0xe55
    966c:	4f4d2046 	svcmi	0x004d2046
    9670:	00004544 	andeq	r4, r0, r4, asr #10
    9674:	20535953 	subscs	r5, r3, r3, asr r9
    9678:	45444f4d 	strbmi	r4, [r4, #-3917]	; 0xf4d
    967c:	00000000 	andeq	r0, r0, r0
    9680:	70632f2e 	rsbvc	r2, r3, lr, lsr #30
    9684:	752d7273 	strvc	r7, [sp, #-627]!	; 0x273
    9688:	2e6c6974 	mcrcs	9, 3, r6, cr12, cr4, {3}
    968c:	00000068 	andeq	r0, r0, r8, rrx
    9690:	65646f6d 	strbvs	r6, [r4, #-3949]!	; 0xf6d
    9694:	67656c5f 			; <UNDEFINED> instruction: 0x67656c5f
    9698:	6d286c61 	stcvs	12, cr6, [r8, #-388]!	; 0xfffffe7c
    969c:	2965646f 	stmdbcs	r5!, {r0, r1, r2, r3, r5, r6, sl, sp, lr}^
    96a0:	00000000 	andeq	r0, r0, r0
    96a4:	494e4150 	stmdbmi	lr, {r4, r6, r8, lr}^
    96a8:	73253a43 	teqvc	r5, #274432	; 0x43000
    96ac:	3a73253a 	bcc	1cd2b9c <__bss_end__+0x1cc8bdc>
    96b0:	753a6425 	ldrvc	r6, [sl, #-1061]!	; 0x425
    96b4:	6f6e6b6e 	svcvs	0x006e6b6e
    96b8:	6d206e77 	stcvs	14, cr6, [r0, #-476]!	; 0xfffffe24
    96bc:	3a65646f 	bcc	1962880 <__bss_end__+0x19588c0>
    96c0:	78253c20 	stmdavc	r5!, {r5, sl, fp, ip, sp}
    96c4:	000a0a3e 	andeq	r0, sl, lr, lsr sl
    96c8:	253a7325 	ldrcs	r7, [sl, #-805]!	; 0x325
    96cc:	64253a73 	strtvs	r3, [r5], #-2675	; 0xa73
    96d0:	7275633a 	rsbsvc	r6, r5, #-402653184	; 0xe8000000
    96d4:	746e6572 	strbtvc	r6, [lr], #-1394	; 0x572
    96d8:	646f6d20 	strbtvs	r6, [pc], #-3360	; 96e0 <__data_end__+0x1f0>
    96dc:	203d2065 	eorscs	r2, sp, r5, rrx
    96e0:	000a7325 	andeq	r7, sl, r5, lsr #6
    96e4:	253a7325 	ldrcs	r7, [sl, #-805]!	; 0x325
    96e8:	64253a73 	strtvs	r3, [r5], #-2675	; 0xa73
    96ec:	6f62613a 	svcvs	0x0062613a
    96f0:	74207475 	strtvc	r7, [r0], #-1141	; 0x475
    96f4:	6573206f 	ldrbvs	r2, [r3, #-111]!	; 0x6f
    96f8:	696d2074 	stmdbvs	sp!, {r2, r4, r5, r6, sp}^
    96fc:	74616d73 	strbtvc	r6, [r1], #-3443	; 0xd73
    9700:	62206863 	eorvs	r6, r0, #6488064	; 0x630000
    9704:	74706b72 	ldrbtvc	r6, [r0], #-2930	; 0xb72
    9708:	0000000a 	andeq	r0, r0, sl
    970c:	253a7325 	ldrcs	r7, [sl, #-805]!	; 0x325
    9710:	64253a73 	strtvs	r3, [r5], #-2675	; 0xa73
    9714:	7465733a 	strbtvc	r7, [r5], #-826	; 0x33a
    9718:	73696d20 	cmnvc	r9, #32, 26	; 0x800
    971c:	6374616d 	cmnvs	r4, #1073741851	; 0x4000001b
    9720:	72622068 	rsbvc	r2, r2, #104	; 0x68
    9724:	0a74706b 	beq	1d258d8 <__bss_end__+0x1d1b918>
    9728:	00000000 	andeq	r0, r0, r0
    972c:	494e4150 	stmdbmi	lr, {r4, r6, r8, lr}^
    9730:	73253a43 	teqvc	r5, #274432	; 0x43000
    9734:	3a73253a 	bcc	1cd2c24 <__bss_end__+0x1cc8c64>
    9738:	463a6425 	ldrtmi	r6, [sl], -r5, lsr #8
    973c:	454c4941 	strbmi	r4, [ip, #-2369]	; 0x941
    9740:	73203a44 	teqvc	r0, #68, 20	; 0x44000
    9744:	6c756f68 	ldclvs	15, cr6, [r5], #-416	; 0xfffffe60
    9748:	6f6e2064 	svcvs	0x006e2064
    974c:	65672074 	strbvs	r2, [r7, #-116]!	; 0x74
    9750:	65682074 	strbvs	r2, [r8, #-116]!	; 0x74
    9754:	0a0a6572 	beq	2a2d24 <__bss_end__+0x298d64>
    9758:	00000000 	andeq	r0, r0, r0

0000975c <__FUNCTION__.4397>:
    975c:	72657375 	rsbvc	r7, r5, #-738197503	; 0xd4000001
    9760:	7365745f 	cmnvc	r5, #1593835520	; 0x5f000000
    9764:	00000074 	andeq	r0, r0, r4, ror r0

00009768 <__FUNCTION__.4408>:
    9768:	6d746f6e 	ldclvs	15, cr6, [r4, #-440]!	; 0xfffffe48
    976c:	006e6961 	rsbeq	r6, lr, r1, ror #18

00009770 <__FUNCTION__.4403>:
    9770:	676e6973 			; <UNDEFINED> instruction: 0x676e6973
    9774:	735f656c 	cmpvc	pc, #108, 10	; 0x1b000000
    9778:	5f706574 	svcpl	0x00706574
    977c:	646e6168 	strbtvs	r6, [lr], #-360	; 0x168
    9780:	0072656c 	rsbseq	r6, r2, ip, ror #10

00009784 <__FUNCTION__.4387>:
    9784:	65646f6d 	strbvs	r6, [r4, #-3949]!	; 0xf6d
    9788:	7274735f 	rsbsvc	r7, r4, #2080374785	; 0x7c000001
    978c:	00000000 	andeq	r0, r0, r0

00009790 <__FUNCTION__.4370>:
    9790:	65646f6d 	strbvs	r6, [r4, #-3949]!	; 0xf6d
    9794:	7465675f 	strbtvc	r6, [r5], #-1887	; 0x75f
    9798:	00000000 	andeq	r0, r0, r0

0000979c <__FUNCTION__.4251>:
    979c:	73746962 	cmnvc	r4, #1605632	; 0x188000
    97a0:	7465675f 	strbtvc	r6, [r5], #-1887	; 0x75f
    97a4:	00000000 	andeq	r0, r0, r0

000097a8 <__FUNCTION__.4375>:
    97a8:	65646f6d 	strbvs	r6, [r4, #-3949]!	; 0xf6d
    97ac:	7465735f 	strbtvc	r7, [r5], #-863	; 0x35f
    97b0:	00000000 	andeq	r0, r0, r0

000097b4 <__FUNCTION__.4258>:
    97b4:	73746962 	cmnvc	r4, #1605632	; 0x188000
    97b8:	726c635f 	rsbvc	r6, ip, #2080374785	; 0x7c000001
    97bc:	00000000 	andeq	r0, r0, r0
    97c0:	34317063 	ldrtcc	r7, [r1], #-99	; 0x63
    97c4:	6265642d 	rsbvs	r6, r5, #754974720	; 0x2d000000
    97c8:	632e6775 	teqvs	lr, #30670848	; 0x1d40000
    97cc:	00000000 	andeq	r0, r0, r0
    97d0:	30726377 	rsbscc	r6, r2, r7, ror r3
    97d4:	6765725f 			; <UNDEFINED> instruction: 0x6765725f
    97d8:	203d3d20 	eorscs	r3, sp, r0, lsr #26
    97dc:	30726377 	rsbscc	r6, r2, r7, ror r3
    97e0:	7465675f 	strbtvc	r6, [r5], #-1887	; 0x75f
    97e4:	00002928 	andeq	r2, r0, r8, lsr #18
    97e8:	494e4150 	stmdbmi	lr, {r4, r6, r8, lr}^
    97ec:	73253a43 	teqvc	r5, #274432	; 0x43000
    97f0:	3a73253a 	bcc	1cd2ce0 <__bss_end__+0x1cc8d20>
    97f4:	693a6425 	ldmdbvs	sl!, {r0, r2, r5, sl, sp, lr}
    97f8:	736f706d 	cmnvc	pc, #109	; 0x6d
    97fc:	6c626973 	stclvs	9, cr6, [r2], #-460	; 0xfffffe34
    9800:	73203a65 	teqvc	r0, #413696	; 0x65000
    9804:	6c756f68 	ldclvs	15, cr6, [r5], #-416	; 0xfffffe60
    9808:	6e6f2064 	cdpvs	0, 6, cr2, cr15, cr4, {3}
    980c:	6720796c 	strvs	r7, [r0, -ip, ror #18]!
    9810:	64207465 	strtvs	r7, [r0], #-1125	; 0x465
    9814:	66617461 	strbtvs	r7, [r1], -r1, ror #8
    9818:	746c7561 	strbtvc	r7, [ip], #-1377	; 0x561
    981c:	000a0a73 	andeq	r0, sl, r3, ror sl
    9820:	34317063 	ldrtcc	r7, [r1], #-99	; 0x63
    9824:	6265642d 	rsbvs	r6, r5, #754974720	; 0x2d000000
    9828:	682e6775 	stmdavs	lr!, {r0, r2, r4, r5, r6, r8, r9, sl, sp, lr}
    982c:	00000000 	andeq	r0, r0, r0
    9830:	72616677 	rsbvc	r6, r1, #124780544	; 0x7700000
    9834:	7465675f 	strbtvc	r6, [r5], #-1887	; 0x75f
    9838:	342d2928 	strtcc	r2, [sp], #-2344	; 0x928
    983c:	203d3d20 	eorscs	r3, sp, r0, lsr #26
    9840:	00006370 	andeq	r6, r0, r0, ror r3
    9844:	63746177 	cmnvs	r4, #-1073741795	; 0xc000001d
    9848:	5f747068 	svcpl	0x00747068
    984c:	646e6168 	strbtvs	r6, [lr], #-360	; 0x168
    9850:	3072656c 	rsbscc	r6, r2, ip, ror #10
    9854:	00000000 	andeq	r0, r0, r0
    9858:	706b7262 	rsbvc	r7, fp, r2, ror #4
    985c:	61685f74 	smcvs	34292	; 0x85f4
    9860:	656c646e 	strbvs	r6, [ip, #-1134]!	; 0x46e
    9864:	00003072 	andeq	r3, r0, r2, ror r0
    9868:	494e4150 	stmdbmi	lr, {r4, r6, r8, lr}^
    986c:	73253a43 	teqvc	r5, #274432	; 0x43000
    9870:	3a73253a 	bcc	1cd2d60 <__bss_end__+0x1cc8da0>
    9874:	723a6425 	eorsvc	r6, sl, #620756992	; 0x25000000
    9878:	72757465 	rsbsvc	r7, r5, #1694498816	; 0x65000000
    987c:	2064656e 	rsbcs	r6, r4, lr, ror #10
    9880:	20646e61 	rsbcs	r6, r4, r1, ror #28
    9884:	756f6873 	strbvc	r6, [pc, #-2163]!	; 9019 <software_interrupt_vector+0x39>
    9888:	6e20646c 	cdpvs	4, 2, cr6, cr0, cr12, {3}
    988c:	6820746f 	stmdavs	r0!, {r0, r1, r2, r3, r5, r6, sl, ip, sp, lr}
    9890:	21657661 	cmncs	r5, r1, ror #12
    9894:	00000a0a 	andeq	r0, r0, sl, lsl #20
    9898:	494e4150 	stmdbmi	lr, {r4, r6, r8, lr}^
    989c:	73253a43 	teqvc	r5, #274432	; 0x43000
    98a0:	3a73253a 	bcc	1cd2d90 <__bss_end__+0x1cc8dd0>
    98a4:	693a6425 	ldmdbvs	sl!, {r0, r2, r5, sl, sp, lr}
    98a8:	656c706d 	strbvs	r7, [ip, #-109]!	; 0x6d
    98ac:	746e656d 	strbtvc	r6, [lr], #-1389	; 0x56d
    98b0:	69687420 	stmdbvs	r8!, {r5, sl, ip, sp, lr}^
    98b4:	75662073 	strbvc	r2, [r6, #-115]!	; 0x73
    98b8:	6974636e 	ldmdbvs	r4!, {r1, r2, r3, r5, r6, r8, r9, sp, lr}^
    98bc:	0a216e6f 	beq	865280 <__bss_end__+0x85b2c0>
    98c0:	0000000a 	andeq	r0, r0, sl

000098c4 <__FUNCTION__.4393>:
    98c4:	63746177 	cmnvs	r4, #-1073741795	; 0xc000001d
    98c8:	5f747068 	svcpl	0x00747068
    98cc:	30746573 	rsbscc	r6, r4, r3, ror r5
    98d0:	00000000 	andeq	r0, r0, r0

000098d4 <__FUNCTION__.4399>:
    98d4:	61746164 	cmnvs	r4, r4, ror #2
    98d8:	6f62615f 	svcvs	0x0062615f
    98dc:	765f7472 			; <UNDEFINED> instruction: 0x765f7472
    98e0:	6f746365 	svcvs	0x00746365
    98e4:	00000072 	andeq	r0, r0, r2, ror r0

000098e8 <__FUNCTION__.4306>:
    98e8:	5f736177 	svcpl	0x00736177
    98ec:	75626564 	strbvc	r6, [r2, #-1380]!	; 0x564
    98f0:	61645f67 	cmnvs	r4, r7, ror #30
    98f4:	61666174 	smcvs	26132	; 0x6614
    98f8:	00746c75 	rsbseq	r6, r4, r5, ror ip

000098fc <__FUNCTION__.4443>:
    98fc:	66657270 			; <UNDEFINED> instruction: 0x66657270
    9900:	68637465 	stmdavs	r3!, {r0, r2, r5, r6, sl, ip, sp, lr}^
    9904:	6f62615f 	svcvs	0x0062615f
    9908:	765f7472 			; <UNDEFINED> instruction: 0x765f7472
    990c:	6f746365 	svcvs	0x00746365
    9910:	00000072 	andeq	r0, r0, r2, ror r0

00009914 <__FUNCTION__.4451>:
    9914:	5f6b7262 	svcpl	0x006b7262
    9918:	725f6f6e 	subsvc	r6, pc, #440	; 0x1b8
    991c:	655f7465 	ldrbvs	r7, [pc, #-1125]	; 94bf <gpio_read+0xf>
    9920:	726f7272 	rsbvc	r7, pc, #536870919	; 0x20000007
    9924:	00000000 	andeq	r0, r0, r0

00009928 <__FUNCTION__.4461>:
    9928:	706b7262 	rsbvc	r7, fp, r2, ror #4
    992c:	696d5f74 	stmdbvs	sp!, {r2, r4, r5, r6, r8, r9, sl, fp, ip, lr}^
    9930:	74616d73 	strbtvc	r6, [r1], #-3443	; 0xd73
    9934:	645f6863 	ldrbvs	r6, [pc], #-2147	; 993c <__FUNCTION__.4461+0x14>
    9938:	62617369 	rsbvs	r7, r1, #-1543503871	; 0xa4000001
    993c:	0030656c 	eorseq	r6, r0, ip, ror #10

00009940 <__FUNCTION__.4466>:
    9940:	63737973 	cmnvs	r3, #1884160	; 0x1cc000
    9944:	5f6c6c61 	svcpl	0x006c6c61
    9948:	74636576 	strbtvc	r6, [r3], #-1398	; 0x576
    994c:	0000726f 	andeq	r7, r0, pc, ror #4

00009950 <__FUNCTION__.4249>:
    9950:	74696d65 	strbtvc	r6, [r9], #-3429	; 0xd65
    9954:	00000000 	andeq	r0, r0, r0

00009958 <__FUNCTION__.4197>:
    9958:	5f697072 	svcpl	0x00697072
    995c:	5f746573 	svcpl	0x00746573
    9960:	7074756f 	rsbsvc	r7, r4, pc, ror #10
    9964:	00007475 	andeq	r7, r0, r5, ror r4

00009968 <__FUNCTION__.4272>:
    9968:	705f6176 	subsvc	r6, pc, r6, ror r1	; <UNPREDICTABLE>
    996c:	746e6972 	strbtvc	r6, [lr], #-2418	; 0x972
    9970:	0000006b 	andeq	r0, r0, fp, rrx
    9974:	6362696c 	cmnvs	r2, #108, 18	; 0x1b0000
    9978:	2d61762f 	stclcs	6, cr7, [r1, #-188]!	; 0xffffff44
    997c:	6e697270 	mcrvs	2, 3, r7, cr9, cr0, {3}
    9980:	632e6b74 	teqvs	lr, #116, 22	; 0x1d000
    9984:	00000000 	andeq	r0, r0, r0
    9988:	00000030 	andeq	r0, r0, r0, lsr r0
    998c:	33323130 	teqcc	r2, #48, 2
    9990:	37363534 			; <UNDEFINED> instruction: 0x37363534
    9994:	00003938 	andeq	r3, r0, r8, lsr r9
    9998:	33323130 	teqcc	r2, #48, 2
    999c:	37363534 			; <UNDEFINED> instruction: 0x37363534
    99a0:	62613938 	rsbvs	r3, r1, #56, 18	; 0xe0000
    99a4:	66656463 	strbtvs	r6, [r5], -r3, ror #8
    99a8:	00000000 	andeq	r0, r0, r0
    99ac:	00003130 	andeq	r3, r0, r0, lsr r1
    99b0:	63747570 	cmnvs	r4, #112, 10	; 0x1c000000
    99b4:	0070665f 	rsbseq	r6, r0, pc, asr r6
    99b8:	74646977 	strbtvc	r6, [r4], #-2423	; 0x977
    99bc:	203c2068 	eorscs	r2, ip, r8, rrx
    99c0:	00003233 	andeq	r3, r0, r3, lsr r2
    99c4:	494e4150 	stmdbmi	lr, {r4, r6, r8, lr}^
    99c8:	73253a43 	teqvc	r5, #274432	; 0x43000
    99cc:	3a73253a 	bcc	1cd2ebc <__bss_end__+0x1cc8efc>
    99d0:	663a6425 	ldrtvs	r6, [sl], -r5, lsr #8
    99d4:	74616f6c 	strbtvc	r6, [r1], #-3948	; 0xf6c
    99d8:	746f6e20 	strbtvc	r6, [pc], #-3616	; 99e0 <__FUNCTION__.4272+0x78>
    99dc:	616e6520 	cmnvs	lr, r0, lsr #10
    99e0:	64656c62 	strbtvs	r6, [r5], #-3170	; 0xc62
    99e4:	0a212121 	beq	851e70 <__bss_end__+0x847eb0>
    99e8:	00000000 	andeq	r0, r0, r0
    99ec:	6e697270 	mcrvs	2, 3, r7, cr9, cr0, {3}
    99f0:	203a6b74 	eorscs	r6, sl, r4, ror fp
    99f4:	20746f6e 	rsbscs	r6, r4, lr, ror #30
    99f8:	646e6168 	strbtvs	r6, [lr], #-360	; 0x168
    99fc:	676e696c 	strbvs	r6, [lr, -ip, ror #18]!
    9a00:	65707320 	ldrbvs	r7, [r0, #-800]!	; 0x320
    9a04:	69666963 	stmdbvs	r6!, {r0, r1, r5, r6, r8, fp, sp, lr}^
    9a08:	27207265 	strcs	r7, [r0, -r5, ror #4]!
    9a0c:	20276325 	eorcs	r6, r7, r5, lsr #6
    9a10:	63736128 	cmnvs	r3, #40, 2
    9a14:	253d6969 	ldrcs	r6, [sp, #-2409]!	; 0x969
    9a18:	000a2964 	andeq	r2, sl, r4, ror #18
    9a1c:	494e4150 	stmdbmi	lr, {r4, r6, r8, lr}^
    9a20:	73253a43 	teqvc	r5, #274432	; 0x43000
    9a24:	3a73253a 	bcc	1cd2f14 <__bss_end__+0x1cc8f54>
    9a28:	703a6425 	eorsvc	r6, sl, r5, lsr #8
    9a2c:	746e6972 	strbtvc	r6, [lr], #-2418	; 0x972
    9a30:	7265206b 	rsbvc	r2, r5, #107	; 0x6b
    9a34:	0a726f72 	beq	1ca5804 <__bss_end__+0x1c9b844>
    9a38:	0000000a 	andeq	r0, r0, sl
    9a3c:	454e4f44 	strbmi	r4, [lr, #-3908]	; 0xf44
    9a40:	0a212121 	beq	851ecc <__bss_end__+0x847f0c>
    9a44:	00000000 	andeq	r0, r0, r0

00009a48 <__FUNCTION__.4220>:
    9a48:	74736166 	ldrbtvc	r6, [r3], #-358	; 0x166
    9a4c:	746e695f 	strbtvc	r6, [lr], #-2399	; 0x95f
    9a50:	75727265 	ldrbvc	r7, [r2, #-613]!	; 0x265
    9a54:	765f7470 			; <UNDEFINED> instruction: 0x765f7470
    9a58:	6f746365 	svcvs	0x00746365
    9a5c:	00000072 	andeq	r0, r0, r2, ror r0
    9a60:	494e4150 	stmdbmi	lr, {r4, r6, r8, lr}^
    9a64:	73253a43 	teqvc	r5, #274432	; 0x43000
    9a68:	3a73253a 	bcc	1cd2f58 <__bss_end__+0x1cc8f98>
    9a6c:	453a6425 	ldrmi	r6, [sl, #-1061]!	; 0x425
    9a70:	524f5252 	subpl	r5, pc, #536870917	; 0x20000005
    9a74:	6e75203a 	mrcvs	0, 3, r2, cr5, cr10, {1}
    9a78:	646e6168 	strbtvs	r6, [lr], #-360	; 0x168
    9a7c:	2064656c 	rsbcs	r6, r4, ip, ror #10
    9a80:	65637865 	strbvs	r7, [r3, #-2149]!	; 0x865
    9a84:	6f697470 	svcvs	0x00697470
    9a88:	253c206e 	ldrcs	r2, [ip, #-110]!	; 0x6e
    9a8c:	61203e73 	teqvs	r0, r3, ror lr
    9a90:	43502074 	cmpmi	r0, #116	; 0x74
    9a94:	0a78253d 	beq	1e12f90 <__bss_end__+0x1e08fd0>
    9a98:	0000000a 	andeq	r0, r0, sl
    9a9c:	66617473 			; <UNDEFINED> instruction: 0x66617473
    9aa0:	72732d66 	rsbsvc	r2, r3, #6528	; 0x1980
    9aa4:	65642f63 	strbvs	r2, [r4, #-3939]!	; 0xf63
    9aa8:	6c756166 	ldfvse	f6, [r5], #-408	; 0xfffffe68
    9aac:	61682d74 	smcvs	33492	; 0x82d4
    9ab0:	656c646e 	strbvs	r6, [ip, #-1134]!	; 0x46e
    9ab4:	61662d72 	smcvs	25298	; 0x62d2
    9ab8:	632e7473 	teqvs	lr, #1929379840	; 0x73000000
    9abc:	00000000 	andeq	r0, r0, r0
    9ac0:	74736166 	ldrbtvc	r6, [r3], #-358	; 0x166
    9ac4:	00000000 	andeq	r0, r0, r0

00009ac8 <__FUNCTION__.4220>:
    9ac8:	65736572 	ldrbvs	r6, [r3, #-1394]!	; 0x572
    9acc:	65765f74 	ldrbvs	r5, [r6, #-3956]!	; 0xf74
    9ad0:	726f7463 	rsbvc	r7, pc, #1660944384	; 0x63000000
    9ad4:	00000000 	andeq	r0, r0, r0
    9ad8:	66617473 			; <UNDEFINED> instruction: 0x66617473
    9adc:	72732d66 	rsbsvc	r2, r3, #6528	; 0x1980
    9ae0:	65642f63 	strbvs	r2, [r4, #-3939]!	; 0xf63
    9ae4:	6c756166 	ldfvse	f6, [r5], #-408	; 0xfffffe68
    9ae8:	61682d74 	smcvs	33492	; 0x82d4
    9aec:	656c646e 	strbvs	r6, [ip, #-1134]!	; 0x46e
    9af0:	65722d72 	ldrbvs	r2, [r2, #-3442]!	; 0xd72
    9af4:	2e746573 	mrccs	5, 3, r6, cr4, cr3, {3}
    9af8:	00000063 	andeq	r0, r0, r3, rrx
    9afc:	65736572 	ldrbvs	r6, [r3, #-1394]!	; 0x572
    9b00:	00000074 	andeq	r0, r0, r4, ror r0

00009b04 <__FUNCTION__.4220>:
    9b04:	74666f73 	strbtvc	r6, [r6], #-3955	; 0xf73
    9b08:	65726177 	ldrbvs	r6, [r2, #-375]!	; 0x177
    9b0c:	746e695f 	strbtvc	r6, [lr], #-2399	; 0x95f
    9b10:	75727265 	ldrbvc	r7, [r2, #-613]!	; 0x265
    9b14:	765f7470 			; <UNDEFINED> instruction: 0x765f7470
    9b18:	6f746365 	svcvs	0x00746365
    9b1c:	00000072 	andeq	r0, r0, r2, ror r0
    9b20:	66617473 			; <UNDEFINED> instruction: 0x66617473
    9b24:	72732d66 	rsbsvc	r2, r3, #6528	; 0x1980
    9b28:	65642f63 	strbvs	r2, [r4, #-3939]!	; 0xf63
    9b2c:	6c756166 	ldfvse	f6, [r5], #-408	; 0xfffffe68
    9b30:	61682d74 	smcvs	33492	; 0x82d4
    9b34:	656c646e 	strbvs	r6, [ip, #-1134]!	; 0x46e
    9b38:	77732d72 			; <UNDEFINED> instruction: 0x77732d72
    9b3c:	00632e69 	rsbeq	r2, r3, r9, ror #28
    9b40:	00697773 	rsbeq	r7, r9, r3, ror r7

00009b44 <__FUNCTION__.4220>:
    9b44:	65646e75 	strbvs	r6, [r4, #-3701]!	; 0xe75
    9b48:	656e6966 	strbvs	r6, [lr, #-2406]!	; 0x966
    9b4c:	6e695f64 	cdpvs	15, 6, cr5, cr9, cr4, {3}
    9b50:	75727473 	ldrbvc	r7, [r2, #-1139]!	; 0x473
    9b54:	6f697463 	svcvs	0x00697463
    9b58:	65765f6e 	ldrbvs	r5, [r6, #-3950]!	; 0xf6e
    9b5c:	726f7463 	rsbvc	r7, pc, #1660944384	; 0x63000000
    9b60:	00000000 	andeq	r0, r0, r0
    9b64:	66617473 			; <UNDEFINED> instruction: 0x66617473
    9b68:	72732d66 	rsbsvc	r2, r3, #6528	; 0x1980
    9b6c:	65642f63 	strbvs	r2, [r4, #-3939]!	; 0xf63
    9b70:	6c756166 	ldfvse	f6, [r5], #-408	; 0xfffffe68
    9b74:	61682d74 	smcvs	33492	; 0x82d4
    9b78:	656c646e 	strbvs	r6, [ip, #-1134]!	; 0x46e
    9b7c:	6e752d72 	mrcvs	13, 3, r2, cr5, cr2, {3}
    9b80:	69666564 	stmdbvs	r6!, {r2, r5, r6, r8, sl, sp, lr}^
    9b84:	2d64656e 	cfstr64cs	mvdx6, [r4, #-440]!	; 0xfffffe48
    9b88:	74736e69 	ldrbtvc	r6, [r3], #-3689	; 0xe69
    9b8c:	0000632e 	andeq	r6, r0, lr, lsr #6
    9b90:	65646e75 	strbvs	r6, [r4, #-3701]!	; 0xe75
    9b94:	656e6966 	strbvs	r6, [lr, #-2406]!	; 0x966
    9b98:	6e692064 	cdpvs	0, 6, cr2, cr9, cr4, {3}
    9b9c:	00007473 	andeq	r7, r0, r3, ror r4

Disassembly of section .bss:

00009ba0 <__bss_start__>:
    9ba0:	00000000 	andeq	r0, r0, r0

00009ba4 <cnt>:
    9ba4:	00000000 	andeq	r0, r0, r0

00009ba8 <watchpt_handler0>:
    9ba8:	00000000 	andeq	r0, r0, r0

00009bac <brkpt_handler0>:
    9bac:	00000000 	andeq	r0, r0, r0

00009bb0 <brk_verbose_p>:
    9bb0:	00000000 	andeq	r0, r0, r0

00009bb4 <nfaults.4398>:
    9bb4:	00000000 	andeq	r0, r0, r0

00009bb8 <init_p.4404>:
    9bb8:	00000000 	andeq	r0, r0, r0

00009bbc <buf.4189>:
	...

Disassembly of section .ARM.attributes:

00000000 <.ARM.attributes>:
   0:	00002a41 	andeq	r2, r0, r1, asr #20
   4:	61656100 	cmnvs	r5, r0, lsl #2
   8:	01006962 	tsteq	r0, r2, ror #18
   c:	00000020 	andeq	r0, r0, r0, lsr #32
  10:	4b5a3605 	blmi	168d82c <__bss_end__+0x168386c>
  14:	08070600 	stmdaeq	r7, {r9, sl}
  18:	12010901 	andne	r0, r1, #16384	; 0x4000
  1c:	15011404 	strne	r1, [r1, #-1028]	; 0x404
  20:	18031701 	stmdane	r3, {r0, r8, r9, sl, ip}
  24:	22011a01 	andcs	r1, r1, #4096	; 0x1000
  28:	Address 0x0000000000000028 is out of bounds.


Disassembly of section .comment:

00000000 <.comment>:
   0:	3a434347 	bcc	10d0d24 <__bss_end__+0x10c6d64>
   4:	4e472820 	cdpmi	8, 4, cr2, cr7, cr0, {1}
   8:	34202955 	strtcc	r2, [r0], #-2389	; 0x955
   c:	332e382e 	teqcc	lr, #3014656	; 0x2e0000
  10:	43434700 	movtmi	r4, #14080	; 0x3700
  14:	3128203a 	teqcc	r8, sl, lsr r0
  18:	2e363a35 	mrccs	10, 1, r3, cr6, cr5, {1}
  1c:	2b312e33 	blcs	c4b8f0 <__bss_end__+0xc41930>
  20:	326e7673 	rsbcc	r7, lr, #120586240	; 0x7300000
  24:	33303335 	teqcc	r0, #-738197504	; 0xd4000000
  28:	62312d39 	eorsvs	r2, r1, #3648	; 0xe40
  2c:	646c6975 	strbtvs	r6, [ip], #-2421	; 0x975
  30:	36202931 			; <UNDEFINED> instruction: 0x36202931
  34:	312e332e 	teqcc	lr, lr, lsr #6
  38:	31303220 	teqcc	r0, r0, lsr #4
  3c:	32363037 	eorscc	r3, r6, #55	; 0x37
  40:	Address 0x0000000000000040 is out of bounds.


Disassembly of section .debug_info:

00000000 <.debug_info>:
       0:	0000097c 	andeq	r0, r0, ip, ror r9
       4:	00000004 	andeq	r0, r0, r4
       8:	01040000 	mrseq	r0, (UNDEF: 4)
       c:	0000013e 	andeq	r0, r0, lr, lsr r1
      10:	00002601 	andeq	r2, r0, r1, lsl #12
      14:	00006300 	andeq	r6, r0, r0, lsl #6
      18:	00802000 	addeq	r2, r0, r0
      1c:	00041800 	andeq	r1, r4, r0, lsl #16
      20:	00000000 	andeq	r0, r0, r0
      24:	05040200 	streq	r0, [r4, #-512]	; 0x200
      28:	00746e69 	rsbseq	r6, r4, r9, ror #28
      2c:	cc070403 	cfstrsgt	mvf0, [r7], {3}
      30:	03000001 	movweq	r0, #1
      34:	00e40601 	rsceq	r0, r4, r1, lsl #12
      38:	02030000 	andeq	r0, r3, #0
      3c:	00022005 	andeq	r2, r2, r5
      40:	05040300 	streq	r0, [r4, #-768]	; 0x300
      44:	00000200 	andeq	r0, r0, r0, lsl #4
      48:	fb050803 	blx	14205e <__bss_end__+0x13809e>
      4c:	03000001 	movweq	r0, #1
      50:	00e20801 	rsceq	r0, r2, r1, lsl #16
      54:	02030000 	andeq	r0, r3, #0
      58:	00004b07 	andeq	r4, r0, r7, lsl #22
      5c:	01060400 	tsteq	r6, r0, lsl #8
      60:	34060000 	strcc	r0, [r6], #-0
      64:	00000068 	andeq	r0, r0, r8, rrx
      68:	c7070403 	strgt	r0, [r7, -r3, lsl #8]
      6c:	03000001 	movweq	r0, #1
      70:	01c20708 	biceq	r0, r2, r8, lsl #14
      74:	04030000 	streq	r0, [r3], #-0
      78:	0001e807 	andeq	lr, r1, r7, lsl #16
      7c:	83040500 	movwhi	r0, #17664	; 0x4500
      80:	06000000 	streq	r0, [r0], -r0
      84:	eb080103 	bl	200498 <__bss_end__+0x1f64d8>
      88:	05000000 	streq	r0, [r0, #-0]
      8c:	00009104 	andeq	r9, r0, r4, lsl #2
      90:	00840700 	addeq	r0, r4, r0, lsl #14
      94:	84080000 	strhi	r0, [r8], #-0
      98:	a6000000 	strge	r0, [r0], -r0
      9c:	09000000 	stmdbeq	r0, {}	; <UNPREDICTABLE>
      a0:	00000076 	andeq	r0, r0, r6, ror r0
      a4:	de040007 	cdple	0, 0, cr0, cr4, cr7, {0}
      a8:	02000001 	andeq	r0, r0, #1
      ac:	0000b18a 	andeq	fp, r0, sl, lsl #3
      b0:	b7040500 	strlt	r0, [r4, -r0, lsl #10]
      b4:	0a000000 	beq	bc <__code_start__-0x7f44>
      b8:	000000cc 	andeq	r0, r0, ip, asr #1
      bc:	0000cc0b 	andeq	ip, r0, fp, lsl #24
      c0:	005d0b00 	subseq	r0, sp, r0, lsl #22
      c4:	5d0b0000 	stcpl	0, cr0, [fp, #-0]
      c8:	00000000 	andeq	r0, r0, r0
      cc:	005d0405 	subseq	r0, sp, r5, lsl #8
      d0:	2a0c0000 	bcs	3000d8 <__bss_end__+0x2f6118>
      d4:	02000002 	andeq	r0, r0, #2
      d8:	00005da6 	andeq	r5, r0, r6, lsr #27
      dc:	00ee0300 	rsceq	r0, lr, r0, lsl #6
      e0:	720d0000 	andvc	r0, sp, #0
      e4:	02007465 	andeq	r7, r0, #1694498816	; 0x65000000
      e8:	00005da6 	andeq	r5, r0, r6, lsr #27
      ec:	3e0c0000 	cdpcc	0, 0, cr0, cr12, cr0, {0}
      f0:	02000002 	andeq	r0, r0, #2
      f4:	00002ca9 	andeq	r2, r0, r9, lsr #25
      f8:	01080300 	mrseq	r0, (UNDEF: 56)
      fc:	720d0000 	andvc	r0, sp, #0
     100:	2caa0200 	sfmcs	f0, 4, [sl]
     104:	00000000 	andeq	r0, r0, r0
     108:	0002330c 	andeq	r3, r2, ip, lsl #6
     10c:	25070500 	strcs	r0, [r7, #-1280]	; 0x500
     110:	03000000 	movweq	r0, #0
     114:	00000124 	andeq	r0, r0, r4, lsr #2
     118:	0001d90e 	andeq	sp, r1, lr, lsl #18
     11c:	2c070500 	cfstr32cs	mvfx0, [r7], {-0}
     120:	00000000 	andeq	r0, r0, r0
     124:	00025e0c 	andeq	r5, r2, ip, lsl #28
     128:	5d260300 	stcpl	3, cr0, [r6, #-0]
     12c:	03000000 	movweq	r0, #0
     130:	00000140 	andeq	r0, r0, r0, asr #2
     134:	00003d0f 	andeq	r3, r0, pc, lsl #26
     138:	5d270300 	stcpl	3, cr0, [r7, #-0]
     13c:	00000000 	andeq	r0, r0, r0
     140:	0000c410 	andeq	ip, r0, r0, lsl r4
     144:	03c30200 	biceq	r0, r3, #0, 4
     148:	00000158 	andeq	r0, r0, r8, asr r1
     14c:	00005e0e 	andeq	r5, r0, lr, lsl #28
     150:	25c30200 	strbcs	r0, [r3, #512]	; 0x200
     154:	00000000 	andeq	r0, r0, r0
     158:	0001f111 	andeq	pc, r1, r1, lsl r1	; <UNPREDICTABLE>
     15c:	200c0100 	andcs	r0, ip, r0, lsl #2
     160:	7c000080 	stcvc	0, cr0, [r0], {128}	; 0x80
     164:	01000000 	mrseq	r0, (UNDEF: 0)
     168:	0001c29c 	muleq	r1, ip, r2
     16c:	011d1200 	tsteq	sp, r0, lsl #4
     170:	01d20000 	bicseq	r0, r2, r0
     174:	03050000 	movweq	r0, #20480	; 0x5000
     178:	0000975c 	andeq	r9, r0, ip, asr r7
     17c:	00802413 	addeq	r2, r0, r3, lsl r4
     180:	00002800 	andeq	r2, r0, r0, lsl #16
     184:	00019700 	andeq	r9, r1, r0, lsl #14
     188:	00691400 	rsbeq	r1, r9, r0, lsl #8
     18c:	00250d01 	eoreq	r0, r5, r1, lsl #26
     190:	00000000 	andeq	r0, r0, r0
     194:	15000000 	strne	r0, [r0, #-0]
     198:	00008070 	andeq	r8, r0, r0, ror r0
     19c:	00000925 	andeq	r0, r0, r5, lsr #18
     1a0:	01530116 	cmpeq	r3, r6, lsl r1
     1a4:	5201163f 	andpl	r1, r1, #66060288	; 0x3f00000
     1a8:	975c0305 	ldrbls	r0, [ip, -r5, lsl #6]
     1ac:	01160000 	tsteq	r6, r0
     1b0:	0c030551 	cfstr32eq	mvfx0, [r3], {81}	; 0x51
     1b4:	16000095 			; <UNDEFINED> instruction: 0x16000095
     1b8:	03055001 	movweq	r5, #20481	; 0x5001
     1bc:	000094f0 	strdeq	r9, [r0], -r0
     1c0:	84080000 	strhi	r0, [r8], #-0
     1c4:	d2000000 	andle	r0, r0, #0
     1c8:	09000001 	stmdbeq	r0, {r0}
     1cc:	00000076 	andeq	r0, r0, r6, ror r0
     1d0:	c2070009 	andgt	r0, r7, #9
     1d4:	17000001 	strne	r0, [r0, -r1]
     1d8:	0000012a 	andeq	r0, r0, sl, lsr #2
     1dc:	809c1401 	addshi	r1, ip, r1, lsl #8
     1e0:	01700000 	cmneq	r0, r0
     1e4:	9c010000 	stcls	0, cr0, [r1], {-0}
     1e8:	000003f2 	strdeq	r0, [r0], -r2
     1ec:	00021b18 	andeq	r1, r2, r8, lsl fp
     1f0:	cc140100 	ldfgts	f0, [r4], {-0}
     1f4:	1f000000 	svcne	0x00000000
     1f8:	19000000 	stmdbne	r0, {}	; <UNPREDICTABLE>
     1fc:	01006370 	tsteq	r0, r0, ror r3
     200:	00005d14 	andeq	r5, r0, r4, lsl sp
     204:	00004000 	andeq	r4, r0, r0
     208:	03d71800 	bicseq	r1, r7, #0, 16
     20c:	14010000 	strne	r0, [r1], #-0
     210:	0000005d 	andeq	r0, r0, sp, asr r0
     214:	0000006c 	andeq	r0, r0, ip, rrx
     218:	00011d12 	andeq	r1, r1, r2, lsl sp
     21c:	00040200 	andeq	r0, r4, r0, lsl #4
     220:	70030500 	andvc	r0, r3, r0, lsl #10
     224:	1a000097 	bne	488 <__code_start__-0x7b78>
     228:	000000ee 	andeq	r0, r0, lr, ror #1
     22c:	000080d8 	ldrdeq	r8, [r0], -r8	; <UNPREDICTABLE>
     230:	00000008 	andeq	r0, r0, r8
     234:	026d1701 	rsbeq	r1, sp, #262144	; 0x40000
     238:	d81b0000 	ldmdale	fp, {}	; <UNPREDICTABLE>
     23c:	08000080 	stmdaeq	r0, {r7}
     240:	1c000000 	stcne	0, cr0, [r0], {-0}
     244:	000000fe 	strdeq	r0, [r0], -lr
     248:	0000d21d 	andeq	sp, r0, sp, lsl r2
     24c:	0080d800 	addeq	sp, r0, r0, lsl #16
     250:	00000400 	andeq	r0, r0, r0, lsl #8
     254:	1baa0200 	blne	fea80a5c <__bss_end__+0xfea76a9c>
     258:	000080d8 	ldrdeq	r8, [r0], -r8	; <UNPREDICTABLE>
     25c:	00000004 	andeq	r0, r0, r4
     260:	0000e21e 	andeq	lr, r0, lr, lsl r2
     264:	00008d00 	andeq	r8, r0, r0, lsl #26
     268:	00000000 	andeq	r0, r0, r0
     26c:	80d81f00 	sbcshi	r1, r8, r0, lsl #30
     270:	09250000 	stmdbeq	r5!, {}	; <UNPREDICTABLE>
     274:	02ac0000 	adceq	r0, ip, #0
     278:	01160000 	tsteq	r6, r0
     27c:	16450153 			; <UNDEFINED> instruction: 0x16450153
     280:	03055201 	movweq	r5, #20993	; 0x5201
     284:	00009770 	andeq	r9, r0, r0, ror r7
     288:	05510116 	ldrbeq	r0, [r1, #-278]	; 0x116
     28c:	00950c03 	addseq	r0, r5, r3, lsl #24
     290:	50011600 	andpl	r1, r1, r0, lsl #12
     294:	95240305 	strls	r0, [r4, #-773]!	; 0x305
     298:	02160000 	andseq	r0, r6, #0
     29c:	0305047d 	movweq	r0, #21629	; 0x547d
     2a0:	00008020 	andeq	r8, r0, r0, lsr #32
     2a4:	007d0216 	rsbseq	r0, sp, r6, lsl r2
     2a8:	00007402 	andeq	r7, r0, r2, lsl #8
     2ac:	0080ec20 	addeq	lr, r0, r0, lsr #24
     2b0:	00093b00 	andeq	r3, r9, r0, lsl #22
     2b4:	81001f00 	tsthi	r0, r0, lsl #30
     2b8:	09250000 	stmdbeq	r5!, {}	; <UNPREDICTABLE>
     2bc:	02e30000 	rsceq	r0, r3, #0
     2c0:	01160000 	tsteq	r6, r0
     2c4:	16480153 			; <UNDEFINED> instruction: 0x16480153
     2c8:	03055201 	movweq	r5, #20993	; 0x5201
     2cc:	00009770 	andeq	r9, r0, r0, ror r7
     2d0:	05510116 	ldrbeq	r0, [r1, #-278]	; 0x116
     2d4:	00950c03 	addseq	r0, r5, r3, lsl #24
     2d8:	50011600 	andpl	r1, r1, r0, lsl #12
     2dc:	95540305 	ldrbls	r0, [r4, #-773]	; 0x305
     2e0:	20000000 	andcs	r0, r0, r0
     2e4:	00008104 	andeq	r8, r0, r4, lsl #2
     2e8:	00000942 	andeq	r0, r0, r2, asr #18
     2ec:	00812c20 	addeq	r2, r1, r0, lsr #24
     2f0:	00093b00 	andeq	r3, r9, r0, lsl #22
     2f4:	81481f00 	cmphi	r8, r0, lsl #30
     2f8:	09250000 	stmdbeq	r5!, {}	; <UNPREDICTABLE>
     2fc:	032d0000 	teqeq	sp, #0
     300:	01160000 	tsteq	r6, r0
     304:	164b0153 			; <UNDEFINED> instruction: 0x164b0153
     308:	03055201 	movweq	r5, #20993	; 0x5201
     30c:	00009770 	andeq	r9, r0, r0, ror r7
     310:	05510116 	ldrbeq	r0, [r1, #-278]	; 0x116
     314:	00950c03 	addseq	r0, r5, r3, lsl #24
     318:	50011600 	andpl	r1, r1, r0, lsl #12
     31c:	958c0305 	strls	r0, [ip, #773]	; 0x305
     320:	02160000 	andseq	r0, r6, #0
     324:	0305007d 	movweq	r0, #20605	; 0x507d
     328:	000095a0 	andeq	r9, r0, r0, lsr #11
     32c:	814c2000 	mrshi	r2, (UNDEF: 76)
     330:	09420000 	stmdbeq	r2, {}^	; <UNPREDICTABLE>
     334:	541f0000 	ldrpl	r0, [pc], #-0	; 33c <__code_start__-0x7cc4>
     338:	25000081 	strcs	r0, [r0, #-129]	; 0x81
     33c:	4d000009 	stcmi	0, cr0, [r0, #-36]	; 0xffffffdc
     340:	16000003 	strne	r0, [r0], -r3
     344:	03055001 	movweq	r5, #20481	; 0x5001
     348:	000095ac 	andeq	r9, r0, ip, lsr #11
     34c:	81641f00 	cmnhi	r4, r0, lsl #30
     350:	09250000 	stmdbeq	r5!, {}	; <UNPREDICTABLE>
     354:	03640000 	cmneq	r4, #0
     358:	01160000 	tsteq	r6, r0
     35c:	b8030550 	stmdalt	r3, {r4, r6, r8, sl}
     360:	00000095 	muleq	r0, r5, r0
     364:	00816820 	addeq	r6, r1, r0, lsr #16
     368:	00094200 	andeq	r4, r9, r0, lsl #4
     36c:	81901f00 	orrshi	r1, r0, r0, lsl #30
     370:	09250000 	stmdbeq	r5!, {}	; <UNPREDICTABLE>
     374:	03a20000 			; <UNDEFINED> instruction: 0x03a20000
     378:	01160000 	tsteq	r6, r0
     37c:	164e0153 			; <UNDEFINED> instruction: 0x164e0153
     380:	03055201 	movweq	r5, #20993	; 0x5201
     384:	00009770 	andeq	r9, r0, r0, ror r7
     388:	05510116 	ldrbeq	r0, [r1, #-278]	; 0x116
     38c:	00950c03 	addseq	r0, r5, r3, lsl #24
     390:	50011600 	andpl	r1, r1, r0, lsl #12
     394:	95d80305 	ldrbls	r0, [r8, #773]	; 0x305
     398:	02160000 	andseq	r0, r6, #0
     39c:	7402007d 	strvc	r0, [r2], #-125	; 0x7d
     3a0:	9c1f0000 	ldcls	0, cr0, [pc], {-0}
     3a4:	49000081 	stmdbmi	r0, {r0, r7}
     3a8:	bf000009 	svclt	0x00000009
     3ac:	16000003 	strne	r0, [r0], -r3
     3b0:	03055101 	movweq	r5, #20737	; 0x5101
     3b4:	0000809c 	muleq	r0, ip, r0
     3b8:	02500116 	subseq	r0, r0, #-2147483643	; 0x80000005
     3bc:	15000074 	strne	r0, [r0, #-116]	; 0x74
     3c0:	000081c4 	andeq	r8, r0, r4, asr #3
     3c4:	00000925 	andeq	r0, r0, r5, lsr #18
     3c8:	02530116 	subseq	r0, r3, #-2147483643	; 0x80000005
     3cc:	01162008 	tsteq	r6, r8
     3d0:	70030552 	andvc	r0, r3, r2, asr r5
     3d4:	16000097 			; <UNDEFINED> instruction: 0x16000097
     3d8:	03055101 	movweq	r5, #20737	; 0x5101
     3dc:	0000950c 	andeq	r9, r0, ip, lsl #10
     3e0:	05500116 	ldrbeq	r0, [r0, #-278]	; 0x116
     3e4:	00960003 	addseq	r0, r6, r3
     3e8:	7d021600 	stcvc	6, cr1, [r2, #-0]
     3ec:	00740200 	rsbseq	r0, r4, r0, lsl #4
     3f0:	84080000 	strhi	r0, [r8], #-0
     3f4:	02000000 	andeq	r0, r0, #0
     3f8:	09000004 	stmdbeq	r0, {r2}
     3fc:	00000076 	andeq	r0, r0, r6, ror r0
     400:	f2070013 	vqadd.s8	d0, d7, d3
     404:	0c000003 	stceq	0, cr0, [r0], {3}
     408:	00000042 	andeq	r0, r0, r2, asr #32
     40c:	008b1805 	addeq	r1, fp, r5, lsl #16
     410:	30030000 	andcc	r0, r3, r0
     414:	0e000004 	cdpeq	0, 0, cr0, cr0, cr4, {0}
     418:	0000003d 	andeq	r0, r0, sp, lsr r0
     41c:	005d1805 	subseq	r1, sp, r5, lsl #16
     420:	1d210000 	stcne	0, cr0, [r1, #-0]
     424:	40000001 	andmi	r0, r0, r1
     428:	42000004 	andmi	r0, r0, #4
     42c:	00000000 	andeq	r0, r0, r0
     430:	00008408 	andeq	r8, r0, r8, lsl #8
     434:	00044000 	andeq	r4, r4, r0
     438:	00760900 	rsbseq	r0, r6, r0, lsl #18
     43c:	00080000 	andeq	r0, r8, r0
     440:	00043007 	andeq	r3, r4, r7
     444:	00000c00 	andeq	r0, r0, r0, lsl #24
     448:	0f050000 	svceq	0x00050000
     44c:	0000005d 	andeq	r0, r0, sp, asr r0
     450:	00047903 	andeq	r7, r4, r3, lsl #18
     454:	003d0e00 	eorseq	r0, sp, r0, lsl #28
     458:	0f050000 	svceq	0x00050000
     45c:	0000005d 	andeq	r0, r0, sp, asr r0
     460:	0001d90f 	andeq	sp, r1, pc, lsl #18
     464:	2c100500 	cfldr32cs	mvfx0, [r0], {-0}
     468:	21000000 	mrscs	r0, (UNDEF: 0)
     46c:	0000011d 	andeq	r0, r0, sp, lsl r1
     470:	00000479 	andeq	r0, r0, r9, ror r4
     474:	00000000 	andeq	r0, r0, r0
     478:	04300700 	ldrteq	r0, [r0], #-1792	; 0x700
     47c:	1d0c0000 	stcne	0, cr0, [ip, #-0]
     480:	04000000 	streq	r0, [r0], #-0
     484:	00005d1c 	andeq	r5, r0, ip, lsl sp
     488:	04c20300 	strbeq	r0, [r2], #768	; 0x300
     48c:	78220000 	stmdavc	r2!, {}	; <UNPREDICTABLE>
     490:	5d1c0400 	cfldrspl	mvf0, [ip, #-0]
     494:	22000000 	andcs	r0, r0, #0
     498:	0400626c 	streq	r6, [r0], #-620	; 0x26c
     49c:	00002c1c 	andeq	r2, r0, ip, lsl ip
     4a0:	62752200 	rsbsvs	r2, r5, #0, 4
     4a4:	2c1c0400 	cfldrscs	mvf0, [ip], {-0}
     4a8:	21000000 	mrscs	r0, (UNDEF: 0)
     4ac:	0000011d 	andeq	r0, r0, sp, lsl r1
     4b0:	000004c2 	andeq	r0, r0, r2, asr #9
     4b4:	0000001d 	andeq	r0, r0, sp, lsl r0
     4b8:	04006e0d 	streq	r6, [r0], #-3597	; 0xe0d
     4bc:	00002c1f 	andeq	r2, r0, pc, lsl ip
     4c0:	30070000 	andcc	r0, r7, r0
     4c4:	0c000004 	stceq	0, cr0, [r0], {4}
     4c8:	000000d0 	ldrdeq	r0, [r0], -r0	; <UNPREDICTABLE>
     4cc:	005d1405 	subseq	r1, sp, r5, lsl #8
     4d0:	fb030000 	blx	c04da <__bss_end__+0xb651a>
     4d4:	0e000004 	cdpeq	0, 0, cr0, cr0, cr4, {0}
     4d8:	0000003d 	andeq	r0, r0, sp, lsr r0
     4dc:	005d1405 	subseq	r1, sp, r5, lsl #8
     4e0:	d90e0000 	stmdble	lr, {}	; <UNPREDICTABLE>
     4e4:	05000001 	streq	r0, [r0, #-1]
     4e8:	00002c14 	andeq	r2, r0, r4, lsl ip
     4ec:	011d2100 	tsteq	sp, r0, lsl #2
     4f0:	04fb0000 	ldrbteq	r0, [fp], #0
     4f4:	00d00000 	sbcseq	r0, r0, r0
     4f8:	07000000 	streq	r0, [r0, -r0]
     4fc:	00000430 	andeq	r0, r0, r0, lsr r4
     500:	0000fd0c 	andeq	pc, r0, ip, lsl #26
     504:	5d250400 	cfstrspl	mvf0, [r5, #-0]
     508:	03000000 	movweq	r0, #0
     50c:	0000054f 	andeq	r0, r0, pc, asr #10
     510:	04007822 	streq	r7, [r0], #-2082	; 0x822
     514:	00005d25 	andeq	r5, r0, r5, lsr #26
     518:	626c2200 	rsbvs	r2, ip, #0, 4
     51c:	2c250400 	cfstrscs	mvf0, [r5], #-0
     520:	22000000 	andcs	r0, r0, #0
     524:	04006275 	streq	r6, [r0], #-629	; 0x275
     528:	00002c25 	andeq	r2, r0, r5, lsr #24
     52c:	011d2100 	tsteq	sp, r0, lsl #2
     530:	054f0000 	strbeq	r0, [pc, #-0]	; 538 <__code_start__-0x7ac8>
     534:	00fd0000 	rscseq	r0, sp, r0
     538:	6e0d0000 	cdpvs	0, 0, cr0, cr13, cr0, {0}
     53c:	2c280400 	cfstrscs	mvf0, [r8], #-0
     540:	0f000000 	svceq	0x00000000
     544:	00000209 	andeq	r0, r0, r9, lsl #4
     548:	002c2a04 	eoreq	r2, ip, r4, lsl #20
     54c:	07000000 	streq	r0, [r0, -r0]
     550:	00000430 	andeq	r0, r0, r0, lsr r4
     554:	0000bc11 	andeq	fp, r0, r1, lsl ip
     558:	0c240100 	stfeqs	f0, [r4], #-0
     55c:	2c000082 	stccs	0, cr0, [r0], {130}	; 0x82
     560:	01000002 	tsteq	r0, r2
     564:	0008ee9c 	muleq	r8, ip, lr
     568:	00d92300 	sbcseq	r2, r9, r0, lsl #6
     56c:	2a010000 	bcs	40574 <__bss_end__+0x365b4>
     570:	0000005d 	andeq	r0, r0, sp, asr r0
     574:	1d125501 	cfldr32ne	mvfx5, [r2, #-4]
     578:	ee000001 	cdp	0, 0, cr0, cr0, cr1, {0}
     57c:	05000008 	streq	r0, [r0, #-8]
     580:	00976803 	addseq	r6, r7, r3, lsl #16
     584:	01241a00 	teqeq	r4, r0, lsl #20
     588:	821c0000 	andshi	r0, ip, #0
     58c:	00040000 	andeq	r0, r4, r0
     590:	2a010000 	bcs	40598 <__bss_end__+0x365d8>
     594:	000005aa 	andeq	r0, r0, sl, lsr #11
     598:	00821c1b 	addeq	r1, r2, fp, lsl ip
     59c:	00000400 	andeq	r0, r0, r0, lsl #8
     5a0:	01342400 	teqeq	r4, r0, lsl #8
     5a4:	55010000 	strpl	r0, [r1, #-0]
     5a8:	401a0000 	andsmi	r0, sl, r0
     5ac:	20000001 	andcs	r0, r0, r1
     5b0:	0c000082 	stceq	0, cr0, [r0], {130}	; 0x82
     5b4:	01000000 	mrseq	r0, (UNDEF: 0)
     5b8:	0005c42c 	andeq	ip, r5, ip, lsr #8
     5bc:	014c2500 	cmpeq	ip, r0, lsl #10
     5c0:	00010000 	andeq	r0, r1, r0
     5c4:	0001241a 	andeq	r2, r1, sl, lsl r4
     5c8:	00822c00 	addeq	r2, r2, r0, lsl #24
     5cc:	00000400 	andeq	r0, r0, r0, lsl #8
     5d0:	e92d0100 	stmfd	sp!, {r8}
     5d4:	1b000005 	blne	5f0 <__code_start__-0x7a10>
     5d8:	0000822c 	andeq	r8, r0, ip, lsr #4
     5dc:	00000004 	andeq	r0, r0, r4
     5e0:	00013424 	andeq	r3, r1, r4, lsr #8
     5e4:	00540100 	subseq	r0, r4, r0, lsl #2
     5e8:	04071a00 	streq	r1, [r7], #-2560	; 0xa00
     5ec:	82300000 	eorshi	r0, r0, #0
     5f0:	010c0000 	mrseq	r0, (UNDEF: 12)
     5f4:	2d010000 	stccs	0, cr0, [r1, #-0]
     5f8:	0000073b 	andeq	r0, r0, fp, lsr r7
     5fc:	00041726 	andeq	r1, r4, r6, lsr #14
     600:	1b540100 	blne	1500a08 <__bss_end__+0x14f6a48>
     604:	00008230 	andeq	r8, r0, r0, lsr r2
     608:	0000010c 	andeq	r0, r0, ip, lsl #2
     60c:	00042224 	andeq	r2, r4, r4, lsr #4
     610:	84030500 	strhi	r0, [r3], #-1280	; 0x500
     614:	1a000097 	bne	878 <__code_start__-0x7788>
     618:	00000445 	andeq	r0, r0, r5, asr #8
     61c:	00008230 	andeq	r8, r0, r0, lsr r2
     620:	00000068 	andeq	r0, r0, r8, rrx
     624:	06f11905 	ldrbteq	r1, [r1], r5, lsl #18
     628:	55260000 	strpl	r0, [r6, #-0]!
     62c:	01000004 	tsteq	r0, r4
     630:	82301b54 	eorshi	r1, r0, #84, 22	; 0x15000
     634:	00680000 	rsbeq	r0, r8, r0
     638:	601c0000 	andsvs	r0, ip, r0
     63c:	24000004 	strcs	r0, [r0], #-4
     640:	0000046b 	andeq	r0, r0, fp, ror #8
     644:	97900305 	ldrls	r0, [r0, r5, lsl #6]
     648:	7e1a0000 	cdpvc	0, 1, cr0, cr10, cr0, {0}
     64c:	30000004 	andcc	r0, r0, r4
     650:	04000082 	streq	r0, [r0], #-130	; 0x82
     654:	05000000 	streq	r0, [r0, #-0]
     658:	00068c10 	andeq	r8, r6, r0, lsl ip
     65c:	04a12500 	strteq	r2, [r1], #1280	; 0x500
     660:	25040000 	strcs	r0, [r4, #-0]
     664:	00000497 	muleq	r0, r7, r4
     668:	048e2600 	streq	r2, [lr], #1536	; 0x600
     66c:	54010000 	strpl	r0, [r1], #-0
     670:	0082301b 	addeq	r3, r2, fp, lsl r0
     674:	00000400 	andeq	r0, r0, r0, lsl #8
     678:	04b82700 	ldrteq	r2, [r8], #1792	; 0x700
     67c:	24050000 	strcs	r0, [r5], #-0
     680:	000004ab 	andeq	r0, r0, fp, lsr #9
     684:	979c0305 	ldrls	r0, [ip, r5, lsl #6]
     688:	00000000 	andeq	r0, r0, r0
     68c:	0001081a 	andeq	r0, r1, sl, lsl r8
     690:	00823400 	addeq	r3, r2, r0, lsl #8
     694:	00003800 	andeq	r3, r0, r0, lsl #16
     698:	a5110500 	ldrge	r0, [r1, #-1280]	; 0x500
     69c:	28000006 	stmdacs	r0, {r1, r2}
     6a0:	00000118 	andeq	r0, r0, r8, lsl r1
     6a4:	82782000 	rsbshi	r2, r8, #0
     6a8:	093b0000 	ldmdbeq	fp!, {}	; <UNPREDICTABLE>
     6ac:	941f0000 	ldrls	r0, [pc], #-0	; 6b4 <__code_start__-0x794c>
     6b0:	25000082 	strcs	r0, [r0, #-130]	; 0x82
     6b4:	e6000009 	str	r0, [r0], -r9
     6b8:	16000006 	strne	r0, [r0], -r6
     6bc:	41015301 	tstmi	r1, r1, lsl #6
     6c0:	05520116 	ldrbeq	r0, [r2, #-278]	; 0x116
     6c4:	00979003 	addseq	r9, r7, r3
     6c8:	51011600 	tstpl	r1, r0, lsl #12
     6cc:	96800305 	strls	r0, [r0], r5, lsl #6
     6d0:	01160000 	tsteq	r6, r0
     6d4:	8c030550 	cfstr32hi	mvfx0, [r3], {80}	; 0x50
     6d8:	16000095 			; <UNDEFINED> instruction: 0x16000095
     6dc:	05007d02 	streq	r7, [r0, #-3330]	; 0xd02
     6e0:	00969003 	addseq	r9, r6, r3
     6e4:	98200000 	stmdals	r0!, {}	; <UNPREDICTABLE>
     6e8:	42000082 	andmi	r0, r0, #130	; 0x82
     6ec:	00000009 	andeq	r0, r0, r9
     6f0:	83142000 	tsthi	r4, #0
     6f4:	093b0000 	ldmdbeq	fp!, {}	; <UNPREDICTABLE>
     6f8:	2c1f0000 	ldccs	0, cr0, [pc], {-0}
     6fc:	25000083 	strcs	r0, [r0, #-131]	; 0x83
     700:	30000009 	andcc	r0, r0, r9
     704:	16000007 	strne	r0, [r0], -r7
     708:	08025301 	stmdaeq	r2, {r0, r8, r9, ip, lr}
     70c:	52011621 	andpl	r1, r1, #34603008	; 0x2100000
     710:	97840305 	strls	r0, [r4, r5, lsl #6]
     714:	01160000 	tsteq	r6, r0
     718:	80030551 	andhi	r0, r3, r1, asr r5
     71c:	16000096 			; <UNDEFINED> instruction: 0x16000096
     720:	03055001 	movweq	r5, #20481	; 0x5001
     724:	000096a4 	andeq	r9, r0, r4, lsr #13
     728:	007d0216 	rsbseq	r0, sp, r6, lsl r2
     72c:	00007402 	andeq	r7, r0, r2, lsl #8
     730:	00833020 	addeq	r3, r3, r0, lsr #32
     734:	00094200 	andeq	r4, r9, r0, lsl #4
     738:	1a000000 	bne	740 <__code_start__-0x78c0>
     73c:	00000140 	andeq	r0, r0, r0, asr #2
     740:	000083a8 	andeq	r8, r0, r8, lsr #7
     744:	0000000c 	andeq	r0, r0, ip
     748:	07553501 	ldrbeq	r3, [r5, -r1, lsl #10]
     74c:	4c250000 	stcmi	0, cr0, [r5], #-0
     750:	00000001 	andeq	r0, r0, r1
     754:	04c71a00 	strbeq	r1, [r7], #2560	; 0xa00
     758:	83b40000 			; <UNDEFINED> instruction: 0x83b40000
     75c:	00040000 	andeq	r0, r4, r0
     760:	36010000 	strcc	r0, [r1], -r0
     764:	000007cf 	andeq	r0, r0, pc, asr #15
     768:	0004e225 	andeq	lr, r4, r5, lsr #4
     76c:	d7261000 	strle	r1, [r6, -r0]!
     770:	01000004 	tsteq	r0, r4
     774:	83b41b55 			; <UNDEFINED> instruction: 0x83b41b55
     778:	00040000 	andeq	r0, r4, r0
     77c:	ed240000 	stc	0, cr0, [r4, #-0]
     780:	05000004 	streq	r0, [r0, #-4]
     784:	0097a803 	addseq	sl, r7, r3, lsl #16
     788:	05001d00 	streq	r1, [r0, #-3328]	; 0xd00
     78c:	83b40000 			; <UNDEFINED> instruction: 0x83b40000
     790:	00040000 	andeq	r0, r4, r0
     794:	16050000 	strne	r0, [r5], -r0
     798:	00052325 	andeq	r2, r5, r5, lsr #6
     79c:	19250400 	stmdbne	r5!, {sl}
     7a0:	00000005 	andeq	r0, r0, r5
     7a4:	00051026 	andeq	r1, r5, r6, lsr #32
     7a8:	1b550100 	blne	1540bb0 <__bss_end__+0x1536bf0>
     7ac:	000083b4 			; <UNDEFINED> instruction: 0x000083b4
     7b0:	00000004 	andeq	r0, r0, r4
     7b4:	00053a27 	andeq	r3, r5, r7, lsr #20
     7b8:	43270500 	teqmi	r7, #0, 10
     7bc:	1f000005 	svcne	0x00000005
     7c0:	00052d24 	andeq	r2, r5, r4, lsr #26
     7c4:	b4030500 	strlt	r0, [r3], #-1280	; 0x500
     7c8:	00000097 	muleq	r0, r7, r0
     7cc:	20000000 	andcs	r0, r0, r0
     7d0:	00008218 	andeq	r8, r0, r8, lsl r2
     7d4:	0000095f 	andeq	r0, r0, pc, asr r9
     7d8:	00821c20 	addeq	r1, r2, r0, lsr #24
     7dc:	00096600 	andeq	r6, r9, r0, lsl #12
     7e0:	83541f00 	cmphi	r4, #0, 30
     7e4:	09250000 	stmdbeq	r5!, {}	; <UNPREDICTABLE>
     7e8:	08100000 	ldmdaeq	r0, {}	; <UNPREDICTABLE>
     7ec:	01160000 	tsteq	r6, r0
     7f0:	2d080253 	sfmcs	f0, 4, [r8, #-332]	; 0xfffffeb4
     7f4:	05520116 	ldrbeq	r0, [r2, #-278]	; 0x116
     7f8:	00976803 	addseq	r6, r7, r3, lsl #16
     7fc:	51011600 	tstpl	r1, r0, lsl #12
     800:	950c0305 	strls	r0, [ip, #-773]	; 0x305
     804:	01160000 	tsteq	r6, r0
     808:	c8030550 	stmdagt	r3, {r4, r6, r8, sl}
     80c:	00000096 	muleq	r0, r6, r0
     810:	0083781f 	addeq	r7, r3, pc, lsl r8
     814:	00092500 	andeq	r2, r9, r0, lsl #10
     818:	00083f00 	andeq	r3, r8, r0, lsl #30
     81c:	53011600 	movwpl	r1, #5632	; 0x1600
     820:	16300802 	ldrtne	r0, [r0], -r2, lsl #16
     824:	03055201 	movweq	r5, #20993	; 0x5201
     828:	00009768 	andeq	r9, r0, r8, ror #14
     82c:	05510116 	ldrbeq	r0, [r1, #-278]	; 0x116
     830:	00950c03 	addseq	r0, r5, r3, lsl #24
     834:	50011600 	andpl	r1, r1, r0, lsl #12
     838:	96e40305 	strbtls	r0, [r4], r5, lsl #6
     83c:	1f000000 	svcne	0x00000000
     840:	00008384 	andeq	r8, r0, r4, lsl #7
     844:	00000949 	andeq	r0, r0, r9, asr #18
     848:	0000085b 	andeq	r0, r0, fp, asr r8
     84c:	05510116 	ldrbeq	r0, [r1, #-278]	; 0x116
     850:	00809c03 	addeq	r9, r0, r3, lsl #24
     854:	50011600 	andpl	r1, r1, r0, lsl #12
     858:	1f003001 	svcne	0x00003001
     85c:	000083a8 	andeq	r8, r0, r8, lsr #7
     860:	00000925 	andeq	r0, r0, r5, lsr #18
     864:	0000088a 	andeq	r0, r0, sl, lsl #17
     868:	02530116 	subseq	r0, r3, #-2147483643	; 0x80000005
     86c:	01163208 	tsteq	r6, r8, lsl #4
     870:	68030552 	stmdavs	r3, {r1, r4, r6, r8, sl}
     874:	16000097 			; <UNDEFINED> instruction: 0x16000097
     878:	03055101 	movweq	r5, #20737	; 0x5101
     87c:	0000950c 	andeq	r9, r0, ip, lsl #10
     880:	05500116 	ldrbeq	r0, [r0, #-278]	; 0x116
     884:	00970c03 	addseq	r0, r7, r3, lsl #24
     888:	c41f0000 	ldrgt	r0, [pc], #-0	; 890 <__code_start__-0x7770>
     88c:	6d000083 	stcvs	0, cr0, [r0, #-524]	; 0xfffffdf4
     890:	ac000009 	stcge	0, cr0, [r0], {9}
     894:	16000008 	strne	r0, [r0], -r8
     898:	03055101 	movweq	r5, #20737	; 0x5101
     89c:	00008020 	andeq	r8, r0, r0, lsr #32
     8a0:	07500116 	smmlaeq	r0, r6, r1, r0
     8a4:	e0090075 	and	r0, r9, r5, ror r0
     8a8:	0021401a 	eoreq	r4, r1, sl, lsl r0
     8ac:	0083c820 	addeq	ip, r3, r0, lsr #16
     8b0:	00093b00 	andeq	r3, r9, r0, lsl #22
     8b4:	83dc1f00 	bicshi	r1, ip, #0, 30
     8b8:	09250000 	stmdbeq	r5!, {}	; <UNPREDICTABLE>
     8bc:	08e40000 	stmiaeq	r4!, {}^	; <UNPREDICTABLE>
     8c0:	01160000 	tsteq	r6, r0
     8c4:	38080253 	stmdacc	r8, {r0, r1, r4, r6, r9}
     8c8:	05520116 	ldrbeq	r0, [r2, #-278]	; 0x116
     8cc:	00976803 	addseq	r6, r7, r3, lsl #16
     8d0:	51011600 	tstpl	r1, r0, lsl #12
     8d4:	950c0305 	strls	r0, [ip, #-773]	; 0x305
     8d8:	01160000 	tsteq	r6, r0
     8dc:	2c030550 	cfstr32cs	mvfx0, [r3], {80}	; 0x50
     8e0:	00000097 	muleq	r0, r7, r0
     8e4:	0083e020 	addeq	lr, r3, r0, lsr #32
     8e8:	00094200 	andeq	r4, r9, r0, lsl #4
     8ec:	96070000 	strls	r0, [r7], -r0
     8f0:	23000000 	movwcs	r0, #0
     8f4:	00000276 	andeq	r0, r0, r6, ror r2
     8f8:	09040801 	stmdbeq	r4, {r0, fp}
     8fc:	03050000 	movweq	r0, #20480	; 0x5000
     900:	00009ba0 	andeq	r9, r0, r0, lsr #23
     904:	00002529 	andeq	r2, r0, r9, lsr #10
     908:	6e632a00 	vmulvs.f32	s5, s6, s0
     90c:	08010074 	stmdaeq	r1, {r2, r4, r5, r6}
     910:	00000904 	andeq	r0, r0, r4, lsl #18
     914:	9ba40305 	blls	fe901530 <__bss_end__+0xfe8f7570>
     918:	0f2b0000 	svceq	0x002b0000
     91c:	02000001 	andeq	r0, r0, #1
     920:	000025c2 	andeq	r2, r0, r2, asr #11
     924:	04952c00 	ldreq	r2, [r5], #3072	; 0xc00
     928:	29070000 	stmdbcs	r7, {}	; <UNPREDICTABLE>
     92c:	00000025 	andeq	r0, r0, r5, lsr #32
     930:	0000093b 	andeq	r0, r0, fp, lsr r9
     934:	00008b0b 	andeq	r8, r0, fp, lsl #22
     938:	2e002d00 	cdpcs	13, 0, cr2, cr0, cr0, {0}
     93c:	00000267 	andeq	r0, r0, r7, ror #4
     940:	f02e1e07 			; <UNDEFINED> instruction: 0xf02e1e07
     944:	07000000 	streq	r0, [r0, -r0]
     948:	00092f65 	andeq	r2, r9, r5, ror #30
     94c:	d9020000 	stmdble	r2, {}	; <UNPREDICTABLE>
     950:	0000095f 	andeq	r0, r0, pc, asr r9
     954:	00005d0b 	andeq	r5, r0, fp, lsl #26
     958:	00a60b00 	adceq	r0, r6, r0, lsl #22
     95c:	2e000000 	cdpcs	0, 0, cr0, cr0, cr0, {0}
     960:	00000252 	andeq	r0, r0, r2, asr r2
     964:	0e2e9002 	cdpeq	0, 2, cr9, cr14, cr2, {0}
     968:	07000002 	streq	r0, [r0, -r2]
     96c:	01ab308d 			; <UNDEFINED> instruction: 0x01ab308d
     970:	ce020000 	cdpgt	0, 0, cr0, cr2, cr0, {0}
     974:	00005d0b 	andeq	r5, r0, fp, lsl #26
     978:	007d0b00 	rsbseq	r0, sp, r0, lsl #22
     97c:	00000000 	andeq	r0, r0, r0
     980:	00000c58 	andeq	r0, r0, r8, asr ip
     984:	02640004 	rsbeq	r0, r4, #4
     988:	01040000 	mrseq	r0, (UNDEF: 4)
     98c:	0000013e 	andeq	r0, r0, lr, lsr r1
     990:	0002b701 	andeq	fp, r2, r1, lsl #14
     994:	00006300 	andeq	r6, r0, r0, lsl #6
     998:	00843800 	addeq	r3, r4, r0, lsl #16
     99c:	00035400 	andeq	r5, r3, r0, lsl #8
     9a0:	0001ed00 	andeq	lr, r1, r0, lsl #26
     9a4:	05040200 	streq	r0, [r4, #-512]	; 0x200
     9a8:	00746e69 	rsbseq	r6, r4, r9, ror #28
     9ac:	cc070403 	cfstrsgt	mvf0, [r7], {3}
     9b0:	03000001 	movweq	r0, #1
     9b4:	00e40601 	rsceq	r0, r4, r1, lsl #12
     9b8:	02030000 	andeq	r0, r3, #0
     9bc:	00022005 	andeq	r2, r2, r5
     9c0:	05040300 	streq	r0, [r4, #-768]	; 0x300
     9c4:	00000200 	andeq	r0, r0, r0, lsl #4
     9c8:	fb050803 	blx	1429de <__bss_end__+0x138a1e>
     9cc:	03000001 	movweq	r0, #1
     9d0:	00e20801 	rsceq	r0, r2, r1, lsl #16
     9d4:	02030000 	andeq	r0, r3, #0
     9d8:	00004b07 	andeq	r4, r0, r7, lsl #22
     9dc:	01060400 	tsteq	r6, r0, lsl #8
     9e0:	34030000 	strcc	r0, [r3], #-0
     9e4:	00000068 	andeq	r0, r0, r8, rrx
     9e8:	c7070403 	strgt	r0, [r7, -r3, lsl #8]
     9ec:	03000001 	movweq	r0, #1
     9f0:	01c20708 	biceq	r0, r2, r8, lsl #14
     9f4:	04030000 	streq	r0, [r3], #-0
     9f8:	0001e807 	andeq	lr, r1, r7, lsl #16
     9fc:	03040500 	movweq	r0, #17664	; 0x4500
     a00:	00eb0801 	rsceq	r0, fp, r1, lsl #16
     a04:	04060000 	streq	r0, [r6], #-0
     a08:	0000008c 	andeq	r0, r0, ip, lsl #1
     a0c:	00007f07 	andeq	r7, r0, r7, lsl #30
     a10:	007f0800 	rsbseq	r0, pc, r0, lsl #16
     a14:	00a10000 	adceq	r0, r1, r0
     a18:	76090000 	strvc	r0, [r9], -r0
     a1c:	17000000 	strne	r0, [r0, -r0]
     a20:	01de0400 	bicseq	r0, lr, r0, lsl #8
     a24:	8a020000 	bhi	80a2c <__bss_end__+0x76a6c>
     a28:	000000ac 	andeq	r0, r0, ip, lsr #1
     a2c:	00b20406 	adcseq	r0, r2, r6, lsl #8
     a30:	c70a0000 	strgt	r0, [sl, -r0]
     a34:	0b000000 	bleq	a3c <__code_start__-0x75c4>
     a38:	000000c7 	andeq	r0, r0, r7, asr #1
     a3c:	00005d0b 	andeq	r5, r0, fp, lsl #26
     a40:	005d0b00 	subseq	r0, sp, r0, lsl #22
     a44:	06000000 	streq	r0, [r0], -r0
     a48:	00005d04 	andeq	r5, r0, r4, lsl #26
     a4c:	03be0c00 			; <UNDEFINED> instruction: 0x03be0c00
     a50:	5f020000 	svcpl	0x00020000
     a54:	0000005d 	andeq	r0, r0, sp, asr r0
     a58:	0000e903 	andeq	lr, r0, r3, lsl #18
     a5c:	65720d00 	ldrbvs	r0, [r2, #-3328]!	; 0xd00
     a60:	5f020074 	svcpl	0x00020074
     a64:	0000005d 	andeq	r0, r0, sp, asr r0
     a68:	022a0c00 	eoreq	r0, sl, #0, 24
     a6c:	a6020000 	strge	r0, [r2], -r0
     a70:	0000005d 	andeq	r0, r0, sp, asr r0
     a74:	00010503 	andeq	r0, r1, r3, lsl #10
     a78:	65720d00 	ldrbvs	r0, [r2, #-3328]!	; 0xd00
     a7c:	a6020074 			; <UNDEFINED> instruction: 0xa6020074
     a80:	0000005d 	andeq	r0, r0, sp, asr r0
     a84:	039c0c00 	orrseq	r0, ip, #0, 24
     a88:	70020000 	andvc	r0, r2, r0
     a8c:	0000002c 	andeq	r0, r0, ip, lsr #32
     a90:	00011f03 	andeq	r1, r1, r3, lsl #30
     a94:	00720e00 	rsbseq	r0, r2, r0, lsl #28
     a98:	005d7002 	subseq	r7, sp, r2
     a9c:	0c000000 	stceq	0, cr0, [r0], {-0}
     aa0:	000002d6 	ldrdeq	r0, [r0], -r6
     aa4:	005d1801 	subseq	r1, sp, r1, lsl #16
     aa8:	3b030000 	blcc	c0ab0 <__bss_end__+0xb6af0>
     aac:	0d000001 	stceq	0, cr0, [r0, #-4]
     ab0:	00746572 	rsbseq	r6, r4, r2, ror r5
     ab4:	005d1801 	subseq	r1, sp, r1, lsl #16
     ab8:	0f000000 	svceq	0x00000000
     abc:	0000040c 	andeq	r0, r0, ip, lsl #8
     ac0:	51031e01 	tstpl	r3, r1, lsl #28
     ac4:	0e000001 	cdpeq	0, 0, cr0, cr0, cr1, {0}
     ac8:	1e010076 	mcrne	0, 0, r0, cr1, cr6, {3}
     acc:	0000005d 	andeq	r0, r0, sp, asr r0
     ad0:	03190f00 	tsteq	r9, #0, 30
     ad4:	26010000 	strcs	r0, [r1], -r0
     ad8:	00016703 	andeq	r6, r1, r3, lsl #14
     adc:	00760e00 	rsbseq	r0, r6, r0, lsl #28
     ae0:	005d2601 	subseq	r2, sp, r1, lsl #12
     ae4:	0f000000 	svceq	0x00000000
     ae8:	000003dc 	ldrdeq	r0, [r0], -ip
     aec:	7d030d01 	stcvc	13, cr0, [r3, #-4]
     af0:	0e000001 	cdpeq	0, 0, cr0, cr0, cr1, {0}
     af4:	0d010076 	stceq	0, cr0, [r1, #-472]	; 0xfffffe28
     af8:	0000005d 	andeq	r0, r0, sp, asr r0
     afc:	037c0c00 	cmneq	ip, #0, 24
     b00:	66020000 	strvs	r0, [r2], -r0
     b04:	0000002c 	andeq	r0, r0, ip, lsr #32
     b08:	00019903 	andeq	r9, r1, r3, lsl #18
     b0c:	03411000 	movteq	r1, #4096	; 0x1000
     b10:	67020000 	strvs	r0, [r2, -r0]
     b14:	0000005d 	andeq	r0, r0, sp, asr r0
     b18:	03f80c00 	mvnseq	r0, #0, 24
     b1c:	56020000 	strpl	r0, [r2], -r0
     b20:	0000005d 	andeq	r0, r0, sp, asr r0
     b24:	0001b503 	andeq	fp, r1, r3, lsl #10
     b28:	65720d00 	ldrbvs	r0, [r2, #-3328]!	; 0xd00
     b2c:	56020074 			; <UNDEFINED> instruction: 0x56020074
     b30:	0000005d 	andeq	r0, r0, sp, asr r0
     b34:	034b0c00 	movteq	r0, #48128	; 0xbc00
     b38:	63020000 	movwvs	r0, #8192	; 0x2000
     b3c:	0000005d 	andeq	r0, r0, sp, asr r0
     b40:	0001d103 	andeq	sp, r1, r3, lsl #2
     b44:	65720d00 	ldrbvs	r0, [r2, #-3328]!	; 0xd00
     b48:	63020074 	movwvs	r0, #8308	; 0x2074
     b4c:	0000005d 	andeq	r0, r0, sp, asr r0
     b50:	02c40f00 	sbceq	r0, r4, #0, 30
     b54:	32010000 	andcc	r0, r1, #0
     b58:	0001e703 	andeq	lr, r1, r3, lsl #14
     b5c:	00760e00 	rsbseq	r0, r6, r0, lsl #28
     b60:	005d3201 	subseq	r3, sp, r1, lsl #4
     b64:	0c000000 	stceq	0, cr0, [r0], {-0}
     b68:	00000333 	andeq	r0, r0, r3, lsr r3
     b6c:	005d8d01 	subseq	r8, sp, r1, lsl #26
     b70:	03030000 	movweq	r0, #12288	; 0x3000
     b74:	0d000002 	stceq	0, cr0, [r0, #-8]
     b78:	00746572 	rsbseq	r6, r4, r2, ror r5
     b7c:	005d8d01 	subseq	r8, sp, r1, lsl #26
     b80:	0f000000 	svceq	0x00000000
     b84:	000002f5 	strdeq	r0, [r0], -r5
     b88:	19038e01 	stmdbne	r3, {r0, r9, sl, fp, pc}
     b8c:	0e000002 	cdpeq	0, 0, cr0, cr0, cr2, {0}
     b90:	8e010076 	mcrhi	0, 0, r0, cr1, cr6, {3}
     b94:	0000005d 	andeq	r0, r0, sp, asr r0
     b98:	038e0f00 	orreq	r0, lr, #0, 30
     b9c:	8c010000 	stchi	0, cr0, [r1], {-0}
     ba0:	00022f03 	andeq	r2, r2, r3, lsl #30
     ba4:	00760e00 	rsbseq	r0, r6, r0, lsl #28
     ba8:	005d8c01 	subseq	r8, sp, r1, lsl #24
     bac:	0c000000 	stceq	0, cr0, [r0], {-0}
     bb0:	0000023e 	andeq	r0, r0, lr, lsr r2
     bb4:	002ca902 	eoreq	sl, ip, r2, lsl #18
     bb8:	49030000 	stmdbmi	r3, {}	; <UNPREDICTABLE>
     bbc:	0d000002 	stceq	0, cr0, [r0, #-8]
     bc0:	aa020072 	bge	80d90 <__bss_end__+0x76dd0>
     bc4:	0000002c 	andeq	r0, r0, ip, lsr #32
     bc8:	034a0c00 	movteq	r0, #44032	; 0xac00
     bcc:	97020000 	strls	r0, [r2, -r0]
     bd0:	0000005d 	andeq	r0, r0, sp, asr r0
     bd4:	00026503 	andeq	r6, r2, r3, lsl #10
     bd8:	65720d00 	ldrbvs	r0, [r2, #-3328]!	; 0xd00
     bdc:	97020074 	smlsdxls	r2, r4, r0, r0
     be0:	0000005d 	andeq	r0, r0, sp, asr r0
     be4:	030c1100 	movweq	r1, #49408	; 0xc100
     be8:	36010000 	strcc	r0, [r1], -r0
     bec:	00008438 	andeq	r8, r0, r8, lsr r4
     bf0:	000000b0 	strheq	r0, [r0], -r0	; <UNPREDICTABLE>
     bf4:	04409c01 	strbeq	r9, [r0], #-3073	; 0xc01
     bf8:	d6120000 	ldrle	r0, [r2], -r0
     bfc:	01000003 	tsteq	r0, r3
     c00:	00007d36 	andeq	r7, r0, r6, lsr sp
     c04:	0000a000 	andeq	sl, r0, r0
     c08:	01361200 	teqeq	r6, r0, lsl #4
     c0c:	36010000 	strcc	r0, [r1], -r0
     c10:	000000a1 	andeq	r0, r0, r1, lsr #1
     c14:	000000e5 	andeq	r0, r0, r5, ror #1
     c18:	0002cd13 	andeq	ip, r2, r3, lsl sp
     c1c:	5d390100 	ldfpls	f0, [r9, #-0]
     c20:	2a000000 	bcs	c28 <__code_start__-0x73d8>
     c24:	14000001 	strne	r0, [r0], #-1
     c28:	0000011d 	andeq	r0, r0, sp, lsl r1
     c2c:	00000450 	andeq	r0, r0, r0, asr r4
     c30:	98c40305 	stmials	r4, {r0, r2, r8, r9}^
     c34:	03130000 	tsteq	r3, #0
     c38:	01000003 	tsteq	r0, r3
     c3c:	00005d43 	andeq	r5, r0, r3, asr #26
     c40:	00015600 	andeq	r5, r1, r0, lsl #12
     c44:	011f1500 	tsteq	pc, r0, lsl #10
     c48:	84400000 	strbhi	r0, [r0], #-0
     c4c:	00040000 	andeq	r0, r4, r0
     c50:	39010000 	stmdbcc	r1, {}	; <UNPREDICTABLE>
     c54:	000002ec 	andeq	r0, r0, ip, ror #5
     c58:	00844016 	addeq	r4, r4, r6, lsl r0
     c5c:	00000400 	andeq	r0, r0, r0, lsl #8
     c60:	012f1700 	teqeq	pc, r0, lsl #14
     c64:	01820000 	orreq	r0, r2, r0
     c68:	00000000 	andeq	r0, r0, r0
     c6c:	00013b15 	andeq	r3, r1, r5, lsl fp
     c70:	00844800 	addeq	r4, r4, r0, lsl #16
     c74:	00000400 	andeq	r0, r0, r0, lsl #8
     c78:	093f0100 	ldmdbeq	pc!, {r8}	; <UNPREDICTABLE>
     c7c:	18000003 	stmdane	r0, {r0, r1}
     c80:	00000147 	andeq	r0, r0, r7, asr #2
     c84:	00000195 	muleq	r0, r5, r1
     c88:	011f1500 	tsteq	pc, r0, lsl #10
     c8c:	844c0000 	strbhi	r0, [ip], #-0
     c90:	00040000 	andeq	r0, r4, r0
     c94:	41010000 	mrsmi	r0, (UNDEF: 1)
     c98:	00000330 	andeq	r0, r0, r0, lsr r3
     c9c:	00844c16 	addeq	r4, r4, r6, lsl ip
     ca0:	00000400 	andeq	r0, r0, r0, lsl #8
     ca4:	012f1700 	teqeq	pc, r0, lsl #14
     ca8:	01b30000 			; <UNDEFINED> instruction: 0x01b30000
     cac:	00000000 	andeq	r0, r0, r0
     cb0:	00015115 	andeq	r5, r1, r5, lsl r1
     cb4:	00847c00 	addeq	r7, r4, r0, lsl #24
     cb8:	00000400 	andeq	r0, r0, r0, lsl #8
     cbc:	4d460100 	stfmie	f0, [r6, #-0]
     cc0:	18000003 	stmdane	r0, {r0, r1}
     cc4:	0000015d 	andeq	r0, r0, sp, asr r1
     cc8:	00000156 	andeq	r0, r0, r6, asr r1
     ccc:	013b1500 	teqeq	fp, r0, lsl #10
     cd0:	84800000 	strhi	r0, [r0], #0
     cd4:	00080000 	andeq	r0, r8, r0
     cd8:	50010000 	andpl	r0, r1, r0
     cdc:	00000368 	andeq	r0, r0, r8, ror #6
     ce0:	00014719 	andeq	r4, r1, r9, lsl r7
     ce4:	0001ff00 	andeq	pc, r1, r0, lsl #30
     ce8:	00011f15 	andeq	r1, r1, r5, lsl pc
     cec:	00848800 	addeq	r8, r4, r0, lsl #16
     cf0:	00000400 	andeq	r0, r0, r0, lsl #8
     cf4:	8f520100 	svchi	0x00520100
     cf8:	16000003 	strne	r0, [r0], -r3
     cfc:	00008488 	andeq	r8, r0, r8, lsl #9
     d00:	00000004 	andeq	r0, r0, r4
     d04:	00012f17 	andeq	r2, r1, r7, lsl pc
     d08:	0001d100 	andeq	sp, r1, r0, lsl #2
     d0c:	15000000 	strne	r0, [r0, #-0]
     d10:	00000167 	andeq	r0, r0, r7, ror #2
     d14:	000084b8 			; <UNDEFINED> instruction: 0x000084b8
     d18:	00000008 	andeq	r0, r0, r8
     d1c:	03a95401 			; <UNDEFINED> instruction: 0x03a95401
     d20:	731a0000 	tstvc	sl, #0
     d24:	00000001 	andeq	r0, r0, r1
     d28:	845c1b00 	ldrbhi	r1, [ip], #-2816	; 0xb00
     d2c:	0c300000 	ldceq	0, cr0, [r0], #-0
     d30:	781c0000 	ldmdavc	ip, {}	; <UNPREDICTABLE>
     d34:	37000084 	strcc	r0, [r0, -r4, lsl #1]
     d38:	eb00000c 	bl	d70 <__code_start__-0x7290>
     d3c:	1d000003 	stcne	0, cr0, [r0, #-12]
     d40:	08025301 	stmdaeq	r2, {r0, r8, r9, ip, lr}
     d44:	52011d41 	andpl	r1, r1, #4160	; 0x1040
     d48:	98c40305 	stmials	r4, {r0, r2, r8, r9}^
     d4c:	011d0000 	tsteq	sp, r0
     d50:	c0030551 	andgt	r0, r3, r1, asr r5
     d54:	1d000097 	stcne	0, cr0, [r0, #-604]	; 0xfffffda4
     d58:	03055001 	movweq	r5, #20481	; 0x5001
     d5c:	0000958c 	andeq	r9, r0, ip, lsl #11
     d60:	007d021d 	rsbseq	r0, sp, sp, lsl r2
     d64:	97d00305 	ldrbls	r0, [r0, r5, lsl #6]
     d68:	1b000000 	blne	d70 <__code_start__-0x7290>
     d6c:	0000847c 	andeq	r8, r0, ip, ror r4
     d70:	00000c4d 	andeq	r0, r0, sp, asr #24
     d74:	0084981b 	addeq	r9, r4, fp, lsl r8
     d78:	000c3000 	andeq	r3, ip, r0
     d7c:	84b41c00 	ldrthi	r1, [r4], #3072	; 0xc00
     d80:	0c370000 	ldceq	0, cr0, [r7], #-0
     d84:	04360000 	ldrteq	r0, [r6], #-0
     d88:	011d0000 	tsteq	sp, r0
     d8c:	52080253 	andpl	r0, r8, #805306373	; 0x30000005
     d90:	0552011d 	ldrbeq	r0, [r2, #-285]	; 0x11d
     d94:	0098c403 	addseq	ip, r8, r3, lsl #8
     d98:	51011d00 	tstpl	r1, r0, lsl #26
     d9c:	97c00305 	strbls	r0, [r0, r5, lsl #6]
     da0:	011d0000 	tsteq	sp, r0
     da4:	8c030550 	cfstr32hi	mvfx0, [r3], {80}	; 0x50
     da8:	1d000095 	stcne	0, cr0, [r0, #-596]	; 0xfffffdac
     dac:	05007d02 	streq	r7, [r0, #-3330]	; 0xd02
     db0:	0097d003 	addseq	sp, r7, r3
     db4:	b81b0000 	ldmdalt	fp, {}	; <UNPREDICTABLE>
     db8:	4d000084 	stcmi	0, cr0, [r0, #-528]	; 0xfffffdf0
     dbc:	0000000c 	andeq	r0, r0, ip
     dc0:	00007f08 	andeq	r7, r0, r8, lsl #30
     dc4:	00045000 	andeq	r5, r4, r0
     dc8:	00760900 	rsbseq	r0, r6, r0, lsl #18
     dcc:	000c0000 	andeq	r0, ip, r0
     dd0:	00044007 	andeq	r4, r4, r7
     dd4:	02a30c00 	adceq	r0, r3, #0, 24
     dd8:	76020000 	strvc	r0, [r2], -r0
     ddc:	0000002c 	andeq	r0, r0, ip, lsr #32
     de0:	00047c03 	andeq	r7, r4, r3, lsl #24
     de4:	00720d00 	rsbseq	r0, r2, r0, lsl #26
     de8:	002c7702 	eoreq	r7, ip, r2, lsl #14
     dec:	1d1e0000 	ldcne	0, cr0, [lr, #-0]
     df0:	8c000001 	stchi	0, cr0, [r0], {1}
     df4:	a3000004 	movwge	r0, #4
     df8:	00000002 	andeq	r0, r0, r2
     dfc:	00007f08 	andeq	r7, r0, r8, lsl #30
     e00:	00048c00 	andeq	r8, r4, r0, lsl #24
     e04:	00760900 	rsbseq	r0, r6, r0, lsl #18
     e08:	00130000 	andseq	r0, r3, r0
     e0c:	00047c07 	andeq	r7, r4, r7, lsl #24
     e10:	027b1100 	rsbseq	r1, fp, #0, 2
     e14:	59010000 	stmdbpl	r1, {}	; <UNPREDICTABLE>
     e18:	000084e8 	andeq	r8, r0, r8, ror #9
     e1c:	000000dc 	ldrdeq	r0, [r0], -ip
     e20:	06c09c01 	strbeq	r9, [r0], r1, lsl #24
     e24:	701f0000 	andsvc	r0, pc, r0
     e28:	59010063 	stmdbpl	r1, {r0, r1, r5, r6}
     e2c:	0000002c 	andeq	r0, r0, ip, lsr #32
     e30:	000001ef 	andeq	r0, r0, pc, ror #3
     e34:	0003ad20 	andeq	sl, r3, r0, lsr #26
     e38:	255a0100 	ldrbcs	r0, [sl, #-256]	; 0x100
     e3c:	05000000 	streq	r0, [r0, #-0]
     e40:	009bb403 	addseq	fp, fp, r3, lsl #8
     e44:	011d1400 	tsteq	sp, r0, lsl #8
     e48:	06d00000 	ldrbeq	r0, [r0], r0
     e4c:	03050000 	movweq	r0, #20480	; 0x5000
     e50:	000098d4 	ldrdeq	r9, [r0], -r4
     e54:	0003d710 	andeq	sp, r3, r0, lsl r7
     e58:	5d6b0100 	stfple	f0, [fp, #-0]
     e5c:	15000000 	strne	r0, [r0, #-0]
     e60:	0000017d 	andeq	r0, r0, sp, ror r1
     e64:	000084f4 	strdeq	r8, [r0], -r4
     e68:	00000004 	andeq	r0, r0, r4
     e6c:	05215c01 	streq	r5, [r1, #-3073]!	; 0xc01
     e70:	f4160000 			; <UNDEFINED> instruction: 0xf4160000
     e74:	04000084 	streq	r0, [r0], #-132	; 0x84
     e78:	21000000 	mrscs	r0, (UNDEF: 0)
     e7c:	0000018d 	andeq	r0, r0, sp, lsl #3
     e80:	0000cd22 	andeq	ip, r0, r2, lsr #26
     e84:	0084f400 	addeq	pc, r4, r0, lsl #8
     e88:	00000400 	andeq	r0, r0, r0, lsl #8
     e8c:	16670200 	strbtne	r0, [r7], -r0, lsl #4
     e90:	000084f4 	strdeq	r8, [r0], -r4
     e94:	00000004 	andeq	r0, r0, r4
     e98:	0000dd21 	andeq	sp, r0, r1, lsr #26
     e9c:	00000000 	andeq	r0, r0, r0
     ea0:	04551500 	ldrbeq	r1, [r5], #-1280	; 0x500
     ea4:	84f80000 	ldrbthi	r0, [r8], #0
     ea8:	002c0000 	eoreq	r0, ip, r0
     eac:	62010000 	andvs	r0, r1, #0
     eb0:	000005d4 	ldrdeq	r0, [r0], -r4
     eb4:	0084f816 	addeq	pc, r4, r6, lsl r8	; <UNPREDICTABLE>
     eb8:	00002c00 	andeq	r2, r0, r0, lsl #24
     ebc:	04652100 	strbteq	r2, [r5], #-256	; 0x100
     ec0:	6e230000 	cdpvs	0, 2, cr0, cr3, cr0, {0}
     ec4:	05000004 	streq	r0, [r0, #-4]
     ec8:	0098e803 	addseq	lr, r8, r3, lsl #16
     ecc:	00cd1500 	sbceq	r1, sp, r0, lsl #10
     ed0:	84f80000 	ldrbthi	r0, [r8], #0
     ed4:	00040000 	andeq	r0, r4, r0
     ed8:	77020000 	strvc	r0, [r2, -r0]
     edc:	00000574 	andeq	r0, r0, r4, ror r5
     ee0:	0084f816 	addeq	pc, r4, r6, lsl r8	; <UNPREDICTABLE>
     ee4:	00000400 	andeq	r0, r0, r0, lsl #8
     ee8:	00dd1700 	sbcseq	r1, sp, r0, lsl #14
     eec:	02660000 	rsbeq	r0, r6, #0
     ef0:	00000000 	andeq	r0, r0, r0
     ef4:	00010515 	andeq	r0, r1, r5, lsl r5
     ef8:	0084fc00 	addeq	pc, r4, r0, lsl #24
     efc:	00000400 	andeq	r0, r0, r0, lsl #8
     f00:	91780200 	cmnls	r8, r0, lsl #4
     f04:	18000005 	stmdane	r0, {r0, r2}
     f08:	00000115 	andeq	r0, r0, r5, lsl r1
     f0c:	00000266 	andeq	r0, r0, r6, ror #4
     f10:	850c1b00 	strhi	r1, [ip, #-2816]	; 0xb00
     f14:	0c300000 	ldceq	0, cr0, [r0], #-0
     f18:	201c0000 	andscs	r0, ip, r0
     f1c:	37000085 	strcc	r0, [r0, -r5, lsl #1]
     f20:	c900000c 	stmdbgt	r0, {r2, r3}
     f24:	1d000005 	stcne	0, cr0, [r0, #-20]	; 0xffffffec
     f28:	08025301 	stmdaeq	r2, {r0, r8, r9, ip, lr}
     f2c:	52011d79 	andpl	r1, r1, #7744	; 0x1e40
     f30:	98e80305 	stmials	r8!, {r0, r2, r8, r9}^
     f34:	011d0000 	tsteq	sp, r0
     f38:	20030551 	andcs	r0, r3, r1, asr r5
     f3c:	1d000098 	stcne	0, cr0, [r0, #-608]	; 0xfffffda0
     f40:	03055001 	movweq	r5, #20481	; 0x5001
     f44:	000097e8 	andeq	r9, r0, r8, ror #15
     f48:	85241b00 	strhi	r1, [r4, #-2816]!	; 0xb00
     f4c:	0c4d0000 	mareq	acc0, r0, sp
     f50:	00000000 	andeq	r0, r0, r0
     f54:	00019915 	andeq	r9, r1, r5, lsl r9
     f58:	00852400 	addeq	r2, r5, r0, lsl #8
     f5c:	00000400 	andeq	r0, r0, r0, lsl #8
     f60:	fb670100 	blx	19c136a <__bss_end__+0x19b73aa>
     f64:	16000005 	strne	r0, [r0], -r5
     f68:	00008524 	andeq	r8, r0, r4, lsr #10
     f6c:	00000004 	andeq	r0, r0, r4
     f70:	0001a917 	andeq	sl, r1, r7, lsl r9
     f74:	00027900 	andeq	r7, r2, r0, lsl #18
     f78:	15000000 	strne	r0, [r0, #-0]
     f7c:	000001b5 			; <UNDEFINED> instruction: 0x000001b5
     f80:	0000858c 	andeq	r8, r0, ip, lsl #11
     f84:	00000004 	andeq	r0, r0, r4
     f88:	061e6b01 	ldreq	r6, [lr], -r1, lsl #22
     f8c:	8c160000 	ldchi	0, cr0, [r6], {-0}
     f90:	04000085 	streq	r0, [r0], #-133	; 0x85
     f94:	21000000 	mrscs	r0, (UNDEF: 0)
     f98:	000001c5 	andeq	r0, r0, r5, asr #3
     f9c:	381b0000 	ldmdacc	fp, {}	; <UNPREDICTABLE>
     fa0:	30000085 	andcc	r0, r0, r5, lsl #1
     fa4:	1c00000c 	stcne	0, cr0, [r0], {12}
     fa8:	00008554 	andeq	r8, r0, r4, asr r5
     fac:	00000c37 	andeq	r0, r0, r7, lsr ip
     fb0:	00000660 	andeq	r0, r0, r0, ror #12
     fb4:	0253011d 	subseq	r0, r3, #1073741831	; 0x40000007
     fb8:	011d6708 	tsteq	sp, r8, lsl #14
     fbc:	d4030552 	strle	r0, [r3], #-1362	; 0x552
     fc0:	1d000098 	stcne	0, cr0, [r0, #-608]	; 0xfffffda0
     fc4:	03055101 	movweq	r5, #20737	; 0x5101
     fc8:	000097c0 	andeq	r9, r0, r0, asr #15
     fcc:	0550011d 	ldrbeq	r0, [r0, #-285]	; 0x11d
     fd0:	00958c03 	addseq	r8, r5, r3, lsl #24
     fd4:	7d021d00 	stcvc	13, cr1, [r2, #-0]
     fd8:	30030500 	andcc	r0, r3, r0, lsl #10
     fdc:	00000098 	muleq	r0, r8, r0
     fe0:	0085581b 	addeq	r5, r5, fp, lsl r8
     fe4:	000c4d00 	andeq	r4, ip, r0, lsl #26
     fe8:	856c1b00 	strbhi	r1, [ip, #-2816]!	; 0xb00
     fec:	0c300000 	ldceq	0, cr0, [r0], #-0
     ff0:	881c0000 	ldmdahi	ip, {}	; <UNPREDICTABLE>
     ff4:	37000085 	strcc	r0, [r0, -r5, lsl #1]
     ff8:	ab00000c 	blge	1030 <__code_start__-0x6fd0>
     ffc:	1d000006 	stcne	0, cr0, [r0, #-24]	; 0xffffffe8
    1000:	08025301 	stmdaeq	r2, {r0, r8, r9, ip, lr}
    1004:	52011d69 	andpl	r1, r1, #6720	; 0x1a40
    1008:	98d40305 	ldmls	r4, {r0, r2, r8, r9}^
    100c:	011d0000 	tsteq	sp, r0
    1010:	c0030551 	andgt	r0, r3, r1, asr r5
    1014:	1d000097 	stcne	0, cr0, [r0, #-604]	; 0xfffffda4
    1018:	03055001 	movweq	r5, #20481	; 0x5001
    101c:	0000958c 	andeq	r9, r0, ip, lsl #11
    1020:	007d021d 	rsbseq	r0, sp, sp, lsl r2
    1024:	98440305 	stmdals	r4, {r0, r2, r8, r9}^
    1028:	1b000000 	blne	1030 <__code_start__-0x6fd0>
    102c:	0000858c 	andeq	r8, r0, ip, lsl #11
    1030:	00000c4d 	andeq	r0, r0, sp, asr #24
    1034:	00859824 	addeq	r9, r5, r4, lsr #16
    1038:	50011d00 	andpl	r1, r1, r0, lsl #26
    103c:	00003001 	andeq	r3, r0, r1
    1040:	00007f08 	andeq	r7, r0, r8, lsl #30
    1044:	0006d000 	andeq	sp, r6, r0
    1048:	00760900 	rsbseq	r0, r6, r0, lsl #18
    104c:	00110000 	andseq	r0, r1, r0
    1050:	0006c007 	andeq	ip, r6, r7
    1054:	02521100 	subseq	r1, r2, #0, 2
    1058:	72010000 	andvc	r0, r1, #0
    105c:	000085c4 	andeq	r8, r0, r4, asr #11
    1060:	0000003c 	andeq	r0, r0, ip, lsr r0
    1064:	07459c01 	strbeq	r9, [r5, -r1, lsl #24]
    1068:	df200000 	svcle	0x00200000
    106c:	01000002 	tsteq	r0, r2
    1070:	00002573 	andeq	r2, r0, r3, ror r5
    1074:	b8030500 	stmdalt	r3, {r8, sl}
    1078:	2500009b 	strcs	r0, [r0, #-155]	; 0x9b
    107c:	7c010076 	stcvc	0, cr0, [r1], {118}	; 0x76
    1080:	0000005d 	andeq	r0, r0, sp, asr r0
    1084:	d1158000 	tstle	r5, r0
    1088:	e8000001 	stmda	r0, {r0}
    108c:	08000085 	stmdaeq	r0, {r0, r2, r7}
    1090:	01000000 	mrseq	r0, (UNDEF: 0)
    1094:	0007217e 	andeq	r2, r7, lr, ror r1
    1098:	01dd1900 	bicseq	r1, sp, r0, lsl #18
    109c:	80000000 	andhi	r0, r0, r0
    10a0:	01671500 	cmneq	r7, r0, lsl #10
    10a4:	85f00000 	ldrbhi	r0, [r0, #0]!
    10a8:	00100000 	andseq	r0, r0, r0
    10ac:	80010000 	andhi	r0, r1, r0
    10b0:	0000073b 	andeq	r0, r0, fp, lsr r7
    10b4:	0001731a 	andeq	r7, r1, sl, lsl r3
    10b8:	1b000000 	blne	10c0 <__code_start__-0x6f40>
    10bc:	000085dc 	ldrdeq	r8, [r0], -ip
    10c0:	00000c54 	andeq	r0, r0, r4, asr ip
    10c4:	04011100 	streq	r1, [r1], #-256	; 0x100
    10c8:	a8010000 	stmdage	r1, {}	; <UNPREDICTABLE>
    10cc:	00008600 	andeq	r8, r0, r0, lsl #12
    10d0:	00000034 	andeq	r0, r0, r4, lsr r0
    10d4:	08219c01 	stmdaeq	r1!, {r0, sl, fp, ip, pc}
    10d8:	d7260000 	strle	r0, [r6, -r0]!
    10dc:	01000003 	tsteq	r0, r3
    10e0:	00005da8 	andeq	r5, r0, r8, lsr #27
    10e4:	26500100 	ldrbcs	r0, [r0], -r0, lsl #2
    10e8:	00000136 	andeq	r0, r0, r6, lsr r1
    10ec:	00a1a801 	adceq	sl, r1, r1, lsl #16
    10f0:	51010000 	mrspl	r0, (UNDEF: 1)
    10f4:	0003ef13 	andeq	lr, r3, r3, lsl pc
    10f8:	5da90100 	stfpls	f0, [r9]
    10fc:	a6000000 	strge	r0, [r0], -r0
    1100:	20000002 	andcs	r0, r0, r2
    1104:	000003b5 			; <UNDEFINED> instruction: 0x000003b5
    1108:	005db101 	subseq	fp, sp, r1, lsl #2
    110c:	50010000 	andpl	r0, r1, r0
    1110:	0001e715 	andeq	lr, r1, r5, lsl r7
    1114:	00860000 	addeq	r0, r6, r0
    1118:	00000400 	andeq	r0, r0, r0, lsl #8
    111c:	b7a90100 	strlt	r0, [r9, r0, lsl #2]!
    1120:	16000007 	strne	r0, [r0], -r7
    1124:	00008600 	andeq	r8, r0, r0, lsl #12
    1128:	00000004 	andeq	r0, r0, r4
    112c:	0001f717 	andeq	pc, r1, r7, lsl r7	; <UNPREDICTABLE>
    1130:	0002c700 	andeq	ip, r2, r0, lsl #14
    1134:	15000000 	strne	r0, [r0, #-0]
    1138:	00000203 	andeq	r0, r0, r3, lsl #4
    113c:	00008608 	andeq	r8, r0, r8, lsl #12
    1140:	00000004 	andeq	r0, r0, r4
    1144:	07d4af01 	ldrbeq	sl, [r4, r1, lsl #30]
    1148:	0f180000 	svceq	0x00180000
    114c:	da000002 	ble	115c <__code_start__-0x6ea4>
    1150:	00000002 	andeq	r0, r0, r2
    1154:	00021915 	andeq	r1, r2, r5, lsl r9
    1158:	00860c00 	addeq	r0, r6, r0, lsl #24
    115c:	00000400 	andeq	r0, r0, r0, lsl #8
    1160:	efb40100 	svc	0x00b40100
    1164:	27000007 	strcs	r0, [r0, -r7]
    1168:	00000225 	andeq	r0, r0, r5, lsr #4
    116c:	15005001 	strne	r5, [r0, #-1]
    1170:	00000203 	andeq	r0, r0, r3, lsl #4
    1174:	00008610 	andeq	r8, r0, r0, lsl r6
    1178:	00000008 	andeq	r0, r0, r8
    117c:	080abe01 	stmdaeq	sl, {r0, r9, sl, fp, ip, sp, pc}
    1180:	0f190000 	svceq	0x00190000
    1184:	e7000002 	str	r0, [r0, -r2]
    1188:	67220001 	strvs	r0, [r2, -r1]!
    118c:	18000001 	stmdane	r0, {r0}
    1190:	08000086 	stmdaeq	r0, {r1, r2, r7}
    1194:	01000000 	mrseq	r0, (UNDEF: 0)
    1198:	01731abf 	ldrheq	r1, [r3, #-175]!	; 0xffffff51
    119c:	00000000 	andeq	r0, r0, r0
    11a0:	028d1100 	addeq	r1, sp, #0, 2
    11a4:	c4010000 	strgt	r0, [r1], #-0
    11a8:	00008634 	andeq	r8, r0, r4, lsr r6
    11ac:	00000098 	muleq	r0, r8, r0
    11b0:	09549c01 	ldmdbeq	r4, {r0, sl, fp, ip, pc}^
    11b4:	701f0000 	andsvc	r0, pc, r0
    11b8:	c4010063 	strgt	r0, [r1], #-99	; 0x63
    11bc:	0000002c 	andeq	r0, r0, ip, lsr #32
    11c0:	000002ed 	andeq	r0, r0, sp, ror #5
    11c4:	00011d14 	andeq	r1, r1, r4, lsl sp
    11c8:	00096400 	andeq	r6, r9, r0, lsl #8
    11cc:	fc030500 	stc2	5, cr0, [r3], {-0}
    11d0:	15000098 	strne	r0, [r0, #-152]	; 0x98
    11d4:	0000022f 	andeq	r0, r0, pc, lsr #4
    11d8:	00008640 	andeq	r8, r0, r0, asr #12
    11dc:	00000008 	andeq	r0, r0, r8
    11e0:	0899c601 	ldmeq	r9, {r0, r9, sl, lr, pc}
    11e4:	40160000 	andsmi	r0, r6, r0
    11e8:	08000086 	stmdaeq	r0, {r1, r2, r7}
    11ec:	21000000 	mrscs	r0, (UNDEF: 0)
    11f0:	0000023f 	andeq	r0, r0, pc, lsr r2
    11f4:	0000e922 	andeq	lr, r0, r2, lsr #18
    11f8:	00864000 	addeq	r4, r6, r0
    11fc:	00000400 	andeq	r0, r0, r0, lsl #8
    1200:	16aa0200 	strtne	r0, [sl], r0, lsl #4
    1204:	00008640 	andeq	r8, r0, r0, asr #12
    1208:	00000004 	andeq	r0, r0, r4
    120c:	0000f917 	andeq	pc, r0, r7, lsl r9	; <UNPREDICTABLE>
    1210:	00034b00 	andeq	r4, r3, r0, lsl #22
    1214:	00000000 	andeq	r0, r0, r0
    1218:	02491500 	subeq	r1, r9, #0, 10
    121c:	86a00000 	strthi	r0, [r0], r0
    1220:	00040000 	andeq	r0, r4, r0
    1224:	ca010000 	bgt	4122c <__bss_end__+0x3726c>
    1228:	000008bc 			; <UNDEFINED> instruction: 0x000008bc
    122c:	0086a016 	addeq	sl, r6, r6, lsl r0
    1230:	00000400 	andeq	r0, r0, r0, lsl #8
    1234:	02592100 	subseq	r2, r9, #0, 2
    1238:	00000000 	andeq	r0, r0, r0
    123c:	0086541b 	addeq	r5, r6, fp, lsl r4
    1240:	000c3000 	andeq	r3, ip, r0
    1244:	86681c00 	strbthi	r1, [r8], -r0, lsl #24
    1248:	0c370000 	ldceq	0, cr0, [r7], #-0
    124c:	08f40000 	ldmeq	r4!, {}^	; <UNPREDICTABLE>
    1250:	011d0000 	tsteq	sp, r0
    1254:	c7080253 	smlsdgt	r8, r3, r2, r0
    1258:	0552011d 	ldrbeq	r0, [r2, #-285]	; 0x11d
    125c:	0098fc03 	addseq	pc, r8, r3, lsl #24
    1260:	51011d00 	tstpl	r1, r0, lsl #26
    1264:	97c00305 	strbls	r0, [r0, r5, lsl #6]
    1268:	011d0000 	tsteq	sp, r0
    126c:	54030550 	strpl	r0, [r3], #-1360	; 0x550
    1270:	00000095 	muleq	r0, r5, r0
    1274:	00866c1b 	addeq	r6, r6, fp, lsl ip
    1278:	000c4d00 	andeq	r4, ip, r0, lsl #26
    127c:	86801b00 	strhi	r1, [r0], r0, lsl #22
    1280:	0c300000 	ldceq	0, cr0, [r0], #-0
    1284:	9c1c0000 	ldcls	0, cr0, [ip], {-0}
    1288:	37000086 	strcc	r0, [r0, -r6, lsl #1]
    128c:	3f00000c 	svccc	0x0000000c
    1290:	1d000009 	stcne	0, cr0, [r0, #-36]	; 0xffffffdc
    1294:	08025301 	stmdaeq	r2, {r0, r8, r9, ip, lr}
    1298:	52011dc8 	andpl	r1, r1, #200, 26	; 0x3200
    129c:	98fc0305 	ldmls	ip!, {r0, r2, r8, r9}^
    12a0:	011d0000 	tsteq	sp, r0
    12a4:	c0030551 	andgt	r0, r3, r1, asr r5
    12a8:	1d000097 	stcne	0, cr0, [r0, #-604]	; 0xfffffda4
    12ac:	03055001 	movweq	r5, #20481	; 0x5001
    12b0:	0000958c 	andeq	r9, r0, ip, lsl #11
    12b4:	007d021d 	rsbseq	r0, sp, sp, lsl r2
    12b8:	98580305 	ldmdals	r8, {r0, r2, r8, r9}^
    12bc:	1b000000 	blne	12c4 <__code_start__-0x6d3c>
    12c0:	000086a0 	andeq	r8, r0, r0, lsr #13
    12c4:	00000c4d 	andeq	r0, r0, sp, asr #24
    12c8:	0086ac24 	addeq	sl, r6, r4, lsr #24
    12cc:	50011d00 	andpl	r1, r1, r0, lsl #26
    12d0:	00003001 	andeq	r3, r0, r1
    12d4:	00007f08 	andeq	r7, r0, r8, lsl #30
    12d8:	00096400 	andeq	r6, r9, r0, lsl #8
    12dc:	00760900 	rsbseq	r0, r6, r0, lsl #18
    12e0:	00150000 	andseq	r0, r5, r0
    12e4:	00095407 	andeq	r5, r9, r7, lsl #8
    12e8:	06e91100 	strbteq	r1, [r9], r0, lsl #2
    12ec:	cd010000 	stcgt	0, cr0, [r1, #-0]
    12f0:	000086cc 	andeq	r8, r0, ip, asr #13
    12f4:	00000004 	andeq	r0, r0, r4
    12f8:	098b9c01 	stmibeq	fp, {r0, sl, fp, ip, pc}
    12fc:	70280000 	eorvc	r0, r8, r0
    1300:	cd010063 	stcgt	0, cr0, [r1, #-396]	; 0xfffffe74
    1304:	0000002c 	andeq	r0, r0, ip, lsr #32
    1308:	11005001 	tstne	r0, r1
    130c:	00000322 	andeq	r0, r0, r2, lsr #6
    1310:	86d0d801 	ldrbhi	sp, [r0], r1, lsl #16
    1314:	002c0000 	eoreq	r0, ip, r0
    1318:	9c010000 	stcls	0, cr0, [r1], {-0}
    131c:	000009f1 	strdeq	r0, [r0], -r1
    1320:	00011d14 	andeq	r1, r1, r4, lsl sp
    1324:	000a0100 	andeq	r0, sl, r0, lsl #2
    1328:	14030500 	strne	r0, [r3], #-1280	; 0x500
    132c:	1b000099 	blne	1598 <__code_start__-0x6a68>
    1330:	000086d8 	ldrdeq	r8, [r0], -r8	; <UNPREDICTABLE>
    1334:	00000c30 	andeq	r0, r0, r0, lsr ip
    1338:	0086ec1c 	addeq	lr, r6, ip, lsl ip
    133c:	000c3700 	andeq	r3, ip, r0, lsl #14
    1340:	0009e700 	andeq	lr, r9, r0, lsl #14
    1344:	53011d00 	movwpl	r1, #7424	; 0x1d00
    1348:	1dd90802 	ldclne	8, cr0, [r9, #8]
    134c:	03055201 	movweq	r5, #20993	; 0x5201
    1350:	00009914 	andeq	r9, r0, r4, lsl r9
    1354:	0551011d 	ldrbeq	r0, [r1, #-285]	; 0x11d
    1358:	0097c003 	addseq	ip, r7, r3
    135c:	50011d00 	andpl	r1, r1, r0, lsl #26
    1360:	98680305 	stmdals	r8!, {r0, r2, r8, r9}^
    1364:	1b000000 	blne	136c <__code_start__-0x6c94>
    1368:	000086f0 	strdeq	r8, [r0], -r0
    136c:	00000c4d 	andeq	r0, r0, sp, asr #24
    1370:	007f0800 	rsbseq	r0, pc, r0, lsl #16
    1374:	0a010000 	beq	4137c <__bss_end__+0x373bc>
    1378:	76090000 	strvc	r0, [r9], -r0
    137c:	10000000 	andne	r0, r0, r0
    1380:	09f10700 	ldmibeq	r1!, {r8, r9, sl}^
    1384:	09110000 	ldmdbeq	r1, {}	; <UNPREDICTABLE>
    1388:	01000000 	mrseq	r0, (UNDEF: 0)
    138c:	0086fcdc 	ldrdeq	pc, [r6], ip
    1390:	00003400 	andeq	r3, r0, r0, lsl #8
    1394:	e49c0100 	ldr	r0, [ip], #256	; 0x100
    1398:	2600000a 	strcs	r0, [r0], -sl
    139c:	000003d7 	ldrdeq	r0, [r0], -r7
    13a0:	005ddc01 	subseq	sp, sp, r1, lsl #24
    13a4:	50010000 	andpl	r0, r1, r0
    13a8:	00013626 	andeq	r3, r1, r6, lsr #12
    13ac:	a1dc0100 	bicsge	r0, ip, r0, lsl #2
    13b0:	01000000 	mrseq	r0, (UNDEF: 0)
    13b4:	03ef1351 	mvneq	r1, #1140850689	; 0x44000001
    13b8:	dd010000 	stcle	0, cr0, [r1, #-0]
    13bc:	0000005d 	andeq	r0, r0, sp, asr r0
    13c0:	0000035e 	andeq	r0, r0, lr, asr r3
    13c4:	0003b520 	andeq	fp, r3, r0, lsr #10
    13c8:	5de50100 	stfple	f0, [r5]
    13cc:	01000000 	mrseq	r0, (UNDEF: 0)
    13d0:	01e71550 	mvneq	r1, r0, asr r5
    13d4:	86fc0000 	ldrbthi	r0, [ip], r0
    13d8:	00040000 	andeq	r0, r4, r0
    13dc:	dd010000 	stcle	0, cr0, [r1, #-0]
    13e0:	00000a78 	andeq	r0, r0, r8, ror sl
    13e4:	0086fc16 	addeq	pc, r6, r6, lsl ip	; <UNPREDICTABLE>
    13e8:	00000400 	andeq	r0, r0, r0, lsl #8
    13ec:	01f71700 	mvnseq	r1, r0, lsl #14
    13f0:	03810000 	orreq	r0, r1, #0
    13f4:	00000000 	andeq	r0, r0, r0
    13f8:	00020315 	andeq	r0, r2, r5, lsl r3
    13fc:	00870400 	addeq	r0, r7, r0, lsl #8
    1400:	00000400 	andeq	r0, r0, r0, lsl #8
    1404:	95e30100 	strbls	r0, [r3, #256]!	; 0x100
    1408:	1800000a 	stmdane	r0, {r1, r3}
    140c:	0000020f 	andeq	r0, r0, pc, lsl #4
    1410:	00000394 	muleq	r0, r4, r3
    1414:	02191500 	andseq	r1, r9, #0, 10
    1418:	87080000 	strhi	r0, [r8, -r0]
    141c:	00040000 	andeq	r0, r4, r0
    1420:	e8010000 	stmda	r1, {}	; <UNPREDICTABLE>
    1424:	00000ab0 			; <UNDEFINED> instruction: 0x00000ab0
    1428:	00022527 	andeq	r2, r2, r7, lsr #10
    142c:	00500100 	subseq	r0, r0, r0, lsl #2
    1430:	00020315 	andeq	r0, r2, r5, lsl r3
    1434:	00870c00 	addeq	r0, r7, r0, lsl #24
    1438:	00000800 	andeq	r0, r0, r0, lsl #16
    143c:	cdf20100 	ldfgte	f0, [r2]
    1440:	2900000a 	stmdbcs	r0, {r1, r3}
    1444:	0000020f 	andeq	r0, r0, pc, lsl #4
    1448:	004001e7 	subeq	r0, r0, r7, ror #3
    144c:	01672200 	cmneq	r7, r0, lsl #4
    1450:	87140000 	ldrhi	r0, [r4, -r0]
    1454:	00080000 	andeq	r0, r8, r0
    1458:	f3010000 	vhadd.u8	d0, d1, d0
    145c:	0001731a 	andeq	r7, r1, sl, lsl r3
    1460:	00000000 	andeq	r0, r0, r0
    1464:	00036411 	andeq	r6, r3, r1, lsl r4
    1468:	30f80100 	rscscc	r0, r8, r0, lsl #2
    146c:	2c000087 	stccs	0, cr0, [r0], {135}	; 0x87
    1470:	01000000 	mrseq	r0, (UNDEF: 0)
    1474:	000b599c 	muleq	fp, ip, r9
    1478:	03d71200 	bicseq	r1, r7, #0, 4
    147c:	f8010000 			; <UNDEFINED> instruction: 0xf8010000
    1480:	0000005d 	andeq	r0, r0, sp, asr r0
    1484:	000003a7 	andeq	r0, r0, r7, lsr #7
    1488:	00011d14 	andeq	r1, r1, r4, lsl sp
    148c:	000b5900 	andeq	r5, fp, r0, lsl #18
    1490:	28030500 	stmdacs	r3, {r8, sl}
    1494:	1b000099 	blne	1700 <__code_start__-0x6900>
    1498:	00008738 	andeq	r8, r0, r8, lsr r7
    149c:	00000c30 	andeq	r0, r0, r0, lsr ip
    14a0:	00874c1c 	addeq	r4, r7, ip, lsl ip
    14a4:	000c3700 	andeq	r3, ip, r0, lsl #14
    14a8:	000b4f00 	andeq	r4, fp, r0, lsl #30
    14ac:	53011d00 	movwpl	r1, #7424	; 0x1d00
    14b0:	1df90802 	ldclne	8, cr0, [r9, #8]!
    14b4:	03055201 	movweq	r5, #20993	; 0x5201
    14b8:	00009928 	andeq	r9, r0, r8, lsr #18
    14bc:	0551011d 	ldrbeq	r0, [r1, #-285]	; 0x11d
    14c0:	0097c003 	addseq	ip, r7, r3
    14c4:	50011d00 	andpl	r1, r1, r0, lsl #26
    14c8:	98980305 	ldmls	r8, {r0, r2, r8, r9}
    14cc:	1b000000 	blne	14d4 <__code_start__-0x6b2c>
    14d0:	00008750 	andeq	r8, r0, r0, asr r7
    14d4:	00000c4d 	andeq	r0, r0, sp, asr #24
    14d8:	00910700 	addseq	r0, r1, r0, lsl #14
    14dc:	c72a0000 	strgt	r0, [sl, -r0]!
    14e0:	01000003 	tsteq	r0, r3
    14e4:	00250102 	eoreq	r0, r5, r2, lsl #2
    14e8:	875c0000 	ldrbhi	r0, [ip, -r0]
    14ec:	00300000 	eorseq	r0, r0, r0
    14f0:	9c010000 	stcls	0, cr0, [r1], {-0}
    14f4:	00000be8 	andeq	r0, r0, r8, ror #23
    14f8:	0063702b 	rsbeq	r7, r3, fp, lsr #32
    14fc:	2c010201 	sfmcs	f0, 4, [r1], {1}
    1500:	c8000000 	stmdagt	r0, {}	; <UNPREDICTABLE>
    1504:	2b000003 	blcs	1518 <__code_start__-0x6ae8>
    1508:	01003072 	tsteq	r0, r2, ror r0
    150c:	005d0102 	subseq	r0, sp, r2, lsl #2
    1510:	03e90000 	mvneq	r0, #0
    1514:	1d140000 	ldcne	0, cr0, [r4, #-0]
    1518:	f8000001 			; <UNDEFINED> instruction: 0xf8000001
    151c:	0500000b 	streq	r0, [r0, #-11]
    1520:	00994003 	addseq	r4, r9, r3
    1524:	87641b00 	strbhi	r1, [r4, -r0, lsl #22]!
    1528:	0c300000 	ldceq	0, cr0, [r0], #-0
    152c:	781c0000 	ldmdavc	ip, {}	; <UNPREDICTABLE>
    1530:	37000087 	strcc	r0, [r0, -r7, lsl #1]
    1534:	de00000c 	cdple	0, 0, cr0, cr0, cr12, {0}
    1538:	1d00000b 	stcne	0, cr0, [r0, #-44]	; 0xffffffd4
    153c:	0a035301 	beq	d6148 <__bss_end__+0xcc188>
    1540:	011d0103 	tsteq	sp, r3, lsl #2
    1544:	40030552 	andmi	r0, r3, r2, asr r5
    1548:	1d000099 	stcne	0, cr0, [r0, #-612]	; 0xfffffd9c
    154c:	03055101 	movweq	r5, #20737	; 0x5101
    1550:	000097c0 	andeq	r9, r0, r0, asr #15
    1554:	0550011d 	ldrbeq	r0, [r0, #-285]	; 0x11d
    1558:	00989803 	addseq	r9, r8, r3, lsl #16
    155c:	7c1b0000 	ldcvc	0, cr0, [fp], {-0}
    1560:	4d000087 	stcmi	0, cr0, [r0, #-540]	; 0xfffffde4
    1564:	0000000c 	andeq	r0, r0, ip
    1568:	00007f08 	andeq	r7, r0, r8, lsl #30
    156c:	000bf800 	andeq	pc, fp, r0, lsl #16
    1570:	00760900 	rsbseq	r0, r6, r0, lsl #18
    1574:	000e0000 	andeq	r0, lr, r0
    1578:	000be807 	andeq	lr, fp, r7, lsl #16
    157c:	03532000 	cmpeq	r3, #0
    1580:	0b010000 	bleq	41588 <__bss_end__+0x375c8>
    1584:	000000a1 	andeq	r0, r0, r1, lsr #1
    1588:	9ba80305 	blls	fea021a4 <__bss_end__+0xfe9f81e4>
    158c:	e6200000 	strt	r0, [r0], -r0
    1590:	01000002 	tsteq	r0, r2
    1594:	0000a189 	andeq	sl, r0, r9, lsl #3
    1598:	ac030500 	cfstr32ge	mvfx0, [r3], {-0}
    159c:	2c00009b 	stccs	0, cr0, [r0], {155}	; 0x9b
    15a0:	0000010f 	andeq	r0, r0, pc, lsl #2
    15a4:	0025d501 	eoreq	sp, r5, r1, lsl #10
    15a8:	03050000 	movweq	r0, #20480	; 0x5000
    15ac:	00009bb0 			; <UNDEFINED> instruction: 0x00009bb0
    15b0:	0002672d 	andeq	r6, r2, sp, lsr #14
    15b4:	2e1e0400 	cfmulscs	mvf0, mvf14, mvf0
    15b8:	00000495 	muleq	r0, r5, r4
    15bc:	00252904 	eoreq	r2, r5, r4, lsl #18
    15c0:	0c4d0000 	mareq	acc0, r0, sp
    15c4:	860b0000 	strhi	r0, [fp], -r0
    15c8:	2f000000 	svccs	0x00000000
    15cc:	00f02d00 	rscseq	r2, r0, r0, lsl #26
    15d0:	65040000 	strvs	r0, [r4, #-0]
    15d4:	0004152d 	andeq	r1, r4, sp, lsr #10
    15d8:	00360500 	eorseq	r0, r6, r0, lsl #10
    15dc:	00000191 	muleq	r0, r1, r1
    15e0:	04bf0004 	ldrteq	r0, [pc], #4	; 15e8 <__code_start__-0x6a18>
    15e4:	01040000 	mrseq	r0, (UNDEF: 4)
    15e8:	0000043b 	andeq	r0, r0, fp, lsr r4
    15ec:	00042d01 	andeq	r2, r4, r1, lsl #26
    15f0:	0004a600 	andeq	sl, r4, r0, lsl #12
    15f4:	00889400 	addeq	r9, r8, r0, lsl #8
    15f8:	00005800 	andeq	r5, r0, r0, lsl #16
    15fc:	0003cf00 	andeq	ip, r3, r0, lsl #30
    1600:	041e0200 	ldreq	r0, [lr], #-512	; 0x200
    1604:	28020000 	stmdacs	r2, {}	; <UNPREDICTABLE>
    1608:	00000030 	andeq	r0, r0, r0, lsr r0
    160c:	00049c03 	andeq	r9, r4, r3, lsl #24
    1610:	00030400 	andeq	r0, r3, r0, lsl #8
    1614:	00000047 	andeq	r0, r0, r7, asr #32
    1618:	0004ec04 	andeq	lr, r4, r4, lsl #24
    161c:	00004700 	andeq	r4, r0, r0, lsl #14
    1620:	05000000 	streq	r0, [r0, #-0]
    1624:	049e0204 	ldreq	r0, [lr], #516	; 0x204
    1628:	62020000 	andvs	r0, r2, #0
    162c:	00000025 	andeq	r0, r0, r5, lsr #32
    1630:	69050406 	stmdbvs	r5, {r1, r2, sl}
    1634:	0700746e 	streq	r7, [r0, -lr, ror #8]
    1638:	01cc0704 	biceq	r0, ip, r4, lsl #14
    163c:	01070000 	mrseq	r0, (UNDEF: 7)
    1640:	0000e406 	andeq	lr, r0, r6, lsl #8
    1644:	05020700 	streq	r0, [r2, #-1792]	; 0x700
    1648:	00000220 	andeq	r0, r0, r0, lsr #4
    164c:	00050407 	andeq	r0, r5, r7, lsl #8
    1650:	07000002 	streq	r0, [r0, -r2]
    1654:	01fb0508 	mvnseq	r0, r8, lsl #10
    1658:	01070000 	mrseq	r0, (UNDEF: 7)
    165c:	0000e208 	andeq	lr, r0, r8, lsl #4
    1660:	07020700 	streq	r0, [r2, -r0, lsl #14]
    1664:	0000004b 	andeq	r0, r0, fp, asr #32
    1668:	c7070407 	strgt	r0, [r7, -r7, lsl #8]
    166c:	07000001 	streq	r0, [r0, -r1]
    1670:	01c20708 	biceq	r0, r2, r8, lsl #14
    1674:	04070000 	streq	r0, [r7], #-0
    1678:	0001e807 	andeq	lr, r1, r7, lsl #16
    167c:	a7040800 	strge	r0, [r4, -r0, lsl #16]
    1680:	07000000 	streq	r0, [r0, -r0]
    1684:	00eb0801 	rsceq	r0, fp, r1, lsl #16
    1688:	04080000 	streq	r0, [r8], #-0
    168c:	000000b4 	strheq	r0, [r0], -r4
    1690:	0000a709 	andeq	sl, r0, r9, lsl #14
    1694:	04950a00 	ldreq	r0, [r5], #2560	; 0xa00
    1698:	06010000 	streq	r0, [r1], -r0
    169c:	00000054 	andeq	r0, r0, r4, asr r0
    16a0:	00008894 	muleq	r0, r4, r8
    16a4:	00000058 	andeq	r0, r0, r8, asr r0
    16a8:	01439c01 	cmpeq	r3, r1, lsl #24
    16ac:	660b0000 	strvs	r0, [fp], -r0
    16b0:	0100746d 	tsteq	r0, sp, ror #8
    16b4:	0000ae06 	andeq	sl, r0, r6, lsl #28
    16b8:	70910200 	addsvc	r0, r1, r0, lsl #4
    16bc:	75620d0c 	strbvc	r0, [r2, #-3340]!	; 0xd0c
    16c0:	08010066 	stmdaeq	r1, {r1, r2, r5, r6}
    16c4:	00000143 	andeq	r0, r0, r3, asr #2
    16c8:	9bbc0305 	blls	fef022e4 <__bss_end__+0xfeef8324>
    16cc:	e20e0000 	and	r0, lr, #0
    16d0:	01000009 	tsteq	r0, r9
    16d4:	00004909 	andeq	r4, r0, r9, lsl #18
    16d8:	5c910200 	lfmpl	f0, 4, [r1], {0}
    16dc:	007a730f 	rsbseq	r7, sl, pc, lsl #6
    16e0:	00540c01 	subseq	r0, r4, r1, lsl #24
    16e4:	040a0000 	streq	r0, [sl], #-0
    16e8:	bc100000 	ldclt	0, cr0, [r0], {-0}
    16ec:	74000088 	strvc	r0, [r0], #-136	; 0x88
    16f0:	36000001 	strcc	r0, [r0], -r1
    16f4:	11000001 	tstne	r0, r1
    16f8:	91025301 	tstls	r2, r1, lsl #6
    16fc:	5201114c 	andpl	r1, r1, #76, 2
    1700:	06489103 	strbeq	r9, [r8], -r3, lsl #2
    1704:	03510111 	cmpeq	r1, #1073741828	; 0x40000004
    1708:	1104000a 	tstne	r4, sl
    170c:	74025001 	strvc	r5, [r2], #-1
    1710:	d0120000 	andsle	r0, r2, r0
    1714:	11000088 	smlabbne	r0, r8, r0, r0
    1718:	74025001 	strvc	r5, [r2], #-1
    171c:	13000000 	movwne	r0, #0
    1720:	000000a7 	andeq	r0, r0, r7, lsr #1
    1724:	00000154 	andeq	r0, r0, r4, asr r1
    1728:	00009a14 	andeq	r9, r0, r4, lsl sl
    172c:	0003ff00 	andeq	pc, r3, r0, lsl #30
    1730:	00005415 	andeq	r5, r0, r5, lsl r4
    1734:	00016300 	andeq	r6, r1, r0, lsl #6
    1738:	00ae1600 	adceq	r1, lr, r0, lsl #12
    173c:	17000000 	strne	r0, [r0, -r0]
    1740:	00000549 	andeq	r0, r0, r9, asr #10
    1744:	016e2204 	cmneq	lr, r4, lsl #4
    1748:	04080000 	streq	r0, [r8], #-0
    174c:	00000154 	andeq	r0, r0, r4, asr r1
    1750:	00049218 	andeq	r9, r4, r8, lsl r2
    1754:	54020500 	strpl	r0, [r2], #-1280	; 0x500
    1758:	16000000 	strne	r0, [r0], -r0
    175c:	000000a1 	andeq	r0, r0, r1, lsr #1
    1760:	00005416 	andeq	r5, r0, r6, lsl r4
    1764:	00ae1600 	adceq	r1, lr, r0, lsl #12
    1768:	49160000 	ldmdbmi	r6, {}	; <UNPREDICTABLE>
    176c:	00000000 	andeq	r0, r0, r0
    1770:	00011300 	andeq	r1, r1, r0, lsl #6
    1774:	f0000400 			; <UNDEFINED> instruction: 0xf0000400
    1778:	04000005 	streq	r0, [r0], #-5
    177c:	00043b01 	andeq	r3, r4, r1, lsl #22
    1780:	05180100 	ldreq	r0, [r8, #-256]	; 0x100
    1784:	04a60000 	strteq	r0, [r6], #0
    1788:	88ec0000 	stmiahi	ip!, {}^	; <UNPREDICTABLE>
    178c:	003c0000 	eorseq	r0, ip, r0
    1790:	04df0000 	ldrbeq	r0, [pc], #0	; 1798 <__code_start__-0x6868>
    1794:	04020000 	streq	r0, [r2], #-0
    1798:	746e6905 	strbtvc	r6, [lr], #-2309	; 0x905
    179c:	07040300 	streq	r0, [r4, -r0, lsl #6]
    17a0:	000001cc 	andeq	r0, r0, ip, asr #3
    17a4:	e4060103 	str	r0, [r6], #-259	; 0x103
    17a8:	03000000 	movweq	r0, #0
    17ac:	02200502 	eoreq	r0, r0, #8388608	; 0x800000
    17b0:	04030000 	streq	r0, [r3], #-0
    17b4:	00020005 	andeq	r0, r2, r5
    17b8:	05080300 	streq	r0, [r8, #-768]	; 0x300
    17bc:	000001fb 	strdeq	r0, [r0], -fp
    17c0:	e2080103 	and	r0, r8, #-1073741824	; 0xc0000000
    17c4:	03000000 	movweq	r0, #0
    17c8:	004b0702 	subeq	r0, fp, r2, lsl #14
    17cc:	04030000 	streq	r0, [r3], #-0
    17d0:	0001c707 	andeq	ip, r1, r7, lsl #14
    17d4:	07080300 	streq	r0, [r8, -r0, lsl #6]
    17d8:	000001c2 	andeq	r0, r0, r2, asr #3
    17dc:	e8070403 	stmda	r7, {r0, r1, sl}
    17e0:	03000001 	movweq	r0, #1
    17e4:	00eb0801 	rsceq	r0, fp, r1, lsl #16
    17e8:	fb040000 	blx	1017f2 <__bss_end__+0xf7832>
    17ec:	01000004 	tsteq	r0, r4
    17f0:	00002503 	andeq	r2, r0, r3, lsl #10
    17f4:	0088ec00 	addeq	lr, r8, r0, lsl #24
    17f8:	00001400 	andeq	r1, r0, r0, lsl #8
    17fc:	b09c0100 	addslt	r0, ip, r0, lsl #2
    1800:	05000000 	streq	r0, [r0, #-0]
    1804:	03010063 	movweq	r0, #4195	; 0x1063
    1808:	00000025 	andeq	r0, r0, r5, lsr #32
    180c:	00000433 	andeq	r0, r0, r3, lsr r4
    1810:	0088f806 	addeq	pc, r8, r6, lsl #16
    1814:	00010900 	andeq	r0, r1, r0, lsl #18
    1818:	50010700 	andpl	r0, r1, r0, lsl #14
    181c:	00007402 	andeq	r7, r0, r2, lsl #8
    1820:	02670800 	rsbeq	r0, r7, #0, 16
    1824:	08010000 	stmdaeq	r1, {}	; <UNPREDICTABLE>
    1828:	00008900 	andeq	r8, r0, r0, lsl #18
    182c:	00000018 	andeq	r0, r0, r8, lsl r0
    1830:	27099c01 	strcs	r9, [r9, -r1, lsl #24]
    1834:	01000005 	tsteq	r0, r5
    1838:	0089180b 	addeq	r1, r9, fp, lsl #16
    183c:	00001000 	andeq	r1, r0, r0
    1840:	e39c0100 	orrs	r0, ip, #0, 2
    1844:	0a000000 	beq	184c <__code_start__-0x67b4>
    1848:	01007066 	tsteq	r0, r6, rrx
    184c:	0000f20b 	andeq	pc, r0, fp, lsl #4
    1850:	00500100 	subseq	r0, r0, r0, lsl #2
    1854:	0000250b 	andeq	r2, r0, fp, lsl #10
    1858:	0000f200 	andeq	pc, r0, r0, lsl #4
    185c:	00250c00 	eoreq	r0, r5, r0, lsl #24
    1860:	0d000000 	stceq	0, cr0, [r0, #-0]
    1864:	0000e304 	andeq	lr, r0, r4, lsl #6
    1868:	050c0e00 	streq	r0, [ip, #-3584]	; 0xe00
    186c:	06010000 	streq	r0, [r1], -r0
    1870:	000000f2 	strdeq	r0, [r0], -r2
    1874:	94e80305 	strbtls	r0, [r8], #773	; 0x305
    1878:	f10f0000 			; <UNDEFINED> instruction: 0xf10f0000
    187c:	02000004 	andeq	r0, r0, #4
    1880:	002c0c3c 	eoreq	r0, ip, ip, lsr ip
    1884:	00000000 	andeq	r0, r0, r0
    1888:	000000ee 	andeq	r0, r0, lr, ror #1
    188c:	06d80004 	ldrbeq	r0, [r8], r4
    1890:	01040000 	mrseq	r0, (UNDEF: 4)
    1894:	0000043b 	andeq	r0, r0, fp, lsr r4
    1898:	00053401 	andeq	r3, r5, r1, lsl #8
    189c:	0004a600 	andeq	sl, r4, r0, lsl #12
    18a0:	00892800 	addeq	r2, r9, r0, lsl #16
    18a4:	00003400 	andeq	r3, r0, r0, lsl #8
    18a8:	00057700 	andeq	r7, r5, r0, lsl #14
    18ac:	05040200 	streq	r0, [r4, #-512]	; 0x200
    18b0:	00746e69 	rsbseq	r6, r4, r9, ror #28
    18b4:	cc070403 	cfstrsgt	mvf0, [r7], {3}
    18b8:	03000001 	movweq	r0, #1
    18bc:	00e40601 	rsceq	r0, r4, r1, lsl #12
    18c0:	02030000 	andeq	r0, r3, #0
    18c4:	00022005 	andeq	r2, r2, r5
    18c8:	05040300 	streq	r0, [r4, #-768]	; 0x300
    18cc:	00000200 	andeq	r0, r0, r0, lsl #4
    18d0:	fb050803 	blx	1438e6 <__bss_end__+0x139926>
    18d4:	03000001 	movweq	r0, #1
    18d8:	00e20801 	rsceq	r0, r2, r1, lsl #16
    18dc:	02030000 	andeq	r0, r3, #0
    18e0:	00004b07 	andeq	r4, r0, r7, lsl #22
    18e4:	07040300 	streq	r0, [r4, -r0, lsl #6]
    18e8:	000001c7 	andeq	r0, r0, r7, asr #3
    18ec:	c2070803 	andgt	r0, r7, #196608	; 0x30000
    18f0:	03000001 	movweq	r0, #1
    18f4:	01e80704 	mvneq	r0, r4, lsl #14
    18f8:	01030000 	mrseq	r0, (UNDEF: 3)
    18fc:	0000eb08 	andeq	lr, r0, r8, lsl #22
    1900:	7f040400 	svcvc	0x00040400
    1904:	05000000 	streq	r0, [r0, #-0]
    1908:	00000072 	andeq	r0, r0, r2, ror r0
    190c:	00054006 	andeq	r4, r5, r6
    1910:	25040100 	strcs	r0, [r4, #-256]	; 0x100
    1914:	28000000 	stmdacs	r0, {}	; <UNPREDICTABLE>
    1918:	34000089 	strcc	r0, [r0], #-137	; 0x89
    191c:	01000000 	mrseq	r0, (UNDEF: 0)
    1920:	0000ab9c 	muleq	r0, ip, fp
    1924:	00700700 	rsbseq	r0, r0, r0, lsl #14
    1928:	00790401 	rsbseq	r0, r9, r1, lsl #8
    192c:	04510000 	ldrbeq	r0, [r1], #-0
    1930:	08000000 	stmdaeq	r0, {}	; <UNPREDICTABLE>
    1934:	00000025 	andeq	r0, r0, r5, lsr #32
    1938:	000000ba 	strheq	r0, [r0], -sl
    193c:	00002509 	andeq	r2, r0, r9, lsl #10
    1940:	0c0a0000 	stceq	0, cr0, [sl], {-0}
    1944:	02000005 	andeq	r0, r0, #5
    1948:	0000c51d 	andeq	ip, r0, sp, lsl r5
    194c:	ab040400 	blge	102954 <__bss_end__+0xf8994>
    1950:	08000000 	stmdaeq	r0, {}	; <UNPREDICTABLE>
    1954:	00000025 	andeq	r0, r0, r5, lsr #32
    1958:	000000da 	ldrdeq	r0, [r0], -sl
    195c:	00007909 	andeq	r7, r0, r9, lsl #18
    1960:	490b0000 	stmdbmi	fp, {}	; <UNPREDICTABLE>
    1964:	01000005 	tsteq	r0, r5
    1968:	0000eb0c 	andeq	lr, r0, ip, lsl #22
    196c:	ec030500 	cfstr32	mvfx0, [r3], {-0}
    1970:	04000094 	streq	r0, [r0], #-148	; 0x94
    1974:	0000cb04 	andeq	ip, r0, r4, lsl #22
    1978:	06e50000 	strbteq	r0, [r5], r0
    197c:	00040000 	andeq	r0, r4, r0
    1980:	00000771 	andeq	r0, r0, r1, ror r7
    1984:	043b0104 	ldrteq	r0, [fp], #-260	; 0x104
    1988:	7f010000 	svcvc	0x00010000
    198c:	a6000005 	strge	r0, [r0], -r5
    1990:	5c000004 	stcpl	0, cr0, [r0], {4}
    1994:	78000089 	stmdavc	r0, {r0, r3, r7}
    1998:	1b000005 	blne	19b4 <__code_start__-0x664c>
    199c:	02000006 	andeq	r0, r0, #6
    19a0:	6e690504 	cdpvs	5, 6, cr0, cr9, cr4, {0}
    19a4:	04030074 	streq	r0, [r3], #-116	; 0x74
    19a8:	0001cc07 	andeq	ip, r1, r7, lsl #24
    19ac:	06010300 	streq	r0, [r1], -r0, lsl #6
    19b0:	000000e4 	andeq	r0, r0, r4, ror #1
    19b4:	20050203 	andcs	r0, r5, r3, lsl #4
    19b8:	03000002 	movweq	r0, #2
    19bc:	02000504 	andeq	r0, r0, #4, 10	; 0x1000000
    19c0:	08030000 	stmdaeq	r3, {}	; <UNPREDICTABLE>
    19c4:	0001fb05 	andeq	pc, r1, r5, lsl #22
    19c8:	08010300 	stmdaeq	r1, {r8, r9}
    19cc:	000000e2 	andeq	r0, r0, r2, ror #1
    19d0:	4b070203 	blmi	1c21e4 <__bss_end__+0x1b8224>
    19d4:	03000000 	movweq	r0, #0
    19d8:	01c70704 	biceq	r0, r7, r4, lsl #14
    19dc:	08030000 	stmdaeq	r3, {}	; <UNPREDICTABLE>
    19e0:	0001c207 	andeq	ip, r1, r7, lsl #4
    19e4:	07040300 	streq	r0, [r4, -r0, lsl #6]
    19e8:	000001e8 	andeq	r0, r0, r8, ror #3
    19ec:	04050404 	streq	r0, [r5], #-1028	; 0x404
    19f0:	0000007a 	andeq	r0, r0, sl, ror r0
    19f4:	eb080103 	bl	201e08 <__bss_end__+0x1f7e48>
    19f8:	05000000 	streq	r0, [r0, #-0]
    19fc:	00008704 	andeq	r8, r0, r4, lsl #14
    1a00:	007a0600 	rsbseq	r0, sl, r0, lsl #12
    1a04:	1e070000 	cdpne	0, 0, cr0, cr7, cr0, {0}
    1a08:	02000004 	andeq	r0, r0, #4
    1a0c:	00009728 	andeq	r9, r0, r8, lsr #14
    1a10:	049c0800 	ldreq	r0, [ip], #2048	; 0x800
    1a14:	04040000 	streq	r0, [r4], #-0
    1a18:	0000ae00 	andeq	sl, r0, r0, lsl #28
    1a1c:	04ec0900 	strbteq	r0, [ip], #2304	; 0x900
    1a20:	00720000 	rsbseq	r0, r2, r0
    1a24:	00000000 	andeq	r0, r0, r0
    1a28:	00049e07 	andeq	r9, r4, r7, lsl #28
    1a2c:	8c620200 	sfmhi	f0, 2, [r2], #-0
    1a30:	0a000000 	beq	1a38 <__code_start__-0x65c8>
    1a34:	00000566 	andeq	r0, r0, r6, ror #10
    1a38:	00252701 	eoreq	r2, r5, r1, lsl #14
    1a3c:	895c0000 	ldmdbhi	ip, {}^	; <UNPREDICTABLE>
    1a40:	00140000 	andseq	r0, r4, r0
    1a44:	9c010000 	stcls	0, cr0, [r1], {-0}
    1a48:	000000e0 	andeq	r0, r0, r0, ror #1
    1a4c:	0100630b 	tsteq	r0, fp, lsl #6
    1a50:	00002527 	andeq	r2, r0, r7, lsr #10
    1a54:	00046f00 	andeq	r6, r4, r0, lsl #30
    1a58:	700c0000 	andvc	r0, ip, r0
    1a5c:	01006461 	tsteq	r0, r1, ror #8
    1a60:	0000742e 	andeq	r7, r0, lr, lsr #8
    1a64:	00897000 	addeq	r7, r9, r0
    1a68:	00002c00 	andeq	r2, r0, r0, lsl #24
    1a6c:	309c0100 	addscc	r0, ip, r0, lsl #2
    1a70:	0b000001 	bleq	1a7c <__code_start__-0x6584>
    1a74:	2e010070 	mcrcs	0, 0, r0, cr1, cr0, {3}
    1a78:	00000074 	andeq	r0, r0, r4, ror r0
    1a7c:	0000049d 	muleq	r0, sp, r4
    1a80:	0009c00d 	andeq	ip, r9, sp
    1a84:	742e0100 	strtvc	r0, [lr], #-256	; 0x100
    1a88:	c8000000 	stmdagt	r0, {}	; <UNPREDICTABLE>
    1a8c:	0e000004 	cdpeq	0, 0, cr0, cr0, cr4, {0}
    1a90:	0000059f 	muleq	r0, pc, r5	; <UNPREDICTABLE>
    1a94:	00252e01 	eoreq	r2, r5, r1, lsl #28
    1a98:	52010000 	andpl	r0, r1, #0
    1a9c:	6e656c0f 	cdpvs	12, 6, cr6, cr5, cr15, {0}
    1aa0:	252f0100 	strcs	r0, [pc, #-256]!	; 19a8 <__code_start__-0x6658>
    1aa4:	01000000 	mrseq	r0, (UNDEF: 0)
    1aa8:	5e0a0051 	mcrpl	0, 0, r0, cr10, cr1, {2}
    1aac:	01000005 	tsteq	r0, r5
    1ab0:	00007437 	andeq	r7, r0, r7, lsr r4
    1ab4:	00899c00 	addeq	r9, r9, r0, lsl #24
    1ab8:	00004000 	andeq	r4, r0, r0
    1abc:	9c9c0100 	ldflss	f0, [ip], {0}
    1ac0:	0b000001 	bleq	1acc <__code_start__-0x6534>
    1ac4:	00747364 	rsbseq	r7, r4, r4, ror #6
    1ac8:	00743701 	rsbseq	r3, r4, r1, lsl #14
    1acc:	04e90000 	strbteq	r0, [r9], #0
    1ad0:	6e0b0000 	cdpvs	0, 0, cr0, cr11, cr0, {0}
    1ad4:	25370100 	ldrcs	r0, [r7, #-256]!	; 0x100
    1ad8:	21000000 	mrscs	r0, (UNDEF: 0)
    1adc:	0b000005 	bleq	1af8 <__code_start__-0x6508>
    1ae0:	37010070 	smlsdxcc	r1, r0, r0, r0
    1ae4:	00000074 	andeq	r0, r0, r4, ror r0
    1ae8:	00000542 	andeq	r0, r0, r2, asr #10
    1aec:	0005520d 	andeq	r5, r5, sp, lsl #4
    1af0:	74370100 	ldrtvc	r0, [r7], #-256	; 0x100
    1af4:	78000000 	stmdavc	r0, {}	; <UNPREDICTABLE>
    1af8:	10000005 	andne	r0, r0, r5
    1afc:	006e656c 	rsbeq	r6, lr, ip, ror #10
    1b00:	00253901 	eoreq	r3, r5, r1, lsl #18
    1b04:	05960000 	ldreq	r0, [r6]
    1b08:	730f0000 	movwvc	r0, #61440	; 0xf000
    1b0c:	743d0100 	ldrtvc	r0, [sp], #-256	; 0x100
    1b10:	01000000 	mrseq	r0, (UNDEF: 0)
    1b14:	ad0a0050 	stcge	0, cr0, [sl, #-320]	; 0xfffffec0
    1b18:	01000005 	tsteq	r0, r5
    1b1c:	00007447 	andeq	r7, r0, r7, asr #8
    1b20:	0089dc00 	addeq	sp, r9, r0, lsl #24
    1b24:	0001bc00 	andeq	fp, r1, r0, lsl #24
    1b28:	df9c0100 	svcle	0x009c0100
    1b2c:	0d000002 	stceq	0, cr0, [r0, #-8]
    1b30:	000009c0 	andeq	r0, r0, r0, asr #19
    1b34:	002c4701 	eoreq	r4, ip, r1, lsl #14
    1b38:	05bd0000 	ldreq	r0, [sp, #0]!
    1b3c:	640b0000 	strvs	r0, [fp], #-0
    1b40:	01007473 	tsteq	r0, r3, ror r4
    1b44:	00007447 	andeq	r7, r0, r7, asr #8
    1b48:	0005eb00 	andeq	lr, r5, r0, lsl #22
    1b4c:	006e0b00 	rsbeq	r0, lr, r0, lsl #22
    1b50:	00254701 	eoreq	r4, r5, r1, lsl #14
    1b54:	06590000 	ldrbeq	r0, [r9], -r0
    1b58:	760b0000 	strvc	r0, [fp], -r0
    1b5c:	01006c61 	tsteq	r0, r1, ror #24
    1b60:	00002547 	andeq	r2, r0, r7, asr #10
    1b64:	00068500 	andeq	r8, r6, r0, lsl #10
    1b68:	059f0d00 	ldreq	r0, [pc, #3328]	; 2870 <__code_start__-0x5790>
    1b6c:	47010000 	strmi	r0, [r1, -r0]
    1b70:	00000025 	andeq	r0, r0, r5, lsr #32
    1b74:	00000704 	andeq	r0, r0, r4, lsl #14
    1b78:	0005760e 	andeq	r7, r5, lr, lsl #12
    1b7c:	25470100 	strbcs	r0, [r7, #-256]	; 0x100
    1b80:	02000000 	andeq	r0, r0, #0
    1b84:	620f0491 	andvs	r0, pc, #-1862270976	; 0x91000000
    1b88:	01006675 	tsteq	r0, r5, ror r6
    1b8c:	0002df4c 	andeq	sp, r2, ip, asr #30
    1b90:	a8910300 	ldmge	r1, {r8, r9}
    1b94:	0070107f 	rsbseq	r1, r0, pc, ror r0
    1b98:	00744c01 	rsbseq	r4, r4, r1, lsl #24
    1b9c:	072e0000 	streq	r0, [lr, -r0]!
    1ba0:	75100000 	ldrvc	r0, [r0, #-0]
    1ba4:	2c4d0100 	stfcse	f0, [sp], {-0}
    1ba8:	18000000 	stmdane	r0, {}	; <UNPREDICTABLE>
    1bac:	11000008 	tstne	r0, r8
    1bb0:	0000011d 	andeq	r0, r0, sp, lsl r1
    1bb4:	000002ff 	strdeq	r0, [r0], -pc	; <UNPREDICTABLE>
    1bb8:	99500305 	ldmdbls	r0, {r0, r2, r8, r9}^
    1bbc:	48120000 	ldmdami	r2, {}	; <UNPREDICTABLE>
    1bc0:	7400008a 	strvc	r0, [r0], #-138	; 0x8a
    1bc4:	61000000 	mrsvs	r0, (UNDEF: 0)
    1bc8:	13000002 	movwne	r0, #2
    1bcc:	00000558 	andeq	r0, r0, r8, asr r5
    1bd0:	002c5201 	eoreq	r5, ip, r1, lsl #4
    1bd4:	08db0000 	ldmeq	fp, {}^	; <UNPREDICTABLE>
    1bd8:	14000000 	strne	r0, [r0], #-0
    1bdc:	00008b34 	andeq	r8, r0, r4, lsr fp
    1be0:	000006c4 	andeq	r0, r0, r4, asr #13
    1be4:	008b5015 	addeq	r5, fp, r5, lsl r0
    1be8:	0006cb00 	andeq	ip, r6, r0, lsl #22
    1bec:	0002a300 	andeq	sl, r2, r0, lsl #6
    1bf0:	53011600 	movwpl	r1, #5632	; 0x1600
    1bf4:	16770802 	ldrbtne	r0, [r7], -r2, lsl #16
    1bf8:	03055201 	movweq	r5, #20993	; 0x5201
    1bfc:	00009950 	andeq	r9, r0, r0, asr r9
    1c00:	05510116 	ldrbeq	r0, [r1, #-278]	; 0x116
    1c04:	00997403 	addseq	r7, r9, r3, lsl #8
    1c08:	50011600 	andpl	r1, r1, r0, lsl #12
    1c0c:	958c0305 	strls	r0, [ip, #773]	; 0x305
    1c10:	02160000 	andseq	r0, r6, #0
    1c14:	0305007d 	movweq	r0, #20605	; 0x507d
    1c18:	00009988 	andeq	r9, r0, r8, lsl #19
    1c1c:	8b541400 	blhi	1506c24 <__bss_end__+0x14fcc64>
    1c20:	06e10000 	strbteq	r0, [r1], r0
    1c24:	5c150000 	ldcpl	0, cr0, [r5], {-0}
    1c28:	e000008b 	and	r0, r0, fp, lsl #1
    1c2c:	c1000000 	mrsgt	r0, (UNDEF: 0)
    1c30:	16000002 	strne	r0, [r0], -r2
    1c34:	91035101 	tstls	r3, r1, lsl #2
    1c38:	17007fa0 	strne	r7, [r0, -r0, lsr #31]
    1c3c:	00008b70 	andeq	r8, r0, r0, ror fp
    1c40:	00000130 	andeq	r0, r0, r0, lsr r1
    1c44:	03530116 	cmpeq	r3, #-2147483643	; 0x80000005
    1c48:	167fa091 			; <UNDEFINED> instruction: 0x167fa091
    1c4c:	74025101 	strvc	r5, [r2], #-257	; 0x101
    1c50:	50011600 	andpl	r1, r1, r0, lsl #12
    1c54:	00007502 	andeq	r7, r0, r2, lsl #10
    1c58:	007a1800 	rsbseq	r1, sl, r0, lsl #16
    1c5c:	02ef0000 	rsceq	r0, pc, #0
    1c60:	6b190000 	blvs	641c68 <__bss_end__+0x637ca8>
    1c64:	3f000000 	svccc	0x00000000
    1c68:	007a1800 	rsbseq	r1, sl, r0, lsl #16
    1c6c:	02ff0000 	rscseq	r0, pc, #0
    1c70:	6b190000 	blvs	641c78 <__bss_end__+0x637cb8>
    1c74:	04000000 	streq	r0, [r0], #-0
    1c78:	02ef0600 	rsceq	r0, pc, #0, 12
    1c7c:	901a0000 	andsls	r0, sl, r0
    1c80:	01000005 	tsteq	r0, r5
    1c84:	008b981f 	addeq	r9, fp, pc, lsl r8
    1c88:	00006800 	andeq	r6, r0, r0, lsl #16
    1c8c:	929c0100 	addsls	r0, ip, #0, 2
    1c90:	0d000003 	stceq	0, cr0, [r0, #-12]
    1c94:	000005a5 	andeq	r0, r0, r5, lsr #11
    1c98:	03a11f01 			; <UNDEFINED> instruction: 0x03a11f01
    1c9c:	09070000 	stmdbeq	r7, {}	; <UNPREDICTABLE>
    1ca0:	6e0d0000 	cdpvs	0, 0, cr0, cr13, cr0, {0}
    1ca4:	01000005 	tsteq	r0, r5
    1ca8:	0003b61f 	andeq	fp, r3, pc, lsl r6
    1cac:	00093300 	andeq	r3, r9, r0, lsl #6
    1cb0:	011d1100 	tsteq	sp, r0, lsl #2
    1cb4:	03cc0000 	biceq	r0, ip, #0
    1cb8:	03050000 	movweq	r0, #20480	; 0x5000
    1cbc:	00009958 	andeq	r9, r0, r8, asr r9
    1cc0:	008bac14 	addeq	sl, fp, r4, lsl ip
    1cc4:	0006c400 	andeq	ip, r6, r0, lsl #8
    1cc8:	8bc81500 	blhi	ff2070d0 <__bss_end__+0xff1fd110>
    1ccc:	06cb0000 	strbeq	r0, [fp], r0
    1cd0:	03880000 	orreq	r0, r8, #0
    1cd4:	01160000 	tsteq	r6, r0
    1cd8:	20080253 	andcs	r0, r8, r3, asr r2
    1cdc:	05520116 	ldrbeq	r0, [r2, #-278]	; 0x116
    1ce0:	00995803 	addseq	r5, r9, r3, lsl #16
    1ce4:	51011600 	tstpl	r1, r0, lsl #12
    1ce8:	99740305 	ldmdbls	r4!, {r0, r2, r8, r9}^
    1cec:	01160000 	tsteq	r6, r0
    1cf0:	8c030550 	cfstr32hi	mvfx0, [r3], {80}	; 0x50
    1cf4:	16000095 			; <UNDEFINED> instruction: 0x16000095
    1cf8:	05007d02 	streq	r7, [r0, #-3330]	; 0xd02
    1cfc:	0099b003 	addseq	fp, r9, r3
    1d00:	cc140000 	ldcgt	0, cr0, [r4], {-0}
    1d04:	e100008b 	smlabb	r0, fp, r0, r0
    1d08:	00000006 	andeq	r0, r0, r6
    1d0c:	0000251b 	andeq	r2, r0, fp, lsl r5
    1d10:	0003a100 	andeq	sl, r3, r0, lsl #2
    1d14:	00251c00 	eoreq	r1, r5, r0, lsl #24
    1d18:	05000000 	streq	r0, [r0, #-0]
    1d1c:	00039204 	andeq	r9, r3, r4, lsl #4
    1d20:	00251b00 	eoreq	r1, r5, r0, lsl #22
    1d24:	03b60000 			; <UNDEFINED> instruction: 0x03b60000
    1d28:	811c0000 	tsthi	ip, r0
    1d2c:	00000000 	andeq	r0, r0, r0
    1d30:	03a70405 			; <UNDEFINED> instruction: 0x03a70405
    1d34:	7a180000 	bvc	601d3c <__bss_end__+0x5f7d7c>
    1d38:	cc000000 	stcgt	0, cr0, [r0], {-0}
    1d3c:	19000003 	stmdbne	r0, {r0, r1}
    1d40:	0000006b 	andeq	r0, r0, fp, rrx
    1d44:	bc06000e 	stclt	0, cr0, [r6], {14}
    1d48:	1d000003 	stcne	0, cr0, [r0, #-12]
    1d4c:	00000492 	muleq	r0, r2, r4
    1d50:	00257f01 	eoreq	r7, r5, r1, lsl #30
    1d54:	8c000000 	stchi	0, cr0, [r0], {-0}
    1d58:	02d40000 	sbcseq	r0, r4, #0
    1d5c:	9c010000 	stcls	0, cr0, [r1], {-0}
    1d60:	00000689 	andeq	r0, r0, r9, lsl #13
    1d64:	6675620b 	ldrbtvs	r6, [r5], -fp, lsl #4
    1d68:	747f0100 	ldrbtvc	r0, [pc], #-256	; 1d70 <__code_start__-0x6290>
    1d6c:	5f000000 	svcpl	0x00000000
    1d70:	0b000009 	bleq	1d9c <__code_start__-0x6264>
    1d74:	7f01006e 	svcvc	0x0001006e
    1d78:	00000025 	andeq	r0, r0, r5, lsr #32
    1d7c:	0000098b 	andeq	r0, r0, fp, lsl #19
    1d80:	746d660b 	strbtvc	r6, [sp], #-1547	; 0x60b
    1d84:	817f0100 	cmnhi	pc, r0, lsl #2
    1d88:	b9000000 	stmdblt	r0, {}	; <UNPREDICTABLE>
    1d8c:	0d000009 	stceq	0, cr0, [r0, #-36]	; 0xffffffdc
    1d90:	000009e2 	andeq	r0, r0, r2, ror #19
    1d94:	00ae7f01 	adceq	r7, lr, r1, lsl #30
    1d98:	09d70000 	ldmibeq	r7, {}^	; <UNPREDICTABLE>
    1d9c:	70100000 	andsvc	r0, r0, r0
    1da0:	74800100 	strvc	r0, [r0], #256	; 0x100
    1da4:	ea000000 	b	1dac <__code_start__-0x6254>
    1da8:	10000009 	andne	r0, r0, r9
    1dac:	80010065 	andhi	r0, r1, r5, rrx
    1db0:	00000074 	andeq	r0, r0, r4, ror r0
    1db4:	00000a68 	andeq	r0, r0, r8, ror #20
    1db8:	00054e13 	andeq	r4, r5, r3, lsl lr
    1dbc:	81830100 	orrhi	r0, r3, r0, lsl #2
    1dc0:	8f000000 	svchi	0x00000000
    1dc4:	1100000a 	tstne	r0, sl
    1dc8:	0000011d 	andeq	r0, r0, sp, lsl r1
    1dcc:	00000699 	muleq	r0, r9, r6
    1dd0:	99680305 	stmdbls	r8!, {r0, r2, r8, r9}^
    1dd4:	5c1e0000 	ldcpl	0, cr0, [lr], {-0}
    1dd8:	2c00008c 	stccs	0, cr0, [r0], {140}	; 0x8c
    1ddc:	10000002 	andne	r0, r0, r2
    1de0:	8e010073 	mcrhi	0, 0, r0, cr1, cr3, {3}
    1de4:	00000074 	andeq	r0, r0, r4, ror r0
    1de8:	00000aaf 	andeq	r0, r0, pc, lsr #21
    1dec:	6d756e0f 	ldclvs	14, cr6, [r5, #-60]!	; 0xffffffc4
    1df0:	9e8e0100 	rmflse	f0, f6, f0
    1df4:	03000006 	movweq	r0, #6
    1df8:	137ed891 	cmnne	lr, #9502720	; 0x910000
    1dfc:	0000059f 	muleq	r0, pc, r5	; <UNPREDICTABLE>
    1e00:	002c8f01 	eoreq	r8, ip, r1, lsl #30
    1e04:	0b040000 	bleq	101e0c <__bss_end__+0xf7e4c>
    1e08:	8c150000 	ldchi	0, cr0, [r5], {-0}
    1e0c:	b900008c 	stmdblt	r0, {r2, r3, r7}
    1e10:	a4000000 	strge	r0, [r0], #-0
    1e14:	16000004 	strne	r0, [r0], -r4
    1e18:	75025001 	strvc	r5, [r2, #-1]
    1e1c:	a0140000 	andsge	r0, r4, r0
    1e20:	c400008c 	strgt	r0, [r0], #-140	; 0x8c
    1e24:	15000006 	strne	r0, [r0, #-6]
    1e28:	00008cbc 			; <UNDEFINED> instruction: 0x00008cbc
    1e2c:	000006cb 	andeq	r0, r0, fp, asr #13
    1e30:	000004e6 	andeq	r0, r0, r6, ror #9
    1e34:	02530116 	subseq	r0, r3, #-2147483643	; 0x80000005
    1e38:	01169508 	tsteq	r6, r8, lsl #10
    1e3c:	68030552 	stmdavs	r3, {r1, r4, r6, r8, sl}
    1e40:	16000099 			; <UNDEFINED> instruction: 0x16000099
    1e44:	03055101 	movweq	r5, #20737	; 0x5101
    1e48:	00009974 	andeq	r9, r0, r4, ror r9
    1e4c:	05500116 	ldrbeq	r0, [r0, #-278]	; 0x116
    1e50:	00958c03 	addseq	r8, r5, r3, lsl #24
    1e54:	7d021600 	stcvc	6, cr1, [r2, #-0]
    1e58:	b8030500 	stmdalt	r3, {r8, sl}
    1e5c:	00000099 	muleq	r0, r9, r0
    1e60:	008cc014 	addeq	ip, ip, r4, lsl r0
    1e64:	0006e100 	andeq	lr, r6, r0, lsl #2
    1e68:	8d301400 	cfldrshi	mvf1, [r0, #-0]
    1e6c:	06c40000 	strbeq	r0, [r4], r0
    1e70:	44150000 	ldrmi	r0, [r5], #-0
    1e74:	cb00008d 	blgt	20b0 <__code_start__-0x5f50>
    1e78:	27000006 	strcs	r0, [r0, -r6]
    1e7c:	16000005 	strne	r0, [r0], -r5
    1e80:	08025301 	stmdaeq	r2, {r0, r8, r9, ip, lr}
    1e84:	5201169b 	andpl	r1, r1, #162529280	; 0x9b00000
    1e88:	99680305 	stmdbls	r8!, {r0, r2, r8, r9}^
    1e8c:	01160000 	tsteq	r6, r0
    1e90:	74030551 	strvc	r0, [r3], #-1361	; 0x551
    1e94:	16000099 			; <UNDEFINED> instruction: 0x16000099
    1e98:	03055001 	movweq	r5, #20481	; 0x5001
    1e9c:	000099c4 	andeq	r9, r0, r4, asr #19
    1ea0:	8d481400 	cfstrdhi	mvd1, [r8, #-0]
    1ea4:	06e10000 	strbteq	r0, [r1], r0
    1ea8:	6c150000 	ldcvs	0, cr0, [r5], {-0}
    1eac:	9c00008d 	stcls	0, cr0, [r0], {141}	; 0x8d
    1eb0:	5d000001 	stcpl	0, cr0, [r0, #-4]
    1eb4:	16000005 	strne	r0, [r0], -r5
    1eb8:	08025201 	stmdaeq	r2, {r0, r9, ip, lr}
    1ebc:	51011680 	smlabbpl	r1, r0, r6, r1
    1ec0:	7ed09103 	atnvcs	f1, f3
    1ec4:	01500116 	cmpeq	r0, r6, lsl r1
    1ec8:	7d02163a 	stcvc	6, cr1, [r2, #-232]	; 0xffffff18
    1ecc:	16310104 	ldrtne	r0, [r1], -r4, lsl #2
    1ed0:	02007d02 	andeq	r7, r0, #2, 26	; 0x80
    1ed4:	15000077 	strne	r0, [r0, #-119]	; 0x77
    1ed8:	00008d94 	muleq	r0, r4, sp
    1edc:	0000019c 	muleq	r0, ip, r1
    1ee0:	0000058a 	andeq	r0, r0, sl, lsl #11
    1ee4:	02520116 	subseq	r0, r2, #-2147483643	; 0x80000005
    1ee8:	01168008 	tsteq	r6, r8
    1eec:	d0910351 	addsle	r0, r1, r1, asr r3
    1ef0:	5001167e 	andpl	r1, r1, lr, ror r6
    1ef4:	02163a01 	andseq	r3, r6, #4096	; 0x1000
    1ef8:	3001047d 	andcc	r0, r1, sp, ror r4
    1efc:	007d0216 	rsbseq	r0, sp, r6, lsl r2
    1f00:	00007702 	andeq	r7, r0, r2, lsl #14
    1f04:	008dbc15 	addeq	fp, sp, r5, lsl ip
    1f08:	00019c00 	andeq	r9, r1, r0, lsl #24
    1f0c:	0005b700 	andeq	fp, r5, r0, lsl #14
    1f10:	52011600 	andpl	r1, r1, #0, 12
    1f14:	16800802 	strne	r0, [r0], r2, lsl #16
    1f18:	91035101 	tstls	r3, r1, lsl #2
    1f1c:	01167ed0 			; <UNDEFINED> instruction: 0x01167ed0
    1f20:	16400150 			; <UNDEFINED> instruction: 0x16400150
    1f24:	01047d02 	tsteq	r4, r2, lsl #26
    1f28:	7d021630 	stcvc	6, cr1, [r2, #-192]	; 0xffffff40
    1f2c:	00770200 	rsbseq	r0, r7, r0, lsl #4
    1f30:	8de41500 	cfstr64hi	mvdx1, [r4]
    1f34:	019c0000 	orrseq	r0, ip, r0
    1f38:	05e40000 	strbeq	r0, [r4, #0]!
    1f3c:	01160000 	tsteq	r6, r0
    1f40:	80080252 	andhi	r0, r8, r2, asr r2
    1f44:	03510116 	cmpeq	r1, #-2147483643	; 0x80000005
    1f48:	167ed091 			; <UNDEFINED> instruction: 0x167ed091
    1f4c:	32015001 	andcc	r5, r1, #1
    1f50:	047d0216 	ldrbteq	r0, [sp], #-534	; 0x216
    1f54:	02163001 	andseq	r3, r6, #1
    1f58:	7702007d 	smlsdxvc	r2, sp, r0, r0
    1f5c:	18150000 	ldmdane	r5, {}	; <UNPREDICTABLE>
    1f60:	9c00008e 	stcls	0, cr0, [r0], {142}	; 0x8e
    1f64:	11000001 	tstne	r0, r1
    1f68:	16000006 	strne	r0, [r0], -r6
    1f6c:	08025201 	stmdaeq	r2, {r0, r9, ip, lr}
    1f70:	51011680 	smlabbpl	r1, r0, r6, r1
    1f74:	7ed09103 	atnvcs	f1, f3
    1f78:	01500116 	cmpeq	r0, r6, lsl r1
    1f7c:	7d021638 	stcvc	6, cr1, [r2, #-224]	; 0xffffff20
    1f80:	16300104 	ldrtne	r0, [r0], -r4, lsl #2
    1f84:	02007d02 	andeq	r7, r0, #2, 26	; 0x80
    1f88:	15000077 	strne	r0, [r0, #-119]	; 0x77
    1f8c:	00008e34 	andeq	r8, r0, r4, lsr lr
    1f90:	000006cb 	andeq	r0, r0, fp, asr #13
    1f94:	00000634 	andeq	r0, r0, r4, lsr r6
    1f98:	02520116 	subseq	r0, r2, #-2147483643	; 0x80000005
    1f9c:	01160079 	tsteq	r6, r9, ror r0
    1fa0:	00790251 	rsbseq	r0, r9, r1, asr r2
    1fa4:	05500116 	ldrbeq	r0, [r0, #-278]	; 0x116
    1fa8:	0099ec03 	addseq	lr, r9, r3, lsl #24
    1fac:	441f0000 	ldrmi	r0, [pc], #-0	; 1fb4 <__code_start__-0x604c>
    1fb0:	4600008e 	strmi	r0, [r0], -lr, lsl #1
    1fb4:	16000006 	strne	r0, [r0], -r6
    1fb8:	91045001 	tstls	r4, r1
    1fbc:	00067ecc 	andeq	r7, r6, ip, asr #29
    1fc0:	008e4814 	addeq	r4, lr, r4, lsl r8
    1fc4:	0006c400 	andeq	ip, r6, r0, lsl #8
    1fc8:	8e5c1500 	cdphi	5, 5, cr1, cr12, cr0, {0}
    1fcc:	06cb0000 	strbeq	r0, [fp], r0
    1fd0:	067e0000 	ldrbteq	r0, [lr], -r0
    1fd4:	01160000 	tsteq	r6, r0
    1fd8:	bf080253 	svclt	0x00080253
    1fdc:	05520116 	ldrbeq	r0, [r2, #-278]	; 0x116
    1fe0:	00996803 	addseq	r6, r9, r3, lsl #16
    1fe4:	51011600 	tstpl	r1, r0, lsl #12
    1fe8:	99740305 	ldmdbls	r4!, {r0, r2, r8, r9}^
    1fec:	01160000 	tsteq	r6, r0
    1ff0:	1c030550 	cfstr32ne	mvfx0, [r3], {80}	; 0x50
    1ff4:	0000009a 	muleq	r0, sl, r0
    1ff8:	008e6014 	addeq	r6, lr, r4, lsl r0
    1ffc:	0006e100 	andeq	lr, r6, r0, lsl #2
    2000:	18000000 	stmdane	r0, {}	; <UNPREDICTABLE>
    2004:	0000007a 	andeq	r0, r0, sl, ror r0
    2008:	00000699 	muleq	r0, r9, r6
    200c:	00006b19 	andeq	r6, r0, r9, lsl fp
    2010:	06000900 	streq	r0, [r0], -r0, lsl #18
    2014:	00000689 	andeq	r0, r0, r9, lsl #13
    2018:	00007a18 	andeq	r7, r0, r8, lsl sl
    201c:	0006ae00 	andeq	sl, r6, r0, lsl #28
    2020:	006b1900 	rsbeq	r1, fp, r0, lsl #18
    2024:	007f0000 	rsbseq	r0, pc, r0
    2028:	00050c20 	andeq	r0, r5, r0, lsr #24
    202c:	a11d0300 	tstge	sp, r0, lsl #6
    2030:	20000003 	andcs	r0, r0, r3
    2034:	00000549 	andeq	r0, r0, r9, asr #10
    2038:	03b62203 			; <UNDEFINED> instruction: 0x03b62203
    203c:	67210000 	strvs	r0, [r1, -r0]!
    2040:	03000002 	movweq	r0, #2
    2044:	0495221e 	ldreq	r2, [r5], #542	; 0x21e
    2048:	29030000 	stmdbcs	r3, {}	; <UNPREDICTABLE>
    204c:	00000025 	andeq	r0, r0, r5, lsr #32
    2050:	000006e1 	andeq	r0, r0, r1, ror #13
    2054:	0000811c 	andeq	r8, r0, ip, lsl r1
    2058:	21002300 	mrscs	r2, LR_irq
    205c:	000000f0 	strdeq	r0, [r0], -r0	; <UNPREDICTABLE>
    2060:	b8006503 	stmdalt	r0, {r0, r1, r8, sl, sp, lr}
    2064:	04000000 	streq	r0, [r0], #-0
    2068:	00095a00 	andeq	r5, r9, r0, lsl #20
    206c:	3b010400 	blcc	43074 <__bss_end__+0x390b4>
    2070:	01000004 	tsteq	r0, r4
    2074:	000005c0 	andeq	r0, r0, r0, asr #11
    2078:	000004a6 	andeq	r0, r0, r6, lsr #9
    207c:	00008ed4 	ldrdeq	r8, [r0], -r4
    2080:	00000020 	andeq	r0, r0, r0, lsr #32
    2084:	00000810 	andeq	r0, r0, r0, lsl r8
    2088:	69050402 	stmdbvs	r5, {r1, sl}
    208c:	0300746e 	movweq	r7, #1134	; 0x46e
    2090:	01cc0704 	biceq	r0, ip, r4, lsl #14
    2094:	01030000 	mrseq	r0, (UNDEF: 3)
    2098:	0000e406 	andeq	lr, r0, r6, lsl #8
    209c:	05020300 	streq	r0, [r2, #-768]	; 0x300
    20a0:	00000220 	andeq	r0, r0, r0, lsr #4
    20a4:	00050403 	andeq	r0, r5, r3, lsl #8
    20a8:	03000002 	movweq	r0, #2
    20ac:	01fb0508 	mvnseq	r0, r8, lsl #10
    20b0:	01030000 	mrseq	r0, (UNDEF: 3)
    20b4:	0000e208 	andeq	lr, r0, r8, lsl #4
    20b8:	07020300 	streq	r0, [r2, -r0, lsl #6]
    20bc:	0000004b 	andeq	r0, r0, fp, asr #32
    20c0:	c7070403 	strgt	r0, [r7, -r3, lsl #8]
    20c4:	03000001 	movweq	r0, #1
    20c8:	01c20708 	biceq	r0, r2, r8, lsl #14
    20cc:	04030000 	streq	r0, [r3], #-0
    20d0:	0001e807 	andeq	lr, r1, r7, lsl #16
    20d4:	08010300 	stmdaeq	r1, {r8, r9}
    20d8:	000000eb 	andeq	r0, r0, fp, ror #1
    20dc:	00020e04 	andeq	r0, r2, r4, lsl #28
    20e0:	d4030100 	strle	r0, [r3], #-256	; 0x100
    20e4:	1000008e 	andne	r0, r0, lr, lsl #1
    20e8:	01000000 	mrseq	r0, (UNDEF: 0)
    20ec:	00009c9c 	muleq	r0, ip, ip
    20f0:	00720500 	rsbseq	r0, r2, r0, lsl #10
    20f4:	002c0401 	eoreq	r0, ip, r1, lsl #8
    20f8:	0b2e0000 	bleq	b82100 <__bss_end__+0xb78140>
    20fc:	06000000 	streq	r0, [r0], -r0
    2100:	000005b2 			; <UNDEFINED> instruction: 0x000005b2
    2104:	8ee40c01 	cdphi	12, 14, cr0, cr4, cr1, {0}
    2108:	00100000 	andseq	r0, r0, r0
    210c:	9c010000 	stcls	0, cr0, [r1], {-0}
    2110:	01007205 	tsteq	r0, r5, lsl #4
    2114:	00002c0d 	andeq	r2, r0, sp, lsl #24
    2118:	000b5200 	andeq	r5, fp, r0, lsl #4
    211c:	0f000000 	svceq	0x00000000
    2120:	04000001 	streq	r0, [r0], #-1
    2124:	0009c500 	andeq	ip, r9, r0, lsl #10
    2128:	3b010400 	blcc	43130 <__bss_end__+0x39170>
    212c:	01000004 	tsteq	r0, r4
    2130:	000005e1 	andeq	r0, r0, r1, ror #11
    2134:	000004a6 	andeq	r0, r0, r6, lsr #9
    2138:	00008ef4 	strdeq	r8, [r0], -r4
    213c:	0000002c 	andeq	r0, r0, ip, lsr #32
    2140:	00000856 	andeq	r0, r0, r6, asr r8
    2144:	69050402 	stmdbvs	r5, {r1, sl}
    2148:	0300746e 	movweq	r7, #1134	; 0x46e
    214c:	01cc0704 	biceq	r0, ip, r4, lsl #14
    2150:	01030000 	mrseq	r0, (UNDEF: 3)
    2154:	0000e406 	andeq	lr, r0, r6, lsl #8
    2158:	05020300 	streq	r0, [r2, #-768]	; 0x300
    215c:	00000220 	andeq	r0, r0, r0, lsr #4
    2160:	00050403 	andeq	r0, r5, r3, lsl #8
    2164:	03000002 	movweq	r0, #2
    2168:	01fb0508 	mvnseq	r0, r8, lsl #10
    216c:	01030000 	mrseq	r0, (UNDEF: 3)
    2170:	0000e208 	andeq	lr, r0, r8, lsl #4
    2174:	07020300 	streq	r0, [r2, -r0, lsl #6]
    2178:	0000004b 	andeq	r0, r0, fp, asr #32
    217c:	c7070403 	strgt	r0, [r7, -r3, lsl #8]
    2180:	03000001 	movweq	r0, #1
    2184:	01c20708 	biceq	r0, r2, r8, lsl #14
    2188:	04030000 	streq	r0, [r3], #-0
    218c:	0001e807 	andeq	lr, r1, r7, lsl #16
    2190:	08010300 	stmdaeq	r1, {r8, r9}
    2194:	000000eb 	andeq	r0, r0, fp, ror #1
    2198:	007f0404 	rsbseq	r0, pc, r4, lsl #8
    219c:	72050000 	andvc	r0, r5, #0
    21a0:	06000000 	streq	r0, [r0], -r0
    21a4:	000000f0 	strdeq	r0, [r0], -r0	; <UNPREDICTABLE>
    21a8:	8ef40401 	cdphi	4, 15, cr0, cr4, cr1, {0}
    21ac:	002c0000 	eoreq	r0, ip, r0
    21b0:	9c010000 	stcls	0, cr0, [r1], {-0}
    21b4:	000000d3 	ldrdeq	r0, [r0], -r3
    21b8:	008efc07 	addeq	pc, lr, r7, lsl #24
    21bc:	0000f300 	andeq	pc, r0, r0, lsl #6
    21c0:	8f0c0800 	svchi	0x000c0800
    21c4:	00b50000 	adcseq	r0, r5, r0
    21c8:	01090000 	mrseq	r0, (UNDEF: 9)
    21cc:	3c030550 	cfstr32cc	mvfx0, [r3], {80}	; 0x50
    21d0:	0000009a 	muleq	r0, sl, r0
    21d4:	008f140a 	addeq	r1, pc, sl, lsl #8
    21d8:	0000fa00 	andeq	pc, r0, r0, lsl #20
    21dc:	0000c900 	andeq	ip, r0, r0, lsl #18
    21e0:	50010900 	andpl	r0, r1, r0, lsl #18
    21e4:	00640802 	rsbeq	r0, r4, r2, lsl #16
    21e8:	008f1807 	addeq	r1, pc, r7, lsl #16
    21ec:	00010b00 	andeq	r0, r1, r0, lsl #22
    21f0:	250b0000 	strcs	r0, [fp, #-0]
    21f4:	e2000000 	and	r0, r0, #0
    21f8:	0c000000 	stceq	0, cr0, [r0], {-0}
    21fc:	00000079 	andeq	r0, r0, r9, ror r0
    2200:	05490d00 	strbeq	r0, [r9, #-3328]	; 0xd00
    2204:	22020000 	andcs	r0, r2, #0
    2208:	000000ed 	andeq	r0, r0, sp, ror #1
    220c:	00d30404 	sbcseq	r0, r3, r4, lsl #8
    2210:	d20e0000 	andle	r0, lr, #0
    2214:	02000005 	andeq	r0, r0, #5
    2218:	06050fdc 			; <UNDEFINED> instruction: 0x06050fdc
    221c:	4f020000 	svcmi	0x00020000
    2220:	0000010b 	andeq	r0, r0, fp, lsl #2
    2224:	00002c0c 	andeq	r2, r0, ip, lsl #24
    2228:	fa0e0000 	blx	382230 <__bss_end__+0x378270>
    222c:	02000005 	andeq	r0, r0, #5
    2230:	010f0062 	tsteq	pc, r2, rrx
    2234:	00040000 	andeq	r0, r4, r0
    2238:	00000a8f 	andeq	r0, r0, pc, lsl #21
    223c:	043b0104 	ldrteq	r0, [fp], #-260	; 0x104
    2240:	47010000 	strmi	r0, [r1, -r0]
    2244:	a6000006 	strge	r0, [r0], -r6
    2248:	20000004 	andcs	r0, r0, r4
    224c:	3800008f 	stmdacc	r0, {r0, r1, r2, r3, r7}
    2250:	f7000000 			; <UNDEFINED> instruction: 0xf7000000
    2254:	02000008 	andeq	r0, r0, #8
    2258:	6e690504 	cdpvs	5, 6, cr0, cr9, cr4, {0}
    225c:	04030074 	streq	r0, [r3], #-116	; 0x74
    2260:	0001cc07 	andeq	ip, r1, r7, lsl #24
    2264:	06010300 	streq	r0, [r1], -r0, lsl #6
    2268:	000000e4 	andeq	r0, r0, r4, ror #1
    226c:	20050203 	andcs	r0, r5, r3, lsl #4
    2270:	03000002 	movweq	r0, #2
    2274:	02000504 	andeq	r0, r0, #4, 10	; 0x1000000
    2278:	08030000 	stmdaeq	r3, {}	; <UNPREDICTABLE>
    227c:	0001fb05 	andeq	pc, r1, r5, lsl #22
    2280:	08010300 	stmdaeq	r1, {r8, r9}
    2284:	000000e2 	andeq	r0, r0, r2, ror #1
    2288:	4b070203 	blmi	1c2a9c <__bss_end__+0x1b8adc>
    228c:	03000000 	movweq	r0, #0
    2290:	01c70704 	biceq	r0, r7, r4, lsl #14
    2294:	08030000 	stmdaeq	r3, {}	; <UNPREDICTABLE>
    2298:	0001c207 	andeq	ip, r1, r7, lsl #4
    229c:	07040300 	streq	r0, [r4, -r0, lsl #6]
    22a0:	000001e8 	andeq	r0, r0, r8, ror #3
    22a4:	eb080103 	bl	2026b8 <__bss_end__+0x1f86f8>
    22a8:	04000000 	streq	r0, [r0], #-0
    22ac:	0000063f 	andeq	r0, r0, pc, lsr r6
    22b0:	8f200d01 	svchi	0x00200d01
    22b4:	00380000 	eorseq	r0, r8, r0
    22b8:	9c010000 	stcls	0, cr0, [r1], {-0}
    22bc:	000000e1 	andeq	r0, r0, r1, ror #1
    22c0:	00060e05 	andeq	r0, r6, r5, lsl #28
    22c4:	250e0100 	strcs	r0, [lr, #-256]	; 0x100
    22c8:	05000000 	streq	r0, [r0, #-0]
    22cc:	0000061c 	andeq	r0, r0, ip, lsl r6
    22d0:	00250e01 	eoreq	r0, r5, r1, lsl #28
    22d4:	bc060000 	stclt	0, cr0, [r6], {-0}
    22d8:	01000000 	mrseq	r0, (UNDEF: 0)
    22dc:	7362070f 	cmnvc	r2, #3932160	; 0x3c0000
    22e0:	11010073 	tstne	r1, r3, ror r0
    22e4:	000000e1 	andeq	r0, r0, r1, ror #1
    22e8:	00000b76 	andeq	r0, r0, r6, ror fp
    22ec:	00063708 	andeq	r3, r6, r8, lsl #14
    22f0:	e1120100 	tst	r2, r0, lsl #2
    22f4:	09000000 	stmdbeq	r0, {}	; <UNPREDICTABLE>
    22f8:	00008f48 	andeq	r8, r0, r8, asr #30
    22fc:	000000fd 	strdeq	r0, [r0], -sp
    2300:	008f4c09 	addeq	r4, pc, r9, lsl #24
    2304:	00010400 	andeq	r0, r1, r0, lsl #8
    2308:	8f500900 	svchi	0x00500900
    230c:	010b0000 	mrseq	r0, (UNDEF: 11)
    2310:	0a000000 	beq	2318 <__code_start__-0x5ce8>
    2314:	00002504 	andeq	r2, r0, r4, lsl #10
    2318:	060e0500 	streq	r0, [lr], -r0, lsl #10
    231c:	0e010000 	cdpeq	0, 0, cr0, cr1, cr0, {0}
    2320:	00000025 	andeq	r0, r0, r5, lsr #32
    2324:	00061c05 	andeq	r1, r6, r5, lsl #24
    2328:	250e0100 	strcs	r0, [lr, #-256]	; 0x100
    232c:	06000000 	streq	r0, [r0], -r0
    2330:	00000628 	andeq	r0, r0, r8, lsr #12
    2334:	bc06da02 	stclt	10, cr13, [r6], {2}
    2338:	02000000 	andeq	r0, r0, #0
    233c:	00f006d7 	ldrsbteq	r0, [r0], #103	; 0x67
    2340:	65020000 	strvs	r0, [r2, #-0]
    2344:	00013e00 	andeq	r3, r1, r0, lsl #28
    2348:	23000400 	movwcs	r0, #1024	; 0x400
    234c:	0400000b 	streq	r0, [r0], #-11
    2350:	00043b01 	andeq	r3, r4, r1, lsl #22
    2354:	065a0100 	ldrbeq	r0, [sl], -r0, lsl #2
    2358:	04a60000 	strteq	r0, [r6], #0
    235c:	8f580000 	svchi	0x00580000
    2360:	00440000 	subeq	r0, r4, r0
    2364:	09a10000 	stmibeq	r1!, {}	; <UNPREDICTABLE>
    2368:	04020000 	streq	r0, [r2], #-0
    236c:	746e6905 	strbtvc	r6, [lr], #-2309	; 0x905
    2370:	07040300 	streq	r0, [r4, -r0, lsl #6]
    2374:	000001cc 	andeq	r0, r0, ip, asr #3
    2378:	e4060103 	str	r0, [r6], #-259	; 0x103
    237c:	03000000 	movweq	r0, #0
    2380:	02200502 	eoreq	r0, r0, #8388608	; 0x800000
    2384:	04030000 	streq	r0, [r3], #-0
    2388:	00020005 	andeq	r0, r2, r5
    238c:	05080300 	streq	r0, [r8, #-768]	; 0x300
    2390:	000001fb 	strdeq	r0, [r0], -fp
    2394:	e2080103 	and	r0, r8, #-1073741824	; 0xc0000000
    2398:	03000000 	movweq	r0, #0
    239c:	004b0702 	subeq	r0, fp, r2, lsl #14
    23a0:	04030000 	streq	r0, [r3], #-0
    23a4:	0001c707 	andeq	ip, r1, r7, lsl #14
    23a8:	07080300 	streq	r0, [r8, -r0, lsl #6]
    23ac:	000001c2 	andeq	r0, r0, r2, asr #3
    23b0:	e8070403 	stmda	r7, {r0, r1, sl}
    23b4:	03000001 	movweq	r0, #1
    23b8:	00eb0801 	rsceq	r0, fp, r1, lsl #16
    23bc:	04040000 	streq	r0, [r4], #-0
    23c0:	0000007f 	andeq	r0, r0, pc, ror r0
    23c4:	00007205 	andeq	r7, r0, r5, lsl #4
    23c8:	067b0600 	ldrbteq	r0, [fp], -r0, lsl #12
    23cc:	02010000 	andeq	r0, r1, #0
    23d0:	00008f58 	andeq	r8, r0, r8, asr pc
    23d4:	00000044 	andeq	r0, r0, r4, asr #32
    23d8:	01089c01 	tsteq	r8, r1, lsl #24
    23dc:	70070000 	andvc	r0, r7, r0
    23e0:	02010063 	andeq	r0, r1, #99	; 0x63
    23e4:	0000002c 	andeq	r0, r0, ip, lsr #32
    23e8:	00000b96 	muleq	r0, r6, fp
    23ec:	00011d08 	andeq	r1, r1, r8, lsl #26
    23f0:	00011800 	andeq	r1, r1, r0, lsl #16
    23f4:	48030500 	stmdami	r3, {r8, sl}
    23f8:	0900009a 	stmdbeq	r0, {r1, r3, r4, r7}
    23fc:	00008f68 	andeq	r8, r0, r8, ror #30
    2400:	0000011d 	andeq	r0, r0, sp, lsl r1
    2404:	008f880a 	addeq	r8, pc, sl, lsl #16
    2408:	00012400 	andeq	r2, r1, r0, lsl #8
    240c:	0000fe00 	andeq	pc, r0, r0, lsl #28
    2410:	53010b00 	movwpl	r0, #6912	; 0x1b00
    2414:	010b3201 	tsteq	fp, r1, lsl #4
    2418:	48030552 	stmdami	r3, {r1, r4, r6, r8, sl}
    241c:	0b00009a 	bleq	268c <__code_start__-0x5974>
    2420:	03055101 	movweq	r5, #20737	; 0x5101
    2424:	00009a9c 	muleq	r0, ip, sl
    2428:	0550010b 	ldrbeq	r0, [r0, #-267]	; 0x10b
    242c:	009a6003 	addseq	r6, sl, r3
    2430:	7d020b00 	vstrvc	d0, [r2, #-0]
    2434:	00740204 	rsbseq	r0, r4, r4, lsl #4
    2438:	007d020b 	rsbseq	r0, sp, fp, lsl #4
    243c:	9ac00305 	bls	ff003058 <__bss_end__+0xfeff9098>
    2440:	09000000 	stmdbeq	r0, {}	; <UNPREDICTABLE>
    2444:	00008f8c 	andeq	r8, r0, ip, lsl #31
    2448:	0000013a 	andeq	r0, r0, sl, lsr r1
    244c:	00720c00 	rsbseq	r0, r2, r0, lsl #24
    2450:	01180000 	tsteq	r8, r0
    2454:	6b0d0000 	blvs	34245c <__bss_end__+0x33849c>
    2458:	15000000 	strne	r0, [r0, #-0]
    245c:	01080500 	tsteq	r8, r0, lsl #10
    2460:	670e0000 	strvs	r0, [lr, -r0]
    2464:	02000002 	andeq	r0, r0, #2
    2468:	04950f1e 	ldreq	r0, [r5], #3870	; 0xf1e
    246c:	29020000 	stmdbcs	r2, {}	; <UNPREDICTABLE>
    2470:	00000025 	andeq	r0, r0, r5, lsr #32
    2474:	0000013a 	andeq	r0, r0, sl, lsr r1
    2478:	00007910 	andeq	r7, r0, r0, lsl r9
    247c:	0e001100 	adfeqs	f1, f0, f0
    2480:	000000f0 	strdeq	r0, [r0], -r0	; <UNPREDICTABLE>
    2484:	3e006502 	cfsh32cc	mvfx6, mvfx0, #2
    2488:	04000001 	streq	r0, [r0], #-1
    248c:	000bfb00 	andeq	pc, fp, r0, lsl #22
    2490:	3b010400 	blcc	43498 <__bss_end__+0x394d8>
    2494:	01000004 	tsteq	r0, r4
    2498:	0000069e 	muleq	r0, lr, r6
    249c:	000004a6 	andeq	r0, r0, r6, lsr #9
    24a0:	00008f9c 	muleq	r0, ip, pc	; <UNPREDICTABLE>
    24a4:	00000044 	andeq	r0, r0, r4, asr #32
    24a8:	00000a47 	andeq	r0, r0, r7, asr #20
    24ac:	69050402 	stmdbvs	r5, {r1, sl}
    24b0:	0300746e 	movweq	r7, #1134	; 0x46e
    24b4:	01cc0704 	biceq	r0, ip, r4, lsl #14
    24b8:	01030000 	mrseq	r0, (UNDEF: 3)
    24bc:	0000e406 	andeq	lr, r0, r6, lsl #8
    24c0:	05020300 	streq	r0, [r2, #-768]	; 0x300
    24c4:	00000220 	andeq	r0, r0, r0, lsr #4
    24c8:	00050403 	andeq	r0, r5, r3, lsl #8
    24cc:	03000002 	movweq	r0, #2
    24d0:	01fb0508 	mvnseq	r0, r8, lsl #10
    24d4:	01030000 	mrseq	r0, (UNDEF: 3)
    24d8:	0000e208 	andeq	lr, r0, r8, lsl #4
    24dc:	07020300 	streq	r0, [r2, -r0, lsl #6]
    24e0:	0000004b 	andeq	r0, r0, fp, asr #32
    24e4:	c7070403 	strgt	r0, [r7, -r3, lsl #8]
    24e8:	03000001 	movweq	r0, #1
    24ec:	01c20708 	biceq	r0, r2, r8, lsl #14
    24f0:	04030000 	streq	r0, [r3], #-0
    24f4:	0001e807 	andeq	lr, r1, r7, lsl #16
    24f8:	08010300 	stmdaeq	r1, {r8, r9}
    24fc:	000000eb 	andeq	r0, r0, fp, ror #1
    2500:	007f0404 	rsbseq	r0, pc, r4, lsl #8
    2504:	72050000 	andvc	r0, r5, #0
    2508:	06000000 	streq	r0, [r0], -r0
    250c:	00000691 	muleq	r0, r1, r6
    2510:	8f9c0201 	svchi	0x009c0201
    2514:	00440000 	subeq	r0, r4, r0
    2518:	9c010000 	stcls	0, cr0, [r1], {-0}
    251c:	00000108 	andeq	r0, r0, r8, lsl #2
    2520:	00637007 	rsbeq	r7, r3, r7
    2524:	002c0201 	eoreq	r0, ip, r1, lsl #4
    2528:	0bb40000 	bleq	fed02530 <__bss_end__+0xfecf8570>
    252c:	1d080000 	stcne	0, cr0, [r8, #-0]
    2530:	18000001 	stmdane	r0, {r0}
    2534:	05000001 	streq	r0, [r0, #-1]
    2538:	009ac803 	addseq	ip, sl, r3, lsl #16
    253c:	8fac0900 	svchi	0x00ac0900
    2540:	011d0000 	tsteq	sp, r0
    2544:	cc0a0000 	stcgt	0, cr0, [sl], {-0}
    2548:	2400008f 	strcs	r0, [r0], #-143	; 0x8f
    254c:	fe000001 	cdp2	0, 0, cr0, cr0, cr1, {0}
    2550:	0b000000 	bleq	2558 <__code_start__-0x5aa8>
    2554:	32015301 	andcc	r5, r1, #67108864	; 0x4000000
    2558:	0552010b 	ldrbeq	r0, [r2, #-267]	; 0x10b
    255c:	009ac803 	addseq	ip, sl, r3, lsl #16
    2560:	51010b00 	tstpl	r1, r0, lsl #22
    2564:	9ad80305 	bls	ff603180 <__bss_end__+0xff5f91c0>
    2568:	010b0000 	mrseq	r0, (UNDEF: 11)
    256c:	60030550 	andvs	r0, r3, r0, asr r5
    2570:	0b00009a 	bleq	27e0 <__code_start__-0x5820>
    2574:	02047d02 	andeq	r7, r4, #2, 26	; 0x80
    2578:	020b0074 	andeq	r0, fp, #116	; 0x74
    257c:	0305007d 	movweq	r0, #20605	; 0x507d
    2580:	00009afc 	strdeq	r9, [r0], -ip
    2584:	8fd00900 	svchi	0x00d00900
    2588:	013a0000 	teqeq	sl, r0
    258c:	0c000000 	stceq	0, cr0, [r0], {-0}
    2590:	00000072 	andeq	r0, r0, r2, ror r0
    2594:	00000118 	andeq	r0, r0, r8, lsl r1
    2598:	00006b0d 	andeq	r6, r0, sp, lsl #22
    259c:	05000c00 	streq	r0, [r0, #-3072]	; 0xc00
    25a0:	00000108 	andeq	r0, r0, r8, lsl #2
    25a4:	0002670e 	andeq	r6, r2, lr, lsl #14
    25a8:	0f1e0200 	svceq	0x001e0200
    25ac:	00000495 	muleq	r0, r5, r4
    25b0:	00252902 	eoreq	r2, r5, r2, lsl #18
    25b4:	013a0000 	teqeq	sl, r0
    25b8:	79100000 	ldmdbvc	r0, {}	; <UNPREDICTABLE>
    25bc:	11000000 	mrsne	r0, (UNDEF: 0)
    25c0:	00f00e00 	rscseq	r0, r0, r0, lsl #28
    25c4:	65020000 	strvs	r0, [r2, #-0]
    25c8:	00013e00 	andeq	r3, r1, r0, lsl #28
    25cc:	d3000400 	movwle	r0, #1024	; 0x400
    25d0:	0400000c 	streq	r0, [r0], #-12
    25d4:	00043b01 	andeq	r3, r4, r1, lsl #22
    25d8:	06c00100 	strbeq	r0, [r0], r0, lsl #2
    25dc:	04a60000 	strteq	r0, [r6], #0
    25e0:	8fe00000 	svchi	0x00e00000
    25e4:	00440000 	subeq	r0, r4, r0
    25e8:	0aee0000 	beq	ffb825f0 <__bss_end__+0xffb78630>
    25ec:	04020000 	streq	r0, [r2], #-0
    25f0:	746e6905 	strbtvc	r6, [lr], #-2309	; 0x905
    25f4:	07040300 	streq	r0, [r4, -r0, lsl #6]
    25f8:	000001cc 	andeq	r0, r0, ip, asr #3
    25fc:	e4060103 	str	r0, [r6], #-259	; 0x103
    2600:	03000000 	movweq	r0, #0
    2604:	02200502 	eoreq	r0, r0, #8388608	; 0x800000
    2608:	04030000 	streq	r0, [r3], #-0
    260c:	00020005 	andeq	r0, r2, r5
    2610:	05080300 	streq	r0, [r8, #-768]	; 0x300
    2614:	000001fb 	strdeq	r0, [r0], -fp
    2618:	e2080103 	and	r0, r8, #-1073741824	; 0xc0000000
    261c:	03000000 	movweq	r0, #0
    2620:	004b0702 	subeq	r0, fp, r2, lsl #14
    2624:	04030000 	streq	r0, [r3], #-0
    2628:	0001c707 	andeq	ip, r1, r7, lsl #14
    262c:	07080300 	streq	r0, [r8, -r0, lsl #6]
    2630:	000001c2 	andeq	r0, r0, r2, asr #3
    2634:	e8070403 	stmda	r7, {r0, r1, sl}
    2638:	03000001 	movweq	r0, #1
    263c:	00eb0801 	rsceq	r0, fp, r1, lsl #16
    2640:	04040000 	streq	r0, [r4], #-0
    2644:	0000007f 	andeq	r0, r0, pc, ror r0
    2648:	00007205 	andeq	r7, r0, r5, lsl #4
    264c:	00720600 	rsbseq	r0, r2, r0, lsl #12
    2650:	00940000 	addseq	r0, r4, r0
    2654:	6b070000 	blvs	1c265c <__bss_end__+0x1b869c>
    2658:	19000000 	stmdbne	r0, {}	; <UNPREDICTABLE>
    265c:	06e00800 	strbteq	r0, [r0], r0, lsl #16
    2660:	02010000 	andeq	r0, r1, #0
    2664:	00008fe0 	andeq	r8, r0, r0, ror #31
    2668:	00000044 	andeq	r0, r0, r4, asr #32
    266c:	01189c01 	tsteq	r8, r1, lsl #24
    2670:	70090000 	andvc	r0, r9, r0
    2674:	02010063 	andeq	r0, r1, #99	; 0x63
    2678:	0000002c 	andeq	r0, r0, ip, lsr #32
    267c:	00000bd2 	ldrdeq	r0, [r0], -r2
    2680:	00011d0a 	andeq	r1, r1, sl, lsl #26
    2684:	00011800 	andeq	r1, r1, r0, lsl #16
    2688:	04030500 	streq	r0, [r3], #-1280	; 0x500
    268c:	0b00009b 	bleq	2900 <__code_start__-0x5700>
    2690:	00008ff0 	strdeq	r8, [r0], -r0
    2694:	0000011d 	andeq	r0, r0, sp, lsl r1
    2698:	0090100c 	addseq	r1, r0, ip
    269c:	00012400 	andeq	r2, r1, r0, lsl #8
    26a0:	00010e00 	andeq	r0, r1, r0, lsl #28
    26a4:	53010d00 	movwpl	r0, #7424	; 0x1d00
    26a8:	010d3201 	tsteq	sp, r1, lsl #4
    26ac:	04030552 	streq	r0, [r3], #-1362	; 0x552
    26b0:	0d00009b 	stceq	0, cr0, [r0, #-620]	; 0xfffffd94
    26b4:	03055101 	movweq	r5, #20737	; 0x5101
    26b8:	00009b20 	andeq	r9, r0, r0, lsr #22
    26bc:	0550010d 	ldrbeq	r0, [r0, #-269]	; 0x10d
    26c0:	009a6003 	addseq	r6, sl, r3
    26c4:	7d020d00 	stcvc	13, cr0, [r2, #-0]
    26c8:	00740204 	rsbseq	r0, r4, r4, lsl #4
    26cc:	007d020d 	rsbseq	r0, sp, sp, lsl #4
    26d0:	9b400305 	blls	10032ec <__bss_end__+0xff932c>
    26d4:	0b000000 	bleq	26dc <__code_start__-0x5924>
    26d8:	00009014 	andeq	r9, r0, r4, lsl r0
    26dc:	0000013a 	andeq	r0, r0, sl, lsr r1
    26e0:	00840500 	addeq	r0, r4, r0, lsl #10
    26e4:	670e0000 	strvs	r0, [lr, -r0]
    26e8:	02000002 	andeq	r0, r0, #2
    26ec:	04950f1e 	ldreq	r0, [r5], #3870	; 0xf1e
    26f0:	29020000 	stmdbcs	r2, {}	; <UNPREDICTABLE>
    26f4:	00000025 	andeq	r0, r0, r5, lsr #32
    26f8:	0000013a 	andeq	r0, r0, sl, lsr r1
    26fc:	00007910 	andeq	r7, r0, r0, lsl r9
    2700:	0e001100 	adfeqs	f1, f0, f0
    2704:	000000f0 	strdeq	r0, [r0], -r0	; <UNPREDICTABLE>
    2708:	3e006502 	cfsh32cc	mvfx6, mvfx0, #2
    270c:	04000001 	streq	r0, [r0], #-1
    2710:	000dab00 	andeq	sl, sp, r0, lsl #22
    2714:	3b010400 	blcc	4371c <__bss_end__+0x3975c>
    2718:	01000004 	tsteq	r0, r4
    271c:	000006fa 	strdeq	r0, [r0], -sl
    2720:	000004a6 	andeq	r0, r0, r6, lsr #9
    2724:	00009024 	andeq	r9, r0, r4, lsr #32
    2728:	00000044 	andeq	r0, r0, r4, asr #32
    272c:	00000b93 	muleq	r0, r3, fp
    2730:	69050402 	stmdbvs	r5, {r1, sl}
    2734:	0300746e 	movweq	r7, #1134	; 0x46e
    2738:	01cc0704 	biceq	r0, ip, r4, lsl #14
    273c:	01030000 	mrseq	r0, (UNDEF: 3)
    2740:	0000e406 	andeq	lr, r0, r6, lsl #8
    2744:	05020300 	streq	r0, [r2, #-768]	; 0x300
    2748:	00000220 	andeq	r0, r0, r0, lsr #4
    274c:	00050403 	andeq	r0, r5, r3, lsl #8
    2750:	03000002 	movweq	r0, #2
    2754:	01fb0508 	mvnseq	r0, r8, lsl #10
    2758:	01030000 	mrseq	r0, (UNDEF: 3)
    275c:	0000e208 	andeq	lr, r0, r8, lsl #4
    2760:	07020300 	streq	r0, [r2, -r0, lsl #6]
    2764:	0000004b 	andeq	r0, r0, fp, asr #32
    2768:	c7070403 	strgt	r0, [r7, -r3, lsl #8]
    276c:	03000001 	movweq	r0, #1
    2770:	01c20708 	biceq	r0, r2, r8, lsl #14
    2774:	04030000 	streq	r0, [r3], #-0
    2778:	0001e807 	andeq	lr, r1, r7, lsl #16
    277c:	08010300 	stmdaeq	r1, {r8, r9}
    2780:	000000eb 	andeq	r0, r0, fp, ror #1
    2784:	007f0404 	rsbseq	r0, pc, r4, lsl #8
    2788:	72050000 	andvc	r0, r5, #0
    278c:	06000000 	streq	r0, [r0], -r0
    2790:	00000725 	andeq	r0, r0, r5, lsr #14
    2794:	90240201 	eorls	r0, r4, r1, lsl #4
    2798:	00440000 	subeq	r0, r4, r0
    279c:	9c010000 	stcls	0, cr0, [r1], {-0}
    27a0:	00000108 	andeq	r0, r0, r8, lsl #2
    27a4:	00637007 	rsbeq	r7, r3, r7
    27a8:	002c0201 	eoreq	r0, ip, r1, lsl #4
    27ac:	0bf00000 	bleq	ffc027b4 <__bss_end__+0xffbf87f4>
    27b0:	1d080000 	stcne	0, cr0, [r8, #-0]
    27b4:	18000001 	stmdane	r0, {r0}
    27b8:	05000001 	streq	r0, [r0, #-1]
    27bc:	009b4403 	addseq	r4, fp, r3, lsl #8
    27c0:	90340900 	eorsls	r0, r4, r0, lsl #18
    27c4:	011d0000 	tsteq	sp, r0
    27c8:	540a0000 	strpl	r0, [sl], #-0
    27cc:	24000090 	strcs	r0, [r0], #-144	; 0x90
    27d0:	fe000001 	cdp2	0, 0, cr0, cr0, cr1, {0}
    27d4:	0b000000 	bleq	27dc <__code_start__-0x5824>
    27d8:	32015301 	andcc	r5, r1, #67108864	; 0x4000000
    27dc:	0552010b 	ldrbeq	r0, [r2, #-267]	; 0x10b
    27e0:	009b4403 	addseq	r4, fp, r3, lsl #8
    27e4:	51010b00 	tstpl	r1, r0, lsl #22
    27e8:	9b640305 	blls	1903404 <__bss_end__+0x18f9444>
    27ec:	010b0000 	mrseq	r0, (UNDEF: 11)
    27f0:	60030550 	andvs	r0, r3, r0, asr r5
    27f4:	0b00009a 	bleq	2a64 <__code_start__-0x559c>
    27f8:	02047d02 	andeq	r7, r4, #2, 26	; 0x80
    27fc:	020b0074 	andeq	r0, fp, #116	; 0x74
    2800:	0305007d 	movweq	r0, #20605	; 0x507d
    2804:	00009b90 	muleq	r0, r0, fp
    2808:	90580900 	subsls	r0, r8, r0, lsl #18
    280c:	013a0000 	teqeq	sl, r0
    2810:	0c000000 	stceq	0, cr0, [r0], {-0}
    2814:	00000072 	andeq	r0, r0, r2, ror r0
    2818:	00000118 	andeq	r0, r0, r8, lsl r1
    281c:	00006b0d 	andeq	r6, r0, sp, lsl #22
    2820:	05001c00 	streq	r1, [r0, #-3072]	; 0xc00
    2824:	00000108 	andeq	r0, r0, r8, lsl #2
    2828:	0002670e 	andeq	r6, r2, lr, lsl #14
    282c:	0f1e0200 	svceq	0x001e0200
    2830:	00000495 	muleq	r0, r5, r4
    2834:	00252902 	eoreq	r2, r5, r2, lsl #18
    2838:	013a0000 	teqeq	sl, r0
    283c:	79100000 	ldmdbvc	r0, {}	; <UNPREDICTABLE>
    2840:	11000000 	mrsne	r0, (UNDEF: 0)
    2844:	00f00e00 	rscseq	r0, r0, r0, lsl #28
    2848:	65020000 	strvs	r0, [r2, #-0]
    284c:	00009800 	andeq	r9, r0, r0, lsl #16
    2850:	83000400 	movwhi	r0, #1024	; 0x400
    2854:	0400000e 	streq	r0, [r0], #-14
    2858:	00043b01 	andeq	r3, r4, r1, lsl #22
    285c:	07420100 	strbeq	r0, [r2, -r0, lsl #2]
    2860:	04a60000 	strteq	r0, [r6], #0
    2864:	90680000 	rsbls	r0, r8, r0
    2868:	00080000 	andeq	r0, r8, r0
    286c:	0c430000 	mareq	acc0, r0, r3
    2870:	04020000 	streq	r0, [r2], #-0
    2874:	746e6905 	strbtvc	r6, [lr], #-2309	; 0x905
    2878:	07040300 	streq	r0, [r4, -r0, lsl #6]
    287c:	000001cc 	andeq	r0, r0, ip, asr #3
    2880:	e4060103 	str	r0, [r6], #-259	; 0x103
    2884:	03000000 	movweq	r0, #0
    2888:	02200502 	eoreq	r0, r0, #8388608	; 0x800000
    288c:	04030000 	streq	r0, [r3], #-0
    2890:	00020005 	andeq	r0, r2, r5
    2894:	05080300 	streq	r0, [r8, #-768]	; 0x300
    2898:	000001fb 	strdeq	r0, [r0], -fp
    289c:	e2080103 	and	r0, r8, #-1073741824	; 0xc0000000
    28a0:	03000000 	movweq	r0, #0
    28a4:	004b0702 	subeq	r0, fp, r2, lsl #14
    28a8:	04030000 	streq	r0, [r3], #-0
    28ac:	0001c707 	andeq	ip, r1, r7, lsl #14
    28b0:	07080300 	streq	r0, [r8, -r0, lsl #6]
    28b4:	000001c2 	andeq	r0, r0, r2, asr #3
    28b8:	e8070403 	stmda	r7, {r0, r1, sl}
    28bc:	03000001 	movweq	r0, #1
    28c0:	00eb0801 	rsceq	r0, fp, r1, lsl #16
    28c4:	28040000 	stmdacs	r4, {}	; <UNPREDICTABLE>
    28c8:	01000006 	tsteq	r0, r6
    28cc:	00906804 	addseq	r6, r0, r4, lsl #16
    28d0:	00000400 	andeq	r0, r0, r0, lsl #8
    28d4:	049c0100 	ldreq	r0, [ip], #256	; 0x100
    28d8:	000005d2 	ldrdeq	r0, [r0], -r2
    28dc:	906c0501 	rsbls	r0, ip, r1, lsl #10
    28e0:	00040000 	andeq	r0, r4, r0
    28e4:	9c010000 	stcls	0, cr0, [r1], {-0}
    28e8:	0001d700 	andeq	sp, r1, r0, lsl #14
    28ec:	c5000400 	strgt	r0, [r0, #-1024]	; 0x400
    28f0:	0400000e 	streq	r0, [r0], #-14
    28f4:	00043b01 	andeq	r3, r4, r1, lsl #22
    28f8:	07fe0100 	ldrbeq	r0, [lr, r0, lsl #2]!
    28fc:	04a60000 	strteq	r0, [r6], #0
    2900:	90700000 	rsbsls	r0, r0, r0
    2904:	006c0000 	rsbeq	r0, ip, r0
    2908:	0c8e0000 	stceq	0, cr0, [lr], {0}
    290c:	04020000 	streq	r0, [r2], #-0
    2910:	746e6905 	strbtvc	r6, [lr], #-2309	; 0x905
    2914:	07040300 	streq	r0, [r4, -r0, lsl #6]
    2918:	000001cc 	andeq	r0, r0, ip, asr #3
    291c:	e4060103 	str	r0, [r6], #-259	; 0x103
    2920:	03000000 	movweq	r0, #0
    2924:	02200502 	eoreq	r0, r0, #8388608	; 0x800000
    2928:	04030000 	streq	r0, [r3], #-0
    292c:	00020005 	andeq	r0, r2, r5
    2930:	05080300 	streq	r0, [r8, #-768]	; 0x300
    2934:	000001fb 	strdeq	r0, [r0], -fp
    2938:	e2080103 	and	r0, r8, #-1073741824	; 0xc0000000
    293c:	03000000 	movweq	r0, #0
    2940:	004b0702 	subeq	r0, fp, r2, lsl #14
    2944:	04030000 	streq	r0, [r3], #-0
    2948:	0001c707 	andeq	ip, r1, r7, lsl #14
    294c:	07080300 	streq	r0, [r8, -r0, lsl #6]
    2950:	000001c2 	andeq	r0, r0, r2, asr #3
    2954:	e8070403 	stmda	r7, {r0, r1, sl}
    2958:	03000001 	movweq	r0, #1
    295c:	00eb0801 	rsceq	r0, fp, r1, lsl #16
    2960:	04040000 	streq	r0, [r4], #-0
    2964:	00f01402 	rscseq	r1, r0, r2, lsl #8
    2968:	17050000 	strne	r0, [r5, -r0]
    296c:	80000008 	andhi	r0, r0, r8
    2970:	028082e4 	addeq	r8, r0, #228, 4	; 0x4000000e
    2974:	00079d05 	andeq	r9, r7, r5, lsl #26
    2978:	82e48000 	rschi	r8, r4, #0
    297c:	44050280 	strmi	r0, [r5], #-640	; 0x280
    2980:	84000008 	strhi	r0, [r0], #-8
    2984:	028082e4 	addeq	r8, r0, #228, 4	; 0x4000000e
    2988:	00075f05 	andeq	r5, r7, r5, lsl #30
    298c:	82e48800 	rschi	r8, r4, #0, 16
    2990:	80050280 	andhi	r0, r5, r0, lsl #5
    2994:	8c000007 	stchi	0, cr0, [r0], {7}
    2998:	028082e4 	addeq	r8, r0, #228, 4	; 0x4000000e
    299c:	0007c105 	andeq	ip, r7, r5, lsl #2
    29a0:	82e49000 	rschi	r9, r4, #0
    29a4:	cf050280 	svcgt	0x00050280
    29a8:	94000007 	strls	r0, [r0], #-7
    29ac:	028082e4 	addeq	r8, r0, #228, 4	; 0x4000000e
    29b0:	0007af05 	andeq	sl, r7, r5, lsl #30
    29b4:	82e49800 	rschi	r9, r4, #0, 16
    29b8:	26050280 	strcs	r0, [r5], -r0, lsl #5
    29bc:	9c000008 	stcls	0, cr0, [r0], {8}
    29c0:	028082e4 	addeq	r8, r0, #228, 4	; 0x4000000e
    29c4:	00083505 	andeq	r3, r8, r5, lsl #10
    29c8:	82e4a000 	rschi	sl, r4, #0
    29cc:	6d050280 	sfmvs	f0, 4, [r5, #-512]	; 0xfffffe00
    29d0:	a4000007 	strge	r0, [r0], #-7
    29d4:	028082e4 	addeq	r8, r0, #228, 4	; 0x4000000e
    29d8:	04150600 	ldreq	r0, [r5], #-1536	; 0x600
    29dc:	1b010000 	blne	429e4 <__bss_end__+0x38a24>
    29e0:	00009070 	andeq	r9, r0, r0, ror r0
    29e4:	0000006c 	andeq	r0, r0, ip, rrx
    29e8:	01a59c01 			; <UNDEFINED> instruction: 0x01a59c01
    29ec:	8c070000 	stchi	0, cr0, [r7], {-0}
    29f0:	01000007 	tsteq	r0, r7
    29f4:	00002c23 	andeq	r2, r0, r3, lsr #24
    29f8:	07dd0700 	ldrbeq	r0, [sp, r0, lsl #14]
    29fc:	24010000 	strcs	r0, [r1], #-0
    2a00:	0000002c 	andeq	r0, r0, ip, lsr #32
    2a04:	74736408 	ldrbtvc	r6, [r3], #-1032	; 0x408
    2a08:	a5270100 	strge	r0, [r7, #-256]!	; 0x100
    2a0c:	00000001 	andeq	r0, r0, r1
    2a10:	63727309 	cmnvs	r2, #603979776	; 0x24000000
    2a14:	a5280100 	strge	r0, [r8, #-256]!	; 0x100
    2a18:	0a000001 	beq	2a24 <__code_start__-0x55dc>
    2a1c:	2901006e 	stmdbcs	r1, {r1, r2, r3, r5, r6}
    2a20:	0000002c 	andeq	r0, r0, ip, lsr #32
    2a24:	a40b5001 	strge	r5, [fp], #-1
    2a28:	24000090 	strcs	r0, [r0], #-144	; 0x90
    2a2c:	58000000 	stmdapl	r0, {}	; <UNPREDICTABLE>
    2a30:	0c000001 	stceq	0, cr0, [r0], {1}
    2a34:	2a010069 	bcs	42be0 <__bss_end__+0x38c20>
    2a38:	00000025 	andeq	r0, r0, r5, lsr #32
    2a3c:	00000c0e 	andeq	r0, r0, lr, lsl #24
    2a40:	90780d00 	rsbsls	r0, r8, r0, lsl #26
    2a44:	01c10000 	biceq	r0, r1, r0
    2a48:	840e0000 	strhi	r0, [lr], #-0
    2a4c:	c8000090 	stmdagt	r0, {r4, r7}
    2a50:	7e000001 	cdpvc	0, 0, cr0, cr0, cr1, {0}
    2a54:	0f000001 	svceq	0x00000001
    2a58:	09025101 	stmdbeq	r2, {r0, r8, ip, lr}
    2a5c:	50010fff 	strdpl	r0, [r1], -pc	; <UNPREDICTABLE>
    2a60:	b21c0c05 	andslt	r0, ip, #1280	; 0x500
    2a64:	0e002000 	cdpeq	0, 0, cr2, cr0, cr0, {0}
    2a68:	00009090 	muleq	r0, r0, r0
    2a6c:	000001c8 	andeq	r0, r0, r8, asr #3
    2a70:	0000019b 	muleq	r0, fp, r1
    2a74:	0251010f 	subseq	r0, r1, #-1073741821	; 0xc0000003
    2a78:	010fff09 	tsteq	pc, r9, lsl #30
    2a7c:	200c0550 	andcs	r0, ip, r0, asr r5
    2a80:	002000b2 	strhteq	r0, [r0], -r2
    2a84:	0090940d 	addseq	r9, r0, sp, lsl #8
    2a88:	0001c100 	andeq	ip, r1, r0, lsl #2
    2a8c:	04100000 	ldreq	r0, [r0], #-0
    2a90:	0000002c 	andeq	r0, r0, ip, lsr #32
    2a94:	00078c07 	andeq	r8, r7, r7, lsl #24
    2a98:	2c230100 	stfcss	f0, [r3], #-0
    2a9c:	07000000 	streq	r0, [r0, -r0]
    2aa0:	000007dd 	ldrdeq	r0, [r0], -sp
    2aa4:	002c2401 	eoreq	r2, ip, r1, lsl #8
    2aa8:	f2110000 	vhadd.s16	d0, d1, d0
    2aac:	03000007 	movweq	r0, #7
    2ab0:	08201289 	stmdaeq	r0!, {r0, r3, r7, r9, ip}
    2ab4:	9b030000 	blls	c2abc <__bss_end__+0xb8afc>
    2ab8:	00002c13 	andeq	r2, r0, r3, lsl ip
    2abc:	002c1300 	eoreq	r1, ip, r0, lsl #6
    2ac0:	00000000 	andeq	r0, r0, r0
    2ac4:	000001ad 	andeq	r0, r0, sp, lsr #3
    2ac8:	0fcb0004 	svceq	0x00cb0004
    2acc:	01040000 	mrseq	r0, (UNDEF: 4)
    2ad0:	0000043b 	andeq	r0, r0, fp, lsr r4
    2ad4:	00086001 	andeq	r6, r8, r1
    2ad8:	0004a600 	andeq	sl, r4, r0, lsl #12
	...
    2ae4:	000d5b00 	andeq	r5, sp, r0, lsl #22
    2ae8:	05040200 	streq	r0, [r4, #-512]	; 0x200
    2aec:	00746e69 	rsbseq	r6, r4, r9, ror #28
    2af0:	cc070403 	cfstrsgt	mvf0, [r7], {3}
    2af4:	03000001 	movweq	r0, #1
    2af8:	00e40601 	rsceq	r0, r4, r1, lsl #12
    2afc:	02030000 	andeq	r0, r3, #0
    2b00:	00022005 	andeq	r2, r2, r5
    2b04:	05040300 	streq	r0, [r4, #-768]	; 0x300
    2b08:	00000200 	andeq	r0, r0, r0, lsl #4
    2b0c:	fb050803 	blx	144b22 <__bss_end__+0x13ab62>
    2b10:	03000001 	movweq	r0, #1
    2b14:	00e20801 	rsceq	r0, r2, r1, lsl #16
    2b18:	02030000 	andeq	r0, r3, #0
    2b1c:	00004b07 	andeq	r4, r0, r7, lsl #22
    2b20:	07040300 	streq	r0, [r4, -r0, lsl #6]
    2b24:	000001c7 	andeq	r0, r0, r7, asr #3
    2b28:	c2070803 	andgt	r0, r7, #196608	; 0x30000
    2b2c:	03000001 	movweq	r0, #1
    2b30:	01e80704 	mvneq	r0, r4, lsl #14
    2b34:	01030000 	mrseq	r0, (UNDEF: 3)
    2b38:	0000eb08 	andeq	lr, r0, r8, lsl #22
    2b3c:	08520400 	ldmdaeq	r2, {sl}^
    2b40:	0e010000 	cdpeq	0, 0, cr0, cr1, cr0, {0}
    2b44:	00000025 	andeq	r0, r0, r5, lsr #32
    2b48:	000090dc 	ldrdeq	r9, [r0], -ip
    2b4c:	00000018 	andeq	r0, r0, r8, lsl r0
    2b50:	00a29c01 	adceq	r9, r2, r1, lsl #24
    2b54:	3d050000 	stccc	0, cr0, [r5, #-0]
    2b58:	01000000 	mrseq	r0, (UNDEF: 0)
    2b5c:	00002c0f 	andeq	r2, r0, pc, lsl #24
    2b60:	000c2d00 	andeq	r2, ip, r0, lsl #26
    2b64:	94060000 	strls	r0, [r6], #-0
    2b68:	01000008 	tsteq	r0, r8
    2b6c:	0090f417 	addseq	pc, r0, r7, lsl r4	; <UNPREDICTABLE>
    2b70:	00001400 	andeq	r1, r0, r0, lsl #8
    2b74:	c79c0100 	ldrgt	r0, [ip, r0, lsl #2]
    2b78:	05000000 	streq	r0, [r0, #-0]
    2b7c:	0000003d 	andeq	r0, r0, sp, lsr r0
    2b80:	002c1801 	eoreq	r1, ip, r1, lsl #16
    2b84:	0c4c0000 	mareq	acc0, r0, ip
    2b88:	06000000 	streq	r0, [r0], -r0
    2b8c:	000005fa 	strdeq	r0, [r0], -sl
    2b90:	91081f01 	tstls	r8, r1, lsl #30
    2b94:	00480000 	subeq	r0, r8, r0
    2b98:	9c010000 	stcls	0, cr0, [r1], {-0}
    2b9c:	00000177 	andeq	r0, r0, r7, ror r1
    2ba0:	0008af07 	andeq	sl, r8, r7, lsl #30
    2ba4:	772a0100 	strvc	r0, [sl, -r0, lsl #2]!
    2ba8:	1c000001 	stcne	0, cr0, [r0], {1}
    2bac:	07201000 	streq	r1, [r0, -r0]!
    2bb0:	0000088c 	andeq	r0, r0, ip, lsl #17
    2bb4:	01772b01 	cmneq	r7, r1, lsl #22
    2bb8:	00240000 	eoreq	r0, r4, r0
    2bbc:	a3072010 	movwge	r2, #28688	; 0x7010
    2bc0:	01000008 	tsteq	r0, r8
    2bc4:	0001772c 	andeq	r7, r1, ip, lsr #14
    2bc8:	00000000 	andeq	r0, r0, r0
    2bcc:	0873085a 	ldmdaeq	r3!, {r1, r3, r4, r6, fp}^
    2bd0:	2d010000 	stccs	0, cr0, [r1, #-0]
    2bd4:	00000177 	andeq	r0, r0, r7, ror r1
    2bd8:	91100920 	tstls	r0, r0, lsr #18
    2bdc:	00790000 	rsbseq	r0, r9, r0
    2be0:	1c090000 	stcne	0, cr0, [r9], {-0}
    2be4:	a2000091 	andge	r0, r0, #145	; 0x91
    2be8:	0a000000 	beq	2bf0 <__code_start__-0x5410>
    2bec:	00009124 	andeq	r9, r0, r4, lsr #2
    2bf0:	0000018d 	andeq	r0, r0, sp, lsl #3
    2bf4:	0000013a 	andeq	r0, r0, sl, lsr r1
    2bf8:	0150010b 	cmpeq	r0, fp, lsl #2
    2bfc:	300a004e 	andcc	r0, sl, lr, asr #32
    2c00:	9e000091 	mcrls	0, 0, r0, cr0, cr1, {4}
    2c04:	5a000001 	bpl	2c10 <__code_start__-0x53f0>
    2c08:	0b000001 	bleq	2c14 <__code_start__-0x53ec>
    2c0c:	0c055101 	stfeqs	f5, [r5], {1}
    2c10:	5a000001 	bpl	2c1c <__code_start__-0x53e4>
    2c14:	0550010b 	ldrbeq	r0, [r0, #-267]	; 0x10b
    2c18:	1000240c 	andne	r2, r0, ip, lsl #8
    2c1c:	3c0c0020 	stccc	0, cr0, [ip], {32}
    2c20:	9e000091 	mcrls	0, 0, r0, cr0, cr1, {4}
    2c24:	0b000001 	bleq	2c30 <__code_start__-0x53d0>
    2c28:	0c055101 	stfeqs	f5, [r5], {1}
    2c2c:	5a000020 	bpl	2cb4 <__code_start__-0x534c>
    2c30:	0550010b 	ldrbeq	r0, [r0, #-267]	; 0x10b
    2c34:	10001c0c 	andne	r1, r0, ip, lsl #24
    2c38:	0d000020 	stceq	0, cr0, [r0, #-128]	; 0xffffff80
    2c3c:	00000025 	andeq	r0, r0, r5, lsr #32
    2c40:	00085508 	andeq	r5, r8, r8, lsl #10
    2c44:	880d0100 	stmdahi	sp, {r8}
    2c48:	10000001 	andne	r0, r0, r1
    2c4c:	00002c0d 	andeq	r2, r0, sp, lsl #24
    2c50:	06050e00 	streq	r0, [r5], -r0, lsl #28
    2c54:	4f020000 	svcmi	0x00020000
    2c58:	0000019e 	muleq	r0, lr, r1
    2c5c:	00002c0f 	andeq	r2, r0, pc, lsl #24
    2c60:	20100000 	andscs	r0, r0, r0
    2c64:	02000008 	andeq	r0, r0, #8
    2c68:	002c0f9b 	mlaeq	ip, fp, pc, r0	; <UNPREDICTABLE>
    2c6c:	2c0f0000 	stccs	0, cr0, [pc], {-0}
    2c70:	00000000 	andeq	r0, r0, r0
    2c74:	0001f700 	andeq	pc, r1, r0, lsl #14
    2c78:	b9000400 	stmdblt	r0, {sl}
    2c7c:	04000010 	streq	r0, [r0], #-16
    2c80:	00043b01 	andeq	r3, r4, r1, lsl #22
    2c84:	08d40100 	ldmeq	r4, {r8}^
    2c88:	04a60000 	strteq	r0, [r6], #0
    2c8c:	91500000 	cmpls	r0, r0
    2c90:	00980000 	addseq	r0, r8, r0
    2c94:	0e010000 	cdpeq	0, 0, cr0, cr1, cr0, {0}
    2c98:	04020000 	streq	r0, [r2], #-0
    2c9c:	746e6905 	strbtvc	r6, [lr], #-2309	; 0x905
    2ca0:	07040300 	streq	r0, [r4, -r0, lsl #6]
    2ca4:	000001cc 	andeq	r0, r0, ip, asr #3
    2ca8:	e4060103 	str	r0, [r6], #-259	; 0x103
    2cac:	03000000 	movweq	r0, #0
    2cb0:	02200502 	eoreq	r0, r0, #8388608	; 0x800000
    2cb4:	04030000 	streq	r0, [r3], #-0
    2cb8:	00020005 	andeq	r0, r2, r5
    2cbc:	05080300 	streq	r0, [r8, #-768]	; 0x300
    2cc0:	000001fb 	strdeq	r0, [r0], -fp
    2cc4:	e2080103 	and	r0, r8, #-1073741824	; 0xc0000000
    2cc8:	03000000 	movweq	r0, #0
    2ccc:	004b0702 	subeq	r0, fp, r2, lsl #14
    2cd0:	04030000 	streq	r0, [r3], #-0
    2cd4:	0001c707 	andeq	ip, r1, r7, lsl #14
    2cd8:	07080300 	streq	r0, [r8, -r0, lsl #6]
    2cdc:	000001c2 	andeq	r0, r0, r2, asr #3
    2ce0:	e8070403 	stmda	r7, {r0, r1, sl}
    2ce4:	03000001 	movweq	r0, #1
    2ce8:	00eb0801 	rsceq	r0, fp, r1, lsl #16
    2cec:	f2040000 	vhadd.s8	d0, d4, d0
    2cf0:	01000008 	tsteq	r0, r8
    2cf4:	00915005 	addseq	r5, r1, r5
    2cf8:	00001c00 	andeq	r1, r0, r0, lsl #24
    2cfc:	9e9c0100 	fmllse	f0, f4, f0
    2d00:	05000000 	streq	r0, [r0, #-0]
    2d04:	000008ec 	andeq	r0, r0, ip, ror #17
    2d08:	002c0501 	eoreq	r0, ip, r1, lsl #10
    2d0c:	0c760000 	ldcleq	0, cr0, [r6], #-0
    2d10:	06000000 	streq	r0, [r0], -r0
    2d14:	000008b7 			; <UNDEFINED> instruction: 0x000008b7
    2d18:	002c1101 	eoreq	r1, ip, r1, lsl #2
    2d1c:	916c0000 	cmnls	ip, r0
    2d20:	00140000 	andseq	r0, r4, r0
    2d24:	9c010000 	stcls	0, cr0, [r1], {-0}
    2d28:	000000cb 	andeq	r0, r0, fp, asr #1
    2d2c:	00917807 	addseq	r7, r1, r7, lsl #16
    2d30:	0001de00 	andeq	sp, r1, r0, lsl #28
    2d34:	50010800 	andpl	r0, r1, r0, lsl #16
    2d38:	30040c05 	andcc	r0, r4, r5, lsl #24
    2d3c:	00002000 	andeq	r2, r0, r0
    2d40:	00090806 	andeq	r0, r9, r6, lsl #16
    2d44:	2c160100 	ldfcss	f0, [r6], {-0}
    2d48:	80000000 	andhi	r0, r0, r0
    2d4c:	1c000091 	stcne	0, cr0, [r0], {145}	; 0x91
    2d50:	01000000 	mrseq	r0, (UNDEF: 0)
    2d54:	00010d9c 	muleq	r1, ip, sp
    2d58:	00750900 	rsbseq	r0, r5, r0, lsl #18
    2d5c:	002c1a01 	eoreq	r1, ip, r1, lsl #20
    2d60:	0caa0000 	stceq	0, cr0, [sl]
    2d64:	880a0000 	stmdahi	sl, {}	; <UNPREDICTABLE>
    2d68:	f3000091 	vqadd.u8	d0, d16, d1
    2d6c:	0a000001 	beq	2d78 <__code_start__-0x5288>
    2d70:	0000918c 	andeq	r9, r0, ip, lsl #3
    2d74:	0000009e 	muleq	r0, lr, r0
    2d78:	0091940a 	addseq	r9, r1, sl, lsl #8
    2d7c:	0001f300 	andeq	pc, r1, r0, lsl #6
    2d80:	ff040000 			; <UNDEFINED> instruction: 0xff040000
    2d84:	01000008 	tsteq	r0, r8
    2d88:	00919c1f 	addseq	r9, r1, pc, lsl ip
    2d8c:	00002400 	andeq	r2, r0, r0, lsl #8
    2d90:	6b9c0100 	blvs	fe703198 <__bss_end__+0xfe6f91d8>
    2d94:	0b000001 	bleq	2da0 <__code_start__-0x5260>
    2d98:	01007375 	tsteq	r0, r5, ror r3
    2d9c:	00002c1f 	andeq	r2, r0, pc, lsl ip
    2da0:	000cc800 	andeq	ip, ip, r0, lsl #16
    2da4:	62720c00 	rsbsvs	r0, r2, #0, 24
    2da8:	2c200100 	stfcss	f0, [r0], #-0
    2dac:	01000000 	mrseq	r0, (UNDEF: 0)
    2db0:	91ac0d54 			; <UNDEFINED> instruction: 0x91ac0d54
    2db4:	00100000 	andseq	r0, r0, r0
    2db8:	01610000 	cmneq	r1, r0
    2dbc:	72090000 	andvc	r0, r9, #0
    2dc0:	22010061 	andcs	r0, r1, #97	; 0x61
    2dc4:	0000002c 	andeq	r0, r0, ip, lsr #32
    2dc8:	00000ce6 	andeq	r0, r0, r6, ror #25
    2dcc:	0091b00a 	addseq	fp, r1, sl
    2dd0:	0000cb00 	andeq	ip, r0, r0, lsl #22
    2dd4:	a80a0000 	stmdage	sl, {}	; <UNPREDICTABLE>
    2dd8:	cb000091 	blgt	3024 <__code_start__-0x4fdc>
    2ddc:	00000000 	andeq	r0, r0, r0
    2de0:	00060504 	andeq	r0, r6, r4, lsl #10
    2de4:	c0280100 	eorgt	r0, r8, r0, lsl #2
    2de8:	14000091 	strne	r0, [r0], #-145	; 0x91
    2dec:	01000000 	mrseq	r0, (UNDEF: 0)
    2df0:	0001a49c 	muleq	r1, ip, r4
    2df4:	736d0b00 	cmnvc	sp, #0, 22
    2df8:	2c280100 	stfcss	f0, [r8], #-0
    2dfc:	f9000000 			; <UNDEFINED> instruction: 0xf9000000
    2e00:	0700000c 	streq	r0, [r0, -ip]
    2e04:	000091d0 	ldrdeq	r9, [r0], -r0
    2e08:	0000010d 	andeq	r0, r0, sp, lsl #2
    2e0c:	07500108 	ldrbeq	r0, [r0, -r8, lsl #2]
    2e10:	0a5001f3 	beq	14035e4 <__bss_end__+0x13f9624>
    2e14:	001e03e8 	andseq	r0, lr, r8, ror #7
    2e18:	08ca0400 	stmiaeq	sl, {sl}^
    2e1c:	2b010000 	blcs	42e24 <__bss_end__+0x38e64>
    2e20:	000091d4 	ldrdeq	r9, [r0], -r4
    2e24:	00000014 	andeq	r0, r0, r4, lsl r0
    2e28:	01de9c01 	bicseq	r9, lr, r1, lsl #24
    2e2c:	730b0000 	movwvc	r0, #45056	; 0xb000
    2e30:	01006365 	tsteq	r0, r5, ror #6
    2e34:	00002c2b 	andeq	r2, r0, fp, lsr #24
    2e38:	000d1a00 	andeq	r1, sp, r0, lsl #20
    2e3c:	91e40700 	mvnls	r0, r0, lsl #14
    2e40:	016b0000 	cmneq	fp, r0
    2e44:	01080000 	mrseq	r0, (UNDEF: 8)
    2e48:	01f30750 	mvnseq	r0, r0, asr r7
    2e4c:	03e80a50 	mvneq	r0, #80, 20	; 0x50000
    2e50:	0e00001e 	mcreq	0, 0, r0, cr0, cr14, {0}
    2e54:	000008e6 	andeq	r0, r0, r6, ror #17
    2e58:	002ca702 	eoreq	sl, ip, r2, lsl #14
    2e5c:	01f30000 	mvnseq	r0, r0
    2e60:	2c0f0000 	stccs	0, cr0, [pc], {-0}
    2e64:	00000000 	andeq	r0, r0, r0
    2e68:	0007f210 	andeq	pc, r7, r0, lsl r2	; <UNPREDICTABLE>
    2e6c:	00890200 	addeq	r0, r9, r0, lsl #4
    2e70:	00000cc5 	andeq	r0, r0, r5, asr #25
    2e74:	11af0004 			; <UNDEFINED> instruction: 0x11af0004
    2e78:	01040000 	mrseq	r0, (UNDEF: 4)
    2e7c:	00000cb3 			; <UNDEFINED> instruction: 0x00000cb3
    2e80:	000a160c 	andeq	r1, sl, ip, lsl #12
    2e84:	000a3100 	andeq	r3, sl, r0, lsl #2
    2e88:	00924c00 	addseq	r4, r2, r0, lsl #24
    2e8c:	00017800 	andeq	r7, r1, r0, lsl #16
    2e90:	000eb300 	andeq	fp, lr, r0, lsl #6
    2e94:	05040200 	streq	r0, [r4, #-512]	; 0x200
    2e98:	00746e69 	rsbseq	r6, r4, r9, ror #28
    2e9c:	cc070403 	cfstrsgt	mvf0, [r7], {3}
    2ea0:	04000001 	streq	r0, [r0], #-1
    2ea4:	0000002c 	andeq	r0, r0, ip, lsr #32
    2ea8:	e4060103 	str	r0, [r6], #-259	; 0x103
    2eac:	03000000 	movweq	r0, #0
    2eb0:	02200502 	eoreq	r0, r0, #8388608	; 0x800000
    2eb4:	04030000 	streq	r0, [r3], #-0
    2eb8:	00020005 	andeq	r0, r2, r5
    2ebc:	05080300 	streq	r0, [r8, #-768]	; 0x300
    2ec0:	000001fb 	strdeq	r0, [r0], -fp
    2ec4:	e2080103 	and	r0, r8, #-1073741824	; 0xc0000000
    2ec8:	03000000 	movweq	r0, #0
    2ecc:	004b0702 	subeq	r0, fp, r2, lsl #14
    2ed0:	04030000 	streq	r0, [r3], #-0
    2ed4:	0001c707 	andeq	ip, r1, r7, lsl #14
    2ed8:	07080300 	streq	r0, [r8, -r0, lsl #6]
    2edc:	000001c2 	andeq	r0, r0, r2, asr #3
    2ee0:	000bc805 	andeq	ip, fp, r5, lsl #16
    2ee4:	25070200 	strcs	r0, [r7, #-512]	; 0x200
    2ee8:	05000000 	streq	r0, [r0, #-0]
    2eec:	00000bb2 			; <UNDEFINED> instruction: 0x00000bb2
    2ef0:	00462c03 	subeq	r2, r6, r3, lsl #24
    2ef4:	8e050000 	cdphi	0, 0, cr0, cr5, cr0, {0}
    2ef8:	0300000c 	movweq	r0, #12
    2efc:	00004672 	andeq	r4, r0, r2, ror r6
    2f00:	0b560600 	bleq	1584708 <__bss_end__+0x157a748>
    2f04:	65040000 	strvs	r0, [r4, #-0]
    2f08:	00002c01 	andeq	r2, r0, r1, lsl #24
    2f0c:	03040700 	movweq	r0, #18176	; 0x4700
    2f10:	0000bca6 	andeq	fp, r0, r6, lsr #25
    2f14:	0b410800 	bleq	1044f1c <__bss_end__+0x103af5c>
    2f18:	a8030000 	stmdage	r3, {}	; <UNPREDICTABLE>
    2f1c:	00000091 	muleq	r0, r1, r0
    2f20:	000ae908 	andeq	lr, sl, r8, lsl #18
    2f24:	bca90300 	stclt	3, cr0, [r9]
    2f28:	00000000 	andeq	r0, r0, r0
    2f2c:	00005409 	andeq	r5, r0, r9, lsl #8
    2f30:	0000cc00 	andeq	ip, r0, r0, lsl #24
    2f34:	00cc0a00 	sbceq	r0, ip, r0, lsl #20
    2f38:	00030000 	andeq	r0, r3, r0
    2f3c:	e8070403 	stmda	r7, {r0, r1, sl}
    2f40:	0b000001 	bleq	2f4c <__code_start__-0x50b4>
    2f44:	f4a30308 	vld4.8	{d0[0],d1[0],d2[0],d3[0]}, [r3], r8
    2f48:	0c000000 	stceq	0, cr0, [r0], {-0}
    2f4c:	00000c73 	andeq	r0, r0, r3, ror ip
    2f50:	0025a503 	eoreq	sl, r5, r3, lsl #10
    2f54:	0c000000 	stceq	0, cr0, [r0], {-0}
    2f58:	00000c7b 	andeq	r0, r0, fp, ror ip
    2f5c:	009daa03 	addseq	sl, sp, r3, lsl #20
    2f60:	00040000 	andeq	r0, r4, r0
    2f64:	000c0605 	andeq	r0, ip, r5, lsl #12
    2f68:	d3ab0300 			; <UNDEFINED> instruction: 0xd3ab0300
    2f6c:	05000000 	streq	r0, [r0, #-0]
    2f70:	00000ab2 			; <UNDEFINED> instruction: 0x00000ab2
    2f74:	0070af03 	rsbseq	sl, r0, r3, lsl #30
    2f78:	040d0000 	streq	r0, [sp], #-0
    2f7c:	0112040e 	tsteq	r2, lr, lsl #8
    2f80:	01030000 	mrseq	r0, (UNDEF: 3)
    2f84:	0000eb08 	andeq	lr, r0, r8, lsl #22
    2f88:	01120f00 	tsteq	r2, r0, lsl #30
    2f8c:	30050000 	andcc	r0, r5, r0
    2f90:	0500000d 	streq	r0, [r0, #-13]
    2f94:	00006216 	andeq	r6, r0, r6, lsl r2
    2f98:	0ac31000 	beq	ff0c6fa0 <__bss_end__+0xff0bcfe0>
    2f9c:	05180000 	ldreq	r0, [r8, #-0]
    2fa0:	00017c2d 	andeq	r7, r1, sp, lsr #24
    2fa4:	0c270c00 	stceq	12, cr0, [r7], #-0
    2fa8:	2f050000 	svccs	0x00050000
    2fac:	0000017c 	andeq	r0, r0, ip, ror r1
    2fb0:	6b5f1100 	blvs	17c73b8 <__bss_end__+0x17bd3f8>
    2fb4:	25300500 	ldrcs	r0, [r0, #-1280]!	; 0x500
    2fb8:	04000000 	streq	r0, [r0], #-0
    2fbc:	000c5e0c 	andeq	r5, ip, ip, lsl #28
    2fc0:	25300500 	ldrcs	r0, [r0, #-1280]!	; 0x500
    2fc4:	08000000 	stmdaeq	r0, {}	; <UNPREDICTABLE>
    2fc8:	000a9e0c 	andeq	r9, sl, ip, lsl #28
    2fcc:	25300500 	ldrcs	r0, [r0, #-1280]!	; 0x500
    2fd0:	0c000000 	stceq	0, cr0, [r0], {-0}
    2fd4:	000d770c 	andeq	r7, sp, ip, lsl #14
    2fd8:	25300500 	ldrcs	r0, [r0, #-1280]!	; 0x500
    2fdc:	10000000 	andne	r0, r0, r0
    2fe0:	00785f11 	rsbseq	r5, r8, r1, lsl pc
    2fe4:	01823105 	orreq	r3, r2, r5, lsl #2
    2fe8:	00140000 	andseq	r0, r4, r0
    2fec:	0129040e 	teqeq	r9, lr, lsl #8
    2ff0:	1e090000 	cdpne	0, 0, cr0, cr9, cr0, {0}
    2ff4:	92000001 	andls	r0, r0, #1
    2ff8:	0a000001 	beq	3004 <__code_start__-0x4ffc>
    2ffc:	000000cc 	andeq	r0, r0, ip, asr #1
    3000:	e4100000 	ldr	r0, [r0], #-0
    3004:	2400000a 	strcs	r0, [r0], #-10
    3008:	020b3505 	andeq	r3, fp, #20971520	; 0x1400000
    300c:	9c0c0000 	stcls	0, cr0, [ip], {-0}
    3010:	05000009 	streq	r0, [r0, #-9]
    3014:	00002537 	andeq	r2, r0, r7, lsr r5
    3018:	960c0000 	strls	r0, [ip], -r0
    301c:	0500000c 	streq	r0, [r0, #-12]
    3020:	00002538 	andeq	r2, r0, r8, lsr r5
    3024:	ca0c0400 	bgt	30402c <__bss_end__+0x2fa06c>
    3028:	05000009 	streq	r0, [r0, #-9]
    302c:	00002539 	andeq	r2, r0, r9, lsr r5
    3030:	670c0800 	strvs	r0, [ip, -r0, lsl #16]
    3034:	0500000e 	streq	r0, [r0, #-14]
    3038:	0000253a 	andeq	r2, r0, sl, lsr r5
    303c:	960c0c00 	strls	r0, [ip], -r0, lsl #24
    3040:	0500000b 	streq	r0, [r0, #-11]
    3044:	0000253b 	andeq	r2, r0, fp, lsr r5
    3048:	6b0c1000 	blvs	307050 <__bss_end__+0x2fd090>
    304c:	0500000b 	streq	r0, [r0, #-11]
    3050:	0000253c 	andeq	r2, r0, ip, lsr r5
    3054:	7c0c1400 	cfstrsvc	mvf1, [ip], {-0}
    3058:	0500000d 	streq	r0, [r0, #-13]
    305c:	0000253d 	andeq	r2, r0, sp, lsr r5
    3060:	e80c1800 	stmda	ip, {fp, ip}
    3064:	0500000b 	streq	r0, [r0, #-11]
    3068:	0000253e 	andeq	r2, r0, lr, lsr r5
    306c:	2e0c1c00 	cdpcs	12, 0, cr1, cr12, cr0, {0}
    3070:	0500000e 	streq	r0, [r0, #-14]
    3074:	0000253f 	andeq	r2, r0, pc, lsr r5
    3078:	12002000 	andne	r2, r0, #0
    307c:	000009d9 	ldrdeq	r0, [r0], -r9
    3080:	48050108 	stmdami	r5, {r3, r8}
    3084:	0000024b 	andeq	r0, r0, fp, asr #4
    3088:	000a850c 	andeq	r8, sl, ip, lsl #10
    308c:	4b490500 	blmi	1244494 <__bss_end__+0x123a4d4>
    3090:	00000002 	andeq	r0, r0, r2
    3094:	0009170c 	andeq	r1, r9, ip, lsl #14
    3098:	4b4a0500 	blmi	12844a0 <__bss_end__+0x127a4e0>
    309c:	80000002 	andhi	r0, r0, r2
    30a0:	000d2213 	andeq	r2, sp, r3, lsl r2
    30a4:	1e4c0500 	cdpne	5, 4, cr0, cr12, cr0, {0}
    30a8:	00000001 	andeq	r0, r0, r1
    30ac:	09fe1301 	ldmibeq	lr!, {r0, r8, r9, ip}^
    30b0:	4f050000 	svcmi	0x00050000
    30b4:	0000011e 	andeq	r0, r0, lr, lsl r1
    30b8:	09000104 	stmdbeq	r0, {r2, r8}
    30bc:	0000010a 	andeq	r0, r0, sl, lsl #2
    30c0:	0000025b 	andeq	r0, r0, fp, asr r2
    30c4:	0000cc0a 	andeq	ip, r0, sl, lsl #24
    30c8:	12001f00 	andne	r1, r0, #0, 30
    30cc:	00000b9f 	muleq	r0, pc, fp	; <UNPREDICTABLE>
    30d0:	5b050190 	blpl	143718 <__bss_end__+0x139758>
    30d4:	00000299 	muleq	r0, r9, r2
    30d8:	000c270c 	andeq	r2, ip, ip, lsl #14
    30dc:	995c0500 	ldmdbls	ip, {r8, sl}^
    30e0:	00000002 	andeq	r0, r0, r2
    30e4:	000c3f0c 	andeq	r3, ip, ip, lsl #30
    30e8:	255d0500 	ldrbcs	r0, [sp, #-1280]	; 0x500
    30ec:	04000000 	streq	r0, [r0], #-0
    30f0:	000a990c 	andeq	r9, sl, ip, lsl #18
    30f4:	9f5f0500 	svcls	0x005f0500
    30f8:	08000002 	stmdaeq	r0, {r1}
    30fc:	0009d90c 	andeq	sp, r9, ip, lsl #18
    3100:	0b600500 	bleq	1804508 <__bss_end__+0x17fa548>
    3104:	88000002 	stmdahi	r0, {r1}
    3108:	5b040e00 	blpl	106910 <__bss_end__+0xfc950>
    310c:	09000002 	stmdbeq	r0, {r1}
    3110:	000002af 	andeq	r0, r0, pc, lsr #5
    3114:	000002af 	andeq	r0, r0, pc, lsr #5
    3118:	0000cc0a 	andeq	ip, r0, sl, lsl #24
    311c:	0e001f00 	cdpeq	15, 0, cr1, cr0, cr0, {0}
    3120:	0002b504 	andeq	fp, r2, r4, lsl #10
    3124:	f2101400 	vshl.s16	d1, d0, d0
    3128:	0800000b 	stmdaeq	r0, {r0, r1, r3}
    312c:	02db7305 	sbcseq	r7, fp, #335544320	; 0x14000000
    3130:	bf0c0000 	svclt	0x000c0000
    3134:	05000009 	streq	r0, [r0, #-9]
    3138:	0002db74 	andeq	sp, r2, r4, ror fp
    313c:	230c0000 	movwcs	r0, #49152	; 0xc000
    3140:	05000009 	streq	r0, [r0, #-9]
    3144:	00002575 	andeq	r2, r0, r5, ror r5
    3148:	0e000400 	cfcpyseq	mvf0, mvf0
    314c:	00005404 	andeq	r5, r0, r4, lsl #8
    3150:	0c111000 	ldceq	0, cr1, [r1], {-0}
    3154:	05680000 	strbeq	r0, [r8, #-0]!
    3158:	00040bb3 			; <UNDEFINED> instruction: 0x00040bb3
    315c:	705f1100 	subsvc	r1, pc, r0, lsl #2
    3160:	dbb40500 	blle	fed04568 <__bss_end__+0xfecfa5a8>
    3164:	00000002 	andeq	r0, r0, r2
    3168:	00725f11 	rsbseq	r5, r2, r1, lsl pc
    316c:	0025b505 	eoreq	fp, r5, r5, lsl #10
    3170:	11040000 	mrsne	r0, (UNDEF: 4)
    3174:	0500775f 	streq	r7, [r0, #-1887]	; 0x75f
    3178:	000025b6 			; <UNDEFINED> instruction: 0x000025b6
    317c:	f70c0800 			; <UNDEFINED> instruction: 0xf70c0800
    3180:	05000009 	streq	r0, [r0, #-9]
    3184:	00003fb7 			; <UNDEFINED> instruction: 0x00003fb7
    3188:	0a0c0c00 	beq	306190 <__bss_end__+0x2fc1d0>
    318c:	0500000b 	streq	r0, [r0, #-11]
    3190:	00003fb8 			; <UNDEFINED> instruction: 0x00003fb8
    3194:	5f110e00 	svcpl	0x00110e00
    3198:	05006662 	streq	r6, [r0, #-1634]	; 0x662
    319c:	0002b6b9 			; <UNDEFINED> instruction: 0x0002b6b9
    31a0:	660c1000 	strvs	r1, [ip], -r0
    31a4:	05000009 	streq	r0, [r0, #-9]
    31a8:	000025ba 			; <UNDEFINED> instruction: 0x000025ba
    31ac:	e70c1800 	str	r1, [ip, -r0, lsl #16]
    31b0:	05000009 	streq	r0, [r0, #-9]
    31b4:	00010ac1 	andeq	r0, r1, r1, asr #21
    31b8:	8e0c1c00 	cdphi	12, 0, cr1, cr12, cr0, {0}
    31bc:	0500000e 	streq	r0, [r0, #-14]
    31c0:	000566c3 	andeq	r6, r5, r3, asr #13
    31c4:	a80c2000 	stmdage	ip, {sp}
    31c8:	0500000e 	streq	r0, [r0, #-14]
    31cc:	000590c5 	andeq	r9, r5, r5, asr #1
    31d0:	830c2400 	movwhi	r2, #50176	; 0xc400
    31d4:	0500000c 	streq	r0, [r0, #-12]
    31d8:	0005b4c8 	andeq	fp, r5, r8, asr #9
    31dc:	480c2800 	stmdami	ip, {fp, sp}
    31e0:	0500000e 	streq	r0, [r0, #-14]
    31e4:	0005cec9 	andeq	ip, r5, r9, asr #29
    31e8:	5f112c00 	svcpl	0x00112c00
    31ec:	05006275 	streq	r6, [r0, #-629]	; 0x275
    31f0:	0002b6cc 	andeq	fp, r2, ip, asr #13
    31f4:	5f113000 	svcpl	0x00113000
    31f8:	05007075 	streq	r7, [r0, #-117]	; 0x75
    31fc:	0002dbcd 	andeq	sp, r2, sp, asr #23
    3200:	5f113800 	svcpl	0x00113800
    3204:	05007275 	streq	r7, [r0, #-629]	; 0x275
    3208:	000025ce 	andeq	r2, r0, lr, asr #11
    320c:	aa0c3c00 	bge	312214 <__bss_end__+0x308254>
    3210:	05000009 	streq	r0, [r0, #-9]
    3214:	0005d4d1 	ldrdeq	sp, [r5], -r1
    3218:	f30c4000 	vhadd.u8	d4, d12, d0
    321c:	0500000d 	streq	r0, [r0, #-13]
    3220:	0005e4d2 	ldrdeq	lr, [r5], -r2
    3224:	5f114300 	svcpl	0x00114300
    3228:	0500626c 	streq	r6, [r0, #-620]	; 0x26c
    322c:	0002b6d5 	ldrdeq	fp, [r2], -r5
    3230:	0d0c4400 	cfstrseq	mvf4, [ip, #-0]
    3234:	0500000a 	streq	r0, [r0, #-10]
    3238:	000025d8 	ldrdeq	r2, [r0], -r8
    323c:	750c4c00 	strvc	r4, [ip, #-3072]	; 0xc00
    3240:	0500000b 	streq	r0, [r0, #-11]
    3244:	00007bd9 	ldrdeq	r7, [r0], -r9
    3248:	de0c5000 	cdple	0, 0, cr5, cr12, cr0, {0}
    324c:	0500000d 	streq	r0, [r0, #-13]
    3250:	000429dc 	ldrdeq	r2, [r4], -ip
    3254:	5d0c5400 	cfstrspl	mvf5, [ip, #-0]
    3258:	0500000b 	streq	r0, [r0, #-11]
    325c:	0000ffe0 	andeq	pc, r0, r0, ror #31
    3260:	190c5800 	stmdbne	ip, {fp, ip, lr}
    3264:	0500000c 	streq	r0, [r0, #-12]
    3268:	0000f4e2 	andeq	pc, r0, r2, ror #9
    326c:	630c5c00 	movwvs	r5, #52224	; 0xcc00
    3270:	0500000b 	streq	r0, [r0, #-11]
    3274:	000025e3 	andeq	r2, r0, r3, ror #11
    3278:	15006400 	strne	r6, [r0, #-1024]	; 0x400
    327c:	00000025 	andeq	r0, r0, r5, lsr #32
    3280:	00000429 	andeq	r0, r0, r9, lsr #8
    3284:	00042916 	andeq	r2, r4, r6, lsl r9
    3288:	010a1600 	tsteq	sl, r0, lsl #12
    328c:	0c160000 	ldceq	0, cr0, [r6], {-0}
    3290:	16000001 	strne	r0, [r0], -r1
    3294:	00000025 	andeq	r0, r0, r5, lsr #32
    3298:	34040e00 	strcc	r0, [r4], #-3584	; 0xe00
    329c:	0f000004 	svceq	0x00000004
    32a0:	00000429 	andeq	r0, r0, r9, lsr #8
    32a4:	000c6617 	andeq	r6, ip, r7, lsl r6
    32a8:	05042800 	streq	r2, [r4, #-2048]	; 0x800
    32ac:	05660238 	strbeq	r0, [r6, #-568]!	; 0x238
    32b0:	e1180000 	tst	r8, r0
    32b4:	0500000b 	streq	r0, [r0, #-11]
    32b8:	0025023a 	eoreq	r0, r5, sl, lsr r2
    32bc:	18000000 	stmdane	r0, {}	; <UNPREDICTABLE>
    32c0:	00000a06 	andeq	r0, r0, r6, lsl #20
    32c4:	3b023f05 	blcc	92ee0 <__bss_end__+0x88f20>
    32c8:	04000006 	streq	r0, [r0], #-6
    32cc:	000afa18 	andeq	pc, sl, r8, lsl sl	; <UNPREDICTABLE>
    32d0:	023f0500 	eorseq	r0, pc, #0, 10
    32d4:	0000063b 	andeq	r0, r0, fp, lsr r6
    32d8:	0abb1808 	beq	feec9300 <__bss_end__+0xfeebf340>
    32dc:	3f050000 	svccc	0x00050000
    32e0:	00063b02 	andeq	r3, r6, r2, lsl #22
    32e4:	3a180c00 	bcc	6062ec <__bss_end__+0x5fc32c>
    32e8:	0500000c 	streq	r0, [r0, #-12]
    32ec:	00250241 	eoreq	r0, r5, r1, asr #4
    32f0:	18100000 	ldmdane	r0, {}	; <UNPREDICTABLE>
    32f4:	00000931 	andeq	r0, r0, r1, lsr r9
    32f8:	1d024205 	sfmne	f4, 4, [r2, #-20]	; 0xffffffec
    32fc:	14000008 	strne	r0, [r0], #-8
    3300:	000d5818 	andeq	r5, sp, r8, lsl r8
    3304:	02440500 	subeq	r0, r4, #0, 10
    3308:	00000025 	andeq	r0, r0, r5, lsr #32
    330c:	0c441830 	mcrreq	8, 3, r1, r4, cr0
    3310:	45050000 	strmi	r0, [r5, #-0]
    3314:	00058a02 	andeq	r8, r5, r2, lsl #20
    3318:	a7183400 	ldrge	r3, [r8, -r0, lsl #8]
    331c:	0500000b 	streq	r0, [r0, #-11]
    3320:	00250247 	eoreq	r0, r5, r7, asr #4
    3324:	18380000 	ldmdane	r8!, {}	; <UNPREDICTABLE>
    3328:	00000c54 	andeq	r0, r0, r4, asr ip
    332c:	38024905 	stmdacc	r2, {r0, r2, r8, fp, lr}
    3330:	3c000008 	stccc	0, cr0, [r0], {8}
    3334:	000b3918 	andeq	r3, fp, r8, lsl r9
    3338:	024c0500 	subeq	r0, ip, #0, 10
    333c:	0000017c 	andeq	r0, r0, ip, ror r1
    3340:	0ada1840 	beq	ff689448 <__bss_end__+0xff67f488>
    3344:	4d050000 	stcmi	0, cr0, [r5, #-0]
    3348:	00002502 	andeq	r2, r0, r2, lsl #10
    334c:	62184400 	andsvs	r4, r8, #0, 8
    3350:	0500000e 	streq	r0, [r0, #-14]
    3354:	017c024e 	cmneq	ip, lr, asr #4
    3358:	18480000 	stmdane	r8, {}^	; <UNPREDICTABLE>
    335c:	00000bbe 			; <UNDEFINED> instruction: 0x00000bbe
    3360:	3e024f05 	cdpcc	15, 0, cr4, cr2, cr5, {0}
    3364:	4c000008 	stcmi	0, cr0, [r0], {8}
    3368:	000b0218 	andeq	r0, fp, r8, lsl r2
    336c:	02520500 	subseq	r0, r2, #0, 10
    3370:	00000025 	andeq	r0, r0, r5, lsr #32
    3374:	0a291850 	beq	a494bc <__bss_end__+0xa3f4fc>
    3378:	53050000 	movwpl	r0, #20480	; 0x5000
    337c:	00010c02 	andeq	r0, r1, r2, lsl #24
    3380:	da185400 	ble	618388 <__bss_end__+0x60e3c8>
    3384:	0500000b 	streq	r0, [r0, #-11]
    3388:	07fb0276 			; <UNDEFINED> instruction: 0x07fb0276
    338c:	19580000 	ldmdbne	r8, {}^	; <UNPREDICTABLE>
    3390:	00000b9f 	muleq	r0, pc, fp	; <UNPREDICTABLE>
    3394:	99027a05 	stmdbls	r2, {r0, r2, r9, fp, ip, sp, lr}
    3398:	48000002 	stmdami	r0, {r1}
    339c:	0b171901 	bleq	5c97a8 <__bss_end__+0x5bf7e8>
    33a0:	7b050000 	blvc	1433a8 <__bss_end__+0x1393e8>
    33a4:	00025b02 	andeq	r5, r2, r2, lsl #22
    33a8:	19014c00 	stmdbne	r1, {sl, fp, lr}
    33ac:	00000dc4 	andeq	r0, r0, r4, asr #27
    33b0:	4f027f05 	svcmi	0x00027f05
    33b4:	dc000008 	stcle	0, cr0, [r0], {8}
    33b8:	09ef1902 	stmibeq	pc!, {r1, r8, fp, ip}^	; <UNPREDICTABLE>
    33bc:	84050000 	strhi	r0, [r5], #-0
    33c0:	00060002 	andeq	r0, r6, r2
    33c4:	1902e000 	stmdbne	r2, {sp, lr, pc}
    33c8:	000009d4 	ldrdeq	r0, [r0], -r4
    33cc:	5b028505 	blpl	a47e8 <__bss_end__+0x9a828>
    33d0:	ec000008 	stc	0, cr0, [r0], {8}
    33d4:	040e0002 	streq	r0, [lr], #-2
    33d8:	0000040b 	andeq	r0, r0, fp, lsl #8
    33dc:	00002515 	andeq	r2, r0, r5, lsl r5
    33e0:	00058a00 	andeq	r8, r5, r0, lsl #20
    33e4:	04291600 	strteq	r1, [r9], #-1536	; 0x600
    33e8:	0a160000 	beq	5833f0 <__bss_end__+0x579430>
    33ec:	16000001 	strne	r0, [r0], -r1
    33f0:	0000058a 	andeq	r0, r0, sl, lsl #11
    33f4:	00002516 	andeq	r2, r0, r6, lsl r5
    33f8:	040e0000 	streq	r0, [lr], #-0
    33fc:	00000119 	andeq	r0, r0, r9, lsl r1
    3400:	056c040e 	strbeq	r0, [ip, #-1038]!	; 0x40e
    3404:	86150000 	ldrhi	r0, [r5], -r0
    3408:	b4000000 	strlt	r0, [r0], #-0
    340c:	16000005 	strne	r0, [r0], -r5
    3410:	00000429 	andeq	r0, r0, r9, lsr #8
    3414:	00010a16 	andeq	r0, r1, r6, lsl sl
    3418:	00861600 	addeq	r1, r6, r0, lsl #12
    341c:	25160000 	ldrcs	r0, [r6, #-0]
    3420:	00000000 	andeq	r0, r0, r0
    3424:	0596040e 	ldreq	r0, [r6, #1038]	; 0x40e
    3428:	25150000 	ldrcs	r0, [r5, #-0]
    342c:	ce000000 	cdpgt	0, 0, cr0, cr0, cr0, {0}
    3430:	16000005 	strne	r0, [r0], -r5
    3434:	00000429 	andeq	r0, r0, r9, lsr #8
    3438:	00010a16 	andeq	r0, r1, r6, lsl sl
    343c:	040e0000 	streq	r0, [lr], #-0
    3440:	000005ba 			; <UNDEFINED> instruction: 0x000005ba
    3444:	00005409 	andeq	r5, r0, r9, lsl #8
    3448:	0005e400 	andeq	lr, r5, r0, lsl #8
    344c:	00cc0a00 	sbceq	r0, ip, r0, lsl #20
    3450:	00020000 	andeq	r0, r2, r0
    3454:	00005409 	andeq	r5, r0, r9, lsl #8
    3458:	0005f400 	andeq	pc, r5, r0, lsl #8
    345c:	00cc0a00 	sbceq	r0, ip, r0, lsl #20
    3460:	00000000 	andeq	r0, r0, r0
    3464:	000bff06 	andeq	pc, fp, r6, lsl #30
    3468:	011d0500 	tsteq	sp, r0, lsl #10
    346c:	000002e1 	andeq	r0, r0, r1, ror #5
    3470:	000d861a 	andeq	r8, sp, sl, lsl r6
    3474:	21050c00 	tstcs	r5, r0, lsl #24
    3478:	00063501 	andeq	r3, r6, r1, lsl #10
    347c:	0c271800 	stceq	8, cr1, [r7], #-0
    3480:	23050000 	movwcs	r0, #20480	; 0x5000
    3484:	00063501 	andeq	r3, r6, r1, lsl #10
    3488:	10180000 	andsne	r0, r8, r0
    348c:	0500000b 	streq	r0, [r0, #-11]
    3490:	00250124 	eoreq	r0, r5, r4, lsr #2
    3494:	18040000 	stmdane	r4, {}	; <UNPREDICTABLE>
    3498:	00000bf9 	strdeq	r0, [r0], -r9
    349c:	3b012505 	blcc	4c8b8 <__bss_end__+0x428f8>
    34a0:	08000006 	stmdaeq	r0, {r1, r2}
    34a4:	00040e00 	andeq	r0, r4, r0, lsl #28
    34a8:	0e000006 	cdpeq	0, 0, cr0, cr0, cr6, {0}
    34ac:	0005f404 	andeq	pc, r5, r4, lsl #8
    34b0:	09291a00 	stmdbeq	r9!, {r9, fp, ip}
    34b4:	050e0000 	streq	r0, [lr, #-0]
    34b8:	0676013d 			; <UNDEFINED> instruction: 0x0676013d
    34bc:	6d180000 	ldcvs	0, cr0, [r8, #-0]
    34c0:	0500000c 	streq	r0, [r0, #-12]
    34c4:	0676013e 			; <UNDEFINED> instruction: 0x0676013e
    34c8:	18000000 	stmdane	r0, {}	; <UNPREDICTABLE>
    34cc:	00000ca7 	andeq	r0, r0, r7, lsr #25
    34d0:	76013f05 	strvc	r3, [r1], -r5, lsl #30
    34d4:	06000006 	streq	r0, [r0], -r6
    34d8:	000d2b18 	andeq	r2, sp, r8, lsl fp
    34dc:	01400500 	cmpeq	r0, r0, lsl #10
    34e0:	0000005b 	andeq	r0, r0, fp, asr r0
    34e4:	5b09000c 	blpl	24351c <__bss_end__+0x23955c>
    34e8:	86000000 	strhi	r0, [r0], -r0
    34ec:	0a000006 	beq	350c <__code_start__-0x4af4>
    34f0:	000000cc 	andeq	r0, r0, ip, asr #1
    34f4:	d01b0002 	andsle	r0, fp, r2
    34f8:	87025705 	strhi	r5, [r2, -r5, lsl #14]
    34fc:	18000007 	stmdane	r0, {r0, r1, r2}
    3500:	00000d6a 	andeq	r0, r0, sl, ror #26
    3504:	2c025905 	stccs	9, cr5, [r2], {5}
    3508:	00000000 	andeq	r0, r0, r0
    350c:	000d1518 	andeq	r1, sp, r8, lsl r5
    3510:	025a0500 	subseq	r0, sl, #0, 10
    3514:	0000010c 	andeq	r0, r0, ip, lsl #2
    3518:	0b2c1804 	bleq	b09530 <__bss_end__+0xaff570>
    351c:	5b050000 	blpl	143524 <__bss_end__+0x139564>
    3520:	00078702 	andeq	r8, r7, r2, lsl #14
    3524:	39180800 	ldmdbcc	r8, {fp}
    3528:	0500000e 	streq	r0, [r0, #-14]
    352c:	0192025c 	orrseq	r0, r2, ip, asr r2
    3530:	18240000 	stmdane	r4!, {}	; <UNPREDICTABLE>
    3534:	00000acb 	andeq	r0, r0, fp, asr #21
    3538:	25025d05 	strcs	r5, [r2, #-3333]	; 0xd05
    353c:	48000000 	stmdami	r0, {}	; <UNPREDICTABLE>
    3540:	000c2218 	andeq	r2, ip, r8, lsl r2
    3544:	025e0500 	subseq	r0, lr, #0, 10
    3548:	00000069 	andeq	r0, r0, r9, rrx
    354c:	0e4f1850 	mcreq	8, 2, r1, cr15, cr0, {2}
    3550:	5f050000 	svcpl	0x00050000
    3554:	00064102 	andeq	r4, r6, r2, lsl #2
    3558:	2d185800 	ldccs	8, cr5, [r8, #-0]
    355c:	0500000c 	streq	r0, [r0, #-12]
    3560:	00f40260 	rscseq	r0, r4, r0, ror #4
    3564:	18680000 	stmdane	r8!, {}^	; <UNPREDICTABLE>
    3568:	00000e54 	andeq	r0, r0, r4, asr lr
    356c:	f4026105 	vst4.8	{d6,d8,d10,d12}, [r2], r5
    3570:	70000000 	andvc	r0, r0, r0
    3574:	00098e18 	andeq	r8, r9, r8, lsl lr
    3578:	02620500 	rsbeq	r0, r2, #0, 10
    357c:	000000f4 	strdeq	r0, [r0], -r4
    3580:	0da61878 	stceq	8, cr1, [r6, #480]!	; 0x1e0
    3584:	63050000 	movwvs	r0, #20480	; 0x5000
    3588:	00079702 	andeq	r9, r7, r2, lsl #14
    358c:	20188000 	andscs	r8, r8, r0
    3590:	0500000b 	streq	r0, [r0, #-11]
    3594:	07a70264 	streq	r0, [r7, r4, ror #4]!
    3598:	18880000 	stmne	r8, {}	; <UNPREDICTABLE>
    359c:	00000d38 	andeq	r0, r0, r8, lsr sp
    35a0:	25026505 	strcs	r6, [r2, #-1285]	; 0x505
    35a4:	a0000000 	andge	r0, r0, r0
    35a8:	000a7718 	andeq	r7, sl, r8, lsl r7
    35ac:	02660500 	rsbeq	r0, r6, #0, 10
    35b0:	000000f4 	strdeq	r0, [r0], -r4
    35b4:	097f18a4 	ldmdbeq	pc!, {r2, r5, r7, fp, ip}^	; <UNPREDICTABLE>
    35b8:	67050000 	strvs	r0, [r5, -r0]
    35bc:	0000f402 	andeq	pc, r0, r2, lsl #8
    35c0:	6618ac00 	ldrvs	sl, [r8], -r0, lsl #24
    35c4:	0500000a 	streq	r0, [r0, #-10]
    35c8:	00f40268 	rscseq	r0, r4, r8, ror #4
    35cc:	18b40000 	ldmne	r4!, {}	; <UNPREDICTABLE>
    35d0:	00000946 	andeq	r0, r0, r6, asr #18
    35d4:	f4026905 	vst2.8	{d6,d8}, [r2], r5
    35d8:	bc000000 	stclt	0, cr0, [r0], {-0}
    35dc:	00095518 	andeq	r5, r9, r8, lsl r5
    35e0:	026a0500 	rsbeq	r0, sl, #0, 10
    35e4:	000000f4 	strdeq	r0, [r0], -r4
    35e8:	0bdf18c4 	bleq	ff7c9900 <__bss_end__+0xff7bf940>
    35ec:	6b050000 	blvs	1435f4 <__bss_end__+0x139634>
    35f0:	00002502 	andeq	r2, r0, r2, lsl #10
    35f4:	0900cc00 	stmdbeq	r0, {sl, fp, lr, pc}
    35f8:	00000112 	andeq	r0, r0, r2, lsl r1
    35fc:	00000797 	muleq	r0, r7, r7
    3600:	0000cc0a 	andeq	ip, r0, sl, lsl #24
    3604:	09001900 	stmdbeq	r0, {r8, fp, ip}
    3608:	00000112 	andeq	r0, r0, r2, lsl r1
    360c:	000007a7 	andeq	r0, r0, r7, lsr #15
    3610:	0000cc0a 	andeq	ip, r0, sl, lsl #24
    3614:	09000700 	stmdbeq	r0, {r8, r9, sl}
    3618:	00000112 	andeq	r0, r0, r2, lsl r1
    361c:	000007b7 			; <UNDEFINED> instruction: 0x000007b7
    3620:	0000cc0a 	andeq	ip, r0, sl, lsl #24
    3624:	1b001700 	blne	922c <PUT8+0x4>
    3628:	027005f0 	rsbseq	r0, r0, #240, 10	; 0x3c000000
    362c:	000007db 	ldrdeq	r0, [r0], -fp
    3630:	000b8f18 	andeq	r8, fp, r8, lsl pc
    3634:	02730500 	rsbseq	r0, r3, #0, 10
    3638:	000007db 	ldrdeq	r0, [r0], -fp
    363c:	0d9d1800 	ldceq	8, cr1, [sp]
    3640:	74050000 	strvc	r0, [r5], #-0
    3644:	0007eb02 	andeq	lr, r7, r2, lsl #22
    3648:	09007800 	stmdbeq	r0, {fp, ip, sp, lr}
    364c:	000002db 	ldrdeq	r0, [r0], -fp
    3650:	000007eb 	andeq	r0, r0, fp, ror #15
    3654:	0000cc0a 	andeq	ip, r0, sl, lsl #24
    3658:	09001d00 	stmdbeq	r0, {r8, sl, fp, ip}
    365c:	0000002c 	andeq	r0, r0, ip, lsr #32
    3660:	000007fb 	strdeq	r0, [r0], -fp
    3664:	0000cc0a 	andeq	ip, r0, sl, lsl #24
    3668:	1c001d00 	stcne	13, cr1, [r0], {-0}
    366c:	025505f0 	subseq	r0, r5, #240, 10	; 0x3c000000
    3670:	0000081d 	andeq	r0, r0, sp, lsl r8
    3674:	000c661d 	andeq	r6, ip, sp, lsl r6
    3678:	026c0500 	rsbeq	r0, ip, #0, 10
    367c:	00000686 	andeq	r0, r0, r6, lsl #13
    3680:	000df91d 	andeq	pc, sp, sp, lsl r9	; <UNPREDICTABLE>
    3684:	02750500 	rsbseq	r0, r5, #0, 10
    3688:	000007b7 			; <UNDEFINED> instruction: 0x000007b7
    368c:	01120900 	tsteq	r2, r0, lsl #18
    3690:	082d0000 	stmdaeq	sp!, {}	; <UNPREDICTABLE>
    3694:	cc0a0000 	stcgt	0, cr0, [sl], {-0}
    3698:	18000000 	stmdane	r0, {}	; <UNPREDICTABLE>
    369c:	08381e00 	ldmdaeq	r8!, {r9, sl, fp, ip}
    36a0:	29160000 	ldmdbcs	r6, {}	; <UNPREDICTABLE>
    36a4:	00000004 	andeq	r0, r0, r4
    36a8:	082d040e 	stmdaeq	sp!, {r1, r2, r3, sl}
    36ac:	040e0000 	streq	r0, [lr], #-0
    36b0:	0000017c 	andeq	r0, r0, ip, ror r1
    36b4:	00084f1e 	andeq	r4, r8, lr, lsl pc
    36b8:	00251600 	eoreq	r1, r5, r0, lsl #12
    36bc:	0e000000 	cdpeq	0, 0, cr0, cr0, cr0, {0}
    36c0:	00085504 	andeq	r5, r8, r4, lsl #10
    36c4:	44040e00 	strmi	r0, [r4], #-3584	; 0xe00
    36c8:	09000008 	stmdbeq	r0, {r3}
    36cc:	000005f4 	strdeq	r0, [r0], -r4
    36d0:	0000086b 	andeq	r0, r0, fp, ror #16
    36d4:	0000cc0a 	andeq	ip, r0, sl, lsl #24
    36d8:	1f000200 	svcne	0x00000200
    36dc:	00000d4c 	andeq	r0, r0, ip, asr #26
    36e0:	2902fd05 	stmdbcs	r2, {r0, r2, r8, sl, fp, ip, sp, lr, pc}
    36e4:	1f000004 	svcne	0x00000004
    36e8:	00000d45 	andeq	r0, r0, r5, asr #26
    36ec:	2f02fe05 	svccs	0x0002fe05
    36f0:	15000004 	strne	r0, [r0, #-4]
    36f4:	00000025 	andeq	r0, r0, r5, lsr #32
    36f8:	00000892 	muleq	r0, r2, r8
    36fc:	00002516 	andeq	r2, r0, r6, lsl r5
    3700:	0c200000 	stceq	0, cr0, [r0], #-0
    3704:	06000005 	streq	r0, [r0], -r5
    3708:	00089d1d 	andeq	r9, r8, sp, lsl sp
    370c:	83040e00 	movwhi	r0, #19968	; 0x4e00
    3710:	15000008 	strne	r0, [r0, #-8]
    3714:	00000025 	andeq	r0, r0, r5, lsr #32
    3718:	000008b2 			; <UNDEFINED> instruction: 0x000008b2
    371c:	00058a16 	andeq	r8, r5, r6, lsl sl
    3720:	49200000 	stmdbmi	r0!, {}	; <UNPREDICTABLE>
    3724:	06000005 	streq	r0, [r0], -r5
    3728:	0008bd22 	andeq	fp, r8, r2, lsr #26
    372c:	a3040e00 	movwge	r0, #19968	; 0x4e00
    3730:	21000008 	tstcs	r0, r8
    3734:	00005401 	andeq	r5, r0, r1, lsl #8
    3738:	000c0800 	andeq	r0, ip, r0, lsl #16
    373c:	22000009 	andcs	r0, r0, #9
    3740:	0000096f 	andeq	r0, r0, pc, ror #18
    3744:	0d8c2200 	sfmeq	f2, 4, [ip]
    3748:	22010000 	andcs	r0, r1, #0
    374c:	00000de4 	andeq	r0, r0, r4, ror #27
    3750:	09b02204 	ldmibeq	r0!, {r2, r9, sp}
    3754:	22050000 	andcs	r0, r5, #0
    3758:	00000b47 	andeq	r0, r0, r7, asr #22
    375c:	0e012206 	cdpeq	2, 0, cr2, cr1, cr6, {0}
    3760:	22070000 	andcs	r0, r7, #0
    3764:	00000e10 	andeq	r0, r0, r0, lsl lr
    3768:	0e1f2203 	cdpeq	2, 1, cr2, cr15, cr3, {0}
    376c:	00020000 	andeq	r0, r2, r0
    3770:	000a1d10 	andeq	r1, sl, r0, lsl sp
    3774:	06072c00 	streq	r2, [r7], -r0, lsl #24
    3778:	00000990 	muleq	r0, r0, r9
    377c:	006f6911 	rsbeq	r6, pc, r1, lsl r9	; <UNPREDICTABLE>
    3780:	00330907 	eorseq	r0, r3, r7, lsl #18
    3784:	11000000 	mrsne	r0, (UNDEF: 0)
    3788:	00726569 	rsbseq	r6, r2, r9, ror #10
    378c:	00330a07 	eorseq	r0, r3, r7, lsl #20
    3790:	11040000 	mrsne	r0, (UNDEF: 4)
    3794:	00726969 	rsbseq	r6, r2, r9, ror #18
    3798:	00331107 	eorseq	r1, r3, r7, lsl #2
    379c:	11080000 	mrsne	r0, (UNDEF: 8)
    37a0:	0072636c 	rsbseq	r6, r2, ip, ror #6
    37a4:	00331307 	eorseq	r1, r3, r7, lsl #6
    37a8:	110c0000 	mrsne	r0, (UNDEF: 12)
    37ac:	0072636d 	rsbseq	r6, r2, sp, ror #6
    37b0:	00331407 	eorseq	r1, r3, r7, lsl #8
    37b4:	11100000 	tstne	r0, r0
    37b8:	0072736c 	rsbseq	r7, r2, ip, ror #6
    37bc:	00331507 	eorseq	r1, r3, r7, lsl #10
    37c0:	11140000 	tstne	r4, r0
    37c4:	0072736d 	rsbseq	r7, r2, sp, ror #6
    37c8:	00331607 	eorseq	r1, r3, r7, lsl #12
    37cc:	0c180000 	ldceq	0, cr0, [r8], {-0}
    37d0:	00000c9f 	muleq	r0, pc, ip	; <UNPREDICTABLE>
    37d4:	00331707 	eorseq	r1, r3, r7, lsl #14
    37d8:	0c1c0000 	ldceq	0, cr0, [ip], {-0}
    37dc:	000009c5 	andeq	r0, r0, r5, asr #19
    37e0:	00331b07 	eorseq	r1, r3, r7, lsl #22
    37e4:	0c200000 	stceq	0, cr0, [r0], #-0
    37e8:	000009a5 	andeq	r0, r0, r5, lsr #19
    37ec:	00331d07 	eorseq	r1, r3, r7, lsl #26
    37f0:	0c240000 	stceq	0, cr0, [r4], #-0
    37f4:	00000c89 	andeq	r0, r0, r9, lsl #25
    37f8:	00331e07 	eorseq	r1, r3, r7, lsl #28
    37fc:	00280000 	eoreq	r0, r8, r0
    3800:	000a8d23 	andeq	r8, sl, r3, lsr #26
    3804:	a5070100 	strge	r0, [r7, #-256]	; 0x100
    3808:	04000009 	streq	r0, [r0], #-9
    380c:	0e202150 	mcreq	1, 1, r2, cr0, cr0, {2}
    3810:	00003304 	andeq	r3, r0, r4, lsl #6
    3814:	099f0f00 	ldmibeq	pc, {r8, r9, sl, fp}	; <UNPREDICTABLE>
    3818:	b9230000 	stmdblt	r3!, {}	; <UNPREDICTABLE>
    381c:	0100000b 	tsteq	r0, fp
    3820:	0009bf28 	andeq	fp, r9, r8, lsr #30
    3824:	21504000 	cmpcs	r0, r0
    3828:	00040e20 	andeq	r0, r4, r0, lsr #28
    382c:	0f000009 	svceq	0x00000009
    3830:	000009b9 			; <UNDEFINED> instruction: 0x000009b9
    3834:	000dd624 	andeq	sp, sp, r4, lsr #12
    3838:	25a70100 	strcs	r0, [r7, #256]!	; 0x100
    383c:	b4000000 	strlt	r0, [r0], #-0
    3840:	10000093 	mulne	r0, r3, r0
    3844:	01000000 	mrseq	r0, (UNDEF: 0)
    3848:	0009f09c 	muleq	r9, ip, r0
    384c:	93bc2500 			; <UNDEFINED> instruction: 0x93bc2500
    3850:	0c9c0000 	ldceq	0, cr0, [ip], {0}
    3854:	c0250000 	eorgt	r0, r5, r0
    3858:	d2000093 	andle	r0, r0, #147	; 0x93
    385c:	0000000a 	andeq	r0, r0, sl
    3860:	0004f126 	andeq	pc, r4, r6, lsr #2
    3864:	849f0100 	ldrhi	r0, [pc], #256	; 386c <__code_start__-0x4794>
    3868:	30000093 	mulcc	r0, r3, r0
    386c:	01000000 	mrseq	r0, (UNDEF: 0)
    3870:	000a4e9c 	muleq	sl, ip, lr
    3874:	00632700 	rsbeq	r2, r3, r0, lsl #14
    3878:	002c9f01 	eoreq	r9, ip, r1, lsl #30
    387c:	0d3b0000 	ldceq	0, cr0, [fp, #-0]
    3880:	90250000 	eorls	r0, r5, r0
    3884:	9c000093 	stcls	0, cr0, [r0], {147}	; 0x93
    3888:	2500000c 	strcs	r0, [r0, #-12]
    388c:	00009394 	muleq	r0, r4, r3
    3890:	00000aa5 	andeq	r0, r0, r5, lsr #21
    3894:	0093a828 	addseq	sl, r3, r8, lsr #16
    3898:	000ca700 	andeq	sl, ip, r0, lsl #14
    389c:	000a4400 	andeq	r4, sl, r0, lsl #8
    38a0:	50012900 	andpl	r2, r1, r0, lsl #18
    38a4:	50400c05 	subpl	r0, r0, r5, lsl #24
    38a8:	01292021 	teqeq	r9, r1, lsr #32
    38ac:	00740551 	rsbseq	r0, r4, r1, asr r5
    38b0:	001aff08 	andseq	pc, sl, r8, lsl #30
    38b4:	0093ac25 	addseq	sl, r3, r5, lsr #24
    38b8:	000c9c00 	andeq	r9, ip, r0, lsl #24
    38bc:	f0240000 			; <UNDEFINED> instruction: 0xf0240000
    38c0:	0100000a 	tsteq	r0, sl
    38c4:	00002597 	muleq	r0, r7, r5
    38c8:	00935400 	addseq	r5, r3, r0, lsl #8
    38cc:	00003000 	andeq	r3, r0, r0
    38d0:	a59c0100 	ldrge	r0, [ip, #256]	; 0x100
    38d4:	2a00000a 	bcs	3904 <__code_start__-0x46fc>
    38d8:	9b010063 	blls	43a6c <__bss_end__+0x39aac>
    38dc:	00000025 	andeq	r0, r0, r5, lsr #32
    38e0:	5c255401 	cfstrspl	mvf5, [r5], #-4
    38e4:	9c000093 	stcls	0, cr0, [r0], {147}	; 0x93
    38e8:	2500000c 	strcs	r0, [r0, #-12]
    38ec:	00009360 	andeq	r9, r0, r0, ror #6
    38f0:	00000ad2 	ldrdeq	r0, [r0], -r2
    38f4:	00937028 	addseq	r7, r3, r8, lsr #32
    38f8:	000cb200 	andeq	fp, ip, r0, lsl #4
    38fc:	000a9b00 	andeq	r9, sl, r0, lsl #22
    3900:	50012900 	andpl	r2, r1, r0, lsl #18
    3904:	50400c05 	subpl	r0, r0, r5, lsl #24
    3908:	25002021 	strcs	r2, [r0, #-33]	; 0x21
    390c:	00009378 	andeq	r9, r0, r8, ror r3
    3910:	00000c9c 	muleq	r0, ip, ip
    3914:	0aa42400 	beq	fe90c91c <__bss_end__+0xfe90295c>
    3918:	88010000 	stmdahi	r1, {}	; <UNPREDICTABLE>
    391c:	00000025 	andeq	r0, r0, r5, lsr #32
    3920:	00009334 	andeq	r9, r0, r4, lsr r3
    3924:	00000020 	andeq	r0, r0, r0, lsr #32
    3928:	0ad29c01 	beq	ff4aa934 <__bss_end__+0xff4a0974>
    392c:	402b0000 	eormi	r0, fp, r0
    3930:	b2000093 	andlt	r0, r0, #147	; 0x93
    3934:	2900000c 	stmdbcs	r0, {r2, r3}
    3938:	0c055001 	stceq	0, cr5, [r5], {1}
    393c:	20215064 	eorcs	r5, r1, r4, rrx
    3940:	b6240000 	strtlt	r0, [r4], -r0
    3944:	0100000d 	tsteq	r0, sp
    3948:	0000257f 	andeq	r2, r0, pc, ror r5
    394c:	00931c00 	addseq	r1, r3, r0, lsl #24
    3950:	00001800 	andeq	r1, r0, r0, lsl #16
    3954:	ff9c0100 			; <UNDEFINED> instruction: 0xff9c0100
    3958:	2b00000a 	blcs	3988 <__code_start__-0x4678>
    395c:	00009328 	andeq	r9, r0, r8, lsr #6
    3960:	00000cb2 			; <UNDEFINED> instruction: 0x00000cb2
    3964:	05500129 	ldrbeq	r0, [r0, #-297]	; 0x129
    3968:	2150640c 	cmpcs	r0, ip, lsl #8
    396c:	26000020 	strcs	r0, [r0], -r0, lsr #32
    3970:	0000093c 	andeq	r0, r0, ip, lsr r9
    3974:	926c3a01 	rsbls	r3, ip, #4096	; 0x1000
    3978:	00b00000 	adcseq	r0, r0, r0
    397c:	9c010000 	stcls	0, cr0, [r1], {-0}
    3980:	00000c3d 	andeq	r0, r0, sp, lsr ip
    3984:	00927c28 	addseq	r7, r2, r8, lsr #24
    3988:	000cbd00 	andeq	fp, ip, r0, lsl #26
    398c:	000b2c00 	andeq	r2, fp, r0, lsl #24
    3990:	50012900 	andpl	r2, r1, r0, lsl #18
    3994:	01293e01 	teqeq	r9, r1, lsl #28
    3998:	00320151 	eorseq	r0, r2, r1, asr r1
    399c:	00928828 	addseq	r8, r2, r8, lsr #16
    39a0:	000cbd00 	andeq	fp, ip, r0, lsl #26
    39a4:	000b4400 	andeq	r4, fp, r0, lsl #8
    39a8:	50012900 	andpl	r2, r1, r0, lsl #18
    39ac:	01293f01 	teqeq	r9, r1, lsl #30
    39b0:	00320151 	eorseq	r0, r2, r1, asr r1
    39b4:	00928c25 	addseq	r8, r2, r5, lsr #24
    39b8:	000c9c00 	andeq	r9, ip, r0, lsl #24
    39bc:	92982800 	addsls	r2, r8, #0, 16
    39c0:	0c3d0000 	ldceq	0, cr0, [sp], #-0
    39c4:	0b690000 	bleq	1a439cc <__bss_end__+0x1a39a0c>
    39c8:	01290000 	teqeq	r9, r0
    39cc:	040c0550 	streq	r0, [ip], #-1360	; 0x550
    39d0:	29202150 	stmdbcs	r0!, {r4, r6, r8, sp}
    39d4:	31015101 	tstcc	r1, r1, lsl #2
    39d8:	929c2500 	addsls	r2, ip, #0, 10
    39dc:	0c9c0000 	ldceq	0, cr0, [ip], {0}
    39e0:	ac280000 	stcge	0, cr0, [r8], #-0
    39e4:	a7000092 			; <UNDEFINED> instruction: 0xa7000092
    39e8:	8b00000c 	blhi	3a20 <__code_start__-0x45e0>
    39ec:	2900000b 	stmdbcs	r0, {r0, r1, r3}
    39f0:	74025001 	strvc	r5, [r2], #-1
    39f4:	51012900 	tstpl	r1, r0, lsl #18
    39f8:	28003001 	stmdacs	r0, {r0, ip, sp}
    39fc:	000092b8 			; <UNDEFINED> instruction: 0x000092b8
    3a00:	00000ca7 	andeq	r0, r0, r7, lsr #25
    3a04:	00000ba7 	andeq	r0, r0, r7, lsr #23
    3a08:	05500129 	ldrbeq	r0, [r0, #-297]	; 0x129
    3a0c:	2150440c 	cmpcs	r0, ip, lsl #8
    3a10:	51012920 	tstpl	r1, r0, lsr #18
    3a14:	28003001 	stmdacs	r0, {r0, ip, sp}
    3a18:	000092c4 	andeq	r9, r0, r4, asr #5
    3a1c:	00000ca7 	andeq	r0, r0, r7, lsr #25
    3a20:	00000bc3 	andeq	r0, r0, r3, asr #23
    3a24:	05500129 	ldrbeq	r0, [r0, #-297]	; 0x129
    3a28:	21504c0c 	cmpcs	r0, ip, lsl #24
    3a2c:	51012920 	tstpl	r1, r0, lsr #18
    3a30:	28003301 	stmdacs	r0, {r0, r8, r9, ip, sp}
    3a34:	000092d0 	ldrdeq	r9, [r0], -r0
    3a38:	00000ca7 	andeq	r0, r0, r7, lsr #25
    3a3c:	00000bdf 	ldrdeq	r0, [r0], -pc	; <UNPREDICTABLE>
    3a40:	05500129 	ldrbeq	r0, [r0, #-297]	; 0x129
    3a44:	2150500c 	cmpcs	r0, ip
    3a48:	51012920 	tstpl	r1, r0, lsr #18
    3a4c:	28003001 	stmdacs	r0, {r0, ip, sp}
    3a50:	000092dc 	ldrdeq	r9, [r0], -ip
    3a54:	00000ca7 	andeq	r0, r0, r7, lsr #25
    3a58:	00000bfc 	strdeq	r0, [r0], -ip
    3a5c:	05500129 	ldrbeq	r0, [r0, #-297]	; 0x129
    3a60:	2150480c 	cmpcs	r0, ip, lsl #16
    3a64:	51012920 	tstpl	r1, r0, lsr #18
    3a68:	00c70802 	sbceq	r0, r7, r2, lsl #16
    3a6c:	0092e828 	addseq	lr, r2, r8, lsr #16
    3a70:	000ca700 	andeq	sl, ip, r0, lsl #14
    3a74:	000c1a00 	andeq	r1, ip, r0, lsl #20
    3a78:	50012900 	andpl	r2, r1, r0, lsl #18
    3a7c:	50680c05 	rsbpl	r0, r8, r5, lsl #24
    3a80:	01292021 	teqeq	r9, r1, lsr #32
    3a84:	0e0a0351 	mcreq	3, 0, r0, cr10, cr1, {2}
    3a88:	f4280001 	vld4.8	{d0-d3}, [r8], r1
    3a8c:	a7000092 			; <UNDEFINED> instruction: 0xa7000092
    3a90:	3300000c 	movwcc	r0, #12
    3a94:	2900000c 	stmdbcs	r0, {r2, r3}
    3a98:	74025001 	strvc	r5, [r2], #-1
    3a9c:	51012900 	tstpl	r1, r0, lsl #18
    3aa0:	25003301 	strcs	r3, [r0, #-769]	; 0x301
    3aa4:	000092f8 	strdeq	r9, [r0], -r8
    3aa8:	00000c9c 	muleq	r0, ip, ip
    3aac:	0dce2c00 	stcleq	12, cr2, [lr]
    3ab0:	2d010000 	stccs	0, cr0, [r1, #-0]
    3ab4:	0000924c 	andeq	r9, r0, ip, asr #4
    3ab8:	00000020 	andeq	r0, r0, r0, lsr #32
    3abc:	0c959c01 	ldceq	12, cr9, [r5], {1}
    3ac0:	d72d0000 	strle	r0, [sp, -r0]!
    3ac4:	01000003 	tsteq	r0, r3
    3ac8:	000c952d 	andeq	r9, ip, sp, lsr #10
    3acc:	000d5900 	andeq	r5, sp, r0, lsl #18
    3ad0:	61762700 	cmnvs	r6, r0, lsl #14
    3ad4:	2d01006c 	stccs	0, cr0, [r1, #-432]	; 0xfffffe50
    3ad8:	0000002c 	andeq	r0, r0, ip, lsr #32
    3adc:	00000d77 	andeq	r0, r0, r7, ror sp
    3ae0:	00925c28 	addseq	r5, r2, r8, lsr #24
    3ae4:	000cb200 	andeq	fp, ip, r0, lsl #4
    3ae8:	000c8400 	andeq	r8, ip, r0, lsl #8
    3aec:	50012900 	andpl	r2, r1, r0, lsl #18
    3af0:	00007402 	andeq	r7, r0, r2, lsl #8
    3af4:	0092682b 	addseq	r6, r2, fp, lsr #16
    3af8:	000ca700 	andeq	sl, ip, r0, lsl #14
    3afc:	50012900 	andpl	r2, r1, r0, lsl #18
    3b00:	00007402 	andeq	r7, r0, r2, lsl #8
    3b04:	9b040e00 	blls	10730c <__bss_end__+0xfd34c>
    3b08:	2e00000c 	cdpcs	0, 0, cr0, cr0, cr12, {0}
    3b0c:	0007f22f 	andeq	pc, r7, pc, lsr #4
    3b10:	0007f200 	andeq	pc, r7, r0, lsl #4
    3b14:	2f890600 	svccs	0x00890600
    3b18:	00000cad 	andeq	r0, r0, sp, lsr #25
    3b1c:	00000cad 	andeq	r0, r0, sp, lsr #25
    3b20:	b02f9c06 	eorlt	r9, pc, r6, lsl #24
    3b24:	b000000d 	andlt	r0, r0, sp
    3b28:	0600000d 	streq	r0, [r0], -sp
    3b2c:	0b7d2fa8 	bleq	1f4f9d4 <__bss_end__+0x1f45a14>
    3b30:	0b7d0000 	bleq	1f43b38 <__bss_end__+0x1f39b78>
    3b34:	19080000 	stmdbne	r8, {}	; <UNPREDICTABLE>
    3b38:	000b7000 	andeq	r7, fp, r0
    3b3c:	23000400 	movwcs	r0, #1024	; 0x400
    3b40:	04000014 	streq	r0, [r0], #-20
    3b44:	000cb301 	andeq	fp, ip, r1, lsl #6
    3b48:	0e830c00 	cdpeq	12, 8, cr0, cr3, cr0, {0}
    3b4c:	0a310000 	beq	c43b54 <__bss_end__+0xc39b94>
    3b50:	93c40000 	bicls	r0, r4, #0
    3b54:	01200000 	teqeq	r0, r0
    3b58:	0fff0000 	svceq	0x00ff0000
    3b5c:	04020000 	streq	r0, [r2], #-0
    3b60:	746e6905 	strbtvc	r6, [lr], #-2309	; 0x905
    3b64:	07040300 	streq	r0, [r4, -r0, lsl #6]
    3b68:	000001cc 	andeq	r0, r0, ip, asr #3
    3b6c:	00002c04 	andeq	r2, r0, r4, lsl #24
    3b70:	06010300 	streq	r0, [r1], -r0, lsl #6
    3b74:	000000e4 	andeq	r0, r0, r4, ror #1
    3b78:	20050203 	andcs	r0, r5, r3, lsl #4
    3b7c:	03000002 	movweq	r0, #2
    3b80:	02000504 	andeq	r0, r0, #4, 10	; 0x1000000
    3b84:	08030000 	stmdaeq	r3, {}	; <UNPREDICTABLE>
    3b88:	0001fb05 	andeq	pc, r1, r5, lsl #22
    3b8c:	08010300 	stmdaeq	r1, {r8, r9}
    3b90:	000000e2 	andeq	r0, r0, r2, ror #1
    3b94:	4b070203 	blmi	1c43a8 <__bss_end__+0x1ba3e8>
    3b98:	03000000 	movweq	r0, #0
    3b9c:	01c70704 	biceq	r0, r7, r4, lsl #14
    3ba0:	08030000 	stmdaeq	r3, {}	; <UNPREDICTABLE>
    3ba4:	0001c207 	andeq	ip, r1, r7, lsl #4
    3ba8:	0bc80500 	bleq	ff204fb0 <__bss_end__+0xff1faff0>
    3bac:	07020000 	streq	r0, [r2, -r0]
    3bb0:	00000025 	andeq	r0, r0, r5, lsr #32
    3bb4:	000bb205 	andeq	fp, fp, r5, lsl #4
    3bb8:	462c0300 	strtmi	r0, [ip], -r0, lsl #6
    3bbc:	05000000 	streq	r0, [r0, #-0]
    3bc0:	00000c8e 	andeq	r0, r0, lr, lsl #25
    3bc4:	00467203 	subeq	r7, r6, r3, lsl #4
    3bc8:	56060000 	strpl	r0, [r6], -r0
    3bcc:	0400000b 	streq	r0, [r0], #-11
    3bd0:	002c0165 	eoreq	r0, ip, r5, ror #2
    3bd4:	04070000 	streq	r0, [r7], #-0
    3bd8:	00bca603 	adcseq	sl, ip, r3, lsl #12
    3bdc:	41080000 	mrsmi	r0, (UNDEF: 8)
    3be0:	0300000b 	movweq	r0, #11
    3be4:	000091a8 	andeq	r9, r0, r8, lsr #3
    3be8:	0ae90800 	beq	ffa45bf0 <__bss_end__+0xffa3bc30>
    3bec:	a9030000 	stmdbge	r3, {}	; <UNPREDICTABLE>
    3bf0:	000000bc 	strheq	r0, [r0], -ip
    3bf4:	00540900 	subseq	r0, r4, r0, lsl #18
    3bf8:	00cc0000 	sbceq	r0, ip, r0
    3bfc:	cc0a0000 	stcgt	0, cr0, [sl], {-0}
    3c00:	03000000 	movweq	r0, #0
    3c04:	07040300 	streq	r0, [r4, -r0, lsl #6]
    3c08:	000001e8 	andeq	r0, r0, r8, ror #3
    3c0c:	a303080b 	movwge	r0, #14347	; 0x380b
    3c10:	000000f4 	strdeq	r0, [r0], -r4
    3c14:	000c730c 	andeq	r7, ip, ip, lsl #6
    3c18:	25a50300 	strcs	r0, [r5, #768]!	; 0x300
    3c1c:	00000000 	andeq	r0, r0, r0
    3c20:	000c7b0c 	andeq	r7, ip, ip, lsl #22
    3c24:	9daa0300 	stcls	3, cr0, [sl]
    3c28:	04000000 	streq	r0, [r0], #-0
    3c2c:	0c060500 	cfstr32eq	mvfx0, [r6], {-0}
    3c30:	ab030000 	blge	c3c38 <__bss_end__+0xb9c78>
    3c34:	000000d3 	ldrdeq	r0, [r0], -r3
    3c38:	000ab205 	andeq	fp, sl, r5, lsl #4
    3c3c:	70af0300 	adcvc	r0, pc, r0, lsl #6
    3c40:	0d000000 	stceq	0, cr0, [r0, #-0]
    3c44:	12040e04 	andne	r0, r4, #4, 28	; 0x40
    3c48:	03000001 	movweq	r0, #1
    3c4c:	00eb0801 	rsceq	r0, fp, r1, lsl #16
    3c50:	12040000 	andne	r0, r4, #0
    3c54:	05000001 	streq	r0, [r0, #-1]
    3c58:	00000d30 	andeq	r0, r0, r0, lsr sp
    3c5c:	00621605 	rsbeq	r1, r2, r5, lsl #12
    3c60:	c30f0000 	movwgt	r0, #61440	; 0xf000
    3c64:	1800000a 	stmdane	r0, {r1, r3}
    3c68:	017c2d05 	cmneq	ip, r5, lsl #26
    3c6c:	270c0000 	strcs	r0, [ip, -r0]
    3c70:	0500000c 	streq	r0, [r0, #-12]
    3c74:	00017c2f 	andeq	r7, r1, pc, lsr #24
    3c78:	5f100000 	svcpl	0x00100000
    3c7c:	3005006b 	andcc	r0, r5, fp, rrx
    3c80:	00000025 	andeq	r0, r0, r5, lsr #32
    3c84:	0c5e0c04 	mrrceq	12, 0, r0, lr, cr4
    3c88:	30050000 	andcc	r0, r5, r0
    3c8c:	00000025 	andeq	r0, r0, r5, lsr #32
    3c90:	0a9e0c08 	beq	fe786cb8 <__bss_end__+0xfe77ccf8>
    3c94:	30050000 	andcc	r0, r5, r0
    3c98:	00000025 	andeq	r0, r0, r5, lsr #32
    3c9c:	0d770c0c 	ldcleq	12, cr0, [r7, #-48]!	; 0xffffffd0
    3ca0:	30050000 	andcc	r0, r5, r0
    3ca4:	00000025 	andeq	r0, r0, r5, lsr #32
    3ca8:	785f1010 	ldmdavc	pc, {r4, ip}^	; <UNPREDICTABLE>
    3cac:	82310500 	eorshi	r0, r1, #0, 10
    3cb0:	14000001 	strne	r0, [r0], #-1
    3cb4:	29040e00 	stmdbcs	r4, {r9, sl, fp}
    3cb8:	09000001 	stmdbeq	r0, {r0}
    3cbc:	0000011e 	andeq	r0, r0, lr, lsl r1
    3cc0:	00000192 	muleq	r0, r2, r1
    3cc4:	0000cc0a 	andeq	ip, r0, sl, lsl #24
    3cc8:	0f000000 	svceq	0x00000000
    3ccc:	00000ae4 	andeq	r0, r0, r4, ror #21
    3cd0:	0b350524 	bleq	d45168 <__bss_end__+0xd3b1a8>
    3cd4:	0c000002 	stceq	0, cr0, [r0], {2}
    3cd8:	0000099c 	muleq	r0, ip, r9
    3cdc:	00253705 	eoreq	r3, r5, r5, lsl #14
    3ce0:	0c000000 	stceq	0, cr0, [r0], {-0}
    3ce4:	00000c96 	muleq	r0, r6, ip
    3ce8:	00253805 	eoreq	r3, r5, r5, lsl #16
    3cec:	0c040000 	stceq	0, cr0, [r4], {-0}
    3cf0:	000009ca 	andeq	r0, r0, sl, asr #19
    3cf4:	00253905 	eoreq	r3, r5, r5, lsl #18
    3cf8:	0c080000 	stceq	0, cr0, [r8], {-0}
    3cfc:	00000e67 	andeq	r0, r0, r7, ror #28
    3d00:	00253a05 	eoreq	r3, r5, r5, lsl #20
    3d04:	0c0c0000 	stceq	0, cr0, [ip], {-0}
    3d08:	00000b96 	muleq	r0, r6, fp
    3d0c:	00253b05 	eoreq	r3, r5, r5, lsl #22
    3d10:	0c100000 	ldceq	0, cr0, [r0], {-0}
    3d14:	00000b6b 	andeq	r0, r0, fp, ror #22
    3d18:	00253c05 	eoreq	r3, r5, r5, lsl #24
    3d1c:	0c140000 	ldceq	0, cr0, [r4], {-0}
    3d20:	00000d7c 	andeq	r0, r0, ip, ror sp
    3d24:	00253d05 	eoreq	r3, r5, r5, lsl #26
    3d28:	0c180000 	ldceq	0, cr0, [r8], {-0}
    3d2c:	00000be8 	andeq	r0, r0, r8, ror #23
    3d30:	00253e05 	eoreq	r3, r5, r5, lsl #28
    3d34:	0c1c0000 	ldceq	0, cr0, [ip], {-0}
    3d38:	00000e2e 	andeq	r0, r0, lr, lsr #28
    3d3c:	00253f05 	eoreq	r3, r5, r5, lsl #30
    3d40:	00200000 	eoreq	r0, r0, r0
    3d44:	0009d911 	andeq	sp, r9, r1, lsl r9
    3d48:	05010800 	streq	r0, [r1, #-2048]	; 0x800
    3d4c:	00024b48 	andeq	r4, r2, r8, asr #22
    3d50:	0a850c00 	beq	fe146d58 <__bss_end__+0xfe13cd98>
    3d54:	49050000 	stmdbmi	r5, {}	; <UNPREDICTABLE>
    3d58:	0000024b 	andeq	r0, r0, fp, asr #4
    3d5c:	09170c00 	ldmdbeq	r7, {sl, fp}
    3d60:	4a050000 	bmi	143d68 <__bss_end__+0x139da8>
    3d64:	0000024b 	andeq	r0, r0, fp, asr #4
    3d68:	0d221280 	sfmeq	f1, 4, [r2, #-512]!	; 0xfffffe00
    3d6c:	4c050000 	stcmi	0, cr0, [r5], {-0}
    3d70:	0000011e 	andeq	r0, r0, lr, lsl r1
    3d74:	fe120100 	cdp2	1, 1, cr0, cr2, cr0, {0}
    3d78:	05000009 	streq	r0, [r0, #-9]
    3d7c:	00011e4f 	andeq	r1, r1, pc, asr #28
    3d80:	00010400 	andeq	r0, r1, r0, lsl #8
    3d84:	00010a09 	andeq	r0, r1, r9, lsl #20
    3d88:	00025b00 	andeq	r5, r2, r0, lsl #22
    3d8c:	00cc0a00 	sbceq	r0, ip, r0, lsl #20
    3d90:	001f0000 	andseq	r0, pc, r0
    3d94:	000b9f11 	andeq	r9, fp, r1, lsl pc
    3d98:	05019000 	streq	r9, [r1, #-0]
    3d9c:	0002995b 	andeq	r9, r2, fp, asr r9
    3da0:	0c270c00 	stceq	12, cr0, [r7], #-0
    3da4:	5c050000 	stcpl	0, cr0, [r5], {-0}
    3da8:	00000299 	muleq	r0, r9, r2
    3dac:	0c3f0c00 	ldceq	12, cr0, [pc], #-0	; 3db4 <__code_start__-0x424c>
    3db0:	5d050000 	stcpl	0, cr0, [r5, #-0]
    3db4:	00000025 	andeq	r0, r0, r5, lsr #32
    3db8:	0a990c04 	beq	fe646dd0 <__bss_end__+0xfe63ce10>
    3dbc:	5f050000 	svcpl	0x00050000
    3dc0:	0000029f 	muleq	r0, pc, r2	; <UNPREDICTABLE>
    3dc4:	09d90c08 	ldmibeq	r9, {r3, sl, fp}^
    3dc8:	60050000 	andvs	r0, r5, r0
    3dcc:	0000020b 	andeq	r0, r0, fp, lsl #4
    3dd0:	040e0088 	streq	r0, [lr], #-136	; 0x88
    3dd4:	0000025b 	andeq	r0, r0, fp, asr r2
    3dd8:	0002af09 	andeq	sl, r2, r9, lsl #30
    3ddc:	0002af00 	andeq	sl, r2, r0, lsl #30
    3de0:	00cc0a00 	sbceq	r0, ip, r0, lsl #20
    3de4:	001f0000 	andseq	r0, pc, r0
    3de8:	02b5040e 	adcseq	r0, r5, #234881024	; 0xe000000
    3dec:	0f130000 	svceq	0x00130000
    3df0:	00000bf2 	strdeq	r0, [r0], -r2
    3df4:	db730508 	blle	1cc521c <__bss_end__+0x1cbb25c>
    3df8:	0c000002 	stceq	0, cr0, [r0], {2}
    3dfc:	000009bf 			; <UNDEFINED> instruction: 0x000009bf
    3e00:	02db7405 	sbcseq	r7, fp, #83886080	; 0x5000000
    3e04:	0c000000 	stceq	0, cr0, [r0], {-0}
    3e08:	00000923 	andeq	r0, r0, r3, lsr #18
    3e0c:	00257505 	eoreq	r7, r5, r5, lsl #10
    3e10:	00040000 	andeq	r0, r4, r0
    3e14:	0054040e 	subseq	r0, r4, lr, lsl #8
    3e18:	110f0000 	mrsne	r0, CPSR
    3e1c:	6800000c 	stmdavs	r0, {r2, r3}
    3e20:	040bb305 	streq	fp, [fp], #-773	; 0x305
    3e24:	5f100000 	svcpl	0x00100000
    3e28:	b4050070 	strlt	r0, [r5], #-112	; 0x70
    3e2c:	000002db 	ldrdeq	r0, [r0], -fp
    3e30:	725f1000 	subsvc	r1, pc, #0
    3e34:	25b50500 	ldrcs	r0, [r5, #1280]!	; 0x500
    3e38:	04000000 	streq	r0, [r0], #-0
    3e3c:	00775f10 	rsbseq	r5, r7, r0, lsl pc
    3e40:	0025b605 	eoreq	fp, r5, r5, lsl #12
    3e44:	0c080000 	stceq	0, cr0, [r8], {-0}
    3e48:	000009f7 	strdeq	r0, [r0], -r7
    3e4c:	003fb705 	eorseq	fp, pc, r5, lsl #14
    3e50:	0c0c0000 	stceq	0, cr0, [ip], {-0}
    3e54:	00000b0a 	andeq	r0, r0, sl, lsl #22
    3e58:	003fb805 	eorseq	fp, pc, r5, lsl #16
    3e5c:	100e0000 	andne	r0, lr, r0
    3e60:	0066625f 	rsbeq	r6, r6, pc, asr r2
    3e64:	02b6b905 	adcseq	fp, r6, #81920	; 0x14000
    3e68:	0c100000 	ldceq	0, cr0, [r0], {-0}
    3e6c:	00000966 	andeq	r0, r0, r6, ror #18
    3e70:	0025ba05 	eoreq	fp, r5, r5, lsl #20
    3e74:	0c180000 	ldceq	0, cr0, [r8], {-0}
    3e78:	000009e7 	andeq	r0, r0, r7, ror #19
    3e7c:	010ac105 	tsteq	sl, r5, lsl #2
    3e80:	0c1c0000 	ldceq	0, cr0, [ip], {-0}
    3e84:	00000e8e 	andeq	r0, r0, lr, lsl #29
    3e88:	0566c305 	strbeq	ip, [r6, #-773]!	; 0x305
    3e8c:	0c200000 	stceq	0, cr0, [r0], #-0
    3e90:	00000ea8 	andeq	r0, r0, r8, lsr #29
    3e94:	0590c505 	ldreq	ip, [r0, #1285]	; 0x505
    3e98:	0c240000 	stceq	0, cr0, [r4], #-0
    3e9c:	00000c83 	andeq	r0, r0, r3, lsl #25
    3ea0:	05b4c805 	ldreq	ip, [r4, #2053]!	; 0x805
    3ea4:	0c280000 	stceq	0, cr0, [r8], #-0
    3ea8:	00000e48 	andeq	r0, r0, r8, asr #28
    3eac:	05cec905 	strbeq	ip, [lr, #2309]	; 0x905
    3eb0:	102c0000 	eorne	r0, ip, r0
    3eb4:	0062755f 	rsbeq	r7, r2, pc, asr r5
    3eb8:	02b6cc05 	adcseq	ip, r6, #1280	; 0x500
    3ebc:	10300000 	eorsne	r0, r0, r0
    3ec0:	0070755f 	rsbseq	r7, r0, pc, asr r5
    3ec4:	02dbcd05 	sbcseq	ip, fp, #320	; 0x140
    3ec8:	10380000 	eorsne	r0, r8, r0
    3ecc:	0072755f 	rsbseq	r7, r2, pc, asr r5
    3ed0:	0025ce05 	eoreq	ip, r5, r5, lsl #28
    3ed4:	0c3c0000 	ldceq	0, cr0, [ip], #-0
    3ed8:	000009aa 	andeq	r0, r0, sl, lsr #19
    3edc:	05d4d105 	ldrbeq	sp, [r4, #261]	; 0x105
    3ee0:	0c400000 	mareq	acc0, r0, r0
    3ee4:	00000df3 	strdeq	r0, [r0], -r3
    3ee8:	05e4d205 	strbeq	sp, [r4, #517]!	; 0x205
    3eec:	10430000 	subne	r0, r3, r0
    3ef0:	00626c5f 	rsbeq	r6, r2, pc, asr ip
    3ef4:	02b6d505 	adcseq	sp, r6, #20971520	; 0x1400000
    3ef8:	0c440000 	mareq	acc0, r0, r4
    3efc:	00000a0d 	andeq	r0, r0, sp, lsl #20
    3f00:	0025d805 	eoreq	sp, r5, r5, lsl #16
    3f04:	0c4c0000 	mareq	acc0, r0, ip
    3f08:	00000b75 	andeq	r0, r0, r5, ror fp
    3f0c:	007bd905 	rsbseq	sp, fp, r5, lsl #18
    3f10:	0c500000 	mraeq	r0, r0, acc0
    3f14:	00000dde 	ldrdeq	r0, [r0], -lr
    3f18:	0429dc05 	strteq	sp, [r9], #-3077	; 0xc05
    3f1c:	0c540000 	mraeq	r0, r4, acc0
    3f20:	00000b5d 	andeq	r0, r0, sp, asr fp
    3f24:	00ffe005 	rscseq	lr, pc, r5
    3f28:	0c580000 	mraeq	r0, r8, acc0
    3f2c:	00000c19 	andeq	r0, r0, r9, lsl ip
    3f30:	00f4e205 	rscseq	lr, r4, r5, lsl #4
    3f34:	0c5c0000 	mraeq	r0, ip, acc0
    3f38:	00000b63 	andeq	r0, r0, r3, ror #22
    3f3c:	0025e305 	eoreq	lr, r5, r5, lsl #6
    3f40:	00640000 	rsbeq	r0, r4, r0
    3f44:	00002514 	andeq	r2, r0, r4, lsl r5
    3f48:	00042900 	andeq	r2, r4, r0, lsl #18
    3f4c:	04291500 	strteq	r1, [r9], #-1280	; 0x500
    3f50:	0a150000 	beq	543f58 <__bss_end__+0x539f98>
    3f54:	15000001 	strne	r0, [r0, #-1]
    3f58:	0000010c 	andeq	r0, r0, ip, lsl #2
    3f5c:	00002515 	andeq	r2, r0, r5, lsl r5
    3f60:	040e0000 	streq	r0, [lr], #-0
    3f64:	00000434 	andeq	r0, r0, r4, lsr r4
    3f68:	00042904 	andeq	r2, r4, r4, lsl #18
    3f6c:	0c661600 	stcleq	6, cr1, [r6], #-0
    3f70:	04280000 	strteq	r0, [r8], #-0
    3f74:	66023805 	strvs	r3, [r2], -r5, lsl #16
    3f78:	17000005 	strne	r0, [r0, -r5]
    3f7c:	00000be1 	andeq	r0, r0, r1, ror #23
    3f80:	25023a05 	strcs	r3, [r2, #-2565]	; 0xa05
    3f84:	00000000 	andeq	r0, r0, r0
    3f88:	000a0617 	andeq	r0, sl, r7, lsl r6
    3f8c:	023f0500 	eorseq	r0, pc, #0, 10
    3f90:	0000063b 	andeq	r0, r0, fp, lsr r6
    3f94:	0afa1704 	beq	ffe89bac <__bss_end__+0xffe7fbec>
    3f98:	3f050000 	svccc	0x00050000
    3f9c:	00063b02 	andeq	r3, r6, r2, lsl #22
    3fa0:	bb170800 	bllt	5c5fa8 <__bss_end__+0x5bbfe8>
    3fa4:	0500000a 	streq	r0, [r0, #-10]
    3fa8:	063b023f 			; <UNDEFINED> instruction: 0x063b023f
    3fac:	170c0000 	strne	r0, [ip, -r0]
    3fb0:	00000c3a 	andeq	r0, r0, sl, lsr ip
    3fb4:	25024105 	strcs	r4, [r2, #-261]	; 0x105
    3fb8:	10000000 	andne	r0, r0, r0
    3fbc:	00093117 	andeq	r3, r9, r7, lsl r1
    3fc0:	02420500 	subeq	r0, r2, #0, 10
    3fc4:	0000081d 	andeq	r0, r0, sp, lsl r8
    3fc8:	0d581714 	ldcleq	7, cr1, [r8, #-80]	; 0xffffffb0
    3fcc:	44050000 	strmi	r0, [r5], #-0
    3fd0:	00002502 	andeq	r2, r0, r2, lsl #10
    3fd4:	44173000 	ldrmi	r3, [r7], #-0
    3fd8:	0500000c 	streq	r0, [r0, #-12]
    3fdc:	058a0245 	streq	r0, [sl, #581]	; 0x245
    3fe0:	17340000 	ldrne	r0, [r4, -r0]!
    3fe4:	00000ba7 	andeq	r0, r0, r7, lsr #23
    3fe8:	25024705 	strcs	r4, [r2, #-1797]	; 0x705
    3fec:	38000000 	stmdacc	r0, {}	; <UNPREDICTABLE>
    3ff0:	000c5417 	andeq	r5, ip, r7, lsl r4
    3ff4:	02490500 	subeq	r0, r9, #0, 10
    3ff8:	00000838 	andeq	r0, r0, r8, lsr r8
    3ffc:	0b39173c 	bleq	e49cf4 <__bss_end__+0xe3fd34>
    4000:	4c050000 	stcmi	0, cr0, [r5], {-0}
    4004:	00017c02 	andeq	r7, r1, r2, lsl #24
    4008:	da174000 	ble	5d4010 <__bss_end__+0x5ca050>
    400c:	0500000a 	streq	r0, [r0, #-10]
    4010:	0025024d 	eoreq	r0, r5, sp, asr #4
    4014:	17440000 	strbne	r0, [r4, -r0]
    4018:	00000e62 	andeq	r0, r0, r2, ror #28
    401c:	7c024e05 	stcvc	14, cr4, [r2], {5}
    4020:	48000001 	stmdami	r0, {r0}
    4024:	000bbe17 	andeq	fp, fp, r7, lsl lr
    4028:	024f0500 	subeq	r0, pc, #0, 10
    402c:	0000083e 	andeq	r0, r0, lr, lsr r8
    4030:	0b02174c 	bleq	89d68 <__bss_end__+0x7fda8>
    4034:	52050000 	andpl	r0, r5, #0
    4038:	00002502 	andeq	r2, r0, r2, lsl #10
    403c:	29175000 	ldmdbcs	r7, {ip, lr}
    4040:	0500000a 	streq	r0, [r0, #-10]
    4044:	010c0253 	tsteq	ip, r3, asr r2
    4048:	17540000 	ldrbne	r0, [r4, -r0]
    404c:	00000bda 	ldrdeq	r0, [r0], -sl
    4050:	fb027605 	blx	a186e <__bss_end__+0x978ae>
    4054:	58000007 	stmdapl	r0, {r0, r1, r2}
    4058:	000b9f18 	andeq	r9, fp, r8, lsl pc
    405c:	027a0500 	rsbseq	r0, sl, #0, 10
    4060:	00000299 	muleq	r0, r9, r2
    4064:	17180148 	ldrne	r0, [r8, -r8, asr #2]
    4068:	0500000b 	streq	r0, [r0, #-11]
    406c:	025b027b 	subseq	r0, fp, #-1342177273	; 0xb0000007
    4070:	014c0000 	mrseq	r0, (UNDEF: 76)
    4074:	000dc418 	andeq	ip, sp, r8, lsl r4
    4078:	027f0500 	rsbseq	r0, pc, #0, 10
    407c:	0000084f 	andeq	r0, r0, pc, asr #16
    4080:	ef1802dc 	svc	0x001802dc
    4084:	05000009 	streq	r0, [r0, #-9]
    4088:	06000284 	streq	r0, [r0], -r4, lsl #5
    408c:	02e00000 	rsceq	r0, r0, #0
    4090:	0009d418 	andeq	sp, r9, r8, lsl r4
    4094:	02850500 	addeq	r0, r5, #0, 10
    4098:	0000085b 	andeq	r0, r0, fp, asr r8
    409c:	0e0002ec 	cdpeq	2, 0, cr0, cr0, cr12, {7}
    40a0:	00040b04 	andeq	r0, r4, r4, lsl #22
    40a4:	00251400 	eoreq	r1, r5, r0, lsl #8
    40a8:	058a0000 	streq	r0, [sl]
    40ac:	29150000 	ldmdbcs	r5, {}	; <UNPREDICTABLE>
    40b0:	15000004 	strne	r0, [r0, #-4]
    40b4:	0000010a 	andeq	r0, r0, sl, lsl #2
    40b8:	00058a15 	andeq	r8, r5, r5, lsl sl
    40bc:	00251500 	eoreq	r1, r5, r0, lsl #10
    40c0:	0e000000 	cdpeq	0, 0, cr0, cr0, cr0, {0}
    40c4:	00011904 	andeq	r1, r1, r4, lsl #18
    40c8:	6c040e00 	stcvs	14, cr0, [r4], {-0}
    40cc:	14000005 	strne	r0, [r0], #-5
    40d0:	00000086 	andeq	r0, r0, r6, lsl #1
    40d4:	000005b4 			; <UNDEFINED> instruction: 0x000005b4
    40d8:	00042915 	andeq	r2, r4, r5, lsl r9
    40dc:	010a1500 	tsteq	sl, r0, lsl #10
    40e0:	86150000 	ldrhi	r0, [r5], -r0
    40e4:	15000000 	strne	r0, [r0, #-0]
    40e8:	00000025 	andeq	r0, r0, r5, lsr #32
    40ec:	96040e00 	strls	r0, [r4], -r0, lsl #28
    40f0:	14000005 	strne	r0, [r0], #-5
    40f4:	00000025 	andeq	r0, r0, r5, lsr #32
    40f8:	000005ce 	andeq	r0, r0, lr, asr #11
    40fc:	00042915 	andeq	r2, r4, r5, lsl r9
    4100:	010a1500 	tsteq	sl, r0, lsl #10
    4104:	0e000000 	cdpeq	0, 0, cr0, cr0, cr0, {0}
    4108:	0005ba04 	andeq	fp, r5, r4, lsl #20
    410c:	00540900 	subseq	r0, r4, r0, lsl #18
    4110:	05e40000 	strbeq	r0, [r4, #0]!
    4114:	cc0a0000 	stcgt	0, cr0, [sl], {-0}
    4118:	02000000 	andeq	r0, r0, #0
    411c:	00540900 	subseq	r0, r4, r0, lsl #18
    4120:	05f40000 	ldrbeq	r0, [r4, #0]!
    4124:	cc0a0000 	stcgt	0, cr0, [sl], {-0}
    4128:	00000000 	andeq	r0, r0, r0
    412c:	0bff0600 	bleq	fffc5934 <__bss_end__+0xfffbb974>
    4130:	1d050000 	stcne	0, cr0, [r5, #-0]
    4134:	0002e101 	andeq	lr, r2, r1, lsl #2
    4138:	0d861900 	stceq	9, cr1, [r6]
    413c:	050c0000 	streq	r0, [ip, #-0]
    4140:	06350121 	ldrteq	r0, [r5], -r1, lsr #2
    4144:	27170000 	ldrcs	r0, [r7, -r0]
    4148:	0500000c 	streq	r0, [r0, #-12]
    414c:	06350123 	ldrteq	r0, [r5], -r3, lsr #2
    4150:	17000000 	strne	r0, [r0, -r0]
    4154:	00000b10 	andeq	r0, r0, r0, lsl fp
    4158:	25012405 	strcs	r2, [r1, #-1029]	; 0x405
    415c:	04000000 	streq	r0, [r0], #-0
    4160:	000bf917 	andeq	pc, fp, r7, lsl r9	; <UNPREDICTABLE>
    4164:	01250500 	teqeq	r5, r0, lsl #10
    4168:	0000063b 	andeq	r0, r0, fp, lsr r6
    416c:	040e0008 	streq	r0, [lr], #-8
    4170:	00000600 	andeq	r0, r0, r0, lsl #12
    4174:	05f4040e 	ldrbeq	r0, [r4, #1038]!	; 0x40e
    4178:	29190000 	ldmdbcs	r9, {}	; <UNPREDICTABLE>
    417c:	0e000009 	cdpeq	0, 0, cr0, cr0, cr9, {0}
    4180:	76013d05 	strvc	r3, [r1], -r5, lsl #26
    4184:	17000006 	strne	r0, [r0, -r6]
    4188:	00000c6d 	andeq	r0, r0, sp, ror #24
    418c:	76013e05 	strvc	r3, [r1], -r5, lsl #28
    4190:	00000006 	andeq	r0, r0, r6
    4194:	000ca717 	andeq	sl, ip, r7, lsl r7
    4198:	013f0500 	teqeq	pc, r0, lsl #10
    419c:	00000676 	andeq	r0, r0, r6, ror r6
    41a0:	0d2b1706 	stceq	7, cr1, [fp, #-24]!	; 0xffffffe8
    41a4:	40050000 	andmi	r0, r5, r0
    41a8:	00005b01 	andeq	r5, r0, r1, lsl #22
    41ac:	09000c00 	stmdbeq	r0, {sl, fp}
    41b0:	0000005b 	andeq	r0, r0, fp, asr r0
    41b4:	00000686 	andeq	r0, r0, r6, lsl #13
    41b8:	0000cc0a 	andeq	ip, r0, sl, lsl #24
    41bc:	1a000200 	bne	49c4 <__code_start__-0x363c>
    41c0:	025705d0 	subseq	r0, r7, #208, 10	; 0x34000000
    41c4:	00000787 	andeq	r0, r0, r7, lsl #15
    41c8:	000d6a17 	andeq	r6, sp, r7, lsl sl
    41cc:	02590500 	subseq	r0, r9, #0, 10
    41d0:	0000002c 	andeq	r0, r0, ip, lsr #32
    41d4:	0d151700 	ldceq	7, cr1, [r5, #-0]
    41d8:	5a050000 	bpl	1441e0 <__bss_end__+0x13a220>
    41dc:	00010c02 	andeq	r0, r1, r2, lsl #24
    41e0:	2c170400 	cfldrscs	mvf0, [r7], {-0}
    41e4:	0500000b 	streq	r0, [r0, #-11]
    41e8:	0787025b 			; <UNDEFINED> instruction: 0x0787025b
    41ec:	17080000 	strne	r0, [r8, -r0]
    41f0:	00000e39 	andeq	r0, r0, r9, lsr lr
    41f4:	92025c05 	andls	r5, r2, #1280	; 0x500
    41f8:	24000001 	strcs	r0, [r0], #-1
    41fc:	000acb17 	andeq	ip, sl, r7, lsl fp
    4200:	025d0500 	subseq	r0, sp, #0, 10
    4204:	00000025 	andeq	r0, r0, r5, lsr #32
    4208:	0c221748 	stceq	7, cr1, [r2], #-288	; 0xfffffee0
    420c:	5e050000 	cdppl	0, 0, cr0, cr5, cr0, {0}
    4210:	00006902 	andeq	r6, r0, r2, lsl #18
    4214:	4f175000 	svcmi	0x00175000
    4218:	0500000e 	streq	r0, [r0, #-14]
    421c:	0641025f 			; <UNDEFINED> instruction: 0x0641025f
    4220:	17580000 	ldrbne	r0, [r8, -r0]
    4224:	00000c2d 	andeq	r0, r0, sp, lsr #24
    4228:	f4026005 	vst4.8	{d6-d9}, [r2], r5
    422c:	68000000 	stmdavs	r0, {}	; <UNPREDICTABLE>
    4230:	000e5417 	andeq	r5, lr, r7, lsl r4
    4234:	02610500 	rsbeq	r0, r1, #0, 10
    4238:	000000f4 	strdeq	r0, [r0], -r4
    423c:	098e1770 	stmibeq	lr, {r4, r5, r6, r8, r9, sl, ip}
    4240:	62050000 	andvs	r0, r5, #0
    4244:	0000f402 	andeq	pc, r0, r2, lsl #8
    4248:	a6177800 	ldrge	r7, [r7], -r0, lsl #16
    424c:	0500000d 	streq	r0, [r0, #-13]
    4250:	07970263 	ldreq	r0, [r7, r3, ror #4]
    4254:	17800000 	strne	r0, [r0, r0]
    4258:	00000b20 	andeq	r0, r0, r0, lsr #22
    425c:	a7026405 	strge	r6, [r2, -r5, lsl #8]
    4260:	88000007 	stmdahi	r0, {r0, r1, r2}
    4264:	000d3817 	andeq	r3, sp, r7, lsl r8
    4268:	02650500 	rsbeq	r0, r5, #0, 10
    426c:	00000025 	andeq	r0, r0, r5, lsr #32
    4270:	0a7717a0 	beq	1dca0f8 <__bss_end__+0x1dc0138>
    4274:	66050000 	strvs	r0, [r5], -r0
    4278:	0000f402 	andeq	pc, r0, r2, lsl #8
    427c:	7f17a400 	svcvc	0x0017a400
    4280:	05000009 	streq	r0, [r0, #-9]
    4284:	00f40267 	rscseq	r0, r4, r7, ror #4
    4288:	17ac0000 	strne	r0, [ip, r0]!
    428c:	00000a66 	andeq	r0, r0, r6, ror #20
    4290:	f4026805 	vst2.8	{d6-d7}, [r2], r5
    4294:	b4000000 	strlt	r0, [r0], #-0
    4298:	00094617 	andeq	r4, r9, r7, lsl r6
    429c:	02690500 	rsbeq	r0, r9, #0, 10
    42a0:	000000f4 	strdeq	r0, [r0], -r4
    42a4:	095517bc 	ldmdbeq	r5, {r2, r3, r4, r5, r7, r8, r9, sl, ip}^
    42a8:	6a050000 	bvs	1442b0 <__bss_end__+0x13a2f0>
    42ac:	0000f402 	andeq	pc, r0, r2, lsl #8
    42b0:	df17c400 	svcle	0x0017c400
    42b4:	0500000b 	streq	r0, [r0, #-11]
    42b8:	0025026b 	eoreq	r0, r5, fp, ror #4
    42bc:	00cc0000 	sbceq	r0, ip, r0
    42c0:	00011209 	andeq	r1, r1, r9, lsl #4
    42c4:	00079700 	andeq	r9, r7, r0, lsl #14
    42c8:	00cc0a00 	sbceq	r0, ip, r0, lsl #20
    42cc:	00190000 	andseq	r0, r9, r0
    42d0:	00011209 	andeq	r1, r1, r9, lsl #4
    42d4:	0007a700 	andeq	sl, r7, r0, lsl #14
    42d8:	00cc0a00 	sbceq	r0, ip, r0, lsl #20
    42dc:	00070000 	andeq	r0, r7, r0
    42e0:	00011209 	andeq	r1, r1, r9, lsl #4
    42e4:	0007b700 	andeq	fp, r7, r0, lsl #14
    42e8:	00cc0a00 	sbceq	r0, ip, r0, lsl #20
    42ec:	00170000 	andseq	r0, r7, r0
    42f0:	7005f01a 	andvc	pc, r5, sl, lsl r0	; <UNPREDICTABLE>
    42f4:	0007db02 	andeq	sp, r7, r2, lsl #22
    42f8:	0b8f1700 	bleq	fe3c9f00 <__bss_end__+0xfe3bff40>
    42fc:	73050000 	movwvc	r0, #20480	; 0x5000
    4300:	0007db02 	andeq	sp, r7, r2, lsl #22
    4304:	9d170000 	ldcls	0, cr0, [r7, #-0]
    4308:	0500000d 	streq	r0, [r0, #-13]
    430c:	07eb0274 			; <UNDEFINED> instruction: 0x07eb0274
    4310:	00780000 	rsbseq	r0, r8, r0
    4314:	0002db09 	andeq	sp, r2, r9, lsl #22
    4318:	0007eb00 	andeq	lr, r7, r0, lsl #22
    431c:	00cc0a00 	sbceq	r0, ip, r0, lsl #20
    4320:	001d0000 	andseq	r0, sp, r0
    4324:	00002c09 	andeq	r2, r0, r9, lsl #24
    4328:	0007fb00 	andeq	pc, r7, r0, lsl #22
    432c:	00cc0a00 	sbceq	r0, ip, r0, lsl #20
    4330:	001d0000 	andseq	r0, sp, r0
    4334:	5505f01b 	strpl	pc, [r5, #-27]
    4338:	00081d02 	andeq	r1, r8, r2, lsl #26
    433c:	0c661c00 	stcleq	12, cr1, [r6], #-0
    4340:	6c050000 	stcvs	0, cr0, [r5], {-0}
    4344:	00068602 	andeq	r8, r6, r2, lsl #12
    4348:	0df91c00 	ldcleq	12, cr1, [r9]
    434c:	75050000 	strvc	r0, [r5, #-0]
    4350:	0007b702 	andeq	fp, r7, r2, lsl #14
    4354:	12090000 	andne	r0, r9, #0
    4358:	2d000001 	stccs	0, cr0, [r0, #-4]
    435c:	0a000008 	beq	4384 <__code_start__-0x3c7c>
    4360:	000000cc 	andeq	r0, r0, ip, asr #1
    4364:	381d0018 	ldmdacc	sp, {r3, r4}
    4368:	15000008 	strne	r0, [r0, #-8]
    436c:	00000429 	andeq	r0, r0, r9, lsr #8
    4370:	2d040e00 	stccs	14, cr0, [r4, #-0]
    4374:	0e000008 	cdpeq	0, 0, cr0, cr0, cr8, {0}
    4378:	00017c04 	andeq	r7, r1, r4, lsl #24
    437c:	084f1d00 	stmdaeq	pc, {r8, sl, fp, ip}^	; <UNPREDICTABLE>
    4380:	25150000 	ldrcs	r0, [r5, #-0]
    4384:	00000000 	andeq	r0, r0, r0
    4388:	0855040e 	ldmdaeq	r5, {r1, r2, r3, sl}^
    438c:	040e0000 	streq	r0, [lr], #-0
    4390:	00000844 	andeq	r0, r0, r4, asr #16
    4394:	0005f409 	andeq	pc, r5, r9, lsl #8
    4398:	00086b00 	andeq	r6, r8, r0, lsl #22
    439c:	00cc0a00 	sbceq	r0, ip, r0, lsl #20
    43a0:	00020000 	andeq	r0, r2, r0
    43a4:	000d4c1e 	andeq	r4, sp, lr, lsl ip
    43a8:	02fd0500 	rscseq	r0, sp, #0, 10
    43ac:	00000429 	andeq	r0, r0, r9, lsr #8
    43b0:	000d451e 	andeq	r4, sp, lr, lsl r5
    43b4:	02fe0500 	rscseq	r0, lr, #0, 10
    43b8:	0000042f 	andeq	r0, r0, pc, lsr #8
    43bc:	00002514 	andeq	r2, r0, r4, lsl r5
    43c0:	00089200 	andeq	r9, r8, r0, lsl #4
    43c4:	00251500 	eoreq	r1, r5, r0, lsl #10
    43c8:	1f000000 	svcne	0x00000000
    43cc:	0000050c 	andeq	r0, r0, ip, lsl #10
    43d0:	089d1d06 	ldmeq	sp, {r1, r2, r8, sl, fp, ip}
    43d4:	040e0000 	streq	r0, [lr], #-0
    43d8:	00000883 	andeq	r0, r0, r3, lsl #17
    43dc:	00002514 	andeq	r2, r0, r4, lsl r5
    43e0:	0008b200 	andeq	fp, r8, r0, lsl #4
    43e4:	058a1500 	streq	r1, [sl, #1280]	; 0x500
    43e8:	1f000000 	svcne	0x00000000
    43ec:	00000549 	andeq	r0, r0, r9, asr #10
    43f0:	08bd2206 	popeq	{r1, r2, r9, sp}
    43f4:	040e0000 	streq	r0, [lr], #-0
    43f8:	000008a3 	andeq	r0, r0, r3, lsr #17
    43fc:	00540120 	subseq	r0, r4, r0, lsr #2
    4400:	0c070000 	stceq	0, cr0, [r7], {-0}
    4404:	00000900 	andeq	r0, r0, r0, lsl #18
    4408:	00096f21 	andeq	r6, r9, r1, lsr #30
    440c:	8c210000 	stchi	0, cr0, [r1], #-0
    4410:	0100000d 	tsteq	r0, sp
    4414:	000de421 	andeq	lr, sp, r1, lsr #8
    4418:	b0210400 	eorlt	r0, r1, r0, lsl #8
    441c:	05000009 	streq	r0, [r0, #-9]
    4420:	000b4721 	andeq	r4, fp, r1, lsr #14
    4424:	01210600 	teqeq	r1, r0, lsl #12
    4428:	0700000e 	streq	r0, [r0, -lr]
    442c:	000e1021 	andeq	r1, lr, r1, lsr #32
    4430:	1f210300 	svcne	0x00210300
    4434:	0200000e 	andeq	r0, r0, #14
    4438:	0ede0500 	cdpeq	5, 13, cr0, cr14, cr0, {0}
    443c:	15070000 	strne	r0, [r7, #-0]
    4440:	000008c3 	andeq	r0, r0, r3, asr #17
    4444:	000eaf22 	andeq	sl, lr, r2, lsr #30
    4448:	331d0100 	tstcc	sp, #0, 2
    444c:	1c000000 	stcne	0, cr0, [r0], {-0}
    4450:	22202000 	eorcs	r2, r0, #0
    4454:	00000eea 	andeq	r0, r0, sl, ror #29
    4458:	00331e01 	eorseq	r1, r3, r1, lsl #28
    445c:	00280000 	eoreq	r0, r8, r0
    4460:	b9222020 	stmdblt	r2!, {r5, sp}
    4464:	0100000e 	tsteq	r0, lr
    4468:	0000331f 	andeq	r3, r0, pc, lsl r3
    446c:	20003400 	andcs	r3, r0, r0, lsl #8
    4470:	0e8a2320 	cdpeq	3, 8, cr2, cr10, cr0, {1}
    4474:	56010000 	strpl	r0, [r1], -r0
    4478:	00000025 	andeq	r0, r0, r5, lsr #32
    447c:	000094b0 			; <UNDEFINED> instruction: 0x000094b0
    4480:	00000034 	andeq	r0, r0, r4, lsr r0
    4484:	09989c01 	ldmibeq	r8, {r0, sl, fp, ip, pc}
    4488:	70240000 	eorvc	r0, r4, r0
    448c:	01006e69 	tsteq	r0, r9, ror #28
    4490:	00002c56 	andeq	r2, r0, r6, asr ip
    4494:	000d9500 	andeq	r9, sp, r0, lsl #10
    4498:	0e7e2500 	cdpeq	5, 7, cr2, cr14, cr0, {0}
    449c:	59010000 	stmdbpl	r1, {}	; <UNPREDICTABLE>
    44a0:	0000002c 	andeq	r0, r0, ip, lsr #32
    44a4:	00000dcf 	andeq	r0, r0, pc, asr #27
    44a8:	66666f26 	strbtvs	r6, [r6], -r6, lsr #30
    44ac:	2c5a0100 	ldfcse	f0, [sl], {-0}
    44b0:	0d000000 	stceq	0, cr0, [r0, #-0]
    44b4:	2700000e 	strcs	r0, [r0, -lr]
    44b8:	000094cc 	andeq	r9, r0, ip, asr #9
    44bc:	00000b5d 	andeq	r0, r0, sp, asr fp
    44c0:	0b500128 	bleq	1404968 <__bss_end__+0x13fa9a8>
    44c4:	355001f3 	ldrbcc	r0, [r0, #-499]	; 0x1f3
    44c8:	80b42325 	adcshi	r2, r4, r5, lsr #6
    44cc:	00028180 	andeq	r8, r2, r0, lsl #3
    44d0:	0ea42900 	cdpeq	9, 10, cr2, cr4, cr0, {0}
    44d4:	4f010000 	svcmi	0x00010000
    44d8:	00009494 	muleq	r0, r4, r4
    44dc:	0000001c 	andeq	r0, r0, ip, lsl r0
    44e0:	09e89c01 	stmibeq	r8!, {r0, sl, fp, ip, pc}^
    44e4:	70240000 	eorvc	r0, r4, r0
    44e8:	01006e69 	tsteq	r0, r9, ror #28
    44ec:	00002c4f 	andeq	r2, r0, pc, asr #24
    44f0:	000e2000 	andeq	r2, lr, r0
    44f4:	00762400 	rsbseq	r2, r6, r0, lsl #8
    44f8:	002c4f01 	eoreq	r4, ip, r1, lsl #30
    44fc:	0e5a0000 	cdpeq	0, 5, cr0, cr10, cr0, {0}
    4500:	a42a0000 	strtge	r0, [sl], #-0
    4504:	23000094 	movwcs	r0, #148	; 0x94
    4508:	de00000a 	cdple	0, 0, cr0, cr0, cr10, {0}
    450c:	28000009 	stmdacs	r0, {r0, r3}
    4510:	f3035001 	vhadd.u8	d5, d3, d1
    4514:	2b005001 	blcs	18520 <__bss_end__+0xe560>
    4518:	000094ac 	andeq	r9, r0, ip, lsr #9
    451c:	00000a64 	andeq	r0, r0, r4, ror #20
    4520:	0ec32900 	cdpeq	9, 12, cr2, cr3, cr0, {0}
    4524:	4a010000 	bmi	4452c <__bss_end__+0x3a56c>
    4528:	00009484 	andeq	r9, r0, r4, lsl #9
    452c:	00000010 	andeq	r0, r0, r0, lsl r0
    4530:	0a239c01 	beq	8eb53c <__bss_end__+0x8e157c>
    4534:	70240000 	eorvc	r0, r4, r0
    4538:	01006e69 	tsteq	r0, r9, ror #28
    453c:	00002c4a 	andeq	r2, r0, sl, asr #24
    4540:	000e9400 	andeq	r9, lr, r0, lsl #8
    4544:	94902700 	ldrls	r2, [r0], #1792	; 0x700
    4548:	0ae00000 	beq	ff804550 <__bss_end__+0xff7fa590>
    454c:	01280000 	teqeq	r8, r0
    4550:	01f30350 	mvnseq	r0, r0, asr r3
    4554:	51012850 	tstpl	r1, r0, asr r8
    4558:	00003001 	andeq	r3, r0, r1
    455c:	000e7129 	andeq	r7, lr, r9, lsr #2
    4560:	60430100 	subvs	r0, r3, r0, lsl #2
    4564:	24000094 	strcs	r0, [r0], #-148	; 0x94
    4568:	01000000 	mrseq	r0, (UNDEF: 0)
    456c:	000a649c 	muleq	sl, ip, r4
    4570:	69702400 	ldmdbvs	r0!, {sl, sp}^
    4574:	4301006e 	movwmi	r0, #4206	; 0x106e
    4578:	0000002c 	andeq	r0, r0, ip, lsr #32
    457c:	00000eb5 			; <UNDEFINED> instruction: 0x00000eb5
    4580:	00947c27 	addseq	r7, r4, r7, lsr #24
    4584:	000b6800 	andeq	r6, fp, r0, lsl #16
    4588:	50012800 	andpl	r2, r1, r0, lsl #16
    458c:	00280c05 	eoreq	r0, r8, r5, lsl #24
    4590:	01282020 	teqeq	r8, r0, lsr #32
    4594:	f3310551 	vqrshl.u64	q0, <illegal reg q0.5>, <illegal reg q0.5>
    4598:	00245001 	eoreq	r5, r4, r1
    459c:	0ed22900 	cdpeq	9, 13, cr2, cr2, cr0, {0}
    45a0:	3c010000 	stccc	0, cr0, [r1], {-0}
    45a4:	0000943c 	andeq	r9, r0, ip, lsr r4
    45a8:	00000024 	andeq	r0, r0, r4, lsr #32
    45ac:	0aa59c01 	beq	fe96b5b8 <__bss_end__+0xfe9615f8>
    45b0:	70240000 	eorvc	r0, r4, r0
    45b4:	01006e69 	tsteq	r0, r9, ror #28
    45b8:	00002c3c 	andeq	r2, r0, ip, lsr ip
    45bc:	000ed600 	andeq	sp, lr, r0, lsl #12
    45c0:	94582700 	ldrbls	r2, [r8], #-1792	; 0x700
    45c4:	0b680000 	bleq	1a045cc <__bss_end__+0x19fa60c>
    45c8:	01280000 	teqeq	r8, r0
    45cc:	1c0c0550 	cfstr32ne	mvfx0, [ip], {80}	; 0x50
    45d0:	28202000 	stmdacs	r0!, {sp}
    45d4:	31055101 	tstcc	r5, r1, lsl #2
    45d8:	245001f3 	ldrbcs	r0, [r0], #-499	; 0x1f3
    45dc:	94290000 	strtls	r0, [r9], #-0
    45e0:	0100000e 	tsteq	r0, lr
    45e4:	00942c37 	addseq	r2, r4, r7, lsr ip
    45e8:	00001000 	andeq	r1, r0, r0
    45ec:	e09c0100 	adds	r0, ip, r0, lsl #2
    45f0:	2400000a 	strcs	r0, [r0], #-10
    45f4:	006e6970 	rsbeq	r6, lr, r0, ror r9
    45f8:	002c3701 	eoreq	r3, ip, r1, lsl #14
    45fc:	0ef70000 	cdpeq	0, 15, cr0, cr7, cr0, {0}
    4600:	38270000 	stmdacc	r7!, {}	; <UNPREDICTABLE>
    4604:	e0000094 	mul	r0, r4, r0
    4608:	2800000a 	stmdacs	r0, {r1, r3}
    460c:	f3035001 	vhadd.u8	d5, d3, d1
    4610:	01285001 	teqeq	r8, r1
    4614:	00310151 	eorseq	r0, r1, r1, asr r1
    4618:	0b7d2900 	bleq	1f4ea20 <__bss_end__+0x1f44a60>
    461c:	28010000 	stmdacs	r1, {}	; <UNPREDICTABLE>
    4620:	000093c4 	andeq	r9, r0, r4, asr #7
    4624:	00000068 	andeq	r0, r0, r8, rrx
    4628:	0b5d9c01 	bleq	176b634 <__bss_end__+0x1761674>
    462c:	70240000 	eorvc	r0, r4, r0
    4630:	01006e69 	tsteq	r0, r9, ror #28
    4634:	00002c28 	andeq	r2, r0, r8, lsr #24
    4638:	000f1800 	andeq	r1, pc, r0, lsl #16
    463c:	0dc92c00 	stcleq	12, cr2, [r9]
    4640:	28010000 	stmdacs	r1, {}	; <UNPREDICTABLE>
    4644:	00000900 	andeq	r0, r0, r0, lsl #18
    4648:	00000f39 	andeq	r0, r0, r9, lsr pc
    464c:	66666f2d 	strbtvs	r6, [r6], -sp, lsr #30
    4650:	2c2d0100 	stfcss	f0, [sp], #-0
    4654:	01000000 	mrseq	r0, (UNDEF: 0)
    4658:	00672d54 	rsbeq	r2, r7, r4, asr sp
    465c:	002c2f01 	eoreq	r2, ip, r1, lsl #30
    4660:	56010000 	strpl	r0, [r1], -r0
    4664:	01007626 	tsteq	r0, r6, lsr #12
    4668:	00002c31 	andeq	r2, r0, r1, lsr ip
    466c:	000f5a00 	andeq	r5, pc, r0, lsl #20
    4670:	94102a00 	ldrls	r2, [r0], #-2560	; 0xa00
    4674:	0b5d0000 	bleq	174467c <__bss_end__+0x173a6bc>
    4678:	0b4c0000 	bleq	1304680 <__bss_end__+0x12fa6c0>
    467c:	01280000 	teqeq	r8, r0
    4680:	00760250 	rsbseq	r0, r6, r0, asr r2
    4684:	94242700 	strtls	r2, [r4], #-1792	; 0x700
    4688:	0b680000 	bleq	1a04690 <__bss_end__+0x19fa6d0>
    468c:	01280000 	teqeq	r8, r0
    4690:	00760250 	rsbseq	r0, r6, r0, asr r2
    4694:	e62e0000 	strt	r0, [lr], -r0
    4698:	e6000008 	str	r0, [r0], -r8
    469c:	06000008 	streq	r0, [r0], -r8
    46a0:	08202ea7 	stmdaeq	r0!, {r0, r1, r2, r5, r7, r9, sl, fp, sp}
    46a4:	08200000 	stmdaeq	r0!, {}	; <UNPREDICTABLE>
    46a8:	9b060000 	blls	1846b0 <__bss_end__+0x17a6f0>
	...

Disassembly of section .debug_abbrev:

00000000 <.debug_abbrev>:
       0:	25011101 	strcs	r1, [r1, #-257]	; 0x101
       4:	030b130e 	movweq	r1, #45838	; 0xb30e
       8:	110e1b0e 	tstne	lr, lr, lsl #22
       c:	10061201 	andne	r1, r6, r1, lsl #4
      10:	02000017 	andeq	r0, r0, #23
      14:	0b0b0024 	bleq	2c00ac <__bss_end__+0x2b60ec>
      18:	08030b3e 	stmdaeq	r3, {r1, r2, r3, r4, r5, r8, r9, fp}
      1c:	24030000 	strcs	r0, [r3], #-0
      20:	3e0b0b00 	vmlacc.f64	d0, d11, d0
      24:	000e030b 	andeq	r0, lr, fp, lsl #6
      28:	00160400 	andseq	r0, r6, r0, lsl #8
      2c:	0b3a0e03 	bleq	e83840 <__bss_end__+0xe79880>
      30:	13490b3b 	movtne	r0, #39739	; 0x9b3b
      34:	0f050000 	svceq	0x00050000
      38:	490b0b00 	stmdbmi	fp, {r8, r9, fp}
      3c:	06000013 			; <UNDEFINED> instruction: 0x06000013
      40:	19270015 	stmdbne	r7!, {r0, r2, r4}
      44:	26070000 	strcs	r0, [r7], -r0
      48:	00134900 	andseq	r4, r3, r0, lsl #18
      4c:	01010800 	tsteq	r1, r0, lsl #16
      50:	13011349 	movwne	r1, #4937	; 0x1349
      54:	21090000 	mrscs	r0, (UNDEF: 9)
      58:	2f134900 	svccs	0x00134900
      5c:	0a00000b 	beq	90 <__code_start__-0x7f70>
      60:	19270115 	stmdbne	r7!, {r0, r2, r4, r8}
      64:	00001301 	andeq	r1, r0, r1, lsl #6
      68:	4900050b 	stmdbmi	r0, {r0, r1, r3, r8, sl}
      6c:	0c000013 	stceq	0, cr0, [r0], {19}
      70:	0e03012e 	adfeqsp	f0, f3, #0.5
      74:	0b3b0b3a 	bleq	ec2d64 <__bss_end__+0xeb8da4>
      78:	13491927 	movtne	r1, #39207	; 0x9927
      7c:	13010b20 	movwne	r0, #6944	; 0x1b20
      80:	340d0000 	strcc	r0, [sp], #-0
      84:	3a080300 	bcc	200c8c <__bss_end__+0x1f6ccc>
      88:	490b3b0b 	stmdbmi	fp, {r0, r1, r3, r8, r9, fp, ip, sp}
      8c:	0e000013 	mcreq	0, 0, r0, cr0, cr3, {0}
      90:	0e030005 	cdpeq	0, 0, cr0, cr3, cr5, {0}
      94:	0b3b0b3a 	bleq	ec2d84 <__bss_end__+0xeb8dc4>
      98:	00001349 	andeq	r1, r0, r9, asr #6
      9c:	0300340f 	movweq	r3, #1039	; 0x40f
      a0:	3b0b3a0e 	blcc	2ce8e0 <__bss_end__+0x2c4920>
      a4:	0013490b 	andseq	r4, r3, fp, lsl #18
      a8:	012e1000 	teqeq	lr, r0
      ac:	0b3a0e03 	bleq	e838c0 <__bss_end__+0xe79900>
      b0:	19270b3b 	stmdbne	r7!, {r0, r1, r3, r4, r5, r8, r9, fp}
      b4:	13010b20 	movwne	r0, #6944	; 0x1b20
      b8:	2e110000 	cdpcs	0, 1, cr0, cr1, cr0, {0}
      bc:	03193f01 	tsteq	r9, #1, 30
      c0:	3b0b3a0e 	blcc	2ce900 <__bss_end__+0x2c4940>
      c4:	1119270b 	tstne	r9, fp, lsl #14
      c8:	40061201 	andmi	r1, r6, r1, lsl #4
      cc:	19429718 	stmdbne	r2, {r3, r4, r8, r9, sl, ip, pc}^
      d0:	00001301 	andeq	r1, r0, r1, lsl #6
      d4:	03003412 	movweq	r3, #1042	; 0x412
      d8:	3413490e 	ldrcc	r4, [r3], #-2318	; 0x90e
      dc:	00180219 	andseq	r0, r8, r9, lsl r2
      e0:	010b1300 	mrseq	r1, (UNDEF: 59)
      e4:	06120111 			; <UNDEFINED> instruction: 0x06120111
      e8:	00001301 	andeq	r1, r0, r1, lsl #6
      ec:	03003414 	movweq	r3, #1044	; 0x414
      f0:	3b0b3a08 	blcc	2ce918 <__bss_end__+0x2c4958>
      f4:	0213490b 	andseq	r4, r3, #180224	; 0x2c000
      f8:	15000017 	strne	r0, [r0, #-23]
      fc:	01018289 	smlabbeq	r1, r9, r2, r8
     100:	13310111 	teqne	r1, #1073741828	; 0x40000004
     104:	8a160000 	bhi	58010c <__bss_end__+0x57614c>
     108:	02000182 	andeq	r0, r0, #-2147483616	; 0x80000020
     10c:	18429118 	stmdane	r2, {r3, r4, r8, ip, pc}^
     110:	2e170000 	cdpcs	0, 1, cr0, cr7, cr0, {0}
     114:	3a0e0301 	bcc	380d20 <__bss_end__+0x376d60>
     118:	270b3b0b 	strcs	r3, [fp, -fp, lsl #22]
     11c:	12011119 	andne	r1, r1, #1073741830	; 0x40000006
     120:	97184006 	ldrls	r4, [r8, -r6]
     124:	13011942 	movwne	r1, #6466	; 0x1942
     128:	05180000 	ldreq	r0, [r8, #-0]
     12c:	3a0e0300 	bcc	380d34 <__bss_end__+0x376d74>
     130:	490b3b0b 	stmdbmi	fp, {r0, r1, r3, r8, r9, fp, ip, sp}
     134:	00170213 	andseq	r0, r7, r3, lsl r2
     138:	00051900 	andeq	r1, r5, r0, lsl #18
     13c:	0b3a0803 	bleq	e82150 <__bss_end__+0xe78190>
     140:	13490b3b 	movtne	r0, #39739	; 0x9b3b
     144:	00001702 	andeq	r1, r0, r2, lsl #14
     148:	31011d1a 	tstcc	r1, sl, lsl sp
     14c:	12011113 	andne	r1, r1, #-1073741820	; 0xc0000004
     150:	590b5806 	stmdbpl	fp, {r1, r2, fp, ip, lr}
     154:	0013010b 	andseq	r0, r3, fp, lsl #2
     158:	010b1b00 	tsteq	fp, r0, lsl #22
     15c:	06120111 			; <UNDEFINED> instruction: 0x06120111
     160:	341c0000 	ldrcc	r0, [ip], #-0
     164:	00133100 	andseq	r3, r3, r0, lsl #2
     168:	011d1d00 	tsteq	sp, r0, lsl #26
     16c:	01111331 	tsteq	r1, r1, lsr r3
     170:	0b580612 	bleq	16019c0 <__bss_end__+0x15f7a00>
     174:	00000b59 	andeq	r0, r0, r9, asr fp
     178:	3100341e 	tstcc	r0, lr, lsl r4
     17c:	00170213 	andseq	r0, r7, r3, lsl r2
     180:	82891f00 	addhi	r1, r9, #0, 30
     184:	01110101 	tsteq	r1, r1, lsl #2
     188:	13011331 	movwne	r1, #4913	; 0x1331
     18c:	89200000 	stmdbhi	r0!, {}	; <UNPREDICTABLE>
     190:	11000182 	smlabbne	r0, r2, r1, r0
     194:	00133101 	andseq	r3, r3, r1, lsl #2
     198:	00342100 	eorseq	r2, r4, r0, lsl #2
     19c:	13490e03 	movtne	r0, #40451	; 0x9e03
     1a0:	0e1c1934 	mrceq	9, 0, r1, cr12, cr4, {1}
     1a4:	05220000 	streq	r0, [r2, #-0]!
     1a8:	3a080300 	bcc	200db0 <__bss_end__+0x1f6df0>
     1ac:	490b3b0b 	stmdbmi	fp, {r0, r1, r3, r8, r9, fp, ip, sp}
     1b0:	23000013 	movwcs	r0, #19
     1b4:	0e030034 	mcreq	0, 0, r0, cr3, cr4, {1}
     1b8:	0b3b0b3a 	bleq	ec2ea8 <__bss_end__+0xeb8ee8>
     1bc:	18021349 	stmdane	r2, {r0, r3, r6, r8, r9, ip}
     1c0:	34240000 	strtcc	r0, [r4], #-0
     1c4:	02133100 	andseq	r3, r3, #0, 2
     1c8:	25000018 	strcs	r0, [r0, #-24]
     1cc:	13310005 	teqne	r1, #5
     1d0:	00000b1c 	andeq	r0, r0, ip, lsl fp
     1d4:	31000526 	tstcc	r0, r6, lsr #10
     1d8:	00180213 	andseq	r0, r8, r3, lsl r2
     1dc:	00342700 	eorseq	r2, r4, r0, lsl #14
     1e0:	0b1c1331 	bleq	704eac <__bss_end__+0x6faeec>
     1e4:	05280000 	streq	r0, [r8, #-0]!
     1e8:	00133100 	andseq	r3, r3, r0, lsl #2
     1ec:	00352900 	eorseq	r2, r5, r0, lsl #18
     1f0:	00001349 	andeq	r1, r0, r9, asr #6
     1f4:	0300342a 	movweq	r3, #1066	; 0x42a
     1f8:	3b0b3a08 	blcc	2cea20 <__bss_end__+0x2c4a60>
     1fc:	0213490b 	andseq	r4, r3, #180224	; 0x2c000
     200:	2b000018 	blcs	268 <__code_start__-0x7d98>
     204:	0e030034 	mcreq	0, 0, r0, cr3, cr4, {1}
     208:	0b3b0b3a 	bleq	ec2ef8 <__bss_end__+0xeb8f38>
     20c:	193f1349 	ldmdbne	pc!, {r0, r3, r6, r8, r9, ip}	; <UNPREDICTABLE>
     210:	0000193c 	andeq	r1, r0, ip, lsr r9
     214:	3f012e2c 	svccc	0x00012e2c
     218:	3a0e0319 	bcc	380e84 <__bss_end__+0x376ec4>
     21c:	270b3b0b 	strcs	r3, [fp, -fp, lsl #22]
     220:	3c134919 	ldccc	9, cr4, [r3], {25}
     224:	00130119 	andseq	r0, r3, r9, lsl r1
     228:	00182d00 	andseq	r2, r8, r0, lsl #26
     22c:	2e2e0000 	cdpcs	0, 2, cr0, cr14, cr0, {0}
     230:	03193f00 	tsteq	r9, #0, 30
     234:	3b0b3a0e 	blcc	2cea74 <__bss_end__+0x2c4ab4>
     238:	3c19270b 	ldccc	7, cr2, [r9], {11}
     23c:	2f000019 	svccs	0x00000019
     240:	193f012e 	ldmdbne	pc!, {r1, r2, r3, r5, r8}	; <UNPREDICTABLE>
     244:	0b3a0e03 	bleq	e83a58 <__bss_end__+0xe79a98>
     248:	19270b3b 	stmdbne	r7!, {r0, r1, r3, r4, r5, r8, r9, fp}
     24c:	1301193c 	movwne	r1, #6460	; 0x193c
     250:	2e300000 	cdpcs	0, 3, cr0, cr0, cr0, {0}
     254:	03193f01 	tsteq	r9, #1, 30
     258:	3b0b3a0e 	blcc	2cea98 <__bss_end__+0x2c4ad8>
     25c:	3c19270b 	ldccc	7, cr2, [r9], {11}
     260:	00000019 	andeq	r0, r0, r9, lsl r0
     264:	25011101 	strcs	r1, [r1, #-257]	; 0x101
     268:	030b130e 	movweq	r1, #45838	; 0xb30e
     26c:	110e1b0e 	tstne	lr, lr, lsl #22
     270:	10061201 	andne	r1, r6, r1, lsl #4
     274:	02000017 	andeq	r0, r0, #23
     278:	0b0b0024 	bleq	2c0310 <__bss_end__+0x2b6350>
     27c:	08030b3e 	stmdaeq	r3, {r1, r2, r3, r4, r5, r8, r9, fp}
     280:	24030000 	strcs	r0, [r3], #-0
     284:	3e0b0b00 	vmlacc.f64	d0, d11, d0
     288:	000e030b 	andeq	r0, lr, fp, lsl #6
     28c:	00160400 	andseq	r0, r6, r0, lsl #8
     290:	0b3a0e03 	bleq	e83aa4 <__bss_end__+0xe79ae4>
     294:	13490b3b 	movtne	r0, #39739	; 0x9b3b
     298:	0f050000 	svceq	0x00050000
     29c:	000b0b00 	andeq	r0, fp, r0, lsl #22
     2a0:	000f0600 	andeq	r0, pc, r0, lsl #12
     2a4:	13490b0b 	movtne	r0, #39691	; 0x9b0b
     2a8:	26070000 	strcs	r0, [r7], -r0
     2ac:	00134900 	andseq	r4, r3, r0, lsl #18
     2b0:	01010800 	tsteq	r1, r0, lsl #16
     2b4:	13011349 	movwne	r1, #4937	; 0x1349
     2b8:	21090000 	mrscs	r0, (UNDEF: 9)
     2bc:	2f134900 	svccs	0x00134900
     2c0:	0a00000b 	beq	2f4 <__code_start__-0x7d0c>
     2c4:	19270115 	stmdbne	r7!, {r0, r2, r4, r8}
     2c8:	00001301 	andeq	r1, r0, r1, lsl #6
     2cc:	4900050b 	stmdbmi	r0, {r0, r1, r3, r8, sl}
     2d0:	0c000013 	stceq	0, cr0, [r0], {19}
     2d4:	0e03012e 	adfeqsp	f0, f3, #0.5
     2d8:	0b3b0b3a 	bleq	ec2fc8 <__bss_end__+0xeb9008>
     2dc:	13491927 	movtne	r1, #39207	; 0x9927
     2e0:	13010b20 	movwne	r0, #6944	; 0x1b20
     2e4:	340d0000 	strcc	r0, [sp], #-0
     2e8:	3a080300 	bcc	200ef0 <__bss_end__+0x1f6f30>
     2ec:	490b3b0b 	stmdbmi	fp, {r0, r1, r3, r8, r9, fp, ip, sp}
     2f0:	0e000013 	mcreq	0, 0, r0, cr0, cr3, {0}
     2f4:	08030005 	stmdaeq	r3, {r0, r2}
     2f8:	0b3b0b3a 	bleq	ec2fe8 <__bss_end__+0xeb9028>
     2fc:	00001349 	andeq	r1, r0, r9, asr #6
     300:	03012e0f 	movweq	r2, #7695	; 0x1e0f
     304:	3b0b3a0e 	blcc	2ceb44 <__bss_end__+0x2c4b84>
     308:	2019270b 	andscs	r2, r9, fp, lsl #14
     30c:	0013010b 	andseq	r0, r3, fp, lsl #2
     310:	00341000 	eorseq	r1, r4, r0
     314:	0b3a0e03 	bleq	e83b28 <__bss_end__+0xe79b68>
     318:	13490b3b 	movtne	r0, #39739	; 0x9b3b
     31c:	2e110000 	cdpcs	0, 1, cr0, cr1, cr0, {0}
     320:	03193f01 	tsteq	r9, #1, 30
     324:	3b0b3a0e 	blcc	2ceb64 <__bss_end__+0x2c4ba4>
     328:	1119270b 	tstne	r9, fp, lsl #14
     32c:	40061201 	andmi	r1, r6, r1, lsl #4
     330:	19429718 	stmdbne	r2, {r3, r4, r8, r9, sl, ip, pc}^
     334:	00001301 	andeq	r1, r0, r1, lsl #6
     338:	03000512 	movweq	r0, #1298	; 0x512
     33c:	3b0b3a0e 	blcc	2ceb7c <__bss_end__+0x2c4bbc>
     340:	0213490b 	andseq	r4, r3, #180224	; 0x2c000
     344:	13000017 	movwne	r0, #23
     348:	0e030034 	mcreq	0, 0, r0, cr3, cr4, {1}
     34c:	0b3b0b3a 	bleq	ec303c <__bss_end__+0xeb907c>
     350:	17021349 	strne	r1, [r2, -r9, asr #6]
     354:	34140000 	ldrcc	r0, [r4], #-0
     358:	490e0300 	stmdbmi	lr, {r8, r9}
     35c:	02193413 	andseq	r3, r9, #318767104	; 0x13000000
     360:	15000018 	strne	r0, [r0, #-24]
     364:	1331011d 	teqne	r1, #1073741831	; 0x40000007
     368:	06120111 			; <UNDEFINED> instruction: 0x06120111
     36c:	0b590b58 	bleq	16430d4 <__bss_end__+0x1639114>
     370:	00001301 	andeq	r1, r0, r1, lsl #6
     374:	11010b16 	tstne	r1, r6, lsl fp
     378:	00061201 	andeq	r1, r6, r1, lsl #4
     37c:	00341700 	eorseq	r1, r4, r0, lsl #14
     380:	17021331 	smladxne	r2, r1, r3, r1
     384:	05180000 	ldreq	r0, [r8, #-0]
     388:	02133100 	andseq	r3, r3, #0, 2
     38c:	19000017 	stmdbne	r0, {r0, r1, r2, r4}
     390:	13310005 	teqne	r1, #5
     394:	0000051c 	andeq	r0, r0, ip, lsl r5
     398:	3100051a 	tstcc	r0, sl, lsl r5
     39c:	000b1c13 	andeq	r1, fp, r3, lsl ip
     3a0:	82891b00 	addhi	r1, r9, #0, 22
     3a4:	01110001 	tsteq	r1, r1
     3a8:	00001331 	andeq	r1, r0, r1, lsr r3
     3ac:	0182891c 	orreq	r8, r2, ip, lsl r9
     3b0:	31011101 	tstcc	r1, r1, lsl #2
     3b4:	00130113 	andseq	r0, r3, r3, lsl r1
     3b8:	828a1d00 	addhi	r1, sl, #0, 26
     3bc:	18020001 	stmdane	r2, {r0}
     3c0:	00184291 	mulseq	r8, r1, r2
     3c4:	00341e00 	eorseq	r1, r4, r0, lsl #28
     3c8:	13490e03 	movtne	r0, #40451	; 0x9e03
     3cc:	0e1c1934 	mrceq	9, 0, r1, cr12, cr4, {1}
     3d0:	051f0000 	ldreq	r0, [pc, #-0]	; 3d8 <__code_start__-0x7c28>
     3d4:	3a080300 	bcc	200fdc <__bss_end__+0x1f701c>
     3d8:	490b3b0b 	stmdbmi	fp, {r0, r1, r3, r8, r9, fp, ip, sp}
     3dc:	00170213 	andseq	r0, r7, r3, lsl r2
     3e0:	00342000 	eorseq	r2, r4, r0
     3e4:	0b3a0e03 	bleq	e83bf8 <__bss_end__+0xe79c38>
     3e8:	13490b3b 	movtne	r0, #39739	; 0x9b3b
     3ec:	00001802 	andeq	r1, r0, r2, lsl #16
     3f0:	31003421 	tstcc	r0, r1, lsr #8
     3f4:	22000013 	andcs	r0, r0, #19
     3f8:	1331011d 	teqne	r1, #1073741831	; 0x40000007
     3fc:	06120111 			; <UNDEFINED> instruction: 0x06120111
     400:	0b590b58 	bleq	1643168 <__bss_end__+0x16391a8>
     404:	34230000 	strtcc	r0, [r3], #-0
     408:	02133100 	andseq	r3, r3, #0, 2
     40c:	24000018 	strcs	r0, [r0], #-24
     410:	01018289 	smlabbeq	r1, r9, r2, r8
     414:	00000111 	andeq	r0, r0, r1, lsl r1
     418:	03003425 	movweq	r3, #1061	; 0x425
     41c:	3b0b3a08 	blcc	2cec44 <__bss_end__+0x2c4c84>
     420:	1c13490b 	ldcne	9, cr4, [r3], {11}
     424:	26000005 	strcs	r0, [r0], -r5
     428:	0e030005 	cdpeq	0, 0, cr0, cr3, cr5, {0}
     42c:	0b3b0b3a 	bleq	ec311c <__bss_end__+0xeb915c>
     430:	18021349 	stmdane	r2, {r0, r3, r6, r8, r9, ip}
     434:	05270000 	streq	r0, [r7, #-0]!
     438:	02133100 	andseq	r3, r3, #0, 2
     43c:	28000018 	stmdacs	r0, {r3, r4}
     440:	08030005 	stmdaeq	r3, {r0, r2}
     444:	0b3b0b3a 	bleq	ec3134 <__bss_end__+0xeb9174>
     448:	18021349 	stmdane	r2, {r0, r3, r6, r8, r9, ip}
     44c:	05290000 	streq	r0, [r9, #-0]!
     450:	1c133100 	ldfnes	f3, [r3], {-0}
     454:	2a000006 	bcs	474 <__code_start__-0x7b8c>
     458:	193f012e 	ldmdbne	pc!, {r1, r2, r3, r5, r8}	; <UNPREDICTABLE>
     45c:	0b3a0e03 	bleq	e83c70 <__bss_end__+0xe79cb0>
     460:	1927053b 	stmdbne	r7!, {r0, r1, r3, r4, r5, r8, sl}
     464:	01111349 	tsteq	r1, r9, asr #6
     468:	18400612 	stmdane	r0, {r1, r4, r9, sl}^
     46c:	01194297 			; <UNDEFINED> instruction: 0x01194297
     470:	2b000013 	blcs	4c4 <__code_start__-0x7b3c>
     474:	08030005 	stmdaeq	r3, {r0, r2}
     478:	053b0b3a 	ldreq	r0, [fp, #-2874]!	; 0xb3a
     47c:	17021349 	strne	r1, [r2, -r9, asr #6]
     480:	342c0000 	strtcc	r0, [ip], #-0
     484:	3a0e0300 	bcc	38108c <__bss_end__+0x3770cc>
     488:	490b3b0b 	stmdbmi	fp, {r0, r1, r3, r8, r9, fp, ip, sp}
     48c:	02193f13 	andseq	r3, r9, #19, 30	; 0x4c
     490:	2d000018 	stccs	0, cr0, [r0, #-96]	; 0xffffffa0
     494:	193f002e 	ldmdbne	pc!, {r1, r2, r3, r5}	; <UNPREDICTABLE>
     498:	0b3a0e03 	bleq	e83cac <__bss_end__+0xe79cec>
     49c:	19270b3b 	stmdbne	r7!, {r0, r1, r3, r4, r5, r8, r9, fp}
     4a0:	0000193c 	andeq	r1, r0, ip, lsr r9
     4a4:	3f012e2e 	svccc	0x00012e2e
     4a8:	3a0e0319 	bcc	381114 <__bss_end__+0x377154>
     4ac:	270b3b0b 	strcs	r3, [fp, -fp, lsl #22]
     4b0:	3c134919 	ldccc	9, cr4, [r3], {25}
     4b4:	00130119 	andseq	r0, r3, r9, lsl r1
     4b8:	00182f00 	andseq	r2, r8, r0, lsl #30
     4bc:	01000000 	mrseq	r0, (UNDEF: 0)
     4c0:	0e250111 	mcreq	1, 1, r0, cr5, cr1, {0}
     4c4:	0e030b13 	vmoveq.32	d3[0], r0
     4c8:	01110e1b 	tsteq	r1, fp, lsl lr
     4cc:	17100612 			; <UNDEFINED> instruction: 0x17100612
     4d0:	16020000 	strne	r0, [r2], -r0
     4d4:	3a0e0300 	bcc	3810dc <__bss_end__+0x37711c>
     4d8:	490b3b0b 	stmdbmi	fp, {r0, r1, r3, r8, r9, fp, ip, sp}
     4dc:	03000013 	movweq	r0, #19
     4e0:	0e030113 	mcreq	1, 0, r0, cr3, cr3, {0}
     4e4:	0b3a0b0b 	bleq	e83118 <__bss_end__+0xe79158>
     4e8:	13010b3b 	movwne	r0, #6971	; 0x1b3b
     4ec:	0d040000 	stceq	0, cr0, [r4, #-0]
     4f0:	490e0300 	stmdbmi	lr, {r8, r9}
     4f4:	340b3813 	strcc	r3, [fp], #-2067	; 0x813
     4f8:	05000019 	streq	r0, [r0, #-25]
     4fc:	0b0b000f 	bleq	2c0540 <__bss_end__+0x2b6580>
     500:	24060000 	strcs	r0, [r6], #-0
     504:	3e0b0b00 	vmlacc.f64	d0, d11, d0
     508:	0008030b 	andeq	r0, r8, fp, lsl #6
     50c:	00240700 	eoreq	r0, r4, r0, lsl #14
     510:	0b3e0b0b 	bleq	f83144 <__bss_end__+0xf79184>
     514:	00000e03 	andeq	r0, r0, r3, lsl #28
     518:	0b000f08 	bleq	4140 <__code_start__-0x3ec0>
     51c:	0013490b 	andseq	r4, r3, fp, lsl #18
     520:	00260900 	eoreq	r0, r6, r0, lsl #18
     524:	00001349 	andeq	r1, r0, r9, asr #6
     528:	3f012e0a 	svccc	0x00012e0a
     52c:	3a0e0319 	bcc	381198 <__bss_end__+0x3771d8>
     530:	270b3b0b 	strcs	r3, [fp, -fp, lsl #22]
     534:	11134919 	tstne	r3, r9, lsl r9
     538:	40061201 	andmi	r1, r6, r1, lsl #4
     53c:	19429718 	stmdbne	r2, {r3, r4, r8, r9, sl, ip, pc}^
     540:	00001301 	andeq	r1, r0, r1, lsl #6
     544:	0300050b 	movweq	r0, #1291	; 0x50b
     548:	3b0b3a08 	blcc	2ced70 <__bss_end__+0x2c4db0>
     54c:	0213490b 	andseq	r4, r3, #180224	; 0x2c000
     550:	0c000018 	stceq	0, cr0, [r0], {24}
     554:	00000018 	andeq	r0, r0, r8, lsl r0
     558:	0300340d 	movweq	r3, #1037	; 0x40d
     55c:	3b0b3a08 	blcc	2ced84 <__bss_end__+0x2c4dc4>
     560:	0213490b 	andseq	r4, r3, #180224	; 0x2c000
     564:	0e000018 	mcreq	0, 0, r0, cr0, cr8, {0}
     568:	0e030034 	mcreq	0, 0, r0, cr3, cr4, {1}
     56c:	0b3b0b3a 	bleq	ec325c <__bss_end__+0xeb929c>
     570:	18021349 	stmdane	r2, {r0, r3, r6, r8, r9, ip}
     574:	340f0000 	strcc	r0, [pc], #-0	; 57c <__code_start__-0x7a84>
     578:	3a080300 	bcc	201180 <__bss_end__+0x1f71c0>
     57c:	490b3b0b 	stmdbmi	fp, {r0, r1, r3, r8, r9, fp, ip, sp}
     580:	00170213 	andseq	r0, r7, r3, lsl r2
     584:	82891000 	addhi	r1, r9, #0
     588:	01110101 	tsteq	r1, r1, lsl #2
     58c:	13011331 	movwne	r1, #4913	; 0x1331
     590:	8a110000 	bhi	440598 <__bss_end__+0x4365d8>
     594:	02000182 	andeq	r0, r0, #-2147483616	; 0x80000020
     598:	18429118 	stmdane	r2, {r3, r4, r8, ip, pc}^
     59c:	89120000 	ldmdbhi	r2, {}	; <UNPREDICTABLE>
     5a0:	11010182 	smlabbne	r1, r2, r1, r0
     5a4:	13000001 	movwne	r0, #1
     5a8:	13490101 	movtne	r0, #37121	; 0x9101
     5ac:	00001301 	andeq	r1, r0, r1, lsl #6
     5b0:	49002114 	stmdbmi	r0, {r2, r4, r8, sp}
     5b4:	00052f13 	andeq	r2, r5, r3, lsl pc
     5b8:	01151500 	tsteq	r5, r0, lsl #10
     5bc:	13491927 	movtne	r1, #39207	; 0x9927
     5c0:	00001301 	andeq	r1, r0, r1, lsl #6
     5c4:	49000516 	stmdbmi	r0, {r1, r2, r4, r8, sl}
     5c8:	17000013 	smladne	r0, r3, r0, r0
     5cc:	0e030034 	mcreq	0, 0, r0, cr3, cr4, {1}
     5d0:	0b3b0b3a 	bleq	ec32c0 <__bss_end__+0xeb9300>
     5d4:	193f1349 	ldmdbne	pc!, {r0, r3, r6, r8, r9, ip}	; <UNPREDICTABLE>
     5d8:	0000193c 	andeq	r1, r0, ip, lsr r9
     5dc:	3f012e18 	svccc	0x00012e18
     5e0:	3a0e0319 	bcc	38124c <__bss_end__+0x37728c>
     5e4:	270b3b0b 	strcs	r3, [fp, -fp, lsl #22]
     5e8:	3c134919 	ldccc	9, cr4, [r3], {25}
     5ec:	00000019 	andeq	r0, r0, r9, lsl r0
     5f0:	25011101 	strcs	r1, [r1, #-257]	; 0x101
     5f4:	030b130e 	movweq	r1, #45838	; 0xb30e
     5f8:	110e1b0e 	tstne	lr, lr, lsl #22
     5fc:	10061201 	andne	r1, r6, r1, lsl #4
     600:	02000017 	andeq	r0, r0, #23
     604:	0b0b0024 	bleq	2c069c <__bss_end__+0x2b66dc>
     608:	08030b3e 	stmdaeq	r3, {r1, r2, r3, r4, r5, r8, r9, fp}
     60c:	24030000 	strcs	r0, [r3], #-0
     610:	3e0b0b00 	vmlacc.f64	d0, d11, d0
     614:	000e030b 	andeq	r0, lr, fp, lsl #6
     618:	012e0400 	teqeq	lr, r0, lsl #8
     61c:	0b3a0e03 	bleq	e83e30 <__bss_end__+0xe79e70>
     620:	19270b3b 	stmdbne	r7!, {r0, r1, r3, r4, r5, r8, r9, fp}
     624:	01111349 	tsteq	r1, r9, asr #6
     628:	18400612 	stmdane	r0, {r1, r4, r9, sl}^
     62c:	01194297 			; <UNDEFINED> instruction: 0x01194297
     630:	05000013 	streq	r0, [r0, #-19]
     634:	08030005 	stmdaeq	r3, {r0, r2}
     638:	0b3b0b3a 	bleq	ec3328 <__bss_end__+0xeb9368>
     63c:	17021349 	strne	r1, [r2, -r9, asr #6]
     640:	89060000 	stmdbhi	r6, {}	; <UNPREDICTABLE>
     644:	11010182 	smlabbne	r1, r2, r1, r0
     648:	00133101 	andseq	r3, r3, r1, lsl #2
     64c:	828a0700 	addhi	r0, sl, #0, 14
     650:	18020001 	stmdane	r2, {r0}
     654:	00184291 	mulseq	r8, r1, r2
     658:	002e0800 	eoreq	r0, lr, r0, lsl #16
     65c:	0e03193f 	mcreq	9, 0, r1, cr3, cr15, {1}
     660:	0b3b0b3a 	bleq	ec3350 <__bss_end__+0xeb9390>
     664:	01111927 	tsteq	r1, r7, lsr #18
     668:	18400612 	stmdane	r0, {r1, r4, r9, sl}^
     66c:	00194297 	mulseq	r9, r7, r2
     670:	012e0900 	teqeq	lr, r0, lsl #18
     674:	0e03193f 	mcreq	9, 0, r1, cr3, cr15, {1}
     678:	0b3b0b3a 	bleq	ec3368 <__bss_end__+0xeb93a8>
     67c:	01111927 	tsteq	r1, r7, lsr #18
     680:	18400612 	stmdane	r0, {r1, r4, r9, sl}^
     684:	01194297 			; <UNDEFINED> instruction: 0x01194297
     688:	0a000013 	beq	6dc <__code_start__-0x7924>
     68c:	08030005 	stmdaeq	r3, {r0, r2}
     690:	0b3b0b3a 	bleq	ec3380 <__bss_end__+0xeb93c0>
     694:	18021349 	stmdane	r2, {r0, r3, r6, r8, r9, ip}
     698:	150b0000 	strne	r0, [fp, #-0]
     69c:	49192701 	ldmdbmi	r9, {r0, r8, r9, sl, sp}
     6a0:	00130113 	andseq	r0, r3, r3, lsl r1
     6a4:	00050c00 	andeq	r0, r5, r0, lsl #24
     6a8:	00001349 	andeq	r1, r0, r9, asr #6
     6ac:	0b000f0d 	bleq	42e8 <__code_start__-0x3d18>
     6b0:	0013490b 	andseq	r4, r3, fp, lsl #18
     6b4:	00340e00 	eorseq	r0, r4, r0, lsl #28
     6b8:	0b3a0e03 	bleq	e83ecc <__bss_end__+0xe79f0c>
     6bc:	13490b3b 	movtne	r0, #39739	; 0x9b3b
     6c0:	1802193f 	stmdane	r2, {r0, r1, r2, r3, r4, r5, r8, fp, ip}
     6c4:	2e0f0000 	cdpcs	0, 0, cr0, cr15, cr0, {0}
     6c8:	03193f01 	tsteq	r9, #1, 30
     6cc:	3b0b3a0e 	blcc	2cef0c <__bss_end__+0x2c4f4c>
     6d0:	3c19270b 	ldccc	7, cr2, [r9], {11}
     6d4:	00000019 	andeq	r0, r0, r9, lsl r0
     6d8:	25011101 	strcs	r1, [r1, #-257]	; 0x101
     6dc:	030b130e 	movweq	r1, #45838	; 0xb30e
     6e0:	110e1b0e 	tstne	lr, lr, lsl #22
     6e4:	10061201 	andne	r1, r6, r1, lsl #4
     6e8:	02000017 	andeq	r0, r0, #23
     6ec:	0b0b0024 	bleq	2c0784 <__bss_end__+0x2b67c4>
     6f0:	08030b3e 	stmdaeq	r3, {r1, r2, r3, r4, r5, r8, r9, fp}
     6f4:	24030000 	strcs	r0, [r3], #-0
     6f8:	3e0b0b00 	vmlacc.f64	d0, d11, d0
     6fc:	000e030b 	andeq	r0, lr, fp, lsl #6
     700:	000f0400 	andeq	r0, pc, r0, lsl #8
     704:	13490b0b 	movtne	r0, #39691	; 0x9b0b
     708:	26050000 	strcs	r0, [r5], -r0
     70c:	00134900 	andseq	r4, r3, r0, lsl #18
     710:	012e0600 	teqeq	lr, r0, lsl #12
     714:	0e03193f 	mcreq	9, 0, r1, cr3, cr15, {1}
     718:	0b3b0b3a 	bleq	ec3408 <__bss_end__+0xeb9448>
     71c:	13491927 	movtne	r1, #39207	; 0x9927
     720:	06120111 			; <UNDEFINED> instruction: 0x06120111
     724:	42961840 	addsmi	r1, r6, #64, 16	; 0x400000
     728:	00130119 	andseq	r0, r3, r9, lsl r1
     72c:	00050700 	andeq	r0, r5, r0, lsl #14
     730:	0b3a0803 	bleq	e82744 <__bss_end__+0xe78784>
     734:	13490b3b 	movtne	r0, #39739	; 0x9b3b
     738:	00001702 	andeq	r1, r0, r2, lsl #14
     73c:	27011508 	strcs	r1, [r1, -r8, lsl #10]
     740:	01134919 	tsteq	r3, r9, lsl r9
     744:	09000013 	stmdbeq	r0, {r0, r1, r4}
     748:	13490005 	movtne	r0, #36869	; 0x9005
     74c:	340a0000 	strcc	r0, [sl], #-0
     750:	3a0e0300 	bcc	381358 <__bss_end__+0x377398>
     754:	490b3b0b 	stmdbmi	fp, {r0, r1, r3, r8, r9, fp, ip, sp}
     758:	3c193f13 	ldccc	15, cr3, [r9], {19}
     75c:	0b000019 	bleq	7c8 <__code_start__-0x7838>
     760:	0e030034 	mcreq	0, 0, r0, cr3, cr4, {1}
     764:	0b3b0b3a 	bleq	ec3454 <__bss_end__+0xeb9494>
     768:	193f1349 	ldmdbne	pc!, {r0, r3, r6, r8, r9, ip}	; <UNPREDICTABLE>
     76c:	00001802 	andeq	r1, r0, r2, lsl #16
     770:	01110100 	tsteq	r1, r0, lsl #2
     774:	0b130e25 	bleq	4c4010 <__bss_end__+0x4ba050>
     778:	0e1b0e03 	cdpeq	14, 1, cr0, cr11, cr3, {0}
     77c:	06120111 			; <UNDEFINED> instruction: 0x06120111
     780:	00001710 	andeq	r1, r0, r0, lsl r7
     784:	0b002402 	bleq	9794 <__FUNCTION__.4370+0x4>
     788:	030b3e0b 	movweq	r3, #48651	; 0xbe0b
     78c:	03000008 	movweq	r0, #8
     790:	0b0b0024 	bleq	2c0828 <__bss_end__+0x2b6868>
     794:	0e030b3e 	vmoveq.16	d3[0], r0
     798:	0f040000 	svceq	0x00040000
     79c:	000b0b00 	andeq	r0, fp, r0, lsl #22
     7a0:	000f0500 	andeq	r0, pc, r0, lsl #10
     7a4:	13490b0b 	movtne	r0, #39691	; 0x9b0b
     7a8:	26060000 	strcs	r0, [r6], -r0
     7ac:	00134900 	andseq	r4, r3, r0, lsl #18
     7b0:	00160700 	andseq	r0, r6, r0, lsl #14
     7b4:	0b3a0e03 	bleq	e83fc8 <__bss_end__+0xe7a008>
     7b8:	13490b3b 	movtne	r0, #39739	; 0x9b3b
     7bc:	13080000 	movwne	r0, #32768	; 0x8000
     7c0:	0b0e0301 	bleq	3813cc <__bss_end__+0x37740c>
     7c4:	3b0b3a0b 	blcc	2ceff8 <__bss_end__+0x2c5038>
     7c8:	0013010b 	andseq	r0, r3, fp, lsl #2
     7cc:	000d0900 	andeq	r0, sp, r0, lsl #18
     7d0:	13490e03 	movtne	r0, #40451	; 0x9e03
     7d4:	19340b38 	ldmdbne	r4!, {r3, r4, r5, r8, r9, fp}
     7d8:	2e0a0000 	cdpcs	0, 0, cr0, cr10, cr0, {0}
     7dc:	3a0e0301 	bcc	3813e8 <__bss_end__+0x377428>
     7e0:	270b3b0b 	strcs	r3, [fp, -fp, lsl #22]
     7e4:	11134919 	tstne	r3, r9, lsl r9
     7e8:	40061201 	andmi	r1, r6, r1, lsl #4
     7ec:	19429718 	stmdbne	r2, {r3, r4, r8, r9, sl, ip, pc}^
     7f0:	00001301 	andeq	r1, r0, r1, lsl #6
     7f4:	0300050b 	movweq	r0, #1291	; 0x50b
     7f8:	3b0b3a08 	blcc	2cf020 <__bss_end__+0x2c5060>
     7fc:	0213490b 	andseq	r4, r3, #180224	; 0x2c000
     800:	0c000017 	stceq	0, cr0, [r0], {23}
     804:	0803012e 	stmdaeq	r3, {r1, r2, r3, r5, r8}
     808:	0b3b0b3a 	bleq	ec34f8 <__bss_end__+0xeb9538>
     80c:	13491927 	movtne	r1, #39207	; 0x9927
     810:	06120111 			; <UNDEFINED> instruction: 0x06120111
     814:	42971840 	addsmi	r1, r7, #64, 16	; 0x400000
     818:	00130119 	andseq	r0, r3, r9, lsl r1
     81c:	00050d00 	andeq	r0, r5, r0, lsl #26
     820:	0b3a0e03 	bleq	e84034 <__bss_end__+0xe7a074>
     824:	13490b3b 	movtne	r0, #39739	; 0x9b3b
     828:	00001702 	andeq	r1, r0, r2, lsl #14
     82c:	0300050e 	movweq	r0, #1294	; 0x50e
     830:	3b0b3a0e 	blcc	2cf070 <__bss_end__+0x2c50b0>
     834:	0213490b 	andseq	r4, r3, #180224	; 0x2c000
     838:	0f000018 	svceq	0x00000018
     83c:	08030034 	stmdaeq	r3, {r2, r4, r5}
     840:	0b3b0b3a 	bleq	ec3530 <__bss_end__+0xeb9570>
     844:	18021349 	stmdane	r2, {r0, r3, r6, r8, r9, ip}
     848:	34100000 	ldrcc	r0, [r0], #-0
     84c:	3a080300 	bcc	201454 <__bss_end__+0x1f7494>
     850:	490b3b0b 	stmdbmi	fp, {r0, r1, r3, r8, r9, fp, ip, sp}
     854:	00170213 	andseq	r0, r7, r3, lsl r2
     858:	00341100 	eorseq	r1, r4, r0, lsl #2
     85c:	13490e03 	movtne	r0, #40451	; 0x9e03
     860:	18021934 	stmdane	r2, {r2, r4, r5, r8, fp, ip}
     864:	0b120000 	bleq	48086c <__bss_end__+0x4768ac>
     868:	12011101 	andne	r1, r1, #1073741824	; 0x40000000
     86c:	00130106 	andseq	r0, r3, r6, lsl #2
     870:	00341300 	eorseq	r1, r4, r0, lsl #6
     874:	0b3a0e03 	bleq	e84088 <__bss_end__+0xe7a0c8>
     878:	13490b3b 	movtne	r0, #39739	; 0x9b3b
     87c:	00001702 	andeq	r1, r0, r2, lsl #14
     880:	01828914 	orreq	r8, r2, r4, lsl r9
     884:	31011100 	mrscc	r1, (UNDEF: 17)
     888:	15000013 	strne	r0, [r0, #-19]
     88c:	01018289 	smlabbeq	r1, r9, r2, r8
     890:	13310111 	teqne	r1, #1073741828	; 0x40000004
     894:	00001301 	andeq	r1, r0, r1, lsl #6
     898:	01828a16 	orreq	r8, r2, r6, lsl sl
     89c:	91180200 	tstls	r8, r0, lsl #4
     8a0:	00001842 	andeq	r1, r0, r2, asr #16
     8a4:	01828917 	orreq	r8, r2, r7, lsl r9
     8a8:	31011101 	tstcc	r1, r1, lsl #2
     8ac:	18000013 	stmdane	r0, {r0, r1, r4}
     8b0:	13490101 	movtne	r0, #37121	; 0x9101
     8b4:	00001301 	andeq	r1, r0, r1, lsl #6
     8b8:	49002119 	stmdbmi	r0, {r0, r3, r4, r8, sp}
     8bc:	000b2f13 	andeq	r2, fp, r3, lsl pc
     8c0:	012e1a00 	teqeq	lr, r0, lsl #20
     8c4:	0e03193f 	mcreq	9, 0, r1, cr3, cr15, {1}
     8c8:	0b3b0b3a 	bleq	ec35b8 <__bss_end__+0xeb95f8>
     8cc:	01111927 	tsteq	r1, r7, lsr #18
     8d0:	18400612 	stmdane	r0, {r1, r4, r9, sl}^
     8d4:	01194297 			; <UNDEFINED> instruction: 0x01194297
     8d8:	1b000013 	blne	92c <__code_start__-0x76d4>
     8dc:	19270115 	stmdbne	r7!, {r0, r2, r4, r8}
     8e0:	13011349 	movwne	r1, #4937	; 0x1349
     8e4:	051c0000 	ldreq	r0, [ip, #-0]
     8e8:	00134900 	andseq	r4, r3, r0, lsl #18
     8ec:	012e1d00 	teqeq	lr, r0, lsl #26
     8f0:	0e03193f 	mcreq	9, 0, r1, cr3, cr15, {1}
     8f4:	0b3b0b3a 	bleq	ec35e4 <__bss_end__+0xeb9624>
     8f8:	13491927 	movtne	r1, #39207	; 0x9927
     8fc:	06120111 			; <UNDEFINED> instruction: 0x06120111
     900:	42971840 	addsmi	r1, r7, #64, 16	; 0x400000
     904:	00130119 	andseq	r0, r3, r9, lsl r1
     908:	010b1e00 	tsteq	fp, r0, lsl #28
     90c:	06120111 			; <UNDEFINED> instruction: 0x06120111
     910:	891f0000 	ldmdbhi	pc, {}	; <UNPREDICTABLE>
     914:	11010182 	smlabbne	r1, r2, r1, r0
     918:	00130101 	andseq	r0, r3, r1, lsl #2
     91c:	00342000 	eorseq	r2, r4, r0
     920:	0b3a0e03 	bleq	e84134 <__bss_end__+0xe7a174>
     924:	13490b3b 	movtne	r0, #39739	; 0x9b3b
     928:	193c193f 	ldmdbne	ip!, {r0, r1, r2, r3, r4, r5, r8, fp, ip}
     92c:	2e210000 	cdpcs	0, 2, cr0, cr1, cr0, {0}
     930:	03193f00 	tsteq	r9, #0, 30
     934:	3b0b3a0e 	blcc	2cf174 <__bss_end__+0x2c51b4>
     938:	3c19270b 	ldccc	7, cr2, [r9], {11}
     93c:	22000019 	andcs	r0, r0, #25
     940:	193f012e 	ldmdbne	pc!, {r1, r2, r3, r5, r8}	; <UNPREDICTABLE>
     944:	0b3a0e03 	bleq	e84158 <__bss_end__+0xe7a198>
     948:	19270b3b 	stmdbne	r7!, {r0, r1, r3, r4, r5, r8, r9, fp}
     94c:	193c1349 	ldmdbne	ip!, {r0, r3, r6, r8, r9, ip}
     950:	00001301 	andeq	r1, r0, r1, lsl #6
     954:	00001823 	andeq	r1, r0, r3, lsr #16
     958:	11010000 	mrsne	r0, (UNDEF: 1)
     95c:	130e2501 	movwne	r2, #58625	; 0xe501
     960:	1b0e030b 	blne	381594 <__bss_end__+0x3775d4>
     964:	1201110e 	andne	r1, r1, #-2147483645	; 0x80000003
     968:	00171006 	andseq	r1, r7, r6
     96c:	00240200 	eoreq	r0, r4, r0, lsl #4
     970:	0b3e0b0b 	bleq	f835a4 <__bss_end__+0xf795e4>
     974:	00000803 	andeq	r0, r0, r3, lsl #16
     978:	0b002403 	bleq	998c <__FUNCTION__.4272+0x24>
     97c:	030b3e0b 	movweq	r3, #48651	; 0xbe0b
     980:	0400000e 	streq	r0, [r0], #-14
     984:	193f012e 	ldmdbne	pc!, {r1, r2, r3, r5, r8}	; <UNPREDICTABLE>
     988:	0b3a0e03 	bleq	e8419c <__bss_end__+0xe7a1dc>
     98c:	19270b3b 	stmdbne	r7!, {r0, r1, r3, r4, r5, r8, r9, fp}
     990:	06120111 			; <UNDEFINED> instruction: 0x06120111
     994:	42971840 	addsmi	r1, r7, #64, 16	; 0x400000
     998:	00130119 	andseq	r0, r3, r9, lsl r1
     99c:	00340500 	eorseq	r0, r4, r0, lsl #10
     9a0:	0b3a0803 	bleq	e829b4 <__bss_end__+0xe789f4>
     9a4:	13490b3b 	movtne	r0, #39739	; 0x9b3b
     9a8:	00001702 	andeq	r1, r0, r2, lsl #14
     9ac:	3f012e06 	svccc	0x00012e06
     9b0:	3a0e0319 	bcc	38161c <__bss_end__+0x37765c>
     9b4:	270b3b0b 	strcs	r3, [fp, -fp, lsl #22]
     9b8:	12011119 	andne	r1, r1, #1073741830	; 0x40000006
     9bc:	97184006 	ldrls	r4, [r8, -r6]
     9c0:	00001942 	andeq	r1, r0, r2, asr #18
     9c4:	01110100 	tsteq	r1, r0, lsl #2
     9c8:	0b130e25 	bleq	4c4264 <__bss_end__+0x4ba2a4>
     9cc:	0e1b0e03 	cdpeq	14, 1, cr0, cr11, cr3, {0}
     9d0:	06120111 			; <UNDEFINED> instruction: 0x06120111
     9d4:	00001710 	andeq	r1, r0, r0, lsl r7
     9d8:	0b002402 	bleq	99e8 <__FUNCTION__.4272+0x80>
     9dc:	030b3e0b 	movweq	r3, #48651	; 0xbe0b
     9e0:	03000008 	movweq	r0, #8
     9e4:	0b0b0024 	bleq	2c0a7c <__bss_end__+0x2b6abc>
     9e8:	0e030b3e 	vmoveq.16	d3[0], r0
     9ec:	0f040000 	svceq	0x00040000
     9f0:	490b0b00 	stmdbmi	fp, {r8, r9, fp}
     9f4:	05000013 	streq	r0, [r0, #-19]
     9f8:	13490026 	movtne	r0, #36902	; 0x9026
     9fc:	2e060000 	cdpcs	0, 0, cr0, cr6, cr0, {0}
     a00:	03193f01 	tsteq	r9, #1, 30
     a04:	3b0b3a0e 	blcc	2cf244 <__bss_end__+0x2c5284>
     a08:	1119270b 	tstne	r9, fp, lsl #14
     a0c:	40061201 	andmi	r1, r6, r1, lsl #4
     a10:	19429718 	stmdbne	r2, {r3, r4, r8, r9, sl, ip, pc}^
     a14:	00001301 	andeq	r1, r0, r1, lsl #6
     a18:	01828907 	orreq	r8, r2, r7, lsl #18
     a1c:	31011100 	mrscc	r1, (UNDEF: 17)
     a20:	08000013 	stmdaeq	r0, {r0, r1, r4}
     a24:	01018289 	smlabbeq	r1, r9, r2, r8
     a28:	13010111 	movwne	r0, #4369	; 0x1111
     a2c:	8a090000 	bhi	240a34 <__bss_end__+0x236a74>
     a30:	02000182 	andeq	r0, r0, #-2147483616	; 0x80000020
     a34:	18429118 	stmdane	r2, {r3, r4, r8, ip, pc}^
     a38:	890a0000 	stmdbhi	sl, {}	; <UNPREDICTABLE>
     a3c:	11010182 	smlabbne	r1, r2, r1, r0
     a40:	01133101 	tsteq	r3, r1, lsl #2
     a44:	0b000013 	bleq	a98 <__code_start__-0x7568>
     a48:	19270115 	stmdbne	r7!, {r0, r2, r4, r8}
     a4c:	13011349 	movwne	r1, #4937	; 0x1349
     a50:	050c0000 	streq	r0, [ip, #-0]
     a54:	00134900 	andseq	r4, r3, r0, lsl #18
     a58:	00340d00 	eorseq	r0, r4, r0, lsl #26
     a5c:	0b3a0e03 	bleq	e84270 <__bss_end__+0xe7a2b0>
     a60:	13490b3b 	movtne	r0, #39739	; 0x9b3b
     a64:	193c193f 	ldmdbne	ip!, {r0, r1, r2, r3, r4, r5, r8, fp, ip}
     a68:	2e0e0000 	cdpcs	0, 0, cr0, cr14, cr0, {0}
     a6c:	03193f00 	tsteq	r9, #0, 30
     a70:	3b0b3a0e 	blcc	2cf2b0 <__bss_end__+0x2c52f0>
     a74:	3c19270b 	ldccc	7, cr2, [r9], {11}
     a78:	0f000019 	svceq	0x00000019
     a7c:	193f012e 	ldmdbne	pc!, {r1, r2, r3, r5, r8}	; <UNPREDICTABLE>
     a80:	0b3a0e03 	bleq	e84294 <__bss_end__+0xe7a2d4>
     a84:	19270b3b 	stmdbne	r7!, {r0, r1, r3, r4, r5, r8, r9, fp}
     a88:	1301193c 	movwne	r1, #6460	; 0x193c
     a8c:	01000000 	mrseq	r0, (UNDEF: 0)
     a90:	0e250111 	mcreq	1, 1, r0, cr5, cr1, {0}
     a94:	0e030b13 	vmoveq.32	d3[0], r0
     a98:	01110e1b 	tsteq	r1, fp, lsl lr
     a9c:	17100612 			; <UNDEFINED> instruction: 0x17100612
     aa0:	24020000 	strcs	r0, [r2], #-0
     aa4:	3e0b0b00 	vmlacc.f64	d0, d11, d0
     aa8:	0008030b 	andeq	r0, r8, fp, lsl #6
     aac:	00240300 	eoreq	r0, r4, r0, lsl #6
     ab0:	0b3e0b0b 	bleq	f836e4 <__bss_end__+0xf79724>
     ab4:	00000e03 	andeq	r0, r0, r3, lsl #28
     ab8:	3f012e04 	svccc	0x00012e04
     abc:	3a0e0319 	bcc	381728 <__bss_end__+0x377768>
     ac0:	110b3b0b 	tstne	fp, fp, lsl #22
     ac4:	40061201 	andmi	r1, r6, r1, lsl #4
     ac8:	19429718 	stmdbne	r2, {r3, r4, r8, r9, sl, ip, pc}^
     acc:	00001301 	andeq	r1, r0, r1, lsl #6
     ad0:	03003405 	movweq	r3, #1029	; 0x405
     ad4:	3b0b3a0e 	blcc	2cf314 <__bss_end__+0x2c5354>
     ad8:	3f13490b 	svccc	0x0013490b
     adc:	00193c19 	andseq	r3, r9, r9, lsl ip
     ae0:	002e0600 	eoreq	r0, lr, r0, lsl #12
     ae4:	0e03193f 	mcreq	9, 0, r1, cr3, cr15, {1}
     ae8:	0b3b0b3a 	bleq	ec37d8 <__bss_end__+0xeb9818>
     aec:	193c1927 	ldmdbne	ip!, {r0, r1, r2, r5, r8, fp, ip}
     af0:	34070000 	strcc	r0, [r7], #-0
     af4:	3a080300 	bcc	2016fc <__bss_end__+0x1f773c>
     af8:	490b3b0b 	stmdbmi	fp, {r0, r1, r3, r8, r9, fp, ip, sp}
     afc:	00170213 	andseq	r0, r7, r3, lsl r2
     b00:	00340800 	eorseq	r0, r4, r0, lsl #16
     b04:	0b3a0e03 	bleq	e84318 <__bss_end__+0xe7a358>
     b08:	13490b3b 	movtne	r0, #39739	; 0x9b3b
     b0c:	89090000 	stmdbhi	r9, {}	; <UNPREDICTABLE>
     b10:	11000182 	smlabbne	r0, r2, r1, r0
     b14:	00133101 	andseq	r3, r3, r1, lsl #2
     b18:	000f0a00 	andeq	r0, pc, r0, lsl #20
     b1c:	13490b0b 	movtne	r0, #39691	; 0x9b0b
     b20:	01000000 	mrseq	r0, (UNDEF: 0)
     b24:	0e250111 	mcreq	1, 1, r0, cr5, cr1, {0}
     b28:	0e030b13 	vmoveq.32	d3[0], r0
     b2c:	01110e1b 	tsteq	r1, fp, lsl lr
     b30:	17100612 			; <UNDEFINED> instruction: 0x17100612
     b34:	24020000 	strcs	r0, [r2], #-0
     b38:	3e0b0b00 	vmlacc.f64	d0, d11, d0
     b3c:	0008030b 	andeq	r0, r8, fp, lsl #6
     b40:	00240300 	eoreq	r0, r4, r0, lsl #6
     b44:	0b3e0b0b 	bleq	f83778 <__bss_end__+0xf797b8>
     b48:	00000e03 	andeq	r0, r0, r3, lsl #28
     b4c:	0b000f04 	bleq	4764 <__code_start__-0x389c>
     b50:	0013490b 	andseq	r4, r3, fp, lsl #18
     b54:	00260500 	eoreq	r0, r6, r0, lsl #10
     b58:	00001349 	andeq	r1, r0, r9, asr #6
     b5c:	3f012e06 	svccc	0x00012e06
     b60:	3a0e0319 	bcc	3817cc <__bss_end__+0x37780c>
     b64:	270b3b0b 	strcs	r3, [fp, -fp, lsl #22]
     b68:	12011119 	andne	r1, r1, #1073741830	; 0x40000006
     b6c:	97184006 	ldrls	r4, [r8, -r6]
     b70:	13011942 	movwne	r1, #6466	; 0x1942
     b74:	05070000 	streq	r0, [r7, #-0]
     b78:	3a080300 	bcc	201780 <__bss_end__+0x1f77c0>
     b7c:	490b3b0b 	stmdbmi	fp, {r0, r1, r3, r8, r9, fp, ip, sp}
     b80:	00170213 	andseq	r0, r7, r3, lsl r2
     b84:	00340800 	eorseq	r0, r4, r0, lsl #16
     b88:	13490e03 	movtne	r0, #40451	; 0x9e03
     b8c:	18021934 	stmdane	r2, {r2, r4, r5, r8, fp, ip}
     b90:	89090000 	stmdbhi	r9, {}	; <UNPREDICTABLE>
     b94:	11000182 	smlabbne	r0, r2, r1, r0
     b98:	00133101 	andseq	r3, r3, r1, lsl #2
     b9c:	82890a00 	addhi	r0, r9, #0, 20
     ba0:	01110101 	tsteq	r1, r1, lsl #2
     ba4:	13011331 	movwne	r1, #4913	; 0x1331
     ba8:	8a0b0000 	bhi	2c0bb0 <__bss_end__+0x2b6bf0>
     bac:	02000182 	andeq	r0, r0, #-2147483616	; 0x80000020
     bb0:	18429118 	stmdane	r2, {r3, r4, r8, ip, pc}^
     bb4:	010c0000 	mrseq	r0, (UNDEF: 12)
     bb8:	01134901 	tsteq	r3, r1, lsl #18
     bbc:	0d000013 	stceq	0, cr0, [r0, #-76]	; 0xffffffb4
     bc0:	13490021 	movtne	r0, #36897	; 0x9021
     bc4:	00000b2f 	andeq	r0, r0, pc, lsr #22
     bc8:	3f002e0e 	svccc	0x00002e0e
     bcc:	3a0e0319 	bcc	381838 <__bss_end__+0x377878>
     bd0:	270b3b0b 	strcs	r3, [fp, -fp, lsl #22]
     bd4:	00193c19 	andseq	r3, r9, r9, lsl ip
     bd8:	012e0f00 	teqeq	lr, r0, lsl #30
     bdc:	0e03193f 	mcreq	9, 0, r1, cr3, cr15, {1}
     be0:	0b3b0b3a 	bleq	ec38d0 <__bss_end__+0xeb9910>
     be4:	13491927 	movtne	r1, #39207	; 0x9927
     be8:	1301193c 	movwne	r1, #6460	; 0x193c
     bec:	05100000 	ldreq	r0, [r0, #-0]
     bf0:	00134900 	andseq	r4, r3, r0, lsl #18
     bf4:	00181100 	andseq	r1, r8, r0, lsl #2
     bf8:	01000000 	mrseq	r0, (UNDEF: 0)
     bfc:	0e250111 	mcreq	1, 1, r0, cr5, cr1, {0}
     c00:	0e030b13 	vmoveq.32	d3[0], r0
     c04:	01110e1b 	tsteq	r1, fp, lsl lr
     c08:	17100612 			; <UNDEFINED> instruction: 0x17100612
     c0c:	24020000 	strcs	r0, [r2], #-0
     c10:	3e0b0b00 	vmlacc.f64	d0, d11, d0
     c14:	0008030b 	andeq	r0, r8, fp, lsl #6
     c18:	00240300 	eoreq	r0, r4, r0, lsl #6
     c1c:	0b3e0b0b 	bleq	f83850 <__bss_end__+0xf79890>
     c20:	00000e03 	andeq	r0, r0, r3, lsl #28
     c24:	0b000f04 	bleq	483c <__code_start__-0x37c4>
     c28:	0013490b 	andseq	r4, r3, fp, lsl #18
     c2c:	00260500 	eoreq	r0, r6, r0, lsl #10
     c30:	00001349 	andeq	r1, r0, r9, asr #6
     c34:	3f012e06 	svccc	0x00012e06
     c38:	3a0e0319 	bcc	3818a4 <__bss_end__+0x3778e4>
     c3c:	270b3b0b 	strcs	r3, [fp, -fp, lsl #22]
     c40:	12011119 	andne	r1, r1, #1073741830	; 0x40000006
     c44:	97184006 	ldrls	r4, [r8, -r6]
     c48:	13011942 	movwne	r1, #6466	; 0x1942
     c4c:	05070000 	streq	r0, [r7, #-0]
     c50:	3a080300 	bcc	201858 <__bss_end__+0x1f7898>
     c54:	490b3b0b 	stmdbmi	fp, {r0, r1, r3, r8, r9, fp, ip, sp}
     c58:	00170213 	andseq	r0, r7, r3, lsl r2
     c5c:	00340800 	eorseq	r0, r4, r0, lsl #16
     c60:	13490e03 	movtne	r0, #40451	; 0x9e03
     c64:	18021934 	stmdane	r2, {r2, r4, r5, r8, fp, ip}
     c68:	89090000 	stmdbhi	r9, {}	; <UNPREDICTABLE>
     c6c:	11000182 	smlabbne	r0, r2, r1, r0
     c70:	00133101 	andseq	r3, r3, r1, lsl #2
     c74:	82890a00 	addhi	r0, r9, #0, 20
     c78:	01110101 	tsteq	r1, r1, lsl #2
     c7c:	13011331 	movwne	r1, #4913	; 0x1331
     c80:	8a0b0000 	bhi	2c0c88 <__bss_end__+0x2b6cc8>
     c84:	02000182 	andeq	r0, r0, #-2147483616	; 0x80000020
     c88:	18429118 	stmdane	r2, {r3, r4, r8, ip, pc}^
     c8c:	010c0000 	mrseq	r0, (UNDEF: 12)
     c90:	01134901 	tsteq	r3, r1, lsl #18
     c94:	0d000013 	stceq	0, cr0, [r0, #-76]	; 0xffffffb4
     c98:	13490021 	movtne	r0, #36897	; 0x9021
     c9c:	00000b2f 	andeq	r0, r0, pc, lsr #22
     ca0:	3f002e0e 	svccc	0x00002e0e
     ca4:	3a0e0319 	bcc	381910 <__bss_end__+0x377950>
     ca8:	270b3b0b 	strcs	r3, [fp, -fp, lsl #22]
     cac:	00193c19 	andseq	r3, r9, r9, lsl ip
     cb0:	012e0f00 	teqeq	lr, r0, lsl #30
     cb4:	0e03193f 	mcreq	9, 0, r1, cr3, cr15, {1}
     cb8:	0b3b0b3a 	bleq	ec39a8 <__bss_end__+0xeb99e8>
     cbc:	13491927 	movtne	r1, #39207	; 0x9927
     cc0:	1301193c 	movwne	r1, #6460	; 0x193c
     cc4:	05100000 	ldreq	r0, [r0, #-0]
     cc8:	00134900 	andseq	r4, r3, r0, lsl #18
     ccc:	00181100 	andseq	r1, r8, r0, lsl #2
     cd0:	01000000 	mrseq	r0, (UNDEF: 0)
     cd4:	0e250111 	mcreq	1, 1, r0, cr5, cr1, {0}
     cd8:	0e030b13 	vmoveq.32	d3[0], r0
     cdc:	01110e1b 	tsteq	r1, fp, lsl lr
     ce0:	17100612 			; <UNDEFINED> instruction: 0x17100612
     ce4:	24020000 	strcs	r0, [r2], #-0
     ce8:	3e0b0b00 	vmlacc.f64	d0, d11, d0
     cec:	0008030b 	andeq	r0, r8, fp, lsl #6
     cf0:	00240300 	eoreq	r0, r4, r0, lsl #6
     cf4:	0b3e0b0b 	bleq	f83928 <__bss_end__+0xf79968>
     cf8:	00000e03 	andeq	r0, r0, r3, lsl #28
     cfc:	0b000f04 	bleq	4914 <__code_start__-0x36ec>
     d00:	0013490b 	andseq	r4, r3, fp, lsl #18
     d04:	00260500 	eoreq	r0, r6, r0, lsl #10
     d08:	00001349 	andeq	r1, r0, r9, asr #6
     d0c:	49010106 	stmdbmi	r1, {r1, r2, r8}
     d10:	00130113 	andseq	r0, r3, r3, lsl r1
     d14:	00210700 	eoreq	r0, r1, r0, lsl #14
     d18:	0b2f1349 	bleq	bc5a44 <__bss_end__+0xbbba84>
     d1c:	2e080000 	cdpcs	0, 0, cr0, cr8, cr0, {0}
     d20:	03193f01 	tsteq	r9, #1, 30
     d24:	3b0b3a0e 	blcc	2cf564 <__bss_end__+0x2c55a4>
     d28:	1119270b 	tstne	r9, fp, lsl #14
     d2c:	40061201 	andmi	r1, r6, r1, lsl #4
     d30:	19429718 	stmdbne	r2, {r3, r4, r8, r9, sl, ip, pc}^
     d34:	00001301 	andeq	r1, r0, r1, lsl #6
     d38:	03000509 	movweq	r0, #1289	; 0x509
     d3c:	3b0b3a08 	blcc	2cf564 <__bss_end__+0x2c55a4>
     d40:	0213490b 	andseq	r4, r3, #180224	; 0x2c000
     d44:	0a000017 	beq	da8 <__code_start__-0x7258>
     d48:	0e030034 	mcreq	0, 0, r0, cr3, cr4, {1}
     d4c:	19341349 	ldmdbne	r4!, {r0, r3, r6, r8, r9, ip}
     d50:	00001802 	andeq	r1, r0, r2, lsl #16
     d54:	0182890b 	orreq	r8, r2, fp, lsl #18
     d58:	31011100 	mrscc	r1, (UNDEF: 17)
     d5c:	0c000013 	stceq	0, cr0, [r0], {19}
     d60:	01018289 	smlabbeq	r1, r9, r2, r8
     d64:	13310111 	teqne	r1, #1073741828	; 0x40000004
     d68:	00001301 	andeq	r1, r0, r1, lsl #6
     d6c:	01828a0d 	orreq	r8, r2, sp, lsl #20
     d70:	91180200 	tstls	r8, r0, lsl #4
     d74:	00001842 	andeq	r1, r0, r2, asr #16
     d78:	3f002e0e 	svccc	0x00002e0e
     d7c:	3a0e0319 	bcc	3819e8 <__bss_end__+0x377a28>
     d80:	270b3b0b 	strcs	r3, [fp, -fp, lsl #22]
     d84:	00193c19 	andseq	r3, r9, r9, lsl ip
     d88:	012e0f00 	teqeq	lr, r0, lsl #30
     d8c:	0e03193f 	mcreq	9, 0, r1, cr3, cr15, {1}
     d90:	0b3b0b3a 	bleq	ec3a80 <__bss_end__+0xeb9ac0>
     d94:	13491927 	movtne	r1, #39207	; 0x9927
     d98:	1301193c 	movwne	r1, #6460	; 0x193c
     d9c:	05100000 	ldreq	r0, [r0, #-0]
     da0:	00134900 	andseq	r4, r3, r0, lsl #18
     da4:	00181100 	andseq	r1, r8, r0, lsl #2
     da8:	01000000 	mrseq	r0, (UNDEF: 0)
     dac:	0e250111 	mcreq	1, 1, r0, cr5, cr1, {0}
     db0:	0e030b13 	vmoveq.32	d3[0], r0
     db4:	01110e1b 	tsteq	r1, fp, lsl lr
     db8:	17100612 			; <UNDEFINED> instruction: 0x17100612
     dbc:	24020000 	strcs	r0, [r2], #-0
     dc0:	3e0b0b00 	vmlacc.f64	d0, d11, d0
     dc4:	0008030b 	andeq	r0, r8, fp, lsl #6
     dc8:	00240300 	eoreq	r0, r4, r0, lsl #6
     dcc:	0b3e0b0b 	bleq	f83a00 <__bss_end__+0xf79a40>
     dd0:	00000e03 	andeq	r0, r0, r3, lsl #28
     dd4:	0b000f04 	bleq	49ec <__code_start__-0x3614>
     dd8:	0013490b 	andseq	r4, r3, fp, lsl #18
     ddc:	00260500 	eoreq	r0, r6, r0, lsl #10
     de0:	00001349 	andeq	r1, r0, r9, asr #6
     de4:	3f012e06 	svccc	0x00012e06
     de8:	3a0e0319 	bcc	381a54 <__bss_end__+0x377a94>
     dec:	270b3b0b 	strcs	r3, [fp, -fp, lsl #22]
     df0:	12011119 	andne	r1, r1, #1073741830	; 0x40000006
     df4:	97184006 	ldrls	r4, [r8, -r6]
     df8:	13011942 	movwne	r1, #6466	; 0x1942
     dfc:	05070000 	streq	r0, [r7, #-0]
     e00:	3a080300 	bcc	201a08 <__bss_end__+0x1f7a48>
     e04:	490b3b0b 	stmdbmi	fp, {r0, r1, r3, r8, r9, fp, ip, sp}
     e08:	00170213 	andseq	r0, r7, r3, lsl r2
     e0c:	00340800 	eorseq	r0, r4, r0, lsl #16
     e10:	13490e03 	movtne	r0, #40451	; 0x9e03
     e14:	18021934 	stmdane	r2, {r2, r4, r5, r8, fp, ip}
     e18:	89090000 	stmdbhi	r9, {}	; <UNPREDICTABLE>
     e1c:	11000182 	smlabbne	r0, r2, r1, r0
     e20:	00133101 	andseq	r3, r3, r1, lsl #2
     e24:	82890a00 	addhi	r0, r9, #0, 20
     e28:	01110101 	tsteq	r1, r1, lsl #2
     e2c:	13011331 	movwne	r1, #4913	; 0x1331
     e30:	8a0b0000 	bhi	2c0e38 <__bss_end__+0x2b6e78>
     e34:	02000182 	andeq	r0, r0, #-2147483616	; 0x80000020
     e38:	18429118 	stmdane	r2, {r3, r4, r8, ip, pc}^
     e3c:	010c0000 	mrseq	r0, (UNDEF: 12)
     e40:	01134901 	tsteq	r3, r1, lsl #18
     e44:	0d000013 	stceq	0, cr0, [r0, #-76]	; 0xffffffb4
     e48:	13490021 	movtne	r0, #36897	; 0x9021
     e4c:	00000b2f 	andeq	r0, r0, pc, lsr #22
     e50:	3f002e0e 	svccc	0x00002e0e
     e54:	3a0e0319 	bcc	381ac0 <__bss_end__+0x377b00>
     e58:	270b3b0b 	strcs	r3, [fp, -fp, lsl #22]
     e5c:	00193c19 	andseq	r3, r9, r9, lsl ip
     e60:	012e0f00 	teqeq	lr, r0, lsl #30
     e64:	0e03193f 	mcreq	9, 0, r1, cr3, cr15, {1}
     e68:	0b3b0b3a 	bleq	ec3b58 <__bss_end__+0xeb9b98>
     e6c:	13491927 	movtne	r1, #39207	; 0x9927
     e70:	1301193c 	movwne	r1, #6460	; 0x193c
     e74:	05100000 	ldreq	r0, [r0, #-0]
     e78:	00134900 	andseq	r4, r3, r0, lsl #18
     e7c:	00181100 	andseq	r1, r8, r0, lsl #2
     e80:	01000000 	mrseq	r0, (UNDEF: 0)
     e84:	0e250111 	mcreq	1, 1, r0, cr5, cr1, {0}
     e88:	0e030b13 	vmoveq.32	d3[0], r0
     e8c:	01110e1b 	tsteq	r1, fp, lsl lr
     e90:	17100612 			; <UNDEFINED> instruction: 0x17100612
     e94:	24020000 	strcs	r0, [r2], #-0
     e98:	3e0b0b00 	vmlacc.f64	d0, d11, d0
     e9c:	0008030b 	andeq	r0, r8, fp, lsl #6
     ea0:	00240300 	eoreq	r0, r4, r0, lsl #6
     ea4:	0b3e0b0b 	bleq	f83ad8 <__bss_end__+0xf79b18>
     ea8:	00000e03 	andeq	r0, r0, r3, lsl #28
     eac:	3f002e04 	svccc	0x00002e04
     eb0:	3a0e0319 	bcc	381b1c <__bss_end__+0x377b5c>
     eb4:	270b3b0b 	strcs	r3, [fp, -fp, lsl #22]
     eb8:	12011119 	andne	r1, r1, #1073741830	; 0x40000006
     ebc:	97184006 	ldrls	r4, [r8, -r6]
     ec0:	00001942 	andeq	r1, r0, r2, asr #18
     ec4:	01110100 	tsteq	r1, r0, lsl #2
     ec8:	0b130e25 	bleq	4c4764 <__bss_end__+0x4ba7a4>
     ecc:	0e1b0e03 	cdpeq	14, 1, cr0, cr11, cr3, {0}
     ed0:	06120111 			; <UNDEFINED> instruction: 0x06120111
     ed4:	00001710 	andeq	r1, r0, r0, lsl r7
     ed8:	0b002402 	bleq	9ee8 <buf.4189+0x32c>
     edc:	030b3e0b 	movweq	r3, #48651	; 0xbe0b
     ee0:	03000008 	movweq	r0, #8
     ee4:	0b0b0024 	bleq	2c0f7c <__bss_end__+0x2b6fbc>
     ee8:	0e030b3e 	vmoveq.16	d3[0], r0
     eec:	04040000 	streq	r0, [r4], #-0
     ef0:	3a0b0b01 	bcc	2c3afc <__bss_end__+0x2b9b3c>
     ef4:	010b3b0b 	tsteq	fp, fp, lsl #22
     ef8:	05000013 	streq	r0, [r0, #-19]
     efc:	0e030028 	cdpeq	0, 0, cr0, cr3, cr8, {1}
     f00:	00000d1c 	andeq	r0, r0, ip, lsl sp
     f04:	3f012e06 	svccc	0x00012e06
     f08:	3a0e0319 	bcc	381b74 <__bss_end__+0x377bb4>
     f0c:	270b3b0b 	strcs	r3, [fp, -fp, lsl #22]
     f10:	12011119 	andne	r1, r1, #1073741830	; 0x40000006
     f14:	97184006 	ldrls	r4, [r8, -r6]
     f18:	13011942 	movwne	r1, #6466	; 0x1942
     f1c:	34070000 	strcc	r0, [r7], #-0
     f20:	3a0e0300 	bcc	381b28 <__bss_end__+0x377b68>
     f24:	490b3b0b 	stmdbmi	fp, {r0, r1, r3, r8, r9, fp, ip, sp}
     f28:	3c193f13 	ldccc	15, cr3, [r9], {19}
     f2c:	08000019 	stmdaeq	r0, {r0, r3, r4}
     f30:	08030034 	stmdaeq	r3, {r2, r4, r5}
     f34:	0b3b0b3a 	bleq	ec3c24 <__bss_end__+0xeb9c64>
     f38:	0b1c1349 	bleq	705c64 <__bss_end__+0x6fbca4>
     f3c:	34090000 	strcc	r0, [r9], #-0
     f40:	3a080300 	bcc	201b48 <__bss_end__+0x1f7b88>
     f44:	490b3b0b 	stmdbmi	fp, {r0, r1, r3, r8, r9, fp, ip, sp}
     f48:	0a000013 	beq	f9c <__code_start__-0x7064>
     f4c:	08030034 	stmdaeq	r3, {r2, r4, r5}
     f50:	0b3b0b3a 	bleq	ec3c40 <__bss_end__+0xeb9c80>
     f54:	18021349 	stmdane	r2, {r0, r3, r6, r8, r9, ip}
     f58:	0b0b0000 	bleq	2c0f60 <__bss_end__+0x2b6fa0>
     f5c:	12011101 	andne	r1, r1, #1073741824	; 0x40000000
     f60:	00130106 	andseq	r0, r3, r6, lsl #2
     f64:	00340c00 	eorseq	r0, r4, r0, lsl #24
     f68:	0b3a0803 	bleq	e82f7c <__bss_end__+0xe78fbc>
     f6c:	13490b3b 	movtne	r0, #39739	; 0x9b3b
     f70:	00001702 	andeq	r1, r0, r2, lsl #14
     f74:	0182890d 	orreq	r8, r2, sp, lsl #18
     f78:	31011100 	mrscc	r1, (UNDEF: 17)
     f7c:	0e000013 	mcreq	0, 0, r0, cr0, cr3, {0}
     f80:	01018289 	smlabbeq	r1, r9, r2, r8
     f84:	13310111 	teqne	r1, #1073741828	; 0x40000004
     f88:	00001301 	andeq	r1, r0, r1, lsl #6
     f8c:	01828a0f 	orreq	r8, r2, pc, lsl #20
     f90:	91180200 	tstls	r8, r0, lsl #4
     f94:	00001842 	andeq	r1, r0, r2, asr #16
     f98:	0b000f10 	bleq	4be0 <__code_start__-0x3420>
     f9c:	0013490b 	andseq	r4, r3, fp, lsl #18
     fa0:	002e1100 	eoreq	r1, lr, r0, lsl #2
     fa4:	0e03193f 	mcreq	9, 0, r1, cr3, cr15, {1}
     fa8:	0b3b0b3a 	bleq	ec3c98 <__bss_end__+0xeb9cd8>
     fac:	193c1927 	ldmdbne	ip!, {r0, r1, r2, r5, r8, fp, ip}
     fb0:	2e120000 	cdpcs	0, 1, cr0, cr2, cr0, {0}
     fb4:	03193f01 	tsteq	r9, #1, 30
     fb8:	3b0b3a0e 	blcc	2cf7f8 <__bss_end__+0x2c5838>
     fbc:	3c19270b 	ldccc	7, cr2, [r9], {11}
     fc0:	13000019 	movwne	r0, #25
     fc4:	13490005 	movtne	r0, #36869	; 0x9005
     fc8:	01000000 	mrseq	r0, (UNDEF: 0)
     fcc:	0e250111 	mcreq	1, 1, r0, cr5, cr1, {0}
     fd0:	0e030b13 	vmoveq.32	d3[0], r0
     fd4:	17550e1b 	smmlane	r5, fp, lr, r0
     fd8:	17100111 			; <UNDEFINED> instruction: 0x17100111
     fdc:	24020000 	strcs	r0, [r2], #-0
     fe0:	3e0b0b00 	vmlacc.f64	d0, d11, d0
     fe4:	0008030b 	andeq	r0, r8, fp, lsl #6
     fe8:	00240300 	eoreq	r0, r4, r0, lsl #6
     fec:	0b3e0b0b 	bleq	f83c20 <__bss_end__+0xf79c60>
     ff0:	00000e03 	andeq	r0, r0, r3, lsl #28
     ff4:	3f012e04 	svccc	0x00012e04
     ff8:	3a0e0319 	bcc	381c64 <__bss_end__+0x377ca4>
     ffc:	270b3b0b 	strcs	r3, [fp, -fp, lsl #22]
    1000:	11134919 	tstne	r3, r9, lsl r9
    1004:	40061201 	andmi	r1, r6, r1, lsl #4
    1008:	19429718 	stmdbne	r2, {r3, r4, r8, r9, sl, ip, pc}^
    100c:	00001301 	andeq	r1, r0, r1, lsl #6
    1010:	03003405 	movweq	r3, #1029	; 0x405
    1014:	3b0b3a0e 	blcc	2cf854 <__bss_end__+0x2c5894>
    1018:	0213490b 	andseq	r4, r3, #180224	; 0x2c000
    101c:	06000017 			; <UNDEFINED> instruction: 0x06000017
    1020:	193f012e 	ldmdbne	pc!, {r1, r2, r3, r5, r8}	; <UNPREDICTABLE>
    1024:	0b3a0e03 	bleq	e84838 <__bss_end__+0xe7a878>
    1028:	19270b3b 	stmdbne	r7!, {r0, r1, r3, r4, r5, r8, r9, fp}
    102c:	06120111 			; <UNDEFINED> instruction: 0x06120111
    1030:	42971840 	addsmi	r1, r7, #64, 16	; 0x400000
    1034:	00130119 	andseq	r0, r3, r9, lsl r1
    1038:	00340700 	eorseq	r0, r4, r0, lsl #14
    103c:	0b3a0e03 	bleq	e84850 <__bss_end__+0xe7a890>
    1040:	13490b3b 	movtne	r0, #39739	; 0x9b3b
    1044:	0000061c 	andeq	r0, r0, ip, lsl r6
    1048:	03003408 	movweq	r3, #1032	; 0x408
    104c:	3b0b3a0e 	blcc	2cf88c <__bss_end__+0x2c58cc>
    1050:	1c13490b 	ldcne	9, cr4, [r3], {11}
    1054:	0900000b 	stmdbeq	r0, {r0, r1, r3}
    1058:	00018289 	andeq	r8, r1, r9, lsl #5
    105c:	13310111 	teqne	r1, #1073741828	; 0x40000004
    1060:	890a0000 	stmdbhi	sl, {}	; <UNPREDICTABLE>
    1064:	11010182 	smlabbne	r1, r2, r1, r0
    1068:	01133101 	tsteq	r3, r1, lsl #2
    106c:	0b000013 	bleq	10c0 <__code_start__-0x6f40>
    1070:	0001828a 	andeq	r8, r1, sl, lsl #5
    1074:	42911802 	addsmi	r1, r1, #131072	; 0x20000
    1078:	0c000018 	stceq	0, cr0, [r0], {24}
    107c:	01018289 	smlabbeq	r1, r9, r2, r8
    1080:	13310111 	teqne	r1, #1073741828	; 0x40000004
    1084:	260d0000 	strcs	r0, [sp], -r0
    1088:	00134900 	andseq	r4, r3, r0, lsl #18
    108c:	012e0e00 	teqeq	lr, r0, lsl #28
    1090:	0e03193f 	mcreq	9, 0, r1, cr3, cr15, {1}
    1094:	0b3b0b3a 	bleq	ec3d84 <__bss_end__+0xeb9dc4>
    1098:	193c1927 	ldmdbne	ip!, {r0, r1, r2, r5, r8, fp, ip}
    109c:	00001301 	andeq	r1, r0, r1, lsl #6
    10a0:	4900050f 	stmdbmi	r0, {r0, r1, r2, r3, r8, sl}
    10a4:	10000013 	andne	r0, r0, r3, lsl r0
    10a8:	193f012e 	ldmdbne	pc!, {r1, r2, r3, r5, r8}	; <UNPREDICTABLE>
    10ac:	0b3a0e03 	bleq	e848c0 <__bss_end__+0xe7a900>
    10b0:	19270b3b 	stmdbne	r7!, {r0, r1, r3, r4, r5, r8, r9, fp}
    10b4:	0000193c 	andeq	r1, r0, ip, lsr r9
    10b8:	01110100 	tsteq	r1, r0, lsl #2
    10bc:	0b130e25 	bleq	4c4958 <__bss_end__+0x4ba998>
    10c0:	0e1b0e03 	cdpeq	14, 1, cr0, cr11, cr3, {0}
    10c4:	06120111 			; <UNDEFINED> instruction: 0x06120111
    10c8:	00001710 	andeq	r1, r0, r0, lsl r7
    10cc:	0b002402 	bleq	a0dc <__bss_end__+0x11c>
    10d0:	030b3e0b 	movweq	r3, #48651	; 0xbe0b
    10d4:	03000008 	movweq	r0, #8
    10d8:	0b0b0024 	bleq	2c1170 <__bss_end__+0x2b71b0>
    10dc:	0e030b3e 	vmoveq.16	d3[0], r0
    10e0:	2e040000 	cdpcs	0, 0, cr0, cr4, cr0, {0}
    10e4:	03193f01 	tsteq	r9, #1, 30
    10e8:	3b0b3a0e 	blcc	2cf928 <__bss_end__+0x2c5968>
    10ec:	1119270b 	tstne	r9, fp, lsl #14
    10f0:	40061201 	andmi	r1, r6, r1, lsl #4
    10f4:	19429718 	stmdbne	r2, {r3, r4, r8, r9, sl, ip, pc}^
    10f8:	00001301 	andeq	r1, r0, r1, lsl #6
    10fc:	03000505 	movweq	r0, #1285	; 0x505
    1100:	3b0b3a0e 	blcc	2cf940 <__bss_end__+0x2c5980>
    1104:	0213490b 	andseq	r4, r3, #180224	; 0x2c000
    1108:	06000017 			; <UNDEFINED> instruction: 0x06000017
    110c:	193f012e 	ldmdbne	pc!, {r1, r2, r3, r5, r8}	; <UNPREDICTABLE>
    1110:	0b3a0e03 	bleq	e84924 <__bss_end__+0xe7a964>
    1114:	19270b3b 	stmdbne	r7!, {r0, r1, r3, r4, r5, r8, r9, fp}
    1118:	01111349 	tsteq	r1, r9, asr #6
    111c:	18400612 	stmdane	r0, {r1, r4, r9, sl}^
    1120:	01194297 			; <UNDEFINED> instruction: 0x01194297
    1124:	07000013 	smladeq	r0, r3, r0, r0
    1128:	01018289 	smlabbeq	r1, r9, r2, r8
    112c:	13310111 	teqne	r1, #1073741828	; 0x40000004
    1130:	8a080000 	bhi	201138 <__bss_end__+0x1f7178>
    1134:	02000182 	andeq	r0, r0, #-2147483616	; 0x80000020
    1138:	18429118 	stmdane	r2, {r3, r4, r8, ip, pc}^
    113c:	34090000 	strcc	r0, [r9], #-0
    1140:	3a080300 	bcc	201d48 <__bss_end__+0x1f7d88>
    1144:	490b3b0b 	stmdbmi	fp, {r0, r1, r3, r8, r9, fp, ip, sp}
    1148:	00170213 	andseq	r0, r7, r3, lsl r2
    114c:	82890a00 	addhi	r0, r9, #0, 20
    1150:	01110001 	tsteq	r1, r1
    1154:	00001331 	andeq	r1, r0, r1, lsr r3
    1158:	0300050b 	movweq	r0, #1291	; 0x50b
    115c:	3b0b3a08 	blcc	2cf984 <__bss_end__+0x2c59c4>
    1160:	0213490b 	andseq	r4, r3, #180224	; 0x2c000
    1164:	0c000017 	stceq	0, cr0, [r0], {23}
    1168:	08030034 	stmdaeq	r3, {r2, r4, r5}
    116c:	0b3b0b3a 	bleq	ec3e5c <__bss_end__+0xeb9e9c>
    1170:	18021349 	stmdane	r2, {r0, r3, r6, r8, r9, ip}
    1174:	0b0d0000 	bleq	34117c <__bss_end__+0x3371bc>
    1178:	12011101 	andne	r1, r1, #1073741824	; 0x40000000
    117c:	00130106 	andseq	r0, r3, r6, lsl #2
    1180:	012e0e00 	teqeq	lr, r0, lsl #28
    1184:	0e03193f 	mcreq	9, 0, r1, cr3, cr15, {1}
    1188:	0b3b0b3a 	bleq	ec3e78 <__bss_end__+0xeb9eb8>
    118c:	13491927 	movtne	r1, #39207	; 0x9927
    1190:	1301193c 	movwne	r1, #6460	; 0x193c
    1194:	050f0000 	streq	r0, [pc, #-0]	; 119c <__code_start__-0x6e64>
    1198:	00134900 	andseq	r4, r3, r0, lsl #18
    119c:	002e1000 	eoreq	r1, lr, r0
    11a0:	0e03193f 	mcreq	9, 0, r1, cr3, cr15, {1}
    11a4:	0b3b0b3a 	bleq	ec3e94 <__bss_end__+0xeb9ed4>
    11a8:	193c1927 	ldmdbne	ip!, {r0, r1, r2, r5, r8, fp, ip}
    11ac:	01000000 	mrseq	r0, (UNDEF: 0)
    11b0:	0e250111 	mcreq	1, 1, r0, cr5, cr1, {0}
    11b4:	0e030b13 	vmoveq.32	d3[0], r0
    11b8:	01110e1b 	tsteq	r1, fp, lsl lr
    11bc:	17100612 			; <UNDEFINED> instruction: 0x17100612
    11c0:	24020000 	strcs	r0, [r2], #-0
    11c4:	3e0b0b00 	vmlacc.f64	d0, d11, d0
    11c8:	0008030b 	andeq	r0, r8, fp, lsl #6
    11cc:	00240300 	eoreq	r0, r4, r0, lsl #6
    11d0:	0b3e0b0b 	bleq	f83e04 <__bss_end__+0xf79e44>
    11d4:	00000e03 	andeq	r0, r0, r3, lsl #28
    11d8:	49003504 	stmdbmi	r0, {r2, r8, sl, ip, sp}
    11dc:	05000013 	streq	r0, [r0, #-19]
    11e0:	0e030016 	mcreq	0, 0, r0, cr3, cr6, {0}
    11e4:	0b3b0b3a 	bleq	ec3ed4 <__bss_end__+0xeb9f14>
    11e8:	00001349 	andeq	r1, r0, r9, asr #6
    11ec:	03001606 	movweq	r1, #1542	; 0x606
    11f0:	3b0b3a0e 	blcc	2cfa30 <__bss_end__+0x2c5a70>
    11f4:	00134905 	andseq	r4, r3, r5, lsl #18
    11f8:	01170700 	tsteq	r7, r0, lsl #14
    11fc:	0b3a0b0b 	bleq	e83e30 <__bss_end__+0xe79e70>
    1200:	13010b3b 	movwne	r0, #6971	; 0x1b3b
    1204:	0d080000 	stceq	0, cr0, [r8, #-0]
    1208:	3a0e0300 	bcc	381e10 <__bss_end__+0x377e50>
    120c:	490b3b0b 	stmdbmi	fp, {r0, r1, r3, r8, r9, fp, ip, sp}
    1210:	09000013 	stmdbeq	r0, {r0, r1, r4}
    1214:	13490101 	movtne	r0, #37121	; 0x9101
    1218:	00001301 	andeq	r1, r0, r1, lsl #6
    121c:	4900210a 	stmdbmi	r0, {r1, r3, r8, sp}
    1220:	000b2f13 	andeq	r2, fp, r3, lsl pc
    1224:	01130b00 	tsteq	r3, r0, lsl #22
    1228:	0b3a0b0b 	bleq	e83e5c <__bss_end__+0xe79e9c>
    122c:	13010b3b 	movwne	r0, #6971	; 0x1b3b
    1230:	0d0c0000 	stceq	0, cr0, [ip, #-0]
    1234:	3a0e0300 	bcc	381e3c <__bss_end__+0x377e7c>
    1238:	490b3b0b 	stmdbmi	fp, {r0, r1, r3, r8, r9, fp, ip, sp}
    123c:	000b3813 	andeq	r3, fp, r3, lsl r8
    1240:	000f0d00 	andeq	r0, pc, r0, lsl #26
    1244:	00000b0b 	andeq	r0, r0, fp, lsl #22
    1248:	0b000f0e 	bleq	4e88 <__code_start__-0x3178>
    124c:	0013490b 	andseq	r4, r3, fp, lsl #18
    1250:	00260f00 	eoreq	r0, r6, r0, lsl #30
    1254:	00001349 	andeq	r1, r0, r9, asr #6
    1258:	03011310 	movweq	r1, #4880	; 0x1310
    125c:	3a0b0b0e 	bcc	2c3e9c <__bss_end__+0x2b9edc>
    1260:	010b3b0b 	tsteq	fp, fp, lsl #22
    1264:	11000013 	tstne	r0, r3, lsl r0
    1268:	0803000d 	stmdaeq	r3, {r0, r2, r3}
    126c:	0b3b0b3a 	bleq	ec3f5c <__bss_end__+0xeb9f9c>
    1270:	0b381349 	bleq	e05f9c <__bss_end__+0xdfbfdc>
    1274:	13120000 	tstne	r2, #0
    1278:	0b0e0301 	bleq	381e84 <__bss_end__+0x377ec4>
    127c:	3b0b3a05 	blcc	2cfa98 <__bss_end__+0x2c5ad8>
    1280:	0013010b 	andseq	r0, r3, fp, lsl #2
    1284:	000d1300 	andeq	r1, sp, r0, lsl #6
    1288:	0b3a0e03 	bleq	e84a9c <__bss_end__+0xe7aadc>
    128c:	13490b3b 	movtne	r0, #39739	; 0x9b3b
    1290:	00000538 	andeq	r0, r0, r8, lsr r5
    1294:	27001514 	smladcs	r0, r4, r5, r1
    1298:	15000019 	strne	r0, [r0, #-25]
    129c:	19270115 	stmdbne	r7!, {r0, r2, r4, r8}
    12a0:	13011349 	movwne	r1, #4937	; 0x1349
    12a4:	05160000 	ldreq	r0, [r6, #-0]
    12a8:	00134900 	andseq	r4, r3, r0, lsl #18
    12ac:	01131700 	tsteq	r3, r0, lsl #14
    12b0:	050b0e03 	streq	r0, [fp, #-3587]	; 0xe03
    12b4:	053b0b3a 	ldreq	r0, [fp, #-2874]!	; 0xb3a
    12b8:	00001301 	andeq	r1, r0, r1, lsl #6
    12bc:	03000d18 	movweq	r0, #3352	; 0xd18
    12c0:	3b0b3a0e 	blcc	2cfb00 <__bss_end__+0x2c5b40>
    12c4:	38134905 	ldmdacc	r3, {r0, r2, r8, fp, lr}
    12c8:	1900000b 	stmdbne	r0, {r0, r1, r3}
    12cc:	0e03000d 	cdpeq	0, 0, cr0, cr3, cr13, {0}
    12d0:	053b0b3a 	ldreq	r0, [fp, #-2874]!	; 0xb3a
    12d4:	05381349 	ldreq	r1, [r8, #-841]!	; 0x349
    12d8:	131a0000 	tstne	sl, #0
    12dc:	0b0e0301 	bleq	381ee8 <__bss_end__+0x377f28>
    12e0:	3b0b3a0b 	blcc	2cfb14 <__bss_end__+0x2c5b54>
    12e4:	00130105 	andseq	r0, r3, r5, lsl #2
    12e8:	01131b00 	tsteq	r3, r0, lsl #22
    12ec:	0b3a0b0b 	bleq	e83f20 <__bss_end__+0xe79f60>
    12f0:	1301053b 	movwne	r0, #5435	; 0x153b
    12f4:	171c0000 	ldrne	r0, [ip, -r0]
    12f8:	3a0b0b01 	bcc	2c3f04 <__bss_end__+0x2b9f44>
    12fc:	01053b0b 	tsteq	r5, fp, lsl #22
    1300:	1d000013 	stcne	0, cr0, [r0, #-76]	; 0xffffffb4
    1304:	0e03000d 	cdpeq	0, 0, cr0, cr3, cr13, {0}
    1308:	053b0b3a 	ldreq	r0, [fp, #-2874]!	; 0xb3a
    130c:	00001349 	andeq	r1, r0, r9, asr #6
    1310:	2701151e 	smladcs	r1, lr, r5, r1
    1314:	00130119 	andseq	r0, r3, r9, lsl r1
    1318:	00341f00 	eorseq	r1, r4, r0, lsl #30
    131c:	0b3a0e03 	bleq	e84b30 <__bss_end__+0xe7ab70>
    1320:	1349053b 	movtne	r0, #38203	; 0x953b
    1324:	193c193f 	ldmdbne	ip!, {r0, r1, r2, r3, r4, r5, r8, fp, ip}
    1328:	34200000 	strtcc	r0, [r0], #-0
    132c:	3a0e0300 	bcc	381f34 <__bss_end__+0x377f74>
    1330:	490b3b0b 	stmdbmi	fp, {r0, r1, r3, r8, r9, fp, ip, sp}
    1334:	3c193f13 	ldccc	15, cr3, [r9], {19}
    1338:	21000019 	tstcs	r0, r9, lsl r0
    133c:	0b0b0104 	bleq	2c1754 <__bss_end__+0x2b7794>
    1340:	0b3a1349 	bleq	e8606c <__bss_end__+0xe7c0ac>
    1344:	13010b3b 	movwne	r0, #6971	; 0x1b3b
    1348:	28220000 	stmdacs	r2!, {}	; <UNPREDICTABLE>
    134c:	1c0e0300 	stcne	3, cr0, [lr], {-0}
    1350:	2300000b 	movwcs	r0, #11
    1354:	0e030034 	mcreq	0, 0, r0, cr3, cr4, {1}
    1358:	0b3b0b3a 	bleq	ec4048 <__bss_end__+0xeba088>
    135c:	061c1349 	ldreq	r1, [ip], -r9, asr #6
    1360:	2e240000 	cdpcs	0, 2, cr0, cr4, cr0, {0}
    1364:	03193f01 	tsteq	r9, #1, 30
    1368:	3b0b3a0e 	blcc	2cfba8 <__bss_end__+0x2c5be8>
    136c:	4919270b 	ldmdbmi	r9, {r0, r1, r3, r8, r9, sl, sp}
    1370:	12011113 	andne	r1, r1, #-1073741820	; 0xc0000004
    1374:	97184006 	ldrls	r4, [r8, -r6]
    1378:	13011942 	movwne	r1, #6466	; 0x1942
    137c:	89250000 	stmdbhi	r5!, {}	; <UNPREDICTABLE>
    1380:	11000182 	smlabbne	r0, r2, r1, r0
    1384:	00133101 	andseq	r3, r3, r1, lsl #2
    1388:	012e2600 	teqeq	lr, r0, lsl #12
    138c:	0e03193f 	mcreq	9, 0, r1, cr3, cr15, {1}
    1390:	0b3b0b3a 	bleq	ec4080 <__bss_end__+0xeba0c0>
    1394:	01111927 	tsteq	r1, r7, lsr #18
    1398:	18400612 	stmdane	r0, {r1, r4, r9, sl}^
    139c:	01194297 			; <UNDEFINED> instruction: 0x01194297
    13a0:	27000013 	smladcs	r0, r3, r0, r0
    13a4:	08030005 	stmdaeq	r3, {r0, r2}
    13a8:	0b3b0b3a 	bleq	ec4098 <__bss_end__+0xeba0d8>
    13ac:	17021349 	strne	r1, [r2, -r9, asr #6]
    13b0:	89280000 	stmdbhi	r8!, {}	; <UNPREDICTABLE>
    13b4:	11010182 	smlabbne	r1, r2, r1, r0
    13b8:	01133101 	tsteq	r3, r1, lsl #2
    13bc:	29000013 	stmdbcs	r0, {r0, r1, r4}
    13c0:	0001828a 	andeq	r8, r1, sl, lsl #5
    13c4:	42911802 	addsmi	r1, r1, #131072	; 0x20000
    13c8:	2a000018 	bcs	1430 <__code_start__-0x6bd0>
    13cc:	08030034 	stmdaeq	r3, {r2, r4, r5}
    13d0:	0b3b0b3a 	bleq	ec40c0 <__bss_end__+0xeba100>
    13d4:	18021349 	stmdane	r2, {r0, r3, r6, r8, r9, ip}
    13d8:	892b0000 	stmdbhi	fp!, {}	; <UNPREDICTABLE>
    13dc:	11010182 	smlabbne	r1, r2, r1, r0
    13e0:	00133101 	andseq	r3, r3, r1, lsl #2
    13e4:	012e2c00 	teqeq	lr, r0, lsl #24
    13e8:	0b3a0e03 	bleq	e84bfc <__bss_end__+0xe7ac3c>
    13ec:	19270b3b 	stmdbne	r7!, {r0, r1, r3, r4, r5, r8, r9, fp}
    13f0:	06120111 			; <UNDEFINED> instruction: 0x06120111
    13f4:	42971840 	addsmi	r1, r7, #64, 16	; 0x400000
    13f8:	00130119 	andseq	r0, r3, r9, lsl r1
    13fc:	00052d00 	andeq	r2, r5, r0, lsl #26
    1400:	0b3a0e03 	bleq	e84c14 <__bss_end__+0xe7ac54>
    1404:	13490b3b 	movtne	r0, #39739	; 0x9b3b
    1408:	00001702 	andeq	r1, r0, r2, lsl #14
    140c:	0000352e 	andeq	r3, r0, lr, lsr #10
    1410:	002e2f00 	eoreq	r2, lr, r0, lsl #30
    1414:	193c193f 	ldmdbne	ip!, {r0, r1, r2, r3, r4, r5, r8, fp, ip}
    1418:	0e030e6e 	cdpeq	14, 0, cr0, cr3, cr14, {3}
    141c:	0b3b0b3a 	bleq	ec410c <__bss_end__+0xeba14c>
    1420:	01000000 	mrseq	r0, (UNDEF: 0)
    1424:	0e250111 	mcreq	1, 1, r0, cr5, cr1, {0}
    1428:	0e030b13 	vmoveq.32	d3[0], r0
    142c:	01110e1b 	tsteq	r1, fp, lsl lr
    1430:	17100612 			; <UNDEFINED> instruction: 0x17100612
    1434:	24020000 	strcs	r0, [r2], #-0
    1438:	3e0b0b00 	vmlacc.f64	d0, d11, d0
    143c:	0008030b 	andeq	r0, r8, fp, lsl #6
    1440:	00240300 	eoreq	r0, r4, r0, lsl #6
    1444:	0b3e0b0b 	bleq	f84078 <__bss_end__+0xf7a0b8>
    1448:	00000e03 	andeq	r0, r0, r3, lsl #28
    144c:	49002604 	stmdbmi	r0, {r2, r9, sl, sp}
    1450:	05000013 	streq	r0, [r0, #-19]
    1454:	0e030016 	mcreq	0, 0, r0, cr3, cr6, {0}
    1458:	0b3b0b3a 	bleq	ec4148 <__bss_end__+0xeba188>
    145c:	00001349 	andeq	r1, r0, r9, asr #6
    1460:	03001606 	movweq	r1, #1542	; 0x606
    1464:	3b0b3a0e 	blcc	2cfca4 <__bss_end__+0x2c5ce4>
    1468:	00134905 	andseq	r4, r3, r5, lsl #18
    146c:	01170700 	tsteq	r7, r0, lsl #14
    1470:	0b3a0b0b 	bleq	e840a4 <__bss_end__+0xe7a0e4>
    1474:	13010b3b 	movwne	r0, #6971	; 0x1b3b
    1478:	0d080000 	stceq	0, cr0, [r8, #-0]
    147c:	3a0e0300 	bcc	382084 <__bss_end__+0x3780c4>
    1480:	490b3b0b 	stmdbmi	fp, {r0, r1, r3, r8, r9, fp, ip, sp}
    1484:	09000013 	stmdbeq	r0, {r0, r1, r4}
    1488:	13490101 	movtne	r0, #37121	; 0x9101
    148c:	00001301 	andeq	r1, r0, r1, lsl #6
    1490:	4900210a 	stmdbmi	r0, {r1, r3, r8, sp}
    1494:	000b2f13 	andeq	r2, fp, r3, lsl pc
    1498:	01130b00 	tsteq	r3, r0, lsl #22
    149c:	0b3a0b0b 	bleq	e840d0 <__bss_end__+0xe7a110>
    14a0:	13010b3b 	movwne	r0, #6971	; 0x1b3b
    14a4:	0d0c0000 	stceq	0, cr0, [ip, #-0]
    14a8:	3a0e0300 	bcc	3820b0 <__bss_end__+0x3780f0>
    14ac:	490b3b0b 	stmdbmi	fp, {r0, r1, r3, r8, r9, fp, ip, sp}
    14b0:	000b3813 	andeq	r3, fp, r3, lsl r8
    14b4:	000f0d00 	andeq	r0, pc, r0, lsl #26
    14b8:	00000b0b 	andeq	r0, r0, fp, lsl #22
    14bc:	0b000f0e 	bleq	50fc <__code_start__-0x2f04>
    14c0:	0013490b 	andseq	r4, r3, fp, lsl #18
    14c4:	01130f00 	tsteq	r3, r0, lsl #30
    14c8:	0b0b0e03 	bleq	2c4cdc <__bss_end__+0x2bad1c>
    14cc:	0b3b0b3a 	bleq	ec41bc <__bss_end__+0xeba1fc>
    14d0:	00001301 	andeq	r1, r0, r1, lsl #6
    14d4:	03000d10 	movweq	r0, #3344	; 0xd10
    14d8:	3b0b3a08 	blcc	2cfd00 <__bss_end__+0x2c5d40>
    14dc:	3813490b 	ldmdacc	r3, {r0, r1, r3, r8, fp, lr}
    14e0:	1100000b 	tstne	r0, fp
    14e4:	0e030113 	mcreq	1, 0, r0, cr3, cr3, {0}
    14e8:	0b3a050b 	bleq	e8291c <__bss_end__+0xe7895c>
    14ec:	13010b3b 	movwne	r0, #6971	; 0x1b3b
    14f0:	0d120000 	ldceq	0, cr0, [r2, #-0]
    14f4:	3a0e0300 	bcc	3820fc <__bss_end__+0x37813c>
    14f8:	490b3b0b 	stmdbmi	fp, {r0, r1, r3, r8, r9, fp, ip, sp}
    14fc:	00053813 	andeq	r3, r5, r3, lsl r8
    1500:	00151300 	andseq	r1, r5, r0, lsl #6
    1504:	00001927 	andeq	r1, r0, r7, lsr #18
    1508:	27011514 	smladcs	r1, r4, r5, r1
    150c:	01134919 	tsteq	r3, r9, lsl r9
    1510:	15000013 	strne	r0, [r0, #-19]
    1514:	13490005 	movtne	r0, #36869	; 0x9005
    1518:	13160000 	tstne	r6, #0
    151c:	0b0e0301 	bleq	382128 <__bss_end__+0x378168>
    1520:	3b0b3a05 	blcc	2cfd3c <__bss_end__+0x2c5d7c>
    1524:	00130105 	andseq	r0, r3, r5, lsl #2
    1528:	000d1700 	andeq	r1, sp, r0, lsl #14
    152c:	0b3a0e03 	bleq	e84d40 <__bss_end__+0xe7ad80>
    1530:	1349053b 	movtne	r0, #38203	; 0x953b
    1534:	00000b38 	andeq	r0, r0, r8, lsr fp
    1538:	03000d18 	movweq	r0, #3352	; 0xd18
    153c:	3b0b3a0e 	blcc	2cfd7c <__bss_end__+0x2c5dbc>
    1540:	38134905 	ldmdacc	r3, {r0, r2, r8, fp, lr}
    1544:	19000005 	stmdbne	r0, {r0, r2}
    1548:	0e030113 	mcreq	1, 0, r0, cr3, cr3, {0}
    154c:	0b3a0b0b 	bleq	e84180 <__bss_end__+0xe7a1c0>
    1550:	1301053b 	movwne	r0, #5435	; 0x153b
    1554:	131a0000 	tstne	sl, #0
    1558:	3a0b0b01 	bcc	2c4164 <__bss_end__+0x2ba1a4>
    155c:	01053b0b 	tsteq	r5, fp, lsl #22
    1560:	1b000013 	blne	15b4 <__code_start__-0x6a4c>
    1564:	0b0b0117 	bleq	2c19c8 <__bss_end__+0x2b7a08>
    1568:	053b0b3a 	ldreq	r0, [fp, #-2874]!	; 0xb3a
    156c:	00001301 	andeq	r1, r0, r1, lsl #6
    1570:	03000d1c 	movweq	r0, #3356	; 0xd1c
    1574:	3b0b3a0e 	blcc	2cfdb4 <__bss_end__+0x2c5df4>
    1578:	00134905 	andseq	r4, r3, r5, lsl #18
    157c:	01151d00 	tsteq	r5, r0, lsl #26
    1580:	13011927 	movwne	r1, #6439	; 0x1927
    1584:	341e0000 	ldrcc	r0, [lr], #-0
    1588:	3a0e0300 	bcc	382190 <__bss_end__+0x3781d0>
    158c:	49053b0b 	stmdbmi	r5, {r0, r1, r3, r8, r9, fp, ip, sp}
    1590:	3c193f13 	ldccc	15, cr3, [r9], {19}
    1594:	1f000019 	svcne	0x00000019
    1598:	0e030034 	mcreq	0, 0, r0, cr3, cr4, {1}
    159c:	0b3b0b3a 	bleq	ec428c <__bss_end__+0xeba2cc>
    15a0:	193f1349 	ldmdbne	pc!, {r0, r3, r6, r8, r9, ip}	; <UNPREDICTABLE>
    15a4:	0000193c 	andeq	r1, r0, ip, lsr r9
    15a8:	0b010420 	bleq	42630 <__bss_end__+0x38670>
    15ac:	3a13490b 	bcc	4d39e0 <__bss_end__+0x4c9a20>
    15b0:	010b3b0b 	tsteq	fp, fp, lsl #22
    15b4:	21000013 	tstcs	r0, r3, lsl r0
    15b8:	0e030028 	cdpeq	0, 0, cr0, cr3, cr8, {1}
    15bc:	00000b1c 	andeq	r0, r0, ip, lsl fp
    15c0:	03003422 	movweq	r3, #1058	; 0x422
    15c4:	3b0b3a0e 	blcc	2cfe04 <__bss_end__+0x2c5e44>
    15c8:	1c13490b 	ldcne	9, cr4, [r3], {11}
    15cc:	23000006 	movwcs	r0, #6
    15d0:	193f012e 	ldmdbne	pc!, {r1, r2, r3, r5, r8}	; <UNPREDICTABLE>
    15d4:	0b3a0e03 	bleq	e84de8 <__bss_end__+0xe7ae28>
    15d8:	19270b3b 	stmdbne	r7!, {r0, r1, r3, r4, r5, r8, r9, fp}
    15dc:	01111349 	tsteq	r1, r9, asr #6
    15e0:	18400612 	stmdane	r0, {r1, r4, r9, sl}^
    15e4:	01194297 			; <UNDEFINED> instruction: 0x01194297
    15e8:	24000013 	strcs	r0, [r0], #-19
    15ec:	08030005 	stmdaeq	r3, {r0, r2}
    15f0:	0b3b0b3a 	bleq	ec42e0 <__bss_end__+0xeba320>
    15f4:	17021349 	strne	r1, [r2, -r9, asr #6]
    15f8:	34250000 	strtcc	r0, [r5], #-0
    15fc:	3a0e0300 	bcc	382204 <__bss_end__+0x378244>
    1600:	490b3b0b 	stmdbmi	fp, {r0, r1, r3, r8, r9, fp, ip, sp}
    1604:	00170213 	andseq	r0, r7, r3, lsl r2
    1608:	00342600 	eorseq	r2, r4, r0, lsl #12
    160c:	0b3a0803 	bleq	e83620 <__bss_end__+0xe79660>
    1610:	13490b3b 	movtne	r0, #39739	; 0x9b3b
    1614:	00001702 	andeq	r1, r0, r2, lsl #14
    1618:	01828927 	orreq	r8, r2, r7, lsr #18
    161c:	31011101 	tstcc	r1, r1, lsl #2
    1620:	28000013 	stmdacs	r0, {r0, r1, r4}
    1624:	0001828a 	andeq	r8, r1, sl, lsl #5
    1628:	42911802 	addsmi	r1, r1, #131072	; 0x20000
    162c:	29000018 	stmdbcs	r0, {r3, r4}
    1630:	193f012e 	ldmdbne	pc!, {r1, r2, r3, r5, r8}	; <UNPREDICTABLE>
    1634:	0b3a0e03 	bleq	e84e48 <__bss_end__+0xe7ae88>
    1638:	19270b3b 	stmdbne	r7!, {r0, r1, r3, r4, r5, r8, r9, fp}
    163c:	06120111 			; <UNDEFINED> instruction: 0x06120111
    1640:	42971840 	addsmi	r1, r7, #64, 16	; 0x400000
    1644:	00130119 	andseq	r0, r3, r9, lsl r1
    1648:	82892a00 	addhi	r2, r9, #0, 20
    164c:	01110101 	tsteq	r1, r1, lsl #2
    1650:	13011331 	movwne	r1, #4913	; 0x1331
    1654:	892b0000 	stmdbhi	fp!, {}	; <UNPREDICTABLE>
    1658:	11000182 	smlabbne	r0, r2, r1, r0
    165c:	00133101 	andseq	r3, r3, r1, lsl #2
    1660:	00052c00 	andeq	r2, r5, r0, lsl #24
    1664:	0b3a0e03 	bleq	e84e78 <__bss_end__+0xe7aeb8>
    1668:	13490b3b 	movtne	r0, #39739	; 0x9b3b
    166c:	00001702 	andeq	r1, r0, r2, lsl #14
    1670:	0300342d 	movweq	r3, #1069	; 0x42d
    1674:	3b0b3a08 	blcc	2cfe9c <__bss_end__+0x2c5edc>
    1678:	0213490b 	andseq	r4, r3, #180224	; 0x2c000
    167c:	2e000018 	mcrcs	0, 0, r0, cr0, cr8, {0}
    1680:	193f002e 	ldmdbne	pc!, {r1, r2, r3, r5}	; <UNPREDICTABLE>
    1684:	0e6e193c 	mcreq	9, 3, r1, cr14, cr12, {1}
    1688:	0b3a0e03 	bleq	e84e9c <__bss_end__+0xe7aedc>
    168c:	00000b3b 	andeq	r0, r0, fp, lsr fp
	...

Disassembly of section .debug_loc:

00000000 <.debug_loc>:
   0:	00000004 	andeq	r0, r0, r4
   4:	00000014 	andeq	r0, r0, r4, lsl r0
   8:	9f300002 	svcls	0x00300002
   c:	00000014 	andeq	r0, r0, r4, lsl r0
  10:	00000030 	andeq	r0, r0, r0, lsr r0
  14:	00530001 	subseq	r0, r3, r1
  18:	00000000 	andeq	r0, r0, r0
  1c:	7c000000 	stcvc	0, cr0, [r0], {-0}
  20:	a8000000 	stmdage	r0, {}	; <UNPREDICTABLE>
  24:	01000000 	mrseq	r0, (UNDEF: 0)
  28:	00a85000 	adceq	r5, r8, r0
  2c:	01ec0000 	mvneq	r0, r0
  30:	00040000 	andeq	r0, r4, r0
  34:	9f5001f3 	svcls	0x005001f3
	...
  40:	0000007c 	andeq	r0, r0, ip, ror r0
  44:	000000ac 	andeq	r0, r0, ip, lsr #1
  48:	ac510001 	mrrcge	0, 0, r0, r1, cr1
  4c:	ac000000 	stcge	0, cr0, [r0], {-0}
  50:	01000001 	tsteq	r0, r1
  54:	01ac5400 			; <UNDEFINED> instruction: 0x01ac5400
  58:	01ec0000 	mvneq	r0, r0
  5c:	00040000 	andeq	r0, r4, r0
  60:	9f5101f3 	svcls	0x005101f3
	...
  6c:	0000007c 	andeq	r0, r0, ip, ror r0
  70:	000000b0 	strheq	r0, [r0], -r0	; <UNPREDICTABLE>
  74:	b0520001 	subslt	r0, r2, r1
  78:	ec000000 	stc	0, cr0, [r0], {-0}
  7c:	04000001 	streq	r0, [r0], #-1
  80:	5201f300 	andpl	pc, r1, #0, 6
  84:	0000009f 	muleq	r0, pc, r0	; <UNPREDICTABLE>
  88:	00000000 	andeq	r0, r0, r0
  8c:	0000bc00 	andeq	fp, r0, r0, lsl #24
  90:	0000c000 	andeq	ip, r0, r0
  94:	53000100 	movwpl	r0, #256	; 0x100
	...
  a4:	00000023 	andeq	r0, r0, r3, lsr #32
  a8:	23500001 	cmpcs	r0, #1
  ac:	44000000 	strmi	r0, [r0], #-0
  b0:	04000000 	streq	r0, [r0], #-0
  b4:	5001f300 	andpl	pc, r1, r0, lsl #6
  b8:	0000449f 	muleq	r0, pc, r4	; <UNPREDICTABLE>
  bc:	00005f00 	andeq	r5, r0, r0, lsl #30
  c0:	50000100 	andpl	r0, r0, r0, lsl #2
  c4:	0000005f 	andeq	r0, r0, pc, asr r0
  c8:	00000080 	andeq	r0, r0, r0, lsl #1
  cc:	01f30004 	mvnseq	r0, r4
  d0:	00809f50 	addeq	r9, r0, r0, asr pc
  d4:	00b00000 	adcseq	r0, r0, r0
  d8:	00010000 	andeq	r0, r1, r0
  dc:	00000050 	andeq	r0, r0, r0, asr r0
	...
  e8:	00002300 	andeq	r2, r0, r0, lsl #6
  ec:	51000100 	mrspl	r0, (UNDEF: 16)
  f0:	00000023 	andeq	r0, r0, r3, lsr #32
  f4:	00000044 	andeq	r0, r0, r4, asr #32
  f8:	01f30004 	mvnseq	r0, r4
  fc:	00449f51 	subeq	r9, r4, r1, asr pc
 100:	005f0000 	subseq	r0, pc, r0
 104:	00010000 	andeq	r0, r1, r0
 108:	00005f51 	andeq	r5, r0, r1, asr pc
 10c:	00008000 	andeq	r8, r0, r0
 110:	f3000400 	vshl.u8	d0, d0, d0
 114:	809f5101 	addshi	r5, pc, r1, lsl #2
 118:	b0000000 	andlt	r0, r0, r0
 11c:	01000000 	mrseq	r0, (UNDEF: 0)
 120:	00005100 	andeq	r5, r0, r0, lsl #2
 124:	00000000 	andeq	r0, r0, r0
 128:	00100000 	andseq	r0, r0, r0
 12c:	00230000 	eoreq	r0, r3, r0
 130:	00010000 	andeq	r0, r1, r0
 134:	00004453 	andeq	r4, r0, r3, asr r4
 138:	00004800 	andeq	r4, r0, r0, lsl #16
 13c:	53000100 	movwpl	r0, #256	; 0x100
 140:	00000048 	andeq	r0, r0, r8, asr #32
 144:	000000b0 	strheq	r0, [r0], -r0	; <UNPREDICTABLE>
 148:	ff0a0004 			; <UNDEFINED> instruction: 0xff0a0004
 14c:	00009f01 	andeq	r9, r0, r1, lsl #30
 150:	00000000 	andeq	r0, r0, r0
 154:	00440000 	subeq	r0, r4, r0
 158:	005f0000 	subseq	r0, pc, r0
 15c:	00010000 	andeq	r0, r1, r0
 160:	00005f50 	andeq	r5, r0, r0, asr pc
 164:	00008000 	andeq	r8, r0, r0
 168:	f3000400 	vshl.u8	d0, d0, d0
 16c:	809f5001 	addshi	r5, pc, r1
 170:	b0000000 	andlt	r0, r0, r0
 174:	01000000 	mrseq	r0, (UNDEF: 0)
 178:	00005000 	andeq	r5, r0, r0
 17c:	00000000 	andeq	r0, r0, r0
 180:	000c0000 	andeq	r0, ip, r0
 184:	00100000 	andseq	r0, r0, r0
 188:	00010000 	andeq	r0, r1, r0
 18c:	00000053 	andeq	r0, r0, r3, asr r0
 190:	00000000 	andeq	r0, r0, r0
 194:	00001000 	andeq	r1, r0, r0
 198:	00002300 	andeq	r2, r0, r0, lsl #6
 19c:	53000100 	movwpl	r0, #256	; 0x100
 1a0:	00000044 	andeq	r0, r0, r4, asr #32
 1a4:	0000004c 	andeq	r0, r0, ip, asr #32
 1a8:	00530001 	subseq	r0, r3, r1
 1ac:	00000000 	andeq	r0, r0, r0
 1b0:	18000000 	stmdane	r0, {}	; <UNPREDICTABLE>
 1b4:	23000000 	movwcs	r0, #0
 1b8:	01000000 	mrseq	r0, (UNDEF: 0)
 1bc:	00445200 	subeq	r5, r4, r0, lsl #4
 1c0:	00540000 	subseq	r0, r4, r0
 1c4:	00010000 	andeq	r0, r1, r0
 1c8:	00000052 	andeq	r0, r0, r2, asr r0
 1cc:	00000000 	andeq	r0, r0, r0
 1d0:	00005400 	andeq	r5, r0, r0, lsl #8
 1d4:	00005f00 	andeq	r5, r0, r0, lsl #30
 1d8:	52000100 	andpl	r0, r0, #0, 2
 1dc:	00000080 	andeq	r0, r0, r0, lsl #1
 1e0:	000000b0 	strheq	r0, [r0], -r0	; <UNPREDICTABLE>
 1e4:	00520001 	subseq	r0, r2, r1
 1e8:	00000000 	andeq	r0, r0, r0
 1ec:	b0000000 	andlt	r0, r0, r0
 1f0:	d3000000 	movwle	r0, #0
 1f4:	01000000 	mrseq	r0, (UNDEF: 0)
 1f8:	00d35000 	sbcseq	r5, r3, r0
 1fc:	00ec0000 	rsceq	r0, ip, r0
 200:	00040000 	andeq	r0, r4, r0
 204:	9f5001f3 	svcls	0x005001f3
 208:	000000ec 	andeq	r0, r0, ip, ror #1
 20c:	000000ff 	strdeq	r0, [r0], -pc	; <UNPREDICTABLE>
 210:	ff500001 			; <UNDEFINED> instruction: 0xff500001
 214:	20000000 	andcs	r0, r0, r0
 218:	04000001 	streq	r0, [r0], #-1
 21c:	5001f300 	andpl	pc, r1, r0, lsl #6
 220:	0001209f 	muleq	r1, pc, r0	; <UNPREDICTABLE>
 224:	00013300 	andeq	r3, r1, r0, lsl #6
 228:	50000100 	andpl	r0, r0, r0, lsl #2
 22c:	00000133 	andeq	r0, r0, r3, lsr r1
 230:	00000154 	andeq	r0, r0, r4, asr r1
 234:	01f30004 	mvnseq	r0, r4
 238:	01549f50 	cmpeq	r4, r0, asr pc
 23c:	015c0000 	cmpeq	ip, r0
 240:	00010000 	andeq	r0, r1, r0
 244:	00015c50 	andeq	r5, r1, r0, asr ip
 248:	00015f00 	andeq	r5, r1, r0, lsl #30
 24c:	51000100 	mrspl	r0, (UNDEF: 16)
 250:	0000015f 	andeq	r0, r0, pc, asr r1
 254:	0000018c 	andeq	r0, r0, ip, lsl #3
 258:	01f30004 	mvnseq	r0, r4
 25c:	00009f50 	andeq	r9, r0, r0, asr pc
 260:	00000000 	andeq	r0, r0, r0
 264:	00c40000 	sbceq	r0, r4, r0
 268:	00c80000 	sbceq	r0, r8, r0
 26c:	00010000 	andeq	r0, r1, r0
 270:	00000053 	andeq	r0, r0, r3, asr r0
 274:	00000000 	andeq	r0, r0, r0
 278:	0000f000 	andeq	pc, r0, r0
 27c:	0000f400 	andeq	pc, r0, r0, lsl #8
 280:	53000100 	movwpl	r0, #256	; 0x100
 284:	000000f4 	strdeq	r0, [r0], -r4
 288:	000000ff 	strdeq	r0, [r0], -pc	; <UNPREDICTABLE>
 28c:	04730003 	ldrbteq	r0, [r3], #-3
 290:	0001209f 	muleq	r1, pc, r0	; <UNPREDICTABLE>
 294:	00012400 	andeq	r2, r1, r0, lsl #8
 298:	73000300 	movwvc	r0, #768	; 0x300
 29c:	00009f04 	andeq	r9, r0, r4, lsl #30
 2a0:	00000000 	andeq	r0, r0, r0
 2a4:	01d00000 	bicseq	r0, r0, r0
 2a8:	01d80000 	bicseq	r0, r8, r0
 2ac:	00010000 	andeq	r0, r1, r0
 2b0:	0001d853 	andeq	sp, r1, r3, asr r8
 2b4:	0001fc00 	andeq	pc, r1, r0, lsl #24
 2b8:	0a000400 	beq	12c0 <__code_start__-0x6d40>
 2bc:	009f01e7 	addseq	r0, pc, r7, ror #3
 2c0:	00000000 	andeq	r0, r0, r0
 2c4:	cc000000 	stcgt	0, cr0, [r0], {-0}
 2c8:	d0000001 	andle	r0, r0, r1
 2cc:	01000001 	tsteq	r0, r1
 2d0:	00005300 	andeq	r5, r0, r0, lsl #6
 2d4:	00000000 	andeq	r0, r0, r0
 2d8:	01d00000 	bicseq	r0, r0, r0
 2dc:	01dc0000 	bicseq	r0, ip, r0
 2e0:	00010000 	andeq	r0, r1, r0
 2e4:	00000053 	andeq	r0, r0, r3, asr r0
 2e8:	00000000 	andeq	r0, r0, r0
 2ec:	0001fc00 	andeq	pc, r1, r0, lsl #24
 2f0:	00021b00 	andeq	r1, r2, r0, lsl #22
 2f4:	50000100 	andpl	r0, r0, r0, lsl #2
 2f8:	0000021b 	andeq	r0, r0, fp, lsl r2
 2fc:	00000234 	andeq	r0, r0, r4, lsr r2
 300:	01f30004 	mvnseq	r0, r4
 304:	02349f50 	eorseq	r9, r4, #80, 30	; 0x140
 308:	02470000 	subeq	r0, r7, #0
 30c:	00010000 	andeq	r0, r1, r0
 310:	00024750 	andeq	r4, r2, r0, asr r7
 314:	00026800 	andeq	r6, r2, r0, lsl #16
 318:	f3000400 	vshl.u8	d0, d0, d0
 31c:	689f5001 	ldmvs	pc, {r0, ip, lr}	; <UNPREDICTABLE>
 320:	70000002 	andvc	r0, r0, r2
 324:	01000002 	tsteq	r0, r2
 328:	02705000 	rsbseq	r5, r0, #0
 32c:	02730000 	rsbseq	r0, r3, #0
 330:	00010000 	andeq	r0, r1, r0
 334:	00027351 	andeq	r7, r2, r1, asr r3
 338:	00029400 	andeq	r9, r2, r0, lsl #8
 33c:	f3000400 	vshl.u8	d0, d0, d0
 340:	009f5001 	addseq	r5, pc, r1
 344:	00000000 	andeq	r0, r0, r0
 348:	0c000000 	stceq	0, cr0, [r0], {-0}
 34c:	10000002 	andne	r0, r0, r2
 350:	01000002 	tsteq	r0, r2
 354:	00005300 	andeq	r5, r0, r0, lsl #6
 358:	00000000 	andeq	r0, r0, r0
 35c:	02cc0000 	sbceq	r0, ip, #0
 360:	02d40000 	sbcseq	r0, r4, #0
 364:	00010000 	andeq	r0, r1, r0
 368:	0002d453 	andeq	sp, r2, r3, asr r4
 36c:	0002f800 	andeq	pc, r2, r0, lsl #16
 370:	0c000600 	stceq	6, cr0, [r0], {-0}
 374:	004001e7 	subeq	r0, r0, r7, ror #3
 378:	0000009f 	muleq	r0, pc, r0	; <UNPREDICTABLE>
 37c:	00000000 	andeq	r0, r0, r0
 380:	0002c800 	andeq	ip, r2, r0, lsl #16
 384:	0002cc00 	andeq	ip, r2, r0, lsl #24
 388:	53000100 	movwpl	r0, #256	; 0x100
	...
 394:	000002cc 	andeq	r0, r0, ip, asr #5
 398:	000002d8 	ldrdeq	r0, [r0], -r8
 39c:	00530001 	subseq	r0, r3, r1
 3a0:	00000000 	andeq	r0, r0, r0
 3a4:	f8000000 			; <UNDEFINED> instruction: 0xf8000000
 3a8:	ff000002 			; <UNDEFINED> instruction: 0xff000002
 3ac:	01000002 	tsteq	r0, r2
 3b0:	02ff5000 	rscseq	r5, pc, #0
 3b4:	03240000 	teqeq	r4, #0
 3b8:	00040000 	andeq	r0, r4, r0
 3bc:	9f5001f3 	svcls	0x005001f3
	...
 3c8:	00000324 	andeq	r0, r0, r4, lsr #6
 3cc:	0000032b 	andeq	r0, r0, fp, lsr #6
 3d0:	2b500001 	blcs	14003dc <__bss_end__+0x13f641c>
 3d4:	54000003 	strpl	r0, [r0], #-3
 3d8:	04000003 	streq	r0, [r0], #-3
 3dc:	5001f300 	andpl	pc, r1, r0, lsl #6
 3e0:	0000009f 	muleq	r0, pc, r0	; <UNPREDICTABLE>
 3e4:	00000000 	andeq	r0, r0, r0
 3e8:	00032400 	andeq	r2, r3, r0, lsl #8
 3ec:	00032b00 	andeq	r2, r3, r0, lsl #22
 3f0:	51000100 	mrspl	r0, (UNDEF: 16)
 3f4:	0000032b 	andeq	r0, r0, fp, lsr #6
 3f8:	00000354 	andeq	r0, r0, r4, asr r3
 3fc:	01f30004 	mvnseq	r0, r4
 400:	00009f51 	andeq	r9, r0, r1, asr pc
 404:	00000000 	andeq	r0, r0, r0
 408:	002c0000 	eoreq	r0, ip, r0
 40c:	00380000 	eorseq	r0, r8, r0
 410:	00010000 	andeq	r0, r1, r0
 414:	00003850 	andeq	r3, r0, r0, asr r8
 418:	00004800 	andeq	r4, r0, r0, lsl #16
 41c:	55000100 	strpl	r0, [r0, #-256]	; 0x100
 420:	00000048 	andeq	r0, r0, r8, asr #32
 424:	00000058 	andeq	r0, r0, r8, asr r0
 428:	00500001 	subseq	r0, r0, r1
	...
 434:	0b000000 	bleq	43c <__code_start__-0x7bc4>
 438:	01000000 	mrseq	r0, (UNDEF: 0)
 43c:	000b5000 	andeq	r5, fp, r0
 440:	00140000 	andseq	r0, r4, r0
 444:	00010000 	andeq	r0, r1, r0
 448:	00000054 	andeq	r0, r0, r4, asr r0
	...
 454:	00001000 	andeq	r1, r0, r0
 458:	50000100 	andpl	r0, r0, r0, lsl #2
 45c:	00000010 	andeq	r0, r0, r0, lsl r0
 460:	00000034 	andeq	r0, r0, r4, lsr r0
 464:	00540001 	subseq	r0, r4, r1
	...
 470:	04000000 	streq	r0, [r0], #-0
 474:	01000000 	mrseq	r0, (UNDEF: 0)
 478:	00045000 	andeq	r5, r4, r0
 47c:	000c0000 	andeq	r0, ip, r0
 480:	00030000 	andeq	r0, r3, r0
 484:	0c9f3070 	ldceq	0, cr3, [pc], {112}	; 0x70
 488:	14000000 	strne	r0, [r0], #-0
 48c:	04000000 	streq	r0, [r0], #-0
 490:	5001f300 	andpl	pc, r1, r0, lsl #6
 494:	0000009f 	muleq	r0, pc, r0	; <UNPREDICTABLE>
 498:	00000000 	andeq	r0, r0, r0
 49c:	00001400 	andeq	r1, r0, r0, lsl #8
 4a0:	00002000 	andeq	r2, r0, r0
 4a4:	50000100 	andpl	r0, r0, r0, lsl #2
 4a8:	00000020 	andeq	r0, r0, r0, lsr #32
 4ac:	0000002c 	andeq	r0, r0, ip, lsr #32
 4b0:	01700003 	cmneq	r0, r3
 4b4:	00002c9f 	muleq	r0, pc, ip	; <UNPREDICTABLE>
 4b8:	00004000 	andeq	r4, r0, r0
 4bc:	50000100 	andpl	r0, r0, r0, lsl #2
	...
 4c8:	00000014 	andeq	r0, r0, r4, lsl r0
 4cc:	00000018 	andeq	r0, r0, r8, lsl r0
 4d0:	18510001 	ldmdane	r1, {r0}^
 4d4:	40000000 	andmi	r0, r0, r0
 4d8:	04000000 	streq	r0, [r0], #-0
 4dc:	5101f300 	mrspl	pc, SP_irq	; <UNPREDICTABLE>
 4e0:	0000009f 	muleq	r0, pc, r0	; <UNPREDICTABLE>
 4e4:	00000000 	andeq	r0, r0, r0
 4e8:	00004000 	andeq	r4, r0, r0
 4ec:	00006000 	andeq	r6, r0, r0
 4f0:	50000100 	andpl	r0, r0, r0, lsl #2
 4f4:	00000060 	andeq	r0, r0, r0, rrx
 4f8:	0000006c 	andeq	r0, r0, ip, rrx
 4fc:	01710003 	cmneq	r1, r3
 500:	00006c9f 	muleq	r0, pc, ip	; <UNPREDICTABLE>
 504:	00007400 	andeq	r7, r0, r0, lsl #8
 508:	51000100 	mrspl	r0, (UNDEF: 16)
 50c:	00000074 	andeq	r0, r0, r4, ror r0
 510:	00000080 	andeq	r0, r0, r0, lsl #1
 514:	01710003 	cmneq	r1, r3
 518:	0000009f 	muleq	r0, pc, r0	; <UNPREDICTABLE>
 51c:	00000000 	andeq	r0, r0, r0
 520:	00004000 	andeq	r4, r0, r0
 524:	00005000 	andeq	r5, r0, r0
 528:	51000100 	mrspl	r0, (UNDEF: 16)
 52c:	00000050 	andeq	r0, r0, r0, asr r0
 530:	00000080 	andeq	r0, r0, r0, lsl #1
 534:	01f30004 	mvnseq	r0, r4
 538:	00009f51 	andeq	r9, r0, r1, asr pc
 53c:	00000000 	andeq	r0, r0, r0
 540:	00400000 	subeq	r0, r0, r0
 544:	00580000 	subseq	r0, r8, r0
 548:	00010000 	andeq	r0, r1, r0
 54c:	00005852 	andeq	r5, r0, r2, asr r8
 550:	00006400 	andeq	r6, r0, r0, lsl #8
 554:	52000100 	andpl	r0, r0, #0, 2
 558:	00000064 	andeq	r0, r0, r4, rrx
 55c:	00000068 	andeq	r0, r0, r8, rrx
 560:	01720003 	cmneq	r2, r3
 564:	0000689f 	muleq	r0, pc, r8	; <UNPREDICTABLE>
 568:	00008000 	andeq	r8, r0, r0
 56c:	52000100 	andpl	r0, r0, #0, 2
	...
 578:	00000040 	andeq	r0, r0, r0, asr #32
 57c:	00000054 	andeq	r0, r0, r4, asr r0
 580:	54530001 	ldrbpl	r0, [r3], #-1
 584:	78000000 	stmdavc	r0, {}	; <UNPREDICTABLE>
 588:	01000000 	mrseq	r0, (UNDEF: 0)
 58c:	00005300 	andeq	r5, r0, r0, lsl #6
 590:	00000000 	andeq	r0, r0, r0
 594:	00480000 	subeq	r0, r8, r0
 598:	00600000 	rsbeq	r0, r0, r0
 59c:	00010000 	andeq	r0, r1, r0
 5a0:	0000605c 	andeq	r6, r0, ip, asr r0
 5a4:	00008000 	andeq	r8, r0, r0
 5a8:	f3000a00 	vpmax.u8	d0, d0, d0
 5ac:	01f35201 	mvnseq	r5, r1, lsl #4
 5b0:	01231c53 	teqeq	r3, r3, asr ip
 5b4:	0000009f 	muleq	r0, pc, r0	; <UNPREDICTABLE>
 5b8:	00000000 	andeq	r0, r0, r0
 5bc:	00008000 	andeq	r8, r0, r0
 5c0:	0000a400 	andeq	sl, r0, r0, lsl #8
 5c4:	50000100 	andpl	r0, r0, r0, lsl #2
 5c8:	000000a4 	andeq	r0, r0, r4, lsr #1
 5cc:	00000118 	andeq	r0, r0, r8, lsl r1
 5d0:	02700003 	rsbseq	r0, r0, #3
 5d4:	0001189f 	muleq	r1, pc, r8	; <UNPREDICTABLE>
 5d8:	00023c00 	andeq	r3, r2, r0, lsl #24
 5dc:	f3000400 	vshl.u8	d0, d0, d0
 5e0:	009f5001 	addseq	r5, pc, r1
 5e4:	00000000 	andeq	r0, r0, r0
 5e8:	80000000 	andhi	r0, r0, r0
 5ec:	f0000000 			; <UNDEFINED> instruction: 0xf0000000
 5f0:	01000000 	mrseq	r0, (UNDEF: 0)
 5f4:	00f05100 	rscseq	r5, r0, r0, lsl #2
 5f8:	01600000 	cmneq	r0, r0
 5fc:	00010000 	andeq	r0, r1, r0
 600:	00016055 	andeq	r6, r1, r5, asr r0
 604:	00016c00 	andeq	r6, r1, r0, lsl #24
 608:	51000100 	mrspl	r0, (UNDEF: 16)
 60c:	0000016c 	andeq	r0, r0, ip, ror #2
 610:	000001a0 	andeq	r0, r0, r0, lsr #3
 614:	a0550001 	subsge	r0, r5, r1
 618:	b4000001 	strlt	r0, [r0], #-1
 61c:	01000001 	tsteq	r0, r1
 620:	01b45100 			; <UNDEFINED> instruction: 0x01b45100
 624:	01d40000 	bicseq	r0, r4, r0
 628:	00010000 	andeq	r0, r1, r0
 62c:	0001d455 	andeq	sp, r1, r5, asr r4
 630:	0001d700 	andeq	sp, r1, r0, lsl #14
 634:	51000100 	mrspl	r0, (UNDEF: 16)
 638:	000001d7 	ldrdeq	r0, [r0], -r7
 63c:	0000021c 	andeq	r0, r0, ip, lsl r2
 640:	1c550001 	mrrcne	0, 0, r0, r5, cr1
 644:	3c000002 	stccc	0, cr0, [r0], {2}
 648:	04000002 	streq	r0, [r0], #-2
 64c:	5101f300 	mrspl	pc, SP_irq	; <UNPREDICTABLE>
 650:	0000009f 	muleq	r0, pc, r0	; <UNPREDICTABLE>
 654:	00000000 	andeq	r0, r0, r0
 658:	00008000 	andeq	r8, r0, r0
 65c:	00009400 	andeq	r9, r0, r0, lsl #8
 660:	52000100 	andpl	r0, r0, #0, 2
 664:	00000094 	muleq	r0, r4, r0
 668:	0000021c 	andeq	r0, r0, ip, lsl r2
 66c:	1c540001 	mrrcne	0, 0, r0, r4, cr1
 670:	3c000002 	stccc	0, cr0, [r0], {2}
 674:	04000002 	streq	r0, [r0], #-2
 678:	5201f300 	andpl	pc, r1, #0, 6
 67c:	0000009f 	muleq	r0, pc, r0	; <UNPREDICTABLE>
 680:	00000000 	andeq	r0, r0, r0
 684:	00008000 	andeq	r8, r0, r0
 688:	00010000 	andeq	r0, r1, r0
 68c:	53000100 	movwpl	r0, #256	; 0x100
 690:	00000104 	andeq	r0, r0, r4, lsl #2
 694:	00000108 	andeq	r0, r0, r8, lsl #2
 698:	60530001 	subsvs	r0, r3, r1
 69c:	64000001 	strvs	r0, [r0], #-1
 6a0:	01000001 	tsteq	r0, r1
 6a4:	01645300 	cmneq	r4, r0, lsl #6
 6a8:	016c0000 	cmneq	ip, r0
 6ac:	00010000 	andeq	r0, r1, r0
 6b0:	00016c5c 	andeq	r6, r1, ip, asr ip
 6b4:	0001a000 	andeq	sl, r1, r0
 6b8:	f3000400 	vshl.u8	d0, d0, d0
 6bc:	a09f5301 	addsge	r5, pc, r1, lsl #6
 6c0:	b0000001 	andlt	r0, r0, r1
 6c4:	01000001 	tsteq	r0, r1
 6c8:	01b05300 	lslseq	r5, r0, #6
 6cc:	01b40000 			; <UNDEFINED> instruction: 0x01b40000
 6d0:	00010000 	andeq	r0, r1, r0
 6d4:	0001b45c 	andeq	fp, r1, ip, asr r4
 6d8:	0001d400 	andeq	sp, r1, r0, lsl #8
 6dc:	f3000400 	vshl.u8	d0, d0, d0
 6e0:	d49f5301 	ldrle	r5, [pc], #769	; 6e8 <__code_start__-0x7918>
 6e4:	d7000001 	strle	r0, [r0, -r1]
 6e8:	01000001 	tsteq	r0, r1
 6ec:	01d75300 	bicseq	r5, r7, r0, lsl #6
 6f0:	01f80000 	mvnseq	r0, r0
 6f4:	00040000 	andeq	r0, r4, r0
 6f8:	9f5301f3 	svcls	0x005301f3
	...
 704:	00000080 	andeq	r0, r0, r0, lsl #1
 708:	0000009c 	muleq	r0, ip, r0
 70c:	00910002 	addseq	r0, r1, r2
 710:	0000009c 	muleq	r0, ip, r0
 714:	000001d7 	ldrdeq	r0, [r0], -r7
 718:	f8520001 			; <UNDEFINED> instruction: 0xf8520001
 71c:	ff000001 			; <UNDEFINED> instruction: 0xff000001
 720:	01000001 	tsteq	r0, r1
 724:	00005200 	andeq	r5, r0, r0, lsl #4
 728:	00000000 	andeq	r0, r0, r0
 72c:	009c0000 	addseq	r0, ip, r0
 730:	010c0000 	mrseq	r0, (UNDEF: 12)
 734:	00040000 	andeq	r0, r4, r0
 738:	9f7fa091 	svcls	0x007fa091
 73c:	0000010c 	andeq	r0, r0, ip, lsl #2
 740:	00000118 	andeq	r0, r0, r8, lsl r1
 744:	18510001 	ldmdane	r1, {r0}^
 748:	1c000001 	stcne	0, cr0, [r0], {1}
 74c:	01000001 	tsteq	r0, r1
 750:	011c5000 	tsteq	ip, r0
 754:	01200000 	teqeq	r0, r0
 758:	00010000 	andeq	r0, r1, r0
 75c:	00012051 	andeq	r2, r1, r1, asr r0
 760:	00016000 	andeq	r6, r1, r0
 764:	50000100 	andpl	r0, r0, r0, lsl #2
 768:	00000160 	andeq	r0, r0, r0, ror #2
 76c:	00000164 	andeq	r0, r0, r4, ror #2
 770:	a0910004 	addsge	r0, r1, r4
 774:	01649f7f 	smceq	18943	; 0x49ff
 778:	016c0000 	cmneq	ip, r0
 77c:	00010000 	andeq	r0, r1, r0
 780:	00016c53 	andeq	r6, r1, r3, asr ip
 784:	00017000 	andeq	r7, r1, r0
 788:	50000100 	andpl	r0, r0, r0, lsl #2
 78c:	00000170 	andeq	r0, r0, r0, ror r1
 790:	00000174 	andeq	r0, r0, r4, ror r1
 794:	74530001 	ldrbvc	r0, [r3], #-1
 798:	88000001 	stmdahi	r0, {r0}
 79c:	01000001 	tsteq	r0, r1
 7a0:	01885000 	orreq	r5, r8, r0
 7a4:	01940000 	orrseq	r0, r4, r0
 7a8:	00030000 	andeq	r0, r3, r0
 7ac:	949f0170 	ldrls	r0, [pc], #368	; 7b4 <__code_start__-0x784c>
 7b0:	a0000001 	andge	r0, r0, r1
 7b4:	01000001 	tsteq	r0, r1
 7b8:	01a05000 	moveq	r5, r0
 7bc:	01a80000 			; <UNDEFINED> instruction: 0x01a80000
 7c0:	00040000 	andeq	r0, r4, r0
 7c4:	9f7fa191 	svcls	0x007fa191
 7c8:	000001a8 	andeq	r0, r0, r8, lsr #3
 7cc:	000001ac 	andeq	r0, r0, ip, lsr #3
 7d0:	ac500001 	mrrcge	0, 0, r0, r0, cr1	; <UNPREDICTABLE>
 7d4:	b0000001 	andlt	r0, r0, r1
 7d8:	04000001 	streq	r0, [r0], #-1
 7dc:	7fa09100 	svcvc	0x00a09100
 7e0:	0001b09f 	muleq	r1, pc, r0	; <UNPREDICTABLE>
 7e4:	0001b800 	andeq	fp, r1, r0, lsl #16
 7e8:	53000100 	movwpl	r0, #256	; 0x100
 7ec:	000001b8 			; <UNDEFINED> instruction: 0x000001b8
 7f0:	000001d4 	ldrdeq	r0, [r0], -r4
 7f4:	d4500001 	ldrble	r0, [r0], #-1
 7f8:	f8000001 			; <UNDEFINED> instruction: 0xf8000001
 7fc:	04000001 	streq	r0, [r0], #-1
 800:	7fa09100 	svcvc	0x00a09100
 804:	0001f89f 	muleq	r1, pc, r8	; <UNPREDICTABLE>
 808:	0001ff00 	andeq	pc, r1, r0, lsl #30
 80c:	50000100 	andpl	r0, r0, r0, lsl #2
	...
 818:	000000a0 	andeq	r0, r0, r0, lsr #1
 81c:	000000ec 	andeq	r0, r0, ip, ror #1
 820:	ec5c0001 	mrrc	0, 0, r0, ip, cr1
 824:	00000000 	andeq	r0, r0, r0
 828:	01000001 	tsteq	r0, r1
 82c:	01005300 	mrseq	r5, LR_irq
 830:	01040000 	mrseq	r0, (UNDEF: 4)
 834:	00010000 	andeq	r0, r1, r0
 838:	0001045c 	andeq	r0, r1, ip, asr r4
 83c:	00010800 	andeq	r0, r1, r0, lsl #16
 840:	53000100 	movwpl	r0, #256	; 0x100
 844:	00000108 	andeq	r0, r0, r8, lsl #2
 848:	00000160 	andeq	r0, r0, r0, ror #2
 84c:	605c0001 	subsvs	r0, ip, r1
 850:	64000001 	strvs	r0, [r0], #-1
 854:	01000001 	tsteq	r0, r1
 858:	01645300 	cmneq	r4, r0, lsl #6
 85c:	01800000 	orreq	r0, r0, r0
 860:	00010000 	andeq	r0, r1, r0
 864:	0001805c 	andeq	r8, r1, ip, asr r0
 868:	00018400 	andeq	r8, r1, r0, lsl #8
 86c:	7c000500 	cfstr32vc	mvfx0, [r0], {-0}
 870:	9f253400 	svcls	0x00253400
 874:	00000184 	andeq	r0, r0, r4, lsl #3
 878:	000001a0 	andeq	r0, r0, r0, lsr #3
 87c:	a05c0001 	subsge	r0, ip, r1
 880:	b0000001 	andlt	r0, r0, r1
 884:	01000001 	tsteq	r0, r1
 888:	01b05300 	lslseq	r5, r0, #6
 88c:	01c40000 	biceq	r0, r4, r0
 890:	00010000 	andeq	r0, r1, r0
 894:	0001c45c 	andeq	ip, r1, ip, asr r4
 898:	0001cc00 	andeq	ip, r1, r0, lsl #24
 89c:	7c000500 	cfstr32vc	mvfx0, [r0], {-0}
 8a0:	9f253100 	svcls	0x00253100
 8a4:	000001cc 	andeq	r0, r0, ip, asr #3
 8a8:	000001d4 	ldrdeq	r0, [r0], -r4
 8ac:	d45c0001 	ldrble	r0, [ip], #-1
 8b0:	d7000001 	strle	r0, [r0, -r1]
 8b4:	01000001 	tsteq	r0, r1
 8b8:	01d75300 	bicseq	r5, r7, r0, lsl #6
 8bc:	01f80000 	mvnseq	r0, r0
 8c0:	00040000 	andeq	r0, r4, r0
 8c4:	9f5301f3 	svcls	0x005301f3
 8c8:	000001f8 	strdeq	r0, [r0], -r8
 8cc:	000001ff 	strdeq	r0, [r0], -pc	; <UNPREDICTABLE>
 8d0:	005c0001 	subseq	r0, ip, r1
 8d4:	00000000 	andeq	r0, r0, r0
 8d8:	ec000000 	stc	0, cr0, [r0], {-0}
 8dc:	fc000000 	stc2	0, cr0, [r0], {-0}
 8e0:	02000000 	andeq	r0, r0, #0
 8e4:	fc9f3000 	ldc2	0, cr3, [pc], {0}
 8e8:	04000000 	streq	r0, [r0], #-0
 8ec:	02000001 	andeq	r0, r0, #1
 8f0:	049f3100 	ldreq	r3, [pc], #256	; 8f8 <__code_start__-0x7708>
 8f4:	08000001 	stmdaeq	r0, {r0}
 8f8:	02000001 	andeq	r0, r0, #1
 8fc:	009f3000 	addseq	r3, pc, r0
 900:	00000000 	andeq	r0, r0, r0
 904:	3c000000 	stccc	0, cr0, [r0], {-0}
 908:	4f000002 	svcmi	0x00000002
 90c:	01000002 	tsteq	r0, r2
 910:	024f5000 	subeq	r5, pc, #0
 914:	02700000 	rsbseq	r0, r0, #0
 918:	00040000 	andeq	r0, r4, r0
 91c:	9f5001f3 	svcls	0x005001f3
 920:	00000270 	andeq	r0, r0, r0, ror r2
 924:	000002a4 	andeq	r0, r0, r4, lsr #5
 928:	00500001 	subseq	r0, r0, r1
 92c:	00000000 	andeq	r0, r0, r0
 930:	3c000000 	stccc	0, cr0, [r0], {-0}
 934:	4f000002 	svcmi	0x00000002
 938:	01000002 	tsteq	r0, r2
 93c:	024f5100 	subeq	r5, pc, #0, 2
 940:	02700000 	rsbseq	r0, r0, #0
 944:	00040000 	andeq	r0, r4, r0
 948:	9f5101f3 	svcls	0x005101f3
 94c:	00000270 	andeq	r0, r0, r0, ror r2
 950:	000002a4 	andeq	r0, r0, r4, lsr #5
 954:	00510001 	subseq	r0, r1, r1
 958:	00000000 	andeq	r0, r0, r0
 95c:	a4000000 	strge	r0, [r0], #-0
 960:	d4000002 	strle	r0, [r0], #-2
 964:	01000002 	tsteq	r0, r2
 968:	02d45000 	sbcseq	r5, r4, #0
 96c:	05580000 	ldrbeq	r0, [r8, #-0]
 970:	00010000 	andeq	r0, r1, r0
 974:	0005585b 	andeq	r5, r5, fp, asr r8
 978:	00057800 	andeq	r7, r5, r0, lsl #16
 97c:	f3000400 	vshl.u8	d0, d0, d0
 980:	009f5001 	addseq	r5, pc, r1
 984:	00000000 	andeq	r0, r0, r0
 988:	a4000000 	strge	r0, [r0], #-0
 98c:	bc000002 	stclt	0, cr0, [r0], {2}
 990:	01000002 	tsteq	r0, r2
 994:	02bc5100 	adcseq	r5, ip, #0, 2
 998:	02d40000 	sbcseq	r0, r4, #0
 99c:	00030000 	andeq	r0, r3, r0
 9a0:	d49f0171 	ldrle	r0, [pc], #369	; 9a8 <__code_start__-0x7658>
 9a4:	78000002 	stmdavc	r0, {r1}
 9a8:	04000005 	streq	r0, [r0], #-5
 9ac:	5101f300 	mrspl	pc, SP_irq	; <UNPREDICTABLE>
 9b0:	0000009f 	muleq	r0, pc, r0	; <UNPREDICTABLE>
 9b4:	00000000 	andeq	r0, r0, r0
 9b8:	0002a400 	andeq	sl, r2, r0, lsl #8
 9bc:	0002d400 	andeq	sp, r2, r0, lsl #8
 9c0:	52000100 	andpl	r0, r0, #0, 2
 9c4:	000002d4 	ldrdeq	r0, [r0], -r4
 9c8:	00000558 	andeq	r0, r0, r8, asr r5
 9cc:	00560001 	subseq	r0, r6, r1
 9d0:	00000000 	andeq	r0, r0, r0
 9d4:	a4000000 	strge	r0, [r0], #-0
 9d8:	c4000002 	strgt	r0, [r0], #-2
 9dc:	01000002 	tsteq	r0, r2
 9e0:	00005300 	andeq	r5, r0, r0, lsl #6
 9e4:	00000000 	andeq	r0, r0, r0
 9e8:	02b80000 	adcseq	r0, r8, #0
 9ec:	02d40000 	sbcseq	r0, r4, #0
 9f0:	00010000 	andeq	r0, r1, r0
 9f4:	0002d450 	andeq	sp, r2, r0, asr r4
 9f8:	0002d800 	andeq	sp, r2, r0, lsl #16
 9fc:	54000100 	strpl	r0, [r0], #-256	; 0x100
 a00:	000002d8 	ldrdeq	r0, [r0], -r8
 a04:	000002e4 	andeq	r0, r0, r4, ror #5
 a08:	01740003 	cmneq	r4, r3
 a0c:	0002e49f 	muleq	r2, pc, r4	; <UNPREDICTABLE>
 a10:	0002f000 	andeq	pc, r2, r0
 a14:	54000100 	strpl	r0, [r0], #-256	; 0x100
 a18:	000002f0 	strdeq	r0, [r0], -r0	; <UNPREDICTABLE>
 a1c:	000002fc 	strdeq	r0, [r0], -ip
 a20:	01740003 	cmneq	r4, r3
 a24:	0002fc9f 	muleq	r2, pc, ip	; <UNPREDICTABLE>
 a28:	00050c00 	andeq	r0, r5, r0, lsl #24
 a2c:	54000100 	strpl	r0, [r0], #-256	; 0x100
 a30:	0000050c 	andeq	r0, r0, ip, lsl #10
 a34:	00000518 	andeq	r0, r0, r8, lsl r5
 a38:	01740003 	cmneq	r4, r3
 a3c:	0005189f 	muleq	r5, pc, r8	; <UNPREDICTABLE>
 a40:	00054400 	andeq	r4, r5, r0, lsl #8
 a44:	54000100 	strpl	r0, [r0], #-256	; 0x100
 a48:	00000544 	andeq	r0, r0, r4, asr #10
 a4c:	00000550 	andeq	r0, r0, r0, asr r5
 a50:	50500001 	subspl	r0, r0, r1
 a54:	58000005 	stmdapl	r0, {r0, r2}
 a58:	03000005 	movweq	r0, #5
 a5c:	9f017400 	svcls	0x00017400
	...
 a68:	000002c0 	andeq	r0, r0, r0, asr #5
 a6c:	00000558 	andeq	r0, r0, r8, asr r5
 a70:	58580001 	ldmdapl	r8, {r0}^
 a74:	78000005 	stmdavc	r0, {r0, r2}
 a78:	0a000005 	beq	a94 <__code_start__-0x756c>
 a7c:	5101f300 	mrspl	pc, SP_irq	; <UNPREDICTABLE>
 a80:	225001f3 	subscs	r0, r0, #-1073741764	; 0xc000003c
 a84:	009f1c31 	addseq	r1, pc, r1, lsr ip	; <UNPREDICTABLE>
 a88:	00000000 	andeq	r0, r0, r0
 a8c:	c8000000 	stmdagt	r0, {}	; <UNPREDICTABLE>
 a90:	d4000002 	strle	r0, [r0], #-2
 a94:	01000002 	tsteq	r0, r2
 a98:	02d45200 	sbcseq	r5, r4, #0, 4
 a9c:	05780000 	ldrbeq	r0, [r8, #-0]!
 aa0:	00030000 	andeq	r0, r3, r0
 aa4:	007ecc91 			; <UNDEFINED> instruction: 0x007ecc91
 aa8:	00000000 	andeq	r0, r0, r0
 aac:	10000000 	andne	r0, r0, r0
 ab0:	14000004 	strne	r0, [r0], #-4
 ab4:	01000004 	tsteq	r0, r4
 ab8:	04385000 	ldrteq	r5, [r8], #-0
 abc:	043c0000 	ldrteq	r0, [ip], #-0
 ac0:	00010000 	andeq	r0, r1, r0
 ac4:	00046050 	andeq	r6, r4, r0, asr r0
 ac8:	00046400 	andeq	r6, r4, r0, lsl #8
 acc:	50000100 	andpl	r0, r0, r0, lsl #2
 ad0:	00000488 	andeq	r0, r0, r8, lsl #9
 ad4:	0000048c 	andeq	r0, r0, ip, lsl #9
 ad8:	94500001 	ldrbls	r0, [r0], #-1
 adc:	98000004 	stmdals	r0, {r2}
 ae0:	01000004 	tsteq	r0, r4
 ae4:	04bc5000 	ldrteq	r5, [ip], #0
 ae8:	04c00000 	strbeq	r0, [r0], #0
 aec:	00010000 	andeq	r0, r1, r0
 af0:	00050450 	andeq	r0, r5, r0, asr r4
 af4:	00052c00 	andeq	r2, r5, r0, lsl #24
 af8:	50000100 	andpl	r0, r0, r0, lsl #2
	...
 b04:	00000304 	andeq	r0, r0, r4, lsl #6
 b08:	0000030c 	andeq	r0, r0, ip, lsl #6
 b0c:	9f300002 	svcls	0x00300002
 b10:	0000030c 	andeq	r0, r0, ip, lsl #6
 b14:	00000310 	andeq	r0, r0, r0, lsl r3
 b18:	1c570001 	mrrcne	0, 0, r0, r7, cr1
 b1c:	2c000003 	stccs	0, cr0, [r0], {3}
 b20:	01000005 	tsteq	r0, r5
 b24:	00005700 	andeq	r5, r0, r0, lsl #14
 b28:	00000000 	andeq	r0, r0, r0
 b2c:	00040000 	andeq	r0, r4, r0
 b30:	00080000 	andeq	r0, r8, r0
 b34:	00070000 	andeq	r0, r7, r0
 b38:	000a0073 	andeq	r0, sl, r3, ror r0
 b3c:	089f2110 	ldmeq	pc, {r4, r8, sp}	; <UNPREDICTABLE>
 b40:	10000000 	andne	r0, r0, r0
 b44:	01000000 	mrseq	r0, (UNDEF: 0)
 b48:	00005300 	andeq	r5, r0, r0, lsl #6
 b4c:	00000000 	andeq	r0, r0, r0
 b50:	00140000 	andseq	r0, r4, r0
 b54:	00180000 	andseq	r0, r8, r0
 b58:	00070000 	andeq	r0, r7, r0
 b5c:	ff0b0073 			; <UNDEFINED> instruction: 0xff0b0073
 b60:	189f1aef 	ldmne	pc, {r0, r1, r2, r3, r5, r6, r7, r9, fp, ip}	; <UNPREDICTABLE>
 b64:	20000000 	andcs	r0, r0, r0
 b68:	01000000 	mrseq	r0, (UNDEF: 0)
 b6c:	00005300 	andeq	r5, r0, r0, lsl #6
 b70:	00000000 	andeq	r0, r0, r0
 b74:	00140000 	andseq	r0, r4, r0
 b78:	001c0000 	andseq	r0, ip, r0
 b7c:	00030000 	andeq	r0, r3, r0
 b80:	1c9f0473 	cfldrsne	mvf0, [pc], {115}	; 0x73
 b84:	27000000 	strcs	r0, [r0, -r0]
 b88:	01000000 	mrseq	r0, (UNDEF: 0)
 b8c:	00005300 	andeq	r5, r0, r0, lsl #6
	...
 b98:	000f0000 	andeq	r0, pc, r0
 b9c:	00010000 	andeq	r0, r1, r0
 ba0:	00000f50 	andeq	r0, r0, r0, asr pc
 ba4:	00004400 	andeq	r4, r0, r0, lsl #8
 ba8:	54000100 	strpl	r0, [r0], #-256	; 0x100
	...
 bb8:	0000000f 	andeq	r0, r0, pc
 bbc:	0f500001 	svceq	0x00500001
 bc0:	44000000 	strmi	r0, [r0], #-0
 bc4:	01000000 	mrseq	r0, (UNDEF: 0)
 bc8:	00005400 	andeq	r5, r0, r0, lsl #8
	...
 bd4:	000f0000 	andeq	r0, pc, r0
 bd8:	00010000 	andeq	r0, r1, r0
 bdc:	00000f50 	andeq	r0, r0, r0, asr pc
 be0:	00004400 	andeq	r4, r0, r0, lsl #8
 be4:	54000100 	strpl	r0, [r0], #-256	; 0x100
	...
 bf4:	0000000f 	andeq	r0, r0, pc
 bf8:	0f500001 	svceq	0x00500001
 bfc:	44000000 	strmi	r0, [r0], #-0
 c00:	01000000 	mrseq	r0, (UNDEF: 0)
 c04:	00005400 	andeq	r5, r0, r0, lsl #8
 c08:	00000000 	andeq	r0, r0, r0
 c0c:	00340000 	eorseq	r0, r4, r0
 c10:	00400000 	subeq	r0, r0, r0
 c14:	00020000 	andeq	r0, r2, r0
 c18:	00409f30 	subeq	r9, r0, r0, lsr pc
 c1c:	006c0000 	rsbeq	r0, ip, r0
 c20:	00010000 	andeq	r0, r1, r0
 c24:	00000053 	andeq	r0, r0, r3, asr r0
 c28:	00000000 	andeq	r0, r0, r0
 c2c:	0090dc00 	addseq	sp, r0, r0, lsl #24
 c30:	0090e000 	addseq	lr, r0, r0
 c34:	30000200 	andcc	r0, r0, r0, lsl #4
 c38:	0090e09f 	umullseq	lr, r0, pc, r0	; <UNPREDICTABLE>
 c3c:	0090e400 	addseq	lr, r0, r0, lsl #8
 c40:	50000100 	andpl	r0, r0, r0, lsl #2
	...
 c4c:	000090f4 	strdeq	r9, [r0], -r4
 c50:	000090f8 	strdeq	r9, [r0], -r8
 c54:	9f300002 	svcls	0x00300002
 c58:	000090f8 	strdeq	r9, [r0], -r8
 c5c:	000090fc 	strdeq	r9, [r0], -ip
 c60:	00530001 	subseq	r0, r3, r1
 c64:	08000091 	stmdaeq	r0, {r0, r4, r7}
 c68:	01000091 	swpeq	r0, r1, [r0]	; <UNPREDICTABLE>
 c6c:	00005300 	andeq	r5, r0, r0, lsl #6
	...
 c78:	00040000 	andeq	r0, r4, r0
 c7c:	00010000 	andeq	r0, r1, r0
 c80:	00000450 	andeq	r0, r0, r0, asr r4
 c84:	00000c00 	andeq	r0, r0, r0, lsl #24
 c88:	53000100 	movwpl	r0, #256	; 0x100
 c8c:	0000000c 	andeq	r0, r0, ip
 c90:	00000010 	andeq	r0, r0, r0, lsl r0
 c94:	10500001 	subsne	r0, r0, r1
 c98:	1c000000 	stcne	0, cr0, [r0], {-0}
 c9c:	01000000 	mrseq	r0, (UNDEF: 0)
 ca0:	00005300 	andeq	r5, r0, r0, lsl #6
 ca4:	00000000 	andeq	r0, r0, r0
 ca8:	00400000 	subeq	r0, r0, r0
 cac:	00430000 	subeq	r0, r3, r0
 cb0:	00010000 	andeq	r0, r1, r0
 cb4:	00004350 	andeq	r4, r0, r0, asr r3
 cb8:	00004c00 	andeq	r4, r0, r0, lsl #24
 cbc:	54000100 	strpl	r0, [r0], #-256	; 0x100
	...
 cc8:	0000004c 	andeq	r0, r0, ip, asr #32
 ccc:	00000057 	andeq	r0, r0, r7, asr r0
 cd0:	57500001 	ldrbpl	r0, [r0, -r1]
 cd4:	70000000 	andvc	r0, r0, r0
 cd8:	01000000 	mrseq	r0, (UNDEF: 0)
 cdc:	00005500 	andeq	r5, r0, r0, lsl #10
 ce0:	00000000 	andeq	r0, r0, r0
 ce4:	00600000 	rsbeq	r0, r0, r0
 ce8:	00640000 	rsbeq	r0, r4, r0
 cec:	00010000 	andeq	r0, r1, r0
 cf0:	00000050 	andeq	r0, r0, r0, asr r0
 cf4:	00000000 	andeq	r0, r0, r0
 cf8:	00007000 	andeq	r7, r0, r0
 cfc:	00007c00 	andeq	r7, r0, r0, lsl #24
 d00:	50000100 	andpl	r0, r0, r0, lsl #2
 d04:	0000007c 	andeq	r0, r0, ip, ror r0
 d08:	00000084 	andeq	r0, r0, r4, lsl #1
 d0c:	01f30004 	mvnseq	r0, r4
 d10:	00009f50 	andeq	r9, r0, r0, asr pc
 d14:	00000000 	andeq	r0, r0, r0
 d18:	00840000 	addeq	r0, r4, r0
 d1c:	00900000 	addseq	r0, r0, r0
 d20:	00010000 	andeq	r0, r1, r0
 d24:	00009050 	andeq	r9, r0, r0, asr r0
 d28:	00009800 	andeq	r9, r0, r0, lsl #16
 d2c:	f3000400 	vshl.u8	d0, d0, d0
 d30:	009f5001 	addseq	r5, pc, r1
 d34:	00000000 	andeq	r0, r0, r0
 d38:	38000000 	stmdacc	r0, {}	; <UNPREDICTABLE>
 d3c:	43000001 	movwmi	r0, #1
 d40:	01000001 	tsteq	r0, r1
 d44:	01435000 	mrseq	r5, (UNDEF: 67)
 d48:	01680000 	cmneq	r8, r0
 d4c:	00010000 	andeq	r0, r1, r0
 d50:	00000054 	andeq	r0, r0, r4, asr r0
	...
 d5c:	00000f00 	andeq	r0, r0, r0, lsl #30
 d60:	50000100 	andpl	r0, r0, r0, lsl #2
 d64:	0000000f 	andeq	r0, r0, pc
 d68:	00000020 	andeq	r0, r0, r0, lsr #32
 d6c:	00540001 	subseq	r0, r4, r1
	...
 d78:	0f000000 	svceq	0x00000000
 d7c:	01000000 	mrseq	r0, (UNDEF: 0)
 d80:	000f5100 	andeq	r5, pc, r0, lsl #2
 d84:	00200000 	eoreq	r0, r0, r0
 d88:	00010000 	andeq	r0, r1, r0
 d8c:	00000055 	andeq	r0, r0, r5, asr r0
 d90:	00000000 	andeq	r0, r0, r0
 d94:	0000ec00 	andeq	lr, r0, r0, lsl #24
 d98:	00010400 	andeq	r0, r1, r0, lsl #8
 d9c:	50000100 	andpl	r0, r0, r0, lsl #2
 da0:	00000104 	andeq	r0, r0, r4, lsl #2
 da4:	00000114 	andeq	r0, r0, r4, lsl r1
 da8:	01f30004 	mvnseq	r0, r4
 dac:	01149f50 	tsteq	r4, r0, asr pc
 db0:	01180000 	tsteq	r8, r0
 db4:	00010000 	andeq	r0, r1, r0
 db8:	00011850 	andeq	r1, r1, r0, asr r8
 dbc:	00012000 	andeq	r2, r1, r0
 dc0:	f3000400 	vshl.u8	d0, d0, d0
 dc4:	009f5001 	addseq	r5, pc, r1
 dc8:	00000000 	andeq	r0, r0, r0
 dcc:	f8000000 			; <UNDEFINED> instruction: 0xf8000000
 dd0:	04000000 	streq	r0, [r0], #-0
 dd4:	0b000001 	bleq	de0 <__code_start__-0x7220>
 dd8:	35007000 	strcc	r7, [r0, #-0]
 ddc:	80b42325 	adcshi	r2, r4, r5, lsr #6
 de0:	9f028180 	svcls	0x00028180
 de4:	00000104 	andeq	r0, r0, r4, lsl #2
 de8:	00000107 	andeq	r0, r0, r7, lsl #2
 dec:	07500001 	ldrbeq	r0, [r0, -r1]
 df0:	14000001 	strne	r0, [r0], #-1
 df4:	0c000001 	stceq	0, cr0, [r0], {1}
 df8:	5001f300 	andpl	pc, r1, r0, lsl #6
 dfc:	b4232535 	strtlt	r2, [r3], #-1333	; 0x535
 e00:	02818080 	addeq	r8, r1, #128	; 0x80
 e04:	0000009f 	muleq	r0, pc, r0	; <UNPREDICTABLE>
 e08:	00000000 	andeq	r0, r0, r0
 e0c:	0000fc00 	andeq	pc, r0, r0, lsl #24
 e10:	00011400 	andeq	r1, r1, r0, lsl #8
 e14:	54000100 	strpl	r0, [r0], #-256	; 0x100
	...
 e20:	000000d0 	ldrdeq	r0, [r0], -r0	; <UNPREDICTABLE>
 e24:	000000df 	ldrdeq	r0, [r0], -pc	; <UNPREDICTABLE>
 e28:	df500001 	svcle	0x00500001
 e2c:	e4000000 	str	r0, [r0], #-0
 e30:	04000000 	streq	r0, [r0], #-0
 e34:	5001f300 	andpl	pc, r1, r0, lsl #6
 e38:	0000e49f 	muleq	r0, pc, r4	; <UNPREDICTABLE>
 e3c:	0000e700 	andeq	lr, r0, r0, lsl #14
 e40:	50000100 	andpl	r0, r0, r0, lsl #2
 e44:	000000e7 	andeq	r0, r0, r7, ror #1
 e48:	000000ec 	andeq	r0, r0, ip, ror #1
 e4c:	01f30004 	mvnseq	r0, r4
 e50:	00009f50 	andeq	r9, r0, r0, asr pc
 e54:	00000000 	andeq	r0, r0, r0
 e58:	00d00000 	sbcseq	r0, r0, r0
 e5c:	00df0000 	sbcseq	r0, pc, r0
 e60:	00010000 	andeq	r0, r1, r0
 e64:	0000df51 	andeq	sp, r0, r1, asr pc
 e68:	0000e400 	andeq	lr, r0, r0, lsl #8
 e6c:	f3000400 	vshl.u8	d0, d0, d0
 e70:	e49f5101 	ldr	r5, [pc], #257	; e78 <__code_start__-0x7188>
 e74:	e7000000 	str	r0, [r0, -r0]
 e78:	01000000 	mrseq	r0, (UNDEF: 0)
 e7c:	00e75100 	rsceq	r5, r7, r0, lsl #2
 e80:	00ec0000 	rsceq	r0, ip, r0
 e84:	00040000 	andeq	r0, r4, r0
 e88:	9f5101f3 	svcls	0x005101f3
	...
 e94:	000000c0 	andeq	r0, r0, r0, asr #1
 e98:	000000cb 	andeq	r0, r0, fp, asr #1
 e9c:	cb500001 	blgt	1400ea8 <__bss_end__+0x13f6ee8>
 ea0:	d0000000 	andle	r0, r0, r0
 ea4:	04000000 	streq	r0, [r0], #-0
 ea8:	5001f300 	andpl	pc, r1, r0, lsl #6
 eac:	0000009f 	muleq	r0, pc, r0	; <UNPREDICTABLE>
 eb0:	00000000 	andeq	r0, r0, r0
 eb4:	00009c00 	andeq	r9, r0, r0, lsl #24
 eb8:	0000b400 	andeq	fp, r0, r0, lsl #8
 ebc:	50000100 	andpl	r0, r0, r0, lsl #2
 ec0:	000000b4 	strheq	r0, [r0], -r4
 ec4:	000000c0 	andeq	r0, r0, r0, asr #1
 ec8:	01f30004 	mvnseq	r0, r4
 ecc:	00009f50 	andeq	r9, r0, r0, asr pc
 ed0:	00000000 	andeq	r0, r0, r0
 ed4:	00780000 	rsbseq	r0, r8, r0
 ed8:	00900000 	addseq	r0, r0, r0
 edc:	00010000 	andeq	r0, r1, r0
 ee0:	00009050 	andeq	r9, r0, r0, asr r0
 ee4:	00009c00 	andeq	r9, r0, r0, lsl #24
 ee8:	f3000400 	vshl.u8	d0, d0, d0
 eec:	009f5001 	addseq	r5, pc, r1
 ef0:	00000000 	andeq	r0, r0, r0
 ef4:	68000000 	stmdavs	r0, {}	; <UNPREDICTABLE>
 ef8:	73000000 	movwvc	r0, #0
 efc:	01000000 	mrseq	r0, (UNDEF: 0)
 f00:	00735000 	rsbseq	r5, r3, r0
 f04:	00780000 	rsbseq	r0, r8, r0
 f08:	00040000 	andeq	r0, r4, r0
 f0c:	9f5001f3 	svcls	0x005001f3
	...
 f1c:	00000048 	andeq	r0, r0, r8, asr #32
 f20:	48500001 	ldmdami	r0, {r0}^
 f24:	68000000 	stmdavs	r0, {}	; <UNPREDICTABLE>
 f28:	04000000 	streq	r0, [r0], #-0
 f2c:	5001f300 	andpl	pc, r1, r0, lsl #6
 f30:	0000009f 	muleq	r0, pc, r0	; <UNPREDICTABLE>
	...
 f3c:	00004b00 	andeq	r4, r0, r0, lsl #22
 f40:	51000100 	mrspl	r0, (UNDEF: 16)
 f44:	0000004b 	andeq	r0, r0, fp, asr #32
 f48:	00000068 	andeq	r0, r0, r8, rrx
 f4c:	01f30004 	mvnseq	r0, r4
 f50:	00009f51 	andeq	r9, r0, r1, asr pc
 f54:	00000000 	andeq	r0, r0, r0
 f58:	004c0000 	subeq	r0, ip, r0
 f5c:	00540000 	subseq	r0, r4, r0
 f60:	00010000 	andeq	r0, r1, r0
 f64:	00005450 	andeq	r5, r0, r0, asr r4
 f68:	00005800 	andeq	r5, r0, r0, lsl #16
 f6c:	75000900 	strvc	r0, [r0, #-2304]	; 0x900
 f70:	24007400 	strcs	r7, [r0], #-1024	; 0x400
 f74:	9f210071 	svcls	0x00210071
 f78:	00000058 	andeq	r0, r0, r8, asr r0
 f7c:	0000005f 	andeq	r0, r0, pc, asr r0
 f80:	00510001 	subseq	r0, r1, r1
 f84:	00000000 	andeq	r0, r0, r0
 f88:	Address 0x0000000000000f88 is out of bounds.


Disassembly of section .debug_aranges:

00000000 <.debug_aranges>:
   0:	0000001c 	andeq	r0, r0, ip, lsl r0
   4:	00000002 	andeq	r0, r0, r2
   8:	00040000 	andeq	r0, r4, r0
   c:	00000000 	andeq	r0, r0, r0
  10:	00008020 	andeq	r8, r0, r0, lsr #32
  14:	00000418 	andeq	r0, r0, r8, lsl r4
	...
  20:	0000001c 	andeq	r0, r0, ip, lsl r0
  24:	09800002 	stmibeq	r0, {r1}
  28:	00040000 	andeq	r0, r4, r0
  2c:	00000000 	andeq	r0, r0, r0
  30:	00008438 	andeq	r8, r0, r8, lsr r4
  34:	00000354 	andeq	r0, r0, r4, asr r3
	...
  40:	0000001c 	andeq	r0, r0, ip, lsl r0
  44:	15dc0002 	ldrbne	r0, [ip, #2]
  48:	00040000 	andeq	r0, r4, r0
  4c:	00000000 	andeq	r0, r0, r0
  50:	00008894 	muleq	r0, r4, r8
  54:	00000058 	andeq	r0, r0, r8, asr r0
	...
  60:	0000001c 	andeq	r0, r0, ip, lsl r0
  64:	17710002 	ldrbne	r0, [r1, -r2]!
  68:	00040000 	andeq	r0, r4, r0
  6c:	00000000 	andeq	r0, r0, r0
  70:	000088ec 	andeq	r8, r0, ip, ror #17
  74:	0000003c 	andeq	r0, r0, ip, lsr r0
	...
  80:	0000001c 	andeq	r0, r0, ip, lsl r0
  84:	18880002 	stmne	r8, {r1}
  88:	00040000 	andeq	r0, r4, r0
  8c:	00000000 	andeq	r0, r0, r0
  90:	00008928 	andeq	r8, r0, r8, lsr #18
  94:	00000034 	andeq	r0, r0, r4, lsr r0
	...
  a0:	0000001c 	andeq	r0, r0, ip, lsl r0
  a4:	197a0002 	ldmdbne	sl!, {r1}^
  a8:	00040000 	andeq	r0, r4, r0
  ac:	00000000 	andeq	r0, r0, r0
  b0:	0000895c 	andeq	r8, r0, ip, asr r9
  b4:	00000578 	andeq	r0, r0, r8, ror r5
	...
  c0:	0000001c 	andeq	r0, r0, ip, lsl r0
  c4:	20630002 	rsbcs	r0, r3, r2
  c8:	00040000 	andeq	r0, r4, r0
  cc:	00000000 	andeq	r0, r0, r0
  d0:	00008ed4 	ldrdeq	r8, [r0], -r4
  d4:	00000020 	andeq	r0, r0, r0, lsr #32
	...
  e0:	0000001c 	andeq	r0, r0, ip, lsl r0
  e4:	211f0002 	tstcs	pc, r2
  e8:	00040000 	andeq	r0, r4, r0
  ec:	00000000 	andeq	r0, r0, r0
  f0:	00008ef4 	strdeq	r8, [r0], -r4
  f4:	0000002c 	andeq	r0, r0, ip, lsr #32
	...
 100:	0000001c 	andeq	r0, r0, ip, lsl r0
 104:	22320002 	eorscs	r0, r2, #2
 108:	00040000 	andeq	r0, r4, r0
 10c:	00000000 	andeq	r0, r0, r0
 110:	00008f20 	andeq	r8, r0, r0, lsr #30
 114:	00000038 	andeq	r0, r0, r8, lsr r0
	...
 120:	0000001c 	andeq	r0, r0, ip, lsl r0
 124:	23450002 	movtcs	r0, #20482	; 0x5002
 128:	00040000 	andeq	r0, r4, r0
 12c:	00000000 	andeq	r0, r0, r0
 130:	00008f58 	andeq	r8, r0, r8, asr pc
 134:	00000044 	andeq	r0, r0, r4, asr #32
	...
 140:	0000001c 	andeq	r0, r0, ip, lsl r0
 144:	24870002 	strcs	r0, [r7], #2
 148:	00040000 	andeq	r0, r4, r0
 14c:	00000000 	andeq	r0, r0, r0
 150:	00008f9c 	muleq	r0, ip, pc	; <UNPREDICTABLE>
 154:	00000044 	andeq	r0, r0, r4, asr #32
	...
 160:	0000001c 	andeq	r0, r0, ip, lsl r0
 164:	25c90002 	strbcs	r0, [r9, #2]
 168:	00040000 	andeq	r0, r4, r0
 16c:	00000000 	andeq	r0, r0, r0
 170:	00008fe0 	andeq	r8, r0, r0, ror #31
 174:	00000044 	andeq	r0, r0, r4, asr #32
	...
 180:	0000001c 	andeq	r0, r0, ip, lsl r0
 184:	270b0002 	strcs	r0, [fp, -r2]
 188:	00040000 	andeq	r0, r4, r0
 18c:	00000000 	andeq	r0, r0, r0
 190:	00009024 	andeq	r9, r0, r4, lsr #32
 194:	00000044 	andeq	r0, r0, r4, asr #32
	...
 1a0:	0000001c 	andeq	r0, r0, ip, lsl r0
 1a4:	284d0002 	stmdacs	sp, {r1}^
 1a8:	00040000 	andeq	r0, r4, r0
 1ac:	00000000 	andeq	r0, r0, r0
 1b0:	00009068 	andeq	r9, r0, r8, rrx
 1b4:	00000008 	andeq	r0, r0, r8
	...
 1c0:	0000001c 	andeq	r0, r0, ip, lsl r0
 1c4:	28e90002 	stmiacs	r9!, {r1}^
 1c8:	00040000 	andeq	r0, r4, r0
 1cc:	00000000 	andeq	r0, r0, r0
 1d0:	00009070 	andeq	r9, r0, r0, ror r0
 1d4:	0000006c 	andeq	r0, r0, ip, rrx
	...
 1e0:	0000001c 	andeq	r0, r0, ip, lsl r0
 1e4:	2ac40002 	bcs	ff1001f4 <__bss_end__+0xff0f6234>
 1e8:	00040000 	andeq	r0, r4, r0
 1ec:	00000000 	andeq	r0, r0, r0
 1f0:	000090dc 	ldrdeq	r9, [r0], -ip
 1f4:	00000074 	andeq	r0, r0, r4, ror r0
	...
 200:	0000001c 	andeq	r0, r0, ip, lsl r0
 204:	2c750002 	ldclcs	0, cr0, [r5], #-8
 208:	00040000 	andeq	r0, r4, r0
 20c:	00000000 	andeq	r0, r0, r0
 210:	00009150 	andeq	r9, r0, r0, asr r1
 214:	00000098 	muleq	r0, r8, r0
	...
 220:	0000001c 	andeq	r0, r0, ip, lsl r0
 224:	2e700002 	cdpcs	0, 7, cr0, cr0, cr2, {0}
 228:	00040000 	andeq	r0, r4, r0
 22c:	00000000 	andeq	r0, r0, r0
 230:	0000924c 	andeq	r9, r0, ip, asr #4
 234:	00000178 	andeq	r0, r0, r8, ror r1
	...
 240:	0000001c 	andeq	r0, r0, ip, lsl r0
 244:	3b390002 	blcc	e40254 <__bss_end__+0xe36294>
 248:	00040000 	andeq	r0, r4, r0
 24c:	00000000 	andeq	r0, r0, r0
 250:	000093c4 	andeq	r9, r0, r4, asr #7
 254:	00000120 	andeq	r0, r0, r0, lsr #2
	...

Disassembly of section .debug_line:

00000000 <.debug_line>:
       0:	000001e9 	andeq	r0, r0, r9, ror #3
       4:	012b0002 	teqeq	fp, r2
       8:	01020000 	mrseq	r0, (UNDEF: 2)
       c:	000d0efb 	strdeq	r0, [sp], -fp
      10:	01010101 	tsteq	r1, r1, lsl #2
      14:	01000000 	mrseq	r0, (UNDEF: 0)
      18:	74010000 	strvc	r0, [r1], #-0
      1c:	73747365 	cmnvc	r4, #-1811939327	; 0x94000001
      20:	2f002e00 	svccs	0x00002e00
      24:	72657355 	rsbvc	r7, r5, #1409286145	; 0x54000001
      28:	72622f73 	rsbvc	r2, r2, #460	; 0x1cc
      2c:	6a6e6169 	bvs	1b985d8 <__bss_end__+0x1b8e618>
      30:	442f6e75 	strtmi	r6, [pc], #-3701	; 38 <__code_start__-0x7fc8>
      34:	746b7365 	strbtvc	r7, [fp], #-869	; 0x365
      38:	732f706f 	teqvc	pc, #111	; 0x6f
      3c:	6f6f6863 	svcvs	0x006f6863
      40:	70532f6c 	subsvc	r2, r3, ip, ror #30
      44:	676e6972 			; <UNDEFINED> instruction: 0x676e6972
      48:	30323931 	eorscc	r3, r2, r1, lsr r9
      4c:	3253432f 	subscc	r4, r3, #-1140850688	; 0xbc000000
      50:	584c3034 	stmdapl	ip, {r2, r4, r5, ip, sp}^
      54:	3273632f 	rsbscc	r6, r3, #-1140850688	; 0xbc000000
      58:	786c3034 	stmdavc	ip!, {r2, r4, r5, ip, sp}^
      5c:	7330322d 	teqvc	r0, #-805306366	; 0xd0000002
      60:	6c2f7270 	sfmvs	f7, 4, [pc], #-448	; fffffea8 <__bss_end__+0xffff5ee8>
      64:	69706269 	ldmdbvs	r0!, {r0, r3, r5, r6, r9, sp, lr}^
      68:	636e692f 	cmnvs	lr, #770048	; 0xbc000
      6c:	6564756c 	strbvs	r7, [r4, #-1388]!	; 0x56c
      70:	73752f00 	cmnvc	r5, #0, 30
      74:	6f6c2f72 	svcvs	0x006c2f72
      78:	2f6c6163 	svccs	0x006c6163
      7c:	6c6c6543 	cfstr64vs	mvdx6, [ip], #-268	; 0xfffffef4
      80:	612f7261 	teqvs	pc, r1, ror #4
      84:	6e2d6d72 	mcrvs	13, 1, r6, cr13, cr2, {3}
      88:	2d656e6f 	stclcs	14, cr6, [r5, #-444]!	; 0xfffffe44
      8c:	69626165 	stmdbvs	r2!, {r0, r2, r5, r6, r8, sp, lr}^
      90:	382e342f 	stmdacc	lr!, {r0, r1, r2, r3, r5, sl, ip, sp}
      94:	632d332e 	teqvs	sp, #-1207959552	; 0xb8000000
      98:	30373173 	eorscc	r3, r7, r3, ror r1
      9c:	696c2f65 	stmdbvs	ip!, {r0, r2, r5, r6, r8, r9, sl, fp, sp}^
      a0:	63672f62 	cmnvs	r7, #392	; 0x188
      a4:	72612f63 	rsbvc	r2, r1, #396	; 0x18c
      a8:	6f6e2d6d 	svcvs	0x006e2d6d
      ac:	652d656e 	strvs	r6, [sp, #-1390]!	; 0x56e
      b0:	2f696261 	svccs	0x00696261
      b4:	2e382e34 	mrccs	14, 1, r2, cr8, cr4, {1}
      b8:	6e692f33 	mcrvs	15, 3, r2, cr9, cr3, {1}
      bc:	64756c63 	ldrbtvs	r6, [r5], #-3171	; 0xc63
      c0:	31000065 	tstcc	r0, r5, rrx
      c4:	61702d36 	cmnvs	r0, r6, lsr sp
      c8:	2d317472 	cfldrscs	mvf7, [r1, #-456]!	; 0xfffffe38
      cc:	74736574 	ldrbtvc	r6, [r3], #-1396	; 0x574
      d0:	00632e33 	rsbeq	r2, r3, r3, lsr lr
      d4:	63000001 	movwvs	r0, #1
      d8:	2d343170 	ldfcss	f3, [r4, #-448]!	; 0xfffffe40
      dc:	75626564 	strbvc	r6, [r2, #-1380]!	; 0x564
      e0:	00682e67 	rsbeq	r2, r8, r7, ror #28
      e4:	72000002 	andvc	r0, r0, #2
      e8:	692d6970 	pushvs	{r4, r5, r6, r8, fp, sp, lr}
      ec:	7265746e 	rsbvc	r7, r5, #1845493760	; 0x6e000000
      f0:	74707572 	ldrbtvc	r7, [r0], #-1394	; 0x572
      f4:	00682e73 	rsbeq	r2, r8, r3, ror lr
      f8:	62000003 	andvs	r0, r0, #3
      fc:	732d7469 	teqvc	sp, #1761607680	; 0x69000000
     100:	6f707075 	svcvs	0x00707075
     104:	682e7472 	stmdavs	lr!, {r1, r4, r5, r6, sl, ip, sp, lr}
     108:	00000200 	andeq	r0, r0, r0, lsl #4
     10c:	72737063 	rsbsvc	r7, r3, #99	; 0x63
     110:	6974752d 	ldmdbvs	r4!, {r0, r2, r3, r5, r8, sl, ip, sp, lr}^
     114:	00682e6c 	rsbeq	r2, r8, ip, ror #28
     118:	73000002 	movwvc	r0, #2
     11c:	6e696474 	mcrvs	4, 3, r6, cr9, cr4, {3}
     120:	63672d74 	cmnvs	r7, #116, 26	; 0x1d00
     124:	00682e63 	rsbeq	r2, r8, r3, ror #28
     128:	72000004 	andvc	r0, r0, #4
     12c:	682e6970 	stmdavs	lr!, {r4, r5, r6, r8, fp, sp, lr}
     130:	00000300 	andeq	r0, r0, r0, lsl #6
     134:	02050000 	andeq	r0, r5, #0
     138:	00008020 	andeq	r8, r0, r0, lsr #32
     13c:	2f010b03 	svccs	0x00010b03
     140:	02002d4b 	andeq	r2, r0, #4800	; 0x12c0
     144:	002f0204 	eoreq	r0, pc, r4, lsl #4
     148:	65020402 	strvs	r0, [r2, #-1026]	; 0x402
     14c:	01040200 	mrseq	r0, R12_usr
     150:	4c062e06 	stcmi	14, cr2, [r6], {6}
     154:	01040200 	mrseq	r0, R12_usr
     158:	9f068206 	svcls	0x00068206
     15c:	00675c08 	rsbeq	r5, r7, r8, lsl #24
     160:	06010402 	streq	r0, [r1], -r2, lsl #8
     164:	06020482 	streq	r0, [r2], -r2, lsl #9
     168:	f2019103 	vrhadd.s8	d9, d1, d3
     16c:	03010433 	movweq	r0, #5171	; 0x1433
     170:	4b2e7eec 	blmi	b9fd28 <__bss_end__+0xb95d68>
     174:	020083d8 	andeq	r8, r0, #216, 6	; 0x60000003
     178:	9e060104 	adflss	f0, f6, f4
     17c:	d8210806 	stmdale	r1!, {r1, r2, fp}
     180:	01040200 	mrseq	r0, R12_usr
     184:	bb068206 	bllt	1a09a4 <__bss_end__+0x1969e4>
     188:	04020067 	streq	r0, [r2], #-103	; 0x67
     18c:	06820601 	streq	r0, [r2], r1, lsl #12
     190:	142402bc 	strtne	r0, [r4], #-700	; 0x2bc
     194:	0304314b 	movweq	r3, #16715	; 0x414b
     198:	0302042e 	movweq	r0, #9262	; 0x242e
     19c:	042e019b 	strteq	r0, [lr], #-411	; 0x19b
     1a0:	7ee50303 	cdpvc	3, 14, cr0, cr5, cr3, {0}
     1a4:	03040466 	movweq	r0, #17510	; 0x4466
     1a8:	05042e78 	streq	r2, [r4, #-3704]	; 0xe78
     1ac:	652e6c03 	strvs	r6, [lr, #-3075]!	; 0xc03
     1b0:	6008f767 	andvs	pc, r8, r7, ror #14
     1b4:	4b152802 	blmi	54a1c4 <__bss_end__+0x540204>
     1b8:	4b4b4b4b 	blmi	12d2eec <__bss_end__+0x12c8f2c>
     1bc:	4bf27903 	blmi	ffc9e5d0 <__bss_end__+0xffc94610>
     1c0:	12030104 	andne	r0, r3, #4, 2
     1c4:	0200bd2e 	andeq	fp, r0, #2944	; 0xb80
     1c8:	82060104 	andhi	r0, r6, #4, 2
     1cc:	00679f06 	rsbeq	r9, r7, r6, lsl #30
     1d0:	06010402 	streq	r0, [r1], -r2, lsl #8
     1d4:	06020482 	streq	r0, [r2], -r2, lsl #9
     1d8:	9e019103 	mvflss	f1, f3
     1dc:	e8030404 	stmda	r3, {r2, sl}
     1e0:	0104667e 	tsteq	r4, lr, ror r6
     1e4:	682e0b03 	stmdavs	lr!, {r0, r1, r8, r9, fp}
     1e8:	01003a02 	tsteq	r0, r2, lsl #20
     1ec:	0001de01 	andeq	sp, r1, r1, lsl #28
     1f0:	ff000200 			; <UNDEFINED> instruction: 0xff000200
     1f4:	02000000 	andeq	r0, r0, #0
     1f8:	0d0efb01 	vstreq	d15, [lr, #-4]
     1fc:	01010100 	mrseq	r0, (UNDEF: 17)
     200:	00000001 	andeq	r0, r0, r1
     204:	01000001 	tsteq	r0, r1
     208:	7273752f 	rsbsvc	r7, r3, #197132288	; 0xbc00000
     20c:	636f6c2f 	cmnvs	pc, #12032	; 0x2f00
     210:	432f6c61 	teqmi	pc, #24832	; 0x6100
     214:	616c6c65 	cmnvs	ip, r5, ror #24
     218:	72612f72 	rsbvc	r2, r1, #456	; 0x1c8
     21c:	6f6e2d6d 	svcvs	0x006e2d6d
     220:	652d656e 	strvs	r6, [sp, #-1390]!	; 0x56e
     224:	2f696261 	svccs	0x00696261
     228:	2e382e34 	mrccs	14, 1, r2, cr8, cr4, {1}
     22c:	73632d33 	cmnvc	r3, #3264	; 0xcc0
     230:	65303731 	ldrvs	r3, [r0, #-1841]!	; 0x731
     234:	62696c2f 	rsbvs	r6, r9, #12032	; 0x2f00
     238:	6363672f 	cmnvs	r3, #12320768	; 0xbc0000
     23c:	6d72612f 	ldfvse	f6, [r2, #-188]!	; 0xffffff44
     240:	6e6f6e2d 	cdpvs	14, 6, cr6, cr15, cr13, {1}
     244:	61652d65 	cmnvs	r5, r5, ror #26
     248:	342f6962 	strtcc	r6, [pc], #-2402	; 250 <__code_start__-0x7db0>
     24c:	332e382e 	teqcc	lr, #3014656	; 0x2e0000
     250:	636e692f 	cmnvs	lr, #770048	; 0xbc000
     254:	6564756c 	strbvs	r7, [r4, #-1388]!	; 0x56c
     258:	73552f00 	cmpvc	r5, #0, 30
     25c:	2f737265 	svccs	0x00737265
     260:	61697262 	cmnvs	r9, r2, ror #4
     264:	6e756a6e 	vsubvs.f32	s13, s10, s29
     268:	7365442f 	cmnvc	r5, #788529152	; 0x2f000000
     26c:	706f746b 	rsbvc	r7, pc, fp, ror #8
     270:	6863732f 	stmdavs	r3!, {r0, r1, r2, r3, r5, r8, r9, ip, sp, lr}^
     274:	2f6c6f6f 	svccs	0x006c6f6f
     278:	69727053 	ldmdbvs	r2!, {r0, r1, r4, r6, ip, sp, lr}^
     27c:	3931676e 	ldmdbcc	r1!, {r1, r2, r3, r5, r6, r8, r9, sl, sp, lr}
     280:	432f3032 	teqmi	pc, #50	; 0x32
     284:	30343253 	eorscc	r3, r4, r3, asr r2
     288:	632f584c 	teqvs	pc, #76, 16	; 0x4c0000
     28c:	30343273 	eorscc	r3, r4, r3, ror r2
     290:	322d786c 	eorcc	r7, sp, #108, 16	; 0x6c0000
     294:	72707330 	rsbsvc	r7, r0, #48, 6	; 0xc0000000
     298:	62696c2f 	rsbvs	r6, r9, #12032	; 0x2f00
     29c:	692f6970 	stmdbvs	pc!, {r4, r5, r6, r8, fp, sp, lr}	; <UNPREDICTABLE>
     2a0:	756c636e 	strbvc	r6, [ip, #-878]!	; 0x36e
     2a4:	00006564 	andeq	r6, r0, r4, ror #10
     2a8:	34317063 	ldrtcc	r7, [r1], #-99	; 0x63
     2ac:	6265642d 	rsbvs	r6, r5, #754974720	; 0x2d000000
     2b0:	632e6775 	teqvs	lr, #30670848	; 0x1d40000
     2b4:	00000000 	andeq	r0, r0, r0
     2b8:	34317063 	ldrtcc	r7, [r1], #-99	; 0x63
     2bc:	6265642d 	rsbvs	r6, r5, #754974720	; 0x2d000000
     2c0:	682e6775 	stmdavs	lr!, {r0, r2, r4, r5, r6, r8, r9, sl, sp, lr}
     2c4:	00000000 	andeq	r0, r0, r0
     2c8:	69647473 	stmdbvs	r4!, {r0, r1, r4, r5, r6, sl, ip, sp, lr}^
     2cc:	672d746e 	strvs	r7, [sp, -lr, ror #8]!
     2d0:	682e6363 	stmdavs	lr!, {r0, r1, r5, r6, r8, r9, sp, lr}
     2d4:	00000100 	andeq	r0, r0, r0, lsl #2
     2d8:	2e697072 	mcrcs	0, 3, r7, cr9, cr2, {3}
     2dc:	00020068 	andeq	r0, r2, r8, rrx
     2e0:	69707200 	ldmdbvs	r0!, {r9, ip, sp, lr}^
     2e4:	746e692d 	strbtvc	r6, [lr], #-2349	; 0x92d
     2e8:	75727265 	ldrbvc	r7, [r2, #-613]!	; 0x265
     2ec:	2e737470 	mrccs	4, 3, r7, cr3, cr0, {3}
     2f0:	00020068 	andeq	r0, r2, r8, rrx
     2f4:	05000000 	streq	r0, [r0, #-0]
     2f8:	00843802 	addeq	r3, r4, r2, lsl #16
     2fc:	01350300 	teqeq	r5, r0, lsl #6
     300:	034a6203 	movteq	r6, #41475	; 0xa203
     304:	62032e24 	andvs	r2, r3, #36, 28	; 0x240
     308:	2e7a032e 	cdpcs	3, 7, cr0, cr10, cr14, {1}
     30c:	002e2903 	eoreq	r2, lr, r3, lsl #18
     310:	06010402 	streq	r0, [r1], -r2, lsl #8
     314:	6503064a 	strvs	r0, [r3, #-1610]	; 0x64a
     318:	78032008 	stmdavc	r3, {r3, sp}
     31c:	4a7a032e 	bmi	1e80fdc <__bss_end__+0x1e7701c>
     320:	002e3a03 	eoreq	r3, lr, r3, lsl #20
     324:	06010402 	streq	r0, [r1], -r2, lsl #8
     328:	bb03064a 	bllt	c1c58 <__bss_end__+0xb7c98>
     32c:	0320087f 	teqeq	r0, #8323072	; 0x7f0000
     330:	4b4a00c8 	blmi	1280658 <__bss_end__+0x1276698>
     334:	6c0204f5 	cfstrsvs	mvf0, [r2], {245}	; 0xf5
     338:	344a1303 	strbcc	r1, [sl], #-771	; 0x303
     33c:	d65d034b 	ldrble	r0, [sp], -fp, asr #6
     340:	11030104 	tstne	r3, r4, lsl #2
     344:	0402002e 	streq	r0, [r2], #-46	; 0x2e
     348:	06660601 	strbteq	r0, [r6], -r1, lsl #12
     34c:	02002208 	andeq	r2, r0, #8, 4	; 0x80000000
     350:	82060104 	andhi	r0, r6, #4, 2
     354:	03060204 	movweq	r0, #25092	; 0x6204
     358:	0420087a 	strteq	r0, [r0], #-2170	; 0x87a
     35c:	2e0c0301 	cdpcs	3, 0, cr0, cr12, cr1, {0}
     360:	315a084b 	cmpcc	sl, fp, asr #16
     364:	bb032f83 	bllt	cc178 <__bss_end__+0xc21b8>
     368:	5b03667f 	blpl	d9d6c <__bss_end__+0xcfdac>
     36c:	019b034a 	orrseq	r0, fp, sl, asr #6
     370:	01650382 	smulbbeq	r5, r2, r3
     374:	032e1f03 	teqeq	lr, #3, 30
     378:	302c2e62 	eorcc	r2, ip, r2, ror #28
     37c:	4a7eff03 	bmi	1fbff90 <__bss_end__+0x1fb5fd0>
     380:	4a01b303 	bmi	6cf94 <__bss_end__+0x62fd4>
     384:	030204a2 	movweq	r0, #9378	; 0x24a2
     388:	04336662 	ldrteq	r6, [r3], #-1634	; 0x662
     38c:	2e1b0301 	cdpcs	3, 1, cr0, cr11, cr1, {0}
     390:	0200d74b 	andeq	sp, r0, #19660800	; 0x12c0000
     394:	82060104 	andhi	r0, r6, #4, 2
     398:	03060204 	movweq	r0, #25092	; 0x6204
     39c:	0420084f 	strteq	r0, [r0], #-2127	; 0x84f
     3a0:	2e330301 	cdpcs	3, 3, cr0, cr3, cr1, {0}
     3a4:	0b03f44b 	bleq	fd4d8 <__bss_end__+0xf3518>
     3a8:	082f012e 	stmdaeq	pc!, {r1, r2, r3, r5, r8}	; <UNPREDICTABLE>
     3ac:	7fb1033f 	svcvc	0x00b1033f
     3b0:	00d30301 	sbcseq	r0, r3, r1, lsl #6
     3b4:	7fae032e 	svcvc	0x00ae032e
     3b8:	03302c2e 	teqeq	r0, #11776	; 0x2e00
     3bc:	034a7eff 	movteq	r7, #44799	; 0xaeff
     3c0:	a24a01e7 	subge	r0, sl, #-1073741767	; 0xc0000039
     3c4:	0809032f 	stmdaeq	r9, {r0, r1, r2, r3, r5, r8, r9}
     3c8:	16022f3c 			; <UNDEFINED> instruction: 0x16022f3c
     3cc:	0c010100 	stfeqs	f0, [r1], {-0}
     3d0:	02000001 	andeq	r0, r0, #1
     3d4:	0000f500 	andeq	pc, r0, r0, lsl #10
     3d8:	fb010200 	blx	40be2 <__bss_end__+0x36c22>
     3dc:	01000d0e 	tsteq	r0, lr, lsl #26
     3e0:	00010101 	andeq	r0, r1, r1, lsl #2
     3e4:	00010000 	andeq	r0, r1, r0
     3e8:	696c0100 	stmdbvs	ip!, {r8}^
     3ec:	2f006362 	svccs	0x00006362
     3f0:	2f727375 	svccs	0x00727375
     3f4:	61636f6c 	cmnvs	r3, ip, ror #30
     3f8:	65432f6c 	strbvs	r2, [r3, #-3948]	; 0xf6c
     3fc:	72616c6c 	rsbvc	r6, r1, #108, 24	; 0x6c00
     400:	6d72612f 	ldfvse	f6, [r2, #-188]!	; 0xffffff44
     404:	6e6f6e2d 	cdpvs	14, 6, cr6, cr15, cr13, {1}
     408:	61652d65 	cmnvs	r5, r5, ror #26
     40c:	342f6962 	strtcc	r6, [pc], #-2402	; 414 <__code_start__-0x7bec>
     410:	332e382e 	teqcc	lr, #3014656	; 0x2e0000
     414:	3173632d 	cmncc	r3, sp, lsr #6
     418:	2f653037 	svccs	0x00653037
     41c:	2f62696c 	svccs	0x0062696c
     420:	2f636367 	svccs	0x00636367
     424:	2d6d7261 	sfmcs	f7, 2, [sp, #-388]!	; 0xfffffe7c
     428:	656e6f6e 	strbvs	r6, [lr, #-3950]!	; 0xf6e
     42c:	6261652d 	rsbvs	r6, r1, #188743680	; 0xb400000
     430:	2e342f69 	cdpcs	15, 3, cr2, cr4, cr9, {3}
     434:	2f332e38 	svccs	0x00332e38
     438:	6c636e69 	stclvs	14, cr6, [r3], #-420	; 0xfffffe5c
     43c:	00656475 	rsbeq	r6, r5, r5, ror r4
     440:	6573552f 	ldrbvs	r5, [r3, #-1327]!	; 0x52f
     444:	622f7372 	eorvs	r7, pc, #-939524095	; 0xc8000001
     448:	6e616972 	mcrvs	9, 3, r6, cr1, cr2, {3}
     44c:	2f6e756a 	svccs	0x006e756a
     450:	6b736544 	blvs	1cd9968 <__bss_end__+0x1ccf9a8>
     454:	2f706f74 	svccs	0x00706f74
     458:	6f686373 	svcvs	0x00686373
     45c:	532f6c6f 	teqpl	pc, #28416	; 0x6f00
     460:	6e697270 	mcrvs	2, 3, r7, cr9, cr0, {3}
     464:	32393167 	eorscc	r3, r9, #-1073741799	; 0xc0000019
     468:	53432f30 	movtpl	r2, #16176	; 0x3f30
     46c:	4c303432 	cfldrsmi	mvf3, [r0], #-200	; 0xffffff38
     470:	73632f58 	cmnvc	r3, #88, 30	; 0x160
     474:	6c303432 	cfldrsvs	mvf3, [r0], #-200	; 0xffffff38
     478:	30322d78 	eorscc	r2, r2, r8, ror sp
     47c:	2f727073 	svccs	0x00727073
     480:	7062696c 	rsbvc	r6, r2, ip, ror #18
     484:	6e692f69 	cdpvs	15, 6, cr2, cr9, cr9, {3}
     488:	64756c63 	ldrbtvs	r6, [r5], #-3171	; 0xc63
     48c:	70000065 	andvc	r0, r0, r5, rrx
     490:	746e6972 	strbtvc	r6, [lr], #-2418	; 0x972
     494:	00632e6b 	rsbeq	r2, r3, fp, ror #28
     498:	73000001 	movwvc	r0, #1
     49c:	72616474 	rsbvc	r6, r1, #116, 8	; 0x74000000
     4a0:	00682e67 	rsbeq	r2, r8, r7, ror #28
     4a4:	3c000002 	stccc	0, cr0, [r0], {2}
     4a8:	6c697562 	cfstr64vs	mvdx7, [r9], #-392	; 0xfffffe78
     4ac:	6e692d74 	mcrvs	13, 3, r2, cr9, cr4, {3}
     4b0:	0000003e 	andeq	r0, r0, lr, lsr r0
     4b4:	69707200 	ldmdbvs	r0!, {r9, ip, sp, lr}^
     4b8:	0300682e 	movweq	r6, #2094	; 0x82e
     4bc:	61760000 	cmnvs	r6, r0
     4c0:	6972702d 	ldmdbvs	r2!, {r0, r2, r3, r5, ip, sp, lr}^
     4c4:	2e6b746e 	cdpcs	4, 6, cr7, cr11, cr14, {3}
     4c8:	00010068 	andeq	r0, r1, r8, rrx
     4cc:	05000000 	streq	r0, [r0, #-0]
     4d0:	00889402 	addeq	r9, r8, r2, lsl #8
     4d4:	4b6b1700 	blmi	1ac60dc <__bss_end__+0x1abc11c>
     4d8:	0e0289bf 	mcreq	9, 0, r8, cr2, cr15, {5}
     4dc:	94010100 	strls	r0, [r1], #-256	; 0x100
     4e0:	02000000 	andeq	r0, r0, #0
     4e4:	00007c00 	andeq	r7, r0, r0, lsl #24
     4e8:	fb010200 	blx	40cf2 <__bss_end__+0x36d32>
     4ec:	01000d0e 	tsteq	r0, lr, lsl #26
     4f0:	00010101 	andeq	r0, r1, r1, lsl #2
     4f4:	00010000 	andeq	r0, r1, r0
     4f8:	696c0100 	stmdbvs	ip!, {r8}^
     4fc:	2f006362 	svccs	0x00006362
     500:	72657355 	rsbvc	r7, r5, #1409286145	; 0x54000001
     504:	72622f73 	rsbvc	r2, r2, #460	; 0x1cc
     508:	6a6e6169 	bvs	1b98ab4 <__bss_end__+0x1b8eaf4>
     50c:	442f6e75 	strtmi	r6, [pc], #-3701	; 514 <__code_start__-0x7aec>
     510:	746b7365 	strbtvc	r7, [fp], #-869	; 0x365
     514:	732f706f 	teqvc	pc, #111	; 0x6f
     518:	6f6f6863 	svcvs	0x006f6863
     51c:	70532f6c 	subsvc	r2, r3, ip, ror #30
     520:	676e6972 			; <UNDEFINED> instruction: 0x676e6972
     524:	30323931 	eorscc	r3, r2, r1, lsr r9
     528:	3253432f 	subscc	r4, r3, #-1140850688	; 0xbc000000
     52c:	584c3034 	stmdapl	ip, {r2, r4, r5, ip, sp}^
     530:	3273632f 	rsbscc	r6, r3, #-1140850688	; 0xbc000000
     534:	786c3034 	stmdavc	ip!, {r2, r4, r5, ip, sp}^
     538:	7330322d 	teqvc	r0, #-805306366	; 0xd0000002
     53c:	6c2f7270 	sfmvs	f7, 4, [pc], #-448	; 384 <__code_start__-0x7c7c>
     540:	69706269 	ldmdbvs	r0!, {r0, r3, r5, r6, r9, sp, lr}^
     544:	636e692f 	cmnvs	lr, #770048	; 0xbc000
     548:	6564756c 	strbvs	r7, [r4, #-1388]!	; 0x56c
     54c:	75700000 	ldrbvc	r0, [r0, #-0]!
     550:	61686374 	smcvs	34356	; 0x8634
     554:	00632e72 	rsbeq	r2, r3, r2, ror lr
     558:	72000001 	andvc	r0, r0, #1
     55c:	682e6970 	stmdavs	lr!, {r4, r5, r6, r8, fp, sp, lr}
     560:	00000200 	andeq	r0, r0, r0, lsl #4
     564:	02050000 	andeq	r0, r5, #0
     568:	000088ec 	andeq	r8, r0, ip, ror #17
     56c:	136b4a14 	cmnne	fp, #20, 20	; 0x14000
     570:	080213bc 	stmdaeq	r2, {r2, r3, r4, r5, r7, r8, r9, ip}
     574:	a0010100 	andge	r0, r1, r0, lsl #2
     578:	02000000 	andeq	r0, r0, #0
     57c:	00007900 	andeq	r7, r0, r0, lsl #18
     580:	fb010200 	blx	40d8a <__bss_end__+0x36dca>
     584:	01000d0e 	tsteq	r0, lr, lsl #26
     588:	00010101 	andeq	r0, r1, r1, lsl #2
     58c:	00010000 	andeq	r0, r1, r0
     590:	696c0100 	stmdbvs	ip!, {r8}^
     594:	2f006362 	svccs	0x00006362
     598:	72657355 	rsbvc	r7, r5, #1409286145	; 0x54000001
     59c:	72622f73 	rsbvc	r2, r2, #460	; 0x1cc
     5a0:	6a6e6169 	bvs	1b98b4c <__bss_end__+0x1b8eb8c>
     5a4:	442f6e75 	strtmi	r6, [pc], #-3701	; 5ac <__code_start__-0x7a54>
     5a8:	746b7365 	strbtvc	r7, [fp], #-869	; 0x365
     5ac:	732f706f 	teqvc	pc, #111	; 0x6f
     5b0:	6f6f6863 	svcvs	0x006f6863
     5b4:	70532f6c 	subsvc	r2, r3, ip, ror #30
     5b8:	676e6972 			; <UNDEFINED> instruction: 0x676e6972
     5bc:	30323931 	eorscc	r3, r2, r1, lsr r9
     5c0:	3253432f 	subscc	r4, r3, #-1140850688	; 0xbc000000
     5c4:	584c3034 	stmdapl	ip, {r2, r4, r5, ip, sp}^
     5c8:	3273632f 	rsbscc	r6, r3, #-1140850688	; 0xbc000000
     5cc:	786c3034 	stmdavc	ip!, {r2, r4, r5, ip, sp}^
     5d0:	7330322d 	teqvc	r0, #-805306366	; 0xd0000002
     5d4:	6c2f7270 	sfmvs	f7, 4, [pc], #-448	; 41c <__code_start__-0x7be4>
     5d8:	69706269 	ldmdbvs	r0!, {r0, r3, r5, r6, r9, sp, lr}^
     5dc:	636e692f 	cmnvs	lr, #770048	; 0xbc000
     5e0:	6564756c 	strbvs	r7, [r4, #-1388]!	; 0x56c
     5e4:	75700000 	ldrbvc	r0, [r0, #-0]!
     5e8:	632e6b74 	teqvs	lr, #116, 22	; 0x1d000
     5ec:	00000100 	andeq	r0, r0, r0, lsl #2
     5f0:	2e697072 	mcrcs	0, 3, r7, cr9, cr2, {3}
     5f4:	00020068 	andeq	r0, r2, r8, rrx
     5f8:	05000000 	streq	r0, [r0, #-0]
     5fc:	00892802 	addeq	r2, r9, r2, lsl #16
     600:	2d4c1500 	cfstr64cs	mvdx1, [ip, #-0]
     604:	02040200 	andeq	r0, r4, #0, 4
     608:	0402002f 	streq	r0, [r2], #-47	; 0x2f
     60c:	02004902 	andeq	r4, r0, #32768	; 0x8000
     610:	2e060104 	adfcss	f0, f6, f4
     614:	06026b06 	streq	r6, [r2], -r6, lsl #22
     618:	f1010100 	setend	le
     61c:	02000001 	andeq	r0, r0, #1
     620:	0000e900 	andeq	lr, r0, r0, lsl #18
     624:	fb010200 	blx	40e2e <__bss_end__+0x36e6e>
     628:	01000d0e 	tsteq	r0, lr, lsl #26
     62c:	00010101 	andeq	r0, r1, r1, lsl #2
     630:	00010000 	andeq	r0, r1, r0
     634:	696c0100 	stmdbvs	ip!, {r8}^
     638:	2f006362 	svccs	0x00006362
     63c:	2f727375 	svccs	0x00727375
     640:	61636f6c 	cmnvs	r3, ip, ror #30
     644:	65432f6c 	strbvs	r2, [r3, #-3948]	; 0xf6c
     648:	72616c6c 	rsbvc	r6, r1, #108, 24	; 0x6c00
     64c:	6d72612f 	ldfvse	f6, [r2, #-188]!	; 0xffffff44
     650:	6e6f6e2d 	cdpvs	14, 6, cr6, cr15, cr13, {1}
     654:	61652d65 	cmnvs	r5, r5, ror #26
     658:	342f6962 	strtcc	r6, [pc], #-2402	; 660 <__code_start__-0x79a0>
     65c:	332e382e 	teqcc	lr, #3014656	; 0x2e0000
     660:	3173632d 	cmncc	r3, sp, lsr #6
     664:	2f653037 	svccs	0x00653037
     668:	2f62696c 	svccs	0x0062696c
     66c:	2f636367 	svccs	0x00636367
     670:	2d6d7261 	sfmcs	f7, 2, [sp, #-388]!	; 0xfffffe7c
     674:	656e6f6e 	strbvs	r6, [lr, #-3950]!	; 0xf6e
     678:	6261652d 	rsbvs	r6, r1, #188743680	; 0xb400000
     67c:	2e342f69 	cdpcs	15, 3, cr2, cr4, cr9, {3}
     680:	2f332e38 	svccs	0x00332e38
     684:	6c636e69 	stclvs	14, cr6, [r3], #-420	; 0xfffffe5c
     688:	00656475 	rsbeq	r6, r5, r5, ror r4
     68c:	6573552f 	ldrbvs	r5, [r3, #-1327]!	; 0x52f
     690:	622f7372 	eorvs	r7, pc, #-939524095	; 0xc8000001
     694:	6e616972 	mcrvs	9, 3, r6, cr1, cr2, {3}
     698:	2f6e756a 	svccs	0x006e756a
     69c:	6b736544 	blvs	1cd9bb4 <__bss_end__+0x1ccfbf4>
     6a0:	2f706f74 	svccs	0x00706f74
     6a4:	6f686373 	svcvs	0x00686373
     6a8:	532f6c6f 	teqpl	pc, #28416	; 0x6f00
     6ac:	6e697270 	mcrvs	2, 3, r7, cr9, cr0, {3}
     6b0:	32393167 	eorscc	r3, r9, #-1073741799	; 0xc0000019
     6b4:	53432f30 	movtpl	r2, #16176	; 0x3f30
     6b8:	4c303432 	cfldrsmi	mvf3, [r0], #-200	; 0xffffff38
     6bc:	73632f58 	cmnvc	r3, #88, 30	; 0x160
     6c0:	6c303432 	cfldrsvs	mvf3, [r0], #-200	; 0xffffff38
     6c4:	30322d78 	eorscc	r2, r2, r8, ror sp
     6c8:	2f727073 	svccs	0x00727073
     6cc:	7062696c 	rsbvc	r6, r2, ip, ror #18
     6d0:	6e692f69 	cdpvs	15, 6, cr2, cr9, cr9, {3}
     6d4:	64756c63 	ldrbtvs	r6, [r5], #-3171	; 0xc63
     6d8:	76000065 	strvc	r0, [r0], -r5, rrx
     6dc:	72702d61 	rsbsvc	r2, r0, #6208	; 0x1840
     6e0:	6b746e69 	blvs	1d1c08c <__bss_end__+0x1d120cc>
     6e4:	0100632e 	tsteq	r0, lr, lsr #6
     6e8:	74730000 	ldrbtvc	r0, [r3], #-0
     6ec:	67726164 	ldrbvs	r6, [r2, -r4, ror #2]!
     6f0:	0200682e 	andeq	r6, r0, #3014656	; 0x2e0000
     6f4:	70720000 	rsbsvc	r0, r2, r0
     6f8:	00682e69 	rsbeq	r2, r8, r9, ror #28
     6fc:	3c000003 	stccc	0, cr0, [r0], {3}
     700:	6c697562 	cfstr64vs	mvdx7, [r9], #-392	; 0xfffffe78
     704:	6e692d74 	mcrvs	13, 3, r2, cr9, cr4, {3}
     708:	0000003e 	andeq	r0, r0, lr, lsr r0
     70c:	05000000 	streq	r0, [r0, #-0]
     710:	00895c02 	addeq	r5, r9, r2, lsl #24
     714:	01260300 	teqeq	r6, r0, lsl #6
     718:	3113a501 	tstcc	r3, r1, lsl #10
     71c:	0402002d 	streq	r0, [r2], #-45	; 0x2d
     720:	02002f02 	andeq	r2, r0, #2, 30
     724:	002d0204 	eoreq	r0, sp, r4, lsl #4
     728:	2f020402 	svccs	0x00020402
     72c:	01040200 	mrseq	r0, R12_usr
     730:	304c4c2d 	subcc	r4, ip, sp, lsr #24
     734:	4f2f4b14 	svcmi	0x002f4b14
     738:	02040200 	andeq	r0, r4, #0, 4
     73c:	04020067 	streq	r0, [r2], #-103	; 0x67
     740:	4d4c6501 	cfstr64mi	mvdx6, [ip, #-4]
     744:	312fa030 	teqcc	pc, r0, lsr r0	; <UNPREDICTABLE>
     748:	16260230 			; <UNDEFINED> instruction: 0x16260230
     74c:	002c2d84 	eoreq	r2, ip, r4, lsl #27
     750:	30010402 	andcc	r0, r1, r2, lsl #8
     754:	01040200 	mrseq	r0, R12_usr
     758:	00660633 	rsbeq	r0, r6, r3, lsr r6
     75c:	2e010402 	cdpcs	4, 0, cr0, cr1, cr2, {0}
     760:	01040200 	mrseq	r0, R12_usr
     764:	67210806 	strvs	r0, [r1, -r6, lsl #16]!
     768:	8273032f 	rsbshi	r0, r3, #-1140850688	; 0xbc000000
     76c:	002e1303 	eoreq	r1, lr, r3, lsl #6
     770:	06010402 	streq	r0, [r1], -r2, lsl #8
     774:	04020066 	streq	r0, [r2], #-102	; 0x66
     778:	4b830601 	blmi	fe0c1f84 <__bss_end__+0xfe0b7fc4>
     77c:	4b31674b 	blmi	c5a4b0 <__bss_end__+0xc504f0>
     780:	032e6503 	teqeq	lr, #12582912	; 0xc00000
     784:	02002e23 	andeq	r2, r0, #560	; 0x230
     788:	2e060104 	adfcss	f0, f6, f4
     78c:	01040200 	mrseq	r0, R12_usr
     790:	02009f06 	andeq	r9, r0, #6, 30
     794:	086a0104 	stmdaeq	sl!, {r2, r8}^
     798:	a403d723 	strge	sp, [r3], #-1827	; 0x723
     79c:	4b3c087f 	blmi	f029a0 <__bss_end__+0xef89e0>
     7a0:	01040200 	mrseq	r0, R12_usr
     7a4:	08064a06 	stmdaeq	r6, {r1, r2, r9, fp, lr}
     7a8:	4b2f4b21 	blmi	bd3434 <__bss_end__+0xbc9474>
     7ac:	f200db03 	vqdmulh.s<illegal width 8>	d13, d0, d3
     7b0:	32484c9f 	subcc	r4, r8, #40704	; 0x9f00
     7b4:	4b842f4b 	blmi	fe10c4e8 <__bss_end__+0xfe102528>
     7b8:	314d2d2f 	cmpcc	sp, pc, lsr #26
     7bc:	00832f30 	addeq	r2, r3, r0, lsr pc
     7c0:	2c010402 	cfstrscs	mvf0, [r1], {2}
     7c4:	040200be 	streq	r0, [r2], #-190	; 0xbe
     7c8:	064a0601 	strbeq	r0, [sl], -r1, lsl #12
     7cc:	36022208 	strcc	r2, [r2], -r8, lsl #4
     7d0:	d60e0316 			; <UNDEFINED> instruction: 0xd60e0316
     7d4:	08302108 	ldmdaeq	r0!, {r3, r8, sp}
     7d8:	21083121 	tstcs	r8, r1, lsr #2
     7dc:	30210830 	eorcc	r0, r1, r0, lsr r8
     7e0:	2108304b 	tstcs	r8, fp, asr #32
     7e4:	83834b30 	orrhi	r4, r3, #48, 22	; 0xc000
     7e8:	002f31d9 	ldrdeq	r3, [pc], -r9	; <UNPREDICTABLE>
     7ec:	65010402 	strvs	r0, [r1, #-1026]	; 0x402
     7f0:	02040200 	andeq	r0, r4, #0, 4
     7f4:	02004a06 	andeq	r4, r0, #24576	; 0x6000
     7f8:	03060104 	movweq	r0, #24836	; 0x6104
     7fc:	00667fbf 	strhteq	r7, [r6], #-255	; 0xffffff01
     800:	06020402 	streq	r0, [r2], -r2, lsl #8
     804:	c5030666 	strgt	r0, [r3, #-1638]	; 0x666
     808:	02684a00 	rsbeq	r4, r8, #0, 20
     80c:	01010016 	tsteq	r1, r6, lsl r0
     810:	00000042 	andeq	r0, r0, r2, asr #32
     814:	00280002 	eoreq	r0, r8, r2
     818:	01020000 	mrseq	r0, (UNDEF: 2)
     81c:	000d0efb 	strdeq	r0, [sp], -fp
     820:	01010101 	tsteq	r1, r1, lsl #2
     824:	01000000 	mrseq	r0, (UNDEF: 0)
     828:	73010000 	movwvc	r0, #4096	; 0x1000
     82c:	66666174 			; <UNDEFINED> instruction: 0x66666174
     830:	6372732d 	cmnvs	r2, #-1275068416	; 0xb4000000
     834:	61630000 	cmnvs	r3, r0
     838:	2e656863 	cdpcs	8, 6, cr6, cr5, cr3, {3}
     83c:	00010063 	andeq	r0, r1, r3, rrx
     840:	05000000 	streq	r0, [r0, #-0]
     844:	008ed402 	addeq	sp, lr, r2, lsl #8
     848:	30141400 	andscc	r1, r4, r0, lsl #8
     84c:	31144e2f 	tstcc	r4, pc, lsr #28
     850:	0004022f 	andeq	r0, r4, pc, lsr #4
     854:	009d0101 	addseq	r0, sp, r1, lsl #2
     858:	00020000 	andeq	r0, r2, r0
     85c:	00000086 	andeq	r0, r0, r6, lsl #1
     860:	0efb0102 	cdpeq	1, 15, cr0, cr11, cr2, {0}
     864:	0101000d 	tsteq	r1, sp
     868:	00000101 	andeq	r0, r0, r1, lsl #2
     86c:	00000100 	andeq	r0, r0, r0, lsl #2
     870:	61747301 	cmnvs	r4, r1, lsl #6
     874:	732d6666 	teqvc	sp, #106954752	; 0x6600000
     878:	2f006372 	svccs	0x00006372
     87c:	72657355 	rsbvc	r7, r5, #1409286145	; 0x54000001
     880:	72622f73 	rsbvc	r2, r2, #460	; 0x1cc
     884:	6a6e6169 	bvs	1b98e30 <__bss_end__+0x1b8ee70>
     888:	442f6e75 	strtmi	r6, [pc], #-3701	; 890 <__code_start__-0x7770>
     88c:	746b7365 	strbtvc	r7, [fp], #-869	; 0x365
     890:	732f706f 	teqvc	pc, #111	; 0x6f
     894:	6f6f6863 	svcvs	0x006f6863
     898:	70532f6c 	subsvc	r2, r3, ip, ror #30
     89c:	676e6972 			; <UNDEFINED> instruction: 0x676e6972
     8a0:	30323931 	eorscc	r3, r2, r1, lsr r9
     8a4:	3253432f 	subscc	r4, r3, #-1140850688	; 0xbc000000
     8a8:	584c3034 	stmdapl	ip, {r2, r4, r5, ip, sp}^
     8ac:	3273632f 	rsbscc	r6, r3, #-1140850688	; 0xbc000000
     8b0:	786c3034 	stmdavc	ip!, {r2, r4, r5, ip, sp}^
     8b4:	7330322d 	teqvc	r0, #-805306366	; 0xd0000002
     8b8:	6c2f7270 	sfmvs	f7, 4, [pc], #-448	; 700 <__code_start__-0x7900>
     8bc:	69706269 	ldmdbvs	r0!, {r0, r3, r5, r6, r9, sp, lr}^
     8c0:	636e692f 	cmnvs	lr, #770048	; 0xbc000
     8c4:	6564756c 	strbvs	r7, [r4, #-1388]!	; 0x56c
     8c8:	6c630000 	stclvs	0, cr0, [r3], #-0
     8cc:	2d6e6165 	stfcse	f6, [lr, #-404]!	; 0xfffffe6c
     8d0:	6f626572 	svcvs	0x00626572
     8d4:	632e746f 	teqvs	lr, #1862270976	; 0x6f000000
     8d8:	00000100 	andeq	r0, r0, r0, lsl #2
     8dc:	2e697072 	mcrcs	0, 3, r7, cr9, cr2, {3}
     8e0:	00020068 	andeq	r0, r2, r8, rrx
     8e4:	05000000 	streq	r0, [r0, #-0]
     8e8:	008ef402 	addeq	pc, lr, r2, lsl #8
     8ec:	2f2f1500 	svccs	0x002f1500
     8f0:	06024b83 	streq	r4, [r2], -r3, lsl #23
     8f4:	a6010100 	strge	r0, [r1], -r0, lsl #2
     8f8:	02000000 	andeq	r0, r0, #0
     8fc:	00008000 	andeq	r8, r0, r0
     900:	fb010200 	blx	4110a <__bss_end__+0x3714a>
     904:	01000d0e 	tsteq	r0, lr, lsl #26
     908:	00010101 	andeq	r0, r1, r1, lsl #2
     90c:	00010000 	andeq	r0, r1, r0
     910:	74730100 	ldrbtvc	r0, [r3], #-256	; 0x100
     914:	2d666661 	stclcs	6, cr6, [r6, #-388]!	; 0xfffffe7c
     918:	00637273 	rsbeq	r7, r3, r3, ror r2
     91c:	6573552f 	ldrbvs	r5, [r3, #-1327]!	; 0x52f
     920:	622f7372 	eorvs	r7, pc, #-939524095	; 0xc8000001
     924:	6e616972 	mcrvs	9, 3, r6, cr1, cr2, {3}
     928:	2f6e756a 	svccs	0x006e756a
     92c:	6b736544 	blvs	1cd9e44 <__bss_end__+0x1ccfe84>
     930:	2f706f74 	svccs	0x00706f74
     934:	6f686373 	svcvs	0x00686373
     938:	532f6c6f 	teqpl	pc, #28416	; 0x6f00
     93c:	6e697270 	mcrvs	2, 3, r7, cr9, cr0, {3}
     940:	32393167 	eorscc	r3, r9, #-1073741799	; 0xc0000019
     944:	53432f30 	movtpl	r2, #16176	; 0x3f30
     948:	4c303432 	cfldrsmi	mvf3, [r0], #-200	; 0xffffff38
     94c:	73632f58 	cmnvc	r3, #88, 30	; 0x160
     950:	6c303432 	cfldrsvs	mvf3, [r0], #-200	; 0xffffff38
     954:	30322d78 	eorscc	r2, r2, r8, ror sp
     958:	2f727073 	svccs	0x00727073
     95c:	7062696c 	rsbvc	r6, r2, ip, ror #18
     960:	6e692f69 	cdpvs	15, 6, cr2, cr9, cr9, {3}
     964:	64756c63 	ldrbtvs	r6, [r5], #-3171	; 0xc63
     968:	63000065 	movwvs	r0, #101	; 0x65
     96c:	72617473 	rsbvc	r7, r1, #1929379840	; 0x73000000
     970:	00632e74 	rsbeq	r2, r3, r4, ror lr
     974:	72000001 	andvc	r0, r0, #1
     978:	682e6970 	stmdavs	lr!, {r4, r5, r6, r8, fp, sp, lr}
     97c:	00000200 	andeq	r0, r0, r0, lsl #4
     980:	02050000 	andeq	r0, r5, #0
     984:	00008f20 	andeq	r8, r0, r0, lsr #30
     988:	32010c03 	andcc	r0, r1, #768	; 0x300
     98c:	2f2d2f31 	svccs	0x002d2f31
     990:	01040200 	mrseq	r0, R12_usr
     994:	4a090349 	bmi	2416c0 <__bss_end__+0x237700>
     998:	2f2e0d03 	svccs	0x002e0d03
     99c:	01000602 	tsteq	r0, r2, lsl #12
     9a0:	0000a201 	andeq	sl, r0, r1, lsl #4
     9a4:	8e000200 	cdphi	2, 0, cr0, cr0, cr0, {0}
     9a8:	02000000 	andeq	r0, r0, #0
     9ac:	0d0efb01 	vstreq	d15, [lr, #-4]
     9b0:	01010100 	mrseq	r0, (UNDEF: 17)
     9b4:	00000001 	andeq	r0, r0, r1
     9b8:	01000001 	tsteq	r0, r1
     9bc:	66617473 			; <UNDEFINED> instruction: 0x66617473
     9c0:	72732d66 	rsbsvc	r2, r3, #6528	; 0x1980
     9c4:	552f0063 	strpl	r0, [pc, #-99]!	; 969 <__code_start__-0x7697>
     9c8:	73726573 	cmnvc	r2, #482344960	; 0x1cc00000
     9cc:	6972622f 	ldmdbvs	r2!, {r0, r1, r2, r3, r5, r9, sp, lr}^
     9d0:	756a6e61 	strbvc	r6, [sl, #-3681]!	; 0xe61
     9d4:	65442f6e 	strbvs	r2, [r4, #-3950]	; 0xf6e
     9d8:	6f746b73 	svcvs	0x00746b73
     9dc:	63732f70 	cmnvs	r3, #112, 30	; 0x1c0
     9e0:	6c6f6f68 	stclvs	15, cr6, [pc], #-416	; 848 <__code_start__-0x77b8>
     9e4:	7270532f 	rsbsvc	r5, r0, #-1140850688	; 0xbc000000
     9e8:	31676e69 	cmncc	r7, r9, ror #28
     9ec:	2f303239 	svccs	0x00303239
     9f0:	34325343 	ldrtcc	r5, [r2], #-835	; 0x343
     9f4:	2f584c30 	svccs	0x00584c30
     9f8:	34327363 	ldrtcc	r7, [r2], #-867	; 0x363
     9fc:	2d786c30 	ldclcs	12, cr6, [r8, #-192]!	; 0xffffff40
     a00:	70733032 	rsbsvc	r3, r3, r2, lsr r0
     a04:	696c2f72 	stmdbvs	ip!, {r1, r4, r5, r6, r8, r9, sl, fp, sp}^
     a08:	2f697062 	svccs	0x00697062
     a0c:	6c636e69 	stclvs	14, cr6, [r3], #-420	; 0xfffffe5c
     a10:	00656475 	rsbeq	r6, r5, r5, ror r4
     a14:	66656400 	strbtvs	r6, [r5], -r0, lsl #8
     a18:	746c7561 	strbtvc	r7, [ip], #-1377	; 0x561
     a1c:	6e61682d 	cdpvs	8, 6, cr6, cr1, cr13, {1}
     a20:	72656c64 	rsbvc	r6, r5, #100, 24	; 0x6400
     a24:	7361662d 	cmnvc	r1, #47185920	; 0x2d00000
     a28:	00632e74 	rsbeq	r2, r3, r4, ror lr
     a2c:	72000001 	andvc	r0, r0, #1
     a30:	682e6970 	stmdavs	lr!, {r4, r5, r6, r8, fp, sp, lr}
     a34:	00000200 	andeq	r0, r0, r0, lsl #4
     a38:	02050000 	andeq	r0, r5, #0
     a3c:	00008f58 	andeq	r8, r0, r8, asr pc
     a40:	1c026613 	stcne	6, cr6, [r2], {19}
     a44:	a3010100 	movwge	r0, #4352	; 0x1100
     a48:	02000000 	andeq	r0, r0, #0
     a4c:	00008f00 	andeq	r8, r0, r0, lsl #30
     a50:	fb010200 	blx	4125a <__bss_end__+0x3729a>
     a54:	01000d0e 	tsteq	r0, lr, lsl #26
     a58:	00010101 	andeq	r0, r1, r1, lsl #2
     a5c:	00010000 	andeq	r0, r1, r0
     a60:	74730100 	ldrbtvc	r0, [r3], #-256	; 0x100
     a64:	2d666661 	stclcs	6, cr6, [r6, #-388]!	; 0xfffffe7c
     a68:	00637273 	rsbeq	r7, r3, r3, ror r2
     a6c:	6573552f 	ldrbvs	r5, [r3, #-1327]!	; 0x52f
     a70:	622f7372 	eorvs	r7, pc, #-939524095	; 0xc8000001
     a74:	6e616972 	mcrvs	9, 3, r6, cr1, cr2, {3}
     a78:	2f6e756a 	svccs	0x006e756a
     a7c:	6b736544 	blvs	1cd9f94 <__bss_end__+0x1ccffd4>
     a80:	2f706f74 	svccs	0x00706f74
     a84:	6f686373 	svcvs	0x00686373
     a88:	532f6c6f 	teqpl	pc, #28416	; 0x6f00
     a8c:	6e697270 	mcrvs	2, 3, r7, cr9, cr0, {3}
     a90:	32393167 	eorscc	r3, r9, #-1073741799	; 0xc0000019
     a94:	53432f30 	movtpl	r2, #16176	; 0x3f30
     a98:	4c303432 	cfldrsmi	mvf3, [r0], #-200	; 0xffffff38
     a9c:	73632f58 	cmnvc	r3, #88, 30	; 0x160
     aa0:	6c303432 	cfldrsvs	mvf3, [r0], #-200	; 0xffffff38
     aa4:	30322d78 	eorscc	r2, r2, r8, ror sp
     aa8:	2f727073 	svccs	0x00727073
     aac:	7062696c 	rsbvc	r6, r2, ip, ror #18
     ab0:	6e692f69 	cdpvs	15, 6, cr2, cr9, cr9, {3}
     ab4:	64756c63 	ldrbtvs	r6, [r5], #-3171	; 0xc63
     ab8:	64000065 	strvs	r0, [r0], #-101	; 0x65
     abc:	75616665 	strbvc	r6, [r1, #-1637]!	; 0x665
     ac0:	682d746c 	stmdavs	sp!, {r2, r3, r5, r6, sl, ip, sp, lr}
     ac4:	6c646e61 	stclvs	14, cr6, [r4], #-388	; 0xfffffe7c
     ac8:	722d7265 	eorvc	r7, sp, #1342177286	; 0x50000006
     acc:	74657365 	strbtvc	r7, [r5], #-869	; 0x365
     ad0:	0100632e 	tsteq	r0, lr, lsr #6
     ad4:	70720000 	rsbsvc	r0, r2, r0
     ad8:	00682e69 	rsbeq	r2, r8, r9, ror #28
     adc:	00000002 	andeq	r0, r0, r2
     ae0:	9c020500 	cfstr32ls	mvfx0, [r2], {-0}
     ae4:	1300008f 	movwne	r0, #143	; 0x8f
     ae8:	001c0266 	andseq	r0, ip, r6, ror #4
     aec:	00a10101 	adceq	r0, r1, r1, lsl #2
     af0:	00020000 	andeq	r0, r2, r0
     af4:	0000008d 	andeq	r0, r0, sp, lsl #1
     af8:	0efb0102 	cdpeq	1, 15, cr0, cr11, cr2, {0}
     afc:	0101000d 	tsteq	r1, sp
     b00:	00000101 	andeq	r0, r0, r1, lsl #2
     b04:	00000100 	andeq	r0, r0, r0, lsl #2
     b08:	61747301 	cmnvs	r4, r1, lsl #6
     b0c:	732d6666 	teqvc	sp, #106954752	; 0x6600000
     b10:	2f006372 	svccs	0x00006372
     b14:	72657355 	rsbvc	r7, r5, #1409286145	; 0x54000001
     b18:	72622f73 	rsbvc	r2, r2, #460	; 0x1cc
     b1c:	6a6e6169 	bvs	1b990c8 <__bss_end__+0x1b8f108>
     b20:	442f6e75 	strtmi	r6, [pc], #-3701	; b28 <__code_start__-0x74d8>
     b24:	746b7365 	strbtvc	r7, [fp], #-869	; 0x365
     b28:	732f706f 	teqvc	pc, #111	; 0x6f
     b2c:	6f6f6863 	svcvs	0x006f6863
     b30:	70532f6c 	subsvc	r2, r3, ip, ror #30
     b34:	676e6972 			; <UNDEFINED> instruction: 0x676e6972
     b38:	30323931 	eorscc	r3, r2, r1, lsr r9
     b3c:	3253432f 	subscc	r4, r3, #-1140850688	; 0xbc000000
     b40:	584c3034 	stmdapl	ip, {r2, r4, r5, ip, sp}^
     b44:	3273632f 	rsbscc	r6, r3, #-1140850688	; 0xbc000000
     b48:	786c3034 	stmdavc	ip!, {r2, r4, r5, ip, sp}^
     b4c:	7330322d 	teqvc	r0, #-805306366	; 0xd0000002
     b50:	6c2f7270 	sfmvs	f7, 4, [pc], #-448	; 998 <__code_start__-0x7668>
     b54:	69706269 	ldmdbvs	r0!, {r0, r3, r5, r6, r9, sp, lr}^
     b58:	636e692f 	cmnvs	lr, #770048	; 0xbc000
     b5c:	6564756c 	strbvs	r7, [r4, #-1388]!	; 0x56c
     b60:	65640000 	strbvs	r0, [r4, #-0]!
     b64:	6c756166 	ldfvse	f6, [r5], #-408	; 0xfffffe68
     b68:	61682d74 	smcvs	33492	; 0x82d4
     b6c:	656c646e 	strbvs	r6, [ip, #-1134]!	; 0x46e
     b70:	77732d72 			; <UNDEFINED> instruction: 0x77732d72
     b74:	00632e69 	rsbeq	r2, r3, r9, ror #28
     b78:	72000001 	andvc	r0, r0, #1
     b7c:	682e6970 	stmdavs	lr!, {r4, r5, r6, r8, fp, sp, lr}
     b80:	00000200 	andeq	r0, r0, r0, lsl #4
     b84:	02050000 	andeq	r0, r5, #0
     b88:	00008fe0 	andeq	r8, r0, r0, ror #31
     b8c:	1c026613 	stcne	6, cr6, [r2], {19}
     b90:	ac010100 	stfges	f0, [r1], {-0}
     b94:	02000000 	andeq	r0, r0, #0
     b98:	00009800 	andeq	r9, r0, r0, lsl #16
     b9c:	fb010200 	blx	413a6 <__bss_end__+0x373e6>
     ba0:	01000d0e 	tsteq	r0, lr, lsl #26
     ba4:	00010101 	andeq	r0, r1, r1, lsl #2
     ba8:	00010000 	andeq	r0, r1, r0
     bac:	74730100 	ldrbtvc	r0, [r3], #-256	; 0x100
     bb0:	2d666661 	stclcs	6, cr6, [r6, #-388]!	; 0xfffffe7c
     bb4:	00637273 	rsbeq	r7, r3, r3, ror r2
     bb8:	6573552f 	ldrbvs	r5, [r3, #-1327]!	; 0x52f
     bbc:	622f7372 	eorvs	r7, pc, #-939524095	; 0xc8000001
     bc0:	6e616972 	mcrvs	9, 3, r6, cr1, cr2, {3}
     bc4:	2f6e756a 	svccs	0x006e756a
     bc8:	6b736544 	blvs	1cda0e0 <__bss_end__+0x1cd0120>
     bcc:	2f706f74 	svccs	0x00706f74
     bd0:	6f686373 	svcvs	0x00686373
     bd4:	532f6c6f 	teqpl	pc, #28416	; 0x6f00
     bd8:	6e697270 	mcrvs	2, 3, r7, cr9, cr0, {3}
     bdc:	32393167 	eorscc	r3, r9, #-1073741799	; 0xc0000019
     be0:	53432f30 	movtpl	r2, #16176	; 0x3f30
     be4:	4c303432 	cfldrsmi	mvf3, [r0], #-200	; 0xffffff38
     be8:	73632f58 	cmnvc	r3, #88, 30	; 0x160
     bec:	6c303432 	cfldrsvs	mvf3, [r0], #-200	; 0xffffff38
     bf0:	30322d78 	eorscc	r2, r2, r8, ror sp
     bf4:	2f727073 	svccs	0x00727073
     bf8:	7062696c 	rsbvc	r6, r2, ip, ror #18
     bfc:	6e692f69 	cdpvs	15, 6, cr2, cr9, cr9, {3}
     c00:	64756c63 	ldrbtvs	r6, [r5], #-3171	; 0xc63
     c04:	64000065 	strvs	r0, [r0], #-101	; 0x65
     c08:	75616665 	strbvc	r6, [r1, #-1637]!	; 0x665
     c0c:	682d746c 	stmdavs	sp!, {r2, r3, r5, r6, sl, ip, sp, lr}
     c10:	6c646e61 	stclvs	14, cr6, [r4], #-388	; 0xfffffe7c
     c14:	752d7265 	strvc	r7, [sp, #-613]!	; 0x265
     c18:	6665646e 	strbtvs	r6, [r5], -lr, ror #8
     c1c:	64656e69 	strbtvs	r6, [r5], #-3689	; 0xe69
     c20:	736e692d 	cmnvc	lr, #737280	; 0xb4000
     c24:	00632e74 	rsbeq	r2, r3, r4, ror lr
     c28:	72000001 	andvc	r0, r0, #1
     c2c:	682e6970 	stmdavs	lr!, {r4, r5, r6, r8, fp, sp, lr}
     c30:	00000200 	andeq	r0, r0, r0, lsl #4
     c34:	02050000 	andeq	r0, r5, #0
     c38:	00009024 	andeq	r9, r0, r4, lsr #32
     c3c:	1c026613 	stcne	6, cr6, [r2], {19}
     c40:	47010100 	strmi	r0, [r1, -r0, lsl #2]
     c44:	02000000 	andeq	r0, r0, #0
     c48:	00003300 	andeq	r3, r0, r0, lsl #6
     c4c:	fb010200 	blx	41456 <__bss_end__+0x37496>
     c50:	01000d0e 	tsteq	r0, lr, lsl #26
     c54:	00010101 	andeq	r0, r1, r1, lsl #2
     c58:	00010000 	andeq	r0, r1, r0
     c5c:	74730100 	ldrbtvc	r0, [r3], #-256	; 0x100
     c60:	2d666661 	stclcs	6, cr6, [r6, #-388]!	; 0xfffffe7c
     c64:	00637273 	rsbeq	r7, r3, r3, ror r2
     c68:	66656400 	strbtvs	r6, [r5], -r0, lsl #8
     c6c:	746c7561 	strbtvc	r7, [ip], #-1377	; 0x561
     c70:	6e61682d 	cdpvs	8, 6, cr6, cr1, cr13, {1}
     c74:	72656c64 	rsbvc	r6, r5, #100, 24	; 0x6400
     c78:	00632e73 	rsbeq	r2, r3, r3, ror lr
     c7c:	00000001 	andeq	r0, r0, r1
     c80:	68020500 	stmdavs	r2, {r8, sl}
     c84:	15000090 	strne	r0, [r0, #-144]	; 0x90
     c88:	0002022f 	andeq	r0, r2, pc, lsr #4
     c8c:	00c90101 	sbceq	r0, r9, r1, lsl #2
     c90:	00020000 	andeq	r0, r2, r0
     c94:	0000009a 	muleq	r0, sl, r0
     c98:	0efb0102 	cdpeq	1, 15, cr0, cr11, cr2, {0}
     c9c:	0101000d 	tsteq	r1, sp
     ca0:	00000101 	andeq	r0, r0, r1, lsl #2
     ca4:	00000100 	andeq	r0, r0, r0, lsl #2
     ca8:	61747301 	cmnvs	r4, r1, lsl #6
     cac:	732d6666 	teqvc	sp, #106954752	; 0x6600000
     cb0:	2f006372 	svccs	0x00006372
     cb4:	72657355 	rsbvc	r7, r5, #1409286145	; 0x54000001
     cb8:	72622f73 	rsbvc	r2, r2, #460	; 0x1cc
     cbc:	6a6e6169 	bvs	1b99268 <__bss_end__+0x1b8f2a8>
     cc0:	442f6e75 	strtmi	r6, [pc], #-3701	; cc8 <__code_start__-0x7338>
     cc4:	746b7365 	strbtvc	r7, [fp], #-869	; 0x365
     cc8:	732f706f 	teqvc	pc, #111	; 0x6f
     ccc:	6f6f6863 	svcvs	0x006f6863
     cd0:	70532f6c 	subsvc	r2, r3, ip, ror #30
     cd4:	676e6972 			; <UNDEFINED> instruction: 0x676e6972
     cd8:	30323931 	eorscc	r3, r2, r1, lsr r9
     cdc:	3253432f 	subscc	r4, r3, #-1140850688	; 0xbc000000
     ce0:	584c3034 	stmdapl	ip, {r2, r4, r5, ip, sp}^
     ce4:	3273632f 	rsbscc	r6, r3, #-1140850688	; 0xbc000000
     ce8:	786c3034 	stmdavc	ip!, {r2, r4, r5, ip, sp}^
     cec:	7330322d 	teqvc	r0, #-805306366	; 0xd0000002
     cf0:	6c2f7270 	sfmvs	f7, 4, [pc], #-448	; b38 <__code_start__-0x74c8>
     cf4:	69706269 	ldmdbvs	r0!, {r0, r3, r5, r6, r9, sp, lr}^
     cf8:	636e692f 	cmnvs	lr, #770048	; 0xbc000
     cfc:	6564756c 	strbvs	r7, [r4, #-1388]!	; 0x56c
     d00:	6e690000 	cdpvs	0, 6, cr0, cr9, cr0, {0}
     d04:	72726574 	rsbsvc	r6, r2, #116, 10	; 0x1d000000
     d08:	73747075 	cmnvc	r4, #117	; 0x75
     d0c:	632e632d 	teqvs	lr, #-1275068416	; 0xb4000000
     d10:	00000100 	andeq	r0, r0, r0, lsl #2
     d14:	2d697072 	stclcs	0, cr7, [r9, #-456]!	; 0xfffffe38
     d18:	65746e69 	ldrbvs	r6, [r4, #-3689]!	; 0xe69
     d1c:	70757272 	rsbsvc	r7, r5, r2, ror r2
     d20:	682e7374 	stmdavs	lr!, {r2, r4, r5, r6, r8, r9, ip, sp, lr}
     d24:	00000200 	andeq	r0, r0, r0, lsl #4
     d28:	2e697072 	mcrcs	0, 3, r7, cr9, cr2, {3}
     d2c:	00020068 	andeq	r0, r2, r8, rrx
     d30:	05000000 	streq	r0, [r0, #-0]
     d34:	00907002 	addseq	r7, r0, r2
     d38:	011a0300 	tsteq	sl, r0, lsl #6
     d3c:	67672f31 			; <UNDEFINED> instruction: 0x67672f31
     d40:	2d2f8336 	stccs	3, cr8, [pc, #-216]!	; c70 <__code_start__-0x7390>
     d44:	02040200 	andeq	r0, r4, #0, 4
     d48:	0402002f 	streq	r0, [r2], #-47	; 0x2f
     d4c:	02006502 	andeq	r6, r0, #8388608	; 0x800000
     d50:	2e060104 	adfcss	f0, f6, f4
     d54:	0a024c06 	beq	93d74 <__bss_end__+0x89db4>
     d58:	a2010100 	andge	r0, r1, #0, 2
     d5c:	02000000 	andeq	r0, r0, #0
     d60:	00008000 	andeq	r8, r0, r0
     d64:	fb010200 	blx	4156e <__bss_end__+0x375ae>
     d68:	01000d0e 	tsteq	r0, lr, lsl #26
     d6c:	00010101 	andeq	r0, r1, r1, lsl #2
     d70:	00010000 	andeq	r0, r1, r0
     d74:	74730100 	ldrbtvc	r0, [r3], #-256	; 0x100
     d78:	2d666661 	stclcs	6, cr6, [r6, #-388]!	; 0xfffffe7c
     d7c:	00637273 	rsbeq	r7, r3, r3, ror r2
     d80:	6573552f 	ldrbvs	r5, [r3, #-1327]!	; 0x52f
     d84:	622f7372 	eorvs	r7, pc, #-939524095	; 0xc8000001
     d88:	6e616972 	mcrvs	9, 3, r6, cr1, cr2, {3}
     d8c:	2f6e756a 	svccs	0x006e756a
     d90:	6b736544 	blvs	1cda2a8 <__bss_end__+0x1cd02e8>
     d94:	2f706f74 	svccs	0x00706f74
     d98:	6f686373 	svcvs	0x00686373
     d9c:	532f6c6f 	teqpl	pc, #28416	; 0x6f00
     da0:	6e697270 	mcrvs	2, 3, r7, cr9, cr0, {3}
     da4:	32393167 	eorscc	r3, r9, #-1073741799	; 0xc0000019
     da8:	53432f30 	movtpl	r2, #16176	; 0x3f30
     dac:	4c303432 	cfldrsmi	mvf3, [r0], #-200	; 0xffffff38
     db0:	73632f58 	cmnvc	r3, #88, 30	; 0x160
     db4:	6c303432 	cfldrsvs	mvf3, [r0], #-200	; 0xffffff38
     db8:	30322d78 	eorscc	r2, r2, r8, ror sp
     dbc:	2f727073 	svccs	0x00727073
     dc0:	7062696c 	rsbvc	r6, r2, ip, ror #18
     dc4:	6e692f69 	cdpvs	15, 6, cr2, cr9, cr9, {3}
     dc8:	64756c63 	ldrbtvs	r6, [r5], #-3171	; 0xc63
     dcc:	72000065 	andvc	r0, r0, #101	; 0x65
     dd0:	6f6f6265 	svcvs	0x006f6265
     dd4:	00632e74 	rsbeq	r2, r3, r4, ror lr
     dd8:	72000001 	andvc	r0, r0, #1
     ddc:	682e6970 	stmdavs	lr!, {r4, r5, r6, r8, fp, sp, lr}
     de0:	00000200 	andeq	r0, r0, r0, lsl #4
     de4:	02050000 	andeq	r0, r5, #0
     de8:	000090dc 	ldrdeq	r9, [r0], -ip
     dec:	14010d03 	strne	r0, [r1], #-3331	; 0xd03
     df0:	15852f31 	strne	r2, [r5, #3889]	; 0xf31
     df4:	2f4d4b2f 	svccs	0x004d4b2f
     df8:	67523567 	ldrbvs	r3, [r2, -r7, ror #10]
     dfc:	01001002 	tsteq	r0, r2
     e00:	0000ae01 	andeq	sl, r0, r1, lsl #28
     e04:	7f000200 	svcvc	0x00000200
     e08:	02000000 	andeq	r0, r0, #0
     e0c:	0d0efb01 	vstreq	d15, [lr, #-4]
     e10:	01010100 	mrseq	r0, (UNDEF: 17)
     e14:	00000001 	andeq	r0, r0, r1
     e18:	01000001 	tsteq	r0, r1
     e1c:	66617473 			; <UNDEFINED> instruction: 0x66617473
     e20:	72732d66 	rsbsvc	r2, r3, #6528	; 0x1980
     e24:	552f0063 	strpl	r0, [pc, #-99]!	; dc9 <__code_start__-0x7237>
     e28:	73726573 	cmnvc	r2, #482344960	; 0x1cc00000
     e2c:	6972622f 	ldmdbvs	r2!, {r0, r1, r2, r3, r5, r9, sp, lr}^
     e30:	756a6e61 	strbvc	r6, [sl, #-3681]!	; 0xe61
     e34:	65442f6e 	strbvs	r2, [r4, #-3950]	; 0xf6e
     e38:	6f746b73 	svcvs	0x00746b73
     e3c:	63732f70 	cmnvs	r3, #112, 30	; 0x1c0
     e40:	6c6f6f68 	stclvs	15, cr6, [pc], #-416	; ca8 <__code_start__-0x7358>
     e44:	7270532f 	rsbsvc	r5, r0, #-1140850688	; 0xbc000000
     e48:	31676e69 	cmncc	r7, r9, ror #28
     e4c:	2f303239 	svccs	0x00303239
     e50:	34325343 	ldrtcc	r5, [r2], #-835	; 0x343
     e54:	2f584c30 	svccs	0x00584c30
     e58:	34327363 	ldrtcc	r7, [r2], #-867	; 0x363
     e5c:	2d786c30 	ldclcs	12, cr6, [r8, #-192]!	; 0xffffff40
     e60:	70733032 	rsbsvc	r3, r3, r2, lsr r0
     e64:	696c2f72 	stmdbvs	ip!, {r1, r4, r5, r6, r8, r9, sl, fp, sp}^
     e68:	2f697062 	svccs	0x00697062
     e6c:	6c636e69 	stclvs	14, cr6, [r3], #-420	; 0xfffffe5c
     e70:	00656475 	rsbeq	r6, r5, r5, ror r4
     e74:	6d697400 	cfstrdvs	mvd7, [r9, #-0]
     e78:	632e7265 	teqvs	lr, #1342177286	; 0x50000006
     e7c:	00000100 	andeq	r0, r0, r0, lsl #2
     e80:	2e697072 	mcrcs	0, 3, r7, cr9, cr2, {3}
     e84:	00020068 	andeq	r0, r2, r8, rrx
     e88:	05000000 	streq	r0, [r0, #-0]
     e8c:	00915002 	addseq	r5, r1, r2
     e90:	2f141600 	svccs	0x00141600
     e94:	0402002d 	streq	r0, [r2], #-45	; 0x2d
     e98:	062e0601 	strteq	r0, [lr], -r1, lsl #12
     e9c:	4b2f316d 	blmi	bcd458 <__bss_end__+0xbc3498>
     ea0:	4b2f314d 	blmi	bcd3dc <__bss_end__+0xbc341c>
     ea4:	4c4b4c30 	mcrrmi	12, 3, r4, fp, cr0
     ea8:	2f2f6a2f 	svccs	0x002f6a2f
     eac:	08022f84 	stmdaeq	r2, {r2, r7, r8, r9, sl, fp, sp}
     eb0:	48010100 	stmdami	r1, {r8}
     eb4:	02000001 	andeq	r0, r0, #1
     eb8:	00010200 	andeq	r0, r1, r0, lsl #4
     ebc:	fb010200 	blx	416c6 <__bss_end__+0x37706>
     ec0:	01000d0e 	tsteq	r0, lr, lsl #26
     ec4:	00010101 	andeq	r0, r1, r1, lsl #2
     ec8:	00010000 	andeq	r0, r1, r0
     ecc:	752f0100 	strvc	r0, [pc, #-256]!	; dd4 <__code_start__-0x722c>
     ed0:	692f7273 	stmdbvs	pc!, {r0, r1, r4, r5, r6, r9, ip, sp, lr}	; <UNPREDICTABLE>
     ed4:	756c636e 	strbvc	r6, [ip, #-878]!	; 0x36e
     ed8:	6e2f6564 	cfsh64vs	mvdx6, mvdx15, #52
     edc:	696c7765 	stmdbvs	ip!, {r0, r2, r5, r6, r8, r9, sl, ip, sp, lr}^
     ee0:	79732f62 	ldmdbvc	r3!, {r1, r5, r6, r8, r9, sl, fp, sp}^
     ee4:	752f0073 	strvc	r0, [pc, #-115]!	; e79 <__code_start__-0x7187>
     ee8:	6c2f7273 	sfmvs	f7, 4, [pc], #-460	; d24 <__code_start__-0x72dc>
     eec:	672f6269 	strvs	r6, [pc, -r9, ror #4]!
     ef0:	612f6363 	teqvs	pc, r3, ror #6
     ef4:	6e2d6d72 	mcrvs	13, 1, r6, cr13, cr2, {3}
     ef8:	2d656e6f 	stclcs	14, cr6, [r5, #-444]!	; 0xfffffe44
     efc:	69626165 	stmdbvs	r2!, {r0, r2, r5, r6, r8, sp, lr}^
     f00:	332e362f 	teqcc	lr, #49283072	; 0x2f00000
     f04:	692f312e 	stmdbvs	pc!, {r1, r2, r3, r5, r8, ip, sp}	; <UNPREDICTABLE>
     f08:	756c636e 	strbvc	r6, [ip, #-878]!	; 0x36e
     f0c:	2f006564 	svccs	0x00006564
     f10:	656d6f68 	strbvs	r6, [sp, #-3944]!	; 0xf68
     f14:	676e652f 	strbvs	r6, [lr, -pc, lsr #10]!
     f18:	2f72656c 	svccs	0x0072656c
     f1c:	73616c63 	cmnvc	r1, #25344	; 0x6300
     f20:	73632f73 	cmnvc	r3, #460	; 0x1cc
     f24:	6c303432 	cfldrsvs	mvf3, [r0], #-200	; 0xffffff38
     f28:	30322d78 	eorscc	r2, r2, r8, ror sp
     f2c:	2f727073 	svccs	0x00727073
     f30:	62696c2f 	rsbvs	r6, r9, #12032	; 0x2f00
     f34:	2f006970 	svccs	0x00006970
     f38:	656d6f68 	strbvs	r6, [sp, #-3944]!	; 0xf68
     f3c:	676e652f 	strbvs	r6, [lr, -pc, lsr #10]!
     f40:	2f72656c 	svccs	0x0072656c
     f44:	73616c63 	cmnvc	r1, #25344	; 0x6300
     f48:	73632f73 	cmnvc	r3, #460	; 0x1cc
     f4c:	6c303432 	cfldrsvs	mvf3, [r0], #-200	; 0xffffff38
     f50:	30322d78 	eorscc	r2, r2, r8, ror sp
     f54:	2f727073 	svccs	0x00727073
     f58:	62696c2f 	rsbvs	r6, r9, #12032	; 0x2f00
     f5c:	732f6970 	teqvc	pc, #112, 18	; 0x1c0000
     f60:	66666174 			; <UNDEFINED> instruction: 0x66666174
     f64:	6372732d 	cmnvs	r2, #-1275068416	; 0xb4000000
     f68:	61750000 	cmnvs	r5, r0
     f6c:	632e7472 	teqvs	lr, #1912602624	; 0x72000000
     f70:	00000000 	andeq	r0, r0, r0
     f74:	6b636f6c 	blvs	18dcd2c <__bss_end__+0x18d2d6c>
     f78:	0100682e 	tsteq	r0, lr, lsr #16
     f7c:	745f0000 	ldrbvc	r0, [pc], #-0	; f84 <__code_start__-0x707c>
     f80:	73657079 	cmnvc	r5, #121	; 0x79
     f84:	0100682e 	tsteq	r0, lr, lsr #16
     f88:	74730000 	ldrbtvc	r0, [r3], #-0
     f8c:	66656464 	strbtvs	r6, [r5], -r4, ror #8
     f90:	0200682e 	andeq	r6, r0, #3014656	; 0x2e0000
     f94:	65720000 	ldrbvs	r0, [r2, #-0]!
     f98:	2e746e65 	cdpcs	14, 7, cr6, cr4, cr5, {3}
     f9c:	00010068 	andeq	r0, r1, r8, rrx
     fa0:	69707200 	ldmdbvs	r0!, {r9, ip, sp, lr}^
     fa4:	0300682e 	movweq	r6, #2094	; 0x82e
     fa8:	61750000 	cmnvs	r5, r0
     fac:	682e7472 	stmdavs	lr!, {r1, r4, r5, r6, sl, ip, sp, lr}
     fb0:	00000400 	andeq	r0, r0, r0, lsl #8
     fb4:	6f697067 	svcvs	0x00697067
     fb8:	0400682e 	streq	r6, [r0], #-2094	; 0x82e
     fbc:	00000000 	andeq	r0, r0, r0
     fc0:	924c0205 	subls	r0, ip, #1342177280	; 0x50000000
     fc4:	2c030000 	stccs	0, cr0, [r3], {-0}
     fc8:	0c036701 	stceq	7, cr6, [r3], {1}
     fcc:	6867359e 	stmdavs	r7!, {r1, r2, r3, r4, r7, r8, sl, ip, sp}^
     fd0:	0c036835 	stceq	8, cr6, [r3], {53}	; 0x35
     fd4:	696b852e 	stmdbvs	fp!, {r1, r2, r3, r5, r8, sl, pc}^
     fd8:	660c0369 	strvs	r0, [ip], -r9, ror #6
     fdc:	4208676b 	andmi	r6, r8, #28049408	; 0x1ac0000
     fe0:	364b6834 			; <UNDEFINED> instruction: 0x364b6834
     fe4:	002f8768 	eoreq	r8, pc, r8, ror #14
     fe8:	2f010402 	svccs	0x00010402
     fec:	67306768 	ldrvs	r6, [r0, -r8, ror #14]!
     ff0:	0402004b 	streq	r0, [r2], #-75	; 0x4b
     ff4:	67682f01 	strbvs	r2, [r8, -r1, lsl #30]!
     ff8:	06022e69 	streq	r2, [r2], -r9, ror #28
     ffc:	2b010100 	blcs	41404 <__bss_end__+0x37444>
    1000:	02000001 	andeq	r0, r0, #1
    1004:	0000f800 	andeq	pc, r0, r0, lsl #16
    1008:	fb010200 	blx	41812 <__bss_end__+0x37852>
    100c:	01000d0e 	tsteq	r0, lr, lsl #26
    1010:	00010101 	andeq	r0, r1, r1, lsl #2
    1014:	00010000 	andeq	r0, r1, r0
    1018:	752f0100 	strvc	r0, [pc, #-256]!	; f20 <__code_start__-0x70e0>
    101c:	692f7273 	stmdbvs	pc!, {r0, r1, r4, r5, r6, r9, ip, sp, lr}	; <UNPREDICTABLE>
    1020:	756c636e 	strbvc	r6, [ip, #-878]!	; 0x36e
    1024:	6e2f6564 	cfsh64vs	mvdx6, mvdx15, #52
    1028:	696c7765 	stmdbvs	ip!, {r0, r2, r5, r6, r8, r9, sl, ip, sp, lr}^
    102c:	79732f62 	ldmdbvc	r3!, {r1, r5, r6, r8, r9, sl, fp, sp}^
    1030:	752f0073 	strvc	r0, [pc, #-115]!	; fc5 <__code_start__-0x703b>
    1034:	6c2f7273 	sfmvs	f7, 4, [pc], #-460	; e70 <__code_start__-0x7190>
    1038:	672f6269 	strvs	r6, [pc, -r9, ror #4]!
    103c:	612f6363 	teqvs	pc, r3, ror #6
    1040:	6e2d6d72 	mcrvs	13, 1, r6, cr13, cr2, {3}
    1044:	2d656e6f 	stclcs	14, cr6, [r5, #-444]!	; 0xfffffe44
    1048:	69626165 	stmdbvs	r2!, {r0, r2, r5, r6, r8, sp, lr}^
    104c:	332e362f 	teqcc	lr, #49283072	; 0x2f00000
    1050:	692f312e 	stmdbvs	pc!, {r1, r2, r3, r5, r8, ip, sp}	; <UNPREDICTABLE>
    1054:	756c636e 	strbvc	r6, [ip, #-878]!	; 0x36e
    1058:	2f006564 	svccs	0x00006564
    105c:	656d6f68 	strbvs	r6, [sp, #-3944]!	; 0xf68
    1060:	676e652f 	strbvs	r6, [lr, -pc, lsr #10]!
    1064:	2f72656c 	svccs	0x0072656c
    1068:	73616c63 	cmnvc	r1, #25344	; 0x6300
    106c:	73632f73 	cmnvc	r3, #460	; 0x1cc
    1070:	6c303432 	cfldrsvs	mvf3, [r0], #-200	; 0xffffff38
    1074:	30322d78 	eorscc	r2, r2, r8, ror sp
    1078:	2f727073 	svccs	0x00727073
    107c:	62696c2f 	rsbvs	r6, r9, #12032	; 0x2f00
    1080:	2f006970 	svccs	0x00006970
    1084:	656d6f68 	strbvs	r6, [sp, #-3944]!	; 0xf68
    1088:	676e652f 	strbvs	r6, [lr, -pc, lsr #10]!
    108c:	2f72656c 	svccs	0x0072656c
    1090:	73616c63 	cmnvc	r1, #25344	; 0x6300
    1094:	73632f73 	cmnvc	r3, #460	; 0x1cc
    1098:	6c303432 	cfldrsvs	mvf3, [r0], #-200	; 0xffffff38
    109c:	30322d78 	eorscc	r2, r2, r8, ror sp
    10a0:	2f727073 	svccs	0x00727073
    10a4:	62696c2f 	rsbvs	r6, r9, #12032	; 0x2f00
    10a8:	732f6970 	teqvc	pc, #112, 18	; 0x1c0000
    10ac:	66666174 			; <UNDEFINED> instruction: 0x66666174
    10b0:	6372732d 	cmnvs	r2, #-1275068416	; 0xb4000000
    10b4:	70670000 	rsbvc	r0, r7, r0
    10b8:	632e6f69 	teqvs	lr, #420	; 0x1a4
    10bc:	00000000 	andeq	r0, r0, r0
    10c0:	6b636f6c 	blvs	18dce78 <__bss_end__+0x18d2eb8>
    10c4:	0100682e 	tsteq	r0, lr, lsr #16
    10c8:	745f0000 	ldrbvc	r0, [pc], #-0	; 10d0 <__code_start__-0x6f30>
    10cc:	73657079 	cmnvc	r5, #121	; 0x79
    10d0:	0100682e 	tsteq	r0, lr, lsr #16
    10d4:	74730000 	ldrbtvc	r0, [r3], #-0
    10d8:	66656464 	strbtvs	r6, [r5], -r4, ror #8
    10dc:	0200682e 	andeq	r6, r0, #3014656	; 0x2e0000
    10e0:	65720000 	ldrbvs	r0, [r2, #-0]!
    10e4:	2e746e65 	cdpcs	14, 7, cr6, cr4, cr5, {3}
    10e8:	00010068 	andeq	r0, r1, r8, rrx
    10ec:	69707200 	ldmdbvs	r0!, {r9, ip, sp, lr}^
    10f0:	0300682e 	movweq	r6, #2094	; 0x82e
    10f4:	70670000 	rsbvc	r0, r7, r0
    10f8:	682e6f69 	stmdavs	lr!, {r0, r3, r5, r6, r8, r9, sl, fp, sp, lr}
    10fc:	00000400 	andeq	r0, r0, r0, lsl #8
    1100:	02050000 	andeq	r0, r5, #0
    1104:	000093c4 	andeq	r9, r0, r4, asr #7
    1108:	13012703 	movwne	r2, #5891	; 0x1703
    110c:	f44f474c 	vst1.16	{d20}, [pc], ip
    1110:	a14c4b68 	cmpge	ip, r8, ror #22
    1114:	49136a2f 	ldmdbmi	r3, {r0, r1, r2, r3, r5, r9, fp, sp, lr}
    1118:	4913be31 	ldmdbmi	r3, {r0, r4, r5, r9, sl, fp, ip, sp, pc}
    111c:	6a2fbe31 	bvs	bf09e8 <__bss_end__+0xbe6a28>
    1120:	4f484d2f 	svcmi	0x00484d2f
    1124:	2f324913 	svccs	0x00324913
    1128:	000602b7 			; <UNDEFINED> instruction: 0x000602b7
    112c:	Address 0x000000000000112c is out of bounds.


Disassembly of section .debug_str:

00000000 <.debug_str>:
   0:	65646f6d 	strbvs	r6, [r4, #-3949]!	; 0xf6d
   4:	7465675f 	strbtvc	r6, [r5], #-1887	; 0x75f
   8:	6b726200 	blvs	1c98810 <__bss_end__+0x1c8e850>
   c:	6d5f7470 	cfldrdvs	mvd7, [pc, #-448]	; fffffe54 <__bss_end__+0xffff5e94>
  10:	616d7369 	cmnvs	sp, r9, ror #6
  14:	5f686374 	svcpl	0x00686374
  18:	30746573 	rsbscc	r6, r4, r3, ror r5
  1c:	74696200 	strbtvc	r6, [r9], #-512	; 0x200
  20:	65675f73 	strbvs	r5, [r7, #-3955]!	; 0xf73
  24:	65740074 	ldrbvs	r0, [r4, #-116]!	; 0x74
  28:	2f737473 	svccs	0x00737473
  2c:	702d3631 	eorvc	r3, sp, r1, lsr r6
  30:	31747261 	cmncc	r4, r1, ror #4
  34:	7365742d 	cmnvc	r5, #754974720	; 0x2d000000
  38:	632e3374 	teqvs	lr, #116, 6	; 0xd0000001
  3c:	73706300 	cmnvc	r0, #0, 6
  40:	6f6d0072 	svcvs	0x006d0072
  44:	735f6564 	cmpvc	pc, #100, 10	; 0x19000000
  48:	73007274 	movwvc	r7, #628	; 0x274
  4c:	74726f68 	ldrbtvc	r6, [r2], #-3944	; 0xf68
  50:	736e7520 	cmnvc	lr, #32, 10	; 0x8000000
  54:	656e6769 	strbvs	r6, [lr, #-1897]!	; 0x769
  58:	6e692064 	cdpvs	0, 6, cr2, cr9, cr4, {3}
  5c:	6e6f0074 	mcrvs	0, 3, r0, cr15, cr4, {3}
  60:	2f00705f 	svccs	0x0000705f
  64:	72657355 	rsbvc	r7, r5, #1409286145	; 0x54000001
  68:	72622f73 	rsbvc	r2, r2, #460	; 0x1cc
  6c:	6a6e6169 	bvs	1b98618 <__bss_end__+0x1b8e658>
  70:	442f6e75 	strtmi	r6, [pc], #-3701	; 78 <__code_start__-0x7f88>
  74:	746b7365 	strbtvc	r7, [fp], #-869	; 0x365
  78:	732f706f 	teqvc	pc, #111	; 0x6f
  7c:	6f6f6863 	svcvs	0x006f6863
  80:	70532f6c 	subsvc	r2, r3, ip, ror #30
  84:	676e6972 			; <UNDEFINED> instruction: 0x676e6972
  88:	30323931 	eorscc	r3, r2, r1, lsr r9
  8c:	3253432f 	subscc	r4, r3, #-1140850688	; 0xbc000000
  90:	584c3034 	stmdapl	ip, {r2, r4, r5, ip, sp}^
  94:	3273632f 	rsbscc	r6, r3, #-1140850688	; 0xbc000000
  98:	786c3034 	stmdavc	ip!, {r2, r4, r5, ip, sp}^
  9c:	7330322d 	teqvc	r0, #-805306366	; 0xd0000002
  a0:	6c2f7270 	sfmvs	f7, 4, [pc], #-448	; fffffee8 <__bss_end__+0xffff5f28>
  a4:	2f736261 	svccs	0x00736261
  a8:	732d3631 	teqvc	sp, #51380224	; 0x3100000
  ac:	6c676e69 	stclvs	14, cr6, [r7], #-420	; 0xfffffe5c
  b0:	74732d65 	ldrbtvc	r2, [r3], #-3429	; 0xd65
  b4:	632f7065 	teqvs	pc, #101	; 0x65
  b8:	0065646f 	rsbeq	r6, r5, pc, ror #8
  bc:	6d746f6e 	ldclvs	15, cr6, [r4, #-440]!	; 0xfffffe48
  c0:	006e6961 	rsbeq	r6, lr, r1, ror #18
  c4:	5f6b7262 	svcpl	0x006b7262
  c8:	62726576 	rsbsvs	r6, r2, #494927872	; 0x1d800000
  cc:	0065736f 	rsbeq	r7, r5, pc, ror #6
  d0:	65646f6d 	strbvs	r6, [r4, #-3949]!	; 0xf6d
  d4:	7465735f 	strbtvc	r7, [r5], #-863	; 0x35f
  d8:	73706300 	cmnvc	r0, #0, 6
  dc:	6c6f5f72 	stclvs	15, cr5, [pc], #-456	; ffffff1c <__bss_end__+0xffff5f5c>
  e0:	6e750064 	cdpvs	0, 7, cr0, cr5, cr4, {3}
  e4:	6e676973 	mcrvs	9, 3, r6, cr7, cr3, {3}
  e8:	63206465 	teqvs	r0, #1694498816	; 0x65000000
  ec:	00726168 	rsbseq	r6, r2, r8, ror #2
  f0:	61656c63 	cmnvs	r5, r3, ror #24
  f4:	65725f6e 	ldrbvs	r5, [r2, #-3950]!	; 0xf6e
  f8:	746f6f62 	strbtvc	r6, [pc], #-3938	; 100 <__code_start__-0x7f00>
  fc:	74696200 	strbtvc	r6, [r9], #-512	; 0x200
 100:	6c635f73 	stclvs	15, cr5, [r3], #-460	; 0xfffffe34
 104:	69750072 	ldmdbvs	r5!, {r1, r4, r5, r6}^
 108:	3233746e 	eorscc	r7, r3, #1845493760	; 0x6e000000
 10c:	6200745f 	andvs	r7, r0, #1593835520	; 0x5f000000
 110:	765f6b72 			; <UNDEFINED> instruction: 0x765f6b72
 114:	6f627265 	svcvs	0x00627265
 118:	705f6573 	subsvc	r6, pc, r3, ror r5	; <UNPREDICTABLE>
 11c:	465f5f00 	ldrbmi	r5, [pc], -r0, lsl #30
 120:	54434e55 	strbpl	r4, [r3], #-3669	; 0xe55
 124:	5f4e4f49 	svcpl	0x004e4f49
 128:	6973005f 	ldmdbvs	r3!, {r0, r1, r2, r3, r4, r6}^
 12c:	656c676e 	strbvs	r6, [ip, #-1902]!	; 0x76e
 130:	6574735f 	ldrbvs	r7, [r4, #-863]!	; 0x35f
 134:	61685f70 	smcvs	34288	; 0x85f0
 138:	656c646e 	strbvs	r6, [ip, #-1134]!	; 0x46e
 13c:	4e470072 	mcrmi	0, 2, r0, cr7, cr2, {3}
 140:	20432055 	subcs	r2, r3, r5, asr r0
 144:	2e382e34 	mrccs	14, 1, r2, cr8, cr4, {1}
 148:	6d2d2033 	stcvs	0, cr2, [sp, #-204]!	; 0xffffff34
 14c:	3d757063 	ldclcc	0, cr7, [r5, #-396]!	; 0xfffffe74
 150:	316d7261 	cmncc	sp, r1, ror #4
 154:	6a363731 	bvs	d8de20 <__bss_end__+0xd83e60>
 158:	732d667a 	teqvc	sp, #127926272	; 0x7a00000
 15c:	746d2d20 	strbtvc	r2, [sp], #-3360	; 0xd20
 160:	3d656e75 	stclcc	14, cr6, [r5, #-468]!	; 0xfffffe2c
 164:	316d7261 	cmncc	sp, r1, ror #4
 168:	6a363731 	bvs	d8de34 <__bss_end__+0xd83e74>
 16c:	732d667a 	teqvc	sp, #127926272	; 0x7a00000
 170:	67672d20 	strbvs	r2, [r7, -r0, lsr #26]!
 174:	2d206264 	sfmcs	f6, 4, [r0, #-400]!	; 0xfffffe70
 178:	2d20674f 	stccs	7, cr6, [r0, #-316]!	; 0xfffffec4
 17c:	3d647473 	cfstrdcc	mvd7, [r4, #-460]!	; 0xfffffe34
 180:	39756e67 	ldmdbcc	r5!, {r0, r1, r2, r5, r6, r9, sl, fp, sp, lr}^
 184:	662d2039 			; <UNDEFINED> instruction: 0x662d2039
 188:	65657266 	strbvs	r7, [r5, #-614]!	; 0x266
 18c:	6e617473 	mcrvs	4, 3, r7, cr1, cr3, {3}
 190:	676e6964 	strbvs	r6, [lr, -r4, ror #18]!
 194:	6e662d20 	cdpvs	13, 6, cr2, cr6, cr0, {1}
 198:	6f742d6f 	svcvs	0x00742d6f
 19c:	76656c70 			; <UNDEFINED> instruction: 0x76656c70
 1a0:	722d6c65 	eorvc	r6, sp, #25856	; 0x6500
 1a4:	64726f65 	ldrbtvs	r6, [r2], #-3941	; 0xf65
 1a8:	75007265 	strvc	r7, [r0, #-613]	; 0x265
 1ac:	5f726573 	svcpl	0x00726573
 1b0:	6d617274 	sfmvs	f7, 2, [r1, #-464]!	; 0xfffffe30
 1b4:	696c6f70 	stmdbvs	ip!, {r4, r5, r6, r8, r9, sl, fp, sp, lr}^
 1b8:	6e5f656e 	cdpvs	5, 5, cr6, cr15, cr14, {3}
 1bc:	65725f6f 	ldrbvs	r5, [r2, #-3951]!	; 0xf6f
 1c0:	6f6c0074 	svcvs	0x006c0074
 1c4:	6c20676e 	stcvs	7, cr6, [r0], #-440	; 0xfffffe48
 1c8:	20676e6f 	rsbcs	r6, r7, pc, ror #28
 1cc:	69736e75 	ldmdbvs	r3!, {r0, r2, r4, r5, r6, r9, sl, fp, sp, lr}^
 1d0:	64656e67 	strbtvs	r6, [r5], #-3687	; 0xe67
 1d4:	746e6920 	strbtvc	r6, [lr], #-2336	; 0x920
 1d8:	646f6d00 	strbtvs	r6, [pc], #-3328	; 1e0 <__code_start__-0x7e20>
 1dc:	61680065 	cmnvs	r8, r5, rrx
 1e0:	656c646e 	strbvs	r6, [ip, #-1134]!	; 0x46e
 1e4:	00745f72 	rsbseq	r5, r4, r2, ror pc
 1e8:	657a6973 	ldrbvs	r6, [sl, #-2419]!	; 0x973
 1ec:	65707974 	ldrbvs	r7, [r0, #-2420]!	; 0x974
 1f0:	65737500 	ldrbvs	r7, [r3, #-1280]!	; 0x500
 1f4:	65745f72 	ldrbvs	r5, [r4, #-3954]!	; 0xf72
 1f8:	6c007473 	cfstrsvs	mvf7, [r0], {115}	; 0x73
 1fc:	20676e6f 	rsbcs	r6, r7, pc, ror #28
 200:	676e6f6c 	strbvs	r6, [lr, -ip, ror #30]!
 204:	746e6920 	strbtvc	r6, [lr], #-2336	; 0x920
 208:	73616d00 	cmnvc	r1, #0, 26
 20c:	6e65006b 	cdpvs	0, 6, cr0, cr5, cr11, {3}
 210:	656c6261 	strbvs	r6, [ip, #-609]!	; 0x261
 214:	6361635f 	cmnvs	r1, #2080374785	; 0x7c000001
 218:	72006568 	andvc	r6, r0, #104, 10	; 0x1a000000
 21c:	00736765 	rsbseq	r6, r3, r5, ror #14
 220:	726f6873 	rsbvc	r6, pc, #7536640	; 0x730000
 224:	6e692074 	mcrvs	0, 3, r2, cr9, cr4, {3}
 228:	66690074 			; <UNDEFINED> instruction: 0x66690074
 22c:	675f7273 			; <UNDEFINED> instruction: 0x675f7273
 230:	6d007465 	cfstrsvs	mvf7, [r0, #-404]	; 0xfffffe6c
 234:	5f65646f 	svcpl	0x0065646f
 238:	6167656c 	cmnvs	r7, ip, ror #10
 23c:	6177006c 	cmnvs	r7, ip, rrx
 240:	65645f73 	strbvs	r5, [r4, #-3955]!	; 0xf73
 244:	5f677562 	svcpl	0x00677562
 248:	74736e69 	ldrbtvc	r6, [r3], #-3689	; 0xe69
 24c:	6c756166 	ldfvse	f6, [r5], #-408	; 0xfffffe68
 250:	70630074 	rsbvc	r0, r3, r4, ror r0
 254:	655f3431 	ldrbvs	r3, [pc, #-1073]	; fffffe2b <__bss_end__+0xffff5e6b>
 258:	6c62616e 	stfvse	f6, [r2], #-440	; 0xfffffe48
 25c:	70630065 	rsbvc	r0, r3, r5, rrx
 260:	675f7273 			; <UNDEFINED> instruction: 0x675f7273
 264:	72007465 	andvc	r7, r0, #1694498816	; 0x65000000
 268:	725f6970 	subsvc	r6, pc, #112, 18	; 0x1c0000
 26c:	74657365 	strbtvc	r7, [r5], #-869	; 0x365
 270:	7475705f 	ldrbtvc	r7, [r5], #-95	; 0x5f
 274:	6f640063 	svcvs	0x00640063
 278:	6400656e 	strvs	r6, [r0], #-1390	; 0x56e
 27c:	5f617461 	svcpl	0x00617461
 280:	726f6261 	rsbvc	r6, pc, #268435462	; 0x10000006
 284:	65765f74 	ldrbvs	r5, [r6, #-3956]!	; 0xf74
 288:	726f7463 	rsbvc	r7, pc, #1660944384	; 0x63000000
 28c:	65727000 	ldrbvs	r7, [r2, #-0]!
 290:	63746566 	cmnvs	r4, #427819008	; 0x19800000
 294:	62615f68 	rsbvs	r5, r1, #104, 30	; 0x1a0
 298:	5f74726f 	svcpl	0x0074726f
 29c:	74636576 	strbtvc	r6, [r3], #-1398	; 0x576
 2a0:	7700726f 	strvc	r7, [r0, -pc, ror #4]
 2a4:	645f7361 	ldrbvs	r7, [pc], #-865	; 2ac <__code_start__-0x7d54>
 2a8:	67756265 	ldrbvs	r6, [r5, -r5, ror #4]!
 2ac:	7461645f 	strbtvc	r6, [r1], #-1119	; 0x45f
 2b0:	75616661 	strbvc	r6, [r1, #-1633]!	; 0x661
 2b4:	6300746c 	movwvs	r7, #1132	; 0x46c
 2b8:	2d343170 	ldfcss	f3, [r4, #-448]!	; 0xfffffe40
 2bc:	75626564 	strbvc	r6, [r2, #-1380]!	; 0x564
 2c0:	00632e67 	rsbeq	r2, r3, r7, ror #28
 2c4:	72637364 	rsbvc	r7, r3, #100, 6	; 0x90000001
 2c8:	7465735f 	strbtvc	r7, [r5], #-863	; 0x35f
 2cc:	72637700 	rsbvc	r7, r3, #0, 14
 2d0:	65725f30 	ldrbvs	r5, [r2, #-3888]!	; 0xf30
 2d4:	63770067 	cmnvs	r7, #103	; 0x67
 2d8:	675f3072 			; <UNDEFINED> instruction: 0x675f3072
 2dc:	69007465 	stmdbvs	r0, {r0, r2, r5, r6, sl, ip, sp, lr}
 2e0:	5f74696e 	svcpl	0x0074696e
 2e4:	72620070 	rsbvc	r0, r2, #112	; 0x70
 2e8:	5f74706b 	svcpl	0x0074706b
 2ec:	646e6168 	strbtvs	r6, [lr], #-360	; 0x168
 2f0:	3072656c 	rsbscc	r6, r2, ip, ror #10
 2f4:	31706300 	cmncc	r0, r0, lsl #6
 2f8:	63625f34 	cmnvs	r2, #52, 30	; 0xd0
 2fc:	735f3072 	cmpvc	pc, #114	; 0x72
 300:	77007465 	strvc	r7, [r0, -r5, ror #8]
 304:	5f307276 	svcpl	0x00307276
 308:	006c6176 	rsbeq	r6, ip, r6, ror r1
 30c:	63746177 	cmnvs	r4, #-1073741795	; 0xc000001d
 310:	5f747068 	svcpl	0x00747068
 314:	30746573 	rsbscc	r6, r4, r3, ror r5
 318:	72767700 	rsbsvc	r7, r6, #0, 14
 31c:	65735f30 	ldrbvs	r5, [r3, #-3888]!	; 0xf30
 320:	72620074 	rsbvc	r0, r2, #116	; 0x74
 324:	6f6e5f6b 	svcvs	0x006e5f6b
 328:	7465725f 	strbtvc	r7, [r5], #-607	; 0x25f
 32c:	7272655f 	rsbsvc	r6, r2, #398458880	; 0x17c00000
 330:	6300726f 	movwvs	r7, #623	; 0x26f
 334:	5f343170 	svcpl	0x00343170
 338:	30726362 	rsbscc	r6, r2, r2, ror #6
 33c:	7465675f 	strbtvc	r6, [r5], #-1887	; 0x75f
 340:	73666400 	cmnvc	r6, #0, 8
 344:	61765f72 	cmnvs	r6, r2, ror pc
 348:	6669006c 	strbtvs	r0, [r9], -ip, rrx
 34c:	675f7261 	ldrbvs	r7, [pc, -r1, ror #4]
 350:	77007465 	strvc	r7, [r0, -r5, ror #8]
 354:	68637461 	stmdavs	r3!, {r0, r5, r6, sl, ip, sp, lr}^
 358:	685f7470 	ldmdavs	pc, {r4, r5, r6, sl, ip, sp, lr}^	; <UNPREDICTABLE>
 35c:	6c646e61 	stclvs	14, cr6, [r4], #-388	; 0xfffffe7c
 360:	00307265 	eorseq	r7, r0, r5, ror #4
 364:	706b7262 	rsbvc	r7, fp, r2, ror #4
 368:	696d5f74 	stmdbvs	sp!, {r2, r4, r5, r6, r8, r9, sl, fp, ip, lr}^
 36c:	74616d73 	strbtvc	r6, [r1], #-3443	; 0xd73
 370:	645f6863 	ldrbvs	r6, [pc], #-2147	; 378 <__code_start__-0x7c88>
 374:	62617369 	rsbvs	r7, r1, #-1543503871	; 0xa4000001
 378:	0030656c 	eorseq	r6, r0, ip, ror #10
 37c:	61746164 	cmnvs	r4, r4, ror #2
 380:	6c756166 	ldfvse	f6, [r5], #-408	; 0xfffffe68
 384:	72665f74 	rsbvc	r5, r6, #116, 30	; 0x1d0
 388:	6c5f6d6f 	mrrcvs	13, 6, r6, pc, cr15	; <UNPREDICTABLE>
 38c:	70630064 	rsbvc	r0, r3, r4, rrx
 390:	625f3431 	subsvs	r3, pc, #822083584	; 0x31000000
 394:	5f307276 	svcpl	0x00307276
 398:	00746573 	rsbseq	r6, r4, r3, ror r5
 39c:	5f736177 	svcpl	0x00736177
 3a0:	75626564 	strbvc	r6, [r2, #-1380]!	; 0x564
 3a4:	75616667 	strbvc	r6, [r1, #-1639]!	; 0x667
 3a8:	725f746c 	subsvc	r7, pc, #108, 8	; 0x6c000000
 3ac:	61666e00 	cmnvs	r6, r0, lsl #28
 3b0:	73746c75 	cmnvc	r4, #29952	; 0x7500
 3b4:	72766200 	rsbsvc	r6, r6, #0, 4
 3b8:	61765f30 	cmnvs	r6, r0, lsr pc
 3bc:	6664006c 	strbtvs	r0, [r4], -ip, rrx
 3c0:	675f7273 			; <UNDEFINED> instruction: 0x675f7273
 3c4:	73007465 	movwvc	r7, #1125	; 0x465
 3c8:	61637379 	smcvs	14137	; 0x3739
 3cc:	765f6c6c 	ldrbvc	r6, [pc], -ip, ror #24
 3d0:	6f746365 	svcvs	0x00746365
 3d4:	615f0072 	cmpvs	pc, r2, ror r0	; <UNPREDICTABLE>
 3d8:	00726464 	rsbseq	r6, r2, r4, ror #8
 3dc:	66657270 			; <UNDEFINED> instruction: 0x66657270
 3e0:	68637465 	stmdavs	r3!, {r0, r2, r5, r6, sl, ip, sp, lr}^
 3e4:	756c665f 	strbvc	r6, [ip, #-1631]!	; 0x65f
 3e8:	735f6873 	cmpvc	pc, #7536640	; 0x730000
 3ec:	62007465 	andvs	r7, r0, #1694498816	; 0x65000000
 3f0:	5f307263 	svcpl	0x00307263
 3f4:	00676572 	rsbeq	r6, r7, r2, ror r5
 3f8:	72616677 	rsbvc	r6, r1, #124780544	; 0x7700000
 3fc:	7465675f 	strbtvc	r6, [r5], #-1887	; 0x75f
 400:	6b726200 	blvs	1c98c08 <__bss_end__+0x1c8ec48>
 404:	735f7470 	cmpvc	pc, #112, 8	; 0x70000000
 408:	00307465 	eorseq	r7, r0, r5, ror #8
 40c:	30726377 	rsbscc	r6, r2, r7, ror r3
 410:	7465735f 	strbtvc	r7, [r5], #-863	; 0x35f
 414:	746e6900 	strbtvc	r6, [lr], #-2304	; 0x900
 418:	696e695f 	stmdbvs	lr!, {r0, r1, r2, r3, r4, r6, r8, fp, sp, lr}^
 41c:	5f5f0074 	svcpl	0x005f0074
 420:	63756e67 	cmnvs	r5, #1648	; 0x670
 424:	5f61765f 	svcpl	0x0061765f
 428:	7473696c 	ldrbtvc	r6, [r3], #-2412	; 0x96c
 42c:	62696c00 	rsbvs	r6, r9, #0, 24
 430:	72702f63 	rsbsvc	r2, r0, #396	; 0x18c
 434:	6b746e69 	blvs	1d1bde0 <__bss_end__+0x1d11e20>
 438:	4700632e 	strmi	r6, [r0, -lr, lsr #6]
 43c:	4320554e 	teqmi	r0, #327155712	; 0x13800000
 440:	382e3420 	stmdacc	lr!, {r5, sl, ip, sp}
 444:	2d20332e 	stccs	3, cr3, [r0, #-184]!	; 0xffffff48
 448:	7570636d 	ldrbvc	r6, [r0, #-877]!	; 0x36d
 44c:	6d72613d 	ldfvse	f6, [r2, #-244]!	; 0xffffff0c
 450:	36373131 			; <UNDEFINED> instruction: 0x36373131
 454:	2d667a6a 	vstmdbcs	r6!, {s15-s120}
 458:	6d2d2073 	stcvs	0, cr2, [sp, #-460]!	; 0xfffffe34
 45c:	656e7574 	strbvs	r7, [lr, #-1396]!	; 0x574
 460:	6d72613d 	ldfvse	f6, [r2, #-244]!	; 0xffffff0c
 464:	36373131 			; <UNDEFINED> instruction: 0x36373131
 468:	2d667a6a 	vstmdbcs	r6!, {s15-s120}
 46c:	672d2073 			; <UNDEFINED> instruction: 0x672d2073
 470:	20626467 	rsbcs	r6, r2, r7, ror #8
 474:	20674f2d 	rsbcs	r4, r7, sp, lsr #30
 478:	6474732d 	ldrbtvs	r7, [r4], #-813	; 0x32d
 47c:	756e673d 	strbvc	r6, [lr, #-1853]!	; 0x73d
 480:	2d203939 	stccs	9, cr3, [r0, #-228]!	; 0xffffff1c
 484:	65726666 	ldrbvs	r6, [r2, #-1638]!	; 0x666
 488:	61747365 	cmnvs	r4, r5, ror #6
 48c:	6e69646e 	cdpvs	4, 6, cr6, cr9, cr14, {3}
 490:	61760067 	cmnvs	r6, r7, rrx
 494:	6972705f 	ldmdbvs	r2!, {r0, r1, r2, r3, r4, r6, ip, sp, lr}^
 498:	006b746e 	rsbeq	r7, fp, lr, ror #8
 49c:	61765f5f 	cmnvs	r6, pc, asr pc
 4a0:	73696c5f 	cmnvc	r9, #24320	; 0x5f00
 4a4:	552f0074 	strpl	r0, [pc, #-116]!	; 438 <__code_start__-0x7bc8>
 4a8:	73726573 	cmnvc	r2, #482344960	; 0x1cc00000
 4ac:	6972622f 	ldmdbvs	r2!, {r0, r1, r2, r3, r5, r9, sp, lr}^
 4b0:	756a6e61 	strbvc	r6, [sl, #-3681]!	; 0xe61
 4b4:	65442f6e 	strbvs	r2, [r4, #-3950]	; 0xf6e
 4b8:	6f746b73 	svcvs	0x00746b73
 4bc:	63732f70 	cmnvs	r3, #112, 30	; 0x1c0
 4c0:	6c6f6f68 	stclvs	15, cr6, [pc], #-416	; 328 <__code_start__-0x7cd8>
 4c4:	7270532f 	rsbsvc	r5, r0, #-1140850688	; 0xbc000000
 4c8:	31676e69 	cmncc	r7, r9, ror #28
 4cc:	2f303239 	svccs	0x00303239
 4d0:	34325343 	ldrtcc	r5, [r2], #-835	; 0x343
 4d4:	2f584c30 	svccs	0x00584c30
 4d8:	34327363 	ldrtcc	r7, [r2], #-867	; 0x363
 4dc:	2d786c30 	ldclcs	12, cr6, [r8, #-192]!	; 0xffffff40
 4e0:	70733032 	rsbsvc	r3, r3, r2, lsr r0
 4e4:	696c2f72 	stmdbvs	ip!, {r1, r4, r5, r6, r8, r9, sl, fp, sp}^
 4e8:	00697062 	rsbeq	r7, r9, r2, rrx
 4ec:	70615f5f 	rsbvc	r5, r1, pc, asr pc
 4f0:	72617500 	rsbvc	r7, r1, #0, 10
 4f4:	75705f74 	ldrbvc	r5, [r0, #-3956]!	; 0xf74
 4f8:	69006374 	stmdbvs	r0, {r2, r4, r5, r6, r8, r9, sp, lr}
 4fc:	7265746e 	rsbvc	r7, r5, #1845493760	; 0x6e000000
 500:	5f6c616e 	svcpl	0x006c616e
 504:	63747570 	cmnvs	r4, #112, 10	; 0x1c000000
 508:	00726168 	rsbseq	r6, r2, r8, ror #2
 50c:	5f697072 	svcpl	0x00697072
 510:	63747570 	cmnvs	r4, #112, 10	; 0x1c000000
 514:	00726168 	rsbseq	r6, r2, r8, ror #2
 518:	6362696c 	cmnvs	r2, #108, 18	; 0x1b0000
 51c:	7475702f 	ldrbtvc	r7, [r5], #-47	; 0x2f
 520:	72616863 	rsbvc	r6, r1, #6488064	; 0x630000
 524:	7200632e 	andvc	r6, r0, #-1207959552	; 0xb8000000
 528:	735f6970 	cmpvc	pc, #112, 18	; 0x1c0000
 52c:	705f7465 	subsvc	r7, pc, r5, ror #8
 530:	00637475 	rsbeq	r7, r3, r5, ror r4
 534:	6362696c 	cmnvs	r2, #108, 18	; 0x1b0000
 538:	7475702f 	ldrbtvc	r7, [r5], #-47	; 0x2f
 53c:	00632e6b 	rsbeq	r2, r3, fp, ror #28
 540:	65746e69 	ldrbvs	r6, [r4, #-3689]!	; 0xe69
 544:	6c616e72 	stclvs	14, cr6, [r1], #-456	; 0xfffffe38
 548:	7475705f 	ldrbtvc	r7, [r5], #-95	; 0x5f
 54c:	6d66006b 	stclvs	0, cr0, [r6, #-428]!	; 0xfffffe54
 550:	74735f74 	ldrbtvc	r5, [r3], #-3956	; 0xf74
 554:	00747261 	rsbseq	r7, r4, r1, ror #4
 558:	5f67656e 	svcpl	0x0067656e
 55c:	65720070 	ldrbvs	r0, [r2, #-112]!	; 0x70
 560:	73726576 	cmnvc	r2, #494927872	; 0x1d800000
 564:	73690065 	cmnvc	r9, #101	; 0x65
 568:	69676964 	stmdbvs	r7!, {r2, r5, r6, r8, fp, sp, lr}^
 56c:	75700074 	ldrbvc	r0, [r0, #-116]!	; 0x74
 570:	665f7374 			; <UNDEFINED> instruction: 0x665f7374
 574:	69730070 	ldmdbvs	r3!, {r4, r5, r6}^
 578:	64656e67 	strbtvs	r6, [r5], #-3687	; 0xe67
 57c:	6c00705f 	stcvs	0, cr7, [r0], {95}	; 0x5f
 580:	2f636269 	svccs	0x00636269
 584:	702d6176 	eorvc	r6, sp, r6, ror r1
 588:	746e6972 	strbtvc	r6, [lr], #-2418	; 0x972
 58c:	00632e6b 	rsbeq	r2, r3, fp, ror #28
 590:	5f697072 	svcpl	0x00697072
 594:	5f746573 	svcpl	0x00746573
 598:	7074756f 	rsbsvc	r7, r4, pc, ror #10
 59c:	77007475 	smlsdxvc	r0, r5, r4, r7
 5a0:	68746469 	ldmdavs	r4!, {r0, r3, r5, r6, sl, sp, lr}^
 5a4:	74757000 	ldrbtvc	r7, [r5], #-0
 5a8:	70665f63 	rsbvc	r5, r6, r3, ror #30
 5ac:	696d6500 	stmdbvs	sp!, {r8, sl, sp, lr}^
 5b0:	69640074 	stmdbvs	r4!, {r2, r4, r5, r6}^
 5b4:	6c626173 	stfvse	f6, [r2], #-460	; 0xfffffe34
 5b8:	61635f65 	cmnvs	r3, r5, ror #30
 5bc:	00656863 	rsbeq	r6, r5, r3, ror #16
 5c0:	66617473 			; <UNDEFINED> instruction: 0x66617473
 5c4:	72732d66 	rsbsvc	r2, r3, #6528	; 0x1980
 5c8:	61632f63 	cmnvs	r3, r3, ror #30
 5cc:	2e656863 	cdpcs	8, 6, cr6, cr5, cr3, {3}
 5d0:	65720063 	ldrbvs	r0, [r2, #-99]!	; 0x63
 5d4:	746f6f62 	strbtvc	r6, [pc], #-3938	; 5dc <__code_start__-0x7a24>
 5d8:	6e61685f 	mcrvs	8, 3, r6, cr1, cr15, {2}
 5dc:	72656c64 	rsbvc	r6, r5, #100, 24	; 0x6400
 5e0:	61747300 	cmnvs	r4, r0, lsl #6
 5e4:	732d6666 	teqvc	sp, #106954752	; 0x6600000
 5e8:	632f6372 	teqvs	pc, #-939524095	; 0xc8000001
 5ec:	6e61656c 	cdpvs	5, 6, cr6, cr1, cr12, {3}
 5f0:	6265722d 	rsbvs	r7, r5, #-805306366	; 0xd0000002
 5f4:	2e746f6f 	cdpcs	15, 7, cr6, cr4, cr15, {3}
 5f8:	70720063 	rsbsvc	r0, r2, r3, rrx
 5fc:	65725f69 	ldrbvs	r5, [r2, #-3945]!	; 0xf69
 600:	746f6f62 	strbtvc	r6, [pc], #-3938	; 608 <__code_start__-0x79f8>
 604:	6c656400 	cfstrdvs	mvd6, [r5], #-0
 608:	6d5f7961 	ldclvs	9, cr7, [pc, #-388]	; 48c <__code_start__-0x7b74>
 60c:	5f5f0073 	svcpl	0x005f0073
 610:	5f737362 	svcpl	0x00737362
 614:	72617473 	rsbvc	r7, r1, #1929379840	; 0x73000000
 618:	005f5f74 	subseq	r5, pc, r4, ror pc	; <UNPREDICTABLE>
 61c:	73625f5f 	cmnvc	r2, #380	; 0x17c
 620:	6e655f73 	mcrvs	15, 3, r5, cr5, cr3, {3}
 624:	005f5f64 	subseq	r5, pc, r4, ror #30
 628:	61747363 	cmnvs	r4, r3, ror #6
 62c:	685f7472 	ldmdavs	pc, {r1, r4, r5, r6, sl, ip, sp, lr}^	; <UNPREDICTABLE>
 630:	6c646e61 	stclvs	14, cr6, [r4], #-388	; 0xfffffe7c
 634:	62007265 	andvs	r7, r0, #1342177286	; 0x50000006
 638:	655f7373 	ldrbvs	r7, [pc, #-883]	; 2cd <__code_start__-0x7d33>
 63c:	5f00646e 	svcpl	0x0000646e
 640:	61747363 	cmnvs	r4, r3, ror #6
 644:	73007472 	movwvc	r7, #1138	; 0x472
 648:	66666174 			; <UNDEFINED> instruction: 0x66666174
 64c:	6372732d 	cmnvs	r2, #-1275068416	; 0xb4000000
 650:	7473632f 	ldrbtvc	r6, [r3], #-815	; 0x32f
 654:	2e747261 	cdpcs	2, 7, cr7, cr4, cr1, {3}
 658:	74730063 	ldrbtvc	r0, [r3], #-99	; 0x63
 65c:	2d666661 	stclcs	6, cr6, [r6, #-388]!	; 0xfffffe7c
 660:	2f637273 	svccs	0x00637273
 664:	61666564 	cmnvs	r6, r4, ror #10
 668:	2d746c75 	ldclcs	12, cr6, [r4, #-468]!	; 0xfffffe2c
 66c:	646e6168 	strbtvs	r6, [lr], #-360	; 0x168
 670:	2d72656c 	cfldr64cs	mvdx6, [r2, #-432]!	; 0xfffffe50
 674:	74736166 	ldrbtvc	r6, [r3], #-358	; 0x166
 678:	6600632e 	strvs	r6, [r0], -lr, lsr #6
 67c:	5f747361 	svcpl	0x00747361
 680:	65746e69 	ldrbvs	r6, [r4, #-3689]!	; 0xe69
 684:	70757272 	rsbsvc	r7, r5, r2, ror r2
 688:	65765f74 	ldrbvs	r5, [r6, #-3956]!	; 0xf74
 68c:	726f7463 	rsbvc	r7, pc, #1660944384	; 0x63000000
 690:	73657200 	cmnvc	r5, #0, 4
 694:	765f7465 	ldrbvc	r7, [pc], -r5, ror #8
 698:	6f746365 	svcvs	0x00746365
 69c:	74730072 	ldrbtvc	r0, [r3], #-114	; 0x72
 6a0:	2d666661 	stclcs	6, cr6, [r6, #-388]!	; 0xfffffe7c
 6a4:	2f637273 	svccs	0x00637273
 6a8:	61666564 	cmnvs	r6, r4, ror #10
 6ac:	2d746c75 	ldclcs	12, cr6, [r4, #-468]!	; 0xfffffe2c
 6b0:	646e6168 	strbtvs	r6, [lr], #-360	; 0x168
 6b4:	2d72656c 	cfldr64cs	mvdx6, [r2, #-432]!	; 0xfffffe50
 6b8:	65736572 	ldrbvs	r6, [r3, #-1394]!	; 0x572
 6bc:	00632e74 	rsbeq	r2, r3, r4, ror lr
 6c0:	66617473 			; <UNDEFINED> instruction: 0x66617473
 6c4:	72732d66 	rsbsvc	r2, r3, #6528	; 0x1980
 6c8:	65642f63 	strbvs	r2, [r4, #-3939]!	; 0xf63
 6cc:	6c756166 	ldfvse	f6, [r5], #-408	; 0xfffffe68
 6d0:	61682d74 	smcvs	33492	; 0x82d4
 6d4:	656c646e 	strbvs	r6, [ip, #-1134]!	; 0x46e
 6d8:	77732d72 			; <UNDEFINED> instruction: 0x77732d72
 6dc:	00632e69 	rsbeq	r2, r3, r9, ror #28
 6e0:	74666f73 	strbtvc	r6, [r6], #-3955	; 0xf73
 6e4:	65726177 	ldrbvs	r6, [r2, #-375]!	; 0x177
 6e8:	746e695f 	strbtvc	r6, [lr], #-2399	; 0x95f
 6ec:	75727265 	ldrbvc	r7, [r2, #-613]!	; 0x265
 6f0:	765f7470 			; <UNDEFINED> instruction: 0x765f7470
 6f4:	6f746365 	svcvs	0x00746365
 6f8:	74730072 	ldrbtvc	r0, [r3], #-114	; 0x72
 6fc:	2d666661 	stclcs	6, cr6, [r6, #-388]!	; 0xfffffe7c
 700:	2f637273 	svccs	0x00637273
 704:	61666564 	cmnvs	r6, r4, ror #10
 708:	2d746c75 	ldclcs	12, cr6, [r4, #-468]!	; 0xfffffe2c
 70c:	646e6168 	strbtvs	r6, [lr], #-360	; 0x168
 710:	2d72656c 	cfldr64cs	mvdx6, [r2, #-432]!	; 0xfffffe50
 714:	65646e75 	strbvs	r6, [r4, #-3701]!	; 0xe75
 718:	656e6966 	strbvs	r6, [lr, #-2406]!	; 0x966
 71c:	6e692d64 	cdpvs	13, 6, cr2, cr9, cr4, {3}
 720:	632e7473 	teqvs	lr, #1929379840	; 0x73000000
 724:	646e7500 	strbtvs	r7, [lr], #-1280	; 0x500
 728:	6e696665 	cdpvs	6, 6, cr6, cr9, cr5, {3}
 72c:	695f6465 	ldmdbvs	pc, {r0, r2, r5, r6, sl, sp, lr}^	; <UNPREDICTABLE>
 730:	7274736e 	rsbsvc	r7, r4, #-1207959551	; 0xb8000001
 734:	69746375 	ldmdbvs	r4!, {r0, r2, r4, r5, r6, r8, r9, sp, lr}^
 738:	765f6e6f 	ldrbvc	r6, [pc], -pc, ror #28
 73c:	6f746365 	svcvs	0x00746365
 740:	74730072 	ldrbtvc	r0, [r3], #-114	; 0x72
 744:	2d666661 	stclcs	6, cr6, [r6, #-388]!	; 0xfffffe7c
 748:	2f637273 	svccs	0x00637273
 74c:	61666564 	cmnvs	r6, r4, ror #10
 750:	2d746c75 	ldclcs	12, cr6, [r4, #-468]!	; 0xfffffe2c
 754:	646e6168 	strbtvs	r6, [lr], #-360	; 0x168
 758:	7372656c 	cmnvc	r2, #108, 10	; 0x1b000000
 75c:	4900632e 	stmdbmi	r0, {r1, r2, r3, r5, r8, r9, sp, lr}
 760:	705f5152 	subsvc	r5, pc, r2, asr r1	; <UNPREDICTABLE>
 764:	69646e65 	stmdbvs	r4!, {r0, r2, r5, r6, r9, sl, fp, sp, lr}^
 768:	325f676e 	subscc	r6, pc, #28835840	; 0x1b80000
 76c:	73694400 	cmnvc	r9, #0, 8
 770:	656c6261 	strbvs	r6, [ip, #-609]!	; 0x261
 774:	7361425f 	cmnvc	r1, #-268435451	; 0xf0000005
 778:	495f6369 	ldmdbmi	pc, {r0, r3, r5, r6, r8, r9, sp, lr}^	; <UNPREDICTABLE>
 77c:	00735152 	rsbseq	r5, r3, r2, asr r1
 780:	5f514946 	svcpl	0x00514946
 784:	746e6f63 	strbtvc	r6, [lr], #-3939	; 0xf63
 788:	006c6f72 	rsbeq	r6, ip, r2, ror pc
 78c:	746e695f 	strbtvc	r6, [lr], #-2399	; 0x95f
 790:	75727265 	ldrbvc	r7, [r2, #-613]!	; 0x265
 794:	745f7470 	ldrbvc	r7, [pc], #-1136	; 79c <__code_start__-0x7864>
 798:	656c6261 	strbvs	r6, [ip, #-609]!	; 0x261
 79c:	51524900 	cmppl	r2, r0, lsl #18
 7a0:	7361625f 	cmnvc	r1, #-268435451	; 0xf0000005
 7a4:	705f6369 	subsvc	r6, pc, r9, ror #6
 7a8:	69646e65 	stmdbvs	r4!, {r0, r2, r5, r6, r9, sl, fp, sp, lr}^
 7ac:	4500676e 	strmi	r6, [r0, #-1902]	; 0x76e
 7b0:	6c62616e 	stfvse	f6, [r2], #-440	; 0xfffffe48
 7b4:	61425f65 	cmpvs	r2, r5, ror #30
 7b8:	5f636973 	svcpl	0x00636973
 7bc:	73515249 	cmpvc	r1, #-1879048188	; 0x90000004
 7c0:	616e4500 	cmnvs	lr, r0, lsl #10
 7c4:	5f656c62 	svcpl	0x00656c62
 7c8:	73515249 	cmpvc	r1, #-1879048188	; 0x90000004
 7cc:	4500315f 	strmi	r3, [r0, #-351]	; 0x15f
 7d0:	6c62616e 	stfvse	f6, [r2], #-440	; 0xfffffe48
 7d4:	52495f65 	subpl	r5, r9, #404	; 0x194
 7d8:	325f7351 	subscc	r7, pc, #1140850689	; 0x44000001
 7dc:	6e695f00 	cdpvs	15, 6, cr5, cr9, cr0, {0}
 7e0:	72726574 	rsbsvc	r6, r2, #116, 10	; 0x1d000000
 7e4:	5f747075 	svcpl	0x00747075
 7e8:	6c626174 	stfvse	f6, [r2], #-464	; 0xfffffe30
 7ec:	6e655f65 	cdpvs	15, 6, cr5, cr5, cr5, {3}
 7f0:	65640064 	strbvs	r0, [r4, #-100]!	; 0x64
 7f4:	61625f76 	smcvs	9718	; 0x25f6
 7f8:	65697272 	strbvs	r7, [r9, #-626]!	; 0x272
 7fc:	74730072 	ldrbtvc	r0, [r3], #-114	; 0x72
 800:	2d666661 	stclcs	6, cr6, [r6, #-388]!	; 0xfffffe7c
 804:	2f637273 	svccs	0x00637273
 808:	65746e69 	ldrbvs	r6, [r4, #-3689]!	; 0xe69
 80c:	70757272 	rsbsvc	r7, r5, r2, ror r2
 810:	632d7374 	teqvs	sp, #116, 6	; 0xd0000001
 814:	4900632e 	stmdbmi	r0, {r1, r2, r3, r5, r8, r9, sp, lr}
 818:	425f5152 	subsmi	r5, pc, #-2147483628	; 0x80000014
 81c:	00657361 	rsbeq	r7, r5, r1, ror #6
 820:	33545550 	cmpcc	r4, #80, 10	; 0x14000000
 824:	69440032 	stmdbvs	r4, {r1, r4, r5}^
 828:	6c626173 	stfvse	f6, [r2], #-460	; 0xfffffe34
 82c:	52495f65 	subpl	r5, r9, #404	; 0x194
 830:	315f7351 	cmpcc	pc, r1, asr r3	; <UNPREDICTABLE>
 834:	73694400 	cmnvc	r9, #0, 8
 838:	656c6261 	strbvs	r6, [ip, #-609]!	; 0x261
 83c:	5152495f 	cmppl	r2, pc, asr r9
 840:	00325f73 	eorseq	r5, r2, r3, ror pc
 844:	5f515249 	svcpl	0x00515249
 848:	646e6570 	strbtvs	r6, [lr], #-1392	; 0x570
 84c:	5f676e69 	svcpl	0x00676e69
 850:	74610031 	strbtvc	r0, [r1], #-49	; 0x31
 854:	6573755f 	ldrbvs	r7, [r3, #-1375]!	; 0x55f
 858:	656c5f72 	strbvs	r5, [ip, #-3954]!	; 0xf72
 85c:	006c6576 	rsbeq	r6, ip, r6, ror r5
 860:	66617473 			; <UNDEFINED> instruction: 0x66617473
 864:	72732d66 	rsbsvc	r2, r3, #6528	; 0x1980
 868:	65722f63 	ldrbvs	r2, [r2, #-3939]!	; 0xf63
 86c:	746f6f62 	strbtvc	r6, [pc], #-3938	; 874 <__code_start__-0x778c>
 870:	5000632e 	andpl	r6, r0, lr, lsr #6
 874:	53525f4d 	cmppl	r2, #308	; 0x134
 878:	575f4354 			; <UNDEFINED> instruction: 0x575f4354
 87c:	47464352 	smlsldmi	r4, r6, r2, r3
 880:	4c55465f 	mrrcmi	6, 5, r4, r5, cr15
 884:	45525f4c 	ldrbmi	r5, [r2, #-3916]	; 0xf4c
 888:	00544553 	subseq	r4, r4, r3, asr r5
 88c:	575f4d50 			; <UNDEFINED> instruction: 0x575f4d50
 890:	00474f44 	subeq	r4, r7, r4, asr #30
 894:	5f746573 	svcpl	0x00746573
 898:	72657375 	rsbvc	r7, r5, #-738197503	; 0xd4000001
 89c:	76656c5f 			; <UNDEFINED> instruction: 0x76656c5f
 8a0:	50006c65 	andpl	r6, r0, r5, ror #24
 8a4:	41505f4d 	cmpmi	r0, sp, asr #30
 8a8:	4f575353 	svcmi	0x00575353
 8ac:	50004452 	andpl	r4, r0, r2, asr r4
 8b0:	53525f4d 	cmppl	r2, #308	; 0x134
 8b4:	74004354 	strvc	r4, [r0], #-852	; 0x354
 8b8:	72656d69 	rsbvc	r6, r5, #6720	; 0x1a40
 8bc:	7465675f 	strbtvc	r6, [r5], #-1887	; 0x75f
 8c0:	6573755f 	ldrbvs	r7, [r3, #-1375]!	; 0x55f
 8c4:	61725f63 	cmnvs	r2, r3, ror #30
 8c8:	65640077 	strbvs	r0, [r4, #-119]!	; 0x77
 8cc:	5f79616c 	svcpl	0x0079616c
 8d0:	00636573 	rsbeq	r6, r3, r3, ror r5
 8d4:	66617473 			; <UNDEFINED> instruction: 0x66617473
 8d8:	72732d66 	rsbsvc	r2, r3, #6528	; 0x1980
 8dc:	69742f63 	ldmdbvs	r4!, {r0, r1, r5, r6, r8, r9, sl, fp, sp}^
 8e0:	2e72656d 	cdpcs	5, 7, cr6, cr2, cr13, {3}
 8e4:	45470063 	strbmi	r0, [r7, #-99]	; 0x63
 8e8:	00323354 	eorseq	r3, r2, r4, asr r3
 8ec:	6b636974 	blvs	18daec4 <__bss_end__+0x18d0f04>
 8f0:	65640073 	strbvs	r0, [r4, #-115]!	; 0x73
 8f4:	5f79616c 	svcpl	0x0079616c
 8f8:	6c637963 	stclvs	9, cr7, [r3], #-396	; 0xfffffe74
 8fc:	64007365 	strvs	r7, [r0], #-869	; 0x365
 900:	79616c65 	stmdbvc	r1!, {r0, r2, r5, r6, sl, fp, sp, lr}^
 904:	0073755f 	rsbseq	r7, r3, pc, asr r5
 908:	656d6974 	strbvs	r6, [sp, #-2420]!	; 0x974
 90c:	65675f72 	strbvs	r5, [r7, #-3954]!	; 0xf72
 910:	73755f74 	cmnvc	r5, #116, 30	; 0x1d0
 914:	5f006365 	svcpl	0x00006365
 918:	5f6f7364 	svcpl	0x006f7364
 91c:	646e6168 	strbtvs	r6, [lr], #-360	; 0x168
 920:	5f00656c 	svcpl	0x0000656c
 924:	657a6973 	ldrbvs	r6, [sl, #-2419]!	; 0x973
 928:	61725f00 	cmnvs	r2, r0, lsl #30
 92c:	3834646e 	ldmdacc	r4!, {r1, r2, r3, r5, r6, sl, sp, lr}
 930:	6d655f00 	stclvs	15, cr5, [r5, #-0]
 934:	65677265 	strbvs	r7, [r7, #-613]!	; 0x265
 938:	0079636e 	rsbseq	r6, r9, lr, ror #6
 93c:	74726175 	ldrbtvc	r6, [r2], #-373	; 0x175
 940:	696e695f 	stmdbvs	lr!, {r0, r1, r2, r3, r4, r6, r8, fp, sp, lr}^
 944:	775f0074 			; <UNDEFINED> instruction: 0x775f0074
 948:	6f747263 	svcvs	0x00747263
 94c:	735f626d 	cmpvc	pc, #-805306362	; 0xd0000006
 950:	65746174 	ldrbvs	r6, [r4, #-372]!	; 0x174
 954:	63775f00 	cmnvs	r7, #0, 30
 958:	6f747273 	svcvs	0x00747273
 95c:	5f73626d 	svcpl	0x0073626d
 960:	74617473 	strbtvc	r7, [r1], #-1139	; 0x473
 964:	6c5f0065 	mrrcvs	0, 6, r0, pc, cr5	; <UNPREDICTABLE>
 968:	69736662 	ldmdbvs	r3!, {r1, r5, r6, r9, sl, sp, lr}^
 96c:	4700657a 	smlsdxmi	r0, sl, r5, r6
 970:	5f4f4950 	svcpl	0x004f4950
 974:	434e5546 	movtmi	r5, #58694	; 0xe546
 978:	504e495f 	subpl	r4, lr, pc, asr r9
 97c:	5f005455 	svcpl	0x00005455
 980:	7472626d 	ldrbtvc	r6, [r2], #-621	; 0x26d
 984:	5f63776f 	svcpl	0x0063776f
 988:	74617473 	strbtvc	r7, [r1], #-1139	; 0x473
 98c:	775f0065 	ldrbvc	r0, [pc, -r5, rrx]
 990:	6d6f7463 	cfstrdvs	mvd7, [pc, #-396]!	; 80c <__code_start__-0x77f4>
 994:	74735f62 	ldrbtvc	r5, [r3], #-3938	; 0xf62
 998:	00657461 	rsbeq	r7, r5, r1, ror #8
 99c:	6d745f5f 	ldclvs	15, cr5, [r4, #-380]!	; 0xfffffe84
 9a0:	6365735f 	cmnvs	r5, #2080374785	; 0x7c000001
 9a4:	61747300 	cmnvs	r4, r0, lsl #6
 9a8:	755f0074 	ldrbvc	r0, [pc, #-116]	; 93c <__code_start__-0x76c4>
 9ac:	00667562 	rsbeq	r7, r6, r2, ror #10
 9b0:	4f495047 	svcmi	0x00495047
 9b4:	4e55465f 	mrcmi	6, 2, r4, cr5, cr15, {2}
 9b8:	4c415f43 	mcrrmi	15, 4, r5, r1, cr3
 9bc:	5f003154 	svcpl	0x00003154
 9c0:	65736162 	ldrbvs	r6, [r3, #-354]!	; 0x162
 9c4:	746e6300 	strbtvc	r6, [lr], #-768	; 0x300
 9c8:	5f5f006c 	svcpl	0x005f006c
 9cc:	685f6d74 	ldmdavs	pc, {r2, r4, r5, r6, r8, sl, fp, sp, lr}^	; <UNPREDICTABLE>
 9d0:	0072756f 	rsbseq	r7, r2, pc, ror #10
 9d4:	66735f5f 	uhsaxvs	r5, r3, pc	; <UNPREDICTABLE>
 9d8:	6e6f5f00 	cdpvs	15, 6, cr5, cr15, cr0, {0}
 9dc:	6978655f 	ldmdbvs	r8!, {r0, r1, r2, r3, r4, r6, r8, sl, sp, lr}^
 9e0:	72615f74 	rsbvc	r5, r1, #116, 30	; 0x1d0
 9e4:	5f007367 	svcpl	0x00007367
 9e8:	6b6f6f63 	blvs	1bdc77c <__bss_end__+0x1bd27bc>
 9ec:	5f006569 	svcpl	0x00006569
 9f0:	6c67735f 	stclvs	3, cr7, [r7], #-380	; 0xfffffe84
 9f4:	5f006575 	svcpl	0x00006575
 9f8:	67616c66 	strbvs	r6, [r1, -r6, ror #24]!
 9fc:	695f0073 	ldmdbvs	pc, {r0, r1, r4, r5, r6}^	; <UNPREDICTABLE>
 a00:	78635f73 	stmdavc	r3!, {r0, r1, r4, r5, r6, r8, r9, sl, fp, ip, lr}^
 a04:	735f0061 	cmpvc	pc, #97	; 0x61
 a08:	6e696474 	mcrvs	4, 3, r6, cr9, cr4, {3}
 a0c:	6c625f00 	stclvs	15, cr5, [r2], #-0
 a10:	7a69736b 	bvc	1a5d7c4 <__bss_end__+0x1a53804>
 a14:	61750065 	cmnvs	r5, r5, rrx
 a18:	632e7472 	teqvs	lr, #1912602624	; 0x72000000
 a1c:	78756100 	ldmdavc	r5!, {r8, sp, lr}^
 a20:	7265705f 	rsbvc	r7, r5, #95	; 0x5f
 a24:	73687069 	cmnvc	r8, #105	; 0x69
 a28:	76635f00 	strbtvc	r5, [r3], -r0, lsl #30
 a2c:	66756274 			; <UNDEFINED> instruction: 0x66756274
 a30:	6f682f00 	svcvs	0x00682f00
 a34:	652f656d 	strvs	r6, [pc, #-1389]!	; 4cf <__code_start__-0x7b31>
 a38:	656c676e 	strbvs	r6, [ip, #-1902]!	; 0x76e
 a3c:	6c632f72 	stclvs	15, cr2, [r3], #-456	; 0xfffffe38
 a40:	2f737361 	svccs	0x00737361
 a44:	34327363 	ldrtcc	r7, [r2], #-867	; 0x363
 a48:	2d786c30 	ldclcs	12, cr6, [r8, #-192]!	; 0xffffff40
 a4c:	70733032 	rsbsvc	r3, r3, r2, lsr r0
 a50:	696c2f72 	stmdbvs	ip!, {r1, r4, r5, r6, r8, r9, sl, fp, sp}^
 a54:	2f697062 	svccs	0x00697062
 a58:	66617473 			; <UNDEFINED> instruction: 0x66617473
 a5c:	72702d66 	rsbsvc	r2, r0, #6528	; 0x1980
 a60:	74617669 	strbtvc	r7, [r1], #-1641	; 0x669
 a64:	6d5f0065 	ldclvs	0, cr0, [pc, #-404]	; 8d8 <__code_start__-0x7728>
 a68:	74727362 	ldrbtvc	r7, [r2], #-866	; 0x362
 a6c:	7363776f 	cmnvc	r3, #29097984	; 0x1bc0000
 a70:	6174735f 	cmnvs	r4, pc, asr r3
 a74:	5f006574 	svcpl	0x00006574
 a78:	6c72626d 	lfmvs	f6, 2, [r2], #-436	; 0xfffffe4c
 a7c:	735f6e65 	cmpvc	pc, #1616	; 0x650
 a80:	65746174 	ldrbvs	r6, [r4, #-372]!	; 0x174
 a84:	6e665f00 	cdpvs	15, 6, cr5, cr6, cr0, {0}
 a88:	73677261 	cmnvc	r7, #268435462	; 0x10000006
 a8c:	78756100 	ldmdavc	r5!, {r8, sp, lr}^
 a90:	616e655f 	cmnvs	lr, pc, asr r5
 a94:	73656c62 	cmnvc	r5, #25088	; 0x6200
 a98:	6e665f00 	cdpvs	15, 6, cr5, cr6, cr0, {0}
 a9c:	735f0073 	cmpvc	pc, #115	; 0x73
 aa0:	006e6769 	rsbeq	r6, lr, r9, ror #14
 aa4:	74726175 	ldrbtvc	r6, [r2], #-373	; 0x175
 aa8:	6e61635f 	mcrvs	3, 3, r6, cr1, cr15, {2}
 aac:	7475705f 	ldrbtvc	r7, [r5], #-95	; 0x5f
 ab0:	665f0063 	ldrbvs	r0, [pc], -r3, rrx
 ab4:	6b636f6c 	blvs	18dc86c <__bss_end__+0x18d28ac>
 ab8:	5f00745f 	svcpl	0x0000745f
 abc:	65647473 	strbvs	r7, [r4, #-1139]!	; 0x473
 ac0:	5f007272 	svcpl	0x00007272
 ac4:	69676942 	stmdbvs	r7!, {r1, r6, r8, fp, sp, lr}^
 ac8:	5f00746e 	svcpl	0x0000746e
 acc:	6d6d6167 	stfvse	f6, [sp, #-412]!	; 0xfffffe64
 ad0:	69735f61 	ldmdbvs	r3!, {r0, r5, r6, r8, r9, sl, fp, ip, lr}^
 ad4:	61676e67 	cmnvs	r7, r7, ror #28
 ad8:	725f006d 	subsvc	r0, pc, #109	; 0x6d
 adc:	6c757365 	ldclvs	3, cr7, [r5], #-404	; 0xfffffe6c
 ae0:	006b5f74 	rsbeq	r5, fp, r4, ror pc
 ae4:	6d745f5f 	ldclvs	15, cr5, [r4, #-380]!	; 0xfffffe84
 ae8:	775f5f00 	ldrbvc	r5, [pc, -r0, lsl #30]
 aec:	00626863 	rsbeq	r6, r2, r3, ror #16
 af0:	74726175 	ldrbtvc	r6, [r2], #-373	; 0x175
 af4:	7465675f 	strbtvc	r6, [r5], #-1887	; 0x75f
 af8:	735f0063 	cmpvc	pc, #99	; 0x63
 afc:	756f6474 	strbvc	r6, [pc, #-1140]!	; 690 <__code_start__-0x7970>
 b00:	635f0074 	cmpvs	pc, #116	; 0x74
 b04:	656c7476 	strbvs	r7, [ip, #-1142]!	; 0x476
 b08:	665f006e 	ldrbvs	r0, [pc], -lr, rrx
 b0c:	00656c69 	rsbeq	r6, r5, r9, ror #24
 b10:	6f696e5f 	svcvs	0x00696e5f
 b14:	5f007362 	svcpl	0x00007362
 b18:	78657461 	stmdavc	r5!, {r0, r5, r6, sl, ip, sp, lr}^
 b1c:	00307469 	eorseq	r7, r0, r9, ror #8
 b20:	6769735f 			; <UNDEFINED> instruction: 0x6769735f
 b24:	5f6c616e 	svcpl	0x006c616e
 b28:	00667562 	rsbeq	r7, r6, r2, ror #10
 b2c:	6373615f 	cmnvs	r3, #-1073741801	; 0xc0000017
 b30:	656d6974 	strbvs	r6, [sp, #-2420]!	; 0x974
 b34:	6675625f 			; <UNDEFINED> instruction: 0x6675625f
 b38:	65725f00 	ldrbvs	r5, [r2, #-3840]!	; 0xf00
 b3c:	746c7573 	strbtvc	r7, [ip], #-1395	; 0x573
 b40:	775f5f00 	ldrbvc	r5, [pc, -r0, lsl #30]
 b44:	47006863 	strmi	r6, [r0, -r3, ror #16]
 b48:	5f4f4950 	svcpl	0x004f4950
 b4c:	434e5546 	movtmi	r5, #58694	; 0xe546
 b50:	544c415f 	strbpl	r4, [ip], #-351	; 0x15f
 b54:	69770032 	ldmdbvs	r7!, {r1, r4, r5}^
 b58:	745f746e 	ldrbvc	r7, [pc], #-1134	; b60 <__code_start__-0x74a0>
 b5c:	6f6c5f00 	svcvs	0x006c5f00
 b60:	5f006b63 	svcpl	0x00006b63
 b64:	67616c66 	strbvs	r6, [r1, -r6, ror #24]!
 b68:	5f003273 	svcpl	0x00003273
 b6c:	5f6d745f 	svcpl	0x006d745f
 b70:	72616579 	rsbvc	r6, r1, #507510784	; 0x1e400000
 b74:	666f5f00 	strbtvs	r5, [pc], -r0, lsl #30
 b78:	74657366 	strbtvc	r7, [r5], #-870	; 0x366
 b7c:	69706700 	ldmdbvs	r0!, {r8, r9, sl, sp, lr}^
 b80:	65735f6f 	ldrbvs	r5, [r3, #-3951]!	; 0xf6f
 b84:	75665f74 	strbvc	r5, [r6, #-3956]!	; 0xf74
 b88:	6974636e 	ldmdbvs	r4!, {r1, r2, r3, r5, r6, r8, r9, sp, lr}^
 b8c:	5f006e6f 	svcpl	0x00006e6f
 b90:	7478656e 	ldrbtvc	r6, [r8], #-1390	; 0x56e
 b94:	5f5f0066 	svcpl	0x005f0066
 b98:	6d5f6d74 	ldclvs	13, cr6, [pc, #-464]	; 9d0 <__code_start__-0x7630>
 b9c:	5f006e6f 	svcpl	0x00006e6f
 ba0:	78657461 	stmdavc	r5!, {r0, r5, r6, sl, ip, sp, lr}^
 ba4:	5f007469 	svcpl	0x00007469
 ba8:	6964735f 	stmdbvs	r4!, {r0, r1, r2, r3, r4, r6, r8, r9, ip, sp, lr}^
 bac:	696e6964 	stmdbvs	lr!, {r2, r5, r6, r8, fp, sp, lr}^
 bb0:	6f5f0074 	svcvs	0x005f0074
 bb4:	745f6666 	ldrbvc	r6, [pc], #-1638	; bbc <__code_start__-0x7444>
 bb8:	72617500 	rsbvc	r7, r1, #0, 10
 bbc:	665f0074 			; <UNDEFINED> instruction: 0x665f0074
 bc0:	6c656572 	cfstr64vs	mvdx6, [r5], #-456	; 0xfffffe38
 bc4:	00747369 	rsbseq	r7, r4, r9, ror #6
 bc8:	434f4c5f 	movtmi	r4, #64607	; 0xfc5f
 bcc:	45525f4b 	ldrbmi	r5, [r2, #-3915]	; 0xf4b
 bd0:	53525543 	cmppl	r2, #281018368	; 0x10c00000
 bd4:	5f455649 	svcpl	0x00455649
 bd8:	6e5f0054 	mrcvs	0, 2, r0, cr15, cr4, {2}
 bdc:	5f007765 	svcpl	0x00007765
 be0:	72655f68 	rsbvc	r5, r5, #104, 30	; 0x1a0
 be4:	006f6e72 	rsbeq	r6, pc, r2, ror lr	; <UNPREDICTABLE>
 be8:	6d745f5f 	ldclvs	15, cr5, [r4, #-380]!	; 0xfffffe84
 bec:	6164795f 	cmnvs	r4, pc, asr r9
 bf0:	5f5f0079 	svcpl	0x005f0079
 bf4:	66756273 			; <UNDEFINED> instruction: 0x66756273
 bf8:	6f695f00 	svcvs	0x00695f00
 bfc:	5f007362 	svcpl	0x00007362
 c00:	4c49465f 	mcrrmi	6, 5, r4, r9, cr15
 c04:	6d5f0045 	ldclvs	0, cr0, [pc, #-276]	; af8 <__code_start__-0x7508>
 c08:	61747362 	cmnvs	r4, r2, ror #6
 c0c:	745f6574 	ldrbvc	r6, [pc], #-1396	; c14 <__code_start__-0x73ec>
 c10:	735f5f00 	cmpvc	pc, #0, 30
 c14:	454c4946 	strbmi	r4, [ip, #-2374]	; 0x946
 c18:	626d5f00 	rsbvs	r5, sp, #0, 30
 c1c:	74617473 	strbtvc	r7, [r1], #-1139	; 0x473
 c20:	725f0065 	subsvc	r0, pc, #101	; 0x65
 c24:	5f646e61 	svcpl	0x00646e61
 c28:	7478656e 	ldrbtvc	r6, [r8], #-1390	; 0x56e
 c2c:	626d5f00 	rsbvs	r5, sp, #0, 30
 c30:	5f6e656c 	svcpl	0x006e656c
 c34:	74617473 	strbtvc	r7, [r1], #-1139	; 0x473
 c38:	695f0065 	ldmdbvs	pc, {r0, r2, r5, r6}^	; <UNPREDICTABLE>
 c3c:	5f00636e 	svcpl	0x0000636e
 c40:	00646e69 	rsbeq	r6, r4, r9, ror #28
 c44:	7275635f 	rsbsvc	r6, r5, #2080374785	; 0x7c000001
 c48:	746e6572 	strbtvc	r6, [lr], #-1394	; 0x572
 c4c:	636f6c5f 	cmnvs	pc, #24320	; 0x5f00
 c50:	00656c61 	rsbeq	r6, r5, r1, ror #24
 c54:	6c635f5f 	stclvs	15, cr5, [r3], #-380	; 0xfffffe84
 c58:	756e6165 	strbvc	r6, [lr, #-357]!	; 0x165
 c5c:	6d5f0070 	ldclvs	0, cr0, [pc, #-448]	; aa4 <__code_start__-0x755c>
 c60:	64777861 	ldrbtvs	r7, [r7], #-2145	; 0x861
 c64:	725f0073 	subsvc	r0, pc, #115	; 0x73
 c68:	746e6565 	strbtvc	r6, [lr], #-1381	; 0x565
 c6c:	65735f00 	ldrbvs	r5, [r3, #-3840]!	; 0xf00
 c70:	5f006465 	svcpl	0x00006465
 c74:	756f635f 	strbvc	r6, [pc, #-863]!	; 91d <__code_start__-0x76e3>
 c78:	5f00746e 	svcpl	0x0000746e
 c7c:	6c61765f 	stclvs	6, cr7, [r1], #-380	; 0xfffffe84
 c80:	5f006575 	svcpl	0x00006575
 c84:	6b656573 	blvs	195a258 <__bss_end__+0x1950298>
 c88:	75616200 	strbvc	r6, [r1, #-512]!	; 0x200
 c8c:	665f0064 	ldrbvs	r0, [pc], -r4, rrx
 c90:	5f736f70 	svcpl	0x00736f70
 c94:	5f5f0074 	svcpl	0x005f0074
 c98:	6d5f6d74 	ldclvs	13, cr6, [pc, #-464]	; ad0 <__code_start__-0x7530>
 c9c:	73006e69 	movwvc	r6, #3689	; 0xe69
 ca0:	74617263 	strbtvc	r7, [r1], #-611	; 0x263
 ca4:	5f006863 	svcpl	0x00006863
 ca8:	746c756d 	strbtvc	r7, [ip], #-1389	; 0x56d
 cac:	74757000 	ldrbtvc	r7, [r5], #-0
 cb0:	47003233 	smladxmi	r0, r3, r2, r3
 cb4:	4320554e 	teqmi	r0, #327155712	; 0x13800000
 cb8:	36203939 			; <UNDEFINED> instruction: 0x36203939
 cbc:	312e332e 	teqcc	lr, lr, lsr #6
 cc0:	31303220 	teqcc	r0, r0, lsr #4
 cc4:	32363037 	eorscc	r3, r6, #55	; 0x37
 cc8:	6d2d2030 	stcvs	0, cr2, [sp, #-192]!	; 0xffffff40
 ccc:	3d757063 	ldclcc	0, cr7, [r5, #-396]!	; 0xfffffe74
 cd0:	316d7261 	cmncc	sp, r1, ror #4
 cd4:	6a363731 	bvs	d8e9a0 <__bss_end__+0xd849e0>
 cd8:	732d667a 	teqvc	sp, #127926272	; 0x7a00000
 cdc:	746d2d20 	strbtvc	r2, [sp], #-3360	; 0xd20
 ce0:	3d656e75 	stclcc	14, cr6, [r5, #-468]!	; 0xfffffe2c
 ce4:	316d7261 	cmncc	sp, r1, ror #4
 ce8:	6a363731 	bvs	d8e9b4 <__bss_end__+0xd849f4>
 cec:	732d667a 	teqvc	sp, #127926272	; 0x7a00000
 cf0:	67672d20 	strbvs	r2, [r7, -r0, lsr #26]!
 cf4:	2d206264 	sfmcs	f6, 4, [r0, #-400]!	; 0xfffffe70
 cf8:	2d20674f 	stccs	7, cr6, [r0, #-316]!	; 0xfffffec4
 cfc:	3d647473 	cfstrdcc	mvd7, [r4, #-460]!	; 0xfffffe34
 d00:	39756e67 	ldmdbcc	r5!, {r0, r1, r2, r5, r6, r9, sl, fp, sp, lr}^
 d04:	662d2039 			; <UNDEFINED> instruction: 0x662d2039
 d08:	65657266 	strbvs	r7, [r5, #-614]!	; 0x266
 d0c:	6e617473 	mcrvs	4, 3, r7, cr1, cr3, {3}
 d10:	676e6964 	strbvs	r6, [lr, -r4, ror #18]!
 d14:	74735f00 	ldrbtvc	r5, [r3], #-3840	; 0xf00
 d18:	6b6f7472 	blvs	1bddee8 <__bss_end__+0x1bd3f28>
 d1c:	73616c5f 	cmnvc	r1, #24320	; 0x5f00
 d20:	665f0074 			; <UNDEFINED> instruction: 0x665f0074
 d24:	7079746e 	rsbsvc	r7, r9, lr, ror #8
 d28:	5f007365 	svcpl	0x00007365
 d2c:	00646461 	rsbeq	r6, r4, r1, ror #8
 d30:	4c555f5f 	mrrcmi	15, 5, r5, r5, cr15	; <UNPREDICTABLE>
 d34:	00676e6f 	rsbeq	r6, r7, pc, ror #28
 d38:	7465675f 	strbtvc	r6, [r5], #-1887	; 0x75f
 d3c:	65746164 	ldrbvs	r6, [r4, #-356]!	; 0x164
 d40:	7272655f 	rsbsvc	r6, r2, #398458880	; 0x17c00000
 d44:	6c675f00 	stclvs	15, cr5, [r7], #-0
 d48:	6c61626f 	sfmvs	f6, 2, [r1], #-444	; 0xfffffe44
 d4c:	706d695f 	rsbvc	r6, sp, pc, asr r9
 d50:	5f657275 	svcpl	0x00657275
 d54:	00727470 	rsbseq	r7, r2, r0, ror r4
 d58:	7275635f 	rsbsvc	r6, r5, #2080374785	; 0x7c000001
 d5c:	746e6572 	strbtvc	r6, [lr], #-1394	; 0x572
 d60:	7461635f 	strbtvc	r6, [r1], #-863	; 0x35f
 d64:	726f6765 	rsbvc	r6, pc, #26476544	; 0x1940000
 d68:	755f0079 	ldrbvc	r0, [pc, #-121]	; cf7 <__code_start__-0x7309>
 d6c:	6573756e 	ldrbvs	r7, [r3, #-1390]!	; 0x56e
 d70:	61725f64 	cmnvs	r2, r4, ror #30
 d74:	5f00646e 	svcpl	0x0000646e
 d78:	00736477 	rsbseq	r6, r3, r7, ror r4
 d7c:	6d745f5f 	ldclvs	15, cr5, [r4, #-380]!	; 0xfffffe84
 d80:	6164775f 	cmnvs	r4, pc, asr r7
 d84:	675f0079 			; <UNDEFINED> instruction: 0x675f0079
 d88:	0065756c 	rsbeq	r7, r5, ip, ror #10
 d8c:	4f495047 	svcmi	0x00495047
 d90:	4e55465f 	mrcmi	6, 2, r4, cr5, cr15, {2}
 d94:	554f5f43 	strbpl	r5, [pc, #-3907]	; fffffe59 <__bss_end__+0xffff5e99>
 d98:	54555054 	ldrbpl	r5, [r5], #-84	; 0x54
 d9c:	6d6e5f00 	stclvs	15, cr5, [lr, #-0]
 da0:	6f6c6c61 	svcvs	0x006c6c61
 da4:	6c5f0063 	mrrcvs	0, 6, r0, pc, cr3	; <UNPREDICTABLE>
 da8:	5f613436 	svcpl	0x00613436
 dac:	00667562 	rsbeq	r7, r6, r2, ror #10
 db0:	33746567 	cmncc	r4, #432013312	; 0x19c00000
 db4:	61750032 	cmnvs	r5, r2, lsr r0
 db8:	635f7472 	cmpvs	pc, #1912602624	; 0x72000000
 dbc:	675f6e61 	ldrbvs	r6, [pc, -r1, ror #28]
 dc0:	00637465 	rsbeq	r7, r3, r5, ror #8
 dc4:	6769735f 			; <UNDEFINED> instruction: 0x6769735f
 dc8:	6e75665f 	mrcvs	6, 3, r6, cr5, cr15, {2}
 dcc:	726f0063 	rsbvc	r0, pc, #99	; 0x63
 dd0:	336e695f 	cmncc	lr, #1556480	; 0x17c000
 dd4:	61750032 	cmnvs	r5, r2, lsr r0
 dd8:	685f7472 	ldmdavs	pc, {r1, r4, r5, r6, sl, ip, sp, lr}^	; <UNPREDICTABLE>
 ddc:	645f7361 	ldrbvs	r7, [pc], #-865	; de4 <__code_start__-0x721c>
 de0:	00617461 	rsbeq	r7, r1, r1, ror #8
 de4:	4f495047 	svcmi	0x00495047
 de8:	4e55465f 	mrcmi	6, 2, r4, cr5, cr15, {2}
 dec:	4c415f43 	mcrrmi	15, 4, r5, r1, cr3
 df0:	5f003054 	svcpl	0x00003054
 df4:	6675626e 	ldrbtvs	r6, [r5], -lr, ror #4
 df8:	6e755f00 	cdpvs	15, 7, cr5, cr5, cr0, {0}
 dfc:	64657375 	strbtvs	r7, [r5], #-885	; 0x375
 e00:	49504700 	ldmdbmi	r0, {r8, r9, sl, lr}^
 e04:	55465f4f 	strbpl	r5, [r6, #-3919]	; 0xf4f
 e08:	415f434e 	cmpmi	pc, lr, asr #6
 e0c:	0033544c 	eorseq	r5, r3, ip, asr #8
 e10:	4f495047 	svcmi	0x00495047
 e14:	4e55465f 	mrcmi	6, 2, r4, cr5, cr15, {2}
 e18:	4c415f43 	mcrrmi	15, 4, r5, r1, cr3
 e1c:	47003454 	smlsdmi	r0, r4, r4, r3
 e20:	5f4f4950 	svcpl	0x004f4950
 e24:	434e5546 	movtmi	r5, #58694	; 0xe546
 e28:	544c415f 	strbpl	r4, [ip], #-351	; 0x15f
 e2c:	5f5f0035 	svcpl	0x005f0035
 e30:	695f6d74 	ldmdbvs	pc, {r2, r4, r5, r6, r8, sl, fp, sp, lr}^	; <UNPREDICTABLE>
 e34:	74736473 	ldrbtvc	r6, [r3], #-1139	; 0x473
 e38:	6f6c5f00 	svcvs	0x006c5f00
 e3c:	746c6163 	strbtvc	r6, [ip], #-355	; 0x163
 e40:	5f656d69 	svcpl	0x00656d69
 e44:	00667562 	rsbeq	r7, r6, r2, ror #10
 e48:	6f6c635f 	svcvs	0x006c635f
 e4c:	5f006573 	svcpl	0x00006573
 e50:	00383472 	eorseq	r3, r8, r2, ror r4
 e54:	74626d5f 	strbtvc	r6, [r2], #-3423	; 0xd5f
 e58:	5f63776f 	svcpl	0x0063776f
 e5c:	74617473 	strbtvc	r7, [r1], #-1139	; 0x473
 e60:	705f0065 	subsvc	r0, pc, r5, rrx
 e64:	5f007335 	svcpl	0x00007335
 e68:	5f6d745f 	svcpl	0x006d745f
 e6c:	7961646d 	stmdbvc	r1!, {r0, r2, r3, r5, r6, sl, sp, lr}^
 e70:	69706700 	ldmdbvs	r0!, {r8, r9, sl, sp, lr}^
 e74:	65735f6f 	ldrbvs	r5, [r3, #-3951]!	; 0xf6f
 e78:	666f5f74 	uqsub16vs	r5, pc, r4	; <UNPREDICTABLE>
 e7c:	61620066 	cmnvs	r2, r6, rrx
 e80:	67006b6e 	strvs	r6, [r0, -lr, ror #22]
 e84:	2e6f6970 	mcrcs	9, 3, r6, cr15, cr0, {3}
 e88:	70670063 	rsbvc	r0, r7, r3, rrx
 e8c:	725f6f69 	subsvc	r6, pc, #420	; 0x1a4
 e90:	00646165 	rsbeq	r6, r4, r5, ror #2
 e94:	6f697067 	svcvs	0x00697067
 e98:	7465735f 	strbtvc	r7, [r5], #-863	; 0x35f
 e9c:	74756f5f 	ldrbtvc	r6, [r5], #-3935	; 0xf5f
 ea0:	00747570 	rsbseq	r7, r4, r0, ror r5
 ea4:	6f697067 	svcvs	0x00697067
 ea8:	6972775f 	ldmdbvs	r2!, {r0, r1, r2, r3, r4, r6, r8, r9, sl, ip, sp, lr}^
 eac:	67006574 	smlsdxvs	r0, r4, r5, r6
 eb0:	5f6f6970 	svcpl	0x006f6970
 eb4:	30746573 	rsbscc	r6, r4, r3, ror r5
 eb8:	69706700 	ldmdbvs	r0!, {r8, r9, sl, sp, lr}^
 ebc:	656c5f6f 	strbvs	r5, [ip, #-3951]!	; 0xf6f
 ec0:	67003076 	smlsdxvs	r0, r6, r0, r3
 ec4:	5f6f6970 	svcpl	0x006f6970
 ec8:	5f746573 	svcpl	0x00746573
 ecc:	75706e69 	ldrbvc	r6, [r0, #-3689]!	; 0xe69
 ed0:	70670074 	rsbvc	r0, r7, r4, ror r0
 ed4:	735f6f69 	cmpvc	pc, #420	; 0x1a4
 ed8:	6f5f7465 	svcvs	0x005f7465
 edc:	7067006e 	rsbvc	r0, r7, lr, rrx
 ee0:	665f6f69 	ldrbvs	r6, [pc], -r9, ror #30
 ee4:	5f636e75 	svcpl	0x00636e75
 ee8:	70670074 	rsbvc	r0, r7, r4, ror r0
 eec:	635f6f69 	cmpvs	pc, #420	; 0x1a4
 ef0:	0030726c 	eorseq	r7, r0, ip, ror #4

Disassembly of section .debug_frame:

00000000 <.debug_frame>:
   0:	0000000c 	andeq	r0, r0, ip
   4:	ffffffff 			; <UNDEFINED> instruction: 0xffffffff
   8:	7c020001 	stcvc	0, cr0, [r2], {1}
   c:	000d0c0e 	andeq	r0, sp, lr, lsl #24
  10:	00000014 	andeq	r0, r0, r4, lsl r0
  14:	00000000 	andeq	r0, r0, r0
  18:	00008020 	andeq	r8, r0, r0, lsr #32
  1c:	0000007c 	andeq	r0, r0, ip, ror r0
  20:	83080e42 	movwhi	r0, #36418	; 0x8e42
  24:	00018e02 	andeq	r8, r1, r2, lsl #28
  28:	00000018 	andeq	r0, r0, r8, lsl r0
  2c:	00000000 	andeq	r0, r0, r0
  30:	0000809c 	muleq	r0, ip, r0
  34:	00000170 	andeq	r0, r0, r0, ror r1
  38:	84080e42 	strhi	r0, [r8], #-3650	; 0xe42
  3c:	42018e02 	andmi	r8, r1, #2, 28
  40:	0000100e 	andeq	r1, r0, lr
  44:	00000018 	andeq	r0, r0, r8, lsl r0
  48:	00000000 	andeq	r0, r0, r0
  4c:	0000820c 	andeq	r8, r0, ip, lsl #4
  50:	0000022c 	andeq	r0, r0, ip, lsr #4
  54:	840c0e42 	strhi	r0, [ip], #-3650	; 0xe42
  58:	8e028503 	cfsh32hi	mvfx8, mvfx2, #3
  5c:	180e4201 	stmdane	lr, {r0, r9, lr}
  60:	0000000c 	andeq	r0, r0, ip
  64:	ffffffff 			; <UNDEFINED> instruction: 0xffffffff
  68:	7c020001 	stcvc	0, cr0, [r2], {1}
  6c:	000d0c0e 	andeq	r0, sp, lr, lsl #24
  70:	00000014 	andeq	r0, r0, r4, lsl r0
  74:	00000060 	andeq	r0, r0, r0, rrx
  78:	00008438 	andeq	r8, r0, r8, lsr r4
  7c:	000000b0 	strheq	r0, [r0], -r0	; <UNPREDICTABLE>
  80:	8e040e42 	cdphi	14, 0, cr0, cr4, cr2, {2}
  84:	100e4201 	andne	r4, lr, r1, lsl #4
  88:	00000014 	andeq	r0, r0, r4, lsl r0
  8c:	00000060 	andeq	r0, r0, r0, rrx
  90:	000084e8 	andeq	r8, r0, r8, ror #9
  94:	000000dc 	ldrdeq	r0, [r0], -ip
  98:	8e040e42 	cdphi	14, 0, cr0, cr4, cr2, {2}
  9c:	100e4201 	andne	r4, lr, r1, lsl #4
  a0:	00000014 	andeq	r0, r0, r4, lsl r0
  a4:	00000060 	andeq	r0, r0, r0, rrx
  a8:	000085c4 	andeq	r8, r0, r4, asr #11
  ac:	0000003c 	andeq	r0, r0, ip, lsr r0
  b0:	83080e42 	movwhi	r0, #36418	; 0x8e42
  b4:	00018e02 	andeq	r8, r1, r2, lsl #28
  b8:	0000000c 	andeq	r0, r0, ip
  bc:	00000060 	andeq	r0, r0, r0, rrx
  c0:	00008600 	andeq	r8, r0, r0, lsl #12
  c4:	00000034 	andeq	r0, r0, r4, lsr r0
  c8:	00000014 	andeq	r0, r0, r4, lsl r0
  cc:	00000060 	andeq	r0, r0, r0, rrx
  d0:	00008634 	andeq	r8, r0, r4, lsr r6
  d4:	00000098 	muleq	r0, r8, r0
  d8:	8e040e42 	cdphi	14, 0, cr0, cr4, cr2, {2}
  dc:	100e4201 	andne	r4, lr, r1, lsl #4
  e0:	0000000c 	andeq	r0, r0, ip
  e4:	00000060 	andeq	r0, r0, r0, rrx
  e8:	000086cc 	andeq	r8, r0, ip, asr #13
  ec:	00000004 	andeq	r0, r0, r4
  f0:	00000014 	andeq	r0, r0, r4, lsl r0
  f4:	00000060 	andeq	r0, r0, r0, rrx
  f8:	000086d0 	ldrdeq	r8, [r0], -r0
  fc:	0000002c 	andeq	r0, r0, ip, lsr #32
 100:	83080e42 	movwhi	r0, #36418	; 0x8e42
 104:	00018e02 	andeq	r8, r1, r2, lsl #28
 108:	0000000c 	andeq	r0, r0, ip
 10c:	00000060 	andeq	r0, r0, r0, rrx
 110:	000086fc 	strdeq	r8, [r0], -ip
 114:	00000034 	andeq	r0, r0, r4, lsr r0
 118:	00000014 	andeq	r0, r0, r4, lsl r0
 11c:	00000060 	andeq	r0, r0, r0, rrx
 120:	00008730 	andeq	r8, r0, r0, lsr r7
 124:	0000002c 	andeq	r0, r0, ip, lsr #32
 128:	83080e42 	movwhi	r0, #36418	; 0x8e42
 12c:	00018e02 	andeq	r8, r1, r2, lsl #28
 130:	00000014 	andeq	r0, r0, r4, lsl r0
 134:	00000060 	andeq	r0, r0, r0, rrx
 138:	0000875c 	andeq	r8, r0, ip, asr r7
 13c:	00000030 	andeq	r0, r0, r0, lsr r0
 140:	83080e42 	movwhi	r0, #36418	; 0x8e42
 144:	00018e02 	andeq	r8, r1, r2, lsl #28
 148:	0000000c 	andeq	r0, r0, ip
 14c:	ffffffff 			; <UNDEFINED> instruction: 0xffffffff
 150:	7c020001 	stcvc	0, cr0, [r2], {1}
 154:	000d0c0e 	andeq	r0, sp, lr, lsl #24
 158:	00000024 	andeq	r0, r0, r4, lsr #32
 15c:	00000148 	andeq	r0, r0, r8, asr #2
 160:	00008894 	muleq	r0, r4, r8
 164:	00000058 	andeq	r0, r0, r8, asr r0
 168:	80100e42 	andshi	r0, r0, r2, asr #28
 16c:	82038104 	andhi	r8, r3, #4, 2
 170:	42018302 	andmi	r8, r1, #134217728	; 0x8000000
 174:	07841c0e 	streq	r1, [r4, lr, lsl #24]
 178:	058e0685 	streq	r0, [lr, #1669]	; 0x685
 17c:	00280e42 	eoreq	r0, r8, r2, asr #28
 180:	0000000c 	andeq	r0, r0, ip
 184:	ffffffff 			; <UNDEFINED> instruction: 0xffffffff
 188:	7c020001 	stcvc	0, cr0, [r2], {1}
 18c:	000d0c0e 	andeq	r0, sp, lr, lsl #24
 190:	00000014 	andeq	r0, r0, r4, lsl r0
 194:	00000180 	andeq	r0, r0, r0, lsl #3
 198:	000088ec 	andeq	r8, r0, ip, ror #17
 19c:	00000014 	andeq	r0, r0, r4, lsl r0
 1a0:	84080e42 	strhi	r0, [r8], #-3650	; 0xe42
 1a4:	00018e02 	andeq	r8, r1, r2, lsl #28
 1a8:	0000000c 	andeq	r0, r0, ip
 1ac:	00000180 	andeq	r0, r0, r0, lsl #3
 1b0:	00008900 	andeq	r8, r0, r0, lsl #18
 1b4:	00000018 	andeq	r0, r0, r8, lsl r0
 1b8:	0000000c 	andeq	r0, r0, ip
 1bc:	00000180 	andeq	r0, r0, r0, lsl #3
 1c0:	00008918 	andeq	r8, r0, r8, lsl r9
 1c4:	00000010 	andeq	r0, r0, r0, lsl r0
 1c8:	0000000c 	andeq	r0, r0, ip
 1cc:	ffffffff 			; <UNDEFINED> instruction: 0xffffffff
 1d0:	7c020001 	stcvc	0, cr0, [r2], {1}
 1d4:	000d0c0e 	andeq	r0, sp, lr, lsl #24
 1d8:	00000018 	andeq	r0, r0, r8, lsl r0
 1dc:	000001c8 	andeq	r0, r0, r8, asr #3
 1e0:	00008928 	andeq	r8, r0, r8, lsr #18
 1e4:	00000034 	andeq	r0, r0, r4, lsr r0
 1e8:	83100e42 	tsthi	r0, #1056	; 0x420
 1ec:	85038404 	strhi	r8, [r3, #-1028]	; 0x404
 1f0:	00018e02 	andeq	r8, r1, r2, lsl #28
 1f4:	0000000c 	andeq	r0, r0, ip
 1f8:	ffffffff 			; <UNDEFINED> instruction: 0xffffffff
 1fc:	7c020001 	stcvc	0, cr0, [r2], {1}
 200:	000d0c0e 	andeq	r0, sp, lr, lsl #24
 204:	0000000c 	andeq	r0, r0, ip
 208:	000001f4 	strdeq	r0, [r0], -r4
 20c:	0000895c 	andeq	r8, r0, ip, asr r9
 210:	00000014 	andeq	r0, r0, r4, lsl r0
 214:	0000000c 	andeq	r0, r0, ip
 218:	000001f4 	strdeq	r0, [r0], -r4
 21c:	00008970 	andeq	r8, r0, r0, ror r9
 220:	0000002c 	andeq	r0, r0, ip, lsr #32
 224:	0000000c 	andeq	r0, r0, ip
 228:	000001f4 	strdeq	r0, [r0], -r4
 22c:	0000899c 	muleq	r0, ip, r9
 230:	00000040 	andeq	r0, r0, r0, asr #32
 234:	00000020 	andeq	r0, r0, r0, lsr #32
 238:	000001f4 	strdeq	r0, [r0], -r4
 23c:	000089dc 	ldrdeq	r8, [r0], -ip
 240:	000001bc 			; <UNDEFINED> instruction: 0x000001bc
 244:	84180e42 	ldrhi	r0, [r8], #-3650	; 0xe42
 248:	86058506 	strhi	r8, [r5], -r6, lsl #10
 24c:	88038704 	stmdahi	r3, {r2, r8, r9, sl, pc}
 250:	42018e02 	andmi	r8, r1, #2, 28
 254:	0000600e 	andeq	r6, r0, lr
 258:	00000014 	andeq	r0, r0, r4, lsl r0
 25c:	000001f4 	strdeq	r0, [r0], -r4
 260:	00008b98 	muleq	r0, r8, fp
 264:	00000068 	andeq	r0, r0, r8, rrx
 268:	8e040e42 	cdphi	14, 0, cr0, cr4, cr2, {2}
 26c:	100e4201 	andne	r4, lr, r1, lsl #4
 270:	00000028 	andeq	r0, r0, r8, lsr #32
 274:	000001f4 	strdeq	r0, [r0], -r4
 278:	00008c00 	andeq	r8, r0, r0, lsl #24
 27c:	000002d4 	ldrdeq	r0, [r0], -r4
 280:	84240e42 	strthi	r0, [r4], #-3650	; 0xe42
 284:	86088509 	strhi	r8, [r8], -r9, lsl #10
 288:	88068707 	stmdahi	r6, {r0, r1, r2, r8, r9, sl, pc}
 28c:	8a048905 	bhi	1226a8 <__bss_end__+0x1186e8>
 290:	8e028b03 	vmlahi.f64	d8, d2, d3
 294:	b80e4201 	stmdalt	lr, {r0, r9, lr}
 298:	00000001 	andeq	r0, r0, r1
 29c:	0000000c 	andeq	r0, r0, ip
 2a0:	ffffffff 			; <UNDEFINED> instruction: 0xffffffff
 2a4:	7c020001 	stcvc	0, cr0, [r2], {1}
 2a8:	000d0c0e 	andeq	r0, sp, lr, lsl #24
 2ac:	0000000c 	andeq	r0, r0, ip
 2b0:	0000029c 	muleq	r0, ip, r2
 2b4:	00008ed4 	ldrdeq	r8, [r0], -r4
 2b8:	00000010 	andeq	r0, r0, r0, lsl r0
 2bc:	0000000c 	andeq	r0, r0, ip
 2c0:	0000029c 	muleq	r0, ip, r2
 2c4:	00008ee4 	andeq	r8, r0, r4, ror #29
 2c8:	00000010 	andeq	r0, r0, r0, lsl r0
 2cc:	0000000c 	andeq	r0, r0, ip
 2d0:	ffffffff 			; <UNDEFINED> instruction: 0xffffffff
 2d4:	7c020001 	stcvc	0, cr0, [r2], {1}
 2d8:	000d0c0e 	andeq	r0, sp, lr, lsl #24
 2dc:	00000014 	andeq	r0, r0, r4, lsl r0
 2e0:	000002cc 	andeq	r0, r0, ip, asr #5
 2e4:	00008ef4 	strdeq	r8, [r0], -r4
 2e8:	0000002c 	andeq	r0, r0, ip, lsr #32
 2ec:	83080e42 	movwhi	r0, #36418	; 0x8e42
 2f0:	00018e02 	andeq	r8, r1, r2, lsl #28
 2f4:	0000000c 	andeq	r0, r0, ip
 2f8:	ffffffff 			; <UNDEFINED> instruction: 0xffffffff
 2fc:	7c020001 	stcvc	0, cr0, [r2], {1}
 300:	000d0c0e 	andeq	r0, sp, lr, lsl #24
 304:	00000014 	andeq	r0, r0, r4, lsl r0
 308:	000002f4 	strdeq	r0, [r0], -r4
 30c:	00008f20 	andeq	r8, r0, r0, lsr #30
 310:	00000038 	andeq	r0, r0, r8, lsr r0
 314:	83080e42 	movwhi	r0, #36418	; 0x8e42
 318:	00018e02 	andeq	r8, r1, r2, lsl #28
 31c:	0000000c 	andeq	r0, r0, ip
 320:	ffffffff 			; <UNDEFINED> instruction: 0xffffffff
 324:	7c020001 	stcvc	0, cr0, [r2], {1}
 328:	000d0c0e 	andeq	r0, sp, lr, lsl #24
 32c:	00000014 	andeq	r0, r0, r4, lsl r0
 330:	0000031c 	andeq	r0, r0, ip, lsl r3
 334:	00008f58 	andeq	r8, r0, r8, asr pc
 338:	00000044 	andeq	r0, r0, r4, asr #32
 33c:	8e040e42 	cdphi	14, 0, cr0, cr4, cr2, {2}
 340:	100e4201 	andne	r4, lr, r1, lsl #4
 344:	0000000c 	andeq	r0, r0, ip
 348:	ffffffff 			; <UNDEFINED> instruction: 0xffffffff
 34c:	7c020001 	stcvc	0, cr0, [r2], {1}
 350:	000d0c0e 	andeq	r0, sp, lr, lsl #24
 354:	00000014 	andeq	r0, r0, r4, lsl r0
 358:	00000344 	andeq	r0, r0, r4, asr #6
 35c:	00008f9c 	muleq	r0, ip, pc	; <UNPREDICTABLE>
 360:	00000044 	andeq	r0, r0, r4, asr #32
 364:	8e040e42 	cdphi	14, 0, cr0, cr4, cr2, {2}
 368:	100e4201 	andne	r4, lr, r1, lsl #4
 36c:	0000000c 	andeq	r0, r0, ip
 370:	ffffffff 			; <UNDEFINED> instruction: 0xffffffff
 374:	7c020001 	stcvc	0, cr0, [r2], {1}
 378:	000d0c0e 	andeq	r0, sp, lr, lsl #24
 37c:	00000014 	andeq	r0, r0, r4, lsl r0
 380:	0000036c 	andeq	r0, r0, ip, ror #6
 384:	00008fe0 	andeq	r8, r0, r0, ror #31
 388:	00000044 	andeq	r0, r0, r4, asr #32
 38c:	8e040e42 	cdphi	14, 0, cr0, cr4, cr2, {2}
 390:	100e4201 	andne	r4, lr, r1, lsl #4
 394:	0000000c 	andeq	r0, r0, ip
 398:	ffffffff 			; <UNDEFINED> instruction: 0xffffffff
 39c:	7c020001 	stcvc	0, cr0, [r2], {1}
 3a0:	000d0c0e 	andeq	r0, sp, lr, lsl #24
 3a4:	00000014 	andeq	r0, r0, r4, lsl r0
 3a8:	00000394 	muleq	r0, r4, r3
 3ac:	00009024 	andeq	r9, r0, r4, lsr #32
 3b0:	00000044 	andeq	r0, r0, r4, asr #32
 3b4:	8e040e42 	cdphi	14, 0, cr0, cr4, cr2, {2}
 3b8:	100e4201 	andne	r4, lr, r1, lsl #4
 3bc:	0000000c 	andeq	r0, r0, ip
 3c0:	ffffffff 			; <UNDEFINED> instruction: 0xffffffff
 3c4:	7c020001 	stcvc	0, cr0, [r2], {1}
 3c8:	000d0c0e 	andeq	r0, sp, lr, lsl #24
 3cc:	0000000c 	andeq	r0, r0, ip
 3d0:	000003bc 			; <UNDEFINED> instruction: 0x000003bc
 3d4:	00009068 	andeq	r9, r0, r8, rrx
 3d8:	00000004 	andeq	r0, r0, r4
 3dc:	0000000c 	andeq	r0, r0, ip
 3e0:	000003bc 			; <UNDEFINED> instruction: 0x000003bc
 3e4:	0000906c 	andeq	r9, r0, ip, rrx
 3e8:	00000004 	andeq	r0, r0, r4
 3ec:	0000000c 	andeq	r0, r0, ip
 3f0:	ffffffff 			; <UNDEFINED> instruction: 0xffffffff
 3f4:	7c020001 	stcvc	0, cr0, [r2], {1}
 3f8:	000d0c0e 	andeq	r0, sp, lr, lsl #24
 3fc:	00000014 	andeq	r0, r0, r4, lsl r0
 400:	000003ec 	andeq	r0, r0, ip, ror #7
 404:	00009070 	andeq	r9, r0, r0, ror r0
 408:	0000006c 	andeq	r0, r0, ip, rrx
 40c:	83080e42 	movwhi	r0, #36418	; 0x8e42
 410:	00018e02 	andeq	r8, r1, r2, lsl #28
 414:	0000000c 	andeq	r0, r0, ip
 418:	ffffffff 			; <UNDEFINED> instruction: 0xffffffff
 41c:	7c020001 	stcvc	0, cr0, [r2], {1}
 420:	000d0c0e 	andeq	r0, sp, lr, lsl #24
 424:	0000000c 	andeq	r0, r0, ip
 428:	00000414 	andeq	r0, r0, r4, lsl r4
 42c:	000090dc 	ldrdeq	r9, [r0], -ip
 430:	00000018 	andeq	r0, r0, r8, lsl r0
 434:	0000000c 	andeq	r0, r0, ip
 438:	00000414 	andeq	r0, r0, r4, lsl r4
 43c:	000090f4 	strdeq	r9, [r0], -r4
 440:	00000014 	andeq	r0, r0, r4, lsl r0
 444:	00000014 	andeq	r0, r0, r4, lsl r0
 448:	00000414 	andeq	r0, r0, r4, lsl r4
 44c:	00009108 	andeq	r9, r0, r8, lsl #2
 450:	00000048 	andeq	r0, r0, r8, asr #32
 454:	83080e42 	movwhi	r0, #36418	; 0x8e42
 458:	00018e02 	andeq	r8, r1, r2, lsl #28
 45c:	0000000c 	andeq	r0, r0, ip
 460:	ffffffff 			; <UNDEFINED> instruction: 0xffffffff
 464:	7c020001 	stcvc	0, cr0, [r2], {1}
 468:	000d0c0e 	andeq	r0, sp, lr, lsl #24
 46c:	0000000c 	andeq	r0, r0, ip
 470:	0000045c 	andeq	r0, r0, ip, asr r4
 474:	00009150 	andeq	r9, r0, r0, asr r1
 478:	0000001c 	andeq	r0, r0, ip, lsl r0
 47c:	00000014 	andeq	r0, r0, r4, lsl r0
 480:	0000045c 	andeq	r0, r0, ip, asr r4
 484:	0000916c 	andeq	r9, r0, ip, ror #2
 488:	00000014 	andeq	r0, r0, r4, lsl r0
 48c:	83080e42 	movwhi	r0, #36418	; 0x8e42
 490:	00018e02 	andeq	r8, r1, r2, lsl #28
 494:	00000014 	andeq	r0, r0, r4, lsl r0
 498:	0000045c 	andeq	r0, r0, ip, asr r4
 49c:	00009180 	andeq	r9, r0, r0, lsl #3
 4a0:	0000001c 	andeq	r0, r0, ip, lsl r0
 4a4:	84080e42 	strhi	r0, [r8], #-3650	; 0xe42
 4a8:	00018e02 	andeq	r8, r1, r2, lsl #28
 4ac:	00000018 	andeq	r0, r0, r8, lsl r0
 4b0:	0000045c 	andeq	r0, r0, ip, asr r4
 4b4:	0000919c 	muleq	r0, ip, r1
 4b8:	00000024 	andeq	r0, r0, r4, lsr #32
 4bc:	83100e42 	tsthi	r0, #1056	; 0x420
 4c0:	85038404 	strhi	r8, [r3, #-1028]	; 0x404
 4c4:	00018e02 	andeq	r8, r1, r2, lsl #28
 4c8:	00000014 	andeq	r0, r0, r4, lsl r0
 4cc:	0000045c 	andeq	r0, r0, ip, asr r4
 4d0:	000091c0 	andeq	r9, r0, r0, asr #3
 4d4:	00000014 	andeq	r0, r0, r4, lsl r0
 4d8:	83080e42 	movwhi	r0, #36418	; 0x8e42
 4dc:	00018e02 	andeq	r8, r1, r2, lsl #28
 4e0:	00000014 	andeq	r0, r0, r4, lsl r0
 4e4:	0000045c 	andeq	r0, r0, ip, asr r4
 4e8:	000091d4 	ldrdeq	r9, [r0], -r4
 4ec:	00000014 	andeq	r0, r0, r4, lsl r0
 4f0:	83080e42 	movwhi	r0, #36418	; 0x8e42
 4f4:	00018e02 	andeq	r8, r1, r2, lsl #28
 4f8:	0000000c 	andeq	r0, r0, ip
 4fc:	ffffffff 			; <UNDEFINED> instruction: 0xffffffff
 500:	7c020001 	stcvc	0, cr0, [r2], {1}
 504:	000d0c0e 	andeq	r0, sp, lr, lsl #24
 508:	00000018 	andeq	r0, r0, r8, lsl r0
 50c:	000004f8 	strdeq	r0, [r0], -r8
 510:	0000924c 	andeq	r9, r0, ip, asr #4
 514:	00000020 	andeq	r0, r0, r0, lsr #32
 518:	84100e42 	ldrhi	r0, [r0], #-3650	; 0xe42
 51c:	86038504 	strhi	r8, [r3], -r4, lsl #10
 520:	00018e02 	andeq	r8, r1, r2, lsl #28
 524:	00000014 	andeq	r0, r0, r4, lsl r0
 528:	000004f8 	strdeq	r0, [r0], -r8
 52c:	0000926c 	andeq	r9, r0, ip, ror #4
 530:	000000b0 	strheq	r0, [r0], -r0	; <UNPREDICTABLE>
 534:	84080e42 	strhi	r0, [r8], #-3650	; 0xe42
 538:	00018e02 	andeq	r8, r1, r2, lsl #28
 53c:	00000014 	andeq	r0, r0, r4, lsl r0
 540:	000004f8 	strdeq	r0, [r0], -r8
 544:	0000931c 	andeq	r9, r0, ip, lsl r3
 548:	00000018 	andeq	r0, r0, r8, lsl r0
 54c:	84080e42 	strhi	r0, [r8], #-3650	; 0xe42
 550:	00018e02 	andeq	r8, r1, r2, lsl #28
 554:	00000014 	andeq	r0, r0, r4, lsl r0
 558:	000004f8 	strdeq	r0, [r0], -r8
 55c:	00009334 	andeq	r9, r0, r4, lsr r3
 560:	00000020 	andeq	r0, r0, r0, lsr #32
 564:	84080e42 	strhi	r0, [r8], #-3650	; 0xe42
 568:	00018e02 	andeq	r8, r1, r2, lsl #28
 56c:	00000014 	andeq	r0, r0, r4, lsl r0
 570:	000004f8 	strdeq	r0, [r0], -r8
 574:	00009354 	andeq	r9, r0, r4, asr r3
 578:	00000030 	andeq	r0, r0, r0, lsr r0
 57c:	84080e42 	strhi	r0, [r8], #-3650	; 0xe42
 580:	00018e02 	andeq	r8, r1, r2, lsl #28
 584:	00000014 	andeq	r0, r0, r4, lsl r0
 588:	000004f8 	strdeq	r0, [r0], -r8
 58c:	00009384 	andeq	r9, r0, r4, lsl #7
 590:	00000030 	andeq	r0, r0, r0, lsr r0
 594:	84080e42 	strhi	r0, [r8], #-3650	; 0xe42
 598:	00018e02 	andeq	r8, r1, r2, lsl #28
 59c:	00000014 	andeq	r0, r0, r4, lsl r0
 5a0:	000004f8 	strdeq	r0, [r0], -r8
 5a4:	000093b4 			; <UNDEFINED> instruction: 0x000093b4
 5a8:	00000010 	andeq	r0, r0, r0, lsl r0
 5ac:	84080e42 	strhi	r0, [r8], #-3650	; 0xe42
 5b0:	00018e02 	andeq	r8, r1, r2, lsl #28
 5b4:	0000000c 	andeq	r0, r0, ip
 5b8:	ffffffff 			; <UNDEFINED> instruction: 0xffffffff
 5bc:	7c020001 	stcvc	0, cr0, [r2], {1}
 5c0:	000d0c0e 	andeq	r0, sp, lr, lsl #24
 5c4:	00000018 	andeq	r0, r0, r8, lsl r0
 5c8:	000005b4 			; <UNDEFINED> instruction: 0x000005b4
 5cc:	000093c4 	andeq	r9, r0, r4, asr #7
 5d0:	00000068 	andeq	r0, r0, r8, rrx
 5d4:	84100e4a 	ldrhi	r0, [r0], #-3658	; 0xe4a
 5d8:	86038504 	strhi	r8, [r3], -r4, lsl #10
 5dc:	00018e02 	andeq	r8, r1, r2, lsl #28
 5e0:	00000014 	andeq	r0, r0, r4, lsl r0
 5e4:	000005b4 			; <UNDEFINED> instruction: 0x000005b4
 5e8:	0000942c 	andeq	r9, r0, ip, lsr #8
 5ec:	00000010 	andeq	r0, r0, r0, lsl r0
 5f0:	84080e42 	strhi	r0, [r8], #-3650	; 0xe42
 5f4:	00018e02 	andeq	r8, r1, r2, lsl #28
 5f8:	00000014 	andeq	r0, r0, r4, lsl r0
 5fc:	000005b4 			; <UNDEFINED> instruction: 0x000005b4
 600:	0000943c 	andeq	r9, r0, ip, lsr r4
 604:	00000024 	andeq	r0, r0, r4, lsr #32
 608:	84080e46 	strhi	r0, [r8], #-3654	; 0xe46
 60c:	00018e02 	andeq	r8, r1, r2, lsl #28
 610:	00000014 	andeq	r0, r0, r4, lsl r0
 614:	000005b4 			; <UNDEFINED> instruction: 0x000005b4
 618:	00009460 	andeq	r9, r0, r0, ror #8
 61c:	00000024 	andeq	r0, r0, r4, lsr #32
 620:	84080e46 	strhi	r0, [r8], #-3654	; 0xe46
 624:	00018e02 	andeq	r8, r1, r2, lsl #28
 628:	00000014 	andeq	r0, r0, r4, lsl r0
 62c:	000005b4 			; <UNDEFINED> instruction: 0x000005b4
 630:	00009484 	andeq	r9, r0, r4, lsl #9
 634:	00000010 	andeq	r0, r0, r0, lsl r0
 638:	84080e42 	strhi	r0, [r8], #-3650	; 0xe42
 63c:	00018e02 	andeq	r8, r1, r2, lsl #28
 640:	00000014 	andeq	r0, r0, r4, lsl r0
 644:	000005b4 			; <UNDEFINED> instruction: 0x000005b4
 648:	00009494 	muleq	r0, r4, r4
 64c:	0000001c 	andeq	r0, r0, ip, lsl r0
 650:	84080e42 	strhi	r0, [r8], #-3650	; 0xe42
 654:	00018e02 	andeq	r8, r1, r2, lsl #28
 658:	00000018 	andeq	r0, r0, r8, lsl r0
 65c:	000005b4 			; <UNDEFINED> instruction: 0x000005b4
 660:	000094b0 			; <UNDEFINED> instruction: 0x000094b0
 664:	00000034 	andeq	r0, r0, r4, lsr r0
 668:	84080e46 	strhi	r0, [r8], #-3654	; 0xe46
 66c:	4e018e02 	cdpmi	14, 0, cr8, cr1, cr2, {0}
 670:	cec4000e 	cdpgt	0, 12, cr0, cr4, cr14, {0}

Disassembly of section .debug_ranges:

00000000 <.debug_ranges>:
   0:	000090dc 	ldrdeq	r9, [r0], -ip
   4:	00009150 	andeq	r9, r0, r0, asr r1
	...
