
tests/16-part2-test5.elf:     file format elf32-littlearm


Disassembly of section .text:

00008000 <__code_start__>:
    8000:	e3a00013 	mov	r0, #19
    8004:	e129f000 	msr	CPSR_fc, r0
    8008:	e3a01000 	mov	r1, #0
    800c:	ee073f95 	mcr	15, 0, r3, cr7, cr5, {4}
    8010:	e3a0d302 	mov	sp, #134217728	; 0x8000000
    8014:	e3a0b000 	mov	fp, #0
    8018:	eb0005f1 	bl	97e4 <_cstart>
    801c:	eb000659 	bl	9988 <rpi_reboot>

00008020 <circq_A>:
    8020:	e59f3050 	ldr	r3, [pc, #80]	; 8078 <circq_A+0x58>
    8024:	e59f2050 	ldr	r2, [pc, #80]	; 807c <circq_A+0x5c>
    8028:	e7931002 	ldr	r1, [r3, r2]
    802c:	e7932002 	ldr	r2, [r3, r2]
    8030:	e2822001 	add	r2, r2, #1
    8034:	e1a02982 	lsl	r2, r2, #19
    8038:	e59f0040 	ldr	r0, [pc, #64]	; 8080 <circq_A+0x60>
    803c:	e7933000 	ldr	r3, [r3, r0]
    8040:	e15309a2 	cmp	r3, r2, lsr #19
    8044:	0a000007 	beq	8068 <circq_A+0x48>
    8048:	e59f3028 	ldr	r3, [pc, #40]	; 8078 <circq_A+0x58>
    804c:	e3a0200c 	mov	r2, #12
    8050:	e7c32001 	strb	r2, [r3, r1]
    8054:	e2811001 	add	r1, r1, #1
    8058:	e1a01981 	lsl	r1, r1, #19
    805c:	e1a019a1 	lsr	r1, r1, #19
    8060:	e59f2014 	ldr	r2, [pc, #20]	; 807c <circq_A+0x5c>
    8064:	e7831002 	str	r1, [r3, r2]
    8068:	e3a0200c 	mov	r2, #12
    806c:	e59f3010 	ldr	r3, [pc, #16]	; 8084 <circq_A+0x64>
    8070:	e5832000 	str	r2, [r3]
    8074:	e12fff1e 	bx	lr
    8078:	0000a64c 	andeq	sl, r0, ip, asr #12
    807c:	00002004 	andeq	r2, r0, r4
    8080:	00002008 	andeq	r2, r0, r8
    8084:	0000a644 	andeq	sl, r0, r4, asr #12

00008088 <circq_B>:
    8088:	e52de004 	push	{lr}		; (str lr, [sp, #-4]!)
    808c:	e24dd00c 	sub	sp, sp, #12
    8090:	e59f3090 	ldr	r3, [pc, #144]	; 8128 <circq_B+0xa0>
    8094:	e59f2090 	ldr	r2, [pc, #144]	; 812c <circq_B+0xa4>
    8098:	e7932002 	ldr	r2, [r3, r2]
    809c:	e59f108c 	ldr	r1, [pc, #140]	; 8130 <circq_B+0xa8>
    80a0:	e7933001 	ldr	r3, [r3, r1]
    80a4:	e1520003 	cmp	r2, r3
    80a8:	0a00000a 	beq	80d8 <circq_B+0x50>
    80ac:	e59f3074 	ldr	r3, [pc, #116]	; 8128 <circq_B+0xa0>
    80b0:	e1a02001 	mov	r2, r1
    80b4:	e7931001 	ldr	r1, [r3, r1]
    80b8:	e7d30001 	ldrb	r0, [r3, r1]
    80bc:	e6ef0070 	uxtb	r0, r0
    80c0:	e2811001 	add	r1, r1, #1
    80c4:	e1a01981 	lsl	r1, r1, #19
    80c8:	e1a019a1 	lsr	r1, r1, #19
    80cc:	e7831002 	str	r1, [r3, r2]
    80d0:	e3a03001 	mov	r3, #1
    80d4:	ea000000 	b	80dc <circq_B+0x54>
    80d8:	e3a03000 	mov	r3, #0
    80dc:	e3530000 	cmp	r3, #0
    80e0:	159f304c 	ldrne	r3, [pc, #76]	; 8134 <circq_B+0xac>
    80e4:	15830000 	strne	r0, [r3]
    80e8:	1a00000c 	bne	8120 <circq_B+0x98>
    80ec:	e59f3044 	ldr	r3, [pc, #68]	; 8138 <circq_B+0xb0>
    80f0:	e5933000 	ldr	r3, [r3]
    80f4:	e3530000 	cmp	r3, #0
    80f8:	0a000008 	beq	8120 <circq_B+0x98>
    80fc:	eb000430 	bl	91c4 <rpi_reset_putc>
    8100:	e59f3034 	ldr	r3, [pc, #52]	; 813c <circq_B+0xb4>
    8104:	e58d3000 	str	r3, [sp]
    8108:	e59f0030 	ldr	r0, [pc, #48]	; 8140 <circq_B+0xb8>
    810c:	e59f1030 	ldr	r1, [pc, #48]	; 8144 <circq_B+0xbc>
    8110:	e59f2030 	ldr	r2, [pc, #48]	; 8148 <circq_B+0xc0>
    8114:	e3a03016 	mov	r3, #22
    8118:	eb00040e 	bl	9158 <printk>
    811c:	eb0005a5 	bl	97b8 <clean_reboot>
    8120:	e28dd00c 	add	sp, sp, #12
    8124:	e49df004 	pop	{pc}		; (ldr pc, [sp], #4)
    8128:	0000a64c 	andeq	sl, r0, ip, asr #12
    812c:	00002004 	andeq	r2, r0, r4
    8130:	00002008 	andeq	r2, r0, r8
    8134:	0000a648 	andeq	sl, r0, r8, asr #12
    8138:	0000a644 	andeq	sl, r0, r4, asr #12
    813c:	00009d9c 	muleq	r0, ip, sp
    8140:	00009d70 	andeq	r9, r0, r0, ror sp
    8144:	00009d84 	andeq	r9, r0, r4, lsl #27
    8148:	00009f44 	andeq	r9, r0, r4, asr #30

0000814c <circq_init>:
    814c:	e92d4010 	push	{r4, lr}
    8150:	e24dd008 	sub	sp, sp, #8
    8154:	e59f41bc 	ldr	r4, [pc, #444]	; 8318 <circq_init+0x1cc>
    8158:	e1a00004 	mov	r0, r4
    815c:	e3a01000 	mov	r1, #0
    8160:	e59f21b4 	ldr	r2, [pc, #436]	; 831c <circq_init+0x1d0>
    8164:	eb0003f3 	bl	9138 <memset>
    8168:	e59f21b0 	ldr	r2, [pc, #432]	; 8320 <circq_init+0x1d4>
    816c:	e3a03a02 	mov	r3, #8192	; 0x2000
    8170:	e7842003 	str	r2, [r4, r3]
    8174:	e59f21a8 	ldr	r2, [pc, #424]	; 8324 <circq_init+0x1d8>
    8178:	e3a03000 	mov	r3, #0
    817c:	e7843002 	str	r3, [r4, r2]
    8180:	e59f11a0 	ldr	r1, [pc, #416]	; 8328 <circq_init+0x1dc>
    8184:	e7843001 	str	r3, [r4, r1]
    8188:	e59f019c 	ldr	r0, [pc, #412]	; 832c <circq_init+0x1e0>
    818c:	e7843000 	str	r3, [r4, r0]
    8190:	e59f3198 	ldr	r3, [pc, #408]	; 8330 <circq_init+0x1e4>
    8194:	e7d40003 	ldrb	r0, [r4, r3]
    8198:	e3c00001 	bic	r0, r0, #1
    819c:	e7c40003 	strb	r0, [r4, r3]
    81a0:	e7941001 	ldr	r1, [r4, r1]
    81a4:	e7943002 	ldr	r3, [r4, r2]
    81a8:	e1510003 	cmp	r1, r3
    81ac:	0a000008 	beq	81d4 <circq_init+0x88>
    81b0:	eb000403 	bl	91c4 <rpi_reset_putc>
    81b4:	e59f3178 	ldr	r3, [pc, #376]	; 8334 <circq_init+0x1e8>
    81b8:	e58d3000 	str	r3, [sp]
    81bc:	e59f0174 	ldr	r0, [pc, #372]	; 8338 <circq_init+0x1ec>
    81c0:	e59f1174 	ldr	r1, [pc, #372]	; 833c <circq_init+0x1f0>
    81c4:	e59f2174 	ldr	r2, [pc, #372]	; 8340 <circq_init+0x1f4>
    81c8:	e3a0309f 	mov	r3, #159	; 0x9f
    81cc:	eb0003e1 	bl	9158 <printk>
    81d0:	eb000578 	bl	97b8 <clean_reboot>
    81d4:	e59f313c 	ldr	r3, [pc, #316]	; 8318 <circq_init+0x1cc>
    81d8:	e59f2148 	ldr	r2, [pc, #328]	; 8328 <circq_init+0x1dc>
    81dc:	e7932002 	ldr	r2, [r3, r2]
    81e0:	e2822001 	add	r2, r2, #1
    81e4:	e1a02982 	lsl	r2, r2, #19
    81e8:	e59f1134 	ldr	r1, [pc, #308]	; 8324 <circq_init+0x1d8>
    81ec:	e7933001 	ldr	r3, [r3, r1]
    81f0:	e15309a2 	cmp	r3, r2, lsr #19
    81f4:	1a000008 	bne	821c <circq_init+0xd0>
    81f8:	eb0003f1 	bl	91c4 <rpi_reset_putc>
    81fc:	e59f3140 	ldr	r3, [pc, #320]	; 8344 <circq_init+0x1f8>
    8200:	e58d3000 	str	r3, [sp]
    8204:	e59f012c 	ldr	r0, [pc, #300]	; 8338 <circq_init+0x1ec>
    8208:	e59f112c 	ldr	r1, [pc, #300]	; 833c <circq_init+0x1f0>
    820c:	e59f212c 	ldr	r2, [pc, #300]	; 8340 <circq_init+0x1f4>
    8210:	e3a030a0 	mov	r3, #160	; 0xa0
    8214:	eb0003cf 	bl	9158 <printk>
    8218:	eb000566 	bl	97b8 <clean_reboot>
    821c:	e59f30f4 	ldr	r3, [pc, #244]	; 8318 <circq_init+0x1cc>
    8220:	e59f2100 	ldr	r2, [pc, #256]	; 8328 <circq_init+0x1dc>
    8224:	e7932002 	ldr	r2, [r3, r2]
    8228:	e59f10f4 	ldr	r1, [pc, #244]	; 8324 <circq_init+0x1d8>
    822c:	e7933001 	ldr	r3, [r3, r1]
    8230:	e0633002 	rsb	r3, r3, r2
    8234:	e1b03983 	lsls	r3, r3, #19
    8238:	0a000008 	beq	8260 <circq_init+0x114>
    823c:	eb0003e0 	bl	91c4 <rpi_reset_putc>
    8240:	e59f3100 	ldr	r3, [pc, #256]	; 8348 <circq_init+0x1fc>
    8244:	e58d3000 	str	r3, [sp]
    8248:	e59f00e8 	ldr	r0, [pc, #232]	; 8338 <circq_init+0x1ec>
    824c:	e59f10e8 	ldr	r1, [pc, #232]	; 833c <circq_init+0x1f0>
    8250:	e59f20e8 	ldr	r2, [pc, #232]	; 8340 <circq_init+0x1f4>
    8254:	e3a030a1 	mov	r3, #161	; 0xa1
    8258:	eb0003be 	bl	9158 <printk>
    825c:	eb000555 	bl	97b8 <clean_reboot>
    8260:	e59f30b0 	ldr	r3, [pc, #176]	; 8318 <circq_init+0x1cc>
    8264:	e59f20bc 	ldr	r2, [pc, #188]	; 8328 <circq_init+0x1dc>
    8268:	e7932002 	ldr	r2, [r3, r2]
    826c:	e59f10b0 	ldr	r1, [pc, #176]	; 8324 <circq_init+0x1d8>
    8270:	e7933001 	ldr	r3, [r3, r1]
    8274:	e1520003 	cmp	r2, r3
    8278:	0a00000a 	beq	82a8 <circq_init+0x15c>
    827c:	e59f3094 	ldr	r3, [pc, #148]	; 8318 <circq_init+0x1cc>
    8280:	e1a02001 	mov	r2, r1
    8284:	e7931001 	ldr	r1, [r3, r1]
    8288:	e7d30001 	ldrb	r0, [r3, r1]
    828c:	e6ef0070 	uxtb	r0, r0
    8290:	e2811001 	add	r1, r1, #1
    8294:	e1a01981 	lsl	r1, r1, #19
    8298:	e1a019a1 	lsr	r1, r1, #19
    829c:	e7831002 	str	r1, [r3, r2]
    82a0:	e3a03001 	mov	r3, #1
    82a4:	ea000001 	b	82b0 <circq_init+0x164>
    82a8:	e3a00012 	mov	r0, #18
    82ac:	e3a03000 	mov	r3, #0
    82b0:	e3530000 	cmp	r3, #0
    82b4:	1a000002 	bne	82c4 <circq_init+0x178>
    82b8:	e3500012 	cmp	r0, #18
    82bc:	0a000002 	beq	82cc <circq_init+0x180>
    82c0:	ea000002 	b	82d0 <circq_init+0x184>
    82c4:	e3a03000 	mov	r3, #0
    82c8:	ea000000 	b	82d0 <circq_init+0x184>
    82cc:	e3a03001 	mov	r3, #1
    82d0:	e3530000 	cmp	r3, #0
    82d4:	1a000008 	bne	82fc <circq_init+0x1b0>
    82d8:	eb0003b9 	bl	91c4 <rpi_reset_putc>
    82dc:	e59f3068 	ldr	r3, [pc, #104]	; 834c <circq_init+0x200>
    82e0:	e58d3000 	str	r3, [sp]
    82e4:	e59f004c 	ldr	r0, [pc, #76]	; 8338 <circq_init+0x1ec>
    82e8:	e59f104c 	ldr	r1, [pc, #76]	; 833c <circq_init+0x1f0>
    82ec:	e59f204c 	ldr	r2, [pc, #76]	; 8340 <circq_init+0x1f4>
    82f0:	e3a030a3 	mov	r3, #163	; 0xa3
    82f4:	eb000397 	bl	9158 <printk>
    82f8:	eb00052e 	bl	97b8 <clean_reboot>
    82fc:	e3a03000 	mov	r3, #0
    8300:	e59f2048 	ldr	r2, [pc, #72]	; 8350 <circq_init+0x204>
    8304:	e5823000 	str	r3, [r2]
    8308:	e59f2044 	ldr	r2, [pc, #68]	; 8354 <circq_init+0x208>
    830c:	e5823000 	str	r3, [r2]
    8310:	e28dd008 	add	sp, sp, #8
    8314:	e8bd8010 	pop	{r4, pc}
    8318:	0000a64c 	andeq	sl, r0, ip, asr #12
    831c:	00002014 	andeq	r2, r0, r4, lsl r0
    8320:	12345678 	eorsne	r5, r4, #120, 12	; 0x7800000
    8324:	00002008 	andeq	r2, r0, r8
    8328:	00002004 	andeq	r2, r0, r4
    832c:	0000200c 	andeq	r2, r0, ip
    8330:	00002010 	andeq	r2, r0, r0, lsl r0
    8334:	00009e04 	andeq	r9, r0, r4, lsl #28
    8338:	00009d70 	andeq	r9, r0, r0, ror sp
    833c:	00009dac 	andeq	r9, r0, ip, lsr #27
    8340:	00009f3c 	andeq	r9, r0, ip, lsr pc
    8344:	00009e10 	andeq	r9, r0, r0, lsl lr
    8348:	00009e1c 	andeq	r9, r0, ip, lsl lr
    834c:	00009e30 	andeq	r9, r0, r0, lsr lr
    8350:	0000a648 	andeq	sl, r0, r8, asr #12
    8354:	0000a644 	andeq	sl, r0, r4, asr #12

00008358 <circq_check>:
    8358:	e52de004 	push	{lr}		; (str lr, [sp, #-4]!)
    835c:	e24dd00c 	sub	sp, sp, #12
    8360:	e59f3060 	ldr	r3, [pc, #96]	; 83c8 <circq_check+0x70>
    8364:	e5932000 	ldr	r2, [r3]
    8368:	e59f305c 	ldr	r3, [pc, #92]	; 83cc <circq_check+0x74>
    836c:	e5933000 	ldr	r3, [r3]
    8370:	e1520003 	cmp	r2, r3
    8374:	0a000010 	beq	83bc <circq_check+0x64>
    8378:	e5903008 	ldr	r3, [r0, #8]
    837c:	e12fff33 	blx	r3
    8380:	e59f3040 	ldr	r3, [pc, #64]	; 83c8 <circq_check+0x70>
    8384:	e5932000 	ldr	r2, [r3]
    8388:	e59f303c 	ldr	r3, [pc, #60]	; 83cc <circq_check+0x74>
    838c:	e5933000 	ldr	r3, [r3]
    8390:	e1520003 	cmp	r2, r3
    8394:	0a000008 	beq	83bc <circq_check+0x64>
    8398:	eb000389 	bl	91c4 <rpi_reset_putc>
    839c:	e59f302c 	ldr	r3, [pc, #44]	; 83d0 <circq_check+0x78>
    83a0:	e58d3000 	str	r3, [sp]
    83a4:	e59f0028 	ldr	r0, [pc, #40]	; 83d4 <circq_check+0x7c>
    83a8:	e59f1028 	ldr	r1, [pc, #40]	; 83d8 <circq_check+0x80>
    83ac:	e59f2028 	ldr	r2, [pc, #40]	; 83dc <circq_check+0x84>
    83b0:	e3a03027 	mov	r3, #39	; 0x27
    83b4:	eb000367 	bl	9158 <printk>
    83b8:	eb0004fe 	bl	97b8 <clean_reboot>
    83bc:	e3a00001 	mov	r0, #1
    83c0:	e28dd00c 	add	sp, sp, #12
    83c4:	e49df004 	pop	{pc}		; (ldr pc, [sp], #4)
    83c8:	0000a644 	andeq	sl, r0, r4, asr #12
    83cc:	0000a648 	andeq	sl, r0, r8, asr #12
    83d0:	00009e58 	andeq	r9, r0, r8, asr lr
    83d4:	00009d70 	andeq	r9, r0, r0, ror sp
    83d8:	00009d84 	andeq	r9, r0, r4, lsl #27
    83dc:	00009f30 	andeq	r9, r0, r0, lsr pc

000083e0 <circq_mk_checker>:
    83e0:	e1a03000 	mov	r3, r0
    83e4:	e3a02000 	mov	r2, #0
    83e8:	e4832004 	str	r2, [r3], #4
    83ec:	e2833008 	add	r3, r3, #8
    83f0:	e4832004 	str	r2, [r3], #4
    83f4:	e4832004 	str	r2, [r3], #4
    83f8:	e4832004 	str	r2, [r3], #4
    83fc:	e4832004 	str	r2, [r3], #4
    8400:	e4832004 	str	r2, [r3], #4
    8404:	e4832004 	str	r2, [r3], #4
    8408:	e4832004 	str	r2, [r3], #4
    840c:	e4832004 	str	r2, [r3], #4
    8410:	e4832004 	str	r2, [r3], #4
    8414:	e4832004 	str	r2, [r3], #4
    8418:	e5832000 	str	r2, [r3]
    841c:	e59f301c 	ldr	r3, [pc, #28]	; 8440 <circq_mk_checker+0x60>
    8420:	e5803004 	str	r3, [r0, #4]
    8424:	e59f3018 	ldr	r3, [pc, #24]	; 8444 <circq_mk_checker+0x64>
    8428:	e5803008 	str	r3, [r0, #8]
    842c:	e59f3014 	ldr	r3, [pc, #20]	; 8448 <circq_mk_checker+0x68>
    8430:	e580300c 	str	r3, [r0, #12]
    8434:	e59f3010 	ldr	r3, [pc, #16]	; 844c <circq_mk_checker+0x6c>
    8438:	e5803010 	str	r3, [r0, #16]
    843c:	e12fff1e 	bx	lr
    8440:	00008020 	andeq	r8, r0, r0, lsr #32
    8444:	00008088 	andeq	r8, r0, r8, lsl #1
    8448:	0000814c 	andeq	r8, r0, ip, asr #2
    844c:	00008358 	andeq	r8, r0, r8, asr r3

00008450 <notmain>:
    8450:	e52de004 	push	{lr}		; (str lr, [sp, #-4]!)
    8454:	e24dd044 	sub	sp, sp, #68	; 0x44
    8458:	eb0004ce 	bl	9798 <enable_cache>
    845c:	e28d0008 	add	r0, sp, #8
    8460:	ebffffde 	bl	83e0 <circq_mk_checker>
    8464:	e28d0008 	add	r0, sp, #8
    8468:	eb00031f 	bl	90ec <check>
    846c:	e3500000 	cmp	r0, #0
    8470:	1a000016 	bne	84d0 <notmain+0x80>
    8474:	e59d3034 	ldr	r3, [sp, #52]	; 0x34
    8478:	e3530000 	cmp	r3, #0
    847c:	1a000008 	bne	84a4 <notmain+0x54>
    8480:	eb00034f 	bl	91c4 <rpi_reset_putc>
    8484:	e59f308c 	ldr	r3, [pc, #140]	; 8518 <notmain+0xc8>
    8488:	e58d3000 	str	r3, [sp]
    848c:	e59f0088 	ldr	r0, [pc, #136]	; 851c <notmain+0xcc>
    8490:	e59f1088 	ldr	r1, [pc, #136]	; 8520 <notmain+0xd0>
    8494:	e59f2088 	ldr	r2, [pc, #136]	; 8524 <notmain+0xd4>
    8498:	e3a0303c 	mov	r3, #60	; 0x3c
    849c:	eb00032d 	bl	9158 <printk>
    84a0:	eb0004c4 	bl	97b8 <clean_reboot>
    84a4:	eb000346 	bl	91c4 <rpi_reset_putc>
    84a8:	e59d3030 	ldr	r3, [sp, #48]	; 0x30
    84ac:	e58d3000 	str	r3, [sp]
    84b0:	e59d3034 	ldr	r3, [sp, #52]	; 0x34
    84b4:	e58d3004 	str	r3, [sp, #4]
    84b8:	e59f0068 	ldr	r0, [pc, #104]	; 8528 <notmain+0xd8>
    84bc:	e59f105c 	ldr	r1, [pc, #92]	; 8520 <notmain+0xd0>
    84c0:	e59f205c 	ldr	r2, [pc, #92]	; 8524 <notmain+0xd4>
    84c4:	e3a0303e 	mov	r3, #62	; 0x3e
    84c8:	eb000322 	bl	9158 <printk>
    84cc:	eb0004b9 	bl	97b8 <clean_reboot>
    84d0:	e59d3034 	ldr	r3, [sp, #52]	; 0x34
    84d4:	e3530000 	cmp	r3, #0
    84d8:	0a000008 	beq	8500 <notmain+0xb0>
    84dc:	eb000338 	bl	91c4 <rpi_reset_putc>
    84e0:	e59f3044 	ldr	r3, [pc, #68]	; 852c <notmain+0xdc>
    84e4:	e58d3000 	str	r3, [sp]
    84e8:	e59f002c 	ldr	r0, [pc, #44]	; 851c <notmain+0xcc>
    84ec:	e59f102c 	ldr	r1, [pc, #44]	; 8520 <notmain+0xd0>
    84f0:	e59f202c 	ldr	r2, [pc, #44]	; 8524 <notmain+0xd4>
    84f4:	e3a03040 	mov	r3, #64	; 0x40
    84f8:	eb000316 	bl	9158 <printk>
    84fc:	eb0004ad 	bl	97b8 <clean_reboot>
    8500:	e59f0028 	ldr	r0, [pc, #40]	; 8530 <notmain+0xe0>
    8504:	eb000313 	bl	9158 <printk>
    8508:	e59f0024 	ldr	r0, [pc, #36]	; 8534 <notmain+0xe4>
    850c:	e59d1030 	ldr	r1, [sp, #48]	; 0x30
    8510:	eb000310 	bl	9158 <printk>
    8514:	eb0004a7 	bl	97b8 <clean_reboot>
    8518:	00009e74 	andeq	r9, r0, r4, ror lr
    851c:	00009d70 	andeq	r9, r0, r0, ror sp
    8520:	00009d84 	andeq	r9, r0, r4, lsl #27
    8524:	00009f4c 	andeq	r9, r0, ip, asr #30
    8528:	00009e80 	andeq	r9, r0, r0, lsl #29
    852c:	00009ec8 	andeq	r9, r0, r8, asr #29
    8530:	00009ed4 	ldrdeq	r9, [r0], -r4
    8534:	00009ee0 	andeq	r9, r0, r0, ror #29

00008538 <watchpt_set0>:
    8538:	e52de004 	push	{lr}		; (str lr, [sp, #-4]!)
    853c:	e24dd00c 	sub	sp, sp, #12
    8540:	ee103ef0 	mrc	14, 0, r3, cr0, cr0, {7}
    8544:	e3c33001 	bic	r3, r3, #1
    8548:	ee003ef0 	mcr	14, 0, r3, cr0, cr0, {7}
    854c:	ee102ef0 	mrc	14, 0, r2, cr0, cr0, {7}
    8550:	e1530002 	cmp	r3, r2
    8554:	0a000008 	beq	857c <watchpt_set0+0x44>
    8558:	eb000319 	bl	91c4 <rpi_reset_putc>
    855c:	e59f306c 	ldr	r3, [pc, #108]	; 85d0 <watchpt_set0+0x98>
    8560:	e58d3000 	str	r3, [sp]
    8564:	e59f0068 	ldr	r0, [pc, #104]	; 85d4 <watchpt_set0+0x9c>
    8568:	e59f1068 	ldr	r1, [pc, #104]	; 85d8 <watchpt_set0+0xa0>
    856c:	e59f2068 	ldr	r2, [pc, #104]	; 85dc <watchpt_set0+0xa4>
    8570:	e3a03041 	mov	r3, #65	; 0x41
    8574:	eb0002f7 	bl	9158 <printk>
    8578:	eb00048e 	bl	97b8 <clean_reboot>
    857c:	ee000ed0 	mcr	14, 0, r0, cr0, cr0, {6}
    8580:	e59f3058 	ldr	r3, [pc, #88]	; 85e0 <watchpt_set0+0xa8>
    8584:	ee003ef0 	mcr	14, 0, r3, cr0, cr0, {7}
    8588:	ee102ef0 	mrc	14, 0, r2, cr0, cr0, {7}
    858c:	e1520003 	cmp	r2, r3
    8590:	0a000008 	beq	85b8 <watchpt_set0+0x80>
    8594:	eb00030a 	bl	91c4 <rpi_reset_putc>
    8598:	e59f3030 	ldr	r3, [pc, #48]	; 85d0 <watchpt_set0+0x98>
    859c:	e58d3000 	str	r3, [sp]
    85a0:	e59f002c 	ldr	r0, [pc, #44]	; 85d4 <watchpt_set0+0x9c>
    85a4:	e59f102c 	ldr	r1, [pc, #44]	; 85d8 <watchpt_set0+0xa0>
    85a8:	e59f202c 	ldr	r2, [pc, #44]	; 85dc <watchpt_set0+0xa4>
    85ac:	e3a03052 	mov	r3, #82	; 0x52
    85b0:	eb0002e8 	bl	9158 <printk>
    85b4:	eb00047f 	bl	97b8 <clean_reboot>
    85b8:	e3a03000 	mov	r3, #0
    85bc:	ee073f95 	mcr	15, 0, r3, cr7, cr5, {4}
    85c0:	e59f301c 	ldr	r3, [pc, #28]	; 85e4 <watchpt_set0+0xac>
    85c4:	e5831000 	str	r1, [r3]
    85c8:	e28dd00c 	add	sp, sp, #12
    85cc:	e49df004 	pop	{pc}		; (ldr pc, [sp], #4)
    85d0:	00009f64 	andeq	r9, r0, r4, ror #30
    85d4:	00009d70 	andeq	r9, r0, r0, ror sp
    85d8:	00009f54 	andeq	r9, r0, r4, asr pc
    85dc:	0000a07c 	andeq	sl, r0, ip, ror r0
    85e0:	000001ff 	strdeq	r0, [r0], -pc	; <UNPREDICTABLE>
    85e4:	0000c660 	andeq	ip, r0, r0, ror #12

000085e8 <data_abort_vector>:
    85e8:	e52de004 	push	{lr}		; (str lr, [sp, #-4]!)
    85ec:	e24dd00c 	sub	sp, sp, #12
    85f0:	e1a01000 	mov	r1, r0
    85f4:	ee153f10 	mrc	15, 0, r3, cr5, cr0, {0}
    85f8:	ee153f10 	mrc	15, 0, r3, cr5, cr0, {0}
    85fc:	e203300f 	and	r3, r3, #15
    8600:	e3530002 	cmp	r3, #2
    8604:	0a000006 	beq	8624 <data_abort_vector+0x3c>
    8608:	eb0002ed 	bl	91c4 <rpi_reset_putc>
    860c:	e59f008c 	ldr	r0, [pc, #140]	; 86a0 <data_abort_vector+0xb8>
    8610:	e59f108c 	ldr	r1, [pc, #140]	; 86a4 <data_abort_vector+0xbc>
    8614:	e59f208c 	ldr	r2, [pc, #140]	; 86a8 <data_abort_vector+0xc0>
    8618:	e3a03079 	mov	r3, #121	; 0x79
    861c:	eb0002cd 	bl	9158 <printk>
    8620:	eb000464 	bl	97b8 <clean_reboot>
    8624:	ee103e16 	mrc	14, 0, r3, cr0, cr6, {0}
    8628:	e2433004 	sub	r3, r3, #4
    862c:	e1530000 	cmp	r3, r0
    8630:	0a000008 	beq	8658 <data_abort_vector+0x70>
    8634:	eb0002e2 	bl	91c4 <rpi_reset_putc>
    8638:	e59f306c 	ldr	r3, [pc, #108]	; 86ac <data_abort_vector+0xc4>
    863c:	e58d3000 	str	r3, [sp]
    8640:	e59f0068 	ldr	r0, [pc, #104]	; 86b0 <data_abort_vector+0xc8>
    8644:	e59f1068 	ldr	r1, [pc, #104]	; 86b4 <data_abort_vector+0xcc>
    8648:	e59f2068 	ldr	r2, [pc, #104]	; 86b8 <data_abort_vector+0xd0>
    864c:	e3a03067 	mov	r3, #103	; 0x67
    8650:	eb0002c0 	bl	9158 <printk>
    8654:	eb000457 	bl	97b8 <clean_reboot>
    8658:	e59f305c 	ldr	r3, [pc, #92]	; 86bc <data_abort_vector+0xd4>
    865c:	e5933000 	ldr	r3, [r3]
    8660:	e3530000 	cmp	r3, #0
    8664:	1a000008 	bne	868c <data_abort_vector+0xa4>
    8668:	eb0002d5 	bl	91c4 <rpi_reset_putc>
    866c:	e59f304c 	ldr	r3, [pc, #76]	; 86c0 <data_abort_vector+0xd8>
    8670:	e58d3000 	str	r3, [sp]
    8674:	e59f0034 	ldr	r0, [pc, #52]	; 86b0 <data_abort_vector+0xc8>
    8678:	e59f1034 	ldr	r1, [pc, #52]	; 86b4 <data_abort_vector+0xcc>
    867c:	e59f2034 	ldr	r2, [pc, #52]	; 86b8 <data_abort_vector+0xd0>
    8680:	e3a03069 	mov	r3, #105	; 0x69
    8684:	eb0002b3 	bl	9158 <printk>
    8688:	eb00044a 	bl	97b8 <clean_reboot>
    868c:	ee162f10 	mrc	15, 0, r2, cr6, cr0, {0}
    8690:	e3a00000 	mov	r0, #0
    8694:	e12fff33 	blx	r3
    8698:	e28dd00c 	add	sp, sp, #12
    869c:	e49df004 	pop	{pc}		; (ldr pc, [sp], #4)
    86a0:	00009f7c 	andeq	r9, r0, ip, ror pc
    86a4:	00009fb4 			; <UNDEFINED> instruction: 0x00009fb4
    86a8:	0000a0a0 	andeq	sl, r0, r0, lsr #1
    86ac:	00009fc4 	andeq	r9, r0, r4, asr #31
    86b0:	00009d70 	andeq	r9, r0, r0, ror sp
    86b4:	00009f54 	andeq	r9, r0, r4, asr pc
    86b8:	0000a08c 	andeq	sl, r0, ip, lsl #1
    86bc:	0000c660 	andeq	ip, r0, r0, ror #12
    86c0:	00009fd8 	ldrdeq	r9, [r0], -r8

000086c4 <cp14_enable>:
    86c4:	e92d4008 	push	{r3, lr}
    86c8:	e59f302c 	ldr	r3, [pc, #44]	; 86fc <cp14_enable+0x38>
    86cc:	e5933000 	ldr	r3, [r3]
    86d0:	e3530000 	cmp	r3, #0
    86d4:	1a000003 	bne	86e8 <cp14_enable+0x24>
    86d8:	eb000484 	bl	98f0 <int_init>
    86dc:	e3a02001 	mov	r2, #1
    86e0:	e59f3014 	ldr	r3, [pc, #20]	; 86fc <cp14_enable+0x38>
    86e4:	e5832000 	str	r2, [r3]
    86e8:	e3a03902 	mov	r3, #32768	; 0x8000
    86ec:	ee003e11 	mcr	14, 0, r3, cr0, cr1, {0}
    86f0:	e3a03000 	mov	r3, #0
    86f4:	ee073f95 	mcr	15, 0, r3, cr7, cr5, {4}
    86f8:	e8bd8008 	pop	{r3, pc}
    86fc:	0000c670 	andeq	ip, r0, r0, ror r6

00008700 <brkpt_set0>:
    8700:	ee103eb0 	mrc	14, 0, r3, cr0, cr0, {5}
    8704:	e3c33001 	bic	r3, r3, #1
    8708:	ee003eb0 	mcr	14, 0, r3, cr0, cr0, {5}
    870c:	ee000e90 	mcr	14, 0, r0, cr0, cr0, {4}
    8710:	e59f3014 	ldr	r3, [pc, #20]	; 872c <brkpt_set0+0x2c>
    8714:	ee003eb0 	mcr	14, 0, r3, cr0, cr0, {5}
    8718:	e3a03000 	mov	r3, #0
    871c:	ee073f95 	mcr	15, 0, r3, cr7, cr5, {4}
    8720:	e59f3008 	ldr	r3, [pc, #8]	; 8730 <brkpt_set0+0x30>
    8724:	e5831000 	str	r1, [r3]
    8728:	e12fff1e 	bx	lr
    872c:	000001e7 	andeq	r0, r0, r7, ror #3
    8730:	0000c664 	andeq	ip, r0, r4, ror #12

00008734 <prefetch_abort_vector>:
    8734:	e52de004 	push	{lr}		; (str lr, [sp, #-4]!)
    8738:	e24dd00c 	sub	sp, sp, #12
    873c:	e1a01000 	mov	r1, r0
    8740:	ee153f30 	mrc	15, 0, r3, cr5, cr0, {1}
    8744:	e203300f 	and	r3, r3, #15
    8748:	e3530002 	cmp	r3, #2
    874c:	0a000006 	beq	876c <prefetch_abort_vector+0x38>
    8750:	eb00029b 	bl	91c4 <rpi_reset_putc>
    8754:	e59f0058 	ldr	r0, [pc, #88]	; 87b4 <prefetch_abort_vector+0x80>
    8758:	e59f1058 	ldr	r1, [pc, #88]	; 87b8 <prefetch_abort_vector+0x84>
    875c:	e59f2058 	ldr	r2, [pc, #88]	; 87bc <prefetch_abort_vector+0x88>
    8760:	e3a030c7 	mov	r3, #199	; 0xc7
    8764:	eb00027b 	bl	9158 <printk>
    8768:	eb000412 	bl	97b8 <clean_reboot>
    876c:	e59f304c 	ldr	r3, [pc, #76]	; 87c0 <prefetch_abort_vector+0x8c>
    8770:	e5933000 	ldr	r3, [r3]
    8774:	e3530000 	cmp	r3, #0
    8778:	1a000008 	bne	87a0 <prefetch_abort_vector+0x6c>
    877c:	eb000290 	bl	91c4 <rpi_reset_putc>
    8780:	e59f303c 	ldr	r3, [pc, #60]	; 87c4 <prefetch_abort_vector+0x90>
    8784:	e58d3000 	str	r3, [sp]
    8788:	e59f0038 	ldr	r0, [pc, #56]	; 87c8 <prefetch_abort_vector+0x94>
    878c:	e59f1024 	ldr	r1, [pc, #36]	; 87b8 <prefetch_abort_vector+0x84>
    8790:	e59f2024 	ldr	r2, [pc, #36]	; 87bc <prefetch_abort_vector+0x88>
    8794:	e3a030c8 	mov	r3, #200	; 0xc8
    8798:	eb00026e 	bl	9158 <printk>
    879c:	eb000405 	bl	97b8 <clean_reboot>
    87a0:	ee162f10 	mrc	15, 0, r2, cr6, cr0, {0}
    87a4:	e3a00000 	mov	r0, #0
    87a8:	e12fff33 	blx	r3
    87ac:	e28dd00c 	add	sp, sp, #12
    87b0:	e49df004 	pop	{pc}		; (ldr pc, [sp], #4)
    87b4:	00009fec 	andeq	r9, r0, ip, ror #31
    87b8:	00009f54 	andeq	r9, r0, r4, asr pc
    87bc:	0000a0b4 	strheq	sl, [r0], -r4
    87c0:	0000c664 	andeq	ip, r0, r4, ror #12
    87c4:	0000a024 	andeq	sl, r0, r4, lsr #32
    87c8:	00009d70 	andeq	r9, r0, r0, ror sp

000087cc <interrupt_vector>:
    87cc:	e12fff1e 	bx	lr

000087d0 <brk_no_ret_error>:
    87d0:	e92d4008 	push	{r3, lr}
    87d4:	eb00027a 	bl	91c4 <rpi_reset_putc>
    87d8:	e59f0010 	ldr	r0, [pc, #16]	; 87f0 <brk_no_ret_error+0x20>
    87dc:	e59f1010 	ldr	r1, [pc, #16]	; 87f4 <brk_no_ret_error+0x24>
    87e0:	e59f2010 	ldr	r2, [pc, #16]	; 87f8 <brk_no_ret_error+0x28>
    87e4:	e3a030d9 	mov	r3, #217	; 0xd9
    87e8:	eb00025a 	bl	9158 <printk>
    87ec:	eb0003f1 	bl	97b8 <clean_reboot>
    87f0:	0000a034 	andeq	sl, r0, r4, lsr r0
    87f4:	00009f54 	andeq	r9, r0, r4, asr pc
    87f8:	0000a0cc 	andeq	sl, r0, ip, asr #1

000087fc <brkpt_mismatch_set0>:
    87fc:	ee103eb0 	mrc	14, 0, r3, cr0, cr0, {5}
    8800:	e3c33001 	bic	r3, r3, #1
    8804:	ee003eb0 	mcr	14, 0, r3, cr0, cr0, {5}
    8808:	ee000e90 	mcr	14, 0, r0, cr0, cr0, {4}
    880c:	e59f3014 	ldr	r3, [pc, #20]	; 8828 <brkpt_mismatch_set0+0x2c>
    8810:	ee003eb0 	mcr	14, 0, r3, cr0, cr0, {5}
    8814:	e3a03000 	mov	r3, #0
    8818:	ee073f95 	mcr	15, 0, r3, cr7, cr5, {4}
    881c:	e59f3008 	ldr	r3, [pc, #8]	; 882c <brkpt_mismatch_set0+0x30>
    8820:	e5831000 	str	r1, [r3]
    8824:	e12fff1e 	bx	lr
    8828:	004001e7 	subeq	r0, r0, r7, ror #3
    882c:	0000c664 	andeq	ip, r0, r4, ror #12

00008830 <brkpt_mismatch_disable0>:
    8830:	e59f3004 	ldr	r3, [pc, #4]	; 883c <brkpt_mismatch_disable0+0xc>
    8834:	ee003eb0 	mcr	14, 0, r3, cr0, cr0, {5}
    8838:	e12fff1e 	bx	lr
    883c:	004001e6 	subeq	r0, r0, r6, ror #3

00008840 <syscall_vector>:
    8840:	e92d4008 	push	{r3, lr}
    8844:	e5903000 	ldr	r3, [r0]
    8848:	e3c334ff 	bic	r3, r3, #-16777216	; 0xff000000
    884c:	e3530001 	cmp	r3, #1
    8850:	1a000002 	bne	8860 <syscall_vector+0x20>
    8854:	e169f001 	msr	SPSR_fc, r1
    8858:	e3a00000 	mov	r0, #0
    885c:	e8bd8008 	pop	{r3, pc}
    8860:	e3530002 	cmp	r3, #2
    8864:	1a000005 	bne	8880 <syscall_vector+0x40>
    8868:	e5913000 	ldr	r3, [r1]
    886c:	e3530000 	cmp	r3, #0
    8870:	1a000007 	bne	8894 <syscall_vector+0x54>
    8874:	e3a00001 	mov	r0, #1
    8878:	e5810000 	str	r0, [r1]
    887c:	e8bd8008 	pop	{r3, pc}
    8880:	e59f0014 	ldr	r0, [pc, #20]	; 889c <syscall_vector+0x5c>
    8884:	e1a01003 	mov	r1, r3
    8888:	eb000232 	bl	9158 <printk>
    888c:	e3a00000 	mov	r0, #0
    8890:	e8bd8008 	pop	{r3, pc}
    8894:	e3a00000 	mov	r0, #0
    8898:	e8bd8008 	pop	{r3, pc}
    889c:	0000a064 	andeq	sl, r0, r4, rrx

000088a0 <_interrupt_table>:
    88a0:	e59ff020 	ldr	pc, [pc, #32]	; 88c8 <_reset_asm>
    88a4:	e59ff020 	ldr	pc, [pc, #32]	; 88cc <_undefined_instruction_asm>
    88a8:	e59ff020 	ldr	pc, [pc, #32]	; 88d0 <_software_interrupt_asm>
    88ac:	e59ff020 	ldr	pc, [pc, #32]	; 88d4 <_prefetch_abort_asm>
    88b0:	e59ff020 	ldr	pc, [pc, #32]	; 88d8 <_data_abort_asm>
    88b4:	e59ff00c 	ldr	pc, [pc, #12]	; 88c8 <_reset_asm>
    88b8:	e59ff01c 	ldr	pc, [pc, #28]	; 88dc <_interrupt_asm>

000088bc <fast_interrupt_asm>:
    88bc:	e3a0d409 	mov	sp, #150994944	; 0x9000000
    88c0:	e24ee004 	sub	lr, lr, #4
    88c4:	eb0003d4 	bl	981c <fast_interrupt_vector>

000088c8 <_reset_asm>:
    88c8:	000088f8 	strdeq	r8, [r0], -r8	; <UNPREDICTABLE>

000088cc <_undefined_instruction_asm>:
    88cc:	0000893c 	andeq	r8, r0, ip, lsr r9

000088d0 <_software_interrupt_asm>:
    88d0:	00008948 	andeq	r8, r0, r8, asr #18

000088d4 <_prefetch_abort_asm>:
    88d4:	00008920 	andeq	r8, r0, r0, lsr #18

000088d8 <_data_abort_asm>:
    88d8:	00008904 	andeq	r8, r0, r4, lsl #18

000088dc <_interrupt_asm>:
    88dc:	000088e0 	andeq	r8, r0, r0, ror #17

000088e0 <_interrupt_table_end>:
    88e0:	e3a0d409 	mov	sp, #150994944	; 0x9000000
    88e4:	e24ee004 	sub	lr, lr, #4
    88e8:	e92d5fff 	push	{r0, r1, r2, r3, r4, r5, r6, r7, r8, r9, sl, fp, ip, lr}
    88ec:	e1a0000e 	mov	r0, lr
    88f0:	e8bd5fff 	pop	{r0, r1, r2, r3, r4, r5, r6, r7, r8, r9, sl, fp, ip, lr}
    88f4:	e1b0f00e 	movs	pc, lr

000088f8 <reset_asm>:
    88f8:	e3a0d409 	mov	sp, #150994944	; 0x9000000
    88fc:	e24ee004 	sub	lr, lr, #4
    8900:	eb0003d6 	bl	9860 <reset_vector>

00008904 <data_abort_asm>:
    8904:	e24ee008 	sub	lr, lr, #8
    8908:	e3a0d409 	mov	sp, #150994944	; 0x9000000
    890c:	e92d5fff 	push	{r0, r1, r2, r3, r4, r5, r6, r7, r8, r9, sl, fp, ip, lr}
    8910:	e1a0000e 	mov	r0, lr
    8914:	ebffff33 	bl	85e8 <data_abort_vector>
    8918:	e8bd5fff 	pop	{r0, r1, r2, r3, r4, r5, r6, r7, r8, r9, sl, fp, ip, lr}
    891c:	e1b0f00e 	movs	pc, lr

00008920 <prefetch_abort_asm>:
    8920:	e24ee004 	sub	lr, lr, #4
    8924:	e3a0d409 	mov	sp, #150994944	; 0x9000000
    8928:	e92d5fff 	push	{r0, r1, r2, r3, r4, r5, r6, r7, r8, r9, sl, fp, ip, lr}
    892c:	e1a0000e 	mov	r0, lr
    8930:	ebffff7f 	bl	8734 <prefetch_abort_vector>
    8934:	e8bd5fff 	pop	{r0, r1, r2, r3, r4, r5, r6, r7, r8, r9, sl, fp, ip, lr}
    8938:	e1b0f00e 	movs	pc, lr

0000893c <undefined_instruction_asm>:
    893c:	e3a0d409 	mov	sp, #150994944	; 0x9000000
    8940:	e24ee004 	sub	lr, lr, #4
    8944:	eb0003d6 	bl	98a4 <undefined_instruction_vector>

00008948 <software_interrupt_asm>:
    8948:	e92d5ff0 	push	{r4, r5, r6, r7, r8, r9, sl, fp, ip, lr}
    894c:	e24ee004 	sub	lr, lr, #4
    8950:	e1a01000 	mov	r1, r0
    8954:	e1a0000e 	mov	r0, lr
    8958:	ebffffb8 	bl	8840 <syscall_vector>
    895c:	e8bd5ff0 	pop	{r4, r5, r6, r7, r8, r9, sl, fp, ip, lr}
    8960:	e1b0f00e 	movs	pc, lr

00008964 <user_trampoline_no_ret>:
    8964:	e1a0200d 	mov	r2, sp
    8968:	e129f000 	msr	CPSR_fc, r0
    896c:	e10f5000 	mrs	r5, CPSR
    8970:	ee070f95 	mcr	15, 0, r0, cr7, cr5, {4}
    8974:	e1a0d002 	mov	sp, r2
    8978:	e92d5ff0 	push	{r4, r5, r6, r7, r8, r9, sl, fp, ip, lr}
    897c:	e12fff31 	blx	r1
    8980:	e8bd5ff0 	pop	{r4, r5, r6, r7, r8, r9, sl, fp, ip, lr}
    8984:	eb00038b 	bl	97b8 <clean_reboot>
    8988:	ebffff90 	bl	87d0 <brk_no_ret_error>

0000898c <user_trampoline_ret>:
    898c:	e92d5ff0 	push	{r4, r5, r6, r7, r8, r9, sl, fp, ip, lr}
    8990:	e10f4000 	mrs	r4, CPSR
    8994:	e129f000 	msr	CPSR_fc, r0
    8998:	ee070f95 	mcr	15, 0, r0, cr7, cr5, {4}
    899c:	e3a0d407 	mov	sp, #117440512	; 0x7000000
    89a0:	e1a00002 	mov	r0, r2
    89a4:	e12fff31 	blx	r1
    89a8:	e1a00004 	mov	r0, r4
    89ac:	ef000001 	svc	0x00000001
    89b0:	e8bd5ff0 	pop	{r4, r5, r6, r7, r8, r9, sl, fp, ip, lr}
    89b4:	e12fff1e 	bx	lr

000089b8 <sys_try_lock_asm>:
    89b8:	e92d5ff0 	push	{r4, r5, r6, r7, r8, r9, sl, fp, ip, lr}
    89bc:	ef000002 	svc	0x00000002
    89c0:	e8bd5ff0 	pop	{r4, r5, r6, r7, r8, r9, sl, fp, ip, lr}
    89c4:	e12fff1e 	bx	lr

000089c8 <single_step_handler>:
    89c8:	e92d4030 	push	{r4, r5, lr}
    89cc:	e24dd00c 	sub	sp, sp, #12
    89d0:	e1a05001 	mov	r5, r1
    89d4:	e59f3150 	ldr	r3, [pc, #336]	; 8b2c <single_step_handler+0x164>
    89d8:	e5933000 	ldr	r3, [r3]
    89dc:	e3530000 	cmp	r3, #0
    89e0:	0a000005 	beq	89fc <single_step_handler+0x34>
    89e4:	e58d1000 	str	r1, [sp]
    89e8:	e59f0140 	ldr	r0, [pc, #320]	; 8b30 <single_step_handler+0x168>
    89ec:	e59f1140 	ldr	r1, [pc, #320]	; 8b34 <single_step_handler+0x16c>
    89f0:	e59f2140 	ldr	r2, [pc, #320]	; 8b38 <single_step_handler+0x170>
    89f4:	e3a0300c 	mov	r3, #12
    89f8:	eb0001d6 	bl	9158 <printk>
    89fc:	ee153f30 	mrc	15, 0, r3, cr5, cr0, {1}
    8a00:	e203300f 	and	r3, r3, #15
    8a04:	e3530002 	cmp	r3, #2
    8a08:	0a000006 	beq	8a28 <single_step_handler+0x60>
    8a0c:	eb0001ec 	bl	91c4 <rpi_reset_putc>
    8a10:	e59f0124 	ldr	r0, [pc, #292]	; 8b3c <single_step_handler+0x174>
    8a14:	e59f1118 	ldr	r1, [pc, #280]	; 8b34 <single_step_handler+0x16c>
    8a18:	e59f2118 	ldr	r2, [pc, #280]	; 8b38 <single_step_handler+0x170>
    8a1c:	e3a0300e 	mov	r3, #14
    8a20:	eb0001cc 	bl	9158 <printk>
    8a24:	eb000363 	bl	97b8 <clean_reboot>
    8a28:	e59f3110 	ldr	r3, [pc, #272]	; 8b40 <single_step_handler+0x178>
    8a2c:	e5934000 	ldr	r4, [r3]
    8a30:	e594201c 	ldr	r2, [r4, #28]
    8a34:	e5943018 	ldr	r3, [r4, #24]
    8a38:	e1520003 	cmp	r2, r3
    8a3c:	1a000011 	bne	8a88 <single_step_handler+0xc0>
    8a40:	e59f00fc 	ldr	r0, [pc, #252]	; 8b44 <single_step_handler+0x17c>
    8a44:	e1a01005 	mov	r1, r5
    8a48:	e5942008 	ldr	r2, [r4, #8]
    8a4c:	eb0001c1 	bl	9158 <printk>
    8a50:	e1a00005 	mov	r0, r5
    8a54:	ebffff75 	bl	8830 <brkpt_mismatch_disable0>
    8a58:	e5845020 	str	r5, [r4, #32]
    8a5c:	e3a03001 	mov	r3, #1
    8a60:	e5843024 	str	r3, [r4, #36]	; 0x24
    8a64:	e5943014 	ldr	r3, [r4, #20]
    8a68:	e2833001 	add	r3, r3, #1
    8a6c:	e5843014 	str	r3, [r4, #20]
    8a70:	e5943008 	ldr	r3, [r4, #8]
    8a74:	e1a00004 	mov	r0, r4
    8a78:	e12fff33 	blx	r3
    8a7c:	e59f00c4 	ldr	r0, [pc, #196]	; 8b48 <single_step_handler+0x180>
    8a80:	eb0001b4 	bl	9158 <printk>
    8a84:	ea000026 	b	8b24 <single_step_handler+0x15c>
    8a88:	e594201c 	ldr	r2, [r4, #28]
    8a8c:	e5943018 	ldr	r3, [r4, #24]
    8a90:	e1520003 	cmp	r2, r3
    8a94:	3a000008 	bcc	8abc <single_step_handler+0xf4>
    8a98:	eb0001c9 	bl	91c4 <rpi_reset_putc>
    8a9c:	e59f30a8 	ldr	r3, [pc, #168]	; 8b4c <single_step_handler+0x184>
    8aa0:	e58d3000 	str	r3, [sp]
    8aa4:	e59f00a4 	ldr	r0, [pc, #164]	; 8b50 <single_step_handler+0x188>
    8aa8:	e59f1084 	ldr	r1, [pc, #132]	; 8b34 <single_step_handler+0x16c>
    8aac:	e59f2084 	ldr	r2, [pc, #132]	; 8b38 <single_step_handler+0x170>
    8ab0:	e3a03021 	mov	r3, #33	; 0x21
    8ab4:	eb0001a7 	bl	9158 <printk>
    8ab8:	eb00033e 	bl	97b8 <clean_reboot>
    8abc:	e594301c 	ldr	r3, [r4, #28]
    8ac0:	e2833001 	add	r3, r3, #1
    8ac4:	e584301c 	str	r3, [r4, #28]
    8ac8:	e59f305c 	ldr	r3, [pc, #92]	; 8b2c <single_step_handler+0x164>
    8acc:	e5933000 	ldr	r3, [r3]
    8ad0:	e3530000 	cmp	r3, #0
    8ad4:	0a000005 	beq	8af0 <single_step_handler+0x128>
    8ad8:	e58d5000 	str	r5, [sp]
    8adc:	e59f0070 	ldr	r0, [pc, #112]	; 8b54 <single_step_handler+0x18c>
    8ae0:	e59f104c 	ldr	r1, [pc, #76]	; 8b34 <single_step_handler+0x16c>
    8ae4:	e59f204c 	ldr	r2, [pc, #76]	; 8b38 <single_step_handler+0x170>
    8ae8:	e3a03024 	mov	r3, #36	; 0x24
    8aec:	eb000199 	bl	9158 <printk>
    8af0:	e1a00005 	mov	r0, r5
    8af4:	e59f105c 	ldr	r1, [pc, #92]	; 8b58 <single_step_handler+0x190>
    8af8:	ebffff3f 	bl	87fc <brkpt_mismatch_set0>
    8afc:	e59f3028 	ldr	r3, [pc, #40]	; 8b2c <single_step_handler+0x164>
    8b00:	e5933000 	ldr	r3, [r3]
    8b04:	e3530000 	cmp	r3, #0
    8b08:	0a000005 	beq	8b24 <single_step_handler+0x15c>
    8b0c:	e58d5000 	str	r5, [sp]
    8b10:	e59f0044 	ldr	r0, [pc, #68]	; 8b5c <single_step_handler+0x194>
    8b14:	e59f1018 	ldr	r1, [pc, #24]	; 8b34 <single_step_handler+0x16c>
    8b18:	e59f2018 	ldr	r2, [pc, #24]	; 8b38 <single_step_handler+0x170>
    8b1c:	e3a03026 	mov	r3, #38	; 0x26
    8b20:	eb00018c 	bl	9158 <printk>
    8b24:	e28dd00c 	add	sp, sp, #12
    8b28:	e8bd8030 	pop	{r4, r5, pc}
    8b2c:	0000c668 	andeq	ip, r0, r8, ror #12
    8b30:	0000a0e0 	andeq	sl, r0, r0, ror #1
    8b34:	0000a100 	andeq	sl, r0, r0, lsl #2
    8b38:	0000a3e4 	andeq	sl, r0, r4, ror #7
    8b3c:	00009fec 	andeq	r9, r0, ip, ror #31
    8b40:	0000c674 	andeq	ip, r0, r4, ror r6
    8b44:	0000a114 	andeq	sl, r0, r4, lsl r1
    8b48:	0000a134 	andeq	sl, r0, r4, lsr r1
    8b4c:	0000a15c 	andeq	sl, r0, ip, asr r1
    8b50:	00009d70 	andeq	r9, r0, r0, ror sp
    8b54:	0000a180 	andeq	sl, r0, r0, lsl #3
    8b58:	000089c8 	andeq	r8, r0, r8, asr #19
    8b5c:	0000a1a8 	andeq	sl, r0, r8, lsr #3

00008b60 <check_one_cswitch>:
    8b60:	e92d4ff0 	push	{r4, r5, r6, r7, r8, r9, sl, fp, lr}
    8b64:	e24dd00c 	sub	sp, sp, #12
    8b68:	e1a04000 	mov	r4, r0
    8b6c:	e10f8000 	mrs	r8, CPSR
    8b70:	e3c8701f 	bic	r7, r8, #31
    8b74:	e3877010 	orr	r7, r7, #16
    8b78:	e59f3460 	ldr	r3, [pc, #1120]	; 8fe0 <check_one_cswitch+0x480>
    8b7c:	e5830000 	str	r0, [r3]
    8b80:	e3a03001 	mov	r3, #1
    8b84:	e5803030 	str	r3, [r0, #48]	; 0x30
    8b88:	e59f6454 	ldr	r6, [pc, #1108]	; 8fe4 <check_one_cswitch+0x484>
    8b8c:	e59fb454 	ldr	fp, [pc, #1108]	; 8fe8 <check_one_cswitch+0x488>
    8b90:	e59fa454 	ldr	sl, [pc, #1108]	; 8fec <check_one_cswitch+0x48c>
    8b94:	e59f9454 	ldr	r9, [pc, #1108]	; 8ff0 <check_one_cswitch+0x490>
    8b98:	e59f5454 	ldr	r5, [pc, #1108]	; 8ff4 <check_one_cswitch+0x494>
    8b9c:	e594300c 	ldr	r3, [r4, #12]
    8ba0:	e1a00004 	mov	r0, r4
    8ba4:	e12fff33 	blx	r3
    8ba8:	e5963000 	ldr	r3, [r6]
    8bac:	e3530000 	cmp	r3, #0
    8bb0:	0a000006 	beq	8bd0 <check_one_cswitch+0x70>
    8bb4:	e5943028 	ldr	r3, [r4, #40]	; 0x28
    8bb8:	e58d3000 	str	r3, [sp]
    8bbc:	e1a0000b 	mov	r0, fp
    8bc0:	e1a0100a 	mov	r1, sl
    8bc4:	e1a02009 	mov	r2, r9
    8bc8:	e3a03033 	mov	r3, #51	; 0x33
    8bcc:	eb000161 	bl	9158 <printk>
    8bd0:	e3a00000 	mov	r0, #0
    8bd4:	e1a01005 	mov	r1, r5
    8bd8:	ebffff07 	bl	87fc <brkpt_mismatch_set0>
    8bdc:	e5943018 	ldr	r3, [r4, #24]
    8be0:	e2833001 	add	r3, r3, #1
    8be4:	e5843018 	str	r3, [r4, #24]
    8be8:	e3a03000 	mov	r3, #0
    8bec:	e584301c 	str	r3, [r4, #28]
    8bf0:	e5843024 	str	r3, [r4, #36]	; 0x24
    8bf4:	e1a00007 	mov	r0, r7
    8bf8:	e5941004 	ldr	r1, [r4, #4]
    8bfc:	e1a02004 	mov	r2, r4
    8c00:	ebffff61 	bl	898c <user_trampoline_ret>
    8c04:	e5943024 	ldr	r3, [r4, #36]	; 0x24
    8c08:	e3530000 	cmp	r3, #0
    8c0c:	1a000002 	bne	8c1c <check_one_cswitch+0xbc>
    8c10:	e5943008 	ldr	r3, [r4, #8]
    8c14:	e1a00004 	mov	r0, r4
    8c18:	e12fff33 	blx	r3
    8c1c:	e5943010 	ldr	r3, [r4, #16]
    8c20:	e1a00004 	mov	r0, r4
    8c24:	e12fff33 	blx	r3
    8c28:	e3500000 	cmp	r0, #0
    8c2c:	1a000006 	bne	8c4c <check_one_cswitch+0xec>
    8c30:	e5941020 	ldr	r1, [r4, #32]
    8c34:	e5942018 	ldr	r2, [r4, #24]
    8c38:	e59f03b8 	ldr	r0, [pc, #952]	; 8ff8 <check_one_cswitch+0x498>
    8c3c:	eb000145 	bl	9158 <printk>
    8c40:	e594302c 	ldr	r3, [r4, #44]	; 0x2c
    8c44:	e2833001 	add	r3, r3, #1
    8c48:	e584302c 	str	r3, [r4, #44]	; 0x2c
    8c4c:	e5942028 	ldr	r2, [r4, #40]	; 0x28
    8c50:	e2822001 	add	r2, r2, #1
    8c54:	e5842028 	str	r2, [r4, #40]	; 0x28
    8c58:	e5943024 	ldr	r3, [r4, #36]	; 0x24
    8c5c:	e3530000 	cmp	r3, #0
    8c60:	1affffcd 	bne	8b9c <check_one_cswitch+0x3c>
    8c64:	e5941014 	ldr	r1, [r4, #20]
    8c68:	e59f038c 	ldr	r0, [pc, #908]	; 8ffc <check_one_cswitch+0x49c>
    8c6c:	e594302c 	ldr	r3, [r4, #44]	; 0x2c
    8c70:	eb000138 	bl	9158 <printk>
    8c74:	e208301f 	and	r3, r8, #31
    8c78:	e3530012 	cmp	r3, #18
    8c7c:	13530010 	cmpne	r3, #16
    8c80:	0a000006 	beq	8ca0 <check_one_cswitch+0x140>
    8c84:	e3530017 	cmp	r3, #23
    8c88:	13530013 	cmpne	r3, #19
    8c8c:	0a000005 	beq	8ca8 <check_one_cswitch+0x148>
    8c90:	e353001f 	cmp	r3, #31
    8c94:	1a000005 	bne	8cb0 <check_one_cswitch+0x150>
    8c98:	e3a02001 	mov	r2, #1
    8c9c:	ea000004 	b	8cb4 <check_one_cswitch+0x154>
    8ca0:	e3a02001 	mov	r2, #1
    8ca4:	ea000002 	b	8cb4 <check_one_cswitch+0x154>
    8ca8:	e3a02001 	mov	r2, #1
    8cac:	ea000000 	b	8cb4 <check_one_cswitch+0x154>
    8cb0:	e3a02000 	mov	r2, #0
    8cb4:	e3520000 	cmp	r2, #0
    8cb8:	1a000008 	bne	8ce0 <check_one_cswitch+0x180>
    8cbc:	eb000140 	bl	91c4 <rpi_reset_putc>
    8cc0:	e59f3338 	ldr	r3, [pc, #824]	; 9000 <check_one_cswitch+0x4a0>
    8cc4:	e58d3000 	str	r3, [sp]
    8cc8:	e59f0334 	ldr	r0, [pc, #820]	; 9004 <check_one_cswitch+0x4a4>
    8ccc:	e59f1334 	ldr	r1, [pc, #820]	; 9008 <check_one_cswitch+0x4a8>
    8cd0:	e59f2334 	ldr	r2, [pc, #820]	; 900c <check_one_cswitch+0x4ac>
    8cd4:	e3a03011 	mov	r3, #17
    8cd8:	eb00011e 	bl	9158 <printk>
    8cdc:	eb0002b5 	bl	97b8 <clean_reboot>
    8ce0:	e2433010 	sub	r3, r3, #16
    8ce4:	e353000f 	cmp	r3, #15
    8ce8:	979ff103 	ldrls	pc, [pc, r3, lsl #2]
    8cec:	ea000019 	b	8d58 <check_one_cswitch+0x1f8>
    8cf0:	00008d78 	andeq	r8, r0, r8, ror sp
    8cf4:	00008d80 	andeq	r8, r0, r0, lsl #27
    8cf8:	00008d30 	andeq	r8, r0, r0, lsr sp
    8cfc:	00008d38 	andeq	r8, r0, r8, lsr sp
    8d00:	00008d58 	andeq	r8, r0, r8, asr sp
    8d04:	00008d58 	andeq	r8, r0, r8, asr sp
    8d08:	00008d58 	andeq	r8, r0, r8, asr sp
    8d0c:	00008d40 	andeq	r8, r0, r0, asr #26
    8d10:	00008d58 	andeq	r8, r0, r8, asr sp
    8d14:	00008d58 	andeq	r8, r0, r8, asr sp
    8d18:	00008d58 	andeq	r8, r0, r8, asr sp
    8d1c:	00008d48 	andeq	r8, r0, r8, asr #26
    8d20:	00008d58 	andeq	r8, r0, r8, asr sp
    8d24:	00008d58 	andeq	r8, r0, r8, asr sp
    8d28:	00008d58 	andeq	r8, r0, r8, asr sp
    8d2c:	00008d50 	andeq	r8, r0, r0, asr sp
    8d30:	e59f12d8 	ldr	r1, [pc, #728]	; 9010 <check_one_cswitch+0x4b0>
    8d34:	ea000012 	b	8d84 <check_one_cswitch+0x224>
    8d38:	e59f12d4 	ldr	r1, [pc, #724]	; 9014 <check_one_cswitch+0x4b4>
    8d3c:	ea000010 	b	8d84 <check_one_cswitch+0x224>
    8d40:	e59f12d0 	ldr	r1, [pc, #720]	; 9018 <check_one_cswitch+0x4b8>
    8d44:	ea00000e 	b	8d84 <check_one_cswitch+0x224>
    8d48:	e59f12cc 	ldr	r1, [pc, #716]	; 901c <check_one_cswitch+0x4bc>
    8d4c:	ea00000c 	b	8d84 <check_one_cswitch+0x224>
    8d50:	e59f12c8 	ldr	r1, [pc, #712]	; 9020 <check_one_cswitch+0x4c0>
    8d54:	ea00000a 	b	8d84 <check_one_cswitch+0x224>
    8d58:	eb000119 	bl	91c4 <rpi_reset_putc>
    8d5c:	e58d8000 	str	r8, [sp]
    8d60:	e59f02bc 	ldr	r0, [pc, #700]	; 9024 <check_one_cswitch+0x4c4>
    8d64:	e59f129c 	ldr	r1, [pc, #668]	; 9008 <check_one_cswitch+0x4a8>
    8d68:	e59f22b8 	ldr	r2, [pc, #696]	; 9028 <check_one_cswitch+0x4c8>
    8d6c:	e3a03021 	mov	r3, #33	; 0x21
    8d70:	eb0000f8 	bl	9158 <printk>
    8d74:	eb00028f 	bl	97b8 <clean_reboot>
    8d78:	e59f12ac 	ldr	r1, [pc, #684]	; 902c <check_one_cswitch+0x4cc>
    8d7c:	ea000000 	b	8d84 <check_one_cswitch+0x224>
    8d80:	e59f12a8 	ldr	r1, [pc, #680]	; 9030 <check_one_cswitch+0x4d0>
    8d84:	e59f02a8 	ldr	r0, [pc, #680]	; 9034 <check_one_cswitch+0x4d4>
    8d88:	e1a02008 	mov	r2, r8
    8d8c:	eb0000f1 	bl	9158 <printk>
    8d90:	e10f5000 	mrs	r5, CPSR
    8d94:	e205301f 	and	r3, r5, #31
    8d98:	e3530012 	cmp	r3, #18
    8d9c:	13530010 	cmpne	r3, #16
    8da0:	0a000006 	beq	8dc0 <check_one_cswitch+0x260>
    8da4:	e3530017 	cmp	r3, #23
    8da8:	13530013 	cmpne	r3, #19
    8dac:	0a000005 	beq	8dc8 <check_one_cswitch+0x268>
    8db0:	e353001f 	cmp	r3, #31
    8db4:	1a000005 	bne	8dd0 <check_one_cswitch+0x270>
    8db8:	e3a02001 	mov	r2, #1
    8dbc:	ea000004 	b	8dd4 <check_one_cswitch+0x274>
    8dc0:	e3a02001 	mov	r2, #1
    8dc4:	ea000002 	b	8dd4 <check_one_cswitch+0x274>
    8dc8:	e3a02001 	mov	r2, #1
    8dcc:	ea000000 	b	8dd4 <check_one_cswitch+0x274>
    8dd0:	e3a02000 	mov	r2, #0
    8dd4:	e3520000 	cmp	r2, #0
    8dd8:	1a000008 	bne	8e00 <check_one_cswitch+0x2a0>
    8ddc:	eb0000f8 	bl	91c4 <rpi_reset_putc>
    8de0:	e59f3218 	ldr	r3, [pc, #536]	; 9000 <check_one_cswitch+0x4a0>
    8de4:	e58d3000 	str	r3, [sp]
    8de8:	e59f0214 	ldr	r0, [pc, #532]	; 9004 <check_one_cswitch+0x4a4>
    8dec:	e59f1214 	ldr	r1, [pc, #532]	; 9008 <check_one_cswitch+0x4a8>
    8df0:	e59f2214 	ldr	r2, [pc, #532]	; 900c <check_one_cswitch+0x4ac>
    8df4:	e3a03011 	mov	r3, #17
    8df8:	eb0000d6 	bl	9158 <printk>
    8dfc:	eb00026d 	bl	97b8 <clean_reboot>
    8e00:	e2433010 	sub	r3, r3, #16
    8e04:	e353000f 	cmp	r3, #15
    8e08:	979ff103 	ldrls	pc, [pc, r3, lsl #2]
    8e0c:	ea000019 	b	8e78 <check_one_cswitch+0x318>
    8e10:	00008e98 	muleq	r0, r8, lr
    8e14:	00008ea0 	andeq	r8, r0, r0, lsr #29
    8e18:	00008e50 	andeq	r8, r0, r0, asr lr
    8e1c:	00008e58 	andeq	r8, r0, r8, asr lr
    8e20:	00008e78 	andeq	r8, r0, r8, ror lr
    8e24:	00008e78 	andeq	r8, r0, r8, ror lr
    8e28:	00008e78 	andeq	r8, r0, r8, ror lr
    8e2c:	00008e60 	andeq	r8, r0, r0, ror #28
    8e30:	00008e78 	andeq	r8, r0, r8, ror lr
    8e34:	00008e78 	andeq	r8, r0, r8, ror lr
    8e38:	00008e78 	andeq	r8, r0, r8, ror lr
    8e3c:	00008e68 	andeq	r8, r0, r8, ror #28
    8e40:	00008e78 	andeq	r8, r0, r8, ror lr
    8e44:	00008e78 	andeq	r8, r0, r8, ror lr
    8e48:	00008e78 	andeq	r8, r0, r8, ror lr
    8e4c:	00008e70 	andeq	r8, r0, r0, ror lr
    8e50:	e59f11b8 	ldr	r1, [pc, #440]	; 9010 <check_one_cswitch+0x4b0>
    8e54:	ea000012 	b	8ea4 <check_one_cswitch+0x344>
    8e58:	e59f11b4 	ldr	r1, [pc, #436]	; 9014 <check_one_cswitch+0x4b4>
    8e5c:	ea000010 	b	8ea4 <check_one_cswitch+0x344>
    8e60:	e59f11b0 	ldr	r1, [pc, #432]	; 9018 <check_one_cswitch+0x4b8>
    8e64:	ea00000e 	b	8ea4 <check_one_cswitch+0x344>
    8e68:	e59f11ac 	ldr	r1, [pc, #428]	; 901c <check_one_cswitch+0x4bc>
    8e6c:	ea00000c 	b	8ea4 <check_one_cswitch+0x344>
    8e70:	e59f11a8 	ldr	r1, [pc, #424]	; 9020 <check_one_cswitch+0x4c0>
    8e74:	ea00000a 	b	8ea4 <check_one_cswitch+0x344>
    8e78:	eb0000d1 	bl	91c4 <rpi_reset_putc>
    8e7c:	e58d5000 	str	r5, [sp]
    8e80:	e59f019c 	ldr	r0, [pc, #412]	; 9024 <check_one_cswitch+0x4c4>
    8e84:	e59f117c 	ldr	r1, [pc, #380]	; 9008 <check_one_cswitch+0x4a8>
    8e88:	e59f2198 	ldr	r2, [pc, #408]	; 9028 <check_one_cswitch+0x4c8>
    8e8c:	e3a03021 	mov	r3, #33	; 0x21
    8e90:	eb0000b0 	bl	9158 <printk>
    8e94:	eb000247 	bl	97b8 <clean_reboot>
    8e98:	e59f118c 	ldr	r1, [pc, #396]	; 902c <check_one_cswitch+0x4cc>
    8e9c:	ea000000 	b	8ea4 <check_one_cswitch+0x344>
    8ea0:	e59f1188 	ldr	r1, [pc, #392]	; 9030 <check_one_cswitch+0x4d0>
    8ea4:	e10f2000 	mrs	r2, CPSR
    8ea8:	e59f0188 	ldr	r0, [pc, #392]	; 9038 <check_one_cswitch+0x4d8>
    8eac:	eb0000a9 	bl	9158 <printk>
    8eb0:	e3a00000 	mov	r0, #0
    8eb4:	ebfffe5d 	bl	8830 <brkpt_mismatch_disable0>
    8eb8:	e208801f 	and	r8, r8, #31
    8ebc:	e3580012 	cmp	r8, #18
    8ec0:	13580010 	cmpne	r8, #16
    8ec4:	0a000006 	beq	8ee4 <check_one_cswitch+0x384>
    8ec8:	e3580017 	cmp	r8, #23
    8ecc:	13580013 	cmpne	r8, #19
    8ed0:	0a000005 	beq	8eec <check_one_cswitch+0x38c>
    8ed4:	e358001f 	cmp	r8, #31
    8ed8:	1a000005 	bne	8ef4 <check_one_cswitch+0x394>
    8edc:	e3a03001 	mov	r3, #1
    8ee0:	ea000004 	b	8ef8 <check_one_cswitch+0x398>
    8ee4:	e3a03001 	mov	r3, #1
    8ee8:	ea000002 	b	8ef8 <check_one_cswitch+0x398>
    8eec:	e3a03001 	mov	r3, #1
    8ef0:	ea000000 	b	8ef8 <check_one_cswitch+0x398>
    8ef4:	e3a03000 	mov	r3, #0
    8ef8:	e3530000 	cmp	r3, #0
    8efc:	1a000008 	bne	8f24 <check_one_cswitch+0x3c4>
    8f00:	eb0000af 	bl	91c4 <rpi_reset_putc>
    8f04:	e59f30f4 	ldr	r3, [pc, #244]	; 9000 <check_one_cswitch+0x4a0>
    8f08:	e58d3000 	str	r3, [sp]
    8f0c:	e59f00f0 	ldr	r0, [pc, #240]	; 9004 <check_one_cswitch+0x4a4>
    8f10:	e59f10f0 	ldr	r1, [pc, #240]	; 9008 <check_one_cswitch+0x4a8>
    8f14:	e59f20f0 	ldr	r2, [pc, #240]	; 900c <check_one_cswitch+0x4ac>
    8f18:	e3a03011 	mov	r3, #17
    8f1c:	eb00008d 	bl	9158 <printk>
    8f20:	eb000224 	bl	97b8 <clean_reboot>
    8f24:	e10f3000 	mrs	r3, CPSR
    8f28:	e203301f 	and	r3, r3, #31
    8f2c:	e3530012 	cmp	r3, #18
    8f30:	13530010 	cmpne	r3, #16
    8f34:	0a000006 	beq	8f54 <check_one_cswitch+0x3f4>
    8f38:	e3530017 	cmp	r3, #23
    8f3c:	13530013 	cmpne	r3, #19
    8f40:	0a000005 	beq	8f5c <check_one_cswitch+0x3fc>
    8f44:	e353001f 	cmp	r3, #31
    8f48:	1a000005 	bne	8f64 <check_one_cswitch+0x404>
    8f4c:	e3a02001 	mov	r2, #1
    8f50:	ea000004 	b	8f68 <check_one_cswitch+0x408>
    8f54:	e3a02001 	mov	r2, #1
    8f58:	ea000002 	b	8f68 <check_one_cswitch+0x408>
    8f5c:	e3a02001 	mov	r2, #1
    8f60:	ea000000 	b	8f68 <check_one_cswitch+0x408>
    8f64:	e3a02000 	mov	r2, #0
    8f68:	e3520000 	cmp	r2, #0
    8f6c:	1a000008 	bne	8f94 <check_one_cswitch+0x434>
    8f70:	eb000093 	bl	91c4 <rpi_reset_putc>
    8f74:	e59f3084 	ldr	r3, [pc, #132]	; 9000 <check_one_cswitch+0x4a0>
    8f78:	e58d3000 	str	r3, [sp]
    8f7c:	e59f0080 	ldr	r0, [pc, #128]	; 9004 <check_one_cswitch+0x4a4>
    8f80:	e59f1080 	ldr	r1, [pc, #128]	; 9008 <check_one_cswitch+0x4a8>
    8f84:	e59f2080 	ldr	r2, [pc, #128]	; 900c <check_one_cswitch+0x4ac>
    8f88:	e3a03011 	mov	r3, #17
    8f8c:	eb000071 	bl	9158 <printk>
    8f90:	eb000208 	bl	97b8 <clean_reboot>
    8f94:	e1580003 	cmp	r8, r3
    8f98:	0a000008 	beq	8fc0 <check_one_cswitch+0x460>
    8f9c:	eb000088 	bl	91c4 <rpi_reset_putc>
    8fa0:	e59f3094 	ldr	r3, [pc, #148]	; 903c <check_one_cswitch+0x4dc>
    8fa4:	e58d3000 	str	r3, [sp]
    8fa8:	e59f0054 	ldr	r0, [pc, #84]	; 9004 <check_one_cswitch+0x4a4>
    8fac:	e59f1038 	ldr	r1, [pc, #56]	; 8fec <check_one_cswitch+0x48c>
    8fb0:	e59f2038 	ldr	r2, [pc, #56]	; 8ff0 <check_one_cswitch+0x490>
    8fb4:	e3a03057 	mov	r3, #87	; 0x57
    8fb8:	eb000066 	bl	9158 <printk>
    8fbc:	eb0001fd 	bl	97b8 <clean_reboot>
    8fc0:	e3a03000 	mov	r3, #0
    8fc4:	e5843030 	str	r3, [r4, #48]	; 0x30
    8fc8:	e594002c 	ldr	r0, [r4, #44]	; 0x2c
    8fcc:	e1500003 	cmp	r0, r3
    8fd0:	13a00000 	movne	r0, #0
    8fd4:	03a00001 	moveq	r0, #1
    8fd8:	e28dd00c 	add	sp, sp, #12
    8fdc:	e8bd8ff0 	pop	{r4, r5, r6, r7, r8, r9, sl, fp, pc}
    8fe0:	0000c674 	andeq	ip, r0, r4, ror r6
    8fe4:	0000c668 	andeq	ip, r0, r8, ror #12
    8fe8:	0000a228 	andeq	sl, r0, r8, lsr #4
    8fec:	0000a100 	andeq	sl, r0, r0, lsl #2
    8ff0:	0000a3d0 	ldrdeq	sl, [r0], -r0
    8ff4:	000089c8 	andeq	r8, r0, r8, asr #19
    8ff8:	0000a260 	andeq	sl, r0, r0, ror #4
    8ffc:	0000a2a8 	andeq	sl, r0, r8, lsr #5
    9000:	0000a2e8 	andeq	sl, r0, r8, ror #5
    9004:	00009d70 	andeq	r9, r0, r0, ror sp
    9008:	0000a2dc 	ldrdeq	sl, [r0], -ip
    900c:	0000a41c 	andeq	sl, r0, ip, lsl r4
    9010:	0000a1ec 	andeq	sl, r0, ip, ror #3
    9014:	0000a1f8 	strdeq	sl, [r0], -r8
    9018:	0000a204 	andeq	sl, r0, r4, lsl #4
    901c:	0000a210 	andeq	sl, r0, r0, lsl r2
    9020:	0000a21c 	andeq	sl, r0, ip, lsl r2
    9024:	0000a2fc 	strdeq	sl, [r0], -ip
    9028:	0000a410 	andeq	sl, r0, r0, lsl r4
    902c:	0000a1d4 	ldrdeq	sl, [r0], -r4
    9030:	0000a1e0 	andeq	sl, r0, r0, ror #3
    9034:	0000a320 	andeq	sl, r0, r0, lsr #6
    9038:	0000a33c 	andeq	sl, r0, ip, lsr r3
    903c:	0000a354 	andeq	sl, r0, r4, asr r3

00009040 <check_sequential>:
    9040:	e92d4038 	push	{r3, r4, r5, lr}
    9044:	e1a04000 	mov	r4, r0
    9048:	e3a05000 	mov	r5, #0
    904c:	ea000015 	b	90a8 <check_sequential+0x68>
    9050:	e594300c 	ldr	r3, [r4, #12]
    9054:	e1a00004 	mov	r0, r4
    9058:	e12fff33 	blx	r3
    905c:	e5943004 	ldr	r3, [r4, #4]
    9060:	e1a00004 	mov	r0, r4
    9064:	e12fff33 	blx	r3
    9068:	e5943008 	ldr	r3, [r4, #8]
    906c:	e1a00004 	mov	r0, r4
    9070:	e12fff33 	blx	r3
    9074:	e5943010 	ldr	r3, [r4, #16]
    9078:	e1a00004 	mov	r0, r4
    907c:	e12fff33 	blx	r3
    9080:	e3500000 	cmp	r0, #0
    9084:	1a000006 	bne	90a4 <check_sequential+0x64>
    9088:	eb00004d 	bl	91c4 <rpi_reset_putc>
    908c:	e59f0024 	ldr	r0, [pc, #36]	; 90b8 <check_sequential+0x78>
    9090:	e59f1024 	ldr	r1, [pc, #36]	; 90bc <check_sequential+0x7c>
    9094:	e59f2024 	ldr	r2, [pc, #36]	; 90c0 <check_sequential+0x80>
    9098:	e3a0306c 	mov	r3, #108	; 0x6c
    909c:	eb00002d 	bl	9158 <printk>
    90a0:	eb0001c4 	bl	97b8 <clean_reboot>
    90a4:	e2855001 	add	r5, r5, #1
    90a8:	e3550063 	cmp	r5, #99	; 0x63
    90ac:	9affffe7 	bls	9050 <check_sequential+0x10>
    90b0:	e3a00001 	mov	r0, #1
    90b4:	e8bd8038 	pop	{r3, r4, r5, pc}
    90b8:	0000a380 	andeq	sl, r0, r0, lsl #7
    90bc:	0000a100 	andeq	sl, r0, r0, lsl #2
    90c0:	0000a3bc 			; <UNDEFINED> instruction: 0x0000a3bc

000090c4 <check_zero>:
    90c4:	e3a03000 	mov	r3, #0
    90c8:	e5803030 	str	r3, [r0, #48]	; 0x30
    90cc:	e580302c 	str	r3, [r0, #44]	; 0x2c
    90d0:	e5803028 	str	r3, [r0, #40]	; 0x28
    90d4:	e5803024 	str	r3, [r0, #36]	; 0x24
    90d8:	e5803020 	str	r3, [r0, #32]
    90dc:	e580301c 	str	r3, [r0, #28]
    90e0:	e5803018 	str	r3, [r0, #24]
    90e4:	e5803014 	str	r3, [r0, #20]
    90e8:	e12fff1e 	bx	lr

000090ec <check>:
    90ec:	e92d4010 	push	{r4, lr}
    90f0:	e1a04000 	mov	r4, r0
    90f4:	ebfffd72 	bl	86c4 <cp14_enable>
    90f8:	e1a00004 	mov	r0, r4
    90fc:	ebfffff0 	bl	90c4 <check_zero>
    9100:	e1a00004 	mov	r0, r4
    9104:	ebffffcd 	bl	9040 <check_sequential>
    9108:	e3500000 	cmp	r0, #0
    910c:	0a000005 	beq	9128 <check+0x3c>
    9110:	e1a00004 	mov	r0, r4
    9114:	ebfffe91 	bl	8b60 <check_one_cswitch>
    9118:	e3500000 	cmp	r0, #0
    911c:	0a000003 	beq	9130 <check+0x44>
    9120:	e3a00001 	mov	r0, #1
    9124:	e8bd8010 	pop	{r4, pc}
    9128:	e3a00000 	mov	r0, #0
    912c:	e8bd8010 	pop	{r4, pc}
    9130:	e3a00000 	mov	r0, #0
    9134:	e8bd8010 	pop	{r4, pc}

00009138 <memset>:
    9138:	e0802002 	add	r2, r0, r2
    913c:	e1a03000 	mov	r3, r0
    9140:	ea000001 	b	914c <memset+0x14>
    9144:	e5c31000 	strb	r1, [r3]
    9148:	e2833001 	add	r3, r3, #1
    914c:	e1530002 	cmp	r3, r2
    9150:	3afffffb 	bcc	9144 <memset+0xc>
    9154:	e12fff1e 	bx	lr

00009158 <printk>:
    9158:	e92d000f 	push	{r0, r1, r2, r3}
    915c:	e92d4030 	push	{r4, r5, lr}
    9160:	e24dd00c 	sub	sp, sp, #12
    9164:	e28d301c 	add	r3, sp, #28
    9168:	e58d3004 	str	r3, [sp, #4]
    916c:	e59f4034 	ldr	r4, [pc, #52]	; 91a8 <printk+0x50>
    9170:	e1a00004 	mov	r0, r4
    9174:	e3a01b01 	mov	r1, #1024	; 0x400
    9178:	e59d2018 	ldr	r2, [sp, #24]
    917c:	eb0000d0 	bl	94c4 <va_printk>
    9180:	e1a05000 	mov	r5, r0
    9184:	e59f3020 	ldr	r3, [pc, #32]	; 91ac <printk+0x54>
    9188:	e5933000 	ldr	r3, [r3]
    918c:	e1a00004 	mov	r0, r4
    9190:	e12fff33 	blx	r3
    9194:	e1a00005 	mov	r0, r5
    9198:	e28dd00c 	add	sp, sp, #12
    919c:	e8bd4030 	pop	{r4, r5, lr}
    91a0:	e28dd010 	add	sp, sp, #16
    91a4:	e12fff1e 	bx	lr
    91a8:	0000c67c 	andeq	ip, r0, ip, ror r6
    91ac:	00009d6c 	andeq	r9, r0, ip, ror #26

000091b0 <internal_putchar>:
    91b0:	e92d4010 	push	{r4, lr}
    91b4:	e1a04000 	mov	r4, r0
    91b8:	eb000291 	bl	9c04 <uart_putc>
    91bc:	e1a00004 	mov	r0, r4
    91c0:	e8bd8010 	pop	{r4, pc}

000091c4 <rpi_reset_putc>:
    91c4:	e59f2008 	ldr	r2, [pc, #8]	; 91d4 <rpi_reset_putc+0x10>
    91c8:	e59f3008 	ldr	r3, [pc, #8]	; 91d8 <rpi_reset_putc+0x14>
    91cc:	e5832000 	str	r2, [r3]
    91d0:	e12fff1e 	bx	lr
    91d4:	000091b0 			; <UNDEFINED> instruction: 0x000091b0
    91d8:	00009d68 	andeq	r9, r0, r8, ror #26

000091dc <rpi_set_putc>:
    91dc:	e59f3004 	ldr	r3, [pc, #4]	; 91e8 <rpi_set_putc+0xc>
    91e0:	e5830000 	str	r0, [r3]
    91e4:	e12fff1e 	bx	lr
    91e8:	00009d68 	andeq	r9, r0, r8, ror #26

000091ec <internal_putk>:
    91ec:	e92d4038 	push	{r3, r4, r5, lr}
    91f0:	e1a04000 	mov	r4, r0
    91f4:	e59f5020 	ldr	r5, [pc, #32]	; 921c <internal_putk+0x30>
    91f8:	ea000002 	b	9208 <internal_putk+0x1c>
    91fc:	e5953000 	ldr	r3, [r5]
    9200:	e12fff33 	blx	r3
    9204:	e2844001 	add	r4, r4, #1
    9208:	e5d40000 	ldrb	r0, [r4]
    920c:	e3500000 	cmp	r0, #0
    9210:	1afffff9 	bne	91fc <internal_putk+0x10>
    9214:	e3a00001 	mov	r0, #1
    9218:	e8bd8038 	pop	{r3, r4, r5, pc}
    921c:	00009d68 	andeq	r9, r0, r8, ror #26

00009220 <isdigit>:
    9220:	e2400030 	sub	r0, r0, #48	; 0x30
    9224:	e3500009 	cmp	r0, #9
    9228:	83a00000 	movhi	r0, #0
    922c:	93a00001 	movls	r0, #1
    9230:	e12fff1e 	bx	lr

00009234 <pad>:
    9234:	e0611000 	rsb	r1, r1, r0
    9238:	e3a03020 	mov	r3, #32
    923c:	ea000002 	b	924c <pad+0x18>
    9240:	e5c03000 	strb	r3, [r0]
    9244:	e2811001 	add	r1, r1, #1
    9248:	e2800001 	add	r0, r0, #1
    924c:	e1510002 	cmp	r1, r2
    9250:	bafffffa 	blt	9240 <pad+0xc>
    9254:	e3a03000 	mov	r3, #0
    9258:	e5c03000 	strb	r3, [r0]
    925c:	e12fff1e 	bx	lr

00009260 <reverse>:
    9260:	e063c002 	rsb	ip, r3, r2
    9264:	e28cc001 	add	ip, ip, #1
    9268:	e15c0001 	cmp	ip, r1
    926c:	c061100c 	rsbgt	r1, r1, ip
    9270:	c0833001 	addgt	r3, r3, r1
    9274:	e2422001 	sub	r2, r2, #1
    9278:	e1a01000 	mov	r1, r0
    927c:	ea000002 	b	928c <reverse+0x2c>
    9280:	e452c001 	ldrb	ip, [r2], #-1
    9284:	e5c1c000 	strb	ip, [r1]
    9288:	e2811001 	add	r1, r1, #1
    928c:	e1520003 	cmp	r2, r3
    9290:	2afffffa 	bcs	9280 <reverse+0x20>
    9294:	e3a03000 	mov	r3, #0
    9298:	e5c13000 	strb	r3, [r1]
    929c:	e12fff1e 	bx	lr

000092a0 <emit>:
    92a0:	e92d41f0 	push	{r4, r5, r6, r7, r8, lr}
    92a4:	e24dd048 	sub	sp, sp, #72	; 0x48
    92a8:	e1a05001 	mov	r5, r1
    92ac:	e1a04002 	mov	r4, r2
    92b0:	e59d2060 	ldr	r2, [sp, #96]	; 0x60
    92b4:	e1520004 	cmp	r2, r4
    92b8:	c2442001 	subgt	r2, r4, #1
    92bc:	e1a0c003 	mov	ip, r3
    92c0:	e2400002 	sub	r0, r0, #2
    92c4:	e350000e 	cmp	r0, #14
    92c8:	979ff100 	ldrls	pc, [pc, r0, lsl #2]
    92cc:	ea000048 	b	93f4 <emit+0x154>
    92d0:	000093cc 	andeq	r9, r0, ip, asr #7
    92d4:	000093f4 	strdeq	r9, [r0], -r4
    92d8:	000093f4 	strdeq	r9, [r0], -r4
    92dc:	000093f4 	strdeq	r9, [r0], -r4
    92e0:	000093f4 	strdeq	r9, [r0], -r4
    92e4:	000093f4 	strdeq	r9, [r0], -r4
    92e8:	000093c0 	andeq	r9, r0, r0, asr #7
    92ec:	000093f4 	strdeq	r9, [r0], -r4
    92f0:	0000930c 	andeq	r9, r0, ip, lsl #6
    92f4:	000093f4 	strdeq	r9, [r0], -r4
    92f8:	000093f4 	strdeq	r9, [r0], -r4
    92fc:	000093f4 	strdeq	r9, [r0], -r4
    9300:	000093f4 	strdeq	r9, [r0], -r4
    9304:	000093f4 	strdeq	r9, [r0], -r4
    9308:	00009380 	andeq	r9, r0, r0, lsl #7
    930c:	e59d1064 	ldr	r1, [sp, #100]	; 0x64
    9310:	e2911000 	adds	r1, r1, #0
    9314:	13a01001 	movne	r1, #1
    9318:	e0111fa3 	ands	r1, r1, r3, lsr #31
    931c:	1263c000 	rsbne	ip, r3, #0
    9320:	13a08001 	movne	r8, #1
    9324:	03a08000 	moveq	r8, #0
    9328:	e28d1008 	add	r1, sp, #8
    932c:	e59f7108 	ldr	r7, [pc, #264]	; 943c <emit+0x19c>
    9330:	e59f6108 	ldr	r6, [pc, #264]	; 9440 <emit+0x1a0>
    9334:	ea000000 	b	933c <emit+0x9c>
    9338:	e1a01000 	mov	r1, r0
    933c:	e2810001 	add	r0, r1, #1
    9340:	e083ec97 	umull	lr, r3, r7, ip
    9344:	e1a031a3 	lsr	r3, r3, #3
    9348:	e1a0e003 	mov	lr, r3
    934c:	e0833103 	add	r3, r3, r3, lsl #2
    9350:	e1a03083 	lsl	r3, r3, #1
    9354:	e063300c 	rsb	r3, r3, ip
    9358:	e7d63003 	ldrb	r3, [r6, r3]
    935c:	e5c13000 	strb	r3, [r1]
    9360:	e1a0c00e 	mov	ip, lr
    9364:	e35e0000 	cmp	lr, #0
    9368:	1afffff2 	bne	9338 <emit+0x98>
    936c:	e3580000 	cmp	r8, #0
    9370:	12810002 	addne	r0, r1, #2
    9374:	13a0302d 	movne	r3, #45	; 0x2d
    9378:	15c13001 	strbne	r3, [r1, #1]
    937c:	ea000025 	b	9418 <emit+0x178>
    9380:	e28d3008 	add	r3, sp, #8
    9384:	e59fe0b8 	ldr	lr, [pc, #184]	; 9444 <emit+0x1a4>
    9388:	ea000000 	b	9390 <emit+0xf0>
    938c:	e1a03000 	mov	r3, r0
    9390:	e2830001 	add	r0, r3, #1
    9394:	e20c100f 	and	r1, ip, #15
    9398:	e7de1001 	ldrb	r1, [lr, r1]
    939c:	e5c31000 	strb	r1, [r3]
    93a0:	e1b0c22c 	lsrs	ip, ip, #4
    93a4:	1afffff8 	bne	938c <emit+0xec>
    93a8:	e3a01078 	mov	r1, #120	; 0x78
    93ac:	e5c31001 	strb	r1, [r3, #1]
    93b0:	e2830003 	add	r0, r3, #3
    93b4:	e3a01030 	mov	r1, #48	; 0x30
    93b8:	e5c31002 	strb	r1, [r3, #2]
    93bc:	ea000015 	b	9418 <emit+0x178>
    93c0:	e5cd3008 	strb	r3, [sp, #8]
    93c4:	e28d0009 	add	r0, sp, #9
    93c8:	ea000012 	b	9418 <emit+0x178>
    93cc:	e28d3008 	add	r3, sp, #8
    93d0:	e59fe070 	ldr	lr, [pc, #112]	; 9448 <emit+0x1a8>
    93d4:	e2830001 	add	r0, r3, #1
    93d8:	e20c1001 	and	r1, ip, #1
    93dc:	e7de1001 	ldrb	r1, [lr, r1]
    93e0:	e5c31000 	strb	r1, [r3]
    93e4:	e1a03000 	mov	r3, r0
    93e8:	e1b0c0ac 	lsrs	ip, ip, #1
    93ec:	1afffff8 	bne	93d4 <emit+0x134>
    93f0:	ea000008 	b	9418 <emit+0x178>
    93f4:	ebffff72 	bl	91c4 <rpi_reset_putc>
    93f8:	e59f304c 	ldr	r3, [pc, #76]	; 944c <emit+0x1ac>
    93fc:	e58d3000 	str	r3, [sp]
    9400:	e59f0048 	ldr	r0, [pc, #72]	; 9450 <emit+0x1b0>
    9404:	e59f1048 	ldr	r1, [pc, #72]	; 9454 <emit+0x1b4>
    9408:	e59f2048 	ldr	r2, [pc, #72]	; 9458 <emit+0x1b8>
    940c:	e3a03077 	mov	r3, #119	; 0x77
    9410:	ebffff50 	bl	9158 <printk>
    9414:	eb0000e7 	bl	97b8 <clean_reboot>
    9418:	e28d1008 	add	r1, sp, #8
    941c:	ebffff84 	bl	9234 <pad>
    9420:	e1a02000 	mov	r2, r0
    9424:	e1a00005 	mov	r0, r5
    9428:	e1a01004 	mov	r1, r4
    942c:	e28d3008 	add	r3, sp, #8
    9430:	ebffff8a 	bl	9260 <reverse>
    9434:	e28dd048 	add	sp, sp, #72	; 0x48
    9438:	e8bd81f0 	pop	{r4, r5, r6, r7, r8, pc}
    943c:	cccccccd 	stclgt	12, cr12, [ip], {205}	; 0xcd
    9440:	0000a470 	andeq	sl, r0, r0, ror r4
    9444:	0000a47c 	andeq	sl, r0, ip, ror r4
    9448:	0000a490 	muleq	r0, r0, r4
    944c:	0000a46c 	andeq	sl, r0, ip, ror #8
    9450:	00009d70 	andeq	r9, r0, r0, ror sp
    9454:	0000a458 	andeq	sl, r0, r8, asr r4
    9458:	0000a434 	andeq	sl, r0, r4, lsr r4

0000945c <rpi_set_output>:
    945c:	e52de004 	push	{lr}		; (str lr, [sp, #-4]!)
    9460:	e24dd00c 	sub	sp, sp, #12
    9464:	e3500000 	cmp	r0, #0
    9468:	1a000008 	bne	9490 <rpi_set_output+0x34>
    946c:	ebffff54 	bl	91c4 <rpi_reset_putc>
    9470:	e59f3034 	ldr	r3, [pc, #52]	; 94ac <rpi_set_output+0x50>
    9474:	e58d3000 	str	r3, [sp]
    9478:	e59f0030 	ldr	r0, [pc, #48]	; 94b0 <rpi_set_output+0x54>
    947c:	e59f1030 	ldr	r1, [pc, #48]	; 94b4 <rpi_set_output+0x58>
    9480:	e59f2030 	ldr	r2, [pc, #48]	; 94b8 <rpi_set_output+0x5c>
    9484:	e3a03020 	mov	r3, #32
    9488:	ebffff32 	bl	9158 <printk>
    948c:	eb0000c9 	bl	97b8 <clean_reboot>
    9490:	e59f3024 	ldr	r3, [pc, #36]	; 94bc <rpi_set_output+0x60>
    9494:	e5830000 	str	r0, [r3]
    9498:	e3510000 	cmp	r1, #0
    949c:	159f301c 	ldrne	r3, [pc, #28]	; 94c0 <rpi_set_output+0x64>
    94a0:	15831000 	strne	r1, [r3]
    94a4:	e28dd00c 	add	sp, sp, #12
    94a8:	e49df004 	pop	{pc}		; (ldr pc, [sp], #4)
    94ac:	0000a494 	muleq	r0, r4, r4
    94b0:	00009d70 	andeq	r9, r0, r0, ror sp
    94b4:	0000a458 	andeq	sl, r0, r8, asr r4
    94b8:	0000a43c 	andeq	sl, r0, ip, lsr r4
    94bc:	00009d68 	andeq	r9, r0, r8, ror #26
    94c0:	00009d6c 	andeq	r9, r0, ip, ror #26

000094c4 <va_printk>:
    94c4:	e92d4ff0 	push	{r4, r5, r6, r7, r8, r9, sl, fp, lr}
    94c8:	e24dd094 	sub	sp, sp, #148	; 0x94
    94cc:	e1a0b000 	mov	fp, r0
    94d0:	e58d200c 	str	r2, [sp, #12]
    94d4:	e1a0a003 	mov	sl, r3
    94d8:	e2411001 	sub	r1, r1, #1
    94dc:	e0808001 	add	r8, r0, r1
    94e0:	e3a03000 	mov	r3, #0
    94e4:	e5c03000 	strb	r3, [r0]
    94e8:	e1a04000 	mov	r4, r0
    94ec:	e1a06002 	mov	r6, r2
    94f0:	ea000095 	b	974c <va_printk+0x288>
    94f4:	e3530025 	cmp	r3, #37	; 0x25
    94f8:	12866001 	addne	r6, r6, #1
    94fc:	15c43000 	strbne	r3, [r4]
    9500:	12844001 	addne	r4, r4, #1
    9504:	1a000090 	bne	974c <va_printk+0x288>
    9508:	e5d62001 	ldrb	r2, [r6, #1]
    950c:	e3520025 	cmp	r2, #37	; 0x25
    9510:	05c43000 	strbeq	r3, [r4]
    9514:	02866002 	addeq	r6, r6, #2
    9518:	02844001 	addeq	r4, r4, #1
    951c:	0a00008a 	beq	974c <va_printk+0x288>
    9520:	e2866001 	add	r6, r6, #1
    9524:	e3a07000 	mov	r7, #0
    9528:	ea000004 	b	9540 <va_printk+0x7c>
    952c:	e0877107 	add	r7, r7, r7, lsl #2
    9530:	e1a07087 	lsl	r7, r7, #1
    9534:	e0877005 	add	r7, r7, r5
    9538:	e2477030 	sub	r7, r7, #48	; 0x30
    953c:	e2866001 	add	r6, r6, #1
    9540:	e5d65000 	ldrb	r5, [r6]
    9544:	e1a09005 	mov	r9, r5
    9548:	e1a00005 	mov	r0, r5
    954c:	ebffff33 	bl	9220 <isdigit>
    9550:	e3500000 	cmp	r0, #0
    9554:	1afffff4 	bne	952c <va_printk+0x68>
    9558:	e357001f 	cmp	r7, #31
    955c:	9a000008 	bls	9584 <va_printk+0xc0>
    9560:	ebffff17 	bl	91c4 <rpi_reset_putc>
    9564:	e59f320c 	ldr	r3, [pc, #524]	; 9778 <va_printk+0x2b4>
    9568:	e58d3000 	str	r3, [sp]
    956c:	e59f0208 	ldr	r0, [pc, #520]	; 977c <va_printk+0x2b8>
    9570:	e59f1208 	ldr	r1, [pc, #520]	; 9780 <va_printk+0x2bc>
    9574:	e59f2208 	ldr	r2, [pc, #520]	; 9784 <va_printk+0x2c0>
    9578:	e3a03095 	mov	r3, #149	; 0x95
    957c:	ebfffef5 	bl	9158 <printk>
    9580:	eb00008c 	bl	97b8 <clean_reboot>
    9584:	e2455062 	sub	r5, r5, #98	; 0x62
    9588:	e3550016 	cmp	r5, #22
    958c:	979ff105 	ldrls	pc, [pc, r5, lsl #2]
    9590:	ea000052 	b	96e0 <va_printk+0x21c>
    9594:	00009684 	andeq	r9, r0, r4, lsl #13
    9598:	000096b8 			; <UNDEFINED> instruction: 0x000096b8
    959c:	0000960c 	andeq	r9, r0, ip, lsl #12
    95a0:	000096e0 	andeq	r9, r0, r0, ror #13
    95a4:	000095f0 	strdeq	r9, [r0], -r0
    95a8:	000096e0 	andeq	r9, r0, r0, ror #13
    95ac:	000096e0 	andeq	r9, r0, r0, ror #13
    95b0:	000096e0 	andeq	r9, r0, r0, ror #13
    95b4:	000096e0 	andeq	r9, r0, r0, ror #13
    95b8:	000096e0 	andeq	r9, r0, r0, ror #13
    95bc:	000096e0 	andeq	r9, r0, r0, ror #13
    95c0:	000096e0 	andeq	r9, r0, r0, ror #13
    95c4:	000096e0 	andeq	r9, r0, r0, ror #13
    95c8:	000096e0 	andeq	r9, r0, r0, ror #13
    95cc:	0000965c 	andeq	r9, r0, ip, asr r6
    95d0:	000096e0 	andeq	r9, r0, r0, ror #13
    95d4:	000096e0 	andeq	r9, r0, r0, ror #13
    95d8:	000096ac 	andeq	r9, r0, ip, lsr #13
    95dc:	000096e0 	andeq	r9, r0, r0, ror #13
    95e0:	00009634 	andeq	r9, r0, r4, lsr r6
    95e4:	000096e0 	andeq	r9, r0, r0, ror #13
    95e8:	000096e0 	andeq	r9, r0, r0, ror #13
    95ec:	0000965c 	andeq	r9, r0, ip, asr r6
    95f0:	ebfffef3 	bl	91c4 <rpi_reset_putc>
    95f4:	e59f018c 	ldr	r0, [pc, #396]	; 9788 <va_printk+0x2c4>
    95f8:	e59f1180 	ldr	r1, [pc, #384]	; 9780 <va_printk+0x2bc>
    95fc:	e59f2180 	ldr	r2, [pc, #384]	; 9784 <va_printk+0x2c0>
    9600:	e3a0309b 	mov	r3, #155	; 0x9b
    9604:	ebfffed3 	bl	9158 <printk>
    9608:	eb00006a 	bl	97b8 <clean_reboot>
    960c:	e59a3000 	ldr	r3, [sl]
    9610:	e28aa004 	add	sl, sl, #4
    9614:	e58d7000 	str	r7, [sp]
    9618:	e3a02001 	mov	r2, #1
    961c:	e58d2004 	str	r2, [sp, #4]
    9620:	e3a0000a 	mov	r0, #10
    9624:	e28d1010 	add	r1, sp, #16
    9628:	e3a02080 	mov	r2, #128	; 0x80
    962c:	ebffff1b 	bl	92a0 <emit>
    9630:	ea00003b 	b	9724 <va_printk+0x260>
    9634:	e59a3000 	ldr	r3, [sl]
    9638:	e28aa004 	add	sl, sl, #4
    963c:	e58d7000 	str	r7, [sp]
    9640:	e3a02000 	mov	r2, #0
    9644:	e58d2004 	str	r2, [sp, #4]
    9648:	e3a0000a 	mov	r0, #10
    964c:	e28d1010 	add	r1, sp, #16
    9650:	e3a02080 	mov	r2, #128	; 0x80
    9654:	ebffff11 	bl	92a0 <emit>
    9658:	ea000031 	b	9724 <va_printk+0x260>
    965c:	e59a3000 	ldr	r3, [sl]
    9660:	e28aa004 	add	sl, sl, #4
    9664:	e58d7000 	str	r7, [sp]
    9668:	e3a02000 	mov	r2, #0
    966c:	e58d2004 	str	r2, [sp, #4]
    9670:	e3a00010 	mov	r0, #16
    9674:	e08d1000 	add	r1, sp, r0
    9678:	e3a02080 	mov	r2, #128	; 0x80
    967c:	ebffff07 	bl	92a0 <emit>
    9680:	ea000027 	b	9724 <va_printk+0x260>
    9684:	e59a3000 	ldr	r3, [sl]
    9688:	e28aa004 	add	sl, sl, #4
    968c:	e58d7000 	str	r7, [sp]
    9690:	e3a02000 	mov	r2, #0
    9694:	e58d2004 	str	r2, [sp, #4]
    9698:	e3a00002 	mov	r0, #2
    969c:	e28d1010 	add	r1, sp, #16
    96a0:	e3a02080 	mov	r2, #128	; 0x80
    96a4:	ebfffefd 	bl	92a0 <emit>
    96a8:	ea00001d 	b	9724 <va_printk+0x260>
    96ac:	e59a0000 	ldr	r0, [sl]
    96b0:	e28aa004 	add	sl, sl, #4
    96b4:	ea00001a 	b	9724 <va_printk+0x260>
    96b8:	e59a3000 	ldr	r3, [sl]
    96bc:	e28aa004 	add	sl, sl, #4
    96c0:	e58d7000 	str	r7, [sp]
    96c4:	e3a02000 	mov	r2, #0
    96c8:	e58d2004 	str	r2, [sp, #4]
    96cc:	e3a00008 	mov	r0, #8
    96d0:	e28d1010 	add	r1, sp, #16
    96d4:	e3a02080 	mov	r2, #128	; 0x80
    96d8:	ebfffef0 	bl	92a0 <emit>
    96dc:	ea000010 	b	9724 <va_printk+0x260>
    96e0:	e3a03000 	mov	r3, #0
    96e4:	e5c63001 	strb	r3, [r6, #1]
    96e8:	e59f009c 	ldr	r0, [pc, #156]	; 978c <va_printk+0x2c8>
    96ec:	e1a01009 	mov	r1, r9
    96f0:	e1a02009 	mov	r2, r9
    96f4:	ebfffe97 	bl	9158 <printk>
    96f8:	e59f3090 	ldr	r3, [pc, #144]	; 9790 <va_printk+0x2cc>
    96fc:	e5933000 	ldr	r3, [r3]
    9700:	e59d000c 	ldr	r0, [sp, #12]
    9704:	e12fff33 	blx	r3
    9708:	ebfffead 	bl	91c4 <rpi_reset_putc>
    970c:	e59f0080 	ldr	r0, [pc, #128]	; 9794 <va_printk+0x2d0>
    9710:	e59f1068 	ldr	r1, [pc, #104]	; 9780 <va_printk+0x2bc>
    9714:	e59f2068 	ldr	r2, [pc, #104]	; 9784 <va_printk+0x2c0>
    9718:	e3a030bf 	mov	r3, #191	; 0xbf
    971c:	ebfffe8d 	bl	9158 <printk>
    9720:	eb000024 	bl	97b8 <clean_reboot>
    9724:	e2866001 	add	r6, r6, #1
    9728:	ea000002 	b	9738 <va_printk+0x274>
    972c:	e2800001 	add	r0, r0, #1
    9730:	e5c43000 	strb	r3, [r4]
    9734:	e2844001 	add	r4, r4, #1
    9738:	e1540008 	cmp	r4, r8
    973c:	2a000002 	bcs	974c <va_printk+0x288>
    9740:	e5d03000 	ldrb	r3, [r0]
    9744:	e3530000 	cmp	r3, #0
    9748:	1afffff7 	bne	972c <va_printk+0x268>
    974c:	e5d63000 	ldrb	r3, [r6]
    9750:	e3530000 	cmp	r3, #0
    9754:	0a000001 	beq	9760 <va_printk+0x29c>
    9758:	e1540008 	cmp	r4, r8
    975c:	3affff64 	bcc	94f4 <va_printk+0x30>
    9760:	e2840001 	add	r0, r4, #1
    9764:	e3a03000 	mov	r3, #0
    9768:	e5c43000 	strb	r3, [r4]
    976c:	e06b0000 	rsb	r0, fp, r0
    9770:	e28dd094 	add	sp, sp, #148	; 0x94
    9774:	e8bd8ff0 	pop	{r4, r5, r6, r7, r8, r9, sl, fp, pc}
    9778:	0000a49c 	muleq	r0, ip, r4
    977c:	00009d70 	andeq	r9, r0, r0, ror sp
    9780:	0000a458 	andeq	sl, r0, r8, asr r4
    9784:	0000a44c 	andeq	sl, r0, ip, asr #8
    9788:	0000a4a8 	andeq	sl, r0, r8, lsr #9
    978c:	0000a4d0 	ldrdeq	sl, [r0], -r0
    9790:	00009d6c 	andeq	r9, r0, ip, ror #26
    9794:	0000a500 	andeq	sl, r0, r0, lsl #10

00009798 <enable_cache>:
    9798:	ee113f10 	mrc	15, 0, r3, cr1, cr0, {0}
    979c:	e3833b06 	orr	r3, r3, #6144	; 0x1800
    97a0:	ee013f10 	mcr	15, 0, r3, cr1, cr0, {0}
    97a4:	e12fff1e 	bx	lr

000097a8 <disable_cache>:
    97a8:	ee113f10 	mrc	15, 0, r3, cr1, cr0, {0}
    97ac:	e3c33b06 	bic	r3, r3, #6144	; 0x1800
    97b0:	ee013f10 	mcr	15, 0, r3, cr1, cr0, {0}
    97b4:	e12fff1e 	bx	lr

000097b8 <clean_reboot>:
    97b8:	e92d4008 	push	{r3, lr}
    97bc:	eb00004a 	bl	98ec <reboot_handler>
    97c0:	e59f3014 	ldr	r3, [pc, #20]	; 97dc <clean_reboot+0x24>
    97c4:	e5933000 	ldr	r3, [r3]
    97c8:	e59f0010 	ldr	r0, [pc, #16]	; 97e0 <clean_reboot+0x28>
    97cc:	e12fff33 	blx	r3
    97d0:	e3a00064 	mov	r0, #100	; 0x64
    97d4:	eb000099 	bl	9a40 <delay_ms>
    97d8:	eb00006a 	bl	9988 <rpi_reboot>
    97dc:	00009d6c 	andeq	r9, r0, ip, ror #26
    97e0:	0000a520 	andeq	sl, r0, r0, lsr #10

000097e4 <_cstart>:
    97e4:	e92d4008 	push	{r3, lr}
    97e8:	e59f3024 	ldr	r3, [pc, #36]	; 9814 <_cstart+0x30>
    97ec:	e59f2024 	ldr	r2, [pc, #36]	; 9818 <_cstart+0x34>
    97f0:	e3a01000 	mov	r1, #0
    97f4:	ea000001 	b	9800 <_cstart+0x1c>
    97f8:	e5831000 	str	r1, [r3]
    97fc:	e2833004 	add	r3, r3, #4
    9800:	e1530002 	cmp	r3, r2
    9804:	3afffffb 	bcc	97f8 <_cstart+0x14>
    9808:	eb000036 	bl	98e8 <cstart_handler>
    980c:	ebfffb0f 	bl	8450 <notmain>
    9810:	ebffffe8 	bl	97b8 <clean_reboot>
    9814:	0000a644 	andeq	sl, r0, r4, asr #12
    9818:	0000ca80 	andeq	ip, r0, r0, lsl #21

0000981c <fast_interrupt_vector>:
    981c:	e52de004 	push	{lr}		; (str lr, [sp, #-4]!)
    9820:	e24dd00c 	sub	sp, sp, #12
    9824:	e1a04000 	mov	r4, r0
    9828:	ebfffe65 	bl	91c4 <rpi_reset_putc>
    982c:	e59f301c 	ldr	r3, [pc, #28]	; 9850 <fast_interrupt_vector+0x34>
    9830:	e58d3000 	str	r3, [sp]
    9834:	e58d4004 	str	r4, [sp, #4]
    9838:	e59f0014 	ldr	r0, [pc, #20]	; 9854 <fast_interrupt_vector+0x38>
    983c:	e59f1014 	ldr	r1, [pc, #20]	; 9858 <fast_interrupt_vector+0x3c>
    9840:	e59f2014 	ldr	r2, [pc, #20]	; 985c <fast_interrupt_vector+0x40>
    9844:	e3a03002 	mov	r3, #2
    9848:	ebfffe42 	bl	9158 <printk>
    984c:	ebffffd9 	bl	97b8 <clean_reboot>
    9850:	0000a5a4 	andeq	sl, r0, r4, lsr #11
    9854:	0000a544 	andeq	sl, r0, r4, asr #10
    9858:	0000a580 	andeq	sl, r0, r0, lsl #11
    985c:	0000a52c 	andeq	sl, r0, ip, lsr #10

00009860 <reset_vector>:
    9860:	e52de004 	push	{lr}		; (str lr, [sp, #-4]!)
    9864:	e24dd00c 	sub	sp, sp, #12
    9868:	e1a04000 	mov	r4, r0
    986c:	ebfffe54 	bl	91c4 <rpi_reset_putc>
    9870:	e59f301c 	ldr	r3, [pc, #28]	; 9894 <reset_vector+0x34>
    9874:	e58d3000 	str	r3, [sp]
    9878:	e58d4004 	str	r4, [sp, #4]
    987c:	e59f0014 	ldr	r0, [pc, #20]	; 9898 <reset_vector+0x38>
    9880:	e59f1014 	ldr	r1, [pc, #20]	; 989c <reset_vector+0x3c>
    9884:	e59f2014 	ldr	r2, [pc, #20]	; 98a0 <reset_vector+0x40>
    9888:	e3a03002 	mov	r3, #2
    988c:	ebfffe31 	bl	9158 <printk>
    9890:	ebffffc8 	bl	97b8 <clean_reboot>
    9894:	0000a5e0 	andeq	sl, r0, r0, ror #11
    9898:	0000a544 	andeq	sl, r0, r4, asr #10
    989c:	0000a5bc 			; <UNDEFINED> instruction: 0x0000a5bc
    98a0:	0000a5ac 	andeq	sl, r0, ip, lsr #11

000098a4 <undefined_instruction_vector>:
    98a4:	e52de004 	push	{lr}		; (str lr, [sp, #-4]!)
    98a8:	e24dd00c 	sub	sp, sp, #12
    98ac:	e1a04000 	mov	r4, r0
    98b0:	ebfffe43 	bl	91c4 <rpi_reset_putc>
    98b4:	e59f301c 	ldr	r3, [pc, #28]	; 98d8 <undefined_instruction_vector+0x34>
    98b8:	e58d3000 	str	r3, [sp]
    98bc:	e58d4004 	str	r4, [sp, #4]
    98c0:	e59f0014 	ldr	r0, [pc, #20]	; 98dc <undefined_instruction_vector+0x38>
    98c4:	e59f1014 	ldr	r1, [pc, #20]	; 98e0 <undefined_instruction_vector+0x3c>
    98c8:	e59f2014 	ldr	r2, [pc, #20]	; 98e4 <undefined_instruction_vector+0x40>
    98cc:	e3a03002 	mov	r3, #2
    98d0:	ebfffe20 	bl	9158 <printk>
    98d4:	ebffffb7 	bl	97b8 <clean_reboot>
    98d8:	0000a634 	andeq	sl, r0, r4, lsr r6
    98dc:	0000a544 	andeq	sl, r0, r4, asr #10
    98e0:	0000a608 	andeq	sl, r0, r8, lsl #12
    98e4:	0000a5e8 	andeq	sl, r0, r8, ror #11

000098e8 <cstart_handler>:
    98e8:	e12fff1e 	bx	lr

000098ec <reboot_handler>:
    98ec:	e12fff1e 	bx	lr

000098f0 <int_init>:
    98f0:	e92d4008 	push	{r3, lr}
    98f4:	eb00005b 	bl	9a68 <dev_barrier>
    98f8:	e59f004c 	ldr	r0, [pc, #76]	; 994c <int_init+0x5c>
    98fc:	e3e01000 	mvn	r1, #0
    9900:	eb000060 	bl	9a88 <PUT32>
    9904:	e59f0044 	ldr	r0, [pc, #68]	; 9950 <int_init+0x60>
    9908:	e3e01000 	mvn	r1, #0
    990c:	eb00005d 	bl	9a88 <PUT32>
    9910:	eb000054 	bl	9a68 <dev_barrier>
    9914:	e59f3038 	ldr	r3, [pc, #56]	; 9954 <int_init+0x64>
    9918:	e59f0038 	ldr	r0, [pc, #56]	; 9958 <int_init+0x68>
    991c:	e0630000 	rsb	r0, r3, r0
    9920:	e1a00140 	asr	r0, r0, #2
    9924:	e3a03000 	mov	r3, #0
    9928:	e59fc024 	ldr	ip, [pc, #36]	; 9954 <int_init+0x64>
    992c:	ea000003 	b	9940 <int_init+0x50>
    9930:	e1a02103 	lsl	r2, r3, #2
    9934:	e79c1103 	ldr	r1, [ip, r3, lsl #2]
    9938:	e5821000 	str	r1, [r2]
    993c:	e2833001 	add	r3, r3, #1
    9940:	e1530000 	cmp	r3, r0
    9944:	3afffff9 	bcc	9930 <int_init+0x40>
    9948:	e8bd8008 	pop	{r3, pc}
    994c:	2000b21c 	andcs	fp, r0, ip, lsl r2
    9950:	2000b220 	andcs	fp, r0, r0, lsr #4
    9954:	000088a0 	andeq	r8, r0, r0, lsr #17
    9958:	000088e0 	andeq	r8, r0, r0, ror #17

0000995c <at_user_level>:
    995c:	e10f0000 	mrs	r0, CPSR
    9960:	e200001f 	and	r0, r0, #31
    9964:	e3500010 	cmp	r0, #16
    9968:	13a00000 	movne	r0, #0
    996c:	03a00001 	moveq	r0, #1
    9970:	e12fff1e 	bx	lr

00009974 <set_user_level>:
    9974:	e10f3000 	mrs	r3, CPSR
    9978:	e3c3301f 	bic	r3, r3, #31
    997c:	e3833010 	orr	r3, r3, #16
    9980:	e129f003 	msr	CPSR_fc, r3
    9984:	e12fff1e 	bx	lr

00009988 <rpi_reboot>:
    9988:	e92d4008 	push	{r3, lr}
    998c:	ebfffff2 	bl	995c <at_user_level>
    9990:	e3500000 	cmp	r0, #0
    9994:	0a000000 	beq	999c <rpi_reboot+0x14>
    9998:	ebfffff5 	bl	9974 <set_user_level>
    999c:	e3a0001e 	mov	r0, #30
    99a0:	eb000026 	bl	9a40 <delay_ms>
    99a4:	e59f0014 	ldr	r0, [pc, #20]	; 99c0 <rpi_reboot+0x38>
    99a8:	e59f1014 	ldr	r1, [pc, #20]	; 99c4 <rpi_reboot+0x3c>
    99ac:	eb000035 	bl	9a88 <PUT32>
    99b0:	e59f0010 	ldr	r0, [pc, #16]	; 99c8 <rpi_reboot+0x40>
    99b4:	e59f1010 	ldr	r1, [pc, #16]	; 99cc <rpi_reboot+0x44>
    99b8:	eb000032 	bl	9a88 <PUT32>
    99bc:	eafffffe 	b	99bc <rpi_reboot+0x34>
    99c0:	20100024 	andscs	r0, r0, r4, lsr #32
    99c4:	5a000001 	bpl	99d0 <delay_cycles>
    99c8:	2010001c 	andscs	r0, r0, ip, lsl r0
    99cc:	5a000020 	bpl	9a54 <delay_sec>

000099d0 <delay_cycles>:
    99d0:	ea000001 	b	99dc <delay_cycles+0xc>
    99d4:	e2811000 	add	r1, r1, #0
    99d8:	e1a00003 	mov	r0, r3
    99dc:	e2403001 	sub	r3, r0, #1
    99e0:	e3500000 	cmp	r0, #0
    99e4:	1afffffa 	bne	99d4 <delay_cycles+0x4>
    99e8:	e12fff1e 	bx	lr

000099ec <timer_get_usec_raw>:
    99ec:	e92d4008 	push	{r3, lr}
    99f0:	e59f0004 	ldr	r0, [pc, #4]	; 99fc <timer_get_usec_raw+0x10>
    99f4:	eb00002f 	bl	9ab8 <GET32>
    99f8:	e8bd8008 	pop	{r3, pc}
    99fc:	20003004 	andcs	r3, r0, r4

00009a00 <timer_get_usec>:
    9a00:	e92d4010 	push	{r4, lr}
    9a04:	eb000017 	bl	9a68 <dev_barrier>
    9a08:	ebfffff7 	bl	99ec <timer_get_usec_raw>
    9a0c:	e1a04000 	mov	r4, r0
    9a10:	eb000014 	bl	9a68 <dev_barrier>
    9a14:	e1a00004 	mov	r0, r4
    9a18:	e8bd8010 	pop	{r4, pc}

00009a1c <delay_us>:
    9a1c:	e92d4038 	push	{r3, r4, r5, lr}
    9a20:	e1a05000 	mov	r5, r0
    9a24:	ebfffff5 	bl	9a00 <timer_get_usec>
    9a28:	e1a04000 	mov	r4, r0
    9a2c:	ebfffff3 	bl	9a00 <timer_get_usec>
    9a30:	e0640000 	rsb	r0, r4, r0
    9a34:	e1500005 	cmp	r0, r5
    9a38:	3afffffb 	bcc	9a2c <delay_us+0x10>
    9a3c:	e8bd8038 	pop	{r3, r4, r5, pc}

00009a40 <delay_ms>:
    9a40:	e92d4008 	push	{r3, lr}
    9a44:	e3a03ffa 	mov	r3, #1000	; 0x3e8
    9a48:	e0000093 	mul	r0, r3, r0
    9a4c:	ebfffff2 	bl	9a1c <delay_us>
    9a50:	e8bd8008 	pop	{r3, pc}

00009a54 <delay_sec>:
    9a54:	e92d4008 	push	{r3, lr}
    9a58:	e3a03ffa 	mov	r3, #1000	; 0x3e8
    9a5c:	e0000093 	mul	r0, r3, r0
    9a60:	ebfffff6 	bl	9a40 <delay_ms>
    9a64:	e8bd8008 	pop	{r3, pc}

00009a68 <dev_barrier>:
    9a68:	ea000002 	b	9a78 <dsb>

00009a6c <dmb>:
    9a6c:	e3a00000 	mov	r0, #0
    9a70:	ee070fba 	mcr	15, 0, r0, cr7, cr10, {5}
    9a74:	e12fff1e 	bx	lr

00009a78 <dsb>:
    9a78:	ee070f9a 	mcr	15, 0, r0, cr7, cr10, {4}
    9a7c:	e12fff1e 	bx	lr

00009a80 <put32>:
    9a80:	e5801000 	str	r1, [r0]
    9a84:	e12fff1e 	bx	lr

00009a88 <PUT32>:
    9a88:	e5801000 	str	r1, [r0]
    9a8c:	e12fff1e 	bx	lr

00009a90 <put16>:
    9a90:	e1c010b0 	strh	r1, [r0]
    9a94:	e12fff1e 	bx	lr

00009a98 <PUT16>:
    9a98:	e1c010b0 	strh	r1, [r0]
    9a9c:	e12fff1e 	bx	lr

00009aa0 <put8>:
    9aa0:	e5c01000 	strb	r1, [r0]
    9aa4:	e12fff1e 	bx	lr

00009aa8 <PUT8>:
    9aa8:	e5c01000 	strb	r1, [r0]
    9aac:	e12fff1e 	bx	lr

00009ab0 <get32>:
    9ab0:	e5900000 	ldr	r0, [r0]
    9ab4:	e12fff1e 	bx	lr

00009ab8 <GET32>:
    9ab8:	e5900000 	ldr	r0, [r0]
    9abc:	e12fff1e 	bx	lr

00009ac0 <GETPC>:
    9ac0:	e1a0000e 	mov	r0, lr
    9ac4:	e12fff1e 	bx	lr

00009ac8 <dummy>:
    9ac8:	e12fff1e 	bx	lr

00009acc <or_in32>:
    9acc:	e92d4070 	push	{r4, r5, r6, lr}
    9ad0:	e1a04000 	mov	r4, r0
    9ad4:	e1a05001 	mov	r5, r1
    9ad8:	ebfffff4 	bl	9ab0 <get32>
    9adc:	e1801005 	orr	r1, r0, r5
    9ae0:	e1a00004 	mov	r0, r4
    9ae4:	ebffffe5 	bl	9a80 <put32>
    9ae8:	e8bd8070 	pop	{r4, r5, r6, pc}

00009aec <uart_init>:
    9aec:	e92d4010 	push	{r4, lr}
    9af0:	e3a01002 	mov	r1, #2
    9af4:	e3a0000e 	mov	r0, #14
    9af8:	eb000051 	bl	9c44 <gpio_set_function>
    9afc:	e3a01002 	mov	r1, #2
    9b00:	e3a0000f 	mov	r0, #15
    9b04:	eb00004e 	bl	9c44 <gpio_set_function>
    9b08:	ebffffd6 	bl	9a68 <dev_barrier>
    9b0c:	e3a01001 	mov	r1, #1
    9b10:	e59f0064 	ldr	r0, [pc, #100]	; 9b7c <uart_init+0x90>
    9b14:	ebffffec 	bl	9acc <or_in32>
    9b18:	ebffffd2 	bl	9a68 <dev_barrier>
    9b1c:	e59f405c 	ldr	r4, [pc, #92]	; 9b80 <uart_init+0x94>
    9b20:	e3a01000 	mov	r1, #0
    9b24:	e1a00004 	mov	r0, r4
    9b28:	ebffffd4 	bl	9a80 <put32>
    9b2c:	e3a01000 	mov	r1, #0
    9b30:	e59f004c 	ldr	r0, [pc, #76]	; 9b84 <uart_init+0x98>
    9b34:	ebffffd1 	bl	9a80 <put32>
    9b38:	e3a01003 	mov	r1, #3
    9b3c:	e59f0044 	ldr	r0, [pc, #68]	; 9b88 <uart_init+0x9c>
    9b40:	ebffffce 	bl	9a80 <put32>
    9b44:	e3a01000 	mov	r1, #0
    9b48:	e59f003c 	ldr	r0, [pc, #60]	; 9b8c <uart_init+0xa0>
    9b4c:	ebffffcb 	bl	9a80 <put32>
    9b50:	e3a010c7 	mov	r1, #199	; 0xc7
    9b54:	e59f0034 	ldr	r0, [pc, #52]	; 9b90 <uart_init+0xa4>
    9b58:	ebffffc8 	bl	9a80 <put32>
    9b5c:	e59f1030 	ldr	r1, [pc, #48]	; 9b94 <uart_init+0xa8>
    9b60:	e59f0030 	ldr	r0, [pc, #48]	; 9b98 <uart_init+0xac>
    9b64:	ebffffc5 	bl	9a80 <put32>
    9b68:	e3a01003 	mov	r1, #3
    9b6c:	e1a00004 	mov	r0, r4
    9b70:	ebffffc2 	bl	9a80 <put32>
    9b74:	ebffffbb 	bl	9a68 <dev_barrier>
    9b78:	e8bd8010 	pop	{r4, pc}
    9b7c:	20215004 	eorcs	r5, r1, r4
    9b80:	20215060 	eorcs	r5, r1, r0, rrx
    9b84:	20215044 	eorcs	r5, r1, r4, asr #32
    9b88:	2021504c 	eorcs	r5, r1, ip, asr #32
    9b8c:	20215050 	eorcs	r5, r1, r0, asr r0
    9b90:	20215048 	eorcs	r5, r1, r8, asr #32
    9b94:	0000010e 	andeq	r0, r0, lr, lsl #2
    9b98:	20215068 	eorcs	r5, r1, r8, rrx

00009b9c <uart_can_getc>:
    9b9c:	e92d4010 	push	{r4, lr}
    9ba0:	e59f0008 	ldr	r0, [pc, #8]	; 9bb0 <uart_can_getc+0x14>
    9ba4:	ebffffc1 	bl	9ab0 <get32>
    9ba8:	e2000001 	and	r0, r0, #1
    9bac:	e8bd8010 	pop	{r4, pc}
    9bb0:	20215064 	eorcs	r5, r1, r4, rrx

00009bb4 <uart_can_putc>:
    9bb4:	e92d4010 	push	{r4, lr}
    9bb8:	e59f0010 	ldr	r0, [pc, #16]	; 9bd0 <uart_can_putc+0x1c>
    9bbc:	ebffffbb 	bl	9ab0 <get32>
    9bc0:	e3100002 	tst	r0, #2
    9bc4:	13a00001 	movne	r0, #1
    9bc8:	03a00000 	moveq	r0, #0
    9bcc:	e8bd8010 	pop	{r4, pc}
    9bd0:	20215064 	eorcs	r5, r1, r4, rrx

00009bd4 <uart_getc>:
    9bd4:	e92d4010 	push	{r4, lr}
    9bd8:	ebffffa2 	bl	9a68 <dev_barrier>
    9bdc:	ebffffee 	bl	9b9c <uart_can_getc>
    9be0:	e3500000 	cmp	r0, #0
    9be4:	0afffffc 	beq	9bdc <uart_getc+0x8>
    9be8:	e59f0010 	ldr	r0, [pc, #16]	; 9c00 <uart_getc+0x2c>
    9bec:	ebffffaf 	bl	9ab0 <get32>
    9bf0:	e6ef4070 	uxtb	r4, r0
    9bf4:	ebffff9b 	bl	9a68 <dev_barrier>
    9bf8:	e1a00004 	mov	r0, r4
    9bfc:	e8bd8010 	pop	{r4, pc}
    9c00:	20215040 	eorcs	r5, r1, r0, asr #32

00009c04 <uart_putc>:
    9c04:	e92d4010 	push	{r4, lr}
    9c08:	e1a04000 	mov	r4, r0
    9c0c:	ebffff95 	bl	9a68 <dev_barrier>
    9c10:	ebffffe7 	bl	9bb4 <uart_can_putc>
    9c14:	e3500000 	cmp	r0, #0
    9c18:	0afffffc 	beq	9c10 <uart_putc+0xc>
    9c1c:	e6ef1074 	uxtb	r1, r4
    9c20:	e59f0008 	ldr	r0, [pc, #8]	; 9c30 <uart_putc+0x2c>
    9c24:	ebffff95 	bl	9a80 <put32>
    9c28:	ebffff8e 	bl	9a68 <dev_barrier>
    9c2c:	e8bd8010 	pop	{r4, pc}
    9c30:	20215040 	eorcs	r5, r1, r0, asr #32

00009c34 <uart_has_data>:
    9c34:	e92d4010 	push	{r4, lr}
    9c38:	ebffff8a 	bl	9a68 <dev_barrier>
    9c3c:	ebffffd6 	bl	9b9c <uart_can_getc>
    9c40:	e8bd8010 	pop	{r4, pc}

00009c44 <gpio_set_function>:
    9c44:	e350001f 	cmp	r0, #31
    9c48:	812fff1e 	bxhi	lr
    9c4c:	e3d13007 	bics	r3, r1, #7
    9c50:	112fff1e 	bxne	lr
    9c54:	e92d4070 	push	{r4, r5, r6, lr}
    9c58:	e1a05001 	mov	r5, r1
    9c5c:	e59f3044 	ldr	r3, [pc, #68]	; 9ca8 <gpio_set_function+0x64>
    9c60:	e0832093 	umull	r2, r3, r3, r0
    9c64:	e1a031a3 	lsr	r3, r3, #3
    9c68:	e1a06003 	mov	r6, r3
    9c6c:	e0833103 	add	r3, r3, r3, lsl #2
    9c70:	e1a02083 	lsl	r2, r3, #1
    9c74:	e0403002 	sub	r3, r0, r2
    9c78:	e0834083 	add	r4, r3, r3, lsl #1
    9c7c:	e2866302 	add	r6, r6, #134217728	; 0x8000000
    9c80:	e2866702 	add	r6, r6, #524288	; 0x80000
    9c84:	e1a06106 	lsl	r6, r6, #2
    9c88:	e1a00006 	mov	r0, r6
    9c8c:	ebffff89 	bl	9ab8 <GET32>
    9c90:	e3a01007 	mov	r1, #7
    9c94:	e1c01411 	bic	r1, r0, r1, lsl r4
    9c98:	e1811415 	orr	r1, r1, r5, lsl r4
    9c9c:	e1a00006 	mov	r0, r6
    9ca0:	ebffff78 	bl	9a88 <PUT32>
    9ca4:	e8bd8070 	pop	{r4, r5, r6, pc}
    9ca8:	cccccccd 	stclgt	12, cr12, [ip], {205}	; 0xcd

00009cac <gpio_set_output>:
    9cac:	e92d4010 	push	{r4, lr}
    9cb0:	e3a01001 	mov	r1, #1
    9cb4:	ebffffe2 	bl	9c44 <gpio_set_function>
    9cb8:	e8bd8010 	pop	{r4, pc}

00009cbc <gpio_set_on>:
    9cbc:	e350001f 	cmp	r0, #31
    9cc0:	812fff1e 	bxhi	lr
    9cc4:	e92d4010 	push	{r4, lr}
    9cc8:	e3a01001 	mov	r1, #1
    9ccc:	e1a01011 	lsl	r1, r1, r0
    9cd0:	e59f0004 	ldr	r0, [pc, #4]	; 9cdc <gpio_set_on+0x20>
    9cd4:	ebffff6b 	bl	9a88 <PUT32>
    9cd8:	e8bd8010 	pop	{r4, pc}
    9cdc:	2020001c 	eorcs	r0, r0, ip, lsl r0

00009ce0 <gpio_set_off>:
    9ce0:	e350001f 	cmp	r0, #31
    9ce4:	812fff1e 	bxhi	lr
    9ce8:	e92d4010 	push	{r4, lr}
    9cec:	e3a01001 	mov	r1, #1
    9cf0:	e1a01011 	lsl	r1, r1, r0
    9cf4:	e59f0004 	ldr	r0, [pc, #4]	; 9d00 <gpio_set_off+0x20>
    9cf8:	ebffff62 	bl	9a88 <PUT32>
    9cfc:	e8bd8010 	pop	{r4, pc}
    9d00:	20200028 	eorcs	r0, r0, r8, lsr #32

00009d04 <gpio_set_input>:
    9d04:	e92d4010 	push	{r4, lr}
    9d08:	e3a01000 	mov	r1, #0
    9d0c:	ebffffcc 	bl	9c44 <gpio_set_function>
    9d10:	e8bd8010 	pop	{r4, pc}

00009d14 <gpio_write>:
    9d14:	e92d4010 	push	{r4, lr}
    9d18:	e3510000 	cmp	r1, #0
    9d1c:	1a000001 	bne	9d28 <gpio_write+0x14>
    9d20:	ebffffee 	bl	9ce0 <gpio_set_off>
    9d24:	e8bd8010 	pop	{r4, pc}
    9d28:	ebffffe3 	bl	9cbc <gpio_set_on>
    9d2c:	e8bd8010 	pop	{r4, pc}

00009d30 <gpio_read>:
    9d30:	e350001f 	cmp	r0, #31
    9d34:	8a000007 	bhi	9d58 <gpio_read+0x28>
    9d38:	e92d4010 	push	{r4, lr}
    9d3c:	e200401f 	and	r4, r0, #31
    9d40:	e59f3018 	ldr	r3, [pc, #24]	; 9d60 <gpio_read+0x30>
    9d44:	e08302a0 	add	r0, r3, r0, lsr #5
    9d48:	ebffff5a 	bl	9ab8 <GET32>
    9d4c:	e1a00430 	lsr	r0, r0, r4
    9d50:	e2000001 	and	r0, r0, #1
    9d54:	e8bd8010 	pop	{r4, pc}
    9d58:	e3e00000 	mvn	r0, #0
    9d5c:	e12fff1e 	bx	lr
    9d60:	20200034 	eorcs	r0, r0, r4, lsr r0

00009d64 <__code_end__>:
    9d64:	00000000 	andeq	r0, r0, r0

Disassembly of section .data:

00009d68 <__data_start__>:
    9d68:	000091b0 			; <UNDEFINED> instruction: 0x000091b0

00009d6c <putk>:
    9d6c:	000091ec 	andeq	r9, r0, ip, ror #3

Disassembly of section .rodata:

00009d70 <C.0.4498-0x188>:
    9d70:	494e4150 	stmdbmi	lr, {r4, r6, r8, lr}^
    9d74:	73253a43 	teqvc	r5, #274432	; 0x43000
    9d78:	3a73253a 	bcc	1cd3268 <__bss_end__+0x1cc67e8>
    9d7c:	253a6425 	ldrcs	r6, [sl, #-1061]!	; 0x425
    9d80:	00000a73 	andeq	r0, r0, r3, ror sl
    9d84:	74736574 	ldrbtvc	r6, [r3], #-1396	; 0x574
    9d88:	36312f73 	shsub16cc	r2, r1, r3
    9d8c:	7261702d 	rsbvc	r7, r1, #45	; 0x2d
    9d90:	742d3274 	strtvc	r3, [sp], #-628	; 0x274
    9d94:	35747365 	ldrbcc	r7, [r4, #-869]!	; 0x365
    9d98:	0000632e 	andeq	r6, r0, lr, lsr #6
    9d9c:	65707865 	ldrbvs	r7, [r0, #-2149]!	; 0x865
    9da0:	64657463 	strbtvs	r7, [r5], #-1123	; 0x463
    9da4:	3d20415f 	stfccs	f4, [r0, #-380]!	; 0xfffffe84
    9da8:	0030203d 	eorseq	r2, r0, sp, lsr r0
    9dac:	6573552f 	ldrbvs	r5, [r3, #-1327]!	; 0x52f
    9db0:	622f7372 	eorvs	r7, pc, #-939524095	; 0xc8000001
    9db4:	6e616972 	mcrvs	9, 3, r6, cr1, cr2, {3}
    9db8:	2f6e756a 	svccs	0x006e756a
    9dbc:	6b736544 	blvs	1ce32d4 <__bss_end__+0x1cd6854>
    9dc0:	2f706f74 	svccs	0x00706f74
    9dc4:	6f686373 	svcvs	0x00686373
    9dc8:	532f6c6f 	teqpl	pc, #28416	; 0x6f00
    9dcc:	6e697270 	mcrvs	2, 3, r7, cr9, cr0, {3}
    9dd0:	32393167 	eorscc	r3, r9, #-1073741799	; 0xc0000019
    9dd4:	53432f30 	movtpl	r2, #16176	; 0x3f30
    9dd8:	4c303432 	cfldrsmi	mvf3, [r0], #-200	; 0xffffff38
    9ddc:	73632f58 	cmnvc	r3, #88, 30	; 0x160
    9de0:	6c303432 	cfldrsvs	mvf3, [r0], #-200	; 0xffffff38
    9de4:	30322d78 	eorscc	r2, r2, r8, ror sp
    9de8:	2f727073 	svccs	0x00727073
    9dec:	7062696c 	rsbvc	r6, r2, ip, ror #18
    9df0:	696c2f69 	stmdbvs	ip!, {r0, r3, r5, r6, r8, r9, sl, fp, sp}^
    9df4:	632f6362 	teqvs	pc, #-2013265919	; 0x88000001
    9df8:	75637269 	strbvc	r7, [r3, #-617]!	; 0x269
    9dfc:	2e72616c 	rpwcssz	f6, f2, #4.0
    9e00:	00000068 	andeq	r0, r0, r8, rrx
    9e04:	655f7163 	ldrbvs	r7, [pc, #-355]	; 9ca9 <gpio_set_function+0x65>
    9e08:	7974706d 	ldmdbvc	r4!, {r0, r2, r3, r5, r6, ip, sp, lr}^
    9e0c:	00296328 	eoreq	r6, r9, r8, lsr #6
    9e10:	5f716321 	svcpl	0x00716321
    9e14:	6c6c7566 	cfstr64vs	mvdx7, [ip], #-408	; 0xfffffe68
    9e18:	00296328 	eoreq	r6, r9, r8, lsr #6
    9e1c:	6e5f7163 	rdfvsez	f7, f7, f3
    9e20:	6d656c65 	stclvs	12, cr6, [r5, #-404]!	; 0xfffffe6c
    9e24:	20296328 	eorcs	r6, r9, r8, lsr #6
    9e28:	30203d3d 	eorcc	r3, r0, sp, lsr sp
    9e2c:	00000000 	andeq	r0, r0, r0
    9e30:	705f7163 	subsvc	r7, pc, r3, ror #2
    9e34:	6e5f706f 	cdpvs	0, 5, cr7, cr15, cr15, {3}
    9e38:	6c626e6f 	stclvs	14, cr6, [r2], #-444	; 0xfffffe44
    9e3c:	286b636f 	stmdacs	fp!, {r0, r1, r2, r3, r5, r6, r8, r9, sp, lr}^
    9e40:	65262c63 	strvs	r2, [r6, #-3171]!	; 0xc63
    9e44:	3d3d2029 	ldccc	0, cr2, [sp, #-164]!	; 0xffffff5c
    9e48:	26203020 	strtcs	r3, [r0], -r0, lsr #32
    9e4c:	20652026 	rsbcs	r2, r5, r6, lsr #32
    9e50:	30203d3d 	eorcc	r3, r0, sp, lsr sp
    9e54:	00323178 	eorseq	r3, r2, r8, ror r1
    9e58:	65707865 	ldrbvs	r7, [r0, #-2149]!	; 0x865
    9e5c:	64657463 	strbtvs	r7, [r5], #-1123	; 0x463
    9e60:	3d20415f 	stfccs	f4, [r0, #-380]!	; 0xfffffe84
    9e64:	7865203d 	stmdavc	r5!, {r0, r2, r3, r4, r5, sp}^
    9e68:	74636570 	strbtvc	r6, [r3], #-1392	; 0x570
    9e6c:	425f6465 	subsmi	r6, pc, #1694498816	; 0x65000000
    9e70:	00000000 	andeq	r0, r0, r0
    9e74:	656e2e63 	strbvs	r2, [lr, #-3683]!	; 0xe63
    9e78:	726f7272 	rsbvc	r7, pc, #536870919	; 0x20000007
    9e7c:	00000073 	andeq	r0, r0, r3, ror r0
    9e80:	494e4150 	stmdbmi	lr, {r4, r6, r8, lr}^
    9e84:	73253a43 	teqvc	r5, #274432	; 0x43000
    9e88:	3a73253a 	bcc	1cd3378 <__bss_end__+0x1cc68f8>
    9e8c:	633a6425 	teqvs	sl, #620756992	; 0x25000000
    9e90:	6b636568 	blvs	18e3438 <__bss_end__+0x18d69b8>
    9e94:	6f687320 	svcvs	0x00687320
    9e98:	20646c75 	rsbcs	r6, r4, r5, ror ip
    9e9c:	20746f6e 	rsbscs	r6, r4, lr, ror #30
    9ea0:	65766168 	ldrbvs	r6, [r6, #-360]!	; 0x168
    9ea4:	69616620 	stmdbvs	r1!, {r5, r9, sl, sp, lr}^
    9ea8:	2c64656c 	cfstr64cs	mvdx6, [r4], #-432	; 0xfffffe50
    9eac:	69727420 	ldmdbvs	r2!, {r5, sl, ip, sp, lr}^
    9eb0:	3d736c61 	ldclcc	12, cr6, [r3, #-388]!	; 0xfffffe7c
    9eb4:	202c6425 	eorcs	r6, ip, r5, lsr #8
    9eb8:	6f727265 	svcvs	0x00727265
    9ebc:	253d7372 	ldrcs	r7, [sp, #-882]!	; 0x372
    9ec0:	0a212164 	beq	852458 <__bss_end__+0x8459d8>
    9ec4:	0000000a 	andeq	r0, r0, sl
    9ec8:	6e2e6321 	cdpvs	3, 2, cr6, cr14, cr1, {1}
    9ecc:	6f727265 	svcvs	0x00727265
    9ed0:	00007372 	andeq	r7, r0, r2, ror r3
    9ed4:	43435553 	movtmi	r5, #13651	; 0x3553
    9ed8:	3a535345 	bcc	14debf4 <__bss_end__+0x14d2174>
    9edc:	00000000 	andeq	r0, r0, r0
    9ee0:	6b726f77 	blvs	1ca5cc4 <__bss_end__+0x1c99244>
    9ee4:	20216465 	eorcs	r6, r1, r5, ror #8
    9ee8:	72746e20 	rsbsvc	r6, r4, #32, 28	; 0x200
    9eec:	736c6169 	cmnvc	ip, #1073741850	; 0x4000001a
    9ef0:	0a64253d 	beq	19133ec <__bss_end__+0x190696c>
    9ef4:	00000000 	andeq	r0, r0, r0

00009ef8 <C.0.4498>:
    9ef8:	00000000 	andeq	r0, r0, r0
    9efc:	00008020 	andeq	r8, r0, r0, lsr #32
    9f00:	00008088 	andeq	r8, r0, r8, lsl #1
    9f04:	0000814c 	andeq	r8, r0, ip, asr #2
    9f08:	00008358 	andeq	r8, r0, r8, asr r3
	...

00009f30 <__FUNCTION__.4494>:
    9f30:	63726963 	cmnvs	r2, #1622016	; 0x18c000
    9f34:	68635f71 	stmdavs	r3!, {r0, r4, r5, r6, r8, r9, sl, fp, ip, lr}^
    9f38:	006b6365 	rsbeq	r6, fp, r5, ror #6

00009f3c <__FUNCTION__.4475>:
    9f3c:	695f7163 	ldmdbvs	pc, {r0, r1, r5, r6, r8, ip, sp, lr}^	; <UNPREDICTABLE>
    9f40:	0074696e 	rsbseq	r6, r4, lr, ror #18

00009f44 <__FUNCTION__.4487>:
    9f44:	63726963 	cmnvs	r2, #1622016	; 0x18c000
    9f48:	00425f71 	subeq	r5, r2, r1, ror pc

00009f4c <__FUNCTION__.4504>:
    9f4c:	6d746f6e 	ldclvs	15, cr6, [r4, #-440]!	; 0xfffffe48
    9f50:	006e6961 	rsbeq	r6, lr, r1, ror #18
    9f54:	34317063 	ldrtcc	r7, [r1], #-99	; 0x63
    9f58:	6265642d 	rsbvs	r6, r5, #754974720	; 0x2d000000
    9f5c:	632e6775 	teqvs	lr, #30670848	; 0x1d40000
    9f60:	00000000 	andeq	r0, r0, r0
    9f64:	30726377 	rsbscc	r6, r2, r7, ror r3
    9f68:	6765725f 			; <UNDEFINED> instruction: 0x6765725f
    9f6c:	203d3d20 	eorscs	r3, sp, r0, lsr #26
    9f70:	30726377 	rsbscc	r6, r2, r7, ror r3
    9f74:	7465675f 	strbtvc	r6, [r5], #-1887	; 0x75f
    9f78:	00002928 	andeq	r2, r0, r8, lsr #18
    9f7c:	494e4150 	stmdbmi	lr, {r4, r6, r8, lr}^
    9f80:	73253a43 	teqvc	r5, #274432	; 0x43000
    9f84:	3a73253a 	bcc	1cd3474 <__bss_end__+0x1cc69f4>
    9f88:	693a6425 	ldmdbvs	sl!, {r0, r2, r5, sl, sp, lr}
    9f8c:	736f706d 	cmnvc	pc, #109	; 0x6d
    9f90:	6c626973 	stclvs	9, cr6, [r2], #-460	; 0xfffffe34
    9f94:	73203a65 	teqvc	r0, #413696	; 0x65000
    9f98:	6c756f68 	ldclvs	15, cr6, [r5], #-416	; 0xfffffe60
    9f9c:	6e6f2064 	cdpvs	0, 6, cr2, cr15, cr4, {3}
    9fa0:	6720796c 	strvs	r7, [r0, -ip, ror #18]!
    9fa4:	64207465 	strtvs	r7, [r0], #-1125	; 0x465
    9fa8:	66617461 	strbtvs	r7, [r1], -r1, ror #8
    9fac:	746c7561 	strbtvc	r7, [ip], #-1377	; 0x561
    9fb0:	000a0a73 	andeq	r0, sl, r3, ror sl
    9fb4:	34317063 	ldrtcc	r7, [r1], #-99	; 0x63
    9fb8:	6265642d 	rsbvs	r6, r5, #754974720	; 0x2d000000
    9fbc:	682e6775 	stmdavs	lr!, {r0, r2, r4, r5, r6, r8, r9, sl, sp, lr}
    9fc0:	00000000 	andeq	r0, r0, r0
    9fc4:	72616677 	rsbvc	r6, r1, #124780544	; 0x7700000
    9fc8:	7465675f 	strbtvc	r6, [r5], #-1887	; 0x75f
    9fcc:	342d2928 	strtcc	r2, [sp], #-2344	; 0x928
    9fd0:	203d3d20 	eorscs	r3, sp, r0, lsr #26
    9fd4:	00006370 	andeq	r6, r0, r0, ror r3
    9fd8:	63746177 	cmnvs	r4, #-1073741795	; 0xc000001d
    9fdc:	5f747068 	svcpl	0x00747068
    9fe0:	646e6168 	strbtvs	r6, [lr], #-360	; 0x168
    9fe4:	3072656c 	rsbscc	r6, r2, ip, ror #10
    9fe8:	00000000 	andeq	r0, r0, r0
    9fec:	494e4150 	stmdbmi	lr, {r4, r6, r8, lr}^
    9ff0:	73253a43 	teqvc	r5, #274432	; 0x43000
    9ff4:	3a73253a 	bcc	1cd34e4 <__bss_end__+0x1cc6a64>
    9ff8:	693a6425 	ldmdbvs	sl!, {r0, r2, r5, sl, sp, lr}
    9ffc:	736f706d 	cmnvc	pc, #109	; 0x6d
    a000:	6c626973 	stclvs	9, cr6, [r2], #-460	; 0xfffffe34
    a004:	73203a65 	teqvc	r0, #413696	; 0x65000
    a008:	6c756f68 	ldclvs	15, cr6, [r5], #-416	; 0xfffffe60
    a00c:	65672064 	strbvs	r2, [r7, #-100]!	; 0x64
    a010:	6f6e2074 	svcvs	0x006e2074
    a014:	68746f20 	ldmdavs	r4!, {r5, r8, r9, sl, fp, sp, lr}^
    a018:	66207265 	strtvs	r7, [r0], -r5, ror #4
    a01c:	746c7561 	strbtvc	r7, [ip], #-1377	; 0x561
    a020:	000a0a73 	andeq	r0, sl, r3, ror sl
    a024:	706b7262 	rsbvc	r7, fp, r2, ror #4
    a028:	61685f74 	smcvs	34292	; 0x85f4
    a02c:	656c646e 	strbvs	r6, [ip, #-1134]!	; 0x46e
    a030:	00003072 	andeq	r3, r0, r2, ror r0
    a034:	494e4150 	stmdbmi	lr, {r4, r6, r8, lr}^
    a038:	73253a43 	teqvc	r5, #274432	; 0x43000
    a03c:	3a73253a 	bcc	1cd352c <__bss_end__+0x1cc6aac>
    a040:	723a6425 	eorsvc	r6, sl, #620756992	; 0x25000000
    a044:	72757465 	rsbsvc	r7, r5, #1694498816	; 0x65000000
    a048:	2064656e 	rsbcs	r6, r4, lr, ror #10
    a04c:	20646e61 	rsbcs	r6, r4, r1, ror #28
    a050:	756f6873 	strbvc	r6, [pc, #-2163]!	; 97e5 <_cstart+0x1>
    a054:	6e20646c 	cdpvs	4, 2, cr6, cr0, cr12, {3}
    a058:	6820746f 	stmdavs	r0!, {r0, r1, r2, r3, r5, r6, sl, ip, sp, lr}
    a05c:	21657661 	cmncs	r5, r1, ror #12
    a060:	00000a0a 	andeq	r0, r0, sl, lsl #20
    a064:	656c6c69 	strbvs	r6, [ip, #-3177]!	; 0xc69
    a068:	206c6167 	rsbcs	r6, ip, r7, ror #2
    a06c:	74737973 	ldrbtvc	r7, [r3], #-2419	; 0x973
    a070:	63206d65 	teqvs	r0, #6464	; 0x1940
    a074:	206c6c61 	rsbcs	r6, ip, r1, ror #24
    a078:	000a6425 	andeq	r6, sl, r5, lsr #8

0000a07c <__FUNCTION__.4393>:
    a07c:	63746177 	cmnvs	r4, #-1073741795	; 0xc000001d
    a080:	5f747068 	svcpl	0x00747068
    a084:	30746573 	rsbscc	r6, r4, r3, ror r5
    a088:	00000000 	andeq	r0, r0, r0

0000a08c <__FUNCTION__.4399>:
    a08c:	61746164 	cmnvs	r4, r4, ror #2
    a090:	6f62615f 	svcvs	0x0062615f
    a094:	765f7472 			; <UNDEFINED> instruction: 0x765f7472
    a098:	6f746365 	svcvs	0x00746365
    a09c:	00000072 	andeq	r0, r0, r2, ror r0

0000a0a0 <__FUNCTION__.4306>:
    a0a0:	5f736177 	svcpl	0x00736177
    a0a4:	75626564 	strbvc	r6, [r2, #-1380]!	; 0x564
    a0a8:	61645f67 	cmnvs	r4, r7, ror #30
    a0ac:	61666174 	smcvs	26132	; 0x6614
    a0b0:	00746c75 	rsbseq	r6, r4, r5, ror ip

0000a0b4 <__FUNCTION__.4443>:
    a0b4:	66657270 			; <UNDEFINED> instruction: 0x66657270
    a0b8:	68637465 	stmdavs	r3!, {r0, r2, r5, r6, sl, ip, sp, lr}^
    a0bc:	6f62615f 	svcvs	0x0062615f
    a0c0:	765f7472 			; <UNDEFINED> instruction: 0x765f7472
    a0c4:	6f746365 	svcvs	0x00746365
    a0c8:	00000072 	andeq	r0, r0, r2, ror r0

0000a0cc <__FUNCTION__.4451>:
    a0cc:	5f6b7262 	svcpl	0x006b7262
    a0d0:	725f6f6e 	subsvc	r6, pc, #440	; 0x1b8
    a0d4:	655f7465 	ldrbvs	r7, [pc, #-1125]	; 9c77 <gpio_set_function+0x33>
    a0d8:	726f7272 	rsbvc	r7, pc, #536870919	; 0x20000007
    a0dc:	00000000 	andeq	r0, r0, r0
    a0e0:	253a7325 	ldrcs	r7, [sl, #-805]!	; 0x325
    a0e4:	64253a73 	strtvs	r3, [r5], #-2675	; 0xa73
    a0e8:	6572703a 	ldrbvs	r7, [r2, #-58]!	; 0x3a
    a0ec:	63746566 	cmnvs	r4, #427819008	; 0x19800000
    a0f0:	62612068 	rsbvs	r2, r1, #104	; 0x68
    a0f4:	2074726f 	rsbscs	r7, r4, pc, ror #4
    a0f8:	25207461 	strcs	r7, [r0, #-1121]!	; 0x461
    a0fc:	00000a70 	andeq	r0, r0, r0, ror sl
    a100:	63656863 	cmnvs	r5, #6488064	; 0x630000
    a104:	6e692d6b 	cdpvs	13, 6, cr2, cr9, cr11, {3}
    a108:	6c726574 	cfldr64vs	mvdx6, [r2], #-464	; 0xfffffe30
    a10c:	65766165 	ldrbvs	r6, [r6, #-357]!	; 0x165
    a110:	0000632e 	andeq	r6, r0, lr, lsr #6
    a114:	756f6261 	strbvc	r6, [pc, #-609]!	; 9ebb <__data_end__+0x14b>
    a118:	6f742074 	svcvs	0x00742074
    a11c:	69777320 	ldmdbvs	r7!, {r5, r8, r9, ip, sp, lr}^
    a120:	20686374 	rsbcs	r6, r8, r4, ror r3
    a124:	6d6f7266 	sfmvs	f7, 2, [pc, #-408]!	; 9f94 <__FUNCTION__.4504+0x48>
    a128:	20702520 	rsbscs	r2, r0, r0, lsr #10
    a12c:	25206f74 	strcs	r6, [r0, #-3956]!	; 0xf74
    a130:	00000a70 	andeq	r0, r0, r0, ror sl
    a134:	656e6f64 	strbvs	r6, [lr, #-3940]!	; 0xf64
    a138:	6e757220 	cdpvs	2, 7, cr7, cr5, cr0, {1}
    a13c:	676e696e 	strbvs	r6, [lr, -lr, ror #18]!
    a140:	202c4220 	eorcs	r4, ip, r0, lsr #4
    a144:	6e696f67 	cdpvs	15, 6, cr6, cr9, cr7, {3}
    a148:	6f742067 	svcvs	0x00742067
    a14c:	74657220 	strbtvc	r7, [r5], #-544	; 0x220
    a150:	206e7275 	rsbcs	r7, lr, r5, ror r2
    a154:	41206f74 	teqmi	r0, r4, ror pc
    a158:	0000000a 	andeq	r0, r0, sl
    a15c:	693e2d63 	ldmdbvs	lr!, {r0, r1, r5, r6, r8, sl, fp, sp}
    a160:	5f74736e 	svcpl	0x0074736e
    a164:	6e756f63 	cdpvs	15, 7, cr6, cr5, cr3, {3}
    a168:	203c2074 	eorscs	r2, ip, r4, ror r0
    a16c:	733e2d63 	teqvc	lr, #6336	; 0x18c0
    a170:	63746977 	cmnvs	r4, #1949696	; 0x1dc000
    a174:	6e6f5f68 	cdpvs	15, 6, cr5, cr15, cr8, {3}
    a178:	736e695f 	cmnvc	lr, #1556480	; 0x17c000
    a17c:	006e5f74 	rsbeq	r5, lr, r4, ror pc
    a180:	253a7325 	ldrcs	r7, [sl, #-805]!	; 0x325
    a184:	64253a73 	strtvs	r3, [r5], #-2675	; 0xa73
    a188:	7465733a 	strbtvc	r7, [r5], #-826	; 0x33a
    a18c:	676e6974 			; <UNDEFINED> instruction: 0x676e6974
    a190:	20707520 	rsbscs	r7, r0, r0, lsr #10
    a194:	696d2061 	stmdbvs	sp!, {r0, r5, r6, sp}^
    a198:	74616d73 	strbtvc	r6, [r1], #-3443	; 0xd73
    a19c:	6f206863 	svcvs	0x00206863
    a1a0:	7025206e 	eorvc	r2, r5, lr, rrx
    a1a4:	0000000a 	andeq	r0, r0, sl
    a1a8:	253a7325 	ldrcs	r7, [sl, #-805]!	; 0x325
    a1ac:	64253a73 	strtvs	r3, [r5], #-2675	; 0xa73
    a1b0:	6e6f643a 	mcrvs	4, 3, r6, cr15, cr10, {1}
    a1b4:	65732065 	ldrbvs	r2, [r3, #-101]!	; 0x65
    a1b8:	6e697474 	mcrvs	4, 3, r7, cr9, cr4, {3}
    a1bc:	70752067 	rsbsvc	r2, r5, r7, rrx
    a1c0:	6d206120 	stfvss	f6, [r0, #-128]!	; 0xffffff80
    a1c4:	616d7369 	cmnvs	sp, r9, ror #6
    a1c8:	20686374 	rsbcs	r6, r8, r4, ror r3
    a1cc:	25206e6f 	strcs	r6, [r0, #-3695]!	; 0xe6f
    a1d0:	00000a70 	andeq	r0, r0, r0, ror sl
    a1d4:	52455355 	subpl	r5, r5, #1409286145	; 0x54000001
    a1d8:	444f4d20 	strbmi	r4, [pc], #-3360	; a1e0 <__FUNCTION__.4451+0x114>
    a1dc:	00000045 	andeq	r0, r0, r5, asr #32
    a1e0:	20514946 	subscs	r4, r1, r6, asr #18
    a1e4:	45444f4d 	strbmi	r4, [r4, #-3917]	; 0xf4d
    a1e8:	00000000 	andeq	r0, r0, r0
    a1ec:	20515249 	subscs	r5, r1, r9, asr #4
    a1f0:	45444f4d 	strbmi	r4, [r4, #-3917]	; 0xf4d
    a1f4:	00000000 	andeq	r0, r0, r0
    a1f8:	45505553 	ldrbmi	r5, [r0, #-1363]	; 0x553
    a1fc:	4f4d2052 	svcmi	0x004d2052
    a200:	00004544 	andeq	r4, r0, r4, asr #10
    a204:	524f4241 	subpl	r4, pc, #268435460	; 0x10000004
    a208:	4f4d2054 	svcmi	0x004d2054
    a20c:	00004544 	andeq	r4, r0, r4, asr #10
    a210:	45444e55 	strbmi	r4, [r4, #-3669]	; 0xe55
    a214:	4f4d2046 	svcmi	0x004d2046
    a218:	00004544 	andeq	r4, r0, r4, asr #10
    a21c:	20535953 	subscs	r5, r3, r3, asr r9
    a220:	45444f4d 	strbmi	r4, [r4, #-3917]	; 0xf4d
    a224:	00000000 	andeq	r0, r0, r0
    a228:	253a7325 	ldrcs	r7, [sl, #-805]!	; 0x325
    a22c:	64253a73 	strtvs	r3, [r5], #-2675	; 0xa73
    a230:	6972743a 	ldmdbvs	r2!, {r1, r3, r4, r5, sl, ip, sp, lr}^
    a234:	253d6c61 	ldrcs	r6, [sp, #-3169]!	; 0xc61
    a238:	61203a64 	teqvs	r0, r4, ror #20
    a23c:	74756f62 	ldrbtvc	r6, [r5], #-3938	; 0xf62
    a240:	206f7420 	rsbcs	r7, pc, r0, lsr #8
    a244:	20746573 	rsbscs	r6, r4, r3, ror r5
    a248:	6d73696d 	ldclvs	9, cr6, [r3, #-436]!	; 0xfffffe4c
    a24c:	68637461 	stmdavs	r3!, {r0, r5, r6, sl, ip, sp, lr}^
    a250:	6b726220 	blvs	1ca2ad8 <__bss_end__+0x1c96058>
    a254:	66207470 			; <UNDEFINED> instruction: 0x66207470
    a258:	4120726f 	teqmi	r0, pc, ror #4
    a25c:	0000000a 	andeq	r0, r0, sl
    a260:	4f525245 	svcmi	0x00525245
    a264:	63203a52 	teqvs	r0, #335872	; 0x52000
    a268:	6b636568 	blvs	18e3810 <__bss_end__+0x18d6d90>
    a26c:	69616620 	stmdbvs	r1!, {r5, r9, sl, sp, lr}^
    a270:	2064656c 	rsbcs	r6, r4, ip, ror #10
    a274:	6e656877 	mcrvs	8, 3, r6, cr5, cr7, {3}
    a278:	69777320 	ldmdbvs	r7!, {r5, r8, r9, ip, sp, lr}^
    a27c:	65686374 	strbvs	r6, [r8, #-884]!	; 0x374
    a280:	6e6f2064 	cdpvs	0, 6, cr2, cr15, cr4, {3}
    a284:	64646120 	strbtvs	r6, [r4], #-288	; 0x120
    a288:	73736572 	cmnvc	r3, #478150656	; 0x1c800000
    a28c:	2c702520 	cfldr64cs	mvdx2, [r0], #-128	; 0xffffff80
    a290:	74666120 	strbtvc	r6, [r6], #-288	; 0x120
    a294:	25207265 	strcs	r7, [r0, #-613]!	; 0x265
    a298:	6e692064 	cdpvs	0, 6, cr2, cr9, cr4, {3}
    a29c:	75727473 	ldrbvc	r7, [r2, #-1139]!	; 0x473
    a2a0:	6f697463 	svcvs	0x00697463
    a2a4:	000a736e 	andeq	r7, sl, lr, ror #6
    a2a8:	656e6f64 	strbvs	r6, [lr, #-3940]!	; 0xf64
    a2ac:	64202021 	strtvs	r2, [r0], #-33	; 0x21
    a2b0:	63206469 	teqvs	r0, #1761607680	; 0x69000000
    a2b4:	736e3e2d 	cmnvc	lr, #720	; 0x2d0
    a2b8:	63746977 	cmnvs	r4, #1949696	; 0x1dc000
    a2bc:	3d736568 	cfldr64cc	mvdx6, [r3, #-416]!	; 0xfffffe60
    a2c0:	202c6425 	eorcs	r6, ip, r5, lsr #8
    a2c4:	6972746e 	ldmdbvs	r2!, {r1, r2, r3, r5, r6, sl, ip, sp, lr}^
    a2c8:	3d736c61 	ldclcc	12, cr6, [r3, #-388]!	; 0xfffffe7c
    a2cc:	202c6425 	eorcs	r6, ip, r5, lsr #8
    a2d0:	7272656e 	rsbsvc	r6, r2, #461373440	; 0x1b800000
    a2d4:	3d73726f 	lfmcc	f7, 2, [r3, #-444]!	; 0xfffffe44
    a2d8:	000a6425 	andeq	r6, sl, r5, lsr #8
    a2dc:	72737063 	rsbsvc	r7, r3, #99	; 0x63
    a2e0:	6974752d 	ldmdbvs	r4!, {r0, r2, r3, r5, r8, sl, ip, sp, lr}^
    a2e4:	00682e6c 	rsbeq	r2, r8, ip, ror #28
    a2e8:	65646f6d 	strbvs	r6, [r4, #-3949]!	; 0xf6d
    a2ec:	67656c5f 			; <UNDEFINED> instruction: 0x67656c5f
    a2f0:	6d286c61 	stcvs	12, cr6, [r8, #-388]!	; 0xfffffe7c
    a2f4:	2965646f 	stmdbcs	r5!, {r0, r1, r2, r3, r5, r6, sl, sp, lr}^
    a2f8:	00000000 	andeq	r0, r0, r0
    a2fc:	494e4150 	stmdbmi	lr, {r4, r6, r8, lr}^
    a300:	73253a43 	teqvc	r5, #274432	; 0x43000
    a304:	3a73253a 	bcc	1cd37f4 <__bss_end__+0x1cc6d74>
    a308:	753a6425 	ldrvc	r6, [sl, #-1061]!	; 0x425
    a30c:	6f6e6b6e 	svcvs	0x006e6b6e
    a310:	6d206e77 	stcvs	14, cr6, [r0, #-476]!	; 0xfffffe24
    a314:	3a65646f 	bcc	19634d8 <__bss_end__+0x1956a58>
    a318:	78253c20 	stmdavc	r5!, {r5, sl, fp, ip, sp}
    a31c:	000a0a3e 	andeq	r0, sl, lr, lsr sl
    a320:	65707865 	ldrbvs	r7, [r0, #-2149]!	; 0x865
    a324:	64657463 	strbtvs	r7, [r5], #-1123	; 0x463
    a328:	646f6d20 	strbtvs	r6, [pc], #-3360	; a330 <__FUNCTION__.4451+0x264>
    a32c:	203d2065 	eorscs	r2, sp, r5, rrx
    a330:	28207325 	stmdacs	r0!, {r0, r2, r5, r8, r9, ip, sp, lr}
    a334:	0a297825 	beq	a683d0 <__bss_end__+0xa5b950>
    a338:	00000000 	andeq	r0, r0, r0
    a33c:	72727563 	rsbsvc	r7, r2, #415236096	; 0x18c00000
    a340:	20746e65 	rsbscs	r6, r4, r5, ror #28
    a344:	65646f6d 	strbvs	r6, [r4, #-3949]!	; 0xf6d
    a348:	25203d20 	strcs	r3, [r0, #-3360]!	; 0xd20
    a34c:	25282073 	strcs	r2, [r8, #-115]!	; 0x73
    a350:	000a2978 	andeq	r2, sl, r8, ror r9
    a354:	65646f6d 	strbvs	r6, [r4, #-3949]!	; 0xf6d
    a358:	7465675f 	strbtvc	r6, [r5], #-1887	; 0x75f
    a35c:	73706328 	cmnvc	r0, #40, 6	; 0xa0000000
    a360:	6c6f5f72 	stclvs	15, cr5, [pc], #-456	; a1a0 <__FUNCTION__.4451+0xd4>
    a364:	3d202964 	stccc	9, cr2, [r0, #-400]!	; 0xfffffe70
    a368:	6f6d203d 	svcvs	0x006d203d
    a36c:	675f6564 	ldrbvs	r6, [pc, -r4, ror #10]
    a370:	63287465 	teqvs	r8, #1694498816	; 0x65000000
    a374:	5f727370 	svcpl	0x00727370
    a378:	28746567 	ldmdacs	r4!, {r0, r1, r2, r5, r6, r8, sl, sp, lr}^
    a37c:	00002929 	andeq	r2, r0, r9, lsr #18
    a380:	494e4150 	stmdbmi	lr, {r4, r6, r8, lr}^
    a384:	73253a43 	teqvc	r5, #274432	; 0x43000
    a388:	3a73253a 	bcc	1cd3878 <__bss_end__+0x1cc6df8>
    a38c:	633a6425 	teqvs	sl, #620756992	; 0x25000000
    a390:	6b636568 	blvs	18e3938 <__bss_end__+0x18d6eb8>
    a394:	69616620 	stmdbvs	r1!, {r5, r9, sl, sp, lr}^
    a398:	2064656c 	rsbcs	r6, r4, ip, ror #10
    a39c:	75716573 	ldrbvc	r6, [r1, #-1395]!	; 0x573
    a3a0:	69746e65 	ldmdbvs	r4!, {r0, r2, r5, r6, r9, sl, fp, sp, lr}^
    a3a4:	796c6c61 	stmdbvc	ip!, {r0, r5, r6, sl, fp, sp, lr}^
    a3a8:	6f63203a 	svcvs	0x0063203a
    a3ac:	69206564 	stmdbvs	r0!, {r2, r5, r6, r8, sl, sp, lr}
    a3b0:	72622073 	rsbvc	r2, r2, #115	; 0x73
    a3b4:	6e656b6f 	vnmulvs.f64	d22, d5, d31
    a3b8:	00000a0a 	andeq	r0, r0, sl, lsl #20

0000a3bc <__FUNCTION__.4432>:
    a3bc:	63656863 	cmnvs	r5, #6488064	; 0x630000
    a3c0:	65735f6b 	ldrbvs	r5, [r3, #-3947]!	; 0xf6b
    a3c4:	6e657571 	mcrvs	5, 3, r7, cr5, cr1, {3}
    a3c8:	6c616974 	stclvs	9, cr6, [r1], #-464	; 0xfffffe30
    a3cc:	00000000 	andeq	r0, r0, r0

0000a3d0 <__FUNCTION__.4424>:
    a3d0:	63656863 	cmnvs	r5, #6488064	; 0x630000
    a3d4:	6e6f5f6b 	cdpvs	15, 6, cr5, cr15, cr11, {3}
    a3d8:	73635f65 	cmnvc	r3, #404	; 0x194
    a3dc:	63746977 	cmnvs	r4, #1949696	; 0x1dc000
    a3e0:	00000068 	andeq	r0, r0, r8, rrx

0000a3e4 <__FUNCTION__.4417>:
    a3e4:	676e6973 			; <UNDEFINED> instruction: 0x676e6973
    a3e8:	735f656c 	cmpvc	pc, #108, 10	; 0x1b000000
    a3ec:	5f706574 	svcpl	0x00706574
    a3f0:	646e6168 	strbtvs	r6, [lr], #-360	; 0x168
    a3f4:	0072656c 	rsbseq	r6, r2, ip, ror #10

0000a3f8 <__FUNCTION__.4397>:
    a3f8:	65646f6d 	strbvs	r6, [r4, #-3949]!	; 0xf6d
    a3fc:	7465735f 	strbtvc	r7, [r5], #-863	; 0x35f
    a400:	00000000 	andeq	r0, r0, r0

0000a404 <__FUNCTION__.4258>:
    a404:	73746962 	cmnvc	r4, #1605632	; 0x188000
    a408:	726c635f 	rsbvc	r6, ip, #2080374785	; 0x7c000001
    a40c:	00000000 	andeq	r0, r0, r0

0000a410 <__FUNCTION__.4409>:
    a410:	65646f6d 	strbvs	r6, [r4, #-3949]!	; 0xf6d
    a414:	7274735f 	rsbsvc	r7, r4, #2080374785	; 0x7c000001
    a418:	00000000 	andeq	r0, r0, r0

0000a41c <__FUNCTION__.4392>:
    a41c:	65646f6d 	strbvs	r6, [r4, #-3949]!	; 0xf6d
    a420:	7465675f 	strbtvc	r6, [r5], #-1887	; 0x75f
    a424:	00000000 	andeq	r0, r0, r0

0000a428 <__FUNCTION__.4251>:
    a428:	73746962 	cmnvc	r4, #1605632	; 0x188000
    a42c:	7465675f 	strbtvc	r6, [r5], #-1887	; 0x75f
    a430:	00000000 	andeq	r0, r0, r0

0000a434 <__FUNCTION__.4249>:
    a434:	74696d65 	strbtvc	r6, [r9], #-3429	; 0xd65
    a438:	00000000 	andeq	r0, r0, r0

0000a43c <__FUNCTION__.4197>:
    a43c:	5f697072 	svcpl	0x00697072
    a440:	5f746573 	svcpl	0x00746573
    a444:	7074756f 	rsbsvc	r7, r4, pc, ror #10
    a448:	00007475 	andeq	r7, r0, r5, ror r4

0000a44c <__FUNCTION__.4272>:
    a44c:	705f6176 	subsvc	r6, pc, r6, ror r1	; <UNPREDICTABLE>
    a450:	746e6972 	strbtvc	r6, [lr], #-2418	; 0x972
    a454:	0000006b 	andeq	r0, r0, fp, rrx
    a458:	6362696c 	cmnvs	r2, #108, 18	; 0x1b0000
    a45c:	2d61762f 	stclcs	6, cr7, [r1, #-188]!	; 0xffffff44
    a460:	6e697270 	mcrvs	2, 3, r7, cr9, cr0, {3}
    a464:	632e6b74 	teqvs	lr, #116, 22	; 0x1d000
    a468:	00000000 	andeq	r0, r0, r0
    a46c:	00000030 	andeq	r0, r0, r0, lsr r0
    a470:	33323130 	teqcc	r2, #48, 2
    a474:	37363534 			; <UNDEFINED> instruction: 0x37363534
    a478:	00003938 	andeq	r3, r0, r8, lsr r9
    a47c:	33323130 	teqcc	r2, #48, 2
    a480:	37363534 			; <UNDEFINED> instruction: 0x37363534
    a484:	62613938 	rsbvs	r3, r1, #56, 18	; 0xe0000
    a488:	66656463 	strbtvs	r6, [r5], -r3, ror #8
    a48c:	00000000 	andeq	r0, r0, r0
    a490:	00003130 	andeq	r3, r0, r0, lsr r1
    a494:	63747570 	cmnvs	r4, #112, 10	; 0x1c000000
    a498:	0070665f 	rsbseq	r6, r0, pc, asr r6
    a49c:	74646977 	strbtvc	r6, [r4], #-2423	; 0x977
    a4a0:	203c2068 	eorscs	r2, ip, r8, rrx
    a4a4:	00003233 	andeq	r3, r0, r3, lsr r2
    a4a8:	494e4150 	stmdbmi	lr, {r4, r6, r8, lr}^
    a4ac:	73253a43 	teqvc	r5, #274432	; 0x43000
    a4b0:	3a73253a 	bcc	1cd39a0 <__bss_end__+0x1cc6f20>
    a4b4:	663a6425 	ldrtvs	r6, [sl], -r5, lsr #8
    a4b8:	74616f6c 	strbtvc	r6, [r1], #-3948	; 0xf6c
    a4bc:	746f6e20 	strbtvc	r6, [pc], #-3616	; a4c4 <__FUNCTION__.4272+0x78>
    a4c0:	616e6520 	cmnvs	lr, r0, lsr #10
    a4c4:	64656c62 	strbtvs	r6, [r5], #-3170	; 0xc62
    a4c8:	0a212121 	beq	852954 <__bss_end__+0x845ed4>
    a4cc:	00000000 	andeq	r0, r0, r0
    a4d0:	6e697270 	mcrvs	2, 3, r7, cr9, cr0, {3}
    a4d4:	203a6b74 	eorscs	r6, sl, r4, ror fp
    a4d8:	20746f6e 	rsbscs	r6, r4, lr, ror #30
    a4dc:	646e6168 	strbtvs	r6, [lr], #-360	; 0x168
    a4e0:	676e696c 	strbvs	r6, [lr, -ip, ror #18]!
    a4e4:	65707320 	ldrbvs	r7, [r0, #-800]!	; 0x320
    a4e8:	69666963 	stmdbvs	r6!, {r0, r1, r5, r6, r8, fp, sp, lr}^
    a4ec:	27207265 	strcs	r7, [r0, -r5, ror #4]!
    a4f0:	20276325 	eorcs	r6, r7, r5, lsr #6
    a4f4:	63736128 	cmnvs	r3, #40, 2
    a4f8:	253d6969 	ldrcs	r6, [sp, #-2409]!	; 0x969
    a4fc:	000a2964 	andeq	r2, sl, r4, ror #18
    a500:	494e4150 	stmdbmi	lr, {r4, r6, r8, lr}^
    a504:	73253a43 	teqvc	r5, #274432	; 0x43000
    a508:	3a73253a 	bcc	1cd39f8 <__bss_end__+0x1cc6f78>
    a50c:	703a6425 	eorsvc	r6, sl, r5, lsr #8
    a510:	746e6972 	strbtvc	r6, [lr], #-2418	; 0x972
    a514:	7265206b 	rsbvc	r2, r5, #107	; 0x6b
    a518:	0a726f72 	beq	1ca62e8 <__bss_end__+0x1c99868>
    a51c:	0000000a 	andeq	r0, r0, sl
    a520:	454e4f44 	strbmi	r4, [lr, #-3908]	; 0xf44
    a524:	0a212121 	beq	8529b0 <__bss_end__+0x845f30>
    a528:	00000000 	andeq	r0, r0, r0

0000a52c <__FUNCTION__.4220>:
    a52c:	74736166 	ldrbtvc	r6, [r3], #-358	; 0x166
    a530:	746e695f 	strbtvc	r6, [lr], #-2399	; 0x95f
    a534:	75727265 	ldrbvc	r7, [r2, #-613]!	; 0x265
    a538:	765f7470 			; <UNDEFINED> instruction: 0x765f7470
    a53c:	6f746365 	svcvs	0x00746365
    a540:	00000072 	andeq	r0, r0, r2, ror r0
    a544:	494e4150 	stmdbmi	lr, {r4, r6, r8, lr}^
    a548:	73253a43 	teqvc	r5, #274432	; 0x43000
    a54c:	3a73253a 	bcc	1cd3a3c <__bss_end__+0x1cc6fbc>
    a550:	453a6425 	ldrmi	r6, [sl, #-1061]!	; 0x425
    a554:	524f5252 	subpl	r5, pc, #536870917	; 0x20000005
    a558:	6e75203a 	mrcvs	0, 3, r2, cr5, cr10, {1}
    a55c:	646e6168 	strbtvs	r6, [lr], #-360	; 0x168
    a560:	2064656c 	rsbcs	r6, r4, ip, ror #10
    a564:	65637865 	strbvs	r7, [r3, #-2149]!	; 0x865
    a568:	6f697470 	svcvs	0x00697470
    a56c:	253c206e 	ldrcs	r2, [ip, #-110]!	; 0x6e
    a570:	61203e73 	teqvs	r0, r3, ror lr
    a574:	43502074 	cmpmi	r0, #116	; 0x74
    a578:	0a78253d 	beq	1e13a74 <__bss_end__+0x1e06ff4>
    a57c:	0000000a 	andeq	r0, r0, sl
    a580:	66617473 			; <UNDEFINED> instruction: 0x66617473
    a584:	72732d66 	rsbsvc	r2, r3, #6528	; 0x1980
    a588:	65642f63 	strbvs	r2, [r4, #-3939]!	; 0xf63
    a58c:	6c756166 	ldfvse	f6, [r5], #-408	; 0xfffffe68
    a590:	61682d74 	smcvs	33492	; 0x82d4
    a594:	656c646e 	strbvs	r6, [ip, #-1134]!	; 0x46e
    a598:	61662d72 	smcvs	25298	; 0x62d2
    a59c:	632e7473 	teqvs	lr, #1929379840	; 0x73000000
    a5a0:	00000000 	andeq	r0, r0, r0
    a5a4:	74736166 	ldrbtvc	r6, [r3], #-358	; 0x166
    a5a8:	00000000 	andeq	r0, r0, r0

0000a5ac <__FUNCTION__.4220>:
    a5ac:	65736572 	ldrbvs	r6, [r3, #-1394]!	; 0x572
    a5b0:	65765f74 	ldrbvs	r5, [r6, #-3956]!	; 0xf74
    a5b4:	726f7463 	rsbvc	r7, pc, #1660944384	; 0x63000000
    a5b8:	00000000 	andeq	r0, r0, r0
    a5bc:	66617473 			; <UNDEFINED> instruction: 0x66617473
    a5c0:	72732d66 	rsbsvc	r2, r3, #6528	; 0x1980
    a5c4:	65642f63 	strbvs	r2, [r4, #-3939]!	; 0xf63
    a5c8:	6c756166 	ldfvse	f6, [r5], #-408	; 0xfffffe68
    a5cc:	61682d74 	smcvs	33492	; 0x82d4
    a5d0:	656c646e 	strbvs	r6, [ip, #-1134]!	; 0x46e
    a5d4:	65722d72 	ldrbvs	r2, [r2, #-3442]!	; 0xd72
    a5d8:	2e746573 	mrccs	5, 3, r6, cr4, cr3, {3}
    a5dc:	00000063 	andeq	r0, r0, r3, rrx
    a5e0:	65736572 	ldrbvs	r6, [r3, #-1394]!	; 0x572
    a5e4:	00000074 	andeq	r0, r0, r4, ror r0

0000a5e8 <__FUNCTION__.4220>:
    a5e8:	65646e75 	strbvs	r6, [r4, #-3701]!	; 0xe75
    a5ec:	656e6966 	strbvs	r6, [lr, #-2406]!	; 0x966
    a5f0:	6e695f64 	cdpvs	15, 6, cr5, cr9, cr4, {3}
    a5f4:	75727473 	ldrbvc	r7, [r2, #-1139]!	; 0x473
    a5f8:	6f697463 	svcvs	0x00697463
    a5fc:	65765f6e 	ldrbvs	r5, [r6, #-3950]!	; 0xf6e
    a600:	726f7463 	rsbvc	r7, pc, #1660944384	; 0x63000000
    a604:	00000000 	andeq	r0, r0, r0
    a608:	66617473 			; <UNDEFINED> instruction: 0x66617473
    a60c:	72732d66 	rsbsvc	r2, r3, #6528	; 0x1980
    a610:	65642f63 	strbvs	r2, [r4, #-3939]!	; 0xf63
    a614:	6c756166 	ldfvse	f6, [r5], #-408	; 0xfffffe68
    a618:	61682d74 	smcvs	33492	; 0x82d4
    a61c:	656c646e 	strbvs	r6, [ip, #-1134]!	; 0x46e
    a620:	6e752d72 	mrcvs	13, 3, r2, cr5, cr2, {3}
    a624:	69666564 	stmdbvs	r6!, {r2, r5, r6, r8, sl, sp, lr}^
    a628:	2d64656e 	cfstr64cs	mvdx6, [r4, #-440]!	; 0xfffffe48
    a62c:	74736e69 	ldrbtvc	r6, [r3], #-3689	; 0xe69
    a630:	0000632e 	andeq	r6, r0, lr, lsr #6
    a634:	65646e75 	strbvs	r6, [r4, #-3701]!	; 0xe75
    a638:	656e6966 	strbvs	r6, [lr, #-2406]!	; 0x966
    a63c:	6e692064 	cdpvs	0, 6, cr2, cr9, cr4, {3}
    a640:	00007473 	andeq	r7, r0, r3, ror r4

Disassembly of section .bss:

0000a644 <__bss_start__>:
    a644:	00000000 	andeq	r0, r0, r0

0000a648 <expected_B>:
    a648:	00000000 	andeq	r0, r0, r0

0000a64c <cq>:
	...

0000c660 <watchpt_handler0>:
    c660:	00000000 	andeq	r0, r0, r0

0000c664 <brkpt_handler0>:
    c664:	00000000 	andeq	r0, r0, r0

0000c668 <brk_verbose_p>:
    c668:	00000000 	andeq	r0, r0, r0

0000c66c <nfaults.4398>:
    c66c:	00000000 	andeq	r0, r0, r0

0000c670 <init_p.4404>:
    c670:	00000000 	andeq	r0, r0, r0

0000c674 <checker>:
    c674:	00000000 	andeq	r0, r0, r0

0000c678 <expected_handle>:
    c678:	00000000 	andeq	r0, r0, r0

0000c67c <buf.4189>:
	...

Disassembly of section .ARM.attributes:

00000000 <.ARM.attributes>:
   0:	00002a41 	andeq	r2, r0, r1, asr #20
   4:	61656100 	cmnvs	r5, r0, lsl #2
   8:	01006962 	tsteq	r0, r2, ror #18
   c:	00000020 	andeq	r0, r0, r0, lsr #32
  10:	4b5a3605 	blmi	168d82c <__bss_end__+0x1680dac>
  14:	08070600 	stmdaeq	r7, {r9, sl}
  18:	12010901 	andne	r0, r1, #16384	; 0x4000
  1c:	15011404 	strne	r1, [r1, #-1028]	; 0x404
  20:	18031701 	stmdane	r3, {r0, r8, r9, sl, ip}
  24:	22011a01 	andcs	r1, r1, #4096	; 0x1000
  28:	Address 0x0000000000000028 is out of bounds.


Disassembly of section .comment:

00000000 <.comment>:
   0:	3a434347 	bcc	10d0d24 <__bss_end__+0x10c42a4>
   4:	4e472820 	cdpmi	8, 4, cr2, cr7, cr0, {1}
   8:	34202955 	strtcc	r2, [r0], #-2389	; 0x955
   c:	332e382e 	teqcc	lr, #3014656	; 0x2e0000
  10:	43434700 	movtmi	r4, #14080	; 0x3700
  14:	3128203a 	teqcc	r8, sl, lsr r0
  18:	2e363a35 	mrccs	10, 1, r3, cr6, cr5, {1}
  1c:	2b312e33 	blcs	c4b8f0 <__bss_end__+0xc3ee70>
  20:	326e7673 	rsbcc	r7, lr, #120586240	; 0x7300000
  24:	33303335 	teqcc	r0, #-738197504	; 0xd4000000
  28:	62312d39 	eorsvs	r2, r1, #3648	; 0xe40
  2c:	646c6975 	strbtvs	r6, [ip], #-2421	; 0x975
  30:	36202931 			; <UNDEFINED> instruction: 0x36202931
  34:	312e332e 	teqcc	lr, lr, lsr #6
  38:	31303220 	teqcc	r0, r0, lsr #4
  3c:	32363037 	eorscc	r3, r6, #55	; 0x37
  40:	Address 0x0000000000000040 is out of bounds.


Disassembly of section .debug_info:

00000000 <.debug_info>:
       0:	000009bc 			; <UNDEFINED> instruction: 0x000009bc
       4:	00000004 	andeq	r0, r0, r4
       8:	01040000 	mrseq	r0, (UNDEF: 4)
       c:	0000021a 	andeq	r0, r0, sl, lsl r2
      10:	00006c01 	andeq	r6, r0, r1, lsl #24
      14:	00000000 	andeq	r0, r0, r0
      18:	00802000 	addeq	r2, r0, r0
      1c:	00051800 	andeq	r1, r5, r0, lsl #16
      20:	00000000 	andeq	r0, r0, r0
      24:	05040200 	streq	r0, [r4, #-512]	; 0x200
      28:	00746e69 	rsbseq	r6, r4, r9, ror #28
      2c:	00005903 	andeq	r5, r0, r3, lsl #18
      30:	37d40300 	ldrbcc	r0, [r4, r0, lsl #6]
      34:	04000000 	streq	r0, [r0], #-0
      38:	00af0704 	adceq	r0, pc, r4, lsl #14
      3c:	01040000 	mrseq	r0, (UNDEF: 4)
      40:	00019006 	andeq	r9, r1, r6
      44:	05020400 	streq	r0, [r2, #-1024]	; 0x400
      48:	000001b2 			; <UNDEFINED> instruction: 0x000001b2
      4c:	d0050404 	andle	r0, r5, r4, lsl #8
      50:	04000000 	streq	r0, [r0], #-0
      54:	00cb0508 	sbceq	r0, fp, r8, lsl #10
      58:	01040000 	mrseq	r0, (UNDEF: 4)
      5c:	00018e08 	andeq	r8, r1, r8, lsl #28
      60:	07020400 	streq	r0, [r2, -r0, lsl #8]
      64:	0000012d 	andeq	r0, r0, sp, lsr #2
      68:	0001d603 	andeq	sp, r1, r3, lsl #12
      6c:	73340400 	teqvc	r4, #0, 8
      70:	04000000 	streq	r0, [r0], #-0
      74:	00aa0704 	adceq	r0, sl, r4, lsl #14
      78:	08040000 	stmdaeq	r4, {}	; <UNPREDICTABLE>
      7c:	0000a507 	andeq	sl, r0, r7, lsl #10
      80:	07040400 	streq	r0, [r4, -r0, lsl #8]
      84:	00000152 	andeq	r0, r0, r2, asr r1
      88:	01040405 	tsteq	r4, r5, lsl #8
      8c:	00019708 	andeq	r9, r1, r8, lsl #14
      90:	97040600 	strls	r0, [r4, -r0, lsl #12]
      94:	07000000 	streq	r0, [r0, -r0]
      98:	0000008a 	andeq	r0, r0, sl, lsl #1
      9c:	00008a08 	andeq	r8, r0, r8, lsl #20
      a0:	0000ac00 	andeq	sl, r0, r0, lsl #24
      a4:	00810900 	addeq	r0, r1, r0, lsl #18
      a8:	00070000 	andeq	r0, r7, r0
      ac:	00017c0a 	andeq	r7, r1, sl, lsl #24
      b0:	0a053800 	beq	14e0b8 <__bss_end__+0x141638>
      b4:	0000015d 	andeq	r0, r0, sp, asr r1
      b8:	000ad70b 	andeq	sp, sl, fp, lsl #14
      bc:	5d0f0500 	cfstr32pl	mvfx0, [pc, #-0]	; c4 <__code_start__-0x7f3c>
      c0:	00000001 	andeq	r0, r0, r1
      c4:	0500410c 	streq	r4, [r0, #-268]	; 0x10c
      c8:	00017512 	andeq	r7, r1, r2, lsl r5
      cc:	420c0400 	andmi	r0, ip, #0, 8
      d0:	75130500 	ldrvc	r0, [r3, #-1280]	; 0x500
      d4:	08000001 	stmdaeq	r0, {r0}
      d8:	0000e50b 	andeq	lr, r0, fp, lsl #10
      dc:	75160500 	ldrvc	r0, [r6, #-1280]	; 0x500
      e0:	0c000001 	stceq	0, cr0, [r0], {1}
      e4:	0001e50b 	andeq	lr, r1, fp, lsl #10
      e8:	8a180500 	bhi	6014f0 <__bss_end__+0x5f4a70>
      ec:	10000001 	andne	r0, r0, r1
      f0:	0002980b 	andeq	r9, r2, fp, lsl #16
      f4:	901f0500 	andsls	r0, pc, r0, lsl #10
      f8:	14000001 	strne	r0, [r0], #-1
      fc:	0002870b 	andeq	r8, r2, fp, lsl #14
     100:	90310500 	eorsls	r0, r1, r0, lsl #10
     104:	18000001 	stmdane	r0, {r0}
     108:	0000920b 	andeq	r9, r0, fp, lsl #4
     10c:	95360500 	ldrls	r0, [r6, #-1280]!	; 0x500
     110:	1c000001 	stcne	0, cr0, [r0], {1}
     114:	0000600b 	andeq	r6, r0, fp
     118:	953a0500 	ldrls	r0, [sl, #-1280]!	; 0x500
     11c:	20000001 	andcs	r0, r0, r1
     120:	0002a20b 	andeq	sl, r2, fp, lsl #4
     124:	903f0500 	eorsls	r0, pc, r0, lsl #10
     128:	24000001 	strcs	r0, [r0], #-1
     12c:	00016b0b 	andeq	r6, r1, fp, lsl #22
     130:	37420500 	strbcc	r0, [r2, -r0, lsl #10]
     134:	28000000 	stmdacs	r0, {}	; <UNPREDICTABLE>
     138:	0001f10b 	andeq	pc, r1, fp, lsl #2
     13c:	37430500 	strbcc	r0, [r3, -r0, lsl #10]
     140:	2c000000 	stccs	0, cr0, [r0], {-0}
     144:	0001bc0b 	andeq	fp, r1, fp, lsl #24
     148:	37460500 	strbcc	r0, [r6, -r0, lsl #10]
     14c:	30000000 	andcc	r0, r0, r0
     150:	0000d90b 	andeq	sp, r0, fp, lsl #18
     154:	95480500 	strbls	r0, [r8, #-1280]	; 0x500
     158:	34000001 	strcc	r0, [r0], #-1
     15c:	63040600 	movwvs	r0, #17920	; 0x4600
     160:	0d000001 	stceq	0, cr0, [r0, #-4]
     164:	00016f0e 	andeq	r6, r1, lr, lsl #30
     168:	016f0f00 	cmneq	pc, r0, lsl #30
     16c:	06000000 	streq	r0, [r0], -r0
     170:	0000ac04 	andeq	sl, r0, r4, lsl #24
     174:	64040600 	strvs	r0, [r4], #-1536	; 0x600
     178:	10000001 	andne	r0, r0, r1
     17c:	00000025 	andeq	r0, r0, r5, lsr #32
     180:	0000018a 	andeq	r0, r0, sl, lsl #3
     184:	00016f0f 	andeq	r6, r1, pc, lsl #30
     188:	04060000 	streq	r0, [r6], #-0
     18c:	0000017b 	andeq	r0, r0, fp, ror r1
     190:	00003711 	andeq	r3, r0, r1, lsl r7
     194:	00681100 	rsbeq	r1, r8, r0, lsl #2
     198:	84030000 	strhi	r0, [r3], #-0
     19c:	05000001 	streq	r0, [r0, #-1]
     1a0:	0000ac49 	andeq	sl, r0, r9, asr #24
     1a4:	01cb0300 	biceq	r0, fp, r0, lsl #6
     1a8:	1c020000 	stcne	0, cr0, [r2], {-0}
     1ac:	0000005a 	andeq	r0, r0, sl, asr r0
     1b0:	02201412 	eoreq	r1, r0, #301989888	; 0x12000000
     1b4:	00020a28 	andeq	r0, r2, r8, lsr #20
     1b8:	00bc0b00 	adcseq	r0, ip, r0, lsl #22
     1bc:	2a020000 	bcs	801c4 <__bss_end__+0x73744>
     1c0:	0000021b 	andeq	r0, r0, fp, lsl r2
     1c4:	01eb1300 	mvneq	r1, r0, lsl #6
     1c8:	2b020000 	blcs	801d0 <__bss_end__+0x73750>
     1cc:	00000037 	andeq	r0, r0, r7, lsr r0
     1d0:	d1132000 	tstle	r3, r0
     1d4:	02000001 	andeq	r0, r0, #1
     1d8:	0001902c 	andeq	r9, r1, ip, lsr #32
     1dc:	13200400 	teqne	r0, #0, 8
     1e0:	0000014d 	andeq	r0, r0, sp, asr #2
     1e4:	01902c02 	orrseq	r2, r0, r2, lsl #24
     1e8:	20080000 	andcs	r0, r8, r0
     1ec:	0002b513 	andeq	fp, r2, r3, lsl r5
     1f0:	902f0200 	eorls	r0, pc, r0, lsl #4
     1f4:	0c000001 	stceq	0, cr0, [r0], {1}
     1f8:	00831420 	addeq	r1, r3, r0, lsr #8
     1fc:	31020000 	mrscc	r0, (UNDEF: 2)
     200:	00000037 	andeq	r0, r0, r7, lsr r0
     204:	101f0104 	andsne	r0, pc, r4, lsl #2
     208:	a5080020 	strge	r0, [r8, #-32]
     20c:	1b000001 	blne	218 <__code_start__-0x7de8>
     210:	15000002 	strne	r0, [r0, #-2]
     214:	00000081 	andeq	r0, r0, r1, lsl #1
     218:	11001fff 	strdne	r1, [r0, -pc]
     21c:	0000020a 	andeq	r0, r0, sl, lsl #4
     220:	00020803 	andeq	r0, r2, r3, lsl #16
     224:	2b320200 	blcs	c80a2c <__bss_end__+0xc73fac>
     228:	11000002 	tstne	r0, r2
     22c:	000001b0 			; <UNDEFINED> instruction: 0x000001b0
     230:	0000c216 	andeq	ip, r0, r6, lsl r2
     234:	25390200 	ldrcs	r0, [r9, #-512]!	; 0x200
     238:	03000000 	movweq	r0, #0
     23c:	0000024a 	andeq	r0, r0, sl, asr #4
     240:	02007117 	andeq	r7, r0, #-1073741819	; 0xc0000005
     244:	00024a39 	andeq	r4, r2, r9, lsr sl
     248:	04060000 	streq	r0, [r6], #-0
     24c:	00000220 	andeq	r0, r0, r0, lsr #4
     250:	0002ad16 	andeq	sl, r2, r6, lsl sp
     254:	253c0200 	ldrcs	r0, [ip, #-512]!	; 0x200
     258:	03000000 	movweq	r0, #0
     25c:	0000026a 	andeq	r0, r0, sl, ror #4
     260:	02007117 	andeq	r7, r0, #-1073741819	; 0xc0000005
     264:	00024a3c 	andeq	r4, r2, ip, lsr sl
     268:	f9160000 			; <UNDEFINED> instruction: 0xf9160000
     26c:	02000001 	andeq	r0, r0, #1
     270:	00002556 	andeq	r2, r0, r6, asr r5
     274:	02980300 	addseq	r0, r8, #0, 6
     278:	63170000 	tstvs	r7, #0
     27c:	4a560200 	bmi	1580a84 <__bss_end__+0x1574004>
     280:	17000002 	strne	r0, [r0, -r2]
     284:	56020078 			; <UNDEFINED> instruction: 0x56020078
     288:	000001a5 	andeq	r0, r0, r5, lsr #3
     28c:	0001d118 	andeq	sp, r1, r8, lsl r1
     290:	37570200 	ldrbcc	r0, [r7, -r0, lsl #4]
     294:	00000000 	andeq	r0, r0, r0
     298:	00015b16 	andeq	r5, r1, r6, lsl fp
     29c:	25420200 	strbcs	r0, [r2, #-512]	; 0x200
     2a0:	03000000 	movweq	r0, #0
     2a4:	000002c6 	andeq	r0, r0, r6, asr #5
     2a8:	02006317 	andeq	r6, r0, #1543503872	; 0x5c000000
     2ac:	00024a42 	andeq	r4, r2, r2, asr #20
     2b0:	00651700 	rsbeq	r1, r5, r0, lsl #14
     2b4:	02c64202 	sbceq	r4, r6, #536870912	; 0x20000000
     2b8:	4d180000 	ldcmi	0, cr0, [r8, #-0]
     2bc:	02000001 	andeq	r0, r0, #1
     2c0:	00003745 	andeq	r3, r0, r5, asr #14
     2c4:	04060000 	streq	r0, [r6], #-0
     2c8:	000001a5 	andeq	r0, r0, r5, lsr #3
     2cc:	00012416 	andeq	r2, r1, r6, lsl r4
     2d0:	373e0200 	ldrcc	r0, [lr, -r0, lsl #4]!
     2d4:	03000000 	movweq	r0, #0
     2d8:	000002e6 	andeq	r0, r0, r6, ror #5
     2dc:	02007117 	andeq	r7, r0, #-1073741819	; 0xc0000005
     2e0:	00024a3e 	andeq	r4, r2, lr, lsr sl
     2e4:	ea190000 	b	6402ec <__bss_end__+0x63386c>
     2e8:	01000000 	mrseq	r0, (UNDEF: 0)
     2ec:	0080200b 	addeq	r2, r0, fp
     2f0:	00006800 	andeq	r6, r0, r0, lsl #16
     2f4:	5a9c0100 	bpl	fe7006fc <__bss_end__+0xfe6f3c7c>
     2f8:	1a000003 	bne	30c <__code_start__-0x7cf4>
     2fc:	0b010063 	bleq	40490 <__bss_end__+0x33a10>
     300:	0000035a 	andeq	r0, r0, sl, asr r3
     304:	00000000 	andeq	r0, r0, r0
     308:	00026a1b 	andeq	r6, r2, fp, lsl sl
     30c:	00802000 	addeq	r2, r0, r0
     310:	00004800 	andeq	r4, r0, r0, lsl #16
     314:	1c0c0100 	stfnes	f0, [ip], {-0}
     318:	00000283 	andeq	r0, r0, r3, lsl #5
     31c:	027a1d0c 	rsbseq	r1, sl, #12, 26	; 0x300
     320:	03060000 	movweq	r0, #24576	; 0x6000
     324:	0000a64c 	andeq	sl, r0, ip, asr #12
     328:	80201e9f 	mlahi	r0, pc, lr, r1	; <UNPREDICTABLE>
     32c:	00480000 	subeq	r0, r8, r0
     330:	8c1f0000 	ldchi	0, cr0, [pc], {-0}
     334:	21000002 	tstcs	r0, r2
     338:	1b000000 	blne	340 <__code_start__-0x7cc0>
     33c:	00000250 	andeq	r0, r0, r0, asr r2
     340:	0000802c 	andeq	r8, r0, ip, lsr #32
     344:	00000014 	andeq	r0, r0, r4, lsl r0
     348:	601d5802 	andsvs	r5, sp, r2, lsl #16
     34c:	06000002 	streq	r0, [r0], -r2
     350:	00a64c03 	adceq	r4, r6, r3, lsl #24
     354:	00009f00 	andeq	r9, r0, r0, lsl #30
     358:	04060000 	streq	r0, [r6], #-0
     35c:	0000019a 	muleq	r0, sl, r1
     360:	0000f219 	andeq	pc, r0, r9, lsl r2	; <UNPREDICTABLE>
     364:	88100100 	ldmdahi	r0, {r8}
     368:	c4000080 	strgt	r0, [r0], #-128	; 0x80
     36c:	01000000 	mrseq	r0, (UNDEF: 0)
     370:	0004449c 	muleq	r4, ip, r4
     374:	00631a00 	rsbeq	r1, r3, r0, lsl #20
     378:	035a1001 	cmpeq	sl, #1
     37c:	00410000 	subeq	r0, r1, r0
     380:	65200000 	strvs	r0, [r0, #-0]!
     384:	a5110100 	ldrge	r0, [r1, #-256]	; 0x100
     388:	7b000001 	blvc	394 <__code_start__-0x7c6c>
     38c:	21000000 	mrscs	r0, (UNDEF: 0)
     390:	00000117 	andeq	r0, r0, r7, lsl r1
     394:	00000444 	andeq	r0, r0, r4, asr #8
     398:	9f440305 	svcls	0x00440305
     39c:	98220000 	stmdals	r2!, {}	; <UNPREDICTABLE>
     3a0:	90000002 	andls	r0, r0, r2
     3a4:	4c000080 	stcmi	0, cr0, [r0], {128}	; 0x80
     3a8:	01000000 	mrseq	r0, (UNDEF: 0)
     3ac:	0003f912 	andeq	pc, r3, r2, lsl r9	; <UNPREDICTABLE>
     3b0:	02b11d00 	adcseq	r1, r1, #0, 26
     3b4:	f2060000 	vhadd.s8	d0, d6, d0
     3b8:	00000382 	andeq	r0, r0, r2, lsl #7
     3bc:	02a81d00 	adceq	r1, r8, #0, 26
     3c0:	03060000 	movweq	r0, #24576	; 0x6000
     3c4:	0000a64c 	andeq	sl, r0, ip, asr #12
     3c8:	80901e9f 	umullshi	r1, r0, pc, lr	; <UNPREDICTABLE>
     3cc:	004c0000 	subeq	r0, ip, r0
     3d0:	ba1f0000 	blt	7c03d8 <__bss_end__+0x7b3958>
     3d4:	a4000002 	strge	r0, [r0], #-2
     3d8:	1b000000 	blne	3e0 <__code_start__-0x7c20>
     3dc:	00000230 	andeq	r0, r0, r0, lsr r2
     3e0:	00008090 	muleq	r0, r0, r0
     3e4:	00000014 	andeq	r0, r0, r4, lsl r0
     3e8:	401d4302 	andsmi	r4, sp, r2, lsl #6
     3ec:	06000002 	streq	r0, [r0], -r2
     3f0:	00a64c03 	adceq	r4, r6, r3, lsl #24
     3f4:	00009f00 	andeq	r9, r0, r0, lsl #30
     3f8:	81002300 	mrshi	r2, LR_irq
     3fc:	09640000 	stmdbeq	r4!, {}^	; <UNPREDICTABLE>
     400:	1c240000 	stcne	0, cr0, [r4], #-0
     404:	6b000081 	blvs	610 <__code_start__-0x79f0>
     408:	3a000009 	bcc	434 <__code_start__-0x7bcc>
     40c:	25000004 	strcs	r0, [r0, #-4]
     410:	46015301 	strmi	r5, [r1], -r1, lsl #6
     414:	05520125 	ldrbeq	r0, [r2, #-293]	; 0x125
     418:	009f4403 	addseq	r4, pc, r3, lsl #8
     41c:	51012500 	tstpl	r1, r0, lsl #10
     420:	9d840305 	stcls	3, cr0, [r4, #20]
     424:	01250000 	teqeq	r5, r0
     428:	70030550 	andvc	r0, r3, r0, asr r5
     42c:	2500009d 	strcs	r0, [r0, #-157]	; 0x9d
     430:	05007d02 	streq	r7, [r0, #-3330]	; 0xd02
     434:	009d9c03 	addseq	r9, sp, r3, lsl #24
     438:	20230000 	eorcs	r0, r3, r0
     43c:	81000081 	smlabbhi	r0, r1, r0, r0
     440:	00000009 	andeq	r0, r0, r9
     444:	00009c07 	andeq	r9, r0, r7, lsl #24
     448:	00e22600 	rsceq	r2, r2, r0, lsl #12
     44c:	99020000 	stmdbls	r2, {}	; <UNPREDICTABLE>
     450:	00048003 	andeq	r8, r4, r3
     454:	00631700 	rsbeq	r1, r3, r0, lsl #14
     458:	024a9902 	subeq	r9, sl, #32768	; 0x8000
     45c:	83270000 	teqhi	r7, #0
     460:	02000000 	andeq	r0, r0, #0
     464:	00003799 	muleq	r0, r9, r7
     468:	01172800 	tsteq	r7, r0, lsl #16
     46c:	04800000 	streq	r0, [r0], #0
     470:	00e20000 	rsceq	r0, r2, r0
     474:	65290000 	strvs	r0, [r9, #-0]!
     478:	a5a20200 	strge	r0, [r2, #512]!	; 0x200
     47c:	00000001 	andeq	r0, r0, r1
     480:	00009c07 	andeq	r9, r0, r7, lsl #24
     484:	00df1900 	sbcseq	r1, pc, r0, lsl #18
     488:	18010000 	stmdane	r1, {}	; <UNPREDICTABLE>
     48c:	0000814c 	andeq	r8, r0, ip, asr #2
     490:	0000020c 	andeq	r0, r0, ip, lsl #4
     494:	06eb9c01 	strbteq	r9, [fp], r1, lsl #24
     498:	631a0000 	tstvs	sl, #0
     49c:	5a180100 	bpl	6008a4 <__bss_end__+0x5f3e24>
     4a0:	c4000003 	strgt	r0, [r0], #-3
     4a4:	1b000000 	blne	4ac <__code_start__-0x7b54>
     4a8:	00000449 	andeq	r0, r0, r9, asr #8
     4ac:	00008154 	andeq	r8, r0, r4, asr r1
     4b0:	000001a8 	andeq	r0, r0, r8, lsr #3
     4b4:	5e1c1901 	cdppl	9, 1, cr1, cr12, cr1, {0}
     4b8:	00000004 	andeq	r0, r0, r4
     4bc:	0004551d 	andeq	r5, r4, sp, lsl r5
     4c0:	4c030600 	stcmi	6, cr0, [r3], {-0}
     4c4:	9f0000a6 	svcls	0x000000a6
     4c8:	0081541e 	addeq	r5, r1, lr, lsl r4
     4cc:	0001a800 	andeq	sl, r1, r0, lsl #16
     4d0:	04761f00 	ldrbteq	r1, [r6], #-3840	; 0xf00
     4d4:	00e50000 	rsceq	r0, r5, r0
     4d8:	692a0000 	stmdbvs	sl!, {}	; <UNPREDICTABLE>
     4dc:	05000004 	streq	r0, [r0, #-4]
     4e0:	009f3c03 	addseq	r3, pc, r3, lsl #24
     4e4:	02302200 	eorseq	r2, r0, #0, 4
     4e8:	81a00000 	movhi	r0, r0
     4ec:	00080000 	andeq	r0, r8, r0
     4f0:	9f020000 	svcls	0x00020000
     4f4:	00000505 	andeq	r0, r0, r5, lsl #10
     4f8:	0002401d 	andeq	r4, r2, sp, lsl r0
     4fc:	4c030600 	stcmi	6, cr0, [r3], {-0}
     500:	9f0000a6 	svcls	0x000000a6
     504:	02502200 	subseq	r2, r0, #0, 4
     508:	81d40000 	bicshi	r0, r4, r0
     50c:	001c0000 	andseq	r0, ip, r0
     510:	a0020000 	andge	r0, r2, r0
     514:	00000525 	andeq	r0, r0, r5, lsr #10
     518:	0002601d 	andeq	r6, r2, sp, lsl r0
     51c:	4c030600 	stcmi	6, cr0, [r3], {-0}
     520:	9f0000a6 	svcls	0x000000a6
     524:	02cc2200 	sbceq	r2, ip, #0, 4
     528:	821c0000 	andshi	r0, ip, #0
     52c:	00180000 	andseq	r0, r8, r0
     530:	a1020000 	mrsge	r0, (UNDEF: 2)
     534:	00000545 	andeq	r0, r0, r5, asr #10
     538:	0002dc1d 	andeq	sp, r2, sp, lsl ip
     53c:	4c030600 	stcmi	6, cr0, [r3], {-0}
     540:	9f0000a6 	svcls	0x000000a6
     544:	02982b00 	addseq	r2, r8, #0, 22
     548:	82600000 	rsbhi	r0, r0, #0
     54c:	00000000 	andeq	r0, r0, r0
     550:	a3020000 	movwge	r0, #8192	; 0x2000
     554:	0000059c 	muleq	r0, ip, r5
     558:	0002b11d 	andeq	fp, r2, sp, lsl r1
     55c:	d1f20600 	mvnsle	r0, r0, lsl #12
     560:	00000004 	andeq	r0, r0, r4
     564:	0002a81d 	andeq	sl, r2, sp, lsl r8
     568:	4c030600 	stcmi	6, cr0, [r3], {-0}
     56c:	9f0000a6 	svcls	0x000000a6
     570:	0000002c 	andeq	r0, r0, ip, lsr #32
     574:	02ba1f00 	adcseq	r1, sl, #0, 30
     578:	01260000 	teqeq	r6, r0
     57c:	301b0000 	andscc	r0, fp, r0
     580:	60000002 	andvs	r0, r0, r2
     584:	14000082 	strne	r0, [r0], #-130	; 0x82
     588:	02000000 	andeq	r0, r0, #0
     58c:	02401d43 	subeq	r1, r0, #4288	; 0x10c0
     590:	03060000 	movweq	r0, #24576	; 0x6000
     594:	0000a64c 	andeq	sl, r0, ip, asr #12
     598:	0000009f 	muleq	r0, pc, r0	; <UNPREDICTABLE>
     59c:	00816824 	addeq	r6, r1, r4, lsr #16
     5a0:	00098800 	andeq	r8, r9, r0, lsl #16
     5a4:	0005bc00 	andeq	fp, r5, r0, lsl #24
     5a8:	52012500 	andpl	r2, r1, #0, 10
     5ac:	20140a03 	andscs	r0, r4, r3, lsl #20
     5b0:	01510125 	cmpeq	r1, r5, lsr #2
     5b4:	50012530 	andpl	r2, r1, r0, lsr r5
     5b8:	00007402 	andeq	r7, r0, r2, lsl #8
     5bc:	0081b423 	addeq	fp, r1, r3, lsr #8
     5c0:	00096400 	andeq	r6, r9, r0, lsl #8
     5c4:	81d02400 	bicshi	r2, r0, r0, lsl #8
     5c8:	096b0000 	stmdbeq	fp!, {}^	; <UNPREDICTABLE>
     5cc:	05fe0000 	ldrbeq	r0, [lr, #0]!
     5d0:	01250000 	teqeq	r5, r0
     5d4:	9f080253 	svcls	0x00080253
     5d8:	05520125 	ldrbeq	r0, [r2, #-293]	; 0x125
     5dc:	009f3c03 	addseq	r3, pc, r3, lsl #24
     5e0:	51012500 	tstpl	r1, r0, lsl #10
     5e4:	9dac0305 	stcls	3, cr0, [ip, #20]!
     5e8:	01250000 	teqeq	r5, r0
     5ec:	70030550 	andvc	r0, r3, r0, asr r5
     5f0:	2500009d 	strcs	r0, [r0, #-157]	; 0x9d
     5f4:	05007d02 	streq	r7, [r0, #-3330]	; 0xd02
     5f8:	009e0403 	addseq	r0, lr, r3, lsl #8
     5fc:	d4230000 	strtle	r0, [r3], #-0
     600:	81000081 	smlabbhi	r0, r1, r0, r0
     604:	23000009 	movwcs	r0, #9
     608:	000081fc 	strdeq	r8, [r0], -ip
     60c:	00000964 	andeq	r0, r0, r4, ror #18
     610:	00821824 	addeq	r1, r2, r4, lsr #16
     614:	00096b00 	andeq	r6, r9, r0, lsl #22
     618:	00064900 	andeq	r4, r6, r0, lsl #18
     61c:	53012500 	movwpl	r2, #5376	; 0x1500
     620:	25a00802 	strcs	r0, [r0, #2050]!	; 0x802
     624:	03055201 	movweq	r5, #20993	; 0x5201
     628:	00009f3c 	andeq	r9, r0, ip, lsr pc
     62c:	05510125 	ldrbeq	r0, [r1, #-293]	; 0x125
     630:	009dac03 	addseq	sl, sp, r3, lsl #24
     634:	50012500 	andpl	r2, r1, r0, lsl #10
     638:	9d700305 	ldclls	3, cr0, [r0, #-20]!	; 0xffffffec
     63c:	02250000 	eoreq	r0, r5, #0
     640:	0305007d 	movweq	r0, #20605	; 0x507d
     644:	00009e10 	andeq	r9, r0, r0, lsl lr
     648:	821c2300 	andshi	r2, ip, #0, 6
     64c:	09810000 	stmibeq	r1, {}	; <UNPREDICTABLE>
     650:	40230000 	eormi	r0, r3, r0
     654:	64000082 	strvs	r0, [r0], #-130	; 0x82
     658:	24000009 	strcs	r0, [r0], #-9
     65c:	0000825c 	andeq	r8, r0, ip, asr r2
     660:	0000096b 	andeq	r0, r0, fp, ror #18
     664:	00000694 	muleq	r0, r4, r6
     668:	02530125 	subseq	r0, r3, #1073741833	; 0x40000009
     66c:	0125a108 	teqeq	r5, r8, lsl #2
     670:	3c030552 	cfstr32cc	mvfx0, [r3], {82}	; 0x52
     674:	2500009f 	strcs	r0, [r0, #-159]	; 0x9f
     678:	03055101 	movweq	r5, #20737	; 0x5101
     67c:	00009dac 	andeq	r9, r0, ip, lsr #27
     680:	05500125 	ldrbeq	r0, [r0, #-293]	; 0x125
     684:	009d7003 	addseq	r7, sp, r3
     688:	7d022500 	cfstr32vc	mvfx2, [r2, #-0]
     68c:	1c030500 	cfstr32ne	mvfx0, [r3], {-0}
     690:	0000009e 	muleq	r0, lr, r0
     694:	00826023 	addeq	r6, r2, r3, lsr #32
     698:	00098100 	andeq	r8, r9, r0, lsl #2
     69c:	82dc2300 	sbcshi	r2, ip, #0, 6
     6a0:	09640000 	stmdbeq	r4!, {}^	; <UNPREDICTABLE>
     6a4:	f8240000 			; <UNDEFINED> instruction: 0xf8240000
     6a8:	6b000082 	blvs	8b8 <__code_start__-0x7748>
     6ac:	df000009 	svcle	0x00000009
     6b0:	25000006 	strcs	r0, [r0, #-6]
     6b4:	08025301 	stmdaeq	r2, {r0, r8, r9, ip, lr}
     6b8:	520125a3 	andpl	r2, r1, #683671552	; 0x28c00000
     6bc:	9f3c0305 	svcls	0x003c0305
     6c0:	01250000 	teqeq	r5, r0
     6c4:	ac030551 	cfstr32ge	mvfx0, [r3], {81}	; 0x51
     6c8:	2500009d 	strcs	r0, [r0, #-157]	; 0x9d
     6cc:	03055001 	movweq	r5, #20481	; 0x5001
     6d0:	00009d70 	andeq	r9, r0, r0, ror sp
     6d4:	007d0225 	rsbseq	r0, sp, r5, lsr #4
     6d8:	9e300305 	cdpls	3, 3, cr0, cr0, cr5, {0}
     6dc:	23000000 	movwcs	r0, #0
     6e0:	000082fc 	strdeq	r8, [r0], -ip
     6e4:	00000981 	andeq	r0, r0, r1, lsl #19
     6e8:	2d000000 	stccs	0, cr0, [r0, #-0]
     6ec:	000001df 	ldrdeq	r0, [r0], -pc	; <UNPREDICTABLE>
     6f0:	00251e01 	eoreq	r1, r5, r1, lsl #28
     6f4:	83580000 	cmphi	r8, #0
     6f8:	00880000 	addeq	r0, r8, r0
     6fc:	9c010000 	stcls	0, cr0, [r1], {-0}
     700:	0000077d 	andeq	r0, r0, sp, ror r7
     704:	0100631a 	tsteq	r0, sl, lsl r3
     708:	00035a1e 	andeq	r5, r3, lr, lsl sl
     70c:	00014600 	andeq	r4, r1, r0, lsl #12
     710:	01172100 	tsteq	r7, r0, lsl #2
     714:	078d0000 	streq	r0, [sp, r0]
     718:	03050000 	movweq	r0, #20480	; 0x5000
     71c:	00009f30 	andeq	r9, r0, r0, lsr pc
     720:	0083802e 	addeq	r8, r3, lr, lsr #32
     724:	00073100 	andeq	r3, r7, r0, lsl #2
     728:	50012500 	andpl	r2, r1, r0, lsl #10
     72c:	5001f303 	andpl	pc, r1, r3, lsl #6
     730:	839c2300 	orrshi	r2, ip, #0, 6
     734:	09640000 	stmdbeq	r4!, {}^	; <UNPREDICTABLE>
     738:	b8240000 	stmdalt	r4!, {}	; <UNPREDICTABLE>
     73c:	6b000083 	blvs	950 <__code_start__-0x76b0>
     740:	73000009 	movwvc	r0, #9
     744:	25000007 	strcs	r0, [r0, #-7]
     748:	08025301 	stmdaeq	r2, {r0, r8, r9, ip, lr}
     74c:	52012527 	andpl	r2, r1, #163577856	; 0x9c00000
     750:	9f300305 	svcls	0x00300305
     754:	01250000 	teqeq	r5, r0
     758:	84030551 	strhi	r0, [r3], #-1361	; 0x551
     75c:	2500009d 	strcs	r0, [r0, #-157]	; 0x9d
     760:	03055001 	movweq	r5, #20481	; 0x5001
     764:	00009d70 	andeq	r9, r0, r0, ror sp
     768:	007d0225 	rsbseq	r0, sp, r5, lsr #4
     76c:	9e580305 	cdpls	3, 5, cr0, cr8, cr5, {0}
     770:	23000000 	movwcs	r0, #0
     774:	000083bc 			; <UNDEFINED> instruction: 0x000083bc
     778:	00000981 	andeq	r0, r0, r1, lsl #19
     77c:	008a0800 	addeq	r0, sl, r0, lsl #16
     780:	078d0000 	streq	r0, [sp, r0]
     784:	81090000 	mrshi	r0, (UNDEF: 9)
     788:	0b000000 	bleq	790 <__code_start__-0x7870>
     78c:	077d0700 	ldrbeq	r0, [sp, -r0, lsl #14]!
     790:	732f0000 	teqvc	pc, #0
     794:	01000001 	tsteq	r0, r1
     798:	00019a2b 	andeq	r9, r1, fp, lsr #20
     79c:	0083e000 	addeq	lr, r3, r0
     7a0:	00007000 	andeq	r7, r0, r0
     7a4:	309c0100 	addscc	r0, ip, r0, lsl #2
     7a8:	0000009d 	muleq	r0, sp, r0
     7ac:	84503501 	ldrbhi	r3, [r0], #-1281	; 0x501
     7b0:	00e80000 	rsceq	r0, r8, r0
     7b4:	9c010000 	stcls	0, cr0, [r1], {-0}
     7b8:	00000922 	andeq	r0, r0, r2, lsr #18
     7bc:	01006331 	tsteq	r0, r1, lsr r3
     7c0:	0000ac39 	andeq	sl, r0, r9, lsr ip
     7c4:	40910200 	addsmi	r0, r1, r0, lsl #4
     7c8:	01006e29 	tsteq	r0, r9, lsr #28
     7cc:	0000253a 	andeq	r2, r0, sl, lsr r5
     7d0:	01172100 	tsteq	r7, r0, lsl #2
     7d4:	09220000 	stmdbeq	r2!, {}	; <UNPREDICTABLE>
     7d8:	03050000 	movweq	r0, #20480	; 0x5000
     7dc:	00009f4c 	andeq	r9, r0, ip, asr #30
     7e0:	00845c23 	addeq	r5, r4, r3, lsr #24
     7e4:	0009a700 	andeq	sl, r9, r0, lsl #14
     7e8:	84642400 	strbthi	r2, [r4], #-1024	; 0x400
     7ec:	07920000 	ldreq	r0, [r2, r0]
     7f0:	07fe0000 	ldrbeq	r0, [lr, r0]!
     7f4:	01250000 	teqeq	r5, r0
     7f8:	b8910350 	ldmlt	r1, {r4, r6, r8, r9}
     7fc:	6c24007f 	stcvs	0, cr0, [r4], #-508	; 0xfffffe04
     800:	ae000084 	cdpge	0, 0, cr0, cr0, cr4, {4}
     804:	13000009 	movwne	r0, #9
     808:	25000008 	strcs	r0, [r0, #-8]
     80c:	91035001 	tstls	r3, r1
     810:	23007fb8 	movwcs	r7, #4024	; 0xfb8
     814:	00008484 	andeq	r8, r0, r4, lsl #9
     818:	00000964 	andeq	r0, r0, r4, ror #18
     81c:	0084a024 	addeq	sl, r4, r4, lsr #32
     820:	00096b00 	andeq	r6, r9, r0, lsl #22
     824:	00085500 	andeq	r5, r8, r0, lsl #10
     828:	53012500 	movwpl	r2, #5376	; 0x1500
     82c:	253c0802 	ldrcs	r0, [ip, #-2050]!	; 0x802
     830:	03055201 	movweq	r5, #20993	; 0x5201
     834:	00009f4c 	andeq	r9, r0, ip, asr #30
     838:	05510125 	ldrbeq	r0, [r1, #-293]	; 0x125
     83c:	009d8403 	addseq	r8, sp, r3, lsl #8
     840:	50012500 	andpl	r2, r1, r0, lsl #10
     844:	9d700305 	ldclls	3, cr0, [r0, #-20]!	; 0xffffffec
     848:	02250000 	eoreq	r0, r5, #0
     84c:	0305007d 	movweq	r0, #20605	; 0x507d
     850:	00009e74 	andeq	r9, r0, r4, ror lr
     854:	84a42300 	strthi	r2, [r4], #768	; 0x300
     858:	09810000 	stmibeq	r1, {}	; <UNPREDICTABLE>
     85c:	a8230000 	stmdage	r3!, {}	; <UNPREDICTABLE>
     860:	64000084 	strvs	r0, [r0], #-132	; 0x84
     864:	24000009 	strcs	r0, [r0], #-9
     868:	000084cc 	andeq	r8, r0, ip, asr #9
     86c:	0000096b 	andeq	r0, r0, fp, ror #18
     870:	00000896 	muleq	r0, r6, r8
     874:	02530125 	subseq	r0, r3, #1073741833	; 0x40000009
     878:	01253e08 	teqeq	r5, r8, lsl #28
     87c:	4c030552 	cfstr32mi	mvfx0, [r3], {82}	; 0x52
     880:	2500009f 	strcs	r0, [r0, #-159]	; 0x9f
     884:	03055101 	movweq	r5, #20737	; 0x5101
     888:	00009d84 	andeq	r9, r0, r4, lsl #27
     88c:	05500125 	ldrbeq	r0, [r0, #-293]	; 0x125
     890:	009e8003 	addseq	r8, lr, r3
     894:	d0230000 	eorle	r0, r3, r0
     898:	81000084 	smlabbhi	r0, r4, r0, r0
     89c:	23000009 	movwcs	r0, #9
     8a0:	000084e0 	andeq	r8, r0, r0, ror #9
     8a4:	00000964 	andeq	r0, r0, r4, ror #18
     8a8:	0084fc24 	addeq	pc, r4, r4, lsr #24
     8ac:	00096b00 	andeq	r6, r9, r0, lsl #22
     8b0:	0008e100 	andeq	lr, r8, r0, lsl #2
     8b4:	53012500 	movwpl	r2, #5376	; 0x1500
     8b8:	25400802 	strbcs	r0, [r0, #-2050]	; 0x802
     8bc:	03055201 	movweq	r5, #20993	; 0x5201
     8c0:	00009f4c 	andeq	r9, r0, ip, asr #30
     8c4:	05510125 	ldrbeq	r0, [r1, #-293]	; 0x125
     8c8:	009d8403 	addseq	r8, sp, r3, lsl #8
     8cc:	50012500 	andpl	r2, r1, r0, lsl #10
     8d0:	9d700305 	ldclls	3, cr0, [r0, #-20]!	; 0xffffffec
     8d4:	02250000 	eoreq	r0, r5, #0
     8d8:	0305007d 	movweq	r0, #20605	; 0x507d
     8dc:	00009ec8 	andeq	r9, r0, r8, asr #29
     8e0:	85002300 	strhi	r2, [r0, #-768]	; 0x300
     8e4:	09810000 	stmibeq	r1, {}	; <UNPREDICTABLE>
     8e8:	08240000 	stmdaeq	r4!, {}	; <UNPREDICTABLE>
     8ec:	6b000085 	blvs	b08 <__code_start__-0x74f8>
     8f0:	01000009 	tsteq	r0, r9
     8f4:	25000009 	strcs	r0, [r0, #-9]
     8f8:	03055001 	movweq	r5, #20481	; 0x5001
     8fc:	00009ed4 	ldrdeq	r9, [r0], -r4
     900:	85142400 	ldrhi	r2, [r4, #-1024]	; 0x400
     904:	096b0000 	stmdbeq	fp!, {}^	; <UNPREDICTABLE>
     908:	09180000 	ldmdbeq	r8, {}	; <UNPREDICTABLE>
     90c:	01250000 	teqeq	r5, r0
     910:	e0030550 	and	r0, r3, r0, asr r5
     914:	0000009e 	muleq	r0, lr, r0
     918:	00851823 	addeq	r1, r5, r3, lsr #16
     91c:	00098100 	andeq	r8, r9, r0, lsl #2
     920:	9c070000 	stcls	0, cr0, [r7], {-0}
     924:	32000000 	andcc	r0, r0, #0
     928:	0000019c 	muleq	r0, ip, r1
     92c:	00250701 	eoreq	r0, r5, r1, lsl #14
     930:	03050000 	movweq	r0, #20480	; 0x5000
     934:	0000a644 	andeq	sl, r0, r4, asr #12
     938:	0001a732 	andeq	sl, r1, r2, lsr r7
     93c:	25070100 	strcs	r0, [r7, #-256]	; 0x100
     940:	05000000 	streq	r0, [r0, #-0]
     944:	00a64803 	adceq	r4, r6, r3, lsl #16
     948:	71633100 	cmnvc	r3, r0, lsl #2
     94c:	20080100 	andcs	r0, r8, r0, lsl #2
     950:	05000002 	streq	r0, [r0, #-2]
     954:	00a64c03 	adceq	r4, r6, r3, lsl #24
     958:	01093300 	mrseq	r3, (UNDEF: 57)
     95c:	c2080000 	andgt	r0, r8, #0
     960:	00000025 	andeq	r0, r0, r5, lsr #32
     964:	0000fa34 	andeq	pc, r0, r4, lsr sl	; <UNPREDICTABLE>
     968:	351e0600 	ldrcc	r0, [lr, #-1536]	; 0x600
     96c:	00000656 	andeq	r0, r0, r6, asr r6
     970:	00252906 	eoreq	r2, r5, r6, lsl #18
     974:	09810000 	stmibeq	r1, {}	; <UNPREDICTABLE>
     978:	910f0000 	mrsls	r0, CPSR
     97c:	36000000 	strcc	r0, [r0], -r0
     980:	01403400 	cmpeq	r0, r0, lsl #8
     984:	65060000 	strvs	r0, [r6, #-0]
     988:	00020135 	andeq	r0, r2, r5, lsr r1
     98c:	881b0700 	ldmdahi	fp, {r8, r9, sl}
     990:	a7000000 	strge	r0, [r0, -r0]
     994:	0f000009 	svceq	0x00000009
     998:	00000088 	andeq	r0, r0, r8, lsl #1
     99c:	0000250f 	andeq	r2, r0, pc, lsl #10
     9a0:	002c0f00 	eoreq	r0, ip, r0, lsl #30
     9a4:	34000000 	strcc	r0, [r0], #-0
     9a8:	0000020d 	andeq	r0, r0, sp, lsl #4
     9ac:	e5378d06 	ldr	r8, [r7, #-3334]!	; 0xd06
     9b0:	05000001 	streq	r0, [r0, #-1]
     9b4:	0000254e 	andeq	r2, r0, lr, asr #10
     9b8:	035a0f00 	cmpeq	sl, #0, 30
     9bc:	00000000 	andeq	r0, r0, r0
     9c0:	00000bd7 	ldrdeq	r0, [r0], -r7
     9c4:	02e50004 	rsceq	r0, r5, #4
     9c8:	01040000 	mrseq	r0, (UNDEF: 4)
     9cc:	0000021a 	andeq	r0, r0, sl, lsl r2
     9d0:	0002fa01 	andeq	pc, r2, r1, lsl #20
     9d4:	00000000 	andeq	r0, r0, r0
     9d8:	00853800 	addeq	r3, r5, r0, lsl #16
     9dc:	00036800 	andeq	r6, r3, r0, lsl #16
     9e0:	00028100 	andeq	r8, r2, r0, lsl #2
     9e4:	05040200 	streq	r0, [r4, #-512]	; 0x200
     9e8:	00746e69 	rsbseq	r6, r4, r9, ror #28
     9ec:	af070403 	svcge	0x00070403
     9f0:	03000000 	movweq	r0, #0
     9f4:	01900601 	orrseq	r0, r0, r1, lsl #12
     9f8:	02030000 	andeq	r0, r3, #0
     9fc:	0001b205 	andeq	fp, r1, r5, lsl #4
     a00:	05040300 	streq	r0, [r4, #-768]	; 0x300
     a04:	000000d0 	ldrdeq	r0, [r0], -r0	; <UNPREDICTABLE>
     a08:	cb050803 	blgt	142a1c <__bss_end__+0x135f9c>
     a0c:	03000000 	movweq	r0, #0
     a10:	018e0801 	orreq	r0, lr, r1, lsl #16
     a14:	02030000 	andeq	r0, r3, #0
     a18:	00012d07 	andeq	r2, r1, r7, lsl #26
     a1c:	01d60400 	bicseq	r0, r6, r0, lsl #8
     a20:	34030000 	strcc	r0, [r3], #-0
     a24:	00000068 	andeq	r0, r0, r8, rrx
     a28:	aa070403 	bge	1c1a3c <__bss_end__+0x1b4fbc>
     a2c:	03000000 	movweq	r0, #0
     a30:	00a50708 	adceq	r0, r5, r8, lsl #14
     a34:	04030000 	streq	r0, [r3], #-0
     a38:	00015207 	andeq	r5, r1, r7, lsl #4
     a3c:	03040500 	movweq	r0, #17664	; 0x4500
     a40:	01970801 	orrseq	r0, r7, r1, lsl #16
     a44:	04060000 	streq	r0, [r6], #-0
     a48:	0000008c 	andeq	r0, r0, ip, lsl #1
     a4c:	00007f07 	andeq	r7, r0, r7, lsl #30
     a50:	04720400 	ldrbteq	r0, [r2], #-1024	; 0x400
     a54:	8a020000 	bhi	80a5c <__bss_end__+0x73fdc>
     a58:	0000009c 	muleq	r0, ip, r0
     a5c:	00a20406 	adceq	r0, r2, r6, lsl #8
     a60:	b7080000 	strlt	r0, [r8, -r0]
     a64:	09000000 	stmdbeq	r0, {}	; <UNPREDICTABLE>
     a68:	000000b7 	strheq	r0, [r0], -r7
     a6c:	00005d09 	andeq	r5, r0, r9, lsl #26
     a70:	005d0900 	subseq	r0, sp, r0, lsl #18
     a74:	06000000 	streq	r0, [r0], -r0
     a78:	00005d04 	andeq	r5, r0, r4, lsl #26
     a7c:	043e0a00 	ldrteq	r0, [lr], #-2560	; 0xa00
     a80:	5f020000 	svcpl	0x00020000
     a84:	0000005d 	andeq	r0, r0, sp, asr r0
     a88:	0000d903 	andeq	sp, r0, r3, lsl #18
     a8c:	65720b00 	ldrbvs	r0, [r2, #-2816]!	; 0xb00
     a90:	5f020074 	svcpl	0x00020074
     a94:	0000005d 	andeq	r0, r0, sp, asr r0
     a98:	03be0a00 			; <UNDEFINED> instruction: 0x03be0a00
     a9c:	a6020000 	strge	r0, [r2], -r0
     aa0:	0000005d 	andeq	r0, r0, sp, asr r0
     aa4:	0000f503 	andeq	pc, r0, r3, lsl #10
     aa8:	65720b00 	ldrbvs	r0, [r2, #-2816]!	; 0xb00
     aac:	a6020074 			; <UNDEFINED> instruction: 0xa6020074
     ab0:	0000005d 	andeq	r0, r0, sp, asr r0
     ab4:	04100a00 	ldreq	r0, [r0], #-2560	; 0xa00
     ab8:	70020000 	andvc	r0, r2, r0
     abc:	0000002c 	andeq	r0, r0, ip, lsr #32
     ac0:	00010f03 	andeq	r0, r1, r3, lsl #30
     ac4:	00720c00 	rsbseq	r0, r2, r0, lsl #24
     ac8:	005d7002 	subseq	r7, sp, r2
     acc:	0a000000 	beq	ad4 <__code_start__-0x752c>
     ad0:	0000032d 	andeq	r0, r0, sp, lsr #6
     ad4:	005d1801 	subseq	r1, sp, r1, lsl #16
     ad8:	2b030000 	blcs	c0ae0 <__bss_end__+0xb4060>
     adc:	0b000001 	bleq	ae8 <__code_start__-0x7518>
     ae0:	00746572 	rsbseq	r6, r4, r2, ror r5
     ae4:	005d1801 	subseq	r1, sp, r1, lsl #16
     ae8:	0d000000 	stceq	0, cr0, [r0, #-0]
     aec:	00000498 	muleq	r0, r8, r4
     af0:	41031e01 	tstmi	r3, r1, lsl #28
     af4:	0c000001 	stceq	0, cr0, [r0], {1}
     af8:	1e010076 	mcrne	0, 0, r0, cr1, cr6, {3}
     afc:	0000005d 	andeq	r0, r0, sp, asr r0
     b00:	03700d00 	cmneq	r0, #0, 26
     b04:	26010000 	strcs	r0, [r1], -r0
     b08:	00015703 	andeq	r5, r1, r3, lsl #14
     b0c:	00760c00 	rsbseq	r0, r6, r0, lsl #24
     b10:	005d2601 	subseq	r2, sp, r1, lsl #12
     b14:	0d000000 	stceq	0, cr0, [r0, #-0]
     b18:	00000456 	andeq	r0, r0, r6, asr r4
     b1c:	6d030d01 	stcvs	13, cr0, [r3, #-4]
     b20:	0c000001 	stceq	0, cr0, [r0], {1}
     b24:	0d010076 	stceq	0, cr0, [r1, #-472]	; 0xfffffe28
     b28:	0000005d 	andeq	r0, r0, sp, asr r0
     b2c:	03f00a00 	mvnseq	r0, #0, 20
     b30:	66020000 	strvs	r0, [r2], -r0
     b34:	0000002c 	andeq	r0, r0, ip, lsr #32
     b38:	00018903 	andeq	r8, r1, r3, lsl #18
     b3c:	03ac0e00 			; <UNDEFINED> instruction: 0x03ac0e00
     b40:	67020000 	strvs	r0, [r2, -r0]
     b44:	0000005d 	andeq	r0, r0, sp, asr r0
     b48:	047c0a00 	ldrbteq	r0, [ip], #-2560	; 0xa00
     b4c:	56020000 	strpl	r0, [r2], -r0
     b50:	0000005d 	andeq	r0, r0, sp, asr r0
     b54:	0001a503 	andeq	sl, r1, r3, lsl #10
     b58:	65720b00 	ldrbvs	r0, [r2, #-2816]!	; 0xb00
     b5c:	56020074 			; <UNDEFINED> instruction: 0x56020074
     b60:	0000005d 	andeq	r0, r0, sp, asr r0
     b64:	03b60a00 			; <UNDEFINED> instruction: 0x03b60a00
     b68:	63020000 	movwvs	r0, #8192	; 0x2000
     b6c:	0000005d 	andeq	r0, r0, sp, asr r0
     b70:	0001c103 	andeq	ip, r1, r3, lsl #2
     b74:	65720b00 	ldrbvs	r0, [r2, #-2816]!	; 0xb00
     b78:	63020074 	movwvs	r0, #8308	; 0x2074
     b7c:	0000005d 	andeq	r0, r0, sp, asr r0
     b80:	031b0d00 	tsteq	fp, #0, 26
     b84:	32010000 	andcc	r0, r1, #0
     b88:	0001d703 	andeq	sp, r1, r3, lsl #14
     b8c:	00760c00 	rsbseq	r0, r6, r0, lsl #24
     b90:	005d3201 	subseq	r3, sp, r1, lsl #4
     b94:	0a000000 	beq	b9c <__code_start__-0x7464>
     b98:	0000038a 	andeq	r0, r0, sl, lsl #7
     b9c:	005d8d01 	subseq	r8, sp, r1, lsl #26
     ba0:	f3030000 	vhadd.u8	d0, d3, d0
     ba4:	0b000001 	bleq	bb0 <__code_start__-0x7450>
     ba8:	00746572 	rsbseq	r6, r4, r2, ror r5
     bac:	005d8d01 	subseq	r8, sp, r1, lsl #26
     bb0:	0d000000 	stceq	0, cr0, [r0, #-0]
     bb4:	0000034c 	andeq	r0, r0, ip, asr #6
     bb8:	09038e01 	stmdbeq	r3, {r0, r9, sl, fp, pc}
     bbc:	0c000002 	stceq	0, cr0, [r0], {2}
     bc0:	8e010076 	mcrhi	0, 0, r0, cr1, cr6, {3}
     bc4:	0000005d 	andeq	r0, r0, sp, asr r0
     bc8:	04020d00 	streq	r0, [r2], #-3328	; 0xd00
     bcc:	8c010000 	stchi	0, cr0, [r1], {-0}
     bd0:	00021f03 	andeq	r1, r2, r3, lsl #30
     bd4:	00760c00 	rsbseq	r0, r6, r0, lsl #24
     bd8:	005d8c01 	subseq	r8, sp, r1, lsl #24
     bdc:	0a000000 	beq	be4 <__code_start__-0x741c>
     be0:	00000307 	andeq	r0, r0, r7, lsl #6
     be4:	002ca902 	eoreq	sl, ip, r2, lsl #18
     be8:	39030000 	stmdbcc	r3, {}	; <UNPREDICTABLE>
     bec:	0b000002 	bleq	bfc <__code_start__-0x7404>
     bf0:	aa020072 	bge	80dc0 <__bss_end__+0x74340>
     bf4:	0000002c 	andeq	r0, r0, ip, lsr #32
     bf8:	03b50a00 			; <UNDEFINED> instruction: 0x03b50a00
     bfc:	97020000 	strls	r0, [r2, -r0]
     c00:	0000005d 	andeq	r0, r0, sp, asr r0
     c04:	00025503 	andeq	r5, r2, r3, lsl #10
     c08:	65720b00 	ldrbvs	r0, [r2, #-2816]!	; 0xb00
     c0c:	97020074 	smlsdxls	r2, r4, r0, r0
     c10:	0000005d 	andeq	r0, r0, sp, asr r0
     c14:	03630f00 	cmneq	r3, #0, 30
     c18:	36010000 	strcc	r0, [r1], -r0
     c1c:	00008538 	andeq	r8, r0, r8, lsr r5
     c20:	000000b0 	strheq	r0, [r0], -r0	; <UNPREDICTABLE>
     c24:	04309c01 	ldrteq	r9, [r0], #-3073	; 0xc01
     c28:	66100000 	ldrvs	r0, [r0], -r0
     c2c:	01000000 	mrseq	r0, (UNDEF: 0)
     c30:	00007d36 	andeq	r7, r0, r6, lsr sp
     c34:	00016700 	andeq	r6, r1, r0, lsl #14
     c38:	04b61000 	ldrteq	r1, [r6], #0
     c3c:	36010000 	strcc	r0, [r1], -r0
     c40:	00000091 	muleq	r0, r1, r0
     c44:	000001ac 	andeq	r0, r0, ip, lsr #3
     c48:	00032411 	andeq	r2, r3, r1, lsl r4
     c4c:	5d390100 	ldfpls	f0, [r9, #-0]
     c50:	f1000000 	cps	#0
     c54:	12000001 	andne	r0, r0, #1
     c58:	00000117 	andeq	r0, r0, r7, lsl r1
     c5c:	00000440 	andeq	r0, r0, r0, asr #8
     c60:	a07c0305 	rsbsge	r0, ip, r5, lsl #6
     c64:	5a110000 	bpl	440c6c <__bss_end__+0x4341ec>
     c68:	01000003 	tsteq	r0, r3
     c6c:	00005d43 	andeq	r5, r0, r3, asr #26
     c70:	00021d00 	andeq	r1, r2, r0, lsl #26
     c74:	010f1300 	mrseq	r1, SP_hyp
     c78:	85400000 	strbhi	r0, [r0, #-0]
     c7c:	00040000 	andeq	r0, r4, r0
     c80:	39010000 	stmdbcc	r1, {}	; <UNPREDICTABLE>
     c84:	000002dc 	ldrdeq	r0, [r0], -ip
     c88:	00854014 	addeq	r4, r5, r4, lsl r0
     c8c:	00000400 	andeq	r0, r0, r0, lsl #8
     c90:	011f1500 	tsteq	pc, r0, lsl #10
     c94:	02490000 	subeq	r0, r9, #0
     c98:	00000000 	andeq	r0, r0, r0
     c9c:	00012b13 	andeq	r2, r1, r3, lsl fp
     ca0:	00854800 	addeq	r4, r5, r0, lsl #16
     ca4:	00000400 	andeq	r0, r0, r0, lsl #8
     ca8:	f93f0100 			; <UNDEFINED> instruction: 0xf93f0100
     cac:	16000002 	strne	r0, [r0], -r2
     cb0:	00000137 	andeq	r0, r0, r7, lsr r1
     cb4:	0000025c 	andeq	r0, r0, ip, asr r2
     cb8:	010f1300 	mrseq	r1, SP_hyp
     cbc:	854c0000 	strbhi	r0, [ip, #-0]
     cc0:	00040000 	andeq	r0, r4, r0
     cc4:	41010000 	mrsmi	r0, (UNDEF: 1)
     cc8:	00000320 	andeq	r0, r0, r0, lsr #6
     ccc:	00854c14 	addeq	r4, r5, r4, lsl ip
     cd0:	00000400 	andeq	r0, r0, r0, lsl #8
     cd4:	011f1500 	tsteq	pc, r0, lsl #10
     cd8:	027a0000 	rsbseq	r0, sl, #0
     cdc:	00000000 	andeq	r0, r0, r0
     ce0:	00014113 	andeq	r4, r1, r3, lsl r1
     ce4:	00857c00 	addeq	r7, r5, r0, lsl #24
     ce8:	00000400 	andeq	r0, r0, r0, lsl #8
     cec:	3d460100 	stfcce	f0, [r6, #-0]
     cf0:	16000003 	strne	r0, [r0], -r3
     cf4:	0000014d 	andeq	r0, r0, sp, asr #2
     cf8:	0000021d 	andeq	r0, r0, sp, lsl r2
     cfc:	012b1300 	teqeq	fp, r0, lsl #6
     d00:	85800000 	strhi	r0, [r0]
     d04:	00080000 	andeq	r0, r8, r0
     d08:	50010000 	andpl	r0, r1, r0
     d0c:	00000358 	andeq	r0, r0, r8, asr r3
     d10:	00013717 	andeq	r3, r1, r7, lsl r7
     d14:	0001ff00 	andeq	pc, r1, r0, lsl #30
     d18:	00010f13 	andeq	r0, r1, r3, lsl pc
     d1c:	00858800 	addeq	r8, r5, r0, lsl #16
     d20:	00000400 	andeq	r0, r0, r0, lsl #8
     d24:	7f520100 	svcvc	0x00520100
     d28:	14000003 	strne	r0, [r0], #-3
     d2c:	00008588 	andeq	r8, r0, r8, lsl #11
     d30:	00000004 	andeq	r0, r0, r4
     d34:	00011f15 	andeq	r1, r1, r5, lsl pc
     d38:	00029800 	andeq	r9, r2, r0, lsl #16
     d3c:	13000000 	movwne	r0, #0
     d40:	00000157 	andeq	r0, r0, r7, asr r1
     d44:	000085b8 			; <UNDEFINED> instruction: 0x000085b8
     d48:	00000008 	andeq	r0, r0, r8
     d4c:	03995401 	orrseq	r5, r9, #16777216	; 0x1000000
     d50:	63180000 	tstvs	r8, #0
     d54:	00000001 	andeq	r0, r0, r1
     d58:	855c1900 	ldrbhi	r1, [ip, #-2304]	; 0x900
     d5c:	0baf0000 	bleq	febc0d64 <__bss_end__+0xfebb42e4>
     d60:	781a0000 	ldmdavc	sl, {}	; <UNPREDICTABLE>
     d64:	b6000085 	strlt	r0, [r0], -r5, lsl #1
     d68:	db00000b 	blle	d9c <__code_start__-0x7264>
     d6c:	1b000003 	blne	d80 <__code_start__-0x7280>
     d70:	08025301 	stmdaeq	r2, {r0, r8, r9, ip, lr}
     d74:	52011b41 	andpl	r1, r1, #66560	; 0x10400
     d78:	a07c0305 	rsbsge	r0, ip, r5, lsl #6
     d7c:	011b0000 	tsteq	fp, r0
     d80:	54030551 	strpl	r0, [r3], #-1361	; 0x551
     d84:	1b00009f 	blne	1008 <__code_start__-0x6ff8>
     d88:	03055001 	movweq	r5, #20481	; 0x5001
     d8c:	00009d70 	andeq	r9, r0, r0, ror sp
     d90:	007d021b 	rsbseq	r0, sp, fp, lsl r2
     d94:	9f640305 	svcls	0x00640305
     d98:	19000000 	stmdbne	r0, {}	; <UNPREDICTABLE>
     d9c:	0000857c 	andeq	r8, r0, ip, ror r5
     da0:	00000bcc 	andeq	r0, r0, ip, asr #23
     da4:	00859819 	addeq	r9, r5, r9, lsl r8
     da8:	000baf00 	andeq	sl, fp, r0, lsl #30
     dac:	85b41a00 	ldrhi	r1, [r4, #2560]!	; 0xa00
     db0:	0bb60000 	bleq	fed80db8 <__bss_end__+0xfed74338>
     db4:	04260000 	strteq	r0, [r6], #-0
     db8:	011b0000 	tsteq	fp, r0
     dbc:	52080253 	andpl	r0, r8, #805306373	; 0x30000005
     dc0:	0552011b 	ldrbeq	r0, [r2, #-283]	; 0x11b
     dc4:	00a07c03 	adceq	r7, r0, r3, lsl #24
     dc8:	51011b00 	tstpl	r1, r0, lsl #22
     dcc:	9f540305 	svcls	0x00540305
     dd0:	011b0000 	tsteq	fp, r0
     dd4:	70030550 	andvc	r0, r3, r0, asr r5
     dd8:	1b00009d 	blne	1054 <__code_start__-0x6fac>
     ddc:	05007d02 	streq	r7, [r0, #-3330]	; 0xd02
     de0:	009f6403 	addseq	r6, pc, r3, lsl #8
     de4:	b8190000 	ldmdalt	r9, {}	; <UNPREDICTABLE>
     de8:	cc000085 	stcgt	0, cr0, [r0], {133}	; 0x85
     dec:	0000000b 	andeq	r0, r0, fp
     df0:	00007f1c 	andeq	r7, r0, ip, lsl pc
     df4:	00044000 	andeq	r4, r4, r0
     df8:	00761d00 	rsbseq	r1, r6, r0, lsl #26
     dfc:	000c0000 	andeq	r0, ip, r0
     e00:	00043007 	andeq	r3, r4, r7
     e04:	02e60a00 	rsceq	r0, r6, #0, 20
     e08:	76020000 	strvc	r0, [r2], -r0
     e0c:	0000002c 	andeq	r0, r0, ip, lsr #32
     e10:	00046c03 	andeq	r6, r4, r3, lsl #24
     e14:	00720b00 	rsbseq	r0, r2, r0, lsl #22
     e18:	002c7702 	eoreq	r7, ip, r2, lsl #14
     e1c:	171e0000 	ldrne	r0, [lr, -r0]
     e20:	7c000001 	stcvc	0, cr0, [r0], {1}
     e24:	e6000004 	str	r0, [r0], -r4
     e28:	00000002 	andeq	r0, r0, r2
     e2c:	00007f1c 	andeq	r7, r0, ip, lsl pc
     e30:	00047c00 	andeq	r7, r4, r0, lsl #24
     e34:	00761d00 	rsbseq	r1, r6, r0, lsl #26
     e38:	00130000 	andseq	r0, r3, r0
     e3c:	00046c07 	andeq	r6, r4, r7, lsl #24
     e40:	02be0f00 	adcseq	r0, lr, #0, 30
     e44:	59010000 	stmdbpl	r1, {}	; <UNPREDICTABLE>
     e48:	000085e8 	andeq	r8, r0, r8, ror #11
     e4c:	000000dc 	ldrdeq	r0, [r0], -ip
     e50:	06b09c01 	ldrteq	r9, [r0], r1, lsl #24
     e54:	701f0000 	andsvc	r0, pc, r0
     e58:	59010063 	stmdbpl	r1, {r0, r1, r5, r6}
     e5c:	0000002c 	andeq	r0, r0, ip, lsr #32
     e60:	000002b6 			; <UNDEFINED> instruction: 0x000002b6
     e64:	00042d20 	andeq	r2, r4, r0, lsr #26
     e68:	255a0100 	ldrbcs	r0, [sl, #-256]	; 0x100
     e6c:	05000000 	streq	r0, [r0, #-0]
     e70:	00c66c03 	sbceq	r6, r6, r3, lsl #24
     e74:	01171200 	tsteq	r7, r0, lsl #4
     e78:	06c00000 	strbeq	r0, [r0], r0
     e7c:	03050000 	movweq	r0, #20480	; 0x5000
     e80:	0000a08c 	andeq	sl, r0, ip, lsl #1
     e84:	0000670e 	andeq	r6, r0, lr, lsl #14
     e88:	5d6b0100 	stfple	f0, [fp, #-0]
     e8c:	13000000 	movwne	r0, #0
     e90:	0000016d 	andeq	r0, r0, sp, ror #2
     e94:	000085f4 	strdeq	r8, [r0], -r4
     e98:	00000004 	andeq	r0, r0, r4
     e9c:	05115c01 	ldreq	r5, [r1, #-3073]	; 0xc01
     ea0:	f4140000 			; <UNDEFINED> instruction: 0xf4140000
     ea4:	04000085 	streq	r0, [r0], #-133	; 0x85
     ea8:	21000000 	mrscs	r0, (UNDEF: 0)
     eac:	0000017d 	andeq	r0, r0, sp, ror r1
     eb0:	0000bd22 	andeq	fp, r0, r2, lsr #26
     eb4:	0085f400 	addeq	pc, r5, r0, lsl #8
     eb8:	00000400 	andeq	r0, r0, r0, lsl #8
     ebc:	14670200 	strbtne	r0, [r7], #-512	; 0x200
     ec0:	000085f4 	strdeq	r8, [r0], -r4
     ec4:	00000004 	andeq	r0, r0, r4
     ec8:	0000cd21 	andeq	ip, r0, r1, lsr #26
     ecc:	00000000 	andeq	r0, r0, r0
     ed0:	04451300 	strbeq	r1, [r5], #-768	; 0x300
     ed4:	85f80000 	ldrbhi	r0, [r8, #0]!
     ed8:	002c0000 	eoreq	r0, ip, r0
     edc:	62010000 	andvs	r0, r1, #0
     ee0:	000005c4 	andeq	r0, r0, r4, asr #11
     ee4:	0085f814 	addeq	pc, r5, r4, lsl r8	; <UNPREDICTABLE>
     ee8:	00002c00 	andeq	r2, r0, r0, lsl #24
     eec:	04552100 	ldrbeq	r2, [r5], #-256	; 0x100
     ef0:	5e230000 	cdppl	0, 2, cr0, cr3, cr0, {0}
     ef4:	05000004 	streq	r0, [r0, #-4]
     ef8:	00a0a003 	adceq	sl, r0, r3
     efc:	00bd1300 	adcseq	r1, sp, r0, lsl #6
     f00:	85f80000 	ldrbhi	r0, [r8, #0]!
     f04:	00040000 	andeq	r0, r4, r0
     f08:	77020000 	strvc	r0, [r2, -r0]
     f0c:	00000564 	andeq	r0, r0, r4, ror #10
     f10:	0085f814 	addeq	pc, r5, r4, lsl r8	; <UNPREDICTABLE>
     f14:	00000400 	andeq	r0, r0, r0, lsl #8
     f18:	00cd1500 	sbceq	r1, sp, r0, lsl #10
     f1c:	032d0000 	teqeq	sp, #0
     f20:	00000000 	andeq	r0, r0, r0
     f24:	0000f513 	andeq	pc, r0, r3, lsl r5	; <UNPREDICTABLE>
     f28:	0085fc00 	addeq	pc, r5, r0, lsl #24
     f2c:	00000400 	andeq	r0, r0, r0, lsl #8
     f30:	81780200 	cmnhi	r8, r0, lsl #4
     f34:	16000005 	strne	r0, [r0], -r5
     f38:	00000105 	andeq	r0, r0, r5, lsl #2
     f3c:	0000032d 	andeq	r0, r0, sp, lsr #6
     f40:	860c1900 	strhi	r1, [ip], -r0, lsl #18
     f44:	0baf0000 	bleq	febc0f4c <__bss_end__+0xfebb44cc>
     f48:	201a0000 	andscs	r0, sl, r0
     f4c:	b6000086 	strlt	r0, [r0], -r6, lsl #1
     f50:	b900000b 	stmdblt	r0, {r0, r1, r3}
     f54:	1b000005 	blne	f70 <__code_start__-0x7090>
     f58:	08025301 	stmdaeq	r2, {r0, r8, r9, ip, lr}
     f5c:	52011b79 	andpl	r1, r1, #123904	; 0x1e400
     f60:	a0a00305 	adcge	r0, r0, r5, lsl #6
     f64:	011b0000 	tsteq	fp, r0
     f68:	b4030551 	strlt	r0, [r3], #-1361	; 0x551
     f6c:	1b00009f 	blne	11f0 <__code_start__-0x6e10>
     f70:	03055001 	movweq	r5, #20481	; 0x5001
     f74:	00009f7c 	andeq	r9, r0, ip, ror pc
     f78:	86241900 	strthi	r1, [r4], -r0, lsl #18
     f7c:	0bcc0000 	bleq	ff300f84 <__bss_end__+0xff2f4504>
     f80:	00000000 	andeq	r0, r0, r0
     f84:	00018913 	andeq	r8, r1, r3, lsl r9
     f88:	00862400 	addeq	r2, r6, r0, lsl #8
     f8c:	00000400 	andeq	r0, r0, r0, lsl #8
     f90:	eb670100 	bl	19c1398 <__bss_end__+0x19b4918>
     f94:	14000005 	strne	r0, [r0], #-5
     f98:	00008624 	andeq	r8, r0, r4, lsr #12
     f9c:	00000004 	andeq	r0, r0, r4
     fa0:	00019915 	andeq	r9, r1, r5, lsl r9
     fa4:	00034000 	andeq	r4, r3, r0
     fa8:	13000000 	movwne	r0, #0
     fac:	000001a5 	andeq	r0, r0, r5, lsr #3
     fb0:	0000868c 	andeq	r8, r0, ip, lsl #13
     fb4:	00000004 	andeq	r0, r0, r4
     fb8:	060e6b01 	streq	r6, [lr], -r1, lsl #22
     fbc:	8c140000 	ldchi	0, cr0, [r4], {-0}
     fc0:	04000086 	streq	r0, [r0], #-134	; 0x86
     fc4:	21000000 	mrscs	r0, (UNDEF: 0)
     fc8:	000001b5 			; <UNDEFINED> instruction: 0x000001b5
     fcc:	38190000 	ldmdacc	r9, {}	; <UNPREDICTABLE>
     fd0:	af000086 	svcge	0x00000086
     fd4:	1a00000b 	bne	1008 <__code_start__-0x6ff8>
     fd8:	00008654 	andeq	r8, r0, r4, asr r6
     fdc:	00000bb6 			; <UNDEFINED> instruction: 0x00000bb6
     fe0:	00000650 	andeq	r0, r0, r0, asr r6
     fe4:	0253011b 	subseq	r0, r3, #-1073741818	; 0xc0000006
     fe8:	011b6708 	tsteq	fp, r8, lsl #14
     fec:	8c030552 	cfstr32hi	mvfx0, [r3], {82}	; 0x52
     ff0:	1b0000a0 	blne	1278 <__code_start__-0x6d88>
     ff4:	03055101 	movweq	r5, #20737	; 0x5101
     ff8:	00009f54 	andeq	r9, r0, r4, asr pc
     ffc:	0550011b 	ldrbeq	r0, [r0, #-283]	; 0x11b
    1000:	009d7003 	addseq	r7, sp, r3
    1004:	7d021b00 	vstrvc	d1, [r2, #-0]
    1008:	c4030500 	strgt	r0, [r3], #-1280	; 0x500
    100c:	0000009f 	muleq	r0, pc, r0	; <UNPREDICTABLE>
    1010:	00865819 	addeq	r5, r6, r9, lsl r8
    1014:	000bcc00 	andeq	ip, fp, r0, lsl #24
    1018:	866c1900 	strbthi	r1, [ip], -r0, lsl #18
    101c:	0baf0000 	bleq	febc1024 <__bss_end__+0xfebb45a4>
    1020:	881a0000 	ldmdahi	sl, {}	; <UNPREDICTABLE>
    1024:	b6000086 	strlt	r0, [r0], -r6, lsl #1
    1028:	9b00000b 	blls	105c <__code_start__-0x6fa4>
    102c:	1b000006 	blne	104c <__code_start__-0x6fb4>
    1030:	08025301 	stmdaeq	r2, {r0, r8, r9, ip, lr}
    1034:	52011b69 	andpl	r1, r1, #107520	; 0x1a400
    1038:	a08c0305 	addge	r0, ip, r5, lsl #6
    103c:	011b0000 	tsteq	fp, r0
    1040:	54030551 	strpl	r0, [r3], #-1361	; 0x551
    1044:	1b00009f 	blne	12c8 <__code_start__-0x6d38>
    1048:	03055001 	movweq	r5, #20481	; 0x5001
    104c:	00009d70 	andeq	r9, r0, r0, ror sp
    1050:	007d021b 	rsbseq	r0, sp, fp, lsl r2
    1054:	9fd80305 	svcls	0x00d80305
    1058:	19000000 	stmdbne	r0, {}	; <UNPREDICTABLE>
    105c:	0000868c 	andeq	r8, r0, ip, lsl #13
    1060:	00000bcc 	andeq	r0, r0, ip, asr #23
    1064:	00869824 	addeq	r9, r6, r4, lsr #16
    1068:	50011b00 	andpl	r1, r1, r0, lsl #22
    106c:	00003001 	andeq	r3, r0, r1
    1070:	00007f1c 	andeq	r7, r0, ip, lsl pc
    1074:	0006c000 	andeq	ip, r6, r0
    1078:	00761d00 	rsbseq	r1, r6, r0, lsl #26
    107c:	00110000 	andseq	r0, r1, r0
    1080:	0006b007 	andeq	fp, r6, r7
    1084:	04210f00 	strteq	r0, [r1], #-3840	; 0xf00
    1088:	72010000 	andvc	r0, r1, #0
    108c:	000086c4 	andeq	r8, r0, r4, asr #13
    1090:	0000003c 	andeq	r0, r0, ip, lsr r0
    1094:	07359c01 	ldreq	r9, [r5, -r1, lsl #24]!
    1098:	36200000 	strtcc	r0, [r0], -r0
    109c:	01000003 	tsteq	r0, r3
    10a0:	00002573 	andeq	r2, r0, r3, ror r5
    10a4:	70030500 	andvc	r0, r3, r0, lsl #10
    10a8:	250000c6 	strcs	r0, [r0, #-198]	; 0xc6
    10ac:	7c010076 	stcvc	0, cr0, [r1], {118}	; 0x76
    10b0:	0000005d 	andeq	r0, r0, sp, asr r0
    10b4:	c1138000 	tstgt	r3, r0
    10b8:	e8000001 	stmda	r0, {r0}
    10bc:	08000086 	stmdaeq	r0, {r1, r2, r7}
    10c0:	01000000 	mrseq	r0, (UNDEF: 0)
    10c4:	0007117e 	andeq	r1, r7, lr, ror r1
    10c8:	01cd1700 	biceq	r1, sp, r0, lsl #14
    10cc:	80000000 	andhi	r0, r0, r0
    10d0:	01571300 	cmpeq	r7, r0, lsl #6
    10d4:	86f00000 	ldrbthi	r0, [r0], r0
    10d8:	00100000 	andseq	r0, r0, r0
    10dc:	80010000 	andhi	r0, r1, r0
    10e0:	0000072b 	andeq	r0, r0, fp, lsr #14
    10e4:	00016318 	andeq	r6, r1, r8, lsl r3
    10e8:	19000000 	stmdbne	r0, {}	; <UNPREDICTABLE>
    10ec:	000086dc 	ldrdeq	r8, [r0], -ip
    10f0:	00000bd3 	ldrdeq	r0, [r0], -r3
    10f4:	048d0f00 	streq	r0, [sp], #3840	; 0xf00
    10f8:	a8010000 	stmdage	r1, {}	; <UNPREDICTABLE>
    10fc:	00008700 	andeq	r8, r0, r0, lsl #14
    1100:	00000034 	andeq	r0, r0, r4, lsr r0
    1104:	08119c01 	ldmdaeq	r1, {r0, sl, fp, ip, pc}
    1108:	67260000 	strvs	r0, [r6, -r0]!
    110c:	01000000 	mrseq	r0, (UNDEF: 0)
    1110:	00005da8 	andeq	r5, r0, r8, lsr #27
    1114:	26500100 	ldrbcs	r0, [r0], -r0, lsl #2
    1118:	000004b6 			; <UNDEFINED> instruction: 0x000004b6
    111c:	0091a801 	addseq	sl, r1, r1, lsl #16
    1120:	51010000 	mrspl	r0, (UNDEF: 1)
    1124:	00046911 	andeq	r6, r4, r1, lsl r9
    1128:	5da90100 	stfpls	f0, [r9]
    112c:	6d000000 	stcvs	0, cr0, [r0, #-0]
    1130:	20000003 	andcs	r0, r0, r3
    1134:	00000435 	andeq	r0, r0, r5, lsr r4
    1138:	005db101 	subseq	fp, sp, r1, lsl #2
    113c:	50010000 	andpl	r0, r1, r0
    1140:	0001d713 	andeq	sp, r1, r3, lsl r7
    1144:	00870000 	addeq	r0, r7, r0
    1148:	00000400 	andeq	r0, r0, r0, lsl #8
    114c:	a7a90100 	strge	r0, [r9, r0, lsl #2]!
    1150:	14000007 	strne	r0, [r0], #-7
    1154:	00008700 	andeq	r8, r0, r0, lsl #14
    1158:	00000004 	andeq	r0, r0, r4
    115c:	0001e715 	andeq	lr, r1, r5, lsl r7
    1160:	00038e00 	andeq	r8, r3, r0, lsl #28
    1164:	13000000 	movwne	r0, #0
    1168:	000001f3 	strdeq	r0, [r0], -r3
    116c:	00008708 	andeq	r8, r0, r8, lsl #14
    1170:	00000004 	andeq	r0, r0, r4
    1174:	07c4af01 	strbeq	sl, [r4, r1, lsl #30]
    1178:	ff160000 			; <UNDEFINED> instruction: 0xff160000
    117c:	a1000001 	tstge	r0, r1
    1180:	00000003 	andeq	r0, r0, r3
    1184:	00020913 	andeq	r0, r2, r3, lsl r9
    1188:	00870c00 	addeq	r0, r7, r0, lsl #24
    118c:	00000400 	andeq	r0, r0, r0, lsl #8
    1190:	dfb40100 	svcle	0x00b40100
    1194:	27000007 	strcs	r0, [r0, -r7]
    1198:	00000215 	andeq	r0, r0, r5, lsl r2
    119c:	13005001 	movwne	r5, #1
    11a0:	000001f3 	strdeq	r0, [r0], -r3
    11a4:	00008710 	andeq	r8, r0, r0, lsl r7
    11a8:	00000008 	andeq	r0, r0, r8
    11ac:	07fabe01 	ldrbeq	fp, [sl, r1, lsl #28]!
    11b0:	ff170000 			; <UNDEFINED> instruction: 0xff170000
    11b4:	e7000001 	str	r0, [r0, -r1]
    11b8:	57220001 	strpl	r0, [r2, -r1]!
    11bc:	18000001 	stmdane	r0, {r0}
    11c0:	08000087 	stmdaeq	r0, {r0, r1, r2, r7}
    11c4:	01000000 	mrseq	r0, (UNDEF: 0)
    11c8:	016318bf 	strheq	r1, [r3, #-143]!	; 0xffffff71
    11cc:	00000000 	andeq	r0, r0, r0
    11d0:	02d00f00 	sbcseq	r0, r0, #0, 30
    11d4:	c4010000 	strgt	r0, [r1], #-0
    11d8:	00008734 	andeq	r8, r0, r4, lsr r7
    11dc:	00000098 	muleq	r0, r8, r0
    11e0:	09449c01 	stmdbeq	r4, {r0, sl, fp, ip, pc}^
    11e4:	701f0000 	andsvc	r0, pc, r0
    11e8:	c4010063 	strgt	r0, [r1], #-99	; 0x63
    11ec:	0000002c 	andeq	r0, r0, ip, lsr #32
    11f0:	000003b4 			; <UNDEFINED> instruction: 0x000003b4
    11f4:	00011712 	andeq	r1, r1, r2, lsl r7
    11f8:	00095400 	andeq	r5, r9, r0, lsl #8
    11fc:	b4030500 	strlt	r0, [r3], #-1280	; 0x500
    1200:	130000a0 	movwne	r0, #160	; 0xa0
    1204:	0000021f 	andeq	r0, r0, pc, lsl r2
    1208:	00008740 	andeq	r8, r0, r0, asr #14
    120c:	00000008 	andeq	r0, r0, r8
    1210:	0889c601 	stmeq	r9, {r0, r9, sl, lr, pc}
    1214:	40140000 	andsmi	r0, r4, r0
    1218:	08000087 	stmdaeq	r0, {r0, r1, r2, r7}
    121c:	21000000 	mrscs	r0, (UNDEF: 0)
    1220:	0000022f 	andeq	r0, r0, pc, lsr #4
    1224:	0000d922 	andeq	sp, r0, r2, lsr #18
    1228:	00874000 	addeq	r4, r7, r0
    122c:	00000400 	andeq	r0, r0, r0, lsl #8
    1230:	14aa0200 	strtne	r0, [sl], #512	; 0x200
    1234:	00008740 	andeq	r8, r0, r0, asr #14
    1238:	00000004 	andeq	r0, r0, r4
    123c:	0000e915 	andeq	lr, r0, r5, lsl r9
    1240:	00041200 	andeq	r1, r4, r0, lsl #4
    1244:	00000000 	andeq	r0, r0, r0
    1248:	02391300 	eorseq	r1, r9, #0, 6
    124c:	87a00000 	strhi	r0, [r0, r0]!
    1250:	00040000 	andeq	r0, r4, r0
    1254:	ca010000 	bgt	4125c <__bss_end__+0x347dc>
    1258:	000008ac 	andeq	r0, r0, ip, lsr #17
    125c:	0087a014 	addeq	sl, r7, r4, lsl r0
    1260:	00000400 	andeq	r0, r0, r0, lsl #8
    1264:	02492100 	subeq	r2, r9, #0, 2
    1268:	00000000 	andeq	r0, r0, r0
    126c:	00875419 	addeq	r5, r7, r9, lsl r4
    1270:	000baf00 	andeq	sl, fp, r0, lsl #30
    1274:	87681a00 	strbhi	r1, [r8, -r0, lsl #20]!
    1278:	0bb60000 	bleq	fed81280 <__bss_end__+0xfed74800>
    127c:	08e40000 	stmiaeq	r4!, {}^	; <UNPREDICTABLE>
    1280:	011b0000 	tsteq	fp, r0
    1284:	c7080253 	smlsdgt	r8, r3, r2, r0
    1288:	0552011b 	ldrbeq	r0, [r2, #-283]	; 0x11b
    128c:	00a0b403 	adceq	fp, r0, r3, lsl #8
    1290:	51011b00 	tstpl	r1, r0, lsl #22
    1294:	9f540305 	svcls	0x00540305
    1298:	011b0000 	tsteq	fp, r0
    129c:	ec030550 	cfstr32	mvfx0, [r3], {80}	; 0x50
    12a0:	0000009f 	muleq	r0, pc, r0	; <UNPREDICTABLE>
    12a4:	00876c19 	addeq	r6, r7, r9, lsl ip
    12a8:	000bcc00 	andeq	ip, fp, r0, lsl #24
    12ac:	87801900 	strhi	r1, [r0, r0, lsl #18]
    12b0:	0baf0000 	bleq	febc12b8 <__bss_end__+0xfebb4838>
    12b4:	9c1a0000 	ldcls	0, cr0, [sl], {-0}
    12b8:	b6000087 	strlt	r0, [r0], -r7, lsl #1
    12bc:	2f00000b 	svccs	0x0000000b
    12c0:	1b000009 	blne	12ec <__code_start__-0x6d14>
    12c4:	08025301 	stmdaeq	r2, {r0, r8, r9, ip, lr}
    12c8:	52011bc8 	andpl	r1, r1, #200, 22	; 0x32000
    12cc:	a0b40305 	adcsge	r0, r4, r5, lsl #6
    12d0:	011b0000 	tsteq	fp, r0
    12d4:	54030551 	strpl	r0, [r3], #-1361	; 0x551
    12d8:	1b00009f 	blne	155c <__code_start__-0x6aa4>
    12dc:	03055001 	movweq	r5, #20481	; 0x5001
    12e0:	00009d70 	andeq	r9, r0, r0, ror sp
    12e4:	007d021b 	rsbseq	r0, sp, fp, lsl r2
    12e8:	a0240305 	eorge	r0, r4, r5, lsl #6
    12ec:	19000000 	stmdbne	r0, {}	; <UNPREDICTABLE>
    12f0:	000087a0 	andeq	r8, r0, r0, lsr #15
    12f4:	00000bcc 	andeq	r0, r0, ip, asr #23
    12f8:	0087ac24 	addeq	sl, r7, r4, lsr #24
    12fc:	50011b00 	andpl	r1, r1, r0, lsl #22
    1300:	00003001 	andeq	r3, r0, r1
    1304:	00007f1c 	andeq	r7, r0, ip, lsl pc
    1308:	00095400 	andeq	r5, r9, r0, lsl #8
    130c:	00761d00 	rsbseq	r1, r6, r0, lsl #26
    1310:	00150000 	andseq	r0, r5, r0
    1314:	00094407 	andeq	r4, r9, r7, lsl #8
    1318:	07fb0f00 	ldrbeq	r0, [fp, r0, lsl #30]!
    131c:	cd010000 	stcgt	0, cr0, [r1, #-0]
    1320:	000087cc 	andeq	r8, r0, ip, asr #15
    1324:	00000004 	andeq	r0, r0, r4
    1328:	097b9c01 	ldmdbeq	fp!, {r0, sl, fp, ip, pc}^
    132c:	70280000 	eorvc	r0, r8, r0
    1330:	cd010063 	stcgt	0, cr0, [r1, #-396]	; 0xfffffe74
    1334:	0000002c 	andeq	r0, r0, ip, lsr #32
    1338:	0f005001 	svceq	0x00005001
    133c:	00000379 	andeq	r0, r0, r9, ror r3
    1340:	87d0d801 	ldrbhi	sp, [r0, r1, lsl #16]
    1344:	002c0000 	eoreq	r0, ip, r0
    1348:	9c010000 	stcls	0, cr0, [r1], {-0}
    134c:	000009e1 	andeq	r0, r0, r1, ror #19
    1350:	00011712 	andeq	r1, r1, r2, lsl r7
    1354:	0009f100 	andeq	pc, r9, r0, lsl #2
    1358:	cc030500 	cfstr32gt	mvfx0, [r3], {-0}
    135c:	190000a0 	stmdbne	r0, {r5, r7}
    1360:	000087d8 	ldrdeq	r8, [r0], -r8	; <UNPREDICTABLE>
    1364:	00000baf 	andeq	r0, r0, pc, lsr #23
    1368:	0087ec1a 	addeq	lr, r7, sl, lsl ip
    136c:	000bb600 	andeq	fp, fp, r0, lsl #12
    1370:	0009d700 	andeq	sp, r9, r0, lsl #14
    1374:	53011b00 	movwpl	r1, #6912	; 0x1b00
    1378:	1bd90802 	blne	ff643388 <__bss_end__+0xff636908>
    137c:	03055201 	movweq	r5, #20993	; 0x5201
    1380:	0000a0cc 	andeq	sl, r0, ip, asr #1
    1384:	0551011b 	ldrbeq	r0, [r1, #-283]	; 0x11b
    1388:	009f5403 	addseq	r5, pc, r3, lsl #8
    138c:	50011b00 	andpl	r1, r1, r0, lsl #22
    1390:	a0340305 	eorsge	r0, r4, r5, lsl #6
    1394:	19000000 	stmdbne	r0, {}	; <UNPREDICTABLE>
    1398:	000087f0 	strdeq	r8, [r0], -r0
    139c:	00000bcc 	andeq	r0, r0, ip, asr #23
    13a0:	007f1c00 	rsbseq	r1, pc, r0, lsl #24
    13a4:	09f10000 	ldmibeq	r1!, {}^	; <UNPREDICTABLE>
    13a8:	761d0000 	ldrvc	r0, [sp], -r0
    13ac:	10000000 	andne	r0, r0, r0
    13b0:	09e10700 	stmibeq	r1!, {r8, r9, sl}^
    13b4:	980f0000 	stmdals	pc, {}	; <UNPREDICTABLE>
    13b8:	01000003 	tsteq	r0, r3
    13bc:	0087fcdc 	ldrdeq	pc, [r7], ip
    13c0:	00003400 	andeq	r3, r0, r0, lsl #8
    13c4:	d49c0100 	ldrle	r0, [ip], #256	; 0x100
    13c8:	2600000a 	strcs	r0, [r0], -sl
    13cc:	00000067 	andeq	r0, r0, r7, rrx
    13d0:	005ddc01 	subseq	sp, sp, r1, lsl #24
    13d4:	50010000 	andpl	r0, r1, r0
    13d8:	0004b626 	andeq	fp, r4, r6, lsr #12
    13dc:	91dc0100 	bicsls	r0, ip, r0, lsl #2
    13e0:	01000000 	mrseq	r0, (UNDEF: 0)
    13e4:	04691151 	strbteq	r1, [r9], #-337	; 0x151
    13e8:	dd010000 	stcle	0, cr0, [r1, #-0]
    13ec:	0000005d 	andeq	r0, r0, sp, asr r0
    13f0:	00000425 	andeq	r0, r0, r5, lsr #8
    13f4:	00043520 	andeq	r3, r4, r0, lsr #10
    13f8:	5de50100 	stfple	f0, [r5]
    13fc:	01000000 	mrseq	r0, (UNDEF: 0)
    1400:	01d71350 	bicseq	r1, r7, r0, asr r3
    1404:	87fc0000 	ldrbhi	r0, [ip, r0]!
    1408:	00040000 	andeq	r0, r4, r0
    140c:	dd010000 	stcle	0, cr0, [r1, #-0]
    1410:	00000a68 	andeq	r0, r0, r8, ror #20
    1414:	0087fc14 	addeq	pc, r7, r4, lsl ip	; <UNPREDICTABLE>
    1418:	00000400 	andeq	r0, r0, r0, lsl #8
    141c:	01e71500 	mvneq	r1, r0, lsl #10
    1420:	04480000 	strbeq	r0, [r8], #-0
    1424:	00000000 	andeq	r0, r0, r0
    1428:	0001f313 	andeq	pc, r1, r3, lsl r3	; <UNPREDICTABLE>
    142c:	00880400 	addeq	r0, r8, r0, lsl #8
    1430:	00000400 	andeq	r0, r0, r0, lsl #8
    1434:	85e30100 	strbhi	r0, [r3, #256]!	; 0x100
    1438:	1600000a 	strne	r0, [r0], -sl
    143c:	000001ff 	strdeq	r0, [r0], -pc	; <UNPREDICTABLE>
    1440:	0000045b 	andeq	r0, r0, fp, asr r4
    1444:	02091300 	andeq	r1, r9, #0, 6
    1448:	88080000 	stmdahi	r8, {}	; <UNPREDICTABLE>
    144c:	00040000 	andeq	r0, r4, r0
    1450:	e8010000 	stmda	r1, {}	; <UNPREDICTABLE>
    1454:	00000aa0 	andeq	r0, r0, r0, lsr #21
    1458:	00021527 	andeq	r1, r2, r7, lsr #10
    145c:	00500100 	subseq	r0, r0, r0, lsl #2
    1460:	0001f313 	andeq	pc, r1, r3, lsl r3	; <UNPREDICTABLE>
    1464:	00880c00 	addeq	r0, r8, r0, lsl #24
    1468:	00000800 	andeq	r0, r0, r0, lsl #16
    146c:	bdf20100 	ldflte	f0, [r2]
    1470:	2900000a 	stmdbcs	r0, {r1, r3}
    1474:	000001ff 	strdeq	r0, [r0], -pc	; <UNPREDICTABLE>
    1478:	004001e7 	subeq	r0, r0, r7, ror #3
    147c:	01572200 	cmpeq	r7, r0, lsl #4
    1480:	88140000 	ldmdahi	r4, {}	; <UNPREDICTABLE>
    1484:	00080000 	andeq	r0, r8, r0
    1488:	f3010000 	vhadd.u8	d0, d1, d0
    148c:	00016318 	andeq	r6, r1, r8, lsl r3
    1490:	00000000 	andeq	r0, r0, r0
    1494:	0003d80f 	andeq	sp, r3, pc, lsl #16
    1498:	30f80100 	rscscc	r0, r8, r0, lsl #2
    149c:	10000088 	andne	r0, r0, r8, lsl #1
    14a0:	01000000 	mrseq	r0, (UNDEF: 0)
    14a4:	000b209c 	muleq	fp, ip, r0
    14a8:	00672600 	rsbeq	r2, r7, r0, lsl #12
    14ac:	f8010000 			; <UNDEFINED> instruction: 0xf8010000
    14b0:	0000005d 	andeq	r0, r0, sp, asr r0
    14b4:	692a5001 	stmdbvs	sl!, {r0, ip, lr}
    14b8:	01000004 	tsteq	r0, r4
    14bc:	00005df9 	strdeq	r5, [r0], -r9
    14c0:	4001e600 	andmi	lr, r1, r0, lsl #12
    14c4:	01f32b00 	mvnseq	r2, r0, lsl #22
    14c8:	88300000 	ldmdahi	r0!, {}	; <UNPREDICTABLE>
    14cc:	00100000 	andseq	r0, r0, r0
    14d0:	00010000 	andeq	r0, r1, r0
    14d4:	01ff2901 	mvnseq	r2, r1, lsl #18
    14d8:	01e60000 	mvneq	r0, r0
    14dc:	00000040 	andeq	r0, r0, r0, asr #32
    14e0:	0004472c 	andeq	r4, r4, ip, lsr #14
    14e4:	01090100 	mrseq	r0, (UNDEF: 25)
    14e8:	00000025 	andeq	r0, r0, r5, lsr #32
    14ec:	00008840 	andeq	r8, r0, r0, asr #16
    14f0:	00000060 	andeq	r0, r0, r0, rrx
    14f4:	0b7c9c01 	bleq	1f28500 <__bss_end__+0x1f1ba80>
    14f8:	702d0000 	eorvc	r0, sp, r0
    14fc:	09010063 	stmdbeq	r1, {r0, r1, r5, r6}
    1500:	00002c01 	andeq	r2, r0, r1, lsl #24
    1504:	00046e00 	andeq	r6, r4, r0, lsl #28
    1508:	30722d00 	rsbscc	r2, r2, r0, lsl #26
    150c:	01090100 	mrseq	r0, (UNDEF: 25)
    1510:	0000005d 	andeq	r0, r0, sp, asr r0
    1514:	000004da 	ldrdeq	r0, [r0], -sl
    1518:	0004852e 	andeq	r8, r4, lr, lsr #10
    151c:	010a0100 	mrseq	r0, (UNDEF: 26)
    1520:	0000005d 	andeq	r0, r0, sp, asr r0
    1524:	00000506 	andeq	r0, r0, r6, lsl #10
    1528:	00888c2f 	addeq	r8, r8, pc, lsr #24
    152c:	000bb600 	andeq	fp, fp, r0, lsl #12
    1530:	50011b00 	andpl	r1, r1, r0, lsl #22
    1534:	a0640305 	rsbge	r0, r4, r5, lsl #6
    1538:	00000000 	andeq	r0, r0, r0
    153c:	0003c720 	andeq	ip, r3, r0, lsr #14
    1540:	910b0100 	mrsls	r0, (UNDEF: 27)
    1544:	05000000 	streq	r0, [r0, #-0]
    1548:	00c66003 	sbceq	r6, r6, r3
    154c:	033d2000 	teqeq	sp, #0
    1550:	89010000 	stmdbhi	r1, {}	; <UNPREDICTABLE>
    1554:	00000091 	muleq	r0, r1, r0
    1558:	c6640305 	strbtgt	r0, [r4], -r5, lsl #6
    155c:	09300000 	ldmdbeq	r0!, {}	; <UNPREDICTABLE>
    1560:	01000001 	tsteq	r0, r1
    1564:	000025d5 	ldrdeq	r2, [r0], -r5
    1568:	68030500 	stmdavs	r3, {r8, sl}
    156c:	310000c6 	smlabtcc	r0, r6, r0, r0
    1570:	000000fa 	strdeq	r0, [r0], -sl
    1574:	56321e04 	ldrtpl	r1, [r2], -r4, lsl #28
    1578:	04000006 	streq	r0, [r0], #-6
    157c:	00002529 	andeq	r2, r0, r9, lsr #10
    1580:	000bcc00 	andeq	ip, fp, r0, lsl #24
    1584:	00860900 	addeq	r0, r6, r0, lsl #18
    1588:	00330000 	eorseq	r0, r3, r0
    158c:	00014031 	andeq	r4, r1, r1, lsr r0
    1590:	31650400 	cmncc	r5, r0, lsl #8
    1594:	000004a1 	andeq	r0, r0, r1, lsr #9
    1598:	ff003605 			; <UNDEFINED> instruction: 0xff003605
    159c:	0400000e 	streq	r0, [r0], #-14
    15a0:	00057800 	andeq	r7, r5, r0, lsl #16
    15a4:	1a010400 	bne	425ac <__bss_end__+0x35b2c>
    15a8:	01000002 	tsteq	r0, r2
    15ac:	000004c9 	andeq	r0, r0, r9, asr #9
    15b0:	00000000 	andeq	r0, r0, r0
    15b4:	000089c8 	andeq	r8, r0, r8, asr #19
    15b8:	00000770 	andeq	r0, r0, r0, ror r7
    15bc:	00000479 	andeq	r0, r0, r9, ror r4
    15c0:	69050402 	stmdbvs	r5, {r1, sl}
    15c4:	0300746e 	movweq	r7, #1134	; 0x46e
    15c8:	00af0704 	adceq	r0, pc, r4, lsl #14
    15cc:	01030000 	mrseq	r0, (UNDEF: 3)
    15d0:	00019006 	andeq	r9, r1, r6
    15d4:	05020300 	streq	r0, [r2, #-768]	; 0x300
    15d8:	000001b2 			; <UNDEFINED> instruction: 0x000001b2
    15dc:	d0050403 	andle	r0, r5, r3, lsl #8
    15e0:	03000000 	movweq	r0, #0
    15e4:	00cb0508 	sbceq	r0, fp, r8, lsl #10
    15e8:	01030000 	mrseq	r0, (UNDEF: 3)
    15ec:	00018e08 	andeq	r8, r1, r8, lsl #28
    15f0:	07020300 	streq	r0, [r2, -r0, lsl #6]
    15f4:	0000012d 	andeq	r0, r0, sp, lsr #2
    15f8:	0001d604 	andeq	sp, r1, r4, lsl #12
    15fc:	68340600 	ldmdavs	r4!, {r9, sl}
    1600:	03000000 	movweq	r0, #0
    1604:	00aa0704 	adceq	r0, sl, r4, lsl #14
    1608:	08030000 	stmdaeq	r3, {}	; <UNPREDICTABLE>
    160c:	0000a507 	andeq	sl, r0, r7, lsl #10
    1610:	07040300 	streq	r0, [r4, -r0, lsl #6]
    1614:	00000152 	andeq	r0, r0, r2, asr r1
    1618:	01030405 	tsteq	r3, r5, lsl #8
    161c:	00019708 	andeq	r9, r1, r8, lsl #14
    1620:	8c040600 	stchi	6, cr0, [r4], {-0}
    1624:	07000000 	streq	r0, [r0, -r0]
    1628:	0000007f 	andeq	r0, r0, pc, ror r0
    162c:	00047204 	andeq	r7, r4, r4, lsl #4
    1630:	9c8a0200 	sfmls	f0, 4, [sl], {0}
    1634:	06000000 	streq	r0, [r0], -r0
    1638:	0000a204 	andeq	sl, r0, r4, lsl #4
    163c:	00b70800 	adcseq	r0, r7, r0, lsl #16
    1640:	b7090000 	strlt	r0, [r9, -r0]
    1644:	09000000 	stmdbeq	r0, {}	; <UNPREDICTABLE>
    1648:	0000005d 	andeq	r0, r0, sp, asr r0
    164c:	00005d09 	andeq	r5, r0, r9, lsl #26
    1650:	04060000 	streq	r0, [r6], #-0
    1654:	0000005d 	andeq	r0, r0, sp, asr r0
    1658:	00017c0a 	andeq	r7, r1, sl, lsl #24
    165c:	0a073800 	beq	1cf664 <__bss_end__+0x1c2be4>
    1660:	0000016e 	andeq	r0, r0, lr, ror #2
    1664:	000ad70b 	andeq	sp, sl, fp, lsl #14
    1668:	6e0f0700 	cdpvs	7, 0, cr0, cr15, cr0, {0}
    166c:	00000001 	andeq	r0, r0, r1
    1670:	0700410c 	streq	r4, [r0, -ip, lsl #2]
    1674:	00018612 	andeq	r8, r1, r2, lsl r6
    1678:	420c0400 	andmi	r0, ip, #0, 8
    167c:	86130700 	ldrhi	r0, [r3], -r0, lsl #14
    1680:	08000001 	stmdaeq	r0, {r0}
    1684:	0000e50b 	andeq	lr, r0, fp, lsl #10
    1688:	86160700 	ldrhi	r0, [r6], -r0, lsl #14
    168c:	0c000001 	stceq	0, cr0, [r0], {1}
    1690:	0001e50b 	andeq	lr, r1, fp, lsl #10
    1694:	9b180700 	blls	60329c <__bss_end__+0x5f681c>
    1698:	10000001 	andne	r0, r0, r1
    169c:	0002980b 	andeq	r9, r2, fp, lsl #16
    16a0:	a11f0700 	tstge	pc, r0, lsl #14
    16a4:	14000001 	strne	r0, [r0], #-1
    16a8:	0002870b 	andeq	r8, r2, fp, lsl #14
    16ac:	a1310700 	teqge	r1, r0, lsl #14
    16b0:	18000001 	stmdane	r0, {r0}
    16b4:	0000920b 	andeq	r9, r0, fp, lsl #4
    16b8:	a6360700 	ldrtge	r0, [r6], -r0, lsl #14
    16bc:	1c000001 	stcne	0, cr0, [r0], {1}
    16c0:	0000600b 	andeq	r6, r0, fp
    16c4:	a63a0700 	ldrtge	r0, [sl], -r0, lsl #14
    16c8:	20000001 	andcs	r0, r0, r1
    16cc:	0002a20b 	andeq	sl, r2, fp, lsl #4
    16d0:	a13f0700 	teqge	pc, r0, lsl #14
    16d4:	24000001 	strcs	r0, [r0], #-1
    16d8:	00016b0b 	andeq	r6, r1, fp, lsl #22
    16dc:	2c420700 	mcrrcs	7, 0, r0, r2, cr0
    16e0:	28000000 	stmdacs	r0, {}	; <UNPREDICTABLE>
    16e4:	0001f10b 	andeq	pc, r1, fp, lsl #2
    16e8:	2c430700 	mcrrcs	7, 0, r0, r3, cr0
    16ec:	2c000000 	stccs	0, cr0, [r0], {-0}
    16f0:	0001bc0b 	andeq	fp, r1, fp, lsl #24
    16f4:	2c460700 	mcrrcs	7, 0, r0, r6, cr0
    16f8:	30000000 	andcc	r0, r0, r0
    16fc:	0000d90b 	andeq	sp, r0, fp, lsl #18
    1700:	a6480700 	strbge	r0, [r8], -r0, lsl #14
    1704:	34000001 	strcc	r0, [r0], #-1
    1708:	74040600 	strvc	r0, [r4], #-1536	; 0x600
    170c:	0d000001 	stceq	0, cr0, [r0, #-4]
    1710:	00018008 	andeq	r8, r1, r8
    1714:	01800900 	orreq	r0, r0, r0, lsl #18
    1718:	06000000 	streq	r0, [r0], -r0
    171c:	0000bd04 	andeq	fp, r0, r4, lsl #26
    1720:	75040600 	strvc	r0, [r4, #-1536]	; 0x600
    1724:	0e000001 	cdpeq	0, 0, cr0, cr0, cr1, {0}
    1728:	00000025 	andeq	r0, r0, r5, lsr #32
    172c:	0000019b 	muleq	r0, fp, r1
    1730:	00018009 	andeq	r8, r1, r9
    1734:	04060000 	streq	r0, [r6], #-0
    1738:	0000018c 	andeq	r0, r0, ip, lsl #3
    173c:	00002c0f 	andeq	r2, r0, pc, lsl #24
    1740:	005d0f00 	subseq	r0, sp, r0, lsl #30
    1744:	84040000 	strhi	r0, [r4], #-0
    1748:	07000001 	streq	r0, [r0, -r1]
    174c:	0000bd49 	andeq	fp, r0, r9, asr #26
    1750:	03be1000 			; <UNDEFINED> instruction: 0x03be1000
    1754:	a6020000 	strge	r0, [r2], -r0
    1758:	0000005d 	andeq	r0, r0, sp, asr r0
    175c:	0001d203 	andeq	sp, r1, r3, lsl #4
    1760:	65721100 	ldrbvs	r1, [r2, #-256]!	; 0x100
    1764:	a6020074 			; <UNDEFINED> instruction: 0xa6020074
    1768:	0000005d 	andeq	r0, r0, sp, asr r0
    176c:	056d1000 	strbeq	r1, [sp, #-0]!
    1770:	07050000 	streq	r0, [r5, -r0]
    1774:	00000025 	andeq	r0, r0, r5, lsr #32
    1778:	0001ee03 	andeq	lr, r1, r3, lsl #28
    177c:	05861200 	streq	r1, [r6, #512]	; 0x200
    1780:	07050000 	streq	r0, [r5, -r0]
    1784:	0000002c 	andeq	r0, r0, ip, lsr #32
    1788:	04f01000 	ldrbteq	r1, [r0], #0
    178c:	26030000 	strcs	r0, [r3], -r0
    1790:	0000005d 	andeq	r0, r0, sp, asr r0
    1794:	00020a03 	andeq	r0, r2, r3, lsl #20
    1798:	05681300 	strbeq	r1, [r8, #-768]!	; 0x300
    179c:	27030000 	strcs	r0, [r3, -r0]
    17a0:	0000005d 	andeq	r0, r0, sp, asr r0
    17a4:	03071000 	movweq	r1, #28672	; 0x7000
    17a8:	a9020000 	stmdbge	r2, {}	; <UNPREDICTABLE>
    17ac:	0000002c 	andeq	r0, r0, ip, lsr #32
    17b0:	00022403 	andeq	r2, r2, r3, lsl #8
    17b4:	00721100 	rsbseq	r1, r2, r0, lsl #2
    17b8:	002caa02 	eoreq	sl, ip, r2, lsl #20
    17bc:	14000000 	strne	r0, [r0], #-0
    17c0:	000004aa 	andeq	r0, r0, sl, lsr #9
    17c4:	89c80b01 	stmibhi	r8, {r0, r8, r9, fp}^
    17c8:	01980000 	orrseq	r0, r8, r0
    17cc:	9c010000 	stcls	0, cr0, [r1], {-0}
    17d0:	00000465 	andeq	r0, r0, r5, ror #8
    17d4:	00058115 	andeq	r8, r5, r5, lsl r1
    17d8:	b70b0100 	strlt	r0, [fp, -r0, lsl #2]
    17dc:	76000000 	strvc	r0, [r0], -r0
    17e0:	16000005 	strne	r0, [r0], -r5
    17e4:	01006370 	tsteq	r0, r0, ror r3
    17e8:	00005d0b 	andeq	r5, r0, fp, lsl #26
    17ec:	00059700 	andeq	r9, r5, r0, lsl #14
    17f0:	00671500 	rsbeq	r1, r7, r0, lsl #10
    17f4:	0b010000 	bleq	417fc <__bss_end__+0x34d7c>
    17f8:	0000005d 	andeq	r0, r0, sp, asr r0
    17fc:	000005c3 	andeq	r0, r0, r3, asr #11
    1800:	00011717 	andeq	r1, r1, r7, lsl r7
    1804:	00047500 	andeq	r7, r4, r0, lsl #10
    1808:	e4030500 	str	r0, [r3], #-1280	; 0x500
    180c:	180000a3 	stmdane	r0, {r0, r1, r5, r7}
    1810:	10010063 	andne	r0, r1, r3, rrx
    1814:	0000047a 	andeq	r0, r0, sl, ror r4
    1818:	000005e4 	andeq	r0, r0, r4, ror #11
    181c:	00020a19 	andeq	r0, r2, r9, lsl sl
    1820:	0089fc00 	addeq	pc, r9, r0, lsl #24
    1824:	00000800 	andeq	r0, r0, r0, lsl #16
    1828:	c70d0100 	strgt	r0, [sp, -r0, lsl #2]
    182c:	1a000002 	bne	183c <__code_start__-0x67c4>
    1830:	000089fc 	strdeq	r8, [r0], -ip
    1834:	00000008 	andeq	r0, r0, r8
    1838:	00021a1b 	andeq	r1, r2, fp, lsl sl
    183c:	01b61c00 			; <UNDEFINED> instruction: 0x01b61c00
    1840:	89fc0000 	ldmibhi	ip!, {}^	; <UNPREDICTABLE>
    1844:	00040000 	andeq	r0, r4, r0
    1848:	aa020000 	bge	81850 <__bss_end__+0x74dd0>
    184c:	0089fc1a 	addeq	pc, r9, sl, lsl ip	; <UNPREDICTABLE>
    1850:	00000400 	andeq	r0, r0, r0, lsl #8
    1854:	01c61d00 	biceq	r1, r6, r0, lsl #26
    1858:	05f70000 	ldrbeq	r0, [r7, #0]!
    185c:	00000000 	andeq	r0, r0, r0
    1860:	fc1e0000 	ldc2	0, cr0, [lr], {-0}
    1864:	84000089 	strhi	r0, [r0], #-137	; 0x89
    1868:	fc00000e 	stc2	0, cr0, [r0], {14}
    186c:	1f000002 	svcne	0x00000002
    1870:	3c015301 	stccc	3, cr5, [r1], {1}
    1874:	0552011f 	ldrbeq	r0, [r2, #-287]	; 0x11f
    1878:	00a3e403 	adceq	lr, r3, r3, lsl #8
    187c:	51011f00 	tstpl	r1, r0, lsl #30
    1880:	a1000305 	tstge	r0, r5, lsl #6
    1884:	011f0000 	tsteq	pc, r0
    1888:	e0030550 	and	r0, r3, r0, asr r5
    188c:	1f0000a0 	svcne	0x000000a0
    1890:	02007d02 	andeq	r7, r0, #2, 26	; 0x80
    1894:	20000075 	andcs	r0, r0, r5, ror r0
    1898:	00008a10 	andeq	r8, r0, r0, lsl sl
    189c:	00000e9a 	muleq	r0, sl, lr
    18a0:	008a241e 	addeq	r2, sl, lr, lsl r4
    18a4:	000e8400 	andeq	r8, lr, r0, lsl #8
    18a8:	00033300 	andeq	r3, r3, r0, lsl #6
    18ac:	53011f00 	movwpl	r1, #7936	; 0x1f00
    18b0:	011f3e01 	tsteq	pc, r1, lsl #28
    18b4:	e4030552 	str	r0, [r3], #-1362	; 0x552
    18b8:	1f0000a3 	svcne	0x000000a3
    18bc:	03055101 	movweq	r5, #20737	; 0x5101
    18c0:	0000a100 	andeq	sl, r0, r0, lsl #2
    18c4:	0550011f 	ldrbeq	r0, [r0, #-287]	; 0x11f
    18c8:	009fec03 	addseq	lr, pc, r3, lsl #24
    18cc:	28200000 	stmdacs	r0!, {}	; <UNPREDICTABLE>
    18d0:	a100008a 	smlabbge	r0, sl, r0, r0
    18d4:	1e00000e 	cdpne	0, 0, cr0, cr0, cr14, {0}
    18d8:	00008a50 	andeq	r8, r0, r0, asr sl
    18dc:	00000e84 	andeq	r0, r0, r4, lsl #29
    18e0:	00000359 	andeq	r0, r0, r9, asr r3
    18e4:	0251011f 	subseq	r0, r1, #-1073741817	; 0xc0000007
    18e8:	011f0075 	tsteq	pc, r5, ror r0	; <UNPREDICTABLE>
    18ec:	14030550 	strne	r0, [r3], #-1360	; 0x550
    18f0:	000000a1 	andeq	r0, r0, r1, lsr #1
    18f4:	008a581e 	addeq	r5, sl, lr, lsl r8
    18f8:	000ea800 	andeq	sl, lr, r0, lsl #16
    18fc:	00036d00 	andeq	r6, r3, r0, lsl #26
    1900:	50011f00 	andpl	r1, r1, r0, lsl #30
    1904:	00007502 	andeq	r7, r0, r2, lsl #10
    1908:	008a7c21 	addeq	r7, sl, r1, lsr #24
    190c:	00037d00 	andeq	r7, r3, r0, lsl #26
    1910:	50011f00 	andpl	r1, r1, r0, lsl #30
    1914:	00007402 	andeq	r7, r0, r2, lsl #8
    1918:	008a841e 	addeq	r8, sl, lr, lsl r4
    191c:	000e8400 	andeq	r8, lr, r0, lsl #8
    1920:	00039400 	andeq	r9, r3, r0, lsl #8
    1924:	50011f00 	andpl	r1, r1, r0, lsl #30
    1928:	a1340305 	teqge	r4, r5, lsl #6
    192c:	20000000 	andcs	r0, r0, r0
    1930:	00008a9c 	muleq	r0, ip, sl
    1934:	00000e9a 	muleq	r0, sl, lr
    1938:	008ab81e 	addeq	fp, sl, lr, lsl r8
    193c:	000e8400 	andeq	r8, lr, r0, lsl #8
    1940:	0003d600 	andeq	sp, r3, r0, lsl #12
    1944:	53011f00 	movwpl	r1, #7936	; 0x1f00
    1948:	1f210802 	svcne	0x00210802
    194c:	03055201 	movweq	r5, #20993	; 0x5201
    1950:	0000a3e4 	andeq	sl, r0, r4, ror #7
    1954:	0551011f 	ldrbeq	r0, [r1, #-287]	; 0x11f
    1958:	00a10003 	adceq	r0, r1, r3
    195c:	50011f00 	andpl	r1, r1, r0, lsl #30
    1960:	9d700305 	ldclls	3, cr0, [r0, #-20]!	; 0xffffffec
    1964:	021f0000 	andseq	r0, pc, #0
    1968:	0305007d 	movweq	r0, #20605	; 0x507d
    196c:	0000a15c 	andeq	sl, r0, ip, asr r1
    1970:	8abc2000 	bhi	fef09978 <__bss_end__+0xfeefcef8>
    1974:	0ea10000 	cdpeq	0, 10, cr0, cr1, cr0, {0}
    1978:	f01e0000 			; <UNDEFINED> instruction: 0xf01e0000
    197c:	8400008a 	strhi	r0, [r0], #-138	; 0x8a
    1980:	1500000e 	strne	r0, [r0, #-14]
    1984:	1f000004 	svcne	0x00000004
    1988:	08025301 	stmdaeq	r2, {r0, r8, r9, ip, lr}
    198c:	52011f24 	andpl	r1, r1, #36, 30	; 0x90
    1990:	a3e40305 	mvnge	r0, #335544320	; 0x14000000
    1994:	011f0000 	tsteq	pc, r0
    1998:	00030551 	andeq	r0, r3, r1, asr r5
    199c:	1f0000a1 	svcne	0x000000a1
    19a0:	03055001 	movweq	r5, #20481	; 0x5001
    19a4:	0000a180 	andeq	sl, r0, r0, lsl #3
    19a8:	007d021f 	rsbseq	r0, sp, pc, lsl r2
    19ac:	00007502 	andeq	r7, r0, r2, lsl #10
    19b0:	008afc1e 	addeq	pc, sl, lr, lsl ip	; <UNPREDICTABLE>
    19b4:	000eb900 	andeq	fp, lr, r0, lsl #18
    19b8:	00043200 	andeq	r3, r4, r0, lsl #4
    19bc:	51011f00 	tstpl	r1, r0, lsl #30
    19c0:	89c80305 	stmibhi	r8, {r0, r2, r8, r9}^
    19c4:	011f0000 	tsteq	pc, r0
    19c8:	00750250 	rsbseq	r0, r5, r0, asr r2
    19cc:	8b242200 	blhi	90a1d4 <__bss_end__+0x8fd754>
    19d0:	0e840000 	cdpeq	0, 8, cr0, cr4, cr0, {0}
    19d4:	011f0000 	tsteq	pc, r0
    19d8:	26080253 			; <UNDEFINED> instruction: 0x26080253
    19dc:	0552011f 	ldrbeq	r0, [r2, #-287]	; 0x11f
    19e0:	00a3e403 	adceq	lr, r3, r3, lsl #8
    19e4:	51011f00 	tstpl	r1, r0, lsl #30
    19e8:	a1000305 	tstge	r0, r5, lsl #6
    19ec:	011f0000 	tsteq	pc, r0
    19f0:	a8030550 	stmdage	r3, {r4, r6, r8, sl}
    19f4:	1f0000a1 	svcne	0x000000a1
    19f8:	02007d02 	andeq	r7, r0, #2, 26	; 0x80
    19fc:	00000075 	andeq	r0, r0, r5, ror r0
    1a00:	00007f23 	andeq	r7, r0, r3, lsr #30
    1a04:	00047500 	andeq	r7, r4, r0, lsl #10
    1a08:	00762400 	rsbseq	r2, r6, r0, lsl #8
    1a0c:	00130000 	andseq	r0, r3, r0
    1a10:	00046507 	andeq	r6, r4, r7, lsl #10
    1a14:	ab040600 	blge	10321c <__bss_end__+0xf679c>
    1a18:	10000001 	andne	r0, r0, r1
    1a1c:	00000532 	andeq	r0, r0, r2, lsr r5
    1a20:	005d1405 	subseq	r1, sp, r5, lsl #8
    1a24:	b4030000 	strlt	r0, [r3], #-0
    1a28:	12000004 	andne	r0, r0, #4
    1a2c:	00000568 	andeq	r0, r0, r8, ror #10
    1a30:	005d1405 	subseq	r1, sp, r5, lsl #8
    1a34:	86120000 	ldrhi	r0, [r2], -r0
    1a38:	05000005 	streq	r0, [r0, #-5]
    1a3c:	00002c14 	andeq	r2, r0, r4, lsl ip
    1a40:	01172500 	tsteq	r7, r0, lsl #10
    1a44:	04c40000 	strbeq	r0, [r4], #0
    1a48:	05320000 	ldreq	r0, [r2, #-0]!
    1a4c:	23000000 	movwcs	r0, #0
    1a50:	0000007f 	andeq	r0, r0, pc, ror r0
    1a54:	000004c4 	andeq	r0, r0, r4, asr #9
    1a58:	00007624 	andeq	r7, r0, r4, lsr #12
    1a5c:	07000800 	streq	r0, [r0, -r0, lsl #16]
    1a60:	000004b4 			; <UNDEFINED> instruction: 0x000004b4
    1a64:	00050e10 	andeq	r0, r5, r0, lsl lr
    1a68:	5d250400 	cfstrspl	mvf0, [r5, #-0]
    1a6c:	03000000 	movweq	r0, #0
    1a70:	00000518 	andeq	r0, r0, r8, lsl r5
    1a74:	04007826 	streq	r7, [r0], #-2086	; 0x826
    1a78:	00005d25 	andeq	r5, r0, r5, lsr #26
    1a7c:	626c2600 	rsbvs	r2, ip, #0, 12
    1a80:	2c250400 	cfstrscs	mvf0, [r5], #-0
    1a84:	26000000 	strcs	r0, [r0], -r0
    1a88:	04006275 	streq	r6, [r0], #-629	; 0x275
    1a8c:	00002c25 	andeq	r2, r0, r5, lsr #24
    1a90:	01172500 	tsteq	r7, r0, lsl #10
    1a94:	05180000 	ldreq	r0, [r8, #-0]
    1a98:	050e0000 	streq	r0, [lr, #-0]
    1a9c:	6e110000 	cdpvs	0, 1, cr0, cr1, cr0, {0}
    1aa0:	2c280400 	cfstrscs	mvf0, [r8], #-0
    1aa4:	13000000 	movwne	r0, #0
    1aa8:	00000509 	andeq	r0, r0, r9, lsl #10
    1aac:	002c2a04 	eoreq	r2, ip, r4, lsl #20
    1ab0:	07000000 	streq	r0, [r0, -r0]
    1ab4:	000004b4 			; <UNDEFINED> instruction: 0x000004b4
    1ab8:	00052910 	andeq	r2, r5, r0, lsl r9
    1abc:	86180500 	ldrhi	r0, [r8], -r0, lsl #10
    1ac0:	03000000 	movweq	r0, #0
    1ac4:	00000546 	andeq	r0, r0, r6, asr #10
    1ac8:	00056812 	andeq	r6, r5, r2, lsl r8
    1acc:	5d180500 	cfldr32pl	mvfx0, [r8, #-0]
    1ad0:	25000000 	strcs	r0, [r0, #-0]
    1ad4:	00000117 	andeq	r0, r0, r7, lsl r1
    1ad8:	00000546 	andeq	r0, r0, r6, asr #10
    1adc:	00000529 	andeq	r0, r0, r9, lsr #10
    1ae0:	04b40700 	ldrteq	r0, [r4], #1792	; 0x700
    1ae4:	78100000 	ldmdavc	r0, {}	; <UNPREDICTABLE>
    1ae8:	05000005 	streq	r0, [r0, #-5]
    1aec:	00005d0f 	andeq	r5, r0, pc, lsl #26
    1af0:	057f0300 	ldrbeq	r0, [pc, #-768]!	; 17f8 <__code_start__-0x6808>
    1af4:	68120000 	ldmdavs	r2, {}	; <UNPREDICTABLE>
    1af8:	05000005 	streq	r0, [r0, #-5]
    1afc:	00005d0f 	andeq	r5, r0, pc, lsl #26
    1b00:	05861300 	streq	r1, [r6, #768]	; 0x300
    1b04:	10050000 	andne	r0, r5, r0
    1b08:	0000002c 	andeq	r0, r0, ip, lsr #32
    1b0c:	00011725 	andeq	r1, r1, r5, lsr #14
    1b10:	00057f00 	andeq	r7, r5, r0, lsl #30
    1b14:	00057800 	andeq	r7, r5, r0, lsl #16
    1b18:	b4070000 	strlt	r0, [r7], #-0
    1b1c:	10000004 	andne	r0, r0, r4
    1b20:	00000555 	andeq	r0, r0, r5, asr r5
    1b24:	005d1c04 	subseq	r1, sp, r4, lsl #24
    1b28:	c8030000 	stmdagt	r3, {}	; <UNPREDICTABLE>
    1b2c:	26000005 	strcs	r0, [r0], -r5
    1b30:	1c040078 	stcne	0, cr0, [r4], {120}	; 0x78
    1b34:	0000005d 	andeq	r0, r0, sp, asr r0
    1b38:	00626c26 	rsbeq	r6, r2, r6, lsr #24
    1b3c:	002c1c04 	eoreq	r1, ip, r4, lsl #24
    1b40:	75260000 	strvc	r0, [r6, #-0]!
    1b44:	1c040062 	stcne	0, cr0, [r4], {98}	; 0x62
    1b48:	0000002c 	andeq	r0, r0, ip, lsr #32
    1b4c:	00011725 	andeq	r1, r1, r5, lsr #14
    1b50:	0005c800 	andeq	ip, r5, r0, lsl #16
    1b54:	00055500 	andeq	r5, r5, r0, lsl #10
    1b58:	006e1100 	rsbeq	r1, lr, r0, lsl #2
    1b5c:	002c1f04 	eoreq	r1, ip, r4, lsl #30
    1b60:	07000000 	streq	r0, [r0, -r0]
    1b64:	000004b4 			; <UNDEFINED> instruction: 0x000004b4
    1b68:	00051727 	andeq	r1, r5, r7, lsr #14
    1b6c:	2c2a0100 	stfcss	f0, [sl], #-0
    1b70:	60000000 	andvs	r0, r0, r0
    1b74:	e000008b 	and	r0, r0, fp, lsl #1
    1b78:	01000004 	tsteq	r0, r4
    1b7c:	000ce09c 	muleq	ip, ip, r0
    1b80:	00631600 	rsbeq	r1, r3, r0, lsl #12
    1b84:	047a2a01 	ldrbteq	r2, [sl], #-2561	; 0xa01
    1b88:	060a0000 	streq	r0, [sl], -r0
    1b8c:	4c280000 	stcmi	0, cr0, [r8], #-0
    1b90:	01000005 	tsteq	r0, r5
    1b94:	00005d2b 	andeq	r5, r0, fp, lsr #26
    1b98:	13580100 	cmpne	r8, #0, 2
    1b9c:	0000055e 	andeq	r0, r0, lr, asr r5
    1ba0:	005d2c01 	subseq	r2, sp, r1, lsl #24
    1ba4:	17170000 	ldrne	r0, [r7, -r0]
    1ba8:	f0000001 			; <UNDEFINED> instruction: 0xf0000001
    1bac:	0500000c 	streq	r0, [r0, #-12]
    1bb0:	00a3d003 	adceq	sp, r3, r3
    1bb4:	01ee1900 	mvneq	r1, r0, lsl #18
    1bb8:	8b6c0000 	blhi	1b01bc0 <__bss_end__+0x1af5140>
    1bbc:	00040000 	andeq	r0, r4, r0
    1bc0:	2b010000 	blcs	41bc8 <__bss_end__+0x35148>
    1bc4:	00000641 	andeq	r0, r0, r1, asr #12
    1bc8:	008b6c1a 	addeq	r6, fp, sl, lsl ip
    1bcc:	00000400 	andeq	r0, r0, r0, lsl #8
    1bd0:	01fe1d00 	mvnseq	r1, r0, lsl #26
    1bd4:	06360000 	ldrteq	r0, [r6], -r0
    1bd8:	00000000 	andeq	r0, r0, r0
    1bdc:	00048019 	andeq	r8, r4, r9, lsl r0
    1be0:	008b7000 	addeq	r7, fp, r0
    1be4:	00000800 	andeq	r0, r0, r0, lsl #16
    1be8:	bf2c0100 	svclt	0x002c0100
    1bec:	29000006 	stmdbcs	r0, {r1, r2}
    1bf0:	0000049b 	muleq	r0, fp, r4
    1bf4:	04902a10 	ldreq	r2, [r0], #2576	; 0xa10
    1bf8:	06360000 	ldrteq	r0, [r6], -r0
    1bfc:	701a0000 	andsvc	r0, sl, r0
    1c00:	0800008b 	stmdaeq	r0, {r0, r1, r3, r7}
    1c04:	2b000000 	blcs	1c0c <__code_start__-0x63f4>
    1c08:	000004a6 	andeq	r0, r0, r6, lsr #9
    1c0c:	a3f80305 	mvnsge	r0, #335544320	; 0x14000000
    1c10:	c91c0000 	ldmdbgt	ip, {}	; <UNPREDICTABLE>
    1c14:	70000004 	andvc	r0, r0, r4
    1c18:	0400008b 	streq	r0, [r0], #-139	; 0x8b
    1c1c:	05000000 	streq	r0, [r0, #-0]
    1c20:	04ec2916 	strbteq	r2, [ip], #2326	; 0x916
    1c24:	29040000 	stmdbcs	r4, {}	; <UNPREDICTABLE>
    1c28:	000004e2 	andeq	r0, r0, r2, ror #9
    1c2c:	04d92a00 	ldrbeq	r2, [r9], #2560	; 0xa00
    1c30:	06360000 	ldrteq	r0, [r6], -r0
    1c34:	701a0000 	andsvc	r0, sl, r0
    1c38:	0400008b 	streq	r0, [r0], #-139	; 0x8b
    1c3c:	2c000000 	stccs	0, cr0, [r0], {-0}
    1c40:	00000503 	andeq	r0, r0, r3, lsl #10
    1c44:	050c2c05 	streq	r2, [ip, #-3077]	; 0xc05
    1c48:	2b1f0000 	blcs	7c1c50 <__bss_end__+0x7b51d0>
    1c4c:	000004f6 	strdeq	r0, [r0], -r6
    1c50:	a4040305 	strge	r0, [r4], #-773	; 0x305
    1c54:	00000000 	andeq	r0, r0, r0
    1c58:	1d190000 	ldcne	0, cr0, [r9, #-0]
    1c5c:	74000005 	strvc	r0, [r0], #-5
    1c60:	1000008c 	andne	r0, r0, ip, lsl #1
    1c64:	01000001 	tsteq	r0, r1
    1c68:	00081752 	andeq	r1, r8, r2, asr r7
    1c6c:	052d2a00 	streq	r2, [sp, #-2560]!	; 0xa00
    1c70:	06490000 	strbeq	r0, [r9], -r0
    1c74:	741a0000 	ldrvc	r0, [sl], #-0
    1c78:	1000008c 	andne	r0, r0, ip, lsl #1
    1c7c:	2b000001 	blcs	1c88 <__code_start__-0x6378>
    1c80:	00000538 	andeq	r0, r0, r8, lsr r5
    1c84:	a4100305 	ldrge	r0, [r0], #-773	; 0x305
    1c88:	4b190000 	blmi	641c90 <__bss_end__+0x635210>
    1c8c:	74000005 	strvc	r0, [r0], #-5
    1c90:	6c00008c 	stcvs	0, cr0, [r0], {140}	; 0x8c
    1c94:	05000000 	streq	r0, [r0, #-0]
    1c98:	0007cd19 	andeq	ip, r7, r9, lsl sp
    1c9c:	055b2a00 	ldrbeq	r2, [fp, #-2560]	; 0xa00
    1ca0:	06490000 	strbeq	r0, [r9], -r0
    1ca4:	741a0000 	ldrvc	r0, [sl], #-0
    1ca8:	6c00008c 	stcvs	0, cr0, [r0], {140}	; 0x8c
    1cac:	1b000000 	blne	1cb4 <__code_start__-0x634c>
    1cb0:	00000566 	andeq	r0, r0, r6, ror #10
    1cb4:	0005712b 	andeq	r7, r5, fp, lsr #2
    1cb8:	1c030500 	cfstr32ne	mvfx0, [r3], {-0}
    1cbc:	190000a4 	stmdbne	r0, {r2, r5, r7}
    1cc0:	00000584 	andeq	r0, r0, r4, lsl #11
    1cc4:	00008c74 	andeq	r8, r0, r4, ror ip
    1cc8:	00000004 	andeq	r0, r0, r4
    1ccc:	07681005 	strbeq	r1, [r8, -r5]!
    1cd0:	a7290000 	strge	r0, [r9, -r0]!
    1cd4:	04000005 	streq	r0, [r0], #-5
    1cd8:	00059d29 	andeq	r9, r5, r9, lsr #26
    1cdc:	942a0000 	strtls	r0, [sl], #-0
    1ce0:	49000005 	stmdbmi	r0, {r0, r2}
    1ce4:	1a000006 	bne	1d04 <__code_start__-0x62fc>
    1ce8:	00008c74 	andeq	r8, r0, r4, ror ip
    1cec:	00000004 	andeq	r0, r0, r4
    1cf0:	0005be2c 	andeq	fp, r5, ip, lsr #28
    1cf4:	b12b0500 	teqlt	fp, r0, lsl #10
    1cf8:	05000005 	streq	r0, [r0, #-5]
    1cfc:	00a42803 	adceq	r2, r4, r3, lsl #16
    1d00:	19000000 	stmdbne	r0, {}	; <UNPREDICTABLE>
    1d04:	000001d2 	ldrdeq	r0, [r0], -r2
    1d08:	00008c78 	andeq	r8, r0, r8, ror ip
    1d0c:	0000003c 	andeq	r0, r0, ip, lsr r0
    1d10:	07811105 	streq	r1, [r1, r5, lsl #2]
    1d14:	e22d0000 	eor	r0, sp, #0
    1d18:	00000001 	andeq	r0, r0, r1
    1d1c:	008cc020 	addeq	ip, ip, r0, lsr #32
    1d20:	000e9a00 	andeq	r9, lr, r0, lsl #20
    1d24:	8cdc1e00 	ldclhi	14, cr1, [ip], {0}
    1d28:	0e840000 	cdpeq	0, 8, cr0, cr4, cr0, {0}
    1d2c:	07c20000 	strbeq	r0, [r2, r0]
    1d30:	011f0000 	tsteq	pc, r0
    1d34:	1f410153 	svcne	0x00410153
    1d38:	03055201 	movweq	r5, #20993	; 0x5201
    1d3c:	0000a41c 	andeq	sl, r0, ip, lsl r4
    1d40:	0551011f 	ldrbeq	r0, [r1, #-287]	; 0x11f
    1d44:	00a2dc03 	adceq	sp, r2, r3, lsl #24
    1d48:	50011f00 	andpl	r1, r1, r0, lsl #30
    1d4c:	9d700305 	ldclls	3, cr0, [r0, #-20]!	; 0xffffffec
    1d50:	021f0000 	andseq	r0, pc, #0
    1d54:	0305007d 	movweq	r0, #20605	; 0x507d
    1d58:	0000a2e8 	andeq	sl, r0, r8, ror #5
    1d5c:	8ce02000 	stclhi	0, cr2, [r0]
    1d60:	0ea10000 	cdpeq	0, 10, cr0, cr1, cr0, {0}
    1d64:	00000000 	andeq	r0, r0, r0
    1d68:	008d5c20 	addeq	r5, sp, r0, lsr #24
    1d6c:	000e9a00 	andeq	r9, lr, r0, lsl #20
    1d70:	8d741e00 	ldclhi	14, cr1, [r4, #-0]
    1d74:	0e840000 	cdpeq	0, 8, cr0, cr4, cr0, {0}
    1d78:	080c0000 	stmdaeq	ip, {}	; <UNPREDICTABLE>
    1d7c:	011f0000 	tsteq	pc, r0
    1d80:	21080253 	tstcs	r8, r3, asr r2
    1d84:	0552011f 	ldrbeq	r0, [r2, #-287]	; 0x11f
    1d88:	00a41003 	adceq	r1, r4, r3
    1d8c:	51011f00 	tstpl	r1, r0, lsl #30
    1d90:	a2dc0305 	sbcsge	r0, ip, #335544320	; 0x14000000
    1d94:	011f0000 	tsteq	pc, r0
    1d98:	fc030550 	stc2	5, cr0, [r3], {80}	; 0x50
    1d9c:	1f0000a2 	svcne	0x000000a2
    1da0:	02007d02 	andeq	r7, r0, #2, 26	; 0x80
    1da4:	20000078 	andcs	r0, r0, r8, ror r0
    1da8:	00008d78 	andeq	r8, r0, r8, ror sp
    1dac:	00000ea1 	andeq	r0, r0, r1, lsr #29
    1db0:	ee190000 	cdp	0, 1, cr0, cr9, cr0, {0}
    1db4:	90000001 	andls	r0, r0, r1
    1db8:	0400008d 	streq	r0, [r0], #-141	; 0x8d
    1dbc:	01000000 	mrseq	r0, (UNDEF: 0)
    1dc0:	00083e53 	andeq	r3, r8, r3, asr lr
    1dc4:	8d901a00 	vldrhi	s2, [r0]
    1dc8:	00040000 	andeq	r0, r4, r0
    1dcc:	fe1d0000 	cdp2	0, 1, cr0, cr13, cr0, {0}
    1dd0:	5c000001 	stcpl	0, cr0, [r0], {1}
    1dd4:	00000006 	andeq	r0, r0, r6
    1dd8:	051d1900 	ldreq	r1, [sp, #-2304]	; 0x900
    1ddc:	8d940000 	ldchi	0, cr0, [r4]
    1de0:	01100000 	tsteq	r0, r0
    1de4:	53010000 	movwpl	r0, #4096	; 0x1000
    1de8:	00000996 	muleq	r0, r6, r9
    1dec:	00052d2a 	andeq	r2, r5, sl, lsr #26
    1df0:	00065c00 	andeq	r5, r6, r0, lsl #24
    1df4:	8d941a00 	vldrhi	s2, [r4]
    1df8:	01100000 	tsteq	r0, r0
    1dfc:	382b0000 	stmdacc	fp!, {}	; <UNPREDICTABLE>
    1e00:	05000005 	streq	r0, [r0, #-5]
    1e04:	00a41003 	adceq	r1, r4, r3
    1e08:	054b1900 	strbeq	r1, [fp, #-2304]	; 0x900
    1e0c:	8d940000 	ldchi	0, cr0, [r4]
    1e10:	006c0000 	rsbeq	r0, ip, r0
    1e14:	19050000 	stmdbne	r5, {}	; <UNPREDICTABLE>
    1e18:	0000094c 	andeq	r0, r0, ip, asr #18
    1e1c:	00055b2a 	andeq	r5, r5, sl, lsr #22
    1e20:	00065c00 	andeq	r5, r6, r0, lsl #24
    1e24:	8d941a00 	vldrhi	s2, [r4]
    1e28:	006c0000 	rsbeq	r0, ip, r0
    1e2c:	661b0000 	ldrvs	r0, [fp], -r0
    1e30:	2b000005 	blcs	1e4c <__code_start__-0x61b4>
    1e34:	00000571 	andeq	r0, r0, r1, ror r5
    1e38:	a41c0305 	ldrge	r0, [ip], #-773	; 0x305
    1e3c:	84190000 	ldrhi	r0, [r9], #-0
    1e40:	94000005 	strls	r0, [r0], #-5
    1e44:	0400008d 	streq	r0, [r0], #-141	; 0x8d
    1e48:	05000000 	streq	r0, [r0, #-0]
    1e4c:	0008e710 	andeq	lr, r8, r0, lsl r7
    1e50:	05a72900 	streq	r2, [r7, #2304]!	; 0x900
    1e54:	29040000 	stmdbcs	r4, {}	; <UNPREDICTABLE>
    1e58:	0000059d 	muleq	r0, sp, r5
    1e5c:	05942a00 	ldreq	r2, [r4, #2560]	; 0xa00
    1e60:	065c0000 	ldrbeq	r0, [ip], -r0
    1e64:	941a0000 	ldrls	r0, [sl], #-0
    1e68:	0400008d 	streq	r0, [r0], #-141	; 0x8d
    1e6c:	2c000000 	stccs	0, cr0, [r0], {-0}
    1e70:	000005be 			; <UNDEFINED> instruction: 0x000005be
    1e74:	05b12b05 	ldreq	r2, [r1, #2821]!	; 0xb05
    1e78:	03050000 	movweq	r0, #20480	; 0x5000
    1e7c:	0000a428 	andeq	sl, r0, r8, lsr #8
    1e80:	d2190000 	andsle	r0, r9, #0
    1e84:	98000001 	stmdals	r0, {r0}
    1e88:	3c00008d 	stccc	0, cr0, [r0], {141}	; 0x8d
    1e8c:	05000000 	streq	r0, [r0, #-0]
    1e90:	00090011 	andeq	r0, r9, r1, lsl r0
    1e94:	01e22d00 	mvneq	r2, r0, lsl #26
    1e98:	20000000 	andcs	r0, r0, r0
    1e9c:	00008de0 	andeq	r8, r0, r0, ror #27
    1ea0:	00000e9a 	muleq	r0, sl, lr
    1ea4:	008dfc1e 	addeq	pc, sp, lr, lsl ip	; <UNPREDICTABLE>
    1ea8:	000e8400 	andeq	r8, lr, r0, lsl #8
    1eac:	00094100 	andeq	r4, r9, r0, lsl #2
    1eb0:	53011f00 	movwpl	r1, #7936	; 0x1f00
    1eb4:	011f4101 	tsteq	pc, r1, lsl #2
    1eb8:	1c030552 	cfstr32ne	mvfx0, [r3], {82}	; 0x52
    1ebc:	1f0000a4 	svcne	0x000000a4
    1ec0:	03055101 	movweq	r5, #20737	; 0x5101
    1ec4:	0000a2dc 	ldrdeq	sl, [r0], -ip
    1ec8:	0550011f 	ldrbeq	r0, [r0, #-287]	; 0x11f
    1ecc:	009d7003 	addseq	r7, sp, r3
    1ed0:	7d021f00 	stcvc	15, cr1, [r2, #-0]
    1ed4:	e8030500 	stmda	r3, {r8, sl}
    1ed8:	000000a2 	andeq	r0, r0, r2, lsr #1
    1edc:	008e0020 	addeq	r0, lr, r0, lsr #32
    1ee0:	000ea100 	andeq	sl, lr, r0, lsl #2
    1ee4:	20000000 	andcs	r0, r0, r0
    1ee8:	00008e7c 	andeq	r8, r0, ip, ror lr
    1eec:	00000e9a 	muleq	r0, sl, lr
    1ef0:	008e941e 	addeq	r9, lr, lr, lsl r4
    1ef4:	000e8400 	andeq	r8, lr, r0, lsl #8
    1ef8:	00098b00 	andeq	r8, r9, r0, lsl #22
    1efc:	53011f00 	movwpl	r1, #7936	; 0x1f00
    1f00:	1f210802 	svcne	0x00210802
    1f04:	03055201 	movweq	r5, #20993	; 0x5201
    1f08:	0000a410 	andeq	sl, r0, r0, lsl r4
    1f0c:	0551011f 	ldrbeq	r0, [r1, #-287]	; 0x11f
    1f10:	00a2dc03 	adceq	sp, r2, r3, lsl #24
    1f14:	50011f00 	andpl	r1, r1, r0, lsl #30
    1f18:	a2fc0305 	rscsge	r0, ip, #335544320	; 0x14000000
    1f1c:	021f0000 	andseq	r0, pc, #0
    1f20:	7502007d 	strvc	r0, [r2, #-125]	; 0x7d
    1f24:	98200000 	stmdals	r0!, {}	; <UNPREDICTABLE>
    1f28:	a100008e 	smlabbge	r0, lr, r0, r0
    1f2c:	0000000e 	andeq	r0, r0, lr
    1f30:	01ee1900 	mvneq	r1, r0, lsl #18
    1f34:	8ea40000 	cdphi	0, 10, cr0, cr4, cr0, {0}
    1f38:	00040000 	andeq	r0, r4, r0
    1f3c:	53010000 	movwpl	r0, #4096	; 0x1000
    1f40:	000009b9 			; <UNDEFINED> instruction: 0x000009b9
    1f44:	008ea41a 	addeq	sl, lr, sl, lsl r4
    1f48:	00000400 	andeq	r0, r0, r0, lsl #8
    1f4c:	01fe1b00 	mvnseq	r1, r0, lsl #22
    1f50:	00000000 	andeq	r0, r0, r0
    1f54:	00054b19 	andeq	r4, r5, r9, lsl fp
    1f58:	008eb800 	addeq	fp, lr, r0, lsl #16
    1f5c:	00006c00 	andeq	r6, r0, r0, lsl #24
    1f60:	97570100 	ldrbls	r0, [r7, -r0, lsl #2]
    1f64:	2a00000a 	bcs	1f94 <__code_start__-0x606c>
    1f68:	0000055b 	andeq	r0, r0, fp, asr r5
    1f6c:	0000066f 	andeq	r0, r0, pc, ror #12
    1f70:	008eb81a 	addeq	fp, lr, sl, lsl r8
    1f74:	00006c00 	andeq	r6, r0, r0, lsl #24
    1f78:	05661b00 	strbeq	r1, [r6, #-2816]!	; 0xb00
    1f7c:	712b0000 	teqvc	fp, r0
    1f80:	05000005 	streq	r0, [r0, #-5]
    1f84:	00a41c03 	adceq	r1, r4, r3, lsl #24
    1f88:	05841900 	streq	r1, [r4, #2304]	; 0x900
    1f8c:	8eb80000 	cdphi	0, 11, cr0, cr8, cr0, {0}
    1f90:	00040000 	andeq	r0, r4, r0
    1f94:	10050000 	andne	r0, r5, r0
    1f98:	00000a32 	andeq	r0, r0, r2, lsr sl
    1f9c:	0005a729 	andeq	sl, r5, r9, lsr #14
    1fa0:	9d290400 	cfstrsls	mvf0, [r9, #-0]
    1fa4:	00000005 	andeq	r0, r0, r5
    1fa8:	0005942a 	andeq	r9, r5, sl, lsr #8
    1fac:	00066f00 	andeq	r6, r6, r0, lsl #30
    1fb0:	8eb81a00 	vmovhi.f32	s2, #128	; 0x80
    1fb4:	00040000 	andeq	r0, r4, r0
    1fb8:	be2c0000 	cdplt	0, 2, cr0, cr12, cr0, {0}
    1fbc:	05000005 	streq	r0, [r0, #-5]
    1fc0:	0005b12b 	andeq	fp, r5, fp, lsr #2
    1fc4:	28030500 	stmdacs	r3, {r8, sl}
    1fc8:	000000a4 	andeq	r0, r0, r4, lsr #1
    1fcc:	01d21900 	bicseq	r1, r2, r0, lsl #18
    1fd0:	8ebc0000 	cdphi	0, 11, cr0, cr12, cr0, {0}
    1fd4:	003c0000 	eorseq	r0, ip, r0
    1fd8:	11050000 	mrsne	r0, (UNDEF: 5)
    1fdc:	00000a4b 	andeq	r0, r0, fp, asr #20
    1fe0:	0001e22d 	andeq	lr, r1, sp, lsr #4
    1fe4:	04200000 	strteq	r0, [r0], #-0
    1fe8:	9a00008f 	bls	222c <__code_start__-0x5dd4>
    1fec:	1e00000e 	cdpne	0, 0, cr0, cr0, cr14, {0}
    1ff0:	00008f20 	andeq	r8, r0, r0, lsr #30
    1ff4:	00000e84 	andeq	r0, r0, r4, lsl #29
    1ff8:	00000a8c 	andeq	r0, r0, ip, lsl #21
    1ffc:	0153011f 	cmpeq	r3, pc, lsl r1
    2000:	52011f41 	andpl	r1, r1, #260	; 0x104
    2004:	a41c0305 	ldrge	r0, [ip], #-773	; 0x305
    2008:	011f0000 	tsteq	pc, r0
    200c:	dc030551 	cfstr32le	mvfx0, [r3], {81}	; 0x51
    2010:	1f0000a2 	svcne	0x000000a2
    2014:	03055001 	movweq	r5, #20481	; 0x5001
    2018:	00009d70 	andeq	r9, r0, r0, ror sp
    201c:	007d021f 	rsbseq	r0, sp, pc, lsl r2
    2020:	a2e80305 	rscge	r0, r8, #335544320	; 0x14000000
    2024:	20000000 	andcs	r0, r0, r0
    2028:	00008f24 	andeq	r8, r0, r4, lsr #30
    202c:	00000ea1 	andeq	r0, r0, r1, lsr #29
    2030:	ee190000 	cdp	0, 1, cr0, cr9, cr0, {0}
    2034:	24000001 	strcs	r0, [r0], #-1
    2038:	0400008f 	streq	r0, [r0], #-143	; 0x8f
    203c:	01000000 	mrseq	r0, (UNDEF: 0)
    2040:	000abe57 	andeq	fp, sl, r7, asr lr
    2044:	8f241a00 	svchi	0x00241a00
    2048:	00040000 	andeq	r0, r4, r0
    204c:	fe1d0000 	cdp2	0, 1, cr0, cr13, cr0, {0}
    2050:	82000001 	andhi	r0, r0, #1
    2054:	00000006 	andeq	r0, r0, r6
    2058:	054b1900 	strbeq	r1, [fp, #-2304]	; 0x900
    205c:	8f280000 	svchi	0x00280000
    2060:	006c0000 	rsbeq	r0, ip, r0
    2064:	57010000 	strpl	r0, [r1, -r0]
    2068:	00000b9c 	muleq	r0, ip, fp
    206c:	00055b2a 	andeq	r5, r5, sl, lsr #22
    2070:	00068200 	andeq	r8, r6, r0, lsl #4
    2074:	8f281a00 	svchi	0x00281a00
    2078:	006c0000 	rsbeq	r0, ip, r0
    207c:	661b0000 	ldrvs	r0, [fp], -r0
    2080:	2b000005 	blcs	209c <__code_start__-0x5f64>
    2084:	00000571 	andeq	r0, r0, r1, ror r5
    2088:	a41c0305 	ldrge	r0, [ip], #-773	; 0x305
    208c:	84190000 	ldrhi	r0, [r9], #-0
    2090:	28000005 	stmdacs	r0, {r0, r2}
    2094:	0400008f 	streq	r0, [r0], #-143	; 0x8f
    2098:	05000000 	streq	r0, [r0, #-0]
    209c:	000b3710 	andeq	r3, fp, r0, lsl r7
    20a0:	05a72900 	streq	r2, [r7, #2304]!	; 0x900
    20a4:	29040000 	stmdbcs	r4, {}	; <UNPREDICTABLE>
    20a8:	0000059d 	muleq	r0, sp, r5
    20ac:	05942a00 	ldreq	r2, [r4, #2560]	; 0xa00
    20b0:	06820000 	streq	r0, [r2], r0
    20b4:	281a0000 	ldmdacs	sl, {}	; <UNPREDICTABLE>
    20b8:	0400008f 	streq	r0, [r0], #-143	; 0x8f
    20bc:	2c000000 	stccs	0, cr0, [r0], {-0}
    20c0:	000005be 			; <UNDEFINED> instruction: 0x000005be
    20c4:	05b12b05 	ldreq	r2, [r1, #2821]!	; 0xb05
    20c8:	03050000 	movweq	r0, #20480	; 0x5000
    20cc:	0000a428 	andeq	sl, r0, r8, lsr #8
    20d0:	d2190000 	andsle	r0, r9, #0
    20d4:	2c000001 	stccs	0, cr0, [r0], {1}
    20d8:	3c00008f 	stccc	0, cr0, [r0], {143}	; 0x8f
    20dc:	05000000 	streq	r0, [r0, #-0]
    20e0:	000b5011 	andeq	r5, fp, r1, lsl r0
    20e4:	01e22d00 	mvneq	r2, r0, lsl #26
    20e8:	20000000 	andcs	r0, r0, r0
    20ec:	00008f74 	andeq	r8, r0, r4, ror pc
    20f0:	00000e9a 	muleq	r0, sl, lr
    20f4:	008f901e 	addeq	r9, pc, lr, lsl r0	; <UNPREDICTABLE>
    20f8:	000e8400 	andeq	r8, lr, r0, lsl #8
    20fc:	000b9100 	andeq	r9, fp, r0, lsl #2
    2100:	53011f00 	movwpl	r1, #7936	; 0x1f00
    2104:	011f4101 	tsteq	pc, r1, lsl #2
    2108:	1c030552 	cfstr32ne	mvfx0, [r3], {82}	; 0x52
    210c:	1f0000a4 	svcne	0x000000a4
    2110:	03055101 	movweq	r5, #20737	; 0x5101
    2114:	0000a2dc 	ldrdeq	sl, [r0], -ip
    2118:	0550011f 	ldrbeq	r0, [r0, #-287]	; 0x11f
    211c:	009d7003 	addseq	r7, sp, r3
    2120:	7d021f00 	stcvc	15, cr1, [r2, #-0]
    2124:	e8030500 	stmda	r3, {r8, sl}
    2128:	000000a2 	andeq	r0, r0, r2, lsr #1
    212c:	008f9420 	addeq	r9, pc, r0, lsr #8
    2130:	000ea100 	andeq	sl, lr, r0, lsl #2
    2134:	21000000 	mrscs	r0, (UNDEF: 0)
    2138:	00008ba8 	andeq	r8, r0, r8, lsr #23
    213c:	00000bac 	andeq	r0, r0, ip, lsr #23
    2140:	0250011f 	subseq	r0, r0, #-1073741817	; 0xc0000007
    2144:	1e000074 	mcrne	0, 0, r0, cr0, cr4, {3}
    2148:	00008bd0 	ldrdeq	r8, [r0], -r0
    214c:	00000e84 	andeq	r0, r0, r4, lsl #29
    2150:	00000bd2 	ldrdeq	r0, [r0], -r2
    2154:	0253011f 	subseq	r0, r3, #-1073741817	; 0xc0000007
    2158:	011f3308 	tsteq	pc, r8, lsl #6
    215c:	00790252 	rsbseq	r0, r9, r2, asr r2
    2160:	0251011f 	subseq	r0, r1, #-1073741817	; 0xc0000007
    2164:	011f007a 	tsteq	pc, sl, ror r0	; <UNPREDICTABLE>
    2168:	007b0250 	rsbseq	r0, fp, r0, asr r2
    216c:	8bdc1e00 	blhi	ff709974 <__bss_end__+0xff6fcef4>
    2170:	0eb90000 	cdpeq	0, 11, cr0, cr9, cr0, {0}
    2174:	0beb0000 	bleq	ffac217c <__bss_end__+0xffab56fc>
    2178:	011f0000 	tsteq	pc, r0
    217c:	00750251 	rsbseq	r0, r5, r1, asr r2
    2180:	0150011f 	cmpeq	r0, pc, lsl r1
    2184:	041e0030 	ldreq	r0, [lr], #-48	; 0x30
    2188:	cf00008c 	svcgt	0x0000008c
    218c:	0500000e 	streq	r0, [r0, #-14]
    2190:	1f00000c 	svcne	0x0000000c
    2194:	74025201 	strvc	r5, [r2], #-513	; 0x201
    2198:	50011f00 	andpl	r1, r1, r0, lsl #30
    219c:	00007702 	andeq	r7, r0, r2, lsl #14
    21a0:	008c1c21 	addeq	r1, ip, r1, lsr #24
    21a4:	000c1500 	andeq	r1, ip, r0, lsl #10
    21a8:	50011f00 	andpl	r1, r1, r0, lsl #30
    21ac:	00007402 	andeq	r7, r0, r2, lsl #8
    21b0:	008c2821 	addeq	r2, ip, r1, lsr #16
    21b4:	000c2500 	andeq	r2, ip, r0, lsl #10
    21b8:	50011f00 	andpl	r1, r1, r0, lsl #30
    21bc:	00007402 	andeq	r7, r0, r2, lsl #8
    21c0:	008c401e 	addeq	r4, ip, lr, lsl r0
    21c4:	000e8400 	andeq	r8, lr, r0, lsl #8
    21c8:	000c3c00 	andeq	r3, ip, r0, lsl #24
    21cc:	50011f00 	andpl	r1, r1, r0, lsl #30
    21d0:	a2600305 	rsbge	r0, r0, #335544320	; 0x14000000
    21d4:	1e000000 	cdpne	0, 0, cr0, cr0, cr0, {0}
    21d8:	00008c74 	andeq	r8, r0, r4, ror ip
    21dc:	00000e84 	andeq	r0, r0, r4, lsl #29
    21e0:	00000c53 	andeq	r0, r0, r3, asr ip
    21e4:	0550011f 	ldrbeq	r0, [r0, #-287]	; 0x11f
    21e8:	00a2a803 	adceq	sl, r2, r3, lsl #16
    21ec:	901e0000 	andsls	r0, lr, r0
    21f0:	8400008d 	strhi	r0, [r0], #-141	; 0x8d
    21f4:	7000000e 	andvc	r0, r0, lr
    21f8:	1f00000c 	svcne	0x0000000c
    21fc:	78025201 	stmdavc	r2, {r0, r9, ip, lr}
    2200:	50011f00 	andpl	r1, r1, r0, lsl #30
    2204:	a3200305 	teqge	r0, #335544320	; 0x14000000
    2208:	1e000000 	cdpne	0, 0, cr0, cr0, cr0, {0}
    220c:	00008eb0 			; <UNDEFINED> instruction: 0x00008eb0
    2210:	00000e84 	andeq	r0, r0, r4, lsl #29
    2214:	00000c87 	andeq	r0, r0, r7, lsl #25
    2218:	0550011f 	ldrbeq	r0, [r0, #-287]	; 0x11f
    221c:	00a33c03 	adceq	r3, r3, r3, lsl #24
    2220:	b81e0000 	ldmdalt	lr, {}	; <UNPREDICTABLE>
    2224:	a800008e 	stmdage	r0, {r1, r2, r3, r7}
    2228:	9a00000e 	bls	2268 <__code_start__-0x5d98>
    222c:	1f00000c 	svcne	0x0000000c
    2230:	30015001 	andcc	r5, r1, r1
    2234:	8fa02000 	svchi	0x00a02000
    2238:	0e9a0000 	cdpeq	0, 9, cr0, cr10, cr0, {0}
    223c:	bc1e0000 	ldclt	0, cr0, [lr], {-0}
    2240:	8400008f 	strhi	r0, [r0], #-143	; 0x8f
    2244:	d600000e 	strle	r0, [r0], -lr
    2248:	1f00000c 	svcne	0x0000000c
    224c:	08025301 	stmdaeq	r2, {r0, r8, r9, ip, lr}
    2250:	52011f57 	andpl	r1, r1, #348	; 0x15c
    2254:	1f007902 	svcne	0x00007902
    2258:	7a025101 	bvc	96664 <__bss_end__+0x89be4>
    225c:	50011f00 	andpl	r1, r1, r0, lsl #30
    2260:	9d700305 	ldclls	3, cr0, [r0, #-20]!	; 0xffffffec
    2264:	021f0000 	andseq	r0, pc, #0
    2268:	0305007d 	movweq	r0, #20605	; 0x507d
    226c:	0000a354 	andeq	sl, r0, r4, asr r3
    2270:	8fc02000 	svchi	0x00c02000
    2274:	0ea10000 	cdpeq	0, 10, cr0, cr1, cr0, {0}
    2278:	23000000 	movwcs	r0, #0
    227c:	0000007f 	andeq	r0, r0, pc, ror r0
    2280:	00000cf0 	strdeq	r0, [r0], -r0	; <UNPREDICTABLE>
    2284:	00007624 	andeq	r7, r0, r4, lsr #12
    2288:	07001100 	streq	r1, [r0, -r0, lsl #2]
    228c:	00000ce0 	andeq	r0, r0, r0, ror #25
    2290:	00053b27 	andeq	r3, r5, r7, lsr #22
    2294:	2c630100 	stfcse	f0, [r3], #-0
    2298:	40000000 	andmi	r0, r0, r0
    229c:	84000090 	strhi	r0, [r0], #-144	; 0x90
    22a0:	01000000 	mrseq	r0, (UNDEF: 0)
    22a4:	000db99c 	muleq	sp, ip, r9
    22a8:	00631600 	rsbeq	r1, r3, r0, lsl #12
    22ac:	047a6301 	ldrbteq	r6, [sl], #-769	; 0x301
    22b0:	06950000 	ldreq	r0, [r5], r0
    22b4:	69180000 	ldmdbvs	r8, {}	; <UNPREDICTABLE>
    22b8:	2c650100 	stfcse	f0, [r5], #-0
    22bc:	b3000000 	movwlt	r0, #0
    22c0:	17000006 	strne	r0, [r0, -r6]
    22c4:	00000117 	andeq	r0, r0, r7, lsl r1
    22c8:	00000dc9 	andeq	r0, r0, r9, asr #27
    22cc:	a3bc0305 			; <UNDEFINED> instruction: 0xa3bc0305
    22d0:	5c210000 	stcpl	0, cr0, [r1], #-0
    22d4:	47000090 			; <UNDEFINED> instruction: 0x47000090
    22d8:	1f00000d 	svcne	0x0000000d
    22dc:	74025001 	strvc	r5, [r2], #-1
    22e0:	68210000 	stmdavs	r1!, {}	; <UNPREDICTABLE>
    22e4:	57000090 			; <UNDEFINED> instruction: 0x57000090
    22e8:	1f00000d 	svcne	0x0000000d
    22ec:	74025001 	strvc	r5, [r2], #-1
    22f0:	74210000 	strtvc	r0, [r1], #-0
    22f4:	67000090 			; <UNDEFINED> instruction: 0x67000090
    22f8:	1f00000d 	svcne	0x0000000d
    22fc:	74025001 	strvc	r5, [r2], #-1
    2300:	80210000 	eorhi	r0, r1, r0
    2304:	77000090 			; <UNDEFINED> instruction: 0x77000090
    2308:	1f00000d 	svcne	0x0000000d
    230c:	74025001 	strvc	r5, [r2], #-1
    2310:	8c200000 	stchi	0, cr0, [r0], #-0
    2314:	9a000090 	bls	255c <__code_start__-0x5aa4>
    2318:	1e00000e 	cdpne	0, 0, cr0, cr0, cr14, {0}
    231c:	000090a0 	andeq	r9, r0, r0, lsr #1
    2320:	00000e84 	andeq	r0, r0, r4, lsl #29
    2324:	00000daf 	andeq	r0, r0, pc, lsr #27
    2328:	0253011f 	subseq	r0, r3, #-1073741817	; 0xc0000007
    232c:	011f6c08 	tsteq	pc, r8, lsl #24
    2330:	bc030552 	cfstr32lt	mvfx0, [r3], {82}	; 0x52
    2334:	1f0000a3 	svcne	0x000000a3
    2338:	03055101 	movweq	r5, #20737	; 0x5101
    233c:	0000a100 	andeq	sl, r0, r0, lsl #2
    2340:	0550011f 	ldrbeq	r0, [r0, #-287]	; 0x11f
    2344:	00a38003 	adceq	r8, r3, r3
    2348:	a4200000 	strtge	r0, [r0], #-0
    234c:	a1000090 	swpge	r0, r0, [r0]	; <UNPREDICTABLE>
    2350:	0000000e 	andeq	r0, r0, lr
    2354:	00007f23 	andeq	r7, r0, r3, lsr #30
    2358:	000dc900 	andeq	ip, sp, r0, lsl #18
    235c:	00762400 	rsbseq	r2, r6, r0, lsl #8
    2360:	00100000 	andseq	r0, r0, r0
    2364:	000db907 	andeq	fp, sp, r7, lsl #18
    2368:	04be1400 	ldrteq	r1, [lr], #1024	; 0x400
    236c:	7b010000 	blvc	42374 <__bss_end__+0x358f4>
    2370:	000090c4 	andeq	r9, r0, r4, asr #1
    2374:	00000028 	andeq	r0, r0, r8, lsr #32
    2378:	0def9c01 	stcleq	12, cr9, [pc, #4]!	; 2384 <__code_start__-0x5c7c>
    237c:	632e0000 	teqvs	lr, #0
    2380:	7a7b0100 	bvc	1ec2788 <__bss_end__+0x1eb5d08>
    2384:	01000004 	tsteq	r0, r4
    2388:	e52f0050 	str	r0, [pc, #-80]!	; 2340 <__code_start__-0x5cc0>
    238c:	01000001 	tsteq	r0, r1
    2390:	00002586 	andeq	r2, r0, r6, lsl #11
    2394:	0090ec00 	addseq	lr, r0, r0, lsl #24
    2398:	00004c00 	andeq	r4, r0, r0, lsl #24
    239c:	579c0100 	ldrpl	r0, [ip, r0, lsl #2]
    23a0:	1600000e 	strne	r0, [r0], -lr
    23a4:	86010063 	strhi	r0, [r1], -r3, rrx
    23a8:	0000047a 	andeq	r0, r0, sl, ror r4
    23ac:	000006d2 	ldrdeq	r0, [r0], -r2
    23b0:	0090f820 	addseq	pc, r0, r0, lsr #16
    23b4:	000efb00 	andeq	pc, lr, r0, lsl #22
    23b8:	91001e00 	tstls	r0, r0, lsl #28
    23bc:	0dce0000 	stcleq	0, cr0, [lr]
    23c0:	0e320000 	cdpeq	0, 3, cr0, cr2, cr0, {0}
    23c4:	011f0000 	tsteq	pc, r0
    23c8:	00740250 	rsbseq	r0, r4, r0, asr r2
    23cc:	91081e00 	tstls	r8, r0, lsl #28
    23d0:	0cf50000 	ldcleq	0, cr0, [r5]
    23d4:	0e460000 	cdpeq	0, 4, cr0, cr6, cr0, {0}
    23d8:	011f0000 	tsteq	pc, r0
    23dc:	00740250 	rsbseq	r0, r4, r0, asr r2
    23e0:	91182200 	tstls	r8, r0, lsl #4
    23e4:	05cd0000 	strbeq	r0, [sp]
    23e8:	011f0000 	tsteq	pc, r0
    23ec:	00740250 	rsbseq	r0, r4, r0, asr r2
    23f0:	7c280000 	stcvc	0, cr0, [r8], #-0
    23f4:	01000001 	tsteq	r0, r1
    23f8:	00047a06 	andeq	r7, r4, r6, lsl #20
    23fc:	74030500 	strvc	r0, [r3], #-1280	; 0x500
    2400:	280000c6 	stmdacs	r0, {r1, r2, r6, r7}
    2404:	000004f9 	strdeq	r0, [r0], -r9
    2408:	007d0801 	rsbseq	r0, sp, r1, lsl #16
    240c:	03050000 	movweq	r0, #20480	; 0x5000
    2410:	0000c678 	andeq	ip, r0, r8, ror r6
    2414:	00010930 	andeq	r0, r1, r0, lsr r9
    2418:	25c20200 	strbcs	r0, [r2, #512]	; 0x200
    241c:	31000000 	mrscc	r0, (UNDEF: 0)
    2420:	00000656 	andeq	r0, r0, r6, asr r6
    2424:	00252908 	eoreq	r2, r5, r8, lsl #18
    2428:	0e9a0000 	cdpeq	0, 9, cr0, cr10, cr0, {0}
    242c:	86090000 	strhi	r0, [r9], -r0
    2430:	32000000 	andcc	r0, r0, #0
    2434:	00fa3300 	rscseq	r3, sl, r0, lsl #6
    2438:	1e080000 	cdpne	0, 0, cr0, cr8, cr0, {0}
    243c:	00014033 	andeq	r4, r1, r3, lsr r0
    2440:	34650800 	strbtcc	r0, [r5], #-2048	; 0x800
    2444:	000003d8 	ldrdeq	r0, [r0], -r8
    2448:	0eb9e302 	cdpeq	3, 11, cr14, cr9, cr2, {0}
    244c:	5d090000 	stcpl	0, cr0, [r9, #-0]
    2450:	00000000 	andeq	r0, r0, r0
    2454:	00039834 	andeq	r9, r3, r4, lsr r8
    2458:	cfd90200 	svcgt	0x00d90200
    245c:	0900000e 	stmdbeq	r0, {r1, r2, r3}
    2460:	0000005d 	andeq	r0, r0, sp, asr r0
    2464:	00009109 	andeq	r9, r0, r9, lsl #2
    2468:	dc340000 	ldcle	0, cr0, [r4], #-0
    246c:	02000004 	andeq	r0, r0, #4
    2470:	000eeaf3 	strdeq	lr, [lr], -r3
    2474:	005d0900 	subseq	r0, sp, r0, lsl #18
    2478:	ea090000 	b	242480 <__bss_end__+0x235a00>
    247c:	0900000e 	stmdbeq	r0, {r1, r2, r3}
    2480:	0000007d 	andeq	r0, r0, sp, ror r0
    2484:	f0040600 			; <UNDEFINED> instruction: 0xf0040600
    2488:	0800000e 	stmdaeq	r0, {r1, r2, r3}
    248c:	00000efb 	strdeq	r0, [r0], -fp
    2490:	00007d09 	andeq	r7, r0, r9, lsl #26
    2494:	21330000 	teqcs	r3, r0
    2498:	02000004 	andeq	r0, r0, #4
    249c:	00db0090 	smullseq	r0, fp, r0, r0
    24a0:	00040000 	andeq	r0, r4, r0
    24a4:	00000813 	andeq	r0, r0, r3, lsl r8
    24a8:	05df0104 	ldrbeq	r0, [pc, #260]	; 25b4 <__code_start__-0x5a4c>
    24ac:	8b010000 	blhi	424b4 <__bss_end__+0x35a34>
    24b0:	99000005 	stmdbls	r0, {r0, r2}
    24b4:	38000005 	stmdacc	r0, {r0, r2}
    24b8:	20000091 	mulcs	r0, r1, r0
    24bc:	e2000000 	and	r0, r0, #0
    24c0:	02000006 	andeq	r0, r0, #6
    24c4:	01900601 	orrseq	r0, r0, r1, lsl #12
    24c8:	01020000 	mrseq	r0, (UNDEF: 2)
    24cc:	00018e08 	andeq	r8, r1, r8, lsl #28
    24d0:	05020200 	streq	r0, [r2, #-512]	; 0x200
    24d4:	000001b2 			; <UNDEFINED> instruction: 0x000001b2
    24d8:	2d070202 	sfmcs	f0, 4, [r7, #-8]
    24dc:	03000001 	movweq	r0, #1
    24e0:	6e690504 	cdpvs	5, 6, cr0, cr9, cr4, {0}
    24e4:	04020074 	streq	r0, [r2], #-116	; 0x74
    24e8:	0000af07 	andeq	sl, r0, r7, lsl #30
    24ec:	05080200 	streq	r0, [r8, #-512]	; 0x200
    24f0:	000000cb 	andeq	r0, r0, fp, asr #1
    24f4:	a5070802 	strge	r0, [r7, #-2050]	; 0x802
    24f8:	02000000 	andeq	r0, r0, #0
    24fc:	00d00504 	sbcseq	r0, r0, r4, lsl #10
    2500:	04020000 	streq	r0, [r2], #-0
    2504:	00015207 	andeq	r5, r1, r7, lsl #4
    2508:	02040400 	andeq	r0, r4, #0, 8
    250c:	00aa0704 	adceq	r0, sl, r4, lsl #14
    2510:	04050000 	streq	r0, [r5], #-0
    2514:	0000007a 	andeq	r0, r0, sl, ror r0
    2518:	97080102 	strls	r0, [r8, -r2, lsl #2]
    251c:	06000001 	streq	r0, [r0], -r1
    2520:	00000059 	andeq	r0, r0, r9, asr r0
    2524:	0048d402 	subeq	sp, r8, r2, lsl #8
    2528:	01070000 	mrseq	r0, (UNDEF: 7)
    252c:	03000002 	movweq	r0, #2
    2530:	00006b1b 	andeq	r6, r0, fp, lsl fp
    2534:	00913800 	addseq	r3, r1, r0, lsl #16
    2538:	00002000 	andeq	r2, r0, r0
    253c:	089c0100 	ldmeq	ip, {r8}
    2540:	0100705f 	qaddeq	r7, pc, r0	; <UNPREDICTABLE>
    2544:	00006b03 	andeq	r6, r0, r3, lsl #22
    2548:	08500100 	ldmdaeq	r0, {r8}^
    254c:	03010063 	movweq	r0, #4195	; 0x1063
    2550:	00000041 	andeq	r0, r0, r1, asr #32
    2554:	6e095101 	adfvse	f5, f1, f1
    2558:	81030100 	mrshi	r0, (UNDEF: 19)
    255c:	f0000000 			; <UNDEFINED> instruction: 0xf0000000
    2560:	0a000006 	beq	2580 <__code_start__-0x5a80>
    2564:	04010070 	streq	r0, [r1], #-112	; 0x70
    2568:	00000074 	andeq	r0, r0, r4, ror r0
    256c:	00000711 	andeq	r0, r0, r1, lsl r7
    2570:	0100650b 	tsteq	r0, fp, lsl #10
    2574:	00007404 	andeq	r7, r0, r4, lsl #8
    2578:	00520100 	subseq	r0, r2, r0, lsl #2
    257c:	00019100 	andeq	r9, r1, r0, lsl #2
    2580:	b0000400 	andlt	r0, r0, r0, lsl #8
    2584:	04000008 	streq	r0, [r0], #-8
    2588:	0005df01 	andeq	sp, r5, r1, lsl #30
    258c:	06450100 	strbeq	r0, [r5], -r0, lsl #2
    2590:	05990000 	ldreq	r0, [r9]
    2594:	91580000 	cmpls	r8, r0
    2598:	00580000 	subseq	r0, r8, r0
    259c:	07d20000 	ldrbeq	r0, [r2, r0]
    25a0:	36020000 	strcc	r0, [r2], -r0
    25a4:	02000006 	andeq	r0, r0, #6
    25a8:	00003028 	andeq	r3, r0, r8, lsr #32
    25ac:	065d0300 	ldrbeq	r0, [sp], -r0, lsl #6
    25b0:	03040000 	movweq	r0, #16384	; 0x4000
    25b4:	00004700 	andeq	r4, r0, r0, lsl #14
    25b8:	06670400 	strbteq	r0, [r7], -r0, lsl #8
    25bc:	00470000 	subeq	r0, r7, r0
    25c0:	00000000 	andeq	r0, r0, r0
    25c4:	5f020405 	svcpl	0x00020405
    25c8:	02000006 	andeq	r0, r0, #6
    25cc:	00002562 	andeq	r2, r0, r2, ror #10
    25d0:	05040600 	streq	r0, [r4, #-1536]	; 0x600
    25d4:	00746e69 	rsbseq	r6, r4, r9, ror #28
    25d8:	af070407 	svcge	0x00070407
    25dc:	07000000 	streq	r0, [r0, -r0]
    25e0:	01900601 	orrseq	r0, r0, r1, lsl #12
    25e4:	02070000 	andeq	r0, r7, #0
    25e8:	0001b205 	andeq	fp, r1, r5, lsl #4
    25ec:	05040700 	streq	r0, [r4, #-1792]	; 0x700
    25f0:	000000d0 	ldrdeq	r0, [r0], -r0	; <UNPREDICTABLE>
    25f4:	cb050807 	blgt	144618 <__bss_end__+0x137b98>
    25f8:	07000000 	streq	r0, [r0, -r0]
    25fc:	018e0801 	orreq	r0, lr, r1, lsl #16
    2600:	02070000 	andeq	r0, r7, #0
    2604:	00012d07 	andeq	r2, r1, r7, lsl #26
    2608:	07040700 	streq	r0, [r4, -r0, lsl #14]
    260c:	000000aa 	andeq	r0, r0, sl, lsr #1
    2610:	a5070807 	strge	r0, [r7, #-2055]	; 0x807
    2614:	07000000 	streq	r0, [r0, -r0]
    2618:	01520704 	cmpeq	r2, r4, lsl #14
    261c:	04080000 	streq	r0, [r8], #-0
    2620:	000000a7 	andeq	r0, r0, r7, lsr #1
    2624:	97080107 	strls	r0, [r8, -r7, lsl #2]
    2628:	08000001 	stmdaeq	r0, {r0}
    262c:	0000b404 	andeq	fp, r0, r4, lsl #8
    2630:	00a70900 	adceq	r0, r7, r0, lsl #18
    2634:	560a0000 	strpl	r0, [sl], -r0
    2638:	01000006 	tsteq	r0, r6
    263c:	00005406 	andeq	r5, r0, r6, lsl #8
    2640:	00915800 	addseq	r5, r1, r0, lsl #16
    2644:	00005800 	andeq	r5, r0, r0, lsl #16
    2648:	439c0100 	orrsmi	r0, ip, #0, 2
    264c:	0b000001 	bleq	2658 <__code_start__-0x59a8>
    2650:	00746d66 	rsbseq	r6, r4, r6, ror #26
    2654:	00ae0601 	adceq	r0, lr, r1, lsl #12
    2658:	91020000 	mrsls	r0, (UNDEF: 2)
    265c:	620d0c70 	andvs	r0, sp, #112, 24	; 0x7000
    2660:	01006675 	tsteq	r0, r5, ror r6
    2664:	00014308 	andeq	r4, r1, r8, lsl #6
    2668:	7c030500 	cfstr32vc	mvfx0, [r3], {-0}
    266c:	0e0000c6 	cdpeq	0, 0, cr0, cr0, cr6, {6}
    2670:	00000b23 	andeq	r0, r0, r3, lsr #22
    2674:	00490901 	subeq	r0, r9, r1, lsl #18
    2678:	91020000 	mrsls	r0, (UNDEF: 2)
    267c:	7a730f5c 	bvc	1cc63f4 <__bss_end__+0x1cb9974>
    2680:	540c0100 	strpl	r0, [ip], #-256	; 0x100
    2684:	3c000000 	stccc	0, cr0, [r0], {-0}
    2688:	10000007 	andne	r0, r0, r7
    268c:	00009180 	andeq	r9, r0, r0, lsl #3
    2690:	00000174 	andeq	r0, r0, r4, ror r1
    2694:	00000136 	andeq	r0, r0, r6, lsr r1
    2698:	02530111 	subseq	r0, r3, #1073741828	; 0x40000004
    269c:	01114c91 			; <UNDEFINED> instruction: 0x01114c91
    26a0:	48910352 	ldmmi	r1, {r1, r4, r6, r8, r9}
    26a4:	51011106 	tstpl	r1, r6, lsl #2
    26a8:	04000a03 	streq	r0, [r0], #-2563	; 0xa03
    26ac:	02500111 	subseq	r0, r0, #1073741828	; 0x40000004
    26b0:	12000074 	andne	r0, r0, #116	; 0x74
    26b4:	00009194 	muleq	r0, r4, r1
    26b8:	02500111 	subseq	r0, r0, #1073741828	; 0x40000004
    26bc:	00000074 	andeq	r0, r0, r4, ror r0
    26c0:	0000a713 	andeq	sl, r0, r3, lsl r7
    26c4:	00015400 	andeq	r5, r1, r0, lsl #8
    26c8:	009a1400 	addseq	r1, sl, r0, lsl #8
    26cc:	03ff0000 	mvnseq	r0, #0
    26d0:	00541500 	subseq	r1, r4, r0, lsl #10
    26d4:	01630000 	cmneq	r3, r0
    26d8:	ae160000 	cdpge	0, 1, cr0, cr6, cr0, {0}
    26dc:	00000000 	andeq	r0, r0, r0
    26e0:	0006c417 	andeq	ip, r6, r7, lsl r4
    26e4:	6e220400 	cdpvs	4, 2, cr0, cr2, cr0, {0}
    26e8:	08000001 	stmdaeq	r0, {r0}
    26ec:	00015404 	andeq	r5, r1, r4, lsl #8
    26f0:	06531800 	ldrbeq	r1, [r3], -r0, lsl #16
    26f4:	02050000 	andeq	r0, r5, #0
    26f8:	00000054 	andeq	r0, r0, r4, asr r0
    26fc:	0000a116 	andeq	sl, r0, r6, lsl r1
    2700:	00541600 	subseq	r1, r4, r0, lsl #12
    2704:	ae160000 	cdpge	0, 1, cr0, cr6, cr0, {0}
    2708:	16000000 	strne	r0, [r0], -r0
    270c:	00000049 	andeq	r0, r0, r9, asr #32
    2710:	01130000 	tsteq	r3, r0
    2714:	00040000 	andeq	r0, r4, r0
    2718:	000009e1 	andeq	r0, r0, r1, ror #19
    271c:	05df0104 	ldrbeq	r0, [pc, #260]	; 2828 <__code_start__-0x57d8>
    2720:	93010000 	movwls	r0, #4096	; 0x1000
    2724:	99000006 	stmdbls	r0, {r1, r2}
    2728:	b0000005 	andlt	r0, r0, r5
    272c:	3c000091 	stccc	0, cr0, [r0], {145}	; 0x91
    2730:	e2000000 	and	r0, r0, #0
    2734:	02000008 	andeq	r0, r0, #8
    2738:	6e690504 	cdpvs	5, 6, cr0, cr9, cr4, {0}
    273c:	04030074 	streq	r0, [r3], #-116	; 0x74
    2740:	0000af07 	andeq	sl, r0, r7, lsl #30
    2744:	06010300 	streq	r0, [r1], -r0, lsl #6
    2748:	00000190 	muleq	r0, r0, r1
    274c:	b2050203 	andlt	r0, r5, #805306368	; 0x30000000
    2750:	03000001 	movweq	r0, #1
    2754:	00d00504 	sbcseq	r0, r0, r4, lsl #10
    2758:	08030000 	stmdaeq	r3, {}	; <UNPREDICTABLE>
    275c:	0000cb05 	andeq	ip, r0, r5, lsl #22
    2760:	08010300 	stmdaeq	r1, {r8, r9}
    2764:	0000018e 	andeq	r0, r0, lr, lsl #3
    2768:	2d070203 	sfmcs	f0, 4, [r7, #-12]
    276c:	03000001 	movweq	r0, #1
    2770:	00aa0704 	adceq	r0, sl, r4, lsl #14
    2774:	08030000 	stmdaeq	r3, {}	; <UNPREDICTABLE>
    2778:	0000a507 	andeq	sl, r0, r7, lsl #10
    277c:	07040300 	streq	r0, [r4, -r0, lsl #6]
    2780:	00000152 	andeq	r0, r0, r2, asr r1
    2784:	97080103 	strls	r0, [r8, -r3, lsl #2]
    2788:	04000001 	streq	r0, [r0], #-1
    278c:	00000676 	andeq	r0, r0, r6, ror r6
    2790:	00250301 	eoreq	r0, r5, r1, lsl #6
    2794:	91b00000 	movsls	r0, r0
    2798:	00140000 	andseq	r0, r4, r0
    279c:	9c010000 	stcls	0, cr0, [r1], {-0}
    27a0:	000000b0 	strheq	r0, [r0], -r0	; <UNPREDICTABLE>
    27a4:	01006305 	tsteq	r0, r5, lsl #6
    27a8:	00002503 	andeq	r2, r0, r3, lsl #10
    27ac:	00076500 	andeq	r6, r7, r0, lsl #10
    27b0:	91bc0600 			; <UNDEFINED> instruction: 0x91bc0600
    27b4:	01090000 	mrseq	r0, (UNDEF: 9)
    27b8:	01070000 	mrseq	r0, (UNDEF: 7)
    27bc:	00740250 	rsbseq	r0, r4, r0, asr r2
    27c0:	fa080000 	blx	2027c8 <__bss_end__+0x1f5d48>
    27c4:	01000000 	mrseq	r0, (UNDEF: 0)
    27c8:	0091c408 	addseq	ip, r1, r8, lsl #8
    27cc:	00001800 	andeq	r1, r0, r0, lsl #16
    27d0:	099c0100 	ldmibeq	ip, {r8}
    27d4:	000006a2 	andeq	r0, r0, r2, lsr #13
    27d8:	91dc0b01 	bicsls	r0, ip, r1, lsl #22
    27dc:	00100000 	andseq	r0, r0, r0
    27e0:	9c010000 	stcls	0, cr0, [r1], {-0}
    27e4:	000000e3 	andeq	r0, r0, r3, ror #1
    27e8:	0070660a 	rsbseq	r6, r0, sl, lsl #12
    27ec:	00f20b01 	rscseq	r0, r2, r1, lsl #22
    27f0:	50010000 	andpl	r0, r1, r0
    27f4:	00250b00 	eoreq	r0, r5, r0, lsl #22
    27f8:	00f20000 	rscseq	r0, r2, r0
    27fc:	250c0000 	strcs	r0, [ip, #-0]
    2800:	00000000 	andeq	r0, r0, r0
    2804:	00e3040d 	rsceq	r0, r3, sp, lsl #8
    2808:	870e0000 	strhi	r0, [lr, -r0]
    280c:	01000006 	tsteq	r0, r6
    2810:	0000f206 	andeq	pc, r0, r6, lsl #4
    2814:	68030500 	stmdavs	r3, {r8, sl}
    2818:	0f00009d 	svceq	0x0000009d
    281c:	0000066c 	andeq	r0, r0, ip, ror #12
    2820:	2c0c3c02 	stccs	12, cr3, [ip], {2}
    2824:	00000000 	andeq	r0, r0, r0
    2828:	0000ee00 	andeq	lr, r0, r0, lsl #28
    282c:	c9000400 	stmdbgt	r0, {sl}
    2830:	0400000a 	streq	r0, [r0], #-10
    2834:	0005df01 	andeq	sp, r5, r1, lsl #30
    2838:	06af0100 	strteq	r0, [pc], r0, lsl #2
    283c:	05990000 	ldreq	r0, [r9]
    2840:	91ec0000 	mvnls	r0, r0
    2844:	00340000 	eorseq	r0, r4, r0
    2848:	097a0000 	ldmdbeq	sl!, {}^	; <UNPREDICTABLE>
    284c:	04020000 	streq	r0, [r2], #-0
    2850:	746e6905 	strbtvc	r6, [lr], #-2309	; 0x905
    2854:	07040300 	streq	r0, [r4, -r0, lsl #6]
    2858:	000000af 	andeq	r0, r0, pc, lsr #1
    285c:	90060103 	andls	r0, r6, r3, lsl #2
    2860:	03000001 	movweq	r0, #1
    2864:	01b20502 			; <UNDEFINED> instruction: 0x01b20502
    2868:	04030000 	streq	r0, [r3], #-0
    286c:	0000d005 	andeq	sp, r0, r5
    2870:	05080300 	streq	r0, [r8, #-768]	; 0x300
    2874:	000000cb 	andeq	r0, r0, fp, asr #1
    2878:	8e080103 	adfhie	f0, f0, f3
    287c:	03000001 	movweq	r0, #1
    2880:	012d0702 	teqeq	sp, r2, lsl #14
    2884:	04030000 	streq	r0, [r3], #-0
    2888:	0000aa07 	andeq	sl, r0, r7, lsl #20
    288c:	07080300 	streq	r0, [r8, -r0, lsl #6]
    2890:	000000a5 	andeq	r0, r0, r5, lsr #1
    2894:	52070403 	andpl	r0, r7, #50331648	; 0x3000000
    2898:	03000001 	movweq	r0, #1
    289c:	01970801 	orrseq	r0, r7, r1, lsl #16
    28a0:	04040000 	streq	r0, [r4], #-0
    28a4:	0000007f 	andeq	r0, r0, pc, ror r0
    28a8:	00007205 	andeq	r7, r0, r5, lsl #4
    28ac:	06bb0600 	ldrteq	r0, [fp], r0, lsl #12
    28b0:	04010000 	streq	r0, [r1], #-0
    28b4:	00000025 	andeq	r0, r0, r5, lsr #32
    28b8:	000091ec 	andeq	r9, r0, ip, ror #3
    28bc:	00000034 	andeq	r0, r0, r4, lsr r0
    28c0:	00ab9c01 	adceq	r9, fp, r1, lsl #24
    28c4:	70070000 	andvc	r0, r7, r0
    28c8:	79040100 	stmdbvc	r4, {r8}
    28cc:	83000000 	movwhi	r0, #0
    28d0:	00000007 	andeq	r0, r0, r7
    28d4:	00002508 	andeq	r2, r0, r8, lsl #10
    28d8:	0000ba00 	andeq	fp, r0, r0, lsl #20
    28dc:	00250900 	eoreq	r0, r5, r0, lsl #18
    28e0:	0a000000 	beq	28e8 <__code_start__-0x5718>
    28e4:	00000687 	andeq	r0, r0, r7, lsl #13
    28e8:	00c51d02 	sbceq	r1, r5, r2, lsl #26
    28ec:	04040000 	streq	r0, [r4], #-0
    28f0:	000000ab 	andeq	r0, r0, fp, lsr #1
    28f4:	00002508 	andeq	r2, r0, r8, lsl #10
    28f8:	0000da00 	andeq	sp, r0, r0, lsl #20
    28fc:	00790900 	rsbseq	r0, r9, r0, lsl #18
    2900:	0b000000 	bleq	2908 <__code_start__-0x56f8>
    2904:	000006c4 	andeq	r0, r0, r4, asr #13
    2908:	00eb0c01 	rsceq	r0, fp, r1, lsl #24
    290c:	03050000 	movweq	r0, #20480	; 0x5000
    2910:	00009d6c 	andeq	r9, r0, ip, ror #26
    2914:	00cb0404 	sbceq	r0, fp, r4, lsl #8
    2918:	e5000000 	str	r0, [r0, #-0]
    291c:	04000006 	streq	r0, [r0], #-6
    2920:	000b6200 	andeq	r6, fp, r0, lsl #4
    2924:	df010400 	svcle	0x00010400
    2928:	01000005 	tsteq	r0, r5
    292c:	000006fa 	strdeq	r0, [r0], -sl
    2930:	00000599 	muleq	r0, r9, r5
    2934:	00009220 	andeq	r9, r0, r0, lsr #4
    2938:	00000578 	andeq	r0, r0, r8, ror r5
    293c:	00000a1e 	andeq	r0, r0, lr, lsl sl
    2940:	69050402 	stmdbvs	r5, {r1, sl}
    2944:	0300746e 	movweq	r7, #1134	; 0x46e
    2948:	00af0704 	adceq	r0, pc, r4, lsl #14
    294c:	01030000 	mrseq	r0, (UNDEF: 3)
    2950:	00019006 	andeq	r9, r1, r6
    2954:	05020300 	streq	r0, [r2, #-768]	; 0x300
    2958:	000001b2 			; <UNDEFINED> instruction: 0x000001b2
    295c:	d0050403 	andle	r0, r5, r3, lsl #8
    2960:	03000000 	movweq	r0, #0
    2964:	00cb0508 	sbceq	r0, fp, r8, lsl #10
    2968:	01030000 	mrseq	r0, (UNDEF: 3)
    296c:	00018e08 	andeq	r8, r1, r8, lsl #28
    2970:	07020300 	streq	r0, [r2, -r0, lsl #6]
    2974:	0000012d 	andeq	r0, r0, sp, lsr #2
    2978:	aa070403 	bge	1c398c <__bss_end__+0x1b6f0c>
    297c:	03000000 	movweq	r0, #0
    2980:	00a50708 	adceq	r0, r5, r8, lsl #14
    2984:	04030000 	streq	r0, [r3], #-0
    2988:	00015207 	andeq	r5, r1, r7, lsl #4
    298c:	05040400 	streq	r0, [r4, #-1024]	; 0x400
    2990:	00007a04 	andeq	r7, r0, r4, lsl #20
    2994:	08010300 	stmdaeq	r1, {r8, r9}
    2998:	00000197 	muleq	r0, r7, r1
    299c:	00870405 	addeq	r0, r7, r5, lsl #8
    29a0:	7a060000 	bvc	1829a8 <__bss_end__+0x175f28>
    29a4:	07000000 	streq	r0, [r0, -r0]
    29a8:	00000636 	andeq	r0, r0, r6, lsr r6
    29ac:	00972802 	addseq	r2, r7, r2, lsl #16
    29b0:	5d080000 	stcpl	0, cr0, [r8, #-0]
    29b4:	04000006 	streq	r0, [r0], #-6
    29b8:	00ae0004 	adceq	r0, lr, r4
    29bc:	67090000 	strvs	r0, [r9, -r0]
    29c0:	72000006 	andvc	r0, r0, #6
    29c4:	00000000 	andeq	r0, r0, r0
    29c8:	065f0700 	ldrbeq	r0, [pc], -r0, lsl #14
    29cc:	62020000 	andvs	r0, r2, #0
    29d0:	0000008c 	andeq	r0, r0, ip, lsl #1
    29d4:	0006e10a 	andeq	lr, r6, sl, lsl #2
    29d8:	25270100 	strcs	r0, [r7, #-256]!	; 0x100
    29dc:	20000000 	andcs	r0, r0, r0
    29e0:	14000092 	strne	r0, [r0], #-146	; 0x92
    29e4:	01000000 	mrseq	r0, (UNDEF: 0)
    29e8:	0000e09c 	muleq	r0, ip, r0
    29ec:	00630b00 	rsbeq	r0, r3, r0, lsl #22
    29f0:	00252701 	eoreq	r2, r5, r1, lsl #14
    29f4:	07a10000 	streq	r0, [r1, r0]!
    29f8:	0c000000 	stceq	0, cr0, [r0], {-0}
    29fc:	00646170 	rsbeq	r6, r4, r0, ror r1
    2a00:	00742e01 	rsbseq	r2, r4, r1, lsl #28
    2a04:	92340000 	eorsls	r0, r4, #0
    2a08:	002c0000 	eoreq	r0, ip, r0
    2a0c:	9c010000 	stcls	0, cr0, [r1], {-0}
    2a10:	00000130 	andeq	r0, r0, r0, lsr r1
    2a14:	0100700b 	tsteq	r0, fp
    2a18:	0000742e 	andeq	r7, r0, lr, lsr #8
    2a1c:	0007cf00 	andeq	ip, r7, r0, lsl #30
    2a20:	0b010d00 	bleq	45e28 <__bss_end__+0x393a8>
    2a24:	2e010000 	cdpcs	0, 0, cr0, cr1, cr0, {0}
    2a28:	00000074 	andeq	r0, r0, r4, ror r0
    2a2c:	000007fa 	strdeq	r0, [r0], -sl
    2a30:	00071a0e 	andeq	r1, r7, lr, lsl #20
    2a34:	252e0100 	strcs	r0, [lr, #-256]!	; 0x100
    2a38:	01000000 	mrseq	r0, (UNDEF: 0)
    2a3c:	656c0f52 	strbvs	r0, [ip, #-3922]!	; 0xf52
    2a40:	2f01006e 	svccs	0x0001006e
    2a44:	00000025 	andeq	r0, r0, r5, lsr #32
    2a48:	0a005101 	beq	16e54 <__bss_end__+0xa3d4>
    2a4c:	000006d9 	ldrdeq	r0, [r0], -r9
    2a50:	00743701 	rsbseq	r3, r4, r1, lsl #14
    2a54:	92600000 	rsbls	r0, r0, #0
    2a58:	00400000 	subeq	r0, r0, r0
    2a5c:	9c010000 	stcls	0, cr0, [r1], {-0}
    2a60:	0000019c 	muleq	r0, ip, r1
    2a64:	7473640b 	ldrbtvc	r6, [r3], #-1035	; 0x40b
    2a68:	74370100 	ldrtvc	r0, [r7], #-256	; 0x100
    2a6c:	1b000000 	blne	2a74 <__code_start__-0x558c>
    2a70:	0b000008 	bleq	2a98 <__code_start__-0x5568>
    2a74:	3701006e 	strcc	r0, [r1, -lr, rrx]
    2a78:	00000025 	andeq	r0, r0, r5, lsr #32
    2a7c:	00000853 	andeq	r0, r0, r3, asr r8
    2a80:	0100700b 	tsteq	r0, fp
    2a84:	00007437 	andeq	r7, r0, r7, lsr r4
    2a88:	00087400 	andeq	r7, r8, r0, lsl #8
    2a8c:	06cd0d00 	strbeq	r0, [sp], r0, lsl #26
    2a90:	37010000 	strcc	r0, [r1, -r0]
    2a94:	00000074 	andeq	r0, r0, r4, ror r0
    2a98:	000008aa 	andeq	r0, r0, sl, lsr #17
    2a9c:	6e656c10 	mcrvs	12, 3, r6, cr5, cr0, {0}
    2aa0:	25390100 	ldrcs	r0, [r9, #-256]!	; 0x100
    2aa4:	c8000000 	stmdagt	r0, {}	; <UNPREDICTABLE>
    2aa8:	0f000008 	svceq	0x00000008
    2aac:	3d010073 	stccc	0, cr0, [r1, #-460]	; 0xfffffe34
    2ab0:	00000074 	andeq	r0, r0, r4, ror r0
    2ab4:	0a005001 	beq	16ac0 <__bss_end__+0xa040>
    2ab8:	00000728 	andeq	r0, r0, r8, lsr #14
    2abc:	00744701 	rsbseq	r4, r4, r1, lsl #14
    2ac0:	92a00000 	adcls	r0, r0, #0
    2ac4:	01bc0000 			; <UNDEFINED> instruction: 0x01bc0000
    2ac8:	9c010000 	stcls	0, cr0, [r1], {-0}
    2acc:	000002df 	ldrdeq	r0, [r0], -pc	; <UNPREDICTABLE>
    2ad0:	000b010d 	andeq	r0, fp, sp, lsl #2
    2ad4:	2c470100 	stfcse	f0, [r7], {-0}
    2ad8:	ef000000 	svc	0x00000000
    2adc:	0b000008 	bleq	2b04 <__code_start__-0x54fc>
    2ae0:	00747364 	rsbseq	r7, r4, r4, ror #6
    2ae4:	00744701 	rsbseq	r4, r4, r1, lsl #14
    2ae8:	091d0000 	ldmdbeq	sp, {}	; <UNPREDICTABLE>
    2aec:	6e0b0000 	cdpvs	0, 0, cr0, cr11, cr0, {0}
    2af0:	25470100 	strbcs	r0, [r7, #-256]	; 0x100
    2af4:	8b000000 	blhi	2afc <__code_start__-0x5504>
    2af8:	0b000009 	bleq	2b24 <__code_start__-0x54dc>
    2afc:	006c6176 	rsbeq	r6, ip, r6, ror r1
    2b00:	00254701 	eoreq	r4, r5, r1, lsl #14
    2b04:	09b70000 	ldmibeq	r7!, {}	; <UNPREDICTABLE>
    2b08:	1a0d0000 	bne	342b10 <__bss_end__+0x336090>
    2b0c:	01000007 	tsteq	r0, r7
    2b10:	00002547 	andeq	r2, r0, r7, asr #10
    2b14:	000a3600 	andeq	r3, sl, r0, lsl #12
    2b18:	06f10e00 	ldrbteq	r0, [r1], r0, lsl #28
    2b1c:	47010000 	strmi	r0, [r1, -r0]
    2b20:	00000025 	andeq	r0, r0, r5, lsr #32
    2b24:	0f049102 	svceq	0x00049102
    2b28:	00667562 	rsbeq	r7, r6, r2, ror #10
    2b2c:	02df4c01 	sbcseq	r4, pc, #256	; 0x100
    2b30:	91030000 	mrsls	r0, (UNDEF: 3)
    2b34:	70107fa8 	andsvc	r7, r0, r8, lsr #31
    2b38:	744c0100 	strbvc	r0, [ip], #-256	; 0x100
    2b3c:	60000000 	andvs	r0, r0, r0
    2b40:	1000000a 	andne	r0, r0, sl
    2b44:	4d010075 	stcmi	0, cr0, [r1, #-468]	; 0xfffffe2c
    2b48:	0000002c 	andeq	r0, r0, ip, lsr #32
    2b4c:	00000b4a 	andeq	r0, r0, sl, asr #22
    2b50:	00011711 	andeq	r1, r1, r1, lsl r7
    2b54:	0002ff00 	andeq	pc, r2, r0, lsl #30
    2b58:	34030500 	strcc	r0, [r3], #-1280	; 0x500
    2b5c:	120000a4 	andne	r0, r0, #164	; 0xa4
    2b60:	0000930c 	andeq	r9, r0, ip, lsl #6
    2b64:	00000074 	andeq	r0, r0, r4, ror r0
    2b68:	00000261 	andeq	r0, r0, r1, ror #4
    2b6c:	0006d313 	andeq	sp, r6, r3, lsl r3
    2b70:	2c520100 	ldfcse	f0, [r2], {-0}
    2b74:	0d000000 	stceq	0, cr0, [r0, #-0]
    2b78:	0000000c 	andeq	r0, r0, ip
    2b7c:	0093f814 	addseq	pc, r3, r4, lsl r8	; <UNPREDICTABLE>
    2b80:	0006c400 	andeq	ip, r6, r0, lsl #8
    2b84:	94141500 	ldrls	r1, [r4], #-1280	; 0x500
    2b88:	06cb0000 	strbeq	r0, [fp], r0
    2b8c:	02a30000 	adceq	r0, r3, #0
    2b90:	01160000 	tsteq	r6, r0
    2b94:	77080253 	smlsdvc	r8, r3, r2, r0
    2b98:	05520116 	ldrbeq	r0, [r2, #-278]	; 0x116
    2b9c:	00a43403 	adceq	r3, r4, r3, lsl #8
    2ba0:	51011600 	tstpl	r1, r0, lsl #12
    2ba4:	a4580305 	ldrbge	r0, [r8], #-773	; 0x305
    2ba8:	01160000 	tsteq	r6, r0
    2bac:	70030550 	andvc	r0, r3, r0, asr r5
    2bb0:	1600009d 			; <UNDEFINED> instruction: 0x1600009d
    2bb4:	05007d02 	streq	r7, [r0, #-3330]	; 0xd02
    2bb8:	00a46c03 	adceq	r6, r4, r3, lsl #24
    2bbc:	18140000 	ldmdane	r4, {}	; <UNPREDICTABLE>
    2bc0:	e1000094 	swp	r0, r4, [r0]	; <UNPREDICTABLE>
    2bc4:	15000006 	strne	r0, [r0, #-6]
    2bc8:	00009420 	andeq	r9, r0, r0, lsr #8
    2bcc:	000000e0 	andeq	r0, r0, r0, ror #1
    2bd0:	000002c1 	andeq	r0, r0, r1, asr #5
    2bd4:	03510116 	cmpeq	r1, #-2147483643	; 0x80000005
    2bd8:	007fa091 			; <UNDEFINED> instruction: 0x007fa091
    2bdc:	00943417 	addseq	r3, r4, r7, lsl r4
    2be0:	00013000 	andeq	r3, r1, r0
    2be4:	53011600 	movwpl	r1, #5632	; 0x1600
    2be8:	7fa09103 	svcvc	0x00a09103
    2bec:	02510116 	subseq	r0, r1, #-2147483643	; 0x80000005
    2bf0:	01160074 	tsteq	r6, r4, ror r0
    2bf4:	00750250 	rsbseq	r0, r5, r0, asr r2
    2bf8:	7a180000 	bvc	602c00 <__bss_end__+0x5f6180>
    2bfc:	ef000000 	svc	0x00000000
    2c00:	19000002 	stmdbne	r0, {r1}
    2c04:	0000006b 	andeq	r0, r0, fp, rrx
    2c08:	7a18003f 	bvc	602d0c <__bss_end__+0x5f628c>
    2c0c:	ff000000 			; <UNDEFINED> instruction: 0xff000000
    2c10:	19000002 	stmdbne	r0, {r1}
    2c14:	0000006b 	andeq	r0, r0, fp, rrx
    2c18:	ef060004 	svc	0x00060004
    2c1c:	1a000002 	bne	2c2c <__code_start__-0x53d4>
    2c20:	0000070b 	andeq	r0, r0, fp, lsl #14
    2c24:	945c1f01 	ldrbls	r1, [ip], #-3841	; 0xf01
    2c28:	00680000 	rsbeq	r0, r8, r0
    2c2c:	9c010000 	stcls	0, cr0, [r1], {-0}
    2c30:	00000392 	muleq	r0, r2, r3
    2c34:	0007200d 	andeq	r2, r7, sp
    2c38:	a11f0100 	tstge	pc, r0, lsl #2
    2c3c:	39000003 	stmdbcc	r0, {r0, r1}
    2c40:	0d00000c 	stceq	0, cr0, [r0, #-48]	; 0xffffffd0
    2c44:	000006e9 	andeq	r0, r0, r9, ror #13
    2c48:	03b61f01 			; <UNDEFINED> instruction: 0x03b61f01
    2c4c:	0c650000 	stcleq	0, cr0, [r5], #-0
    2c50:	17110000 	ldrne	r0, [r1, -r0]
    2c54:	cc000001 	stcgt	0, cr0, [r0], {1}
    2c58:	05000003 	streq	r0, [r0, #-3]
    2c5c:	00a43c03 	adceq	r3, r4, r3, lsl #24
    2c60:	94701400 	ldrbtls	r1, [r0], #-1024	; 0x400
    2c64:	06c40000 	strbeq	r0, [r4], r0
    2c68:	8c150000 	ldchi	0, cr0, [r5], {-0}
    2c6c:	cb000094 	blgt	2ec4 <__code_start__-0x513c>
    2c70:	88000006 	stmdahi	r0, {r1, r2}
    2c74:	16000003 	strne	r0, [r0], -r3
    2c78:	08025301 	stmdaeq	r2, {r0, r8, r9, ip, lr}
    2c7c:	52011620 	andpl	r1, r1, #32, 12	; 0x2000000
    2c80:	a43c0305 	ldrtge	r0, [ip], #-773	; 0x305
    2c84:	01160000 	tsteq	r6, r0
    2c88:	58030551 	stmdapl	r3, {r0, r4, r6, r8, sl}
    2c8c:	160000a4 	strne	r0, [r0], -r4, lsr #1
    2c90:	03055001 	movweq	r5, #20481	; 0x5001
    2c94:	00009d70 	andeq	r9, r0, r0, ror sp
    2c98:	007d0216 	rsbseq	r0, sp, r6, lsl r2
    2c9c:	a4940305 	ldrge	r0, [r4], #773	; 0x305
    2ca0:	14000000 	strne	r0, [r0], #-0
    2ca4:	00009490 	muleq	r0, r0, r4
    2ca8:	000006e1 	andeq	r0, r0, r1, ror #13
    2cac:	00251b00 	eoreq	r1, r5, r0, lsl #22
    2cb0:	03a10000 			; <UNDEFINED> instruction: 0x03a10000
    2cb4:	251c0000 	ldrcs	r0, [ip, #-0]
    2cb8:	00000000 	andeq	r0, r0, r0
    2cbc:	03920405 	orrseq	r0, r2, #83886080	; 0x5000000
    2cc0:	251b0000 	ldrcs	r0, [fp, #-0]
    2cc4:	b6000000 	strlt	r0, [r0], -r0
    2cc8:	1c000003 	stcne	0, cr0, [r0], {3}
    2ccc:	00000081 	andeq	r0, r0, r1, lsl #1
    2cd0:	a7040500 	strge	r0, [r4, -r0, lsl #10]
    2cd4:	18000003 	stmdane	r0, {r0, r1}
    2cd8:	0000007a 	andeq	r0, r0, sl, ror r0
    2cdc:	000003cc 	andeq	r0, r0, ip, asr #7
    2ce0:	00006b19 	andeq	r6, r0, r9, lsl fp
    2ce4:	06000e00 	streq	r0, [r0], -r0, lsl #28
    2ce8:	000003bc 			; <UNDEFINED> instruction: 0x000003bc
    2cec:	0006531d 	andeq	r5, r6, sp, lsl r3
    2cf0:	257f0100 	ldrbcs	r0, [pc, #-256]!	; 2bf8 <__code_start__-0x5408>
    2cf4:	c4000000 	strgt	r0, [r0], #-0
    2cf8:	d4000094 	strle	r0, [r0], #-148	; 0x94
    2cfc:	01000002 	tsteq	r0, r2
    2d00:	0006899c 	muleq	r6, ip, r9
    2d04:	75620b00 	strbvc	r0, [r2, #-2816]!	; 0xb00
    2d08:	7f010066 	svcvc	0x00010066
    2d0c:	00000074 	andeq	r0, r0, r4, ror r0
    2d10:	00000c91 	muleq	r0, r1, ip
    2d14:	01006e0b 	tsteq	r0, fp, lsl #28
    2d18:	0000257f 	andeq	r2, r0, pc, ror r5
    2d1c:	000cbd00 	andeq	fp, ip, r0, lsl #26
    2d20:	6d660b00 	vstmdbvs	r6!, {d16-d15}
    2d24:	7f010074 	svcvc	0x00010074
    2d28:	00000081 	andeq	r0, r0, r1, lsl #1
    2d2c:	00000ceb 	andeq	r0, r0, fp, ror #25
    2d30:	000b230d 	andeq	r2, fp, sp, lsl #6
    2d34:	ae7f0100 	rpwgee	f0, f7, f0
    2d38:	09000000 	stmdbeq	r0, {}	; <UNPREDICTABLE>
    2d3c:	1000000d 	andne	r0, r0, sp
    2d40:	80010070 	andhi	r0, r1, r0, ror r0
    2d44:	00000074 	andeq	r0, r0, r4, ror r0
    2d48:	00000d1c 	andeq	r0, r0, ip, lsl sp
    2d4c:	01006510 	tsteq	r0, r0, lsl r5
    2d50:	00007480 	andeq	r7, r0, r0, lsl #9
    2d54:	000d9a00 	andeq	r9, sp, r0, lsl #20
    2d58:	06c91300 	strbeq	r1, [r9], r0, lsl #6
    2d5c:	83010000 	movwhi	r0, #4096	; 0x1000
    2d60:	00000081 	andeq	r0, r0, r1, lsl #1
    2d64:	00000dc1 	andeq	r0, r0, r1, asr #27
    2d68:	00011711 	andeq	r1, r1, r1, lsl r7
    2d6c:	00069900 	andeq	r9, r6, r0, lsl #18
    2d70:	4c030500 	cfstr32mi	mvfx0, [r3], {-0}
    2d74:	1e0000a4 	cdpne	0, 0, cr0, cr0, cr4, {5}
    2d78:	00009520 	andeq	r9, r0, r0, lsr #10
    2d7c:	0000022c 	andeq	r0, r0, ip, lsr #4
    2d80:	01007310 	tsteq	r0, r0, lsl r3
    2d84:	0000748e 	andeq	r7, r0, lr, lsl #9
    2d88:	000de100 	andeq	lr, sp, r0, lsl #2
    2d8c:	756e0f00 	strbvc	r0, [lr, #-3840]!	; 0xf00
    2d90:	8e01006d 	cdphi	0, 0, cr0, cr1, cr13, {3}
    2d94:	0000069e 	muleq	r0, lr, r6
    2d98:	7ed89103 	atnvce	f1, f3
    2d9c:	00071a13 	andeq	r1, r7, r3, lsl sl
    2da0:	2c8f0100 	stfcss	f0, [pc], {0}
    2da4:	36000000 	strcc	r0, [r0], -r0
    2da8:	1500000e 	strne	r0, [r0, #-14]
    2dac:	00009550 	andeq	r9, r0, r0, asr r5
    2db0:	000000b9 	strheq	r0, [r0], -r9
    2db4:	000004a4 	andeq	r0, r0, r4, lsr #9
    2db8:	02500116 	subseq	r0, r0, #-2147483643	; 0x80000005
    2dbc:	14000075 	strne	r0, [r0], #-117	; 0x75
    2dc0:	00009564 	andeq	r9, r0, r4, ror #10
    2dc4:	000006c4 	andeq	r0, r0, r4, asr #13
    2dc8:	00958015 	addseq	r8, r5, r5, lsl r0
    2dcc:	0006cb00 	andeq	ip, r6, r0, lsl #22
    2dd0:	0004e600 	andeq	lr, r4, r0, lsl #12
    2dd4:	53011600 	movwpl	r1, #5632	; 0x1600
    2dd8:	16950802 	ldrne	r0, [r5], r2, lsl #16
    2ddc:	03055201 	movweq	r5, #20993	; 0x5201
    2de0:	0000a44c 	andeq	sl, r0, ip, asr #8
    2de4:	05510116 	ldrbeq	r0, [r1, #-278]	; 0x116
    2de8:	00a45803 	adceq	r5, r4, r3, lsl #16
    2dec:	50011600 	andpl	r1, r1, r0, lsl #12
    2df0:	9d700305 	ldclls	3, cr0, [r0, #-20]!	; 0xffffffec
    2df4:	02160000 	andseq	r0, r6, #0
    2df8:	0305007d 	movweq	r0, #20605	; 0x507d
    2dfc:	0000a49c 	muleq	r0, ip, r4
    2e00:	95841400 	strls	r1, [r4, #1024]	; 0x400
    2e04:	06e10000 	strbteq	r0, [r1], r0
    2e08:	f4140000 			; <UNDEFINED> instruction: 0xf4140000
    2e0c:	c4000095 	strgt	r0, [r0], #-149	; 0x95
    2e10:	15000006 	strne	r0, [r0, #-6]
    2e14:	00009608 	andeq	r9, r0, r8, lsl #12
    2e18:	000006cb 	andeq	r0, r0, fp, asr #13
    2e1c:	00000527 	andeq	r0, r0, r7, lsr #10
    2e20:	02530116 	subseq	r0, r3, #-2147483643	; 0x80000005
    2e24:	01169b08 	tsteq	r6, r8, lsl #22
    2e28:	4c030552 	cfstr32mi	mvfx0, [r3], {82}	; 0x52
    2e2c:	160000a4 	strne	r0, [r0], -r4, lsr #1
    2e30:	03055101 	movweq	r5, #20737	; 0x5101
    2e34:	0000a458 	andeq	sl, r0, r8, asr r4
    2e38:	05500116 	ldrbeq	r0, [r0, #-278]	; 0x116
    2e3c:	00a4a803 	adceq	sl, r4, r3, lsl #16
    2e40:	0c140000 	ldceq	0, cr0, [r4], {-0}
    2e44:	e1000096 	swp	r0, r6, [r0]	; <UNPREDICTABLE>
    2e48:	15000006 	strne	r0, [r0, #-6]
    2e4c:	00009630 	andeq	r9, r0, r0, lsr r6
    2e50:	0000019c 	muleq	r0, ip, r1
    2e54:	0000055d 	andeq	r0, r0, sp, asr r5
    2e58:	02520116 	subseq	r0, r2, #-2147483643	; 0x80000005
    2e5c:	01168008 	tsteq	r6, r8
    2e60:	d0910351 	addsle	r0, r1, r1, asr r3
    2e64:	5001167e 	andpl	r1, r1, lr, ror r6
    2e68:	02163a01 	andseq	r3, r6, #4096	; 0x1000
    2e6c:	3101047d 	tstcc	r1, sp, ror r4
    2e70:	007d0216 	rsbseq	r0, sp, r6, lsl r2
    2e74:	00007702 	andeq	r7, r0, r2, lsl #14
    2e78:	00965815 	addseq	r5, r6, r5, lsl r8
    2e7c:	00019c00 	andeq	r9, r1, r0, lsl #24
    2e80:	00058a00 	andeq	r8, r5, r0, lsl #20
    2e84:	52011600 	andpl	r1, r1, #0, 12
    2e88:	16800802 	strne	r0, [r0], r2, lsl #16
    2e8c:	91035101 	tstls	r3, r1, lsl #2
    2e90:	01167ed0 			; <UNDEFINED> instruction: 0x01167ed0
    2e94:	163a0150 			; <UNDEFINED> instruction: 0x163a0150
    2e98:	01047d02 	tsteq	r4, r2, lsl #26
    2e9c:	7d021630 	stcvc	6, cr1, [r2, #-192]	; 0xffffff40
    2ea0:	00770200 	rsbseq	r0, r7, r0, lsl #4
    2ea4:	96801500 	strls	r1, [r0], r0, lsl #10
    2ea8:	019c0000 	orrseq	r0, ip, r0
    2eac:	05b70000 	ldreq	r0, [r7, #0]!
    2eb0:	01160000 	tsteq	r6, r0
    2eb4:	80080252 	andhi	r0, r8, r2, asr r2
    2eb8:	03510116 	cmpeq	r1, #-2147483643	; 0x80000005
    2ebc:	167ed091 			; <UNDEFINED> instruction: 0x167ed091
    2ec0:	40015001 	andmi	r5, r1, r1
    2ec4:	047d0216 	ldrbteq	r0, [sp], #-534	; 0x216
    2ec8:	02163001 	andseq	r3, r6, #1
    2ecc:	7702007d 	smlsdxvc	r2, sp, r0, r0
    2ed0:	a8150000 	ldmdage	r5, {}	; <UNPREDICTABLE>
    2ed4:	9c000096 	stcls	0, cr0, [r0], {150}	; 0x96
    2ed8:	e4000001 	str	r0, [r0], #-1
    2edc:	16000005 	strne	r0, [r0], -r5
    2ee0:	08025201 	stmdaeq	r2, {r0, r9, ip, lr}
    2ee4:	51011680 	smlabbpl	r1, r0, r6, r1
    2ee8:	7ed09103 	atnvcs	f1, f3
    2eec:	01500116 	cmpeq	r0, r6, lsl r1
    2ef0:	7d021632 	stcvc	6, cr1, [r2, #-200]	; 0xffffff38
    2ef4:	16300104 	ldrtne	r0, [r0], -r4, lsl #2
    2ef8:	02007d02 	andeq	r7, r0, #2, 26	; 0x80
    2efc:	15000077 	strne	r0, [r0, #-119]	; 0x77
    2f00:	000096dc 	ldrdeq	r9, [r0], -ip
    2f04:	0000019c 	muleq	r0, ip, r1
    2f08:	00000611 	andeq	r0, r0, r1, lsl r6
    2f0c:	02520116 	subseq	r0, r2, #-2147483643	; 0x80000005
    2f10:	01168008 	tsteq	r6, r8
    2f14:	d0910351 	addsle	r0, r1, r1, asr r3
    2f18:	5001167e 	andpl	r1, r1, lr, ror r6
    2f1c:	02163801 	andseq	r3, r6, #65536	; 0x10000
    2f20:	3001047d 	andcc	r0, r1, sp, ror r4
    2f24:	007d0216 	rsbseq	r0, sp, r6, lsl r2
    2f28:	00007702 	andeq	r7, r0, r2, lsl #14
    2f2c:	0096f815 	addseq	pc, r6, r5, lsl r8	; <UNPREDICTABLE>
    2f30:	0006cb00 	andeq	ip, r6, r0, lsl #22
    2f34:	00063400 	andeq	r3, r6, r0, lsl #8
    2f38:	52011600 	andpl	r1, r1, #0, 12
    2f3c:	16007902 	strne	r7, [r0], -r2, lsl #18
    2f40:	79025101 	stmdbvc	r2, {r0, r8, ip, lr}
    2f44:	50011600 	andpl	r1, r1, r0, lsl #12
    2f48:	a4d00305 	ldrbge	r0, [r0], #773	; 0x305
    2f4c:	1f000000 	svcne	0x00000000
    2f50:	00009708 	andeq	r9, r0, r8, lsl #14
    2f54:	00000646 	andeq	r0, r0, r6, asr #12
    2f58:	04500116 	ldrbeq	r0, [r0], #-278	; 0x116
    2f5c:	067ecc91 			; <UNDEFINED> instruction: 0x067ecc91
    2f60:	970c1400 	strls	r1, [ip, -r0, lsl #8]
    2f64:	06c40000 	strbeq	r0, [r4], r0
    2f68:	20150000 	andscs	r0, r5, r0
    2f6c:	cb000097 	blgt	31d0 <__code_start__-0x4e30>
    2f70:	7e000006 	cdpvc	0, 0, cr0, cr0, cr6, {0}
    2f74:	16000006 	strne	r0, [r0], -r6
    2f78:	08025301 	stmdaeq	r2, {r0, r8, r9, ip, lr}
    2f7c:	520116bf 	andpl	r1, r1, #200278016	; 0xbf00000
    2f80:	a44c0305 	strbge	r0, [ip], #-773	; 0x305
    2f84:	01160000 	tsteq	r6, r0
    2f88:	58030551 	stmdapl	r3, {r0, r4, r6, r8, sl}
    2f8c:	160000a4 	strne	r0, [r0], -r4, lsr #1
    2f90:	03055001 	movweq	r5, #20481	; 0x5001
    2f94:	0000a500 	andeq	sl, r0, r0, lsl #10
    2f98:	97241400 	strls	r1, [r4, -r0, lsl #8]!
    2f9c:	06e10000 	strbteq	r0, [r1], r0
    2fa0:	00000000 	andeq	r0, r0, r0
    2fa4:	00007a18 	andeq	r7, r0, r8, lsl sl
    2fa8:	00069900 	andeq	r9, r6, r0, lsl #18
    2fac:	006b1900 	rsbeq	r1, fp, r0, lsl #18
    2fb0:	00090000 	andeq	r0, r9, r0
    2fb4:	00068906 	andeq	r8, r6, r6, lsl #18
    2fb8:	007a1800 	rsbseq	r1, sl, r0, lsl #16
    2fbc:	06ae0000 	strteq	r0, [lr], r0
    2fc0:	6b190000 	blvs	642fc8 <__bss_end__+0x636548>
    2fc4:	7f000000 	svcvc	0x00000000
    2fc8:	06872000 	streq	r2, [r7], r0
    2fcc:	1d030000 	stcne	0, cr0, [r3, #-0]
    2fd0:	000003a1 	andeq	r0, r0, r1, lsr #7
    2fd4:	0006c420 	andeq	ip, r6, r0, lsr #8
    2fd8:	b6220300 	strtlt	r0, [r2], -r0, lsl #6
    2fdc:	21000003 	tstcs	r0, r3
    2fe0:	000000fa 	strdeq	r0, [r0], -sl
    2fe4:	56221e03 	strtpl	r1, [r2], -r3, lsl #28
    2fe8:	03000006 	movweq	r0, #6
    2fec:	00002529 	andeq	r2, r0, r9, lsr #10
    2ff0:	0006e100 	andeq	lr, r6, r0, lsl #2
    2ff4:	00811c00 	addeq	r1, r1, r0, lsl #24
    2ff8:	00230000 	eoreq	r0, r3, r0
    2ffc:	00014021 	andeq	r4, r1, r1, lsr #32
    3000:	00650300 	rsbeq	r0, r5, r0, lsl #6
    3004:	000000b8 	strheq	r0, [r0], -r8
    3008:	0d4b0004 	stcleq	0, cr0, [fp, #-16]
    300c:	01040000 	mrseq	r0, (UNDEF: 4)
    3010:	000005df 	ldrdeq	r0, [r0], -pc	; <UNPREDICTABLE>
    3014:	00073b01 	andeq	r3, r7, r1, lsl #22
    3018:	00059900 	andeq	r9, r5, r0, lsl #18
    301c:	00979800 	addseq	r9, r7, r0, lsl #16
    3020:	00002000 	andeq	r2, r0, r0
    3024:	000c1300 	andeq	r1, ip, r0, lsl #6
    3028:	05040200 	streq	r0, [r4, #-512]	; 0x200
    302c:	00746e69 	rsbseq	r6, r4, r9, ror #28
    3030:	af070403 	svcge	0x00070403
    3034:	03000000 	movweq	r0, #0
    3038:	01900601 	orrseq	r0, r0, r1, lsl #12
    303c:	02030000 	andeq	r0, r3, #0
    3040:	0001b205 	andeq	fp, r1, r5, lsl #4
    3044:	05040300 	streq	r0, [r4, #-768]	; 0x300
    3048:	000000d0 	ldrdeq	r0, [r0], -r0	; <UNPREDICTABLE>
    304c:	cb050803 	blgt	145060 <__bss_end__+0x1385e0>
    3050:	03000000 	movweq	r0, #0
    3054:	018e0801 	orreq	r0, lr, r1, lsl #16
    3058:	02030000 	andeq	r0, r3, #0
    305c:	00012d07 	andeq	r2, r1, r7, lsl #26
    3060:	07040300 	streq	r0, [r4, -r0, lsl #6]
    3064:	000000aa 	andeq	r0, r0, sl, lsr #1
    3068:	a5070803 	strge	r0, [r7, #-2051]	; 0x803
    306c:	03000000 	movweq	r0, #0
    3070:	01520704 	cmpeq	r2, r4, lsl #14
    3074:	01030000 	mrseq	r0, (UNDEF: 3)
    3078:	00019708 	andeq	r9, r1, r8, lsl #14
    307c:	020d0400 	andeq	r0, sp, #0, 8
    3080:	03010000 	movweq	r0, #4096	; 0x1000
    3084:	00009798 	muleq	r0, r8, r7
    3088:	00000010 	andeq	r0, r0, r0, lsl r0
    308c:	009c9c01 	addseq	r9, ip, r1, lsl #24
    3090:	72050000 	andvc	r0, r5, #0
    3094:	2c040100 	stfcss	f0, [r4], {-0}
    3098:	60000000 	andvs	r0, r0, r0
    309c:	0000000e 	andeq	r0, r0, lr
    30a0:	00072d06 	andeq	r2, r7, r6, lsl #26
    30a4:	a80c0100 	stmdage	ip, {r8}
    30a8:	10000097 	mulne	r0, r7, r0
    30ac:	01000000 	mrseq	r0, (UNDEF: 0)
    30b0:	0072059c 			; <UNDEFINED> instruction: 0x0072059c
    30b4:	002c0d01 	eoreq	r0, ip, r1, lsl #26
    30b8:	0e840000 	cdpeq	0, 8, cr0, cr4, cr0, {0}
    30bc:	00000000 	andeq	r0, r0, r0
    30c0:	0000010f 	andeq	r0, r0, pc, lsl #2
    30c4:	0db60004 	ldceq	0, cr0, [r6, #16]!
    30c8:	01040000 	mrseq	r0, (UNDEF: 4)
    30cc:	000005df 	ldrdeq	r0, [r0], -pc	; <UNPREDICTABLE>
    30d0:	00075c01 	andeq	r5, r7, r1, lsl #24
    30d4:	00059900 	andeq	r9, r5, r0, lsl #18
    30d8:	0097b800 	addseq	fp, r7, r0, lsl #16
    30dc:	00002c00 	andeq	r2, r0, r0, lsl #24
    30e0:	000c5900 	andeq	r5, ip, r0, lsl #18
    30e4:	05040200 	streq	r0, [r4, #-512]	; 0x200
    30e8:	00746e69 	rsbseq	r6, r4, r9, ror #28
    30ec:	af070403 	svcge	0x00070403
    30f0:	03000000 	movweq	r0, #0
    30f4:	01900601 	orrseq	r0, r0, r1, lsl #12
    30f8:	02030000 	andeq	r0, r3, #0
    30fc:	0001b205 	andeq	fp, r1, r5, lsl #4
    3100:	05040300 	streq	r0, [r4, #-768]	; 0x300
    3104:	000000d0 	ldrdeq	r0, [r0], -r0	; <UNPREDICTABLE>
    3108:	cb050803 	blgt	14511c <__bss_end__+0x13869c>
    310c:	03000000 	movweq	r0, #0
    3110:	018e0801 	orreq	r0, lr, r1, lsl #16
    3114:	02030000 	andeq	r0, r3, #0
    3118:	00012d07 	andeq	r2, r1, r7, lsl #26
    311c:	07040300 	streq	r0, [r4, -r0, lsl #6]
    3120:	000000aa 	andeq	r0, r0, sl, lsr #1
    3124:	a5070803 	strge	r0, [r7, #-2051]	; 0x803
    3128:	03000000 	movweq	r0, #0
    312c:	01520704 	cmpeq	r2, r4, lsl #14
    3130:	01030000 	mrseq	r0, (UNDEF: 3)
    3134:	00019708 	andeq	r9, r1, r8, lsl #14
    3138:	7f040400 	svcvc	0x00040400
    313c:	05000000 	streq	r0, [r0, #-0]
    3140:	00000072 	andeq	r0, r0, r2, ror r0
    3144:	00014006 	andeq	r4, r1, r6
    3148:	b8040100 	stmdalt	r4, {r8}
    314c:	2c000097 	stccs	0, cr0, [r0], {151}	; 0x97
    3150:	01000000 	mrseq	r0, (UNDEF: 0)
    3154:	0000d39c 	muleq	r0, ip, r3
    3158:	97c00700 	strbls	r0, [r0, r0, lsl #14]
    315c:	00f30000 	rscseq	r0, r3, r0
    3160:	d0080000 	andle	r0, r8, r0
    3164:	b5000097 	strlt	r0, [r0, #-151]	; 0x97
    3168:	09000000 	stmdbeq	r0, {}	; <UNPREDICTABLE>
    316c:	03055001 	movweq	r5, #20481	; 0x5001
    3170:	0000a520 	andeq	sl, r0, r0, lsr #10
    3174:	97d80a00 	ldrbls	r0, [r8, r0, lsl #20]
    3178:	00fa0000 	rscseq	r0, sl, r0
    317c:	00c90000 	sbceq	r0, r9, r0
    3180:	01090000 	mrseq	r0, (UNDEF: 9)
    3184:	64080250 	strvs	r0, [r8], #-592	; 0x250
    3188:	97dc0700 	ldrbls	r0, [ip, r0, lsl #14]
    318c:	010b0000 	mrseq	r0, (UNDEF: 11)
    3190:	0b000000 	bleq	3198 <__code_start__-0x4e68>
    3194:	00000025 	andeq	r0, r0, r5, lsr #32
    3198:	000000e2 	andeq	r0, r0, r2, ror #1
    319c:	0000790c 	andeq	r7, r0, ip, lsl #18
    31a0:	c40d0000 	strgt	r0, [sp], #-0
    31a4:	02000006 	andeq	r0, r0, #6
    31a8:	0000ed22 	andeq	lr, r0, r2, lsr #26
    31ac:	d3040400 	movwle	r0, #17408	; 0x4400
    31b0:	0e000000 	cdpeq	0, 0, cr0, cr0, cr0, {0}
    31b4:	0000074d 	andeq	r0, r0, sp, asr #14
    31b8:	800fdc02 	andhi	sp, pc, r2, lsl #24
    31bc:	02000007 	andeq	r0, r0, #7
    31c0:	00010b4f 	andeq	r0, r1, pc, asr #22
    31c4:	002c0c00 	eoreq	r0, ip, r0, lsl #24
    31c8:	0e000000 	cdpeq	0, 0, cr0, cr0, cr0, {0}
    31cc:	00000775 	andeq	r0, r0, r5, ror r7
    31d0:	0f006202 	svceq	0x00006202
    31d4:	04000001 	streq	r0, [r0], #-1
    31d8:	000e8000 	andeq	r8, lr, r0
    31dc:	df010400 	svcle	0x00010400
    31e0:	01000005 	tsteq	r0, r5
    31e4:	000007c2 	andeq	r0, r0, r2, asr #15
    31e8:	00000599 	muleq	r0, r9, r5
    31ec:	000097e4 	andeq	r9, r0, r4, ror #15
    31f0:	00000038 	andeq	r0, r0, r8, lsr r0
    31f4:	00000cfa 	strdeq	r0, [r0], -sl
    31f8:	69050402 	stmdbvs	r5, {r1, sl}
    31fc:	0300746e 	movweq	r7, #1134	; 0x46e
    3200:	00af0704 	adceq	r0, pc, r4, lsl #14
    3204:	01030000 	mrseq	r0, (UNDEF: 3)
    3208:	00019006 	andeq	r9, r1, r6
    320c:	05020300 	streq	r0, [r2, #-768]	; 0x300
    3210:	000001b2 			; <UNDEFINED> instruction: 0x000001b2
    3214:	d0050403 	andle	r0, r5, r3, lsl #8
    3218:	03000000 	movweq	r0, #0
    321c:	00cb0508 	sbceq	r0, fp, r8, lsl #10
    3220:	01030000 	mrseq	r0, (UNDEF: 3)
    3224:	00018e08 	andeq	r8, r1, r8, lsl #28
    3228:	07020300 	streq	r0, [r2, -r0, lsl #6]
    322c:	0000012d 	andeq	r0, r0, sp, lsr #2
    3230:	aa070403 	bge	1c4244 <__bss_end__+0x1b77c4>
    3234:	03000000 	movweq	r0, #0
    3238:	00a50708 	adceq	r0, r5, r8, lsl #14
    323c:	04030000 	streq	r0, [r3], #-0
    3240:	00015207 	andeq	r5, r1, r7, lsl #4
    3244:	08010300 	stmdaeq	r1, {r8, r9}
    3248:	00000197 	muleq	r0, r7, r1
    324c:	0007ba04 	andeq	fp, r7, r4, lsl #20
    3250:	e40d0100 	str	r0, [sp], #-256	; 0x100
    3254:	38000097 	stmdacc	r0, {r0, r1, r2, r4, r7}
    3258:	01000000 	mrseq	r0, (UNDEF: 0)
    325c:	0000e19c 	muleq	r0, ip, r1
    3260:	07890500 	streq	r0, [r9, r0, lsl #10]
    3264:	0e010000 	cdpeq	0, 0, cr0, cr1, cr0, {0}
    3268:	00000025 	andeq	r0, r0, r5, lsr #32
    326c:	00079705 	andeq	r9, r7, r5, lsl #14
    3270:	250e0100 	strcs	r0, [lr, #-256]	; 0x100
    3274:	06000000 	streq	r0, [r0], -r0
    3278:	0000009d 	muleq	r0, sp, r0
    327c:	62070f01 	andvs	r0, r7, #1, 30
    3280:	01007373 	tsteq	r0, r3, ror r3
    3284:	0000e111 	andeq	lr, r0, r1, lsl r1
    3288:	000ea800 	andeq	sl, lr, r0, lsl #16
    328c:	07b20800 	ldreq	r0, [r2, r0, lsl #16]!
    3290:	12010000 	andne	r0, r1, #0
    3294:	000000e1 	andeq	r0, r0, r1, ror #1
    3298:	00980c09 	addseq	r0, r8, r9, lsl #24
    329c:	0000fd00 	andeq	pc, r0, r0, lsl #26
    32a0:	98100900 	ldmdals	r0, {r8, fp}
    32a4:	01040000 	mrseq	r0, (UNDEF: 4)
    32a8:	14090000 	strne	r0, [r9], #-0
    32ac:	0b000098 	bleq	3514 <__code_start__-0x4aec>
    32b0:	00000001 	andeq	r0, r0, r1
    32b4:	0025040a 	eoreq	r0, r5, sl, lsl #8
    32b8:	89050000 	stmdbhi	r5, {}	; <UNPREDICTABLE>
    32bc:	01000007 	tsteq	r0, r7
    32c0:	0000250e 	andeq	r2, r0, lr, lsl #10
    32c4:	07970500 	ldreq	r0, [r7, r0, lsl #10]
    32c8:	0e010000 	cdpeq	0, 0, cr0, cr1, cr0, {0}
    32cc:	00000025 	andeq	r0, r0, r5, lsr #32
    32d0:	0007a306 	andeq	sl, r7, r6, lsl #6
    32d4:	06da0200 	ldrbeq	r0, [sl], r0, lsl #4
    32d8:	0000009d 	muleq	r0, sp, r0
    32dc:	4006d702 	andmi	sp, r6, r2, lsl #14
    32e0:	02000001 	andeq	r0, r0, #1
    32e4:	013e0065 	teqeq	lr, r5, rrx
    32e8:	00040000 	andeq	r0, r4, r0
    32ec:	00000f14 	andeq	r0, r0, r4, lsl pc
    32f0:	05df0104 	ldrbeq	r0, [pc, #260]	; 33fc <__code_start__-0x4c04>
    32f4:	d5010000 	strle	r0, [r1, #-0]
    32f8:	99000007 	stmdbls	r0, {r0, r1, r2}
    32fc:	1c000005 	stcne	0, cr0, [r0], {5}
    3300:	44000098 	strmi	r0, [r0], #-152	; 0x98
    3304:	a4000000 	strge	r0, [r0], #-0
    3308:	0200000d 	andeq	r0, r0, #13
    330c:	6e690504 	cdpvs	5, 6, cr0, cr9, cr4, {0}
    3310:	04030074 	streq	r0, [r3], #-116	; 0x74
    3314:	0000af07 	andeq	sl, r0, r7, lsl #30
    3318:	06010300 	streq	r0, [r1], -r0, lsl #6
    331c:	00000190 	muleq	r0, r0, r1
    3320:	b2050203 	andlt	r0, r5, #805306368	; 0x30000000
    3324:	03000001 	movweq	r0, #1
    3328:	00d00504 	sbcseq	r0, r0, r4, lsl #10
    332c:	08030000 	stmdaeq	r3, {}	; <UNPREDICTABLE>
    3330:	0000cb05 	andeq	ip, r0, r5, lsl #22
    3334:	08010300 	stmdaeq	r1, {r8, r9}
    3338:	0000018e 	andeq	r0, r0, lr, lsl #3
    333c:	2d070203 	sfmcs	f0, 4, [r7, #-12]
    3340:	03000001 	movweq	r0, #1
    3344:	00aa0704 	adceq	r0, sl, r4, lsl #14
    3348:	08030000 	stmdaeq	r3, {}	; <UNPREDICTABLE>
    334c:	0000a507 	andeq	sl, r0, r7, lsl #10
    3350:	07040300 	streq	r0, [r4, -r0, lsl #6]
    3354:	00000152 	andeq	r0, r0, r2, asr r1
    3358:	97080103 	strls	r0, [r8, -r3, lsl #2]
    335c:	04000001 	streq	r0, [r0], #-1
    3360:	00007f04 	andeq	r7, r0, r4, lsl #30
    3364:	00720500 	rsbseq	r0, r2, r0, lsl #10
    3368:	f6060000 			; <UNDEFINED> instruction: 0xf6060000
    336c:	01000007 	tsteq	r0, r7
    3370:	00981c02 	addseq	r1, r8, r2, lsl #24
    3374:	00004400 	andeq	r4, r0, r0, lsl #8
    3378:	089c0100 	ldmeq	ip, {r8}
    337c:	07000001 	streq	r0, [r0, -r1]
    3380:	01006370 	tsteq	r0, r0, ror r3
    3384:	00002c02 	andeq	r2, r0, r2, lsl #24
    3388:	000ec800 	andeq	ip, lr, r0, lsl #16
    338c:	01170800 	tsteq	r7, r0, lsl #16
    3390:	01180000 	tsteq	r8, r0
    3394:	03050000 	movweq	r0, #20480	; 0x5000
    3398:	0000a52c 	andeq	sl, r0, ip, lsr #10
    339c:	00982c09 	addseq	r2, r8, r9, lsl #24
    33a0:	00011d00 	andeq	r1, r1, r0, lsl #26
    33a4:	984c0a00 	stmdals	ip, {r9, fp}^
    33a8:	01240000 	teqeq	r4, r0
    33ac:	00fe0000 	rscseq	r0, lr, r0
    33b0:	010b0000 	mrseq	r0, (UNDEF: 11)
    33b4:	0b320153 	bleq	c83908 <__bss_end__+0xc76e88>
    33b8:	03055201 	movweq	r5, #20993	; 0x5201
    33bc:	0000a52c 	andeq	sl, r0, ip, lsr #10
    33c0:	0551010b 	ldrbeq	r0, [r1, #-267]	; 0x10b
    33c4:	00a58003 	adceq	r8, r5, r3
    33c8:	50010b00 	andpl	r0, r1, r0, lsl #22
    33cc:	a5440305 	strbge	r0, [r4, #-773]	; 0x305
    33d0:	020b0000 	andeq	r0, fp, #0
    33d4:	7402047d 	strvc	r0, [r2], #-1149	; 0x47d
    33d8:	7d020b00 	vstrvc	d0, [r2, #-0]
    33dc:	a4030500 	strge	r0, [r3], #-1280	; 0x500
    33e0:	000000a5 	andeq	r0, r0, r5, lsr #1
    33e4:	00985009 	addseq	r5, r8, r9
    33e8:	00013a00 	andeq	r3, r1, r0, lsl #20
    33ec:	720c0000 	andvc	r0, ip, #0
    33f0:	18000000 	stmdane	r0, {}	; <UNPREDICTABLE>
    33f4:	0d000001 	stceq	0, cr0, [r0, #-4]
    33f8:	0000006b 	andeq	r0, r0, fp, rrx
    33fc:	08050015 	stmdaeq	r5, {r0, r2, r4}
    3400:	0e000001 	cdpeq	0, 0, cr0, cr0, cr1, {0}
    3404:	000000fa 	strdeq	r0, [r0], -sl
    3408:	560f1e02 	strpl	r1, [pc], -r2, lsl #28
    340c:	02000006 	andeq	r0, r0, #6
    3410:	00002529 	andeq	r2, r0, r9, lsr #10
    3414:	00013a00 	andeq	r3, r1, r0, lsl #20
    3418:	00791000 	rsbseq	r1, r9, r0
    341c:	00110000 	andseq	r0, r1, r0
    3420:	0001400e 	andeq	r4, r1, lr
    3424:	00650200 	rsbeq	r0, r5, r0, lsl #4
    3428:	0000013e 	andeq	r0, r0, lr, lsr r1
    342c:	0fec0004 	svceq	0x00ec0004
    3430:	01040000 	mrseq	r0, (UNDEF: 4)
    3434:	000005df 	ldrdeq	r0, [r0], -pc	; <UNPREDICTABLE>
    3438:	00081901 	andeq	r1, r8, r1, lsl #18
    343c:	00059900 	andeq	r9, r5, r0, lsl #18
    3440:	00986000 	addseq	r6, r8, r0
    3444:	00004400 	andeq	r4, r0, r0, lsl #8
    3448:	000e4a00 	andeq	r4, lr, r0, lsl #20
    344c:	05040200 	streq	r0, [r4, #-512]	; 0x200
    3450:	00746e69 	rsbseq	r6, r4, r9, ror #28
    3454:	af070403 	svcge	0x00070403
    3458:	03000000 	movweq	r0, #0
    345c:	01900601 	orrseq	r0, r0, r1, lsl #12
    3460:	02030000 	andeq	r0, r3, #0
    3464:	0001b205 	andeq	fp, r1, r5, lsl #4
    3468:	05040300 	streq	r0, [r4, #-768]	; 0x300
    346c:	000000d0 	ldrdeq	r0, [r0], -r0	; <UNPREDICTABLE>
    3470:	cb050803 	blgt	145484 <__bss_end__+0x138a04>
    3474:	03000000 	movweq	r0, #0
    3478:	018e0801 	orreq	r0, lr, r1, lsl #16
    347c:	02030000 	andeq	r0, r3, #0
    3480:	00012d07 	andeq	r2, r1, r7, lsl #26
    3484:	07040300 	streq	r0, [r4, -r0, lsl #6]
    3488:	000000aa 	andeq	r0, r0, sl, lsr #1
    348c:	a5070803 	strge	r0, [r7, #-2051]	; 0x803
    3490:	03000000 	movweq	r0, #0
    3494:	01520704 	cmpeq	r2, r4, lsl #14
    3498:	01030000 	mrseq	r0, (UNDEF: 3)
    349c:	00019708 	andeq	r9, r1, r8, lsl #14
    34a0:	7f040400 	svcvc	0x00040400
    34a4:	05000000 	streq	r0, [r0, #-0]
    34a8:	00000072 	andeq	r0, r0, r2, ror r0
    34ac:	00080c06 	andeq	r0, r8, r6, lsl #24
    34b0:	60020100 	andvs	r0, r2, r0, lsl #2
    34b4:	44000098 	strmi	r0, [r0], #-152	; 0x98
    34b8:	01000000 	mrseq	r0, (UNDEF: 0)
    34bc:	0001089c 	muleq	r1, ip, r8
    34c0:	63700700 	cmnvs	r0, #0, 14
    34c4:	2c020100 	stfcss	f0, [r2], {-0}
    34c8:	e6000000 	str	r0, [r0], -r0
    34cc:	0800000e 	stmdaeq	r0, {r1, r2, r3}
    34d0:	00000117 	andeq	r0, r0, r7, lsl r1
    34d4:	00000118 	andeq	r0, r0, r8, lsl r1
    34d8:	a5ac0305 	strge	r0, [ip, #773]!	; 0x305
    34dc:	70090000 	andvc	r0, r9, r0
    34e0:	1d000098 	stcne	0, cr0, [r0, #-608]	; 0xfffffda0
    34e4:	0a000001 	beq	34f0 <__code_start__-0x4b10>
    34e8:	00009890 	muleq	r0, r0, r8
    34ec:	00000124 	andeq	r0, r0, r4, lsr #2
    34f0:	000000fe 	strdeq	r0, [r0], -lr
    34f4:	0153010b 	cmpeq	r3, fp, lsl #2
    34f8:	52010b32 	andpl	r0, r1, #51200	; 0xc800
    34fc:	a5ac0305 	strge	r0, [ip, #773]!	; 0x305
    3500:	010b0000 	mrseq	r0, (UNDEF: 11)
    3504:	bc030551 	cfstr32lt	mvfx0, [r3], {81}	; 0x51
    3508:	0b0000a5 	bleq	37a4 <__code_start__-0x485c>
    350c:	03055001 	movweq	r5, #20481	; 0x5001
    3510:	0000a544 	andeq	sl, r0, r4, asr #10
    3514:	047d020b 	ldrbteq	r0, [sp], #-523	; 0x20b
    3518:	0b007402 	bleq	20528 <__bss_end__+0x13aa8>
    351c:	05007d02 	streq	r7, [r0, #-3330]	; 0xd02
    3520:	00a5e003 	adceq	lr, r5, r3
    3524:	94090000 	strls	r0, [r9], #-0
    3528:	3a000098 	bcc	3790 <__code_start__-0x4870>
    352c:	00000001 	andeq	r0, r0, r1
    3530:	0000720c 	andeq	r7, r0, ip, lsl #4
    3534:	00011800 	andeq	r1, r1, r0, lsl #16
    3538:	006b0d00 	rsbeq	r0, fp, r0, lsl #26
    353c:	000c0000 	andeq	r0, ip, r0
    3540:	00010805 	andeq	r0, r1, r5, lsl #16
    3544:	00fa0e00 	rscseq	r0, sl, r0, lsl #28
    3548:	1e020000 	cdpne	0, 0, cr0, cr2, cr0, {0}
    354c:	0006560f 	andeq	r5, r6, pc, lsl #12
    3550:	25290200 	strcs	r0, [r9, #-512]!	; 0x200
    3554:	3a000000 	bcc	355c <__code_start__-0x4aa4>
    3558:	10000001 	andne	r0, r0, r1
    355c:	00000079 	andeq	r0, r0, r9, ror r0
    3560:	400e0011 	andmi	r0, lr, r1, lsl r0
    3564:	02000001 	andeq	r0, r0, #1
    3568:	013e0065 	teqeq	lr, r5, rrx
    356c:	00040000 	andeq	r0, r4, r0
    3570:	000010c4 	andeq	r1, r0, r4, asr #1
    3574:	05df0104 	ldrbeq	r0, [pc, #260]	; 3680 <__code_start__-0x4980>
    3578:	3b010000 	blcc	43580 <__bss_end__+0x36b00>
    357c:	99000008 	stmdbls	r0, {r3}
    3580:	a4000005 	strge	r0, [r0], #-5
    3584:	44000098 	strmi	r0, [r0], #-152	; 0x98
    3588:	f1000000 	cps	#0
    358c:	0200000e 	andeq	r0, r0, #14
    3590:	6e690504 	cdpvs	5, 6, cr0, cr9, cr4, {0}
    3594:	04030074 	streq	r0, [r3], #-116	; 0x74
    3598:	0000af07 	andeq	sl, r0, r7, lsl #30
    359c:	06010300 	streq	r0, [r1], -r0, lsl #6
    35a0:	00000190 	muleq	r0, r0, r1
    35a4:	b2050203 	andlt	r0, r5, #805306368	; 0x30000000
    35a8:	03000001 	movweq	r0, #1
    35ac:	00d00504 	sbcseq	r0, r0, r4, lsl #10
    35b0:	08030000 	stmdaeq	r3, {}	; <UNPREDICTABLE>
    35b4:	0000cb05 	andeq	ip, r0, r5, lsl #22
    35b8:	08010300 	stmdaeq	r1, {r8, r9}
    35bc:	0000018e 	andeq	r0, r0, lr, lsl #3
    35c0:	2d070203 	sfmcs	f0, 4, [r7, #-12]
    35c4:	03000001 	movweq	r0, #1
    35c8:	00aa0704 	adceq	r0, sl, r4, lsl #14
    35cc:	08030000 	stmdaeq	r3, {}	; <UNPREDICTABLE>
    35d0:	0000a507 	andeq	sl, r0, r7, lsl #10
    35d4:	07040300 	streq	r0, [r4, -r0, lsl #6]
    35d8:	00000152 	andeq	r0, r0, r2, asr r1
    35dc:	97080103 	strls	r0, [r8, -r3, lsl #2]
    35e0:	04000001 	streq	r0, [r0], #-1
    35e4:	00007f04 	andeq	r7, r0, r4, lsl #30
    35e8:	00720500 	rsbseq	r0, r2, r0, lsl #10
    35ec:	66060000 	strvs	r0, [r6], -r0
    35f0:	01000008 	tsteq	r0, r8
    35f4:	0098a402 	addseq	sl, r8, r2, lsl #8
    35f8:	00004400 	andeq	r4, r0, r0, lsl #8
    35fc:	089c0100 	ldmeq	ip, {r8}
    3600:	07000001 	streq	r0, [r0, -r1]
    3604:	01006370 	tsteq	r0, r0, ror r3
    3608:	00002c02 	andeq	r2, r0, r2, lsl #24
    360c:	000f0400 	andeq	r0, pc, r0, lsl #8
    3610:	01170800 	tsteq	r7, r0, lsl #16
    3614:	01180000 	tsteq	r8, r0
    3618:	03050000 	movweq	r0, #20480	; 0x5000
    361c:	0000a5e8 	andeq	sl, r0, r8, ror #11
    3620:	0098b409 	addseq	fp, r8, r9, lsl #8
    3624:	00011d00 	andeq	r1, r1, r0, lsl #26
    3628:	98d40a00 	ldmls	r4, {r9, fp}^
    362c:	01240000 	teqeq	r4, r0
    3630:	00fe0000 	rscseq	r0, lr, r0
    3634:	010b0000 	mrseq	r0, (UNDEF: 11)
    3638:	0b320153 	bleq	c83b8c <__bss_end__+0xc7710c>
    363c:	03055201 	movweq	r5, #20993	; 0x5201
    3640:	0000a5e8 	andeq	sl, r0, r8, ror #11
    3644:	0551010b 	ldrbeq	r0, [r1, #-267]	; 0x10b
    3648:	00a60803 	adceq	r0, r6, r3, lsl #16
    364c:	50010b00 	andpl	r0, r1, r0, lsl #22
    3650:	a5440305 	strbge	r0, [r4, #-773]	; 0x305
    3654:	020b0000 	andeq	r0, fp, #0
    3658:	7402047d 	strvc	r0, [r2], #-1149	; 0x47d
    365c:	7d020b00 	vstrvc	d0, [r2, #-0]
    3660:	34030500 	strcc	r0, [r3], #-1280	; 0x500
    3664:	000000a6 	andeq	r0, r0, r6, lsr #1
    3668:	0098d809 	addseq	sp, r8, r9, lsl #16
    366c:	00013a00 	andeq	r3, r1, r0, lsl #20
    3670:	720c0000 	andvc	r0, ip, #0
    3674:	18000000 	stmdane	r0, {}	; <UNPREDICTABLE>
    3678:	0d000001 	stceq	0, cr0, [r0, #-4]
    367c:	0000006b 	andeq	r0, r0, fp, rrx
    3680:	0805001c 	stmdaeq	r5, {r2, r3, r4}
    3684:	0e000001 	cdpeq	0, 0, cr0, cr0, cr1, {0}
    3688:	000000fa 	strdeq	r0, [r0], -sl
    368c:	560f1e02 	strpl	r1, [pc], -r2, lsl #28
    3690:	02000006 	andeq	r0, r0, #6
    3694:	00002529 	andeq	r2, r0, r9, lsr #10
    3698:	00013a00 	andeq	r3, r1, r0, lsl #20
    369c:	00791000 	rsbseq	r1, r9, r0
    36a0:	00110000 	andseq	r0, r1, r0
    36a4:	0001400e 	andeq	r4, r1, lr
    36a8:	00650200 	rsbeq	r0, r5, r0, lsl #4
    36ac:	00000098 	muleq	r0, r8, r0
    36b0:	119c0004 	orrsne	r0, ip, r4
    36b4:	01040000 	mrseq	r0, (UNDEF: 4)
    36b8:	000005df 	ldrdeq	r0, [r0], -pc	; <UNPREDICTABLE>
    36bc:	00088301 	andeq	r8, r8, r1, lsl #6
    36c0:	00059900 	andeq	r9, r5, r0, lsl #18
    36c4:	0098e800 	addseq	lr, r8, r0, lsl #16
    36c8:	00000800 	andeq	r0, r0, r0, lsl #16
    36cc:	000fa100 	andeq	sl, pc, r0, lsl #2
    36d0:	05040200 	streq	r0, [r4, #-512]	; 0x200
    36d4:	00746e69 	rsbseq	r6, r4, r9, ror #28
    36d8:	af070403 	svcge	0x00070403
    36dc:	03000000 	movweq	r0, #0
    36e0:	01900601 	orrseq	r0, r0, r1, lsl #12
    36e4:	02030000 	andeq	r0, r3, #0
    36e8:	0001b205 	andeq	fp, r1, r5, lsl #4
    36ec:	05040300 	streq	r0, [r4, #-768]	; 0x300
    36f0:	000000d0 	ldrdeq	r0, [r0], -r0	; <UNPREDICTABLE>
    36f4:	cb050803 	blgt	145708 <__bss_end__+0x138c88>
    36f8:	03000000 	movweq	r0, #0
    36fc:	018e0801 	orreq	r0, lr, r1, lsl #16
    3700:	02030000 	andeq	r0, r3, #0
    3704:	00012d07 	andeq	r2, r1, r7, lsl #26
    3708:	07040300 	streq	r0, [r4, -r0, lsl #6]
    370c:	000000aa 	andeq	r0, r0, sl, lsr #1
    3710:	a5070803 	strge	r0, [r7, #-2051]	; 0x803
    3714:	03000000 	movweq	r0, #0
    3718:	01520704 	cmpeq	r2, r4, lsl #14
    371c:	01030000 	mrseq	r0, (UNDEF: 3)
    3720:	00019708 	andeq	r9, r1, r8, lsl #14
    3724:	07a30400 	streq	r0, [r3, r0, lsl #8]!
    3728:	04010000 	streq	r0, [r1], #-0
    372c:	000098e8 	andeq	r9, r0, r8, ror #17
    3730:	00000004 	andeq	r0, r0, r4
    3734:	4d049c01 	stcmi	12, cr9, [r4, #-4]
    3738:	01000007 	tsteq	r0, r7
    373c:	0098ec05 	addseq	lr, r8, r5, lsl #24
    3740:	00000400 	andeq	r0, r0, r0, lsl #8
    3744:	009c0100 	addseq	r0, ip, r0, lsl #2
    3748:	000001d7 	ldrdeq	r0, [r0], -r7
    374c:	11de0004 	bicsne	r0, lr, r4
    3750:	01040000 	mrseq	r0, (UNDEF: 4)
    3754:	000005df 	ldrdeq	r0, [r0], -pc	; <UNPREDICTABLE>
    3758:	00093f01 	andeq	r3, r9, r1, lsl #30
    375c:	00059900 	andeq	r9, r5, r0, lsl #18
    3760:	0098f000 	addseq	pc, r8, r0
    3764:	00006c00 	andeq	r6, r0, r0, lsl #24
    3768:	000fec00 	andeq	lr, pc, r0, lsl #24
    376c:	05040200 	streq	r0, [r4, #-512]	; 0x200
    3770:	00746e69 	rsbseq	r6, r4, r9, ror #28
    3774:	af070403 	svcge	0x00070403
    3778:	03000000 	movweq	r0, #0
    377c:	01900601 	orrseq	r0, r0, r1, lsl #12
    3780:	02030000 	andeq	r0, r3, #0
    3784:	0001b205 	andeq	fp, r1, r5, lsl #4
    3788:	05040300 	streq	r0, [r4, #-768]	; 0x300
    378c:	000000d0 	ldrdeq	r0, [r0], -r0	; <UNPREDICTABLE>
    3790:	cb050803 	blgt	1457a4 <__bss_end__+0x138d24>
    3794:	03000000 	movweq	r0, #0
    3798:	018e0801 	orreq	r0, lr, r1, lsl #16
    379c:	02030000 	andeq	r0, r3, #0
    37a0:	00012d07 	andeq	r2, r1, r7, lsl #26
    37a4:	07040300 	streq	r0, [r4, -r0, lsl #6]
    37a8:	000000aa 	andeq	r0, r0, sl, lsr #1
    37ac:	a5070803 	strge	r0, [r7, #-2051]	; 0x803
    37b0:	03000000 	movweq	r0, #0
    37b4:	01520704 	cmpeq	r2, r4, lsl #14
    37b8:	01030000 	mrseq	r0, (UNDEF: 3)
    37bc:	00019708 	andeq	r9, r1, r8, lsl #14
    37c0:	02040400 	andeq	r0, r4, #0, 8
    37c4:	0000f014 	andeq	pc, r0, r4, lsl r0	; <UNPREDICTABLE>
    37c8:	09580500 	ldmdbeq	r8, {r8, sl}^
    37cc:	e4800000 	str	r0, [r0], #0
    37d0:	05028082 	streq	r8, [r2, #-130]	; 0x82
    37d4:	000008de 	ldrdeq	r0, [r0], -lr
    37d8:	8082e480 	addhi	lr, r2, r0, lsl #9
    37dc:	09850502 	stmibeq	r5, {r1, r8, sl}
    37e0:	e4840000 	str	r0, [r4], #0
    37e4:	05028082 	streq	r8, [r2, #-130]	; 0x82
    37e8:	000008a0 	andeq	r0, r0, r0, lsr #17
    37ec:	8082e488 	addhi	lr, r2, r8, lsl #9
    37f0:	08c10502 	stmiaeq	r1, {r1, r8, sl}^
    37f4:	e48c0000 	str	r0, [ip], #0
    37f8:	05028082 	streq	r8, [r2, #-130]	; 0x82
    37fc:	00000902 	andeq	r0, r0, r2, lsl #18
    3800:	8082e490 	umullhi	lr, r2, r0, r4
    3804:	09100502 	ldmdbeq	r0, {r1, r8, sl}
    3808:	e4940000 	ldr	r0, [r4], #0
    380c:	05028082 	streq	r8, [r2, #-130]	; 0x82
    3810:	000008f0 	strdeq	r0, [r0], -r0	; <UNPREDICTABLE>
    3814:	8082e498 	umullhi	lr, r2, r8, r4
    3818:	09670502 	stmdbeq	r7!, {r1, r8, sl}^
    381c:	e49c0000 	ldr	r0, [ip], #0
    3820:	05028082 	streq	r8, [r2, #-130]	; 0x82
    3824:	00000976 	andeq	r0, r0, r6, ror r9
    3828:	8082e4a0 	addhi	lr, r2, r0, lsr #9
    382c:	08ae0502 	stmiaeq	lr!, {r1, r8, sl}
    3830:	e4a40000 	strt	r0, [r4], #0
    3834:	00028082 	andeq	r8, r2, r2, lsl #1
    3838:	0004a106 	andeq	sl, r4, r6, lsl #2
    383c:	f01b0100 			; <UNDEFINED> instruction: 0xf01b0100
    3840:	6c000098 	stcvs	0, cr0, [r0], {152}	; 0x98
    3844:	01000000 	mrseq	r0, (UNDEF: 0)
    3848:	0001a59c 	muleq	r1, ip, r5
    384c:	08cd0700 	stmiaeq	sp, {r8, r9, sl}^
    3850:	23010000 	movwcs	r0, #4096	; 0x1000
    3854:	0000002c 	andeq	r0, r0, ip, lsr #32
    3858:	00091e07 	andeq	r1, r9, r7, lsl #28
    385c:	2c240100 	stfcss	f0, [r4], #-0
    3860:	08000000 	stmdaeq	r0, {}	; <UNPREDICTABLE>
    3864:	00747364 	rsbseq	r7, r4, r4, ror #6
    3868:	01a52701 			; <UNDEFINED> instruction: 0x01a52701
    386c:	09000000 	stmdbeq	r0, {}	; <UNPREDICTABLE>
    3870:	00637273 	rsbeq	r7, r3, r3, ror r2
    3874:	01a52801 			; <UNDEFINED> instruction: 0x01a52801
    3878:	6e0a0000 	cdpvs	0, 0, cr0, cr10, cr0, {0}
    387c:	2c290100 	stfcss	f0, [r9], #-0
    3880:	01000000 	mrseq	r0, (UNDEF: 0)
    3884:	99240b50 	stmdbls	r4!, {r4, r6, r8, r9, fp}
    3888:	00240000 	eoreq	r0, r4, r0
    388c:	01580000 	cmpeq	r8, r0
    3890:	690c0000 	stmdbvs	ip, {}	; <UNPREDICTABLE>
    3894:	252a0100 	strcs	r0, [sl, #-256]!	; 0x100
    3898:	22000000 	andcs	r0, r0, #0
    389c:	0000000f 	andeq	r0, r0, pc
    38a0:	0098f80d 	addseq	pc, r8, sp, lsl #16
    38a4:	0001c100 	andeq	ip, r1, r0, lsl #2
    38a8:	99040e00 	stmdbls	r4, {r9, sl, fp}
    38ac:	01c80000 	biceq	r0, r8, r0
    38b0:	017e0000 	cmneq	lr, r0
    38b4:	010f0000 	mrseq	r0, CPSR
    38b8:	ff090251 			; <UNDEFINED> instruction: 0xff090251
    38bc:	0550010f 	ldrbeq	r0, [r0, #-271]	; 0x10f
    38c0:	00b21c0c 	adcseq	r1, r2, ip, lsl #24
    38c4:	100e0020 	andne	r0, lr, r0, lsr #32
    38c8:	c8000099 	stmdagt	r0, {r0, r3, r4, r7}
    38cc:	9b000001 	blls	38d8 <__code_start__-0x4728>
    38d0:	0f000001 	svceq	0x00000001
    38d4:	09025101 	stmdbeq	r2, {r0, r8, ip, lr}
    38d8:	50010fff 	strdpl	r0, [r1], -pc	; <UNPREDICTABLE>
    38dc:	b2200c05 	eorlt	r0, r0, #1280	; 0x500
    38e0:	0d002000 	stceq	0, cr2, [r0, #-0]
    38e4:	00009914 	andeq	r9, r0, r4, lsl r9
    38e8:	000001c1 	andeq	r0, r0, r1, asr #3
    38ec:	2c041000 	stccs	0, cr1, [r4], {-0}
    38f0:	07000000 	streq	r0, [r0, -r0]
    38f4:	000008cd 	andeq	r0, r0, sp, asr #17
    38f8:	002c2301 	eoreq	r2, ip, r1, lsl #6
    38fc:	1e070000 	cdpne	0, 0, cr0, cr7, cr0, {0}
    3900:	01000009 	tsteq	r0, r9
    3904:	00002c24 	andeq	r2, r0, r4, lsr #24
    3908:	09331100 	ldmdbeq	r3!, {r8, ip}
    390c:	89030000 	stmdbhi	r3, {}	; <UNPREDICTABLE>
    3910:	00096112 	andeq	r6, r9, r2, lsl r1
    3914:	139b0300 	orrsne	r0, fp, #0, 6
    3918:	0000002c 	andeq	r0, r0, ip, lsr #32
    391c:	00002c13 	andeq	r2, r0, r3, lsl ip
    3920:	ad000000 	stcge	0, cr0, [r0, #-0]
    3924:	04000001 	streq	r0, [r0], #-1
    3928:	0012e400 	andseq	lr, r2, r0, lsl #8
    392c:	df010400 	svcle	0x00010400
    3930:	01000005 	tsteq	r0, r5
    3934:	000009a1 	andeq	r0, r0, r1, lsr #19
    3938:	00000599 	muleq	r0, r9, r5
    393c:	00000018 	andeq	r0, r0, r8, lsl r0
    3940:	00000000 	andeq	r0, r0, r0
    3944:	000010b9 	strheq	r1, [r0], -r9
    3948:	69050402 	stmdbvs	r5, {r1, sl}
    394c:	0300746e 	movweq	r7, #1134	; 0x46e
    3950:	00af0704 	adceq	r0, pc, r4, lsl #14
    3954:	01030000 	mrseq	r0, (UNDEF: 3)
    3958:	00019006 	andeq	r9, r1, r6
    395c:	05020300 	streq	r0, [r2, #-768]	; 0x300
    3960:	000001b2 			; <UNDEFINED> instruction: 0x000001b2
    3964:	d0050403 	andle	r0, r5, r3, lsl #8
    3968:	03000000 	movweq	r0, #0
    396c:	00cb0508 	sbceq	r0, fp, r8, lsl #10
    3970:	01030000 	mrseq	r0, (UNDEF: 3)
    3974:	00018e08 	andeq	r8, r1, r8, lsl #28
    3978:	07020300 	streq	r0, [r2, -r0, lsl #6]
    397c:	0000012d 	andeq	r0, r0, sp, lsr #2
    3980:	aa070403 	bge	1c4994 <__bss_end__+0x1b7f14>
    3984:	03000000 	movweq	r0, #0
    3988:	00a50708 	adceq	r0, r5, r8, lsl #14
    398c:	04030000 	streq	r0, [r3], #-0
    3990:	00015207 	andeq	r5, r1, r7, lsl #4
    3994:	08010300 	stmdaeq	r1, {r8, r9}
    3998:	00000197 	muleq	r0, r7, r1
    399c:	00099304 	andeq	r9, r9, r4, lsl #6
    39a0:	250e0100 	strcs	r0, [lr, #-256]	; 0x100
    39a4:	5c000000 	stcpl	0, cr0, [r0], {-0}
    39a8:	18000099 	stmdane	r0, {r0, r3, r4, r7}
    39ac:	01000000 	mrseq	r0, (UNDEF: 0)
    39b0:	0000a29c 	muleq	r0, ip, r2
    39b4:	05680500 	strbeq	r0, [r8, #-1280]!	; 0x500
    39b8:	0f010000 	svceq	0x00010000
    39bc:	0000002c 	andeq	r0, r0, ip, lsr #32
    39c0:	00000f41 	andeq	r0, r0, r1, asr #30
    39c4:	09d50600 	ldmibeq	r5, {r9, sl}^
    39c8:	17010000 	strne	r0, [r1, -r0]
    39cc:	00009974 	andeq	r9, r0, r4, ror r9
    39d0:	00000014 	andeq	r0, r0, r4, lsl r0
    39d4:	00c79c01 	sbceq	r9, r7, r1, lsl #24
    39d8:	68050000 	stmdavs	r5, {}	; <UNPREDICTABLE>
    39dc:	01000005 	tsteq	r0, r5
    39e0:	00002c18 	andeq	r2, r0, r8, lsl ip
    39e4:	000f6000 	andeq	r6, pc, r0
    39e8:	75060000 	strvc	r0, [r6, #-0]
    39ec:	01000007 	tsteq	r0, r7
    39f0:	0099881f 	addseq	r8, r9, pc, lsl r8
    39f4:	00004800 	andeq	r4, r0, r0, lsl #16
    39f8:	779c0100 	ldrvc	r0, [ip, r0, lsl #2]
    39fc:	07000001 	streq	r0, [r0, -r1]
    3a00:	000009f0 	strdeq	r0, [r0], -r0	; <UNPREDICTABLE>
    3a04:	01772a01 	cmneq	r7, r1, lsl #20
    3a08:	001c0000 	andseq	r0, ip, r0
    3a0c:	cd072010 	stcgt	0, cr2, [r7, #-64]	; 0xffffffc0
    3a10:	01000009 	tsteq	r0, r9
    3a14:	0001772b 	andeq	r7, r1, fp, lsr #14
    3a18:	10002400 	andne	r2, r0, r0, lsl #8
    3a1c:	09e40720 	stmibeq	r4!, {r5, r8, r9, sl}^
    3a20:	2c010000 	stccs	0, cr0, [r1], {-0}
    3a24:	00000177 	andeq	r0, r0, r7, ror r1
    3a28:	5a000000 	bpl	3a30 <__code_start__-0x45d0>
    3a2c:	0009b408 	andeq	fp, r9, r8, lsl #8
    3a30:	772d0100 	strvc	r0, [sp, -r0, lsl #2]!
    3a34:	20000001 	andcs	r0, r0, r1
    3a38:	00999009 	addseq	r9, r9, r9
    3a3c:	00007900 	andeq	r7, r0, r0, lsl #18
    3a40:	999c0900 	ldmibls	ip, {r8, fp}
    3a44:	00a20000 	adceq	r0, r2, r0
    3a48:	a40a0000 	strge	r0, [sl], #-0
    3a4c:	8d000099 	stchi	0, cr0, [r0, #-612]	; 0xfffffd9c
    3a50:	3a000001 	bcc	3a5c <__code_start__-0x45a4>
    3a54:	0b000001 	bleq	3a60 <__code_start__-0x45a0>
    3a58:	4e015001 	cdpmi	0, 0, cr5, cr1, cr1, {0}
    3a5c:	99b00a00 	ldmibls	r0!, {r9, fp}
    3a60:	019e0000 	orrseq	r0, lr, r0
    3a64:	015a0000 	cmpeq	sl, r0
    3a68:	010b0000 	mrseq	r0, (UNDEF: 11)
    3a6c:	010c0551 	tsteq	ip, r1, asr r5
    3a70:	0b5a0000 	bleq	1683a78 <__bss_end__+0x1676ff8>
    3a74:	0c055001 	stceq	0, cr5, [r5], {1}
    3a78:	20100024 	andscs	r0, r0, r4, lsr #32
    3a7c:	99bc0c00 	ldmibls	ip!, {sl, fp}
    3a80:	019e0000 	orrseq	r0, lr, r0
    3a84:	010b0000 	mrseq	r0, (UNDEF: 11)
    3a88:	200c0551 	andcs	r0, ip, r1, asr r5
    3a8c:	0b5a0000 	bleq	1683a94 <__bss_end__+0x1677014>
    3a90:	0c055001 	stceq	0, cr5, [r5], {1}
    3a94:	2010001c 	andscs	r0, r0, ip, lsl r0
    3a98:	250d0000 	strcs	r0, [sp, #-0]
    3a9c:	08000000 	stmdaeq	r0, {}	; <UNPREDICTABLE>
    3aa0:	00000996 	muleq	r0, r6, r9
    3aa4:	01880d01 	orreq	r0, r8, r1, lsl #26
    3aa8:	0d100000 	ldceq	0, cr0, [r0, #-0]
    3aac:	0000002c 	andeq	r0, r0, ip, lsr #32
    3ab0:	0007800e 	andeq	r8, r7, lr
    3ab4:	9e4f0200 	cdpls	2, 4, cr0, cr15, cr0, {0}
    3ab8:	0f000001 	svceq	0x00000001
    3abc:	0000002c 	andeq	r0, r0, ip, lsr #32
    3ac0:	09611000 	stmdbeq	r1!, {ip}^
    3ac4:	9b020000 	blls	83acc <__bss_end__+0x7704c>
    3ac8:	00002c0f 	andeq	r2, r0, pc, lsl #24
    3acc:	002c0f00 	eoreq	r0, ip, r0, lsl #30
    3ad0:	00000000 	andeq	r0, r0, r0
    3ad4:	000001f7 	strdeq	r0, [r0], -r7
    3ad8:	13d20004 	bicsne	r0, r2, #4
    3adc:	01040000 	mrseq	r0, (UNDEF: 4)
    3ae0:	000005df 	ldrdeq	r0, [r0], -pc	; <UNPREDICTABLE>
    3ae4:	000a1501 	andeq	r1, sl, r1, lsl #10
    3ae8:	00059900 	andeq	r9, r5, r0, lsl #18
    3aec:	0099d000 	addseq	sp, r9, r0
    3af0:	00009800 	andeq	r9, r0, r0, lsl #16
    3af4:	00115f00 	andseq	r5, r1, r0, lsl #30
    3af8:	05040200 	streq	r0, [r4, #-512]	; 0x200
    3afc:	00746e69 	rsbseq	r6, r4, r9, ror #28
    3b00:	af070403 	svcge	0x00070403
    3b04:	03000000 	movweq	r0, #0
    3b08:	01900601 	orrseq	r0, r0, r1, lsl #12
    3b0c:	02030000 	andeq	r0, r3, #0
    3b10:	0001b205 	andeq	fp, r1, r5, lsl #4
    3b14:	05040300 	streq	r0, [r4, #-768]	; 0x300
    3b18:	000000d0 	ldrdeq	r0, [r0], -r0	; <UNPREDICTABLE>
    3b1c:	cb050803 	blgt	145b30 <__bss_end__+0x1390b0>
    3b20:	03000000 	movweq	r0, #0
    3b24:	018e0801 	orreq	r0, lr, r1, lsl #16
    3b28:	02030000 	andeq	r0, r3, #0
    3b2c:	00012d07 	andeq	r2, r1, r7, lsl #26
    3b30:	07040300 	streq	r0, [r4, -r0, lsl #6]
    3b34:	000000aa 	andeq	r0, r0, sl, lsr #1
    3b38:	a5070803 	strge	r0, [r7, #-2051]	; 0x803
    3b3c:	03000000 	movweq	r0, #0
    3b40:	01520704 	cmpeq	r2, r4, lsl #14
    3b44:	01030000 	mrseq	r0, (UNDEF: 3)
    3b48:	00019708 	andeq	r9, r1, r8, lsl #14
    3b4c:	0a330400 	beq	cc4b54 <__bss_end__+0xcb80d4>
    3b50:	05010000 	streq	r0, [r1, #-0]
    3b54:	000099d0 	ldrdeq	r9, [r0], -r0
    3b58:	0000001c 	andeq	r0, r0, ip, lsl r0
    3b5c:	009e9c01 	addseq	r9, lr, r1, lsl #24
    3b60:	2d050000 	stccs	0, cr0, [r5, #-0]
    3b64:	0100000a 	tsteq	r0, sl
    3b68:	00002c05 	andeq	r2, r0, r5, lsl #24
    3b6c:	000f8a00 	andeq	r8, pc, r0, lsl #20
    3b70:	f8060000 			; <UNDEFINED> instruction: 0xf8060000
    3b74:	01000009 	tsteq	r0, r9
    3b78:	00002c11 	andeq	r2, r0, r1, lsl ip
    3b7c:	0099ec00 	addseq	lr, r9, r0, lsl #24
    3b80:	00001400 	andeq	r1, r0, r0, lsl #8
    3b84:	cb9c0100 	blgt	fe703f8c <__bss_end__+0xfe6f750c>
    3b88:	07000000 	streq	r0, [r0, -r0]
    3b8c:	000099f8 	strdeq	r9, [r0], -r8
    3b90:	000001de 	ldrdeq	r0, [r0], -lr
    3b94:	05500108 	ldrbeq	r0, [r0, #-264]	; 0x108
    3b98:	0030040c 	eorseq	r0, r0, ip, lsl #8
    3b9c:	06000020 	streq	r0, [r0], -r0, lsr #32
    3ba0:	00000a49 	andeq	r0, r0, r9, asr #20
    3ba4:	002c1601 	eoreq	r1, ip, r1, lsl #12
    3ba8:	9a000000 	bls	3bb0 <__code_start__-0x4450>
    3bac:	001c0000 	andseq	r0, ip, r0
    3bb0:	9c010000 	stcls	0, cr0, [r1], {-0}
    3bb4:	0000010d 	andeq	r0, r0, sp, lsl #2
    3bb8:	01007509 	tsteq	r0, r9, lsl #10
    3bbc:	00002c1a 	andeq	r2, r0, sl, lsl ip
    3bc0:	000fbe00 	andeq	fp, pc, r0, lsl #28
    3bc4:	9a080a00 	bls	2063cc <__bss_end__+0x1f994c>
    3bc8:	01f30000 	mvnseq	r0, r0
    3bcc:	0c0a0000 	stceq	0, cr0, [sl], {-0}
    3bd0:	9e00009a 	mcrls	0, 0, r0, cr0, cr10, {4}
    3bd4:	0a000000 	beq	3bdc <__code_start__-0x4424>
    3bd8:	00009a14 	andeq	r9, r0, r4, lsl sl
    3bdc:	000001f3 	strdeq	r0, [r0], -r3
    3be0:	0a400400 	beq	1004be8 <__bss_end__+0xff8168>
    3be4:	1f010000 	svcne	0x00010000
    3be8:	00009a1c 	andeq	r9, r0, ip, lsl sl
    3bec:	00000024 	andeq	r0, r0, r4, lsr #32
    3bf0:	016b9c01 	cmneq	fp, r1, lsl #24
    3bf4:	750b0000 	strvc	r0, [fp, #-0]
    3bf8:	1f010073 	svcne	0x00010073
    3bfc:	0000002c 	andeq	r0, r0, ip, lsr #32
    3c00:	00000fdc 	ldrdeq	r0, [r0], -ip
    3c04:	0062720c 	rsbeq	r7, r2, ip, lsl #4
    3c08:	002c2001 	eoreq	r2, ip, r1
    3c0c:	54010000 	strpl	r0, [r1], #-0
    3c10:	009a2c0d 	addseq	r2, sl, sp, lsl #24
    3c14:	00001000 	andeq	r1, r0, r0
    3c18:	00016100 	andeq	r6, r1, r0, lsl #2
    3c1c:	61720900 	cmnvs	r2, r0, lsl #18
    3c20:	2c220100 	stfcss	f0, [r2], #-0
    3c24:	fa000000 	blx	3c2c <__code_start__-0x43d4>
    3c28:	0a00000f 	beq	3c6c <__code_start__-0x4394>
    3c2c:	00009a30 	andeq	r9, r0, r0, lsr sl
    3c30:	000000cb 	andeq	r0, r0, fp, asr #1
    3c34:	9a280a00 	bls	a0643c <__bss_end__+0x9f99bc>
    3c38:	00cb0000 	sbceq	r0, fp, r0
    3c3c:	04000000 	streq	r0, [r0], #-0
    3c40:	00000780 	andeq	r0, r0, r0, lsl #15
    3c44:	9a402801 	bls	100dc50 <__bss_end__+0x10011d0>
    3c48:	00140000 	andseq	r0, r4, r0
    3c4c:	9c010000 	stcls	0, cr0, [r1], {-0}
    3c50:	000001a4 	andeq	r0, r0, r4, lsr #3
    3c54:	00736d0b 	rsbseq	r6, r3, fp, lsl #26
    3c58:	002c2801 	eoreq	r2, ip, r1, lsl #16
    3c5c:	100d0000 	andne	r0, sp, r0
    3c60:	50070000 	andpl	r0, r7, r0
    3c64:	0d00009a 	stceq	0, cr0, [r0, #-616]	; 0xfffffd98
    3c68:	08000001 	stmdaeq	r0, {r0}
    3c6c:	f3075001 	vhadd.u8	d5, d7, d1
    3c70:	e80a5001 	stmda	sl, {r0, ip, lr}
    3c74:	00001e03 	andeq	r1, r0, r3, lsl #28
    3c78:	000a0b04 	andeq	r0, sl, r4, lsl #22
    3c7c:	542b0100 	strtpl	r0, [fp], #-256	; 0x100
    3c80:	1400009a 	strne	r0, [r0], #-154	; 0x9a
    3c84:	01000000 	mrseq	r0, (UNDEF: 0)
    3c88:	0001de9c 	muleq	r1, ip, lr
    3c8c:	65730b00 	ldrbvs	r0, [r3, #-2816]!	; 0xb00
    3c90:	2b010063 	blcs	43e24 <__bss_end__+0x373a4>
    3c94:	0000002c 	andeq	r0, r0, ip, lsr #32
    3c98:	0000102e 	andeq	r1, r0, lr, lsr #32
    3c9c:	009a6407 	addseq	r6, sl, r7, lsl #8
    3ca0:	00016b00 	andeq	r6, r1, r0, lsl #22
    3ca4:	50010800 	andpl	r0, r1, r0, lsl #16
    3ca8:	5001f307 	andpl	pc, r1, r7, lsl #6
    3cac:	1e03e80a 	cdpne	8, 0, cr14, cr3, cr10, {0}
    3cb0:	270e0000 	strcs	r0, [lr, -r0]
    3cb4:	0200000a 	andeq	r0, r0, #10
    3cb8:	00002ca7 	andeq	r2, r0, r7, lsr #25
    3cbc:	0001f300 	andeq	pc, r1, r0, lsl #6
    3cc0:	002c0f00 	eoreq	r0, ip, r0, lsl #30
    3cc4:	10000000 	andne	r0, r0, r0
    3cc8:	00000933 	andeq	r0, r0, r3, lsr r9
    3ccc:	c5008902 	strgt	r8, [r0, #-2306]	; 0x902
    3cd0:	0400000c 	streq	r0, [r0], #-12
    3cd4:	0014c800 	andseq	ip, r4, r0, lsl #16
    3cd8:	f4010400 	vst3.8	{d0-d2}, [r1], r0
    3cdc:	0c00000d 	stceq	0, cr0, [r0], {13}
    3ce0:	00000b57 	andeq	r0, r0, r7, asr fp
    3ce4:	00000b72 	andeq	r0, r0, r2, ror fp
    3ce8:	00009acc 	andeq	r9, r0, ip, asr #21
    3cec:	00000178 	andeq	r0, r0, r8, ror r1
    3cf0:	00001211 	andeq	r1, r0, r1, lsl r2
    3cf4:	69050402 	stmdbvs	r5, {r1, sl}
    3cf8:	0300746e 	movweq	r7, #1134	; 0x46e
    3cfc:	00af0704 	adceq	r0, pc, r4, lsl #14
    3d00:	2c040000 	stccs	0, cr0, [r4], {-0}
    3d04:	03000000 	movweq	r0, #0
    3d08:	01900601 	orrseq	r0, r0, r1, lsl #12
    3d0c:	02030000 	andeq	r0, r3, #0
    3d10:	0001b205 	andeq	fp, r1, r5, lsl #4
    3d14:	05040300 	streq	r0, [r4, #-768]	; 0x300
    3d18:	000000d0 	ldrdeq	r0, [r0], -r0	; <UNPREDICTABLE>
    3d1c:	cb050803 	blgt	145d30 <__bss_end__+0x1392b0>
    3d20:	03000000 	movweq	r0, #0
    3d24:	018e0801 	orreq	r0, lr, r1, lsl #16
    3d28:	02030000 	andeq	r0, r3, #0
    3d2c:	00012d07 	andeq	r2, r1, r7, lsl #26
    3d30:	07040300 	streq	r0, [r4, -r0, lsl #6]
    3d34:	000000aa 	andeq	r0, r0, sl, lsr #1
    3d38:	a5070803 	strge	r0, [r7, #-2051]	; 0x803
    3d3c:	05000000 	streq	r0, [r0, #-0]
    3d40:	00000d09 	andeq	r0, r0, r9, lsl #26
    3d44:	00250702 	eoreq	r0, r5, r2, lsl #14
    3d48:	f3050000 	vhadd.u8	d0, d5, d0
    3d4c:	0300000c 	movweq	r0, #12
    3d50:	0000462c 	andeq	r4, r0, ip, lsr #12
    3d54:	0dcf0500 	cfstr64eq	mvdx0, [pc]	; 3d5c <__code_start__-0x42a4>
    3d58:	72030000 	andvc	r0, r3, #0
    3d5c:	00000046 	andeq	r0, r0, r6, asr #32
    3d60:	000c9706 	andeq	r9, ip, r6, lsl #14
    3d64:	01650400 	cmneq	r5, r0, lsl #8
    3d68:	0000002c 	andeq	r0, r0, ip, lsr #32
    3d6c:	a6030407 	strge	r0, [r3], -r7, lsl #8
    3d70:	000000bc 	strheq	r0, [r0], -ip
    3d74:	000c8208 	andeq	r8, ip, r8, lsl #4
    3d78:	91a80300 			; <UNDEFINED> instruction: 0x91a80300
    3d7c:	08000000 	stmdaeq	r0, {}	; <UNPREDICTABLE>
    3d80:	00000c2a 	andeq	r0, r0, sl, lsr #24
    3d84:	00bca903 	adcseq	sl, ip, r3, lsl #18
    3d88:	09000000 	stmdbeq	r0, {}	; <UNPREDICTABLE>
    3d8c:	00000054 	andeq	r0, r0, r4, asr r0
    3d90:	000000cc 	andeq	r0, r0, ip, asr #1
    3d94:	0000cc0a 	andeq	ip, r0, sl, lsl #24
    3d98:	03000300 	movweq	r0, #768	; 0x300
    3d9c:	01520704 	cmpeq	r2, r4, lsl #14
    3da0:	080b0000 	stmdaeq	fp, {}	; <UNPREDICTABLE>
    3da4:	00f4a303 	rscseq	sl, r4, r3, lsl #6
    3da8:	b40c0000 	strlt	r0, [ip], #-0
    3dac:	0300000d 	movweq	r0, #13
    3db0:	000025a5 	andeq	r2, r0, r5, lsr #11
    3db4:	bc0c0000 	stclt	0, cr0, [ip], {-0}
    3db8:	0300000d 	movweq	r0, #13
    3dbc:	00009daa 	andeq	r9, r0, sl, lsr #27
    3dc0:	05000400 	streq	r0, [r0, #-1024]	; 0x400
    3dc4:	00000d47 	andeq	r0, r0, r7, asr #26
    3dc8:	00d3ab03 	sbcseq	sl, r3, r3, lsl #22
    3dcc:	f3050000 	vhadd.u8	d0, d5, d0
    3dd0:	0300000b 	movweq	r0, #11
    3dd4:	000070af 	andeq	r7, r0, pc, lsr #1
    3dd8:	0e040d00 	cdpeq	13, 0, cr0, cr4, cr0, {0}
    3ddc:	00011204 	andeq	r1, r1, r4, lsl #4
    3de0:	08010300 	stmdaeq	r1, {r8, r9}
    3de4:	00000197 	muleq	r0, r7, r1
    3de8:	0001120f 	andeq	r1, r1, pc, lsl #4
    3dec:	0e710500 	cdpeq	5, 7, cr0, cr1, cr0, {0}
    3df0:	16050000 	strne	r0, [r5], -r0
    3df4:	00000062 	andeq	r0, r0, r2, rrx
    3df8:	000c0410 	andeq	r0, ip, r0, lsl r4
    3dfc:	2d051800 	stccs	8, cr1, [r5, #-0]
    3e00:	0000017c 	andeq	r0, r0, ip, ror r1
    3e04:	000d680c 	andeq	r6, sp, ip, lsl #16
    3e08:	7c2f0500 	cfstr32vc	mvfx0, [pc], #-0	; 3e10 <__code_start__-0x41f0>
    3e0c:	00000001 	andeq	r0, r0, r1
    3e10:	006b5f11 	rsbeq	r5, fp, r1, lsl pc
    3e14:	00253005 	eoreq	r3, r5, r5
    3e18:	0c040000 	stceq	0, cr0, [r4], {-0}
    3e1c:	00000d9f 	muleq	r0, pc, sp	; <UNPREDICTABLE>
    3e20:	00253005 	eoreq	r3, r5, r5
    3e24:	0c080000 	stceq	0, cr0, [r8], {-0}
    3e28:	00000bdf 	ldrdeq	r0, [r0], -pc	; <UNPREDICTABLE>
    3e2c:	00253005 	eoreq	r3, r5, r5
    3e30:	0c0c0000 	stceq	0, cr0, [ip], {-0}
    3e34:	00000eb8 			; <UNDEFINED> instruction: 0x00000eb8
    3e38:	00253005 	eoreq	r3, r5, r5
    3e3c:	11100000 	tstne	r0, r0
    3e40:	0500785f 	streq	r7, [r0, #-2143]	; 0x85f
    3e44:	00018231 	andeq	r8, r1, r1, lsr r2
    3e48:	0e001400 	cfcpyseq	mvf1, mvf0
    3e4c:	00012904 	andeq	r2, r1, r4, lsl #18
    3e50:	011e0900 	tsteq	lr, r0, lsl #18
    3e54:	01920000 	orrseq	r0, r2, r0
    3e58:	cc0a0000 	stcgt	0, cr0, [sl], {-0}
    3e5c:	00000000 	andeq	r0, r0, r0
    3e60:	0c251000 	stceq	0, cr1, [r5], #-0
    3e64:	05240000 	streq	r0, [r4, #-0]!
    3e68:	00020b35 	andeq	r0, r2, r5, lsr fp
    3e6c:	0add0c00 	beq	ff746e74 <__bss_end__+0xff73a3f4>
    3e70:	37050000 	strcc	r0, [r5, -r0]
    3e74:	00000025 	andeq	r0, r0, r5, lsr #32
    3e78:	0dd70c00 	ldcleq	12, cr0, [r7]
    3e7c:	38050000 	stmdacc	r5, {}	; <UNPREDICTABLE>
    3e80:	00000025 	andeq	r0, r0, r5, lsr #32
    3e84:	0b0b0c04 	bleq	2c6e9c <__bss_end__+0x2ba41c>
    3e88:	39050000 	stmdbcc	r5, {}	; <UNPREDICTABLE>
    3e8c:	00000025 	andeq	r0, r0, r5, lsr #32
    3e90:	0fa80c08 	svceq	0x00a80c08
    3e94:	3a050000 	bcc	143e9c <__bss_end__+0x13741c>
    3e98:	00000025 	andeq	r0, r0, r5, lsr #32
    3e9c:	0cd70c0c 	ldcleq	12, cr0, [r7], {12}
    3ea0:	3b050000 	blcc	143ea8 <__bss_end__+0x137428>
    3ea4:	00000025 	andeq	r0, r0, r5, lsr #32
    3ea8:	0cac0c10 	stceq	12, cr0, [ip], #64	; 0x40
    3eac:	3c050000 	stccc	0, cr0, [r5], {-0}
    3eb0:	00000025 	andeq	r0, r0, r5, lsr #32
    3eb4:	0ebd0c14 	mrceq	12, 5, r0, cr13, cr4, {0}
    3eb8:	3d050000 	stccc	0, cr0, [r5, #-0]
    3ebc:	00000025 	andeq	r0, r0, r5, lsr #32
    3ec0:	0d290c18 	stceq	12, cr0, [r9, #-96]!	; 0xffffffa0
    3ec4:	3e050000 	cdpcc	0, 0, cr0, cr5, cr0, {0}
    3ec8:	00000025 	andeq	r0, r0, r5, lsr #32
    3ecc:	0f6f0c1c 	svceq	0x006f0c1c
    3ed0:	3f050000 	svccc	0x00050000
    3ed4:	00000025 	andeq	r0, r0, r5, lsr #32
    3ed8:	1a120020 	bne	483f60 <__bss_end__+0x4774e0>
    3edc:	0800000b 	stmdaeq	r0, {r0, r1, r3}
    3ee0:	4b480501 	blmi	12052ec <__bss_end__+0x11f886c>
    3ee4:	0c000002 	stceq	0, cr0, [r0], {2}
    3ee8:	00000bc6 	andeq	r0, r0, r6, asr #23
    3eec:	024b4905 	subeq	r4, fp, #81920	; 0x14000
    3ef0:	0c000000 	stceq	0, cr0, [r0], {-0}
    3ef4:	00000a58 	andeq	r0, r0, r8, asr sl
    3ef8:	024b4a05 	subeq	r4, fp, #20480	; 0x5000
    3efc:	13800000 	orrne	r0, r0, #0
    3f00:	00000e63 	andeq	r0, r0, r3, ror #28
    3f04:	011e4c05 	tsteq	lr, r5, lsl #24
    3f08:	01000000 	mrseq	r0, (UNDEF: 0)
    3f0c:	000b3f13 	andeq	r3, fp, r3, lsl pc
    3f10:	1e4f0500 	cdpne	5, 4, cr0, cr15, cr0, {0}
    3f14:	04000001 	streq	r0, [r0], #-1
    3f18:	0a090001 	beq	243f24 <__bss_end__+0x2374a4>
    3f1c:	5b000001 	blpl	3f28 <__code_start__-0x40d8>
    3f20:	0a000002 	beq	3f30 <__code_start__-0x40d0>
    3f24:	000000cc 	andeq	r0, r0, ip, asr #1
    3f28:	e012001f 	ands	r0, r2, pc, lsl r0
    3f2c:	9000000c 	andls	r0, r0, ip
    3f30:	995b0501 	ldmdbls	fp, {r0, r8, sl}^
    3f34:	0c000002 	stceq	0, cr0, [r0], {2}
    3f38:	00000d68 	andeq	r0, r0, r8, ror #26
    3f3c:	02995c05 	addseq	r5, r9, #1280	; 0x500
    3f40:	0c000000 	stceq	0, cr0, [r0], {-0}
    3f44:	00000d80 	andeq	r0, r0, r0, lsl #27
    3f48:	00255d05 	eoreq	r5, r5, r5, lsl #26
    3f4c:	0c040000 	stceq	0, cr0, [r4], {-0}
    3f50:	00000bda 	ldrdeq	r0, [r0], -sl
    3f54:	029f5f05 	addseq	r5, pc, #5, 30
    3f58:	0c080000 	stceq	0, cr0, [r8], {-0}
    3f5c:	00000b1a 	andeq	r0, r0, sl, lsl fp
    3f60:	020b6005 	andeq	r6, fp, #5
    3f64:	00880000 	addeq	r0, r8, r0
    3f68:	025b040e 	subseq	r0, fp, #234881024	; 0xe000000
    3f6c:	af090000 	svcge	0x00090000
    3f70:	af000002 	svcge	0x00000002
    3f74:	0a000002 	beq	3f84 <__code_start__-0x407c>
    3f78:	000000cc 	andeq	r0, r0, ip, asr #1
    3f7c:	040e001f 	streq	r0, [lr], #-31
    3f80:	000002b5 			; <UNDEFINED> instruction: 0x000002b5
    3f84:	0d331014 	ldceq	0, cr1, [r3, #-80]!	; 0xffffffb0
    3f88:	05080000 	streq	r0, [r8, #-0]
    3f8c:	0002db73 	andeq	sp, r2, r3, ror fp
    3f90:	0b000c00 	bleq	6f98 <__code_start__-0x1068>
    3f94:	74050000 	strvc	r0, [r5], #-0
    3f98:	000002db 	ldrdeq	r0, [r0], -fp
    3f9c:	0a640c00 	beq	1906fa4 <__bss_end__+0x18fa524>
    3fa0:	75050000 	strvc	r0, [r5, #-0]
    3fa4:	00000025 	andeq	r0, r0, r5, lsr #32
    3fa8:	040e0004 	streq	r0, [lr], #-4
    3fac:	00000054 	andeq	r0, r0, r4, asr r0
    3fb0:	000d5210 	andeq	r5, sp, r0, lsl r2
    3fb4:	b3056800 	movwlt	r6, #22528	; 0x5800
    3fb8:	0000040b 	andeq	r0, r0, fp, lsl #8
    3fbc:	00705f11 	rsbseq	r5, r0, r1, lsl pc
    3fc0:	02dbb405 	sbcseq	fp, fp, #83886080	; 0x5000000
    3fc4:	11000000 	mrsne	r0, (UNDEF: 0)
    3fc8:	0500725f 	streq	r7, [r0, #-607]	; 0x25f
    3fcc:	000025b5 			; <UNDEFINED> instruction: 0x000025b5
    3fd0:	5f110400 	svcpl	0x00110400
    3fd4:	b6050077 			; <UNDEFINED> instruction: 0xb6050077
    3fd8:	00000025 	andeq	r0, r0, r5, lsr #32
    3fdc:	0b380c08 	bleq	e07004 <__bss_end__+0xdfa584>
    3fe0:	b7050000 	strlt	r0, [r5, -r0]
    3fe4:	0000003f 	andeq	r0, r0, pc, lsr r0
    3fe8:	0c4b0c0c 	mcrreq	12, 0, r0, fp, cr12
    3fec:	b8050000 	stmdalt	r5, {}	; <UNPREDICTABLE>
    3ff0:	0000003f 	andeq	r0, r0, pc, lsr r0
    3ff4:	625f110e 	subsvs	r1, pc, #-2147483645	; 0x80000003
    3ff8:	b9050066 	stmdblt	r5, {r1, r2, r5, r6}
    3ffc:	000002b6 			; <UNDEFINED> instruction: 0x000002b6
    4000:	0aa70c10 	beq	fe9c7048 <__bss_end__+0xfe9ba5c8>
    4004:	ba050000 	blt	14400c <__bss_end__+0x13758c>
    4008:	00000025 	andeq	r0, r0, r5, lsr #32
    400c:	0b280c18 	bleq	a07074 <__bss_end__+0x9fa5f4>
    4010:	c1050000 	mrsgt	r0, (UNDEF: 5)
    4014:	0000010a 	andeq	r0, r0, sl, lsl #2
    4018:	0fcf0c1c 	svceq	0x00cf0c1c
    401c:	c3050000 	movwgt	r0, #20480	; 0x5000
    4020:	00000566 	andeq	r0, r0, r6, ror #10
    4024:	0fe90c20 	svceq	0x00e90c20
    4028:	c5050000 	strgt	r0, [r5, #-0]
    402c:	00000590 	muleq	r0, r0, r5
    4030:	0dc40c24 	stcleq	12, cr0, [r4, #144]	; 0x90
    4034:	c8050000 	stmdagt	r5, {}	; <UNPREDICTABLE>
    4038:	000005b4 			; <UNDEFINED> instruction: 0x000005b4
    403c:	0f890c28 	svceq	0x00890c28
    4040:	c9050000 	stmdbgt	r5, {}	; <UNPREDICTABLE>
    4044:	000005ce 	andeq	r0, r0, lr, asr #11
    4048:	755f112c 	ldrbvc	r1, [pc, #-300]	; 3f24 <__code_start__-0x40dc>
    404c:	cc050062 	stcgt	0, cr0, [r5], {98}	; 0x62
    4050:	000002b6 			; <UNDEFINED> instruction: 0x000002b6
    4054:	755f1130 	ldrbvc	r1, [pc, #-304]	; 3f2c <__code_start__-0x40d4>
    4058:	cd050070 	stcgt	0, cr0, [r5, #-448]	; 0xfffffe40
    405c:	000002db 	ldrdeq	r0, [r0], -fp
    4060:	755f1138 	ldrbvc	r1, [pc, #-312]	; 3f30 <__code_start__-0x40d0>
    4064:	ce050072 	mcrgt	0, 0, r0, cr5, cr2, {3}
    4068:	00000025 	andeq	r0, r0, r5, lsr #32
    406c:	0aeb0c3c 	beq	ffac7164 <__bss_end__+0xffaba6e4>
    4070:	d1050000 	mrsle	r0, (UNDEF: 5)
    4074:	000005d4 	ldrdeq	r0, [r0], -r4
    4078:	0f340c40 	svceq	0x00340c40
    407c:	d2050000 	andle	r0, r5, #0
    4080:	000005e4 	andeq	r0, r0, r4, ror #11
    4084:	6c5f1143 	ldfvse	f1, [pc], {67}	; 0x43
    4088:	d5050062 	strle	r0, [r5, #-98]	; 0x62
    408c:	000002b6 			; <UNDEFINED> instruction: 0x000002b6
    4090:	0b4e0c44 	bleq	13871a8 <__bss_end__+0x137a728>
    4094:	d8050000 	stmdale	r5, {}	; <UNPREDICTABLE>
    4098:	00000025 	andeq	r0, r0, r5, lsr #32
    409c:	0cb60c4c 	ldceq	12, cr0, [r6], #304	; 0x130
    40a0:	d9050000 	stmdble	r5, {}	; <UNPREDICTABLE>
    40a4:	0000007b 	andeq	r0, r0, fp, ror r0
    40a8:	0f1f0c50 	svceq	0x001f0c50
    40ac:	dc050000 	stcle	0, cr0, [r5], {-0}
    40b0:	00000429 	andeq	r0, r0, r9, lsr #8
    40b4:	0c9e0c54 	ldceq	12, cr0, [lr], {84}	; 0x54
    40b8:	e0050000 	and	r0, r5, r0
    40bc:	000000ff 	strdeq	r0, [r0], -pc	; <UNPREDICTABLE>
    40c0:	0d5a0c58 	ldcleq	12, cr0, [sl, #-352]	; 0xfffffea0
    40c4:	e2050000 	and	r0, r5, #0
    40c8:	000000f4 	strdeq	r0, [r0], -r4
    40cc:	0ca40c5c 	stceq	12, cr0, [r4], #368	; 0x170
    40d0:	e3050000 	movw	r0, #20480	; 0x5000
    40d4:	00000025 	andeq	r0, r0, r5, lsr #32
    40d8:	25150064 	ldrcs	r0, [r5, #-100]	; 0x64
    40dc:	29000000 	stmdbcs	r0, {}	; <UNPREDICTABLE>
    40e0:	16000004 	strne	r0, [r0], -r4
    40e4:	00000429 	andeq	r0, r0, r9, lsr #8
    40e8:	00010a16 	andeq	r0, r1, r6, lsl sl
    40ec:	010c1600 	tsteq	ip, r0, lsl #12
    40f0:	25160000 	ldrcs	r0, [r6, #-0]
    40f4:	00000000 	andeq	r0, r0, r0
    40f8:	0434040e 	ldrteq	r0, [r4], #-1038	; 0x40e
    40fc:	290f0000 	stmdbcs	pc, {}	; <UNPREDICTABLE>
    4100:	17000004 	strne	r0, [r0, -r4]
    4104:	00000da7 	andeq	r0, r0, r7, lsr #27
    4108:	38050428 	stmdacc	r5, {r3, r5, sl}
    410c:	00056602 	andeq	r6, r5, r2, lsl #12
    4110:	0d221800 	stceq	8, cr1, [r2, #-0]
    4114:	3a050000 	bcc	14411c <__bss_end__+0x13769c>
    4118:	00002502 	andeq	r2, r0, r2, lsl #10
    411c:	47180000 	ldrmi	r0, [r8, -r0]
    4120:	0500000b 	streq	r0, [r0, #-11]
    4124:	063b023f 			; <UNDEFINED> instruction: 0x063b023f
    4128:	18040000 	stmdane	r4, {}	; <UNPREDICTABLE>
    412c:	00000c3b 	andeq	r0, r0, fp, lsr ip
    4130:	3b023f05 	blcc	93d4c <__bss_end__+0x872cc>
    4134:	08000006 	stmdaeq	r0, {r1, r2}
    4138:	000bfc18 	andeq	pc, fp, r8, lsl ip	; <UNPREDICTABLE>
    413c:	023f0500 	eorseq	r0, pc, #0, 10
    4140:	0000063b 	andeq	r0, r0, fp, lsr r6
    4144:	0d7b180c 	ldcleq	8, cr1, [fp, #-48]!	; 0xffffffd0
    4148:	41050000 	mrsmi	r0, (UNDEF: 5)
    414c:	00002502 	andeq	r2, r0, r2, lsl #10
    4150:	72181000 	andsvc	r1, r8, #0
    4154:	0500000a 	streq	r0, [r0, #-10]
    4158:	081d0242 	ldmdaeq	sp, {r1, r6, r9}
    415c:	18140000 	ldmdane	r4, {}	; <UNPREDICTABLE>
    4160:	00000e99 	muleq	r0, r9, lr
    4164:	25024405 	strcs	r4, [r2, #-1029]	; 0x405
    4168:	30000000 	andcc	r0, r0, r0
    416c:	000d8518 	andeq	r8, sp, r8, lsl r5
    4170:	02450500 	subeq	r0, r5, #0, 10
    4174:	0000058a 	andeq	r0, r0, sl, lsl #11
    4178:	0ce81834 	stcleq	8, cr1, [r8], #208	; 0xd0
    417c:	47050000 	strmi	r0, [r5, -r0]
    4180:	00002502 	andeq	r2, r0, r2, lsl #10
    4184:	95183800 	ldrls	r3, [r8, #-2048]	; 0x800
    4188:	0500000d 	streq	r0, [r0, #-13]
    418c:	08380249 	ldmdaeq	r8!, {r0, r3, r6, r9}
    4190:	183c0000 	ldmdane	ip!, {}	; <UNPREDICTABLE>
    4194:	00000c7a 	andeq	r0, r0, sl, ror ip
    4198:	7c024c05 	stcvc	12, cr4, [r2], {5}
    419c:	40000001 	andmi	r0, r0, r1
    41a0:	000c1b18 	andeq	r1, ip, r8, lsl fp
    41a4:	024d0500 	subeq	r0, sp, #0, 10
    41a8:	00000025 	andeq	r0, r0, r5, lsr #32
    41ac:	0fa31844 	svceq	0x00a31844
    41b0:	4e050000 	cdpmi	0, 0, cr0, cr5, cr0, {0}
    41b4:	00017c02 	andeq	r7, r1, r2, lsl #24
    41b8:	ff184800 			; <UNDEFINED> instruction: 0xff184800
    41bc:	0500000c 	streq	r0, [r0, #-12]
    41c0:	083e024f 	ldmdaeq	lr!, {r0, r1, r2, r3, r6, r9}
    41c4:	184c0000 	stmdane	ip, {}^	; <UNPREDICTABLE>
    41c8:	00000c43 	andeq	r0, r0, r3, asr #24
    41cc:	25025205 	strcs	r5, [r2, #-517]	; 0x205
    41d0:	50000000 	andpl	r0, r0, r0
    41d4:	000b6a18 	andeq	r6, fp, r8, lsl sl
    41d8:	02530500 	subseq	r0, r3, #0, 10
    41dc:	0000010c 	andeq	r0, r0, ip, lsl #2
    41e0:	0d1b1854 	ldceq	8, cr1, [fp, #-336]	; 0xfffffeb0
    41e4:	76050000 	strvc	r0, [r5], -r0
    41e8:	0007fb02 	andeq	pc, r7, r2, lsl #22
    41ec:	e0195800 	ands	r5, r9, r0, lsl #16
    41f0:	0500000c 	streq	r0, [r0, #-12]
    41f4:	0299027a 	addseq	r0, r9, #-1610612729	; 0xa0000007
    41f8:	01480000 	mrseq	r0, (UNDEF: 72)
    41fc:	000c5819 	andeq	r5, ip, r9, lsl r8
    4200:	027b0500 	rsbseq	r0, fp, #0, 10
    4204:	0000025b 	andeq	r0, r0, fp, asr r2
    4208:	0519014c 	ldreq	r0, [r9, #-332]	; 0x14c
    420c:	0500000f 	streq	r0, [r0, #-15]
    4210:	084f027f 	stmdaeq	pc, {r0, r1, r2, r3, r4, r5, r6, r9}^	; <UNPREDICTABLE>
    4214:	02dc0000 	sbcseq	r0, ip, #0
    4218:	000b3019 	andeq	r3, fp, r9, lsl r0
    421c:	02840500 	addeq	r0, r4, #0, 10
    4220:	00000600 	andeq	r0, r0, r0, lsl #12
    4224:	151902e0 	ldrne	r0, [r9, #-736]	; 0x2e0
    4228:	0500000b 	streq	r0, [r0, #-11]
    422c:	085b0285 	ldmdaeq	fp, {r0, r2, r7, r9}^
    4230:	02ec0000 	rsceq	r0, ip, #0
    4234:	0b040e00 	bleq	107a3c <__bss_end__+0xfafbc>
    4238:	15000004 	strne	r0, [r0, #-4]
    423c:	00000025 	andeq	r0, r0, r5, lsr #32
    4240:	0000058a 	andeq	r0, r0, sl, lsl #11
    4244:	00042916 	andeq	r2, r4, r6, lsl r9
    4248:	010a1600 	tsteq	sl, r0, lsl #12
    424c:	8a160000 	bhi	584254 <__bss_end__+0x5777d4>
    4250:	16000005 	strne	r0, [r0], -r5
    4254:	00000025 	andeq	r0, r0, r5, lsr #32
    4258:	19040e00 	stmdbne	r4, {r9, sl, fp}
    425c:	0e000001 	cdpeq	0, 0, cr0, cr0, cr1, {0}
    4260:	00056c04 	andeq	r6, r5, r4, lsl #24
    4264:	00861500 	addeq	r1, r6, r0, lsl #10
    4268:	05b40000 	ldreq	r0, [r4, #0]!
    426c:	29160000 	ldmdbcs	r6, {}	; <UNPREDICTABLE>
    4270:	16000004 	strne	r0, [r0], -r4
    4274:	0000010a 	andeq	r0, r0, sl, lsl #2
    4278:	00008616 	andeq	r8, r0, r6, lsl r6
    427c:	00251600 	eoreq	r1, r5, r0, lsl #12
    4280:	0e000000 	cdpeq	0, 0, cr0, cr0, cr0, {0}
    4284:	00059604 	andeq	r9, r5, r4, lsl #12
    4288:	00251500 	eoreq	r1, r5, r0, lsl #10
    428c:	05ce0000 	strbeq	r0, [lr]
    4290:	29160000 	ldmdbcs	r6, {}	; <UNPREDICTABLE>
    4294:	16000004 	strne	r0, [r0], -r4
    4298:	0000010a 	andeq	r0, r0, sl, lsl #2
    429c:	ba040e00 	blt	107aa4 <__bss_end__+0xfb024>
    42a0:	09000005 	stmdbeq	r0, {r0, r2}
    42a4:	00000054 	andeq	r0, r0, r4, asr r0
    42a8:	000005e4 	andeq	r0, r0, r4, ror #11
    42ac:	0000cc0a 	andeq	ip, r0, sl, lsl #24
    42b0:	09000200 	stmdbeq	r0, {r9}
    42b4:	00000054 	andeq	r0, r0, r4, asr r0
    42b8:	000005f4 	strdeq	r0, [r0], -r4
    42bc:	0000cc0a 	andeq	ip, r0, sl, lsl #24
    42c0:	06000000 	streq	r0, [r0], -r0
    42c4:	00000d40 	andeq	r0, r0, r0, asr #26
    42c8:	e1011d05 	tst	r1, r5, lsl #26
    42cc:	1a000002 	bne	42dc <__code_start__-0x3d24>
    42d0:	00000ec7 	andeq	r0, r0, r7, asr #29
    42d4:	0121050c 	teqeq	r1, ip, lsl #10
    42d8:	00000635 	andeq	r0, r0, r5, lsr r6
    42dc:	000d6818 	andeq	r6, sp, r8, lsl r8
    42e0:	01230500 	teqeq	r3, r0, lsl #10
    42e4:	00000635 	andeq	r0, r0, r5, lsr r6
    42e8:	0c511800 	mrrceq	8, 0, r1, r1, cr0	; <UNPREDICTABLE>
    42ec:	24050000 	strcs	r0, [r5], #-0
    42f0:	00002501 	andeq	r2, r0, r1, lsl #10
    42f4:	3a180400 	bcc	6052fc <__bss_end__+0x5f887c>
    42f8:	0500000d 	streq	r0, [r0, #-13]
    42fc:	063b0125 	ldrteq	r0, [fp], -r5, lsr #2
    4300:	00080000 	andeq	r0, r8, r0
    4304:	0600040e 	streq	r0, [r0], -lr, lsl #8
    4308:	040e0000 	streq	r0, [lr], #-0
    430c:	000005f4 	strdeq	r0, [r0], -r4
    4310:	000a6a1a 	andeq	r6, sl, sl, lsl sl
    4314:	3d050e00 	stccc	14, cr0, [r5, #-0]
    4318:	00067601 	andeq	r7, r6, r1, lsl #12
    431c:	0dae1800 	stceq	8, cr1, [lr]
    4320:	3e050000 	cdpcc	0, 0, cr0, cr5, cr0, {0}
    4324:	00067601 	andeq	r7, r6, r1, lsl #12
    4328:	e8180000 	ldmda	r8, {}	; <UNPREDICTABLE>
    432c:	0500000d 	streq	r0, [r0, #-13]
    4330:	0676013f 			; <UNDEFINED> instruction: 0x0676013f
    4334:	18060000 	stmdane	r6, {}	; <UNPREDICTABLE>
    4338:	00000e6c 	andeq	r0, r0, ip, ror #28
    433c:	5b014005 	blpl	54358 <__bss_end__+0x478d8>
    4340:	0c000000 	stceq	0, cr0, [r0], {-0}
    4344:	005b0900 	subseq	r0, fp, r0, lsl #18
    4348:	06860000 	streq	r0, [r6], r0
    434c:	cc0a0000 	stcgt	0, cr0, [sl], {-0}
    4350:	02000000 	andeq	r0, r0, #0
    4354:	05d01b00 	ldrbeq	r1, [r0, #2816]	; 0xb00
    4358:	07870257 			; <UNDEFINED> instruction: 0x07870257
    435c:	ab180000 	blge	604364 <__bss_end__+0x5f78e4>
    4360:	0500000e 	streq	r0, [r0, #-14]
    4364:	002c0259 	eoreq	r0, ip, r9, asr r2
    4368:	18000000 	stmdane	r0, {}	; <UNPREDICTABLE>
    436c:	00000e56 	andeq	r0, r0, r6, asr lr
    4370:	0c025a05 	stceq	10, cr5, [r2], {5}
    4374:	04000001 	streq	r0, [r0], #-1
    4378:	000c6d18 	andeq	r6, ip, r8, lsl sp
    437c:	025b0500 	subseq	r0, fp, #0, 10
    4380:	00000787 	andeq	r0, r0, r7, lsl #15
    4384:	0f7a1808 	svceq	0x007a1808
    4388:	5c050000 	stcpl	0, cr0, [r5], {-0}
    438c:	00019202 	andeq	r9, r1, r2, lsl #4
    4390:	0c182400 	cfldrseq	mvf2, [r8], {-0}
    4394:	0500000c 	streq	r0, [r0, #-12]
    4398:	0025025d 	eoreq	r0, r5, sp, asr r2
    439c:	18480000 	stmdane	r8, {}^	; <UNPREDICTABLE>
    43a0:	00000d63 	andeq	r0, r0, r3, ror #26
    43a4:	69025e05 	stmdbvs	r2, {r0, r2, r9, sl, fp, ip, lr}
    43a8:	50000000 	andpl	r0, r0, r0
    43ac:	000f9018 	andeq	r9, pc, r8, lsl r0	; <UNPREDICTABLE>
    43b0:	025f0500 	subseq	r0, pc, #0, 10
    43b4:	00000641 	andeq	r0, r0, r1, asr #12
    43b8:	0d6e1858 	stcleq	8, cr1, [lr, #-352]!	; 0xfffffea0
    43bc:	60050000 	andvs	r0, r5, r0
    43c0:	0000f402 	andeq	pc, r0, r2, lsl #8
    43c4:	95186800 	ldrls	r6, [r8, #-2048]	; 0x800
    43c8:	0500000f 	streq	r0, [r0, #-15]
    43cc:	00f40261 	rscseq	r0, r4, r1, ror #4
    43d0:	18700000 	ldmdane	r0!, {}^	; <UNPREDICTABLE>
    43d4:	00000acf 	andeq	r0, r0, pc, asr #21
    43d8:	f4026205 	vst1.8	{d6-d9}, [r2], r5
    43dc:	78000000 	stmdavc	r0, {}	; <UNPREDICTABLE>
    43e0:	000ee718 	andeq	lr, lr, r8, lsl r7
    43e4:	02630500 	rsbeq	r0, r3, #0, 10
    43e8:	00000797 	muleq	r0, r7, r7
    43ec:	0c611880 	stcleq	8, cr1, [r1], #-512	; 0xfffffe00
    43f0:	64050000 	strvs	r0, [r5], #-0
    43f4:	0007a702 	andeq	sl, r7, r2, lsl #14
    43f8:	79188800 	ldmdbvc	r8, {fp, pc}
    43fc:	0500000e 	streq	r0, [r0, #-14]
    4400:	00250265 	eoreq	r0, r5, r5, ror #4
    4404:	18a00000 	stmiane	r0!, {}	; <UNPREDICTABLE>
    4408:	00000bb8 			; <UNDEFINED> instruction: 0x00000bb8
    440c:	f4026605 	vst1.8	{d6-d8}, [r2], r5
    4410:	a4000000 	strge	r0, [r0], #-0
    4414:	000ac018 	andeq	ip, sl, r8, lsl r0
    4418:	02670500 	rsbeq	r0, r7, #0, 10
    441c:	000000f4 	strdeq	r0, [r0], -r4
    4420:	0ba718ac 	bleq	fe9ca6d8 <__bss_end__+0xfe9bdc58>
    4424:	68050000 	stmdavs	r5, {}	; <UNPREDICTABLE>
    4428:	0000f402 	andeq	pc, r0, r2, lsl #8
    442c:	8718b400 	ldrhi	fp, [r8, -r0, lsl #8]
    4430:	0500000a 	streq	r0, [r0, #-10]
    4434:	00f40269 	rscseq	r0, r4, r9, ror #4
    4438:	18bc0000 	ldmne	ip!, {}	; <UNPREDICTABLE>
    443c:	00000a96 	muleq	r0, r6, sl
    4440:	f4026a05 	vst1.8	{d6-d7}, [r2], r5
    4444:	c4000000 	strgt	r0, [r0], #-0
    4448:	000d2018 	andeq	r2, sp, r8, lsl r0
    444c:	026b0500 	rsbeq	r0, fp, #0, 10
    4450:	00000025 	andeq	r0, r0, r5, lsr #32
    4454:	120900cc 	andne	r0, r9, #204	; 0xcc
    4458:	97000001 	strls	r0, [r0, -r1]
    445c:	0a000007 	beq	4480 <__code_start__-0x3b80>
    4460:	000000cc 	andeq	r0, r0, ip, asr #1
    4464:	12090019 	andne	r0, r9, #25
    4468:	a7000001 	strge	r0, [r0, -r1]
    446c:	0a000007 	beq	4490 <__code_start__-0x3b70>
    4470:	000000cc 	andeq	r0, r0, ip, asr #1
    4474:	12090007 	andne	r0, r9, #7
    4478:	b7000001 	strlt	r0, [r0, -r1]
    447c:	0a000007 	beq	44a0 <__code_start__-0x3b60>
    4480:	000000cc 	andeq	r0, r0, ip, asr #1
    4484:	f01b0017 			; <UNDEFINED> instruction: 0xf01b0017
    4488:	db027005 	blle	a04a4 <__bss_end__+0x93a24>
    448c:	18000007 	stmdane	r0, {r0, r1, r2}
    4490:	00000cd0 	ldrdeq	r0, [r0], -r0	; <UNPREDICTABLE>
    4494:	db027305 	blle	a10b0 <__bss_end__+0x94630>
    4498:	00000007 	andeq	r0, r0, r7
    449c:	000ede18 	andeq	sp, lr, r8, lsl lr
    44a0:	02740500 	rsbseq	r0, r4, #0, 10
    44a4:	000007eb 	andeq	r0, r0, fp, ror #15
    44a8:	db090078 	blle	244690 <__bss_end__+0x237c10>
    44ac:	eb000002 	bl	44bc <__code_start__-0x3b44>
    44b0:	0a000007 	beq	44d4 <__code_start__-0x3b2c>
    44b4:	000000cc 	andeq	r0, r0, ip, asr #1
    44b8:	2c09001d 	stccs	0, cr0, [r9], {29}
    44bc:	fb000000 	blx	44c6 <__code_start__-0x3b3a>
    44c0:	0a000007 	beq	44e4 <__code_start__-0x3b1c>
    44c4:	000000cc 	andeq	r0, r0, ip, asr #1
    44c8:	f01c001d 			; <UNDEFINED> instruction: 0xf01c001d
    44cc:	1d025505 	cfstr32ne	mvfx5, [r2, #-20]	; 0xffffffec
    44d0:	1d000008 	stcne	0, cr0, [r0, #-32]	; 0xffffffe0
    44d4:	00000da7 	andeq	r0, r0, r7, lsr #27
    44d8:	86026c05 	strhi	r6, [r2], -r5, lsl #24
    44dc:	1d000006 	stcne	0, cr0, [r0, #-24]	; 0xffffffe8
    44e0:	00000f3a 	andeq	r0, r0, sl, lsr pc
    44e4:	b7027505 	strlt	r7, [r2, -r5, lsl #10]
    44e8:	00000007 	andeq	r0, r0, r7
    44ec:	00011209 	andeq	r1, r1, r9, lsl #4
    44f0:	00082d00 	andeq	r2, r8, r0, lsl #26
    44f4:	00cc0a00 	sbceq	r0, ip, r0, lsl #20
    44f8:	00180000 	andseq	r0, r8, r0
    44fc:	0008381e 	andeq	r3, r8, lr, lsl r8
    4500:	04291600 	strteq	r1, [r9], #-1536	; 0x600
    4504:	0e000000 	cdpeq	0, 0, cr0, cr0, cr0, {0}
    4508:	00082d04 	andeq	r2, r8, r4, lsl #26
    450c:	7c040e00 	stcvc	14, cr0, [r4], {-0}
    4510:	1e000001 	cdpne	0, 0, cr0, cr0, cr1, {0}
    4514:	0000084f 	andeq	r0, r0, pc, asr #16
    4518:	00002516 	andeq	r2, r0, r6, lsl r5
    451c:	040e0000 	streq	r0, [lr], #-0
    4520:	00000855 	andeq	r0, r0, r5, asr r8
    4524:	0844040e 	stmdaeq	r4, {r1, r2, r3, sl}^
    4528:	f4090000 	vst4.8	{d0-d3}, [r9], r0
    452c:	6b000005 	blvs	4548 <__code_start__-0x3ab8>
    4530:	0a000008 	beq	4558 <__code_start__-0x3aa8>
    4534:	000000cc 	andeq	r0, r0, ip, asr #1
    4538:	8d1f0002 	ldchi	0, cr0, [pc, #-8]	; 4538 <__code_start__-0x3ac8>
    453c:	0500000e 	streq	r0, [r0, #-14]
    4540:	042902fd 	strteq	r0, [r9], #-765	; 0x2fd
    4544:	861f0000 	ldrhi	r0, [pc], -r0
    4548:	0500000e 	streq	r0, [r0, #-14]
    454c:	042f02fe 	strteq	r0, [pc], #-766	; 4554 <__code_start__-0x3aac>
    4550:	25150000 	ldrcs	r0, [r5, #-0]
    4554:	92000000 	andls	r0, r0, #0
    4558:	16000008 	strne	r0, [r0], -r8
    455c:	00000025 	andeq	r0, r0, r5, lsr #32
    4560:	06872000 	streq	r2, [r7], r0
    4564:	1d060000 	stcne	0, cr0, [r6, #-0]
    4568:	0000089d 	muleq	r0, sp, r8
    456c:	0883040e 	stmeq	r3, {r1, r2, r3, sl}
    4570:	25150000 	ldrcs	r0, [r5, #-0]
    4574:	b2000000 	andlt	r0, r0, #0
    4578:	16000008 	strne	r0, [r0], -r8
    457c:	0000058a 	andeq	r0, r0, sl, lsl #11
    4580:	06c42000 	strbeq	r2, [r4], r0
    4584:	22060000 	andcs	r0, r6, #0
    4588:	000008bd 			; <UNDEFINED> instruction: 0x000008bd
    458c:	08a3040e 	stmiaeq	r3!, {r1, r2, r3, sl}
    4590:	01210000 	teqeq	r1, r0
    4594:	00000054 	andeq	r0, r0, r4, asr r0
    4598:	09000c08 	stmdbeq	r0, {r3, sl, fp}
    459c:	b0220000 	eorlt	r0, r2, r0
    45a0:	0000000a 	andeq	r0, r0, sl
    45a4:	000ecd22 	andeq	ip, lr, r2, lsr #26
    45a8:	25220100 	strcs	r0, [r2, #-256]!	; 0x100
    45ac:	0400000f 	streq	r0, [r0], #-15
    45b0:	000af122 	andeq	pc, sl, r2, lsr #2
    45b4:	88220500 	stmdahi	r2!, {r8, sl}
    45b8:	0600000c 	streq	r0, [r0], -ip
    45bc:	000f4222 	andeq	r4, pc, r2, lsr #4
    45c0:	51220700 	teqpl	r2, r0, lsl #14
    45c4:	0300000f 	movweq	r0, #15
    45c8:	000f6022 	andeq	r6, pc, r2, lsr #32
    45cc:	10000200 	andne	r0, r0, r0, lsl #4
    45d0:	00000b5e 	andeq	r0, r0, lr, asr fp
    45d4:	9006072c 	andls	r0, r6, ip, lsr #14
    45d8:	11000009 	tstne	r0, r9
    45dc:	07006f69 	streq	r6, [r0, -r9, ror #30]
    45e0:	00003309 	andeq	r3, r0, r9, lsl #6
    45e4:	69110000 	ldmdbvs	r1, {}	; <UNPREDICTABLE>
    45e8:	07007265 	streq	r7, [r0, -r5, ror #4]
    45ec:	0000330a 	andeq	r3, r0, sl, lsl #6
    45f0:	69110400 	ldmdbvs	r1, {sl}
    45f4:	07007269 	streq	r7, [r0, -r9, ror #4]
    45f8:	00003311 	andeq	r3, r0, r1, lsl r3
    45fc:	6c110800 	ldcvs	8, cr0, [r1], {-0}
    4600:	07007263 	streq	r7, [r0, -r3, ror #4]
    4604:	00003313 	andeq	r3, r0, r3, lsl r3
    4608:	6d110c00 	ldcvs	12, cr0, [r1, #-0]
    460c:	07007263 	streq	r7, [r0, -r3, ror #4]
    4610:	00003314 	andeq	r3, r0, r4, lsl r3
    4614:	6c111000 	ldcvs	0, cr1, [r1], {-0}
    4618:	07007273 	smlsdxeq	r0, r3, r2, r7
    461c:	00003315 	andeq	r3, r0, r5, lsl r3
    4620:	6d111400 	cfldrsvs	mvf1, [r1, #-0]
    4624:	07007273 	smlsdxeq	r0, r3, r2, r7
    4628:	00003316 	andeq	r3, r0, r6, lsl r3
    462c:	e00c1800 	and	r1, ip, r0, lsl #16
    4630:	0700000d 	streq	r0, [r0, -sp]
    4634:	00003317 	andeq	r3, r0, r7, lsl r3
    4638:	060c1c00 	streq	r1, [ip], -r0, lsl #24
    463c:	0700000b 	streq	r0, [r0, -fp]
    4640:	0000331b 	andeq	r3, r0, fp, lsl r3
    4644:	e60c2000 	str	r2, [ip], -r0
    4648:	0700000a 	streq	r0, [r0, -sl]
    464c:	0000331d 	andeq	r3, r0, sp, lsl r3
    4650:	ca0c2400 	bgt	30d658 <__bss_end__+0x300bd8>
    4654:	0700000d 	streq	r0, [r0, -sp]
    4658:	0000331e 	andeq	r3, r0, lr, lsl r3
    465c:	23002800 	movwcs	r2, #2048	; 0x800
    4660:	00000bce 	andeq	r0, r0, lr, asr #23
    4664:	09a50701 	stmibeq	r5!, {r0, r8, r9, sl}
    4668:	50040000 	andpl	r0, r4, r0
    466c:	040e2021 	streq	r2, [lr], #-33	; 0x21
    4670:	00000033 	andeq	r0, r0, r3, lsr r0
    4674:	00099f0f 	andeq	r9, r9, pc, lsl #30
    4678:	0cfa2300 	ldcleq	3, cr2, [sl]
    467c:	28010000 	stmdacs	r1, {}	; <UNPREDICTABLE>
    4680:	000009bf 			; <UNDEFINED> instruction: 0x000009bf
    4684:	20215040 	eorcs	r5, r1, r0, asr #32
    4688:	0900040e 	stmdbeq	r0, {r1, r2, r3, sl}
    468c:	b90f0000 	stmdblt	pc, {}	; <UNPREDICTABLE>
    4690:	24000009 	strcs	r0, [r0], #-9
    4694:	00000f17 	andeq	r0, r0, r7, lsl pc
    4698:	0025a701 	eoreq	sl, r5, r1, lsl #14
    469c:	9c340000 	ldcls	0, cr0, [r4], #-0
    46a0:	00100000 	andseq	r0, r0, r0
    46a4:	9c010000 	stcls	0, cr0, [r1], {-0}
    46a8:	000009f0 	strdeq	r0, [r0], -r0	; <UNPREDICTABLE>
    46ac:	009c3c25 	addseq	r3, ip, r5, lsr #24
    46b0:	000c9c00 	andeq	r9, ip, r0, lsl #24
    46b4:	9c402500 	cfstr64ls	mvdx2, [r0], {-0}
    46b8:	0ad20000 	beq	ff4846c0 <__bss_end__+0xff477c40>
    46bc:	26000000 	strcs	r0, [r0], -r0
    46c0:	0000066c 	andeq	r0, r0, ip, ror #12
    46c4:	9c049f01 	stcls	15, cr9, [r4], {1}
    46c8:	00300000 	eorseq	r0, r0, r0
    46cc:	9c010000 	stcls	0, cr0, [r1], {-0}
    46d0:	00000a4e 	andeq	r0, r0, lr, asr #20
    46d4:	01006327 	tsteq	r0, r7, lsr #6
    46d8:	00002c9f 	muleq	r0, pc, ip	; <UNPREDICTABLE>
    46dc:	00104f00 	andseq	r4, r0, r0, lsl #30
    46e0:	9c102500 	cfldr32ls	mvfx2, [r0], {-0}
    46e4:	0c9c0000 	ldceq	0, cr0, [ip], {0}
    46e8:	14250000 	strtne	r0, [r5], #-0
    46ec:	a500009c 	strge	r0, [r0, #-156]	; 0x9c
    46f0:	2800000a 	stmdacs	r0, {r1, r3}
    46f4:	00009c28 	andeq	r9, r0, r8, lsr #24
    46f8:	00000ca7 	andeq	r0, r0, r7, lsr #25
    46fc:	00000a44 	andeq	r0, r0, r4, asr #20
    4700:	05500129 	ldrbeq	r0, [r0, #-297]	; 0x129
    4704:	2150400c 	cmpcs	r0, ip
    4708:	51012920 	tstpl	r1, r0, lsr #18
    470c:	08007405 	stmdaeq	r0, {r0, r2, sl, ip, sp, lr}
    4710:	25001aff 	strcs	r1, [r0, #-2815]	; 0xaff
    4714:	00009c2c 	andeq	r9, r0, ip, lsr #24
    4718:	00000c9c 	muleq	r0, ip, ip
    471c:	0c312400 	cfldrseq	mvf2, [r1], #-0
    4720:	97010000 	strls	r0, [r1, -r0]
    4724:	00000025 	andeq	r0, r0, r5, lsr #32
    4728:	00009bd4 	ldrdeq	r9, [r0], -r4
    472c:	00000030 	andeq	r0, r0, r0, lsr r0
    4730:	0aa59c01 	beq	fe96b73c <__bss_end__+0xfe95ecbc>
    4734:	632a0000 	teqvs	sl, #0
    4738:	259b0100 	ldrcs	r0, [fp, #256]	; 0x100
    473c:	01000000 	mrseq	r0, (UNDEF: 0)
    4740:	9bdc2554 	blls	ff70dc98 <__bss_end__+0xff701218>
    4744:	0c9c0000 	ldceq	0, cr0, [ip], {0}
    4748:	e0250000 	eor	r0, r5, r0
    474c:	d200009b 	andle	r0, r0, #155	; 0x9b
    4750:	2800000a 	stmdacs	r0, {r1, r3}
    4754:	00009bf0 	strdeq	r9, [r0], -r0
    4758:	00000cb2 			; <UNDEFINED> instruction: 0x00000cb2
    475c:	00000a9b 	muleq	r0, fp, sl
    4760:	05500129 	ldrbeq	r0, [r0, #-297]	; 0x129
    4764:	2150400c 	cmpcs	r0, ip
    4768:	f8250020 			; <UNDEFINED> instruction: 0xf8250020
    476c:	9c00009b 	stcls	0, cr0, [r0], {155}	; 0x9b
    4770:	0000000c 	andeq	r0, r0, ip
    4774:	000be524 	andeq	lr, fp, r4, lsr #10
    4778:	25880100 	strcs	r0, [r8, #256]	; 0x100
    477c:	b4000000 	strlt	r0, [r0], #-0
    4780:	2000009b 	mulcs	r0, fp, r0
    4784:	01000000 	mrseq	r0, (UNDEF: 0)
    4788:	000ad29c 	muleq	sl, ip, r2
    478c:	9bc02b00 	blls	ff00f394 <__bss_end__+0xff002914>
    4790:	0cb20000 	ldceq	0, cr0, [r2]
    4794:	01290000 	teqeq	r9, r0
    4798:	640c0550 	strvs	r0, [ip], #-1360	; 0x550
    479c:	00202150 	eoreq	r2, r0, r0, asr r1
    47a0:	0ef72400 	cdpeq	4, 15, cr2, cr7, cr0, {0}
    47a4:	7f010000 	svcvc	0x00010000
    47a8:	00000025 	andeq	r0, r0, r5, lsr #32
    47ac:	00009b9c 	muleq	r0, ip, fp
    47b0:	00000018 	andeq	r0, r0, r8, lsl r0
    47b4:	0aff9c01 	beq	fffeb7c0 <__bss_end__+0xfffded40>
    47b8:	a82b0000 	stmdage	fp!, {}	; <UNPREDICTABLE>
    47bc:	b200009b 	andlt	r0, r0, #155	; 0x9b
    47c0:	2900000c 	stmdbcs	r0, {r2, r3}
    47c4:	0c055001 	stceq	0, cr5, [r5], {1}
    47c8:	20215064 	eorcs	r5, r1, r4, rrx
    47cc:	7d260000 	stcvc	0, cr0, [r6, #-0]
    47d0:	0100000a 	tsteq	r0, sl
    47d4:	009aec3a 	addseq	lr, sl, sl, lsr ip
    47d8:	0000b000 	andeq	fp, r0, r0
    47dc:	3d9c0100 	ldfccs	f0, [ip]
    47e0:	2800000c 	stmdacs	r0, {r2, r3}
    47e4:	00009afc 	strdeq	r9, [r0], -ip
    47e8:	00000cbd 			; <UNDEFINED> instruction: 0x00000cbd
    47ec:	00000b2c 	andeq	r0, r0, ip, lsr #22
    47f0:	01500129 	cmpeq	r0, r9, lsr #2
    47f4:	5101293e 	tstpl	r1, lr, lsr r9
    47f8:	28003201 	stmdacs	r0, {r0, r9, ip, sp}
    47fc:	00009b08 	andeq	r9, r0, r8, lsl #22
    4800:	00000cbd 			; <UNDEFINED> instruction: 0x00000cbd
    4804:	00000b44 	andeq	r0, r0, r4, asr #22
    4808:	01500129 	cmpeq	r0, r9, lsr #2
    480c:	5101293f 	tstpl	r1, pc, lsr r9
    4810:	25003201 	strcs	r3, [r0, #-513]	; 0x201
    4814:	00009b0c 	andeq	r9, r0, ip, lsl #22
    4818:	00000c9c 	muleq	r0, ip, ip
    481c:	009b1828 	addseq	r1, fp, r8, lsr #16
    4820:	000c3d00 	andeq	r3, ip, r0, lsl #26
    4824:	000b6900 	andeq	r6, fp, r0, lsl #18
    4828:	50012900 	andpl	r2, r1, r0, lsl #18
    482c:	50040c05 	andpl	r0, r4, r5, lsl #24
    4830:	01292021 	teqeq	r9, r1, lsr #32
    4834:	00310151 	eorseq	r0, r1, r1, asr r1
    4838:	009b1c25 	addseq	r1, fp, r5, lsr #24
    483c:	000c9c00 	andeq	r9, ip, r0, lsl #24
    4840:	9b2c2800 	blls	b0e848 <__bss_end__+0xb01dc8>
    4844:	0ca70000 	stceq	0, cr0, [r7]
    4848:	0b8b0000 	bleq	fe2c4850 <__bss_end__+0xfe2b7dd0>
    484c:	01290000 	teqeq	r9, r0
    4850:	00740250 	rsbseq	r0, r4, r0, asr r2
    4854:	01510129 	cmpeq	r1, r9, lsr #2
    4858:	38280030 	stmdacc	r8!, {r4, r5}
    485c:	a700009b 			; <UNDEFINED> instruction: 0xa700009b
    4860:	a700000c 	strge	r0, [r0, -ip]
    4864:	2900000b 	stmdbcs	r0, {r0, r1, r3}
    4868:	0c055001 	stceq	0, cr5, [r5], {1}
    486c:	20215044 	eorcs	r5, r1, r4, asr #32
    4870:	01510129 	cmpeq	r1, r9, lsr #2
    4874:	44280030 	strtmi	r0, [r8], #-48	; 0x30
    4878:	a700009b 			; <UNDEFINED> instruction: 0xa700009b
    487c:	c300000c 	movwgt	r0, #12
    4880:	2900000b 	stmdbcs	r0, {r0, r1, r3}
    4884:	0c055001 	stceq	0, cr5, [r5], {1}
    4888:	2021504c 	eorcs	r5, r1, ip, asr #32
    488c:	01510129 	cmpeq	r1, r9, lsr #2
    4890:	50280033 	eorpl	r0, r8, r3, lsr r0
    4894:	a700009b 			; <UNDEFINED> instruction: 0xa700009b
    4898:	df00000c 	svcle	0x0000000c
    489c:	2900000b 	stmdbcs	r0, {r0, r1, r3}
    48a0:	0c055001 	stceq	0, cr5, [r5], {1}
    48a4:	20215050 	eorcs	r5, r1, r0, asr r0
    48a8:	01510129 	cmpeq	r1, r9, lsr #2
    48ac:	5c280030 	stcpl	0, cr0, [r8], #-192	; 0xffffff40
    48b0:	a700009b 			; <UNDEFINED> instruction: 0xa700009b
    48b4:	fc00000c 	stc2	0, cr0, [r0], {12}
    48b8:	2900000b 	stmdbcs	r0, {r0, r1, r3}
    48bc:	0c055001 	stceq	0, cr5, [r5], {1}
    48c0:	20215048 	eorcs	r5, r1, r8, asr #32
    48c4:	02510129 	subseq	r0, r1, #1073741834	; 0x4000000a
    48c8:	2800c708 	stmdacs	r0, {r3, r8, r9, sl, lr, pc}
    48cc:	00009b68 	andeq	r9, r0, r8, ror #22
    48d0:	00000ca7 	andeq	r0, r0, r7, lsr #25
    48d4:	00000c1a 	andeq	r0, r0, sl, lsl ip
    48d8:	05500129 	ldrbeq	r0, [r0, #-297]	; 0x129
    48dc:	2150680c 	cmpcs	r0, ip, lsl #16
    48e0:	51012920 	tstpl	r1, r0, lsr #18
    48e4:	010e0a03 	tsteq	lr, r3, lsl #20
    48e8:	9b742800 	blls	1d0e8f0 <__bss_end__+0x1d01e70>
    48ec:	0ca70000 	stceq	0, cr0, [r7]
    48f0:	0c330000 	ldceq	0, cr0, [r3], #-0
    48f4:	01290000 	teqeq	r9, r0
    48f8:	00740250 	rsbseq	r0, r4, r0, asr r2
    48fc:	01510129 	cmpeq	r1, r9, lsr #2
    4900:	78250033 	stmdavc	r5!, {r0, r1, r4, r5}
    4904:	9c00009b 	stcls	0, cr0, [r0], {155}	; 0x9b
    4908:	0000000c 	andeq	r0, r0, ip
    490c:	000f0f2c 	andeq	r0, pc, ip, lsr #30
    4910:	cc2d0100 	stfgts	f0, [sp], #-0
    4914:	2000009a 	mulcs	r0, sl, r0
    4918:	01000000 	mrseq	r0, (UNDEF: 0)
    491c:	000c959c 	muleq	ip, ip, r5
    4920:	00672d00 	rsbeq	r2, r7, r0, lsl #26
    4924:	2d010000 	stccs	0, cr0, [r1, #-0]
    4928:	00000c95 	muleq	r0, r5, ip
    492c:	0000106d 	andeq	r1, r0, sp, rrx
    4930:	6c617627 	stclvs	6, cr7, [r1], #-156	; 0xffffff64
    4934:	2c2d0100 	stfcss	f0, [sp], #-0
    4938:	8b000000 	blhi	4940 <__code_start__-0x36c0>
    493c:	28000010 	stmdacs	r0, {r4}
    4940:	00009adc 	ldrdeq	r9, [r0], -ip
    4944:	00000cb2 			; <UNDEFINED> instruction: 0x00000cb2
    4948:	00000c84 	andeq	r0, r0, r4, lsl #25
    494c:	02500129 	subseq	r0, r0, #1073741834	; 0x4000000a
    4950:	2b000074 	blcs	4b28 <__code_start__-0x34d8>
    4954:	00009ae8 	andeq	r9, r0, r8, ror #21
    4958:	00000ca7 	andeq	r0, r0, r7, lsr #25
    495c:	02500129 	subseq	r0, r0, #1073741834	; 0x4000000a
    4960:	00000074 	andeq	r0, r0, r4, ror r0
    4964:	0c9b040e 	cfldrseq	mvf0, [fp], {14}
    4968:	2f2e0000 	svccs	0x002e0000
    496c:	00000933 	andeq	r0, r0, r3, lsr r9
    4970:	00000933 	andeq	r0, r0, r3, lsr r9
    4974:	ee2f8906 	cdp	9, 2, cr8, cr15, cr6, {0}
    4978:	ee00000d 	cdp	0, 0, cr0, cr0, cr13, {0}
    497c:	0600000d 	streq	r0, [r0], -sp
    4980:	0ef12f9c 	mrceq	15, 7, r2, cr1, cr12, {4}
    4984:	0ef10000 	cdpeq	0, 15, cr0, cr1, cr0, {0}
    4988:	a8060000 	stmdage	r6, {}	; <UNPREDICTABLE>
    498c:	000cbe2f 	andeq	fp, ip, pc, lsr #28
    4990:	000cbe00 	andeq	fp, ip, r0, lsl #28
    4994:	00190800 	andseq	r0, r9, r0, lsl #16
    4998:	00000b70 	andeq	r0, r0, r0, ror fp
    499c:	173c0004 	ldrne	r0, [ip, -r4]!
    49a0:	01040000 	mrseq	r0, (UNDEF: 4)
    49a4:	00000df4 	strdeq	r0, [r0], -r4
    49a8:	000fc40c 	andeq	ip, pc, ip, lsl #8
    49ac:	000b7200 	andeq	r7, fp, r0, lsl #4
    49b0:	009c4400 	addseq	r4, ip, r0, lsl #8
    49b4:	00012000 	andeq	r2, r1, r0
    49b8:	00135d00 	andseq	r5, r3, r0, lsl #26
    49bc:	05040200 	streq	r0, [r4, #-512]	; 0x200
    49c0:	00746e69 	rsbseq	r6, r4, r9, ror #28
    49c4:	af070403 	svcge	0x00070403
    49c8:	04000000 	streq	r0, [r0], #-0
    49cc:	0000002c 	andeq	r0, r0, ip, lsr #32
    49d0:	90060103 	andls	r0, r6, r3, lsl #2
    49d4:	03000001 	movweq	r0, #1
    49d8:	01b20502 			; <UNDEFINED> instruction: 0x01b20502
    49dc:	04030000 	streq	r0, [r3], #-0
    49e0:	0000d005 	andeq	sp, r0, r5
    49e4:	05080300 	streq	r0, [r8, #-768]	; 0x300
    49e8:	000000cb 	andeq	r0, r0, fp, asr #1
    49ec:	8e080103 	adfhie	f0, f0, f3
    49f0:	03000001 	movweq	r0, #1
    49f4:	012d0702 	teqeq	sp, r2, lsl #14
    49f8:	04030000 	streq	r0, [r3], #-0
    49fc:	0000aa07 	andeq	sl, r0, r7, lsl #20
    4a00:	07080300 	streq	r0, [r8, -r0, lsl #6]
    4a04:	000000a5 	andeq	r0, r0, r5, lsr #1
    4a08:	000d0905 	andeq	r0, sp, r5, lsl #18
    4a0c:	25070200 	strcs	r0, [r7, #-512]	; 0x200
    4a10:	05000000 	streq	r0, [r0, #-0]
    4a14:	00000cf3 	strdeq	r0, [r0], -r3
    4a18:	00462c03 	subeq	r2, r6, r3, lsl #24
    4a1c:	cf050000 	svcgt	0x00050000
    4a20:	0300000d 	movweq	r0, #13
    4a24:	00004672 	andeq	r4, r0, r2, ror r6
    4a28:	0c970600 	ldceq	6, cr0, [r7], {0}
    4a2c:	65040000 	strvs	r0, [r4, #-0]
    4a30:	00002c01 	andeq	r2, r0, r1, lsl #24
    4a34:	03040700 	movweq	r0, #18176	; 0x4700
    4a38:	0000bca6 	andeq	fp, r0, r6, lsr #25
    4a3c:	0c820800 	stceq	8, cr0, [r2], {0}
    4a40:	a8030000 	stmdage	r3, {}	; <UNPREDICTABLE>
    4a44:	00000091 	muleq	r0, r1, r0
    4a48:	000c2a08 	andeq	r2, ip, r8, lsl #20
    4a4c:	bca90300 	stclt	3, cr0, [r9]
    4a50:	00000000 	andeq	r0, r0, r0
    4a54:	00005409 	andeq	r5, r0, r9, lsl #8
    4a58:	0000cc00 	andeq	ip, r0, r0, lsl #24
    4a5c:	00cc0a00 	sbceq	r0, ip, r0, lsl #20
    4a60:	00030000 	andeq	r0, r3, r0
    4a64:	52070403 	andpl	r0, r7, #50331648	; 0x3000000
    4a68:	0b000001 	bleq	4a74 <__code_start__-0x358c>
    4a6c:	f4a30308 	vld4.8	{d0[0],d1[0],d2[0],d3[0]}, [r3], r8
    4a70:	0c000000 	stceq	0, cr0, [r0], {-0}
    4a74:	00000db4 			; <UNDEFINED> instruction: 0x00000db4
    4a78:	0025a503 	eoreq	sl, r5, r3, lsl #10
    4a7c:	0c000000 	stceq	0, cr0, [r0], {-0}
    4a80:	00000dbc 			; <UNDEFINED> instruction: 0x00000dbc
    4a84:	009daa03 	addseq	sl, sp, r3, lsl #20
    4a88:	00040000 	andeq	r0, r4, r0
    4a8c:	000d4705 	andeq	r4, sp, r5, lsl #14
    4a90:	d3ab0300 			; <UNDEFINED> instruction: 0xd3ab0300
    4a94:	05000000 	streq	r0, [r0, #-0]
    4a98:	00000bf3 	strdeq	r0, [r0], -r3
    4a9c:	0070af03 	rsbseq	sl, r0, r3, lsl #30
    4aa0:	040d0000 	streq	r0, [sp], #-0
    4aa4:	0112040e 	tsteq	r2, lr, lsl #8
    4aa8:	01030000 	mrseq	r0, (UNDEF: 3)
    4aac:	00019708 	andeq	r9, r1, r8, lsl #14
    4ab0:	01120400 	tsteq	r2, r0, lsl #8
    4ab4:	71050000 	mrsvc	r0, (UNDEF: 5)
    4ab8:	0500000e 	streq	r0, [r0, #-14]
    4abc:	00006216 	andeq	r6, r0, r6, lsl r2
    4ac0:	0c040f00 	stceq	15, cr0, [r4], {-0}
    4ac4:	05180000 	ldreq	r0, [r8, #-0]
    4ac8:	00017c2d 	andeq	r7, r1, sp, lsr #24
    4acc:	0d680c00 	stcleq	12, cr0, [r8, #-0]
    4ad0:	2f050000 	svccs	0x00050000
    4ad4:	0000017c 	andeq	r0, r0, ip, ror r1
    4ad8:	6b5f1000 	blvs	17c8ae0 <__bss_end__+0x17bc060>
    4adc:	25300500 	ldrcs	r0, [r0, #-1280]!	; 0x500
    4ae0:	04000000 	streq	r0, [r0], #-0
    4ae4:	000d9f0c 	andeq	r9, sp, ip, lsl #30
    4ae8:	25300500 	ldrcs	r0, [r0, #-1280]!	; 0x500
    4aec:	08000000 	stmdaeq	r0, {}	; <UNPREDICTABLE>
    4af0:	000bdf0c 	andeq	sp, fp, ip, lsl #30
    4af4:	25300500 	ldrcs	r0, [r0, #-1280]!	; 0x500
    4af8:	0c000000 	stceq	0, cr0, [r0], {-0}
    4afc:	000eb80c 	andeq	fp, lr, ip, lsl #16
    4b00:	25300500 	ldrcs	r0, [r0, #-1280]!	; 0x500
    4b04:	10000000 	andne	r0, r0, r0
    4b08:	00785f10 	rsbseq	r5, r8, r0, lsl pc
    4b0c:	01823105 	orreq	r3, r2, r5, lsl #2
    4b10:	00140000 	andseq	r0, r4, r0
    4b14:	0129040e 	teqeq	r9, lr, lsl #8
    4b18:	1e090000 	cdpne	0, 0, cr0, cr9, cr0, {0}
    4b1c:	92000001 	andls	r0, r0, #1
    4b20:	0a000001 	beq	4b2c <__code_start__-0x34d4>
    4b24:	000000cc 	andeq	r0, r0, ip, asr #1
    4b28:	250f0000 	strcs	r0, [pc, #-0]	; 4b30 <__code_start__-0x34d0>
    4b2c:	2400000c 	strcs	r0, [r0], #-12
    4b30:	020b3505 	andeq	r3, fp, #20971520	; 0x1400000
    4b34:	dd0c0000 	stcle	0, cr0, [ip, #-0]
    4b38:	0500000a 	streq	r0, [r0, #-10]
    4b3c:	00002537 	andeq	r2, r0, r7, lsr r5
    4b40:	d70c0000 	strle	r0, [ip, -r0]
    4b44:	0500000d 	streq	r0, [r0, #-13]
    4b48:	00002538 	andeq	r2, r0, r8, lsr r5
    4b4c:	0b0c0400 	bleq	305b54 <__bss_end__+0x2f90d4>
    4b50:	0500000b 	streq	r0, [r0, #-11]
    4b54:	00002539 	andeq	r2, r0, r9, lsr r5
    4b58:	a80c0800 	stmdage	ip, {fp}
    4b5c:	0500000f 	streq	r0, [r0, #-15]
    4b60:	0000253a 	andeq	r2, r0, sl, lsr r5
    4b64:	d70c0c00 	strle	r0, [ip, -r0, lsl #24]
    4b68:	0500000c 	streq	r0, [r0, #-12]
    4b6c:	0000253b 	andeq	r2, r0, fp, lsr r5
    4b70:	ac0c1000 	stcge	0, cr1, [ip], {-0}
    4b74:	0500000c 	streq	r0, [r0, #-12]
    4b78:	0000253c 	andeq	r2, r0, ip, lsr r5
    4b7c:	bd0c1400 	cfstrslt	mvf1, [ip, #-0]
    4b80:	0500000e 	streq	r0, [r0, #-14]
    4b84:	0000253d 	andeq	r2, r0, sp, lsr r5
    4b88:	290c1800 	stmdbcs	ip, {fp, ip}
    4b8c:	0500000d 	streq	r0, [r0, #-13]
    4b90:	0000253e 	andeq	r2, r0, lr, lsr r5
    4b94:	6f0c1c00 	svcvs	0x000c1c00
    4b98:	0500000f 	streq	r0, [r0, #-15]
    4b9c:	0000253f 	andeq	r2, r0, pc, lsr r5
    4ba0:	11002000 	mrsne	r2, (UNDEF: 0)
    4ba4:	00000b1a 	andeq	r0, r0, sl, lsl fp
    4ba8:	48050108 	stmdami	r5, {r3, r8}
    4bac:	0000024b 	andeq	r0, r0, fp, asr #4
    4bb0:	000bc60c 	andeq	ip, fp, ip, lsl #12
    4bb4:	4b490500 	blmi	1245fbc <__bss_end__+0x123953c>
    4bb8:	00000002 	andeq	r0, r0, r2
    4bbc:	000a580c 	andeq	r5, sl, ip, lsl #16
    4bc0:	4b4a0500 	blmi	1285fc8 <__bss_end__+0x1279548>
    4bc4:	80000002 	andhi	r0, r0, r2
    4bc8:	000e6312 	andeq	r6, lr, r2, lsl r3
    4bcc:	1e4c0500 	cdpne	5, 4, cr0, cr12, cr0, {0}
    4bd0:	00000001 	andeq	r0, r0, r1
    4bd4:	0b3f1201 	bleq	fc93e0 <__bss_end__+0xfbc960>
    4bd8:	4f050000 	svcmi	0x00050000
    4bdc:	0000011e 	andeq	r0, r0, lr, lsl r1
    4be0:	09000104 	stmdbeq	r0, {r2, r8}
    4be4:	0000010a 	andeq	r0, r0, sl, lsl #2
    4be8:	0000025b 	andeq	r0, r0, fp, asr r2
    4bec:	0000cc0a 	andeq	ip, r0, sl, lsl #24
    4bf0:	11001f00 	tstne	r0, r0, lsl #30
    4bf4:	00000ce0 	andeq	r0, r0, r0, ror #25
    4bf8:	5b050190 	blpl	145240 <__bss_end__+0x1387c0>
    4bfc:	00000299 	muleq	r0, r9, r2
    4c00:	000d680c 	andeq	r6, sp, ip, lsl #16
    4c04:	995c0500 	ldmdbls	ip, {r8, sl}^
    4c08:	00000002 	andeq	r0, r0, r2
    4c0c:	000d800c 	andeq	r8, sp, ip
    4c10:	255d0500 	ldrbcs	r0, [sp, #-1280]	; 0x500
    4c14:	04000000 	streq	r0, [r0], #-0
    4c18:	000bda0c 	andeq	sp, fp, ip, lsl #20
    4c1c:	9f5f0500 	svcls	0x005f0500
    4c20:	08000002 	stmdaeq	r0, {r1}
    4c24:	000b1a0c 	andeq	r1, fp, ip, lsl #20
    4c28:	0b600500 	bleq	1806030 <__bss_end__+0x17f95b0>
    4c2c:	88000002 	stmdahi	r0, {r1}
    4c30:	5b040e00 	blpl	108438 <__bss_end__+0xfb9b8>
    4c34:	09000002 	stmdbeq	r0, {r1}
    4c38:	000002af 	andeq	r0, r0, pc, lsr #5
    4c3c:	000002af 	andeq	r0, r0, pc, lsr #5
    4c40:	0000cc0a 	andeq	ip, r0, sl, lsl #24
    4c44:	0e001f00 	cdpeq	15, 0, cr1, cr0, cr0, {0}
    4c48:	0002b504 	andeq	fp, r2, r4, lsl #10
    4c4c:	330f1300 	movwcc	r1, #62208	; 0xf300
    4c50:	0800000d 	stmdaeq	r0, {r0, r2, r3}
    4c54:	02db7305 	sbcseq	r7, fp, #335544320	; 0x14000000
    4c58:	000c0000 	andeq	r0, ip, r0
    4c5c:	0500000b 	streq	r0, [r0, #-11]
    4c60:	0002db74 	andeq	sp, r2, r4, ror fp
    4c64:	640c0000 	strvs	r0, [ip], #-0
    4c68:	0500000a 	streq	r0, [r0, #-10]
    4c6c:	00002575 	andeq	r2, r0, r5, ror r5
    4c70:	0e000400 	cfcpyseq	mvf0, mvf0
    4c74:	00005404 	andeq	r5, r0, r4, lsl #8
    4c78:	0d520f00 	ldcleq	15, cr0, [r2, #-0]
    4c7c:	05680000 	strbeq	r0, [r8, #-0]!
    4c80:	00040bb3 			; <UNDEFINED> instruction: 0x00040bb3
    4c84:	705f1000 	subsvc	r1, pc, r0
    4c88:	dbb40500 	blle	fed06090 <__bss_end__+0xfecf9610>
    4c8c:	00000002 	andeq	r0, r0, r2
    4c90:	00725f10 	rsbseq	r5, r2, r0, lsl pc
    4c94:	0025b505 	eoreq	fp, r5, r5, lsl #10
    4c98:	10040000 	andne	r0, r4, r0
    4c9c:	0500775f 	streq	r7, [r0, #-1887]	; 0x75f
    4ca0:	000025b6 			; <UNDEFINED> instruction: 0x000025b6
    4ca4:	380c0800 	stmdacc	ip, {fp}
    4ca8:	0500000b 	streq	r0, [r0, #-11]
    4cac:	00003fb7 			; <UNDEFINED> instruction: 0x00003fb7
    4cb0:	4b0c0c00 	blmi	307cb8 <__bss_end__+0x2fb238>
    4cb4:	0500000c 	streq	r0, [r0, #-12]
    4cb8:	00003fb8 			; <UNDEFINED> instruction: 0x00003fb8
    4cbc:	5f100e00 	svcpl	0x00100e00
    4cc0:	05006662 	streq	r6, [r0, #-1634]	; 0x662
    4cc4:	0002b6b9 			; <UNDEFINED> instruction: 0x0002b6b9
    4cc8:	a70c1000 	strge	r1, [ip, -r0]
    4ccc:	0500000a 	streq	r0, [r0, #-10]
    4cd0:	000025ba 			; <UNDEFINED> instruction: 0x000025ba
    4cd4:	280c1800 	stmdacs	ip, {fp, ip}
    4cd8:	0500000b 	streq	r0, [r0, #-11]
    4cdc:	00010ac1 	andeq	r0, r1, r1, asr #21
    4ce0:	cf0c1c00 	svcgt	0x000c1c00
    4ce4:	0500000f 	streq	r0, [r0, #-15]
    4ce8:	000566c3 	andeq	r6, r5, r3, asr #13
    4cec:	e90c2000 	stmdb	ip, {sp}
    4cf0:	0500000f 	streq	r0, [r0, #-15]
    4cf4:	000590c5 	andeq	r9, r5, r5, asr #1
    4cf8:	c40c2400 	strgt	r2, [ip], #-1024	; 0x400
    4cfc:	0500000d 	streq	r0, [r0, #-13]
    4d00:	0005b4c8 	andeq	fp, r5, r8, asr #9
    4d04:	890c2800 	stmdbhi	ip, {fp, sp}
    4d08:	0500000f 	streq	r0, [r0, #-15]
    4d0c:	0005cec9 	andeq	ip, r5, r9, asr #29
    4d10:	5f102c00 	svcpl	0x00102c00
    4d14:	05006275 	streq	r6, [r0, #-629]	; 0x275
    4d18:	0002b6cc 	andeq	fp, r2, ip, asr #13
    4d1c:	5f103000 	svcpl	0x00103000
    4d20:	05007075 	streq	r7, [r0, #-117]	; 0x75
    4d24:	0002dbcd 	andeq	sp, r2, sp, asr #23
    4d28:	5f103800 	svcpl	0x00103800
    4d2c:	05007275 	streq	r7, [r0, #-629]	; 0x275
    4d30:	000025ce 	andeq	r2, r0, lr, asr #11
    4d34:	eb0c3c00 	bl	313d3c <__bss_end__+0x3072bc>
    4d38:	0500000a 	streq	r0, [r0, #-10]
    4d3c:	0005d4d1 	ldrdeq	sp, [r5], -r1
    4d40:	340c4000 	strcc	r4, [ip], #-0
    4d44:	0500000f 	streq	r0, [r0, #-15]
    4d48:	0005e4d2 	ldrdeq	lr, [r5], -r2
    4d4c:	5f104300 	svcpl	0x00104300
    4d50:	0500626c 	streq	r6, [r0, #-620]	; 0x26c
    4d54:	0002b6d5 	ldrdeq	fp, [r2], -r5
    4d58:	4e0c4400 	cfcpysmi	mvf4, mvf12
    4d5c:	0500000b 	streq	r0, [r0, #-11]
    4d60:	000025d8 	ldrdeq	r2, [r0], -r8
    4d64:	b60c4c00 	strlt	r4, [ip], -r0, lsl #24
    4d68:	0500000c 	streq	r0, [r0, #-12]
    4d6c:	00007bd9 	ldrdeq	r7, [r0], -r9
    4d70:	1f0c5000 	svcne	0x000c5000
    4d74:	0500000f 	streq	r0, [r0, #-15]
    4d78:	000429dc 	ldrdeq	r2, [r4], -ip
    4d7c:	9e0c5400 	cfcpysls	mvf5, mvf12
    4d80:	0500000c 	streq	r0, [r0, #-12]
    4d84:	0000ffe0 	andeq	pc, r0, r0, ror #31
    4d88:	5a0c5800 	bpl	31ad90 <__bss_end__+0x30e310>
    4d8c:	0500000d 	streq	r0, [r0, #-13]
    4d90:	0000f4e2 	andeq	pc, r0, r2, ror #9
    4d94:	a40c5c00 	strge	r5, [ip], #-3072	; 0xc00
    4d98:	0500000c 	streq	r0, [r0, #-12]
    4d9c:	000025e3 	andeq	r2, r0, r3, ror #11
    4da0:	14006400 	strne	r6, [r0], #-1024	; 0x400
    4da4:	00000025 	andeq	r0, r0, r5, lsr #32
    4da8:	00000429 	andeq	r0, r0, r9, lsr #8
    4dac:	00042915 	andeq	r2, r4, r5, lsl r9
    4db0:	010a1500 	tsteq	sl, r0, lsl #10
    4db4:	0c150000 	ldceq	0, cr0, [r5], {-0}
    4db8:	15000001 	strne	r0, [r0, #-1]
    4dbc:	00000025 	andeq	r0, r0, r5, lsr #32
    4dc0:	34040e00 	strcc	r0, [r4], #-3584	; 0xe00
    4dc4:	04000004 	streq	r0, [r0], #-4
    4dc8:	00000429 	andeq	r0, r0, r9, lsr #8
    4dcc:	000da716 	andeq	sl, sp, r6, lsl r7
    4dd0:	05042800 	streq	r2, [r4, #-2048]	; 0x800
    4dd4:	05660238 	strbeq	r0, [r6, #-568]!	; 0x238
    4dd8:	22170000 	andscs	r0, r7, #0
    4ddc:	0500000d 	streq	r0, [r0, #-13]
    4de0:	0025023a 	eoreq	r0, r5, sl, lsr r2
    4de4:	17000000 	strne	r0, [r0, -r0]
    4de8:	00000b47 	andeq	r0, r0, r7, asr #22
    4dec:	3b023f05 	blcc	94a08 <__bss_end__+0x87f88>
    4df0:	04000006 	streq	r0, [r0], #-6
    4df4:	000c3b17 	andeq	r3, ip, r7, lsl fp
    4df8:	023f0500 	eorseq	r0, pc, #0, 10
    4dfc:	0000063b 	andeq	r0, r0, fp, lsr r6
    4e00:	0bfc1708 	bleq	fff0aa28 <__bss_end__+0xffefdfa8>
    4e04:	3f050000 	svccc	0x00050000
    4e08:	00063b02 	andeq	r3, r6, r2, lsl #22
    4e0c:	7b170c00 	blvc	5c7e14 <__bss_end__+0x5bb394>
    4e10:	0500000d 	streq	r0, [r0, #-13]
    4e14:	00250241 	eoreq	r0, r5, r1, asr #4
    4e18:	17100000 	ldrne	r0, [r0, -r0]
    4e1c:	00000a72 	andeq	r0, r0, r2, ror sl
    4e20:	1d024205 	sfmne	f4, 4, [r2, #-20]	; 0xffffffec
    4e24:	14000008 	strne	r0, [r0], #-8
    4e28:	000e9917 	andeq	r9, lr, r7, lsl r9
    4e2c:	02440500 	subeq	r0, r4, #0, 10
    4e30:	00000025 	andeq	r0, r0, r5, lsr #32
    4e34:	0d851730 	stceq	7, cr1, [r5, #192]	; 0xc0
    4e38:	45050000 	strmi	r0, [r5, #-0]
    4e3c:	00058a02 	andeq	r8, r5, r2, lsl #20
    4e40:	e8173400 	ldmda	r7, {sl, ip, sp}
    4e44:	0500000c 	streq	r0, [r0, #-12]
    4e48:	00250247 	eoreq	r0, r5, r7, asr #4
    4e4c:	17380000 	ldrne	r0, [r8, -r0]!
    4e50:	00000d95 	muleq	r0, r5, sp
    4e54:	38024905 	stmdacc	r2, {r0, r2, r8, fp, lr}
    4e58:	3c000008 	stccc	0, cr0, [r0], {8}
    4e5c:	000c7a17 	andeq	r7, ip, r7, lsl sl
    4e60:	024c0500 	subeq	r0, ip, #0, 10
    4e64:	0000017c 	andeq	r0, r0, ip, ror r1
    4e68:	0c1b1740 	ldceq	7, cr1, [fp], {64}	; 0x40
    4e6c:	4d050000 	stcmi	0, cr0, [r5, #-0]
    4e70:	00002502 	andeq	r2, r0, r2, lsl #10
    4e74:	a3174400 	tstge	r7, #0, 8
    4e78:	0500000f 	streq	r0, [r0, #-15]
    4e7c:	017c024e 	cmneq	ip, lr, asr #4
    4e80:	17480000 	strbne	r0, [r8, -r0]
    4e84:	00000cff 	strdeq	r0, [r0], -pc	; <UNPREDICTABLE>
    4e88:	3e024f05 	cdpcc	15, 0, cr4, cr2, cr5, {0}
    4e8c:	4c000008 	stcmi	0, cr0, [r0], {8}
    4e90:	000c4317 	andeq	r4, ip, r7, lsl r3
    4e94:	02520500 	subseq	r0, r2, #0, 10
    4e98:	00000025 	andeq	r0, r0, r5, lsr #32
    4e9c:	0b6a1750 	bleq	1a8abe4 <__bss_end__+0x1a7e164>
    4ea0:	53050000 	movwpl	r0, #20480	; 0x5000
    4ea4:	00010c02 	andeq	r0, r1, r2, lsl #24
    4ea8:	1b175400 	blne	5d9eb0 <__bss_end__+0x5cd430>
    4eac:	0500000d 	streq	r0, [r0, #-13]
    4eb0:	07fb0276 			; <UNDEFINED> instruction: 0x07fb0276
    4eb4:	18580000 	ldmdane	r8, {}^	; <UNPREDICTABLE>
    4eb8:	00000ce0 	andeq	r0, r0, r0, ror #25
    4ebc:	99027a05 	stmdbls	r2, {r0, r2, r9, fp, ip, sp, lr}
    4ec0:	48000002 	stmdami	r0, {r1}
    4ec4:	0c581801 	mrrceq	8, 0, r1, r8, cr1
    4ec8:	7b050000 	blvc	144ed0 <__bss_end__+0x138450>
    4ecc:	00025b02 	andeq	r5, r2, r2, lsl #22
    4ed0:	18014c00 	stmdane	r1, {sl, fp, lr}
    4ed4:	00000f05 	andeq	r0, r0, r5, lsl #30
    4ed8:	4f027f05 	svcmi	0x00027f05
    4edc:	dc000008 	stcle	0, cr0, [r0], {8}
    4ee0:	0b301802 	bleq	c0aef0 <__bss_end__+0xbfe470>
    4ee4:	84050000 	strhi	r0, [r5], #-0
    4ee8:	00060002 	andeq	r0, r6, r2
    4eec:	1802e000 	stmdane	r2, {sp, lr, pc}
    4ef0:	00000b15 	andeq	r0, r0, r5, lsl fp
    4ef4:	5b028505 	blpl	a6310 <__bss_end__+0x99890>
    4ef8:	ec000008 	stc	0, cr0, [r0], {8}
    4efc:	040e0002 	streq	r0, [lr], #-2
    4f00:	0000040b 	andeq	r0, r0, fp, lsl #8
    4f04:	00002514 	andeq	r2, r0, r4, lsl r5
    4f08:	00058a00 	andeq	r8, r5, r0, lsl #20
    4f0c:	04291500 	strteq	r1, [r9], #-1280	; 0x500
    4f10:	0a150000 	beq	544f18 <__bss_end__+0x538498>
    4f14:	15000001 	strne	r0, [r0, #-1]
    4f18:	0000058a 	andeq	r0, r0, sl, lsl #11
    4f1c:	00002515 	andeq	r2, r0, r5, lsl r5
    4f20:	040e0000 	streq	r0, [lr], #-0
    4f24:	00000119 	andeq	r0, r0, r9, lsl r1
    4f28:	056c040e 	strbeq	r0, [ip, #-1038]!	; 0x40e
    4f2c:	86140000 	ldrhi	r0, [r4], -r0
    4f30:	b4000000 	strlt	r0, [r0], #-0
    4f34:	15000005 	strne	r0, [r0, #-5]
    4f38:	00000429 	andeq	r0, r0, r9, lsr #8
    4f3c:	00010a15 	andeq	r0, r1, r5, lsl sl
    4f40:	00861500 	addeq	r1, r6, r0, lsl #10
    4f44:	25150000 	ldrcs	r0, [r5, #-0]
    4f48:	00000000 	andeq	r0, r0, r0
    4f4c:	0596040e 	ldreq	r0, [r6, #1038]	; 0x40e
    4f50:	25140000 	ldrcs	r0, [r4, #-0]
    4f54:	ce000000 	cdpgt	0, 0, cr0, cr0, cr0, {0}
    4f58:	15000005 	strne	r0, [r0, #-5]
    4f5c:	00000429 	andeq	r0, r0, r9, lsr #8
    4f60:	00010a15 	andeq	r0, r1, r5, lsl sl
    4f64:	040e0000 	streq	r0, [lr], #-0
    4f68:	000005ba 			; <UNDEFINED> instruction: 0x000005ba
    4f6c:	00005409 	andeq	r5, r0, r9, lsl #8
    4f70:	0005e400 	andeq	lr, r5, r0, lsl #8
    4f74:	00cc0a00 	sbceq	r0, ip, r0, lsl #20
    4f78:	00020000 	andeq	r0, r2, r0
    4f7c:	00005409 	andeq	r5, r0, r9, lsl #8
    4f80:	0005f400 	andeq	pc, r5, r0, lsl #8
    4f84:	00cc0a00 	sbceq	r0, ip, r0, lsl #20
    4f88:	00000000 	andeq	r0, r0, r0
    4f8c:	000d4006 	andeq	r4, sp, r6
    4f90:	011d0500 	tsteq	sp, r0, lsl #10
    4f94:	000002e1 	andeq	r0, r0, r1, ror #5
    4f98:	000ec719 	andeq	ip, lr, r9, lsl r7
    4f9c:	21050c00 	tstcs	r5, r0, lsl #24
    4fa0:	00063501 	andeq	r3, r6, r1, lsl #10
    4fa4:	0d681700 	stcleq	7, cr1, [r8, #-0]
    4fa8:	23050000 	movwcs	r0, #20480	; 0x5000
    4fac:	00063501 	andeq	r3, r6, r1, lsl #10
    4fb0:	51170000 	tstpl	r7, r0
    4fb4:	0500000c 	streq	r0, [r0, #-12]
    4fb8:	00250124 	eoreq	r0, r5, r4, lsr #2
    4fbc:	17040000 	strne	r0, [r4, -r0]
    4fc0:	00000d3a 	andeq	r0, r0, sl, lsr sp
    4fc4:	3b012505 	blcc	4e3e0 <__bss_end__+0x41960>
    4fc8:	08000006 	stmdaeq	r0, {r1, r2}
    4fcc:	00040e00 	andeq	r0, r4, r0, lsl #28
    4fd0:	0e000006 	cdpeq	0, 0, cr0, cr0, cr6, {0}
    4fd4:	0005f404 	andeq	pc, r5, r4, lsl #8
    4fd8:	0a6a1900 	beq	1a8b3e0 <__bss_end__+0x1a7e960>
    4fdc:	050e0000 	streq	r0, [lr, #-0]
    4fe0:	0676013d 			; <UNDEFINED> instruction: 0x0676013d
    4fe4:	ae170000 	cdpge	0, 1, cr0, cr7, cr0, {0}
    4fe8:	0500000d 	streq	r0, [r0, #-13]
    4fec:	0676013e 			; <UNDEFINED> instruction: 0x0676013e
    4ff0:	17000000 	strne	r0, [r0, -r0]
    4ff4:	00000de8 	andeq	r0, r0, r8, ror #27
    4ff8:	76013f05 	strvc	r3, [r1], -r5, lsl #30
    4ffc:	06000006 	streq	r0, [r0], -r6
    5000:	000e6c17 	andeq	r6, lr, r7, lsl ip
    5004:	01400500 	cmpeq	r0, r0, lsl #10
    5008:	0000005b 	andeq	r0, r0, fp, asr r0
    500c:	5b09000c 	blpl	245044 <__bss_end__+0x2385c4>
    5010:	86000000 	strhi	r0, [r0], -r0
    5014:	0a000006 	beq	5034 <__code_start__-0x2fcc>
    5018:	000000cc 	andeq	r0, r0, ip, asr #1
    501c:	d01a0002 	andsle	r0, sl, r2
    5020:	87025705 	strhi	r5, [r2, -r5, lsl #14]
    5024:	17000007 	strne	r0, [r0, -r7]
    5028:	00000eab 	andeq	r0, r0, fp, lsr #29
    502c:	2c025905 	stccs	9, cr5, [r2], {5}
    5030:	00000000 	andeq	r0, r0, r0
    5034:	000e5617 	andeq	r5, lr, r7, lsl r6
    5038:	025a0500 	subseq	r0, sl, #0, 10
    503c:	0000010c 	andeq	r0, r0, ip, lsl #2
    5040:	0c6d1704 	stcleq	7, cr1, [sp], #-16
    5044:	5b050000 	blpl	14504c <__bss_end__+0x1385cc>
    5048:	00078702 	andeq	r8, r7, r2, lsl #14
    504c:	7a170800 	bvc	5c7054 <__bss_end__+0x5ba5d4>
    5050:	0500000f 	streq	r0, [r0, #-15]
    5054:	0192025c 	orrseq	r0, r2, ip, asr r2
    5058:	17240000 	strne	r0, [r4, -r0]!
    505c:	00000c0c 	andeq	r0, r0, ip, lsl #24
    5060:	25025d05 	strcs	r5, [r2, #-3333]	; 0xd05
    5064:	48000000 	stmdami	r0, {}	; <UNPREDICTABLE>
    5068:	000d6317 	andeq	r6, sp, r7, lsl r3
    506c:	025e0500 	subseq	r0, lr, #0, 10
    5070:	00000069 	andeq	r0, r0, r9, rrx
    5074:	0f901750 	svceq	0x00901750
    5078:	5f050000 	svcpl	0x00050000
    507c:	00064102 	andeq	r4, r6, r2, lsl #2
    5080:	6e175800 	cdpvs	8, 1, cr5, cr7, cr0, {0}
    5084:	0500000d 	streq	r0, [r0, #-13]
    5088:	00f40260 	rscseq	r0, r4, r0, ror #4
    508c:	17680000 	strbne	r0, [r8, -r0]!
    5090:	00000f95 	muleq	r0, r5, pc	; <UNPREDICTABLE>
    5094:	f4026105 	vst4.8	{d6,d8,d10,d12}, [r2], r5
    5098:	70000000 	andvc	r0, r0, r0
    509c:	000acf17 	andeq	ip, sl, r7, lsl pc
    50a0:	02620500 	rsbeq	r0, r2, #0, 10
    50a4:	000000f4 	strdeq	r0, [r0], -r4
    50a8:	0ee71778 	mcreq	7, 7, r1, cr7, cr8, {3}
    50ac:	63050000 	movwvs	r0, #20480	; 0x5000
    50b0:	00079702 	andeq	r9, r7, r2, lsl #14
    50b4:	61178000 	tstvs	r7, r0
    50b8:	0500000c 	streq	r0, [r0, #-12]
    50bc:	07a70264 	streq	r0, [r7, r4, ror #4]!
    50c0:	17880000 	strne	r0, [r8, r0]
    50c4:	00000e79 	andeq	r0, r0, r9, ror lr
    50c8:	25026505 	strcs	r6, [r2, #-1285]	; 0x505
    50cc:	a0000000 	andge	r0, r0, r0
    50d0:	000bb817 	andeq	fp, fp, r7, lsl r8
    50d4:	02660500 	rsbeq	r0, r6, #0, 10
    50d8:	000000f4 	strdeq	r0, [r0], -r4
    50dc:	0ac017a4 	beq	ff00af74 <__bss_end__+0xfeffe4f4>
    50e0:	67050000 	strvs	r0, [r5, -r0]
    50e4:	0000f402 	andeq	pc, r0, r2, lsl #8
    50e8:	a717ac00 	ldrge	sl, [r7, -r0, lsl #24]
    50ec:	0500000b 	streq	r0, [r0, #-11]
    50f0:	00f40268 	rscseq	r0, r4, r8, ror #4
    50f4:	17b40000 	ldrne	r0, [r4, r0]!
    50f8:	00000a87 	andeq	r0, r0, r7, lsl #21
    50fc:	f4026905 	vst2.8	{d6,d8}, [r2], r5
    5100:	bc000000 	stclt	0, cr0, [r0], {-0}
    5104:	000a9617 	andeq	r9, sl, r7, lsl r6
    5108:	026a0500 	rsbeq	r0, sl, #0, 10
    510c:	000000f4 	strdeq	r0, [r0], -r4
    5110:	0d2017c4 	stceq	7, cr1, [r0, #-784]!	; 0xfffffcf0
    5114:	6b050000 	blvs	14511c <__bss_end__+0x13869c>
    5118:	00002502 	andeq	r2, r0, r2, lsl #10
    511c:	0900cc00 	stmdbeq	r0, {sl, fp, lr, pc}
    5120:	00000112 	andeq	r0, r0, r2, lsl r1
    5124:	00000797 	muleq	r0, r7, r7
    5128:	0000cc0a 	andeq	ip, r0, sl, lsl #24
    512c:	09001900 	stmdbeq	r0, {r8, fp, ip}
    5130:	00000112 	andeq	r0, r0, r2, lsl r1
    5134:	000007a7 	andeq	r0, r0, r7, lsr #15
    5138:	0000cc0a 	andeq	ip, r0, sl, lsl #24
    513c:	09000700 	stmdbeq	r0, {r8, r9, sl}
    5140:	00000112 	andeq	r0, r0, r2, lsl r1
    5144:	000007b7 			; <UNDEFINED> instruction: 0x000007b7
    5148:	0000cc0a 	andeq	ip, r0, sl, lsl #24
    514c:	1a001700 	bne	ad54 <cq+0x708>
    5150:	027005f0 	rsbseq	r0, r0, #240, 10	; 0x3c000000
    5154:	000007db 	ldrdeq	r0, [r0], -fp
    5158:	000cd017 	andeq	sp, ip, r7, lsl r0
    515c:	02730500 	rsbseq	r0, r3, #0, 10
    5160:	000007db 	ldrdeq	r0, [r0], -fp
    5164:	0ede1700 	cdpeq	7, 13, cr1, cr14, cr0, {0}
    5168:	74050000 	strvc	r0, [r5], #-0
    516c:	0007eb02 	andeq	lr, r7, r2, lsl #22
    5170:	09007800 	stmdbeq	r0, {fp, ip, sp, lr}
    5174:	000002db 	ldrdeq	r0, [r0], -fp
    5178:	000007eb 	andeq	r0, r0, fp, ror #15
    517c:	0000cc0a 	andeq	ip, r0, sl, lsl #24
    5180:	09001d00 	stmdbeq	r0, {r8, sl, fp, ip}
    5184:	0000002c 	andeq	r0, r0, ip, lsr #32
    5188:	000007fb 	strdeq	r0, [r0], -fp
    518c:	0000cc0a 	andeq	ip, r0, sl, lsl #24
    5190:	1b001d00 	blne	c598 <cq+0x1f4c>
    5194:	025505f0 	subseq	r0, r5, #240, 10	; 0x3c000000
    5198:	0000081d 	andeq	r0, r0, sp, lsl r8
    519c:	000da71c 	andeq	sl, sp, ip, lsl r7
    51a0:	026c0500 	rsbeq	r0, ip, #0, 10
    51a4:	00000686 	andeq	r0, r0, r6, lsl #13
    51a8:	000f3a1c 	andeq	r3, pc, ip, lsl sl	; <UNPREDICTABLE>
    51ac:	02750500 	rsbseq	r0, r5, #0, 10
    51b0:	000007b7 			; <UNDEFINED> instruction: 0x000007b7
    51b4:	01120900 	tsteq	r2, r0, lsl #18
    51b8:	082d0000 	stmdaeq	sp!, {}	; <UNPREDICTABLE>
    51bc:	cc0a0000 	stcgt	0, cr0, [sl], {-0}
    51c0:	18000000 	stmdane	r0, {}	; <UNPREDICTABLE>
    51c4:	08381d00 	ldmdaeq	r8!, {r8, sl, fp, ip}
    51c8:	29150000 	ldmdbcs	r5, {}	; <UNPREDICTABLE>
    51cc:	00000004 	andeq	r0, r0, r4
    51d0:	082d040e 	stmdaeq	sp!, {r1, r2, r3, sl}
    51d4:	040e0000 	streq	r0, [lr], #-0
    51d8:	0000017c 	andeq	r0, r0, ip, ror r1
    51dc:	00084f1d 	andeq	r4, r8, sp, lsl pc
    51e0:	00251500 	eoreq	r1, r5, r0, lsl #10
    51e4:	0e000000 	cdpeq	0, 0, cr0, cr0, cr0, {0}
    51e8:	00085504 	andeq	r5, r8, r4, lsl #10
    51ec:	44040e00 	strmi	r0, [r4], #-3584	; 0xe00
    51f0:	09000008 	stmdbeq	r0, {r3}
    51f4:	000005f4 	strdeq	r0, [r0], -r4
    51f8:	0000086b 	andeq	r0, r0, fp, ror #16
    51fc:	0000cc0a 	andeq	ip, r0, sl, lsl #24
    5200:	1e000200 	cdpne	2, 0, cr0, cr0, cr0, {0}
    5204:	00000e8d 	andeq	r0, r0, sp, lsl #29
    5208:	2902fd05 	stmdbcs	r2, {r0, r2, r8, sl, fp, ip, sp, lr, pc}
    520c:	1e000004 	cdpne	0, 0, cr0, cr0, cr4, {0}
    5210:	00000e86 	andeq	r0, r0, r6, lsl #29
    5214:	2f02fe05 	svccs	0x0002fe05
    5218:	14000004 	strne	r0, [r0], #-4
    521c:	00000025 	andeq	r0, r0, r5, lsr #32
    5220:	00000892 	muleq	r0, r2, r8
    5224:	00002515 	andeq	r2, r0, r5, lsl r5
    5228:	871f0000 	ldrhi	r0, [pc, -r0]
    522c:	06000006 	streq	r0, [r0], -r6
    5230:	00089d1d 	andeq	r9, r8, sp, lsl sp
    5234:	83040e00 	movwhi	r0, #19968	; 0x4e00
    5238:	14000008 	strne	r0, [r0], #-8
    523c:	00000025 	andeq	r0, r0, r5, lsr #32
    5240:	000008b2 			; <UNDEFINED> instruction: 0x000008b2
    5244:	00058a15 	andeq	r8, r5, r5, lsl sl
    5248:	c41f0000 	ldrgt	r0, [pc], #-0	; 5250 <__code_start__-0x2db0>
    524c:	06000006 	streq	r0, [r0], -r6
    5250:	0008bd22 	andeq	fp, r8, r2, lsr #26
    5254:	a3040e00 	movwge	r0, #19968	; 0x4e00
    5258:	20000008 	andcs	r0, r0, r8
    525c:	00005401 	andeq	r5, r0, r1, lsl #8
    5260:	000c0700 	andeq	r0, ip, r0, lsl #14
    5264:	21000009 	tstcs	r0, r9
    5268:	00000ab0 			; <UNDEFINED> instruction: 0x00000ab0
    526c:	0ecd2100 	poleqe	f2, f5, f0
    5270:	21010000 	mrscs	r0, (UNDEF: 1)
    5274:	00000f25 	andeq	r0, r0, r5, lsr #30
    5278:	0af12104 	beq	ffc4d690 <__bss_end__+0xffc40c10>
    527c:	21050000 	mrscs	r0, (UNDEF: 5)
    5280:	00000c88 	andeq	r0, r0, r8, lsl #25
    5284:	0f422106 	svceq	0x00422106
    5288:	21070000 	mrscs	r0, (UNDEF: 7)
    528c:	00000f51 	andeq	r0, r0, r1, asr pc
    5290:	0f602103 	svceq	0x00602103
    5294:	00020000 	andeq	r0, r2, r0
    5298:	00101f05 	andseq	r1, r0, r5, lsl #30
    529c:	c3150700 	tstgt	r5, #0, 14
    52a0:	22000008 	andcs	r0, r0, #8
    52a4:	00000ff0 	strdeq	r0, [r0], -r0	; <UNPREDICTABLE>
    52a8:	00331d01 	eorseq	r1, r3, r1, lsl #26
    52ac:	001c0000 	andseq	r0, ip, r0
    52b0:	2b222020 	blcs	88d338 <__bss_end__+0x8808b8>
    52b4:	01000010 	tsteq	r0, r0, lsl r0
    52b8:	0000331e 	andeq	r3, r0, lr, lsl r3
    52bc:	20002800 	andcs	r2, r0, r0, lsl #16
    52c0:	0ffa2220 	svceq	0x00fa2220
    52c4:	1f010000 	svcne	0x00010000
    52c8:	00000033 	andeq	r0, r0, r3, lsr r0
    52cc:	20200034 	eorcs	r0, r0, r4, lsr r0
    52d0:	000fcb23 	andeq	ip, pc, r3, lsr #22
    52d4:	25560100 	ldrbcs	r0, [r6, #-256]	; 0x100
    52d8:	30000000 	andcc	r0, r0, r0
    52dc:	3400009d 	strcc	r0, [r0], #-157	; 0x9d
    52e0:	01000000 	mrseq	r0, (UNDEF: 0)
    52e4:	0009989c 	muleq	r9, ip, r8
    52e8:	69702400 	ldmdbvs	r0!, {sl, sp}^
    52ec:	5601006e 	strpl	r0, [r1], -lr, rrx
    52f0:	0000002c 	andeq	r0, r0, ip, lsr #32
    52f4:	000010a9 	andeq	r1, r0, r9, lsr #1
    52f8:	000fbf25 	andeq	fp, pc, r5, lsr #30
    52fc:	2c590100 	ldfcse	f0, [r9], {-0}
    5300:	e3000000 	movw	r0, #0
    5304:	26000010 			; <UNDEFINED> instruction: 0x26000010
    5308:	0066666f 	rsbeq	r6, r6, pc, ror #12
    530c:	002c5a01 	eoreq	r5, ip, r1, lsl #20
    5310:	11210000 	teqne	r1, r0
    5314:	4c270000 	stcmi	0, cr0, [r7], #-0
    5318:	5d00009d 	stcpl	0, cr0, [r0, #-628]	; 0xfffffd8c
    531c:	2800000b 	stmdacs	r0, {r0, r1, r3}
    5320:	f30b5001 	vhadd.u8	d5, d11, d1
    5324:	25355001 	ldrcs	r5, [r5, #-1]!
    5328:	8080b423 	addhi	fp, r0, r3, lsr #8
    532c:	00000281 	andeq	r0, r0, r1, lsl #5
    5330:	000fe529 	andeq	lr, pc, r9, lsr #10
    5334:	144f0100 	strbne	r0, [pc], #-256	; 533c <__code_start__-0x2cc4>
    5338:	1c00009d 	stcne	0, cr0, [r0], {157}	; 0x9d
    533c:	01000000 	mrseq	r0, (UNDEF: 0)
    5340:	0009e89c 	muleq	r9, ip, r8
    5344:	69702400 	ldmdbvs	r0!, {sl, sp}^
    5348:	4f01006e 	svcmi	0x0001006e
    534c:	0000002c 	andeq	r0, r0, ip, lsr #32
    5350:	00001134 	andeq	r1, r0, r4, lsr r1
    5354:	01007624 	tsteq	r0, r4, lsr #12
    5358:	00002c4f 	andeq	r2, r0, pc, asr #24
    535c:	00116e00 	andseq	r6, r1, r0, lsl #28
    5360:	9d242a00 	vstmdbls	r4!, {s4-s3}
    5364:	0a230000 	beq	8c536c <__bss_end__+0x8b88ec>
    5368:	09de0000 	ldmibeq	lr, {}^	; <UNPREDICTABLE>
    536c:	01280000 	teqeq	r8, r0
    5370:	01f30350 	mvnseq	r0, r0, asr r3
    5374:	2c2b0050 	stccs	0, cr0, [fp], #-320	; 0xfffffec0
    5378:	6400009d 	strvs	r0, [r0], #-157	; 0x9d
    537c:	0000000a 	andeq	r0, r0, sl
    5380:	00100429 	andseq	r0, r0, r9, lsr #8
    5384:	044a0100 	strbeq	r0, [sl], #-256	; 0x100
    5388:	1000009d 	mulne	r0, sp, r0
    538c:	01000000 	mrseq	r0, (UNDEF: 0)
    5390:	000a239c 	muleq	sl, ip, r3
    5394:	69702400 	ldmdbvs	r0!, {sl, sp}^
    5398:	4a01006e 	bmi	45558 <__bss_end__+0x38ad8>
    539c:	0000002c 	andeq	r0, r0, ip, lsr #32
    53a0:	000011a8 	andeq	r1, r0, r8, lsr #3
    53a4:	009d1027 	addseq	r1, sp, r7, lsr #32
    53a8:	000ae000 	andeq	lr, sl, r0
    53ac:	50012800 	andpl	r2, r1, r0, lsl #16
    53b0:	5001f303 	andpl	pc, r1, r3, lsl #6
    53b4:	01510128 	cmpeq	r1, r8, lsr #2
    53b8:	29000030 	stmdbcs	r0, {r4, r5}
    53bc:	00000fb2 			; <UNDEFINED> instruction: 0x00000fb2
    53c0:	9ce04301 	stclls	3, cr4, [r0], #4
    53c4:	00240000 	eoreq	r0, r4, r0
    53c8:	9c010000 	stcls	0, cr0, [r1], {-0}
    53cc:	00000a64 	andeq	r0, r0, r4, ror #20
    53d0:	6e697024 	cdpvs	0, 6, cr7, cr9, cr4, {1}
    53d4:	2c430100 	stfcse	f0, [r3], {-0}
    53d8:	c9000000 	stmdbgt	r0, {}	; <UNPREDICTABLE>
    53dc:	27000011 	smladcs	r0, r1, r0, r0
    53e0:	00009cfc 	strdeq	r9, [r0], -ip
    53e4:	00000b68 	andeq	r0, r0, r8, ror #22
    53e8:	05500128 	ldrbeq	r0, [r0, #-296]	; 0x128
    53ec:	2000280c 	andcs	r2, r0, ip, lsl #16
    53f0:	51012820 	tstpl	r1, r0, lsr #16
    53f4:	01f33105 	mvnseq	r3, r5, lsl #2
    53f8:	00002450 	andeq	r2, r0, r0, asr r4
    53fc:	00101329 	andseq	r1, r0, r9, lsr #6
    5400:	bc3c0100 	ldflts	f0, [ip], #-0
    5404:	2400009c 	strcs	r0, [r0], #-156	; 0x9c
    5408:	01000000 	mrseq	r0, (UNDEF: 0)
    540c:	000aa59c 	muleq	sl, ip, r5
    5410:	69702400 	ldmdbvs	r0!, {sl, sp}^
    5414:	3c01006e 	stccc	0, cr0, [r1], {110}	; 0x6e
    5418:	0000002c 	andeq	r0, r0, ip, lsr #32
    541c:	000011ea 	andeq	r1, r0, sl, ror #3
    5420:	009cd827 	addseq	sp, ip, r7, lsr #16
    5424:	000b6800 	andeq	r6, fp, r0, lsl #16
    5428:	50012800 	andpl	r2, r1, r0, lsl #16
    542c:	001c0c05 	andseq	r0, ip, r5, lsl #24
    5430:	01282020 	teqeq	r8, r0, lsr #32
    5434:	f3310551 	vqrshl.u64	q0, <illegal reg q0.5>, <illegal reg q0.5>
    5438:	00245001 	eoreq	r5, r4, r1
    543c:	0fd52900 	svceq	0x00d52900
    5440:	37010000 	strcc	r0, [r1, -r0]
    5444:	00009cac 	andeq	r9, r0, ip, lsr #25
    5448:	00000010 	andeq	r0, r0, r0, lsl r0
    544c:	0ae09c01 	beq	ff82c458 <__bss_end__+0xff81f9d8>
    5450:	70240000 	eorvc	r0, r4, r0
    5454:	01006e69 	tsteq	r0, r9, ror #28
    5458:	00002c37 	andeq	r2, r0, r7, lsr ip
    545c:	00120b00 	andseq	r0, r2, r0, lsl #22
    5460:	9cb82700 	ldcls	7, cr2, [r8]
    5464:	0ae00000 	beq	ff80546c <__bss_end__+0xff7f89ec>
    5468:	01280000 	teqeq	r8, r0
    546c:	01f30350 	mvnseq	r0, r0, asr r3
    5470:	51012850 	tstpl	r1, r0, asr r8
    5474:	00003101 	andeq	r3, r0, r1, lsl #2
    5478:	000cbe29 	andeq	fp, ip, r9, lsr #28
    547c:	44280100 	strtmi	r0, [r8], #-256	; 0x100
    5480:	6800009c 	stmdavs	r0, {r2, r3, r4, r7}
    5484:	01000000 	mrseq	r0, (UNDEF: 0)
    5488:	000b5d9c 	muleq	fp, ip, sp
    548c:	69702400 	ldmdbvs	r0!, {sl, sp}^
    5490:	2801006e 	stmdacs	r1, {r1, r2, r3, r5, r6}
    5494:	0000002c 	andeq	r0, r0, ip, lsr #32
    5498:	0000122c 	andeq	r1, r0, ip, lsr #4
    549c:	000f0a2c 	andeq	r0, pc, ip, lsr #20
    54a0:	00280100 	eoreq	r0, r8, r0, lsl #2
    54a4:	4d000009 	stcmi	0, cr0, [r0, #-36]	; 0xffffffdc
    54a8:	2d000012 	stccs	0, cr0, [r0, #-72]	; 0xffffffb8
    54ac:	0066666f 	rsbeq	r6, r6, pc, ror #12
    54b0:	002c2d01 	eoreq	r2, ip, r1, lsl #26
    54b4:	54010000 	strpl	r0, [r1], #-0
    54b8:	0100672d 	tsteq	r0, sp, lsr #14
    54bc:	00002c2f 	andeq	r2, r0, pc, lsr #24
    54c0:	26560100 	ldrbcs	r0, [r6], -r0, lsl #2
    54c4:	31010076 	tstcc	r1, r6, ror r0
    54c8:	0000002c 	andeq	r0, r0, ip, lsr #32
    54cc:	0000126e 	andeq	r1, r0, lr, ror #4
    54d0:	009c902a 	addseq	r9, ip, sl, lsr #32
    54d4:	000b5d00 	andeq	r5, fp, r0, lsl #26
    54d8:	000b4c00 	andeq	r4, fp, r0, lsl #24
    54dc:	50012800 	andpl	r2, r1, r0, lsl #16
    54e0:	00007602 	andeq	r7, r0, r2, lsl #12
    54e4:	009ca427 	addseq	sl, ip, r7, lsr #8
    54e8:	000b6800 	andeq	r6, fp, r0, lsl #16
    54ec:	50012800 	andpl	r2, r1, r0, lsl #16
    54f0:	00007602 	andeq	r7, r0, r2, lsl #12
    54f4:	0a272e00 	beq	9d0cfc <__bss_end__+0x9c427c>
    54f8:	0a270000 	beq	9c5500 <__bss_end__+0x9b8a80>
    54fc:	a7060000 	strge	r0, [r6, -r0]
    5500:	0009612e 	andeq	r6, r9, lr, lsr #2
    5504:	00096100 	andeq	r6, r9, r0, lsl #2
    5508:	009b0600 	addseq	r0, fp, r0, lsl #12

Disassembly of section .debug_abbrev:

00000000 <.debug_abbrev>:
       0:	25011101 	strcs	r1, [r1, #-257]	; 0x101
       4:	030b130e 	movweq	r1, #45838	; 0xb30e
       8:	110e1b0e 	tstne	lr, lr, lsl #22
       c:	10061201 	andne	r1, r6, r1, lsl #4
      10:	02000017 	andeq	r0, r0, #23
      14:	0b0b0024 	bleq	2c00ac <__bss_end__+0x2b362c>
      18:	08030b3e 	stmdaeq	r3, {r1, r2, r3, r4, r5, r8, r9, fp}
      1c:	16030000 	strne	r0, [r3], -r0
      20:	3a0e0300 	bcc	380c28 <__bss_end__+0x3741a8>
      24:	490b3b0b 	stmdbmi	fp, {r0, r1, r3, r8, r9, fp, ip, sp}
      28:	04000013 	streq	r0, [r0], #-19
      2c:	0b0b0024 	bleq	2c00c4 <__bss_end__+0x2b3644>
      30:	0e030b3e 	vmoveq.16	d3[0], r0
      34:	0f050000 	svceq	0x00050000
      38:	000b0b00 	andeq	r0, fp, r0, lsl #22
      3c:	000f0600 	andeq	r0, pc, r0, lsl #12
      40:	13490b0b 	movtne	r0, #39691	; 0x9b0b
      44:	26070000 	strcs	r0, [r7], -r0
      48:	00134900 	andseq	r4, r3, r0, lsl #18
      4c:	01010800 	tsteq	r1, r0, lsl #16
      50:	13011349 	movwne	r1, #4937	; 0x1349
      54:	21090000 	mrscs	r0, (UNDEF: 9)
      58:	2f134900 	svccs	0x00134900
      5c:	0a00000b 	beq	90 <__code_start__-0x7f70>
      60:	0e030113 	mcreq	1, 0, r0, cr3, cr3, {0}
      64:	0b3a0b0b 	bleq	e82c98 <__bss_end__+0xe76218>
      68:	13010b3b 	movwne	r0, #6971	; 0x1b3b
      6c:	0d0b0000 	stceq	0, cr0, [fp, #-0]
      70:	3a0e0300 	bcc	380c78 <__bss_end__+0x3741f8>
      74:	490b3b0b 	stmdbmi	fp, {r0, r1, r3, r8, r9, fp, ip, sp}
      78:	000b3813 	andeq	r3, fp, r3, lsl r8
      7c:	000d0c00 	andeq	r0, sp, r0, lsl #24
      80:	0b3a0803 	bleq	e82094 <__bss_end__+0xe75614>
      84:	13490b3b 	movtne	r0, #39739	; 0x9b3b
      88:	00000b38 	andeq	r0, r0, r8, lsr fp
      8c:	0000350d 	andeq	r3, r0, sp, lsl #10
      90:	01150e00 	tsteq	r5, r0, lsl #28
      94:	13011927 	movwne	r1, #6439	; 0x1927
      98:	050f0000 	streq	r0, [pc, #-0]	; a0 <__code_start__-0x7f60>
      9c:	00134900 	andseq	r4, r3, r0, lsl #18
      a0:	01151000 	tsteq	r5, r0
      a4:	13491927 	movtne	r1, #39207	; 0x9927
      a8:	00001301 	andeq	r1, r0, r1, lsl #6
      ac:	49003511 	stmdbmi	r0, {r0, r4, r8, sl, ip, sp}
      b0:	12000013 	andne	r0, r0, #19
      b4:	050b0113 	streq	r0, [fp, #-275]	; 0x113
      b8:	0b3b0b3a 	bleq	ec2da8 <__bss_end__+0xeb6328>
      bc:	00001301 	andeq	r1, r0, r1, lsl #6
      c0:	03000d13 	movweq	r0, #3347	; 0xd13
      c4:	3b0b3a0e 	blcc	2ce904 <__bss_end__+0x2c1e84>
      c8:	3813490b 	ldmdacc	r3, {r0, r1, r3, r8, fp, lr}
      cc:	14000005 	strne	r0, [r0], #-5
      d0:	0e03000d 	cdpeq	0, 0, cr0, cr3, cr13, {0}
      d4:	0b3b0b3a 	bleq	ec2dc4 <__bss_end__+0xeb6344>
      d8:	0b0b1349 	bleq	2c4e04 <__bss_end__+0x2b8384>
      dc:	0b0c0b0d 	bleq	302d18 <__bss_end__+0x2f6298>
      e0:	00000538 	andeq	r0, r0, r8, lsr r5
      e4:	49002115 	stmdbmi	r0, {r0, r2, r4, r8, sp}
      e8:	00052f13 	andeq	r2, r5, r3, lsl pc
      ec:	012e1600 	teqeq	lr, r0, lsl #12
      f0:	0b3a0e03 	bleq	e83904 <__bss_end__+0xe76e84>
      f4:	19270b3b 	stmdbne	r7!, {r0, r1, r3, r4, r5, r8, r9, fp}
      f8:	0b201349 	bleq	804e24 <__bss_end__+0x7f83a4>
      fc:	00001301 	andeq	r1, r0, r1, lsl #6
     100:	03000517 	movweq	r0, #1303	; 0x517
     104:	3b0b3a08 	blcc	2ce92c <__bss_end__+0x2c1eac>
     108:	0013490b 	andseq	r4, r3, fp, lsl #18
     10c:	00341800 	eorseq	r1, r4, r0, lsl #16
     110:	0b3a0e03 	bleq	e83924 <__bss_end__+0xe76ea4>
     114:	13490b3b 	movtne	r0, #39739	; 0x9b3b
     118:	2e190000 	cdpcs	0, 1, cr0, cr9, cr0, {0}
     11c:	3a0e0301 	bcc	380d28 <__bss_end__+0x3742a8>
     120:	270b3b0b 	strcs	r3, [fp, -fp, lsl #22]
     124:	12011119 	andne	r1, r1, #1073741830	; 0x40000006
     128:	97184006 	ldrls	r4, [r8, -r6]
     12c:	13011942 	movwne	r1, #6466	; 0x1942
     130:	051a0000 	ldreq	r0, [sl, #-0]
     134:	3a080300 	bcc	200d3c <__bss_end__+0x1f42bc>
     138:	490b3b0b 	stmdbmi	fp, {r0, r1, r3, r8, r9, fp, ip, sp}
     13c:	00170213 	andseq	r0, r7, r3, lsl r2
     140:	011d1b00 	tsteq	sp, r0, lsl #22
     144:	01111331 	tsteq	r1, r1, lsr r3
     148:	0b580612 	bleq	1601998 <__bss_end__+0x15f4f18>
     14c:	00000b59 	andeq	r0, r0, r9, asr fp
     150:	3100051c 	tstcc	r0, ip, lsl r5
     154:	000b1c13 	andeq	r1, fp, r3, lsl ip
     158:	00051d00 	andeq	r1, r5, r0, lsl #26
     15c:	18021331 	stmdane	r2, {r0, r4, r5, r8, r9, ip}
     160:	0b1e0000 	bleq	780168 <__bss_end__+0x7736e8>
     164:	12011101 	andne	r1, r1, #1073741824	; 0x40000000
     168:	1f000006 	svcne	0x00000006
     16c:	13310034 	teqne	r1, #52	; 0x34
     170:	00001702 	andeq	r1, r0, r2, lsl #14
     174:	03003420 	movweq	r3, #1056	; 0x420
     178:	3b0b3a08 	blcc	2ce9a0 <__bss_end__+0x2c1f20>
     17c:	0213490b 	andseq	r4, r3, #180224	; 0x2c000
     180:	21000017 	tstcs	r0, r7, lsl r0
     184:	0e030034 	mcreq	0, 0, r0, cr3, cr4, {1}
     188:	19341349 	ldmdbne	r4!, {r0, r3, r6, r8, r9, ip}
     18c:	00001802 	andeq	r1, r0, r2, lsl #16
     190:	31011d22 	tstcc	r1, r2, lsr #26
     194:	12011113 	andne	r1, r1, #-1073741820	; 0xc0000004
     198:	590b5806 	stmdbpl	fp, {r1, r2, fp, ip, lr}
     19c:	0013010b 	andseq	r0, r3, fp, lsl #2
     1a0:	82892300 	addhi	r2, r9, #0, 6
     1a4:	01110001 	tsteq	r1, r1
     1a8:	00001331 	andeq	r1, r0, r1, lsr r3
     1ac:	01828924 	orreq	r8, r2, r4, lsr #18
     1b0:	31011101 	tstcc	r1, r1, lsl #2
     1b4:	00130113 	andseq	r0, r3, r3, lsl r1
     1b8:	828a2500 	addhi	r2, sl, #0, 10
     1bc:	18020001 	stmdane	r2, {r0}
     1c0:	00184291 	mulseq	r8, r1, r2
     1c4:	012e2600 	teqeq	lr, r0, lsl #12
     1c8:	0b3a0e03 	bleq	e839dc <__bss_end__+0xe76f5c>
     1cc:	19270b3b 	stmdbne	r7!, {r0, r1, r3, r4, r5, r8, r9, fp}
     1d0:	13010b20 	movwne	r0, #6944	; 0x1b20
     1d4:	05270000 	streq	r0, [r7, #-0]!
     1d8:	3a0e0300 	bcc	380de0 <__bss_end__+0x374360>
     1dc:	490b3b0b 	stmdbmi	fp, {r0, r1, r3, r8, r9, fp, ip, sp}
     1e0:	28000013 	stmdacs	r0, {r0, r1, r4}
     1e4:	0e030034 	mcreq	0, 0, r0, cr3, cr4, {1}
     1e8:	19341349 	ldmdbne	r4!, {r0, r3, r6, r8, r9, ip}
     1ec:	00000e1c 	andeq	r0, r0, ip, lsl lr
     1f0:	03003429 	movweq	r3, #1065	; 0x429
     1f4:	3b0b3a08 	blcc	2cea1c <__bss_end__+0x2c1f9c>
     1f8:	0013490b 	andseq	r4, r3, fp, lsl #18
     1fc:	00342a00 	eorseq	r2, r4, r0, lsl #20
     200:	18021331 	stmdane	r2, {r0, r4, r5, r8, r9, ip}
     204:	1d2b0000 	stcne	0, cr0, [fp, #-0]
     208:	52133101 	andspl	r3, r3, #1073741824	; 0x40000000
     20c:	58175501 	ldmdapl	r7, {r0, r8, sl, ip, lr}
     210:	010b590b 	tsteq	fp, fp, lsl #18
     214:	2c000013 	stccs	0, cr0, [r0], {19}
     218:	1755010b 	ldrbne	r0, [r5, -fp, lsl #2]
     21c:	2e2d0000 	cdpcs	0, 2, cr0, cr13, cr0, {0}
     220:	3a0e0301 	bcc	380e2c <__bss_end__+0x3743ac>
     224:	270b3b0b 	strcs	r3, [fp, -fp, lsl #22]
     228:	11134919 	tstne	r3, r9, lsl r9
     22c:	40061201 	andmi	r1, r6, r1, lsl #4
     230:	19429718 	stmdbne	r2, {r3, r4, r8, r9, sl, ip, pc}^
     234:	00001301 	andeq	r1, r0, r1, lsl #6
     238:	0182892e 	orreq	r8, r2, lr, lsr #18
     23c:	01011101 	tsteq	r1, r1, lsl #2
     240:	2f000013 	svccs	0x00000013
     244:	193f002e 	ldmdbne	pc!, {r1, r2, r3, r5}	; <UNPREDICTABLE>
     248:	0b3a0e03 	bleq	e83a5c <__bss_end__+0xe76fdc>
     24c:	19270b3b 	stmdbne	r7!, {r0, r1, r3, r4, r5, r8, r9, fp}
     250:	01111349 	tsteq	r1, r9, asr #6
     254:	18400612 	stmdane	r0, {r1, r4, r9, sl}^
     258:	00194297 	mulseq	r9, r7, r2
     25c:	012e3000 	teqeq	lr, r0
     260:	0e03193f 	mcreq	9, 0, r1, cr3, cr15, {1}
     264:	0b3b0b3a 	bleq	ec2f54 <__bss_end__+0xeb64d4>
     268:	01111927 	tsteq	r1, r7, lsr #18
     26c:	18400612 	stmdane	r0, {r1, r4, r9, sl}^
     270:	01194297 			; <UNDEFINED> instruction: 0x01194297
     274:	31000013 	tstcc	r0, r3, lsl r0
     278:	08030034 	stmdaeq	r3, {r2, r4, r5}
     27c:	0b3b0b3a 	bleq	ec2f6c <__bss_end__+0xeb64ec>
     280:	18021349 	stmdane	r2, {r0, r3, r6, r8, r9, ip}
     284:	34320000 	ldrtcc	r0, [r2], #-0
     288:	3a0e0300 	bcc	380e90 <__bss_end__+0x374410>
     28c:	490b3b0b 	stmdbmi	fp, {r0, r1, r3, r8, r9, fp, ip, sp}
     290:	00180213 	andseq	r0, r8, r3, lsl r2
     294:	00343300 	eorseq	r3, r4, r0, lsl #6
     298:	0b3a0e03 	bleq	e83aac <__bss_end__+0xe7702c>
     29c:	13490b3b 	movtne	r0, #39739	; 0x9b3b
     2a0:	193c193f 	ldmdbne	ip!, {r0, r1, r2, r3, r4, r5, r8, fp, ip}
     2a4:	2e340000 	cdpcs	0, 3, cr0, cr4, cr0, {0}
     2a8:	03193f00 	tsteq	r9, #0, 30
     2ac:	3b0b3a0e 	blcc	2ceaec <__bss_end__+0x2c206c>
     2b0:	3c19270b 	ldccc	7, cr2, [r9], {11}
     2b4:	35000019 	strcc	r0, [r0, #-25]
     2b8:	193f012e 	ldmdbne	pc!, {r1, r2, r3, r5, r8}	; <UNPREDICTABLE>
     2bc:	0b3a0e03 	bleq	e83ad0 <__bss_end__+0xe77050>
     2c0:	19270b3b 	stmdbne	r7!, {r0, r1, r3, r4, r5, r8, r9, fp}
     2c4:	193c1349 	ldmdbne	ip!, {r0, r3, r6, r8, r9, ip}
     2c8:	00001301 	andeq	r1, r0, r1, lsl #6
     2cc:	00001836 	andeq	r1, r0, r6, lsr r8
     2d0:	012e3700 	teqeq	lr, r0, lsl #14
     2d4:	0e03193f 	mcreq	9, 0, r1, cr3, cr15, {1}
     2d8:	0b3b0b3a 	bleq	ec2fc8 <__bss_end__+0xeb6548>
     2dc:	13491927 	movtne	r1, #39207	; 0x9927
     2e0:	0000193c 	andeq	r1, r0, ip, lsr r9
     2e4:	01110100 	tsteq	r1, r0, lsl #2
     2e8:	0b130e25 	bleq	4c3b84 <__bss_end__+0x4b7104>
     2ec:	0e1b0e03 	cdpeq	14, 1, cr0, cr11, cr3, {0}
     2f0:	06120111 			; <UNDEFINED> instruction: 0x06120111
     2f4:	00001710 	andeq	r1, r0, r0, lsl r7
     2f8:	0b002402 	bleq	9308 <emit+0x68>
     2fc:	030b3e0b 	movweq	r3, #48651	; 0xbe0b
     300:	03000008 	movweq	r0, #8
     304:	0b0b0024 	bleq	2c039c <__bss_end__+0x2b391c>
     308:	0e030b3e 	vmoveq.16	d3[0], r0
     30c:	16040000 	strne	r0, [r4], -r0
     310:	3a0e0300 	bcc	380f18 <__bss_end__+0x374498>
     314:	490b3b0b 	stmdbmi	fp, {r0, r1, r3, r8, r9, fp, ip, sp}
     318:	05000013 	streq	r0, [r0, #-19]
     31c:	0b0b000f 	bleq	2c0360 <__bss_end__+0x2b38e0>
     320:	0f060000 	svceq	0x00060000
     324:	490b0b00 	stmdbmi	fp, {r8, r9, fp}
     328:	07000013 	smladeq	r0, r3, r0, r0
     32c:	13490026 	movtne	r0, #36902	; 0x9026
     330:	15080000 	strne	r0, [r8, #-0]
     334:	01192701 	tsteq	r9, r1, lsl #14
     338:	09000013 	stmdbeq	r0, {r0, r1, r4}
     33c:	13490005 	movtne	r0, #36869	; 0x9005
     340:	2e0a0000 	cdpcs	0, 0, cr0, cr10, cr0, {0}
     344:	3a0e0301 	bcc	380f50 <__bss_end__+0x3744d0>
     348:	270b3b0b 	strcs	r3, [fp, -fp, lsl #22]
     34c:	20134919 	andscs	r4, r3, r9, lsl r9
     350:	0013010b 	andseq	r0, r3, fp, lsl #2
     354:	00340b00 	eorseq	r0, r4, r0, lsl #22
     358:	0b3a0803 	bleq	e8236c <__bss_end__+0xe758ec>
     35c:	13490b3b 	movtne	r0, #39739	; 0x9b3b
     360:	050c0000 	streq	r0, [ip, #-0]
     364:	3a080300 	bcc	200f6c <__bss_end__+0x1f44ec>
     368:	490b3b0b 	stmdbmi	fp, {r0, r1, r3, r8, r9, fp, ip, sp}
     36c:	0d000013 	stceq	0, cr0, [r0, #-76]	; 0xffffffb4
     370:	0e03012e 	adfeqsp	f0, f3, #0.5
     374:	0b3b0b3a 	bleq	ec3064 <__bss_end__+0xeb65e4>
     378:	0b201927 	bleq	80681c <__bss_end__+0x7f9d9c>
     37c:	00001301 	andeq	r1, r0, r1, lsl #6
     380:	0300340e 	movweq	r3, #1038	; 0x40e
     384:	3b0b3a0e 	blcc	2cebc4 <__bss_end__+0x2c2144>
     388:	0013490b 	andseq	r4, r3, fp, lsl #18
     38c:	012e0f00 	teqeq	lr, r0, lsl #30
     390:	0e03193f 	mcreq	9, 0, r1, cr3, cr15, {1}
     394:	0b3b0b3a 	bleq	ec3084 <__bss_end__+0xeb6604>
     398:	01111927 	tsteq	r1, r7, lsr #18
     39c:	18400612 	stmdane	r0, {r1, r4, r9, sl}^
     3a0:	01194297 			; <UNDEFINED> instruction: 0x01194297
     3a4:	10000013 	andne	r0, r0, r3, lsl r0
     3a8:	0e030005 	cdpeq	0, 0, cr0, cr3, cr5, {0}
     3ac:	0b3b0b3a 	bleq	ec309c <__bss_end__+0xeb661c>
     3b0:	17021349 	strne	r1, [r2, -r9, asr #6]
     3b4:	34110000 	ldrcc	r0, [r1], #-0
     3b8:	3a0e0300 	bcc	380fc0 <__bss_end__+0x374540>
     3bc:	490b3b0b 	stmdbmi	fp, {r0, r1, r3, r8, r9, fp, ip, sp}
     3c0:	00170213 	andseq	r0, r7, r3, lsl r2
     3c4:	00341200 	eorseq	r1, r4, r0, lsl #4
     3c8:	13490e03 	movtne	r0, #40451	; 0x9e03
     3cc:	18021934 	stmdane	r2, {r2, r4, r5, r8, fp, ip}
     3d0:	1d130000 	ldcne	0, cr0, [r3, #-0]
     3d4:	11133101 	tstne	r3, r1, lsl #2
     3d8:	58061201 	stmdapl	r6, {r0, r9, ip}
     3dc:	010b590b 	tsteq	fp, fp, lsl #18
     3e0:	14000013 	strne	r0, [r0], #-19
     3e4:	0111010b 	tsteq	r1, fp, lsl #2
     3e8:	00000612 	andeq	r0, r0, r2, lsl r6
     3ec:	31003415 	tstcc	r0, r5, lsl r4
     3f0:	00170213 	andseq	r0, r7, r3, lsl r2
     3f4:	00051600 	andeq	r1, r5, r0, lsl #12
     3f8:	17021331 	smladxne	r2, r1, r3, r1
     3fc:	05170000 	ldreq	r0, [r7, #-0]
     400:	1c133100 	ldfnes	f3, [r3], {-0}
     404:	18000005 	stmdane	r0, {r0, r2}
     408:	13310005 	teqne	r1, #5
     40c:	00000b1c 	andeq	r0, r0, ip, lsl fp
     410:	01828919 	orreq	r8, r2, r9, lsl r9
     414:	31011100 	mrscc	r1, (UNDEF: 17)
     418:	1a000013 	bne	46c <__code_start__-0x7b94>
     41c:	01018289 	smlabbeq	r1, r9, r2, r8
     420:	13310111 	teqne	r1, #1073741828	; 0x40000004
     424:	00001301 	andeq	r1, r0, r1, lsl #6
     428:	01828a1b 	orreq	r8, r2, fp, lsl sl
     42c:	91180200 	tstls	r8, r0, lsl #4
     430:	00001842 	andeq	r1, r0, r2, asr #16
     434:	4901011c 	stmdbmi	r1, {r2, r3, r4, r8}
     438:	00130113 	andseq	r0, r3, r3, lsl r1
     43c:	00211d00 	eoreq	r1, r1, r0, lsl #26
     440:	0b2f1349 	bleq	bc516c <__bss_end__+0xbb86ec>
     444:	341e0000 	ldrcc	r0, [lr], #-0
     448:	490e0300 	stmdbmi	lr, {r8, r9}
     44c:	1c193413 	cfldrsne	mvf3, [r9], {19}
     450:	1f00000e 	svcne	0x0000000e
     454:	08030005 	stmdaeq	r3, {r0, r2}
     458:	0b3b0b3a 	bleq	ec3148 <__bss_end__+0xeb66c8>
     45c:	17021349 	strne	r1, [r2, -r9, asr #6]
     460:	34200000 	strtcc	r0, [r0], #-0
     464:	3a0e0300 	bcc	38106c <__bss_end__+0x3745ec>
     468:	490b3b0b 	stmdbmi	fp, {r0, r1, r3, r8, r9, fp, ip, sp}
     46c:	00180213 	andseq	r0, r8, r3, lsl r2
     470:	00342100 	eorseq	r2, r4, r0, lsl #2
     474:	00001331 	andeq	r1, r0, r1, lsr r3
     478:	31011d22 	tstcc	r1, r2, lsr #26
     47c:	12011113 	andne	r1, r1, #-1073741820	; 0xc0000004
     480:	590b5806 	stmdbpl	fp, {r1, r2, fp, ip, lr}
     484:	2300000b 	movwcs	r0, #11
     488:	13310034 	teqne	r1, #52	; 0x34
     48c:	00001802 	andeq	r1, r0, r2, lsl #16
     490:	01828924 	orreq	r8, r2, r4, lsr #18
     494:	00011101 	andeq	r1, r1, r1, lsl #2
     498:	00342500 	eorseq	r2, r4, r0, lsl #10
     49c:	0b3a0803 	bleq	e824b0 <__bss_end__+0xe75a30>
     4a0:	13490b3b 	movtne	r0, #39739	; 0x9b3b
     4a4:	0000051c 	andeq	r0, r0, ip, lsl r5
     4a8:	03000526 	movweq	r0, #1318	; 0x526
     4ac:	3b0b3a0e 	blcc	2cecec <__bss_end__+0x2c226c>
     4b0:	0213490b 	andseq	r4, r3, #180224	; 0x2c000
     4b4:	27000018 	smladcs	r0, r8, r0, r0
     4b8:	13310005 	teqne	r1, #5
     4bc:	00001802 	andeq	r1, r0, r2, lsl #16
     4c0:	03000528 	movweq	r0, #1320	; 0x528
     4c4:	3b0b3a08 	blcc	2cecec <__bss_end__+0x2c226c>
     4c8:	0213490b 	andseq	r4, r3, #180224	; 0x2c000
     4cc:	29000018 	stmdbcs	r0, {r3, r4}
     4d0:	13310005 	teqne	r1, #5
     4d4:	0000061c 	andeq	r0, r0, ip, lsl r6
     4d8:	0300342a 	movweq	r3, #1066	; 0x42a
     4dc:	3b0b3a0e 	blcc	2ced1c <__bss_end__+0x2c229c>
     4e0:	1c13490b 	ldcne	9, cr4, [r3], {11}
     4e4:	2b000006 	blcs	504 <__code_start__-0x7afc>
     4e8:	1331011d 	teqne	r1, #1073741831	; 0x40000007
     4ec:	06120111 			; <UNDEFINED> instruction: 0x06120111
     4f0:	05590b58 	ldrbeq	r0, [r9, #-2904]	; 0xb58
     4f4:	2e2c0000 	cdpcs	0, 2, cr0, cr12, cr0, {0}
     4f8:	03193f01 	tsteq	r9, #1, 30
     4fc:	3b0b3a0e 	blcc	2ced3c <__bss_end__+0x2c22bc>
     500:	49192705 	ldmdbmi	r9, {r0, r2, r8, r9, sl, sp}
     504:	12011113 	andne	r1, r1, #-1073741820	; 0xc0000004
     508:	97184006 	ldrls	r4, [r8, -r6]
     50c:	13011942 	movwne	r1, #6466	; 0x1942
     510:	052d0000 	streq	r0, [sp, #-0]!
     514:	3a080300 	bcc	20111c <__bss_end__+0x1f469c>
     518:	49053b0b 	stmdbmi	r5, {r0, r1, r3, r8, r9, fp, ip, sp}
     51c:	00170213 	andseq	r0, r7, r3, lsl r2
     520:	00342e00 	eorseq	r2, r4, r0, lsl #28
     524:	0b3a0e03 	bleq	e83d38 <__bss_end__+0xe772b8>
     528:	1349053b 	movtne	r0, #38203	; 0x953b
     52c:	00001702 	andeq	r1, r0, r2, lsl #14
     530:	0182892f 	orreq	r8, r2, pc, lsr #18
     534:	31011101 	tstcc	r1, r1, lsl #2
     538:	30000013 	andcc	r0, r0, r3, lsl r0
     53c:	0e030034 	mcreq	0, 0, r0, cr3, cr4, {1}
     540:	0b3b0b3a 	bleq	ec3230 <__bss_end__+0xeb67b0>
     544:	193f1349 	ldmdbne	pc!, {r0, r3, r6, r8, r9, ip}	; <UNPREDICTABLE>
     548:	00001802 	andeq	r1, r0, r2, lsl #16
     54c:	3f002e31 	svccc	0x00002e31
     550:	3a0e0319 	bcc	3811bc <__bss_end__+0x37473c>
     554:	270b3b0b 	strcs	r3, [fp, -fp, lsl #22]
     558:	00193c19 	andseq	r3, r9, r9, lsl ip
     55c:	012e3200 	teqeq	lr, r0, lsl #4
     560:	0e03193f 	mcreq	9, 0, r1, cr3, cr15, {1}
     564:	0b3b0b3a 	bleq	ec3254 <__bss_end__+0xeb67d4>
     568:	13491927 	movtne	r1, #39207	; 0x9927
     56c:	1301193c 	movwne	r1, #6460	; 0x193c
     570:	18330000 	ldmdane	r3!, {}	; <UNPREDICTABLE>
     574:	00000000 	andeq	r0, r0, r0
     578:	25011101 	strcs	r1, [r1, #-257]	; 0x101
     57c:	030b130e 	movweq	r1, #45838	; 0xb30e
     580:	110e1b0e 	tstne	lr, lr, lsl #22
     584:	10061201 	andne	r1, r6, r1, lsl #4
     588:	02000017 	andeq	r0, r0, #23
     58c:	0b0b0024 	bleq	2c0624 <__bss_end__+0x2b3ba4>
     590:	08030b3e 	stmdaeq	r3, {r1, r2, r3, r4, r5, r8, r9, fp}
     594:	24030000 	strcs	r0, [r3], #-0
     598:	3e0b0b00 	vmlacc.f64	d0, d11, d0
     59c:	000e030b 	andeq	r0, lr, fp, lsl #6
     5a0:	00160400 	andseq	r0, r6, r0, lsl #8
     5a4:	0b3a0e03 	bleq	e83db8 <__bss_end__+0xe77338>
     5a8:	13490b3b 	movtne	r0, #39739	; 0x9b3b
     5ac:	0f050000 	svceq	0x00050000
     5b0:	000b0b00 	andeq	r0, fp, r0, lsl #22
     5b4:	000f0600 	andeq	r0, pc, r0, lsl #12
     5b8:	13490b0b 	movtne	r0, #39691	; 0x9b0b
     5bc:	26070000 	strcs	r0, [r7], -r0
     5c0:	00134900 	andseq	r4, r3, r0, lsl #18
     5c4:	01150800 	tsteq	r5, r0, lsl #16
     5c8:	13011927 	movwne	r1, #6439	; 0x1927
     5cc:	05090000 	streq	r0, [r9, #-0]
     5d0:	00134900 	andseq	r4, r3, r0, lsl #18
     5d4:	01130a00 	tsteq	r3, r0, lsl #20
     5d8:	0b0b0e03 	bleq	2c3dec <__bss_end__+0x2b736c>
     5dc:	0b3b0b3a 	bleq	ec32cc <__bss_end__+0xeb684c>
     5e0:	00001301 	andeq	r1, r0, r1, lsl #6
     5e4:	03000d0b 	movweq	r0, #3339	; 0xd0b
     5e8:	3b0b3a0e 	blcc	2cee28 <__bss_end__+0x2c23a8>
     5ec:	3813490b 	ldmdacc	r3, {r0, r1, r3, r8, fp, lr}
     5f0:	0c00000b 	stceq	0, cr0, [r0], {11}
     5f4:	0803000d 	stmdaeq	r3, {r0, r2, r3}
     5f8:	0b3b0b3a 	bleq	ec32e8 <__bss_end__+0xeb6868>
     5fc:	0b381349 	bleq	e05328 <__bss_end__+0xdf88a8>
     600:	350d0000 	strcc	r0, [sp, #-0]
     604:	0e000000 	cdpeq	0, 0, cr0, cr0, cr0, {0}
     608:	19270115 	stmdbne	r7!, {r0, r2, r4, r8}
     60c:	13011349 	movwne	r1, #4937	; 0x1349
     610:	350f0000 	strcc	r0, [pc, #-0]	; 618 <__code_start__-0x79e8>
     614:	00134900 	andseq	r4, r3, r0, lsl #18
     618:	012e1000 	teqeq	lr, r0
     61c:	0b3a0e03 	bleq	e83e30 <__bss_end__+0xe773b0>
     620:	19270b3b 	stmdbne	r7!, {r0, r1, r3, r4, r5, r8, r9, fp}
     624:	0b201349 	bleq	805350 <__bss_end__+0x7f88d0>
     628:	00001301 	andeq	r1, r0, r1, lsl #6
     62c:	03003411 	movweq	r3, #1041	; 0x411
     630:	3b0b3a08 	blcc	2cee58 <__bss_end__+0x2c23d8>
     634:	0013490b 	andseq	r4, r3, fp, lsl #18
     638:	00051200 	andeq	r1, r5, r0, lsl #4
     63c:	0b3a0e03 	bleq	e83e50 <__bss_end__+0xe773d0>
     640:	13490b3b 	movtne	r0, #39739	; 0x9b3b
     644:	34130000 	ldrcc	r0, [r3], #-0
     648:	3a0e0300 	bcc	381250 <__bss_end__+0x3747d0>
     64c:	490b3b0b 	stmdbmi	fp, {r0, r1, r3, r8, r9, fp, ip, sp}
     650:	14000013 	strne	r0, [r0], #-19
     654:	0e03012e 	adfeqsp	f0, f3, #0.5
     658:	0b3b0b3a 	bleq	ec3348 <__bss_end__+0xeb68c8>
     65c:	01111927 	tsteq	r1, r7, lsr #18
     660:	18400612 	stmdane	r0, {r1, r4, r9, sl}^
     664:	01194297 			; <UNDEFINED> instruction: 0x01194297
     668:	15000013 	strne	r0, [r0, #-19]
     66c:	0e030005 	cdpeq	0, 0, cr0, cr3, cr5, {0}
     670:	0b3b0b3a 	bleq	ec3360 <__bss_end__+0xeb68e0>
     674:	17021349 	strne	r1, [r2, -r9, asr #6]
     678:	05160000 	ldreq	r0, [r6, #-0]
     67c:	3a080300 	bcc	201284 <__bss_end__+0x1f4804>
     680:	490b3b0b 	stmdbmi	fp, {r0, r1, r3, r8, r9, fp, ip, sp}
     684:	00170213 	andseq	r0, r7, r3, lsl r2
     688:	00341700 	eorseq	r1, r4, r0, lsl #14
     68c:	13490e03 	movtne	r0, #40451	; 0x9e03
     690:	18021934 	stmdane	r2, {r2, r4, r5, r8, fp, ip}
     694:	34180000 	ldrcc	r0, [r8], #-0
     698:	3a080300 	bcc	2012a0 <__bss_end__+0x1f4820>
     69c:	490b3b0b 	stmdbmi	fp, {r0, r1, r3, r8, r9, fp, ip, sp}
     6a0:	00170213 	andseq	r0, r7, r3, lsl r2
     6a4:	011d1900 	tsteq	sp, r0, lsl #18
     6a8:	01111331 	tsteq	r1, r1, lsr r3
     6ac:	0b580612 	bleq	1601efc <__bss_end__+0x15f547c>
     6b0:	13010b59 	movwne	r0, #7001	; 0x1b59
     6b4:	0b1a0000 	bleq	6806bc <__bss_end__+0x673c3c>
     6b8:	12011101 	andne	r1, r1, #1073741824	; 0x40000000
     6bc:	1b000006 	blne	6dc <__code_start__-0x7924>
     6c0:	13310034 	teqne	r1, #52	; 0x34
     6c4:	1d1c0000 	ldcne	0, cr0, [ip, #-0]
     6c8:	11133101 	tstne	r3, r1, lsl #2
     6cc:	58061201 	stmdapl	r6, {r0, r9, ip}
     6d0:	000b590b 	andeq	r5, fp, fp, lsl #18
     6d4:	00341d00 	eorseq	r1, r4, r0, lsl #26
     6d8:	17021331 	smladxne	r2, r1, r3, r1
     6dc:	891e0000 	ldmdbhi	lr, {}	; <UNPREDICTABLE>
     6e0:	11010182 	smlabbne	r1, r2, r1, r0
     6e4:	01133101 	tsteq	r3, r1, lsl #2
     6e8:	1f000013 	svcne	0x00000013
     6ec:	0001828a 	andeq	r8, r1, sl, lsl #5
     6f0:	42911802 	addsmi	r1, r1, #131072	; 0x20000
     6f4:	20000018 	andcs	r0, r0, r8, lsl r0
     6f8:	00018289 	andeq	r8, r1, r9, lsl #5
     6fc:	13310111 	teqne	r1, #1073741828	; 0x40000004
     700:	89210000 	stmdbhi	r1!, {}	; <UNPREDICTABLE>
     704:	11010182 	smlabbne	r1, r2, r1, r0
     708:	00130101 	andseq	r0, r3, r1, lsl #2
     70c:	82892200 	addhi	r2, r9, #0, 4
     710:	01110101 	tsteq	r1, r1, lsl #2
     714:	00001331 	andeq	r1, r0, r1, lsr r3
     718:	49010123 	stmdbmi	r1, {r0, r1, r5, r8}
     71c:	00130113 	andseq	r0, r3, r3, lsl r1
     720:	00212400 	eoreq	r2, r1, r0, lsl #8
     724:	0b2f1349 	bleq	bc5450 <__bss_end__+0xbb89d0>
     728:	34250000 	strtcc	r0, [r5], #-0
     72c:	490e0300 	stmdbmi	lr, {r8, r9}
     730:	1c193413 	cfldrsne	mvf3, [r9], {19}
     734:	2600000e 	strcs	r0, [r0], -lr
     738:	08030005 	stmdaeq	r3, {r0, r2}
     73c:	0b3b0b3a 	bleq	ec342c <__bss_end__+0xeb69ac>
     740:	00001349 	andeq	r1, r0, r9, asr #6
     744:	03012e27 	movweq	r2, #7719	; 0x1e27
     748:	3b0b3a0e 	blcc	2cef88 <__bss_end__+0x2c2508>
     74c:	4919270b 	ldmdbmi	r9, {r0, r1, r3, r8, r9, sl, sp}
     750:	12011113 	andne	r1, r1, #-1073741820	; 0xc0000004
     754:	97184006 	ldrls	r4, [r8, -r6]
     758:	13011942 	movwne	r1, #6466	; 0x1942
     75c:	34280000 	strtcc	r0, [r8], #-0
     760:	3a0e0300 	bcc	381368 <__bss_end__+0x3748e8>
     764:	490b3b0b 	stmdbmi	fp, {r0, r1, r3, r8, r9, fp, ip, sp}
     768:	00180213 	andseq	r0, r8, r3, lsl r2
     76c:	00052900 	andeq	r2, r5, r0, lsl #18
     770:	0b1c1331 	bleq	70543c <__bss_end__+0x6f89bc>
     774:	052a0000 	streq	r0, [sl, #-0]!
     778:	02133100 	andseq	r3, r3, #0, 2
     77c:	2b000017 	blcs	7e0 <__code_start__-0x7820>
     780:	13310034 	teqne	r1, #52	; 0x34
     784:	00001802 	andeq	r1, r0, r2, lsl #16
     788:	3100342c 	tstcc	r0, ip, lsr #8
     78c:	000b1c13 	andeq	r1, fp, r3, lsl ip
     790:	00052d00 	andeq	r2, r5, r0, lsl #26
     794:	00001331 	andeq	r1, r0, r1, lsr r3
     798:	0300052e 	movweq	r0, #1326	; 0x52e
     79c:	3b0b3a08 	blcc	2cefc4 <__bss_end__+0x2c2544>
     7a0:	0213490b 	andseq	r4, r3, #180224	; 0x2c000
     7a4:	2f000018 	svccs	0x00000018
     7a8:	193f012e 	ldmdbne	pc!, {r1, r2, r3, r5, r8}	; <UNPREDICTABLE>
     7ac:	0b3a0e03 	bleq	e83fc0 <__bss_end__+0xe77540>
     7b0:	19270b3b 	stmdbne	r7!, {r0, r1, r3, r4, r5, r8, r9, fp}
     7b4:	01111349 	tsteq	r1, r9, asr #6
     7b8:	18400612 	stmdane	r0, {r1, r4, r9, sl}^
     7bc:	01194297 			; <UNDEFINED> instruction: 0x01194297
     7c0:	30000013 	andcc	r0, r0, r3, lsl r0
     7c4:	0e030034 	mcreq	0, 0, r0, cr3, cr4, {1}
     7c8:	0b3b0b3a 	bleq	ec34b8 <__bss_end__+0xeb6a38>
     7cc:	193f1349 	ldmdbne	pc!, {r0, r3, r6, r8, r9, ip}	; <UNPREDICTABLE>
     7d0:	0000193c 	andeq	r1, r0, ip, lsr r9
     7d4:	3f012e31 	svccc	0x00012e31
     7d8:	3a0e0319 	bcc	381444 <__bss_end__+0x3749c4>
     7dc:	270b3b0b 	strcs	r3, [fp, -fp, lsl #22]
     7e0:	3c134919 	ldccc	9, cr4, [r3], {25}
     7e4:	00130119 	andseq	r0, r3, r9, lsl r1
     7e8:	00183200 	andseq	r3, r8, r0, lsl #4
     7ec:	2e330000 	cdpcs	0, 3, cr0, cr3, cr0, {0}
     7f0:	03193f00 	tsteq	r9, #0, 30
     7f4:	3b0b3a0e 	blcc	2cf034 <__bss_end__+0x2c25b4>
     7f8:	3c19270b 	ldccc	7, cr2, [r9], {11}
     7fc:	34000019 	strcc	r0, [r0], #-25
     800:	193f012e 	ldmdbne	pc!, {r1, r2, r3, r5, r8}	; <UNPREDICTABLE>
     804:	0b3a0e03 	bleq	e84018 <__bss_end__+0xe77598>
     808:	19270b3b 	stmdbne	r7!, {r0, r1, r3, r4, r5, r8, r9, fp}
     80c:	1301193c 	movwne	r1, #6460	; 0x193c
     810:	01000000 	mrseq	r0, (UNDEF: 0)
     814:	0e250111 	mcreq	1, 1, r0, cr5, cr1, {0}
     818:	0e030b13 	vmoveq.32	d3[0], r0
     81c:	01110e1b 	tsteq	r1, fp, lsl lr
     820:	17100612 			; <UNDEFINED> instruction: 0x17100612
     824:	24020000 	strcs	r0, [r2], #-0
     828:	3e0b0b00 	vmlacc.f64	d0, d11, d0
     82c:	000e030b 	andeq	r0, lr, fp, lsl #6
     830:	00240300 	eoreq	r0, r4, r0, lsl #6
     834:	0b3e0b0b 	bleq	f83468 <__bss_end__+0xf769e8>
     838:	00000803 	andeq	r0, r0, r3, lsl #16
     83c:	0b000f04 	bleq	4454 <__code_start__-0x3bac>
     840:	0500000b 	streq	r0, [r0, #-11]
     844:	0b0b000f 	bleq	2c0888 <__bss_end__+0x2b3e08>
     848:	00001349 	andeq	r1, r0, r9, asr #6
     84c:	03001606 	movweq	r1, #1542	; 0x606
     850:	3b0b3a0e 	blcc	2cf090 <__bss_end__+0x2c2610>
     854:	0013490b 	andseq	r4, r3, fp, lsl #18
     858:	012e0700 	teqeq	lr, r0, lsl #14
     85c:	0e03193f 	mcreq	9, 0, r1, cr3, cr15, {1}
     860:	0b3b0b3a 	bleq	ec3550 <__bss_end__+0xeb6ad0>
     864:	13491927 	movtne	r1, #39207	; 0x9927
     868:	06120111 			; <UNDEFINED> instruction: 0x06120111
     86c:	42971840 	addsmi	r1, r7, #64, 16	; 0x400000
     870:	08000019 	stmdaeq	r0, {r0, r3, r4}
     874:	08030005 	stmdaeq	r3, {r0, r2}
     878:	0b3b0b3a 	bleq	ec3568 <__bss_end__+0xeb6ae8>
     87c:	18021349 	stmdane	r2, {r0, r3, r6, r8, r9, ip}
     880:	05090000 	streq	r0, [r9, #-0]
     884:	3a080300 	bcc	20148c <__bss_end__+0x1f4a0c>
     888:	490b3b0b 	stmdbmi	fp, {r0, r1, r3, r8, r9, fp, ip, sp}
     88c:	00170213 	andseq	r0, r7, r3, lsl r2
     890:	00340a00 	eorseq	r0, r4, r0, lsl #20
     894:	0b3a0803 	bleq	e828a8 <__bss_end__+0xe75e28>
     898:	13490b3b 	movtne	r0, #39739	; 0x9b3b
     89c:	00001702 	andeq	r1, r0, r2, lsl #14
     8a0:	0300340b 	movweq	r3, #1035	; 0x40b
     8a4:	3b0b3a08 	blcc	2cf0cc <__bss_end__+0x2c264c>
     8a8:	0213490b 	andseq	r4, r3, #180224	; 0x2c000
     8ac:	00000018 	andeq	r0, r0, r8, lsl r0
     8b0:	25011101 	strcs	r1, [r1, #-257]	; 0x101
     8b4:	030b130e 	movweq	r1, #45838	; 0xb30e
     8b8:	110e1b0e 	tstne	lr, lr, lsl #22
     8bc:	10061201 	andne	r1, r6, r1, lsl #4
     8c0:	02000017 	andeq	r0, r0, #23
     8c4:	0e030016 	mcreq	0, 0, r0, cr3, cr6, {0}
     8c8:	0b3b0b3a 	bleq	ec35b8 <__bss_end__+0xeb6b38>
     8cc:	00001349 	andeq	r1, r0, r9, asr #6
     8d0:	03011303 	movweq	r1, #4867	; 0x1303
     8d4:	3a0b0b0e 	bcc	2c3514 <__bss_end__+0x2b6a94>
     8d8:	010b3b0b 	tsteq	fp, fp, lsl #22
     8dc:	04000013 	streq	r0, [r0], #-19
     8e0:	0e03000d 	cdpeq	0, 0, cr0, cr3, cr13, {0}
     8e4:	0b381349 	bleq	e05610 <__bss_end__+0xdf8b90>
     8e8:	00001934 	andeq	r1, r0, r4, lsr r9
     8ec:	0b000f05 	bleq	4508 <__code_start__-0x3af8>
     8f0:	0600000b 	streq	r0, [r0], -fp
     8f4:	0b0b0024 	bleq	2c098c <__bss_end__+0x2b3f0c>
     8f8:	08030b3e 	stmdaeq	r3, {r1, r2, r3, r4, r5, r8, r9, fp}
     8fc:	24070000 	strcs	r0, [r7], #-0
     900:	3e0b0b00 	vmlacc.f64	d0, d11, d0
     904:	000e030b 	andeq	r0, lr, fp, lsl #6
     908:	000f0800 	andeq	r0, pc, r0, lsl #16
     90c:	13490b0b 	movtne	r0, #39691	; 0x9b0b
     910:	26090000 	strcs	r0, [r9], -r0
     914:	00134900 	andseq	r4, r3, r0, lsl #18
     918:	012e0a00 	teqeq	lr, r0, lsl #20
     91c:	0e03193f 	mcreq	9, 0, r1, cr3, cr15, {1}
     920:	0b3b0b3a 	bleq	ec3610 <__bss_end__+0xeb6b90>
     924:	13491927 	movtne	r1, #39207	; 0x9927
     928:	06120111 			; <UNDEFINED> instruction: 0x06120111
     92c:	42971840 	addsmi	r1, r7, #64, 16	; 0x400000
     930:	00130119 	andseq	r0, r3, r9, lsl r1
     934:	00050b00 	andeq	r0, r5, r0, lsl #22
     938:	0b3a0803 	bleq	e8294c <__bss_end__+0xe75ecc>
     93c:	13490b3b 	movtne	r0, #39739	; 0x9b3b
     940:	00001802 	andeq	r1, r0, r2, lsl #16
     944:	0000180c 	andeq	r1, r0, ip, lsl #16
     948:	00340d00 	eorseq	r0, r4, r0, lsl #26
     94c:	0b3a0803 	bleq	e82960 <__bss_end__+0xe75ee0>
     950:	13490b3b 	movtne	r0, #39739	; 0x9b3b
     954:	00001802 	andeq	r1, r0, r2, lsl #16
     958:	0300340e 	movweq	r3, #1038	; 0x40e
     95c:	3b0b3a0e 	blcc	2cf19c <__bss_end__+0x2c271c>
     960:	0213490b 	andseq	r4, r3, #180224	; 0x2c000
     964:	0f000018 	svceq	0x00000018
     968:	08030034 	stmdaeq	r3, {r2, r4, r5}
     96c:	0b3b0b3a 	bleq	ec365c <__bss_end__+0xeb6bdc>
     970:	17021349 	strne	r1, [r2, -r9, asr #6]
     974:	89100000 	ldmdbhi	r0, {}	; <UNPREDICTABLE>
     978:	11010182 	smlabbne	r1, r2, r1, r0
     97c:	01133101 	tsteq	r3, r1, lsl #2
     980:	11000013 	tstne	r0, r3, lsl r0
     984:	0001828a 	andeq	r8, r1, sl, lsl #5
     988:	42911802 	addsmi	r1, r1, #131072	; 0x20000
     98c:	12000018 	andne	r0, r0, #24
     990:	01018289 	smlabbeq	r1, r9, r2, r8
     994:	00000111 	andeq	r0, r0, r1, lsl r1
     998:	49010113 	stmdbmi	r1, {r0, r1, r4, r8}
     99c:	00130113 	andseq	r0, r3, r3, lsl r1
     9a0:	00211400 	eoreq	r1, r1, r0, lsl #8
     9a4:	052f1349 	streq	r1, [pc, #-841]!	; 663 <__code_start__-0x799d>
     9a8:	15150000 	ldrne	r0, [r5, #-0]
     9ac:	49192701 	ldmdbmi	r9, {r0, r8, r9, sl, sp}
     9b0:	00130113 	andseq	r0, r3, r3, lsl r1
     9b4:	00051600 	andeq	r1, r5, r0, lsl #12
     9b8:	00001349 	andeq	r1, r0, r9, asr #6
     9bc:	03003417 	movweq	r3, #1047	; 0x417
     9c0:	3b0b3a0e 	blcc	2cf200 <__bss_end__+0x2c2780>
     9c4:	3f13490b 	svccc	0x0013490b
     9c8:	00193c19 	andseq	r3, r9, r9, lsl ip
     9cc:	012e1800 	teqeq	lr, r0, lsl #16
     9d0:	0e03193f 	mcreq	9, 0, r1, cr3, cr15, {1}
     9d4:	0b3b0b3a 	bleq	ec36c4 <__bss_end__+0xeb6c44>
     9d8:	13491927 	movtne	r1, #39207	; 0x9927
     9dc:	0000193c 	andeq	r1, r0, ip, lsr r9
     9e0:	01110100 	tsteq	r1, r0, lsl #2
     9e4:	0b130e25 	bleq	4c4280 <__bss_end__+0x4b7800>
     9e8:	0e1b0e03 	cdpeq	14, 1, cr0, cr11, cr3, {0}
     9ec:	06120111 			; <UNDEFINED> instruction: 0x06120111
     9f0:	00001710 	andeq	r1, r0, r0, lsl r7
     9f4:	0b002402 	bleq	9a04 <timer_get_usec+0x4>
     9f8:	030b3e0b 	movweq	r3, #48651	; 0xbe0b
     9fc:	03000008 	movweq	r0, #8
     a00:	0b0b0024 	bleq	2c0a98 <__bss_end__+0x2b4018>
     a04:	0e030b3e 	vmoveq.16	d3[0], r0
     a08:	2e040000 	cdpcs	0, 0, cr0, cr4, cr0, {0}
     a0c:	3a0e0301 	bcc	381618 <__bss_end__+0x374b98>
     a10:	270b3b0b 	strcs	r3, [fp, -fp, lsl #22]
     a14:	11134919 	tstne	r3, r9, lsl r9
     a18:	40061201 	andmi	r1, r6, r1, lsl #4
     a1c:	19429718 	stmdbne	r2, {r3, r4, r8, r9, sl, ip, pc}^
     a20:	00001301 	andeq	r1, r0, r1, lsl #6
     a24:	03000505 	movweq	r0, #1285	; 0x505
     a28:	3b0b3a08 	blcc	2cf250 <__bss_end__+0x2c27d0>
     a2c:	0213490b 	andseq	r4, r3, #180224	; 0x2c000
     a30:	06000017 			; <UNDEFINED> instruction: 0x06000017
     a34:	01018289 	smlabbeq	r1, r9, r2, r8
     a38:	13310111 	teqne	r1, #1073741828	; 0x40000004
     a3c:	8a070000 	bhi	1c0a44 <__bss_end__+0x1b3fc4>
     a40:	02000182 	andeq	r0, r0, #-2147483616	; 0x80000020
     a44:	18429118 	stmdane	r2, {r3, r4, r8, ip, pc}^
     a48:	2e080000 	cdpcs	0, 0, cr0, cr8, cr0, {0}
     a4c:	03193f00 	tsteq	r9, #0, 30
     a50:	3b0b3a0e 	blcc	2cf290 <__bss_end__+0x2c2810>
     a54:	1119270b 	tstne	r9, fp, lsl #14
     a58:	40061201 	andmi	r1, r6, r1, lsl #4
     a5c:	19429718 	stmdbne	r2, {r3, r4, r8, r9, sl, ip, pc}^
     a60:	2e090000 	cdpcs	0, 0, cr0, cr9, cr0, {0}
     a64:	03193f01 	tsteq	r9, #1, 30
     a68:	3b0b3a0e 	blcc	2cf2a8 <__bss_end__+0x2c2828>
     a6c:	1119270b 	tstne	r9, fp, lsl #14
     a70:	40061201 	andmi	r1, r6, r1, lsl #4
     a74:	19429718 	stmdbne	r2, {r3, r4, r8, r9, sl, ip, pc}^
     a78:	00001301 	andeq	r1, r0, r1, lsl #6
     a7c:	0300050a 	movweq	r0, #1290	; 0x50a
     a80:	3b0b3a08 	blcc	2cf2a8 <__bss_end__+0x2c2828>
     a84:	0213490b 	andseq	r4, r3, #180224	; 0x2c000
     a88:	0b000018 	bleq	af0 <__code_start__-0x7510>
     a8c:	19270115 	stmdbne	r7!, {r0, r2, r4, r8}
     a90:	13011349 	movwne	r1, #4937	; 0x1349
     a94:	050c0000 	streq	r0, [ip, #-0]
     a98:	00134900 	andseq	r4, r3, r0, lsl #18
     a9c:	000f0d00 	andeq	r0, pc, r0, lsl #26
     aa0:	13490b0b 	movtne	r0, #39691	; 0x9b0b
     aa4:	340e0000 	strcc	r0, [lr], #-0
     aa8:	3a0e0300 	bcc	3816b0 <__bss_end__+0x374c30>
     aac:	490b3b0b 	stmdbmi	fp, {r0, r1, r3, r8, r9, fp, ip, sp}
     ab0:	02193f13 	andseq	r3, r9, #19, 30	; 0x4c
     ab4:	0f000018 	svceq	0x00000018
     ab8:	193f012e 	ldmdbne	pc!, {r1, r2, r3, r5, r8}	; <UNPREDICTABLE>
     abc:	0b3a0e03 	bleq	e842d0 <__bss_end__+0xe77850>
     ac0:	19270b3b 	stmdbne	r7!, {r0, r1, r3, r4, r5, r8, r9, fp}
     ac4:	0000193c 	andeq	r1, r0, ip, lsr r9
     ac8:	01110100 	tsteq	r1, r0, lsl #2
     acc:	0b130e25 	bleq	4c4368 <__bss_end__+0x4b78e8>
     ad0:	0e1b0e03 	cdpeq	14, 1, cr0, cr11, cr3, {0}
     ad4:	06120111 			; <UNDEFINED> instruction: 0x06120111
     ad8:	00001710 	andeq	r1, r0, r0, lsl r7
     adc:	0b002402 	bleq	9aec <uart_init>
     ae0:	030b3e0b 	movweq	r3, #48651	; 0xbe0b
     ae4:	03000008 	movweq	r0, #8
     ae8:	0b0b0024 	bleq	2c0b80 <__bss_end__+0x2b4100>
     aec:	0e030b3e 	vmoveq.16	d3[0], r0
     af0:	0f040000 	svceq	0x00040000
     af4:	490b0b00 	stmdbmi	fp, {r8, r9, fp}
     af8:	05000013 	streq	r0, [r0, #-19]
     afc:	13490026 	movtne	r0, #36902	; 0x9026
     b00:	2e060000 	cdpcs	0, 0, cr0, cr6, cr0, {0}
     b04:	03193f01 	tsteq	r9, #1, 30
     b08:	3b0b3a0e 	blcc	2cf348 <__bss_end__+0x2c28c8>
     b0c:	4919270b 	ldmdbmi	r9, {r0, r1, r3, r8, r9, sl, sp}
     b10:	12011113 	andne	r1, r1, #-1073741820	; 0xc0000004
     b14:	96184006 	ldrls	r4, [r8], -r6
     b18:	13011942 	movwne	r1, #6466	; 0x1942
     b1c:	05070000 	streq	r0, [r7, #-0]
     b20:	3a080300 	bcc	201728 <__bss_end__+0x1f4ca8>
     b24:	490b3b0b 	stmdbmi	fp, {r0, r1, r3, r8, r9, fp, ip, sp}
     b28:	00170213 	andseq	r0, r7, r3, lsl r2
     b2c:	01150800 	tsteq	r5, r0, lsl #16
     b30:	13491927 	movtne	r1, #39207	; 0x9927
     b34:	00001301 	andeq	r1, r0, r1, lsl #6
     b38:	49000509 	stmdbmi	r0, {r0, r3, r8, sl}
     b3c:	0a000013 	beq	b90 <__code_start__-0x7470>
     b40:	0e030034 	mcreq	0, 0, r0, cr3, cr4, {1}
     b44:	0b3b0b3a 	bleq	ec3834 <__bss_end__+0xeb6db4>
     b48:	193f1349 	ldmdbne	pc!, {r0, r3, r6, r8, r9, ip}	; <UNPREDICTABLE>
     b4c:	0000193c 	andeq	r1, r0, ip, lsr r9
     b50:	0300340b 	movweq	r3, #1035	; 0x40b
     b54:	3b0b3a0e 	blcc	2cf394 <__bss_end__+0x2c2914>
     b58:	3f13490b 	svccc	0x0013490b
     b5c:	00180219 	andseq	r0, r8, r9, lsl r2
     b60:	11010000 	mrsne	r0, (UNDEF: 1)
     b64:	130e2501 	movwne	r2, #58625	; 0xe501
     b68:	1b0e030b 	blne	38179c <__bss_end__+0x374d1c>
     b6c:	1201110e 	andne	r1, r1, #-2147483645	; 0x80000003
     b70:	00171006 	andseq	r1, r7, r6
     b74:	00240200 	eoreq	r0, r4, r0, lsl #4
     b78:	0b3e0b0b 	bleq	f837ac <__bss_end__+0xf76d2c>
     b7c:	00000803 	andeq	r0, r0, r3, lsl #16
     b80:	0b002403 	bleq	9b94 <uart_init+0xa8>
     b84:	030b3e0b 	movweq	r3, #48651	; 0xbe0b
     b88:	0400000e 	streq	r0, [r0], #-14
     b8c:	0b0b000f 	bleq	2c0bd0 <__bss_end__+0x2b4150>
     b90:	0f050000 	svceq	0x00050000
     b94:	490b0b00 	stmdbmi	fp, {r8, r9, fp}
     b98:	06000013 			; <UNDEFINED> instruction: 0x06000013
     b9c:	13490026 	movtne	r0, #36902	; 0x9026
     ba0:	16070000 	strne	r0, [r7], -r0
     ba4:	3a0e0300 	bcc	3817ac <__bss_end__+0x374d2c>
     ba8:	490b3b0b 	stmdbmi	fp, {r0, r1, r3, r8, r9, fp, ip, sp}
     bac:	08000013 	stmdaeq	r0, {r0, r1, r4}
     bb0:	0e030113 	mcreq	1, 0, r0, cr3, cr3, {0}
     bb4:	0b3a0b0b 	bleq	e837e8 <__bss_end__+0xe76d68>
     bb8:	13010b3b 	movwne	r0, #6971	; 0x1b3b
     bbc:	0d090000 	stceq	0, cr0, [r9, #-0]
     bc0:	490e0300 	stmdbmi	lr, {r8, r9}
     bc4:	340b3813 	strcc	r3, [fp], #-2067	; 0x813
     bc8:	0a000019 	beq	c34 <__code_start__-0x73cc>
     bcc:	0e03012e 	adfeqsp	f0, f3, #0.5
     bd0:	0b3b0b3a 	bleq	ec38c0 <__bss_end__+0xeb6e40>
     bd4:	13491927 	movtne	r1, #39207	; 0x9927
     bd8:	06120111 			; <UNDEFINED> instruction: 0x06120111
     bdc:	42971840 	addsmi	r1, r7, #64, 16	; 0x400000
     be0:	00130119 	andseq	r0, r3, r9, lsl r1
     be4:	00050b00 	andeq	r0, r5, r0, lsl #22
     be8:	0b3a0803 	bleq	e82bfc <__bss_end__+0xe7617c>
     bec:	13490b3b 	movtne	r0, #39739	; 0x9b3b
     bf0:	00001702 	andeq	r1, r0, r2, lsl #14
     bf4:	03012e0c 	movweq	r2, #7692	; 0x1e0c
     bf8:	3b0b3a08 	blcc	2cf420 <__bss_end__+0x2c29a0>
     bfc:	4919270b 	ldmdbmi	r9, {r0, r1, r3, r8, r9, sl, sp}
     c00:	12011113 	andne	r1, r1, #-1073741820	; 0xc0000004
     c04:	97184006 	ldrls	r4, [r8, -r6]
     c08:	13011942 	movwne	r1, #6466	; 0x1942
     c0c:	050d0000 	streq	r0, [sp, #-0]
     c10:	3a0e0300 	bcc	381818 <__bss_end__+0x374d98>
     c14:	490b3b0b 	stmdbmi	fp, {r0, r1, r3, r8, r9, fp, ip, sp}
     c18:	00170213 	andseq	r0, r7, r3, lsl r2
     c1c:	00050e00 	andeq	r0, r5, r0, lsl #28
     c20:	0b3a0e03 	bleq	e84434 <__bss_end__+0xe779b4>
     c24:	13490b3b 	movtne	r0, #39739	; 0x9b3b
     c28:	00001802 	andeq	r1, r0, r2, lsl #16
     c2c:	0300340f 	movweq	r3, #1039	; 0x40f
     c30:	3b0b3a08 	blcc	2cf458 <__bss_end__+0x2c29d8>
     c34:	0213490b 	andseq	r4, r3, #180224	; 0x2c000
     c38:	10000018 	andne	r0, r0, r8, lsl r0
     c3c:	08030034 	stmdaeq	r3, {r2, r4, r5}
     c40:	0b3b0b3a 	bleq	ec3930 <__bss_end__+0xeb6eb0>
     c44:	17021349 	strne	r1, [r2, -r9, asr #6]
     c48:	34110000 	ldrcc	r0, [r1], #-0
     c4c:	490e0300 	stmdbmi	lr, {r8, r9}
     c50:	02193413 	andseq	r3, r9, #318767104	; 0x13000000
     c54:	12000018 	andne	r0, r0, #24
     c58:	0111010b 	tsteq	r1, fp, lsl #2
     c5c:	13010612 	movwne	r0, #5650	; 0x1612
     c60:	34130000 	ldrcc	r0, [r3], #-0
     c64:	3a0e0300 	bcc	38186c <__bss_end__+0x374dec>
     c68:	490b3b0b 	stmdbmi	fp, {r0, r1, r3, r8, r9, fp, ip, sp}
     c6c:	00170213 	andseq	r0, r7, r3, lsl r2
     c70:	82891400 	addhi	r1, r9, #0, 8
     c74:	01110001 	tsteq	r1, r1
     c78:	00001331 	andeq	r1, r0, r1, lsr r3
     c7c:	01828915 	orreq	r8, r2, r5, lsl r9
     c80:	31011101 	tstcc	r1, r1, lsl #2
     c84:	00130113 	andseq	r0, r3, r3, lsl r1
     c88:	828a1600 	addhi	r1, sl, #0, 12
     c8c:	18020001 	stmdane	r2, {r0}
     c90:	00184291 	mulseq	r8, r1, r2
     c94:	82891700 	addhi	r1, r9, #0, 14
     c98:	01110101 	tsteq	r1, r1, lsl #2
     c9c:	00001331 	andeq	r1, r0, r1, lsr r3
     ca0:	49010118 	stmdbmi	r1, {r3, r4, r8}
     ca4:	00130113 	andseq	r0, r3, r3, lsl r1
     ca8:	00211900 	eoreq	r1, r1, r0, lsl #18
     cac:	0b2f1349 	bleq	bc59d8 <__bss_end__+0xbb8f58>
     cb0:	2e1a0000 	cdpcs	0, 1, cr0, cr10, cr0, {0}
     cb4:	03193f01 	tsteq	r9, #1, 30
     cb8:	3b0b3a0e 	blcc	2cf4f8 <__bss_end__+0x2c2a78>
     cbc:	1119270b 	tstne	r9, fp, lsl #14
     cc0:	40061201 	andmi	r1, r6, r1, lsl #4
     cc4:	19429718 	stmdbne	r2, {r3, r4, r8, r9, sl, ip, pc}^
     cc8:	00001301 	andeq	r1, r0, r1, lsl #6
     ccc:	2701151b 	smladcs	r1, fp, r5, r1
     cd0:	01134919 	tsteq	r3, r9, lsl r9
     cd4:	1c000013 	stcne	0, cr0, [r0], {19}
     cd8:	13490005 	movtne	r0, #36869	; 0x9005
     cdc:	2e1d0000 	cdpcs	0, 1, cr0, cr13, cr0, {0}
     ce0:	03193f01 	tsteq	r9, #1, 30
     ce4:	3b0b3a0e 	blcc	2cf524 <__bss_end__+0x2c2aa4>
     ce8:	4919270b 	ldmdbmi	r9, {r0, r1, r3, r8, r9, sl, sp}
     cec:	12011113 	andne	r1, r1, #-1073741820	; 0xc0000004
     cf0:	97184006 	ldrls	r4, [r8, -r6]
     cf4:	13011942 	movwne	r1, #6466	; 0x1942
     cf8:	0b1e0000 	bleq	780d00 <__bss_end__+0x774280>
     cfc:	12011101 	andne	r1, r1, #1073741824	; 0x40000000
     d00:	1f000006 	svcne	0x00000006
     d04:	01018289 	smlabbeq	r1, r9, r2, r8
     d08:	13010111 	movwne	r0, #4369	; 0x1111
     d0c:	34200000 	strtcc	r0, [r0], #-0
     d10:	3a0e0300 	bcc	381918 <__bss_end__+0x374e98>
     d14:	490b3b0b 	stmdbmi	fp, {r0, r1, r3, r8, r9, fp, ip, sp}
     d18:	3c193f13 	ldccc	15, cr3, [r9], {19}
     d1c:	21000019 	tstcs	r0, r9, lsl r0
     d20:	193f002e 	ldmdbne	pc!, {r1, r2, r3, r5}	; <UNPREDICTABLE>
     d24:	0b3a0e03 	bleq	e84538 <__bss_end__+0xe77ab8>
     d28:	19270b3b 	stmdbne	r7!, {r0, r1, r3, r4, r5, r8, r9, fp}
     d2c:	0000193c 	andeq	r1, r0, ip, lsr r9
     d30:	3f012e22 	svccc	0x00012e22
     d34:	3a0e0319 	bcc	3819a0 <__bss_end__+0x374f20>
     d38:	270b3b0b 	strcs	r3, [fp, -fp, lsl #22]
     d3c:	3c134919 	ldccc	9, cr4, [r3], {25}
     d40:	00130119 	andseq	r0, r3, r9, lsl r1
     d44:	00182300 	andseq	r2, r8, r0, lsl #6
     d48:	01000000 	mrseq	r0, (UNDEF: 0)
     d4c:	0e250111 	mcreq	1, 1, r0, cr5, cr1, {0}
     d50:	0e030b13 	vmoveq.32	d3[0], r0
     d54:	01110e1b 	tsteq	r1, fp, lsl lr
     d58:	17100612 			; <UNDEFINED> instruction: 0x17100612
     d5c:	24020000 	strcs	r0, [r2], #-0
     d60:	3e0b0b00 	vmlacc.f64	d0, d11, d0
     d64:	0008030b 	andeq	r0, r8, fp, lsl #6
     d68:	00240300 	eoreq	r0, r4, r0, lsl #6
     d6c:	0b3e0b0b 	bleq	f839a0 <__bss_end__+0xf76f20>
     d70:	00000e03 	andeq	r0, r0, r3, lsl #28
     d74:	3f012e04 	svccc	0x00012e04
     d78:	3a0e0319 	bcc	3819e4 <__bss_end__+0x374f64>
     d7c:	270b3b0b 	strcs	r3, [fp, -fp, lsl #22]
     d80:	12011119 	andne	r1, r1, #1073741830	; 0x40000006
     d84:	97184006 	ldrls	r4, [r8, -r6]
     d88:	13011942 	movwne	r1, #6466	; 0x1942
     d8c:	34050000 	strcc	r0, [r5], #-0
     d90:	3a080300 	bcc	201998 <__bss_end__+0x1f4f18>
     d94:	490b3b0b 	stmdbmi	fp, {r0, r1, r3, r8, r9, fp, ip, sp}
     d98:	00170213 	andseq	r0, r7, r3, lsl r2
     d9c:	012e0600 	teqeq	lr, r0, lsl #12
     da0:	0e03193f 	mcreq	9, 0, r1, cr3, cr15, {1}
     da4:	0b3b0b3a 	bleq	ec3a94 <__bss_end__+0xeb7014>
     da8:	01111927 	tsteq	r1, r7, lsr #18
     dac:	18400612 	stmdane	r0, {r1, r4, r9, sl}^
     db0:	00194297 	mulseq	r9, r7, r2
     db4:	11010000 	mrsne	r0, (UNDEF: 1)
     db8:	130e2501 	movwne	r2, #58625	; 0xe501
     dbc:	1b0e030b 	blne	3819f0 <__bss_end__+0x374f70>
     dc0:	1201110e 	andne	r1, r1, #-2147483645	; 0x80000003
     dc4:	00171006 	andseq	r1, r7, r6
     dc8:	00240200 	eoreq	r0, r4, r0, lsl #4
     dcc:	0b3e0b0b 	bleq	f83a00 <__bss_end__+0xf76f80>
     dd0:	00000803 	andeq	r0, r0, r3, lsl #16
     dd4:	0b002403 	bleq	9de8 <__data_end__+0x78>
     dd8:	030b3e0b 	movweq	r3, #48651	; 0xbe0b
     ddc:	0400000e 	streq	r0, [r0], #-14
     de0:	0b0b000f 	bleq	2c0e24 <__bss_end__+0x2b43a4>
     de4:	00001349 	andeq	r1, r0, r9, asr #6
     de8:	49002605 	stmdbmi	r0, {r0, r2, r9, sl, sp}
     dec:	06000013 			; <UNDEFINED> instruction: 0x06000013
     df0:	193f012e 	ldmdbne	pc!, {r1, r2, r3, r5, r8}	; <UNPREDICTABLE>
     df4:	0b3a0e03 	bleq	e84608 <__bss_end__+0xe77b88>
     df8:	19270b3b 	stmdbne	r7!, {r0, r1, r3, r4, r5, r8, r9, fp}
     dfc:	06120111 			; <UNDEFINED> instruction: 0x06120111
     e00:	42971840 	addsmi	r1, r7, #64, 16	; 0x400000
     e04:	00130119 	andseq	r0, r3, r9, lsl r1
     e08:	82890700 	addhi	r0, r9, #0, 14
     e0c:	01110001 	tsteq	r1, r1
     e10:	00001331 	andeq	r1, r0, r1, lsr r3
     e14:	01828908 	orreq	r8, r2, r8, lsl #18
     e18:	01011101 	tsteq	r1, r1, lsl #2
     e1c:	09000013 	stmdbeq	r0, {r0, r1, r4}
     e20:	0001828a 	andeq	r8, r1, sl, lsl #5
     e24:	42911802 	addsmi	r1, r1, #131072	; 0x20000
     e28:	0a000018 	beq	e90 <__code_start__-0x7170>
     e2c:	01018289 	smlabbeq	r1, r9, r2, r8
     e30:	13310111 	teqne	r1, #1073741828	; 0x40000004
     e34:	00001301 	andeq	r1, r0, r1, lsl #6
     e38:	2701150b 	strcs	r1, [r1, -fp, lsl #10]
     e3c:	01134919 	tsteq	r3, r9, lsl r9
     e40:	0c000013 	stceq	0, cr0, [r0], {19}
     e44:	13490005 	movtne	r0, #36869	; 0x9005
     e48:	340d0000 	strcc	r0, [sp], #-0
     e4c:	3a0e0300 	bcc	381a54 <__bss_end__+0x374fd4>
     e50:	490b3b0b 	stmdbmi	fp, {r0, r1, r3, r8, r9, fp, ip, sp}
     e54:	3c193f13 	ldccc	15, cr3, [r9], {19}
     e58:	0e000019 	mcreq	0, 0, r0, cr0, cr9, {0}
     e5c:	193f002e 	ldmdbne	pc!, {r1, r2, r3, r5}	; <UNPREDICTABLE>
     e60:	0b3a0e03 	bleq	e84674 <__bss_end__+0xe77bf4>
     e64:	19270b3b 	stmdbne	r7!, {r0, r1, r3, r4, r5, r8, r9, fp}
     e68:	0000193c 	andeq	r1, r0, ip, lsr r9
     e6c:	3f012e0f 	svccc	0x00012e0f
     e70:	3a0e0319 	bcc	381adc <__bss_end__+0x37505c>
     e74:	270b3b0b 	strcs	r3, [fp, -fp, lsl #22]
     e78:	01193c19 	tsteq	r9, r9, lsl ip
     e7c:	00000013 	andeq	r0, r0, r3, lsl r0
     e80:	25011101 	strcs	r1, [r1, #-257]	; 0x101
     e84:	030b130e 	movweq	r1, #45838	; 0xb30e
     e88:	110e1b0e 	tstne	lr, lr, lsl #22
     e8c:	10061201 	andne	r1, r6, r1, lsl #4
     e90:	02000017 	andeq	r0, r0, #23
     e94:	0b0b0024 	bleq	2c0f2c <__bss_end__+0x2b44ac>
     e98:	08030b3e 	stmdaeq	r3, {r1, r2, r3, r4, r5, r8, r9, fp}
     e9c:	24030000 	strcs	r0, [r3], #-0
     ea0:	3e0b0b00 	vmlacc.f64	d0, d11, d0
     ea4:	000e030b 	andeq	r0, lr, fp, lsl #6
     ea8:	012e0400 	teqeq	lr, r0, lsl #8
     eac:	0e03193f 	mcreq	9, 0, r1, cr3, cr15, {1}
     eb0:	0b3b0b3a 	bleq	ec3ba0 <__bss_end__+0xeb7120>
     eb4:	06120111 			; <UNDEFINED> instruction: 0x06120111
     eb8:	42971840 	addsmi	r1, r7, #64, 16	; 0x400000
     ebc:	00130119 	andseq	r0, r3, r9, lsl r1
     ec0:	00340500 	eorseq	r0, r4, r0, lsl #10
     ec4:	0b3a0e03 	bleq	e846d8 <__bss_end__+0xe77c58>
     ec8:	13490b3b 	movtne	r0, #39739	; 0x9b3b
     ecc:	193c193f 	ldmdbne	ip!, {r0, r1, r2, r3, r4, r5, r8, fp, ip}
     ed0:	2e060000 	cdpcs	0, 0, cr0, cr6, cr0, {0}
     ed4:	03193f00 	tsteq	r9, #0, 30
     ed8:	3b0b3a0e 	blcc	2cf718 <__bss_end__+0x2c2c98>
     edc:	3c19270b 	ldccc	7, cr2, [r9], {11}
     ee0:	07000019 	smladeq	r0, r9, r0, r0
     ee4:	08030034 	stmdaeq	r3, {r2, r4, r5}
     ee8:	0b3b0b3a 	bleq	ec3bd8 <__bss_end__+0xeb7158>
     eec:	17021349 	strne	r1, [r2, -r9, asr #6]
     ef0:	34080000 	strcc	r0, [r8], #-0
     ef4:	3a0e0300 	bcc	381afc <__bss_end__+0x37507c>
     ef8:	490b3b0b 	stmdbmi	fp, {r0, r1, r3, r8, r9, fp, ip, sp}
     efc:	09000013 	stmdbeq	r0, {r0, r1, r4}
     f00:	00018289 	andeq	r8, r1, r9, lsl #5
     f04:	13310111 	teqne	r1, #1073741828	; 0x40000004
     f08:	0f0a0000 	svceq	0x000a0000
     f0c:	490b0b00 	stmdbmi	fp, {r8, r9, fp}
     f10:	00000013 	andeq	r0, r0, r3, lsl r0
     f14:	25011101 	strcs	r1, [r1, #-257]	; 0x101
     f18:	030b130e 	movweq	r1, #45838	; 0xb30e
     f1c:	110e1b0e 	tstne	lr, lr, lsl #22
     f20:	10061201 	andne	r1, r6, r1, lsl #4
     f24:	02000017 	andeq	r0, r0, #23
     f28:	0b0b0024 	bleq	2c0fc0 <__bss_end__+0x2b4540>
     f2c:	08030b3e 	stmdaeq	r3, {r1, r2, r3, r4, r5, r8, r9, fp}
     f30:	24030000 	strcs	r0, [r3], #-0
     f34:	3e0b0b00 	vmlacc.f64	d0, d11, d0
     f38:	000e030b 	andeq	r0, lr, fp, lsl #6
     f3c:	000f0400 	andeq	r0, pc, r0, lsl #8
     f40:	13490b0b 	movtne	r0, #39691	; 0x9b0b
     f44:	26050000 	strcs	r0, [r5], -r0
     f48:	00134900 	andseq	r4, r3, r0, lsl #18
     f4c:	012e0600 	teqeq	lr, r0, lsl #12
     f50:	0e03193f 	mcreq	9, 0, r1, cr3, cr15, {1}
     f54:	0b3b0b3a 	bleq	ec3c44 <__bss_end__+0xeb71c4>
     f58:	01111927 	tsteq	r1, r7, lsr #18
     f5c:	18400612 	stmdane	r0, {r1, r4, r9, sl}^
     f60:	01194297 			; <UNDEFINED> instruction: 0x01194297
     f64:	07000013 	smladeq	r0, r3, r0, r0
     f68:	08030005 	stmdaeq	r3, {r0, r2}
     f6c:	0b3b0b3a 	bleq	ec3c5c <__bss_end__+0xeb71dc>
     f70:	17021349 	strne	r1, [r2, -r9, asr #6]
     f74:	34080000 	strcc	r0, [r8], #-0
     f78:	490e0300 	stmdbmi	lr, {r8, r9}
     f7c:	02193413 	andseq	r3, r9, #318767104	; 0x13000000
     f80:	09000018 	stmdbeq	r0, {r3, r4}
     f84:	00018289 	andeq	r8, r1, r9, lsl #5
     f88:	13310111 	teqne	r1, #1073741828	; 0x40000004
     f8c:	890a0000 	stmdbhi	sl, {}	; <UNPREDICTABLE>
     f90:	11010182 	smlabbne	r1, r2, r1, r0
     f94:	01133101 	tsteq	r3, r1, lsl #2
     f98:	0b000013 	bleq	fec <__code_start__-0x7014>
     f9c:	0001828a 	andeq	r8, r1, sl, lsl #5
     fa0:	42911802 	addsmi	r1, r1, #131072	; 0x20000
     fa4:	0c000018 	stceq	0, cr0, [r0], {24}
     fa8:	13490101 	movtne	r0, #37121	; 0x9101
     fac:	00001301 	andeq	r1, r0, r1, lsl #6
     fb0:	4900210d 	stmdbmi	r0, {r0, r2, r3, r8, sp}
     fb4:	000b2f13 	andeq	r2, fp, r3, lsl pc
     fb8:	002e0e00 	eoreq	r0, lr, r0, lsl #28
     fbc:	0e03193f 	mcreq	9, 0, r1, cr3, cr15, {1}
     fc0:	0b3b0b3a 	bleq	ec3cb0 <__bss_end__+0xeb7230>
     fc4:	193c1927 	ldmdbne	ip!, {r0, r1, r2, r5, r8, fp, ip}
     fc8:	2e0f0000 	cdpcs	0, 0, cr0, cr15, cr0, {0}
     fcc:	03193f01 	tsteq	r9, #1, 30
     fd0:	3b0b3a0e 	blcc	2cf810 <__bss_end__+0x2c2d90>
     fd4:	4919270b 	ldmdbmi	r9, {r0, r1, r3, r8, r9, sl, sp}
     fd8:	01193c13 	tsteq	r9, r3, lsl ip
     fdc:	10000013 	andne	r0, r0, r3, lsl r0
     fe0:	13490005 	movtne	r0, #36869	; 0x9005
     fe4:	18110000 	ldmdane	r1, {}	; <UNPREDICTABLE>
     fe8:	00000000 	andeq	r0, r0, r0
     fec:	25011101 	strcs	r1, [r1, #-257]	; 0x101
     ff0:	030b130e 	movweq	r1, #45838	; 0xb30e
     ff4:	110e1b0e 	tstne	lr, lr, lsl #22
     ff8:	10061201 	andne	r1, r6, r1, lsl #4
     ffc:	02000017 	andeq	r0, r0, #23
    1000:	0b0b0024 	bleq	2c1098 <__bss_end__+0x2b4618>
    1004:	08030b3e 	stmdaeq	r3, {r1, r2, r3, r4, r5, r8, r9, fp}
    1008:	24030000 	strcs	r0, [r3], #-0
    100c:	3e0b0b00 	vmlacc.f64	d0, d11, d0
    1010:	000e030b 	andeq	r0, lr, fp, lsl #6
    1014:	000f0400 	andeq	r0, pc, r0, lsl #8
    1018:	13490b0b 	movtne	r0, #39691	; 0x9b0b
    101c:	26050000 	strcs	r0, [r5], -r0
    1020:	00134900 	andseq	r4, r3, r0, lsl #18
    1024:	012e0600 	teqeq	lr, r0, lsl #12
    1028:	0e03193f 	mcreq	9, 0, r1, cr3, cr15, {1}
    102c:	0b3b0b3a 	bleq	ec3d1c <__bss_end__+0xeb729c>
    1030:	01111927 	tsteq	r1, r7, lsr #18
    1034:	18400612 	stmdane	r0, {r1, r4, r9, sl}^
    1038:	01194297 			; <UNDEFINED> instruction: 0x01194297
    103c:	07000013 	smladeq	r0, r3, r0, r0
    1040:	08030005 	stmdaeq	r3, {r0, r2}
    1044:	0b3b0b3a 	bleq	ec3d34 <__bss_end__+0xeb72b4>
    1048:	17021349 	strne	r1, [r2, -r9, asr #6]
    104c:	34080000 	strcc	r0, [r8], #-0
    1050:	490e0300 	stmdbmi	lr, {r8, r9}
    1054:	02193413 	andseq	r3, r9, #318767104	; 0x13000000
    1058:	09000018 	stmdbeq	r0, {r3, r4}
    105c:	00018289 	andeq	r8, r1, r9, lsl #5
    1060:	13310111 	teqne	r1, #1073741828	; 0x40000004
    1064:	890a0000 	stmdbhi	sl, {}	; <UNPREDICTABLE>
    1068:	11010182 	smlabbne	r1, r2, r1, r0
    106c:	01133101 	tsteq	r3, r1, lsl #2
    1070:	0b000013 	bleq	10c4 <__code_start__-0x6f3c>
    1074:	0001828a 	andeq	r8, r1, sl, lsl #5
    1078:	42911802 	addsmi	r1, r1, #131072	; 0x20000
    107c:	0c000018 	stceq	0, cr0, [r0], {24}
    1080:	13490101 	movtne	r0, #37121	; 0x9101
    1084:	00001301 	andeq	r1, r0, r1, lsl #6
    1088:	4900210d 	stmdbmi	r0, {r0, r2, r3, r8, sp}
    108c:	000b2f13 	andeq	r2, fp, r3, lsl pc
    1090:	002e0e00 	eoreq	r0, lr, r0, lsl #28
    1094:	0e03193f 	mcreq	9, 0, r1, cr3, cr15, {1}
    1098:	0b3b0b3a 	bleq	ec3d88 <__bss_end__+0xeb7308>
    109c:	193c1927 	ldmdbne	ip!, {r0, r1, r2, r5, r8, fp, ip}
    10a0:	2e0f0000 	cdpcs	0, 0, cr0, cr15, cr0, {0}
    10a4:	03193f01 	tsteq	r9, #1, 30
    10a8:	3b0b3a0e 	blcc	2cf8e8 <__bss_end__+0x2c2e68>
    10ac:	4919270b 	ldmdbmi	r9, {r0, r1, r3, r8, r9, sl, sp}
    10b0:	01193c13 	tsteq	r9, r3, lsl ip
    10b4:	10000013 	andne	r0, r0, r3, lsl r0
    10b8:	13490005 	movtne	r0, #36869	; 0x9005
    10bc:	18110000 	ldmdane	r1, {}	; <UNPREDICTABLE>
    10c0:	00000000 	andeq	r0, r0, r0
    10c4:	25011101 	strcs	r1, [r1, #-257]	; 0x101
    10c8:	030b130e 	movweq	r1, #45838	; 0xb30e
    10cc:	110e1b0e 	tstne	lr, lr, lsl #22
    10d0:	10061201 	andne	r1, r6, r1, lsl #4
    10d4:	02000017 	andeq	r0, r0, #23
    10d8:	0b0b0024 	bleq	2c1170 <__bss_end__+0x2b46f0>
    10dc:	08030b3e 	stmdaeq	r3, {r1, r2, r3, r4, r5, r8, r9, fp}
    10e0:	24030000 	strcs	r0, [r3], #-0
    10e4:	3e0b0b00 	vmlacc.f64	d0, d11, d0
    10e8:	000e030b 	andeq	r0, lr, fp, lsl #6
    10ec:	000f0400 	andeq	r0, pc, r0, lsl #8
    10f0:	13490b0b 	movtne	r0, #39691	; 0x9b0b
    10f4:	26050000 	strcs	r0, [r5], -r0
    10f8:	00134900 	andseq	r4, r3, r0, lsl #18
    10fc:	012e0600 	teqeq	lr, r0, lsl #12
    1100:	0e03193f 	mcreq	9, 0, r1, cr3, cr15, {1}
    1104:	0b3b0b3a 	bleq	ec3df4 <__bss_end__+0xeb7374>
    1108:	01111927 	tsteq	r1, r7, lsr #18
    110c:	18400612 	stmdane	r0, {r1, r4, r9, sl}^
    1110:	01194297 			; <UNDEFINED> instruction: 0x01194297
    1114:	07000013 	smladeq	r0, r3, r0, r0
    1118:	08030005 	stmdaeq	r3, {r0, r2}
    111c:	0b3b0b3a 	bleq	ec3e0c <__bss_end__+0xeb738c>
    1120:	17021349 	strne	r1, [r2, -r9, asr #6]
    1124:	34080000 	strcc	r0, [r8], #-0
    1128:	490e0300 	stmdbmi	lr, {r8, r9}
    112c:	02193413 	andseq	r3, r9, #318767104	; 0x13000000
    1130:	09000018 	stmdbeq	r0, {r3, r4}
    1134:	00018289 	andeq	r8, r1, r9, lsl #5
    1138:	13310111 	teqne	r1, #1073741828	; 0x40000004
    113c:	890a0000 	stmdbhi	sl, {}	; <UNPREDICTABLE>
    1140:	11010182 	smlabbne	r1, r2, r1, r0
    1144:	01133101 	tsteq	r3, r1, lsl #2
    1148:	0b000013 	bleq	119c <__code_start__-0x6e64>
    114c:	0001828a 	andeq	r8, r1, sl, lsl #5
    1150:	42911802 	addsmi	r1, r1, #131072	; 0x20000
    1154:	0c000018 	stceq	0, cr0, [r0], {24}
    1158:	13490101 	movtne	r0, #37121	; 0x9101
    115c:	00001301 	andeq	r1, r0, r1, lsl #6
    1160:	4900210d 	stmdbmi	r0, {r0, r2, r3, r8, sp}
    1164:	000b2f13 	andeq	r2, fp, r3, lsl pc
    1168:	002e0e00 	eoreq	r0, lr, r0, lsl #28
    116c:	0e03193f 	mcreq	9, 0, r1, cr3, cr15, {1}
    1170:	0b3b0b3a 	bleq	ec3e60 <__bss_end__+0xeb73e0>
    1174:	193c1927 	ldmdbne	ip!, {r0, r1, r2, r5, r8, fp, ip}
    1178:	2e0f0000 	cdpcs	0, 0, cr0, cr15, cr0, {0}
    117c:	03193f01 	tsteq	r9, #1, 30
    1180:	3b0b3a0e 	blcc	2cf9c0 <__bss_end__+0x2c2f40>
    1184:	4919270b 	ldmdbmi	r9, {r0, r1, r3, r8, r9, sl, sp}
    1188:	01193c13 	tsteq	r9, r3, lsl ip
    118c:	10000013 	andne	r0, r0, r3, lsl r0
    1190:	13490005 	movtne	r0, #36869	; 0x9005
    1194:	18110000 	ldmdane	r1, {}	; <UNPREDICTABLE>
    1198:	00000000 	andeq	r0, r0, r0
    119c:	25011101 	strcs	r1, [r1, #-257]	; 0x101
    11a0:	030b130e 	movweq	r1, #45838	; 0xb30e
    11a4:	110e1b0e 	tstne	lr, lr, lsl #22
    11a8:	10061201 	andne	r1, r6, r1, lsl #4
    11ac:	02000017 	andeq	r0, r0, #23
    11b0:	0b0b0024 	bleq	2c1248 <__bss_end__+0x2b47c8>
    11b4:	08030b3e 	stmdaeq	r3, {r1, r2, r3, r4, r5, r8, r9, fp}
    11b8:	24030000 	strcs	r0, [r3], #-0
    11bc:	3e0b0b00 	vmlacc.f64	d0, d11, d0
    11c0:	000e030b 	andeq	r0, lr, fp, lsl #6
    11c4:	002e0400 	eoreq	r0, lr, r0, lsl #8
    11c8:	0e03193f 	mcreq	9, 0, r1, cr3, cr15, {1}
    11cc:	0b3b0b3a 	bleq	ec3ebc <__bss_end__+0xeb743c>
    11d0:	01111927 	tsteq	r1, r7, lsr #18
    11d4:	18400612 	stmdane	r0, {r1, r4, r9, sl}^
    11d8:	00194297 	mulseq	r9, r7, r2
    11dc:	11010000 	mrsne	r0, (UNDEF: 1)
    11e0:	130e2501 	movwne	r2, #58625	; 0xe501
    11e4:	1b0e030b 	blne	381e18 <__bss_end__+0x375398>
    11e8:	1201110e 	andne	r1, r1, #-2147483645	; 0x80000003
    11ec:	00171006 	andseq	r1, r7, r6
    11f0:	00240200 	eoreq	r0, r4, r0, lsl #4
    11f4:	0b3e0b0b 	bleq	f83e28 <__bss_end__+0xf773a8>
    11f8:	00000803 	andeq	r0, r0, r3, lsl #16
    11fc:	0b002403 	bleq	a210 <__FUNCTION__.4451+0x144>
    1200:	030b3e0b 	movweq	r3, #48651	; 0xbe0b
    1204:	0400000e 	streq	r0, [r0], #-14
    1208:	0b0b0104 	bleq	2c1620 <__bss_end__+0x2b4ba0>
    120c:	0b3b0b3a 	bleq	ec3efc <__bss_end__+0xeb747c>
    1210:	00001301 	andeq	r1, r0, r1, lsl #6
    1214:	03002805 	movweq	r2, #2053	; 0x805
    1218:	000d1c0e 	andeq	r1, sp, lr, lsl #24
    121c:	012e0600 	teqeq	lr, r0, lsl #12
    1220:	0e03193f 	mcreq	9, 0, r1, cr3, cr15, {1}
    1224:	0b3b0b3a 	bleq	ec3f14 <__bss_end__+0xeb7494>
    1228:	01111927 	tsteq	r1, r7, lsr #18
    122c:	18400612 	stmdane	r0, {r1, r4, r9, sl}^
    1230:	01194297 			; <UNDEFINED> instruction: 0x01194297
    1234:	07000013 	smladeq	r0, r3, r0, r0
    1238:	0e030034 	mcreq	0, 0, r0, cr3, cr4, {1}
    123c:	0b3b0b3a 	bleq	ec3f2c <__bss_end__+0xeb74ac>
    1240:	193f1349 	ldmdbne	pc!, {r0, r3, r6, r8, r9, ip}	; <UNPREDICTABLE>
    1244:	0000193c 	andeq	r1, r0, ip, lsr r9
    1248:	03003408 	movweq	r3, #1032	; 0x408
    124c:	3b0b3a08 	blcc	2cfa74 <__bss_end__+0x2c2ff4>
    1250:	1c13490b 	ldcne	9, cr4, [r3], {11}
    1254:	0900000b 	stmdbeq	r0, {r0, r1, r3}
    1258:	08030034 	stmdaeq	r3, {r2, r4, r5}
    125c:	0b3b0b3a 	bleq	ec3f4c <__bss_end__+0xeb74cc>
    1260:	00001349 	andeq	r1, r0, r9, asr #6
    1264:	0300340a 	movweq	r3, #1034	; 0x40a
    1268:	3b0b3a08 	blcc	2cfa90 <__bss_end__+0x2c3010>
    126c:	0213490b 	andseq	r4, r3, #180224	; 0x2c000
    1270:	0b000018 	bleq	12d8 <__code_start__-0x6d28>
    1274:	0111010b 	tsteq	r1, fp, lsl #2
    1278:	13010612 	movwne	r0, #5650	; 0x1612
    127c:	340c0000 	strcc	r0, [ip], #-0
    1280:	3a080300 	bcc	201e88 <__bss_end__+0x1f5408>
    1284:	490b3b0b 	stmdbmi	fp, {r0, r1, r3, r8, r9, fp, ip, sp}
    1288:	00170213 	andseq	r0, r7, r3, lsl r2
    128c:	82890d00 	addhi	r0, r9, #0, 26
    1290:	01110001 	tsteq	r1, r1
    1294:	00001331 	andeq	r1, r0, r1, lsr r3
    1298:	0182890e 	orreq	r8, r2, lr, lsl #18
    129c:	31011101 	tstcc	r1, r1, lsl #2
    12a0:	00130113 	andseq	r0, r3, r3, lsl r1
    12a4:	828a0f00 	addhi	r0, sl, #0, 30
    12a8:	18020001 	stmdane	r2, {r0}
    12ac:	00184291 	mulseq	r8, r1, r2
    12b0:	000f1000 	andeq	r1, pc, r0
    12b4:	13490b0b 	movtne	r0, #39691	; 0x9b0b
    12b8:	2e110000 	cdpcs	0, 1, cr0, cr1, cr0, {0}
    12bc:	03193f00 	tsteq	r9, #0, 30
    12c0:	3b0b3a0e 	blcc	2cfb00 <__bss_end__+0x2c3080>
    12c4:	3c19270b 	ldccc	7, cr2, [r9], {11}
    12c8:	12000019 	andne	r0, r0, #25
    12cc:	193f012e 	ldmdbne	pc!, {r1, r2, r3, r5, r8}	; <UNPREDICTABLE>
    12d0:	0b3a0e03 	bleq	e84ae4 <__bss_end__+0xe78064>
    12d4:	19270b3b 	stmdbne	r7!, {r0, r1, r3, r4, r5, r8, r9, fp}
    12d8:	0000193c 	andeq	r1, r0, ip, lsr r9
    12dc:	49000513 	stmdbmi	r0, {r0, r1, r4, r8, sl}
    12e0:	00000013 	andeq	r0, r0, r3, lsl r0
    12e4:	25011101 	strcs	r1, [r1, #-257]	; 0x101
    12e8:	030b130e 	movweq	r1, #45838	; 0xb30e
    12ec:	550e1b0e 	strpl	r1, [lr, #-2830]	; 0xb0e
    12f0:	10011117 	andne	r1, r1, r7, lsl r1
    12f4:	02000017 	andeq	r0, r0, #23
    12f8:	0b0b0024 	bleq	2c1390 <__bss_end__+0x2b4910>
    12fc:	08030b3e 	stmdaeq	r3, {r1, r2, r3, r4, r5, r8, r9, fp}
    1300:	24030000 	strcs	r0, [r3], #-0
    1304:	3e0b0b00 	vmlacc.f64	d0, d11, d0
    1308:	000e030b 	andeq	r0, lr, fp, lsl #6
    130c:	012e0400 	teqeq	lr, r0, lsl #8
    1310:	0e03193f 	mcreq	9, 0, r1, cr3, cr15, {1}
    1314:	0b3b0b3a 	bleq	ec4004 <__bss_end__+0xeb7584>
    1318:	13491927 	movtne	r1, #39207	; 0x9927
    131c:	06120111 			; <UNDEFINED> instruction: 0x06120111
    1320:	42971840 	addsmi	r1, r7, #64, 16	; 0x400000
    1324:	00130119 	andseq	r0, r3, r9, lsl r1
    1328:	00340500 	eorseq	r0, r4, r0, lsl #10
    132c:	0b3a0e03 	bleq	e84b40 <__bss_end__+0xe780c0>
    1330:	13490b3b 	movtne	r0, #39739	; 0x9b3b
    1334:	00001702 	andeq	r1, r0, r2, lsl #14
    1338:	3f012e06 	svccc	0x00012e06
    133c:	3a0e0319 	bcc	381fa8 <__bss_end__+0x375528>
    1340:	270b3b0b 	strcs	r3, [fp, -fp, lsl #22]
    1344:	12011119 	andne	r1, r1, #1073741830	; 0x40000006
    1348:	97184006 	ldrls	r4, [r8, -r6]
    134c:	13011942 	movwne	r1, #6466	; 0x1942
    1350:	34070000 	strcc	r0, [r7], #-0
    1354:	3a0e0300 	bcc	381f5c <__bss_end__+0x3754dc>
    1358:	490b3b0b 	stmdbmi	fp, {r0, r1, r3, r8, r9, fp, ip, sp}
    135c:	00061c13 	andeq	r1, r6, r3, lsl ip
    1360:	00340800 	eorseq	r0, r4, r0, lsl #16
    1364:	0b3a0e03 	bleq	e84b78 <__bss_end__+0xe780f8>
    1368:	13490b3b 	movtne	r0, #39739	; 0x9b3b
    136c:	00000b1c 	andeq	r0, r0, ip, lsl fp
    1370:	01828909 	orreq	r8, r2, r9, lsl #18
    1374:	31011100 	mrscc	r1, (UNDEF: 17)
    1378:	0a000013 	beq	13cc <__code_start__-0x6c34>
    137c:	01018289 	smlabbeq	r1, r9, r2, r8
    1380:	13310111 	teqne	r1, #1073741828	; 0x40000004
    1384:	00001301 	andeq	r1, r0, r1, lsl #6
    1388:	01828a0b 	orreq	r8, r2, fp, lsl #20
    138c:	91180200 	tstls	r8, r0, lsl #4
    1390:	00001842 	andeq	r1, r0, r2, asr #16
    1394:	0182890c 	orreq	r8, r2, ip, lsl #18
    1398:	31011101 	tstcc	r1, r1, lsl #2
    139c:	0d000013 	stceq	0, cr0, [r0, #-76]	; 0xffffffb4
    13a0:	13490026 	movtne	r0, #36902	; 0x9026
    13a4:	2e0e0000 	cdpcs	0, 0, cr0, cr14, cr0, {0}
    13a8:	03193f01 	tsteq	r9, #1, 30
    13ac:	3b0b3a0e 	blcc	2cfbec <__bss_end__+0x2c316c>
    13b0:	3c19270b 	ldccc	7, cr2, [r9], {11}
    13b4:	00130119 	andseq	r0, r3, r9, lsl r1
    13b8:	00050f00 	andeq	r0, r5, r0, lsl #30
    13bc:	00001349 	andeq	r1, r0, r9, asr #6
    13c0:	3f012e10 	svccc	0x00012e10
    13c4:	3a0e0319 	bcc	382030 <__bss_end__+0x3755b0>
    13c8:	270b3b0b 	strcs	r3, [fp, -fp, lsl #22]
    13cc:	00193c19 	andseq	r3, r9, r9, lsl ip
    13d0:	11010000 	mrsne	r0, (UNDEF: 1)
    13d4:	130e2501 	movwne	r2, #58625	; 0xe501
    13d8:	1b0e030b 	blne	38200c <__bss_end__+0x37558c>
    13dc:	1201110e 	andne	r1, r1, #-2147483645	; 0x80000003
    13e0:	00171006 	andseq	r1, r7, r6
    13e4:	00240200 	eoreq	r0, r4, r0, lsl #4
    13e8:	0b3e0b0b 	bleq	f8401c <__bss_end__+0xf7759c>
    13ec:	00000803 	andeq	r0, r0, r3, lsl #16
    13f0:	0b002403 	bleq	a404 <__FUNCTION__.4258>
    13f4:	030b3e0b 	movweq	r3, #48651	; 0xbe0b
    13f8:	0400000e 	streq	r0, [r0], #-14
    13fc:	193f012e 	ldmdbne	pc!, {r1, r2, r3, r5, r8}	; <UNPREDICTABLE>
    1400:	0b3a0e03 	bleq	e84c14 <__bss_end__+0xe78194>
    1404:	19270b3b 	stmdbne	r7!, {r0, r1, r3, r4, r5, r8, r9, fp}
    1408:	06120111 			; <UNDEFINED> instruction: 0x06120111
    140c:	42971840 	addsmi	r1, r7, #64, 16	; 0x400000
    1410:	00130119 	andseq	r0, r3, r9, lsl r1
    1414:	00050500 	andeq	r0, r5, r0, lsl #10
    1418:	0b3a0e03 	bleq	e84c2c <__bss_end__+0xe781ac>
    141c:	13490b3b 	movtne	r0, #39739	; 0x9b3b
    1420:	00001702 	andeq	r1, r0, r2, lsl #14
    1424:	3f012e06 	svccc	0x00012e06
    1428:	3a0e0319 	bcc	382094 <__bss_end__+0x375614>
    142c:	270b3b0b 	strcs	r3, [fp, -fp, lsl #22]
    1430:	11134919 	tstne	r3, r9, lsl r9
    1434:	40061201 	andmi	r1, r6, r1, lsl #4
    1438:	19429718 	stmdbne	r2, {r3, r4, r8, r9, sl, ip, pc}^
    143c:	00001301 	andeq	r1, r0, r1, lsl #6
    1440:	01828907 	orreq	r8, r2, r7, lsl #18
    1444:	31011101 	tstcc	r1, r1, lsl #2
    1448:	08000013 	stmdaeq	r0, {r0, r1, r4}
    144c:	0001828a 	andeq	r8, r1, sl, lsl #5
    1450:	42911802 	addsmi	r1, r1, #131072	; 0x20000
    1454:	09000018 	stmdbeq	r0, {r3, r4}
    1458:	08030034 	stmdaeq	r3, {r2, r4, r5}
    145c:	0b3b0b3a 	bleq	ec414c <__bss_end__+0xeb76cc>
    1460:	17021349 	strne	r1, [r2, -r9, asr #6]
    1464:	890a0000 	stmdbhi	sl, {}	; <UNPREDICTABLE>
    1468:	11000182 	smlabbne	r0, r2, r1, r0
    146c:	00133101 	andseq	r3, r3, r1, lsl #2
    1470:	00050b00 	andeq	r0, r5, r0, lsl #22
    1474:	0b3a0803 	bleq	e83488 <__bss_end__+0xe76a08>
    1478:	13490b3b 	movtne	r0, #39739	; 0x9b3b
    147c:	00001702 	andeq	r1, r0, r2, lsl #14
    1480:	0300340c 	movweq	r3, #1036	; 0x40c
    1484:	3b0b3a08 	blcc	2cfcac <__bss_end__+0x2c322c>
    1488:	0213490b 	andseq	r4, r3, #180224	; 0x2c000
    148c:	0d000018 	stceq	0, cr0, [r0, #-96]	; 0xffffffa0
    1490:	0111010b 	tsteq	r1, fp, lsl #2
    1494:	13010612 	movwne	r0, #5650	; 0x1612
    1498:	2e0e0000 	cdpcs	0, 0, cr0, cr14, cr0, {0}
    149c:	03193f01 	tsteq	r9, #1, 30
    14a0:	3b0b3a0e 	blcc	2cfce0 <__bss_end__+0x2c3260>
    14a4:	4919270b 	ldmdbmi	r9, {r0, r1, r3, r8, r9, sl, sp}
    14a8:	01193c13 	tsteq	r9, r3, lsl ip
    14ac:	0f000013 	svceq	0x00000013
    14b0:	13490005 	movtne	r0, #36869	; 0x9005
    14b4:	2e100000 	cdpcs	0, 1, cr0, cr0, cr0, {0}
    14b8:	03193f00 	tsteq	r9, #0, 30
    14bc:	3b0b3a0e 	blcc	2cfcfc <__bss_end__+0x2c327c>
    14c0:	3c19270b 	ldccc	7, cr2, [r9], {11}
    14c4:	00000019 	andeq	r0, r0, r9, lsl r0
    14c8:	25011101 	strcs	r1, [r1, #-257]	; 0x101
    14cc:	030b130e 	movweq	r1, #45838	; 0xb30e
    14d0:	110e1b0e 	tstne	lr, lr, lsl #22
    14d4:	10061201 	andne	r1, r6, r1, lsl #4
    14d8:	02000017 	andeq	r0, r0, #23
    14dc:	0b0b0024 	bleq	2c1574 <__bss_end__+0x2b4af4>
    14e0:	08030b3e 	stmdaeq	r3, {r1, r2, r3, r4, r5, r8, r9, fp}
    14e4:	24030000 	strcs	r0, [r3], #-0
    14e8:	3e0b0b00 	vmlacc.f64	d0, d11, d0
    14ec:	000e030b 	andeq	r0, lr, fp, lsl #6
    14f0:	00350400 	eorseq	r0, r5, r0, lsl #8
    14f4:	00001349 	andeq	r1, r0, r9, asr #6
    14f8:	03001605 	movweq	r1, #1541	; 0x605
    14fc:	3b0b3a0e 	blcc	2cfd3c <__bss_end__+0x2c32bc>
    1500:	0013490b 	andseq	r4, r3, fp, lsl #18
    1504:	00160600 	andseq	r0, r6, r0, lsl #12
    1508:	0b3a0e03 	bleq	e84d1c <__bss_end__+0xe7829c>
    150c:	1349053b 	movtne	r0, #38203	; 0x953b
    1510:	17070000 	strne	r0, [r7, -r0]
    1514:	3a0b0b01 	bcc	2c4120 <__bss_end__+0x2b76a0>
    1518:	010b3b0b 	tsteq	fp, fp, lsl #22
    151c:	08000013 	stmdaeq	r0, {r0, r1, r4}
    1520:	0e03000d 	cdpeq	0, 0, cr0, cr3, cr13, {0}
    1524:	0b3b0b3a 	bleq	ec4214 <__bss_end__+0xeb7794>
    1528:	00001349 	andeq	r1, r0, r9, asr #6
    152c:	49010109 	stmdbmi	r1, {r0, r3, r8}
    1530:	00130113 	andseq	r0, r3, r3, lsl r1
    1534:	00210a00 	eoreq	r0, r1, r0, lsl #20
    1538:	0b2f1349 	bleq	bc6264 <__bss_end__+0xbb97e4>
    153c:	130b0000 	movwne	r0, #45056	; 0xb000
    1540:	3a0b0b01 	bcc	2c414c <__bss_end__+0x2b76cc>
    1544:	010b3b0b 	tsteq	fp, fp, lsl #22
    1548:	0c000013 	stceq	0, cr0, [r0], {19}
    154c:	0e03000d 	cdpeq	0, 0, cr0, cr3, cr13, {0}
    1550:	0b3b0b3a 	bleq	ec4240 <__bss_end__+0xeb77c0>
    1554:	0b381349 	bleq	e06280 <__bss_end__+0xdf9800>
    1558:	0f0d0000 	svceq	0x000d0000
    155c:	000b0b00 	andeq	r0, fp, r0, lsl #22
    1560:	000f0e00 	andeq	r0, pc, r0, lsl #28
    1564:	13490b0b 	movtne	r0, #39691	; 0x9b0b
    1568:	260f0000 	strcs	r0, [pc], -r0
    156c:	00134900 	andseq	r4, r3, r0, lsl #18
    1570:	01131000 	tsteq	r3, r0
    1574:	0b0b0e03 	bleq	2c4d88 <__bss_end__+0x2b8308>
    1578:	0b3b0b3a 	bleq	ec4268 <__bss_end__+0xeb77e8>
    157c:	00001301 	andeq	r1, r0, r1, lsl #6
    1580:	03000d11 	movweq	r0, #3345	; 0xd11
    1584:	3b0b3a08 	blcc	2cfdac <__bss_end__+0x2c332c>
    1588:	3813490b 	ldmdacc	r3, {r0, r1, r3, r8, fp, lr}
    158c:	1200000b 	andne	r0, r0, #11
    1590:	0e030113 	mcreq	1, 0, r0, cr3, cr3, {0}
    1594:	0b3a050b 	bleq	e829c8 <__bss_end__+0xe75f48>
    1598:	13010b3b 	movwne	r0, #6971	; 0x1b3b
    159c:	0d130000 	ldceq	0, cr0, [r3, #-0]
    15a0:	3a0e0300 	bcc	3821a8 <__bss_end__+0x375728>
    15a4:	490b3b0b 	stmdbmi	fp, {r0, r1, r3, r8, r9, fp, ip, sp}
    15a8:	00053813 	andeq	r3, r5, r3, lsl r8
    15ac:	00151400 	andseq	r1, r5, r0, lsl #8
    15b0:	00001927 	andeq	r1, r0, r7, lsr #18
    15b4:	27011515 	smladcs	r1, r5, r5, r1
    15b8:	01134919 	tsteq	r3, r9, lsl r9
    15bc:	16000013 			; <UNDEFINED> instruction: 0x16000013
    15c0:	13490005 	movtne	r0, #36869	; 0x9005
    15c4:	13170000 	tstne	r7, #0
    15c8:	0b0e0301 	bleq	3821d4 <__bss_end__+0x375754>
    15cc:	3b0b3a05 	blcc	2cfde8 <__bss_end__+0x2c3368>
    15d0:	00130105 	andseq	r0, r3, r5, lsl #2
    15d4:	000d1800 	andeq	r1, sp, r0, lsl #16
    15d8:	0b3a0e03 	bleq	e84dec <__bss_end__+0xe7836c>
    15dc:	1349053b 	movtne	r0, #38203	; 0x953b
    15e0:	00000b38 	andeq	r0, r0, r8, lsr fp
    15e4:	03000d19 	movweq	r0, #3353	; 0xd19
    15e8:	3b0b3a0e 	blcc	2cfe28 <__bss_end__+0x2c33a8>
    15ec:	38134905 	ldmdacc	r3, {r0, r2, r8, fp, lr}
    15f0:	1a000005 	bne	160c <__code_start__-0x69f4>
    15f4:	0e030113 	mcreq	1, 0, r0, cr3, cr3, {0}
    15f8:	0b3a0b0b 	bleq	e8422c <__bss_end__+0xe777ac>
    15fc:	1301053b 	movwne	r0, #5435	; 0x153b
    1600:	131b0000 	tstne	fp, #0
    1604:	3a0b0b01 	bcc	2c4210 <__bss_end__+0x2b7790>
    1608:	01053b0b 	tsteq	r5, fp, lsl #22
    160c:	1c000013 	stcne	0, cr0, [r0], {19}
    1610:	0b0b0117 	bleq	2c1a74 <__bss_end__+0x2b4ff4>
    1614:	053b0b3a 	ldreq	r0, [fp, #-2874]!	; 0xb3a
    1618:	00001301 	andeq	r1, r0, r1, lsl #6
    161c:	03000d1d 	movweq	r0, #3357	; 0xd1d
    1620:	3b0b3a0e 	blcc	2cfe60 <__bss_end__+0x2c33e0>
    1624:	00134905 	andseq	r4, r3, r5, lsl #18
    1628:	01151e00 	tsteq	r5, r0, lsl #28
    162c:	13011927 	movwne	r1, #6439	; 0x1927
    1630:	341f0000 	ldrcc	r0, [pc], #-0	; 1638 <__code_start__-0x69c8>
    1634:	3a0e0300 	bcc	38223c <__bss_end__+0x3757bc>
    1638:	49053b0b 	stmdbmi	r5, {r0, r1, r3, r8, r9, fp, ip, sp}
    163c:	3c193f13 	ldccc	15, cr3, [r9], {19}
    1640:	20000019 	andcs	r0, r0, r9, lsl r0
    1644:	0e030034 	mcreq	0, 0, r0, cr3, cr4, {1}
    1648:	0b3b0b3a 	bleq	ec4338 <__bss_end__+0xeb78b8>
    164c:	193f1349 	ldmdbne	pc!, {r0, r3, r6, r8, r9, ip}	; <UNPREDICTABLE>
    1650:	0000193c 	andeq	r1, r0, ip, lsr r9
    1654:	0b010421 	bleq	426e0 <__bss_end__+0x35c60>
    1658:	3a13490b 	bcc	4d3a8c <__bss_end__+0x4c700c>
    165c:	010b3b0b 	tsteq	fp, fp, lsl #22
    1660:	22000013 	andcs	r0, r0, #19
    1664:	0e030028 	cdpeq	0, 0, cr0, cr3, cr8, {1}
    1668:	00000b1c 	andeq	r0, r0, ip, lsl fp
    166c:	03003423 	movweq	r3, #1059	; 0x423
    1670:	3b0b3a0e 	blcc	2cfeb0 <__bss_end__+0x2c3430>
    1674:	1c13490b 	ldcne	9, cr4, [r3], {11}
    1678:	24000006 	strcs	r0, [r0], #-6
    167c:	193f012e 	ldmdbne	pc!, {r1, r2, r3, r5, r8}	; <UNPREDICTABLE>
    1680:	0b3a0e03 	bleq	e84e94 <__bss_end__+0xe78414>
    1684:	19270b3b 	stmdbne	r7!, {r0, r1, r3, r4, r5, r8, r9, fp}
    1688:	01111349 	tsteq	r1, r9, asr #6
    168c:	18400612 	stmdane	r0, {r1, r4, r9, sl}^
    1690:	01194297 			; <UNDEFINED> instruction: 0x01194297
    1694:	25000013 	strcs	r0, [r0, #-19]
    1698:	00018289 	andeq	r8, r1, r9, lsl #5
    169c:	13310111 	teqne	r1, #1073741828	; 0x40000004
    16a0:	2e260000 	cdpcs	0, 2, cr0, cr6, cr0, {0}
    16a4:	03193f01 	tsteq	r9, #1, 30
    16a8:	3b0b3a0e 	blcc	2cfee8 <__bss_end__+0x2c3468>
    16ac:	1119270b 	tstne	r9, fp, lsl #14
    16b0:	40061201 	andmi	r1, r6, r1, lsl #4
    16b4:	19429718 	stmdbne	r2, {r3, r4, r8, r9, sl, ip, pc}^
    16b8:	00001301 	andeq	r1, r0, r1, lsl #6
    16bc:	03000527 	movweq	r0, #1319	; 0x527
    16c0:	3b0b3a08 	blcc	2cfee8 <__bss_end__+0x2c3468>
    16c4:	0213490b 	andseq	r4, r3, #180224	; 0x2c000
    16c8:	28000017 	stmdacs	r0, {r0, r1, r2, r4}
    16cc:	01018289 	smlabbeq	r1, r9, r2, r8
    16d0:	13310111 	teqne	r1, #1073741828	; 0x40000004
    16d4:	00001301 	andeq	r1, r0, r1, lsl #6
    16d8:	01828a29 	orreq	r8, r2, r9, lsr #20
    16dc:	91180200 	tstls	r8, r0, lsl #4
    16e0:	00001842 	andeq	r1, r0, r2, asr #16
    16e4:	0300342a 	movweq	r3, #1066	; 0x42a
    16e8:	3b0b3a08 	blcc	2cff10 <__bss_end__+0x2c3490>
    16ec:	0213490b 	andseq	r4, r3, #180224	; 0x2c000
    16f0:	2b000018 	blcs	1758 <__code_start__-0x68a8>
    16f4:	01018289 	smlabbeq	r1, r9, r2, r8
    16f8:	13310111 	teqne	r1, #1073741828	; 0x40000004
    16fc:	2e2c0000 	cdpcs	0, 2, cr0, cr12, cr0, {0}
    1700:	3a0e0301 	bcc	38230c <__bss_end__+0x37588c>
    1704:	270b3b0b 	strcs	r3, [fp, -fp, lsl #22]
    1708:	12011119 	andne	r1, r1, #1073741830	; 0x40000006
    170c:	97184006 	ldrls	r4, [r8, -r6]
    1710:	13011942 	movwne	r1, #6466	; 0x1942
    1714:	052d0000 	streq	r0, [sp, #-0]!
    1718:	3a0e0300 	bcc	382320 <__bss_end__+0x3758a0>
    171c:	490b3b0b 	stmdbmi	fp, {r0, r1, r3, r8, r9, fp, ip, sp}
    1720:	00170213 	andseq	r0, r7, r3, lsl r2
    1724:	00352e00 	eorseq	r2, r5, r0, lsl #28
    1728:	2e2f0000 	cdpcs	0, 2, cr0, cr15, cr0, {0}
    172c:	3c193f00 	ldccc	15, cr3, [r9], {-0}
    1730:	030e6e19 	movweq	r6, #60953	; 0xee19
    1734:	3b0b3a0e 	blcc	2cff74 <__bss_end__+0x2c34f4>
    1738:	0000000b 	andeq	r0, r0, fp
    173c:	25011101 	strcs	r1, [r1, #-257]	; 0x101
    1740:	030b130e 	movweq	r1, #45838	; 0xb30e
    1744:	110e1b0e 	tstne	lr, lr, lsl #22
    1748:	10061201 	andne	r1, r6, r1, lsl #4
    174c:	02000017 	andeq	r0, r0, #23
    1750:	0b0b0024 	bleq	2c17e8 <__bss_end__+0x2b4d68>
    1754:	08030b3e 	stmdaeq	r3, {r1, r2, r3, r4, r5, r8, r9, fp}
    1758:	24030000 	strcs	r0, [r3], #-0
    175c:	3e0b0b00 	vmlacc.f64	d0, d11, d0
    1760:	000e030b 	andeq	r0, lr, fp, lsl #6
    1764:	00260400 	eoreq	r0, r6, r0, lsl #8
    1768:	00001349 	andeq	r1, r0, r9, asr #6
    176c:	03001605 	movweq	r1, #1541	; 0x605
    1770:	3b0b3a0e 	blcc	2cffb0 <__bss_end__+0x2c3530>
    1774:	0013490b 	andseq	r4, r3, fp, lsl #18
    1778:	00160600 	andseq	r0, r6, r0, lsl #12
    177c:	0b3a0e03 	bleq	e84f90 <__bss_end__+0xe78510>
    1780:	1349053b 	movtne	r0, #38203	; 0x953b
    1784:	17070000 	strne	r0, [r7, -r0]
    1788:	3a0b0b01 	bcc	2c4394 <__bss_end__+0x2b7914>
    178c:	010b3b0b 	tsteq	fp, fp, lsl #22
    1790:	08000013 	stmdaeq	r0, {r0, r1, r4}
    1794:	0e03000d 	cdpeq	0, 0, cr0, cr3, cr13, {0}
    1798:	0b3b0b3a 	bleq	ec4488 <__bss_end__+0xeb7a08>
    179c:	00001349 	andeq	r1, r0, r9, asr #6
    17a0:	49010109 	stmdbmi	r1, {r0, r3, r8}
    17a4:	00130113 	andseq	r0, r3, r3, lsl r1
    17a8:	00210a00 	eoreq	r0, r1, r0, lsl #20
    17ac:	0b2f1349 	bleq	bc64d8 <__bss_end__+0xbb9a58>
    17b0:	130b0000 	movwne	r0, #45056	; 0xb000
    17b4:	3a0b0b01 	bcc	2c43c0 <__bss_end__+0x2b7940>
    17b8:	010b3b0b 	tsteq	fp, fp, lsl #22
    17bc:	0c000013 	stceq	0, cr0, [r0], {19}
    17c0:	0e03000d 	cdpeq	0, 0, cr0, cr3, cr13, {0}
    17c4:	0b3b0b3a 	bleq	ec44b4 <__bss_end__+0xeb7a34>
    17c8:	0b381349 	bleq	e064f4 <__bss_end__+0xdf9a74>
    17cc:	0f0d0000 	svceq	0x000d0000
    17d0:	000b0b00 	andeq	r0, fp, r0, lsl #22
    17d4:	000f0e00 	andeq	r0, pc, r0, lsl #28
    17d8:	13490b0b 	movtne	r0, #39691	; 0x9b0b
    17dc:	130f0000 	movwne	r0, #61440	; 0xf000
    17e0:	0b0e0301 	bleq	3823ec <__bss_end__+0x37596c>
    17e4:	3b0b3a0b 	blcc	2d0018 <__bss_end__+0x2c3598>
    17e8:	0013010b 	andseq	r0, r3, fp, lsl #2
    17ec:	000d1000 	andeq	r1, sp, r0
    17f0:	0b3a0803 	bleq	e83804 <__bss_end__+0xe76d84>
    17f4:	13490b3b 	movtne	r0, #39739	; 0x9b3b
    17f8:	00000b38 	andeq	r0, r0, r8, lsr fp
    17fc:	03011311 	movweq	r1, #4881	; 0x1311
    1800:	3a050b0e 	bcc	144440 <__bss_end__+0x1379c0>
    1804:	010b3b0b 	tsteq	fp, fp, lsl #22
    1808:	12000013 	andne	r0, r0, #19
    180c:	0e03000d 	cdpeq	0, 0, cr0, cr3, cr13, {0}
    1810:	0b3b0b3a 	bleq	ec4500 <__bss_end__+0xeb7a80>
    1814:	05381349 	ldreq	r1, [r8, #-841]!	; 0x349
    1818:	15130000 	ldrne	r0, [r3, #-0]
    181c:	00192700 	andseq	r2, r9, r0, lsl #14
    1820:	01151400 	tsteq	r5, r0, lsl #8
    1824:	13491927 	movtne	r1, #39207	; 0x9927
    1828:	00001301 	andeq	r1, r0, r1, lsl #6
    182c:	49000515 	stmdbmi	r0, {r0, r2, r4, r8, sl}
    1830:	16000013 			; <UNDEFINED> instruction: 0x16000013
    1834:	0e030113 	mcreq	1, 0, r0, cr3, cr3, {0}
    1838:	0b3a050b 	bleq	e82c6c <__bss_end__+0xe761ec>
    183c:	1301053b 	movwne	r0, #5435	; 0x153b
    1840:	0d170000 	ldceq	0, cr0, [r7, #-0]
    1844:	3a0e0300 	bcc	38244c <__bss_end__+0x3759cc>
    1848:	49053b0b 	stmdbmi	r5, {r0, r1, r3, r8, r9, fp, ip, sp}
    184c:	000b3813 	andeq	r3, fp, r3, lsl r8
    1850:	000d1800 	andeq	r1, sp, r0, lsl #16
    1854:	0b3a0e03 	bleq	e85068 <__bss_end__+0xe785e8>
    1858:	1349053b 	movtne	r0, #38203	; 0x953b
    185c:	00000538 	andeq	r0, r0, r8, lsr r5
    1860:	03011319 	movweq	r1, #4889	; 0x1319
    1864:	3a0b0b0e 	bcc	2c44a4 <__bss_end__+0x2b7a24>
    1868:	01053b0b 	tsteq	r5, fp, lsl #22
    186c:	1a000013 	bne	18c0 <__code_start__-0x6740>
    1870:	0b0b0113 	bleq	2c1cc4 <__bss_end__+0x2b5244>
    1874:	053b0b3a 	ldreq	r0, [fp, #-2874]!	; 0xb3a
    1878:	00001301 	andeq	r1, r0, r1, lsl #6
    187c:	0b01171b 	bleq	474f0 <__bss_end__+0x3aa70>
    1880:	3b0b3a0b 	blcc	2d00b4 <__bss_end__+0x2c3634>
    1884:	00130105 	andseq	r0, r3, r5, lsl #2
    1888:	000d1c00 	andeq	r1, sp, r0, lsl #24
    188c:	0b3a0e03 	bleq	e850a0 <__bss_end__+0xe78620>
    1890:	1349053b 	movtne	r0, #38203	; 0x953b
    1894:	151d0000 	ldrne	r0, [sp, #-0]
    1898:	01192701 	tsteq	r9, r1, lsl #14
    189c:	1e000013 	mcrne	0, 0, r0, cr0, cr3, {0}
    18a0:	0e030034 	mcreq	0, 0, r0, cr3, cr4, {1}
    18a4:	053b0b3a 	ldreq	r0, [fp, #-2874]!	; 0xb3a
    18a8:	193f1349 	ldmdbne	pc!, {r0, r3, r6, r8, r9, ip}	; <UNPREDICTABLE>
    18ac:	0000193c 	andeq	r1, r0, ip, lsr r9
    18b0:	0300341f 	movweq	r3, #1055	; 0x41f
    18b4:	3b0b3a0e 	blcc	2d00f4 <__bss_end__+0x2c3674>
    18b8:	3f13490b 	svccc	0x0013490b
    18bc:	00193c19 	andseq	r3, r9, r9, lsl ip
    18c0:	01042000 	mrseq	r2, (UNDEF: 4)
    18c4:	13490b0b 	movtne	r0, #39691	; 0x9b0b
    18c8:	0b3b0b3a 	bleq	ec45b8 <__bss_end__+0xeb7b38>
    18cc:	00001301 	andeq	r1, r0, r1, lsl #6
    18d0:	03002821 	movweq	r2, #2081	; 0x821
    18d4:	000b1c0e 	andeq	r1, fp, lr, lsl #24
    18d8:	00342200 	eorseq	r2, r4, r0, lsl #4
    18dc:	0b3a0e03 	bleq	e850f0 <__bss_end__+0xe78670>
    18e0:	13490b3b 	movtne	r0, #39739	; 0x9b3b
    18e4:	0000061c 	andeq	r0, r0, ip, lsl r6
    18e8:	3f012e23 	svccc	0x00012e23
    18ec:	3a0e0319 	bcc	382558 <__bss_end__+0x375ad8>
    18f0:	270b3b0b 	strcs	r3, [fp, -fp, lsl #22]
    18f4:	11134919 	tstne	r3, r9, lsl r9
    18f8:	40061201 	andmi	r1, r6, r1, lsl #4
    18fc:	19429718 	stmdbne	r2, {r3, r4, r8, r9, sl, ip, pc}^
    1900:	00001301 	andeq	r1, r0, r1, lsl #6
    1904:	03000524 	movweq	r0, #1316	; 0x524
    1908:	3b0b3a08 	blcc	2d0130 <__bss_end__+0x2c36b0>
    190c:	0213490b 	andseq	r4, r3, #180224	; 0x2c000
    1910:	25000017 	strcs	r0, [r0, #-23]
    1914:	0e030034 	mcreq	0, 0, r0, cr3, cr4, {1}
    1918:	0b3b0b3a 	bleq	ec4608 <__bss_end__+0xeb7b88>
    191c:	17021349 	strne	r1, [r2, -r9, asr #6]
    1920:	34260000 	strtcc	r0, [r6], #-0
    1924:	3a080300 	bcc	20252c <__bss_end__+0x1f5aac>
    1928:	490b3b0b 	stmdbmi	fp, {r0, r1, r3, r8, r9, fp, ip, sp}
    192c:	00170213 	andseq	r0, r7, r3, lsl r2
    1930:	82892700 	addhi	r2, r9, #0, 14
    1934:	01110101 	tsteq	r1, r1, lsl #2
    1938:	00001331 	andeq	r1, r0, r1, lsr r3
    193c:	01828a28 	orreq	r8, r2, r8, lsr #20
    1940:	91180200 	tstls	r8, r0, lsl #4
    1944:	00001842 	andeq	r1, r0, r2, asr #16
    1948:	3f012e29 	svccc	0x00012e29
    194c:	3a0e0319 	bcc	3825b8 <__bss_end__+0x375b38>
    1950:	270b3b0b 	strcs	r3, [fp, -fp, lsl #22]
    1954:	12011119 	andne	r1, r1, #1073741830	; 0x40000006
    1958:	97184006 	ldrls	r4, [r8, -r6]
    195c:	13011942 	movwne	r1, #6466	; 0x1942
    1960:	892a0000 	stmdbhi	sl!, {}	; <UNPREDICTABLE>
    1964:	11010182 	smlabbne	r1, r2, r1, r0
    1968:	01133101 	tsteq	r3, r1, lsl #2
    196c:	2b000013 	blcs	19c0 <__code_start__-0x6640>
    1970:	00018289 	andeq	r8, r1, r9, lsl #5
    1974:	13310111 	teqne	r1, #1073741828	; 0x40000004
    1978:	052c0000 	streq	r0, [ip, #-0]!
    197c:	3a0e0300 	bcc	382584 <__bss_end__+0x375b04>
    1980:	490b3b0b 	stmdbmi	fp, {r0, r1, r3, r8, r9, fp, ip, sp}
    1984:	00170213 	andseq	r0, r7, r3, lsl r2
    1988:	00342d00 	eorseq	r2, r4, r0, lsl #26
    198c:	0b3a0803 	bleq	e839a0 <__bss_end__+0xe76f20>
    1990:	13490b3b 	movtne	r0, #39739	; 0x9b3b
    1994:	00001802 	andeq	r1, r0, r2, lsl #16
    1998:	3f002e2e 	svccc	0x00002e2e
    199c:	6e193c19 	mrcvs	12, 0, r3, cr9, cr9, {0}
    19a0:	3a0e030e 	bcc	3825e0 <__bss_end__+0x375b60>
    19a4:	000b3b0b 	andeq	r3, fp, fp, lsl #22
	...

Disassembly of section .debug_loc:

00000000 <.debug_loc>:
       0:	00000000 	andeq	r0, r0, r0
       4:	0000001c 	andeq	r0, r0, ip, lsl r0
       8:	1c500001 	mrrcne	0, 0, r0, r0, cr1	; <UNPREDICTABLE>
       c:	68000000 	stmdavs	r0, {}	; <UNPREDICTABLE>
      10:	04000000 	streq	r0, [r0], #-0
      14:	5001f300 	andpl	pc, r1, r0, lsl #6
      18:	0000009f 	muleq	r0, pc, r0	; <UNPREDICTABLE>
      1c:	00000000 	andeq	r0, r0, r0
      20:	00000c00 	andeq	r0, r0, r0, lsl #24
      24:	00003800 	andeq	r3, r0, r0, lsl #16
      28:	51000100 	mrspl	r0, (UNDEF: 16)
      2c:	00000038 	andeq	r0, r0, r8, lsr r0
      30:	0000003c 	andeq	r0, r0, ip, lsr r0
      34:	7f710003 	svcvc	0x00710003
      38:	0000009f 	muleq	r0, pc, r0	; <UNPREDICTABLE>
      3c:	00000000 	andeq	r0, r0, r0
      40:	00006800 	andeq	r6, r0, r0, lsl #16
      44:	00009c00 	andeq	r9, r0, r0, lsl #24
      48:	50000100 	andpl	r0, r0, r0, lsl #2
      4c:	0000009c 	muleq	r0, ip, r0
      50:	000000b8 	strheq	r0, [r0], -r8
      54:	01f30004 	mvnseq	r0, r4
      58:	00b89f50 	adcseq	r9, r8, r0, asr pc
      5c:	00bc0000 	adcseq	r0, ip, r0
      60:	00010000 	andeq	r0, r1, r0
      64:	0000bc50 	andeq	fp, r0, r0, asr ip
      68:	00012c00 	andeq	r2, r1, r0, lsl #24
      6c:	f3000400 	vshl.u8	d0, d0, d0
      70:	009f5001 	addseq	r5, pc, r1
      74:	00000000 	andeq	r0, r0, r0
      78:	a0000000 	andge	r0, r0, r0
      7c:	b8000000 	stmdalt	r0, {}	; <UNPREDICTABLE>
      80:	01000000 	mrseq	r0, (UNDEF: 0)
      84:	00bc5000 	adcseq	r5, ip, r0
      88:	00df0000 	sbcseq	r0, pc, r0
      8c:	00010000 	andeq	r0, r1, r0
      90:	00010050 	andeq	r0, r1, r0, asr r0
      94:	00012c00 	andeq	r2, r1, r0, lsl #24
      98:	50000100 	andpl	r0, r0, r0, lsl #2
	...
      a4:	00000098 	muleq	r0, r8, r0
      a8:	000000a4 	andeq	r0, r0, r4, lsr #1
      ac:	a4510001 	ldrbge	r0, [r1], #-1
      b0:	a8000000 	stmdage	r0, {}	; <UNPREDICTABLE>
      b4:	03000000 	movweq	r0, #0
      b8:	9f7f7100 	svcls	0x007f7100
	...
      c4:	0000012c 	andeq	r0, r0, ip, lsr #2
      c8:	0000013c 	andeq	r0, r0, ip, lsr r1
      cc:	3c500001 	mrrccc	0, 0, r0, r0, cr1	; <UNPREDICTABLE>
      d0:	38000001 	stmdacc	r0, {r0}
      d4:	04000003 	streq	r0, [r0], #-3
      d8:	5001f300 	andpl	pc, r1, r0, lsl #6
      dc:	0000009f 	muleq	r0, pc, r0	; <UNPREDICTABLE>
      e0:	00000000 	andeq	r0, r0, r0
      e4:	00024000 	andeq	r4, r2, r0
      e8:	00027000 	andeq	r7, r2, r0
      ec:	42000200 	andmi	r0, r0, #0, 4
      f0:	0002709f 	muleq	r2, pc, r0	; <UNPREDICTABLE>
      f4:	00028800 	andeq	r8, r2, r0, lsl #16
      f8:	50000100 	andpl	r0, r0, r0, lsl #2
      fc:	00000288 	andeq	r0, r0, r8, lsl #5
     100:	00000290 	muleq	r0, r0, r2
     104:	9f420002 	svcls	0x00420002
     108:	00000290 	muleq	r0, r0, r2
     10c:	000002bb 			; <UNDEFINED> instruction: 0x000002bb
     110:	dc500001 	mrrcle	0, 0, r0, r0, cr1	; <UNPREDICTABLE>
     114:	38000002 	stmdacc	r0, {r1}
     118:	01000003 	tsteq	r0, r3
     11c:	00005000 	andeq	r5, r0, r0
     120:	00000000 	andeq	r0, r0, r0
     124:	02680000 	rsbeq	r0, r8, #0
     128:	02740000 	rsbseq	r0, r4, #0
     12c:	00010000 	andeq	r0, r1, r0
     130:	00027451 	andeq	r7, r2, r1, asr r4
     134:	00027800 	andeq	r7, r2, r0, lsl #16
     138:	71000300 	mrsvc	r0, LR_irq
     13c:	00009f7f 	andeq	r9, r0, pc, ror pc
     140:	00000000 	andeq	r0, r0, r0
     144:	03380000 	teqeq	r8, #0
     148:	035f0000 	cmpeq	pc, #0
     14c:	00010000 	andeq	r0, r1, r0
     150:	00035f50 	andeq	r5, r3, r0, asr pc
     154:	0003c000 	andeq	ip, r3, r0
     158:	f3000400 	vshl.u8	d0, d0, d0
     15c:	009f5001 	addseq	r5, pc, r1
	...
     168:	23000000 	movwcs	r0, #0
     16c:	01000000 	mrseq	r0, (UNDEF: 0)
     170:	00235000 	eoreq	r5, r3, r0
     174:	00440000 	subeq	r0, r4, r0
     178:	00040000 	andeq	r0, r4, r0
     17c:	9f5001f3 	svcls	0x005001f3
     180:	00000044 	andeq	r0, r0, r4, asr #32
     184:	0000005f 	andeq	r0, r0, pc, asr r0
     188:	5f500001 	svcpl	0x00500001
     18c:	80000000 	andhi	r0, r0, r0
     190:	04000000 	streq	r0, [r0], #-0
     194:	5001f300 	andpl	pc, r1, r0, lsl #6
     198:	0000809f 	muleq	r0, pc, r0	; <UNPREDICTABLE>
     19c:	0000b000 	andeq	fp, r0, r0
     1a0:	50000100 	andpl	r0, r0, r0, lsl #2
	...
     1b0:	00000023 	andeq	r0, r0, r3, lsr #32
     1b4:	23510001 	cmpcs	r1, #1
     1b8:	44000000 	strmi	r0, [r0], #-0
     1bc:	04000000 	streq	r0, [r0], #-0
     1c0:	5101f300 	mrspl	pc, SP_irq	; <UNPREDICTABLE>
     1c4:	0000449f 	muleq	r0, pc, r4	; <UNPREDICTABLE>
     1c8:	00005f00 	andeq	r5, r0, r0, lsl #30
     1cc:	51000100 	mrspl	r0, (UNDEF: 16)
     1d0:	0000005f 	andeq	r0, r0, pc, asr r0
     1d4:	00000080 	andeq	r0, r0, r0, lsl #1
     1d8:	01f30004 	mvnseq	r0, r4
     1dc:	00809f51 	addeq	r9, r0, r1, asr pc
     1e0:	00b00000 	adcseq	r0, r0, r0
     1e4:	00010000 	andeq	r0, r1, r0
     1e8:	00000051 	andeq	r0, r0, r1, asr r0
     1ec:	00000000 	andeq	r0, r0, r0
     1f0:	00001000 	andeq	r1, r0, r0
     1f4:	00002300 	andeq	r2, r0, r0, lsl #6
     1f8:	53000100 	movwpl	r0, #256	; 0x100
     1fc:	00000044 	andeq	r0, r0, r4, asr #32
     200:	00000048 	andeq	r0, r0, r8, asr #32
     204:	48530001 	ldmdami	r3, {r0}^
     208:	b0000000 	andlt	r0, r0, r0
     20c:	04000000 	streq	r0, [r0], #-0
     210:	01ff0a00 	mvnseq	r0, r0, lsl #20
     214:	0000009f 	muleq	r0, pc, r0	; <UNPREDICTABLE>
     218:	00000000 	andeq	r0, r0, r0
     21c:	00004400 	andeq	r4, r0, r0, lsl #8
     220:	00005f00 	andeq	r5, r0, r0, lsl #30
     224:	50000100 	andpl	r0, r0, r0, lsl #2
     228:	0000005f 	andeq	r0, r0, pc, asr r0
     22c:	00000080 	andeq	r0, r0, r0, lsl #1
     230:	01f30004 	mvnseq	r0, r4
     234:	00809f50 	addeq	r9, r0, r0, asr pc
     238:	00b00000 	adcseq	r0, r0, r0
     23c:	00010000 	andeq	r0, r1, r0
     240:	00000050 	andeq	r0, r0, r0, asr r0
     244:	00000000 	andeq	r0, r0, r0
     248:	00000c00 	andeq	r0, r0, r0, lsl #24
     24c:	00001000 	andeq	r1, r0, r0
     250:	53000100 	movwpl	r0, #256	; 0x100
	...
     25c:	00000010 	andeq	r0, r0, r0, lsl r0
     260:	00000023 	andeq	r0, r0, r3, lsr #32
     264:	44530001 	ldrbmi	r0, [r3], #-1
     268:	4c000000 	stcmi	0, cr0, [r0], {-0}
     26c:	01000000 	mrseq	r0, (UNDEF: 0)
     270:	00005300 	andeq	r5, r0, r0, lsl #6
     274:	00000000 	andeq	r0, r0, r0
     278:	00180000 	andseq	r0, r8, r0
     27c:	00230000 	eoreq	r0, r3, r0
     280:	00010000 	andeq	r0, r1, r0
     284:	00004452 	andeq	r4, r0, r2, asr r4
     288:	00005400 	andeq	r5, r0, r0, lsl #8
     28c:	52000100 	andpl	r0, r0, #0, 2
	...
     298:	00000054 	andeq	r0, r0, r4, asr r0
     29c:	0000005f 	andeq	r0, r0, pc, asr r0
     2a0:	80520001 	subshi	r0, r2, r1
     2a4:	b0000000 	andlt	r0, r0, r0
     2a8:	01000000 	mrseq	r0, (UNDEF: 0)
     2ac:	00005200 	andeq	r5, r0, r0, lsl #4
     2b0:	00000000 	andeq	r0, r0, r0
     2b4:	00b00000 	adcseq	r0, r0, r0
     2b8:	00d30000 	sbcseq	r0, r3, r0
     2bc:	00010000 	andeq	r0, r1, r0
     2c0:	0000d350 	andeq	sp, r0, r0, asr r3
     2c4:	0000ec00 	andeq	lr, r0, r0, lsl #24
     2c8:	f3000400 	vshl.u8	d0, d0, d0
     2cc:	ec9f5001 	ldc	0, cr5, [pc], {1}
     2d0:	ff000000 			; <UNDEFINED> instruction: 0xff000000
     2d4:	01000000 	mrseq	r0, (UNDEF: 0)
     2d8:	00ff5000 	rscseq	r5, pc, r0
     2dc:	01200000 	teqeq	r0, r0
     2e0:	00040000 	andeq	r0, r4, r0
     2e4:	9f5001f3 	svcls	0x005001f3
     2e8:	00000120 	andeq	r0, r0, r0, lsr #2
     2ec:	00000133 	andeq	r0, r0, r3, lsr r1
     2f0:	33500001 	cmpcc	r0, #1
     2f4:	54000001 	strpl	r0, [r0], #-1
     2f8:	04000001 	streq	r0, [r0], #-1
     2fc:	5001f300 	andpl	pc, r1, r0, lsl #6
     300:	0001549f 	muleq	r1, pc, r4	; <UNPREDICTABLE>
     304:	00015c00 	andeq	r5, r1, r0, lsl #24
     308:	50000100 	andpl	r0, r0, r0, lsl #2
     30c:	0000015c 	andeq	r0, r0, ip, asr r1
     310:	0000015f 	andeq	r0, r0, pc, asr r1
     314:	5f510001 	svcpl	0x00510001
     318:	8c000001 	stchi	0, cr0, [r0], {1}
     31c:	04000001 	streq	r0, [r0], #-1
     320:	5001f300 	andpl	pc, r1, r0, lsl #6
     324:	0000009f 	muleq	r0, pc, r0	; <UNPREDICTABLE>
     328:	00000000 	andeq	r0, r0, r0
     32c:	0000c400 	andeq	ip, r0, r0, lsl #8
     330:	0000c800 	andeq	ip, r0, r0, lsl #16
     334:	53000100 	movwpl	r0, #256	; 0x100
	...
     340:	000000f0 	strdeq	r0, [r0], -r0	; <UNPREDICTABLE>
     344:	000000f4 	strdeq	r0, [r0], -r4
     348:	f4530001 			; <UNDEFINED> instruction: 0xf4530001
     34c:	ff000000 			; <UNDEFINED> instruction: 0xff000000
     350:	03000000 	movweq	r0, #0
     354:	9f047300 	svcls	0x00047300
     358:	00000120 	andeq	r0, r0, r0, lsr #2
     35c:	00000124 	andeq	r0, r0, r4, lsr #2
     360:	04730003 	ldrbteq	r0, [r3], #-3
     364:	0000009f 	muleq	r0, pc, r0	; <UNPREDICTABLE>
     368:	00000000 	andeq	r0, r0, r0
     36c:	0001d000 	andeq	sp, r1, r0
     370:	0001d800 	andeq	sp, r1, r0, lsl #16
     374:	53000100 	movwpl	r0, #256	; 0x100
     378:	000001d8 	ldrdeq	r0, [r0], -r8
     37c:	000001fc 	strdeq	r0, [r0], -ip
     380:	e70a0004 	str	r0, [sl, -r4]
     384:	00009f01 	andeq	r9, r0, r1, lsl #30
     388:	00000000 	andeq	r0, r0, r0
     38c:	01cc0000 	biceq	r0, ip, r0
     390:	01d00000 	bicseq	r0, r0, r0
     394:	00010000 	andeq	r0, r1, r0
     398:	00000053 	andeq	r0, r0, r3, asr r0
     39c:	00000000 	andeq	r0, r0, r0
     3a0:	0001d000 	andeq	sp, r1, r0
     3a4:	0001dc00 	andeq	sp, r1, r0, lsl #24
     3a8:	53000100 	movwpl	r0, #256	; 0x100
	...
     3b4:	000001fc 	strdeq	r0, [r0], -ip
     3b8:	0000021b 	andeq	r0, r0, fp, lsl r2
     3bc:	1b500001 	blne	14003c8 <__bss_end__+0x13f3948>
     3c0:	34000002 	strcc	r0, [r0], #-2
     3c4:	04000002 	streq	r0, [r0], #-2
     3c8:	5001f300 	andpl	pc, r1, r0, lsl #6
     3cc:	0002349f 	muleq	r2, pc, r4	; <UNPREDICTABLE>
     3d0:	00024700 	andeq	r4, r2, r0, lsl #14
     3d4:	50000100 	andpl	r0, r0, r0, lsl #2
     3d8:	00000247 	andeq	r0, r0, r7, asr #4
     3dc:	00000268 	andeq	r0, r0, r8, ror #4
     3e0:	01f30004 	mvnseq	r0, r4
     3e4:	02689f50 	rsbeq	r9, r8, #80, 30	; 0x140
     3e8:	02700000 	rsbseq	r0, r0, #0
     3ec:	00010000 	andeq	r0, r1, r0
     3f0:	00027050 	andeq	r7, r2, r0, asr r0
     3f4:	00027300 	andeq	r7, r2, r0, lsl #6
     3f8:	51000100 	mrspl	r0, (UNDEF: 16)
     3fc:	00000273 	andeq	r0, r0, r3, ror r2
     400:	00000294 	muleq	r0, r4, r2
     404:	01f30004 	mvnseq	r0, r4
     408:	00009f50 	andeq	r9, r0, r0, asr pc
     40c:	00000000 	andeq	r0, r0, r0
     410:	020c0000 	andeq	r0, ip, #0
     414:	02100000 	andseq	r0, r0, #0
     418:	00010000 	andeq	r0, r1, r0
     41c:	00000053 	andeq	r0, r0, r3, asr r0
     420:	00000000 	andeq	r0, r0, r0
     424:	0002cc00 	andeq	ip, r2, r0, lsl #24
     428:	0002d400 	andeq	sp, r2, r0, lsl #8
     42c:	53000100 	movwpl	r0, #256	; 0x100
     430:	000002d4 	ldrdeq	r0, [r0], -r4
     434:	000002f8 	strdeq	r0, [r0], -r8
     438:	e70c0006 	str	r0, [ip, -r6]
     43c:	9f004001 	svcls	0x00004001
	...
     448:	000002c8 	andeq	r0, r0, r8, asr #5
     44c:	000002cc 	andeq	r0, r0, ip, asr #5
     450:	00530001 	subseq	r0, r3, r1
     454:	00000000 	andeq	r0, r0, r0
     458:	cc000000 	stcgt	0, cr0, [r0], {-0}
     45c:	d8000002 	stmdale	r0, {r1}
     460:	01000002 	tsteq	r0, r2
     464:	00005300 	andeq	r5, r0, r0, lsl #6
     468:	00000000 	andeq	r0, r0, r0
     46c:	03080000 	movweq	r0, #32768	; 0x8000
     470:	03240000 	teqeq	r4, #0
     474:	00010000 	andeq	r0, r1, r0
     478:	00032450 	andeq	r2, r3, r0, asr r4
     47c:	00032800 	andeq	r2, r3, r0, lsl #16
     480:	f3000400 	vshl.u8	d0, d0, d0
     484:	289f5001 	ldmcs	pc, {r0, ip, lr}	; <UNPREDICTABLE>
     488:	40000003 	andmi	r0, r0, r3
     48c:	01000003 	tsteq	r0, r3
     490:	03405000 	movteq	r5, #0
     494:	03480000 	movteq	r0, #32768	; 0x8000
     498:	00040000 	andeq	r0, r4, r0
     49c:	9f5001f3 	svcls	0x005001f3
     4a0:	00000348 	andeq	r0, r0, r8, asr #6
     4a4:	0000034c 	andeq	r0, r0, ip, asr #6
     4a8:	4c500001 	mrrcmi	0, 0, r0, r0, cr1	; <UNPREDICTABLE>
     4ac:	5c000003 	stcpl	0, cr0, [r0], {3}
     4b0:	04000003 	streq	r0, [r0], #-3
     4b4:	5001f300 	andpl	pc, r1, r0, lsl #6
     4b8:	00035c9f 	muleq	r3, pc, ip	; <UNPREDICTABLE>
     4bc:	00036000 	andeq	r6, r3, r0
     4c0:	50000100 	andpl	r0, r0, r0, lsl #2
     4c4:	00000360 	andeq	r0, r0, r0, ror #6
     4c8:	00000368 	andeq	r0, r0, r8, ror #6
     4cc:	01f30004 	mvnseq	r0, r4
     4d0:	00009f50 	andeq	r9, r0, r0, asr pc
     4d4:	00000000 	andeq	r0, r0, r0
     4d8:	03080000 	movweq	r0, #32768	; 0x8000
     4dc:	03500000 	cmpeq	r0, #0
     4e0:	00010000 	andeq	r0, r1, r0
     4e4:	00035051 	andeq	r5, r3, r1, asr r0
     4e8:	00035c00 	andeq	r5, r3, r0, lsl #24
     4ec:	f3000400 	vshl.u8	d0, d0, d0
     4f0:	5c9f5101 	ldfpls	f5, [pc], {1}
     4f4:	68000003 	stmdavs	r0, {r0, r1}
     4f8:	01000003 	tsteq	r0, r3
     4fc:	00005100 	andeq	r5, r0, r0, lsl #2
     500:	00000000 	andeq	r0, r0, r0
     504:	03140000 	tsteq	r4, #0
     508:	03340000 	teqeq	r4, #0
     50c:	00010000 	andeq	r0, r1, r0
     510:	00033453 	andeq	r3, r3, r3, asr r4
     514:	00034000 	andeq	r4, r3, r0
     518:	70000a00 	andvc	r0, r0, r0, lsl #20
     51c:	ff0c0600 			; <UNDEFINED> instruction: 0xff0c0600
     520:	1a00ffff 	bne	40524 <__bss_end__+0x33aa4>
     524:	0003409f 	muleq	r3, pc, r0	; <UNPREDICTABLE>
     528:	00034400 	andeq	r4, r3, r0, lsl #8
     52c:	f3000b00 	vqrdmulh.s<illegal width 8>	d0, d0, d0
     530:	0c065001 	stceq	0, cr5, [r6], {1}
     534:	00ffffff 	ldrshteq	pc, [pc], #255	; <UNPREDICTABLE>
     538:	03489f1a 	movteq	r9, #36634	; 0x8f1a
     53c:	03530000 	cmpeq	r3, #0
     540:	00010000 	andeq	r0, r1, r0
     544:	00035c53 	andeq	r5, r3, r3, asr ip
     548:	00036000 	andeq	r6, r3, r0
     54c:	70000a00 	andvc	r0, r0, r0, lsl #20
     550:	ff0c0600 			; <UNDEFINED> instruction: 0xff0c0600
     554:	1a00ffff 	bne	40558 <__bss_end__+0x33ad8>
     558:	0003609f 	muleq	r3, pc, r0	; <UNPREDICTABLE>
     55c:	00036800 	andeq	r6, r3, r0, lsl #16
     560:	f3000b00 	vqrdmulh.s<illegal width 8>	d0, d0, d0
     564:	0c065001 	stceq	0, cr5, [r6], {1}
     568:	00ffffff 	ldrshteq	pc, [pc], #255	; <UNPREDICTABLE>
     56c:	00009f1a 	andeq	r9, r0, sl, lsl pc
	...
     578:	00240000 	eoreq	r0, r4, r0
     57c:	00010000 	andeq	r0, r1, r0
     580:	00002450 	andeq	r2, r0, r0, asr r4
     584:	00019800 	andeq	r9, r1, r0, lsl #16
     588:	f3000400 	vshl.u8	d0, d0, d0
     58c:	009f5001 	addseq	r5, pc, r1
	...
     598:	28000000 	stmdacs	r0, {}	; <UNPREDICTABLE>
     59c:	01000000 	mrseq	r0, (UNDEF: 0)
     5a0:	00285100 	eoreq	r5, r8, r0, lsl #2
     5a4:	01640000 	cmneq	r4, r0
     5a8:	00010000 	andeq	r0, r1, r0
     5ac:	00016455 	andeq	r6, r1, r5, asr r4
     5b0:	00019800 	andeq	r9, r1, r0, lsl #16
     5b4:	f3000400 	vshl.u8	d0, d0, d0
     5b8:	009f5101 	addseq	r5, pc, r1, lsl #2
	...
     5c4:	2c000000 	stccs	0, cr0, [r0], {-0}
     5c8:	01000000 	mrseq	r0, (UNDEF: 0)
     5cc:	002c5200 	eoreq	r5, ip, r0, lsl #4
     5d0:	01980000 	orrseq	r0, r8, r0
     5d4:	00040000 	andeq	r0, r4, r0
     5d8:	9f5201f3 	svcls	0x005201f3
	...
     5e4:	00000068 	andeq	r0, r0, r8, rrx
     5e8:	00000164 	andeq	r0, r0, r4, ror #2
     5ec:	00540001 	subseq	r0, r4, r1
     5f0:	00000000 	andeq	r0, r0, r0
     5f4:	38000000 	stmdacc	r0, {}	; <UNPREDICTABLE>
     5f8:	3c000000 	stccc	0, cr0, [r0], {-0}
     5fc:	01000000 	mrseq	r0, (UNDEF: 0)
     600:	00005300 	andeq	r5, r0, r0, lsl #6
     604:	00000000 	andeq	r0, r0, r0
     608:	01980000 	orrseq	r0, r8, r0
     60c:	01d40000 	bicseq	r0, r4, r0
     610:	00010000 	andeq	r0, r1, r0
     614:	0001d450 	andeq	sp, r1, r0, asr r4
     618:	00061800 	andeq	r1, r6, r0, lsl #16
     61c:	54000100 	strpl	r0, [r0], #-256	; 0x100
     620:	00000618 	andeq	r0, r0, r8, lsl r6
     624:	00000678 	andeq	r0, r0, r8, ror r6
     628:	01f30004 	mvnseq	r0, r4
     62c:	00009f50 	andeq	r9, r0, r0, asr pc
     630:	00000000 	andeq	r0, r0, r0
     634:	01a80000 			; <UNDEFINED> instruction: 0x01a80000
     638:	04f40000 	ldrbteq	r0, [r4], #0
     63c:	00010000 	andeq	r0, r1, r0
     640:	00000058 	andeq	r0, r0, r8, asr r0
     644:	00000000 	andeq	r0, r0, r0
     648:	0002ac00 	andeq	sl, r2, r0, lsl #24
     64c:	0004f400 	andeq	pc, r4, r0, lsl #8
     650:	58000100 	stmdapl	r0, {r8}
	...
     65c:	000003cc 	andeq	r0, r0, ip, asr #7
     660:	00000618 	andeq	r0, r0, r8, lsl r6
     664:	00550001 	subseq	r0, r5, r1
     668:	00000000 	andeq	r0, r0, r0
     66c:	f0000000 			; <UNDEFINED> instruction: 0xf0000000
     670:	f4000004 	vst4.8	{d0-d3}, [r0], r4
     674:	01000004 	tsteq	r0, r4
     678:	00005800 	andeq	r5, r0, r0, lsl #16
     67c:	00000000 	andeq	r0, r0, r0
     680:	05600000 	strbeq	r0, [r0, #-0]!
     684:	05640000 	strbeq	r0, [r4, #-0]!
     688:	00010000 	andeq	r0, r1, r0
     68c:	00000053 	andeq	r0, r0, r3, asr r0
     690:	00000000 	andeq	r0, r0, r0
     694:	00067800 	andeq	r7, r6, r0, lsl #16
     698:	00068800 	andeq	r8, r6, r0, lsl #16
     69c:	50000100 	andpl	r0, r0, r0, lsl #2
     6a0:	00000688 	andeq	r0, r0, r8, lsl #13
     6a4:	000006fc 	strdeq	r0, [r0], -ip
     6a8:	00540001 	subseq	r0, r4, r1
     6ac:	00000000 	andeq	r0, r0, r0
     6b0:	80000000 	andhi	r0, r0, r0
     6b4:	88000006 	stmdahi	r0, {r1, r2}
     6b8:	02000006 	andeq	r0, r0, #6
     6bc:	889f3000 	ldmhi	pc, {ip, sp}	; <UNPREDICTABLE>
     6c0:	fc000006 	stc2	0, cr0, [r0], {6}
     6c4:	01000006 	tsteq	r0, r6
     6c8:	00005500 	andeq	r5, r0, r0, lsl #10
     6cc:	00000000 	andeq	r0, r0, r0
     6d0:	07240000 	streq	r0, [r4, -r0]!
     6d4:	072f0000 	streq	r0, [pc, -r0]!
     6d8:	00010000 	andeq	r0, r1, r0
     6dc:	00072f50 	andeq	r2, r7, r0, asr pc
     6e0:	00077000 	andeq	r7, r7, r0
     6e4:	54000100 	strpl	r0, [r0], #-256	; 0x100
	...
     6f4:	00000004 	andeq	r0, r0, r4
     6f8:	04520001 	ldrbeq	r0, [r2], #-1
     6fc:	20000000 	andcs	r0, r0, r0
     700:	04000000 	streq	r0, [r0], #-0
     704:	5201f300 	andpl	pc, r1, #0, 6
     708:	0000009f 	muleq	r0, pc, r0	; <UNPREDICTABLE>
	...
     714:	00000c00 	andeq	r0, r0, r0, lsl #24
     718:	50000100 	andpl	r0, r0, r0, lsl #2
     71c:	0000000c 	andeq	r0, r0, ip
     720:	00000014 	andeq	r0, r0, r4, lsl r0
     724:	01730003 	cmneq	r3, r3
     728:	0000149f 	muleq	r0, pc, r4	; <UNPREDICTABLE>
     72c:	00002000 	andeq	r2, r0, r0
     730:	53000100 	movwpl	r0, #256	; 0x100
	...
     73c:	0000002c 	andeq	r0, r0, ip, lsr #32
     740:	00000038 	andeq	r0, r0, r8, lsr r0
     744:	38500001 	ldmdacc	r0, {r0}^
     748:	48000000 	stmdami	r0, {}	; <UNPREDICTABLE>
     74c:	01000000 	mrseq	r0, (UNDEF: 0)
     750:	00485500 	subeq	r5, r8, r0, lsl #10
     754:	00580000 	subseq	r0, r8, r0
     758:	00010000 	andeq	r0, r1, r0
     75c:	00000050 	andeq	r0, r0, r0, asr r0
	...
     768:	00000b00 	andeq	r0, r0, r0, lsl #22
     76c:	50000100 	andpl	r0, r0, r0, lsl #2
     770:	0000000b 	andeq	r0, r0, fp
     774:	00000014 	andeq	r0, r0, r4, lsl r0
     778:	00540001 	subseq	r0, r4, r1
	...
     784:	10000000 	andne	r0, r0, r0
     788:	01000000 	mrseq	r0, (UNDEF: 0)
     78c:	00105000 	andseq	r5, r0, r0
     790:	00340000 	eorseq	r0, r4, r0
     794:	00010000 	andeq	r0, r1, r0
     798:	00000054 	andeq	r0, r0, r4, asr r0
	...
     7a4:	00000400 	andeq	r0, r0, r0, lsl #8
     7a8:	50000100 	andpl	r0, r0, r0, lsl #2
     7ac:	00000004 	andeq	r0, r0, r4
     7b0:	0000000c 	andeq	r0, r0, ip
     7b4:	30700003 	rsbscc	r0, r0, r3
     7b8:	00000c9f 	muleq	r0, pc, ip	; <UNPREDICTABLE>
     7bc:	00001400 	andeq	r1, r0, r0, lsl #8
     7c0:	f3000400 	vshl.u8	d0, d0, d0
     7c4:	009f5001 	addseq	r5, pc, r1
     7c8:	00000000 	andeq	r0, r0, r0
     7cc:	14000000 	strne	r0, [r0], #-0
     7d0:	20000000 	andcs	r0, r0, r0
     7d4:	01000000 	mrseq	r0, (UNDEF: 0)
     7d8:	00205000 	eoreq	r5, r0, r0
     7dc:	002c0000 	eoreq	r0, ip, r0
     7e0:	00030000 	andeq	r0, r3, r0
     7e4:	2c9f0170 	ldfcss	f0, [pc], {112}	; 0x70
     7e8:	40000000 	andmi	r0, r0, r0
     7ec:	01000000 	mrseq	r0, (UNDEF: 0)
     7f0:	00005000 	andeq	r5, r0, r0
     7f4:	00000000 	andeq	r0, r0, r0
     7f8:	00140000 	andseq	r0, r4, r0
     7fc:	00180000 	andseq	r0, r8, r0
     800:	00010000 	andeq	r0, r1, r0
     804:	00001851 	andeq	r1, r0, r1, asr r8
     808:	00004000 	andeq	r4, r0, r0
     80c:	f3000400 	vshl.u8	d0, d0, d0
     810:	009f5101 	addseq	r5, pc, r1, lsl #2
     814:	00000000 	andeq	r0, r0, r0
     818:	40000000 	andmi	r0, r0, r0
     81c:	60000000 	andvs	r0, r0, r0
     820:	01000000 	mrseq	r0, (UNDEF: 0)
     824:	00605000 	rsbeq	r5, r0, r0
     828:	006c0000 	rsbeq	r0, ip, r0
     82c:	00030000 	andeq	r0, r3, r0
     830:	6c9f0171 	ldfvss	f0, [pc], {113}	; 0x71
     834:	74000000 	strvc	r0, [r0], #-0
     838:	01000000 	mrseq	r0, (UNDEF: 0)
     83c:	00745100 	rsbseq	r5, r4, r0, lsl #2
     840:	00800000 	addeq	r0, r0, r0
     844:	00030000 	andeq	r0, r3, r0
     848:	009f0171 	addseq	r0, pc, r1, ror r1	; <UNPREDICTABLE>
     84c:	00000000 	andeq	r0, r0, r0
     850:	40000000 	andmi	r0, r0, r0
     854:	50000000 	andpl	r0, r0, r0
     858:	01000000 	mrseq	r0, (UNDEF: 0)
     85c:	00505100 	subseq	r5, r0, r0, lsl #2
     860:	00800000 	addeq	r0, r0, r0
     864:	00040000 	andeq	r0, r4, r0
     868:	9f5101f3 	svcls	0x005101f3
	...
     874:	00000040 	andeq	r0, r0, r0, asr #32
     878:	00000058 	andeq	r0, r0, r8, asr r0
     87c:	58520001 	ldmdapl	r2, {r0}^
     880:	64000000 	strvs	r0, [r0], #-0
     884:	01000000 	mrseq	r0, (UNDEF: 0)
     888:	00645200 	rsbeq	r5, r4, r0, lsl #4
     88c:	00680000 	rsbeq	r0, r8, r0
     890:	00030000 	andeq	r0, r3, r0
     894:	689f0172 	ldmvs	pc, {r1, r4, r5, r6, r8}	; <UNPREDICTABLE>
     898:	80000000 	andhi	r0, r0, r0
     89c:	01000000 	mrseq	r0, (UNDEF: 0)
     8a0:	00005200 	andeq	r5, r0, r0, lsl #4
     8a4:	00000000 	andeq	r0, r0, r0
     8a8:	00400000 	subeq	r0, r0, r0
     8ac:	00540000 	subseq	r0, r4, r0
     8b0:	00010000 	andeq	r0, r1, r0
     8b4:	00005453 	andeq	r5, r0, r3, asr r4
     8b8:	00007800 	andeq	r7, r0, r0, lsl #16
     8bc:	53000100 	movwpl	r0, #256	; 0x100
	...
     8c8:	00000048 	andeq	r0, r0, r8, asr #32
     8cc:	00000060 	andeq	r0, r0, r0, rrx
     8d0:	605c0001 	subsvs	r0, ip, r1
     8d4:	80000000 	andhi	r0, r0, r0
     8d8:	0a000000 	beq	8e0 <__code_start__-0x7720>
     8dc:	5201f300 	andpl	pc, r1, #0, 6
     8e0:	1c5301f3 	ldfnee	f0, [r3], {243}	; 0xf3
     8e4:	009f0123 	addseq	r0, pc, r3, lsr #2
     8e8:	00000000 	andeq	r0, r0, r0
     8ec:	80000000 	andhi	r0, r0, r0
     8f0:	a4000000 	strge	r0, [r0], #-0
     8f4:	01000000 	mrseq	r0, (UNDEF: 0)
     8f8:	00a45000 	adceq	r5, r4, r0
     8fc:	01180000 	tsteq	r8, r0
     900:	00030000 	andeq	r0, r3, r0
     904:	189f0270 	ldmne	pc, {r4, r5, r6, r9}	; <UNPREDICTABLE>
     908:	3c000001 	stccc	0, cr0, [r0], {1}
     90c:	04000002 	streq	r0, [r0], #-2
     910:	5001f300 	andpl	pc, r1, r0, lsl #6
     914:	0000009f 	muleq	r0, pc, r0	; <UNPREDICTABLE>
     918:	00000000 	andeq	r0, r0, r0
     91c:	00008000 	andeq	r8, r0, r0
     920:	0000f000 	andeq	pc, r0, r0
     924:	51000100 	mrspl	r0, (UNDEF: 16)
     928:	000000f0 	strdeq	r0, [r0], -r0	; <UNPREDICTABLE>
     92c:	00000160 	andeq	r0, r0, r0, ror #2
     930:	60550001 	subsvs	r0, r5, r1
     934:	6c000001 	stcvs	0, cr0, [r0], {1}
     938:	01000001 	tsteq	r0, r1
     93c:	016c5100 	cmneq	ip, r0, lsl #2
     940:	01a00000 	moveq	r0, r0
     944:	00010000 	andeq	r0, r1, r0
     948:	0001a055 	andeq	sl, r1, r5, asr r0
     94c:	0001b400 	andeq	fp, r1, r0, lsl #8
     950:	51000100 	mrspl	r0, (UNDEF: 16)
     954:	000001b4 			; <UNDEFINED> instruction: 0x000001b4
     958:	000001d4 	ldrdeq	r0, [r0], -r4
     95c:	d4550001 	ldrble	r0, [r5], #-1
     960:	d7000001 	strle	r0, [r0, -r1]
     964:	01000001 	tsteq	r0, r1
     968:	01d75100 	bicseq	r5, r7, r0, lsl #2
     96c:	021c0000 	andseq	r0, ip, #0
     970:	00010000 	andeq	r0, r1, r0
     974:	00021c55 	andeq	r1, r2, r5, asr ip
     978:	00023c00 	andeq	r3, r2, r0, lsl #24
     97c:	f3000400 	vshl.u8	d0, d0, d0
     980:	009f5101 	addseq	r5, pc, r1, lsl #2
     984:	00000000 	andeq	r0, r0, r0
     988:	80000000 	andhi	r0, r0, r0
     98c:	94000000 	strls	r0, [r0], #-0
     990:	01000000 	mrseq	r0, (UNDEF: 0)
     994:	00945200 	addseq	r5, r4, r0, lsl #4
     998:	021c0000 	andseq	r0, ip, #0
     99c:	00010000 	andeq	r0, r1, r0
     9a0:	00021c54 	andeq	r1, r2, r4, asr ip
     9a4:	00023c00 	andeq	r3, r2, r0, lsl #24
     9a8:	f3000400 	vshl.u8	d0, d0, d0
     9ac:	009f5201 	addseq	r5, pc, r1, lsl #4
     9b0:	00000000 	andeq	r0, r0, r0
     9b4:	80000000 	andhi	r0, r0, r0
     9b8:	00000000 	andeq	r0, r0, r0
     9bc:	01000001 	tsteq	r0, r1
     9c0:	01045300 	mrseq	r5, LR_abt
     9c4:	01080000 	mrseq	r0, (UNDEF: 8)
     9c8:	00010000 	andeq	r0, r1, r0
     9cc:	00016053 	andeq	r6, r1, r3, asr r0
     9d0:	00016400 	andeq	r6, r1, r0, lsl #8
     9d4:	53000100 	movwpl	r0, #256	; 0x100
     9d8:	00000164 	andeq	r0, r0, r4, ror #2
     9dc:	0000016c 	andeq	r0, r0, ip, ror #2
     9e0:	6c5c0001 	mrrcvs	0, 0, r0, ip, cr1
     9e4:	a0000001 	andge	r0, r0, r1
     9e8:	04000001 	streq	r0, [r0], #-1
     9ec:	5301f300 	movwpl	pc, #4864	; 0x1300	; <UNPREDICTABLE>
     9f0:	0001a09f 	muleq	r1, pc, r0	; <UNPREDICTABLE>
     9f4:	0001b000 	andeq	fp, r1, r0
     9f8:	53000100 	movwpl	r0, #256	; 0x100
     9fc:	000001b0 			; <UNDEFINED> instruction: 0x000001b0
     a00:	000001b4 			; <UNDEFINED> instruction: 0x000001b4
     a04:	b45c0001 	ldrblt	r0, [ip], #-1
     a08:	d4000001 	strle	r0, [r0], #-1
     a0c:	04000001 	streq	r0, [r0], #-1
     a10:	5301f300 	movwpl	pc, #4864	; 0x1300	; <UNPREDICTABLE>
     a14:	0001d49f 	muleq	r1, pc, r4	; <UNPREDICTABLE>
     a18:	0001d700 	andeq	sp, r1, r0, lsl #14
     a1c:	53000100 	movwpl	r0, #256	; 0x100
     a20:	000001d7 	ldrdeq	r0, [r0], -r7
     a24:	000001f8 	strdeq	r0, [r0], -r8
     a28:	01f30004 	mvnseq	r0, r4
     a2c:	00009f53 	andeq	r9, r0, r3, asr pc
     a30:	00000000 	andeq	r0, r0, r0
     a34:	00800000 	addeq	r0, r0, r0
     a38:	009c0000 	addseq	r0, ip, r0
     a3c:	00020000 	andeq	r0, r2, r0
     a40:	009c0091 	umullseq	r0, ip, r1, r0
     a44:	01d70000 	bicseq	r0, r7, r0
     a48:	00010000 	andeq	r0, r1, r0
     a4c:	0001f852 	andeq	pc, r1, r2, asr r8	; <UNPREDICTABLE>
     a50:	0001ff00 	andeq	pc, r1, r0, lsl #30
     a54:	52000100 	andpl	r0, r0, #0, 2
	...
     a60:	0000009c 	muleq	r0, ip, r0
     a64:	0000010c 	andeq	r0, r0, ip, lsl #2
     a68:	a0910004 	addsge	r0, r1, r4
     a6c:	010c9f7f 	tsteq	ip, pc, ror pc
     a70:	01180000 	tsteq	r8, r0
     a74:	00010000 	andeq	r0, r1, r0
     a78:	00011851 	andeq	r1, r1, r1, asr r8
     a7c:	00011c00 	andeq	r1, r1, r0, lsl #24
     a80:	50000100 	andpl	r0, r0, r0, lsl #2
     a84:	0000011c 	andeq	r0, r0, ip, lsl r1
     a88:	00000120 	andeq	r0, r0, r0, lsr #2
     a8c:	20510001 	subscs	r0, r1, r1
     a90:	60000001 	andvs	r0, r0, r1
     a94:	01000001 	tsteq	r0, r1
     a98:	01605000 	cmneq	r0, r0
     a9c:	01640000 	cmneq	r4, r0
     aa0:	00040000 	andeq	r0, r4, r0
     aa4:	9f7fa091 	svcls	0x007fa091
     aa8:	00000164 	andeq	r0, r0, r4, ror #2
     aac:	0000016c 	andeq	r0, r0, ip, ror #2
     ab0:	6c530001 	mrrcvs	0, 0, r0, r3, cr1
     ab4:	70000001 	andvc	r0, r0, r1
     ab8:	01000001 	tsteq	r0, r1
     abc:	01705000 	cmneq	r0, r0
     ac0:	01740000 	cmneq	r4, r0
     ac4:	00010000 	andeq	r0, r1, r0
     ac8:	00017453 	andeq	r7, r1, r3, asr r4
     acc:	00018800 	andeq	r8, r1, r0, lsl #16
     ad0:	50000100 	andpl	r0, r0, r0, lsl #2
     ad4:	00000188 	andeq	r0, r0, r8, lsl #3
     ad8:	00000194 	muleq	r0, r4, r1
     adc:	01700003 	cmneq	r0, r3
     ae0:	0001949f 	muleq	r1, pc, r4	; <UNPREDICTABLE>
     ae4:	0001a000 	andeq	sl, r1, r0
     ae8:	50000100 	andpl	r0, r0, r0, lsl #2
     aec:	000001a0 	andeq	r0, r0, r0, lsr #3
     af0:	000001a8 	andeq	r0, r0, r8, lsr #3
     af4:	a1910004 	orrsge	r0, r1, r4
     af8:	01a89f7f 			; <UNDEFINED> instruction: 0x01a89f7f
     afc:	01ac0000 			; <UNDEFINED> instruction: 0x01ac0000
     b00:	00010000 	andeq	r0, r1, r0
     b04:	0001ac50 	andeq	sl, r1, r0, asr ip
     b08:	0001b000 	andeq	fp, r1, r0
     b0c:	91000400 	tstls	r0, r0, lsl #8
     b10:	b09f7fa0 	addslt	r7, pc, r0, lsr #31
     b14:	b8000001 	stmdalt	r0, {r0}
     b18:	01000001 	tsteq	r0, r1
     b1c:	01b85300 			; <UNDEFINED> instruction: 0x01b85300
     b20:	01d40000 	bicseq	r0, r4, r0
     b24:	00010000 	andeq	r0, r1, r0
     b28:	0001d450 	andeq	sp, r1, r0, asr r4
     b2c:	0001f800 	andeq	pc, r1, r0, lsl #16
     b30:	91000400 	tstls	r0, r0, lsl #8
     b34:	f89f7fa0 			; <UNDEFINED> instruction: 0xf89f7fa0
     b38:	ff000001 			; <UNDEFINED> instruction: 0xff000001
     b3c:	01000001 	tsteq	r0, r1
     b40:	00005000 	andeq	r5, r0, r0
     b44:	00000000 	andeq	r0, r0, r0
     b48:	00a00000 	adceq	r0, r0, r0
     b4c:	00ec0000 	rsceq	r0, ip, r0
     b50:	00010000 	andeq	r0, r1, r0
     b54:	0000ec5c 	andeq	lr, r0, ip, asr ip
     b58:	00010000 	andeq	r0, r1, r0
     b5c:	53000100 	movwpl	r0, #256	; 0x100
     b60:	00000100 	andeq	r0, r0, r0, lsl #2
     b64:	00000104 	andeq	r0, r0, r4, lsl #2
     b68:	045c0001 	ldrbeq	r0, [ip], #-1
     b6c:	08000001 	stmdaeq	r0, {r0}
     b70:	01000001 	tsteq	r0, r1
     b74:	01085300 	mrseq	r5, (UNDEF: 56)
     b78:	01600000 	cmneq	r0, r0
     b7c:	00010000 	andeq	r0, r1, r0
     b80:	0001605c 	andeq	r6, r1, ip, asr r0
     b84:	00016400 	andeq	r6, r1, r0, lsl #8
     b88:	53000100 	movwpl	r0, #256	; 0x100
     b8c:	00000164 	andeq	r0, r0, r4, ror #2
     b90:	00000180 	andeq	r0, r0, r0, lsl #3
     b94:	805c0001 	subshi	r0, ip, r1
     b98:	84000001 	strhi	r0, [r0], #-1
     b9c:	05000001 	streq	r0, [r0, #-1]
     ba0:	34007c00 	strcc	r7, [r0], #-3072	; 0xc00
     ba4:	01849f25 	orreq	r9, r4, r5, lsr #30
     ba8:	01a00000 	moveq	r0, r0
     bac:	00010000 	andeq	r0, r1, r0
     bb0:	0001a05c 	andeq	sl, r1, ip, asr r0
     bb4:	0001b000 	andeq	fp, r1, r0
     bb8:	53000100 	movwpl	r0, #256	; 0x100
     bbc:	000001b0 			; <UNDEFINED> instruction: 0x000001b0
     bc0:	000001c4 	andeq	r0, r0, r4, asr #3
     bc4:	c45c0001 	ldrbgt	r0, [ip], #-1
     bc8:	cc000001 	stcgt	0, cr0, [r0], {1}
     bcc:	05000001 	streq	r0, [r0, #-1]
     bd0:	31007c00 	tstcc	r0, r0, lsl #24
     bd4:	01cc9f25 	biceq	r9, ip, r5, lsr #30
     bd8:	01d40000 	bicseq	r0, r4, r0
     bdc:	00010000 	andeq	r0, r1, r0
     be0:	0001d45c 	andeq	sp, r1, ip, asr r4
     be4:	0001d700 	andeq	sp, r1, r0, lsl #14
     be8:	53000100 	movwpl	r0, #256	; 0x100
     bec:	000001d7 	ldrdeq	r0, [r0], -r7
     bf0:	000001f8 	strdeq	r0, [r0], -r8
     bf4:	01f30004 	mvnseq	r0, r4
     bf8:	01f89f53 	mvnseq	r9, r3, asr pc
     bfc:	01ff0000 	mvnseq	r0, r0
     c00:	00010000 	andeq	r0, r1, r0
     c04:	0000005c 	andeq	r0, r0, ip, asr r0
     c08:	00000000 	andeq	r0, r0, r0
     c0c:	0000ec00 	andeq	lr, r0, r0, lsl #24
     c10:	0000fc00 	andeq	pc, r0, r0, lsl #24
     c14:	30000200 	andcc	r0, r0, r0, lsl #4
     c18:	0000fc9f 	muleq	r0, pc, ip	; <UNPREDICTABLE>
     c1c:	00010400 	andeq	r0, r1, r0, lsl #8
     c20:	31000200 	mrscc	r0, R8_usr
     c24:	0001049f 	muleq	r1, pc, r4	; <UNPREDICTABLE>
     c28:	00010800 	andeq	r0, r1, r0, lsl #16
     c2c:	30000200 	andcc	r0, r0, r0, lsl #4
     c30:	0000009f 	muleq	r0, pc, r0	; <UNPREDICTABLE>
     c34:	00000000 	andeq	r0, r0, r0
     c38:	00023c00 	andeq	r3, r2, r0, lsl #24
     c3c:	00024f00 	andeq	r4, r2, r0, lsl #30
     c40:	50000100 	andpl	r0, r0, r0, lsl #2
     c44:	0000024f 	andeq	r0, r0, pc, asr #4
     c48:	00000270 	andeq	r0, r0, r0, ror r2
     c4c:	01f30004 	mvnseq	r0, r4
     c50:	02709f50 	rsbseq	r9, r0, #80, 30	; 0x140
     c54:	02a40000 	adceq	r0, r4, #0
     c58:	00010000 	andeq	r0, r1, r0
     c5c:	00000050 	andeq	r0, r0, r0, asr r0
     c60:	00000000 	andeq	r0, r0, r0
     c64:	00023c00 	andeq	r3, r2, r0, lsl #24
     c68:	00024f00 	andeq	r4, r2, r0, lsl #30
     c6c:	51000100 	mrspl	r0, (UNDEF: 16)
     c70:	0000024f 	andeq	r0, r0, pc, asr #4
     c74:	00000270 	andeq	r0, r0, r0, ror r2
     c78:	01f30004 	mvnseq	r0, r4
     c7c:	02709f51 	rsbseq	r9, r0, #324	; 0x144
     c80:	02a40000 	adceq	r0, r4, #0
     c84:	00010000 	andeq	r0, r1, r0
     c88:	00000051 	andeq	r0, r0, r1, asr r0
     c8c:	00000000 	andeq	r0, r0, r0
     c90:	0002a400 	andeq	sl, r2, r0, lsl #8
     c94:	0002d400 	andeq	sp, r2, r0, lsl #8
     c98:	50000100 	andpl	r0, r0, r0, lsl #2
     c9c:	000002d4 	ldrdeq	r0, [r0], -r4
     ca0:	00000558 	andeq	r0, r0, r8, asr r5
     ca4:	585b0001 	ldmdapl	fp, {r0}^
     ca8:	78000005 	stmdavc	r0, {r0, r2}
     cac:	04000005 	streq	r0, [r0], #-5
     cb0:	5001f300 	andpl	pc, r1, r0, lsl #6
     cb4:	0000009f 	muleq	r0, pc, r0	; <UNPREDICTABLE>
     cb8:	00000000 	andeq	r0, r0, r0
     cbc:	0002a400 	andeq	sl, r2, r0, lsl #8
     cc0:	0002bc00 	andeq	fp, r2, r0, lsl #24
     cc4:	51000100 	mrspl	r0, (UNDEF: 16)
     cc8:	000002bc 			; <UNDEFINED> instruction: 0x000002bc
     ccc:	000002d4 	ldrdeq	r0, [r0], -r4
     cd0:	01710003 	cmneq	r1, r3
     cd4:	0002d49f 	muleq	r2, pc, r4	; <UNPREDICTABLE>
     cd8:	00057800 	andeq	r7, r5, r0, lsl #16
     cdc:	f3000400 	vshl.u8	d0, d0, d0
     ce0:	009f5101 	addseq	r5, pc, r1, lsl #2
     ce4:	00000000 	andeq	r0, r0, r0
     ce8:	a4000000 	strge	r0, [r0], #-0
     cec:	d4000002 	strle	r0, [r0], #-2
     cf0:	01000002 	tsteq	r0, r2
     cf4:	02d45200 	sbcseq	r5, r4, #0, 4
     cf8:	05580000 	ldrbeq	r0, [r8, #-0]
     cfc:	00010000 	andeq	r0, r1, r0
     d00:	00000056 	andeq	r0, r0, r6, asr r0
     d04:	00000000 	andeq	r0, r0, r0
     d08:	0002a400 	andeq	sl, r2, r0, lsl #8
     d0c:	0002c400 	andeq	ip, r2, r0, lsl #8
     d10:	53000100 	movwpl	r0, #256	; 0x100
	...
     d1c:	000002b8 			; <UNDEFINED> instruction: 0x000002b8
     d20:	000002d4 	ldrdeq	r0, [r0], -r4
     d24:	d4500001 	ldrble	r0, [r0], #-1
     d28:	d8000002 	stmdale	r0, {r1}
     d2c:	01000002 	tsteq	r0, r2
     d30:	02d85400 	sbcseq	r5, r8, #0, 8
     d34:	02e40000 	rsceq	r0, r4, #0
     d38:	00030000 	andeq	r0, r3, r0
     d3c:	e49f0174 	ldr	r0, [pc], #372	; d44 <__code_start__-0x72bc>
     d40:	f0000002 			; <UNDEFINED> instruction: 0xf0000002
     d44:	01000002 	tsteq	r0, r2
     d48:	02f05400 	rscseq	r5, r0, #0, 8
     d4c:	02fc0000 	rscseq	r0, ip, #0
     d50:	00030000 	andeq	r0, r3, r0
     d54:	fc9f0174 	ldc2	1, cr0, [pc], {116}	; 0x74
     d58:	0c000002 	stceq	0, cr0, [r0], {2}
     d5c:	01000005 	tsteq	r0, r5
     d60:	050c5400 	streq	r5, [ip, #-1024]	; 0x400
     d64:	05180000 	ldreq	r0, [r8, #-0]
     d68:	00030000 	andeq	r0, r3, r0
     d6c:	189f0174 	ldmne	pc, {r2, r4, r5, r6, r8}	; <UNPREDICTABLE>
     d70:	44000005 	strmi	r0, [r0], #-5
     d74:	01000005 	tsteq	r0, r5
     d78:	05445400 	strbeq	r5, [r4, #-1024]	; 0x400
     d7c:	05500000 	ldrbeq	r0, [r0, #-0]
     d80:	00010000 	andeq	r0, r1, r0
     d84:	00055050 	andeq	r5, r5, r0, asr r0
     d88:	00055800 	andeq	r5, r5, r0, lsl #16
     d8c:	74000300 	strvc	r0, [r0], #-768	; 0x300
     d90:	00009f01 	andeq	r9, r0, r1, lsl #30
     d94:	00000000 	andeq	r0, r0, r0
     d98:	02c00000 	sbceq	r0, r0, #0
     d9c:	05580000 	ldrbeq	r0, [r8, #-0]
     da0:	00010000 	andeq	r0, r1, r0
     da4:	00055858 	andeq	r5, r5, r8, asr r8
     da8:	00057800 	andeq	r7, r5, r0, lsl #16
     dac:	f3000a00 	vpmax.u8	d0, d0, d0
     db0:	01f35101 	mvnseq	r5, r1, lsl #2
     db4:	1c312250 	lfmne	f2, 4, [r1], #-320	; 0xfffffec0
     db8:	0000009f 	muleq	r0, pc, r0	; <UNPREDICTABLE>
     dbc:	00000000 	andeq	r0, r0, r0
     dc0:	0002c800 	andeq	ip, r2, r0, lsl #16
     dc4:	0002d400 	andeq	sp, r2, r0, lsl #8
     dc8:	52000100 	andpl	r0, r0, #0, 2
     dcc:	000002d4 	ldrdeq	r0, [r0], -r4
     dd0:	00000578 	andeq	r0, r0, r8, ror r5
     dd4:	cc910003 	ldcgt	0, cr0, [r1], {3}
     dd8:	0000007e 	andeq	r0, r0, lr, ror r0
     ddc:	00000000 	andeq	r0, r0, r0
     de0:	00041000 	andeq	r1, r4, r0
     de4:	00041400 	andeq	r1, r4, r0, lsl #8
     de8:	50000100 	andpl	r0, r0, r0, lsl #2
     dec:	00000438 	andeq	r0, r0, r8, lsr r4
     df0:	0000043c 	andeq	r0, r0, ip, lsr r4
     df4:	60500001 	subsvs	r0, r0, r1
     df8:	64000004 	strvs	r0, [r0], #-4
     dfc:	01000004 	tsteq	r0, r4
     e00:	04885000 	streq	r5, [r8], #0
     e04:	048c0000 	streq	r0, [ip], #0
     e08:	00010000 	andeq	r0, r1, r0
     e0c:	00049450 	andeq	r9, r4, r0, asr r4
     e10:	00049800 	andeq	r9, r4, r0, lsl #16
     e14:	50000100 	andpl	r0, r0, r0, lsl #2
     e18:	000004bc 			; <UNDEFINED> instruction: 0x000004bc
     e1c:	000004c0 	andeq	r0, r0, r0, asr #9
     e20:	04500001 	ldrbeq	r0, [r0], #-1
     e24:	2c000005 	stccs	0, cr0, [r0], {5}
     e28:	01000005 	tsteq	r0, r5
     e2c:	00005000 	andeq	r5, r0, r0
     e30:	00000000 	andeq	r0, r0, r0
     e34:	03040000 	movweq	r0, #16384	; 0x4000
     e38:	030c0000 	movweq	r0, #49152	; 0xc000
     e3c:	00020000 	andeq	r0, r2, r0
     e40:	030c9f30 	movweq	r9, #53040	; 0xcf30
     e44:	03100000 	tsteq	r0, #0
     e48:	00010000 	andeq	r0, r1, r0
     e4c:	00031c57 	andeq	r1, r3, r7, asr ip
     e50:	00052c00 	andeq	r2, r5, r0, lsl #24
     e54:	57000100 	strpl	r0, [r0, -r0, lsl #2]
	...
     e60:	00000004 	andeq	r0, r0, r4
     e64:	00000008 	andeq	r0, r0, r8
     e68:	00730007 	rsbseq	r0, r3, r7
     e6c:	2110000a 	tstcs	r0, sl
     e70:	0000089f 	muleq	r0, pc, r8	; <UNPREDICTABLE>
     e74:	00001000 	andeq	r1, r0, r0
     e78:	53000100 	movwpl	r0, #256	; 0x100
	...
     e84:	00000014 	andeq	r0, r0, r4, lsl r0
     e88:	00000018 	andeq	r0, r0, r8, lsl r0
     e8c:	00730007 	rsbseq	r0, r3, r7
     e90:	1aefff0b 	bne	ffc00ac4 <__bss_end__+0xffbf4044>
     e94:	0000189f 	muleq	r0, pc, r8	; <UNPREDICTABLE>
     e98:	00002000 	andeq	r2, r0, r0
     e9c:	53000100 	movwpl	r0, #256	; 0x100
	...
     ea8:	00000014 	andeq	r0, r0, r4, lsl r0
     eac:	0000001c 	andeq	r0, r0, ip, lsl r0
     eb0:	04730003 	ldrbteq	r0, [r3], #-3
     eb4:	00001c9f 	muleq	r0, pc, ip	; <UNPREDICTABLE>
     eb8:	00002700 	andeq	r2, r0, r0, lsl #14
     ebc:	53000100 	movwpl	r0, #256	; 0x100
	...
     ecc:	0000000f 	andeq	r0, r0, pc
     ed0:	0f500001 	svceq	0x00500001
     ed4:	44000000 	strmi	r0, [r0], #-0
     ed8:	01000000 	mrseq	r0, (UNDEF: 0)
     edc:	00005400 	andeq	r5, r0, r0, lsl #8
	...
     ee8:	000f0000 	andeq	r0, pc, r0
     eec:	00010000 	andeq	r0, r1, r0
     ef0:	00000f50 	andeq	r0, r0, r0, asr pc
     ef4:	00004400 	andeq	r4, r0, r0, lsl #8
     ef8:	54000100 	strpl	r0, [r0], #-256	; 0x100
	...
     f08:	0000000f 	andeq	r0, r0, pc
     f0c:	0f500001 	svceq	0x00500001
     f10:	44000000 	strmi	r0, [r0], #-0
     f14:	01000000 	mrseq	r0, (UNDEF: 0)
     f18:	00005400 	andeq	r5, r0, r0, lsl #8
     f1c:	00000000 	andeq	r0, r0, r0
     f20:	00340000 	eorseq	r0, r4, r0
     f24:	00400000 	subeq	r0, r0, r0
     f28:	00020000 	andeq	r0, r2, r0
     f2c:	00409f30 	subeq	r9, r0, r0, lsr pc
     f30:	006c0000 	rsbeq	r0, ip, r0
     f34:	00010000 	andeq	r0, r1, r0
     f38:	00000053 	andeq	r0, r0, r3, asr r0
     f3c:	00000000 	andeq	r0, r0, r0
     f40:	00995c00 	addseq	r5, r9, r0, lsl #24
     f44:	00996000 	addseq	r6, r9, r0
     f48:	30000200 	andcc	r0, r0, r0, lsl #4
     f4c:	0099609f 	umullseq	r6, r9, pc, r0	; <UNPREDICTABLE>
     f50:	00996400 	addseq	r6, r9, r0, lsl #8
     f54:	50000100 	andpl	r0, r0, r0, lsl #2
	...
     f60:	00009974 	andeq	r9, r0, r4, ror r9
     f64:	00009978 	andeq	r9, r0, r8, ror r9
     f68:	9f300002 	svcls	0x00300002
     f6c:	00009978 	andeq	r9, r0, r8, ror r9
     f70:	0000997c 	andeq	r9, r0, ip, ror r9
     f74:	80530001 	subshi	r0, r3, r1
     f78:	88000099 	stmdahi	r0, {r0, r3, r4, r7}
     f7c:	01000099 	swpeq	r0, r9, [r0]	; <UNPREDICTABLE>
     f80:	00005300 	andeq	r5, r0, r0, lsl #6
	...
     f8c:	00040000 	andeq	r0, r4, r0
     f90:	00010000 	andeq	r0, r1, r0
     f94:	00000450 	andeq	r0, r0, r0, asr r4
     f98:	00000c00 	andeq	r0, r0, r0, lsl #24
     f9c:	53000100 	movwpl	r0, #256	; 0x100
     fa0:	0000000c 	andeq	r0, r0, ip
     fa4:	00000010 	andeq	r0, r0, r0, lsl r0
     fa8:	10500001 	subsne	r0, r0, r1
     fac:	1c000000 	stcne	0, cr0, [r0], {-0}
     fb0:	01000000 	mrseq	r0, (UNDEF: 0)
     fb4:	00005300 	andeq	r5, r0, r0, lsl #6
     fb8:	00000000 	andeq	r0, r0, r0
     fbc:	00400000 	subeq	r0, r0, r0
     fc0:	00430000 	subeq	r0, r3, r0
     fc4:	00010000 	andeq	r0, r1, r0
     fc8:	00004350 	andeq	r4, r0, r0, asr r3
     fcc:	00004c00 	andeq	r4, r0, r0, lsl #24
     fd0:	54000100 	strpl	r0, [r0], #-256	; 0x100
	...
     fdc:	0000004c 	andeq	r0, r0, ip, asr #32
     fe0:	00000057 	andeq	r0, r0, r7, asr r0
     fe4:	57500001 	ldrbpl	r0, [r0, -r1]
     fe8:	70000000 	andvc	r0, r0, r0
     fec:	01000000 	mrseq	r0, (UNDEF: 0)
     ff0:	00005500 	andeq	r5, r0, r0, lsl #10
     ff4:	00000000 	andeq	r0, r0, r0
     ff8:	00600000 	rsbeq	r0, r0, r0
     ffc:	00640000 	rsbeq	r0, r4, r0
    1000:	00010000 	andeq	r0, r1, r0
    1004:	00000050 	andeq	r0, r0, r0, asr r0
    1008:	00000000 	andeq	r0, r0, r0
    100c:	00007000 	andeq	r7, r0, r0
    1010:	00007c00 	andeq	r7, r0, r0, lsl #24
    1014:	50000100 	andpl	r0, r0, r0, lsl #2
    1018:	0000007c 	andeq	r0, r0, ip, ror r0
    101c:	00000084 	andeq	r0, r0, r4, lsl #1
    1020:	01f30004 	mvnseq	r0, r4
    1024:	00009f50 	andeq	r9, r0, r0, asr pc
    1028:	00000000 	andeq	r0, r0, r0
    102c:	00840000 	addeq	r0, r4, r0
    1030:	00900000 	addseq	r0, r0, r0
    1034:	00010000 	andeq	r0, r1, r0
    1038:	00009050 	andeq	r9, r0, r0, asr r0
    103c:	00009800 	andeq	r9, r0, r0, lsl #16
    1040:	f3000400 	vshl.u8	d0, d0, d0
    1044:	009f5001 	addseq	r5, pc, r1
    1048:	00000000 	andeq	r0, r0, r0
    104c:	38000000 	stmdacc	r0, {}	; <UNPREDICTABLE>
    1050:	43000001 	movwmi	r0, #1
    1054:	01000001 	tsteq	r0, r1
    1058:	01435000 	mrseq	r5, (UNDEF: 67)
    105c:	01680000 	cmneq	r8, r0
    1060:	00010000 	andeq	r0, r1, r0
    1064:	00000054 	andeq	r0, r0, r4, asr r0
	...
    1070:	00000f00 	andeq	r0, r0, r0, lsl #30
    1074:	50000100 	andpl	r0, r0, r0, lsl #2
    1078:	0000000f 	andeq	r0, r0, pc
    107c:	00000020 	andeq	r0, r0, r0, lsr #32
    1080:	00540001 	subseq	r0, r4, r1
	...
    108c:	0f000000 	svceq	0x00000000
    1090:	01000000 	mrseq	r0, (UNDEF: 0)
    1094:	000f5100 	andeq	r5, pc, r0, lsl #2
    1098:	00200000 	eoreq	r0, r0, r0
    109c:	00010000 	andeq	r0, r1, r0
    10a0:	00000055 	andeq	r0, r0, r5, asr r0
    10a4:	00000000 	andeq	r0, r0, r0
    10a8:	0000ec00 	andeq	lr, r0, r0, lsl #24
    10ac:	00010400 	andeq	r0, r1, r0, lsl #8
    10b0:	50000100 	andpl	r0, r0, r0, lsl #2
    10b4:	00000104 	andeq	r0, r0, r4, lsl #2
    10b8:	00000114 	andeq	r0, r0, r4, lsl r1
    10bc:	01f30004 	mvnseq	r0, r4
    10c0:	01149f50 	tsteq	r4, r0, asr pc
    10c4:	01180000 	tsteq	r8, r0
    10c8:	00010000 	andeq	r0, r1, r0
    10cc:	00011850 	andeq	r1, r1, r0, asr r8
    10d0:	00012000 	andeq	r2, r1, r0
    10d4:	f3000400 	vshl.u8	d0, d0, d0
    10d8:	009f5001 	addseq	r5, pc, r1
    10dc:	00000000 	andeq	r0, r0, r0
    10e0:	f8000000 			; <UNDEFINED> instruction: 0xf8000000
    10e4:	04000000 	streq	r0, [r0], #-0
    10e8:	0b000001 	bleq	10f4 <__code_start__-0x6f0c>
    10ec:	35007000 	strcc	r7, [r0, #-0]
    10f0:	80b42325 	adcshi	r2, r4, r5, lsr #6
    10f4:	9f028180 	svcls	0x00028180
    10f8:	00000104 	andeq	r0, r0, r4, lsl #2
    10fc:	00000107 	andeq	r0, r0, r7, lsl #2
    1100:	07500001 	ldrbeq	r0, [r0, -r1]
    1104:	14000001 	strne	r0, [r0], #-1
    1108:	0c000001 	stceq	0, cr0, [r0], {1}
    110c:	5001f300 	andpl	pc, r1, r0, lsl #6
    1110:	b4232535 	strtlt	r2, [r3], #-1333	; 0x535
    1114:	02818080 	addeq	r8, r1, #128	; 0x80
    1118:	0000009f 	muleq	r0, pc, r0	; <UNPREDICTABLE>
    111c:	00000000 	andeq	r0, r0, r0
    1120:	0000fc00 	andeq	pc, r0, r0, lsl #24
    1124:	00011400 	andeq	r1, r1, r0, lsl #8
    1128:	54000100 	strpl	r0, [r0], #-256	; 0x100
	...
    1134:	000000d0 	ldrdeq	r0, [r0], -r0	; <UNPREDICTABLE>
    1138:	000000df 	ldrdeq	r0, [r0], -pc	; <UNPREDICTABLE>
    113c:	df500001 	svcle	0x00500001
    1140:	e4000000 	str	r0, [r0], #-0
    1144:	04000000 	streq	r0, [r0], #-0
    1148:	5001f300 	andpl	pc, r1, r0, lsl #6
    114c:	0000e49f 	muleq	r0, pc, r4	; <UNPREDICTABLE>
    1150:	0000e700 	andeq	lr, r0, r0, lsl #14
    1154:	50000100 	andpl	r0, r0, r0, lsl #2
    1158:	000000e7 	andeq	r0, r0, r7, ror #1
    115c:	000000ec 	andeq	r0, r0, ip, ror #1
    1160:	01f30004 	mvnseq	r0, r4
    1164:	00009f50 	andeq	r9, r0, r0, asr pc
    1168:	00000000 	andeq	r0, r0, r0
    116c:	00d00000 	sbcseq	r0, r0, r0
    1170:	00df0000 	sbcseq	r0, pc, r0
    1174:	00010000 	andeq	r0, r1, r0
    1178:	0000df51 	andeq	sp, r0, r1, asr pc
    117c:	0000e400 	andeq	lr, r0, r0, lsl #8
    1180:	f3000400 	vshl.u8	d0, d0, d0
    1184:	e49f5101 	ldr	r5, [pc], #257	; 118c <__code_start__-0x6e74>
    1188:	e7000000 	str	r0, [r0, -r0]
    118c:	01000000 	mrseq	r0, (UNDEF: 0)
    1190:	00e75100 	rsceq	r5, r7, r0, lsl #2
    1194:	00ec0000 	rsceq	r0, ip, r0
    1198:	00040000 	andeq	r0, r4, r0
    119c:	9f5101f3 	svcls	0x005101f3
	...
    11a8:	000000c0 	andeq	r0, r0, r0, asr #1
    11ac:	000000cb 	andeq	r0, r0, fp, asr #1
    11b0:	cb500001 	blgt	14011bc <__bss_end__+0x13f473c>
    11b4:	d0000000 	andle	r0, r0, r0
    11b8:	04000000 	streq	r0, [r0], #-0
    11bc:	5001f300 	andpl	pc, r1, r0, lsl #6
    11c0:	0000009f 	muleq	r0, pc, r0	; <UNPREDICTABLE>
    11c4:	00000000 	andeq	r0, r0, r0
    11c8:	00009c00 	andeq	r9, r0, r0, lsl #24
    11cc:	0000b400 	andeq	fp, r0, r0, lsl #8
    11d0:	50000100 	andpl	r0, r0, r0, lsl #2
    11d4:	000000b4 	strheq	r0, [r0], -r4
    11d8:	000000c0 	andeq	r0, r0, r0, asr #1
    11dc:	01f30004 	mvnseq	r0, r4
    11e0:	00009f50 	andeq	r9, r0, r0, asr pc
    11e4:	00000000 	andeq	r0, r0, r0
    11e8:	00780000 	rsbseq	r0, r8, r0
    11ec:	00900000 	addseq	r0, r0, r0
    11f0:	00010000 	andeq	r0, r1, r0
    11f4:	00009050 	andeq	r9, r0, r0, asr r0
    11f8:	00009c00 	andeq	r9, r0, r0, lsl #24
    11fc:	f3000400 	vshl.u8	d0, d0, d0
    1200:	009f5001 	addseq	r5, pc, r1
    1204:	00000000 	andeq	r0, r0, r0
    1208:	68000000 	stmdavs	r0, {}	; <UNPREDICTABLE>
    120c:	73000000 	movwvc	r0, #0
    1210:	01000000 	mrseq	r0, (UNDEF: 0)
    1214:	00735000 	rsbseq	r5, r3, r0
    1218:	00780000 	rsbseq	r0, r8, r0
    121c:	00040000 	andeq	r0, r4, r0
    1220:	9f5001f3 	svcls	0x005001f3
	...
    1230:	00000048 	andeq	r0, r0, r8, asr #32
    1234:	48500001 	ldmdami	r0, {r0}^
    1238:	68000000 	stmdavs	r0, {}	; <UNPREDICTABLE>
    123c:	04000000 	streq	r0, [r0], #-0
    1240:	5001f300 	andpl	pc, r1, r0, lsl #6
    1244:	0000009f 	muleq	r0, pc, r0	; <UNPREDICTABLE>
	...
    1250:	00004b00 	andeq	r4, r0, r0, lsl #22
    1254:	51000100 	mrspl	r0, (UNDEF: 16)
    1258:	0000004b 	andeq	r0, r0, fp, asr #32
    125c:	00000068 	andeq	r0, r0, r8, rrx
    1260:	01f30004 	mvnseq	r0, r4
    1264:	00009f51 	andeq	r9, r0, r1, asr pc
    1268:	00000000 	andeq	r0, r0, r0
    126c:	004c0000 	subeq	r0, ip, r0
    1270:	00540000 	subseq	r0, r4, r0
    1274:	00010000 	andeq	r0, r1, r0
    1278:	00005450 	andeq	r5, r0, r0, asr r4
    127c:	00005800 	andeq	r5, r0, r0, lsl #16
    1280:	75000900 	strvc	r0, [r0, #-2304]	; 0x900
    1284:	24007400 	strcs	r7, [r0], #-1024	; 0x400
    1288:	9f210071 	svcls	0x00210071
    128c:	00000058 	andeq	r0, r0, r8, asr r0
    1290:	0000005f 	andeq	r0, r0, pc, asr r0
    1294:	00510001 	subseq	r0, r1, r1
    1298:	00000000 	andeq	r0, r0, r0
    129c:	Address 0x000000000000129c is out of bounds.


Disassembly of section .debug_aranges:

00000000 <.debug_aranges>:
   0:	0000001c 	andeq	r0, r0, ip, lsl r0
   4:	00000002 	andeq	r0, r0, r2
   8:	00040000 	andeq	r0, r4, r0
   c:	00000000 	andeq	r0, r0, r0
  10:	00008020 	andeq	r8, r0, r0, lsr #32
  14:	00000518 	andeq	r0, r0, r8, lsl r5
	...
  20:	0000001c 	andeq	r0, r0, ip, lsl r0
  24:	09c00002 	stmibeq	r0, {r1}^
  28:	00040000 	andeq	r0, r4, r0
  2c:	00000000 	andeq	r0, r0, r0
  30:	00008538 	andeq	r8, r0, r8, lsr r5
  34:	00000368 	andeq	r0, r0, r8, ror #6
	...
  40:	0000001c 	andeq	r0, r0, ip, lsl r0
  44:	159b0002 	ldrne	r0, [fp, #2]
  48:	00040000 	andeq	r0, r4, r0
  4c:	00000000 	andeq	r0, r0, r0
  50:	000089c8 	andeq	r8, r0, r8, asr #19
  54:	00000770 	andeq	r0, r0, r0, ror r7
	...
  60:	0000001c 	andeq	r0, r0, ip, lsl r0
  64:	249e0002 	ldrcs	r0, [lr], #2
  68:	00040000 	andeq	r0, r4, r0
  6c:	00000000 	andeq	r0, r0, r0
  70:	00009138 	andeq	r9, r0, r8, lsr r1
  74:	00000020 	andeq	r0, r0, r0, lsr #32
	...
  80:	0000001c 	andeq	r0, r0, ip, lsl r0
  84:	257d0002 	ldrbcs	r0, [sp, #-2]!
  88:	00040000 	andeq	r0, r4, r0
  8c:	00000000 	andeq	r0, r0, r0
  90:	00009158 	andeq	r9, r0, r8, asr r1
  94:	00000058 	andeq	r0, r0, r8, asr r0
	...
  a0:	0000001c 	andeq	r0, r0, ip, lsl r0
  a4:	27120002 	ldrcs	r0, [r2, -r2]
  a8:	00040000 	andeq	r0, r4, r0
  ac:	00000000 	andeq	r0, r0, r0
  b0:	000091b0 			; <UNDEFINED> instruction: 0x000091b0
  b4:	0000003c 	andeq	r0, r0, ip, lsr r0
	...
  c0:	0000001c 	andeq	r0, r0, ip, lsl r0
  c4:	28290002 	stmdacs	r9!, {r1}
  c8:	00040000 	andeq	r0, r4, r0
  cc:	00000000 	andeq	r0, r0, r0
  d0:	000091ec 	andeq	r9, r0, ip, ror #3
  d4:	00000034 	andeq	r0, r0, r4, lsr r0
	...
  e0:	0000001c 	andeq	r0, r0, ip, lsl r0
  e4:	291b0002 	ldmdbcs	fp, {r1}
  e8:	00040000 	andeq	r0, r4, r0
  ec:	00000000 	andeq	r0, r0, r0
  f0:	00009220 	andeq	r9, r0, r0, lsr #4
  f4:	00000578 	andeq	r0, r0, r8, ror r5
	...
 100:	0000001c 	andeq	r0, r0, ip, lsl r0
 104:	30040002 	andcc	r0, r4, r2
 108:	00040000 	andeq	r0, r4, r0
 10c:	00000000 	andeq	r0, r0, r0
 110:	00009798 	muleq	r0, r8, r7
 114:	00000020 	andeq	r0, r0, r0, lsr #32
	...
 120:	0000001c 	andeq	r0, r0, ip, lsl r0
 124:	30c00002 	sbccc	r0, r0, r2
 128:	00040000 	andeq	r0, r4, r0
 12c:	00000000 	andeq	r0, r0, r0
 130:	000097b8 			; <UNDEFINED> instruction: 0x000097b8
 134:	0000002c 	andeq	r0, r0, ip, lsr #32
	...
 140:	0000001c 	andeq	r0, r0, ip, lsl r0
 144:	31d30002 	bicscc	r0, r3, r2
 148:	00040000 	andeq	r0, r4, r0
 14c:	00000000 	andeq	r0, r0, r0
 150:	000097e4 	andeq	r9, r0, r4, ror #15
 154:	00000038 	andeq	r0, r0, r8, lsr r0
	...
 160:	0000001c 	andeq	r0, r0, ip, lsl r0
 164:	32e60002 	rsccc	r0, r6, #2
 168:	00040000 	andeq	r0, r4, r0
 16c:	00000000 	andeq	r0, r0, r0
 170:	0000981c 	andeq	r9, r0, ip, lsl r8
 174:	00000044 	andeq	r0, r0, r4, asr #32
	...
 180:	0000001c 	andeq	r0, r0, ip, lsl r0
 184:	34280002 	strtcc	r0, [r8], #-2
 188:	00040000 	andeq	r0, r4, r0
 18c:	00000000 	andeq	r0, r0, r0
 190:	00009860 	andeq	r9, r0, r0, ror #16
 194:	00000044 	andeq	r0, r0, r4, asr #32
	...
 1a0:	0000001c 	andeq	r0, r0, ip, lsl r0
 1a4:	356a0002 	strbcc	r0, [sl, #-2]!
 1a8:	00040000 	andeq	r0, r4, r0
 1ac:	00000000 	andeq	r0, r0, r0
 1b0:	000098a4 	andeq	r9, r0, r4, lsr #17
 1b4:	00000044 	andeq	r0, r0, r4, asr #32
	...
 1c0:	0000001c 	andeq	r0, r0, ip, lsl r0
 1c4:	36ac0002 	strtcc	r0, [ip], r2
 1c8:	00040000 	andeq	r0, r4, r0
 1cc:	00000000 	andeq	r0, r0, r0
 1d0:	000098e8 	andeq	r9, r0, r8, ror #17
 1d4:	00000008 	andeq	r0, r0, r8
	...
 1e0:	0000001c 	andeq	r0, r0, ip, lsl r0
 1e4:	37480002 	strbcc	r0, [r8, -r2]
 1e8:	00040000 	andeq	r0, r4, r0
 1ec:	00000000 	andeq	r0, r0, r0
 1f0:	000098f0 	strdeq	r9, [r0], -r0
 1f4:	0000006c 	andeq	r0, r0, ip, rrx
	...
 200:	0000001c 	andeq	r0, r0, ip, lsl r0
 204:	39230002 	stmdbcc	r3!, {r1}
 208:	00040000 	andeq	r0, r4, r0
 20c:	00000000 	andeq	r0, r0, r0
 210:	0000995c 	andeq	r9, r0, ip, asr r9
 214:	00000074 	andeq	r0, r0, r4, ror r0
	...
 220:	0000001c 	andeq	r0, r0, ip, lsl r0
 224:	3ad40002 	bcc	ff500234 <__bss_end__+0xff4f37b4>
 228:	00040000 	andeq	r0, r4, r0
 22c:	00000000 	andeq	r0, r0, r0
 230:	000099d0 	ldrdeq	r9, [r0], -r0
 234:	00000098 	muleq	r0, r8, r0
	...
 240:	0000001c 	andeq	r0, r0, ip, lsl r0
 244:	3ccf0002 	stclcc	0, cr0, [pc], {2}
 248:	00040000 	andeq	r0, r4, r0
 24c:	00000000 	andeq	r0, r0, r0
 250:	00009acc 	andeq	r9, r0, ip, asr #21
 254:	00000178 	andeq	r0, r0, r8, ror r1
	...
 260:	0000001c 	andeq	r0, r0, ip, lsl r0
 264:	49980002 	ldmibmi	r8, {r1}
 268:	00040000 	andeq	r0, r4, r0
 26c:	00000000 	andeq	r0, r0, r0
 270:	00009c44 	andeq	r9, r0, r4, asr #24
 274:	00000120 	andeq	r0, r0, r0, lsr #2
	...

Disassembly of section .debug_ranges:

00000000 <.debug_ranges>:
   0:	00000240 	andeq	r0, r0, r0, asr #4
   4:	00000288 	andeq	r0, r0, r8, lsl #5
   8:	0000028c 	andeq	r0, r0, ip, lsl #5
   c:	00000290 	muleq	r0, r0, r2
	...
  18:	0000995c 	andeq	r9, r0, ip, asr r9
  1c:	000099d0 	ldrdeq	r9, [r0], -r0
	...

Disassembly of section .debug_line:

00000000 <.debug_line>:
       0:	0000027d 	andeq	r0, r0, sp, ror r2
       4:	01c10002 	biceq	r0, r1, r2
       8:	01020000 	mrseq	r0, (UNDEF: 2)
       c:	000d0efb 	strdeq	r0, [sp], -fp
      10:	01010101 	tsteq	r1, r1, lsl #2
      14:	01000000 	mrseq	r0, (UNDEF: 0)
      18:	74010000 	strvc	r0, [r1], #-0
      1c:	73747365 	cmnvc	r4, #-1811939327	; 0x94000001
      20:	73552f00 	cmpvc	r5, #0, 30
      24:	2f737265 	svccs	0x00737265
      28:	61697262 	cmnvs	r9, r2, ror #4
      2c:	6e756a6e 	vsubvs.f32	s13, s10, s29
      30:	7365442f 	cmnvc	r5, #788529152	; 0x2f000000
      34:	706f746b 	rsbvc	r7, pc, fp, ror #8
      38:	6863732f 	stmdavs	r3!, {r0, r1, r2, r3, r5, r8, r9, ip, sp, lr}^
      3c:	2f6c6f6f 	svccs	0x006c6f6f
      40:	69727053 	ldmdbvs	r2!, {r0, r1, r4, r6, ip, sp, lr}^
      44:	3931676e 	ldmdbcc	r1!, {r1, r2, r3, r5, r6, r8, r9, sl, sp, lr}
      48:	432f3032 	teqmi	pc, #50	; 0x32
      4c:	30343253 	eorscc	r3, r4, r3, asr r2
      50:	632f584c 	teqvs	pc, #76, 16	; 0x4c0000
      54:	30343273 	eorscc	r3, r4, r3, ror r2
      58:	322d786c 	eorcc	r7, sp, #108, 16	; 0x6c0000
      5c:	72707330 	rsbsvc	r7, r0, #48, 6	; 0xc0000000
      60:	62696c2f 	rsbvs	r6, r9, #12032	; 0x2f00
      64:	6c2f6970 	stcvs	9, cr6, [pc], #-448	; fffffeac <__bss_end__+0xffff342c>
      68:	00636269 	rsbeq	r6, r3, r9, ror #4
      6c:	7273752f 	rsbsvc	r7, r3, #197132288	; 0xbc00000
      70:	636f6c2f 	cmnvs	pc, #12032	; 0x2f00
      74:	432f6c61 	teqmi	pc, #24832	; 0x6100
      78:	616c6c65 	cmnvs	ip, r5, ror #24
      7c:	72612f72 	rsbvc	r2, r1, #456	; 0x1c8
      80:	6f6e2d6d 	svcvs	0x006e2d6d
      84:	652d656e 	strvs	r6, [sp, #-1390]!	; 0x56e
      88:	2f696261 	svccs	0x00696261
      8c:	2e382e34 	mrccs	14, 1, r2, cr8, cr4, {1}
      90:	73632d33 	cmnvc	r3, #3264	; 0xcc0
      94:	65303731 	ldrvs	r3, [r0, #-1841]!	; 0x731
      98:	62696c2f 	rsbvs	r6, r9, #12032	; 0x2f00
      9c:	6363672f 	cmnvs	r3, #12320768	; 0xbc0000
      a0:	6d72612f 	ldfvse	f6, [r2, #-188]!	; 0xffffff44
      a4:	6e6f6e2d 	cdpvs	14, 6, cr6, cr15, cr13, {1}
      a8:	61652d65 	cmnvs	r5, r5, ror #26
      ac:	342f6962 	strtcc	r6, [pc], #-2402	; b4 <__code_start__-0x7f4c>
      b0:	332e382e 	teqcc	lr, #3014656	; 0x2e0000
      b4:	636e692f 	cmnvs	lr, #770048	; 0xbc000
      b8:	6564756c 	strbvs	r7, [r4, #-1388]!	; 0x56c
      bc:	2f002e00 	svccs	0x00002e00
      c0:	72657355 	rsbvc	r7, r5, #1409286145	; 0x54000001
      c4:	72622f73 	rsbvc	r2, r2, #460	; 0x1cc
      c8:	6a6e6169 	bvs	1b98674 <__bss_end__+0x1b8bbf4>
      cc:	442f6e75 	strtmi	r6, [pc], #-3701	; d4 <__code_start__-0x7f2c>
      d0:	746b7365 	strbtvc	r7, [fp], #-869	; 0x365
      d4:	732f706f 	teqvc	pc, #111	; 0x6f
      d8:	6f6f6863 	svcvs	0x006f6863
      dc:	70532f6c 	subsvc	r2, r3, ip, ror #30
      e0:	676e6972 			; <UNDEFINED> instruction: 0x676e6972
      e4:	30323931 	eorscc	r3, r2, r1, lsr r9
      e8:	3253432f 	subscc	r4, r3, #-1140850688	; 0xbc000000
      ec:	584c3034 	stmdapl	ip, {r2, r4, r5, ip, sp}^
      f0:	3273632f 	rsbscc	r6, r3, #-1140850688	; 0xbc000000
      f4:	786c3034 	stmdavc	ip!, {r2, r4, r5, ip, sp}^
      f8:	7330322d 	teqvc	r0, #-805306366	; 0xd0000002
      fc:	6c2f7270 	sfmvs	f7, 4, [pc], #-448	; ffffff44 <__bss_end__+0xffff34c4>
     100:	69706269 	ldmdbvs	r0!, {r0, r3, r5, r6, r9, sp, lr}^
     104:	636e692f 	cmnvs	lr, #770048	; 0xbc000
     108:	6564756c 	strbvs	r7, [r4, #-1388]!	; 0x56c
     10c:	73752f00 	cmnvc	r5, #0, 30
     110:	6f6c2f72 	svcvs	0x006c2f72
     114:	2f6c6163 	svccs	0x006c6163
     118:	6c6c6543 	cfstr64vs	mvdx6, [ip], #-268	; 0xfffffef4
     11c:	612f7261 	teqvs	pc, r1, ror #4
     120:	6e2d6d72 	mcrvs	13, 1, r6, cr13, cr2, {3}
     124:	2d656e6f 	stclcs	14, cr6, [r5, #-444]!	; 0xfffffe44
     128:	69626165 	stmdbvs	r2!, {r0, r2, r5, r6, r8, sp, lr}^
     12c:	382e342f 	stmdacc	lr!, {r0, r1, r2, r3, r5, sl, ip, sp}
     130:	632d332e 	teqvs	sp, #-1207959552	; 0xb8000000
     134:	30373173 	eorscc	r3, r7, r3, ror r1
     138:	72612f65 	rsbvc	r2, r1, #404	; 0x194
     13c:	6f6e2d6d 	svcvs	0x006e2d6d
     140:	652d656e 	strvs	r6, [sp, #-1390]!	; 0x56e
     144:	2f696261 	svccs	0x00696261
     148:	6c636e69 	stclvs	14, cr6, [r3], #-420	; 0xfffffe5c
     14c:	00656475 	rsbeq	r6, r5, r5, ror r4
     150:	2d363100 	ldfcss	f3, [r6, #-0]
     154:	74726170 	ldrbtvc	r6, [r2], #-368	; 0x170
     158:	65742d32 	ldrbvs	r2, [r4, #-3378]!	; 0xd32
     15c:	2e357473 	mrccs	4, 1, r7, cr5, cr3, {3}
     160:	00010063 	andeq	r0, r1, r3, rrx
     164:	72696300 	rsbvc	r6, r9, #0, 6
     168:	616c7563 	cmnvs	ip, r3, ror #10
     16c:	00682e72 	rsbeq	r2, r8, r2, ror lr
     170:	73000002 	movwvc	r0, #2
     174:	65646474 	strbvs	r6, [r4, #-1140]!	; 0x474
     178:	00682e66 	rsbeq	r2, r8, r6, ror #28
     17c:	73000003 	movwvc	r0, #3
     180:	6e696474 	mcrvs	4, 3, r6, cr9, cr4, {3}
     184:	63672d74 	cmnvs	r7, #116, 26	; 0x1d00
     188:	00682e63 	rsbeq	r2, r8, r3, ror #28
     18c:	63000003 	movwvs	r0, #3
     190:	6b636568 	blvs	18d9738 <__bss_end__+0x18cccb8>
     194:	746e692d 	strbtvc	r6, [lr], #-2349	; 0x92d
     198:	656c7265 	strbvs	r7, [ip, #-613]!	; 0x265
     19c:	2e657661 	cdpcs	6, 6, cr7, cr5, cr1, {3}
     1a0:	00040068 	andeq	r0, r4, r8, rrx
     1a4:	69707200 	ldmdbvs	r0!, {r9, ip, sp, lr}^
     1a8:	0500682e 	streq	r6, [r0, #-2094]	; 0x82e
     1ac:	74730000 	ldrbtvc	r0, [r3], #-0
     1b0:	676e6972 			; <UNDEFINED> instruction: 0x676e6972
     1b4:	0600682e 	streq	r6, [r0], -lr, lsr #16
     1b8:	70630000 	rsbvc	r0, r3, r0
     1bc:	642d3431 	strtvs	r3, [sp], #-1073	; 0x431
     1c0:	67756265 	ldrbvs	r6, [r5, -r5, ror #4]!
     1c4:	0400682e 	streq	r6, [r0], #-2094	; 0x82e
     1c8:	00000000 	andeq	r0, r0, r0
     1cc:	80200205 	eorhi	r0, r0, r5, lsl #4
     1d0:	0a030000 	beq	c01d8 <__bss_end__+0xb3758>
     1d4:	03020401 	movweq	r0, #9217	; 0x2401
     1d8:	030100cc 	movweq	r0, #4300	; 0x10cc
     1dc:	1c036665 	stcne	6, cr6, [r3], {101}	; 0x65
     1e0:	04674c9e 	strbteq	r4, [r7], #-3230	; 0xc9e
     1e4:	7fb20301 	svcvc	0x00b20301
     1e8:	0204f59e 	andeq	pc, r4, #662700032	; 0x27800000
     1ec:	034a2903 	movteq	r2, #43267	; 0xa903
     1f0:	674c9e0a 	strbvs	r9, [ip, -sl, lsl #28]
     1f4:	0446834b 	strbeq	r8, [r6], #-843	; 0x34b
     1f8:	2e4e0301 	cdpcs	3, 4, cr0, cr14, cr1, {0}
     1fc:	0200692f 	andeq	r6, r0, #770048	; 0xbc000
     200:	82060104 	andhi	r0, r6, #4, 2
     204:	08210806 	stmdaeq	r1!, {r1, r2, fp}
     208:	03020459 	movweq	r0, #9305	; 0x2459
     20c:	9f4a0182 	svcls	0x004a0182
     210:	034b9f67 	movteq	r9, #48999	; 0xbf67
     214:	03827f9b 	orreq	r7, r2, #620	; 0x26c
     218:	034a00e6 	movteq	r0, #41190	; 0xa0e6
     21c:	58087f9d 	stmdapl	r8, {r0, r2, r3, r4, r7, r8, r9, sl, fp, ip, sp, lr}
     220:	d600e403 	strle	lr, [r0], -r3, lsl #8
     224:	087f9e03 	ldmdaeq	pc!, {r0, r1, r9, sl, fp, ip, pc}^	; <UNPREDICTABLE>
     228:	00e30358 	rsceq	r0, r3, r8, asr r3
     22c:	7f9803ba 	svcvc	0x009803ba
     230:	0a035808 	beq	d6258 <__bss_end__+0xc97d8>
     234:	4b674c9e 	blmi	19d34b4 <__bss_end__+0x19c6a34>
     238:	00da0383 	sbcseq	r0, sl, r3, lsl #7
     23c:	7fa2034a 	svcvc	0x00a2034a
     240:	00df032e 	sbcseq	r0, pc, lr, lsr #6
     244:	0301042e 	movweq	r0, #5166	; 0x142e
     248:	26027ef7 			; <UNDEFINED> instruction: 0x26027ef7
     24c:	24029f01 	strcs	r9, [r2], #-3841	; 0xf01
     250:	4cbf4c15 	ldcmi	12, cr4, [pc], #84	; 2ac <__code_start__-0x7d54>
     254:	01040200 	mrseq	r0, R12_usr
     258:	0806ba06 	stmdaeq	r6, {r1, r2, r9, fp, ip, sp, pc}
     25c:	13220822 	teqne	r2, #2228224	; 0x220000
     260:	a0192e02 	andsge	r2, r9, r2, lsl #28
     264:	834c304c 	movthi	r3, #49228	; 0xc04c
     268:	01040200 	mrseq	r0, R12_usr
     26c:	08066606 	stmdaeq	r6, {r1, r2, r9, sl, sp, lr}
     270:	005b0821 	subseq	r0, fp, r1, lsr #16
     274:	06010402 	streq	r0, [r1], -r2, lsl #8
     278:	21080666 	tstcs	r8, r6, ror #12
     27c:	01001c02 	tsteq	r0, r2, lsl #24
     280:	0001f401 	andeq	pc, r1, r1, lsl #8
     284:	ff000200 			; <UNDEFINED> instruction: 0xff000200
     288:	02000000 	andeq	r0, r0, #0
     28c:	0d0efb01 	vstreq	d15, [lr, #-4]
     290:	01010100 	mrseq	r0, (UNDEF: 17)
     294:	00000001 	andeq	r0, r0, r1
     298:	01000001 	tsteq	r0, r1
     29c:	7273752f 	rsbsvc	r7, r3, #197132288	; 0xbc00000
     2a0:	636f6c2f 	cmnvs	pc, #12032	; 0x2f00
     2a4:	432f6c61 	teqmi	pc, #24832	; 0x6100
     2a8:	616c6c65 	cmnvs	ip, r5, ror #24
     2ac:	72612f72 	rsbvc	r2, r1, #456	; 0x1c8
     2b0:	6f6e2d6d 	svcvs	0x006e2d6d
     2b4:	652d656e 	strvs	r6, [sp, #-1390]!	; 0x56e
     2b8:	2f696261 	svccs	0x00696261
     2bc:	2e382e34 	mrccs	14, 1, r2, cr8, cr4, {1}
     2c0:	73632d33 	cmnvc	r3, #3264	; 0xcc0
     2c4:	65303731 	ldrvs	r3, [r0, #-1841]!	; 0x731
     2c8:	62696c2f 	rsbvs	r6, r9, #12032	; 0x2f00
     2cc:	6363672f 	cmnvs	r3, #12320768	; 0xbc0000
     2d0:	6d72612f 	ldfvse	f6, [r2, #-188]!	; 0xffffff44
     2d4:	6e6f6e2d 	cdpvs	14, 6, cr6, cr15, cr13, {1}
     2d8:	61652d65 	cmnvs	r5, r5, ror #26
     2dc:	342f6962 	strtcc	r6, [pc], #-2402	; 2e4 <__code_start__-0x7d1c>
     2e0:	332e382e 	teqcc	lr, #3014656	; 0x2e0000
     2e4:	636e692f 	cmnvs	lr, #770048	; 0xbc000
     2e8:	6564756c 	strbvs	r7, [r4, #-1388]!	; 0x56c
     2ec:	73552f00 	cmpvc	r5, #0, 30
     2f0:	2f737265 	svccs	0x00737265
     2f4:	61697262 	cmnvs	r9, r2, ror #4
     2f8:	6e756a6e 	vsubvs.f32	s13, s10, s29
     2fc:	7365442f 	cmnvc	r5, #788529152	; 0x2f000000
     300:	706f746b 	rsbvc	r7, pc, fp, ror #8
     304:	6863732f 	stmdavs	r3!, {r0, r1, r2, r3, r5, r8, r9, ip, sp, lr}^
     308:	2f6c6f6f 	svccs	0x006c6f6f
     30c:	69727053 	ldmdbvs	r2!, {r0, r1, r4, r6, ip, sp, lr}^
     310:	3931676e 	ldmdbcc	r1!, {r1, r2, r3, r5, r6, r8, r9, sl, sp, lr}
     314:	432f3032 	teqmi	pc, #50	; 0x32
     318:	30343253 	eorscc	r3, r4, r3, asr r2
     31c:	632f584c 	teqvs	pc, #76, 16	; 0x4c0000
     320:	30343273 	eorscc	r3, r4, r3, ror r2
     324:	322d786c 	eorcc	r7, sp, #108, 16	; 0x6c0000
     328:	72707330 	rsbsvc	r7, r0, #48, 6	; 0xc0000000
     32c:	62696c2f 	rsbvs	r6, r9, #12032	; 0x2f00
     330:	692f6970 	stmdbvs	pc!, {r4, r5, r6, r8, fp, sp, lr}	; <UNPREDICTABLE>
     334:	756c636e 	strbvc	r6, [ip, #-878]!	; 0x36e
     338:	00006564 	andeq	r6, r0, r4, ror #10
     33c:	34317063 	ldrtcc	r7, [r1], #-99	; 0x63
     340:	6265642d 	rsbvs	r6, r5, #754974720	; 0x2d000000
     344:	632e6775 	teqvs	lr, #30670848	; 0x1d40000
     348:	00000000 	andeq	r0, r0, r0
     34c:	34317063 	ldrtcc	r7, [r1], #-99	; 0x63
     350:	6265642d 	rsbvs	r6, r5, #754974720	; 0x2d000000
     354:	682e6775 	stmdavs	lr!, {r0, r2, r4, r5, r6, r8, r9, sl, sp, lr}
     358:	00000000 	andeq	r0, r0, r0
     35c:	69647473 	stmdbvs	r4!, {r0, r1, r4, r5, r6, sl, ip, sp, lr}^
     360:	672d746e 	strvs	r7, [sp, -lr, ror #8]!
     364:	682e6363 	stmdavs	lr!, {r0, r1, r5, r6, r8, r9, sp, lr}
     368:	00000100 	andeq	r0, r0, r0, lsl #2
     36c:	2e697072 	mcrcs	0, 3, r7, cr9, cr2, {3}
     370:	00020068 	andeq	r0, r2, r8, rrx
     374:	69707200 	ldmdbvs	r0!, {r9, ip, sp, lr}^
     378:	746e692d 	strbtvc	r6, [lr], #-2349	; 0x92d
     37c:	75727265 	ldrbvc	r7, [r2, #-613]!	; 0x265
     380:	2e737470 	mrccs	4, 3, r7, cr3, cr0, {3}
     384:	00020068 	andeq	r0, r2, r8, rrx
     388:	05000000 	streq	r0, [r0, #-0]
     38c:	00853802 	addeq	r3, r5, r2, lsl #16
     390:	01350300 	teqeq	r5, r0, lsl #6
     394:	034a6203 	movteq	r6, #41475	; 0xa203
     398:	62032e24 	andvs	r2, r3, #36, 28	; 0x240
     39c:	2e7a032e 	cdpcs	3, 7, cr0, cr10, cr14, {1}
     3a0:	002e2903 	eoreq	r2, lr, r3, lsl #18
     3a4:	06010402 	streq	r0, [r1], -r2, lsl #8
     3a8:	6503064a 	strvs	r0, [r3, #-1610]	; 0x64a
     3ac:	78032008 	stmdavc	r3, {r3, sp}
     3b0:	4a7a032e 	bmi	1e81070 <__bss_end__+0x1e745f0>
     3b4:	002e3a03 	eoreq	r3, lr, r3, lsl #20
     3b8:	06010402 	streq	r0, [r1], -r2, lsl #8
     3bc:	bb03064a 	bllt	c1cec <__bss_end__+0xb526c>
     3c0:	0320087f 	teqeq	r0, #8323072	; 0x7f0000
     3c4:	4b4a00c8 	blmi	12806ec <__bss_end__+0x1273c6c>
     3c8:	6c0204f5 	cfstrsvs	mvf0, [r2], {245}	; 0xf5
     3cc:	344a1303 	strbcc	r1, [sl], #-771	; 0x303
     3d0:	d65d034b 	ldrble	r0, [sp], -fp, asr #6
     3d4:	11030104 	tstne	r3, r4, lsl #2
     3d8:	0402002e 	streq	r0, [r2], #-46	; 0x2e
     3dc:	06660601 	strbteq	r0, [r6], -r1, lsl #12
     3e0:	02002208 	andeq	r2, r0, #8, 4	; 0x80000000
     3e4:	82060104 	andhi	r0, r6, #4, 2
     3e8:	03060204 	movweq	r0, #25092	; 0x6204
     3ec:	0420087a 	strteq	r0, [r0], #-2170	; 0x87a
     3f0:	2e0c0301 	cdpcs	3, 0, cr0, cr12, cr1, {0}
     3f4:	315a084b 	cmpcc	sl, fp, asr #16
     3f8:	bb032f83 	bllt	cc20c <__bss_end__+0xbf78c>
     3fc:	5b03667f 	blpl	d9e00 <__bss_end__+0xcd380>
     400:	019b034a 	orrseq	r0, fp, sl, asr #6
     404:	01650382 	smulbbeq	r5, r2, r3
     408:	032e1f03 	teqeq	lr, #3, 30
     40c:	302c2e62 	eorcc	r2, ip, r2, ror #28
     410:	4a7eff03 	bmi	1fc0024 <__bss_end__+0x1fb35a4>
     414:	4a01b303 	bmi	6d028 <__bss_end__+0x605a8>
     418:	030204a2 	movweq	r0, #9378	; 0x24a2
     41c:	04336662 	ldrteq	r6, [r3], #-1634	; 0x662
     420:	2e1b0301 	cdpcs	3, 1, cr0, cr11, cr1, {0}
     424:	0200d74b 	andeq	sp, r0, #19660800	; 0x12c0000
     428:	82060104 	andhi	r0, r6, #4, 2
     42c:	03060204 	movweq	r0, #25092	; 0x6204
     430:	0420084f 	strteq	r0, [r0], #-2127	; 0x84f
     434:	2e330301 	cdpcs	3, 3, cr0, cr3, cr1, {0}
     438:	0b03f44b 	bleq	fd56c <__bss_end__+0xf0aec>
     43c:	082f012e 	stmdaeq	pc!, {r1, r2, r3, r5, r8}	; <UNPREDICTABLE>
     440:	7fb1033f 	svcvc	0x00b1033f
     444:	00d30301 	sbcseq	r0, r3, r1, lsl #6
     448:	7fae032e 	svcvc	0x00ae032e
     44c:	03302c2e 	teqeq	r0, #11776	; 0x2e00
     450:	034a7eff 	movteq	r7, #44799	; 0xaeff
     454:	a24a01e7 	subge	r0, sl, #-1073741767	; 0xc0000039
     458:	017f9603 	cmneq	pc, r3, lsl #12
     45c:	8200fb03 	andhi	pc, r0, #3072	; 0xc00
     460:	034b4b31 	movteq	r4, #47921	; 0xbb31
     464:	72032e0f 	andvc	r2, r3, #15, 28	; 0xf0
     468:	4b674c4a 	blmi	19d3598 <__bss_end__+0x19c6b18>
     46c:	78036935 	stmdavc	r3, {r0, r2, r4, r5, r8, fp, sp, lr}
     470:	2e09034a 	cdpcs	3, 0, cr0, cr9, cr10, {2}
     474:	01000402 	tsteq	r0, r2, lsl #8
     478:	00026501 	andeq	r6, r2, r1, lsl #10
     47c:	3b000200 	blcc	c84 <__code_start__-0x737c>
     480:	02000001 	andeq	r0, r0, #1
     484:	0d0efb01 	vstreq	d15, [lr, #-4]
     488:	01010100 	mrseq	r0, (UNDEF: 17)
     48c:	00000001 	andeq	r0, r0, r1
     490:	01000001 	tsteq	r0, r1
     494:	6573552f 	ldrbvs	r5, [r3, #-1327]!	; 0x52f
     498:	622f7372 	eorvs	r7, pc, #-939524095	; 0xc8000001
     49c:	6e616972 	mcrvs	9, 3, r6, cr1, cr2, {3}
     4a0:	2f6e756a 	svccs	0x006e756a
     4a4:	6b736544 	blvs	1cd99bc <__bss_end__+0x1cccf3c>
     4a8:	2f706f74 	svccs	0x00706f74
     4ac:	6f686373 	svcvs	0x00686373
     4b0:	532f6c6f 	teqpl	pc, #28416	; 0x6f00
     4b4:	6e697270 	mcrvs	2, 3, r7, cr9, cr0, {3}
     4b8:	32393167 	eorscc	r3, r9, #-1073741799	; 0xc0000019
     4bc:	53432f30 	movtpl	r2, #16176	; 0x3f30
     4c0:	4c303432 	cfldrsmi	mvf3, [r0], #-200	; 0xffffff38
     4c4:	73632f58 	cmnvc	r3, #88, 30	; 0x160
     4c8:	6c303432 	cfldrsvs	mvf3, [r0], #-200	; 0xffffff38
     4cc:	30322d78 	eorscc	r2, r2, r8, ror sp
     4d0:	2f727073 	svccs	0x00727073
     4d4:	7062696c 	rsbvc	r6, r2, ip, ror #18
     4d8:	6e692f69 	cdpvs	15, 6, cr2, cr9, cr9, {3}
     4dc:	64756c63 	ldrbtvs	r6, [r5], #-3171	; 0xc63
     4e0:	752f0065 	strvc	r0, [pc, #-101]!	; 483 <__code_start__-0x7b7d>
     4e4:	6c2f7273 	sfmvs	f7, 4, [pc], #-460	; 320 <__code_start__-0x7ce0>
     4e8:	6c61636f 	stclvs	3, cr6, [r1], #-444	; 0xfffffe44
     4ec:	6c65432f 	stclvs	3, cr4, [r5], #-188	; 0xffffff44
     4f0:	2f72616c 	svccs	0x0072616c
     4f4:	2d6d7261 	sfmcs	f7, 2, [sp, #-388]!	; 0xfffffe7c
     4f8:	656e6f6e 	strbvs	r6, [lr, #-3950]!	; 0xf6e
     4fc:	6261652d 	rsbvs	r6, r1, #188743680	; 0xb400000
     500:	2e342f69 	cdpcs	15, 3, cr2, cr4, cr9, {3}
     504:	2d332e38 	ldccs	14, cr2, [r3, #-224]!	; 0xffffff20
     508:	37317363 	ldrcc	r7, [r1, -r3, ror #6]!
     50c:	6c2f6530 	cfstr32vs	mvfx6, [pc], #-192	; 454 <__code_start__-0x7bac>
     510:	672f6269 	strvs	r6, [pc, -r9, ror #4]!
     514:	612f6363 	teqvs	pc, r3, ror #6
     518:	6e2d6d72 	mcrvs	13, 1, r6, cr13, cr2, {3}
     51c:	2d656e6f 	stclcs	14, cr6, [r5, #-444]!	; 0xfffffe44
     520:	69626165 	stmdbvs	r2!, {r0, r2, r5, r6, r8, sp, lr}^
     524:	382e342f 	stmdacc	lr!, {r0, r1, r2, r3, r5, sl, ip, sp}
     528:	692f332e 	stmdbvs	pc!, {r1, r2, r3, r5, r8, r9, ip, sp}	; <UNPREDICTABLE>
     52c:	756c636e 	strbvc	r6, [ip, #-878]!	; 0x36e
     530:	00006564 	andeq	r6, r0, r4, ror #10
     534:	63656863 	cmnvs	r5, #6488064	; 0x630000
     538:	6e692d6b 	cdpvs	13, 6, cr2, cr9, cr11, {3}
     53c:	6c726574 	cfldr64vs	mvdx6, [r2], #-464	; 0xfffffe30
     540:	65766165 	ldrbvs	r6, [r6, #-357]!	; 0x165
     544:	0000632e 	andeq	r6, r0, lr, lsr #6
     548:	70630000 	rsbvc	r0, r3, r0
     54c:	642d3431 	strtvs	r3, [sp], #-1073	; 0x431
     550:	67756265 	ldrbvs	r6, [r5, -r5, ror #4]!
     554:	0000682e 	andeq	r6, r0, lr, lsr #16
     558:	70720000 	rsbsvc	r0, r2, r0
     55c:	6e692d69 	cdpvs	13, 6, cr2, cr9, cr9, {3}
     560:	72726574 	rsbsvc	r6, r2, #116, 10	; 0x1d000000
     564:	73747075 	cmnvc	r4, #117	; 0x75
     568:	0100682e 	tsteq	r0, lr, lsr #16
     56c:	69620000 	stmdbvs	r2!, {}^	; <UNPREDICTABLE>
     570:	75732d74 	ldrbvc	r2, [r3, #-3444]!	; 0xd74
     574:	726f7070 	rsbvc	r7, pc, #112	; 0x70
     578:	00682e74 	rsbeq	r2, r8, r4, ror lr
     57c:	63000000 	movwvs	r0, #0
     580:	2d727370 	ldclcs	3, cr7, [r2, #-448]!	; 0xfffffe40
     584:	6c697475 	cfstrdvs	mvd7, [r9], #-468	; 0xfffffe2c
     588:	0000682e 	andeq	r6, r0, lr, lsr #16
     58c:	74730000 	ldrbtvc	r0, [r3], #-0
     590:	746e6964 	strbtvc	r6, [lr], #-2404	; 0x964
     594:	6363672d 	cmnvs	r3, #11796480	; 0xb40000
     598:	0200682e 	andeq	r6, r0, #3014656	; 0x2e0000
     59c:	68630000 	stmdavs	r3!, {}^	; <UNPREDICTABLE>
     5a0:	2d6b6365 	stclcs	3, cr6, [fp, #-404]!	; 0xfffffe6c
     5a4:	65746e69 	ldrbvs	r6, [r4, #-3689]!	; 0xe69
     5a8:	61656c72 	smcvs	22210	; 0x56c2
     5ac:	682e6576 	stmdavs	lr!, {r1, r2, r4, r5, r6, r8, sl, sp, lr}
     5b0:	00000000 	andeq	r0, r0, r0
     5b4:	2e697072 	mcrcs	0, 3, r7, cr9, cr2, {3}
     5b8:	00010068 	andeq	r0, r1, r8, rrx
     5bc:	05000000 	streq	r0, [r0, #-0]
     5c0:	0089c802 	addeq	ip, r9, r2, lsl #16
     5c4:	010a0300 	mrseq	r0, (UNDEF: 58)
     5c8:	04020067 	streq	r0, [r2], #-103	; 0x67
     5cc:	04820601 	streq	r0, [r2], #1537	; 0x601
     5d0:	9a030602 	bls	c1de0 <__bss_end__+0xb5360>
     5d4:	0433ba01 	ldrteq	fp, [r3], #-2561	; 0xa01
     5d8:	7ee20301 	cdpvc	3, 14, cr0, cr2, cr1, {0}
     5dc:	4dd84b2e 	vldrmi	d20, [r8, #184]	; 0xb8
     5e0:	2f4b8783 	svccs	0x004b8783
     5e4:	6868674b 	stmdavs	r8!, {r0, r1, r3, r6, r8, r9, sl, sp, lr}^
     5e8:	01040200 	mrseq	r0, R12_usr
     5ec:	08068206 	stmdaeq	r6, {r1, r2, r9, pc}
     5f0:	02006821 	andeq	r6, r0, #2162688	; 0x210000
     5f4:	82060104 	andhi	r0, r6, #4, 2
     5f8:	0067bb06 	rsbeq	fp, r7, r6, lsl #22
     5fc:	06010402 	streq	r0, [r1], -r2, lsl #8
     600:	08bc0682 	ldmeq	ip!, {r1, r7, r9, sl}
     604:	640304ca 	strvs	r0, [r3], #-1226	; 0x4ca
     608:	04310404 	ldrteq	r0, [r1], #-1028	; 0x404
     60c:	2e6b0305 	cdpcs	3, 6, cr0, cr11, cr5, {0}
     610:	18030104 	stmdane	r3, {r2, r8}
     614:	844e4b2e 	strbhi	r4, [lr], #-2862	; 0xb2e
     618:	0200682a 	andeq	r6, r0, #2752512	; 0x2a0000
     61c:	66060104 	strvs	r0, [r6], -r4, lsl #2
     620:	676ad806 	strbvs	sp, [sl, -r6, lsl #16]!
     624:	6784314b 	strvs	r3, [r4, fp, asr #2]
     628:	69849f69 	stmibvs	r4, {r0, r3, r5, r6, r8, r9, sl, fp, ip, pc}
     62c:	04046868 	streq	r6, [r4], #-2152	; 0x868
     630:	04825203 	streq	r5, [r2], #515	; 0x203
     634:	2e6c0305 	cdpcs	3, 6, cr0, cr12, cr5, {0}
     638:	25086765 	strcs	r6, [r8, #-1893]	; 0x765
     63c:	28026008 	stmdacs	r2, {r3, sp, lr}
     640:	4b4b4b15 	blmi	12d329c <__bss_end__+0x12c681c>
     644:	79034b4b 	stmdbvc	r3, {r0, r1, r3, r6, r8, r9, fp, lr}
     648:	01044bf2 	strdeq	r4, [r4, -r2]
     64c:	042e3703 	strteq	r3, [lr], #-1795	; 0x703
     650:	66560303 	ldrbvs	r0, [r6], -r3, lsl #6
     654:	78030404 	stmdavc	r3, {r2, sl}
     658:	0305042e 	movweq	r0, #21550	; 0x542e
     65c:	67652e6c 	strbvs	r2, [r5, -ip, ror #28]!
     660:	60082508 	andvs	r2, r8, r8, lsl #10
     664:	4b152802 	blmi	54a674 <__bss_end__+0x53dbf4>
     668:	4b4b4b4b 	blmi	12d339c <__bss_end__+0x12c691c>
     66c:	4bf27903 	blmi	ffc9ea80 <__bss_end__+0xffc92000>
     670:	0d030304 	stceq	3, cr0, [r3, #-16]
     674:	0301042e 	movweq	r0, #5166	; 0x142e
     678:	044c2e2b 	strbeq	r2, [ip], #-3627	; 0xe2b
     67c:	4a4b0304 	bmi	12c1294 <__bss_end__+0x12b4814>
     680:	6c030504 	cfstr32vs	mvfx0, [r3], {4}
     684:	0867652e 	stmdaeq	r7!, {r1, r2, r3, r5, r8, sl, sp, lr}^
     688:	03030425 	movweq	r0, #13349	; 0x3425
     68c:	04580817 	ldrbeq	r0, [r8], #-2071	; 0x817
     690:	2e780304 	cdpcs	3, 7, cr0, cr8, cr4, {0}
     694:	6c030504 	cfstr32vs	mvfx0, [r3], {4}
     698:	0867652e 	stmdaeq	r7!, {r1, r2, r3, r5, r8, sl, sp, lr}^
     69c:	03010425 	movweq	r0, #5157	; 0x1425
     6a0:	580800c6 	stmdapl	r8, {r1, r2, r6, r7}
     6a4:	01040200 	mrseq	r0, R12_usr
     6a8:	08064a06 	stmdaeq	r6, {r1, r2, r9, fp, lr}
     6ac:	022f4c24 	eoreq	r4, pc, #36, 24	; 0x2400
     6b0:	4b4d173a 	blmi	13463a0 <__bss_end__+0x1339920>
     6b4:	9f676768 	svcls	0x00676768
     6b8:	00d67a03 	sbcseq	r7, r6, r3, lsl #20
     6bc:	06010402 	streq	r0, [r1], -r2, lsl #8
     6c0:	1203062e 	andne	r0, r3, #48234496	; 0x2e00000
     6c4:	491aa14a 	ldmdbmi	sl, {r1, r3, r6, r8, sp, pc}
     6c8:	2d2d2d2d 	stccs	13, cr2, [sp, #-180]!	; 0xffffff4c
     6cc:	0a032d2d 	beq	cbb88 <__bss_end__+0xbf108>
     6d0:	4b2f4b4a 	blmi	bd3400 <__bss_end__+0xbc6980>
     6d4:	01040200 	mrseq	r0, R12_usr
     6d8:	06828206 	streq	r8, [r2], r6, lsl #4
     6dc:	0002029f 	muleq	r2, pc, r2	; <UNPREDICTABLE>
     6e0:	00ec0101 	rsceq	r0, ip, r1, lsl #2
     6e4:	00020000 	andeq	r0, r2, r0
     6e8:	000000d0 	ldrdeq	r0, [r0], -r0	; <UNPREDICTABLE>
     6ec:	0efb0102 	cdpeq	1, 15, cr0, cr11, cr2, {0}
     6f0:	0101000d 	tsteq	r1, sp
     6f4:	00000101 	andeq	r0, r0, r1, lsl #2
     6f8:	00000100 	andeq	r0, r0, r0, lsl #2
     6fc:	62696c01 	rsbvs	r6, r9, #256	; 0x100
     700:	752f0063 	strvc	r0, [pc, #-99]!	; 6a5 <__code_start__-0x795b>
     704:	6c2f7273 	sfmvs	f7, 4, [pc], #-460	; 540 <__code_start__-0x7ac0>
     708:	6c61636f 	stclvs	3, cr6, [r1], #-444	; 0xfffffe44
     70c:	6c65432f 	stclvs	3, cr4, [r5], #-188	; 0xffffff44
     710:	2f72616c 	svccs	0x0072616c
     714:	2d6d7261 	sfmcs	f7, 2, [sp, #-388]!	; 0xfffffe7c
     718:	656e6f6e 	strbvs	r6, [lr, #-3950]!	; 0xf6e
     71c:	6261652d 	rsbvs	r6, r1, #188743680	; 0xb400000
     720:	2e342f69 	cdpcs	15, 3, cr2, cr4, cr9, {3}
     724:	2d332e38 	ldccs	14, cr2, [r3, #-224]!	; 0xffffff20
     728:	37317363 	ldrcc	r7, [r1, -r3, ror #6]!
     72c:	6c2f6530 	cfstr32vs	mvfx6, [pc], #-192	; 674 <__code_start__-0x798c>
     730:	672f6269 	strvs	r6, [pc, -r9, ror #4]!
     734:	612f6363 	teqvs	pc, r3, ror #6
     738:	6e2d6d72 	mcrvs	13, 1, r6, cr13, cr2, {3}
     73c:	2d656e6f 	stclcs	14, cr6, [r5, #-444]!	; 0xfffffe44
     740:	69626165 	stmdbvs	r2!, {r0, r2, r5, r6, r8, sp, lr}^
     744:	382e342f 	stmdacc	lr!, {r0, r1, r2, r3, r5, sl, ip, sp}
     748:	692f332e 	stmdbvs	pc!, {r1, r2, r3, r5, r8, r9, ip, sp}	; <UNPREDICTABLE>
     74c:	756c636e 	strbvc	r6, [ip, #-878]!	; 0x36e
     750:	2f006564 	svccs	0x00006564
     754:	2f727375 	svccs	0x00727375
     758:	61636f6c 	cmnvs	r3, ip, ror #30
     75c:	65432f6c 	strbvs	r2, [r3, #-3948]	; 0xf6c
     760:	72616c6c 	rsbvc	r6, r1, #108, 24	; 0x6c00
     764:	6d72612f 	ldfvse	f6, [r2, #-188]!	; 0xffffff44
     768:	6e6f6e2d 	cdpvs	14, 6, cr6, cr15, cr13, {1}
     76c:	61652d65 	cmnvs	r5, r5, ror #26
     770:	342f6962 	strtcc	r6, [pc], #-2402	; 778 <__code_start__-0x7888>
     774:	332e382e 	teqcc	lr, #3014656	; 0x2e0000
     778:	3173632d 	cmncc	r3, sp, lsr #6
     77c:	2f653037 	svccs	0x00653037
     780:	2d6d7261 	sfmcs	f7, 2, [sp, #-388]!	; 0xfffffe7c
     784:	656e6f6e 	strbvs	r6, [lr, #-3950]!	; 0xf6e
     788:	6261652d 	rsbvs	r6, r1, #188743680	; 0xb400000
     78c:	6e692f69 	cdpvs	15, 6, cr2, cr9, cr9, {3}
     790:	64756c63 	ldrbtvs	r6, [r5], #-3171	; 0xc63
     794:	6d000065 	stcvs	0, cr0, [r0, #-404]	; 0xfffffe6c
     798:	65736d65 	ldrbvs	r6, [r3, #-3429]!	; 0xd65
     79c:	00632e74 	rsbeq	r2, r3, r4, ror lr
     7a0:	73000001 	movwvc	r0, #1
     7a4:	65646474 	strbvs	r6, [r4, #-1140]!	; 0x474
     7a8:	00682e66 	rsbeq	r2, r8, r6, ror #28
     7ac:	73000002 	movwvc	r0, #2
     7b0:	6e697274 	mcrvs	2, 3, r7, cr9, cr4, {3}
     7b4:	00682e67 	rsbeq	r2, r8, r7, ror #28
     7b8:	00000003 	andeq	r0, r0, r3
     7bc:	38020500 	stmdacc	r2, {r8, sl}
     7c0:	14000091 	strne	r0, [r0], #-145	; 0x91
     7c4:	002f4c13 	eoreq	r4, pc, r3, lsl ip	; <UNPREDICTABLE>
     7c8:	49010402 	stmdbmi	r1, {r1, sl}
     7cc:	0002024d 	andeq	r0, r2, sp, asr #4
     7d0:	010c0101 	tsteq	ip, r1, lsl #2
     7d4:	00020000 	andeq	r0, r2, r0
     7d8:	000000f5 	strdeq	r0, [r0], -r5
     7dc:	0efb0102 	cdpeq	1, 15, cr0, cr11, cr2, {0}
     7e0:	0101000d 	tsteq	r1, sp
     7e4:	00000101 	andeq	r0, r0, r1, lsl #2
     7e8:	00000100 	andeq	r0, r0, r0, lsl #2
     7ec:	62696c01 	rsbvs	r6, r9, #256	; 0x100
     7f0:	752f0063 	strvc	r0, [pc, #-99]!	; 795 <__code_start__-0x786b>
     7f4:	6c2f7273 	sfmvs	f7, 4, [pc], #-460	; 630 <__code_start__-0x79d0>
     7f8:	6c61636f 	stclvs	3, cr6, [r1], #-444	; 0xfffffe44
     7fc:	6c65432f 	stclvs	3, cr4, [r5], #-188	; 0xffffff44
     800:	2f72616c 	svccs	0x0072616c
     804:	2d6d7261 	sfmcs	f7, 2, [sp, #-388]!	; 0xfffffe7c
     808:	656e6f6e 	strbvs	r6, [lr, #-3950]!	; 0xf6e
     80c:	6261652d 	rsbvs	r6, r1, #188743680	; 0xb400000
     810:	2e342f69 	cdpcs	15, 3, cr2, cr4, cr9, {3}
     814:	2d332e38 	ldccs	14, cr2, [r3, #-224]!	; 0xffffff20
     818:	37317363 	ldrcc	r7, [r1, -r3, ror #6]!
     81c:	6c2f6530 	cfstr32vs	mvfx6, [pc], #-192	; 764 <__code_start__-0x789c>
     820:	672f6269 	strvs	r6, [pc, -r9, ror #4]!
     824:	612f6363 	teqvs	pc, r3, ror #6
     828:	6e2d6d72 	mcrvs	13, 1, r6, cr13, cr2, {3}
     82c:	2d656e6f 	stclcs	14, cr6, [r5, #-444]!	; 0xfffffe44
     830:	69626165 	stmdbvs	r2!, {r0, r2, r5, r6, r8, sp, lr}^
     834:	382e342f 	stmdacc	lr!, {r0, r1, r2, r3, r5, sl, ip, sp}
     838:	692f332e 	stmdbvs	pc!, {r1, r2, r3, r5, r8, r9, ip, sp}	; <UNPREDICTABLE>
     83c:	756c636e 	strbvc	r6, [ip, #-878]!	; 0x36e
     840:	2f006564 	svccs	0x00006564
     844:	72657355 	rsbvc	r7, r5, #1409286145	; 0x54000001
     848:	72622f73 	rsbvc	r2, r2, #460	; 0x1cc
     84c:	6a6e6169 	bvs	1b98df8 <__bss_end__+0x1b8c378>
     850:	442f6e75 	strtmi	r6, [pc], #-3701	; 858 <__code_start__-0x77a8>
     854:	746b7365 	strbtvc	r7, [fp], #-869	; 0x365
     858:	732f706f 	teqvc	pc, #111	; 0x6f
     85c:	6f6f6863 	svcvs	0x006f6863
     860:	70532f6c 	subsvc	r2, r3, ip, ror #30
     864:	676e6972 			; <UNDEFINED> instruction: 0x676e6972
     868:	30323931 	eorscc	r3, r2, r1, lsr r9
     86c:	3253432f 	subscc	r4, r3, #-1140850688	; 0xbc000000
     870:	584c3034 	stmdapl	ip, {r2, r4, r5, ip, sp}^
     874:	3273632f 	rsbscc	r6, r3, #-1140850688	; 0xbc000000
     878:	786c3034 	stmdavc	ip!, {r2, r4, r5, ip, sp}^
     87c:	7330322d 	teqvc	r0, #-805306366	; 0xd0000002
     880:	6c2f7270 	sfmvs	f7, 4, [pc], #-448	; 6c8 <__code_start__-0x7938>
     884:	69706269 	ldmdbvs	r0!, {r0, r3, r5, r6, r9, sp, lr}^
     888:	636e692f 	cmnvs	lr, #770048	; 0xbc000
     88c:	6564756c 	strbvs	r7, [r4, #-1388]!	; 0x56c
     890:	72700000 	rsbsvc	r0, r0, #0
     894:	6b746e69 	blvs	1d1c240 <__bss_end__+0x1d0f7c0>
     898:	0100632e 	tsteq	r0, lr, lsr #6
     89c:	74730000 	ldrbtvc	r0, [r3], #-0
     8a0:	67726164 	ldrbvs	r6, [r2, -r4, ror #2]!
     8a4:	0200682e 	andeq	r6, r0, #3014656	; 0x2e0000
     8a8:	623c0000 	eorsvs	r0, ip, #0
     8ac:	746c6975 	strbtvc	r6, [ip], #-2421	; 0x975
     8b0:	3e6e692d 	cdpcc	9, 6, cr6, cr14, cr13, {1}
     8b4:	00000000 	andeq	r0, r0, r0
     8b8:	2e697072 	mcrcs	0, 3, r7, cr9, cr2, {3}
     8bc:	00030068 	andeq	r0, r3, r8, rrx
     8c0:	2d617600 	stclcs	6, cr7, [r1, #-0]
     8c4:	6e697270 	mcrvs	2, 3, r7, cr9, cr0, {3}
     8c8:	682e6b74 	stmdavs	lr!, {r2, r4, r5, r6, r8, r9, fp, sp, lr}
     8cc:	00000100 	andeq	r0, r0, r0, lsl #2
     8d0:	02050000 	andeq	r0, r5, #0
     8d4:	00009158 	andeq	r9, r0, r8, asr r1
     8d8:	bf4b6b17 	svclt	0x004b6b17
     8dc:	000e0289 	andeq	r0, lr, r9, lsl #5
     8e0:	00940101 	addseq	r0, r4, r1, lsl #2
     8e4:	00020000 	andeq	r0, r2, r0
     8e8:	0000007c 	andeq	r0, r0, ip, ror r0
     8ec:	0efb0102 	cdpeq	1, 15, cr0, cr11, cr2, {0}
     8f0:	0101000d 	tsteq	r1, sp
     8f4:	00000101 	andeq	r0, r0, r1, lsl #2
     8f8:	00000100 	andeq	r0, r0, r0, lsl #2
     8fc:	62696c01 	rsbvs	r6, r9, #256	; 0x100
     900:	552f0063 	strpl	r0, [pc, #-99]!	; 8a5 <__code_start__-0x775b>
     904:	73726573 	cmnvc	r2, #482344960	; 0x1cc00000
     908:	6972622f 	ldmdbvs	r2!, {r0, r1, r2, r3, r5, r9, sp, lr}^
     90c:	756a6e61 	strbvc	r6, [sl, #-3681]!	; 0xe61
     910:	65442f6e 	strbvs	r2, [r4, #-3950]	; 0xf6e
     914:	6f746b73 	svcvs	0x00746b73
     918:	63732f70 	cmnvs	r3, #112, 30	; 0x1c0
     91c:	6c6f6f68 	stclvs	15, cr6, [pc], #-416	; 784 <__code_start__-0x787c>
     920:	7270532f 	rsbsvc	r5, r0, #-1140850688	; 0xbc000000
     924:	31676e69 	cmncc	r7, r9, ror #28
     928:	2f303239 	svccs	0x00303239
     92c:	34325343 	ldrtcc	r5, [r2], #-835	; 0x343
     930:	2f584c30 	svccs	0x00584c30
     934:	34327363 	ldrtcc	r7, [r2], #-867	; 0x363
     938:	2d786c30 	ldclcs	12, cr6, [r8, #-192]!	; 0xffffff40
     93c:	70733032 	rsbsvc	r3, r3, r2, lsr r0
     940:	696c2f72 	stmdbvs	ip!, {r1, r4, r5, r6, r8, r9, sl, fp, sp}^
     944:	2f697062 	svccs	0x00697062
     948:	6c636e69 	stclvs	14, cr6, [r3], #-420	; 0xfffffe5c
     94c:	00656475 	rsbeq	r6, r5, r5, ror r4
     950:	74757000 	ldrbtvc	r7, [r5], #-0
     954:	72616863 	rsbvc	r6, r1, #6488064	; 0x630000
     958:	0100632e 	tsteq	r0, lr, lsr #6
     95c:	70720000 	rsbsvc	r0, r2, r0
     960:	00682e69 	rsbeq	r2, r8, r9, ror #28
     964:	00000002 	andeq	r0, r0, r2
     968:	b0020500 	andlt	r0, r2, r0, lsl #10
     96c:	14000091 	strne	r0, [r0], #-145	; 0x91
     970:	bc136b4a 	ldclt	11, cr6, [r3], {74}	; 0x4a
     974:	00080213 	andeq	r0, r8, r3, lsl r2
     978:	00a00101 	adceq	r0, r0, r1, lsl #2
     97c:	00020000 	andeq	r0, r2, r0
     980:	00000079 	andeq	r0, r0, r9, ror r0
     984:	0efb0102 	cdpeq	1, 15, cr0, cr11, cr2, {0}
     988:	0101000d 	tsteq	r1, sp
     98c:	00000101 	andeq	r0, r0, r1, lsl #2
     990:	00000100 	andeq	r0, r0, r0, lsl #2
     994:	62696c01 	rsbvs	r6, r9, #256	; 0x100
     998:	552f0063 	strpl	r0, [pc, #-99]!	; 93d <__code_start__-0x76c3>
     99c:	73726573 	cmnvc	r2, #482344960	; 0x1cc00000
     9a0:	6972622f 	ldmdbvs	r2!, {r0, r1, r2, r3, r5, r9, sp, lr}^
     9a4:	756a6e61 	strbvc	r6, [sl, #-3681]!	; 0xe61
     9a8:	65442f6e 	strbvs	r2, [r4, #-3950]	; 0xf6e
     9ac:	6f746b73 	svcvs	0x00746b73
     9b0:	63732f70 	cmnvs	r3, #112, 30	; 0x1c0
     9b4:	6c6f6f68 	stclvs	15, cr6, [pc], #-416	; 81c <__code_start__-0x77e4>
     9b8:	7270532f 	rsbsvc	r5, r0, #-1140850688	; 0xbc000000
     9bc:	31676e69 	cmncc	r7, r9, ror #28
     9c0:	2f303239 	svccs	0x00303239
     9c4:	34325343 	ldrtcc	r5, [r2], #-835	; 0x343
     9c8:	2f584c30 	svccs	0x00584c30
     9cc:	34327363 	ldrtcc	r7, [r2], #-867	; 0x363
     9d0:	2d786c30 	ldclcs	12, cr6, [r8, #-192]!	; 0xffffff40
     9d4:	70733032 	rsbsvc	r3, r3, r2, lsr r0
     9d8:	696c2f72 	stmdbvs	ip!, {r1, r4, r5, r6, r8, r9, sl, fp, sp}^
     9dc:	2f697062 	svccs	0x00697062
     9e0:	6c636e69 	stclvs	14, cr6, [r3], #-420	; 0xfffffe5c
     9e4:	00656475 	rsbeq	r6, r5, r5, ror r4
     9e8:	74757000 	ldrbtvc	r7, [r5], #-0
     9ec:	00632e6b 	rsbeq	r2, r3, fp, ror #28
     9f0:	72000001 	andvc	r0, r0, #1
     9f4:	682e6970 	stmdavs	lr!, {r4, r5, r6, r8, fp, sp, lr}
     9f8:	00000200 	andeq	r0, r0, r0, lsl #4
     9fc:	02050000 	andeq	r0, r5, #0
     a00:	000091ec 	andeq	r9, r0, ip, ror #3
     a04:	002d4c15 	eoreq	r4, sp, r5, lsl ip
     a08:	2f020402 	svccs	0x00020402
     a0c:	02040200 	andeq	r0, r4, #0, 4
     a10:	04020049 	streq	r0, [r2], #-73	; 0x49
     a14:	062e0601 	strteq	r0, [lr], -r1, lsl #12
     a18:	0006026b 	andeq	r0, r6, fp, ror #4
     a1c:	01f10101 	mvnseq	r0, r1, lsl #2
     a20:	00020000 	andeq	r0, r2, r0
     a24:	000000e9 	andeq	r0, r0, r9, ror #1
     a28:	0efb0102 	cdpeq	1, 15, cr0, cr11, cr2, {0}
     a2c:	0101000d 	tsteq	r1, sp
     a30:	00000101 	andeq	r0, r0, r1, lsl #2
     a34:	00000100 	andeq	r0, r0, r0, lsl #2
     a38:	62696c01 	rsbvs	r6, r9, #256	; 0x100
     a3c:	752f0063 	strvc	r0, [pc, #-99]!	; 9e1 <__code_start__-0x761f>
     a40:	6c2f7273 	sfmvs	f7, 4, [pc], #-460	; 87c <__code_start__-0x7784>
     a44:	6c61636f 	stclvs	3, cr6, [r1], #-444	; 0xfffffe44
     a48:	6c65432f 	stclvs	3, cr4, [r5], #-188	; 0xffffff44
     a4c:	2f72616c 	svccs	0x0072616c
     a50:	2d6d7261 	sfmcs	f7, 2, [sp, #-388]!	; 0xfffffe7c
     a54:	656e6f6e 	strbvs	r6, [lr, #-3950]!	; 0xf6e
     a58:	6261652d 	rsbvs	r6, r1, #188743680	; 0xb400000
     a5c:	2e342f69 	cdpcs	15, 3, cr2, cr4, cr9, {3}
     a60:	2d332e38 	ldccs	14, cr2, [r3, #-224]!	; 0xffffff20
     a64:	37317363 	ldrcc	r7, [r1, -r3, ror #6]!
     a68:	6c2f6530 	cfstr32vs	mvfx6, [pc], #-192	; 9b0 <__code_start__-0x7650>
     a6c:	672f6269 	strvs	r6, [pc, -r9, ror #4]!
     a70:	612f6363 	teqvs	pc, r3, ror #6
     a74:	6e2d6d72 	mcrvs	13, 1, r6, cr13, cr2, {3}
     a78:	2d656e6f 	stclcs	14, cr6, [r5, #-444]!	; 0xfffffe44
     a7c:	69626165 	stmdbvs	r2!, {r0, r2, r5, r6, r8, sp, lr}^
     a80:	382e342f 	stmdacc	lr!, {r0, r1, r2, r3, r5, sl, ip, sp}
     a84:	692f332e 	stmdbvs	pc!, {r1, r2, r3, r5, r8, r9, ip, sp}	; <UNPREDICTABLE>
     a88:	756c636e 	strbvc	r6, [ip, #-878]!	; 0x36e
     a8c:	2f006564 	svccs	0x00006564
     a90:	72657355 	rsbvc	r7, r5, #1409286145	; 0x54000001
     a94:	72622f73 	rsbvc	r2, r2, #460	; 0x1cc
     a98:	6a6e6169 	bvs	1b99044 <__bss_end__+0x1b8c5c4>
     a9c:	442f6e75 	strtmi	r6, [pc], #-3701	; aa4 <__code_start__-0x755c>
     aa0:	746b7365 	strbtvc	r7, [fp], #-869	; 0x365
     aa4:	732f706f 	teqvc	pc, #111	; 0x6f
     aa8:	6f6f6863 	svcvs	0x006f6863
     aac:	70532f6c 	subsvc	r2, r3, ip, ror #30
     ab0:	676e6972 			; <UNDEFINED> instruction: 0x676e6972
     ab4:	30323931 	eorscc	r3, r2, r1, lsr r9
     ab8:	3253432f 	subscc	r4, r3, #-1140850688	; 0xbc000000
     abc:	584c3034 	stmdapl	ip, {r2, r4, r5, ip, sp}^
     ac0:	3273632f 	rsbscc	r6, r3, #-1140850688	; 0xbc000000
     ac4:	786c3034 	stmdavc	ip!, {r2, r4, r5, ip, sp}^
     ac8:	7330322d 	teqvc	r0, #-805306366	; 0xd0000002
     acc:	6c2f7270 	sfmvs	f7, 4, [pc], #-448	; 914 <__code_start__-0x76ec>
     ad0:	69706269 	ldmdbvs	r0!, {r0, r3, r5, r6, r9, sp, lr}^
     ad4:	636e692f 	cmnvs	lr, #770048	; 0xbc000
     ad8:	6564756c 	strbvs	r7, [r4, #-1388]!	; 0x56c
     adc:	61760000 	cmnvs	r6, r0
     ae0:	6972702d 	ldmdbvs	r2!, {r0, r2, r3, r5, ip, sp, lr}^
     ae4:	2e6b746e 	cdpcs	4, 6, cr7, cr11, cr14, {3}
     ae8:	00010063 	andeq	r0, r1, r3, rrx
     aec:	64747300 	ldrbtvs	r7, [r4], #-768	; 0x300
     af0:	2e677261 	cdpcs	2, 6, cr7, cr7, cr1, {3}
     af4:	00020068 	andeq	r0, r2, r8, rrx
     af8:	69707200 	ldmdbvs	r0!, {r9, ip, sp, lr}^
     afc:	0300682e 	movweq	r6, #2094	; 0x82e
     b00:	623c0000 	eorsvs	r0, ip, #0
     b04:	746c6975 	strbtvc	r6, [ip], #-2421	; 0x975
     b08:	3e6e692d 	cdpcc	9, 6, cr6, cr14, cr13, {1}
     b0c:	00000000 	andeq	r0, r0, r0
     b10:	02050000 	andeq	r0, r5, #0
     b14:	00009220 	andeq	r9, r0, r0, lsr #4
     b18:	01012603 	tsteq	r1, r3, lsl #12
     b1c:	2d3113a5 	ldccs	3, cr1, [r1, #-660]!	; 0xfffffd6c
     b20:	02040200 	andeq	r0, r4, #0, 4
     b24:	0402002f 	streq	r0, [r2], #-47	; 0x2f
     b28:	02002d02 	andeq	r2, r0, #2, 26	; 0x80
     b2c:	002f0204 	eoreq	r0, pc, r4, lsl #4
     b30:	2d010402 	cfstrscs	mvf0, [r1, #-8]
     b34:	14304c4c 	ldrtne	r4, [r0], #-3148	; 0xc4c
     b38:	004f2f4b 	subeq	r2, pc, fp, asr #30
     b3c:	67020402 	strvs	r0, [r2, -r2, lsl #8]
     b40:	01040200 	mrseq	r0, R12_usr
     b44:	304d4c65 	subcc	r4, sp, r5, ror #24
     b48:	30312fa0 	eorscc	r2, r1, r0, lsr #31
     b4c:	84162602 	ldrhi	r2, [r6], #-1538	; 0x602
     b50:	02002c2d 	andeq	r2, r0, #11520	; 0x2d00
     b54:	00300104 	eorseq	r0, r0, r4, lsl #2
     b58:	33010402 	movwcc	r0, #5122	; 0x1402
     b5c:	02006606 	andeq	r6, r0, #6291456	; 0x600000
     b60:	002e0104 	eoreq	r0, lr, r4, lsl #2
     b64:	06010402 	streq	r0, [r1], -r2, lsl #8
     b68:	2f672108 	svccs	0x00672108
     b6c:	03827303 	orreq	r7, r2, #201326592	; 0xc000000
     b70:	02002e13 	andeq	r2, r0, #304	; 0x130
     b74:	66060104 	strvs	r0, [r6], -r4, lsl #2
     b78:	01040200 	mrseq	r0, R12_usr
     b7c:	4b4b8306 	blmi	12e179c <__bss_end__+0x12d4d1c>
     b80:	034b3167 	movteq	r3, #45415	; 0xb167
     b84:	23032e65 	movwcs	r2, #15973	; 0x3e65
     b88:	0402002e 	streq	r0, [r2], #-46	; 0x2e
     b8c:	002e0601 	eoreq	r0, lr, r1, lsl #12
     b90:	06010402 	streq	r0, [r1], -r2, lsl #8
     b94:	0402009f 	streq	r0, [r2], #-159	; 0x9f
     b98:	23086a01 	movwcs	r6, #35329	; 0x8a01
     b9c:	7fa403d7 	svcvc	0x00a403d7
     ba0:	004b3c08 	subeq	r3, fp, r8, lsl #24
     ba4:	06010402 	streq	r0, [r1], -r2, lsl #8
     ba8:	2108064a 	tstcs	r8, sl, asr #12
     bac:	034b2f4b 	movteq	r2, #48971	; 0xbf4b
     bb0:	9ff200db 	svcls	0x00f200db
     bb4:	4b32484c 	blmi	c92cec <__bss_end__+0xc8626c>
     bb8:	2f4b842f 	svccs	0x004b842f
     bbc:	30314d2d 	eorscc	r4, r1, sp, lsr #26
     bc0:	0200832f 	andeq	r8, r0, #-1140850688	; 0xbc000000
     bc4:	be2c0104 	suflte	f0, f4, f4
     bc8:	01040200 	mrseq	r0, R12_usr
     bcc:	08064a06 	stmdaeq	r6, {r1, r2, r9, fp, lr}
     bd0:	16360222 	ldrtne	r0, [r6], -r2, lsr #4
     bd4:	08d60e03 	ldmeq	r6, {r0, r1, r9, sl, fp}^
     bd8:	21083021 	tstcs	r8, r1, lsr #32
     bdc:	30210831 	eorcc	r0, r1, r1, lsr r8
     be0:	4b302108 	blmi	c09008 <__bss_end__+0xbfc588>
     be4:	30210830 	eorcc	r0, r1, r0, lsr r8
     be8:	d983834b 	stmible	r3, {r0, r1, r3, r6, r8, r9, pc}
     bec:	02002f31 	andeq	r2, r0, #49, 30	; 0xc4
     bf0:	00650104 	rsbeq	r0, r5, r4, lsl #2
     bf4:	06020402 	streq	r0, [r2], -r2, lsl #8
     bf8:	0402004a 	streq	r0, [r2], #-74	; 0x4a
     bfc:	bf030601 	svclt	0x00030601
     c00:	0200667f 	andeq	r6, r0, #133169152	; 0x7f00000
     c04:	66060204 	strvs	r0, [r6], -r4, lsl #4
     c08:	00c50306 	sbceq	r0, r5, r6, lsl #6
     c0c:	1602684a 	strne	r6, [r2], -sl, asr #16
     c10:	42010100 	andmi	r0, r1, #0, 2
     c14:	02000000 	andeq	r0, r0, #0
     c18:	00002800 	andeq	r2, r0, r0, lsl #16
     c1c:	fb010200 	blx	41426 <__bss_end__+0x349a6>
     c20:	01000d0e 	tsteq	r0, lr, lsl #26
     c24:	00010101 	andeq	r0, r1, r1, lsl #2
     c28:	00010000 	andeq	r0, r1, r0
     c2c:	74730100 	ldrbtvc	r0, [r3], #-256	; 0x100
     c30:	2d666661 	stclcs	6, cr6, [r6, #-388]!	; 0xfffffe7c
     c34:	00637273 	rsbeq	r7, r3, r3, ror r2
     c38:	63616300 	cmnvs	r1, #0, 6
     c3c:	632e6568 	teqvs	lr, #104, 10	; 0x1a000000
     c40:	00000100 	andeq	r0, r0, r0, lsl #2
     c44:	02050000 	andeq	r0, r5, #0
     c48:	00009798 	muleq	r0, r8, r7
     c4c:	2f301414 	svccs	0x00301414
     c50:	2f31144e 	svccs	0x0031144e
     c54:	01000402 	tsteq	r0, r2, lsl #8
     c58:	00009d01 	andeq	r9, r0, r1, lsl #26
     c5c:	86000200 	strhi	r0, [r0], -r0, lsl #4
     c60:	02000000 	andeq	r0, r0, #0
     c64:	0d0efb01 	vstreq	d15, [lr, #-4]
     c68:	01010100 	mrseq	r0, (UNDEF: 17)
     c6c:	00000001 	andeq	r0, r0, r1
     c70:	01000001 	tsteq	r0, r1
     c74:	66617473 			; <UNDEFINED> instruction: 0x66617473
     c78:	72732d66 	rsbsvc	r2, r3, #6528	; 0x1980
     c7c:	552f0063 	strpl	r0, [pc, #-99]!	; c21 <__code_start__-0x73df>
     c80:	73726573 	cmnvc	r2, #482344960	; 0x1cc00000
     c84:	6972622f 	ldmdbvs	r2!, {r0, r1, r2, r3, r5, r9, sp, lr}^
     c88:	756a6e61 	strbvc	r6, [sl, #-3681]!	; 0xe61
     c8c:	65442f6e 	strbvs	r2, [r4, #-3950]	; 0xf6e
     c90:	6f746b73 	svcvs	0x00746b73
     c94:	63732f70 	cmnvs	r3, #112, 30	; 0x1c0
     c98:	6c6f6f68 	stclvs	15, cr6, [pc], #-416	; b00 <__code_start__-0x7500>
     c9c:	7270532f 	rsbsvc	r5, r0, #-1140850688	; 0xbc000000
     ca0:	31676e69 	cmncc	r7, r9, ror #28
     ca4:	2f303239 	svccs	0x00303239
     ca8:	34325343 	ldrtcc	r5, [r2], #-835	; 0x343
     cac:	2f584c30 	svccs	0x00584c30
     cb0:	34327363 	ldrtcc	r7, [r2], #-867	; 0x363
     cb4:	2d786c30 	ldclcs	12, cr6, [r8, #-192]!	; 0xffffff40
     cb8:	70733032 	rsbsvc	r3, r3, r2, lsr r0
     cbc:	696c2f72 	stmdbvs	ip!, {r1, r4, r5, r6, r8, r9, sl, fp, sp}^
     cc0:	2f697062 	svccs	0x00697062
     cc4:	6c636e69 	stclvs	14, cr6, [r3], #-420	; 0xfffffe5c
     cc8:	00656475 	rsbeq	r6, r5, r5, ror r4
     ccc:	656c6300 	strbvs	r6, [ip, #-768]!	; 0x300
     cd0:	722d6e61 	eorvc	r6, sp, #1552	; 0x610
     cd4:	6f6f6265 	svcvs	0x006f6265
     cd8:	00632e74 	rsbeq	r2, r3, r4, ror lr
     cdc:	72000001 	andvc	r0, r0, #1
     ce0:	682e6970 	stmdavs	lr!, {r4, r5, r6, r8, fp, sp, lr}
     ce4:	00000200 	andeq	r0, r0, r0, lsl #4
     ce8:	02050000 	andeq	r0, r5, #0
     cec:	000097b8 			; <UNDEFINED> instruction: 0x000097b8
     cf0:	832f2f15 	teqhi	pc, #21, 30	; 0x54
     cf4:	0006024b 	andeq	r0, r6, fp, asr #4
     cf8:	00a60101 	adceq	r0, r6, r1, lsl #2
     cfc:	00020000 	andeq	r0, r2, r0
     d00:	00000080 	andeq	r0, r0, r0, lsl #1
     d04:	0efb0102 	cdpeq	1, 15, cr0, cr11, cr2, {0}
     d08:	0101000d 	tsteq	r1, sp
     d0c:	00000101 	andeq	r0, r0, r1, lsl #2
     d10:	00000100 	andeq	r0, r0, r0, lsl #2
     d14:	61747301 	cmnvs	r4, r1, lsl #6
     d18:	732d6666 	teqvc	sp, #106954752	; 0x6600000
     d1c:	2f006372 	svccs	0x00006372
     d20:	72657355 	rsbvc	r7, r5, #1409286145	; 0x54000001
     d24:	72622f73 	rsbvc	r2, r2, #460	; 0x1cc
     d28:	6a6e6169 	bvs	1b992d4 <__bss_end__+0x1b8c854>
     d2c:	442f6e75 	strtmi	r6, [pc], #-3701	; d34 <__code_start__-0x72cc>
     d30:	746b7365 	strbtvc	r7, [fp], #-869	; 0x365
     d34:	732f706f 	teqvc	pc, #111	; 0x6f
     d38:	6f6f6863 	svcvs	0x006f6863
     d3c:	70532f6c 	subsvc	r2, r3, ip, ror #30
     d40:	676e6972 			; <UNDEFINED> instruction: 0x676e6972
     d44:	30323931 	eorscc	r3, r2, r1, lsr r9
     d48:	3253432f 	subscc	r4, r3, #-1140850688	; 0xbc000000
     d4c:	584c3034 	stmdapl	ip, {r2, r4, r5, ip, sp}^
     d50:	3273632f 	rsbscc	r6, r3, #-1140850688	; 0xbc000000
     d54:	786c3034 	stmdavc	ip!, {r2, r4, r5, ip, sp}^
     d58:	7330322d 	teqvc	r0, #-805306366	; 0xd0000002
     d5c:	6c2f7270 	sfmvs	f7, 4, [pc], #-448	; ba4 <__code_start__-0x745c>
     d60:	69706269 	ldmdbvs	r0!, {r0, r3, r5, r6, r9, sp, lr}^
     d64:	636e692f 	cmnvs	lr, #770048	; 0xbc000
     d68:	6564756c 	strbvs	r7, [r4, #-1388]!	; 0x56c
     d6c:	73630000 	cmnvc	r3, #0
     d70:	74726174 	ldrbtvc	r6, [r2], #-372	; 0x174
     d74:	0100632e 	tsteq	r0, lr, lsr #6
     d78:	70720000 	rsbsvc	r0, r2, r0
     d7c:	00682e69 	rsbeq	r2, r8, r9, ror #28
     d80:	00000002 	andeq	r0, r0, r2
     d84:	e4020500 	str	r0, [r2], #-1280	; 0x500
     d88:	03000097 	movweq	r0, #151	; 0x97
     d8c:	3132010c 	teqcc	r2, ip, lsl #2
     d90:	002f2d2f 	eoreq	r2, pc, pc, lsr #26
     d94:	49010402 	stmdbmi	r1, {r1, sl}
     d98:	034a0903 	movteq	r0, #43267	; 0xa903
     d9c:	022f2e0d 	eoreq	r2, pc, #13, 28	; 0xd0
     da0:	01010006 	tsteq	r1, r6
     da4:	000000a2 	andeq	r0, r0, r2, lsr #1
     da8:	008e0002 	addeq	r0, lr, r2
     dac:	01020000 	mrseq	r0, (UNDEF: 2)
     db0:	000d0efb 	strdeq	r0, [sp], -fp
     db4:	01010101 	tsteq	r1, r1, lsl #2
     db8:	01000000 	mrseq	r0, (UNDEF: 0)
     dbc:	73010000 	movwvc	r0, #4096	; 0x1000
     dc0:	66666174 			; <UNDEFINED> instruction: 0x66666174
     dc4:	6372732d 	cmnvs	r2, #-1275068416	; 0xb4000000
     dc8:	73552f00 	cmpvc	r5, #0, 30
     dcc:	2f737265 	svccs	0x00737265
     dd0:	61697262 	cmnvs	r9, r2, ror #4
     dd4:	6e756a6e 	vsubvs.f32	s13, s10, s29
     dd8:	7365442f 	cmnvc	r5, #788529152	; 0x2f000000
     ddc:	706f746b 	rsbvc	r7, pc, fp, ror #8
     de0:	6863732f 	stmdavs	r3!, {r0, r1, r2, r3, r5, r8, r9, ip, sp, lr}^
     de4:	2f6c6f6f 	svccs	0x006c6f6f
     de8:	69727053 	ldmdbvs	r2!, {r0, r1, r4, r6, ip, sp, lr}^
     dec:	3931676e 	ldmdbcc	r1!, {r1, r2, r3, r5, r6, r8, r9, sl, sp, lr}
     df0:	432f3032 	teqmi	pc, #50	; 0x32
     df4:	30343253 	eorscc	r3, r4, r3, asr r2
     df8:	632f584c 	teqvs	pc, #76, 16	; 0x4c0000
     dfc:	30343273 	eorscc	r3, r4, r3, ror r2
     e00:	322d786c 	eorcc	r7, sp, #108, 16	; 0x6c0000
     e04:	72707330 	rsbsvc	r7, r0, #48, 6	; 0xc0000000
     e08:	62696c2f 	rsbvs	r6, r9, #12032	; 0x2f00
     e0c:	692f6970 	stmdbvs	pc!, {r4, r5, r6, r8, fp, sp, lr}	; <UNPREDICTABLE>
     e10:	756c636e 	strbvc	r6, [ip, #-878]!	; 0x36e
     e14:	00006564 	andeq	r6, r0, r4, ror #10
     e18:	61666564 	cmnvs	r6, r4, ror #10
     e1c:	2d746c75 	ldclcs	12, cr6, [r4, #-468]!	; 0xfffffe2c
     e20:	646e6168 	strbtvs	r6, [lr], #-360	; 0x168
     e24:	2d72656c 	cfldr64cs	mvdx6, [r2, #-432]!	; 0xfffffe50
     e28:	74736166 	ldrbtvc	r6, [r3], #-358	; 0x166
     e2c:	0100632e 	tsteq	r0, lr, lsr #6
     e30:	70720000 	rsbsvc	r0, r2, r0
     e34:	00682e69 	rsbeq	r2, r8, r9, ror #28
     e38:	00000002 	andeq	r0, r0, r2
     e3c:	1c020500 	cfstr32ne	mvfx0, [r2], {-0}
     e40:	13000098 	movwne	r0, #152	; 0x98
     e44:	001c0266 	andseq	r0, ip, r6, ror #4
     e48:	00a30101 	adceq	r0, r3, r1, lsl #2
     e4c:	00020000 	andeq	r0, r2, r0
     e50:	0000008f 	andeq	r0, r0, pc, lsl #1
     e54:	0efb0102 	cdpeq	1, 15, cr0, cr11, cr2, {0}
     e58:	0101000d 	tsteq	r1, sp
     e5c:	00000101 	andeq	r0, r0, r1, lsl #2
     e60:	00000100 	andeq	r0, r0, r0, lsl #2
     e64:	61747301 	cmnvs	r4, r1, lsl #6
     e68:	732d6666 	teqvc	sp, #106954752	; 0x6600000
     e6c:	2f006372 	svccs	0x00006372
     e70:	72657355 	rsbvc	r7, r5, #1409286145	; 0x54000001
     e74:	72622f73 	rsbvc	r2, r2, #460	; 0x1cc
     e78:	6a6e6169 	bvs	1b99424 <__bss_end__+0x1b8c9a4>
     e7c:	442f6e75 	strtmi	r6, [pc], #-3701	; e84 <__code_start__-0x717c>
     e80:	746b7365 	strbtvc	r7, [fp], #-869	; 0x365
     e84:	732f706f 	teqvc	pc, #111	; 0x6f
     e88:	6f6f6863 	svcvs	0x006f6863
     e8c:	70532f6c 	subsvc	r2, r3, ip, ror #30
     e90:	676e6972 			; <UNDEFINED> instruction: 0x676e6972
     e94:	30323931 	eorscc	r3, r2, r1, lsr r9
     e98:	3253432f 	subscc	r4, r3, #-1140850688	; 0xbc000000
     e9c:	584c3034 	stmdapl	ip, {r2, r4, r5, ip, sp}^
     ea0:	3273632f 	rsbscc	r6, r3, #-1140850688	; 0xbc000000
     ea4:	786c3034 	stmdavc	ip!, {r2, r4, r5, ip, sp}^
     ea8:	7330322d 	teqvc	r0, #-805306366	; 0xd0000002
     eac:	6c2f7270 	sfmvs	f7, 4, [pc], #-448	; cf4 <__code_start__-0x730c>
     eb0:	69706269 	ldmdbvs	r0!, {r0, r3, r5, r6, r9, sp, lr}^
     eb4:	636e692f 	cmnvs	lr, #770048	; 0xbc000
     eb8:	6564756c 	strbvs	r7, [r4, #-1388]!	; 0x56c
     ebc:	65640000 	strbvs	r0, [r4, #-0]!
     ec0:	6c756166 	ldfvse	f6, [r5], #-408	; 0xfffffe68
     ec4:	61682d74 	smcvs	33492	; 0x82d4
     ec8:	656c646e 	strbvs	r6, [ip, #-1134]!	; 0x46e
     ecc:	65722d72 	ldrbvs	r2, [r2, #-3442]!	; 0xd72
     ed0:	2e746573 	mrccs	5, 3, r6, cr4, cr3, {3}
     ed4:	00010063 	andeq	r0, r1, r3, rrx
     ed8:	69707200 	ldmdbvs	r0!, {r9, ip, sp, lr}^
     edc:	0200682e 	andeq	r6, r0, #3014656	; 0x2e0000
     ee0:	00000000 	andeq	r0, r0, r0
     ee4:	98600205 	stmdals	r0!, {r0, r2, r9}^
     ee8:	66130000 	ldrvs	r0, [r3], -r0
     eec:	01001c02 	tsteq	r0, r2, lsl #24
     ef0:	0000ac01 	andeq	sl, r0, r1, lsl #24
     ef4:	98000200 	stmdals	r0, {r9}
     ef8:	02000000 	andeq	r0, r0, #0
     efc:	0d0efb01 	vstreq	d15, [lr, #-4]
     f00:	01010100 	mrseq	r0, (UNDEF: 17)
     f04:	00000001 	andeq	r0, r0, r1
     f08:	01000001 	tsteq	r0, r1
     f0c:	66617473 			; <UNDEFINED> instruction: 0x66617473
     f10:	72732d66 	rsbsvc	r2, r3, #6528	; 0x1980
     f14:	552f0063 	strpl	r0, [pc, #-99]!	; eb9 <__code_start__-0x7147>
     f18:	73726573 	cmnvc	r2, #482344960	; 0x1cc00000
     f1c:	6972622f 	ldmdbvs	r2!, {r0, r1, r2, r3, r5, r9, sp, lr}^
     f20:	756a6e61 	strbvc	r6, [sl, #-3681]!	; 0xe61
     f24:	65442f6e 	strbvs	r2, [r4, #-3950]	; 0xf6e
     f28:	6f746b73 	svcvs	0x00746b73
     f2c:	63732f70 	cmnvs	r3, #112, 30	; 0x1c0
     f30:	6c6f6f68 	stclvs	15, cr6, [pc], #-416	; d98 <__code_start__-0x7268>
     f34:	7270532f 	rsbsvc	r5, r0, #-1140850688	; 0xbc000000
     f38:	31676e69 	cmncc	r7, r9, ror #28
     f3c:	2f303239 	svccs	0x00303239
     f40:	34325343 	ldrtcc	r5, [r2], #-835	; 0x343
     f44:	2f584c30 	svccs	0x00584c30
     f48:	34327363 	ldrtcc	r7, [r2], #-867	; 0x363
     f4c:	2d786c30 	ldclcs	12, cr6, [r8, #-192]!	; 0xffffff40
     f50:	70733032 	rsbsvc	r3, r3, r2, lsr r0
     f54:	696c2f72 	stmdbvs	ip!, {r1, r4, r5, r6, r8, r9, sl, fp, sp}^
     f58:	2f697062 	svccs	0x00697062
     f5c:	6c636e69 	stclvs	14, cr6, [r3], #-420	; 0xfffffe5c
     f60:	00656475 	rsbeq	r6, r5, r5, ror r4
     f64:	66656400 	strbtvs	r6, [r5], -r0, lsl #8
     f68:	746c7561 	strbtvc	r7, [ip], #-1377	; 0x561
     f6c:	6e61682d 	cdpvs	8, 6, cr6, cr1, cr13, {1}
     f70:	72656c64 	rsbvc	r6, r5, #100, 24	; 0x6400
     f74:	646e752d 	strbtvs	r7, [lr], #-1325	; 0x52d
     f78:	6e696665 	cdpvs	6, 6, cr6, cr9, cr5, {3}
     f7c:	692d6465 	pushvs	{r0, r2, r5, r6, sl, sp, lr}
     f80:	2e74736e 	cdpcs	3, 7, cr7, cr4, cr14, {3}
     f84:	00010063 	andeq	r0, r1, r3, rrx
     f88:	69707200 	ldmdbvs	r0!, {r9, ip, sp, lr}^
     f8c:	0200682e 	andeq	r6, r0, #3014656	; 0x2e0000
     f90:	00000000 	andeq	r0, r0, r0
     f94:	98a40205 	stmials	r4!, {r0, r2, r9}
     f98:	66130000 	ldrvs	r0, [r3], -r0
     f9c:	01001c02 	tsteq	r0, r2, lsl #24
     fa0:	00004701 	andeq	r4, r0, r1, lsl #14
     fa4:	33000200 	movwcc	r0, #512	; 0x200
     fa8:	02000000 	andeq	r0, r0, #0
     fac:	0d0efb01 	vstreq	d15, [lr, #-4]
     fb0:	01010100 	mrseq	r0, (UNDEF: 17)
     fb4:	00000001 	andeq	r0, r0, r1
     fb8:	01000001 	tsteq	r0, r1
     fbc:	66617473 			; <UNDEFINED> instruction: 0x66617473
     fc0:	72732d66 	rsbsvc	r2, r3, #6528	; 0x1980
     fc4:	64000063 	strvs	r0, [r0], #-99	; 0x63
     fc8:	75616665 	strbvc	r6, [r1, #-1637]!	; 0x665
     fcc:	682d746c 	stmdavs	sp!, {r2, r3, r5, r6, sl, ip, sp, lr}
     fd0:	6c646e61 	stclvs	14, cr6, [r4], #-388	; 0xfffffe7c
     fd4:	2e737265 	cdpcs	2, 7, cr7, cr3, cr5, {3}
     fd8:	00010063 	andeq	r0, r1, r3, rrx
     fdc:	05000000 	streq	r0, [r0, #-0]
     fe0:	0098e802 	addseq	lr, r8, r2, lsl #16
     fe4:	022f1500 	eoreq	r1, pc, #0, 10
     fe8:	01010002 	tsteq	r1, r2
     fec:	000000c9 	andeq	r0, r0, r9, asr #1
     ff0:	009a0002 	addseq	r0, sl, r2
     ff4:	01020000 	mrseq	r0, (UNDEF: 2)
     ff8:	000d0efb 	strdeq	r0, [sp], -fp
     ffc:	01010101 	tsteq	r1, r1, lsl #2
    1000:	01000000 	mrseq	r0, (UNDEF: 0)
    1004:	73010000 	movwvc	r0, #4096	; 0x1000
    1008:	66666174 			; <UNDEFINED> instruction: 0x66666174
    100c:	6372732d 	cmnvs	r2, #-1275068416	; 0xb4000000
    1010:	73552f00 	cmpvc	r5, #0, 30
    1014:	2f737265 	svccs	0x00737265
    1018:	61697262 	cmnvs	r9, r2, ror #4
    101c:	6e756a6e 	vsubvs.f32	s13, s10, s29
    1020:	7365442f 	cmnvc	r5, #788529152	; 0x2f000000
    1024:	706f746b 	rsbvc	r7, pc, fp, ror #8
    1028:	6863732f 	stmdavs	r3!, {r0, r1, r2, r3, r5, r8, r9, ip, sp, lr}^
    102c:	2f6c6f6f 	svccs	0x006c6f6f
    1030:	69727053 	ldmdbvs	r2!, {r0, r1, r4, r6, ip, sp, lr}^
    1034:	3931676e 	ldmdbcc	r1!, {r1, r2, r3, r5, r6, r8, r9, sl, sp, lr}
    1038:	432f3032 	teqmi	pc, #50	; 0x32
    103c:	30343253 	eorscc	r3, r4, r3, asr r2
    1040:	632f584c 	teqvs	pc, #76, 16	; 0x4c0000
    1044:	30343273 	eorscc	r3, r4, r3, ror r2
    1048:	322d786c 	eorcc	r7, sp, #108, 16	; 0x6c0000
    104c:	72707330 	rsbsvc	r7, r0, #48, 6	; 0xc0000000
    1050:	62696c2f 	rsbvs	r6, r9, #12032	; 0x2f00
    1054:	692f6970 	stmdbvs	pc!, {r4, r5, r6, r8, fp, sp, lr}	; <UNPREDICTABLE>
    1058:	756c636e 	strbvc	r6, [ip, #-878]!	; 0x36e
    105c:	00006564 	andeq	r6, r0, r4, ror #10
    1060:	65746e69 	ldrbvs	r6, [r4, #-3689]!	; 0xe69
    1064:	70757272 	rsbsvc	r7, r5, r2, ror r2
    1068:	632d7374 	teqvs	sp, #116, 6	; 0xd0000001
    106c:	0100632e 	tsteq	r0, lr, lsr #6
    1070:	70720000 	rsbsvc	r0, r2, r0
    1074:	6e692d69 	cdpvs	13, 6, cr2, cr9, cr9, {3}
    1078:	72726574 	rsbsvc	r6, r2, #116, 10	; 0x1d000000
    107c:	73747075 	cmnvc	r4, #117	; 0x75
    1080:	0200682e 	andeq	r6, r0, #3014656	; 0x2e0000
    1084:	70720000 	rsbsvc	r0, r2, r0
    1088:	00682e69 	rsbeq	r2, r8, r9, ror #28
    108c:	00000002 	andeq	r0, r0, r2
    1090:	f0020500 			; <UNDEFINED> instruction: 0xf0020500
    1094:	03000098 	movweq	r0, #152	; 0x98
    1098:	2f31011a 	svccs	0x0031011a
    109c:	83366767 	teqhi	r6, #27000832	; 0x19c0000
    10a0:	02002d2f 	andeq	r2, r0, #3008	; 0xbc0
    10a4:	002f0204 	eoreq	r0, pc, r4, lsl #4
    10a8:	65020402 	strvs	r0, [r2, #-1026]	; 0x402
    10ac:	01040200 	mrseq	r0, R12_usr
    10b0:	4c062e06 	stcmi	14, cr2, [r6], {6}
    10b4:	01000a02 	tsteq	r0, r2, lsl #20
    10b8:	0000a201 	andeq	sl, r0, r1, lsl #4
    10bc:	80000200 	andhi	r0, r0, r0, lsl #4
    10c0:	02000000 	andeq	r0, r0, #0
    10c4:	0d0efb01 	vstreq	d15, [lr, #-4]
    10c8:	01010100 	mrseq	r0, (UNDEF: 17)
    10cc:	00000001 	andeq	r0, r0, r1
    10d0:	01000001 	tsteq	r0, r1
    10d4:	66617473 			; <UNDEFINED> instruction: 0x66617473
    10d8:	72732d66 	rsbsvc	r2, r3, #6528	; 0x1980
    10dc:	552f0063 	strpl	r0, [pc, #-99]!	; 1081 <__code_start__-0x6f7f>
    10e0:	73726573 	cmnvc	r2, #482344960	; 0x1cc00000
    10e4:	6972622f 	ldmdbvs	r2!, {r0, r1, r2, r3, r5, r9, sp, lr}^
    10e8:	756a6e61 	strbvc	r6, [sl, #-3681]!	; 0xe61
    10ec:	65442f6e 	strbvs	r2, [r4, #-3950]	; 0xf6e
    10f0:	6f746b73 	svcvs	0x00746b73
    10f4:	63732f70 	cmnvs	r3, #112, 30	; 0x1c0
    10f8:	6c6f6f68 	stclvs	15, cr6, [pc], #-416	; f60 <__code_start__-0x70a0>
    10fc:	7270532f 	rsbsvc	r5, r0, #-1140850688	; 0xbc000000
    1100:	31676e69 	cmncc	r7, r9, ror #28
    1104:	2f303239 	svccs	0x00303239
    1108:	34325343 	ldrtcc	r5, [r2], #-835	; 0x343
    110c:	2f584c30 	svccs	0x00584c30
    1110:	34327363 	ldrtcc	r7, [r2], #-867	; 0x363
    1114:	2d786c30 	ldclcs	12, cr6, [r8, #-192]!	; 0xffffff40
    1118:	70733032 	rsbsvc	r3, r3, r2, lsr r0
    111c:	696c2f72 	stmdbvs	ip!, {r1, r4, r5, r6, r8, r9, sl, fp, sp}^
    1120:	2f697062 	svccs	0x00697062
    1124:	6c636e69 	stclvs	14, cr6, [r3], #-420	; 0xfffffe5c
    1128:	00656475 	rsbeq	r6, r5, r5, ror r4
    112c:	62657200 	rsbvs	r7, r5, #0, 4
    1130:	2e746f6f 	cdpcs	15, 7, cr6, cr4, cr15, {3}
    1134:	00010063 	andeq	r0, r1, r3, rrx
    1138:	69707200 	ldmdbvs	r0!, {r9, ip, sp, lr}^
    113c:	0200682e 	andeq	r6, r0, #3014656	; 0x2e0000
    1140:	00000000 	andeq	r0, r0, r0
    1144:	995c0205 	ldmdbls	ip, {r0, r2, r9}^
    1148:	0d030000 	stceq	0, cr0, [r3, #-0]
    114c:	2f311401 	svccs	0x00311401
    1150:	4b2f1585 	blmi	bc676c <__bss_end__+0xbb9cec>
    1154:	35672f4d 	strbcc	r2, [r7, #-3917]!	; 0xf4d
    1158:	10026752 	andne	r6, r2, r2, asr r7
    115c:	ae010100 	adfges	f0, f1, f0
    1160:	02000000 	andeq	r0, r0, #0
    1164:	00007f00 	andeq	r7, r0, r0, lsl #30
    1168:	fb010200 	blx	41972 <__bss_end__+0x34ef2>
    116c:	01000d0e 	tsteq	r0, lr, lsl #26
    1170:	00010101 	andeq	r0, r1, r1, lsl #2
    1174:	00010000 	andeq	r0, r1, r0
    1178:	74730100 	ldrbtvc	r0, [r3], #-256	; 0x100
    117c:	2d666661 	stclcs	6, cr6, [r6, #-388]!	; 0xfffffe7c
    1180:	00637273 	rsbeq	r7, r3, r3, ror r2
    1184:	6573552f 	ldrbvs	r5, [r3, #-1327]!	; 0x52f
    1188:	622f7372 	eorvs	r7, pc, #-939524095	; 0xc8000001
    118c:	6e616972 	mcrvs	9, 3, r6, cr1, cr2, {3}
    1190:	2f6e756a 	svccs	0x006e756a
    1194:	6b736544 	blvs	1cda6ac <__bss_end__+0x1ccdc2c>
    1198:	2f706f74 	svccs	0x00706f74
    119c:	6f686373 	svcvs	0x00686373
    11a0:	532f6c6f 	teqpl	pc, #28416	; 0x6f00
    11a4:	6e697270 	mcrvs	2, 3, r7, cr9, cr0, {3}
    11a8:	32393167 	eorscc	r3, r9, #-1073741799	; 0xc0000019
    11ac:	53432f30 	movtpl	r2, #16176	; 0x3f30
    11b0:	4c303432 	cfldrsmi	mvf3, [r0], #-200	; 0xffffff38
    11b4:	73632f58 	cmnvc	r3, #88, 30	; 0x160
    11b8:	6c303432 	cfldrsvs	mvf3, [r0], #-200	; 0xffffff38
    11bc:	30322d78 	eorscc	r2, r2, r8, ror sp
    11c0:	2f727073 	svccs	0x00727073
    11c4:	7062696c 	rsbvc	r6, r2, ip, ror #18
    11c8:	6e692f69 	cdpvs	15, 6, cr2, cr9, cr9, {3}
    11cc:	64756c63 	ldrbtvs	r6, [r5], #-3171	; 0xc63
    11d0:	74000065 	strvc	r0, [r0], #-101	; 0x65
    11d4:	72656d69 	rsbvc	r6, r5, #6720	; 0x1a40
    11d8:	0100632e 	tsteq	r0, lr, lsr #6
    11dc:	70720000 	rsbsvc	r0, r2, r0
    11e0:	00682e69 	rsbeq	r2, r8, r9, ror #28
    11e4:	00000002 	andeq	r0, r0, r2
    11e8:	d0020500 	andle	r0, r2, r0, lsl #10
    11ec:	16000099 			; <UNDEFINED> instruction: 0x16000099
    11f0:	002d2f14 	eoreq	r2, sp, r4, lsl pc
    11f4:	06010402 	streq	r0, [r1], -r2, lsl #8
    11f8:	316d062e 	cmncc	sp, lr, lsr #12
    11fc:	314d4b2f 	cmpcc	sp, pc, lsr #22
    1200:	4c304b2f 	ldcmi	11, cr4, [r0], #-188	; 0xffffff44
    1204:	6a2f4c4b 	bvs	bd4338 <__bss_end__+0xbc78b8>
    1208:	2f842f2f 	svccs	0x00842f2f
    120c:	01000802 	tsteq	r0, r2, lsl #16
    1210:	00014801 	andeq	r4, r1, r1, lsl #16
    1214:	02000200 	andeq	r0, r0, #0, 4
    1218:	02000001 	andeq	r0, r0, #1
    121c:	0d0efb01 	vstreq	d15, [lr, #-4]
    1220:	01010100 	mrseq	r0, (UNDEF: 17)
    1224:	00000001 	andeq	r0, r0, r1
    1228:	01000001 	tsteq	r0, r1
    122c:	7273752f 	rsbsvc	r7, r3, #197132288	; 0xbc00000
    1230:	636e692f 	cmnvs	lr, #770048	; 0xbc000
    1234:	6564756c 	strbvs	r7, [r4, #-1388]!	; 0x56c
    1238:	77656e2f 	strbvc	r6, [r5, -pc, lsr #28]!
    123c:	2f62696c 	svccs	0x0062696c
    1240:	00737973 	rsbseq	r7, r3, r3, ror r9
    1244:	7273752f 	rsbsvc	r7, r3, #197132288	; 0xbc00000
    1248:	62696c2f 	rsbvs	r6, r9, #12032	; 0x2f00
    124c:	6363672f 	cmnvs	r3, #12320768	; 0xbc0000
    1250:	6d72612f 	ldfvse	f6, [r2, #-188]!	; 0xffffff44
    1254:	6e6f6e2d 	cdpvs	14, 6, cr6, cr15, cr13, {1}
    1258:	61652d65 	cmnvs	r5, r5, ror #26
    125c:	362f6962 	strtcc	r6, [pc], -r2, ror #18
    1260:	312e332e 	teqcc	lr, lr, lsr #6
    1264:	636e692f 	cmnvs	lr, #770048	; 0xbc000
    1268:	6564756c 	strbvs	r7, [r4, #-1388]!	; 0x56c
    126c:	6f682f00 	svcvs	0x00682f00
    1270:	652f656d 	strvs	r6, [pc, #-1389]!	; d0b <__code_start__-0x72f5>
    1274:	656c676e 	strbvs	r6, [ip, #-1902]!	; 0x76e
    1278:	6c632f72 	stclvs	15, cr2, [r3], #-456	; 0xfffffe38
    127c:	2f737361 	svccs	0x00737361
    1280:	34327363 	ldrtcc	r7, [r2], #-867	; 0x363
    1284:	2d786c30 	ldclcs	12, cr6, [r8, #-192]!	; 0xffffff40
    1288:	70733032 	rsbsvc	r3, r3, r2, lsr r0
    128c:	6c2f2f72 	stcvs	15, cr2, [pc], #-456	; 10cc <__code_start__-0x6f34>
    1290:	69706269 	ldmdbvs	r0!, {r0, r3, r5, r6, r9, sp, lr}^
    1294:	6f682f00 	svcvs	0x00682f00
    1298:	652f656d 	strvs	r6, [pc, #-1389]!	; d33 <__code_start__-0x72cd>
    129c:	656c676e 	strbvs	r6, [ip, #-1902]!	; 0x76e
    12a0:	6c632f72 	stclvs	15, cr2, [r3], #-456	; 0xfffffe38
    12a4:	2f737361 	svccs	0x00737361
    12a8:	34327363 	ldrtcc	r7, [r2], #-867	; 0x363
    12ac:	2d786c30 	ldclcs	12, cr6, [r8, #-192]!	; 0xffffff40
    12b0:	70733032 	rsbsvc	r3, r3, r2, lsr r0
    12b4:	6c2f2f72 	stcvs	15, cr2, [pc], #-456	; 10f4 <__code_start__-0x6f0c>
    12b8:	69706269 	ldmdbvs	r0!, {r0, r3, r5, r6, r9, sp, lr}^
    12bc:	6174732f 	cmnvs	r4, pc, lsr #6
    12c0:	732d6666 	teqvc	sp, #106954752	; 0x6600000
    12c4:	00006372 	andeq	r6, r0, r2, ror r3
    12c8:	74726175 	ldrbtvc	r6, [r2], #-373	; 0x175
    12cc:	0000632e 	andeq	r6, r0, lr, lsr #6
    12d0:	6f6c0000 	svcvs	0x006c0000
    12d4:	682e6b63 	stmdavs	lr!, {r0, r1, r5, r6, r8, r9, fp, sp, lr}
    12d8:	00000100 	andeq	r0, r0, r0, lsl #2
    12dc:	7079745f 	rsbsvc	r7, r9, pc, asr r4
    12e0:	682e7365 	stmdavs	lr!, {r0, r2, r5, r6, r8, r9, ip, sp, lr}
    12e4:	00000100 	andeq	r0, r0, r0, lsl #2
    12e8:	64647473 	strbtvs	r7, [r4], #-1139	; 0x473
    12ec:	682e6665 	stmdavs	lr!, {r0, r2, r5, r6, r9, sl, sp, lr}
    12f0:	00000200 	andeq	r0, r0, r0, lsl #4
    12f4:	6e656572 	mcrvs	5, 3, r6, cr5, cr2, {3}
    12f8:	00682e74 	rsbeq	r2, r8, r4, ror lr
    12fc:	72000001 	andvc	r0, r0, #1
    1300:	682e6970 	stmdavs	lr!, {r4, r5, r6, r8, fp, sp, lr}
    1304:	00000300 	andeq	r0, r0, r0, lsl #6
    1308:	74726175 	ldrbtvc	r6, [r2], #-373	; 0x175
    130c:	0400682e 	streq	r6, [r0], #-2094	; 0x82e
    1310:	70670000 	rsbvc	r0, r7, r0
    1314:	682e6f69 	stmdavs	lr!, {r0, r3, r5, r6, r8, r9, sl, fp, sp, lr}
    1318:	00000400 	andeq	r0, r0, r0, lsl #8
    131c:	02050000 	andeq	r0, r5, #0
    1320:	00009acc 	andeq	r9, r0, ip, asr #21
    1324:	67012c03 	strvs	r2, [r1, -r3, lsl #24]
    1328:	359e0c03 	ldrcc	r0, [lr, #3075]	; 0xc03
    132c:	68356867 	ldmdavs	r5!, {r0, r1, r2, r5, r6, fp, sp, lr}
    1330:	852e0c03 	strhi	r0, [lr, #-3075]!	; 0xc03
    1334:	0369696b 	cmneq	r9, #1753088	; 0x1ac000
    1338:	676b660c 	strbvs	r6, [fp, -ip, lsl #12]!
    133c:	68344208 	ldmdavs	r4!, {r3, r9, lr}
    1340:	8768364b 	strbhi	r3, [r8, -fp, asr #12]!
    1344:	0402002f 	streq	r0, [r2], #-47	; 0x2f
    1348:	67682f01 	strbvs	r2, [r8, -r1, lsl #30]!
    134c:	004b6730 	subeq	r6, fp, r0, lsr r7
    1350:	2f010402 	svccs	0x00010402
    1354:	2e696768 	cdpcs	7, 6, cr6, cr9, cr8, {3}
    1358:	01000602 	tsteq	r0, r2, lsl #12
    135c:	00012b01 	andeq	r2, r1, r1, lsl #22
    1360:	f8000200 			; <UNDEFINED> instruction: 0xf8000200
    1364:	02000000 	andeq	r0, r0, #0
    1368:	0d0efb01 	vstreq	d15, [lr, #-4]
    136c:	01010100 	mrseq	r0, (UNDEF: 17)
    1370:	00000001 	andeq	r0, r0, r1
    1374:	01000001 	tsteq	r0, r1
    1378:	7273752f 	rsbsvc	r7, r3, #197132288	; 0xbc00000
    137c:	636e692f 	cmnvs	lr, #770048	; 0xbc000
    1380:	6564756c 	strbvs	r7, [r4, #-1388]!	; 0x56c
    1384:	77656e2f 	strbvc	r6, [r5, -pc, lsr #28]!
    1388:	2f62696c 	svccs	0x0062696c
    138c:	00737973 	rsbseq	r7, r3, r3, ror r9
    1390:	7273752f 	rsbsvc	r7, r3, #197132288	; 0xbc00000
    1394:	62696c2f 	rsbvs	r6, r9, #12032	; 0x2f00
    1398:	6363672f 	cmnvs	r3, #12320768	; 0xbc0000
    139c:	6d72612f 	ldfvse	f6, [r2, #-188]!	; 0xffffff44
    13a0:	6e6f6e2d 	cdpvs	14, 6, cr6, cr15, cr13, {1}
    13a4:	61652d65 	cmnvs	r5, r5, ror #26
    13a8:	362f6962 	strtcc	r6, [pc], -r2, ror #18
    13ac:	312e332e 	teqcc	lr, lr, lsr #6
    13b0:	636e692f 	cmnvs	lr, #770048	; 0xbc000
    13b4:	6564756c 	strbvs	r7, [r4, #-1388]!	; 0x56c
    13b8:	6f682f00 	svcvs	0x00682f00
    13bc:	652f656d 	strvs	r6, [pc, #-1389]!	; e57 <__code_start__-0x71a9>
    13c0:	656c676e 	strbvs	r6, [ip, #-1902]!	; 0x76e
    13c4:	6c632f72 	stclvs	15, cr2, [r3], #-456	; 0xfffffe38
    13c8:	2f737361 	svccs	0x00737361
    13cc:	34327363 	ldrtcc	r7, [r2], #-867	; 0x363
    13d0:	2d786c30 	ldclcs	12, cr6, [r8, #-192]!	; 0xffffff40
    13d4:	70733032 	rsbsvc	r3, r3, r2, lsr r0
    13d8:	6c2f2f72 	stcvs	15, cr2, [pc], #-456	; 1218 <__code_start__-0x6de8>
    13dc:	69706269 	ldmdbvs	r0!, {r0, r3, r5, r6, r9, sp, lr}^
    13e0:	6f682f00 	svcvs	0x00682f00
    13e4:	652f656d 	strvs	r6, [pc, #-1389]!	; e7f <__code_start__-0x7181>
    13e8:	656c676e 	strbvs	r6, [ip, #-1902]!	; 0x76e
    13ec:	6c632f72 	stclvs	15, cr2, [r3], #-456	; 0xfffffe38
    13f0:	2f737361 	svccs	0x00737361
    13f4:	34327363 	ldrtcc	r7, [r2], #-867	; 0x363
    13f8:	2d786c30 	ldclcs	12, cr6, [r8, #-192]!	; 0xffffff40
    13fc:	70733032 	rsbsvc	r3, r3, r2, lsr r0
    1400:	6c2f2f72 	stcvs	15, cr2, [pc], #-456	; 1240 <__code_start__-0x6dc0>
    1404:	69706269 	ldmdbvs	r0!, {r0, r3, r5, r6, r9, sp, lr}^
    1408:	6174732f 	cmnvs	r4, pc, lsr #6
    140c:	732d6666 	teqvc	sp, #106954752	; 0x6600000
    1410:	00006372 	andeq	r6, r0, r2, ror r3
    1414:	6f697067 	svcvs	0x00697067
    1418:	0000632e 	andeq	r6, r0, lr, lsr #6
    141c:	6f6c0000 	svcvs	0x006c0000
    1420:	682e6b63 	stmdavs	lr!, {r0, r1, r5, r6, r8, r9, fp, sp, lr}
    1424:	00000100 	andeq	r0, r0, r0, lsl #2
    1428:	7079745f 	rsbsvc	r7, r9, pc, asr r4
    142c:	682e7365 	stmdavs	lr!, {r0, r2, r5, r6, r8, r9, ip, sp, lr}
    1430:	00000100 	andeq	r0, r0, r0, lsl #2
    1434:	64647473 	strbtvs	r7, [r4], #-1139	; 0x473
    1438:	682e6665 	stmdavs	lr!, {r0, r2, r5, r6, r9, sl, sp, lr}
    143c:	00000200 	andeq	r0, r0, r0, lsl #4
    1440:	6e656572 	mcrvs	5, 3, r6, cr5, cr2, {3}
    1444:	00682e74 	rsbeq	r2, r8, r4, ror lr
    1448:	72000001 	andvc	r0, r0, #1
    144c:	682e6970 	stmdavs	lr!, {r4, r5, r6, r8, fp, sp, lr}
    1450:	00000300 	andeq	r0, r0, r0, lsl #6
    1454:	6f697067 	svcvs	0x00697067
    1458:	0400682e 	streq	r6, [r0], #-2094	; 0x82e
    145c:	00000000 	andeq	r0, r0, r0
    1460:	9c440205 	sfmls	f0, 2, [r4], {5}
    1464:	27030000 	strcs	r0, [r3, -r0]
    1468:	474c1301 	strbmi	r1, [ip, -r1, lsl #6]
    146c:	4b68f44f 	blmi	1a3e5b0 <__bss_end__+0x1a31b30>
    1470:	6a2fa14c 	bvs	be99a8 <__bss_end__+0xbdcf28>
    1474:	be314913 	mrclt	9, 1, r4, cr1, cr3, {0}
    1478:	be314913 	mrclt	9, 1, r4, cr1, cr3, {0}
    147c:	4d2f6a2f 	vstmdbmi	pc!, {s12-s58}
    1480:	49134f48 	ldmdbmi	r3, {r3, r6, r8, r9, sl, fp, lr}
    1484:	02b72f32 	adcseq	r2, r7, #50, 30	; 0xc8
    1488:	01010006 	tsteq	r1, r6

Disassembly of section .debug_str:

00000000 <.debug_str>:
       0:	6573552f 	ldrbvs	r5, [r3, #-1327]!	; 0x52f
       4:	622f7372 	eorvs	r7, pc, #-939524095	; 0xc8000001
       8:	6e616972 	mcrvs	9, 3, r6, cr1, cr2, {3}
       c:	2f6e756a 	svccs	0x006e756a
      10:	6b736544 	blvs	1cd9528 <__bss_end__+0x1cccaa8>
      14:	2f706f74 	svccs	0x00706f74
      18:	6f686373 	svcvs	0x00686373
      1c:	532f6c6f 	teqpl	pc, #28416	; 0x6f00
      20:	6e697270 	mcrvs	2, 3, r7, cr9, cr0, {3}
      24:	32393167 	eorscc	r3, r9, #-1073741799	; 0xc0000019
      28:	53432f30 	movtpl	r2, #16176	; 0x3f30
      2c:	4c303432 	cfldrsmi	mvf3, [r0], #-200	; 0xffffff38
      30:	73632f58 	cmnvc	r3, #88, 30	; 0x160
      34:	6c303432 	cfldrsvs	mvf3, [r0], #-200	; 0xffffff38
      38:	30322d78 	eorscc	r2, r2, r8, ror sp
      3c:	2f727073 	svccs	0x00727073
      40:	7362616c 	cmnvc	r2, #108, 2
      44:	2d36312f 	ldfcss	f3, [r6, #-188]!	; 0xffffff44
      48:	676e6973 			; <UNDEFINED> instruction: 0x676e6973
      4c:	732d656c 	teqvc	sp, #108, 10	; 0x1b000000
      50:	2f706574 	svccs	0x00706574
      54:	65646f63 	strbvs	r6, [r4, #-3939]!	; 0xf63
      58:	7a697300 	bvc	1a5cc60 <__bss_end__+0x1a501e0>
      5c:	00745f65 	rsbseq	r5, r4, r5, ror #30
      60:	74697773 	strbtvc	r7, [r9], #-1907	; 0x773
      64:	615f6863 	cmpvs	pc, r3, ror #16
      68:	00726464 	rsbseq	r6, r2, r4, ror #8
      6c:	74736574 	ldrbtvc	r6, [r3], #-1396	; 0x574
      70:	36312f73 	shsub16cc	r2, r1, r3
      74:	7261702d 	rsbvc	r7, r1, #45	; 0x2d
      78:	742d3274 	strtvc	r3, [sp], #-628	; 0x274
      7c:	35747365 	ldrbcc	r7, [r4, #-869]!	; 0x365
      80:	6500632e 	strvs	r6, [r0, #-814]	; 0x32e
      84:	726f7272 	rsbvc	r7, pc, #536870919	; 0x20000007
      88:	61665f73 	smcvs	26099	; 0x65f3
      8c:	5f6c6174 	svcpl	0x006c6174
      90:	6e690070 	mcrvs	0, 3, r0, cr9, cr0, {3}
      94:	635f7473 	cmpvs	pc, #1929379840	; 0x73000000
      98:	746e756f 	strbtvc	r7, [lr], #-1391	; 0x56f
      9c:	746f6e00 	strbtvc	r6, [pc], #-3584	; a4 <__code_start__-0x7f5c>
      a0:	6e69616d 	powvsez	f6, f1, #5.0
      a4:	6e6f6c00 	cdpvs	12, 6, cr6, cr15, cr0, {0}
      a8:	6f6c2067 	svcvs	0x006c2067
      ac:	7520676e 	strvc	r6, [r0, #-1902]!	; 0x76e
      b0:	6769736e 	strbvs	r7, [r9, -lr, ror #6]!
      b4:	2064656e 	rsbcs	r6, r4, lr, ror #10
      b8:	00746e69 	rsbseq	r6, r4, r9, ror #28
      bc:	75625f63 	strbvc	r5, [r2, #-3939]!	; 0xf63
      c0:	71630066 	cmnvc	r3, r6, rrx
      c4:	706d655f 	rsbvc	r6, sp, pc, asr r5
      c8:	6c007974 	stcvs	9, cr7, [r0], {116}	; 0x74
      cc:	20676e6f 	rsbcs	r6, r7, pc, ror #28
      d0:	676e6f6c 	strbvs	r6, [lr, -ip, ror #30]!
      d4:	746e6920 	strbtvc	r6, [lr], #-2336	; 0x920
      d8:	696b7300 	stmdbvs	fp!, {r8, r9, ip, sp, lr}^
      dc:	63007370 	movwvs	r7, #880	; 0x370
      e0:	71637269 	cmnvc	r3, r9, ror #4
      e4:	696e695f 	stmdbvs	lr!, {r0, r1, r2, r3, r4, r6, r8, fp, sp, lr}^
      e8:	69630074 	stmdbvs	r3!, {r2, r4, r5, r6}^
      ec:	5f716372 	svcpl	0x00716372
      f0:	69630041 	stmdbvs	r3!, {r0, r6}^
      f4:	5f716372 	svcpl	0x00716372
      f8:	70720042 	rsbsvc	r0, r2, r2, asr #32
      fc:	65725f69 	ldrbvs	r5, [r2, #-3945]!	; 0xf69
     100:	5f746573 	svcpl	0x00746573
     104:	63747570 	cmnvs	r4, #112, 10	; 0x1c000000
     108:	6b726200 	blvs	1c98910 <__bss_end__+0x1c8be90>
     10c:	7265765f 	rsbvc	r7, r5, #99614720	; 0x5f00000
     110:	65736f62 	ldrbvs	r6, [r3, #-3938]!	; 0xf62
     114:	5f00705f 	svcpl	0x0000705f
     118:	4e55465f 	mrcmi	6, 2, r4, cr5, cr15, {2}
     11c:	4f495443 	svcmi	0x00495443
     120:	005f5f4e 	subseq	r5, pc, lr, asr #30
     124:	6e5f7163 	rdfvsez	f7, f7, f3
     128:	6d656c65 	stclvs	12, cr6, [r5, #-404]!	; 0xfffffe6c
     12c:	6f687300 	svcvs	0x00687300
     130:	75207472 	strvc	r7, [r0, #-1138]!	; 0x472
     134:	6769736e 	strbvs	r7, [r9, -lr, ror #6]!
     138:	2064656e 	rsbcs	r6, r4, lr, ror #10
     13c:	00746e69 	rsbseq	r6, r4, r9, ror #28
     140:	61656c63 	cmnvs	r5, r3, ror #24
     144:	65725f6e 	ldrbvs	r5, [r2, #-3950]!	; 0xf6e
     148:	746f6f62 	strbtvc	r6, [pc], #-3938	; 150 <__code_start__-0x7eb0>
     14c:	69617400 	stmdbvs	r1!, {sl, ip, sp, lr}^
     150:	6973006c 	ldmdbvs	r3!, {r2, r3, r5, r6}^
     154:	7974657a 	ldmdbvc	r4!, {r1, r3, r4, r5, r6, r8, sl, sp, lr}^
     158:	63006570 	movwvs	r6, #1392	; 0x570
     15c:	6f705f71 	svcvs	0x00705f71
     160:	6f6e5f70 	svcvs	0x006e5f70
     164:	6f6c626e 	svcvs	0x006c626e
     168:	6e006b63 	vmlsvs.f64	d6, d0, d19
     16c:	61697274 	smcvs	38692	; 0x9724
     170:	6300736c 	movwvs	r7, #876	; 0x36c
     174:	71637269 	cmnvc	r3, r9, ror #4
     178:	5f6b6d5f 	svcpl	0x006b6d5f
     17c:	63656863 	cmnvs	r5, #6488064	; 0x630000
     180:	0072656b 	rsbseq	r6, r2, fp, ror #10
     184:	63656863 	cmnvs	r5, #6488064	; 0x630000
     188:	5f72656b 	svcpl	0x0072656b
     18c:	6e750074 	mrcvs	0, 3, r0, cr5, cr4, {3}
     190:	6e676973 	mcrvs	9, 3, r6, cr7, cr3, {3}
     194:	63206465 	teqvs	r0, #1694498816	; 0x65000000
     198:	00726168 	rsbseq	r6, r2, r8, ror #2
     19c:	65707865 	ldrbvs	r7, [r0, #-2149]!	; 0x865
     1a0:	64657463 	strbtvs	r7, [r5], #-1123	; 0x463
     1a4:	6500415f 	strvs	r4, [r0, #-351]	; 0x15f
     1a8:	63657078 	cmnvs	r5, #120	; 0x78
     1ac:	5f646574 	svcpl	0x00646574
     1b0:	68730042 	ldmdavs	r3!, {r1, r6}^
     1b4:	2074726f 	rsbscs	r7, r4, pc, ror #4
     1b8:	00746e69 	rsbseq	r6, r4, r9, ror #28
     1bc:	65746e69 	ldrbvs	r6, [r4, #-3689]!	; 0xe69
     1c0:	61656c72 	smcvs	22210	; 0x56c2
     1c4:	676e6976 			; <UNDEFINED> instruction: 0x676e6976
     1c8:	6300705f 	movwvs	r7, #95	; 0x5f
     1cc:	745f6571 	ldrbvc	r6, [pc], #-1393	; 1d4 <__code_start__-0x7e2c>
     1d0:	61656800 	cmnvs	r5, r0, lsl #16
     1d4:	69750064 	ldmdbvs	r5!, {r2, r5, r6}^
     1d8:	3233746e 	eorscc	r7, r3, #1845493760	; 0x6e000000
     1dc:	6300745f 	movwvs	r7, #1119	; 0x45f
     1e0:	71637269 	cmnvc	r3, r9, ror #4
     1e4:	6568635f 	strbvs	r6, [r8, #-863]!	; 0x35f
     1e8:	66006b63 	strvs	r6, [r0], -r3, ror #22
     1ec:	65636e65 	strbvs	r6, [r3, #-3685]!	; 0xe65
     1f0:	72656e00 	rsbvc	r6, r5, #0, 28
     1f4:	73726f72 	cmnvc	r2, #456	; 0x1c8
     1f8:	5f716300 	svcpl	0x00716300
     1fc:	68737570 	ldmdavs	r3!, {r4, r5, r6, r8, sl, ip, sp, lr}^
     200:	6d656d00 	stclvs	13, cr6, [r5, #-0]
     204:	00746573 	rsbseq	r6, r4, r3, ror r5
     208:	745f7163 	ldrbvc	r7, [pc], #-355	; 210 <__code_start__-0x7df0>
     20c:	616e6500 	cmnvs	lr, r0, lsl #10
     210:	5f656c62 	svcpl	0x00656c62
     214:	68636163 	stmdavs	r3!, {r0, r1, r5, r6, r8, sp, lr}^
     218:	4e470065 	cdpmi	0, 4, cr0, cr7, cr5, {3}
     21c:	20432055 	subcs	r2, r3, r5, asr r0
     220:	2e382e34 	mrccs	14, 1, r2, cr8, cr4, {1}
     224:	6d2d2033 	stcvs	0, cr2, [sp, #-204]!	; 0xffffff34
     228:	3d757063 	ldclcc	0, cr7, [r5, #-396]!	; 0xfffffe74
     22c:	316d7261 	cmncc	sp, r1, ror #4
     230:	6a363731 	bvs	d8defc <__bss_end__+0xd8147c>
     234:	732d667a 	teqvc	sp, #127926272	; 0x7a00000
     238:	746d2d20 	strbtvc	r2, [sp], #-3360	; 0xd20
     23c:	3d656e75 	stclcc	14, cr6, [r5, #-468]!	; 0xfffffe2c
     240:	316d7261 	cmncc	sp, r1, ror #4
     244:	6a363731 	bvs	d8df10 <__bss_end__+0xd81490>
     248:	732d667a 	teqvc	sp, #127926272	; 0x7a00000
     24c:	67672d20 	strbvs	r2, [r7, -r0, lsr #26]!
     250:	2d206264 	sfmcs	f6, 4, [r0, #-400]!	; 0xfffffe70
     254:	2d20674f 	stccs	7, cr6, [r0, #-316]!	; 0xfffffec4
     258:	3d647473 	cfstrdcc	mvd7, [r4, #-460]!	; 0xfffffe34
     25c:	39756e67 	ldmdbcc	r5!, {r0, r1, r2, r5, r6, r9, sl, fp, sp, lr}^
     260:	662d2039 			; <UNDEFINED> instruction: 0x662d2039
     264:	65657266 	strbvs	r7, [r5, #-614]!	; 0x266
     268:	6e617473 	mcrvs	4, 3, r7, cr1, cr3, {3}
     26c:	676e6964 	strbvs	r6, [lr, -r4, ror #18]!
     270:	6e662d20 	cdpvs	13, 6, cr2, cr6, cr0, {1}
     274:	6f742d6f 	svcvs	0x00742d6f
     278:	76656c70 			; <UNDEFINED> instruction: 0x76656c70
     27c:	722d6c65 	eorvc	r6, sp, #25856	; 0x6500
     280:	64726f65 	ldrbtvs	r6, [r2], #-3941	; 0xf65
     284:	73007265 	movwvc	r7, #613	; 0x265
     288:	63746977 	cmnvs	r4, #1949696	; 0x1dc000
     28c:	6e6f5f68 	cdpvs	15, 6, cr5, cr15, cr8, {3}
     290:	736e695f 	cmnvc	lr, #1556480	; 0x17c000
     294:	006e5f74 	rsbeq	r5, lr, r4, ror pc
     298:	6977736e 	ldmdbvs	r7!, {r1, r2, r3, r5, r6, r8, r9, ip, sp, lr}^
     29c:	65686374 	strbvs	r6, [r8, #-884]!	; 0x374
     2a0:	77730073 			; <UNDEFINED> instruction: 0x77730073
     2a4:	68637469 	stmdavs	r3!, {r0, r3, r5, r6, sl, ip, sp, lr}^
     2a8:	705f6465 	subsvc	r6, pc, r5, ror #8
     2ac:	5f716300 	svcpl	0x00716300
     2b0:	6c6c7566 	cfstr64vs	mvdx7, [ip], #-408	; 0xfffffe68
     2b4:	65766f00 	ldrbvs	r6, [r6, #-3840]!	; 0xf00
     2b8:	6f6c6672 	svcvs	0x006c6672
     2bc:	61640077 	smcvs	16391	; 0x4007
     2c0:	615f6174 	cmpvs	pc, r4, ror r1	; <UNPREDICTABLE>
     2c4:	74726f62 	ldrbtvc	r6, [r2], #-3938	; 0xf62
     2c8:	6365765f 	cmnvs	r5, #99614720	; 0x5f00000
     2cc:	00726f74 	rsbseq	r6, r2, r4, ror pc
     2d0:	66657270 			; <UNDEFINED> instruction: 0x66657270
     2d4:	68637465 	stmdavs	r3!, {r0, r2, r5, r6, sl, ip, sp, lr}^
     2d8:	6f62615f 	svcvs	0x0062615f
     2dc:	765f7472 			; <UNDEFINED> instruction: 0x765f7472
     2e0:	6f746365 	svcvs	0x00746365
     2e4:	61770072 	cmnvs	r7, r2, ror r0
     2e8:	65645f73 	strbvs	r5, [r4, #-3955]!	; 0xf73
     2ec:	5f677562 	svcpl	0x00677562
     2f0:	61746164 	cmnvs	r4, r4, ror #2
     2f4:	6c756166 	ldfvse	f6, [r5], #-408	; 0xfffffe68
     2f8:	70630074 	rsbvc	r0, r3, r4, ror r0
     2fc:	642d3431 	strtvs	r3, [sp], #-1073	; 0x431
     300:	67756265 	ldrbvs	r6, [r5, -r5, ror #4]!
     304:	7700632e 	strvc	r6, [r0, -lr, lsr #6]
     308:	645f7361 	ldrbvs	r7, [pc], #-865	; 310 <__code_start__-0x7cf0>
     30c:	67756265 	ldrbvs	r6, [r5, -r5, ror #4]!
     310:	736e695f 	cmnvc	lr, #1556480	; 0x17c000
     314:	75616674 	strbvc	r6, [r1, #-1652]!	; 0x674
     318:	6400746c 	strvs	r7, [r0], #-1132	; 0x46c
     31c:	5f726373 	svcpl	0x00726373
     320:	00746573 	rsbseq	r6, r4, r3, ror r5
     324:	30726377 	rsbscc	r6, r2, r7, ror r3
     328:	6765725f 			; <UNDEFINED> instruction: 0x6765725f
     32c:	72637700 	rsbvc	r7, r3, #0, 14
     330:	65675f30 	strbvs	r5, [r7, #-3888]!	; 0xf30
     334:	6e690074 	mcrvs	0, 3, r0, cr9, cr4, {3}
     338:	705f7469 	subsvc	r7, pc, r9, ror #8
     33c:	6b726200 	blvs	1c98b44 <__bss_end__+0x1c8c0c4>
     340:	685f7470 	ldmdavs	pc, {r4, r5, r6, sl, ip, sp, lr}^	; <UNPREDICTABLE>
     344:	6c646e61 	stclvs	14, cr6, [r4], #-388	; 0xfffffe7c
     348:	00307265 	eorseq	r7, r0, r5, ror #4
     34c:	34317063 	ldrtcc	r7, [r1], #-99	; 0x63
     350:	7263625f 	rsbvc	r6, r3, #-268435451	; 0xf0000005
     354:	65735f30 	ldrbvs	r5, [r3, #-3888]!	; 0xf30
     358:	76770074 			; <UNDEFINED> instruction: 0x76770074
     35c:	765f3072 			; <UNDEFINED> instruction: 0x765f3072
     360:	77006c61 	strvc	r6, [r0, -r1, ror #24]
     364:	68637461 	stmdavs	r3!, {r0, r5, r6, sl, ip, sp, lr}^
     368:	735f7470 	cmpvc	pc, #112, 8	; 0x70000000
     36c:	00307465 	eorseq	r7, r0, r5, ror #8
     370:	30727677 	rsbscc	r7, r2, r7, ror r6
     374:	7465735f 	strbtvc	r7, [r5], #-863	; 0x35f
     378:	6b726200 	blvs	1c98b80 <__bss_end__+0x1c8c100>
     37c:	5f6f6e5f 	svcpl	0x006f6e5f
     380:	5f746572 	svcpl	0x00746572
     384:	6f727265 	svcvs	0x00727265
     388:	70630072 	rsbvc	r0, r3, r2, ror r0
     38c:	625f3431 	subsvs	r3, pc, #822083584	; 0x31000000
     390:	5f307263 	svcpl	0x00307263
     394:	00746567 	rsbseq	r6, r4, r7, ror #10
     398:	706b7262 	rsbvc	r7, fp, r2, ror #4
     39c:	696d5f74 	stmdbvs	sp!, {r2, r4, r5, r6, r8, r9, sl, fp, ip, lr}^
     3a0:	74616d73 	strbtvc	r6, [r1], #-3443	; 0xd73
     3a4:	735f6863 	cmpvc	pc, #6488064	; 0x630000
     3a8:	00307465 	eorseq	r7, r0, r5, ror #8
     3ac:	72736664 	rsbsvc	r6, r3, #100, 12	; 0x6400000
     3b0:	6c61765f 	stclvs	6, cr7, [r1], #-380	; 0xfffffe84
     3b4:	61666900 	cmnvs	r6, r0, lsl #18
     3b8:	65675f72 	strbvs	r5, [r7, #-3954]!	; 0xf72
     3bc:	66690074 			; <UNDEFINED> instruction: 0x66690074
     3c0:	675f7273 			; <UNDEFINED> instruction: 0x675f7273
     3c4:	77007465 	strvc	r7, [r0, -r5, ror #8]
     3c8:	68637461 	stmdavs	r3!, {r0, r5, r6, sl, ip, sp, lr}^
     3cc:	685f7470 	ldmdavs	pc, {r4, r5, r6, sl, ip, sp, lr}^	; <UNPREDICTABLE>
     3d0:	6c646e61 	stclvs	14, cr6, [r4], #-388	; 0xfffffe7c
     3d4:	00307265 	eorseq	r7, r0, r5, ror #4
     3d8:	706b7262 	rsbvc	r7, fp, r2, ror #4
     3dc:	696d5f74 	stmdbvs	sp!, {r2, r4, r5, r6, r8, r9, sl, fp, ip, lr}^
     3e0:	74616d73 	strbtvc	r6, [r1], #-3443	; 0xd73
     3e4:	645f6863 	ldrbvs	r6, [pc], #-2147	; 3ec <__code_start__-0x7c14>
     3e8:	62617369 	rsbvs	r7, r1, #-1543503871	; 0xa4000001
     3ec:	0030656c 	eorseq	r6, r0, ip, ror #10
     3f0:	61746164 	cmnvs	r4, r4, ror #2
     3f4:	6c756166 	ldfvse	f6, [r5], #-408	; 0xfffffe68
     3f8:	72665f74 	rsbvc	r5, r6, #116, 30	; 0x1d0
     3fc:	6c5f6d6f 	mrrcvs	13, 6, r6, pc, cr15	; <UNPREDICTABLE>
     400:	70630064 	rsbvc	r0, r3, r4, rrx
     404:	625f3431 	subsvs	r3, pc, #822083584	; 0x31000000
     408:	5f307276 	svcpl	0x00307276
     40c:	00746573 	rsbseq	r6, r4, r3, ror r5
     410:	5f736177 	svcpl	0x00736177
     414:	75626564 	strbvc	r6, [r2, #-1380]!	; 0x564
     418:	75616667 	strbvc	r6, [r1, #-1639]!	; 0x667
     41c:	725f746c 	subsvc	r7, pc, #108, 8	; 0x6c000000
     420:	31706300 	cmncc	r0, r0, lsl #6
     424:	6e655f34 	mcrvs	15, 3, r5, cr5, cr4, {1}
     428:	656c6261 	strbvs	r6, [ip, #-609]!	; 0x261
     42c:	61666e00 	cmnvs	r6, r0, lsl #28
     430:	73746c75 	cmnvc	r4, #29952	; 0x7500
     434:	72766200 	rsbsvc	r6, r6, #0, 4
     438:	61765f30 	cmnvs	r6, r0, lsr pc
     43c:	6664006c 	strbtvs	r0, [r4], -ip, rrx
     440:	675f7273 			; <UNDEFINED> instruction: 0x675f7273
     444:	73007465 	movwvc	r7, #1125	; 0x465
     448:	61637379 	smcvs	14137	; 0x3739
     44c:	765f6c6c 	ldrbvc	r6, [pc], -ip, ror #24
     450:	6f746365 	svcvs	0x00746365
     454:	72700072 	rsbsvc	r0, r0, #114	; 0x72
     458:	74656665 	strbtvc	r6, [r5], #-1637	; 0x665
     45c:	665f6863 	ldrbvs	r6, [pc], -r3, ror #16
     460:	6873756c 	ldmdavs	r3!, {r2, r3, r5, r6, r8, sl, ip, sp, lr}^
     464:	7465735f 	strbtvc	r7, [r5], #-863	; 0x35f
     468:	72636200 	rsbvc	r6, r3, #0, 4
     46c:	65725f30 	ldrbvs	r5, [r2, #-3888]!	; 0xf30
     470:	61680067 	cmnvs	r8, r7, rrx
     474:	656c646e 	strbvs	r6, [ip, #-1134]!	; 0x46e
     478:	00745f72 	rsbseq	r5, r4, r2, ror pc
     47c:	72616677 	rsbvc	r6, r1, #124780544	; 0x7700000
     480:	7465675f 	strbtvc	r6, [r5], #-1887	; 0x75f
     484:	73797300 	cmnvc	r9, #0, 6
     488:	6d756e5f 	ldclvs	14, cr6, [r5, #-380]!	; 0xfffffe84
     48c:	6b726200 	blvs	1c98c94 <__bss_end__+0x1c8c214>
     490:	735f7470 	cmpvc	pc, #112, 8	; 0x70000000
     494:	00307465 	eorseq	r7, r0, r5, ror #8
     498:	30726377 	rsbscc	r6, r2, r7, ror r3
     49c:	7465735f 	strbtvc	r7, [r5], #-863	; 0x35f
     4a0:	746e6900 	strbtvc	r6, [lr], #-2304	; 0x900
     4a4:	696e695f 	stmdbvs	lr!, {r0, r1, r2, r3, r4, r6, r8, fp, sp, lr}^
     4a8:	69730074 	ldmdbvs	r3!, {r2, r4, r5, r6}^
     4ac:	656c676e 	strbvs	r6, [ip, #-1902]!	; 0x76e
     4b0:	6574735f 	ldrbvs	r7, [r4, #-863]!	; 0x35f
     4b4:	61685f70 	smcvs	34288	; 0x85f0
     4b8:	656c646e 	strbvs	r6, [ip, #-1134]!	; 0x46e
     4bc:	68630072 	stmdavs	r3!, {r1, r4, r5, r6}^
     4c0:	5f6b6365 	svcpl	0x006b6365
     4c4:	6f72657a 	svcvs	0x0072657a
     4c8:	65686300 	strbvs	r6, [r8, #-768]!	; 0x300
     4cc:	692d6b63 	pushvs	{r0, r1, r5, r6, r8, r9, fp, sp, lr}
     4d0:	7265746e 	rsbvc	r7, r5, #1845493760	; 0x6e000000
     4d4:	7661656c 	strbtvc	r6, [r1], -ip, ror #10
     4d8:	00632e65 	rsbeq	r2, r3, r5, ror #28
     4dc:	72657375 	rsbvc	r7, r5, #-738197503	; 0xd4000001
     4e0:	6172745f 	cmnvs	r2, pc, asr r4
     4e4:	6c6f706d 	stclvs	0, cr7, [pc], #-436	; 338 <__code_start__-0x7cc8>
     4e8:	5f656e69 	svcpl	0x00656e69
     4ec:	00746572 	rsbseq	r6, r4, r2, ror r5
     4f0:	72737063 	rsbsvc	r7, r3, #99	; 0x63
     4f4:	7465675f 	strbtvc	r6, [r5], #-1887	; 0x75f
     4f8:	70786500 	rsbsvc	r6, r8, r0, lsl #10
     4fc:	65746365 	ldrbvs	r6, [r4, #-869]!	; 0x365
     500:	61685f64 	cmnvs	r8, r4, ror #30
     504:	656c646e 	strbvs	r6, [ip, #-1134]!	; 0x46e
     508:	73616d00 	cmnvc	r1, #0, 26
     50c:	6962006b 	stmdbvs	r2!, {r0, r1, r3, r5, r6}^
     510:	635f7374 	cmpvs	pc, #116, 6	; 0xd0000001
     514:	6300726c 	movwvs	r7, #620	; 0x26c
     518:	6b636568 	blvs	18d9ac0 <__bss_end__+0x18cd040>
     51c:	656e6f5f 	strbvs	r6, [lr, #-3935]!	; 0xf5f
     520:	7773635f 			; <UNDEFINED> instruction: 0x7773635f
     524:	68637469 	stmdavs	r3!, {r0, r3, r5, r6, sl, ip, sp, lr}^
     528:	646f6d00 	strbtvs	r6, [pc], #-3328	; 530 <__code_start__-0x7ad0>
     52c:	74735f65 	ldrbtvc	r5, [r3], #-3941	; 0xf65
     530:	6f6d0072 	svcvs	0x006d0072
     534:	735f6564 	cmpvc	pc, #100, 10	; 0x19000000
     538:	63007465 	movwvs	r7, #1125	; 0x465
     53c:	6b636568 	blvs	18d9ae4 <__bss_end__+0x18cd064>
     540:	7165735f 	cmnvc	r5, pc, asr r3
     544:	746e6575 	strbtvc	r6, [lr], #-1397	; 0x575
     548:	006c6169 	rsbeq	r6, ip, r9, ror #2
     54c:	72737063 	rsbsvc	r7, r3, #99	; 0x63
     550:	646c6f5f 	strbtvs	r6, [ip], #-3935	; 0xf5f
     554:	74696200 	strbtvc	r6, [r9], #-512	; 0x200
     558:	65675f73 	strbvs	r5, [r7, #-3955]!	; 0xf73
     55c:	70630074 	rsbvc	r0, r3, r4, ror r0
     560:	755f7273 	ldrbvc	r7, [pc, #-627]	; 2f5 <__code_start__-0x7d0b>
     564:	00726573 	rsbseq	r6, r2, r3, ror r5
     568:	72737063 	rsbsvc	r7, r3, #99	; 0x63
     56c:	646f6d00 	strbtvs	r6, [pc], #-3328	; 574 <__code_start__-0x7a8c>
     570:	656c5f65 	strbvs	r5, [ip, #-3941]!	; 0xf65
     574:	006c6167 	rsbeq	r6, ip, r7, ror #2
     578:	65646f6d 	strbvs	r6, [r4, #-3949]!	; 0xf6d
     57c:	7465675f 	strbtvc	r6, [r5], #-1887	; 0x75f
     580:	67657200 	strbvs	r7, [r5, -r0, lsl #4]!
     584:	6f6d0073 	svcvs	0x006d0073
     588:	6c006564 	cfstr32vs	mvfx6, [r0], {100}	; 0x64
     58c:	2f636269 	svccs	0x00636269
     590:	736d656d 	cmnvc	sp, #457179136	; 0x1b400000
     594:	632e7465 	teqvs	lr, #1694498816	; 0x65000000
     598:	73552f00 	cmpvc	r5, #0, 30
     59c:	2f737265 	svccs	0x00737265
     5a0:	61697262 	cmnvs	r9, r2, ror #4
     5a4:	6e756a6e 	vsubvs.f32	s13, s10, s29
     5a8:	7365442f 	cmnvc	r5, #788529152	; 0x2f000000
     5ac:	706f746b 	rsbvc	r7, pc, fp, ror #8
     5b0:	6863732f 	stmdavs	r3!, {r0, r1, r2, r3, r5, r8, r9, ip, sp, lr}^
     5b4:	2f6c6f6f 	svccs	0x006c6f6f
     5b8:	69727053 	ldmdbvs	r2!, {r0, r1, r4, r6, ip, sp, lr}^
     5bc:	3931676e 	ldmdbcc	r1!, {r1, r2, r3, r5, r6, r8, r9, sl, sp, lr}
     5c0:	432f3032 	teqmi	pc, #50	; 0x32
     5c4:	30343253 	eorscc	r3, r4, r3, asr r2
     5c8:	632f584c 	teqvs	pc, #76, 16	; 0x4c0000
     5cc:	30343273 	eorscc	r3, r4, r3, ror r2
     5d0:	322d786c 	eorcc	r7, sp, #108, 16	; 0x6c0000
     5d4:	72707330 	rsbsvc	r7, r0, #48, 6	; 0xc0000000
     5d8:	62696c2f 	rsbvs	r6, r9, #12032	; 0x2f00
     5dc:	47006970 	smlsdxmi	r0, r0, r9, r6
     5e0:	4320554e 	teqmi	r0, #327155712	; 0x13800000
     5e4:	382e3420 	stmdacc	lr!, {r5, sl, ip, sp}
     5e8:	2d20332e 	stccs	3, cr3, [r0, #-184]!	; 0xffffff48
     5ec:	7570636d 	ldrbvc	r6, [r0, #-877]!	; 0x36d
     5f0:	6d72613d 	ldfvse	f6, [r2, #-244]!	; 0xffffff0c
     5f4:	36373131 			; <UNDEFINED> instruction: 0x36373131
     5f8:	2d667a6a 	vstmdbcs	r6!, {s15-s120}
     5fc:	6d2d2073 	stcvs	0, cr2, [sp, #-460]!	; 0xfffffe34
     600:	656e7574 	strbvs	r7, [lr, #-1396]!	; 0x574
     604:	6d72613d 	ldfvse	f6, [r2, #-244]!	; 0xffffff0c
     608:	36373131 			; <UNDEFINED> instruction: 0x36373131
     60c:	2d667a6a 	vstmdbcs	r6!, {s15-s120}
     610:	672d2073 			; <UNDEFINED> instruction: 0x672d2073
     614:	20626467 	rsbcs	r6, r2, r7, ror #8
     618:	20674f2d 	rsbcs	r4, r7, sp, lsr #30
     61c:	6474732d 	ldrbtvs	r7, [r4], #-813	; 0x32d
     620:	756e673d 	strbvc	r6, [lr, #-1853]!	; 0x73d
     624:	2d203939 	stccs	9, cr3, [r0, #-228]!	; 0xffffff1c
     628:	65726666 	ldrbvs	r6, [r2, #-1638]!	; 0x666
     62c:	61747365 	cmnvs	r4, r5, ror #6
     630:	6e69646e 	cdpvs	4, 6, cr6, cr9, cr14, {3}
     634:	5f5f0067 	svcpl	0x005f0067
     638:	63756e67 	cmnvs	r5, #1648	; 0x670
     63c:	5f61765f 	svcpl	0x0061765f
     640:	7473696c 	ldrbtvc	r6, [r3], #-2412	; 0x96c
     644:	62696c00 	rsbvs	r6, r9, #0, 24
     648:	72702f63 	rsbsvc	r2, r0, #396	; 0x18c
     64c:	6b746e69 	blvs	1d1bff8 <__bss_end__+0x1d0f578>
     650:	7600632e 	strvc	r6, [r0], -lr, lsr #6
     654:	72705f61 	rsbsvc	r5, r0, #388	; 0x184
     658:	6b746e69 	blvs	1d1c004 <__bss_end__+0x1d0f584>
     65c:	765f5f00 	ldrbvc	r5, [pc], -r0, lsl #30
     660:	696c5f61 	stmdbvs	ip!, {r0, r5, r6, r8, r9, sl, fp, ip, lr}^
     664:	5f007473 	svcpl	0x00007473
     668:	0070615f 	rsbseq	r6, r0, pc, asr r1
     66c:	74726175 	ldrbtvc	r6, [r2], #-373	; 0x175
     670:	7475705f 	ldrbtvc	r7, [r5], #-95	; 0x5f
     674:	6e690063 	cdpvs	0, 6, cr0, cr9, cr3, {3}
     678:	6e726574 	mrcvs	5, 3, r6, cr2, cr4, {3}
     67c:	705f6c61 	subsvc	r6, pc, r1, ror #24
     680:	68637475 	stmdavs	r3!, {r0, r2, r4, r5, r6, sl, ip, sp, lr}^
     684:	72007261 	andvc	r7, r0, #268435462	; 0x10000006
     688:	705f6970 	subsvc	r6, pc, r0, ror r9	; <UNPREDICTABLE>
     68c:	68637475 	stmdavs	r3!, {r0, r2, r4, r5, r6, sl, ip, sp, lr}^
     690:	6c007261 	sfmvs	f7, 4, [r0], {97}	; 0x61
     694:	2f636269 	svccs	0x00636269
     698:	63747570 	cmnvs	r4, #112, 10	; 0x1c000000
     69c:	2e726168 	rpwcssz	f6, f2, #0.0
     6a0:	70720063 	rsbsvc	r0, r2, r3, rrx
     6a4:	65735f69 	ldrbvs	r5, [r3, #-3945]!	; 0xf69
     6a8:	75705f74 	ldrbvc	r5, [r0, #-3956]!	; 0xf74
     6ac:	6c006374 	stcvs	3, cr6, [r0], {116}	; 0x74
     6b0:	2f636269 	svccs	0x00636269
     6b4:	6b747570 	blvs	1d1dc7c <__bss_end__+0x1d111fc>
     6b8:	6900632e 	stmdbvs	r0, {r1, r2, r3, r5, r8, r9, sp, lr}
     6bc:	7265746e 	rsbvc	r7, r5, #1845493760	; 0x6e000000
     6c0:	5f6c616e 	svcpl	0x006c616e
     6c4:	6b747570 	blvs	1d1dc8c <__bss_end__+0x1d1120c>
     6c8:	746d6600 	strbtvc	r6, [sp], #-1536	; 0x600
     6cc:	6174735f 	cmnvs	r4, pc, asr r3
     6d0:	6e007472 	mcrvs	4, 0, r7, cr0, cr2, {3}
     6d4:	705f6765 	subsvc	r6, pc, r5, ror #14
     6d8:	76657200 	strbtvc	r7, [r5], -r0, lsl #4
     6dc:	65737265 	ldrbvs	r7, [r3, #-613]!	; 0x265
     6e0:	64736900 	ldrbtvs	r6, [r3], #-2304	; 0x900
     6e4:	74696769 	strbtvc	r6, [r9], #-1897	; 0x769
     6e8:	74757000 	ldrbtvc	r7, [r5], #-0
     6ec:	70665f73 	rsbvc	r5, r6, r3, ror pc
     6f0:	67697300 	strbvs	r7, [r9, -r0, lsl #6]!
     6f4:	5f64656e 	svcpl	0x0064656e
     6f8:	696c0070 	stmdbvs	ip!, {r4, r5, r6}^
     6fc:	762f6362 	strtvc	r6, [pc], -r2, ror #6
     700:	72702d61 	rsbsvc	r2, r0, #6208	; 0x1840
     704:	6b746e69 	blvs	1d1c0b0 <__bss_end__+0x1d0f630>
     708:	7200632e 	andvc	r6, r0, #-1207959552	; 0xb8000000
     70c:	735f6970 	cmpvc	pc, #112, 18	; 0x1c0000
     710:	6f5f7465 	svcvs	0x005f7465
     714:	75707475 	ldrbvc	r7, [r0, #-1141]!	; 0x475
     718:	69770074 	ldmdbvs	r7!, {r2, r4, r5, r6}^
     71c:	00687464 	rsbeq	r7, r8, r4, ror #8
     720:	63747570 	cmnvs	r4, #112, 10	; 0x1c000000
     724:	0070665f 	rsbseq	r6, r0, pc, asr r6
     728:	74696d65 	strbtvc	r6, [r9], #-3429	; 0xd65
     72c:	73696400 	cmnvc	r9, #0, 8
     730:	656c6261 	strbvs	r6, [ip, #-609]!	; 0x261
     734:	6361635f 	cmnvs	r1, #2080374785	; 0x7c000001
     738:	73006568 	movwvc	r6, #1384	; 0x568
     73c:	66666174 			; <UNDEFINED> instruction: 0x66666174
     740:	6372732d 	cmnvs	r2, #-1275068416	; 0xb4000000
     744:	6361632f 	cmnvs	r1, #-1140850688	; 0xbc000000
     748:	632e6568 	teqvs	lr, #104, 10	; 0x1a000000
     74c:	62657200 	rsbvs	r7, r5, #0, 4
     750:	5f746f6f 	svcpl	0x00746f6f
     754:	646e6168 	strbtvs	r6, [lr], #-360	; 0x168
     758:	0072656c 	rsbseq	r6, r2, ip, ror #10
     75c:	66617473 			; <UNDEFINED> instruction: 0x66617473
     760:	72732d66 	rsbsvc	r2, r3, #6528	; 0x1980
     764:	6c632f63 	stclvs	15, cr2, [r3], #-396	; 0xfffffe74
     768:	2d6e6165 	stfcse	f6, [lr, #-404]!	; 0xfffffe6c
     76c:	6f626572 	svcvs	0x00626572
     770:	632e746f 	teqvs	lr, #1862270976	; 0x6f000000
     774:	69707200 	ldmdbvs	r0!, {r9, ip, sp, lr}^
     778:	6265725f 	rsbvs	r7, r5, #-268435451	; 0xf0000005
     77c:	00746f6f 	rsbseq	r6, r4, pc, ror #30
     780:	616c6564 	cmnvs	ip, r4, ror #10
     784:	736d5f79 	cmnvc	sp, #484	; 0x1e4
     788:	625f5f00 	subsvs	r5, pc, #0, 30
     78c:	735f7373 	cmpvc	pc, #-872415231	; 0xcc000001
     790:	74726174 	ldrbtvc	r6, [r2], #-372	; 0x174
     794:	5f005f5f 	svcpl	0x00005f5f
     798:	7373625f 	cmnvc	r3, #-268435451	; 0xf0000005
     79c:	646e655f 	strbtvs	r6, [lr], #-1375	; 0x55f
     7a0:	63005f5f 	movwvs	r5, #3935	; 0xf5f
     7a4:	72617473 	rsbvc	r7, r1, #1929379840	; 0x73000000
     7a8:	61685f74 	smcvs	34292	; 0x85f4
     7ac:	656c646e 	strbvs	r6, [ip, #-1134]!	; 0x46e
     7b0:	73620072 	cmnvc	r2, #114	; 0x72
     7b4:	6e655f73 	mcrvs	15, 3, r5, cr5, cr3, {3}
     7b8:	635f0064 	cmpvs	pc, #100	; 0x64
     7bc:	72617473 	rsbvc	r7, r1, #1929379840	; 0x73000000
     7c0:	74730074 	ldrbtvc	r0, [r3], #-116	; 0x74
     7c4:	2d666661 	stclcs	6, cr6, [r6, #-388]!	; 0xfffffe7c
     7c8:	2f637273 	svccs	0x00637273
     7cc:	61747363 	cmnvs	r4, r3, ror #6
     7d0:	632e7472 	teqvs	lr, #1912602624	; 0x72000000
     7d4:	61747300 	cmnvs	r4, r0, lsl #6
     7d8:	732d6666 	teqvc	sp, #106954752	; 0x6600000
     7dc:	642f6372 	strtvs	r6, [pc], #-882	; 7e4 <__code_start__-0x781c>
     7e0:	75616665 	strbvc	r6, [r1, #-1637]!	; 0x665
     7e4:	682d746c 	stmdavs	sp!, {r2, r3, r5, r6, sl, ip, sp, lr}
     7e8:	6c646e61 	stclvs	14, cr6, [r4], #-388	; 0xfffffe7c
     7ec:	662d7265 	strtvs	r7, [sp], -r5, ror #4
     7f0:	2e747361 	cdpcs	3, 7, cr7, cr4, cr1, {3}
     7f4:	61660063 	cmnvs	r6, r3, rrx
     7f8:	695f7473 	ldmdbvs	pc, {r0, r1, r4, r5, r6, sl, ip, sp, lr}^	; <UNPREDICTABLE>
     7fc:	7265746e 	rsbvc	r7, r5, #1845493760	; 0x6e000000
     800:	74707572 	ldrbtvc	r7, [r0], #-1394	; 0x572
     804:	6365765f 	cmnvs	r5, #99614720	; 0x5f00000
     808:	00726f74 	rsbseq	r6, r2, r4, ror pc
     80c:	65736572 	ldrbvs	r6, [r3, #-1394]!	; 0x572
     810:	65765f74 	ldrbvs	r5, [r6, #-3956]!	; 0xf74
     814:	726f7463 	rsbvc	r7, pc, #1660944384	; 0x63000000
     818:	61747300 	cmnvs	r4, r0, lsl #6
     81c:	732d6666 	teqvc	sp, #106954752	; 0x6600000
     820:	642f6372 	strtvs	r6, [pc], #-882	; 828 <__code_start__-0x77d8>
     824:	75616665 	strbvc	r6, [r1, #-1637]!	; 0x665
     828:	682d746c 	stmdavs	sp!, {r2, r3, r5, r6, sl, ip, sp, lr}
     82c:	6c646e61 	stclvs	14, cr6, [r4], #-388	; 0xfffffe7c
     830:	722d7265 	eorvc	r7, sp, #1342177286	; 0x50000006
     834:	74657365 	strbtvc	r7, [r5], #-869	; 0x365
     838:	7300632e 	movwvc	r6, #814	; 0x32e
     83c:	66666174 			; <UNDEFINED> instruction: 0x66666174
     840:	6372732d 	cmnvs	r2, #-1275068416	; 0xb4000000
     844:	6665642f 	strbtvs	r6, [r5], -pc, lsr #8
     848:	746c7561 	strbtvc	r7, [ip], #-1377	; 0x561
     84c:	6e61682d 	cdpvs	8, 6, cr6, cr1, cr13, {1}
     850:	72656c64 	rsbvc	r6, r5, #100, 24	; 0x6400
     854:	646e752d 	strbtvs	r7, [lr], #-1325	; 0x52d
     858:	6e696665 	cdpvs	6, 6, cr6, cr9, cr5, {3}
     85c:	692d6465 	pushvs	{r0, r2, r5, r6, sl, sp, lr}
     860:	2e74736e 	cdpcs	3, 7, cr7, cr4, cr14, {3}
     864:	6e750063 	cdpvs	0, 7, cr0, cr5, cr3, {3}
     868:	69666564 	stmdbvs	r6!, {r2, r5, r6, r8, sl, sp, lr}^
     86c:	5f64656e 	svcpl	0x0064656e
     870:	74736e69 	ldrbtvc	r6, [r3], #-3689	; 0xe69
     874:	74637572 	strbtvc	r7, [r3], #-1394	; 0x572
     878:	5f6e6f69 	svcpl	0x006e6f69
     87c:	74636576 	strbtvc	r6, [r3], #-1398	; 0x576
     880:	7300726f 	movwvc	r7, #623	; 0x26f
     884:	66666174 			; <UNDEFINED> instruction: 0x66666174
     888:	6372732d 	cmnvs	r2, #-1275068416	; 0xb4000000
     88c:	6665642f 	strbtvs	r6, [r5], -pc, lsr #8
     890:	746c7561 	strbtvc	r7, [ip], #-1377	; 0x561
     894:	6e61682d 	cdpvs	8, 6, cr6, cr1, cr13, {1}
     898:	72656c64 	rsbvc	r6, r5, #100, 24	; 0x6400
     89c:	00632e73 	rsbeq	r2, r3, r3, ror lr
     8a0:	5f515249 	svcpl	0x00515249
     8a4:	646e6570 	strbtvs	r6, [lr], #-1392	; 0x570
     8a8:	5f676e69 	svcpl	0x00676e69
     8ac:	69440032 	stmdbvs	r4, {r1, r4, r5}^
     8b0:	6c626173 	stfvse	f6, [r2], #-460	; 0xfffffe34
     8b4:	61425f65 	cmpvs	r2, r5, ror #30
     8b8:	5f636973 	svcpl	0x00636973
     8bc:	73515249 	cmpvc	r1, #-1879048188	; 0x90000004
     8c0:	51494600 	cmppl	r9, r0, lsl #12
     8c4:	6e6f635f 	mcrvs	3, 3, r6, cr15, cr15, {2}
     8c8:	6c6f7274 	sfmvs	f7, 2, [pc], #-464	; 700 <__code_start__-0x7900>
     8cc:	6e695f00 	cdpvs	15, 6, cr5, cr9, cr0, {0}
     8d0:	72726574 	rsbsvc	r6, r2, #116, 10	; 0x1d000000
     8d4:	5f747075 	svcpl	0x00747075
     8d8:	6c626174 	stfvse	f6, [r2], #-464	; 0xfffffe30
     8dc:	52490065 	subpl	r0, r9, #101	; 0x65
     8e0:	61625f51 	cmnvs	r2, r1, asr pc
     8e4:	5f636973 	svcpl	0x00636973
     8e8:	646e6570 	strbtvs	r6, [lr], #-1392	; 0x570
     8ec:	00676e69 	rsbeq	r6, r7, r9, ror #28
     8f0:	62616e45 	rsbvs	r6, r1, #1104	; 0x450
     8f4:	425f656c 	subsmi	r6, pc, #108, 10	; 0x1b000000
     8f8:	63697361 	cmnvs	r9, #-2080374783	; 0x84000001
     8fc:	5152495f 	cmppl	r2, pc, asr r9
     900:	6e450073 	mcrvs	0, 2, r0, cr5, cr3, {3}
     904:	656c6261 	strbvs	r6, [ip, #-609]!	; 0x261
     908:	5152495f 	cmppl	r2, pc, asr r9
     90c:	00315f73 	eorseq	r5, r1, r3, ror pc
     910:	62616e45 	rsbvs	r6, r1, #1104	; 0x450
     914:	495f656c 	ldmdbmi	pc, {r2, r3, r5, r6, r8, sl, sp, lr}^	; <UNPREDICTABLE>
     918:	5f735152 	svcpl	0x00735152
     91c:	695f0032 	ldmdbvs	pc, {r1, r4, r5}^	; <UNPREDICTABLE>
     920:	7265746e 	rsbvc	r7, r5, #1845493760	; 0x6e000000
     924:	74707572 	ldrbtvc	r7, [r0], #-1394	; 0x572
     928:	6261745f 	rsbvs	r7, r1, #1593835520	; 0x5f000000
     92c:	655f656c 	ldrbvs	r6, [pc, #-1388]	; 3c8 <__code_start__-0x7c38>
     930:	6400646e 	strvs	r6, [r0], #-1134	; 0x46e
     934:	625f7665 	subsvs	r7, pc, #105906176	; 0x6500000
     938:	69727261 	ldmdbvs	r2!, {r0, r5, r6, r9, ip, sp, lr}^
     93c:	73007265 	movwvc	r7, #613	; 0x265
     940:	66666174 			; <UNDEFINED> instruction: 0x66666174
     944:	6372732d 	cmnvs	r2, #-1275068416	; 0xb4000000
     948:	746e692f 	strbtvc	r6, [lr], #-2351	; 0x92f
     94c:	75727265 	ldrbvc	r7, [r2, #-613]!	; 0x265
     950:	2d737470 	cfldrdcs	mvd7, [r3, #-448]!	; 0xfffffe40
     954:	00632e63 	rsbeq	r2, r3, r3, ror #28
     958:	5f515249 	svcpl	0x00515249
     95c:	65736142 	ldrbvs	r6, [r3, #-322]!	; 0x142
     960:	54555000 	ldrbpl	r5, [r5], #-0
     964:	44003233 	strmi	r3, [r0], #-563	; 0x233
     968:	62617369 	rsbvs	r7, r1, #-1543503871	; 0xa4000001
     96c:	495f656c 	ldmdbmi	pc, {r2, r3, r5, r6, r8, sl, sp, lr}^	; <UNPREDICTABLE>
     970:	5f735152 	svcpl	0x00735152
     974:	69440031 	stmdbvs	r4, {r0, r4, r5}^
     978:	6c626173 	stfvse	f6, [r2], #-460	; 0xfffffe34
     97c:	52495f65 	subpl	r5, r9, #404	; 0x194
     980:	325f7351 	subscc	r7, pc, #1140850689	; 0x44000001
     984:	51524900 	cmppl	r2, r0, lsl #18
     988:	6e65705f 	mcrvs	0, 3, r7, cr5, cr15, {2}
     98c:	676e6964 	strbvs	r6, [lr, -r4, ror #18]!
     990:	6100315f 	tstvs	r0, pc, asr r1
     994:	73755f74 	cmnvc	r5, #116, 30	; 0x1d0
     998:	6c5f7265 	lfmvs	f7, 2, [pc], {101}	; 0x65
     99c:	6c657665 	stclvs	6, cr7, [r5], #-404	; 0xfffffe6c
     9a0:	61747300 	cmnvs	r4, r0, lsl #6
     9a4:	732d6666 	teqvc	sp, #106954752	; 0x6600000
     9a8:	722f6372 	eorvc	r6, pc, #-939524095	; 0xc8000001
     9ac:	6f6f6265 	svcvs	0x006f6265
     9b0:	00632e74 	rsbeq	r2, r3, r4, ror lr
     9b4:	525f4d50 	subspl	r4, pc, #80, 26	; 0x1400
     9b8:	5f435453 	svcpl	0x00435453
     9bc:	46435257 			; <UNDEFINED> instruction: 0x46435257
     9c0:	55465f47 	strbpl	r5, [r6, #-3911]	; 0xf47
     9c4:	525f4c4c 	subspl	r4, pc, #76, 24	; 0x4c00
     9c8:	54455345 	strbpl	r5, [r5], #-837	; 0x345
     9cc:	5f4d5000 	svcpl	0x004d5000
     9d0:	474f4457 	smlsldmi	r4, pc, r7, r4	; <UNPREDICTABLE>
     9d4:	74657300 	strbtvc	r7, [r5], #-768	; 0x300
     9d8:	6573755f 	ldrbvs	r7, [r3, #-1375]!	; 0x55f
     9dc:	656c5f72 	strbvs	r5, [ip, #-3954]!	; 0xf72
     9e0:	006c6576 	rsbeq	r6, ip, r6, ror r5
     9e4:	505f4d50 	subspl	r4, pc, r0, asr sp	; <UNPREDICTABLE>
     9e8:	57535341 	ldrbpl	r5, [r3, -r1, asr #6]
     9ec:	0044524f 	subeq	r5, r4, pc, asr #4
     9f0:	525f4d50 	subspl	r4, pc, #80, 26	; 0x1400
     9f4:	00435453 	subeq	r5, r3, r3, asr r4
     9f8:	656d6974 	strbvs	r6, [sp, #-2420]!	; 0x974
     9fc:	65675f72 	strbvs	r5, [r7, #-3954]!	; 0xf72
     a00:	73755f74 	cmnvc	r5, #116, 30	; 0x1d0
     a04:	725f6365 	subsvc	r6, pc, #-1811939327	; 0x94000001
     a08:	64007761 	strvs	r7, [r0], #-1889	; 0x761
     a0c:	79616c65 	stmdbvc	r1!, {r0, r2, r5, r6, sl, fp, sp, lr}^
     a10:	6365735f 	cmnvs	r5, #2080374785	; 0x7c000001
     a14:	61747300 	cmnvs	r4, r0, lsl #6
     a18:	732d6666 	teqvc	sp, #106954752	; 0x6600000
     a1c:	742f6372 	strtvc	r6, [pc], #-882	; a24 <__code_start__-0x75dc>
     a20:	72656d69 	rsbvc	r6, r5, #6720	; 0x1a40
     a24:	4700632e 	strmi	r6, [r0, -lr, lsr #6]
     a28:	32335445 	eorscc	r5, r3, #1157627904	; 0x45000000
     a2c:	63697400 	cmnvs	r9, #0, 8
     a30:	6400736b 	strvs	r7, [r0], #-875	; 0x36b
     a34:	79616c65 	stmdbvc	r1!, {r0, r2, r5, r6, sl, fp, sp, lr}^
     a38:	6379635f 	cmnvs	r9, #2080374785	; 0x7c000001
     a3c:	0073656c 	rsbseq	r6, r3, ip, ror #10
     a40:	616c6564 	cmnvs	ip, r4, ror #10
     a44:	73755f79 	cmnvc	r5, #484	; 0x1e4
     a48:	6d697400 	cfstrdvs	mvd7, [r9, #-0]
     a4c:	675f7265 	ldrbvs	r7, [pc, -r5, ror #4]
     a50:	755f7465 	ldrbvc	r7, [pc, #-1125]	; 5f3 <__code_start__-0x7a0d>
     a54:	00636573 	rsbeq	r6, r3, r3, ror r5
     a58:	6f73645f 	svcvs	0x0073645f
     a5c:	6e61685f 	mcrvs	8, 3, r6, cr1, cr15, {2}
     a60:	00656c64 	rsbeq	r6, r5, r4, ror #24
     a64:	7a69735f 	bvc	1a5d7e8 <__bss_end__+0x1a50d68>
     a68:	725f0065 	subsvc	r0, pc, #101	; 0x65
     a6c:	34646e61 	strbtcc	r6, [r4], #-3681	; 0xe61
     a70:	655f0038 	ldrbvs	r0, [pc, #-56]	; a40 <__code_start__-0x75c0>
     a74:	6772656d 	ldrbvs	r6, [r2, -sp, ror #10]!
     a78:	79636e65 	stmdbvc	r3!, {r0, r2, r5, r6, r9, sl, fp, sp, lr}^
     a7c:	72617500 	rsbvc	r7, r1, #0, 10
     a80:	6e695f74 	mcrvs	15, 3, r5, cr9, cr4, {3}
     a84:	5f007469 	svcpl	0x00007469
     a88:	74726377 	ldrbtvc	r6, [r2], #-887	; 0x377
     a8c:	5f626d6f 	svcpl	0x00626d6f
     a90:	74617473 	strbtvc	r7, [r1], #-1139	; 0x473
     a94:	775f0065 	ldrbvc	r0, [pc, -r5, rrx]
     a98:	74727363 	ldrbtvc	r7, [r2], #-867	; 0x363
     a9c:	73626d6f 	cmnvc	r2, #7104	; 0x1bc0
     aa0:	6174735f 	cmnvs	r4, pc, asr r3
     aa4:	5f006574 	svcpl	0x00006574
     aa8:	7366626c 	cmnvc	r6, #108, 4	; 0xc0000006
     aac:	00657a69 	rsbeq	r7, r5, r9, ror #20
     ab0:	4f495047 	svcmi	0x00495047
     ab4:	4e55465f 	mrcmi	6, 2, r4, cr5, cr15, {2}
     ab8:	4e495f43 	cdpmi	15, 4, cr5, cr9, cr3, {2}
     abc:	00545550 	subseq	r5, r4, r0, asr r5
     ac0:	72626d5f 	rsbvc	r6, r2, #6080	; 0x17c0
     ac4:	63776f74 	cmnvs	r7, #116, 30	; 0x1d0
     ac8:	6174735f 	cmnvs	r4, pc, asr r3
     acc:	5f006574 	svcpl	0x00006574
     ad0:	6f746377 	svcvs	0x00746377
     ad4:	735f626d 	cmpvc	pc, #-805306362	; 0xd0000006
     ad8:	65746174 	ldrbvs	r6, [r4, #-372]!	; 0x174
     adc:	745f5f00 	ldrbvc	r5, [pc], #-3840	; ae4 <__code_start__-0x751c>
     ae0:	65735f6d 	ldrbvs	r5, [r3, #-3949]!	; 0xf6d
     ae4:	74730063 	ldrbtvc	r0, [r3], #-99	; 0x63
     ae8:	5f007461 	svcpl	0x00007461
     aec:	66756275 			; <UNDEFINED> instruction: 0x66756275
     af0:	49504700 	ldmdbmi	r0, {r8, r9, sl, lr}^
     af4:	55465f4f 	strbpl	r5, [r6, #-3919]	; 0xf4f
     af8:	415f434e 	cmpmi	pc, lr, asr #6
     afc:	0031544c 	eorseq	r5, r1, ip, asr #8
     b00:	7361625f 	cmnvc	r1, #-268435451	; 0xf0000005
     b04:	6e630065 	cdpvs	0, 6, cr0, cr3, cr5, {3}
     b08:	5f006c74 	svcpl	0x00006c74
     b0c:	5f6d745f 	svcpl	0x006d745f
     b10:	72756f68 	rsbsvc	r6, r5, #104, 30	; 0x1a0
     b14:	735f5f00 	cmpvc	pc, #0, 30
     b18:	6f5f0066 	svcvs	0x005f0066
     b1c:	78655f6e 	stmdavc	r5!, {r1, r2, r3, r5, r6, r8, r9, sl, fp, ip, lr}^
     b20:	615f7469 	cmpvs	pc, r9, ror #8
     b24:	00736772 	rsbseq	r6, r3, r2, ror r7
     b28:	6f6f635f 	svcvs	0x006f635f
     b2c:	0065696b 	rsbeq	r6, r5, fp, ror #18
     b30:	67735f5f 			; <UNDEFINED> instruction: 0x67735f5f
     b34:	0065756c 	rsbeq	r7, r5, ip, ror #10
     b38:	616c665f 	cmnvs	ip, pc, asr r6
     b3c:	5f007367 	svcpl	0x00007367
     b40:	635f7369 	cmpvs	pc, #-1543503871	; 0xa4000001
     b44:	5f006178 	svcpl	0x00006178
     b48:	69647473 	stmdbvs	r4!, {r0, r1, r4, r5, r6, sl, ip, sp, lr}^
     b4c:	625f006e 	subsvs	r0, pc, #110	; 0x6e
     b50:	69736b6c 	ldmdbvs	r3!, {r2, r3, r5, r6, r8, r9, fp, sp, lr}^
     b54:	7500657a 	strvc	r6, [r0, #-1402]	; 0x57a
     b58:	2e747261 	cdpcs	2, 7, cr7, cr4, cr1, {3}
     b5c:	75610063 	strbvc	r0, [r1, #-99]!	; 0x63
     b60:	65705f78 	ldrbvs	r5, [r0, #-3960]!	; 0xf78
     b64:	68706972 	ldmdavs	r0!, {r1, r4, r5, r6, r8, fp, sp, lr}^
     b68:	635f0073 	cmpvs	pc, #115	; 0x73
     b6c:	75627476 	strbvc	r7, [r2, #-1142]!	; 0x476
     b70:	682f0066 	stmdavs	pc!, {r1, r2, r5, r6}	; <UNPREDICTABLE>
     b74:	2f656d6f 	svccs	0x00656d6f
     b78:	6c676e65 	stclvs	14, cr6, [r7], #-404	; 0xfffffe6c
     b7c:	632f7265 	teqvs	pc, #1342177286	; 0x50000006
     b80:	7373616c 	cmnvc	r3, #108, 2
     b84:	3273632f 	rsbscc	r6, r3, #-1140850688	; 0xbc000000
     b88:	786c3034 	stmdavc	ip!, {r2, r4, r5, ip, sp}^
     b8c:	7330322d 	teqvc	r0, #-805306366	; 0xd0000002
     b90:	6c2f7270 	sfmvs	f7, 4, [pc], #-448	; 9d8 <__code_start__-0x7628>
     b94:	69706269 	ldmdbvs	r0!, {r0, r3, r5, r6, r9, sp, lr}^
     b98:	6174732f 	cmnvs	r4, pc, lsr #6
     b9c:	702d6666 	eorvc	r6, sp, r6, ror #12
     ba0:	61766972 	cmnvs	r6, r2, ror r9
     ba4:	5f006574 	svcpl	0x00006574
     ba8:	7273626d 	rsbsvc	r6, r3, #-805306362	; 0xd0000006
     bac:	63776f74 	cmnvs	r7, #116, 30	; 0x1d0
     bb0:	74735f73 	ldrbtvc	r5, [r3], #-3955	; 0xf73
     bb4:	00657461 	rsbeq	r7, r5, r1, ror #8
     bb8:	72626d5f 	rsbvc	r6, r2, #6080	; 0x17c0
     bbc:	5f6e656c 	svcpl	0x006e656c
     bc0:	74617473 	strbtvc	r7, [r1], #-1139	; 0x473
     bc4:	665f0065 	ldrbvs	r0, [pc], -r5, rrx
     bc8:	6772616e 	ldrbvs	r6, [r2, -lr, ror #2]!
     bcc:	75610073 	strbvc	r0, [r1, #-115]!	; 0x73
     bd0:	6e655f78 	mcrvs	15, 3, r5, cr5, cr8, {3}
     bd4:	656c6261 	strbvs	r6, [ip, #-609]!	; 0x261
     bd8:	665f0073 			; <UNDEFINED> instruction: 0x665f0073
     bdc:	5f00736e 	svcpl	0x0000736e
     be0:	6e676973 	mcrvs	9, 3, r6, cr7, cr3, {3}
     be4:	72617500 	rsbvc	r7, r1, #0, 10
     be8:	61635f74 	smcvs	13812	; 0x35f4
     bec:	75705f6e 	ldrbvc	r5, [r0, #-3950]!	; 0xf6e
     bf0:	5f006374 	svcpl	0x00006374
     bf4:	636f6c66 	cmnvs	pc, #26112	; 0x6600
     bf8:	00745f6b 	rsbseq	r5, r4, fp, ror #30
     bfc:	6474735f 	ldrbtvs	r7, [r4], #-863	; 0x35f
     c00:	00727265 	rsbseq	r7, r2, r5, ror #4
     c04:	6769425f 			; <UNDEFINED> instruction: 0x6769425f
     c08:	00746e69 	rsbseq	r6, r4, r9, ror #28
     c0c:	6d61675f 	stclvs	7, cr6, [r1, #-380]!	; 0xfffffe84
     c10:	735f616d 	cmpvc	pc, #1073741851	; 0x4000001b
     c14:	676e6769 	strbvs	r6, [lr, -r9, ror #14]!
     c18:	5f006d61 	svcpl	0x00006d61
     c1c:	75736572 	ldrbvc	r6, [r3, #-1394]!	; 0x572
     c20:	6b5f746c 	blvs	17dddd8 <__bss_end__+0x17d1358>
     c24:	745f5f00 	ldrbvc	r5, [pc], #-3840	; c2c <__code_start__-0x73d4>
     c28:	5f5f006d 	svcpl	0x005f006d
     c2c:	62686377 	rsbvs	r6, r8, #-603979775	; 0xdc000001
     c30:	72617500 	rsbvc	r7, r1, #0, 10
     c34:	65675f74 	strbvs	r5, [r7, #-3956]!	; 0xf74
     c38:	5f006374 	svcpl	0x00006374
     c3c:	6f647473 	svcvs	0x00647473
     c40:	5f007475 	svcpl	0x00007475
     c44:	6c747663 	ldclvs	6, cr7, [r4], #-396	; 0xfffffe74
     c48:	5f006e65 	svcpl	0x00006e65
     c4c:	656c6966 	strbvs	r6, [ip, #-2406]!	; 0x966
     c50:	696e5f00 	stmdbvs	lr!, {r8, r9, sl, fp, ip, lr}^
     c54:	0073626f 	rsbseq	r6, r3, pc, ror #4
     c58:	6574615f 	ldrbvs	r6, [r4, #-351]!	; 0x15f
     c5c:	30746978 	rsbscc	r6, r4, r8, ror r9
     c60:	69735f00 	ldmdbvs	r3!, {r8, r9, sl, fp, ip, lr}^
     c64:	6c616e67 	stclvs	14, cr6, [r1], #-412	; 0xfffffe64
     c68:	6675625f 			; <UNDEFINED> instruction: 0x6675625f
     c6c:	73615f00 	cmnvc	r1, #0, 30
     c70:	6d697463 	cfstrdvs	mvd7, [r9, #-396]!	; 0xfffffe74
     c74:	75625f65 	strbvc	r5, [r2, #-3941]!	; 0xf65
     c78:	725f0066 	subsvc	r0, pc, #102	; 0x66
     c7c:	6c757365 	ldclvs	3, cr7, [r5], #-404	; 0xfffffe6c
     c80:	5f5f0074 	svcpl	0x005f0074
     c84:	00686377 	rsbeq	r6, r8, r7, ror r3
     c88:	4f495047 	svcmi	0x00495047
     c8c:	4e55465f 	mrcmi	6, 2, r4, cr5, cr15, {2}
     c90:	4c415f43 	mcrrmi	15, 4, r5, r1, cr3
     c94:	77003254 	smlsdvc	r0, r4, r2, r3
     c98:	5f746e69 	svcpl	0x00746e69
     c9c:	6c5f0074 	mrrcvs	0, 7, r0, pc, cr4	; <UNPREDICTABLE>
     ca0:	006b636f 	rsbeq	r6, fp, pc, ror #6
     ca4:	616c665f 	cmnvs	ip, pc, asr r6
     ca8:	00327367 	eorseq	r7, r2, r7, ror #6
     cac:	6d745f5f 	ldclvs	15, cr5, [r4, #-380]!	; 0xfffffe84
     cb0:	6165795f 	cmnvs	r5, pc, asr r9
     cb4:	6f5f0072 	svcvs	0x005f0072
     cb8:	65736666 	ldrbvs	r6, [r3, #-1638]!	; 0x666
     cbc:	70670074 	rsbvc	r0, r7, r4, ror r0
     cc0:	735f6f69 	cmpvc	pc, #420	; 0x1a4
     cc4:	665f7465 	ldrbvs	r7, [pc], -r5, ror #8
     cc8:	74636e75 	strbtvc	r6, [r3], #-3701	; 0xe75
     ccc:	006e6f69 	rsbeq	r6, lr, r9, ror #30
     cd0:	78656e5f 	stmdavc	r5!, {r0, r1, r2, r3, r4, r6, r9, sl, fp, sp, lr}^
     cd4:	5f006674 	svcpl	0x00006674
     cd8:	5f6d745f 	svcpl	0x006d745f
     cdc:	006e6f6d 	rsbeq	r6, lr, sp, ror #30
     ce0:	6574615f 	ldrbvs	r6, [r4, #-351]!	; 0x15f
     ce4:	00746978 	rsbseq	r6, r4, r8, ror r9
     ce8:	64735f5f 	ldrbtvs	r5, [r3], #-3935	; 0xf5f
     cec:	6e696469 	cdpvs	4, 6, cr6, cr9, cr9, {3}
     cf0:	5f007469 	svcpl	0x00007469
     cf4:	5f66666f 	svcpl	0x0066666f
     cf8:	61750074 	cmnvs	r5, r4, ror r0
     cfc:	5f007472 	svcpl	0x00007472
     d00:	65657266 	strbvs	r7, [r5, #-614]!	; 0x266
     d04:	7473696c 	ldrbtvc	r6, [r3], #-2412	; 0x96c
     d08:	4f4c5f00 	svcmi	0x004c5f00
     d0c:	525f4b43 	subspl	r4, pc, #68608	; 0x10c00
     d10:	52554345 	subspl	r4, r5, #335544321	; 0x14000001
     d14:	45564953 	ldrbmi	r4, [r6, #-2387]	; 0x953
     d18:	5f00545f 	svcpl	0x0000545f
     d1c:	0077656e 	rsbseq	r6, r7, lr, ror #10
     d20:	655f685f 	ldrbvs	r6, [pc, #-2143]	; 4c9 <__code_start__-0x7b37>
     d24:	6f6e7272 	svcvs	0x006e7272
     d28:	745f5f00 	ldrbvc	r5, [pc], #-3840	; d30 <__code_start__-0x72d0>
     d2c:	64795f6d 	ldrbtvs	r5, [r9], #-3949	; 0xf6d
     d30:	5f007961 	svcpl	0x00007961
     d34:	7562735f 	strbvc	r7, [r2, #-863]!	; 0x35f
     d38:	695f0066 	ldmdbvs	pc, {r1, r2, r5, r6}^	; <UNPREDICTABLE>
     d3c:	0073626f 	rsbseq	r6, r3, pc, ror #4
     d40:	49465f5f 	stmdbmi	r6, {r0, r1, r2, r3, r4, r6, r8, r9, sl, fp, ip, lr}^
     d44:	5f00454c 	svcpl	0x0000454c
     d48:	7473626d 	ldrbtvc	r6, [r3], #-621	; 0x26d
     d4c:	5f657461 	svcpl	0x00657461
     d50:	5f5f0074 	svcpl	0x005f0074
     d54:	4c494673 	mcrrmi	6, 7, r4, r9, cr3
     d58:	6d5f0045 	ldclvs	0, cr0, [pc, #-276]	; c4c <__code_start__-0x73b4>
     d5c:	61747362 	cmnvs	r4, r2, ror #6
     d60:	5f006574 	svcpl	0x00006574
     d64:	646e6172 	strbtvs	r6, [lr], #-370	; 0x172
     d68:	78656e5f 	stmdavc	r5!, {r0, r1, r2, r3, r4, r6, r9, sl, fp, sp, lr}^
     d6c:	6d5f0074 	ldclvs	0, cr0, [pc, #-464]	; ba4 <__code_start__-0x745c>
     d70:	6e656c62 	cdpvs	12, 6, cr6, cr5, cr2, {3}
     d74:	6174735f 	cmnvs	r4, pc, asr r3
     d78:	5f006574 	svcpl	0x00006574
     d7c:	00636e69 	rsbeq	r6, r3, r9, ror #28
     d80:	646e695f 	strbtvs	r6, [lr], #-2399	; 0x95f
     d84:	75635f00 	strbvc	r5, [r3, #-3840]!	; 0xf00
     d88:	6e657272 	mcrvs	2, 3, r7, cr5, cr2, {3}
     d8c:	6f6c5f74 	svcvs	0x006c5f74
     d90:	656c6163 	strbvs	r6, [ip, #-355]!	; 0x163
     d94:	635f5f00 	cmpvs	pc, #0, 30
     d98:	6e61656c 	cdpvs	5, 6, cr6, cr1, cr12, {3}
     d9c:	5f007075 	svcpl	0x00007075
     da0:	7778616d 	ldrbvc	r6, [r8, -sp, ror #2]!
     da4:	5f007364 	svcpl	0x00007364
     da8:	6e656572 	mcrvs	5, 3, r6, cr5, cr2, {3}
     dac:	735f0074 	cmpvc	pc, #116	; 0x74
     db0:	00646565 	rsbeq	r6, r4, r5, ror #10
     db4:	6f635f5f 	svcvs	0x00635f5f
     db8:	00746e75 	rsbseq	r6, r4, r5, ror lr
     dbc:	61765f5f 	cmnvs	r6, pc, asr pc
     dc0:	0065756c 	rsbeq	r7, r5, ip, ror #10
     dc4:	6565735f 	strbvs	r7, [r5, #-863]!	; 0x35f
     dc8:	6162006b 	cmnvs	r2, fp, rrx
     dcc:	5f006475 	svcpl	0x00006475
     dd0:	736f7066 	cmnvc	pc, #102	; 0x66
     dd4:	5f00745f 	svcpl	0x0000745f
     dd8:	5f6d745f 	svcpl	0x006d745f
     ddc:	006e696d 	rsbeq	r6, lr, sp, ror #18
     de0:	61726373 	cmnvs	r2, r3, ror r3
     de4:	00686374 	rsbeq	r6, r8, r4, ror r3
     de8:	6c756d5f 	ldclvs	13, cr6, [r5], #-380	; 0xfffffe84
     dec:	75700074 	ldrbvc	r0, [r0, #-116]!	; 0x74
     df0:	00323374 	eorseq	r3, r2, r4, ror r3
     df4:	20554e47 	subscs	r4, r5, r7, asr #28
     df8:	20393943 	eorscs	r3, r9, r3, asr #18
     dfc:	2e332e36 	mrccs	14, 1, r2, cr3, cr6, {1}
     e00:	30322031 	eorscc	r2, r2, r1, lsr r0
     e04:	36303731 			; <UNDEFINED> instruction: 0x36303731
     e08:	2d203032 	stccs	0, cr3, [r0, #-200]!	; 0xffffff38
     e0c:	7570636d 	ldrbvc	r6, [r0, #-877]!	; 0x36d
     e10:	6d72613d 	ldfvse	f6, [r2, #-244]!	; 0xffffff0c
     e14:	36373131 			; <UNDEFINED> instruction: 0x36373131
     e18:	2d667a6a 	vstmdbcs	r6!, {s15-s120}
     e1c:	6d2d2073 	stcvs	0, cr2, [sp, #-460]!	; 0xfffffe34
     e20:	656e7574 	strbvs	r7, [lr, #-1396]!	; 0x574
     e24:	6d72613d 	ldfvse	f6, [r2, #-244]!	; 0xffffff0c
     e28:	36373131 			; <UNDEFINED> instruction: 0x36373131
     e2c:	2d667a6a 	vstmdbcs	r6!, {s15-s120}
     e30:	672d2073 			; <UNDEFINED> instruction: 0x672d2073
     e34:	20626467 	rsbcs	r6, r2, r7, ror #8
     e38:	20674f2d 	rsbcs	r4, r7, sp, lsr #30
     e3c:	6474732d 	ldrbtvs	r7, [r4], #-813	; 0x32d
     e40:	756e673d 	strbvc	r6, [lr, #-1853]!	; 0x73d
     e44:	2d203939 	stccs	9, cr3, [r0, #-228]!	; 0xffffff1c
     e48:	65726666 	ldrbvs	r6, [r2, #-1638]!	; 0x666
     e4c:	61747365 	cmnvs	r4, r5, ror #6
     e50:	6e69646e 	cdpvs	4, 6, cr6, cr9, cr14, {3}
     e54:	735f0067 	cmpvc	pc, #103	; 0x67
     e58:	6f747274 	svcvs	0x00747274
     e5c:	616c5f6b 	cmnvs	ip, fp, ror #30
     e60:	5f007473 	svcpl	0x00007473
     e64:	79746e66 	ldmdbvc	r4!, {r1, r2, r5, r6, r9, sl, fp, sp, lr}^
     e68:	00736570 	rsbseq	r6, r3, r0, ror r5
     e6c:	6464615f 	strbtvs	r6, [r4], #-351	; 0x15f
     e70:	555f5f00 	ldrbpl	r5, [pc, #-3840]	; ffffff78 <__bss_end__+0xffff34f8>
     e74:	676e6f4c 	strbvs	r6, [lr, -ip, asr #30]!
     e78:	65675f00 	strbvs	r5, [r7, #-3840]!	; 0xf00
     e7c:	74616474 	strbtvc	r6, [r1], #-1140	; 0x474
     e80:	72655f65 	rsbvc	r5, r5, #404	; 0x194
     e84:	675f0072 			; <UNDEFINED> instruction: 0x675f0072
     e88:	61626f6c 	cmnvs	r2, ip, ror #30
     e8c:	6d695f6c 	stclvs	15, cr5, [r9, #-432]!	; 0xfffffe50
     e90:	65727570 	ldrbvs	r7, [r2, #-1392]!	; 0x570
     e94:	7274705f 	rsbsvc	r7, r4, #95	; 0x5f
     e98:	75635f00 	strbvc	r5, [r3, #-3840]!	; 0xf00
     e9c:	6e657272 	mcrvs	2, 3, r7, cr5, cr2, {3}
     ea0:	61635f74 	smcvs	13812	; 0x35f4
     ea4:	6f676574 	svcvs	0x00676574
     ea8:	5f007972 	svcpl	0x00007972
     eac:	73756e75 	cmnvc	r5, #1872	; 0x750
     eb0:	725f6465 	subsvc	r6, pc, #1694498816	; 0x65000000
     eb4:	00646e61 	rsbeq	r6, r4, r1, ror #28
     eb8:	7364775f 	cmnvc	r4, #24903680	; 0x17c0000
     ebc:	745f5f00 	ldrbvc	r5, [pc], #-3840	; ec4 <__code_start__-0x713c>
     ec0:	64775f6d 	ldrbtvs	r5, [r7], #-3949	; 0xf6d
     ec4:	5f007961 	svcpl	0x00007961
     ec8:	65756c67 	ldrbvs	r6, [r5, #-3175]!	; 0xc67
     ecc:	49504700 	ldmdbmi	r0, {r8, r9, sl, lr}^
     ed0:	55465f4f 	strbpl	r5, [r6, #-3919]	; 0xf4f
     ed4:	4f5f434e 	svcmi	0x005f434e
     ed8:	55505455 	ldrbpl	r5, [r0, #-1109]	; 0x455
     edc:	6e5f0054 	mrcvs	0, 2, r0, cr15, cr4, {2}
     ee0:	6c6c616d 	stfvse	f6, [ip], #-436	; 0xfffffe4c
     ee4:	5f00636f 	svcpl	0x0000636f
     ee8:	6134366c 	teqvs	r4, ip, ror #12
     eec:	6675625f 			; <UNDEFINED> instruction: 0x6675625f
     ef0:	74656700 	strbtvc	r6, [r5], #-1792	; 0x700
     ef4:	75003233 	strvc	r3, [r0, #-563]	; 0x233
     ef8:	5f747261 	svcpl	0x00747261
     efc:	5f6e6163 	svcpl	0x006e6163
     f00:	63746567 	cmnvs	r4, #432013312	; 0x19c00000
     f04:	69735f00 	ldmdbvs	r3!, {r8, r9, sl, fp, ip, lr}^
     f08:	75665f67 	strbvc	r5, [r6, #-3943]!	; 0xf67
     f0c:	6f00636e 	svcvs	0x0000636e
     f10:	6e695f72 	mcrvs	15, 3, r5, cr9, cr2, {3}
     f14:	75003233 	strvc	r3, [r0, #-563]	; 0x233
     f18:	5f747261 	svcpl	0x00747261
     f1c:	5f736168 	svcpl	0x00736168
     f20:	61746164 	cmnvs	r4, r4, ror #2
     f24:	49504700 	ldmdbmi	r0, {r8, r9, sl, lr}^
     f28:	55465f4f 	strbpl	r5, [r6, #-3919]	; 0xf4f
     f2c:	415f434e 	cmpmi	pc, lr, asr #6
     f30:	0030544c 	eorseq	r5, r0, ip, asr #8
     f34:	75626e5f 	strbvc	r6, [r2, #-3679]!	; 0xe5f
     f38:	755f0066 	ldrbvc	r0, [pc, #-102]	; eda <__code_start__-0x7126>
     f3c:	6573756e 	ldrbvs	r7, [r3, #-1390]!	; 0x56e
     f40:	50470064 	subpl	r0, r7, r4, rrx
     f44:	465f4f49 	ldrbmi	r4, [pc], -r9, asr #30
     f48:	5f434e55 	svcpl	0x00434e55
     f4c:	33544c41 	cmpcc	r4, #16640	; 0x4100
     f50:	49504700 	ldmdbmi	r0, {r8, r9, sl, lr}^
     f54:	55465f4f 	strbpl	r5, [r6, #-3919]	; 0xf4f
     f58:	415f434e 	cmpmi	pc, lr, asr #6
     f5c:	0034544c 	eorseq	r5, r4, ip, asr #8
     f60:	4f495047 	svcmi	0x00495047
     f64:	4e55465f 	mrcmi	6, 2, r4, cr5, cr15, {2}
     f68:	4c415f43 	mcrrmi	15, 4, r5, r1, cr3
     f6c:	5f003554 	svcpl	0x00003554
     f70:	5f6d745f 	svcpl	0x006d745f
     f74:	73647369 	cmnvc	r4, #-1543503871	; 0xa4000001
     f78:	6c5f0074 	mrrcvs	0, 7, r0, pc, cr4	; <UNPREDICTABLE>
     f7c:	6c61636f 	stclvs	3, cr6, [r1], #-444	; 0xfffffe44
     f80:	656d6974 	strbvs	r6, [sp, #-2420]!	; 0x974
     f84:	6675625f 			; <UNDEFINED> instruction: 0x6675625f
     f88:	6c635f00 	stclvs	15, cr5, [r3], #-0
     f8c:	0065736f 	rsbeq	r7, r5, pc, ror #6
     f90:	3834725f 	ldmdacc	r4!, {r0, r1, r2, r3, r4, r6, r9, ip, sp, lr}
     f94:	626d5f00 	rsbvs	r5, sp, #0, 30
     f98:	63776f74 	cmnvs	r7, #116, 30	; 0x1d0
     f9c:	6174735f 	cmnvs	r4, pc, asr r3
     fa0:	5f006574 	svcpl	0x00006574
     fa4:	00733570 	rsbseq	r3, r3, r0, ror r5
     fa8:	6d745f5f 	ldclvs	15, cr5, [r4, #-380]!	; 0xfffffe84
     fac:	61646d5f 	cmnvs	r4, pc, asr sp
     fb0:	70670079 	rsbvc	r0, r7, r9, ror r0
     fb4:	735f6f69 	cmpvc	pc, #420	; 0x1a4
     fb8:	6f5f7465 	svcvs	0x005f7465
     fbc:	62006666 	andvs	r6, r0, #106954752	; 0x6600000
     fc0:	006b6e61 	rsbeq	r6, fp, r1, ror #28
     fc4:	6f697067 	svcvs	0x00697067
     fc8:	6700632e 	strvs	r6, [r0, -lr, lsr #6]
     fcc:	5f6f6970 	svcpl	0x006f6970
     fd0:	64616572 	strbtvs	r6, [r1], #-1394	; 0x572
     fd4:	69706700 	ldmdbvs	r0!, {r8, r9, sl, sp, lr}^
     fd8:	65735f6f 	ldrbvs	r5, [r3, #-3951]!	; 0xf6f
     fdc:	756f5f74 	strbvc	r5, [pc, #-3956]!	; 70 <__code_start__-0x7f90>
     fe0:	74757074 	ldrbtvc	r7, [r5], #-116	; 0x74
     fe4:	69706700 	ldmdbvs	r0!, {r8, r9, sl, sp, lr}^
     fe8:	72775f6f 	rsbsvc	r5, r7, #444	; 0x1bc
     fec:	00657469 	rsbeq	r7, r5, r9, ror #8
     ff0:	6f697067 	svcvs	0x00697067
     ff4:	7465735f 	strbtvc	r7, [r5], #-863	; 0x35f
     ff8:	70670030 	rsbvc	r0, r7, r0, lsr r0
     ffc:	6c5f6f69 	mrrcvs	15, 6, r6, pc, cr9	; <UNPREDICTABLE>
    1000:	00307665 	eorseq	r7, r0, r5, ror #12
    1004:	6f697067 	svcvs	0x00697067
    1008:	7465735f 	strbtvc	r7, [r5], #-863	; 0x35f
    100c:	706e695f 	rsbvc	r6, lr, pc, asr r9
    1010:	67007475 	smlsdxvs	r0, r5, r4, r7
    1014:	5f6f6970 	svcpl	0x006f6970
    1018:	5f746573 	svcpl	0x00746573
    101c:	67006e6f 	strvs	r6, [r0, -pc, ror #28]
    1020:	5f6f6970 	svcpl	0x006f6970
    1024:	636e7566 	cmnvs	lr, #427819008	; 0x19800000
    1028:	6700745f 	smlsdvs	r0, pc, r4, r7	; <UNPREDICTABLE>
    102c:	5f6f6970 	svcpl	0x006f6970
    1030:	30726c63 	rsbscc	r6, r2, r3, ror #24
	...

Disassembly of section .debug_frame:

00000000 <.debug_frame>:
   0:	0000000c 	andeq	r0, r0, ip
   4:	ffffffff 			; <UNDEFINED> instruction: 0xffffffff
   8:	7c020001 	stcvc	0, cr0, [r2], {1}
   c:	000d0c0e 	andeq	r0, sp, lr, lsl #24
  10:	0000000c 	andeq	r0, r0, ip
  14:	00000000 	andeq	r0, r0, r0
  18:	00008020 	andeq	r8, r0, r0, lsr #32
  1c:	00000068 	andeq	r0, r0, r8, rrx
  20:	00000014 	andeq	r0, r0, r4, lsl r0
  24:	00000000 	andeq	r0, r0, r0
  28:	00008088 	andeq	r8, r0, r8, lsl #1
  2c:	000000c4 	andeq	r0, r0, r4, asr #1
  30:	8e040e42 	cdphi	14, 0, cr0, cr4, cr2, {2}
  34:	100e4201 	andne	r4, lr, r1, lsl #4
  38:	00000018 	andeq	r0, r0, r8, lsl r0
  3c:	00000000 	andeq	r0, r0, r0
  40:	0000814c 	andeq	r8, r0, ip, asr #2
  44:	0000020c 	andeq	r0, r0, ip, lsl #4
  48:	84080e42 	strhi	r0, [r8], #-3650	; 0xe42
  4c:	42018e02 	andmi	r8, r1, #2, 28
  50:	0000100e 	andeq	r1, r0, lr
  54:	00000014 	andeq	r0, r0, r4, lsl r0
  58:	00000000 	andeq	r0, r0, r0
  5c:	00008358 	andeq	r8, r0, r8, asr r3
  60:	00000088 	andeq	r0, r0, r8, lsl #1
  64:	8e040e42 	cdphi	14, 0, cr0, cr4, cr2, {2}
  68:	100e4201 	andne	r4, lr, r1, lsl #4
  6c:	0000000c 	andeq	r0, r0, ip
  70:	00000000 	andeq	r0, r0, r0
  74:	000083e0 	andeq	r8, r0, r0, ror #7
  78:	00000070 	andeq	r0, r0, r0, ror r0
  7c:	00000014 	andeq	r0, r0, r4, lsl r0
  80:	00000000 	andeq	r0, r0, r0
  84:	00008450 	andeq	r8, r0, r0, asr r4
  88:	000000e8 	andeq	r0, r0, r8, ror #1
  8c:	8e040e42 	cdphi	14, 0, cr0, cr4, cr2, {2}
  90:	480e4201 	stmdami	lr, {r0, r9, lr}
  94:	0000000c 	andeq	r0, r0, ip
  98:	ffffffff 			; <UNDEFINED> instruction: 0xffffffff
  9c:	7c020001 	stcvc	0, cr0, [r2], {1}
  a0:	000d0c0e 	andeq	r0, sp, lr, lsl #24
  a4:	00000014 	andeq	r0, r0, r4, lsl r0
  a8:	00000094 	muleq	r0, r4, r0
  ac:	00008538 	andeq	r8, r0, r8, lsr r5
  b0:	000000b0 	strheq	r0, [r0], -r0	; <UNPREDICTABLE>
  b4:	8e040e42 	cdphi	14, 0, cr0, cr4, cr2, {2}
  b8:	100e4201 	andne	r4, lr, r1, lsl #4
  bc:	00000014 	andeq	r0, r0, r4, lsl r0
  c0:	00000094 	muleq	r0, r4, r0
  c4:	000085e8 	andeq	r8, r0, r8, ror #11
  c8:	000000dc 	ldrdeq	r0, [r0], -ip
  cc:	8e040e42 	cdphi	14, 0, cr0, cr4, cr2, {2}
  d0:	100e4201 	andne	r4, lr, r1, lsl #4
  d4:	00000014 	andeq	r0, r0, r4, lsl r0
  d8:	00000094 	muleq	r0, r4, r0
  dc:	000086c4 	andeq	r8, r0, r4, asr #13
  e0:	0000003c 	andeq	r0, r0, ip, lsr r0
  e4:	83080e42 	movwhi	r0, #36418	; 0x8e42
  e8:	00018e02 	andeq	r8, r1, r2, lsl #28
  ec:	0000000c 	andeq	r0, r0, ip
  f0:	00000094 	muleq	r0, r4, r0
  f4:	00008700 	andeq	r8, r0, r0, lsl #14
  f8:	00000034 	andeq	r0, r0, r4, lsr r0
  fc:	00000014 	andeq	r0, r0, r4, lsl r0
 100:	00000094 	muleq	r0, r4, r0
 104:	00008734 	andeq	r8, r0, r4, lsr r7
 108:	00000098 	muleq	r0, r8, r0
 10c:	8e040e42 	cdphi	14, 0, cr0, cr4, cr2, {2}
 110:	100e4201 	andne	r4, lr, r1, lsl #4
 114:	0000000c 	andeq	r0, r0, ip
 118:	00000094 	muleq	r0, r4, r0
 11c:	000087cc 	andeq	r8, r0, ip, asr #15
 120:	00000004 	andeq	r0, r0, r4
 124:	00000014 	andeq	r0, r0, r4, lsl r0
 128:	00000094 	muleq	r0, r4, r0
 12c:	000087d0 	ldrdeq	r8, [r0], -r0
 130:	0000002c 	andeq	r0, r0, ip, lsr #32
 134:	83080e42 	movwhi	r0, #36418	; 0x8e42
 138:	00018e02 	andeq	r8, r1, r2, lsl #28
 13c:	0000000c 	andeq	r0, r0, ip
 140:	00000094 	muleq	r0, r4, r0
 144:	000087fc 	strdeq	r8, [r0], -ip
 148:	00000034 	andeq	r0, r0, r4, lsr r0
 14c:	0000000c 	andeq	r0, r0, ip
 150:	00000094 	muleq	r0, r4, r0
 154:	00008830 	andeq	r8, r0, r0, lsr r8
 158:	00000010 	andeq	r0, r0, r0, lsl r0
 15c:	00000014 	andeq	r0, r0, r4, lsl r0
 160:	00000094 	muleq	r0, r4, r0
 164:	00008840 	andeq	r8, r0, r0, asr #16
 168:	00000060 	andeq	r0, r0, r0, rrx
 16c:	83080e42 	movwhi	r0, #36418	; 0x8e42
 170:	00018e02 	andeq	r8, r1, r2, lsl #28
 174:	0000000c 	andeq	r0, r0, ip
 178:	ffffffff 			; <UNDEFINED> instruction: 0xffffffff
 17c:	7c020001 	stcvc	0, cr0, [r2], {1}
 180:	000d0c0e 	andeq	r0, sp, lr, lsl #24
 184:	00000018 	andeq	r0, r0, r8, lsl r0
 188:	00000174 	andeq	r0, r0, r4, ror r1
 18c:	000089c8 	andeq	r8, r0, r8, asr #19
 190:	00000198 	muleq	r0, r8, r1
 194:	840c0e42 	strhi	r0, [ip], #-3650	; 0xe42
 198:	8e028503 	cfsh32hi	mvfx8, mvfx2, #3
 19c:	180e4201 	stmdane	lr, {r0, r9, lr}
 1a0:	00000024 	andeq	r0, r0, r4, lsr #32
 1a4:	00000174 	andeq	r0, r0, r4, ror r1
 1a8:	00008b60 	andeq	r8, r0, r0, ror #22
 1ac:	000004e0 	andeq	r0, r0, r0, ror #9
 1b0:	84240e42 	strthi	r0, [r4], #-3650	; 0xe42
 1b4:	86088509 	strhi	r8, [r8], -r9, lsl #10
 1b8:	88068707 	stmdahi	r6, {r0, r1, r2, r8, r9, sl, pc}
 1bc:	8a048905 	bhi	1225d8 <__bss_end__+0x115b58>
 1c0:	8e028b03 	vmlahi.f64	d8, d2, d3
 1c4:	300e4201 	andcc	r4, lr, r1, lsl #4
 1c8:	00000018 	andeq	r0, r0, r8, lsl r0
 1cc:	00000174 	andeq	r0, r0, r4, ror r1
 1d0:	00009040 	andeq	r9, r0, r0, asr #32
 1d4:	00000084 	andeq	r0, r0, r4, lsl #1
 1d8:	83100e42 	tsthi	r0, #1056	; 0x420
 1dc:	85038404 	strhi	r8, [r3, #-1028]	; 0x404
 1e0:	00018e02 	andeq	r8, r1, r2, lsl #28
 1e4:	0000000c 	andeq	r0, r0, ip
 1e8:	00000174 	andeq	r0, r0, r4, ror r1
 1ec:	000090c4 	andeq	r9, r0, r4, asr #1
 1f0:	00000028 	andeq	r0, r0, r8, lsr #32
 1f4:	00000014 	andeq	r0, r0, r4, lsl r0
 1f8:	00000174 	andeq	r0, r0, r4, ror r1
 1fc:	000090ec 	andeq	r9, r0, ip, ror #1
 200:	0000004c 	andeq	r0, r0, ip, asr #32
 204:	84080e42 	strhi	r0, [r8], #-3650	; 0xe42
 208:	00018e02 	andeq	r8, r1, r2, lsl #28
 20c:	0000000c 	andeq	r0, r0, ip
 210:	ffffffff 			; <UNDEFINED> instruction: 0xffffffff
 214:	7c020001 	stcvc	0, cr0, [r2], {1}
 218:	000d0c0e 	andeq	r0, sp, lr, lsl #24
 21c:	0000000c 	andeq	r0, r0, ip
 220:	0000020c 	andeq	r0, r0, ip, lsl #4
 224:	00009138 	andeq	r9, r0, r8, lsr r1
 228:	00000020 	andeq	r0, r0, r0, lsr #32
 22c:	0000000c 	andeq	r0, r0, ip
 230:	ffffffff 			; <UNDEFINED> instruction: 0xffffffff
 234:	7c020001 	stcvc	0, cr0, [r2], {1}
 238:	000d0c0e 	andeq	r0, sp, lr, lsl #24
 23c:	00000024 	andeq	r0, r0, r4, lsr #32
 240:	0000022c 	andeq	r0, r0, ip, lsr #4
 244:	00009158 	andeq	r9, r0, r8, asr r1
 248:	00000058 	andeq	r0, r0, r8, asr r0
 24c:	80100e42 	andshi	r0, r0, r2, asr #28
 250:	82038104 	andhi	r8, r3, #4, 2
 254:	42018302 	andmi	r8, r1, #134217728	; 0x8000000
 258:	07841c0e 	streq	r1, [r4, lr, lsl #24]
 25c:	058e0685 	streq	r0, [lr, #1669]	; 0x685
 260:	00280e42 	eoreq	r0, r8, r2, asr #28
 264:	0000000c 	andeq	r0, r0, ip
 268:	ffffffff 			; <UNDEFINED> instruction: 0xffffffff
 26c:	7c020001 	stcvc	0, cr0, [r2], {1}
 270:	000d0c0e 	andeq	r0, sp, lr, lsl #24
 274:	00000014 	andeq	r0, r0, r4, lsl r0
 278:	00000264 	andeq	r0, r0, r4, ror #4
 27c:	000091b0 			; <UNDEFINED> instruction: 0x000091b0
 280:	00000014 	andeq	r0, r0, r4, lsl r0
 284:	84080e42 	strhi	r0, [r8], #-3650	; 0xe42
 288:	00018e02 	andeq	r8, r1, r2, lsl #28
 28c:	0000000c 	andeq	r0, r0, ip
 290:	00000264 	andeq	r0, r0, r4, ror #4
 294:	000091c4 	andeq	r9, r0, r4, asr #3
 298:	00000018 	andeq	r0, r0, r8, lsl r0
 29c:	0000000c 	andeq	r0, r0, ip
 2a0:	00000264 	andeq	r0, r0, r4, ror #4
 2a4:	000091dc 	ldrdeq	r9, [r0], -ip
 2a8:	00000010 	andeq	r0, r0, r0, lsl r0
 2ac:	0000000c 	andeq	r0, r0, ip
 2b0:	ffffffff 			; <UNDEFINED> instruction: 0xffffffff
 2b4:	7c020001 	stcvc	0, cr0, [r2], {1}
 2b8:	000d0c0e 	andeq	r0, sp, lr, lsl #24
 2bc:	00000018 	andeq	r0, r0, r8, lsl r0
 2c0:	000002ac 	andeq	r0, r0, ip, lsr #5
 2c4:	000091ec 	andeq	r9, r0, ip, ror #3
 2c8:	00000034 	andeq	r0, r0, r4, lsr r0
 2cc:	83100e42 	tsthi	r0, #1056	; 0x420
 2d0:	85038404 	strhi	r8, [r3, #-1028]	; 0x404
 2d4:	00018e02 	andeq	r8, r1, r2, lsl #28
 2d8:	0000000c 	andeq	r0, r0, ip
 2dc:	ffffffff 			; <UNDEFINED> instruction: 0xffffffff
 2e0:	7c020001 	stcvc	0, cr0, [r2], {1}
 2e4:	000d0c0e 	andeq	r0, sp, lr, lsl #24
 2e8:	0000000c 	andeq	r0, r0, ip
 2ec:	000002d8 	ldrdeq	r0, [r0], -r8
 2f0:	00009220 	andeq	r9, r0, r0, lsr #4
 2f4:	00000014 	andeq	r0, r0, r4, lsl r0
 2f8:	0000000c 	andeq	r0, r0, ip
 2fc:	000002d8 	ldrdeq	r0, [r0], -r8
 300:	00009234 	andeq	r9, r0, r4, lsr r2
 304:	0000002c 	andeq	r0, r0, ip, lsr #32
 308:	0000000c 	andeq	r0, r0, ip
 30c:	000002d8 	ldrdeq	r0, [r0], -r8
 310:	00009260 	andeq	r9, r0, r0, ror #4
 314:	00000040 	andeq	r0, r0, r0, asr #32
 318:	00000020 	andeq	r0, r0, r0, lsr #32
 31c:	000002d8 	ldrdeq	r0, [r0], -r8
 320:	000092a0 	andeq	r9, r0, r0, lsr #5
 324:	000001bc 			; <UNDEFINED> instruction: 0x000001bc
 328:	84180e42 	ldrhi	r0, [r8], #-3650	; 0xe42
 32c:	86058506 	strhi	r8, [r5], -r6, lsl #10
 330:	88038704 	stmdahi	r3, {r2, r8, r9, sl, pc}
 334:	42018e02 	andmi	r8, r1, #2, 28
 338:	0000600e 	andeq	r6, r0, lr
 33c:	00000014 	andeq	r0, r0, r4, lsl r0
 340:	000002d8 	ldrdeq	r0, [r0], -r8
 344:	0000945c 	andeq	r9, r0, ip, asr r4
 348:	00000068 	andeq	r0, r0, r8, rrx
 34c:	8e040e42 	cdphi	14, 0, cr0, cr4, cr2, {2}
 350:	100e4201 	andne	r4, lr, r1, lsl #4
 354:	00000028 	andeq	r0, r0, r8, lsr #32
 358:	000002d8 	ldrdeq	r0, [r0], -r8
 35c:	000094c4 	andeq	r9, r0, r4, asr #9
 360:	000002d4 	ldrdeq	r0, [r0], -r4
 364:	84240e42 	strthi	r0, [r4], #-3650	; 0xe42
 368:	86088509 	strhi	r8, [r8], -r9, lsl #10
 36c:	88068707 	stmdahi	r6, {r0, r1, r2, r8, r9, sl, pc}
 370:	8a048905 	bhi	12278c <__bss_end__+0x115d0c>
 374:	8e028b03 	vmlahi.f64	d8, d2, d3
 378:	b80e4201 	stmdalt	lr, {r0, r9, lr}
 37c:	00000001 	andeq	r0, r0, r1
 380:	0000000c 	andeq	r0, r0, ip
 384:	ffffffff 			; <UNDEFINED> instruction: 0xffffffff
 388:	7c020001 	stcvc	0, cr0, [r2], {1}
 38c:	000d0c0e 	andeq	r0, sp, lr, lsl #24
 390:	0000000c 	andeq	r0, r0, ip
 394:	00000380 	andeq	r0, r0, r0, lsl #7
 398:	00009798 	muleq	r0, r8, r7
 39c:	00000010 	andeq	r0, r0, r0, lsl r0
 3a0:	0000000c 	andeq	r0, r0, ip
 3a4:	00000380 	andeq	r0, r0, r0, lsl #7
 3a8:	000097a8 	andeq	r9, r0, r8, lsr #15
 3ac:	00000010 	andeq	r0, r0, r0, lsl r0
 3b0:	0000000c 	andeq	r0, r0, ip
 3b4:	ffffffff 			; <UNDEFINED> instruction: 0xffffffff
 3b8:	7c020001 	stcvc	0, cr0, [r2], {1}
 3bc:	000d0c0e 	andeq	r0, sp, lr, lsl #24
 3c0:	00000014 	andeq	r0, r0, r4, lsl r0
 3c4:	000003b0 			; <UNDEFINED> instruction: 0x000003b0
 3c8:	000097b8 			; <UNDEFINED> instruction: 0x000097b8
 3cc:	0000002c 	andeq	r0, r0, ip, lsr #32
 3d0:	83080e42 	movwhi	r0, #36418	; 0x8e42
 3d4:	00018e02 	andeq	r8, r1, r2, lsl #28
 3d8:	0000000c 	andeq	r0, r0, ip
 3dc:	ffffffff 			; <UNDEFINED> instruction: 0xffffffff
 3e0:	7c020001 	stcvc	0, cr0, [r2], {1}
 3e4:	000d0c0e 	andeq	r0, sp, lr, lsl #24
 3e8:	00000014 	andeq	r0, r0, r4, lsl r0
 3ec:	000003d8 	ldrdeq	r0, [r0], -r8
 3f0:	000097e4 	andeq	r9, r0, r4, ror #15
 3f4:	00000038 	andeq	r0, r0, r8, lsr r0
 3f8:	83080e42 	movwhi	r0, #36418	; 0x8e42
 3fc:	00018e02 	andeq	r8, r1, r2, lsl #28
 400:	0000000c 	andeq	r0, r0, ip
 404:	ffffffff 			; <UNDEFINED> instruction: 0xffffffff
 408:	7c020001 	stcvc	0, cr0, [r2], {1}
 40c:	000d0c0e 	andeq	r0, sp, lr, lsl #24
 410:	00000014 	andeq	r0, r0, r4, lsl r0
 414:	00000400 	andeq	r0, r0, r0, lsl #8
 418:	0000981c 	andeq	r9, r0, ip, lsl r8
 41c:	00000044 	andeq	r0, r0, r4, asr #32
 420:	8e040e42 	cdphi	14, 0, cr0, cr4, cr2, {2}
 424:	100e4201 	andne	r4, lr, r1, lsl #4
 428:	0000000c 	andeq	r0, r0, ip
 42c:	ffffffff 			; <UNDEFINED> instruction: 0xffffffff
 430:	7c020001 	stcvc	0, cr0, [r2], {1}
 434:	000d0c0e 	andeq	r0, sp, lr, lsl #24
 438:	00000014 	andeq	r0, r0, r4, lsl r0
 43c:	00000428 	andeq	r0, r0, r8, lsr #8
 440:	00009860 	andeq	r9, r0, r0, ror #16
 444:	00000044 	andeq	r0, r0, r4, asr #32
 448:	8e040e42 	cdphi	14, 0, cr0, cr4, cr2, {2}
 44c:	100e4201 	andne	r4, lr, r1, lsl #4
 450:	0000000c 	andeq	r0, r0, ip
 454:	ffffffff 			; <UNDEFINED> instruction: 0xffffffff
 458:	7c020001 	stcvc	0, cr0, [r2], {1}
 45c:	000d0c0e 	andeq	r0, sp, lr, lsl #24
 460:	00000014 	andeq	r0, r0, r4, lsl r0
 464:	00000450 	andeq	r0, r0, r0, asr r4
 468:	000098a4 	andeq	r9, r0, r4, lsr #17
 46c:	00000044 	andeq	r0, r0, r4, asr #32
 470:	8e040e42 	cdphi	14, 0, cr0, cr4, cr2, {2}
 474:	100e4201 	andne	r4, lr, r1, lsl #4
 478:	0000000c 	andeq	r0, r0, ip
 47c:	ffffffff 			; <UNDEFINED> instruction: 0xffffffff
 480:	7c020001 	stcvc	0, cr0, [r2], {1}
 484:	000d0c0e 	andeq	r0, sp, lr, lsl #24
 488:	0000000c 	andeq	r0, r0, ip
 48c:	00000478 	andeq	r0, r0, r8, ror r4
 490:	000098e8 	andeq	r9, r0, r8, ror #17
 494:	00000004 	andeq	r0, r0, r4
 498:	0000000c 	andeq	r0, r0, ip
 49c:	00000478 	andeq	r0, r0, r8, ror r4
 4a0:	000098ec 	andeq	r9, r0, ip, ror #17
 4a4:	00000004 	andeq	r0, r0, r4
 4a8:	0000000c 	andeq	r0, r0, ip
 4ac:	ffffffff 			; <UNDEFINED> instruction: 0xffffffff
 4b0:	7c020001 	stcvc	0, cr0, [r2], {1}
 4b4:	000d0c0e 	andeq	r0, sp, lr, lsl #24
 4b8:	00000014 	andeq	r0, r0, r4, lsl r0
 4bc:	000004a8 	andeq	r0, r0, r8, lsr #9
 4c0:	000098f0 	strdeq	r9, [r0], -r0
 4c4:	0000006c 	andeq	r0, r0, ip, rrx
 4c8:	83080e42 	movwhi	r0, #36418	; 0x8e42
 4cc:	00018e02 	andeq	r8, r1, r2, lsl #28
 4d0:	0000000c 	andeq	r0, r0, ip
 4d4:	ffffffff 			; <UNDEFINED> instruction: 0xffffffff
 4d8:	7c020001 	stcvc	0, cr0, [r2], {1}
 4dc:	000d0c0e 	andeq	r0, sp, lr, lsl #24
 4e0:	0000000c 	andeq	r0, r0, ip
 4e4:	000004d0 	ldrdeq	r0, [r0], -r0	; <UNPREDICTABLE>
 4e8:	0000995c 	andeq	r9, r0, ip, asr r9
 4ec:	00000018 	andeq	r0, r0, r8, lsl r0
 4f0:	0000000c 	andeq	r0, r0, ip
 4f4:	000004d0 	ldrdeq	r0, [r0], -r0	; <UNPREDICTABLE>
 4f8:	00009974 	andeq	r9, r0, r4, ror r9
 4fc:	00000014 	andeq	r0, r0, r4, lsl r0
 500:	00000014 	andeq	r0, r0, r4, lsl r0
 504:	000004d0 	ldrdeq	r0, [r0], -r0	; <UNPREDICTABLE>
 508:	00009988 	andeq	r9, r0, r8, lsl #19
 50c:	00000048 	andeq	r0, r0, r8, asr #32
 510:	83080e42 	movwhi	r0, #36418	; 0x8e42
 514:	00018e02 	andeq	r8, r1, r2, lsl #28
 518:	0000000c 	andeq	r0, r0, ip
 51c:	ffffffff 			; <UNDEFINED> instruction: 0xffffffff
 520:	7c020001 	stcvc	0, cr0, [r2], {1}
 524:	000d0c0e 	andeq	r0, sp, lr, lsl #24
 528:	0000000c 	andeq	r0, r0, ip
 52c:	00000518 	andeq	r0, r0, r8, lsl r5
 530:	000099d0 	ldrdeq	r9, [r0], -r0
 534:	0000001c 	andeq	r0, r0, ip, lsl r0
 538:	00000014 	andeq	r0, r0, r4, lsl r0
 53c:	00000518 	andeq	r0, r0, r8, lsl r5
 540:	000099ec 	andeq	r9, r0, ip, ror #19
 544:	00000014 	andeq	r0, r0, r4, lsl r0
 548:	83080e42 	movwhi	r0, #36418	; 0x8e42
 54c:	00018e02 	andeq	r8, r1, r2, lsl #28
 550:	00000014 	andeq	r0, r0, r4, lsl r0
 554:	00000518 	andeq	r0, r0, r8, lsl r5
 558:	00009a00 	andeq	r9, r0, r0, lsl #20
 55c:	0000001c 	andeq	r0, r0, ip, lsl r0
 560:	84080e42 	strhi	r0, [r8], #-3650	; 0xe42
 564:	00018e02 	andeq	r8, r1, r2, lsl #28
 568:	00000018 	andeq	r0, r0, r8, lsl r0
 56c:	00000518 	andeq	r0, r0, r8, lsl r5
 570:	00009a1c 	andeq	r9, r0, ip, lsl sl
 574:	00000024 	andeq	r0, r0, r4, lsr #32
 578:	83100e42 	tsthi	r0, #1056	; 0x420
 57c:	85038404 	strhi	r8, [r3, #-1028]	; 0x404
 580:	00018e02 	andeq	r8, r1, r2, lsl #28
 584:	00000014 	andeq	r0, r0, r4, lsl r0
 588:	00000518 	andeq	r0, r0, r8, lsl r5
 58c:	00009a40 	andeq	r9, r0, r0, asr #20
 590:	00000014 	andeq	r0, r0, r4, lsl r0
 594:	83080e42 	movwhi	r0, #36418	; 0x8e42
 598:	00018e02 	andeq	r8, r1, r2, lsl #28
 59c:	00000014 	andeq	r0, r0, r4, lsl r0
 5a0:	00000518 	andeq	r0, r0, r8, lsl r5
 5a4:	00009a54 	andeq	r9, r0, r4, asr sl
 5a8:	00000014 	andeq	r0, r0, r4, lsl r0
 5ac:	83080e42 	movwhi	r0, #36418	; 0x8e42
 5b0:	00018e02 	andeq	r8, r1, r2, lsl #28
 5b4:	0000000c 	andeq	r0, r0, ip
 5b8:	ffffffff 			; <UNDEFINED> instruction: 0xffffffff
 5bc:	7c020001 	stcvc	0, cr0, [r2], {1}
 5c0:	000d0c0e 	andeq	r0, sp, lr, lsl #24
 5c4:	00000018 	andeq	r0, r0, r8, lsl r0
 5c8:	000005b4 			; <UNDEFINED> instruction: 0x000005b4
 5cc:	00009acc 	andeq	r9, r0, ip, asr #21
 5d0:	00000020 	andeq	r0, r0, r0, lsr #32
 5d4:	84100e42 	ldrhi	r0, [r0], #-3650	; 0xe42
 5d8:	86038504 	strhi	r8, [r3], -r4, lsl #10
 5dc:	00018e02 	andeq	r8, r1, r2, lsl #28
 5e0:	00000014 	andeq	r0, r0, r4, lsl r0
 5e4:	000005b4 			; <UNDEFINED> instruction: 0x000005b4
 5e8:	00009aec 	andeq	r9, r0, ip, ror #21
 5ec:	000000b0 	strheq	r0, [r0], -r0	; <UNPREDICTABLE>
 5f0:	84080e42 	strhi	r0, [r8], #-3650	; 0xe42
 5f4:	00018e02 	andeq	r8, r1, r2, lsl #28
 5f8:	00000014 	andeq	r0, r0, r4, lsl r0
 5fc:	000005b4 			; <UNDEFINED> instruction: 0x000005b4
 600:	00009b9c 	muleq	r0, ip, fp
 604:	00000018 	andeq	r0, r0, r8, lsl r0
 608:	84080e42 	strhi	r0, [r8], #-3650	; 0xe42
 60c:	00018e02 	andeq	r8, r1, r2, lsl #28
 610:	00000014 	andeq	r0, r0, r4, lsl r0
 614:	000005b4 			; <UNDEFINED> instruction: 0x000005b4
 618:	00009bb4 			; <UNDEFINED> instruction: 0x00009bb4
 61c:	00000020 	andeq	r0, r0, r0, lsr #32
 620:	84080e42 	strhi	r0, [r8], #-3650	; 0xe42
 624:	00018e02 	andeq	r8, r1, r2, lsl #28
 628:	00000014 	andeq	r0, r0, r4, lsl r0
 62c:	000005b4 			; <UNDEFINED> instruction: 0x000005b4
 630:	00009bd4 	ldrdeq	r9, [r0], -r4
 634:	00000030 	andeq	r0, r0, r0, lsr r0
 638:	84080e42 	strhi	r0, [r8], #-3650	; 0xe42
 63c:	00018e02 	andeq	r8, r1, r2, lsl #28
 640:	00000014 	andeq	r0, r0, r4, lsl r0
 644:	000005b4 			; <UNDEFINED> instruction: 0x000005b4
 648:	00009c04 	andeq	r9, r0, r4, lsl #24
 64c:	00000030 	andeq	r0, r0, r0, lsr r0
 650:	84080e42 	strhi	r0, [r8], #-3650	; 0xe42
 654:	00018e02 	andeq	r8, r1, r2, lsl #28
 658:	00000014 	andeq	r0, r0, r4, lsl r0
 65c:	000005b4 			; <UNDEFINED> instruction: 0x000005b4
 660:	00009c34 	andeq	r9, r0, r4, lsr ip
 664:	00000010 	andeq	r0, r0, r0, lsl r0
 668:	84080e42 	strhi	r0, [r8], #-3650	; 0xe42
 66c:	00018e02 	andeq	r8, r1, r2, lsl #28
 670:	0000000c 	andeq	r0, r0, ip
 674:	ffffffff 			; <UNDEFINED> instruction: 0xffffffff
 678:	7c020001 	stcvc	0, cr0, [r2], {1}
 67c:	000d0c0e 	andeq	r0, sp, lr, lsl #24
 680:	00000018 	andeq	r0, r0, r8, lsl r0
 684:	00000670 	andeq	r0, r0, r0, ror r6
 688:	00009c44 	andeq	r9, r0, r4, asr #24
 68c:	00000068 	andeq	r0, r0, r8, rrx
 690:	84100e4a 	ldrhi	r0, [r0], #-3658	; 0xe4a
 694:	86038504 	strhi	r8, [r3], -r4, lsl #10
 698:	00018e02 	andeq	r8, r1, r2, lsl #28
 69c:	00000014 	andeq	r0, r0, r4, lsl r0
 6a0:	00000670 	andeq	r0, r0, r0, ror r6
 6a4:	00009cac 	andeq	r9, r0, ip, lsr #25
 6a8:	00000010 	andeq	r0, r0, r0, lsl r0
 6ac:	84080e42 	strhi	r0, [r8], #-3650	; 0xe42
 6b0:	00018e02 	andeq	r8, r1, r2, lsl #28
 6b4:	00000014 	andeq	r0, r0, r4, lsl r0
 6b8:	00000670 	andeq	r0, r0, r0, ror r6
 6bc:	00009cbc 			; <UNDEFINED> instruction: 0x00009cbc
 6c0:	00000024 	andeq	r0, r0, r4, lsr #32
 6c4:	84080e46 	strhi	r0, [r8], #-3654	; 0xe46
 6c8:	00018e02 	andeq	r8, r1, r2, lsl #28
 6cc:	00000014 	andeq	r0, r0, r4, lsl r0
 6d0:	00000670 	andeq	r0, r0, r0, ror r6
 6d4:	00009ce0 	andeq	r9, r0, r0, ror #25
 6d8:	00000024 	andeq	r0, r0, r4, lsr #32
 6dc:	84080e46 	strhi	r0, [r8], #-3654	; 0xe46
 6e0:	00018e02 	andeq	r8, r1, r2, lsl #28
 6e4:	00000014 	andeq	r0, r0, r4, lsl r0
 6e8:	00000670 	andeq	r0, r0, r0, ror r6
 6ec:	00009d04 	andeq	r9, r0, r4, lsl #26
 6f0:	00000010 	andeq	r0, r0, r0, lsl r0
 6f4:	84080e42 	strhi	r0, [r8], #-3650	; 0xe42
 6f8:	00018e02 	andeq	r8, r1, r2, lsl #28
 6fc:	00000014 	andeq	r0, r0, r4, lsl r0
 700:	00000670 	andeq	r0, r0, r0, ror r6
 704:	00009d14 	andeq	r9, r0, r4, lsl sp
 708:	0000001c 	andeq	r0, r0, ip, lsl r0
 70c:	84080e42 	strhi	r0, [r8], #-3650	; 0xe42
 710:	00018e02 	andeq	r8, r1, r2, lsl #28
 714:	00000018 	andeq	r0, r0, r8, lsl r0
 718:	00000670 	andeq	r0, r0, r0, ror r6
 71c:	00009d30 	andeq	r9, r0, r0, lsr sp
 720:	00000034 	andeq	r0, r0, r4, lsr r0
 724:	84080e46 	strhi	r0, [r8], #-3654	; 0xe46
 728:	4e018e02 	cdpmi	14, 0, cr8, cr1, cr2, {0}
 72c:	cec4000e 	cdpgt	0, 12, cr0, cr4, cr14, {0}
