
tests/16-part2-test1.elf:     file format elf32-littlearm


Disassembly of section .text:

00008000 <__code_start__>:
    8000:	e3a00013 	mov	r0, #19
    8004:	e129f000 	msr	CPSR_fc, r0
    8008:	e3a00000 	mov	r0, #0
    800c:	ee073f95 	mcr	15, 0, r3, cr7, cr5, {4}
    8010:	e3a0d302 	mov	sp, #134217728	; 0x8000000
    8014:	e3a0b000 	mov	fp, #0
    8018:	eb0003fd 	bl	9014 <_cstart>
    801c:	eb000465 	bl	91b8 <rpi_reboot>

00008020 <mode_str>:
    8020:	e92d4010 	push	{r4, lr}
    8024:	e24dd008 	sub	sp, sp, #8
    8028:	e1a04000 	mov	r4, r0
    802c:	e200301f 	and	r3, r0, #31
    8030:	e3530012 	cmp	r3, #18
    8034:	13530010 	cmpne	r3, #16
    8038:	0a000006 	beq	8058 <mode_str+0x38>
    803c:	e3530017 	cmp	r3, #23
    8040:	13530013 	cmpne	r3, #19
    8044:	0a000005 	beq	8060 <mode_str+0x40>
    8048:	e353001f 	cmp	r3, #31
    804c:	1a000005 	bne	8068 <mode_str+0x48>
    8050:	e3a02001 	mov	r2, #1
    8054:	ea000004 	b	806c <mode_str+0x4c>
    8058:	e3a02001 	mov	r2, #1
    805c:	ea000002 	b	806c <mode_str+0x4c>
    8060:	e3a02001 	mov	r2, #1
    8064:	ea000000 	b	806c <mode_str+0x4c>
    8068:	e3a02000 	mov	r2, #0
    806c:	e3520000 	cmp	r2, #0
    8070:	1a000008 	bne	8098 <mode_str+0x78>
    8074:	eb00025e 	bl	89f4 <rpi_reset_putc>
    8078:	e59f30c4 	ldr	r3, [pc, #196]	; 8144 <mode_str+0x124>
    807c:	e58d3000 	str	r3, [sp]
    8080:	e59f00c0 	ldr	r0, [pc, #192]	; 8148 <mode_str+0x128>
    8084:	e59f10c0 	ldr	r1, [pc, #192]	; 814c <mode_str+0x12c>
    8088:	e59f20c0 	ldr	r2, [pc, #192]	; 8150 <mode_str+0x130>
    808c:	e3a03011 	mov	r3, #17
    8090:	eb00023c 	bl	8988 <printk>
    8094:	eb0003d3 	bl	8fe8 <clean_reboot>
    8098:	e2433010 	sub	r3, r3, #16
    809c:	e353000f 	cmp	r3, #15
    80a0:	979ff103 	ldrls	pc, [pc, r3, lsl #2]
    80a4:	ea000019 	b	8110 <mode_str+0xf0>
    80a8:	00008130 	andeq	r8, r0, r0, lsr r1
    80ac:	00008138 	andeq	r8, r0, r8, lsr r1
    80b0:	000080e8 	andeq	r8, r0, r8, ror #1
    80b4:	000080f0 	strdeq	r8, [r0], -r0
    80b8:	00008110 	andeq	r8, r0, r0, lsl r1
    80bc:	00008110 	andeq	r8, r0, r0, lsl r1
    80c0:	00008110 	andeq	r8, r0, r0, lsl r1
    80c4:	000080f8 	strdeq	r8, [r0], -r8	; <UNPREDICTABLE>
    80c8:	00008110 	andeq	r8, r0, r0, lsl r1
    80cc:	00008110 	andeq	r8, r0, r0, lsl r1
    80d0:	00008110 	andeq	r8, r0, r0, lsl r1
    80d4:	00008100 	andeq	r8, r0, r0, lsl #2
    80d8:	00008110 	andeq	r8, r0, r0, lsl r1
    80dc:	00008110 	andeq	r8, r0, r0, lsl r1
    80e0:	00008110 	andeq	r8, r0, r0, lsl r1
    80e4:	00008108 	andeq	r8, r0, r8, lsl #2
    80e8:	e59f0064 	ldr	r0, [pc, #100]	; 8154 <mode_str+0x134>
    80ec:	ea000012 	b	813c <mode_str+0x11c>
    80f0:	e59f0060 	ldr	r0, [pc, #96]	; 8158 <mode_str+0x138>
    80f4:	ea000010 	b	813c <mode_str+0x11c>
    80f8:	e59f005c 	ldr	r0, [pc, #92]	; 815c <mode_str+0x13c>
    80fc:	ea00000e 	b	813c <mode_str+0x11c>
    8100:	e59f0058 	ldr	r0, [pc, #88]	; 8160 <mode_str+0x140>
    8104:	ea00000c 	b	813c <mode_str+0x11c>
    8108:	e59f0054 	ldr	r0, [pc, #84]	; 8164 <mode_str+0x144>
    810c:	ea00000a 	b	813c <mode_str+0x11c>
    8110:	eb000237 	bl	89f4 <rpi_reset_putc>
    8114:	e58d4000 	str	r4, [sp]
    8118:	e59f0048 	ldr	r0, [pc, #72]	; 8168 <mode_str+0x148>
    811c:	e59f1028 	ldr	r1, [pc, #40]	; 814c <mode_str+0x12c>
    8120:	e59f2044 	ldr	r2, [pc, #68]	; 816c <mode_str+0x14c>
    8124:	e3a03021 	mov	r3, #33	; 0x21
    8128:	eb000216 	bl	8988 <printk>
    812c:	eb0003ad 	bl	8fe8 <clean_reboot>
    8130:	e59f0038 	ldr	r0, [pc, #56]	; 8170 <mode_str+0x150>
    8134:	ea000000 	b	813c <mode_str+0x11c>
    8138:	e59f0034 	ldr	r0, [pc, #52]	; 8174 <mode_str+0x154>
    813c:	e28dd008 	add	sp, sp, #8
    8140:	e8bd8010 	pop	{r4, pc}
    8144:	00009618 	andeq	r9, r0, r8, lsl r6
    8148:	000095f4 	strdeq	r9, [r0], -r4
    814c:	00009608 	andeq	r9, r0, r8, lsl #12
    8150:	0000987c 	andeq	r9, r0, ip, ror r8
    8154:	000095b8 			; <UNDEFINED> instruction: 0x000095b8
    8158:	000095c4 	andeq	r9, r0, r4, asr #11
    815c:	000095d0 	ldrdeq	r9, [r0], -r0
    8160:	000095dc 	ldrdeq	r9, [r0], -ip
    8164:	000095e8 	andeq	r9, r0, r8, ror #11
    8168:	0000962c 	andeq	r9, r0, ip, lsr #12
    816c:	00009870 	andeq	r9, r0, r0, ror r8
    8170:	000095a0 	andeq	r9, r0, r0, lsr #11
    8174:	000095ac 	andeq	r9, r0, ip, lsr #11

00008178 <user_test>:
    8178:	e52de004 	push	{lr}		; (str lr, [sp, #-4]!)
    817c:	e24dd00c 	sub	sp, sp, #12
    8180:	e59f3068 	ldr	r3, [pc, #104]	; 81f0 <user_test+0x78>
    8184:	e5933000 	ldr	r3, [r3]
    8188:	e1530000 	cmp	r3, r0
    818c:	0a00000d 	beq	81c8 <user_test+0x50>
    8190:	eb000217 	bl	89f4 <rpi_reset_putc>
    8194:	e59f3058 	ldr	r3, [pc, #88]	; 81f4 <user_test+0x7c>
    8198:	e58d3000 	str	r3, [sp]
    819c:	e59f0054 	ldr	r0, [pc, #84]	; 81f8 <user_test+0x80>
    81a0:	e59f1054 	ldr	r1, [pc, #84]	; 81fc <user_test+0x84>
    81a4:	e59f2054 	ldr	r2, [pc, #84]	; 8200 <user_test+0x88>
    81a8:	e3a0300f 	mov	r3, #15
    81ac:	eb0001f5 	bl	8988 <printk>
    81b0:	eb00038c 	bl	8fe8 <clean_reboot>
    81b4:	e5921000 	ldr	r1, [r2]
    81b8:	e2811001 	add	r1, r1, #1
    81bc:	e5821000 	str	r1, [r2]
    81c0:	e2833001 	add	r3, r3, #1
    81c4:	ea000002 	b	81d4 <user_test+0x5c>
    81c8:	e3a03000 	mov	r3, #0
    81cc:	e59f0030 	ldr	r0, [pc, #48]	; 8204 <user_test+0x8c>
    81d0:	e59f2030 	ldr	r2, [pc, #48]	; 8208 <user_test+0x90>
    81d4:	e1530000 	cmp	r3, r0
    81d8:	dafffff5 	ble	81b4 <user_test+0x3c>
    81dc:	e3a02001 	mov	r2, #1
    81e0:	e59f3024 	ldr	r3, [pc, #36]	; 820c <user_test+0x94>
    81e4:	e5832000 	str	r2, [r3]
    81e8:	e28dd00c 	add	sp, sp, #12
    81ec:	e49df004 	pop	{pc}		; (ldr pc, [sp], #4)
    81f0:	00009c0c 	andeq	r9, r0, ip, lsl #24
    81f4:	00009668 	andeq	r9, r0, r8, ror #12
    81f8:	000095f4 	strdeq	r9, [r0], -r4
    81fc:	00009650 	andeq	r9, r0, r0, asr r6
    8200:	00009830 	andeq	r9, r0, r0, lsr r8
    8204:	0000270f 	andeq	r2, r0, pc, lsl #14
    8208:	00009c08 	andeq	r9, r0, r8, lsl #24
    820c:	00009c04 	andeq	r9, r0, r4, lsl #24

00008210 <single_step_handler>:
    8210:	e92d4010 	push	{r4, lr}
    8214:	e24dd008 	sub	sp, sp, #8
    8218:	e1a04001 	mov	r4, r1
    821c:	e59f311c 	ldr	r3, [pc, #284]	; 8340 <single_step_handler+0x130>
    8220:	e5933000 	ldr	r3, [r3]
    8224:	e3530000 	cmp	r3, #0
    8228:	0a000007 	beq	824c <single_step_handler+0x3c>
    822c:	e58d1000 	str	r1, [sp]
    8230:	e59f310c 	ldr	r3, [pc, #268]	; 8344 <single_step_handler+0x134>
    8234:	e58d3004 	str	r3, [sp, #4]
    8238:	e59f0108 	ldr	r0, [pc, #264]	; 8348 <single_step_handler+0x138>
    823c:	e59f1108 	ldr	r1, [pc, #264]	; 834c <single_step_handler+0x13c>
    8240:	e59f2108 	ldr	r2, [pc, #264]	; 8350 <single_step_handler+0x140>
    8244:	e3a03018 	mov	r3, #24
    8248:	eb0001ce 	bl	8988 <printk>
    824c:	ee153f30 	mrc	15, 0, r3, cr5, cr0, {1}
    8250:	e203300f 	and	r3, r3, #15
    8254:	e3530002 	cmp	r3, #2
    8258:	0a000006 	beq	8278 <single_step_handler+0x68>
    825c:	eb0001e4 	bl	89f4 <rpi_reset_putc>
    8260:	e59f00ec 	ldr	r0, [pc, #236]	; 8354 <single_step_handler+0x144>
    8264:	e59f10e0 	ldr	r1, [pc, #224]	; 834c <single_step_handler+0x13c>
    8268:	e59f20e0 	ldr	r2, [pc, #224]	; 8350 <single_step_handler+0x140>
    826c:	e3a0301b 	mov	r3, #27
    8270:	eb0001c4 	bl	8988 <printk>
    8274:	eb00035b 	bl	8fe8 <clean_reboot>
    8278:	e59f30d8 	ldr	r3, [pc, #216]	; 8358 <single_step_handler+0x148>
    827c:	e5933000 	ldr	r3, [r3]
    8280:	e3530000 	cmp	r3, #0
    8284:	0a000014 	beq	82dc <single_step_handler+0xcc>
    8288:	e59f30cc 	ldr	r3, [pc, #204]	; 835c <single_step_handler+0x14c>
    828c:	e5932000 	ldr	r2, [r3]
    8290:	e59f30c8 	ldr	r3, [pc, #200]	; 8360 <single_step_handler+0x150>
    8294:	e1520003 	cmp	r2, r3
    8298:	0a000008 	beq	82c0 <single_step_handler+0xb0>
    829c:	eb0001d4 	bl	89f4 <rpi_reset_putc>
    82a0:	e59f30bc 	ldr	r3, [pc, #188]	; 8364 <single_step_handler+0x154>
    82a4:	e58d3000 	str	r3, [sp]
    82a8:	e59f00b8 	ldr	r0, [pc, #184]	; 8368 <single_step_handler+0x158>
    82ac:	e59f1098 	ldr	r1, [pc, #152]	; 834c <single_step_handler+0x13c>
    82b0:	e59f2098 	ldr	r2, [pc, #152]	; 8350 <single_step_handler+0x140>
    82b4:	e3a0301e 	mov	r3, #30
    82b8:	eb0001b2 	bl	8988 <printk>
    82bc:	eb000349 	bl	8fe8 <clean_reboot>
    82c0:	e59f3094 	ldr	r3, [pc, #148]	; 835c <single_step_handler+0x14c>
    82c4:	e5931000 	ldr	r1, [r3]
    82c8:	e59f009c 	ldr	r0, [pc, #156]	; 836c <single_step_handler+0x15c>
    82cc:	eb0001ad 	bl	8988 <printk>
    82d0:	e1a00004 	mov	r0, r4
    82d4:	eb00014e 	bl	8814 <brkpt_mismatch_disable0>
    82d8:	ea000016 	b	8338 <single_step_handler+0x128>
    82dc:	e59f305c 	ldr	r3, [pc, #92]	; 8340 <single_step_handler+0x130>
    82e0:	e5933000 	ldr	r3, [r3]
    82e4:	e3530000 	cmp	r3, #0
    82e8:	0a000005 	beq	8304 <single_step_handler+0xf4>
    82ec:	e58d4000 	str	r4, [sp]
    82f0:	e59f0078 	ldr	r0, [pc, #120]	; 8370 <single_step_handler+0x160>
    82f4:	e59f1050 	ldr	r1, [pc, #80]	; 834c <single_step_handler+0x13c>
    82f8:	e59f2050 	ldr	r2, [pc, #80]	; 8350 <single_step_handler+0x140>
    82fc:	e3a03022 	mov	r3, #34	; 0x22
    8300:	eb0001a0 	bl	8988 <printk>
    8304:	e1a00004 	mov	r0, r4
    8308:	e59f1064 	ldr	r1, [pc, #100]	; 8374 <single_step_handler+0x164>
    830c:	eb000133 	bl	87e0 <brkpt_mismatch_set0>
    8310:	e59f3028 	ldr	r3, [pc, #40]	; 8340 <single_step_handler+0x130>
    8314:	e5933000 	ldr	r3, [r3]
    8318:	e3530000 	cmp	r3, #0
    831c:	0a000005 	beq	8338 <single_step_handler+0x128>
    8320:	e58d4000 	str	r4, [sp]
    8324:	e59f004c 	ldr	r0, [pc, #76]	; 8378 <single_step_handler+0x168>
    8328:	e59f101c 	ldr	r1, [pc, #28]	; 834c <single_step_handler+0x13c>
    832c:	e59f201c 	ldr	r2, [pc, #28]	; 8350 <single_step_handler+0x140>
    8330:	e3a03024 	mov	r3, #36	; 0x24
    8334:	eb000193 	bl	8988 <printk>
    8338:	e28dd008 	add	sp, sp, #8
    833c:	e8bd8010 	pop	{r4, pc}
    8340:	00009c18 	andeq	r9, r0, r8, lsl ip
    8344:	00008178 	andeq	r8, r0, r8, ror r1
    8348:	00009684 	andeq	r9, r0, r4, lsl #13
    834c:	00009650 	andeq	r9, r0, r0, asr r6
    8350:	00009844 	andeq	r9, r0, r4, asr #16
    8354:	000096b4 			; <UNDEFINED> instruction: 0x000096b4
    8358:	00009c04 	andeq	r9, r0, r4, lsl #24
    835c:	00009c08 	andeq	r9, r0, r8, lsl #24
    8360:	00002710 	andeq	r2, r0, r0, lsl r7
    8364:	000096ec 	andeq	r9, r0, ip, ror #13
    8368:	000095f4 	strdeq	r9, [r0], -r4
    836c:	000096f8 	strdeq	r9, [r0], -r8
    8370:	00009718 	andeq	r9, r0, r8, lsl r7
    8374:	00008210 	andeq	r8, r0, r0, lsl r2
    8378:	00009740 	andeq	r9, r0, r0, asr #14

0000837c <notmain>:
    837c:	e92d4030 	push	{r4, r5, lr}
    8380:	e24dd00c 	sub	sp, sp, #12
    8384:	eb0000c7 	bl	86a8 <cp14_enable>
    8388:	eb00030e 	bl	8fc8 <enable_cache>
    838c:	e59f5144 	ldr	r5, [pc, #324]	; 84d8 <notmain+0x15c>
    8390:	e3a03001 	mov	r3, #1
    8394:	e5853000 	str	r3, [r5]
    8398:	e10f4000 	mrs	r4, CPSR
    839c:	e1a00004 	mov	r0, r4
    83a0:	ebffff1e 	bl	8020 <mode_str>
    83a4:	e1a01000 	mov	r1, r0
    83a8:	e59f012c 	ldr	r0, [pc, #300]	; 84dc <notmain+0x160>
    83ac:	e1a02004 	mov	r2, r4
    83b0:	eb000174 	bl	8988 <printk>
    83b4:	e5953000 	ldr	r3, [r5]
    83b8:	e3530000 	cmp	r3, #0
    83bc:	0a000004 	beq	83d4 <notmain+0x58>
    83c0:	e59f0118 	ldr	r0, [pc, #280]	; 84e0 <notmain+0x164>
    83c4:	e59f1118 	ldr	r1, [pc, #280]	; 84e4 <notmain+0x168>
    83c8:	e59f2118 	ldr	r2, [pc, #280]	; 84e8 <notmain+0x16c>
    83cc:	e3a03034 	mov	r3, #52	; 0x34
    83d0:	eb00016c 	bl	8988 <printk>
    83d4:	e3a00000 	mov	r0, #0
    83d8:	e59f110c 	ldr	r1, [pc, #268]	; 84ec <notmain+0x170>
    83dc:	eb0000ff 	bl	87e0 <brkpt_mismatch_set0>
    83e0:	e59f30f0 	ldr	r3, [pc, #240]	; 84d8 <notmain+0x15c>
    83e4:	e5933000 	ldr	r3, [r3]
    83e8:	e3530000 	cmp	r3, #0
    83ec:	0a000004 	beq	8404 <notmain+0x88>
    83f0:	e59f00f8 	ldr	r0, [pc, #248]	; 84f0 <notmain+0x174>
    83f4:	e59f10e8 	ldr	r1, [pc, #232]	; 84e4 <notmain+0x168>
    83f8:	e59f20e8 	ldr	r2, [pc, #232]	; 84e8 <notmain+0x16c>
    83fc:	e3a03036 	mov	r3, #54	; 0x36
    8400:	eb000160 	bl	8988 <printk>
    8404:	e3a02000 	mov	r2, #0
    8408:	e59f30c8 	ldr	r3, [pc, #200]	; 84d8 <notmain+0x15c>
    840c:	e5832000 	str	r2, [r3]
    8410:	e59f20dc 	ldr	r2, [pc, #220]	; 84f4 <notmain+0x178>
    8414:	e5822000 	str	r2, [r2]
    8418:	e3c4001f 	bic	r0, r4, #31
    841c:	e3800010 	orr	r0, r0, #16
    8420:	e59f10d0 	ldr	r1, [pc, #208]	; 84f8 <notmain+0x17c>
    8424:	eb00014c 	bl	895c <user_trampoline_ret>
    8428:	e1a00004 	mov	r0, r4
    842c:	ebfffefb 	bl	8020 <mode_str>
    8430:	e1a01000 	mov	r1, r0
    8434:	e59f00c0 	ldr	r0, [pc, #192]	; 84fc <notmain+0x180>
    8438:	e1a02004 	mov	r2, r4
    843c:	eb000151 	bl	8988 <printk>
    8440:	e10f4000 	mrs	r4, CPSR
    8444:	e10f0000 	mrs	r0, CPSR
    8448:	ebfffef4 	bl	8020 <mode_str>
    844c:	e1a01000 	mov	r1, r0
    8450:	e59f0084 	ldr	r0, [pc, #132]	; 84dc <notmain+0x160>
    8454:	e1a02004 	mov	r2, r4
    8458:	eb00014a 	bl	8988 <printk>
    845c:	e10f3000 	mrs	r3, CPSR
    8460:	e1540003 	cmp	r4, r3
    8464:	0a000008 	beq	848c <notmain+0x110>
    8468:	eb000161 	bl	89f4 <rpi_reset_putc>
    846c:	e59f308c 	ldr	r3, [pc, #140]	; 8500 <notmain+0x184>
    8470:	e58d3000 	str	r3, [sp]
    8474:	e59f0088 	ldr	r0, [pc, #136]	; 8504 <notmain+0x188>
    8478:	e59f1064 	ldr	r1, [pc, #100]	; 84e4 <notmain+0x168>
    847c:	e59f2064 	ldr	r2, [pc, #100]	; 84e8 <notmain+0x16c>
    8480:	e3a03042 	mov	r3, #66	; 0x42
    8484:	eb00013f 	bl	8988 <printk>
    8488:	eb0002d6 	bl	8fe8 <clean_reboot>
    848c:	e59f3074 	ldr	r3, [pc, #116]	; 8508 <notmain+0x18c>
    8490:	e5932000 	ldr	r2, [r3]
    8494:	e59f3070 	ldr	r3, [pc, #112]	; 850c <notmain+0x190>
    8498:	e1520003 	cmp	r2, r3
    849c:	0a000008 	beq	84c4 <notmain+0x148>
    84a0:	eb000153 	bl	89f4 <rpi_reset_putc>
    84a4:	e59f3064 	ldr	r3, [pc, #100]	; 8510 <notmain+0x194>
    84a8:	e58d3000 	str	r3, [sp]
    84ac:	e59f0050 	ldr	r0, [pc, #80]	; 8504 <notmain+0x188>
    84b0:	e59f102c 	ldr	r1, [pc, #44]	; 84e4 <notmain+0x168>
    84b4:	e59f202c 	ldr	r2, [pc, #44]	; 84e8 <notmain+0x16c>
    84b8:	e3a03043 	mov	r3, #67	; 0x43
    84bc:	eb000131 	bl	8988 <printk>
    84c0:	eb0002c8 	bl	8fe8 <clean_reboot>
    84c4:	e59f0048 	ldr	r0, [pc, #72]	; 8514 <notmain+0x198>
    84c8:	eb00012e 	bl	8988 <printk>
    84cc:	e59f0044 	ldr	r0, [pc, #68]	; 8518 <notmain+0x19c>
    84d0:	eb00012c 	bl	8988 <printk>
    84d4:	eb0002c3 	bl	8fe8 <clean_reboot>
    84d8:	00009c18 	andeq	r9, r0, r8, lsl ip
    84dc:	0000976c 	andeq	r9, r0, ip, ror #14
    84e0:	00009784 	andeq	r9, r0, r4, lsl #15
    84e4:	00009650 	andeq	r9, r0, r0, asr r6
    84e8:	0000983c 	andeq	r9, r0, ip, lsr r8
    84ec:	00008210 	andeq	r8, r0, r0, lsl r2
    84f0:	000097ac 	andeq	r9, r0, ip, lsr #15
    84f4:	00009c0c 	andeq	r9, r0, ip, lsl #24
    84f8:	00008178 	andeq	r8, r0, r8, ror r1
    84fc:	000097cc 	andeq	r9, r0, ip, asr #15
    8500:	000097e8 	andeq	r9, r0, r8, ror #15
    8504:	000095f4 	strdeq	r9, [r0], -r4
    8508:	00009c08 	andeq	r9, r0, r8, lsl #24
    850c:	00002710 	andeq	r2, r0, r0, lsl r7
    8510:	000096ec 	andeq	r9, r0, ip, ror #13
    8514:	00009800 	andeq	r9, r0, r0, lsl #16
    8518:	0000980c 	andeq	r9, r0, ip, lsl #16

0000851c <watchpt_set0>:
    851c:	e52de004 	push	{lr}		; (str lr, [sp, #-4]!)
    8520:	e24dd00c 	sub	sp, sp, #12
    8524:	ee103ef0 	mrc	14, 0, r3, cr0, cr0, {7}
    8528:	e3c33001 	bic	r3, r3, #1
    852c:	ee003ef0 	mcr	14, 0, r3, cr0, cr0, {7}
    8530:	ee102ef0 	mrc	14, 0, r2, cr0, cr0, {7}
    8534:	e1530002 	cmp	r3, r2
    8538:	0a000008 	beq	8560 <watchpt_set0+0x44>
    853c:	eb00012c 	bl	89f4 <rpi_reset_putc>
    8540:	e59f306c 	ldr	r3, [pc, #108]	; 85b4 <watchpt_set0+0x98>
    8544:	e58d3000 	str	r3, [sp]
    8548:	e59f0068 	ldr	r0, [pc, #104]	; 85b8 <watchpt_set0+0x9c>
    854c:	e59f1068 	ldr	r1, [pc, #104]	; 85bc <watchpt_set0+0xa0>
    8550:	e59f2068 	ldr	r2, [pc, #104]	; 85c0 <watchpt_set0+0xa4>
    8554:	e3a03041 	mov	r3, #65	; 0x41
    8558:	eb00010a 	bl	8988 <printk>
    855c:	eb0002a1 	bl	8fe8 <clean_reboot>
    8560:	ee000ed0 	mcr	14, 0, r0, cr0, cr0, {6}
    8564:	e59f3058 	ldr	r3, [pc, #88]	; 85c4 <watchpt_set0+0xa8>
    8568:	ee003ef0 	mcr	14, 0, r3, cr0, cr0, {7}
    856c:	ee102ef0 	mrc	14, 0, r2, cr0, cr0, {7}
    8570:	e1520003 	cmp	r2, r3
    8574:	0a000008 	beq	859c <watchpt_set0+0x80>
    8578:	eb00011d 	bl	89f4 <rpi_reset_putc>
    857c:	e59f3030 	ldr	r3, [pc, #48]	; 85b4 <watchpt_set0+0x98>
    8580:	e58d3000 	str	r3, [sp]
    8584:	e59f002c 	ldr	r0, [pc, #44]	; 85b8 <watchpt_set0+0x9c>
    8588:	e59f102c 	ldr	r1, [pc, #44]	; 85bc <watchpt_set0+0xa0>
    858c:	e59f202c 	ldr	r2, [pc, #44]	; 85c0 <watchpt_set0+0xa4>
    8590:	e3a03052 	mov	r3, #82	; 0x52
    8594:	eb0000fb 	bl	8988 <printk>
    8598:	eb000292 	bl	8fe8 <clean_reboot>
    859c:	e3a03000 	mov	r3, #0
    85a0:	ee073f95 	mcr	15, 0, r3, cr7, cr5, {4}
    85a4:	e59f301c 	ldr	r3, [pc, #28]	; 85c8 <watchpt_set0+0xac>
    85a8:	e5831000 	str	r1, [r3]
    85ac:	e28dd00c 	add	sp, sp, #12
    85b0:	e49df004 	pop	{pc}		; (ldr pc, [sp], #4)
    85b4:	000098a4 	andeq	r9, r0, r4, lsr #17
    85b8:	000095f4 	strdeq	r9, [r0], -r4
    85bc:	00009894 	muleq	r0, r4, r8
    85c0:	00009990 	muleq	r0, r0, r9
    85c4:	000001ff 	strdeq	r0, [r0], -pc	; <UNPREDICTABLE>
    85c8:	00009c10 	andeq	r9, r0, r0, lsl ip

000085cc <data_abort_vector>:
    85cc:	e52de004 	push	{lr}		; (str lr, [sp, #-4]!)
    85d0:	e24dd00c 	sub	sp, sp, #12
    85d4:	e1a01000 	mov	r1, r0
    85d8:	ee153f10 	mrc	15, 0, r3, cr5, cr0, {0}
    85dc:	ee153f10 	mrc	15, 0, r3, cr5, cr0, {0}
    85e0:	e203300f 	and	r3, r3, #15
    85e4:	e3530002 	cmp	r3, #2
    85e8:	0a000006 	beq	8608 <data_abort_vector+0x3c>
    85ec:	eb000100 	bl	89f4 <rpi_reset_putc>
    85f0:	e59f008c 	ldr	r0, [pc, #140]	; 8684 <data_abort_vector+0xb8>
    85f4:	e59f108c 	ldr	r1, [pc, #140]	; 8688 <data_abort_vector+0xbc>
    85f8:	e59f208c 	ldr	r2, [pc, #140]	; 868c <data_abort_vector+0xc0>
    85fc:	e3a03079 	mov	r3, #121	; 0x79
    8600:	eb0000e0 	bl	8988 <printk>
    8604:	eb000277 	bl	8fe8 <clean_reboot>
    8608:	ee103e16 	mrc	14, 0, r3, cr0, cr6, {0}
    860c:	e2433004 	sub	r3, r3, #4
    8610:	e1530000 	cmp	r3, r0
    8614:	0a000008 	beq	863c <data_abort_vector+0x70>
    8618:	eb0000f5 	bl	89f4 <rpi_reset_putc>
    861c:	e59f306c 	ldr	r3, [pc, #108]	; 8690 <data_abort_vector+0xc4>
    8620:	e58d3000 	str	r3, [sp]
    8624:	e59f0068 	ldr	r0, [pc, #104]	; 8694 <data_abort_vector+0xc8>
    8628:	e59f1068 	ldr	r1, [pc, #104]	; 8698 <data_abort_vector+0xcc>
    862c:	e59f2068 	ldr	r2, [pc, #104]	; 869c <data_abort_vector+0xd0>
    8630:	e3a03067 	mov	r3, #103	; 0x67
    8634:	eb0000d3 	bl	8988 <printk>
    8638:	eb00026a 	bl	8fe8 <clean_reboot>
    863c:	e59f305c 	ldr	r3, [pc, #92]	; 86a0 <data_abort_vector+0xd4>
    8640:	e5933000 	ldr	r3, [r3]
    8644:	e3530000 	cmp	r3, #0
    8648:	1a000008 	bne	8670 <data_abort_vector+0xa4>
    864c:	eb0000e8 	bl	89f4 <rpi_reset_putc>
    8650:	e59f304c 	ldr	r3, [pc, #76]	; 86a4 <data_abort_vector+0xd8>
    8654:	e58d3000 	str	r3, [sp]
    8658:	e59f0034 	ldr	r0, [pc, #52]	; 8694 <data_abort_vector+0xc8>
    865c:	e59f1034 	ldr	r1, [pc, #52]	; 8698 <data_abort_vector+0xcc>
    8660:	e59f2034 	ldr	r2, [pc, #52]	; 869c <data_abort_vector+0xd0>
    8664:	e3a03069 	mov	r3, #105	; 0x69
    8668:	eb0000c6 	bl	8988 <printk>
    866c:	eb00025d 	bl	8fe8 <clean_reboot>
    8670:	ee162f10 	mrc	15, 0, r2, cr6, cr0, {0}
    8674:	e3a00000 	mov	r0, #0
    8678:	e12fff33 	blx	r3
    867c:	e28dd00c 	add	sp, sp, #12
    8680:	e49df004 	pop	{pc}		; (ldr pc, [sp], #4)
    8684:	000098bc 			; <UNDEFINED> instruction: 0x000098bc
    8688:	000098f4 	strdeq	r9, [r0], -r4
    868c:	000099b4 			; <UNDEFINED> instruction: 0x000099b4
    8690:	00009904 	andeq	r9, r0, r4, lsl #18
    8694:	000095f4 	strdeq	r9, [r0], -r4
    8698:	00009894 	muleq	r0, r4, r8
    869c:	000099a0 	andeq	r9, r0, r0, lsr #19
    86a0:	00009c10 	andeq	r9, r0, r0, lsl ip
    86a4:	00009918 	andeq	r9, r0, r8, lsl r9

000086a8 <cp14_enable>:
    86a8:	e92d4008 	push	{r3, lr}
    86ac:	e59f302c 	ldr	r3, [pc, #44]	; 86e0 <cp14_enable+0x38>
    86b0:	e5933000 	ldr	r3, [r3]
    86b4:	e3530000 	cmp	r3, #0
    86b8:	1a000003 	bne	86cc <cp14_enable+0x24>
    86bc:	eb000297 	bl	9120 <int_init>
    86c0:	e3a02001 	mov	r2, #1
    86c4:	e59f3014 	ldr	r3, [pc, #20]	; 86e0 <cp14_enable+0x38>
    86c8:	e5832000 	str	r2, [r3]
    86cc:	e3a03902 	mov	r3, #32768	; 0x8000
    86d0:	ee003e11 	mcr	14, 0, r3, cr0, cr1, {0}
    86d4:	e3a03000 	mov	r3, #0
    86d8:	ee073f95 	mcr	15, 0, r3, cr7, cr5, {4}
    86dc:	e8bd8008 	pop	{r3, pc}
    86e0:	00009c20 	andeq	r9, r0, r0, lsr #24

000086e4 <brkpt_set0>:
    86e4:	ee103eb0 	mrc	14, 0, r3, cr0, cr0, {5}
    86e8:	e3c33001 	bic	r3, r3, #1
    86ec:	ee003eb0 	mcr	14, 0, r3, cr0, cr0, {5}
    86f0:	ee000e90 	mcr	14, 0, r0, cr0, cr0, {4}
    86f4:	e59f3014 	ldr	r3, [pc, #20]	; 8710 <brkpt_set0+0x2c>
    86f8:	ee003eb0 	mcr	14, 0, r3, cr0, cr0, {5}
    86fc:	e3a03000 	mov	r3, #0
    8700:	ee073f95 	mcr	15, 0, r3, cr7, cr5, {4}
    8704:	e59f3008 	ldr	r3, [pc, #8]	; 8714 <brkpt_set0+0x30>
    8708:	e5831000 	str	r1, [r3]
    870c:	e12fff1e 	bx	lr
    8710:	000001e7 	andeq	r0, r0, r7, ror #3
    8714:	00009c14 	andeq	r9, r0, r4, lsl ip

00008718 <prefetch_abort_vector>:
    8718:	e52de004 	push	{lr}		; (str lr, [sp, #-4]!)
    871c:	e24dd00c 	sub	sp, sp, #12
    8720:	e1a01000 	mov	r1, r0
    8724:	ee153f30 	mrc	15, 0, r3, cr5, cr0, {1}
    8728:	e203300f 	and	r3, r3, #15
    872c:	e3530002 	cmp	r3, #2
    8730:	0a000006 	beq	8750 <prefetch_abort_vector+0x38>
    8734:	eb0000ae 	bl	89f4 <rpi_reset_putc>
    8738:	e59f0058 	ldr	r0, [pc, #88]	; 8798 <prefetch_abort_vector+0x80>
    873c:	e59f1058 	ldr	r1, [pc, #88]	; 879c <prefetch_abort_vector+0x84>
    8740:	e59f2058 	ldr	r2, [pc, #88]	; 87a0 <prefetch_abort_vector+0x88>
    8744:	e3a030c7 	mov	r3, #199	; 0xc7
    8748:	eb00008e 	bl	8988 <printk>
    874c:	eb000225 	bl	8fe8 <clean_reboot>
    8750:	e59f304c 	ldr	r3, [pc, #76]	; 87a4 <prefetch_abort_vector+0x8c>
    8754:	e5933000 	ldr	r3, [r3]
    8758:	e3530000 	cmp	r3, #0
    875c:	1a000008 	bne	8784 <prefetch_abort_vector+0x6c>
    8760:	eb0000a3 	bl	89f4 <rpi_reset_putc>
    8764:	e59f303c 	ldr	r3, [pc, #60]	; 87a8 <prefetch_abort_vector+0x90>
    8768:	e58d3000 	str	r3, [sp]
    876c:	e59f0038 	ldr	r0, [pc, #56]	; 87ac <prefetch_abort_vector+0x94>
    8770:	e59f1024 	ldr	r1, [pc, #36]	; 879c <prefetch_abort_vector+0x84>
    8774:	e59f2024 	ldr	r2, [pc, #36]	; 87a0 <prefetch_abort_vector+0x88>
    8778:	e3a030c8 	mov	r3, #200	; 0xc8
    877c:	eb000081 	bl	8988 <printk>
    8780:	eb000218 	bl	8fe8 <clean_reboot>
    8784:	ee162f10 	mrc	15, 0, r2, cr6, cr0, {0}
    8788:	e3a00000 	mov	r0, #0
    878c:	e12fff33 	blx	r3
    8790:	e28dd00c 	add	sp, sp, #12
    8794:	e49df004 	pop	{pc}		; (ldr pc, [sp], #4)
    8798:	000096b4 			; <UNDEFINED> instruction: 0x000096b4
    879c:	00009894 	muleq	r0, r4, r8
    87a0:	000099c8 	andeq	r9, r0, r8, asr #19
    87a4:	00009c14 	andeq	r9, r0, r4, lsl ip
    87a8:	0000992c 	andeq	r9, r0, ip, lsr #18
    87ac:	000095f4 	strdeq	r9, [r0], -r4

000087b0 <interrupt_vector>:
    87b0:	e12fff1e 	bx	lr

000087b4 <brk_no_ret_error>:
    87b4:	e92d4008 	push	{r3, lr}
    87b8:	eb00008d 	bl	89f4 <rpi_reset_putc>
    87bc:	e59f0010 	ldr	r0, [pc, #16]	; 87d4 <brk_no_ret_error+0x20>
    87c0:	e59f1010 	ldr	r1, [pc, #16]	; 87d8 <brk_no_ret_error+0x24>
    87c4:	e59f2010 	ldr	r2, [pc, #16]	; 87dc <brk_no_ret_error+0x28>
    87c8:	e3a030d9 	mov	r3, #217	; 0xd9
    87cc:	eb00006d 	bl	8988 <printk>
    87d0:	eb000204 	bl	8fe8 <clean_reboot>
    87d4:	0000993c 	andeq	r9, r0, ip, lsr r9
    87d8:	00009894 	muleq	r0, r4, r8
    87dc:	000099e0 	andeq	r9, r0, r0, ror #19

000087e0 <brkpt_mismatch_set0>:
    87e0:	ee103eb0 	mrc	14, 0, r3, cr0, cr0, {5}
    87e4:	e3c33001 	bic	r3, r3, #1
    87e8:	ee003eb0 	mcr	14, 0, r3, cr0, cr0, {5}
    87ec:	ee000e90 	mcr	14, 0, r0, cr0, cr0, {4}
    87f0:	e59f3014 	ldr	r3, [pc, #20]	; 880c <brkpt_mismatch_set0+0x2c>
    87f4:	ee003eb0 	mcr	14, 0, r3, cr0, cr0, {5}
    87f8:	e3a03000 	mov	r3, #0
    87fc:	ee073f95 	mcr	15, 0, r3, cr7, cr5, {4}
    8800:	e59f3008 	ldr	r3, [pc, #8]	; 8810 <brkpt_mismatch_set0+0x30>
    8804:	e5831000 	str	r1, [r3]
    8808:	e12fff1e 	bx	lr
    880c:	004001e7 	subeq	r0, r0, r7, ror #3
    8810:	00009c14 	andeq	r9, r0, r4, lsl ip

00008814 <brkpt_mismatch_disable0>:
    8814:	e59f3004 	ldr	r3, [pc, #4]	; 8820 <brkpt_mismatch_disable0+0xc>
    8818:	ee003eb0 	mcr	14, 0, r3, cr0, cr0, {5}
    881c:	e12fff1e 	bx	lr
    8820:	004001e6 	subeq	r0, r0, r6, ror #3

00008824 <syscall_vector>:
    8824:	e92d4008 	push	{r3, lr}
    8828:	e5903000 	ldr	r3, [r0]
    882c:	e3c334ff 	bic	r3, r3, #-16777216	; 0xff000000
    8830:	e3530001 	cmp	r3, #1
    8834:	1a000001 	bne	8840 <syscall_vector+0x1c>
    8838:	e169f001 	msr	SPSR_fc, r1
    883c:	ea000007 	b	8860 <syscall_vector+0x3c>
    8840:	e3530002 	cmp	r3, #2
    8844:	1a000002 	bne	8854 <syscall_vector+0x30>
    8848:	e59f0018 	ldr	r0, [pc, #24]	; 8868 <syscall_vector+0x44>
    884c:	eb00004d 	bl	8988 <printk>
    8850:	ea000002 	b	8860 <syscall_vector+0x3c>
    8854:	e59f0010 	ldr	r0, [pc, #16]	; 886c <syscall_vector+0x48>
    8858:	e1a01003 	mov	r1, r3
    885c:	eb000049 	bl	8988 <printk>
    8860:	e3a00000 	mov	r0, #0
    8864:	e8bd8008 	pop	{r3, pc}
    8868:	0000996c 	andeq	r9, r0, ip, ror #18
    886c:	00009978 	andeq	r9, r0, r8, ror r9

00008870 <_interrupt_table>:
    8870:	e59ff020 	ldr	pc, [pc, #32]	; 8898 <_reset_asm>
    8874:	e59ff020 	ldr	pc, [pc, #32]	; 889c <_undefined_instruction_asm>
    8878:	e59ff020 	ldr	pc, [pc, #32]	; 88a0 <_software_interrupt_asm>
    887c:	e59ff020 	ldr	pc, [pc, #32]	; 88a4 <_prefetch_abort_asm>
    8880:	e59ff020 	ldr	pc, [pc, #32]	; 88a8 <_data_abort_asm>
    8884:	e59ff00c 	ldr	pc, [pc, #12]	; 8898 <_reset_asm>
    8888:	e59ff01c 	ldr	pc, [pc, #28]	; 88ac <_interrupt_asm>

0000888c <fast_interrupt_asm>:
    888c:	e3a0d409 	mov	sp, #150994944	; 0x9000000
    8890:	e24ee004 	sub	lr, lr, #4
    8894:	eb0001ec 	bl	904c <fast_interrupt_vector>

00008898 <_reset_asm>:
    8898:	000088c8 	andeq	r8, r0, r8, asr #17

0000889c <_undefined_instruction_asm>:
    889c:	0000890c 	andeq	r8, r0, ip, lsl #18

000088a0 <_software_interrupt_asm>:
    88a0:	00008918 	andeq	r8, r0, r8, lsl r9

000088a4 <_prefetch_abort_asm>:
    88a4:	000088f0 	strdeq	r8, [r0], -r0

000088a8 <_data_abort_asm>:
    88a8:	000088d4 	ldrdeq	r8, [r0], -r4

000088ac <_interrupt_asm>:
    88ac:	000088b0 			; <UNDEFINED> instruction: 0x000088b0

000088b0 <_interrupt_table_end>:
    88b0:	e3a0d409 	mov	sp, #150994944	; 0x9000000
    88b4:	e24ee004 	sub	lr, lr, #4
    88b8:	e92d5fff 	push	{r0, r1, r2, r3, r4, r5, r6, r7, r8, r9, sl, fp, ip, lr}
    88bc:	e1a0000e 	mov	r0, lr
    88c0:	e8bd5fff 	pop	{r0, r1, r2, r3, r4, r5, r6, r7, r8, r9, sl, fp, ip, lr}
    88c4:	e1b0f00e 	movs	pc, lr

000088c8 <reset_asm>:
    88c8:	e3a0d409 	mov	sp, #150994944	; 0x9000000
    88cc:	e24ee004 	sub	lr, lr, #4
    88d0:	eb0001ee 	bl	9090 <reset_vector>

000088d4 <data_abort_asm>:
    88d4:	e24ee008 	sub	lr, lr, #8
    88d8:	e3a0d409 	mov	sp, #150994944	; 0x9000000
    88dc:	e92d5fff 	push	{r0, r1, r2, r3, r4, r5, r6, r7, r8, r9, sl, fp, ip, lr}
    88e0:	e1a0000e 	mov	r0, lr
    88e4:	ebffff38 	bl	85cc <data_abort_vector>
    88e8:	e8bd5fff 	pop	{r0, r1, r2, r3, r4, r5, r6, r7, r8, r9, sl, fp, ip, lr}
    88ec:	e1b0f00e 	movs	pc, lr

000088f0 <prefetch_abort_asm>:
    88f0:	e24ee004 	sub	lr, lr, #4
    88f4:	e3a0d409 	mov	sp, #150994944	; 0x9000000
    88f8:	e92d5fff 	push	{r0, r1, r2, r3, r4, r5, r6, r7, r8, r9, sl, fp, ip, lr}
    88fc:	e1a0000e 	mov	r0, lr
    8900:	ebffff84 	bl	8718 <prefetch_abort_vector>
    8904:	e8bd5fff 	pop	{r0, r1, r2, r3, r4, r5, r6, r7, r8, r9, sl, fp, ip, lr}
    8908:	e1b0f00e 	movs	pc, lr

0000890c <undefined_instruction_asm>:
    890c:	e3a0d409 	mov	sp, #150994944	; 0x9000000
    8910:	e24ee004 	sub	lr, lr, #4
    8914:	eb0001ee 	bl	90d4 <undefined_instruction_vector>

00008918 <software_interrupt_asm>:
    8918:	e92d5ff0 	push	{r4, r5, r6, r7, r8, r9, sl, fp, ip, lr}
    891c:	e24ee004 	sub	lr, lr, #4
    8920:	e1a01000 	mov	r1, r0
    8924:	e1a0000e 	mov	r0, lr
    8928:	ebffffbd 	bl	8824 <syscall_vector>
    892c:	e8bd5ff0 	pop	{r4, r5, r6, r7, r8, r9, sl, fp, ip, lr}
    8930:	e1b0f00e 	movs	pc, lr

00008934 <user_trampoline_no_ret>:
    8934:	e1a0200d 	mov	r2, sp
    8938:	e129f000 	msr	CPSR_fc, r0
    893c:	e10f5000 	mrs	r5, CPSR
    8940:	ee070f95 	mcr	15, 0, r0, cr7, cr5, {4}
    8944:	e1a0d002 	mov	sp, r2
    8948:	e92d5ff0 	push	{r4, r5, r6, r7, r8, r9, sl, fp, ip, lr}
    894c:	e12fff31 	blx	r1
    8950:	e8bd5ff0 	pop	{r4, r5, r6, r7, r8, r9, sl, fp, ip, lr}
    8954:	eb0001a3 	bl	8fe8 <clean_reboot>
    8958:	ebffff95 	bl	87b4 <brk_no_ret_error>

0000895c <user_trampoline_ret>:
    895c:	e92d5ff0 	push	{r4, r5, r6, r7, r8, r9, sl, fp, ip, lr}
    8960:	e10f4000 	mrs	r4, CPSR
    8964:	e1a0500d 	mov	r5, sp
    8968:	e129f000 	msr	CPSR_fc, r0
    896c:	e1a0d005 	mov	sp, r5
    8970:	e1a00002 	mov	r0, r2
    8974:	e12fff31 	blx	r1
    8978:	e1a00004 	mov	r0, r4
    897c:	ef000001 	svc	0x00000001
    8980:	e8bd5ff0 	pop	{r4, r5, r6, r7, r8, r9, sl, fp, ip, lr}
    8984:	e12fff1e 	bx	lr

00008988 <printk>:
    8988:	e92d000f 	push	{r0, r1, r2, r3}
    898c:	e92d4030 	push	{r4, r5, lr}
    8990:	e24dd00c 	sub	sp, sp, #12
    8994:	e28d301c 	add	r3, sp, #28
    8998:	e58d3004 	str	r3, [sp, #4]
    899c:	e59f4034 	ldr	r4, [pc, #52]	; 89d8 <printk+0x50>
    89a0:	e1a00004 	mov	r0, r4
    89a4:	e3a01b01 	mov	r1, #1024	; 0x400
    89a8:	e59d2018 	ldr	r2, [sp, #24]
    89ac:	eb0000d0 	bl	8cf4 <va_printk>
    89b0:	e1a05000 	mov	r5, r0
    89b4:	e59f3020 	ldr	r3, [pc, #32]	; 89dc <printk+0x54>
    89b8:	e5933000 	ldr	r3, [r3]
    89bc:	e1a00004 	mov	r0, r4
    89c0:	e12fff33 	blx	r3
    89c4:	e1a00005 	mov	r0, r5
    89c8:	e28dd00c 	add	sp, sp, #12
    89cc:	e8bd4030 	pop	{r4, r5, lr}
    89d0:	e28dd010 	add	sp, sp, #16
    89d4:	e12fff1e 	bx	lr
    89d8:	00009c24 	andeq	r9, r0, r4, lsr #24
    89dc:	0000959c 	muleq	r0, ip, r5

000089e0 <internal_putchar>:
    89e0:	e92d4010 	push	{r4, lr}
    89e4:	e1a04000 	mov	r4, r0
    89e8:	eb000291 	bl	9434 <uart_putc>
    89ec:	e1a00004 	mov	r0, r4
    89f0:	e8bd8010 	pop	{r4, pc}

000089f4 <rpi_reset_putc>:
    89f4:	e59f2008 	ldr	r2, [pc, #8]	; 8a04 <rpi_reset_putc+0x10>
    89f8:	e59f3008 	ldr	r3, [pc, #8]	; 8a08 <rpi_reset_putc+0x14>
    89fc:	e5832000 	str	r2, [r3]
    8a00:	e12fff1e 	bx	lr
    8a04:	000089e0 	andeq	r8, r0, r0, ror #19
    8a08:	00009598 	muleq	r0, r8, r5

00008a0c <rpi_set_putc>:
    8a0c:	e59f3004 	ldr	r3, [pc, #4]	; 8a18 <rpi_set_putc+0xc>
    8a10:	e5830000 	str	r0, [r3]
    8a14:	e12fff1e 	bx	lr
    8a18:	00009598 	muleq	r0, r8, r5

00008a1c <internal_putk>:
    8a1c:	e92d4038 	push	{r3, r4, r5, lr}
    8a20:	e1a04000 	mov	r4, r0
    8a24:	e59f5020 	ldr	r5, [pc, #32]	; 8a4c <internal_putk+0x30>
    8a28:	ea000002 	b	8a38 <internal_putk+0x1c>
    8a2c:	e5953000 	ldr	r3, [r5]
    8a30:	e12fff33 	blx	r3
    8a34:	e2844001 	add	r4, r4, #1
    8a38:	e5d40000 	ldrb	r0, [r4]
    8a3c:	e3500000 	cmp	r0, #0
    8a40:	1afffff9 	bne	8a2c <internal_putk+0x10>
    8a44:	e3a00001 	mov	r0, #1
    8a48:	e8bd8038 	pop	{r3, r4, r5, pc}
    8a4c:	00009598 	muleq	r0, r8, r5

00008a50 <isdigit>:
    8a50:	e2400030 	sub	r0, r0, #48	; 0x30
    8a54:	e3500009 	cmp	r0, #9
    8a58:	83a00000 	movhi	r0, #0
    8a5c:	93a00001 	movls	r0, #1
    8a60:	e12fff1e 	bx	lr

00008a64 <pad>:
    8a64:	e0611000 	rsb	r1, r1, r0
    8a68:	e3a03020 	mov	r3, #32
    8a6c:	ea000002 	b	8a7c <pad+0x18>
    8a70:	e5c03000 	strb	r3, [r0]
    8a74:	e2811001 	add	r1, r1, #1
    8a78:	e2800001 	add	r0, r0, #1
    8a7c:	e1510002 	cmp	r1, r2
    8a80:	bafffffa 	blt	8a70 <pad+0xc>
    8a84:	e3a03000 	mov	r3, #0
    8a88:	e5c03000 	strb	r3, [r0]
    8a8c:	e12fff1e 	bx	lr

00008a90 <reverse>:
    8a90:	e063c002 	rsb	ip, r3, r2
    8a94:	e28cc001 	add	ip, ip, #1
    8a98:	e15c0001 	cmp	ip, r1
    8a9c:	c061100c 	rsbgt	r1, r1, ip
    8aa0:	c0833001 	addgt	r3, r3, r1
    8aa4:	e2422001 	sub	r2, r2, #1
    8aa8:	e1a01000 	mov	r1, r0
    8aac:	ea000002 	b	8abc <reverse+0x2c>
    8ab0:	e452c001 	ldrb	ip, [r2], #-1
    8ab4:	e5c1c000 	strb	ip, [r1]
    8ab8:	e2811001 	add	r1, r1, #1
    8abc:	e1520003 	cmp	r2, r3
    8ac0:	2afffffa 	bcs	8ab0 <reverse+0x20>
    8ac4:	e3a03000 	mov	r3, #0
    8ac8:	e5c13000 	strb	r3, [r1]
    8acc:	e12fff1e 	bx	lr

00008ad0 <emit>:
    8ad0:	e92d41f0 	push	{r4, r5, r6, r7, r8, lr}
    8ad4:	e24dd048 	sub	sp, sp, #72	; 0x48
    8ad8:	e1a05001 	mov	r5, r1
    8adc:	e1a04002 	mov	r4, r2
    8ae0:	e59d2060 	ldr	r2, [sp, #96]	; 0x60
    8ae4:	e1520004 	cmp	r2, r4
    8ae8:	c2442001 	subgt	r2, r4, #1
    8aec:	e1a0c003 	mov	ip, r3
    8af0:	e2400002 	sub	r0, r0, #2
    8af4:	e350000e 	cmp	r0, #14
    8af8:	979ff100 	ldrls	pc, [pc, r0, lsl #2]
    8afc:	ea000048 	b	8c24 <emit+0x154>
    8b00:	00008bfc 	strdeq	r8, [r0], -ip
    8b04:	00008c24 	andeq	r8, r0, r4, lsr #24
    8b08:	00008c24 	andeq	r8, r0, r4, lsr #24
    8b0c:	00008c24 	andeq	r8, r0, r4, lsr #24
    8b10:	00008c24 	andeq	r8, r0, r4, lsr #24
    8b14:	00008c24 	andeq	r8, r0, r4, lsr #24
    8b18:	00008bf0 	strdeq	r8, [r0], -r0
    8b1c:	00008c24 	andeq	r8, r0, r4, lsr #24
    8b20:	00008b3c 	andeq	r8, r0, ip, lsr fp
    8b24:	00008c24 	andeq	r8, r0, r4, lsr #24
    8b28:	00008c24 	andeq	r8, r0, r4, lsr #24
    8b2c:	00008c24 	andeq	r8, r0, r4, lsr #24
    8b30:	00008c24 	andeq	r8, r0, r4, lsr #24
    8b34:	00008c24 	andeq	r8, r0, r4, lsr #24
    8b38:	00008bb0 			; <UNDEFINED> instruction: 0x00008bb0
    8b3c:	e59d1064 	ldr	r1, [sp, #100]	; 0x64
    8b40:	e2911000 	adds	r1, r1, #0
    8b44:	13a01001 	movne	r1, #1
    8b48:	e0111fa3 	ands	r1, r1, r3, lsr #31
    8b4c:	1263c000 	rsbne	ip, r3, #0
    8b50:	13a08001 	movne	r8, #1
    8b54:	03a08000 	moveq	r8, #0
    8b58:	e28d1008 	add	r1, sp, #8
    8b5c:	e59f7108 	ldr	r7, [pc, #264]	; 8c6c <emit+0x19c>
    8b60:	e59f6108 	ldr	r6, [pc, #264]	; 8c70 <emit+0x1a0>
    8b64:	ea000000 	b	8b6c <emit+0x9c>
    8b68:	e1a01000 	mov	r1, r0
    8b6c:	e2810001 	add	r0, r1, #1
    8b70:	e083ec97 	umull	lr, r3, r7, ip
    8b74:	e1a031a3 	lsr	r3, r3, #3
    8b78:	e1a0e003 	mov	lr, r3
    8b7c:	e0833103 	add	r3, r3, r3, lsl #2
    8b80:	e1a03083 	lsl	r3, r3, #1
    8b84:	e063300c 	rsb	r3, r3, ip
    8b88:	e7d63003 	ldrb	r3, [r6, r3]
    8b8c:	e5c13000 	strb	r3, [r1]
    8b90:	e1a0c00e 	mov	ip, lr
    8b94:	e35e0000 	cmp	lr, #0
    8b98:	1afffff2 	bne	8b68 <emit+0x98>
    8b9c:	e3580000 	cmp	r8, #0
    8ba0:	12810002 	addne	r0, r1, #2
    8ba4:	13a0302d 	movne	r3, #45	; 0x2d
    8ba8:	15c13001 	strbne	r3, [r1, #1]
    8bac:	ea000025 	b	8c48 <emit+0x178>
    8bb0:	e28d3008 	add	r3, sp, #8
    8bb4:	e59fe0b8 	ldr	lr, [pc, #184]	; 8c74 <emit+0x1a4>
    8bb8:	ea000000 	b	8bc0 <emit+0xf0>
    8bbc:	e1a03000 	mov	r3, r0
    8bc0:	e2830001 	add	r0, r3, #1
    8bc4:	e20c100f 	and	r1, ip, #15
    8bc8:	e7de1001 	ldrb	r1, [lr, r1]
    8bcc:	e5c31000 	strb	r1, [r3]
    8bd0:	e1b0c22c 	lsrs	ip, ip, #4
    8bd4:	1afffff8 	bne	8bbc <emit+0xec>
    8bd8:	e3a01078 	mov	r1, #120	; 0x78
    8bdc:	e5c31001 	strb	r1, [r3, #1]
    8be0:	e2830003 	add	r0, r3, #3
    8be4:	e3a01030 	mov	r1, #48	; 0x30
    8be8:	e5c31002 	strb	r1, [r3, #2]
    8bec:	ea000015 	b	8c48 <emit+0x178>
    8bf0:	e5cd3008 	strb	r3, [sp, #8]
    8bf4:	e28d0009 	add	r0, sp, #9
    8bf8:	ea000012 	b	8c48 <emit+0x178>
    8bfc:	e28d3008 	add	r3, sp, #8
    8c00:	e59fe070 	ldr	lr, [pc, #112]	; 8c78 <emit+0x1a8>
    8c04:	e2830001 	add	r0, r3, #1
    8c08:	e20c1001 	and	r1, ip, #1
    8c0c:	e7de1001 	ldrb	r1, [lr, r1]
    8c10:	e5c31000 	strb	r1, [r3]
    8c14:	e1a03000 	mov	r3, r0
    8c18:	e1b0c0ac 	lsrs	ip, ip, #1
    8c1c:	1afffff8 	bne	8c04 <emit+0x134>
    8c20:	ea000008 	b	8c48 <emit+0x178>
    8c24:	ebffff72 	bl	89f4 <rpi_reset_putc>
    8c28:	e59f304c 	ldr	r3, [pc, #76]	; 8c7c <emit+0x1ac>
    8c2c:	e58d3000 	str	r3, [sp]
    8c30:	e59f0048 	ldr	r0, [pc, #72]	; 8c80 <emit+0x1b0>
    8c34:	e59f1048 	ldr	r1, [pc, #72]	; 8c84 <emit+0x1b4>
    8c38:	e59f2048 	ldr	r2, [pc, #72]	; 8c88 <emit+0x1b8>
    8c3c:	e3a03077 	mov	r3, #119	; 0x77
    8c40:	ebffff50 	bl	8988 <printk>
    8c44:	eb0000e7 	bl	8fe8 <clean_reboot>
    8c48:	e28d1008 	add	r1, sp, #8
    8c4c:	ebffff84 	bl	8a64 <pad>
    8c50:	e1a02000 	mov	r2, r0
    8c54:	e1a00005 	mov	r0, r5
    8c58:	e1a01004 	mov	r1, r4
    8c5c:	e28d3008 	add	r3, sp, #8
    8c60:	ebffff8a 	bl	8a90 <reverse>
    8c64:	e28dd048 	add	sp, sp, #72	; 0x48
    8c68:	e8bd81f0 	pop	{r4, r5, r6, r7, r8, pc}
    8c6c:	cccccccd 	stclgt	12, cr12, [ip], {205}	; 0xcd
    8c70:	00009a30 	andeq	r9, r0, r0, lsr sl
    8c74:	00009a3c 	andeq	r9, r0, ip, lsr sl
    8c78:	00009a50 	andeq	r9, r0, r0, asr sl
    8c7c:	00009a2c 	andeq	r9, r0, ip, lsr #20
    8c80:	000095f4 	strdeq	r9, [r0], -r4
    8c84:	00009a18 	andeq	r9, r0, r8, lsl sl
    8c88:	000099f4 	strdeq	r9, [r0], -r4

00008c8c <rpi_set_output>:
    8c8c:	e52de004 	push	{lr}		; (str lr, [sp, #-4]!)
    8c90:	e24dd00c 	sub	sp, sp, #12
    8c94:	e3500000 	cmp	r0, #0
    8c98:	1a000008 	bne	8cc0 <rpi_set_output+0x34>
    8c9c:	ebffff54 	bl	89f4 <rpi_reset_putc>
    8ca0:	e59f3034 	ldr	r3, [pc, #52]	; 8cdc <rpi_set_output+0x50>
    8ca4:	e58d3000 	str	r3, [sp]
    8ca8:	e59f0030 	ldr	r0, [pc, #48]	; 8ce0 <rpi_set_output+0x54>
    8cac:	e59f1030 	ldr	r1, [pc, #48]	; 8ce4 <rpi_set_output+0x58>
    8cb0:	e59f2030 	ldr	r2, [pc, #48]	; 8ce8 <rpi_set_output+0x5c>
    8cb4:	e3a03020 	mov	r3, #32
    8cb8:	ebffff32 	bl	8988 <printk>
    8cbc:	eb0000c9 	bl	8fe8 <clean_reboot>
    8cc0:	e59f3024 	ldr	r3, [pc, #36]	; 8cec <rpi_set_output+0x60>
    8cc4:	e5830000 	str	r0, [r3]
    8cc8:	e3510000 	cmp	r1, #0
    8ccc:	159f301c 	ldrne	r3, [pc, #28]	; 8cf0 <rpi_set_output+0x64>
    8cd0:	15831000 	strne	r1, [r3]
    8cd4:	e28dd00c 	add	sp, sp, #12
    8cd8:	e49df004 	pop	{pc}		; (ldr pc, [sp], #4)
    8cdc:	00009a54 	andeq	r9, r0, r4, asr sl
    8ce0:	000095f4 	strdeq	r9, [r0], -r4
    8ce4:	00009a18 	andeq	r9, r0, r8, lsl sl
    8ce8:	000099fc 	strdeq	r9, [r0], -ip
    8cec:	00009598 	muleq	r0, r8, r5
    8cf0:	0000959c 	muleq	r0, ip, r5

00008cf4 <va_printk>:
    8cf4:	e92d4ff0 	push	{r4, r5, r6, r7, r8, r9, sl, fp, lr}
    8cf8:	e24dd094 	sub	sp, sp, #148	; 0x94
    8cfc:	e1a0b000 	mov	fp, r0
    8d00:	e58d200c 	str	r2, [sp, #12]
    8d04:	e1a0a003 	mov	sl, r3
    8d08:	e2411001 	sub	r1, r1, #1
    8d0c:	e0808001 	add	r8, r0, r1
    8d10:	e3a03000 	mov	r3, #0
    8d14:	e5c03000 	strb	r3, [r0]
    8d18:	e1a04000 	mov	r4, r0
    8d1c:	e1a06002 	mov	r6, r2
    8d20:	ea000095 	b	8f7c <va_printk+0x288>
    8d24:	e3530025 	cmp	r3, #37	; 0x25
    8d28:	12866001 	addne	r6, r6, #1
    8d2c:	15c43000 	strbne	r3, [r4]
    8d30:	12844001 	addne	r4, r4, #1
    8d34:	1a000090 	bne	8f7c <va_printk+0x288>
    8d38:	e5d62001 	ldrb	r2, [r6, #1]
    8d3c:	e3520025 	cmp	r2, #37	; 0x25
    8d40:	05c43000 	strbeq	r3, [r4]
    8d44:	02866002 	addeq	r6, r6, #2
    8d48:	02844001 	addeq	r4, r4, #1
    8d4c:	0a00008a 	beq	8f7c <va_printk+0x288>
    8d50:	e2866001 	add	r6, r6, #1
    8d54:	e3a07000 	mov	r7, #0
    8d58:	ea000004 	b	8d70 <va_printk+0x7c>
    8d5c:	e0877107 	add	r7, r7, r7, lsl #2
    8d60:	e1a07087 	lsl	r7, r7, #1
    8d64:	e0877005 	add	r7, r7, r5
    8d68:	e2477030 	sub	r7, r7, #48	; 0x30
    8d6c:	e2866001 	add	r6, r6, #1
    8d70:	e5d65000 	ldrb	r5, [r6]
    8d74:	e1a09005 	mov	r9, r5
    8d78:	e1a00005 	mov	r0, r5
    8d7c:	ebffff33 	bl	8a50 <isdigit>
    8d80:	e3500000 	cmp	r0, #0
    8d84:	1afffff4 	bne	8d5c <va_printk+0x68>
    8d88:	e357001f 	cmp	r7, #31
    8d8c:	9a000008 	bls	8db4 <va_printk+0xc0>
    8d90:	ebffff17 	bl	89f4 <rpi_reset_putc>
    8d94:	e59f320c 	ldr	r3, [pc, #524]	; 8fa8 <va_printk+0x2b4>
    8d98:	e58d3000 	str	r3, [sp]
    8d9c:	e59f0208 	ldr	r0, [pc, #520]	; 8fac <va_printk+0x2b8>
    8da0:	e59f1208 	ldr	r1, [pc, #520]	; 8fb0 <va_printk+0x2bc>
    8da4:	e59f2208 	ldr	r2, [pc, #520]	; 8fb4 <va_printk+0x2c0>
    8da8:	e3a03095 	mov	r3, #149	; 0x95
    8dac:	ebfffef5 	bl	8988 <printk>
    8db0:	eb00008c 	bl	8fe8 <clean_reboot>
    8db4:	e2455062 	sub	r5, r5, #98	; 0x62
    8db8:	e3550016 	cmp	r5, #22
    8dbc:	979ff105 	ldrls	pc, [pc, r5, lsl #2]
    8dc0:	ea000052 	b	8f10 <va_printk+0x21c>
    8dc4:	00008eb4 			; <UNDEFINED> instruction: 0x00008eb4
    8dc8:	00008ee8 	andeq	r8, r0, r8, ror #29
    8dcc:	00008e3c 	andeq	r8, r0, ip, lsr lr
    8dd0:	00008f10 	andeq	r8, r0, r0, lsl pc
    8dd4:	00008e20 	andeq	r8, r0, r0, lsr #28
    8dd8:	00008f10 	andeq	r8, r0, r0, lsl pc
    8ddc:	00008f10 	andeq	r8, r0, r0, lsl pc
    8de0:	00008f10 	andeq	r8, r0, r0, lsl pc
    8de4:	00008f10 	andeq	r8, r0, r0, lsl pc
    8de8:	00008f10 	andeq	r8, r0, r0, lsl pc
    8dec:	00008f10 	andeq	r8, r0, r0, lsl pc
    8df0:	00008f10 	andeq	r8, r0, r0, lsl pc
    8df4:	00008f10 	andeq	r8, r0, r0, lsl pc
    8df8:	00008f10 	andeq	r8, r0, r0, lsl pc
    8dfc:	00008e8c 	andeq	r8, r0, ip, lsl #29
    8e00:	00008f10 	andeq	r8, r0, r0, lsl pc
    8e04:	00008f10 	andeq	r8, r0, r0, lsl pc
    8e08:	00008edc 	ldrdeq	r8, [r0], -ip
    8e0c:	00008f10 	andeq	r8, r0, r0, lsl pc
    8e10:	00008e64 	andeq	r8, r0, r4, ror #28
    8e14:	00008f10 	andeq	r8, r0, r0, lsl pc
    8e18:	00008f10 	andeq	r8, r0, r0, lsl pc
    8e1c:	00008e8c 	andeq	r8, r0, ip, lsl #29
    8e20:	ebfffef3 	bl	89f4 <rpi_reset_putc>
    8e24:	e59f018c 	ldr	r0, [pc, #396]	; 8fb8 <va_printk+0x2c4>
    8e28:	e59f1180 	ldr	r1, [pc, #384]	; 8fb0 <va_printk+0x2bc>
    8e2c:	e59f2180 	ldr	r2, [pc, #384]	; 8fb4 <va_printk+0x2c0>
    8e30:	e3a0309b 	mov	r3, #155	; 0x9b
    8e34:	ebfffed3 	bl	8988 <printk>
    8e38:	eb00006a 	bl	8fe8 <clean_reboot>
    8e3c:	e59a3000 	ldr	r3, [sl]
    8e40:	e28aa004 	add	sl, sl, #4
    8e44:	e58d7000 	str	r7, [sp]
    8e48:	e3a02001 	mov	r2, #1
    8e4c:	e58d2004 	str	r2, [sp, #4]
    8e50:	e3a0000a 	mov	r0, #10
    8e54:	e28d1010 	add	r1, sp, #16
    8e58:	e3a02080 	mov	r2, #128	; 0x80
    8e5c:	ebffff1b 	bl	8ad0 <emit>
    8e60:	ea00003b 	b	8f54 <va_printk+0x260>
    8e64:	e59a3000 	ldr	r3, [sl]
    8e68:	e28aa004 	add	sl, sl, #4
    8e6c:	e58d7000 	str	r7, [sp]
    8e70:	e3a02000 	mov	r2, #0
    8e74:	e58d2004 	str	r2, [sp, #4]
    8e78:	e3a0000a 	mov	r0, #10
    8e7c:	e28d1010 	add	r1, sp, #16
    8e80:	e3a02080 	mov	r2, #128	; 0x80
    8e84:	ebffff11 	bl	8ad0 <emit>
    8e88:	ea000031 	b	8f54 <va_printk+0x260>
    8e8c:	e59a3000 	ldr	r3, [sl]
    8e90:	e28aa004 	add	sl, sl, #4
    8e94:	e58d7000 	str	r7, [sp]
    8e98:	e3a02000 	mov	r2, #0
    8e9c:	e58d2004 	str	r2, [sp, #4]
    8ea0:	e3a00010 	mov	r0, #16
    8ea4:	e08d1000 	add	r1, sp, r0
    8ea8:	e3a02080 	mov	r2, #128	; 0x80
    8eac:	ebffff07 	bl	8ad0 <emit>
    8eb0:	ea000027 	b	8f54 <va_printk+0x260>
    8eb4:	e59a3000 	ldr	r3, [sl]
    8eb8:	e28aa004 	add	sl, sl, #4
    8ebc:	e58d7000 	str	r7, [sp]
    8ec0:	e3a02000 	mov	r2, #0
    8ec4:	e58d2004 	str	r2, [sp, #4]
    8ec8:	e3a00002 	mov	r0, #2
    8ecc:	e28d1010 	add	r1, sp, #16
    8ed0:	e3a02080 	mov	r2, #128	; 0x80
    8ed4:	ebfffefd 	bl	8ad0 <emit>
    8ed8:	ea00001d 	b	8f54 <va_printk+0x260>
    8edc:	e59a0000 	ldr	r0, [sl]
    8ee0:	e28aa004 	add	sl, sl, #4
    8ee4:	ea00001a 	b	8f54 <va_printk+0x260>
    8ee8:	e59a3000 	ldr	r3, [sl]
    8eec:	e28aa004 	add	sl, sl, #4
    8ef0:	e58d7000 	str	r7, [sp]
    8ef4:	e3a02000 	mov	r2, #0
    8ef8:	e58d2004 	str	r2, [sp, #4]
    8efc:	e3a00008 	mov	r0, #8
    8f00:	e28d1010 	add	r1, sp, #16
    8f04:	e3a02080 	mov	r2, #128	; 0x80
    8f08:	ebfffef0 	bl	8ad0 <emit>
    8f0c:	ea000010 	b	8f54 <va_printk+0x260>
    8f10:	e3a03000 	mov	r3, #0
    8f14:	e5c63001 	strb	r3, [r6, #1]
    8f18:	e59f009c 	ldr	r0, [pc, #156]	; 8fbc <va_printk+0x2c8>
    8f1c:	e1a01009 	mov	r1, r9
    8f20:	e1a02009 	mov	r2, r9
    8f24:	ebfffe97 	bl	8988 <printk>
    8f28:	e59f3090 	ldr	r3, [pc, #144]	; 8fc0 <va_printk+0x2cc>
    8f2c:	e5933000 	ldr	r3, [r3]
    8f30:	e59d000c 	ldr	r0, [sp, #12]
    8f34:	e12fff33 	blx	r3
    8f38:	ebfffead 	bl	89f4 <rpi_reset_putc>
    8f3c:	e59f0080 	ldr	r0, [pc, #128]	; 8fc4 <va_printk+0x2d0>
    8f40:	e59f1068 	ldr	r1, [pc, #104]	; 8fb0 <va_printk+0x2bc>
    8f44:	e59f2068 	ldr	r2, [pc, #104]	; 8fb4 <va_printk+0x2c0>
    8f48:	e3a030bf 	mov	r3, #191	; 0xbf
    8f4c:	ebfffe8d 	bl	8988 <printk>
    8f50:	eb000024 	bl	8fe8 <clean_reboot>
    8f54:	e2866001 	add	r6, r6, #1
    8f58:	ea000002 	b	8f68 <va_printk+0x274>
    8f5c:	e2800001 	add	r0, r0, #1
    8f60:	e5c43000 	strb	r3, [r4]
    8f64:	e2844001 	add	r4, r4, #1
    8f68:	e1540008 	cmp	r4, r8
    8f6c:	2a000002 	bcs	8f7c <va_printk+0x288>
    8f70:	e5d03000 	ldrb	r3, [r0]
    8f74:	e3530000 	cmp	r3, #0
    8f78:	1afffff7 	bne	8f5c <va_printk+0x268>
    8f7c:	e5d63000 	ldrb	r3, [r6]
    8f80:	e3530000 	cmp	r3, #0
    8f84:	0a000001 	beq	8f90 <va_printk+0x29c>
    8f88:	e1540008 	cmp	r4, r8
    8f8c:	3affff64 	bcc	8d24 <va_printk+0x30>
    8f90:	e2840001 	add	r0, r4, #1
    8f94:	e3a03000 	mov	r3, #0
    8f98:	e5c43000 	strb	r3, [r4]
    8f9c:	e06b0000 	rsb	r0, fp, r0
    8fa0:	e28dd094 	add	sp, sp, #148	; 0x94
    8fa4:	e8bd8ff0 	pop	{r4, r5, r6, r7, r8, r9, sl, fp, pc}
    8fa8:	00009a5c 	andeq	r9, r0, ip, asr sl
    8fac:	000095f4 	strdeq	r9, [r0], -r4
    8fb0:	00009a18 	andeq	r9, r0, r8, lsl sl
    8fb4:	00009a0c 	andeq	r9, r0, ip, lsl #20
    8fb8:	00009a68 	andeq	r9, r0, r8, ror #20
    8fbc:	00009a90 	muleq	r0, r0, sl
    8fc0:	0000959c 	muleq	r0, ip, r5
    8fc4:	00009ac0 	andeq	r9, r0, r0, asr #21

00008fc8 <enable_cache>:
    8fc8:	ee113f10 	mrc	15, 0, r3, cr1, cr0, {0}
    8fcc:	e3833b06 	orr	r3, r3, #6144	; 0x1800
    8fd0:	ee013f10 	mcr	15, 0, r3, cr1, cr0, {0}
    8fd4:	e12fff1e 	bx	lr

00008fd8 <disable_cache>:
    8fd8:	ee113f10 	mrc	15, 0, r3, cr1, cr0, {0}
    8fdc:	e3c33b06 	bic	r3, r3, #6144	; 0x1800
    8fe0:	ee013f10 	mcr	15, 0, r3, cr1, cr0, {0}
    8fe4:	e12fff1e 	bx	lr

00008fe8 <clean_reboot>:
    8fe8:	e92d4008 	push	{r3, lr}
    8fec:	eb00004a 	bl	911c <reboot_handler>
    8ff0:	e59f3014 	ldr	r3, [pc, #20]	; 900c <clean_reboot+0x24>
    8ff4:	e5933000 	ldr	r3, [r3]
    8ff8:	e59f0010 	ldr	r0, [pc, #16]	; 9010 <clean_reboot+0x28>
    8ffc:	e12fff33 	blx	r3
    9000:	e3a00064 	mov	r0, #100	; 0x64
    9004:	eb000099 	bl	9270 <delay_ms>
    9008:	eb00006a 	bl	91b8 <rpi_reboot>
    900c:	0000959c 	muleq	r0, ip, r5
    9010:	00009ae0 	andeq	r9, r0, r0, ror #21

00009014 <_cstart>:
    9014:	e92d4008 	push	{r3, lr}
    9018:	e59f3024 	ldr	r3, [pc, #36]	; 9044 <_cstart+0x30>
    901c:	e59f2024 	ldr	r2, [pc, #36]	; 9048 <_cstart+0x34>
    9020:	e3a01000 	mov	r1, #0
    9024:	ea000001 	b	9030 <_cstart+0x1c>
    9028:	e5831000 	str	r1, [r3]
    902c:	e2833004 	add	r3, r3, #4
    9030:	e1530002 	cmp	r3, r2
    9034:	3afffffb 	bcc	9028 <_cstart+0x14>
    9038:	eb000036 	bl	9118 <cstart_handler>
    903c:	ebfffcce 	bl	837c <notmain>
    9040:	ebffffe8 	bl	8fe8 <clean_reboot>
    9044:	00009c04 	andeq	r9, r0, r4, lsl #24
    9048:	0000a028 	andeq	sl, r0, r8, lsr #32

0000904c <fast_interrupt_vector>:
    904c:	e52de004 	push	{lr}		; (str lr, [sp, #-4]!)
    9050:	e24dd00c 	sub	sp, sp, #12
    9054:	e1a04000 	mov	r4, r0
    9058:	ebfffe65 	bl	89f4 <rpi_reset_putc>
    905c:	e59f301c 	ldr	r3, [pc, #28]	; 9080 <fast_interrupt_vector+0x34>
    9060:	e58d3000 	str	r3, [sp]
    9064:	e58d4004 	str	r4, [sp, #4]
    9068:	e59f0014 	ldr	r0, [pc, #20]	; 9084 <fast_interrupt_vector+0x38>
    906c:	e59f1014 	ldr	r1, [pc, #20]	; 9088 <fast_interrupt_vector+0x3c>
    9070:	e59f2014 	ldr	r2, [pc, #20]	; 908c <fast_interrupt_vector+0x40>
    9074:	e3a03002 	mov	r3, #2
    9078:	ebfffe42 	bl	8988 <printk>
    907c:	ebffffd9 	bl	8fe8 <clean_reboot>
    9080:	00009b64 	andeq	r9, r0, r4, ror #22
    9084:	00009b04 	andeq	r9, r0, r4, lsl #22
    9088:	00009b40 	andeq	r9, r0, r0, asr #22
    908c:	00009aec 	andeq	r9, r0, ip, ror #21

00009090 <reset_vector>:
    9090:	e52de004 	push	{lr}		; (str lr, [sp, #-4]!)
    9094:	e24dd00c 	sub	sp, sp, #12
    9098:	e1a04000 	mov	r4, r0
    909c:	ebfffe54 	bl	89f4 <rpi_reset_putc>
    90a0:	e59f301c 	ldr	r3, [pc, #28]	; 90c4 <reset_vector+0x34>
    90a4:	e58d3000 	str	r3, [sp]
    90a8:	e58d4004 	str	r4, [sp, #4]
    90ac:	e59f0014 	ldr	r0, [pc, #20]	; 90c8 <reset_vector+0x38>
    90b0:	e59f1014 	ldr	r1, [pc, #20]	; 90cc <reset_vector+0x3c>
    90b4:	e59f2014 	ldr	r2, [pc, #20]	; 90d0 <reset_vector+0x40>
    90b8:	e3a03002 	mov	r3, #2
    90bc:	ebfffe31 	bl	8988 <printk>
    90c0:	ebffffc8 	bl	8fe8 <clean_reboot>
    90c4:	00009ba0 	andeq	r9, r0, r0, lsr #23
    90c8:	00009b04 	andeq	r9, r0, r4, lsl #22
    90cc:	00009b7c 	andeq	r9, r0, ip, ror fp
    90d0:	00009b6c 	andeq	r9, r0, ip, ror #22

000090d4 <undefined_instruction_vector>:
    90d4:	e52de004 	push	{lr}		; (str lr, [sp, #-4]!)
    90d8:	e24dd00c 	sub	sp, sp, #12
    90dc:	e1a04000 	mov	r4, r0
    90e0:	ebfffe43 	bl	89f4 <rpi_reset_putc>
    90e4:	e59f301c 	ldr	r3, [pc, #28]	; 9108 <undefined_instruction_vector+0x34>
    90e8:	e58d3000 	str	r3, [sp]
    90ec:	e58d4004 	str	r4, [sp, #4]
    90f0:	e59f0014 	ldr	r0, [pc, #20]	; 910c <undefined_instruction_vector+0x38>
    90f4:	e59f1014 	ldr	r1, [pc, #20]	; 9110 <undefined_instruction_vector+0x3c>
    90f8:	e59f2014 	ldr	r2, [pc, #20]	; 9114 <undefined_instruction_vector+0x40>
    90fc:	e3a03002 	mov	r3, #2
    9100:	ebfffe20 	bl	8988 <printk>
    9104:	ebffffb7 	bl	8fe8 <clean_reboot>
    9108:	00009bf4 	strdeq	r9, [r0], -r4
    910c:	00009b04 	andeq	r9, r0, r4, lsl #22
    9110:	00009bc8 	andeq	r9, r0, r8, asr #23
    9114:	00009ba8 	andeq	r9, r0, r8, lsr #23

00009118 <cstart_handler>:
    9118:	e12fff1e 	bx	lr

0000911c <reboot_handler>:
    911c:	e12fff1e 	bx	lr

00009120 <int_init>:
    9120:	e92d4008 	push	{r3, lr}
    9124:	eb00005b 	bl	9298 <dev_barrier>
    9128:	e59f004c 	ldr	r0, [pc, #76]	; 917c <int_init+0x5c>
    912c:	e3e01000 	mvn	r1, #0
    9130:	eb000060 	bl	92b8 <PUT32>
    9134:	e59f0044 	ldr	r0, [pc, #68]	; 9180 <int_init+0x60>
    9138:	e3e01000 	mvn	r1, #0
    913c:	eb00005d 	bl	92b8 <PUT32>
    9140:	eb000054 	bl	9298 <dev_barrier>
    9144:	e59f3038 	ldr	r3, [pc, #56]	; 9184 <int_init+0x64>
    9148:	e59f0038 	ldr	r0, [pc, #56]	; 9188 <int_init+0x68>
    914c:	e0630000 	rsb	r0, r3, r0
    9150:	e1a00140 	asr	r0, r0, #2
    9154:	e3a03000 	mov	r3, #0
    9158:	e59fc024 	ldr	ip, [pc, #36]	; 9184 <int_init+0x64>
    915c:	ea000003 	b	9170 <int_init+0x50>
    9160:	e1a02103 	lsl	r2, r3, #2
    9164:	e79c1103 	ldr	r1, [ip, r3, lsl #2]
    9168:	e5821000 	str	r1, [r2]
    916c:	e2833001 	add	r3, r3, #1
    9170:	e1530000 	cmp	r3, r0
    9174:	3afffff9 	bcc	9160 <int_init+0x40>
    9178:	e8bd8008 	pop	{r3, pc}
    917c:	2000b21c 	andcs	fp, r0, ip, lsl r2
    9180:	2000b220 	andcs	fp, r0, r0, lsr #4
    9184:	00008870 	andeq	r8, r0, r0, ror r8
    9188:	000088b0 			; <UNDEFINED> instruction: 0x000088b0

0000918c <at_user_level>:
    918c:	e10f0000 	mrs	r0, CPSR
    9190:	e200001f 	and	r0, r0, #31
    9194:	e3500010 	cmp	r0, #16
    9198:	13a00000 	movne	r0, #0
    919c:	03a00001 	moveq	r0, #1
    91a0:	e12fff1e 	bx	lr

000091a4 <set_user_level>:
    91a4:	e10f3000 	mrs	r3, CPSR
    91a8:	e3c3301f 	bic	r3, r3, #31
    91ac:	e3833010 	orr	r3, r3, #16
    91b0:	e129f003 	msr	CPSR_fc, r3
    91b4:	e12fff1e 	bx	lr

000091b8 <rpi_reboot>:
    91b8:	e92d4008 	push	{r3, lr}
    91bc:	ebfffff2 	bl	918c <at_user_level>
    91c0:	e3500000 	cmp	r0, #0
    91c4:	0a000000 	beq	91cc <rpi_reboot+0x14>
    91c8:	ebfffff5 	bl	91a4 <set_user_level>
    91cc:	e3a0001e 	mov	r0, #30
    91d0:	eb000026 	bl	9270 <delay_ms>
    91d4:	e59f0014 	ldr	r0, [pc, #20]	; 91f0 <rpi_reboot+0x38>
    91d8:	e59f1014 	ldr	r1, [pc, #20]	; 91f4 <rpi_reboot+0x3c>
    91dc:	eb000035 	bl	92b8 <PUT32>
    91e0:	e59f0010 	ldr	r0, [pc, #16]	; 91f8 <rpi_reboot+0x40>
    91e4:	e59f1010 	ldr	r1, [pc, #16]	; 91fc <rpi_reboot+0x44>
    91e8:	eb000032 	bl	92b8 <PUT32>
    91ec:	eafffffe 	b	91ec <rpi_reboot+0x34>
    91f0:	20100024 	andscs	r0, r0, r4, lsr #32
    91f4:	5a000001 	bpl	9200 <delay_cycles>
    91f8:	2010001c 	andscs	r0, r0, ip, lsl r0
    91fc:	5a000020 	bpl	9284 <delay_sec>

00009200 <delay_cycles>:
    9200:	ea000001 	b	920c <delay_cycles+0xc>
    9204:	e2811000 	add	r1, r1, #0
    9208:	e1a00003 	mov	r0, r3
    920c:	e2403001 	sub	r3, r0, #1
    9210:	e3500000 	cmp	r0, #0
    9214:	1afffffa 	bne	9204 <delay_cycles+0x4>
    9218:	e12fff1e 	bx	lr

0000921c <timer_get_usec_raw>:
    921c:	e92d4008 	push	{r3, lr}
    9220:	e59f0004 	ldr	r0, [pc, #4]	; 922c <timer_get_usec_raw+0x10>
    9224:	eb00002f 	bl	92e8 <GET32>
    9228:	e8bd8008 	pop	{r3, pc}
    922c:	20003004 	andcs	r3, r0, r4

00009230 <timer_get_usec>:
    9230:	e92d4010 	push	{r4, lr}
    9234:	eb000017 	bl	9298 <dev_barrier>
    9238:	ebfffff7 	bl	921c <timer_get_usec_raw>
    923c:	e1a04000 	mov	r4, r0
    9240:	eb000014 	bl	9298 <dev_barrier>
    9244:	e1a00004 	mov	r0, r4
    9248:	e8bd8010 	pop	{r4, pc}

0000924c <delay_us>:
    924c:	e92d4038 	push	{r3, r4, r5, lr}
    9250:	e1a05000 	mov	r5, r0
    9254:	ebfffff5 	bl	9230 <timer_get_usec>
    9258:	e1a04000 	mov	r4, r0
    925c:	ebfffff3 	bl	9230 <timer_get_usec>
    9260:	e0640000 	rsb	r0, r4, r0
    9264:	e1500005 	cmp	r0, r5
    9268:	3afffffb 	bcc	925c <delay_us+0x10>
    926c:	e8bd8038 	pop	{r3, r4, r5, pc}

00009270 <delay_ms>:
    9270:	e92d4008 	push	{r3, lr}
    9274:	e3a03ffa 	mov	r3, #1000	; 0x3e8
    9278:	e0000093 	mul	r0, r3, r0
    927c:	ebfffff2 	bl	924c <delay_us>
    9280:	e8bd8008 	pop	{r3, pc}

00009284 <delay_sec>:
    9284:	e92d4008 	push	{r3, lr}
    9288:	e3a03ffa 	mov	r3, #1000	; 0x3e8
    928c:	e0000093 	mul	r0, r3, r0
    9290:	ebfffff6 	bl	9270 <delay_ms>
    9294:	e8bd8008 	pop	{r3, pc}

00009298 <dev_barrier>:
    9298:	ea000002 	b	92a8 <dsb>

0000929c <dmb>:
    929c:	e3a00000 	mov	r0, #0
    92a0:	ee070fba 	mcr	15, 0, r0, cr7, cr10, {5}
    92a4:	e12fff1e 	bx	lr

000092a8 <dsb>:
    92a8:	ee070f9a 	mcr	15, 0, r0, cr7, cr10, {4}
    92ac:	e12fff1e 	bx	lr

000092b0 <put32>:
    92b0:	e5801000 	str	r1, [r0]
    92b4:	e12fff1e 	bx	lr

000092b8 <PUT32>:
    92b8:	e5801000 	str	r1, [r0]
    92bc:	e12fff1e 	bx	lr

000092c0 <put16>:
    92c0:	e1c010b0 	strh	r1, [r0]
    92c4:	e12fff1e 	bx	lr

000092c8 <PUT16>:
    92c8:	e1c010b0 	strh	r1, [r0]
    92cc:	e12fff1e 	bx	lr

000092d0 <put8>:
    92d0:	e5c01000 	strb	r1, [r0]
    92d4:	e12fff1e 	bx	lr

000092d8 <PUT8>:
    92d8:	e5c01000 	strb	r1, [r0]
    92dc:	e12fff1e 	bx	lr

000092e0 <get32>:
    92e0:	e5900000 	ldr	r0, [r0]
    92e4:	e12fff1e 	bx	lr

000092e8 <GET32>:
    92e8:	e5900000 	ldr	r0, [r0]
    92ec:	e12fff1e 	bx	lr

000092f0 <GETPC>:
    92f0:	e1a0000e 	mov	r0, lr
    92f4:	e12fff1e 	bx	lr

000092f8 <dummy>:
    92f8:	e12fff1e 	bx	lr

000092fc <or_in32>:
    92fc:	e92d4070 	push	{r4, r5, r6, lr}
    9300:	e1a04000 	mov	r4, r0
    9304:	e1a05001 	mov	r5, r1
    9308:	ebfffff4 	bl	92e0 <get32>
    930c:	e1801005 	orr	r1, r0, r5
    9310:	e1a00004 	mov	r0, r4
    9314:	ebffffe5 	bl	92b0 <put32>
    9318:	e8bd8070 	pop	{r4, r5, r6, pc}

0000931c <uart_init>:
    931c:	e92d4010 	push	{r4, lr}
    9320:	e3a01002 	mov	r1, #2
    9324:	e3a0000e 	mov	r0, #14
    9328:	eb000051 	bl	9474 <gpio_set_function>
    932c:	e3a01002 	mov	r1, #2
    9330:	e3a0000f 	mov	r0, #15
    9334:	eb00004e 	bl	9474 <gpio_set_function>
    9338:	ebffffd6 	bl	9298 <dev_barrier>
    933c:	e3a01001 	mov	r1, #1
    9340:	e59f0064 	ldr	r0, [pc, #100]	; 93ac <uart_init+0x90>
    9344:	ebffffec 	bl	92fc <or_in32>
    9348:	ebffffd2 	bl	9298 <dev_barrier>
    934c:	e59f405c 	ldr	r4, [pc, #92]	; 93b0 <uart_init+0x94>
    9350:	e3a01000 	mov	r1, #0
    9354:	e1a00004 	mov	r0, r4
    9358:	ebffffd4 	bl	92b0 <put32>
    935c:	e3a01000 	mov	r1, #0
    9360:	e59f004c 	ldr	r0, [pc, #76]	; 93b4 <uart_init+0x98>
    9364:	ebffffd1 	bl	92b0 <put32>
    9368:	e3a01003 	mov	r1, #3
    936c:	e59f0044 	ldr	r0, [pc, #68]	; 93b8 <uart_init+0x9c>
    9370:	ebffffce 	bl	92b0 <put32>
    9374:	e3a01000 	mov	r1, #0
    9378:	e59f003c 	ldr	r0, [pc, #60]	; 93bc <uart_init+0xa0>
    937c:	ebffffcb 	bl	92b0 <put32>
    9380:	e3a010c7 	mov	r1, #199	; 0xc7
    9384:	e59f0034 	ldr	r0, [pc, #52]	; 93c0 <uart_init+0xa4>
    9388:	ebffffc8 	bl	92b0 <put32>
    938c:	e59f1030 	ldr	r1, [pc, #48]	; 93c4 <uart_init+0xa8>
    9390:	e59f0030 	ldr	r0, [pc, #48]	; 93c8 <uart_init+0xac>
    9394:	ebffffc5 	bl	92b0 <put32>
    9398:	e3a01003 	mov	r1, #3
    939c:	e1a00004 	mov	r0, r4
    93a0:	ebffffc2 	bl	92b0 <put32>
    93a4:	ebffffbb 	bl	9298 <dev_barrier>
    93a8:	e8bd8010 	pop	{r4, pc}
    93ac:	20215004 	eorcs	r5, r1, r4
    93b0:	20215060 	eorcs	r5, r1, r0, rrx
    93b4:	20215044 	eorcs	r5, r1, r4, asr #32
    93b8:	2021504c 	eorcs	r5, r1, ip, asr #32
    93bc:	20215050 	eorcs	r5, r1, r0, asr r0
    93c0:	20215048 	eorcs	r5, r1, r8, asr #32
    93c4:	0000010e 	andeq	r0, r0, lr, lsl #2
    93c8:	20215068 	eorcs	r5, r1, r8, rrx

000093cc <uart_can_getc>:
    93cc:	e92d4010 	push	{r4, lr}
    93d0:	e59f0008 	ldr	r0, [pc, #8]	; 93e0 <uart_can_getc+0x14>
    93d4:	ebffffc1 	bl	92e0 <get32>
    93d8:	e2000001 	and	r0, r0, #1
    93dc:	e8bd8010 	pop	{r4, pc}
    93e0:	20215064 	eorcs	r5, r1, r4, rrx

000093e4 <uart_can_putc>:
    93e4:	e92d4010 	push	{r4, lr}
    93e8:	e59f0010 	ldr	r0, [pc, #16]	; 9400 <uart_can_putc+0x1c>
    93ec:	ebffffbb 	bl	92e0 <get32>
    93f0:	e3100002 	tst	r0, #2
    93f4:	13a00001 	movne	r0, #1
    93f8:	03a00000 	moveq	r0, #0
    93fc:	e8bd8010 	pop	{r4, pc}
    9400:	20215064 	eorcs	r5, r1, r4, rrx

00009404 <uart_getc>:
    9404:	e92d4010 	push	{r4, lr}
    9408:	ebffffa2 	bl	9298 <dev_barrier>
    940c:	ebffffee 	bl	93cc <uart_can_getc>
    9410:	e3500000 	cmp	r0, #0
    9414:	0afffffc 	beq	940c <uart_getc+0x8>
    9418:	e59f0010 	ldr	r0, [pc, #16]	; 9430 <uart_getc+0x2c>
    941c:	ebffffaf 	bl	92e0 <get32>
    9420:	e6ef4070 	uxtb	r4, r0
    9424:	ebffff9b 	bl	9298 <dev_barrier>
    9428:	e1a00004 	mov	r0, r4
    942c:	e8bd8010 	pop	{r4, pc}
    9430:	20215040 	eorcs	r5, r1, r0, asr #32

00009434 <uart_putc>:
    9434:	e92d4010 	push	{r4, lr}
    9438:	e1a04000 	mov	r4, r0
    943c:	ebffff95 	bl	9298 <dev_barrier>
    9440:	ebffffe7 	bl	93e4 <uart_can_putc>
    9444:	e3500000 	cmp	r0, #0
    9448:	0afffffc 	beq	9440 <uart_putc+0xc>
    944c:	e6ef1074 	uxtb	r1, r4
    9450:	e59f0008 	ldr	r0, [pc, #8]	; 9460 <uart_putc+0x2c>
    9454:	ebffff95 	bl	92b0 <put32>
    9458:	ebffff8e 	bl	9298 <dev_barrier>
    945c:	e8bd8010 	pop	{r4, pc}
    9460:	20215040 	eorcs	r5, r1, r0, asr #32

00009464 <uart_has_data>:
    9464:	e92d4010 	push	{r4, lr}
    9468:	ebffff8a 	bl	9298 <dev_barrier>
    946c:	ebffffd6 	bl	93cc <uart_can_getc>
    9470:	e8bd8010 	pop	{r4, pc}

00009474 <gpio_set_function>:
    9474:	e350001f 	cmp	r0, #31
    9478:	812fff1e 	bxhi	lr
    947c:	e3d13007 	bics	r3, r1, #7
    9480:	112fff1e 	bxne	lr
    9484:	e92d4070 	push	{r4, r5, r6, lr}
    9488:	e1a05001 	mov	r5, r1
    948c:	e59f3044 	ldr	r3, [pc, #68]	; 94d8 <gpio_set_function+0x64>
    9490:	e0832093 	umull	r2, r3, r3, r0
    9494:	e1a031a3 	lsr	r3, r3, #3
    9498:	e1a06003 	mov	r6, r3
    949c:	e0833103 	add	r3, r3, r3, lsl #2
    94a0:	e1a02083 	lsl	r2, r3, #1
    94a4:	e0403002 	sub	r3, r0, r2
    94a8:	e0834083 	add	r4, r3, r3, lsl #1
    94ac:	e2866302 	add	r6, r6, #134217728	; 0x8000000
    94b0:	e2866702 	add	r6, r6, #524288	; 0x80000
    94b4:	e1a06106 	lsl	r6, r6, #2
    94b8:	e1a00006 	mov	r0, r6
    94bc:	ebffff89 	bl	92e8 <GET32>
    94c0:	e3a01007 	mov	r1, #7
    94c4:	e1c01411 	bic	r1, r0, r1, lsl r4
    94c8:	e1811415 	orr	r1, r1, r5, lsl r4
    94cc:	e1a00006 	mov	r0, r6
    94d0:	ebffff78 	bl	92b8 <PUT32>
    94d4:	e8bd8070 	pop	{r4, r5, r6, pc}
    94d8:	cccccccd 	stclgt	12, cr12, [ip], {205}	; 0xcd

000094dc <gpio_set_output>:
    94dc:	e92d4010 	push	{r4, lr}
    94e0:	e3a01001 	mov	r1, #1
    94e4:	ebffffe2 	bl	9474 <gpio_set_function>
    94e8:	e8bd8010 	pop	{r4, pc}

000094ec <gpio_set_on>:
    94ec:	e350001f 	cmp	r0, #31
    94f0:	812fff1e 	bxhi	lr
    94f4:	e92d4010 	push	{r4, lr}
    94f8:	e3a01001 	mov	r1, #1
    94fc:	e1a01011 	lsl	r1, r1, r0
    9500:	e59f0004 	ldr	r0, [pc, #4]	; 950c <gpio_set_on+0x20>
    9504:	ebffff6b 	bl	92b8 <PUT32>
    9508:	e8bd8010 	pop	{r4, pc}
    950c:	2020001c 	eorcs	r0, r0, ip, lsl r0

00009510 <gpio_set_off>:
    9510:	e350001f 	cmp	r0, #31
    9514:	812fff1e 	bxhi	lr
    9518:	e92d4010 	push	{r4, lr}
    951c:	e3a01001 	mov	r1, #1
    9520:	e1a01011 	lsl	r1, r1, r0
    9524:	e59f0004 	ldr	r0, [pc, #4]	; 9530 <gpio_set_off+0x20>
    9528:	ebffff62 	bl	92b8 <PUT32>
    952c:	e8bd8010 	pop	{r4, pc}
    9530:	20200028 	eorcs	r0, r0, r8, lsr #32

00009534 <gpio_set_input>:
    9534:	e92d4010 	push	{r4, lr}
    9538:	e3a01000 	mov	r1, #0
    953c:	ebffffcc 	bl	9474 <gpio_set_function>
    9540:	e8bd8010 	pop	{r4, pc}

00009544 <gpio_write>:
    9544:	e92d4010 	push	{r4, lr}
    9548:	e3510000 	cmp	r1, #0
    954c:	1a000001 	bne	9558 <gpio_write+0x14>
    9550:	ebffffee 	bl	9510 <gpio_set_off>
    9554:	e8bd8010 	pop	{r4, pc}
    9558:	ebffffe3 	bl	94ec <gpio_set_on>
    955c:	e8bd8010 	pop	{r4, pc}

00009560 <gpio_read>:
    9560:	e350001f 	cmp	r0, #31
    9564:	8a000007 	bhi	9588 <gpio_read+0x28>
    9568:	e92d4010 	push	{r4, lr}
    956c:	e200401f 	and	r4, r0, #31
    9570:	e59f3018 	ldr	r3, [pc, #24]	; 9590 <gpio_read+0x30>
    9574:	e08302a0 	add	r0, r3, r0, lsr #5
    9578:	ebffff5a 	bl	92e8 <GET32>
    957c:	e1a00430 	lsr	r0, r0, r4
    9580:	e2000001 	and	r0, r0, #1
    9584:	e8bd8010 	pop	{r4, pc}
    9588:	e3e00000 	mvn	r0, #0
    958c:	e12fff1e 	bx	lr
    9590:	20200034 	eorcs	r0, r0, r4, lsr r0

00009594 <__code_end__>:
    9594:	00000000 	andeq	r0, r0, r0

Disassembly of section .data:

00009598 <__data_start__>:
    9598:	000089e0 	andeq	r8, r0, r0, ror #19

0000959c <putk>:
    959c:	00008a1c 	andeq	r8, r0, ip, lsl sl

Disassembly of section .rodata:

000095a0 <__FUNCTION__.4394-0x290>:
    95a0:	52455355 	subpl	r5, r5, #1409286145	; 0x54000001
    95a4:	444f4d20 	strbmi	r4, [pc], #-3360	; 95ac <__data_end__+0xc>
    95a8:	00000045 	andeq	r0, r0, r5, asr #32
    95ac:	20514946 	subscs	r4, r1, r6, asr #18
    95b0:	45444f4d 	strbmi	r4, [r4, #-3917]	; 0xf4d
    95b4:	00000000 	andeq	r0, r0, r0
    95b8:	20515249 	subscs	r5, r1, r9, asr #4
    95bc:	45444f4d 	strbmi	r4, [r4, #-3917]	; 0xf4d
    95c0:	00000000 	andeq	r0, r0, r0
    95c4:	45505553 	ldrbmi	r5, [r0, #-1363]	; 0x553
    95c8:	4f4d2052 	svcmi	0x004d2052
    95cc:	00004544 	andeq	r4, r0, r4, asr #10
    95d0:	524f4241 	subpl	r4, pc, #268435460	; 0x10000004
    95d4:	4f4d2054 	svcmi	0x004d2054
    95d8:	00004544 	andeq	r4, r0, r4, asr #10
    95dc:	45444e55 	strbmi	r4, [r4, #-3669]	; 0xe55
    95e0:	4f4d2046 	svcmi	0x004d2046
    95e4:	00004544 	andeq	r4, r0, r4, asr #10
    95e8:	20535953 	subscs	r5, r3, r3, asr r9
    95ec:	45444f4d 	strbmi	r4, [r4, #-3917]	; 0xf4d
    95f0:	00000000 	andeq	r0, r0, r0
    95f4:	494e4150 	stmdbmi	lr, {r4, r6, r8, lr}^
    95f8:	73253a43 	teqvc	r5, #274432	; 0x43000
    95fc:	3a73253a 	bcc	1cd2aec <__bss_end__+0x1cc8ac4>
    9600:	253a6425 	ldrcs	r6, [sl, #-1061]!	; 0x425
    9604:	00000a73 	andeq	r0, r0, r3, ror sl
    9608:	70632f2e 	rsbvc	r2, r3, lr, lsr #30
    960c:	752d7273 	strvc	r7, [sp, #-627]!	; 0x273
    9610:	2e6c6974 	mcrcs	9, 3, r6, cr12, cr4, {3}
    9614:	00000068 	andeq	r0, r0, r8, rrx
    9618:	65646f6d 	strbvs	r6, [r4, #-3949]!	; 0xf6d
    961c:	67656c5f 			; <UNDEFINED> instruction: 0x67656c5f
    9620:	6d286c61 	stcvs	12, cr6, [r8, #-388]!	; 0xfffffe7c
    9624:	2965646f 	stmdbcs	r5!, {r0, r1, r2, r3, r5, r6, sl, sp, lr}^
    9628:	00000000 	andeq	r0, r0, r0
    962c:	494e4150 	stmdbmi	lr, {r4, r6, r8, lr}^
    9630:	73253a43 	teqvc	r5, #274432	; 0x43000
    9634:	3a73253a 	bcc	1cd2b24 <__bss_end__+0x1cc8afc>
    9638:	753a6425 	ldrvc	r6, [sl, #-1061]!	; 0x425
    963c:	6f6e6b6e 	svcvs	0x006e6b6e
    9640:	6d206e77 	stcvs	14, cr6, [r0, #-476]!	; 0xfffffe24
    9644:	3a65646f 	bcc	1962808 <__bss_end__+0x19587e0>
    9648:	78253c20 	stmdavc	r5!, {r5, sl, fp, ip, sp}
    964c:	000a0a3e 	andeq	r0, sl, lr, lsr sl
    9650:	74736574 	ldrbtvc	r6, [r3], #-1396	; 0x574
    9654:	36312f73 	shsub16cc	r2, r1, r3
    9658:	7261702d 	rsbvc	r7, r1, #45	; 0x2d
    965c:	742d3274 	strtvc	r3, [sp], #-628	; 0x274
    9660:	31747365 	cmncc	r4, r5, ror #6
    9664:	0000632e 	andeq	r6, r0, lr, lsr #6
    9668:	646e6168 	strbtvs	r6, [lr], #-360	; 0x168
    966c:	3d20656c 	cfstr32cc	mvfx6, [r0, #-432]!	; 0xfffffe50
    9670:	7865203d 	stmdavc	r5!, {r0, r2, r3, r4, r5, sp}^
    9674:	74636570 	strbtvc	r6, [r3], #-1392	; 0x570
    9678:	685f6465 	ldmdavs	pc, {r0, r2, r5, r6, sl, sp, lr}^	; <UNPREDICTABLE>
    967c:	6c646e61 	stclvs	14, cr6, [r4], #-388	; 0xfffffe7c
    9680:	00000065 	andeq	r0, r0, r5, rrx
    9684:	253a7325 	ldrcs	r7, [sl, #-805]!	; 0x325
    9688:	64253a73 	strtvs	r3, [r5], #-2675	; 0xa73
    968c:	6572703a 	ldrbvs	r7, [r2, #-58]!	; 0x3a
    9690:	63746566 	cmnvs	r4, #427819008	; 0x19800000
    9694:	62612068 	rsbvs	r2, r1, #104	; 0x68
    9698:	2074726f 	rsbscs	r7, r4, pc, ror #4
    969c:	25207461 	strcs	r7, [r0, #-1121]!	; 0x461
    96a0:	75202c70 	strvc	r2, [r0, #-3184]!	; 0xc70
    96a4:	5f726573 	svcpl	0x00726573
    96a8:	74736574 	ldrbtvc	r6, [r3], #-1396	; 0x574
    96ac:	25203d20 	strcs	r3, [r0, #-3360]!	; 0xd20
    96b0:	00000a70 	andeq	r0, r0, r0, ror sl
    96b4:	494e4150 	stmdbmi	lr, {r4, r6, r8, lr}^
    96b8:	73253a43 	teqvc	r5, #274432	; 0x43000
    96bc:	3a73253a 	bcc	1cd2bac <__bss_end__+0x1cc8b84>
    96c0:	693a6425 	ldmdbvs	sl!, {r0, r2, r5, sl, sp, lr}
    96c4:	736f706d 	cmnvc	pc, #109	; 0x6d
    96c8:	6c626973 	stclvs	9, cr6, [r2], #-460	; 0xfffffe34
    96cc:	73203a65 	teqvc	r0, #413696	; 0x65000
    96d0:	6c756f68 	ldclvs	15, cr6, [r5], #-416	; 0xfffffe60
    96d4:	65672064 	strbvs	r2, [r7, #-100]!	; 0x64
    96d8:	6f6e2074 	svcvs	0x006e2074
    96dc:	68746f20 	ldmdavs	r4!, {r5, r8, r9, sl, fp, sp, lr}^
    96e0:	66207265 	strtvs	r7, [r0], -r5, ror #4
    96e4:	746c7561 	strbtvc	r7, [ip], #-1377	; 0x561
    96e8:	000a0a73 	andeq	r0, sl, r3, ror sl
    96ec:	20746e63 	rsbscs	r6, r4, r3, ror #28
    96f0:	4e203d3d 	mcrmi	13, 1, r3, cr0, cr13, {1}
    96f4:	00000000 	andeq	r0, r0, r0
    96f8:	656e6f64 	strbvs	r6, [lr, #-3940]!	; 0xf64
    96fc:	6e697320 	cdpvs	3, 6, cr7, cr9, cr0, {1}
    9700:	20656c67 	rsbcs	r6, r5, r7, ror #24
    9704:	70657473 	rsbvc	r7, r5, r3, ror r4
    9708:	676e6970 			; <UNDEFINED> instruction: 0x676e6970
    970c:	6e63203a 	mcrvs	0, 3, r2, cr3, cr10, {1}
    9710:	64253d74 	strtvs	r3, [r5], #-3444	; 0xd74
    9714:	000a2121 	andeq	r2, sl, r1, lsr #2
    9718:	253a7325 	ldrcs	r7, [sl, #-805]!	; 0x325
    971c:	64253a73 	strtvs	r3, [r5], #-2675	; 0xa73
    9720:	7465733a 	strbtvc	r7, [r5], #-826	; 0x33a
    9724:	676e6974 			; <UNDEFINED> instruction: 0x676e6974
    9728:	20707520 	rsbscs	r7, r0, r0, lsr #10
    972c:	696d2061 	stmdbvs	sp!, {r0, r5, r6, sp}^
    9730:	74616d73 	strbtvc	r6, [r1], #-3443	; 0xd73
    9734:	6f206863 	svcvs	0x00206863
    9738:	7025206e 	eorvc	r2, r5, lr, rrx
    973c:	0000000a 	andeq	r0, r0, sl
    9740:	253a7325 	ldrcs	r7, [sl, #-805]!	; 0x325
    9744:	64253a73 	strtvs	r3, [r5], #-2675	; 0xa73
    9748:	6e6f643a 	mcrvs	4, 3, r6, cr15, cr10, {1}
    974c:	65732065 	ldrbvs	r2, [r3, #-101]!	; 0x65
    9750:	6e697474 	mcrvs	4, 3, r7, cr9, cr4, {3}
    9754:	70752067 	rsbsvc	r2, r5, r7, rrx
    9758:	6d206120 	stfvss	f6, [r0, #-128]!	; 0xffffff80
    975c:	616d7369 	cmnvs	sp, r9, ror #6
    9760:	20686374 	rsbcs	r6, r8, r4, ror r3
    9764:	25206e6f 	strcs	r6, [r0, #-3695]!	; 0xe6f
    9768:	00000a70 	andeq	r0, r0, r0, ror sl
    976c:	72727563 	rsbsvc	r7, r2, #415236096	; 0x18c00000
    9770:	20746e65 	rsbscs	r6, r4, r5, ror #28
    9774:	65646f6d 	strbvs	r6, [r4, #-3949]!	; 0xf6d
    9778:	25203d20 	strcs	r3, [r0, #-3360]!	; 0xd20
    977c:	25282073 	strcs	r2, [r8, #-115]!	; 0x73
    9780:	000a2978 	andeq	r2, sl, r8, ror r9
    9784:	253a7325 	ldrcs	r7, [sl, #-805]!	; 0x325
    9788:	64253a73 	strtvs	r3, [r5], #-2675	; 0xa73
    978c:	6f62613a 	svcvs	0x0062613a
    9790:	74207475 	strtvc	r7, [r0], #-1141	; 0x475
    9794:	6573206f 	ldrbvs	r2, [r3, #-111]!	; 0x6f
    9798:	696d2074 	stmdbvs	sp!, {r2, r4, r5, r6, sp}^
    979c:	74616d73 	strbtvc	r6, [r1], #-3443	; 0xd73
    97a0:	62206863 	eorvs	r6, r0, #6488064	; 0x630000
    97a4:	74706b72 	ldrbtvc	r6, [r0], #-2930	; 0xb72
    97a8:	0000000a 	andeq	r0, r0, sl
    97ac:	253a7325 	ldrcs	r7, [sl, #-805]!	; 0x325
    97b0:	64253a73 	strtvs	r3, [r5], #-2675	; 0xa73
    97b4:	7465733a 	strbtvc	r7, [r5], #-826	; 0x33a
    97b8:	73696d20 	cmnvc	r9, #32, 26	; 0x800
    97bc:	6374616d 	cmnvs	r4, #1073741851	; 0x4000001b
    97c0:	72622068 	rsbvc	r2, r2, #104	; 0x68
    97c4:	0a74706b 	beq	1d25978 <__bss_end__+0x1d1b950>
    97c8:	00000000 	andeq	r0, r0, r0
    97cc:	65707865 	ldrbvs	r7, [r0, #-2149]!	; 0x865
    97d0:	64657463 	strbtvs	r7, [r5], #-1123	; 0x463
    97d4:	646f6d20 	strbtvs	r6, [pc], #-3360	; 97dc <__data_end__+0x23c>
    97d8:	203d2065 	eorscs	r2, sp, r5, rrx
    97dc:	28207325 	stmdacs	r0!, {r0, r2, r5, r8, r9, ip, sp, lr}
    97e0:	0a297825 	beq	a6787c <__bss_end__+0xa5d854>
    97e4:	00000000 	andeq	r0, r0, r0
    97e8:	72737063 	rsbsvc	r7, r3, #99	; 0x63
    97ec:	646c6f5f 	strbtvs	r6, [ip], #-3935	; 0xf5f
    97f0:	203d3d20 	eorscs	r3, sp, r0, lsr #26
    97f4:	72737063 	rsbsvc	r7, r3, #99	; 0x63
    97f8:	7465675f 	strbtvc	r6, [r5], #-1887	; 0x75f
    97fc:	00002928 	andeq	r2, r0, r8, lsr #18
    9800:	43435553 	movtmi	r5, #13651	; 0x3553
    9804:	3a535345 	bcc	14de520 <__bss_end__+0x14d44f8>
    9808:	00000000 	andeq	r0, r0, r0
    980c:	6d617274 	sfmvs	f7, 2, [r1, #-464]!	; 0xfffffe30
    9810:	696c6f70 	stmdbvs	ip!, {r4, r5, r6, r8, r9, sl, fp, sp, lr}^
    9814:	7220656e 	eorvc	r6, r0, #461373440	; 0x1b800000
    9818:	72757465 	rsbsvc	r7, r5, #1694498816	; 0x65000000
    981c:	2064656e 	rsbcs	r6, r4, lr, ror #10
    9820:	63637573 	cmnvs	r3, #482344960	; 0x1cc00000
    9824:	66737365 	ldrbtvs	r7, [r3], -r5, ror #6
    9828:	796c6c75 	stmdbvc	ip!, {r0, r2, r4, r5, r6, sl, fp, sp, lr}^
    982c:	0000000a 	andeq	r0, r0, sl

00009830 <__FUNCTION__.4394>:
    9830:	72657375 	rsbvc	r7, r5, #-738197503	; 0xd4000001
    9834:	7365745f 	cmnvc	r5, #1593835520	; 0x5f000000
    9838:	00000074 	andeq	r0, r0, r4, ror r0

0000983c <__FUNCTION__.4409>:
    983c:	6d746f6e 	ldclvs	15, cr6, [r4, #-440]!	; 0xfffffe48
    9840:	006e6961 	rsbeq	r6, lr, r1, ror #18

00009844 <__FUNCTION__.4404>:
    9844:	676e6973 			; <UNDEFINED> instruction: 0x676e6973
    9848:	735f656c 	cmpvc	pc, #108, 10	; 0x1b000000
    984c:	5f706574 	svcpl	0x00706574
    9850:	646e6168 	strbtvs	r6, [lr], #-360	; 0x168
    9854:	0072656c 	rsbseq	r6, r2, ip, ror #10

00009858 <__FUNCTION__.4375>:
    9858:	65646f6d 	strbvs	r6, [r4, #-3949]!	; 0xf6d
    985c:	7465735f 	strbtvc	r7, [r5], #-863	; 0x35f
    9860:	00000000 	andeq	r0, r0, r0

00009864 <__FUNCTION__.4258>:
    9864:	73746962 	cmnvc	r4, #1605632	; 0x188000
    9868:	726c635f 	rsbvc	r6, ip, #2080374785	; 0x7c000001
    986c:	00000000 	andeq	r0, r0, r0

00009870 <__FUNCTION__.4387>:
    9870:	65646f6d 	strbvs	r6, [r4, #-3949]!	; 0xf6d
    9874:	7274735f 	rsbsvc	r7, r4, #2080374785	; 0x7c000001
    9878:	00000000 	andeq	r0, r0, r0

0000987c <__FUNCTION__.4370>:
    987c:	65646f6d 	strbvs	r6, [r4, #-3949]!	; 0xf6d
    9880:	7465675f 	strbtvc	r6, [r5], #-1887	; 0x75f
    9884:	00000000 	andeq	r0, r0, r0

00009888 <__FUNCTION__.4251>:
    9888:	73746962 	cmnvc	r4, #1605632	; 0x188000
    988c:	7465675f 	strbtvc	r6, [r5], #-1887	; 0x75f
    9890:	00000000 	andeq	r0, r0, r0
    9894:	34317063 	ldrtcc	r7, [r1], #-99	; 0x63
    9898:	6265642d 	rsbvs	r6, r5, #754974720	; 0x2d000000
    989c:	632e6775 	teqvs	lr, #30670848	; 0x1d40000
    98a0:	00000000 	andeq	r0, r0, r0
    98a4:	30726377 	rsbscc	r6, r2, r7, ror r3
    98a8:	6765725f 			; <UNDEFINED> instruction: 0x6765725f
    98ac:	203d3d20 	eorscs	r3, sp, r0, lsr #26
    98b0:	30726377 	rsbscc	r6, r2, r7, ror r3
    98b4:	7465675f 	strbtvc	r6, [r5], #-1887	; 0x75f
    98b8:	00002928 	andeq	r2, r0, r8, lsr #18
    98bc:	494e4150 	stmdbmi	lr, {r4, r6, r8, lr}^
    98c0:	73253a43 	teqvc	r5, #274432	; 0x43000
    98c4:	3a73253a 	bcc	1cd2db4 <__bss_end__+0x1cc8d8c>
    98c8:	693a6425 	ldmdbvs	sl!, {r0, r2, r5, sl, sp, lr}
    98cc:	736f706d 	cmnvc	pc, #109	; 0x6d
    98d0:	6c626973 	stclvs	9, cr6, [r2], #-460	; 0xfffffe34
    98d4:	73203a65 	teqvc	r0, #413696	; 0x65000
    98d8:	6c756f68 	ldclvs	15, cr6, [r5], #-416	; 0xfffffe60
    98dc:	6e6f2064 	cdpvs	0, 6, cr2, cr15, cr4, {3}
    98e0:	6720796c 	strvs	r7, [r0, -ip, ror #18]!
    98e4:	64207465 	strtvs	r7, [r0], #-1125	; 0x465
    98e8:	66617461 	strbtvs	r7, [r1], -r1, ror #8
    98ec:	746c7561 	strbtvc	r7, [ip], #-1377	; 0x561
    98f0:	000a0a73 	andeq	r0, sl, r3, ror sl
    98f4:	34317063 	ldrtcc	r7, [r1], #-99	; 0x63
    98f8:	6265642d 	rsbvs	r6, r5, #754974720	; 0x2d000000
    98fc:	682e6775 	stmdavs	lr!, {r0, r2, r4, r5, r6, r8, r9, sl, sp, lr}
    9900:	00000000 	andeq	r0, r0, r0
    9904:	72616677 	rsbvc	r6, r1, #124780544	; 0x7700000
    9908:	7465675f 	strbtvc	r6, [r5], #-1887	; 0x75f
    990c:	342d2928 	strtcc	r2, [sp], #-2344	; 0x928
    9910:	203d3d20 	eorscs	r3, sp, r0, lsr #26
    9914:	00006370 	andeq	r6, r0, r0, ror r3
    9918:	63746177 	cmnvs	r4, #-1073741795	; 0xc000001d
    991c:	5f747068 	svcpl	0x00747068
    9920:	646e6168 	strbtvs	r6, [lr], #-360	; 0x168
    9924:	3072656c 	rsbscc	r6, r2, ip, ror #10
    9928:	00000000 	andeq	r0, r0, r0
    992c:	706b7262 	rsbvc	r7, fp, r2, ror #4
    9930:	61685f74 	smcvs	34292	; 0x85f4
    9934:	656c646e 	strbvs	r6, [ip, #-1134]!	; 0x46e
    9938:	00003072 	andeq	r3, r0, r2, ror r0
    993c:	494e4150 	stmdbmi	lr, {r4, r6, r8, lr}^
    9940:	73253a43 	teqvc	r5, #274432	; 0x43000
    9944:	3a73253a 	bcc	1cd2e34 <__bss_end__+0x1cc8e0c>
    9948:	723a6425 	eorsvc	r6, sl, #620756992	; 0x25000000
    994c:	72757465 	rsbsvc	r7, r5, #1694498816	; 0x65000000
    9950:	2064656e 	rsbcs	r6, r4, lr, ror #10
    9954:	20646e61 	rsbcs	r6, r4, r1, ror #28
    9958:	756f6873 	strbvc	r6, [pc, #-2163]!	; 90ed <undefined_instruction_vector+0x19>
    995c:	6e20646c 	cdpvs	4, 2, cr6, cr0, cr12, {3}
    9960:	6820746f 	stmdavs	r0!, {r0, r1, r2, r3, r5, r6, sl, ip, sp, lr}
    9964:	21657661 	cmncs	r5, r1, ror #12
    9968:	00000a0a 	andeq	r0, r0, sl, lsl #20
    996c:	75736572 	ldrbvc	r6, [r3, #-1394]!	; 0x572
    9970:	203a746c 	eorscs	r7, sl, ip, ror #8
    9974:	000a7825 	andeq	r7, sl, r5, lsr #16
    9978:	656c6c69 	strbvs	r6, [ip, #-3177]!	; 0xc69
    997c:	206c6167 	rsbcs	r6, ip, r7, ror #2
    9980:	74737973 	ldrbtvc	r7, [r3], #-2419	; 0x973
    9984:	63206d65 	teqvs	r0, #6464	; 0x1940
    9988:	206c6c61 	rsbcs	r6, ip, r1, ror #24
    998c:	000a6425 	andeq	r6, sl, r5, lsr #8

00009990 <__FUNCTION__.4393>:
    9990:	63746177 	cmnvs	r4, #-1073741795	; 0xc000001d
    9994:	5f747068 	svcpl	0x00747068
    9998:	30746573 	rsbscc	r6, r4, r3, ror r5
    999c:	00000000 	andeq	r0, r0, r0

000099a0 <__FUNCTION__.4399>:
    99a0:	61746164 	cmnvs	r4, r4, ror #2
    99a4:	6f62615f 	svcvs	0x0062615f
    99a8:	765f7472 			; <UNDEFINED> instruction: 0x765f7472
    99ac:	6f746365 	svcvs	0x00746365
    99b0:	00000072 	andeq	r0, r0, r2, ror r0

000099b4 <__FUNCTION__.4306>:
    99b4:	5f736177 	svcpl	0x00736177
    99b8:	75626564 	strbvc	r6, [r2, #-1380]!	; 0x564
    99bc:	61645f67 	cmnvs	r4, r7, ror #30
    99c0:	61666174 	smcvs	26132	; 0x6614
    99c4:	00746c75 	rsbseq	r6, r4, r5, ror ip

000099c8 <__FUNCTION__.4443>:
    99c8:	66657270 			; <UNDEFINED> instruction: 0x66657270
    99cc:	68637465 	stmdavs	r3!, {r0, r2, r5, r6, sl, ip, sp, lr}^
    99d0:	6f62615f 	svcvs	0x0062615f
    99d4:	765f7472 			; <UNDEFINED> instruction: 0x765f7472
    99d8:	6f746365 	svcvs	0x00746365
    99dc:	00000072 	andeq	r0, r0, r2, ror r0

000099e0 <__FUNCTION__.4451>:
    99e0:	5f6b7262 	svcpl	0x006b7262
    99e4:	725f6f6e 	subsvc	r6, pc, #440	; 0x1b8
    99e8:	655f7465 	ldrbvs	r7, [pc, #-1125]	; 958b <gpio_read+0x2b>
    99ec:	726f7272 	rsbvc	r7, pc, #536870919	; 0x20000007
    99f0:	00000000 	andeq	r0, r0, r0

000099f4 <__FUNCTION__.4249>:
    99f4:	74696d65 	strbtvc	r6, [r9], #-3429	; 0xd65
    99f8:	00000000 	andeq	r0, r0, r0

000099fc <__FUNCTION__.4197>:
    99fc:	5f697072 	svcpl	0x00697072
    9a00:	5f746573 	svcpl	0x00746573
    9a04:	7074756f 	rsbsvc	r7, r4, pc, ror #10
    9a08:	00007475 	andeq	r7, r0, r5, ror r4

00009a0c <__FUNCTION__.4272>:
    9a0c:	705f6176 	subsvc	r6, pc, r6, ror r1	; <UNPREDICTABLE>
    9a10:	746e6972 	strbtvc	r6, [lr], #-2418	; 0x972
    9a14:	0000006b 	andeq	r0, r0, fp, rrx
    9a18:	6362696c 	cmnvs	r2, #108, 18	; 0x1b0000
    9a1c:	2d61762f 	stclcs	6, cr7, [r1, #-188]!	; 0xffffff44
    9a20:	6e697270 	mcrvs	2, 3, r7, cr9, cr0, {3}
    9a24:	632e6b74 	teqvs	lr, #116, 22	; 0x1d000
    9a28:	00000000 	andeq	r0, r0, r0
    9a2c:	00000030 	andeq	r0, r0, r0, lsr r0
    9a30:	33323130 	teqcc	r2, #48, 2
    9a34:	37363534 			; <UNDEFINED> instruction: 0x37363534
    9a38:	00003938 	andeq	r3, r0, r8, lsr r9
    9a3c:	33323130 	teqcc	r2, #48, 2
    9a40:	37363534 			; <UNDEFINED> instruction: 0x37363534
    9a44:	62613938 	rsbvs	r3, r1, #56, 18	; 0xe0000
    9a48:	66656463 	strbtvs	r6, [r5], -r3, ror #8
    9a4c:	00000000 	andeq	r0, r0, r0
    9a50:	00003130 	andeq	r3, r0, r0, lsr r1
    9a54:	63747570 	cmnvs	r4, #112, 10	; 0x1c000000
    9a58:	0070665f 	rsbseq	r6, r0, pc, asr r6
    9a5c:	74646977 	strbtvc	r6, [r4], #-2423	; 0x977
    9a60:	203c2068 	eorscs	r2, ip, r8, rrx
    9a64:	00003233 	andeq	r3, r0, r3, lsr r2
    9a68:	494e4150 	stmdbmi	lr, {r4, r6, r8, lr}^
    9a6c:	73253a43 	teqvc	r5, #274432	; 0x43000
    9a70:	3a73253a 	bcc	1cd2f60 <__bss_end__+0x1cc8f38>
    9a74:	663a6425 	ldrtvs	r6, [sl], -r5, lsr #8
    9a78:	74616f6c 	strbtvc	r6, [r1], #-3948	; 0xf6c
    9a7c:	746f6e20 	strbtvc	r6, [pc], #-3616	; 9a84 <__FUNCTION__.4272+0x78>
    9a80:	616e6520 	cmnvs	lr, r0, lsr #10
    9a84:	64656c62 	strbtvs	r6, [r5], #-3170	; 0xc62
    9a88:	0a212121 	beq	851f14 <__bss_end__+0x847eec>
    9a8c:	00000000 	andeq	r0, r0, r0
    9a90:	6e697270 	mcrvs	2, 3, r7, cr9, cr0, {3}
    9a94:	203a6b74 	eorscs	r6, sl, r4, ror fp
    9a98:	20746f6e 	rsbscs	r6, r4, lr, ror #30
    9a9c:	646e6168 	strbtvs	r6, [lr], #-360	; 0x168
    9aa0:	676e696c 	strbvs	r6, [lr, -ip, ror #18]!
    9aa4:	65707320 	ldrbvs	r7, [r0, #-800]!	; 0x320
    9aa8:	69666963 	stmdbvs	r6!, {r0, r1, r5, r6, r8, fp, sp, lr}^
    9aac:	27207265 	strcs	r7, [r0, -r5, ror #4]!
    9ab0:	20276325 	eorcs	r6, r7, r5, lsr #6
    9ab4:	63736128 	cmnvs	r3, #40, 2
    9ab8:	253d6969 	ldrcs	r6, [sp, #-2409]!	; 0x969
    9abc:	000a2964 	andeq	r2, sl, r4, ror #18
    9ac0:	494e4150 	stmdbmi	lr, {r4, r6, r8, lr}^
    9ac4:	73253a43 	teqvc	r5, #274432	; 0x43000
    9ac8:	3a73253a 	bcc	1cd2fb8 <__bss_end__+0x1cc8f90>
    9acc:	703a6425 	eorsvc	r6, sl, r5, lsr #8
    9ad0:	746e6972 	strbtvc	r6, [lr], #-2418	; 0x972
    9ad4:	7265206b 	rsbvc	r2, r5, #107	; 0x6b
    9ad8:	0a726f72 	beq	1ca58a8 <__bss_end__+0x1c9b880>
    9adc:	0000000a 	andeq	r0, r0, sl
    9ae0:	454e4f44 	strbmi	r4, [lr, #-3908]	; 0xf44
    9ae4:	0a212121 	beq	851f70 <__bss_end__+0x847f48>
    9ae8:	00000000 	andeq	r0, r0, r0

00009aec <__FUNCTION__.4220>:
    9aec:	74736166 	ldrbtvc	r6, [r3], #-358	; 0x166
    9af0:	746e695f 	strbtvc	r6, [lr], #-2399	; 0x95f
    9af4:	75727265 	ldrbvc	r7, [r2, #-613]!	; 0x265
    9af8:	765f7470 			; <UNDEFINED> instruction: 0x765f7470
    9afc:	6f746365 	svcvs	0x00746365
    9b00:	00000072 	andeq	r0, r0, r2, ror r0
    9b04:	494e4150 	stmdbmi	lr, {r4, r6, r8, lr}^
    9b08:	73253a43 	teqvc	r5, #274432	; 0x43000
    9b0c:	3a73253a 	bcc	1cd2ffc <__bss_end__+0x1cc8fd4>
    9b10:	453a6425 	ldrmi	r6, [sl, #-1061]!	; 0x425
    9b14:	524f5252 	subpl	r5, pc, #536870917	; 0x20000005
    9b18:	6e75203a 	mrcvs	0, 3, r2, cr5, cr10, {1}
    9b1c:	646e6168 	strbtvs	r6, [lr], #-360	; 0x168
    9b20:	2064656c 	rsbcs	r6, r4, ip, ror #10
    9b24:	65637865 	strbvs	r7, [r3, #-2149]!	; 0x865
    9b28:	6f697470 	svcvs	0x00697470
    9b2c:	253c206e 	ldrcs	r2, [ip, #-110]!	; 0x6e
    9b30:	61203e73 	teqvs	r0, r3, ror lr
    9b34:	43502074 	cmpmi	r0, #116	; 0x74
    9b38:	0a78253d 	beq	1e13034 <__bss_end__+0x1e0900c>
    9b3c:	0000000a 	andeq	r0, r0, sl
    9b40:	66617473 			; <UNDEFINED> instruction: 0x66617473
    9b44:	72732d66 	rsbsvc	r2, r3, #6528	; 0x1980
    9b48:	65642f63 	strbvs	r2, [r4, #-3939]!	; 0xf63
    9b4c:	6c756166 	ldfvse	f6, [r5], #-408	; 0xfffffe68
    9b50:	61682d74 	smcvs	33492	; 0x82d4
    9b54:	656c646e 	strbvs	r6, [ip, #-1134]!	; 0x46e
    9b58:	61662d72 	smcvs	25298	; 0x62d2
    9b5c:	632e7473 	teqvs	lr, #1929379840	; 0x73000000
    9b60:	00000000 	andeq	r0, r0, r0
    9b64:	74736166 	ldrbtvc	r6, [r3], #-358	; 0x166
    9b68:	00000000 	andeq	r0, r0, r0

00009b6c <__FUNCTION__.4220>:
    9b6c:	65736572 	ldrbvs	r6, [r3, #-1394]!	; 0x572
    9b70:	65765f74 	ldrbvs	r5, [r6, #-3956]!	; 0xf74
    9b74:	726f7463 	rsbvc	r7, pc, #1660944384	; 0x63000000
    9b78:	00000000 	andeq	r0, r0, r0
    9b7c:	66617473 			; <UNDEFINED> instruction: 0x66617473
    9b80:	72732d66 	rsbsvc	r2, r3, #6528	; 0x1980
    9b84:	65642f63 	strbvs	r2, [r4, #-3939]!	; 0xf63
    9b88:	6c756166 	ldfvse	f6, [r5], #-408	; 0xfffffe68
    9b8c:	61682d74 	smcvs	33492	; 0x82d4
    9b90:	656c646e 	strbvs	r6, [ip, #-1134]!	; 0x46e
    9b94:	65722d72 	ldrbvs	r2, [r2, #-3442]!	; 0xd72
    9b98:	2e746573 	mrccs	5, 3, r6, cr4, cr3, {3}
    9b9c:	00000063 	andeq	r0, r0, r3, rrx
    9ba0:	65736572 	ldrbvs	r6, [r3, #-1394]!	; 0x572
    9ba4:	00000074 	andeq	r0, r0, r4, ror r0

00009ba8 <__FUNCTION__.4220>:
    9ba8:	65646e75 	strbvs	r6, [r4, #-3701]!	; 0xe75
    9bac:	656e6966 	strbvs	r6, [lr, #-2406]!	; 0x966
    9bb0:	6e695f64 	cdpvs	15, 6, cr5, cr9, cr4, {3}
    9bb4:	75727473 	ldrbvc	r7, [r2, #-1139]!	; 0x473
    9bb8:	6f697463 	svcvs	0x00697463
    9bbc:	65765f6e 	ldrbvs	r5, [r6, #-3950]!	; 0xf6e
    9bc0:	726f7463 	rsbvc	r7, pc, #1660944384	; 0x63000000
    9bc4:	00000000 	andeq	r0, r0, r0
    9bc8:	66617473 			; <UNDEFINED> instruction: 0x66617473
    9bcc:	72732d66 	rsbsvc	r2, r3, #6528	; 0x1980
    9bd0:	65642f63 	strbvs	r2, [r4, #-3939]!	; 0xf63
    9bd4:	6c756166 	ldfvse	f6, [r5], #-408	; 0xfffffe68
    9bd8:	61682d74 	smcvs	33492	; 0x82d4
    9bdc:	656c646e 	strbvs	r6, [ip, #-1134]!	; 0x46e
    9be0:	6e752d72 	mrcvs	13, 3, r2, cr5, cr2, {3}
    9be4:	69666564 	stmdbvs	r6!, {r2, r5, r6, r8, sl, sp, lr}^
    9be8:	2d64656e 	cfstr64cs	mvdx6, [r4, #-440]!	; 0xfffffe48
    9bec:	74736e69 	ldrbtvc	r6, [r3], #-3689	; 0xe69
    9bf0:	0000632e 	andeq	r6, r0, lr, lsr #6
    9bf4:	65646e75 	strbvs	r6, [r4, #-3701]!	; 0xe75
    9bf8:	656e6966 	strbvs	r6, [lr, #-2406]!	; 0x966
    9bfc:	6e692064 	cdpvs	0, 6, cr2, cr9, cr4, {3}
    9c00:	00007473 	andeq	r7, r0, r3, ror r4

Disassembly of section .bss:

00009c04 <__bss_start__>:
    9c04:	00000000 	andeq	r0, r0, r0

00009c08 <cnt>:
    9c08:	00000000 	andeq	r0, r0, r0

00009c0c <expected_handle>:
    9c0c:	00000000 	andeq	r0, r0, r0

00009c10 <watchpt_handler0>:
    9c10:	00000000 	andeq	r0, r0, r0

00009c14 <brkpt_handler0>:
    9c14:	00000000 	andeq	r0, r0, r0

00009c18 <brk_verbose_p>:
    9c18:	00000000 	andeq	r0, r0, r0

00009c1c <nfaults.4398>:
    9c1c:	00000000 	andeq	r0, r0, r0

00009c20 <init_p.4404>:
    9c20:	00000000 	andeq	r0, r0, r0

00009c24 <buf.4189>:
	...

Disassembly of section .ARM.attributes:

00000000 <.ARM.attributes>:
   0:	00002a41 	andeq	r2, r0, r1, asr #20
   4:	61656100 	cmnvs	r5, r0, lsl #2
   8:	01006962 	tsteq	r0, r2, ror #18
   c:	00000020 	andeq	r0, r0, r0, lsr #32
  10:	4b5a3605 	blmi	168d82c <__bss_end__+0x1683804>
  14:	08070600 	stmdaeq	r7, {r9, sl}
  18:	12010901 	andne	r0, r1, #16384	; 0x4000
  1c:	15011404 	strne	r1, [r1, #-1028]	; 0x404
  20:	18031701 	stmdane	r3, {r0, r8, r9, sl, ip}
  24:	22011a01 	andcs	r1, r1, #4096	; 0x1000
  28:	Address 0x0000000000000028 is out of bounds.


Disassembly of section .comment:

00000000 <.comment>:
   0:	3a434347 	bcc	10d0d24 <__bss_end__+0x10c6cfc>
   4:	4e472820 	cdpmi	8, 4, cr2, cr7, cr0, {1}
   8:	34202955 	strtcc	r2, [r0], #-2389	; 0x955
   c:	332e382e 	teqcc	lr, #3014656	; 0x2e0000
  10:	43434700 	movtmi	r4, #14080	; 0x3700
  14:	3128203a 	teqcc	r8, sl, lsr r0
  18:	2e363a35 	mrccs	10, 1, r3, cr6, cr5, {1}
  1c:	2b312e33 	blcs	c4b8f0 <__bss_end__+0xc418c8>
  20:	326e7673 	rsbcc	r7, lr, #120586240	; 0x7300000
  24:	33303335 	teqcc	r0, #-738197504	; 0xd4000000
  28:	62312d39 	eorsvs	r2, r1, #3648	; 0xe40
  2c:	646c6975 	strbtvs	r6, [ip], #-2421	; 0x975
  30:	36202931 			; <UNDEFINED> instruction: 0x36202931
  34:	312e332e 	teqcc	lr, lr, lsr #6
  38:	31303220 	teqcc	r0, r0, lsr #4
  3c:	32363037 	eorscc	r3, r6, #55	; 0x37
  40:	Address 0x0000000000000040 is out of bounds.


Disassembly of section .debug_info:

00000000 <.debug_info>:
       0:	00000af0 	strdeq	r0, [r0], -r0	; <UNPREDICTABLE>
       4:	00000004 	andeq	r0, r0, r4
       8:	01040000 	mrseq	r0, (UNDEF: 4)
       c:	0000014b 	andeq	r0, r0, fp, asr #2
      10:	00021b01 	andeq	r1, r2, r1, lsl #22
      14:	00006400 	andeq	r6, r0, r0, lsl #8
      18:	00802000 	addeq	r2, r0, r0
      1c:	0004fc00 	andeq	pc, r4, r0, lsl #24
      20:	00000000 	andeq	r0, r0, r0
      24:	05040200 	streq	r0, [r4, #-512]	; 0x200
      28:	00746e69 	rsbseq	r6, r4, r9, ror #28
      2c:	c2070403 	andgt	r0, r7, #50331648	; 0x3000000
      30:	03000001 	movweq	r0, #1
      34:	00e50601 	rsceq	r0, r5, r1, lsl #12
      38:	02030000 	andeq	r0, r3, #0
      3c:	00023705 	andeq	r3, r2, r5, lsl #14
      40:	05040300 	streq	r0, [r4, #-768]	; 0x300
      44:	00000200 	andeq	r0, r0, r0, lsl #4
      48:	fb050803 	blx	14205e <__bss_end__+0x138036>
      4c:	03000001 	movweq	r0, #1
      50:	00e30801 	rsceq	r0, r3, r1, lsl #16
      54:	02030000 	andeq	r0, r3, #0
      58:	00004c07 	andeq	r4, r0, r7, lsl #24
      5c:	01170400 	tsteq	r7, r0, lsl #8
      60:	34060000 	strcc	r0, [r6], #-0
      64:	00000068 	andeq	r0, r0, r8, rrx
      68:	bd070403 	cfstrslt	mvf0, [r7, #-12]
      6c:	03000001 	movweq	r0, #1
      70:	01b80708 			; <UNDEFINED> instruction: 0x01b80708
      74:	04030000 	streq	r0, [r3], #-0
      78:	0001de07 	andeq	sp, r1, r7, lsl #28
      7c:	03040500 	movweq	r0, #17664	; 0x4500
      80:	00ec0801 	rsceq	r0, ip, r1, lsl #16
      84:	04060000 	streq	r0, [r6], #-0
      88:	0000008c 	andeq	r0, r0, ip, lsl #1
      8c:	00007f07 	andeq	r7, r0, r7, lsl #30
      90:	007f0800 	rsbseq	r0, pc, r0, lsl #16
      94:	00a10000 	adceq	r0, r1, r0
      98:	76090000 	strvc	r0, [r9], -r0
      9c:	07000000 	streq	r0, [r0, -r0]
      a0:	01d40400 	bicseq	r0, r4, r0, lsl #8
      a4:	8a040000 	bhi	1000ac <__bss_end__+0xf6084>
      a8:	000000ac 	andeq	r0, r0, ip, lsr #1
      ac:	00b20406 	adcseq	r0, r2, r6, lsl #8
      b0:	c70a0000 	strgt	r0, [sl, -r0]
      b4:	0b000000 	bleq	bc <__code_start__-0x7f44>
      b8:	000000c7 	andeq	r0, r0, r7, asr #1
      bc:	00005d0b 	andeq	r5, r0, fp, lsl #26
      c0:	005d0b00 	subseq	r0, sp, r0, lsl #22
      c4:	06000000 	streq	r0, [r0], -r0
      c8:	00005d04 	andeq	r5, r0, r4, lsl #26
      cc:	02410c00 	subeq	r0, r1, #0, 24
      d0:	a6040000 	strge	r0, [r4], -r0
      d4:	0000005d 	andeq	r0, r0, sp, asr r0
      d8:	0000e903 	andeq	lr, r0, r3, lsl #18
      dc:	65720d00 	ldrbvs	r0, [r2, #-3328]!	; 0xd00
      e0:	a6040074 			; <UNDEFINED> instruction: 0xa6040074
      e4:	0000005d 	andeq	r0, r0, sp, asr r0
      e8:	024a0c00 	subeq	r0, sl, #0, 24
      ec:	07010000 	streq	r0, [r1, -r0]
      f0:	00000025 	andeq	r0, r0, r5, lsr #32
      f4:	00010503 	andeq	r0, r1, r3, lsl #10
      f8:	01cf0e00 	biceq	r0, pc, r0, lsl #28
      fc:	07010000 	streq	r0, [r1, -r0]
     100:	0000002c 	andeq	r0, r0, ip, lsr #32
     104:	02550c00 	subseq	r0, r5, #0, 24
     108:	a9040000 	stmdbge	r4, {}	; <UNPREDICTABLE>
     10c:	0000002c 	andeq	r0, r0, ip, lsr #32
     110:	00011f03 	andeq	r1, r1, r3, lsl #30
     114:	00720d00 	rsbseq	r0, r2, r0, lsl #26
     118:	002caa04 	eoreq	sl, ip, r4, lsl #20
     11c:	0f000000 	svceq	0x00000000
     120:	000000c5 	andeq	r0, r0, r5, asr #1
     124:	3703c304 	strcc	ip, [r3, -r4, lsl #6]
     128:	0e000001 	cdpeq	0, 0, cr0, cr0, cr1, {0}
     12c:	0000005f 	andeq	r0, r0, pc, asr r0
     130:	0025c304 	eoreq	ip, r5, r4, lsl #6
     134:	0c000000 	stceq	0, cr0, [r0], {-0}
     138:	00000275 	andeq	r0, r0, r5, ror r2
     13c:	005d2605 	subseq	r2, sp, r5, lsl #12
     140:	53030000 	movwpl	r0, #12288	; 0x3000
     144:	10000001 	andne	r0, r0, r1
     148:	00000026 	andeq	r0, r0, r6, lsr #32
     14c:	005d2705 	subseq	r2, sp, r5, lsl #14
     150:	0c000000 	stceq	0, cr0, [r0], {-0}
     154:	00000000 	andeq	r0, r0, r0
     158:	005d0f01 	subseq	r0, sp, r1, lsl #30
     15c:	87030000 	strhi	r0, [r3, -r0]
     160:	0e000001 	cdpeq	0, 0, cr0, cr0, cr1, {0}
     164:	00000026 	andeq	r0, r0, r6, lsr #32
     168:	005d0f01 	subseq	r0, sp, r1, lsl #30
     16c:	cf100000 	svcgt	0x00100000
     170:	01000001 	tsteq	r0, r1
     174:	00002c10 	andeq	r2, r0, r0, lsl ip
     178:	012a1100 	teqeq	sl, r0, lsl #2
     17c:	01970000 	orrseq	r0, r7, r0
     180:	00000000 	andeq	r0, r0, r0
     184:	08000000 	stmdaeq	r0, {}	; <UNPREDICTABLE>
     188:	0000007f 	andeq	r0, r0, pc, ror r0
     18c:	00000197 	muleq	r0, r7, r1
     190:	00007609 	andeq	r7, r0, r9, lsl #12
     194:	07000800 	streq	r0, [r0, -r0, lsl #16]
     198:	00000187 	andeq	r0, r0, r7, lsl #3
     19c:	00001d0c 	andeq	r1, r0, ip, lsl #26
     1a0:	5d1c0200 	lfmpl	f0, 4, [ip, #-0]
     1a4:	03000000 	movweq	r0, #0
     1a8:	000001e0 	andeq	r0, r0, r0, ror #3
     1ac:	02007812 	andeq	r7, r0, #1179648	; 0x120000
     1b0:	00005d1c 	andeq	r5, r0, ip, lsl sp
     1b4:	626c1200 	rsbvs	r1, ip, #0, 4
     1b8:	2c1c0200 	lfmcs	f0, 4, [ip], {-0}
     1bc:	12000000 	andne	r0, r0, #0
     1c0:	02006275 	andeq	r6, r0, #1342177287	; 0x50000007
     1c4:	00002c1c 	andeq	r2, r0, ip, lsl ip
     1c8:	012a1100 	teqeq	sl, r0, lsl #2
     1cc:	01e00000 	mvneq	r0, r0
     1d0:	001d0000 	andseq	r0, sp, r0
     1d4:	6e0d0000 	cdpvs	0, 0, cr0, cr13, cr0, {0}
     1d8:	2c1f0200 	lfmcs	f0, 4, [pc], {-0}
     1dc:	00000000 	andeq	r0, r0, r0
     1e0:	00018707 	andeq	r8, r1, r7, lsl #14
     1e4:	002b1300 	eoreq	r1, fp, r0, lsl #6
     1e8:	18010000 	stmdane	r1, {}	; <UNPREDICTABLE>
     1ec:	00000086 	andeq	r0, r0, r6, lsl #1
     1f0:	00008020 	andeq	r8, r0, r0, lsr #32
     1f4:	00000158 	andeq	r0, r0, r8, asr r1
     1f8:	03439c01 	movteq	r9, #15361	; 0x3c01
     1fc:	26140000 	ldrcs	r0, [r4], -r0
     200:	01000000 	mrseq	r0, (UNDEF: 0)
     204:	00005d18 	andeq	r5, r0, r8, lsl sp
     208:	00000000 	andeq	r0, r0, r0
     20c:	012a1500 	teqeq	sl, r0, lsl #10
     210:	03430000 	movteq	r0, #12288	; 0x3000
     214:	03050000 	movweq	r0, #20480	; 0x5000
     218:	00009870 	andeq	r9, r0, r0, ror r8
     21c:	00015316 	andeq	r5, r1, r6, lsl r3
     220:	00802c00 	addeq	r2, r0, r0, lsl #24
     224:	00006c00 	andeq	r6, r0, r0, lsl #24
     228:	fa190100 	blx	640630 <__bss_end__+0x636608>
     22c:	17000002 	strne	r0, [r0, -r2]
     230:	00000163 	andeq	r0, r0, r3, ror #2
     234:	000000dc 	ldrdeq	r0, [r0], -ip
     238:	00802c18 	addeq	r2, r0, r8, lsl ip
     23c:	00006c00 	andeq	r6, r0, r0, lsl #24
     240:	016e1900 	cmneq	lr, r0, lsl #18
     244:	791a0000 	ldmdbvc	sl, {}	; <UNPREDICTABLE>
     248:	05000001 	streq	r0, [r0, #-1]
     24c:	00987c03 	addseq	r7, r8, r3, lsl #24
     250:	019c1600 	orrseq	r1, ip, r0, lsl #12
     254:	802c0000 	eorhi	r0, ip, r0
     258:	00040000 	andeq	r0, r4, r0
     25c:	10010000 	andne	r0, r1, r0
     260:	00000295 	muleq	r0, r5, r2
     264:	0001bf1b 	andeq	fp, r1, fp, lsl pc
     268:	b51b0400 	ldrlt	r0, [fp, #-1024]	; 0x400
     26c:	00000001 	andeq	r0, r0, r1
     270:	0001ac17 	andeq	sl, r1, r7, lsl ip
     274:	0000dc00 	andeq	sp, r0, r0, lsl #24
     278:	802c1800 	eorhi	r1, ip, r0, lsl #16
     27c:	00040000 	andeq	r0, r4, r0
     280:	d61c0000 	ldrle	r0, [ip], -r0
     284:	05000001 	streq	r0, [r0, #-1]
     288:	0001c91a 	andeq	ip, r1, sl, lsl r9
     28c:	88030500 	stmdahi	r3, {r8, sl}
     290:	00000098 	muleq	r0, r8, r0
     294:	00e91600 	rsceq	r1, r9, r0, lsl #12
     298:	80300000 	eorshi	r0, r0, r0
     29c:	003c0000 	eorseq	r0, ip, r0
     2a0:	11010000 	mrsne	r0, (UNDEF: 1)
     2a4:	000002ae 	andeq	r0, r0, lr, lsr #5
     2a8:	0000f91d 	andeq	pc, r0, sp, lsl r9	; <UNPREDICTABLE>
     2ac:	781e0000 	ldmdavc	lr, {}	; <UNPREDICTABLE>
     2b0:	72000080 	andvc	r0, r0, #128	; 0x80
     2b4:	1f00000a 	svcne	0x0000000a
     2b8:	00008094 	muleq	r0, r4, r0
     2bc:	00000a79 	andeq	r0, r0, r9, ror sl
     2c0:	000002ef 	andeq	r0, r0, pc, ror #5
     2c4:	01530120 	cmpeq	r3, r0, lsr #2
     2c8:	52012041 	andpl	r2, r1, #65	; 0x41
     2cc:	987c0305 	ldmdals	ip!, {r0, r2, r8, r9}^
     2d0:	01200000 	teqeq	r0, r0
     2d4:	08030551 	stmdaeq	r3, {r0, r4, r6, r8, sl}
     2d8:	20000096 	mulcs	r0, r6, r0
     2dc:	03055001 	movweq	r5, #20481	; 0x5001
     2e0:	000095f4 	strdeq	r9, [r0], -r4
     2e4:	007d0220 	rsbseq	r0, sp, r0, lsr #4
     2e8:	96180305 	ldrls	r0, [r8], -r5, lsl #6
     2ec:	1e000000 	cdpne	0, 0, cr0, cr0, cr0, {0}
     2f0:	00008098 	muleq	r0, r8, r0
     2f4:	00000a8f 	andeq	r0, r0, pc, lsl #21
     2f8:	141e0000 	ldrne	r0, [lr], #-0
     2fc:	72000081 	andvc	r0, r0, #129	; 0x81
     300:	1f00000a 	svcne	0x0000000a
     304:	0000812c 	andeq	r8, r0, ip, lsr #2
     308:	00000a79 	andeq	r0, r0, r9, ror sl
     30c:	00000339 	andeq	r0, r0, r9, lsr r3
     310:	02530120 	subseq	r0, r3, #32, 2
     314:	01202108 	teqeq	r0, r8, lsl #2
     318:	70030552 	andvc	r0, r3, r2, asr r5
     31c:	20000098 	mulcs	r0, r8, r0
     320:	03055101 	movweq	r5, #20737	; 0x5101
     324:	00009608 	andeq	r9, r0, r8, lsl #12
     328:	05500120 	ldrbeq	r0, [r0, #-288]	; 0x120
     32c:	00962c03 	addseq	r2, r6, r3, lsl #24
     330:	7d022000 	stcvc	0, cr2, [r2, #-0]
     334:	00740200 	rsbseq	r0, r4, r0, lsl #4
     338:	81301e00 	teqhi	r0, r0, lsl #28
     33c:	0a8f0000 	beq	fe3c0344 <__bss_end__+0xfe3b631c>
     340:	07000000 	streq	r0, [r0, -r0]
     344:	00000187 	andeq	r0, r0, r7, lsl #3
     348:	00012021 	andeq	r2, r1, r1, lsr #32
     34c:	780e0300 	stmdavc	lr, {r8, r9}
     350:	98000081 	stmdals	r0, {r0, r7}
     354:	01000000 	mrseq	r0, (UNDEF: 0)
     358:	0003dd9c 	muleq	r3, ip, sp
     35c:	01071400 	tsteq	r7, r0, lsl #8
     360:	0e030000 	cdpeq	0, 0, cr0, cr3, cr0, {0}
     364:	0000007d 	andeq	r0, r0, sp, ror r0
     368:	000001b8 			; <UNDEFINED> instruction: 0x000001b8
     36c:	00012a15 	andeq	r2, r1, r5, lsl sl
     370:	0003ed00 	andeq	lr, r3, r0, lsl #26
     374:	30030500 	andcc	r0, r3, r0, lsl #10
     378:	22000098 	andcs	r0, r0, #152	; 0x98
     37c:	00000000 	andeq	r0, r0, r0
     380:	00000392 	muleq	r0, r2, r3
     384:	03006923 	movweq	r6, #2339	; 0x923
     388:	00002510 	andeq	r2, r0, r0, lsl r5
     38c:	0001f200 	andeq	pc, r1, r0, lsl #4
     390:	941e0000 	ldrls	r0, [lr], #-0
     394:	72000081 	andvc	r0, r0, #129	; 0x81
     398:	1f00000a 	svcne	0x0000000a
     39c:	000081b0 			; <UNDEFINED> instruction: 0x000081b0
     3a0:	00000a79 	andeq	r0, r0, r9, ror sl
     3a4:	000003d3 	ldrdeq	r0, [r0], -r3
     3a8:	01530120 	cmpeq	r3, r0, lsr #2
     3ac:	5201203f 	andpl	r2, r1, #63	; 0x3f
     3b0:	98300305 	ldmdals	r0!, {r0, r2, r8, r9}
     3b4:	01200000 	teqeq	r0, r0
     3b8:	50030551 	andpl	r0, r3, r1, asr r5
     3bc:	20000096 	mulcs	r0, r6, r0
     3c0:	03055001 	movweq	r5, #20481	; 0x5001
     3c4:	000095f4 	strdeq	r9, [r0], -r4
     3c8:	007d0220 	rsbseq	r0, sp, r0, lsr #4
     3cc:	96680305 	strbtls	r0, [r8], -r5, lsl #6
     3d0:	1e000000 	cdpne	0, 0, cr0, cr0, cr0, {0}
     3d4:	000081b4 			; <UNDEFINED> instruction: 0x000081b4
     3d8:	00000a8f 	andeq	r0, r0, pc, lsl #21
     3dc:	007f0800 	rsbseq	r0, pc, r0, lsl #16
     3e0:	03ed0000 	mvneq	r0, #0
     3e4:	76090000 	strvc	r0, [r9], -r0
     3e8:	09000000 	stmdbeq	r0, {}	; <UNPREDICTABLE>
     3ec:	03dd0700 	bicseq	r0, sp, #0, 14
     3f0:	37240000 	strcc	r0, [r4, -r0]!
     3f4:	03000001 	movweq	r0, #1
     3f8:	00821017 	addeq	r1, r2, r7, lsl r0
     3fc:	00016c00 	andeq	r6, r1, r0, lsl #24
     400:	029c0100 	addseq	r0, ip, #0, 2
     404:	14000006 	strne	r0, [r0], #-6
     408:	00000232 	andeq	r0, r0, r2, lsr r2
     40c:	00c71703 	sbceq	r1, r7, r3, lsl #14
     410:	02100000 	andseq	r0, r0, #0
     414:	70250000 	eorvc	r0, r5, r0
     418:	17030063 	strne	r0, [r3, -r3, rrx]
     41c:	0000005d 	andeq	r0, r0, sp, asr r0
     420:	00000231 	andeq	r0, r0, r1, lsr r2
     424:	0003e414 	andeq	lr, r3, r4, lsl r4
     428:	5d170300 	ldcpl	3, cr0, [r7, #-0]
     42c:	5d000000 	stcpl	0, cr0, [r0, #-0]
     430:	15000002 	strne	r0, [r0, #-2]
     434:	0000012a 	andeq	r0, r0, sl, lsr #2
     438:	00000612 	andeq	r0, r0, r2, lsl r6
     43c:	98440305 	stmdals	r4, {r0, r2, r8, r9}^
     440:	05160000 	ldreq	r0, [r6, #-0]
     444:	4c000001 	stcmi	0, cr0, [r0], {1}
     448:	08000082 	stmdaeq	r0, {r1, r7}
     44c:	03000000 	movweq	r0, #0
     450:	0004881a 	andeq	r8, r4, sl, lsl r8
     454:	824c1800 	subhi	r1, ip, #0, 16
     458:	00080000 	andeq	r0, r8, r0
     45c:	15190000 	ldrne	r0, [r9, #-0]
     460:	26000001 	strcs	r0, [r0], -r1
     464:	000000cd 	andeq	r0, r0, sp, asr #1
     468:	0000824c 	andeq	r8, r0, ip, asr #4
     46c:	00000004 	andeq	r0, r0, r4
     470:	4c18aa04 	ldcmi	10, cr10, [r8], {4}
     474:	04000082 	streq	r0, [r0], #-130	; 0x82
     478:	27000000 	strcs	r0, [r0, -r0]
     47c:	000000dd 	ldrdeq	r0, [r0], -sp
     480:	0000027e 	andeq	r0, r0, lr, ror r2
     484:	00000000 	andeq	r0, r0, r0
     488:	00824c1f 	addeq	r4, r2, pc, lsl ip
     48c:	000a7900 	andeq	r7, sl, r0, lsl #18
     490:	0004c700 	andeq	ip, r4, r0, lsl #14
     494:	53012000 	movwpl	r2, #4096	; 0x1000
     498:	01204801 	teqeq	r0, r1, lsl #16
     49c:	44030552 	strmi	r0, [r3], #-1362	; 0x552
     4a0:	20000098 	mulcs	r0, r8, r0
     4a4:	03055101 	movweq	r5, #20737	; 0x5101
     4a8:	00009650 	andeq	r9, r0, r0, asr r6
     4ac:	05500120 	ldrbeq	r0, [r0, #-288]	; 0x120
     4b0:	00968403 	addseq	r8, r6, r3, lsl #8
     4b4:	7d022000 	stcvc	0, cr2, [r2, #-0]
     4b8:	78030504 	stmdavc	r3, {r2, r8, sl}
     4bc:	20000081 	andcs	r0, r0, r1, lsl #1
     4c0:	02007d02 	andeq	r7, r0, #2, 26	; 0x80
     4c4:	1e000074 	mcrne	0, 0, r0, cr0, cr4, {3}
     4c8:	00008260 	andeq	r8, r0, r0, ror #4
     4cc:	00000a72 	andeq	r0, r0, r2, ror sl
     4d0:	0082741f 	addeq	r7, r2, pc, lsl r4
     4d4:	000a7900 	andeq	r7, sl, r0, lsl #18
     4d8:	0004fe00 	andeq	pc, r4, r0, lsl #28
     4dc:	53012000 	movwpl	r2, #4096	; 0x1000
     4e0:	01204b01 	teqeq	r0, r1, lsl #22
     4e4:	44030552 	strmi	r0, [r3], #-1362	; 0x552
     4e8:	20000098 	mulcs	r0, r8, r0
     4ec:	03055101 	movweq	r5, #20737	; 0x5101
     4f0:	00009650 	andeq	r9, r0, r0, asr r6
     4f4:	05500120 	ldrbeq	r0, [r0, #-288]	; 0x120
     4f8:	0096b403 	addseq	fp, r6, r3, lsl #8
     4fc:	781e0000 	ldmdavc	lr, {}	; <UNPREDICTABLE>
     500:	8f000082 	svchi	0x00000082
     504:	1e00000a 	cdpne	0, 0, cr0, cr0, cr10, {0}
     508:	000082a0 	andeq	r8, r0, r0, lsr #5
     50c:	00000a72 	andeq	r0, r0, r2, ror sl
     510:	0082bc1f 	addeq	fp, r2, pc, lsl ip
     514:	000a7900 	andeq	r7, sl, r0, lsl #18
     518:	00054800 	andeq	r4, r5, r0, lsl #16
     51c:	53012000 	movwpl	r2, #4096	; 0x1000
     520:	01204e01 	teqeq	r0, r1, lsl #28
     524:	44030552 	strmi	r0, [r3], #-1362	; 0x552
     528:	20000098 	mulcs	r0, r8, r0
     52c:	03055101 	movweq	r5, #20737	; 0x5101
     530:	00009650 	andeq	r9, r0, r0, asr r6
     534:	05500120 	ldrbeq	r0, [r0, #-288]	; 0x120
     538:	0095f403 	addseq	pc, r5, r3, lsl #8
     53c:	7d022000 	stcvc	0, cr2, [r2, #-0]
     540:	ec030500 	cfstr32	mvfx0, [r3], {-0}
     544:	00000096 	muleq	r0, r6, r0
     548:	0082c01e 	addeq	ip, r2, lr, lsl r0
     54c:	000a8f00 	andeq	r8, sl, r0, lsl #30
     550:	82d01f00 	sbcshi	r1, r0, #0, 30
     554:	0a790000 	beq	1e4055c <__bss_end__+0x1e36534>
     558:	05680000 	strbeq	r0, [r8, #-0]!
     55c:	01200000 	teqeq	r0, r0
     560:	f8030550 			; <UNDEFINED> instruction: 0xf8030550
     564:	00000096 	muleq	r0, r6, r0
     568:	0082d81f 	addeq	sp, r2, pc, lsl r8
     56c:	000a9600 	andeq	r9, sl, r0, lsl #12
     570:	00057c00 	andeq	r7, r5, r0, lsl #24
     574:	50012000 	andpl	r2, r1, r0
     578:	00007402 	andeq	r7, r0, r2, lsl #8
     57c:	0083041f 	addeq	r0, r3, pc, lsl r4
     580:	000a7900 	andeq	r7, sl, r0, lsl #18
     584:	0005b200 	andeq	fp, r5, r0, lsl #4
     588:	53012000 	movwpl	r2, #4096	; 0x1000
     58c:	20220802 	eorcs	r0, r2, r2, lsl #16
     590:	03055201 	movweq	r5, #20993	; 0x5201
     594:	00009844 	andeq	r9, r0, r4, asr #16
     598:	05510120 	ldrbeq	r0, [r1, #-288]	; 0x120
     59c:	00965003 	addseq	r5, r6, r3
     5a0:	50012000 	andpl	r2, r1, r0
     5a4:	97180305 	ldrls	r0, [r8, -r5, lsl #6]
     5a8:	02200000 	eoreq	r0, r0, #0
     5ac:	7402007d 	strvc	r0, [r2], #-125	; 0x7d
     5b0:	101f0000 	andsne	r0, pc, r0
     5b4:	a7000083 	strge	r0, [r0, -r3, lsl #1]
     5b8:	cf00000a 	svcgt	0x0000000a
     5bc:	20000005 	andcs	r0, r0, r5
     5c0:	03055101 	movweq	r5, #20737	; 0x5101
     5c4:	00008210 	andeq	r8, r0, r0, lsl r2
     5c8:	02500120 	subseq	r0, r0, #32, 2
     5cc:	28000074 	stmdacs	r0, {r2, r4, r5, r6}
     5d0:	00008338 	andeq	r8, r0, r8, lsr r3
     5d4:	00000a79 	andeq	r0, r0, r9, ror sl
     5d8:	02530120 	subseq	r0, r3, #32, 2
     5dc:	01202408 	teqeq	r0, r8, lsl #8
     5e0:	44030552 	strmi	r0, [r3], #-1362	; 0x552
     5e4:	20000098 	mulcs	r0, r8, r0
     5e8:	03055101 	movweq	r5, #20737	; 0x5101
     5ec:	00009650 	andeq	r9, r0, r0, asr r6
     5f0:	05500120 	ldrbeq	r0, [r0, #-288]	; 0x120
     5f4:	00974003 	addseq	r4, r7, r3
     5f8:	7d022000 	stcvc	0, cr2, [r2, #-0]
     5fc:	00740200 	rsbseq	r0, r4, r0, lsl #4
     600:	7f080000 	svcvc	0x00080000
     604:	12000000 	andne	r0, r0, #0
     608:	09000006 	stmdbeq	r0, {r1, r2}
     60c:	00000076 	andeq	r0, r0, r6, ror r0
     610:	02070013 	andeq	r0, r7, #19
     614:	0c000006 	stceq	0, cr0, [r0], {6}
     618:	000000d1 	ldrdeq	r0, [r0], -r1
     61c:	005d1401 	subseq	r1, sp, r1, lsl #8
     620:	4b030000 	blmi	c0628 <__bss_end__+0xb6600>
     624:	0e000006 	cdpeq	0, 0, cr0, cr0, cr6, {0}
     628:	00000026 	andeq	r0, r0, r6, lsr #32
     62c:	005d1401 	subseq	r1, sp, r1, lsl #8
     630:	cf0e0000 	svcgt	0x000e0000
     634:	01000001 	tsteq	r0, r1
     638:	00002c14 	andeq	r2, r0, r4, lsl ip
     63c:	012a1100 	teqeq	sl, r0, lsl #2
     640:	064b0000 	strbeq	r0, [fp], -r0
     644:	00d10000 	sbcseq	r0, r1, r0
     648:	07000000 	streq	r0, [r0, -r0]
     64c:	00000187 	andeq	r0, r0, r7, lsl #3
     650:	00010e0c 	andeq	r0, r1, ip, lsl #28
     654:	5d250200 	sfmpl	f0, 4, [r5, #-0]
     658:	03000000 	movweq	r0, #0
     65c:	0000069f 	muleq	r0, pc, r6	; <UNPREDICTABLE>
     660:	02007812 	andeq	r7, r0, #1179648	; 0x120000
     664:	00005d25 	andeq	r5, r0, r5, lsr #26
     668:	626c1200 	rsbvs	r1, ip, #0, 4
     66c:	2c250200 	sfmcs	f0, 4, [r5], #-0
     670:	12000000 	andne	r0, r0, #0
     674:	02006275 	andeq	r6, r0, #1342177287	; 0x50000007
     678:	00002c25 	andeq	r2, r0, r5, lsr #24
     67c:	012a1100 	teqeq	sl, r0, lsl #2
     680:	069f0000 	ldreq	r0, [pc], r0
     684:	010e0000 	mrseq	r0, (UNDEF: 14)
     688:	6e0d0000 	cdpvs	0, 0, cr0, cr13, cr0, {0}
     68c:	2c280200 	sfmcs	f0, 4, [r8], #-0
     690:	10000000 	andne	r0, r0, r0
     694:	00000216 	andeq	r0, r0, r6, lsl r2
     698:	002c2a02 	eoreq	r2, ip, r2, lsl #20
     69c:	07000000 	streq	r0, [r0, -r0]
     6a0:	00000187 	andeq	r0, r0, r7, lsl #3
     6a4:	0000bd21 	andeq	fp, r0, r1, lsr #26
     6a8:	7c280300 	stcvc	3, cr0, [r8], #-0
     6ac:	a0000083 	andge	r0, r0, r3, lsl #1
     6b0:	01000001 	tsteq	r0, r1
     6b4:	000a2a9c 	muleq	sl, ip, sl
     6b8:	00da1000 	sbcseq	r1, sl, r0
     6bc:	30030000 	andcc	r0, r3, r0
     6c0:	0000005d 	andeq	r0, r0, sp, asr r0
     6c4:	00012a15 	andeq	r2, r1, r5, lsl sl
     6c8:	000a2a00 	andeq	r2, sl, r0, lsl #20
     6cc:	3c030500 	cfstr32cc	mvfx0, [r3], {-0}
     6d0:	16000098 			; <UNDEFINED> instruction: 0x16000098
     6d4:	0000011f 	andeq	r0, r0, pc, lsl r1
     6d8:	0000838c 	andeq	r8, r0, ip, lsl #7
     6dc:	0000000c 	andeq	r0, r0, ip
     6e0:	06ed2e03 	strbteq	r2, [sp], r3, lsl #28
     6e4:	2b1b0000 	blcs	6c06ec <__bss_end__+0x6b66c4>
     6e8:	01000001 	tsteq	r0, r1
     6ec:	01371600 	teqeq	r7, r0, lsl #12
     6f0:	83980000 	orrshi	r0, r8, #0
     6f4:	00040000 	andeq	r0, r4, r0
     6f8:	30030000 	andcc	r0, r3, r0
     6fc:	00000714 	andeq	r0, r0, r4, lsl r7
     700:	00839818 	addeq	r9, r3, r8, lsl r8
     704:	00000400 	andeq	r0, r0, r0, lsl #8
     708:	01472700 	cmpeq	r7, r0, lsl #14
     70c:	02910000 	addseq	r0, r1, #0
     710:	00000000 	andeq	r0, r0, r0
     714:	00011f16 	andeq	r1, r1, r6, lsl pc
     718:	00840400 	addeq	r0, r4, r0, lsl #8
     71c:	00000c00 	andeq	r0, r0, r0, lsl #24
     720:	2e390300 	cdpcs	3, 3, cr0, cr9, cr0, {0}
     724:	1b000007 	blne	748 <__code_start__-0x78b8>
     728:	0000012b 	andeq	r0, r0, fp, lsr #2
     72c:	17160000 	ldrne	r0, [r6, -r0]
     730:	18000006 	stmdane	r0, {r1, r2}
     734:	04000084 	streq	r0, [r0], #-132	; 0x84
     738:	03000000 	movweq	r0, #0
     73c:	0007ac3b 	andeq	sl, r7, fp, lsr ip
     740:	06321b00 	ldrteq	r1, [r2], -r0, lsl #22
     744:	17100000 	ldrne	r0, [r0, -r0]
     748:	00000627 	andeq	r0, r0, r7, lsr #12
     74c:	000002a4 	andeq	r0, r0, r4, lsr #5
     750:	00841818 	addeq	r1, r4, r8, lsl r8
     754:	00000400 	andeq	r0, r0, r0, lsl #8
     758:	063d1a00 	ldrteq	r1, [sp], -r0, lsl #20
     75c:	03050000 	movweq	r0, #20480	; 0x5000
     760:	00009858 	andeq	r9, r0, r8, asr r8
     764:	00065026 	andeq	r5, r6, r6, lsr #32
     768:	00841800 	addeq	r1, r4, r0, lsl #16
     76c:	00000400 	andeq	r0, r0, r0, lsl #8
     770:	1b160100 	blne	580b78 <__bss_end__+0x576b50>
     774:	00000673 	andeq	r0, r0, r3, ror r6
     778:	06691b04 	strbteq	r1, [r9], -r4, lsl #22
     77c:	17000000 	strne	r0, [r0, -r0]
     780:	00000660 	andeq	r0, r0, r0, ror #12
     784:	000002a4 	andeq	r0, r0, r4, lsr #5
     788:	00841818 	addeq	r1, r4, r8, lsl r8
     78c:	00000400 	andeq	r0, r0, r0, lsl #8
     790:	068a1c00 	streq	r1, [sl], r0, lsl #24
     794:	1c050000 	stcne	0, cr0, [r5], {-0}
     798:	00000693 	muleq	r0, r3, r6
     79c:	067d1a1f 			; <UNDEFINED> instruction: 0x067d1a1f
     7a0:	03050000 	movweq	r0, #20480	; 0x5000
     7a4:	00009864 	andeq	r9, r0, r4, ror #16
     7a8:	00000000 	andeq	r0, r0, r0
     7ac:	00013716 	andeq	r3, r1, r6, lsl r7
     7b0:	00844000 	addeq	r4, r4, r0
     7b4:	00000400 	andeq	r0, r0, r0, lsl #8
     7b8:	cf3f0300 	svcgt	0x003f0300
     7bc:	18000007 	stmdane	r0, {r0, r1, r2}
     7c0:	00008440 	andeq	r8, r0, r0, asr #8
     7c4:	00000004 	andeq	r0, r0, r4
     7c8:	00014719 	andeq	r4, r1, r9, lsl r7
     7cc:	16000000 	strne	r0, [r0], -r0
     7d0:	00000137 	andeq	r0, r0, r7, lsr r1
     7d4:	00008444 	andeq	r8, r0, r4, asr #8
     7d8:	00000004 	andeq	r0, r0, r4
     7dc:	07f64003 	ldrbeq	r4, [r6, r3]!
     7e0:	44180000 	ldrmi	r0, [r8], #-0
     7e4:	04000084 	streq	r0, [r0], #-132	; 0x84
     7e8:	27000000 	strcs	r0, [r0, -r0]
     7ec:	00000147 	andeq	r0, r0, r7, asr #2
     7f0:	000002b7 			; <UNDEFINED> instruction: 0x000002b7
     7f4:	37160000 	ldrcc	r0, [r6, -r0]
     7f8:	5c000001 	stcpl	0, cr0, [r0], {1}
     7fc:	04000084 	streq	r0, [r0], #-132	; 0x84
     800:	03000000 	movweq	r0, #0
     804:	00081d42 	andeq	r1, r8, r2, asr #26
     808:	845c1800 	ldrbhi	r1, [ip], #-2048	; 0x800
     80c:	00040000 	andeq	r0, r4, r0
     810:	47270000 	strmi	r0, [r7, -r0]!
     814:	ca000001 	bgt	820 <__code_start__-0x77e0>
     818:	00000002 	andeq	r0, r0, r2
     81c:	83881e00 	orrhi	r1, r8, #0, 28
     820:	0abd0000 	beq	fef40828 <__bss_end__+0xfef36800>
     824:	8c1e0000 	ldchi	0, cr0, [lr], {-0}
     828:	c4000083 	strgt	r0, [r0], #-131	; 0x83
     82c:	1f00000a 	svcne	0x0000000a
     830:	000083a4 	andeq	r8, r0, r4, lsr #7
     834:	000001e5 	andeq	r0, r0, r5, ror #3
     838:	00000843 	andeq	r0, r0, r3, asr #16
     83c:	02500120 	subseq	r0, r0, #32, 2
     840:	1f000074 	svcne	0x00000074
     844:	000083b4 			; <UNDEFINED> instruction: 0x000083b4
     848:	00000a79 	andeq	r0, r0, r9, ror sl
     84c:	00000860 	andeq	r0, r0, r0, ror #16
     850:	02520120 	subseq	r0, r2, #32, 2
     854:	01200074 	teqeq	r0, r4, ror r0
     858:	6c030550 	cfstr32vs	mvfx0, [r3], {80}	; 0x50
     85c:	00000097 	muleq	r0, r7, r0
     860:	0083d41f 	addeq	sp, r3, pc, lsl r4
     864:	000a7900 	andeq	r7, sl, r0, lsl #18
     868:	00088f00 	andeq	r8, r8, r0, lsl #30
     86c:	53012000 	movwpl	r2, #4096	; 0x1000
     870:	20340802 	eorscs	r0, r4, r2, lsl #16
     874:	03055201 	movweq	r5, #20993	; 0x5201
     878:	0000983c 	andeq	r9, r0, ip, lsr r8
     87c:	05510120 	ldrbeq	r0, [r1, #-288]	; 0x120
     880:	00965003 	addseq	r5, r6, r3
     884:	50012000 	andpl	r2, r1, r0
     888:	97840305 	strls	r0, [r4, r5, lsl #6]
     88c:	1f000000 	svcne	0x00000000
     890:	000083e0 	andeq	r8, r0, r0, ror #7
     894:	00000aa7 	andeq	r0, r0, r7, lsr #21
     898:	000008ab 	andeq	r0, r0, fp, lsr #17
     89c:	05510120 	ldrbeq	r0, [r1, #-288]	; 0x120
     8a0:	00821003 	addeq	r1, r2, r3
     8a4:	50012000 	andpl	r2, r1, r0
     8a8:	1f003001 	svcne	0x00003001
     8ac:	00008404 	andeq	r8, r0, r4, lsl #8
     8b0:	00000a79 	andeq	r0, r0, r9, ror sl
     8b4:	000008da 	ldrdeq	r0, [r0], -sl
     8b8:	02530120 	subseq	r0, r3, #32, 2
     8bc:	01203608 	teqeq	r0, r8, lsl #12
     8c0:	3c030552 	cfstr32cc	mvfx0, [r3], {82}	; 0x52
     8c4:	20000098 	mulcs	r0, r8, r0
     8c8:	03055101 	movweq	r5, #20737	; 0x5101
     8cc:	00009650 	andeq	r9, r0, r0, asr r6
     8d0:	05500120 	ldrbeq	r0, [r0, #-288]	; 0x120
     8d4:	0097ac03 	addseq	sl, r7, r3, lsl #24
     8d8:	281f0000 	ldmdacs	pc, {}	; <UNPREDICTABLE>
     8dc:	cb000084 	blgt	af4 <__code_start__-0x750c>
     8e0:	0500000a 	streq	r0, [r0, #-10]
     8e4:	20000009 	andcs	r0, r0, r9
     8e8:	03055201 	movweq	r5, #20993	; 0x5201
     8ec:	00009c0c 	andeq	r9, r0, ip, lsl #24
     8f0:	05510120 	ldrbeq	r0, [r1, #-288]	; 0x120
     8f4:	00817803 	addeq	r7, r1, r3, lsl #16
     8f8:	50012000 	andpl	r2, r1, r0
     8fc:	09007407 	stmdbeq	r0, {r0, r1, r2, sl, ip, sp, lr}
     900:	21401ae0 	smlalttcs	r1, r0, r0, sl
     904:	84301f00 	ldrthi	r1, [r0], #-3840	; 0xf00
     908:	01e50000 	mvneq	r0, r0
     90c:	09190000 	ldmdbeq	r9, {}	; <UNPREDICTABLE>
     910:	01200000 	teqeq	r0, r0
     914:	00740250 	rsbseq	r0, r4, r0, asr r2
     918:	84401f00 	strbhi	r1, [r0], #-3840	; 0xf00
     91c:	0a790000 	beq	1e40924 <__bss_end__+0x1e368fc>
     920:	09360000 	ldmdbeq	r6!, {}	; <UNPREDICTABLE>
     924:	01200000 	teqeq	r0, r0
     928:	00740252 	rsbseq	r0, r4, r2, asr r2
     92c:	05500120 	ldrbeq	r0, [r0, #-288]	; 0x120
     930:	0097cc03 	addseq	ip, r7, r3, lsl #24
     934:	4c1e0000 	ldcmi	0, cr0, [lr], {-0}
     938:	e5000084 	str	r0, [r0, #-132]	; 0x84
     93c:	1f000001 	svcne	0x00000001
     940:	0000845c 	andeq	r8, r0, ip, asr r4
     944:	00000a79 	andeq	r0, r0, r9, ror sl
     948:	0000095c 	andeq	r0, r0, ip, asr r9
     94c:	02520120 	subseq	r0, r2, #32, 2
     950:	01200074 	teqeq	r0, r4, ror r0
     954:	6c030550 	cfstr32vs	mvfx0, [r3], {80}	; 0x50
     958:	00000097 	muleq	r0, r7, r0
     95c:	00846c1e 	addeq	r6, r4, lr, lsl ip
     960:	000a7200 	andeq	r7, sl, r0, lsl #4
     964:	84881f00 	strhi	r1, [r8], #3840	; 0xf00
     968:	0a790000 	beq	1e40970 <__bss_end__+0x1e36948>
     96c:	099e0000 	ldmibeq	lr, {}	; <UNPREDICTABLE>
     970:	01200000 	teqeq	r0, r0
     974:	42080253 	andmi	r0, r8, #805306373	; 0x30000005
     978:	05520120 	ldrbeq	r0, [r2, #-288]	; 0x120
     97c:	00983c03 	addseq	r3, r8, r3, lsl #24
     980:	51012000 	mrspl	r2, (UNDEF: 1)
     984:	96500305 	ldrbls	r0, [r0], -r5, lsl #6
     988:	01200000 	teqeq	r0, r0
     98c:	f4030550 	vst3.16	{d0,d2,d4}, [r3 :64], r0
     990:	20000095 	mulcs	r0, r5, r0
     994:	05007d02 	streq	r7, [r0, #-3330]	; 0xd02
     998:	0097e803 	addseq	lr, r7, r3, lsl #16
     99c:	8c1e0000 	ldchi	0, cr0, [lr], {-0}
     9a0:	8f000084 	svchi	0x00000084
     9a4:	1e00000a 	cdpne	0, 0, cr0, cr0, cr10, {0}
     9a8:	000084a4 	andeq	r8, r0, r4, lsr #9
     9ac:	00000a72 	andeq	r0, r0, r2, ror sl
     9b0:	0084c01f 	addeq	ip, r4, pc, lsl r0
     9b4:	000a7900 	andeq	r7, sl, r0, lsl #18
     9b8:	0009e900 	andeq	lr, r9, r0, lsl #18
     9bc:	53012000 	movwpl	r2, #4096	; 0x1000
     9c0:	20430802 	subcs	r0, r3, r2, lsl #16
     9c4:	03055201 	movweq	r5, #20993	; 0x5201
     9c8:	0000983c 	andeq	r9, r0, ip, lsr r8
     9cc:	05510120 	ldrbeq	r0, [r1, #-288]	; 0x120
     9d0:	00965003 	addseq	r5, r6, r3
     9d4:	50012000 	andpl	r2, r1, r0
     9d8:	95f40305 	ldrbls	r0, [r4, #773]!	; 0x305
     9dc:	02200000 	eoreq	r0, r0, #0
     9e0:	0305007d 	movweq	r0, #20605	; 0x507d
     9e4:	000096ec 	andeq	r9, r0, ip, ror #13
     9e8:	84c41e00 	strbhi	r1, [r4], #3584	; 0xe00
     9ec:	0a8f0000 	beq	fe3c09f4 <__bss_end__+0xfe3b69cc>
     9f0:	cc1f0000 	ldcgt	0, cr0, [pc], {-0}
     9f4:	79000084 	stmdbvc	r0, {r2, r7}
     9f8:	0900000a 	stmdbeq	r0, {r1, r3}
     9fc:	2000000a 	andcs	r0, r0, sl
     a00:	03055001 	movweq	r5, #20481	; 0x5001
     a04:	00009800 	andeq	r9, r0, r0, lsl #16
     a08:	84d41f00 	ldrbhi	r1, [r4], #3840	; 0xf00
     a0c:	0a790000 	beq	1e40a14 <__bss_end__+0x1e369ec>
     a10:	0a200000 	beq	800a18 <__bss_end__+0x7f69f0>
     a14:	01200000 	teqeq	r0, r0
     a18:	0c030550 	cfstr32eq	mvfx0, [r3], {80}	; 0x50
     a1c:	00000098 	muleq	r0, r8, r0
     a20:	0084d81e 	addeq	sp, r4, lr, lsl r8
     a24:	000a8f00 	andeq	r8, sl, r0, lsl #30
     a28:	91070000 	mrsls	r0, (UNDEF: 7)
     a2c:	29000000 	stmdbcs	r0, {}	; <UNPREDICTABLE>
     a30:	0000029b 	muleq	r0, fp, r2
     a34:	0a400803 	beq	1002a48 <__bss_end__+0xff8a20>
     a38:	03050000 	movweq	r0, #20480	; 0x5000
     a3c:	00009c04 	andeq	r9, r0, r4, lsl #24
     a40:	0000252a 	andeq	r2, r0, sl, lsr #10
     a44:	6e632b00 	vmulvs.f64	d18, d3, d0
     a48:	08030074 	stmdaeq	r3, {r2, r4, r5, r6}
     a4c:	00000a40 	andeq	r0, r0, r0, asr #20
     a50:	9c080305 	stcls	3, cr0, [r8], {5}
     a54:	fe290000 	cdp2	0, 2, cr0, cr9, cr0, {0}
     a58:	03000000 	movweq	r0, #0
     a5c:	00007d0a 	andeq	r7, r0, sl, lsl #26
     a60:	0c030500 	cfstr32eq	mvfx0, [r3], {-0}
     a64:	2c00009c 	stccs	0, cr0, [r0], {156}	; 0x9c
     a68:	0000028d 	andeq	r0, r0, sp, lsl #5
     a6c:	0025c204 	eoreq	ip, r5, r4, lsl #4
     a70:	7e2d0000 	cdpvc	0, 2, cr0, cr13, cr0, {0}
     a74:	07000002 	streq	r0, [r0, -r2]
     a78:	04aa2e1e 	strteq	r2, [sl], #3614	; 0xe1e
     a7c:	29070000 	stmdbcs	r7, {}	; <UNPREDICTABLE>
     a80:	00000025 	andeq	r0, r0, r5, lsr #32
     a84:	00000a8f 	andeq	r0, r0, pc, lsl #21
     a88:	0000860b 	andeq	r8, r0, fp, lsl #12
     a8c:	2d002f00 	stccs	15, cr2, [r0, #-0]
     a90:	000000f1 	strdeq	r0, [r0], -r1
     a94:	34306507 	ldrtcc	r6, [r0], #-1287	; 0x507
     a98:	04000000 	streq	r0, [r0], #-0
     a9c:	000aa7e3 	andeq	sl, sl, r3, ror #15
     aa0:	005d0b00 	subseq	r0, sp, r0, lsl #22
     aa4:	30000000 	andcc	r0, r0, r0
     aa8:	00000009 	andeq	r0, r0, r9
     aac:	0abdd904 	beq	fef76ec4 <__bss_end__+0xfef6ce9c>
     ab0:	5d0b0000 	stcpl	0, cr0, [fp, #-0]
     ab4:	0b000000 	bleq	abc <__code_start__-0x7544>
     ab8:	000000a1 	andeq	r0, r0, r1, lsr #1
     abc:	02692d00 	rsbeq	r2, r9, #0, 26
     ac0:	90040000 	andls	r0, r4, r0
     ac4:	0002092d 	andeq	r0, r2, sp, lsr #18
     ac8:	308d0700 	addcc	r0, sp, r0, lsl #14
     acc:	000001e7 	andeq	r0, r0, r7, ror #3
     ad0:	0ae6f304 	beq	ff9bd6e8 <__bss_end__+0xff9b36c0>
     ad4:	5d0b0000 	stcpl	0, cr0, [fp, #-0]
     ad8:	0b000000 	bleq	ae0 <__code_start__-0x7520>
     adc:	00000ae6 	andeq	r0, r0, r6, ror #21
     ae0:	00007d0b 	andeq	r7, r0, fp, lsl #26
     ae4:	04060000 	streq	r0, [r6], #-0
     ae8:	00000aec 	andeq	r0, r0, ip, ror #21
     aec:	007d0b31 	rsbseq	r0, sp, r1, lsr fp
     af0:	00000000 	andeq	r0, r0, r0
     af4:	00000bee 	andeq	r0, r0, lr, ror #23
     af8:	02720004 	rsbseq	r0, r2, #4
     afc:	01040000 	mrseq	r0, (UNDEF: 4)
     b00:	0000014b 	andeq	r0, r0, fp, asr #2
     b04:	0002dc01 	andeq	sp, r2, r1, lsl #24
     b08:	00006400 	andeq	r6, r0, r0, lsl #8
     b0c:	00851c00 	addeq	r1, r5, r0, lsl #24
     b10:	00035400 	andeq	r5, r3, r0, lsl #8
     b14:	00021d00 	andeq	r1, r2, r0, lsl #26
     b18:	05040200 	streq	r0, [r4, #-512]	; 0x200
     b1c:	00746e69 	rsbseq	r6, r4, r9, ror #28
     b20:	c2070403 	andgt	r0, r7, #50331648	; 0x3000000
     b24:	03000001 	movweq	r0, #1
     b28:	00e50601 	rsceq	r0, r5, r1, lsl #12
     b2c:	02030000 	andeq	r0, r3, #0
     b30:	00023705 	andeq	r3, r2, r5, lsl #14
     b34:	05040300 	streq	r0, [r4, #-768]	; 0x300
     b38:	00000200 	andeq	r0, r0, r0, lsl #4
     b3c:	fb050803 	blx	142b52 <__bss_end__+0x138b2a>
     b40:	03000001 	movweq	r0, #1
     b44:	00e30801 	rsceq	r0, r3, r1, lsl #16
     b48:	02030000 	andeq	r0, r3, #0
     b4c:	00004c07 	andeq	r4, r0, r7, lsl #24
     b50:	01170400 	tsteq	r7, r0, lsl #8
     b54:	34030000 	strcc	r0, [r3], #-0
     b58:	00000068 	andeq	r0, r0, r8, rrx
     b5c:	bd070403 	cfstrslt	mvf0, [r7, #-12]
     b60:	03000001 	movweq	r0, #1
     b64:	01b80708 			; <UNDEFINED> instruction: 0x01b80708
     b68:	04030000 	streq	r0, [r3], #-0
     b6c:	0001de07 	andeq	sp, r1, r7, lsl #28
     b70:	03040500 	movweq	r0, #17664	; 0x4500
     b74:	00ec0801 	rsceq	r0, ip, r1, lsl #16
     b78:	04060000 	streq	r0, [r6], #-0
     b7c:	0000008c 	andeq	r0, r0, ip, lsl #1
     b80:	00007f07 	andeq	r7, r0, r7, lsl #30
     b84:	01d40400 	bicseq	r0, r4, r0, lsl #8
     b88:	8a020000 	bhi	80b90 <__bss_end__+0x76b68>
     b8c:	0000009c 	muleq	r0, ip, r0
     b90:	00a20406 	adceq	r0, r2, r6, lsl #8
     b94:	b7080000 	strlt	r0, [r8, -r0]
     b98:	09000000 	stmdbeq	r0, {}	; <UNPREDICTABLE>
     b9c:	000000b7 	strheq	r0, [r0], -r7
     ba0:	00005d09 	andeq	r5, r0, r9, lsl #26
     ba4:	005d0900 	subseq	r0, sp, r0, lsl #18
     ba8:	06000000 	streq	r0, [r0], -r0
     bac:	00005d04 	andeq	r5, r0, r4, lsl #26
     bb0:	03cb0a00 	biceq	r0, fp, #0, 20
     bb4:	5f020000 	svcpl	0x00020000
     bb8:	0000005d 	andeq	r0, r0, sp, asr r0
     bbc:	0000d903 	andeq	sp, r0, r3, lsl #18
     bc0:	65720b00 	ldrbvs	r0, [r2, #-2816]!	; 0xb00
     bc4:	5f020074 	svcpl	0x00020074
     bc8:	0000005d 	andeq	r0, r0, sp, asr r0
     bcc:	02410a00 	subeq	r0, r1, #0, 20
     bd0:	a6020000 	strge	r0, [r2], -r0
     bd4:	0000005d 	andeq	r0, r0, sp, asr r0
     bd8:	0000f503 	andeq	pc, r0, r3, lsl #10
     bdc:	65720b00 	ldrbvs	r0, [r2, #-2816]!	; 0xb00
     be0:	a6020074 			; <UNDEFINED> instruction: 0xa6020074
     be4:	0000005d 	andeq	r0, r0, sp, asr r0
     be8:	03a90a00 			; <UNDEFINED> instruction: 0x03a90a00
     bec:	70020000 	andvc	r0, r2, r0
     bf0:	0000002c 	andeq	r0, r0, ip, lsr #32
     bf4:	00010f03 	andeq	r0, r1, r3, lsl #30
     bf8:	00720c00 	rsbseq	r0, r2, r0, lsl #24
     bfc:	005d7002 	subseq	r7, sp, r2
     c00:	0a000000 	beq	c08 <__code_start__-0x73f8>
     c04:	000002fb 	strdeq	r0, [r0], -fp
     c08:	005d1801 	subseq	r1, sp, r1, lsl #16
     c0c:	2b030000 	blcs	c0c14 <__bss_end__+0xb6bec>
     c10:	0b000001 	bleq	c1c <__code_start__-0x73e4>
     c14:	00746572 	rsbseq	r6, r4, r2, ror r5
     c18:	005d1801 	subseq	r1, sp, r1, lsl #16
     c1c:	0d000000 	stceq	0, cr0, [r0, #-0]
     c20:	00000421 	andeq	r0, r0, r1, lsr #8
     c24:	41031e01 	tstmi	r3, r1, lsl #28
     c28:	0c000001 	stceq	0, cr0, [r0], {1}
     c2c:	1e010076 	mcrne	0, 0, r0, cr1, cr6, {3}
     c30:	0000005d 	andeq	r0, r0, sp, asr r0
     c34:	033e0d00 	teqeq	lr, #0, 26
     c38:	26010000 	strcs	r0, [r1], -r0
     c3c:	00015703 	andeq	r5, r1, r3, lsl #14
     c40:	00760c00 	rsbseq	r0, r6, r0, lsl #24
     c44:	005d2601 	subseq	r2, sp, r1, lsl #12
     c48:	0d000000 	stceq	0, cr0, [r0, #-0]
     c4c:	000003e9 	andeq	r0, r0, r9, ror #7
     c50:	6d030d01 	stcvs	13, cr0, [r3, #-4]
     c54:	0c000001 	stceq	0, cr0, [r0], {1}
     c58:	0d010076 	stceq	0, cr0, [r1, #-472]	; 0xfffffe28
     c5c:	0000005d 	andeq	r0, r0, sp, asr r0
     c60:	03890a00 	orreq	r0, r9, #0, 20
     c64:	66020000 	strvs	r0, [r2], -r0
     c68:	0000002c 	andeq	r0, r0, ip, lsr #32
     c6c:	00018903 	andeq	r8, r1, r3, lsl #18
     c70:	03660e00 	cmneq	r6, #0, 28
     c74:	67020000 	strvs	r0, [r2, -r0]
     c78:	0000005d 	andeq	r0, r0, sp, asr r0
     c7c:	04050a00 	streq	r0, [r5], #-2560	; 0xa00
     c80:	56020000 	strpl	r0, [r2], -r0
     c84:	0000005d 	andeq	r0, r0, sp, asr r0
     c88:	0001a503 	andeq	sl, r1, r3, lsl #10
     c8c:	65720b00 	ldrbvs	r0, [r2, #-2816]!	; 0xb00
     c90:	56020074 			; <UNDEFINED> instruction: 0x56020074
     c94:	0000005d 	andeq	r0, r0, sp, asr r0
     c98:	03700a00 	cmneq	r0, #0, 20
     c9c:	63020000 	movwvs	r0, #8192	; 0x2000
     ca0:	0000005d 	andeq	r0, r0, sp, asr r0
     ca4:	0001c103 	andeq	ip, r1, r3, lsl #2
     ca8:	65720b00 	ldrbvs	r0, [r2, #-2816]!	; 0xb00
     cac:	63020074 	movwvs	r0, #8308	; 0x2074
     cb0:	0000005d 	andeq	r0, r0, sp, asr r0
     cb4:	02e90d00 	rsceq	r0, r9, #0, 26
     cb8:	32010000 	andcc	r0, r1, #0
     cbc:	0001d703 	andeq	sp, r1, r3, lsl #14
     cc0:	00760c00 	rsbseq	r0, r6, r0, lsl #24
     cc4:	005d3201 	subseq	r3, sp, r1, lsl #4
     cc8:	0a000000 	beq	cd0 <__code_start__-0x7330>
     ccc:	00000358 	andeq	r0, r0, r8, asr r3
     cd0:	005d8d01 	subseq	r8, sp, r1, lsl #26
     cd4:	f3030000 	vhadd.u8	d0, d3, d0
     cd8:	0b000001 	bleq	ce4 <__code_start__-0x731c>
     cdc:	00746572 	rsbseq	r6, r4, r2, ror r5
     ce0:	005d8d01 	subseq	r8, sp, r1, lsl #26
     ce4:	0d000000 	stceq	0, cr0, [r0, #-0]
     ce8:	0000031a 	andeq	r0, r0, sl, lsl r3
     cec:	09038e01 	stmdbeq	r3, {r0, r9, sl, fp, pc}
     cf0:	0c000002 	stceq	0, cr0, [r0], {2}
     cf4:	8e010076 	mcrhi	0, 0, r0, cr1, cr6, {3}
     cf8:	0000005d 	andeq	r0, r0, sp, asr r0
     cfc:	039b0d00 	orrseq	r0, fp, #0, 26
     d00:	8c010000 	stchi	0, cr0, [r1], {-0}
     d04:	00021f03 	andeq	r1, r2, r3, lsl #30
     d08:	00760c00 	rsbseq	r0, r6, r0, lsl #24
     d0c:	005d8c01 	subseq	r8, sp, r1, lsl #24
     d10:	0a000000 	beq	d18 <__code_start__-0x72e8>
     d14:	00000255 	andeq	r0, r0, r5, asr r2
     d18:	002ca902 	eoreq	sl, ip, r2, lsl #18
     d1c:	39030000 	stmdbcc	r3, {}	; <UNPREDICTABLE>
     d20:	0b000002 	bleq	d30 <__code_start__-0x72d0>
     d24:	aa020072 	bge	80ef4 <__bss_end__+0x76ecc>
     d28:	0000002c 	andeq	r0, r0, ip, lsr #32
     d2c:	036f0a00 	cmneq	pc, #0, 20
     d30:	97020000 	strls	r0, [r2, -r0]
     d34:	0000005d 	andeq	r0, r0, sp, asr r0
     d38:	00025503 	andeq	r5, r2, r3, lsl #10
     d3c:	65720b00 	ldrbvs	r0, [r2, #-2816]!	; 0xb00
     d40:	97020074 	smlsdxls	r2, r4, r0, r0
     d44:	0000005d 	andeq	r0, r0, sp, asr r0
     d48:	03310f00 	teqeq	r1, #0, 30
     d4c:	36010000 	strcc	r0, [r1], -r0
     d50:	0000851c 	andeq	r8, r0, ip, lsl r5
     d54:	000000b0 	strheq	r0, [r0], -r0	; <UNPREDICTABLE>
     d58:	04309c01 	ldrteq	r9, [r0], #-3073	; 0xc01
     d5c:	e3100000 	tst	r0, #0
     d60:	01000003 	tsteq	r0, r3
     d64:	00007d36 	andeq	r7, r0, r6, lsr sp
     d68:	0002e800 	andeq	lr, r2, r0, lsl #16
     d6c:	01431000 	mrseq	r1, (UNDEF: 67)
     d70:	36010000 	strcc	r0, [r1], -r0
     d74:	00000091 	muleq	r0, r1, r0
     d78:	0000032d 	andeq	r0, r0, sp, lsr #6
     d7c:	0002f211 	andeq	pc, r2, r1, lsl r2	; <UNPREDICTABLE>
     d80:	5d390100 	ldfpls	f0, [r9, #-0]
     d84:	72000000 	andvc	r0, r0, #0
     d88:	12000003 	andne	r0, r0, #3
     d8c:	0000012a 	andeq	r0, r0, sl, lsr #2
     d90:	00000440 	andeq	r0, r0, r0, asr #8
     d94:	99900305 	ldmibls	r0, {r0, r2, r8, r9}
     d98:	28110000 	ldmdacs	r1, {}	; <UNPREDICTABLE>
     d9c:	01000003 	tsteq	r0, r3
     da0:	00005d43 	andeq	r5, r0, r3, asr #26
     da4:	00039e00 	andeq	r9, r3, r0, lsl #28
     da8:	010f1300 	mrseq	r1, SP_hyp
     dac:	85240000 	strhi	r0, [r4, #-0]!
     db0:	00040000 	andeq	r0, r4, r0
     db4:	39010000 	stmdbcc	r1, {}	; <UNPREDICTABLE>
     db8:	000002dc 	ldrdeq	r0, [r0], -ip
     dbc:	00852414 	addeq	r2, r5, r4, lsl r4
     dc0:	00000400 	andeq	r0, r0, r0, lsl #8
     dc4:	011f1500 	tsteq	pc, r0, lsl #10
     dc8:	03ca0000 	biceq	r0, sl, #0
     dcc:	00000000 	andeq	r0, r0, r0
     dd0:	00012b13 	andeq	r2, r1, r3, lsl fp
     dd4:	00852c00 	addeq	r2, r5, r0, lsl #24
     dd8:	00000400 	andeq	r0, r0, r0, lsl #8
     ddc:	f93f0100 			; <UNDEFINED> instruction: 0xf93f0100
     de0:	16000002 	strne	r0, [r0], -r2
     de4:	00000137 	andeq	r0, r0, r7, lsr r1
     de8:	000003dd 	ldrdeq	r0, [r0], -sp
     dec:	010f1300 	mrseq	r1, SP_hyp
     df0:	85300000 	ldrhi	r0, [r0, #-0]!
     df4:	00040000 	andeq	r0, r4, r0
     df8:	41010000 	mrsmi	r0, (UNDEF: 1)
     dfc:	00000320 	andeq	r0, r0, r0, lsr #6
     e00:	00853014 	addeq	r3, r5, r4, lsl r0
     e04:	00000400 	andeq	r0, r0, r0, lsl #8
     e08:	011f1500 	tsteq	pc, r0, lsl #10
     e0c:	03fb0000 	mvnseq	r0, #0
     e10:	00000000 	andeq	r0, r0, r0
     e14:	00014113 	andeq	r4, r1, r3, lsl r1
     e18:	00856000 	addeq	r6, r5, r0
     e1c:	00000400 	andeq	r0, r0, r0, lsl #8
     e20:	3d460100 	stfcce	f0, [r6, #-0]
     e24:	16000003 	strne	r0, [r0], -r3
     e28:	0000014d 	andeq	r0, r0, sp, asr #2
     e2c:	0000039e 	muleq	r0, lr, r3
     e30:	012b1300 	teqeq	fp, r0, lsl #6
     e34:	85640000 	strbhi	r0, [r4, #-0]!
     e38:	00080000 	andeq	r0, r8, r0
     e3c:	50010000 	andpl	r0, r1, r0
     e40:	00000358 	andeq	r0, r0, r8, asr r3
     e44:	00013717 	andeq	r3, r1, r7, lsl r7
     e48:	0001ff00 	andeq	pc, r1, r0, lsl #30
     e4c:	00010f13 	andeq	r0, r1, r3, lsl pc
     e50:	00856c00 	addeq	r6, r5, r0, lsl #24
     e54:	00000400 	andeq	r0, r0, r0, lsl #8
     e58:	7f520100 	svcvc	0x00520100
     e5c:	14000003 	strne	r0, [r0], #-3
     e60:	0000856c 	andeq	r8, r0, ip, ror #10
     e64:	00000004 	andeq	r0, r0, r4
     e68:	00011f15 	andeq	r1, r1, r5, lsl pc
     e6c:	00041900 	andeq	r1, r4, r0, lsl #18
     e70:	13000000 	movwne	r0, #0
     e74:	00000157 	andeq	r0, r0, r7, asr r1
     e78:	0000859c 	muleq	r0, ip, r5
     e7c:	00000008 	andeq	r0, r0, r8
     e80:	03995401 	orrseq	r5, r9, #16777216	; 0x1000000
     e84:	63180000 	tstvs	r8, #0
     e88:	00000001 	andeq	r0, r0, r1
     e8c:	85401900 	strbhi	r1, [r0, #-2304]	; 0x900
     e90:	0bc60000 	bleq	ff180e98 <__bss_end__+0xff176e70>
     e94:	5c1a0000 	ldcpl	0, cr0, [sl], {-0}
     e98:	cd000085 	stcgt	0, cr0, [r0, #-532]	; 0xfffffdec
     e9c:	db00000b 	blle	ed0 <__code_start__-0x7130>
     ea0:	1b000003 	blne	eb4 <__code_start__-0x714c>
     ea4:	08025301 	stmdaeq	r2, {r0, r8, r9, ip, lr}
     ea8:	52011b41 	andpl	r1, r1, #66560	; 0x10400
     eac:	99900305 	ldmibls	r0, {r0, r2, r8, r9}
     eb0:	011b0000 	tsteq	fp, r0
     eb4:	94030551 	strls	r0, [r3], #-1361	; 0x551
     eb8:	1b000098 	blne	1120 <__code_start__-0x6ee0>
     ebc:	03055001 	movweq	r5, #20481	; 0x5001
     ec0:	000095f4 	strdeq	r9, [r0], -r4
     ec4:	007d021b 	rsbseq	r0, sp, fp, lsl r2
     ec8:	98a40305 	stmials	r4!, {r0, r2, r8, r9}
     ecc:	19000000 	stmdbne	r0, {}	; <UNPREDICTABLE>
     ed0:	00008560 	andeq	r8, r0, r0, ror #10
     ed4:	00000be3 	andeq	r0, r0, r3, ror #23
     ed8:	00857c19 	addeq	r7, r5, r9, lsl ip
     edc:	000bc600 	andeq	ip, fp, r0, lsl #12
     ee0:	85981a00 	ldrhi	r1, [r8, #2560]	; 0xa00
     ee4:	0bcd0000 	bleq	ff340eec <__bss_end__+0xff336ec4>
     ee8:	04260000 	strteq	r0, [r6], #-0
     eec:	011b0000 	tsteq	fp, r0
     ef0:	52080253 	andpl	r0, r8, #805306373	; 0x30000005
     ef4:	0552011b 	ldrbeq	r0, [r2, #-283]	; 0x11b
     ef8:	00999003 	addseq	r9, r9, r3
     efc:	51011b00 	tstpl	r1, r0, lsl #22
     f00:	98940305 	ldmls	r4, {r0, r2, r8, r9}
     f04:	011b0000 	tsteq	fp, r0
     f08:	f4030550 	vst3.16	{d0,d2,d4}, [r3 :64], r0
     f0c:	1b000095 	blne	1168 <__code_start__-0x6e98>
     f10:	05007d02 	streq	r7, [r0, #-3330]	; 0xd02
     f14:	0098a403 	addseq	sl, r8, r3, lsl #8
     f18:	9c190000 	ldcls	0, cr0, [r9], {-0}
     f1c:	e3000085 	movw	r0, #133	; 0x85
     f20:	0000000b 	andeq	r0, r0, fp
     f24:	00007f1c 	andeq	r7, r0, ip, lsl pc
     f28:	00044000 	andeq	r4, r4, r0
     f2c:	00761d00 	rsbseq	r1, r6, r0, lsl #26
     f30:	000c0000 	andeq	r0, ip, r0
     f34:	00043007 	andeq	r3, r4, r7
     f38:	02c80a00 	sbceq	r0, r8, #0, 20
     f3c:	76020000 	strvc	r0, [r2], -r0
     f40:	0000002c 	andeq	r0, r0, ip, lsr #32
     f44:	00046c03 	andeq	r6, r4, r3, lsl #24
     f48:	00720b00 	rsbseq	r0, r2, r0, lsl #22
     f4c:	002c7702 	eoreq	r7, ip, r2, lsl #14
     f50:	2a1e0000 	bcs	780f58 <__bss_end__+0x776f30>
     f54:	7c000001 	stcvc	0, cr0, [r0], {1}
     f58:	c8000004 	stmdagt	r0, {r2}
     f5c:	00000002 	andeq	r0, r0, r2
     f60:	00007f1c 	andeq	r7, r0, ip, lsl pc
     f64:	00047c00 	andeq	r7, r4, r0, lsl #24
     f68:	00761d00 	rsbseq	r1, r6, r0, lsl #26
     f6c:	00130000 	andseq	r0, r3, r0
     f70:	00046c07 	andeq	r6, r4, r7, lsl #24
     f74:	02a00f00 	adceq	r0, r0, #0, 30
     f78:	59010000 	stmdbpl	r1, {}	; <UNPREDICTABLE>
     f7c:	000085cc 	andeq	r8, r0, ip, asr #11
     f80:	000000dc 	ldrdeq	r0, [r0], -ip
     f84:	06b09c01 	ldrteq	r9, [r0], r1, lsl #24
     f88:	701f0000 	andsvc	r0, pc, r0
     f8c:	59010063 	stmdbpl	r1, {r0, r1, r5, r6}
     f90:	0000002c 	andeq	r0, r0, ip, lsr #32
     f94:	00000437 	andeq	r0, r0, r7, lsr r4
     f98:	0003ba20 	andeq	fp, r3, r0, lsr #20
     f9c:	255a0100 	ldrbcs	r0, [sl, #-256]	; 0x100
     fa0:	05000000 	streq	r0, [r0, #-0]
     fa4:	009c1c03 	addseq	r1, ip, r3, lsl #24
     fa8:	012a1200 	teqeq	sl, r0, lsl #4
     fac:	06c00000 	strbeq	r0, [r0], r0
     fb0:	03050000 	movweq	r0, #20480	; 0x5000
     fb4:	000099a0 	andeq	r9, r0, r0, lsr #19
     fb8:	0003e40e 	andeq	lr, r3, lr, lsl #8
     fbc:	5d6b0100 	stfple	f0, [fp, #-0]
     fc0:	13000000 	movwne	r0, #0
     fc4:	0000016d 	andeq	r0, r0, sp, ror #2
     fc8:	000085d8 	ldrdeq	r8, [r0], -r8	; <UNPREDICTABLE>
     fcc:	00000004 	andeq	r0, r0, r4
     fd0:	05115c01 	ldreq	r5, [r1, #-3073]	; 0xc01
     fd4:	d8140000 	ldmdale	r4, {}	; <UNPREDICTABLE>
     fd8:	04000085 	streq	r0, [r0], #-133	; 0x85
     fdc:	21000000 	mrscs	r0, (UNDEF: 0)
     fe0:	0000017d 	andeq	r0, r0, sp, ror r1
     fe4:	0000bd22 	andeq	fp, r0, r2, lsr #26
     fe8:	0085d800 	addeq	sp, r5, r0, lsl #16
     fec:	00000400 	andeq	r0, r0, r0, lsl #8
     ff0:	14670200 	strbtne	r0, [r7], #-512	; 0x200
     ff4:	000085d8 	ldrdeq	r8, [r0], -r8	; <UNPREDICTABLE>
     ff8:	00000004 	andeq	r0, r0, r4
     ffc:	0000cd21 	andeq	ip, r0, r1, lsr #26
    1000:	00000000 	andeq	r0, r0, r0
    1004:	04451300 	strbeq	r1, [r5], #-768	; 0x300
    1008:	85dc0000 	ldrbhi	r0, [ip]
    100c:	002c0000 	eoreq	r0, ip, r0
    1010:	62010000 	andvs	r0, r1, #0
    1014:	000005c4 	andeq	r0, r0, r4, asr #11
    1018:	0085dc14 	addeq	sp, r5, r4, lsl ip
    101c:	00002c00 	andeq	r2, r0, r0, lsl #24
    1020:	04552100 	ldrbeq	r2, [r5], #-256	; 0x100
    1024:	5e230000 	cdppl	0, 2, cr0, cr3, cr0, {0}
    1028:	05000004 	streq	r0, [r0, #-4]
    102c:	0099b403 	addseq	fp, r9, r3, lsl #8
    1030:	00bd1300 	adcseq	r1, sp, r0, lsl #6
    1034:	85dc0000 	ldrbhi	r0, [ip]
    1038:	00040000 	andeq	r0, r4, r0
    103c:	77020000 	strvc	r0, [r2, -r0]
    1040:	00000564 	andeq	r0, r0, r4, ror #10
    1044:	0085dc14 	addeq	sp, r5, r4, lsl ip
    1048:	00000400 	andeq	r0, r0, r0, lsl #8
    104c:	00cd1500 	sbceq	r1, sp, r0, lsl #10
    1050:	04ae0000 	strteq	r0, [lr], #0
    1054:	00000000 	andeq	r0, r0, r0
    1058:	0000f513 	andeq	pc, r0, r3, lsl r5	; <UNPREDICTABLE>
    105c:	0085e000 	addeq	lr, r5, r0
    1060:	00000400 	andeq	r0, r0, r0, lsl #8
    1064:	81780200 	cmnhi	r8, r0, lsl #4
    1068:	16000005 	strne	r0, [r0], -r5
    106c:	00000105 	andeq	r0, r0, r5, lsl #2
    1070:	000004ae 	andeq	r0, r0, lr, lsr #9
    1074:	85f01900 	ldrbhi	r1, [r0, #2304]!	; 0x900
    1078:	0bc60000 	bleq	ff181080 <__bss_end__+0xff177058>
    107c:	041a0000 	ldreq	r0, [sl], #-0
    1080:	cd000086 	stcgt	0, cr0, [r0, #-536]	; 0xfffffde8
    1084:	b900000b 	stmdblt	r0, {r0, r1, r3}
    1088:	1b000005 	blne	10a4 <__code_start__-0x6f5c>
    108c:	08025301 	stmdaeq	r2, {r0, r8, r9, ip, lr}
    1090:	52011b79 	andpl	r1, r1, #123904	; 0x1e400
    1094:	99b40305 	ldmibls	r4!, {r0, r2, r8, r9}
    1098:	011b0000 	tsteq	fp, r0
    109c:	f4030551 	vst3.16	{d0,d2,d4}, [r3 :64], r1
    10a0:	1b000098 	blne	1308 <__code_start__-0x6cf8>
    10a4:	03055001 	movweq	r5, #20481	; 0x5001
    10a8:	000098bc 			; <UNDEFINED> instruction: 0x000098bc
    10ac:	86081900 	strhi	r1, [r8], -r0, lsl #18
    10b0:	0be30000 	bleq	ff8c10b8 <__bss_end__+0xff8b7090>
    10b4:	00000000 	andeq	r0, r0, r0
    10b8:	00018913 	andeq	r8, r1, r3, lsl r9
    10bc:	00860800 	addeq	r0, r6, r0, lsl #16
    10c0:	00000400 	andeq	r0, r0, r0, lsl #8
    10c4:	eb670100 	bl	19c14cc <__bss_end__+0x19b74a4>
    10c8:	14000005 	strne	r0, [r0], #-5
    10cc:	00008608 	andeq	r8, r0, r8, lsl #12
    10d0:	00000004 	andeq	r0, r0, r4
    10d4:	00019915 	andeq	r9, r1, r5, lsl r9
    10d8:	0004c100 	andeq	ip, r4, r0, lsl #2
    10dc:	13000000 	movwne	r0, #0
    10e0:	000001a5 	andeq	r0, r0, r5, lsr #3
    10e4:	00008670 	andeq	r8, r0, r0, ror r6
    10e8:	00000004 	andeq	r0, r0, r4
    10ec:	060e6b01 	streq	r6, [lr], -r1, lsl #22
    10f0:	70140000 	andsvc	r0, r4, r0
    10f4:	04000086 	streq	r0, [r0], #-134	; 0x86
    10f8:	21000000 	mrscs	r0, (UNDEF: 0)
    10fc:	000001b5 			; <UNDEFINED> instruction: 0x000001b5
    1100:	1c190000 	ldcne	0, cr0, [r9], {-0}
    1104:	c6000086 	strgt	r0, [r0], -r6, lsl #1
    1108:	1a00000b 	bne	113c <__code_start__-0x6ec4>
    110c:	00008638 	andeq	r8, r0, r8, lsr r6
    1110:	00000bcd 	andeq	r0, r0, sp, asr #23
    1114:	00000650 	andeq	r0, r0, r0, asr r6
    1118:	0253011b 	subseq	r0, r3, #-1073741818	; 0xc0000006
    111c:	011b6708 	tsteq	fp, r8, lsl #14
    1120:	a0030552 	andge	r0, r3, r2, asr r5
    1124:	1b000099 	blne	1390 <__code_start__-0x6c70>
    1128:	03055101 	movweq	r5, #20737	; 0x5101
    112c:	00009894 	muleq	r0, r4, r8
    1130:	0550011b 	ldrbeq	r0, [r0, #-283]	; 0x11b
    1134:	0095f403 	addseq	pc, r5, r3, lsl #8
    1138:	7d021b00 	vstrvc	d1, [r2, #-0]
    113c:	04030500 	streq	r0, [r3], #-1280	; 0x500
    1140:	00000099 	muleq	r0, r9, r0
    1144:	00863c19 	addeq	r3, r6, r9, lsl ip
    1148:	000be300 	andeq	lr, fp, r0, lsl #6
    114c:	86501900 	ldrbhi	r1, [r0], -r0, lsl #18
    1150:	0bc60000 	bleq	ff181158 <__bss_end__+0xff177130>
    1154:	6c1a0000 	ldcvs	0, cr0, [sl], {-0}
    1158:	cd000086 	stcgt	0, cr0, [r0, #-536]	; 0xfffffde8
    115c:	9b00000b 	blls	1190 <__code_start__-0x6e70>
    1160:	1b000006 	blne	1180 <__code_start__-0x6e80>
    1164:	08025301 	stmdaeq	r2, {r0, r8, r9, ip, lr}
    1168:	52011b69 	andpl	r1, r1, #107520	; 0x1a400
    116c:	99a00305 	stmibls	r0!, {r0, r2, r8, r9}
    1170:	011b0000 	tsteq	fp, r0
    1174:	94030551 	strls	r0, [r3], #-1361	; 0x551
    1178:	1b000098 	blne	13e0 <__code_start__-0x6c20>
    117c:	03055001 	movweq	r5, #20481	; 0x5001
    1180:	000095f4 	strdeq	r9, [r0], -r4
    1184:	007d021b 	rsbseq	r0, sp, fp, lsl r2
    1188:	99180305 	ldmdbls	r8, {r0, r2, r8, r9}
    118c:	19000000 	stmdbne	r0, {}	; <UNPREDICTABLE>
    1190:	00008670 	andeq	r8, r0, r0, ror r6
    1194:	00000be3 	andeq	r0, r0, r3, ror #23
    1198:	00867c24 	addeq	r7, r6, r4, lsr #24
    119c:	50011b00 	andpl	r1, r1, r0, lsl #22
    11a0:	00003001 	andeq	r3, r0, r1
    11a4:	00007f1c 	andeq	r7, r0, ip, lsl pc
    11a8:	0006c000 	andeq	ip, r6, r0
    11ac:	00761d00 	rsbseq	r1, r6, r0, lsl #26
    11b0:	00110000 	andseq	r0, r1, r0
    11b4:	0006b007 	andeq	fp, r6, r7
    11b8:	02690f00 	rsbeq	r0, r9, #0, 30
    11bc:	72010000 	andvc	r0, r1, #0
    11c0:	000086a8 	andeq	r8, r0, r8, lsr #13
    11c4:	0000003c 	andeq	r0, r0, ip, lsr r0
    11c8:	07359c01 	ldreq	r9, [r5, -r1, lsl #24]!
    11cc:	04200000 	strteq	r0, [r0], #-0
    11d0:	01000003 	tsteq	r0, r3
    11d4:	00002573 	andeq	r2, r0, r3, ror r5
    11d8:	20030500 	andcs	r0, r3, r0, lsl #10
    11dc:	2500009c 	strcs	r0, [r0, #-156]	; 0x9c
    11e0:	7c010076 	stcvc	0, cr0, [r1], {118}	; 0x76
    11e4:	0000005d 	andeq	r0, r0, sp, asr r0
    11e8:	c1138000 	tstgt	r3, r0
    11ec:	cc000001 	stcgt	0, cr0, [r0], {1}
    11f0:	08000086 	stmdaeq	r0, {r1, r2, r7}
    11f4:	01000000 	mrseq	r0, (UNDEF: 0)
    11f8:	0007117e 	andeq	r1, r7, lr, ror r1
    11fc:	01cd1700 	biceq	r1, sp, r0, lsl #14
    1200:	80000000 	andhi	r0, r0, r0
    1204:	01571300 	cmpeq	r7, r0, lsl #6
    1208:	86d40000 	ldrbhi	r0, [r4], r0
    120c:	00100000 	andseq	r0, r0, r0
    1210:	80010000 	andhi	r0, r1, r0
    1214:	0000072b 	andeq	r0, r0, fp, lsr #14
    1218:	00016318 	andeq	r6, r1, r8, lsl r3
    121c:	19000000 	stmdbne	r0, {}	; <UNPREDICTABLE>
    1220:	000086c0 	andeq	r8, r0, r0, asr #13
    1224:	00000bea 	andeq	r0, r0, sl, ror #23
    1228:	04160f00 	ldreq	r0, [r6], #-3840	; 0xf00
    122c:	a8010000 	stmdage	r1, {}	; <UNPREDICTABLE>
    1230:	000086e4 	andeq	r8, r0, r4, ror #13
    1234:	00000034 	andeq	r0, r0, r4, lsr r0
    1238:	08119c01 	ldmdaeq	r1, {r0, sl, fp, ip, pc}
    123c:	e4260000 	strt	r0, [r6], #-0
    1240:	01000003 	tsteq	r0, r3
    1244:	00005da8 	andeq	r5, r0, r8, lsr #27
    1248:	26500100 	ldrbcs	r0, [r0], -r0, lsl #2
    124c:	00000143 	andeq	r0, r0, r3, asr #2
    1250:	0091a801 	addseq	sl, r1, r1, lsl #16
    1254:	51010000 	mrspl	r0, (UNDEF: 1)
    1258:	0003fc11 	andeq	pc, r3, r1, lsl ip	; <UNPREDICTABLE>
    125c:	5da90100 	stfpls	f0, [r9]
    1260:	ee000000 	cdp	0, 0, cr0, cr0, cr0, {0}
    1264:	20000004 	andcs	r0, r0, r4
    1268:	000003c2 	andeq	r0, r0, r2, asr #7
    126c:	005db101 	subseq	fp, sp, r1, lsl #2
    1270:	50010000 	andpl	r0, r1, r0
    1274:	0001d713 	andeq	sp, r1, r3, lsl r7
    1278:	0086e400 	addeq	lr, r6, r0, lsl #8
    127c:	00000400 	andeq	r0, r0, r0, lsl #8
    1280:	a7a90100 	strge	r0, [r9, r0, lsl #2]!
    1284:	14000007 	strne	r0, [r0], #-7
    1288:	000086e4 	andeq	r8, r0, r4, ror #13
    128c:	00000004 	andeq	r0, r0, r4
    1290:	0001e715 	andeq	lr, r1, r5, lsl r7
    1294:	00050f00 	andeq	r0, r5, r0, lsl #30
    1298:	13000000 	movwne	r0, #0
    129c:	000001f3 	strdeq	r0, [r0], -r3
    12a0:	000086ec 	andeq	r8, r0, ip, ror #13
    12a4:	00000004 	andeq	r0, r0, r4
    12a8:	07c4af01 	strbeq	sl, [r4, r1, lsl #30]
    12ac:	ff160000 			; <UNDEFINED> instruction: 0xff160000
    12b0:	22000001 	andcs	r0, r0, #1
    12b4:	00000005 	andeq	r0, r0, r5
    12b8:	00020913 	andeq	r0, r2, r3, lsl r9
    12bc:	0086f000 	addeq	pc, r6, r0
    12c0:	00000400 	andeq	r0, r0, r0, lsl #8
    12c4:	dfb40100 	svcle	0x00b40100
    12c8:	27000007 	strcs	r0, [r0, -r7]
    12cc:	00000215 	andeq	r0, r0, r5, lsl r2
    12d0:	13005001 	movwne	r5, #1
    12d4:	000001f3 	strdeq	r0, [r0], -r3
    12d8:	000086f4 	strdeq	r8, [r0], -r4
    12dc:	00000008 	andeq	r0, r0, r8
    12e0:	07fabe01 	ldrbeq	fp, [sl, r1, lsl #28]!
    12e4:	ff170000 			; <UNDEFINED> instruction: 0xff170000
    12e8:	e7000001 	str	r0, [r0, -r1]
    12ec:	57220001 	strpl	r0, [r2, -r1]!
    12f0:	fc000001 	stc2	0, cr0, [r0], {1}
    12f4:	08000086 	stmdaeq	r0, {r1, r2, r7}
    12f8:	01000000 	mrseq	r0, (UNDEF: 0)
    12fc:	016318bf 	strheq	r1, [r3, #-143]!	; 0xffffff71
    1300:	00000000 	andeq	r0, r0, r0
    1304:	02b20f00 	adcseq	r0, r2, #0, 30
    1308:	c4010000 	strgt	r0, [r1], #-0
    130c:	00008718 	andeq	r8, r0, r8, lsl r7
    1310:	00000098 	muleq	r0, r8, r0
    1314:	09449c01 	stmdbeq	r4, {r0, sl, fp, ip, pc}^
    1318:	701f0000 	andsvc	r0, pc, r0
    131c:	c4010063 	strgt	r0, [r1], #-99	; 0x63
    1320:	0000002c 	andeq	r0, r0, ip, lsr #32
    1324:	00000535 	andeq	r0, r0, r5, lsr r5
    1328:	00012a12 	andeq	r2, r1, r2, lsl sl
    132c:	00095400 	andeq	r5, r9, r0, lsl #8
    1330:	c8030500 	stmdagt	r3, {r8, sl}
    1334:	13000099 	movwne	r0, #153	; 0x99
    1338:	0000021f 	andeq	r0, r0, pc, lsl r2
    133c:	00008724 	andeq	r8, r0, r4, lsr #14
    1340:	00000008 	andeq	r0, r0, r8
    1344:	0889c601 	stmeq	r9, {r0, r9, sl, lr, pc}
    1348:	24140000 	ldrcs	r0, [r4], #-0
    134c:	08000087 	stmdaeq	r0, {r0, r1, r2, r7}
    1350:	21000000 	mrscs	r0, (UNDEF: 0)
    1354:	0000022f 	andeq	r0, r0, pc, lsr #4
    1358:	0000d922 	andeq	sp, r0, r2, lsr #18
    135c:	00872400 	addeq	r2, r7, r0, lsl #8
    1360:	00000400 	andeq	r0, r0, r0, lsl #8
    1364:	14aa0200 	strtne	r0, [sl], #512	; 0x200
    1368:	00008724 	andeq	r8, r0, r4, lsr #14
    136c:	00000004 	andeq	r0, r0, r4
    1370:	0000e915 	andeq	lr, r0, r5, lsl r9
    1374:	00059300 	andeq	r9, r5, r0, lsl #6
    1378:	00000000 	andeq	r0, r0, r0
    137c:	02391300 	eorseq	r1, r9, #0, 6
    1380:	87840000 	strhi	r0, [r4, r0]
    1384:	00040000 	andeq	r0, r4, r0
    1388:	ca010000 	bgt	41390 <__bss_end__+0x37368>
    138c:	000008ac 	andeq	r0, r0, ip, lsr #17
    1390:	00878414 	addeq	r8, r7, r4, lsl r4
    1394:	00000400 	andeq	r0, r0, r0, lsl #8
    1398:	02492100 	subeq	r2, r9, #0, 2
    139c:	00000000 	andeq	r0, r0, r0
    13a0:	00873819 	addeq	r3, r7, r9, lsl r8
    13a4:	000bc600 	andeq	ip, fp, r0, lsl #12
    13a8:	874c1a00 	strbhi	r1, [ip, -r0, lsl #20]
    13ac:	0bcd0000 	bleq	ff3413b4 <__bss_end__+0xff33738c>
    13b0:	08e40000 	stmiaeq	r4!, {}^	; <UNPREDICTABLE>
    13b4:	011b0000 	tsteq	fp, r0
    13b8:	c7080253 	smlsdgt	r8, r3, r2, r0
    13bc:	0552011b 	ldrbeq	r0, [r2, #-283]	; 0x11b
    13c0:	0099c803 	addseq	ip, r9, r3, lsl #16
    13c4:	51011b00 	tstpl	r1, r0, lsl #22
    13c8:	98940305 	ldmls	r4, {r0, r2, r8, r9}
    13cc:	011b0000 	tsteq	fp, r0
    13d0:	b4030550 	strlt	r0, [r3], #-1360	; 0x550
    13d4:	00000096 	muleq	r0, r6, r0
    13d8:	00875019 	addeq	r5, r7, r9, lsl r0
    13dc:	000be300 	andeq	lr, fp, r0, lsl #6
    13e0:	87641900 	strbhi	r1, [r4, -r0, lsl #18]!
    13e4:	0bc60000 	bleq	ff1813ec <__bss_end__+0xff1773c4>
    13e8:	801a0000 	andshi	r0, sl, r0
    13ec:	cd000087 	stcgt	0, cr0, [r0, #-540]	; 0xfffffde4
    13f0:	2f00000b 	svccs	0x0000000b
    13f4:	1b000009 	blne	1420 <__code_start__-0x6be0>
    13f8:	08025301 	stmdaeq	r2, {r0, r8, r9, ip, lr}
    13fc:	52011bc8 	andpl	r1, r1, #200, 22	; 0x32000
    1400:	99c80305 	stmibls	r8, {r0, r2, r8, r9}^
    1404:	011b0000 	tsteq	fp, r0
    1408:	94030551 	strls	r0, [r3], #-1361	; 0x551
    140c:	1b000098 	blne	1674 <__code_start__-0x698c>
    1410:	03055001 	movweq	r5, #20481	; 0x5001
    1414:	000095f4 	strdeq	r9, [r0], -r4
    1418:	007d021b 	rsbseq	r0, sp, fp, lsl r2
    141c:	992c0305 	stmdbls	ip!, {r0, r2, r8, r9}
    1420:	19000000 	stmdbne	r0, {}	; <UNPREDICTABLE>
    1424:	00008784 	andeq	r8, r0, r4, lsl #15
    1428:	00000be3 	andeq	r0, r0, r3, ror #23
    142c:	00879024 	addeq	r9, r7, r4, lsr #32
    1430:	50011b00 	andpl	r1, r1, r0, lsl #22
    1434:	00003001 	andeq	r3, r0, r1
    1438:	00007f1c 	andeq	r7, r0, ip, lsl pc
    143c:	00095400 	andeq	r5, r9, r0, lsl #8
    1440:	00761d00 	rsbseq	r1, r6, r0, lsl #26
    1444:	00150000 	andseq	r0, r5, r0
    1448:	00094407 	andeq	r4, r9, r7, lsl #8
    144c:	06950f00 	ldreq	r0, [r5], r0, lsl #30
    1450:	cd010000 	stcgt	0, cr0, [r1, #-0]
    1454:	000087b0 			; <UNDEFINED> instruction: 0x000087b0
    1458:	00000004 	andeq	r0, r0, r4
    145c:	097b9c01 	ldmdbeq	fp!, {r0, sl, fp, ip, pc}^
    1460:	70280000 	eorvc	r0, r8, r0
    1464:	cd010063 	stcgt	0, cr0, [r1, #-396]	; 0xfffffe74
    1468:	0000002c 	andeq	r0, r0, ip, lsr #32
    146c:	0f005001 	svceq	0x00005001
    1470:	00000347 	andeq	r0, r0, r7, asr #6
    1474:	87b4d801 	ldrhi	sp, [r4, r1, lsl #16]!
    1478:	002c0000 	eoreq	r0, ip, r0
    147c:	9c010000 	stcls	0, cr0, [r1], {-0}
    1480:	000009e1 	andeq	r0, r0, r1, ror #19
    1484:	00012a12 	andeq	r2, r1, r2, lsl sl
    1488:	0009f100 	andeq	pc, r9, r0, lsl #2
    148c:	e0030500 	and	r0, r3, r0, lsl #10
    1490:	19000099 	stmdbne	r0, {r0, r3, r4, r7}
    1494:	000087bc 			; <UNDEFINED> instruction: 0x000087bc
    1498:	00000bc6 	andeq	r0, r0, r6, asr #23
    149c:	0087d01a 	addeq	sp, r7, sl, lsl r0
    14a0:	000bcd00 	andeq	ip, fp, r0, lsl #26
    14a4:	0009d700 	andeq	sp, r9, r0, lsl #14
    14a8:	53011b00 	movwpl	r1, #6912	; 0x1b00
    14ac:	1bd90802 	blne	ff6434bc <__bss_end__+0xff639494>
    14b0:	03055201 	movweq	r5, #20993	; 0x5201
    14b4:	000099e0 	andeq	r9, r0, r0, ror #19
    14b8:	0551011b 	ldrbeq	r0, [r1, #-283]	; 0x11b
    14bc:	00989403 	addseq	r9, r8, r3, lsl #8
    14c0:	50011b00 	andpl	r1, r1, r0, lsl #22
    14c4:	993c0305 	ldmdbls	ip!, {r0, r2, r8, r9}
    14c8:	19000000 	stmdbne	r0, {}	; <UNPREDICTABLE>
    14cc:	000087d4 	ldrdeq	r8, [r0], -r4
    14d0:	00000be3 	andeq	r0, r0, r3, ror #23
    14d4:	007f1c00 	rsbseq	r1, pc, r0, lsl #24
    14d8:	09f10000 	ldmibeq	r1!, {}^	; <UNPREDICTABLE>
    14dc:	761d0000 	ldrvc	r0, [sp], -r0
    14e0:	10000000 	andne	r0, r0, r0
    14e4:	09e10700 	stmibeq	r1!, {r8, r9, sl}^
    14e8:	090f0000 	stmdbeq	pc, {}	; <UNPREDICTABLE>
    14ec:	01000000 	mrseq	r0, (UNDEF: 0)
    14f0:	0087e0dc 	ldrdeq	lr, [r7], ip
    14f4:	00003400 	andeq	r3, r0, r0, lsl #8
    14f8:	d49c0100 	ldrle	r0, [ip], #256	; 0x100
    14fc:	2600000a 	strcs	r0, [r0], -sl
    1500:	000003e4 	andeq	r0, r0, r4, ror #7
    1504:	005ddc01 	subseq	sp, sp, r1, lsl #24
    1508:	50010000 	andpl	r0, r1, r0
    150c:	00014326 	andeq	r4, r1, r6, lsr #6
    1510:	91dc0100 	bicsls	r0, ip, r0, lsl #2
    1514:	01000000 	mrseq	r0, (UNDEF: 0)
    1518:	03fc1151 	mvnseq	r1, #1073741844	; 0x40000014
    151c:	dd010000 	stcle	0, cr0, [r1, #-0]
    1520:	0000005d 	andeq	r0, r0, sp, asr r0
    1524:	000005a6 	andeq	r0, r0, r6, lsr #11
    1528:	0003c220 	andeq	ip, r3, r0, lsr #4
    152c:	5de50100 	stfple	f0, [r5]
    1530:	01000000 	mrseq	r0, (UNDEF: 0)
    1534:	01d71350 	bicseq	r1, r7, r0, asr r3
    1538:	87e00000 	strbhi	r0, [r0, r0]!
    153c:	00040000 	andeq	r0, r4, r0
    1540:	dd010000 	stcle	0, cr0, [r1, #-0]
    1544:	00000a68 	andeq	r0, r0, r8, ror #20
    1548:	0087e014 	addeq	lr, r7, r4, lsl r0
    154c:	00000400 	andeq	r0, r0, r0, lsl #8
    1550:	01e71500 	mvneq	r1, r0, lsl #10
    1554:	05c90000 	strbeq	r0, [r9]
    1558:	00000000 	andeq	r0, r0, r0
    155c:	0001f313 	andeq	pc, r1, r3, lsl r3	; <UNPREDICTABLE>
    1560:	0087e800 	addeq	lr, r7, r0, lsl #16
    1564:	00000400 	andeq	r0, r0, r0, lsl #8
    1568:	85e30100 	strbhi	r0, [r3, #256]!	; 0x100
    156c:	1600000a 	strne	r0, [r0], -sl
    1570:	000001ff 	strdeq	r0, [r0], -pc	; <UNPREDICTABLE>
    1574:	000005dc 	ldrdeq	r0, [r0], -ip
    1578:	02091300 	andeq	r1, r9, #0, 6
    157c:	87ec0000 	strbhi	r0, [ip, r0]!
    1580:	00040000 	andeq	r0, r4, r0
    1584:	e8010000 	stmda	r1, {}	; <UNPREDICTABLE>
    1588:	00000aa0 	andeq	r0, r0, r0, lsr #21
    158c:	00021527 	andeq	r1, r2, r7, lsr #10
    1590:	00500100 	subseq	r0, r0, r0, lsl #2
    1594:	0001f313 	andeq	pc, r1, r3, lsl r3	; <UNPREDICTABLE>
    1598:	0087f000 	addeq	pc, r7, r0
    159c:	00000800 	andeq	r0, r0, r0, lsl #16
    15a0:	bdf20100 	ldflte	f0, [r2]
    15a4:	2900000a 	stmdbcs	r0, {r1, r3}
    15a8:	000001ff 	strdeq	r0, [r0], -pc	; <UNPREDICTABLE>
    15ac:	004001e7 	subeq	r0, r0, r7, ror #3
    15b0:	01572200 	cmpeq	r7, r0, lsl #4
    15b4:	87f80000 	ldrbhi	r0, [r8, r0]!
    15b8:	00080000 	andeq	r0, r8, r0
    15bc:	f3010000 	vhadd.u8	d0, d1, d0
    15c0:	00016318 	andeq	r6, r1, r8, lsl r3
    15c4:	00000000 	andeq	r0, r0, r0
    15c8:	0000340f 	andeq	r3, r0, pc, lsl #8
    15cc:	14f80100 	ldrbtne	r0, [r8], #256	; 0x100
    15d0:	10000088 	andne	r0, r0, r8, lsl #1
    15d4:	01000000 	mrseq	r0, (UNDEF: 0)
    15d8:	000b209c 	muleq	fp, ip, r0
    15dc:	03e42600 	mvneq	r2, #0, 12
    15e0:	f8010000 			; <UNDEFINED> instruction: 0xf8010000
    15e4:	0000005d 	andeq	r0, r0, sp, asr r0
    15e8:	fc2a5001 	stc2	0, cr5, [sl], #-4
    15ec:	01000003 	tsteq	r0, r3
    15f0:	00005df9 	strdeq	r5, [r0], -r9
    15f4:	4001e600 	andmi	lr, r1, r0, lsl #12
    15f8:	01f32b00 	mvnseq	r2, r0, lsl #22
    15fc:	88140000 	ldmdahi	r4, {}	; <UNPREDICTABLE>
    1600:	00100000 	andseq	r0, r0, r0
    1604:	00010000 	andeq	r0, r1, r0
    1608:	01ff2901 	mvnseq	r2, r1, lsl #18
    160c:	01e60000 	mvneq	r0, r0
    1610:	00000040 	andeq	r0, r0, r0, asr #32
    1614:	0003d42c 	andeq	sp, r3, ip, lsr #8
    1618:	01090100 	mrseq	r0, (UNDEF: 25)
    161c:	00000025 	andeq	r0, r0, r5, lsr #32
    1620:	00008824 	andeq	r8, r0, r4, lsr #16
    1624:	0000004c 	andeq	r0, r0, ip, asr #32
    1628:	0b939c01 	bleq	fe4e8634 <__bss_end__+0xfe4de60c>
    162c:	702d0000 	eorvc	r0, sp, r0
    1630:	09010063 	stmdbeq	r1, {r0, r1, r5, r6}
    1634:	00002c01 	andeq	r2, r0, r1, lsl #24
    1638:	0005ef00 	andeq	lr, r5, r0, lsl #30
    163c:	30722d00 	rsbscc	r2, r2, r0, lsl #26
    1640:	01090100 	mrseq	r0, (UNDEF: 25)
    1644:	0000005d 	andeq	r0, r0, sp, asr r0
    1648:	00000629 	andeq	r0, r0, r9, lsr #12
    164c:	00040e2e 	andeq	r0, r4, lr, lsr #28
    1650:	010a0100 	mrseq	r0, (UNDEF: 26)
    1654:	0000005d 	andeq	r0, r0, sp, asr r0
    1658:	00000663 	andeq	r0, r0, r3, ror #12
    165c:	0088501a 	addeq	r5, r8, sl, lsl r0
    1660:	000bcd00 	andeq	ip, fp, r0, lsl #26
    1664:	000b7f00 	andeq	r7, fp, r0, lsl #30
    1668:	50011b00 	andpl	r1, r1, r0, lsl #22
    166c:	996c0305 	stmdbls	ip!, {r0, r2, r8, r9}^
    1670:	2f000000 	svccs	0x00000000
    1674:	00008860 	andeq	r8, r0, r0, ror #16
    1678:	00000bcd 	andeq	r0, r0, sp, asr #23
    167c:	0550011b 	ldrbeq	r0, [r0, #-283]	; 0x11b
    1680:	00997803 	addseq	r7, r9, r3, lsl #16
    1684:	20000000 	andcs	r0, r0, r0
    1688:	00000378 	andeq	r0, r0, r8, ror r3
    168c:	00910b01 	addseq	r0, r1, r1, lsl #22
    1690:	03050000 	movweq	r0, #20480	; 0x5000
    1694:	00009c10 	andeq	r9, r0, r0, lsl ip
    1698:	00030b20 	andeq	r0, r3, r0, lsr #22
    169c:	91890100 	orrls	r0, r9, r0, lsl #2
    16a0:	05000000 	streq	r0, [r0, #-0]
    16a4:	009c1403 	addseq	r1, ip, r3, lsl #8
    16a8:	028d3000 	addeq	r3, sp, #0
    16ac:	d5010000 	strle	r0, [r1, #-0]
    16b0:	00000025 	andeq	r0, r0, r5, lsr #32
    16b4:	9c180305 	ldcls	3, cr0, [r8], {5}
    16b8:	7e310000 	cdpvc	0, 3, cr0, cr1, cr0, {0}
    16bc:	04000002 	streq	r0, [r0], #-2
    16c0:	04aa321e 	strteq	r3, [sl], #542	; 0x21e
    16c4:	29040000 	stmdbcs	r4, {}	; <UNPREDICTABLE>
    16c8:	00000025 	andeq	r0, r0, r5, lsr #32
    16cc:	00000be3 	andeq	r0, r0, r3, ror #23
    16d0:	00008609 	andeq	r8, r0, r9, lsl #12
    16d4:	31003300 	mrscc	r3, LR_irq
    16d8:	000000f1 	strdeq	r0, [r0], -r1
    16dc:	2a316504 	bcs	c5aaf4 <__bss_end__+0xc50acc>
    16e0:	05000004 	streq	r0, [r0, #-4]
    16e4:	01910036 	orrseq	r0, r1, r6, lsr r0
    16e8:	00040000 	andeq	r0, r4, r0
    16ec:	00000505 	andeq	r0, r0, r5, lsl #10
    16f0:	04500104 	ldrbeq	r0, [r0], #-260	; 0x104
    16f4:	42010000 	andmi	r0, r1, #0
    16f8:	bb000004 	bllt	1710 <__code_start__-0x68f0>
    16fc:	88000004 	stmdahi	r0, {r2}
    1700:	58000089 	stmdapl	r0, {r0, r3, r7}
    1704:	08000000 	stmdaeq	r0, {}	; <UNPREDICTABLE>
    1708:	02000004 	andeq	r0, r0, #4
    170c:	00000433 	andeq	r0, r0, r3, lsr r4
    1710:	00302802 	eorseq	r2, r0, r2, lsl #16
    1714:	b1030000 	mrslt	r0, (UNDEF: 3)
    1718:	04000004 	streq	r0, [r0], #-4
    171c:	00470003 	subeq	r0, r7, r3
    1720:	01040000 	mrseq	r0, (UNDEF: 4)
    1724:	47000005 	strmi	r0, [r0, -r5]
    1728:	00000000 	andeq	r0, r0, r0
    172c:	02040500 	andeq	r0, r4, #0, 10
    1730:	000004b3 			; <UNDEFINED> instruction: 0x000004b3
    1734:	00256202 	eoreq	r6, r5, r2, lsl #4
    1738:	04060000 	streq	r0, [r6], #-0
    173c:	746e6905 	strbtvc	r6, [lr], #-2309	; 0x905
    1740:	07040700 	streq	r0, [r4, -r0, lsl #14]
    1744:	000001c2 	andeq	r0, r0, r2, asr #3
    1748:	e5060107 	str	r0, [r6, #-263]	; 0x107
    174c:	07000000 	streq	r0, [r0, -r0]
    1750:	02370502 	eorseq	r0, r7, #8388608	; 0x800000
    1754:	04070000 	streq	r0, [r7], #-0
    1758:	00020005 	andeq	r0, r2, r5
    175c:	05080700 	streq	r0, [r8, #-1792]	; 0x700
    1760:	000001fb 	strdeq	r0, [r0], -fp
    1764:	e3080107 	movw	r0, #33031	; 0x8107
    1768:	07000000 	streq	r0, [r0, -r0]
    176c:	004c0702 	subeq	r0, ip, r2, lsl #14
    1770:	04070000 	streq	r0, [r7], #-0
    1774:	0001bd07 	andeq	fp, r1, r7, lsl #26
    1778:	07080700 	streq	r0, [r8, -r0, lsl #14]
    177c:	000001b8 			; <UNDEFINED> instruction: 0x000001b8
    1780:	de070407 	cdple	4, 0, cr0, cr7, cr7, {0}
    1784:	08000001 	stmdaeq	r0, {r0}
    1788:	0000a704 	andeq	sl, r0, r4, lsl #14
    178c:	08010700 	stmdaeq	r1, {r8, r9, sl}
    1790:	000000ec 	andeq	r0, r0, ip, ror #1
    1794:	00b40408 	adcseq	r0, r4, r8, lsl #8
    1798:	a7090000 	strge	r0, [r9, -r0]
    179c:	0a000000 	beq	17a4 <__code_start__-0x685c>
    17a0:	000004aa 	andeq	r0, r0, sl, lsr #9
    17a4:	00540601 	subseq	r0, r4, r1, lsl #12
    17a8:	89880000 	stmibhi	r8, {}	; <UNPREDICTABLE>
    17ac:	00580000 	subseq	r0, r8, r0
    17b0:	9c010000 	stcls	0, cr0, [r1], {-0}
    17b4:	00000143 	andeq	r0, r0, r3, asr #2
    17b8:	746d660b 	strbtvc	r6, [sp], #-1547	; 0x60b
    17bc:	ae060100 	adfges	f0, f6, f0
    17c0:	02000000 	andeq	r0, r0, #0
    17c4:	0d0c7091 	stceq	0, cr7, [ip, #-580]	; 0xfffffdbc
    17c8:	00667562 	rsbeq	r7, r6, r2, ror #10
    17cc:	01430801 	cmpeq	r3, r1, lsl #16
    17d0:	03050000 	movweq	r0, #20480	; 0x5000
    17d4:	00009c24 	andeq	r9, r0, r4, lsr #24
    17d8:	0009bd0e 	andeq	fp, r9, lr, lsl #26
    17dc:	49090100 	stmdbmi	r9, {r8}
    17e0:	02000000 	andeq	r0, r0, #0
    17e4:	730f5c91 	movwvc	r5, #64657	; 0xfc91
    17e8:	0c01007a 	stceq	0, cr0, [r1], {122}	; 0x7a
    17ec:	00000054 	andeq	r0, r0, r4, asr r0
    17f0:	00000681 	andeq	r0, r0, r1, lsl #13
    17f4:	0089b010 	addeq	fp, r9, r0, lsl r0
    17f8:	00017400 	andeq	r7, r1, r0, lsl #8
    17fc:	00013600 	andeq	r3, r1, r0, lsl #12
    1800:	53011100 	movwpl	r1, #4352	; 0x1100
    1804:	114c9102 	cmpne	ip, r2, lsl #2
    1808:	91035201 	tstls	r3, r1, lsl #4
    180c:	01110648 	tsteq	r1, r8, asr #12
    1810:	000a0351 	andeq	r0, sl, r1, asr r3
    1814:	50011104 	andpl	r1, r1, r4, lsl #2
    1818:	00007402 	andeq	r7, r0, r2, lsl #8
    181c:	0089c412 	addeq	ip, r9, r2, lsl r4
    1820:	50011100 	andpl	r1, r1, r0, lsl #2
    1824:	00007402 	andeq	r7, r0, r2, lsl #8
    1828:	00a71300 	adceq	r1, r7, r0, lsl #6
    182c:	01540000 	cmpeq	r4, r0
    1830:	9a140000 	bls	501838 <__bss_end__+0x4f7810>
    1834:	ff000000 			; <UNDEFINED> instruction: 0xff000000
    1838:	54150003 	ldrpl	r0, [r5], #-3
    183c:	63000000 	movwvs	r0, #0
    1840:	16000001 	strne	r0, [r0], -r1
    1844:	000000ae 	andeq	r0, r0, lr, lsr #1
    1848:	055e1700 	ldrbeq	r1, [lr, #-1792]	; 0x700
    184c:	22040000 	andcs	r0, r4, #0
    1850:	0000016e 	andeq	r0, r0, lr, ror #2
    1854:	01540408 	cmpeq	r4, r8, lsl #8
    1858:	a7180000 	ldrge	r0, [r8, -r0]
    185c:	05000004 	streq	r0, [r0, #-4]
    1860:	00005402 	andeq	r5, r0, r2, lsl #8
    1864:	00a11600 	adceq	r1, r1, r0, lsl #12
    1868:	54160000 	ldrpl	r0, [r6], #-0
    186c:	16000000 	strne	r0, [r0], -r0
    1870:	000000ae 	andeq	r0, r0, lr, lsr #1
    1874:	00004916 	andeq	r4, r0, r6, lsl r9
    1878:	13000000 	movwne	r0, #0
    187c:	04000001 	streq	r0, [r0], #-1
    1880:	00063600 	andeq	r3, r6, r0, lsl #12
    1884:	50010400 	andpl	r0, r1, r0, lsl #8
    1888:	01000004 	tsteq	r0, r4
    188c:	0000052d 	andeq	r0, r0, sp, lsr #10
    1890:	000004bb 			; <UNDEFINED> instruction: 0x000004bb
    1894:	000089e0 	andeq	r8, r0, r0, ror #19
    1898:	0000003c 	andeq	r0, r0, ip, lsr r0
    189c:	00000518 	andeq	r0, r0, r8, lsl r5
    18a0:	69050402 	stmdbvs	r5, {r1, sl}
    18a4:	0300746e 	movweq	r7, #1134	; 0x46e
    18a8:	01c20704 	biceq	r0, r2, r4, lsl #14
    18ac:	01030000 	mrseq	r0, (UNDEF: 3)
    18b0:	0000e506 	andeq	lr, r0, r6, lsl #10
    18b4:	05020300 	streq	r0, [r2, #-768]	; 0x300
    18b8:	00000237 	andeq	r0, r0, r7, lsr r2
    18bc:	00050403 	andeq	r0, r5, r3, lsl #8
    18c0:	03000002 	movweq	r0, #2
    18c4:	01fb0508 	mvnseq	r0, r8, lsl #10
    18c8:	01030000 	mrseq	r0, (UNDEF: 3)
    18cc:	0000e308 	andeq	lr, r0, r8, lsl #6
    18d0:	07020300 	streq	r0, [r2, -r0, lsl #6]
    18d4:	0000004c 	andeq	r0, r0, ip, asr #32
    18d8:	bd070403 	cfstrslt	mvf0, [r7, #-12]
    18dc:	03000001 	movweq	r0, #1
    18e0:	01b80708 			; <UNDEFINED> instruction: 0x01b80708
    18e4:	04030000 	streq	r0, [r3], #-0
    18e8:	0001de07 	andeq	sp, r1, r7, lsl #28
    18ec:	08010300 	stmdaeq	r1, {r8, r9}
    18f0:	000000ec 	andeq	r0, r0, ip, ror #1
    18f4:	00051004 	andeq	r1, r5, r4
    18f8:	25030100 	strcs	r0, [r3, #-256]	; 0x100
    18fc:	e0000000 	and	r0, r0, r0
    1900:	14000089 	strne	r0, [r0], #-137	; 0x89
    1904:	01000000 	mrseq	r0, (UNDEF: 0)
    1908:	0000b09c 	muleq	r0, ip, r0
    190c:	00630500 	rsbeq	r0, r3, r0, lsl #10
    1910:	00250301 	eoreq	r0, r5, r1, lsl #6
    1914:	06aa0000 	strteq	r0, [sl], r0
    1918:	ec060000 	stc	0, cr0, [r6], {-0}
    191c:	09000089 	stmdbeq	r0, {r0, r3, r7}
    1920:	07000001 	streq	r0, [r0, -r1]
    1924:	74025001 	strvc	r5, [r2], #-1
    1928:	08000000 	stmdaeq	r0, {}	; <UNPREDICTABLE>
    192c:	0000027e 	andeq	r0, r0, lr, ror r2
    1930:	89f40801 	ldmibhi	r4!, {r0, fp}^
    1934:	00180000 	andseq	r0, r8, r0
    1938:	9c010000 	stcls	0, cr0, [r1], {-0}
    193c:	00053c09 	andeq	r3, r5, r9, lsl #24
    1940:	0c0b0100 	stfeqs	f0, [fp], {-0}
    1944:	1000008a 	andne	r0, r0, sl, lsl #1
    1948:	01000000 	mrseq	r0, (UNDEF: 0)
    194c:	0000e39c 	muleq	r0, ip, r3
    1950:	70660a00 	rsbvc	r0, r6, r0, lsl #20
    1954:	f20b0100 	vrhadd.s8	d0, d11, d0
    1958:	01000000 	mrseq	r0, (UNDEF: 0)
    195c:	250b0050 	strcs	r0, [fp, #-80]	; 0x50
    1960:	f2000000 	vhadd.s8	d0, d0, d0
    1964:	0c000000 	stceq	0, cr0, [r0], {-0}
    1968:	00000025 	andeq	r0, r0, r5, lsr #32
    196c:	e3040d00 	movw	r0, #19712	; 0x4d00
    1970:	0e000000 	cdpeq	0, 0, cr0, cr0, cr0, {0}
    1974:	00000521 	andeq	r0, r0, r1, lsr #10
    1978:	00f20601 	rscseq	r0, r2, r1, lsl #12
    197c:	03050000 	movweq	r0, #20480	; 0x5000
    1980:	00009598 	muleq	r0, r8, r5
    1984:	0005060f 	andeq	r0, r5, pc, lsl #12
    1988:	0c3c0200 	lfmeq	f0, 4, [ip], #-0
    198c:	0000002c 	andeq	r0, r0, ip, lsr #32
    1990:	00ee0000 	rsceq	r0, lr, r0
    1994:	00040000 	andeq	r0, r4, r0
    1998:	0000071e 	andeq	r0, r0, lr, lsl r7
    199c:	04500104 	ldrbeq	r0, [r0], #-260	; 0x104
    19a0:	49010000 	stmdbmi	r1, {}	; <UNPREDICTABLE>
    19a4:	bb000005 	bllt	19c0 <__code_start__-0x6640>
    19a8:	1c000004 	stcne	0, cr0, [r0], {4}
    19ac:	3400008a 	strcc	r0, [r0], #-138	; 0x8a
    19b0:	b0000000 	andlt	r0, r0, r0
    19b4:	02000005 	andeq	r0, r0, #5
    19b8:	6e690504 	cdpvs	5, 6, cr0, cr9, cr4, {0}
    19bc:	04030074 	streq	r0, [r3], #-116	; 0x74
    19c0:	0001c207 	andeq	ip, r1, r7, lsl #4
    19c4:	06010300 	streq	r0, [r1], -r0, lsl #6
    19c8:	000000e5 	andeq	r0, r0, r5, ror #1
    19cc:	37050203 	strcc	r0, [r5, -r3, lsl #4]
    19d0:	03000002 	movweq	r0, #2
    19d4:	02000504 	andeq	r0, r0, #4, 10	; 0x1000000
    19d8:	08030000 	stmdaeq	r3, {}	; <UNPREDICTABLE>
    19dc:	0001fb05 	andeq	pc, r1, r5, lsl #22
    19e0:	08010300 	stmdaeq	r1, {r8, r9}
    19e4:	000000e3 	andeq	r0, r0, r3, ror #1
    19e8:	4c070203 	sfmmi	f0, 4, [r7], {3}
    19ec:	03000000 	movweq	r0, #0
    19f0:	01bd0704 			; <UNDEFINED> instruction: 0x01bd0704
    19f4:	08030000 	stmdaeq	r3, {}	; <UNPREDICTABLE>
    19f8:	0001b807 	andeq	fp, r1, r7, lsl #16
    19fc:	07040300 	streq	r0, [r4, -r0, lsl #6]
    1a00:	000001de 	ldrdeq	r0, [r0], -lr
    1a04:	ec080103 	stfs	f0, [r8], {3}
    1a08:	04000000 	streq	r0, [r0], #-0
    1a0c:	00007f04 	andeq	r7, r0, r4, lsl #30
    1a10:	00720500 	rsbseq	r0, r2, r0, lsl #10
    1a14:	55060000 	strpl	r0, [r6, #-0]
    1a18:	01000005 	tsteq	r0, r5
    1a1c:	00002504 	andeq	r2, r0, r4, lsl #10
    1a20:	008a1c00 	addeq	r1, sl, r0, lsl #24
    1a24:	00003400 	andeq	r3, r0, r0, lsl #8
    1a28:	ab9c0100 	blge	fe701e30 <__bss_end__+0xfe6f7e08>
    1a2c:	07000000 	streq	r0, [r0, -r0]
    1a30:	04010070 	streq	r0, [r1], #-112	; 0x70
    1a34:	00000079 	andeq	r0, r0, r9, ror r0
    1a38:	000006c8 	andeq	r0, r0, r8, asr #13
    1a3c:	00250800 	eoreq	r0, r5, r0, lsl #16
    1a40:	00ba0000 	adcseq	r0, sl, r0
    1a44:	25090000 	strcs	r0, [r9, #-0]
    1a48:	00000000 	andeq	r0, r0, r0
    1a4c:	0005210a 	andeq	r2, r5, sl, lsl #2
    1a50:	c51d0200 	ldrgt	r0, [sp, #-512]	; 0x200
    1a54:	04000000 	streq	r0, [r0], #-0
    1a58:	0000ab04 	andeq	sl, r0, r4, lsl #22
    1a5c:	00250800 	eoreq	r0, r5, r0, lsl #16
    1a60:	00da0000 	sbcseq	r0, sl, r0
    1a64:	79090000 	stmdbvc	r9, {}	; <UNPREDICTABLE>
    1a68:	00000000 	andeq	r0, r0, r0
    1a6c:	00055e0b 	andeq	r5, r5, fp, lsl #28
    1a70:	eb0c0100 	bl	301e78 <__bss_end__+0x2f7e50>
    1a74:	05000000 	streq	r0, [r0, #-0]
    1a78:	00959c03 	addseq	r9, r5, r3, lsl #24
    1a7c:	cb040400 	blgt	102a84 <__bss_end__+0xf8a5c>
    1a80:	00000000 	andeq	r0, r0, r0
    1a84:	000006e5 	andeq	r0, r0, r5, ror #13
    1a88:	07b70004 	ldreq	r0, [r7, r4]!
    1a8c:	01040000 	mrseq	r0, (UNDEF: 4)
    1a90:	00000450 	andeq	r0, r0, r0, asr r4
    1a94:	00059401 	andeq	r9, r5, r1, lsl #8
    1a98:	0004bb00 	andeq	fp, r4, r0, lsl #22
    1a9c:	008a5000 	addeq	r5, sl, r0
    1aa0:	00057800 	andeq	r7, r5, r0, lsl #16
    1aa4:	00065400 	andeq	r5, r6, r0, lsl #8
    1aa8:	05040200 	streq	r0, [r4, #-512]	; 0x200
    1aac:	00746e69 	rsbseq	r6, r4, r9, ror #28
    1ab0:	c2070403 	andgt	r0, r7, #50331648	; 0x3000000
    1ab4:	03000001 	movweq	r0, #1
    1ab8:	00e50601 	rsceq	r0, r5, r1, lsl #12
    1abc:	02030000 	andeq	r0, r3, #0
    1ac0:	00023705 	andeq	r3, r2, r5, lsl #14
    1ac4:	05040300 	streq	r0, [r4, #-768]	; 0x300
    1ac8:	00000200 	andeq	r0, r0, r0, lsl #4
    1acc:	fb050803 	blx	143ae2 <__bss_end__+0x139aba>
    1ad0:	03000001 	movweq	r0, #1
    1ad4:	00e30801 	rsceq	r0, r3, r1, lsl #16
    1ad8:	02030000 	andeq	r0, r3, #0
    1adc:	00004c07 	andeq	r4, r0, r7, lsl #24
    1ae0:	07040300 	streq	r0, [r4, -r0, lsl #6]
    1ae4:	000001bd 			; <UNDEFINED> instruction: 0x000001bd
    1ae8:	b8070803 	stmdalt	r7, {r0, r1, fp}
    1aec:	03000001 	movweq	r0, #1
    1af0:	01de0704 	bicseq	r0, lr, r4, lsl #14
    1af4:	04040000 	streq	r0, [r4], #-0
    1af8:	007a0405 	rsbseq	r0, sl, r5, lsl #8
    1afc:	01030000 	mrseq	r0, (UNDEF: 3)
    1b00:	0000ec08 	andeq	lr, r0, r8, lsl #24
    1b04:	87040500 	strhi	r0, [r4, -r0, lsl #10]
    1b08:	06000000 	streq	r0, [r0], -r0
    1b0c:	0000007a 	andeq	r0, r0, sl, ror r0
    1b10:	00043307 	andeq	r3, r4, r7, lsl #6
    1b14:	97280200 	strls	r0, [r8, -r0, lsl #4]!
    1b18:	08000000 	stmdaeq	r0, {}	; <UNPREDICTABLE>
    1b1c:	000004b1 			; <UNDEFINED> instruction: 0x000004b1
    1b20:	ae000404 	cdpge	4, 0, cr0, cr0, cr4, {0}
    1b24:	09000000 	stmdbeq	r0, {}	; <UNPREDICTABLE>
    1b28:	00000501 	andeq	r0, r0, r1, lsl #10
    1b2c:	00000072 	andeq	r0, r0, r2, ror r0
    1b30:	b3070000 	movwlt	r0, #28672	; 0x7000
    1b34:	02000004 	andeq	r0, r0, #4
    1b38:	00008c62 	andeq	r8, r0, r2, ror #24
    1b3c:	057b0a00 	ldrbeq	r0, [fp, #-2560]!	; 0xa00
    1b40:	27010000 	strcs	r0, [r1, -r0]
    1b44:	00000025 	andeq	r0, r0, r5, lsr #32
    1b48:	00008a50 	andeq	r8, r0, r0, asr sl
    1b4c:	00000014 	andeq	r0, r0, r4, lsl r0
    1b50:	00e09c01 	rsceq	r9, r0, r1, lsl #24
    1b54:	630b0000 	movwvs	r0, #45056	; 0xb000
    1b58:	25270100 	strcs	r0, [r7, #-256]!	; 0x100
    1b5c:	e6000000 	str	r0, [r0], -r0
    1b60:	00000006 	andeq	r0, r0, r6
    1b64:	6461700c 	strbtvs	r7, [r1], #-12
    1b68:	742e0100 	strtvc	r0, [lr], #-256	; 0x100
    1b6c:	64000000 	strvs	r0, [r0], #-0
    1b70:	2c00008a 	stccs	0, cr0, [r0], {138}	; 0x8a
    1b74:	01000000 	mrseq	r0, (UNDEF: 0)
    1b78:	0001309c 	muleq	r1, ip, r0
    1b7c:	00700b00 	rsbseq	r0, r0, r0, lsl #22
    1b80:	00742e01 	rsbseq	r2, r4, r1, lsl #28
    1b84:	07140000 	ldreq	r0, [r4, -r0]
    1b88:	9b0d0000 	blls	341b90 <__bss_end__+0x337b68>
    1b8c:	01000009 	tsteq	r0, r9
    1b90:	0000742e 	andeq	r7, r0, lr, lsr #8
    1b94:	00073f00 	andeq	r3, r7, r0, lsl #30
    1b98:	05b40e00 	ldreq	r0, [r4, #3584]!	; 0xe00
    1b9c:	2e010000 	cdpcs	0, 0, cr0, cr1, cr0, {0}
    1ba0:	00000025 	andeq	r0, r0, r5, lsr #32
    1ba4:	6c0f5201 	sfmvs	f5, 4, [pc], {1}
    1ba8:	01006e65 	tsteq	r0, r5, ror #28
    1bac:	0000252f 	andeq	r2, r0, pc, lsr #10
    1bb0:	00510100 	subseq	r0, r1, r0, lsl #2
    1bb4:	0005730a 	andeq	r7, r5, sl, lsl #6
    1bb8:	74370100 	ldrtvc	r0, [r7], #-256	; 0x100
    1bbc:	90000000 	andls	r0, r0, r0
    1bc0:	4000008a 	andmi	r0, r0, sl, lsl #1
    1bc4:	01000000 	mrseq	r0, (UNDEF: 0)
    1bc8:	00019c9c 	muleq	r1, ip, ip
    1bcc:	73640b00 	cmnvc	r4, #0, 22
    1bd0:	37010074 	smlsdxcc	r1, r4, r0, r0
    1bd4:	00000074 	andeq	r0, r0, r4, ror r0
    1bd8:	00000760 	andeq	r0, r0, r0, ror #14
    1bdc:	01006e0b 	tsteq	r0, fp, lsl #28
    1be0:	00002537 	andeq	r2, r0, r7, lsr r5
    1be4:	00079800 	andeq	r9, r7, r0, lsl #16
    1be8:	00700b00 	rsbseq	r0, r0, r0, lsl #22
    1bec:	00743701 	rsbseq	r3, r4, r1, lsl #14
    1bf0:	07b90000 	ldreq	r0, [r9, r0]!
    1bf4:	670d0000 	strvs	r0, [sp, -r0]
    1bf8:	01000005 	tsteq	r0, r5
    1bfc:	00007437 	andeq	r7, r0, r7, lsr r4
    1c00:	0007ef00 	andeq	lr, r7, r0, lsl #30
    1c04:	656c1000 	strbvs	r1, [ip, #-0]!
    1c08:	3901006e 	stmdbcc	r1, {r1, r2, r3, r5, r6}
    1c0c:	00000025 	andeq	r0, r0, r5, lsr #32
    1c10:	0000080d 	andeq	r0, r0, sp, lsl #16
    1c14:	0100730f 	tsteq	r0, pc, lsl #6
    1c18:	0000743d 	andeq	r7, r0, sp, lsr r4
    1c1c:	00500100 	subseq	r0, r0, r0, lsl #2
    1c20:	0005c20a 	andeq	ip, r5, sl, lsl #4
    1c24:	74470100 	strbvc	r0, [r7], #-256	; 0x100
    1c28:	d0000000 	andle	r0, r0, r0
    1c2c:	bc00008a 	stclt	0, cr0, [r0], {138}	; 0x8a
    1c30:	01000001 	tsteq	r0, r1
    1c34:	0002df9c 	muleq	r2, ip, pc	; <UNPREDICTABLE>
    1c38:	099b0d00 	ldmibeq	fp, {r8, sl, fp}
    1c3c:	47010000 	strmi	r0, [r1, -r0]
    1c40:	0000002c 	andeq	r0, r0, ip, lsr #32
    1c44:	00000834 	andeq	r0, r0, r4, lsr r8
    1c48:	7473640b 	ldrbtvc	r6, [r3], #-1035	; 0x40b
    1c4c:	74470100 	strbvc	r0, [r7], #-256	; 0x100
    1c50:	62000000 	andvs	r0, r0, #0
    1c54:	0b000008 	bleq	1c7c <__code_start__-0x6384>
    1c58:	4701006e 	strmi	r0, [r1, -lr, rrx]
    1c5c:	00000025 	andeq	r0, r0, r5, lsr #32
    1c60:	000008d0 	ldrdeq	r0, [r0], -r0	; <UNPREDICTABLE>
    1c64:	6c61760b 	stclvs	6, cr7, [r1], #-44	; 0xffffffd4
    1c68:	25470100 	strbcs	r0, [r7, #-256]	; 0x100
    1c6c:	fc000000 	stc2	0, cr0, [r0], {-0}
    1c70:	0d000008 	stceq	0, cr0, [r0, #-32]	; 0xffffffe0
    1c74:	000005b4 			; <UNDEFINED> instruction: 0x000005b4
    1c78:	00254701 	eoreq	r4, r5, r1, lsl #14
    1c7c:	097b0000 	ldmdbeq	fp!, {}^	; <UNPREDICTABLE>
    1c80:	8b0e0000 	blhi	381c88 <__bss_end__+0x377c60>
    1c84:	01000005 	tsteq	r0, r5
    1c88:	00002547 	andeq	r2, r0, r7, asr #10
    1c8c:	04910200 	ldreq	r0, [r1], #512	; 0x200
    1c90:	6675620f 	ldrbtvs	r6, [r5], -pc, lsl #4
    1c94:	df4c0100 	svcle	0x004c0100
    1c98:	03000002 	movweq	r0, #2
    1c9c:	107fa891 			; <UNDEFINED> instruction: 0x107fa891
    1ca0:	4c010070 	stcmi	0, cr0, [r1], {112}	; 0x70
    1ca4:	00000074 	andeq	r0, r0, r4, ror r0
    1ca8:	000009a5 	andeq	r0, r0, r5, lsr #19
    1cac:	01007510 	tsteq	r0, r0, lsl r5
    1cb0:	00002c4d 	andeq	r2, r0, sp, asr #24
    1cb4:	000a8f00 	andeq	r8, sl, r0, lsl #30
    1cb8:	012a1100 	teqeq	sl, r0, lsl #2
    1cbc:	02ff0000 	rscseq	r0, pc, #0
    1cc0:	03050000 	movweq	r0, #20480	; 0x5000
    1cc4:	000099f4 	strdeq	r9, [r0], -r4
    1cc8:	008b3c12 	addeq	r3, fp, r2, lsl ip
    1ccc:	00007400 	andeq	r7, r0, r0, lsl #8
    1cd0:	00026100 	andeq	r6, r2, r0, lsl #2
    1cd4:	056d1300 	strbeq	r1, [sp, #-768]!	; 0x300
    1cd8:	52010000 	andpl	r0, r1, #0
    1cdc:	0000002c 	andeq	r0, r0, ip, lsr #32
    1ce0:	00000b52 	andeq	r0, r0, r2, asr fp
    1ce4:	8c281400 	cfstrshi	mvf1, [r8], #-0
    1ce8:	06c40000 	strbeq	r0, [r4], r0
    1cec:	44150000 	ldrmi	r0, [r5], #-0
    1cf0:	cb00008c 	blgt	1f28 <__code_start__-0x60d8>
    1cf4:	a3000006 	movwge	r0, #6
    1cf8:	16000002 	strne	r0, [r0], -r2
    1cfc:	08025301 	stmdaeq	r2, {r0, r8, r9, ip, lr}
    1d00:	52011677 	andpl	r1, r1, #124780544	; 0x7700000
    1d04:	99f40305 	ldmibls	r4!, {r0, r2, r8, r9}^
    1d08:	01160000 	tsteq	r6, r0
    1d0c:	18030551 	stmdane	r3, {r0, r4, r6, r8, sl}
    1d10:	1600009a 			; <UNDEFINED> instruction: 0x1600009a
    1d14:	03055001 	movweq	r5, #20481	; 0x5001
    1d18:	000095f4 	strdeq	r9, [r0], -r4
    1d1c:	007d0216 	rsbseq	r0, sp, r6, lsl r2
    1d20:	9a2c0305 	bls	b0293c <__bss_end__+0xaf8914>
    1d24:	14000000 	strne	r0, [r0], #-0
    1d28:	00008c48 	andeq	r8, r0, r8, asr #24
    1d2c:	000006e1 	andeq	r0, r0, r1, ror #13
    1d30:	008c5015 	addeq	r5, ip, r5, lsl r0
    1d34:	0000e000 	andeq	lr, r0, r0
    1d38:	0002c100 	andeq	ip, r2, r0, lsl #2
    1d3c:	51011600 	tstpl	r1, r0, lsl #12
    1d40:	7fa09103 	svcvc	0x00a09103
    1d44:	8c641700 	stclhi	7, cr1, [r4], #-0
    1d48:	01300000 	teqeq	r0, r0
    1d4c:	01160000 	tsteq	r6, r0
    1d50:	a0910353 	addsge	r0, r1, r3, asr r3
    1d54:	5101167f 	tstpl	r1, pc, ror r6
    1d58:	16007402 	strne	r7, [r0], -r2, lsl #8
    1d5c:	75025001 	strvc	r5, [r2, #-1]
    1d60:	18000000 	stmdane	r0, {}	; <UNPREDICTABLE>
    1d64:	0000007a 	andeq	r0, r0, sl, ror r0
    1d68:	000002ef 	andeq	r0, r0, pc, ror #5
    1d6c:	00006b19 	andeq	r6, r0, r9, lsl fp
    1d70:	18003f00 	stmdane	r0, {r8, r9, sl, fp, ip, sp}
    1d74:	0000007a 	andeq	r0, r0, sl, ror r0
    1d78:	000002ff 	strdeq	r0, [r0], -pc	; <UNPREDICTABLE>
    1d7c:	00006b19 	andeq	r6, r0, r9, lsl fp
    1d80:	06000400 	streq	r0, [r0], -r0, lsl #8
    1d84:	000002ef 	andeq	r0, r0, pc, ror #5
    1d88:	0005a51a 	andeq	sl, r5, sl, lsl r5
    1d8c:	8c1f0100 	ldfhis	f0, [pc], {-0}
    1d90:	6800008c 	stmdavs	r0, {r2, r3, r7}
    1d94:	01000000 	mrseq	r0, (UNDEF: 0)
    1d98:	0003929c 	muleq	r3, ip, r2
    1d9c:	05ba0d00 	ldreq	r0, [sl, #3328]!	; 0xd00
    1da0:	1f010000 	svcne	0x00010000
    1da4:	000003a1 	andeq	r0, r0, r1, lsr #7
    1da8:	00000b7e 	andeq	r0, r0, lr, ror fp
    1dac:	0005830d 	andeq	r8, r5, sp, lsl #6
    1db0:	b61f0100 	ldrlt	r0, [pc], -r0, lsl #2
    1db4:	aa000003 	bge	1dc8 <__code_start__-0x6238>
    1db8:	1100000b 	tstne	r0, fp
    1dbc:	0000012a 	andeq	r0, r0, sl, lsr #2
    1dc0:	000003cc 	andeq	r0, r0, ip, asr #7
    1dc4:	99fc0305 	ldmibls	ip!, {r0, r2, r8, r9}^
    1dc8:	a0140000 	andsge	r0, r4, r0
    1dcc:	c400008c 	strgt	r0, [r0], #-140	; 0x8c
    1dd0:	15000006 	strne	r0, [r0, #-6]
    1dd4:	00008cbc 			; <UNDEFINED> instruction: 0x00008cbc
    1dd8:	000006cb 	andeq	r0, r0, fp, asr #13
    1ddc:	00000388 	andeq	r0, r0, r8, lsl #7
    1de0:	02530116 	subseq	r0, r3, #-2147483643	; 0x80000005
    1de4:	01162008 	tsteq	r6, r8
    1de8:	fc030552 	stc2	5, cr0, [r3], {82}	; 0x52
    1dec:	16000099 			; <UNDEFINED> instruction: 0x16000099
    1df0:	03055101 	movweq	r5, #20737	; 0x5101
    1df4:	00009a18 	andeq	r9, r0, r8, lsl sl
    1df8:	05500116 	ldrbeq	r0, [r0, #-278]	; 0x116
    1dfc:	0095f403 	addseq	pc, r5, r3, lsl #8
    1e00:	7d021600 	stcvc	6, cr1, [r2, #-0]
    1e04:	54030500 	strpl	r0, [r3], #-1280	; 0x500
    1e08:	0000009a 	muleq	r0, sl, r0
    1e0c:	008cc014 	addeq	ip, ip, r4, lsl r0
    1e10:	0006e100 	andeq	lr, r6, r0, lsl #2
    1e14:	251b0000 	ldrcs	r0, [fp, #-0]
    1e18:	a1000000 	mrsge	r0, (UNDEF: 0)
    1e1c:	1c000003 	stcne	0, cr0, [r0], {3}
    1e20:	00000025 	andeq	r0, r0, r5, lsr #32
    1e24:	92040500 	andls	r0, r4, #0, 10
    1e28:	1b000003 	blne	1e3c <__code_start__-0x61c4>
    1e2c:	00000025 	andeq	r0, r0, r5, lsr #32
    1e30:	000003b6 			; <UNDEFINED> instruction: 0x000003b6
    1e34:	0000811c 	andeq	r8, r0, ip, lsl r1
    1e38:	04050000 	streq	r0, [r5], #-0
    1e3c:	000003a7 	andeq	r0, r0, r7, lsr #7
    1e40:	00007a18 	andeq	r7, r0, r8, lsl sl
    1e44:	0003cc00 	andeq	ip, r3, r0, lsl #24
    1e48:	006b1900 	rsbeq	r1, fp, r0, lsl #18
    1e4c:	000e0000 	andeq	r0, lr, r0
    1e50:	0003bc06 	andeq	fp, r3, r6, lsl #24
    1e54:	04a71d00 	strteq	r1, [r7], #3328	; 0xd00
    1e58:	7f010000 	svcvc	0x00010000
    1e5c:	00000025 	andeq	r0, r0, r5, lsr #32
    1e60:	00008cf4 	strdeq	r8, [r0], -r4
    1e64:	000002d4 	ldrdeq	r0, [r0], -r4
    1e68:	06899c01 	streq	r9, [r9], r1, lsl #24
    1e6c:	620b0000 	andvs	r0, fp, #0
    1e70:	01006675 	tsteq	r0, r5, ror r6
    1e74:	0000747f 	andeq	r7, r0, pc, ror r4
    1e78:	000bd600 	andeq	sp, fp, r0, lsl #12
    1e7c:	006e0b00 	rsbeq	r0, lr, r0, lsl #22
    1e80:	00257f01 	eoreq	r7, r5, r1, lsl #30
    1e84:	0c020000 	stceq	0, cr0, [r2], {-0}
    1e88:	660b0000 	strvs	r0, [fp], -r0
    1e8c:	0100746d 	tsteq	r0, sp, ror #8
    1e90:	0000817f 	andeq	r8, r0, pc, ror r1
    1e94:	000c3000 	andeq	r3, ip, r0
    1e98:	09bd0d00 	ldmibeq	sp!, {r8, sl, fp}
    1e9c:	7f010000 	svcvc	0x00010000
    1ea0:	000000ae 	andeq	r0, r0, lr, lsr #1
    1ea4:	00000c4e 	andeq	r0, r0, lr, asr #24
    1ea8:	01007010 	tsteq	r0, r0, lsl r0
    1eac:	00007480 	andeq	r7, r0, r0, lsl #9
    1eb0:	000c6100 	andeq	r6, ip, r0, lsl #2
    1eb4:	00651000 	rsbeq	r1, r5, r0
    1eb8:	00748001 	rsbseq	r8, r4, r1
    1ebc:	0cdf0000 	ldcleq	0, cr0, [pc], {0}
    1ec0:	63130000 	tstvs	r3, #0
    1ec4:	01000005 	tsteq	r0, r5
    1ec8:	00008183 	andeq	r8, r0, r3, lsl #3
    1ecc:	000d0600 	andeq	r0, sp, r0, lsl #12
    1ed0:	012a1100 	teqeq	sl, r0, lsl #2
    1ed4:	06990000 	ldreq	r0, [r9], r0
    1ed8:	03050000 	movweq	r0, #20480	; 0x5000
    1edc:	00009a0c 	andeq	r9, r0, ip, lsl #20
    1ee0:	008d501e 	addeq	r5, sp, lr, lsl r0
    1ee4:	00022c00 	andeq	r2, r2, r0, lsl #24
    1ee8:	00731000 	rsbseq	r1, r3, r0
    1eec:	00748e01 	rsbseq	r8, r4, r1, lsl #28
    1ef0:	0d260000 	stceq	0, cr0, [r6, #-0]
    1ef4:	6e0f0000 	cdpvs	0, 0, cr0, cr15, cr0, {0}
    1ef8:	01006d75 	tsteq	r0, r5, ror sp
    1efc:	00069e8e 	andeq	r9, r6, lr, lsl #29
    1f00:	d8910300 	ldmle	r1, {r8, r9}
    1f04:	05b4137e 	ldreq	r1, [r4, #894]!	; 0x37e
    1f08:	8f010000 	svchi	0x00010000
    1f0c:	0000002c 	andeq	r0, r0, ip, lsr #32
    1f10:	00000d7b 	andeq	r0, r0, fp, ror sp
    1f14:	008d8015 	addeq	r8, sp, r5, lsl r0
    1f18:	0000b900 	andeq	fp, r0, r0, lsl #18
    1f1c:	0004a400 	andeq	sl, r4, r0, lsl #8
    1f20:	50011600 	andpl	r1, r1, r0, lsl #12
    1f24:	00007502 	andeq	r7, r0, r2, lsl #10
    1f28:	008d9414 	addeq	r9, sp, r4, lsl r4
    1f2c:	0006c400 	andeq	ip, r6, r0, lsl #8
    1f30:	8db01500 	cfldr32hi	mvfx1, [r0]
    1f34:	06cb0000 	strbeq	r0, [fp], r0
    1f38:	04e60000 	strbteq	r0, [r6], #0
    1f3c:	01160000 	tsteq	r6, r0
    1f40:	95080253 	strls	r0, [r8, #-595]	; 0x253
    1f44:	05520116 	ldrbeq	r0, [r2, #-278]	; 0x116
    1f48:	009a0c03 	addseq	r0, sl, r3, lsl #24
    1f4c:	51011600 	tstpl	r1, r0, lsl #12
    1f50:	9a180305 	bls	602b6c <__bss_end__+0x5f8b44>
    1f54:	01160000 	tsteq	r6, r0
    1f58:	f4030550 	vst3.16	{d0,d2,d4}, [r3 :64], r0
    1f5c:	16000095 			; <UNDEFINED> instruction: 0x16000095
    1f60:	05007d02 	streq	r7, [r0, #-3330]	; 0xd02
    1f64:	009a5c03 	addseq	r5, sl, r3, lsl #24
    1f68:	b4140000 	ldrlt	r0, [r4], #-0
    1f6c:	e100008d 	smlabb	r0, sp, r0, r0
    1f70:	14000006 	strne	r0, [r0], #-6
    1f74:	00008e24 	andeq	r8, r0, r4, lsr #28
    1f78:	000006c4 	andeq	r0, r0, r4, asr #13
    1f7c:	008e3815 	addeq	r3, lr, r5, lsl r8
    1f80:	0006cb00 	andeq	ip, r6, r0, lsl #22
    1f84:	00052700 	andeq	r2, r5, r0, lsl #14
    1f88:	53011600 	movwpl	r1, #5632	; 0x1600
    1f8c:	169b0802 	ldrne	r0, [fp], r2, lsl #16
    1f90:	03055201 	movweq	r5, #20993	; 0x5201
    1f94:	00009a0c 	andeq	r9, r0, ip, lsl #20
    1f98:	05510116 	ldrbeq	r0, [r1, #-278]	; 0x116
    1f9c:	009a1803 	addseq	r1, sl, r3, lsl #16
    1fa0:	50011600 	andpl	r1, r1, r0, lsl #12
    1fa4:	9a680305 	bls	1a02bc0 <__bss_end__+0x19f8b98>
    1fa8:	14000000 	strne	r0, [r0], #-0
    1fac:	00008e3c 	andeq	r8, r0, ip, lsr lr
    1fb0:	000006e1 	andeq	r0, r0, r1, ror #13
    1fb4:	008e6015 	addeq	r6, lr, r5, lsl r0
    1fb8:	00019c00 	andeq	r9, r1, r0, lsl #24
    1fbc:	00055d00 	andeq	r5, r5, r0, lsl #26
    1fc0:	52011600 	andpl	r1, r1, #0, 12
    1fc4:	16800802 	strne	r0, [r0], r2, lsl #16
    1fc8:	91035101 	tstls	r3, r1, lsl #2
    1fcc:	01167ed0 			; <UNDEFINED> instruction: 0x01167ed0
    1fd0:	163a0150 			; <UNDEFINED> instruction: 0x163a0150
    1fd4:	01047d02 	tsteq	r4, r2, lsl #26
    1fd8:	7d021631 	stcvc	6, cr1, [r2, #-196]	; 0xffffff3c
    1fdc:	00770200 	rsbseq	r0, r7, r0, lsl #4
    1fe0:	8e881500 	cdphi	5, 8, cr1, cr8, cr0, {0}
    1fe4:	019c0000 	orrseq	r0, ip, r0
    1fe8:	058a0000 	streq	r0, [sl]
    1fec:	01160000 	tsteq	r6, r0
    1ff0:	80080252 	andhi	r0, r8, r2, asr r2
    1ff4:	03510116 	cmpeq	r1, #-2147483643	; 0x80000005
    1ff8:	167ed091 			; <UNDEFINED> instruction: 0x167ed091
    1ffc:	3a015001 	bcc	56008 <__bss_end__+0x4bfe0>
    2000:	047d0216 	ldrbteq	r0, [sp], #-534	; 0x216
    2004:	02163001 	andseq	r3, r6, #1
    2008:	7702007d 	smlsdxvc	r2, sp, r0, r0
    200c:	b0150000 	andslt	r0, r5, r0
    2010:	9c00008e 	stcls	0, cr0, [r0], {142}	; 0x8e
    2014:	b7000001 	strlt	r0, [r0, -r1]
    2018:	16000005 	strne	r0, [r0], -r5
    201c:	08025201 	stmdaeq	r2, {r0, r9, ip, lr}
    2020:	51011680 	smlabbpl	r1, r0, r6, r1
    2024:	7ed09103 	atnvcs	f1, f3
    2028:	01500116 	cmpeq	r0, r6, lsl r1
    202c:	7d021640 	stcvc	6, cr1, [r2, #-256]	; 0xffffff00
    2030:	16300104 	ldrtne	r0, [r0], -r4, lsl #2
    2034:	02007d02 	andeq	r7, r0, #2, 26	; 0x80
    2038:	15000077 	strne	r0, [r0, #-119]	; 0x77
    203c:	00008ed8 	ldrdeq	r8, [r0], -r8	; <UNPREDICTABLE>
    2040:	0000019c 	muleq	r0, ip, r1
    2044:	000005e4 	andeq	r0, r0, r4, ror #11
    2048:	02520116 	subseq	r0, r2, #-2147483643	; 0x80000005
    204c:	01168008 	tsteq	r6, r8
    2050:	d0910351 	addsle	r0, r1, r1, asr r3
    2054:	5001167e 	andpl	r1, r1, lr, ror r6
    2058:	02163201 	andseq	r3, r6, #268435456	; 0x10000000
    205c:	3001047d 	andcc	r0, r1, sp, ror r4
    2060:	007d0216 	rsbseq	r0, sp, r6, lsl r2
    2064:	00007702 	andeq	r7, r0, r2, lsl #14
    2068:	008f0c15 	addeq	r0, pc, r5, lsl ip	; <UNPREDICTABLE>
    206c:	00019c00 	andeq	r9, r1, r0, lsl #24
    2070:	00061100 	andeq	r1, r6, r0, lsl #2
    2074:	52011600 	andpl	r1, r1, #0, 12
    2078:	16800802 	strne	r0, [r0], r2, lsl #16
    207c:	91035101 	tstls	r3, r1, lsl #2
    2080:	01167ed0 			; <UNDEFINED> instruction: 0x01167ed0
    2084:	16380150 			; <UNDEFINED> instruction: 0x16380150
    2088:	01047d02 	tsteq	r4, r2, lsl #26
    208c:	7d021630 	stcvc	6, cr1, [r2, #-192]	; 0xffffff40
    2090:	00770200 	rsbseq	r0, r7, r0, lsl #4
    2094:	8f281500 	svchi	0x00281500
    2098:	06cb0000 	strbeq	r0, [fp], r0
    209c:	06340000 	ldrteq	r0, [r4], -r0
    20a0:	01160000 	tsteq	r6, r0
    20a4:	00790252 	rsbseq	r0, r9, r2, asr r2
    20a8:	02510116 	subseq	r0, r1, #-2147483643	; 0x80000005
    20ac:	01160079 	tsteq	r6, r9, ror r0
    20b0:	90030550 	andls	r0, r3, r0, asr r5
    20b4:	0000009a 	muleq	r0, sl, r0
    20b8:	008f381f 	addeq	r3, pc, pc, lsl r8	; <UNPREDICTABLE>
    20bc:	00064600 	andeq	r4, r6, r0, lsl #12
    20c0:	50011600 	andpl	r1, r1, r0, lsl #12
    20c4:	7ecc9104 	acsvce	f1, f4
    20c8:	3c140006 	ldccc	0, cr0, [r4], {6}
    20cc:	c400008f 	strgt	r0, [r0], #-143	; 0x8f
    20d0:	15000006 	strne	r0, [r0, #-6]
    20d4:	00008f50 	andeq	r8, r0, r0, asr pc
    20d8:	000006cb 	andeq	r0, r0, fp, asr #13
    20dc:	0000067e 	andeq	r0, r0, lr, ror r6
    20e0:	02530116 	subseq	r0, r3, #-2147483643	; 0x80000005
    20e4:	0116bf08 	tsteq	r6, r8, lsl #30
    20e8:	0c030552 	cfstr32eq	mvfx0, [r3], {82}	; 0x52
    20ec:	1600009a 			; <UNDEFINED> instruction: 0x1600009a
    20f0:	03055101 	movweq	r5, #20737	; 0x5101
    20f4:	00009a18 	andeq	r9, r0, r8, lsl sl
    20f8:	05500116 	ldrbeq	r0, [r0, #-278]	; 0x116
    20fc:	009ac003 	addseq	ip, sl, r3
    2100:	54140000 	ldrpl	r0, [r4], #-0
    2104:	e100008f 	smlabb	r0, pc, r0, r0	; <UNPREDICTABLE>
    2108:	00000006 	andeq	r0, r0, r6
    210c:	007a1800 	rsbseq	r1, sl, r0, lsl #16
    2110:	06990000 	ldreq	r0, [r9], r0
    2114:	6b190000 	blvs	64211c <__bss_end__+0x6380f4>
    2118:	09000000 	stmdbeq	r0, {}	; <UNPREDICTABLE>
    211c:	06890600 	streq	r0, [r9], r0, lsl #12
    2120:	7a180000 	bvc	602128 <__bss_end__+0x5f8100>
    2124:	ae000000 	cdpge	0, 0, cr0, cr0, cr0, {0}
    2128:	19000006 	stmdbne	r0, {r1, r2}
    212c:	0000006b 	andeq	r0, r0, fp, rrx
    2130:	2120007f 	teqcs	r0, pc, ror r0
    2134:	03000005 	movweq	r0, #5
    2138:	0003a11d 	andeq	sl, r3, sp, lsl r1
    213c:	055e2000 	ldrbeq	r2, [lr, #-0]
    2140:	22030000 	andcs	r0, r3, #0
    2144:	000003b6 			; <UNDEFINED> instruction: 0x000003b6
    2148:	00027e21 	andeq	r7, r2, r1, lsr #28
    214c:	221e0300 	andscs	r0, lr, #0, 6
    2150:	000004aa 	andeq	r0, r0, sl, lsr #9
    2154:	00252903 	eoreq	r2, r5, r3, lsl #18
    2158:	06e10000 	strbteq	r0, [r1], r0
    215c:	811c0000 	tsthi	ip, r0
    2160:	23000000 	movwcs	r0, #0
    2164:	00f12100 	rscseq	r2, r1, r0, lsl #2
    2168:	65030000 	strvs	r0, [r3, #-0]
    216c:	0000b800 	andeq	fp, r0, r0, lsl #16
    2170:	a0000400 	andge	r0, r0, r0, lsl #8
    2174:	04000009 	streq	r0, [r0], #-9
    2178:	00045001 	andeq	r5, r4, r1
    217c:	05d50100 	ldrbeq	r0, [r5, #256]	; 0x100
    2180:	04bb0000 	ldrteq	r0, [fp], #0
    2184:	8fc80000 	svchi	0x00c80000
    2188:	00200000 	eoreq	r0, r0, r0
    218c:	08490000 	stmdaeq	r9, {}^	; <UNPREDICTABLE>
    2190:	04020000 	streq	r0, [r2], #-0
    2194:	746e6905 	strbtvc	r6, [lr], #-2309	; 0x905
    2198:	07040300 	streq	r0, [r4, -r0, lsl #6]
    219c:	000001c2 	andeq	r0, r0, r2, asr #3
    21a0:	e5060103 	str	r0, [r6, #-259]	; 0x103
    21a4:	03000000 	movweq	r0, #0
    21a8:	02370502 	eorseq	r0, r7, #8388608	; 0x800000
    21ac:	04030000 	streq	r0, [r3], #-0
    21b0:	00020005 	andeq	r0, r2, r5
    21b4:	05080300 	streq	r0, [r8, #-768]	; 0x300
    21b8:	000001fb 	strdeq	r0, [r0], -fp
    21bc:	e3080103 	movw	r0, #33027	; 0x8103
    21c0:	03000000 	movweq	r0, #0
    21c4:	004c0702 	subeq	r0, ip, r2, lsl #14
    21c8:	04030000 	streq	r0, [r3], #-0
    21cc:	0001bd07 	andeq	fp, r1, r7, lsl #26
    21d0:	07080300 	streq	r0, [r8, -r0, lsl #6]
    21d4:	000001b8 			; <UNDEFINED> instruction: 0x000001b8
    21d8:	de070403 	cdple	4, 0, cr0, cr7, cr3, {0}
    21dc:	03000001 	movweq	r0, #1
    21e0:	00ec0801 	rsceq	r0, ip, r1, lsl #16
    21e4:	09040000 	stmdbeq	r4, {}	; <UNPREDICTABLE>
    21e8:	01000002 	tsteq	r0, r2
    21ec:	008fc803 	addeq	ip, pc, r3, lsl #16
    21f0:	00001000 	andeq	r1, r0, r0
    21f4:	9c9c0100 	ldflss	f0, [ip], {0}
    21f8:	05000000 	streq	r0, [r0, #-0]
    21fc:	04010072 	streq	r0, [r1], #-114	; 0x72
    2200:	0000002c 	andeq	r0, r0, ip, lsr #32
    2204:	00000da5 	andeq	r0, r0, r5, lsr #27
    2208:	05c70600 	strbeq	r0, [r7, #1536]	; 0x600
    220c:	0c010000 	stceq	0, cr0, [r1], {-0}
    2210:	00008fd8 	ldrdeq	r8, [r0], -r8	; <UNPREDICTABLE>
    2214:	00000010 	andeq	r0, r0, r0, lsl r0
    2218:	72059c01 	andvc	r9, r5, #256	; 0x100
    221c:	2c0d0100 	stfcss	f0, [sp], {-0}
    2220:	c9000000 	stmdbgt	r0, {}	; <UNPREDICTABLE>
    2224:	0000000d 	andeq	r0, r0, sp
    2228:	00010f00 	andeq	r0, r1, r0, lsl #30
    222c:	0b000400 	bleq	3234 <__code_start__-0x4dcc>
    2230:	0400000a 	streq	r0, [r0], #-10
    2234:	00045001 	andeq	r5, r4, r1
    2238:	05f60100 	ldrbeq	r0, [r6, #256]!	; 0x100
    223c:	04bb0000 	ldrteq	r0, [fp], #0
    2240:	8fe80000 	svchi	0x00e80000
    2244:	002c0000 	eoreq	r0, ip, r0
    2248:	088f0000 	stmeq	pc, {}	; <UNPREDICTABLE>
    224c:	04020000 	streq	r0, [r2], #-0
    2250:	746e6905 	strbtvc	r6, [lr], #-2309	; 0x905
    2254:	07040300 	streq	r0, [r4, -r0, lsl #6]
    2258:	000001c2 	andeq	r0, r0, r2, asr #3
    225c:	e5060103 	str	r0, [r6, #-259]	; 0x103
    2260:	03000000 	movweq	r0, #0
    2264:	02370502 	eorseq	r0, r7, #8388608	; 0x800000
    2268:	04030000 	streq	r0, [r3], #-0
    226c:	00020005 	andeq	r0, r2, r5
    2270:	05080300 	streq	r0, [r8, #-768]	; 0x300
    2274:	000001fb 	strdeq	r0, [r0], -fp
    2278:	e3080103 	movw	r0, #33027	; 0x8103
    227c:	03000000 	movweq	r0, #0
    2280:	004c0702 	subeq	r0, ip, r2, lsl #14
    2284:	04030000 	streq	r0, [r3], #-0
    2288:	0001bd07 	andeq	fp, r1, r7, lsl #26
    228c:	07080300 	streq	r0, [r8, -r0, lsl #6]
    2290:	000001b8 			; <UNDEFINED> instruction: 0x000001b8
    2294:	de070403 	cdple	4, 0, cr0, cr7, cr3, {0}
    2298:	03000001 	movweq	r0, #1
    229c:	00ec0801 	rsceq	r0, ip, r1, lsl #16
    22a0:	04040000 	streq	r0, [r4], #-0
    22a4:	0000007f 	andeq	r0, r0, pc, ror r0
    22a8:	00007205 	andeq	r7, r0, r5, lsl #4
    22ac:	00f10600 	rscseq	r0, r1, r0, lsl #12
    22b0:	04010000 	streq	r0, [r1], #-0
    22b4:	00008fe8 	andeq	r8, r0, r8, ror #31
    22b8:	0000002c 	andeq	r0, r0, ip, lsr #32
    22bc:	00d39c01 	sbcseq	r9, r3, r1, lsl #24
    22c0:	f0070000 			; <UNDEFINED> instruction: 0xf0070000
    22c4:	f300008f 	vhadd.u8	d0, d16, d15
    22c8:	08000000 	stmdaeq	r0, {}	; <UNPREDICTABLE>
    22cc:	00009000 	andeq	r9, r0, r0
    22d0:	000000b5 	strheq	r0, [r0], -r5
    22d4:	05500109 	ldrbeq	r0, [r0, #-265]	; 0x109
    22d8:	009ae003 	addseq	lr, sl, r3
    22dc:	080a0000 	stmdaeq	sl, {}	; <UNPREDICTABLE>
    22e0:	fa000090 	blx	2528 <__code_start__-0x5ad8>
    22e4:	c9000000 	stmdbgt	r0, {}	; <UNPREDICTABLE>
    22e8:	09000000 	stmdbeq	r0, {}	; <UNPREDICTABLE>
    22ec:	08025001 	stmdaeq	r2, {r0, ip, lr}
    22f0:	0c070064 	stceq	0, cr0, [r7], {100}	; 0x64
    22f4:	0b000090 	bleq	253c <__code_start__-0x5ac4>
    22f8:	00000001 	andeq	r0, r0, r1
    22fc:	0000250b 	andeq	r2, r0, fp, lsl #10
    2300:	0000e200 	andeq	lr, r0, r0, lsl #4
    2304:	00790c00 	rsbseq	r0, r9, r0, lsl #24
    2308:	0d000000 	stceq	0, cr0, [r0, #-0]
    230c:	0000055e 	andeq	r0, r0, lr, asr r5
    2310:	00ed2202 	rsceq	r2, sp, r2, lsl #4
    2314:	04040000 	streq	r0, [r4], #-0
    2318:	000000d3 	ldrdeq	r0, [r0], -r3
    231c:	0005e70e 	andeq	lr, r5, lr, lsl #14
    2320:	0fdc0200 	svceq	0x00dc0200
    2324:	0000061a 	andeq	r0, r0, sl, lsl r6
    2328:	010b4f02 	tsteq	fp, r2, lsl #30
    232c:	2c0c0000 	stccs	0, cr0, [ip], {-0}
    2330:	00000000 	andeq	r0, r0, r0
    2334:	00060f0e 	andeq	r0, r6, lr, lsl #30
    2338:	00620200 	rsbeq	r0, r2, r0, lsl #4
    233c:	0000010f 	andeq	r0, r0, pc, lsl #2
    2340:	0ad50004 	beq	ff542358 <__bss_end__+0xff538330>
    2344:	01040000 	mrseq	r0, (UNDEF: 4)
    2348:	00000450 	andeq	r0, r0, r0, asr r4
    234c:	00065c01 	andeq	r5, r6, r1, lsl #24
    2350:	0004bb00 	andeq	fp, r4, r0, lsl #22
    2354:	00901400 	addseq	r1, r0, r0, lsl #8
    2358:	00003800 	andeq	r3, r0, r0, lsl #16
    235c:	00093000 	andeq	r3, r9, r0
    2360:	05040200 	streq	r0, [r4, #-512]	; 0x200
    2364:	00746e69 	rsbseq	r6, r4, r9, ror #28
    2368:	c2070403 	andgt	r0, r7, #50331648	; 0x3000000
    236c:	03000001 	movweq	r0, #1
    2370:	00e50601 	rsceq	r0, r5, r1, lsl #12
    2374:	02030000 	andeq	r0, r3, #0
    2378:	00023705 	andeq	r3, r2, r5, lsl #14
    237c:	05040300 	streq	r0, [r4, #-768]	; 0x300
    2380:	00000200 	andeq	r0, r0, r0, lsl #4
    2384:	fb050803 	blx	14439a <__bss_end__+0x13a372>
    2388:	03000001 	movweq	r0, #1
    238c:	00e30801 	rsceq	r0, r3, r1, lsl #16
    2390:	02030000 	andeq	r0, r3, #0
    2394:	00004c07 	andeq	r4, r0, r7, lsl #24
    2398:	07040300 	streq	r0, [r4, -r0, lsl #6]
    239c:	000001bd 			; <UNDEFINED> instruction: 0x000001bd
    23a0:	b8070803 	stmdalt	r7, {r0, r1, fp}
    23a4:	03000001 	movweq	r0, #1
    23a8:	01de0704 	bicseq	r0, lr, r4, lsl #14
    23ac:	01030000 	mrseq	r0, (UNDEF: 3)
    23b0:	0000ec08 	andeq	lr, r0, r8, lsl #24
    23b4:	06540400 	ldrbeq	r0, [r4], -r0, lsl #8
    23b8:	0d010000 	stceq	0, cr0, [r1, #-0]
    23bc:	00009014 	andeq	r9, r0, r4, lsl r0
    23c0:	00000038 	andeq	r0, r0, r8, lsr r0
    23c4:	00e19c01 	rsceq	r9, r1, r1, lsl #24
    23c8:	23050000 	movwcs	r0, #20480	; 0x5000
    23cc:	01000006 	tsteq	r0, r6
    23d0:	0000250e 	andeq	r2, r0, lr, lsl #10
    23d4:	06310500 	ldrteq	r0, [r1], -r0, lsl #10
    23d8:	0e010000 	cdpeq	0, 0, cr0, cr1, cr0, {0}
    23dc:	00000025 	andeq	r0, r0, r5, lsr #32
    23e0:	0000bd06 	andeq	fp, r0, r6, lsl #26
    23e4:	070f0100 	streq	r0, [pc, -r0, lsl #2]
    23e8:	00737362 	rsbseq	r7, r3, r2, ror #6
    23ec:	00e11101 	rsceq	r1, r1, r1, lsl #2
    23f0:	0ded0000 	stcleq	0, cr0, [sp]
    23f4:	4c080000 	stcmi	0, cr0, [r8], {-0}
    23f8:	01000006 	tsteq	r0, r6
    23fc:	0000e112 	andeq	lr, r0, r2, lsl r1
    2400:	903c0900 	eorsls	r0, ip, r0, lsl #18
    2404:	00fd0000 	rscseq	r0, sp, r0
    2408:	40090000 	andmi	r0, r9, r0
    240c:	04000090 	streq	r0, [r0], #-144	; 0x90
    2410:	09000001 	stmdbeq	r0, {r0}
    2414:	00009044 	andeq	r9, r0, r4, asr #32
    2418:	0000010b 	andeq	r0, r0, fp, lsl #2
    241c:	25040a00 	strcs	r0, [r4, #-2560]	; 0xa00
    2420:	05000000 	streq	r0, [r0, #-0]
    2424:	00000623 	andeq	r0, r0, r3, lsr #12
    2428:	00250e01 	eoreq	r0, r5, r1, lsl #28
    242c:	31050000 	mrscc	r0, (UNDEF: 5)
    2430:	01000006 	tsteq	r0, r6
    2434:	0000250e 	andeq	r2, r0, lr, lsl #10
    2438:	063d0600 	ldrteq	r0, [sp], -r0, lsl #12
    243c:	da020000 	ble	82444 <__bss_end__+0x7841c>
    2440:	0000bd06 	andeq	fp, r0, r6, lsl #26
    2444:	06d70200 	ldrbeq	r0, [r7], r0, lsl #4
    2448:	000000f1 	strdeq	r0, [r0], -r1
    244c:	3e006502 	cfsh32cc	mvfx6, mvfx0, #2
    2450:	04000001 	streq	r0, [r0], #-1
    2454:	000b6900 	andeq	r6, fp, r0, lsl #18
    2458:	50010400 	andpl	r0, r1, r0, lsl #8
    245c:	01000004 	tsteq	r0, r4
    2460:	0000066f 	andeq	r0, r0, pc, ror #12
    2464:	000004bb 			; <UNDEFINED> instruction: 0x000004bb
    2468:	0000904c 	andeq	r9, r0, ip, asr #32
    246c:	00000044 	andeq	r0, r0, r4, asr #32
    2470:	000009da 	ldrdeq	r0, [r0], -sl
    2474:	69050402 	stmdbvs	r5, {r1, sl}
    2478:	0300746e 	movweq	r7, #1134	; 0x46e
    247c:	01c20704 	biceq	r0, r2, r4, lsl #14
    2480:	01030000 	mrseq	r0, (UNDEF: 3)
    2484:	0000e506 	andeq	lr, r0, r6, lsl #10
    2488:	05020300 	streq	r0, [r2, #-768]	; 0x300
    248c:	00000237 	andeq	r0, r0, r7, lsr r2
    2490:	00050403 	andeq	r0, r5, r3, lsl #8
    2494:	03000002 	movweq	r0, #2
    2498:	01fb0508 	mvnseq	r0, r8, lsl #10
    249c:	01030000 	mrseq	r0, (UNDEF: 3)
    24a0:	0000e308 	andeq	lr, r0, r8, lsl #6
    24a4:	07020300 	streq	r0, [r2, -r0, lsl #6]
    24a8:	0000004c 	andeq	r0, r0, ip, asr #32
    24ac:	bd070403 	cfstrslt	mvf0, [r7, #-12]
    24b0:	03000001 	movweq	r0, #1
    24b4:	01b80708 			; <UNDEFINED> instruction: 0x01b80708
    24b8:	04030000 	streq	r0, [r3], #-0
    24bc:	0001de07 	andeq	sp, r1, r7, lsl #28
    24c0:	08010300 	stmdaeq	r1, {r8, r9}
    24c4:	000000ec 	andeq	r0, r0, ip, ror #1
    24c8:	007f0404 	rsbseq	r0, pc, r4, lsl #8
    24cc:	72050000 	andvc	r0, r5, #0
    24d0:	06000000 	streq	r0, [r0], -r0
    24d4:	00000690 	muleq	r0, r0, r6
    24d8:	904c0201 	subls	r0, ip, r1, lsl #4
    24dc:	00440000 	subeq	r0, r4, r0
    24e0:	9c010000 	stcls	0, cr0, [r1], {-0}
    24e4:	00000108 	andeq	r0, r0, r8, lsl #2
    24e8:	00637007 	rsbeq	r7, r3, r7
    24ec:	002c0201 	eoreq	r0, ip, r1, lsl #4
    24f0:	0e0d0000 	cdpeq	0, 0, cr0, cr13, cr0, {0}
    24f4:	2a080000 	bcs	2024fc <__bss_end__+0x1f84d4>
    24f8:	18000001 	stmdane	r0, {r0}
    24fc:	05000001 	streq	r0, [r0, #-1]
    2500:	009aec03 	addseq	lr, sl, r3, lsl #24
    2504:	905c0900 	subsls	r0, ip, r0, lsl #18
    2508:	011d0000 	tsteq	sp, r0
    250c:	7c0a0000 	stcvc	0, cr0, [sl], {-0}
    2510:	24000090 	strcs	r0, [r0], #-144	; 0x90
    2514:	fe000001 	cdp2	0, 0, cr0, cr0, cr1, {0}
    2518:	0b000000 	bleq	2520 <__code_start__-0x5ae0>
    251c:	32015301 	andcc	r5, r1, #67108864	; 0x4000000
    2520:	0552010b 	ldrbeq	r0, [r2, #-267]	; 0x10b
    2524:	009aec03 	addseq	lr, sl, r3, lsl #24
    2528:	51010b00 	tstpl	r1, r0, lsl #22
    252c:	9b400305 	blls	1003148 <__bss_end__+0xff9120>
    2530:	010b0000 	mrseq	r0, (UNDEF: 11)
    2534:	04030550 	streq	r0, [r3], #-1360	; 0x550
    2538:	0b00009b 	bleq	27ac <__code_start__-0x5854>
    253c:	02047d02 	andeq	r7, r4, #2, 26	; 0x80
    2540:	020b0074 	andeq	r0, fp, #116	; 0x74
    2544:	0305007d 	movweq	r0, #20605	; 0x507d
    2548:	00009b64 	andeq	r9, r0, r4, ror #22
    254c:	90800900 	addls	r0, r0, r0, lsl #18
    2550:	013a0000 	teqeq	sl, r0
    2554:	0c000000 	stceq	0, cr0, [r0], {-0}
    2558:	00000072 	andeq	r0, r0, r2, ror r0
    255c:	00000118 	andeq	r0, r0, r8, lsl r1
    2560:	00006b0d 	andeq	r6, r0, sp, lsl #22
    2564:	05001500 	streq	r1, [r0, #-1280]	; 0x500
    2568:	00000108 	andeq	r0, r0, r8, lsl #2
    256c:	00027e0e 	andeq	r7, r2, lr, lsl #28
    2570:	0f1e0200 	svceq	0x001e0200
    2574:	000004aa 	andeq	r0, r0, sl, lsr #9
    2578:	00252902 	eoreq	r2, r5, r2, lsl #18
    257c:	013a0000 	teqeq	sl, r0
    2580:	79100000 	ldmdbvc	r0, {}	; <UNPREDICTABLE>
    2584:	11000000 	mrsne	r0, (UNDEF: 0)
    2588:	00f10e00 	rscseq	r0, r1, r0, lsl #28
    258c:	65020000 	strvs	r0, [r2, #-0]
    2590:	00013e00 	andeq	r3, r1, r0, lsl #28
    2594:	41000400 	tstmi	r0, r0, lsl #8
    2598:	0400000c 	streq	r0, [r0], #-12
    259c:	00045001 	andeq	r5, r4, r1
    25a0:	06b30100 	ldrteq	r0, [r3], r0, lsl #2
    25a4:	04bb0000 	ldrteq	r0, [fp], #0
    25a8:	90900000 	addsls	r0, r0, r0
    25ac:	00440000 	subeq	r0, r4, r0
    25b0:	0a800000 	beq	fe0025b8 <__bss_end__+0xfdff8590>
    25b4:	04020000 	streq	r0, [r2], #-0
    25b8:	746e6905 	strbtvc	r6, [lr], #-2309	; 0x905
    25bc:	07040300 	streq	r0, [r4, -r0, lsl #6]
    25c0:	000001c2 	andeq	r0, r0, r2, asr #3
    25c4:	e5060103 	str	r0, [r6, #-259]	; 0x103
    25c8:	03000000 	movweq	r0, #0
    25cc:	02370502 	eorseq	r0, r7, #8388608	; 0x800000
    25d0:	04030000 	streq	r0, [r3], #-0
    25d4:	00020005 	andeq	r0, r2, r5
    25d8:	05080300 	streq	r0, [r8, #-768]	; 0x300
    25dc:	000001fb 	strdeq	r0, [r0], -fp
    25e0:	e3080103 	movw	r0, #33027	; 0x8103
    25e4:	03000000 	movweq	r0, #0
    25e8:	004c0702 	subeq	r0, ip, r2, lsl #14
    25ec:	04030000 	streq	r0, [r3], #-0
    25f0:	0001bd07 	andeq	fp, r1, r7, lsl #26
    25f4:	07080300 	streq	r0, [r8, -r0, lsl #6]
    25f8:	000001b8 			; <UNDEFINED> instruction: 0x000001b8
    25fc:	de070403 	cdple	4, 0, cr0, cr7, cr3, {0}
    2600:	03000001 	movweq	r0, #1
    2604:	00ec0801 	rsceq	r0, ip, r1, lsl #16
    2608:	04040000 	streq	r0, [r4], #-0
    260c:	0000007f 	andeq	r0, r0, pc, ror r0
    2610:	00007205 	andeq	r7, r0, r5, lsl #4
    2614:	06a60600 	strteq	r0, [r6], r0, lsl #12
    2618:	02010000 	andeq	r0, r1, #0
    261c:	00009090 	muleq	r0, r0, r0
    2620:	00000044 	andeq	r0, r0, r4, asr #32
    2624:	01089c01 	tsteq	r8, r1, lsl #24
    2628:	70070000 	andvc	r0, r7, r0
    262c:	02010063 	andeq	r0, r1, #99	; 0x63
    2630:	0000002c 	andeq	r0, r0, ip, lsr #32
    2634:	00000e2b 	andeq	r0, r0, fp, lsr #28
    2638:	00012a08 	andeq	r2, r1, r8, lsl #20
    263c:	00011800 	andeq	r1, r1, r0, lsl #16
    2640:	6c030500 	cfstr32vs	mvfx0, [r3], {-0}
    2644:	0900009b 	stmdbeq	r0, {r0, r1, r3, r4, r7}
    2648:	000090a0 	andeq	r9, r0, r0, lsr #1
    264c:	0000011d 	andeq	r0, r0, sp, lsl r1
    2650:	0090c00a 	addseq	ip, r0, sl
    2654:	00012400 	andeq	r2, r1, r0, lsl #8
    2658:	0000fe00 	andeq	pc, r0, r0, lsl #28
    265c:	53010b00 	movwpl	r0, #6912	; 0x1b00
    2660:	010b3201 	tsteq	fp, r1, lsl #4
    2664:	6c030552 	cfstr32vs	mvfx0, [r3], {82}	; 0x52
    2668:	0b00009b 	bleq	28dc <__code_start__-0x5724>
    266c:	03055101 	movweq	r5, #20737	; 0x5101
    2670:	00009b7c 	andeq	r9, r0, ip, ror fp
    2674:	0550010b 	ldrbeq	r0, [r0, #-267]	; 0x10b
    2678:	009b0403 	addseq	r0, fp, r3, lsl #8
    267c:	7d020b00 	vstrvc	d0, [r2, #-0]
    2680:	00740204 	rsbseq	r0, r4, r4, lsl #4
    2684:	007d020b 	rsbseq	r0, sp, fp, lsl #4
    2688:	9ba00305 	blls	fe8032a4 <__bss_end__+0xfe7f927c>
    268c:	09000000 	stmdbeq	r0, {}	; <UNPREDICTABLE>
    2690:	000090c4 	andeq	r9, r0, r4, asr #1
    2694:	0000013a 	andeq	r0, r0, sl, lsr r1
    2698:	00720c00 	rsbseq	r0, r2, r0, lsl #24
    269c:	01180000 	tsteq	r8, r0
    26a0:	6b0d0000 	blvs	3426a8 <__bss_end__+0x338680>
    26a4:	0c000000 	stceq	0, cr0, [r0], {-0}
    26a8:	01080500 	tsteq	r8, r0, lsl #10
    26ac:	7e0e0000 	cdpvc	0, 0, cr0, cr14, cr0, {0}
    26b0:	02000002 	andeq	r0, r0, #2
    26b4:	04aa0f1e 	strteq	r0, [sl], #3870	; 0xf1e
    26b8:	29020000 	stmdbcs	r2, {}	; <UNPREDICTABLE>
    26bc:	00000025 	andeq	r0, r0, r5, lsr #32
    26c0:	0000013a 	andeq	r0, r0, sl, lsr r1
    26c4:	00007910 	andeq	r7, r0, r0, lsl r9
    26c8:	0e001100 	adfeqs	f1, f0, f0
    26cc:	000000f1 	strdeq	r0, [r0], -r1
    26d0:	3e006502 	cfsh32cc	mvfx6, mvfx0, #2
    26d4:	04000001 	streq	r0, [r0], #-1
    26d8:	000d1900 	andeq	r1, sp, r0, lsl #18
    26dc:	50010400 	andpl	r0, r1, r0, lsl #8
    26e0:	01000004 	tsteq	r0, r4
    26e4:	000006d5 	ldrdeq	r0, [r0], -r5
    26e8:	000004bb 			; <UNDEFINED> instruction: 0x000004bb
    26ec:	000090d4 	ldrdeq	r9, [r0], -r4
    26f0:	00000044 	andeq	r0, r0, r4, asr #32
    26f4:	00000b27 	andeq	r0, r0, r7, lsr #22
    26f8:	69050402 	stmdbvs	r5, {r1, sl}
    26fc:	0300746e 	movweq	r7, #1134	; 0x46e
    2700:	01c20704 	biceq	r0, r2, r4, lsl #14
    2704:	01030000 	mrseq	r0, (UNDEF: 3)
    2708:	0000e506 	andeq	lr, r0, r6, lsl #10
    270c:	05020300 	streq	r0, [r2, #-768]	; 0x300
    2710:	00000237 	andeq	r0, r0, r7, lsr r2
    2714:	00050403 	andeq	r0, r5, r3, lsl #8
    2718:	03000002 	movweq	r0, #2
    271c:	01fb0508 	mvnseq	r0, r8, lsl #10
    2720:	01030000 	mrseq	r0, (UNDEF: 3)
    2724:	0000e308 	andeq	lr, r0, r8, lsl #6
    2728:	07020300 	streq	r0, [r2, -r0, lsl #6]
    272c:	0000004c 	andeq	r0, r0, ip, asr #32
    2730:	bd070403 	cfstrslt	mvf0, [r7, #-12]
    2734:	03000001 	movweq	r0, #1
    2738:	01b80708 			; <UNDEFINED> instruction: 0x01b80708
    273c:	04030000 	streq	r0, [r3], #-0
    2740:	0001de07 	andeq	sp, r1, r7, lsl #28
    2744:	08010300 	stmdaeq	r1, {r8, r9}
    2748:	000000ec 	andeq	r0, r0, ip, ror #1
    274c:	007f0404 	rsbseq	r0, pc, r4, lsl #8
    2750:	72050000 	andvc	r0, r5, #0
    2754:	06000000 	streq	r0, [r0], -r0
    2758:	00000700 	andeq	r0, r0, r0, lsl #14
    275c:	90d40201 	sbcsls	r0, r4, r1, lsl #4
    2760:	00440000 	subeq	r0, r4, r0
    2764:	9c010000 	stcls	0, cr0, [r1], {-0}
    2768:	00000108 	andeq	r0, r0, r8, lsl #2
    276c:	00637007 	rsbeq	r7, r3, r7
    2770:	002c0201 	eoreq	r0, ip, r1, lsl #4
    2774:	0e490000 	cdpeq	0, 4, cr0, cr9, cr0, {0}
    2778:	2a080000 	bcs	202780 <__bss_end__+0x1f8758>
    277c:	18000001 	stmdane	r0, {r0}
    2780:	05000001 	streq	r0, [r0, #-1]
    2784:	009ba803 	addseq	sl, fp, r3, lsl #16
    2788:	90e40900 	rscls	r0, r4, r0, lsl #18
    278c:	011d0000 	tsteq	sp, r0
    2790:	040a0000 	streq	r0, [sl], #-0
    2794:	24000091 	strcs	r0, [r0], #-145	; 0x91
    2798:	fe000001 	cdp2	0, 0, cr0, cr0, cr1, {0}
    279c:	0b000000 	bleq	27a4 <__code_start__-0x585c>
    27a0:	32015301 	andcc	r5, r1, #67108864	; 0x4000000
    27a4:	0552010b 	ldrbeq	r0, [r2, #-267]	; 0x10b
    27a8:	009ba803 	addseq	sl, fp, r3, lsl #16
    27ac:	51010b00 	tstpl	r1, r0, lsl #22
    27b0:	9bc80305 	blls	ff2033cc <__bss_end__+0xff1f93a4>
    27b4:	010b0000 	mrseq	r0, (UNDEF: 11)
    27b8:	04030550 	streq	r0, [r3], #-1360	; 0x550
    27bc:	0b00009b 	bleq	2a30 <__code_start__-0x55d0>
    27c0:	02047d02 	andeq	r7, r4, #2, 26	; 0x80
    27c4:	020b0074 	andeq	r0, fp, #116	; 0x74
    27c8:	0305007d 	movweq	r0, #20605	; 0x507d
    27cc:	00009bf4 	strdeq	r9, [r0], -r4
    27d0:	91080900 	tstls	r8, r0, lsl #18
    27d4:	013a0000 	teqeq	sl, r0
    27d8:	0c000000 	stceq	0, cr0, [r0], {-0}
    27dc:	00000072 	andeq	r0, r0, r2, ror r0
    27e0:	00000118 	andeq	r0, r0, r8, lsl r1
    27e4:	00006b0d 	andeq	r6, r0, sp, lsl #22
    27e8:	05001c00 	streq	r1, [r0, #-3072]	; 0xc00
    27ec:	00000108 	andeq	r0, r0, r8, lsl #2
    27f0:	00027e0e 	andeq	r7, r2, lr, lsl #28
    27f4:	0f1e0200 	svceq	0x001e0200
    27f8:	000004aa 	andeq	r0, r0, sl, lsr #9
    27fc:	00252902 	eoreq	r2, r5, r2, lsl #18
    2800:	013a0000 	teqeq	sl, r0
    2804:	79100000 	ldmdbvc	r0, {}	; <UNPREDICTABLE>
    2808:	11000000 	mrsne	r0, (UNDEF: 0)
    280c:	00f10e00 	rscseq	r0, r1, r0, lsl #28
    2810:	65020000 	strvs	r0, [r2, #-0]
    2814:	00009800 	andeq	r9, r0, r0, lsl #16
    2818:	f1000400 			; <UNDEFINED> instruction: 0xf1000400
    281c:	0400000d 	streq	r0, [r0], #-13
    2820:	00045001 	andeq	r5, r4, r1
    2824:	071d0100 	ldreq	r0, [sp, -r0, lsl #2]
    2828:	04bb0000 	ldrteq	r0, [fp], #0
    282c:	91180000 	tstls	r8, r0
    2830:	00080000 	andeq	r0, r8, r0
    2834:	0bd70000 	bleq	ff5c283c <__bss_end__+0xff5b8814>
    2838:	04020000 	streq	r0, [r2], #-0
    283c:	746e6905 	strbtvc	r6, [lr], #-2309	; 0x905
    2840:	07040300 	streq	r0, [r4, -r0, lsl #6]
    2844:	000001c2 	andeq	r0, r0, r2, asr #3
    2848:	e5060103 	str	r0, [r6, #-259]	; 0x103
    284c:	03000000 	movweq	r0, #0
    2850:	02370502 	eorseq	r0, r7, #8388608	; 0x800000
    2854:	04030000 	streq	r0, [r3], #-0
    2858:	00020005 	andeq	r0, r2, r5
    285c:	05080300 	streq	r0, [r8, #-768]	; 0x300
    2860:	000001fb 	strdeq	r0, [r0], -fp
    2864:	e3080103 	movw	r0, #33027	; 0x8103
    2868:	03000000 	movweq	r0, #0
    286c:	004c0702 	subeq	r0, ip, r2, lsl #14
    2870:	04030000 	streq	r0, [r3], #-0
    2874:	0001bd07 	andeq	fp, r1, r7, lsl #26
    2878:	07080300 	streq	r0, [r8, -r0, lsl #6]
    287c:	000001b8 			; <UNDEFINED> instruction: 0x000001b8
    2880:	de070403 	cdple	4, 0, cr0, cr7, cr3, {0}
    2884:	03000001 	movweq	r0, #1
    2888:	00ec0801 	rsceq	r0, ip, r1, lsl #16
    288c:	3d040000 	stccc	0, cr0, [r4, #-0]
    2890:	01000006 	tsteq	r0, r6
    2894:	00911804 	addseq	r1, r1, r4, lsl #16
    2898:	00000400 	andeq	r0, r0, r0, lsl #8
    289c:	049c0100 	ldreq	r0, [ip], #256	; 0x100
    28a0:	000005e7 	andeq	r0, r0, r7, ror #11
    28a4:	911c0501 	tstls	ip, r1, lsl #10
    28a8:	00040000 	andeq	r0, r4, r0
    28ac:	9c010000 	stcls	0, cr0, [r1], {-0}
    28b0:	0001d700 	andeq	sp, r1, r0, lsl #14
    28b4:	33000400 	movwcc	r0, #1024	; 0x400
    28b8:	0400000e 	streq	r0, [r0], #-14
    28bc:	00045001 	andeq	r5, r4, r1
    28c0:	07d90100 	ldrbeq	r0, [r9, r0, lsl #2]
    28c4:	04bb0000 	ldrteq	r0, [fp], #0
    28c8:	91200000 	teqls	r0, r0
    28cc:	006c0000 	rsbeq	r0, ip, r0
    28d0:	0c220000 	stceq	0, cr0, [r2], #-0
    28d4:	04020000 	streq	r0, [r2], #-0
    28d8:	746e6905 	strbtvc	r6, [lr], #-2309	; 0x905
    28dc:	07040300 	streq	r0, [r4, -r0, lsl #6]
    28e0:	000001c2 	andeq	r0, r0, r2, asr #3
    28e4:	e5060103 	str	r0, [r6, #-259]	; 0x103
    28e8:	03000000 	movweq	r0, #0
    28ec:	02370502 	eorseq	r0, r7, #8388608	; 0x800000
    28f0:	04030000 	streq	r0, [r3], #-0
    28f4:	00020005 	andeq	r0, r2, r5
    28f8:	05080300 	streq	r0, [r8, #-768]	; 0x300
    28fc:	000001fb 	strdeq	r0, [r0], -fp
    2900:	e3080103 	movw	r0, #33027	; 0x8103
    2904:	03000000 	movweq	r0, #0
    2908:	004c0702 	subeq	r0, ip, r2, lsl #14
    290c:	04030000 	streq	r0, [r3], #-0
    2910:	0001bd07 	andeq	fp, r1, r7, lsl #26
    2914:	07080300 	streq	r0, [r8, -r0, lsl #6]
    2918:	000001b8 			; <UNDEFINED> instruction: 0x000001b8
    291c:	de070403 	cdple	4, 0, cr0, cr7, cr3, {0}
    2920:	03000001 	movweq	r0, #1
    2924:	00ec0801 	rsceq	r0, ip, r1, lsl #16
    2928:	04040000 	streq	r0, [r4], #-0
    292c:	00f01402 	rscseq	r1, r0, r2, lsl #8
    2930:	f2050000 	vhadd.s8	d0, d5, d0
    2934:	80000007 	andhi	r0, r0, r7
    2938:	028082e4 	addeq	r8, r0, #228, 4	; 0x4000000e
    293c:	00077805 	andeq	r7, r7, r5, lsl #16
    2940:	82e48000 	rschi	r8, r4, #0
    2944:	1f050280 	svcne	0x00050280
    2948:	84000008 	strhi	r0, [r0], #-8
    294c:	028082e4 	addeq	r8, r0, #228, 4	; 0x4000000e
    2950:	00073a05 	andeq	r3, r7, r5, lsl #20
    2954:	82e48800 	rschi	r8, r4, #0, 16
    2958:	5b050280 	blpl	143360 <__bss_end__+0x139338>
    295c:	8c000007 	stchi	0, cr0, [r0], {7}
    2960:	028082e4 	addeq	r8, r0, #228, 4	; 0x4000000e
    2964:	00079c05 	andeq	r9, r7, r5, lsl #24
    2968:	82e49000 	rschi	r9, r4, #0
    296c:	aa050280 	bge	143374 <__bss_end__+0x13934c>
    2970:	94000007 	strls	r0, [r0], #-7
    2974:	028082e4 	addeq	r8, r0, #228, 4	; 0x4000000e
    2978:	00078a05 	andeq	r8, r7, r5, lsl #20
    297c:	82e49800 	rschi	r9, r4, #0, 16
    2980:	01050280 	smlabbeq	r5, r0, r2, r0
    2984:	9c000008 	stcls	0, cr0, [r0], {8}
    2988:	028082e4 	addeq	r8, r0, #228, 4	; 0x4000000e
    298c:	00081005 	andeq	r1, r8, r5
    2990:	82e4a000 	rschi	sl, r4, #0
    2994:	48050280 	stmdami	r5, {r7, r9}
    2998:	a4000007 	strge	r0, [r0], #-7
    299c:	028082e4 	addeq	r8, r0, #228, 4	; 0x4000000e
    29a0:	042a0600 	strteq	r0, [sl], #-1536	; 0x600
    29a4:	1b010000 	blne	429ac <__bss_end__+0x38984>
    29a8:	00009120 	andeq	r9, r0, r0, lsr #2
    29ac:	0000006c 	andeq	r0, r0, ip, rrx
    29b0:	01a59c01 			; <UNDEFINED> instruction: 0x01a59c01
    29b4:	67070000 	strvs	r0, [r7, -r0]
    29b8:	01000007 	tsteq	r0, r7
    29bc:	00002c23 	andeq	r2, r0, r3, lsr #24
    29c0:	07b80700 	ldreq	r0, [r8, r0, lsl #14]!
    29c4:	24010000 	strcs	r0, [r1], #-0
    29c8:	0000002c 	andeq	r0, r0, ip, lsr #32
    29cc:	74736408 	ldrbtvc	r6, [r3], #-1032	; 0x408
    29d0:	a5270100 	strge	r0, [r7, #-256]!	; 0x100
    29d4:	00000001 	andeq	r0, r0, r1
    29d8:	63727309 	cmnvs	r2, #603979776	; 0x24000000
    29dc:	a5280100 	strge	r0, [r8, #-256]!	; 0x100
    29e0:	0a000001 	beq	29ec <__code_start__-0x5614>
    29e4:	2901006e 	stmdbcs	r1, {r1, r2, r3, r5, r6}
    29e8:	0000002c 	andeq	r0, r0, ip, lsr #32
    29ec:	540b5001 	strpl	r5, [fp], #-1
    29f0:	24000091 	strcs	r0, [r0], #-145	; 0x91
    29f4:	58000000 	stmdapl	r0, {}	; <UNPREDICTABLE>
    29f8:	0c000001 	stceq	0, cr0, [r0], {1}
    29fc:	2a010069 	bcs	42ba8 <__bss_end__+0x38b80>
    2a00:	00000025 	andeq	r0, r0, r5, lsr #32
    2a04:	00000e67 	andeq	r0, r0, r7, ror #28
    2a08:	91280d00 	teqls	r8, r0, lsl #26
    2a0c:	01c10000 	biceq	r0, r1, r0
    2a10:	340e0000 	strcc	r0, [lr], #-0
    2a14:	c8000091 	stmdagt	r0, {r0, r4, r7}
    2a18:	7e000001 	cdpvc	0, 0, cr0, cr0, cr1, {0}
    2a1c:	0f000001 	svceq	0x00000001
    2a20:	09025101 	stmdbeq	r2, {r0, r8, ip, lr}
    2a24:	50010fff 	strdpl	r0, [r1], -pc	; <UNPREDICTABLE>
    2a28:	b21c0c05 	andslt	r0, ip, #1280	; 0x500
    2a2c:	0e002000 	cdpeq	0, 0, cr2, cr0, cr0, {0}
    2a30:	00009140 	andeq	r9, r0, r0, asr #2
    2a34:	000001c8 	andeq	r0, r0, r8, asr #3
    2a38:	0000019b 	muleq	r0, fp, r1
    2a3c:	0251010f 	subseq	r0, r1, #-1073741821	; 0xc0000003
    2a40:	010fff09 	tsteq	pc, r9, lsl #30
    2a44:	200c0550 	andcs	r0, ip, r0, asr r5
    2a48:	002000b2 	strhteq	r0, [r0], -r2
    2a4c:	0091440d 	addseq	r4, r1, sp, lsl #8
    2a50:	0001c100 	andeq	ip, r1, r0, lsl #2
    2a54:	04100000 	ldreq	r0, [r0], #-0
    2a58:	0000002c 	andeq	r0, r0, ip, lsr #32
    2a5c:	00076707 	andeq	r6, r7, r7, lsl #14
    2a60:	2c230100 	stfcss	f0, [r3], #-0
    2a64:	07000000 	streq	r0, [r0, -r0]
    2a68:	000007b8 			; <UNDEFINED> instruction: 0x000007b8
    2a6c:	002c2401 	eoreq	r2, ip, r1, lsl #8
    2a70:	cd110000 	ldcgt	0, cr0, [r1, #-0]
    2a74:	03000007 	movweq	r0, #7
    2a78:	07fb1289 	ldrbeq	r1, [fp, r9, lsl #5]!
    2a7c:	9b030000 	blls	c2a84 <__bss_end__+0xb8a5c>
    2a80:	00002c13 	andeq	r2, r0, r3, lsl ip
    2a84:	002c1300 	eoreq	r1, ip, r0, lsl #6
    2a88:	00000000 	andeq	r0, r0, r0
    2a8c:	000001ad 	andeq	r0, r0, sp, lsr #3
    2a90:	0f390004 	svceq	0x00390004
    2a94:	01040000 	mrseq	r0, (UNDEF: 4)
    2a98:	00000450 	andeq	r0, r0, r0, asr r4
    2a9c:	00083b01 	andeq	r3, r8, r1, lsl #22
    2aa0:	0004bb00 	andeq	fp, r4, r0, lsl #22
    2aa4:	00001800 	andeq	r1, r0, r0, lsl #16
    2aa8:	00000000 	andeq	r0, r0, r0
    2aac:	000cef00 	andeq	lr, ip, r0, lsl #30
    2ab0:	05040200 	streq	r0, [r4, #-512]	; 0x200
    2ab4:	00746e69 	rsbseq	r6, r4, r9, ror #28
    2ab8:	c2070403 	andgt	r0, r7, #50331648	; 0x3000000
    2abc:	03000001 	movweq	r0, #1
    2ac0:	00e50601 	rsceq	r0, r5, r1, lsl #12
    2ac4:	02030000 	andeq	r0, r3, #0
    2ac8:	00023705 	andeq	r3, r2, r5, lsl #14
    2acc:	05040300 	streq	r0, [r4, #-768]	; 0x300
    2ad0:	00000200 	andeq	r0, r0, r0, lsl #4
    2ad4:	fb050803 	blx	144aea <__bss_end__+0x13aac2>
    2ad8:	03000001 	movweq	r0, #1
    2adc:	00e30801 	rsceq	r0, r3, r1, lsl #16
    2ae0:	02030000 	andeq	r0, r3, #0
    2ae4:	00004c07 	andeq	r4, r0, r7, lsl #24
    2ae8:	07040300 	streq	r0, [r4, -r0, lsl #6]
    2aec:	000001bd 			; <UNDEFINED> instruction: 0x000001bd
    2af0:	b8070803 	stmdalt	r7, {r0, r1, fp}
    2af4:	03000001 	movweq	r0, #1
    2af8:	01de0704 	bicseq	r0, lr, r4, lsl #14
    2afc:	01030000 	mrseq	r0, (UNDEF: 3)
    2b00:	0000ec08 	andeq	lr, r0, r8, lsl #24
    2b04:	082d0400 	stmdaeq	sp!, {sl}
    2b08:	0e010000 	cdpeq	0, 0, cr0, cr1, cr0, {0}
    2b0c:	00000025 	andeq	r0, r0, r5, lsr #32
    2b10:	0000918c 	andeq	r9, r0, ip, lsl #3
    2b14:	00000018 	andeq	r0, r0, r8, lsl r0
    2b18:	00a29c01 	adceq	r9, r2, r1, lsl #24
    2b1c:	26050000 	strcs	r0, [r5], -r0
    2b20:	01000000 	mrseq	r0, (UNDEF: 0)
    2b24:	00002c0f 	andeq	r2, r0, pc, lsl #24
    2b28:	000e8600 	andeq	r8, lr, r0, lsl #12
    2b2c:	6f060000 	svcvs	0x00060000
    2b30:	01000008 	tsteq	r0, r8
    2b34:	0091a417 	addseq	sl, r1, r7, lsl r4
    2b38:	00001400 	andeq	r1, r0, r0, lsl #8
    2b3c:	c79c0100 	ldrgt	r0, [ip, r0, lsl #2]
    2b40:	05000000 	streq	r0, [r0, #-0]
    2b44:	00000026 	andeq	r0, r0, r6, lsr #32
    2b48:	002c1801 	eoreq	r1, ip, r1, lsl #16
    2b4c:	0ea50000 	cdpeq	0, 10, cr0, cr5, cr0, {0}
    2b50:	06000000 	streq	r0, [r0], -r0
    2b54:	0000060f 	andeq	r0, r0, pc, lsl #12
    2b58:	91b81f01 			; <UNDEFINED> instruction: 0x91b81f01
    2b5c:	00480000 	subeq	r0, r8, r0
    2b60:	9c010000 	stcls	0, cr0, [r1], {-0}
    2b64:	00000177 	andeq	r0, r0, r7, ror r1
    2b68:	00088a07 	andeq	r8, r8, r7, lsl #20
    2b6c:	772a0100 	strvc	r0, [sl, -r0, lsl #2]!
    2b70:	1c000001 	stcne	0, cr0, [r0], {1}
    2b74:	07201000 	streq	r1, [r0, -r0]!
    2b78:	00000867 	andeq	r0, r0, r7, ror #16
    2b7c:	01772b01 	cmneq	r7, r1, lsl #22
    2b80:	00240000 	eoreq	r0, r4, r0
    2b84:	7e072010 	mcrvc	0, 0, r2, cr7, cr0, {0}
    2b88:	01000008 	tsteq	r0, r8
    2b8c:	0001772c 	andeq	r7, r1, ip, lsr #14
    2b90:	00000000 	andeq	r0, r0, r0
    2b94:	084e085a 	stmdaeq	lr, {r1, r3, r4, r6, fp}^
    2b98:	2d010000 	stccs	0, cr0, [r1, #-0]
    2b9c:	00000177 	andeq	r0, r0, r7, ror r1
    2ba0:	91c00920 	bicls	r0, r0, r0, lsr #18
    2ba4:	00790000 	rsbseq	r0, r9, r0
    2ba8:	cc090000 	stcgt	0, cr0, [r9], {-0}
    2bac:	a2000091 	andge	r0, r0, #145	; 0x91
    2bb0:	0a000000 	beq	2bb8 <__code_start__-0x5448>
    2bb4:	000091d4 	ldrdeq	r9, [r0], -r4
    2bb8:	0000018d 	andeq	r0, r0, sp, lsl #3
    2bbc:	0000013a 	andeq	r0, r0, sl, lsr r1
    2bc0:	0150010b 	cmpeq	r0, fp, lsl #2
    2bc4:	e00a004e 	and	r0, sl, lr, asr #32
    2bc8:	9e000091 	mcrls	0, 0, r0, cr0, cr1, {4}
    2bcc:	5a000001 	bpl	2bd8 <__code_start__-0x5428>
    2bd0:	0b000001 	bleq	2bdc <__code_start__-0x5424>
    2bd4:	0c055101 	stfeqs	f5, [r5], {1}
    2bd8:	5a000001 	bpl	2be4 <__code_start__-0x541c>
    2bdc:	0550010b 	ldrbeq	r0, [r0, #-267]	; 0x10b
    2be0:	1000240c 	andne	r2, r0, ip, lsl #8
    2be4:	ec0c0020 	stc	0, cr0, [ip], {32}
    2be8:	9e000091 	mcrls	0, 0, r0, cr0, cr1, {4}
    2bec:	0b000001 	bleq	2bf8 <__code_start__-0x5408>
    2bf0:	0c055101 	stfeqs	f5, [r5], {1}
    2bf4:	5a000020 	bpl	2c7c <__code_start__-0x5384>
    2bf8:	0550010b 	ldrbeq	r0, [r0, #-267]	; 0x10b
    2bfc:	10001c0c 	andne	r1, r0, ip, lsl #24
    2c00:	0d000020 	stceq	0, cr0, [r0, #-128]	; 0xffffff80
    2c04:	00000025 	andeq	r0, r0, r5, lsr #32
    2c08:	00083008 	andeq	r3, r8, r8
    2c0c:	880d0100 	stmdahi	sp, {r8}
    2c10:	10000001 	andne	r0, r0, r1
    2c14:	00002c0d 	andeq	r2, r0, sp, lsl #24
    2c18:	061a0e00 	ldreq	r0, [sl], -r0, lsl #28
    2c1c:	4f020000 	svcmi	0x00020000
    2c20:	0000019e 	muleq	r0, lr, r1
    2c24:	00002c0f 	andeq	r2, r0, pc, lsl #24
    2c28:	fb100000 	blx	402c32 <__bss_end__+0x3f8c0a>
    2c2c:	02000007 	andeq	r0, r0, #7
    2c30:	002c0f9b 	mlaeq	ip, fp, pc, r0	; <UNPREDICTABLE>
    2c34:	2c0f0000 	stccs	0, cr0, [pc], {-0}
    2c38:	00000000 	andeq	r0, r0, r0
    2c3c:	0001f700 	andeq	pc, r1, r0, lsl #14
    2c40:	27000400 	strcs	r0, [r0, -r0, lsl #8]
    2c44:	04000010 	streq	r0, [r0], #-16
    2c48:	00045001 	andeq	r5, r4, r1
    2c4c:	08af0100 	stmiaeq	pc!, {r8}	; <UNPREDICTABLE>
    2c50:	04bb0000 	ldrteq	r0, [fp], #0
    2c54:	92000000 	andls	r0, r0, #0
    2c58:	00980000 	addseq	r0, r8, r0
    2c5c:	0d950000 	ldceq	0, cr0, [r5]
    2c60:	04020000 	streq	r0, [r2], #-0
    2c64:	746e6905 	strbtvc	r6, [lr], #-2309	; 0x905
    2c68:	07040300 	streq	r0, [r4, -r0, lsl #6]
    2c6c:	000001c2 	andeq	r0, r0, r2, asr #3
    2c70:	e5060103 	str	r0, [r6, #-259]	; 0x103
    2c74:	03000000 	movweq	r0, #0
    2c78:	02370502 	eorseq	r0, r7, #8388608	; 0x800000
    2c7c:	04030000 	streq	r0, [r3], #-0
    2c80:	00020005 	andeq	r0, r2, r5
    2c84:	05080300 	streq	r0, [r8, #-768]	; 0x300
    2c88:	000001fb 	strdeq	r0, [r0], -fp
    2c8c:	e3080103 	movw	r0, #33027	; 0x8103
    2c90:	03000000 	movweq	r0, #0
    2c94:	004c0702 	subeq	r0, ip, r2, lsl #14
    2c98:	04030000 	streq	r0, [r3], #-0
    2c9c:	0001bd07 	andeq	fp, r1, r7, lsl #26
    2ca0:	07080300 	streq	r0, [r8, -r0, lsl #6]
    2ca4:	000001b8 			; <UNDEFINED> instruction: 0x000001b8
    2ca8:	de070403 	cdple	4, 0, cr0, cr7, cr3, {0}
    2cac:	03000001 	movweq	r0, #1
    2cb0:	00ec0801 	rsceq	r0, ip, r1, lsl #16
    2cb4:	cd040000 	stcgt	0, cr0, [r4, #-0]
    2cb8:	01000008 	tsteq	r0, r8
    2cbc:	00920005 	addseq	r0, r2, r5
    2cc0:	00001c00 	andeq	r1, r0, r0, lsl #24
    2cc4:	9e9c0100 	fmllse	f0, f4, f0
    2cc8:	05000000 	streq	r0, [r0, #-0]
    2ccc:	000008c7 	andeq	r0, r0, r7, asr #17
    2cd0:	002c0501 	eoreq	r0, ip, r1, lsl #10
    2cd4:	0ecf0000 	cdpeq	0, 12, cr0, cr15, cr0, {0}
    2cd8:	06000000 	streq	r0, [r0], -r0
    2cdc:	00000892 	muleq	r0, r2, r8
    2ce0:	002c1101 	eoreq	r1, ip, r1, lsl #2
    2ce4:	921c0000 	andsls	r0, ip, #0
    2ce8:	00140000 	andseq	r0, r4, r0
    2cec:	9c010000 	stcls	0, cr0, [r1], {-0}
    2cf0:	000000cb 	andeq	r0, r0, fp, asr #1
    2cf4:	00922807 	addseq	r2, r2, r7, lsl #16
    2cf8:	0001de00 	andeq	sp, r1, r0, lsl #28
    2cfc:	50010800 	andpl	r0, r1, r0, lsl #16
    2d00:	30040c05 	andcc	r0, r4, r5, lsl #24
    2d04:	00002000 	andeq	r2, r0, r0
    2d08:	0008e306 	andeq	lr, r8, r6, lsl #6
    2d0c:	2c160100 	ldfcss	f0, [r6], {-0}
    2d10:	30000000 	andcc	r0, r0, r0
    2d14:	1c000092 	stcne	0, cr0, [r0], {146}	; 0x92
    2d18:	01000000 	mrseq	r0, (UNDEF: 0)
    2d1c:	00010d9c 	muleq	r1, ip, sp
    2d20:	00750900 	rsbseq	r0, r5, r0, lsl #18
    2d24:	002c1a01 	eoreq	r1, ip, r1, lsl #20
    2d28:	0f030000 	svceq	0x00030000
    2d2c:	380a0000 	stmdacc	sl, {}	; <UNPREDICTABLE>
    2d30:	f3000092 	vqadd.u8	d0, d16, d2
    2d34:	0a000001 	beq	2d40 <__code_start__-0x52c0>
    2d38:	0000923c 	andeq	r9, r0, ip, lsr r2
    2d3c:	0000009e 	muleq	r0, lr, r0
    2d40:	0092440a 	addseq	r4, r2, sl, lsl #8
    2d44:	0001f300 	andeq	pc, r1, r0, lsl #6
    2d48:	da040000 	ble	102d50 <__bss_end__+0xf8d28>
    2d4c:	01000008 	tsteq	r0, r8
    2d50:	00924c1f 	addseq	r4, r2, pc, lsl ip
    2d54:	00002400 	andeq	r2, r0, r0, lsl #8
    2d58:	6b9c0100 	blvs	fe703160 <__bss_end__+0xfe6f9138>
    2d5c:	0b000001 	bleq	2d68 <__code_start__-0x5298>
    2d60:	01007375 	tsteq	r0, r5, ror r3
    2d64:	00002c1f 	andeq	r2, r0, pc, lsl ip
    2d68:	000f2100 	andeq	r2, pc, r0, lsl #2
    2d6c:	62720c00 	rsbsvs	r0, r2, #0, 24
    2d70:	2c200100 	stfcss	f0, [r0], #-0
    2d74:	01000000 	mrseq	r0, (UNDEF: 0)
    2d78:	925c0d54 	subsls	r0, ip, #84, 26	; 0x1500
    2d7c:	00100000 	andseq	r0, r0, r0
    2d80:	01610000 	cmneq	r1, r0
    2d84:	72090000 	andvc	r0, r9, #0
    2d88:	22010061 	andcs	r0, r1, #97	; 0x61
    2d8c:	0000002c 	andeq	r0, r0, ip, lsr #32
    2d90:	00000f3f 	andeq	r0, r0, pc, lsr pc
    2d94:	0092600a 	addseq	r6, r2, sl
    2d98:	0000cb00 	andeq	ip, r0, r0, lsl #22
    2d9c:	580a0000 	stmdapl	sl, {}	; <UNPREDICTABLE>
    2da0:	cb000092 	blgt	2ff0 <__code_start__-0x5010>
    2da4:	00000000 	andeq	r0, r0, r0
    2da8:	00061a04 	andeq	r1, r6, r4, lsl #20
    2dac:	70280100 	eorvc	r0, r8, r0, lsl #2
    2db0:	14000092 	strne	r0, [r0], #-146	; 0x92
    2db4:	01000000 	mrseq	r0, (UNDEF: 0)
    2db8:	0001a49c 	muleq	r1, ip, r4
    2dbc:	736d0b00 	cmnvc	sp, #0, 22
    2dc0:	2c280100 	stfcss	f0, [r8], #-0
    2dc4:	52000000 	andpl	r0, r0, #0
    2dc8:	0700000f 	streq	r0, [r0, -pc]
    2dcc:	00009280 	andeq	r9, r0, r0, lsl #5
    2dd0:	0000010d 	andeq	r0, r0, sp, lsl #2
    2dd4:	07500108 	ldrbeq	r0, [r0, -r8, lsl #2]
    2dd8:	0a5001f3 	beq	14035ac <__bss_end__+0x13f9584>
    2ddc:	001e03e8 	andseq	r0, lr, r8, ror #7
    2de0:	08a50400 	stmiaeq	r5!, {sl}
    2de4:	2b010000 	blcs	42dec <__bss_end__+0x38dc4>
    2de8:	00009284 	andeq	r9, r0, r4, lsl #5
    2dec:	00000014 	andeq	r0, r0, r4, lsl r0
    2df0:	01de9c01 	bicseq	r9, lr, r1, lsl #24
    2df4:	730b0000 	movwvc	r0, #45056	; 0xb000
    2df8:	01006365 	tsteq	r0, r5, ror #6
    2dfc:	00002c2b 	andeq	r2, r0, fp, lsr #24
    2e00:	000f7300 	andeq	r7, pc, r0, lsl #6
    2e04:	92940700 	addsls	r0, r4, #0, 14
    2e08:	016b0000 	cmneq	fp, r0
    2e0c:	01080000 	mrseq	r0, (UNDEF: 8)
    2e10:	01f30750 	mvnseq	r0, r0, asr r7
    2e14:	03e80a50 	mvneq	r0, #80, 20	; 0x50000
    2e18:	0e00001e 	mcreq	0, 0, r0, cr0, cr14, {0}
    2e1c:	000008c1 	andeq	r0, r0, r1, asr #17
    2e20:	002ca702 	eoreq	sl, ip, r2, lsl #14
    2e24:	01f30000 	mvnseq	r0, r0
    2e28:	2c0f0000 	stccs	0, cr0, [pc], {-0}
    2e2c:	00000000 	andeq	r0, r0, r0
    2e30:	0007cd10 	andeq	ip, r7, r0, lsl sp
    2e34:	00890200 	addeq	r0, r9, r0, lsl #4
    2e38:	00000cc5 	andeq	r0, r0, r5, asr #25
    2e3c:	111d0004 	tstne	sp, r4
    2e40:	01040000 	mrseq	r0, (UNDEF: 4)
    2e44:	00000c8e 	andeq	r0, r0, lr, lsl #25
    2e48:	0009f10c 	andeq	pc, r9, ip, lsl #2
    2e4c:	000a0c00 	andeq	r0, sl, r0, lsl #24
    2e50:	0092fc00 	addseq	pc, r2, r0, lsl #24
    2e54:	00017800 	andeq	r7, r1, r0, lsl #16
    2e58:	000e4700 	andeq	r4, lr, r0, lsl #14
    2e5c:	05040200 	streq	r0, [r4, #-512]	; 0x200
    2e60:	00746e69 	rsbseq	r6, r4, r9, ror #28
    2e64:	c2070403 	andgt	r0, r7, #50331648	; 0x3000000
    2e68:	04000001 	streq	r0, [r0], #-1
    2e6c:	0000002c 	andeq	r0, r0, ip, lsr #32
    2e70:	e5060103 	str	r0, [r6, #-259]	; 0x103
    2e74:	03000000 	movweq	r0, #0
    2e78:	02370502 	eorseq	r0, r7, #8388608	; 0x800000
    2e7c:	04030000 	streq	r0, [r3], #-0
    2e80:	00020005 	andeq	r0, r2, r5
    2e84:	05080300 	streq	r0, [r8, #-768]	; 0x300
    2e88:	000001fb 	strdeq	r0, [r0], -fp
    2e8c:	e3080103 	movw	r0, #33027	; 0x8103
    2e90:	03000000 	movweq	r0, #0
    2e94:	004c0702 	subeq	r0, ip, r2, lsl #14
    2e98:	04030000 	streq	r0, [r3], #-0
    2e9c:	0001bd07 	andeq	fp, r1, r7, lsl #26
    2ea0:	07080300 	streq	r0, [r8, -r0, lsl #6]
    2ea4:	000001b8 			; <UNDEFINED> instruction: 0x000001b8
    2ea8:	000ba305 	andeq	sl, fp, r5, lsl #6
    2eac:	25070200 	strcs	r0, [r7, #-512]	; 0x200
    2eb0:	05000000 	streq	r0, [r0, #-0]
    2eb4:	00000b8d 	andeq	r0, r0, sp, lsl #23
    2eb8:	00462c03 	subeq	r2, r6, r3, lsl #24
    2ebc:	69050000 	stmdbvs	r5, {}	; <UNPREDICTABLE>
    2ec0:	0300000c 	movweq	r0, #12
    2ec4:	00004672 	andeq	r4, r0, r2, ror r6
    2ec8:	0b310600 	bleq	c446d0 <__bss_end__+0xc3a6a8>
    2ecc:	65040000 	strvs	r0, [r4, #-0]
    2ed0:	00002c01 	andeq	r2, r0, r1, lsl #24
    2ed4:	03040700 	movweq	r0, #18176	; 0x4700
    2ed8:	0000bca6 	andeq	fp, r0, r6, lsr #25
    2edc:	0b1c0800 	bleq	704ee4 <__bss_end__+0x6faebc>
    2ee0:	a8030000 	stmdage	r3, {}	; <UNPREDICTABLE>
    2ee4:	00000091 	muleq	r0, r1, r0
    2ee8:	000ac408 	andeq	ip, sl, r8, lsl #8
    2eec:	bca90300 	stclt	3, cr0, [r9]
    2ef0:	00000000 	andeq	r0, r0, r0
    2ef4:	00005409 	andeq	r5, r0, r9, lsl #8
    2ef8:	0000cc00 	andeq	ip, r0, r0, lsl #24
    2efc:	00cc0a00 	sbceq	r0, ip, r0, lsl #20
    2f00:	00030000 	andeq	r0, r3, r0
    2f04:	de070403 	cdple	4, 0, cr0, cr7, cr3, {0}
    2f08:	0b000001 	bleq	2f14 <__code_start__-0x50ec>
    2f0c:	f4a30308 	vld4.8	{d0[0],d1[0],d2[0],d3[0]}, [r3], r8
    2f10:	0c000000 	stceq	0, cr0, [r0], {-0}
    2f14:	00000c4e 	andeq	r0, r0, lr, asr #24
    2f18:	0025a503 	eoreq	sl, r5, r3, lsl #10
    2f1c:	0c000000 	stceq	0, cr0, [r0], {-0}
    2f20:	00000c56 	andeq	r0, r0, r6, asr ip
    2f24:	009daa03 	addseq	sl, sp, r3, lsl #20
    2f28:	00040000 	andeq	r0, r4, r0
    2f2c:	000be105 	andeq	lr, fp, r5, lsl #2
    2f30:	d3ab0300 			; <UNDEFINED> instruction: 0xd3ab0300
    2f34:	05000000 	streq	r0, [r0, #-0]
    2f38:	00000a8d 	andeq	r0, r0, sp, lsl #21
    2f3c:	0070af03 	rsbseq	sl, r0, r3, lsl #30
    2f40:	040d0000 	streq	r0, [sp], #-0
    2f44:	0112040e 	tsteq	r2, lr, lsl #8
    2f48:	01030000 	mrseq	r0, (UNDEF: 3)
    2f4c:	0000ec08 	andeq	lr, r0, r8, lsl #24
    2f50:	01120f00 	tsteq	r2, r0, lsl #30
    2f54:	0b050000 	bleq	142f5c <__bss_end__+0x138f34>
    2f58:	0500000d 	streq	r0, [r0, #-13]
    2f5c:	00006216 	andeq	r6, r0, r6, lsl r2
    2f60:	0a9e1000 	beq	fe786f68 <__bss_end__+0xfe77cf40>
    2f64:	05180000 	ldreq	r0, [r8, #-0]
    2f68:	00017c2d 	andeq	r7, r1, sp, lsr #24
    2f6c:	0c020c00 	stceq	12, cr0, [r2], {-0}
    2f70:	2f050000 	svccs	0x00050000
    2f74:	0000017c 	andeq	r0, r0, ip, ror r1
    2f78:	6b5f1100 	blvs	17c7380 <__bss_end__+0x17bd358>
    2f7c:	25300500 	ldrcs	r0, [r0, #-1280]!	; 0x500
    2f80:	04000000 	streq	r0, [r0], #-0
    2f84:	000c390c 	andeq	r3, ip, ip, lsl #18
    2f88:	25300500 	ldrcs	r0, [r0, #-1280]!	; 0x500
    2f8c:	08000000 	stmdaeq	r0, {}	; <UNPREDICTABLE>
    2f90:	000a790c 	andeq	r7, sl, ip, lsl #18
    2f94:	25300500 	ldrcs	r0, [r0, #-1280]!	; 0x500
    2f98:	0c000000 	stceq	0, cr0, [r0], {-0}
    2f9c:	000d520c 	andeq	r5, sp, ip, lsl #4
    2fa0:	25300500 	ldrcs	r0, [r0, #-1280]!	; 0x500
    2fa4:	10000000 	andne	r0, r0, r0
    2fa8:	00785f11 	rsbseq	r5, r8, r1, lsl pc
    2fac:	01823105 	orreq	r3, r2, r5, lsl #2
    2fb0:	00140000 	andseq	r0, r4, r0
    2fb4:	0129040e 	teqeq	r9, lr, lsl #8
    2fb8:	1e090000 	cdpne	0, 0, cr0, cr9, cr0, {0}
    2fbc:	92000001 	andls	r0, r0, #1
    2fc0:	0a000001 	beq	2fcc <__code_start__-0x5034>
    2fc4:	000000cc 	andeq	r0, r0, ip, asr #1
    2fc8:	bf100000 	svclt	0x00100000
    2fcc:	2400000a 	strcs	r0, [r0], #-10
    2fd0:	020b3505 	andeq	r3, fp, #20971520	; 0x1400000
    2fd4:	770c0000 	strvc	r0, [ip, -r0]
    2fd8:	05000009 	streq	r0, [r0, #-9]
    2fdc:	00002537 	andeq	r2, r0, r7, lsr r5
    2fe0:	710c0000 	mrsvc	r0, (UNDEF: 12)
    2fe4:	0500000c 	streq	r0, [r0, #-12]
    2fe8:	00002538 	andeq	r2, r0, r8, lsr r5
    2fec:	a50c0400 	strge	r0, [ip, #-1024]	; 0x400
    2ff0:	05000009 	streq	r0, [r0, #-9]
    2ff4:	00002539 	andeq	r2, r0, r9, lsr r5
    2ff8:	420c0800 	andmi	r0, ip, #0, 16
    2ffc:	0500000e 	streq	r0, [r0, #-14]
    3000:	0000253a 	andeq	r2, r0, sl, lsr r5
    3004:	710c0c00 	tstvc	ip, r0, lsl #24
    3008:	0500000b 	streq	r0, [r0, #-11]
    300c:	0000253b 	andeq	r2, r0, fp, lsr r5
    3010:	460c1000 	strmi	r1, [ip], -r0
    3014:	0500000b 	streq	r0, [r0, #-11]
    3018:	0000253c 	andeq	r2, r0, ip, lsr r5
    301c:	570c1400 	strpl	r1, [ip, -r0, lsl #8]
    3020:	0500000d 	streq	r0, [r0, #-13]
    3024:	0000253d 	andeq	r2, r0, sp, lsr r5
    3028:	c30c1800 	movwgt	r1, #51200	; 0xc800
    302c:	0500000b 	streq	r0, [r0, #-11]
    3030:	0000253e 	andeq	r2, r0, lr, lsr r5
    3034:	090c1c00 	stmdbeq	ip, {sl, fp, ip}
    3038:	0500000e 	streq	r0, [r0, #-14]
    303c:	0000253f 	andeq	r2, r0, pc, lsr r5
    3040:	12002000 	andne	r2, r0, #0
    3044:	000009b4 			; <UNDEFINED> instruction: 0x000009b4
    3048:	48050108 	stmdami	r5, {r3, r8}
    304c:	0000024b 	andeq	r0, r0, fp, asr #4
    3050:	000a600c 	andeq	r6, sl, ip
    3054:	4b490500 	blmi	124445c <__bss_end__+0x123a434>
    3058:	00000002 	andeq	r0, r0, r2
    305c:	0008f20c 	andeq	pc, r8, ip, lsl #4
    3060:	4b4a0500 	blmi	1284468 <__bss_end__+0x127a440>
    3064:	80000002 	andhi	r0, r0, r2
    3068:	000cfd13 	andeq	pc, ip, r3, lsl sp	; <UNPREDICTABLE>
    306c:	1e4c0500 	cdpne	5, 4, cr0, cr12, cr0, {0}
    3070:	00000001 	andeq	r0, r0, r1
    3074:	09d91301 	ldmibeq	r9, {r0, r8, r9, ip}^
    3078:	4f050000 	svcmi	0x00050000
    307c:	0000011e 	andeq	r0, r0, lr, lsl r1
    3080:	09000104 	stmdbeq	r0, {r2, r8}
    3084:	0000010a 	andeq	r0, r0, sl, lsl #2
    3088:	0000025b 	andeq	r0, r0, fp, asr r2
    308c:	0000cc0a 	andeq	ip, r0, sl, lsl #24
    3090:	12001f00 	andne	r1, r0, #0, 30
    3094:	00000b7a 	andeq	r0, r0, sl, ror fp
    3098:	5b050190 	blpl	1436e0 <__bss_end__+0x1396b8>
    309c:	00000299 	muleq	r0, r9, r2
    30a0:	000c020c 	andeq	r0, ip, ip, lsl #4
    30a4:	995c0500 	ldmdbls	ip, {r8, sl}^
    30a8:	00000002 	andeq	r0, r0, r2
    30ac:	000c1a0c 	andeq	r1, ip, ip, lsl #20
    30b0:	255d0500 	ldrbcs	r0, [sp, #-1280]	; 0x500
    30b4:	04000000 	streq	r0, [r0], #-0
    30b8:	000a740c 	andeq	r7, sl, ip, lsl #8
    30bc:	9f5f0500 	svcls	0x005f0500
    30c0:	08000002 	stmdaeq	r0, {r1}
    30c4:	0009b40c 	andeq	fp, r9, ip, lsl #8
    30c8:	0b600500 	bleq	18044d0 <__bss_end__+0x17fa4a8>
    30cc:	88000002 	stmdahi	r0, {r1}
    30d0:	5b040e00 	blpl	1068d8 <__bss_end__+0xfc8b0>
    30d4:	09000002 	stmdbeq	r0, {r1}
    30d8:	000002af 	andeq	r0, r0, pc, lsr #5
    30dc:	000002af 	andeq	r0, r0, pc, lsr #5
    30e0:	0000cc0a 	andeq	ip, r0, sl, lsl #24
    30e4:	0e001f00 	cdpeq	15, 0, cr1, cr0, cr0, {0}
    30e8:	0002b504 	andeq	fp, r2, r4, lsl #10
    30ec:	cd101400 	cfldrsgt	mvf1, [r0, #-0]
    30f0:	0800000b 	stmdaeq	r0, {r0, r1, r3}
    30f4:	02db7305 	sbcseq	r7, fp, #335544320	; 0x14000000
    30f8:	9a0c0000 	bls	303100 <__bss_end__+0x2f90d8>
    30fc:	05000009 	streq	r0, [r0, #-9]
    3100:	0002db74 	andeq	sp, r2, r4, ror fp
    3104:	fe0c0000 	cdp2	0, 0, cr0, cr12, cr0, {0}
    3108:	05000008 	streq	r0, [r0, #-8]
    310c:	00002575 	andeq	r2, r0, r5, ror r5
    3110:	0e000400 	cfcpyseq	mvf0, mvf0
    3114:	00005404 	andeq	r5, r0, r4, lsl #8
    3118:	0bec1000 	bleq	ffb07120 <__bss_end__+0xffafd0f8>
    311c:	05680000 	strbeq	r0, [r8, #-0]!
    3120:	00040bb3 			; <UNDEFINED> instruction: 0x00040bb3
    3124:	705f1100 	subsvc	r1, pc, r0, lsl #2
    3128:	dbb40500 	blle	fed04530 <__bss_end__+0xfecfa508>
    312c:	00000002 	andeq	r0, r0, r2
    3130:	00725f11 	rsbseq	r5, r2, r1, lsl pc
    3134:	0025b505 	eoreq	fp, r5, r5, lsl #10
    3138:	11040000 	mrsne	r0, (UNDEF: 4)
    313c:	0500775f 	streq	r7, [r0, #-1887]	; 0x75f
    3140:	000025b6 			; <UNDEFINED> instruction: 0x000025b6
    3144:	d20c0800 	andle	r0, ip, #0, 16
    3148:	05000009 	streq	r0, [r0, #-9]
    314c:	00003fb7 			; <UNDEFINED> instruction: 0x00003fb7
    3150:	e50c0c00 	str	r0, [ip, #-3072]	; 0xc00
    3154:	0500000a 	streq	r0, [r0, #-10]
    3158:	00003fb8 			; <UNDEFINED> instruction: 0x00003fb8
    315c:	5f110e00 	svcpl	0x00110e00
    3160:	05006662 	streq	r6, [r0, #-1634]	; 0x662
    3164:	0002b6b9 			; <UNDEFINED> instruction: 0x0002b6b9
    3168:	410c1000 	mrsmi	r1, (UNDEF: 12)
    316c:	05000009 	streq	r0, [r0, #-9]
    3170:	000025ba 			; <UNDEFINED> instruction: 0x000025ba
    3174:	c20c1800 	andgt	r1, ip, #0, 16
    3178:	05000009 	streq	r0, [r0, #-9]
    317c:	00010ac1 	andeq	r0, r1, r1, asr #21
    3180:	690c1c00 	stmdbvs	ip, {sl, fp, ip}
    3184:	0500000e 	streq	r0, [r0, #-14]
    3188:	000566c3 	andeq	r6, r5, r3, asr #13
    318c:	830c2000 	movwhi	r2, #49152	; 0xc000
    3190:	0500000e 	streq	r0, [r0, #-14]
    3194:	000590c5 	andeq	r9, r5, r5, asr #1
    3198:	5e0c2400 	cfcpyspl	mvf2, mvf12
    319c:	0500000c 	streq	r0, [r0, #-12]
    31a0:	0005b4c8 	andeq	fp, r5, r8, asr #9
    31a4:	230c2800 	movwcs	r2, #51200	; 0xc800
    31a8:	0500000e 	streq	r0, [r0, #-14]
    31ac:	0005cec9 	andeq	ip, r5, r9, asr #29
    31b0:	5f112c00 	svcpl	0x00112c00
    31b4:	05006275 	streq	r6, [r0, #-629]	; 0x275
    31b8:	0002b6cc 	andeq	fp, r2, ip, asr #13
    31bc:	5f113000 	svcpl	0x00113000
    31c0:	05007075 	streq	r7, [r0, #-117]	; 0x75
    31c4:	0002dbcd 	andeq	sp, r2, sp, asr #23
    31c8:	5f113800 	svcpl	0x00113800
    31cc:	05007275 	streq	r7, [r0, #-629]	; 0x275
    31d0:	000025ce 	andeq	r2, r0, lr, asr #11
    31d4:	850c3c00 	strhi	r3, [ip, #-3072]	; 0xc00
    31d8:	05000009 	streq	r0, [r0, #-9]
    31dc:	0005d4d1 	ldrdeq	sp, [r5], -r1
    31e0:	ce0c4000 	cdpgt	0, 0, cr4, cr12, cr0, {0}
    31e4:	0500000d 	streq	r0, [r0, #-13]
    31e8:	0005e4d2 	ldrdeq	lr, [r5], -r2
    31ec:	5f114300 	svcpl	0x00114300
    31f0:	0500626c 	streq	r6, [r0, #-620]	; 0x26c
    31f4:	0002b6d5 	ldrdeq	fp, [r2], -r5
    31f8:	e80c4400 	stmda	ip, {sl, lr}
    31fc:	05000009 	streq	r0, [r0, #-9]
    3200:	000025d8 	ldrdeq	r2, [r0], -r8
    3204:	500c4c00 	andpl	r4, ip, r0, lsl #24
    3208:	0500000b 	streq	r0, [r0, #-11]
    320c:	00007bd9 	ldrdeq	r7, [r0], -r9
    3210:	b90c5000 	stmdblt	ip, {ip, lr}
    3214:	0500000d 	streq	r0, [r0, #-13]
    3218:	000429dc 	ldrdeq	r2, [r4], -ip
    321c:	380c5400 	stmdacc	ip, {sl, ip, lr}
    3220:	0500000b 	streq	r0, [r0, #-11]
    3224:	0000ffe0 	andeq	pc, r0, r0, ror #31
    3228:	f40c5800 	vst2.8	{d5-d6}, [ip], r0
    322c:	0500000b 	streq	r0, [r0, #-11]
    3230:	0000f4e2 	andeq	pc, r0, r2, ror #9
    3234:	3e0c5c00 	cdpcc	12, 0, cr5, cr12, cr0, {0}
    3238:	0500000b 	streq	r0, [r0, #-11]
    323c:	000025e3 	andeq	r2, r0, r3, ror #11
    3240:	15006400 	strne	r6, [r0, #-1024]	; 0x400
    3244:	00000025 	andeq	r0, r0, r5, lsr #32
    3248:	00000429 	andeq	r0, r0, r9, lsr #8
    324c:	00042916 	andeq	r2, r4, r6, lsl r9
    3250:	010a1600 	tsteq	sl, r0, lsl #12
    3254:	0c160000 	ldceq	0, cr0, [r6], {-0}
    3258:	16000001 	strne	r0, [r0], -r1
    325c:	00000025 	andeq	r0, r0, r5, lsr #32
    3260:	34040e00 	strcc	r0, [r4], #-3584	; 0xe00
    3264:	0f000004 	svceq	0x00000004
    3268:	00000429 	andeq	r0, r0, r9, lsr #8
    326c:	000c4117 	andeq	r4, ip, r7, lsl r1
    3270:	05042800 	streq	r2, [r4, #-2048]	; 0x800
    3274:	05660238 	strbeq	r0, [r6, #-568]!	; 0x238
    3278:	bc180000 	ldclt	0, cr0, [r8], {-0}
    327c:	0500000b 	streq	r0, [r0, #-11]
    3280:	0025023a 	eoreq	r0, r5, sl, lsr r2
    3284:	18000000 	stmdane	r0, {}	; <UNPREDICTABLE>
    3288:	000009e1 	andeq	r0, r0, r1, ror #19
    328c:	3b023f05 	blcc	92ea8 <__bss_end__+0x88e80>
    3290:	04000006 	streq	r0, [r0], #-6
    3294:	000ad518 	andeq	sp, sl, r8, lsl r5
    3298:	023f0500 	eorseq	r0, pc, #0, 10
    329c:	0000063b 	andeq	r0, r0, fp, lsr r6
    32a0:	0a961808 	beq	fe5892c8 <__bss_end__+0xfe57f2a0>
    32a4:	3f050000 	svccc	0x00050000
    32a8:	00063b02 	andeq	r3, r6, r2, lsl #22
    32ac:	15180c00 	ldrne	r0, [r8, #-3072]	; 0xc00
    32b0:	0500000c 	streq	r0, [r0, #-12]
    32b4:	00250241 	eoreq	r0, r5, r1, asr #4
    32b8:	18100000 	ldmdane	r0, {}	; <UNPREDICTABLE>
    32bc:	0000090c 	andeq	r0, r0, ip, lsl #18
    32c0:	1d024205 	sfmne	f4, 4, [r2, #-20]	; 0xffffffec
    32c4:	14000008 	strne	r0, [r0], #-8
    32c8:	000d3318 	andeq	r3, sp, r8, lsl r3
    32cc:	02440500 	subeq	r0, r4, #0, 10
    32d0:	00000025 	andeq	r0, r0, r5, lsr #32
    32d4:	0c1f1830 	ldceq	8, cr1, [pc], {48}	; 0x30
    32d8:	45050000 	strmi	r0, [r5, #-0]
    32dc:	00058a02 	andeq	r8, r5, r2, lsl #20
    32e0:	82183400 	andshi	r3, r8, #0, 8
    32e4:	0500000b 	streq	r0, [r0, #-11]
    32e8:	00250247 	eoreq	r0, r5, r7, asr #4
    32ec:	18380000 	ldmdane	r8!, {}	; <UNPREDICTABLE>
    32f0:	00000c2f 	andeq	r0, r0, pc, lsr #24
    32f4:	38024905 	stmdacc	r2, {r0, r2, r8, fp, lr}
    32f8:	3c000008 	stccc	0, cr0, [r0], {8}
    32fc:	000b1418 	andeq	r1, fp, r8, lsl r4
    3300:	024c0500 	subeq	r0, ip, #0, 10
    3304:	0000017c 	andeq	r0, r0, ip, ror r1
    3308:	0ab51840 	beq	fed49410 <__bss_end__+0xfed3f3e8>
    330c:	4d050000 	stcmi	0, cr0, [r5, #-0]
    3310:	00002502 	andeq	r2, r0, r2, lsl #10
    3314:	3d184400 	cfldrscc	mvf4, [r8, #-0]
    3318:	0500000e 	streq	r0, [r0, #-14]
    331c:	017c024e 	cmneq	ip, lr, asr #4
    3320:	18480000 	stmdane	r8, {}^	; <UNPREDICTABLE>
    3324:	00000b99 	muleq	r0, r9, fp
    3328:	3e024f05 	cdpcc	15, 0, cr4, cr2, cr5, {0}
    332c:	4c000008 	stcmi	0, cr0, [r0], {8}
    3330:	000add18 	andeq	sp, sl, r8, lsl sp
    3334:	02520500 	subseq	r0, r2, #0, 10
    3338:	00000025 	andeq	r0, r0, r5, lsr #32
    333c:	0a041850 	beq	109484 <__bss_end__+0xff45c>
    3340:	53050000 	movwpl	r0, #20480	; 0x5000
    3344:	00010c02 	andeq	r0, r1, r2, lsl #24
    3348:	b5185400 	ldrlt	r5, [r8, #-1024]	; 0x400
    334c:	0500000b 	streq	r0, [r0, #-11]
    3350:	07fb0276 			; <UNDEFINED> instruction: 0x07fb0276
    3354:	19580000 	ldmdbne	r8, {}^	; <UNPREDICTABLE>
    3358:	00000b7a 	andeq	r0, r0, sl, ror fp
    335c:	99027a05 	stmdbls	r2, {r0, r2, r9, fp, ip, sp, lr}
    3360:	48000002 	stmdami	r0, {r1}
    3364:	0af21901 	beq	ffc89770 <__bss_end__+0xffc7f748>
    3368:	7b050000 	blvc	143370 <__bss_end__+0x139348>
    336c:	00025b02 	andeq	r5, r2, r2, lsl #22
    3370:	19014c00 	stmdbne	r1, {sl, fp, lr}
    3374:	00000d9f 	muleq	r0, pc, sp	; <UNPREDICTABLE>
    3378:	4f027f05 	svcmi	0x00027f05
    337c:	dc000008 	stcle	0, cr0, [r0], {8}
    3380:	09ca1902 	stmibeq	sl, {r1, r8, fp, ip}^
    3384:	84050000 	strhi	r0, [r5], #-0
    3388:	00060002 	andeq	r0, r6, r2
    338c:	1902e000 	stmdbne	r2, {sp, lr, pc}
    3390:	000009af 	andeq	r0, r0, pc, lsr #19
    3394:	5b028505 	blpl	a47b0 <__bss_end__+0x9a788>
    3398:	ec000008 	stc	0, cr0, [r0], {8}
    339c:	040e0002 	streq	r0, [lr], #-2
    33a0:	0000040b 	andeq	r0, r0, fp, lsl #8
    33a4:	00002515 	andeq	r2, r0, r5, lsl r5
    33a8:	00058a00 	andeq	r8, r5, r0, lsl #20
    33ac:	04291600 	strteq	r1, [r9], #-1536	; 0x600
    33b0:	0a160000 	beq	5833b8 <__bss_end__+0x579390>
    33b4:	16000001 	strne	r0, [r0], -r1
    33b8:	0000058a 	andeq	r0, r0, sl, lsl #11
    33bc:	00002516 	andeq	r2, r0, r6, lsl r5
    33c0:	040e0000 	streq	r0, [lr], #-0
    33c4:	00000119 	andeq	r0, r0, r9, lsl r1
    33c8:	056c040e 	strbeq	r0, [ip, #-1038]!	; 0x40e
    33cc:	86150000 	ldrhi	r0, [r5], -r0
    33d0:	b4000000 	strlt	r0, [r0], #-0
    33d4:	16000005 	strne	r0, [r0], -r5
    33d8:	00000429 	andeq	r0, r0, r9, lsr #8
    33dc:	00010a16 	andeq	r0, r1, r6, lsl sl
    33e0:	00861600 	addeq	r1, r6, r0, lsl #12
    33e4:	25160000 	ldrcs	r0, [r6, #-0]
    33e8:	00000000 	andeq	r0, r0, r0
    33ec:	0596040e 	ldreq	r0, [r6, #1038]	; 0x40e
    33f0:	25150000 	ldrcs	r0, [r5, #-0]
    33f4:	ce000000 	cdpgt	0, 0, cr0, cr0, cr0, {0}
    33f8:	16000005 	strne	r0, [r0], -r5
    33fc:	00000429 	andeq	r0, r0, r9, lsr #8
    3400:	00010a16 	andeq	r0, r1, r6, lsl sl
    3404:	040e0000 	streq	r0, [lr], #-0
    3408:	000005ba 			; <UNDEFINED> instruction: 0x000005ba
    340c:	00005409 	andeq	r5, r0, r9, lsl #8
    3410:	0005e400 	andeq	lr, r5, r0, lsl #8
    3414:	00cc0a00 	sbceq	r0, ip, r0, lsl #20
    3418:	00020000 	andeq	r0, r2, r0
    341c:	00005409 	andeq	r5, r0, r9, lsl #8
    3420:	0005f400 	andeq	pc, r5, r0, lsl #8
    3424:	00cc0a00 	sbceq	r0, ip, r0, lsl #20
    3428:	00000000 	andeq	r0, r0, r0
    342c:	000bda06 	andeq	sp, fp, r6, lsl #20
    3430:	011d0500 	tsteq	sp, r0, lsl #10
    3434:	000002e1 	andeq	r0, r0, r1, ror #5
    3438:	000d611a 	andeq	r6, sp, sl, lsl r1
    343c:	21050c00 	tstcs	r5, r0, lsl #24
    3440:	00063501 	andeq	r3, r6, r1, lsl #10
    3444:	0c021800 	stceq	8, cr1, [r2], {-0}
    3448:	23050000 	movwcs	r0, #20480	; 0x5000
    344c:	00063501 	andeq	r3, r6, r1, lsl #10
    3450:	eb180000 	bl	603458 <__bss_end__+0x5f9430>
    3454:	0500000a 	streq	r0, [r0, #-10]
    3458:	00250124 	eoreq	r0, r5, r4, lsr #2
    345c:	18040000 	stmdane	r4, {}	; <UNPREDICTABLE>
    3460:	00000bd4 	ldrdeq	r0, [r0], -r4
    3464:	3b012505 	blcc	4c880 <__bss_end__+0x42858>
    3468:	08000006 	stmdaeq	r0, {r1, r2}
    346c:	00040e00 	andeq	r0, r4, r0, lsl #28
    3470:	0e000006 	cdpeq	0, 0, cr0, cr0, cr6, {0}
    3474:	0005f404 	andeq	pc, r5, r4, lsl #8
    3478:	09041a00 	stmdbeq	r4, {r9, fp, ip}
    347c:	050e0000 	streq	r0, [lr, #-0]
    3480:	0676013d 			; <UNDEFINED> instruction: 0x0676013d
    3484:	48180000 	ldmdami	r8, {}	; <UNPREDICTABLE>
    3488:	0500000c 	streq	r0, [r0, #-12]
    348c:	0676013e 			; <UNDEFINED> instruction: 0x0676013e
    3490:	18000000 	stmdane	r0, {}	; <UNPREDICTABLE>
    3494:	00000c82 	andeq	r0, r0, r2, lsl #25
    3498:	76013f05 	strvc	r3, [r1], -r5, lsl #30
    349c:	06000006 	streq	r0, [r0], -r6
    34a0:	000d0618 	andeq	r0, sp, r8, lsl r6
    34a4:	01400500 	cmpeq	r0, r0, lsl #10
    34a8:	0000005b 	andeq	r0, r0, fp, asr r0
    34ac:	5b09000c 	blpl	2434e4 <__bss_end__+0x2394bc>
    34b0:	86000000 	strhi	r0, [r0], -r0
    34b4:	0a000006 	beq	34d4 <__code_start__-0x4b2c>
    34b8:	000000cc 	andeq	r0, r0, ip, asr #1
    34bc:	d01b0002 	andsle	r0, fp, r2
    34c0:	87025705 	strhi	r5, [r2, -r5, lsl #14]
    34c4:	18000007 	stmdane	r0, {r0, r1, r2}
    34c8:	00000d45 	andeq	r0, r0, r5, asr #26
    34cc:	2c025905 	stccs	9, cr5, [r2], {5}
    34d0:	00000000 	andeq	r0, r0, r0
    34d4:	000cf018 	andeq	pc, ip, r8, lsl r0	; <UNPREDICTABLE>
    34d8:	025a0500 	subseq	r0, sl, #0, 10
    34dc:	0000010c 	andeq	r0, r0, ip, lsl #2
    34e0:	0b071804 	bleq	1c94f8 <__bss_end__+0x1bf4d0>
    34e4:	5b050000 	blpl	1434ec <__bss_end__+0x1394c4>
    34e8:	00078702 	andeq	r8, r7, r2, lsl #14
    34ec:	14180800 	ldrne	r0, [r8], #-2048	; 0x800
    34f0:	0500000e 	streq	r0, [r0, #-14]
    34f4:	0192025c 	orrseq	r0, r2, ip, asr r2
    34f8:	18240000 	stmdane	r4!, {}	; <UNPREDICTABLE>
    34fc:	00000aa6 	andeq	r0, r0, r6, lsr #21
    3500:	25025d05 	strcs	r5, [r2, #-3333]	; 0xd05
    3504:	48000000 	stmdami	r0, {}	; <UNPREDICTABLE>
    3508:	000bfd18 	andeq	pc, fp, r8, lsl sp	; <UNPREDICTABLE>
    350c:	025e0500 	subseq	r0, lr, #0, 10
    3510:	00000069 	andeq	r0, r0, r9, rrx
    3514:	0e2a1850 	mcreq	8, 1, r1, cr10, cr0, {2}
    3518:	5f050000 	svcpl	0x00050000
    351c:	00064102 	andeq	r4, r6, r2, lsl #2
    3520:	08185800 	ldmdaeq	r8, {fp, ip, lr}
    3524:	0500000c 	streq	r0, [r0, #-12]
    3528:	00f40260 	rscseq	r0, r4, r0, ror #4
    352c:	18680000 	stmdane	r8!, {}^	; <UNPREDICTABLE>
    3530:	00000e2f 	andeq	r0, r0, pc, lsr #28
    3534:	f4026105 	vst4.8	{d6,d8,d10,d12}, [r2], r5
    3538:	70000000 	andvc	r0, r0, r0
    353c:	00096918 	andeq	r6, r9, r8, lsl r9
    3540:	02620500 	rsbeq	r0, r2, #0, 10
    3544:	000000f4 	strdeq	r0, [r0], -r4
    3548:	0d811878 	stceq	8, cr1, [r1, #480]	; 0x1e0
    354c:	63050000 	movwvs	r0, #20480	; 0x5000
    3550:	00079702 	andeq	r9, r7, r2, lsl #14
    3554:	fb188000 	blx	62355e <__bss_end__+0x619536>
    3558:	0500000a 	streq	r0, [r0, #-10]
    355c:	07a70264 	streq	r0, [r7, r4, ror #4]!
    3560:	18880000 	stmne	r8, {}	; <UNPREDICTABLE>
    3564:	00000d13 	andeq	r0, r0, r3, lsl sp
    3568:	25026505 	strcs	r6, [r2, #-1285]	; 0x505
    356c:	a0000000 	andge	r0, r0, r0
    3570:	000a5218 	andeq	r5, sl, r8, lsl r2
    3574:	02660500 	rsbeq	r0, r6, #0, 10
    3578:	000000f4 	strdeq	r0, [r0], -r4
    357c:	095a18a4 	ldmdbeq	sl, {r2, r5, r7, fp, ip}^
    3580:	67050000 	strvs	r0, [r5, -r0]
    3584:	0000f402 	andeq	pc, r0, r2, lsl #8
    3588:	4118ac00 	tstmi	r8, r0, lsl #24
    358c:	0500000a 	streq	r0, [r0, #-10]
    3590:	00f40268 	rscseq	r0, r4, r8, ror #4
    3594:	18b40000 	ldmne	r4!, {}	; <UNPREDICTABLE>
    3598:	00000921 	andeq	r0, r0, r1, lsr #18
    359c:	f4026905 	vst2.8	{d6,d8}, [r2], r5
    35a0:	bc000000 	stclt	0, cr0, [r0], {-0}
    35a4:	00093018 	andeq	r3, r9, r8, lsl r0
    35a8:	026a0500 	rsbeq	r0, sl, #0, 10
    35ac:	000000f4 	strdeq	r0, [r0], -r4
    35b0:	0bba18c4 	bleq	fee898c8 <__bss_end__+0xfee7f8a0>
    35b4:	6b050000 	blvs	1435bc <__bss_end__+0x139594>
    35b8:	00002502 	andeq	r2, r0, r2, lsl #10
    35bc:	0900cc00 	stmdbeq	r0, {sl, fp, lr, pc}
    35c0:	00000112 	andeq	r0, r0, r2, lsl r1
    35c4:	00000797 	muleq	r0, r7, r7
    35c8:	0000cc0a 	andeq	ip, r0, sl, lsl #24
    35cc:	09001900 	stmdbeq	r0, {r8, fp, ip}
    35d0:	00000112 	andeq	r0, r0, r2, lsl r1
    35d4:	000007a7 	andeq	r0, r0, r7, lsr #15
    35d8:	0000cc0a 	andeq	ip, r0, sl, lsl #24
    35dc:	09000700 	stmdbeq	r0, {r8, r9, sl}
    35e0:	00000112 	andeq	r0, r0, r2, lsl r1
    35e4:	000007b7 			; <UNDEFINED> instruction: 0x000007b7
    35e8:	0000cc0a 	andeq	ip, r0, sl, lsl #24
    35ec:	1b001700 	blne	91f4 <rpi_reboot+0x3c>
    35f0:	027005f0 	rsbseq	r0, r0, #240, 10	; 0x3c000000
    35f4:	000007db 	ldrdeq	r0, [r0], -fp
    35f8:	000b6a18 	andeq	r6, fp, r8, lsl sl
    35fc:	02730500 	rsbseq	r0, r3, #0, 10
    3600:	000007db 	ldrdeq	r0, [r0], -fp
    3604:	0d781800 	ldcleq	8, cr1, [r8, #-0]
    3608:	74050000 	strvc	r0, [r5], #-0
    360c:	0007eb02 	andeq	lr, r7, r2, lsl #22
    3610:	09007800 	stmdbeq	r0, {fp, ip, sp, lr}
    3614:	000002db 	ldrdeq	r0, [r0], -fp
    3618:	000007eb 	andeq	r0, r0, fp, ror #15
    361c:	0000cc0a 	andeq	ip, r0, sl, lsl #24
    3620:	09001d00 	stmdbeq	r0, {r8, sl, fp, ip}
    3624:	0000002c 	andeq	r0, r0, ip, lsr #32
    3628:	000007fb 	strdeq	r0, [r0], -fp
    362c:	0000cc0a 	andeq	ip, r0, sl, lsl #24
    3630:	1c001d00 	stcne	13, cr1, [r0], {-0}
    3634:	025505f0 	subseq	r0, r5, #240, 10	; 0x3c000000
    3638:	0000081d 	andeq	r0, r0, sp, lsl r8
    363c:	000c411d 	andeq	r4, ip, sp, lsl r1
    3640:	026c0500 	rsbeq	r0, ip, #0, 10
    3644:	00000686 	andeq	r0, r0, r6, lsl #13
    3648:	000dd41d 	andeq	sp, sp, sp, lsl r4
    364c:	02750500 	rsbseq	r0, r5, #0, 10
    3650:	000007b7 			; <UNDEFINED> instruction: 0x000007b7
    3654:	01120900 	tsteq	r2, r0, lsl #18
    3658:	082d0000 	stmdaeq	sp!, {}	; <UNPREDICTABLE>
    365c:	cc0a0000 	stcgt	0, cr0, [sl], {-0}
    3660:	18000000 	stmdane	r0, {}	; <UNPREDICTABLE>
    3664:	08381e00 	ldmdaeq	r8!, {r9, sl, fp, ip}
    3668:	29160000 	ldmdbcs	r6, {}	; <UNPREDICTABLE>
    366c:	00000004 	andeq	r0, r0, r4
    3670:	082d040e 	stmdaeq	sp!, {r1, r2, r3, sl}
    3674:	040e0000 	streq	r0, [lr], #-0
    3678:	0000017c 	andeq	r0, r0, ip, ror r1
    367c:	00084f1e 	andeq	r4, r8, lr, lsl pc
    3680:	00251600 	eoreq	r1, r5, r0, lsl #12
    3684:	0e000000 	cdpeq	0, 0, cr0, cr0, cr0, {0}
    3688:	00085504 	andeq	r5, r8, r4, lsl #10
    368c:	44040e00 	strmi	r0, [r4], #-3584	; 0xe00
    3690:	09000008 	stmdbeq	r0, {r3}
    3694:	000005f4 	strdeq	r0, [r0], -r4
    3698:	0000086b 	andeq	r0, r0, fp, ror #16
    369c:	0000cc0a 	andeq	ip, r0, sl, lsl #24
    36a0:	1f000200 	svcne	0x00000200
    36a4:	00000d27 	andeq	r0, r0, r7, lsr #26
    36a8:	2902fd05 	stmdbcs	r2, {r0, r2, r8, sl, fp, ip, sp, lr, pc}
    36ac:	1f000004 	svcne	0x00000004
    36b0:	00000d20 	andeq	r0, r0, r0, lsr #26
    36b4:	2f02fe05 	svccs	0x0002fe05
    36b8:	15000004 	strne	r0, [r0, #-4]
    36bc:	00000025 	andeq	r0, r0, r5, lsr #32
    36c0:	00000892 	muleq	r0, r2, r8
    36c4:	00002516 	andeq	r2, r0, r6, lsl r5
    36c8:	21200000 	teqcs	r0, r0
    36cc:	06000005 	streq	r0, [r0], -r5
    36d0:	00089d1d 	andeq	r9, r8, sp, lsl sp
    36d4:	83040e00 	movwhi	r0, #19968	; 0x4e00
    36d8:	15000008 	strne	r0, [r0, #-8]
    36dc:	00000025 	andeq	r0, r0, r5, lsr #32
    36e0:	000008b2 			; <UNDEFINED> instruction: 0x000008b2
    36e4:	00058a16 	andeq	r8, r5, r6, lsl sl
    36e8:	5e200000 	cdppl	0, 2, cr0, cr0, cr0, {0}
    36ec:	06000005 	streq	r0, [r0], -r5
    36f0:	0008bd22 	andeq	fp, r8, r2, lsr #26
    36f4:	a3040e00 	movwge	r0, #19968	; 0x4e00
    36f8:	21000008 	tstcs	r0, r8
    36fc:	00005401 	andeq	r5, r0, r1, lsl #8
    3700:	000c0800 	andeq	r0, ip, r0, lsl #16
    3704:	22000009 	andcs	r0, r0, #9
    3708:	0000094a 	andeq	r0, r0, sl, asr #18
    370c:	0d672200 	sfmeq	f2, 2, [r7, #-0]
    3710:	22010000 	andcs	r0, r1, #0
    3714:	00000dbf 			; <UNDEFINED> instruction: 0x00000dbf
    3718:	098b2204 	stmibeq	fp, {r2, r9, sp}
    371c:	22050000 	andcs	r0, r5, #0
    3720:	00000b22 	andeq	r0, r0, r2, lsr #22
    3724:	0ddc2206 	lfmeq	f2, 2, [ip, #24]
    3728:	22070000 	andcs	r0, r7, #0
    372c:	00000deb 	andeq	r0, r0, fp, ror #27
    3730:	0dfa2203 	lfmeq	f2, 2, [sl, #12]!
    3734:	00020000 	andeq	r0, r2, r0
    3738:	0009f810 	andeq	pc, r9, r0, lsl r8	; <UNPREDICTABLE>
    373c:	06072c00 	streq	r2, [r7], -r0, lsl #24
    3740:	00000990 	muleq	r0, r0, r9
    3744:	006f6911 	rsbeq	r6, pc, r1, lsl r9	; <UNPREDICTABLE>
    3748:	00330907 	eorseq	r0, r3, r7, lsl #18
    374c:	11000000 	mrsne	r0, (UNDEF: 0)
    3750:	00726569 	rsbseq	r6, r2, r9, ror #10
    3754:	00330a07 	eorseq	r0, r3, r7, lsl #20
    3758:	11040000 	mrsne	r0, (UNDEF: 4)
    375c:	00726969 	rsbseq	r6, r2, r9, ror #18
    3760:	00331107 	eorseq	r1, r3, r7, lsl #2
    3764:	11080000 	mrsne	r0, (UNDEF: 8)
    3768:	0072636c 	rsbseq	r6, r2, ip, ror #6
    376c:	00331307 	eorseq	r1, r3, r7, lsl #6
    3770:	110c0000 	mrsne	r0, (UNDEF: 12)
    3774:	0072636d 	rsbseq	r6, r2, sp, ror #6
    3778:	00331407 	eorseq	r1, r3, r7, lsl #8
    377c:	11100000 	tstne	r0, r0
    3780:	0072736c 	rsbseq	r7, r2, ip, ror #6
    3784:	00331507 	eorseq	r1, r3, r7, lsl #10
    3788:	11140000 	tstne	r4, r0
    378c:	0072736d 	rsbseq	r7, r2, sp, ror #6
    3790:	00331607 	eorseq	r1, r3, r7, lsl #12
    3794:	0c180000 	ldceq	0, cr0, [r8], {-0}
    3798:	00000c7a 	andeq	r0, r0, sl, ror ip
    379c:	00331707 	eorseq	r1, r3, r7, lsl #14
    37a0:	0c1c0000 	ldceq	0, cr0, [ip], {-0}
    37a4:	000009a0 	andeq	r0, r0, r0, lsr #19
    37a8:	00331b07 	eorseq	r1, r3, r7, lsl #22
    37ac:	0c200000 	stceq	0, cr0, [r0], #-0
    37b0:	00000980 	andeq	r0, r0, r0, lsl #19
    37b4:	00331d07 	eorseq	r1, r3, r7, lsl #26
    37b8:	0c240000 	stceq	0, cr0, [r4], #-0
    37bc:	00000c64 	andeq	r0, r0, r4, ror #24
    37c0:	00331e07 	eorseq	r1, r3, r7, lsl #28
    37c4:	00280000 	eoreq	r0, r8, r0
    37c8:	000a6823 	andeq	r6, sl, r3, lsr #16
    37cc:	a5070100 	strge	r0, [r7, #-256]	; 0x100
    37d0:	04000009 	streq	r0, [r0], #-9
    37d4:	0e202150 	mcreq	1, 1, r2, cr0, cr0, {2}
    37d8:	00003304 	andeq	r3, r0, r4, lsl #6
    37dc:	099f0f00 	ldmibeq	pc, {r8, r9, sl, fp}	; <UNPREDICTABLE>
    37e0:	94230000 	strtls	r0, [r3], #-0
    37e4:	0100000b 	tsteq	r0, fp
    37e8:	0009bf28 	andeq	fp, r9, r8, lsr #30
    37ec:	21504000 	cmpcs	r0, r0
    37f0:	00040e20 	andeq	r0, r4, r0, lsr #28
    37f4:	0f000009 	svceq	0x00000009
    37f8:	000009b9 			; <UNDEFINED> instruction: 0x000009b9
    37fc:	000db124 	andeq	fp, sp, r4, lsr #2
    3800:	25a70100 	strcs	r0, [r7, #256]!	; 0x100
    3804:	64000000 	strvs	r0, [r0], #-0
    3808:	10000094 	mulne	r0, r4, r0
    380c:	01000000 	mrseq	r0, (UNDEF: 0)
    3810:	0009f09c 	muleq	r9, ip, r0
    3814:	946c2500 	strbtls	r2, [ip], #-1280	; 0x500
    3818:	0c9c0000 	ldceq	0, cr0, [ip], {0}
    381c:	70250000 	eorvc	r0, r5, r0
    3820:	d2000094 	andle	r0, r0, #148	; 0x94
    3824:	0000000a 	andeq	r0, r0, sl
    3828:	00050626 	andeq	r0, r5, r6, lsr #12
    382c:	349f0100 	ldrcc	r0, [pc], #256	; 3834 <__code_start__-0x47cc>
    3830:	30000094 	mulcc	r0, r4, r0
    3834:	01000000 	mrseq	r0, (UNDEF: 0)
    3838:	000a4e9c 	muleq	sl, ip, lr
    383c:	00632700 	rsbeq	r2, r3, r0, lsl #14
    3840:	002c9f01 	eoreq	r9, ip, r1, lsl #30
    3844:	0f940000 	svceq	0x00940000
    3848:	40250000 	eormi	r0, r5, r0
    384c:	9c000094 	stcls	0, cr0, [r0], {148}	; 0x94
    3850:	2500000c 	strcs	r0, [r0, #-12]
    3854:	00009444 	andeq	r9, r0, r4, asr #8
    3858:	00000aa5 	andeq	r0, r0, r5, lsr #21
    385c:	00945828 	addseq	r5, r4, r8, lsr #16
    3860:	000ca700 	andeq	sl, ip, r0, lsl #14
    3864:	000a4400 	andeq	r4, sl, r0, lsl #8
    3868:	50012900 	andpl	r2, r1, r0, lsl #18
    386c:	50400c05 	subpl	r0, r0, r5, lsl #24
    3870:	01292021 	teqeq	r9, r1, lsr #32
    3874:	00740551 	rsbseq	r0, r4, r1, asr r5
    3878:	001aff08 	andseq	pc, sl, r8, lsl #30
    387c:	00945c25 	addseq	r5, r4, r5, lsr #24
    3880:	000c9c00 	andeq	r9, ip, r0, lsl #24
    3884:	cb240000 	blgt	90388c <__bss_end__+0x8f9864>
    3888:	0100000a 	tsteq	r0, sl
    388c:	00002597 	muleq	r0, r7, r5
    3890:	00940400 	addseq	r0, r4, r0, lsl #8
    3894:	00003000 	andeq	r3, r0, r0
    3898:	a59c0100 	ldrge	r0, [ip, #256]	; 0x100
    389c:	2a00000a 	bcs	38cc <__code_start__-0x4734>
    38a0:	9b010063 	blls	43a34 <__bss_end__+0x39a0c>
    38a4:	00000025 	andeq	r0, r0, r5, lsr #32
    38a8:	0c255401 	cfstrseq	mvf5, [r5], #-4
    38ac:	9c000094 	stcls	0, cr0, [r0], {148}	; 0x94
    38b0:	2500000c 	strcs	r0, [r0, #-12]
    38b4:	00009410 	andeq	r9, r0, r0, lsl r4
    38b8:	00000ad2 	ldrdeq	r0, [r0], -r2
    38bc:	00942028 	addseq	r2, r4, r8, lsr #32
    38c0:	000cb200 	andeq	fp, ip, r0, lsl #4
    38c4:	000a9b00 	andeq	r9, sl, r0, lsl #22
    38c8:	50012900 	andpl	r2, r1, r0, lsl #18
    38cc:	50400c05 	subpl	r0, r0, r5, lsl #24
    38d0:	25002021 	strcs	r2, [r0, #-33]	; 0x21
    38d4:	00009428 	andeq	r9, r0, r8, lsr #8
    38d8:	00000c9c 	muleq	r0, ip, ip
    38dc:	0a7f2400 	beq	1fcc8e4 <__bss_end__+0x1fc28bc>
    38e0:	88010000 	stmdahi	r1, {}	; <UNPREDICTABLE>
    38e4:	00000025 	andeq	r0, r0, r5, lsr #32
    38e8:	000093e4 	andeq	r9, r0, r4, ror #7
    38ec:	00000020 	andeq	r0, r0, r0, lsr #32
    38f0:	0ad29c01 	beq	ff4aa8fc <__bss_end__+0xff4a08d4>
    38f4:	f02b0000 			; <UNDEFINED> instruction: 0xf02b0000
    38f8:	b2000093 	andlt	r0, r0, #147	; 0x93
    38fc:	2900000c 	stmdbcs	r0, {r2, r3}
    3900:	0c055001 	stceq	0, cr5, [r5], {1}
    3904:	20215064 	eorcs	r5, r1, r4, rrx
    3908:	91240000 	teqls	r4, r0
    390c:	0100000d 	tsteq	r0, sp
    3910:	0000257f 	andeq	r2, r0, pc, ror r5
    3914:	0093cc00 	addseq	ip, r3, r0, lsl #24
    3918:	00001800 	andeq	r1, r0, r0, lsl #16
    391c:	ff9c0100 			; <UNDEFINED> instruction: 0xff9c0100
    3920:	2b00000a 	blcs	3950 <__code_start__-0x46b0>
    3924:	000093d8 	ldrdeq	r9, [r0], -r8
    3928:	00000cb2 			; <UNDEFINED> instruction: 0x00000cb2
    392c:	05500129 	ldrbeq	r0, [r0, #-297]	; 0x129
    3930:	2150640c 	cmpcs	r0, ip, lsl #8
    3934:	26000020 	strcs	r0, [r0], -r0, lsr #32
    3938:	00000917 	andeq	r0, r0, r7, lsl r9
    393c:	931c3a01 	tstls	ip, #4096	; 0x1000
    3940:	00b00000 	adcseq	r0, r0, r0
    3944:	9c010000 	stcls	0, cr0, [r1], {-0}
    3948:	00000c3d 	andeq	r0, r0, sp, lsr ip
    394c:	00932c28 	addseq	r2, r3, r8, lsr #24
    3950:	000cbd00 	andeq	fp, ip, r0, lsl #26
    3954:	000b2c00 	andeq	r2, fp, r0, lsl #24
    3958:	50012900 	andpl	r2, r1, r0, lsl #18
    395c:	01293e01 	teqeq	r9, r1, lsl #28
    3960:	00320151 	eorseq	r0, r2, r1, asr r1
    3964:	00933828 	addseq	r3, r3, r8, lsr #16
    3968:	000cbd00 	andeq	fp, ip, r0, lsl #26
    396c:	000b4400 	andeq	r4, fp, r0, lsl #8
    3970:	50012900 	andpl	r2, r1, r0, lsl #18
    3974:	01293f01 	teqeq	r9, r1, lsl #30
    3978:	00320151 	eorseq	r0, r2, r1, asr r1
    397c:	00933c25 	addseq	r3, r3, r5, lsr #24
    3980:	000c9c00 	andeq	r9, ip, r0, lsl #24
    3984:	93482800 	movtls	r2, #34816	; 0x8800
    3988:	0c3d0000 	ldceq	0, cr0, [sp], #-0
    398c:	0b690000 	bleq	1a43994 <__bss_end__+0x1a3996c>
    3990:	01290000 	teqeq	r9, r0
    3994:	040c0550 	streq	r0, [ip], #-1360	; 0x550
    3998:	29202150 	stmdbcs	r0!, {r4, r6, r8, sp}
    399c:	31015101 	tstcc	r1, r1, lsl #2
    39a0:	934c2500 	movtls	r2, #50432	; 0xc500
    39a4:	0c9c0000 	ldceq	0, cr0, [ip], {0}
    39a8:	5c280000 	stcpl	0, cr0, [r8], #-0
    39ac:	a7000093 			; <UNDEFINED> instruction: 0xa7000093
    39b0:	8b00000c 	blhi	39e8 <__code_start__-0x4618>
    39b4:	2900000b 	stmdbcs	r0, {r0, r1, r3}
    39b8:	74025001 	strvc	r5, [r2], #-1
    39bc:	51012900 	tstpl	r1, r0, lsl #18
    39c0:	28003001 	stmdacs	r0, {r0, ip, sp}
    39c4:	00009368 	andeq	r9, r0, r8, ror #6
    39c8:	00000ca7 	andeq	r0, r0, r7, lsr #25
    39cc:	00000ba7 	andeq	r0, r0, r7, lsr #23
    39d0:	05500129 	ldrbeq	r0, [r0, #-297]	; 0x129
    39d4:	2150440c 	cmpcs	r0, ip, lsl #8
    39d8:	51012920 	tstpl	r1, r0, lsr #18
    39dc:	28003001 	stmdacs	r0, {r0, ip, sp}
    39e0:	00009374 	andeq	r9, r0, r4, ror r3
    39e4:	00000ca7 	andeq	r0, r0, r7, lsr #25
    39e8:	00000bc3 	andeq	r0, r0, r3, asr #23
    39ec:	05500129 	ldrbeq	r0, [r0, #-297]	; 0x129
    39f0:	21504c0c 	cmpcs	r0, ip, lsl #24
    39f4:	51012920 	tstpl	r1, r0, lsr #18
    39f8:	28003301 	stmdacs	r0, {r0, r8, r9, ip, sp}
    39fc:	00009380 	andeq	r9, r0, r0, lsl #7
    3a00:	00000ca7 	andeq	r0, r0, r7, lsr #25
    3a04:	00000bdf 	ldrdeq	r0, [r0], -pc	; <UNPREDICTABLE>
    3a08:	05500129 	ldrbeq	r0, [r0, #-297]	; 0x129
    3a0c:	2150500c 	cmpcs	r0, ip
    3a10:	51012920 	tstpl	r1, r0, lsr #18
    3a14:	28003001 	stmdacs	r0, {r0, ip, sp}
    3a18:	0000938c 	andeq	r9, r0, ip, lsl #7
    3a1c:	00000ca7 	andeq	r0, r0, r7, lsr #25
    3a20:	00000bfc 	strdeq	r0, [r0], -ip
    3a24:	05500129 	ldrbeq	r0, [r0, #-297]	; 0x129
    3a28:	2150480c 	cmpcs	r0, ip, lsl #16
    3a2c:	51012920 	tstpl	r1, r0, lsr #18
    3a30:	00c70802 	sbceq	r0, r7, r2, lsl #16
    3a34:	00939828 	addseq	r9, r3, r8, lsr #16
    3a38:	000ca700 	andeq	sl, ip, r0, lsl #14
    3a3c:	000c1a00 	andeq	r1, ip, r0, lsl #20
    3a40:	50012900 	andpl	r2, r1, r0, lsl #18
    3a44:	50680c05 	rsbpl	r0, r8, r5, lsl #24
    3a48:	01292021 	teqeq	r9, r1, lsr #32
    3a4c:	0e0a0351 	mcreq	3, 0, r0, cr10, cr1, {2}
    3a50:	a4280001 	strtge	r0, [r8], #-1
    3a54:	a7000093 			; <UNDEFINED> instruction: 0xa7000093
    3a58:	3300000c 	movwcc	r0, #12
    3a5c:	2900000c 	stmdbcs	r0, {r2, r3}
    3a60:	74025001 	strvc	r5, [r2], #-1
    3a64:	51012900 	tstpl	r1, r0, lsl #18
    3a68:	25003301 	strcs	r3, [r0, #-769]	; 0x301
    3a6c:	000093a8 	andeq	r9, r0, r8, lsr #7
    3a70:	00000c9c 	muleq	r0, ip, ip
    3a74:	0da92c00 	stceq	12, cr2, [r9]
    3a78:	2d010000 	stccs	0, cr0, [r1, #-0]
    3a7c:	000092fc 	strdeq	r9, [r0], -ip
    3a80:	00000020 	andeq	r0, r0, r0, lsr #32
    3a84:	0c959c01 	ldceq	12, cr9, [r5], {1}
    3a88:	e42d0000 	strt	r0, [sp], #-0
    3a8c:	01000003 	tsteq	r0, r3
    3a90:	000c952d 	andeq	r9, ip, sp, lsr #10
    3a94:	000fb200 	andeq	fp, pc, r0, lsl #4
    3a98:	61762700 	cmnvs	r6, r0, lsl #14
    3a9c:	2d01006c 	stccs	0, cr0, [r1, #-432]	; 0xfffffe50
    3aa0:	0000002c 	andeq	r0, r0, ip, lsr #32
    3aa4:	00000fd0 	ldrdeq	r0, [r0], -r0	; <UNPREDICTABLE>
    3aa8:	00930c28 	addseq	r0, r3, r8, lsr #24
    3aac:	000cb200 	andeq	fp, ip, r0, lsl #4
    3ab0:	000c8400 	andeq	r8, ip, r0, lsl #8
    3ab4:	50012900 	andpl	r2, r1, r0, lsl #18
    3ab8:	00007402 	andeq	r7, r0, r2, lsl #8
    3abc:	0093182b 	addseq	r1, r3, fp, lsr #16
    3ac0:	000ca700 	andeq	sl, ip, r0, lsl #14
    3ac4:	50012900 	andpl	r2, r1, r0, lsl #18
    3ac8:	00007402 	andeq	r7, r0, r2, lsl #8
    3acc:	9b040e00 	blls	1072d4 <__bss_end__+0xfd2ac>
    3ad0:	2e00000c 	cdpcs	0, 0, cr0, cr0, cr12, {0}
    3ad4:	0007cd2f 	andeq	ip, r7, pc, lsr #26
    3ad8:	0007cd00 	andeq	ip, r7, r0, lsl #26
    3adc:	2f890600 	svccs	0x00890600
    3ae0:	00000c88 	andeq	r0, r0, r8, lsl #25
    3ae4:	00000c88 	andeq	r0, r0, r8, lsl #25
    3ae8:	8b2f9c06 	blhi	beab08 <__bss_end__+0xbe0ae0>
    3aec:	8b00000d 	blhi	3b28 <__code_start__-0x44d8>
    3af0:	0600000d 	streq	r0, [r0], -sp
    3af4:	0b582fa8 	bleq	160f99c <__bss_end__+0x1605974>
    3af8:	0b580000 	bleq	1603b00 <__bss_end__+0x15f9ad8>
    3afc:	19080000 	stmdbne	r8, {}	; <UNPREDICTABLE>
    3b00:	000b7000 	andeq	r7, fp, r0
    3b04:	91000400 	tstls	r0, r0, lsl #8
    3b08:	04000013 	streq	r0, [r0], #-19
    3b0c:	000c8e01 	andeq	r8, ip, r1, lsl #28
    3b10:	0e5e0c00 	cdpeq	12, 5, cr0, cr14, cr0, {0}
    3b14:	0a0c0000 	beq	303b1c <__bss_end__+0x2f9af4>
    3b18:	94740000 	ldrbtls	r0, [r4], #-0
    3b1c:	01200000 	teqeq	r0, r0
    3b20:	0f930000 	svceq	0x00930000
    3b24:	04020000 	streq	r0, [r2], #-0
    3b28:	746e6905 	strbtvc	r6, [lr], #-2309	; 0x905
    3b2c:	07040300 	streq	r0, [r4, -r0, lsl #6]
    3b30:	000001c2 	andeq	r0, r0, r2, asr #3
    3b34:	00002c04 	andeq	r2, r0, r4, lsl #24
    3b38:	06010300 	streq	r0, [r1], -r0, lsl #6
    3b3c:	000000e5 	andeq	r0, r0, r5, ror #1
    3b40:	37050203 	strcc	r0, [r5, -r3, lsl #4]
    3b44:	03000002 	movweq	r0, #2
    3b48:	02000504 	andeq	r0, r0, #4, 10	; 0x1000000
    3b4c:	08030000 	stmdaeq	r3, {}	; <UNPREDICTABLE>
    3b50:	0001fb05 	andeq	pc, r1, r5, lsl #22
    3b54:	08010300 	stmdaeq	r1, {r8, r9}
    3b58:	000000e3 	andeq	r0, r0, r3, ror #1
    3b5c:	4c070203 	sfmmi	f0, 4, [r7], {3}
    3b60:	03000000 	movweq	r0, #0
    3b64:	01bd0704 			; <UNDEFINED> instruction: 0x01bd0704
    3b68:	08030000 	stmdaeq	r3, {}	; <UNPREDICTABLE>
    3b6c:	0001b807 	andeq	fp, r1, r7, lsl #16
    3b70:	0ba30500 	bleq	fe8c4f78 <__bss_end__+0xfe8baf50>
    3b74:	07020000 	streq	r0, [r2, -r0]
    3b78:	00000025 	andeq	r0, r0, r5, lsr #32
    3b7c:	000b8d05 	andeq	r8, fp, r5, lsl #26
    3b80:	462c0300 	strtmi	r0, [ip], -r0, lsl #6
    3b84:	05000000 	streq	r0, [r0, #-0]
    3b88:	00000c69 	andeq	r0, r0, r9, ror #24
    3b8c:	00467203 	subeq	r7, r6, r3, lsl #4
    3b90:	31060000 	mrscc	r0, (UNDEF: 6)
    3b94:	0400000b 	streq	r0, [r0], #-11
    3b98:	002c0165 	eoreq	r0, ip, r5, ror #2
    3b9c:	04070000 	streq	r0, [r7], #-0
    3ba0:	00bca603 	adcseq	sl, ip, r3, lsl #12
    3ba4:	1c080000 	stcne	0, cr0, [r8], {-0}
    3ba8:	0300000b 	movweq	r0, #11
    3bac:	000091a8 	andeq	r9, r0, r8, lsr #3
    3bb0:	0ac40800 	beq	ff105bb8 <__bss_end__+0xff0fbb90>
    3bb4:	a9030000 	stmdbge	r3, {}	; <UNPREDICTABLE>
    3bb8:	000000bc 	strheq	r0, [r0], -ip
    3bbc:	00540900 	subseq	r0, r4, r0, lsl #18
    3bc0:	00cc0000 	sbceq	r0, ip, r0
    3bc4:	cc0a0000 	stcgt	0, cr0, [sl], {-0}
    3bc8:	03000000 	movweq	r0, #0
    3bcc:	07040300 	streq	r0, [r4, -r0, lsl #6]
    3bd0:	000001de 	ldrdeq	r0, [r0], -lr
    3bd4:	a303080b 	movwge	r0, #14347	; 0x380b
    3bd8:	000000f4 	strdeq	r0, [r0], -r4
    3bdc:	000c4e0c 	andeq	r4, ip, ip, lsl #28
    3be0:	25a50300 	strcs	r0, [r5, #768]!	; 0x300
    3be4:	00000000 	andeq	r0, r0, r0
    3be8:	000c560c 	andeq	r5, ip, ip, lsl #12
    3bec:	9daa0300 	stcls	3, cr0, [sl]
    3bf0:	04000000 	streq	r0, [r0], #-0
    3bf4:	0be10500 	bleq	ff844ffc <__bss_end__+0xff83afd4>
    3bf8:	ab030000 	blge	c3c00 <__bss_end__+0xb9bd8>
    3bfc:	000000d3 	ldrdeq	r0, [r0], -r3
    3c00:	000a8d05 	andeq	r8, sl, r5, lsl #26
    3c04:	70af0300 	adcvc	r0, pc, r0, lsl #6
    3c08:	0d000000 	stceq	0, cr0, [r0, #-0]
    3c0c:	12040e04 	andne	r0, r4, #4, 28	; 0x40
    3c10:	03000001 	movweq	r0, #1
    3c14:	00ec0801 	rsceq	r0, ip, r1, lsl #16
    3c18:	12040000 	andne	r0, r4, #0
    3c1c:	05000001 	streq	r0, [r0, #-1]
    3c20:	00000d0b 	andeq	r0, r0, fp, lsl #26
    3c24:	00621605 	rsbeq	r1, r2, r5, lsl #12
    3c28:	9e0f0000 	cdpls	0, 0, cr0, cr15, cr0, {0}
    3c2c:	1800000a 	stmdane	r0, {r1, r3}
    3c30:	017c2d05 	cmneq	ip, r5, lsl #26
    3c34:	020c0000 	andeq	r0, ip, #0
    3c38:	0500000c 	streq	r0, [r0, #-12]
    3c3c:	00017c2f 	andeq	r7, r1, pc, lsr #24
    3c40:	5f100000 	svcpl	0x00100000
    3c44:	3005006b 	andcc	r0, r5, fp, rrx
    3c48:	00000025 	andeq	r0, r0, r5, lsr #32
    3c4c:	0c390c04 	ldceq	12, cr0, [r9], #-16
    3c50:	30050000 	andcc	r0, r5, r0
    3c54:	00000025 	andeq	r0, r0, r5, lsr #32
    3c58:	0a790c08 	beq	1e46c80 <__bss_end__+0x1e3cc58>
    3c5c:	30050000 	andcc	r0, r5, r0
    3c60:	00000025 	andeq	r0, r0, r5, lsr #32
    3c64:	0d520c0c 	ldcleq	12, cr0, [r2, #-48]	; 0xffffffd0
    3c68:	30050000 	andcc	r0, r5, r0
    3c6c:	00000025 	andeq	r0, r0, r5, lsr #32
    3c70:	785f1010 	ldmdavc	pc, {r4, ip}^	; <UNPREDICTABLE>
    3c74:	82310500 	eorshi	r0, r1, #0, 10
    3c78:	14000001 	strne	r0, [r0], #-1
    3c7c:	29040e00 	stmdbcs	r4, {r9, sl, fp}
    3c80:	09000001 	stmdbeq	r0, {r0}
    3c84:	0000011e 	andeq	r0, r0, lr, lsl r1
    3c88:	00000192 	muleq	r0, r2, r1
    3c8c:	0000cc0a 	andeq	ip, r0, sl, lsl #24
    3c90:	0f000000 	svceq	0x00000000
    3c94:	00000abf 			; <UNDEFINED> instruction: 0x00000abf
    3c98:	0b350524 	bleq	d45130 <__bss_end__+0xd3b108>
    3c9c:	0c000002 	stceq	0, cr0, [r0], {2}
    3ca0:	00000977 	andeq	r0, r0, r7, ror r9
    3ca4:	00253705 	eoreq	r3, r5, r5, lsl #14
    3ca8:	0c000000 	stceq	0, cr0, [r0], {-0}
    3cac:	00000c71 	andeq	r0, r0, r1, ror ip
    3cb0:	00253805 	eoreq	r3, r5, r5, lsl #16
    3cb4:	0c040000 	stceq	0, cr0, [r4], {-0}
    3cb8:	000009a5 	andeq	r0, r0, r5, lsr #19
    3cbc:	00253905 	eoreq	r3, r5, r5, lsl #18
    3cc0:	0c080000 	stceq	0, cr0, [r8], {-0}
    3cc4:	00000e42 	andeq	r0, r0, r2, asr #28
    3cc8:	00253a05 	eoreq	r3, r5, r5, lsl #20
    3ccc:	0c0c0000 	stceq	0, cr0, [ip], {-0}
    3cd0:	00000b71 	andeq	r0, r0, r1, ror fp
    3cd4:	00253b05 	eoreq	r3, r5, r5, lsl #22
    3cd8:	0c100000 	ldceq	0, cr0, [r0], {-0}
    3cdc:	00000b46 	andeq	r0, r0, r6, asr #22
    3ce0:	00253c05 	eoreq	r3, r5, r5, lsl #24
    3ce4:	0c140000 	ldceq	0, cr0, [r4], {-0}
    3ce8:	00000d57 	andeq	r0, r0, r7, asr sp
    3cec:	00253d05 	eoreq	r3, r5, r5, lsl #26
    3cf0:	0c180000 	ldceq	0, cr0, [r8], {-0}
    3cf4:	00000bc3 	andeq	r0, r0, r3, asr #23
    3cf8:	00253e05 	eoreq	r3, r5, r5, lsl #28
    3cfc:	0c1c0000 	ldceq	0, cr0, [ip], {-0}
    3d00:	00000e09 	andeq	r0, r0, r9, lsl #28
    3d04:	00253f05 	eoreq	r3, r5, r5, lsl #30
    3d08:	00200000 	eoreq	r0, r0, r0
    3d0c:	0009b411 	andeq	fp, r9, r1, lsl r4
    3d10:	05010800 	streq	r0, [r1, #-2048]	; 0x800
    3d14:	00024b48 	andeq	r4, r2, r8, asr #22
    3d18:	0a600c00 	beq	1806d20 <__bss_end__+0x17fccf8>
    3d1c:	49050000 	stmdbmi	r5, {}	; <UNPREDICTABLE>
    3d20:	0000024b 	andeq	r0, r0, fp, asr #4
    3d24:	08f20c00 	ldmeq	r2!, {sl, fp}^
    3d28:	4a050000 	bmi	143d30 <__bss_end__+0x139d08>
    3d2c:	0000024b 	andeq	r0, r0, fp, asr #4
    3d30:	0cfd1280 	lfmeq	f1, 2, [sp], #512	; 0x200
    3d34:	4c050000 	stcmi	0, cr0, [r5], {-0}
    3d38:	0000011e 	andeq	r0, r0, lr, lsl r1
    3d3c:	d9120100 	ldmdble	r2, {r8}
    3d40:	05000009 	streq	r0, [r0, #-9]
    3d44:	00011e4f 	andeq	r1, r1, pc, asr #28
    3d48:	00010400 	andeq	r0, r1, r0, lsl #8
    3d4c:	00010a09 	andeq	r0, r1, r9, lsl #20
    3d50:	00025b00 	andeq	r5, r2, r0, lsl #22
    3d54:	00cc0a00 	sbceq	r0, ip, r0, lsl #20
    3d58:	001f0000 	andseq	r0, pc, r0
    3d5c:	000b7a11 	andeq	r7, fp, r1, lsl sl
    3d60:	05019000 	streq	r9, [r1, #-0]
    3d64:	0002995b 	andeq	r9, r2, fp, asr r9
    3d68:	0c020c00 	stceq	12, cr0, [r2], {-0}
    3d6c:	5c050000 	stcpl	0, cr0, [r5], {-0}
    3d70:	00000299 	muleq	r0, r9, r2
    3d74:	0c1a0c00 	ldceq	12, cr0, [sl], {-0}
    3d78:	5d050000 	stcpl	0, cr0, [r5, #-0]
    3d7c:	00000025 	andeq	r0, r0, r5, lsr #32
    3d80:	0a740c04 	beq	1d06d98 <__bss_end__+0x1cfcd70>
    3d84:	5f050000 	svcpl	0x00050000
    3d88:	0000029f 	muleq	r0, pc, r2	; <UNPREDICTABLE>
    3d8c:	09b40c08 	ldmibeq	r4!, {r3, sl, fp}
    3d90:	60050000 	andvs	r0, r5, r0
    3d94:	0000020b 	andeq	r0, r0, fp, lsl #4
    3d98:	040e0088 	streq	r0, [lr], #-136	; 0x88
    3d9c:	0000025b 	andeq	r0, r0, fp, asr r2
    3da0:	0002af09 	andeq	sl, r2, r9, lsl #30
    3da4:	0002af00 	andeq	sl, r2, r0, lsl #30
    3da8:	00cc0a00 	sbceq	r0, ip, r0, lsl #20
    3dac:	001f0000 	andseq	r0, pc, r0
    3db0:	02b5040e 	adcseq	r0, r5, #234881024	; 0xe000000
    3db4:	0f130000 	svceq	0x00130000
    3db8:	00000bcd 	andeq	r0, r0, sp, asr #23
    3dbc:	db730508 	blle	1cc51e4 <__bss_end__+0x1cbb1bc>
    3dc0:	0c000002 	stceq	0, cr0, [r0], {2}
    3dc4:	0000099a 	muleq	r0, sl, r9
    3dc8:	02db7405 	sbcseq	r7, fp, #83886080	; 0x5000000
    3dcc:	0c000000 	stceq	0, cr0, [r0], {-0}
    3dd0:	000008fe 	strdeq	r0, [r0], -lr
    3dd4:	00257505 	eoreq	r7, r5, r5, lsl #10
    3dd8:	00040000 	andeq	r0, r4, r0
    3ddc:	0054040e 	subseq	r0, r4, lr, lsl #8
    3de0:	ec0f0000 	stc	0, cr0, [pc], {-0}
    3de4:	6800000b 	stmdavs	r0, {r0, r1, r3}
    3de8:	040bb305 	streq	fp, [fp], #-773	; 0x305
    3dec:	5f100000 	svcpl	0x00100000
    3df0:	b4050070 	strlt	r0, [r5], #-112	; 0x70
    3df4:	000002db 	ldrdeq	r0, [r0], -fp
    3df8:	725f1000 	subsvc	r1, pc, #0
    3dfc:	25b50500 	ldrcs	r0, [r5, #1280]!	; 0x500
    3e00:	04000000 	streq	r0, [r0], #-0
    3e04:	00775f10 	rsbseq	r5, r7, r0, lsl pc
    3e08:	0025b605 	eoreq	fp, r5, r5, lsl #12
    3e0c:	0c080000 	stceq	0, cr0, [r8], {-0}
    3e10:	000009d2 	ldrdeq	r0, [r0], -r2
    3e14:	003fb705 	eorseq	fp, pc, r5, lsl #14
    3e18:	0c0c0000 	stceq	0, cr0, [ip], {-0}
    3e1c:	00000ae5 	andeq	r0, r0, r5, ror #21
    3e20:	003fb805 	eorseq	fp, pc, r5, lsl #16
    3e24:	100e0000 	andne	r0, lr, r0
    3e28:	0066625f 	rsbeq	r6, r6, pc, asr r2
    3e2c:	02b6b905 	adcseq	fp, r6, #81920	; 0x14000
    3e30:	0c100000 	ldceq	0, cr0, [r0], {-0}
    3e34:	00000941 	andeq	r0, r0, r1, asr #18
    3e38:	0025ba05 	eoreq	fp, r5, r5, lsl #20
    3e3c:	0c180000 	ldceq	0, cr0, [r8], {-0}
    3e40:	000009c2 	andeq	r0, r0, r2, asr #19
    3e44:	010ac105 	tsteq	sl, r5, lsl #2
    3e48:	0c1c0000 	ldceq	0, cr0, [ip], {-0}
    3e4c:	00000e69 	andeq	r0, r0, r9, ror #28
    3e50:	0566c305 	strbeq	ip, [r6, #-773]!	; 0x305
    3e54:	0c200000 	stceq	0, cr0, [r0], #-0
    3e58:	00000e83 	andeq	r0, r0, r3, lsl #29
    3e5c:	0590c505 	ldreq	ip, [r0, #1285]	; 0x505
    3e60:	0c240000 	stceq	0, cr0, [r4], #-0
    3e64:	00000c5e 	andeq	r0, r0, lr, asr ip
    3e68:	05b4c805 	ldreq	ip, [r4, #2053]!	; 0x805
    3e6c:	0c280000 	stceq	0, cr0, [r8], #-0
    3e70:	00000e23 	andeq	r0, r0, r3, lsr #28
    3e74:	05cec905 	strbeq	ip, [lr, #2309]	; 0x905
    3e78:	102c0000 	eorne	r0, ip, r0
    3e7c:	0062755f 	rsbeq	r7, r2, pc, asr r5
    3e80:	02b6cc05 	adcseq	ip, r6, #1280	; 0x500
    3e84:	10300000 	eorsne	r0, r0, r0
    3e88:	0070755f 	rsbseq	r7, r0, pc, asr r5
    3e8c:	02dbcd05 	sbcseq	ip, fp, #320	; 0x140
    3e90:	10380000 	eorsne	r0, r8, r0
    3e94:	0072755f 	rsbseq	r7, r2, pc, asr r5
    3e98:	0025ce05 	eoreq	ip, r5, r5, lsl #28
    3e9c:	0c3c0000 	ldceq	0, cr0, [ip], #-0
    3ea0:	00000985 	andeq	r0, r0, r5, lsl #19
    3ea4:	05d4d105 	ldrbeq	sp, [r4, #261]	; 0x105
    3ea8:	0c400000 	mareq	acc0, r0, r0
    3eac:	00000dce 	andeq	r0, r0, lr, asr #27
    3eb0:	05e4d205 	strbeq	sp, [r4, #517]!	; 0x205
    3eb4:	10430000 	subne	r0, r3, r0
    3eb8:	00626c5f 	rsbeq	r6, r2, pc, asr ip
    3ebc:	02b6d505 	adcseq	sp, r6, #20971520	; 0x1400000
    3ec0:	0c440000 	mareq	acc0, r0, r4
    3ec4:	000009e8 	andeq	r0, r0, r8, ror #19
    3ec8:	0025d805 	eoreq	sp, r5, r5, lsl #16
    3ecc:	0c4c0000 	mareq	acc0, r0, ip
    3ed0:	00000b50 	andeq	r0, r0, r0, asr fp
    3ed4:	007bd905 	rsbseq	sp, fp, r5, lsl #18
    3ed8:	0c500000 	mraeq	r0, r0, acc0
    3edc:	00000db9 			; <UNDEFINED> instruction: 0x00000db9
    3ee0:	0429dc05 	strteq	sp, [r9], #-3077	; 0xc05
    3ee4:	0c540000 	mraeq	r0, r4, acc0
    3ee8:	00000b38 	andeq	r0, r0, r8, lsr fp
    3eec:	00ffe005 	rscseq	lr, pc, r5
    3ef0:	0c580000 	mraeq	r0, r8, acc0
    3ef4:	00000bf4 	strdeq	r0, [r0], -r4
    3ef8:	00f4e205 	rscseq	lr, r4, r5, lsl #4
    3efc:	0c5c0000 	mraeq	r0, ip, acc0
    3f00:	00000b3e 	andeq	r0, r0, lr, lsr fp
    3f04:	0025e305 	eoreq	lr, r5, r5, lsl #6
    3f08:	00640000 	rsbeq	r0, r4, r0
    3f0c:	00002514 	andeq	r2, r0, r4, lsl r5
    3f10:	00042900 	andeq	r2, r4, r0, lsl #18
    3f14:	04291500 	strteq	r1, [r9], #-1280	; 0x500
    3f18:	0a150000 	beq	543f20 <__bss_end__+0x539ef8>
    3f1c:	15000001 	strne	r0, [r0, #-1]
    3f20:	0000010c 	andeq	r0, r0, ip, lsl #2
    3f24:	00002515 	andeq	r2, r0, r5, lsl r5
    3f28:	040e0000 	streq	r0, [lr], #-0
    3f2c:	00000434 	andeq	r0, r0, r4, lsr r4
    3f30:	00042904 	andeq	r2, r4, r4, lsl #18
    3f34:	0c411600 	mcrreq	6, 0, r1, r1, cr0
    3f38:	04280000 	strteq	r0, [r8], #-0
    3f3c:	66023805 	strvs	r3, [r2], -r5, lsl #16
    3f40:	17000005 	strne	r0, [r0, -r5]
    3f44:	00000bbc 			; <UNDEFINED> instruction: 0x00000bbc
    3f48:	25023a05 	strcs	r3, [r2, #-2565]	; 0xa05
    3f4c:	00000000 	andeq	r0, r0, r0
    3f50:	0009e117 	andeq	lr, r9, r7, lsl r1
    3f54:	023f0500 	eorseq	r0, pc, #0, 10
    3f58:	0000063b 	andeq	r0, r0, fp, lsr r6
    3f5c:	0ad51704 	beq	ff549b74 <__bss_end__+0xff53fb4c>
    3f60:	3f050000 	svccc	0x00050000
    3f64:	00063b02 	andeq	r3, r6, r2, lsl #22
    3f68:	96170800 	ldrls	r0, [r7], -r0, lsl #16
    3f6c:	0500000a 	streq	r0, [r0, #-10]
    3f70:	063b023f 			; <UNDEFINED> instruction: 0x063b023f
    3f74:	170c0000 	strne	r0, [ip, -r0]
    3f78:	00000c15 	andeq	r0, r0, r5, lsl ip
    3f7c:	25024105 	strcs	r4, [r2, #-261]	; 0x105
    3f80:	10000000 	andne	r0, r0, r0
    3f84:	00090c17 	andeq	r0, r9, r7, lsl ip
    3f88:	02420500 	subeq	r0, r2, #0, 10
    3f8c:	0000081d 	andeq	r0, r0, sp, lsl r8
    3f90:	0d331714 	ldceq	7, cr1, [r3, #-80]!	; 0xffffffb0
    3f94:	44050000 	strmi	r0, [r5], #-0
    3f98:	00002502 	andeq	r2, r0, r2, lsl #10
    3f9c:	1f173000 	svcne	0x00173000
    3fa0:	0500000c 	streq	r0, [r0, #-12]
    3fa4:	058a0245 	streq	r0, [sl, #581]	; 0x245
    3fa8:	17340000 	ldrne	r0, [r4, -r0]!
    3fac:	00000b82 	andeq	r0, r0, r2, lsl #23
    3fb0:	25024705 	strcs	r4, [r2, #-1797]	; 0x705
    3fb4:	38000000 	stmdacc	r0, {}	; <UNPREDICTABLE>
    3fb8:	000c2f17 	andeq	r2, ip, r7, lsl pc
    3fbc:	02490500 	subeq	r0, r9, #0, 10
    3fc0:	00000838 	andeq	r0, r0, r8, lsr r8
    3fc4:	0b14173c 	bleq	509cbc <__bss_end__+0x4ffc94>
    3fc8:	4c050000 	stcmi	0, cr0, [r5], {-0}
    3fcc:	00017c02 	andeq	r7, r1, r2, lsl #24
    3fd0:	b5174000 	ldrlt	r4, [r7, #-0]
    3fd4:	0500000a 	streq	r0, [r0, #-10]
    3fd8:	0025024d 	eoreq	r0, r5, sp, asr #4
    3fdc:	17440000 	strbne	r0, [r4, -r0]
    3fe0:	00000e3d 	andeq	r0, r0, sp, lsr lr
    3fe4:	7c024e05 	stcvc	14, cr4, [r2], {5}
    3fe8:	48000001 	stmdami	r0, {r0}
    3fec:	000b9917 	andeq	r9, fp, r7, lsl r9
    3ff0:	024f0500 	subeq	r0, pc, #0, 10
    3ff4:	0000083e 	andeq	r0, r0, lr, lsr r8
    3ff8:	0add174c 	beq	ff749d30 <__bss_end__+0xff73fd08>
    3ffc:	52050000 	andpl	r0, r5, #0
    4000:	00002502 	andeq	r2, r0, r2, lsl #10
    4004:	04175000 	ldreq	r5, [r7], #-0
    4008:	0500000a 	streq	r0, [r0, #-10]
    400c:	010c0253 	tsteq	ip, r3, asr r2
    4010:	17540000 	ldrbne	r0, [r4, -r0]
    4014:	00000bb5 			; <UNDEFINED> instruction: 0x00000bb5
    4018:	fb027605 	blx	a1836 <__bss_end__+0x9780e>
    401c:	58000007 	stmdapl	r0, {r0, r1, r2}
    4020:	000b7a18 	andeq	r7, fp, r8, lsl sl
    4024:	027a0500 	rsbseq	r0, sl, #0, 10
    4028:	00000299 	muleq	r0, r9, r2
    402c:	f2180148 	vrhadd.s16	q0, q4, q4
    4030:	0500000a 	streq	r0, [r0, #-10]
    4034:	025b027b 	subseq	r0, fp, #-1342177273	; 0xb0000007
    4038:	014c0000 	mrseq	r0, (UNDEF: 76)
    403c:	000d9f18 	andeq	r9, sp, r8, lsl pc
    4040:	027f0500 	rsbseq	r0, pc, #0, 10
    4044:	0000084f 	andeq	r0, r0, pc, asr #16
    4048:	ca1802dc 	bgt	604bc0 <__bss_end__+0x5fab98>
    404c:	05000009 	streq	r0, [r0, #-9]
    4050:	06000284 	streq	r0, [r0], -r4, lsl #5
    4054:	02e00000 	rsceq	r0, r0, #0
    4058:	0009af18 	andeq	sl, r9, r8, lsl pc
    405c:	02850500 	addeq	r0, r5, #0, 10
    4060:	0000085b 	andeq	r0, r0, fp, asr r8
    4064:	0e0002ec 	cdpeq	2, 0, cr0, cr0, cr12, {7}
    4068:	00040b04 	andeq	r0, r4, r4, lsl #22
    406c:	00251400 	eoreq	r1, r5, r0, lsl #8
    4070:	058a0000 	streq	r0, [sl]
    4074:	29150000 	ldmdbcs	r5, {}	; <UNPREDICTABLE>
    4078:	15000004 	strne	r0, [r0, #-4]
    407c:	0000010a 	andeq	r0, r0, sl, lsl #2
    4080:	00058a15 	andeq	r8, r5, r5, lsl sl
    4084:	00251500 	eoreq	r1, r5, r0, lsl #10
    4088:	0e000000 	cdpeq	0, 0, cr0, cr0, cr0, {0}
    408c:	00011904 	andeq	r1, r1, r4, lsl #18
    4090:	6c040e00 	stcvs	14, cr0, [r4], {-0}
    4094:	14000005 	strne	r0, [r0], #-5
    4098:	00000086 	andeq	r0, r0, r6, lsl #1
    409c:	000005b4 			; <UNDEFINED> instruction: 0x000005b4
    40a0:	00042915 	andeq	r2, r4, r5, lsl r9
    40a4:	010a1500 	tsteq	sl, r0, lsl #10
    40a8:	86150000 	ldrhi	r0, [r5], -r0
    40ac:	15000000 	strne	r0, [r0, #-0]
    40b0:	00000025 	andeq	r0, r0, r5, lsr #32
    40b4:	96040e00 	strls	r0, [r4], -r0, lsl #28
    40b8:	14000005 	strne	r0, [r0], #-5
    40bc:	00000025 	andeq	r0, r0, r5, lsr #32
    40c0:	000005ce 	andeq	r0, r0, lr, asr #11
    40c4:	00042915 	andeq	r2, r4, r5, lsl r9
    40c8:	010a1500 	tsteq	sl, r0, lsl #10
    40cc:	0e000000 	cdpeq	0, 0, cr0, cr0, cr0, {0}
    40d0:	0005ba04 	andeq	fp, r5, r4, lsl #20
    40d4:	00540900 	subseq	r0, r4, r0, lsl #18
    40d8:	05e40000 	strbeq	r0, [r4, #0]!
    40dc:	cc0a0000 	stcgt	0, cr0, [sl], {-0}
    40e0:	02000000 	andeq	r0, r0, #0
    40e4:	00540900 	subseq	r0, r4, r0, lsl #18
    40e8:	05f40000 	ldrbeq	r0, [r4, #0]!
    40ec:	cc0a0000 	stcgt	0, cr0, [sl], {-0}
    40f0:	00000000 	andeq	r0, r0, r0
    40f4:	0bda0600 	bleq	ff6858fc <__bss_end__+0xff67b8d4>
    40f8:	1d050000 	stcne	0, cr0, [r5, #-0]
    40fc:	0002e101 	andeq	lr, r2, r1, lsl #2
    4100:	0d611900 	stcleq	9, cr1, [r1, #-0]
    4104:	050c0000 	streq	r0, [ip, #-0]
    4108:	06350121 	ldrteq	r0, [r5], -r1, lsr #2
    410c:	02170000 	andseq	r0, r7, #0
    4110:	0500000c 	streq	r0, [r0, #-12]
    4114:	06350123 	ldrteq	r0, [r5], -r3, lsr #2
    4118:	17000000 	strne	r0, [r0, -r0]
    411c:	00000aeb 	andeq	r0, r0, fp, ror #21
    4120:	25012405 	strcs	r2, [r1, #-1029]	; 0x405
    4124:	04000000 	streq	r0, [r0], #-0
    4128:	000bd417 	andeq	sp, fp, r7, lsl r4
    412c:	01250500 	teqeq	r5, r0, lsl #10
    4130:	0000063b 	andeq	r0, r0, fp, lsr r6
    4134:	040e0008 	streq	r0, [lr], #-8
    4138:	00000600 	andeq	r0, r0, r0, lsl #12
    413c:	05f4040e 	ldrbeq	r0, [r4, #1038]!	; 0x40e
    4140:	04190000 	ldreq	r0, [r9], #-0
    4144:	0e000009 	cdpeq	0, 0, cr0, cr0, cr9, {0}
    4148:	76013d05 	strvc	r3, [r1], -r5, lsl #26
    414c:	17000006 	strne	r0, [r0, -r6]
    4150:	00000c48 	andeq	r0, r0, r8, asr #24
    4154:	76013e05 	strvc	r3, [r1], -r5, lsl #28
    4158:	00000006 	andeq	r0, r0, r6
    415c:	000c8217 	andeq	r8, ip, r7, lsl r2
    4160:	013f0500 	teqeq	pc, r0, lsl #10
    4164:	00000676 	andeq	r0, r0, r6, ror r6
    4168:	0d061706 	stceq	7, cr1, [r6, #-24]	; 0xffffffe8
    416c:	40050000 	andmi	r0, r5, r0
    4170:	00005b01 	andeq	r5, r0, r1, lsl #22
    4174:	09000c00 	stmdbeq	r0, {sl, fp}
    4178:	0000005b 	andeq	r0, r0, fp, asr r0
    417c:	00000686 	andeq	r0, r0, r6, lsl #13
    4180:	0000cc0a 	andeq	ip, r0, sl, lsl #24
    4184:	1a000200 	bne	498c <__code_start__-0x3674>
    4188:	025705d0 	subseq	r0, r7, #208, 10	; 0x34000000
    418c:	00000787 	andeq	r0, r0, r7, lsl #15
    4190:	000d4517 	andeq	r4, sp, r7, lsl r5
    4194:	02590500 	subseq	r0, r9, #0, 10
    4198:	0000002c 	andeq	r0, r0, ip, lsr #32
    419c:	0cf01700 	ldcleq	7, cr1, [r0]
    41a0:	5a050000 	bpl	1441a8 <__bss_end__+0x13a180>
    41a4:	00010c02 	andeq	r0, r1, r2, lsl #24
    41a8:	07170400 	ldreq	r0, [r7, -r0, lsl #8]
    41ac:	0500000b 	streq	r0, [r0, #-11]
    41b0:	0787025b 			; <UNDEFINED> instruction: 0x0787025b
    41b4:	17080000 	strne	r0, [r8, -r0]
    41b8:	00000e14 	andeq	r0, r0, r4, lsl lr
    41bc:	92025c05 	andls	r5, r2, #1280	; 0x500
    41c0:	24000001 	strcs	r0, [r0], #-1
    41c4:	000aa617 	andeq	sl, sl, r7, lsl r6
    41c8:	025d0500 	subseq	r0, sp, #0, 10
    41cc:	00000025 	andeq	r0, r0, r5, lsr #32
    41d0:	0bfd1748 	bleq	fff49ef8 <__bss_end__+0xfff3fed0>
    41d4:	5e050000 	cdppl	0, 0, cr0, cr5, cr0, {0}
    41d8:	00006902 	andeq	r6, r0, r2, lsl #18
    41dc:	2a175000 	bcs	5d81e4 <__bss_end__+0x5ce1bc>
    41e0:	0500000e 	streq	r0, [r0, #-14]
    41e4:	0641025f 			; <UNDEFINED> instruction: 0x0641025f
    41e8:	17580000 	ldrbne	r0, [r8, -r0]
    41ec:	00000c08 	andeq	r0, r0, r8, lsl #24
    41f0:	f4026005 	vst4.8	{d6-d9}, [r2], r5
    41f4:	68000000 	stmdavs	r0, {}	; <UNPREDICTABLE>
    41f8:	000e2f17 	andeq	r2, lr, r7, lsl pc
    41fc:	02610500 	rsbeq	r0, r1, #0, 10
    4200:	000000f4 	strdeq	r0, [r0], -r4
    4204:	09691770 	stmdbeq	r9!, {r4, r5, r6, r8, r9, sl, ip}^
    4208:	62050000 	andvs	r0, r5, #0
    420c:	0000f402 	andeq	pc, r0, r2, lsl #8
    4210:	81177800 	tsthi	r7, r0, lsl #16
    4214:	0500000d 	streq	r0, [r0, #-13]
    4218:	07970263 	ldreq	r0, [r7, r3, ror #4]
    421c:	17800000 	strne	r0, [r0, r0]
    4220:	00000afb 	strdeq	r0, [r0], -fp
    4224:	a7026405 	strge	r6, [r2, -r5, lsl #8]
    4228:	88000007 	stmdahi	r0, {r0, r1, r2}
    422c:	000d1317 	andeq	r1, sp, r7, lsl r3
    4230:	02650500 	rsbeq	r0, r5, #0, 10
    4234:	00000025 	andeq	r0, r0, r5, lsr #32
    4238:	0a5217a0 	beq	148a0c0 <__bss_end__+0x1480098>
    423c:	66050000 	strvs	r0, [r5], -r0
    4240:	0000f402 	andeq	pc, r0, r2, lsl #8
    4244:	5a17a400 	bpl	5ed24c <__bss_end__+0x5e3224>
    4248:	05000009 	streq	r0, [r0, #-9]
    424c:	00f40267 	rscseq	r0, r4, r7, ror #4
    4250:	17ac0000 	strne	r0, [ip, r0]!
    4254:	00000a41 	andeq	r0, r0, r1, asr #20
    4258:	f4026805 	vst2.8	{d6-d7}, [r2], r5
    425c:	b4000000 	strlt	r0, [r0], #-0
    4260:	00092117 	andeq	r2, r9, r7, lsl r1
    4264:	02690500 	rsbeq	r0, r9, #0, 10
    4268:	000000f4 	strdeq	r0, [r0], -r4
    426c:	093017bc 	ldmdbeq	r0!, {r2, r3, r4, r5, r7, r8, r9, sl, ip}
    4270:	6a050000 	bvs	144278 <__bss_end__+0x13a250>
    4274:	0000f402 	andeq	pc, r0, r2, lsl #8
    4278:	ba17c400 	blt	5f5280 <__bss_end__+0x5eb258>
    427c:	0500000b 	streq	r0, [r0, #-11]
    4280:	0025026b 	eoreq	r0, r5, fp, ror #4
    4284:	00cc0000 	sbceq	r0, ip, r0
    4288:	00011209 	andeq	r1, r1, r9, lsl #4
    428c:	00079700 	andeq	r9, r7, r0, lsl #14
    4290:	00cc0a00 	sbceq	r0, ip, r0, lsl #20
    4294:	00190000 	andseq	r0, r9, r0
    4298:	00011209 	andeq	r1, r1, r9, lsl #4
    429c:	0007a700 	andeq	sl, r7, r0, lsl #14
    42a0:	00cc0a00 	sbceq	r0, ip, r0, lsl #20
    42a4:	00070000 	andeq	r0, r7, r0
    42a8:	00011209 	andeq	r1, r1, r9, lsl #4
    42ac:	0007b700 	andeq	fp, r7, r0, lsl #14
    42b0:	00cc0a00 	sbceq	r0, ip, r0, lsl #20
    42b4:	00170000 	andseq	r0, r7, r0
    42b8:	7005f01a 	andvc	pc, r5, sl, lsl r0	; <UNPREDICTABLE>
    42bc:	0007db02 	andeq	sp, r7, r2, lsl #22
    42c0:	0b6a1700 	bleq	1a89ec8 <__bss_end__+0x1a7fea0>
    42c4:	73050000 	movwvc	r0, #20480	; 0x5000
    42c8:	0007db02 	andeq	sp, r7, r2, lsl #22
    42cc:	78170000 	ldmdavc	r7, {}	; <UNPREDICTABLE>
    42d0:	0500000d 	streq	r0, [r0, #-13]
    42d4:	07eb0274 			; <UNDEFINED> instruction: 0x07eb0274
    42d8:	00780000 	rsbseq	r0, r8, r0
    42dc:	0002db09 	andeq	sp, r2, r9, lsl #22
    42e0:	0007eb00 	andeq	lr, r7, r0, lsl #22
    42e4:	00cc0a00 	sbceq	r0, ip, r0, lsl #20
    42e8:	001d0000 	andseq	r0, sp, r0
    42ec:	00002c09 	andeq	r2, r0, r9, lsl #24
    42f0:	0007fb00 	andeq	pc, r7, r0, lsl #22
    42f4:	00cc0a00 	sbceq	r0, ip, r0, lsl #20
    42f8:	001d0000 	andseq	r0, sp, r0
    42fc:	5505f01b 	strpl	pc, [r5, #-27]
    4300:	00081d02 	andeq	r1, r8, r2, lsl #26
    4304:	0c411c00 	mcrreq	12, 0, r1, r1, cr0
    4308:	6c050000 	stcvs	0, cr0, [r5], {-0}
    430c:	00068602 	andeq	r8, r6, r2, lsl #12
    4310:	0dd41c00 	ldcleq	12, cr1, [r4]
    4314:	75050000 	strvc	r0, [r5, #-0]
    4318:	0007b702 	andeq	fp, r7, r2, lsl #14
    431c:	12090000 	andne	r0, r9, #0
    4320:	2d000001 	stccs	0, cr0, [r0, #-4]
    4324:	0a000008 	beq	434c <__code_start__-0x3cb4>
    4328:	000000cc 	andeq	r0, r0, ip, asr #1
    432c:	381d0018 	ldmdacc	sp, {r3, r4}
    4330:	15000008 	strne	r0, [r0, #-8]
    4334:	00000429 	andeq	r0, r0, r9, lsr #8
    4338:	2d040e00 	stccs	14, cr0, [r4, #-0]
    433c:	0e000008 	cdpeq	0, 0, cr0, cr0, cr8, {0}
    4340:	00017c04 	andeq	r7, r1, r4, lsl #24
    4344:	084f1d00 	stmdaeq	pc, {r8, sl, fp, ip}^	; <UNPREDICTABLE>
    4348:	25150000 	ldrcs	r0, [r5, #-0]
    434c:	00000000 	andeq	r0, r0, r0
    4350:	0855040e 	ldmdaeq	r5, {r1, r2, r3, sl}^
    4354:	040e0000 	streq	r0, [lr], #-0
    4358:	00000844 	andeq	r0, r0, r4, asr #16
    435c:	0005f409 	andeq	pc, r5, r9, lsl #8
    4360:	00086b00 	andeq	r6, r8, r0, lsl #22
    4364:	00cc0a00 	sbceq	r0, ip, r0, lsl #20
    4368:	00020000 	andeq	r0, r2, r0
    436c:	000d271e 	andeq	r2, sp, lr, lsl r7
    4370:	02fd0500 	rscseq	r0, sp, #0, 10
    4374:	00000429 	andeq	r0, r0, r9, lsr #8
    4378:	000d201e 	andeq	r2, sp, lr, lsl r0
    437c:	02fe0500 	rscseq	r0, lr, #0, 10
    4380:	0000042f 	andeq	r0, r0, pc, lsr #8
    4384:	00002514 	andeq	r2, r0, r4, lsl r5
    4388:	00089200 	andeq	r9, r8, r0, lsl #4
    438c:	00251500 	eoreq	r1, r5, r0, lsl #10
    4390:	1f000000 	svcne	0x00000000
    4394:	00000521 	andeq	r0, r0, r1, lsr #10
    4398:	089d1d06 	ldmeq	sp, {r1, r2, r8, sl, fp, ip}
    439c:	040e0000 	streq	r0, [lr], #-0
    43a0:	00000883 	andeq	r0, r0, r3, lsl #17
    43a4:	00002514 	andeq	r2, r0, r4, lsl r5
    43a8:	0008b200 	andeq	fp, r8, r0, lsl #4
    43ac:	058a1500 	streq	r1, [sl, #1280]	; 0x500
    43b0:	1f000000 	svcne	0x00000000
    43b4:	0000055e 	andeq	r0, r0, lr, asr r5
    43b8:	08bd2206 	popeq	{r1, r2, r9, sp}
    43bc:	040e0000 	streq	r0, [lr], #-0
    43c0:	000008a3 	andeq	r0, r0, r3, lsr #17
    43c4:	00540120 	subseq	r0, r4, r0, lsr #2
    43c8:	0c070000 	stceq	0, cr0, [r7], {-0}
    43cc:	00000900 	andeq	r0, r0, r0, lsl #18
    43d0:	00094a21 	andeq	r4, r9, r1, lsr #20
    43d4:	67210000 	strvs	r0, [r1, -r0]!
    43d8:	0100000d 	tsteq	r0, sp
    43dc:	000dbf21 	andeq	fp, sp, r1, lsr #30
    43e0:	8b210400 	blhi	8453e8 <__bss_end__+0x83b3c0>
    43e4:	05000009 	streq	r0, [r0, #-9]
    43e8:	000b2221 	andeq	r2, fp, r1, lsr #4
    43ec:	dc210600 	stcle	6, cr0, [r1], #-0
    43f0:	0700000d 	streq	r0, [r0, -sp]
    43f4:	000deb21 	andeq	lr, sp, r1, lsr #22
    43f8:	fa210300 	blx	845000 <__bss_end__+0x83afd8>
    43fc:	0200000d 	andeq	r0, r0, #13
    4400:	0eb90500 	cdpeq	5, 11, cr0, cr9, cr0, {0}
    4404:	15070000 	strne	r0, [r7, #-0]
    4408:	000008c3 	andeq	r0, r0, r3, asr #17
    440c:	000e8a22 	andeq	r8, lr, r2, lsr #20
    4410:	331d0100 	tstcc	sp, #0, 2
    4414:	1c000000 	stcne	0, cr0, [r0], {-0}
    4418:	22202000 	eorcs	r2, r0, #0
    441c:	00000ec5 	andeq	r0, r0, r5, asr #29
    4420:	00331e01 	eorseq	r1, r3, r1, lsl #28
    4424:	00280000 	eoreq	r0, r8, r0
    4428:	94222020 	strtls	r2, [r2], #-32
    442c:	0100000e 	tsteq	r0, lr
    4430:	0000331f 	andeq	r3, r0, pc, lsl r3
    4434:	20003400 	andcs	r3, r0, r0, lsl #8
    4438:	0e652320 	cdpeq	3, 6, cr2, cr5, cr0, {1}
    443c:	56010000 	strpl	r0, [r1], -r0
    4440:	00000025 	andeq	r0, r0, r5, lsr #32
    4444:	00009560 	andeq	r9, r0, r0, ror #10
    4448:	00000034 	andeq	r0, r0, r4, lsr r0
    444c:	09989c01 	ldmibeq	r8, {r0, sl, fp, ip, pc}
    4450:	70240000 	eorvc	r0, r4, r0
    4454:	01006e69 	tsteq	r0, r9, ror #28
    4458:	00002c56 	andeq	r2, r0, r6, asr ip
    445c:	000fee00 	andeq	lr, pc, r0, lsl #28
    4460:	0e592500 	cdpeq	5, 5, cr2, cr9, cr0, {0}
    4464:	59010000 	stmdbpl	r1, {}	; <UNPREDICTABLE>
    4468:	0000002c 	andeq	r0, r0, ip, lsr #32
    446c:	00001028 	andeq	r1, r0, r8, lsr #32
    4470:	66666f26 	strbtvs	r6, [r6], -r6, lsr #30
    4474:	2c5a0100 	ldfcse	f0, [sl], {-0}
    4478:	66000000 	strvs	r0, [r0], -r0
    447c:	27000010 	smladcs	r0, r0, r0, r0
    4480:	0000957c 	andeq	r9, r0, ip, ror r5
    4484:	00000b5d 	andeq	r0, r0, sp, asr fp
    4488:	0b500128 	bleq	1404930 <__bss_end__+0x13fa908>
    448c:	355001f3 	ldrbcc	r0, [r0, #-499]	; 0x1f3
    4490:	80b42325 	adcshi	r2, r4, r5, lsr #6
    4494:	00028180 	andeq	r8, r2, r0, lsl #3
    4498:	0e7f2900 	cdpeq	9, 7, cr2, cr15, cr0, {0}
    449c:	4f010000 	svcmi	0x00010000
    44a0:	00009544 	andeq	r9, r0, r4, asr #10
    44a4:	0000001c 	andeq	r0, r0, ip, lsl r0
    44a8:	09e89c01 	stmibeq	r8!, {r0, sl, fp, ip, pc}^
    44ac:	70240000 	eorvc	r0, r4, r0
    44b0:	01006e69 	tsteq	r0, r9, ror #28
    44b4:	00002c4f 	andeq	r2, r0, pc, asr #24
    44b8:	00107900 	andseq	r7, r0, r0, lsl #18
    44bc:	00762400 	rsbseq	r2, r6, r0, lsl #8
    44c0:	002c4f01 	eoreq	r4, ip, r1, lsl #30
    44c4:	10b30000 	adcsne	r0, r3, r0
    44c8:	542a0000 	strtpl	r0, [sl], #-0
    44cc:	23000095 	movwcs	r0, #149	; 0x95
    44d0:	de00000a 	cdple	0, 0, cr0, cr0, cr10, {0}
    44d4:	28000009 	stmdacs	r0, {r0, r3}
    44d8:	f3035001 	vhadd.u8	d5, d3, d1
    44dc:	2b005001 	blcs	184e8 <__bss_end__+0xe4c0>
    44e0:	0000955c 	andeq	r9, r0, ip, asr r5
    44e4:	00000a64 	andeq	r0, r0, r4, ror #20
    44e8:	0e9e2900 	cdpeq	9, 9, cr2, cr14, cr0, {0}
    44ec:	4a010000 	bmi	444f4 <__bss_end__+0x3a4cc>
    44f0:	00009534 	andeq	r9, r0, r4, lsr r5
    44f4:	00000010 	andeq	r0, r0, r0, lsl r0
    44f8:	0a239c01 	beq	8eb504 <__bss_end__+0x8e14dc>
    44fc:	70240000 	eorvc	r0, r4, r0
    4500:	01006e69 	tsteq	r0, r9, ror #28
    4504:	00002c4a 	andeq	r2, r0, sl, asr #24
    4508:	0010ed00 	andseq	lr, r0, r0, lsl #26
    450c:	95402700 	strbls	r2, [r0, #-1792]	; 0x700
    4510:	0ae00000 	beq	ff804518 <__bss_end__+0xff7fa4f0>
    4514:	01280000 	teqeq	r8, r0
    4518:	01f30350 	mvnseq	r0, r0, asr r3
    451c:	51012850 	tstpl	r1, r0, asr r8
    4520:	00003001 	andeq	r3, r0, r1
    4524:	000e4c29 	andeq	r4, lr, r9, lsr #24
    4528:	10430100 	subne	r0, r3, r0, lsl #2
    452c:	24000095 	strcs	r0, [r0], #-149	; 0x95
    4530:	01000000 	mrseq	r0, (UNDEF: 0)
    4534:	000a649c 	muleq	sl, ip, r4
    4538:	69702400 	ldmdbvs	r0!, {sl, sp}^
    453c:	4301006e 	movwmi	r0, #4206	; 0x106e
    4540:	0000002c 	andeq	r0, r0, ip, lsr #32
    4544:	0000110e 	andeq	r1, r0, lr, lsl #2
    4548:	00952c27 	addseq	r2, r5, r7, lsr #24
    454c:	000b6800 	andeq	r6, fp, r0, lsl #16
    4550:	50012800 	andpl	r2, r1, r0, lsl #16
    4554:	00280c05 	eoreq	r0, r8, r5, lsl #24
    4558:	01282020 	teqeq	r8, r0, lsr #32
    455c:	f3310551 	vqrshl.u64	q0, <illegal reg q0.5>, <illegal reg q0.5>
    4560:	00245001 	eoreq	r5, r4, r1
    4564:	0ead2900 	cdpeq	9, 10, cr2, cr13, cr0, {0}
    4568:	3c010000 	stccc	0, cr0, [r1], {-0}
    456c:	000094ec 	andeq	r9, r0, ip, ror #9
    4570:	00000024 	andeq	r0, r0, r4, lsr #32
    4574:	0aa59c01 	beq	fe96b580 <__bss_end__+0xfe961558>
    4578:	70240000 	eorvc	r0, r4, r0
    457c:	01006e69 	tsteq	r0, r9, ror #28
    4580:	00002c3c 	andeq	r2, r0, ip, lsr ip
    4584:	00112f00 	andseq	r2, r1, r0, lsl #30
    4588:	95082700 	strls	r2, [r8, #-1792]	; 0x700
    458c:	0b680000 	bleq	1a04594 <__bss_end__+0x19fa56c>
    4590:	01280000 	teqeq	r8, r0
    4594:	1c0c0550 	cfstr32ne	mvfx0, [ip], {80}	; 0x50
    4598:	28202000 	stmdacs	r0!, {sp}
    459c:	31055101 	tstcc	r5, r1, lsl #2
    45a0:	245001f3 	ldrbcs	r0, [r0], #-499	; 0x1f3
    45a4:	6f290000 	svcvs	0x00290000
    45a8:	0100000e 	tsteq	r0, lr
    45ac:	0094dc37 	addseq	sp, r4, r7, lsr ip
    45b0:	00001000 	andeq	r1, r0, r0
    45b4:	e09c0100 	adds	r0, ip, r0, lsl #2
    45b8:	2400000a 	strcs	r0, [r0], #-10
    45bc:	006e6970 	rsbeq	r6, lr, r0, ror r9
    45c0:	002c3701 	eoreq	r3, ip, r1, lsl #14
    45c4:	11500000 	cmpne	r0, r0
    45c8:	e8270000 	stmda	r7!, {}	; <UNPREDICTABLE>
    45cc:	e0000094 	mul	r0, r4, r0
    45d0:	2800000a 	stmdacs	r0, {r1, r3}
    45d4:	f3035001 	vhadd.u8	d5, d3, d1
    45d8:	01285001 	teqeq	r8, r1
    45dc:	00310151 	eorseq	r0, r1, r1, asr r1
    45e0:	0b582900 	bleq	160e9e8 <__bss_end__+0x16049c0>
    45e4:	28010000 	stmdacs	r1, {}	; <UNPREDICTABLE>
    45e8:	00009474 	andeq	r9, r0, r4, ror r4
    45ec:	00000068 	andeq	r0, r0, r8, rrx
    45f0:	0b5d9c01 	bleq	176b5fc <__bss_end__+0x17615d4>
    45f4:	70240000 	eorvc	r0, r4, r0
    45f8:	01006e69 	tsteq	r0, r9, ror #28
    45fc:	00002c28 	andeq	r2, r0, r8, lsr #24
    4600:	00117100 	andseq	r7, r1, r0, lsl #2
    4604:	0da42c00 	stceq	12, cr2, [r4]
    4608:	28010000 	stmdacs	r1, {}	; <UNPREDICTABLE>
    460c:	00000900 	andeq	r0, r0, r0, lsl #18
    4610:	00001192 	muleq	r0, r2, r1
    4614:	66666f2d 	strbtvs	r6, [r6], -sp, lsr #30
    4618:	2c2d0100 	stfcss	f0, [sp], #-0
    461c:	01000000 	mrseq	r0, (UNDEF: 0)
    4620:	00672d54 	rsbeq	r2, r7, r4, asr sp
    4624:	002c2f01 	eoreq	r2, ip, r1, lsl #30
    4628:	56010000 	strpl	r0, [r1], -r0
    462c:	01007626 	tsteq	r0, r6, lsr #12
    4630:	00002c31 	andeq	r2, r0, r1, lsr ip
    4634:	0011b300 	andseq	fp, r1, r0, lsl #6
    4638:	94c02a00 	strbls	r2, [r0], #2560	; 0xa00
    463c:	0b5d0000 	bleq	1744644 <__bss_end__+0x173a61c>
    4640:	0b4c0000 	bleq	1304648 <__bss_end__+0x12fa620>
    4644:	01280000 	teqeq	r8, r0
    4648:	00760250 	rsbseq	r0, r6, r0, asr r2
    464c:	94d42700 	ldrbls	r2, [r4], #1792	; 0x700
    4650:	0b680000 	bleq	1a04658 <__bss_end__+0x19fa630>
    4654:	01280000 	teqeq	r8, r0
    4658:	00760250 	rsbseq	r0, r6, r0, asr r2
    465c:	c12e0000 	teqgt	lr, r0
    4660:	c1000008 	tstgt	r0, r8
    4664:	06000008 	streq	r0, [r0], -r8
    4668:	07fb2ea7 	ldrbeq	r2, [fp, r7, lsr #29]!
    466c:	07fb0000 	ldrbeq	r0, [fp, r0]!
    4670:	9b060000 	blls	184678 <__bss_end__+0x17a650>
	...

Disassembly of section .debug_abbrev:

00000000 <.debug_abbrev>:
       0:	25011101 	strcs	r1, [r1, #-257]	; 0x101
       4:	030b130e 	movweq	r1, #45838	; 0xb30e
       8:	110e1b0e 	tstne	lr, lr, lsl #22
       c:	10061201 	andne	r1, r6, r1, lsl #4
      10:	02000017 	andeq	r0, r0, #23
      14:	0b0b0024 	bleq	2c00ac <__bss_end__+0x2b6084>
      18:	08030b3e 	stmdaeq	r3, {r1, r2, r3, r4, r5, r8, r9, fp}
      1c:	24030000 	strcs	r0, [r3], #-0
      20:	3e0b0b00 	vmlacc.f64	d0, d11, d0
      24:	000e030b 	andeq	r0, lr, fp, lsl #6
      28:	00160400 	andseq	r0, r6, r0, lsl #8
      2c:	0b3a0e03 	bleq	e83840 <__bss_end__+0xe79818>
      30:	13490b3b 	movtne	r0, #39739	; 0x9b3b
      34:	0f050000 	svceq	0x00050000
      38:	000b0b00 	andeq	r0, fp, r0, lsl #22
      3c:	000f0600 	andeq	r0, pc, r0, lsl #12
      40:	13490b0b 	movtne	r0, #39691	; 0x9b0b
      44:	26070000 	strcs	r0, [r7], -r0
      48:	00134900 	andseq	r4, r3, r0, lsl #18
      4c:	01010800 	tsteq	r1, r0, lsl #16
      50:	13011349 	movwne	r1, #4937	; 0x1349
      54:	21090000 	mrscs	r0, (UNDEF: 9)
      58:	2f134900 	svccs	0x00134900
      5c:	0a00000b 	beq	90 <__code_start__-0x7f70>
      60:	19270115 	stmdbne	r7!, {r0, r2, r4, r8}
      64:	00001301 	andeq	r1, r0, r1, lsl #6
      68:	4900050b 	stmdbmi	r0, {r0, r1, r3, r8, sl}
      6c:	0c000013 	stceq	0, cr0, [r0], {19}
      70:	0e03012e 	adfeqsp	f0, f3, #0.5
      74:	0b3b0b3a 	bleq	ec2d64 <__bss_end__+0xeb8d3c>
      78:	13491927 	movtne	r1, #39207	; 0x9927
      7c:	13010b20 	movwne	r0, #6944	; 0x1b20
      80:	340d0000 	strcc	r0, [sp], #-0
      84:	3a080300 	bcc	200c8c <__bss_end__+0x1f6c64>
      88:	490b3b0b 	stmdbmi	fp, {r0, r1, r3, r8, r9, fp, ip, sp}
      8c:	0e000013 	mcreq	0, 0, r0, cr0, cr3, {0}
      90:	0e030005 	cdpeq	0, 0, cr0, cr3, cr5, {0}
      94:	0b3b0b3a 	bleq	ec2d84 <__bss_end__+0xeb8d5c>
      98:	00001349 	andeq	r1, r0, r9, asr #6
      9c:	03012e0f 	movweq	r2, #7695	; 0x1e0f
      a0:	3b0b3a0e 	blcc	2ce8e0 <__bss_end__+0x2c48b8>
      a4:	2019270b 	andscs	r2, r9, fp, lsl #14
      a8:	0013010b 	andseq	r0, r3, fp, lsl #2
      ac:	00341000 	eorseq	r1, r4, r0
      b0:	0b3a0e03 	bleq	e838c4 <__bss_end__+0xe7989c>
      b4:	13490b3b 	movtne	r0, #39739	; 0x9b3b
      b8:	34110000 	ldrcc	r0, [r1], #-0
      bc:	490e0300 	stmdbmi	lr, {r8, r9}
      c0:	1c193413 	cfldrsne	mvf3, [r9], {19}
      c4:	1200000e 	andne	r0, r0, #14
      c8:	08030005 	stmdaeq	r3, {r0, r2}
      cc:	0b3b0b3a 	bleq	ec2dbc <__bss_end__+0xeb8d94>
      d0:	00001349 	andeq	r1, r0, r9, asr #6
      d4:	03012e13 	movweq	r2, #7699	; 0x1e13
      d8:	3b0b3a0e 	blcc	2ce918 <__bss_end__+0x2c48f0>
      dc:	4919270b 	ldmdbmi	r9, {r0, r1, r3, r8, r9, sl, sp}
      e0:	12011113 	andne	r1, r1, #-1073741820	; 0xc0000004
      e4:	97184006 	ldrls	r4, [r8, -r6]
      e8:	13011942 	movwne	r1, #6466	; 0x1942
      ec:	05140000 	ldreq	r0, [r4, #-0]
      f0:	3a0e0300 	bcc	380cf8 <__bss_end__+0x376cd0>
      f4:	490b3b0b 	stmdbmi	fp, {r0, r1, r3, r8, r9, fp, ip, sp}
      f8:	00170213 	andseq	r0, r7, r3, lsl r2
      fc:	00341500 	eorseq	r1, r4, r0, lsl #10
     100:	13490e03 	movtne	r0, #40451	; 0x9e03
     104:	18021934 	stmdane	r2, {r2, r4, r5, r8, fp, ip}
     108:	1d160000 	ldcne	0, cr0, [r6, #-0]
     10c:	11133101 	tstne	r3, r1, lsl #2
     110:	58061201 	stmdapl	r6, {r0, r9, ip}
     114:	010b590b 	tsteq	fp, fp, lsl #18
     118:	17000013 	smladne	r0, r3, r0, r0
     11c:	13310005 	teqne	r1, #5
     120:	00001702 	andeq	r1, r0, r2, lsl #14
     124:	11010b18 	tstne	r1, r8, lsl fp
     128:	00061201 	andeq	r1, r6, r1, lsl #4
     12c:	00341900 	eorseq	r1, r4, r0, lsl #18
     130:	00001331 	andeq	r1, r0, r1, lsr r3
     134:	3100341a 	tstcc	r0, sl, lsl r4
     138:	00180213 	andseq	r0, r8, r3, lsl r2
     13c:	00051b00 	andeq	r1, r5, r0, lsl #22
     140:	0b1c1331 	bleq	704e0c <__bss_end__+0x6fade4>
     144:	341c0000 	ldrcc	r0, [ip], #-0
     148:	1c133100 	ldfnes	f3, [r3], {-0}
     14c:	1d00000b 	stcne	0, cr0, [r0, #-44]	; 0xffffffd4
     150:	13310005 	teqne	r1, #5
     154:	891e0000 	ldmdbhi	lr, {}	; <UNPREDICTABLE>
     158:	11000182 	smlabbne	r0, r2, r1, r0
     15c:	00133101 	andseq	r3, r3, r1, lsl #2
     160:	82891f00 	addhi	r1, r9, #0, 30
     164:	01110101 	tsteq	r1, r1, lsl #2
     168:	13011331 	movwne	r1, #4913	; 0x1331
     16c:	8a200000 	bhi	800174 <__bss_end__+0x7f614c>
     170:	02000182 	andeq	r0, r0, #-2147483616	; 0x80000020
     174:	18429118 	stmdane	r2, {r3, r4, r8, ip, pc}^
     178:	2e210000 	cdpcs	0, 2, cr0, cr1, cr0, {0}
     17c:	03193f01 	tsteq	r9, #1, 30
     180:	3b0b3a0e 	blcc	2ce9c0 <__bss_end__+0x2c4998>
     184:	1119270b 	tstne	r9, fp, lsl #14
     188:	40061201 	andmi	r1, r6, r1, lsl #4
     18c:	19429718 	stmdbne	r2, {r3, r4, r8, r9, sl, ip, pc}^
     190:	00001301 	andeq	r1, r0, r1, lsl #6
     194:	55010b22 	strpl	r0, [r1, #-2850]	; 0xb22
     198:	00130117 	andseq	r0, r3, r7, lsl r1
     19c:	00342300 	eorseq	r2, r4, r0, lsl #6
     1a0:	0b3a0803 	bleq	e821b4 <__bss_end__+0xe7818c>
     1a4:	13490b3b 	movtne	r0, #39739	; 0x9b3b
     1a8:	00001702 	andeq	r1, r0, r2, lsl #14
     1ac:	03012e24 	movweq	r2, #7716	; 0x1e24
     1b0:	3b0b3a0e 	blcc	2ce9f0 <__bss_end__+0x2c49c8>
     1b4:	1119270b 	tstne	r9, fp, lsl #14
     1b8:	40061201 	andmi	r1, r6, r1, lsl #4
     1bc:	19429718 	stmdbne	r2, {r3, r4, r8, r9, sl, ip, pc}^
     1c0:	00001301 	andeq	r1, r0, r1, lsl #6
     1c4:	03000525 	movweq	r0, #1317	; 0x525
     1c8:	3b0b3a08 	blcc	2ce9f0 <__bss_end__+0x2c49c8>
     1cc:	0213490b 	andseq	r4, r3, #180224	; 0x2c000
     1d0:	26000017 			; <UNDEFINED> instruction: 0x26000017
     1d4:	1331011d 	teqne	r1, #1073741831	; 0x40000007
     1d8:	06120111 			; <UNDEFINED> instruction: 0x06120111
     1dc:	0b590b58 	bleq	1642f44 <__bss_end__+0x1638f1c>
     1e0:	34270000 	strtcc	r0, [r7], #-0
     1e4:	02133100 	andseq	r3, r3, #0, 2
     1e8:	28000017 	stmdacs	r0, {r0, r1, r2, r4}
     1ec:	01018289 	smlabbeq	r1, r9, r2, r8
     1f0:	13310111 	teqne	r1, #1073741828	; 0x40000004
     1f4:	34290000 	strtcc	r0, [r9], #-0
     1f8:	3a0e0300 	bcc	380e00 <__bss_end__+0x376dd8>
     1fc:	490b3b0b 	stmdbmi	fp, {r0, r1, r3, r8, r9, fp, ip, sp}
     200:	00180213 	andseq	r0, r8, r3, lsl r2
     204:	00352a00 	eorseq	r2, r5, r0, lsl #20
     208:	00001349 	andeq	r1, r0, r9, asr #6
     20c:	0300342b 	movweq	r3, #1067	; 0x42b
     210:	3b0b3a08 	blcc	2cea38 <__bss_end__+0x2c4a10>
     214:	0213490b 	andseq	r4, r3, #180224	; 0x2c000
     218:	2c000018 	stccs	0, cr0, [r0], {24}
     21c:	0e030034 	mcreq	0, 0, r0, cr3, cr4, {1}
     220:	0b3b0b3a 	bleq	ec2f10 <__bss_end__+0xeb8ee8>
     224:	193f1349 	ldmdbne	pc!, {r0, r3, r6, r8, r9, ip}	; <UNPREDICTABLE>
     228:	0000193c 	andeq	r1, r0, ip, lsr r9
     22c:	3f002e2d 	svccc	0x00002e2d
     230:	3a0e0319 	bcc	380e9c <__bss_end__+0x376e74>
     234:	270b3b0b 	strcs	r3, [fp, -fp, lsl #22]
     238:	00193c19 	andseq	r3, r9, r9, lsl ip
     23c:	012e2e00 	teqeq	lr, r0, lsl #28
     240:	0e03193f 	mcreq	9, 0, r1, cr3, cr15, {1}
     244:	0b3b0b3a 	bleq	ec2f34 <__bss_end__+0xeb8f0c>
     248:	13491927 	movtne	r1, #39207	; 0x9927
     24c:	1301193c 	movwne	r1, #6460	; 0x193c
     250:	182f0000 	stmdane	pc!, {}	; <UNPREDICTABLE>
     254:	30000000 	andcc	r0, r0, r0
     258:	193f012e 	ldmdbne	pc!, {r1, r2, r3, r5, r8}	; <UNPREDICTABLE>
     25c:	0b3a0e03 	bleq	e83a70 <__bss_end__+0xe79a48>
     260:	19270b3b 	stmdbne	r7!, {r0, r1, r3, r4, r5, r8, r9, fp}
     264:	1301193c 	movwne	r1, #6460	; 0x193c
     268:	15310000 	ldrne	r0, [r1, #-0]!
     26c:	00192701 	andseq	r2, r9, r1, lsl #14
     270:	11010000 	mrsne	r0, (UNDEF: 1)
     274:	130e2501 	movwne	r2, #58625	; 0xe501
     278:	1b0e030b 	blne	380eac <__bss_end__+0x376e84>
     27c:	1201110e 	andne	r1, r1, #-2147483645	; 0x80000003
     280:	00171006 	andseq	r1, r7, r6
     284:	00240200 	eoreq	r0, r4, r0, lsl #4
     288:	0b3e0b0b 	bleq	f82ebc <__bss_end__+0xf78e94>
     28c:	00000803 	andeq	r0, r0, r3, lsl #16
     290:	0b002403 	bleq	92a4 <dmb+0x8>
     294:	030b3e0b 	movweq	r3, #48651	; 0xbe0b
     298:	0400000e 	streq	r0, [r0], #-14
     29c:	0e030016 	mcreq	0, 0, r0, cr3, cr6, {0}
     2a0:	0b3b0b3a 	bleq	ec2f90 <__bss_end__+0xeb8f68>
     2a4:	00001349 	andeq	r1, r0, r9, asr #6
     2a8:	0b000f05 	bleq	3ec4 <__code_start__-0x413c>
     2ac:	0600000b 	streq	r0, [r0], -fp
     2b0:	0b0b000f 	bleq	2c02f4 <__bss_end__+0x2b62cc>
     2b4:	00001349 	andeq	r1, r0, r9, asr #6
     2b8:	49002607 	stmdbmi	r0, {r0, r1, r2, r9, sl, sp}
     2bc:	08000013 	stmdaeq	r0, {r0, r1, r4}
     2c0:	19270115 	stmdbne	r7!, {r0, r2, r4, r8}
     2c4:	00001301 	andeq	r1, r0, r1, lsl #6
     2c8:	49000509 	stmdbmi	r0, {r0, r3, r8, sl}
     2cc:	0a000013 	beq	320 <__code_start__-0x7ce0>
     2d0:	0e03012e 	adfeqsp	f0, f3, #0.5
     2d4:	0b3b0b3a 	bleq	ec2fc4 <__bss_end__+0xeb8f9c>
     2d8:	13491927 	movtne	r1, #39207	; 0x9927
     2dc:	13010b20 	movwne	r0, #6944	; 0x1b20
     2e0:	340b0000 	strcc	r0, [fp], #-0
     2e4:	3a080300 	bcc	200eec <__bss_end__+0x1f6ec4>
     2e8:	490b3b0b 	stmdbmi	fp, {r0, r1, r3, r8, r9, fp, ip, sp}
     2ec:	0c000013 	stceq	0, cr0, [r0], {19}
     2f0:	08030005 	stmdaeq	r3, {r0, r2}
     2f4:	0b3b0b3a 	bleq	ec2fe4 <__bss_end__+0xeb8fbc>
     2f8:	00001349 	andeq	r1, r0, r9, asr #6
     2fc:	03012e0d 	movweq	r2, #7693	; 0x1e0d
     300:	3b0b3a0e 	blcc	2ceb40 <__bss_end__+0x2c4b18>
     304:	2019270b 	andscs	r2, r9, fp, lsl #14
     308:	0013010b 	andseq	r0, r3, fp, lsl #2
     30c:	00340e00 	eorseq	r0, r4, r0, lsl #28
     310:	0b3a0e03 	bleq	e83b24 <__bss_end__+0xe79afc>
     314:	13490b3b 	movtne	r0, #39739	; 0x9b3b
     318:	2e0f0000 	cdpcs	0, 0, cr0, cr15, cr0, {0}
     31c:	03193f01 	tsteq	r9, #1, 30
     320:	3b0b3a0e 	blcc	2ceb60 <__bss_end__+0x2c4b38>
     324:	1119270b 	tstne	r9, fp, lsl #14
     328:	40061201 	andmi	r1, r6, r1, lsl #4
     32c:	19429718 	stmdbne	r2, {r3, r4, r8, r9, sl, ip, pc}^
     330:	00001301 	andeq	r1, r0, r1, lsl #6
     334:	03000510 	movweq	r0, #1296	; 0x510
     338:	3b0b3a0e 	blcc	2ceb78 <__bss_end__+0x2c4b50>
     33c:	0213490b 	andseq	r4, r3, #180224	; 0x2c000
     340:	11000017 	tstne	r0, r7, lsl r0
     344:	0e030034 	mcreq	0, 0, r0, cr3, cr4, {1}
     348:	0b3b0b3a 	bleq	ec3038 <__bss_end__+0xeb9010>
     34c:	17021349 	strne	r1, [r2, -r9, asr #6]
     350:	34120000 	ldrcc	r0, [r2], #-0
     354:	490e0300 	stmdbmi	lr, {r8, r9}
     358:	02193413 	andseq	r3, r9, #318767104	; 0x13000000
     35c:	13000018 	movwne	r0, #24
     360:	1331011d 	teqne	r1, #1073741831	; 0x40000007
     364:	06120111 			; <UNDEFINED> instruction: 0x06120111
     368:	0b590b58 	bleq	16430d0 <__bss_end__+0x16390a8>
     36c:	00001301 	andeq	r1, r0, r1, lsl #6
     370:	11010b14 	tstne	r1, r4, lsl fp
     374:	00061201 	andeq	r1, r6, r1, lsl #4
     378:	00341500 	eorseq	r1, r4, r0, lsl #10
     37c:	17021331 	smladxne	r2, r1, r3, r1
     380:	05160000 	ldreq	r0, [r6, #-0]
     384:	02133100 	andseq	r3, r3, #0, 2
     388:	17000017 	smladne	r0, r7, r0, r0
     38c:	13310005 	teqne	r1, #5
     390:	0000051c 	andeq	r0, r0, ip, lsl r5
     394:	31000518 	tstcc	r0, r8, lsl r5
     398:	000b1c13 	andeq	r1, fp, r3, lsl ip
     39c:	82891900 	addhi	r1, r9, #0, 18
     3a0:	01110001 	tsteq	r1, r1
     3a4:	00001331 	andeq	r1, r0, r1, lsr r3
     3a8:	0182891a 	orreq	r8, r2, sl, lsl r9
     3ac:	31011101 	tstcc	r1, r1, lsl #2
     3b0:	00130113 	andseq	r0, r3, r3, lsl r1
     3b4:	828a1b00 	addhi	r1, sl, #0, 22
     3b8:	18020001 	stmdane	r2, {r0}
     3bc:	00184291 	mulseq	r8, r1, r2
     3c0:	01011c00 	tsteq	r1, r0, lsl #24
     3c4:	13011349 	movwne	r1, #4937	; 0x1349
     3c8:	211d0000 	tstcs	sp, r0
     3cc:	2f134900 	svccs	0x00134900
     3d0:	1e00000b 	cdpne	0, 0, cr0, cr0, cr11, {0}
     3d4:	0e030034 	mcreq	0, 0, r0, cr3, cr4, {1}
     3d8:	19341349 	ldmdbne	r4!, {r0, r3, r6, r8, r9, ip}
     3dc:	00000e1c 	andeq	r0, r0, ip, lsl lr
     3e0:	0300051f 	movweq	r0, #1311	; 0x51f
     3e4:	3b0b3a08 	blcc	2cec0c <__bss_end__+0x2c4be4>
     3e8:	0213490b 	andseq	r4, r3, #180224	; 0x2c000
     3ec:	20000017 	andcs	r0, r0, r7, lsl r0
     3f0:	0e030034 	mcreq	0, 0, r0, cr3, cr4, {1}
     3f4:	0b3b0b3a 	bleq	ec30e4 <__bss_end__+0xeb90bc>
     3f8:	18021349 	stmdane	r2, {r0, r3, r6, r8, r9, ip}
     3fc:	34210000 	strtcc	r0, [r1], #-0
     400:	00133100 	andseq	r3, r3, r0, lsl #2
     404:	011d2200 	tsteq	sp, r0, lsl #4
     408:	01111331 	tsteq	r1, r1, lsr r3
     40c:	0b580612 	bleq	1601c5c <__bss_end__+0x15f7c34>
     410:	00000b59 	andeq	r0, r0, r9, asr fp
     414:	31003423 	tstcc	r0, r3, lsr #8
     418:	00180213 	andseq	r0, r8, r3, lsl r2
     41c:	82892400 	addhi	r2, r9, #0, 8
     420:	01110101 	tsteq	r1, r1, lsl #2
     424:	34250000 	strtcc	r0, [r5], #-0
     428:	3a080300 	bcc	201030 <__bss_end__+0x1f7008>
     42c:	490b3b0b 	stmdbmi	fp, {r0, r1, r3, r8, r9, fp, ip, sp}
     430:	00051c13 	andeq	r1, r5, r3, lsl ip
     434:	00052600 	andeq	r2, r5, r0, lsl #12
     438:	0b3a0e03 	bleq	e83c4c <__bss_end__+0xe79c24>
     43c:	13490b3b 	movtne	r0, #39739	; 0x9b3b
     440:	00001802 	andeq	r1, r0, r2, lsl #16
     444:	31000527 	tstcc	r0, r7, lsr #10
     448:	00180213 	andseq	r0, r8, r3, lsl r2
     44c:	00052800 	andeq	r2, r5, r0, lsl #16
     450:	0b3a0803 	bleq	e82464 <__bss_end__+0xe7843c>
     454:	13490b3b 	movtne	r0, #39739	; 0x9b3b
     458:	00001802 	andeq	r1, r0, r2, lsl #16
     45c:	31000529 	tstcc	r0, r9, lsr #10
     460:	00061c13 	andeq	r1, r6, r3, lsl ip
     464:	00342a00 	eorseq	r2, r4, r0, lsl #20
     468:	0b3a0e03 	bleq	e83c7c <__bss_end__+0xe79c54>
     46c:	13490b3b 	movtne	r0, #39739	; 0x9b3b
     470:	0000061c 	andeq	r0, r0, ip, lsl r6
     474:	31011d2b 	tstcc	r1, fp, lsr #26
     478:	12011113 	andne	r1, r1, #-1073741820	; 0xc0000004
     47c:	590b5806 	stmdbpl	fp, {r1, r2, fp, ip, lr}
     480:	2c000005 	stccs	0, cr0, [r0], {5}
     484:	193f012e 	ldmdbne	pc!, {r1, r2, r3, r5, r8}	; <UNPREDICTABLE>
     488:	0b3a0e03 	bleq	e83c9c <__bss_end__+0xe79c74>
     48c:	1927053b 	stmdbne	r7!, {r0, r1, r3, r4, r5, r8, sl}
     490:	01111349 	tsteq	r1, r9, asr #6
     494:	18400612 	stmdane	r0, {r1, r4, r9, sl}^
     498:	01194297 			; <UNDEFINED> instruction: 0x01194297
     49c:	2d000013 	stccs	0, cr0, [r0, #-76]	; 0xffffffb4
     4a0:	08030005 	stmdaeq	r3, {r0, r2}
     4a4:	053b0b3a 	ldreq	r0, [fp, #-2874]!	; 0xb3a
     4a8:	17021349 	strne	r1, [r2, -r9, asr #6]
     4ac:	342e0000 	strtcc	r0, [lr], #-0
     4b0:	3a0e0300 	bcc	3810b8 <__bss_end__+0x377090>
     4b4:	49053b0b 	stmdbmi	r5, {r0, r1, r3, r8, r9, fp, ip, sp}
     4b8:	00170213 	andseq	r0, r7, r3, lsl r2
     4bc:	82892f00 	addhi	r2, r9, #0, 30
     4c0:	01110101 	tsteq	r1, r1, lsl #2
     4c4:	00001331 	andeq	r1, r0, r1, lsr r3
     4c8:	03003430 	movweq	r3, #1072	; 0x430
     4cc:	3b0b3a0e 	blcc	2ced0c <__bss_end__+0x2c4ce4>
     4d0:	3f13490b 	svccc	0x0013490b
     4d4:	00180219 	andseq	r0, r8, r9, lsl r2
     4d8:	002e3100 	eoreq	r3, lr, r0, lsl #2
     4dc:	0e03193f 	mcreq	9, 0, r1, cr3, cr15, {1}
     4e0:	0b3b0b3a 	bleq	ec31d0 <__bss_end__+0xeb91a8>
     4e4:	193c1927 	ldmdbne	ip!, {r0, r1, r2, r5, r8, fp, ip}
     4e8:	2e320000 	cdpcs	0, 3, cr0, cr2, cr0, {0}
     4ec:	03193f01 	tsteq	r9, #1, 30
     4f0:	3b0b3a0e 	blcc	2ced30 <__bss_end__+0x2c4d08>
     4f4:	4919270b 	ldmdbmi	r9, {r0, r1, r3, r8, r9, sl, sp}
     4f8:	01193c13 	tsteq	r9, r3, lsl ip
     4fc:	33000013 	movwcc	r0, #19
     500:	00000018 	andeq	r0, r0, r8, lsl r0
     504:	01110100 	tsteq	r1, r0, lsl #2
     508:	0b130e25 	bleq	4c3da4 <__bss_end__+0x4b9d7c>
     50c:	0e1b0e03 	cdpeq	14, 1, cr0, cr11, cr3, {0}
     510:	06120111 			; <UNDEFINED> instruction: 0x06120111
     514:	00001710 	andeq	r1, r0, r0, lsl r7
     518:	03001602 	movweq	r1, #1538	; 0x602
     51c:	3b0b3a0e 	blcc	2ced5c <__bss_end__+0x2c4d34>
     520:	0013490b 	andseq	r4, r3, fp, lsl #18
     524:	01130300 	tsteq	r3, r0, lsl #6
     528:	0b0b0e03 	bleq	2c3d3c <__bss_end__+0x2b9d14>
     52c:	0b3b0b3a 	bleq	ec321c <__bss_end__+0xeb91f4>
     530:	00001301 	andeq	r1, r0, r1, lsl #6
     534:	03000d04 	movweq	r0, #3332	; 0xd04
     538:	3813490e 	ldmdacc	r3, {r1, r2, r3, r8, fp, lr}
     53c:	0019340b 	andseq	r3, r9, fp, lsl #8
     540:	000f0500 	andeq	r0, pc, r0, lsl #10
     544:	00000b0b 	andeq	r0, r0, fp, lsl #22
     548:	0b002406 	bleq	9568 <gpio_read+0x8>
     54c:	030b3e0b 	movweq	r3, #48651	; 0xbe0b
     550:	07000008 	streq	r0, [r0, -r8]
     554:	0b0b0024 	bleq	2c05ec <__bss_end__+0x2b65c4>
     558:	0e030b3e 	vmoveq.16	d3[0], r0
     55c:	0f080000 	svceq	0x00080000
     560:	490b0b00 	stmdbmi	fp, {r8, r9, fp}
     564:	09000013 	stmdbeq	r0, {r0, r1, r4}
     568:	13490026 	movtne	r0, #36902	; 0x9026
     56c:	2e0a0000 	cdpcs	0, 0, cr0, cr10, cr0, {0}
     570:	03193f01 	tsteq	r9, #1, 30
     574:	3b0b3a0e 	blcc	2cedb4 <__bss_end__+0x2c4d8c>
     578:	4919270b 	ldmdbmi	r9, {r0, r1, r3, r8, r9, sl, sp}
     57c:	12011113 	andne	r1, r1, #-1073741820	; 0xc0000004
     580:	97184006 	ldrls	r4, [r8, -r6]
     584:	13011942 	movwne	r1, #6466	; 0x1942
     588:	050b0000 	streq	r0, [fp, #-0]
     58c:	3a080300 	bcc	201194 <__bss_end__+0x1f716c>
     590:	490b3b0b 	stmdbmi	fp, {r0, r1, r3, r8, r9, fp, ip, sp}
     594:	00180213 	andseq	r0, r8, r3, lsl r2
     598:	00180c00 	andseq	r0, r8, r0, lsl #24
     59c:	340d0000 	strcc	r0, [sp], #-0
     5a0:	3a080300 	bcc	2011a8 <__bss_end__+0x1f7180>
     5a4:	490b3b0b 	stmdbmi	fp, {r0, r1, r3, r8, r9, fp, ip, sp}
     5a8:	00180213 	andseq	r0, r8, r3, lsl r2
     5ac:	00340e00 	eorseq	r0, r4, r0, lsl #28
     5b0:	0b3a0e03 	bleq	e83dc4 <__bss_end__+0xe79d9c>
     5b4:	13490b3b 	movtne	r0, #39739	; 0x9b3b
     5b8:	00001802 	andeq	r1, r0, r2, lsl #16
     5bc:	0300340f 	movweq	r3, #1039	; 0x40f
     5c0:	3b0b3a08 	blcc	2cede8 <__bss_end__+0x2c4dc0>
     5c4:	0213490b 	andseq	r4, r3, #180224	; 0x2c000
     5c8:	10000017 	andne	r0, r0, r7, lsl r0
     5cc:	01018289 	smlabbeq	r1, r9, r2, r8
     5d0:	13310111 	teqne	r1, #1073741828	; 0x40000004
     5d4:	00001301 	andeq	r1, r0, r1, lsl #6
     5d8:	01828a11 	orreq	r8, r2, r1, lsl sl
     5dc:	91180200 	tstls	r8, r0, lsl #4
     5e0:	00001842 	andeq	r1, r0, r2, asr #16
     5e4:	01828912 	orreq	r8, r2, r2, lsl r9
     5e8:	00011101 	andeq	r1, r1, r1, lsl #2
     5ec:	01011300 	mrseq	r1, SP_irq
     5f0:	13011349 	movwne	r1, #4937	; 0x1349
     5f4:	21140000 	tstcs	r4, r0
     5f8:	2f134900 	svccs	0x00134900
     5fc:	15000005 	strne	r0, [r0, #-5]
     600:	19270115 	stmdbne	r7!, {r0, r2, r4, r8}
     604:	13011349 	movwne	r1, #4937	; 0x1349
     608:	05160000 	ldreq	r0, [r6, #-0]
     60c:	00134900 	andseq	r4, r3, r0, lsl #18
     610:	00341700 	eorseq	r1, r4, r0, lsl #14
     614:	0b3a0e03 	bleq	e83e28 <__bss_end__+0xe79e00>
     618:	13490b3b 	movtne	r0, #39739	; 0x9b3b
     61c:	193c193f 	ldmdbne	ip!, {r0, r1, r2, r3, r4, r5, r8, fp, ip}
     620:	2e180000 	cdpcs	0, 1, cr0, cr8, cr0, {0}
     624:	03193f01 	tsteq	r9, #1, 30
     628:	3b0b3a0e 	blcc	2cee68 <__bss_end__+0x2c4e40>
     62c:	4919270b 	ldmdbmi	r9, {r0, r1, r3, r8, r9, sl, sp}
     630:	00193c13 	andseq	r3, r9, r3, lsl ip
     634:	11010000 	mrsne	r0, (UNDEF: 1)
     638:	130e2501 	movwne	r2, #58625	; 0xe501
     63c:	1b0e030b 	blne	381270 <__bss_end__+0x377248>
     640:	1201110e 	andne	r1, r1, #-2147483645	; 0x80000003
     644:	00171006 	andseq	r1, r7, r6
     648:	00240200 	eoreq	r0, r4, r0, lsl #4
     64c:	0b3e0b0b 	bleq	f83280 <__bss_end__+0xf79258>
     650:	00000803 	andeq	r0, r0, r3, lsl #16
     654:	0b002403 	bleq	9668 <__data_end__+0xc8>
     658:	030b3e0b 	movweq	r3, #48651	; 0xbe0b
     65c:	0400000e 	streq	r0, [r0], #-14
     660:	0e03012e 	adfeqsp	f0, f3, #0.5
     664:	0b3b0b3a 	bleq	ec3354 <__bss_end__+0xeb932c>
     668:	13491927 	movtne	r1, #39207	; 0x9927
     66c:	06120111 			; <UNDEFINED> instruction: 0x06120111
     670:	42971840 	addsmi	r1, r7, #64, 16	; 0x400000
     674:	00130119 	andseq	r0, r3, r9, lsl r1
     678:	00050500 	andeq	r0, r5, r0, lsl #10
     67c:	0b3a0803 	bleq	e82690 <__bss_end__+0xe78668>
     680:	13490b3b 	movtne	r0, #39739	; 0x9b3b
     684:	00001702 	andeq	r1, r0, r2, lsl #14
     688:	01828906 	orreq	r8, r2, r6, lsl #18
     68c:	31011101 	tstcc	r1, r1, lsl #2
     690:	07000013 	smladeq	r0, r3, r0, r0
     694:	0001828a 	andeq	r8, r1, sl, lsl #5
     698:	42911802 	addsmi	r1, r1, #131072	; 0x20000
     69c:	08000018 	stmdaeq	r0, {r3, r4}
     6a0:	193f002e 	ldmdbne	pc!, {r1, r2, r3, r5}	; <UNPREDICTABLE>
     6a4:	0b3a0e03 	bleq	e83eb8 <__bss_end__+0xe79e90>
     6a8:	19270b3b 	stmdbne	r7!, {r0, r1, r3, r4, r5, r8, r9, fp}
     6ac:	06120111 			; <UNDEFINED> instruction: 0x06120111
     6b0:	42971840 	addsmi	r1, r7, #64, 16	; 0x400000
     6b4:	09000019 	stmdbeq	r0, {r0, r3, r4}
     6b8:	193f012e 	ldmdbne	pc!, {r1, r2, r3, r5, r8}	; <UNPREDICTABLE>
     6bc:	0b3a0e03 	bleq	e83ed0 <__bss_end__+0xe79ea8>
     6c0:	19270b3b 	stmdbne	r7!, {r0, r1, r3, r4, r5, r8, r9, fp}
     6c4:	06120111 			; <UNDEFINED> instruction: 0x06120111
     6c8:	42971840 	addsmi	r1, r7, #64, 16	; 0x400000
     6cc:	00130119 	andseq	r0, r3, r9, lsl r1
     6d0:	00050a00 	andeq	r0, r5, r0, lsl #20
     6d4:	0b3a0803 	bleq	e826e8 <__bss_end__+0xe786c0>
     6d8:	13490b3b 	movtne	r0, #39739	; 0x9b3b
     6dc:	00001802 	andeq	r1, r0, r2, lsl #16
     6e0:	2701150b 	strcs	r1, [r1, -fp, lsl #10]
     6e4:	01134919 	tsteq	r3, r9, lsl r9
     6e8:	0c000013 	stceq	0, cr0, [r0], {19}
     6ec:	13490005 	movtne	r0, #36869	; 0x9005
     6f0:	0f0d0000 	svceq	0x000d0000
     6f4:	490b0b00 	stmdbmi	fp, {r8, r9, fp}
     6f8:	0e000013 	mcreq	0, 0, r0, cr0, cr3, {0}
     6fc:	0e030034 	mcreq	0, 0, r0, cr3, cr4, {1}
     700:	0b3b0b3a 	bleq	ec33f0 <__bss_end__+0xeb93c8>
     704:	193f1349 	ldmdbne	pc!, {r0, r3, r6, r8, r9, ip}	; <UNPREDICTABLE>
     708:	00001802 	andeq	r1, r0, r2, lsl #16
     70c:	3f012e0f 	svccc	0x00012e0f
     710:	3a0e0319 	bcc	38137c <__bss_end__+0x377354>
     714:	270b3b0b 	strcs	r3, [fp, -fp, lsl #22]
     718:	00193c19 	andseq	r3, r9, r9, lsl ip
     71c:	11010000 	mrsne	r0, (UNDEF: 1)
     720:	130e2501 	movwne	r2, #58625	; 0xe501
     724:	1b0e030b 	blne	381358 <__bss_end__+0x377330>
     728:	1201110e 	andne	r1, r1, #-2147483645	; 0x80000003
     72c:	00171006 	andseq	r1, r7, r6
     730:	00240200 	eoreq	r0, r4, r0, lsl #4
     734:	0b3e0b0b 	bleq	f83368 <__bss_end__+0xf79340>
     738:	00000803 	andeq	r0, r0, r3, lsl #16
     73c:	0b002403 	bleq	9750 <__data_end__+0x1b0>
     740:	030b3e0b 	movweq	r3, #48651	; 0xbe0b
     744:	0400000e 	streq	r0, [r0], #-14
     748:	0b0b000f 	bleq	2c078c <__bss_end__+0x2b6764>
     74c:	00001349 	andeq	r1, r0, r9, asr #6
     750:	49002605 	stmdbmi	r0, {r0, r2, r9, sl, sp}
     754:	06000013 			; <UNDEFINED> instruction: 0x06000013
     758:	193f012e 	ldmdbne	pc!, {r1, r2, r3, r5, r8}	; <UNPREDICTABLE>
     75c:	0b3a0e03 	bleq	e83f70 <__bss_end__+0xe79f48>
     760:	19270b3b 	stmdbne	r7!, {r0, r1, r3, r4, r5, r8, r9, fp}
     764:	01111349 	tsteq	r1, r9, asr #6
     768:	18400612 	stmdane	r0, {r1, r4, r9, sl}^
     76c:	01194296 			; <UNDEFINED> instruction: 0x01194296
     770:	07000013 	smladeq	r0, r3, r0, r0
     774:	08030005 	stmdaeq	r3, {r0, r2}
     778:	0b3b0b3a 	bleq	ec3468 <__bss_end__+0xeb9440>
     77c:	17021349 	strne	r1, [r2, -r9, asr #6]
     780:	15080000 	strne	r0, [r8, #-0]
     784:	49192701 	ldmdbmi	r9, {r0, r8, r9, sl, sp}
     788:	00130113 	andseq	r0, r3, r3, lsl r1
     78c:	00050900 	andeq	r0, r5, r0, lsl #18
     790:	00001349 	andeq	r1, r0, r9, asr #6
     794:	0300340a 	movweq	r3, #1034	; 0x40a
     798:	3b0b3a0e 	blcc	2cefd8 <__bss_end__+0x2c4fb0>
     79c:	3f13490b 	svccc	0x0013490b
     7a0:	00193c19 	andseq	r3, r9, r9, lsl ip
     7a4:	00340b00 	eorseq	r0, r4, r0, lsl #22
     7a8:	0b3a0e03 	bleq	e83fbc <__bss_end__+0xe79f94>
     7ac:	13490b3b 	movtne	r0, #39739	; 0x9b3b
     7b0:	1802193f 	stmdane	r2, {r0, r1, r2, r3, r4, r5, r8, fp, ip}
     7b4:	01000000 	mrseq	r0, (UNDEF: 0)
     7b8:	0e250111 	mcreq	1, 1, r0, cr5, cr1, {0}
     7bc:	0e030b13 	vmoveq.32	d3[0], r0
     7c0:	01110e1b 	tsteq	r1, fp, lsl lr
     7c4:	17100612 			; <UNDEFINED> instruction: 0x17100612
     7c8:	24020000 	strcs	r0, [r2], #-0
     7cc:	3e0b0b00 	vmlacc.f64	d0, d11, d0
     7d0:	0008030b 	andeq	r0, r8, fp, lsl #6
     7d4:	00240300 	eoreq	r0, r4, r0, lsl #6
     7d8:	0b3e0b0b 	bleq	f8340c <__bss_end__+0xf793e4>
     7dc:	00000e03 	andeq	r0, r0, r3, lsl #28
     7e0:	0b000f04 	bleq	43f8 <__code_start__-0x3c08>
     7e4:	0500000b 	streq	r0, [r0, #-11]
     7e8:	0b0b000f 	bleq	2c082c <__bss_end__+0x2b6804>
     7ec:	00001349 	andeq	r1, r0, r9, asr #6
     7f0:	49002606 	stmdbmi	r0, {r1, r2, r9, sl, sp}
     7f4:	07000013 	smladeq	r0, r3, r0, r0
     7f8:	0e030016 	mcreq	0, 0, r0, cr3, cr6, {0}
     7fc:	0b3b0b3a 	bleq	ec34ec <__bss_end__+0xeb94c4>
     800:	00001349 	andeq	r1, r0, r9, asr #6
     804:	03011308 	movweq	r1, #4872	; 0x1308
     808:	3a0b0b0e 	bcc	2c3448 <__bss_end__+0x2b9420>
     80c:	010b3b0b 	tsteq	fp, fp, lsl #22
     810:	09000013 	stmdbeq	r0, {r0, r1, r4}
     814:	0e03000d 	cdpeq	0, 0, cr0, cr3, cr13, {0}
     818:	0b381349 	bleq	e05544 <__bss_end__+0xdfb51c>
     81c:	00001934 	andeq	r1, r0, r4, lsr r9
     820:	03012e0a 	movweq	r2, #7690	; 0x1e0a
     824:	3b0b3a0e 	blcc	2cf064 <__bss_end__+0x2c503c>
     828:	4919270b 	ldmdbmi	r9, {r0, r1, r3, r8, r9, sl, sp}
     82c:	12011113 	andne	r1, r1, #-1073741820	; 0xc0000004
     830:	97184006 	ldrls	r4, [r8, -r6]
     834:	13011942 	movwne	r1, #6466	; 0x1942
     838:	050b0000 	streq	r0, [fp, #-0]
     83c:	3a080300 	bcc	201444 <__bss_end__+0x1f741c>
     840:	490b3b0b 	stmdbmi	fp, {r0, r1, r3, r8, r9, fp, ip, sp}
     844:	00170213 	andseq	r0, r7, r3, lsl r2
     848:	012e0c00 	teqeq	lr, r0, lsl #24
     84c:	0b3a0803 	bleq	e82860 <__bss_end__+0xe78838>
     850:	19270b3b 	stmdbne	r7!, {r0, r1, r3, r4, r5, r8, r9, fp}
     854:	01111349 	tsteq	r1, r9, asr #6
     858:	18400612 	stmdane	r0, {r1, r4, r9, sl}^
     85c:	01194297 			; <UNDEFINED> instruction: 0x01194297
     860:	0d000013 	stceq	0, cr0, [r0, #-76]	; 0xffffffb4
     864:	0e030005 	cdpeq	0, 0, cr0, cr3, cr5, {0}
     868:	0b3b0b3a 	bleq	ec3558 <__bss_end__+0xeb9530>
     86c:	17021349 	strne	r1, [r2, -r9, asr #6]
     870:	050e0000 	streq	r0, [lr, #-0]
     874:	3a0e0300 	bcc	38147c <__bss_end__+0x377454>
     878:	490b3b0b 	stmdbmi	fp, {r0, r1, r3, r8, r9, fp, ip, sp}
     87c:	00180213 	andseq	r0, r8, r3, lsl r2
     880:	00340f00 	eorseq	r0, r4, r0, lsl #30
     884:	0b3a0803 	bleq	e82898 <__bss_end__+0xe78870>
     888:	13490b3b 	movtne	r0, #39739	; 0x9b3b
     88c:	00001802 	andeq	r1, r0, r2, lsl #16
     890:	03003410 	movweq	r3, #1040	; 0x410
     894:	3b0b3a08 	blcc	2cf0bc <__bss_end__+0x2c5094>
     898:	0213490b 	andseq	r4, r3, #180224	; 0x2c000
     89c:	11000017 	tstne	r0, r7, lsl r0
     8a0:	0e030034 	mcreq	0, 0, r0, cr3, cr4, {1}
     8a4:	19341349 	ldmdbne	r4!, {r0, r3, r6, r8, r9, ip}
     8a8:	00001802 	andeq	r1, r0, r2, lsl #16
     8ac:	11010b12 	tstne	r1, r2, lsl fp
     8b0:	01061201 	tsteq	r6, r1, lsl #4
     8b4:	13000013 	movwne	r0, #19
     8b8:	0e030034 	mcreq	0, 0, r0, cr3, cr4, {1}
     8bc:	0b3b0b3a 	bleq	ec35ac <__bss_end__+0xeb9584>
     8c0:	17021349 	strne	r1, [r2, -r9, asr #6]
     8c4:	89140000 	ldmdbhi	r4, {}	; <UNPREDICTABLE>
     8c8:	11000182 	smlabbne	r0, r2, r1, r0
     8cc:	00133101 	andseq	r3, r3, r1, lsl #2
     8d0:	82891500 	addhi	r1, r9, #0, 10
     8d4:	01110101 	tsteq	r1, r1, lsl #2
     8d8:	13011331 	movwne	r1, #4913	; 0x1331
     8dc:	8a160000 	bhi	5808e4 <__bss_end__+0x5768bc>
     8e0:	02000182 	andeq	r0, r0, #-2147483616	; 0x80000020
     8e4:	18429118 	stmdane	r2, {r3, r4, r8, ip, pc}^
     8e8:	89170000 	ldmdbhi	r7, {}	; <UNPREDICTABLE>
     8ec:	11010182 	smlabbne	r1, r2, r1, r0
     8f0:	00133101 	andseq	r3, r3, r1, lsl #2
     8f4:	01011800 	tsteq	r1, r0, lsl #16
     8f8:	13011349 	movwne	r1, #4937	; 0x1349
     8fc:	21190000 	tstcs	r9, r0
     900:	2f134900 	svccs	0x00134900
     904:	1a00000b 	bne	938 <__code_start__-0x76c8>
     908:	193f012e 	ldmdbne	pc!, {r1, r2, r3, r5, r8}	; <UNPREDICTABLE>
     90c:	0b3a0e03 	bleq	e84120 <__bss_end__+0xe7a0f8>
     910:	19270b3b 	stmdbne	r7!, {r0, r1, r3, r4, r5, r8, r9, fp}
     914:	06120111 			; <UNDEFINED> instruction: 0x06120111
     918:	42971840 	addsmi	r1, r7, #64, 16	; 0x400000
     91c:	00130119 	andseq	r0, r3, r9, lsl r1
     920:	01151b00 	tsteq	r5, r0, lsl #22
     924:	13491927 	movtne	r1, #39207	; 0x9927
     928:	00001301 	andeq	r1, r0, r1, lsl #6
     92c:	4900051c 	stmdbmi	r0, {r2, r3, r4, r8, sl}
     930:	1d000013 	stcne	0, cr0, [r0, #-76]	; 0xffffffb4
     934:	193f012e 	ldmdbne	pc!, {r1, r2, r3, r5, r8}	; <UNPREDICTABLE>
     938:	0b3a0e03 	bleq	e8414c <__bss_end__+0xe7a124>
     93c:	19270b3b 	stmdbne	r7!, {r0, r1, r3, r4, r5, r8, r9, fp}
     940:	01111349 	tsteq	r1, r9, asr #6
     944:	18400612 	stmdane	r0, {r1, r4, r9, sl}^
     948:	01194297 			; <UNDEFINED> instruction: 0x01194297
     94c:	1e000013 	mcrne	0, 0, r0, cr0, cr3, {0}
     950:	0111010b 	tsteq	r1, fp, lsl #2
     954:	00000612 	andeq	r0, r0, r2, lsl r6
     958:	0182891f 	orreq	r8, r2, pc, lsl r9
     95c:	01011101 	tsteq	r1, r1, lsl #2
     960:	20000013 	andcs	r0, r0, r3, lsl r0
     964:	0e030034 	mcreq	0, 0, r0, cr3, cr4, {1}
     968:	0b3b0b3a 	bleq	ec3658 <__bss_end__+0xeb9630>
     96c:	193f1349 	ldmdbne	pc!, {r0, r3, r6, r8, r9, ip}	; <UNPREDICTABLE>
     970:	0000193c 	andeq	r1, r0, ip, lsr r9
     974:	3f002e21 	svccc	0x00002e21
     978:	3a0e0319 	bcc	3815e4 <__bss_end__+0x3775bc>
     97c:	270b3b0b 	strcs	r3, [fp, -fp, lsl #22]
     980:	00193c19 	andseq	r3, r9, r9, lsl ip
     984:	012e2200 	teqeq	lr, r0, lsl #4
     988:	0e03193f 	mcreq	9, 0, r1, cr3, cr15, {1}
     98c:	0b3b0b3a 	bleq	ec367c <__bss_end__+0xeb9654>
     990:	13491927 	movtne	r1, #39207	; 0x9927
     994:	1301193c 	movwne	r1, #6460	; 0x193c
     998:	18230000 	stmdane	r3!, {}	; <UNPREDICTABLE>
     99c:	00000000 	andeq	r0, r0, r0
     9a0:	25011101 	strcs	r1, [r1, #-257]	; 0x101
     9a4:	030b130e 	movweq	r1, #45838	; 0xb30e
     9a8:	110e1b0e 	tstne	lr, lr, lsl #22
     9ac:	10061201 	andne	r1, r6, r1, lsl #4
     9b0:	02000017 	andeq	r0, r0, #23
     9b4:	0b0b0024 	bleq	2c0a4c <__bss_end__+0x2b6a24>
     9b8:	08030b3e 	stmdaeq	r3, {r1, r2, r3, r4, r5, r8, r9, fp}
     9bc:	24030000 	strcs	r0, [r3], #-0
     9c0:	3e0b0b00 	vmlacc.f64	d0, d11, d0
     9c4:	000e030b 	andeq	r0, lr, fp, lsl #6
     9c8:	012e0400 	teqeq	lr, r0, lsl #8
     9cc:	0e03193f 	mcreq	9, 0, r1, cr3, cr15, {1}
     9d0:	0b3b0b3a 	bleq	ec36c0 <__bss_end__+0xeb9698>
     9d4:	01111927 	tsteq	r1, r7, lsr #18
     9d8:	18400612 	stmdane	r0, {r1, r4, r9, sl}^
     9dc:	01194297 			; <UNDEFINED> instruction: 0x01194297
     9e0:	05000013 	streq	r0, [r0, #-19]
     9e4:	08030034 	stmdaeq	r3, {r2, r4, r5}
     9e8:	0b3b0b3a 	bleq	ec36d8 <__bss_end__+0xeb96b0>
     9ec:	17021349 	strne	r1, [r2, -r9, asr #6]
     9f0:	2e060000 	cdpcs	0, 0, cr0, cr6, cr0, {0}
     9f4:	03193f01 	tsteq	r9, #1, 30
     9f8:	3b0b3a0e 	blcc	2cf238 <__bss_end__+0x2c5210>
     9fc:	1119270b 	tstne	r9, fp, lsl #14
     a00:	40061201 	andmi	r1, r6, r1, lsl #4
     a04:	19429718 	stmdbne	r2, {r3, r4, r8, r9, sl, ip, pc}^
     a08:	01000000 	mrseq	r0, (UNDEF: 0)
     a0c:	0e250111 	mcreq	1, 1, r0, cr5, cr1, {0}
     a10:	0e030b13 	vmoveq.32	d3[0], r0
     a14:	01110e1b 	tsteq	r1, fp, lsl lr
     a18:	17100612 			; <UNDEFINED> instruction: 0x17100612
     a1c:	24020000 	strcs	r0, [r2], #-0
     a20:	3e0b0b00 	vmlacc.f64	d0, d11, d0
     a24:	0008030b 	andeq	r0, r8, fp, lsl #6
     a28:	00240300 	eoreq	r0, r4, r0, lsl #6
     a2c:	0b3e0b0b 	bleq	f83660 <__bss_end__+0xf79638>
     a30:	00000e03 	andeq	r0, r0, r3, lsl #28
     a34:	0b000f04 	bleq	464c <__code_start__-0x39b4>
     a38:	0013490b 	andseq	r4, r3, fp, lsl #18
     a3c:	00260500 	eoreq	r0, r6, r0, lsl #10
     a40:	00001349 	andeq	r1, r0, r9, asr #6
     a44:	3f012e06 	svccc	0x00012e06
     a48:	3a0e0319 	bcc	3816b4 <__bss_end__+0x37768c>
     a4c:	270b3b0b 	strcs	r3, [fp, -fp, lsl #22]
     a50:	12011119 	andne	r1, r1, #1073741830	; 0x40000006
     a54:	97184006 	ldrls	r4, [r8, -r6]
     a58:	13011942 	movwne	r1, #6466	; 0x1942
     a5c:	89070000 	stmdbhi	r7, {}	; <UNPREDICTABLE>
     a60:	11000182 	smlabbne	r0, r2, r1, r0
     a64:	00133101 	andseq	r3, r3, r1, lsl #2
     a68:	82890800 	addhi	r0, r9, #0, 16
     a6c:	01110101 	tsteq	r1, r1, lsl #2
     a70:	00001301 	andeq	r1, r0, r1, lsl #6
     a74:	01828a09 	orreq	r8, r2, r9, lsl #20
     a78:	91180200 	tstls	r8, r0, lsl #4
     a7c:	00001842 	andeq	r1, r0, r2, asr #16
     a80:	0182890a 	orreq	r8, r2, sl, lsl #18
     a84:	31011101 	tstcc	r1, r1, lsl #2
     a88:	00130113 	andseq	r0, r3, r3, lsl r1
     a8c:	01150b00 	tsteq	r5, r0, lsl #22
     a90:	13491927 	movtne	r1, #39207	; 0x9927
     a94:	00001301 	andeq	r1, r0, r1, lsl #6
     a98:	4900050c 	stmdbmi	r0, {r2, r3, r8, sl}
     a9c:	0d000013 	stceq	0, cr0, [r0, #-76]	; 0xffffffb4
     aa0:	0e030034 	mcreq	0, 0, r0, cr3, cr4, {1}
     aa4:	0b3b0b3a 	bleq	ec3794 <__bss_end__+0xeb976c>
     aa8:	193f1349 	ldmdbne	pc!, {r0, r3, r6, r8, r9, ip}	; <UNPREDICTABLE>
     aac:	0000193c 	andeq	r1, r0, ip, lsr r9
     ab0:	3f002e0e 	svccc	0x00002e0e
     ab4:	3a0e0319 	bcc	381720 <__bss_end__+0x3776f8>
     ab8:	270b3b0b 	strcs	r3, [fp, -fp, lsl #22]
     abc:	00193c19 	andseq	r3, r9, r9, lsl ip
     ac0:	012e0f00 	teqeq	lr, r0, lsl #30
     ac4:	0e03193f 	mcreq	9, 0, r1, cr3, cr15, {1}
     ac8:	0b3b0b3a 	bleq	ec37b8 <__bss_end__+0xeb9790>
     acc:	193c1927 	ldmdbne	ip!, {r0, r1, r2, r5, r8, fp, ip}
     ad0:	00001301 	andeq	r1, r0, r1, lsl #6
     ad4:	01110100 	tsteq	r1, r0, lsl #2
     ad8:	0b130e25 	bleq	4c4374 <__bss_end__+0x4ba34c>
     adc:	0e1b0e03 	cdpeq	14, 1, cr0, cr11, cr3, {0}
     ae0:	06120111 			; <UNDEFINED> instruction: 0x06120111
     ae4:	00001710 	andeq	r1, r0, r0, lsl r7
     ae8:	0b002402 	bleq	9af8 <__FUNCTION__.4220+0xc>
     aec:	030b3e0b 	movweq	r3, #48651	; 0xbe0b
     af0:	03000008 	movweq	r0, #8
     af4:	0b0b0024 	bleq	2c0b8c <__bss_end__+0x2b6b64>
     af8:	0e030b3e 	vmoveq.16	d3[0], r0
     afc:	2e040000 	cdpcs	0, 0, cr0, cr4, cr0, {0}
     b00:	03193f01 	tsteq	r9, #1, 30
     b04:	3b0b3a0e 	blcc	2cf344 <__bss_end__+0x2c531c>
     b08:	1201110b 	andne	r1, r1, #-1073741822	; 0xc0000002
     b0c:	97184006 	ldrls	r4, [r8, -r6]
     b10:	13011942 	movwne	r1, #6466	; 0x1942
     b14:	34050000 	strcc	r0, [r5], #-0
     b18:	3a0e0300 	bcc	381720 <__bss_end__+0x3776f8>
     b1c:	490b3b0b 	stmdbmi	fp, {r0, r1, r3, r8, r9, fp, ip, sp}
     b20:	3c193f13 	ldccc	15, cr3, [r9], {19}
     b24:	06000019 			; <UNDEFINED> instruction: 0x06000019
     b28:	193f002e 	ldmdbne	pc!, {r1, r2, r3, r5}	; <UNPREDICTABLE>
     b2c:	0b3a0e03 	bleq	e84340 <__bss_end__+0xe7a318>
     b30:	19270b3b 	stmdbne	r7!, {r0, r1, r3, r4, r5, r8, r9, fp}
     b34:	0000193c 	andeq	r1, r0, ip, lsr r9
     b38:	03003407 	movweq	r3, #1031	; 0x407
     b3c:	3b0b3a08 	blcc	2cf364 <__bss_end__+0x2c533c>
     b40:	0213490b 	andseq	r4, r3, #180224	; 0x2c000
     b44:	08000017 	stmdaeq	r0, {r0, r1, r2, r4}
     b48:	0e030034 	mcreq	0, 0, r0, cr3, cr4, {1}
     b4c:	0b3b0b3a 	bleq	ec383c <__bss_end__+0xeb9814>
     b50:	00001349 	andeq	r1, r0, r9, asr #6
     b54:	01828909 	orreq	r8, r2, r9, lsl #18
     b58:	31011100 	mrscc	r1, (UNDEF: 17)
     b5c:	0a000013 	beq	bb0 <__code_start__-0x7450>
     b60:	0b0b000f 	bleq	2c0ba4 <__bss_end__+0x2b6b7c>
     b64:	00001349 	andeq	r1, r0, r9, asr #6
     b68:	01110100 	tsteq	r1, r0, lsl #2
     b6c:	0b130e25 	bleq	4c4408 <__bss_end__+0x4ba3e0>
     b70:	0e1b0e03 	cdpeq	14, 1, cr0, cr11, cr3, {0}
     b74:	06120111 			; <UNDEFINED> instruction: 0x06120111
     b78:	00001710 	andeq	r1, r0, r0, lsl r7
     b7c:	0b002402 	bleq	9b8c <__FUNCTION__.4220+0x20>
     b80:	030b3e0b 	movweq	r3, #48651	; 0xbe0b
     b84:	03000008 	movweq	r0, #8
     b88:	0b0b0024 	bleq	2c0c20 <__bss_end__+0x2b6bf8>
     b8c:	0e030b3e 	vmoveq.16	d3[0], r0
     b90:	0f040000 	svceq	0x00040000
     b94:	490b0b00 	stmdbmi	fp, {r8, r9, fp}
     b98:	05000013 	streq	r0, [r0, #-19]
     b9c:	13490026 	movtne	r0, #36902	; 0x9026
     ba0:	2e060000 	cdpcs	0, 0, cr0, cr6, cr0, {0}
     ba4:	03193f01 	tsteq	r9, #1, 30
     ba8:	3b0b3a0e 	blcc	2cf3e8 <__bss_end__+0x2c53c0>
     bac:	1119270b 	tstne	r9, fp, lsl #14
     bb0:	40061201 	andmi	r1, r6, r1, lsl #4
     bb4:	19429718 	stmdbne	r2, {r3, r4, r8, r9, sl, ip, pc}^
     bb8:	00001301 	andeq	r1, r0, r1, lsl #6
     bbc:	03000507 	movweq	r0, #1287	; 0x507
     bc0:	3b0b3a08 	blcc	2cf3e8 <__bss_end__+0x2c53c0>
     bc4:	0213490b 	andseq	r4, r3, #180224	; 0x2c000
     bc8:	08000017 	stmdaeq	r0, {r0, r1, r2, r4}
     bcc:	0e030034 	mcreq	0, 0, r0, cr3, cr4, {1}
     bd0:	19341349 	ldmdbne	r4!, {r0, r3, r6, r8, r9, ip}
     bd4:	00001802 	andeq	r1, r0, r2, lsl #16
     bd8:	01828909 	orreq	r8, r2, r9, lsl #18
     bdc:	31011100 	mrscc	r1, (UNDEF: 17)
     be0:	0a000013 	beq	c34 <__code_start__-0x73cc>
     be4:	01018289 	smlabbeq	r1, r9, r2, r8
     be8:	13310111 	teqne	r1, #1073741828	; 0x40000004
     bec:	00001301 	andeq	r1, r0, r1, lsl #6
     bf0:	01828a0b 	orreq	r8, r2, fp, lsl #20
     bf4:	91180200 	tstls	r8, r0, lsl #4
     bf8:	00001842 	andeq	r1, r0, r2, asr #16
     bfc:	4901010c 	stmdbmi	r1, {r2, r3, r8}
     c00:	00130113 	andseq	r0, r3, r3, lsl r1
     c04:	00210d00 	eoreq	r0, r1, r0, lsl #26
     c08:	0b2f1349 	bleq	bc5934 <__bss_end__+0xbbb90c>
     c0c:	2e0e0000 	cdpcs	0, 0, cr0, cr14, cr0, {0}
     c10:	03193f00 	tsteq	r9, #0, 30
     c14:	3b0b3a0e 	blcc	2cf454 <__bss_end__+0x2c542c>
     c18:	3c19270b 	ldccc	7, cr2, [r9], {11}
     c1c:	0f000019 	svceq	0x00000019
     c20:	193f012e 	ldmdbne	pc!, {r1, r2, r3, r5, r8}	; <UNPREDICTABLE>
     c24:	0b3a0e03 	bleq	e84438 <__bss_end__+0xe7a410>
     c28:	19270b3b 	stmdbne	r7!, {r0, r1, r3, r4, r5, r8, r9, fp}
     c2c:	193c1349 	ldmdbne	ip!, {r0, r3, r6, r8, r9, ip}
     c30:	00001301 	andeq	r1, r0, r1, lsl #6
     c34:	49000510 	stmdbmi	r0, {r4, r8, sl}
     c38:	11000013 	tstne	r0, r3, lsl r0
     c3c:	00000018 	andeq	r0, r0, r8, lsl r0
     c40:	01110100 	tsteq	r1, r0, lsl #2
     c44:	0b130e25 	bleq	4c44e0 <__bss_end__+0x4ba4b8>
     c48:	0e1b0e03 	cdpeq	14, 1, cr0, cr11, cr3, {0}
     c4c:	06120111 			; <UNDEFINED> instruction: 0x06120111
     c50:	00001710 	andeq	r1, r0, r0, lsl r7
     c54:	0b002402 	bleq	9c64 <buf.4189+0x40>
     c58:	030b3e0b 	movweq	r3, #48651	; 0xbe0b
     c5c:	03000008 	movweq	r0, #8
     c60:	0b0b0024 	bleq	2c0cf8 <__bss_end__+0x2b6cd0>
     c64:	0e030b3e 	vmoveq.16	d3[0], r0
     c68:	0f040000 	svceq	0x00040000
     c6c:	490b0b00 	stmdbmi	fp, {r8, r9, fp}
     c70:	05000013 	streq	r0, [r0, #-19]
     c74:	13490026 	movtne	r0, #36902	; 0x9026
     c78:	2e060000 	cdpcs	0, 0, cr0, cr6, cr0, {0}
     c7c:	03193f01 	tsteq	r9, #1, 30
     c80:	3b0b3a0e 	blcc	2cf4c0 <__bss_end__+0x2c5498>
     c84:	1119270b 	tstne	r9, fp, lsl #14
     c88:	40061201 	andmi	r1, r6, r1, lsl #4
     c8c:	19429718 	stmdbne	r2, {r3, r4, r8, r9, sl, ip, pc}^
     c90:	00001301 	andeq	r1, r0, r1, lsl #6
     c94:	03000507 	movweq	r0, #1287	; 0x507
     c98:	3b0b3a08 	blcc	2cf4c0 <__bss_end__+0x2c5498>
     c9c:	0213490b 	andseq	r4, r3, #180224	; 0x2c000
     ca0:	08000017 	stmdaeq	r0, {r0, r1, r2, r4}
     ca4:	0e030034 	mcreq	0, 0, r0, cr3, cr4, {1}
     ca8:	19341349 	ldmdbne	r4!, {r0, r3, r6, r8, r9, ip}
     cac:	00001802 	andeq	r1, r0, r2, lsl #16
     cb0:	01828909 	orreq	r8, r2, r9, lsl #18
     cb4:	31011100 	mrscc	r1, (UNDEF: 17)
     cb8:	0a000013 	beq	d0c <__code_start__-0x72f4>
     cbc:	01018289 	smlabbeq	r1, r9, r2, r8
     cc0:	13310111 	teqne	r1, #1073741828	; 0x40000004
     cc4:	00001301 	andeq	r1, r0, r1, lsl #6
     cc8:	01828a0b 	orreq	r8, r2, fp, lsl #20
     ccc:	91180200 	tstls	r8, r0, lsl #4
     cd0:	00001842 	andeq	r1, r0, r2, asr #16
     cd4:	4901010c 	stmdbmi	r1, {r2, r3, r8}
     cd8:	00130113 	andseq	r0, r3, r3, lsl r1
     cdc:	00210d00 	eoreq	r0, r1, r0, lsl #26
     ce0:	0b2f1349 	bleq	bc5a0c <__bss_end__+0xbbb9e4>
     ce4:	2e0e0000 	cdpcs	0, 0, cr0, cr14, cr0, {0}
     ce8:	03193f00 	tsteq	r9, #0, 30
     cec:	3b0b3a0e 	blcc	2cf52c <__bss_end__+0x2c5504>
     cf0:	3c19270b 	ldccc	7, cr2, [r9], {11}
     cf4:	0f000019 	svceq	0x00000019
     cf8:	193f012e 	ldmdbne	pc!, {r1, r2, r3, r5, r8}	; <UNPREDICTABLE>
     cfc:	0b3a0e03 	bleq	e84510 <__bss_end__+0xe7a4e8>
     d00:	19270b3b 	stmdbne	r7!, {r0, r1, r3, r4, r5, r8, r9, fp}
     d04:	193c1349 	ldmdbne	ip!, {r0, r3, r6, r8, r9, ip}
     d08:	00001301 	andeq	r1, r0, r1, lsl #6
     d0c:	49000510 	stmdbmi	r0, {r4, r8, sl}
     d10:	11000013 	tstne	r0, r3, lsl r0
     d14:	00000018 	andeq	r0, r0, r8, lsl r0
     d18:	01110100 	tsteq	r1, r0, lsl #2
     d1c:	0b130e25 	bleq	4c45b8 <__bss_end__+0x4ba590>
     d20:	0e1b0e03 	cdpeq	14, 1, cr0, cr11, cr3, {0}
     d24:	06120111 			; <UNDEFINED> instruction: 0x06120111
     d28:	00001710 	andeq	r1, r0, r0, lsl r7
     d2c:	0b002402 	bleq	9d3c <buf.4189+0x118>
     d30:	030b3e0b 	movweq	r3, #48651	; 0xbe0b
     d34:	03000008 	movweq	r0, #8
     d38:	0b0b0024 	bleq	2c0dd0 <__bss_end__+0x2b6da8>
     d3c:	0e030b3e 	vmoveq.16	d3[0], r0
     d40:	0f040000 	svceq	0x00040000
     d44:	490b0b00 	stmdbmi	fp, {r8, r9, fp}
     d48:	05000013 	streq	r0, [r0, #-19]
     d4c:	13490026 	movtne	r0, #36902	; 0x9026
     d50:	2e060000 	cdpcs	0, 0, cr0, cr6, cr0, {0}
     d54:	03193f01 	tsteq	r9, #1, 30
     d58:	3b0b3a0e 	blcc	2cf598 <__bss_end__+0x2c5570>
     d5c:	1119270b 	tstne	r9, fp, lsl #14
     d60:	40061201 	andmi	r1, r6, r1, lsl #4
     d64:	19429718 	stmdbne	r2, {r3, r4, r8, r9, sl, ip, pc}^
     d68:	00001301 	andeq	r1, r0, r1, lsl #6
     d6c:	03000507 	movweq	r0, #1287	; 0x507
     d70:	3b0b3a08 	blcc	2cf598 <__bss_end__+0x2c5570>
     d74:	0213490b 	andseq	r4, r3, #180224	; 0x2c000
     d78:	08000017 	stmdaeq	r0, {r0, r1, r2, r4}
     d7c:	0e030034 	mcreq	0, 0, r0, cr3, cr4, {1}
     d80:	19341349 	ldmdbne	r4!, {r0, r3, r6, r8, r9, ip}
     d84:	00001802 	andeq	r1, r0, r2, lsl #16
     d88:	01828909 	orreq	r8, r2, r9, lsl #18
     d8c:	31011100 	mrscc	r1, (UNDEF: 17)
     d90:	0a000013 	beq	de4 <__code_start__-0x721c>
     d94:	01018289 	smlabbeq	r1, r9, r2, r8
     d98:	13310111 	teqne	r1, #1073741828	; 0x40000004
     d9c:	00001301 	andeq	r1, r0, r1, lsl #6
     da0:	01828a0b 	orreq	r8, r2, fp, lsl #20
     da4:	91180200 	tstls	r8, r0, lsl #4
     da8:	00001842 	andeq	r1, r0, r2, asr #16
     dac:	4901010c 	stmdbmi	r1, {r2, r3, r8}
     db0:	00130113 	andseq	r0, r3, r3, lsl r1
     db4:	00210d00 	eoreq	r0, r1, r0, lsl #26
     db8:	0b2f1349 	bleq	bc5ae4 <__bss_end__+0xbbbabc>
     dbc:	2e0e0000 	cdpcs	0, 0, cr0, cr14, cr0, {0}
     dc0:	03193f00 	tsteq	r9, #0, 30
     dc4:	3b0b3a0e 	blcc	2cf604 <__bss_end__+0x2c55dc>
     dc8:	3c19270b 	ldccc	7, cr2, [r9], {11}
     dcc:	0f000019 	svceq	0x00000019
     dd0:	193f012e 	ldmdbne	pc!, {r1, r2, r3, r5, r8}	; <UNPREDICTABLE>
     dd4:	0b3a0e03 	bleq	e845e8 <__bss_end__+0xe7a5c0>
     dd8:	19270b3b 	stmdbne	r7!, {r0, r1, r3, r4, r5, r8, r9, fp}
     ddc:	193c1349 	ldmdbne	ip!, {r0, r3, r6, r8, r9, ip}
     de0:	00001301 	andeq	r1, r0, r1, lsl #6
     de4:	49000510 	stmdbmi	r0, {r4, r8, sl}
     de8:	11000013 	tstne	r0, r3, lsl r0
     dec:	00000018 	andeq	r0, r0, r8, lsl r0
     df0:	01110100 	tsteq	r1, r0, lsl #2
     df4:	0b130e25 	bleq	4c4690 <__bss_end__+0x4ba668>
     df8:	0e1b0e03 	cdpeq	14, 1, cr0, cr11, cr3, {0}
     dfc:	06120111 			; <UNDEFINED> instruction: 0x06120111
     e00:	00001710 	andeq	r1, r0, r0, lsl r7
     e04:	0b002402 	bleq	9e14 <buf.4189+0x1f0>
     e08:	030b3e0b 	movweq	r3, #48651	; 0xbe0b
     e0c:	03000008 	movweq	r0, #8
     e10:	0b0b0024 	bleq	2c0ea8 <__bss_end__+0x2b6e80>
     e14:	0e030b3e 	vmoveq.16	d3[0], r0
     e18:	2e040000 	cdpcs	0, 0, cr0, cr4, cr0, {0}
     e1c:	03193f00 	tsteq	r9, #0, 30
     e20:	3b0b3a0e 	blcc	2cf660 <__bss_end__+0x2c5638>
     e24:	1119270b 	tstne	r9, fp, lsl #14
     e28:	40061201 	andmi	r1, r6, r1, lsl #4
     e2c:	19429718 	stmdbne	r2, {r3, r4, r8, r9, sl, ip, pc}^
     e30:	01000000 	mrseq	r0, (UNDEF: 0)
     e34:	0e250111 	mcreq	1, 1, r0, cr5, cr1, {0}
     e38:	0e030b13 	vmoveq.32	d3[0], r0
     e3c:	01110e1b 	tsteq	r1, fp, lsl lr
     e40:	17100612 			; <UNDEFINED> instruction: 0x17100612
     e44:	24020000 	strcs	r0, [r2], #-0
     e48:	3e0b0b00 	vmlacc.f64	d0, d11, d0
     e4c:	0008030b 	andeq	r0, r8, fp, lsl #6
     e50:	00240300 	eoreq	r0, r4, r0, lsl #6
     e54:	0b3e0b0b 	bleq	f83a88 <__bss_end__+0xf79a60>
     e58:	00000e03 	andeq	r0, r0, r3, lsl #28
     e5c:	0b010404 	bleq	41e74 <__bss_end__+0x37e4c>
     e60:	3b0b3a0b 	blcc	2cf694 <__bss_end__+0x2c566c>
     e64:	0013010b 	andseq	r0, r3, fp, lsl #2
     e68:	00280500 	eoreq	r0, r8, r0, lsl #10
     e6c:	0d1c0e03 	ldceq	14, cr0, [ip, #-12]
     e70:	2e060000 	cdpcs	0, 0, cr0, cr6, cr0, {0}
     e74:	03193f01 	tsteq	r9, #1, 30
     e78:	3b0b3a0e 	blcc	2cf6b8 <__bss_end__+0x2c5690>
     e7c:	1119270b 	tstne	r9, fp, lsl #14
     e80:	40061201 	andmi	r1, r6, r1, lsl #4
     e84:	19429718 	stmdbne	r2, {r3, r4, r8, r9, sl, ip, pc}^
     e88:	00001301 	andeq	r1, r0, r1, lsl #6
     e8c:	03003407 	movweq	r3, #1031	; 0x407
     e90:	3b0b3a0e 	blcc	2cf6d0 <__bss_end__+0x2c56a8>
     e94:	3f13490b 	svccc	0x0013490b
     e98:	00193c19 	andseq	r3, r9, r9, lsl ip
     e9c:	00340800 	eorseq	r0, r4, r0, lsl #16
     ea0:	0b3a0803 	bleq	e82eb4 <__bss_end__+0xe78e8c>
     ea4:	13490b3b 	movtne	r0, #39739	; 0x9b3b
     ea8:	00000b1c 	andeq	r0, r0, ip, lsl fp
     eac:	03003409 	movweq	r3, #1033	; 0x409
     eb0:	3b0b3a08 	blcc	2cf6d8 <__bss_end__+0x2c56b0>
     eb4:	0013490b 	andseq	r4, r3, fp, lsl #18
     eb8:	00340a00 	eorseq	r0, r4, r0, lsl #20
     ebc:	0b3a0803 	bleq	e82ed0 <__bss_end__+0xe78ea8>
     ec0:	13490b3b 	movtne	r0, #39739	; 0x9b3b
     ec4:	00001802 	andeq	r1, r0, r2, lsl #16
     ec8:	11010b0b 	tstne	r1, fp, lsl #22
     ecc:	01061201 	tsteq	r6, r1, lsl #4
     ed0:	0c000013 	stceq	0, cr0, [r0], {19}
     ed4:	08030034 	stmdaeq	r3, {r2, r4, r5}
     ed8:	0b3b0b3a 	bleq	ec3bc8 <__bss_end__+0xeb9ba0>
     edc:	17021349 	strne	r1, [r2, -r9, asr #6]
     ee0:	890d0000 	stmdbhi	sp, {}	; <UNPREDICTABLE>
     ee4:	11000182 	smlabbne	r0, r2, r1, r0
     ee8:	00133101 	andseq	r3, r3, r1, lsl #2
     eec:	82890e00 	addhi	r0, r9, #0, 28
     ef0:	01110101 	tsteq	r1, r1, lsl #2
     ef4:	13011331 	movwne	r1, #4913	; 0x1331
     ef8:	8a0f0000 	bhi	3c0f00 <__bss_end__+0x3b6ed8>
     efc:	02000182 	andeq	r0, r0, #-2147483616	; 0x80000020
     f00:	18429118 	stmdane	r2, {r3, r4, r8, ip, pc}^
     f04:	0f100000 	svceq	0x00100000
     f08:	490b0b00 	stmdbmi	fp, {r8, r9, fp}
     f0c:	11000013 	tstne	r0, r3, lsl r0
     f10:	193f002e 	ldmdbne	pc!, {r1, r2, r3, r5}	; <UNPREDICTABLE>
     f14:	0b3a0e03 	bleq	e84728 <__bss_end__+0xe7a700>
     f18:	19270b3b 	stmdbne	r7!, {r0, r1, r3, r4, r5, r8, r9, fp}
     f1c:	0000193c 	andeq	r1, r0, ip, lsr r9
     f20:	3f012e12 	svccc	0x00012e12
     f24:	3a0e0319 	bcc	381b90 <__bss_end__+0x377b68>
     f28:	270b3b0b 	strcs	r3, [fp, -fp, lsl #22]
     f2c:	00193c19 	andseq	r3, r9, r9, lsl ip
     f30:	00051300 	andeq	r1, r5, r0, lsl #6
     f34:	00001349 	andeq	r1, r0, r9, asr #6
     f38:	01110100 	tsteq	r1, r0, lsl #2
     f3c:	0b130e25 	bleq	4c47d8 <__bss_end__+0x4ba7b0>
     f40:	0e1b0e03 	cdpeq	14, 1, cr0, cr11, cr3, {0}
     f44:	01111755 	tsteq	r1, r5, asr r7
     f48:	00001710 	andeq	r1, r0, r0, lsl r7
     f4c:	0b002402 	bleq	9f5c <buf.4189+0x338>
     f50:	030b3e0b 	movweq	r3, #48651	; 0xbe0b
     f54:	03000008 	movweq	r0, #8
     f58:	0b0b0024 	bleq	2c0ff0 <__bss_end__+0x2b6fc8>
     f5c:	0e030b3e 	vmoveq.16	d3[0], r0
     f60:	2e040000 	cdpcs	0, 0, cr0, cr4, cr0, {0}
     f64:	03193f01 	tsteq	r9, #1, 30
     f68:	3b0b3a0e 	blcc	2cf7a8 <__bss_end__+0x2c5780>
     f6c:	4919270b 	ldmdbmi	r9, {r0, r1, r3, r8, r9, sl, sp}
     f70:	12011113 	andne	r1, r1, #-1073741820	; 0xc0000004
     f74:	97184006 	ldrls	r4, [r8, -r6]
     f78:	13011942 	movwne	r1, #6466	; 0x1942
     f7c:	34050000 	strcc	r0, [r5], #-0
     f80:	3a0e0300 	bcc	381b88 <__bss_end__+0x377b60>
     f84:	490b3b0b 	stmdbmi	fp, {r0, r1, r3, r8, r9, fp, ip, sp}
     f88:	00170213 	andseq	r0, r7, r3, lsl r2
     f8c:	012e0600 	teqeq	lr, r0, lsl #12
     f90:	0e03193f 	mcreq	9, 0, r1, cr3, cr15, {1}
     f94:	0b3b0b3a 	bleq	ec3c84 <__bss_end__+0xeb9c5c>
     f98:	01111927 	tsteq	r1, r7, lsr #18
     f9c:	18400612 	stmdane	r0, {r1, r4, r9, sl}^
     fa0:	01194297 			; <UNDEFINED> instruction: 0x01194297
     fa4:	07000013 	smladeq	r0, r3, r0, r0
     fa8:	0e030034 	mcreq	0, 0, r0, cr3, cr4, {1}
     fac:	0b3b0b3a 	bleq	ec3c9c <__bss_end__+0xeb9c74>
     fb0:	061c1349 	ldreq	r1, [ip], -r9, asr #6
     fb4:	34080000 	strcc	r0, [r8], #-0
     fb8:	3a0e0300 	bcc	381bc0 <__bss_end__+0x377b98>
     fbc:	490b3b0b 	stmdbmi	fp, {r0, r1, r3, r8, r9, fp, ip, sp}
     fc0:	000b1c13 	andeq	r1, fp, r3, lsl ip
     fc4:	82890900 	addhi	r0, r9, #0, 18
     fc8:	01110001 	tsteq	r1, r1
     fcc:	00001331 	andeq	r1, r0, r1, lsr r3
     fd0:	0182890a 	orreq	r8, r2, sl, lsl #18
     fd4:	31011101 	tstcc	r1, r1, lsl #2
     fd8:	00130113 	andseq	r0, r3, r3, lsl r1
     fdc:	828a0b00 	addhi	r0, sl, #0, 22
     fe0:	18020001 	stmdane	r2, {r0}
     fe4:	00184291 	mulseq	r8, r1, r2
     fe8:	82890c00 	addhi	r0, r9, #0, 24
     fec:	01110101 	tsteq	r1, r1, lsl #2
     ff0:	00001331 	andeq	r1, r0, r1, lsr r3
     ff4:	4900260d 	stmdbmi	r0, {r0, r2, r3, r9, sl, sp}
     ff8:	0e000013 	mcreq	0, 0, r0, cr0, cr3, {0}
     ffc:	193f012e 	ldmdbne	pc!, {r1, r2, r3, r5, r8}	; <UNPREDICTABLE>
    1000:	0b3a0e03 	bleq	e84814 <__bss_end__+0xe7a7ec>
    1004:	19270b3b 	stmdbne	r7!, {r0, r1, r3, r4, r5, r8, r9, fp}
    1008:	1301193c 	movwne	r1, #6460	; 0x193c
    100c:	050f0000 	streq	r0, [pc, #-0]	; 1014 <__code_start__-0x6fec>
    1010:	00134900 	andseq	r4, r3, r0, lsl #18
    1014:	012e1000 	teqeq	lr, r0
    1018:	0e03193f 	mcreq	9, 0, r1, cr3, cr15, {1}
    101c:	0b3b0b3a 	bleq	ec3d0c <__bss_end__+0xeb9ce4>
    1020:	193c1927 	ldmdbne	ip!, {r0, r1, r2, r5, r8, fp, ip}
    1024:	01000000 	mrseq	r0, (UNDEF: 0)
    1028:	0e250111 	mcreq	1, 1, r0, cr5, cr1, {0}
    102c:	0e030b13 	vmoveq.32	d3[0], r0
    1030:	01110e1b 	tsteq	r1, fp, lsl lr
    1034:	17100612 			; <UNDEFINED> instruction: 0x17100612
    1038:	24020000 	strcs	r0, [r2], #-0
    103c:	3e0b0b00 	vmlacc.f64	d0, d11, d0
    1040:	0008030b 	andeq	r0, r8, fp, lsl #6
    1044:	00240300 	eoreq	r0, r4, r0, lsl #6
    1048:	0b3e0b0b 	bleq	f83c7c <__bss_end__+0xf79c54>
    104c:	00000e03 	andeq	r0, r0, r3, lsl #28
    1050:	3f012e04 	svccc	0x00012e04
    1054:	3a0e0319 	bcc	381cc0 <__bss_end__+0x377c98>
    1058:	270b3b0b 	strcs	r3, [fp, -fp, lsl #22]
    105c:	12011119 	andne	r1, r1, #1073741830	; 0x40000006
    1060:	97184006 	ldrls	r4, [r8, -r6]
    1064:	13011942 	movwne	r1, #6466	; 0x1942
    1068:	05050000 	streq	r0, [r5, #-0]
    106c:	3a0e0300 	bcc	381c74 <__bss_end__+0x377c4c>
    1070:	490b3b0b 	stmdbmi	fp, {r0, r1, r3, r8, r9, fp, ip, sp}
    1074:	00170213 	andseq	r0, r7, r3, lsl r2
    1078:	012e0600 	teqeq	lr, r0, lsl #12
    107c:	0e03193f 	mcreq	9, 0, r1, cr3, cr15, {1}
    1080:	0b3b0b3a 	bleq	ec3d70 <__bss_end__+0xeb9d48>
    1084:	13491927 	movtne	r1, #39207	; 0x9927
    1088:	06120111 			; <UNDEFINED> instruction: 0x06120111
    108c:	42971840 	addsmi	r1, r7, #64, 16	; 0x400000
    1090:	00130119 	andseq	r0, r3, r9, lsl r1
    1094:	82890700 	addhi	r0, r9, #0, 14
    1098:	01110101 	tsteq	r1, r1, lsl #2
    109c:	00001331 	andeq	r1, r0, r1, lsr r3
    10a0:	01828a08 	orreq	r8, r2, r8, lsl #20
    10a4:	91180200 	tstls	r8, r0, lsl #4
    10a8:	00001842 	andeq	r1, r0, r2, asr #16
    10ac:	03003409 	movweq	r3, #1033	; 0x409
    10b0:	3b0b3a08 	blcc	2cf8d8 <__bss_end__+0x2c58b0>
    10b4:	0213490b 	andseq	r4, r3, #180224	; 0x2c000
    10b8:	0a000017 	beq	111c <__code_start__-0x6ee4>
    10bc:	00018289 	andeq	r8, r1, r9, lsl #5
    10c0:	13310111 	teqne	r1, #1073741828	; 0x40000004
    10c4:	050b0000 	streq	r0, [fp, #-0]
    10c8:	3a080300 	bcc	201cd0 <__bss_end__+0x1f7ca8>
    10cc:	490b3b0b 	stmdbmi	fp, {r0, r1, r3, r8, r9, fp, ip, sp}
    10d0:	00170213 	andseq	r0, r7, r3, lsl r2
    10d4:	00340c00 	eorseq	r0, r4, r0, lsl #24
    10d8:	0b3a0803 	bleq	e830ec <__bss_end__+0xe790c4>
    10dc:	13490b3b 	movtne	r0, #39739	; 0x9b3b
    10e0:	00001802 	andeq	r1, r0, r2, lsl #16
    10e4:	11010b0d 	tstne	r1, sp, lsl #22
    10e8:	01061201 	tsteq	r6, r1, lsl #4
    10ec:	0e000013 	mcreq	0, 0, r0, cr0, cr3, {0}
    10f0:	193f012e 	ldmdbne	pc!, {r1, r2, r3, r5, r8}	; <UNPREDICTABLE>
    10f4:	0b3a0e03 	bleq	e84908 <__bss_end__+0xe7a8e0>
    10f8:	19270b3b 	stmdbne	r7!, {r0, r1, r3, r4, r5, r8, r9, fp}
    10fc:	193c1349 	ldmdbne	ip!, {r0, r3, r6, r8, r9, ip}
    1100:	00001301 	andeq	r1, r0, r1, lsl #6
    1104:	4900050f 	stmdbmi	r0, {r0, r1, r2, r3, r8, sl}
    1108:	10000013 	andne	r0, r0, r3, lsl r0
    110c:	193f002e 	ldmdbne	pc!, {r1, r2, r3, r5}	; <UNPREDICTABLE>
    1110:	0b3a0e03 	bleq	e84924 <__bss_end__+0xe7a8fc>
    1114:	19270b3b 	stmdbne	r7!, {r0, r1, r3, r4, r5, r8, r9, fp}
    1118:	0000193c 	andeq	r1, r0, ip, lsr r9
    111c:	01110100 	tsteq	r1, r0, lsl #2
    1120:	0b130e25 	bleq	4c49bc <__bss_end__+0x4ba994>
    1124:	0e1b0e03 	cdpeq	14, 1, cr0, cr11, cr3, {0}
    1128:	06120111 			; <UNDEFINED> instruction: 0x06120111
    112c:	00001710 	andeq	r1, r0, r0, lsl r7
    1130:	0b002402 	bleq	a140 <__bss_end__+0x118>
    1134:	030b3e0b 	movweq	r3, #48651	; 0xbe0b
    1138:	03000008 	movweq	r0, #8
    113c:	0b0b0024 	bleq	2c11d4 <__bss_end__+0x2b71ac>
    1140:	0e030b3e 	vmoveq.16	d3[0], r0
    1144:	35040000 	strcc	r0, [r4, #-0]
    1148:	00134900 	andseq	r4, r3, r0, lsl #18
    114c:	00160500 	andseq	r0, r6, r0, lsl #10
    1150:	0b3a0e03 	bleq	e84964 <__bss_end__+0xe7a93c>
    1154:	13490b3b 	movtne	r0, #39739	; 0x9b3b
    1158:	16060000 	strne	r0, [r6], -r0
    115c:	3a0e0300 	bcc	381d64 <__bss_end__+0x377d3c>
    1160:	49053b0b 	stmdbmi	r5, {r0, r1, r3, r8, r9, fp, ip, sp}
    1164:	07000013 	smladeq	r0, r3, r0, r0
    1168:	0b0b0117 	bleq	2c15cc <__bss_end__+0x2b75a4>
    116c:	0b3b0b3a 	bleq	ec3e5c <__bss_end__+0xeb9e34>
    1170:	00001301 	andeq	r1, r0, r1, lsl #6
    1174:	03000d08 	movweq	r0, #3336	; 0xd08
    1178:	3b0b3a0e 	blcc	2cf9b8 <__bss_end__+0x2c5990>
    117c:	0013490b 	andseq	r4, r3, fp, lsl #18
    1180:	01010900 	tsteq	r1, r0, lsl #18
    1184:	13011349 	movwne	r1, #4937	; 0x1349
    1188:	210a0000 	mrscs	r0, (UNDEF: 10)
    118c:	2f134900 	svccs	0x00134900
    1190:	0b00000b 	bleq	11c4 <__code_start__-0x6e3c>
    1194:	0b0b0113 	bleq	2c15e8 <__bss_end__+0x2b75c0>
    1198:	0b3b0b3a 	bleq	ec3e88 <__bss_end__+0xeb9e60>
    119c:	00001301 	andeq	r1, r0, r1, lsl #6
    11a0:	03000d0c 	movweq	r0, #3340	; 0xd0c
    11a4:	3b0b3a0e 	blcc	2cf9e4 <__bss_end__+0x2c59bc>
    11a8:	3813490b 	ldmdacc	r3, {r0, r1, r3, r8, fp, lr}
    11ac:	0d00000b 	stceq	0, cr0, [r0, #-44]	; 0xffffffd4
    11b0:	0b0b000f 	bleq	2c11f4 <__bss_end__+0x2b71cc>
    11b4:	0f0e0000 	svceq	0x000e0000
    11b8:	490b0b00 	stmdbmi	fp, {r8, r9, fp}
    11bc:	0f000013 	svceq	0x00000013
    11c0:	13490026 	movtne	r0, #36902	; 0x9026
    11c4:	13100000 	tstne	r0, #0
    11c8:	0b0e0301 	bleq	381dd4 <__bss_end__+0x377dac>
    11cc:	3b0b3a0b 	blcc	2cfa00 <__bss_end__+0x2c59d8>
    11d0:	0013010b 	andseq	r0, r3, fp, lsl #2
    11d4:	000d1100 	andeq	r1, sp, r0, lsl #2
    11d8:	0b3a0803 	bleq	e831ec <__bss_end__+0xe791c4>
    11dc:	13490b3b 	movtne	r0, #39739	; 0x9b3b
    11e0:	00000b38 	andeq	r0, r0, r8, lsr fp
    11e4:	03011312 	movweq	r1, #4882	; 0x1312
    11e8:	3a050b0e 	bcc	143e28 <__bss_end__+0x139e00>
    11ec:	010b3b0b 	tsteq	fp, fp, lsl #22
    11f0:	13000013 	movwne	r0, #19
    11f4:	0e03000d 	cdpeq	0, 0, cr0, cr3, cr13, {0}
    11f8:	0b3b0b3a 	bleq	ec3ee8 <__bss_end__+0xeb9ec0>
    11fc:	05381349 	ldreq	r1, [r8, #-841]!	; 0x349
    1200:	15140000 	ldrne	r0, [r4, #-0]
    1204:	00192700 	andseq	r2, r9, r0, lsl #14
    1208:	01151500 	tsteq	r5, r0, lsl #10
    120c:	13491927 	movtne	r1, #39207	; 0x9927
    1210:	00001301 	andeq	r1, r0, r1, lsl #6
    1214:	49000516 	stmdbmi	r0, {r1, r2, r4, r8, sl}
    1218:	17000013 	smladne	r0, r3, r0, r0
    121c:	0e030113 	mcreq	1, 0, r0, cr3, cr3, {0}
    1220:	0b3a050b 	bleq	e82654 <__bss_end__+0xe7862c>
    1224:	1301053b 	movwne	r0, #5435	; 0x153b
    1228:	0d180000 	ldceq	0, cr0, [r8, #-0]
    122c:	3a0e0300 	bcc	381e34 <__bss_end__+0x377e0c>
    1230:	49053b0b 	stmdbmi	r5, {r0, r1, r3, r8, r9, fp, ip, sp}
    1234:	000b3813 	andeq	r3, fp, r3, lsl r8
    1238:	000d1900 	andeq	r1, sp, r0, lsl #18
    123c:	0b3a0e03 	bleq	e84a50 <__bss_end__+0xe7aa28>
    1240:	1349053b 	movtne	r0, #38203	; 0x953b
    1244:	00000538 	andeq	r0, r0, r8, lsr r5
    1248:	0301131a 	movweq	r1, #4890	; 0x131a
    124c:	3a0b0b0e 	bcc	2c3e8c <__bss_end__+0x2b9e64>
    1250:	01053b0b 	tsteq	r5, fp, lsl #22
    1254:	1b000013 	blne	12a8 <__code_start__-0x6d58>
    1258:	0b0b0113 	bleq	2c16ac <__bss_end__+0x2b7684>
    125c:	053b0b3a 	ldreq	r0, [fp, #-2874]!	; 0xb3a
    1260:	00001301 	andeq	r1, r0, r1, lsl #6
    1264:	0b01171c 	bleq	46edc <__bss_end__+0x3ceb4>
    1268:	3b0b3a0b 	blcc	2cfa9c <__bss_end__+0x2c5a74>
    126c:	00130105 	andseq	r0, r3, r5, lsl #2
    1270:	000d1d00 	andeq	r1, sp, r0, lsl #26
    1274:	0b3a0e03 	bleq	e84a88 <__bss_end__+0xe7aa60>
    1278:	1349053b 	movtne	r0, #38203	; 0x953b
    127c:	151e0000 	ldrne	r0, [lr, #-0]
    1280:	01192701 	tsteq	r9, r1, lsl #14
    1284:	1f000013 	svcne	0x00000013
    1288:	0e030034 	mcreq	0, 0, r0, cr3, cr4, {1}
    128c:	053b0b3a 	ldreq	r0, [fp, #-2874]!	; 0xb3a
    1290:	193f1349 	ldmdbne	pc!, {r0, r3, r6, r8, r9, ip}	; <UNPREDICTABLE>
    1294:	0000193c 	andeq	r1, r0, ip, lsr r9
    1298:	03003420 	movweq	r3, #1056	; 0x420
    129c:	3b0b3a0e 	blcc	2cfadc <__bss_end__+0x2c5ab4>
    12a0:	3f13490b 	svccc	0x0013490b
    12a4:	00193c19 	andseq	r3, r9, r9, lsl ip
    12a8:	01042100 	mrseq	r2, (UNDEF: 20)
    12ac:	13490b0b 	movtne	r0, #39691	; 0x9b0b
    12b0:	0b3b0b3a 	bleq	ec3fa0 <__bss_end__+0xeb9f78>
    12b4:	00001301 	andeq	r1, r0, r1, lsl #6
    12b8:	03002822 	movweq	r2, #2082	; 0x822
    12bc:	000b1c0e 	andeq	r1, fp, lr, lsl #24
    12c0:	00342300 	eorseq	r2, r4, r0, lsl #6
    12c4:	0b3a0e03 	bleq	e84ad8 <__bss_end__+0xe7aab0>
    12c8:	13490b3b 	movtne	r0, #39739	; 0x9b3b
    12cc:	0000061c 	andeq	r0, r0, ip, lsl r6
    12d0:	3f012e24 	svccc	0x00012e24
    12d4:	3a0e0319 	bcc	381f40 <__bss_end__+0x377f18>
    12d8:	270b3b0b 	strcs	r3, [fp, -fp, lsl #22]
    12dc:	11134919 	tstne	r3, r9, lsl r9
    12e0:	40061201 	andmi	r1, r6, r1, lsl #4
    12e4:	19429718 	stmdbne	r2, {r3, r4, r8, r9, sl, ip, pc}^
    12e8:	00001301 	andeq	r1, r0, r1, lsl #6
    12ec:	01828925 	orreq	r8, r2, r5, lsr #18
    12f0:	31011100 	mrscc	r1, (UNDEF: 17)
    12f4:	26000013 			; <UNDEFINED> instruction: 0x26000013
    12f8:	193f012e 	ldmdbne	pc!, {r1, r2, r3, r5, r8}	; <UNPREDICTABLE>
    12fc:	0b3a0e03 	bleq	e84b10 <__bss_end__+0xe7aae8>
    1300:	19270b3b 	stmdbne	r7!, {r0, r1, r3, r4, r5, r8, r9, fp}
    1304:	06120111 			; <UNDEFINED> instruction: 0x06120111
    1308:	42971840 	addsmi	r1, r7, #64, 16	; 0x400000
    130c:	00130119 	andseq	r0, r3, r9, lsl r1
    1310:	00052700 	andeq	r2, r5, r0, lsl #14
    1314:	0b3a0803 	bleq	e83328 <__bss_end__+0xe79300>
    1318:	13490b3b 	movtne	r0, #39739	; 0x9b3b
    131c:	00001702 	andeq	r1, r0, r2, lsl #14
    1320:	01828928 	orreq	r8, r2, r8, lsr #18
    1324:	31011101 	tstcc	r1, r1, lsl #2
    1328:	00130113 	andseq	r0, r3, r3, lsl r1
    132c:	828a2900 	addhi	r2, sl, #0, 18
    1330:	18020001 	stmdane	r2, {r0}
    1334:	00184291 	mulseq	r8, r1, r2
    1338:	00342a00 	eorseq	r2, r4, r0, lsl #20
    133c:	0b3a0803 	bleq	e83350 <__bss_end__+0xe79328>
    1340:	13490b3b 	movtne	r0, #39739	; 0x9b3b
    1344:	00001802 	andeq	r1, r0, r2, lsl #16
    1348:	0182892b 	orreq	r8, r2, fp, lsr #18
    134c:	31011101 	tstcc	r1, r1, lsl #2
    1350:	2c000013 	stccs	0, cr0, [r0], {19}
    1354:	0e03012e 	adfeqsp	f0, f3, #0.5
    1358:	0b3b0b3a 	bleq	ec4048 <__bss_end__+0xeba020>
    135c:	01111927 	tsteq	r1, r7, lsr #18
    1360:	18400612 	stmdane	r0, {r1, r4, r9, sl}^
    1364:	01194297 			; <UNDEFINED> instruction: 0x01194297
    1368:	2d000013 	stccs	0, cr0, [r0, #-76]	; 0xffffffb4
    136c:	0e030005 	cdpeq	0, 0, cr0, cr3, cr5, {0}
    1370:	0b3b0b3a 	bleq	ec4060 <__bss_end__+0xeba038>
    1374:	17021349 	strne	r1, [r2, -r9, asr #6]
    1378:	352e0000 	strcc	r0, [lr, #-0]!
    137c:	2f000000 	svccs	0x00000000
    1380:	193f002e 	ldmdbne	pc!, {r1, r2, r3, r5}	; <UNPREDICTABLE>
    1384:	0e6e193c 	mcreq	9, 3, r1, cr14, cr12, {1}
    1388:	0b3a0e03 	bleq	e84b9c <__bss_end__+0xe7ab74>
    138c:	00000b3b 	andeq	r0, r0, fp, lsr fp
    1390:	01110100 	tsteq	r1, r0, lsl #2
    1394:	0b130e25 	bleq	4c4c30 <__bss_end__+0x4bac08>
    1398:	0e1b0e03 	cdpeq	14, 1, cr0, cr11, cr3, {0}
    139c:	06120111 			; <UNDEFINED> instruction: 0x06120111
    13a0:	00001710 	andeq	r1, r0, r0, lsl r7
    13a4:	0b002402 	bleq	a3b4 <__bss_end__+0x38c>
    13a8:	030b3e0b 	movweq	r3, #48651	; 0xbe0b
    13ac:	03000008 	movweq	r0, #8
    13b0:	0b0b0024 	bleq	2c1448 <__bss_end__+0x2b7420>
    13b4:	0e030b3e 	vmoveq.16	d3[0], r0
    13b8:	26040000 	strcs	r0, [r4], -r0
    13bc:	00134900 	andseq	r4, r3, r0, lsl #18
    13c0:	00160500 	andseq	r0, r6, r0, lsl #10
    13c4:	0b3a0e03 	bleq	e84bd8 <__bss_end__+0xe7abb0>
    13c8:	13490b3b 	movtne	r0, #39739	; 0x9b3b
    13cc:	16060000 	strne	r0, [r6], -r0
    13d0:	3a0e0300 	bcc	381fd8 <__bss_end__+0x377fb0>
    13d4:	49053b0b 	stmdbmi	r5, {r0, r1, r3, r8, r9, fp, ip, sp}
    13d8:	07000013 	smladeq	r0, r3, r0, r0
    13dc:	0b0b0117 	bleq	2c1840 <__bss_end__+0x2b7818>
    13e0:	0b3b0b3a 	bleq	ec40d0 <__bss_end__+0xeba0a8>
    13e4:	00001301 	andeq	r1, r0, r1, lsl #6
    13e8:	03000d08 	movweq	r0, #3336	; 0xd08
    13ec:	3b0b3a0e 	blcc	2cfc2c <__bss_end__+0x2c5c04>
    13f0:	0013490b 	andseq	r4, r3, fp, lsl #18
    13f4:	01010900 	tsteq	r1, r0, lsl #18
    13f8:	13011349 	movwne	r1, #4937	; 0x1349
    13fc:	210a0000 	mrscs	r0, (UNDEF: 10)
    1400:	2f134900 	svccs	0x00134900
    1404:	0b00000b 	bleq	1438 <__code_start__-0x6bc8>
    1408:	0b0b0113 	bleq	2c185c <__bss_end__+0x2b7834>
    140c:	0b3b0b3a 	bleq	ec40fc <__bss_end__+0xeba0d4>
    1410:	00001301 	andeq	r1, r0, r1, lsl #6
    1414:	03000d0c 	movweq	r0, #3340	; 0xd0c
    1418:	3b0b3a0e 	blcc	2cfc58 <__bss_end__+0x2c5c30>
    141c:	3813490b 	ldmdacc	r3, {r0, r1, r3, r8, fp, lr}
    1420:	0d00000b 	stceq	0, cr0, [r0, #-44]	; 0xffffffd4
    1424:	0b0b000f 	bleq	2c1468 <__bss_end__+0x2b7440>
    1428:	0f0e0000 	svceq	0x000e0000
    142c:	490b0b00 	stmdbmi	fp, {r8, r9, fp}
    1430:	0f000013 	svceq	0x00000013
    1434:	0e030113 	mcreq	1, 0, r0, cr3, cr3, {0}
    1438:	0b3a0b0b 	bleq	e8406c <__bss_end__+0xe7a044>
    143c:	13010b3b 	movwne	r0, #6971	; 0x1b3b
    1440:	0d100000 	ldceq	0, cr0, [r0, #-0]
    1444:	3a080300 	bcc	20204c <__bss_end__+0x1f8024>
    1448:	490b3b0b 	stmdbmi	fp, {r0, r1, r3, r8, r9, fp, ip, sp}
    144c:	000b3813 	andeq	r3, fp, r3, lsl r8
    1450:	01131100 	tsteq	r3, r0, lsl #2
    1454:	050b0e03 	streq	r0, [fp, #-3587]	; 0xe03
    1458:	0b3b0b3a 	bleq	ec4148 <__bss_end__+0xeba120>
    145c:	00001301 	andeq	r1, r0, r1, lsl #6
    1460:	03000d12 	movweq	r0, #3346	; 0xd12
    1464:	3b0b3a0e 	blcc	2cfca4 <__bss_end__+0x2c5c7c>
    1468:	3813490b 	ldmdacc	r3, {r0, r1, r3, r8, fp, lr}
    146c:	13000005 	movwne	r0, #5
    1470:	19270015 	stmdbne	r7!, {r0, r2, r4}
    1474:	15140000 	ldrne	r0, [r4, #-0]
    1478:	49192701 	ldmdbmi	r9, {r0, r8, r9, sl, sp}
    147c:	00130113 	andseq	r0, r3, r3, lsl r1
    1480:	00051500 	andeq	r1, r5, r0, lsl #10
    1484:	00001349 	andeq	r1, r0, r9, asr #6
    1488:	03011316 	movweq	r1, #4886	; 0x1316
    148c:	3a050b0e 	bcc	1440cc <__bss_end__+0x13a0a4>
    1490:	01053b0b 	tsteq	r5, fp, lsl #22
    1494:	17000013 	smladne	r0, r3, r0, r0
    1498:	0e03000d 	cdpeq	0, 0, cr0, cr3, cr13, {0}
    149c:	053b0b3a 	ldreq	r0, [fp, #-2874]!	; 0xb3a
    14a0:	0b381349 	bleq	e061cc <__bss_end__+0xdfc1a4>
    14a4:	0d180000 	ldceq	0, cr0, [r8, #-0]
    14a8:	3a0e0300 	bcc	3820b0 <__bss_end__+0x378088>
    14ac:	49053b0b 	stmdbmi	r5, {r0, r1, r3, r8, r9, fp, ip, sp}
    14b0:	00053813 	andeq	r3, r5, r3, lsl r8
    14b4:	01131900 	tsteq	r3, r0, lsl #18
    14b8:	0b0b0e03 	bleq	2c4ccc <__bss_end__+0x2baca4>
    14bc:	053b0b3a 	ldreq	r0, [fp, #-2874]!	; 0xb3a
    14c0:	00001301 	andeq	r1, r0, r1, lsl #6
    14c4:	0b01131a 	bleq	46134 <__bss_end__+0x3c10c>
    14c8:	3b0b3a0b 	blcc	2cfcfc <__bss_end__+0x2c5cd4>
    14cc:	00130105 	andseq	r0, r3, r5, lsl #2
    14d0:	01171b00 	tsteq	r7, r0, lsl #22
    14d4:	0b3a0b0b 	bleq	e84108 <__bss_end__+0xe7a0e0>
    14d8:	1301053b 	movwne	r0, #5435	; 0x153b
    14dc:	0d1c0000 	ldceq	0, cr0, [ip, #-0]
    14e0:	3a0e0300 	bcc	3820e8 <__bss_end__+0x3780c0>
    14e4:	49053b0b 	stmdbmi	r5, {r0, r1, r3, r8, r9, fp, ip, sp}
    14e8:	1d000013 	stcne	0, cr0, [r0, #-76]	; 0xffffffb4
    14ec:	19270115 	stmdbne	r7!, {r0, r2, r4, r8}
    14f0:	00001301 	andeq	r1, r0, r1, lsl #6
    14f4:	0300341e 	movweq	r3, #1054	; 0x41e
    14f8:	3b0b3a0e 	blcc	2cfd38 <__bss_end__+0x2c5d10>
    14fc:	3f134905 	svccc	0x00134905
    1500:	00193c19 	andseq	r3, r9, r9, lsl ip
    1504:	00341f00 	eorseq	r1, r4, r0, lsl #30
    1508:	0b3a0e03 	bleq	e84d1c <__bss_end__+0xe7acf4>
    150c:	13490b3b 	movtne	r0, #39739	; 0x9b3b
    1510:	193c193f 	ldmdbne	ip!, {r0, r1, r2, r3, r4, r5, r8, fp, ip}
    1514:	04200000 	strteq	r0, [r0], #-0
    1518:	490b0b01 	stmdbmi	fp, {r0, r8, r9, fp}
    151c:	3b0b3a13 	blcc	2cfd70 <__bss_end__+0x2c5d48>
    1520:	0013010b 	andseq	r0, r3, fp, lsl #2
    1524:	00282100 	eoreq	r2, r8, r0, lsl #2
    1528:	0b1c0e03 	bleq	704d3c <__bss_end__+0x6fad14>
    152c:	34220000 	strtcc	r0, [r2], #-0
    1530:	3a0e0300 	bcc	382138 <__bss_end__+0x378110>
    1534:	490b3b0b 	stmdbmi	fp, {r0, r1, r3, r8, r9, fp, ip, sp}
    1538:	00061c13 	andeq	r1, r6, r3, lsl ip
    153c:	012e2300 	teqeq	lr, r0, lsl #6
    1540:	0e03193f 	mcreq	9, 0, r1, cr3, cr15, {1}
    1544:	0b3b0b3a 	bleq	ec4234 <__bss_end__+0xeba20c>
    1548:	13491927 	movtne	r1, #39207	; 0x9927
    154c:	06120111 			; <UNDEFINED> instruction: 0x06120111
    1550:	42971840 	addsmi	r1, r7, #64, 16	; 0x400000
    1554:	00130119 	andseq	r0, r3, r9, lsl r1
    1558:	00052400 	andeq	r2, r5, r0, lsl #8
    155c:	0b3a0803 	bleq	e83570 <__bss_end__+0xe79548>
    1560:	13490b3b 	movtne	r0, #39739	; 0x9b3b
    1564:	00001702 	andeq	r1, r0, r2, lsl #14
    1568:	03003425 	movweq	r3, #1061	; 0x425
    156c:	3b0b3a0e 	blcc	2cfdac <__bss_end__+0x2c5d84>
    1570:	0213490b 	andseq	r4, r3, #180224	; 0x2c000
    1574:	26000017 			; <UNDEFINED> instruction: 0x26000017
    1578:	08030034 	stmdaeq	r3, {r2, r4, r5}
    157c:	0b3b0b3a 	bleq	ec426c <__bss_end__+0xeba244>
    1580:	17021349 	strne	r1, [r2, -r9, asr #6]
    1584:	89270000 	stmdbhi	r7!, {}	; <UNPREDICTABLE>
    1588:	11010182 	smlabbne	r1, r2, r1, r0
    158c:	00133101 	andseq	r3, r3, r1, lsl #2
    1590:	828a2800 	addhi	r2, sl, #0, 16
    1594:	18020001 	stmdane	r2, {r0}
    1598:	00184291 	mulseq	r8, r1, r2
    159c:	012e2900 	teqeq	lr, r0, lsl #18
    15a0:	0e03193f 	mcreq	9, 0, r1, cr3, cr15, {1}
    15a4:	0b3b0b3a 	bleq	ec4294 <__bss_end__+0xeba26c>
    15a8:	01111927 	tsteq	r1, r7, lsr #18
    15ac:	18400612 	stmdane	r0, {r1, r4, r9, sl}^
    15b0:	01194297 			; <UNDEFINED> instruction: 0x01194297
    15b4:	2a000013 	bcs	1608 <__code_start__-0x69f8>
    15b8:	01018289 	smlabbeq	r1, r9, r2, r8
    15bc:	13310111 	teqne	r1, #1073741828	; 0x40000004
    15c0:	00001301 	andeq	r1, r0, r1, lsl #6
    15c4:	0182892b 	orreq	r8, r2, fp, lsr #18
    15c8:	31011100 	mrscc	r1, (UNDEF: 17)
    15cc:	2c000013 	stccs	0, cr0, [r0], {19}
    15d0:	0e030005 	cdpeq	0, 0, cr0, cr3, cr5, {0}
    15d4:	0b3b0b3a 	bleq	ec42c4 <__bss_end__+0xeba29c>
    15d8:	17021349 	strne	r1, [r2, -r9, asr #6]
    15dc:	342d0000 	strtcc	r0, [sp], #-0
    15e0:	3a080300 	bcc	2021e8 <__bss_end__+0x1f81c0>
    15e4:	490b3b0b 	stmdbmi	fp, {r0, r1, r3, r8, r9, fp, ip, sp}
    15e8:	00180213 	andseq	r0, r8, r3, lsl r2
    15ec:	002e2e00 	eoreq	r2, lr, r0, lsl #28
    15f0:	193c193f 	ldmdbne	ip!, {r0, r1, r2, r3, r4, r5, r8, fp, ip}
    15f4:	0e030e6e 	cdpeq	14, 0, cr0, cr3, cr14, {3}
    15f8:	0b3b0b3a 	bleq	ec42e8 <__bss_end__+0xeba2c0>
    15fc:	Address 0x00000000000015fc is out of bounds.


Disassembly of section .debug_loc:

00000000 <.debug_loc>:
       0:	00000000 	andeq	r0, r0, r0
       4:	00000057 	andeq	r0, r0, r7, asr r0
       8:	57500001 	ldrbpl	r0, [r0, -r1]
       c:	78000000 	stmdavc	r0, {}	; <UNPREDICTABLE>
      10:	01000000 	mrseq	r0, (UNDEF: 0)
      14:	00785400 	rsbseq	r5, r8, r0, lsl #8
      18:	00cc0000 	sbceq	r0, ip, r0
      1c:	00010000 	andeq	r0, r1, r0
      20:	0000cc50 	andeq	ip, r0, r0, asr ip
      24:	0000d000 	andeq	sp, r0, r0
      28:	54000100 	strpl	r0, [r0], #-256	; 0x100
      2c:	000000d0 	ldrdeq	r0, [r0], -r0	; <UNPREDICTABLE>
      30:	000000d4 	ldrdeq	r0, [r0], -r4
      34:	d4500001 	ldrble	r0, [r0], #-1
      38:	d8000000 	stmdale	r0, {}	; <UNPREDICTABLE>
      3c:	01000000 	mrseq	r0, (UNDEF: 0)
      40:	00d85400 	sbcseq	r5, r8, r0, lsl #8
      44:	00dc0000 	sbcseq	r0, ip, r0
      48:	00010000 	andeq	r0, r1, r0
      4c:	0000dc50 	andeq	sp, r0, r0, asr ip
      50:	0000e000 	andeq	lr, r0, r0
      54:	54000100 	strpl	r0, [r0], #-256	; 0x100
      58:	000000e0 	andeq	r0, r0, r0, ror #1
      5c:	000000e4 	andeq	r0, r0, r4, ror #1
      60:	e4500001 	ldrb	r0, [r0], #-1
      64:	e8000000 	stmda	r0, {}	; <UNPREDICTABLE>
      68:	01000000 	mrseq	r0, (UNDEF: 0)
      6c:	00e85400 	rsceq	r5, r8, r0, lsl #8
      70:	00ec0000 	rsceq	r0, ip, r0
      74:	00010000 	andeq	r0, r1, r0
      78:	0000ec50 	andeq	lr, r0, r0, asr ip
      7c:	0000f000 	andeq	pc, r0, r0
      80:	54000100 	strpl	r0, [r0], #-256	; 0x100
      84:	000000f0 	strdeq	r0, [r0], -r0	; <UNPREDICTABLE>
      88:	000000f3 	strdeq	r0, [r0], -r3
      8c:	f3500001 	vhadd.u16	d16, d0, d1
      90:	10000000 	andne	r0, r0, r0
      94:	01000001 	tsteq	r0, r1
      98:	01105400 	tsteq	r0, r0, lsl #8
      9c:	01140000 	tsteq	r4, r0
      a0:	00010000 	andeq	r0, r1, r0
      a4:	00011450 	andeq	r1, r1, r0, asr r4
      a8:	00011800 	andeq	r1, r1, r0, lsl #16
      ac:	54000100 	strpl	r0, [r0], #-256	; 0x100
      b0:	00000118 	andeq	r0, r0, r8, lsl r1
      b4:	0000011c 	andeq	r0, r0, ip, lsl r1
      b8:	1c500001 	mrrcne	0, 0, r0, r0, cr1	; <UNPREDICTABLE>
      bc:	24000001 	strcs	r0, [r0], #-1
      c0:	01000001 	tsteq	r0, r1
      c4:	01245400 	teqeq	r4, r0, lsl #8
      c8:	01580000 	cmpeq	r8, r0
      cc:	00040000 	andeq	r0, r4, r0
      d0:	9f5001f3 	svcls	0x005001f3
	...
      dc:	0000000c 	andeq	r0, r0, ip
      e0:	00000057 	andeq	r0, r0, r7, asr r0
      e4:	57500001 	ldrbpl	r0, [r0, -r1]
      e8:	78000000 	stmdavc	r0, {}	; <UNPREDICTABLE>
      ec:	01000000 	mrseq	r0, (UNDEF: 0)
      f0:	00785400 	rsbseq	r5, r8, r0, lsl #8
      f4:	00cc0000 	sbceq	r0, ip, r0
      f8:	00010000 	andeq	r0, r1, r0
      fc:	0000cc50 	andeq	ip, r0, r0, asr ip
     100:	0000d000 	andeq	sp, r0, r0
     104:	54000100 	strpl	r0, [r0], #-256	; 0x100
     108:	000000d0 	ldrdeq	r0, [r0], -r0	; <UNPREDICTABLE>
     10c:	000000d4 	ldrdeq	r0, [r0], -r4
     110:	d4500001 	ldrble	r0, [r0], #-1
     114:	d8000000 	stmdale	r0, {}	; <UNPREDICTABLE>
     118:	01000000 	mrseq	r0, (UNDEF: 0)
     11c:	00d85400 	sbcseq	r5, r8, r0, lsl #8
     120:	00dc0000 	sbcseq	r0, ip, r0
     124:	00010000 	andeq	r0, r1, r0
     128:	0000dc50 	andeq	sp, r0, r0, asr ip
     12c:	0000e000 	andeq	lr, r0, r0
     130:	54000100 	strpl	r0, [r0], #-256	; 0x100
     134:	000000e0 	andeq	r0, r0, r0, ror #1
     138:	000000e4 	andeq	r0, r0, r4, ror #1
     13c:	e4500001 	ldrb	r0, [r0], #-1
     140:	e8000000 	stmda	r0, {}	; <UNPREDICTABLE>
     144:	01000000 	mrseq	r0, (UNDEF: 0)
     148:	00e85400 	rsceq	r5, r8, r0, lsl #8
     14c:	00ec0000 	rsceq	r0, ip, r0
     150:	00010000 	andeq	r0, r1, r0
     154:	0000ec50 	andeq	lr, r0, r0, asr ip
     158:	0000f000 	andeq	pc, r0, r0
     15c:	54000100 	strpl	r0, [r0], #-256	; 0x100
     160:	000000f0 	strdeq	r0, [r0], -r0	; <UNPREDICTABLE>
     164:	000000f3 	strdeq	r0, [r0], -r3
     168:	f3500001 	vhadd.u16	d16, d0, d1
     16c:	10000000 	andne	r0, r0, r0
     170:	01000001 	tsteq	r0, r1
     174:	01105400 	tsteq	r0, r0, lsl #8
     178:	01140000 	tsteq	r4, r0
     17c:	00010000 	andeq	r0, r1, r0
     180:	00011450 	andeq	r1, r1, r0, asr r4
     184:	00011800 	andeq	r1, r1, r0, lsl #16
     188:	54000100 	strpl	r0, [r0], #-256	; 0x100
     18c:	00000118 	andeq	r0, r0, r8, lsl r1
     190:	0000011c 	andeq	r0, r0, ip, lsl r1
     194:	1c500001 	mrrcne	0, 0, r0, r0, cr1	; <UNPREDICTABLE>
     198:	24000001 	strcs	r0, [r0], #-1
     19c:	01000001 	tsteq	r0, r1
     1a0:	01245400 	teqeq	r4, r0, lsl #8
     1a4:	01580000 	cmpeq	r8, r0
     1a8:	00040000 	andeq	r0, r4, r0
     1ac:	9f5001f3 	svcls	0x005001f3
	...
     1b8:	00000158 	andeq	r0, r0, r8, asr r1
     1bc:	00000173 	andeq	r0, r0, r3, ror r1
     1c0:	73500001 	cmpvc	r0, #1
     1c4:	a8000001 	stmdage	r0, {r0}
     1c8:	04000001 	streq	r0, [r0], #-1
     1cc:	5001f300 	andpl	pc, r1, r0, lsl #6
     1d0:	0001a89f 	muleq	r1, pc, r8	; <UNPREDICTABLE>
     1d4:	0001b000 	andeq	fp, r1, r0
     1d8:	50000100 	andpl	r0, r0, r0, lsl #2
     1dc:	000001b0 			; <UNDEFINED> instruction: 0x000001b0
     1e0:	000001f0 	strdeq	r0, [r0], -r0	; <UNPREDICTABLE>
     1e4:	01f30004 	mvnseq	r0, r4
     1e8:	00009f50 	andeq	r9, r0, r0, asr pc
     1ec:	00000000 	andeq	r0, r0, r0
     1f0:	01940000 	orrseq	r0, r4, r0
     1f4:	01a80000 			; <UNDEFINED> instruction: 0x01a80000
     1f8:	00010000 	andeq	r0, r1, r0
     1fc:	0001b453 	andeq	fp, r1, r3, asr r4
     200:	0001c400 	andeq	ip, r1, r0, lsl #8
     204:	53000100 	movwpl	r0, #256	; 0x100
	...
     210:	000001f0 	strdeq	r0, [r0], -r0	; <UNPREDICTABLE>
     214:	0000021c 	andeq	r0, r0, ip, lsl r2
     218:	1c500001 	mrrcne	0, 0, r0, r0, cr1	; <UNPREDICTABLE>
     21c:	5c000002 	stcpl	0, cr0, [r0], {2}
     220:	04000003 	streq	r0, [r0], #-3
     224:	5001f300 	andpl	pc, r1, r0, lsl #6
     228:	0000009f 	muleq	r0, pc, r0	; <UNPREDICTABLE>
     22c:	00000000 	andeq	r0, r0, r0
     230:	0001f000 	andeq	pc, r1, r0
     234:	00022000 	andeq	r2, r2, r0
     238:	51000100 	mrspl	r0, (UNDEF: 16)
     23c:	00000220 	andeq	r0, r0, r0, lsr #4
     240:	00000320 	andeq	r0, r0, r0, lsr #6
     244:	20540001 	subscs	r0, r4, r1
     248:	5c000003 	stcpl	0, cr0, [r0], {3}
     24c:	04000003 	streq	r0, [r0], #-3
     250:	5101f300 	mrspl	pc, SP_irq	; <UNPREDICTABLE>
     254:	0000009f 	muleq	r0, pc, r0	; <UNPREDICTABLE>
     258:	00000000 	andeq	r0, r0, r0
     25c:	0001f000 	andeq	pc, r1, r0
     260:	00022400 	andeq	r2, r2, r0, lsl #8
     264:	52000100 	andpl	r0, r0, #0, 2
     268:	00000224 	andeq	r0, r0, r4, lsr #4
     26c:	0000035c 	andeq	r0, r0, ip, asr r3
     270:	01f30004 	mvnseq	r0, r4
     274:	00009f52 	andeq	r9, r0, r2, asr pc
     278:	00000000 	andeq	r0, r0, r0
     27c:	02300000 	eorseq	r0, r0, #0
     280:	02340000 	eorseq	r0, r4, #0
     284:	00010000 	andeq	r0, r1, r0
     288:	00000053 	andeq	r0, r0, r3, asr r0
     28c:	00000000 	andeq	r0, r0, r0
     290:	00037c00 	andeq	r7, r3, r0, lsl #24
     294:	00042400 	andeq	r2, r4, r0, lsl #8
     298:	54000100 	strpl	r0, [r0], #-256	; 0x100
	...
     2a4:	000003f8 	strdeq	r0, [r0], -r8
     2a8:	00000424 	andeq	r0, r0, r4, lsr #8
     2ac:	00540001 	subseq	r0, r4, r1
     2b0:	00000000 	andeq	r0, r0, r0
     2b4:	28000000 	stmdacs	r0, {}	; <UNPREDICTABLE>
     2b8:	2b000004 	blcs	2d0 <__code_start__-0x7d30>
     2bc:	01000004 	tsteq	r0, r4
     2c0:	00005000 	andeq	r5, r0, r0
     2c4:	00000000 	andeq	r0, r0, r0
     2c8:	04400000 	strbeq	r0, [r0], #-0
     2cc:	044b0000 	strbeq	r0, [fp], #-0
     2d0:	00010000 	andeq	r0, r1, r0
     2d4:	00046c53 	andeq	r6, r4, r3, asr ip
     2d8:	00047000 	andeq	r7, r4, r0
     2dc:	53000100 	movwpl	r0, #256	; 0x100
	...
     2ec:	00000023 	andeq	r0, r0, r3, lsr #32
     2f0:	23500001 	cmpcs	r0, #1
     2f4:	44000000 	strmi	r0, [r0], #-0
     2f8:	04000000 	streq	r0, [r0], #-0
     2fc:	5001f300 	andpl	pc, r1, r0, lsl #6
     300:	0000449f 	muleq	r0, pc, r4	; <UNPREDICTABLE>
     304:	00005f00 	andeq	r5, r0, r0, lsl #30
     308:	50000100 	andpl	r0, r0, r0, lsl #2
     30c:	0000005f 	andeq	r0, r0, pc, asr r0
     310:	00000080 	andeq	r0, r0, r0, lsl #1
     314:	01f30004 	mvnseq	r0, r4
     318:	00809f50 	addeq	r9, r0, r0, asr pc
     31c:	00b00000 	adcseq	r0, r0, r0
     320:	00010000 	andeq	r0, r1, r0
     324:	00000050 	andeq	r0, r0, r0, asr r0
	...
     330:	00002300 	andeq	r2, r0, r0, lsl #6
     334:	51000100 	mrspl	r0, (UNDEF: 16)
     338:	00000023 	andeq	r0, r0, r3, lsr #32
     33c:	00000044 	andeq	r0, r0, r4, asr #32
     340:	01f30004 	mvnseq	r0, r4
     344:	00449f51 	subeq	r9, r4, r1, asr pc
     348:	005f0000 	subseq	r0, pc, r0
     34c:	00010000 	andeq	r0, r1, r0
     350:	00005f51 	andeq	r5, r0, r1, asr pc
     354:	00008000 	andeq	r8, r0, r0
     358:	f3000400 	vshl.u8	d0, d0, d0
     35c:	809f5101 	addshi	r5, pc, r1, lsl #2
     360:	b0000000 	andlt	r0, r0, r0
     364:	01000000 	mrseq	r0, (UNDEF: 0)
     368:	00005100 	andeq	r5, r0, r0, lsl #2
     36c:	00000000 	andeq	r0, r0, r0
     370:	00100000 	andseq	r0, r0, r0
     374:	00230000 	eoreq	r0, r3, r0
     378:	00010000 	andeq	r0, r1, r0
     37c:	00004453 	andeq	r4, r0, r3, asr r4
     380:	00004800 	andeq	r4, r0, r0, lsl #16
     384:	53000100 	movwpl	r0, #256	; 0x100
     388:	00000048 	andeq	r0, r0, r8, asr #32
     38c:	000000b0 	strheq	r0, [r0], -r0	; <UNPREDICTABLE>
     390:	ff0a0004 			; <UNDEFINED> instruction: 0xff0a0004
     394:	00009f01 	andeq	r9, r0, r1, lsl #30
     398:	00000000 	andeq	r0, r0, r0
     39c:	00440000 	subeq	r0, r4, r0
     3a0:	005f0000 	subseq	r0, pc, r0
     3a4:	00010000 	andeq	r0, r1, r0
     3a8:	00005f50 	andeq	r5, r0, r0, asr pc
     3ac:	00008000 	andeq	r8, r0, r0
     3b0:	f3000400 	vshl.u8	d0, d0, d0
     3b4:	809f5001 	addshi	r5, pc, r1
     3b8:	b0000000 	andlt	r0, r0, r0
     3bc:	01000000 	mrseq	r0, (UNDEF: 0)
     3c0:	00005000 	andeq	r5, r0, r0
     3c4:	00000000 	andeq	r0, r0, r0
     3c8:	000c0000 	andeq	r0, ip, r0
     3cc:	00100000 	andseq	r0, r0, r0
     3d0:	00010000 	andeq	r0, r1, r0
     3d4:	00000053 	andeq	r0, r0, r3, asr r0
     3d8:	00000000 	andeq	r0, r0, r0
     3dc:	00001000 	andeq	r1, r0, r0
     3e0:	00002300 	andeq	r2, r0, r0, lsl #6
     3e4:	53000100 	movwpl	r0, #256	; 0x100
     3e8:	00000044 	andeq	r0, r0, r4, asr #32
     3ec:	0000004c 	andeq	r0, r0, ip, asr #32
     3f0:	00530001 	subseq	r0, r3, r1
     3f4:	00000000 	andeq	r0, r0, r0
     3f8:	18000000 	stmdane	r0, {}	; <UNPREDICTABLE>
     3fc:	23000000 	movwcs	r0, #0
     400:	01000000 	mrseq	r0, (UNDEF: 0)
     404:	00445200 	subeq	r5, r4, r0, lsl #4
     408:	00540000 	subseq	r0, r4, r0
     40c:	00010000 	andeq	r0, r1, r0
     410:	00000052 	andeq	r0, r0, r2, asr r0
     414:	00000000 	andeq	r0, r0, r0
     418:	00005400 	andeq	r5, r0, r0, lsl #8
     41c:	00005f00 	andeq	r5, r0, r0, lsl #30
     420:	52000100 	andpl	r0, r0, #0, 2
     424:	00000080 	andeq	r0, r0, r0, lsl #1
     428:	000000b0 	strheq	r0, [r0], -r0	; <UNPREDICTABLE>
     42c:	00520001 	subseq	r0, r2, r1
     430:	00000000 	andeq	r0, r0, r0
     434:	b0000000 	andlt	r0, r0, r0
     438:	d3000000 	movwle	r0, #0
     43c:	01000000 	mrseq	r0, (UNDEF: 0)
     440:	00d35000 	sbcseq	r5, r3, r0
     444:	00ec0000 	rsceq	r0, ip, r0
     448:	00040000 	andeq	r0, r4, r0
     44c:	9f5001f3 	svcls	0x005001f3
     450:	000000ec 	andeq	r0, r0, ip, ror #1
     454:	000000ff 	strdeq	r0, [r0], -pc	; <UNPREDICTABLE>
     458:	ff500001 			; <UNDEFINED> instruction: 0xff500001
     45c:	20000000 	andcs	r0, r0, r0
     460:	04000001 	streq	r0, [r0], #-1
     464:	5001f300 	andpl	pc, r1, r0, lsl #6
     468:	0001209f 	muleq	r1, pc, r0	; <UNPREDICTABLE>
     46c:	00013300 	andeq	r3, r1, r0, lsl #6
     470:	50000100 	andpl	r0, r0, r0, lsl #2
     474:	00000133 	andeq	r0, r0, r3, lsr r1
     478:	00000154 	andeq	r0, r0, r4, asr r1
     47c:	01f30004 	mvnseq	r0, r4
     480:	01549f50 	cmpeq	r4, r0, asr pc
     484:	015c0000 	cmpeq	ip, r0
     488:	00010000 	andeq	r0, r1, r0
     48c:	00015c50 	andeq	r5, r1, r0, asr ip
     490:	00015f00 	andeq	r5, r1, r0, lsl #30
     494:	51000100 	mrspl	r0, (UNDEF: 16)
     498:	0000015f 	andeq	r0, r0, pc, asr r1
     49c:	0000018c 	andeq	r0, r0, ip, lsl #3
     4a0:	01f30004 	mvnseq	r0, r4
     4a4:	00009f50 	andeq	r9, r0, r0, asr pc
     4a8:	00000000 	andeq	r0, r0, r0
     4ac:	00c40000 	sbceq	r0, r4, r0
     4b0:	00c80000 	sbceq	r0, r8, r0
     4b4:	00010000 	andeq	r0, r1, r0
     4b8:	00000053 	andeq	r0, r0, r3, asr r0
     4bc:	00000000 	andeq	r0, r0, r0
     4c0:	0000f000 	andeq	pc, r0, r0
     4c4:	0000f400 	andeq	pc, r0, r0, lsl #8
     4c8:	53000100 	movwpl	r0, #256	; 0x100
     4cc:	000000f4 	strdeq	r0, [r0], -r4
     4d0:	000000ff 	strdeq	r0, [r0], -pc	; <UNPREDICTABLE>
     4d4:	04730003 	ldrbteq	r0, [r3], #-3
     4d8:	0001209f 	muleq	r1, pc, r0	; <UNPREDICTABLE>
     4dc:	00012400 	andeq	r2, r1, r0, lsl #8
     4e0:	73000300 	movwvc	r0, #768	; 0x300
     4e4:	00009f04 	andeq	r9, r0, r4, lsl #30
     4e8:	00000000 	andeq	r0, r0, r0
     4ec:	01d00000 	bicseq	r0, r0, r0
     4f0:	01d80000 	bicseq	r0, r8, r0
     4f4:	00010000 	andeq	r0, r1, r0
     4f8:	0001d853 	andeq	sp, r1, r3, asr r8
     4fc:	0001fc00 	andeq	pc, r1, r0, lsl #24
     500:	0a000400 	beq	1508 <__code_start__-0x6af8>
     504:	009f01e7 	addseq	r0, pc, r7, ror #3
     508:	00000000 	andeq	r0, r0, r0
     50c:	cc000000 	stcgt	0, cr0, [r0], {-0}
     510:	d0000001 	andle	r0, r0, r1
     514:	01000001 	tsteq	r0, r1
     518:	00005300 	andeq	r5, r0, r0, lsl #6
     51c:	00000000 	andeq	r0, r0, r0
     520:	01d00000 	bicseq	r0, r0, r0
     524:	01dc0000 	bicseq	r0, ip, r0
     528:	00010000 	andeq	r0, r1, r0
     52c:	00000053 	andeq	r0, r0, r3, asr r0
     530:	00000000 	andeq	r0, r0, r0
     534:	0001fc00 	andeq	pc, r1, r0, lsl #24
     538:	00021b00 	andeq	r1, r2, r0, lsl #22
     53c:	50000100 	andpl	r0, r0, r0, lsl #2
     540:	0000021b 	andeq	r0, r0, fp, lsl r2
     544:	00000234 	andeq	r0, r0, r4, lsr r2
     548:	01f30004 	mvnseq	r0, r4
     54c:	02349f50 	eorseq	r9, r4, #80, 30	; 0x140
     550:	02470000 	subeq	r0, r7, #0
     554:	00010000 	andeq	r0, r1, r0
     558:	00024750 	andeq	r4, r2, r0, asr r7
     55c:	00026800 	andeq	r6, r2, r0, lsl #16
     560:	f3000400 	vshl.u8	d0, d0, d0
     564:	689f5001 	ldmvs	pc, {r0, ip, lr}	; <UNPREDICTABLE>
     568:	70000002 	andvc	r0, r0, r2
     56c:	01000002 	tsteq	r0, r2
     570:	02705000 	rsbseq	r5, r0, #0
     574:	02730000 	rsbseq	r0, r3, #0
     578:	00010000 	andeq	r0, r1, r0
     57c:	00027351 	andeq	r7, r2, r1, asr r3
     580:	00029400 	andeq	r9, r2, r0, lsl #8
     584:	f3000400 	vshl.u8	d0, d0, d0
     588:	009f5001 	addseq	r5, pc, r1
     58c:	00000000 	andeq	r0, r0, r0
     590:	0c000000 	stceq	0, cr0, [r0], {-0}
     594:	10000002 	andne	r0, r0, r2
     598:	01000002 	tsteq	r0, r2
     59c:	00005300 	andeq	r5, r0, r0, lsl #6
     5a0:	00000000 	andeq	r0, r0, r0
     5a4:	02cc0000 	sbceq	r0, ip, #0
     5a8:	02d40000 	sbcseq	r0, r4, #0
     5ac:	00010000 	andeq	r0, r1, r0
     5b0:	0002d453 	andeq	sp, r2, r3, asr r4
     5b4:	0002f800 	andeq	pc, r2, r0, lsl #16
     5b8:	0c000600 	stceq	6, cr0, [r0], {-0}
     5bc:	004001e7 	subeq	r0, r0, r7, ror #3
     5c0:	0000009f 	muleq	r0, pc, r0	; <UNPREDICTABLE>
     5c4:	00000000 	andeq	r0, r0, r0
     5c8:	0002c800 	andeq	ip, r2, r0, lsl #16
     5cc:	0002cc00 	andeq	ip, r2, r0, lsl #24
     5d0:	53000100 	movwpl	r0, #256	; 0x100
	...
     5dc:	000002cc 	andeq	r0, r0, ip, asr #5
     5e0:	000002d8 	ldrdeq	r0, [r0], -r8
     5e4:	00530001 	subseq	r0, r3, r1
     5e8:	00000000 	andeq	r0, r0, r0
     5ec:	08000000 	stmdaeq	r0, {}	; <UNPREDICTABLE>
     5f0:	30000003 	andcc	r0, r0, r3
     5f4:	01000003 	tsteq	r0, r3
     5f8:	03305000 	teqeq	r0, #0
     5fc:	03380000 	teqeq	r8, #0
     600:	00040000 	andeq	r0, r4, r0
     604:	9f5001f3 	svcls	0x005001f3
     608:	00000338 	andeq	r0, r0, r8, lsr r3
     60c:	0000033c 	andeq	r0, r0, ip, lsr r3
     610:	3c500001 	mrrccc	0, 0, r0, r0, cr1	; <UNPREDICTABLE>
     614:	54000003 	strpl	r0, [r0], #-3
     618:	04000003 	streq	r0, [r0], #-3
     61c:	5001f300 	andpl	pc, r1, r0, lsl #6
     620:	0000009f 	muleq	r0, pc, r0	; <UNPREDICTABLE>
     624:	00000000 	andeq	r0, r0, r0
     628:	00030800 	andeq	r0, r3, r0, lsl #16
     62c:	00033300 	andeq	r3, r3, r0, lsl #6
     630:	51000100 	mrspl	r0, (UNDEF: 16)
     634:	00000333 	andeq	r0, r0, r3, lsr r3
     638:	00000338 	andeq	r0, r0, r8, lsr r3
     63c:	01f30004 	mvnseq	r0, r4
     640:	03389f51 	teqeq	r8, #324	; 0x144
     644:	03400000 	movteq	r0, #0
     648:	00010000 	andeq	r0, r1, r0
     64c:	00034051 	andeq	r4, r3, r1, asr r0
     650:	00035400 	andeq	r5, r3, r0, lsl #8
     654:	f3000400 	vshl.u8	d0, d0, d0
     658:	009f5101 	addseq	r5, pc, r1, lsl #2
     65c:	00000000 	andeq	r0, r0, r0
     660:	14000000 	strne	r0, [r0], #-0
     664:	33000003 	movwcc	r0, #3
     668:	01000003 	tsteq	r0, r3
     66c:	03385300 	teqeq	r8, #0, 6
     670:	03430000 	movteq	r0, #12288	; 0x3000
     674:	00010000 	andeq	r0, r1, r0
     678:	00000053 	andeq	r0, r0, r3, asr r0
     67c:	00000000 	andeq	r0, r0, r0
     680:	00002c00 	andeq	r2, r0, r0, lsl #24
     684:	00003800 	andeq	r3, r0, r0, lsl #16
     688:	50000100 	andpl	r0, r0, r0, lsl #2
     68c:	00000038 	andeq	r0, r0, r8, lsr r0
     690:	00000048 	andeq	r0, r0, r8, asr #32
     694:	48550001 	ldmdami	r5, {r0}^
     698:	58000000 	stmdapl	r0, {}	; <UNPREDICTABLE>
     69c:	01000000 	mrseq	r0, (UNDEF: 0)
     6a0:	00005000 	andeq	r5, r0, r0
	...
     6ac:	000b0000 	andeq	r0, fp, r0
     6b0:	00010000 	andeq	r0, r1, r0
     6b4:	00000b50 	andeq	r0, r0, r0, asr fp
     6b8:	00001400 	andeq	r1, r0, r0, lsl #8
     6bc:	54000100 	strpl	r0, [r0], #-256	; 0x100
	...
     6cc:	00000010 	andeq	r0, r0, r0, lsl r0
     6d0:	10500001 	subsne	r0, r0, r1
     6d4:	34000000 	strcc	r0, [r0], #-0
     6d8:	01000000 	mrseq	r0, (UNDEF: 0)
     6dc:	00005400 	andeq	r5, r0, r0, lsl #8
	...
     6e8:	00040000 	andeq	r0, r4, r0
     6ec:	00010000 	andeq	r0, r1, r0
     6f0:	00000450 	andeq	r0, r0, r0, asr r4
     6f4:	00000c00 	andeq	r0, r0, r0, lsl #24
     6f8:	70000300 	andvc	r0, r0, r0, lsl #6
     6fc:	000c9f30 	andeq	r9, ip, r0, lsr pc
     700:	00140000 	andseq	r0, r4, r0
     704:	00040000 	andeq	r0, r4, r0
     708:	9f5001f3 	svcls	0x005001f3
	...
     714:	00000014 	andeq	r0, r0, r4, lsl r0
     718:	00000020 	andeq	r0, r0, r0, lsr #32
     71c:	20500001 	subscs	r0, r0, r1
     720:	2c000000 	stccs	0, cr0, [r0], {-0}
     724:	03000000 	movweq	r0, #0
     728:	9f017000 	svcls	0x00017000
     72c:	0000002c 	andeq	r0, r0, ip, lsr #32
     730:	00000040 	andeq	r0, r0, r0, asr #32
     734:	00500001 	subseq	r0, r0, r1
     738:	00000000 	andeq	r0, r0, r0
     73c:	14000000 	strne	r0, [r0], #-0
     740:	18000000 	stmdane	r0, {}	; <UNPREDICTABLE>
     744:	01000000 	mrseq	r0, (UNDEF: 0)
     748:	00185100 	andseq	r5, r8, r0, lsl #2
     74c:	00400000 	subeq	r0, r0, r0
     750:	00040000 	andeq	r0, r4, r0
     754:	9f5101f3 	svcls	0x005101f3
	...
     760:	00000040 	andeq	r0, r0, r0, asr #32
     764:	00000060 	andeq	r0, r0, r0, rrx
     768:	60500001 	subsvs	r0, r0, r1
     76c:	6c000000 	stcvs	0, cr0, [r0], {-0}
     770:	03000000 	movweq	r0, #0
     774:	9f017100 	svcls	0x00017100
     778:	0000006c 	andeq	r0, r0, ip, rrx
     77c:	00000074 	andeq	r0, r0, r4, ror r0
     780:	74510001 	ldrbvc	r0, [r1], #-1
     784:	80000000 	andhi	r0, r0, r0
     788:	03000000 	movweq	r0, #0
     78c:	9f017100 	svcls	0x00017100
	...
     798:	00000040 	andeq	r0, r0, r0, asr #32
     79c:	00000050 	andeq	r0, r0, r0, asr r0
     7a0:	50510001 	subspl	r0, r1, r1
     7a4:	80000000 	andhi	r0, r0, r0
     7a8:	04000000 	streq	r0, [r0], #-0
     7ac:	5101f300 	mrspl	pc, SP_irq	; <UNPREDICTABLE>
     7b0:	0000009f 	muleq	r0, pc, r0	; <UNPREDICTABLE>
     7b4:	00000000 	andeq	r0, r0, r0
     7b8:	00004000 	andeq	r4, r0, r0
     7bc:	00005800 	andeq	r5, r0, r0, lsl #16
     7c0:	52000100 	andpl	r0, r0, #0, 2
     7c4:	00000058 	andeq	r0, r0, r8, asr r0
     7c8:	00000064 	andeq	r0, r0, r4, rrx
     7cc:	64520001 	ldrbvs	r0, [r2], #-1
     7d0:	68000000 	stmdavs	r0, {}	; <UNPREDICTABLE>
     7d4:	03000000 	movweq	r0, #0
     7d8:	9f017200 	svcls	0x00017200
     7dc:	00000068 	andeq	r0, r0, r8, rrx
     7e0:	00000080 	andeq	r0, r0, r0, lsl #1
     7e4:	00520001 	subseq	r0, r2, r1
     7e8:	00000000 	andeq	r0, r0, r0
     7ec:	40000000 	andmi	r0, r0, r0
     7f0:	54000000 	strpl	r0, [r0], #-0
     7f4:	01000000 	mrseq	r0, (UNDEF: 0)
     7f8:	00545300 	subseq	r5, r4, r0, lsl #6
     7fc:	00780000 	rsbseq	r0, r8, r0
     800:	00010000 	andeq	r0, r1, r0
     804:	00000053 	andeq	r0, r0, r3, asr r0
     808:	00000000 	andeq	r0, r0, r0
     80c:	00004800 	andeq	r4, r0, r0, lsl #16
     810:	00006000 	andeq	r6, r0, r0
     814:	5c000100 	stfpls	f0, [r0], {-0}
     818:	00000060 	andeq	r0, r0, r0, rrx
     81c:	00000080 	andeq	r0, r0, r0, lsl #1
     820:	01f3000a 	mvnseq	r0, sl
     824:	5301f352 	movwpl	pc, #4946	; 0x1352	; <UNPREDICTABLE>
     828:	9f01231c 	svcls	0x0001231c
	...
     834:	00000080 	andeq	r0, r0, r0, lsl #1
     838:	000000a4 	andeq	r0, r0, r4, lsr #1
     83c:	a4500001 	ldrbge	r0, [r0], #-1
     840:	18000000 	stmdane	r0, {}	; <UNPREDICTABLE>
     844:	03000001 	movweq	r0, #1
     848:	9f027000 	svcls	0x00027000
     84c:	00000118 	andeq	r0, r0, r8, lsl r1
     850:	0000023c 	andeq	r0, r0, ip, lsr r2
     854:	01f30004 	mvnseq	r0, r4
     858:	00009f50 	andeq	r9, r0, r0, asr pc
     85c:	00000000 	andeq	r0, r0, r0
     860:	00800000 	addeq	r0, r0, r0
     864:	00f00000 	rscseq	r0, r0, r0
     868:	00010000 	andeq	r0, r1, r0
     86c:	0000f051 	andeq	pc, r0, r1, asr r0	; <UNPREDICTABLE>
     870:	00016000 	andeq	r6, r1, r0
     874:	55000100 	strpl	r0, [r0, #-256]	; 0x100
     878:	00000160 	andeq	r0, r0, r0, ror #2
     87c:	0000016c 	andeq	r0, r0, ip, ror #2
     880:	6c510001 	mrrcvs	0, 0, r0, r1, cr1
     884:	a0000001 	andge	r0, r0, r1
     888:	01000001 	tsteq	r0, r1
     88c:	01a05500 	lsleq	r5, r0, #10
     890:	01b40000 			; <UNDEFINED> instruction: 0x01b40000
     894:	00010000 	andeq	r0, r1, r0
     898:	0001b451 	andeq	fp, r1, r1, asr r4
     89c:	0001d400 	andeq	sp, r1, r0, lsl #8
     8a0:	55000100 	strpl	r0, [r0, #-256]	; 0x100
     8a4:	000001d4 	ldrdeq	r0, [r0], -r4
     8a8:	000001d7 	ldrdeq	r0, [r0], -r7
     8ac:	d7510001 	ldrble	r0, [r1, -r1]
     8b0:	1c000001 	stcne	0, cr0, [r0], {1}
     8b4:	01000002 	tsteq	r0, r2
     8b8:	021c5500 	andseq	r5, ip, #0, 10
     8bc:	023c0000 	eorseq	r0, ip, #0
     8c0:	00040000 	andeq	r0, r4, r0
     8c4:	9f5101f3 	svcls	0x005101f3
	...
     8d0:	00000080 	andeq	r0, r0, r0, lsl #1
     8d4:	00000094 	muleq	r0, r4, r0
     8d8:	94520001 	ldrbls	r0, [r2], #-1
     8dc:	1c000000 	stcne	0, cr0, [r0], {-0}
     8e0:	01000002 	tsteq	r0, r2
     8e4:	021c5400 	andseq	r5, ip, #0, 8
     8e8:	023c0000 	eorseq	r0, ip, #0
     8ec:	00040000 	andeq	r0, r4, r0
     8f0:	9f5201f3 	svcls	0x005201f3
	...
     8fc:	00000080 	andeq	r0, r0, r0, lsl #1
     900:	00000100 	andeq	r0, r0, r0, lsl #2
     904:	04530001 	ldrbeq	r0, [r3], #-1
     908:	08000001 	stmdaeq	r0, {r0}
     90c:	01000001 	tsteq	r0, r1
     910:	01605300 	cmneq	r0, r0, lsl #6
     914:	01640000 	cmneq	r4, r0
     918:	00010000 	andeq	r0, r1, r0
     91c:	00016453 	andeq	r6, r1, r3, asr r4
     920:	00016c00 	andeq	r6, r1, r0, lsl #24
     924:	5c000100 	stfpls	f0, [r0], {-0}
     928:	0000016c 	andeq	r0, r0, ip, ror #2
     92c:	000001a0 	andeq	r0, r0, r0, lsr #3
     930:	01f30004 	mvnseq	r0, r4
     934:	01a09f53 	asreq	r9, r3, pc
     938:	01b00000 	movseq	r0, r0
     93c:	00010000 	andeq	r0, r1, r0
     940:	0001b053 	andeq	fp, r1, r3, asr r0
     944:	0001b400 	andeq	fp, r1, r0, lsl #8
     948:	5c000100 	stfpls	f0, [r0], {-0}
     94c:	000001b4 			; <UNDEFINED> instruction: 0x000001b4
     950:	000001d4 	ldrdeq	r0, [r0], -r4
     954:	01f30004 	mvnseq	r0, r4
     958:	01d49f53 	bicseq	r9, r4, r3, asr pc
     95c:	01d70000 	bicseq	r0, r7, r0
     960:	00010000 	andeq	r0, r1, r0
     964:	0001d753 	andeq	sp, r1, r3, asr r7
     968:	0001f800 	andeq	pc, r1, r0, lsl #16
     96c:	f3000400 	vshl.u8	d0, d0, d0
     970:	009f5301 	addseq	r5, pc, r1, lsl #6
     974:	00000000 	andeq	r0, r0, r0
     978:	80000000 	andhi	r0, r0, r0
     97c:	9c000000 	stcls	0, cr0, [r0], {-0}
     980:	02000000 	andeq	r0, r0, #0
     984:	9c009100 	stflsd	f1, [r0], {-0}
     988:	d7000000 	strle	r0, [r0, -r0]
     98c:	01000001 	tsteq	r0, r1
     990:	01f85200 	mvnseq	r5, r0, lsl #4
     994:	01ff0000 	mvnseq	r0, r0
     998:	00010000 	andeq	r0, r1, r0
     99c:	00000052 	andeq	r0, r0, r2, asr r0
     9a0:	00000000 	andeq	r0, r0, r0
     9a4:	00009c00 	andeq	r9, r0, r0, lsl #24
     9a8:	00010c00 	andeq	r0, r1, r0, lsl #24
     9ac:	91000400 	tstls	r0, r0, lsl #8
     9b0:	0c9f7fa0 	ldceq	15, cr7, [pc], {160}	; 0xa0
     9b4:	18000001 	stmdane	r0, {r0}
     9b8:	01000001 	tsteq	r0, r1
     9bc:	01185100 	tsteq	r8, r0, lsl #2
     9c0:	011c0000 	tsteq	ip, r0
     9c4:	00010000 	andeq	r0, r1, r0
     9c8:	00011c50 	andeq	r1, r1, r0, asr ip
     9cc:	00012000 	andeq	r2, r1, r0
     9d0:	51000100 	mrspl	r0, (UNDEF: 16)
     9d4:	00000120 	andeq	r0, r0, r0, lsr #2
     9d8:	00000160 	andeq	r0, r0, r0, ror #2
     9dc:	60500001 	subsvs	r0, r0, r1
     9e0:	64000001 	strvs	r0, [r0], #-1
     9e4:	04000001 	streq	r0, [r0], #-1
     9e8:	7fa09100 	svcvc	0x00a09100
     9ec:	0001649f 	muleq	r1, pc, r4	; <UNPREDICTABLE>
     9f0:	00016c00 	andeq	r6, r1, r0, lsl #24
     9f4:	53000100 	movwpl	r0, #256	; 0x100
     9f8:	0000016c 	andeq	r0, r0, ip, ror #2
     9fc:	00000170 	andeq	r0, r0, r0, ror r1
     a00:	70500001 	subsvc	r0, r0, r1
     a04:	74000001 	strvc	r0, [r0], #-1
     a08:	01000001 	tsteq	r0, r1
     a0c:	01745300 	cmneq	r4, r0, lsl #6
     a10:	01880000 	orreq	r0, r8, r0
     a14:	00010000 	andeq	r0, r1, r0
     a18:	00018850 	andeq	r8, r1, r0, asr r8
     a1c:	00019400 	andeq	r9, r1, r0, lsl #8
     a20:	70000300 	andvc	r0, r0, r0, lsl #6
     a24:	01949f01 	orrseq	r9, r4, r1, lsl #30
     a28:	01a00000 	moveq	r0, r0
     a2c:	00010000 	andeq	r0, r1, r0
     a30:	0001a050 	andeq	sl, r1, r0, asr r0
     a34:	0001a800 	andeq	sl, r1, r0, lsl #16
     a38:	91000400 	tstls	r0, r0, lsl #8
     a3c:	a89f7fa1 	ldmge	pc, {r0, r5, r7, r8, r9, sl, fp, ip, sp, lr}	; <UNPREDICTABLE>
     a40:	ac000001 	stcge	0, cr0, [r0], {1}
     a44:	01000001 	tsteq	r0, r1
     a48:	01ac5000 			; <UNDEFINED> instruction: 0x01ac5000
     a4c:	01b00000 	movseq	r0, r0
     a50:	00040000 	andeq	r0, r4, r0
     a54:	9f7fa091 	svcls	0x007fa091
     a58:	000001b0 			; <UNDEFINED> instruction: 0x000001b0
     a5c:	000001b8 			; <UNDEFINED> instruction: 0x000001b8
     a60:	b8530001 	ldmdalt	r3, {r0}^
     a64:	d4000001 	strle	r0, [r0], #-1
     a68:	01000001 	tsteq	r0, r1
     a6c:	01d45000 	bicseq	r5, r4, r0
     a70:	01f80000 	mvnseq	r0, r0
     a74:	00040000 	andeq	r0, r4, r0
     a78:	9f7fa091 	svcls	0x007fa091
     a7c:	000001f8 	strdeq	r0, [r0], -r8
     a80:	000001ff 	strdeq	r0, [r0], -pc	; <UNPREDICTABLE>
     a84:	00500001 	subseq	r0, r0, r1
     a88:	00000000 	andeq	r0, r0, r0
     a8c:	a0000000 	andge	r0, r0, r0
     a90:	ec000000 	stc	0, cr0, [r0], {-0}
     a94:	01000000 	mrseq	r0, (UNDEF: 0)
     a98:	00ec5c00 	rsceq	r5, ip, r0, lsl #24
     a9c:	01000000 	mrseq	r0, (UNDEF: 0)
     aa0:	00010000 	andeq	r0, r1, r0
     aa4:	00010053 	andeq	r0, r1, r3, asr r0
     aa8:	00010400 	andeq	r0, r1, r0, lsl #8
     aac:	5c000100 	stfpls	f0, [r0], {-0}
     ab0:	00000104 	andeq	r0, r0, r4, lsl #2
     ab4:	00000108 	andeq	r0, r0, r8, lsl #2
     ab8:	08530001 	ldmdaeq	r3, {r0}^
     abc:	60000001 	andvs	r0, r0, r1
     ac0:	01000001 	tsteq	r0, r1
     ac4:	01605c00 	cmneq	r0, r0, lsl #24
     ac8:	01640000 	cmneq	r4, r0
     acc:	00010000 	andeq	r0, r1, r0
     ad0:	00016453 	andeq	r6, r1, r3, asr r4
     ad4:	00018000 	andeq	r8, r1, r0
     ad8:	5c000100 	stfpls	f0, [r0], {-0}
     adc:	00000180 	andeq	r0, r0, r0, lsl #3
     ae0:	00000184 	andeq	r0, r0, r4, lsl #3
     ae4:	007c0005 	rsbseq	r0, ip, r5
     ae8:	849f2534 	ldrhi	r2, [pc], #1332	; af0 <__code_start__-0x7510>
     aec:	a0000001 	andge	r0, r0, r1
     af0:	01000001 	tsteq	r0, r1
     af4:	01a05c00 	lsleq	r5, r0, #24
     af8:	01b00000 	movseq	r0, r0
     afc:	00010000 	andeq	r0, r1, r0
     b00:	0001b053 	andeq	fp, r1, r3, asr r0
     b04:	0001c400 	andeq	ip, r1, r0, lsl #8
     b08:	5c000100 	stfpls	f0, [r0], {-0}
     b0c:	000001c4 	andeq	r0, r0, r4, asr #3
     b10:	000001cc 	andeq	r0, r0, ip, asr #3
     b14:	007c0005 	rsbseq	r0, ip, r5
     b18:	cc9f2531 	cfldr32gt	mvfx2, [pc], {49}	; 0x31
     b1c:	d4000001 	strle	r0, [r0], #-1
     b20:	01000001 	tsteq	r0, r1
     b24:	01d45c00 	bicseq	r5, r4, r0, lsl #24
     b28:	01d70000 	bicseq	r0, r7, r0
     b2c:	00010000 	andeq	r0, r1, r0
     b30:	0001d753 	andeq	sp, r1, r3, asr r7
     b34:	0001f800 	andeq	pc, r1, r0, lsl #16
     b38:	f3000400 	vshl.u8	d0, d0, d0
     b3c:	f89f5301 			; <UNDEFINED> instruction: 0xf89f5301
     b40:	ff000001 			; <UNDEFINED> instruction: 0xff000001
     b44:	01000001 	tsteq	r0, r1
     b48:	00005c00 	andeq	r5, r0, r0, lsl #24
     b4c:	00000000 	andeq	r0, r0, r0
     b50:	00ec0000 	rsceq	r0, ip, r0
     b54:	00fc0000 	rscseq	r0, ip, r0
     b58:	00020000 	andeq	r0, r2, r0
     b5c:	00fc9f30 	rscseq	r9, ip, r0, lsr pc
     b60:	01040000 	mrseq	r0, (UNDEF: 4)
     b64:	00020000 	andeq	r0, r2, r0
     b68:	01049f31 	tsteq	r4, r1, lsr pc
     b6c:	01080000 	mrseq	r0, (UNDEF: 8)
     b70:	00020000 	andeq	r0, r2, r0
     b74:	00009f30 	andeq	r9, r0, r0, lsr pc
     b78:	00000000 	andeq	r0, r0, r0
     b7c:	023c0000 	eorseq	r0, ip, #0
     b80:	024f0000 	subeq	r0, pc, #0
     b84:	00010000 	andeq	r0, r1, r0
     b88:	00024f50 	andeq	r4, r2, r0, asr pc
     b8c:	00027000 	andeq	r7, r2, r0
     b90:	f3000400 	vshl.u8	d0, d0, d0
     b94:	709f5001 	addsvc	r5, pc, r1
     b98:	a4000002 	strge	r0, [r0], #-2
     b9c:	01000002 	tsteq	r0, r2
     ba0:	00005000 	andeq	r5, r0, r0
     ba4:	00000000 	andeq	r0, r0, r0
     ba8:	023c0000 	eorseq	r0, ip, #0
     bac:	024f0000 	subeq	r0, pc, #0
     bb0:	00010000 	andeq	r0, r1, r0
     bb4:	00024f51 	andeq	r4, r2, r1, asr pc
     bb8:	00027000 	andeq	r7, r2, r0
     bbc:	f3000400 	vshl.u8	d0, d0, d0
     bc0:	709f5101 	addsvc	r5, pc, r1, lsl #2
     bc4:	a4000002 	strge	r0, [r0], #-2
     bc8:	01000002 	tsteq	r0, r2
     bcc:	00005100 	andeq	r5, r0, r0, lsl #2
     bd0:	00000000 	andeq	r0, r0, r0
     bd4:	02a40000 	adceq	r0, r4, #0
     bd8:	02d40000 	sbcseq	r0, r4, #0
     bdc:	00010000 	andeq	r0, r1, r0
     be0:	0002d450 	andeq	sp, r2, r0, asr r4
     be4:	00055800 	andeq	r5, r5, r0, lsl #16
     be8:	5b000100 	blpl	ff0 <__code_start__-0x7010>
     bec:	00000558 	andeq	r0, r0, r8, asr r5
     bf0:	00000578 	andeq	r0, r0, r8, ror r5
     bf4:	01f30004 	mvnseq	r0, r4
     bf8:	00009f50 	andeq	r9, r0, r0, asr pc
     bfc:	00000000 	andeq	r0, r0, r0
     c00:	02a40000 	adceq	r0, r4, #0
     c04:	02bc0000 	adcseq	r0, ip, #0
     c08:	00010000 	andeq	r0, r1, r0
     c0c:	0002bc51 	andeq	fp, r2, r1, asr ip
     c10:	0002d400 	andeq	sp, r2, r0, lsl #8
     c14:	71000300 	mrsvc	r0, LR_irq
     c18:	02d49f01 	sbcseq	r9, r4, #1, 30
     c1c:	05780000 	ldrbeq	r0, [r8, #-0]!
     c20:	00040000 	andeq	r0, r4, r0
     c24:	9f5101f3 	svcls	0x005101f3
	...
     c30:	000002a4 	andeq	r0, r0, r4, lsr #5
     c34:	000002d4 	ldrdeq	r0, [r0], -r4
     c38:	d4520001 	ldrble	r0, [r2], #-1
     c3c:	58000002 	stmdapl	r0, {r1}
     c40:	01000005 	tsteq	r0, r5
     c44:	00005600 	andeq	r5, r0, r0, lsl #12
     c48:	00000000 	andeq	r0, r0, r0
     c4c:	02a40000 	adceq	r0, r4, #0
     c50:	02c40000 	sbceq	r0, r4, #0
     c54:	00010000 	andeq	r0, r1, r0
     c58:	00000053 	andeq	r0, r0, r3, asr r0
     c5c:	00000000 	andeq	r0, r0, r0
     c60:	0002b800 	andeq	fp, r2, r0, lsl #16
     c64:	0002d400 	andeq	sp, r2, r0, lsl #8
     c68:	50000100 	andpl	r0, r0, r0, lsl #2
     c6c:	000002d4 	ldrdeq	r0, [r0], -r4
     c70:	000002d8 	ldrdeq	r0, [r0], -r8
     c74:	d8540001 	ldmdale	r4, {r0}^
     c78:	e4000002 	str	r0, [r0], #-2
     c7c:	03000002 	movweq	r0, #2
     c80:	9f017400 	svcls	0x00017400
     c84:	000002e4 	andeq	r0, r0, r4, ror #5
     c88:	000002f0 	strdeq	r0, [r0], -r0	; <UNPREDICTABLE>
     c8c:	f0540001 			; <UNDEFINED> instruction: 0xf0540001
     c90:	fc000002 	stc2	0, cr0, [r0], {2}
     c94:	03000002 	movweq	r0, #2
     c98:	9f017400 	svcls	0x00017400
     c9c:	000002fc 	strdeq	r0, [r0], -ip
     ca0:	0000050c 	andeq	r0, r0, ip, lsl #10
     ca4:	0c540001 	mrrceq	0, 0, r0, r4, cr1
     ca8:	18000005 	stmdane	r0, {r0, r2}
     cac:	03000005 	movweq	r0, #5
     cb0:	9f017400 	svcls	0x00017400
     cb4:	00000518 	andeq	r0, r0, r8, lsl r5
     cb8:	00000544 	andeq	r0, r0, r4, asr #10
     cbc:	44540001 	ldrbmi	r0, [r4], #-1
     cc0:	50000005 	andpl	r0, r0, r5
     cc4:	01000005 	tsteq	r0, r5
     cc8:	05505000 	ldrbeq	r5, [r0, #-0]
     ccc:	05580000 	ldrbeq	r0, [r8, #-0]
     cd0:	00030000 	andeq	r0, r3, r0
     cd4:	009f0174 	addseq	r0, pc, r4, ror r1	; <UNPREDICTABLE>
     cd8:	00000000 	andeq	r0, r0, r0
     cdc:	c0000000 	andgt	r0, r0, r0
     ce0:	58000002 	stmdapl	r0, {r1}
     ce4:	01000005 	tsteq	r0, r5
     ce8:	05585800 	ldrbeq	r5, [r8, #-2048]	; 0x800
     cec:	05780000 	ldrbeq	r0, [r8, #-0]!
     cf0:	000a0000 	andeq	r0, sl, r0
     cf4:	f35101f3 	vbsl	q8, <illegal reg q8.5>, <illegal reg q9.5>
     cf8:	31225001 	teqcc	r2, r1
     cfc:	00009f1c 	andeq	r9, r0, ip, lsl pc
     d00:	00000000 	andeq	r0, r0, r0
     d04:	02c80000 	sbceq	r0, r8, #0
     d08:	02d40000 	sbcseq	r0, r4, #0
     d0c:	00010000 	andeq	r0, r1, r0
     d10:	0002d452 	andeq	sp, r2, r2, asr r4
     d14:	00057800 	andeq	r7, r5, r0, lsl #16
     d18:	91000300 	mrsls	r0, LR_irq
     d1c:	00007ecc 	andeq	r7, r0, ip, asr #29
     d20:	00000000 	andeq	r0, r0, r0
     d24:	04100000 	ldreq	r0, [r0], #-0
     d28:	04140000 	ldreq	r0, [r4], #-0
     d2c:	00010000 	andeq	r0, r1, r0
     d30:	00043850 	andeq	r3, r4, r0, asr r8
     d34:	00043c00 	andeq	r3, r4, r0, lsl #24
     d38:	50000100 	andpl	r0, r0, r0, lsl #2
     d3c:	00000460 	andeq	r0, r0, r0, ror #8
     d40:	00000464 	andeq	r0, r0, r4, ror #8
     d44:	88500001 	ldmdahi	r0, {r0}^
     d48:	8c000004 	stchi	0, cr0, [r0], {4}
     d4c:	01000004 	tsteq	r0, r4
     d50:	04945000 	ldreq	r5, [r4], #0
     d54:	04980000 	ldreq	r0, [r8], #0
     d58:	00010000 	andeq	r0, r1, r0
     d5c:	0004bc50 	andeq	fp, r4, r0, asr ip
     d60:	0004c000 	andeq	ip, r4, r0
     d64:	50000100 	andpl	r0, r0, r0, lsl #2
     d68:	00000504 	andeq	r0, r0, r4, lsl #10
     d6c:	0000052c 	andeq	r0, r0, ip, lsr #10
     d70:	00500001 	subseq	r0, r0, r1
     d74:	00000000 	andeq	r0, r0, r0
     d78:	04000000 	streq	r0, [r0], #-0
     d7c:	0c000003 	stceq	0, cr0, [r0], {3}
     d80:	02000003 	andeq	r0, r0, #3
     d84:	0c9f3000 	ldceq	0, cr3, [pc], {0}
     d88:	10000003 	andne	r0, r0, r3
     d8c:	01000003 	tsteq	r0, r3
     d90:	031c5700 	tsteq	ip, #0, 14
     d94:	052c0000 	streq	r0, [ip, #-0]!
     d98:	00010000 	andeq	r0, r1, r0
     d9c:	00000057 	andeq	r0, r0, r7, asr r0
     da0:	00000000 	andeq	r0, r0, r0
     da4:	00000400 	andeq	r0, r0, r0, lsl #8
     da8:	00000800 	andeq	r0, r0, r0, lsl #16
     dac:	73000700 	movwvc	r0, #1792	; 0x700
     db0:	10000a00 	andne	r0, r0, r0, lsl #20
     db4:	00089f21 	andeq	r9, r8, r1, lsr #30
     db8:	00100000 	andseq	r0, r0, r0
     dbc:	00010000 	andeq	r0, r1, r0
     dc0:	00000053 	andeq	r0, r0, r3, asr r0
     dc4:	00000000 	andeq	r0, r0, r0
     dc8:	00001400 	andeq	r1, r0, r0, lsl #8
     dcc:	00001800 	andeq	r1, r0, r0, lsl #16
     dd0:	73000700 	movwvc	r0, #1792	; 0x700
     dd4:	efff0b00 	svc	0x00ff0b00
     dd8:	00189f1a 	andseq	r9, r8, sl, lsl pc
     ddc:	00200000 	eoreq	r0, r0, r0
     de0:	00010000 	andeq	r0, r1, r0
     de4:	00000053 	andeq	r0, r0, r3, asr r0
     de8:	00000000 	andeq	r0, r0, r0
     dec:	00001400 	andeq	r1, r0, r0, lsl #8
     df0:	00001c00 	andeq	r1, r0, r0, lsl #24
     df4:	73000300 	movwvc	r0, #768	; 0x300
     df8:	001c9f04 	andseq	r9, ip, r4, lsl #30
     dfc:	00270000 	eoreq	r0, r7, r0
     e00:	00010000 	andeq	r0, r1, r0
     e04:	00000053 	andeq	r0, r0, r3, asr r0
	...
     e10:	00000f00 	andeq	r0, r0, r0, lsl #30
     e14:	50000100 	andpl	r0, r0, r0, lsl #2
     e18:	0000000f 	andeq	r0, r0, pc
     e1c:	00000044 	andeq	r0, r0, r4, asr #32
     e20:	00540001 	subseq	r0, r4, r1
	...
     e2c:	0f000000 	svceq	0x00000000
     e30:	01000000 	mrseq	r0, (UNDEF: 0)
     e34:	000f5000 	andeq	r5, pc, r0
     e38:	00440000 	subeq	r0, r4, r0
     e3c:	00010000 	andeq	r0, r1, r0
     e40:	00000054 	andeq	r0, r0, r4, asr r0
	...
     e4c:	00000f00 	andeq	r0, r0, r0, lsl #30
     e50:	50000100 	andpl	r0, r0, r0, lsl #2
     e54:	0000000f 	andeq	r0, r0, pc
     e58:	00000044 	andeq	r0, r0, r4, asr #32
     e5c:	00540001 	subseq	r0, r4, r1
     e60:	00000000 	andeq	r0, r0, r0
     e64:	34000000 	strcc	r0, [r0], #-0
     e68:	40000000 	andmi	r0, r0, r0
     e6c:	02000000 	andeq	r0, r0, #0
     e70:	409f3000 	addsmi	r3, pc, r0
     e74:	6c000000 	stcvs	0, cr0, [r0], {-0}
     e78:	01000000 	mrseq	r0, (UNDEF: 0)
     e7c:	00005300 	andeq	r5, r0, r0, lsl #6
     e80:	00000000 	andeq	r0, r0, r0
     e84:	918c0000 	orrls	r0, ip, r0
     e88:	91900000 	orrsls	r0, r0, r0
     e8c:	00020000 	andeq	r0, r2, r0
     e90:	91909f30 	orrsls	r9, r0, r0, lsr pc
     e94:	91940000 	orrsls	r0, r4, r0
     e98:	00010000 	andeq	r0, r1, r0
     e9c:	00000050 	andeq	r0, r0, r0, asr r0
     ea0:	00000000 	andeq	r0, r0, r0
     ea4:	0091a400 	addseq	sl, r1, r0, lsl #8
     ea8:	0091a800 	addseq	sl, r1, r0, lsl #16
     eac:	30000200 	andcc	r0, r0, r0, lsl #4
     eb0:	0091a89f 	umullseq	sl, r1, pc, r8	; <UNPREDICTABLE>
     eb4:	0091ac00 	addseq	sl, r1, r0, lsl #24
     eb8:	53000100 	movwpl	r0, #256	; 0x100
     ebc:	000091b0 			; <UNDEFINED> instruction: 0x000091b0
     ec0:	000091b8 			; <UNDEFINED> instruction: 0x000091b8
     ec4:	00530001 	subseq	r0, r3, r1
	...
     ed0:	04000000 	streq	r0, [r0], #-0
     ed4:	01000000 	mrseq	r0, (UNDEF: 0)
     ed8:	00045000 	andeq	r5, r4, r0
     edc:	000c0000 	andeq	r0, ip, r0
     ee0:	00010000 	andeq	r0, r1, r0
     ee4:	00000c53 	andeq	r0, r0, r3, asr ip
     ee8:	00001000 	andeq	r1, r0, r0
     eec:	50000100 	andpl	r0, r0, r0, lsl #2
     ef0:	00000010 	andeq	r0, r0, r0, lsl r0
     ef4:	0000001c 	andeq	r0, r0, ip, lsl r0
     ef8:	00530001 	subseq	r0, r3, r1
     efc:	00000000 	andeq	r0, r0, r0
     f00:	40000000 	andmi	r0, r0, r0
     f04:	43000000 	movwmi	r0, #0
     f08:	01000000 	mrseq	r0, (UNDEF: 0)
     f0c:	00435000 	subeq	r5, r3, r0
     f10:	004c0000 	subeq	r0, ip, r0
     f14:	00010000 	andeq	r0, r1, r0
     f18:	00000054 	andeq	r0, r0, r4, asr r0
     f1c:	00000000 	andeq	r0, r0, r0
     f20:	00004c00 	andeq	r4, r0, r0, lsl #24
     f24:	00005700 	andeq	r5, r0, r0, lsl #14
     f28:	50000100 	andpl	r0, r0, r0, lsl #2
     f2c:	00000057 	andeq	r0, r0, r7, asr r0
     f30:	00000070 	andeq	r0, r0, r0, ror r0
     f34:	00550001 	subseq	r0, r5, r1
     f38:	00000000 	andeq	r0, r0, r0
     f3c:	60000000 	andvs	r0, r0, r0
     f40:	64000000 	strvs	r0, [r0], #-0
     f44:	01000000 	mrseq	r0, (UNDEF: 0)
     f48:	00005000 	andeq	r5, r0, r0
     f4c:	00000000 	andeq	r0, r0, r0
     f50:	00700000 	rsbseq	r0, r0, r0
     f54:	007c0000 	rsbseq	r0, ip, r0
     f58:	00010000 	andeq	r0, r1, r0
     f5c:	00007c50 	andeq	r7, r0, r0, asr ip
     f60:	00008400 	andeq	r8, r0, r0, lsl #8
     f64:	f3000400 	vshl.u8	d0, d0, d0
     f68:	009f5001 	addseq	r5, pc, r1
     f6c:	00000000 	andeq	r0, r0, r0
     f70:	84000000 	strhi	r0, [r0], #-0
     f74:	90000000 	andls	r0, r0, r0
     f78:	01000000 	mrseq	r0, (UNDEF: 0)
     f7c:	00905000 	addseq	r5, r0, r0
     f80:	00980000 	addseq	r0, r8, r0
     f84:	00040000 	andeq	r0, r4, r0
     f88:	9f5001f3 	svcls	0x005001f3
	...
     f94:	00000138 	andeq	r0, r0, r8, lsr r1
     f98:	00000143 	andeq	r0, r0, r3, asr #2
     f9c:	43500001 	cmpmi	r0, #1
     fa0:	68000001 	stmdavs	r0, {r0}
     fa4:	01000001 	tsteq	r0, r1
     fa8:	00005400 	andeq	r5, r0, r0, lsl #8
	...
     fb4:	000f0000 	andeq	r0, pc, r0
     fb8:	00010000 	andeq	r0, r1, r0
     fbc:	00000f50 	andeq	r0, r0, r0, asr pc
     fc0:	00002000 	andeq	r2, r0, r0
     fc4:	54000100 	strpl	r0, [r0], #-256	; 0x100
	...
     fd4:	0000000f 	andeq	r0, r0, pc
     fd8:	0f510001 	svceq	0x00510001
     fdc:	20000000 	andcs	r0, r0, r0
     fe0:	01000000 	mrseq	r0, (UNDEF: 0)
     fe4:	00005500 	andeq	r5, r0, r0, lsl #10
     fe8:	00000000 	andeq	r0, r0, r0
     fec:	00ec0000 	rsceq	r0, ip, r0
     ff0:	01040000 	mrseq	r0, (UNDEF: 4)
     ff4:	00010000 	andeq	r0, r1, r0
     ff8:	00010450 	andeq	r0, r1, r0, asr r4
     ffc:	00011400 	andeq	r1, r1, r0, lsl #8
    1000:	f3000400 	vshl.u8	d0, d0, d0
    1004:	149f5001 	ldrne	r5, [pc], #1	; 100c <__code_start__-0x6ff4>
    1008:	18000001 	stmdane	r0, {r0}
    100c:	01000001 	tsteq	r0, r1
    1010:	01185000 	tsteq	r8, r0
    1014:	01200000 	teqeq	r0, r0
    1018:	00040000 	andeq	r0, r4, r0
    101c:	9f5001f3 	svcls	0x005001f3
	...
    1028:	000000f8 	strdeq	r0, [r0], -r8
    102c:	00000104 	andeq	r0, r0, r4, lsl #2
    1030:	0070000b 	rsbseq	r0, r0, fp
    1034:	b4232535 	strtlt	r2, [r3], #-1333	; 0x535
    1038:	02818080 	addeq	r8, r1, #128	; 0x80
    103c:	0001049f 	muleq	r1, pc, r4	; <UNPREDICTABLE>
    1040:	00010700 	andeq	r0, r1, r0, lsl #14
    1044:	50000100 	andpl	r0, r0, r0, lsl #2
    1048:	00000107 	andeq	r0, r0, r7, lsl #2
    104c:	00000114 	andeq	r0, r0, r4, lsl r1
    1050:	01f3000c 	mvnseq	r0, ip
    1054:	23253550 	teqcs	r5, #80, 10	; 0x14000000
    1058:	818080b4 	strhhi	r8, [r0, r4]
    105c:	00009f02 	andeq	r9, r0, r2, lsl #30
    1060:	00000000 	andeq	r0, r0, r0
    1064:	00fc0000 	rscseq	r0, ip, r0
    1068:	01140000 	tsteq	r4, r0
    106c:	00010000 	andeq	r0, r1, r0
    1070:	00000054 	andeq	r0, r0, r4, asr r0
    1074:	00000000 	andeq	r0, r0, r0
    1078:	0000d000 	andeq	sp, r0, r0
    107c:	0000df00 	andeq	sp, r0, r0, lsl #30
    1080:	50000100 	andpl	r0, r0, r0, lsl #2
    1084:	000000df 	ldrdeq	r0, [r0], -pc	; <UNPREDICTABLE>
    1088:	000000e4 	andeq	r0, r0, r4, ror #1
    108c:	01f30004 	mvnseq	r0, r4
    1090:	00e49f50 	rsceq	r9, r4, r0, asr pc
    1094:	00e70000 	rsceq	r0, r7, r0
    1098:	00010000 	andeq	r0, r1, r0
    109c:	0000e750 	andeq	lr, r0, r0, asr r7
    10a0:	0000ec00 	andeq	lr, r0, r0, lsl #24
    10a4:	f3000400 	vshl.u8	d0, d0, d0
    10a8:	009f5001 	addseq	r5, pc, r1
    10ac:	00000000 	andeq	r0, r0, r0
    10b0:	d0000000 	andle	r0, r0, r0
    10b4:	df000000 	svcle	0x00000000
    10b8:	01000000 	mrseq	r0, (UNDEF: 0)
    10bc:	00df5100 	sbcseq	r5, pc, r0, lsl #2
    10c0:	00e40000 	rsceq	r0, r4, r0
    10c4:	00040000 	andeq	r0, r4, r0
    10c8:	9f5101f3 	svcls	0x005101f3
    10cc:	000000e4 	andeq	r0, r0, r4, ror #1
    10d0:	000000e7 	andeq	r0, r0, r7, ror #1
    10d4:	e7510001 	ldrb	r0, [r1, -r1]
    10d8:	ec000000 	stc	0, cr0, [r0], {-0}
    10dc:	04000000 	streq	r0, [r0], #-0
    10e0:	5101f300 	mrspl	pc, SP_irq	; <UNPREDICTABLE>
    10e4:	0000009f 	muleq	r0, pc, r0	; <UNPREDICTABLE>
    10e8:	00000000 	andeq	r0, r0, r0
    10ec:	0000c000 	andeq	ip, r0, r0
    10f0:	0000cb00 	andeq	ip, r0, r0, lsl #22
    10f4:	50000100 	andpl	r0, r0, r0, lsl #2
    10f8:	000000cb 	andeq	r0, r0, fp, asr #1
    10fc:	000000d0 	ldrdeq	r0, [r0], -r0	; <UNPREDICTABLE>
    1100:	01f30004 	mvnseq	r0, r4
    1104:	00009f50 	andeq	r9, r0, r0, asr pc
    1108:	00000000 	andeq	r0, r0, r0
    110c:	009c0000 	addseq	r0, ip, r0
    1110:	00b40000 	adcseq	r0, r4, r0
    1114:	00010000 	andeq	r0, r1, r0
    1118:	0000b450 	andeq	fp, r0, r0, asr r4
    111c:	0000c000 	andeq	ip, r0, r0
    1120:	f3000400 	vshl.u8	d0, d0, d0
    1124:	009f5001 	addseq	r5, pc, r1
    1128:	00000000 	andeq	r0, r0, r0
    112c:	78000000 	stmdavc	r0, {}	; <UNPREDICTABLE>
    1130:	90000000 	andls	r0, r0, r0
    1134:	01000000 	mrseq	r0, (UNDEF: 0)
    1138:	00905000 	addseq	r5, r0, r0
    113c:	009c0000 	addseq	r0, ip, r0
    1140:	00040000 	andeq	r0, r4, r0
    1144:	9f5001f3 	svcls	0x005001f3
	...
    1150:	00000068 	andeq	r0, r0, r8, rrx
    1154:	00000073 	andeq	r0, r0, r3, ror r0
    1158:	73500001 	cmpvc	r0, #1
    115c:	78000000 	stmdavc	r0, {}	; <UNPREDICTABLE>
    1160:	04000000 	streq	r0, [r0], #-0
    1164:	5001f300 	andpl	pc, r1, r0, lsl #6
    1168:	0000009f 	muleq	r0, pc, r0	; <UNPREDICTABLE>
	...
    1174:	00004800 	andeq	r4, r0, r0, lsl #16
    1178:	50000100 	andpl	r0, r0, r0, lsl #2
    117c:	00000048 	andeq	r0, r0, r8, asr #32
    1180:	00000068 	andeq	r0, r0, r8, rrx
    1184:	01f30004 	mvnseq	r0, r4
    1188:	00009f50 	andeq	r9, r0, r0, asr pc
	...
    1194:	004b0000 	subeq	r0, fp, r0
    1198:	00010000 	andeq	r0, r1, r0
    119c:	00004b51 	andeq	r4, r0, r1, asr fp
    11a0:	00006800 	andeq	r6, r0, r0, lsl #16
    11a4:	f3000400 	vshl.u8	d0, d0, d0
    11a8:	009f5101 	addseq	r5, pc, r1, lsl #2
    11ac:	00000000 	andeq	r0, r0, r0
    11b0:	4c000000 	stcmi	0, cr0, [r0], {-0}
    11b4:	54000000 	strpl	r0, [r0], #-0
    11b8:	01000000 	mrseq	r0, (UNDEF: 0)
    11bc:	00545000 	subseq	r5, r4, r0
    11c0:	00580000 	subseq	r0, r8, r0
    11c4:	00090000 	andeq	r0, r9, r0
    11c8:	00740075 	rsbseq	r0, r4, r5, ror r0
    11cc:	21007124 	tstcs	r0, r4, lsr #2
    11d0:	0000589f 	muleq	r0, pc, r8	; <UNPREDICTABLE>
    11d4:	00005f00 	andeq	r5, r0, r0, lsl #30
    11d8:	51000100 	mrspl	r0, (UNDEF: 16)
	...

Disassembly of section .debug_aranges:

00000000 <.debug_aranges>:
   0:	0000001c 	andeq	r0, r0, ip, lsl r0
   4:	00000002 	andeq	r0, r0, r2
   8:	00040000 	andeq	r0, r4, r0
   c:	00000000 	andeq	r0, r0, r0
  10:	00008020 	andeq	r8, r0, r0, lsr #32
  14:	000004fc 	strdeq	r0, [r0], -ip
	...
  20:	0000001c 	andeq	r0, r0, ip, lsl r0
  24:	0af40002 	beq	ffd00034 <__bss_end__+0xffcf600c>
  28:	00040000 	andeq	r0, r4, r0
  2c:	00000000 	andeq	r0, r0, r0
  30:	0000851c 	andeq	r8, r0, ip, lsl r5
  34:	00000354 	andeq	r0, r0, r4, asr r3
	...
  40:	0000001c 	andeq	r0, r0, ip, lsl r0
  44:	16e60002 	strbtne	r0, [r6], r2
  48:	00040000 	andeq	r0, r4, r0
  4c:	00000000 	andeq	r0, r0, r0
  50:	00008988 	andeq	r8, r0, r8, lsl #19
  54:	00000058 	andeq	r0, r0, r8, asr r0
	...
  60:	0000001c 	andeq	r0, r0, ip, lsl r0
  64:	187b0002 	ldmdane	fp!, {r1}^
  68:	00040000 	andeq	r0, r4, r0
  6c:	00000000 	andeq	r0, r0, r0
  70:	000089e0 	andeq	r8, r0, r0, ror #19
  74:	0000003c 	andeq	r0, r0, ip, lsr r0
	...
  80:	0000001c 	andeq	r0, r0, ip, lsl r0
  84:	19920002 	ldmibne	r2, {r1}
  88:	00040000 	andeq	r0, r4, r0
  8c:	00000000 	andeq	r0, r0, r0
  90:	00008a1c 	andeq	r8, r0, ip, lsl sl
  94:	00000034 	andeq	r0, r0, r4, lsr r0
	...
  a0:	0000001c 	andeq	r0, r0, ip, lsl r0
  a4:	1a840002 	bne	fe1000b4 <__bss_end__+0xfe0f608c>
  a8:	00040000 	andeq	r0, r4, r0
  ac:	00000000 	andeq	r0, r0, r0
  b0:	00008a50 	andeq	r8, r0, r0, asr sl
  b4:	00000578 	andeq	r0, r0, r8, ror r5
	...
  c0:	0000001c 	andeq	r0, r0, ip, lsl r0
  c4:	216d0002 	cmncs	sp, r2
  c8:	00040000 	andeq	r0, r4, r0
  cc:	00000000 	andeq	r0, r0, r0
  d0:	00008fc8 	andeq	r8, r0, r8, asr #31
  d4:	00000020 	andeq	r0, r0, r0, lsr #32
	...
  e0:	0000001c 	andeq	r0, r0, ip, lsl r0
  e4:	22290002 	eorcs	r0, r9, #2
  e8:	00040000 	andeq	r0, r4, r0
  ec:	00000000 	andeq	r0, r0, r0
  f0:	00008fe8 	andeq	r8, r0, r8, ror #31
  f4:	0000002c 	andeq	r0, r0, ip, lsr #32
	...
 100:	0000001c 	andeq	r0, r0, ip, lsl r0
 104:	233c0002 	teqcs	ip, #2
 108:	00040000 	andeq	r0, r4, r0
 10c:	00000000 	andeq	r0, r0, r0
 110:	00009014 	andeq	r9, r0, r4, lsl r0
 114:	00000038 	andeq	r0, r0, r8, lsr r0
	...
 120:	0000001c 	andeq	r0, r0, ip, lsl r0
 124:	244f0002 	strbcs	r0, [pc], #-2	; 12c <__code_start__-0x7ed4>
 128:	00040000 	andeq	r0, r4, r0
 12c:	00000000 	andeq	r0, r0, r0
 130:	0000904c 	andeq	r9, r0, ip, asr #32
 134:	00000044 	andeq	r0, r0, r4, asr #32
	...
 140:	0000001c 	andeq	r0, r0, ip, lsl r0
 144:	25910002 	ldrcs	r0, [r1, #2]
 148:	00040000 	andeq	r0, r4, r0
 14c:	00000000 	andeq	r0, r0, r0
 150:	00009090 	muleq	r0, r0, r0
 154:	00000044 	andeq	r0, r0, r4, asr #32
	...
 160:	0000001c 	andeq	r0, r0, ip, lsl r0
 164:	26d30002 	ldrbcs	r0, [r3], r2
 168:	00040000 	andeq	r0, r4, r0
 16c:	00000000 	andeq	r0, r0, r0
 170:	000090d4 	ldrdeq	r9, [r0], -r4
 174:	00000044 	andeq	r0, r0, r4, asr #32
	...
 180:	0000001c 	andeq	r0, r0, ip, lsl r0
 184:	28150002 	ldmdacs	r5, {r1}
 188:	00040000 	andeq	r0, r4, r0
 18c:	00000000 	andeq	r0, r0, r0
 190:	00009118 	andeq	r9, r0, r8, lsl r1
 194:	00000008 	andeq	r0, r0, r8
	...
 1a0:	0000001c 	andeq	r0, r0, ip, lsl r0
 1a4:	28b10002 	ldmcs	r1!, {r1}
 1a8:	00040000 	andeq	r0, r4, r0
 1ac:	00000000 	andeq	r0, r0, r0
 1b0:	00009120 	andeq	r9, r0, r0, lsr #2
 1b4:	0000006c 	andeq	r0, r0, ip, rrx
	...
 1c0:	0000001c 	andeq	r0, r0, ip, lsl r0
 1c4:	2a8c0002 	bcs	fe3001d4 <__bss_end__+0xfe2f61ac>
 1c8:	00040000 	andeq	r0, r4, r0
 1cc:	00000000 	andeq	r0, r0, r0
 1d0:	0000918c 	andeq	r9, r0, ip, lsl #3
 1d4:	00000074 	andeq	r0, r0, r4, ror r0
	...
 1e0:	0000001c 	andeq	r0, r0, ip, lsl r0
 1e4:	2c3d0002 	ldccs	0, cr0, [sp], #-8
 1e8:	00040000 	andeq	r0, r4, r0
 1ec:	00000000 	andeq	r0, r0, r0
 1f0:	00009200 	andeq	r9, r0, r0, lsl #4
 1f4:	00000098 	muleq	r0, r8, r0
	...
 200:	0000001c 	andeq	r0, r0, ip, lsl r0
 204:	2e380002 	cdpcs	0, 3, cr0, cr8, cr2, {0}
 208:	00040000 	andeq	r0, r4, r0
 20c:	00000000 	andeq	r0, r0, r0
 210:	000092fc 	strdeq	r9, [r0], -ip
 214:	00000178 	andeq	r0, r0, r8, ror r1
	...
 220:	0000001c 	andeq	r0, r0, ip, lsl r0
 224:	3b010002 	blcc	40234 <__bss_end__+0x3620c>
 228:	00040000 	andeq	r0, r4, r0
 22c:	00000000 	andeq	r0, r0, r0
 230:	00009474 	andeq	r9, r0, r4, ror r4
 234:	00000120 	andeq	r0, r0, r0, lsr #2
	...

Disassembly of section .debug_ranges:

00000000 <.debug_ranges>:
   0:	00000194 	muleq	r0, r4, r1
   4:	000001a8 	andeq	r0, r0, r8, lsr #3
   8:	000001ac 	andeq	r0, r0, ip, lsr #3
   c:	000001bc 			; <UNDEFINED> instruction: 0x000001bc
	...
  18:	0000918c 	andeq	r9, r0, ip, lsl #3
  1c:	00009200 	andeq	r9, r0, r0, lsl #4
	...

Disassembly of section .debug_line:

00000000 <.debug_line>:
       0:	00000219 	andeq	r0, r0, r9, lsl r2
       4:	012b0002 	teqeq	fp, r2
       8:	01020000 	mrseq	r0, (UNDEF: 2)
       c:	000d0efb 	strdeq	r0, [sp], -fp
      10:	01010101 	tsteq	r1, r1, lsl #2
      14:	01000000 	mrseq	r0, (UNDEF: 0)
      18:	2e010000 	cdpcs	0, 0, cr0, cr1, cr0, {0}
      1c:	73657400 	cmnvc	r5, #0, 8
      20:	2f007374 	svccs	0x00007374
      24:	72657355 	rsbvc	r7, r5, #1409286145	; 0x54000001
      28:	72622f73 	rsbvc	r2, r2, #460	; 0x1cc
      2c:	6a6e6169 	bvs	1b985d8 <__bss_end__+0x1b8e5b0>
      30:	442f6e75 	strtmi	r6, [pc], #-3701	; 38 <__code_start__-0x7fc8>
      34:	746b7365 	strbtvc	r7, [fp], #-869	; 0x365
      38:	732f706f 	teqvc	pc, #111	; 0x6f
      3c:	6f6f6863 	svcvs	0x006f6863
      40:	70532f6c 	subsvc	r2, r3, ip, ror #30
      44:	676e6972 			; <UNDEFINED> instruction: 0x676e6972
      48:	30323931 	eorscc	r3, r2, r1, lsr r9
      4c:	3253432f 	subscc	r4, r3, #-1140850688	; 0xbc000000
      50:	584c3034 	stmdapl	ip, {r2, r4, r5, ip, sp}^
      54:	3273632f 	rsbscc	r6, r3, #-1140850688	; 0xbc000000
      58:	786c3034 	stmdavc	ip!, {r2, r4, r5, ip, sp}^
      5c:	7330322d 	teqvc	r0, #-805306366	; 0xd0000002
      60:	6c2f7270 	sfmvs	f7, 4, [pc], #-448	; fffffea8 <__bss_end__+0xffff5e80>
      64:	69706269 	ldmdbvs	r0!, {r0, r3, r5, r6, r9, sp, lr}^
      68:	636e692f 	cmnvs	lr, #770048	; 0xbc000
      6c:	6564756c 	strbvs	r7, [r4, #-1388]!	; 0x56c
      70:	73752f00 	cmnvc	r5, #0, 30
      74:	6f6c2f72 	svcvs	0x006c2f72
      78:	2f6c6163 	svccs	0x006c6163
      7c:	6c6c6543 	cfstr64vs	mvdx6, [ip], #-268	; 0xfffffef4
      80:	612f7261 	teqvs	pc, r1, ror #4
      84:	6e2d6d72 	mcrvs	13, 1, r6, cr13, cr2, {3}
      88:	2d656e6f 	stclcs	14, cr6, [r5, #-444]!	; 0xfffffe44
      8c:	69626165 	stmdbvs	r2!, {r0, r2, r5, r6, r8, sp, lr}^
      90:	382e342f 	stmdacc	lr!, {r0, r1, r2, r3, r5, sl, ip, sp}
      94:	632d332e 	teqvs	sp, #-1207959552	; 0xb8000000
      98:	30373173 	eorscc	r3, r7, r3, ror r1
      9c:	696c2f65 	stmdbvs	ip!, {r0, r2, r5, r6, r8, r9, sl, fp, sp}^
      a0:	63672f62 	cmnvs	r7, #392	; 0x188
      a4:	72612f63 	rsbvc	r2, r1, #396	; 0x18c
      a8:	6f6e2d6d 	svcvs	0x006e2d6d
      ac:	652d656e 	strvs	r6, [sp, #-1390]!	; 0x56e
      b0:	2f696261 	svccs	0x00696261
      b4:	2e382e34 	mrccs	14, 1, r2, cr8, cr4, {1}
      b8:	6e692f33 	mcrvs	15, 3, r2, cr9, cr3, {1}
      bc:	64756c63 	ldrbtvs	r6, [r5], #-3171	; 0xc63
      c0:	63000065 	movwvs	r0, #101	; 0x65
      c4:	2d727370 	ldclcs	3, cr7, [r2, #-448]!	; 0xfffffe40
      c8:	6c697475 	cfstrdvs	mvd7, [r9], #-468	; 0xfffffe2c
      cc:	0100682e 	tsteq	r0, lr, lsr #16
      d0:	69620000 	stmdbvs	r2!, {}^	; <UNPREDICTABLE>
      d4:	75732d74 	ldrbvc	r2, [r3, #-3444]!	; 0xd74
      d8:	726f7070 	rsbvc	r7, pc, #112	; 0x70
      dc:	00682e74 	rsbeq	r2, r8, r4, ror lr
      e0:	31000001 	tstcc	r0, r1
      e4:	61702d36 	cmnvs	r0, r6, lsr sp
      e8:	2d327472 	cfldrscs	mvf7, [r2, #-456]!	; 0xfffffe38
      ec:	74736574 	ldrbtvc	r6, [r3], #-1396	; 0x574
      f0:	00632e31 	rsbeq	r2, r3, r1, lsr lr
      f4:	63000002 	movwvs	r0, #2
      f8:	2d343170 	ldfcss	f3, [r4, #-448]!	; 0xfffffe40
      fc:	75626564 	strbvc	r6, [r2, #-1380]!	; 0x564
     100:	00682e67 	rsbeq	r2, r8, r7, ror #28
     104:	72000001 	andvc	r0, r0, #1
     108:	692d6970 	pushvs	{r4, r5, r6, r8, fp, sp, lr}
     10c:	7265746e 	rsbvc	r7, r5, #1845493760	; 0x6e000000
     110:	74707572 	ldrbtvc	r7, [r0], #-1394	; 0x572
     114:	00682e73 	rsbeq	r2, r8, r3, ror lr
     118:	73000003 	movwvc	r0, #3
     11c:	6e696474 	mcrvs	4, 3, r6, cr9, cr4, {3}
     120:	63672d74 	cmnvs	r7, #116, 26	; 0x1d00
     124:	00682e63 	rsbeq	r2, r8, r3, ror #28
     128:	72000004 	andvc	r0, r0, #4
     12c:	682e6970 	stmdavs	lr!, {r4, r5, r6, r8, fp, sp, lr}
     130:	00000300 	andeq	r0, r0, r0, lsl #6
     134:	02050000 	andeq	r0, r5, #0
     138:	00008020 	andeq	r8, r0, r0, lsr #32
     13c:	04011703 	streq	r1, [r1], #-1795	; 0x703
     140:	01046e02 	tsteq	r4, r2, lsl #28
     144:	652e6c03 	strvs	r6, [lr, #-3075]!	; 0xc03
     148:	08250867 	stmdaeq	r5!, {r0, r1, r2, r5, r6, fp}
     14c:	15280260 	strne	r0, [r8, #-608]!	; 0x260
     150:	4b4b4b4b 	blmi	12d2e84 <__bss_end__+0x12c8e5c>
     154:	f279034b 	vcgt.s<illegal width 64>	q8, <illegal reg q4.5>, <illegal reg q5.5>
     158:	0304364b 	movweq	r3, #17995	; 0x464b
     15c:	c8086b03 	stmdagt	r8, {r0, r1, r8, r9, fp, sp, lr}
     160:	0402004b 	streq	r0, [r2], #-75	; 0x4b
     164:	00820601 	addeq	r0, r2, r1, lsl #12
     168:	06020402 	streq	r0, [r2], -r2, lsl #8
     16c:	02002208 	andeq	r2, r0, #8, 4	; 0x80000000
     170:	06650204 	strbteq	r0, [r5], -r4, lsl #4
     174:	002f0666 	eoreq	r0, pc, r6, ror #12
     178:	2d010402 	cfstrscs	mvf0, [r1, #-8]
     17c:	3f08674d 	svccc	0x0008674d
     180:	04020067 	streq	r0, [r2], #-103	; 0x67
     184:	04820601 	streq	r0, [r2], #1537	; 0x601
     188:	8e030604 	cfmadd32hi	mvax0, mvfx0, mvfx3, mvfx4
     18c:	0433f201 	ldrteq	pc, [r3], #-513	; 0x201	; <UNPREDICTABLE>
     190:	7eef0303 	cdpvc	3, 14, cr0, cr15, cr3, {0}
     194:	83d84b2e 	bicshi	r4, r8, #47104	; 0xb800
     198:	01040200 	mrseq	r0, R12_usr
     19c:	08069e06 	stmdaeq	r6, {r1, r2, r9, sl, fp, ip, pc}
     1a0:	00688321 	rsbeq	r8, r8, r1, lsr #6
     1a4:	06010402 	streq	r0, [r1], -r2, lsl #8
     1a8:	67bb0682 	ldrvs	r0, [fp, r2, lsl #13]!
     1ac:	01040200 	mrseq	r0, R12_usr
     1b0:	bc068206 	sfmlt	f0, 1, [r6], {6}
     1b4:	4b142202 	blmi	5089c4 <__bss_end__+0x4fe99c>
     1b8:	03040431 	movweq	r0, #17457	; 0x4431
     1bc:	042e0197 	strteq	r0, [lr], #-407	; 0x197
     1c0:	7ee50305 	cdpvc	3, 14, cr0, cr5, cr5, {0}
     1c4:	03030466 	movweq	r0, #13414	; 0x3466
     1c8:	00bd2e09 	adcseq	r2, sp, r9, lsl #28
     1cc:	06010402 	streq	r0, [r1], -r2, lsl #8
     1d0:	679f0666 	ldrvs	r0, [pc, r6, ror #12]
     1d4:	01040200 	mrseq	r0, R12_usr
     1d8:	04048206 	streq	r8, [r4], #-518	; 0x206
     1dc:	018d0306 	orreq	r0, sp, r6, lsl #6
     1e0:	0303049e 	movweq	r0, #13470	; 0x349e
     1e4:	04667ef7 	strbteq	r7, [r6], #-3831	; 0xef7
     1e8:	4a710302 	bmi	1c40df8 <__bss_end__+0x1c36dd0>
     1ec:	10030304 	andne	r0, r3, r4, lsl #6
     1f0:	0504692e 	streq	r6, [r4, #-2350]	; 0x92e
     1f4:	04ba6a03 	ldrteq	r6, [sl], #2563	; 0xa03
     1f8:	4a180303 	bmi	600e0c <__bss_end__+0x5f6de4>
     1fc:	68030504 	stmdavs	r3, {r2, r8, sl}
     200:	0303049e 	movweq	r0, #13470	; 0x349e
     204:	02002e1a 	andeq	r2, r0, #416	; 0x1a0
     208:	4a060104 	bmi	180620 <__bss_end__+0x1765f8>
     20c:	00210806 	eoreq	r0, r1, r6, lsl #16
     210:	06010402 	streq	r0, [r1], -r2, lsl #8
     214:	2308069e 	movwcs	r0, #34462	; 0x869e
     218:	01002c02 	tsteq	r0, r2, lsl #24
     21c:	0001e701 	andeq	lr, r1, r1, lsl #14
     220:	ff000200 			; <UNDEFINED> instruction: 0xff000200
     224:	02000000 	andeq	r0, r0, #0
     228:	0d0efb01 	vstreq	d15, [lr, #-4]
     22c:	01010100 	mrseq	r0, (UNDEF: 17)
     230:	00000001 	andeq	r0, r0, r1
     234:	01000001 	tsteq	r0, r1
     238:	7273752f 	rsbsvc	r7, r3, #197132288	; 0xbc00000
     23c:	636f6c2f 	cmnvs	pc, #12032	; 0x2f00
     240:	432f6c61 	teqmi	pc, #24832	; 0x6100
     244:	616c6c65 	cmnvs	ip, r5, ror #24
     248:	72612f72 	rsbvc	r2, r1, #456	; 0x1c8
     24c:	6f6e2d6d 	svcvs	0x006e2d6d
     250:	652d656e 	strvs	r6, [sp, #-1390]!	; 0x56e
     254:	2f696261 	svccs	0x00696261
     258:	2e382e34 	mrccs	14, 1, r2, cr8, cr4, {1}
     25c:	73632d33 	cmnvc	r3, #3264	; 0xcc0
     260:	65303731 	ldrvs	r3, [r0, #-1841]!	; 0x731
     264:	62696c2f 	rsbvs	r6, r9, #12032	; 0x2f00
     268:	6363672f 	cmnvs	r3, #12320768	; 0xbc0000
     26c:	6d72612f 	ldfvse	f6, [r2, #-188]!	; 0xffffff44
     270:	6e6f6e2d 	cdpvs	14, 6, cr6, cr15, cr13, {1}
     274:	61652d65 	cmnvs	r5, r5, ror #26
     278:	342f6962 	strtcc	r6, [pc], #-2402	; 280 <__code_start__-0x7d80>
     27c:	332e382e 	teqcc	lr, #3014656	; 0x2e0000
     280:	636e692f 	cmnvs	lr, #770048	; 0xbc000
     284:	6564756c 	strbvs	r7, [r4, #-1388]!	; 0x56c
     288:	73552f00 	cmpvc	r5, #0, 30
     28c:	2f737265 	svccs	0x00737265
     290:	61697262 	cmnvs	r9, r2, ror #4
     294:	6e756a6e 	vsubvs.f32	s13, s10, s29
     298:	7365442f 	cmnvc	r5, #788529152	; 0x2f000000
     29c:	706f746b 	rsbvc	r7, pc, fp, ror #8
     2a0:	6863732f 	stmdavs	r3!, {r0, r1, r2, r3, r5, r8, r9, ip, sp, lr}^
     2a4:	2f6c6f6f 	svccs	0x006c6f6f
     2a8:	69727053 	ldmdbvs	r2!, {r0, r1, r4, r6, ip, sp, lr}^
     2ac:	3931676e 	ldmdbcc	r1!, {r1, r2, r3, r5, r6, r8, r9, sl, sp, lr}
     2b0:	432f3032 	teqmi	pc, #50	; 0x32
     2b4:	30343253 	eorscc	r3, r4, r3, asr r2
     2b8:	632f584c 	teqvs	pc, #76, 16	; 0x4c0000
     2bc:	30343273 	eorscc	r3, r4, r3, ror r2
     2c0:	322d786c 	eorcc	r7, sp, #108, 16	; 0x6c0000
     2c4:	72707330 	rsbsvc	r7, r0, #48, 6	; 0xc0000000
     2c8:	62696c2f 	rsbvs	r6, r9, #12032	; 0x2f00
     2cc:	692f6970 	stmdbvs	pc!, {r4, r5, r6, r8, fp, sp, lr}	; <UNPREDICTABLE>
     2d0:	756c636e 	strbvc	r6, [ip, #-878]!	; 0x36e
     2d4:	00006564 	andeq	r6, r0, r4, ror #10
     2d8:	34317063 	ldrtcc	r7, [r1], #-99	; 0x63
     2dc:	6265642d 	rsbvs	r6, r5, #754974720	; 0x2d000000
     2e0:	632e6775 	teqvs	lr, #30670848	; 0x1d40000
     2e4:	00000000 	andeq	r0, r0, r0
     2e8:	34317063 	ldrtcc	r7, [r1], #-99	; 0x63
     2ec:	6265642d 	rsbvs	r6, r5, #754974720	; 0x2d000000
     2f0:	682e6775 	stmdavs	lr!, {r0, r2, r4, r5, r6, r8, r9, sl, sp, lr}
     2f4:	00000000 	andeq	r0, r0, r0
     2f8:	69647473 	stmdbvs	r4!, {r0, r1, r4, r5, r6, sl, ip, sp, lr}^
     2fc:	672d746e 	strvs	r7, [sp, -lr, ror #8]!
     300:	682e6363 	stmdavs	lr!, {r0, r1, r5, r6, r8, r9, sp, lr}
     304:	00000100 	andeq	r0, r0, r0, lsl #2
     308:	2e697072 	mcrcs	0, 3, r7, cr9, cr2, {3}
     30c:	00020068 	andeq	r0, r2, r8, rrx
     310:	69707200 	ldmdbvs	r0!, {r9, ip, sp, lr}^
     314:	746e692d 	strbtvc	r6, [lr], #-2349	; 0x92d
     318:	75727265 	ldrbvc	r7, [r2, #-613]!	; 0x265
     31c:	2e737470 	mrccs	4, 3, r7, cr3, cr0, {3}
     320:	00020068 	andeq	r0, r2, r8, rrx
     324:	05000000 	streq	r0, [r0, #-0]
     328:	00851c02 	addeq	r1, r5, r2, lsl #24
     32c:	01350300 	teqeq	r5, r0, lsl #6
     330:	034a6203 	movteq	r6, #41475	; 0xa203
     334:	62032e24 	andvs	r2, r3, #36, 28	; 0x240
     338:	2e7a032e 	cdpcs	3, 7, cr0, cr10, cr14, {1}
     33c:	002e2903 	eoreq	r2, lr, r3, lsl #18
     340:	06010402 	streq	r0, [r1], -r2, lsl #8
     344:	6503064a 	strvs	r0, [r3, #-1610]	; 0x64a
     348:	78032008 	stmdavc	r3, {r3, sp}
     34c:	4a7a032e 	bmi	1e8100c <__bss_end__+0x1e76fe4>
     350:	002e3a03 	eoreq	r3, lr, r3, lsl #20
     354:	06010402 	streq	r0, [r1], -r2, lsl #8
     358:	bb03064a 	bllt	c1c88 <__bss_end__+0xb7c60>
     35c:	0320087f 	teqeq	r0, #8323072	; 0x7f0000
     360:	4b4a00c8 	blmi	1280688 <__bss_end__+0x1276660>
     364:	6c0204f5 	cfstrsvs	mvf0, [r2], {245}	; 0xf5
     368:	344a1303 	strbcc	r1, [sl], #-771	; 0x303
     36c:	d65d034b 	ldrble	r0, [sp], -fp, asr #6
     370:	11030104 	tstne	r3, r4, lsl #2
     374:	0402002e 	streq	r0, [r2], #-46	; 0x2e
     378:	06660601 	strbteq	r0, [r6], -r1, lsl #12
     37c:	02002208 	andeq	r2, r0, #8, 4	; 0x80000000
     380:	82060104 	andhi	r0, r6, #4, 2
     384:	03060204 	movweq	r0, #25092	; 0x6204
     388:	0420087a 	strteq	r0, [r0], #-2170	; 0x87a
     38c:	2e0c0301 	cdpcs	3, 0, cr0, cr12, cr1, {0}
     390:	315a084b 	cmpcc	sl, fp, asr #16
     394:	bb032f83 	bllt	cc1a8 <__bss_end__+0xc2180>
     398:	5b03667f 	blpl	d9d9c <__bss_end__+0xcfd74>
     39c:	019b034a 	orrseq	r0, fp, sl, asr #6
     3a0:	01650382 	smulbbeq	r5, r2, r3
     3a4:	032e1f03 	teqeq	lr, #3, 30
     3a8:	302c2e62 	eorcc	r2, ip, r2, ror #28
     3ac:	4a7eff03 	bmi	1fbffc0 <__bss_end__+0x1fb5f98>
     3b0:	4a01b303 	bmi	6cfc4 <__bss_end__+0x62f9c>
     3b4:	030204a2 	movweq	r0, #9378	; 0x24a2
     3b8:	04336662 	ldrteq	r6, [r3], #-1634	; 0x662
     3bc:	2e1b0301 	cdpcs	3, 1, cr0, cr11, cr1, {0}
     3c0:	0200d74b 	andeq	sp, r0, #19660800	; 0x12c0000
     3c4:	82060104 	andhi	r0, r6, #4, 2
     3c8:	03060204 	movweq	r0, #25092	; 0x6204
     3cc:	0420084f 	strteq	r0, [r0], #-2127	; 0x84f
     3d0:	2e330301 	cdpcs	3, 3, cr0, cr3, cr1, {0}
     3d4:	0b03f44b 	bleq	fd508 <__bss_end__+0xf34e0>
     3d8:	082f012e 	stmdaeq	pc!, {r1, r2, r3, r5, r8}	; <UNPREDICTABLE>
     3dc:	7fb1033f 	svcvc	0x00b1033f
     3e0:	00d30301 	sbcseq	r0, r3, r1, lsl #6
     3e4:	7fae032e 	svcvc	0x00ae032e
     3e8:	03302c2e 	teqeq	r0, #11776	; 0x2e00
     3ec:	034a7eff 	movteq	r7, #44799	; 0xaeff
     3f0:	a24a01e7 	subge	r0, sl, #-1073741767	; 0xc0000039
     3f4:	017f9603 	cmneq	pc, r3, lsl #12
     3f8:	8200fb03 	andhi	pc, r0, #3072	; 0xc00
     3fc:	4b4b4b31 	blmi	12d30c8 <__bss_end__+0x12c90a0>
     400:	026a684b 	rsbeq	r6, sl, #4915200	; 0x4b0000
     404:	01010008 	tsteq	r1, r8
     408:	0000010c 	andeq	r0, r0, ip, lsl #2
     40c:	00f50002 	rscseq	r0, r5, r2
     410:	01020000 	mrseq	r0, (UNDEF: 2)
     414:	000d0efb 	strdeq	r0, [sp], -fp
     418:	01010101 	tsteq	r1, r1, lsl #2
     41c:	01000000 	mrseq	r0, (UNDEF: 0)
     420:	6c010000 	stcvs	0, cr0, [r1], {-0}
     424:	00636269 	rsbeq	r6, r3, r9, ror #4
     428:	7273752f 	rsbsvc	r7, r3, #197132288	; 0xbc00000
     42c:	636f6c2f 	cmnvs	pc, #12032	; 0x2f00
     430:	432f6c61 	teqmi	pc, #24832	; 0x6100
     434:	616c6c65 	cmnvs	ip, r5, ror #24
     438:	72612f72 	rsbvc	r2, r1, #456	; 0x1c8
     43c:	6f6e2d6d 	svcvs	0x006e2d6d
     440:	652d656e 	strvs	r6, [sp, #-1390]!	; 0x56e
     444:	2f696261 	svccs	0x00696261
     448:	2e382e34 	mrccs	14, 1, r2, cr8, cr4, {1}
     44c:	73632d33 	cmnvc	r3, #3264	; 0xcc0
     450:	65303731 	ldrvs	r3, [r0, #-1841]!	; 0x731
     454:	62696c2f 	rsbvs	r6, r9, #12032	; 0x2f00
     458:	6363672f 	cmnvs	r3, #12320768	; 0xbc0000
     45c:	6d72612f 	ldfvse	f6, [r2, #-188]!	; 0xffffff44
     460:	6e6f6e2d 	cdpvs	14, 6, cr6, cr15, cr13, {1}
     464:	61652d65 	cmnvs	r5, r5, ror #26
     468:	342f6962 	strtcc	r6, [pc], #-2402	; 470 <__code_start__-0x7b90>
     46c:	332e382e 	teqcc	lr, #3014656	; 0x2e0000
     470:	636e692f 	cmnvs	lr, #770048	; 0xbc000
     474:	6564756c 	strbvs	r7, [r4, #-1388]!	; 0x56c
     478:	73552f00 	cmpvc	r5, #0, 30
     47c:	2f737265 	svccs	0x00737265
     480:	61697262 	cmnvs	r9, r2, ror #4
     484:	6e756a6e 	vsubvs.f32	s13, s10, s29
     488:	7365442f 	cmnvc	r5, #788529152	; 0x2f000000
     48c:	706f746b 	rsbvc	r7, pc, fp, ror #8
     490:	6863732f 	stmdavs	r3!, {r0, r1, r2, r3, r5, r8, r9, ip, sp, lr}^
     494:	2f6c6f6f 	svccs	0x006c6f6f
     498:	69727053 	ldmdbvs	r2!, {r0, r1, r4, r6, ip, sp, lr}^
     49c:	3931676e 	ldmdbcc	r1!, {r1, r2, r3, r5, r6, r8, r9, sl, sp, lr}
     4a0:	432f3032 	teqmi	pc, #50	; 0x32
     4a4:	30343253 	eorscc	r3, r4, r3, asr r2
     4a8:	632f584c 	teqvs	pc, #76, 16	; 0x4c0000
     4ac:	30343273 	eorscc	r3, r4, r3, ror r2
     4b0:	322d786c 	eorcc	r7, sp, #108, 16	; 0x6c0000
     4b4:	72707330 	rsbsvc	r7, r0, #48, 6	; 0xc0000000
     4b8:	62696c2f 	rsbvs	r6, r9, #12032	; 0x2f00
     4bc:	692f6970 	stmdbvs	pc!, {r4, r5, r6, r8, fp, sp, lr}	; <UNPREDICTABLE>
     4c0:	756c636e 	strbvc	r6, [ip, #-878]!	; 0x36e
     4c4:	00006564 	andeq	r6, r0, r4, ror #10
     4c8:	6e697270 	mcrvs	2, 3, r7, cr9, cr0, {3}
     4cc:	632e6b74 	teqvs	lr, #116, 22	; 0x1d000
     4d0:	00000100 	andeq	r0, r0, r0, lsl #2
     4d4:	61647473 	smcvs	18243	; 0x4743
     4d8:	682e6772 	stmdavs	lr!, {r1, r4, r5, r6, r8, r9, sl, sp, lr}
     4dc:	00000200 	andeq	r0, r0, r0, lsl #4
     4e0:	6975623c 	ldmdbvs	r5!, {r2, r3, r4, r5, r9, sp, lr}^
     4e4:	692d746c 	pushvs	{r2, r3, r5, r6, sl, ip, sp, lr}
     4e8:	00003e6e 	andeq	r3, r0, lr, ror #28
     4ec:	70720000 	rsbsvc	r0, r2, r0
     4f0:	00682e69 	rsbeq	r2, r8, r9, ror #28
     4f4:	76000003 	strvc	r0, [r0], -r3
     4f8:	72702d61 	rsbsvc	r2, r0, #6208	; 0x1840
     4fc:	6b746e69 	blvs	1d1bea8 <__bss_end__+0x1d11e80>
     500:	0100682e 	tsteq	r0, lr, lsr #16
     504:	00000000 	andeq	r0, r0, r0
     508:	89880205 	stmibhi	r8, {r0, r2, r9}
     50c:	6b170000 	blvs	5c0514 <__bss_end__+0x5b64ec>
     510:	0289bf4b 	addeq	fp, r9, #300	; 0x12c
     514:	0101000e 	tsteq	r1, lr
     518:	00000094 	muleq	r0, r4, r0
     51c:	007c0002 	rsbseq	r0, ip, r2
     520:	01020000 	mrseq	r0, (UNDEF: 2)
     524:	000d0efb 	strdeq	r0, [sp], -fp
     528:	01010101 	tsteq	r1, r1, lsl #2
     52c:	01000000 	mrseq	r0, (UNDEF: 0)
     530:	6c010000 	stcvs	0, cr0, [r1], {-0}
     534:	00636269 	rsbeq	r6, r3, r9, ror #4
     538:	6573552f 	ldrbvs	r5, [r3, #-1327]!	; 0x52f
     53c:	622f7372 	eorvs	r7, pc, #-939524095	; 0xc8000001
     540:	6e616972 	mcrvs	9, 3, r6, cr1, cr2, {3}
     544:	2f6e756a 	svccs	0x006e756a
     548:	6b736544 	blvs	1cd9a60 <__bss_end__+0x1ccfa38>
     54c:	2f706f74 	svccs	0x00706f74
     550:	6f686373 	svcvs	0x00686373
     554:	532f6c6f 	teqpl	pc, #28416	; 0x6f00
     558:	6e697270 	mcrvs	2, 3, r7, cr9, cr0, {3}
     55c:	32393167 	eorscc	r3, r9, #-1073741799	; 0xc0000019
     560:	53432f30 	movtpl	r2, #16176	; 0x3f30
     564:	4c303432 	cfldrsmi	mvf3, [r0], #-200	; 0xffffff38
     568:	73632f58 	cmnvc	r3, #88, 30	; 0x160
     56c:	6c303432 	cfldrsvs	mvf3, [r0], #-200	; 0xffffff38
     570:	30322d78 	eorscc	r2, r2, r8, ror sp
     574:	2f727073 	svccs	0x00727073
     578:	7062696c 	rsbvc	r6, r2, ip, ror #18
     57c:	6e692f69 	cdpvs	15, 6, cr2, cr9, cr9, {3}
     580:	64756c63 	ldrbtvs	r6, [r5], #-3171	; 0xc63
     584:	70000065 	andvc	r0, r0, r5, rrx
     588:	68637475 	stmdavs	r3!, {r0, r2, r4, r5, r6, sl, ip, sp, lr}^
     58c:	632e7261 	teqvs	lr, #268435462	; 0x10000006
     590:	00000100 	andeq	r0, r0, r0, lsl #2
     594:	2e697072 	mcrcs	0, 3, r7, cr9, cr2, {3}
     598:	00020068 	andeq	r0, r2, r8, rrx
     59c:	05000000 	streq	r0, [r0, #-0]
     5a0:	0089e002 	addeq	lr, r9, r2
     5a4:	6b4a1400 	blvs	12855ac <__bss_end__+0x127b584>
     5a8:	0213bc13 	andseq	fp, r3, #4864	; 0x1300
     5ac:	01010008 	tsteq	r1, r8
     5b0:	000000a0 	andeq	r0, r0, r0, lsr #1
     5b4:	00790002 	rsbseq	r0, r9, r2
     5b8:	01020000 	mrseq	r0, (UNDEF: 2)
     5bc:	000d0efb 	strdeq	r0, [sp], -fp
     5c0:	01010101 	tsteq	r1, r1, lsl #2
     5c4:	01000000 	mrseq	r0, (UNDEF: 0)
     5c8:	6c010000 	stcvs	0, cr0, [r1], {-0}
     5cc:	00636269 	rsbeq	r6, r3, r9, ror #4
     5d0:	6573552f 	ldrbvs	r5, [r3, #-1327]!	; 0x52f
     5d4:	622f7372 	eorvs	r7, pc, #-939524095	; 0xc8000001
     5d8:	6e616972 	mcrvs	9, 3, r6, cr1, cr2, {3}
     5dc:	2f6e756a 	svccs	0x006e756a
     5e0:	6b736544 	blvs	1cd9af8 <__bss_end__+0x1ccfad0>
     5e4:	2f706f74 	svccs	0x00706f74
     5e8:	6f686373 	svcvs	0x00686373
     5ec:	532f6c6f 	teqpl	pc, #28416	; 0x6f00
     5f0:	6e697270 	mcrvs	2, 3, r7, cr9, cr0, {3}
     5f4:	32393167 	eorscc	r3, r9, #-1073741799	; 0xc0000019
     5f8:	53432f30 	movtpl	r2, #16176	; 0x3f30
     5fc:	4c303432 	cfldrsmi	mvf3, [r0], #-200	; 0xffffff38
     600:	73632f58 	cmnvc	r3, #88, 30	; 0x160
     604:	6c303432 	cfldrsvs	mvf3, [r0], #-200	; 0xffffff38
     608:	30322d78 	eorscc	r2, r2, r8, ror sp
     60c:	2f727073 	svccs	0x00727073
     610:	7062696c 	rsbvc	r6, r2, ip, ror #18
     614:	6e692f69 	cdpvs	15, 6, cr2, cr9, cr9, {3}
     618:	64756c63 	ldrbtvs	r6, [r5], #-3171	; 0xc63
     61c:	70000065 	andvc	r0, r0, r5, rrx
     620:	2e6b7475 	mcrcs	4, 3, r7, cr11, cr5, {3}
     624:	00010063 	andeq	r0, r1, r3, rrx
     628:	69707200 	ldmdbvs	r0!, {r9, ip, sp, lr}^
     62c:	0200682e 	andeq	r6, r0, #3014656	; 0x2e0000
     630:	00000000 	andeq	r0, r0, r0
     634:	8a1c0205 	bhi	700e50 <__bss_end__+0x6f6e28>
     638:	4c150000 	ldcmi	0, cr0, [r5], {-0}
     63c:	0402002d 	streq	r0, [r2], #-45	; 0x2d
     640:	02002f02 	andeq	r2, r0, #2, 30
     644:	00490204 	subeq	r0, r9, r4, lsl #4
     648:	06010402 	streq	r0, [r1], -r2, lsl #8
     64c:	026b062e 	rsbeq	r0, fp, #48234496	; 0x2e00000
     650:	01010006 	tsteq	r1, r6
     654:	000001f1 	strdeq	r0, [r0], -r1
     658:	00e90002 	rsceq	r0, r9, r2
     65c:	01020000 	mrseq	r0, (UNDEF: 2)
     660:	000d0efb 	strdeq	r0, [sp], -fp
     664:	01010101 	tsteq	r1, r1, lsl #2
     668:	01000000 	mrseq	r0, (UNDEF: 0)
     66c:	6c010000 	stcvs	0, cr0, [r1], {-0}
     670:	00636269 	rsbeq	r6, r3, r9, ror #4
     674:	7273752f 	rsbsvc	r7, r3, #197132288	; 0xbc00000
     678:	636f6c2f 	cmnvs	pc, #12032	; 0x2f00
     67c:	432f6c61 	teqmi	pc, #24832	; 0x6100
     680:	616c6c65 	cmnvs	ip, r5, ror #24
     684:	72612f72 	rsbvc	r2, r1, #456	; 0x1c8
     688:	6f6e2d6d 	svcvs	0x006e2d6d
     68c:	652d656e 	strvs	r6, [sp, #-1390]!	; 0x56e
     690:	2f696261 	svccs	0x00696261
     694:	2e382e34 	mrccs	14, 1, r2, cr8, cr4, {1}
     698:	73632d33 	cmnvc	r3, #3264	; 0xcc0
     69c:	65303731 	ldrvs	r3, [r0, #-1841]!	; 0x731
     6a0:	62696c2f 	rsbvs	r6, r9, #12032	; 0x2f00
     6a4:	6363672f 	cmnvs	r3, #12320768	; 0xbc0000
     6a8:	6d72612f 	ldfvse	f6, [r2, #-188]!	; 0xffffff44
     6ac:	6e6f6e2d 	cdpvs	14, 6, cr6, cr15, cr13, {1}
     6b0:	61652d65 	cmnvs	r5, r5, ror #26
     6b4:	342f6962 	strtcc	r6, [pc], #-2402	; 6bc <__code_start__-0x7944>
     6b8:	332e382e 	teqcc	lr, #3014656	; 0x2e0000
     6bc:	636e692f 	cmnvs	lr, #770048	; 0xbc000
     6c0:	6564756c 	strbvs	r7, [r4, #-1388]!	; 0x56c
     6c4:	73552f00 	cmpvc	r5, #0, 30
     6c8:	2f737265 	svccs	0x00737265
     6cc:	61697262 	cmnvs	r9, r2, ror #4
     6d0:	6e756a6e 	vsubvs.f32	s13, s10, s29
     6d4:	7365442f 	cmnvc	r5, #788529152	; 0x2f000000
     6d8:	706f746b 	rsbvc	r7, pc, fp, ror #8
     6dc:	6863732f 	stmdavs	r3!, {r0, r1, r2, r3, r5, r8, r9, ip, sp, lr}^
     6e0:	2f6c6f6f 	svccs	0x006c6f6f
     6e4:	69727053 	ldmdbvs	r2!, {r0, r1, r4, r6, ip, sp, lr}^
     6e8:	3931676e 	ldmdbcc	r1!, {r1, r2, r3, r5, r6, r8, r9, sl, sp, lr}
     6ec:	432f3032 	teqmi	pc, #50	; 0x32
     6f0:	30343253 	eorscc	r3, r4, r3, asr r2
     6f4:	632f584c 	teqvs	pc, #76, 16	; 0x4c0000
     6f8:	30343273 	eorscc	r3, r4, r3, ror r2
     6fc:	322d786c 	eorcc	r7, sp, #108, 16	; 0x6c0000
     700:	72707330 	rsbsvc	r7, r0, #48, 6	; 0xc0000000
     704:	62696c2f 	rsbvs	r6, r9, #12032	; 0x2f00
     708:	692f6970 	stmdbvs	pc!, {r4, r5, r6, r8, fp, sp, lr}	; <UNPREDICTABLE>
     70c:	756c636e 	strbvc	r6, [ip, #-878]!	; 0x36e
     710:	00006564 	andeq	r6, r0, r4, ror #10
     714:	702d6176 	eorvc	r6, sp, r6, ror r1
     718:	746e6972 	strbtvc	r6, [lr], #-2418	; 0x972
     71c:	00632e6b 	rsbeq	r2, r3, fp, ror #28
     720:	73000001 	movwvc	r0, #1
     724:	72616474 	rsbvc	r6, r1, #116, 8	; 0x74000000
     728:	00682e67 	rsbeq	r2, r8, r7, ror #28
     72c:	72000002 	andvc	r0, r0, #2
     730:	682e6970 	stmdavs	lr!, {r4, r5, r6, r8, fp, sp, lr}
     734:	00000300 	andeq	r0, r0, r0, lsl #6
     738:	6975623c 	ldmdbvs	r5!, {r2, r3, r4, r5, r9, sp, lr}^
     73c:	692d746c 	pushvs	{r2, r3, r5, r6, sl, ip, sp, lr}
     740:	00003e6e 	andeq	r3, r0, lr, ror #28
     744:	00000000 	andeq	r0, r0, r0
     748:	8a500205 	bhi	1400f64 <__bss_end__+0x13f6f3c>
     74c:	26030000 	strcs	r0, [r3], -r0
     750:	13a50101 			; <UNDEFINED> instruction: 0x13a50101
     754:	02002d31 	andeq	r2, r0, #3136	; 0xc40
     758:	002f0204 	eoreq	r0, pc, r4, lsl #4
     75c:	2d020402 	cfstrscs	mvf0, [r2, #-8]
     760:	02040200 	andeq	r0, r4, #0, 4
     764:	0402002f 	streq	r0, [r2], #-47	; 0x2f
     768:	4c4c2d01 	mcrrmi	13, 0, r2, ip, cr1
     76c:	2f4b1430 	svccs	0x004b1430
     770:	0402004f 	streq	r0, [r2], #-79	; 0x4f
     774:	02006702 	andeq	r6, r0, #524288	; 0x80000
     778:	4c650104 	stfmie	f0, [r5], #-16
     77c:	2fa0304d 	svccs	0x00a0304d
     780:	26023031 			; <UNDEFINED> instruction: 0x26023031
     784:	2c2d8416 	cfstrscs	mvf8, [sp], #-88	; 0xffffffa8
     788:	01040200 	mrseq	r0, R12_usr
     78c:	04020030 	streq	r0, [r2], #-48	; 0x30
     790:	66063301 	strvs	r3, [r6], -r1, lsl #6
     794:	01040200 	mrseq	r0, R12_usr
     798:	0402002e 	streq	r0, [r2], #-46	; 0x2e
     79c:	21080601 	tstcs	r8, r1, lsl #12
     7a0:	73032f67 	movwvc	r2, #16231	; 0x3f67
     7a4:	2e130382 	cdpcs	3, 1, cr0, cr3, cr2, {4}
     7a8:	01040200 	mrseq	r0, R12_usr
     7ac:	02006606 	andeq	r6, r0, #6291456	; 0x600000
     7b0:	83060104 	movwhi	r0, #24836	; 0x6104
     7b4:	31674b4b 	cmncc	r7, fp, asr #22
     7b8:	2e65034b 	cdpcs	3, 6, cr0, cr5, cr11, {2}
     7bc:	002e2303 	eoreq	r2, lr, r3, lsl #6
     7c0:	06010402 	streq	r0, [r1], -r2, lsl #8
     7c4:	0402002e 	streq	r0, [r2], #-46	; 0x2e
     7c8:	009f0601 	addseq	r0, pc, r1, lsl #12
     7cc:	6a010402 	bvs	417dc <__bss_end__+0x377b4>
     7d0:	03d72308 	bicseq	r2, r7, #8, 6	; 0x20000000
     7d4:	3c087fa4 	stccc	15, cr7, [r8], {164}	; 0xa4
     7d8:	0402004b 	streq	r0, [r2], #-75	; 0x4b
     7dc:	064a0601 	strbeq	r0, [sl], -r1, lsl #12
     7e0:	2f4b2108 	svccs	0x004b2108
     7e4:	00db034b 	sbcseq	r0, fp, fp, asr #6
     7e8:	484c9ff2 	stmdami	ip, {r1, r4, r5, r6, r7, r8, r9, sl, fp, ip, pc}^
     7ec:	842f4b32 	strthi	r4, [pc], #-2866	; 7f4 <__code_start__-0x780c>
     7f0:	4d2d2f4b 	stcmi	15, cr2, [sp, #-300]!	; 0xfffffed4
     7f4:	832f3031 	teqhi	pc, #49	; 0x31
     7f8:	01040200 	mrseq	r0, R12_usr
     7fc:	0200be2c 	andeq	fp, r0, #44, 28	; 0x2c0
     800:	4a060104 	bmi	180c18 <__bss_end__+0x176bf0>
     804:	02220806 	eoreq	r0, r2, #393216	; 0x60000
     808:	0e031636 	mcreq	6, 0, r1, cr3, cr6, {1}
     80c:	302108d6 	ldrdcc	r0, [r1], -r6	; <UNPREDICTABLE>
     810:	08312108 	ldmdaeq	r1!, {r3, r8, sp}
     814:	21083021 	tstcs	r8, r1, lsr #32
     818:	08304b30 	ldmdaeq	r0!, {r4, r5, r8, r9, fp, lr}
     81c:	834b3021 	movthi	r3, #45089	; 0xb021
     820:	2f31d983 	svccs	0x0031d983
     824:	01040200 	mrseq	r0, R12_usr
     828:	04020065 	streq	r0, [r2], #-101	; 0x65
     82c:	004a0602 	subeq	r0, sl, r2, lsl #12
     830:	06010402 	streq	r0, [r1], -r2, lsl #8
     834:	667fbf03 	ldrbtvs	fp, [pc], -r3, lsl #30
     838:	02040200 	andeq	r0, r4, #0, 4
     83c:	03066606 	movweq	r6, #26118	; 0x6606
     840:	684a00c5 	stmdavs	sl, {r0, r2, r6, r7}^
     844:	01001602 	tsteq	r0, r2, lsl #12
     848:	00004201 	andeq	r4, r0, r1, lsl #4
     84c:	28000200 	stmdacs	r0, {r9}
     850:	02000000 	andeq	r0, r0, #0
     854:	0d0efb01 	vstreq	d15, [lr, #-4]
     858:	01010100 	mrseq	r0, (UNDEF: 17)
     85c:	00000001 	andeq	r0, r0, r1
     860:	01000001 	tsteq	r0, r1
     864:	66617473 			; <UNDEFINED> instruction: 0x66617473
     868:	72732d66 	rsbsvc	r2, r3, #6528	; 0x1980
     86c:	63000063 	movwvs	r0, #99	; 0x63
     870:	65686361 	strbvs	r6, [r8, #-865]!	; 0x361
     874:	0100632e 	tsteq	r0, lr, lsr #6
     878:	00000000 	andeq	r0, r0, r0
     87c:	8fc80205 	svchi	0x00c80205
     880:	14140000 	ldrne	r0, [r4], #-0
     884:	144e2f30 	strbne	r2, [lr], #-3888	; 0xf30
     888:	04022f31 	streq	r2, [r2], #-3889	; 0xf31
     88c:	9d010100 	stflss	f0, [r1, #-0]
     890:	02000000 	andeq	r0, r0, #0
     894:	00008600 	andeq	r8, r0, r0, lsl #12
     898:	fb010200 	blx	410a2 <__bss_end__+0x3707a>
     89c:	01000d0e 	tsteq	r0, lr, lsl #26
     8a0:	00010101 	andeq	r0, r1, r1, lsl #2
     8a4:	00010000 	andeq	r0, r1, r0
     8a8:	74730100 	ldrbtvc	r0, [r3], #-256	; 0x100
     8ac:	2d666661 	stclcs	6, cr6, [r6, #-388]!	; 0xfffffe7c
     8b0:	00637273 	rsbeq	r7, r3, r3, ror r2
     8b4:	6573552f 	ldrbvs	r5, [r3, #-1327]!	; 0x52f
     8b8:	622f7372 	eorvs	r7, pc, #-939524095	; 0xc8000001
     8bc:	6e616972 	mcrvs	9, 3, r6, cr1, cr2, {3}
     8c0:	2f6e756a 	svccs	0x006e756a
     8c4:	6b736544 	blvs	1cd9ddc <__bss_end__+0x1ccfdb4>
     8c8:	2f706f74 	svccs	0x00706f74
     8cc:	6f686373 	svcvs	0x00686373
     8d0:	532f6c6f 	teqpl	pc, #28416	; 0x6f00
     8d4:	6e697270 	mcrvs	2, 3, r7, cr9, cr0, {3}
     8d8:	32393167 	eorscc	r3, r9, #-1073741799	; 0xc0000019
     8dc:	53432f30 	movtpl	r2, #16176	; 0x3f30
     8e0:	4c303432 	cfldrsmi	mvf3, [r0], #-200	; 0xffffff38
     8e4:	73632f58 	cmnvc	r3, #88, 30	; 0x160
     8e8:	6c303432 	cfldrsvs	mvf3, [r0], #-200	; 0xffffff38
     8ec:	30322d78 	eorscc	r2, r2, r8, ror sp
     8f0:	2f727073 	svccs	0x00727073
     8f4:	7062696c 	rsbvc	r6, r2, ip, ror #18
     8f8:	6e692f69 	cdpvs	15, 6, cr2, cr9, cr9, {3}
     8fc:	64756c63 	ldrbtvs	r6, [r5], #-3171	; 0xc63
     900:	63000065 	movwvs	r0, #101	; 0x65
     904:	6e61656c 	cdpvs	5, 6, cr6, cr1, cr12, {3}
     908:	6265722d 	rsbvs	r7, r5, #-805306366	; 0xd0000002
     90c:	2e746f6f 	cdpcs	15, 7, cr6, cr4, cr15, {3}
     910:	00010063 	andeq	r0, r1, r3, rrx
     914:	69707200 	ldmdbvs	r0!, {r9, ip, sp, lr}^
     918:	0200682e 	andeq	r6, r0, #3014656	; 0x2e0000
     91c:	00000000 	andeq	r0, r0, r0
     920:	8fe80205 	svchi	0x00e80205
     924:	2f150000 	svccs	0x00150000
     928:	024b832f 	subeq	r8, fp, #-1140850688	; 0xbc000000
     92c:	01010006 	tsteq	r1, r6
     930:	000000a6 	andeq	r0, r0, r6, lsr #1
     934:	00800002 	addeq	r0, r0, r2
     938:	01020000 	mrseq	r0, (UNDEF: 2)
     93c:	000d0efb 	strdeq	r0, [sp], -fp
     940:	01010101 	tsteq	r1, r1, lsl #2
     944:	01000000 	mrseq	r0, (UNDEF: 0)
     948:	73010000 	movwvc	r0, #4096	; 0x1000
     94c:	66666174 			; <UNDEFINED> instruction: 0x66666174
     950:	6372732d 	cmnvs	r2, #-1275068416	; 0xb4000000
     954:	73552f00 	cmpvc	r5, #0, 30
     958:	2f737265 	svccs	0x00737265
     95c:	61697262 	cmnvs	r9, r2, ror #4
     960:	6e756a6e 	vsubvs.f32	s13, s10, s29
     964:	7365442f 	cmnvc	r5, #788529152	; 0x2f000000
     968:	706f746b 	rsbvc	r7, pc, fp, ror #8
     96c:	6863732f 	stmdavs	r3!, {r0, r1, r2, r3, r5, r8, r9, ip, sp, lr}^
     970:	2f6c6f6f 	svccs	0x006c6f6f
     974:	69727053 	ldmdbvs	r2!, {r0, r1, r4, r6, ip, sp, lr}^
     978:	3931676e 	ldmdbcc	r1!, {r1, r2, r3, r5, r6, r8, r9, sl, sp, lr}
     97c:	432f3032 	teqmi	pc, #50	; 0x32
     980:	30343253 	eorscc	r3, r4, r3, asr r2
     984:	632f584c 	teqvs	pc, #76, 16	; 0x4c0000
     988:	30343273 	eorscc	r3, r4, r3, ror r2
     98c:	322d786c 	eorcc	r7, sp, #108, 16	; 0x6c0000
     990:	72707330 	rsbsvc	r7, r0, #48, 6	; 0xc0000000
     994:	62696c2f 	rsbvs	r6, r9, #12032	; 0x2f00
     998:	692f6970 	stmdbvs	pc!, {r4, r5, r6, r8, fp, sp, lr}	; <UNPREDICTABLE>
     99c:	756c636e 	strbvc	r6, [ip, #-878]!	; 0x36e
     9a0:	00006564 	andeq	r6, r0, r4, ror #10
     9a4:	61747363 	cmnvs	r4, r3, ror #6
     9a8:	632e7472 	teqvs	lr, #1912602624	; 0x72000000
     9ac:	00000100 	andeq	r0, r0, r0, lsl #2
     9b0:	2e697072 	mcrcs	0, 3, r7, cr9, cr2, {3}
     9b4:	00020068 	andeq	r0, r2, r8, rrx
     9b8:	05000000 	streq	r0, [r0, #-0]
     9bc:	00901402 	addseq	r1, r0, r2, lsl #8
     9c0:	010c0300 	mrseq	r0, LR_mon
     9c4:	2d2f3132 	stfcss	f3, [pc, #-200]!	; 904 <__code_start__-0x76fc>
     9c8:	0402002f 	streq	r0, [r2], #-47	; 0x2f
     9cc:	09034901 	stmdbeq	r3, {r0, r8, fp, lr}
     9d0:	2e0d034a 	cdpcs	3, 0, cr0, cr13, cr10, {2}
     9d4:	0006022f 	andeq	r0, r6, pc, lsr #4
     9d8:	00a20101 	adceq	r0, r2, r1, lsl #2
     9dc:	00020000 	andeq	r0, r2, r0
     9e0:	0000008e 	andeq	r0, r0, lr, lsl #1
     9e4:	0efb0102 	cdpeq	1, 15, cr0, cr11, cr2, {0}
     9e8:	0101000d 	tsteq	r1, sp
     9ec:	00000101 	andeq	r0, r0, r1, lsl #2
     9f0:	00000100 	andeq	r0, r0, r0, lsl #2
     9f4:	61747301 	cmnvs	r4, r1, lsl #6
     9f8:	732d6666 	teqvc	sp, #106954752	; 0x6600000
     9fc:	2f006372 	svccs	0x00006372
     a00:	72657355 	rsbvc	r7, r5, #1409286145	; 0x54000001
     a04:	72622f73 	rsbvc	r2, r2, #460	; 0x1cc
     a08:	6a6e6169 	bvs	1b98fb4 <__bss_end__+0x1b8ef8c>
     a0c:	442f6e75 	strtmi	r6, [pc], #-3701	; a14 <__code_start__-0x75ec>
     a10:	746b7365 	strbtvc	r7, [fp], #-869	; 0x365
     a14:	732f706f 	teqvc	pc, #111	; 0x6f
     a18:	6f6f6863 	svcvs	0x006f6863
     a1c:	70532f6c 	subsvc	r2, r3, ip, ror #30
     a20:	676e6972 			; <UNDEFINED> instruction: 0x676e6972
     a24:	30323931 	eorscc	r3, r2, r1, lsr r9
     a28:	3253432f 	subscc	r4, r3, #-1140850688	; 0xbc000000
     a2c:	584c3034 	stmdapl	ip, {r2, r4, r5, ip, sp}^
     a30:	3273632f 	rsbscc	r6, r3, #-1140850688	; 0xbc000000
     a34:	786c3034 	stmdavc	ip!, {r2, r4, r5, ip, sp}^
     a38:	7330322d 	teqvc	r0, #-805306366	; 0xd0000002
     a3c:	6c2f7270 	sfmvs	f7, 4, [pc], #-448	; 884 <__code_start__-0x777c>
     a40:	69706269 	ldmdbvs	r0!, {r0, r3, r5, r6, r9, sp, lr}^
     a44:	636e692f 	cmnvs	lr, #770048	; 0xbc000
     a48:	6564756c 	strbvs	r7, [r4, #-1388]!	; 0x56c
     a4c:	65640000 	strbvs	r0, [r4, #-0]!
     a50:	6c756166 	ldfvse	f6, [r5], #-408	; 0xfffffe68
     a54:	61682d74 	smcvs	33492	; 0x82d4
     a58:	656c646e 	strbvs	r6, [ip, #-1134]!	; 0x46e
     a5c:	61662d72 	smcvs	25298	; 0x62d2
     a60:	632e7473 	teqvs	lr, #1929379840	; 0x73000000
     a64:	00000100 	andeq	r0, r0, r0, lsl #2
     a68:	2e697072 	mcrcs	0, 3, r7, cr9, cr2, {3}
     a6c:	00020068 	andeq	r0, r2, r8, rrx
     a70:	05000000 	streq	r0, [r0, #-0]
     a74:	00904c02 	addseq	r4, r0, r2, lsl #24
     a78:	02661300 	rsbeq	r1, r6, #0, 6
     a7c:	0101001c 	tsteq	r1, ip, lsl r0
     a80:	000000a3 	andeq	r0, r0, r3, lsr #1
     a84:	008f0002 	addeq	r0, pc, r2
     a88:	01020000 	mrseq	r0, (UNDEF: 2)
     a8c:	000d0efb 	strdeq	r0, [sp], -fp
     a90:	01010101 	tsteq	r1, r1, lsl #2
     a94:	01000000 	mrseq	r0, (UNDEF: 0)
     a98:	73010000 	movwvc	r0, #4096	; 0x1000
     a9c:	66666174 			; <UNDEFINED> instruction: 0x66666174
     aa0:	6372732d 	cmnvs	r2, #-1275068416	; 0xb4000000
     aa4:	73552f00 	cmpvc	r5, #0, 30
     aa8:	2f737265 	svccs	0x00737265
     aac:	61697262 	cmnvs	r9, r2, ror #4
     ab0:	6e756a6e 	vsubvs.f32	s13, s10, s29
     ab4:	7365442f 	cmnvc	r5, #788529152	; 0x2f000000
     ab8:	706f746b 	rsbvc	r7, pc, fp, ror #8
     abc:	6863732f 	stmdavs	r3!, {r0, r1, r2, r3, r5, r8, r9, ip, sp, lr}^
     ac0:	2f6c6f6f 	svccs	0x006c6f6f
     ac4:	69727053 	ldmdbvs	r2!, {r0, r1, r4, r6, ip, sp, lr}^
     ac8:	3931676e 	ldmdbcc	r1!, {r1, r2, r3, r5, r6, r8, r9, sl, sp, lr}
     acc:	432f3032 	teqmi	pc, #50	; 0x32
     ad0:	30343253 	eorscc	r3, r4, r3, asr r2
     ad4:	632f584c 	teqvs	pc, #76, 16	; 0x4c0000
     ad8:	30343273 	eorscc	r3, r4, r3, ror r2
     adc:	322d786c 	eorcc	r7, sp, #108, 16	; 0x6c0000
     ae0:	72707330 	rsbsvc	r7, r0, #48, 6	; 0xc0000000
     ae4:	62696c2f 	rsbvs	r6, r9, #12032	; 0x2f00
     ae8:	692f6970 	stmdbvs	pc!, {r4, r5, r6, r8, fp, sp, lr}	; <UNPREDICTABLE>
     aec:	756c636e 	strbvc	r6, [ip, #-878]!	; 0x36e
     af0:	00006564 	andeq	r6, r0, r4, ror #10
     af4:	61666564 	cmnvs	r6, r4, ror #10
     af8:	2d746c75 	ldclcs	12, cr6, [r4, #-468]!	; 0xfffffe2c
     afc:	646e6168 	strbtvs	r6, [lr], #-360	; 0x168
     b00:	2d72656c 	cfldr64cs	mvdx6, [r2, #-432]!	; 0xfffffe50
     b04:	65736572 	ldrbvs	r6, [r3, #-1394]!	; 0x572
     b08:	00632e74 	rsbeq	r2, r3, r4, ror lr
     b0c:	72000001 	andvc	r0, r0, #1
     b10:	682e6970 	stmdavs	lr!, {r4, r5, r6, r8, fp, sp, lr}
     b14:	00000200 	andeq	r0, r0, r0, lsl #4
     b18:	02050000 	andeq	r0, r5, #0
     b1c:	00009090 	muleq	r0, r0, r0
     b20:	1c026613 	stcne	6, cr6, [r2], {19}
     b24:	ac010100 	stfges	f0, [r1], {-0}
     b28:	02000000 	andeq	r0, r0, #0
     b2c:	00009800 	andeq	r9, r0, r0, lsl #16
     b30:	fb010200 	blx	4133a <__bss_end__+0x37312>
     b34:	01000d0e 	tsteq	r0, lr, lsl #26
     b38:	00010101 	andeq	r0, r1, r1, lsl #2
     b3c:	00010000 	andeq	r0, r1, r0
     b40:	74730100 	ldrbtvc	r0, [r3], #-256	; 0x100
     b44:	2d666661 	stclcs	6, cr6, [r6, #-388]!	; 0xfffffe7c
     b48:	00637273 	rsbeq	r7, r3, r3, ror r2
     b4c:	6573552f 	ldrbvs	r5, [r3, #-1327]!	; 0x52f
     b50:	622f7372 	eorvs	r7, pc, #-939524095	; 0xc8000001
     b54:	6e616972 	mcrvs	9, 3, r6, cr1, cr2, {3}
     b58:	2f6e756a 	svccs	0x006e756a
     b5c:	6b736544 	blvs	1cda074 <__bss_end__+0x1cd004c>
     b60:	2f706f74 	svccs	0x00706f74
     b64:	6f686373 	svcvs	0x00686373
     b68:	532f6c6f 	teqpl	pc, #28416	; 0x6f00
     b6c:	6e697270 	mcrvs	2, 3, r7, cr9, cr0, {3}
     b70:	32393167 	eorscc	r3, r9, #-1073741799	; 0xc0000019
     b74:	53432f30 	movtpl	r2, #16176	; 0x3f30
     b78:	4c303432 	cfldrsmi	mvf3, [r0], #-200	; 0xffffff38
     b7c:	73632f58 	cmnvc	r3, #88, 30	; 0x160
     b80:	6c303432 	cfldrsvs	mvf3, [r0], #-200	; 0xffffff38
     b84:	30322d78 	eorscc	r2, r2, r8, ror sp
     b88:	2f727073 	svccs	0x00727073
     b8c:	7062696c 	rsbvc	r6, r2, ip, ror #18
     b90:	6e692f69 	cdpvs	15, 6, cr2, cr9, cr9, {3}
     b94:	64756c63 	ldrbtvs	r6, [r5], #-3171	; 0xc63
     b98:	64000065 	strvs	r0, [r0], #-101	; 0x65
     b9c:	75616665 	strbvc	r6, [r1, #-1637]!	; 0x665
     ba0:	682d746c 	stmdavs	sp!, {r2, r3, r5, r6, sl, ip, sp, lr}
     ba4:	6c646e61 	stclvs	14, cr6, [r4], #-388	; 0xfffffe7c
     ba8:	752d7265 	strvc	r7, [sp, #-613]!	; 0x265
     bac:	6665646e 	strbtvs	r6, [r5], -lr, ror #8
     bb0:	64656e69 	strbtvs	r6, [r5], #-3689	; 0xe69
     bb4:	736e692d 	cmnvc	lr, #737280	; 0xb4000
     bb8:	00632e74 	rsbeq	r2, r3, r4, ror lr
     bbc:	72000001 	andvc	r0, r0, #1
     bc0:	682e6970 	stmdavs	lr!, {r4, r5, r6, r8, fp, sp, lr}
     bc4:	00000200 	andeq	r0, r0, r0, lsl #4
     bc8:	02050000 	andeq	r0, r5, #0
     bcc:	000090d4 	ldrdeq	r9, [r0], -r4
     bd0:	1c026613 	stcne	6, cr6, [r2], {19}
     bd4:	47010100 	strmi	r0, [r1, -r0, lsl #2]
     bd8:	02000000 	andeq	r0, r0, #0
     bdc:	00003300 	andeq	r3, r0, r0, lsl #6
     be0:	fb010200 	blx	413ea <__bss_end__+0x373c2>
     be4:	01000d0e 	tsteq	r0, lr, lsl #26
     be8:	00010101 	andeq	r0, r1, r1, lsl #2
     bec:	00010000 	andeq	r0, r1, r0
     bf0:	74730100 	ldrbtvc	r0, [r3], #-256	; 0x100
     bf4:	2d666661 	stclcs	6, cr6, [r6, #-388]!	; 0xfffffe7c
     bf8:	00637273 	rsbeq	r7, r3, r3, ror r2
     bfc:	66656400 	strbtvs	r6, [r5], -r0, lsl #8
     c00:	746c7561 	strbtvc	r7, [ip], #-1377	; 0x561
     c04:	6e61682d 	cdpvs	8, 6, cr6, cr1, cr13, {1}
     c08:	72656c64 	rsbvc	r6, r5, #100, 24	; 0x6400
     c0c:	00632e73 	rsbeq	r2, r3, r3, ror lr
     c10:	00000001 	andeq	r0, r0, r1
     c14:	18020500 	stmdane	r2, {r8, sl}
     c18:	15000091 	strne	r0, [r0, #-145]	; 0x91
     c1c:	0002022f 	andeq	r0, r2, pc, lsr #4
     c20:	00c90101 	sbceq	r0, r9, r1, lsl #2
     c24:	00020000 	andeq	r0, r2, r0
     c28:	0000009a 	muleq	r0, sl, r0
     c2c:	0efb0102 	cdpeq	1, 15, cr0, cr11, cr2, {0}
     c30:	0101000d 	tsteq	r1, sp
     c34:	00000101 	andeq	r0, r0, r1, lsl #2
     c38:	00000100 	andeq	r0, r0, r0, lsl #2
     c3c:	61747301 	cmnvs	r4, r1, lsl #6
     c40:	732d6666 	teqvc	sp, #106954752	; 0x6600000
     c44:	2f006372 	svccs	0x00006372
     c48:	72657355 	rsbvc	r7, r5, #1409286145	; 0x54000001
     c4c:	72622f73 	rsbvc	r2, r2, #460	; 0x1cc
     c50:	6a6e6169 	bvs	1b991fc <__bss_end__+0x1b8f1d4>
     c54:	442f6e75 	strtmi	r6, [pc], #-3701	; c5c <__code_start__-0x73a4>
     c58:	746b7365 	strbtvc	r7, [fp], #-869	; 0x365
     c5c:	732f706f 	teqvc	pc, #111	; 0x6f
     c60:	6f6f6863 	svcvs	0x006f6863
     c64:	70532f6c 	subsvc	r2, r3, ip, ror #30
     c68:	676e6972 			; <UNDEFINED> instruction: 0x676e6972
     c6c:	30323931 	eorscc	r3, r2, r1, lsr r9
     c70:	3253432f 	subscc	r4, r3, #-1140850688	; 0xbc000000
     c74:	584c3034 	stmdapl	ip, {r2, r4, r5, ip, sp}^
     c78:	3273632f 	rsbscc	r6, r3, #-1140850688	; 0xbc000000
     c7c:	786c3034 	stmdavc	ip!, {r2, r4, r5, ip, sp}^
     c80:	7330322d 	teqvc	r0, #-805306366	; 0xd0000002
     c84:	6c2f7270 	sfmvs	f7, 4, [pc], #-448	; acc <__code_start__-0x7534>
     c88:	69706269 	ldmdbvs	r0!, {r0, r3, r5, r6, r9, sp, lr}^
     c8c:	636e692f 	cmnvs	lr, #770048	; 0xbc000
     c90:	6564756c 	strbvs	r7, [r4, #-1388]!	; 0x56c
     c94:	6e690000 	cdpvs	0, 6, cr0, cr9, cr0, {0}
     c98:	72726574 	rsbsvc	r6, r2, #116, 10	; 0x1d000000
     c9c:	73747075 	cmnvc	r4, #117	; 0x75
     ca0:	632e632d 	teqvs	lr, #-1275068416	; 0xb4000000
     ca4:	00000100 	andeq	r0, r0, r0, lsl #2
     ca8:	2d697072 	stclcs	0, cr7, [r9, #-456]!	; 0xfffffe38
     cac:	65746e69 	ldrbvs	r6, [r4, #-3689]!	; 0xe69
     cb0:	70757272 	rsbsvc	r7, r5, r2, ror r2
     cb4:	682e7374 	stmdavs	lr!, {r2, r4, r5, r6, r8, r9, ip, sp, lr}
     cb8:	00000200 	andeq	r0, r0, r0, lsl #4
     cbc:	2e697072 	mcrcs	0, 3, r7, cr9, cr2, {3}
     cc0:	00020068 	andeq	r0, r2, r8, rrx
     cc4:	05000000 	streq	r0, [r0, #-0]
     cc8:	00912002 	addseq	r2, r1, r2
     ccc:	011a0300 	tsteq	sl, r0, lsl #6
     cd0:	67672f31 			; <UNDEFINED> instruction: 0x67672f31
     cd4:	2d2f8336 	stccs	3, cr8, [pc, #-216]!	; c04 <__code_start__-0x73fc>
     cd8:	02040200 	andeq	r0, r4, #0, 4
     cdc:	0402002f 	streq	r0, [r2], #-47	; 0x2f
     ce0:	02006502 	andeq	r6, r0, #8388608	; 0x800000
     ce4:	2e060104 	adfcss	f0, f6, f4
     ce8:	0a024c06 	beq	93d08 <__bss_end__+0x89ce0>
     cec:	a2010100 	andge	r0, r1, #0, 2
     cf0:	02000000 	andeq	r0, r0, #0
     cf4:	00008000 	andeq	r8, r0, r0
     cf8:	fb010200 	blx	41502 <__bss_end__+0x374da>
     cfc:	01000d0e 	tsteq	r0, lr, lsl #26
     d00:	00010101 	andeq	r0, r1, r1, lsl #2
     d04:	00010000 	andeq	r0, r1, r0
     d08:	74730100 	ldrbtvc	r0, [r3], #-256	; 0x100
     d0c:	2d666661 	stclcs	6, cr6, [r6, #-388]!	; 0xfffffe7c
     d10:	00637273 	rsbeq	r7, r3, r3, ror r2
     d14:	6573552f 	ldrbvs	r5, [r3, #-1327]!	; 0x52f
     d18:	622f7372 	eorvs	r7, pc, #-939524095	; 0xc8000001
     d1c:	6e616972 	mcrvs	9, 3, r6, cr1, cr2, {3}
     d20:	2f6e756a 	svccs	0x006e756a
     d24:	6b736544 	blvs	1cda23c <__bss_end__+0x1cd0214>
     d28:	2f706f74 	svccs	0x00706f74
     d2c:	6f686373 	svcvs	0x00686373
     d30:	532f6c6f 	teqpl	pc, #28416	; 0x6f00
     d34:	6e697270 	mcrvs	2, 3, r7, cr9, cr0, {3}
     d38:	32393167 	eorscc	r3, r9, #-1073741799	; 0xc0000019
     d3c:	53432f30 	movtpl	r2, #16176	; 0x3f30
     d40:	4c303432 	cfldrsmi	mvf3, [r0], #-200	; 0xffffff38
     d44:	73632f58 	cmnvc	r3, #88, 30	; 0x160
     d48:	6c303432 	cfldrsvs	mvf3, [r0], #-200	; 0xffffff38
     d4c:	30322d78 	eorscc	r2, r2, r8, ror sp
     d50:	2f727073 	svccs	0x00727073
     d54:	7062696c 	rsbvc	r6, r2, ip, ror #18
     d58:	6e692f69 	cdpvs	15, 6, cr2, cr9, cr9, {3}
     d5c:	64756c63 	ldrbtvs	r6, [r5], #-3171	; 0xc63
     d60:	72000065 	andvc	r0, r0, #101	; 0x65
     d64:	6f6f6265 	svcvs	0x006f6265
     d68:	00632e74 	rsbeq	r2, r3, r4, ror lr
     d6c:	72000001 	andvc	r0, r0, #1
     d70:	682e6970 	stmdavs	lr!, {r4, r5, r6, r8, fp, sp, lr}
     d74:	00000200 	andeq	r0, r0, r0, lsl #4
     d78:	02050000 	andeq	r0, r5, #0
     d7c:	0000918c 	andeq	r9, r0, ip, lsl #3
     d80:	14010d03 	strne	r0, [r1], #-3331	; 0xd03
     d84:	15852f31 	strne	r2, [r5, #3889]	; 0xf31
     d88:	2f4d4b2f 	svccs	0x004d4b2f
     d8c:	67523567 	ldrbvs	r3, [r2, -r7, ror #10]
     d90:	01001002 	tsteq	r0, r2
     d94:	0000ae01 	andeq	sl, r0, r1, lsl #28
     d98:	7f000200 	svcvc	0x00000200
     d9c:	02000000 	andeq	r0, r0, #0
     da0:	0d0efb01 	vstreq	d15, [lr, #-4]
     da4:	01010100 	mrseq	r0, (UNDEF: 17)
     da8:	00000001 	andeq	r0, r0, r1
     dac:	01000001 	tsteq	r0, r1
     db0:	66617473 			; <UNDEFINED> instruction: 0x66617473
     db4:	72732d66 	rsbsvc	r2, r3, #6528	; 0x1980
     db8:	552f0063 	strpl	r0, [pc, #-99]!	; d5d <__code_start__-0x72a3>
     dbc:	73726573 	cmnvc	r2, #482344960	; 0x1cc00000
     dc0:	6972622f 	ldmdbvs	r2!, {r0, r1, r2, r3, r5, r9, sp, lr}^
     dc4:	756a6e61 	strbvc	r6, [sl, #-3681]!	; 0xe61
     dc8:	65442f6e 	strbvs	r2, [r4, #-3950]	; 0xf6e
     dcc:	6f746b73 	svcvs	0x00746b73
     dd0:	63732f70 	cmnvs	r3, #112, 30	; 0x1c0
     dd4:	6c6f6f68 	stclvs	15, cr6, [pc], #-416	; c3c <__code_start__-0x73c4>
     dd8:	7270532f 	rsbsvc	r5, r0, #-1140850688	; 0xbc000000
     ddc:	31676e69 	cmncc	r7, r9, ror #28
     de0:	2f303239 	svccs	0x00303239
     de4:	34325343 	ldrtcc	r5, [r2], #-835	; 0x343
     de8:	2f584c30 	svccs	0x00584c30
     dec:	34327363 	ldrtcc	r7, [r2], #-867	; 0x363
     df0:	2d786c30 	ldclcs	12, cr6, [r8, #-192]!	; 0xffffff40
     df4:	70733032 	rsbsvc	r3, r3, r2, lsr r0
     df8:	696c2f72 	stmdbvs	ip!, {r1, r4, r5, r6, r8, r9, sl, fp, sp}^
     dfc:	2f697062 	svccs	0x00697062
     e00:	6c636e69 	stclvs	14, cr6, [r3], #-420	; 0xfffffe5c
     e04:	00656475 	rsbeq	r6, r5, r5, ror r4
     e08:	6d697400 	cfstrdvs	mvd7, [r9, #-0]
     e0c:	632e7265 	teqvs	lr, #1342177286	; 0x50000006
     e10:	00000100 	andeq	r0, r0, r0, lsl #2
     e14:	2e697072 	mcrcs	0, 3, r7, cr9, cr2, {3}
     e18:	00020068 	andeq	r0, r2, r8, rrx
     e1c:	05000000 	streq	r0, [r0, #-0]
     e20:	00920002 	addseq	r0, r2, r2
     e24:	2f141600 	svccs	0x00141600
     e28:	0402002d 	streq	r0, [r2], #-45	; 0x2d
     e2c:	062e0601 	strteq	r0, [lr], -r1, lsl #12
     e30:	4b2f316d 	blmi	bcd3ec <__bss_end__+0xbc33c4>
     e34:	4b2f314d 	blmi	bcd370 <__bss_end__+0xbc3348>
     e38:	4c4b4c30 	mcrrmi	12, 3, r4, fp, cr0
     e3c:	2f2f6a2f 	svccs	0x002f6a2f
     e40:	08022f84 	stmdaeq	r2, {r2, r7, r8, r9, sl, fp, sp}
     e44:	48010100 	stmdami	r1, {r8}
     e48:	02000001 	andeq	r0, r0, #1
     e4c:	00010200 	andeq	r0, r1, r0, lsl #4
     e50:	fb010200 	blx	4165a <__bss_end__+0x37632>
     e54:	01000d0e 	tsteq	r0, lr, lsl #26
     e58:	00010101 	andeq	r0, r1, r1, lsl #2
     e5c:	00010000 	andeq	r0, r1, r0
     e60:	752f0100 	strvc	r0, [pc, #-256]!	; d68 <__code_start__-0x7298>
     e64:	692f7273 	stmdbvs	pc!, {r0, r1, r4, r5, r6, r9, ip, sp, lr}	; <UNPREDICTABLE>
     e68:	756c636e 	strbvc	r6, [ip, #-878]!	; 0x36e
     e6c:	6e2f6564 	cfsh64vs	mvdx6, mvdx15, #52
     e70:	696c7765 	stmdbvs	ip!, {r0, r2, r5, r6, r8, r9, sl, ip, sp, lr}^
     e74:	79732f62 	ldmdbvc	r3!, {r1, r5, r6, r8, r9, sl, fp, sp}^
     e78:	752f0073 	strvc	r0, [pc, #-115]!	; e0d <__code_start__-0x71f3>
     e7c:	6c2f7273 	sfmvs	f7, 4, [pc], #-460	; cb8 <__code_start__-0x7348>
     e80:	672f6269 	strvs	r6, [pc, -r9, ror #4]!
     e84:	612f6363 	teqvs	pc, r3, ror #6
     e88:	6e2d6d72 	mcrvs	13, 1, r6, cr13, cr2, {3}
     e8c:	2d656e6f 	stclcs	14, cr6, [r5, #-444]!	; 0xfffffe44
     e90:	69626165 	stmdbvs	r2!, {r0, r2, r5, r6, r8, sp, lr}^
     e94:	332e362f 	teqcc	lr, #49283072	; 0x2f00000
     e98:	692f312e 	stmdbvs	pc!, {r1, r2, r3, r5, r8, ip, sp}	; <UNPREDICTABLE>
     e9c:	756c636e 	strbvc	r6, [ip, #-878]!	; 0x36e
     ea0:	2f006564 	svccs	0x00006564
     ea4:	656d6f68 	strbvs	r6, [sp, #-3944]!	; 0xf68
     ea8:	676e652f 	strbvs	r6, [lr, -pc, lsr #10]!
     eac:	2f72656c 	svccs	0x0072656c
     eb0:	73616c63 	cmnvc	r1, #25344	; 0x6300
     eb4:	73632f73 	cmnvc	r3, #460	; 0x1cc
     eb8:	6c303432 	cfldrsvs	mvf3, [r0], #-200	; 0xffffff38
     ebc:	30322d78 	eorscc	r2, r2, r8, ror sp
     ec0:	2f727073 	svccs	0x00727073
     ec4:	62696c2f 	rsbvs	r6, r9, #12032	; 0x2f00
     ec8:	2f006970 	svccs	0x00006970
     ecc:	656d6f68 	strbvs	r6, [sp, #-3944]!	; 0xf68
     ed0:	676e652f 	strbvs	r6, [lr, -pc, lsr #10]!
     ed4:	2f72656c 	svccs	0x0072656c
     ed8:	73616c63 	cmnvc	r1, #25344	; 0x6300
     edc:	73632f73 	cmnvc	r3, #460	; 0x1cc
     ee0:	6c303432 	cfldrsvs	mvf3, [r0], #-200	; 0xffffff38
     ee4:	30322d78 	eorscc	r2, r2, r8, ror sp
     ee8:	2f727073 	svccs	0x00727073
     eec:	62696c2f 	rsbvs	r6, r9, #12032	; 0x2f00
     ef0:	732f6970 	teqvc	pc, #112, 18	; 0x1c0000
     ef4:	66666174 			; <UNDEFINED> instruction: 0x66666174
     ef8:	6372732d 	cmnvs	r2, #-1275068416	; 0xb4000000
     efc:	61750000 	cmnvs	r5, r0
     f00:	632e7472 	teqvs	lr, #1912602624	; 0x72000000
     f04:	00000000 	andeq	r0, r0, r0
     f08:	6b636f6c 	blvs	18dccc0 <__bss_end__+0x18d2c98>
     f0c:	0100682e 	tsteq	r0, lr, lsr #16
     f10:	745f0000 	ldrbvc	r0, [pc], #-0	; f18 <__code_start__-0x70e8>
     f14:	73657079 	cmnvc	r5, #121	; 0x79
     f18:	0100682e 	tsteq	r0, lr, lsr #16
     f1c:	74730000 	ldrbtvc	r0, [r3], #-0
     f20:	66656464 	strbtvs	r6, [r5], -r4, ror #8
     f24:	0200682e 	andeq	r6, r0, #3014656	; 0x2e0000
     f28:	65720000 	ldrbvs	r0, [r2, #-0]!
     f2c:	2e746e65 	cdpcs	14, 7, cr6, cr4, cr5, {3}
     f30:	00010068 	andeq	r0, r1, r8, rrx
     f34:	69707200 	ldmdbvs	r0!, {r9, ip, sp, lr}^
     f38:	0300682e 	movweq	r6, #2094	; 0x82e
     f3c:	61750000 	cmnvs	r5, r0
     f40:	682e7472 	stmdavs	lr!, {r1, r4, r5, r6, sl, ip, sp, lr}
     f44:	00000400 	andeq	r0, r0, r0, lsl #8
     f48:	6f697067 	svcvs	0x00697067
     f4c:	0400682e 	streq	r6, [r0], #-2094	; 0x82e
     f50:	00000000 	andeq	r0, r0, r0
     f54:	92fc0205 	rscsls	r0, ip, #1342177280	; 0x50000000
     f58:	2c030000 	stccs	0, cr0, [r3], {-0}
     f5c:	0c036701 	stceq	7, cr6, [r3], {1}
     f60:	6867359e 	stmdavs	r7!, {r1, r2, r3, r4, r7, r8, sl, ip, sp}^
     f64:	0c036835 	stceq	8, cr6, [r3], {53}	; 0x35
     f68:	696b852e 	stmdbvs	fp!, {r1, r2, r3, r5, r8, sl, pc}^
     f6c:	660c0369 	strvs	r0, [ip], -r9, ror #6
     f70:	4208676b 	andmi	r6, r8, #28049408	; 0x1ac0000
     f74:	364b6834 			; <UNDEFINED> instruction: 0x364b6834
     f78:	002f8768 	eoreq	r8, pc, r8, ror #14
     f7c:	2f010402 	svccs	0x00010402
     f80:	67306768 	ldrvs	r6, [r0, -r8, ror #14]!
     f84:	0402004b 	streq	r0, [r2], #-75	; 0x4b
     f88:	67682f01 	strbvs	r2, [r8, -r1, lsl #30]!
     f8c:	06022e69 	streq	r2, [r2], -r9, ror #28
     f90:	2b010100 	blcs	41398 <__bss_end__+0x37370>
     f94:	02000001 	andeq	r0, r0, #1
     f98:	0000f800 	andeq	pc, r0, r0, lsl #16
     f9c:	fb010200 	blx	417a6 <__bss_end__+0x3777e>
     fa0:	01000d0e 	tsteq	r0, lr, lsl #26
     fa4:	00010101 	andeq	r0, r1, r1, lsl #2
     fa8:	00010000 	andeq	r0, r1, r0
     fac:	752f0100 	strvc	r0, [pc, #-256]!	; eb4 <__code_start__-0x714c>
     fb0:	692f7273 	stmdbvs	pc!, {r0, r1, r4, r5, r6, r9, ip, sp, lr}	; <UNPREDICTABLE>
     fb4:	756c636e 	strbvc	r6, [ip, #-878]!	; 0x36e
     fb8:	6e2f6564 	cfsh64vs	mvdx6, mvdx15, #52
     fbc:	696c7765 	stmdbvs	ip!, {r0, r2, r5, r6, r8, r9, sl, ip, sp, lr}^
     fc0:	79732f62 	ldmdbvc	r3!, {r1, r5, r6, r8, r9, sl, fp, sp}^
     fc4:	752f0073 	strvc	r0, [pc, #-115]!	; f59 <__code_start__-0x70a7>
     fc8:	6c2f7273 	sfmvs	f7, 4, [pc], #-460	; e04 <__code_start__-0x71fc>
     fcc:	672f6269 	strvs	r6, [pc, -r9, ror #4]!
     fd0:	612f6363 	teqvs	pc, r3, ror #6
     fd4:	6e2d6d72 	mcrvs	13, 1, r6, cr13, cr2, {3}
     fd8:	2d656e6f 	stclcs	14, cr6, [r5, #-444]!	; 0xfffffe44
     fdc:	69626165 	stmdbvs	r2!, {r0, r2, r5, r6, r8, sp, lr}^
     fe0:	332e362f 	teqcc	lr, #49283072	; 0x2f00000
     fe4:	692f312e 	stmdbvs	pc!, {r1, r2, r3, r5, r8, ip, sp}	; <UNPREDICTABLE>
     fe8:	756c636e 	strbvc	r6, [ip, #-878]!	; 0x36e
     fec:	2f006564 	svccs	0x00006564
     ff0:	656d6f68 	strbvs	r6, [sp, #-3944]!	; 0xf68
     ff4:	676e652f 	strbvs	r6, [lr, -pc, lsr #10]!
     ff8:	2f72656c 	svccs	0x0072656c
     ffc:	73616c63 	cmnvc	r1, #25344	; 0x6300
    1000:	73632f73 	cmnvc	r3, #460	; 0x1cc
    1004:	6c303432 	cfldrsvs	mvf3, [r0], #-200	; 0xffffff38
    1008:	30322d78 	eorscc	r2, r2, r8, ror sp
    100c:	2f727073 	svccs	0x00727073
    1010:	62696c2f 	rsbvs	r6, r9, #12032	; 0x2f00
    1014:	2f006970 	svccs	0x00006970
    1018:	656d6f68 	strbvs	r6, [sp, #-3944]!	; 0xf68
    101c:	676e652f 	strbvs	r6, [lr, -pc, lsr #10]!
    1020:	2f72656c 	svccs	0x0072656c
    1024:	73616c63 	cmnvc	r1, #25344	; 0x6300
    1028:	73632f73 	cmnvc	r3, #460	; 0x1cc
    102c:	6c303432 	cfldrsvs	mvf3, [r0], #-200	; 0xffffff38
    1030:	30322d78 	eorscc	r2, r2, r8, ror sp
    1034:	2f727073 	svccs	0x00727073
    1038:	62696c2f 	rsbvs	r6, r9, #12032	; 0x2f00
    103c:	732f6970 	teqvc	pc, #112, 18	; 0x1c0000
    1040:	66666174 			; <UNDEFINED> instruction: 0x66666174
    1044:	6372732d 	cmnvs	r2, #-1275068416	; 0xb4000000
    1048:	70670000 	rsbvc	r0, r7, r0
    104c:	632e6f69 	teqvs	lr, #420	; 0x1a4
    1050:	00000000 	andeq	r0, r0, r0
    1054:	6b636f6c 	blvs	18dce0c <__bss_end__+0x18d2de4>
    1058:	0100682e 	tsteq	r0, lr, lsr #16
    105c:	745f0000 	ldrbvc	r0, [pc], #-0	; 1064 <__code_start__-0x6f9c>
    1060:	73657079 	cmnvc	r5, #121	; 0x79
    1064:	0100682e 	tsteq	r0, lr, lsr #16
    1068:	74730000 	ldrbtvc	r0, [r3], #-0
    106c:	66656464 	strbtvs	r6, [r5], -r4, ror #8
    1070:	0200682e 	andeq	r6, r0, #3014656	; 0x2e0000
    1074:	65720000 	ldrbvs	r0, [r2, #-0]!
    1078:	2e746e65 	cdpcs	14, 7, cr6, cr4, cr5, {3}
    107c:	00010068 	andeq	r0, r1, r8, rrx
    1080:	69707200 	ldmdbvs	r0!, {r9, ip, sp, lr}^
    1084:	0300682e 	movweq	r6, #2094	; 0x82e
    1088:	70670000 	rsbvc	r0, r7, r0
    108c:	682e6f69 	stmdavs	lr!, {r0, r3, r5, r6, r8, r9, sl, fp, sp, lr}
    1090:	00000400 	andeq	r0, r0, r0, lsl #8
    1094:	02050000 	andeq	r0, r5, #0
    1098:	00009474 	andeq	r9, r0, r4, ror r4
    109c:	13012703 	movwne	r2, #5891	; 0x1703
    10a0:	f44f474c 	vst1.16	{d20}, [pc], ip
    10a4:	a14c4b68 	cmpge	ip, r8, ror #22
    10a8:	49136a2f 	ldmdbmi	r3, {r0, r1, r2, r3, r5, r9, fp, sp, lr}
    10ac:	4913be31 	ldmdbmi	r3, {r0, r4, r5, r9, sl, fp, ip, sp, pc}
    10b0:	6a2fbe31 	bvs	bf097c <__bss_end__+0xbe6954>
    10b4:	4f484d2f 	svcmi	0x00484d2f
    10b8:	2f324913 	svccs	0x00324913
    10bc:	000602b7 			; <UNDEFINED> instruction: 0x000602b7
    10c0:	Address 0x00000000000010c0 is out of bounds.


Disassembly of section .debug_str:

00000000 <.debug_str>:
   0:	65646f6d 	strbvs	r6, [r4, #-3949]!	; 0xf6d
   4:	7465675f 	strbtvc	r6, [r5], #-1887	; 0x75f
   8:	6b726200 	blvs	1c98810 <__bss_end__+0x1c8e7e8>
   c:	6d5f7470 	cfldrdvs	mvd7, [pc, #-448]	; fffffe54 <__bss_end__+0xffff5e2c>
  10:	616d7369 	cmnvs	sp, r9, ror #6
  14:	5f686374 	svcpl	0x00686374
  18:	30746573 	rsbscc	r6, r4, r3, ror r5
  1c:	74696200 	strbtvc	r6, [r9], #-512	; 0x200
  20:	65675f73 	strbvs	r5, [r7, #-3955]!	; 0xf73
  24:	70630074 	rsbvc	r0, r3, r4, ror r0
  28:	6d007273 	sfmvs	f7, 4, [r0, #-460]	; 0xfffffe34
  2c:	5f65646f 	svcpl	0x0065646f
  30:	00727473 	rsbseq	r7, r2, r3, ror r4
  34:	706b7262 	rsbvc	r7, fp, r2, ror #4
  38:	696d5f74 	stmdbvs	sp!, {r2, r4, r5, r6, r8, r9, sl, fp, ip, lr}^
  3c:	74616d73 	strbtvc	r6, [r1], #-3443	; 0xd73
  40:	645f6863 	ldrbvs	r6, [pc], #-2147	; 48 <__code_start__-0x7fb8>
  44:	62617369 	rsbvs	r7, r1, #-1543503871	; 0xa4000001
  48:	0030656c 	eorseq	r6, r0, ip, ror #10
  4c:	726f6873 	rsbvc	r6, pc, #7536640	; 0x730000
  50:	6e752074 	mrcvs	0, 3, r2, cr5, cr4, {3}
  54:	6e676973 	mcrvs	9, 3, r6, cr7, cr3, {3}
  58:	69206465 	stmdbvs	r0!, {r0, r2, r5, r6, sl, sp, lr}
  5c:	6f00746e 	svcvs	0x0000746e
  60:	00705f6e 	rsbseq	r5, r0, lr, ror #30
  64:	6573552f 	ldrbvs	r5, [r3, #-1327]!	; 0x52f
  68:	622f7372 	eorvs	r7, pc, #-939524095	; 0xc8000001
  6c:	6e616972 	mcrvs	9, 3, r6, cr1, cr2, {3}
  70:	2f6e756a 	svccs	0x006e756a
  74:	6b736544 	blvs	1cd958c <__bss_end__+0x1ccf564>
  78:	2f706f74 	svccs	0x00706f74
  7c:	6f686373 	svcvs	0x00686373
  80:	532f6c6f 	teqpl	pc, #28416	; 0x6f00
  84:	6e697270 	mcrvs	2, 3, r7, cr9, cr0, {3}
  88:	32393167 	eorscc	r3, r9, #-1073741799	; 0xc0000019
  8c:	53432f30 	movtpl	r2, #16176	; 0x3f30
  90:	4c303432 	cfldrsmi	mvf3, [r0], #-200	; 0xffffff38
  94:	73632f58 	cmnvc	r3, #88, 30	; 0x160
  98:	6c303432 	cfldrsvs	mvf3, [r0], #-200	; 0xffffff38
  9c:	30322d78 	eorscc	r2, r2, r8, ror sp
  a0:	2f727073 	svccs	0x00727073
  a4:	7362616c 	cmnvc	r2, #108, 2
  a8:	2d36312f 	ldfcss	f3, [r6, #-188]!	; 0xffffff44
  ac:	676e6973 			; <UNDEFINED> instruction: 0x676e6973
  b0:	732d656c 	teqvc	sp, #108, 10	; 0x1b000000
  b4:	2f706574 	svccs	0x00706574
  b8:	65646f63 	strbvs	r6, [r4, #-3939]!	; 0xf63
  bc:	746f6e00 	strbtvc	r6, [pc], #-3584	; c4 <__code_start__-0x7f3c>
  c0:	6e69616d 	powvsez	f6, f1, #5.0
  c4:	6b726200 	blvs	1c988cc <__bss_end__+0x1c8e8a4>
  c8:	7265765f 	rsbvc	r7, r5, #99614720	; 0x5f00000
  cc:	65736f62 	ldrbvs	r6, [r3, #-3938]!	; 0xf62
  d0:	646f6d00 	strbtvs	r6, [pc], #-3328	; d8 <__code_start__-0x7f28>
  d4:	65735f65 	ldrbvs	r5, [r3, #-3941]!	; 0xf65
  d8:	70630074 	rsbvc	r0, r3, r4, ror r0
  dc:	6f5f7273 	svcvs	0x005f7273
  e0:	7500646c 	strvc	r6, [r0, #-1132]	; 0x46c
  e4:	6769736e 	strbvs	r7, [r9, -lr, ror #6]!
  e8:	2064656e 	rsbcs	r6, r4, lr, ror #10
  ec:	72616863 	rsbvc	r6, r1, #6488064	; 0x630000
  f0:	656c6300 	strbvs	r6, [ip, #-768]!	; 0x300
  f4:	725f6e61 	subsvc	r6, pc, #1552	; 0x610
  f8:	6f6f6265 	svcvs	0x006f6265
  fc:	78650074 	stmdavc	r5!, {r2, r4, r5, r6}^
 100:	74636570 	strbtvc	r6, [r3], #-1392	; 0x570
 104:	685f6465 	ldmdavs	pc, {r0, r2, r5, r6, sl, sp, lr}^	; <UNPREDICTABLE>
 108:	6c646e61 	stclvs	14, cr6, [r4], #-388	; 0xfffffe7c
 10c:	69620065 	stmdbvs	r2!, {r0, r2, r5, r6}^
 110:	635f7374 	cmpvs	pc, #116, 6	; 0xd0000001
 114:	7500726c 	strvc	r7, [r0, #-620]	; 0x26c
 118:	33746e69 	cmncc	r4, #1680	; 0x690
 11c:	00745f32 	rsbseq	r5, r4, r2, lsr pc
 120:	72657375 	rsbvc	r7, r5, #-738197503	; 0xd4000001
 124:	7365745f 	cmnvc	r5, #1593835520	; 0x5f000000
 128:	5f5f0074 	svcpl	0x005f0074
 12c:	434e5546 	movtmi	r5, #58694	; 0xe546
 130:	4e4f4954 	mcrmi	9, 2, r4, cr15, cr4, {2}
 134:	73005f5f 	movwvc	r5, #3935	; 0xf5f
 138:	6c676e69 	stclvs	14, cr6, [r7], #-420	; 0xfffffe5c
 13c:	74735f65 	ldrbtvc	r5, [r3], #-3941	; 0xf65
 140:	685f7065 	ldmdavs	pc, {r0, r2, r5, r6, ip, sp, lr}^	; <UNPREDICTABLE>
 144:	6c646e61 	stclvs	14, cr6, [r4], #-388	; 0xfffffe7c
 148:	47007265 	strmi	r7, [r0, -r5, ror #4]
 14c:	4320554e 	teqmi	r0, #327155712	; 0x13800000
 150:	382e3420 	stmdacc	lr!, {r5, sl, ip, sp}
 154:	2d20332e 	stccs	3, cr3, [r0, #-184]!	; 0xffffff48
 158:	7570636d 	ldrbvc	r6, [r0, #-877]!	; 0x36d
 15c:	6d72613d 	ldfvse	f6, [r2, #-244]!	; 0xffffff0c
 160:	36373131 			; <UNDEFINED> instruction: 0x36373131
 164:	2d667a6a 	vstmdbcs	r6!, {s15-s120}
 168:	6d2d2073 	stcvs	0, cr2, [sp, #-460]!	; 0xfffffe34
 16c:	656e7574 	strbvs	r7, [lr, #-1396]!	; 0x574
 170:	6d72613d 	ldfvse	f6, [r2, #-244]!	; 0xffffff0c
 174:	36373131 			; <UNDEFINED> instruction: 0x36373131
 178:	2d667a6a 	vstmdbcs	r6!, {s15-s120}
 17c:	672d2073 			; <UNDEFINED> instruction: 0x672d2073
 180:	20626467 	rsbcs	r6, r2, r7, ror #8
 184:	20674f2d 	rsbcs	r4, r7, sp, lsr #30
 188:	6474732d 	ldrbtvs	r7, [r4], #-813	; 0x32d
 18c:	756e673d 	strbvc	r6, [lr, #-1853]!	; 0x73d
 190:	2d203939 	stccs	9, cr3, [r0, #-228]!	; 0xffffff1c
 194:	65726666 	ldrbvs	r6, [r2, #-1638]!	; 0x666
 198:	61747365 	cmnvs	r4, r5, ror #6
 19c:	6e69646e 	cdpvs	4, 6, cr6, cr9, cr14, {3}
 1a0:	662d2067 	strtvs	r2, [sp], -r7, rrx
 1a4:	742d6f6e 	strtvc	r6, [sp], #-3950	; 0xf6e
 1a8:	656c706f 	strbvs	r7, [ip, #-111]!	; 0x6f
 1ac:	2d6c6576 	cfstr64cs	mvdx6, [ip, #-472]!	; 0xfffffe28
 1b0:	726f6572 	rsbvc	r6, pc, #478150656	; 0x1c800000
 1b4:	00726564 	rsbseq	r6, r2, r4, ror #10
 1b8:	676e6f6c 	strbvs	r6, [lr, -ip, ror #30]!
 1bc:	6e6f6c20 	cdpvs	12, 6, cr6, cr15, cr0, {1}
 1c0:	6e752067 	cdpvs	0, 7, cr2, cr5, cr7, {3}
 1c4:	6e676973 	mcrvs	9, 3, r6, cr7, cr3, {3}
 1c8:	69206465 	stmdbvs	r0!, {r0, r2, r5, r6, sl, sp, lr}
 1cc:	6d00746e 	cfstrsvs	mvf7, [r0, #-440]	; 0xfffffe48
 1d0:	0065646f 	rsbeq	r6, r5, pc, ror #8
 1d4:	646e6168 	strbtvs	r6, [lr], #-360	; 0x168
 1d8:	5f72656c 	svcpl	0x0072656c
 1dc:	69730074 	ldmdbvs	r3!, {r2, r4, r5, r6}^
 1e0:	7974657a 	ldmdbvc	r4!, {r1, r3, r4, r5, r6, r8, sl, sp, lr}^
 1e4:	75006570 	strvc	r6, [r0, #-1392]	; 0x570
 1e8:	5f726573 	svcpl	0x00726573
 1ec:	6d617274 	sfmvs	f7, 2, [r1, #-464]!	; 0xfffffe30
 1f0:	696c6f70 	stmdbvs	ip!, {r4, r5, r6, r8, r9, sl, fp, sp, lr}^
 1f4:	725f656e 	subsvc	r6, pc, #461373440	; 0x1b800000
 1f8:	6c007465 	cfstrsvs	mvf7, [r0], {101}	; 0x65
 1fc:	20676e6f 	rsbcs	r6, r7, pc, ror #28
 200:	676e6f6c 	strbvs	r6, [lr, -ip, ror #30]!
 204:	746e6920 	strbtvc	r6, [lr], #-2336	; 0x920
 208:	616e6500 	cmnvs	lr, r0, lsl #10
 20c:	5f656c62 	svcpl	0x00656c62
 210:	68636163 	stmdavs	r3!, {r0, r1, r5, r6, r8, sp, lr}^
 214:	616d0065 	cmnvs	sp, r5, rrx
 218:	74006b73 	strvc	r6, [r0], #-2931	; 0xb73
 21c:	73747365 	cmnvc	r4, #-1811939327	; 0x94000001
 220:	2d36312f 	ldfcss	f3, [r6, #-188]!	; 0xffffff44
 224:	74726170 	ldrbtvc	r6, [r2], #-368	; 0x170
 228:	65742d32 	ldrbvs	r2, [r4, #-3378]!	; 0xd32
 22c:	2e317473 	mrccs	4, 1, r7, cr1, cr3, {3}
 230:	65720063 	ldrbvs	r0, [r2, #-99]!	; 0x63
 234:	73007367 	movwvc	r7, #871	; 0x367
 238:	74726f68 	ldrbtvc	r6, [r2], #-3944	; 0xf68
 23c:	746e6920 	strbtvc	r6, [lr], #-2336	; 0x920
 240:	73666900 	cmnvc	r6, #0, 18
 244:	65675f72 	strbvs	r5, [r7, #-3954]!	; 0xf72
 248:	6f6d0074 	svcvs	0x006d0074
 24c:	6c5f6564 	cfldr64vs	mvdx6, [pc], {100}	; 0x64
 250:	6c616765 	stclvs	7, cr6, [r1], #-404	; 0xfffffe6c
 254:	73617700 	cmnvc	r1, #0, 14
 258:	6265645f 	rsbvs	r6, r5, #1593835520	; 0x5f000000
 25c:	695f6775 	ldmdbvs	pc, {r0, r2, r4, r5, r6, r8, r9, sl, sp, lr}^	; <UNPREDICTABLE>
 260:	6674736e 	ldrbtvs	r7, [r4], -lr, ror #6
 264:	746c7561 	strbtvc	r7, [ip], #-1377	; 0x561
 268:	31706300 	cmncc	r0, r0, lsl #6
 26c:	6e655f34 	mcrvs	15, 3, r5, cr5, cr4, {1}
 270:	656c6261 	strbvs	r6, [ip, #-609]!	; 0x261
 274:	73706300 	cmnvc	r0, #0, 6
 278:	65675f72 	strbvs	r5, [r7, #-3954]!	; 0xf72
 27c:	70720074 	rsbsvc	r0, r2, r4, ror r0
 280:	65725f69 	ldrbvs	r5, [r2, #-3945]!	; 0xf69
 284:	5f746573 	svcpl	0x00746573
 288:	63747570 	cmnvs	r4, #112, 10	; 0x1c000000
 28c:	6b726200 	blvs	1c98a94 <__bss_end__+0x1c8ea6c>
 290:	7265765f 	rsbvc	r7, r5, #99614720	; 0x5f00000
 294:	65736f62 	ldrbvs	r6, [r3, #-3938]!	; 0xf62
 298:	6400705f 	strvs	r7, [r0], #-95	; 0x5f
 29c:	00656e6f 	rsbeq	r6, r5, pc, ror #28
 2a0:	61746164 	cmnvs	r4, r4, ror #2
 2a4:	6f62615f 	svcvs	0x0062615f
 2a8:	765f7472 			; <UNDEFINED> instruction: 0x765f7472
 2ac:	6f746365 	svcvs	0x00746365
 2b0:	72700072 	rsbsvc	r0, r0, #114	; 0x72
 2b4:	74656665 	strbtvc	r6, [r5], #-1637	; 0x665
 2b8:	615f6863 	cmpvs	pc, r3, ror #16
 2bc:	74726f62 	ldrbtvc	r6, [r2], #-3938	; 0xf62
 2c0:	6365765f 	cmnvs	r5, #99614720	; 0x5f00000
 2c4:	00726f74 	rsbseq	r6, r2, r4, ror pc
 2c8:	5f736177 	svcpl	0x00736177
 2cc:	75626564 	strbvc	r6, [r2, #-1380]!	; 0x564
 2d0:	61645f67 	cmnvs	r4, r7, ror #30
 2d4:	61666174 	smcvs	26132	; 0x6614
 2d8:	00746c75 	rsbseq	r6, r4, r5, ror ip
 2dc:	34317063 	ldrtcc	r7, [r1], #-99	; 0x63
 2e0:	6265642d 	rsbvs	r6, r5, #754974720	; 0x2d000000
 2e4:	632e6775 	teqvs	lr, #30670848	; 0x1d40000
 2e8:	63736400 	cmnvs	r3, #0, 8
 2ec:	65735f72 	ldrbvs	r5, [r3, #-3954]!	; 0xf72
 2f0:	63770074 	cmnvs	r7, #116	; 0x74
 2f4:	725f3072 	subsvc	r3, pc, #114	; 0x72
 2f8:	77006765 	strvc	r6, [r0, -r5, ror #14]
 2fc:	5f307263 	svcpl	0x00307263
 300:	00746567 	rsbseq	r6, r4, r7, ror #10
 304:	74696e69 	strbtvc	r6, [r9], #-3689	; 0xe69
 308:	6200705f 	andvs	r7, r0, #95	; 0x5f
 30c:	74706b72 	ldrbtvc	r6, [r0], #-2930	; 0xb72
 310:	6e61685f 	mcrvs	8, 3, r6, cr1, cr15, {2}
 314:	72656c64 	rsbvc	r6, r5, #100, 24	; 0x6400
 318:	70630030 	rsbvc	r0, r3, r0, lsr r0
 31c:	625f3431 	subsvs	r3, pc, #822083584	; 0x31000000
 320:	5f307263 	svcpl	0x00307263
 324:	00746573 	rsbseq	r6, r4, r3, ror r5
 328:	30727677 	rsbscc	r7, r2, r7, ror r6
 32c:	6c61765f 	stclvs	6, cr7, [r1], #-380	; 0xfffffe84
 330:	74617700 	strbtvc	r7, [r1], #-1792	; 0x700
 334:	74706863 	ldrbtvc	r6, [r0], #-2147	; 0x863
 338:	7465735f 	strbtvc	r7, [r5], #-863	; 0x35f
 33c:	76770030 			; <UNDEFINED> instruction: 0x76770030
 340:	735f3072 	cmpvc	pc, #114	; 0x72
 344:	62007465 	andvs	r7, r0, #1694498816	; 0x65000000
 348:	6e5f6b72 	vmovvs.s8	r6, d15[3]
 34c:	65725f6f 	ldrbvs	r5, [r2, #-3951]!	; 0xf6f
 350:	72655f74 	rsbvc	r5, r5, #116, 30	; 0x1d0
 354:	00726f72 	rsbseq	r6, r2, r2, ror pc
 358:	34317063 	ldrtcc	r7, [r1], #-99	; 0x63
 35c:	7263625f 	rsbvc	r6, r3, #-268435451	; 0xf0000005
 360:	65675f30 	strbvs	r5, [r7, #-3888]!	; 0xf30
 364:	66640074 			; <UNDEFINED> instruction: 0x66640074
 368:	765f7273 			; <UNDEFINED> instruction: 0x765f7273
 36c:	69006c61 	stmdbvs	r0, {r0, r5, r6, sl, fp, sp, lr}
 370:	5f726166 	svcpl	0x00726166
 374:	00746567 	rsbseq	r6, r4, r7, ror #10
 378:	63746177 	cmnvs	r4, #-1073741795	; 0xc000001d
 37c:	5f747068 	svcpl	0x00747068
 380:	646e6168 	strbtvs	r6, [lr], #-360	; 0x168
 384:	3072656c 	rsbscc	r6, r2, ip, ror #10
 388:	74616400 	strbtvc	r6, [r1], #-1024	; 0x400
 38c:	75616661 	strbvc	r6, [r1, #-1633]!	; 0x661
 390:	665f746c 	ldrbvs	r7, [pc], -ip, ror #8
 394:	5f6d6f72 	svcpl	0x006d6f72
 398:	6300646c 	movwvs	r6, #1132	; 0x46c
 39c:	5f343170 	svcpl	0x00343170
 3a0:	30727662 	rsbscc	r7, r2, r2, ror #12
 3a4:	7465735f 	strbtvc	r7, [r5], #-863	; 0x35f
 3a8:	73617700 	cmnvc	r1, #0, 14
 3ac:	6265645f 	rsbvs	r6, r5, #1593835520	; 0x5f000000
 3b0:	61666775 	smcvs	26229	; 0x6675
 3b4:	5f746c75 	svcpl	0x00746c75
 3b8:	666e0072 			; <UNDEFINED> instruction: 0x666e0072
 3bc:	746c7561 	strbtvc	r7, [ip], #-1377	; 0x561
 3c0:	76620073 			; <UNDEFINED> instruction: 0x76620073
 3c4:	765f3072 			; <UNDEFINED> instruction: 0x765f3072
 3c8:	64006c61 	strvs	r6, [r0], #-3169	; 0xc61
 3cc:	5f727366 	svcpl	0x00727366
 3d0:	00746567 	rsbseq	r6, r4, r7, ror #10
 3d4:	63737973 	cmnvs	r3, #1884160	; 0x1cc000
 3d8:	5f6c6c61 	svcpl	0x006c6c61
 3dc:	74636576 	strbtvc	r6, [r3], #-1398	; 0x576
 3e0:	5f00726f 	svcpl	0x0000726f
 3e4:	72646461 	rsbvc	r6, r4, #1627389952	; 0x61000000
 3e8:	65727000 	ldrbvs	r7, [r2, #-0]!
 3ec:	63746566 	cmnvs	r4, #427819008	; 0x19800000
 3f0:	6c665f68 	stclvs	15, cr5, [r6], #-416	; 0xfffffe60
 3f4:	5f687375 	svcpl	0x00687375
 3f8:	00746573 	rsbseq	r6, r4, r3, ror r5
 3fc:	30726362 	rsbscc	r6, r2, r2, ror #6
 400:	6765725f 			; <UNDEFINED> instruction: 0x6765725f
 404:	61667700 	cmnvs	r6, r0, lsl #14
 408:	65675f72 	strbvs	r5, [r7, #-3954]!	; 0xf72
 40c:	79730074 	ldmdbvc	r3!, {r2, r4, r5, r6}^
 410:	756e5f73 	strbvc	r5, [lr, #-3955]!	; 0xf73
 414:	7262006d 	rsbvc	r0, r2, #109	; 0x6d
 418:	5f74706b 	svcpl	0x0074706b
 41c:	30746573 	rsbscc	r6, r4, r3, ror r5
 420:	72637700 	rsbvc	r7, r3, #0, 14
 424:	65735f30 	ldrbvs	r5, [r3, #-3888]!	; 0xf30
 428:	6e690074 	mcrvs	0, 3, r0, cr9, cr4, {3}
 42c:	6e695f74 	mcrvs	15, 3, r5, cr9, cr4, {3}
 430:	5f007469 	svcpl	0x00007469
 434:	756e675f 	strbvc	r6, [lr, #-1887]!	; 0x75f
 438:	61765f63 	cmnvs	r6, r3, ror #30
 43c:	73696c5f 	cmnvc	r9, #24320	; 0x5f00
 440:	696c0074 	stmdbvs	ip!, {r2, r4, r5, r6}^
 444:	702f6362 	eorvc	r6, pc, r2, ror #6
 448:	746e6972 	strbtvc	r6, [lr], #-2418	; 0x972
 44c:	00632e6b 	rsbeq	r2, r3, fp, ror #28
 450:	20554e47 	subscs	r4, r5, r7, asr #28
 454:	2e342043 	cdpcs	0, 3, cr2, cr4, cr3, {2}
 458:	20332e38 	eorscs	r2, r3, r8, lsr lr
 45c:	70636d2d 	rsbvc	r6, r3, sp, lsr #26
 460:	72613d75 	rsbvc	r3, r1, #7488	; 0x1d40
 464:	3731316d 	ldrcc	r3, [r1, -sp, ror #2]!
 468:	667a6a36 			; <UNDEFINED> instruction: 0x667a6a36
 46c:	2d20732d 	stccs	3, cr7, [r0, #-180]!	; 0xffffff4c
 470:	6e75746d 	cdpvs	4, 7, cr7, cr5, cr13, {3}
 474:	72613d65 	rsbvc	r3, r1, #6464	; 0x1940
 478:	3731316d 	ldrcc	r3, [r1, -sp, ror #2]!
 47c:	667a6a36 			; <UNDEFINED> instruction: 0x667a6a36
 480:	2d20732d 	stccs	3, cr7, [r0, #-180]!	; 0xffffff4c
 484:	62646767 	rsbvs	r6, r4, #27000832	; 0x19c0000
 488:	674f2d20 	strbvs	r2, [pc, -r0, lsr #26]
 48c:	74732d20 	ldrbtvc	r2, [r3], #-3360	; 0xd20
 490:	6e673d64 	cdpvs	13, 6, cr3, cr7, cr4, {3}
 494:	20393975 	eorscs	r3, r9, r5, ror r9
 498:	7266662d 	rsbvc	r6, r6, #47185920	; 0x2d00000
 49c:	74736565 	ldrbtvc	r6, [r3], #-1381	; 0x565
 4a0:	69646e61 	stmdbvs	r4!, {r0, r5, r6, r9, sl, fp, sp, lr}^
 4a4:	7600676e 	strvc	r6, [r0], -lr, ror #14
 4a8:	72705f61 	rsbsvc	r5, r0, #388	; 0x184
 4ac:	6b746e69 	blvs	1d1be58 <__bss_end__+0x1d11e30>
 4b0:	765f5f00 	ldrbvc	r5, [pc], -r0, lsl #30
 4b4:	696c5f61 	stmdbvs	ip!, {r0, r5, r6, r8, r9, sl, fp, ip, lr}^
 4b8:	2f007473 	svccs	0x00007473
 4bc:	72657355 	rsbvc	r7, r5, #1409286145	; 0x54000001
 4c0:	72622f73 	rsbvc	r2, r2, #460	; 0x1cc
 4c4:	6a6e6169 	bvs	1b98a70 <__bss_end__+0x1b8ea48>
 4c8:	442f6e75 	strtmi	r6, [pc], #-3701	; 4d0 <__code_start__-0x7b30>
 4cc:	746b7365 	strbtvc	r7, [fp], #-869	; 0x365
 4d0:	732f706f 	teqvc	pc, #111	; 0x6f
 4d4:	6f6f6863 	svcvs	0x006f6863
 4d8:	70532f6c 	subsvc	r2, r3, ip, ror #30
 4dc:	676e6972 			; <UNDEFINED> instruction: 0x676e6972
 4e0:	30323931 	eorscc	r3, r2, r1, lsr r9
 4e4:	3253432f 	subscc	r4, r3, #-1140850688	; 0xbc000000
 4e8:	584c3034 	stmdapl	ip, {r2, r4, r5, ip, sp}^
 4ec:	3273632f 	rsbscc	r6, r3, #-1140850688	; 0xbc000000
 4f0:	786c3034 	stmdavc	ip!, {r2, r4, r5, ip, sp}^
 4f4:	7330322d 	teqvc	r0, #-805306366	; 0xd0000002
 4f8:	6c2f7270 	sfmvs	f7, 4, [pc], #-448	; 340 <__code_start__-0x7cc0>
 4fc:	69706269 	ldmdbvs	r0!, {r0, r3, r5, r6, r9, sp, lr}^
 500:	615f5f00 	cmpvs	pc, r0, lsl #30
 504:	61750070 	cmnvs	r5, r0, ror r0
 508:	705f7472 	subsvc	r7, pc, r2, ror r4	; <UNPREDICTABLE>
 50c:	00637475 	rsbeq	r7, r3, r5, ror r4
 510:	65746e69 	ldrbvs	r6, [r4, #-3689]!	; 0xe69
 514:	6c616e72 	stclvs	14, cr6, [r1], #-456	; 0xfffffe38
 518:	7475705f 	ldrbtvc	r7, [r5], #-95	; 0x5f
 51c:	72616863 	rsbvc	r6, r1, #6488064	; 0x630000
 520:	69707200 	ldmdbvs	r0!, {r9, ip, sp, lr}^
 524:	7475705f 	ldrbtvc	r7, [r5], #-95	; 0x5f
 528:	72616863 	rsbvc	r6, r1, #6488064	; 0x630000
 52c:	62696c00 	rsbvs	r6, r9, #0, 24
 530:	75702f63 	ldrbvc	r2, [r0, #-3939]!	; 0xf63
 534:	61686374 	smcvs	34356	; 0x8634
 538:	00632e72 	rsbeq	r2, r3, r2, ror lr
 53c:	5f697072 	svcpl	0x00697072
 540:	5f746573 	svcpl	0x00746573
 544:	63747570 	cmnvs	r4, #112, 10	; 0x1c000000
 548:	62696c00 	rsbvs	r6, r9, #0, 24
 54c:	75702f63 	ldrbvc	r2, [r0, #-3939]!	; 0xf63
 550:	632e6b74 	teqvs	lr, #116, 22	; 0x1d000
 554:	746e6900 	strbtvc	r6, [lr], #-2304	; 0x900
 558:	616e7265 	cmnvs	lr, r5, ror #4
 55c:	75705f6c 	ldrbvc	r5, [r0, #-3948]!	; 0xf6c
 560:	66006b74 			; <UNDEFINED> instruction: 0x66006b74
 564:	735f746d 	cmpvc	pc, #1828716544	; 0x6d000000
 568:	74726174 	ldrbtvc	r6, [r2], #-372	; 0x174
 56c:	67656e00 	strbvs	r6, [r5, -r0, lsl #28]!
 570:	7200705f 	andvc	r7, r0, #95	; 0x5f
 574:	72657665 	rsbvc	r7, r5, #105906176	; 0x6500000
 578:	69006573 	stmdbvs	r0, {r0, r1, r4, r5, r6, r8, sl, sp, lr}
 57c:	67696473 			; <UNDEFINED> instruction: 0x67696473
 580:	70007469 	andvc	r7, r0, r9, ror #8
 584:	5f737475 	svcpl	0x00737475
 588:	73007066 	movwvc	r7, #102	; 0x66
 58c:	656e6769 	strbvs	r6, [lr, #-1897]!	; 0x769
 590:	00705f64 	rsbseq	r5, r0, r4, ror #30
 594:	6362696c 	cmnvs	r2, #108, 18	; 0x1b0000
 598:	2d61762f 	stclcs	6, cr7, [r1, #-188]!	; 0xffffff44
 59c:	6e697270 	mcrvs	2, 3, r7, cr9, cr0, {3}
 5a0:	632e6b74 	teqvs	lr, #116, 22	; 0x1d000
 5a4:	69707200 	ldmdbvs	r0!, {r9, ip, sp, lr}^
 5a8:	7465735f 	strbtvc	r7, [r5], #-863	; 0x35f
 5ac:	74756f5f 	ldrbtvc	r6, [r5], #-3935	; 0xf5f
 5b0:	00747570 	rsbseq	r7, r4, r0, ror r5
 5b4:	74646977 	strbtvc	r6, [r4], #-2423	; 0x977
 5b8:	75700068 	ldrbvc	r0, [r0, #-104]!	; 0x68
 5bc:	665f6374 			; <UNDEFINED> instruction: 0x665f6374
 5c0:	6d650070 	stclvs	0, cr0, [r5, #-448]!	; 0xfffffe40
 5c4:	64007469 	strvs	r7, [r0], #-1129	; 0x469
 5c8:	62617369 	rsbvs	r7, r1, #-1543503871	; 0xa4000001
 5cc:	635f656c 	cmpvs	pc, #108, 10	; 0x1b000000
 5d0:	65686361 	strbvs	r6, [r8, #-865]!	; 0x361
 5d4:	61747300 	cmnvs	r4, r0, lsl #6
 5d8:	732d6666 	teqvc	sp, #106954752	; 0x6600000
 5dc:	632f6372 	teqvs	pc, #-939524095	; 0xc8000001
 5e0:	65686361 	strbvs	r6, [r8, #-865]!	; 0x361
 5e4:	7200632e 	andvc	r6, r0, #-1207959552	; 0xb8000000
 5e8:	6f6f6265 	svcvs	0x006f6265
 5ec:	61685f74 	smcvs	34292	; 0x85f4
 5f0:	656c646e 	strbvs	r6, [ip, #-1134]!	; 0x46e
 5f4:	74730072 	ldrbtvc	r0, [r3], #-114	; 0x72
 5f8:	2d666661 	stclcs	6, cr6, [r6, #-388]!	; 0xfffffe7c
 5fc:	2f637273 	svccs	0x00637273
 600:	61656c63 	cmnvs	r5, r3, ror #24
 604:	65722d6e 	ldrbvs	r2, [r2, #-3438]!	; 0xd6e
 608:	746f6f62 	strbtvc	r6, [pc], #-3938	; 610 <__code_start__-0x79f0>
 60c:	7200632e 	andvc	r6, r0, #-1207959552	; 0xb8000000
 610:	725f6970 	subsvc	r6, pc, #112, 18	; 0x1c0000
 614:	6f6f6265 	svcvs	0x006f6265
 618:	65640074 	strbvs	r0, [r4, #-116]!	; 0x74
 61c:	5f79616c 	svcpl	0x0079616c
 620:	5f00736d 	svcpl	0x0000736d
 624:	7373625f 	cmnvc	r3, #-268435451	; 0xf0000005
 628:	6174735f 	cmnvs	r4, pc, asr r3
 62c:	5f5f7472 	svcpl	0x005f7472
 630:	625f5f00 	subsvs	r5, pc, #0, 30
 634:	655f7373 	ldrbvs	r7, [pc, #-883]	; 2c9 <__code_start__-0x7d37>
 638:	5f5f646e 	svcpl	0x005f646e
 63c:	74736300 	ldrbtvc	r6, [r3], #-768	; 0x300
 640:	5f747261 	svcpl	0x00747261
 644:	646e6168 	strbtvs	r6, [lr], #-360	; 0x168
 648:	0072656c 	rsbseq	r6, r2, ip, ror #10
 64c:	5f737362 	svcpl	0x00737362
 650:	00646e65 	rsbeq	r6, r4, r5, ror #28
 654:	7473635f 	ldrbtvc	r6, [r3], #-863	; 0x35f
 658:	00747261 	rsbseq	r7, r4, r1, ror #4
 65c:	66617473 			; <UNDEFINED> instruction: 0x66617473
 660:	72732d66 	rsbsvc	r2, r3, #6528	; 0x1980
 664:	73632f63 	cmnvc	r3, #396	; 0x18c
 668:	74726174 	ldrbtvc	r6, [r2], #-372	; 0x174
 66c:	7300632e 	movwvc	r6, #814	; 0x32e
 670:	66666174 			; <UNDEFINED> instruction: 0x66666174
 674:	6372732d 	cmnvs	r2, #-1275068416	; 0xb4000000
 678:	6665642f 	strbtvs	r6, [r5], -pc, lsr #8
 67c:	746c7561 	strbtvc	r7, [ip], #-1377	; 0x561
 680:	6e61682d 	cdpvs	8, 6, cr6, cr1, cr13, {1}
 684:	72656c64 	rsbvc	r6, r5, #100, 24	; 0x6400
 688:	7361662d 	cmnvc	r1, #47185920	; 0x2d00000
 68c:	00632e74 	rsbeq	r2, r3, r4, ror lr
 690:	74736166 	ldrbtvc	r6, [r3], #-358	; 0x166
 694:	746e695f 	strbtvc	r6, [lr], #-2399	; 0x95f
 698:	75727265 	ldrbvc	r7, [r2, #-613]!	; 0x265
 69c:	765f7470 			; <UNDEFINED> instruction: 0x765f7470
 6a0:	6f746365 	svcvs	0x00746365
 6a4:	65720072 	ldrbvs	r0, [r2, #-114]!	; 0x72
 6a8:	5f746573 	svcpl	0x00746573
 6ac:	74636576 	strbtvc	r6, [r3], #-1398	; 0x576
 6b0:	7300726f 	movwvc	r7, #623	; 0x26f
 6b4:	66666174 			; <UNDEFINED> instruction: 0x66666174
 6b8:	6372732d 	cmnvs	r2, #-1275068416	; 0xb4000000
 6bc:	6665642f 	strbtvs	r6, [r5], -pc, lsr #8
 6c0:	746c7561 	strbtvc	r7, [ip], #-1377	; 0x561
 6c4:	6e61682d 	cdpvs	8, 6, cr6, cr1, cr13, {1}
 6c8:	72656c64 	rsbvc	r6, r5, #100, 24	; 0x6400
 6cc:	7365722d 	cmnvc	r5, #-805306366	; 0xd0000002
 6d0:	632e7465 	teqvs	lr, #1694498816	; 0x65000000
 6d4:	61747300 	cmnvs	r4, r0, lsl #6
 6d8:	732d6666 	teqvc	sp, #106954752	; 0x6600000
 6dc:	642f6372 	strtvs	r6, [pc], #-882	; 6e4 <__code_start__-0x791c>
 6e0:	75616665 	strbvc	r6, [r1, #-1637]!	; 0x665
 6e4:	682d746c 	stmdavs	sp!, {r2, r3, r5, r6, sl, ip, sp, lr}
 6e8:	6c646e61 	stclvs	14, cr6, [r4], #-388	; 0xfffffe7c
 6ec:	752d7265 	strvc	r7, [sp, #-613]!	; 0x265
 6f0:	6665646e 	strbtvs	r6, [r5], -lr, ror #8
 6f4:	64656e69 	strbtvs	r6, [r5], #-3689	; 0xe69
 6f8:	736e692d 	cmnvc	lr, #737280	; 0xb4000
 6fc:	00632e74 	rsbeq	r2, r3, r4, ror lr
 700:	65646e75 	strbvs	r6, [r4, #-3701]!	; 0xe75
 704:	656e6966 	strbvs	r6, [lr, #-2406]!	; 0x966
 708:	6e695f64 	cdpvs	15, 6, cr5, cr9, cr4, {3}
 70c:	75727473 	ldrbvc	r7, [r2, #-1139]!	; 0x473
 710:	6f697463 	svcvs	0x00697463
 714:	65765f6e 	ldrbvs	r5, [r6, #-3950]!	; 0xf6e
 718:	726f7463 	rsbvc	r7, pc, #1660944384	; 0x63000000
 71c:	61747300 	cmnvs	r4, r0, lsl #6
 720:	732d6666 	teqvc	sp, #106954752	; 0x6600000
 724:	642f6372 	strtvs	r6, [pc], #-882	; 72c <__code_start__-0x78d4>
 728:	75616665 	strbvc	r6, [r1, #-1637]!	; 0x665
 72c:	682d746c 	stmdavs	sp!, {r2, r3, r5, r6, sl, ip, sp, lr}
 730:	6c646e61 	stclvs	14, cr6, [r4], #-388	; 0xfffffe7c
 734:	2e737265 	cdpcs	2, 7, cr7, cr3, cr5, {3}
 738:	52490063 	subpl	r0, r9, #99	; 0x63
 73c:	65705f51 	ldrbvs	r5, [r0, #-3921]!	; 0xf51
 740:	6e69646e 	cdpvs	4, 6, cr6, cr9, cr14, {3}
 744:	00325f67 	eorseq	r5, r2, r7, ror #30
 748:	61736944 	cmnvs	r3, r4, asr #18
 74c:	5f656c62 	svcpl	0x00656c62
 750:	69736142 	ldmdbvs	r3!, {r1, r6, r8, sp, lr}^
 754:	52495f63 	subpl	r5, r9, #396	; 0x18c
 758:	46007351 			; <UNDEFINED> instruction: 0x46007351
 75c:	635f5149 	cmpvs	pc, #1073741842	; 0x40000012
 760:	72746e6f 	rsbsvc	r6, r4, #1776	; 0x6f0
 764:	5f006c6f 	svcpl	0x00006c6f
 768:	65746e69 	ldrbvs	r6, [r4, #-3689]!	; 0xe69
 76c:	70757272 	rsbsvc	r7, r5, r2, ror r2
 770:	61745f74 	cmnvs	r4, r4, ror pc
 774:	00656c62 	rsbeq	r6, r5, r2, ror #24
 778:	5f515249 	svcpl	0x00515249
 77c:	69736162 	ldmdbvs	r3!, {r1, r5, r6, r8, sp, lr}^
 780:	65705f63 	ldrbvs	r5, [r0, #-3939]!	; 0xf63
 784:	6e69646e 	cdpvs	4, 6, cr6, cr9, cr14, {3}
 788:	6e450067 	cdpvs	0, 4, cr0, cr5, cr7, {3}
 78c:	656c6261 	strbvs	r6, [ip, #-609]!	; 0x261
 790:	7361425f 	cmnvc	r1, #-268435451	; 0xf0000005
 794:	495f6369 	ldmdbmi	pc, {r0, r3, r5, r6, r8, r9, sp, lr}^	; <UNPREDICTABLE>
 798:	00735152 	rsbseq	r5, r3, r2, asr r1
 79c:	62616e45 	rsbvs	r6, r1, #1104	; 0x450
 7a0:	495f656c 	ldmdbmi	pc, {r2, r3, r5, r6, r8, sl, sp, lr}^	; <UNPREDICTABLE>
 7a4:	5f735152 	svcpl	0x00735152
 7a8:	6e450031 	mcrvs	0, 2, r0, cr5, cr1, {1}
 7ac:	656c6261 	strbvs	r6, [ip, #-609]!	; 0x261
 7b0:	5152495f 	cmppl	r2, pc, asr r9
 7b4:	00325f73 	eorseq	r5, r2, r3, ror pc
 7b8:	746e695f 	strbtvc	r6, [lr], #-2399	; 0x95f
 7bc:	75727265 	ldrbvc	r7, [r2, #-613]!	; 0x265
 7c0:	745f7470 	ldrbvc	r7, [pc], #-1136	; 7c8 <__code_start__-0x7838>
 7c4:	656c6261 	strbvs	r6, [ip, #-609]!	; 0x261
 7c8:	646e655f 	strbtvs	r6, [lr], #-1375	; 0x55f
 7cc:	76656400 	strbtvc	r6, [r5], -r0, lsl #8
 7d0:	7261625f 	rsbvc	r6, r1, #-268435451	; 0xf0000005
 7d4:	72656972 	rsbvc	r6, r5, #1867776	; 0x1c8000
 7d8:	61747300 	cmnvs	r4, r0, lsl #6
 7dc:	732d6666 	teqvc	sp, #106954752	; 0x6600000
 7e0:	692f6372 	stmdbvs	pc!, {r1, r4, r5, r6, r8, r9, sp, lr}	; <UNPREDICTABLE>
 7e4:	7265746e 	rsbvc	r7, r5, #1845493760	; 0x6e000000
 7e8:	74707572 	ldrbtvc	r7, [r0], #-1394	; 0x572
 7ec:	2e632d73 	mcrcs	13, 3, r2, cr3, cr3, {3}
 7f0:	52490063 	subpl	r0, r9, #99	; 0x63
 7f4:	61425f51 	cmpvs	r2, r1, asr pc
 7f8:	50006573 	andpl	r6, r0, r3, ror r5
 7fc:	32335455 	eorscc	r5, r3, #1426063360	; 0x55000000
 800:	73694400 	cmnvc	r9, #0, 8
 804:	656c6261 	strbvs	r6, [ip, #-609]!	; 0x261
 808:	5152495f 	cmppl	r2, pc, asr r9
 80c:	00315f73 	eorseq	r5, r1, r3, ror pc
 810:	61736944 	cmnvs	r3, r4, asr #18
 814:	5f656c62 	svcpl	0x00656c62
 818:	73515249 	cmpvc	r1, #-1879048188	; 0x90000004
 81c:	4900325f 	stmdbmi	r0, {r0, r1, r2, r3, r4, r6, r9, ip, sp}
 820:	705f5152 	subsvc	r5, pc, r2, asr r1	; <UNPREDICTABLE>
 824:	69646e65 	stmdbvs	r4!, {r0, r2, r5, r6, r9, sl, fp, sp, lr}^
 828:	315f676e 	cmpcc	pc, lr, ror #14
 82c:	5f746100 	svcpl	0x00746100
 830:	72657375 	rsbvc	r7, r5, #-738197503	; 0xd4000001
 834:	76656c5f 			; <UNDEFINED> instruction: 0x76656c5f
 838:	73006c65 	movwvc	r6, #3173	; 0xc65
 83c:	66666174 			; <UNDEFINED> instruction: 0x66666174
 840:	6372732d 	cmnvs	r2, #-1275068416	; 0xb4000000
 844:	6265722f 	rsbvs	r7, r5, #-268435454	; 0xf0000002
 848:	2e746f6f 	cdpcs	15, 7, cr6, cr4, cr15, {3}
 84c:	4d500063 	ldclmi	0, cr0, [r0, #-396]	; 0xfffffe74
 850:	5453525f 	ldrbpl	r5, [r3], #-607	; 0x25f
 854:	52575f43 	subspl	r5, r7, #268	; 0x10c
 858:	5f474643 	svcpl	0x00474643
 85c:	4c4c5546 	cfstr64mi	mvdx5, [ip], {70}	; 0x46
 860:	5345525f 	movtpl	r5, #21087	; 0x525f
 864:	50005445 	andpl	r5, r0, r5, asr #8
 868:	44575f4d 	ldrbmi	r5, [r7], #-3917	; 0xf4d
 86c:	7300474f 	movwvc	r4, #1871	; 0x74f
 870:	755f7465 	ldrbvc	r7, [pc, #-1125]	; 413 <__code_start__-0x7bed>
 874:	5f726573 	svcpl	0x00726573
 878:	6576656c 	ldrbvs	r6, [r6, #-1388]!	; 0x56c
 87c:	4d50006c 	ldclmi	0, cr0, [r0, #-432]	; 0xfffffe50
 880:	5341505f 	movtpl	r5, #4191	; 0x105f
 884:	524f5753 	subpl	r5, pc, #21757952	; 0x14c0000
 888:	4d500044 	ldclmi	0, cr0, [r0, #-272]	; 0xfffffef0
 88c:	5453525f 	ldrbpl	r5, [r3], #-607	; 0x25f
 890:	69740043 	ldmdbvs	r4!, {r0, r1, r6}^
 894:	5f72656d 	svcpl	0x0072656d
 898:	5f746567 	svcpl	0x00746567
 89c:	63657375 	cmnvs	r5, #-738197503	; 0xd4000001
 8a0:	7761725f 			; <UNDEFINED> instruction: 0x7761725f
 8a4:	6c656400 	cfstrdvs	mvd6, [r5], #-0
 8a8:	735f7961 	cmpvc	pc, #1589248	; 0x184000
 8ac:	73006365 	movwvc	r6, #869	; 0x365
 8b0:	66666174 			; <UNDEFINED> instruction: 0x66666174
 8b4:	6372732d 	cmnvs	r2, #-1275068416	; 0xb4000000
 8b8:	6d69742f 	cfstrdvs	mvd7, [r9, #-188]!	; 0xffffff44
 8bc:	632e7265 	teqvs	lr, #1342177286	; 0x50000006
 8c0:	54454700 	strbpl	r4, [r5], #-1792	; 0x700
 8c4:	74003233 	strvc	r3, [r0], #-563	; 0x233
 8c8:	736b6369 	cmnvc	fp, #-1543503871	; 0xa4000001
 8cc:	6c656400 	cfstrdvs	mvd6, [r5], #-0
 8d0:	635f7961 	cmpvs	pc, #1589248	; 0x184000
 8d4:	656c6379 	strbvs	r6, [ip, #-889]!	; 0x379
 8d8:	65640073 	strbvs	r0, [r4, #-115]!	; 0x73
 8dc:	5f79616c 	svcpl	0x0079616c
 8e0:	74007375 	strvc	r7, [r0], #-885	; 0x375
 8e4:	72656d69 	rsbvc	r6, r5, #6720	; 0x1a40
 8e8:	7465675f 	strbtvc	r6, [r5], #-1887	; 0x75f
 8ec:	6573755f 	ldrbvs	r7, [r3, #-1375]!	; 0x55f
 8f0:	645f0063 	ldrbvs	r0, [pc], #-99	; 8f8 <__code_start__-0x7708>
 8f4:	685f6f73 	ldmdavs	pc, {r0, r1, r4, r5, r6, r8, r9, sl, fp, sp, lr}^	; <UNPREDICTABLE>
 8f8:	6c646e61 	stclvs	14, cr6, [r4], #-388	; 0xfffffe7c
 8fc:	735f0065 	cmpvc	pc, #101	; 0x65
 900:	00657a69 	rsbeq	r7, r5, r9, ror #20
 904:	6e61725f 	mcrvs	2, 3, r7, cr1, cr15, {2}
 908:	00383464 	eorseq	r3, r8, r4, ror #8
 90c:	656d655f 	strbvs	r6, [sp, #-1375]!	; 0x55f
 910:	6e656772 	mcrvs	7, 3, r6, cr5, cr2, {3}
 914:	75007963 	strvc	r7, [r0, #-2403]	; 0x963
 918:	5f747261 	svcpl	0x00747261
 91c:	74696e69 	strbtvc	r6, [r9], #-3689	; 0xe69
 920:	63775f00 	cmnvs	r7, #0, 30
 924:	6d6f7472 	cfstrdvs	mvd7, [pc, #-456]!	; 764 <__code_start__-0x789c>
 928:	74735f62 	ldrbtvc	r5, [r3], #-3938	; 0xf62
 92c:	00657461 	rsbeq	r7, r5, r1, ror #8
 930:	7363775f 	cmnvc	r3, #24903680	; 0x17c0000
 934:	6d6f7472 	cfstrdvs	mvd7, [pc, #-456]!	; 774 <__code_start__-0x788c>
 938:	735f7362 	cmpvc	pc, #-2013265919	; 0x88000001
 93c:	65746174 	ldrbvs	r6, [r4, #-372]!	; 0x174
 940:	626c5f00 	rsbvs	r5, ip, #0, 30
 944:	7a697366 	bvc	1a5d6e4 <__bss_end__+0x1a536bc>
 948:	50470065 	subpl	r0, r7, r5, rrx
 94c:	465f4f49 	ldrbmi	r4, [pc], -r9, asr #30
 950:	5f434e55 	svcpl	0x00434e55
 954:	55504e49 	ldrbpl	r4, [r0, #-3657]	; 0xe49
 958:	6d5f0054 	ldclvs	0, cr0, [pc, #-336]	; 810 <__code_start__-0x77f0>
 95c:	6f747262 	svcvs	0x00747262
 960:	735f6377 	cmpvc	pc, #-603979775	; 0xdc000001
 964:	65746174 	ldrbvs	r6, [r4, #-372]!	; 0x174
 968:	63775f00 	cmnvs	r7, #0, 30
 96c:	626d6f74 	rsbvs	r6, sp, #116, 30	; 0x1d0
 970:	6174735f 	cmnvs	r4, pc, asr r3
 974:	5f006574 	svcpl	0x00006574
 978:	5f6d745f 	svcpl	0x006d745f
 97c:	00636573 	rsbeq	r6, r3, r3, ror r5
 980:	74617473 	strbtvc	r7, [r1], #-1139	; 0x473
 984:	62755f00 	rsbsvs	r5, r5, #0, 30
 988:	47006675 	smlsdxmi	r0, r5, r6, r6
 98c:	5f4f4950 	svcpl	0x004f4950
 990:	434e5546 	movtmi	r5, #58694	; 0xe546
 994:	544c415f 	strbpl	r4, [ip], #-351	; 0x15f
 998:	625f0031 	subsvs	r0, pc, #49	; 0x31
 99c:	00657361 	rsbeq	r7, r5, r1, ror #6
 9a0:	6c746e63 	ldclvs	14, cr6, [r4], #-396	; 0xfffffe74
 9a4:	745f5f00 	ldrbvc	r5, [pc], #-3840	; 9ac <__code_start__-0x7654>
 9a8:	6f685f6d 	svcvs	0x00685f6d
 9ac:	5f007275 	svcpl	0x00007275
 9b0:	0066735f 	rsbeq	r7, r6, pc, asr r3
 9b4:	5f6e6f5f 	svcpl	0x006e6f5f
 9b8:	74697865 	strbtvc	r7, [r9], #-2149	; 0x865
 9bc:	6772615f 			; <UNDEFINED> instruction: 0x6772615f
 9c0:	635f0073 	cmpvs	pc, #115	; 0x73
 9c4:	696b6f6f 	stmdbvs	fp!, {r0, r1, r2, r3, r5, r6, r8, r9, sl, fp, sp, lr}^
 9c8:	5f5f0065 	svcpl	0x005f0065
 9cc:	756c6773 	strbvc	r6, [ip, #-1907]!	; 0x773
 9d0:	665f0065 	ldrbvs	r0, [pc], -r5, rrx
 9d4:	7367616c 	cmnvc	r7, #108, 2
 9d8:	73695f00 	cmnvc	r9, #0, 30
 9dc:	6178635f 	cmnvs	r8, pc, asr r3
 9e0:	74735f00 	ldrbtvc	r5, [r3], #-3840	; 0xf00
 9e4:	006e6964 	rsbeq	r6, lr, r4, ror #18
 9e8:	6b6c625f 	blvs	1b1936c <__bss_end__+0x1b0f344>
 9ec:	657a6973 	ldrbvs	r6, [sl, #-2419]!	; 0x973
 9f0:	72617500 	rsbvc	r7, r1, #0, 10
 9f4:	00632e74 	rsbeq	r2, r3, r4, ror lr
 9f8:	5f787561 	svcpl	0x00787561
 9fc:	69726570 	ldmdbvs	r2!, {r4, r5, r6, r8, sl, sp, lr}^
 a00:	00736870 	rsbseq	r6, r3, r0, ror r8
 a04:	7476635f 	ldrbtvc	r6, [r6], #-863	; 0x35f
 a08:	00667562 	rsbeq	r7, r6, r2, ror #10
 a0c:	6d6f682f 	stclvs	8, cr6, [pc, #-188]!	; 958 <__code_start__-0x76a8>
 a10:	6e652f65 	cdpvs	15, 6, cr2, cr5, cr5, {3}
 a14:	72656c67 	rsbvc	r6, r5, #26368	; 0x6700
 a18:	616c632f 	cmnvs	ip, pc, lsr #6
 a1c:	632f7373 	teqvs	pc, #-872415231	; 0xcc000001
 a20:	30343273 	eorscc	r3, r4, r3, ror r2
 a24:	322d786c 	eorcc	r7, sp, #108, 16	; 0x6c0000
 a28:	72707330 	rsbsvc	r7, r0, #48, 6	; 0xc0000000
 a2c:	62696c2f 	rsbvs	r6, r9, #12032	; 0x2f00
 a30:	732f6970 	teqvc	pc, #112, 18	; 0x1c0000
 a34:	66666174 			; <UNDEFINED> instruction: 0x66666174
 a38:	6972702d 	ldmdbvs	r2!, {r0, r2, r3, r5, ip, sp, lr}^
 a3c:	65746176 	ldrbvs	r6, [r4, #-374]!	; 0x176
 a40:	626d5f00 	rsbvs	r5, sp, #0, 30
 a44:	6f747273 	svcvs	0x00747273
 a48:	5f736377 	svcpl	0x00736377
 a4c:	74617473 	strbtvc	r7, [r1], #-1139	; 0x473
 a50:	6d5f0065 	ldclvs	0, cr0, [pc, #-404]	; 8c4 <__code_start__-0x773c>
 a54:	656c7262 	strbvs	r7, [ip, #-610]!	; 0x262
 a58:	74735f6e 	ldrbtvc	r5, [r3], #-3950	; 0xf6e
 a5c:	00657461 	rsbeq	r7, r5, r1, ror #8
 a60:	616e665f 	cmnvs	lr, pc, asr r6
 a64:	00736772 	rsbseq	r6, r3, r2, ror r7
 a68:	5f787561 	svcpl	0x00787561
 a6c:	62616e65 	rsbvs	r6, r1, #1616	; 0x650
 a70:	0073656c 	rsbseq	r6, r3, ip, ror #10
 a74:	736e665f 	cmnvc	lr, #99614720	; 0x5f00000
 a78:	69735f00 	ldmdbvs	r3!, {r8, r9, sl, fp, ip, lr}^
 a7c:	75006e67 	strvc	r6, [r0, #-3687]	; 0xe67
 a80:	5f747261 	svcpl	0x00747261
 a84:	5f6e6163 	svcpl	0x006e6163
 a88:	63747570 	cmnvs	r4, #112, 10	; 0x1c000000
 a8c:	6c665f00 	stclvs	15, cr5, [r6], #-0
 a90:	5f6b636f 	svcpl	0x006b636f
 a94:	735f0074 	cmpvc	pc, #116	; 0x74
 a98:	72656474 	rsbvc	r6, r5, #116, 8	; 0x74000000
 a9c:	425f0072 	subsmi	r0, pc, #114	; 0x72
 aa0:	6e696769 	cdpvs	7, 6, cr6, cr9, cr9, {3}
 aa4:	675f0074 			; <UNDEFINED> instruction: 0x675f0074
 aa8:	616d6d61 	cmnvs	sp, r1, ror #26
 aac:	6769735f 			; <UNDEFINED> instruction: 0x6769735f
 ab0:	6d61676e 	stclvs	7, cr6, [r1, #-440]!	; 0xfffffe48
 ab4:	65725f00 	ldrbvs	r5, [r2, #-3840]!	; 0xf00
 ab8:	746c7573 	strbtvc	r7, [ip], #-1395	; 0x573
 abc:	5f006b5f 	svcpl	0x00006b5f
 ac0:	006d745f 	rsbeq	r7, sp, pc, asr r4
 ac4:	63775f5f 	cmnvs	r7, #380	; 0x17c
 ac8:	75006268 	strvc	r6, [r0, #-616]	; 0x268
 acc:	5f747261 	svcpl	0x00747261
 ad0:	63746567 	cmnvs	r4, #432013312	; 0x19c00000
 ad4:	74735f00 	ldrbtvc	r5, [r3], #-3840	; 0xf00
 ad8:	74756f64 	ldrbtvc	r6, [r5], #-3940	; 0xf64
 adc:	76635f00 	strbtvc	r5, [r3], -r0, lsl #30
 ae0:	6e656c74 	mcrvs	12, 3, r6, cr5, cr4, {3}
 ae4:	69665f00 	stmdbvs	r6!, {r8, r9, sl, fp, ip, lr}^
 ae8:	5f00656c 	svcpl	0x0000656c
 aec:	626f696e 	rsbvs	r6, pc, #1802240	; 0x1b8000
 af0:	615f0073 	cmpvs	pc, r3, ror r0	; <UNPREDICTABLE>
 af4:	69786574 	ldmdbvs	r8!, {r2, r4, r5, r6, r8, sl, sp, lr}^
 af8:	5f003074 	svcpl	0x00003074
 afc:	6e676973 	mcrvs	9, 3, r6, cr7, cr3, {3}
 b00:	625f6c61 	subsvs	r6, pc, #24832	; 0x6100
 b04:	5f006675 	svcpl	0x00006675
 b08:	74637361 	strbtvc	r7, [r3], #-865	; 0x361
 b0c:	5f656d69 	svcpl	0x00656d69
 b10:	00667562 	rsbeq	r7, r6, r2, ror #10
 b14:	7365725f 	cmnvc	r5, #-268435451	; 0xf0000005
 b18:	00746c75 	rsbseq	r6, r4, r5, ror ip
 b1c:	63775f5f 	cmnvs	r7, #380	; 0x17c
 b20:	50470068 	subpl	r0, r7, r8, rrx
 b24:	465f4f49 	ldrbmi	r4, [pc], -r9, asr #30
 b28:	5f434e55 	svcpl	0x00434e55
 b2c:	32544c41 	subscc	r4, r4, #16640	; 0x4100
 b30:	6e697700 	cdpvs	7, 6, cr7, cr9, cr0, {0}
 b34:	00745f74 	rsbseq	r5, r4, r4, ror pc
 b38:	636f6c5f 	cmnvs	pc, #24320	; 0x5f00
 b3c:	665f006b 	ldrbvs	r0, [pc], -fp, rrx
 b40:	7367616c 	cmnvc	r7, #108, 2
 b44:	5f5f0032 	svcpl	0x005f0032
 b48:	795f6d74 	ldmdbvc	pc, {r2, r4, r5, r6, r8, sl, fp, sp, lr}^	; <UNPREDICTABLE>
 b4c:	00726165 	rsbseq	r6, r2, r5, ror #2
 b50:	66666f5f 	uqsaxvs	r6, r6, pc	; <UNPREDICTABLE>
 b54:	00746573 	rsbseq	r6, r4, r3, ror r5
 b58:	6f697067 	svcvs	0x00697067
 b5c:	7465735f 	strbtvc	r7, [r5], #-863	; 0x35f
 b60:	6e75665f 	mrcvs	6, 3, r6, cr5, cr15, {2}
 b64:	6f697463 	svcvs	0x00697463
 b68:	6e5f006e 	cdpvs	0, 5, cr0, cr15, cr14, {3}
 b6c:	66747865 	ldrbtvs	r7, [r4], -r5, ror #16
 b70:	745f5f00 	ldrbvc	r5, [pc], #-3840	; b78 <__code_start__-0x7488>
 b74:	6f6d5f6d 	svcvs	0x006d5f6d
 b78:	615f006e 	cmpvs	pc, lr, rrx
 b7c:	69786574 	ldmdbvs	r8!, {r2, r4, r5, r6, r8, sl, sp, lr}^
 b80:	5f5f0074 	svcpl	0x005f0074
 b84:	64696473 	strbtvs	r6, [r9], #-1139	; 0x473
 b88:	74696e69 	strbtvc	r6, [r9], #-3689	; 0xe69
 b8c:	666f5f00 	strbtvs	r5, [pc], -r0, lsl #30
 b90:	00745f66 	rsbseq	r5, r4, r6, ror #30
 b94:	74726175 	ldrbtvc	r6, [r2], #-373	; 0x175
 b98:	72665f00 	rsbvc	r5, r6, #0, 30
 b9c:	696c6565 	stmdbvs	ip!, {r0, r2, r5, r6, r8, sl, sp, lr}^
 ba0:	5f007473 	svcpl	0x00007473
 ba4:	4b434f4c 	blmi	10d48dc <__bss_end__+0x10ca8b4>
 ba8:	4345525f 	movtmi	r5, #21087	; 0x525f
 bac:	49535255 	ldmdbmi	r3, {r0, r2, r4, r6, r9, ip, lr}^
 bb0:	545f4556 	ldrbpl	r4, [pc], #-1366	; bb8 <__code_start__-0x7448>
 bb4:	656e5f00 	strbvs	r5, [lr, #-3840]!	; 0xf00
 bb8:	685f0077 	ldmdavs	pc, {r0, r1, r2, r4, r5, r6}^	; <UNPREDICTABLE>
 bbc:	7272655f 	rsbsvc	r6, r2, #398458880	; 0x17c00000
 bc0:	5f006f6e 	svcpl	0x00006f6e
 bc4:	5f6d745f 	svcpl	0x006d745f
 bc8:	79616479 	stmdbvc	r1!, {r0, r3, r4, r5, r6, sl, sp, lr}^
 bcc:	735f5f00 	cmpvc	pc, #0, 30
 bd0:	00667562 	rsbeq	r7, r6, r2, ror #10
 bd4:	626f695f 	rsbvs	r6, pc, #1556480	; 0x17c000
 bd8:	5f5f0073 	svcpl	0x005f0073
 bdc:	454c4946 	strbmi	r4, [ip, #-2374]	; 0x946
 be0:	626d5f00 	rsbvs	r5, sp, #0, 30
 be4:	74617473 	strbtvc	r7, [r1], #-1139	; 0x473
 be8:	00745f65 	rsbseq	r5, r4, r5, ror #30
 bec:	46735f5f 	uhsaxmi	r5, r3, pc	; <UNPREDICTABLE>
 bf0:	00454c49 	subeq	r4, r5, r9, asr #24
 bf4:	73626d5f 	cmnvc	r2, #6080	; 0x17c0
 bf8:	65746174 	ldrbvs	r6, [r4, #-372]!	; 0x174
 bfc:	61725f00 	cmnvs	r2, r0, lsl #30
 c00:	6e5f646e 	cdpvs	4, 5, cr6, cr15, cr14, {3}
 c04:	00747865 	rsbseq	r7, r4, r5, ror #16
 c08:	6c626d5f 	stclvs	13, cr6, [r2], #-380	; 0xfffffe84
 c0c:	735f6e65 	cmpvc	pc, #1616	; 0x650
 c10:	65746174 	ldrbvs	r6, [r4, #-372]!	; 0x174
 c14:	6e695f00 	cdpvs	15, 6, cr5, cr9, cr0, {0}
 c18:	695f0063 	ldmdbvs	pc, {r0, r1, r5, r6}^	; <UNPREDICTABLE>
 c1c:	5f00646e 	svcpl	0x0000646e
 c20:	72727563 	rsbsvc	r7, r2, #415236096	; 0x18c00000
 c24:	5f746e65 	svcpl	0x00746e65
 c28:	61636f6c 	cmnvs	r3, ip, ror #30
 c2c:	5f00656c 	svcpl	0x0000656c
 c30:	656c635f 	strbvs	r6, [ip, #-863]!	; 0x35f
 c34:	70756e61 	rsbsvc	r6, r5, r1, ror #28
 c38:	616d5f00 	cmnvs	sp, r0, lsl #30
 c3c:	73647778 	cmnvc	r4, #120, 14	; 0x1e00000
 c40:	65725f00 	ldrbvs	r5, [r2, #-3840]!	; 0xf00
 c44:	00746e65 	rsbseq	r6, r4, r5, ror #28
 c48:	6565735f 	strbvs	r7, [r5, #-863]!	; 0x35f
 c4c:	5f5f0064 	svcpl	0x005f0064
 c50:	6e756f63 	cdpvs	15, 7, cr6, cr5, cr3, {3}
 c54:	5f5f0074 	svcpl	0x005f0074
 c58:	756c6176 	strbvc	r6, [ip, #-374]!	; 0x176
 c5c:	735f0065 	cmpvc	pc, #101	; 0x65
 c60:	006b6565 	rsbeq	r6, fp, r5, ror #10
 c64:	64756162 	ldrbtvs	r6, [r5], #-354	; 0x162
 c68:	70665f00 	rsbvc	r5, r6, r0, lsl #30
 c6c:	745f736f 	ldrbvc	r7, [pc], #-879	; c74 <__code_start__-0x738c>
 c70:	745f5f00 	ldrbvc	r5, [pc], #-3840	; c78 <__code_start__-0x7388>
 c74:	696d5f6d 	stmdbvs	sp!, {r0, r2, r3, r5, r6, r8, r9, sl, fp, ip, lr}^
 c78:	6373006e 	cmnvs	r3, #110	; 0x6e
 c7c:	63746172 	cmnvs	r4, #-2147483620	; 0x8000001c
 c80:	6d5f0068 	ldclvs	0, cr0, [pc, #-416]	; ae8 <__code_start__-0x7518>
 c84:	00746c75 	rsbseq	r6, r4, r5, ror ip
 c88:	33747570 	cmncc	r4, #112, 10	; 0x1c000000
 c8c:	4e470032 	mcrmi	0, 2, r0, cr7, cr2, {1}
 c90:	39432055 	stmdbcc	r3, {r0, r2, r4, r6, sp}^
 c94:	2e362039 	mrccs	0, 1, r2, cr6, cr9, {1}
 c98:	20312e33 	eorscs	r2, r1, r3, lsr lr
 c9c:	37313032 			; <UNDEFINED> instruction: 0x37313032
 ca0:	30323630 	eorscc	r3, r2, r0, lsr r6
 ca4:	636d2d20 	cmnvs	sp, #32, 26	; 0x800
 ca8:	613d7570 	teqvs	sp, r0, ror r5
 cac:	31316d72 	teqcc	r1, r2, ror sp
 cb0:	7a6a3637 	bvc	1a8e594 <__bss_end__+0x1a8456c>
 cb4:	20732d66 	rsbscs	r2, r3, r6, ror #26
 cb8:	75746d2d 	ldrbvc	r6, [r4, #-3373]!	; 0xd2d
 cbc:	613d656e 	teqvs	sp, lr, ror #10
 cc0:	31316d72 	teqcc	r1, r2, ror sp
 cc4:	7a6a3637 	bvc	1a8e5a8 <__bss_end__+0x1a84580>
 cc8:	20732d66 	rsbscs	r2, r3, r6, ror #26
 ccc:	6467672d 	strbtvs	r6, [r7], #-1837	; 0x72d
 cd0:	4f2d2062 	svcmi	0x002d2062
 cd4:	732d2067 	teqvc	sp, #103	; 0x67
 cd8:	673d6474 			; <UNDEFINED> instruction: 0x673d6474
 cdc:	3939756e 	ldmdbcc	r9!, {r1, r2, r3, r5, r6, r8, sl, ip, sp, lr}
 ce0:	66662d20 	strbtvs	r2, [r6], -r0, lsr #26
 ce4:	73656572 	cmnvc	r5, #478150656	; 0x1c800000
 ce8:	646e6174 	strbtvs	r6, [lr], #-372	; 0x174
 cec:	00676e69 	rsbeq	r6, r7, r9, ror #28
 cf0:	7274735f 	rsbsvc	r7, r4, #2080374785	; 0x7c000001
 cf4:	5f6b6f74 	svcpl	0x006b6f74
 cf8:	7473616c 	ldrbtvc	r6, [r3], #-364	; 0x16c
 cfc:	6e665f00 	cdpvs	15, 6, cr5, cr6, cr0, {0}
 d00:	65707974 	ldrbvs	r7, [r0, #-2420]!	; 0x974
 d04:	615f0073 	cmpvs	pc, r3, ror r0	; <UNPREDICTABLE>
 d08:	5f006464 	svcpl	0x00006464
 d0c:	6f4c555f 	svcvs	0x004c555f
 d10:	5f00676e 	svcpl	0x0000676e
 d14:	64746567 	ldrbtvs	r6, [r4], #-1383	; 0x567
 d18:	5f657461 	svcpl	0x00657461
 d1c:	00727265 	rsbseq	r7, r2, r5, ror #4
 d20:	6f6c675f 	svcvs	0x006c675f
 d24:	5f6c6162 	svcpl	0x006c6162
 d28:	75706d69 	ldrbvc	r6, [r0, #-3433]!	; 0xd69
 d2c:	705f6572 	subsvc	r6, pc, r2, ror r5	; <UNPREDICTABLE>
 d30:	5f007274 	svcpl	0x00007274
 d34:	72727563 	rsbsvc	r7, r2, #415236096	; 0x18c00000
 d38:	5f746e65 	svcpl	0x00746e65
 d3c:	65746163 	ldrbvs	r6, [r4, #-355]!	; 0x163
 d40:	79726f67 	ldmdbvc	r2!, {r0, r1, r2, r5, r6, r8, r9, sl, fp, sp, lr}^
 d44:	6e755f00 	cdpvs	15, 7, cr5, cr5, cr0, {0}
 d48:	64657375 	strbtvs	r7, [r5], #-885	; 0x375
 d4c:	6e61725f 	mcrvs	2, 3, r7, cr1, cr15, {2}
 d50:	775f0064 	ldrbvc	r0, [pc, -r4, rrx]
 d54:	5f007364 	svcpl	0x00007364
 d58:	5f6d745f 	svcpl	0x006d745f
 d5c:	79616477 	stmdbvc	r1!, {r0, r1, r2, r4, r5, r6, sl, sp, lr}^
 d60:	6c675f00 	stclvs	15, cr5, [r7], #-0
 d64:	47006575 	smlsdxmi	r0, r5, r5, r6
 d68:	5f4f4950 	svcpl	0x004f4950
 d6c:	434e5546 	movtmi	r5, #58694	; 0xe546
 d70:	54554f5f 	ldrbpl	r4, [r5], #-3935	; 0xf5f
 d74:	00545550 	subseq	r5, r4, r0, asr r5
 d78:	616d6e5f 	cmnvs	sp, pc, asr lr
 d7c:	636f6c6c 	cmnvs	pc, #108, 24	; 0x6c00
 d80:	366c5f00 	strbtcc	r5, [ip], -r0, lsl #30
 d84:	625f6134 	subsvs	r6, pc, #52, 2
 d88:	67006675 	smlsdxvs	r0, r5, r6, r6
 d8c:	32337465 	eorscc	r7, r3, #1694498816	; 0x65000000
 d90:	72617500 	rsbvc	r7, r1, #0, 10
 d94:	61635f74 	smcvs	13812	; 0x35f4
 d98:	65675f6e 	strbvs	r5, [r7, #-3950]!	; 0xf6e
 d9c:	5f006374 	svcpl	0x00006374
 da0:	5f676973 	svcpl	0x00676973
 da4:	636e7566 	cmnvs	lr, #427819008	; 0x19800000
 da8:	5f726f00 	svcpl	0x00726f00
 dac:	32336e69 	eorscc	r6, r3, #1680	; 0x690
 db0:	72617500 	rsbvc	r7, r1, #0, 10
 db4:	61685f74 	smcvs	34292	; 0x85f4
 db8:	61645f73 	smcvs	17907	; 0x45f3
 dbc:	47006174 	smlsdxmi	r0, r4, r1, r6
 dc0:	5f4f4950 	svcpl	0x004f4950
 dc4:	434e5546 	movtmi	r5, #58694	; 0xe546
 dc8:	544c415f 	strbpl	r4, [ip], #-351	; 0x15f
 dcc:	6e5f0030 	mrcvs	0, 2, r0, cr15, cr0, {1}
 dd0:	00667562 	rsbeq	r7, r6, r2, ror #10
 dd4:	756e755f 	strbvc	r7, [lr, #-1375]!	; 0x55f
 dd8:	00646573 	rsbeq	r6, r4, r3, ror r5
 ddc:	4f495047 	svcmi	0x00495047
 de0:	4e55465f 	mrcmi	6, 2, r4, cr5, cr15, {2}
 de4:	4c415f43 	mcrrmi	15, 4, r5, r1, cr3
 de8:	47003354 	smlsdmi	r0, r4, r3, r3
 dec:	5f4f4950 	svcpl	0x004f4950
 df0:	434e5546 	movtmi	r5, #58694	; 0xe546
 df4:	544c415f 	strbpl	r4, [ip], #-351	; 0x15f
 df8:	50470034 	subpl	r0, r7, r4, lsr r0
 dfc:	465f4f49 	ldrbmi	r4, [pc], -r9, asr #30
 e00:	5f434e55 	svcpl	0x00434e55
 e04:	35544c41 	ldrbcc	r4, [r4, #-3137]	; 0xc41
 e08:	745f5f00 	ldrbvc	r5, [pc], #-3840	; e10 <__code_start__-0x71f0>
 e0c:	73695f6d 	cmnvc	r9, #436	; 0x1b4
 e10:	00747364 	rsbseq	r7, r4, r4, ror #6
 e14:	636f6c5f 	cmnvs	pc, #24320	; 0x5f00
 e18:	69746c61 	ldmdbvs	r4!, {r0, r5, r6, sl, fp, sp, lr}^
 e1c:	625f656d 	subsvs	r6, pc, #457179136	; 0x1b400000
 e20:	5f006675 	svcpl	0x00006675
 e24:	736f6c63 	cmnvc	pc, #25344	; 0x6300
 e28:	725f0065 	subsvc	r0, pc, #101	; 0x65
 e2c:	5f003834 	svcpl	0x00003834
 e30:	6f74626d 	svcvs	0x0074626d
 e34:	735f6377 	cmpvc	pc, #-603979775	; 0xdc000001
 e38:	65746174 	ldrbvs	r6, [r4, #-372]!	; 0x174
 e3c:	35705f00 	ldrbcc	r5, [r0, #-3840]!	; 0xf00
 e40:	5f5f0073 	svcpl	0x005f0073
 e44:	6d5f6d74 	ldclvs	13, cr6, [pc, #-464]	; c7c <__code_start__-0x7384>
 e48:	00796164 	rsbseq	r6, r9, r4, ror #2
 e4c:	6f697067 	svcvs	0x00697067
 e50:	7465735f 	strbtvc	r7, [r5], #-863	; 0x35f
 e54:	66666f5f 	uqsaxvs	r6, r6, pc	; <UNPREDICTABLE>
 e58:	6e616200 	cdpvs	2, 6, cr6, cr1, cr0, {0}
 e5c:	7067006b 	rsbvc	r0, r7, fp, rrx
 e60:	632e6f69 	teqvs	lr, #420	; 0x1a4
 e64:	69706700 	ldmdbvs	r0!, {r8, r9, sl, sp, lr}^
 e68:	65725f6f 	ldrbvs	r5, [r2, #-3951]!	; 0xf6f
 e6c:	67006461 	strvs	r6, [r0, -r1, ror #8]
 e70:	5f6f6970 	svcpl	0x006f6970
 e74:	5f746573 	svcpl	0x00746573
 e78:	7074756f 	rsbsvc	r7, r4, pc, ror #10
 e7c:	67007475 	smlsdxvs	r0, r5, r4, r7
 e80:	5f6f6970 	svcpl	0x006f6970
 e84:	74697277 	strbtvc	r7, [r9], #-631	; 0x277
 e88:	70670065 	rsbvc	r0, r7, r5, rrx
 e8c:	735f6f69 	cmpvc	pc, #420	; 0x1a4
 e90:	00307465 	eorseq	r7, r0, r5, ror #8
 e94:	6f697067 	svcvs	0x00697067
 e98:	76656c5f 			; <UNDEFINED> instruction: 0x76656c5f
 e9c:	70670030 	rsbvc	r0, r7, r0, lsr r0
 ea0:	735f6f69 	cmpvc	pc, #420	; 0x1a4
 ea4:	695f7465 	ldmdbvs	pc, {r0, r2, r5, r6, sl, ip, sp, lr}^	; <UNPREDICTABLE>
 ea8:	7475706e 	ldrbtvc	r7, [r5], #-110	; 0x6e
 eac:	69706700 	ldmdbvs	r0!, {r8, r9, sl, sp, lr}^
 eb0:	65735f6f 	ldrbvs	r5, [r3, #-3951]!	; 0xf6f
 eb4:	6e6f5f74 	mcrvs	15, 3, r5, cr15, cr4, {3}
 eb8:	69706700 	ldmdbvs	r0!, {r8, r9, sl, sp, lr}^
 ebc:	75665f6f 	strbvc	r5, [r6, #-3951]!	; 0xf6f
 ec0:	745f636e 	ldrbvc	r6, [pc], #-878	; ec8 <__code_start__-0x7138>
 ec4:	69706700 	ldmdbvs	r0!, {r8, r9, sl, sp, lr}^
 ec8:	6c635f6f 	stclvs	15, cr5, [r3], #-444	; 0xfffffe44
 ecc:	Address 0x0000000000000ecc is out of bounds.


Disassembly of section .debug_frame:

00000000 <.debug_frame>:
   0:	0000000c 	andeq	r0, r0, ip
   4:	ffffffff 			; <UNDEFINED> instruction: 0xffffffff
   8:	7c020001 	stcvc	0, cr0, [r2], {1}
   c:	000d0c0e 	andeq	r0, sp, lr, lsl #24
  10:	00000018 	andeq	r0, r0, r8, lsl r0
  14:	00000000 	andeq	r0, r0, r0
  18:	00008020 	andeq	r8, r0, r0, lsr #32
  1c:	00000158 	andeq	r0, r0, r8, asr r1
  20:	84080e42 	strhi	r0, [r8], #-3650	; 0xe42
  24:	42018e02 	andmi	r8, r1, #2, 28
  28:	0000100e 	andeq	r1, r0, lr
  2c:	00000014 	andeq	r0, r0, r4, lsl r0
  30:	00000000 	andeq	r0, r0, r0
  34:	00008178 	andeq	r8, r0, r8, ror r1
  38:	00000098 	muleq	r0, r8, r0
  3c:	8e040e42 	cdphi	14, 0, cr0, cr4, cr2, {2}
  40:	100e4201 	andne	r4, lr, r1, lsl #4
  44:	00000018 	andeq	r0, r0, r8, lsl r0
  48:	00000000 	andeq	r0, r0, r0
  4c:	00008210 	andeq	r8, r0, r0, lsl r2
  50:	0000016c 	andeq	r0, r0, ip, ror #2
  54:	84080e42 	strhi	r0, [r8], #-3650	; 0xe42
  58:	42018e02 	andmi	r8, r1, #2, 28
  5c:	0000100e 	andeq	r1, r0, lr
  60:	00000018 	andeq	r0, r0, r8, lsl r0
  64:	00000000 	andeq	r0, r0, r0
  68:	0000837c 	andeq	r8, r0, ip, ror r3
  6c:	000001a0 	andeq	r0, r0, r0, lsr #3
  70:	840c0e42 	strhi	r0, [ip], #-3650	; 0xe42
  74:	8e028503 	cfsh32hi	mvfx8, mvfx2, #3
  78:	180e4201 	stmdane	lr, {r0, r9, lr}
  7c:	0000000c 	andeq	r0, r0, ip
  80:	ffffffff 			; <UNDEFINED> instruction: 0xffffffff
  84:	7c020001 	stcvc	0, cr0, [r2], {1}
  88:	000d0c0e 	andeq	r0, sp, lr, lsl #24
  8c:	00000014 	andeq	r0, r0, r4, lsl r0
  90:	0000007c 	andeq	r0, r0, ip, ror r0
  94:	0000851c 	andeq	r8, r0, ip, lsl r5
  98:	000000b0 	strheq	r0, [r0], -r0	; <UNPREDICTABLE>
  9c:	8e040e42 	cdphi	14, 0, cr0, cr4, cr2, {2}
  a0:	100e4201 	andne	r4, lr, r1, lsl #4
  a4:	00000014 	andeq	r0, r0, r4, lsl r0
  a8:	0000007c 	andeq	r0, r0, ip, ror r0
  ac:	000085cc 	andeq	r8, r0, ip, asr #11
  b0:	000000dc 	ldrdeq	r0, [r0], -ip
  b4:	8e040e42 	cdphi	14, 0, cr0, cr4, cr2, {2}
  b8:	100e4201 	andne	r4, lr, r1, lsl #4
  bc:	00000014 	andeq	r0, r0, r4, lsl r0
  c0:	0000007c 	andeq	r0, r0, ip, ror r0
  c4:	000086a8 	andeq	r8, r0, r8, lsr #13
  c8:	0000003c 	andeq	r0, r0, ip, lsr r0
  cc:	83080e42 	movwhi	r0, #36418	; 0x8e42
  d0:	00018e02 	andeq	r8, r1, r2, lsl #28
  d4:	0000000c 	andeq	r0, r0, ip
  d8:	0000007c 	andeq	r0, r0, ip, ror r0
  dc:	000086e4 	andeq	r8, r0, r4, ror #13
  e0:	00000034 	andeq	r0, r0, r4, lsr r0
  e4:	00000014 	andeq	r0, r0, r4, lsl r0
  e8:	0000007c 	andeq	r0, r0, ip, ror r0
  ec:	00008718 	andeq	r8, r0, r8, lsl r7
  f0:	00000098 	muleq	r0, r8, r0
  f4:	8e040e42 	cdphi	14, 0, cr0, cr4, cr2, {2}
  f8:	100e4201 	andne	r4, lr, r1, lsl #4
  fc:	0000000c 	andeq	r0, r0, ip
 100:	0000007c 	andeq	r0, r0, ip, ror r0
 104:	000087b0 			; <UNDEFINED> instruction: 0x000087b0
 108:	00000004 	andeq	r0, r0, r4
 10c:	00000014 	andeq	r0, r0, r4, lsl r0
 110:	0000007c 	andeq	r0, r0, ip, ror r0
 114:	000087b4 			; <UNDEFINED> instruction: 0x000087b4
 118:	0000002c 	andeq	r0, r0, ip, lsr #32
 11c:	83080e42 	movwhi	r0, #36418	; 0x8e42
 120:	00018e02 	andeq	r8, r1, r2, lsl #28
 124:	0000000c 	andeq	r0, r0, ip
 128:	0000007c 	andeq	r0, r0, ip, ror r0
 12c:	000087e0 	andeq	r8, r0, r0, ror #15
 130:	00000034 	andeq	r0, r0, r4, lsr r0
 134:	0000000c 	andeq	r0, r0, ip
 138:	0000007c 	andeq	r0, r0, ip, ror r0
 13c:	00008814 	andeq	r8, r0, r4, lsl r8
 140:	00000010 	andeq	r0, r0, r0, lsl r0
 144:	00000014 	andeq	r0, r0, r4, lsl r0
 148:	0000007c 	andeq	r0, r0, ip, ror r0
 14c:	00008824 	andeq	r8, r0, r4, lsr #16
 150:	0000004c 	andeq	r0, r0, ip, asr #32
 154:	83080e42 	movwhi	r0, #36418	; 0x8e42
 158:	00018e02 	andeq	r8, r1, r2, lsl #28
 15c:	0000000c 	andeq	r0, r0, ip
 160:	ffffffff 			; <UNDEFINED> instruction: 0xffffffff
 164:	7c020001 	stcvc	0, cr0, [r2], {1}
 168:	000d0c0e 	andeq	r0, sp, lr, lsl #24
 16c:	00000024 	andeq	r0, r0, r4, lsr #32
 170:	0000015c 	andeq	r0, r0, ip, asr r1
 174:	00008988 	andeq	r8, r0, r8, lsl #19
 178:	00000058 	andeq	r0, r0, r8, asr r0
 17c:	80100e42 	andshi	r0, r0, r2, asr #28
 180:	82038104 	andhi	r8, r3, #4, 2
 184:	42018302 	andmi	r8, r1, #134217728	; 0x8000000
 188:	07841c0e 	streq	r1, [r4, lr, lsl #24]
 18c:	058e0685 	streq	r0, [lr, #1669]	; 0x685
 190:	00280e42 	eoreq	r0, r8, r2, asr #28
 194:	0000000c 	andeq	r0, r0, ip
 198:	ffffffff 			; <UNDEFINED> instruction: 0xffffffff
 19c:	7c020001 	stcvc	0, cr0, [r2], {1}
 1a0:	000d0c0e 	andeq	r0, sp, lr, lsl #24
 1a4:	00000014 	andeq	r0, r0, r4, lsl r0
 1a8:	00000194 	muleq	r0, r4, r1
 1ac:	000089e0 	andeq	r8, r0, r0, ror #19
 1b0:	00000014 	andeq	r0, r0, r4, lsl r0
 1b4:	84080e42 	strhi	r0, [r8], #-3650	; 0xe42
 1b8:	00018e02 	andeq	r8, r1, r2, lsl #28
 1bc:	0000000c 	andeq	r0, r0, ip
 1c0:	00000194 	muleq	r0, r4, r1
 1c4:	000089f4 	strdeq	r8, [r0], -r4
 1c8:	00000018 	andeq	r0, r0, r8, lsl r0
 1cc:	0000000c 	andeq	r0, r0, ip
 1d0:	00000194 	muleq	r0, r4, r1
 1d4:	00008a0c 	andeq	r8, r0, ip, lsl #20
 1d8:	00000010 	andeq	r0, r0, r0, lsl r0
 1dc:	0000000c 	andeq	r0, r0, ip
 1e0:	ffffffff 			; <UNDEFINED> instruction: 0xffffffff
 1e4:	7c020001 	stcvc	0, cr0, [r2], {1}
 1e8:	000d0c0e 	andeq	r0, sp, lr, lsl #24
 1ec:	00000018 	andeq	r0, r0, r8, lsl r0
 1f0:	000001dc 	ldrdeq	r0, [r0], -ip
 1f4:	00008a1c 	andeq	r8, r0, ip, lsl sl
 1f8:	00000034 	andeq	r0, r0, r4, lsr r0
 1fc:	83100e42 	tsthi	r0, #1056	; 0x420
 200:	85038404 	strhi	r8, [r3, #-1028]	; 0x404
 204:	00018e02 	andeq	r8, r1, r2, lsl #28
 208:	0000000c 	andeq	r0, r0, ip
 20c:	ffffffff 			; <UNDEFINED> instruction: 0xffffffff
 210:	7c020001 	stcvc	0, cr0, [r2], {1}
 214:	000d0c0e 	andeq	r0, sp, lr, lsl #24
 218:	0000000c 	andeq	r0, r0, ip
 21c:	00000208 	andeq	r0, r0, r8, lsl #4
 220:	00008a50 	andeq	r8, r0, r0, asr sl
 224:	00000014 	andeq	r0, r0, r4, lsl r0
 228:	0000000c 	andeq	r0, r0, ip
 22c:	00000208 	andeq	r0, r0, r8, lsl #4
 230:	00008a64 	andeq	r8, r0, r4, ror #20
 234:	0000002c 	andeq	r0, r0, ip, lsr #32
 238:	0000000c 	andeq	r0, r0, ip
 23c:	00000208 	andeq	r0, r0, r8, lsl #4
 240:	00008a90 	muleq	r0, r0, sl
 244:	00000040 	andeq	r0, r0, r0, asr #32
 248:	00000020 	andeq	r0, r0, r0, lsr #32
 24c:	00000208 	andeq	r0, r0, r8, lsl #4
 250:	00008ad0 	ldrdeq	r8, [r0], -r0
 254:	000001bc 			; <UNDEFINED> instruction: 0x000001bc
 258:	84180e42 	ldrhi	r0, [r8], #-3650	; 0xe42
 25c:	86058506 	strhi	r8, [r5], -r6, lsl #10
 260:	88038704 	stmdahi	r3, {r2, r8, r9, sl, pc}
 264:	42018e02 	andmi	r8, r1, #2, 28
 268:	0000600e 	andeq	r6, r0, lr
 26c:	00000014 	andeq	r0, r0, r4, lsl r0
 270:	00000208 	andeq	r0, r0, r8, lsl #4
 274:	00008c8c 	andeq	r8, r0, ip, lsl #25
 278:	00000068 	andeq	r0, r0, r8, rrx
 27c:	8e040e42 	cdphi	14, 0, cr0, cr4, cr2, {2}
 280:	100e4201 	andne	r4, lr, r1, lsl #4
 284:	00000028 	andeq	r0, r0, r8, lsr #32
 288:	00000208 	andeq	r0, r0, r8, lsl #4
 28c:	00008cf4 	strdeq	r8, [r0], -r4
 290:	000002d4 	ldrdeq	r0, [r0], -r4
 294:	84240e42 	strthi	r0, [r4], #-3650	; 0xe42
 298:	86088509 	strhi	r8, [r8], -r9, lsl #10
 29c:	88068707 	stmdahi	r6, {r0, r1, r2, r8, r9, sl, pc}
 2a0:	8a048905 	bhi	1226bc <__bss_end__+0x118694>
 2a4:	8e028b03 	vmlahi.f64	d8, d2, d3
 2a8:	b80e4201 	stmdalt	lr, {r0, r9, lr}
 2ac:	00000001 	andeq	r0, r0, r1
 2b0:	0000000c 	andeq	r0, r0, ip
 2b4:	ffffffff 			; <UNDEFINED> instruction: 0xffffffff
 2b8:	7c020001 	stcvc	0, cr0, [r2], {1}
 2bc:	000d0c0e 	andeq	r0, sp, lr, lsl #24
 2c0:	0000000c 	andeq	r0, r0, ip
 2c4:	000002b0 			; <UNDEFINED> instruction: 0x000002b0
 2c8:	00008fc8 	andeq	r8, r0, r8, asr #31
 2cc:	00000010 	andeq	r0, r0, r0, lsl r0
 2d0:	0000000c 	andeq	r0, r0, ip
 2d4:	000002b0 			; <UNDEFINED> instruction: 0x000002b0
 2d8:	00008fd8 	ldrdeq	r8, [r0], -r8	; <UNPREDICTABLE>
 2dc:	00000010 	andeq	r0, r0, r0, lsl r0
 2e0:	0000000c 	andeq	r0, r0, ip
 2e4:	ffffffff 			; <UNDEFINED> instruction: 0xffffffff
 2e8:	7c020001 	stcvc	0, cr0, [r2], {1}
 2ec:	000d0c0e 	andeq	r0, sp, lr, lsl #24
 2f0:	00000014 	andeq	r0, r0, r4, lsl r0
 2f4:	000002e0 	andeq	r0, r0, r0, ror #5
 2f8:	00008fe8 	andeq	r8, r0, r8, ror #31
 2fc:	0000002c 	andeq	r0, r0, ip, lsr #32
 300:	83080e42 	movwhi	r0, #36418	; 0x8e42
 304:	00018e02 	andeq	r8, r1, r2, lsl #28
 308:	0000000c 	andeq	r0, r0, ip
 30c:	ffffffff 			; <UNDEFINED> instruction: 0xffffffff
 310:	7c020001 	stcvc	0, cr0, [r2], {1}
 314:	000d0c0e 	andeq	r0, sp, lr, lsl #24
 318:	00000014 	andeq	r0, r0, r4, lsl r0
 31c:	00000308 	andeq	r0, r0, r8, lsl #6
 320:	00009014 	andeq	r9, r0, r4, lsl r0
 324:	00000038 	andeq	r0, r0, r8, lsr r0
 328:	83080e42 	movwhi	r0, #36418	; 0x8e42
 32c:	00018e02 	andeq	r8, r1, r2, lsl #28
 330:	0000000c 	andeq	r0, r0, ip
 334:	ffffffff 			; <UNDEFINED> instruction: 0xffffffff
 338:	7c020001 	stcvc	0, cr0, [r2], {1}
 33c:	000d0c0e 	andeq	r0, sp, lr, lsl #24
 340:	00000014 	andeq	r0, r0, r4, lsl r0
 344:	00000330 	andeq	r0, r0, r0, lsr r3
 348:	0000904c 	andeq	r9, r0, ip, asr #32
 34c:	00000044 	andeq	r0, r0, r4, asr #32
 350:	8e040e42 	cdphi	14, 0, cr0, cr4, cr2, {2}
 354:	100e4201 	andne	r4, lr, r1, lsl #4
 358:	0000000c 	andeq	r0, r0, ip
 35c:	ffffffff 			; <UNDEFINED> instruction: 0xffffffff
 360:	7c020001 	stcvc	0, cr0, [r2], {1}
 364:	000d0c0e 	andeq	r0, sp, lr, lsl #24
 368:	00000014 	andeq	r0, r0, r4, lsl r0
 36c:	00000358 	andeq	r0, r0, r8, asr r3
 370:	00009090 	muleq	r0, r0, r0
 374:	00000044 	andeq	r0, r0, r4, asr #32
 378:	8e040e42 	cdphi	14, 0, cr0, cr4, cr2, {2}
 37c:	100e4201 	andne	r4, lr, r1, lsl #4
 380:	0000000c 	andeq	r0, r0, ip
 384:	ffffffff 			; <UNDEFINED> instruction: 0xffffffff
 388:	7c020001 	stcvc	0, cr0, [r2], {1}
 38c:	000d0c0e 	andeq	r0, sp, lr, lsl #24
 390:	00000014 	andeq	r0, r0, r4, lsl r0
 394:	00000380 	andeq	r0, r0, r0, lsl #7
 398:	000090d4 	ldrdeq	r9, [r0], -r4
 39c:	00000044 	andeq	r0, r0, r4, asr #32
 3a0:	8e040e42 	cdphi	14, 0, cr0, cr4, cr2, {2}
 3a4:	100e4201 	andne	r4, lr, r1, lsl #4
 3a8:	0000000c 	andeq	r0, r0, ip
 3ac:	ffffffff 			; <UNDEFINED> instruction: 0xffffffff
 3b0:	7c020001 	stcvc	0, cr0, [r2], {1}
 3b4:	000d0c0e 	andeq	r0, sp, lr, lsl #24
 3b8:	0000000c 	andeq	r0, r0, ip
 3bc:	000003a8 	andeq	r0, r0, r8, lsr #7
 3c0:	00009118 	andeq	r9, r0, r8, lsl r1
 3c4:	00000004 	andeq	r0, r0, r4
 3c8:	0000000c 	andeq	r0, r0, ip
 3cc:	000003a8 	andeq	r0, r0, r8, lsr #7
 3d0:	0000911c 	andeq	r9, r0, ip, lsl r1
 3d4:	00000004 	andeq	r0, r0, r4
 3d8:	0000000c 	andeq	r0, r0, ip
 3dc:	ffffffff 			; <UNDEFINED> instruction: 0xffffffff
 3e0:	7c020001 	stcvc	0, cr0, [r2], {1}
 3e4:	000d0c0e 	andeq	r0, sp, lr, lsl #24
 3e8:	00000014 	andeq	r0, r0, r4, lsl r0
 3ec:	000003d8 	ldrdeq	r0, [r0], -r8
 3f0:	00009120 	andeq	r9, r0, r0, lsr #2
 3f4:	0000006c 	andeq	r0, r0, ip, rrx
 3f8:	83080e42 	movwhi	r0, #36418	; 0x8e42
 3fc:	00018e02 	andeq	r8, r1, r2, lsl #28
 400:	0000000c 	andeq	r0, r0, ip
 404:	ffffffff 			; <UNDEFINED> instruction: 0xffffffff
 408:	7c020001 	stcvc	0, cr0, [r2], {1}
 40c:	000d0c0e 	andeq	r0, sp, lr, lsl #24
 410:	0000000c 	andeq	r0, r0, ip
 414:	00000400 	andeq	r0, r0, r0, lsl #8
 418:	0000918c 	andeq	r9, r0, ip, lsl #3
 41c:	00000018 	andeq	r0, r0, r8, lsl r0
 420:	0000000c 	andeq	r0, r0, ip
 424:	00000400 	andeq	r0, r0, r0, lsl #8
 428:	000091a4 	andeq	r9, r0, r4, lsr #3
 42c:	00000014 	andeq	r0, r0, r4, lsl r0
 430:	00000014 	andeq	r0, r0, r4, lsl r0
 434:	00000400 	andeq	r0, r0, r0, lsl #8
 438:	000091b8 			; <UNDEFINED> instruction: 0x000091b8
 43c:	00000048 	andeq	r0, r0, r8, asr #32
 440:	83080e42 	movwhi	r0, #36418	; 0x8e42
 444:	00018e02 	andeq	r8, r1, r2, lsl #28
 448:	0000000c 	andeq	r0, r0, ip
 44c:	ffffffff 			; <UNDEFINED> instruction: 0xffffffff
 450:	7c020001 	stcvc	0, cr0, [r2], {1}
 454:	000d0c0e 	andeq	r0, sp, lr, lsl #24
 458:	0000000c 	andeq	r0, r0, ip
 45c:	00000448 	andeq	r0, r0, r8, asr #8
 460:	00009200 	andeq	r9, r0, r0, lsl #4
 464:	0000001c 	andeq	r0, r0, ip, lsl r0
 468:	00000014 	andeq	r0, r0, r4, lsl r0
 46c:	00000448 	andeq	r0, r0, r8, asr #8
 470:	0000921c 	andeq	r9, r0, ip, lsl r2
 474:	00000014 	andeq	r0, r0, r4, lsl r0
 478:	83080e42 	movwhi	r0, #36418	; 0x8e42
 47c:	00018e02 	andeq	r8, r1, r2, lsl #28
 480:	00000014 	andeq	r0, r0, r4, lsl r0
 484:	00000448 	andeq	r0, r0, r8, asr #8
 488:	00009230 	andeq	r9, r0, r0, lsr r2
 48c:	0000001c 	andeq	r0, r0, ip, lsl r0
 490:	84080e42 	strhi	r0, [r8], #-3650	; 0xe42
 494:	00018e02 	andeq	r8, r1, r2, lsl #28
 498:	00000018 	andeq	r0, r0, r8, lsl r0
 49c:	00000448 	andeq	r0, r0, r8, asr #8
 4a0:	0000924c 	andeq	r9, r0, ip, asr #4
 4a4:	00000024 	andeq	r0, r0, r4, lsr #32
 4a8:	83100e42 	tsthi	r0, #1056	; 0x420
 4ac:	85038404 	strhi	r8, [r3, #-1028]	; 0x404
 4b0:	00018e02 	andeq	r8, r1, r2, lsl #28
 4b4:	00000014 	andeq	r0, r0, r4, lsl r0
 4b8:	00000448 	andeq	r0, r0, r8, asr #8
 4bc:	00009270 	andeq	r9, r0, r0, ror r2
 4c0:	00000014 	andeq	r0, r0, r4, lsl r0
 4c4:	83080e42 	movwhi	r0, #36418	; 0x8e42
 4c8:	00018e02 	andeq	r8, r1, r2, lsl #28
 4cc:	00000014 	andeq	r0, r0, r4, lsl r0
 4d0:	00000448 	andeq	r0, r0, r8, asr #8
 4d4:	00009284 	andeq	r9, r0, r4, lsl #5
 4d8:	00000014 	andeq	r0, r0, r4, lsl r0
 4dc:	83080e42 	movwhi	r0, #36418	; 0x8e42
 4e0:	00018e02 	andeq	r8, r1, r2, lsl #28
 4e4:	0000000c 	andeq	r0, r0, ip
 4e8:	ffffffff 			; <UNDEFINED> instruction: 0xffffffff
 4ec:	7c020001 	stcvc	0, cr0, [r2], {1}
 4f0:	000d0c0e 	andeq	r0, sp, lr, lsl #24
 4f4:	00000018 	andeq	r0, r0, r8, lsl r0
 4f8:	000004e4 	andeq	r0, r0, r4, ror #9
 4fc:	000092fc 	strdeq	r9, [r0], -ip
 500:	00000020 	andeq	r0, r0, r0, lsr #32
 504:	84100e42 	ldrhi	r0, [r0], #-3650	; 0xe42
 508:	86038504 	strhi	r8, [r3], -r4, lsl #10
 50c:	00018e02 	andeq	r8, r1, r2, lsl #28
 510:	00000014 	andeq	r0, r0, r4, lsl r0
 514:	000004e4 	andeq	r0, r0, r4, ror #9
 518:	0000931c 	andeq	r9, r0, ip, lsl r3
 51c:	000000b0 	strheq	r0, [r0], -r0	; <UNPREDICTABLE>
 520:	84080e42 	strhi	r0, [r8], #-3650	; 0xe42
 524:	00018e02 	andeq	r8, r1, r2, lsl #28
 528:	00000014 	andeq	r0, r0, r4, lsl r0
 52c:	000004e4 	andeq	r0, r0, r4, ror #9
 530:	000093cc 	andeq	r9, r0, ip, asr #7
 534:	00000018 	andeq	r0, r0, r8, lsl r0
 538:	84080e42 	strhi	r0, [r8], #-3650	; 0xe42
 53c:	00018e02 	andeq	r8, r1, r2, lsl #28
 540:	00000014 	andeq	r0, r0, r4, lsl r0
 544:	000004e4 	andeq	r0, r0, r4, ror #9
 548:	000093e4 	andeq	r9, r0, r4, ror #7
 54c:	00000020 	andeq	r0, r0, r0, lsr #32
 550:	84080e42 	strhi	r0, [r8], #-3650	; 0xe42
 554:	00018e02 	andeq	r8, r1, r2, lsl #28
 558:	00000014 	andeq	r0, r0, r4, lsl r0
 55c:	000004e4 	andeq	r0, r0, r4, ror #9
 560:	00009404 	andeq	r9, r0, r4, lsl #8
 564:	00000030 	andeq	r0, r0, r0, lsr r0
 568:	84080e42 	strhi	r0, [r8], #-3650	; 0xe42
 56c:	00018e02 	andeq	r8, r1, r2, lsl #28
 570:	00000014 	andeq	r0, r0, r4, lsl r0
 574:	000004e4 	andeq	r0, r0, r4, ror #9
 578:	00009434 	andeq	r9, r0, r4, lsr r4
 57c:	00000030 	andeq	r0, r0, r0, lsr r0
 580:	84080e42 	strhi	r0, [r8], #-3650	; 0xe42
 584:	00018e02 	andeq	r8, r1, r2, lsl #28
 588:	00000014 	andeq	r0, r0, r4, lsl r0
 58c:	000004e4 	andeq	r0, r0, r4, ror #9
 590:	00009464 	andeq	r9, r0, r4, ror #8
 594:	00000010 	andeq	r0, r0, r0, lsl r0
 598:	84080e42 	strhi	r0, [r8], #-3650	; 0xe42
 59c:	00018e02 	andeq	r8, r1, r2, lsl #28
 5a0:	0000000c 	andeq	r0, r0, ip
 5a4:	ffffffff 			; <UNDEFINED> instruction: 0xffffffff
 5a8:	7c020001 	stcvc	0, cr0, [r2], {1}
 5ac:	000d0c0e 	andeq	r0, sp, lr, lsl #24
 5b0:	00000018 	andeq	r0, r0, r8, lsl r0
 5b4:	000005a0 	andeq	r0, r0, r0, lsr #11
 5b8:	00009474 	andeq	r9, r0, r4, ror r4
 5bc:	00000068 	andeq	r0, r0, r8, rrx
 5c0:	84100e4a 	ldrhi	r0, [r0], #-3658	; 0xe4a
 5c4:	86038504 	strhi	r8, [r3], -r4, lsl #10
 5c8:	00018e02 	andeq	r8, r1, r2, lsl #28
 5cc:	00000014 	andeq	r0, r0, r4, lsl r0
 5d0:	000005a0 	andeq	r0, r0, r0, lsr #11
 5d4:	000094dc 	ldrdeq	r9, [r0], -ip
 5d8:	00000010 	andeq	r0, r0, r0, lsl r0
 5dc:	84080e42 	strhi	r0, [r8], #-3650	; 0xe42
 5e0:	00018e02 	andeq	r8, r1, r2, lsl #28
 5e4:	00000014 	andeq	r0, r0, r4, lsl r0
 5e8:	000005a0 	andeq	r0, r0, r0, lsr #11
 5ec:	000094ec 	andeq	r9, r0, ip, ror #9
 5f0:	00000024 	andeq	r0, r0, r4, lsr #32
 5f4:	84080e46 	strhi	r0, [r8], #-3654	; 0xe46
 5f8:	00018e02 	andeq	r8, r1, r2, lsl #28
 5fc:	00000014 	andeq	r0, r0, r4, lsl r0
 600:	000005a0 	andeq	r0, r0, r0, lsr #11
 604:	00009510 	andeq	r9, r0, r0, lsl r5
 608:	00000024 	andeq	r0, r0, r4, lsr #32
 60c:	84080e46 	strhi	r0, [r8], #-3654	; 0xe46
 610:	00018e02 	andeq	r8, r1, r2, lsl #28
 614:	00000014 	andeq	r0, r0, r4, lsl r0
 618:	000005a0 	andeq	r0, r0, r0, lsr #11
 61c:	00009534 	andeq	r9, r0, r4, lsr r5
 620:	00000010 	andeq	r0, r0, r0, lsl r0
 624:	84080e42 	strhi	r0, [r8], #-3650	; 0xe42
 628:	00018e02 	andeq	r8, r1, r2, lsl #28
 62c:	00000014 	andeq	r0, r0, r4, lsl r0
 630:	000005a0 	andeq	r0, r0, r0, lsr #11
 634:	00009544 	andeq	r9, r0, r4, asr #10
 638:	0000001c 	andeq	r0, r0, ip, lsl r0
 63c:	84080e42 	strhi	r0, [r8], #-3650	; 0xe42
 640:	00018e02 	andeq	r8, r1, r2, lsl #28
 644:	00000018 	andeq	r0, r0, r8, lsl r0
 648:	000005a0 	andeq	r0, r0, r0, lsr #11
 64c:	00009560 	andeq	r9, r0, r0, ror #10
 650:	00000034 	andeq	r0, r0, r4, lsr r0
 654:	84080e46 	strhi	r0, [r8], #-3654	; 0xe46
 658:	4e018e02 	cdpmi	14, 0, cr8, cr1, cr2, {0}
 65c:	cec4000e 	cdpgt	0, 12, cr0, cr4, cr14, {0}
