
tests/16-part2-test2.elf:     file format elf32-littlearm


Disassembly of section .text:

00008000 <__code_start__>:
    8000:	e3a00013 	mov	r0, #19
    8004:	e129f000 	msr	CPSR_fc, r0
    8008:	e3a00000 	mov	r0, #0
    800c:	ee073f95 	mcr	15, 0, r3, cr7, cr5, {4}
    8010:	e3a0d302 	mov	sp, #134217728	; 0x8000000
    8014:	e3a0b000 	mov	fp, #0
    8018:	eb0004f5 	bl	93f4 <_cstart>
    801c:	eb00055d 	bl	9598 <rpi_reboot>

00008020 <eps_A>:
    8020:	e12fff1e 	bx	lr

00008024 <eps_B>:
    8024:	e12fff1e 	bx	lr

00008028 <eps_init>:
    8028:	e12fff1e 	bx	lr

0000802c <eps_check>:
    802c:	e3a00001 	mov	r0, #1
    8030:	e12fff1e 	bx	lr

00008034 <eps_mk_checker>:
    8034:	e1a03000 	mov	r3, r0
    8038:	e3a02000 	mov	r2, #0
    803c:	e4832004 	str	r2, [r3], #4
    8040:	e2833008 	add	r3, r3, #8
    8044:	e4832004 	str	r2, [r3], #4
    8048:	e4832004 	str	r2, [r3], #4
    804c:	e4832004 	str	r2, [r3], #4
    8050:	e4832004 	str	r2, [r3], #4
    8054:	e4832004 	str	r2, [r3], #4
    8058:	e4832004 	str	r2, [r3], #4
    805c:	e4832004 	str	r2, [r3], #4
    8060:	e4832004 	str	r2, [r3], #4
    8064:	e4832004 	str	r2, [r3], #4
    8068:	e5832000 	str	r2, [r3]
    806c:	e59f301c 	ldr	r3, [pc, #28]	; 8090 <eps_mk_checker+0x5c>
    8070:	e5803004 	str	r3, [r0, #4]
    8074:	e59f3018 	ldr	r3, [pc, #24]	; 8094 <eps_mk_checker+0x60>
    8078:	e5803008 	str	r3, [r0, #8]
    807c:	e59f3014 	ldr	r3, [pc, #20]	; 8098 <eps_mk_checker+0x64>
    8080:	e580300c 	str	r3, [r0, #12]
    8084:	e59f3010 	ldr	r3, [pc, #16]	; 809c <eps_mk_checker+0x68>
    8088:	e5803010 	str	r3, [r0, #16]
    808c:	e12fff1e 	bx	lr
    8090:	00008020 	andeq	r8, r0, r0, lsr #32
    8094:	00008024 	andeq	r8, r0, r4, lsr #32
    8098:	00008028 	andeq	r8, r0, r8, lsr #32
    809c:	0000802c 	andeq	r8, r0, ip, lsr #32

000080a0 <notmain>:
    80a0:	e52de004 	push	{lr}		; (str lr, [sp, #-4]!)
    80a4:	e24dd044 	sub	sp, sp, #68	; 0x44
    80a8:	eb0004be 	bl	93a8 <enable_cache>
    80ac:	e3a02000 	mov	r2, #0
    80b0:	e59f30bc 	ldr	r3, [pc, #188]	; 8174 <notmain+0xd4>
    80b4:	e5832000 	str	r2, [r3]
    80b8:	e28d000c 	add	r0, sp, #12
    80bc:	ebffffdc 	bl	8034 <eps_mk_checker>
    80c0:	e28d000c 	add	r0, sp, #12
    80c4:	eb000314 	bl	8d1c <check>
    80c8:	e3500000 	cmp	r0, #0
    80cc:	1a000016 	bne	812c <notmain+0x8c>
    80d0:	e59d3038 	ldr	r3, [sp, #56]	; 0x38
    80d4:	e3530000 	cmp	r3, #0
    80d8:	1a000008 	bne	8100 <notmain+0x60>
    80dc:	eb00033c 	bl	8dd4 <rpi_reset_putc>
    80e0:	e59f3090 	ldr	r3, [pc, #144]	; 8178 <notmain+0xd8>
    80e4:	e58d3000 	str	r3, [sp]
    80e8:	e59f008c 	ldr	r0, [pc, #140]	; 817c <notmain+0xdc>
    80ec:	e59f108c 	ldr	r1, [pc, #140]	; 8180 <notmain+0xe0>
    80f0:	e59f208c 	ldr	r2, [pc, #140]	; 8184 <notmain+0xe4>
    80f4:	e3a0301c 	mov	r3, #28
    80f8:	eb00031a 	bl	8d68 <printk>
    80fc:	eb0004b1 	bl	93c8 <clean_reboot>
    8100:	eb000333 	bl	8dd4 <rpi_reset_putc>
    8104:	e59d3034 	ldr	r3, [sp, #52]	; 0x34
    8108:	e58d3000 	str	r3, [sp]
    810c:	e59d3038 	ldr	r3, [sp, #56]	; 0x38
    8110:	e58d3004 	str	r3, [sp, #4]
    8114:	e59f006c 	ldr	r0, [pc, #108]	; 8188 <notmain+0xe8>
    8118:	e59f1060 	ldr	r1, [pc, #96]	; 8180 <notmain+0xe0>
    811c:	e59f2060 	ldr	r2, [pc, #96]	; 8184 <notmain+0xe4>
    8120:	e3a0301e 	mov	r3, #30
    8124:	eb00030f 	bl	8d68 <printk>
    8128:	eb0004a6 	bl	93c8 <clean_reboot>
    812c:	e59d3038 	ldr	r3, [sp, #56]	; 0x38
    8130:	e3530000 	cmp	r3, #0
    8134:	0a000008 	beq	815c <notmain+0xbc>
    8138:	eb000325 	bl	8dd4 <rpi_reset_putc>
    813c:	e59f3048 	ldr	r3, [pc, #72]	; 818c <notmain+0xec>
    8140:	e58d3000 	str	r3, [sp]
    8144:	e59f0030 	ldr	r0, [pc, #48]	; 817c <notmain+0xdc>
    8148:	e59f1030 	ldr	r1, [pc, #48]	; 8180 <notmain+0xe0>
    814c:	e59f2030 	ldr	r2, [pc, #48]	; 8184 <notmain+0xe4>
    8150:	e3a03020 	mov	r3, #32
    8154:	eb000303 	bl	8d68 <printk>
    8158:	eb00049a 	bl	93c8 <clean_reboot>
    815c:	e59f002c 	ldr	r0, [pc, #44]	; 8190 <notmain+0xf0>
    8160:	eb000300 	bl	8d68 <printk>
    8164:	e59f0028 	ldr	r0, [pc, #40]	; 8194 <notmain+0xf4>
    8168:	e59d1034 	ldr	r1, [sp, #52]	; 0x34
    816c:	eb0002fd 	bl	8d68 <printk>
    8170:	eb000494 	bl	93c8 <clean_reboot>
    8174:	0000a170 	andeq	sl, r0, r0, ror r1
    8178:	000099ac 	andeq	r9, r0, ip, lsr #19
    817c:	00009980 	andeq	r9, r0, r0, lsl #19
    8180:	00009994 	muleq	r0, r4, r9
    8184:	00009a64 	andeq	r9, r0, r4, ror #20
    8188:	000099b8 			; <UNDEFINED> instruction: 0x000099b8
    818c:	00009a00 	andeq	r9, r0, r0, lsl #20
    8190:	00009a0c 	andeq	r9, r0, ip, lsl #20
    8194:	00009a18 	andeq	r9, r0, r8, lsl sl

00008198 <watchpt_set0>:
    8198:	e52de004 	push	{lr}		; (str lr, [sp, #-4]!)
    819c:	e24dd00c 	sub	sp, sp, #12
    81a0:	ee103ef0 	mrc	14, 0, r3, cr0, cr0, {7}
    81a4:	e3c33001 	bic	r3, r3, #1
    81a8:	ee003ef0 	mcr	14, 0, r3, cr0, cr0, {7}
    81ac:	ee102ef0 	mrc	14, 0, r2, cr0, cr0, {7}
    81b0:	e1530002 	cmp	r3, r2
    81b4:	0a000008 	beq	81dc <watchpt_set0+0x44>
    81b8:	eb000305 	bl	8dd4 <rpi_reset_putc>
    81bc:	e59f306c 	ldr	r3, [pc, #108]	; 8230 <watchpt_set0+0x98>
    81c0:	e58d3000 	str	r3, [sp]
    81c4:	e59f0068 	ldr	r0, [pc, #104]	; 8234 <watchpt_set0+0x9c>
    81c8:	e59f1068 	ldr	r1, [pc, #104]	; 8238 <watchpt_set0+0xa0>
    81cc:	e59f2068 	ldr	r2, [pc, #104]	; 823c <watchpt_set0+0xa4>
    81d0:	e3a03041 	mov	r3, #65	; 0x41
    81d4:	eb0002e3 	bl	8d68 <printk>
    81d8:	eb00047a 	bl	93c8 <clean_reboot>
    81dc:	ee000ed0 	mcr	14, 0, r0, cr0, cr0, {6}
    81e0:	e59f3058 	ldr	r3, [pc, #88]	; 8240 <watchpt_set0+0xa8>
    81e4:	ee003ef0 	mcr	14, 0, r3, cr0, cr0, {7}
    81e8:	ee102ef0 	mrc	14, 0, r2, cr0, cr0, {7}
    81ec:	e1520003 	cmp	r2, r3
    81f0:	0a000008 	beq	8218 <watchpt_set0+0x80>
    81f4:	eb0002f6 	bl	8dd4 <rpi_reset_putc>
    81f8:	e59f3030 	ldr	r3, [pc, #48]	; 8230 <watchpt_set0+0x98>
    81fc:	e58d3000 	str	r3, [sp]
    8200:	e59f002c 	ldr	r0, [pc, #44]	; 8234 <watchpt_set0+0x9c>
    8204:	e59f102c 	ldr	r1, [pc, #44]	; 8238 <watchpt_set0+0xa0>
    8208:	e59f202c 	ldr	r2, [pc, #44]	; 823c <watchpt_set0+0xa4>
    820c:	e3a03052 	mov	r3, #82	; 0x52
    8210:	eb0002d4 	bl	8d68 <printk>
    8214:	eb00046b 	bl	93c8 <clean_reboot>
    8218:	e3a03000 	mov	r3, #0
    821c:	ee073f95 	mcr	15, 0, r3, cr7, cr5, {4}
    8220:	e59f301c 	ldr	r3, [pc, #28]	; 8244 <watchpt_set0+0xac>
    8224:	e5831000 	str	r1, [r3]
    8228:	e28dd00c 	add	sp, sp, #12
    822c:	e49df004 	pop	{pc}		; (ldr pc, [sp], #4)
    8230:	00009a7c 	andeq	r9, r0, ip, ror sl
    8234:	00009980 	andeq	r9, r0, r0, lsl #19
    8238:	00009a6c 	andeq	r9, r0, ip, ror #20
    823c:	00009ba0 	andeq	r9, r0, r0, lsr #23
    8240:	000001ff 	strdeq	r0, [r0], -pc	; <UNPREDICTABLE>
    8244:	0000a168 	andeq	sl, r0, r8, ror #2

00008248 <data_abort_vector>:
    8248:	e52de004 	push	{lr}		; (str lr, [sp, #-4]!)
    824c:	e24dd00c 	sub	sp, sp, #12
    8250:	e1a01000 	mov	r1, r0
    8254:	ee153f10 	mrc	15, 0, r3, cr5, cr0, {0}
    8258:	ee153f10 	mrc	15, 0, r3, cr5, cr0, {0}
    825c:	e203300f 	and	r3, r3, #15
    8260:	e3530002 	cmp	r3, #2
    8264:	0a000006 	beq	8284 <data_abort_vector+0x3c>
    8268:	eb0002d9 	bl	8dd4 <rpi_reset_putc>
    826c:	e59f008c 	ldr	r0, [pc, #140]	; 8300 <data_abort_vector+0xb8>
    8270:	e59f108c 	ldr	r1, [pc, #140]	; 8304 <data_abort_vector+0xbc>
    8274:	e59f208c 	ldr	r2, [pc, #140]	; 8308 <data_abort_vector+0xc0>
    8278:	e3a03079 	mov	r3, #121	; 0x79
    827c:	eb0002b9 	bl	8d68 <printk>
    8280:	eb000450 	bl	93c8 <clean_reboot>
    8284:	ee103e16 	mrc	14, 0, r3, cr0, cr6, {0}
    8288:	e2433004 	sub	r3, r3, #4
    828c:	e1530000 	cmp	r3, r0
    8290:	0a000008 	beq	82b8 <data_abort_vector+0x70>
    8294:	eb0002ce 	bl	8dd4 <rpi_reset_putc>
    8298:	e59f306c 	ldr	r3, [pc, #108]	; 830c <data_abort_vector+0xc4>
    829c:	e58d3000 	str	r3, [sp]
    82a0:	e59f0068 	ldr	r0, [pc, #104]	; 8310 <data_abort_vector+0xc8>
    82a4:	e59f1068 	ldr	r1, [pc, #104]	; 8314 <data_abort_vector+0xcc>
    82a8:	e59f2068 	ldr	r2, [pc, #104]	; 8318 <data_abort_vector+0xd0>
    82ac:	e3a03067 	mov	r3, #103	; 0x67
    82b0:	eb0002ac 	bl	8d68 <printk>
    82b4:	eb000443 	bl	93c8 <clean_reboot>
    82b8:	e59f305c 	ldr	r3, [pc, #92]	; 831c <data_abort_vector+0xd4>
    82bc:	e5933000 	ldr	r3, [r3]
    82c0:	e3530000 	cmp	r3, #0
    82c4:	1a000008 	bne	82ec <data_abort_vector+0xa4>
    82c8:	eb0002c1 	bl	8dd4 <rpi_reset_putc>
    82cc:	e59f304c 	ldr	r3, [pc, #76]	; 8320 <data_abort_vector+0xd8>
    82d0:	e58d3000 	str	r3, [sp]
    82d4:	e59f0034 	ldr	r0, [pc, #52]	; 8310 <data_abort_vector+0xc8>
    82d8:	e59f1034 	ldr	r1, [pc, #52]	; 8314 <data_abort_vector+0xcc>
    82dc:	e59f2034 	ldr	r2, [pc, #52]	; 8318 <data_abort_vector+0xd0>
    82e0:	e3a03069 	mov	r3, #105	; 0x69
    82e4:	eb00029f 	bl	8d68 <printk>
    82e8:	eb000436 	bl	93c8 <clean_reboot>
    82ec:	ee162f10 	mrc	15, 0, r2, cr6, cr0, {0}
    82f0:	e3a00000 	mov	r0, #0
    82f4:	e12fff33 	blx	r3
    82f8:	e28dd00c 	add	sp, sp, #12
    82fc:	e49df004 	pop	{pc}		; (ldr pc, [sp], #4)
    8300:	00009a94 	muleq	r0, r4, sl
    8304:	00009acc 	andeq	r9, r0, ip, asr #21
    8308:	00009bc4 	andeq	r9, r0, r4, asr #23
    830c:	00009adc 	ldrdeq	r9, [r0], -ip
    8310:	00009980 	andeq	r9, r0, r0, lsl #19
    8314:	00009a6c 	andeq	r9, r0, ip, ror #20
    8318:	00009bb0 			; <UNDEFINED> instruction: 0x00009bb0
    831c:	0000a168 	andeq	sl, r0, r8, ror #2
    8320:	00009af0 	strdeq	r9, [r0], -r0

00008324 <cp14_enable>:
    8324:	e92d4008 	push	{r3, lr}
    8328:	e59f302c 	ldr	r3, [pc, #44]	; 835c <cp14_enable+0x38>
    832c:	e5933000 	ldr	r3, [r3]
    8330:	e3530000 	cmp	r3, #0
    8334:	1a000003 	bne	8348 <cp14_enable+0x24>
    8338:	eb000470 	bl	9500 <int_init>
    833c:	e3a02001 	mov	r2, #1
    8340:	e59f3014 	ldr	r3, [pc, #20]	; 835c <cp14_enable+0x38>
    8344:	e5832000 	str	r2, [r3]
    8348:	e3a03902 	mov	r3, #32768	; 0x8000
    834c:	ee003e11 	mcr	14, 0, r3, cr0, cr1, {0}
    8350:	e3a03000 	mov	r3, #0
    8354:	ee073f95 	mcr	15, 0, r3, cr7, cr5, {4}
    8358:	e8bd8008 	pop	{r3, pc}
    835c:	0000a178 	andeq	sl, r0, r8, ror r1

00008360 <brkpt_set0>:
    8360:	ee103eb0 	mrc	14, 0, r3, cr0, cr0, {5}
    8364:	e3c33001 	bic	r3, r3, #1
    8368:	ee003eb0 	mcr	14, 0, r3, cr0, cr0, {5}
    836c:	ee000e90 	mcr	14, 0, r0, cr0, cr0, {4}
    8370:	e59f3014 	ldr	r3, [pc, #20]	; 838c <brkpt_set0+0x2c>
    8374:	ee003eb0 	mcr	14, 0, r3, cr0, cr0, {5}
    8378:	e3a03000 	mov	r3, #0
    837c:	ee073f95 	mcr	15, 0, r3, cr7, cr5, {4}
    8380:	e59f3008 	ldr	r3, [pc, #8]	; 8390 <brkpt_set0+0x30>
    8384:	e5831000 	str	r1, [r3]
    8388:	e12fff1e 	bx	lr
    838c:	000001e7 	andeq	r0, r0, r7, ror #3
    8390:	0000a16c 	andeq	sl, r0, ip, ror #2

00008394 <prefetch_abort_vector>:
    8394:	e52de004 	push	{lr}		; (str lr, [sp, #-4]!)
    8398:	e24dd00c 	sub	sp, sp, #12
    839c:	e1a01000 	mov	r1, r0
    83a0:	ee153f30 	mrc	15, 0, r3, cr5, cr0, {1}
    83a4:	e203300f 	and	r3, r3, #15
    83a8:	e3530002 	cmp	r3, #2
    83ac:	0a000006 	beq	83cc <prefetch_abort_vector+0x38>
    83b0:	eb000287 	bl	8dd4 <rpi_reset_putc>
    83b4:	e59f0058 	ldr	r0, [pc, #88]	; 8414 <prefetch_abort_vector+0x80>
    83b8:	e59f1058 	ldr	r1, [pc, #88]	; 8418 <prefetch_abort_vector+0x84>
    83bc:	e59f2058 	ldr	r2, [pc, #88]	; 841c <prefetch_abort_vector+0x88>
    83c0:	e3a030c7 	mov	r3, #199	; 0xc7
    83c4:	eb000267 	bl	8d68 <printk>
    83c8:	eb0003fe 	bl	93c8 <clean_reboot>
    83cc:	e59f304c 	ldr	r3, [pc, #76]	; 8420 <prefetch_abort_vector+0x8c>
    83d0:	e5933000 	ldr	r3, [r3]
    83d4:	e3530000 	cmp	r3, #0
    83d8:	1a000008 	bne	8400 <prefetch_abort_vector+0x6c>
    83dc:	eb00027c 	bl	8dd4 <rpi_reset_putc>
    83e0:	e59f303c 	ldr	r3, [pc, #60]	; 8424 <prefetch_abort_vector+0x90>
    83e4:	e58d3000 	str	r3, [sp]
    83e8:	e59f0038 	ldr	r0, [pc, #56]	; 8428 <prefetch_abort_vector+0x94>
    83ec:	e59f1024 	ldr	r1, [pc, #36]	; 8418 <prefetch_abort_vector+0x84>
    83f0:	e59f2024 	ldr	r2, [pc, #36]	; 841c <prefetch_abort_vector+0x88>
    83f4:	e3a030c8 	mov	r3, #200	; 0xc8
    83f8:	eb00025a 	bl	8d68 <printk>
    83fc:	eb0003f1 	bl	93c8 <clean_reboot>
    8400:	ee162f10 	mrc	15, 0, r2, cr6, cr0, {0}
    8404:	e3a00000 	mov	r0, #0
    8408:	e12fff33 	blx	r3
    840c:	e28dd00c 	add	sp, sp, #12
    8410:	e49df004 	pop	{pc}		; (ldr pc, [sp], #4)
    8414:	00009b04 	andeq	r9, r0, r4, lsl #22
    8418:	00009a6c 	andeq	r9, r0, ip, ror #20
    841c:	00009bd8 	ldrdeq	r9, [r0], -r8
    8420:	0000a16c 	andeq	sl, r0, ip, ror #2
    8424:	00009b3c 	andeq	r9, r0, ip, lsr fp
    8428:	00009980 	andeq	r9, r0, r0, lsl #19

0000842c <interrupt_vector>:
    842c:	e12fff1e 	bx	lr

00008430 <brk_no_ret_error>:
    8430:	e92d4008 	push	{r3, lr}
    8434:	eb000266 	bl	8dd4 <rpi_reset_putc>
    8438:	e59f0010 	ldr	r0, [pc, #16]	; 8450 <brk_no_ret_error+0x20>
    843c:	e59f1010 	ldr	r1, [pc, #16]	; 8454 <brk_no_ret_error+0x24>
    8440:	e59f2010 	ldr	r2, [pc, #16]	; 8458 <brk_no_ret_error+0x28>
    8444:	e3a030d9 	mov	r3, #217	; 0xd9
    8448:	eb000246 	bl	8d68 <printk>
    844c:	eb0003dd 	bl	93c8 <clean_reboot>
    8450:	00009b4c 	andeq	r9, r0, ip, asr #22
    8454:	00009a6c 	andeq	r9, r0, ip, ror #20
    8458:	00009bf0 	strdeq	r9, [r0], -r0

0000845c <brkpt_mismatch_set0>:
    845c:	ee103eb0 	mrc	14, 0, r3, cr0, cr0, {5}
    8460:	e3c33001 	bic	r3, r3, #1
    8464:	ee003eb0 	mcr	14, 0, r3, cr0, cr0, {5}
    8468:	ee000e90 	mcr	14, 0, r0, cr0, cr0, {4}
    846c:	e59f3014 	ldr	r3, [pc, #20]	; 8488 <brkpt_mismatch_set0+0x2c>
    8470:	ee003eb0 	mcr	14, 0, r3, cr0, cr0, {5}
    8474:	e3a03000 	mov	r3, #0
    8478:	ee073f95 	mcr	15, 0, r3, cr7, cr5, {4}
    847c:	e59f3008 	ldr	r3, [pc, #8]	; 848c <brkpt_mismatch_set0+0x30>
    8480:	e5831000 	str	r1, [r3]
    8484:	e12fff1e 	bx	lr
    8488:	004001e7 	subeq	r0, r0, r7, ror #3
    848c:	0000a16c 	andeq	sl, r0, ip, ror #2

00008490 <brkpt_mismatch_disable0>:
    8490:	e59f3004 	ldr	r3, [pc, #4]	; 849c <brkpt_mismatch_disable0+0xc>
    8494:	ee003eb0 	mcr	14, 0, r3, cr0, cr0, {5}
    8498:	e12fff1e 	bx	lr
    849c:	004001e6 	subeq	r0, r0, r6, ror #3

000084a0 <syscall_vector>:
    84a0:	e92d4008 	push	{r3, lr}
    84a4:	e5903000 	ldr	r3, [r0]
    84a8:	e3c334ff 	bic	r3, r3, #-16777216	; 0xff000000
    84ac:	e3530001 	cmp	r3, #1
    84b0:	1a000001 	bne	84bc <syscall_vector+0x1c>
    84b4:	e169f001 	msr	SPSR_fc, r1
    84b8:	ea000007 	b	84dc <syscall_vector+0x3c>
    84bc:	e3530002 	cmp	r3, #2
    84c0:	1a000002 	bne	84d0 <syscall_vector+0x30>
    84c4:	e59f0018 	ldr	r0, [pc, #24]	; 84e4 <syscall_vector+0x44>
    84c8:	eb000226 	bl	8d68 <printk>
    84cc:	ea000002 	b	84dc <syscall_vector+0x3c>
    84d0:	e59f0010 	ldr	r0, [pc, #16]	; 84e8 <syscall_vector+0x48>
    84d4:	e1a01003 	mov	r1, r3
    84d8:	eb000222 	bl	8d68 <printk>
    84dc:	e3a00000 	mov	r0, #0
    84e0:	e8bd8008 	pop	{r3, pc}
    84e4:	00009b7c 	andeq	r9, r0, ip, ror fp
    84e8:	00009b88 	andeq	r9, r0, r8, lsl #23

000084ec <_interrupt_table>:
    84ec:	e59ff020 	ldr	pc, [pc, #32]	; 8514 <_reset_asm>
    84f0:	e59ff020 	ldr	pc, [pc, #32]	; 8518 <_undefined_instruction_asm>
    84f4:	e59ff020 	ldr	pc, [pc, #32]	; 851c <_software_interrupt_asm>
    84f8:	e59ff020 	ldr	pc, [pc, #32]	; 8520 <_prefetch_abort_asm>
    84fc:	e59ff020 	ldr	pc, [pc, #32]	; 8524 <_data_abort_asm>
    8500:	e59ff00c 	ldr	pc, [pc, #12]	; 8514 <_reset_asm>
    8504:	e59ff01c 	ldr	pc, [pc, #28]	; 8528 <_interrupt_asm>

00008508 <fast_interrupt_asm>:
    8508:	e3a0d409 	mov	sp, #150994944	; 0x9000000
    850c:	e24ee004 	sub	lr, lr, #4
    8510:	eb0003c5 	bl	942c <fast_interrupt_vector>

00008514 <_reset_asm>:
    8514:	00008544 	andeq	r8, r0, r4, asr #10

00008518 <_undefined_instruction_asm>:
    8518:	00008588 	andeq	r8, r0, r8, lsl #11

0000851c <_software_interrupt_asm>:
    851c:	00008594 	muleq	r0, r4, r5

00008520 <_prefetch_abort_asm>:
    8520:	0000856c 	andeq	r8, r0, ip, ror #10

00008524 <_data_abort_asm>:
    8524:	00008550 	andeq	r8, r0, r0, asr r5

00008528 <_interrupt_asm>:
    8528:	0000852c 	andeq	r8, r0, ip, lsr #10

0000852c <_interrupt_table_end>:
    852c:	e3a0d409 	mov	sp, #150994944	; 0x9000000
    8530:	e24ee004 	sub	lr, lr, #4
    8534:	e92d5fff 	push	{r0, r1, r2, r3, r4, r5, r6, r7, r8, r9, sl, fp, ip, lr}
    8538:	e1a0000e 	mov	r0, lr
    853c:	e8bd5fff 	pop	{r0, r1, r2, r3, r4, r5, r6, r7, r8, r9, sl, fp, ip, lr}
    8540:	e1b0f00e 	movs	pc, lr

00008544 <reset_asm>:
    8544:	e3a0d409 	mov	sp, #150994944	; 0x9000000
    8548:	e24ee004 	sub	lr, lr, #4
    854c:	eb0003c7 	bl	9470 <reset_vector>

00008550 <data_abort_asm>:
    8550:	e24ee008 	sub	lr, lr, #8
    8554:	e3a0d409 	mov	sp, #150994944	; 0x9000000
    8558:	e92d5fff 	push	{r0, r1, r2, r3, r4, r5, r6, r7, r8, r9, sl, fp, ip, lr}
    855c:	e1a0000e 	mov	r0, lr
    8560:	ebffff38 	bl	8248 <data_abort_vector>
    8564:	e8bd5fff 	pop	{r0, r1, r2, r3, r4, r5, r6, r7, r8, r9, sl, fp, ip, lr}
    8568:	e1b0f00e 	movs	pc, lr

0000856c <prefetch_abort_asm>:
    856c:	e24ee004 	sub	lr, lr, #4
    8570:	e3a0d409 	mov	sp, #150994944	; 0x9000000
    8574:	e92d5fff 	push	{r0, r1, r2, r3, r4, r5, r6, r7, r8, r9, sl, fp, ip, lr}
    8578:	e1a0000e 	mov	r0, lr
    857c:	ebffff84 	bl	8394 <prefetch_abort_vector>
    8580:	e8bd5fff 	pop	{r0, r1, r2, r3, r4, r5, r6, r7, r8, r9, sl, fp, ip, lr}
    8584:	e1b0f00e 	movs	pc, lr

00008588 <undefined_instruction_asm>:
    8588:	e3a0d409 	mov	sp, #150994944	; 0x9000000
    858c:	e24ee004 	sub	lr, lr, #4
    8590:	eb0003c7 	bl	94b4 <undefined_instruction_vector>

00008594 <software_interrupt_asm>:
    8594:	e92d5ff0 	push	{r4, r5, r6, r7, r8, r9, sl, fp, ip, lr}
    8598:	e24ee004 	sub	lr, lr, #4
    859c:	e1a01000 	mov	r1, r0
    85a0:	e1a0000e 	mov	r0, lr
    85a4:	ebffffbd 	bl	84a0 <syscall_vector>
    85a8:	e8bd5ff0 	pop	{r4, r5, r6, r7, r8, r9, sl, fp, ip, lr}
    85ac:	e1b0f00e 	movs	pc, lr

000085b0 <user_trampoline_no_ret>:
    85b0:	e1a0200d 	mov	r2, sp
    85b4:	e129f000 	msr	CPSR_fc, r0
    85b8:	e10f5000 	mrs	r5, CPSR
    85bc:	ee070f95 	mcr	15, 0, r0, cr7, cr5, {4}
    85c0:	e1a0d002 	mov	sp, r2
    85c4:	e92d5ff0 	push	{r4, r5, r6, r7, r8, r9, sl, fp, ip, lr}
    85c8:	e12fff31 	blx	r1
    85cc:	e8bd5ff0 	pop	{r4, r5, r6, r7, r8, r9, sl, fp, ip, lr}
    85d0:	eb00037c 	bl	93c8 <clean_reboot>
    85d4:	ebffff95 	bl	8430 <brk_no_ret_error>

000085d8 <user_trampoline_ret>:
    85d8:	e92d5ff0 	push	{r4, r5, r6, r7, r8, r9, sl, fp, ip, lr}
    85dc:	e10f4000 	mrs	r4, CPSR
    85e0:	e1a0500d 	mov	r5, sp
    85e4:	e129f000 	msr	CPSR_fc, r0
    85e8:	e1a0d005 	mov	sp, r5
    85ec:	e1a00002 	mov	r0, r2
    85f0:	e12fff31 	blx	r1
    85f4:	e1a00004 	mov	r0, r4
    85f8:	ef000001 	svc	0x00000001
    85fc:	e8bd5ff0 	pop	{r4, r5, r6, r7, r8, r9, sl, fp, ip, lr}
    8600:	e12fff1e 	bx	lr

00008604 <sys_lock_init>:
    8604:	e12fff1e 	bx	lr

00008608 <sys_lock_try>:
    8608:	e12fff1e 	bx	lr
    860c:	e12fff1e 	bx	lr

00008610 <single_step_handler>:
    8610:	e92d4030 	push	{r4, r5, lr}
    8614:	e24dd00c 	sub	sp, sp, #12
    8618:	e1a05001 	mov	r5, r1
    861c:	e59f3150 	ldr	r3, [pc, #336]	; 8774 <single_step_handler+0x164>
    8620:	e5933000 	ldr	r3, [r3]
    8624:	e3530000 	cmp	r3, #0
    8628:	0a000005 	beq	8644 <single_step_handler+0x34>
    862c:	e58d1000 	str	r1, [sp]
    8630:	e59f0140 	ldr	r0, [pc, #320]	; 8778 <single_step_handler+0x168>
    8634:	e59f1140 	ldr	r1, [pc, #320]	; 877c <single_step_handler+0x16c>
    8638:	e59f2140 	ldr	r2, [pc, #320]	; 8780 <single_step_handler+0x170>
    863c:	e3a0300c 	mov	r3, #12
    8640:	eb0001c8 	bl	8d68 <printk>
    8644:	ee153f30 	mrc	15, 0, r3, cr5, cr0, {1}
    8648:	e203300f 	and	r3, r3, #15
    864c:	e3530002 	cmp	r3, #2
    8650:	0a000006 	beq	8670 <single_step_handler+0x60>
    8654:	eb0001de 	bl	8dd4 <rpi_reset_putc>
    8658:	e59f0124 	ldr	r0, [pc, #292]	; 8784 <single_step_handler+0x174>
    865c:	e59f1118 	ldr	r1, [pc, #280]	; 877c <single_step_handler+0x16c>
    8660:	e59f2118 	ldr	r2, [pc, #280]	; 8780 <single_step_handler+0x170>
    8664:	e3a0300e 	mov	r3, #14
    8668:	eb0001be 	bl	8d68 <printk>
    866c:	eb000355 	bl	93c8 <clean_reboot>
    8670:	e59f3110 	ldr	r3, [pc, #272]	; 8788 <single_step_handler+0x178>
    8674:	e5934000 	ldr	r4, [r3]
    8678:	e594201c 	ldr	r2, [r4, #28]
    867c:	e5943018 	ldr	r3, [r4, #24]
    8680:	e1520003 	cmp	r2, r3
    8684:	1a000011 	bne	86d0 <single_step_handler+0xc0>
    8688:	e59f00fc 	ldr	r0, [pc, #252]	; 878c <single_step_handler+0x17c>
    868c:	e1a01005 	mov	r1, r5
    8690:	e5942008 	ldr	r2, [r4, #8]
    8694:	eb0001b3 	bl	8d68 <printk>
    8698:	e1a00005 	mov	r0, r5
    869c:	ebffff7b 	bl	8490 <brkpt_mismatch_disable0>
    86a0:	e5845020 	str	r5, [r4, #32]
    86a4:	e3a03001 	mov	r3, #1
    86a8:	e5843024 	str	r3, [r4, #36]	; 0x24
    86ac:	e5943014 	ldr	r3, [r4, #20]
    86b0:	e2833001 	add	r3, r3, #1
    86b4:	e5843014 	str	r3, [r4, #20]
    86b8:	e5943008 	ldr	r3, [r4, #8]
    86bc:	e1a00004 	mov	r0, r4
    86c0:	e12fff33 	blx	r3
    86c4:	e59f00c4 	ldr	r0, [pc, #196]	; 8790 <single_step_handler+0x180>
    86c8:	eb0001a6 	bl	8d68 <printk>
    86cc:	ea000026 	b	876c <single_step_handler+0x15c>
    86d0:	e594201c 	ldr	r2, [r4, #28]
    86d4:	e5943018 	ldr	r3, [r4, #24]
    86d8:	e1520003 	cmp	r2, r3
    86dc:	3a000008 	bcc	8704 <single_step_handler+0xf4>
    86e0:	eb0001bb 	bl	8dd4 <rpi_reset_putc>
    86e4:	e59f30a8 	ldr	r3, [pc, #168]	; 8794 <single_step_handler+0x184>
    86e8:	e58d3000 	str	r3, [sp]
    86ec:	e59f00a4 	ldr	r0, [pc, #164]	; 8798 <single_step_handler+0x188>
    86f0:	e59f1084 	ldr	r1, [pc, #132]	; 877c <single_step_handler+0x16c>
    86f4:	e59f2084 	ldr	r2, [pc, #132]	; 8780 <single_step_handler+0x170>
    86f8:	e3a03021 	mov	r3, #33	; 0x21
    86fc:	eb000199 	bl	8d68 <printk>
    8700:	eb000330 	bl	93c8 <clean_reboot>
    8704:	e594301c 	ldr	r3, [r4, #28]
    8708:	e2833001 	add	r3, r3, #1
    870c:	e584301c 	str	r3, [r4, #28]
    8710:	e59f305c 	ldr	r3, [pc, #92]	; 8774 <single_step_handler+0x164>
    8714:	e5933000 	ldr	r3, [r3]
    8718:	e3530000 	cmp	r3, #0
    871c:	0a000005 	beq	8738 <single_step_handler+0x128>
    8720:	e58d5000 	str	r5, [sp]
    8724:	e59f0070 	ldr	r0, [pc, #112]	; 879c <single_step_handler+0x18c>
    8728:	e59f104c 	ldr	r1, [pc, #76]	; 877c <single_step_handler+0x16c>
    872c:	e59f204c 	ldr	r2, [pc, #76]	; 8780 <single_step_handler+0x170>
    8730:	e3a03024 	mov	r3, #36	; 0x24
    8734:	eb00018b 	bl	8d68 <printk>
    8738:	e1a00005 	mov	r0, r5
    873c:	e59f105c 	ldr	r1, [pc, #92]	; 87a0 <single_step_handler+0x190>
    8740:	ebffff45 	bl	845c <brkpt_mismatch_set0>
    8744:	e59f3028 	ldr	r3, [pc, #40]	; 8774 <single_step_handler+0x164>
    8748:	e5933000 	ldr	r3, [r3]
    874c:	e3530000 	cmp	r3, #0
    8750:	0a000005 	beq	876c <single_step_handler+0x15c>
    8754:	e58d5000 	str	r5, [sp]
    8758:	e59f0044 	ldr	r0, [pc, #68]	; 87a4 <single_step_handler+0x194>
    875c:	e59f1018 	ldr	r1, [pc, #24]	; 877c <single_step_handler+0x16c>
    8760:	e59f2018 	ldr	r2, [pc, #24]	; 8780 <single_step_handler+0x170>
    8764:	e3a03026 	mov	r3, #38	; 0x26
    8768:	eb00017e 	bl	8d68 <printk>
    876c:	e28dd00c 	add	sp, sp, #12
    8770:	e8bd8030 	pop	{r4, r5, pc}
    8774:	0000a170 	andeq	sl, r0, r0, ror r1
    8778:	00009c04 	andeq	r9, r0, r4, lsl #24
    877c:	00009c24 	andeq	r9, r0, r4, lsr #24
    8780:	00009f08 	andeq	r9, r0, r8, lsl #30
    8784:	00009b04 	andeq	r9, r0, r4, lsl #22
    8788:	0000a17c 	andeq	sl, r0, ip, ror r1
    878c:	00009c38 	andeq	r9, r0, r8, lsr ip
    8790:	00009c58 	andeq	r9, r0, r8, asr ip
    8794:	00009c80 	andeq	r9, r0, r0, lsl #25
    8798:	00009980 	andeq	r9, r0, r0, lsl #19
    879c:	00009ca4 	andeq	r9, r0, r4, lsr #25
    87a0:	00008610 	andeq	r8, r0, r0, lsl r6
    87a4:	00009ccc 	andeq	r9, r0, ip, asr #25

000087a8 <check_one_cswitch>:
    87a8:	e92d4ff0 	push	{r4, r5, r6, r7, r8, r9, sl, fp, lr}
    87ac:	e24dd00c 	sub	sp, sp, #12
    87b0:	e1a04000 	mov	r4, r0
    87b4:	e10f8000 	mrs	r8, CPSR
    87b8:	e3c8701f 	bic	r7, r8, #31
    87bc:	e3877010 	orr	r7, r7, #16
    87c0:	e59f3448 	ldr	r3, [pc, #1096]	; 8c10 <check_one_cswitch+0x468>
    87c4:	e5830000 	str	r0, [r3]
    87c8:	e3a03001 	mov	r3, #1
    87cc:	e5803030 	str	r3, [r0, #48]	; 0x30
    87d0:	e59f643c 	ldr	r6, [pc, #1084]	; 8c14 <check_one_cswitch+0x46c>
    87d4:	e59fb43c 	ldr	fp, [pc, #1084]	; 8c18 <check_one_cswitch+0x470>
    87d8:	e59fa43c 	ldr	sl, [pc, #1084]	; 8c1c <check_one_cswitch+0x474>
    87dc:	e59f943c 	ldr	r9, [pc, #1084]	; 8c20 <check_one_cswitch+0x478>
    87e0:	e59f543c 	ldr	r5, [pc, #1084]	; 8c24 <check_one_cswitch+0x47c>
    87e4:	e594300c 	ldr	r3, [r4, #12]
    87e8:	e1a00004 	mov	r0, r4
    87ec:	e12fff33 	blx	r3
    87f0:	e5963000 	ldr	r3, [r6]
    87f4:	e3530000 	cmp	r3, #0
    87f8:	0a000006 	beq	8818 <check_one_cswitch+0x70>
    87fc:	e5943028 	ldr	r3, [r4, #40]	; 0x28
    8800:	e58d3000 	str	r3, [sp]
    8804:	e1a0000b 	mov	r0, fp
    8808:	e1a0100a 	mov	r1, sl
    880c:	e1a02009 	mov	r2, r9
    8810:	e3a03033 	mov	r3, #51	; 0x33
    8814:	eb000153 	bl	8d68 <printk>
    8818:	e3a00000 	mov	r0, #0
    881c:	e1a01005 	mov	r1, r5
    8820:	ebffff0d 	bl	845c <brkpt_mismatch_set0>
    8824:	e5943018 	ldr	r3, [r4, #24]
    8828:	e2833001 	add	r3, r3, #1
    882c:	e5843018 	str	r3, [r4, #24]
    8830:	e3a03000 	mov	r3, #0
    8834:	e584301c 	str	r3, [r4, #28]
    8838:	e5843024 	str	r3, [r4, #36]	; 0x24
    883c:	e1a00007 	mov	r0, r7
    8840:	e5941004 	ldr	r1, [r4, #4]
    8844:	e1a02004 	mov	r2, r4
    8848:	ebffff62 	bl	85d8 <user_trampoline_ret>
    884c:	e5943010 	ldr	r3, [r4, #16]
    8850:	e1a00004 	mov	r0, r4
    8854:	e12fff33 	blx	r3
    8858:	e3500000 	cmp	r0, #0
    885c:	1a000006 	bne	887c <check_one_cswitch+0xd4>
    8860:	e5941020 	ldr	r1, [r4, #32]
    8864:	e5942018 	ldr	r2, [r4, #24]
    8868:	e59f03b8 	ldr	r0, [pc, #952]	; 8c28 <check_one_cswitch+0x480>
    886c:	eb00013d 	bl	8d68 <printk>
    8870:	e594302c 	ldr	r3, [r4, #44]	; 0x2c
    8874:	e2833001 	add	r3, r3, #1
    8878:	e584302c 	str	r3, [r4, #44]	; 0x2c
    887c:	e5942028 	ldr	r2, [r4, #40]	; 0x28
    8880:	e2822001 	add	r2, r2, #1
    8884:	e5842028 	str	r2, [r4, #40]	; 0x28
    8888:	e5943024 	ldr	r3, [r4, #36]	; 0x24
    888c:	e3530000 	cmp	r3, #0
    8890:	1affffd3 	bne	87e4 <check_one_cswitch+0x3c>
    8894:	e5941014 	ldr	r1, [r4, #20]
    8898:	e59f038c 	ldr	r0, [pc, #908]	; 8c2c <check_one_cswitch+0x484>
    889c:	e594302c 	ldr	r3, [r4, #44]	; 0x2c
    88a0:	eb000130 	bl	8d68 <printk>
    88a4:	e208301f 	and	r3, r8, #31
    88a8:	e3530012 	cmp	r3, #18
    88ac:	13530010 	cmpne	r3, #16
    88b0:	0a000006 	beq	88d0 <check_one_cswitch+0x128>
    88b4:	e3530017 	cmp	r3, #23
    88b8:	13530013 	cmpne	r3, #19
    88bc:	0a000005 	beq	88d8 <check_one_cswitch+0x130>
    88c0:	e353001f 	cmp	r3, #31
    88c4:	1a000005 	bne	88e0 <check_one_cswitch+0x138>
    88c8:	e3a02001 	mov	r2, #1
    88cc:	ea000004 	b	88e4 <check_one_cswitch+0x13c>
    88d0:	e3a02001 	mov	r2, #1
    88d4:	ea000002 	b	88e4 <check_one_cswitch+0x13c>
    88d8:	e3a02001 	mov	r2, #1
    88dc:	ea000000 	b	88e4 <check_one_cswitch+0x13c>
    88e0:	e3a02000 	mov	r2, #0
    88e4:	e3520000 	cmp	r2, #0
    88e8:	1a000008 	bne	8910 <check_one_cswitch+0x168>
    88ec:	eb000138 	bl	8dd4 <rpi_reset_putc>
    88f0:	e59f3338 	ldr	r3, [pc, #824]	; 8c30 <check_one_cswitch+0x488>
    88f4:	e58d3000 	str	r3, [sp]
    88f8:	e59f0334 	ldr	r0, [pc, #820]	; 8c34 <check_one_cswitch+0x48c>
    88fc:	e59f1334 	ldr	r1, [pc, #820]	; 8c38 <check_one_cswitch+0x490>
    8900:	e59f2334 	ldr	r2, [pc, #820]	; 8c3c <check_one_cswitch+0x494>
    8904:	e3a03011 	mov	r3, #17
    8908:	eb000116 	bl	8d68 <printk>
    890c:	eb0002ad 	bl	93c8 <clean_reboot>
    8910:	e2433010 	sub	r3, r3, #16
    8914:	e353000f 	cmp	r3, #15
    8918:	979ff103 	ldrls	pc, [pc, r3, lsl #2]
    891c:	ea000019 	b	8988 <check_one_cswitch+0x1e0>
    8920:	000089a8 	andeq	r8, r0, r8, lsr #19
    8924:	000089b0 			; <UNDEFINED> instruction: 0x000089b0
    8928:	00008960 	andeq	r8, r0, r0, ror #18
    892c:	00008968 	andeq	r8, r0, r8, ror #18
    8930:	00008988 	andeq	r8, r0, r8, lsl #19
    8934:	00008988 	andeq	r8, r0, r8, lsl #19
    8938:	00008988 	andeq	r8, r0, r8, lsl #19
    893c:	00008970 	andeq	r8, r0, r0, ror r9
    8940:	00008988 	andeq	r8, r0, r8, lsl #19
    8944:	00008988 	andeq	r8, r0, r8, lsl #19
    8948:	00008988 	andeq	r8, r0, r8, lsl #19
    894c:	00008978 	andeq	r8, r0, r8, ror r9
    8950:	00008988 	andeq	r8, r0, r8, lsl #19
    8954:	00008988 	andeq	r8, r0, r8, lsl #19
    8958:	00008988 	andeq	r8, r0, r8, lsl #19
    895c:	00008980 	andeq	r8, r0, r0, lsl #19
    8960:	e59f12d8 	ldr	r1, [pc, #728]	; 8c40 <check_one_cswitch+0x498>
    8964:	ea000012 	b	89b4 <check_one_cswitch+0x20c>
    8968:	e59f12d4 	ldr	r1, [pc, #724]	; 8c44 <check_one_cswitch+0x49c>
    896c:	ea000010 	b	89b4 <check_one_cswitch+0x20c>
    8970:	e59f12d0 	ldr	r1, [pc, #720]	; 8c48 <check_one_cswitch+0x4a0>
    8974:	ea00000e 	b	89b4 <check_one_cswitch+0x20c>
    8978:	e59f12cc 	ldr	r1, [pc, #716]	; 8c4c <check_one_cswitch+0x4a4>
    897c:	ea00000c 	b	89b4 <check_one_cswitch+0x20c>
    8980:	e59f12c8 	ldr	r1, [pc, #712]	; 8c50 <check_one_cswitch+0x4a8>
    8984:	ea00000a 	b	89b4 <check_one_cswitch+0x20c>
    8988:	eb000111 	bl	8dd4 <rpi_reset_putc>
    898c:	e58d8000 	str	r8, [sp]
    8990:	e59f02bc 	ldr	r0, [pc, #700]	; 8c54 <check_one_cswitch+0x4ac>
    8994:	e59f129c 	ldr	r1, [pc, #668]	; 8c38 <check_one_cswitch+0x490>
    8998:	e59f22b8 	ldr	r2, [pc, #696]	; 8c58 <check_one_cswitch+0x4b0>
    899c:	e3a03021 	mov	r3, #33	; 0x21
    89a0:	eb0000f0 	bl	8d68 <printk>
    89a4:	eb000287 	bl	93c8 <clean_reboot>
    89a8:	e59f12ac 	ldr	r1, [pc, #684]	; 8c5c <check_one_cswitch+0x4b4>
    89ac:	ea000000 	b	89b4 <check_one_cswitch+0x20c>
    89b0:	e59f12a8 	ldr	r1, [pc, #680]	; 8c60 <check_one_cswitch+0x4b8>
    89b4:	e59f02a8 	ldr	r0, [pc, #680]	; 8c64 <check_one_cswitch+0x4bc>
    89b8:	e1a02008 	mov	r2, r8
    89bc:	eb0000e9 	bl	8d68 <printk>
    89c0:	e10f5000 	mrs	r5, CPSR
    89c4:	e205301f 	and	r3, r5, #31
    89c8:	e3530012 	cmp	r3, #18
    89cc:	13530010 	cmpne	r3, #16
    89d0:	0a000006 	beq	89f0 <check_one_cswitch+0x248>
    89d4:	e3530017 	cmp	r3, #23
    89d8:	13530013 	cmpne	r3, #19
    89dc:	0a000005 	beq	89f8 <check_one_cswitch+0x250>
    89e0:	e353001f 	cmp	r3, #31
    89e4:	1a000005 	bne	8a00 <check_one_cswitch+0x258>
    89e8:	e3a02001 	mov	r2, #1
    89ec:	ea000004 	b	8a04 <check_one_cswitch+0x25c>
    89f0:	e3a02001 	mov	r2, #1
    89f4:	ea000002 	b	8a04 <check_one_cswitch+0x25c>
    89f8:	e3a02001 	mov	r2, #1
    89fc:	ea000000 	b	8a04 <check_one_cswitch+0x25c>
    8a00:	e3a02000 	mov	r2, #0
    8a04:	e3520000 	cmp	r2, #0
    8a08:	1a000008 	bne	8a30 <check_one_cswitch+0x288>
    8a0c:	eb0000f0 	bl	8dd4 <rpi_reset_putc>
    8a10:	e59f3218 	ldr	r3, [pc, #536]	; 8c30 <check_one_cswitch+0x488>
    8a14:	e58d3000 	str	r3, [sp]
    8a18:	e59f0214 	ldr	r0, [pc, #532]	; 8c34 <check_one_cswitch+0x48c>
    8a1c:	e59f1214 	ldr	r1, [pc, #532]	; 8c38 <check_one_cswitch+0x490>
    8a20:	e59f2214 	ldr	r2, [pc, #532]	; 8c3c <check_one_cswitch+0x494>
    8a24:	e3a03011 	mov	r3, #17
    8a28:	eb0000ce 	bl	8d68 <printk>
    8a2c:	eb000265 	bl	93c8 <clean_reboot>
    8a30:	e2433010 	sub	r3, r3, #16
    8a34:	e353000f 	cmp	r3, #15
    8a38:	979ff103 	ldrls	pc, [pc, r3, lsl #2]
    8a3c:	ea000019 	b	8aa8 <check_one_cswitch+0x300>
    8a40:	00008ac8 	andeq	r8, r0, r8, asr #21
    8a44:	00008ad0 	ldrdeq	r8, [r0], -r0
    8a48:	00008a80 	andeq	r8, r0, r0, lsl #21
    8a4c:	00008a88 	andeq	r8, r0, r8, lsl #21
    8a50:	00008aa8 	andeq	r8, r0, r8, lsr #21
    8a54:	00008aa8 	andeq	r8, r0, r8, lsr #21
    8a58:	00008aa8 	andeq	r8, r0, r8, lsr #21
    8a5c:	00008a90 	muleq	r0, r0, sl
    8a60:	00008aa8 	andeq	r8, r0, r8, lsr #21
    8a64:	00008aa8 	andeq	r8, r0, r8, lsr #21
    8a68:	00008aa8 	andeq	r8, r0, r8, lsr #21
    8a6c:	00008a98 	muleq	r0, r8, sl
    8a70:	00008aa8 	andeq	r8, r0, r8, lsr #21
    8a74:	00008aa8 	andeq	r8, r0, r8, lsr #21
    8a78:	00008aa8 	andeq	r8, r0, r8, lsr #21
    8a7c:	00008aa0 	andeq	r8, r0, r0, lsr #21
    8a80:	e59f11b8 	ldr	r1, [pc, #440]	; 8c40 <check_one_cswitch+0x498>
    8a84:	ea000012 	b	8ad4 <check_one_cswitch+0x32c>
    8a88:	e59f11b4 	ldr	r1, [pc, #436]	; 8c44 <check_one_cswitch+0x49c>
    8a8c:	ea000010 	b	8ad4 <check_one_cswitch+0x32c>
    8a90:	e59f11b0 	ldr	r1, [pc, #432]	; 8c48 <check_one_cswitch+0x4a0>
    8a94:	ea00000e 	b	8ad4 <check_one_cswitch+0x32c>
    8a98:	e59f11ac 	ldr	r1, [pc, #428]	; 8c4c <check_one_cswitch+0x4a4>
    8a9c:	ea00000c 	b	8ad4 <check_one_cswitch+0x32c>
    8aa0:	e59f11a8 	ldr	r1, [pc, #424]	; 8c50 <check_one_cswitch+0x4a8>
    8aa4:	ea00000a 	b	8ad4 <check_one_cswitch+0x32c>
    8aa8:	eb0000c9 	bl	8dd4 <rpi_reset_putc>
    8aac:	e58d5000 	str	r5, [sp]
    8ab0:	e59f019c 	ldr	r0, [pc, #412]	; 8c54 <check_one_cswitch+0x4ac>
    8ab4:	e59f117c 	ldr	r1, [pc, #380]	; 8c38 <check_one_cswitch+0x490>
    8ab8:	e59f2198 	ldr	r2, [pc, #408]	; 8c58 <check_one_cswitch+0x4b0>
    8abc:	e3a03021 	mov	r3, #33	; 0x21
    8ac0:	eb0000a8 	bl	8d68 <printk>
    8ac4:	eb00023f 	bl	93c8 <clean_reboot>
    8ac8:	e59f118c 	ldr	r1, [pc, #396]	; 8c5c <check_one_cswitch+0x4b4>
    8acc:	ea000000 	b	8ad4 <check_one_cswitch+0x32c>
    8ad0:	e59f1188 	ldr	r1, [pc, #392]	; 8c60 <check_one_cswitch+0x4b8>
    8ad4:	e10f2000 	mrs	r2, CPSR
    8ad8:	e59f0188 	ldr	r0, [pc, #392]	; 8c68 <check_one_cswitch+0x4c0>
    8adc:	eb0000a1 	bl	8d68 <printk>
    8ae0:	e3a00000 	mov	r0, #0
    8ae4:	ebfffe69 	bl	8490 <brkpt_mismatch_disable0>
    8ae8:	e208801f 	and	r8, r8, #31
    8aec:	e3580012 	cmp	r8, #18
    8af0:	13580010 	cmpne	r8, #16
    8af4:	0a000006 	beq	8b14 <check_one_cswitch+0x36c>
    8af8:	e3580017 	cmp	r8, #23
    8afc:	13580013 	cmpne	r8, #19
    8b00:	0a000005 	beq	8b1c <check_one_cswitch+0x374>
    8b04:	e358001f 	cmp	r8, #31
    8b08:	1a000005 	bne	8b24 <check_one_cswitch+0x37c>
    8b0c:	e3a03001 	mov	r3, #1
    8b10:	ea000004 	b	8b28 <check_one_cswitch+0x380>
    8b14:	e3a03001 	mov	r3, #1
    8b18:	ea000002 	b	8b28 <check_one_cswitch+0x380>
    8b1c:	e3a03001 	mov	r3, #1
    8b20:	ea000000 	b	8b28 <check_one_cswitch+0x380>
    8b24:	e3a03000 	mov	r3, #0
    8b28:	e3530000 	cmp	r3, #0
    8b2c:	1a000008 	bne	8b54 <check_one_cswitch+0x3ac>
    8b30:	eb0000a7 	bl	8dd4 <rpi_reset_putc>
    8b34:	e59f30f4 	ldr	r3, [pc, #244]	; 8c30 <check_one_cswitch+0x488>
    8b38:	e58d3000 	str	r3, [sp]
    8b3c:	e59f00f0 	ldr	r0, [pc, #240]	; 8c34 <check_one_cswitch+0x48c>
    8b40:	e59f10f0 	ldr	r1, [pc, #240]	; 8c38 <check_one_cswitch+0x490>
    8b44:	e59f20f0 	ldr	r2, [pc, #240]	; 8c3c <check_one_cswitch+0x494>
    8b48:	e3a03011 	mov	r3, #17
    8b4c:	eb000085 	bl	8d68 <printk>
    8b50:	eb00021c 	bl	93c8 <clean_reboot>
    8b54:	e10f3000 	mrs	r3, CPSR
    8b58:	e203301f 	and	r3, r3, #31
    8b5c:	e3530012 	cmp	r3, #18
    8b60:	13530010 	cmpne	r3, #16
    8b64:	0a000006 	beq	8b84 <check_one_cswitch+0x3dc>
    8b68:	e3530017 	cmp	r3, #23
    8b6c:	13530013 	cmpne	r3, #19
    8b70:	0a000005 	beq	8b8c <check_one_cswitch+0x3e4>
    8b74:	e353001f 	cmp	r3, #31
    8b78:	1a000005 	bne	8b94 <check_one_cswitch+0x3ec>
    8b7c:	e3a02001 	mov	r2, #1
    8b80:	ea000004 	b	8b98 <check_one_cswitch+0x3f0>
    8b84:	e3a02001 	mov	r2, #1
    8b88:	ea000002 	b	8b98 <check_one_cswitch+0x3f0>
    8b8c:	e3a02001 	mov	r2, #1
    8b90:	ea000000 	b	8b98 <check_one_cswitch+0x3f0>
    8b94:	e3a02000 	mov	r2, #0
    8b98:	e3520000 	cmp	r2, #0
    8b9c:	1a000008 	bne	8bc4 <check_one_cswitch+0x41c>
    8ba0:	eb00008b 	bl	8dd4 <rpi_reset_putc>
    8ba4:	e59f3084 	ldr	r3, [pc, #132]	; 8c30 <check_one_cswitch+0x488>
    8ba8:	e58d3000 	str	r3, [sp]
    8bac:	e59f0080 	ldr	r0, [pc, #128]	; 8c34 <check_one_cswitch+0x48c>
    8bb0:	e59f1080 	ldr	r1, [pc, #128]	; 8c38 <check_one_cswitch+0x490>
    8bb4:	e59f2080 	ldr	r2, [pc, #128]	; 8c3c <check_one_cswitch+0x494>
    8bb8:	e3a03011 	mov	r3, #17
    8bbc:	eb000069 	bl	8d68 <printk>
    8bc0:	eb000200 	bl	93c8 <clean_reboot>
    8bc4:	e1580003 	cmp	r8, r3
    8bc8:	0a000008 	beq	8bf0 <check_one_cswitch+0x448>
    8bcc:	eb000080 	bl	8dd4 <rpi_reset_putc>
    8bd0:	e59f3094 	ldr	r3, [pc, #148]	; 8c6c <check_one_cswitch+0x4c4>
    8bd4:	e58d3000 	str	r3, [sp]
    8bd8:	e59f0054 	ldr	r0, [pc, #84]	; 8c34 <check_one_cswitch+0x48c>
    8bdc:	e59f1038 	ldr	r1, [pc, #56]	; 8c1c <check_one_cswitch+0x474>
    8be0:	e59f2038 	ldr	r2, [pc, #56]	; 8c20 <check_one_cswitch+0x478>
    8be4:	e3a03053 	mov	r3, #83	; 0x53
    8be8:	eb00005e 	bl	8d68 <printk>
    8bec:	eb0001f5 	bl	93c8 <clean_reboot>
    8bf0:	e3a03000 	mov	r3, #0
    8bf4:	e5843030 	str	r3, [r4, #48]	; 0x30
    8bf8:	e594002c 	ldr	r0, [r4, #44]	; 0x2c
    8bfc:	e1500003 	cmp	r0, r3
    8c00:	13a00000 	movne	r0, #0
    8c04:	03a00001 	moveq	r0, #1
    8c08:	e28dd00c 	add	sp, sp, #12
    8c0c:	e8bd8ff0 	pop	{r4, r5, r6, r7, r8, r9, sl, fp, pc}
    8c10:	0000a17c 	andeq	sl, r0, ip, ror r1
    8c14:	0000a170 	andeq	sl, r0, r0, ror r1
    8c18:	00009d4c 	andeq	r9, r0, ip, asr #26
    8c1c:	00009c24 	andeq	r9, r0, r4, lsr #24
    8c20:	00009ef4 	strdeq	r9, [r0], -r4
    8c24:	00008610 	andeq	r8, r0, r0, lsl r6
    8c28:	00009d84 	andeq	r9, r0, r4, lsl #27
    8c2c:	00009dcc 	andeq	r9, r0, ip, asr #27
    8c30:	00009e0c 	andeq	r9, r0, ip, lsl #28
    8c34:	00009980 	andeq	r9, r0, r0, lsl #19
    8c38:	00009e00 	andeq	r9, r0, r0, lsl #28
    8c3c:	00009f40 	andeq	r9, r0, r0, asr #30
    8c40:	00009d10 	andeq	r9, r0, r0, lsl sp
    8c44:	00009d1c 	andeq	r9, r0, ip, lsl sp
    8c48:	00009d28 	andeq	r9, r0, r8, lsr #26
    8c4c:	00009d34 	andeq	r9, r0, r4, lsr sp
    8c50:	00009d40 	andeq	r9, r0, r0, asr #26
    8c54:	00009e20 	andeq	r9, r0, r0, lsr #28
    8c58:	00009f34 	andeq	r9, r0, r4, lsr pc
    8c5c:	00009cf8 	strdeq	r9, [r0], -r8
    8c60:	00009d04 	andeq	r9, r0, r4, lsl #26
    8c64:	00009e44 	andeq	r9, r0, r4, asr #28
    8c68:	00009e60 	andeq	r9, r0, r0, ror #28
    8c6c:	00009e78 	andeq	r9, r0, r8, ror lr

00008c70 <check_sequential>:
    8c70:	e92d4038 	push	{r3, r4, r5, lr}
    8c74:	e1a04000 	mov	r4, r0
    8c78:	e3a05000 	mov	r5, #0
    8c7c:	ea000015 	b	8cd8 <check_sequential+0x68>
    8c80:	e594300c 	ldr	r3, [r4, #12]
    8c84:	e1a00004 	mov	r0, r4
    8c88:	e12fff33 	blx	r3
    8c8c:	e5943004 	ldr	r3, [r4, #4]
    8c90:	e1a00004 	mov	r0, r4
    8c94:	e12fff33 	blx	r3
    8c98:	e5943008 	ldr	r3, [r4, #8]
    8c9c:	e1a00004 	mov	r0, r4
    8ca0:	e12fff33 	blx	r3
    8ca4:	e5943010 	ldr	r3, [r4, #16]
    8ca8:	e1a00004 	mov	r0, r4
    8cac:	e12fff33 	blx	r3
    8cb0:	e3500000 	cmp	r0, #0
    8cb4:	1a000006 	bne	8cd4 <check_sequential+0x64>
    8cb8:	eb000045 	bl	8dd4 <rpi_reset_putc>
    8cbc:	e59f0024 	ldr	r0, [pc, #36]	; 8ce8 <check_sequential+0x78>
    8cc0:	e59f1024 	ldr	r1, [pc, #36]	; 8cec <check_sequential+0x7c>
    8cc4:	e59f2024 	ldr	r2, [pc, #36]	; 8cf0 <check_sequential+0x80>
    8cc8:	e3a03068 	mov	r3, #104	; 0x68
    8ccc:	eb000025 	bl	8d68 <printk>
    8cd0:	eb0001bc 	bl	93c8 <clean_reboot>
    8cd4:	e2855001 	add	r5, r5, #1
    8cd8:	e3550063 	cmp	r5, #99	; 0x63
    8cdc:	9affffe7 	bls	8c80 <check_sequential+0x10>
    8ce0:	e3a00001 	mov	r0, #1
    8ce4:	e8bd8038 	pop	{r3, r4, r5, pc}
    8ce8:	00009ea4 	andeq	r9, r0, r4, lsr #29
    8cec:	00009c24 	andeq	r9, r0, r4, lsr #24
    8cf0:	00009ee0 	andeq	r9, r0, r0, ror #29

00008cf4 <check_zero>:
    8cf4:	e3a03000 	mov	r3, #0
    8cf8:	e5803030 	str	r3, [r0, #48]	; 0x30
    8cfc:	e580302c 	str	r3, [r0, #44]	; 0x2c
    8d00:	e5803028 	str	r3, [r0, #40]	; 0x28
    8d04:	e5803024 	str	r3, [r0, #36]	; 0x24
    8d08:	e5803020 	str	r3, [r0, #32]
    8d0c:	e580301c 	str	r3, [r0, #28]
    8d10:	e5803018 	str	r3, [r0, #24]
    8d14:	e5803014 	str	r3, [r0, #20]
    8d18:	e12fff1e 	bx	lr

00008d1c <check>:
    8d1c:	e92d4010 	push	{r4, lr}
    8d20:	e1a04000 	mov	r4, r0
    8d24:	ebfffd7e 	bl	8324 <cp14_enable>
    8d28:	e1a00004 	mov	r0, r4
    8d2c:	ebfffff0 	bl	8cf4 <check_zero>
    8d30:	e1a00004 	mov	r0, r4
    8d34:	ebffffcd 	bl	8c70 <check_sequential>
    8d38:	e3500000 	cmp	r0, #0
    8d3c:	0a000005 	beq	8d58 <check+0x3c>
    8d40:	e1a00004 	mov	r0, r4
    8d44:	ebfffe97 	bl	87a8 <check_one_cswitch>
    8d48:	e3500000 	cmp	r0, #0
    8d4c:	0a000003 	beq	8d60 <check+0x44>
    8d50:	e3a00001 	mov	r0, #1
    8d54:	e8bd8010 	pop	{r4, pc}
    8d58:	e3a00000 	mov	r0, #0
    8d5c:	e8bd8010 	pop	{r4, pc}
    8d60:	e3a00000 	mov	r0, #0
    8d64:	e8bd8010 	pop	{r4, pc}

00008d68 <printk>:
    8d68:	e92d000f 	push	{r0, r1, r2, r3}
    8d6c:	e92d4030 	push	{r4, r5, lr}
    8d70:	e24dd00c 	sub	sp, sp, #12
    8d74:	e28d301c 	add	r3, sp, #28
    8d78:	e58d3004 	str	r3, [sp, #4]
    8d7c:	e59f4034 	ldr	r4, [pc, #52]	; 8db8 <printk+0x50>
    8d80:	e1a00004 	mov	r0, r4
    8d84:	e3a01b01 	mov	r1, #1024	; 0x400
    8d88:	e59d2018 	ldr	r2, [sp, #24]
    8d8c:	eb0000d0 	bl	90d4 <va_printk>
    8d90:	e1a05000 	mov	r5, r0
    8d94:	e59f3020 	ldr	r3, [pc, #32]	; 8dbc <printk+0x54>
    8d98:	e5933000 	ldr	r3, [r3]
    8d9c:	e1a00004 	mov	r0, r4
    8da0:	e12fff33 	blx	r3
    8da4:	e1a00005 	mov	r0, r5
    8da8:	e28dd00c 	add	sp, sp, #12
    8dac:	e8bd4030 	pop	{r4, r5, lr}
    8db0:	e28dd010 	add	sp, sp, #16
    8db4:	e12fff1e 	bx	lr
    8db8:	0000a184 	andeq	sl, r0, r4, lsl #3
    8dbc:	0000997c 	andeq	r9, r0, ip, ror r9

00008dc0 <internal_putchar>:
    8dc0:	e92d4010 	push	{r4, lr}
    8dc4:	e1a04000 	mov	r4, r0
    8dc8:	eb000291 	bl	9814 <uart_putc>
    8dcc:	e1a00004 	mov	r0, r4
    8dd0:	e8bd8010 	pop	{r4, pc}

00008dd4 <rpi_reset_putc>:
    8dd4:	e59f2008 	ldr	r2, [pc, #8]	; 8de4 <rpi_reset_putc+0x10>
    8dd8:	e59f3008 	ldr	r3, [pc, #8]	; 8de8 <rpi_reset_putc+0x14>
    8ddc:	e5832000 	str	r2, [r3]
    8de0:	e12fff1e 	bx	lr
    8de4:	00008dc0 	andeq	r8, r0, r0, asr #27
    8de8:	00009978 	andeq	r9, r0, r8, ror r9

00008dec <rpi_set_putc>:
    8dec:	e59f3004 	ldr	r3, [pc, #4]	; 8df8 <rpi_set_putc+0xc>
    8df0:	e5830000 	str	r0, [r3]
    8df4:	e12fff1e 	bx	lr
    8df8:	00009978 	andeq	r9, r0, r8, ror r9

00008dfc <internal_putk>:
    8dfc:	e92d4038 	push	{r3, r4, r5, lr}
    8e00:	e1a04000 	mov	r4, r0
    8e04:	e59f5020 	ldr	r5, [pc, #32]	; 8e2c <internal_putk+0x30>
    8e08:	ea000002 	b	8e18 <internal_putk+0x1c>
    8e0c:	e5953000 	ldr	r3, [r5]
    8e10:	e12fff33 	blx	r3
    8e14:	e2844001 	add	r4, r4, #1
    8e18:	e5d40000 	ldrb	r0, [r4]
    8e1c:	e3500000 	cmp	r0, #0
    8e20:	1afffff9 	bne	8e0c <internal_putk+0x10>
    8e24:	e3a00001 	mov	r0, #1
    8e28:	e8bd8038 	pop	{r3, r4, r5, pc}
    8e2c:	00009978 	andeq	r9, r0, r8, ror r9

00008e30 <isdigit>:
    8e30:	e2400030 	sub	r0, r0, #48	; 0x30
    8e34:	e3500009 	cmp	r0, #9
    8e38:	83a00000 	movhi	r0, #0
    8e3c:	93a00001 	movls	r0, #1
    8e40:	e12fff1e 	bx	lr

00008e44 <pad>:
    8e44:	e0611000 	rsb	r1, r1, r0
    8e48:	e3a03020 	mov	r3, #32
    8e4c:	ea000002 	b	8e5c <pad+0x18>
    8e50:	e5c03000 	strb	r3, [r0]
    8e54:	e2811001 	add	r1, r1, #1
    8e58:	e2800001 	add	r0, r0, #1
    8e5c:	e1510002 	cmp	r1, r2
    8e60:	bafffffa 	blt	8e50 <pad+0xc>
    8e64:	e3a03000 	mov	r3, #0
    8e68:	e5c03000 	strb	r3, [r0]
    8e6c:	e12fff1e 	bx	lr

00008e70 <reverse>:
    8e70:	e063c002 	rsb	ip, r3, r2
    8e74:	e28cc001 	add	ip, ip, #1
    8e78:	e15c0001 	cmp	ip, r1
    8e7c:	c061100c 	rsbgt	r1, r1, ip
    8e80:	c0833001 	addgt	r3, r3, r1
    8e84:	e2422001 	sub	r2, r2, #1
    8e88:	e1a01000 	mov	r1, r0
    8e8c:	ea000002 	b	8e9c <reverse+0x2c>
    8e90:	e452c001 	ldrb	ip, [r2], #-1
    8e94:	e5c1c000 	strb	ip, [r1]
    8e98:	e2811001 	add	r1, r1, #1
    8e9c:	e1520003 	cmp	r2, r3
    8ea0:	2afffffa 	bcs	8e90 <reverse+0x20>
    8ea4:	e3a03000 	mov	r3, #0
    8ea8:	e5c13000 	strb	r3, [r1]
    8eac:	e12fff1e 	bx	lr

00008eb0 <emit>:
    8eb0:	e92d41f0 	push	{r4, r5, r6, r7, r8, lr}
    8eb4:	e24dd048 	sub	sp, sp, #72	; 0x48
    8eb8:	e1a05001 	mov	r5, r1
    8ebc:	e1a04002 	mov	r4, r2
    8ec0:	e59d2060 	ldr	r2, [sp, #96]	; 0x60
    8ec4:	e1520004 	cmp	r2, r4
    8ec8:	c2442001 	subgt	r2, r4, #1
    8ecc:	e1a0c003 	mov	ip, r3
    8ed0:	e2400002 	sub	r0, r0, #2
    8ed4:	e350000e 	cmp	r0, #14
    8ed8:	979ff100 	ldrls	pc, [pc, r0, lsl #2]
    8edc:	ea000048 	b	9004 <emit+0x154>
    8ee0:	00008fdc 	ldrdeq	r8, [r0], -ip
    8ee4:	00009004 	andeq	r9, r0, r4
    8ee8:	00009004 	andeq	r9, r0, r4
    8eec:	00009004 	andeq	r9, r0, r4
    8ef0:	00009004 	andeq	r9, r0, r4
    8ef4:	00009004 	andeq	r9, r0, r4
    8ef8:	00008fd0 	ldrdeq	r8, [r0], -r0
    8efc:	00009004 	andeq	r9, r0, r4
    8f00:	00008f1c 	andeq	r8, r0, ip, lsl pc
    8f04:	00009004 	andeq	r9, r0, r4
    8f08:	00009004 	andeq	r9, r0, r4
    8f0c:	00009004 	andeq	r9, r0, r4
    8f10:	00009004 	andeq	r9, r0, r4
    8f14:	00009004 	andeq	r9, r0, r4
    8f18:	00008f90 	muleq	r0, r0, pc	; <UNPREDICTABLE>
    8f1c:	e59d1064 	ldr	r1, [sp, #100]	; 0x64
    8f20:	e2911000 	adds	r1, r1, #0
    8f24:	13a01001 	movne	r1, #1
    8f28:	e0111fa3 	ands	r1, r1, r3, lsr #31
    8f2c:	1263c000 	rsbne	ip, r3, #0
    8f30:	13a08001 	movne	r8, #1
    8f34:	03a08000 	moveq	r8, #0
    8f38:	e28d1008 	add	r1, sp, #8
    8f3c:	e59f7108 	ldr	r7, [pc, #264]	; 904c <emit+0x19c>
    8f40:	e59f6108 	ldr	r6, [pc, #264]	; 9050 <emit+0x1a0>
    8f44:	ea000000 	b	8f4c <emit+0x9c>
    8f48:	e1a01000 	mov	r1, r0
    8f4c:	e2810001 	add	r0, r1, #1
    8f50:	e083ec97 	umull	lr, r3, r7, ip
    8f54:	e1a031a3 	lsr	r3, r3, #3
    8f58:	e1a0e003 	mov	lr, r3
    8f5c:	e0833103 	add	r3, r3, r3, lsl #2
    8f60:	e1a03083 	lsl	r3, r3, #1
    8f64:	e063300c 	rsb	r3, r3, ip
    8f68:	e7d63003 	ldrb	r3, [r6, r3]
    8f6c:	e5c13000 	strb	r3, [r1]
    8f70:	e1a0c00e 	mov	ip, lr
    8f74:	e35e0000 	cmp	lr, #0
    8f78:	1afffff2 	bne	8f48 <emit+0x98>
    8f7c:	e3580000 	cmp	r8, #0
    8f80:	12810002 	addne	r0, r1, #2
    8f84:	13a0302d 	movne	r3, #45	; 0x2d
    8f88:	15c13001 	strbne	r3, [r1, #1]
    8f8c:	ea000025 	b	9028 <emit+0x178>
    8f90:	e28d3008 	add	r3, sp, #8
    8f94:	e59fe0b8 	ldr	lr, [pc, #184]	; 9054 <emit+0x1a4>
    8f98:	ea000000 	b	8fa0 <emit+0xf0>
    8f9c:	e1a03000 	mov	r3, r0
    8fa0:	e2830001 	add	r0, r3, #1
    8fa4:	e20c100f 	and	r1, ip, #15
    8fa8:	e7de1001 	ldrb	r1, [lr, r1]
    8fac:	e5c31000 	strb	r1, [r3]
    8fb0:	e1b0c22c 	lsrs	ip, ip, #4
    8fb4:	1afffff8 	bne	8f9c <emit+0xec>
    8fb8:	e3a01078 	mov	r1, #120	; 0x78
    8fbc:	e5c31001 	strb	r1, [r3, #1]
    8fc0:	e2830003 	add	r0, r3, #3
    8fc4:	e3a01030 	mov	r1, #48	; 0x30
    8fc8:	e5c31002 	strb	r1, [r3, #2]
    8fcc:	ea000015 	b	9028 <emit+0x178>
    8fd0:	e5cd3008 	strb	r3, [sp, #8]
    8fd4:	e28d0009 	add	r0, sp, #9
    8fd8:	ea000012 	b	9028 <emit+0x178>
    8fdc:	e28d3008 	add	r3, sp, #8
    8fe0:	e59fe070 	ldr	lr, [pc, #112]	; 9058 <emit+0x1a8>
    8fe4:	e2830001 	add	r0, r3, #1
    8fe8:	e20c1001 	and	r1, ip, #1
    8fec:	e7de1001 	ldrb	r1, [lr, r1]
    8ff0:	e5c31000 	strb	r1, [r3]
    8ff4:	e1a03000 	mov	r3, r0
    8ff8:	e1b0c0ac 	lsrs	ip, ip, #1
    8ffc:	1afffff8 	bne	8fe4 <emit+0x134>
    9000:	ea000008 	b	9028 <emit+0x178>
    9004:	ebffff72 	bl	8dd4 <rpi_reset_putc>
    9008:	e59f304c 	ldr	r3, [pc, #76]	; 905c <emit+0x1ac>
    900c:	e58d3000 	str	r3, [sp]
    9010:	e59f0048 	ldr	r0, [pc, #72]	; 9060 <emit+0x1b0>
    9014:	e59f1048 	ldr	r1, [pc, #72]	; 9064 <emit+0x1b4>
    9018:	e59f2048 	ldr	r2, [pc, #72]	; 9068 <emit+0x1b8>
    901c:	e3a03077 	mov	r3, #119	; 0x77
    9020:	ebffff50 	bl	8d68 <printk>
    9024:	eb0000e7 	bl	93c8 <clean_reboot>
    9028:	e28d1008 	add	r1, sp, #8
    902c:	ebffff84 	bl	8e44 <pad>
    9030:	e1a02000 	mov	r2, r0
    9034:	e1a00005 	mov	r0, r5
    9038:	e1a01004 	mov	r1, r4
    903c:	e28d3008 	add	r3, sp, #8
    9040:	ebffff8a 	bl	8e70 <reverse>
    9044:	e28dd048 	add	sp, sp, #72	; 0x48
    9048:	e8bd81f0 	pop	{r4, r5, r6, r7, r8, pc}
    904c:	cccccccd 	stclgt	12, cr12, [ip], {205}	; 0xcd
    9050:	00009f94 	muleq	r0, r4, pc	; <UNPREDICTABLE>
    9054:	00009fa0 	andeq	r9, r0, r0, lsr #31
    9058:	00009fb4 			; <UNDEFINED> instruction: 0x00009fb4
    905c:	00009f90 	muleq	r0, r0, pc	; <UNPREDICTABLE>
    9060:	00009980 	andeq	r9, r0, r0, lsl #19
    9064:	00009f7c 	andeq	r9, r0, ip, ror pc
    9068:	00009f58 	andeq	r9, r0, r8, asr pc

0000906c <rpi_set_output>:
    906c:	e52de004 	push	{lr}		; (str lr, [sp, #-4]!)
    9070:	e24dd00c 	sub	sp, sp, #12
    9074:	e3500000 	cmp	r0, #0
    9078:	1a000008 	bne	90a0 <rpi_set_output+0x34>
    907c:	ebffff54 	bl	8dd4 <rpi_reset_putc>
    9080:	e59f3034 	ldr	r3, [pc, #52]	; 90bc <rpi_set_output+0x50>
    9084:	e58d3000 	str	r3, [sp]
    9088:	e59f0030 	ldr	r0, [pc, #48]	; 90c0 <rpi_set_output+0x54>
    908c:	e59f1030 	ldr	r1, [pc, #48]	; 90c4 <rpi_set_output+0x58>
    9090:	e59f2030 	ldr	r2, [pc, #48]	; 90c8 <rpi_set_output+0x5c>
    9094:	e3a03020 	mov	r3, #32
    9098:	ebffff32 	bl	8d68 <printk>
    909c:	eb0000c9 	bl	93c8 <clean_reboot>
    90a0:	e59f3024 	ldr	r3, [pc, #36]	; 90cc <rpi_set_output+0x60>
    90a4:	e5830000 	str	r0, [r3]
    90a8:	e3510000 	cmp	r1, #0
    90ac:	159f301c 	ldrne	r3, [pc, #28]	; 90d0 <rpi_set_output+0x64>
    90b0:	15831000 	strne	r1, [r3]
    90b4:	e28dd00c 	add	sp, sp, #12
    90b8:	e49df004 	pop	{pc}		; (ldr pc, [sp], #4)
    90bc:	00009fb8 			; <UNDEFINED> instruction: 0x00009fb8
    90c0:	00009980 	andeq	r9, r0, r0, lsl #19
    90c4:	00009f7c 	andeq	r9, r0, ip, ror pc
    90c8:	00009f60 	andeq	r9, r0, r0, ror #30
    90cc:	00009978 	andeq	r9, r0, r8, ror r9
    90d0:	0000997c 	andeq	r9, r0, ip, ror r9

000090d4 <va_printk>:
    90d4:	e92d4ff0 	push	{r4, r5, r6, r7, r8, r9, sl, fp, lr}
    90d8:	e24dd094 	sub	sp, sp, #148	; 0x94
    90dc:	e1a0b000 	mov	fp, r0
    90e0:	e58d200c 	str	r2, [sp, #12]
    90e4:	e1a0a003 	mov	sl, r3
    90e8:	e2411001 	sub	r1, r1, #1
    90ec:	e0808001 	add	r8, r0, r1
    90f0:	e3a03000 	mov	r3, #0
    90f4:	e5c03000 	strb	r3, [r0]
    90f8:	e1a04000 	mov	r4, r0
    90fc:	e1a06002 	mov	r6, r2
    9100:	ea000095 	b	935c <va_printk+0x288>
    9104:	e3530025 	cmp	r3, #37	; 0x25
    9108:	12866001 	addne	r6, r6, #1
    910c:	15c43000 	strbne	r3, [r4]
    9110:	12844001 	addne	r4, r4, #1
    9114:	1a000090 	bne	935c <va_printk+0x288>
    9118:	e5d62001 	ldrb	r2, [r6, #1]
    911c:	e3520025 	cmp	r2, #37	; 0x25
    9120:	05c43000 	strbeq	r3, [r4]
    9124:	02866002 	addeq	r6, r6, #2
    9128:	02844001 	addeq	r4, r4, #1
    912c:	0a00008a 	beq	935c <va_printk+0x288>
    9130:	e2866001 	add	r6, r6, #1
    9134:	e3a07000 	mov	r7, #0
    9138:	ea000004 	b	9150 <va_printk+0x7c>
    913c:	e0877107 	add	r7, r7, r7, lsl #2
    9140:	e1a07087 	lsl	r7, r7, #1
    9144:	e0877005 	add	r7, r7, r5
    9148:	e2477030 	sub	r7, r7, #48	; 0x30
    914c:	e2866001 	add	r6, r6, #1
    9150:	e5d65000 	ldrb	r5, [r6]
    9154:	e1a09005 	mov	r9, r5
    9158:	e1a00005 	mov	r0, r5
    915c:	ebffff33 	bl	8e30 <isdigit>
    9160:	e3500000 	cmp	r0, #0
    9164:	1afffff4 	bne	913c <va_printk+0x68>
    9168:	e357001f 	cmp	r7, #31
    916c:	9a000008 	bls	9194 <va_printk+0xc0>
    9170:	ebffff17 	bl	8dd4 <rpi_reset_putc>
    9174:	e59f320c 	ldr	r3, [pc, #524]	; 9388 <va_printk+0x2b4>
    9178:	e58d3000 	str	r3, [sp]
    917c:	e59f0208 	ldr	r0, [pc, #520]	; 938c <va_printk+0x2b8>
    9180:	e59f1208 	ldr	r1, [pc, #520]	; 9390 <va_printk+0x2bc>
    9184:	e59f2208 	ldr	r2, [pc, #520]	; 9394 <va_printk+0x2c0>
    9188:	e3a03095 	mov	r3, #149	; 0x95
    918c:	ebfffef5 	bl	8d68 <printk>
    9190:	eb00008c 	bl	93c8 <clean_reboot>
    9194:	e2455062 	sub	r5, r5, #98	; 0x62
    9198:	e3550016 	cmp	r5, #22
    919c:	979ff105 	ldrls	pc, [pc, r5, lsl #2]
    91a0:	ea000052 	b	92f0 <va_printk+0x21c>
    91a4:	00009294 	muleq	r0, r4, r2
    91a8:	000092c8 	andeq	r9, r0, r8, asr #5
    91ac:	0000921c 	andeq	r9, r0, ip, lsl r2
    91b0:	000092f0 	strdeq	r9, [r0], -r0
    91b4:	00009200 	andeq	r9, r0, r0, lsl #4
    91b8:	000092f0 	strdeq	r9, [r0], -r0
    91bc:	000092f0 	strdeq	r9, [r0], -r0
    91c0:	000092f0 	strdeq	r9, [r0], -r0
    91c4:	000092f0 	strdeq	r9, [r0], -r0
    91c8:	000092f0 	strdeq	r9, [r0], -r0
    91cc:	000092f0 	strdeq	r9, [r0], -r0
    91d0:	000092f0 	strdeq	r9, [r0], -r0
    91d4:	000092f0 	strdeq	r9, [r0], -r0
    91d8:	000092f0 	strdeq	r9, [r0], -r0
    91dc:	0000926c 	andeq	r9, r0, ip, ror #4
    91e0:	000092f0 	strdeq	r9, [r0], -r0
    91e4:	000092f0 	strdeq	r9, [r0], -r0
    91e8:	000092bc 			; <UNDEFINED> instruction: 0x000092bc
    91ec:	000092f0 	strdeq	r9, [r0], -r0
    91f0:	00009244 	andeq	r9, r0, r4, asr #4
    91f4:	000092f0 	strdeq	r9, [r0], -r0
    91f8:	000092f0 	strdeq	r9, [r0], -r0
    91fc:	0000926c 	andeq	r9, r0, ip, ror #4
    9200:	ebfffef3 	bl	8dd4 <rpi_reset_putc>
    9204:	e59f018c 	ldr	r0, [pc, #396]	; 9398 <va_printk+0x2c4>
    9208:	e59f1180 	ldr	r1, [pc, #384]	; 9390 <va_printk+0x2bc>
    920c:	e59f2180 	ldr	r2, [pc, #384]	; 9394 <va_printk+0x2c0>
    9210:	e3a0309b 	mov	r3, #155	; 0x9b
    9214:	ebfffed3 	bl	8d68 <printk>
    9218:	eb00006a 	bl	93c8 <clean_reboot>
    921c:	e59a3000 	ldr	r3, [sl]
    9220:	e28aa004 	add	sl, sl, #4
    9224:	e58d7000 	str	r7, [sp]
    9228:	e3a02001 	mov	r2, #1
    922c:	e58d2004 	str	r2, [sp, #4]
    9230:	e3a0000a 	mov	r0, #10
    9234:	e28d1010 	add	r1, sp, #16
    9238:	e3a02080 	mov	r2, #128	; 0x80
    923c:	ebffff1b 	bl	8eb0 <emit>
    9240:	ea00003b 	b	9334 <va_printk+0x260>
    9244:	e59a3000 	ldr	r3, [sl]
    9248:	e28aa004 	add	sl, sl, #4
    924c:	e58d7000 	str	r7, [sp]
    9250:	e3a02000 	mov	r2, #0
    9254:	e58d2004 	str	r2, [sp, #4]
    9258:	e3a0000a 	mov	r0, #10
    925c:	e28d1010 	add	r1, sp, #16
    9260:	e3a02080 	mov	r2, #128	; 0x80
    9264:	ebffff11 	bl	8eb0 <emit>
    9268:	ea000031 	b	9334 <va_printk+0x260>
    926c:	e59a3000 	ldr	r3, [sl]
    9270:	e28aa004 	add	sl, sl, #4
    9274:	e58d7000 	str	r7, [sp]
    9278:	e3a02000 	mov	r2, #0
    927c:	e58d2004 	str	r2, [sp, #4]
    9280:	e3a00010 	mov	r0, #16
    9284:	e08d1000 	add	r1, sp, r0
    9288:	e3a02080 	mov	r2, #128	; 0x80
    928c:	ebffff07 	bl	8eb0 <emit>
    9290:	ea000027 	b	9334 <va_printk+0x260>
    9294:	e59a3000 	ldr	r3, [sl]
    9298:	e28aa004 	add	sl, sl, #4
    929c:	e58d7000 	str	r7, [sp]
    92a0:	e3a02000 	mov	r2, #0
    92a4:	e58d2004 	str	r2, [sp, #4]
    92a8:	e3a00002 	mov	r0, #2
    92ac:	e28d1010 	add	r1, sp, #16
    92b0:	e3a02080 	mov	r2, #128	; 0x80
    92b4:	ebfffefd 	bl	8eb0 <emit>
    92b8:	ea00001d 	b	9334 <va_printk+0x260>
    92bc:	e59a0000 	ldr	r0, [sl]
    92c0:	e28aa004 	add	sl, sl, #4
    92c4:	ea00001a 	b	9334 <va_printk+0x260>
    92c8:	e59a3000 	ldr	r3, [sl]
    92cc:	e28aa004 	add	sl, sl, #4
    92d0:	e58d7000 	str	r7, [sp]
    92d4:	e3a02000 	mov	r2, #0
    92d8:	e58d2004 	str	r2, [sp, #4]
    92dc:	e3a00008 	mov	r0, #8
    92e0:	e28d1010 	add	r1, sp, #16
    92e4:	e3a02080 	mov	r2, #128	; 0x80
    92e8:	ebfffef0 	bl	8eb0 <emit>
    92ec:	ea000010 	b	9334 <va_printk+0x260>
    92f0:	e3a03000 	mov	r3, #0
    92f4:	e5c63001 	strb	r3, [r6, #1]
    92f8:	e59f009c 	ldr	r0, [pc, #156]	; 939c <va_printk+0x2c8>
    92fc:	e1a01009 	mov	r1, r9
    9300:	e1a02009 	mov	r2, r9
    9304:	ebfffe97 	bl	8d68 <printk>
    9308:	e59f3090 	ldr	r3, [pc, #144]	; 93a0 <va_printk+0x2cc>
    930c:	e5933000 	ldr	r3, [r3]
    9310:	e59d000c 	ldr	r0, [sp, #12]
    9314:	e12fff33 	blx	r3
    9318:	ebfffead 	bl	8dd4 <rpi_reset_putc>
    931c:	e59f0080 	ldr	r0, [pc, #128]	; 93a4 <va_printk+0x2d0>
    9320:	e59f1068 	ldr	r1, [pc, #104]	; 9390 <va_printk+0x2bc>
    9324:	e59f2068 	ldr	r2, [pc, #104]	; 9394 <va_printk+0x2c0>
    9328:	e3a030bf 	mov	r3, #191	; 0xbf
    932c:	ebfffe8d 	bl	8d68 <printk>
    9330:	eb000024 	bl	93c8 <clean_reboot>
    9334:	e2866001 	add	r6, r6, #1
    9338:	ea000002 	b	9348 <va_printk+0x274>
    933c:	e2800001 	add	r0, r0, #1
    9340:	e5c43000 	strb	r3, [r4]
    9344:	e2844001 	add	r4, r4, #1
    9348:	e1540008 	cmp	r4, r8
    934c:	2a000002 	bcs	935c <va_printk+0x288>
    9350:	e5d03000 	ldrb	r3, [r0]
    9354:	e3530000 	cmp	r3, #0
    9358:	1afffff7 	bne	933c <va_printk+0x268>
    935c:	e5d63000 	ldrb	r3, [r6]
    9360:	e3530000 	cmp	r3, #0
    9364:	0a000001 	beq	9370 <va_printk+0x29c>
    9368:	e1540008 	cmp	r4, r8
    936c:	3affff64 	bcc	9104 <va_printk+0x30>
    9370:	e2840001 	add	r0, r4, #1
    9374:	e3a03000 	mov	r3, #0
    9378:	e5c43000 	strb	r3, [r4]
    937c:	e06b0000 	rsb	r0, fp, r0
    9380:	e28dd094 	add	sp, sp, #148	; 0x94
    9384:	e8bd8ff0 	pop	{r4, r5, r6, r7, r8, r9, sl, fp, pc}
    9388:	00009fc0 	andeq	r9, r0, r0, asr #31
    938c:	00009980 	andeq	r9, r0, r0, lsl #19
    9390:	00009f7c 	andeq	r9, r0, ip, ror pc
    9394:	00009f70 	andeq	r9, r0, r0, ror pc
    9398:	00009fcc 	andeq	r9, r0, ip, asr #31
    939c:	00009ff4 	strdeq	r9, [r0], -r4
    93a0:	0000997c 	andeq	r9, r0, ip, ror r9
    93a4:	0000a024 	andeq	sl, r0, r4, lsr #32

000093a8 <enable_cache>:
    93a8:	ee113f10 	mrc	15, 0, r3, cr1, cr0, {0}
    93ac:	e3833b06 	orr	r3, r3, #6144	; 0x1800
    93b0:	ee013f10 	mcr	15, 0, r3, cr1, cr0, {0}
    93b4:	e12fff1e 	bx	lr

000093b8 <disable_cache>:
    93b8:	ee113f10 	mrc	15, 0, r3, cr1, cr0, {0}
    93bc:	e3c33b06 	bic	r3, r3, #6144	; 0x1800
    93c0:	ee013f10 	mcr	15, 0, r3, cr1, cr0, {0}
    93c4:	e12fff1e 	bx	lr

000093c8 <clean_reboot>:
    93c8:	e92d4008 	push	{r3, lr}
    93cc:	eb00004a 	bl	94fc <reboot_handler>
    93d0:	e59f3014 	ldr	r3, [pc, #20]	; 93ec <clean_reboot+0x24>
    93d4:	e5933000 	ldr	r3, [r3]
    93d8:	e59f0010 	ldr	r0, [pc, #16]	; 93f0 <clean_reboot+0x28>
    93dc:	e12fff33 	blx	r3
    93e0:	e3a00064 	mov	r0, #100	; 0x64
    93e4:	eb000099 	bl	9650 <delay_ms>
    93e8:	eb00006a 	bl	9598 <rpi_reboot>
    93ec:	0000997c 	andeq	r9, r0, ip, ror r9
    93f0:	0000a044 	andeq	sl, r0, r4, asr #32

000093f4 <_cstart>:
    93f4:	e92d4008 	push	{r3, lr}
    93f8:	e59f3024 	ldr	r3, [pc, #36]	; 9424 <_cstart+0x30>
    93fc:	e59f2024 	ldr	r2, [pc, #36]	; 9428 <_cstart+0x34>
    9400:	e3a01000 	mov	r1, #0
    9404:	ea000001 	b	9410 <_cstart+0x1c>
    9408:	e5831000 	str	r1, [r3]
    940c:	e2833004 	add	r3, r3, #4
    9410:	e1530002 	cmp	r3, r2
    9414:	3afffffb 	bcc	9408 <_cstart+0x14>
    9418:	eb000036 	bl	94f8 <cstart_handler>
    941c:	ebfffb1f 	bl	80a0 <notmain>
    9420:	ebffffe8 	bl	93c8 <clean_reboot>
    9424:	0000a168 	andeq	sl, r0, r8, ror #2
    9428:	0000a588 	andeq	sl, r0, r8, lsl #11

0000942c <fast_interrupt_vector>:
    942c:	e52de004 	push	{lr}		; (str lr, [sp, #-4]!)
    9430:	e24dd00c 	sub	sp, sp, #12
    9434:	e1a04000 	mov	r4, r0
    9438:	ebfffe65 	bl	8dd4 <rpi_reset_putc>
    943c:	e59f301c 	ldr	r3, [pc, #28]	; 9460 <fast_interrupt_vector+0x34>
    9440:	e58d3000 	str	r3, [sp]
    9444:	e58d4004 	str	r4, [sp, #4]
    9448:	e59f0014 	ldr	r0, [pc, #20]	; 9464 <fast_interrupt_vector+0x38>
    944c:	e59f1014 	ldr	r1, [pc, #20]	; 9468 <fast_interrupt_vector+0x3c>
    9450:	e59f2014 	ldr	r2, [pc, #20]	; 946c <fast_interrupt_vector+0x40>
    9454:	e3a03002 	mov	r3, #2
    9458:	ebfffe42 	bl	8d68 <printk>
    945c:	ebffffd9 	bl	93c8 <clean_reboot>
    9460:	0000a0c8 	andeq	sl, r0, r8, asr #1
    9464:	0000a068 	andeq	sl, r0, r8, rrx
    9468:	0000a0a4 	andeq	sl, r0, r4, lsr #1
    946c:	0000a050 	andeq	sl, r0, r0, asr r0

00009470 <reset_vector>:
    9470:	e52de004 	push	{lr}		; (str lr, [sp, #-4]!)
    9474:	e24dd00c 	sub	sp, sp, #12
    9478:	e1a04000 	mov	r4, r0
    947c:	ebfffe54 	bl	8dd4 <rpi_reset_putc>
    9480:	e59f301c 	ldr	r3, [pc, #28]	; 94a4 <reset_vector+0x34>
    9484:	e58d3000 	str	r3, [sp]
    9488:	e58d4004 	str	r4, [sp, #4]
    948c:	e59f0014 	ldr	r0, [pc, #20]	; 94a8 <reset_vector+0x38>
    9490:	e59f1014 	ldr	r1, [pc, #20]	; 94ac <reset_vector+0x3c>
    9494:	e59f2014 	ldr	r2, [pc, #20]	; 94b0 <reset_vector+0x40>
    9498:	e3a03002 	mov	r3, #2
    949c:	ebfffe31 	bl	8d68 <printk>
    94a0:	ebffffc8 	bl	93c8 <clean_reboot>
    94a4:	0000a104 	andeq	sl, r0, r4, lsl #2
    94a8:	0000a068 	andeq	sl, r0, r8, rrx
    94ac:	0000a0e0 	andeq	sl, r0, r0, ror #1
    94b0:	0000a0d0 	ldrdeq	sl, [r0], -r0

000094b4 <undefined_instruction_vector>:
    94b4:	e52de004 	push	{lr}		; (str lr, [sp, #-4]!)
    94b8:	e24dd00c 	sub	sp, sp, #12
    94bc:	e1a04000 	mov	r4, r0
    94c0:	ebfffe43 	bl	8dd4 <rpi_reset_putc>
    94c4:	e59f301c 	ldr	r3, [pc, #28]	; 94e8 <undefined_instruction_vector+0x34>
    94c8:	e58d3000 	str	r3, [sp]
    94cc:	e58d4004 	str	r4, [sp, #4]
    94d0:	e59f0014 	ldr	r0, [pc, #20]	; 94ec <undefined_instruction_vector+0x38>
    94d4:	e59f1014 	ldr	r1, [pc, #20]	; 94f0 <undefined_instruction_vector+0x3c>
    94d8:	e59f2014 	ldr	r2, [pc, #20]	; 94f4 <undefined_instruction_vector+0x40>
    94dc:	e3a03002 	mov	r3, #2
    94e0:	ebfffe20 	bl	8d68 <printk>
    94e4:	ebffffb7 	bl	93c8 <clean_reboot>
    94e8:	0000a158 	andeq	sl, r0, r8, asr r1
    94ec:	0000a068 	andeq	sl, r0, r8, rrx
    94f0:	0000a12c 	andeq	sl, r0, ip, lsr #2
    94f4:	0000a10c 	andeq	sl, r0, ip, lsl #2

000094f8 <cstart_handler>:
    94f8:	e12fff1e 	bx	lr

000094fc <reboot_handler>:
    94fc:	e12fff1e 	bx	lr

00009500 <int_init>:
    9500:	e92d4008 	push	{r3, lr}
    9504:	eb00005b 	bl	9678 <dev_barrier>
    9508:	e59f004c 	ldr	r0, [pc, #76]	; 955c <int_init+0x5c>
    950c:	e3e01000 	mvn	r1, #0
    9510:	eb000060 	bl	9698 <PUT32>
    9514:	e59f0044 	ldr	r0, [pc, #68]	; 9560 <int_init+0x60>
    9518:	e3e01000 	mvn	r1, #0
    951c:	eb00005d 	bl	9698 <PUT32>
    9520:	eb000054 	bl	9678 <dev_barrier>
    9524:	e59f3038 	ldr	r3, [pc, #56]	; 9564 <int_init+0x64>
    9528:	e59f0038 	ldr	r0, [pc, #56]	; 9568 <int_init+0x68>
    952c:	e0630000 	rsb	r0, r3, r0
    9530:	e1a00140 	asr	r0, r0, #2
    9534:	e3a03000 	mov	r3, #0
    9538:	e59fc024 	ldr	ip, [pc, #36]	; 9564 <int_init+0x64>
    953c:	ea000003 	b	9550 <int_init+0x50>
    9540:	e1a02103 	lsl	r2, r3, #2
    9544:	e79c1103 	ldr	r1, [ip, r3, lsl #2]
    9548:	e5821000 	str	r1, [r2]
    954c:	e2833001 	add	r3, r3, #1
    9550:	e1530000 	cmp	r3, r0
    9554:	3afffff9 	bcc	9540 <int_init+0x40>
    9558:	e8bd8008 	pop	{r3, pc}
    955c:	2000b21c 	andcs	fp, r0, ip, lsl r2
    9560:	2000b220 	andcs	fp, r0, r0, lsr #4
    9564:	000084ec 	andeq	r8, r0, ip, ror #9
    9568:	0000852c 	andeq	r8, r0, ip, lsr #10

0000956c <at_user_level>:
    956c:	e10f0000 	mrs	r0, CPSR
    9570:	e200001f 	and	r0, r0, #31
    9574:	e3500010 	cmp	r0, #16
    9578:	13a00000 	movne	r0, #0
    957c:	03a00001 	moveq	r0, #1
    9580:	e12fff1e 	bx	lr

00009584 <set_user_level>:
    9584:	e10f3000 	mrs	r3, CPSR
    9588:	e3c3301f 	bic	r3, r3, #31
    958c:	e3833010 	orr	r3, r3, #16
    9590:	e129f003 	msr	CPSR_fc, r3
    9594:	e12fff1e 	bx	lr

00009598 <rpi_reboot>:
    9598:	e92d4008 	push	{r3, lr}
    959c:	ebfffff2 	bl	956c <at_user_level>
    95a0:	e3500000 	cmp	r0, #0
    95a4:	0a000000 	beq	95ac <rpi_reboot+0x14>
    95a8:	ebfffff5 	bl	9584 <set_user_level>
    95ac:	e3a0001e 	mov	r0, #30
    95b0:	eb000026 	bl	9650 <delay_ms>
    95b4:	e59f0014 	ldr	r0, [pc, #20]	; 95d0 <rpi_reboot+0x38>
    95b8:	e59f1014 	ldr	r1, [pc, #20]	; 95d4 <rpi_reboot+0x3c>
    95bc:	eb000035 	bl	9698 <PUT32>
    95c0:	e59f0010 	ldr	r0, [pc, #16]	; 95d8 <rpi_reboot+0x40>
    95c4:	e59f1010 	ldr	r1, [pc, #16]	; 95dc <rpi_reboot+0x44>
    95c8:	eb000032 	bl	9698 <PUT32>
    95cc:	eafffffe 	b	95cc <rpi_reboot+0x34>
    95d0:	20100024 	andscs	r0, r0, r4, lsr #32
    95d4:	5a000001 	bpl	95e0 <delay_cycles>
    95d8:	2010001c 	andscs	r0, r0, ip, lsl r0
    95dc:	5a000020 	bpl	9664 <delay_sec>

000095e0 <delay_cycles>:
    95e0:	ea000001 	b	95ec <delay_cycles+0xc>
    95e4:	e2811000 	add	r1, r1, #0
    95e8:	e1a00003 	mov	r0, r3
    95ec:	e2403001 	sub	r3, r0, #1
    95f0:	e3500000 	cmp	r0, #0
    95f4:	1afffffa 	bne	95e4 <delay_cycles+0x4>
    95f8:	e12fff1e 	bx	lr

000095fc <timer_get_usec_raw>:
    95fc:	e92d4008 	push	{r3, lr}
    9600:	e59f0004 	ldr	r0, [pc, #4]	; 960c <timer_get_usec_raw+0x10>
    9604:	eb00002f 	bl	96c8 <GET32>
    9608:	e8bd8008 	pop	{r3, pc}
    960c:	20003004 	andcs	r3, r0, r4

00009610 <timer_get_usec>:
    9610:	e92d4010 	push	{r4, lr}
    9614:	eb000017 	bl	9678 <dev_barrier>
    9618:	ebfffff7 	bl	95fc <timer_get_usec_raw>
    961c:	e1a04000 	mov	r4, r0
    9620:	eb000014 	bl	9678 <dev_barrier>
    9624:	e1a00004 	mov	r0, r4
    9628:	e8bd8010 	pop	{r4, pc}

0000962c <delay_us>:
    962c:	e92d4038 	push	{r3, r4, r5, lr}
    9630:	e1a05000 	mov	r5, r0
    9634:	ebfffff5 	bl	9610 <timer_get_usec>
    9638:	e1a04000 	mov	r4, r0
    963c:	ebfffff3 	bl	9610 <timer_get_usec>
    9640:	e0640000 	rsb	r0, r4, r0
    9644:	e1500005 	cmp	r0, r5
    9648:	3afffffb 	bcc	963c <delay_us+0x10>
    964c:	e8bd8038 	pop	{r3, r4, r5, pc}

00009650 <delay_ms>:
    9650:	e92d4008 	push	{r3, lr}
    9654:	e3a03ffa 	mov	r3, #1000	; 0x3e8
    9658:	e0000093 	mul	r0, r3, r0
    965c:	ebfffff2 	bl	962c <delay_us>
    9660:	e8bd8008 	pop	{r3, pc}

00009664 <delay_sec>:
    9664:	e92d4008 	push	{r3, lr}
    9668:	e3a03ffa 	mov	r3, #1000	; 0x3e8
    966c:	e0000093 	mul	r0, r3, r0
    9670:	ebfffff6 	bl	9650 <delay_ms>
    9674:	e8bd8008 	pop	{r3, pc}

00009678 <dev_barrier>:
    9678:	ea000002 	b	9688 <dsb>

0000967c <dmb>:
    967c:	e3a00000 	mov	r0, #0
    9680:	ee070fba 	mcr	15, 0, r0, cr7, cr10, {5}
    9684:	e12fff1e 	bx	lr

00009688 <dsb>:
    9688:	ee070f9a 	mcr	15, 0, r0, cr7, cr10, {4}
    968c:	e12fff1e 	bx	lr

00009690 <put32>:
    9690:	e5801000 	str	r1, [r0]
    9694:	e12fff1e 	bx	lr

00009698 <PUT32>:
    9698:	e5801000 	str	r1, [r0]
    969c:	e12fff1e 	bx	lr

000096a0 <put16>:
    96a0:	e1c010b0 	strh	r1, [r0]
    96a4:	e12fff1e 	bx	lr

000096a8 <PUT16>:
    96a8:	e1c010b0 	strh	r1, [r0]
    96ac:	e12fff1e 	bx	lr

000096b0 <put8>:
    96b0:	e5c01000 	strb	r1, [r0]
    96b4:	e12fff1e 	bx	lr

000096b8 <PUT8>:
    96b8:	e5c01000 	strb	r1, [r0]
    96bc:	e12fff1e 	bx	lr

000096c0 <get32>:
    96c0:	e5900000 	ldr	r0, [r0]
    96c4:	e12fff1e 	bx	lr

000096c8 <GET32>:
    96c8:	e5900000 	ldr	r0, [r0]
    96cc:	e12fff1e 	bx	lr

000096d0 <GETPC>:
    96d0:	e1a0000e 	mov	r0, lr
    96d4:	e12fff1e 	bx	lr

000096d8 <dummy>:
    96d8:	e12fff1e 	bx	lr

000096dc <or_in32>:
    96dc:	e92d4070 	push	{r4, r5, r6, lr}
    96e0:	e1a04000 	mov	r4, r0
    96e4:	e1a05001 	mov	r5, r1
    96e8:	ebfffff4 	bl	96c0 <get32>
    96ec:	e1801005 	orr	r1, r0, r5
    96f0:	e1a00004 	mov	r0, r4
    96f4:	ebffffe5 	bl	9690 <put32>
    96f8:	e8bd8070 	pop	{r4, r5, r6, pc}

000096fc <uart_init>:
    96fc:	e92d4010 	push	{r4, lr}
    9700:	e3a01002 	mov	r1, #2
    9704:	e3a0000e 	mov	r0, #14
    9708:	eb000051 	bl	9854 <gpio_set_function>
    970c:	e3a01002 	mov	r1, #2
    9710:	e3a0000f 	mov	r0, #15
    9714:	eb00004e 	bl	9854 <gpio_set_function>
    9718:	ebffffd6 	bl	9678 <dev_barrier>
    971c:	e3a01001 	mov	r1, #1
    9720:	e59f0064 	ldr	r0, [pc, #100]	; 978c <uart_init+0x90>
    9724:	ebffffec 	bl	96dc <or_in32>
    9728:	ebffffd2 	bl	9678 <dev_barrier>
    972c:	e59f405c 	ldr	r4, [pc, #92]	; 9790 <uart_init+0x94>
    9730:	e3a01000 	mov	r1, #0
    9734:	e1a00004 	mov	r0, r4
    9738:	ebffffd4 	bl	9690 <put32>
    973c:	e3a01000 	mov	r1, #0
    9740:	e59f004c 	ldr	r0, [pc, #76]	; 9794 <uart_init+0x98>
    9744:	ebffffd1 	bl	9690 <put32>
    9748:	e3a01003 	mov	r1, #3
    974c:	e59f0044 	ldr	r0, [pc, #68]	; 9798 <uart_init+0x9c>
    9750:	ebffffce 	bl	9690 <put32>
    9754:	e3a01000 	mov	r1, #0
    9758:	e59f003c 	ldr	r0, [pc, #60]	; 979c <uart_init+0xa0>
    975c:	ebffffcb 	bl	9690 <put32>
    9760:	e3a010c7 	mov	r1, #199	; 0xc7
    9764:	e59f0034 	ldr	r0, [pc, #52]	; 97a0 <uart_init+0xa4>
    9768:	ebffffc8 	bl	9690 <put32>
    976c:	e59f1030 	ldr	r1, [pc, #48]	; 97a4 <uart_init+0xa8>
    9770:	e59f0030 	ldr	r0, [pc, #48]	; 97a8 <uart_init+0xac>
    9774:	ebffffc5 	bl	9690 <put32>
    9778:	e3a01003 	mov	r1, #3
    977c:	e1a00004 	mov	r0, r4
    9780:	ebffffc2 	bl	9690 <put32>
    9784:	ebffffbb 	bl	9678 <dev_barrier>
    9788:	e8bd8010 	pop	{r4, pc}
    978c:	20215004 	eorcs	r5, r1, r4
    9790:	20215060 	eorcs	r5, r1, r0, rrx
    9794:	20215044 	eorcs	r5, r1, r4, asr #32
    9798:	2021504c 	eorcs	r5, r1, ip, asr #32
    979c:	20215050 	eorcs	r5, r1, r0, asr r0
    97a0:	20215048 	eorcs	r5, r1, r8, asr #32
    97a4:	0000010e 	andeq	r0, r0, lr, lsl #2
    97a8:	20215068 	eorcs	r5, r1, r8, rrx

000097ac <uart_can_getc>:
    97ac:	e92d4010 	push	{r4, lr}
    97b0:	e59f0008 	ldr	r0, [pc, #8]	; 97c0 <uart_can_getc+0x14>
    97b4:	ebffffc1 	bl	96c0 <get32>
    97b8:	e2000001 	and	r0, r0, #1
    97bc:	e8bd8010 	pop	{r4, pc}
    97c0:	20215064 	eorcs	r5, r1, r4, rrx

000097c4 <uart_can_putc>:
    97c4:	e92d4010 	push	{r4, lr}
    97c8:	e59f0010 	ldr	r0, [pc, #16]	; 97e0 <uart_can_putc+0x1c>
    97cc:	ebffffbb 	bl	96c0 <get32>
    97d0:	e3100002 	tst	r0, #2
    97d4:	13a00001 	movne	r0, #1
    97d8:	03a00000 	moveq	r0, #0
    97dc:	e8bd8010 	pop	{r4, pc}
    97e0:	20215064 	eorcs	r5, r1, r4, rrx

000097e4 <uart_getc>:
    97e4:	e92d4010 	push	{r4, lr}
    97e8:	ebffffa2 	bl	9678 <dev_barrier>
    97ec:	ebffffee 	bl	97ac <uart_can_getc>
    97f0:	e3500000 	cmp	r0, #0
    97f4:	0afffffc 	beq	97ec <uart_getc+0x8>
    97f8:	e59f0010 	ldr	r0, [pc, #16]	; 9810 <uart_getc+0x2c>
    97fc:	ebffffaf 	bl	96c0 <get32>
    9800:	e6ef4070 	uxtb	r4, r0
    9804:	ebffff9b 	bl	9678 <dev_barrier>
    9808:	e1a00004 	mov	r0, r4
    980c:	e8bd8010 	pop	{r4, pc}
    9810:	20215040 	eorcs	r5, r1, r0, asr #32

00009814 <uart_putc>:
    9814:	e92d4010 	push	{r4, lr}
    9818:	e1a04000 	mov	r4, r0
    981c:	ebffff95 	bl	9678 <dev_barrier>
    9820:	ebffffe7 	bl	97c4 <uart_can_putc>
    9824:	e3500000 	cmp	r0, #0
    9828:	0afffffc 	beq	9820 <uart_putc+0xc>
    982c:	e6ef1074 	uxtb	r1, r4
    9830:	e59f0008 	ldr	r0, [pc, #8]	; 9840 <uart_putc+0x2c>
    9834:	ebffff95 	bl	9690 <put32>
    9838:	ebffff8e 	bl	9678 <dev_barrier>
    983c:	e8bd8010 	pop	{r4, pc}
    9840:	20215040 	eorcs	r5, r1, r0, asr #32

00009844 <uart_has_data>:
    9844:	e92d4010 	push	{r4, lr}
    9848:	ebffff8a 	bl	9678 <dev_barrier>
    984c:	ebffffd6 	bl	97ac <uart_can_getc>
    9850:	e8bd8010 	pop	{r4, pc}

00009854 <gpio_set_function>:
    9854:	e350001f 	cmp	r0, #31
    9858:	812fff1e 	bxhi	lr
    985c:	e3d13007 	bics	r3, r1, #7
    9860:	112fff1e 	bxne	lr
    9864:	e92d4070 	push	{r4, r5, r6, lr}
    9868:	e1a05001 	mov	r5, r1
    986c:	e59f3044 	ldr	r3, [pc, #68]	; 98b8 <gpio_set_function+0x64>
    9870:	e0832093 	umull	r2, r3, r3, r0
    9874:	e1a031a3 	lsr	r3, r3, #3
    9878:	e1a06003 	mov	r6, r3
    987c:	e0833103 	add	r3, r3, r3, lsl #2
    9880:	e1a02083 	lsl	r2, r3, #1
    9884:	e0403002 	sub	r3, r0, r2
    9888:	e0834083 	add	r4, r3, r3, lsl #1
    988c:	e2866302 	add	r6, r6, #134217728	; 0x8000000
    9890:	e2866702 	add	r6, r6, #524288	; 0x80000
    9894:	e1a06106 	lsl	r6, r6, #2
    9898:	e1a00006 	mov	r0, r6
    989c:	ebffff89 	bl	96c8 <GET32>
    98a0:	e3a01007 	mov	r1, #7
    98a4:	e1c01411 	bic	r1, r0, r1, lsl r4
    98a8:	e1811415 	orr	r1, r1, r5, lsl r4
    98ac:	e1a00006 	mov	r0, r6
    98b0:	ebffff78 	bl	9698 <PUT32>
    98b4:	e8bd8070 	pop	{r4, r5, r6, pc}
    98b8:	cccccccd 	stclgt	12, cr12, [ip], {205}	; 0xcd

000098bc <gpio_set_output>:
    98bc:	e92d4010 	push	{r4, lr}
    98c0:	e3a01001 	mov	r1, #1
    98c4:	ebffffe2 	bl	9854 <gpio_set_function>
    98c8:	e8bd8010 	pop	{r4, pc}

000098cc <gpio_set_on>:
    98cc:	e350001f 	cmp	r0, #31
    98d0:	812fff1e 	bxhi	lr
    98d4:	e92d4010 	push	{r4, lr}
    98d8:	e3a01001 	mov	r1, #1
    98dc:	e1a01011 	lsl	r1, r1, r0
    98e0:	e59f0004 	ldr	r0, [pc, #4]	; 98ec <gpio_set_on+0x20>
    98e4:	ebffff6b 	bl	9698 <PUT32>
    98e8:	e8bd8010 	pop	{r4, pc}
    98ec:	2020001c 	eorcs	r0, r0, ip, lsl r0

000098f0 <gpio_set_off>:
    98f0:	e350001f 	cmp	r0, #31
    98f4:	812fff1e 	bxhi	lr
    98f8:	e92d4010 	push	{r4, lr}
    98fc:	e3a01001 	mov	r1, #1
    9900:	e1a01011 	lsl	r1, r1, r0
    9904:	e59f0004 	ldr	r0, [pc, #4]	; 9910 <gpio_set_off+0x20>
    9908:	ebffff62 	bl	9698 <PUT32>
    990c:	e8bd8010 	pop	{r4, pc}
    9910:	20200028 	eorcs	r0, r0, r8, lsr #32

00009914 <gpio_set_input>:
    9914:	e92d4010 	push	{r4, lr}
    9918:	e3a01000 	mov	r1, #0
    991c:	ebffffcc 	bl	9854 <gpio_set_function>
    9920:	e8bd8010 	pop	{r4, pc}

00009924 <gpio_write>:
    9924:	e92d4010 	push	{r4, lr}
    9928:	e3510000 	cmp	r1, #0
    992c:	1a000001 	bne	9938 <gpio_write+0x14>
    9930:	ebffffee 	bl	98f0 <gpio_set_off>
    9934:	e8bd8010 	pop	{r4, pc}
    9938:	ebffffe3 	bl	98cc <gpio_set_on>
    993c:	e8bd8010 	pop	{r4, pc}

00009940 <gpio_read>:
    9940:	e350001f 	cmp	r0, #31
    9944:	8a000007 	bhi	9968 <gpio_read+0x28>
    9948:	e92d4010 	push	{r4, lr}
    994c:	e200401f 	and	r4, r0, #31
    9950:	e59f3018 	ldr	r3, [pc, #24]	; 9970 <gpio_read+0x30>
    9954:	e08302a0 	add	r0, r3, r0, lsr #5
    9958:	ebffff5a 	bl	96c8 <GET32>
    995c:	e1a00430 	lsr	r0, r0, r4
    9960:	e2000001 	and	r0, r0, #1
    9964:	e8bd8010 	pop	{r4, pc}
    9968:	e3e00000 	mvn	r0, #0
    996c:	e12fff1e 	bx	lr
    9970:	20200034 	eorcs	r0, r0, r4, lsr r0

00009974 <__code_end__>:
    9974:	00000000 	andeq	r0, r0, r0

Disassembly of section .data:

00009978 <__data_start__>:
    9978:	00008dc0 	andeq	r8, r0, r0, asr #27

0000997c <putk>:
    997c:	00008dfc 	strdeq	r8, [r0], -ip

Disassembly of section .rodata:

00009980 <C.0.4399-0xb0>:
    9980:	494e4150 	stmdbmi	lr, {r4, r6, r8, lr}^
    9984:	73253a43 	teqvc	r5, #274432	; 0x43000
    9988:	3a73253a 	bcc	1cd2e78 <__bss_end__+0x1cc88f0>
    998c:	253a6425 	ldrcs	r6, [sl, #-1061]!	; 0x425
    9990:	00000a73 	andeq	r0, r0, r3, ror sl
    9994:	74736574 	ldrbtvc	r6, [r3], #-1396	; 0x574
    9998:	36312f73 	shsub16cc	r2, r1, r3
    999c:	7261702d 	rsbvc	r7, r1, #45	; 0x2d
    99a0:	742d3274 	strtvc	r3, [sp], #-628	; 0x274
    99a4:	32747365 	rsbscc	r7, r4, #-1811939327	; 0x94000001
    99a8:	0000632e 	andeq	r6, r0, lr, lsr #6
    99ac:	656e2e63 	strbvs	r2, [lr, #-3683]!	; 0xe63
    99b0:	726f7272 	rsbvc	r7, pc, #536870919	; 0x20000007
    99b4:	00000073 	andeq	r0, r0, r3, ror r0
    99b8:	494e4150 	stmdbmi	lr, {r4, r6, r8, lr}^
    99bc:	73253a43 	teqvc	r5, #274432	; 0x43000
    99c0:	3a73253a 	bcc	1cd2eb0 <__bss_end__+0x1cc8928>
    99c4:	633a6425 	teqvs	sl, #620756992	; 0x25000000
    99c8:	6b636568 	blvs	18e2f70 <__bss_end__+0x18d89e8>
    99cc:	6f687320 	svcvs	0x00687320
    99d0:	20646c75 	rsbcs	r6, r4, r5, ror ip
    99d4:	20746f6e 	rsbscs	r6, r4, lr, ror #30
    99d8:	65766168 	ldrbvs	r6, [r6, #-360]!	; 0x168
    99dc:	69616620 	stmdbvs	r1!, {r5, r9, sl, sp, lr}^
    99e0:	2c64656c 	cfstr64cs	mvdx6, [r4], #-432	; 0xfffffe50
    99e4:	69727420 	ldmdbvs	r2!, {r5, sl, ip, sp, lr}^
    99e8:	3d736c61 	ldclcc	12, cr6, [r3, #-388]!	; 0xfffffe7c
    99ec:	202c6425 	eorcs	r6, ip, r5, lsr #8
    99f0:	6f727265 	svcvs	0x00727265
    99f4:	253d7372 	ldrcs	r7, [sp, #-882]!	; 0x372
    99f8:	0a212164 	beq	851f90 <__bss_end__+0x847a08>
    99fc:	0000000a 	andeq	r0, r0, sl
    9a00:	6e2e6321 	cdpvs	3, 2, cr6, cr14, cr1, {1}
    9a04:	6f727265 	svcvs	0x00727265
    9a08:	00007372 	andeq	r7, r0, r2, ror r3
    9a0c:	43435553 	movtmi	r5, #13651	; 0x3553
    9a10:	3a535345 	bcc	14de72c <__bss_end__+0x14d41a4>
    9a14:	00000000 	andeq	r0, r0, r0
    9a18:	6b726f77 	blvs	1ca57fc <__bss_end__+0x1c9b274>
    9a1c:	20216465 	eorcs	r6, r1, r5, ror #8
    9a20:	72746e20 	rsbsvc	r6, r4, #32, 28	; 0x200
    9a24:	736c6169 	cmnvc	ip, #1073741850	; 0x4000001a
    9a28:	0a64253d 	beq	1912f24 <__bss_end__+0x190899c>
    9a2c:	00000000 	andeq	r0, r0, r0

00009a30 <C.0.4399>:
    9a30:	00000000 	andeq	r0, r0, r0
    9a34:	00008020 	andeq	r8, r0, r0, lsr #32
    9a38:	00008024 	andeq	r8, r0, r4, lsr #32
    9a3c:	00008028 	andeq	r8, r0, r8, lsr #32
    9a40:	0000802c 	andeq	r8, r0, ip, lsr #32
	...

00009a64 <__FUNCTION__.4405>:
    9a64:	6d746f6e 	ldclvs	15, cr6, [r4, #-440]!	; 0xfffffe48
    9a68:	006e6961 	rsbeq	r6, lr, r1, ror #18
    9a6c:	34317063 	ldrtcc	r7, [r1], #-99	; 0x63
    9a70:	6265642d 	rsbvs	r6, r5, #754974720	; 0x2d000000
    9a74:	632e6775 	teqvs	lr, #30670848	; 0x1d40000
    9a78:	00000000 	andeq	r0, r0, r0
    9a7c:	30726377 	rsbscc	r6, r2, r7, ror r3
    9a80:	6765725f 			; <UNDEFINED> instruction: 0x6765725f
    9a84:	203d3d20 	eorscs	r3, sp, r0, lsr #26
    9a88:	30726377 	rsbscc	r6, r2, r7, ror r3
    9a8c:	7465675f 	strbtvc	r6, [r5], #-1887	; 0x75f
    9a90:	00002928 	andeq	r2, r0, r8, lsr #18
    9a94:	494e4150 	stmdbmi	lr, {r4, r6, r8, lr}^
    9a98:	73253a43 	teqvc	r5, #274432	; 0x43000
    9a9c:	3a73253a 	bcc	1cd2f8c <__bss_end__+0x1cc8a04>
    9aa0:	693a6425 	ldmdbvs	sl!, {r0, r2, r5, sl, sp, lr}
    9aa4:	736f706d 	cmnvc	pc, #109	; 0x6d
    9aa8:	6c626973 	stclvs	9, cr6, [r2], #-460	; 0xfffffe34
    9aac:	73203a65 	teqvc	r0, #413696	; 0x65000
    9ab0:	6c756f68 	ldclvs	15, cr6, [r5], #-416	; 0xfffffe60
    9ab4:	6e6f2064 	cdpvs	0, 6, cr2, cr15, cr4, {3}
    9ab8:	6720796c 	strvs	r7, [r0, -ip, ror #18]!
    9abc:	64207465 	strtvs	r7, [r0], #-1125	; 0x465
    9ac0:	66617461 	strbtvs	r7, [r1], -r1, ror #8
    9ac4:	746c7561 	strbtvc	r7, [ip], #-1377	; 0x561
    9ac8:	000a0a73 	andeq	r0, sl, r3, ror sl
    9acc:	34317063 	ldrtcc	r7, [r1], #-99	; 0x63
    9ad0:	6265642d 	rsbvs	r6, r5, #754974720	; 0x2d000000
    9ad4:	682e6775 	stmdavs	lr!, {r0, r2, r4, r5, r6, r8, r9, sl, sp, lr}
    9ad8:	00000000 	andeq	r0, r0, r0
    9adc:	72616677 	rsbvc	r6, r1, #124780544	; 0x7700000
    9ae0:	7465675f 	strbtvc	r6, [r5], #-1887	; 0x75f
    9ae4:	342d2928 	strtcc	r2, [sp], #-2344	; 0x928
    9ae8:	203d3d20 	eorscs	r3, sp, r0, lsr #26
    9aec:	00006370 	andeq	r6, r0, r0, ror r3
    9af0:	63746177 	cmnvs	r4, #-1073741795	; 0xc000001d
    9af4:	5f747068 	svcpl	0x00747068
    9af8:	646e6168 	strbtvs	r6, [lr], #-360	; 0x168
    9afc:	3072656c 	rsbscc	r6, r2, ip, ror #10
    9b00:	00000000 	andeq	r0, r0, r0
    9b04:	494e4150 	stmdbmi	lr, {r4, r6, r8, lr}^
    9b08:	73253a43 	teqvc	r5, #274432	; 0x43000
    9b0c:	3a73253a 	bcc	1cd2ffc <__bss_end__+0x1cc8a74>
    9b10:	693a6425 	ldmdbvs	sl!, {r0, r2, r5, sl, sp, lr}
    9b14:	736f706d 	cmnvc	pc, #109	; 0x6d
    9b18:	6c626973 	stclvs	9, cr6, [r2], #-460	; 0xfffffe34
    9b1c:	73203a65 	teqvc	r0, #413696	; 0x65000
    9b20:	6c756f68 	ldclvs	15, cr6, [r5], #-416	; 0xfffffe60
    9b24:	65672064 	strbvs	r2, [r7, #-100]!	; 0x64
    9b28:	6f6e2074 	svcvs	0x006e2074
    9b2c:	68746f20 	ldmdavs	r4!, {r5, r8, r9, sl, fp, sp, lr}^
    9b30:	66207265 	strtvs	r7, [r0], -r5, ror #4
    9b34:	746c7561 	strbtvc	r7, [ip], #-1377	; 0x561
    9b38:	000a0a73 	andeq	r0, sl, r3, ror sl
    9b3c:	706b7262 	rsbvc	r7, fp, r2, ror #4
    9b40:	61685f74 	smcvs	34292	; 0x85f4
    9b44:	656c646e 	strbvs	r6, [ip, #-1134]!	; 0x46e
    9b48:	00003072 	andeq	r3, r0, r2, ror r0
    9b4c:	494e4150 	stmdbmi	lr, {r4, r6, r8, lr}^
    9b50:	73253a43 	teqvc	r5, #274432	; 0x43000
    9b54:	3a73253a 	bcc	1cd3044 <__bss_end__+0x1cc8abc>
    9b58:	723a6425 	eorsvc	r6, sl, #620756992	; 0x25000000
    9b5c:	72757465 	rsbsvc	r7, r5, #1694498816	; 0x65000000
    9b60:	2064656e 	rsbcs	r6, r4, lr, ror #10
    9b64:	20646e61 	rsbcs	r6, r4, r1, ror #28
    9b68:	756f6873 	strbvc	r6, [pc, #-2163]!	; 92fd <va_printk+0x229>
    9b6c:	6e20646c 	cdpvs	4, 2, cr6, cr0, cr12, {3}
    9b70:	6820746f 	stmdavs	r0!, {r0, r1, r2, r3, r5, r6, sl, ip, sp, lr}
    9b74:	21657661 	cmncs	r5, r1, ror #12
    9b78:	00000a0a 	andeq	r0, r0, sl, lsl #20
    9b7c:	75736572 	ldrbvc	r6, [r3, #-1394]!	; 0x572
    9b80:	203a746c 	eorscs	r7, sl, ip, ror #8
    9b84:	000a7825 	andeq	r7, sl, r5, lsr #16
    9b88:	656c6c69 	strbvs	r6, [ip, #-3177]!	; 0xc69
    9b8c:	206c6167 	rsbcs	r6, ip, r7, ror #2
    9b90:	74737973 	ldrbtvc	r7, [r3], #-2419	; 0x973
    9b94:	63206d65 	teqvs	r0, #6464	; 0x1940
    9b98:	206c6c61 	rsbcs	r6, ip, r1, ror #24
    9b9c:	000a6425 	andeq	r6, sl, r5, lsr #8

00009ba0 <__FUNCTION__.4393>:
    9ba0:	63746177 	cmnvs	r4, #-1073741795	; 0xc000001d
    9ba4:	5f747068 	svcpl	0x00747068
    9ba8:	30746573 	rsbscc	r6, r4, r3, ror r5
    9bac:	00000000 	andeq	r0, r0, r0

00009bb0 <__FUNCTION__.4399>:
    9bb0:	61746164 	cmnvs	r4, r4, ror #2
    9bb4:	6f62615f 	svcvs	0x0062615f
    9bb8:	765f7472 			; <UNDEFINED> instruction: 0x765f7472
    9bbc:	6f746365 	svcvs	0x00746365
    9bc0:	00000072 	andeq	r0, r0, r2, ror r0

00009bc4 <__FUNCTION__.4306>:
    9bc4:	5f736177 	svcpl	0x00736177
    9bc8:	75626564 	strbvc	r6, [r2, #-1380]!	; 0x564
    9bcc:	61645f67 	cmnvs	r4, r7, ror #30
    9bd0:	61666174 	smcvs	26132	; 0x6614
    9bd4:	00746c75 	rsbseq	r6, r4, r5, ror ip

00009bd8 <__FUNCTION__.4443>:
    9bd8:	66657270 			; <UNDEFINED> instruction: 0x66657270
    9bdc:	68637465 	stmdavs	r3!, {r0, r2, r5, r6, sl, ip, sp, lr}^
    9be0:	6f62615f 	svcvs	0x0062615f
    9be4:	765f7472 			; <UNDEFINED> instruction: 0x765f7472
    9be8:	6f746365 	svcvs	0x00746365
    9bec:	00000072 	andeq	r0, r0, r2, ror r0

00009bf0 <__FUNCTION__.4451>:
    9bf0:	5f6b7262 	svcpl	0x006b7262
    9bf4:	725f6f6e 	subsvc	r6, pc, #440	; 0x1b8
    9bf8:	655f7465 	ldrbvs	r7, [pc, #-1125]	; 979b <uart_init+0x9f>
    9bfc:	726f7272 	rsbvc	r7, pc, #536870919	; 0x20000007
    9c00:	00000000 	andeq	r0, r0, r0
    9c04:	253a7325 	ldrcs	r7, [sl, #-805]!	; 0x325
    9c08:	64253a73 	strtvs	r3, [r5], #-2675	; 0xa73
    9c0c:	6572703a 	ldrbvs	r7, [r2, #-58]!	; 0x3a
    9c10:	63746566 	cmnvs	r4, #427819008	; 0x19800000
    9c14:	62612068 	rsbvs	r2, r1, #104	; 0x68
    9c18:	2074726f 	rsbscs	r7, r4, pc, ror #4
    9c1c:	25207461 	strcs	r7, [r0, #-1121]!	; 0x461
    9c20:	00000a70 	andeq	r0, r0, r0, ror sl
    9c24:	63656863 	cmnvs	r5, #6488064	; 0x630000
    9c28:	6e692d6b 	cdpvs	13, 6, cr2, cr9, cr11, {3}
    9c2c:	6c726574 	cfldr64vs	mvdx6, [r2], #-464	; 0xfffffe30
    9c30:	65766165 	ldrbvs	r6, [r6, #-357]!	; 0x165
    9c34:	0000632e 	andeq	r6, r0, lr, lsr #6
    9c38:	756f6261 	strbvc	r6, [pc, #-609]!	; 99df <__data_end__+0x5f>
    9c3c:	6f742074 	svcvs	0x00742074
    9c40:	69777320 	ldmdbvs	r7!, {r5, r8, r9, ip, sp, lr}^
    9c44:	20686374 	rsbcs	r6, r8, r4, ror r3
    9c48:	6d6f7266 	sfmvs	f7, 2, [pc, #-408]!	; 9ab8 <__FUNCTION__.4405+0x54>
    9c4c:	20702520 	rsbscs	r2, r0, r0, lsr #10
    9c50:	25206f74 	strcs	r6, [r0, #-3956]!	; 0xf74
    9c54:	00000a70 	andeq	r0, r0, r0, ror sl
    9c58:	656e6f64 	strbvs	r6, [lr, #-3940]!	; 0xf64
    9c5c:	6e757220 	cdpvs	2, 7, cr7, cr5, cr0, {1}
    9c60:	676e696e 	strbvs	r6, [lr, -lr, ror #18]!
    9c64:	202c4220 	eorcs	r4, ip, r0, lsr #4
    9c68:	6e696f67 	cdpvs	15, 6, cr6, cr9, cr7, {3}
    9c6c:	6f742067 	svcvs	0x00742067
    9c70:	74657220 	strbtvc	r7, [r5], #-544	; 0x220
    9c74:	206e7275 	rsbcs	r7, lr, r5, ror r2
    9c78:	41206f74 	teqmi	r0, r4, ror pc
    9c7c:	0000000a 	andeq	r0, r0, sl
    9c80:	693e2d63 	ldmdbvs	lr!, {r0, r1, r5, r6, r8, sl, fp, sp}
    9c84:	5f74736e 	svcpl	0x0074736e
    9c88:	6e756f63 	cdpvs	15, 7, cr6, cr5, cr3, {3}
    9c8c:	203c2074 	eorscs	r2, ip, r4, ror r0
    9c90:	733e2d63 	teqvc	lr, #6336	; 0x18c0
    9c94:	63746977 	cmnvs	r4, #1949696	; 0x1dc000
    9c98:	6e6f5f68 	cdpvs	15, 6, cr5, cr15, cr8, {3}
    9c9c:	736e695f 	cmnvc	lr, #1556480	; 0x17c000
    9ca0:	006e5f74 	rsbeq	r5, lr, r4, ror pc
    9ca4:	253a7325 	ldrcs	r7, [sl, #-805]!	; 0x325
    9ca8:	64253a73 	strtvs	r3, [r5], #-2675	; 0xa73
    9cac:	7465733a 	strbtvc	r7, [r5], #-826	; 0x33a
    9cb0:	676e6974 			; <UNDEFINED> instruction: 0x676e6974
    9cb4:	20707520 	rsbscs	r7, r0, r0, lsr #10
    9cb8:	696d2061 	stmdbvs	sp!, {r0, r5, r6, sp}^
    9cbc:	74616d73 	strbtvc	r6, [r1], #-3443	; 0xd73
    9cc0:	6f206863 	svcvs	0x00206863
    9cc4:	7025206e 	eorvc	r2, r5, lr, rrx
    9cc8:	0000000a 	andeq	r0, r0, sl
    9ccc:	253a7325 	ldrcs	r7, [sl, #-805]!	; 0x325
    9cd0:	64253a73 	strtvs	r3, [r5], #-2675	; 0xa73
    9cd4:	6e6f643a 	mcrvs	4, 3, r6, cr15, cr10, {1}
    9cd8:	65732065 	ldrbvs	r2, [r3, #-101]!	; 0x65
    9cdc:	6e697474 	mcrvs	4, 3, r7, cr9, cr4, {3}
    9ce0:	70752067 	rsbsvc	r2, r5, r7, rrx
    9ce4:	6d206120 	stfvss	f6, [r0, #-128]!	; 0xffffff80
    9ce8:	616d7369 	cmnvs	sp, r9, ror #6
    9cec:	20686374 	rsbcs	r6, r8, r4, ror r3
    9cf0:	25206e6f 	strcs	r6, [r0, #-3695]!	; 0xe6f
    9cf4:	00000a70 	andeq	r0, r0, r0, ror sl
    9cf8:	52455355 	subpl	r5, r5, #1409286145	; 0x54000001
    9cfc:	444f4d20 	strbmi	r4, [pc], #-3360	; 9d04 <__FUNCTION__.4451+0x114>
    9d00:	00000045 	andeq	r0, r0, r5, asr #32
    9d04:	20514946 	subscs	r4, r1, r6, asr #18
    9d08:	45444f4d 	strbmi	r4, [r4, #-3917]	; 0xf4d
    9d0c:	00000000 	andeq	r0, r0, r0
    9d10:	20515249 	subscs	r5, r1, r9, asr #4
    9d14:	45444f4d 	strbmi	r4, [r4, #-3917]	; 0xf4d
    9d18:	00000000 	andeq	r0, r0, r0
    9d1c:	45505553 	ldrbmi	r5, [r0, #-1363]	; 0x553
    9d20:	4f4d2052 	svcmi	0x004d2052
    9d24:	00004544 	andeq	r4, r0, r4, asr #10
    9d28:	524f4241 	subpl	r4, pc, #268435460	; 0x10000004
    9d2c:	4f4d2054 	svcmi	0x004d2054
    9d30:	00004544 	andeq	r4, r0, r4, asr #10
    9d34:	45444e55 	strbmi	r4, [r4, #-3669]	; 0xe55
    9d38:	4f4d2046 	svcmi	0x004d2046
    9d3c:	00004544 	andeq	r4, r0, r4, asr #10
    9d40:	20535953 	subscs	r5, r3, r3, asr r9
    9d44:	45444f4d 	strbmi	r4, [r4, #-3917]	; 0xf4d
    9d48:	00000000 	andeq	r0, r0, r0
    9d4c:	253a7325 	ldrcs	r7, [sl, #-805]!	; 0x325
    9d50:	64253a73 	strtvs	r3, [r5], #-2675	; 0xa73
    9d54:	6972743a 	ldmdbvs	r2!, {r1, r3, r4, r5, sl, ip, sp, lr}^
    9d58:	253d6c61 	ldrcs	r6, [sp, #-3169]!	; 0xc61
    9d5c:	61203a64 	teqvs	r0, r4, ror #20
    9d60:	74756f62 	ldrbtvc	r6, [r5], #-3938	; 0xf62
    9d64:	206f7420 	rsbcs	r7, pc, r0, lsr #8
    9d68:	20746573 	rsbscs	r6, r4, r3, ror r5
    9d6c:	6d73696d 	ldclvs	9, cr6, [r3, #-436]!	; 0xfffffe4c
    9d70:	68637461 	stmdavs	r3!, {r0, r5, r6, sl, ip, sp, lr}^
    9d74:	6b726220 	blvs	1ca25fc <__bss_end__+0x1c98074>
    9d78:	66207470 			; <UNDEFINED> instruction: 0x66207470
    9d7c:	4120726f 	teqmi	r0, pc, ror #4
    9d80:	0000000a 	andeq	r0, r0, sl
    9d84:	4f525245 	svcmi	0x00525245
    9d88:	63203a52 	teqvs	r0, #335872	; 0x52000
    9d8c:	6b636568 	blvs	18e3334 <__bss_end__+0x18d8dac>
    9d90:	69616620 	stmdbvs	r1!, {r5, r9, sl, sp, lr}^
    9d94:	2064656c 	rsbcs	r6, r4, ip, ror #10
    9d98:	6e656877 	mcrvs	8, 3, r6, cr5, cr7, {3}
    9d9c:	69777320 	ldmdbvs	r7!, {r5, r8, r9, ip, sp, lr}^
    9da0:	65686374 	strbvs	r6, [r8, #-884]!	; 0x374
    9da4:	6e6f2064 	cdpvs	0, 6, cr2, cr15, cr4, {3}
    9da8:	64646120 	strbtvs	r6, [r4], #-288	; 0x120
    9dac:	73736572 	cmnvc	r3, #478150656	; 0x1c800000
    9db0:	2c702520 	cfldr64cs	mvdx2, [r0], #-128	; 0xffffff80
    9db4:	74666120 	strbtvc	r6, [r6], #-288	; 0x120
    9db8:	25207265 	strcs	r7, [r0, #-613]!	; 0x265
    9dbc:	6e692064 	cdpvs	0, 6, cr2, cr9, cr4, {3}
    9dc0:	75727473 	ldrbvc	r7, [r2, #-1139]!	; 0x473
    9dc4:	6f697463 	svcvs	0x00697463
    9dc8:	000a736e 	andeq	r7, sl, lr, ror #6
    9dcc:	656e6f64 	strbvs	r6, [lr, #-3940]!	; 0xf64
    9dd0:	64202021 	strtvs	r2, [r0], #-33	; 0x21
    9dd4:	63206469 	teqvs	r0, #1761607680	; 0x69000000
    9dd8:	736e3e2d 	cmnvc	lr, #720	; 0x2d0
    9ddc:	63746977 	cmnvs	r4, #1949696	; 0x1dc000
    9de0:	3d736568 	cfldr64cc	mvdx6, [r3, #-416]!	; 0xfffffe60
    9de4:	202c6425 	eorcs	r6, ip, r5, lsr #8
    9de8:	6972746e 	ldmdbvs	r2!, {r1, r2, r3, r5, r6, sl, ip, sp, lr}^
    9dec:	3d736c61 	ldclcc	12, cr6, [r3, #-388]!	; 0xfffffe7c
    9df0:	202c6425 	eorcs	r6, ip, r5, lsr #8
    9df4:	7272656e 	rsbsvc	r6, r2, #461373440	; 0x1b800000
    9df8:	3d73726f 	lfmcc	f7, 2, [r3, #-444]!	; 0xfffffe44
    9dfc:	000a6425 	andeq	r6, sl, r5, lsr #8
    9e00:	72737063 	rsbsvc	r7, r3, #99	; 0x63
    9e04:	6974752d 	ldmdbvs	r4!, {r0, r2, r3, r5, r8, sl, ip, sp, lr}^
    9e08:	00682e6c 	rsbeq	r2, r8, ip, ror #28
    9e0c:	65646f6d 	strbvs	r6, [r4, #-3949]!	; 0xf6d
    9e10:	67656c5f 			; <UNDEFINED> instruction: 0x67656c5f
    9e14:	6d286c61 	stcvs	12, cr6, [r8, #-388]!	; 0xfffffe7c
    9e18:	2965646f 	stmdbcs	r5!, {r0, r1, r2, r3, r5, r6, sl, sp, lr}^
    9e1c:	00000000 	andeq	r0, r0, r0
    9e20:	494e4150 	stmdbmi	lr, {r4, r6, r8, lr}^
    9e24:	73253a43 	teqvc	r5, #274432	; 0x43000
    9e28:	3a73253a 	bcc	1cd3318 <__bss_end__+0x1cc8d90>
    9e2c:	753a6425 	ldrvc	r6, [sl, #-1061]!	; 0x425
    9e30:	6f6e6b6e 	svcvs	0x006e6b6e
    9e34:	6d206e77 	stcvs	14, cr6, [r0, #-476]!	; 0xfffffe24
    9e38:	3a65646f 	bcc	1962ffc <__bss_end__+0x1958a74>
    9e3c:	78253c20 	stmdavc	r5!, {r5, sl, fp, ip, sp}
    9e40:	000a0a3e 	andeq	r0, sl, lr, lsr sl
    9e44:	65707865 	ldrbvs	r7, [r0, #-2149]!	; 0x865
    9e48:	64657463 	strbtvs	r7, [r5], #-1123	; 0x463
    9e4c:	646f6d20 	strbtvs	r6, [pc], #-3360	; 9e54 <__FUNCTION__.4451+0x264>
    9e50:	203d2065 	eorscs	r2, sp, r5, rrx
    9e54:	28207325 	stmdacs	r0!, {r0, r2, r5, r8, r9, ip, sp, lr}
    9e58:	0a297825 	beq	a67ef4 <__bss_end__+0xa5d96c>
    9e5c:	00000000 	andeq	r0, r0, r0
    9e60:	72727563 	rsbsvc	r7, r2, #415236096	; 0x18c00000
    9e64:	20746e65 	rsbscs	r6, r4, r5, ror #28
    9e68:	65646f6d 	strbvs	r6, [r4, #-3949]!	; 0xf6d
    9e6c:	25203d20 	strcs	r3, [r0, #-3360]!	; 0xd20
    9e70:	25282073 	strcs	r2, [r8, #-115]!	; 0x73
    9e74:	000a2978 	andeq	r2, sl, r8, ror r9
    9e78:	65646f6d 	strbvs	r6, [r4, #-3949]!	; 0xf6d
    9e7c:	7465675f 	strbtvc	r6, [r5], #-1887	; 0x75f
    9e80:	73706328 	cmnvc	r0, #40, 6	; 0xa0000000
    9e84:	6c6f5f72 	stclvs	15, cr5, [pc], #-456	; 9cc4 <__FUNCTION__.4451+0xd4>
    9e88:	3d202964 	stccc	9, cr2, [r0, #-400]!	; 0xfffffe70
    9e8c:	6f6d203d 	svcvs	0x006d203d
    9e90:	675f6564 	ldrbvs	r6, [pc, -r4, ror #10]
    9e94:	63287465 	teqvs	r8, #1694498816	; 0x65000000
    9e98:	5f727370 	svcpl	0x00727370
    9e9c:	28746567 	ldmdacs	r4!, {r0, r1, r2, r5, r6, r8, sl, sp, lr}^
    9ea0:	00002929 	andeq	r2, r0, r9, lsr #18
    9ea4:	494e4150 	stmdbmi	lr, {r4, r6, r8, lr}^
    9ea8:	73253a43 	teqvc	r5, #274432	; 0x43000
    9eac:	3a73253a 	bcc	1cd339c <__bss_end__+0x1cc8e14>
    9eb0:	633a6425 	teqvs	sl, #620756992	; 0x25000000
    9eb4:	6b636568 	blvs	18e345c <__bss_end__+0x18d8ed4>
    9eb8:	69616620 	stmdbvs	r1!, {r5, r9, sl, sp, lr}^
    9ebc:	2064656c 	rsbcs	r6, r4, ip, ror #10
    9ec0:	75716573 	ldrbvc	r6, [r1, #-1395]!	; 0x573
    9ec4:	69746e65 	ldmdbvs	r4!, {r0, r2, r5, r6, r9, sl, fp, sp, lr}^
    9ec8:	796c6c61 	stmdbvc	ip!, {r0, r5, r6, sl, fp, sp, lr}^
    9ecc:	6f63203a 	svcvs	0x0063203a
    9ed0:	69206564 	stmdbvs	r0!, {r2, r5, r6, r8, sl, sp, lr}
    9ed4:	72622073 	rsbvc	r2, r2, #115	; 0x73
    9ed8:	6e656b6f 	vnmulvs.f64	d22, d5, d31
    9edc:	00000a0a 	andeq	r0, r0, sl, lsl #20

00009ee0 <__FUNCTION__.4431>:
    9ee0:	63656863 	cmnvs	r5, #6488064	; 0x630000
    9ee4:	65735f6b 	ldrbvs	r5, [r3, #-3947]!	; 0xf6b
    9ee8:	6e657571 	mcrvs	5, 3, r7, cr5, cr1, {3}
    9eec:	6c616974 	stclvs	9, cr6, [r1], #-464	; 0xfffffe30
    9ef0:	00000000 	andeq	r0, r0, r0

00009ef4 <__FUNCTION__.4423>:
    9ef4:	63656863 	cmnvs	r5, #6488064	; 0x630000
    9ef8:	6e6f5f6b 	cdpvs	15, 6, cr5, cr15, cr11, {3}
    9efc:	73635f65 	cmnvc	r3, #404	; 0x194
    9f00:	63746977 	cmnvs	r4, #1949696	; 0x1dc000
    9f04:	00000068 	andeq	r0, r0, r8, rrx

00009f08 <__FUNCTION__.4416>:
    9f08:	676e6973 			; <UNDEFINED> instruction: 0x676e6973
    9f0c:	735f656c 	cmpvc	pc, #108, 10	; 0x1b000000
    9f10:	5f706574 	svcpl	0x00706574
    9f14:	646e6168 	strbtvs	r6, [lr], #-360	; 0x168
    9f18:	0072656c 	rsbseq	r6, r2, ip, ror #10

00009f1c <__FUNCTION__.4396>:
    9f1c:	65646f6d 	strbvs	r6, [r4, #-3949]!	; 0xf6d
    9f20:	7465735f 	strbtvc	r7, [r5], #-863	; 0x35f
    9f24:	00000000 	andeq	r0, r0, r0

00009f28 <__FUNCTION__.4258>:
    9f28:	73746962 	cmnvc	r4, #1605632	; 0x188000
    9f2c:	726c635f 	rsbvc	r6, ip, #2080374785	; 0x7c000001
    9f30:	00000000 	andeq	r0, r0, r0

00009f34 <__FUNCTION__.4408>:
    9f34:	65646f6d 	strbvs	r6, [r4, #-3949]!	; 0xf6d
    9f38:	7274735f 	rsbsvc	r7, r4, #2080374785	; 0x7c000001
    9f3c:	00000000 	andeq	r0, r0, r0

00009f40 <__FUNCTION__.4391>:
    9f40:	65646f6d 	strbvs	r6, [r4, #-3949]!	; 0xf6d
    9f44:	7465675f 	strbtvc	r6, [r5], #-1887	; 0x75f
    9f48:	00000000 	andeq	r0, r0, r0

00009f4c <__FUNCTION__.4251>:
    9f4c:	73746962 	cmnvc	r4, #1605632	; 0x188000
    9f50:	7465675f 	strbtvc	r6, [r5], #-1887	; 0x75f
    9f54:	00000000 	andeq	r0, r0, r0

00009f58 <__FUNCTION__.4249>:
    9f58:	74696d65 	strbtvc	r6, [r9], #-3429	; 0xd65
    9f5c:	00000000 	andeq	r0, r0, r0

00009f60 <__FUNCTION__.4197>:
    9f60:	5f697072 	svcpl	0x00697072
    9f64:	5f746573 	svcpl	0x00746573
    9f68:	7074756f 	rsbsvc	r7, r4, pc, ror #10
    9f6c:	00007475 	andeq	r7, r0, r5, ror r4

00009f70 <__FUNCTION__.4272>:
    9f70:	705f6176 	subsvc	r6, pc, r6, ror r1	; <UNPREDICTABLE>
    9f74:	746e6972 	strbtvc	r6, [lr], #-2418	; 0x972
    9f78:	0000006b 	andeq	r0, r0, fp, rrx
    9f7c:	6362696c 	cmnvs	r2, #108, 18	; 0x1b0000
    9f80:	2d61762f 	stclcs	6, cr7, [r1, #-188]!	; 0xffffff44
    9f84:	6e697270 	mcrvs	2, 3, r7, cr9, cr0, {3}
    9f88:	632e6b74 	teqvs	lr, #116, 22	; 0x1d000
    9f8c:	00000000 	andeq	r0, r0, r0
    9f90:	00000030 	andeq	r0, r0, r0, lsr r0
    9f94:	33323130 	teqcc	r2, #48, 2
    9f98:	37363534 			; <UNDEFINED> instruction: 0x37363534
    9f9c:	00003938 	andeq	r3, r0, r8, lsr r9
    9fa0:	33323130 	teqcc	r2, #48, 2
    9fa4:	37363534 			; <UNDEFINED> instruction: 0x37363534
    9fa8:	62613938 	rsbvs	r3, r1, #56, 18	; 0xe0000
    9fac:	66656463 	strbtvs	r6, [r5], -r3, ror #8
    9fb0:	00000000 	andeq	r0, r0, r0
    9fb4:	00003130 	andeq	r3, r0, r0, lsr r1
    9fb8:	63747570 	cmnvs	r4, #112, 10	; 0x1c000000
    9fbc:	0070665f 	rsbseq	r6, r0, pc, asr r6
    9fc0:	74646977 	strbtvc	r6, [r4], #-2423	; 0x977
    9fc4:	203c2068 	eorscs	r2, ip, r8, rrx
    9fc8:	00003233 	andeq	r3, r0, r3, lsr r2
    9fcc:	494e4150 	stmdbmi	lr, {r4, r6, r8, lr}^
    9fd0:	73253a43 	teqvc	r5, #274432	; 0x43000
    9fd4:	3a73253a 	bcc	1cd34c4 <__bss_end__+0x1cc8f3c>
    9fd8:	663a6425 	ldrtvs	r6, [sl], -r5, lsr #8
    9fdc:	74616f6c 	strbtvc	r6, [r1], #-3948	; 0xf6c
    9fe0:	746f6e20 	strbtvc	r6, [pc], #-3616	; 9fe8 <__FUNCTION__.4272+0x78>
    9fe4:	616e6520 	cmnvs	lr, r0, lsr #10
    9fe8:	64656c62 	strbtvs	r6, [r5], #-3170	; 0xc62
    9fec:	0a212121 	beq	852478 <__bss_end__+0x847ef0>
    9ff0:	00000000 	andeq	r0, r0, r0
    9ff4:	6e697270 	mcrvs	2, 3, r7, cr9, cr0, {3}
    9ff8:	203a6b74 	eorscs	r6, sl, r4, ror fp
    9ffc:	20746f6e 	rsbscs	r6, r4, lr, ror #30
    a000:	646e6168 	strbtvs	r6, [lr], #-360	; 0x168
    a004:	676e696c 	strbvs	r6, [lr, -ip, ror #18]!
    a008:	65707320 	ldrbvs	r7, [r0, #-800]!	; 0x320
    a00c:	69666963 	stmdbvs	r6!, {r0, r1, r5, r6, r8, fp, sp, lr}^
    a010:	27207265 	strcs	r7, [r0, -r5, ror #4]!
    a014:	20276325 	eorcs	r6, r7, r5, lsr #6
    a018:	63736128 	cmnvs	r3, #40, 2
    a01c:	253d6969 	ldrcs	r6, [sp, #-2409]!	; 0x969
    a020:	000a2964 	andeq	r2, sl, r4, ror #18
    a024:	494e4150 	stmdbmi	lr, {r4, r6, r8, lr}^
    a028:	73253a43 	teqvc	r5, #274432	; 0x43000
    a02c:	3a73253a 	bcc	1cd351c <__bss_end__+0x1cc8f94>
    a030:	703a6425 	eorsvc	r6, sl, r5, lsr #8
    a034:	746e6972 	strbtvc	r6, [lr], #-2418	; 0x972
    a038:	7265206b 	rsbvc	r2, r5, #107	; 0x6b
    a03c:	0a726f72 	beq	1ca5e0c <__bss_end__+0x1c9b884>
    a040:	0000000a 	andeq	r0, r0, sl
    a044:	454e4f44 	strbmi	r4, [lr, #-3908]	; 0xf44
    a048:	0a212121 	beq	8524d4 <__bss_end__+0x847f4c>
    a04c:	00000000 	andeq	r0, r0, r0

0000a050 <__FUNCTION__.4220>:
    a050:	74736166 	ldrbtvc	r6, [r3], #-358	; 0x166
    a054:	746e695f 	strbtvc	r6, [lr], #-2399	; 0x95f
    a058:	75727265 	ldrbvc	r7, [r2, #-613]!	; 0x265
    a05c:	765f7470 			; <UNDEFINED> instruction: 0x765f7470
    a060:	6f746365 	svcvs	0x00746365
    a064:	00000072 	andeq	r0, r0, r2, ror r0
    a068:	494e4150 	stmdbmi	lr, {r4, r6, r8, lr}^
    a06c:	73253a43 	teqvc	r5, #274432	; 0x43000
    a070:	3a73253a 	bcc	1cd3560 <__bss_end__+0x1cc8fd8>
    a074:	453a6425 	ldrmi	r6, [sl, #-1061]!	; 0x425
    a078:	524f5252 	subpl	r5, pc, #536870917	; 0x20000005
    a07c:	6e75203a 	mrcvs	0, 3, r2, cr5, cr10, {1}
    a080:	646e6168 	strbtvs	r6, [lr], #-360	; 0x168
    a084:	2064656c 	rsbcs	r6, r4, ip, ror #10
    a088:	65637865 	strbvs	r7, [r3, #-2149]!	; 0x865
    a08c:	6f697470 	svcvs	0x00697470
    a090:	253c206e 	ldrcs	r2, [ip, #-110]!	; 0x6e
    a094:	61203e73 	teqvs	r0, r3, ror lr
    a098:	43502074 	cmpmi	r0, #116	; 0x74
    a09c:	0a78253d 	beq	1e13598 <__bss_end__+0x1e09010>
    a0a0:	0000000a 	andeq	r0, r0, sl
    a0a4:	66617473 			; <UNDEFINED> instruction: 0x66617473
    a0a8:	72732d66 	rsbsvc	r2, r3, #6528	; 0x1980
    a0ac:	65642f63 	strbvs	r2, [r4, #-3939]!	; 0xf63
    a0b0:	6c756166 	ldfvse	f6, [r5], #-408	; 0xfffffe68
    a0b4:	61682d74 	smcvs	33492	; 0x82d4
    a0b8:	656c646e 	strbvs	r6, [ip, #-1134]!	; 0x46e
    a0bc:	61662d72 	smcvs	25298	; 0x62d2
    a0c0:	632e7473 	teqvs	lr, #1929379840	; 0x73000000
    a0c4:	00000000 	andeq	r0, r0, r0
    a0c8:	74736166 	ldrbtvc	r6, [r3], #-358	; 0x166
    a0cc:	00000000 	andeq	r0, r0, r0

0000a0d0 <__FUNCTION__.4220>:
    a0d0:	65736572 	ldrbvs	r6, [r3, #-1394]!	; 0x572
    a0d4:	65765f74 	ldrbvs	r5, [r6, #-3956]!	; 0xf74
    a0d8:	726f7463 	rsbvc	r7, pc, #1660944384	; 0x63000000
    a0dc:	00000000 	andeq	r0, r0, r0
    a0e0:	66617473 			; <UNDEFINED> instruction: 0x66617473
    a0e4:	72732d66 	rsbsvc	r2, r3, #6528	; 0x1980
    a0e8:	65642f63 	strbvs	r2, [r4, #-3939]!	; 0xf63
    a0ec:	6c756166 	ldfvse	f6, [r5], #-408	; 0xfffffe68
    a0f0:	61682d74 	smcvs	33492	; 0x82d4
    a0f4:	656c646e 	strbvs	r6, [ip, #-1134]!	; 0x46e
    a0f8:	65722d72 	ldrbvs	r2, [r2, #-3442]!	; 0xd72
    a0fc:	2e746573 	mrccs	5, 3, r6, cr4, cr3, {3}
    a100:	00000063 	andeq	r0, r0, r3, rrx
    a104:	65736572 	ldrbvs	r6, [r3, #-1394]!	; 0x572
    a108:	00000074 	andeq	r0, r0, r4, ror r0

0000a10c <__FUNCTION__.4220>:
    a10c:	65646e75 	strbvs	r6, [r4, #-3701]!	; 0xe75
    a110:	656e6966 	strbvs	r6, [lr, #-2406]!	; 0x966
    a114:	6e695f64 	cdpvs	15, 6, cr5, cr9, cr4, {3}
    a118:	75727473 	ldrbvc	r7, [r2, #-1139]!	; 0x473
    a11c:	6f697463 	svcvs	0x00697463
    a120:	65765f6e 	ldrbvs	r5, [r6, #-3950]!	; 0xf6e
    a124:	726f7463 	rsbvc	r7, pc, #1660944384	; 0x63000000
    a128:	00000000 	andeq	r0, r0, r0
    a12c:	66617473 			; <UNDEFINED> instruction: 0x66617473
    a130:	72732d66 	rsbsvc	r2, r3, #6528	; 0x1980
    a134:	65642f63 	strbvs	r2, [r4, #-3939]!	; 0xf63
    a138:	6c756166 	ldfvse	f6, [r5], #-408	; 0xfffffe68
    a13c:	61682d74 	smcvs	33492	; 0x82d4
    a140:	656c646e 	strbvs	r6, [ip, #-1134]!	; 0x46e
    a144:	6e752d72 	mrcvs	13, 3, r2, cr5, cr2, {3}
    a148:	69666564 	stmdbvs	r6!, {r2, r5, r6, r8, sl, sp, lr}^
    a14c:	2d64656e 	cfstr64cs	mvdx6, [r4, #-440]!	; 0xfffffe48
    a150:	74736e69 	ldrbtvc	r6, [r3], #-3689	; 0xe69
    a154:	0000632e 	andeq	r6, r0, lr, lsr #6
    a158:	65646e75 	strbvs	r6, [r4, #-3701]!	; 0xe75
    a15c:	656e6966 	strbvs	r6, [lr, #-2406]!	; 0x966
    a160:	6e692064 	cdpvs	0, 6, cr2, cr9, cr4, {3}
    a164:	00007473 	andeq	r7, r0, r3, ror r4

Disassembly of section .bss:

0000a168 <__bss_start__>:
    a168:	00000000 	andeq	r0, r0, r0

0000a16c <brkpt_handler0>:
    a16c:	00000000 	andeq	r0, r0, r0

0000a170 <brk_verbose_p>:
    a170:	00000000 	andeq	r0, r0, r0

0000a174 <nfaults.4398>:
    a174:	00000000 	andeq	r0, r0, r0

0000a178 <init_p.4404>:
    a178:	00000000 	andeq	r0, r0, r0

0000a17c <checker>:
    a17c:	00000000 	andeq	r0, r0, r0

0000a180 <expected_handle>:
    a180:	00000000 	andeq	r0, r0, r0

0000a184 <buf.4189>:
	...

Disassembly of section .ARM.attributes:

00000000 <.ARM.attributes>:
   0:	00002a41 	andeq	r2, r0, r1, asr #20
   4:	61656100 	cmnvs	r5, r0, lsl #2
   8:	01006962 	tsteq	r0, r2, ror #18
   c:	00000020 	andeq	r0, r0, r0, lsr #32
  10:	4b5a3605 	blmi	168d82c <__bss_end__+0x16832a4>
  14:	08070600 	stmdaeq	r7, {r9, sl}
  18:	12010901 	andne	r0, r1, #16384	; 0x4000
  1c:	15011404 	strne	r1, [r1, #-1028]	; 0x404
  20:	18031701 	stmdane	r3, {r0, r8, r9, sl, ip}
  24:	22011a01 	andcs	r1, r1, #4096	; 0x1000
  28:	Address 0x0000000000000028 is out of bounds.


Disassembly of section .comment:

00000000 <.comment>:
   0:	3a434347 	bcc	10d0d24 <__bss_end__+0x10c679c>
   4:	4e472820 	cdpmi	8, 4, cr2, cr7, cr0, {1}
   8:	34202955 	strtcc	r2, [r0], #-2389	; 0x955
   c:	332e382e 	teqcc	lr, #3014656	; 0x2e0000
  10:	43434700 	movtmi	r4, #14080	; 0x3700
  14:	3128203a 	teqcc	r8, sl, lsr r0
  18:	2e363a35 	mrccs	10, 1, r3, cr6, cr5, {1}
  1c:	2b312e33 	blcs	c4b8f0 <__bss_end__+0xc41368>
  20:	326e7673 	rsbcc	r7, lr, #120586240	; 0x7300000
  24:	33303335 	teqcc	r0, #-738197504	; 0xd4000000
  28:	62312d39 	eorsvs	r2, r1, #3648	; 0xe40
  2c:	646c6975 	strbtvs	r6, [ip], #-2421	; 0x975
  30:	36202931 			; <UNDEFINED> instruction: 0x36202931
  34:	312e332e 	teqcc	lr, lr, lsr #6
  38:	31303220 	teqcc	r0, r0, lsr #4
  3c:	32363037 	eorscc	r3, r6, #55	; 0x37
  40:	Address 0x0000000000000040 is out of bounds.


Disassembly of section .debug_info:

00000000 <.debug_info>:
       0:	00000429 	andeq	r0, r0, r9, lsr #8
       4:	00000004 	andeq	r0, r0, r4
       8:	01040000 	mrseq	r0, (UNDEF: 4)
       c:	00000143 	andeq	r0, r0, r3, asr #2
      10:	00000001 	andeq	r0, r0, r1
      14:	00004500 	andeq	r4, r0, r0, lsl #10
      18:	00802000 	addeq	r2, r0, r0
      1c:	00017800 	andeq	r7, r1, r0, lsl #16
      20:	00000000 	andeq	r0, r0, r0
      24:	05040200 	streq	r0, [r4, #-512]	; 0x200
      28:	00746e69 	rsbseq	r6, r4, r9, ror #28
      2c:	ba070403 	blt	1c1040 <__bss_end__+0x1b6ab8>
      30:	03000001 	movweq	r0, #1
      34:	00d90601 	sbcseq	r0, r9, r1, lsl #12
      38:	02030000 	andeq	r0, r3, #0
      3c:	00002605 	andeq	r2, r0, r5, lsl #12
      40:	05040300 	streq	r0, [r4, #-768]	; 0x300
      44:	000001ee 	andeq	r0, r0, lr, ror #3
      48:	e9050803 	stmdb	r5, {r0, r1, fp}
      4c:	03000001 	movweq	r0, #1
      50:	00d70801 	sbcseq	r0, r7, r1, lsl #16
      54:	02030000 	andeq	r0, r3, #0
      58:	0000fd07 	andeq	pc, r0, r7, lsl #26
      5c:	02180400 	andseq	r0, r8, #0, 8
      60:	34040000 	strcc	r0, [r4], #-0
      64:	00000068 	andeq	r0, r0, r8, rrx
      68:	b5070403 	strlt	r0, [r7, #-1027]	; 0x403
      6c:	03000001 	movweq	r0, #1
      70:	01b00708 	lslseq	r0, r8, #14
      74:	04030000 	streq	r0, [r3], #-0
      78:	0001e007 	andeq	lr, r1, r7
      7c:	08010300 	stmdaeq	r1, {r8, r9}
      80:	000000e0 	andeq	r0, r0, r0, ror #1
      84:	008a0405 	addeq	r0, sl, r5, lsl #8
      88:	7d060000 	stcvc	0, cr0, [r6, #-0]
      8c:	07000000 	streq	r0, [r0, -r0]
      90:	0000007d 	andeq	r0, r0, sp, ror r0
      94:	0000009f 	muleq	r0, pc, r0	; <UNPREDICTABLE>
      98:	00007608 	andeq	r7, r0, r8, lsl #12
      9c:	09000700 	stmdbeq	r0, {r8, r9, sl}
      a0:	000001ce 	andeq	r0, r0, lr, asr #3
      a4:	440a0334 	strmi	r0, [sl], #-820	; 0x334
      a8:	0a000001 	beq	b4 <__code_start__-0x7f4c>
      ac:	00000a3b 	andeq	r0, r0, fp, lsr sl
      b0:	01440f03 	cmpeq	r4, r3, lsl #30
      b4:	0b000000 	bleq	bc <__code_start__-0x7f44>
      b8:	12030041 	andne	r0, r3, #65	; 0x41
      bc:	0000015c 	andeq	r0, r0, ip, asr r1
      c0:	00420b04 	subeq	r0, r2, r4, lsl #22
      c4:	015c1303 	cmpeq	ip, r3, lsl #6
      c8:	0a080000 	beq	2000d0 <__bss_end__+0x1f5b48>
      cc:	00000122 	andeq	r0, r0, r2, lsr #2
      d0:	015c1603 	cmpeq	ip, r3, lsl #12
      d4:	0a0c0000 	beq	3000dc <__bss_end__+0x2f5b54>
      d8:	0000003f 	andeq	r0, r0, pc, lsr r0
      dc:	01711803 	cmneq	r1, r3, lsl #16
      e0:	0a100000 	beq	4000e8 <__bss_end__+0x3f5b60>
      e4:	000001d6 	ldrdeq	r0, [r0], -r6
      e8:	01771f03 	cmneq	r7, r3, lsl #30
      ec:	0a140000 	beq	5000f4 <__bss_end__+0x4f5b6c>
      f0:	000000c6 	andeq	r0, r0, r6, asr #1
      f4:	01773103 	cmneq	r7, r3, lsl #2
      f8:	0a180000 	beq	600100 <__bss_end__+0x5f5b78>
      fc:	000000f2 	strdeq	r0, [r0], -r2
     100:	017c3603 	cmneq	ip, r3, lsl #12
     104:	0a1c0000 	beq	70010c <__bss_end__+0x6f5b84>
     108:	000001ff 	strdeq	r0, [r0], -pc	; <UNPREDICTABLE>
     10c:	017c3a03 	cmneq	ip, r3, lsl #20
     110:	0a200000 	beq	800118 <__bss_end__+0x7f5b90>
     114:	00000030 	andeq	r0, r0, r0, lsr r0
     118:	01773f03 	cmneq	r7, r3, lsl #30
     11c:	0a240000 	beq	900124 <__bss_end__+0x8f5b9c>
     120:	000001f7 	strdeq	r0, [r0], -r7
     124:	002c4203 	eoreq	r4, ip, r3, lsl #4
     128:	0a280000 	beq	a00130 <__bss_end__+0x9f5ba8>
     12c:	000000be 	strheq	r0, [r0], -lr
     130:	002c4303 	eoreq	r4, ip, r3, lsl #6
     134:	0a2c0000 	beq	b0013c <__bss_end__+0xaf5bb4>
     138:	00000134 	andeq	r0, r0, r4, lsr r1
     13c:	002c4603 	eoreq	r4, ip, r3, lsl #12
     140:	00300000 	eorseq	r0, r0, r0
     144:	014a0405 	cmpeq	sl, r5, lsl #8
     148:	0d0c0000 	stceq	0, cr0, [ip, #-0]
     14c:	00000156 	andeq	r0, r0, r6, asr r1
     150:	0001560e 	andeq	r5, r1, lr, lsl #12
     154:	04050000 	streq	r0, [r5], #-0
     158:	0000009f 	muleq	r0, pc, r0	; <UNPREDICTABLE>
     15c:	014b0405 	cmpeq	fp, r5, lsl #8
     160:	250f0000 	strcs	r0, [pc, #-0]	; 168 <__code_start__-0x7e98>
     164:	71000000 	mrsvc	r0, (UNDEF: 0)
     168:	0e000001 	cdpeq	0, 0, cr0, cr0, cr1, {0}
     16c:	00000156 	andeq	r0, r0, r6, asr r1
     170:	62040500 	andvs	r0, r4, #0, 10
     174:	10000001 	andne	r0, r0, r1
     178:	0000002c 	andeq	r0, r0, ip, lsr #32
     17c:	00005d10 	andeq	r5, r0, r0, lsl sp
     180:	001c0400 	andseq	r0, ip, r0, lsl #8
     184:	47030000 	strmi	r0, [r3, -r0]
     188:	0000009f 	muleq	r0, pc, r0	; <UNPREDICTABLE>
     18c:	0000ac11 	andeq	sl, r0, r1, lsl ip
     190:	03c30200 	biceq	r0, r3, #0, 4
     194:	000001a4 	andeq	r0, r0, r4, lsr #3
     198:	00001712 	andeq	r1, r0, r2, lsl r7
     19c:	25c30200 	strbcs	r0, [r3, #512]	; 0x200
     1a0:	00000000 	andeq	r0, r0, r0
     1a4:	0000a613 	andeq	sl, r0, r3, lsl r6
     1a8:	20050100 	andcs	r0, r5, r0, lsl #2
     1ac:	04000080 	streq	r0, [r0], #-128	; 0x80
     1b0:	01000000 	mrseq	r0, (UNDEF: 0)
     1b4:	0001c59c 	muleq	r1, ip, r5
     1b8:	00631400 	rsbeq	r1, r3, r0, lsl #8
     1bc:	01c50501 	biceq	r0, r5, r1, lsl #10
     1c0:	50010000 	andpl	r0, r1, r0
     1c4:	81040500 	tsthi	r4, r0, lsl #10
     1c8:	13000001 	movwne	r0, #1
     1cc:	000000b8 	strheq	r0, [r0], -r8
     1d0:	80240601 	eorhi	r0, r4, r1, lsl #12
     1d4:	00040000 	andeq	r0, r4, r0
     1d8:	9c010000 	stcls	0, cr0, [r1], {-0}
     1dc:	000001ec 	andeq	r0, r0, ip, ror #3
     1e0:	01006314 	tsteq	r0, r4, lsl r3
     1e4:	0001c506 	andeq	ip, r1, r6, lsl #10
     1e8:	00500100 	subseq	r0, r0, r0, lsl #2
     1ec:	00011e13 	andeq	r1, r1, r3, lsl lr
     1f0:	28070100 	stmdacs	r7, {r8}
     1f4:	04000080 	streq	r0, [r0], #-128	; 0x80
     1f8:	01000000 	mrseq	r0, (UNDEF: 0)
     1fc:	00020d9c 	muleq	r2, ip, sp
     200:	00631400 	rsbeq	r1, r3, r0, lsl #8
     204:	01c50701 	biceq	r0, r5, r1, lsl #14
     208:	50010000 	andpl	r0, r1, r0
     20c:	003b1500 	eorseq	r1, fp, r0, lsl #10
     210:	08010000 	stmdaeq	r1, {}	; <UNPREDICTABLE>
     214:	00000025 	andeq	r0, r0, r5, lsr #32
     218:	0000802c 	andeq	r8, r0, ip, lsr #32
     21c:	00000008 	andeq	r0, r0, r8
     220:	02349c01 	eorseq	r9, r4, #256	; 0x100
     224:	63160000 	tstvs	r6, #0
     228:	c5080100 	strgt	r0, [r8, #-256]	; 0x100
     22c:	00000001 	andeq	r0, r0, r1
     230:	00000000 	andeq	r0, r0, r0
     234:	0001c717 	andeq	ip, r1, r7, lsl r7
     238:	810a0100 	mrshi	r0, (UNDEF: 26)
     23c:	34000001 	strcc	r0, [r0], #-1
     240:	6c000080 	stcvs	0, cr0, [r0], {128}	; 0x80
     244:	01000000 	mrseq	r0, (UNDEF: 0)
     248:	009e189c 	umullseq	r1, lr, ip, r8
     24c:	14010000 	strne	r0, [r1], #-0
     250:	000080a0 	andeq	r8, r0, r0, lsr #1
     254:	000000f8 	strdeq	r0, [r0], -r8
     258:	03dc9c01 	bicseq	r9, ip, #256	; 0x100
     25c:	63190000 	tstvs	r9, #0
     260:	9f190100 	svcls	0x00190100
     264:	02000000 	andeq	r0, r0, #0
     268:	6e1a4491 	cfcmpsvs	r4, mvf10, mvf1
     26c:	251a0100 	ldrcs	r0, [sl, #-256]	; 0x100
     270:	1b000000 	blne	278 <__code_start__-0x7d88>
     274:	00000127 	andeq	r0, r0, r7, lsr #2
     278:	000003dc 	ldrdeq	r0, [r0], -ip
     27c:	9a640305 	bls	1900e98 <__bss_end__+0x18f6910>
     280:	8c1c0000 	ldchi	0, cr0, [ip], {-0}
     284:	ac000001 	stcge	0, cr0, [r0], {1}
     288:	0c000080 	stceq	0, cr0, [r0], {128}	; 0x80
     28c:	01000000 	mrseq	r0, (UNDEF: 0)
     290:	00029c18 	andeq	r9, r2, r8, lsl ip
     294:	01981d00 	orrseq	r1, r8, r0, lsl #26
     298:	00000000 	andeq	r0, r0, r0
     29c:	0080ac1e 	addeq	sl, r0, lr, lsl ip
     2a0:	0003ec00 	andeq	lr, r3, r0, lsl #24
     2a4:	80c01f00 	sbchi	r1, r0, r0, lsl #30
     2a8:	02340000 	eorseq	r0, r4, #0
     2ac:	02ba0000 	adcseq	r0, sl, #0
     2b0:	01200000 	teqeq	r0, r0
     2b4:	bc910350 	ldclt	3, cr0, [r1], {80}	; 0x50
     2b8:	c81f007f 	ldmdagt	pc, {r0, r1, r2, r3, r4, r5, r6}	; <UNPREDICTABLE>
     2bc:	f3000080 	vhadd.u8	d0, d16, d0
     2c0:	cf000003 	svcgt	0x00000003
     2c4:	20000002 	andcs	r0, r0, r2
     2c8:	91035001 	tstls	r3, r1
     2cc:	1e007fbc 	mcrne	15, 0, r7, cr0, cr12, {5}
     2d0:	000080e0 	andeq	r8, r0, r0, ror #1
     2d4:	00000408 	andeq	r0, r0, r8, lsl #8
     2d8:	0080fc1f 	addeq	pc, r0, pc, lsl ip	; <UNPREDICTABLE>
     2dc:	00040f00 	andeq	r0, r4, r0, lsl #30
     2e0:	00031000 	andeq	r1, r3, r0
     2e4:	53012000 	movwpl	r2, #4096	; 0x1000
     2e8:	01204c01 	teqeq	r0, r1, lsl #24
     2ec:	64030552 	strvs	r0, [r3], #-1362	; 0x552
     2f0:	2000009a 	mulcs	r0, sl, r0
     2f4:	03055101 	movweq	r5, #20737	; 0x5101
     2f8:	00009994 	muleq	r0, r4, r9
     2fc:	05500120 	ldrbeq	r0, [r0, #-288]	; 0x120
     300:	00998003 	addseq	r8, r9, r3
     304:	7d022000 	stcvc	0, cr2, [r2, #-0]
     308:	ac030500 	cfstr32ge	mvfx0, [r3], {-0}
     30c:	00000099 	muleq	r0, r9, r0
     310:	0081001e 	addeq	r0, r1, lr, lsl r0
     314:	00042500 	andeq	r2, r4, r0, lsl #10
     318:	81041e00 	tsthi	r4, r0, lsl #28
     31c:	04080000 	streq	r0, [r8], #-0
     320:	281f0000 	ldmdacs	pc, {}	; <UNPREDICTABLE>
     324:	0f000081 	svceq	0x00000081
     328:	50000004 	andpl	r0, r0, r4
     32c:	20000003 	andcs	r0, r0, r3
     330:	4e015301 	cdpmi	3, 0, cr5, cr1, cr1, {0}
     334:	05520120 	ldrbeq	r0, [r2, #-288]	; 0x120
     338:	009a6403 	addseq	r6, sl, r3, lsl #8
     33c:	51012000 	mrspl	r2, (UNDEF: 1)
     340:	99940305 	ldmibls	r4, {r0, r2, r8, r9}
     344:	01200000 	teqeq	r0, r0
     348:	b8030550 	stmdalt	r3, {r4, r6, r8, sl}
     34c:	00000099 	muleq	r0, r9, r0
     350:	00812c1e 	addeq	r2, r1, lr, lsl ip
     354:	00042500 	andeq	r2, r4, r0, lsl #10
     358:	813c1e00 	teqhi	ip, r0, lsl #28
     35c:	04080000 	streq	r0, [r8], #-0
     360:	581f0000 	ldmdapl	pc, {}	; <UNPREDICTABLE>
     364:	0f000081 	svceq	0x00000081
     368:	9b000004 	blls	380 <__code_start__-0x7c80>
     36c:	20000003 	andcs	r0, r0, r3
     370:	08025301 	stmdaeq	r2, {r0, r8, r9, ip, lr}
     374:	52012020 	andpl	r2, r1, #32
     378:	9a640305 	bls	1900f94 <__bss_end__+0x18f6a0c>
     37c:	01200000 	teqeq	r0, r0
     380:	94030551 	strls	r0, [r3], #-1361	; 0x551
     384:	20000099 	mulcs	r0, r9, r0
     388:	03055001 	movweq	r5, #20481	; 0x5001
     38c:	00009980 	andeq	r9, r0, r0, lsl #19
     390:	007d0220 	rsbseq	r0, sp, r0, lsr #4
     394:	9a000305 	bls	fb0 <__code_start__-0x7050>
     398:	1e000000 	cdpne	0, 0, cr0, cr0, cr0, {0}
     39c:	0000815c 	andeq	r8, r0, ip, asr r1
     3a0:	00000425 	andeq	r0, r0, r5, lsr #8
     3a4:	0081641f 	addeq	r6, r1, pc, lsl r4
     3a8:	00040f00 	andeq	r0, r4, r0, lsl #30
     3ac:	0003bb00 	andeq	fp, r3, r0, lsl #22
     3b0:	50012000 	andpl	r2, r1, r0
     3b4:	9a0c0305 	bls	300fd0 <__bss_end__+0x2f6a48>
     3b8:	1f000000 	svcne	0x00000000
     3bc:	00008170 	andeq	r8, r0, r0, ror r1
     3c0:	0000040f 	andeq	r0, r0, pc, lsl #8
     3c4:	000003d2 	ldrdeq	r0, [r0], -r2
     3c8:	05500120 	ldrbeq	r0, [r0, #-288]	; 0x120
     3cc:	009a1803 	addseq	r1, sl, r3, lsl #16
     3d0:	741e0000 	ldrvc	r0, [lr], #-0
     3d4:	25000081 	strcs	r0, [r0, #-129]	; 0x81
     3d8:	00000004 	andeq	r0, r0, r4
     3dc:	00008f06 	andeq	r8, r0, r6, lsl #30
     3e0:	01102100 	tsteq	r0, r0, lsl #2
     3e4:	c2020000 	andgt	r0, r2, #0
     3e8:	00000025 	andeq	r0, r0, r5, lsr #32
     3ec:	00020b22 	andeq	r0, r2, r2, lsr #22
     3f0:	238d0500 	orrcs	r0, sp, #0, 10
     3f4:	0000003f 	andeq	r0, r0, pc, lsr r0
     3f8:	00254c03 	eoreq	r4, r5, r3, lsl #24
     3fc:	04080000 	streq	r0, [r8], #-0
     400:	c50e0000 	strgt	r0, [lr, #-0]
     404:	00000001 	andeq	r0, r0, r1
     408:	00022122 	andeq	r2, r2, r2, lsr #2
     40c:	231e0500 	tstcs	lr, #0, 10
     410:	00000574 	andeq	r0, r0, r4, ror r5
     414:	00252905 	eoreq	r2, r5, r5, lsl #18
     418:	04250000 	strteq	r0, [r5], #-0
     41c:	840e0000 	strhi	r0, [lr], #-0
     420:	24000000 	strcs	r0, [r0], #-0
     424:	00e52200 	rsceq	r2, r5, r0, lsl #4
     428:	65050000 	strvs	r0, [r5, #-0]
     42c:	000bee00 	andeq	lr, fp, r0, lsl #28
     430:	f2000400 	vshl.s8	d0, d0, d0
     434:	04000001 	streq	r0, [r0], #-1
     438:	00014301 	andeq	r4, r1, r1, lsl #6
     43c:	026c0100 	rsbeq	r0, ip, #0, 2
     440:	00450000 	subeq	r0, r5, r0
     444:	81980000 	orrshi	r0, r8, r0
     448:	03540000 	cmpeq	r4, #0
     44c:	01510000 	cmpeq	r1, r0
     450:	04020000 	streq	r0, [r2], #-0
     454:	746e6905 	strbtvc	r6, [lr], #-2309	; 0x905
     458:	07040300 	streq	r0, [r4, -r0, lsl #6]
     45c:	000001ba 			; <UNDEFINED> instruction: 0x000001ba
     460:	d9060103 	stmdble	r6, {r0, r1, r8}
     464:	03000000 	movweq	r0, #0
     468:	00260502 	eoreq	r0, r6, r2, lsl #10
     46c:	04030000 	streq	r0, [r3], #-0
     470:	0001ee05 	andeq	lr, r1, r5, lsl #28
     474:	05080300 	streq	r0, [r8, #-768]	; 0x300
     478:	000001e9 	andeq	r0, r0, r9, ror #3
     47c:	d7080103 	strle	r0, [r8, -r3, lsl #2]
     480:	03000000 	movweq	r0, #0
     484:	00fd0702 	rscseq	r0, sp, r2, lsl #14
     488:	18040000 	stmdane	r4, {}	; <UNPREDICTABLE>
     48c:	03000002 	movweq	r0, #2
     490:	00006834 	andeq	r6, r0, r4, lsr r8
     494:	07040300 	streq	r0, [r4, -r0, lsl #6]
     498:	000001b5 			; <UNDEFINED> instruction: 0x000001b5
     49c:	b0070803 	andlt	r0, r7, r3, lsl #16
     4a0:	03000001 	movweq	r0, #1
     4a4:	01e00704 	mvneq	r0, r4, lsl #14
     4a8:	04050000 	streq	r0, [r5], #-0
     4ac:	e0080103 	and	r0, r8, r3, lsl #2
     4b0:	06000000 	streq	r0, [r0], -r0
     4b4:	00008c04 	andeq	r8, r0, r4, lsl #24
     4b8:	007f0700 	rsbseq	r0, pc, r0, lsl #14
     4bc:	e4040000 	str	r0, [r4], #-0
     4c0:	02000003 	andeq	r0, r0, #3
     4c4:	00009c8a 	andeq	r9, r0, sl, lsl #25
     4c8:	a2040600 	andge	r0, r4, #0, 12
     4cc:	08000000 	stmdaeq	r0, {}	; <UNPREDICTABLE>
     4d0:	000000b7 	strheq	r0, [r0], -r7
     4d4:	0000b709 	andeq	fp, r0, r9, lsl #14
     4d8:	005d0900 	subseq	r0, sp, r0, lsl #18
     4dc:	5d090000 	stcpl	0, cr0, [r9, #-0]
     4e0:	00000000 	andeq	r0, r0, r0
     4e4:	005d0406 	subseq	r0, sp, r6, lsl #8
     4e8:	b00a0000 	andlt	r0, sl, r0
     4ec:	02000003 	andeq	r0, r0, #3
     4f0:	00005d5f 	andeq	r5, r0, pc, asr sp
     4f4:	00d90300 	sbcseq	r0, r9, r0, lsl #6
     4f8:	720b0000 	andvc	r0, fp, #0
     4fc:	02007465 	andeq	r7, r0, #1694498816	; 0x65000000
     500:	00005d5f 	andeq	r5, r0, pc, asr sp
     504:	300a0000 	andcc	r0, sl, r0
     508:	02000003 	andeq	r0, r0, #3
     50c:	00005da6 	andeq	r5, r0, r6, lsr #27
     510:	00f50300 	rscseq	r0, r5, r0, lsl #6
     514:	720b0000 	andvc	r0, fp, #0
     518:	02007465 	andeq	r7, r0, #1694498816	; 0x65000000
     51c:	00005da6 	andeq	r5, r0, r6, lsr #27
     520:	820a0000 	andhi	r0, sl, #0
     524:	02000003 	andeq	r0, r0, #3
     528:	00002c70 	andeq	r2, r0, r0, ror ip
     52c:	010f0300 	mrseq	r0, SP_hyp
     530:	720c0000 	andvc	r0, ip, #0
     534:	5d700200 	lfmpl	f0, 2, [r0, #-0]
     538:	00000000 	andeq	r0, r0, r0
     53c:	00029f0a 	andeq	r9, r2, sl, lsl #30
     540:	5d180100 	ldfpls	f0, [r8, #-0]
     544:	03000000 	movweq	r0, #0
     548:	0000012b 	andeq	r0, r0, fp, lsr #2
     54c:	7465720b 	strbtvc	r7, [r5], #-523	; 0x20b
     550:	5d180100 	ldfpls	f0, [r8, #-0]
     554:	00000000 	andeq	r0, r0, r0
     558:	00040a0d 	andeq	r0, r4, sp, lsl #20
     55c:	031e0100 	tsteq	lr, #0, 2
     560:	00000141 	andeq	r0, r0, r1, asr #2
     564:	0100760c 	tsteq	r0, ip, lsl #12
     568:	00005d1e 	andeq	r5, r0, lr, lsl sp
     56c:	e20d0000 	and	r0, sp, #0
     570:	01000002 	tsteq	r0, r2
     574:	01570326 	cmpeq	r7, r6, lsr #6
     578:	760c0000 	strvc	r0, [ip], -r0
     57c:	5d260100 	stfpls	f0, [r6, #-0]
     580:	00000000 	andeq	r0, r0, r0
     584:	0003c80d 	andeq	ip, r3, sp, lsl #16
     588:	030d0100 	movweq	r0, #53504	; 0xd100
     58c:	0000016d 	andeq	r0, r0, sp, ror #2
     590:	0100760c 	tsteq	r0, ip, lsl #12
     594:	00005d0d 	andeq	r5, r0, sp, lsl #26
     598:	620a0000 	andvs	r0, sl, #0
     59c:	02000003 	andeq	r0, r0, #3
     5a0:	00002c66 	andeq	r2, r0, r6, ror #24
     5a4:	01890300 	orreq	r0, r9, r0, lsl #6
     5a8:	1e0e0000 	cdpne	0, 0, cr0, cr14, cr0, {0}
     5ac:	02000003 	andeq	r0, r0, #3
     5b0:	00005d67 	andeq	r5, r0, r7, ror #26
     5b4:	ee0a0000 	cdp	0, 0, cr0, cr10, cr0, {0}
     5b8:	02000003 	andeq	r0, r0, #3
     5bc:	00005d56 	andeq	r5, r0, r6, asr sp
     5c0:	01a50300 			; <UNDEFINED> instruction: 0x01a50300
     5c4:	720b0000 	andvc	r0, fp, #0
     5c8:	02007465 	andeq	r7, r0, #1694498816	; 0x65000000
     5cc:	00005d56 	andeq	r5, r0, r6, asr sp
     5d0:	280a0000 	stmdacs	sl, {}	; <UNPREDICTABLE>
     5d4:	02000003 	andeq	r0, r0, #3
     5d8:	00005d63 	andeq	r5, r0, r3, ror #26
     5dc:	01c10300 	biceq	r0, r1, r0, lsl #6
     5e0:	720b0000 	andvc	r0, fp, #0
     5e4:	02007465 	andeq	r7, r0, #1694498816	; 0x65000000
     5e8:	00005d63 	andeq	r5, r0, r3, ror #26
     5ec:	8d0d0000 	stchi	0, cr0, [sp, #-0]
     5f0:	01000002 	tsteq	r0, r2
     5f4:	01d70332 	bicseq	r0, r7, r2, lsr r3
     5f8:	760c0000 	strvc	r0, [ip], -r0
     5fc:	5d320100 	ldfpls	f0, [r2, #-0]
     600:	00000000 	andeq	r0, r0, r0
     604:	0002fc0a 	andeq	pc, r2, sl, lsl #24
     608:	5d8d0100 	stfpls	f0, [sp]
     60c:	03000000 	movweq	r0, #0
     610:	000001f3 	strdeq	r0, [r0], -r3
     614:	7465720b 	strbtvc	r7, [r5], #-523	; 0x20b
     618:	5d8d0100 	stfpls	f0, [sp]
     61c:	00000000 	andeq	r0, r0, r0
     620:	0002be0d 	andeq	fp, r2, sp, lsl #28
     624:	038e0100 	orreq	r0, lr, #0, 2
     628:	00000209 	andeq	r0, r0, r9, lsl #4
     62c:	0100760c 	tsteq	r0, ip, lsl #12
     630:	00005d8e 	andeq	r5, r0, lr, lsl #27
     634:	740d0000 	strvc	r0, [sp], #-0
     638:	01000003 	tsteq	r0, r3
     63c:	021f038c 	andseq	r0, pc, #140, 6	; 0x30000002
     640:	760c0000 	strvc	r0, [ip], -r0
     644:	5d8c0100 	stfpls	f0, [ip]
     648:	00000000 	andeq	r0, r0, r0
     64c:	0002790a 	andeq	r7, r2, sl, lsl #18
     650:	2ca90200 	sfmcs	f0, 4, [r9]
     654:	03000000 	movweq	r0, #0
     658:	00000239 	andeq	r0, r0, r9, lsr r2
     65c:	0200720b 	andeq	r7, r0, #-1342177280	; 0xb0000000
     660:	00002caa 	andeq	r2, r0, sl, lsr #25
     664:	270a0000 	strcs	r0, [sl, -r0]
     668:	02000003 	andeq	r0, r0, #3
     66c:	00005d97 	muleq	r0, r7, sp
     670:	02550300 	subseq	r0, r5, #0, 6
     674:	720b0000 	andvc	r0, fp, #0
     678:	02007465 	andeq	r7, r0, #1694498816	; 0x65000000
     67c:	00005d97 	muleq	r0, r7, sp
     680:	d50f0000 	strle	r0, [pc, #-0]	; 688 <__code_start__-0x7978>
     684:	01000002 	tsteq	r0, r2
     688:	00819836 	addeq	r9, r1, r6, lsr r8
     68c:	0000b000 	andeq	fp, r0, r0
     690:	309c0100 	addscc	r0, ip, r0, lsl #2
     694:	10000004 	andne	r0, r0, r4
     698:	00000205 	andeq	r0, r0, r5, lsl #4
     69c:	007d3601 	rsbseq	r3, sp, r1, lsl #12
     6a0:	00210000 	eoreq	r0, r1, r0
     6a4:	28100000 	ldmdacs	r0, {}	; <UNPREDICTABLE>
     6a8:	01000004 	tsteq	r0, r4
     6ac:	00009136 	andeq	r9, r0, r6, lsr r1
     6b0:	00006600 	andeq	r6, r0, r0, lsl #12
     6b4:	02961100 	addseq	r1, r6, #0, 2
     6b8:	39010000 	stmdbcc	r1, {}	; <UNPREDICTABLE>
     6bc:	0000005d 	andeq	r0, r0, sp, asr r0
     6c0:	000000ab 	andeq	r0, r0, fp, lsr #1
     6c4:	00012712 	andeq	r2, r1, r2, lsl r7
     6c8:	00044000 	andeq	r4, r4, r0
     6cc:	a0030500 	andge	r0, r3, r0, lsl #10
     6d0:	1100009b 	swpne	r0, fp, [r0]	; <UNPREDICTABLE>
     6d4:	000002cc 	andeq	r0, r0, ip, asr #5
     6d8:	005d4301 	subseq	r4, sp, r1, lsl #6
     6dc:	00d70000 	sbcseq	r0, r7, r0
     6e0:	0f130000 	svceq	0x00130000
     6e4:	a0000001 	andge	r0, r0, r1
     6e8:	04000081 	streq	r0, [r0], #-129	; 0x81
     6ec:	01000000 	mrseq	r0, (UNDEF: 0)
     6f0:	0002dc39 	andeq	sp, r2, r9, lsr ip
     6f4:	81a01400 	lslhi	r1, r0, #8
     6f8:	00040000 	andeq	r0, r4, r0
     6fc:	1f150000 	svcne	0x00150000
     700:	03000001 	movweq	r0, #1
     704:	00000001 	andeq	r0, r0, r1
     708:	012b1300 	teqeq	fp, r0, lsl #6
     70c:	81a80000 			; <UNDEFINED> instruction: 0x81a80000
     710:	00040000 	andeq	r0, r4, r0
     714:	3f010000 	svccc	0x00010000
     718:	000002f9 	strdeq	r0, [r0], -r9
     71c:	00013716 	andeq	r3, r1, r6, lsl r7
     720:	00011600 	andeq	r1, r1, r0, lsl #12
     724:	0f130000 	svceq	0x00130000
     728:	ac000001 	stcge	0, cr0, [r0], {1}
     72c:	04000081 	streq	r0, [r0], #-129	; 0x81
     730:	01000000 	mrseq	r0, (UNDEF: 0)
     734:	00032041 	andeq	r2, r3, r1, asr #32
     738:	81ac1400 			; <UNDEFINED> instruction: 0x81ac1400
     73c:	00040000 	andeq	r0, r4, r0
     740:	1f150000 	svcne	0x00150000
     744:	34000001 	strcc	r0, [r0], #-1
     748:	00000001 	andeq	r0, r0, r1
     74c:	01411300 	mrseq	r1, (UNDEF: 113)
     750:	81dc0000 	bicshi	r0, ip, r0
     754:	00040000 	andeq	r0, r4, r0
     758:	46010000 	strmi	r0, [r1], -r0
     75c:	0000033d 	andeq	r0, r0, sp, lsr r3
     760:	00014d16 	andeq	r4, r1, r6, lsl sp
     764:	0000d700 	andeq	sp, r0, r0, lsl #14
     768:	2b130000 	blcs	4c0770 <__bss_end__+0x4b61e8>
     76c:	e0000001 	and	r0, r0, r1
     770:	08000081 	stmdaeq	r0, {r0, r7}
     774:	01000000 	mrseq	r0, (UNDEF: 0)
     778:	00035850 	andeq	r5, r3, r0, asr r8
     77c:	01371700 	teqeq	r7, r0, lsl #14
     780:	01ff0000 	mvnseq	r0, r0
     784:	010f1300 	mrseq	r1, SP_hyp
     788:	81e80000 	mvnhi	r0, r0
     78c:	00040000 	andeq	r0, r4, r0
     790:	52010000 	andpl	r0, r1, #0
     794:	0000037f 	andeq	r0, r0, pc, ror r3
     798:	0081e814 	addeq	lr, r1, r4, lsl r8
     79c:	00000400 	andeq	r0, r0, r0, lsl #8
     7a0:	011f1500 	tsteq	pc, r0, lsl #10
     7a4:	01520000 	cmpeq	r2, r0
     7a8:	00000000 	andeq	r0, r0, r0
     7ac:	00015713 	andeq	r5, r1, r3, lsl r7
     7b0:	00821800 	addeq	r1, r2, r0, lsl #16
     7b4:	00000800 	andeq	r0, r0, r0, lsl #16
     7b8:	99540100 	ldmdbls	r4, {r8}^
     7bc:	18000003 	stmdane	r0, {r0, r1}
     7c0:	00000163 	andeq	r0, r0, r3, ror #2
     7c4:	bc190000 	ldclt	0, cr0, [r9], {-0}
     7c8:	c6000081 	strgt	r0, [r0], -r1, lsl #1
     7cc:	1a00000b 	bne	800 <__code_start__-0x7800>
     7d0:	000081d8 	ldrdeq	r8, [r0], -r8	; <UNPREDICTABLE>
     7d4:	00000bcd 	andeq	r0, r0, sp, asr #23
     7d8:	000003db 	ldrdeq	r0, [r0], -fp
     7dc:	0253011b 	subseq	r0, r3, #-1073741818	; 0xc0000006
     7e0:	011b4108 	tsteq	fp, r8, lsl #2
     7e4:	a0030552 	andge	r0, r3, r2, asr r5
     7e8:	1b00009b 	blne	a5c <__code_start__-0x75a4>
     7ec:	03055101 	movweq	r5, #20737	; 0x5101
     7f0:	00009a6c 	andeq	r9, r0, ip, ror #20
     7f4:	0550011b 	ldrbeq	r0, [r0, #-283]	; 0x11b
     7f8:	00998003 	addseq	r8, r9, r3
     7fc:	7d021b00 	vstrvc	d1, [r2, #-0]
     800:	7c030500 	cfstr32vc	mvfx0, [r3], {-0}
     804:	0000009a 	muleq	r0, sl, r0
     808:	0081dc19 	addeq	sp, r1, r9, lsl ip
     80c:	000be300 	andeq	lr, fp, r0, lsl #6
     810:	81f81900 	mvnshi	r1, r0, lsl #18
     814:	0bc60000 	bleq	ff18081c <__bss_end__+0xff176294>
     818:	141a0000 	ldrne	r0, [sl], #-0
     81c:	cd000082 	stcgt	0, cr0, [r0, #-520]	; 0xfffffdf8
     820:	2600000b 	strcs	r0, [r0], -fp
     824:	1b000004 	blne	83c <__code_start__-0x77c4>
     828:	08025301 	stmdaeq	r2, {r0, r8, r9, ip, lr}
     82c:	52011b52 	andpl	r1, r1, #83968	; 0x14800
     830:	9ba00305 	blls	fe80144c <__bss_end__+0xfe7f6ec4>
     834:	011b0000 	tsteq	fp, r0
     838:	6c030551 	cfstr32vs	mvfx0, [r3], {81}	; 0x51
     83c:	1b00009a 	blne	aac <__code_start__-0x7554>
     840:	03055001 	movweq	r5, #20481	; 0x5001
     844:	00009980 	andeq	r9, r0, r0, lsl #19
     848:	007d021b 	rsbseq	r0, sp, fp, lsl r2
     84c:	9a7c0305 	bls	1f01468 <__bss_end__+0x1ef6ee0>
     850:	19000000 	stmdbne	r0, {}	; <UNPREDICTABLE>
     854:	00008218 	andeq	r8, r0, r8, lsl r2
     858:	00000be3 	andeq	r0, r0, r3, ror #23
     85c:	007f1c00 	rsbseq	r1, pc, r0, lsl #24
     860:	04400000 	strbeq	r0, [r0], #-0
     864:	761d0000 	ldrvc	r0, [sp], -r0
     868:	0c000000 	stceq	0, cr0, [r0], {-0}
     86c:	04300700 	ldrteq	r0, [r0], #-1792	; 0x700
     870:	580a0000 	stmdapl	sl, {}	; <UNPREDICTABLE>
     874:	02000002 	andeq	r0, r0, #2
     878:	00002c76 	andeq	r2, r0, r6, ror ip
     87c:	046c0300 	strbteq	r0, [ip], #-768	; 0x300
     880:	720b0000 	andvc	r0, fp, #0
     884:	2c770200 	lfmcs	f0, 2, [r7], #-0
     888:	1e000000 	cdpne	0, 0, cr0, cr0, cr0, {0}
     88c:	00000127 	andeq	r0, r0, r7, lsr #2
     890:	0000047c 	andeq	r0, r0, ip, ror r4
     894:	00000258 	andeq	r0, r0, r8, asr r2
     898:	007f1c00 	rsbseq	r1, pc, r0, lsl #24
     89c:	047c0000 	ldrbteq	r0, [ip], #-0
     8a0:	761d0000 	ldrvc	r0, [sp], -r0
     8a4:	13000000 	movwne	r0, #0
     8a8:	046c0700 	strbteq	r0, [ip], #-1792	; 0x700
     8ac:	300f0000 	andcc	r0, pc, r0
     8b0:	01000002 	tsteq	r0, r2
     8b4:	00824859 	addeq	r4, r2, r9, asr r8
     8b8:	0000dc00 	andeq	sp, r0, r0, lsl #24
     8bc:	b09c0100 	addslt	r0, ip, r0, lsl #2
     8c0:	1f000006 	svcne	0x00000006
     8c4:	01006370 	tsteq	r0, r0, ror r3
     8c8:	00002c59 	andeq	r2, r0, r9, asr ip
     8cc:	00017000 	andeq	r7, r1, r0
     8d0:	039f2000 	orrseq	r2, pc, #0
     8d4:	5a010000 	bpl	408dc <__bss_end__+0x36354>
     8d8:	00000025 	andeq	r0, r0, r5, lsr #32
     8dc:	a1740305 	cmnge	r4, r5, lsl #6
     8e0:	27120000 	ldrcs	r0, [r2, -r0]
     8e4:	c0000001 	andgt	r0, r0, r1
     8e8:	05000006 	streq	r0, [r0, #-6]
     8ec:	009bb003 	addseq	fp, fp, r3
     8f0:	02060e00 	andeq	r0, r6, #0, 28
     8f4:	6b010000 	blvs	408fc <__bss_end__+0x36374>
     8f8:	0000005d 	andeq	r0, r0, sp, asr r0
     8fc:	00016d13 	andeq	r6, r1, r3, lsl sp
     900:	00825400 	addeq	r5, r2, r0, lsl #8
     904:	00000400 	andeq	r0, r0, r0, lsl #8
     908:	115c0100 	cmpne	ip, r0, lsl #2
     90c:	14000005 	strne	r0, [r0], #-5
     910:	00008254 	andeq	r8, r0, r4, asr r2
     914:	00000004 	andeq	r0, r0, r4
     918:	00017d21 	andeq	r7, r1, r1, lsr #26
     91c:	00bd2200 	adcseq	r2, sp, r0, lsl #4
     920:	82540000 	subshi	r0, r4, #0
     924:	00040000 	andeq	r0, r4, r0
     928:	67020000 	strvs	r0, [r2, -r0]
     92c:	00825414 	addeq	r5, r2, r4, lsl r4
     930:	00000400 	andeq	r0, r0, r0, lsl #8
     934:	00cd2100 	sbceq	r2, sp, r0, lsl #2
     938:	00000000 	andeq	r0, r0, r0
     93c:	45130000 	ldrmi	r0, [r3, #-0]
     940:	58000004 	stmdapl	r0, {r2}
     944:	2c000082 	stccs	0, cr0, [r0], {130}	; 0x82
     948:	01000000 	mrseq	r0, (UNDEF: 0)
     94c:	0005c462 	andeq	ip, r5, r2, ror #8
     950:	82581400 	subshi	r1, r8, #0, 8
     954:	002c0000 	eoreq	r0, ip, r0
     958:	55210000 	strpl	r0, [r1, #-0]!
     95c:	23000004 	movwcs	r0, #4
     960:	0000045e 	andeq	r0, r0, lr, asr r4
     964:	9bc40305 	blls	ff101580 <__bss_end__+0xff0f6ff8>
     968:	bd130000 	ldclt	0, cr0, [r3, #-0]
     96c:	58000000 	stmdapl	r0, {}	; <UNPREDICTABLE>
     970:	04000082 	streq	r0, [r0], #-130	; 0x82
     974:	02000000 	andeq	r0, r0, #0
     978:	00056477 	andeq	r6, r5, r7, ror r4
     97c:	82581400 	subshi	r1, r8, #0, 8
     980:	00040000 	andeq	r0, r4, r0
     984:	cd150000 	ldcgt	0, cr0, [r5, #-0]
     988:	e7000000 	str	r0, [r0, -r0]
     98c:	00000001 	andeq	r0, r0, r1
     990:	00f51300 	rscseq	r1, r5, r0, lsl #6
     994:	825c0000 	subshi	r0, ip, #0
     998:	00040000 	andeq	r0, r4, r0
     99c:	78020000 	stmdavc	r2, {}	; <UNPREDICTABLE>
     9a0:	00000581 	andeq	r0, r0, r1, lsl #11
     9a4:	00010516 	andeq	r0, r1, r6, lsl r5
     9a8:	0001e700 	andeq	lr, r1, r0, lsl #14
     9ac:	6c190000 	ldcvs	0, cr0, [r9], {-0}
     9b0:	c6000082 	strgt	r0, [r0], -r2, lsl #1
     9b4:	1a00000b 	bne	9e8 <__code_start__-0x7618>
     9b8:	00008280 	andeq	r8, r0, r0, lsl #5
     9bc:	00000bcd 	andeq	r0, r0, sp, asr #23
     9c0:	000005b9 			; <UNDEFINED> instruction: 0x000005b9
     9c4:	0253011b 	subseq	r0, r3, #-1073741818	; 0xc0000006
     9c8:	011b7908 	tsteq	fp, r8, lsl #18
     9cc:	c4030552 	strgt	r0, [r3], #-1362	; 0x552
     9d0:	1b00009b 	blne	c44 <__code_start__-0x73bc>
     9d4:	03055101 	movweq	r5, #20737	; 0x5101
     9d8:	00009acc 	andeq	r9, r0, ip, asr #21
     9dc:	0550011b 	ldrbeq	r0, [r0, #-283]	; 0x11b
     9e0:	009a9403 	addseq	r9, sl, r3, lsl #8
     9e4:	84190000 	ldrhi	r0, [r9], #-0
     9e8:	e3000082 	movw	r0, #130	; 0x82
     9ec:	0000000b 	andeq	r0, r0, fp
     9f0:	01891300 	orreq	r1, r9, r0, lsl #6
     9f4:	82840000 	addhi	r0, r4, #0
     9f8:	00040000 	andeq	r0, r4, r0
     9fc:	67010000 	strvs	r0, [r1, -r0]
     a00:	000005eb 	andeq	r0, r0, fp, ror #11
     a04:	00828414 	addeq	r8, r2, r4, lsl r4
     a08:	00000400 	andeq	r0, r0, r0, lsl #8
     a0c:	01991500 	orrseq	r1, r9, r0, lsl #10
     a10:	01fa0000 	mvnseq	r0, r0
     a14:	00000000 	andeq	r0, r0, r0
     a18:	0001a513 	andeq	sl, r1, r3, lsl r5
     a1c:	0082ec00 	addeq	lr, r2, r0, lsl #24
     a20:	00000400 	andeq	r0, r0, r0, lsl #8
     a24:	0e6b0100 	poweqe	f0, f3, f0
     a28:	14000006 	strne	r0, [r0], #-6
     a2c:	000082ec 	andeq	r8, r0, ip, ror #5
     a30:	00000004 	andeq	r0, r0, r4
     a34:	0001b521 	andeq	fp, r1, r1, lsr #10
     a38:	19000000 	stmdbne	r0, {}	; <UNPREDICTABLE>
     a3c:	00008298 	muleq	r0, r8, r2
     a40:	00000bc6 	andeq	r0, r0, r6, asr #23
     a44:	0082b41a 	addeq	fp, r2, sl, lsl r4
     a48:	000bcd00 	andeq	ip, fp, r0, lsl #26
     a4c:	00065000 	andeq	r5, r6, r0
     a50:	53011b00 	movwpl	r1, #6912	; 0x1b00
     a54:	1b670802 	blne	19c2a64 <__bss_end__+0x19b84dc>
     a58:	03055201 	movweq	r5, #20993	; 0x5201
     a5c:	00009bb0 			; <UNDEFINED> instruction: 0x00009bb0
     a60:	0551011b 	ldrbeq	r0, [r1, #-283]	; 0x11b
     a64:	009a6c03 	addseq	r6, sl, r3, lsl #24
     a68:	50011b00 	andpl	r1, r1, r0, lsl #22
     a6c:	99800305 	stmibls	r0, {r0, r2, r8, r9}
     a70:	021b0000 	andseq	r0, fp, #0
     a74:	0305007d 	movweq	r0, #20605	; 0x507d
     a78:	00009adc 	ldrdeq	r9, [r0], -ip
     a7c:	82b81900 	adcshi	r1, r8, #0, 18
     a80:	0be30000 	bleq	ff8c0a88 <__bss_end__+0xff8b6500>
     a84:	cc190000 	ldcgt	0, cr0, [r9], {-0}
     a88:	c6000082 	strgt	r0, [r0], -r2, lsl #1
     a8c:	1a00000b 	bne	ac0 <__code_start__-0x7540>
     a90:	000082e8 	andeq	r8, r0, r8, ror #5
     a94:	00000bcd 	andeq	r0, r0, sp, asr #23
     a98:	0000069b 	muleq	r0, fp, r6
     a9c:	0253011b 	subseq	r0, r3, #-1073741818	; 0xc0000006
     aa0:	011b6908 	tsteq	fp, r8, lsl #18
     aa4:	b0030552 	andlt	r0, r3, r2, asr r5
     aa8:	1b00009b 	blne	d1c <__code_start__-0x72e4>
     aac:	03055101 	movweq	r5, #20737	; 0x5101
     ab0:	00009a6c 	andeq	r9, r0, ip, ror #20
     ab4:	0550011b 	ldrbeq	r0, [r0, #-283]	; 0x11b
     ab8:	00998003 	addseq	r8, r9, r3
     abc:	7d021b00 	vstrvc	d1, [r2, #-0]
     ac0:	f0030500 			; <UNDEFINED> instruction: 0xf0030500
     ac4:	0000009a 	muleq	r0, sl, r0
     ac8:	0082ec19 	addeq	lr, r2, r9, lsl ip
     acc:	000be300 	andeq	lr, fp, r0, lsl #6
     ad0:	82f82400 	rscshi	r2, r8, #0, 8
     ad4:	011b0000 	tsteq	fp, r0
     ad8:	00300150 	eorseq	r0, r0, r0, asr r1
     adc:	007f1c00 	rsbseq	r1, pc, r0, lsl #24
     ae0:	06c00000 	strbeq	r0, [r0], r0
     ae4:	761d0000 	ldrvc	r0, [sp], -r0
     ae8:	11000000 	mrsne	r0, (UNDEF: 0)
     aec:	06b00700 	ldrteq	r0, [r0], r0, lsl #14
     af0:	930f0000 	movwls	r0, #61440	; 0xf000
     af4:	01000003 	tsteq	r0, r3
     af8:	00832472 	addeq	r2, r3, r2, ror r4
     afc:	00003c00 	andeq	r3, r0, r0, lsl #24
     b00:	359c0100 	ldrcc	r0, [ip, #256]	; 0x100
     b04:	20000007 	andcs	r0, r0, r7
     b08:	000002a8 	andeq	r0, r0, r8, lsr #5
     b0c:	00257301 	eoreq	r7, r5, r1, lsl #6
     b10:	03050000 	movweq	r0, #20480	; 0x5000
     b14:	0000a178 	andeq	sl, r0, r8, ror r1
     b18:	01007625 	tsteq	r0, r5, lsr #12
     b1c:	00005d7c 	andeq	r5, r0, ip, ror sp
     b20:	13800000 	orrne	r0, r0, #0
     b24:	000001c1 	andeq	r0, r0, r1, asr #3
     b28:	00008348 	andeq	r8, r0, r8, asr #6
     b2c:	00000008 	andeq	r0, r0, r8
     b30:	07117e01 	ldreq	r7, [r1, -r1, lsl #28]
     b34:	cd170000 	ldcgt	0, cr0, [r7, #-0]
     b38:	00000001 	andeq	r0, r0, r1
     b3c:	57130080 	ldrpl	r0, [r3, -r0, lsl #1]
     b40:	50000001 	andpl	r0, r0, r1
     b44:	10000083 	andne	r0, r0, r3, lsl #1
     b48:	01000000 	mrseq	r0, (UNDEF: 0)
     b4c:	00072b80 	andeq	r2, r7, r0, lsl #23
     b50:	01631800 	cmneq	r3, r0, lsl #16
     b54:	00000000 	andeq	r0, r0, r0
     b58:	00833c19 	addeq	r3, r3, r9, lsl ip
     b5c:	000bea00 	andeq	lr, fp, r0, lsl #20
     b60:	ff0f0000 			; <UNDEFINED> instruction: 0xff0f0000
     b64:	01000003 	tsteq	r0, r3
     b68:	008360a8 	addeq	r6, r3, r8, lsr #1
     b6c:	00003400 	andeq	r3, r0, r0, lsl #8
     b70:	119c0100 	orrsne	r0, ip, r0, lsl #2
     b74:	26000008 	strcs	r0, [r0], -r8
     b78:	00000206 	andeq	r0, r0, r6, lsl #4
     b7c:	005da801 	subseq	sl, sp, r1, lsl #16
     b80:	50010000 	andpl	r0, r1, r0
     b84:	00042826 	andeq	r2, r4, r6, lsr #16
     b88:	91a80100 			; <UNDEFINED> instruction: 0x91a80100
     b8c:	01000000 	mrseq	r0, (UNDEF: 0)
     b90:	03db1151 	bicseq	r1, fp, #1073741844	; 0x40000014
     b94:	a9010000 	stmdbge	r1, {}	; <UNPREDICTABLE>
     b98:	0000005d 	andeq	r0, r0, sp, asr r0
     b9c:	00000227 	andeq	r0, r0, r7, lsr #4
     ba0:	0003a720 	andeq	sl, r3, r0, lsr #14
     ba4:	5db10100 	ldfpls	f0, [r1]
     ba8:	01000000 	mrseq	r0, (UNDEF: 0)
     bac:	01d71350 	bicseq	r1, r7, r0, asr r3
     bb0:	83600000 	cmnhi	r0, #0
     bb4:	00040000 	andeq	r0, r4, r0
     bb8:	a9010000 	stmdbge	r1, {}	; <UNPREDICTABLE>
     bbc:	000007a7 	andeq	r0, r0, r7, lsr #15
     bc0:	00836014 	addeq	r6, r3, r4, lsl r0
     bc4:	00000400 	andeq	r0, r0, r0, lsl #8
     bc8:	01e71500 	mvneq	r1, r0, lsl #10
     bcc:	02480000 	subeq	r0, r8, #0
     bd0:	00000000 	andeq	r0, r0, r0
     bd4:	0001f313 	andeq	pc, r1, r3, lsl r3	; <UNPREDICTABLE>
     bd8:	00836800 	addeq	r6, r3, r0, lsl #16
     bdc:	00000400 	andeq	r0, r0, r0, lsl #8
     be0:	c4af0100 	strtgt	r0, [pc], #256	; be8 <__code_start__-0x7418>
     be4:	16000007 	strne	r0, [r0], -r7
     be8:	000001ff 	strdeq	r0, [r0], -pc	; <UNPREDICTABLE>
     bec:	0000025b 	andeq	r0, r0, fp, asr r2
     bf0:	02091300 	andeq	r1, r9, #0, 6
     bf4:	836c0000 	cmnhi	ip, #0
     bf8:	00040000 	andeq	r0, r4, r0
     bfc:	b4010000 	strlt	r0, [r1], #-0
     c00:	000007df 	ldrdeq	r0, [r0], -pc	; <UNPREDICTABLE>
     c04:	00021527 	andeq	r1, r2, r7, lsr #10
     c08:	00500100 	subseq	r0, r0, r0, lsl #2
     c0c:	0001f313 	andeq	pc, r1, r3, lsl r3	; <UNPREDICTABLE>
     c10:	00837000 	addeq	r7, r3, r0
     c14:	00000800 	andeq	r0, r0, r0, lsl #16
     c18:	fabe0100 	blx	fef81020 <__bss_end__+0xfef76a98>
     c1c:	17000007 	strne	r0, [r0, -r7]
     c20:	000001ff 	strdeq	r0, [r0], -pc	; <UNPREDICTABLE>
     c24:	220001e7 	andcs	r0, r0, #-1073741767	; 0xc0000039
     c28:	00000157 	andeq	r0, r0, r7, asr r1
     c2c:	00008378 	andeq	r8, r0, r8, ror r3
     c30:	00000008 	andeq	r0, r0, r8
     c34:	6318bf01 	tstvs	r8, #1, 30
     c38:	00000001 	andeq	r0, r0, r1
     c3c:	420f0000 	andmi	r0, pc, #0
     c40:	01000002 	tsteq	r0, r2
     c44:	008394c4 	addeq	r9, r3, r4, asr #9
     c48:	00009800 	andeq	r9, r0, r0, lsl #16
     c4c:	449c0100 	ldrmi	r0, [ip], #256	; 0x100
     c50:	1f000009 	svcne	0x00000009
     c54:	01006370 	tsteq	r0, r0, ror r3
     c58:	00002cc4 	andeq	r2, r0, r4, asr #25
     c5c:	00026e00 	andeq	r6, r2, r0, lsl #28
     c60:	01271200 	teqeq	r7, r0, lsl #4
     c64:	09540000 	ldmdbeq	r4, {}^	; <UNPREDICTABLE>
     c68:	03050000 	movweq	r0, #20480	; 0x5000
     c6c:	00009bd8 	ldrdeq	r9, [r0], -r8
     c70:	00021f13 	andeq	r1, r2, r3, lsl pc
     c74:	0083a000 	addeq	sl, r3, r0
     c78:	00000800 	andeq	r0, r0, r0, lsl #16
     c7c:	89c60100 	stmibhi	r6, {r8}^
     c80:	14000008 	strne	r0, [r0], #-8
     c84:	000083a0 	andeq	r8, r0, r0, lsr #7
     c88:	00000008 	andeq	r0, r0, r8
     c8c:	00022f21 	andeq	r2, r2, r1, lsr #30
     c90:	00d92200 	sbcseq	r2, r9, r0, lsl #4
     c94:	83a00000 	movhi	r0, #0
     c98:	00040000 	andeq	r0, r4, r0
     c9c:	aa020000 	bge	80ca4 <__bss_end__+0x7671c>
     ca0:	0083a014 	addeq	sl, r3, r4, lsl r0
     ca4:	00000400 	andeq	r0, r0, r0, lsl #8
     ca8:	00e91500 	rsceq	r1, r9, r0, lsl #10
     cac:	02cc0000 	sbceq	r0, ip, #0
     cb0:	00000000 	andeq	r0, r0, r0
     cb4:	39130000 	ldmdbcc	r3, {}	; <UNPREDICTABLE>
     cb8:	00000002 	andeq	r0, r0, r2
     cbc:	04000084 	streq	r0, [r0], #-132	; 0x84
     cc0:	01000000 	mrseq	r0, (UNDEF: 0)
     cc4:	0008acca 	andeq	sl, r8, sl, asr #25
     cc8:	84001400 	strhi	r1, [r0], #-1024	; 0x400
     ccc:	00040000 	andeq	r0, r4, r0
     cd0:	49210000 	stmdbmi	r1!, {}	; <UNPREDICTABLE>
     cd4:	00000002 	andeq	r0, r0, r2
     cd8:	83b41900 			; <UNDEFINED> instruction: 0x83b41900
     cdc:	0bc60000 	bleq	ff180ce4 <__bss_end__+0xff17675c>
     ce0:	c81a0000 	ldmdagt	sl, {}	; <UNPREDICTABLE>
     ce4:	cd000083 	stcgt	0, cr0, [r0, #-524]	; 0xfffffdf4
     ce8:	e400000b 	str	r0, [r0], #-11
     cec:	1b000008 	blne	d14 <__code_start__-0x72ec>
     cf0:	08025301 	stmdaeq	r2, {r0, r8, r9, ip, lr}
     cf4:	52011bc7 	andpl	r1, r1, #203776	; 0x31c00
     cf8:	9bd80305 	blls	ff601914 <__bss_end__+0xff5f738c>
     cfc:	011b0000 	tsteq	fp, r0
     d00:	6c030551 	cfstr32vs	mvfx0, [r3], {81}	; 0x51
     d04:	1b00009a 	blne	f74 <__code_start__-0x708c>
     d08:	03055001 	movweq	r5, #20481	; 0x5001
     d0c:	00009b04 	andeq	r9, r0, r4, lsl #22
     d10:	83cc1900 	bichi	r1, ip, #0, 18
     d14:	0be30000 	bleq	ff8c0d1c <__bss_end__+0xff8b6794>
     d18:	e0190000 	ands	r0, r9, r0
     d1c:	c6000083 	strgt	r0, [r0], -r3, lsl #1
     d20:	1a00000b 	bne	d54 <__code_start__-0x72ac>
     d24:	000083fc 	strdeq	r8, [r0], -ip
     d28:	00000bcd 	andeq	r0, r0, sp, asr #23
     d2c:	0000092f 	andeq	r0, r0, pc, lsr #18
     d30:	0253011b 	subseq	r0, r3, #-1073741818	; 0xc0000006
     d34:	011bc808 	tsteq	fp, r8, lsl #16
     d38:	d8030552 	stmdale	r3, {r1, r4, r6, r8, sl}
     d3c:	1b00009b 	blne	fb0 <__code_start__-0x7050>
     d40:	03055101 	movweq	r5, #20737	; 0x5101
     d44:	00009a6c 	andeq	r9, r0, ip, ror #20
     d48:	0550011b 	ldrbeq	r0, [r0, #-283]	; 0x11b
     d4c:	00998003 	addseq	r8, r9, r3
     d50:	7d021b00 	vstrvc	d1, [r2, #-0]
     d54:	3c030500 	cfstr32cc	mvfx0, [r3], {-0}
     d58:	0000009b 	muleq	r0, fp, r0
     d5c:	00840019 	addeq	r0, r4, r9, lsl r0
     d60:	000be300 	andeq	lr, fp, r0, lsl #6
     d64:	840c2400 	strhi	r2, [ip], #-1024	; 0x400
     d68:	011b0000 	tsteq	fp, r0
     d6c:	00300150 	eorseq	r0, r0, r0, asr r1
     d70:	007f1c00 	rsbseq	r1, pc, r0, lsl #24
     d74:	09540000 	ldmdbeq	r4, {}^	; <UNPREDICTABLE>
     d78:	761d0000 	ldrvc	r0, [sp], -r0
     d7c:	15000000 	strne	r0, [r0, #-0]
     d80:	09440700 	stmdbeq	r4, {r8, r9, sl}^
     d84:	5f0f0000 	svcpl	0x000f0000
     d88:	01000007 	tsteq	r0, r7
     d8c:	00842ccd 	addeq	r2, r4, sp, asr #25
     d90:	00000400 	andeq	r0, r0, r0, lsl #8
     d94:	7b9c0100 	blvc	fe70119c <__bss_end__+0xfe6f6c14>
     d98:	28000009 	stmdacs	r0, {r0, r3}
     d9c:	01006370 	tsteq	r0, r0, ror r3
     da0:	00002ccd 	andeq	r2, r0, sp, asr #25
     da4:	00500100 	subseq	r0, r0, r0, lsl #2
     da8:	0002eb0f 	andeq	lr, r2, pc, lsl #22
     dac:	30d80100 	sbcscc	r0, r8, r0, lsl #2
     db0:	2c000084 	stccs	0, cr0, [r0], {132}	; 0x84
     db4:	01000000 	mrseq	r0, (UNDEF: 0)
     db8:	0009e19c 	muleq	r9, ip, r1
     dbc:	01271200 	teqeq	r7, r0, lsl #4
     dc0:	09f10000 	ldmibeq	r1!, {}^	; <UNPREDICTABLE>
     dc4:	03050000 	movweq	r0, #20480	; 0x5000
     dc8:	00009bf0 	strdeq	r9, [r0], -r0
     dcc:	00843819 	addeq	r3, r4, r9, lsl r8
     dd0:	000bc600 	andeq	ip, fp, r0, lsl #12
     dd4:	844c1a00 	strbhi	r1, [ip], #-2560	; 0xa00
     dd8:	0bcd0000 	bleq	ff340de0 <__bss_end__+0xff336858>
     ddc:	09d70000 	ldmibeq	r7, {}^	; <UNPREDICTABLE>
     de0:	011b0000 	tsteq	fp, r0
     de4:	d9080253 	stmdble	r8, {r0, r1, r4, r6, r9}
     de8:	0552011b 	ldrbeq	r0, [r2, #-283]	; 0x11b
     dec:	009bf003 	addseq	pc, fp, r3
     df0:	51011b00 	tstpl	r1, r0, lsl #22
     df4:	9a6c0305 	bls	1b01a10 <__bss_end__+0x1af7488>
     df8:	011b0000 	tsteq	fp, r0
     dfc:	4c030550 	cfstr32mi	mvfx0, [r3], {80}	; 0x50
     e00:	0000009b 	muleq	r0, fp, r0
     e04:	00845019 	addeq	r5, r4, r9, lsl r0
     e08:	000be300 	andeq	lr, fp, r0, lsl #6
     e0c:	7f1c0000 	svcvc	0x001c0000
     e10:	f1000000 	cps	#0
     e14:	1d000009 	stcne	0, cr0, [r0, #-36]	; 0xffffffdc
     e18:	00000076 	andeq	r0, r0, r6, ror r0
     e1c:	e1070010 	tst	r7, r0, lsl r0
     e20:	0f000009 	svceq	0x00000009
     e24:	0000030a 	andeq	r0, r0, sl, lsl #6
     e28:	845cdc01 	ldrbhi	sp, [ip], #-3073	; 0xc01
     e2c:	00340000 	eorseq	r0, r4, r0
     e30:	9c010000 	stcls	0, cr0, [r1], {-0}
     e34:	00000ad4 	ldrdeq	r0, [r0], -r4
     e38:	00020626 	andeq	r0, r2, r6, lsr #12
     e3c:	5ddc0100 	ldfple	f0, [ip]
     e40:	01000000 	mrseq	r0, (UNDEF: 0)
     e44:	04282650 	strteq	r2, [r8], #-1616	; 0x650
     e48:	dc010000 	stcle	0, cr0, [r1], {-0}
     e4c:	00000091 	muleq	r0, r1, r0
     e50:	db115101 	blle	45525c <__bss_end__+0x44acd4>
     e54:	01000003 	tsteq	r0, r3
     e58:	00005ddd 	ldrdeq	r5, [r0], -sp
     e5c:	0002df00 	andeq	sp, r2, r0, lsl #30
     e60:	03a72000 			; <UNDEFINED> instruction: 0x03a72000
     e64:	e5010000 	str	r0, [r1, #-0]
     e68:	0000005d 	andeq	r0, r0, sp, asr r0
     e6c:	d7135001 	ldrle	r5, [r3, -r1]
     e70:	5c000001 	stcpl	0, cr0, [r0], {1}
     e74:	04000084 	streq	r0, [r0], #-132	; 0x84
     e78:	01000000 	mrseq	r0, (UNDEF: 0)
     e7c:	000a68dd 	ldrdeq	r6, [sl], -sp
     e80:	845c1400 	ldrbhi	r1, [ip], #-1024	; 0x400
     e84:	00040000 	andeq	r0, r4, r0
     e88:	e7150000 	ldr	r0, [r5, -r0]
     e8c:	02000001 	andeq	r0, r0, #1
     e90:	00000003 	andeq	r0, r0, r3
     e94:	01f31300 	mvnseq	r1, r0, lsl #6
     e98:	84640000 	strbthi	r0, [r4], #-0
     e9c:	00040000 	andeq	r0, r4, r0
     ea0:	e3010000 	movw	r0, #4096	; 0x1000
     ea4:	00000a85 	andeq	r0, r0, r5, lsl #21
     ea8:	0001ff16 	andeq	pc, r1, r6, lsl pc	; <UNPREDICTABLE>
     eac:	00031500 	andeq	r1, r3, r0, lsl #10
     eb0:	09130000 	ldmdbeq	r3, {}	; <UNPREDICTABLE>
     eb4:	68000002 	stmdavs	r0, {r1}
     eb8:	04000084 	streq	r0, [r0], #-132	; 0x84
     ebc:	01000000 	mrseq	r0, (UNDEF: 0)
     ec0:	000aa0e8 	andeq	sl, sl, r8, ror #1
     ec4:	02152700 	andseq	r2, r5, #0, 14
     ec8:	50010000 	andpl	r0, r1, r0
     ecc:	01f31300 	mvnseq	r1, r0, lsl #6
     ed0:	846c0000 	strbthi	r0, [ip], #-0
     ed4:	00080000 	andeq	r0, r8, r0
     ed8:	f2010000 	vhadd.s8	d0, d1, d0
     edc:	00000abd 			; <UNDEFINED> instruction: 0x00000abd
     ee0:	0001ff29 	andeq	pc, r1, r9, lsr #30
     ee4:	4001e700 	andmi	lr, r1, r0, lsl #14
     ee8:	57220000 	strpl	r0, [r2, -r0]!
     eec:	74000001 	strvc	r0, [r0], #-1
     ef0:	08000084 	stmdaeq	r0, {r2, r7}
     ef4:	01000000 	mrseq	r0, (UNDEF: 0)
     ef8:	016318f3 	strdeq	r1, [r3, #-131]!	; 0xffffff7d
     efc:	00000000 	andeq	r0, r0, r0
     f00:	034a0f00 	movteq	r0, #44800	; 0xaf00
     f04:	f8010000 			; <UNDEFINED> instruction: 0xf8010000
     f08:	00008490 	muleq	r0, r0, r4
     f0c:	00000010 	andeq	r0, r0, r0, lsl r0
     f10:	0b209c01 	bleq	827f1c <__bss_end__+0x81d994>
     f14:	06260000 	strteq	r0, [r6], -r0
     f18:	01000002 	tsteq	r0, r2
     f1c:	00005df8 	strdeq	r5, [r0], -r8
     f20:	2a500100 	bcs	1401328 <__bss_end__+0x13f6da0>
     f24:	000003db 	ldrdeq	r0, [r0], -fp
     f28:	005df901 	subseq	pc, sp, r1, lsl #18
     f2c:	01e60000 	mvneq	r0, r0
     f30:	f32b0040 	vhadd.u32	q0, <illegal reg q5.5>, q0
     f34:	90000001 	andls	r0, r0, r1
     f38:	10000084 	andne	r0, r0, r4, lsl #1
     f3c:	01000000 	mrseq	r0, (UNDEF: 0)
     f40:	ff290100 			; <UNDEFINED> instruction: 0xff290100
     f44:	e6000001 	str	r0, [r0], -r1
     f48:	00004001 	andeq	r4, r0, r1
     f4c:	03b92c00 			; <UNDEFINED> instruction: 0x03b92c00
     f50:	09010000 	stmdbeq	r1, {}	; <UNPREDICTABLE>
     f54:	00002501 	andeq	r2, r0, r1, lsl #10
     f58:	0084a000 	addeq	sl, r4, r0
     f5c:	00004c00 	andeq	r4, r0, r0, lsl #24
     f60:	939c0100 	orrsls	r0, ip, #0, 2
     f64:	2d00000b 	stccs	0, cr0, [r0, #-44]	; 0xffffffd4
     f68:	01006370 	tsteq	r0, r0, ror r3
     f6c:	002c0109 	eoreq	r0, ip, r9, lsl #2
     f70:	03280000 	teqeq	r8, #0
     f74:	722d0000 	eorvc	r0, sp, #0
     f78:	09010030 	stmdbeq	r1, {r4, r5}
     f7c:	00005d01 	andeq	r5, r0, r1, lsl #26
     f80:	00036200 	andeq	r6, r3, r0, lsl #4
     f84:	03f72e00 	mvnseq	r2, #0, 28
     f88:	0a010000 	beq	40f90 <__bss_end__+0x36a08>
     f8c:	00005d01 	andeq	r5, r0, r1, lsl #26
     f90:	00039c00 	andeq	r9, r3, r0, lsl #24
     f94:	84cc1a00 	strbhi	r1, [ip], #2560	; 0xa00
     f98:	0bcd0000 	bleq	ff340fa0 <__bss_end__+0xff336a18>
     f9c:	0b7f0000 	bleq	1fc0fa4 <__bss_end__+0x1fb6a1c>
     fa0:	011b0000 	tsteq	fp, r0
     fa4:	7c030550 	cfstr32vc	mvfx0, [r3], {80}	; 0x50
     fa8:	0000009b 	muleq	r0, fp, r0
     fac:	0084dc2f 	addeq	sp, r4, pc, lsr #24
     fb0:	000bcd00 	andeq	ip, fp, r0, lsl #26
     fb4:	50011b00 	andpl	r1, r1, r0, lsl #22
     fb8:	9b880305 	blls	fe201bd4 <__bss_end__+0xfe1f764c>
     fbc:	00000000 	andeq	r0, r0, r0
     fc0:	00033920 	andeq	r3, r3, r0, lsr #18
     fc4:	910b0100 	mrsls	r0, (UNDEF: 27)
     fc8:	05000000 	streq	r0, [r0, #-0]
     fcc:	00a16803 	adceq	r6, r1, r3, lsl #16
     fd0:	02af2000 	adceq	r2, pc, #0
     fd4:	89010000 	stmdbhi	r1, {}	; <UNPREDICTABLE>
     fd8:	00000091 	muleq	r0, r1, r0
     fdc:	a16c0305 	cmnge	ip, r5, lsl #6
     fe0:	10300000 	eorsne	r0, r0, r0
     fe4:	01000001 	tsteq	r0, r1
     fe8:	000025d5 	ldrdeq	r2, [r0], -r5
     fec:	70030500 	andvc	r0, r3, r0, lsl #10
     ff0:	310000a1 	smlatbcc	r0, r1, r0, r0
     ff4:	00000221 	andeq	r0, r0, r1, lsr #4
     ff8:	74321e04 	ldrtvc	r1, [r2], #-3588	; 0xe04
     ffc:	04000005 	streq	r0, [r0], #-5
    1000:	00002529 	andeq	r2, r0, r9, lsr #10
    1004:	000be300 	andeq	lr, fp, r0, lsl #6
    1008:	00860900 	addeq	r0, r6, r0, lsl #18
    100c:	00330000 	eorseq	r0, r3, r0
    1010:	0000e531 	andeq	lr, r0, r1, lsr r5
    1014:	31650400 	cmncc	r5, r0, lsl #8
    1018:	00000413 	andeq	r0, r0, r3, lsl r4
    101c:	e3003605 	movw	r3, #1541	; 0x605
    1020:	0400000e 	streq	r0, [r0], #-14
    1024:	00048500 	andeq	r8, r4, r0, lsl #10
    1028:	43010400 	movwmi	r0, #5120	; 0x1400
    102c:	01000001 	tsteq	r0, r1
    1030:	0000043b 	andeq	r0, r0, fp, lsr r4
    1034:	00000045 	andeq	r0, r0, r5, asr #32
    1038:	00008610 	andeq	r8, r0, r0, lsl r6
    103c:	00000758 	andeq	r0, r0, r8, asr r7
    1040:	0000033c 	andeq	r0, r0, ip, lsr r3
    1044:	69050402 	stmdbvs	r5, {r1, sl}
    1048:	0300746e 	movweq	r7, #1134	; 0x46e
    104c:	01ba0704 			; <UNDEFINED> instruction: 0x01ba0704
    1050:	01030000 	mrseq	r0, (UNDEF: 3)
    1054:	0000d906 	andeq	sp, r0, r6, lsl #18
    1058:	05020300 	streq	r0, [r2, #-768]	; 0x300
    105c:	00000026 	andeq	r0, r0, r6, lsr #32
    1060:	ee050403 	cdp	4, 0, cr0, cr5, cr3, {0}
    1064:	03000001 	movweq	r0, #1
    1068:	01e90508 	mvneq	r0, r8, lsl #10
    106c:	01030000 	mrseq	r0, (UNDEF: 3)
    1070:	0000d708 	andeq	sp, r0, r8, lsl #14
    1074:	07020300 	streq	r0, [r2, -r0, lsl #6]
    1078:	000000fd 	strdeq	r0, [r0], -sp
    107c:	00021804 	andeq	r1, r2, r4, lsl #16
    1080:	68340600 	ldmdavs	r4!, {r9, sl}
    1084:	03000000 	movweq	r0, #0
    1088:	01b50704 			; <UNDEFINED> instruction: 0x01b50704
    108c:	08030000 	stmdaeq	r3, {}	; <UNPREDICTABLE>
    1090:	0001b007 	andeq	fp, r1, r7
    1094:	07040300 	streq	r0, [r4, -r0, lsl #6]
    1098:	000001e0 	andeq	r0, r0, r0, ror #3
    109c:	01030405 	tsteq	r3, r5, lsl #8
    10a0:	0000e008 	andeq	lr, r0, r8
    10a4:	8c040600 	stchi	6, cr0, [r4], {-0}
    10a8:	07000000 	streq	r0, [r0, -r0]
    10ac:	0000007f 	andeq	r0, r0, pc, ror r0
    10b0:	0003e404 	andeq	lr, r3, r4, lsl #8
    10b4:	9c8a0200 	sfmls	f0, 4, [sl], {0}
    10b8:	06000000 	streq	r0, [r0], -r0
    10bc:	0000a204 	andeq	sl, r0, r4, lsl #4
    10c0:	00b70800 	adcseq	r0, r7, r0, lsl #16
    10c4:	b7090000 	strlt	r0, [r9, -r0]
    10c8:	09000000 	stmdbeq	r0, {}	; <UNPREDICTABLE>
    10cc:	0000005d 	andeq	r0, r0, sp, asr r0
    10d0:	00005d09 	andeq	r5, r0, r9, lsl #26
    10d4:	04060000 	streq	r0, [r6], #-0
    10d8:	0000005d 	andeq	r0, r0, sp, asr r0
    10dc:	0001ce0a 	andeq	ip, r1, sl, lsl #28
    10e0:	0a073400 	beq	1ce0e8 <__bss_end__+0x1c3b60>
    10e4:	00000162 	andeq	r0, r0, r2, ror #2
    10e8:	000a3b0b 	andeq	r3, sl, fp, lsl #22
    10ec:	620f0700 	andvs	r0, pc, #0, 14
    10f0:	00000001 	andeq	r0, r0, r1
    10f4:	0700410c 	streq	r4, [r0, -ip, lsl #2]
    10f8:	00017a12 	andeq	r7, r1, r2, lsl sl
    10fc:	420c0400 	andmi	r0, ip, #0, 8
    1100:	7a130700 	bvc	4c2d08 <__bss_end__+0x4b8780>
    1104:	08000001 	stmdaeq	r0, {r0}
    1108:	0001220b 	andeq	r2, r1, fp, lsl #4
    110c:	7a160700 	bvc	582d14 <__bss_end__+0x57878c>
    1110:	0c000001 	stceq	0, cr0, [r0], {1}
    1114:	00003f0b 	andeq	r3, r0, fp, lsl #30
    1118:	8f180700 	svchi	0x00180700
    111c:	10000001 	andne	r0, r0, r1
    1120:	0001d60b 	andeq	sp, r1, fp, lsl #12
    1124:	951f0700 	ldrls	r0, [pc, #-1792]	; a2c <__code_start__-0x75d4>
    1128:	14000001 	strne	r0, [r0], #-1
    112c:	0000c60b 	andeq	ip, r0, fp, lsl #12
    1130:	95310700 	ldrls	r0, [r1, #-1792]!	; 0x700
    1134:	18000001 	stmdane	r0, {r0}
    1138:	0000f20b 	andeq	pc, r0, fp, lsl #4
    113c:	9a360700 	bls	d82d44 <__bss_end__+0xd787bc>
    1140:	1c000001 	stcne	0, cr0, [r0], {1}
    1144:	0001ff0b 	andeq	pc, r1, fp, lsl #30
    1148:	9a3a0700 	bls	e82d50 <__bss_end__+0xe787c8>
    114c:	20000001 	andcs	r0, r0, r1
    1150:	0000300b 	andeq	r3, r0, fp
    1154:	953f0700 	ldrls	r0, [pc, #-1792]!	; a5c <__code_start__-0x75a4>
    1158:	24000001 	strcs	r0, [r0], #-1
    115c:	0001f70b 	andeq	pc, r1, fp, lsl #14
    1160:	2c420700 	mcrrcs	7, 0, r0, r2, cr0
    1164:	28000000 	stmdacs	r0, {}	; <UNPREDICTABLE>
    1168:	0000be0b 	andeq	fp, r0, fp, lsl #28
    116c:	2c430700 	mcrrcs	7, 0, r0, r3, cr0
    1170:	2c000000 	stccs	0, cr0, [r0], {-0}
    1174:	0001340b 	andeq	r3, r1, fp, lsl #8
    1178:	2c460700 	mcrrcs	7, 0, r0, r6, cr0
    117c:	30000000 	andcc	r0, r0, r0
    1180:	68040600 	stmdavs	r4, {r9, sl}
    1184:	0d000001 	stceq	0, cr0, [r0, #-4]
    1188:	00017408 	andeq	r7, r1, r8, lsl #8
    118c:	01740900 	cmneq	r4, r0, lsl #18
    1190:	06000000 	streq	r0, [r0], -r0
    1194:	0000bd04 	andeq	fp, r0, r4, lsl #26
    1198:	69040600 	stmdbvs	r4, {r9, sl}
    119c:	0e000001 	cdpeq	0, 0, cr0, cr0, cr1, {0}
    11a0:	00000025 	andeq	r0, r0, r5, lsr #32
    11a4:	0000018f 	andeq	r0, r0, pc, lsl #3
    11a8:	00017409 	andeq	r7, r1, r9, lsl #8
    11ac:	04060000 	streq	r0, [r6], #-0
    11b0:	00000180 	andeq	r0, r0, r0, lsl #3
    11b4:	00002c0f 	andeq	r2, r0, pc, lsl #24
    11b8:	005d0f00 	subseq	r0, sp, r0, lsl #30
    11bc:	1c040000 	stcne	0, cr0, [r4], {-0}
    11c0:	07000000 	streq	r0, [r0, -r0]
    11c4:	0000bd47 	andeq	fp, r0, r7, asr #26
    11c8:	03301000 	teqeq	r0, #0
    11cc:	a6020000 	strge	r0, [r2], -r0
    11d0:	0000005d 	andeq	r0, r0, sp, asr r0
    11d4:	0001c603 	andeq	ip, r1, r3, lsl #12
    11d8:	65721100 	ldrbvs	r1, [r2, #-256]!	; 0x100
    11dc:	a6020074 			; <UNDEFINED> instruction: 0xa6020074
    11e0:	0000005d 	andeq	r0, r0, sp, asr r0
    11e4:	04df1000 	ldrbeq	r1, [pc], #0	; 11ec <__code_start__-0x6e14>
    11e8:	07050000 	streq	r0, [r5, -r0]
    11ec:	00000025 	andeq	r0, r0, r5, lsr #32
    11f0:	0001e203 	andeq	lr, r1, r3, lsl #4
    11f4:	04f81200 	ldrbteq	r1, [r8], #512	; 0x200
    11f8:	07050000 	streq	r0, [r5, -r0]
    11fc:	0000002c 	andeq	r0, r0, ip, lsr #32
    1200:	04621000 	strbteq	r1, [r2], #-0
    1204:	26030000 	strcs	r0, [r3], -r0
    1208:	0000005d 	andeq	r0, r0, sp, asr r0
    120c:	0001fe03 	andeq	pc, r1, r3, lsl #28
    1210:	04da1300 	ldrbeq	r1, [sl], #768	; 0x300
    1214:	27030000 	strcs	r0, [r3, -r0]
    1218:	0000005d 	andeq	r0, r0, sp, asr r0
    121c:	02791000 	rsbseq	r1, r9, #0
    1220:	a9020000 	stmdbge	r2, {}	; <UNPREDICTABLE>
    1224:	0000002c 	andeq	r0, r0, ip, lsr #32
    1228:	00021803 	andeq	r1, r2, r3, lsl #16
    122c:	00721100 	rsbseq	r1, r2, r0, lsl #2
    1230:	002caa02 	eoreq	sl, ip, r2, lsl #20
    1234:	14000000 	strne	r0, [r0], #-0
    1238:	0000041c 	andeq	r0, r0, ip, lsl r4
    123c:	86100b01 	ldrhi	r0, [r0], -r1, lsl #22
    1240:	01980000 	orrseq	r0, r8, r0
    1244:	9c010000 	stcls	0, cr0, [r1], {-0}
    1248:	00000459 	andeq	r0, r0, r9, asr r4
    124c:	0004f315 	andeq	pc, r4, r5, lsl r3	; <UNPREDICTABLE>
    1250:	b70b0100 	strlt	r0, [fp, -r0, lsl #2]
    1254:	ba000000 	blt	125c <__code_start__-0x6da4>
    1258:	16000003 	strne	r0, [r0], -r3
    125c:	01006370 	tsteq	r0, r0, ror r3
    1260:	00005d0b 	andeq	r5, r0, fp, lsl #26
    1264:	0003db00 	andeq	sp, r3, r0, lsl #22
    1268:	02061500 	andeq	r1, r6, #0, 10
    126c:	0b010000 	bleq	41274 <__bss_end__+0x36cec>
    1270:	0000005d 	andeq	r0, r0, sp, asr r0
    1274:	00000407 	andeq	r0, r0, r7, lsl #8
    1278:	00012717 	andeq	r2, r1, r7, lsl r7
    127c:	00046900 	andeq	r6, r4, r0, lsl #18
    1280:	08030500 	stmdaeq	r3, {r8, sl}
    1284:	1800009f 	stmdane	r0, {r0, r1, r2, r3, r4, r7}
    1288:	10010063 	andne	r0, r1, r3, rrx
    128c:	0000046e 	andeq	r0, r0, lr, ror #8
    1290:	00000428 	andeq	r0, r0, r8, lsr #8
    1294:	0001fe19 	andeq	pc, r1, r9, lsl lr	; <UNPREDICTABLE>
    1298:	00864400 	addeq	r4, r6, r0, lsl #8
    129c:	00000800 	andeq	r0, r0, r0, lsl #16
    12a0:	bb0d0100 	bllt	3416a8 <__bss_end__+0x337120>
    12a4:	1a000002 	bne	12b4 <__code_start__-0x6d4c>
    12a8:	00008644 	andeq	r8, r0, r4, asr #12
    12ac:	00000008 	andeq	r0, r0, r8
    12b0:	00020e1b 	andeq	r0, r2, fp, lsl lr
    12b4:	01aa1c00 			; <UNDEFINED> instruction: 0x01aa1c00
    12b8:	86440000 	strbhi	r0, [r4], -r0
    12bc:	00040000 	andeq	r0, r4, r0
    12c0:	aa020000 	bge	812c8 <__bss_end__+0x76d40>
    12c4:	0086441a 	addeq	r4, r6, sl, lsl r4
    12c8:	00000400 	andeq	r0, r0, r0, lsl #8
    12cc:	01ba1d00 			; <UNDEFINED> instruction: 0x01ba1d00
    12d0:	043b0000 	ldrteq	r0, [fp], #-0
    12d4:	00000000 	andeq	r0, r0, r0
    12d8:	441e0000 	ldrmi	r0, [lr], #-0
    12dc:	68000086 	stmdavs	r0, {r1, r2, r7}
    12e0:	f000000e 			; <UNDEFINED> instruction: 0xf000000e
    12e4:	1f000002 	svcne	0x00000002
    12e8:	3c015301 	stccc	3, cr5, [r1], {1}
    12ec:	0552011f 	ldrbeq	r0, [r2, #-287]	; 0x11f
    12f0:	009f0803 	addseq	r0, pc, r3, lsl #16
    12f4:	51011f00 	tstpl	r1, r0, lsl #30
    12f8:	9c240305 	stcls	3, cr0, [r4], #-20	; 0xffffffec
    12fc:	011f0000 	tsteq	pc, r0
    1300:	04030550 	streq	r0, [r3], #-1360	; 0x550
    1304:	1f00009c 	svcne	0x0000009c
    1308:	02007d02 	andeq	r7, r0, #2, 26	; 0x80
    130c:	20000075 	andcs	r0, r0, r5, ror r0
    1310:	00008658 	andeq	r8, r0, r8, asr r6
    1314:	00000e7e 	andeq	r0, r0, lr, ror lr
    1318:	00866c1e 	addeq	r6, r6, lr, lsl ip
    131c:	000e6800 	andeq	r6, lr, r0, lsl #16
    1320:	00032700 	andeq	r2, r3, r0, lsl #14
    1324:	53011f00 	movwpl	r1, #7936	; 0x1f00
    1328:	011f3e01 	tsteq	pc, r1, lsl #28
    132c:	08030552 	stmdaeq	r3, {r1, r4, r6, r8, sl}
    1330:	1f00009f 	svcne	0x0000009f
    1334:	03055101 	movweq	r5, #20737	; 0x5101
    1338:	00009c24 	andeq	r9, r0, r4, lsr #24
    133c:	0550011f 	ldrbeq	r0, [r0, #-287]	; 0x11f
    1340:	009b0403 	addseq	r0, fp, r3, lsl #8
    1344:	70200000 	eorvc	r0, r0, r0
    1348:	85000086 	strhi	r0, [r0, #-134]	; 0x86
    134c:	1e00000e 	cdpne	0, 0, cr0, cr0, cr14, {0}
    1350:	00008698 	muleq	r0, r8, r6
    1354:	00000e68 	andeq	r0, r0, r8, ror #28
    1358:	0000034d 	andeq	r0, r0, sp, asr #6
    135c:	0251011f 	subseq	r0, r1, #-1073741817	; 0xc0000007
    1360:	011f0075 	tsteq	pc, r5, ror r0	; <UNPREDICTABLE>
    1364:	38030550 	stmdacc	r3, {r4, r6, r8, sl}
    1368:	0000009c 	muleq	r0, ip, r0
    136c:	0086a01e 	addeq	sl, r6, lr, lsl r0
    1370:	000e8c00 	andeq	r8, lr, r0, lsl #24
    1374:	00036100 	andeq	r6, r3, r0, lsl #2
    1378:	50011f00 	andpl	r1, r1, r0, lsl #30
    137c:	00007502 	andeq	r7, r0, r2, lsl #10
    1380:	0086c421 	addeq	ip, r6, r1, lsr #8
    1384:	00037100 	andeq	r7, r3, r0, lsl #2
    1388:	50011f00 	andpl	r1, r1, r0, lsl #30
    138c:	00007402 	andeq	r7, r0, r2, lsl #8
    1390:	0086cc1e 	addeq	ip, r6, lr, lsl ip
    1394:	000e6800 	andeq	r6, lr, r0, lsl #16
    1398:	00038800 	andeq	r8, r3, r0, lsl #16
    139c:	50011f00 	andpl	r1, r1, r0, lsl #30
    13a0:	9c580305 	mrrcls	3, 0, r0, r8, cr5
    13a4:	20000000 	andcs	r0, r0, r0
    13a8:	000086e4 	andeq	r8, r0, r4, ror #13
    13ac:	00000e7e 	andeq	r0, r0, lr, ror lr
    13b0:	0087001e 	addeq	r0, r7, lr, lsl r0
    13b4:	000e6800 	andeq	r6, lr, r0, lsl #16
    13b8:	0003ca00 	andeq	ip, r3, r0, lsl #20
    13bc:	53011f00 	movwpl	r1, #7936	; 0x1f00
    13c0:	1f210802 	svcne	0x00210802
    13c4:	03055201 	movweq	r5, #20993	; 0x5201
    13c8:	00009f08 	andeq	r9, r0, r8, lsl #30
    13cc:	0551011f 	ldrbeq	r0, [r1, #-287]	; 0x11f
    13d0:	009c2403 	addseq	r2, ip, r3, lsl #8
    13d4:	50011f00 	andpl	r1, r1, r0, lsl #30
    13d8:	99800305 	stmibls	r0, {r0, r2, r8, r9}
    13dc:	021f0000 	andseq	r0, pc, #0
    13e0:	0305007d 	movweq	r0, #20605	; 0x507d
    13e4:	00009c80 	andeq	r9, r0, r0, lsl #25
    13e8:	87042000 	strhi	r2, [r4, -r0]
    13ec:	0e850000 	cdpeq	0, 8, cr0, cr5, cr0, {0}
    13f0:	381e0000 	ldmdacc	lr, {}	; <UNPREDICTABLE>
    13f4:	68000087 	stmdavs	r0, {r0, r1, r2, r7}
    13f8:	0900000e 	stmdbeq	r0, {r1, r2, r3}
    13fc:	1f000004 	svcne	0x00000004
    1400:	08025301 	stmdaeq	r2, {r0, r8, r9, ip, lr}
    1404:	52011f24 	andpl	r1, r1, #36, 30	; 0x90
    1408:	9f080305 	svcls	0x00080305
    140c:	011f0000 	tsteq	pc, r0
    1410:	24030551 	strcs	r0, [r3], #-1361	; 0x551
    1414:	1f00009c 	svcne	0x0000009c
    1418:	03055001 	movweq	r5, #20481	; 0x5001
    141c:	00009ca4 	andeq	r9, r0, r4, lsr #25
    1420:	007d021f 	rsbseq	r0, sp, pc, lsl r2
    1424:	00007502 	andeq	r7, r0, r2, lsl #10
    1428:	0087441e 	addeq	r4, r7, lr, lsl r4
    142c:	000e9d00 	andeq	r9, lr, r0, lsl #26
    1430:	00042600 	andeq	r2, r4, r0, lsl #12
    1434:	51011f00 	tstpl	r1, r0, lsl #30
    1438:	86100305 	ldrhi	r0, [r0], -r5, lsl #6
    143c:	011f0000 	tsteq	pc, r0
    1440:	00750250 	rsbseq	r0, r5, r0, asr r2
    1444:	876c2200 	strbhi	r2, [ip, -r0, lsl #4]!
    1448:	0e680000 	cdpeq	0, 6, cr0, cr8, cr0, {0}
    144c:	011f0000 	tsteq	pc, r0
    1450:	26080253 			; <UNDEFINED> instruction: 0x26080253
    1454:	0552011f 	ldrbeq	r0, [r2, #-287]	; 0x11f
    1458:	009f0803 	addseq	r0, pc, r3, lsl #16
    145c:	51011f00 	tstpl	r1, r0, lsl #30
    1460:	9c240305 	stcls	3, cr0, [r4], #-20	; 0xffffffec
    1464:	011f0000 	tsteq	pc, r0
    1468:	cc030550 	cfstr32gt	mvfx0, [r3], {80}	; 0x50
    146c:	1f00009c 	svcne	0x0000009c
    1470:	02007d02 	andeq	r7, r0, #2, 26	; 0x80
    1474:	00000075 	andeq	r0, r0, r5, ror r0
    1478:	00007f23 	andeq	r7, r0, r3, lsr #30
    147c:	00046900 	andeq	r6, r4, r0, lsl #18
    1480:	00762400 	rsbseq	r2, r6, r0, lsl #8
    1484:	00130000 	andseq	r0, r3, r0
    1488:	00045907 	andeq	r5, r4, r7, lsl #18
    148c:	9f040600 	svcls	0x00040600
    1490:	10000001 	andne	r0, r0, r1
    1494:	000004a4 	andeq	r0, r0, r4, lsr #9
    1498:	005d1405 	subseq	r1, sp, r5, lsl #8
    149c:	a8030000 	stmdage	r3, {}	; <UNPREDICTABLE>
    14a0:	12000004 	andne	r0, r0, #4
    14a4:	000004da 	ldrdeq	r0, [r0], -sl
    14a8:	005d1405 	subseq	r1, sp, r5, lsl #8
    14ac:	f8120000 			; <UNDEFINED> instruction: 0xf8120000
    14b0:	05000004 	streq	r0, [r0, #-4]
    14b4:	00002c14 	andeq	r2, r0, r4, lsl ip
    14b8:	01272500 	teqeq	r7, r0, lsl #10
    14bc:	04b80000 	ldrteq	r0, [r8], #0
    14c0:	04a40000 	strteq	r0, [r4], #0
    14c4:	23000000 	movwcs	r0, #0
    14c8:	0000007f 	andeq	r0, r0, pc, ror r0
    14cc:	000004b8 			; <UNDEFINED> instruction: 0x000004b8
    14d0:	00007624 	andeq	r7, r0, r4, lsr #12
    14d4:	07000800 	streq	r0, [r0, -r0, lsl #16]
    14d8:	000004a8 	andeq	r0, r0, r8, lsr #9
    14dc:	00048010 	andeq	r8, r4, r0, lsl r0
    14e0:	5d250400 	cfstrspl	mvf0, [r5, #-0]
    14e4:	03000000 	movweq	r0, #0
    14e8:	0000050c 	andeq	r0, r0, ip, lsl #10
    14ec:	04007826 	streq	r7, [r0], #-2086	; 0x826
    14f0:	00005d25 	andeq	r5, r0, r5, lsr #26
    14f4:	626c2600 	rsbvs	r2, ip, #0, 12
    14f8:	2c250400 	cfstrscs	mvf0, [r5], #-0
    14fc:	26000000 	strcs	r0, [r0], -r0
    1500:	04006275 	streq	r6, [r0], #-629	; 0x275
    1504:	00002c25 	andeq	r2, r0, r5, lsr #24
    1508:	01272500 	teqeq	r7, r0, lsl #10
    150c:	050c0000 	streq	r0, [ip, #-0]
    1510:	04800000 	streq	r0, [r0], #0
    1514:	6e110000 	cdpvs	0, 1, cr0, cr1, cr0, {0}
    1518:	2c280400 	cfstrscs	mvf0, [r8], #-0
    151c:	13000000 	movwne	r0, #0
    1520:	0000047b 	andeq	r0, r0, fp, ror r4
    1524:	002c2a04 	eoreq	r2, ip, r4, lsl #20
    1528:	07000000 	streq	r0, [r0, -r0]
    152c:	000004a8 	andeq	r0, r0, r8, lsr #9
    1530:	00049b10 	andeq	r9, r4, r0, lsl fp
    1534:	86180500 	ldrhi	r0, [r8], -r0, lsl #10
    1538:	03000000 	movweq	r0, #0
    153c:	0000053a 	andeq	r0, r0, sl, lsr r5
    1540:	0004da12 	andeq	sp, r4, r2, lsl sl
    1544:	5d180500 	cfldr32pl	mvfx0, [r8, #-0]
    1548:	25000000 	strcs	r0, [r0, #-0]
    154c:	00000127 	andeq	r0, r0, r7, lsr #2
    1550:	0000053a 	andeq	r0, r0, sl, lsr r5
    1554:	0000049b 	muleq	r0, fp, r4
    1558:	04a80700 	strteq	r0, [r8], #1792	; 0x700
    155c:	ea100000 	b	401564 <__bss_end__+0x3f6fdc>
    1560:	05000004 	streq	r0, [r0, #-4]
    1564:	00005d0f 	andeq	r5, r0, pc, lsl #26
    1568:	05730300 	ldrbeq	r0, [r3, #-768]!	; 0x300
    156c:	da120000 	ble	481574 <__bss_end__+0x476fec>
    1570:	05000004 	streq	r0, [r0, #-4]
    1574:	00005d0f 	andeq	r5, r0, pc, lsl #26
    1578:	04f81300 	ldrbteq	r1, [r8], #768	; 0x300
    157c:	10050000 	andne	r0, r5, r0
    1580:	0000002c 	andeq	r0, r0, ip, lsr #32
    1584:	00012725 	andeq	r2, r1, r5, lsr #14
    1588:	00057300 	andeq	r7, r5, r0, lsl #6
    158c:	0004ea00 	andeq	lr, r4, r0, lsl #20
    1590:	a8070000 	stmdage	r7, {}	; <UNPREDICTABLE>
    1594:	10000004 	andne	r0, r0, r4
    1598:	000004c7 	andeq	r0, r0, r7, asr #9
    159c:	005d1c04 	subseq	r1, sp, r4, lsl #24
    15a0:	bc030000 	stclt	0, cr0, [r3], {-0}
    15a4:	26000005 	strcs	r0, [r0], -r5
    15a8:	1c040078 	stcne	0, cr0, [r4], {120}	; 0x78
    15ac:	0000005d 	andeq	r0, r0, sp, asr r0
    15b0:	00626c26 	rsbeq	r6, r2, r6, lsr #24
    15b4:	002c1c04 	eoreq	r1, ip, r4, lsl #24
    15b8:	75260000 	strvc	r0, [r6, #-0]!
    15bc:	1c040062 	stcne	0, cr0, [r4], {98}	; 0x62
    15c0:	0000002c 	andeq	r0, r0, ip, lsr #32
    15c4:	00012725 	andeq	r2, r1, r5, lsr #14
    15c8:	0005bc00 	andeq	fp, r5, r0, lsl #24
    15cc:	0004c700 	andeq	ip, r4, r0, lsl #14
    15d0:	006e1100 	rsbeq	r1, lr, r0, lsl #2
    15d4:	002c1f04 	eoreq	r1, ip, r4, lsl #30
    15d8:	07000000 	streq	r0, [r0, -r0]
    15dc:	000004a8 	andeq	r0, r0, r8, lsr #9
    15e0:	00048927 	andeq	r8, r4, r7, lsr #18
    15e4:	2c2a0100 	stfcss	f0, [sl], #-0
    15e8:	a8000000 	stmdage	r0, {}	; <UNPREDICTABLE>
    15ec:	c8000087 	stmdagt	r0, {r0, r1, r2, r7}
    15f0:	01000004 	tsteq	r0, r4
    15f4:	000cc49c 	muleq	ip, ip, r4
    15f8:	00631600 	rsbeq	r1, r3, r0, lsl #12
    15fc:	046e2a01 	strbteq	r2, [lr], #-2561	; 0xa01
    1600:	044e0000 	strbeq	r0, [lr], #-0
    1604:	be280000 	cdplt	0, 2, cr0, cr8, cr0, {0}
    1608:	01000004 	tsteq	r0, r4
    160c:	00005d2b 	andeq	r5, r0, fp, lsr #26
    1610:	13580100 	cmpne	r8, #0, 2
    1614:	000004d0 	ldrdeq	r0, [r0], -r0	; <UNPREDICTABLE>
    1618:	005d2c01 	subseq	r2, sp, r1, lsl #24
    161c:	27170000 	ldrcs	r0, [r7, -r0]
    1620:	d4000001 	strle	r0, [r0], #-1
    1624:	0500000c 	streq	r0, [r0, #-12]
    1628:	009ef403 	addseq	pc, lr, r3, lsl #8
    162c:	01e21900 	mvneq	r1, r0, lsl #18
    1630:	87b40000 	ldrhi	r0, [r4, r0]!
    1634:	00040000 	andeq	r0, r4, r0
    1638:	2b010000 	blcs	41640 <__bss_end__+0x370b8>
    163c:	00000635 	andeq	r0, r0, r5, lsr r6
    1640:	0087b41a 	addeq	fp, r7, sl, lsl r4
    1644:	00000400 	andeq	r0, r0, r0, lsl #8
    1648:	01f21d00 	mvnseq	r1, r0, lsl #26
    164c:	047a0000 	ldrbteq	r0, [sl], #-0
    1650:	00000000 	andeq	r0, r0, r0
    1654:	00047419 	andeq	r7, r4, r9, lsl r4
    1658:	0087b800 	addeq	fp, r7, r0, lsl #16
    165c:	00000800 	andeq	r0, r0, r0, lsl #16
    1660:	b32c0100 	teqlt	ip, #0, 2
    1664:	29000006 	stmdbcs	r0, {r1, r2}
    1668:	0000048f 	andeq	r0, r0, pc, lsl #9
    166c:	04842a10 	streq	r2, [r4], #2576	; 0xa10
    1670:	047a0000 	ldrbteq	r0, [sl], #-0
    1674:	b81a0000 	ldmdalt	sl, {}	; <UNPREDICTABLE>
    1678:	08000087 	stmdaeq	r0, {r0, r1, r2, r7}
    167c:	2b000000 	blcs	1684 <__code_start__-0x697c>
    1680:	0000049a 	muleq	r0, sl, r4
    1684:	9f1c0305 	svcls	0x001c0305
    1688:	bd1c0000 	ldclt	0, cr0, [ip, #-0]
    168c:	b8000004 	stmdalt	r0, {r2}
    1690:	04000087 	streq	r0, [r0], #-135	; 0x87
    1694:	05000000 	streq	r0, [r0, #-0]
    1698:	04e02916 	strbteq	r2, [r0], #2326	; 0x916
    169c:	29040000 	stmdbcs	r4, {}	; <UNPREDICTABLE>
    16a0:	000004d6 	ldrdeq	r0, [r0], -r6
    16a4:	04cd2a00 	strbeq	r2, [sp], #2560	; 0xa00
    16a8:	047a0000 	ldrbteq	r0, [sl], #-0
    16ac:	b81a0000 	ldmdalt	sl, {}	; <UNPREDICTABLE>
    16b0:	04000087 	streq	r0, [r0], #-135	; 0x87
    16b4:	2c000000 	stccs	0, cr0, [r0], {-0}
    16b8:	000004f7 	strdeq	r0, [r0], -r7
    16bc:	05002c05 	streq	r2, [r0, #-3077]	; 0xc05
    16c0:	2b1f0000 	blcs	7c16c8 <__bss_end__+0x7b7140>
    16c4:	000004ea 	andeq	r0, r0, sl, ror #9
    16c8:	9f280305 	svcls	0x00280305
    16cc:	00000000 	andeq	r0, r0, r0
    16d0:	11190000 	tstne	r9, r0
    16d4:	a4000005 	strge	r0, [r0], #-5
    16d8:	10000088 	andne	r0, r0, r8, lsl #1
    16dc:	01000001 	tsteq	r0, r1
    16e0:	00080b4e 	andeq	r0, r8, lr, asr #22
    16e4:	05212a00 	streq	r2, [r1, #-2560]!	; 0xa00
    16e8:	048d0000 	streq	r0, [sp], #0
    16ec:	a41a0000 	ldrge	r0, [sl], #-0
    16f0:	10000088 	andne	r0, r0, r8, lsl #1
    16f4:	2b000001 	blcs	1700 <__code_start__-0x6900>
    16f8:	0000052c 	andeq	r0, r0, ip, lsr #10
    16fc:	9f340305 	svcls	0x00340305
    1700:	3f190000 	svccc	0x00190000
    1704:	a4000005 	strge	r0, [r0], #-5
    1708:	6c000088 	stcvs	0, cr0, [r0], {136}	; 0x88
    170c:	05000000 	streq	r0, [r0, #-0]
    1710:	0007c119 	andeq	ip, r7, r9, lsl r1
    1714:	054f2a00 	strbeq	r2, [pc, #-2560]	; d1c <__code_start__-0x72e4>
    1718:	048d0000 	streq	r0, [sp], #0
    171c:	a41a0000 	ldrge	r0, [sl], #-0
    1720:	6c000088 	stcvs	0, cr0, [r0], {136}	; 0x88
    1724:	1b000000 	blne	172c <__code_start__-0x68d4>
    1728:	0000055a 	andeq	r0, r0, sl, asr r5
    172c:	0005652b 	andeq	r6, r5, fp, lsr #10
    1730:	40030500 	andmi	r0, r3, r0, lsl #10
    1734:	1900009f 	stmdbne	r0, {r0, r1, r2, r3, r4, r7}
    1738:	00000578 	andeq	r0, r0, r8, ror r5
    173c:	000088a4 	andeq	r8, r0, r4, lsr #17
    1740:	00000004 	andeq	r0, r0, r4
    1744:	075c1005 	ldrbeq	r1, [ip, -r5]
    1748:	9b290000 	blls	a41750 <__bss_end__+0xa371c8>
    174c:	04000005 	streq	r0, [r0], #-5
    1750:	00059129 	andeq	r9, r5, r9, lsr #2
    1754:	882a0000 	stmdahi	sl!, {}	; <UNPREDICTABLE>
    1758:	8d000005 	stchi	0, cr0, [r0, #-20]	; 0xffffffec
    175c:	1a000004 	bne	1774 <__code_start__-0x688c>
    1760:	000088a4 	andeq	r8, r0, r4, lsr #17
    1764:	00000004 	andeq	r0, r0, r4
    1768:	0005b22c 	andeq	fp, r5, ip, lsr #4
    176c:	a52b0500 	strge	r0, [fp, #-1280]!	; 0x500
    1770:	05000005 	streq	r0, [r0, #-5]
    1774:	009f4c03 	addseq	r4, pc, r3, lsl #24
    1778:	19000000 	stmdbne	r0, {}	; <UNPREDICTABLE>
    177c:	000001c6 	andeq	r0, r0, r6, asr #3
    1780:	000088a8 	andeq	r8, r0, r8, lsr #17
    1784:	0000003c 	andeq	r0, r0, ip, lsr r0
    1788:	07751105 	ldrbeq	r1, [r5, -r5, lsl #2]!
    178c:	d62d0000 	strtle	r0, [sp], -r0
    1790:	00000001 	andeq	r0, r0, r1
    1794:	0088f020 	addeq	pc, r8, r0, lsr #32
    1798:	000e7e00 	andeq	r7, lr, r0, lsl #28
    179c:	890c1e00 	stmdbhi	ip, {r9, sl, fp, ip}
    17a0:	0e680000 	cdpeq	0, 6, cr0, cr8, cr0, {0}
    17a4:	07b60000 	ldreq	r0, [r6, r0]!
    17a8:	011f0000 	tsteq	pc, r0
    17ac:	1f410153 	svcne	0x00410153
    17b0:	03055201 	movweq	r5, #20993	; 0x5201
    17b4:	00009f40 	andeq	r9, r0, r0, asr #30
    17b8:	0551011f 	ldrbeq	r0, [r1, #-287]	; 0x11f
    17bc:	009e0003 	addseq	r0, lr, r3
    17c0:	50011f00 	andpl	r1, r1, r0, lsl #30
    17c4:	99800305 	stmibls	r0, {r0, r2, r8, r9}
    17c8:	021f0000 	andseq	r0, pc, #0
    17cc:	0305007d 	movweq	r0, #20605	; 0x507d
    17d0:	00009e0c 	andeq	r9, r0, ip, lsl #28
    17d4:	89102000 	ldmdbhi	r0, {sp}
    17d8:	0e850000 	cdpeq	0, 8, cr0, cr5, cr0, {0}
    17dc:	00000000 	andeq	r0, r0, r0
    17e0:	00898c20 	addeq	r8, r9, r0, lsr #24
    17e4:	000e7e00 	andeq	r7, lr, r0, lsl #28
    17e8:	89a41e00 	stmibhi	r4!, {r9, sl, fp, ip}
    17ec:	0e680000 	cdpeq	0, 6, cr0, cr8, cr0, {0}
    17f0:	08000000 	stmdaeq	r0, {}	; <UNPREDICTABLE>
    17f4:	011f0000 	tsteq	pc, r0
    17f8:	21080253 	tstcs	r8, r3, asr r2
    17fc:	0552011f 	ldrbeq	r0, [r2, #-287]	; 0x11f
    1800:	009f3403 	addseq	r3, pc, r3, lsl #8
    1804:	51011f00 	tstpl	r1, r0, lsl #30
    1808:	9e000305 	cdpls	3, 0, cr0, cr0, cr5, {0}
    180c:	011f0000 	tsteq	pc, r0
    1810:	20030550 	andcs	r0, r3, r0, asr r5
    1814:	1f00009e 	svcne	0x0000009e
    1818:	02007d02 	andeq	r7, r0, #2, 26	; 0x80
    181c:	20000078 	andcs	r0, r0, r8, ror r0
    1820:	000089a8 	andeq	r8, r0, r8, lsr #19
    1824:	00000e85 	andeq	r0, r0, r5, lsl #29
    1828:	e2190000 	ands	r0, r9, #0
    182c:	c0000001 	andgt	r0, r0, r1
    1830:	04000089 	streq	r0, [r0], #-137	; 0x89
    1834:	01000000 	mrseq	r0, (UNDEF: 0)
    1838:	0008324f 	andeq	r3, r8, pc, asr #4
    183c:	89c01a00 	stmibhi	r0, {r9, fp, ip}^
    1840:	00040000 	andeq	r0, r4, r0
    1844:	f21d0000 	vhadd.s16	d0, d13, d0
    1848:	a0000001 	andge	r0, r0, r1
    184c:	00000004 	andeq	r0, r0, r4
    1850:	05111900 	ldreq	r1, [r1, #-2304]	; 0x900
    1854:	89c40000 	stmibhi	r4, {}^	; <UNPREDICTABLE>
    1858:	01100000 	tsteq	r0, r0
    185c:	4f010000 	svcmi	0x00010000
    1860:	0000098a 	andeq	r0, r0, sl, lsl #19
    1864:	0005212a 	andeq	r2, r5, sl, lsr #2
    1868:	0004a000 	andeq	sl, r4, r0
    186c:	89c41a00 	stmibhi	r4, {r9, fp, ip}^
    1870:	01100000 	tsteq	r0, r0
    1874:	2c2b0000 	stccs	0, cr0, [fp], #-0
    1878:	05000005 	streq	r0, [r0, #-5]
    187c:	009f3403 	addseq	r3, pc, r3, lsl #8
    1880:	053f1900 	ldreq	r1, [pc, #-2304]!	; f88 <__code_start__-0x7078>
    1884:	89c40000 	stmibhi	r4, {}^	; <UNPREDICTABLE>
    1888:	006c0000 	rsbeq	r0, ip, r0
    188c:	19050000 	stmdbne	r5, {}	; <UNPREDICTABLE>
    1890:	00000940 	andeq	r0, r0, r0, asr #18
    1894:	00054f2a 	andeq	r4, r5, sl, lsr #30
    1898:	0004a000 	andeq	sl, r4, r0
    189c:	89c41a00 	stmibhi	r4, {r9, fp, ip}^
    18a0:	006c0000 	rsbeq	r0, ip, r0
    18a4:	5a1b0000 	bpl	6c18ac <__bss_end__+0x6b7324>
    18a8:	2b000005 	blcs	18c4 <__code_start__-0x673c>
    18ac:	00000565 	andeq	r0, r0, r5, ror #10
    18b0:	9f400305 	svcls	0x00400305
    18b4:	78190000 	ldmdavc	r9, {}	; <UNPREDICTABLE>
    18b8:	c4000005 	strgt	r0, [r0], #-5
    18bc:	04000089 	streq	r0, [r0], #-137	; 0x89
    18c0:	05000000 	streq	r0, [r0, #-0]
    18c4:	0008db10 	andeq	sp, r8, r0, lsl fp
    18c8:	059b2900 	ldreq	r2, [fp, #2304]	; 0x900
    18cc:	29040000 	stmdbcs	r4, {}	; <UNPREDICTABLE>
    18d0:	00000591 	muleq	r0, r1, r5
    18d4:	05882a00 	streq	r2, [r8, #2560]	; 0xa00
    18d8:	04a00000 	strteq	r0, [r0], #0
    18dc:	c41a0000 	ldrgt	r0, [sl], #-0
    18e0:	04000089 	streq	r0, [r0], #-137	; 0x89
    18e4:	2c000000 	stccs	0, cr0, [r0], {-0}
    18e8:	000005b2 			; <UNDEFINED> instruction: 0x000005b2
    18ec:	05a52b05 	streq	r2, [r5, #2821]!	; 0xb05
    18f0:	03050000 	movweq	r0, #20480	; 0x5000
    18f4:	00009f4c 	andeq	r9, r0, ip, asr #30
    18f8:	c6190000 	ldrgt	r0, [r9], -r0
    18fc:	c8000001 	stmdagt	r0, {r0}
    1900:	3c000089 	stccc	0, cr0, [r0], {137}	; 0x89
    1904:	05000000 	streq	r0, [r0, #-0]
    1908:	0008f411 	andeq	pc, r8, r1, lsl r4	; <UNPREDICTABLE>
    190c:	01d62d00 	bicseq	r2, r6, r0, lsl #26
    1910:	20000000 	andcs	r0, r0, r0
    1914:	00008a10 	andeq	r8, r0, r0, lsl sl
    1918:	00000e7e 	andeq	r0, r0, lr, ror lr
    191c:	008a2c1e 	addeq	r2, sl, lr, lsl ip
    1920:	000e6800 	andeq	r6, lr, r0, lsl #16
    1924:	00093500 	andeq	r3, r9, r0, lsl #10
    1928:	53011f00 	movwpl	r1, #7936	; 0x1f00
    192c:	011f4101 	tsteq	pc, r1, lsl #2
    1930:	40030552 	andmi	r0, r3, r2, asr r5
    1934:	1f00009f 	svcne	0x0000009f
    1938:	03055101 	movweq	r5, #20737	; 0x5101
    193c:	00009e00 	andeq	r9, r0, r0, lsl #28
    1940:	0550011f 	ldrbeq	r0, [r0, #-287]	; 0x11f
    1944:	00998003 	addseq	r8, r9, r3
    1948:	7d021f00 	stcvc	15, cr1, [r2, #-0]
    194c:	0c030500 	cfstr32eq	mvfx0, [r3], {-0}
    1950:	0000009e 	muleq	r0, lr, r0
    1954:	008a3020 	addeq	r3, sl, r0, lsr #32
    1958:	000e8500 	andeq	r8, lr, r0, lsl #10
    195c:	20000000 	andcs	r0, r0, r0
    1960:	00008aac 	andeq	r8, r0, ip, lsr #21
    1964:	00000e7e 	andeq	r0, r0, lr, ror lr
    1968:	008ac41e 	addeq	ip, sl, lr, lsl r4
    196c:	000e6800 	andeq	r6, lr, r0, lsl #16
    1970:	00097f00 	andeq	r7, r9, r0, lsl #30
    1974:	53011f00 	movwpl	r1, #7936	; 0x1f00
    1978:	1f210802 	svcne	0x00210802
    197c:	03055201 	movweq	r5, #20993	; 0x5201
    1980:	00009f34 	andeq	r9, r0, r4, lsr pc
    1984:	0551011f 	ldrbeq	r0, [r1, #-287]	; 0x11f
    1988:	009e0003 	addseq	r0, lr, r3
    198c:	50011f00 	andpl	r1, r1, r0, lsl #30
    1990:	9e200305 	cdpls	3, 2, cr0, cr0, cr5, {0}
    1994:	021f0000 	andseq	r0, pc, #0
    1998:	7502007d 	strvc	r0, [r2, #-125]	; 0x7d
    199c:	c8200000 	stmdagt	r0!, {}	; <UNPREDICTABLE>
    19a0:	8500008a 	strhi	r0, [r0, #-138]	; 0x8a
    19a4:	0000000e 	andeq	r0, r0, lr
    19a8:	01e21900 	mvneq	r1, r0, lsl #18
    19ac:	8ad40000 	bhi	ff5019b4 <__bss_end__+0xff4f742c>
    19b0:	00040000 	andeq	r0, r4, r0
    19b4:	4f010000 	svcmi	0x00010000
    19b8:	000009ad 	andeq	r0, r0, sp, lsr #19
    19bc:	008ad41a 	addeq	sp, sl, sl, lsl r4
    19c0:	00000400 	andeq	r0, r0, r0, lsl #8
    19c4:	01f21b00 	mvnseq	r1, r0, lsl #22
    19c8:	00000000 	andeq	r0, r0, r0
    19cc:	00053f19 	andeq	r3, r5, r9, lsl pc
    19d0:	008ae800 	addeq	lr, sl, r0, lsl #16
    19d4:	00006c00 	andeq	r6, r0, r0, lsl #24
    19d8:	8b530100 	blhi	14c1de0 <__bss_end__+0x14b7858>
    19dc:	2a00000a 	bcs	1a0c <__code_start__-0x65f4>
    19e0:	0000054f 	andeq	r0, r0, pc, asr #10
    19e4:	000004b3 			; <UNDEFINED> instruction: 0x000004b3
    19e8:	008ae81a 	addeq	lr, sl, sl, lsl r8
    19ec:	00006c00 	andeq	r6, r0, r0, lsl #24
    19f0:	055a1b00 	ldrbeq	r1, [sl, #-2816]	; 0xb00
    19f4:	652b0000 	strvs	r0, [fp, #-0]!
    19f8:	05000005 	streq	r0, [r0, #-5]
    19fc:	009f4003 	addseq	r4, pc, r3
    1a00:	05781900 	ldrbeq	r1, [r8, #-2304]!	; 0x900
    1a04:	8ae80000 	bhi	ffa01a0c <__bss_end__+0xff9f7484>
    1a08:	00040000 	andeq	r0, r4, r0
    1a0c:	10050000 	andne	r0, r5, r0
    1a10:	00000a26 	andeq	r0, r0, r6, lsr #20
    1a14:	00059b29 	andeq	r9, r5, r9, lsr #22
    1a18:	91290400 	teqls	r9, r0, lsl #8
    1a1c:	00000005 	andeq	r0, r0, r5
    1a20:	0005882a 	andeq	r8, r5, sl, lsr #16
    1a24:	0004b300 	andeq	fp, r4, r0, lsl #6
    1a28:	8ae81a00 	bhi	ffa08230 <__bss_end__+0xff9fdca8>
    1a2c:	00040000 	andeq	r0, r4, r0
    1a30:	b22c0000 	eorlt	r0, ip, #0
    1a34:	05000005 	streq	r0, [r0, #-5]
    1a38:	0005a52b 	andeq	sl, r5, fp, lsr #10
    1a3c:	4c030500 	cfstr32mi	mvfx0, [r3], {-0}
    1a40:	0000009f 	muleq	r0, pc, r0	; <UNPREDICTABLE>
    1a44:	01c61900 	biceq	r1, r6, r0, lsl #18
    1a48:	8aec0000 	bhi	ffb01a50 <__bss_end__+0xffaf74c8>
    1a4c:	003c0000 	eorseq	r0, ip, r0
    1a50:	11050000 	mrsne	r0, (UNDEF: 5)
    1a54:	00000a3f 	andeq	r0, r0, pc, lsr sl
    1a58:	0001d62d 	andeq	sp, r1, sp, lsr #12
    1a5c:	34200000 	strtcc	r0, [r0], #-0
    1a60:	7e00008b 	cdpvc	0, 0, cr0, cr0, cr11, {4}
    1a64:	1e00000e 	cdpne	0, 0, cr0, cr0, cr14, {0}
    1a68:	00008b50 	andeq	r8, r0, r0, asr fp
    1a6c:	00000e68 	andeq	r0, r0, r8, ror #28
    1a70:	00000a80 	andeq	r0, r0, r0, lsl #21
    1a74:	0153011f 	cmpeq	r3, pc, lsl r1
    1a78:	52011f41 	andpl	r1, r1, #260	; 0x104
    1a7c:	9f400305 	svcls	0x00400305
    1a80:	011f0000 	tsteq	pc, r0
    1a84:	00030551 	andeq	r0, r3, r1, asr r5
    1a88:	1f00009e 	svcne	0x0000009e
    1a8c:	03055001 	movweq	r5, #20481	; 0x5001
    1a90:	00009980 	andeq	r9, r0, r0, lsl #19
    1a94:	007d021f 	rsbseq	r0, sp, pc, lsl r2
    1a98:	9e0c0305 	cdpls	3, 0, cr0, cr12, cr5, {0}
    1a9c:	20000000 	andcs	r0, r0, r0
    1aa0:	00008b54 	andeq	r8, r0, r4, asr fp
    1aa4:	00000e85 	andeq	r0, r0, r5, lsl #29
    1aa8:	e2190000 	ands	r0, r9, #0
    1aac:	54000001 	strpl	r0, [r0], #-1
    1ab0:	0400008b 	streq	r0, [r0], #-139	; 0x8b
    1ab4:	01000000 	mrseq	r0, (UNDEF: 0)
    1ab8:	000ab253 	andeq	fp, sl, r3, asr r2
    1abc:	8b541a00 	blhi	15082c4 <__bss_end__+0x14fdd3c>
    1ac0:	00040000 	andeq	r0, r4, r0
    1ac4:	f21d0000 	vhadd.s16	d0, d13, d0
    1ac8:	c6000001 	strgt	r0, [r0], -r1
    1acc:	00000004 	andeq	r0, r0, r4
    1ad0:	053f1900 	ldreq	r1, [pc, #-2304]!	; 11d8 <__code_start__-0x6e28>
    1ad4:	8b580000 	blhi	1601adc <__bss_end__+0x15f7554>
    1ad8:	006c0000 	rsbeq	r0, ip, r0
    1adc:	53010000 	movwpl	r0, #4096	; 0x1000
    1ae0:	00000b90 	muleq	r0, r0, fp
    1ae4:	00054f2a 	andeq	r4, r5, sl, lsr #30
    1ae8:	0004c600 	andeq	ip, r4, r0, lsl #12
    1aec:	8b581a00 	blhi	16082f4 <__bss_end__+0x15fdd6c>
    1af0:	006c0000 	rsbeq	r0, ip, r0
    1af4:	5a1b0000 	bpl	6c1afc <__bss_end__+0x6b7574>
    1af8:	2b000005 	blcs	1b14 <__code_start__-0x64ec>
    1afc:	00000565 	andeq	r0, r0, r5, ror #10
    1b00:	9f400305 	svcls	0x00400305
    1b04:	78190000 	ldmdavc	r9, {}	; <UNPREDICTABLE>
    1b08:	58000005 	stmdapl	r0, {r0, r2}
    1b0c:	0400008b 	streq	r0, [r0], #-139	; 0x8b
    1b10:	05000000 	streq	r0, [r0, #-0]
    1b14:	000b2b10 	andeq	r2, fp, r0, lsl fp
    1b18:	059b2900 	ldreq	r2, [fp, #2304]	; 0x900
    1b1c:	29040000 	stmdbcs	r4, {}	; <UNPREDICTABLE>
    1b20:	00000591 	muleq	r0, r1, r5
    1b24:	05882a00 	streq	r2, [r8, #2560]	; 0xa00
    1b28:	04c60000 	strbeq	r0, [r6], #0
    1b2c:	581a0000 	ldmdapl	sl, {}	; <UNPREDICTABLE>
    1b30:	0400008b 	streq	r0, [r0], #-139	; 0x8b
    1b34:	2c000000 	stccs	0, cr0, [r0], {-0}
    1b38:	000005b2 			; <UNDEFINED> instruction: 0x000005b2
    1b3c:	05a52b05 	streq	r2, [r5, #2821]!	; 0xb05
    1b40:	03050000 	movweq	r0, #20480	; 0x5000
    1b44:	00009f4c 	andeq	r9, r0, ip, asr #30
    1b48:	c6190000 	ldrgt	r0, [r9], -r0
    1b4c:	5c000001 	stcpl	0, cr0, [r0], {1}
    1b50:	3c00008b 	stccc	0, cr0, [r0], {139}	; 0x8b
    1b54:	05000000 	streq	r0, [r0, #-0]
    1b58:	000b4411 	andeq	r4, fp, r1, lsl r4
    1b5c:	01d62d00 	bicseq	r2, r6, r0, lsl #26
    1b60:	20000000 	andcs	r0, r0, r0
    1b64:	00008ba4 	andeq	r8, r0, r4, lsr #23
    1b68:	00000e7e 	andeq	r0, r0, lr, ror lr
    1b6c:	008bc01e 	addeq	ip, fp, lr, lsl r0
    1b70:	000e6800 	andeq	r6, lr, r0, lsl #16
    1b74:	000b8500 	andeq	r8, fp, r0, lsl #10
    1b78:	53011f00 	movwpl	r1, #7936	; 0x1f00
    1b7c:	011f4101 	tsteq	pc, r1, lsl #2
    1b80:	40030552 	andmi	r0, r3, r2, asr r5
    1b84:	1f00009f 	svcne	0x0000009f
    1b88:	03055101 	movweq	r5, #20737	; 0x5101
    1b8c:	00009e00 	andeq	r9, r0, r0, lsl #28
    1b90:	0550011f 	ldrbeq	r0, [r0, #-287]	; 0x11f
    1b94:	00998003 	addseq	r8, r9, r3
    1b98:	7d021f00 	stcvc	15, cr1, [r2, #-0]
    1b9c:	0c030500 	cfstr32eq	mvfx0, [r3], {-0}
    1ba0:	0000009e 	muleq	r0, lr, r0
    1ba4:	008bc420 	addeq	ip, fp, r0, lsr #8
    1ba8:	000e8500 	andeq	r8, lr, r0, lsl #10
    1bac:	21000000 	mrscs	r0, (UNDEF: 0)
    1bb0:	000087f0 	strdeq	r8, [r0], -r0
    1bb4:	00000ba0 	andeq	r0, r0, r0, lsr #23
    1bb8:	0250011f 	subseq	r0, r0, #-1073741817	; 0xc0000007
    1bbc:	1e000074 	mcrne	0, 0, r0, cr0, cr4, {3}
    1bc0:	00008818 	andeq	r8, r0, r8, lsl r8
    1bc4:	00000e68 	andeq	r0, r0, r8, ror #28
    1bc8:	00000bc6 	andeq	r0, r0, r6, asr #23
    1bcc:	0253011f 	subseq	r0, r3, #-1073741817	; 0xc0000007
    1bd0:	011f3308 	tsteq	pc, r8, lsl #6
    1bd4:	00790252 	rsbseq	r0, r9, r2, asr r2
    1bd8:	0251011f 	subseq	r0, r1, #-1073741817	; 0xc0000007
    1bdc:	011f007a 	tsteq	pc, sl, ror r0	; <UNPREDICTABLE>
    1be0:	007b0250 	rsbseq	r0, fp, r0, asr r2
    1be4:	88241e00 	stmdahi	r4!, {r9, sl, fp, ip}
    1be8:	0e9d0000 	cdpeq	0, 9, cr0, cr13, cr0, {0}
    1bec:	0bdf0000 	bleq	ff7c1bf4 <__bss_end__+0xff7b766c>
    1bf0:	011f0000 	tsteq	pc, r0
    1bf4:	00750251 	rsbseq	r0, r5, r1, asr r2
    1bf8:	0150011f 	cmpeq	r0, pc, lsl r1
    1bfc:	4c1e0030 	ldcmi	0, cr0, [lr], {48}	; 0x30
    1c00:	b3000088 	movwlt	r0, #136	; 0x88
    1c04:	f900000e 			; <UNDEFINED> instruction: 0xf900000e
    1c08:	1f00000b 	svcne	0x0000000b
    1c0c:	74025201 	strvc	r5, [r2], #-513	; 0x201
    1c10:	50011f00 	andpl	r1, r1, r0, lsl #30
    1c14:	00007702 	andeq	r7, r0, r2, lsl #14
    1c18:	00885821 	addeq	r5, r8, r1, lsr #16
    1c1c:	000c0900 	andeq	r0, ip, r0, lsl #18
    1c20:	50011f00 	andpl	r1, r1, r0, lsl #30
    1c24:	00007402 	andeq	r7, r0, r2, lsl #8
    1c28:	0088701e 	addeq	r7, r8, lr, lsl r0
    1c2c:	000e6800 	andeq	r6, lr, r0, lsl #16
    1c30:	000c2000 	andeq	r2, ip, r0
    1c34:	50011f00 	andpl	r1, r1, r0, lsl #30
    1c38:	9d840305 	stcls	3, cr0, [r4, #20]
    1c3c:	1e000000 	cdpne	0, 0, cr0, cr0, cr0, {0}
    1c40:	000088a4 	andeq	r8, r0, r4, lsr #17
    1c44:	00000e68 	andeq	r0, r0, r8, ror #28
    1c48:	00000c37 	andeq	r0, r0, r7, lsr ip
    1c4c:	0550011f 	ldrbeq	r0, [r0, #-287]	; 0x11f
    1c50:	009dcc03 	addseq	ip, sp, r3, lsl #24
    1c54:	c01e0000 	andsgt	r0, lr, r0
    1c58:	68000089 	stmdavs	r0, {r0, r3, r7}
    1c5c:	5400000e 	strpl	r0, [r0], #-14
    1c60:	1f00000c 	svcne	0x0000000c
    1c64:	78025201 	stmdavc	r2, {r0, r9, ip, lr}
    1c68:	50011f00 	andpl	r1, r1, r0, lsl #30
    1c6c:	9e440305 	cdpls	3, 4, cr0, cr4, cr5, {0}
    1c70:	1e000000 	cdpne	0, 0, cr0, cr0, cr0, {0}
    1c74:	00008ae0 	andeq	r8, r0, r0, ror #21
    1c78:	00000e68 	andeq	r0, r0, r8, ror #28
    1c7c:	00000c6b 	andeq	r0, r0, fp, ror #24
    1c80:	0550011f 	ldrbeq	r0, [r0, #-287]	; 0x11f
    1c84:	009e6003 	addseq	r6, lr, r3
    1c88:	e81e0000 	ldmda	lr, {}	; <UNPREDICTABLE>
    1c8c:	8c00008a 	stchi	0, cr0, [r0], {138}	; 0x8a
    1c90:	7e00000e 	cdpvc	0, 0, cr0, cr0, cr14, {0}
    1c94:	1f00000c 	svcne	0x0000000c
    1c98:	30015001 	andcc	r5, r1, r1
    1c9c:	8bd02000 	blhi	ff409ca4 <__bss_end__+0xff3ff71c>
    1ca0:	0e7e0000 	cdpeq	0, 7, cr0, cr14, cr0, {0}
    1ca4:	ec1e0000 	ldc	0, cr0, [lr], {-0}
    1ca8:	6800008b 	stmdavs	r0, {r0, r1, r3, r7}
    1cac:	ba00000e 	blt	1cec <__code_start__-0x6314>
    1cb0:	1f00000c 	svcne	0x0000000c
    1cb4:	08025301 	stmdaeq	r2, {r0, r8, r9, ip, lr}
    1cb8:	52011f53 	andpl	r1, r1, #332	; 0x14c
    1cbc:	1f007902 	svcne	0x00007902
    1cc0:	7a025101 	bvc	960cc <__bss_end__+0x8bb44>
    1cc4:	50011f00 	andpl	r1, r1, r0, lsl #30
    1cc8:	99800305 	stmibls	r0, {r0, r2, r8, r9}
    1ccc:	021f0000 	andseq	r0, pc, #0
    1cd0:	0305007d 	movweq	r0, #20605	; 0x507d
    1cd4:	00009e78 	andeq	r9, r0, r8, ror lr
    1cd8:	8bf02000 	blhi	ffc09ce0 <__bss_end__+0xffbff758>
    1cdc:	0e850000 	cdpeq	0, 8, cr0, cr5, cr0, {0}
    1ce0:	23000000 	movwcs	r0, #0
    1ce4:	0000007f 	andeq	r0, r0, pc, ror r0
    1ce8:	00000cd4 	ldrdeq	r0, [r0], -r4
    1cec:	00007624 	andeq	r7, r0, r4, lsr #12
    1cf0:	07001100 	streq	r1, [r0, -r0, lsl #2]
    1cf4:	00000cc4 	andeq	r0, r0, r4, asr #25
    1cf8:	0004ad27 	andeq	sl, r4, r7, lsr #26
    1cfc:	2c5f0100 	ldfcse	f0, [pc], {-0}
    1d00:	70000000 	andvc	r0, r0, r0
    1d04:	8400008c 	strhi	r0, [r0], #-140	; 0x8c
    1d08:	01000000 	mrseq	r0, (UNDEF: 0)
    1d0c:	000d9d9c 	muleq	sp, ip, sp
    1d10:	00631600 	rsbeq	r1, r3, r0, lsl #12
    1d14:	046e5f01 	strbteq	r5, [lr], #-3841	; 0xf01
    1d18:	04d90000 	ldrbeq	r0, [r9], #0
    1d1c:	69180000 	ldmdbvs	r8, {}	; <UNPREDICTABLE>
    1d20:	2c610100 	stfcse	f0, [r1], #-0
    1d24:	f7000000 			; <UNDEFINED> instruction: 0xf7000000
    1d28:	17000004 	strne	r0, [r0, -r4]
    1d2c:	00000127 	andeq	r0, r0, r7, lsr #2
    1d30:	00000dad 	andeq	r0, r0, sp, lsr #27
    1d34:	9ee00305 	cdpls	3, 14, cr0, cr0, cr5, {0}
    1d38:	8c210000 	stchi	0, cr0, [r1], #-0
    1d3c:	2b00008c 	blcs	1f74 <__code_start__-0x608c>
    1d40:	1f00000d 	svcne	0x0000000d
    1d44:	74025001 	strvc	r5, [r2], #-1
    1d48:	98210000 	stmdals	r1!, {}	; <UNPREDICTABLE>
    1d4c:	3b00008c 	blcc	1f84 <__code_start__-0x607c>
    1d50:	1f00000d 	svcne	0x0000000d
    1d54:	74025001 	strvc	r5, [r2], #-1
    1d58:	a4210000 	strtge	r0, [r1], #-0
    1d5c:	4b00008c 	blmi	1f94 <__code_start__-0x606c>
    1d60:	1f00000d 	svcne	0x0000000d
    1d64:	74025001 	strvc	r5, [r2], #-1
    1d68:	b0210000 	eorlt	r0, r1, r0
    1d6c:	5b00008c 	blpl	1fa4 <__code_start__-0x605c>
    1d70:	1f00000d 	svcne	0x0000000d
    1d74:	74025001 	strvc	r5, [r2], #-1
    1d78:	bc200000 	stclt	0, cr0, [r0], #-0
    1d7c:	7e00008c 	cdpvc	0, 0, cr0, cr0, cr12, {4}
    1d80:	1e00000e 	cdpne	0, 0, cr0, cr0, cr14, {0}
    1d84:	00008cd0 	ldrdeq	r8, [r0], -r0
    1d88:	00000e68 	andeq	r0, r0, r8, ror #28
    1d8c:	00000d93 	muleq	r0, r3, sp
    1d90:	0253011f 	subseq	r0, r3, #-1073741817	; 0xc0000007
    1d94:	011f6808 	tsteq	pc, r8, lsl #16
    1d98:	e0030552 	and	r0, r3, r2, asr r5
    1d9c:	1f00009e 	svcne	0x0000009e
    1da0:	03055101 	movweq	r5, #20737	; 0x5101
    1da4:	00009c24 	andeq	r9, r0, r4, lsr #24
    1da8:	0550011f 	ldrbeq	r0, [r0, #-287]	; 0x11f
    1dac:	009ea403 	addseq	sl, lr, r3, lsl #8
    1db0:	d4200000 	strtle	r0, [r0], #-0
    1db4:	8500008c 	strhi	r0, [r0, #-140]	; 0x8c
    1db8:	0000000e 	andeq	r0, r0, lr
    1dbc:	00007f23 	andeq	r7, r0, r3, lsr #30
    1dc0:	000dad00 	andeq	sl, sp, r0, lsl #26
    1dc4:	00762400 	rsbseq	r2, r6, r0, lsl #8
    1dc8:	00100000 	andseq	r0, r0, r0
    1dcc:	000d9d07 	andeq	r9, sp, r7, lsl #26
    1dd0:	04301400 	ldrteq	r1, [r0], #-1024	; 0x400
    1dd4:	77010000 	strvc	r0, [r1, -r0]
    1dd8:	00008cf4 	strdeq	r8, [r0], -r4
    1ddc:	00000028 	andeq	r0, r0, r8, lsr #32
    1de0:	0dd39c01 	ldcleq	12, cr9, [r3, #4]
    1de4:	632e0000 	teqvs	lr, #0
    1de8:	6e770100 	rpwvss	f0, f7, f0
    1dec:	01000004 	tsteq	r0, r4
    1df0:	3f2f0050 	svccc	0x002f0050
    1df4:	01000000 	mrseq	r0, (UNDEF: 0)
    1df8:	00002582 	andeq	r2, r0, r2, lsl #11
    1dfc:	008d1c00 	addeq	r1, sp, r0, lsl #24
    1e00:	00004c00 	andeq	r4, r0, r0, lsl #24
    1e04:	3b9c0100 	blcc	fe70220c <__bss_end__+0xfe6f7c84>
    1e08:	1600000e 	strne	r0, [r0], -lr
    1e0c:	82010063 	andhi	r0, r1, #99	; 0x63
    1e10:	0000046e 	andeq	r0, r0, lr, ror #8
    1e14:	00000516 	andeq	r0, r0, r6, lsl r5
    1e18:	008d2820 	addeq	r2, sp, r0, lsr #16
    1e1c:	000edf00 	andeq	sp, lr, r0, lsl #30
    1e20:	8d301e00 	ldchi	14, cr1, [r0, #-0]
    1e24:	0db20000 	ldceq	0, cr0, [r2]
    1e28:	0e160000 	cdpeq	0, 1, cr0, cr6, cr0, {0}
    1e2c:	011f0000 	tsteq	pc, r0
    1e30:	00740250 	rsbseq	r0, r4, r0, asr r2
    1e34:	8d381e00 	ldchi	14, cr1, [r8, #-0]
    1e38:	0cd90000 	ldcleq	0, cr0, [r9], {0}
    1e3c:	0e2a0000 	cdpeq	0, 2, cr0, cr10, cr0, {0}
    1e40:	011f0000 	tsteq	pc, r0
    1e44:	00740250 	rsbseq	r0, r4, r0, asr r2
    1e48:	8d482200 	sfmhi	f2, 2, [r8, #-0]
    1e4c:	05c10000 	strbeq	r0, [r1]
    1e50:	011f0000 	tsteq	pc, r0
    1e54:	00740250 	rsbseq	r0, r4, r0, asr r2
    1e58:	ce280000 	cdpgt	0, 2, cr0, cr8, cr0, {0}
    1e5c:	01000001 	tsteq	r0, r1
    1e60:	00046e06 	andeq	r6, r4, r6, lsl #28
    1e64:	7c030500 	cfstr32vc	mvfx0, [r3], {-0}
    1e68:	280000a1 	stmdacs	r0, {r0, r5, r7}
    1e6c:	0000046b 	andeq	r0, r0, fp, ror #8
    1e70:	007d0801 	rsbseq	r0, sp, r1, lsl #16
    1e74:	03050000 	movweq	r0, #20480	; 0x5000
    1e78:	0000a180 	andeq	sl, r0, r0, lsl #3
    1e7c:	00011030 	andeq	r1, r1, r0, lsr r0
    1e80:	25c20200 	strbcs	r0, [r2, #512]	; 0x200
    1e84:	31000000 	mrscc	r0, (UNDEF: 0)
    1e88:	00000574 	andeq	r0, r0, r4, ror r5
    1e8c:	00252908 	eoreq	r2, r5, r8, lsl #18
    1e90:	0e7e0000 	cdpeq	0, 7, cr0, cr14, cr0, {0}
    1e94:	86090000 	strhi	r0, [r9], -r0
    1e98:	32000000 	andcc	r0, r0, #0
    1e9c:	02213300 	eoreq	r3, r1, #0, 6
    1ea0:	1e080000 	cdpne	0, 0, cr0, cr8, cr0, {0}
    1ea4:	0000e533 	andeq	lr, r0, r3, lsr r5
    1ea8:	34650800 	strbtcc	r0, [r5], #-2048	; 0x800
    1eac:	0000034a 	andeq	r0, r0, sl, asr #6
    1eb0:	0e9de302 	cdpeq	3, 9, cr14, cr13, cr2, {0}
    1eb4:	5d090000 	stcpl	0, cr0, [r9, #-0]
    1eb8:	00000000 	andeq	r0, r0, r0
    1ebc:	00030a34 	andeq	r0, r3, r4, lsr sl
    1ec0:	b3d90200 	bicslt	r0, r9, #0, 4
    1ec4:	0900000e 	stmdbeq	r0, {r1, r2, r3}
    1ec8:	0000005d 	andeq	r0, r0, sp, asr r0
    1ecc:	00009109 	andeq	r9, r0, r9, lsl #2
    1ed0:	4e340000 	cdpmi	0, 3, cr0, cr4, cr0, {0}
    1ed4:	02000004 	andeq	r0, r0, #4
    1ed8:	000ecef3 	strdeq	ip, [lr], -r3
    1edc:	005d0900 	subseq	r0, sp, r0, lsl #18
    1ee0:	ce090000 	cdpgt	0, 0, cr0, cr9, cr0, {0}
    1ee4:	0900000e 	stmdbeq	r0, {r1, r2, r3}
    1ee8:	0000007d 	andeq	r0, r0, sp, ror r0
    1eec:	d4040600 	strle	r0, [r4], #-1536	; 0x600
    1ef0:	0800000e 	stmdaeq	r0, {r1, r2, r3}
    1ef4:	00000edf 	ldrdeq	r0, [r0], -pc	; <UNPREDICTABLE>
    1ef8:	00007d09 	andeq	r7, r0, r9, lsl #26
    1efc:	93330000 	teqls	r3, #0
    1f00:	02000003 	andeq	r0, r0, #3
    1f04:	01910090 			; <UNDEFINED> instruction: 0x01910090
    1f08:	00040000 	andeq	r0, r4, r0
    1f0c:	00000720 	andeq	r0, r0, r0, lsr #14
    1f10:	051a0104 	ldreq	r0, [sl, #-260]	; 0x104
    1f14:	0c010000 	stceq	0, cr0, [r1], {-0}
    1f18:	85000005 	strhi	r0, [r0, #-5]
    1f1c:	68000005 	stmdavs	r0, {r0, r2}
    1f20:	5800008d 	stmdapl	r0, {r0, r2, r3, r7}
    1f24:	a3000000 	movwge	r0, #0
    1f28:	02000005 	andeq	r0, r0, #5
    1f2c:	000004fd 	strdeq	r0, [r0], -sp
    1f30:	00302802 	eorseq	r2, r0, r2, lsl #16
    1f34:	7b030000 	blvc	c1f3c <__bss_end__+0xb79b4>
    1f38:	04000005 	streq	r0, [r0], #-5
    1f3c:	00470003 	subeq	r0, r7, r3
    1f40:	cb040000 	blgt	101f48 <__bss_end__+0xf79c0>
    1f44:	47000005 	strmi	r0, [r0, -r5]
    1f48:	00000000 	andeq	r0, r0, r0
    1f4c:	02040500 	andeq	r0, r4, #0, 10
    1f50:	0000057d 	andeq	r0, r0, sp, ror r5
    1f54:	00256202 	eoreq	r6, r5, r2, lsl #4
    1f58:	04060000 	streq	r0, [r6], #-0
    1f5c:	746e6905 	strbtvc	r6, [lr], #-2309	; 0x905
    1f60:	07040700 	streq	r0, [r4, -r0, lsl #14]
    1f64:	000001ba 			; <UNDEFINED> instruction: 0x000001ba
    1f68:	d9060107 	stmdble	r6, {r0, r1, r2, r8}
    1f6c:	07000000 	streq	r0, [r0, -r0]
    1f70:	00260502 	eoreq	r0, r6, r2, lsl #10
    1f74:	04070000 	streq	r0, [r7], #-0
    1f78:	0001ee05 	andeq	lr, r1, r5, lsl #28
    1f7c:	05080700 	streq	r0, [r8, #-1792]	; 0x700
    1f80:	000001e9 	andeq	r0, r0, r9, ror #3
    1f84:	d7080107 	strle	r0, [r8, -r7, lsl #2]
    1f88:	07000000 	streq	r0, [r0, -r0]
    1f8c:	00fd0702 	rscseq	r0, sp, r2, lsl #14
    1f90:	04070000 	streq	r0, [r7], #-0
    1f94:	0001b507 	andeq	fp, r1, r7, lsl #10
    1f98:	07080700 	streq	r0, [r8, -r0, lsl #14]
    1f9c:	000001b0 			; <UNDEFINED> instruction: 0x000001b0
    1fa0:	e0070407 	and	r0, r7, r7, lsl #8
    1fa4:	08000001 	stmdaeq	r0, {r0}
    1fa8:	0000a704 	andeq	sl, r0, r4, lsl #14
    1fac:	08010700 	stmdaeq	r1, {r8, r9, sl}
    1fb0:	000000e0 	andeq	r0, r0, r0, ror #1
    1fb4:	00b40408 	adcseq	r0, r4, r8, lsl #8
    1fb8:	a7090000 	strge	r0, [r9, -r0]
    1fbc:	0a000000 	beq	1fc4 <__code_start__-0x603c>
    1fc0:	00000574 	andeq	r0, r0, r4, ror r5
    1fc4:	00540601 	subseq	r0, r4, r1, lsl #12
    1fc8:	8d680000 	stclhi	0, cr0, [r8, #-0]
    1fcc:	00580000 	subseq	r0, r8, r0
    1fd0:	9c010000 	stcls	0, cr0, [r1], {-0}
    1fd4:	00000143 	andeq	r0, r0, r3, asr #2
    1fd8:	746d660b 	strbtvc	r6, [sp], #-1547	; 0x60b
    1fdc:	ae060100 	adfges	f0, f6, f0
    1fe0:	02000000 	andeq	r0, r0, #0
    1fe4:	0d0c7091 	stceq	0, cr7, [ip, #-580]	; 0xfffffdbc
    1fe8:	00667562 	rsbeq	r7, r6, r2, ror #10
    1fec:	01430801 	cmpeq	r3, r1, lsl #16
    1ff0:	03050000 	movweq	r0, #20480	; 0x5000
    1ff4:	0000a184 	andeq	sl, r0, r4, lsl #3
    1ff8:	000a870e 	andeq	r8, sl, lr, lsl #14
    1ffc:	49090100 	stmdbmi	r9, {r8}
    2000:	02000000 	andeq	r0, r0, #0
    2004:	730f5c91 	movwvc	r5, #64657	; 0xfc91
    2008:	0c01007a 	stceq	0, cr0, [r1], {122}	; 0x7a
    200c:	00000054 	andeq	r0, r0, r4, asr r0
    2010:	00000534 	andeq	r0, r0, r4, lsr r5
    2014:	008d9010 	addeq	r9, sp, r0, lsl r0
    2018:	00017400 	andeq	r7, r1, r0, lsl #8
    201c:	00013600 	andeq	r3, r1, r0, lsl #12
    2020:	53011100 	movwpl	r1, #4352	; 0x1100
    2024:	114c9102 	cmpne	ip, r2, lsl #2
    2028:	91035201 	tstls	r3, r1, lsl #4
    202c:	01110648 	tsteq	r1, r8, asr #12
    2030:	000a0351 	andeq	r0, sl, r1, asr r3
    2034:	50011104 	andpl	r1, r1, r4, lsl #2
    2038:	00007402 	andeq	r7, r0, r2, lsl #8
    203c:	008da412 	addeq	sl, sp, r2, lsl r4
    2040:	50011100 	andpl	r1, r1, r0, lsl #2
    2044:	00007402 	andeq	r7, r0, r2, lsl #8
    2048:	00a71300 	adceq	r1, r7, r0, lsl #6
    204c:	01540000 	cmpeq	r4, r0
    2050:	9a140000 	bls	502058 <__bss_end__+0x4f7ad0>
    2054:	ff000000 			; <UNDEFINED> instruction: 0xff000000
    2058:	54150003 	ldrpl	r0, [r5], #-3
    205c:	63000000 	movwvs	r0, #0
    2060:	16000001 	strne	r0, [r0], -r1
    2064:	000000ae 	andeq	r0, r0, lr, lsr #1
    2068:	06281700 	strteq	r1, [r8], -r0, lsl #14
    206c:	22040000 	andcs	r0, r4, #0
    2070:	0000016e 	andeq	r0, r0, lr, ror #2
    2074:	01540408 	cmpeq	r4, r8, lsl #8
    2078:	71180000 	tstvc	r8, r0
    207c:	05000005 	streq	r0, [r0, #-5]
    2080:	00005402 	andeq	r5, r0, r2, lsl #8
    2084:	00a11600 	adceq	r1, r1, r0, lsl #12
    2088:	54160000 	ldrpl	r0, [r6], #-0
    208c:	16000000 	strne	r0, [r0], -r0
    2090:	000000ae 	andeq	r0, r0, lr, lsr #1
    2094:	00004916 	andeq	r4, r0, r6, lsl r9
    2098:	13000000 	movwne	r0, #0
    209c:	04000001 	streq	r0, [r0], #-1
    20a0:	00085100 	andeq	r5, r8, r0, lsl #2
    20a4:	1a010400 	bne	430ac <__bss_end__+0x38b24>
    20a8:	01000005 	tsteq	r0, r5
    20ac:	000005f7 	strdeq	r0, [r0], -r7
    20b0:	00000585 	andeq	r0, r0, r5, lsl #11
    20b4:	00008dc0 	andeq	r8, r0, r0, asr #27
    20b8:	0000003c 	andeq	r0, r0, ip, lsr r0
    20bc:	000006b3 			; <UNDEFINED> instruction: 0x000006b3
    20c0:	69050402 	stmdbvs	r5, {r1, sl}
    20c4:	0300746e 	movweq	r7, #1134	; 0x46e
    20c8:	01ba0704 			; <UNDEFINED> instruction: 0x01ba0704
    20cc:	01030000 	mrseq	r0, (UNDEF: 3)
    20d0:	0000d906 	andeq	sp, r0, r6, lsl #18
    20d4:	05020300 	streq	r0, [r2, #-768]	; 0x300
    20d8:	00000026 	andeq	r0, r0, r6, lsr #32
    20dc:	ee050403 	cdp	4, 0, cr0, cr5, cr3, {0}
    20e0:	03000001 	movweq	r0, #1
    20e4:	01e90508 	mvneq	r0, r8, lsl #10
    20e8:	01030000 	mrseq	r0, (UNDEF: 3)
    20ec:	0000d708 	andeq	sp, r0, r8, lsl #14
    20f0:	07020300 	streq	r0, [r2, -r0, lsl #6]
    20f4:	000000fd 	strdeq	r0, [r0], -sp
    20f8:	b5070403 	strlt	r0, [r7, #-1027]	; 0x403
    20fc:	03000001 	movweq	r0, #1
    2100:	01b00708 	lslseq	r0, r8, #14
    2104:	04030000 	streq	r0, [r3], #-0
    2108:	0001e007 	andeq	lr, r1, r7
    210c:	08010300 	stmdaeq	r1, {r8, r9}
    2110:	000000e0 	andeq	r0, r0, r0, ror #1
    2114:	0005da04 	andeq	sp, r5, r4, lsl #20
    2118:	25030100 	strcs	r0, [r3, #-256]	; 0x100
    211c:	c0000000 	andgt	r0, r0, r0
    2120:	1400008d 	strne	r0, [r0], #-141	; 0x8d
    2124:	01000000 	mrseq	r0, (UNDEF: 0)
    2128:	0000b09c 	muleq	r0, ip, r0
    212c:	00630500 	rsbeq	r0, r3, r0, lsl #10
    2130:	00250301 	eoreq	r0, r5, r1, lsl #6
    2134:	055d0000 	ldrbeq	r0, [sp, #-0]
    2138:	cc060000 	stcgt	0, cr0, [r6], {-0}
    213c:	0900008d 	stmdbeq	r0, {r0, r2, r3, r7}
    2140:	07000001 	streq	r0, [r0, -r1]
    2144:	74025001 	strvc	r5, [r2], #-1
    2148:	08000000 	stmdaeq	r0, {}	; <UNPREDICTABLE>
    214c:	00000221 	andeq	r0, r0, r1, lsr #4
    2150:	8dd40801 	ldclhi	8, cr0, [r4, #4]
    2154:	00180000 	andseq	r0, r8, r0
    2158:	9c010000 	stcls	0, cr0, [r1], {-0}
    215c:	00060609 	andeq	r0, r6, r9, lsl #12
    2160:	ec0b0100 	stfs	f0, [fp], {-0}
    2164:	1000008d 	andne	r0, r0, sp, lsl #1
    2168:	01000000 	mrseq	r0, (UNDEF: 0)
    216c:	0000e39c 	muleq	r0, ip, r3
    2170:	70660a00 	rsbvc	r0, r6, r0, lsl #20
    2174:	f20b0100 	vrhadd.s8	d0, d11, d0
    2178:	01000000 	mrseq	r0, (UNDEF: 0)
    217c:	250b0050 	strcs	r0, [fp, #-80]	; 0x50
    2180:	f2000000 	vhadd.s8	d0, d0, d0
    2184:	0c000000 	stceq	0, cr0, [r0], {-0}
    2188:	00000025 	andeq	r0, r0, r5, lsr #32
    218c:	e3040d00 	movw	r0, #19712	; 0x4d00
    2190:	0e000000 	cdpeq	0, 0, cr0, cr0, cr0, {0}
    2194:	000005eb 	andeq	r0, r0, fp, ror #11
    2198:	00f20601 	rscseq	r0, r2, r1, lsl #12
    219c:	03050000 	movweq	r0, #20480	; 0x5000
    21a0:	00009978 	andeq	r9, r0, r8, ror r9
    21a4:	0005d00f 	andeq	sp, r5, pc
    21a8:	0c3c0200 	lfmeq	f0, 4, [ip], #-0
    21ac:	0000002c 	andeq	r0, r0, ip, lsr #32
    21b0:	00ee0000 	rsceq	r0, lr, r0
    21b4:	00040000 	andeq	r0, r4, r0
    21b8:	00000939 	andeq	r0, r0, r9, lsr r9
    21bc:	051a0104 	ldreq	r0, [sl, #-260]	; 0x104
    21c0:	13010000 	movwne	r0, #4096	; 0x1000
    21c4:	85000006 	strhi	r0, [r0, #-6]
    21c8:	fc000005 	stc2	0, cr0, [r0], {5}
    21cc:	3400008d 	strcc	r0, [r0], #-141	; 0x8d
    21d0:	4b000000 	blmi	21d8 <__code_start__-0x5e28>
    21d4:	02000007 	andeq	r0, r0, #7
    21d8:	6e690504 	cdpvs	5, 6, cr0, cr9, cr4, {0}
    21dc:	04030074 	streq	r0, [r3], #-116	; 0x74
    21e0:	0001ba07 	andeq	fp, r1, r7, lsl #20
    21e4:	06010300 	streq	r0, [r1], -r0, lsl #6
    21e8:	000000d9 	ldrdeq	r0, [r0], -r9
    21ec:	26050203 	strcs	r0, [r5], -r3, lsl #4
    21f0:	03000000 	movweq	r0, #0
    21f4:	01ee0504 	mvneq	r0, r4, lsl #10
    21f8:	08030000 	stmdaeq	r3, {}	; <UNPREDICTABLE>
    21fc:	0001e905 	andeq	lr, r1, r5, lsl #18
    2200:	08010300 	stmdaeq	r1, {r8, r9}
    2204:	000000d7 	ldrdeq	r0, [r0], -r7
    2208:	fd070203 	stc2	2, cr0, [r7, #-12]
    220c:	03000000 	movweq	r0, #0
    2210:	01b50704 			; <UNDEFINED> instruction: 0x01b50704
    2214:	08030000 	stmdaeq	r3, {}	; <UNPREDICTABLE>
    2218:	0001b007 	andeq	fp, r1, r7
    221c:	07040300 	streq	r0, [r4, -r0, lsl #6]
    2220:	000001e0 	andeq	r0, r0, r0, ror #3
    2224:	e0080103 	and	r0, r8, r3, lsl #2
    2228:	04000000 	streq	r0, [r0], #-0
    222c:	00007f04 	andeq	r7, r0, r4, lsl #30
    2230:	00720500 	rsbseq	r0, r2, r0, lsl #10
    2234:	1f060000 	svcne	0x00060000
    2238:	01000006 	tsteq	r0, r6
    223c:	00002504 	andeq	r2, r0, r4, lsl #10
    2240:	008dfc00 	addeq	pc, sp, r0, lsl #24
    2244:	00003400 	andeq	r3, r0, r0, lsl #8
    2248:	ab9c0100 	blge	fe702650 <__bss_end__+0xfe6f80c8>
    224c:	07000000 	streq	r0, [r0, -r0]
    2250:	04010070 	streq	r0, [r1], #-112	; 0x70
    2254:	00000079 	andeq	r0, r0, r9, ror r0
    2258:	0000057b 	andeq	r0, r0, fp, ror r5
    225c:	00250800 	eoreq	r0, r5, r0, lsl #16
    2260:	00ba0000 	adcseq	r0, sl, r0
    2264:	25090000 	strcs	r0, [r9, #-0]
    2268:	00000000 	andeq	r0, r0, r0
    226c:	0005eb0a 	andeq	lr, r5, sl, lsl #22
    2270:	c51d0200 	ldrgt	r0, [sp, #-512]	; 0x200
    2274:	04000000 	streq	r0, [r0], #-0
    2278:	0000ab04 	andeq	sl, r0, r4, lsl #22
    227c:	00250800 	eoreq	r0, r5, r0, lsl #16
    2280:	00da0000 	sbcseq	r0, sl, r0
    2284:	79090000 	stmdbvc	r9, {}	; <UNPREDICTABLE>
    2288:	00000000 	andeq	r0, r0, r0
    228c:	0006280b 	andeq	r2, r6, fp, lsl #16
    2290:	eb0c0100 	bl	302698 <__bss_end__+0x2f8110>
    2294:	05000000 	streq	r0, [r0, #-0]
    2298:	00997c03 	addseq	r7, r9, r3, lsl #24
    229c:	cb040400 	blgt	1032a4 <__bss_end__+0xf8d1c>
    22a0:	00000000 	andeq	r0, r0, r0
    22a4:	000006e5 	andeq	r0, r0, r5, ror #13
    22a8:	09d20004 	ldmibeq	r2, {r2}^
    22ac:	01040000 	mrseq	r0, (UNDEF: 4)
    22b0:	0000051a 	andeq	r0, r0, sl, lsl r5
    22b4:	00065e01 	andeq	r5, r6, r1, lsl #28
    22b8:	00058500 	andeq	r8, r5, r0, lsl #10
    22bc:	008e3000 	addeq	r3, lr, r0
    22c0:	00057800 	andeq	r7, r5, r0, lsl #16
    22c4:	0007ef00 	andeq	lr, r7, r0, lsl #30
    22c8:	05040200 	streq	r0, [r4, #-512]	; 0x200
    22cc:	00746e69 	rsbseq	r6, r4, r9, ror #28
    22d0:	ba070403 	blt	1c32e4 <__bss_end__+0x1b8d5c>
    22d4:	03000001 	movweq	r0, #1
    22d8:	00d90601 	sbcseq	r0, r9, r1, lsl #12
    22dc:	02030000 	andeq	r0, r3, #0
    22e0:	00002605 	andeq	r2, r0, r5, lsl #12
    22e4:	05040300 	streq	r0, [r4, #-768]	; 0x300
    22e8:	000001ee 	andeq	r0, r0, lr, ror #3
    22ec:	e9050803 	stmdb	r5, {r0, r1, fp}
    22f0:	03000001 	movweq	r0, #1
    22f4:	00d70801 	sbcseq	r0, r7, r1, lsl #16
    22f8:	02030000 	andeq	r0, r3, #0
    22fc:	0000fd07 	andeq	pc, r0, r7, lsl #26
    2300:	07040300 	streq	r0, [r4, -r0, lsl #6]
    2304:	000001b5 			; <UNDEFINED> instruction: 0x000001b5
    2308:	b0070803 	andlt	r0, r7, r3, lsl #16
    230c:	03000001 	movweq	r0, #1
    2310:	01e00704 	mvneq	r0, r4, lsl #14
    2314:	04040000 	streq	r0, [r4], #-0
    2318:	007a0405 	rsbseq	r0, sl, r5, lsl #8
    231c:	01030000 	mrseq	r0, (UNDEF: 3)
    2320:	0000e008 	andeq	lr, r0, r8
    2324:	87040500 	strhi	r0, [r4, -r0, lsl #10]
    2328:	06000000 	streq	r0, [r0], -r0
    232c:	0000007a 	andeq	r0, r0, sl, ror r0
    2330:	0004fd07 	andeq	pc, r4, r7, lsl #26
    2334:	97280200 	strls	r0, [r8, -r0, lsl #4]!
    2338:	08000000 	stmdaeq	r0, {}	; <UNPREDICTABLE>
    233c:	0000057b 	andeq	r0, r0, fp, ror r5
    2340:	ae000404 	cdpge	4, 0, cr0, cr0, cr4, {0}
    2344:	09000000 	stmdbeq	r0, {}	; <UNPREDICTABLE>
    2348:	000005cb 	andeq	r0, r0, fp, asr #11
    234c:	00000072 	andeq	r0, r0, r2, ror r0
    2350:	7d070000 	stcvc	0, cr0, [r7, #-0]
    2354:	02000005 	andeq	r0, r0, #5
    2358:	00008c62 	andeq	r8, r0, r2, ror #24
    235c:	06450a00 	strbeq	r0, [r5], -r0, lsl #20
    2360:	27010000 	strcs	r0, [r1, -r0]
    2364:	00000025 	andeq	r0, r0, r5, lsr #32
    2368:	00008e30 	andeq	r8, r0, r0, lsr lr
    236c:	00000014 	andeq	r0, r0, r4, lsl r0
    2370:	00e09c01 	rsceq	r9, r0, r1, lsl #24
    2374:	630b0000 	movwvs	r0, #45056	; 0xb000
    2378:	25270100 	strcs	r0, [r7, #-256]!	; 0x100
    237c:	99000000 	stmdbls	r0, {}	; <UNPREDICTABLE>
    2380:	00000005 	andeq	r0, r0, r5
    2384:	6461700c 	strbtvs	r7, [r1], #-12
    2388:	742e0100 	strtvc	r0, [lr], #-256	; 0x100
    238c:	44000000 	strmi	r0, [r0], #-0
    2390:	2c00008e 	stccs	0, cr0, [r0], {142}	; 0x8e
    2394:	01000000 	mrseq	r0, (UNDEF: 0)
    2398:	0001309c 	muleq	r1, ip, r0
    239c:	00700b00 	rsbseq	r0, r0, r0, lsl #22
    23a0:	00742e01 	rsbseq	r2, r4, r1, lsl #28
    23a4:	05c70000 	strbeq	r0, [r7]
    23a8:	650d0000 	strvs	r0, [sp, #-0]
    23ac:	0100000a 	tsteq	r0, sl
    23b0:	0000742e 	andeq	r7, r0, lr, lsr #8
    23b4:	0005f200 	andeq	pc, r5, r0, lsl #4
    23b8:	067e0e00 	ldrbteq	r0, [lr], -r0, lsl #28
    23bc:	2e010000 	cdpcs	0, 0, cr0, cr1, cr0, {0}
    23c0:	00000025 	andeq	r0, r0, r5, lsr #32
    23c4:	6c0f5201 	sfmvs	f5, 4, [pc], {1}
    23c8:	01006e65 	tsteq	r0, r5, ror #28
    23cc:	0000252f 	andeq	r2, r0, pc, lsr #10
    23d0:	00510100 	subseq	r0, r1, r0, lsl #2
    23d4:	00063d0a 	andeq	r3, r6, sl, lsl #26
    23d8:	74370100 	ldrtvc	r0, [r7], #-256	; 0x100
    23dc:	70000000 	andvc	r0, r0, r0
    23e0:	4000008e 	andmi	r0, r0, lr, lsl #1
    23e4:	01000000 	mrseq	r0, (UNDEF: 0)
    23e8:	00019c9c 	muleq	r1, ip, ip
    23ec:	73640b00 	cmnvc	r4, #0, 22
    23f0:	37010074 	smlsdxcc	r1, r4, r0, r0
    23f4:	00000074 	andeq	r0, r0, r4, ror r0
    23f8:	00000613 	andeq	r0, r0, r3, lsl r6
    23fc:	01006e0b 	tsteq	r0, fp, lsl #28
    2400:	00002537 	andeq	r2, r0, r7, lsr r5
    2404:	00064b00 	andeq	r4, r6, r0, lsl #22
    2408:	00700b00 	rsbseq	r0, r0, r0, lsl #22
    240c:	00743701 	rsbseq	r3, r4, r1, lsl #14
    2410:	066c0000 	strbteq	r0, [ip], -r0
    2414:	310d0000 	mrscc	r0, (UNDEF: 13)
    2418:	01000006 	tsteq	r0, r6
    241c:	00007437 	andeq	r7, r0, r7, lsr r4
    2420:	0006a200 	andeq	sl, r6, r0, lsl #4
    2424:	656c1000 	strbvs	r1, [ip, #-0]!
    2428:	3901006e 	stmdbcc	r1, {r1, r2, r3, r5, r6}
    242c:	00000025 	andeq	r0, r0, r5, lsr #32
    2430:	000006c0 	andeq	r0, r0, r0, asr #13
    2434:	0100730f 	tsteq	r0, pc, lsl #6
    2438:	0000743d 	andeq	r7, r0, sp, lsr r4
    243c:	00500100 	subseq	r0, r0, r0, lsl #2
    2440:	00068c0a 	andeq	r8, r6, sl, lsl #24
    2444:	74470100 	strbvc	r0, [r7], #-256	; 0x100
    2448:	b0000000 	andlt	r0, r0, r0
    244c:	bc00008e 	stclt	0, cr0, [r0], {142}	; 0x8e
    2450:	01000001 	tsteq	r0, r1
    2454:	0002df9c 	muleq	r2, ip, pc	; <UNPREDICTABLE>
    2458:	0a650d00 	beq	1945860 <__bss_end__+0x193b2d8>
    245c:	47010000 	strmi	r0, [r1, -r0]
    2460:	0000002c 	andeq	r0, r0, ip, lsr #32
    2464:	000006e7 	andeq	r0, r0, r7, ror #13
    2468:	7473640b 	ldrbtvc	r6, [r3], #-1035	; 0x40b
    246c:	74470100 	strbvc	r0, [r7], #-256	; 0x100
    2470:	15000000 	strne	r0, [r0, #-0]
    2474:	0b000007 	bleq	2498 <__code_start__-0x5b68>
    2478:	4701006e 	strmi	r0, [r1, -lr, rrx]
    247c:	00000025 	andeq	r0, r0, r5, lsr #32
    2480:	00000783 	andeq	r0, r0, r3, lsl #15
    2484:	6c61760b 	stclvs	6, cr7, [r1], #-44	; 0xffffffd4
    2488:	25470100 	strbcs	r0, [r7, #-256]	; 0x100
    248c:	af000000 	svcge	0x00000000
    2490:	0d000007 	stceq	0, cr0, [r0, #-28]	; 0xffffffe4
    2494:	0000067e 	andeq	r0, r0, lr, ror r6
    2498:	00254701 	eoreq	r4, r5, r1, lsl #14
    249c:	082e0000 	stmdaeq	lr!, {}	; <UNPREDICTABLE>
    24a0:	550e0000 	strpl	r0, [lr, #-0]
    24a4:	01000006 	tsteq	r0, r6
    24a8:	00002547 	andeq	r2, r0, r7, asr #10
    24ac:	04910200 	ldreq	r0, [r1], #512	; 0x200
    24b0:	6675620f 	ldrbtvs	r6, [r5], -pc, lsl #4
    24b4:	df4c0100 	svcle	0x004c0100
    24b8:	03000002 	movweq	r0, #2
    24bc:	107fa891 			; <UNDEFINED> instruction: 0x107fa891
    24c0:	4c010070 	stcmi	0, cr0, [r1], {112}	; 0x70
    24c4:	00000074 	andeq	r0, r0, r4, ror r0
    24c8:	00000858 	andeq	r0, r0, r8, asr r8
    24cc:	01007510 	tsteq	r0, r0, lsl r5
    24d0:	00002c4d 	andeq	r2, r0, sp, asr #24
    24d4:	00094200 	andeq	r4, r9, r0, lsl #4
    24d8:	01271100 	teqeq	r7, r0, lsl #2
    24dc:	02ff0000 	rscseq	r0, pc, #0
    24e0:	03050000 	movweq	r0, #20480	; 0x5000
    24e4:	00009f58 	andeq	r9, r0, r8, asr pc
    24e8:	008f1c12 	addeq	r1, pc, r2, lsl ip	; <UNPREDICTABLE>
    24ec:	00007400 	andeq	r7, r0, r0, lsl #8
    24f0:	00026100 	andeq	r6, r2, r0, lsl #2
    24f4:	06371300 	ldrteq	r1, [r7], -r0, lsl #6
    24f8:	52010000 	andpl	r0, r1, #0
    24fc:	0000002c 	andeq	r0, r0, ip, lsr #32
    2500:	00000a05 	andeq	r0, r0, r5, lsl #20
    2504:	90081400 	andls	r1, r8, r0, lsl #8
    2508:	06c40000 	strbeq	r0, [r4], r0
    250c:	24150000 	ldrcs	r0, [r5], #-0
    2510:	cb000090 	blgt	2758 <__code_start__-0x58a8>
    2514:	a3000006 	movwge	r0, #6
    2518:	16000002 	strne	r0, [r0], -r2
    251c:	08025301 	stmdaeq	r2, {r0, r8, r9, ip, lr}
    2520:	52011677 	andpl	r1, r1, #124780544	; 0x7700000
    2524:	9f580305 	svcls	0x00580305
    2528:	01160000 	tsteq	r6, r0
    252c:	7c030551 	cfstr32vc	mvfx0, [r3], {81}	; 0x51
    2530:	1600009f 			; <UNDEFINED> instruction: 0x1600009f
    2534:	03055001 	movweq	r5, #20481	; 0x5001
    2538:	00009980 	andeq	r9, r0, r0, lsl #19
    253c:	007d0216 	rsbseq	r0, sp, r6, lsl r2
    2540:	9f900305 	svcls	0x00900305
    2544:	14000000 	strne	r0, [r0], #-0
    2548:	00009028 	andeq	r9, r0, r8, lsr #32
    254c:	000006e1 	andeq	r0, r0, r1, ror #13
    2550:	00903015 	addseq	r3, r0, r5, lsl r0
    2554:	0000e000 	andeq	lr, r0, r0
    2558:	0002c100 	andeq	ip, r2, r0, lsl #2
    255c:	51011600 	tstpl	r1, r0, lsl #12
    2560:	7fa09103 	svcvc	0x00a09103
    2564:	90441700 	subls	r1, r4, r0, lsl #14
    2568:	01300000 	teqeq	r0, r0
    256c:	01160000 	tsteq	r6, r0
    2570:	a0910353 	addsge	r0, r1, r3, asr r3
    2574:	5101167f 	tstpl	r1, pc, ror r6
    2578:	16007402 	strne	r7, [r0], -r2, lsl #8
    257c:	75025001 	strvc	r5, [r2, #-1]
    2580:	18000000 	stmdane	r0, {}	; <UNPREDICTABLE>
    2584:	0000007a 	andeq	r0, r0, sl, ror r0
    2588:	000002ef 	andeq	r0, r0, pc, ror #5
    258c:	00006b19 	andeq	r6, r0, r9, lsl fp
    2590:	18003f00 	stmdane	r0, {r8, r9, sl, fp, ip, sp}
    2594:	0000007a 	andeq	r0, r0, sl, ror r0
    2598:	000002ff 	strdeq	r0, [r0], -pc	; <UNPREDICTABLE>
    259c:	00006b19 	andeq	r6, r0, r9, lsl fp
    25a0:	06000400 	streq	r0, [r0], -r0, lsl #8
    25a4:	000002ef 	andeq	r0, r0, pc, ror #5
    25a8:	00066f1a 	andeq	r6, r6, sl, lsl pc
    25ac:	6c1f0100 	ldfvss	f0, [pc], {-0}
    25b0:	68000090 	stmdavs	r0, {r4, r7}
    25b4:	01000000 	mrseq	r0, (UNDEF: 0)
    25b8:	0003929c 	muleq	r3, ip, r2
    25bc:	06840d00 	streq	r0, [r4], r0, lsl #26
    25c0:	1f010000 	svcne	0x00010000
    25c4:	000003a1 	andeq	r0, r0, r1, lsr #7
    25c8:	00000a31 	andeq	r0, r0, r1, lsr sl
    25cc:	00064d0d 	andeq	r4, r6, sp, lsl #26
    25d0:	b61f0100 	ldrlt	r0, [pc], -r0, lsl #2
    25d4:	5d000003 	stcpl	0, cr0, [r0, #-12]
    25d8:	1100000a 	tstne	r0, sl
    25dc:	00000127 	andeq	r0, r0, r7, lsr #2
    25e0:	000003cc 	andeq	r0, r0, ip, asr #7
    25e4:	9f600305 	svcls	0x00600305
    25e8:	80140000 	andshi	r0, r4, r0
    25ec:	c4000090 	strgt	r0, [r0], #-144	; 0x90
    25f0:	15000006 	strne	r0, [r0, #-6]
    25f4:	0000909c 	muleq	r0, ip, r0
    25f8:	000006cb 	andeq	r0, r0, fp, asr #13
    25fc:	00000388 	andeq	r0, r0, r8, lsl #7
    2600:	02530116 	subseq	r0, r3, #-2147483643	; 0x80000005
    2604:	01162008 	tsteq	r6, r8
    2608:	60030552 	andvs	r0, r3, r2, asr r5
    260c:	1600009f 			; <UNDEFINED> instruction: 0x1600009f
    2610:	03055101 	movweq	r5, #20737	; 0x5101
    2614:	00009f7c 	andeq	r9, r0, ip, ror pc
    2618:	05500116 	ldrbeq	r0, [r0, #-278]	; 0x116
    261c:	00998003 	addseq	r8, r9, r3
    2620:	7d021600 	stcvc	6, cr1, [r2, #-0]
    2624:	b8030500 	stmdalt	r3, {r8, sl}
    2628:	0000009f 	muleq	r0, pc, r0	; <UNPREDICTABLE>
    262c:	0090a014 	addseq	sl, r0, r4, lsl r0
    2630:	0006e100 	andeq	lr, r6, r0, lsl #2
    2634:	251b0000 	ldrcs	r0, [fp, #-0]
    2638:	a1000000 	mrsge	r0, (UNDEF: 0)
    263c:	1c000003 	stcne	0, cr0, [r0], {3}
    2640:	00000025 	andeq	r0, r0, r5, lsr #32
    2644:	92040500 	andls	r0, r4, #0, 10
    2648:	1b000003 	blne	265c <__code_start__-0x59a4>
    264c:	00000025 	andeq	r0, r0, r5, lsr #32
    2650:	000003b6 			; <UNDEFINED> instruction: 0x000003b6
    2654:	0000811c 	andeq	r8, r0, ip, lsl r1
    2658:	04050000 	streq	r0, [r5], #-0
    265c:	000003a7 	andeq	r0, r0, r7, lsr #7
    2660:	00007a18 	andeq	r7, r0, r8, lsl sl
    2664:	0003cc00 	andeq	ip, r3, r0, lsl #24
    2668:	006b1900 	rsbeq	r1, fp, r0, lsl #18
    266c:	000e0000 	andeq	r0, lr, r0
    2670:	0003bc06 	andeq	fp, r3, r6, lsl #24
    2674:	05711d00 	ldrbeq	r1, [r1, #-3328]!	; 0xd00
    2678:	7f010000 	svcvc	0x00010000
    267c:	00000025 	andeq	r0, r0, r5, lsr #32
    2680:	000090d4 	ldrdeq	r9, [r0], -r4
    2684:	000002d4 	ldrdeq	r0, [r0], -r4
    2688:	06899c01 	streq	r9, [r9], r1, lsl #24
    268c:	620b0000 	andvs	r0, fp, #0
    2690:	01006675 	tsteq	r0, r5, ror r6
    2694:	0000747f 	andeq	r7, r0, pc, ror r4
    2698:	000a8900 	andeq	r8, sl, r0, lsl #18
    269c:	006e0b00 	rsbeq	r0, lr, r0, lsl #22
    26a0:	00257f01 	eoreq	r7, r5, r1, lsl #30
    26a4:	0ab50000 	beq	fed426ac <__bss_end__+0xfed38124>
    26a8:	660b0000 	strvs	r0, [fp], -r0
    26ac:	0100746d 	tsteq	r0, sp, ror #8
    26b0:	0000817f 	andeq	r8, r0, pc, ror r1
    26b4:	000ae300 	andeq	lr, sl, r0, lsl #6
    26b8:	0a870d00 	beq	fe1c5ac0 <__bss_end__+0xfe1bb538>
    26bc:	7f010000 	svcvc	0x00010000
    26c0:	000000ae 	andeq	r0, r0, lr, lsr #1
    26c4:	00000b01 	andeq	r0, r0, r1, lsl #22
    26c8:	01007010 	tsteq	r0, r0, lsl r0
    26cc:	00007480 	andeq	r7, r0, r0, lsl #9
    26d0:	000b1400 	andeq	r1, fp, r0, lsl #8
    26d4:	00651000 	rsbeq	r1, r5, r0
    26d8:	00748001 	rsbseq	r8, r4, r1
    26dc:	0b920000 	bleq	fe4826e4 <__bss_end__+0xfe47815c>
    26e0:	2d130000 	ldccs	0, cr0, [r3, #-0]
    26e4:	01000006 	tsteq	r0, r6
    26e8:	00008183 	andeq	r8, r0, r3, lsl #3
    26ec:	000bb900 	andeq	fp, fp, r0, lsl #18
    26f0:	01271100 	teqeq	r7, r0, lsl #2
    26f4:	06990000 	ldreq	r0, [r9], r0
    26f8:	03050000 	movweq	r0, #20480	; 0x5000
    26fc:	00009f70 	andeq	r9, r0, r0, ror pc
    2700:	0091301e 	addseq	r3, r1, lr, lsl r0
    2704:	00022c00 	andeq	r2, r2, r0, lsl #24
    2708:	00731000 	rsbseq	r1, r3, r0
    270c:	00748e01 	rsbseq	r8, r4, r1, lsl #28
    2710:	0bd90000 	bleq	ff642718 <__bss_end__+0xff638190>
    2714:	6e0f0000 	cdpvs	0, 0, cr0, cr15, cr0, {0}
    2718:	01006d75 	tsteq	r0, r5, ror sp
    271c:	00069e8e 	andeq	r9, r6, lr, lsl #29
    2720:	d8910300 	ldmle	r1, {r8, r9}
    2724:	067e137e 			; <UNDEFINED> instruction: 0x067e137e
    2728:	8f010000 	svchi	0x00010000
    272c:	0000002c 	andeq	r0, r0, ip, lsr #32
    2730:	00000c2e 	andeq	r0, r0, lr, lsr #24
    2734:	00916015 	addseq	r6, r1, r5, lsl r0
    2738:	0000b900 	andeq	fp, r0, r0, lsl #18
    273c:	0004a400 	andeq	sl, r4, r0, lsl #8
    2740:	50011600 	andpl	r1, r1, r0, lsl #12
    2744:	00007502 	andeq	r7, r0, r2, lsl #10
    2748:	00917414 	addseq	r7, r1, r4, lsl r4
    274c:	0006c400 	andeq	ip, r6, r0, lsl #8
    2750:	91901500 	orrsls	r1, r0, r0, lsl #10
    2754:	06cb0000 	strbeq	r0, [fp], r0
    2758:	04e60000 	strbteq	r0, [r6], #0
    275c:	01160000 	tsteq	r6, r0
    2760:	95080253 	strls	r0, [r8, #-595]	; 0x253
    2764:	05520116 	ldrbeq	r0, [r2, #-278]	; 0x116
    2768:	009f7003 	addseq	r7, pc, r3
    276c:	51011600 	tstpl	r1, r0, lsl #12
    2770:	9f7c0305 	svcls	0x007c0305
    2774:	01160000 	tsteq	r6, r0
    2778:	80030550 	andhi	r0, r3, r0, asr r5
    277c:	16000099 			; <UNDEFINED> instruction: 0x16000099
    2780:	05007d02 	streq	r7, [r0, #-3330]	; 0xd02
    2784:	009fc003 	addseq	ip, pc, r3
    2788:	94140000 	ldrls	r0, [r4], #-0
    278c:	e1000091 	swp	r0, r1, [r0]	; <UNPREDICTABLE>
    2790:	14000006 	strne	r0, [r0], #-6
    2794:	00009204 	andeq	r9, r0, r4, lsl #4
    2798:	000006c4 	andeq	r0, r0, r4, asr #13
    279c:	00921815 	addseq	r1, r2, r5, lsl r8
    27a0:	0006cb00 	andeq	ip, r6, r0, lsl #22
    27a4:	00052700 	andeq	r2, r5, r0, lsl #14
    27a8:	53011600 	movwpl	r1, #5632	; 0x1600
    27ac:	169b0802 	ldrne	r0, [fp], r2, lsl #16
    27b0:	03055201 	movweq	r5, #20993	; 0x5201
    27b4:	00009f70 	andeq	r9, r0, r0, ror pc
    27b8:	05510116 	ldrbeq	r0, [r1, #-278]	; 0x116
    27bc:	009f7c03 	addseq	r7, pc, r3, lsl #24
    27c0:	50011600 	andpl	r1, r1, r0, lsl #12
    27c4:	9fcc0305 	svcls	0x00cc0305
    27c8:	14000000 	strne	r0, [r0], #-0
    27cc:	0000921c 	andeq	r9, r0, ip, lsl r2
    27d0:	000006e1 	andeq	r0, r0, r1, ror #13
    27d4:	00924015 	addseq	r4, r2, r5, lsl r0
    27d8:	00019c00 	andeq	r9, r1, r0, lsl #24
    27dc:	00055d00 	andeq	r5, r5, r0, lsl #26
    27e0:	52011600 	andpl	r1, r1, #0, 12
    27e4:	16800802 	strne	r0, [r0], r2, lsl #16
    27e8:	91035101 	tstls	r3, r1, lsl #2
    27ec:	01167ed0 			; <UNDEFINED> instruction: 0x01167ed0
    27f0:	163a0150 			; <UNDEFINED> instruction: 0x163a0150
    27f4:	01047d02 	tsteq	r4, r2, lsl #26
    27f8:	7d021631 	stcvc	6, cr1, [r2, #-196]	; 0xffffff3c
    27fc:	00770200 	rsbseq	r0, r7, r0, lsl #4
    2800:	92681500 	rsbls	r1, r8, #0, 10
    2804:	019c0000 	orrseq	r0, ip, r0
    2808:	058a0000 	streq	r0, [sl]
    280c:	01160000 	tsteq	r6, r0
    2810:	80080252 	andhi	r0, r8, r2, asr r2
    2814:	03510116 	cmpeq	r1, #-2147483643	; 0x80000005
    2818:	167ed091 			; <UNDEFINED> instruction: 0x167ed091
    281c:	3a015001 	bcc	56828 <__bss_end__+0x4c2a0>
    2820:	047d0216 	ldrbteq	r0, [sp], #-534	; 0x216
    2824:	02163001 	andseq	r3, r6, #1
    2828:	7702007d 	smlsdxvc	r2, sp, r0, r0
    282c:	90150000 	andsls	r0, r5, r0
    2830:	9c000092 	stcls	0, cr0, [r0], {146}	; 0x92
    2834:	b7000001 	strlt	r0, [r0, -r1]
    2838:	16000005 	strne	r0, [r0], -r5
    283c:	08025201 	stmdaeq	r2, {r0, r9, ip, lr}
    2840:	51011680 	smlabbpl	r1, r0, r6, r1
    2844:	7ed09103 	atnvcs	f1, f3
    2848:	01500116 	cmpeq	r0, r6, lsl r1
    284c:	7d021640 	stcvc	6, cr1, [r2, #-256]	; 0xffffff00
    2850:	16300104 	ldrtne	r0, [r0], -r4, lsl #2
    2854:	02007d02 	andeq	r7, r0, #2, 26	; 0x80
    2858:	15000077 	strne	r0, [r0, #-119]	; 0x77
    285c:	000092b8 			; <UNDEFINED> instruction: 0x000092b8
    2860:	0000019c 	muleq	r0, ip, r1
    2864:	000005e4 	andeq	r0, r0, r4, ror #11
    2868:	02520116 	subseq	r0, r2, #-2147483643	; 0x80000005
    286c:	01168008 	tsteq	r6, r8
    2870:	d0910351 	addsle	r0, r1, r1, asr r3
    2874:	5001167e 	andpl	r1, r1, lr, ror r6
    2878:	02163201 	andseq	r3, r6, #268435456	; 0x10000000
    287c:	3001047d 	andcc	r0, r1, sp, ror r4
    2880:	007d0216 	rsbseq	r0, sp, r6, lsl r2
    2884:	00007702 	andeq	r7, r0, r2, lsl #14
    2888:	0092ec15 	addseq	lr, r2, r5, lsl ip
    288c:	00019c00 	andeq	r9, r1, r0, lsl #24
    2890:	00061100 	andeq	r1, r6, r0, lsl #2
    2894:	52011600 	andpl	r1, r1, #0, 12
    2898:	16800802 	strne	r0, [r0], r2, lsl #16
    289c:	91035101 	tstls	r3, r1, lsl #2
    28a0:	01167ed0 			; <UNDEFINED> instruction: 0x01167ed0
    28a4:	16380150 			; <UNDEFINED> instruction: 0x16380150
    28a8:	01047d02 	tsteq	r4, r2, lsl #26
    28ac:	7d021630 	stcvc	6, cr1, [r2, #-192]	; 0xffffff40
    28b0:	00770200 	rsbseq	r0, r7, r0, lsl #4
    28b4:	93081500 	movwls	r1, #34048	; 0x8500
    28b8:	06cb0000 	strbeq	r0, [fp], r0
    28bc:	06340000 	ldrteq	r0, [r4], -r0
    28c0:	01160000 	tsteq	r6, r0
    28c4:	00790252 	rsbseq	r0, r9, r2, asr r2
    28c8:	02510116 	subseq	r0, r1, #-2147483643	; 0x80000005
    28cc:	01160079 	tsteq	r6, r9, ror r0
    28d0:	f4030550 	vst3.16	{d0,d2,d4}, [r3 :64], r0
    28d4:	0000009f 	muleq	r0, pc, r0	; <UNPREDICTABLE>
    28d8:	0093181f 	addseq	r1, r3, pc, lsl r8
    28dc:	00064600 	andeq	r4, r6, r0, lsl #12
    28e0:	50011600 	andpl	r1, r1, r0, lsl #12
    28e4:	7ecc9104 	acsvce	f1, f4
    28e8:	1c140006 	ldcne	0, cr0, [r4], {6}
    28ec:	c4000093 	strgt	r0, [r0], #-147	; 0x93
    28f0:	15000006 	strne	r0, [r0, #-6]
    28f4:	00009330 	andeq	r9, r0, r0, lsr r3
    28f8:	000006cb 	andeq	r0, r0, fp, asr #13
    28fc:	0000067e 	andeq	r0, r0, lr, ror r6
    2900:	02530116 	subseq	r0, r3, #-2147483643	; 0x80000005
    2904:	0116bf08 	tsteq	r6, r8, lsl #30
    2908:	70030552 	andvc	r0, r3, r2, asr r5
    290c:	1600009f 			; <UNDEFINED> instruction: 0x1600009f
    2910:	03055101 	movweq	r5, #20737	; 0x5101
    2914:	00009f7c 	andeq	r9, r0, ip, ror pc
    2918:	05500116 	ldrbeq	r0, [r0, #-278]	; 0x116
    291c:	00a02403 	adceq	r2, r0, r3, lsl #8
    2920:	34140000 	ldrcc	r0, [r4], #-0
    2924:	e1000093 	swp	r0, r3, [r0]	; <UNPREDICTABLE>
    2928:	00000006 	andeq	r0, r0, r6
    292c:	007a1800 	rsbseq	r1, sl, r0, lsl #16
    2930:	06990000 	ldreq	r0, [r9], r0
    2934:	6b190000 	blvs	64293c <__bss_end__+0x6383b4>
    2938:	09000000 	stmdbeq	r0, {}	; <UNPREDICTABLE>
    293c:	06890600 	streq	r0, [r9], r0, lsl #12
    2940:	7a180000 	bvc	602948 <__bss_end__+0x5f83c0>
    2944:	ae000000 	cdpge	0, 0, cr0, cr0, cr0, {0}
    2948:	19000006 	stmdbne	r0, {r1, r2}
    294c:	0000006b 	andeq	r0, r0, fp, rrx
    2950:	eb20007f 	bl	802b54 <__bss_end__+0x7f85cc>
    2954:	03000005 	movweq	r0, #5
    2958:	0003a11d 	andeq	sl, r3, sp, lsl r1
    295c:	06282000 	strteq	r2, [r8], -r0
    2960:	22030000 	andcs	r0, r3, #0
    2964:	000003b6 			; <UNDEFINED> instruction: 0x000003b6
    2968:	00022121 	andeq	r2, r2, r1, lsr #2
    296c:	221e0300 	andscs	r0, lr, #0, 6
    2970:	00000574 	andeq	r0, r0, r4, ror r5
    2974:	00252903 	eoreq	r2, r5, r3, lsl #18
    2978:	06e10000 	strbteq	r0, [r1], r0
    297c:	811c0000 	tsthi	ip, r0
    2980:	23000000 	movwcs	r0, #0
    2984:	00e52100 	rsceq	r2, r5, r0, lsl #2
    2988:	65030000 	strvs	r0, [r3, #-0]
    298c:	0000b800 	andeq	fp, r0, r0, lsl #16
    2990:	bb000400 	bllt	3998 <__code_start__-0x4668>
    2994:	0400000b 	streq	r0, [r0], #-11
    2998:	00051a01 	andeq	r1, r5, r1, lsl #20
    299c:	069f0100 	ldreq	r0, [pc], r0, lsl #2
    29a0:	05850000 	streq	r0, [r5]
    29a4:	93a80000 			; <UNDEFINED> instruction: 0x93a80000
    29a8:	00200000 	eoreq	r0, r0, r0
    29ac:	09e40000 	stmibeq	r4!, {}^	; <UNPREDICTABLE>
    29b0:	04020000 	streq	r0, [r2], #-0
    29b4:	746e6905 	strbtvc	r6, [lr], #-2309	; 0x905
    29b8:	07040300 	streq	r0, [r4, -r0, lsl #6]
    29bc:	000001ba 			; <UNDEFINED> instruction: 0x000001ba
    29c0:	d9060103 	stmdble	r6, {r0, r1, r8}
    29c4:	03000000 	movweq	r0, #0
    29c8:	00260502 	eoreq	r0, r6, r2, lsl #10
    29cc:	04030000 	streq	r0, [r3], #-0
    29d0:	0001ee05 	andeq	lr, r1, r5, lsl #28
    29d4:	05080300 	streq	r0, [r8, #-768]	; 0x300
    29d8:	000001e9 	andeq	r0, r0, r9, ror #3
    29dc:	d7080103 	strle	r0, [r8, -r3, lsl #2]
    29e0:	03000000 	movweq	r0, #0
    29e4:	00fd0702 	rscseq	r0, sp, r2, lsl #14
    29e8:	04030000 	streq	r0, [r3], #-0
    29ec:	0001b507 	andeq	fp, r1, r7, lsl #10
    29f0:	07080300 	streq	r0, [r8, -r0, lsl #6]
    29f4:	000001b0 			; <UNDEFINED> instruction: 0x000001b0
    29f8:	e0070403 	and	r0, r7, r3, lsl #8
    29fc:	03000001 	movweq	r0, #1
    2a00:	00e00801 	rsceq	r0, r0, r1, lsl #16
    2a04:	0b040000 	bleq	102a0c <__bss_end__+0xf8484>
    2a08:	01000002 	tsteq	r0, r2
    2a0c:	0093a803 	addseq	sl, r3, r3, lsl #16
    2a10:	00001000 	andeq	r1, r0, r0
    2a14:	9c9c0100 	ldflss	f0, [ip], {0}
    2a18:	05000000 	streq	r0, [r0, #-0]
    2a1c:	04010072 	streq	r0, [r1], #-114	; 0x72
    2a20:	0000002c 	andeq	r0, r0, ip, lsr #32
    2a24:	00000c58 	andeq	r0, r0, r8, asr ip
    2a28:	06910600 	ldreq	r0, [r1], r0, lsl #12
    2a2c:	0c010000 	stceq	0, cr0, [r1], {-0}
    2a30:	000093b8 			; <UNDEFINED> instruction: 0x000093b8
    2a34:	00000010 	andeq	r0, r0, r0, lsl r0
    2a38:	72059c01 	andvc	r9, r5, #256	; 0x100
    2a3c:	2c0d0100 	stfcss	f0, [sp], {-0}
    2a40:	7c000000 	stcvc	0, cr0, [r0], {-0}
    2a44:	0000000c 	andeq	r0, r0, ip
    2a48:	00010f00 	andeq	r0, r1, r0, lsl #30
    2a4c:	26000400 	strcs	r0, [r0], -r0, lsl #8
    2a50:	0400000c 	streq	r0, [r0], #-12
    2a54:	00051a01 	andeq	r1, r5, r1, lsl #20
    2a58:	06c00100 	strbeq	r0, [r0], r0, lsl #2
    2a5c:	05850000 	streq	r0, [r5]
    2a60:	93c80000 	bicls	r0, r8, #0
    2a64:	002c0000 	eoreq	r0, ip, r0
    2a68:	0a2a0000 	beq	a82a70 <__bss_end__+0xa784e8>
    2a6c:	04020000 	streq	r0, [r2], #-0
    2a70:	746e6905 	strbtvc	r6, [lr], #-2309	; 0x905
    2a74:	07040300 	streq	r0, [r4, -r0, lsl #6]
    2a78:	000001ba 			; <UNDEFINED> instruction: 0x000001ba
    2a7c:	d9060103 	stmdble	r6, {r0, r1, r8}
    2a80:	03000000 	movweq	r0, #0
    2a84:	00260502 	eoreq	r0, r6, r2, lsl #10
    2a88:	04030000 	streq	r0, [r3], #-0
    2a8c:	0001ee05 	andeq	lr, r1, r5, lsl #28
    2a90:	05080300 	streq	r0, [r8, #-768]	; 0x300
    2a94:	000001e9 	andeq	r0, r0, r9, ror #3
    2a98:	d7080103 	strle	r0, [r8, -r3, lsl #2]
    2a9c:	03000000 	movweq	r0, #0
    2aa0:	00fd0702 	rscseq	r0, sp, r2, lsl #14
    2aa4:	04030000 	streq	r0, [r3], #-0
    2aa8:	0001b507 	andeq	fp, r1, r7, lsl #10
    2aac:	07080300 	streq	r0, [r8, -r0, lsl #6]
    2ab0:	000001b0 			; <UNDEFINED> instruction: 0x000001b0
    2ab4:	e0070403 	and	r0, r7, r3, lsl #8
    2ab8:	03000001 	movweq	r0, #1
    2abc:	00e00801 	rsceq	r0, r0, r1, lsl #16
    2ac0:	04040000 	streq	r0, [r4], #-0
    2ac4:	0000007f 	andeq	r0, r0, pc, ror r0
    2ac8:	00007205 	andeq	r7, r0, r5, lsl #4
    2acc:	00e50600 	rsceq	r0, r5, r0, lsl #12
    2ad0:	04010000 	streq	r0, [r1], #-0
    2ad4:	000093c8 	andeq	r9, r0, r8, asr #7
    2ad8:	0000002c 	andeq	r0, r0, ip, lsr #32
    2adc:	00d39c01 	sbcseq	r9, r3, r1, lsl #24
    2ae0:	d0070000 	andle	r0, r7, r0
    2ae4:	f3000093 	vqadd.u8	d0, d16, d3
    2ae8:	08000000 	stmdaeq	r0, {}	; <UNPREDICTABLE>
    2aec:	000093e0 	andeq	r9, r0, r0, ror #7
    2af0:	000000b5 	strheq	r0, [r0], -r5
    2af4:	05500109 	ldrbeq	r0, [r0, #-265]	; 0x109
    2af8:	00a04403 	adceq	r4, r0, r3, lsl #8
    2afc:	e80a0000 	stmda	sl, {}	; <UNPREDICTABLE>
    2b00:	fa000093 	blx	2d54 <__code_start__-0x52ac>
    2b04:	c9000000 	stmdbgt	r0, {}	; <UNPREDICTABLE>
    2b08:	09000000 	stmdbeq	r0, {}	; <UNPREDICTABLE>
    2b0c:	08025001 	stmdaeq	r2, {r0, ip, lr}
    2b10:	ec070064 	stc	0, cr0, [r7], {100}	; 0x64
    2b14:	0b000093 	bleq	2d68 <__code_start__-0x5298>
    2b18:	00000001 	andeq	r0, r0, r1
    2b1c:	0000250b 	andeq	r2, r0, fp, lsl #10
    2b20:	0000e200 	andeq	lr, r0, r0, lsl #4
    2b24:	00790c00 	rsbseq	r0, r9, r0, lsl #24
    2b28:	0d000000 	stceq	0, cr0, [r0, #-0]
    2b2c:	00000628 	andeq	r0, r0, r8, lsr #12
    2b30:	00ed2202 	rsceq	r2, sp, r2, lsl #4
    2b34:	04040000 	streq	r0, [r4], #-0
    2b38:	000000d3 	ldrdeq	r0, [r0], -r3
    2b3c:	0006b10e 	andeq	fp, r6, lr, lsl #2
    2b40:	0fdc0200 	svceq	0x00dc0200
    2b44:	000006e4 	andeq	r0, r0, r4, ror #13
    2b48:	010b4f02 	tsteq	fp, r2, lsl #30
    2b4c:	2c0c0000 	stccs	0, cr0, [ip], {-0}
    2b50:	00000000 	andeq	r0, r0, r0
    2b54:	0006d90e 	andeq	sp, r6, lr, lsl #18
    2b58:	00620200 	rsbeq	r0, r2, r0, lsl #4
    2b5c:	0000010f 	andeq	r0, r0, pc, lsl #2
    2b60:	0cf00004 	ldcleq	0, cr0, [r0], #16
    2b64:	01040000 	mrseq	r0, (UNDEF: 4)
    2b68:	0000051a 	andeq	r0, r0, sl, lsl r5
    2b6c:	00072601 	andeq	r2, r7, r1, lsl #12
    2b70:	00058500 	andeq	r8, r5, r0, lsl #10
    2b74:	0093f400 	addseq	pc, r3, r0, lsl #8
    2b78:	00003800 	andeq	r3, r0, r0, lsl #16
    2b7c:	000acb00 	andeq	ip, sl, r0, lsl #22
    2b80:	05040200 	streq	r0, [r4, #-512]	; 0x200
    2b84:	00746e69 	rsbseq	r6, r4, r9, ror #28
    2b88:	ba070403 	blt	1c3b9c <__bss_end__+0x1b9614>
    2b8c:	03000001 	movweq	r0, #1
    2b90:	00d90601 	sbcseq	r0, r9, r1, lsl #12
    2b94:	02030000 	andeq	r0, r3, #0
    2b98:	00002605 	andeq	r2, r0, r5, lsl #12
    2b9c:	05040300 	streq	r0, [r4, #-768]	; 0x300
    2ba0:	000001ee 	andeq	r0, r0, lr, ror #3
    2ba4:	e9050803 	stmdb	r5, {r0, r1, fp}
    2ba8:	03000001 	movweq	r0, #1
    2bac:	00d70801 	sbcseq	r0, r7, r1, lsl #16
    2bb0:	02030000 	andeq	r0, r3, #0
    2bb4:	0000fd07 	andeq	pc, r0, r7, lsl #26
    2bb8:	07040300 	streq	r0, [r4, -r0, lsl #6]
    2bbc:	000001b5 			; <UNDEFINED> instruction: 0x000001b5
    2bc0:	b0070803 	andlt	r0, r7, r3, lsl #16
    2bc4:	03000001 	movweq	r0, #1
    2bc8:	01e00704 	mvneq	r0, r4, lsl #14
    2bcc:	01030000 	mrseq	r0, (UNDEF: 3)
    2bd0:	0000e008 	andeq	lr, r0, r8
    2bd4:	071e0400 	ldreq	r0, [lr, -r0, lsl #8]
    2bd8:	0d010000 	stceq	0, cr0, [r1, #-0]
    2bdc:	000093f4 	strdeq	r9, [r0], -r4
    2be0:	00000038 	andeq	r0, r0, r8, lsr r0
    2be4:	00e19c01 	rsceq	r9, r1, r1, lsl #24
    2be8:	ed050000 	stc	0, cr0, [r5, #-0]
    2bec:	01000006 	tsteq	r0, r6
    2bf0:	0000250e 	andeq	r2, r0, lr, lsl #10
    2bf4:	06fb0500 	ldrbteq	r0, [fp], r0, lsl #10
    2bf8:	0e010000 	cdpeq	0, 0, cr0, cr1, cr0, {0}
    2bfc:	00000025 	andeq	r0, r0, r5, lsr #32
    2c00:	00009e06 	andeq	r9, r0, r6, lsl #28
    2c04:	070f0100 	streq	r0, [pc, -r0, lsl #2]
    2c08:	00737362 	rsbseq	r7, r3, r2, ror #6
    2c0c:	00e11101 	rsceq	r1, r1, r1, lsl #2
    2c10:	0ca00000 	stceq	0, cr0, [r0]
    2c14:	16080000 	strne	r0, [r8], -r0
    2c18:	01000007 	tsteq	r0, r7
    2c1c:	0000e112 	andeq	lr, r0, r2, lsl r1
    2c20:	941c0900 	ldrls	r0, [ip], #-2304	; 0x900
    2c24:	00fd0000 	rscseq	r0, sp, r0
    2c28:	20090000 	andcs	r0, r9, r0
    2c2c:	04000094 	streq	r0, [r0], #-148	; 0x94
    2c30:	09000001 	stmdbeq	r0, {r0}
    2c34:	00009424 	andeq	r9, r0, r4, lsr #8
    2c38:	0000010b 	andeq	r0, r0, fp, lsl #2
    2c3c:	25040a00 	strcs	r0, [r4, #-2560]	; 0xa00
    2c40:	05000000 	streq	r0, [r0, #-0]
    2c44:	000006ed 	andeq	r0, r0, sp, ror #13
    2c48:	00250e01 	eoreq	r0, r5, r1, lsl #28
    2c4c:	fb050000 	blx	142c56 <__bss_end__+0x1386ce>
    2c50:	01000006 	tsteq	r0, r6
    2c54:	0000250e 	andeq	r2, r0, lr, lsl #10
    2c58:	07070600 	streq	r0, [r7, -r0, lsl #12]
    2c5c:	da020000 	ble	82c64 <__bss_end__+0x786dc>
    2c60:	00009e06 	andeq	r9, r0, r6, lsl #28
    2c64:	06d70200 	ldrbeq	r0, [r7], r0, lsl #4
    2c68:	000000e5 	andeq	r0, r0, r5, ror #1
    2c6c:	3e006502 	cfsh32cc	mvfx6, mvfx0, #2
    2c70:	04000001 	streq	r0, [r0], #-1
    2c74:	000d8400 	andeq	r8, sp, r0, lsl #8
    2c78:	1a010400 	bne	43c80 <__bss_end__+0x396f8>
    2c7c:	01000005 	tsteq	r0, r5
    2c80:	00000739 	andeq	r0, r0, r9, lsr r7
    2c84:	00000585 	andeq	r0, r0, r5, lsl #11
    2c88:	0000942c 	andeq	r9, r0, ip, lsr #8
    2c8c:	00000044 	andeq	r0, r0, r4, asr #32
    2c90:	00000b75 	andeq	r0, r0, r5, ror fp
    2c94:	69050402 	stmdbvs	r5, {r1, sl}
    2c98:	0300746e 	movweq	r7, #1134	; 0x46e
    2c9c:	01ba0704 			; <UNDEFINED> instruction: 0x01ba0704
    2ca0:	01030000 	mrseq	r0, (UNDEF: 3)
    2ca4:	0000d906 	andeq	sp, r0, r6, lsl #18
    2ca8:	05020300 	streq	r0, [r2, #-768]	; 0x300
    2cac:	00000026 	andeq	r0, r0, r6, lsr #32
    2cb0:	ee050403 	cdp	4, 0, cr0, cr5, cr3, {0}
    2cb4:	03000001 	movweq	r0, #1
    2cb8:	01e90508 	mvneq	r0, r8, lsl #10
    2cbc:	01030000 	mrseq	r0, (UNDEF: 3)
    2cc0:	0000d708 	andeq	sp, r0, r8, lsl #14
    2cc4:	07020300 	streq	r0, [r2, -r0, lsl #6]
    2cc8:	000000fd 	strdeq	r0, [r0], -sp
    2ccc:	b5070403 	strlt	r0, [r7, #-1027]	; 0x403
    2cd0:	03000001 	movweq	r0, #1
    2cd4:	01b00708 	lslseq	r0, r8, #14
    2cd8:	04030000 	streq	r0, [r3], #-0
    2cdc:	0001e007 	andeq	lr, r1, r7
    2ce0:	08010300 	stmdaeq	r1, {r8, r9}
    2ce4:	000000e0 	andeq	r0, r0, r0, ror #1
    2ce8:	007f0404 	rsbseq	r0, pc, r4, lsl #8
    2cec:	72050000 	andvc	r0, r5, #0
    2cf0:	06000000 	streq	r0, [r0], -r0
    2cf4:	0000075a 	andeq	r0, r0, sl, asr r7
    2cf8:	942c0201 	strtls	r0, [ip], #-513	; 0x201
    2cfc:	00440000 	subeq	r0, r4, r0
    2d00:	9c010000 	stcls	0, cr0, [r1], {-0}
    2d04:	00000108 	andeq	r0, r0, r8, lsl #2
    2d08:	00637007 	rsbeq	r7, r3, r7
    2d0c:	002c0201 	eoreq	r0, ip, r1, lsl #4
    2d10:	0cc00000 	stcleq	0, cr0, [r0], {0}
    2d14:	27080000 	strcs	r0, [r8, -r0]
    2d18:	18000001 	stmdane	r0, {r0}
    2d1c:	05000001 	streq	r0, [r0, #-1]
    2d20:	00a05003 	adceq	r5, r0, r3
    2d24:	943c0900 	ldrtls	r0, [ip], #-2304	; 0x900
    2d28:	011d0000 	tsteq	sp, r0
    2d2c:	5c0a0000 	stcpl	0, cr0, [sl], {-0}
    2d30:	24000094 	strcs	r0, [r0], #-148	; 0x94
    2d34:	fe000001 	cdp2	0, 0, cr0, cr0, cr1, {0}
    2d38:	0b000000 	bleq	2d40 <__code_start__-0x52c0>
    2d3c:	32015301 	andcc	r5, r1, #67108864	; 0x4000000
    2d40:	0552010b 	ldrbeq	r0, [r2, #-267]	; 0x10b
    2d44:	00a05003 	adceq	r5, r0, r3
    2d48:	51010b00 	tstpl	r1, r0, lsl #22
    2d4c:	a0a40305 	adcge	r0, r4, r5, lsl #6
    2d50:	010b0000 	mrseq	r0, (UNDEF: 11)
    2d54:	68030550 	stmdavs	r3, {r4, r6, r8, sl}
    2d58:	0b0000a0 	bleq	2fe0 <__code_start__-0x5020>
    2d5c:	02047d02 	andeq	r7, r4, #2, 26	; 0x80
    2d60:	020b0074 	andeq	r0, fp, #116	; 0x74
    2d64:	0305007d 	movweq	r0, #20605	; 0x507d
    2d68:	0000a0c8 	andeq	sl, r0, r8, asr #1
    2d6c:	94600900 	strbtls	r0, [r0], #-2304	; 0x900
    2d70:	013a0000 	teqeq	sl, r0
    2d74:	0c000000 	stceq	0, cr0, [r0], {-0}
    2d78:	00000072 	andeq	r0, r0, r2, ror r0
    2d7c:	00000118 	andeq	r0, r0, r8, lsl r1
    2d80:	00006b0d 	andeq	r6, r0, sp, lsl #22
    2d84:	05001500 	streq	r1, [r0, #-1280]	; 0x500
    2d88:	00000108 	andeq	r0, r0, r8, lsl #2
    2d8c:	0002210e 	andeq	r2, r2, lr, lsl #2
    2d90:	0f1e0200 	svceq	0x001e0200
    2d94:	00000574 	andeq	r0, r0, r4, ror r5
    2d98:	00252902 	eoreq	r2, r5, r2, lsl #18
    2d9c:	013a0000 	teqeq	sl, r0
    2da0:	79100000 	ldmdbvc	r0, {}	; <UNPREDICTABLE>
    2da4:	11000000 	mrsne	r0, (UNDEF: 0)
    2da8:	00e50e00 	rsceq	r0, r5, r0, lsl #28
    2dac:	65020000 	strvs	r0, [r2, #-0]
    2db0:	00013e00 	andeq	r3, r1, r0, lsl #28
    2db4:	5c000400 	cfstrspl	mvf0, [r0], {-0}
    2db8:	0400000e 	streq	r0, [r0], #-14
    2dbc:	00051a01 	andeq	r1, r5, r1, lsl #20
    2dc0:	077d0100 	ldrbeq	r0, [sp, -r0, lsl #2]!
    2dc4:	05850000 	streq	r0, [r5]
    2dc8:	94700000 	ldrbtls	r0, [r0], #-0
    2dcc:	00440000 	subeq	r0, r4, r0
    2dd0:	0c1b0000 	ldceq	0, cr0, [fp], {-0}
    2dd4:	04020000 	streq	r0, [r2], #-0
    2dd8:	746e6905 	strbtvc	r6, [lr], #-2309	; 0x905
    2ddc:	07040300 	streq	r0, [r4, -r0, lsl #6]
    2de0:	000001ba 			; <UNDEFINED> instruction: 0x000001ba
    2de4:	d9060103 	stmdble	r6, {r0, r1, r8}
    2de8:	03000000 	movweq	r0, #0
    2dec:	00260502 	eoreq	r0, r6, r2, lsl #10
    2df0:	04030000 	streq	r0, [r3], #-0
    2df4:	0001ee05 	andeq	lr, r1, r5, lsl #28
    2df8:	05080300 	streq	r0, [r8, #-768]	; 0x300
    2dfc:	000001e9 	andeq	r0, r0, r9, ror #3
    2e00:	d7080103 	strle	r0, [r8, -r3, lsl #2]
    2e04:	03000000 	movweq	r0, #0
    2e08:	00fd0702 	rscseq	r0, sp, r2, lsl #14
    2e0c:	04030000 	streq	r0, [r3], #-0
    2e10:	0001b507 	andeq	fp, r1, r7, lsl #10
    2e14:	07080300 	streq	r0, [r8, -r0, lsl #6]
    2e18:	000001b0 			; <UNDEFINED> instruction: 0x000001b0
    2e1c:	e0070403 	and	r0, r7, r3, lsl #8
    2e20:	03000001 	movweq	r0, #1
    2e24:	00e00801 	rsceq	r0, r0, r1, lsl #16
    2e28:	04040000 	streq	r0, [r4], #-0
    2e2c:	0000007f 	andeq	r0, r0, pc, ror r0
    2e30:	00007205 	andeq	r7, r0, r5, lsl #4
    2e34:	07700600 	ldrbeq	r0, [r0, -r0, lsl #12]!
    2e38:	02010000 	andeq	r0, r1, #0
    2e3c:	00009470 	andeq	r9, r0, r0, ror r4
    2e40:	00000044 	andeq	r0, r0, r4, asr #32
    2e44:	01089c01 	tsteq	r8, r1, lsl #24
    2e48:	70070000 	andvc	r0, r7, r0
    2e4c:	02010063 	andeq	r0, r1, #99	; 0x63
    2e50:	0000002c 	andeq	r0, r0, ip, lsr #32
    2e54:	00000cde 	ldrdeq	r0, [r0], -lr
    2e58:	00012708 	andeq	r2, r1, r8, lsl #14
    2e5c:	00011800 	andeq	r1, r1, r0, lsl #16
    2e60:	d0030500 	andle	r0, r3, r0, lsl #10
    2e64:	090000a0 	stmdbeq	r0, {r5, r7}
    2e68:	00009480 	andeq	r9, r0, r0, lsl #9
    2e6c:	0000011d 	andeq	r0, r0, sp, lsl r1
    2e70:	0094a00a 	addseq	sl, r4, sl
    2e74:	00012400 	andeq	r2, r1, r0, lsl #8
    2e78:	0000fe00 	andeq	pc, r0, r0, lsl #28
    2e7c:	53010b00 	movwpl	r0, #6912	; 0x1b00
    2e80:	010b3201 	tsteq	fp, r1, lsl #4
    2e84:	d0030552 	andle	r0, r3, r2, asr r5
    2e88:	0b0000a0 	bleq	3110 <__code_start__-0x4ef0>
    2e8c:	03055101 	movweq	r5, #20737	; 0x5101
    2e90:	0000a0e0 	andeq	sl, r0, r0, ror #1
    2e94:	0550010b 	ldrbeq	r0, [r0, #-267]	; 0x10b
    2e98:	00a06803 	adceq	r6, r0, r3, lsl #16
    2e9c:	7d020b00 	vstrvc	d0, [r2, #-0]
    2ea0:	00740204 	rsbseq	r0, r4, r4, lsl #4
    2ea4:	007d020b 	rsbseq	r0, sp, fp, lsl #4
    2ea8:	a1040305 	tstge	r4, r5, lsl #6
    2eac:	09000000 	stmdbeq	r0, {}	; <UNPREDICTABLE>
    2eb0:	000094a4 	andeq	r9, r0, r4, lsr #9
    2eb4:	0000013a 	andeq	r0, r0, sl, lsr r1
    2eb8:	00720c00 	rsbseq	r0, r2, r0, lsl #24
    2ebc:	01180000 	tsteq	r8, r0
    2ec0:	6b0d0000 	blvs	342ec8 <__bss_end__+0x338940>
    2ec4:	0c000000 	stceq	0, cr0, [r0], {-0}
    2ec8:	01080500 	tsteq	r8, r0, lsl #10
    2ecc:	210e0000 	mrscs	r0, (UNDEF: 14)
    2ed0:	02000002 	andeq	r0, r0, #2
    2ed4:	05740f1e 	ldrbeq	r0, [r4, #-3870]!	; 0xf1e
    2ed8:	29020000 	stmdbcs	r2, {}	; <UNPREDICTABLE>
    2edc:	00000025 	andeq	r0, r0, r5, lsr #32
    2ee0:	0000013a 	andeq	r0, r0, sl, lsr r1
    2ee4:	00007910 	andeq	r7, r0, r0, lsl r9
    2ee8:	0e001100 	adfeqs	f1, f0, f0
    2eec:	000000e5 	andeq	r0, r0, r5, ror #1
    2ef0:	3e006502 	cfsh32cc	mvfx6, mvfx0, #2
    2ef4:	04000001 	streq	r0, [r0], #-1
    2ef8:	000f3400 	andeq	r3, pc, r0, lsl #8
    2efc:	1a010400 	bne	43f04 <__bss_end__+0x3997c>
    2f00:	01000005 	tsteq	r0, r5
    2f04:	0000079f 	muleq	r0, pc, r7	; <UNPREDICTABLE>
    2f08:	00000585 	andeq	r0, r0, r5, lsl #11
    2f0c:	000094b4 			; <UNDEFINED> instruction: 0x000094b4
    2f10:	00000044 	andeq	r0, r0, r4, asr #32
    2f14:	00000cc2 	andeq	r0, r0, r2, asr #25
    2f18:	69050402 	stmdbvs	r5, {r1, sl}
    2f1c:	0300746e 	movweq	r7, #1134	; 0x46e
    2f20:	01ba0704 			; <UNDEFINED> instruction: 0x01ba0704
    2f24:	01030000 	mrseq	r0, (UNDEF: 3)
    2f28:	0000d906 	andeq	sp, r0, r6, lsl #18
    2f2c:	05020300 	streq	r0, [r2, #-768]	; 0x300
    2f30:	00000026 	andeq	r0, r0, r6, lsr #32
    2f34:	ee050403 	cdp	4, 0, cr0, cr5, cr3, {0}
    2f38:	03000001 	movweq	r0, #1
    2f3c:	01e90508 	mvneq	r0, r8, lsl #10
    2f40:	01030000 	mrseq	r0, (UNDEF: 3)
    2f44:	0000d708 	andeq	sp, r0, r8, lsl #14
    2f48:	07020300 	streq	r0, [r2, -r0, lsl #6]
    2f4c:	000000fd 	strdeq	r0, [r0], -sp
    2f50:	b5070403 	strlt	r0, [r7, #-1027]	; 0x403
    2f54:	03000001 	movweq	r0, #1
    2f58:	01b00708 	lslseq	r0, r8, #14
    2f5c:	04030000 	streq	r0, [r3], #-0
    2f60:	0001e007 	andeq	lr, r1, r7
    2f64:	08010300 	stmdaeq	r1, {r8, r9}
    2f68:	000000e0 	andeq	r0, r0, r0, ror #1
    2f6c:	007f0404 	rsbseq	r0, pc, r4, lsl #8
    2f70:	72050000 	andvc	r0, r5, #0
    2f74:	06000000 	streq	r0, [r0], -r0
    2f78:	000007ca 	andeq	r0, r0, sl, asr #15
    2f7c:	94b40201 	ldrtls	r0, [r4], #513	; 0x201
    2f80:	00440000 	subeq	r0, r4, r0
    2f84:	9c010000 	stcls	0, cr0, [r1], {-0}
    2f88:	00000108 	andeq	r0, r0, r8, lsl #2
    2f8c:	00637007 	rsbeq	r7, r3, r7
    2f90:	002c0201 	eoreq	r0, ip, r1, lsl #4
    2f94:	0cfc0000 	ldcleq	0, cr0, [ip]
    2f98:	27080000 	strcs	r0, [r8, -r0]
    2f9c:	18000001 	stmdane	r0, {r0}
    2fa0:	05000001 	streq	r0, [r0, #-1]
    2fa4:	00a10c03 	adceq	r0, r1, r3, lsl #24
    2fa8:	94c40900 	strbls	r0, [r4], #2304	; 0x900
    2fac:	011d0000 	tsteq	sp, r0
    2fb0:	e40a0000 	str	r0, [sl], #-0
    2fb4:	24000094 	strcs	r0, [r0], #-148	; 0x94
    2fb8:	fe000001 	cdp2	0, 0, cr0, cr0, cr1, {0}
    2fbc:	0b000000 	bleq	2fc4 <__code_start__-0x503c>
    2fc0:	32015301 	andcc	r5, r1, #67108864	; 0x4000000
    2fc4:	0552010b 	ldrbeq	r0, [r2, #-267]	; 0x10b
    2fc8:	00a10c03 	adceq	r0, r1, r3, lsl #24
    2fcc:	51010b00 	tstpl	r1, r0, lsl #22
    2fd0:	a12c0305 	teqge	ip, r5, lsl #6
    2fd4:	010b0000 	mrseq	r0, (UNDEF: 11)
    2fd8:	68030550 	stmdavs	r3, {r4, r6, r8, sl}
    2fdc:	0b0000a0 	bleq	3264 <__code_start__-0x4d9c>
    2fe0:	02047d02 	andeq	r7, r4, #2, 26	; 0x80
    2fe4:	020b0074 	andeq	r0, fp, #116	; 0x74
    2fe8:	0305007d 	movweq	r0, #20605	; 0x507d
    2fec:	0000a158 	andeq	sl, r0, r8, asr r1
    2ff0:	94e80900 	strbtls	r0, [r8], #2304	; 0x900
    2ff4:	013a0000 	teqeq	sl, r0
    2ff8:	0c000000 	stceq	0, cr0, [r0], {-0}
    2ffc:	00000072 	andeq	r0, r0, r2, ror r0
    3000:	00000118 	andeq	r0, r0, r8, lsl r1
    3004:	00006b0d 	andeq	r6, r0, sp, lsl #22
    3008:	05001c00 	streq	r1, [r0, #-3072]	; 0xc00
    300c:	00000108 	andeq	r0, r0, r8, lsl #2
    3010:	0002210e 	andeq	r2, r2, lr, lsl #2
    3014:	0f1e0200 	svceq	0x001e0200
    3018:	00000574 	andeq	r0, r0, r4, ror r5
    301c:	00252902 	eoreq	r2, r5, r2, lsl #18
    3020:	013a0000 	teqeq	sl, r0
    3024:	79100000 	ldmdbvc	r0, {}	; <UNPREDICTABLE>
    3028:	11000000 	mrsne	r0, (UNDEF: 0)
    302c:	00e50e00 	rsceq	r0, r5, r0, lsl #28
    3030:	65020000 	strvs	r0, [r2, #-0]
    3034:	00009800 	andeq	r9, r0, r0, lsl #16
    3038:	0c000400 	cfstrseq	mvf0, [r0], {-0}
    303c:	04000010 	streq	r0, [r0], #-16
    3040:	00051a01 	andeq	r1, r5, r1, lsl #20
    3044:	07e70100 	strbeq	r0, [r7, r0, lsl #2]!
    3048:	05850000 	streq	r0, [r5]
    304c:	94f80000 	ldrbtls	r0, [r8], #0
    3050:	00080000 	andeq	r0, r8, r0
    3054:	0d720000 	ldcleq	0, cr0, [r2, #-0]
    3058:	04020000 	streq	r0, [r2], #-0
    305c:	746e6905 	strbtvc	r6, [lr], #-2309	; 0x905
    3060:	07040300 	streq	r0, [r4, -r0, lsl #6]
    3064:	000001ba 			; <UNDEFINED> instruction: 0x000001ba
    3068:	d9060103 	stmdble	r6, {r0, r1, r8}
    306c:	03000000 	movweq	r0, #0
    3070:	00260502 	eoreq	r0, r6, r2, lsl #10
    3074:	04030000 	streq	r0, [r3], #-0
    3078:	0001ee05 	andeq	lr, r1, r5, lsl #28
    307c:	05080300 	streq	r0, [r8, #-768]	; 0x300
    3080:	000001e9 	andeq	r0, r0, r9, ror #3
    3084:	d7080103 	strle	r0, [r8, -r3, lsl #2]
    3088:	03000000 	movweq	r0, #0
    308c:	00fd0702 	rscseq	r0, sp, r2, lsl #14
    3090:	04030000 	streq	r0, [r3], #-0
    3094:	0001b507 	andeq	fp, r1, r7, lsl #10
    3098:	07080300 	streq	r0, [r8, -r0, lsl #6]
    309c:	000001b0 			; <UNDEFINED> instruction: 0x000001b0
    30a0:	e0070403 	and	r0, r7, r3, lsl #8
    30a4:	03000001 	movweq	r0, #1
    30a8:	00e00801 	rsceq	r0, r0, r1, lsl #16
    30ac:	07040000 	streq	r0, [r4, -r0]
    30b0:	01000007 	tsteq	r0, r7
    30b4:	0094f804 	addseq	pc, r4, r4, lsl #16
    30b8:	00000400 	andeq	r0, r0, r0, lsl #8
    30bc:	049c0100 	ldreq	r0, [ip], #256	; 0x100
    30c0:	000006b1 			; <UNDEFINED> instruction: 0x000006b1
    30c4:	94fc0501 	ldrbtls	r0, [ip], #1281	; 0x501
    30c8:	00040000 	andeq	r0, r4, r0
    30cc:	9c010000 	stcls	0, cr0, [r1], {-0}
    30d0:	0001d700 	andeq	sp, r1, r0, lsl #14
    30d4:	4e000400 	cfcpysmi	mvf0, mvf0
    30d8:	04000010 	streq	r0, [r0], #-16
    30dc:	00051a01 	andeq	r1, r5, r1, lsl #20
    30e0:	08a30100 	stmiaeq	r3!, {r8}
    30e4:	05850000 	streq	r0, [r5]
    30e8:	95000000 	strls	r0, [r0, #-0]
    30ec:	006c0000 	rsbeq	r0, ip, r0
    30f0:	0dbd0000 	ldceq	0, cr0, [sp]
    30f4:	04020000 	streq	r0, [r2], #-0
    30f8:	746e6905 	strbtvc	r6, [lr], #-2309	; 0x905
    30fc:	07040300 	streq	r0, [r4, -r0, lsl #6]
    3100:	000001ba 			; <UNDEFINED> instruction: 0x000001ba
    3104:	d9060103 	stmdble	r6, {r0, r1, r8}
    3108:	03000000 	movweq	r0, #0
    310c:	00260502 	eoreq	r0, r6, r2, lsl #10
    3110:	04030000 	streq	r0, [r3], #-0
    3114:	0001ee05 	andeq	lr, r1, r5, lsl #28
    3118:	05080300 	streq	r0, [r8, #-768]	; 0x300
    311c:	000001e9 	andeq	r0, r0, r9, ror #3
    3120:	d7080103 	strle	r0, [r8, -r3, lsl #2]
    3124:	03000000 	movweq	r0, #0
    3128:	00fd0702 	rscseq	r0, sp, r2, lsl #14
    312c:	04030000 	streq	r0, [r3], #-0
    3130:	0001b507 	andeq	fp, r1, r7, lsl #10
    3134:	07080300 	streq	r0, [r8, -r0, lsl #6]
    3138:	000001b0 			; <UNDEFINED> instruction: 0x000001b0
    313c:	e0070403 	and	r0, r7, r3, lsl #8
    3140:	03000001 	movweq	r0, #1
    3144:	00e00801 	rsceq	r0, r0, r1, lsl #16
    3148:	04040000 	streq	r0, [r4], #-0
    314c:	00f01402 	rscseq	r1, r0, r2, lsl #8
    3150:	bc050000 	stclt	0, cr0, [r5], {-0}
    3154:	80000008 	andhi	r0, r0, r8
    3158:	028082e4 	addeq	r8, r0, #228, 4	; 0x4000000e
    315c:	00084205 	andeq	r4, r8, r5, lsl #4
    3160:	82e48000 	rschi	r8, r4, #0
    3164:	e9050280 	stmdb	r5, {r7, r9}
    3168:	84000008 	strhi	r0, [r0], #-8
    316c:	028082e4 	addeq	r8, r0, #228, 4	; 0x4000000e
    3170:	00080405 	andeq	r0, r8, r5, lsl #8
    3174:	82e48800 	rschi	r8, r4, #0, 16
    3178:	25050280 	strcs	r0, [r5, #-640]	; 0x280
    317c:	8c000008 	stchi	0, cr0, [r0], {8}
    3180:	028082e4 	addeq	r8, r0, #228, 4	; 0x4000000e
    3184:	00086605 	andeq	r6, r8, r5, lsl #12
    3188:	82e49000 	rschi	r9, r4, #0
    318c:	74050280 	strvc	r0, [r5], #-640	; 0x280
    3190:	94000008 	strls	r0, [r0], #-8
    3194:	028082e4 	addeq	r8, r0, #228, 4	; 0x4000000e
    3198:	00085405 	andeq	r5, r8, r5, lsl #8
    319c:	82e49800 	rschi	r9, r4, #0, 16
    31a0:	cb050280 	blgt	143ba8 <__bss_end__+0x139620>
    31a4:	9c000008 	stcls	0, cr0, [r0], {8}
    31a8:	028082e4 	addeq	r8, r0, #228, 4	; 0x4000000e
    31ac:	0008da05 	andeq	sp, r8, r5, lsl #20
    31b0:	82e4a000 	rschi	sl, r4, #0
    31b4:	12050280 	andne	r0, r5, #128, 4
    31b8:	a4000008 	strge	r0, [r0], #-8
    31bc:	028082e4 	addeq	r8, r0, #228, 4	; 0x4000000e
    31c0:	04130600 	ldreq	r0, [r3], #-1536	; 0x600
    31c4:	1b010000 	blne	431cc <__bss_end__+0x38c44>
    31c8:	00009500 	andeq	r9, r0, r0, lsl #10
    31cc:	0000006c 	andeq	r0, r0, ip, rrx
    31d0:	01a59c01 			; <UNDEFINED> instruction: 0x01a59c01
    31d4:	31070000 	mrscc	r0, (UNDEF: 7)
    31d8:	01000008 	tsteq	r0, r8
    31dc:	00002c23 	andeq	r2, r0, r3, lsr #24
    31e0:	08820700 	stmeq	r2, {r8, r9, sl}
    31e4:	24010000 	strcs	r0, [r1], #-0
    31e8:	0000002c 	andeq	r0, r0, ip, lsr #32
    31ec:	74736408 	ldrbtvc	r6, [r3], #-1032	; 0x408
    31f0:	a5270100 	strge	r0, [r7, #-256]!	; 0x100
    31f4:	00000001 	andeq	r0, r0, r1
    31f8:	63727309 	cmnvs	r2, #603979776	; 0x24000000
    31fc:	a5280100 	strge	r0, [r8, #-256]!	; 0x100
    3200:	0a000001 	beq	320c <__code_start__-0x4df4>
    3204:	2901006e 	stmdbcs	r1, {r1, r2, r3, r5, r6}
    3208:	0000002c 	andeq	r0, r0, ip, lsr #32
    320c:	340b5001 	strcc	r5, [fp], #-1
    3210:	24000095 	strcs	r0, [r0], #-149	; 0x95
    3214:	58000000 	stmdapl	r0, {}	; <UNPREDICTABLE>
    3218:	0c000001 	stceq	0, cr0, [r0], {1}
    321c:	2a010069 	bcs	433c8 <__bss_end__+0x38e40>
    3220:	00000025 	andeq	r0, r0, r5, lsr #32
    3224:	00000d1a 	andeq	r0, r0, sl, lsl sp
    3228:	95080d00 	strls	r0, [r8, #-3328]	; 0xd00
    322c:	01c10000 	biceq	r0, r1, r0
    3230:	140e0000 	strne	r0, [lr], #-0
    3234:	c8000095 	stmdagt	r0, {r0, r2, r4, r7}
    3238:	7e000001 	cdpvc	0, 0, cr0, cr0, cr1, {0}
    323c:	0f000001 	svceq	0x00000001
    3240:	09025101 	stmdbeq	r2, {r0, r8, ip, lr}
    3244:	50010fff 	strdpl	r0, [r1], -pc	; <UNPREDICTABLE>
    3248:	b21c0c05 	andslt	r0, ip, #1280	; 0x500
    324c:	0e002000 	cdpeq	0, 0, cr2, cr0, cr0, {0}
    3250:	00009520 	andeq	r9, r0, r0, lsr #10
    3254:	000001c8 	andeq	r0, r0, r8, asr #3
    3258:	0000019b 	muleq	r0, fp, r1
    325c:	0251010f 	subseq	r0, r1, #-1073741821	; 0xc0000003
    3260:	010fff09 	tsteq	pc, r9, lsl #30
    3264:	200c0550 	andcs	r0, ip, r0, asr r5
    3268:	002000b2 	strhteq	r0, [r0], -r2
    326c:	0095240d 	addseq	r2, r5, sp, lsl #8
    3270:	0001c100 	andeq	ip, r1, r0, lsl #2
    3274:	04100000 	ldreq	r0, [r0], #-0
    3278:	0000002c 	andeq	r0, r0, ip, lsr #32
    327c:	00083107 	andeq	r3, r8, r7, lsl #2
    3280:	2c230100 	stfcss	f0, [r3], #-0
    3284:	07000000 	streq	r0, [r0, -r0]
    3288:	00000882 	andeq	r0, r0, r2, lsl #17
    328c:	002c2401 	eoreq	r2, ip, r1, lsl #8
    3290:	97110000 	ldrls	r0, [r1, -r0]
    3294:	03000008 	movweq	r0, #8
    3298:	08c51289 	stmiaeq	r5, {r0, r3, r7, r9, ip}^
    329c:	9b030000 	blls	c32a4 <__bss_end__+0xb8d1c>
    32a0:	00002c13 	andeq	r2, r0, r3, lsl ip
    32a4:	002c1300 	eoreq	r1, ip, r0, lsl #6
    32a8:	00000000 	andeq	r0, r0, r0
    32ac:	000001ad 	andeq	r0, r0, sp, lsr #3
    32b0:	11540004 	cmpne	r4, r4
    32b4:	01040000 	mrseq	r0, (UNDEF: 4)
    32b8:	0000051a 	andeq	r0, r0, sl, lsl r5
    32bc:	00090501 	andeq	r0, r9, r1, lsl #10
    32c0:	00058500 	andeq	r8, r5, r0, lsl #10
	...
    32cc:	000e8a00 	andeq	r8, lr, r0, lsl #20
    32d0:	05040200 	streq	r0, [r4, #-512]	; 0x200
    32d4:	00746e69 	rsbseq	r6, r4, r9, ror #28
    32d8:	ba070403 	blt	1c42ec <__bss_end__+0x1b9d64>
    32dc:	03000001 	movweq	r0, #1
    32e0:	00d90601 	sbcseq	r0, r9, r1, lsl #12
    32e4:	02030000 	andeq	r0, r3, #0
    32e8:	00002605 	andeq	r2, r0, r5, lsl #12
    32ec:	05040300 	streq	r0, [r4, #-768]	; 0x300
    32f0:	000001ee 	andeq	r0, r0, lr, ror #3
    32f4:	e9050803 	stmdb	r5, {r0, r1, fp}
    32f8:	03000001 	movweq	r0, #1
    32fc:	00d70801 	sbcseq	r0, r7, r1, lsl #16
    3300:	02030000 	andeq	r0, r3, #0
    3304:	0000fd07 	andeq	pc, r0, r7, lsl #26
    3308:	07040300 	streq	r0, [r4, -r0, lsl #6]
    330c:	000001b5 			; <UNDEFINED> instruction: 0x000001b5
    3310:	b0070803 	andlt	r0, r7, r3, lsl #16
    3314:	03000001 	movweq	r0, #1
    3318:	01e00704 	mvneq	r0, r4, lsl #14
    331c:	01030000 	mrseq	r0, (UNDEF: 3)
    3320:	0000e008 	andeq	lr, r0, r8
    3324:	08f70400 	ldmeq	r7!, {sl}^
    3328:	0e010000 	cdpeq	0, 0, cr0, cr1, cr0, {0}
    332c:	00000025 	andeq	r0, r0, r5, lsr #32
    3330:	0000956c 	andeq	r9, r0, ip, ror #10
    3334:	00000018 	andeq	r0, r0, r8, lsl r0
    3338:	00a29c01 	adceq	r9, r2, r1, lsl #24
    333c:	da050000 	ble	143344 <__bss_end__+0x138dbc>
    3340:	01000004 	tsteq	r0, r4
    3344:	00002c0f 	andeq	r2, r0, pc, lsl #24
    3348:	000d3900 	andeq	r3, sp, r0, lsl #18
    334c:	39060000 	stmdbcc	r6, {}	; <UNPREDICTABLE>
    3350:	01000009 	tsteq	r0, r9
    3354:	00958417 	addseq	r8, r5, r7, lsl r4
    3358:	00001400 	andeq	r1, r0, r0, lsl #8
    335c:	c79c0100 	ldrgt	r0, [ip, r0, lsl #2]
    3360:	05000000 	streq	r0, [r0, #-0]
    3364:	000004da 	ldrdeq	r0, [r0], -sl
    3368:	002c1801 	eoreq	r1, ip, r1, lsl #16
    336c:	0d580000 	ldcleq	0, cr0, [r8, #-0]
    3370:	06000000 	streq	r0, [r0], -r0
    3374:	000006d9 	ldrdeq	r0, [r0], -r9
    3378:	95981f01 	ldrls	r1, [r8, #3841]	; 0xf01
    337c:	00480000 	subeq	r0, r8, r0
    3380:	9c010000 	stcls	0, cr0, [r1], {-0}
    3384:	00000177 	andeq	r0, r0, r7, ror r1
    3388:	00095407 	andeq	r5, r9, r7, lsl #8
    338c:	772a0100 	strvc	r0, [sl, -r0, lsl #2]!
    3390:	1c000001 	stcne	0, cr0, [r0], {1}
    3394:	07201000 	streq	r1, [r0, -r0]!
    3398:	00000931 	andeq	r0, r0, r1, lsr r9
    339c:	01772b01 	cmneq	r7, r1, lsl #22
    33a0:	00240000 	eoreq	r0, r4, r0
    33a4:	48072010 	stmdami	r7, {r4, sp}
    33a8:	01000009 	tsteq	r0, r9
    33ac:	0001772c 	andeq	r7, r1, ip, lsr #14
    33b0:	00000000 	andeq	r0, r0, r0
    33b4:	0918085a 	ldmdbeq	r8, {r1, r3, r4, r6, fp}
    33b8:	2d010000 	stccs	0, cr0, [r1, #-0]
    33bc:	00000177 	andeq	r0, r0, r7, ror r1
    33c0:	95a00920 	strls	r0, [r0, #2336]!	; 0x920
    33c4:	00790000 	rsbseq	r0, r9, r0
    33c8:	ac090000 	stcge	0, cr0, [r9], {-0}
    33cc:	a2000095 	andge	r0, r0, #149	; 0x95
    33d0:	0a000000 	beq	33d8 <__code_start__-0x4c28>
    33d4:	000095b4 			; <UNDEFINED> instruction: 0x000095b4
    33d8:	0000018d 	andeq	r0, r0, sp, lsl #3
    33dc:	0000013a 	andeq	r0, r0, sl, lsr r1
    33e0:	0150010b 	cmpeq	r0, fp, lsl #2
    33e4:	c00a004e 	andgt	r0, sl, lr, asr #32
    33e8:	9e000095 	mcrls	0, 0, r0, cr0, cr5, {4}
    33ec:	5a000001 	bpl	33f8 <__code_start__-0x4c08>
    33f0:	0b000001 	bleq	33fc <__code_start__-0x4c04>
    33f4:	0c055101 	stfeqs	f5, [r5], {1}
    33f8:	5a000001 	bpl	3404 <__code_start__-0x4bfc>
    33fc:	0550010b 	ldrbeq	r0, [r0, #-267]	; 0x10b
    3400:	1000240c 	andne	r2, r0, ip, lsl #8
    3404:	cc0c0020 	stcgt	0, cr0, [ip], {32}
    3408:	9e000095 	mcrls	0, 0, r0, cr0, cr5, {4}
    340c:	0b000001 	bleq	3418 <__code_start__-0x4be8>
    3410:	0c055101 	stfeqs	f5, [r5], {1}
    3414:	5a000020 	bpl	349c <__code_start__-0x4b64>
    3418:	0550010b 	ldrbeq	r0, [r0, #-267]	; 0x10b
    341c:	10001c0c 	andne	r1, r0, ip, lsl #24
    3420:	0d000020 	stceq	0, cr0, [r0, #-128]	; 0xffffff80
    3424:	00000025 	andeq	r0, r0, r5, lsr #32
    3428:	0008fa08 	andeq	pc, r8, r8, lsl #20
    342c:	880d0100 	stmdahi	sp, {r8}
    3430:	10000001 	andne	r0, r0, r1
    3434:	00002c0d 	andeq	r2, r0, sp, lsl #24
    3438:	06e40e00 	strbteq	r0, [r4], r0, lsl #28
    343c:	4f020000 	svcmi	0x00020000
    3440:	0000019e 	muleq	r0, lr, r1
    3444:	00002c0f 	andeq	r2, r0, pc, lsl #24
    3448:	c5100000 	ldrgt	r0, [r0, #-0]
    344c:	02000008 	andeq	r0, r0, #8
    3450:	002c0f9b 	mlaeq	ip, fp, pc, r0	; <UNPREDICTABLE>
    3454:	2c0f0000 	stccs	0, cr0, [pc], {-0}
    3458:	00000000 	andeq	r0, r0, r0
    345c:	0001f700 	andeq	pc, r1, r0, lsl #14
    3460:	42000400 	andmi	r0, r0, #0, 8
    3464:	04000012 	streq	r0, [r0], #-18
    3468:	00051a01 	andeq	r1, r5, r1, lsl #20
    346c:	09790100 	ldmdbeq	r9!, {r8}^
    3470:	05850000 	streq	r0, [r5]
    3474:	95e00000 	strbls	r0, [r0, #0]!
    3478:	00980000 	addseq	r0, r8, r0
    347c:	0f300000 	svceq	0x00300000
    3480:	04020000 	streq	r0, [r2], #-0
    3484:	746e6905 	strbtvc	r6, [lr], #-2309	; 0x905
    3488:	07040300 	streq	r0, [r4, -r0, lsl #6]
    348c:	000001ba 			; <UNDEFINED> instruction: 0x000001ba
    3490:	d9060103 	stmdble	r6, {r0, r1, r8}
    3494:	03000000 	movweq	r0, #0
    3498:	00260502 	eoreq	r0, r6, r2, lsl #10
    349c:	04030000 	streq	r0, [r3], #-0
    34a0:	0001ee05 	andeq	lr, r1, r5, lsl #28
    34a4:	05080300 	streq	r0, [r8, #-768]	; 0x300
    34a8:	000001e9 	andeq	r0, r0, r9, ror #3
    34ac:	d7080103 	strle	r0, [r8, -r3, lsl #2]
    34b0:	03000000 	movweq	r0, #0
    34b4:	00fd0702 	rscseq	r0, sp, r2, lsl #14
    34b8:	04030000 	streq	r0, [r3], #-0
    34bc:	0001b507 	andeq	fp, r1, r7, lsl #10
    34c0:	07080300 	streq	r0, [r8, -r0, lsl #6]
    34c4:	000001b0 			; <UNDEFINED> instruction: 0x000001b0
    34c8:	e0070403 	and	r0, r7, r3, lsl #8
    34cc:	03000001 	movweq	r0, #1
    34d0:	00e00801 	rsceq	r0, r0, r1, lsl #16
    34d4:	97040000 	strls	r0, [r4, -r0]
    34d8:	01000009 	tsteq	r0, r9
    34dc:	0095e005 	addseq	lr, r5, r5
    34e0:	00001c00 	andeq	r1, r0, r0, lsl #24
    34e4:	9e9c0100 	fmllse	f0, f4, f0
    34e8:	05000000 	streq	r0, [r0, #-0]
    34ec:	00000991 	muleq	r0, r1, r9
    34f0:	002c0501 	eoreq	r0, ip, r1, lsl #10
    34f4:	0d820000 	stceq	0, cr0, [r2]
    34f8:	06000000 	streq	r0, [r0], -r0
    34fc:	0000095c 	andeq	r0, r0, ip, asr r9
    3500:	002c1101 	eoreq	r1, ip, r1, lsl #2
    3504:	95fc0000 	ldrbls	r0, [ip, #0]!
    3508:	00140000 	andseq	r0, r4, r0
    350c:	9c010000 	stcls	0, cr0, [r1], {-0}
    3510:	000000cb 	andeq	r0, r0, fp, asr #1
    3514:	00960807 	addseq	r0, r6, r7, lsl #16
    3518:	0001de00 	andeq	sp, r1, r0, lsl #28
    351c:	50010800 	andpl	r0, r1, r0, lsl #16
    3520:	30040c05 	andcc	r0, r4, r5, lsl #24
    3524:	00002000 	andeq	r2, r0, r0
    3528:	0009ad06 	andeq	sl, r9, r6, lsl #26
    352c:	2c160100 	ldfcss	f0, [r6], {-0}
    3530:	10000000 	andne	r0, r0, r0
    3534:	1c000096 	stcne	0, cr0, [r0], {150}	; 0x96
    3538:	01000000 	mrseq	r0, (UNDEF: 0)
    353c:	00010d9c 	muleq	r1, ip, sp
    3540:	00750900 	rsbseq	r0, r5, r0, lsl #18
    3544:	002c1a01 	eoreq	r1, ip, r1, lsl #20
    3548:	0db60000 	ldceq	0, cr0, [r6]
    354c:	180a0000 	stmdane	sl, {}	; <UNPREDICTABLE>
    3550:	f3000096 	vqadd.u8	d0, d16, d6
    3554:	0a000001 	beq	3560 <__code_start__-0x4aa0>
    3558:	0000961c 	andeq	r9, r0, ip, lsl r6
    355c:	0000009e 	muleq	r0, lr, r0
    3560:	0096240a 	addseq	r2, r6, sl, lsl #8
    3564:	0001f300 	andeq	pc, r1, r0, lsl #6
    3568:	a4040000 	strge	r0, [r4], #-0
    356c:	01000009 	tsteq	r0, r9
    3570:	00962c1f 	addseq	r2, r6, pc, lsl ip
    3574:	00002400 	andeq	r2, r0, r0, lsl #8
    3578:	6b9c0100 	blvs	fe703980 <__bss_end__+0xfe6f93f8>
    357c:	0b000001 	bleq	3588 <__code_start__-0x4a78>
    3580:	01007375 	tsteq	r0, r5, ror r3
    3584:	00002c1f 	andeq	r2, r0, pc, lsl ip
    3588:	000dd400 	andeq	sp, sp, r0, lsl #8
    358c:	62720c00 	rsbsvs	r0, r2, #0, 24
    3590:	2c200100 	stfcss	f0, [r0], #-0
    3594:	01000000 	mrseq	r0, (UNDEF: 0)
    3598:	963c0d54 			; <UNDEFINED> instruction: 0x963c0d54
    359c:	00100000 	andseq	r0, r0, r0
    35a0:	01610000 	cmneq	r1, r0
    35a4:	72090000 	andvc	r0, r9, #0
    35a8:	22010061 	andcs	r0, r1, #97	; 0x61
    35ac:	0000002c 	andeq	r0, r0, ip, lsr #32
    35b0:	00000df2 	strdeq	r0, [r0], -r2
    35b4:	0096400a 	addseq	r4, r6, sl
    35b8:	0000cb00 	andeq	ip, r0, r0, lsl #22
    35bc:	380a0000 	stmdacc	sl, {}	; <UNPREDICTABLE>
    35c0:	cb000096 	blgt	3820 <__code_start__-0x47e0>
    35c4:	00000000 	andeq	r0, r0, r0
    35c8:	0006e404 	andeq	lr, r6, r4, lsl #8
    35cc:	50280100 	eorpl	r0, r8, r0, lsl #2
    35d0:	14000096 	strne	r0, [r0], #-150	; 0x96
    35d4:	01000000 	mrseq	r0, (UNDEF: 0)
    35d8:	0001a49c 	muleq	r1, ip, r4
    35dc:	736d0b00 	cmnvc	sp, #0, 22
    35e0:	2c280100 	stfcss	f0, [r8], #-0
    35e4:	05000000 	streq	r0, [r0, #-0]
    35e8:	0700000e 	streq	r0, [r0, -lr]
    35ec:	00009660 	andeq	r9, r0, r0, ror #12
    35f0:	0000010d 	andeq	r0, r0, sp, lsl #2
    35f4:	07500108 	ldrbeq	r0, [r0, -r8, lsl #2]
    35f8:	0a5001f3 	beq	1403dcc <__bss_end__+0x13f9844>
    35fc:	001e03e8 	andseq	r0, lr, r8, ror #7
    3600:	096f0400 	stmdbeq	pc!, {sl}^	; <UNPREDICTABLE>
    3604:	2b010000 	blcs	4360c <__bss_end__+0x39084>
    3608:	00009664 	andeq	r9, r0, r4, ror #12
    360c:	00000014 	andeq	r0, r0, r4, lsl r0
    3610:	01de9c01 	bicseq	r9, lr, r1, lsl #24
    3614:	730b0000 	movwvc	r0, #45056	; 0xb000
    3618:	01006365 	tsteq	r0, r5, ror #6
    361c:	00002c2b 	andeq	r2, r0, fp, lsr #24
    3620:	000e2600 	andeq	r2, lr, r0, lsl #12
    3624:	96740700 	ldrbtls	r0, [r4], -r0, lsl #14
    3628:	016b0000 	cmneq	fp, r0
    362c:	01080000 	mrseq	r0, (UNDEF: 8)
    3630:	01f30750 	mvnseq	r0, r0, asr r7
    3634:	03e80a50 	mvneq	r0, #80, 20	; 0x50000
    3638:	0e00001e 	mcreq	0, 0, r0, cr0, cr14, {0}
    363c:	0000098b 	andeq	r0, r0, fp, lsl #19
    3640:	002ca702 	eoreq	sl, ip, r2, lsl #14
    3644:	01f30000 	mvnseq	r0, r0
    3648:	2c0f0000 	stccs	0, cr0, [pc], {-0}
    364c:	00000000 	andeq	r0, r0, r0
    3650:	00089710 	andeq	r9, r8, r0, lsl r7
    3654:	00890200 	addeq	r0, r9, r0, lsl #4
    3658:	00000cc5 	andeq	r0, r0, r5, asr #25
    365c:	13380004 	teqne	r8, #4
    3660:	01040000 	mrseq	r0, (UNDEF: 4)
    3664:	00000d58 	andeq	r0, r0, r8, asr sp
    3668:	000abb0c 	andeq	fp, sl, ip, lsl #22
    366c:	000ad600 	andeq	sp, sl, r0, lsl #12
    3670:	0096dc00 	addseq	sp, r6, r0, lsl #24
    3674:	00017800 	andeq	r7, r1, r0, lsl #16
    3678:	000fe200 	andeq	lr, pc, r0, lsl #4
    367c:	05040200 	streq	r0, [r4, #-512]	; 0x200
    3680:	00746e69 	rsbseq	r6, r4, r9, ror #28
    3684:	ba070403 	blt	1c4698 <__bss_end__+0x1ba110>
    3688:	04000001 	streq	r0, [r0], #-1
    368c:	0000002c 	andeq	r0, r0, ip, lsr #32
    3690:	d9060103 	stmdble	r6, {r0, r1, r8}
    3694:	03000000 	movweq	r0, #0
    3698:	00260502 	eoreq	r0, r6, r2, lsl #10
    369c:	04030000 	streq	r0, [r3], #-0
    36a0:	0001ee05 	andeq	lr, r1, r5, lsl #28
    36a4:	05080300 	streq	r0, [r8, #-768]	; 0x300
    36a8:	000001e9 	andeq	r0, r0, r9, ror #3
    36ac:	d7080103 	strle	r0, [r8, -r3, lsl #2]
    36b0:	03000000 	movweq	r0, #0
    36b4:	00fd0702 	rscseq	r0, sp, r2, lsl #14
    36b8:	04030000 	streq	r0, [r3], #-0
    36bc:	0001b507 	andeq	fp, r1, r7, lsl #10
    36c0:	07080300 	streq	r0, [r8, -r0, lsl #6]
    36c4:	000001b0 			; <UNDEFINED> instruction: 0x000001b0
    36c8:	000c6d05 	andeq	r6, ip, r5, lsl #26
    36cc:	25070200 	strcs	r0, [r7, #-512]	; 0x200
    36d0:	05000000 	streq	r0, [r0, #-0]
    36d4:	00000c57 	andeq	r0, r0, r7, asr ip
    36d8:	00462c03 	subeq	r2, r6, r3, lsl #24
    36dc:	33050000 	movwcc	r0, #20480	; 0x5000
    36e0:	0300000d 	movweq	r0, #13
    36e4:	00004672 	andeq	r4, r0, r2, ror r6
    36e8:	0bfb0600 	bleq	ffec4ef0 <__bss_end__+0xffeba968>
    36ec:	65040000 	strvs	r0, [r4, #-0]
    36f0:	00002c01 	andeq	r2, r0, r1, lsl #24
    36f4:	03040700 	movweq	r0, #18176	; 0x4700
    36f8:	0000bca6 	andeq	fp, r0, r6, lsr #25
    36fc:	0be60800 	bleq	ff985704 <__bss_end__+0xff97b17c>
    3700:	a8030000 	stmdage	r3, {}	; <UNPREDICTABLE>
    3704:	00000091 	muleq	r0, r1, r0
    3708:	000b8e08 	andeq	r8, fp, r8, lsl #28
    370c:	bca90300 	stclt	3, cr0, [r9]
    3710:	00000000 	andeq	r0, r0, r0
    3714:	00005409 	andeq	r5, r0, r9, lsl #8
    3718:	0000cc00 	andeq	ip, r0, r0, lsl #24
    371c:	00cc0a00 	sbceq	r0, ip, r0, lsl #20
    3720:	00030000 	andeq	r0, r3, r0
    3724:	e0070403 	and	r0, r7, r3, lsl #8
    3728:	0b000001 	bleq	3734 <__code_start__-0x48cc>
    372c:	f4a30308 	vld4.8	{d0[0],d1[0],d2[0],d3[0]}, [r3], r8
    3730:	0c000000 	stceq	0, cr0, [r0], {-0}
    3734:	00000d18 	andeq	r0, r0, r8, lsl sp
    3738:	0025a503 	eoreq	sl, r5, r3, lsl #10
    373c:	0c000000 	stceq	0, cr0, [r0], {-0}
    3740:	00000d20 	andeq	r0, r0, r0, lsr #26
    3744:	009daa03 	addseq	sl, sp, r3, lsl #20
    3748:	00040000 	andeq	r0, r4, r0
    374c:	000cab05 	andeq	sl, ip, r5, lsl #22
    3750:	d3ab0300 			; <UNDEFINED> instruction: 0xd3ab0300
    3754:	05000000 	streq	r0, [r0, #-0]
    3758:	00000b57 	andeq	r0, r0, r7, asr fp
    375c:	0070af03 	rsbseq	sl, r0, r3, lsl #30
    3760:	040d0000 	streq	r0, [sp], #-0
    3764:	0112040e 	tsteq	r2, lr, lsl #8
    3768:	01030000 	mrseq	r0, (UNDEF: 3)
    376c:	0000e008 	andeq	lr, r0, r8
    3770:	01120f00 	tsteq	r2, r0, lsl #30
    3774:	d5050000 	strle	r0, [r5, #-0]
    3778:	0500000d 	streq	r0, [r0, #-13]
    377c:	00006216 	andeq	r6, r0, r6, lsl r2
    3780:	0b681000 	bleq	1a07788 <__bss_end__+0x19fd200>
    3784:	05180000 	ldreq	r0, [r8, #-0]
    3788:	00017c2d 	andeq	r7, r1, sp, lsr #24
    378c:	0ccc0c00 	stcleq	12, cr0, [ip], {0}
    3790:	2f050000 	svccs	0x00050000
    3794:	0000017c 	andeq	r0, r0, ip, ror r1
    3798:	6b5f1100 	blvs	17c7ba0 <__bss_end__+0x17bd618>
    379c:	25300500 	ldrcs	r0, [r0, #-1280]!	; 0x500
    37a0:	04000000 	streq	r0, [r0], #-0
    37a4:	000d030c 	andeq	r0, sp, ip, lsl #6
    37a8:	25300500 	ldrcs	r0, [r0, #-1280]!	; 0x500
    37ac:	08000000 	stmdaeq	r0, {}	; <UNPREDICTABLE>
    37b0:	000b430c 	andeq	r4, fp, ip, lsl #6
    37b4:	25300500 	ldrcs	r0, [r0, #-1280]!	; 0x500
    37b8:	0c000000 	stceq	0, cr0, [r0], {-0}
    37bc:	000e1c0c 	andeq	r1, lr, ip, lsl #24
    37c0:	25300500 	ldrcs	r0, [r0, #-1280]!	; 0x500
    37c4:	10000000 	andne	r0, r0, r0
    37c8:	00785f11 	rsbseq	r5, r8, r1, lsl pc
    37cc:	01823105 	orreq	r3, r2, r5, lsl #2
    37d0:	00140000 	andseq	r0, r4, r0
    37d4:	0129040e 	teqeq	r9, lr, lsl #8
    37d8:	1e090000 	cdpne	0, 0, cr0, cr9, cr0, {0}
    37dc:	92000001 	andls	r0, r0, #1
    37e0:	0a000001 	beq	37ec <__code_start__-0x4814>
    37e4:	000000cc 	andeq	r0, r0, ip, asr #1
    37e8:	89100000 	ldmdbhi	r0, {}	; <UNPREDICTABLE>
    37ec:	2400000b 	strcs	r0, [r0], #-11
    37f0:	020b3505 	andeq	r3, fp, #20971520	; 0x1400000
    37f4:	410c0000 	mrsmi	r0, (UNDEF: 12)
    37f8:	0500000a 	streq	r0, [r0, #-10]
    37fc:	00002537 	andeq	r2, r0, r7, lsr r5
    3800:	3b0c0000 	blcc	303808 <__bss_end__+0x2f9280>
    3804:	0500000d 	streq	r0, [r0, #-13]
    3808:	00002538 	andeq	r2, r0, r8, lsr r5
    380c:	6f0c0400 	svcvs	0x000c0400
    3810:	0500000a 	streq	r0, [r0, #-10]
    3814:	00002539 	andeq	r2, r0, r9, lsr r5
    3818:	0c0c0800 	stceq	8, cr0, [ip], {-0}
    381c:	0500000f 	streq	r0, [r0, #-15]
    3820:	0000253a 	andeq	r2, r0, sl, lsr r5
    3824:	3b0c0c00 	blcc	30682c <__bss_end__+0x2fc2a4>
    3828:	0500000c 	streq	r0, [r0, #-12]
    382c:	0000253b 	andeq	r2, r0, fp, lsr r5
    3830:	100c1000 	andne	r1, ip, r0
    3834:	0500000c 	streq	r0, [r0, #-12]
    3838:	0000253c 	andeq	r2, r0, ip, lsr r5
    383c:	210c1400 	tstcs	ip, r0, lsl #8
    3840:	0500000e 	streq	r0, [r0, #-14]
    3844:	0000253d 	andeq	r2, r0, sp, lsr r5
    3848:	8d0c1800 	stchi	8, cr1, [ip, #-0]
    384c:	0500000c 	streq	r0, [r0, #-12]
    3850:	0000253e 	andeq	r2, r0, lr, lsr r5
    3854:	d30c1c00 	movwle	r1, #52224	; 0xcc00
    3858:	0500000e 	streq	r0, [r0, #-14]
    385c:	0000253f 	andeq	r2, r0, pc, lsr r5
    3860:	12002000 	andne	r2, r0, #0
    3864:	00000a7e 	andeq	r0, r0, lr, ror sl
    3868:	48050108 	stmdami	r5, {r3, r8}
    386c:	0000024b 	andeq	r0, r0, fp, asr #4
    3870:	000b2a0c 	andeq	r2, fp, ip, lsl #20
    3874:	4b490500 	blmi	1244c7c <__bss_end__+0x123a6f4>
    3878:	00000002 	andeq	r0, r0, r2
    387c:	0009bc0c 	andeq	fp, r9, ip, lsl #24
    3880:	4b4a0500 	blmi	1284c88 <__bss_end__+0x127a700>
    3884:	80000002 	andhi	r0, r0, r2
    3888:	000dc713 	andeq	ip, sp, r3, lsl r7
    388c:	1e4c0500 	cdpne	5, 4, cr0, cr12, cr0, {0}
    3890:	00000001 	andeq	r0, r0, r1
    3894:	0aa31301 	beq	fe8c84a0 <__bss_end__+0xfe8bdf18>
    3898:	4f050000 	svcmi	0x00050000
    389c:	0000011e 	andeq	r0, r0, lr, lsl r1
    38a0:	09000104 	stmdbeq	r0, {r2, r8}
    38a4:	0000010a 	andeq	r0, r0, sl, lsl #2
    38a8:	0000025b 	andeq	r0, r0, fp, asr r2
    38ac:	0000cc0a 	andeq	ip, r0, sl, lsl #24
    38b0:	12001f00 	andne	r1, r0, #0, 30
    38b4:	00000c44 	andeq	r0, r0, r4, asr #24
    38b8:	5b050190 	blpl	143f00 <__bss_end__+0x139978>
    38bc:	00000299 	muleq	r0, r9, r2
    38c0:	000ccc0c 	andeq	ip, ip, ip, lsl #24
    38c4:	995c0500 	ldmdbls	ip, {r8, sl}^
    38c8:	00000002 	andeq	r0, r0, r2
    38cc:	000ce40c 	andeq	lr, ip, ip, lsl #8
    38d0:	255d0500 	ldrbcs	r0, [sp, #-1280]	; 0x500
    38d4:	04000000 	streq	r0, [r0], #-0
    38d8:	000b3e0c 	andeq	r3, fp, ip, lsl #28
    38dc:	9f5f0500 	svcls	0x005f0500
    38e0:	08000002 	stmdaeq	r0, {r1}
    38e4:	000a7e0c 	andeq	r7, sl, ip, lsl #28
    38e8:	0b600500 	bleq	1804cf0 <__bss_end__+0x17fa768>
    38ec:	88000002 	stmdahi	r0, {r1}
    38f0:	5b040e00 	blpl	1070f8 <__bss_end__+0xfcb70>
    38f4:	09000002 	stmdbeq	r0, {r1}
    38f8:	000002af 	andeq	r0, r0, pc, lsr #5
    38fc:	000002af 	andeq	r0, r0, pc, lsr #5
    3900:	0000cc0a 	andeq	ip, r0, sl, lsl #24
    3904:	0e001f00 	cdpeq	15, 0, cr1, cr0, cr0, {0}
    3908:	0002b504 	andeq	fp, r2, r4, lsl #10
    390c:	97101400 	ldrls	r1, [r0, -r0, lsl #8]
    3910:	0800000c 	stmdaeq	r0, {r2, r3}
    3914:	02db7305 	sbcseq	r7, fp, #335544320	; 0x14000000
    3918:	640c0000 	strvs	r0, [ip], #-0
    391c:	0500000a 	streq	r0, [r0, #-10]
    3920:	0002db74 	andeq	sp, r2, r4, ror fp
    3924:	c80c0000 	stmdagt	ip, {}	; <UNPREDICTABLE>
    3928:	05000009 	streq	r0, [r0, #-9]
    392c:	00002575 	andeq	r2, r0, r5, ror r5
    3930:	0e000400 	cfcpyseq	mvf0, mvf0
    3934:	00005404 	andeq	r5, r0, r4, lsl #8
    3938:	0cb61000 	ldceq	0, cr1, [r6]
    393c:	05680000 	strbeq	r0, [r8, #-0]!
    3940:	00040bb3 			; <UNDEFINED> instruction: 0x00040bb3
    3944:	705f1100 	subsvc	r1, pc, r0, lsl #2
    3948:	dbb40500 	blle	fed04d50 <__bss_end__+0xfecfa7c8>
    394c:	00000002 	andeq	r0, r0, r2
    3950:	00725f11 	rsbseq	r5, r2, r1, lsl pc
    3954:	0025b505 	eoreq	fp, r5, r5, lsl #10
    3958:	11040000 	mrsne	r0, (UNDEF: 4)
    395c:	0500775f 	streq	r7, [r0, #-1887]	; 0x75f
    3960:	000025b6 			; <UNDEFINED> instruction: 0x000025b6
    3964:	9c0c0800 	stcls	8, cr0, [ip], {-0}
    3968:	0500000a 	streq	r0, [r0, #-10]
    396c:	00003fb7 			; <UNDEFINED> instruction: 0x00003fb7
    3970:	af0c0c00 	svcge	0x000c0c00
    3974:	0500000b 	streq	r0, [r0, #-11]
    3978:	00003fb8 			; <UNDEFINED> instruction: 0x00003fb8
    397c:	5f110e00 	svcpl	0x00110e00
    3980:	05006662 	streq	r6, [r0, #-1634]	; 0x662
    3984:	0002b6b9 			; <UNDEFINED> instruction: 0x0002b6b9
    3988:	0b0c1000 	bleq	307990 <__bss_end__+0x2fd408>
    398c:	0500000a 	streq	r0, [r0, #-10]
    3990:	000025ba 			; <UNDEFINED> instruction: 0x000025ba
    3994:	8c0c1800 	stchi	8, cr1, [ip], {-0}
    3998:	0500000a 	streq	r0, [r0, #-10]
    399c:	00010ac1 	andeq	r0, r1, r1, asr #21
    39a0:	330c1c00 	movwcc	r1, #52224	; 0xcc00
    39a4:	0500000f 	streq	r0, [r0, #-15]
    39a8:	000566c3 	andeq	r6, r5, r3, asr #13
    39ac:	4d0c2000 	stcmi	0, cr2, [ip, #-0]
    39b0:	0500000f 	streq	r0, [r0, #-15]
    39b4:	000590c5 	andeq	r9, r5, r5, asr #1
    39b8:	280c2400 	stmdacs	ip, {sl, sp}
    39bc:	0500000d 	streq	r0, [r0, #-13]
    39c0:	0005b4c8 	andeq	fp, r5, r8, asr #9
    39c4:	ed0c2800 	stc	8, cr2, [ip, #-0]
    39c8:	0500000e 	streq	r0, [r0, #-14]
    39cc:	0005cec9 	andeq	ip, r5, r9, asr #29
    39d0:	5f112c00 	svcpl	0x00112c00
    39d4:	05006275 	streq	r6, [r0, #-629]	; 0x275
    39d8:	0002b6cc 	andeq	fp, r2, ip, asr #13
    39dc:	5f113000 	svcpl	0x00113000
    39e0:	05007075 	streq	r7, [r0, #-117]	; 0x75
    39e4:	0002dbcd 	andeq	sp, r2, sp, asr #23
    39e8:	5f113800 	svcpl	0x00113800
    39ec:	05007275 	streq	r7, [r0, #-629]	; 0x275
    39f0:	000025ce 	andeq	r2, r0, lr, asr #11
    39f4:	4f0c3c00 	svcmi	0x000c3c00
    39f8:	0500000a 	streq	r0, [r0, #-10]
    39fc:	0005d4d1 	ldrdeq	sp, [r5], -r1
    3a00:	980c4000 	stmdals	ip, {lr}
    3a04:	0500000e 	streq	r0, [r0, #-14]
    3a08:	0005e4d2 	ldrdeq	lr, [r5], -r2
    3a0c:	5f114300 	svcpl	0x00114300
    3a10:	0500626c 	streq	r6, [r0, #-620]	; 0x26c
    3a14:	0002b6d5 	ldrdeq	fp, [r2], -r5
    3a18:	b20c4400 	andlt	r4, ip, #0, 8
    3a1c:	0500000a 	streq	r0, [r0, #-10]
    3a20:	000025d8 	ldrdeq	r2, [r0], -r8
    3a24:	1a0c4c00 	bne	316a2c <__bss_end__+0x30c4a4>
    3a28:	0500000c 	streq	r0, [r0, #-12]
    3a2c:	00007bd9 	ldrdeq	r7, [r0], -r9
    3a30:	830c5000 	movwhi	r5, #49152	; 0xc000
    3a34:	0500000e 	streq	r0, [r0, #-14]
    3a38:	000429dc 	ldrdeq	r2, [r4], -ip
    3a3c:	020c5400 	andeq	r5, ip, #0, 8
    3a40:	0500000c 	streq	r0, [r0, #-12]
    3a44:	0000ffe0 	andeq	pc, r0, r0, ror #31
    3a48:	be0c5800 	cdplt	8, 0, cr5, cr12, cr0, {0}
    3a4c:	0500000c 	streq	r0, [r0, #-12]
    3a50:	0000f4e2 	andeq	pc, r0, r2, ror #9
    3a54:	080c5c00 	stmdaeq	ip, {sl, fp, ip, lr}
    3a58:	0500000c 	streq	r0, [r0, #-12]
    3a5c:	000025e3 	andeq	r2, r0, r3, ror #11
    3a60:	15006400 	strne	r6, [r0, #-1024]	; 0x400
    3a64:	00000025 	andeq	r0, r0, r5, lsr #32
    3a68:	00000429 	andeq	r0, r0, r9, lsr #8
    3a6c:	00042916 	andeq	r2, r4, r6, lsl r9
    3a70:	010a1600 	tsteq	sl, r0, lsl #12
    3a74:	0c160000 	ldceq	0, cr0, [r6], {-0}
    3a78:	16000001 	strne	r0, [r0], -r1
    3a7c:	00000025 	andeq	r0, r0, r5, lsr #32
    3a80:	34040e00 	strcc	r0, [r4], #-3584	; 0xe00
    3a84:	0f000004 	svceq	0x00000004
    3a88:	00000429 	andeq	r0, r0, r9, lsr #8
    3a8c:	000d0b17 	andeq	r0, sp, r7, lsl fp
    3a90:	05042800 	streq	r2, [r4, #-2048]	; 0x800
    3a94:	05660238 	strbeq	r0, [r6, #-568]!	; 0x238
    3a98:	86180000 	ldrhi	r0, [r8], -r0
    3a9c:	0500000c 	streq	r0, [r0, #-12]
    3aa0:	0025023a 	eoreq	r0, r5, sl, lsr r2
    3aa4:	18000000 	stmdane	r0, {}	; <UNPREDICTABLE>
    3aa8:	00000aab 	andeq	r0, r0, fp, lsr #21
    3aac:	3b023f05 	blcc	936c8 <__bss_end__+0x89140>
    3ab0:	04000006 	streq	r0, [r0], #-6
    3ab4:	000b9f18 	andeq	r9, fp, r8, lsl pc
    3ab8:	023f0500 	eorseq	r0, pc, #0, 10
    3abc:	0000063b 	andeq	r0, r0, fp, lsr r6
    3ac0:	0b601808 	bleq	1809ae8 <__bss_end__+0x17ff560>
    3ac4:	3f050000 	svccc	0x00050000
    3ac8:	00063b02 	andeq	r3, r6, r2, lsl #22
    3acc:	df180c00 	svcle	0x00180c00
    3ad0:	0500000c 	streq	r0, [r0, #-12]
    3ad4:	00250241 	eoreq	r0, r5, r1, asr #4
    3ad8:	18100000 	ldmdane	r0, {}	; <UNPREDICTABLE>
    3adc:	000009d6 	ldrdeq	r0, [r0], -r6
    3ae0:	1d024205 	sfmne	f4, 4, [r2, #-20]	; 0xffffffec
    3ae4:	14000008 	strne	r0, [r0], #-8
    3ae8:	000dfd18 	andeq	pc, sp, r8, lsl sp	; <UNPREDICTABLE>
    3aec:	02440500 	subeq	r0, r4, #0, 10
    3af0:	00000025 	andeq	r0, r0, r5, lsr #32
    3af4:	0ce91830 	stcleq	8, cr1, [r9], #192	; 0xc0
    3af8:	45050000 	strmi	r0, [r5, #-0]
    3afc:	00058a02 	andeq	r8, r5, r2, lsl #20
    3b00:	4c183400 	cfldrsmi	mvf3, [r8], {-0}
    3b04:	0500000c 	streq	r0, [r0, #-12]
    3b08:	00250247 	eoreq	r0, r5, r7, asr #4
    3b0c:	18380000 	ldmdane	r8!, {}	; <UNPREDICTABLE>
    3b10:	00000cf9 	strdeq	r0, [r0], -r9
    3b14:	38024905 	stmdacc	r2, {r0, r2, r8, fp, lr}
    3b18:	3c000008 	stccc	0, cr0, [r0], {8}
    3b1c:	000bde18 	andeq	sp, fp, r8, lsl lr
    3b20:	024c0500 	subeq	r0, ip, #0, 10
    3b24:	0000017c 	andeq	r0, r0, ip, ror r1
    3b28:	0b7f1840 	bleq	1fc9c30 <__bss_end__+0x1fbf6a8>
    3b2c:	4d050000 	stcmi	0, cr0, [r5, #-0]
    3b30:	00002502 	andeq	r2, r0, r2, lsl #10
    3b34:	07184400 	ldreq	r4, [r8, -r0, lsl #8]
    3b38:	0500000f 	streq	r0, [r0, #-15]
    3b3c:	017c024e 	cmneq	ip, lr, asr #4
    3b40:	18480000 	stmdane	r8, {}^	; <UNPREDICTABLE>
    3b44:	00000c63 	andeq	r0, r0, r3, ror #24
    3b48:	3e024f05 	cdpcc	15, 0, cr4, cr2, cr5, {0}
    3b4c:	4c000008 	stcmi	0, cr0, [r0], {8}
    3b50:	000ba718 	andeq	sl, fp, r8, lsl r7
    3b54:	02520500 	subseq	r0, r2, #0, 10
    3b58:	00000025 	andeq	r0, r0, r5, lsr #32
    3b5c:	0ace1850 	beq	ff389ca4 <__bss_end__+0xff37f71c>
    3b60:	53050000 	movwpl	r0, #20480	; 0x5000
    3b64:	00010c02 	andeq	r0, r1, r2, lsl #24
    3b68:	7f185400 	svcvc	0x00185400
    3b6c:	0500000c 	streq	r0, [r0, #-12]
    3b70:	07fb0276 			; <UNDEFINED> instruction: 0x07fb0276
    3b74:	19580000 	ldmdbne	r8, {}^	; <UNPREDICTABLE>
    3b78:	00000c44 	andeq	r0, r0, r4, asr #24
    3b7c:	99027a05 	stmdbls	r2, {r0, r2, r9, fp, ip, sp, lr}
    3b80:	48000002 	stmdami	r0, {r1}
    3b84:	0bbc1901 	bleq	fef09f90 <__bss_end__+0xfeeffa08>
    3b88:	7b050000 	blvc	143b90 <__bss_end__+0x139608>
    3b8c:	00025b02 	andeq	r5, r2, r2, lsl #22
    3b90:	19014c00 	stmdbne	r1, {sl, fp, lr}
    3b94:	00000e69 	andeq	r0, r0, r9, ror #28
    3b98:	4f027f05 	svcmi	0x00027f05
    3b9c:	dc000008 	stcle	0, cr0, [r0], {8}
    3ba0:	0a941902 	beq	fe509fb0 <__bss_end__+0xfe4ffa28>
    3ba4:	84050000 	strhi	r0, [r5], #-0
    3ba8:	00060002 	andeq	r0, r6, r2
    3bac:	1902e000 	stmdbne	r2, {sp, lr, pc}
    3bb0:	00000a79 	andeq	r0, r0, r9, ror sl
    3bb4:	5b028505 	blpl	a4fd0 <__bss_end__+0x9aa48>
    3bb8:	ec000008 	stc	0, cr0, [r0], {8}
    3bbc:	040e0002 	streq	r0, [lr], #-2
    3bc0:	0000040b 	andeq	r0, r0, fp, lsl #8
    3bc4:	00002515 	andeq	r2, r0, r5, lsl r5
    3bc8:	00058a00 	andeq	r8, r5, r0, lsl #20
    3bcc:	04291600 	strteq	r1, [r9], #-1536	; 0x600
    3bd0:	0a160000 	beq	583bd8 <__bss_end__+0x579650>
    3bd4:	16000001 	strne	r0, [r0], -r1
    3bd8:	0000058a 	andeq	r0, r0, sl, lsl #11
    3bdc:	00002516 	andeq	r2, r0, r6, lsl r5
    3be0:	040e0000 	streq	r0, [lr], #-0
    3be4:	00000119 	andeq	r0, r0, r9, lsl r1
    3be8:	056c040e 	strbeq	r0, [ip, #-1038]!	; 0x40e
    3bec:	86150000 	ldrhi	r0, [r5], -r0
    3bf0:	b4000000 	strlt	r0, [r0], #-0
    3bf4:	16000005 	strne	r0, [r0], -r5
    3bf8:	00000429 	andeq	r0, r0, r9, lsr #8
    3bfc:	00010a16 	andeq	r0, r1, r6, lsl sl
    3c00:	00861600 	addeq	r1, r6, r0, lsl #12
    3c04:	25160000 	ldrcs	r0, [r6, #-0]
    3c08:	00000000 	andeq	r0, r0, r0
    3c0c:	0596040e 	ldreq	r0, [r6, #1038]	; 0x40e
    3c10:	25150000 	ldrcs	r0, [r5, #-0]
    3c14:	ce000000 	cdpgt	0, 0, cr0, cr0, cr0, {0}
    3c18:	16000005 	strne	r0, [r0], -r5
    3c1c:	00000429 	andeq	r0, r0, r9, lsr #8
    3c20:	00010a16 	andeq	r0, r1, r6, lsl sl
    3c24:	040e0000 	streq	r0, [lr], #-0
    3c28:	000005ba 			; <UNDEFINED> instruction: 0x000005ba
    3c2c:	00005409 	andeq	r5, r0, r9, lsl #8
    3c30:	0005e400 	andeq	lr, r5, r0, lsl #8
    3c34:	00cc0a00 	sbceq	r0, ip, r0, lsl #20
    3c38:	00020000 	andeq	r0, r2, r0
    3c3c:	00005409 	andeq	r5, r0, r9, lsl #8
    3c40:	0005f400 	andeq	pc, r5, r0, lsl #8
    3c44:	00cc0a00 	sbceq	r0, ip, r0, lsl #20
    3c48:	00000000 	andeq	r0, r0, r0
    3c4c:	000ca406 	andeq	sl, ip, r6, lsl #8
    3c50:	011d0500 	tsteq	sp, r0, lsl #10
    3c54:	000002e1 	andeq	r0, r0, r1, ror #5
    3c58:	000e2b1a 	andeq	r2, lr, sl, lsl fp
    3c5c:	21050c00 	tstcs	r5, r0, lsl #24
    3c60:	00063501 	andeq	r3, r6, r1, lsl #10
    3c64:	0ccc1800 	stcleq	8, cr1, [ip], {0}
    3c68:	23050000 	movwcs	r0, #20480	; 0x5000
    3c6c:	00063501 	andeq	r3, r6, r1, lsl #10
    3c70:	b5180000 	ldrlt	r0, [r8, #-0]
    3c74:	0500000b 	streq	r0, [r0, #-11]
    3c78:	00250124 	eoreq	r0, r5, r4, lsr #2
    3c7c:	18040000 	stmdane	r4, {}	; <UNPREDICTABLE>
    3c80:	00000c9e 	muleq	r0, lr, ip
    3c84:	3b012505 	blcc	4d0a0 <__bss_end__+0x42b18>
    3c88:	08000006 	stmdaeq	r0, {r1, r2}
    3c8c:	00040e00 	andeq	r0, r4, r0, lsl #28
    3c90:	0e000006 	cdpeq	0, 0, cr0, cr0, cr6, {0}
    3c94:	0005f404 	andeq	pc, r5, r4, lsl #8
    3c98:	09ce1a00 	stmibeq	lr, {r9, fp, ip}^
    3c9c:	050e0000 	streq	r0, [lr, #-0]
    3ca0:	0676013d 			; <UNDEFINED> instruction: 0x0676013d
    3ca4:	12180000 	andsne	r0, r8, #0
    3ca8:	0500000d 	streq	r0, [r0, #-13]
    3cac:	0676013e 			; <UNDEFINED> instruction: 0x0676013e
    3cb0:	18000000 	stmdane	r0, {}	; <UNPREDICTABLE>
    3cb4:	00000d4c 	andeq	r0, r0, ip, asr #26
    3cb8:	76013f05 	strvc	r3, [r1], -r5, lsl #30
    3cbc:	06000006 	streq	r0, [r0], -r6
    3cc0:	000dd018 	andeq	sp, sp, r8, lsl r0
    3cc4:	01400500 	cmpeq	r0, r0, lsl #10
    3cc8:	0000005b 	andeq	r0, r0, fp, asr r0
    3ccc:	5b09000c 	blpl	243d04 <__bss_end__+0x23977c>
    3cd0:	86000000 	strhi	r0, [r0], -r0
    3cd4:	0a000006 	beq	3cf4 <__code_start__-0x430c>
    3cd8:	000000cc 	andeq	r0, r0, ip, asr #1
    3cdc:	d01b0002 	andsle	r0, fp, r2
    3ce0:	87025705 	strhi	r5, [r2, -r5, lsl #14]
    3ce4:	18000007 	stmdane	r0, {r0, r1, r2}
    3ce8:	00000e0f 	andeq	r0, r0, pc, lsl #28
    3cec:	2c025905 	stccs	9, cr5, [r2], {5}
    3cf0:	00000000 	andeq	r0, r0, r0
    3cf4:	000dba18 	andeq	fp, sp, r8, lsl sl
    3cf8:	025a0500 	subseq	r0, sl, #0, 10
    3cfc:	0000010c 	andeq	r0, r0, ip, lsl #2
    3d00:	0bd11804 	bleq	ff449d18 <__bss_end__+0xff43f790>
    3d04:	5b050000 	blpl	143d0c <__bss_end__+0x139784>
    3d08:	00078702 	andeq	r8, r7, r2, lsl #14
    3d0c:	de180800 	cdple	8, 1, cr0, cr8, cr0, {0}
    3d10:	0500000e 	streq	r0, [r0, #-14]
    3d14:	0192025c 	orrseq	r0, r2, ip, asr r2
    3d18:	18240000 	stmdane	r4!, {}	; <UNPREDICTABLE>
    3d1c:	00000b70 	andeq	r0, r0, r0, ror fp
    3d20:	25025d05 	strcs	r5, [r2, #-3333]	; 0xd05
    3d24:	48000000 	stmdami	r0, {}	; <UNPREDICTABLE>
    3d28:	000cc718 	andeq	ip, ip, r8, lsl r7
    3d2c:	025e0500 	subseq	r0, lr, #0, 10
    3d30:	00000069 	andeq	r0, r0, r9, rrx
    3d34:	0ef41850 	mrceq	8, 7, r1, cr4, cr0, {2}
    3d38:	5f050000 	svcpl	0x00050000
    3d3c:	00064102 	andeq	r4, r6, r2, lsl #2
    3d40:	d2185800 	andsle	r5, r8, #0, 16
    3d44:	0500000c 	streq	r0, [r0, #-12]
    3d48:	00f40260 	rscseq	r0, r4, r0, ror #4
    3d4c:	18680000 	stmdane	r8!, {}^	; <UNPREDICTABLE>
    3d50:	00000ef9 	strdeq	r0, [r0], -r9
    3d54:	f4026105 	vst4.8	{d6,d8,d10,d12}, [r2], r5
    3d58:	70000000 	andvc	r0, r0, r0
    3d5c:	000a3318 	andeq	r3, sl, r8, lsl r3
    3d60:	02620500 	rsbeq	r0, r2, #0, 10
    3d64:	000000f4 	strdeq	r0, [r0], -r4
    3d68:	0e4b1878 	mcreq	8, 2, r1, cr11, cr8, {3}
    3d6c:	63050000 	movwvs	r0, #20480	; 0x5000
    3d70:	00079702 	andeq	r9, r7, r2, lsl #14
    3d74:	c5188000 	ldrgt	r8, [r8, #-0]
    3d78:	0500000b 	streq	r0, [r0, #-11]
    3d7c:	07a70264 	streq	r0, [r7, r4, ror #4]!
    3d80:	18880000 	stmne	r8, {}	; <UNPREDICTABLE>
    3d84:	00000ddd 	ldrdeq	r0, [r0], -sp
    3d88:	25026505 	strcs	r6, [r2, #-1285]	; 0x505
    3d8c:	a0000000 	andge	r0, r0, r0
    3d90:	000b1c18 	andeq	r1, fp, r8, lsl ip
    3d94:	02660500 	rsbeq	r0, r6, #0, 10
    3d98:	000000f4 	strdeq	r0, [r0], -r4
    3d9c:	0a2418a4 	beq	90a034 <__bss_end__+0x8ffaac>
    3da0:	67050000 	strvs	r0, [r5, -r0]
    3da4:	0000f402 	andeq	pc, r0, r2, lsl #8
    3da8:	0b18ac00 	bleq	62edb0 <__bss_end__+0x624828>
    3dac:	0500000b 	streq	r0, [r0, #-11]
    3db0:	00f40268 	rscseq	r0, r4, r8, ror #4
    3db4:	18b40000 	ldmne	r4!, {}	; <UNPREDICTABLE>
    3db8:	000009eb 	andeq	r0, r0, fp, ror #19
    3dbc:	f4026905 	vst2.8	{d6,d8}, [r2], r5
    3dc0:	bc000000 	stclt	0, cr0, [r0], {-0}
    3dc4:	0009fa18 	andeq	pc, r9, r8, lsl sl	; <UNPREDICTABLE>
    3dc8:	026a0500 	rsbeq	r0, sl, #0, 10
    3dcc:	000000f4 	strdeq	r0, [r0], -r4
    3dd0:	0c8418c4 	stceq	8, cr1, [r4], {196}	; 0xc4
    3dd4:	6b050000 	blvs	143ddc <__bss_end__+0x139854>
    3dd8:	00002502 	andeq	r2, r0, r2, lsl #10
    3ddc:	0900cc00 	stmdbeq	r0, {sl, fp, lr, pc}
    3de0:	00000112 	andeq	r0, r0, r2, lsl r1
    3de4:	00000797 	muleq	r0, r7, r7
    3de8:	0000cc0a 	andeq	ip, r0, sl, lsl #24
    3dec:	09001900 	stmdbeq	r0, {r8, fp, ip}
    3df0:	00000112 	andeq	r0, r0, r2, lsl r1
    3df4:	000007a7 	andeq	r0, r0, r7, lsr #15
    3df8:	0000cc0a 	andeq	ip, r0, sl, lsl #24
    3dfc:	09000700 	stmdbeq	r0, {r8, r9, sl}
    3e00:	00000112 	andeq	r0, r0, r2, lsl r1
    3e04:	000007b7 			; <UNDEFINED> instruction: 0x000007b7
    3e08:	0000cc0a 	andeq	ip, r0, sl, lsl #24
    3e0c:	1b001700 	blne	9a14 <__data_end__+0x94>
    3e10:	027005f0 	rsbseq	r0, r0, #240, 10	; 0x3c000000
    3e14:	000007db 	ldrdeq	r0, [r0], -fp
    3e18:	000c3418 	andeq	r3, ip, r8, lsl r4
    3e1c:	02730500 	rsbseq	r0, r3, #0, 10
    3e20:	000007db 	ldrdeq	r0, [r0], -fp
    3e24:	0e421800 	cdpeq	8, 4, cr1, cr2, cr0, {0}
    3e28:	74050000 	strvc	r0, [r5], #-0
    3e2c:	0007eb02 	andeq	lr, r7, r2, lsl #22
    3e30:	09007800 	stmdbeq	r0, {fp, ip, sp, lr}
    3e34:	000002db 	ldrdeq	r0, [r0], -fp
    3e38:	000007eb 	andeq	r0, r0, fp, ror #15
    3e3c:	0000cc0a 	andeq	ip, r0, sl, lsl #24
    3e40:	09001d00 	stmdbeq	r0, {r8, sl, fp, ip}
    3e44:	0000002c 	andeq	r0, r0, ip, lsr #32
    3e48:	000007fb 	strdeq	r0, [r0], -fp
    3e4c:	0000cc0a 	andeq	ip, r0, sl, lsl #24
    3e50:	1c001d00 	stcne	13, cr1, [r0], {-0}
    3e54:	025505f0 	subseq	r0, r5, #240, 10	; 0x3c000000
    3e58:	0000081d 	andeq	r0, r0, sp, lsl r8
    3e5c:	000d0b1d 	andeq	r0, sp, sp, lsl fp
    3e60:	026c0500 	rsbeq	r0, ip, #0, 10
    3e64:	00000686 	andeq	r0, r0, r6, lsl #13
    3e68:	000e9e1d 	andeq	r9, lr, sp, lsl lr
    3e6c:	02750500 	rsbseq	r0, r5, #0, 10
    3e70:	000007b7 			; <UNDEFINED> instruction: 0x000007b7
    3e74:	01120900 	tsteq	r2, r0, lsl #18
    3e78:	082d0000 	stmdaeq	sp!, {}	; <UNPREDICTABLE>
    3e7c:	cc0a0000 	stcgt	0, cr0, [sl], {-0}
    3e80:	18000000 	stmdane	r0, {}	; <UNPREDICTABLE>
    3e84:	08381e00 	ldmdaeq	r8!, {r9, sl, fp, ip}
    3e88:	29160000 	ldmdbcs	r6, {}	; <UNPREDICTABLE>
    3e8c:	00000004 	andeq	r0, r0, r4
    3e90:	082d040e 	stmdaeq	sp!, {r1, r2, r3, sl}
    3e94:	040e0000 	streq	r0, [lr], #-0
    3e98:	0000017c 	andeq	r0, r0, ip, ror r1
    3e9c:	00084f1e 	andeq	r4, r8, lr, lsl pc
    3ea0:	00251600 	eoreq	r1, r5, r0, lsl #12
    3ea4:	0e000000 	cdpeq	0, 0, cr0, cr0, cr0, {0}
    3ea8:	00085504 	andeq	r5, r8, r4, lsl #10
    3eac:	44040e00 	strmi	r0, [r4], #-3584	; 0xe00
    3eb0:	09000008 	stmdbeq	r0, {r3}
    3eb4:	000005f4 	strdeq	r0, [r0], -r4
    3eb8:	0000086b 	andeq	r0, r0, fp, ror #16
    3ebc:	0000cc0a 	andeq	ip, r0, sl, lsl #24
    3ec0:	1f000200 	svcne	0x00000200
    3ec4:	00000df1 	strdeq	r0, [r0], -r1
    3ec8:	2902fd05 	stmdbcs	r2, {r0, r2, r8, sl, fp, ip, sp, lr, pc}
    3ecc:	1f000004 	svcne	0x00000004
    3ed0:	00000dea 	andeq	r0, r0, sl, ror #27
    3ed4:	2f02fe05 	svccs	0x0002fe05
    3ed8:	15000004 	strne	r0, [r0, #-4]
    3edc:	00000025 	andeq	r0, r0, r5, lsr #32
    3ee0:	00000892 	muleq	r0, r2, r8
    3ee4:	00002516 	andeq	r2, r0, r6, lsl r5
    3ee8:	eb200000 	bl	803ef0 <__bss_end__+0x7f9968>
    3eec:	06000005 	streq	r0, [r0], -r5
    3ef0:	00089d1d 	andeq	r9, r8, sp, lsl sp
    3ef4:	83040e00 	movwhi	r0, #19968	; 0x4e00
    3ef8:	15000008 	strne	r0, [r0, #-8]
    3efc:	00000025 	andeq	r0, r0, r5, lsr #32
    3f00:	000008b2 			; <UNDEFINED> instruction: 0x000008b2
    3f04:	00058a16 	andeq	r8, r5, r6, lsl sl
    3f08:	28200000 	stmdacs	r0!, {}	; <UNPREDICTABLE>
    3f0c:	06000006 	streq	r0, [r0], -r6
    3f10:	0008bd22 	andeq	fp, r8, r2, lsr #26
    3f14:	a3040e00 	movwge	r0, #19968	; 0x4e00
    3f18:	21000008 	tstcs	r0, r8
    3f1c:	00005401 	andeq	r5, r0, r1, lsl #8
    3f20:	000c0800 	andeq	r0, ip, r0, lsl #16
    3f24:	22000009 	andcs	r0, r0, #9
    3f28:	00000a14 	andeq	r0, r0, r4, lsl sl
    3f2c:	0e312200 	cdpeq	2, 3, cr2, cr1, cr0, {0}
    3f30:	22010000 	andcs	r0, r1, #0
    3f34:	00000e89 	andeq	r0, r0, r9, lsl #29
    3f38:	0a552204 	beq	154c750 <__bss_end__+0x15421c8>
    3f3c:	22050000 	andcs	r0, r5, #0
    3f40:	00000bec 	andeq	r0, r0, ip, ror #23
    3f44:	0ea62206 	cdpeq	2, 10, cr2, cr6, cr6, {0}
    3f48:	22070000 	andcs	r0, r7, #0
    3f4c:	00000eb5 			; <UNDEFINED> instruction: 0x00000eb5
    3f50:	0ec42203 	cdpeq	2, 12, cr2, cr4, cr3, {0}
    3f54:	00020000 	andeq	r0, r2, r0
    3f58:	000ac210 	andeq	ip, sl, r0, lsl r2
    3f5c:	06072c00 	streq	r2, [r7], -r0, lsl #24
    3f60:	00000990 	muleq	r0, r0, r9
    3f64:	006f6911 	rsbeq	r6, pc, r1, lsl r9	; <UNPREDICTABLE>
    3f68:	00330907 	eorseq	r0, r3, r7, lsl #18
    3f6c:	11000000 	mrsne	r0, (UNDEF: 0)
    3f70:	00726569 	rsbseq	r6, r2, r9, ror #10
    3f74:	00330a07 	eorseq	r0, r3, r7, lsl #20
    3f78:	11040000 	mrsne	r0, (UNDEF: 4)
    3f7c:	00726969 	rsbseq	r6, r2, r9, ror #18
    3f80:	00331107 	eorseq	r1, r3, r7, lsl #2
    3f84:	11080000 	mrsne	r0, (UNDEF: 8)
    3f88:	0072636c 	rsbseq	r6, r2, ip, ror #6
    3f8c:	00331307 	eorseq	r1, r3, r7, lsl #6
    3f90:	110c0000 	mrsne	r0, (UNDEF: 12)
    3f94:	0072636d 	rsbseq	r6, r2, sp, ror #6
    3f98:	00331407 	eorseq	r1, r3, r7, lsl #8
    3f9c:	11100000 	tstne	r0, r0
    3fa0:	0072736c 	rsbseq	r7, r2, ip, ror #6
    3fa4:	00331507 	eorseq	r1, r3, r7, lsl #10
    3fa8:	11140000 	tstne	r4, r0
    3fac:	0072736d 	rsbseq	r7, r2, sp, ror #6
    3fb0:	00331607 	eorseq	r1, r3, r7, lsl #12
    3fb4:	0c180000 	ldceq	0, cr0, [r8], {-0}
    3fb8:	00000d44 	andeq	r0, r0, r4, asr #26
    3fbc:	00331707 	eorseq	r1, r3, r7, lsl #14
    3fc0:	0c1c0000 	ldceq	0, cr0, [ip], {-0}
    3fc4:	00000a6a 	andeq	r0, r0, sl, ror #20
    3fc8:	00331b07 	eorseq	r1, r3, r7, lsl #22
    3fcc:	0c200000 	stceq	0, cr0, [r0], #-0
    3fd0:	00000a4a 	andeq	r0, r0, sl, asr #20
    3fd4:	00331d07 	eorseq	r1, r3, r7, lsl #26
    3fd8:	0c240000 	stceq	0, cr0, [r4], #-0
    3fdc:	00000d2e 	andeq	r0, r0, lr, lsr #26
    3fe0:	00331e07 	eorseq	r1, r3, r7, lsl #28
    3fe4:	00280000 	eoreq	r0, r8, r0
    3fe8:	000b3223 	andeq	r3, fp, r3, lsr #4
    3fec:	a5070100 	strge	r0, [r7, #-256]	; 0x100
    3ff0:	04000009 	streq	r0, [r0], #-9
    3ff4:	0e202150 	mcreq	1, 1, r2, cr0, cr0, {2}
    3ff8:	00003304 	andeq	r3, r0, r4, lsl #6
    3ffc:	099f0f00 	ldmibeq	pc, {r8, r9, sl, fp}	; <UNPREDICTABLE>
    4000:	5e230000 	cdppl	0, 2, cr0, cr3, cr0, {0}
    4004:	0100000c 	tsteq	r0, ip
    4008:	0009bf28 	andeq	fp, r9, r8, lsr #30
    400c:	21504000 	cmpcs	r0, r0
    4010:	00040e20 	andeq	r0, r4, r0, lsr #28
    4014:	0f000009 	svceq	0x00000009
    4018:	000009b9 			; <UNDEFINED> instruction: 0x000009b9
    401c:	000e7b24 	andeq	r7, lr, r4, lsr #22
    4020:	25a70100 	strcs	r0, [r7, #256]!	; 0x100
    4024:	44000000 	strmi	r0, [r0], #-0
    4028:	10000098 	mulne	r0, r8, r0
    402c:	01000000 	mrseq	r0, (UNDEF: 0)
    4030:	0009f09c 	muleq	r9, ip, r0
    4034:	984c2500 	stmdals	ip, {r8, sl, sp}^
    4038:	0c9c0000 	ldceq	0, cr0, [ip], {0}
    403c:	50250000 	eorpl	r0, r5, r0
    4040:	d2000098 	andle	r0, r0, #152	; 0x98
    4044:	0000000a 	andeq	r0, r0, sl
    4048:	0005d026 	andeq	sp, r5, r6, lsr #32
    404c:	149f0100 	ldrne	r0, [pc], #256	; 4054 <__code_start__-0x3fac>
    4050:	30000098 	mulcc	r0, r8, r0
    4054:	01000000 	mrseq	r0, (UNDEF: 0)
    4058:	000a4e9c 	muleq	sl, ip, lr
    405c:	00632700 	rsbeq	r2, r3, r0, lsl #14
    4060:	002c9f01 	eoreq	r9, ip, r1, lsl #30
    4064:	0e470000 	cdpeq	0, 4, cr0, cr7, cr0, {0}
    4068:	20250000 	eorcs	r0, r5, r0
    406c:	9c000098 	stcls	0, cr0, [r0], {152}	; 0x98
    4070:	2500000c 	strcs	r0, [r0, #-12]
    4074:	00009824 	andeq	r9, r0, r4, lsr #16
    4078:	00000aa5 	andeq	r0, r0, r5, lsr #21
    407c:	00983828 	addseq	r3, r8, r8, lsr #16
    4080:	000ca700 	andeq	sl, ip, r0, lsl #14
    4084:	000a4400 	andeq	r4, sl, r0, lsl #8
    4088:	50012900 	andpl	r2, r1, r0, lsl #18
    408c:	50400c05 	subpl	r0, r0, r5, lsl #24
    4090:	01292021 	teqeq	r9, r1, lsr #32
    4094:	00740551 	rsbseq	r0, r4, r1, asr r5
    4098:	001aff08 	andseq	pc, sl, r8, lsl #30
    409c:	00983c25 	addseq	r3, r8, r5, lsr #24
    40a0:	000c9c00 	andeq	r9, ip, r0, lsl #24
    40a4:	95240000 	strls	r0, [r4, #-0]!
    40a8:	0100000b 	tsteq	r0, fp
    40ac:	00002597 	muleq	r0, r7, r5
    40b0:	0097e400 	addseq	lr, r7, r0, lsl #8
    40b4:	00003000 	andeq	r3, r0, r0
    40b8:	a59c0100 	ldrge	r0, [ip, #256]	; 0x100
    40bc:	2a00000a 	bcs	40ec <__code_start__-0x3f14>
    40c0:	9b010063 	blls	44254 <__bss_end__+0x39ccc>
    40c4:	00000025 	andeq	r0, r0, r5, lsr #32
    40c8:	ec255401 	cfstrs	mvf5, [r5], #-4
    40cc:	9c000097 	stcls	0, cr0, [r0], {151}	; 0x97
    40d0:	2500000c 	strcs	r0, [r0, #-12]
    40d4:	000097f0 	strdeq	r9, [r0], -r0
    40d8:	00000ad2 	ldrdeq	r0, [r0], -r2
    40dc:	00980028 	addseq	r0, r8, r8, lsr #32
    40e0:	000cb200 	andeq	fp, ip, r0, lsl #4
    40e4:	000a9b00 	andeq	r9, sl, r0, lsl #22
    40e8:	50012900 	andpl	r2, r1, r0, lsl #18
    40ec:	50400c05 	subpl	r0, r0, r5, lsl #24
    40f0:	25002021 	strcs	r2, [r0, #-33]	; 0x21
    40f4:	00009808 	andeq	r9, r0, r8, lsl #16
    40f8:	00000c9c 	muleq	r0, ip, ip
    40fc:	0b492400 	bleq	124d104 <__bss_end__+0x1242b7c>
    4100:	88010000 	stmdahi	r1, {}	; <UNPREDICTABLE>
    4104:	00000025 	andeq	r0, r0, r5, lsr #32
    4108:	000097c4 	andeq	r9, r0, r4, asr #15
    410c:	00000020 	andeq	r0, r0, r0, lsr #32
    4110:	0ad29c01 	beq	ff4ab11c <__bss_end__+0xff4a0b94>
    4114:	d02b0000 	eorle	r0, fp, r0
    4118:	b2000097 	andlt	r0, r0, #151	; 0x97
    411c:	2900000c 	stmdbcs	r0, {r2, r3}
    4120:	0c055001 	stceq	0, cr5, [r5], {1}
    4124:	20215064 	eorcs	r5, r1, r4, rrx
    4128:	5b240000 	blpl	904130 <__bss_end__+0x8f9ba8>
    412c:	0100000e 	tsteq	r0, lr
    4130:	0000257f 	andeq	r2, r0, pc, ror r5
    4134:	0097ac00 	addseq	sl, r7, r0, lsl #24
    4138:	00001800 	andeq	r1, r0, r0, lsl #16
    413c:	ff9c0100 			; <UNDEFINED> instruction: 0xff9c0100
    4140:	2b00000a 	blcs	4170 <__code_start__-0x3e90>
    4144:	000097b8 			; <UNDEFINED> instruction: 0x000097b8
    4148:	00000cb2 			; <UNDEFINED> instruction: 0x00000cb2
    414c:	05500129 	ldrbeq	r0, [r0, #-297]	; 0x129
    4150:	2150640c 	cmpcs	r0, ip, lsl #8
    4154:	26000020 	strcs	r0, [r0], -r0, lsr #32
    4158:	000009e1 	andeq	r0, r0, r1, ror #19
    415c:	96fc3a01 	ldrbtls	r3, [ip], r1, lsl #20
    4160:	00b00000 	adcseq	r0, r0, r0
    4164:	9c010000 	stcls	0, cr0, [r1], {-0}
    4168:	00000c3d 	andeq	r0, r0, sp, lsr ip
    416c:	00970c28 	addseq	r0, r7, r8, lsr #24
    4170:	000cbd00 	andeq	fp, ip, r0, lsl #26
    4174:	000b2c00 	andeq	r2, fp, r0, lsl #24
    4178:	50012900 	andpl	r2, r1, r0, lsl #18
    417c:	01293e01 	teqeq	r9, r1, lsl #28
    4180:	00320151 	eorseq	r0, r2, r1, asr r1
    4184:	00971828 	addseq	r1, r7, r8, lsr #16
    4188:	000cbd00 	andeq	fp, ip, r0, lsl #26
    418c:	000b4400 	andeq	r4, fp, r0, lsl #8
    4190:	50012900 	andpl	r2, r1, r0, lsl #18
    4194:	01293f01 	teqeq	r9, r1, lsl #30
    4198:	00320151 	eorseq	r0, r2, r1, asr r1
    419c:	00971c25 	addseq	r1, r7, r5, lsr #24
    41a0:	000c9c00 	andeq	r9, ip, r0, lsl #24
    41a4:	97282800 	strls	r2, [r8, -r0, lsl #16]!
    41a8:	0c3d0000 	ldceq	0, cr0, [sp], #-0
    41ac:	0b690000 	bleq	1a441b4 <__bss_end__+0x1a39c2c>
    41b0:	01290000 	teqeq	r9, r0
    41b4:	040c0550 	streq	r0, [ip], #-1360	; 0x550
    41b8:	29202150 	stmdbcs	r0!, {r4, r6, r8, sp}
    41bc:	31015101 	tstcc	r1, r1, lsl #2
    41c0:	972c2500 	strls	r2, [ip, -r0, lsl #10]!
    41c4:	0c9c0000 	ldceq	0, cr0, [ip], {0}
    41c8:	3c280000 	stccc	0, cr0, [r8], #-0
    41cc:	a7000097 			; <UNDEFINED> instruction: 0xa7000097
    41d0:	8b00000c 	blhi	4208 <__code_start__-0x3df8>
    41d4:	2900000b 	stmdbcs	r0, {r0, r1, r3}
    41d8:	74025001 	strvc	r5, [r2], #-1
    41dc:	51012900 	tstpl	r1, r0, lsl #18
    41e0:	28003001 	stmdacs	r0, {r0, ip, sp}
    41e4:	00009748 	andeq	r9, r0, r8, asr #14
    41e8:	00000ca7 	andeq	r0, r0, r7, lsr #25
    41ec:	00000ba7 	andeq	r0, r0, r7, lsr #23
    41f0:	05500129 	ldrbeq	r0, [r0, #-297]	; 0x129
    41f4:	2150440c 	cmpcs	r0, ip, lsl #8
    41f8:	51012920 	tstpl	r1, r0, lsr #18
    41fc:	28003001 	stmdacs	r0, {r0, ip, sp}
    4200:	00009754 	andeq	r9, r0, r4, asr r7
    4204:	00000ca7 	andeq	r0, r0, r7, lsr #25
    4208:	00000bc3 	andeq	r0, r0, r3, asr #23
    420c:	05500129 	ldrbeq	r0, [r0, #-297]	; 0x129
    4210:	21504c0c 	cmpcs	r0, ip, lsl #24
    4214:	51012920 	tstpl	r1, r0, lsr #18
    4218:	28003301 	stmdacs	r0, {r0, r8, r9, ip, sp}
    421c:	00009760 	andeq	r9, r0, r0, ror #14
    4220:	00000ca7 	andeq	r0, r0, r7, lsr #25
    4224:	00000bdf 	ldrdeq	r0, [r0], -pc	; <UNPREDICTABLE>
    4228:	05500129 	ldrbeq	r0, [r0, #-297]	; 0x129
    422c:	2150500c 	cmpcs	r0, ip
    4230:	51012920 	tstpl	r1, r0, lsr #18
    4234:	28003001 	stmdacs	r0, {r0, ip, sp}
    4238:	0000976c 	andeq	r9, r0, ip, ror #14
    423c:	00000ca7 	andeq	r0, r0, r7, lsr #25
    4240:	00000bfc 	strdeq	r0, [r0], -ip
    4244:	05500129 	ldrbeq	r0, [r0, #-297]	; 0x129
    4248:	2150480c 	cmpcs	r0, ip, lsl #16
    424c:	51012920 	tstpl	r1, r0, lsr #18
    4250:	00c70802 	sbceq	r0, r7, r2, lsl #16
    4254:	00977828 	addseq	r7, r7, r8, lsr #16
    4258:	000ca700 	andeq	sl, ip, r0, lsl #14
    425c:	000c1a00 	andeq	r1, ip, r0, lsl #20
    4260:	50012900 	andpl	r2, r1, r0, lsl #18
    4264:	50680c05 	rsbpl	r0, r8, r5, lsl #24
    4268:	01292021 	teqeq	r9, r1, lsr #32
    426c:	0e0a0351 	mcreq	3, 0, r0, cr10, cr1, {2}
    4270:	84280001 	strthi	r0, [r8], #-1
    4274:	a7000097 			; <UNDEFINED> instruction: 0xa7000097
    4278:	3300000c 	movwcc	r0, #12
    427c:	2900000c 	stmdbcs	r0, {r2, r3}
    4280:	74025001 	strvc	r5, [r2], #-1
    4284:	51012900 	tstpl	r1, r0, lsl #18
    4288:	25003301 	strcs	r3, [r0, #-769]	; 0x301
    428c:	00009788 	andeq	r9, r0, r8, lsl #15
    4290:	00000c9c 	muleq	r0, ip, ip
    4294:	0e732c00 	cdpeq	12, 7, cr2, cr3, cr0, {0}
    4298:	2d010000 	stccs	0, cr0, [r1, #-0]
    429c:	000096dc 	ldrdeq	r9, [r0], -ip
    42a0:	00000020 	andeq	r0, r0, r0, lsr #32
    42a4:	0c959c01 	ldceq	12, cr9, [r5], {1}
    42a8:	062d0000 	strteq	r0, [sp], -r0
    42ac:	01000002 	tsteq	r0, r2
    42b0:	000c952d 	andeq	r9, ip, sp, lsr #10
    42b4:	000e6500 	andeq	r6, lr, r0, lsl #10
    42b8:	61762700 	cmnvs	r6, r0, lsl #14
    42bc:	2d01006c 	stccs	0, cr0, [r1, #-432]	; 0xfffffe50
    42c0:	0000002c 	andeq	r0, r0, ip, lsr #32
    42c4:	00000e83 	andeq	r0, r0, r3, lsl #29
    42c8:	0096ec28 	addseq	lr, r6, r8, lsr #24
    42cc:	000cb200 	andeq	fp, ip, r0, lsl #4
    42d0:	000c8400 	andeq	r8, ip, r0, lsl #8
    42d4:	50012900 	andpl	r2, r1, r0, lsl #18
    42d8:	00007402 	andeq	r7, r0, r2, lsl #8
    42dc:	0096f82b 	addseq	pc, r6, fp, lsr #16
    42e0:	000ca700 	andeq	sl, ip, r0, lsl #14
    42e4:	50012900 	andpl	r2, r1, r0, lsl #18
    42e8:	00007402 	andeq	r7, r0, r2, lsl #8
    42ec:	9b040e00 	blls	107af4 <__bss_end__+0xfd56c>
    42f0:	2e00000c 	cdpcs	0, 0, cr0, cr0, cr12, {0}
    42f4:	0008972f 	andeq	r9, r8, pc, lsr #14
    42f8:	00089700 	andeq	r9, r8, r0, lsl #14
    42fc:	2f890600 	svccs	0x00890600
    4300:	00000d52 	andeq	r0, r0, r2, asr sp
    4304:	00000d52 	andeq	r0, r0, r2, asr sp
    4308:	552f9c06 	strpl	r9, [pc, #-3078]!	; 370a <__code_start__-0x48f6>
    430c:	5500000e 	strpl	r0, [r0, #-14]
    4310:	0600000e 	streq	r0, [r0], -lr
    4314:	0c222fa8 	stceq	15, cr2, [r2], #-672	; 0xfffffd60
    4318:	0c220000 	stceq	0, cr0, [r2], #-0
    431c:	19080000 	stmdbne	r8, {}	; <UNPREDICTABLE>
    4320:	000b7000 	andeq	r7, fp, r0
    4324:	ac000400 	cfstrsge	mvf0, [r0], {-0}
    4328:	04000015 	streq	r0, [r0], #-21
    432c:	000d5801 	andeq	r5, sp, r1, lsl #16
    4330:	0f280c00 	svceq	0x00280c00
    4334:	0ad60000 	beq	ff58433c <__bss_end__+0xff579db4>
    4338:	98540000 	ldmdals	r4, {}^	; <UNPREDICTABLE>
    433c:	01200000 	teqeq	r0, r0
    4340:	112e0000 	teqne	lr, r0
    4344:	04020000 	streq	r0, [r2], #-0
    4348:	746e6905 	strbtvc	r6, [lr], #-2309	; 0x905
    434c:	07040300 	streq	r0, [r4, -r0, lsl #6]
    4350:	000001ba 			; <UNDEFINED> instruction: 0x000001ba
    4354:	00002c04 	andeq	r2, r0, r4, lsl #24
    4358:	06010300 	streq	r0, [r1], -r0, lsl #6
    435c:	000000d9 	ldrdeq	r0, [r0], -r9
    4360:	26050203 	strcs	r0, [r5], -r3, lsl #4
    4364:	03000000 	movweq	r0, #0
    4368:	01ee0504 	mvneq	r0, r4, lsl #10
    436c:	08030000 	stmdaeq	r3, {}	; <UNPREDICTABLE>
    4370:	0001e905 	andeq	lr, r1, r5, lsl #18
    4374:	08010300 	stmdaeq	r1, {r8, r9}
    4378:	000000d7 	ldrdeq	r0, [r0], -r7
    437c:	fd070203 	stc2	2, cr0, [r7, #-12]
    4380:	03000000 	movweq	r0, #0
    4384:	01b50704 			; <UNDEFINED> instruction: 0x01b50704
    4388:	08030000 	stmdaeq	r3, {}	; <UNPREDICTABLE>
    438c:	0001b007 	andeq	fp, r1, r7
    4390:	0c6d0500 	cfstr64eq	mvdx0, [sp], #-0
    4394:	07020000 	streq	r0, [r2, -r0]
    4398:	00000025 	andeq	r0, r0, r5, lsr #32
    439c:	000c5705 	andeq	r5, ip, r5, lsl #14
    43a0:	462c0300 	strtmi	r0, [ip], -r0, lsl #6
    43a4:	05000000 	streq	r0, [r0, #-0]
    43a8:	00000d33 	andeq	r0, r0, r3, lsr sp
    43ac:	00467203 	subeq	r7, r6, r3, lsl #4
    43b0:	fb060000 	blx	1843ba <__bss_end__+0x179e32>
    43b4:	0400000b 	streq	r0, [r0], #-11
    43b8:	002c0165 	eoreq	r0, ip, r5, ror #2
    43bc:	04070000 	streq	r0, [r7], #-0
    43c0:	00bca603 	adcseq	sl, ip, r3, lsl #12
    43c4:	e6080000 	str	r0, [r8], -r0
    43c8:	0300000b 	movweq	r0, #11
    43cc:	000091a8 	andeq	r9, r0, r8, lsr #3
    43d0:	0b8e0800 	bleq	fe3863d8 <__bss_end__+0xfe37be50>
    43d4:	a9030000 	stmdbge	r3, {}	; <UNPREDICTABLE>
    43d8:	000000bc 	strheq	r0, [r0], -ip
    43dc:	00540900 	subseq	r0, r4, r0, lsl #18
    43e0:	00cc0000 	sbceq	r0, ip, r0
    43e4:	cc0a0000 	stcgt	0, cr0, [sl], {-0}
    43e8:	03000000 	movweq	r0, #0
    43ec:	07040300 	streq	r0, [r4, -r0, lsl #6]
    43f0:	000001e0 	andeq	r0, r0, r0, ror #3
    43f4:	a303080b 	movwge	r0, #14347	; 0x380b
    43f8:	000000f4 	strdeq	r0, [r0], -r4
    43fc:	000d180c 	andeq	r1, sp, ip, lsl #16
    4400:	25a50300 	strcs	r0, [r5, #768]!	; 0x300
    4404:	00000000 	andeq	r0, r0, r0
    4408:	000d200c 	andeq	r2, sp, ip
    440c:	9daa0300 	stcls	3, cr0, [sl]
    4410:	04000000 	streq	r0, [r0], #-0
    4414:	0cab0500 	cfstr32eq	mvfx0, [fp]
    4418:	ab030000 	blge	c4420 <__bss_end__+0xb9e98>
    441c:	000000d3 	ldrdeq	r0, [r0], -r3
    4420:	000b5705 	andeq	r5, fp, r5, lsl #14
    4424:	70af0300 	adcvc	r0, pc, r0, lsl #6
    4428:	0d000000 	stceq	0, cr0, [r0, #-0]
    442c:	12040e04 	andne	r0, r4, #4, 28	; 0x40
    4430:	03000001 	movweq	r0, #1
    4434:	00e00801 	rsceq	r0, r0, r1, lsl #16
    4438:	12040000 	andne	r0, r4, #0
    443c:	05000001 	streq	r0, [r0, #-1]
    4440:	00000dd5 	ldrdeq	r0, [r0], -r5
    4444:	00621605 	rsbeq	r1, r2, r5, lsl #12
    4448:	680f0000 	stmdavs	pc, {}	; <UNPREDICTABLE>
    444c:	1800000b 	stmdane	r0, {r0, r1, r3}
    4450:	017c2d05 	cmneq	ip, r5, lsl #26
    4454:	cc0c0000 	stcgt	0, cr0, [ip], {-0}
    4458:	0500000c 	streq	r0, [r0, #-12]
    445c:	00017c2f 	andeq	r7, r1, pc, lsr #24
    4460:	5f100000 	svcpl	0x00100000
    4464:	3005006b 	andcc	r0, r5, fp, rrx
    4468:	00000025 	andeq	r0, r0, r5, lsr #32
    446c:	0d030c04 	stceq	12, cr0, [r3, #-16]
    4470:	30050000 	andcc	r0, r5, r0
    4474:	00000025 	andeq	r0, r0, r5, lsr #32
    4478:	0b430c08 	bleq	10c74a0 <__bss_end__+0x10bcf18>
    447c:	30050000 	andcc	r0, r5, r0
    4480:	00000025 	andeq	r0, r0, r5, lsr #32
    4484:	0e1c0c0c 	cdpeq	12, 1, cr0, cr12, cr12, {0}
    4488:	30050000 	andcc	r0, r5, r0
    448c:	00000025 	andeq	r0, r0, r5, lsr #32
    4490:	785f1010 	ldmdavc	pc, {r4, ip}^	; <UNPREDICTABLE>
    4494:	82310500 	eorshi	r0, r1, #0, 10
    4498:	14000001 	strne	r0, [r0], #-1
    449c:	29040e00 	stmdbcs	r4, {r9, sl, fp}
    44a0:	09000001 	stmdbeq	r0, {r0}
    44a4:	0000011e 	andeq	r0, r0, lr, lsl r1
    44a8:	00000192 	muleq	r0, r2, r1
    44ac:	0000cc0a 	andeq	ip, r0, sl, lsl #24
    44b0:	0f000000 	svceq	0x00000000
    44b4:	00000b89 	andeq	r0, r0, r9, lsl #23
    44b8:	0b350524 	bleq	d45950 <__bss_end__+0xd3b3c8>
    44bc:	0c000002 	stceq	0, cr0, [r0], {2}
    44c0:	00000a41 	andeq	r0, r0, r1, asr #20
    44c4:	00253705 	eoreq	r3, r5, r5, lsl #14
    44c8:	0c000000 	stceq	0, cr0, [r0], {-0}
    44cc:	00000d3b 	andeq	r0, r0, fp, lsr sp
    44d0:	00253805 	eoreq	r3, r5, r5, lsl #16
    44d4:	0c040000 	stceq	0, cr0, [r4], {-0}
    44d8:	00000a6f 	andeq	r0, r0, pc, ror #20
    44dc:	00253905 	eoreq	r3, r5, r5, lsl #18
    44e0:	0c080000 	stceq	0, cr0, [r8], {-0}
    44e4:	00000f0c 	andeq	r0, r0, ip, lsl #30
    44e8:	00253a05 	eoreq	r3, r5, r5, lsl #20
    44ec:	0c0c0000 	stceq	0, cr0, [ip], {-0}
    44f0:	00000c3b 	andeq	r0, r0, fp, lsr ip
    44f4:	00253b05 	eoreq	r3, r5, r5, lsl #22
    44f8:	0c100000 	ldceq	0, cr0, [r0], {-0}
    44fc:	00000c10 	andeq	r0, r0, r0, lsl ip
    4500:	00253c05 	eoreq	r3, r5, r5, lsl #24
    4504:	0c140000 	ldceq	0, cr0, [r4], {-0}
    4508:	00000e21 	andeq	r0, r0, r1, lsr #28
    450c:	00253d05 	eoreq	r3, r5, r5, lsl #26
    4510:	0c180000 	ldceq	0, cr0, [r8], {-0}
    4514:	00000c8d 	andeq	r0, r0, sp, lsl #25
    4518:	00253e05 	eoreq	r3, r5, r5, lsl #28
    451c:	0c1c0000 	ldceq	0, cr0, [ip], {-0}
    4520:	00000ed3 	ldrdeq	r0, [r0], -r3
    4524:	00253f05 	eoreq	r3, r5, r5, lsl #30
    4528:	00200000 	eoreq	r0, r0, r0
    452c:	000a7e11 	andeq	r7, sl, r1, lsl lr
    4530:	05010800 	streq	r0, [r1, #-2048]	; 0x800
    4534:	00024b48 	andeq	r4, r2, r8, asr #22
    4538:	0b2a0c00 	bleq	a87540 <__bss_end__+0xa7cfb8>
    453c:	49050000 	stmdbmi	r5, {}	; <UNPREDICTABLE>
    4540:	0000024b 	andeq	r0, r0, fp, asr #4
    4544:	09bc0c00 	ldmibeq	ip!, {sl, fp}
    4548:	4a050000 	bmi	144550 <__bss_end__+0x139fc8>
    454c:	0000024b 	andeq	r0, r0, fp, asr #4
    4550:	0dc71280 	sfmeq	f1, 2, [r7, #512]	; 0x200
    4554:	4c050000 	stcmi	0, cr0, [r5], {-0}
    4558:	0000011e 	andeq	r0, r0, lr, lsl r1
    455c:	a3120100 	tstge	r2, #0, 2
    4560:	0500000a 	streq	r0, [r0, #-10]
    4564:	00011e4f 	andeq	r1, r1, pc, asr #28
    4568:	00010400 	andeq	r0, r1, r0, lsl #8
    456c:	00010a09 	andeq	r0, r1, r9, lsl #20
    4570:	00025b00 	andeq	r5, r2, r0, lsl #22
    4574:	00cc0a00 	sbceq	r0, ip, r0, lsl #20
    4578:	001f0000 	andseq	r0, pc, r0
    457c:	000c4411 	andeq	r4, ip, r1, lsl r4
    4580:	05019000 	streq	r9, [r1, #-0]
    4584:	0002995b 	andeq	r9, r2, fp, asr r9
    4588:	0ccc0c00 	stcleq	12, cr0, [ip], {0}
    458c:	5c050000 	stcpl	0, cr0, [r5], {-0}
    4590:	00000299 	muleq	r0, r9, r2
    4594:	0ce40c00 	stcleq	12, cr0, [r4]
    4598:	5d050000 	stcpl	0, cr0, [r5, #-0]
    459c:	00000025 	andeq	r0, r0, r5, lsr #32
    45a0:	0b3e0c04 	bleq	f875b8 <__bss_end__+0xf7d030>
    45a4:	5f050000 	svcpl	0x00050000
    45a8:	0000029f 	muleq	r0, pc, r2	; <UNPREDICTABLE>
    45ac:	0a7e0c08 	beq	1f875d4 <__bss_end__+0x1f7d04c>
    45b0:	60050000 	andvs	r0, r5, r0
    45b4:	0000020b 	andeq	r0, r0, fp, lsl #4
    45b8:	040e0088 	streq	r0, [lr], #-136	; 0x88
    45bc:	0000025b 	andeq	r0, r0, fp, asr r2
    45c0:	0002af09 	andeq	sl, r2, r9, lsl #30
    45c4:	0002af00 	andeq	sl, r2, r0, lsl #30
    45c8:	00cc0a00 	sbceq	r0, ip, r0, lsl #20
    45cc:	001f0000 	andseq	r0, pc, r0
    45d0:	02b5040e 	adcseq	r0, r5, #234881024	; 0xe000000
    45d4:	0f130000 	svceq	0x00130000
    45d8:	00000c97 	muleq	r0, r7, ip
    45dc:	db730508 	blle	1cc5a04 <__bss_end__+0x1cbb47c>
    45e0:	0c000002 	stceq	0, cr0, [r0], {2}
    45e4:	00000a64 	andeq	r0, r0, r4, ror #20
    45e8:	02db7405 	sbcseq	r7, fp, #83886080	; 0x5000000
    45ec:	0c000000 	stceq	0, cr0, [r0], {-0}
    45f0:	000009c8 	andeq	r0, r0, r8, asr #19
    45f4:	00257505 	eoreq	r7, r5, r5, lsl #10
    45f8:	00040000 	andeq	r0, r4, r0
    45fc:	0054040e 	subseq	r0, r4, lr, lsl #8
    4600:	b60f0000 	strlt	r0, [pc], -r0
    4604:	6800000c 	stmdavs	r0, {r2, r3}
    4608:	040bb305 	streq	fp, [fp], #-773	; 0x305
    460c:	5f100000 	svcpl	0x00100000
    4610:	b4050070 	strlt	r0, [r5], #-112	; 0x70
    4614:	000002db 	ldrdeq	r0, [r0], -fp
    4618:	725f1000 	subsvc	r1, pc, #0
    461c:	25b50500 	ldrcs	r0, [r5, #1280]!	; 0x500
    4620:	04000000 	streq	r0, [r0], #-0
    4624:	00775f10 	rsbseq	r5, r7, r0, lsl pc
    4628:	0025b605 	eoreq	fp, r5, r5, lsl #12
    462c:	0c080000 	stceq	0, cr0, [r8], {-0}
    4630:	00000a9c 	muleq	r0, ip, sl
    4634:	003fb705 	eorseq	fp, pc, r5, lsl #14
    4638:	0c0c0000 	stceq	0, cr0, [ip], {-0}
    463c:	00000baf 	andeq	r0, r0, pc, lsr #23
    4640:	003fb805 	eorseq	fp, pc, r5, lsl #16
    4644:	100e0000 	andne	r0, lr, r0
    4648:	0066625f 	rsbeq	r6, r6, pc, asr r2
    464c:	02b6b905 	adcseq	fp, r6, #81920	; 0x14000
    4650:	0c100000 	ldceq	0, cr0, [r0], {-0}
    4654:	00000a0b 	andeq	r0, r0, fp, lsl #20
    4658:	0025ba05 	eoreq	fp, r5, r5, lsl #20
    465c:	0c180000 	ldceq	0, cr0, [r8], {-0}
    4660:	00000a8c 	andeq	r0, r0, ip, lsl #21
    4664:	010ac105 	tsteq	sl, r5, lsl #2
    4668:	0c1c0000 	ldceq	0, cr0, [ip], {-0}
    466c:	00000f33 	andeq	r0, r0, r3, lsr pc
    4670:	0566c305 	strbeq	ip, [r6, #-773]!	; 0x305
    4674:	0c200000 	stceq	0, cr0, [r0], #-0
    4678:	00000f4d 	andeq	r0, r0, sp, asr #30
    467c:	0590c505 	ldreq	ip, [r0, #1285]	; 0x505
    4680:	0c240000 	stceq	0, cr0, [r4], #-0
    4684:	00000d28 	andeq	r0, r0, r8, lsr #26
    4688:	05b4c805 	ldreq	ip, [r4, #2053]!	; 0x805
    468c:	0c280000 	stceq	0, cr0, [r8], #-0
    4690:	00000eed 	andeq	r0, r0, sp, ror #29
    4694:	05cec905 	strbeq	ip, [lr, #2309]	; 0x905
    4698:	102c0000 	eorne	r0, ip, r0
    469c:	0062755f 	rsbeq	r7, r2, pc, asr r5
    46a0:	02b6cc05 	adcseq	ip, r6, #1280	; 0x500
    46a4:	10300000 	eorsne	r0, r0, r0
    46a8:	0070755f 	rsbseq	r7, r0, pc, asr r5
    46ac:	02dbcd05 	sbcseq	ip, fp, #320	; 0x140
    46b0:	10380000 	eorsne	r0, r8, r0
    46b4:	0072755f 	rsbseq	r7, r2, pc, asr r5
    46b8:	0025ce05 	eoreq	ip, r5, r5, lsl #28
    46bc:	0c3c0000 	ldceq	0, cr0, [ip], #-0
    46c0:	00000a4f 	andeq	r0, r0, pc, asr #20
    46c4:	05d4d105 	ldrbeq	sp, [r4, #261]	; 0x105
    46c8:	0c400000 	mareq	acc0, r0, r0
    46cc:	00000e98 	muleq	r0, r8, lr
    46d0:	05e4d205 	strbeq	sp, [r4, #517]!	; 0x205
    46d4:	10430000 	subne	r0, r3, r0
    46d8:	00626c5f 	rsbeq	r6, r2, pc, asr ip
    46dc:	02b6d505 	adcseq	sp, r6, #20971520	; 0x1400000
    46e0:	0c440000 	mareq	acc0, r0, r4
    46e4:	00000ab2 			; <UNDEFINED> instruction: 0x00000ab2
    46e8:	0025d805 	eoreq	sp, r5, r5, lsl #16
    46ec:	0c4c0000 	mareq	acc0, r0, ip
    46f0:	00000c1a 	andeq	r0, r0, sl, lsl ip
    46f4:	007bd905 	rsbseq	sp, fp, r5, lsl #18
    46f8:	0c500000 	mraeq	r0, r0, acc0
    46fc:	00000e83 	andeq	r0, r0, r3, lsl #29
    4700:	0429dc05 	strteq	sp, [r9], #-3077	; 0xc05
    4704:	0c540000 	mraeq	r0, r4, acc0
    4708:	00000c02 	andeq	r0, r0, r2, lsl #24
    470c:	00ffe005 	rscseq	lr, pc, r5
    4710:	0c580000 	mraeq	r0, r8, acc0
    4714:	00000cbe 			; <UNDEFINED> instruction: 0x00000cbe
    4718:	00f4e205 	rscseq	lr, r4, r5, lsl #4
    471c:	0c5c0000 	mraeq	r0, ip, acc0
    4720:	00000c08 	andeq	r0, r0, r8, lsl #24
    4724:	0025e305 	eoreq	lr, r5, r5, lsl #6
    4728:	00640000 	rsbeq	r0, r4, r0
    472c:	00002514 	andeq	r2, r0, r4, lsl r5
    4730:	00042900 	andeq	r2, r4, r0, lsl #18
    4734:	04291500 	strteq	r1, [r9], #-1280	; 0x500
    4738:	0a150000 	beq	544740 <__bss_end__+0x53a1b8>
    473c:	15000001 	strne	r0, [r0, #-1]
    4740:	0000010c 	andeq	r0, r0, ip, lsl #2
    4744:	00002515 	andeq	r2, r0, r5, lsl r5
    4748:	040e0000 	streq	r0, [lr], #-0
    474c:	00000434 	andeq	r0, r0, r4, lsr r4
    4750:	00042904 	andeq	r2, r4, r4, lsl #18
    4754:	0d0b1600 	stceq	6, cr1, [fp, #-0]
    4758:	04280000 	strteq	r0, [r8], #-0
    475c:	66023805 	strvs	r3, [r2], -r5, lsl #16
    4760:	17000005 	strne	r0, [r0, -r5]
    4764:	00000c86 	andeq	r0, r0, r6, lsl #25
    4768:	25023a05 	strcs	r3, [r2, #-2565]	; 0xa05
    476c:	00000000 	andeq	r0, r0, r0
    4770:	000aab17 	andeq	sl, sl, r7, lsl fp
    4774:	023f0500 	eorseq	r0, pc, #0, 10
    4778:	0000063b 	andeq	r0, r0, fp, lsr r6
    477c:	0b9f1704 	bleq	fe7ca394 <__bss_end__+0xfe7bfe0c>
    4780:	3f050000 	svccc	0x00050000
    4784:	00063b02 	andeq	r3, r6, r2, lsl #22
    4788:	60170800 	andsvs	r0, r7, r0, lsl #16
    478c:	0500000b 	streq	r0, [r0, #-11]
    4790:	063b023f 			; <UNDEFINED> instruction: 0x063b023f
    4794:	170c0000 	strne	r0, [ip, -r0]
    4798:	00000cdf 	ldrdeq	r0, [r0], -pc	; <UNPREDICTABLE>
    479c:	25024105 	strcs	r4, [r2, #-261]	; 0x105
    47a0:	10000000 	andne	r0, r0, r0
    47a4:	0009d617 	andeq	sp, r9, r7, lsl r6
    47a8:	02420500 	subeq	r0, r2, #0, 10
    47ac:	0000081d 	andeq	r0, r0, sp, lsl r8
    47b0:	0dfd1714 	ldcleq	7, cr1, [sp, #80]!	; 0x50
    47b4:	44050000 	strmi	r0, [r5], #-0
    47b8:	00002502 	andeq	r2, r0, r2, lsl #10
    47bc:	e9173000 	ldmdb	r7, {ip, sp}
    47c0:	0500000c 	streq	r0, [r0, #-12]
    47c4:	058a0245 	streq	r0, [sl, #581]	; 0x245
    47c8:	17340000 	ldrne	r0, [r4, -r0]!
    47cc:	00000c4c 	andeq	r0, r0, ip, asr #24
    47d0:	25024705 	strcs	r4, [r2, #-1797]	; 0x705
    47d4:	38000000 	stmdacc	r0, {}	; <UNPREDICTABLE>
    47d8:	000cf917 	andeq	pc, ip, r7, lsl r9	; <UNPREDICTABLE>
    47dc:	02490500 	subeq	r0, r9, #0, 10
    47e0:	00000838 	andeq	r0, r0, r8, lsr r8
    47e4:	0bde173c 	bleq	ff78a4dc <__bss_end__+0xff77ff54>
    47e8:	4c050000 	stcmi	0, cr0, [r5], {-0}
    47ec:	00017c02 	andeq	r7, r1, r2, lsl #24
    47f0:	7f174000 	svcvc	0x00174000
    47f4:	0500000b 	streq	r0, [r0, #-11]
    47f8:	0025024d 	eoreq	r0, r5, sp, asr #4
    47fc:	17440000 	strbne	r0, [r4, -r0]
    4800:	00000f07 	andeq	r0, r0, r7, lsl #30
    4804:	7c024e05 	stcvc	14, cr4, [r2], {5}
    4808:	48000001 	stmdami	r0, {r0}
    480c:	000c6317 	andeq	r6, ip, r7, lsl r3
    4810:	024f0500 	subeq	r0, pc, #0, 10
    4814:	0000083e 	andeq	r0, r0, lr, lsr r8
    4818:	0ba7174c 	bleq	fe9ca550 <__bss_end__+0xfe9bffc8>
    481c:	52050000 	andpl	r0, r5, #0
    4820:	00002502 	andeq	r2, r0, r2, lsl #10
    4824:	ce175000 	cdpgt	0, 1, cr5, cr7, cr0, {0}
    4828:	0500000a 	streq	r0, [r0, #-10]
    482c:	010c0253 	tsteq	ip, r3, asr r2
    4830:	17540000 	ldrbne	r0, [r4, -r0]
    4834:	00000c7f 	andeq	r0, r0, pc, ror ip
    4838:	fb027605 	blx	a2056 <__bss_end__+0x97ace>
    483c:	58000007 	stmdapl	r0, {r0, r1, r2}
    4840:	000c4418 	andeq	r4, ip, r8, lsl r4
    4844:	027a0500 	rsbseq	r0, sl, #0, 10
    4848:	00000299 	muleq	r0, r9, r2
    484c:	bc180148 	ldflts	f0, [r8], {72}	; 0x48
    4850:	0500000b 	streq	r0, [r0, #-11]
    4854:	025b027b 	subseq	r0, fp, #-1342177273	; 0xb0000007
    4858:	014c0000 	mrseq	r0, (UNDEF: 76)
    485c:	000e6918 	andeq	r6, lr, r8, lsl r9
    4860:	027f0500 	rsbseq	r0, pc, #0, 10
    4864:	0000084f 	andeq	r0, r0, pc, asr #16
    4868:	941802dc 	ldrls	r0, [r8], #-732	; 0x2dc
    486c:	0500000a 	streq	r0, [r0, #-10]
    4870:	06000284 	streq	r0, [r0], -r4, lsl #5
    4874:	02e00000 	rsceq	r0, r0, #0
    4878:	000a7918 	andeq	r7, sl, r8, lsl r9
    487c:	02850500 	addeq	r0, r5, #0, 10
    4880:	0000085b 	andeq	r0, r0, fp, asr r8
    4884:	0e0002ec 	cdpeq	2, 0, cr0, cr0, cr12, {7}
    4888:	00040b04 	andeq	r0, r4, r4, lsl #22
    488c:	00251400 	eoreq	r1, r5, r0, lsl #8
    4890:	058a0000 	streq	r0, [sl]
    4894:	29150000 	ldmdbcs	r5, {}	; <UNPREDICTABLE>
    4898:	15000004 	strne	r0, [r0, #-4]
    489c:	0000010a 	andeq	r0, r0, sl, lsl #2
    48a0:	00058a15 	andeq	r8, r5, r5, lsl sl
    48a4:	00251500 	eoreq	r1, r5, r0, lsl #10
    48a8:	0e000000 	cdpeq	0, 0, cr0, cr0, cr0, {0}
    48ac:	00011904 	andeq	r1, r1, r4, lsl #18
    48b0:	6c040e00 	stcvs	14, cr0, [r4], {-0}
    48b4:	14000005 	strne	r0, [r0], #-5
    48b8:	00000086 	andeq	r0, r0, r6, lsl #1
    48bc:	000005b4 			; <UNDEFINED> instruction: 0x000005b4
    48c0:	00042915 	andeq	r2, r4, r5, lsl r9
    48c4:	010a1500 	tsteq	sl, r0, lsl #10
    48c8:	86150000 	ldrhi	r0, [r5], -r0
    48cc:	15000000 	strne	r0, [r0, #-0]
    48d0:	00000025 	andeq	r0, r0, r5, lsr #32
    48d4:	96040e00 	strls	r0, [r4], -r0, lsl #28
    48d8:	14000005 	strne	r0, [r0], #-5
    48dc:	00000025 	andeq	r0, r0, r5, lsr #32
    48e0:	000005ce 	andeq	r0, r0, lr, asr #11
    48e4:	00042915 	andeq	r2, r4, r5, lsl r9
    48e8:	010a1500 	tsteq	sl, r0, lsl #10
    48ec:	0e000000 	cdpeq	0, 0, cr0, cr0, cr0, {0}
    48f0:	0005ba04 	andeq	fp, r5, r4, lsl #20
    48f4:	00540900 	subseq	r0, r4, r0, lsl #18
    48f8:	05e40000 	strbeq	r0, [r4, #0]!
    48fc:	cc0a0000 	stcgt	0, cr0, [sl], {-0}
    4900:	02000000 	andeq	r0, r0, #0
    4904:	00540900 	subseq	r0, r4, r0, lsl #18
    4908:	05f40000 	ldrbeq	r0, [r4, #0]!
    490c:	cc0a0000 	stcgt	0, cr0, [sl], {-0}
    4910:	00000000 	andeq	r0, r0, r0
    4914:	0ca40600 	stceq	6, cr0, [r4]
    4918:	1d050000 	stcne	0, cr0, [r5, #-0]
    491c:	0002e101 	andeq	lr, r2, r1, lsl #2
    4920:	0e2b1900 	cdpeq	9, 2, cr1, cr11, cr0, {0}
    4924:	050c0000 	streq	r0, [ip, #-0]
    4928:	06350121 	ldrteq	r0, [r5], -r1, lsr #2
    492c:	cc170000 	ldcgt	0, cr0, [r7], {-0}
    4930:	0500000c 	streq	r0, [r0, #-12]
    4934:	06350123 	ldrteq	r0, [r5], -r3, lsr #2
    4938:	17000000 	strne	r0, [r0, -r0]
    493c:	00000bb5 			; <UNDEFINED> instruction: 0x00000bb5
    4940:	25012405 	strcs	r2, [r1, #-1029]	; 0x405
    4944:	04000000 	streq	r0, [r0], #-0
    4948:	000c9e17 	andeq	r9, ip, r7, lsl lr
    494c:	01250500 	teqeq	r5, r0, lsl #10
    4950:	0000063b 	andeq	r0, r0, fp, lsr r6
    4954:	040e0008 	streq	r0, [lr], #-8
    4958:	00000600 	andeq	r0, r0, r0, lsl #12
    495c:	05f4040e 	ldrbeq	r0, [r4, #1038]!	; 0x40e
    4960:	ce190000 	cdpgt	0, 1, cr0, cr9, cr0, {0}
    4964:	0e000009 	cdpeq	0, 0, cr0, cr0, cr9, {0}
    4968:	76013d05 	strvc	r3, [r1], -r5, lsl #26
    496c:	17000006 	strne	r0, [r0, -r6]
    4970:	00000d12 	andeq	r0, r0, r2, lsl sp
    4974:	76013e05 	strvc	r3, [r1], -r5, lsl #28
    4978:	00000006 	andeq	r0, r0, r6
    497c:	000d4c17 	andeq	r4, sp, r7, lsl ip
    4980:	013f0500 	teqeq	pc, r0, lsl #10
    4984:	00000676 	andeq	r0, r0, r6, ror r6
    4988:	0dd01706 	ldcleq	7, cr1, [r0, #24]
    498c:	40050000 	andmi	r0, r5, r0
    4990:	00005b01 	andeq	r5, r0, r1, lsl #22
    4994:	09000c00 	stmdbeq	r0, {sl, fp}
    4998:	0000005b 	andeq	r0, r0, fp, asr r0
    499c:	00000686 	andeq	r0, r0, r6, lsl #13
    49a0:	0000cc0a 	andeq	ip, r0, sl, lsl #24
    49a4:	1a000200 	bne	51ac <__code_start__-0x2e54>
    49a8:	025705d0 	subseq	r0, r7, #208, 10	; 0x34000000
    49ac:	00000787 	andeq	r0, r0, r7, lsl #15
    49b0:	000e0f17 	andeq	r0, lr, r7, lsl pc
    49b4:	02590500 	subseq	r0, r9, #0, 10
    49b8:	0000002c 	andeq	r0, r0, ip, lsr #32
    49bc:	0dba1700 	ldceq	7, cr1, [sl]
    49c0:	5a050000 	bpl	1449c8 <__bss_end__+0x13a440>
    49c4:	00010c02 	andeq	r0, r1, r2, lsl #24
    49c8:	d1170400 	tstle	r7, r0, lsl #8
    49cc:	0500000b 	streq	r0, [r0, #-11]
    49d0:	0787025b 			; <UNDEFINED> instruction: 0x0787025b
    49d4:	17080000 	strne	r0, [r8, -r0]
    49d8:	00000ede 	ldrdeq	r0, [r0], -lr
    49dc:	92025c05 	andls	r5, r2, #1280	; 0x500
    49e0:	24000001 	strcs	r0, [r0], #-1
    49e4:	000b7017 	andeq	r7, fp, r7, lsl r0
    49e8:	025d0500 	subseq	r0, sp, #0, 10
    49ec:	00000025 	andeq	r0, r0, r5, lsr #32
    49f0:	0cc71748 	stcleq	7, cr1, [r7], {72}	; 0x48
    49f4:	5e050000 	cdppl	0, 0, cr0, cr5, cr0, {0}
    49f8:	00006902 	andeq	r6, r0, r2, lsl #18
    49fc:	f4175000 			; <UNDEFINED> instruction: 0xf4175000
    4a00:	0500000e 	streq	r0, [r0, #-14]
    4a04:	0641025f 			; <UNDEFINED> instruction: 0x0641025f
    4a08:	17580000 	ldrbne	r0, [r8, -r0]
    4a0c:	00000cd2 	ldrdeq	r0, [r0], -r2
    4a10:	f4026005 	vst4.8	{d6-d9}, [r2], r5
    4a14:	68000000 	stmdavs	r0, {}	; <UNPREDICTABLE>
    4a18:	000ef917 	andeq	pc, lr, r7, lsl r9	; <UNPREDICTABLE>
    4a1c:	02610500 	rsbeq	r0, r1, #0, 10
    4a20:	000000f4 	strdeq	r0, [r0], -r4
    4a24:	0a331770 	beq	cca7ec <__bss_end__+0xcc0264>
    4a28:	62050000 	andvs	r0, r5, #0
    4a2c:	0000f402 	andeq	pc, r0, r2, lsl #8
    4a30:	4b177800 	blmi	5e2a38 <__bss_end__+0x5d84b0>
    4a34:	0500000e 	streq	r0, [r0, #-14]
    4a38:	07970263 	ldreq	r0, [r7, r3, ror #4]
    4a3c:	17800000 	strne	r0, [r0, r0]
    4a40:	00000bc5 	andeq	r0, r0, r5, asr #23
    4a44:	a7026405 	strge	r6, [r2, -r5, lsl #8]
    4a48:	88000007 	stmdahi	r0, {r0, r1, r2}
    4a4c:	000ddd17 	andeq	sp, sp, r7, lsl sp
    4a50:	02650500 	rsbeq	r0, r5, #0, 10
    4a54:	00000025 	andeq	r0, r0, r5, lsr #32
    4a58:	0b1c17a0 	bleq	70a8e0 <__bss_end__+0x700358>
    4a5c:	66050000 	strvs	r0, [r5], -r0
    4a60:	0000f402 	andeq	pc, r0, r2, lsl #8
    4a64:	2417a400 	ldrcs	sl, [r7], #-1024	; 0x400
    4a68:	0500000a 	streq	r0, [r0, #-10]
    4a6c:	00f40267 	rscseq	r0, r4, r7, ror #4
    4a70:	17ac0000 	strne	r0, [ip, r0]!
    4a74:	00000b0b 	andeq	r0, r0, fp, lsl #22
    4a78:	f4026805 	vst2.8	{d6-d7}, [r2], r5
    4a7c:	b4000000 	strlt	r0, [r0], #-0
    4a80:	0009eb17 	andeq	lr, r9, r7, lsl fp
    4a84:	02690500 	rsbeq	r0, r9, #0, 10
    4a88:	000000f4 	strdeq	r0, [r0], -r4
    4a8c:	09fa17bc 	ldmibeq	sl!, {r2, r3, r4, r5, r7, r8, r9, sl, ip}^
    4a90:	6a050000 	bvs	144a98 <__bss_end__+0x13a510>
    4a94:	0000f402 	andeq	pc, r0, r2, lsl #8
    4a98:	8417c400 	ldrhi	ip, [r7], #-1024	; 0x400
    4a9c:	0500000c 	streq	r0, [r0, #-12]
    4aa0:	0025026b 	eoreq	r0, r5, fp, ror #4
    4aa4:	00cc0000 	sbceq	r0, ip, r0
    4aa8:	00011209 	andeq	r1, r1, r9, lsl #4
    4aac:	00079700 	andeq	r9, r7, r0, lsl #14
    4ab0:	00cc0a00 	sbceq	r0, ip, r0, lsl #20
    4ab4:	00190000 	andseq	r0, r9, r0
    4ab8:	00011209 	andeq	r1, r1, r9, lsl #4
    4abc:	0007a700 	andeq	sl, r7, r0, lsl #14
    4ac0:	00cc0a00 	sbceq	r0, ip, r0, lsl #20
    4ac4:	00070000 	andeq	r0, r7, r0
    4ac8:	00011209 	andeq	r1, r1, r9, lsl #4
    4acc:	0007b700 	andeq	fp, r7, r0, lsl #14
    4ad0:	00cc0a00 	sbceq	r0, ip, r0, lsl #20
    4ad4:	00170000 	andseq	r0, r7, r0
    4ad8:	7005f01a 	andvc	pc, r5, sl, lsl r0	; <UNPREDICTABLE>
    4adc:	0007db02 	andeq	sp, r7, r2, lsl #22
    4ae0:	0c341700 	ldceq	7, cr1, [r4], #-0
    4ae4:	73050000 	movwvc	r0, #20480	; 0x5000
    4ae8:	0007db02 	andeq	sp, r7, r2, lsl #22
    4aec:	42170000 	andsmi	r0, r7, #0
    4af0:	0500000e 	streq	r0, [r0, #-14]
    4af4:	07eb0274 			; <UNDEFINED> instruction: 0x07eb0274
    4af8:	00780000 	rsbseq	r0, r8, r0
    4afc:	0002db09 	andeq	sp, r2, r9, lsl #22
    4b00:	0007eb00 	andeq	lr, r7, r0, lsl #22
    4b04:	00cc0a00 	sbceq	r0, ip, r0, lsl #20
    4b08:	001d0000 	andseq	r0, sp, r0
    4b0c:	00002c09 	andeq	r2, r0, r9, lsl #24
    4b10:	0007fb00 	andeq	pc, r7, r0, lsl #22
    4b14:	00cc0a00 	sbceq	r0, ip, r0, lsl #20
    4b18:	001d0000 	andseq	r0, sp, r0
    4b1c:	5505f01b 	strpl	pc, [r5, #-27]
    4b20:	00081d02 	andeq	r1, r8, r2, lsl #26
    4b24:	0d0b1c00 	stceq	12, cr1, [fp, #-0]
    4b28:	6c050000 	stcvs	0, cr0, [r5], {-0}
    4b2c:	00068602 	andeq	r8, r6, r2, lsl #12
    4b30:	0e9e1c00 	cdpeq	12, 9, cr1, cr14, cr0, {0}
    4b34:	75050000 	strvc	r0, [r5, #-0]
    4b38:	0007b702 	andeq	fp, r7, r2, lsl #14
    4b3c:	12090000 	andne	r0, r9, #0
    4b40:	2d000001 	stccs	0, cr0, [r0, #-4]
    4b44:	0a000008 	beq	4b6c <__code_start__-0x3494>
    4b48:	000000cc 	andeq	r0, r0, ip, asr #1
    4b4c:	381d0018 	ldmdacc	sp, {r3, r4}
    4b50:	15000008 	strne	r0, [r0, #-8]
    4b54:	00000429 	andeq	r0, r0, r9, lsr #8
    4b58:	2d040e00 	stccs	14, cr0, [r4, #-0]
    4b5c:	0e000008 	cdpeq	0, 0, cr0, cr0, cr8, {0}
    4b60:	00017c04 	andeq	r7, r1, r4, lsl #24
    4b64:	084f1d00 	stmdaeq	pc, {r8, sl, fp, ip}^	; <UNPREDICTABLE>
    4b68:	25150000 	ldrcs	r0, [r5, #-0]
    4b6c:	00000000 	andeq	r0, r0, r0
    4b70:	0855040e 	ldmdaeq	r5, {r1, r2, r3, sl}^
    4b74:	040e0000 	streq	r0, [lr], #-0
    4b78:	00000844 	andeq	r0, r0, r4, asr #16
    4b7c:	0005f409 	andeq	pc, r5, r9, lsl #8
    4b80:	00086b00 	andeq	r6, r8, r0, lsl #22
    4b84:	00cc0a00 	sbceq	r0, ip, r0, lsl #20
    4b88:	00020000 	andeq	r0, r2, r0
    4b8c:	000df11e 	andeq	pc, sp, lr, lsl r1	; <UNPREDICTABLE>
    4b90:	02fd0500 	rscseq	r0, sp, #0, 10
    4b94:	00000429 	andeq	r0, r0, r9, lsr #8
    4b98:	000dea1e 	andeq	lr, sp, lr, lsl sl
    4b9c:	02fe0500 	rscseq	r0, lr, #0, 10
    4ba0:	0000042f 	andeq	r0, r0, pc, lsr #8
    4ba4:	00002514 	andeq	r2, r0, r4, lsl r5
    4ba8:	00089200 	andeq	r9, r8, r0, lsl #4
    4bac:	00251500 	eoreq	r1, r5, r0, lsl #10
    4bb0:	1f000000 	svcne	0x00000000
    4bb4:	000005eb 	andeq	r0, r0, fp, ror #11
    4bb8:	089d1d06 	ldmeq	sp, {r1, r2, r8, sl, fp, ip}
    4bbc:	040e0000 	streq	r0, [lr], #-0
    4bc0:	00000883 	andeq	r0, r0, r3, lsl #17
    4bc4:	00002514 	andeq	r2, r0, r4, lsl r5
    4bc8:	0008b200 	andeq	fp, r8, r0, lsl #4
    4bcc:	058a1500 	streq	r1, [sl, #1280]	; 0x500
    4bd0:	1f000000 	svcne	0x00000000
    4bd4:	00000628 	andeq	r0, r0, r8, lsr #12
    4bd8:	08bd2206 	popeq	{r1, r2, r9, sp}
    4bdc:	040e0000 	streq	r0, [lr], #-0
    4be0:	000008a3 	andeq	r0, r0, r3, lsr #17
    4be4:	00540120 	subseq	r0, r4, r0, lsr #2
    4be8:	0c070000 	stceq	0, cr0, [r7], {-0}
    4bec:	00000900 	andeq	r0, r0, r0, lsl #18
    4bf0:	000a1421 	andeq	r1, sl, r1, lsr #8
    4bf4:	31210000 	teqcc	r1, r0
    4bf8:	0100000e 	tsteq	r0, lr
    4bfc:	000e8921 	andeq	r8, lr, r1, lsr #18
    4c00:	55210400 	strpl	r0, [r1, #-1024]!	; 0x400
    4c04:	0500000a 	streq	r0, [r0, #-10]
    4c08:	000bec21 	andeq	lr, fp, r1, lsr #24
    4c0c:	a6210600 	strtge	r0, [r1], -r0, lsl #12
    4c10:	0700000e 	streq	r0, [r0, -lr]
    4c14:	000eb521 	andeq	fp, lr, r1, lsr #10
    4c18:	c4210300 	strtgt	r0, [r1], #-768	; 0x300
    4c1c:	0200000e 	andeq	r0, r0, #14
    4c20:	0f830500 	svceq	0x00830500
    4c24:	15070000 	strne	r0, [r7, #-0]
    4c28:	000008c3 	andeq	r0, r0, r3, asr #17
    4c2c:	000f5422 	andeq	r5, pc, r2, lsr #8
    4c30:	331d0100 	tstcc	sp, #0, 2
    4c34:	1c000000 	stcne	0, cr0, [r0], {-0}
    4c38:	22202000 	eorcs	r2, r0, #0
    4c3c:	00000f8f 	andeq	r0, r0, pc, lsl #31
    4c40:	00331e01 	eorseq	r1, r3, r1, lsl #28
    4c44:	00280000 	eoreq	r0, r8, r0
    4c48:	5e222020 	cdppl	0, 2, cr2, cr2, cr0, {1}
    4c4c:	0100000f 	tsteq	r0, pc
    4c50:	0000331f 	andeq	r3, r0, pc, lsl r3
    4c54:	20003400 	andcs	r3, r0, r0, lsl #8
    4c58:	0f2f2320 	svceq	0x002f2320
    4c5c:	56010000 	strpl	r0, [r1], -r0
    4c60:	00000025 	andeq	r0, r0, r5, lsr #32
    4c64:	00009940 	andeq	r9, r0, r0, asr #18
    4c68:	00000034 	andeq	r0, r0, r4, lsr r0
    4c6c:	09989c01 	ldmibeq	r8, {r0, sl, fp, ip, pc}
    4c70:	70240000 	eorvc	r0, r4, r0
    4c74:	01006e69 	tsteq	r0, r9, ror #28
    4c78:	00002c56 	andeq	r2, r0, r6, asr ip
    4c7c:	000ea100 	andeq	sl, lr, r0, lsl #2
    4c80:	0f232500 	svceq	0x00232500
    4c84:	59010000 	stmdbpl	r1, {}	; <UNPREDICTABLE>
    4c88:	0000002c 	andeq	r0, r0, ip, lsr #32
    4c8c:	00000edb 	ldrdeq	r0, [r0], -fp
    4c90:	66666f26 	strbtvs	r6, [r6], -r6, lsr #30
    4c94:	2c5a0100 	ldfcse	f0, [sl], {-0}
    4c98:	19000000 	stmdbne	r0, {}	; <UNPREDICTABLE>
    4c9c:	2700000f 	strcs	r0, [r0, -pc]
    4ca0:	0000995c 	andeq	r9, r0, ip, asr r9
    4ca4:	00000b5d 	andeq	r0, r0, sp, asr fp
    4ca8:	0b500128 	bleq	1405150 <__bss_end__+0x13fabc8>
    4cac:	355001f3 	ldrbcc	r0, [r0, #-499]	; 0x1f3
    4cb0:	80b42325 	adcshi	r2, r4, r5, lsr #6
    4cb4:	00028180 	andeq	r8, r2, r0, lsl #3
    4cb8:	0f492900 	svceq	0x00492900
    4cbc:	4f010000 	svcmi	0x00010000
    4cc0:	00009924 	andeq	r9, r0, r4, lsr #18
    4cc4:	0000001c 	andeq	r0, r0, ip, lsl r0
    4cc8:	09e89c01 	stmibeq	r8!, {r0, sl, fp, ip, pc}^
    4ccc:	70240000 	eorvc	r0, r4, r0
    4cd0:	01006e69 	tsteq	r0, r9, ror #28
    4cd4:	00002c4f 	andeq	r2, r0, pc, asr #24
    4cd8:	000f2c00 	andeq	r2, pc, r0, lsl #24
    4cdc:	00762400 	rsbseq	r2, r6, r0, lsl #8
    4ce0:	002c4f01 	eoreq	r4, ip, r1, lsl #30
    4ce4:	0f660000 	svceq	0x00660000
    4ce8:	342a0000 	strtcc	r0, [sl], #-0
    4cec:	23000099 	movwcs	r0, #153	; 0x99
    4cf0:	de00000a 	cdple	0, 0, cr0, cr0, cr10, {0}
    4cf4:	28000009 	stmdacs	r0, {r0, r3}
    4cf8:	f3035001 	vhadd.u8	d5, d3, d1
    4cfc:	2b005001 	blcs	18d08 <__bss_end__+0xe780>
    4d00:	0000993c 	andeq	r9, r0, ip, lsr r9
    4d04:	00000a64 	andeq	r0, r0, r4, ror #20
    4d08:	0f682900 	svceq	0x00682900
    4d0c:	4a010000 	bmi	44d14 <__bss_end__+0x3a78c>
    4d10:	00009914 	andeq	r9, r0, r4, lsl r9
    4d14:	00000010 	andeq	r0, r0, r0, lsl r0
    4d18:	0a239c01 	beq	8ebd24 <__bss_end__+0x8e179c>
    4d1c:	70240000 	eorvc	r0, r4, r0
    4d20:	01006e69 	tsteq	r0, r9, ror #28
    4d24:	00002c4a 	andeq	r2, r0, sl, asr #24
    4d28:	000fa000 	andeq	sl, pc, r0
    4d2c:	99202700 	stmdbls	r0!, {r8, r9, sl, sp}
    4d30:	0ae00000 	beq	ff804d38 <__bss_end__+0xff7fa7b0>
    4d34:	01280000 	teqeq	r8, r0
    4d38:	01f30350 	mvnseq	r0, r0, asr r3
    4d3c:	51012850 	tstpl	r1, r0, asr r8
    4d40:	00003001 	andeq	r3, r0, r1
    4d44:	000f1629 	andeq	r1, pc, r9, lsr #12
    4d48:	f0430100 			; <UNDEFINED> instruction: 0xf0430100
    4d4c:	24000098 	strcs	r0, [r0], #-152	; 0x98
    4d50:	01000000 	mrseq	r0, (UNDEF: 0)
    4d54:	000a649c 	muleq	sl, ip, r4
    4d58:	69702400 	ldmdbvs	r0!, {sl, sp}^
    4d5c:	4301006e 	movwmi	r0, #4206	; 0x106e
    4d60:	0000002c 	andeq	r0, r0, ip, lsr #32
    4d64:	00000fc1 	andeq	r0, r0, r1, asr #31
    4d68:	00990c27 	addseq	r0, r9, r7, lsr #24
    4d6c:	000b6800 	andeq	r6, fp, r0, lsl #16
    4d70:	50012800 	andpl	r2, r1, r0, lsl #16
    4d74:	00280c05 	eoreq	r0, r8, r5, lsl #24
    4d78:	01282020 	teqeq	r8, r0, lsr #32
    4d7c:	f3310551 	vqrshl.u64	q0, <illegal reg q0.5>, <illegal reg q0.5>
    4d80:	00245001 	eoreq	r5, r4, r1
    4d84:	0f772900 	svceq	0x00772900
    4d88:	3c010000 	stccc	0, cr0, [r1], {-0}
    4d8c:	000098cc 	andeq	r9, r0, ip, asr #17
    4d90:	00000024 	andeq	r0, r0, r4, lsr #32
    4d94:	0aa59c01 	beq	fe96bda0 <__bss_end__+0xfe961818>
    4d98:	70240000 	eorvc	r0, r4, r0
    4d9c:	01006e69 	tsteq	r0, r9, ror #28
    4da0:	00002c3c 	andeq	r2, r0, ip, lsr ip
    4da4:	000fe200 	andeq	lr, pc, r0, lsl #4
    4da8:	98e82700 	stmials	r8!, {r8, r9, sl, sp}^
    4dac:	0b680000 	bleq	1a04db4 <__bss_end__+0x19fa82c>
    4db0:	01280000 	teqeq	r8, r0
    4db4:	1c0c0550 	cfstr32ne	mvfx0, [ip], {80}	; 0x50
    4db8:	28202000 	stmdacs	r0!, {sp}
    4dbc:	31055101 	tstcc	r5, r1, lsl #2
    4dc0:	245001f3 	ldrbcs	r0, [r0], #-499	; 0x1f3
    4dc4:	39290000 	stmdbcc	r9!, {}	; <UNPREDICTABLE>
    4dc8:	0100000f 	tsteq	r0, pc
    4dcc:	0098bc37 	addseq	fp, r8, r7, lsr ip
    4dd0:	00001000 	andeq	r1, r0, r0
    4dd4:	e09c0100 	adds	r0, ip, r0, lsl #2
    4dd8:	2400000a 	strcs	r0, [r0], #-10
    4ddc:	006e6970 	rsbeq	r6, lr, r0, ror r9
    4de0:	002c3701 	eoreq	r3, ip, r1, lsl #14
    4de4:	10030000 	andne	r0, r3, r0
    4de8:	c8270000 	stmdagt	r7!, {}	; <UNPREDICTABLE>
    4dec:	e0000098 	mul	r0, r8, r0
    4df0:	2800000a 	stmdacs	r0, {r1, r3}
    4df4:	f3035001 	vhadd.u8	d5, d3, d1
    4df8:	01285001 	teqeq	r8, r1
    4dfc:	00310151 	eorseq	r0, r1, r1, asr r1
    4e00:	0c222900 	stceq	9, cr2, [r2], #-0
    4e04:	28010000 	stmdacs	r1, {}	; <UNPREDICTABLE>
    4e08:	00009854 	andeq	r9, r0, r4, asr r8
    4e0c:	00000068 	andeq	r0, r0, r8, rrx
    4e10:	0b5d9c01 	bleq	176be1c <__bss_end__+0x1761894>
    4e14:	70240000 	eorvc	r0, r4, r0
    4e18:	01006e69 	tsteq	r0, r9, ror #28
    4e1c:	00002c28 	andeq	r2, r0, r8, lsr #24
    4e20:	00102400 	andseq	r2, r0, r0, lsl #8
    4e24:	0e6e2c00 	cdpeq	12, 6, cr2, cr14, cr0, {0}
    4e28:	28010000 	stmdacs	r1, {}	; <UNPREDICTABLE>
    4e2c:	00000900 	andeq	r0, r0, r0, lsl #18
    4e30:	00001045 	andeq	r1, r0, r5, asr #32
    4e34:	66666f2d 	strbtvs	r6, [r6], -sp, lsr #30
    4e38:	2c2d0100 	stfcss	f0, [sp], #-0
    4e3c:	01000000 	mrseq	r0, (UNDEF: 0)
    4e40:	00672d54 	rsbeq	r2, r7, r4, asr sp
    4e44:	002c2f01 	eoreq	r2, ip, r1, lsl #30
    4e48:	56010000 	strpl	r0, [r1], -r0
    4e4c:	01007626 	tsteq	r0, r6, lsr #12
    4e50:	00002c31 	andeq	r2, r0, r1, lsr ip
    4e54:	00106600 	andseq	r6, r0, r0, lsl #12
    4e58:	98a02a00 	stmials	r0!, {r9, fp, sp}
    4e5c:	0b5d0000 	bleq	1744e64 <__bss_end__+0x173a8dc>
    4e60:	0b4c0000 	bleq	1304e68 <__bss_end__+0x12fa8e0>
    4e64:	01280000 	teqeq	r8, r0
    4e68:	00760250 	rsbseq	r0, r6, r0, asr r2
    4e6c:	98b42700 	ldmls	r4!, {r8, r9, sl, sp}
    4e70:	0b680000 	bleq	1a04e78 <__bss_end__+0x19fa8f0>
    4e74:	01280000 	teqeq	r8, r0
    4e78:	00760250 	rsbseq	r0, r6, r0, asr r2
    4e7c:	8b2e0000 	blhi	b84e84 <__bss_end__+0xb7a8fc>
    4e80:	8b000009 	blhi	4eac <__code_start__-0x3154>
    4e84:	06000009 	streq	r0, [r0], -r9
    4e88:	08c52ea7 	stmiaeq	r5, {r0, r1, r2, r5, r7, r9, sl, fp, sp}^
    4e8c:	08c50000 	stmiaeq	r5, {}^	; <UNPREDICTABLE>
    4e90:	9b060000 	blls	184e98 <__bss_end__+0x17a910>
	...

Disassembly of section .debug_abbrev:

00000000 <.debug_abbrev>:
       0:	25011101 	strcs	r1, [r1, #-257]	; 0x101
       4:	030b130e 	movweq	r1, #45838	; 0xb30e
       8:	110e1b0e 	tstne	lr, lr, lsl #22
       c:	10061201 	andne	r1, r6, r1, lsl #4
      10:	02000017 	andeq	r0, r0, #23
      14:	0b0b0024 	bleq	2c00ac <__bss_end__+0x2b5b24>
      18:	08030b3e 	stmdaeq	r3, {r1, r2, r3, r4, r5, r8, r9, fp}
      1c:	24030000 	strcs	r0, [r3], #-0
      20:	3e0b0b00 	vmlacc.f64	d0, d11, d0
      24:	000e030b 	andeq	r0, lr, fp, lsl #6
      28:	00160400 	andseq	r0, r6, r0, lsl #8
      2c:	0b3a0e03 	bleq	e83840 <__bss_end__+0xe792b8>
      30:	13490b3b 	movtne	r0, #39739	; 0x9b3b
      34:	0f050000 	svceq	0x00050000
      38:	490b0b00 	stmdbmi	fp, {r8, r9, fp}
      3c:	06000013 			; <UNDEFINED> instruction: 0x06000013
      40:	13490026 	movtne	r0, #36902	; 0x9026
      44:	01070000 	mrseq	r0, (UNDEF: 7)
      48:	01134901 	tsteq	r3, r1, lsl #18
      4c:	08000013 	stmdaeq	r0, {r0, r1, r4}
      50:	13490021 	movtne	r0, #36897	; 0x9021
      54:	00000b2f 	andeq	r0, r0, pc, lsr #22
      58:	03011309 	movweq	r1, #4873	; 0x1309
      5c:	3a0b0b0e 	bcc	2c2c9c <__bss_end__+0x2b8714>
      60:	010b3b0b 	tsteq	fp, fp, lsl #22
      64:	0a000013 	beq	b8 <__code_start__-0x7f48>
      68:	0e03000d 	cdpeq	0, 0, cr0, cr3, cr13, {0}
      6c:	0b3b0b3a 	bleq	ec2d5c <__bss_end__+0xeb87d4>
      70:	0b381349 	bleq	e04d9c <__bss_end__+0xdfa814>
      74:	0d0b0000 	stceq	0, cr0, [fp, #-0]
      78:	3a080300 	bcc	200c80 <__bss_end__+0x1f66f8>
      7c:	490b3b0b 	stmdbmi	fp, {r0, r1, r3, r8, r9, fp, ip, sp}
      80:	000b3813 	andeq	r3, fp, r3, lsl r8
      84:	00350c00 	eorseq	r0, r5, r0, lsl #24
      88:	150d0000 	strne	r0, [sp, #-0]
      8c:	01192701 	tsteq	r9, r1, lsl #14
      90:	0e000013 	mcreq	0, 0, r0, cr0, cr3, {0}
      94:	13490005 	movtne	r0, #36869	; 0x9005
      98:	150f0000 	strne	r0, [pc, #-0]	; a0 <__code_start__-0x7f60>
      9c:	49192701 	ldmdbmi	r9, {r0, r8, r9, sl, sp}
      a0:	00130113 	andseq	r0, r3, r3, lsl r1
      a4:	00351000 	eorseq	r1, r5, r0
      a8:	00001349 	andeq	r1, r0, r9, asr #6
      ac:	03012e11 	movweq	r2, #7697	; 0x1e11
      b0:	3b0b3a0e 	blcc	2ce8f0 <__bss_end__+0x2c4368>
      b4:	2019270b 	andscs	r2, r9, fp, lsl #14
      b8:	0013010b 	andseq	r0, r3, fp, lsl #2
      bc:	00051200 	andeq	r1, r5, r0, lsl #4
      c0:	0b3a0e03 	bleq	e838d4 <__bss_end__+0xe7934c>
      c4:	13490b3b 	movtne	r0, #39739	; 0x9b3b
      c8:	2e130000 	cdpcs	0, 1, cr0, cr3, cr0, {0}
      cc:	3a0e0301 	bcc	380cd8 <__bss_end__+0x376750>
      d0:	270b3b0b 	strcs	r3, [fp, -fp, lsl #22]
      d4:	12011119 	andne	r1, r1, #1073741830	; 0x40000006
      d8:	97184006 	ldrls	r4, [r8, -r6]
      dc:	13011942 	movwne	r1, #6466	; 0x1942
      e0:	05140000 	ldreq	r0, [r4, #-0]
      e4:	3a080300 	bcc	200cec <__bss_end__+0x1f6764>
      e8:	490b3b0b 	stmdbmi	fp, {r0, r1, r3, r8, r9, fp, ip, sp}
      ec:	00180213 	andseq	r0, r8, r3, lsl r2
      f0:	012e1500 	teqeq	lr, r0, lsl #10
      f4:	0b3a0e03 	bleq	e83908 <__bss_end__+0xe79380>
      f8:	19270b3b 	stmdbne	r7!, {r0, r1, r3, r4, r5, r8, r9, fp}
      fc:	01111349 	tsteq	r1, r9, asr #6
     100:	18400612 	stmdane	r0, {r1, r4, r9, sl}^
     104:	01194297 			; <UNDEFINED> instruction: 0x01194297
     108:	16000013 			; <UNDEFINED> instruction: 0x16000013
     10c:	08030005 	stmdaeq	r3, {r0, r2}
     110:	0b3b0b3a 	bleq	ec2e00 <__bss_end__+0xeb8878>
     114:	17021349 	strne	r1, [r2, -r9, asr #6]
     118:	2e170000 	cdpcs	0, 1, cr0, cr7, cr0, {0}
     11c:	03193f00 	tsteq	r9, #0, 30
     120:	3b0b3a0e 	blcc	2ce960 <__bss_end__+0x2c43d8>
     124:	4919270b 	ldmdbmi	r9, {r0, r1, r3, r8, r9, sl, sp}
     128:	12011113 	andne	r1, r1, #-1073741820	; 0xc0000004
     12c:	97184006 	ldrls	r4, [r8, -r6]
     130:	00001942 	andeq	r1, r0, r2, asr #18
     134:	3f012e18 	svccc	0x00012e18
     138:	3a0e0319 	bcc	380da4 <__bss_end__+0x37681c>
     13c:	270b3b0b 	strcs	r3, [fp, -fp, lsl #22]
     140:	12011119 	andne	r1, r1, #1073741830	; 0x40000006
     144:	97184006 	ldrls	r4, [r8, -r6]
     148:	13011942 	movwne	r1, #6466	; 0x1942
     14c:	34190000 	ldrcc	r0, [r9], #-0
     150:	3a080300 	bcc	200d58 <__bss_end__+0x1f67d0>
     154:	490b3b0b 	stmdbmi	fp, {r0, r1, r3, r8, r9, fp, ip, sp}
     158:	00180213 	andseq	r0, r8, r3, lsl r2
     15c:	00341a00 	eorseq	r1, r4, r0, lsl #20
     160:	0b3a0803 	bleq	e82174 <__bss_end__+0xe77bec>
     164:	13490b3b 	movtne	r0, #39739	; 0x9b3b
     168:	341b0000 	ldrcc	r0, [fp], #-0
     16c:	490e0300 	stmdbmi	lr, {r8, r9}
     170:	02193413 	andseq	r3, r9, #318767104	; 0x13000000
     174:	1c000018 	stcne	0, cr0, [r0], {24}
     178:	1331011d 	teqne	r1, #1073741831	; 0x40000007
     17c:	06120111 			; <UNDEFINED> instruction: 0x06120111
     180:	0b590b58 	bleq	1642ee8 <__bss_end__+0x1638960>
     184:	00001301 	andeq	r1, r0, r1, lsl #6
     188:	3100051d 	tstcc	r0, sp, lsl r5
     18c:	000b1c13 	andeq	r1, fp, r3, lsl ip
     190:	82891e00 	addhi	r1, r9, #0, 28
     194:	01110001 	tsteq	r1, r1
     198:	00001331 	andeq	r1, r0, r1, lsr r3
     19c:	0182891f 	orreq	r8, r2, pc, lsl r9
     1a0:	31011101 	tstcc	r1, r1, lsl #2
     1a4:	00130113 	andseq	r0, r3, r3, lsl r1
     1a8:	828a2000 	addhi	r2, sl, #0
     1ac:	18020001 	stmdane	r2, {r0}
     1b0:	00184291 	mulseq	r8, r1, r2
     1b4:	00342100 	eorseq	r2, r4, r0, lsl #2
     1b8:	0b3a0e03 	bleq	e839cc <__bss_end__+0xe79444>
     1bc:	13490b3b 	movtne	r0, #39739	; 0x9b3b
     1c0:	193c193f 	ldmdbne	ip!, {r0, r1, r2, r3, r4, r5, r8, fp, ip}
     1c4:	2e220000 	cdpcs	0, 2, cr0, cr2, cr0, {0}
     1c8:	03193f00 	tsteq	r9, #0, 30
     1cc:	3b0b3a0e 	blcc	2cea0c <__bss_end__+0x2c4484>
     1d0:	3c19270b 	ldccc	7, cr2, [r9], {11}
     1d4:	23000019 	movwcs	r0, #25
     1d8:	193f012e 	ldmdbne	pc!, {r1, r2, r3, r5, r8}	; <UNPREDICTABLE>
     1dc:	0b3a0e03 	bleq	e839f0 <__bss_end__+0xe79468>
     1e0:	19270b3b 	stmdbne	r7!, {r0, r1, r3, r4, r5, r8, r9, fp}
     1e4:	193c1349 	ldmdbne	ip!, {r0, r3, r6, r8, r9, ip}
     1e8:	00001301 	andeq	r1, r0, r1, lsl #6
     1ec:	00001824 	andeq	r1, r0, r4, lsr #16
     1f0:	11010000 	mrsne	r0, (UNDEF: 1)
     1f4:	130e2501 	movwne	r2, #58625	; 0xe501
     1f8:	1b0e030b 	blne	380e2c <__bss_end__+0x3768a4>
     1fc:	1201110e 	andne	r1, r1, #-2147483645	; 0x80000003
     200:	00171006 	andseq	r1, r7, r6
     204:	00240200 	eoreq	r0, r4, r0, lsl #4
     208:	0b3e0b0b 	bleq	f82e3c <__bss_end__+0xf788b4>
     20c:	00000803 	andeq	r0, r0, r3, lsl #16
     210:	0b002403 	bleq	9224 <va_printk+0x150>
     214:	030b3e0b 	movweq	r3, #48651	; 0xbe0b
     218:	0400000e 	streq	r0, [r0], #-14
     21c:	0e030016 	mcreq	0, 0, r0, cr3, cr6, {0}
     220:	0b3b0b3a 	bleq	ec2f10 <__bss_end__+0xeb8988>
     224:	00001349 	andeq	r1, r0, r9, asr #6
     228:	0b000f05 	bleq	3e44 <__code_start__-0x41bc>
     22c:	0600000b 	streq	r0, [r0], -fp
     230:	0b0b000f 	bleq	2c0274 <__bss_end__+0x2b5cec>
     234:	00001349 	andeq	r1, r0, r9, asr #6
     238:	49002607 	stmdbmi	r0, {r0, r1, r2, r9, sl, sp}
     23c:	08000013 	stmdaeq	r0, {r0, r1, r4}
     240:	19270115 	stmdbne	r7!, {r0, r2, r4, r8}
     244:	00001301 	andeq	r1, r0, r1, lsl #6
     248:	49000509 	stmdbmi	r0, {r0, r3, r8, sl}
     24c:	0a000013 	beq	2a0 <__code_start__-0x7d60>
     250:	0e03012e 	adfeqsp	f0, f3, #0.5
     254:	0b3b0b3a 	bleq	ec2f44 <__bss_end__+0xeb89bc>
     258:	13491927 	movtne	r1, #39207	; 0x9927
     25c:	13010b20 	movwne	r0, #6944	; 0x1b20
     260:	340b0000 	strcc	r0, [fp], #-0
     264:	3a080300 	bcc	200e6c <__bss_end__+0x1f68e4>
     268:	490b3b0b 	stmdbmi	fp, {r0, r1, r3, r8, r9, fp, ip, sp}
     26c:	0c000013 	stceq	0, cr0, [r0], {19}
     270:	08030005 	stmdaeq	r3, {r0, r2}
     274:	0b3b0b3a 	bleq	ec2f64 <__bss_end__+0xeb89dc>
     278:	00001349 	andeq	r1, r0, r9, asr #6
     27c:	03012e0d 	movweq	r2, #7693	; 0x1e0d
     280:	3b0b3a0e 	blcc	2ceac0 <__bss_end__+0x2c4538>
     284:	2019270b 	andscs	r2, r9, fp, lsl #14
     288:	0013010b 	andseq	r0, r3, fp, lsl #2
     28c:	00340e00 	eorseq	r0, r4, r0, lsl #28
     290:	0b3a0e03 	bleq	e83aa4 <__bss_end__+0xe7951c>
     294:	13490b3b 	movtne	r0, #39739	; 0x9b3b
     298:	2e0f0000 	cdpcs	0, 0, cr0, cr15, cr0, {0}
     29c:	03193f01 	tsteq	r9, #1, 30
     2a0:	3b0b3a0e 	blcc	2ceae0 <__bss_end__+0x2c4558>
     2a4:	1119270b 	tstne	r9, fp, lsl #14
     2a8:	40061201 	andmi	r1, r6, r1, lsl #4
     2ac:	19429718 	stmdbne	r2, {r3, r4, r8, r9, sl, ip, pc}^
     2b0:	00001301 	andeq	r1, r0, r1, lsl #6
     2b4:	03000510 	movweq	r0, #1296	; 0x510
     2b8:	3b0b3a0e 	blcc	2ceaf8 <__bss_end__+0x2c4570>
     2bc:	0213490b 	andseq	r4, r3, #180224	; 0x2c000
     2c0:	11000017 	tstne	r0, r7, lsl r0
     2c4:	0e030034 	mcreq	0, 0, r0, cr3, cr4, {1}
     2c8:	0b3b0b3a 	bleq	ec2fb8 <__bss_end__+0xeb8a30>
     2cc:	17021349 	strne	r1, [r2, -r9, asr #6]
     2d0:	34120000 	ldrcc	r0, [r2], #-0
     2d4:	490e0300 	stmdbmi	lr, {r8, r9}
     2d8:	02193413 	andseq	r3, r9, #318767104	; 0x13000000
     2dc:	13000018 	movwne	r0, #24
     2e0:	1331011d 	teqne	r1, #1073741831	; 0x40000007
     2e4:	06120111 			; <UNDEFINED> instruction: 0x06120111
     2e8:	0b590b58 	bleq	1643050 <__bss_end__+0x1638ac8>
     2ec:	00001301 	andeq	r1, r0, r1, lsl #6
     2f0:	11010b14 	tstne	r1, r4, lsl fp
     2f4:	00061201 	andeq	r1, r6, r1, lsl #4
     2f8:	00341500 	eorseq	r1, r4, r0, lsl #10
     2fc:	17021331 	smladxne	r2, r1, r3, r1
     300:	05160000 	ldreq	r0, [r6, #-0]
     304:	02133100 	andseq	r3, r3, #0, 2
     308:	17000017 	smladne	r0, r7, r0, r0
     30c:	13310005 	teqne	r1, #5
     310:	0000051c 	andeq	r0, r0, ip, lsl r5
     314:	31000518 	tstcc	r0, r8, lsl r5
     318:	000b1c13 	andeq	r1, fp, r3, lsl ip
     31c:	82891900 	addhi	r1, r9, #0, 18
     320:	01110001 	tsteq	r1, r1
     324:	00001331 	andeq	r1, r0, r1, lsr r3
     328:	0182891a 	orreq	r8, r2, sl, lsl r9
     32c:	31011101 	tstcc	r1, r1, lsl #2
     330:	00130113 	andseq	r0, r3, r3, lsl r1
     334:	828a1b00 	addhi	r1, sl, #0, 22
     338:	18020001 	stmdane	r2, {r0}
     33c:	00184291 	mulseq	r8, r1, r2
     340:	01011c00 	tsteq	r1, r0, lsl #24
     344:	13011349 	movwne	r1, #4937	; 0x1349
     348:	211d0000 	tstcs	sp, r0
     34c:	2f134900 	svccs	0x00134900
     350:	1e00000b 	cdpne	0, 0, cr0, cr0, cr11, {0}
     354:	0e030034 	mcreq	0, 0, r0, cr3, cr4, {1}
     358:	19341349 	ldmdbne	r4!, {r0, r3, r6, r8, r9, ip}
     35c:	00000e1c 	andeq	r0, r0, ip, lsl lr
     360:	0300051f 	movweq	r0, #1311	; 0x51f
     364:	3b0b3a08 	blcc	2ceb8c <__bss_end__+0x2c4604>
     368:	0213490b 	andseq	r4, r3, #180224	; 0x2c000
     36c:	20000017 	andcs	r0, r0, r7, lsl r0
     370:	0e030034 	mcreq	0, 0, r0, cr3, cr4, {1}
     374:	0b3b0b3a 	bleq	ec3064 <__bss_end__+0xeb8adc>
     378:	18021349 	stmdane	r2, {r0, r3, r6, r8, r9, ip}
     37c:	34210000 	strtcc	r0, [r1], #-0
     380:	00133100 	andseq	r3, r3, r0, lsl #2
     384:	011d2200 	tsteq	sp, r0, lsl #4
     388:	01111331 	tsteq	r1, r1, lsr r3
     38c:	0b580612 	bleq	1601bdc <__bss_end__+0x15f7654>
     390:	00000b59 	andeq	r0, r0, r9, asr fp
     394:	31003423 	tstcc	r0, r3, lsr #8
     398:	00180213 	andseq	r0, r8, r3, lsl r2
     39c:	82892400 	addhi	r2, r9, #0, 8
     3a0:	01110101 	tsteq	r1, r1, lsl #2
     3a4:	34250000 	strtcc	r0, [r5], #-0
     3a8:	3a080300 	bcc	200fb0 <__bss_end__+0x1f6a28>
     3ac:	490b3b0b 	stmdbmi	fp, {r0, r1, r3, r8, r9, fp, ip, sp}
     3b0:	00051c13 	andeq	r1, r5, r3, lsl ip
     3b4:	00052600 	andeq	r2, r5, r0, lsl #12
     3b8:	0b3a0e03 	bleq	e83bcc <__bss_end__+0xe79644>
     3bc:	13490b3b 	movtne	r0, #39739	; 0x9b3b
     3c0:	00001802 	andeq	r1, r0, r2, lsl #16
     3c4:	31000527 	tstcc	r0, r7, lsr #10
     3c8:	00180213 	andseq	r0, r8, r3, lsl r2
     3cc:	00052800 	andeq	r2, r5, r0, lsl #16
     3d0:	0b3a0803 	bleq	e823e4 <__bss_end__+0xe77e5c>
     3d4:	13490b3b 	movtne	r0, #39739	; 0x9b3b
     3d8:	00001802 	andeq	r1, r0, r2, lsl #16
     3dc:	31000529 	tstcc	r0, r9, lsr #10
     3e0:	00061c13 	andeq	r1, r6, r3, lsl ip
     3e4:	00342a00 	eorseq	r2, r4, r0, lsl #20
     3e8:	0b3a0e03 	bleq	e83bfc <__bss_end__+0xe79674>
     3ec:	13490b3b 	movtne	r0, #39739	; 0x9b3b
     3f0:	0000061c 	andeq	r0, r0, ip, lsl r6
     3f4:	31011d2b 	tstcc	r1, fp, lsr #26
     3f8:	12011113 	andne	r1, r1, #-1073741820	; 0xc0000004
     3fc:	590b5806 	stmdbpl	fp, {r1, r2, fp, ip, lr}
     400:	2c000005 	stccs	0, cr0, [r0], {5}
     404:	193f012e 	ldmdbne	pc!, {r1, r2, r3, r5, r8}	; <UNPREDICTABLE>
     408:	0b3a0e03 	bleq	e83c1c <__bss_end__+0xe79694>
     40c:	1927053b 	stmdbne	r7!, {r0, r1, r3, r4, r5, r8, sl}
     410:	01111349 	tsteq	r1, r9, asr #6
     414:	18400612 	stmdane	r0, {r1, r4, r9, sl}^
     418:	01194297 			; <UNDEFINED> instruction: 0x01194297
     41c:	2d000013 	stccs	0, cr0, [r0, #-76]	; 0xffffffb4
     420:	08030005 	stmdaeq	r3, {r0, r2}
     424:	053b0b3a 	ldreq	r0, [fp, #-2874]!	; 0xb3a
     428:	17021349 	strne	r1, [r2, -r9, asr #6]
     42c:	342e0000 	strtcc	r0, [lr], #-0
     430:	3a0e0300 	bcc	381038 <__bss_end__+0x376ab0>
     434:	49053b0b 	stmdbmi	r5, {r0, r1, r3, r8, r9, fp, ip, sp}
     438:	00170213 	andseq	r0, r7, r3, lsl r2
     43c:	82892f00 	addhi	r2, r9, #0, 30
     440:	01110101 	tsteq	r1, r1, lsl #2
     444:	00001331 	andeq	r1, r0, r1, lsr r3
     448:	03003430 	movweq	r3, #1072	; 0x430
     44c:	3b0b3a0e 	blcc	2cec8c <__bss_end__+0x2c4704>
     450:	3f13490b 	svccc	0x0013490b
     454:	00180219 	andseq	r0, r8, r9, lsl r2
     458:	002e3100 	eoreq	r3, lr, r0, lsl #2
     45c:	0e03193f 	mcreq	9, 0, r1, cr3, cr15, {1}
     460:	0b3b0b3a 	bleq	ec3150 <__bss_end__+0xeb8bc8>
     464:	193c1927 	ldmdbne	ip!, {r0, r1, r2, r5, r8, fp, ip}
     468:	2e320000 	cdpcs	0, 3, cr0, cr2, cr0, {0}
     46c:	03193f01 	tsteq	r9, #1, 30
     470:	3b0b3a0e 	blcc	2cecb0 <__bss_end__+0x2c4728>
     474:	4919270b 	ldmdbmi	r9, {r0, r1, r3, r8, r9, sl, sp}
     478:	01193c13 	tsteq	r9, r3, lsl ip
     47c:	33000013 	movwcc	r0, #19
     480:	00000018 	andeq	r0, r0, r8, lsl r0
     484:	01110100 	tsteq	r1, r0, lsl #2
     488:	0b130e25 	bleq	4c3d24 <__bss_end__+0x4b979c>
     48c:	0e1b0e03 	cdpeq	14, 1, cr0, cr11, cr3, {0}
     490:	06120111 			; <UNDEFINED> instruction: 0x06120111
     494:	00001710 	andeq	r1, r0, r0, lsl r7
     498:	0b002402 	bleq	94a8 <reset_vector+0x38>
     49c:	030b3e0b 	movweq	r3, #48651	; 0xbe0b
     4a0:	03000008 	movweq	r0, #8
     4a4:	0b0b0024 	bleq	2c053c <__bss_end__+0x2b5fb4>
     4a8:	0e030b3e 	vmoveq.16	d3[0], r0
     4ac:	16040000 	strne	r0, [r4], -r0
     4b0:	3a0e0300 	bcc	3810b8 <__bss_end__+0x376b30>
     4b4:	490b3b0b 	stmdbmi	fp, {r0, r1, r3, r8, r9, fp, ip, sp}
     4b8:	05000013 	streq	r0, [r0, #-19]
     4bc:	0b0b000f 	bleq	2c0500 <__bss_end__+0x2b5f78>
     4c0:	0f060000 	svceq	0x00060000
     4c4:	490b0b00 	stmdbmi	fp, {r8, r9, fp}
     4c8:	07000013 	smladeq	r0, r3, r0, r0
     4cc:	13490026 	movtne	r0, #36902	; 0x9026
     4d0:	15080000 	strne	r0, [r8, #-0]
     4d4:	01192701 	tsteq	r9, r1, lsl #14
     4d8:	09000013 	stmdbeq	r0, {r0, r1, r4}
     4dc:	13490005 	movtne	r0, #36869	; 0x9005
     4e0:	130a0000 	movwne	r0, #40960	; 0xa000
     4e4:	0b0e0301 	bleq	3810f0 <__bss_end__+0x376b68>
     4e8:	3b0b3a0b 	blcc	2ced1c <__bss_end__+0x2c4794>
     4ec:	0013010b 	andseq	r0, r3, fp, lsl #2
     4f0:	000d0b00 	andeq	r0, sp, r0, lsl #22
     4f4:	0b3a0e03 	bleq	e83d08 <__bss_end__+0xe79780>
     4f8:	13490b3b 	movtne	r0, #39739	; 0x9b3b
     4fc:	00000b38 	andeq	r0, r0, r8, lsr fp
     500:	03000d0c 	movweq	r0, #3340	; 0xd0c
     504:	3b0b3a08 	blcc	2ced2c <__bss_end__+0x2c47a4>
     508:	3813490b 	ldmdacc	r3, {r0, r1, r3, r8, fp, lr}
     50c:	0d00000b 	stceq	0, cr0, [r0, #-44]	; 0xffffffd4
     510:	00000035 	andeq	r0, r0, r5, lsr r0
     514:	2701150e 	strcs	r1, [r1, -lr, lsl #10]
     518:	01134919 	tsteq	r3, r9, lsl r9
     51c:	0f000013 	svceq	0x00000013
     520:	13490035 	movtne	r0, #36917	; 0x9035
     524:	2e100000 	cdpcs	0, 1, cr0, cr0, cr0, {0}
     528:	3a0e0301 	bcc	381134 <__bss_end__+0x376bac>
     52c:	270b3b0b 	strcs	r3, [fp, -fp, lsl #22]
     530:	20134919 	andscs	r4, r3, r9, lsl r9
     534:	0013010b 	andseq	r0, r3, fp, lsl #2
     538:	00341100 	eorseq	r1, r4, r0, lsl #2
     53c:	0b3a0803 	bleq	e82550 <__bss_end__+0xe77fc8>
     540:	13490b3b 	movtne	r0, #39739	; 0x9b3b
     544:	05120000 	ldreq	r0, [r2, #-0]
     548:	3a0e0300 	bcc	381150 <__bss_end__+0x376bc8>
     54c:	490b3b0b 	stmdbmi	fp, {r0, r1, r3, r8, r9, fp, ip, sp}
     550:	13000013 	movwne	r0, #19
     554:	0e030034 	mcreq	0, 0, r0, cr3, cr4, {1}
     558:	0b3b0b3a 	bleq	ec3248 <__bss_end__+0xeb8cc0>
     55c:	00001349 	andeq	r1, r0, r9, asr #6
     560:	03012e14 	movweq	r2, #7700	; 0x1e14
     564:	3b0b3a0e 	blcc	2ceda4 <__bss_end__+0x2c481c>
     568:	1119270b 	tstne	r9, fp, lsl #14
     56c:	40061201 	andmi	r1, r6, r1, lsl #4
     570:	19429718 	stmdbne	r2, {r3, r4, r8, r9, sl, ip, pc}^
     574:	00001301 	andeq	r1, r0, r1, lsl #6
     578:	03000515 	movweq	r0, #1301	; 0x515
     57c:	3b0b3a0e 	blcc	2cedbc <__bss_end__+0x2c4834>
     580:	0213490b 	andseq	r4, r3, #180224	; 0x2c000
     584:	16000017 			; <UNDEFINED> instruction: 0x16000017
     588:	08030005 	stmdaeq	r3, {r0, r2}
     58c:	0b3b0b3a 	bleq	ec327c <__bss_end__+0xeb8cf4>
     590:	17021349 	strne	r1, [r2, -r9, asr #6]
     594:	34170000 	ldrcc	r0, [r7], #-0
     598:	490e0300 	stmdbmi	lr, {r8, r9}
     59c:	02193413 	andseq	r3, r9, #318767104	; 0x13000000
     5a0:	18000018 	stmdane	r0, {r3, r4}
     5a4:	08030034 	stmdaeq	r3, {r2, r4, r5}
     5a8:	0b3b0b3a 	bleq	ec3298 <__bss_end__+0xeb8d10>
     5ac:	17021349 	strne	r1, [r2, -r9, asr #6]
     5b0:	1d190000 	ldcne	0, cr0, [r9, #-0]
     5b4:	11133101 	tstne	r3, r1, lsl #2
     5b8:	58061201 	stmdapl	r6, {r0, r9, ip}
     5bc:	010b590b 	tsteq	fp, fp, lsl #18
     5c0:	1a000013 	bne	614 <__code_start__-0x79ec>
     5c4:	0111010b 	tsteq	r1, fp, lsl #2
     5c8:	00000612 	andeq	r0, r0, r2, lsl r6
     5cc:	3100341b 	tstcc	r0, fp, lsl r4
     5d0:	1c000013 	stcne	0, cr0, [r0], {19}
     5d4:	1331011d 	teqne	r1, #1073741831	; 0x40000007
     5d8:	06120111 			; <UNDEFINED> instruction: 0x06120111
     5dc:	0b590b58 	bleq	1643344 <__bss_end__+0x1638dbc>
     5e0:	341d0000 	ldrcc	r0, [sp], #-0
     5e4:	02133100 	andseq	r3, r3, #0, 2
     5e8:	1e000017 	mcrne	0, 0, r0, cr0, cr7, {0}
     5ec:	01018289 	smlabbeq	r1, r9, r2, r8
     5f0:	13310111 	teqne	r1, #1073741828	; 0x40000004
     5f4:	00001301 	andeq	r1, r0, r1, lsl #6
     5f8:	01828a1f 	orreq	r8, r2, pc, lsl sl
     5fc:	91180200 	tstls	r8, r0, lsl #4
     600:	00001842 	andeq	r1, r0, r2, asr #16
     604:	01828920 	orreq	r8, r2, r0, lsr #18
     608:	31011100 	mrscc	r1, (UNDEF: 17)
     60c:	21000013 	tstcs	r0, r3, lsl r0
     610:	01018289 	smlabbeq	r1, r9, r2, r8
     614:	13010111 	movwne	r0, #4369	; 0x1111
     618:	89220000 	stmdbhi	r2!, {}	; <UNPREDICTABLE>
     61c:	11010182 	smlabbne	r1, r2, r1, r0
     620:	00133101 	andseq	r3, r3, r1, lsl #2
     624:	01012300 	mrseq	r2, SP_irq
     628:	13011349 	movwne	r1, #4937	; 0x1349
     62c:	21240000 	teqcs	r4, r0
     630:	2f134900 	svccs	0x00134900
     634:	2500000b 	strcs	r0, [r0, #-11]
     638:	0e030034 	mcreq	0, 0, r0, cr3, cr4, {1}
     63c:	19341349 	ldmdbne	r4!, {r0, r3, r6, r8, r9, ip}
     640:	00000e1c 	andeq	r0, r0, ip, lsl lr
     644:	03000526 	movweq	r0, #1318	; 0x526
     648:	3b0b3a08 	blcc	2cee70 <__bss_end__+0x2c48e8>
     64c:	0013490b 	andseq	r4, r3, fp, lsl #18
     650:	012e2700 	teqeq	lr, r0, lsl #14
     654:	0b3a0e03 	bleq	e83e68 <__bss_end__+0xe798e0>
     658:	19270b3b 	stmdbne	r7!, {r0, r1, r3, r4, r5, r8, r9, fp}
     65c:	01111349 	tsteq	r1, r9, asr #6
     660:	18400612 	stmdane	r0, {r1, r4, r9, sl}^
     664:	01194297 			; <UNDEFINED> instruction: 0x01194297
     668:	28000013 	stmdacs	r0, {r0, r1, r4}
     66c:	0e030034 	mcreq	0, 0, r0, cr3, cr4, {1}
     670:	0b3b0b3a 	bleq	ec3360 <__bss_end__+0xeb8dd8>
     674:	18021349 	stmdane	r2, {r0, r3, r6, r8, r9, ip}
     678:	05290000 	streq	r0, [r9, #-0]!
     67c:	1c133100 	ldfnes	f3, [r3], {-0}
     680:	2a00000b 	bcs	6b4 <__code_start__-0x794c>
     684:	13310005 	teqne	r1, #5
     688:	00001702 	andeq	r1, r0, r2, lsl #14
     68c:	3100342b 	tstcc	r0, fp, lsr #8
     690:	00180213 	andseq	r0, r8, r3, lsl r2
     694:	00342c00 	eorseq	r2, r4, r0, lsl #24
     698:	0b1c1331 	bleq	705364 <__bss_end__+0x6faddc>
     69c:	052d0000 	streq	r0, [sp, #-0]!
     6a0:	00133100 	andseq	r3, r3, r0, lsl #2
     6a4:	00052e00 	andeq	r2, r5, r0, lsl #28
     6a8:	0b3a0803 	bleq	e826bc <__bss_end__+0xe78134>
     6ac:	13490b3b 	movtne	r0, #39739	; 0x9b3b
     6b0:	00001802 	andeq	r1, r0, r2, lsl #16
     6b4:	3f012e2f 	svccc	0x00012e2f
     6b8:	3a0e0319 	bcc	381324 <__bss_end__+0x376d9c>
     6bc:	270b3b0b 	strcs	r3, [fp, -fp, lsl #22]
     6c0:	11134919 	tstne	r3, r9, lsl r9
     6c4:	40061201 	andmi	r1, r6, r1, lsl #4
     6c8:	19429718 	stmdbne	r2, {r3, r4, r8, r9, sl, ip, pc}^
     6cc:	00001301 	andeq	r1, r0, r1, lsl #6
     6d0:	03003430 	movweq	r3, #1072	; 0x430
     6d4:	3b0b3a0e 	blcc	2cef14 <__bss_end__+0x2c498c>
     6d8:	3f13490b 	svccc	0x0013490b
     6dc:	00193c19 	andseq	r3, r9, r9, lsl ip
     6e0:	012e3100 	teqeq	lr, r0, lsl #2
     6e4:	0e03193f 	mcreq	9, 0, r1, cr3, cr15, {1}
     6e8:	0b3b0b3a 	bleq	ec33d8 <__bss_end__+0xeb8e50>
     6ec:	13491927 	movtne	r1, #39207	; 0x9927
     6f0:	1301193c 	movwne	r1, #6460	; 0x193c
     6f4:	18320000 	ldmdane	r2!, {}	; <UNPREDICTABLE>
     6f8:	33000000 	movwcc	r0, #0
     6fc:	193f002e 	ldmdbne	pc!, {r1, r2, r3, r5}	; <UNPREDICTABLE>
     700:	0b3a0e03 	bleq	e83f14 <__bss_end__+0xe7998c>
     704:	19270b3b 	stmdbne	r7!, {r0, r1, r3, r4, r5, r8, r9, fp}
     708:	0000193c 	andeq	r1, r0, ip, lsr r9
     70c:	3f012e34 	svccc	0x00012e34
     710:	3a0e0319 	bcc	38137c <__bss_end__+0x376df4>
     714:	270b3b0b 	strcs	r3, [fp, -fp, lsl #22]
     718:	01193c19 	tsteq	r9, r9, lsl ip
     71c:	00000013 	andeq	r0, r0, r3, lsl r0
     720:	25011101 	strcs	r1, [r1, #-257]	; 0x101
     724:	030b130e 	movweq	r1, #45838	; 0xb30e
     728:	110e1b0e 	tstne	lr, lr, lsl #22
     72c:	10061201 	andne	r1, r6, r1, lsl #4
     730:	02000017 	andeq	r0, r0, #23
     734:	0e030016 	mcreq	0, 0, r0, cr3, cr6, {0}
     738:	0b3b0b3a 	bleq	ec3428 <__bss_end__+0xeb8ea0>
     73c:	00001349 	andeq	r1, r0, r9, asr #6
     740:	03011303 	movweq	r1, #4867	; 0x1303
     744:	3a0b0b0e 	bcc	2c3384 <__bss_end__+0x2b8dfc>
     748:	010b3b0b 	tsteq	fp, fp, lsl #22
     74c:	04000013 	streq	r0, [r0], #-19
     750:	0e03000d 	cdpeq	0, 0, cr0, cr3, cr13, {0}
     754:	0b381349 	bleq	e05480 <__bss_end__+0xdfaef8>
     758:	00001934 	andeq	r1, r0, r4, lsr r9
     75c:	0b000f05 	bleq	4378 <__code_start__-0x3c88>
     760:	0600000b 	streq	r0, [r0], -fp
     764:	0b0b0024 	bleq	2c07fc <__bss_end__+0x2b6274>
     768:	08030b3e 	stmdaeq	r3, {r1, r2, r3, r4, r5, r8, r9, fp}
     76c:	24070000 	strcs	r0, [r7], #-0
     770:	3e0b0b00 	vmlacc.f64	d0, d11, d0
     774:	000e030b 	andeq	r0, lr, fp, lsl #6
     778:	000f0800 	andeq	r0, pc, r0, lsl #16
     77c:	13490b0b 	movtne	r0, #39691	; 0x9b0b
     780:	26090000 	strcs	r0, [r9], -r0
     784:	00134900 	andseq	r4, r3, r0, lsl #18
     788:	012e0a00 	teqeq	lr, r0, lsl #20
     78c:	0e03193f 	mcreq	9, 0, r1, cr3, cr15, {1}
     790:	0b3b0b3a 	bleq	ec3480 <__bss_end__+0xeb8ef8>
     794:	13491927 	movtne	r1, #39207	; 0x9927
     798:	06120111 			; <UNDEFINED> instruction: 0x06120111
     79c:	42971840 	addsmi	r1, r7, #64, 16	; 0x400000
     7a0:	00130119 	andseq	r0, r3, r9, lsl r1
     7a4:	00050b00 	andeq	r0, r5, r0, lsl #22
     7a8:	0b3a0803 	bleq	e827bc <__bss_end__+0xe78234>
     7ac:	13490b3b 	movtne	r0, #39739	; 0x9b3b
     7b0:	00001802 	andeq	r1, r0, r2, lsl #16
     7b4:	0000180c 	andeq	r1, r0, ip, lsl #16
     7b8:	00340d00 	eorseq	r0, r4, r0, lsl #26
     7bc:	0b3a0803 	bleq	e827d0 <__bss_end__+0xe78248>
     7c0:	13490b3b 	movtne	r0, #39739	; 0x9b3b
     7c4:	00001802 	andeq	r1, r0, r2, lsl #16
     7c8:	0300340e 	movweq	r3, #1038	; 0x40e
     7cc:	3b0b3a0e 	blcc	2cf00c <__bss_end__+0x2c4a84>
     7d0:	0213490b 	andseq	r4, r3, #180224	; 0x2c000
     7d4:	0f000018 	svceq	0x00000018
     7d8:	08030034 	stmdaeq	r3, {r2, r4, r5}
     7dc:	0b3b0b3a 	bleq	ec34cc <__bss_end__+0xeb8f44>
     7e0:	17021349 	strne	r1, [r2, -r9, asr #6]
     7e4:	89100000 	ldmdbhi	r0, {}	; <UNPREDICTABLE>
     7e8:	11010182 	smlabbne	r1, r2, r1, r0
     7ec:	01133101 	tsteq	r3, r1, lsl #2
     7f0:	11000013 	tstne	r0, r3, lsl r0
     7f4:	0001828a 	andeq	r8, r1, sl, lsl #5
     7f8:	42911802 	addsmi	r1, r1, #131072	; 0x20000
     7fc:	12000018 	andne	r0, r0, #24
     800:	01018289 	smlabbeq	r1, r9, r2, r8
     804:	00000111 	andeq	r0, r0, r1, lsl r1
     808:	49010113 	stmdbmi	r1, {r0, r1, r4, r8}
     80c:	00130113 	andseq	r0, r3, r3, lsl r1
     810:	00211400 	eoreq	r1, r1, r0, lsl #8
     814:	052f1349 	streq	r1, [pc, #-841]!	; 4d3 <__code_start__-0x7b2d>
     818:	15150000 	ldrne	r0, [r5, #-0]
     81c:	49192701 	ldmdbmi	r9, {r0, r8, r9, sl, sp}
     820:	00130113 	andseq	r0, r3, r3, lsl r1
     824:	00051600 	andeq	r1, r5, r0, lsl #12
     828:	00001349 	andeq	r1, r0, r9, asr #6
     82c:	03003417 	movweq	r3, #1047	; 0x417
     830:	3b0b3a0e 	blcc	2cf070 <__bss_end__+0x2c4ae8>
     834:	3f13490b 	svccc	0x0013490b
     838:	00193c19 	andseq	r3, r9, r9, lsl ip
     83c:	012e1800 	teqeq	lr, r0, lsl #16
     840:	0e03193f 	mcreq	9, 0, r1, cr3, cr15, {1}
     844:	0b3b0b3a 	bleq	ec3534 <__bss_end__+0xeb8fac>
     848:	13491927 	movtne	r1, #39207	; 0x9927
     84c:	0000193c 	andeq	r1, r0, ip, lsr r9
     850:	01110100 	tsteq	r1, r0, lsl #2
     854:	0b130e25 	bleq	4c40f0 <__bss_end__+0x4b9b68>
     858:	0e1b0e03 	cdpeq	14, 1, cr0, cr11, cr3, {0}
     85c:	06120111 			; <UNDEFINED> instruction: 0x06120111
     860:	00001710 	andeq	r1, r0, r0, lsl r7
     864:	0b002402 	bleq	9874 <gpio_set_function+0x20>
     868:	030b3e0b 	movweq	r3, #48651	; 0xbe0b
     86c:	03000008 	movweq	r0, #8
     870:	0b0b0024 	bleq	2c0908 <__bss_end__+0x2b6380>
     874:	0e030b3e 	vmoveq.16	d3[0], r0
     878:	2e040000 	cdpcs	0, 0, cr0, cr4, cr0, {0}
     87c:	3a0e0301 	bcc	381488 <__bss_end__+0x376f00>
     880:	270b3b0b 	strcs	r3, [fp, -fp, lsl #22]
     884:	11134919 	tstne	r3, r9, lsl r9
     888:	40061201 	andmi	r1, r6, r1, lsl #4
     88c:	19429718 	stmdbne	r2, {r3, r4, r8, r9, sl, ip, pc}^
     890:	00001301 	andeq	r1, r0, r1, lsl #6
     894:	03000505 	movweq	r0, #1285	; 0x505
     898:	3b0b3a08 	blcc	2cf0c0 <__bss_end__+0x2c4b38>
     89c:	0213490b 	andseq	r4, r3, #180224	; 0x2c000
     8a0:	06000017 			; <UNDEFINED> instruction: 0x06000017
     8a4:	01018289 	smlabbeq	r1, r9, r2, r8
     8a8:	13310111 	teqne	r1, #1073741828	; 0x40000004
     8ac:	8a070000 	bhi	1c08b4 <__bss_end__+0x1b632c>
     8b0:	02000182 	andeq	r0, r0, #-2147483616	; 0x80000020
     8b4:	18429118 	stmdane	r2, {r3, r4, r8, ip, pc}^
     8b8:	2e080000 	cdpcs	0, 0, cr0, cr8, cr0, {0}
     8bc:	03193f00 	tsteq	r9, #0, 30
     8c0:	3b0b3a0e 	blcc	2cf100 <__bss_end__+0x2c4b78>
     8c4:	1119270b 	tstne	r9, fp, lsl #14
     8c8:	40061201 	andmi	r1, r6, r1, lsl #4
     8cc:	19429718 	stmdbne	r2, {r3, r4, r8, r9, sl, ip, pc}^
     8d0:	2e090000 	cdpcs	0, 0, cr0, cr9, cr0, {0}
     8d4:	03193f01 	tsteq	r9, #1, 30
     8d8:	3b0b3a0e 	blcc	2cf118 <__bss_end__+0x2c4b90>
     8dc:	1119270b 	tstne	r9, fp, lsl #14
     8e0:	40061201 	andmi	r1, r6, r1, lsl #4
     8e4:	19429718 	stmdbne	r2, {r3, r4, r8, r9, sl, ip, pc}^
     8e8:	00001301 	andeq	r1, r0, r1, lsl #6
     8ec:	0300050a 	movweq	r0, #1290	; 0x50a
     8f0:	3b0b3a08 	blcc	2cf118 <__bss_end__+0x2c4b90>
     8f4:	0213490b 	andseq	r4, r3, #180224	; 0x2c000
     8f8:	0b000018 	bleq	960 <__code_start__-0x76a0>
     8fc:	19270115 	stmdbne	r7!, {r0, r2, r4, r8}
     900:	13011349 	movwne	r1, #4937	; 0x1349
     904:	050c0000 	streq	r0, [ip, #-0]
     908:	00134900 	andseq	r4, r3, r0, lsl #18
     90c:	000f0d00 	andeq	r0, pc, r0, lsl #26
     910:	13490b0b 	movtne	r0, #39691	; 0x9b0b
     914:	340e0000 	strcc	r0, [lr], #-0
     918:	3a0e0300 	bcc	381520 <__bss_end__+0x376f98>
     91c:	490b3b0b 	stmdbmi	fp, {r0, r1, r3, r8, r9, fp, ip, sp}
     920:	02193f13 	andseq	r3, r9, #19, 30	; 0x4c
     924:	0f000018 	svceq	0x00000018
     928:	193f012e 	ldmdbne	pc!, {r1, r2, r3, r5, r8}	; <UNPREDICTABLE>
     92c:	0b3a0e03 	bleq	e84140 <__bss_end__+0xe79bb8>
     930:	19270b3b 	stmdbne	r7!, {r0, r1, r3, r4, r5, r8, r9, fp}
     934:	0000193c 	andeq	r1, r0, ip, lsr r9
     938:	01110100 	tsteq	r1, r0, lsl #2
     93c:	0b130e25 	bleq	4c41d8 <__bss_end__+0x4b9c50>
     940:	0e1b0e03 	cdpeq	14, 1, cr0, cr11, cr3, {0}
     944:	06120111 			; <UNDEFINED> instruction: 0x06120111
     948:	00001710 	andeq	r1, r0, r0, lsl r7
     94c:	0b002402 	bleq	995c <gpio_read+0x1c>
     950:	030b3e0b 	movweq	r3, #48651	; 0xbe0b
     954:	03000008 	movweq	r0, #8
     958:	0b0b0024 	bleq	2c09f0 <__bss_end__+0x2b6468>
     95c:	0e030b3e 	vmoveq.16	d3[0], r0
     960:	0f040000 	svceq	0x00040000
     964:	490b0b00 	stmdbmi	fp, {r8, r9, fp}
     968:	05000013 	streq	r0, [r0, #-19]
     96c:	13490026 	movtne	r0, #36902	; 0x9026
     970:	2e060000 	cdpcs	0, 0, cr0, cr6, cr0, {0}
     974:	03193f01 	tsteq	r9, #1, 30
     978:	3b0b3a0e 	blcc	2cf1b8 <__bss_end__+0x2c4c30>
     97c:	4919270b 	ldmdbmi	r9, {r0, r1, r3, r8, r9, sl, sp}
     980:	12011113 	andne	r1, r1, #-1073741820	; 0xc0000004
     984:	96184006 	ldrls	r4, [r8], -r6
     988:	13011942 	movwne	r1, #6466	; 0x1942
     98c:	05070000 	streq	r0, [r7, #-0]
     990:	3a080300 	bcc	201598 <__bss_end__+0x1f7010>
     994:	490b3b0b 	stmdbmi	fp, {r0, r1, r3, r8, r9, fp, ip, sp}
     998:	00170213 	andseq	r0, r7, r3, lsl r2
     99c:	01150800 	tsteq	r5, r0, lsl #16
     9a0:	13491927 	movtne	r1, #39207	; 0x9927
     9a4:	00001301 	andeq	r1, r0, r1, lsl #6
     9a8:	49000509 	stmdbmi	r0, {r0, r3, r8, sl}
     9ac:	0a000013 	beq	a00 <__code_start__-0x7600>
     9b0:	0e030034 	mcreq	0, 0, r0, cr3, cr4, {1}
     9b4:	0b3b0b3a 	bleq	ec36a4 <__bss_end__+0xeb911c>
     9b8:	193f1349 	ldmdbne	pc!, {r0, r3, r6, r8, r9, ip}	; <UNPREDICTABLE>
     9bc:	0000193c 	andeq	r1, r0, ip, lsr r9
     9c0:	0300340b 	movweq	r3, #1035	; 0x40b
     9c4:	3b0b3a0e 	blcc	2cf204 <__bss_end__+0x2c4c7c>
     9c8:	3f13490b 	svccc	0x0013490b
     9cc:	00180219 	andseq	r0, r8, r9, lsl r2
     9d0:	11010000 	mrsne	r0, (UNDEF: 1)
     9d4:	130e2501 	movwne	r2, #58625	; 0xe501
     9d8:	1b0e030b 	blne	38160c <__bss_end__+0x377084>
     9dc:	1201110e 	andne	r1, r1, #-2147483645	; 0x80000003
     9e0:	00171006 	andseq	r1, r7, r6
     9e4:	00240200 	eoreq	r0, r4, r0, lsl #4
     9e8:	0b3e0b0b 	bleq	f8361c <__bss_end__+0xf79094>
     9ec:	00000803 	andeq	r0, r0, r3, lsl #16
     9f0:	0b002403 	bleq	9a04 <__data_end__+0x84>
     9f4:	030b3e0b 	movweq	r3, #48651	; 0xbe0b
     9f8:	0400000e 	streq	r0, [r0], #-14
     9fc:	0b0b000f 	bleq	2c0a40 <__bss_end__+0x2b64b8>
     a00:	0f050000 	svceq	0x00050000
     a04:	490b0b00 	stmdbmi	fp, {r8, r9, fp}
     a08:	06000013 			; <UNDEFINED> instruction: 0x06000013
     a0c:	13490026 	movtne	r0, #36902	; 0x9026
     a10:	16070000 	strne	r0, [r7], -r0
     a14:	3a0e0300 	bcc	38161c <__bss_end__+0x377094>
     a18:	490b3b0b 	stmdbmi	fp, {r0, r1, r3, r8, r9, fp, ip, sp}
     a1c:	08000013 	stmdaeq	r0, {r0, r1, r4}
     a20:	0e030113 	mcreq	1, 0, r0, cr3, cr3, {0}
     a24:	0b3a0b0b 	bleq	e83658 <__bss_end__+0xe790d0>
     a28:	13010b3b 	movwne	r0, #6971	; 0x1b3b
     a2c:	0d090000 	stceq	0, cr0, [r9, #-0]
     a30:	490e0300 	stmdbmi	lr, {r8, r9}
     a34:	340b3813 	strcc	r3, [fp], #-2067	; 0x813
     a38:	0a000019 	beq	aa4 <__code_start__-0x755c>
     a3c:	0e03012e 	adfeqsp	f0, f3, #0.5
     a40:	0b3b0b3a 	bleq	ec3730 <__bss_end__+0xeb91a8>
     a44:	13491927 	movtne	r1, #39207	; 0x9927
     a48:	06120111 			; <UNDEFINED> instruction: 0x06120111
     a4c:	42971840 	addsmi	r1, r7, #64, 16	; 0x400000
     a50:	00130119 	andseq	r0, r3, r9, lsl r1
     a54:	00050b00 	andeq	r0, r5, r0, lsl #22
     a58:	0b3a0803 	bleq	e82a6c <__bss_end__+0xe784e4>
     a5c:	13490b3b 	movtne	r0, #39739	; 0x9b3b
     a60:	00001702 	andeq	r1, r0, r2, lsl #14
     a64:	03012e0c 	movweq	r2, #7692	; 0x1e0c
     a68:	3b0b3a08 	blcc	2cf290 <__bss_end__+0x2c4d08>
     a6c:	4919270b 	ldmdbmi	r9, {r0, r1, r3, r8, r9, sl, sp}
     a70:	12011113 	andne	r1, r1, #-1073741820	; 0xc0000004
     a74:	97184006 	ldrls	r4, [r8, -r6]
     a78:	13011942 	movwne	r1, #6466	; 0x1942
     a7c:	050d0000 	streq	r0, [sp, #-0]
     a80:	3a0e0300 	bcc	381688 <__bss_end__+0x377100>
     a84:	490b3b0b 	stmdbmi	fp, {r0, r1, r3, r8, r9, fp, ip, sp}
     a88:	00170213 	andseq	r0, r7, r3, lsl r2
     a8c:	00050e00 	andeq	r0, r5, r0, lsl #28
     a90:	0b3a0e03 	bleq	e842a4 <__bss_end__+0xe79d1c>
     a94:	13490b3b 	movtne	r0, #39739	; 0x9b3b
     a98:	00001802 	andeq	r1, r0, r2, lsl #16
     a9c:	0300340f 	movweq	r3, #1039	; 0x40f
     aa0:	3b0b3a08 	blcc	2cf2c8 <__bss_end__+0x2c4d40>
     aa4:	0213490b 	andseq	r4, r3, #180224	; 0x2c000
     aa8:	10000018 	andne	r0, r0, r8, lsl r0
     aac:	08030034 	stmdaeq	r3, {r2, r4, r5}
     ab0:	0b3b0b3a 	bleq	ec37a0 <__bss_end__+0xeb9218>
     ab4:	17021349 	strne	r1, [r2, -r9, asr #6]
     ab8:	34110000 	ldrcc	r0, [r1], #-0
     abc:	490e0300 	stmdbmi	lr, {r8, r9}
     ac0:	02193413 	andseq	r3, r9, #318767104	; 0x13000000
     ac4:	12000018 	andne	r0, r0, #24
     ac8:	0111010b 	tsteq	r1, fp, lsl #2
     acc:	13010612 	movwne	r0, #5650	; 0x1612
     ad0:	34130000 	ldrcc	r0, [r3], #-0
     ad4:	3a0e0300 	bcc	3816dc <__bss_end__+0x377154>
     ad8:	490b3b0b 	stmdbmi	fp, {r0, r1, r3, r8, r9, fp, ip, sp}
     adc:	00170213 	andseq	r0, r7, r3, lsl r2
     ae0:	82891400 	addhi	r1, r9, #0, 8
     ae4:	01110001 	tsteq	r1, r1
     ae8:	00001331 	andeq	r1, r0, r1, lsr r3
     aec:	01828915 	orreq	r8, r2, r5, lsl r9
     af0:	31011101 	tstcc	r1, r1, lsl #2
     af4:	00130113 	andseq	r0, r3, r3, lsl r1
     af8:	828a1600 	addhi	r1, sl, #0, 12
     afc:	18020001 	stmdane	r2, {r0}
     b00:	00184291 	mulseq	r8, r1, r2
     b04:	82891700 	addhi	r1, r9, #0, 14
     b08:	01110101 	tsteq	r1, r1, lsl #2
     b0c:	00001331 	andeq	r1, r0, r1, lsr r3
     b10:	49010118 	stmdbmi	r1, {r3, r4, r8}
     b14:	00130113 	andseq	r0, r3, r3, lsl r1
     b18:	00211900 	eoreq	r1, r1, r0, lsl #18
     b1c:	0b2f1349 	bleq	bc5848 <__bss_end__+0xbbb2c0>
     b20:	2e1a0000 	cdpcs	0, 1, cr0, cr10, cr0, {0}
     b24:	03193f01 	tsteq	r9, #1, 30
     b28:	3b0b3a0e 	blcc	2cf368 <__bss_end__+0x2c4de0>
     b2c:	1119270b 	tstne	r9, fp, lsl #14
     b30:	40061201 	andmi	r1, r6, r1, lsl #4
     b34:	19429718 	stmdbne	r2, {r3, r4, r8, r9, sl, ip, pc}^
     b38:	00001301 	andeq	r1, r0, r1, lsl #6
     b3c:	2701151b 	smladcs	r1, fp, r5, r1
     b40:	01134919 	tsteq	r3, r9, lsl r9
     b44:	1c000013 	stcne	0, cr0, [r0], {19}
     b48:	13490005 	movtne	r0, #36869	; 0x9005
     b4c:	2e1d0000 	cdpcs	0, 1, cr0, cr13, cr0, {0}
     b50:	03193f01 	tsteq	r9, #1, 30
     b54:	3b0b3a0e 	blcc	2cf394 <__bss_end__+0x2c4e0c>
     b58:	4919270b 	ldmdbmi	r9, {r0, r1, r3, r8, r9, sl, sp}
     b5c:	12011113 	andne	r1, r1, #-1073741820	; 0xc0000004
     b60:	97184006 	ldrls	r4, [r8, -r6]
     b64:	13011942 	movwne	r1, #6466	; 0x1942
     b68:	0b1e0000 	bleq	780b70 <__bss_end__+0x7765e8>
     b6c:	12011101 	andne	r1, r1, #1073741824	; 0x40000000
     b70:	1f000006 	svcne	0x00000006
     b74:	01018289 	smlabbeq	r1, r9, r2, r8
     b78:	13010111 	movwne	r0, #4369	; 0x1111
     b7c:	34200000 	strtcc	r0, [r0], #-0
     b80:	3a0e0300 	bcc	381788 <__bss_end__+0x377200>
     b84:	490b3b0b 	stmdbmi	fp, {r0, r1, r3, r8, r9, fp, ip, sp}
     b88:	3c193f13 	ldccc	15, cr3, [r9], {19}
     b8c:	21000019 	tstcs	r0, r9, lsl r0
     b90:	193f002e 	ldmdbne	pc!, {r1, r2, r3, r5}	; <UNPREDICTABLE>
     b94:	0b3a0e03 	bleq	e843a8 <__bss_end__+0xe79e20>
     b98:	19270b3b 	stmdbne	r7!, {r0, r1, r3, r4, r5, r8, r9, fp}
     b9c:	0000193c 	andeq	r1, r0, ip, lsr r9
     ba0:	3f012e22 	svccc	0x00012e22
     ba4:	3a0e0319 	bcc	381810 <__bss_end__+0x377288>
     ba8:	270b3b0b 	strcs	r3, [fp, -fp, lsl #22]
     bac:	3c134919 	ldccc	9, cr4, [r3], {25}
     bb0:	00130119 	andseq	r0, r3, r9, lsl r1
     bb4:	00182300 	andseq	r2, r8, r0, lsl #6
     bb8:	01000000 	mrseq	r0, (UNDEF: 0)
     bbc:	0e250111 	mcreq	1, 1, r0, cr5, cr1, {0}
     bc0:	0e030b13 	vmoveq.32	d3[0], r0
     bc4:	01110e1b 	tsteq	r1, fp, lsl lr
     bc8:	17100612 			; <UNDEFINED> instruction: 0x17100612
     bcc:	24020000 	strcs	r0, [r2], #-0
     bd0:	3e0b0b00 	vmlacc.f64	d0, d11, d0
     bd4:	0008030b 	andeq	r0, r8, fp, lsl #6
     bd8:	00240300 	eoreq	r0, r4, r0, lsl #6
     bdc:	0b3e0b0b 	bleq	f83810 <__bss_end__+0xf79288>
     be0:	00000e03 	andeq	r0, r0, r3, lsl #28
     be4:	3f012e04 	svccc	0x00012e04
     be8:	3a0e0319 	bcc	381854 <__bss_end__+0x3772cc>
     bec:	270b3b0b 	strcs	r3, [fp, -fp, lsl #22]
     bf0:	12011119 	andne	r1, r1, #1073741830	; 0x40000006
     bf4:	97184006 	ldrls	r4, [r8, -r6]
     bf8:	13011942 	movwne	r1, #6466	; 0x1942
     bfc:	34050000 	strcc	r0, [r5], #-0
     c00:	3a080300 	bcc	201808 <__bss_end__+0x1f7280>
     c04:	490b3b0b 	stmdbmi	fp, {r0, r1, r3, r8, r9, fp, ip, sp}
     c08:	00170213 	andseq	r0, r7, r3, lsl r2
     c0c:	012e0600 	teqeq	lr, r0, lsl #12
     c10:	0e03193f 	mcreq	9, 0, r1, cr3, cr15, {1}
     c14:	0b3b0b3a 	bleq	ec3904 <__bss_end__+0xeb937c>
     c18:	01111927 	tsteq	r1, r7, lsr #18
     c1c:	18400612 	stmdane	r0, {r1, r4, r9, sl}^
     c20:	00194297 	mulseq	r9, r7, r2
     c24:	11010000 	mrsne	r0, (UNDEF: 1)
     c28:	130e2501 	movwne	r2, #58625	; 0xe501
     c2c:	1b0e030b 	blne	381860 <__bss_end__+0x3772d8>
     c30:	1201110e 	andne	r1, r1, #-2147483645	; 0x80000003
     c34:	00171006 	andseq	r1, r7, r6
     c38:	00240200 	eoreq	r0, r4, r0, lsl #4
     c3c:	0b3e0b0b 	bleq	f83870 <__bss_end__+0xf792e8>
     c40:	00000803 	andeq	r0, r0, r3, lsl #16
     c44:	0b002403 	bleq	9c58 <__FUNCTION__.4451+0x68>
     c48:	030b3e0b 	movweq	r3, #48651	; 0xbe0b
     c4c:	0400000e 	streq	r0, [r0], #-14
     c50:	0b0b000f 	bleq	2c0c94 <__bss_end__+0x2b670c>
     c54:	00001349 	andeq	r1, r0, r9, asr #6
     c58:	49002605 	stmdbmi	r0, {r0, r2, r9, sl, sp}
     c5c:	06000013 			; <UNDEFINED> instruction: 0x06000013
     c60:	193f012e 	ldmdbne	pc!, {r1, r2, r3, r5, r8}	; <UNPREDICTABLE>
     c64:	0b3a0e03 	bleq	e84478 <__bss_end__+0xe79ef0>
     c68:	19270b3b 	stmdbne	r7!, {r0, r1, r3, r4, r5, r8, r9, fp}
     c6c:	06120111 			; <UNDEFINED> instruction: 0x06120111
     c70:	42971840 	addsmi	r1, r7, #64, 16	; 0x400000
     c74:	00130119 	andseq	r0, r3, r9, lsl r1
     c78:	82890700 	addhi	r0, r9, #0, 14
     c7c:	01110001 	tsteq	r1, r1
     c80:	00001331 	andeq	r1, r0, r1, lsr r3
     c84:	01828908 	orreq	r8, r2, r8, lsl #18
     c88:	01011101 	tsteq	r1, r1, lsl #2
     c8c:	09000013 	stmdbeq	r0, {r0, r1, r4}
     c90:	0001828a 	andeq	r8, r1, sl, lsl #5
     c94:	42911802 	addsmi	r1, r1, #131072	; 0x20000
     c98:	0a000018 	beq	d00 <__code_start__-0x7300>
     c9c:	01018289 	smlabbeq	r1, r9, r2, r8
     ca0:	13310111 	teqne	r1, #1073741828	; 0x40000004
     ca4:	00001301 	andeq	r1, r0, r1, lsl #6
     ca8:	2701150b 	strcs	r1, [r1, -fp, lsl #10]
     cac:	01134919 	tsteq	r3, r9, lsl r9
     cb0:	0c000013 	stceq	0, cr0, [r0], {19}
     cb4:	13490005 	movtne	r0, #36869	; 0x9005
     cb8:	340d0000 	strcc	r0, [sp], #-0
     cbc:	3a0e0300 	bcc	3818c4 <__bss_end__+0x37733c>
     cc0:	490b3b0b 	stmdbmi	fp, {r0, r1, r3, r8, r9, fp, ip, sp}
     cc4:	3c193f13 	ldccc	15, cr3, [r9], {19}
     cc8:	0e000019 	mcreq	0, 0, r0, cr0, cr9, {0}
     ccc:	193f002e 	ldmdbne	pc!, {r1, r2, r3, r5}	; <UNPREDICTABLE>
     cd0:	0b3a0e03 	bleq	e844e4 <__bss_end__+0xe79f5c>
     cd4:	19270b3b 	stmdbne	r7!, {r0, r1, r3, r4, r5, r8, r9, fp}
     cd8:	0000193c 	andeq	r1, r0, ip, lsr r9
     cdc:	3f012e0f 	svccc	0x00012e0f
     ce0:	3a0e0319 	bcc	38194c <__bss_end__+0x3773c4>
     ce4:	270b3b0b 	strcs	r3, [fp, -fp, lsl #22]
     ce8:	01193c19 	tsteq	r9, r9, lsl ip
     cec:	00000013 	andeq	r0, r0, r3, lsl r0
     cf0:	25011101 	strcs	r1, [r1, #-257]	; 0x101
     cf4:	030b130e 	movweq	r1, #45838	; 0xb30e
     cf8:	110e1b0e 	tstne	lr, lr, lsl #22
     cfc:	10061201 	andne	r1, r6, r1, lsl #4
     d00:	02000017 	andeq	r0, r0, #23
     d04:	0b0b0024 	bleq	2c0d9c <__bss_end__+0x2b6814>
     d08:	08030b3e 	stmdaeq	r3, {r1, r2, r3, r4, r5, r8, r9, fp}
     d0c:	24030000 	strcs	r0, [r3], #-0
     d10:	3e0b0b00 	vmlacc.f64	d0, d11, d0
     d14:	000e030b 	andeq	r0, lr, fp, lsl #6
     d18:	012e0400 	teqeq	lr, r0, lsl #8
     d1c:	0e03193f 	mcreq	9, 0, r1, cr3, cr15, {1}
     d20:	0b3b0b3a 	bleq	ec3a10 <__bss_end__+0xeb9488>
     d24:	06120111 			; <UNDEFINED> instruction: 0x06120111
     d28:	42971840 	addsmi	r1, r7, #64, 16	; 0x400000
     d2c:	00130119 	andseq	r0, r3, r9, lsl r1
     d30:	00340500 	eorseq	r0, r4, r0, lsl #10
     d34:	0b3a0e03 	bleq	e84548 <__bss_end__+0xe79fc0>
     d38:	13490b3b 	movtne	r0, #39739	; 0x9b3b
     d3c:	193c193f 	ldmdbne	ip!, {r0, r1, r2, r3, r4, r5, r8, fp, ip}
     d40:	2e060000 	cdpcs	0, 0, cr0, cr6, cr0, {0}
     d44:	03193f00 	tsteq	r9, #0, 30
     d48:	3b0b3a0e 	blcc	2cf588 <__bss_end__+0x2c5000>
     d4c:	3c19270b 	ldccc	7, cr2, [r9], {11}
     d50:	07000019 	smladeq	r0, r9, r0, r0
     d54:	08030034 	stmdaeq	r3, {r2, r4, r5}
     d58:	0b3b0b3a 	bleq	ec3a48 <__bss_end__+0xeb94c0>
     d5c:	17021349 	strne	r1, [r2, -r9, asr #6]
     d60:	34080000 	strcc	r0, [r8], #-0
     d64:	3a0e0300 	bcc	38196c <__bss_end__+0x3773e4>
     d68:	490b3b0b 	stmdbmi	fp, {r0, r1, r3, r8, r9, fp, ip, sp}
     d6c:	09000013 	stmdbeq	r0, {r0, r1, r4}
     d70:	00018289 	andeq	r8, r1, r9, lsl #5
     d74:	13310111 	teqne	r1, #1073741828	; 0x40000004
     d78:	0f0a0000 	svceq	0x000a0000
     d7c:	490b0b00 	stmdbmi	fp, {r8, r9, fp}
     d80:	00000013 	andeq	r0, r0, r3, lsl r0
     d84:	25011101 	strcs	r1, [r1, #-257]	; 0x101
     d88:	030b130e 	movweq	r1, #45838	; 0xb30e
     d8c:	110e1b0e 	tstne	lr, lr, lsl #22
     d90:	10061201 	andne	r1, r6, r1, lsl #4
     d94:	02000017 	andeq	r0, r0, #23
     d98:	0b0b0024 	bleq	2c0e30 <__bss_end__+0x2b68a8>
     d9c:	08030b3e 	stmdaeq	r3, {r1, r2, r3, r4, r5, r8, r9, fp}
     da0:	24030000 	strcs	r0, [r3], #-0
     da4:	3e0b0b00 	vmlacc.f64	d0, d11, d0
     da8:	000e030b 	andeq	r0, lr, fp, lsl #6
     dac:	000f0400 	andeq	r0, pc, r0, lsl #8
     db0:	13490b0b 	movtne	r0, #39691	; 0x9b0b
     db4:	26050000 	strcs	r0, [r5], -r0
     db8:	00134900 	andseq	r4, r3, r0, lsl #18
     dbc:	012e0600 	teqeq	lr, r0, lsl #12
     dc0:	0e03193f 	mcreq	9, 0, r1, cr3, cr15, {1}
     dc4:	0b3b0b3a 	bleq	ec3ab4 <__bss_end__+0xeb952c>
     dc8:	01111927 	tsteq	r1, r7, lsr #18
     dcc:	18400612 	stmdane	r0, {r1, r4, r9, sl}^
     dd0:	01194297 			; <UNDEFINED> instruction: 0x01194297
     dd4:	07000013 	smladeq	r0, r3, r0, r0
     dd8:	08030005 	stmdaeq	r3, {r0, r2}
     ddc:	0b3b0b3a 	bleq	ec3acc <__bss_end__+0xeb9544>
     de0:	17021349 	strne	r1, [r2, -r9, asr #6]
     de4:	34080000 	strcc	r0, [r8], #-0
     de8:	490e0300 	stmdbmi	lr, {r8, r9}
     dec:	02193413 	andseq	r3, r9, #318767104	; 0x13000000
     df0:	09000018 	stmdbeq	r0, {r3, r4}
     df4:	00018289 	andeq	r8, r1, r9, lsl #5
     df8:	13310111 	teqne	r1, #1073741828	; 0x40000004
     dfc:	890a0000 	stmdbhi	sl, {}	; <UNPREDICTABLE>
     e00:	11010182 	smlabbne	r1, r2, r1, r0
     e04:	01133101 	tsteq	r3, r1, lsl #2
     e08:	0b000013 	bleq	e5c <__code_start__-0x71a4>
     e0c:	0001828a 	andeq	r8, r1, sl, lsl #5
     e10:	42911802 	addsmi	r1, r1, #131072	; 0x20000
     e14:	0c000018 	stceq	0, cr0, [r0], {24}
     e18:	13490101 	movtne	r0, #37121	; 0x9101
     e1c:	00001301 	andeq	r1, r0, r1, lsl #6
     e20:	4900210d 	stmdbmi	r0, {r0, r2, r3, r8, sp}
     e24:	000b2f13 	andeq	r2, fp, r3, lsl pc
     e28:	002e0e00 	eoreq	r0, lr, r0, lsl #28
     e2c:	0e03193f 	mcreq	9, 0, r1, cr3, cr15, {1}
     e30:	0b3b0b3a 	bleq	ec3b20 <__bss_end__+0xeb9598>
     e34:	193c1927 	ldmdbne	ip!, {r0, r1, r2, r5, r8, fp, ip}
     e38:	2e0f0000 	cdpcs	0, 0, cr0, cr15, cr0, {0}
     e3c:	03193f01 	tsteq	r9, #1, 30
     e40:	3b0b3a0e 	blcc	2cf680 <__bss_end__+0x2c50f8>
     e44:	4919270b 	ldmdbmi	r9, {r0, r1, r3, r8, r9, sl, sp}
     e48:	01193c13 	tsteq	r9, r3, lsl ip
     e4c:	10000013 	andne	r0, r0, r3, lsl r0
     e50:	13490005 	movtne	r0, #36869	; 0x9005
     e54:	18110000 	ldmdane	r1, {}	; <UNPREDICTABLE>
     e58:	00000000 	andeq	r0, r0, r0
     e5c:	25011101 	strcs	r1, [r1, #-257]	; 0x101
     e60:	030b130e 	movweq	r1, #45838	; 0xb30e
     e64:	110e1b0e 	tstne	lr, lr, lsl #22
     e68:	10061201 	andne	r1, r6, r1, lsl #4
     e6c:	02000017 	andeq	r0, r0, #23
     e70:	0b0b0024 	bleq	2c0f08 <__bss_end__+0x2b6980>
     e74:	08030b3e 	stmdaeq	r3, {r1, r2, r3, r4, r5, r8, r9, fp}
     e78:	24030000 	strcs	r0, [r3], #-0
     e7c:	3e0b0b00 	vmlacc.f64	d0, d11, d0
     e80:	000e030b 	andeq	r0, lr, fp, lsl #6
     e84:	000f0400 	andeq	r0, pc, r0, lsl #8
     e88:	13490b0b 	movtne	r0, #39691	; 0x9b0b
     e8c:	26050000 	strcs	r0, [r5], -r0
     e90:	00134900 	andseq	r4, r3, r0, lsl #18
     e94:	012e0600 	teqeq	lr, r0, lsl #12
     e98:	0e03193f 	mcreq	9, 0, r1, cr3, cr15, {1}
     e9c:	0b3b0b3a 	bleq	ec3b8c <__bss_end__+0xeb9604>
     ea0:	01111927 	tsteq	r1, r7, lsr #18
     ea4:	18400612 	stmdane	r0, {r1, r4, r9, sl}^
     ea8:	01194297 			; <UNDEFINED> instruction: 0x01194297
     eac:	07000013 	smladeq	r0, r3, r0, r0
     eb0:	08030005 	stmdaeq	r3, {r0, r2}
     eb4:	0b3b0b3a 	bleq	ec3ba4 <__bss_end__+0xeb961c>
     eb8:	17021349 	strne	r1, [r2, -r9, asr #6]
     ebc:	34080000 	strcc	r0, [r8], #-0
     ec0:	490e0300 	stmdbmi	lr, {r8, r9}
     ec4:	02193413 	andseq	r3, r9, #318767104	; 0x13000000
     ec8:	09000018 	stmdbeq	r0, {r3, r4}
     ecc:	00018289 	andeq	r8, r1, r9, lsl #5
     ed0:	13310111 	teqne	r1, #1073741828	; 0x40000004
     ed4:	890a0000 	stmdbhi	sl, {}	; <UNPREDICTABLE>
     ed8:	11010182 	smlabbne	r1, r2, r1, r0
     edc:	01133101 	tsteq	r3, r1, lsl #2
     ee0:	0b000013 	bleq	f34 <__code_start__-0x70cc>
     ee4:	0001828a 	andeq	r8, r1, sl, lsl #5
     ee8:	42911802 	addsmi	r1, r1, #131072	; 0x20000
     eec:	0c000018 	stceq	0, cr0, [r0], {24}
     ef0:	13490101 	movtne	r0, #37121	; 0x9101
     ef4:	00001301 	andeq	r1, r0, r1, lsl #6
     ef8:	4900210d 	stmdbmi	r0, {r0, r2, r3, r8, sp}
     efc:	000b2f13 	andeq	r2, fp, r3, lsl pc
     f00:	002e0e00 	eoreq	r0, lr, r0, lsl #28
     f04:	0e03193f 	mcreq	9, 0, r1, cr3, cr15, {1}
     f08:	0b3b0b3a 	bleq	ec3bf8 <__bss_end__+0xeb9670>
     f0c:	193c1927 	ldmdbne	ip!, {r0, r1, r2, r5, r8, fp, ip}
     f10:	2e0f0000 	cdpcs	0, 0, cr0, cr15, cr0, {0}
     f14:	03193f01 	tsteq	r9, #1, 30
     f18:	3b0b3a0e 	blcc	2cf758 <__bss_end__+0x2c51d0>
     f1c:	4919270b 	ldmdbmi	r9, {r0, r1, r3, r8, r9, sl, sp}
     f20:	01193c13 	tsteq	r9, r3, lsl ip
     f24:	10000013 	andne	r0, r0, r3, lsl r0
     f28:	13490005 	movtne	r0, #36869	; 0x9005
     f2c:	18110000 	ldmdane	r1, {}	; <UNPREDICTABLE>
     f30:	00000000 	andeq	r0, r0, r0
     f34:	25011101 	strcs	r1, [r1, #-257]	; 0x101
     f38:	030b130e 	movweq	r1, #45838	; 0xb30e
     f3c:	110e1b0e 	tstne	lr, lr, lsl #22
     f40:	10061201 	andne	r1, r6, r1, lsl #4
     f44:	02000017 	andeq	r0, r0, #23
     f48:	0b0b0024 	bleq	2c0fe0 <__bss_end__+0x2b6a58>
     f4c:	08030b3e 	stmdaeq	r3, {r1, r2, r3, r4, r5, r8, r9, fp}
     f50:	24030000 	strcs	r0, [r3], #-0
     f54:	3e0b0b00 	vmlacc.f64	d0, d11, d0
     f58:	000e030b 	andeq	r0, lr, fp, lsl #6
     f5c:	000f0400 	andeq	r0, pc, r0, lsl #8
     f60:	13490b0b 	movtne	r0, #39691	; 0x9b0b
     f64:	26050000 	strcs	r0, [r5], -r0
     f68:	00134900 	andseq	r4, r3, r0, lsl #18
     f6c:	012e0600 	teqeq	lr, r0, lsl #12
     f70:	0e03193f 	mcreq	9, 0, r1, cr3, cr15, {1}
     f74:	0b3b0b3a 	bleq	ec3c64 <__bss_end__+0xeb96dc>
     f78:	01111927 	tsteq	r1, r7, lsr #18
     f7c:	18400612 	stmdane	r0, {r1, r4, r9, sl}^
     f80:	01194297 			; <UNDEFINED> instruction: 0x01194297
     f84:	07000013 	smladeq	r0, r3, r0, r0
     f88:	08030005 	stmdaeq	r3, {r0, r2}
     f8c:	0b3b0b3a 	bleq	ec3c7c <__bss_end__+0xeb96f4>
     f90:	17021349 	strne	r1, [r2, -r9, asr #6]
     f94:	34080000 	strcc	r0, [r8], #-0
     f98:	490e0300 	stmdbmi	lr, {r8, r9}
     f9c:	02193413 	andseq	r3, r9, #318767104	; 0x13000000
     fa0:	09000018 	stmdbeq	r0, {r3, r4}
     fa4:	00018289 	andeq	r8, r1, r9, lsl #5
     fa8:	13310111 	teqne	r1, #1073741828	; 0x40000004
     fac:	890a0000 	stmdbhi	sl, {}	; <UNPREDICTABLE>
     fb0:	11010182 	smlabbne	r1, r2, r1, r0
     fb4:	01133101 	tsteq	r3, r1, lsl #2
     fb8:	0b000013 	bleq	100c <__code_start__-0x6ff4>
     fbc:	0001828a 	andeq	r8, r1, sl, lsl #5
     fc0:	42911802 	addsmi	r1, r1, #131072	; 0x20000
     fc4:	0c000018 	stceq	0, cr0, [r0], {24}
     fc8:	13490101 	movtne	r0, #37121	; 0x9101
     fcc:	00001301 	andeq	r1, r0, r1, lsl #6
     fd0:	4900210d 	stmdbmi	r0, {r0, r2, r3, r8, sp}
     fd4:	000b2f13 	andeq	r2, fp, r3, lsl pc
     fd8:	002e0e00 	eoreq	r0, lr, r0, lsl #28
     fdc:	0e03193f 	mcreq	9, 0, r1, cr3, cr15, {1}
     fe0:	0b3b0b3a 	bleq	ec3cd0 <__bss_end__+0xeb9748>
     fe4:	193c1927 	ldmdbne	ip!, {r0, r1, r2, r5, r8, fp, ip}
     fe8:	2e0f0000 	cdpcs	0, 0, cr0, cr15, cr0, {0}
     fec:	03193f01 	tsteq	r9, #1, 30
     ff0:	3b0b3a0e 	blcc	2cf830 <__bss_end__+0x2c52a8>
     ff4:	4919270b 	ldmdbmi	r9, {r0, r1, r3, r8, r9, sl, sp}
     ff8:	01193c13 	tsteq	r9, r3, lsl ip
     ffc:	10000013 	andne	r0, r0, r3, lsl r0
    1000:	13490005 	movtne	r0, #36869	; 0x9005
    1004:	18110000 	ldmdane	r1, {}	; <UNPREDICTABLE>
    1008:	00000000 	andeq	r0, r0, r0
    100c:	25011101 	strcs	r1, [r1, #-257]	; 0x101
    1010:	030b130e 	movweq	r1, #45838	; 0xb30e
    1014:	110e1b0e 	tstne	lr, lr, lsl #22
    1018:	10061201 	andne	r1, r6, r1, lsl #4
    101c:	02000017 	andeq	r0, r0, #23
    1020:	0b0b0024 	bleq	2c10b8 <__bss_end__+0x2b6b30>
    1024:	08030b3e 	stmdaeq	r3, {r1, r2, r3, r4, r5, r8, r9, fp}
    1028:	24030000 	strcs	r0, [r3], #-0
    102c:	3e0b0b00 	vmlacc.f64	d0, d11, d0
    1030:	000e030b 	andeq	r0, lr, fp, lsl #6
    1034:	002e0400 	eoreq	r0, lr, r0, lsl #8
    1038:	0e03193f 	mcreq	9, 0, r1, cr3, cr15, {1}
    103c:	0b3b0b3a 	bleq	ec3d2c <__bss_end__+0xeb97a4>
    1040:	01111927 	tsteq	r1, r7, lsr #18
    1044:	18400612 	stmdane	r0, {r1, r4, r9, sl}^
    1048:	00194297 	mulseq	r9, r7, r2
    104c:	11010000 	mrsne	r0, (UNDEF: 1)
    1050:	130e2501 	movwne	r2, #58625	; 0xe501
    1054:	1b0e030b 	blne	381c88 <__bss_end__+0x377700>
    1058:	1201110e 	andne	r1, r1, #-2147483645	; 0x80000003
    105c:	00171006 	andseq	r1, r7, r6
    1060:	00240200 	eoreq	r0, r4, r0, lsl #4
    1064:	0b3e0b0b 	bleq	f83c98 <__bss_end__+0xf79710>
    1068:	00000803 	andeq	r0, r0, r3, lsl #16
    106c:	0b002403 	bleq	a080 <__FUNCTION__.4220+0x30>
    1070:	030b3e0b 	movweq	r3, #48651	; 0xbe0b
    1074:	0400000e 	streq	r0, [r0], #-14
    1078:	0b0b0104 	bleq	2c1490 <__bss_end__+0x2b6f08>
    107c:	0b3b0b3a 	bleq	ec3d6c <__bss_end__+0xeb97e4>
    1080:	00001301 	andeq	r1, r0, r1, lsl #6
    1084:	03002805 	movweq	r2, #2053	; 0x805
    1088:	000d1c0e 	andeq	r1, sp, lr, lsl #24
    108c:	012e0600 	teqeq	lr, r0, lsl #12
    1090:	0e03193f 	mcreq	9, 0, r1, cr3, cr15, {1}
    1094:	0b3b0b3a 	bleq	ec3d84 <__bss_end__+0xeb97fc>
    1098:	01111927 	tsteq	r1, r7, lsr #18
    109c:	18400612 	stmdane	r0, {r1, r4, r9, sl}^
    10a0:	01194297 			; <UNDEFINED> instruction: 0x01194297
    10a4:	07000013 	smladeq	r0, r3, r0, r0
    10a8:	0e030034 	mcreq	0, 0, r0, cr3, cr4, {1}
    10ac:	0b3b0b3a 	bleq	ec3d9c <__bss_end__+0xeb9814>
    10b0:	193f1349 	ldmdbne	pc!, {r0, r3, r6, r8, r9, ip}	; <UNPREDICTABLE>
    10b4:	0000193c 	andeq	r1, r0, ip, lsr r9
    10b8:	03003408 	movweq	r3, #1032	; 0x408
    10bc:	3b0b3a08 	blcc	2cf8e4 <__bss_end__+0x2c535c>
    10c0:	1c13490b 	ldcne	9, cr4, [r3], {11}
    10c4:	0900000b 	stmdbeq	r0, {r0, r1, r3}
    10c8:	08030034 	stmdaeq	r3, {r2, r4, r5}
    10cc:	0b3b0b3a 	bleq	ec3dbc <__bss_end__+0xeb9834>
    10d0:	00001349 	andeq	r1, r0, r9, asr #6
    10d4:	0300340a 	movweq	r3, #1034	; 0x40a
    10d8:	3b0b3a08 	blcc	2cf900 <__bss_end__+0x2c5378>
    10dc:	0213490b 	andseq	r4, r3, #180224	; 0x2c000
    10e0:	0b000018 	bleq	1148 <__code_start__-0x6eb8>
    10e4:	0111010b 	tsteq	r1, fp, lsl #2
    10e8:	13010612 	movwne	r0, #5650	; 0x1612
    10ec:	340c0000 	strcc	r0, [ip], #-0
    10f0:	3a080300 	bcc	201cf8 <__bss_end__+0x1f7770>
    10f4:	490b3b0b 	stmdbmi	fp, {r0, r1, r3, r8, r9, fp, ip, sp}
    10f8:	00170213 	andseq	r0, r7, r3, lsl r2
    10fc:	82890d00 	addhi	r0, r9, #0, 26
    1100:	01110001 	tsteq	r1, r1
    1104:	00001331 	andeq	r1, r0, r1, lsr r3
    1108:	0182890e 	orreq	r8, r2, lr, lsl #18
    110c:	31011101 	tstcc	r1, r1, lsl #2
    1110:	00130113 	andseq	r0, r3, r3, lsl r1
    1114:	828a0f00 	addhi	r0, sl, #0, 30
    1118:	18020001 	stmdane	r2, {r0}
    111c:	00184291 	mulseq	r8, r1, r2
    1120:	000f1000 	andeq	r1, pc, r0
    1124:	13490b0b 	movtne	r0, #39691	; 0x9b0b
    1128:	2e110000 	cdpcs	0, 1, cr0, cr1, cr0, {0}
    112c:	03193f00 	tsteq	r9, #0, 30
    1130:	3b0b3a0e 	blcc	2cf970 <__bss_end__+0x2c53e8>
    1134:	3c19270b 	ldccc	7, cr2, [r9], {11}
    1138:	12000019 	andne	r0, r0, #25
    113c:	193f012e 	ldmdbne	pc!, {r1, r2, r3, r5, r8}	; <UNPREDICTABLE>
    1140:	0b3a0e03 	bleq	e84954 <__bss_end__+0xe7a3cc>
    1144:	19270b3b 	stmdbne	r7!, {r0, r1, r3, r4, r5, r8, r9, fp}
    1148:	0000193c 	andeq	r1, r0, ip, lsr r9
    114c:	49000513 	stmdbmi	r0, {r0, r1, r4, r8, sl}
    1150:	00000013 	andeq	r0, r0, r3, lsl r0
    1154:	25011101 	strcs	r1, [r1, #-257]	; 0x101
    1158:	030b130e 	movweq	r1, #45838	; 0xb30e
    115c:	550e1b0e 	strpl	r1, [lr, #-2830]	; 0xb0e
    1160:	10011117 	andne	r1, r1, r7, lsl r1
    1164:	02000017 	andeq	r0, r0, #23
    1168:	0b0b0024 	bleq	2c1200 <__bss_end__+0x2b6c78>
    116c:	08030b3e 	stmdaeq	r3, {r1, r2, r3, r4, r5, r8, r9, fp}
    1170:	24030000 	strcs	r0, [r3], #-0
    1174:	3e0b0b00 	vmlacc.f64	d0, d11, d0
    1178:	000e030b 	andeq	r0, lr, fp, lsl #6
    117c:	012e0400 	teqeq	lr, r0, lsl #8
    1180:	0e03193f 	mcreq	9, 0, r1, cr3, cr15, {1}
    1184:	0b3b0b3a 	bleq	ec3e74 <__bss_end__+0xeb98ec>
    1188:	13491927 	movtne	r1, #39207	; 0x9927
    118c:	06120111 			; <UNDEFINED> instruction: 0x06120111
    1190:	42971840 	addsmi	r1, r7, #64, 16	; 0x400000
    1194:	00130119 	andseq	r0, r3, r9, lsl r1
    1198:	00340500 	eorseq	r0, r4, r0, lsl #10
    119c:	0b3a0e03 	bleq	e849b0 <__bss_end__+0xe7a428>
    11a0:	13490b3b 	movtne	r0, #39739	; 0x9b3b
    11a4:	00001702 	andeq	r1, r0, r2, lsl #14
    11a8:	3f012e06 	svccc	0x00012e06
    11ac:	3a0e0319 	bcc	381e18 <__bss_end__+0x377890>
    11b0:	270b3b0b 	strcs	r3, [fp, -fp, lsl #22]
    11b4:	12011119 	andne	r1, r1, #1073741830	; 0x40000006
    11b8:	97184006 	ldrls	r4, [r8, -r6]
    11bc:	13011942 	movwne	r1, #6466	; 0x1942
    11c0:	34070000 	strcc	r0, [r7], #-0
    11c4:	3a0e0300 	bcc	381dcc <__bss_end__+0x377844>
    11c8:	490b3b0b 	stmdbmi	fp, {r0, r1, r3, r8, r9, fp, ip, sp}
    11cc:	00061c13 	andeq	r1, r6, r3, lsl ip
    11d0:	00340800 	eorseq	r0, r4, r0, lsl #16
    11d4:	0b3a0e03 	bleq	e849e8 <__bss_end__+0xe7a460>
    11d8:	13490b3b 	movtne	r0, #39739	; 0x9b3b
    11dc:	00000b1c 	andeq	r0, r0, ip, lsl fp
    11e0:	01828909 	orreq	r8, r2, r9, lsl #18
    11e4:	31011100 	mrscc	r1, (UNDEF: 17)
    11e8:	0a000013 	beq	123c <__code_start__-0x6dc4>
    11ec:	01018289 	smlabbeq	r1, r9, r2, r8
    11f0:	13310111 	teqne	r1, #1073741828	; 0x40000004
    11f4:	00001301 	andeq	r1, r0, r1, lsl #6
    11f8:	01828a0b 	orreq	r8, r2, fp, lsl #20
    11fc:	91180200 	tstls	r8, r0, lsl #4
    1200:	00001842 	andeq	r1, r0, r2, asr #16
    1204:	0182890c 	orreq	r8, r2, ip, lsl #18
    1208:	31011101 	tstcc	r1, r1, lsl #2
    120c:	0d000013 	stceq	0, cr0, [r0, #-76]	; 0xffffffb4
    1210:	13490026 	movtne	r0, #36902	; 0x9026
    1214:	2e0e0000 	cdpcs	0, 0, cr0, cr14, cr0, {0}
    1218:	03193f01 	tsteq	r9, #1, 30
    121c:	3b0b3a0e 	blcc	2cfa5c <__bss_end__+0x2c54d4>
    1220:	3c19270b 	ldccc	7, cr2, [r9], {11}
    1224:	00130119 	andseq	r0, r3, r9, lsl r1
    1228:	00050f00 	andeq	r0, r5, r0, lsl #30
    122c:	00001349 	andeq	r1, r0, r9, asr #6
    1230:	3f012e10 	svccc	0x00012e10
    1234:	3a0e0319 	bcc	381ea0 <__bss_end__+0x377918>
    1238:	270b3b0b 	strcs	r3, [fp, -fp, lsl #22]
    123c:	00193c19 	andseq	r3, r9, r9, lsl ip
    1240:	11010000 	mrsne	r0, (UNDEF: 1)
    1244:	130e2501 	movwne	r2, #58625	; 0xe501
    1248:	1b0e030b 	blne	381e7c <__bss_end__+0x3778f4>
    124c:	1201110e 	andne	r1, r1, #-2147483645	; 0x80000003
    1250:	00171006 	andseq	r1, r7, r6
    1254:	00240200 	eoreq	r0, r4, r0, lsl #4
    1258:	0b3e0b0b 	bleq	f83e8c <__bss_end__+0xf79904>
    125c:	00000803 	andeq	r0, r0, r3, lsl #16
    1260:	0b002403 	bleq	a274 <buf.4189+0xf0>
    1264:	030b3e0b 	movweq	r3, #48651	; 0xbe0b
    1268:	0400000e 	streq	r0, [r0], #-14
    126c:	193f012e 	ldmdbne	pc!, {r1, r2, r3, r5, r8}	; <UNPREDICTABLE>
    1270:	0b3a0e03 	bleq	e84a84 <__bss_end__+0xe7a4fc>
    1274:	19270b3b 	stmdbne	r7!, {r0, r1, r3, r4, r5, r8, r9, fp}
    1278:	06120111 			; <UNDEFINED> instruction: 0x06120111
    127c:	42971840 	addsmi	r1, r7, #64, 16	; 0x400000
    1280:	00130119 	andseq	r0, r3, r9, lsl r1
    1284:	00050500 	andeq	r0, r5, r0, lsl #10
    1288:	0b3a0e03 	bleq	e84a9c <__bss_end__+0xe7a514>
    128c:	13490b3b 	movtne	r0, #39739	; 0x9b3b
    1290:	00001702 	andeq	r1, r0, r2, lsl #14
    1294:	3f012e06 	svccc	0x00012e06
    1298:	3a0e0319 	bcc	381f04 <__bss_end__+0x37797c>
    129c:	270b3b0b 	strcs	r3, [fp, -fp, lsl #22]
    12a0:	11134919 	tstne	r3, r9, lsl r9
    12a4:	40061201 	andmi	r1, r6, r1, lsl #4
    12a8:	19429718 	stmdbne	r2, {r3, r4, r8, r9, sl, ip, pc}^
    12ac:	00001301 	andeq	r1, r0, r1, lsl #6
    12b0:	01828907 	orreq	r8, r2, r7, lsl #18
    12b4:	31011101 	tstcc	r1, r1, lsl #2
    12b8:	08000013 	stmdaeq	r0, {r0, r1, r4}
    12bc:	0001828a 	andeq	r8, r1, sl, lsl #5
    12c0:	42911802 	addsmi	r1, r1, #131072	; 0x20000
    12c4:	09000018 	stmdbeq	r0, {r3, r4}
    12c8:	08030034 	stmdaeq	r3, {r2, r4, r5}
    12cc:	0b3b0b3a 	bleq	ec3fbc <__bss_end__+0xeb9a34>
    12d0:	17021349 	strne	r1, [r2, -r9, asr #6]
    12d4:	890a0000 	stmdbhi	sl, {}	; <UNPREDICTABLE>
    12d8:	11000182 	smlabbne	r0, r2, r1, r0
    12dc:	00133101 	andseq	r3, r3, r1, lsl #2
    12e0:	00050b00 	andeq	r0, r5, r0, lsl #22
    12e4:	0b3a0803 	bleq	e832f8 <__bss_end__+0xe78d70>
    12e8:	13490b3b 	movtne	r0, #39739	; 0x9b3b
    12ec:	00001702 	andeq	r1, r0, r2, lsl #14
    12f0:	0300340c 	movweq	r3, #1036	; 0x40c
    12f4:	3b0b3a08 	blcc	2cfb1c <__bss_end__+0x2c5594>
    12f8:	0213490b 	andseq	r4, r3, #180224	; 0x2c000
    12fc:	0d000018 	stceq	0, cr0, [r0, #-96]	; 0xffffffa0
    1300:	0111010b 	tsteq	r1, fp, lsl #2
    1304:	13010612 	movwne	r0, #5650	; 0x1612
    1308:	2e0e0000 	cdpcs	0, 0, cr0, cr14, cr0, {0}
    130c:	03193f01 	tsteq	r9, #1, 30
    1310:	3b0b3a0e 	blcc	2cfb50 <__bss_end__+0x2c55c8>
    1314:	4919270b 	ldmdbmi	r9, {r0, r1, r3, r8, r9, sl, sp}
    1318:	01193c13 	tsteq	r9, r3, lsl ip
    131c:	0f000013 	svceq	0x00000013
    1320:	13490005 	movtne	r0, #36869	; 0x9005
    1324:	2e100000 	cdpcs	0, 1, cr0, cr0, cr0, {0}
    1328:	03193f00 	tsteq	r9, #0, 30
    132c:	3b0b3a0e 	blcc	2cfb6c <__bss_end__+0x2c55e4>
    1330:	3c19270b 	ldccc	7, cr2, [r9], {11}
    1334:	00000019 	andeq	r0, r0, r9, lsl r0
    1338:	25011101 	strcs	r1, [r1, #-257]	; 0x101
    133c:	030b130e 	movweq	r1, #45838	; 0xb30e
    1340:	110e1b0e 	tstne	lr, lr, lsl #22
    1344:	10061201 	andne	r1, r6, r1, lsl #4
    1348:	02000017 	andeq	r0, r0, #23
    134c:	0b0b0024 	bleq	2c13e4 <__bss_end__+0x2b6e5c>
    1350:	08030b3e 	stmdaeq	r3, {r1, r2, r3, r4, r5, r8, r9, fp}
    1354:	24030000 	strcs	r0, [r3], #-0
    1358:	3e0b0b00 	vmlacc.f64	d0, d11, d0
    135c:	000e030b 	andeq	r0, lr, fp, lsl #6
    1360:	00350400 	eorseq	r0, r5, r0, lsl #8
    1364:	00001349 	andeq	r1, r0, r9, asr #6
    1368:	03001605 	movweq	r1, #1541	; 0x605
    136c:	3b0b3a0e 	blcc	2cfbac <__bss_end__+0x2c5624>
    1370:	0013490b 	andseq	r4, r3, fp, lsl #18
    1374:	00160600 	andseq	r0, r6, r0, lsl #12
    1378:	0b3a0e03 	bleq	e84b8c <__bss_end__+0xe7a604>
    137c:	1349053b 	movtne	r0, #38203	; 0x953b
    1380:	17070000 	strne	r0, [r7, -r0]
    1384:	3a0b0b01 	bcc	2c3f90 <__bss_end__+0x2b9a08>
    1388:	010b3b0b 	tsteq	fp, fp, lsl #22
    138c:	08000013 	stmdaeq	r0, {r0, r1, r4}
    1390:	0e03000d 	cdpeq	0, 0, cr0, cr3, cr13, {0}
    1394:	0b3b0b3a 	bleq	ec4084 <__bss_end__+0xeb9afc>
    1398:	00001349 	andeq	r1, r0, r9, asr #6
    139c:	49010109 	stmdbmi	r1, {r0, r3, r8}
    13a0:	00130113 	andseq	r0, r3, r3, lsl r1
    13a4:	00210a00 	eoreq	r0, r1, r0, lsl #20
    13a8:	0b2f1349 	bleq	bc60d4 <__bss_end__+0xbbbb4c>
    13ac:	130b0000 	movwne	r0, #45056	; 0xb000
    13b0:	3a0b0b01 	bcc	2c3fbc <__bss_end__+0x2b9a34>
    13b4:	010b3b0b 	tsteq	fp, fp, lsl #22
    13b8:	0c000013 	stceq	0, cr0, [r0], {19}
    13bc:	0e03000d 	cdpeq	0, 0, cr0, cr3, cr13, {0}
    13c0:	0b3b0b3a 	bleq	ec40b0 <__bss_end__+0xeb9b28>
    13c4:	0b381349 	bleq	e060f0 <__bss_end__+0xdfbb68>
    13c8:	0f0d0000 	svceq	0x000d0000
    13cc:	000b0b00 	andeq	r0, fp, r0, lsl #22
    13d0:	000f0e00 	andeq	r0, pc, r0, lsl #28
    13d4:	13490b0b 	movtne	r0, #39691	; 0x9b0b
    13d8:	260f0000 	strcs	r0, [pc], -r0
    13dc:	00134900 	andseq	r4, r3, r0, lsl #18
    13e0:	01131000 	tsteq	r3, r0
    13e4:	0b0b0e03 	bleq	2c4bf8 <__bss_end__+0x2ba670>
    13e8:	0b3b0b3a 	bleq	ec40d8 <__bss_end__+0xeb9b50>
    13ec:	00001301 	andeq	r1, r0, r1, lsl #6
    13f0:	03000d11 	movweq	r0, #3345	; 0xd11
    13f4:	3b0b3a08 	blcc	2cfc1c <__bss_end__+0x2c5694>
    13f8:	3813490b 	ldmdacc	r3, {r0, r1, r3, r8, fp, lr}
    13fc:	1200000b 	andne	r0, r0, #11
    1400:	0e030113 	mcreq	1, 0, r0, cr3, cr3, {0}
    1404:	0b3a050b 	bleq	e82838 <__bss_end__+0xe782b0>
    1408:	13010b3b 	movwne	r0, #6971	; 0x1b3b
    140c:	0d130000 	ldceq	0, cr0, [r3, #-0]
    1410:	3a0e0300 	bcc	382018 <__bss_end__+0x377a90>
    1414:	490b3b0b 	stmdbmi	fp, {r0, r1, r3, r8, r9, fp, ip, sp}
    1418:	00053813 	andeq	r3, r5, r3, lsl r8
    141c:	00151400 	andseq	r1, r5, r0, lsl #8
    1420:	00001927 	andeq	r1, r0, r7, lsr #18
    1424:	27011515 	smladcs	r1, r5, r5, r1
    1428:	01134919 	tsteq	r3, r9, lsl r9
    142c:	16000013 			; <UNDEFINED> instruction: 0x16000013
    1430:	13490005 	movtne	r0, #36869	; 0x9005
    1434:	13170000 	tstne	r7, #0
    1438:	0b0e0301 	bleq	382044 <__bss_end__+0x377abc>
    143c:	3b0b3a05 	blcc	2cfc58 <__bss_end__+0x2c56d0>
    1440:	00130105 	andseq	r0, r3, r5, lsl #2
    1444:	000d1800 	andeq	r1, sp, r0, lsl #16
    1448:	0b3a0e03 	bleq	e84c5c <__bss_end__+0xe7a6d4>
    144c:	1349053b 	movtne	r0, #38203	; 0x953b
    1450:	00000b38 	andeq	r0, r0, r8, lsr fp
    1454:	03000d19 	movweq	r0, #3353	; 0xd19
    1458:	3b0b3a0e 	blcc	2cfc98 <__bss_end__+0x2c5710>
    145c:	38134905 	ldmdacc	r3, {r0, r2, r8, fp, lr}
    1460:	1a000005 	bne	147c <__code_start__-0x6b84>
    1464:	0e030113 	mcreq	1, 0, r0, cr3, cr3, {0}
    1468:	0b3a0b0b 	bleq	e8409c <__bss_end__+0xe79b14>
    146c:	1301053b 	movwne	r0, #5435	; 0x153b
    1470:	131b0000 	tstne	fp, #0
    1474:	3a0b0b01 	bcc	2c4080 <__bss_end__+0x2b9af8>
    1478:	01053b0b 	tsteq	r5, fp, lsl #22
    147c:	1c000013 	stcne	0, cr0, [r0], {19}
    1480:	0b0b0117 	bleq	2c18e4 <__bss_end__+0x2b735c>
    1484:	053b0b3a 	ldreq	r0, [fp, #-2874]!	; 0xb3a
    1488:	00001301 	andeq	r1, r0, r1, lsl #6
    148c:	03000d1d 	movweq	r0, #3357	; 0xd1d
    1490:	3b0b3a0e 	blcc	2cfcd0 <__bss_end__+0x2c5748>
    1494:	00134905 	andseq	r4, r3, r5, lsl #18
    1498:	01151e00 	tsteq	r5, r0, lsl #28
    149c:	13011927 	movwne	r1, #6439	; 0x1927
    14a0:	341f0000 	ldrcc	r0, [pc], #-0	; 14a8 <__code_start__-0x6b58>
    14a4:	3a0e0300 	bcc	3820ac <__bss_end__+0x377b24>
    14a8:	49053b0b 	stmdbmi	r5, {r0, r1, r3, r8, r9, fp, ip, sp}
    14ac:	3c193f13 	ldccc	15, cr3, [r9], {19}
    14b0:	20000019 	andcs	r0, r0, r9, lsl r0
    14b4:	0e030034 	mcreq	0, 0, r0, cr3, cr4, {1}
    14b8:	0b3b0b3a 	bleq	ec41a8 <__bss_end__+0xeb9c20>
    14bc:	193f1349 	ldmdbne	pc!, {r0, r3, r6, r8, r9, ip}	; <UNPREDICTABLE>
    14c0:	0000193c 	andeq	r1, r0, ip, lsr r9
    14c4:	0b010421 	bleq	42550 <__bss_end__+0x37fc8>
    14c8:	3a13490b 	bcc	4d38fc <__bss_end__+0x4c9374>
    14cc:	010b3b0b 	tsteq	fp, fp, lsl #22
    14d0:	22000013 	andcs	r0, r0, #19
    14d4:	0e030028 	cdpeq	0, 0, cr0, cr3, cr8, {1}
    14d8:	00000b1c 	andeq	r0, r0, ip, lsl fp
    14dc:	03003423 	movweq	r3, #1059	; 0x423
    14e0:	3b0b3a0e 	blcc	2cfd20 <__bss_end__+0x2c5798>
    14e4:	1c13490b 	ldcne	9, cr4, [r3], {11}
    14e8:	24000006 	strcs	r0, [r0], #-6
    14ec:	193f012e 	ldmdbne	pc!, {r1, r2, r3, r5, r8}	; <UNPREDICTABLE>
    14f0:	0b3a0e03 	bleq	e84d04 <__bss_end__+0xe7a77c>
    14f4:	19270b3b 	stmdbne	r7!, {r0, r1, r3, r4, r5, r8, r9, fp}
    14f8:	01111349 	tsteq	r1, r9, asr #6
    14fc:	18400612 	stmdane	r0, {r1, r4, r9, sl}^
    1500:	01194297 			; <UNDEFINED> instruction: 0x01194297
    1504:	25000013 	strcs	r0, [r0, #-19]
    1508:	00018289 	andeq	r8, r1, r9, lsl #5
    150c:	13310111 	teqne	r1, #1073741828	; 0x40000004
    1510:	2e260000 	cdpcs	0, 2, cr0, cr6, cr0, {0}
    1514:	03193f01 	tsteq	r9, #1, 30
    1518:	3b0b3a0e 	blcc	2cfd58 <__bss_end__+0x2c57d0>
    151c:	1119270b 	tstne	r9, fp, lsl #14
    1520:	40061201 	andmi	r1, r6, r1, lsl #4
    1524:	19429718 	stmdbne	r2, {r3, r4, r8, r9, sl, ip, pc}^
    1528:	00001301 	andeq	r1, r0, r1, lsl #6
    152c:	03000527 	movweq	r0, #1319	; 0x527
    1530:	3b0b3a08 	blcc	2cfd58 <__bss_end__+0x2c57d0>
    1534:	0213490b 	andseq	r4, r3, #180224	; 0x2c000
    1538:	28000017 	stmdacs	r0, {r0, r1, r2, r4}
    153c:	01018289 	smlabbeq	r1, r9, r2, r8
    1540:	13310111 	teqne	r1, #1073741828	; 0x40000004
    1544:	00001301 	andeq	r1, r0, r1, lsl #6
    1548:	01828a29 	orreq	r8, r2, r9, lsr #20
    154c:	91180200 	tstls	r8, r0, lsl #4
    1550:	00001842 	andeq	r1, r0, r2, asr #16
    1554:	0300342a 	movweq	r3, #1066	; 0x42a
    1558:	3b0b3a08 	blcc	2cfd80 <__bss_end__+0x2c57f8>
    155c:	0213490b 	andseq	r4, r3, #180224	; 0x2c000
    1560:	2b000018 	blcs	15c8 <__code_start__-0x6a38>
    1564:	01018289 	smlabbeq	r1, r9, r2, r8
    1568:	13310111 	teqne	r1, #1073741828	; 0x40000004
    156c:	2e2c0000 	cdpcs	0, 2, cr0, cr12, cr0, {0}
    1570:	3a0e0301 	bcc	38217c <__bss_end__+0x377bf4>
    1574:	270b3b0b 	strcs	r3, [fp, -fp, lsl #22]
    1578:	12011119 	andne	r1, r1, #1073741830	; 0x40000006
    157c:	97184006 	ldrls	r4, [r8, -r6]
    1580:	13011942 	movwne	r1, #6466	; 0x1942
    1584:	052d0000 	streq	r0, [sp, #-0]!
    1588:	3a0e0300 	bcc	382190 <__bss_end__+0x377c08>
    158c:	490b3b0b 	stmdbmi	fp, {r0, r1, r3, r8, r9, fp, ip, sp}
    1590:	00170213 	andseq	r0, r7, r3, lsl r2
    1594:	00352e00 	eorseq	r2, r5, r0, lsl #28
    1598:	2e2f0000 	cdpcs	0, 2, cr0, cr15, cr0, {0}
    159c:	3c193f00 	ldccc	15, cr3, [r9], {-0}
    15a0:	030e6e19 	movweq	r6, #60953	; 0xee19
    15a4:	3b0b3a0e 	blcc	2cfde4 <__bss_end__+0x2c585c>
    15a8:	0000000b 	andeq	r0, r0, fp
    15ac:	25011101 	strcs	r1, [r1, #-257]	; 0x101
    15b0:	030b130e 	movweq	r1, #45838	; 0xb30e
    15b4:	110e1b0e 	tstne	lr, lr, lsl #22
    15b8:	10061201 	andne	r1, r6, r1, lsl #4
    15bc:	02000017 	andeq	r0, r0, #23
    15c0:	0b0b0024 	bleq	2c1658 <__bss_end__+0x2b70d0>
    15c4:	08030b3e 	stmdaeq	r3, {r1, r2, r3, r4, r5, r8, r9, fp}
    15c8:	24030000 	strcs	r0, [r3], #-0
    15cc:	3e0b0b00 	vmlacc.f64	d0, d11, d0
    15d0:	000e030b 	andeq	r0, lr, fp, lsl #6
    15d4:	00260400 	eoreq	r0, r6, r0, lsl #8
    15d8:	00001349 	andeq	r1, r0, r9, asr #6
    15dc:	03001605 	movweq	r1, #1541	; 0x605
    15e0:	3b0b3a0e 	blcc	2cfe20 <__bss_end__+0x2c5898>
    15e4:	0013490b 	andseq	r4, r3, fp, lsl #18
    15e8:	00160600 	andseq	r0, r6, r0, lsl #12
    15ec:	0b3a0e03 	bleq	e84e00 <__bss_end__+0xe7a878>
    15f0:	1349053b 	movtne	r0, #38203	; 0x953b
    15f4:	17070000 	strne	r0, [r7, -r0]
    15f8:	3a0b0b01 	bcc	2c4204 <__bss_end__+0x2b9c7c>
    15fc:	010b3b0b 	tsteq	fp, fp, lsl #22
    1600:	08000013 	stmdaeq	r0, {r0, r1, r4}
    1604:	0e03000d 	cdpeq	0, 0, cr0, cr3, cr13, {0}
    1608:	0b3b0b3a 	bleq	ec42f8 <__bss_end__+0xeb9d70>
    160c:	00001349 	andeq	r1, r0, r9, asr #6
    1610:	49010109 	stmdbmi	r1, {r0, r3, r8}
    1614:	00130113 	andseq	r0, r3, r3, lsl r1
    1618:	00210a00 	eoreq	r0, r1, r0, lsl #20
    161c:	0b2f1349 	bleq	bc6348 <__bss_end__+0xbbbdc0>
    1620:	130b0000 	movwne	r0, #45056	; 0xb000
    1624:	3a0b0b01 	bcc	2c4230 <__bss_end__+0x2b9ca8>
    1628:	010b3b0b 	tsteq	fp, fp, lsl #22
    162c:	0c000013 	stceq	0, cr0, [r0], {19}
    1630:	0e03000d 	cdpeq	0, 0, cr0, cr3, cr13, {0}
    1634:	0b3b0b3a 	bleq	ec4324 <__bss_end__+0xeb9d9c>
    1638:	0b381349 	bleq	e06364 <__bss_end__+0xdfbddc>
    163c:	0f0d0000 	svceq	0x000d0000
    1640:	000b0b00 	andeq	r0, fp, r0, lsl #22
    1644:	000f0e00 	andeq	r0, pc, r0, lsl #28
    1648:	13490b0b 	movtne	r0, #39691	; 0x9b0b
    164c:	130f0000 	movwne	r0, #61440	; 0xf000
    1650:	0b0e0301 	bleq	38225c <__bss_end__+0x377cd4>
    1654:	3b0b3a0b 	blcc	2cfe88 <__bss_end__+0x2c5900>
    1658:	0013010b 	andseq	r0, r3, fp, lsl #2
    165c:	000d1000 	andeq	r1, sp, r0
    1660:	0b3a0803 	bleq	e83674 <__bss_end__+0xe790ec>
    1664:	13490b3b 	movtne	r0, #39739	; 0x9b3b
    1668:	00000b38 	andeq	r0, r0, r8, lsr fp
    166c:	03011311 	movweq	r1, #4881	; 0x1311
    1670:	3a050b0e 	bcc	1442b0 <__bss_end__+0x139d28>
    1674:	010b3b0b 	tsteq	fp, fp, lsl #22
    1678:	12000013 	andne	r0, r0, #19
    167c:	0e03000d 	cdpeq	0, 0, cr0, cr3, cr13, {0}
    1680:	0b3b0b3a 	bleq	ec4370 <__bss_end__+0xeb9de8>
    1684:	05381349 	ldreq	r1, [r8, #-841]!	; 0x349
    1688:	15130000 	ldrne	r0, [r3, #-0]
    168c:	00192700 	andseq	r2, r9, r0, lsl #14
    1690:	01151400 	tsteq	r5, r0, lsl #8
    1694:	13491927 	movtne	r1, #39207	; 0x9927
    1698:	00001301 	andeq	r1, r0, r1, lsl #6
    169c:	49000515 	stmdbmi	r0, {r0, r2, r4, r8, sl}
    16a0:	16000013 			; <UNDEFINED> instruction: 0x16000013
    16a4:	0e030113 	mcreq	1, 0, r0, cr3, cr3, {0}
    16a8:	0b3a050b 	bleq	e82adc <__bss_end__+0xe78554>
    16ac:	1301053b 	movwne	r0, #5435	; 0x153b
    16b0:	0d170000 	ldceq	0, cr0, [r7, #-0]
    16b4:	3a0e0300 	bcc	3822bc <__bss_end__+0x377d34>
    16b8:	49053b0b 	stmdbmi	r5, {r0, r1, r3, r8, r9, fp, ip, sp}
    16bc:	000b3813 	andeq	r3, fp, r3, lsl r8
    16c0:	000d1800 	andeq	r1, sp, r0, lsl #16
    16c4:	0b3a0e03 	bleq	e84ed8 <__bss_end__+0xe7a950>
    16c8:	1349053b 	movtne	r0, #38203	; 0x953b
    16cc:	00000538 	andeq	r0, r0, r8, lsr r5
    16d0:	03011319 	movweq	r1, #4889	; 0x1319
    16d4:	3a0b0b0e 	bcc	2c4314 <__bss_end__+0x2b9d8c>
    16d8:	01053b0b 	tsteq	r5, fp, lsl #22
    16dc:	1a000013 	bne	1730 <__code_start__-0x68d0>
    16e0:	0b0b0113 	bleq	2c1b34 <__bss_end__+0x2b75ac>
    16e4:	053b0b3a 	ldreq	r0, [fp, #-2874]!	; 0xb3a
    16e8:	00001301 	andeq	r1, r0, r1, lsl #6
    16ec:	0b01171b 	bleq	47360 <__bss_end__+0x3cdd8>
    16f0:	3b0b3a0b 	blcc	2cff24 <__bss_end__+0x2c599c>
    16f4:	00130105 	andseq	r0, r3, r5, lsl #2
    16f8:	000d1c00 	andeq	r1, sp, r0, lsl #24
    16fc:	0b3a0e03 	bleq	e84f10 <__bss_end__+0xe7a988>
    1700:	1349053b 	movtne	r0, #38203	; 0x953b
    1704:	151d0000 	ldrne	r0, [sp, #-0]
    1708:	01192701 	tsteq	r9, r1, lsl #14
    170c:	1e000013 	mcrne	0, 0, r0, cr0, cr3, {0}
    1710:	0e030034 	mcreq	0, 0, r0, cr3, cr4, {1}
    1714:	053b0b3a 	ldreq	r0, [fp, #-2874]!	; 0xb3a
    1718:	193f1349 	ldmdbne	pc!, {r0, r3, r6, r8, r9, ip}	; <UNPREDICTABLE>
    171c:	0000193c 	andeq	r1, r0, ip, lsr r9
    1720:	0300341f 	movweq	r3, #1055	; 0x41f
    1724:	3b0b3a0e 	blcc	2cff64 <__bss_end__+0x2c59dc>
    1728:	3f13490b 	svccc	0x0013490b
    172c:	00193c19 	andseq	r3, r9, r9, lsl ip
    1730:	01042000 	mrseq	r2, (UNDEF: 4)
    1734:	13490b0b 	movtne	r0, #39691	; 0x9b0b
    1738:	0b3b0b3a 	bleq	ec4428 <__bss_end__+0xeb9ea0>
    173c:	00001301 	andeq	r1, r0, r1, lsl #6
    1740:	03002821 	movweq	r2, #2081	; 0x821
    1744:	000b1c0e 	andeq	r1, fp, lr, lsl #24
    1748:	00342200 	eorseq	r2, r4, r0, lsl #4
    174c:	0b3a0e03 	bleq	e84f60 <__bss_end__+0xe7a9d8>
    1750:	13490b3b 	movtne	r0, #39739	; 0x9b3b
    1754:	0000061c 	andeq	r0, r0, ip, lsl r6
    1758:	3f012e23 	svccc	0x00012e23
    175c:	3a0e0319 	bcc	3823c8 <__bss_end__+0x377e40>
    1760:	270b3b0b 	strcs	r3, [fp, -fp, lsl #22]
    1764:	11134919 	tstne	r3, r9, lsl r9
    1768:	40061201 	andmi	r1, r6, r1, lsl #4
    176c:	19429718 	stmdbne	r2, {r3, r4, r8, r9, sl, ip, pc}^
    1770:	00001301 	andeq	r1, r0, r1, lsl #6
    1774:	03000524 	movweq	r0, #1316	; 0x524
    1778:	3b0b3a08 	blcc	2cffa0 <__bss_end__+0x2c5a18>
    177c:	0213490b 	andseq	r4, r3, #180224	; 0x2c000
    1780:	25000017 	strcs	r0, [r0, #-23]
    1784:	0e030034 	mcreq	0, 0, r0, cr3, cr4, {1}
    1788:	0b3b0b3a 	bleq	ec4478 <__bss_end__+0xeb9ef0>
    178c:	17021349 	strne	r1, [r2, -r9, asr #6]
    1790:	34260000 	strtcc	r0, [r6], #-0
    1794:	3a080300 	bcc	20239c <__bss_end__+0x1f7e14>
    1798:	490b3b0b 	stmdbmi	fp, {r0, r1, r3, r8, r9, fp, ip, sp}
    179c:	00170213 	andseq	r0, r7, r3, lsl r2
    17a0:	82892700 	addhi	r2, r9, #0, 14
    17a4:	01110101 	tsteq	r1, r1, lsl #2
    17a8:	00001331 	andeq	r1, r0, r1, lsr r3
    17ac:	01828a28 	orreq	r8, r2, r8, lsr #20
    17b0:	91180200 	tstls	r8, r0, lsl #4
    17b4:	00001842 	andeq	r1, r0, r2, asr #16
    17b8:	3f012e29 	svccc	0x00012e29
    17bc:	3a0e0319 	bcc	382428 <__bss_end__+0x377ea0>
    17c0:	270b3b0b 	strcs	r3, [fp, -fp, lsl #22]
    17c4:	12011119 	andne	r1, r1, #1073741830	; 0x40000006
    17c8:	97184006 	ldrls	r4, [r8, -r6]
    17cc:	13011942 	movwne	r1, #6466	; 0x1942
    17d0:	892a0000 	stmdbhi	sl!, {}	; <UNPREDICTABLE>
    17d4:	11010182 	smlabbne	r1, r2, r1, r0
    17d8:	01133101 	tsteq	r3, r1, lsl #2
    17dc:	2b000013 	blcs	1830 <__code_start__-0x67d0>
    17e0:	00018289 	andeq	r8, r1, r9, lsl #5
    17e4:	13310111 	teqne	r1, #1073741828	; 0x40000004
    17e8:	052c0000 	streq	r0, [ip, #-0]!
    17ec:	3a0e0300 	bcc	3823f4 <__bss_end__+0x377e6c>
    17f0:	490b3b0b 	stmdbmi	fp, {r0, r1, r3, r8, r9, fp, ip, sp}
    17f4:	00170213 	andseq	r0, r7, r3, lsl r2
    17f8:	00342d00 	eorseq	r2, r4, r0, lsl #26
    17fc:	0b3a0803 	bleq	e83810 <__bss_end__+0xe79288>
    1800:	13490b3b 	movtne	r0, #39739	; 0x9b3b
    1804:	00001802 	andeq	r1, r0, r2, lsl #16
    1808:	3f002e2e 	svccc	0x00002e2e
    180c:	6e193c19 	mrcvs	12, 0, r3, cr9, cr9, {0}
    1810:	3a0e030e 	bcc	382450 <__bss_end__+0x377ec8>
    1814:	000b3b0b 	andeq	r3, fp, fp, lsl #22
	...

Disassembly of section .debug_loc:

00000000 <.debug_loc>:
       0:	0000000c 	andeq	r0, r0, ip
       4:	00000010 	andeq	r0, r0, r0, lsl r0
       8:	10500001 	subsne	r0, r0, r1
       c:	14000000 	strne	r0, [r0], #-0
      10:	04000000 	streq	r0, [r0], #-0
      14:	5001f300 	andpl	pc, r1, r0, lsl #6
      18:	0000009f 	muleq	r0, pc, r0	; <UNPREDICTABLE>
	...
      24:	00002300 	andeq	r2, r0, r0, lsl #6
      28:	50000100 	andpl	r0, r0, r0, lsl #2
      2c:	00000023 	andeq	r0, r0, r3, lsr #32
      30:	00000044 	andeq	r0, r0, r4, asr #32
      34:	01f30004 	mvnseq	r0, r4
      38:	00449f50 	subeq	r9, r4, r0, asr pc
      3c:	005f0000 	subseq	r0, pc, r0
      40:	00010000 	andeq	r0, r1, r0
      44:	00005f50 	andeq	r5, r0, r0, asr pc
      48:	00008000 	andeq	r8, r0, r0
      4c:	f3000400 	vshl.u8	d0, d0, d0
      50:	809f5001 	addshi	r5, pc, r1
      54:	b0000000 	andlt	r0, r0, r0
      58:	01000000 	mrseq	r0, (UNDEF: 0)
      5c:	00005000 	andeq	r5, r0, r0
	...
      68:	00230000 	eoreq	r0, r3, r0
      6c:	00010000 	andeq	r0, r1, r0
      70:	00002351 	andeq	r2, r0, r1, asr r3
      74:	00004400 	andeq	r4, r0, r0, lsl #8
      78:	f3000400 	vshl.u8	d0, d0, d0
      7c:	449f5101 	ldrmi	r5, [pc], #257	; 84 <__code_start__-0x7f7c>
      80:	5f000000 	svcpl	0x00000000
      84:	01000000 	mrseq	r0, (UNDEF: 0)
      88:	005f5100 	subseq	r5, pc, r0, lsl #2
      8c:	00800000 	addeq	r0, r0, r0
      90:	00040000 	andeq	r0, r4, r0
      94:	9f5101f3 	svcls	0x005101f3
      98:	00000080 	andeq	r0, r0, r0, lsl #1
      9c:	000000b0 	strheq	r0, [r0], -r0	; <UNPREDICTABLE>
      a0:	00510001 	subseq	r0, r1, r1
      a4:	00000000 	andeq	r0, r0, r0
      a8:	10000000 	andne	r0, r0, r0
      ac:	23000000 	movwcs	r0, #0
      b0:	01000000 	mrseq	r0, (UNDEF: 0)
      b4:	00445300 	subeq	r5, r4, r0, lsl #6
      b8:	00480000 	subeq	r0, r8, r0
      bc:	00010000 	andeq	r0, r1, r0
      c0:	00004853 	andeq	r4, r0, r3, asr r8
      c4:	0000b000 	andeq	fp, r0, r0
      c8:	0a000400 	beq	10d0 <__code_start__-0x6f30>
      cc:	009f01ff 			; <UNDEFINED> instruction: 0x009f01ff
      d0:	00000000 	andeq	r0, r0, r0
      d4:	44000000 	strmi	r0, [r0], #-0
      d8:	5f000000 	svcpl	0x00000000
      dc:	01000000 	mrseq	r0, (UNDEF: 0)
      e0:	005f5000 	subseq	r5, pc, r0
      e4:	00800000 	addeq	r0, r0, r0
      e8:	00040000 	andeq	r0, r4, r0
      ec:	9f5001f3 	svcls	0x005001f3
      f0:	00000080 	andeq	r0, r0, r0, lsl #1
      f4:	000000b0 	strheq	r0, [r0], -r0	; <UNPREDICTABLE>
      f8:	00500001 	subseq	r0, r0, r1
      fc:	00000000 	andeq	r0, r0, r0
     100:	0c000000 	stceq	0, cr0, [r0], {-0}
     104:	10000000 	andne	r0, r0, r0
     108:	01000000 	mrseq	r0, (UNDEF: 0)
     10c:	00005300 	andeq	r5, r0, r0, lsl #6
     110:	00000000 	andeq	r0, r0, r0
     114:	00100000 	andseq	r0, r0, r0
     118:	00230000 	eoreq	r0, r3, r0
     11c:	00010000 	andeq	r0, r1, r0
     120:	00004453 	andeq	r4, r0, r3, asr r4
     124:	00004c00 	andeq	r4, r0, r0, lsl #24
     128:	53000100 	movwpl	r0, #256	; 0x100
	...
     134:	00000018 	andeq	r0, r0, r8, lsl r0
     138:	00000023 	andeq	r0, r0, r3, lsr #32
     13c:	44520001 	ldrbmi	r0, [r2], #-1
     140:	54000000 	strpl	r0, [r0], #-0
     144:	01000000 	mrseq	r0, (UNDEF: 0)
     148:	00005200 	andeq	r5, r0, r0, lsl #4
     14c:	00000000 	andeq	r0, r0, r0
     150:	00540000 	subseq	r0, r4, r0
     154:	005f0000 	subseq	r0, pc, r0
     158:	00010000 	andeq	r0, r1, r0
     15c:	00008052 	andeq	r8, r0, r2, asr r0
     160:	0000b000 	andeq	fp, r0, r0
     164:	52000100 	andpl	r0, r0, #0, 2
	...
     170:	000000b0 	strheq	r0, [r0], -r0	; <UNPREDICTABLE>
     174:	000000d3 	ldrdeq	r0, [r0], -r3
     178:	d3500001 	cmple	r0, #1
     17c:	ec000000 	stc	0, cr0, [r0], {-0}
     180:	04000000 	streq	r0, [r0], #-0
     184:	5001f300 	andpl	pc, r1, r0, lsl #6
     188:	0000ec9f 	muleq	r0, pc, ip	; <UNPREDICTABLE>
     18c:	0000ff00 	andeq	pc, r0, r0, lsl #30
     190:	50000100 	andpl	r0, r0, r0, lsl #2
     194:	000000ff 	strdeq	r0, [r0], -pc	; <UNPREDICTABLE>
     198:	00000120 	andeq	r0, r0, r0, lsr #2
     19c:	01f30004 	mvnseq	r0, r4
     1a0:	01209f50 	teqeq	r0, r0, asr pc
     1a4:	01330000 	teqeq	r3, r0
     1a8:	00010000 	andeq	r0, r1, r0
     1ac:	00013350 	andeq	r3, r1, r0, asr r3
     1b0:	00015400 	andeq	r5, r1, r0, lsl #8
     1b4:	f3000400 	vshl.u8	d0, d0, d0
     1b8:	549f5001 	ldrpl	r5, [pc], #1	; 1c0 <__code_start__-0x7e40>
     1bc:	5c000001 	stcpl	0, cr0, [r0], {1}
     1c0:	01000001 	tsteq	r0, r1
     1c4:	015c5000 	cmpeq	ip, r0
     1c8:	015f0000 	cmpeq	pc, r0
     1cc:	00010000 	andeq	r0, r1, r0
     1d0:	00015f51 	andeq	r5, r1, r1, asr pc
     1d4:	00018c00 	andeq	r8, r1, r0, lsl #24
     1d8:	f3000400 	vshl.u8	d0, d0, d0
     1dc:	009f5001 	addseq	r5, pc, r1
     1e0:	00000000 	andeq	r0, r0, r0
     1e4:	c4000000 	strgt	r0, [r0], #-0
     1e8:	c8000000 	stmdagt	r0, {}	; <UNPREDICTABLE>
     1ec:	01000000 	mrseq	r0, (UNDEF: 0)
     1f0:	00005300 	andeq	r5, r0, r0, lsl #6
     1f4:	00000000 	andeq	r0, r0, r0
     1f8:	00f00000 	rscseq	r0, r0, r0
     1fc:	00f40000 	rscseq	r0, r4, r0
     200:	00010000 	andeq	r0, r1, r0
     204:	0000f453 	andeq	pc, r0, r3, asr r4	; <UNPREDICTABLE>
     208:	0000ff00 	andeq	pc, r0, r0, lsl #30
     20c:	73000300 	movwvc	r0, #768	; 0x300
     210:	01209f04 	teqeq	r0, r4, lsl #30
     214:	01240000 	teqeq	r4, r0
     218:	00030000 	andeq	r0, r3, r0
     21c:	009f0473 	addseq	r0, pc, r3, ror r4	; <UNPREDICTABLE>
     220:	00000000 	andeq	r0, r0, r0
     224:	d0000000 	andle	r0, r0, r0
     228:	d8000001 	stmdale	r0, {r0}
     22c:	01000001 	tsteq	r0, r1
     230:	01d85300 	bicseq	r5, r8, r0, lsl #6
     234:	01fc0000 	mvnseq	r0, r0
     238:	00040000 	andeq	r0, r4, r0
     23c:	9f01e70a 	svcls	0x0001e70a
	...
     248:	000001cc 	andeq	r0, r0, ip, asr #3
     24c:	000001d0 	ldrdeq	r0, [r0], -r0	; <UNPREDICTABLE>
     250:	00530001 	subseq	r0, r3, r1
     254:	00000000 	andeq	r0, r0, r0
     258:	d0000000 	andle	r0, r0, r0
     25c:	dc000001 	stcle	0, cr0, [r0], {1}
     260:	01000001 	tsteq	r0, r1
     264:	00005300 	andeq	r5, r0, r0, lsl #6
     268:	00000000 	andeq	r0, r0, r0
     26c:	01fc0000 	mvnseq	r0, r0
     270:	021b0000 	andseq	r0, fp, #0
     274:	00010000 	andeq	r0, r1, r0
     278:	00021b50 	andeq	r1, r2, r0, asr fp
     27c:	00023400 	andeq	r3, r2, r0, lsl #8
     280:	f3000400 	vshl.u8	d0, d0, d0
     284:	349f5001 	ldrcc	r5, [pc], #1	; 28c <__code_start__-0x7d74>
     288:	47000002 	strmi	r0, [r0, -r2]
     28c:	01000002 	tsteq	r0, r2
     290:	02475000 	subeq	r5, r7, #0
     294:	02680000 	rsbeq	r0, r8, #0
     298:	00040000 	andeq	r0, r4, r0
     29c:	9f5001f3 	svcls	0x005001f3
     2a0:	00000268 	andeq	r0, r0, r8, ror #4
     2a4:	00000270 	andeq	r0, r0, r0, ror r2
     2a8:	70500001 	subsvc	r0, r0, r1
     2ac:	73000002 	movwvc	r0, #2
     2b0:	01000002 	tsteq	r0, r2
     2b4:	02735100 	rsbseq	r5, r3, #0, 2
     2b8:	02940000 	addseq	r0, r4, #0
     2bc:	00040000 	andeq	r0, r4, r0
     2c0:	9f5001f3 	svcls	0x005001f3
	...
     2cc:	0000020c 	andeq	r0, r0, ip, lsl #4
     2d0:	00000210 	andeq	r0, r0, r0, lsl r2
     2d4:	00530001 	subseq	r0, r3, r1
     2d8:	00000000 	andeq	r0, r0, r0
     2dc:	cc000000 	stcgt	0, cr0, [r0], {-0}
     2e0:	d4000002 	strle	r0, [r0], #-2
     2e4:	01000002 	tsteq	r0, r2
     2e8:	02d45300 	sbcseq	r5, r4, #0, 6
     2ec:	02f80000 	rscseq	r0, r8, #0
     2f0:	00060000 	andeq	r0, r6, r0
     2f4:	4001e70c 	andmi	lr, r1, ip, lsl #14
     2f8:	00009f00 	andeq	r9, r0, r0, lsl #30
     2fc:	00000000 	andeq	r0, r0, r0
     300:	02c80000 	sbceq	r0, r8, #0
     304:	02cc0000 	sbceq	r0, ip, #0
     308:	00010000 	andeq	r0, r1, r0
     30c:	00000053 	andeq	r0, r0, r3, asr r0
     310:	00000000 	andeq	r0, r0, r0
     314:	0002cc00 	andeq	ip, r2, r0, lsl #24
     318:	0002d800 	andeq	sp, r2, r0, lsl #16
     31c:	53000100 	movwpl	r0, #256	; 0x100
	...
     328:	00000308 	andeq	r0, r0, r8, lsl #6
     32c:	00000330 	andeq	r0, r0, r0, lsr r3
     330:	30500001 	subscc	r0, r0, r1
     334:	38000003 	stmdacc	r0, {r0, r1}
     338:	04000003 	streq	r0, [r0], #-3
     33c:	5001f300 	andpl	pc, r1, r0, lsl #6
     340:	0003389f 	muleq	r3, pc, r8	; <UNPREDICTABLE>
     344:	00033c00 	andeq	r3, r3, r0, lsl #24
     348:	50000100 	andpl	r0, r0, r0, lsl #2
     34c:	0000033c 	andeq	r0, r0, ip, lsr r3
     350:	00000354 	andeq	r0, r0, r4, asr r3
     354:	01f30004 	mvnseq	r0, r4
     358:	00009f50 	andeq	r9, r0, r0, asr pc
     35c:	00000000 	andeq	r0, r0, r0
     360:	03080000 	movweq	r0, #32768	; 0x8000
     364:	03330000 	teqeq	r3, #0
     368:	00010000 	andeq	r0, r1, r0
     36c:	00033351 	andeq	r3, r3, r1, asr r3
     370:	00033800 	andeq	r3, r3, r0, lsl #16
     374:	f3000400 	vshl.u8	d0, d0, d0
     378:	389f5101 	ldmcc	pc, {r0, r8, ip, lr}	; <UNPREDICTABLE>
     37c:	40000003 	andmi	r0, r0, r3
     380:	01000003 	tsteq	r0, r3
     384:	03405100 	movteq	r5, #256	; 0x100
     388:	03540000 	cmpeq	r4, #0
     38c:	00040000 	andeq	r0, r4, r0
     390:	9f5101f3 	svcls	0x005101f3
	...
     39c:	00000314 	andeq	r0, r0, r4, lsl r3
     3a0:	00000333 	andeq	r0, r0, r3, lsr r3
     3a4:	38530001 	ldmdacc	r3, {r0}^
     3a8:	43000003 	movwmi	r0, #3
     3ac:	01000003 	tsteq	r0, r3
     3b0:	00005300 	andeq	r5, r0, r0, lsl #6
	...
     3bc:	00240000 	eoreq	r0, r4, r0
     3c0:	00010000 	andeq	r0, r1, r0
     3c4:	00002450 	andeq	r2, r0, r0, asr r4
     3c8:	00019800 	andeq	r9, r1, r0, lsl #16
     3cc:	f3000400 	vshl.u8	d0, d0, d0
     3d0:	009f5001 	addseq	r5, pc, r1
	...
     3dc:	28000000 	stmdacs	r0, {}	; <UNPREDICTABLE>
     3e0:	01000000 	mrseq	r0, (UNDEF: 0)
     3e4:	00285100 	eoreq	r5, r8, r0, lsl #2
     3e8:	01640000 	cmneq	r4, r0
     3ec:	00010000 	andeq	r0, r1, r0
     3f0:	00016455 	andeq	r6, r1, r5, asr r4
     3f4:	00019800 	andeq	r9, r1, r0, lsl #16
     3f8:	f3000400 	vshl.u8	d0, d0, d0
     3fc:	009f5101 	addseq	r5, pc, r1, lsl #2
	...
     408:	2c000000 	stccs	0, cr0, [r0], {-0}
     40c:	01000000 	mrseq	r0, (UNDEF: 0)
     410:	002c5200 	eoreq	r5, ip, r0, lsl #4
     414:	01980000 	orrseq	r0, r8, r0
     418:	00040000 	andeq	r0, r4, r0
     41c:	9f5201f3 	svcls	0x005201f3
	...
     428:	00000068 	andeq	r0, r0, r8, rrx
     42c:	00000164 	andeq	r0, r0, r4, ror #2
     430:	00540001 	subseq	r0, r4, r1
     434:	00000000 	andeq	r0, r0, r0
     438:	38000000 	stmdacc	r0, {}	; <UNPREDICTABLE>
     43c:	3c000000 	stccc	0, cr0, [r0], {-0}
     440:	01000000 	mrseq	r0, (UNDEF: 0)
     444:	00005300 	andeq	r5, r0, r0, lsl #6
     448:	00000000 	andeq	r0, r0, r0
     44c:	01980000 	orrseq	r0, r8, r0
     450:	01d40000 	bicseq	r0, r4, r0
     454:	00010000 	andeq	r0, r1, r0
     458:	0001d450 	andeq	sp, r1, r0, asr r4
     45c:	00060000 	andeq	r0, r6, r0
     460:	54000100 	strpl	r0, [r0], #-256	; 0x100
     464:	00000600 	andeq	r0, r0, r0, lsl #12
     468:	00000660 	andeq	r0, r0, r0, ror #12
     46c:	01f30004 	mvnseq	r0, r4
     470:	00009f50 	andeq	r9, r0, r0, asr pc
     474:	00000000 	andeq	r0, r0, r0
     478:	01a80000 			; <UNDEFINED> instruction: 0x01a80000
     47c:	04dc0000 	ldrbeq	r0, [ip], #0
     480:	00010000 	andeq	r0, r1, r0
     484:	00000058 	andeq	r0, r0, r8, asr r0
     488:	00000000 	andeq	r0, r0, r0
     48c:	00029400 	andeq	r9, r2, r0, lsl #8
     490:	0004dc00 	andeq	sp, r4, r0, lsl #24
     494:	58000100 	stmdapl	r0, {r8}
	...
     4a0:	000003b4 			; <UNDEFINED> instruction: 0x000003b4
     4a4:	00000600 	andeq	r0, r0, r0, lsl #12
     4a8:	00550001 	subseq	r0, r5, r1
     4ac:	00000000 	andeq	r0, r0, r0
     4b0:	d8000000 	stmdale	r0, {}	; <UNPREDICTABLE>
     4b4:	dc000004 	stcle	0, cr0, [r0], {4}
     4b8:	01000004 	tsteq	r0, r4
     4bc:	00005800 	andeq	r5, r0, r0, lsl #16
     4c0:	00000000 	andeq	r0, r0, r0
     4c4:	05480000 	strbeq	r0, [r8, #-0]
     4c8:	054c0000 	strbeq	r0, [ip, #-0]
     4cc:	00010000 	andeq	r0, r1, r0
     4d0:	00000053 	andeq	r0, r0, r3, asr r0
     4d4:	00000000 	andeq	r0, r0, r0
     4d8:	00066000 	andeq	r6, r6, r0
     4dc:	00067000 	andeq	r7, r6, r0
     4e0:	50000100 	andpl	r0, r0, r0, lsl #2
     4e4:	00000670 	andeq	r0, r0, r0, ror r6
     4e8:	000006e4 	andeq	r0, r0, r4, ror #13
     4ec:	00540001 	subseq	r0, r4, r1
     4f0:	00000000 	andeq	r0, r0, r0
     4f4:	68000000 	stmdavs	r0, {}	; <UNPREDICTABLE>
     4f8:	70000006 	andvc	r0, r0, r6
     4fc:	02000006 	andeq	r0, r0, #6
     500:	709f3000 	addsvc	r3, pc, r0
     504:	e4000006 	str	r0, [r0], #-6
     508:	01000006 	tsteq	r0, r6
     50c:	00005500 	andeq	r5, r0, r0, lsl #10
     510:	00000000 	andeq	r0, r0, r0
     514:	070c0000 	streq	r0, [ip, -r0]
     518:	07170000 	ldreq	r0, [r7, -r0]
     51c:	00010000 	andeq	r0, r1, r0
     520:	00071750 	andeq	r1, r7, r0, asr r7
     524:	00075800 	andeq	r5, r7, r0, lsl #16
     528:	54000100 	strpl	r0, [r0], #-256	; 0x100
	...
     534:	0000002c 	andeq	r0, r0, ip, lsr #32
     538:	00000038 	andeq	r0, r0, r8, lsr r0
     53c:	38500001 	ldmdacc	r0, {r0}^
     540:	48000000 	stmdami	r0, {}	; <UNPREDICTABLE>
     544:	01000000 	mrseq	r0, (UNDEF: 0)
     548:	00485500 	subeq	r5, r8, r0, lsl #10
     54c:	00580000 	subseq	r0, r8, r0
     550:	00010000 	andeq	r0, r1, r0
     554:	00000050 	andeq	r0, r0, r0, asr r0
	...
     560:	00000b00 	andeq	r0, r0, r0, lsl #22
     564:	50000100 	andpl	r0, r0, r0, lsl #2
     568:	0000000b 	andeq	r0, r0, fp
     56c:	00000014 	andeq	r0, r0, r4, lsl r0
     570:	00540001 	subseq	r0, r4, r1
	...
     57c:	10000000 	andne	r0, r0, r0
     580:	01000000 	mrseq	r0, (UNDEF: 0)
     584:	00105000 	andseq	r5, r0, r0
     588:	00340000 	eorseq	r0, r4, r0
     58c:	00010000 	andeq	r0, r1, r0
     590:	00000054 	andeq	r0, r0, r4, asr r0
	...
     59c:	00000400 	andeq	r0, r0, r0, lsl #8
     5a0:	50000100 	andpl	r0, r0, r0, lsl #2
     5a4:	00000004 	andeq	r0, r0, r4
     5a8:	0000000c 	andeq	r0, r0, ip
     5ac:	30700003 	rsbscc	r0, r0, r3
     5b0:	00000c9f 	muleq	r0, pc, ip	; <UNPREDICTABLE>
     5b4:	00001400 	andeq	r1, r0, r0, lsl #8
     5b8:	f3000400 	vshl.u8	d0, d0, d0
     5bc:	009f5001 	addseq	r5, pc, r1
     5c0:	00000000 	andeq	r0, r0, r0
     5c4:	14000000 	strne	r0, [r0], #-0
     5c8:	20000000 	andcs	r0, r0, r0
     5cc:	01000000 	mrseq	r0, (UNDEF: 0)
     5d0:	00205000 	eoreq	r5, r0, r0
     5d4:	002c0000 	eoreq	r0, ip, r0
     5d8:	00030000 	andeq	r0, r3, r0
     5dc:	2c9f0170 	ldfcss	f0, [pc], {112}	; 0x70
     5e0:	40000000 	andmi	r0, r0, r0
     5e4:	01000000 	mrseq	r0, (UNDEF: 0)
     5e8:	00005000 	andeq	r5, r0, r0
     5ec:	00000000 	andeq	r0, r0, r0
     5f0:	00140000 	andseq	r0, r4, r0
     5f4:	00180000 	andseq	r0, r8, r0
     5f8:	00010000 	andeq	r0, r1, r0
     5fc:	00001851 	andeq	r1, r0, r1, asr r8
     600:	00004000 	andeq	r4, r0, r0
     604:	f3000400 	vshl.u8	d0, d0, d0
     608:	009f5101 	addseq	r5, pc, r1, lsl #2
     60c:	00000000 	andeq	r0, r0, r0
     610:	40000000 	andmi	r0, r0, r0
     614:	60000000 	andvs	r0, r0, r0
     618:	01000000 	mrseq	r0, (UNDEF: 0)
     61c:	00605000 	rsbeq	r5, r0, r0
     620:	006c0000 	rsbeq	r0, ip, r0
     624:	00030000 	andeq	r0, r3, r0
     628:	6c9f0171 	ldfvss	f0, [pc], {113}	; 0x71
     62c:	74000000 	strvc	r0, [r0], #-0
     630:	01000000 	mrseq	r0, (UNDEF: 0)
     634:	00745100 	rsbseq	r5, r4, r0, lsl #2
     638:	00800000 	addeq	r0, r0, r0
     63c:	00030000 	andeq	r0, r3, r0
     640:	009f0171 	addseq	r0, pc, r1, ror r1	; <UNPREDICTABLE>
     644:	00000000 	andeq	r0, r0, r0
     648:	40000000 	andmi	r0, r0, r0
     64c:	50000000 	andpl	r0, r0, r0
     650:	01000000 	mrseq	r0, (UNDEF: 0)
     654:	00505100 	subseq	r5, r0, r0, lsl #2
     658:	00800000 	addeq	r0, r0, r0
     65c:	00040000 	andeq	r0, r4, r0
     660:	9f5101f3 	svcls	0x005101f3
	...
     66c:	00000040 	andeq	r0, r0, r0, asr #32
     670:	00000058 	andeq	r0, r0, r8, asr r0
     674:	58520001 	ldmdapl	r2, {r0}^
     678:	64000000 	strvs	r0, [r0], #-0
     67c:	01000000 	mrseq	r0, (UNDEF: 0)
     680:	00645200 	rsbeq	r5, r4, r0, lsl #4
     684:	00680000 	rsbeq	r0, r8, r0
     688:	00030000 	andeq	r0, r3, r0
     68c:	689f0172 	ldmvs	pc, {r1, r4, r5, r6, r8}	; <UNPREDICTABLE>
     690:	80000000 	andhi	r0, r0, r0
     694:	01000000 	mrseq	r0, (UNDEF: 0)
     698:	00005200 	andeq	r5, r0, r0, lsl #4
     69c:	00000000 	andeq	r0, r0, r0
     6a0:	00400000 	subeq	r0, r0, r0
     6a4:	00540000 	subseq	r0, r4, r0
     6a8:	00010000 	andeq	r0, r1, r0
     6ac:	00005453 	andeq	r5, r0, r3, asr r4
     6b0:	00007800 	andeq	r7, r0, r0, lsl #16
     6b4:	53000100 	movwpl	r0, #256	; 0x100
	...
     6c0:	00000048 	andeq	r0, r0, r8, asr #32
     6c4:	00000060 	andeq	r0, r0, r0, rrx
     6c8:	605c0001 	subsvs	r0, ip, r1
     6cc:	80000000 	andhi	r0, r0, r0
     6d0:	0a000000 	beq	6d8 <__code_start__-0x7928>
     6d4:	5201f300 	andpl	pc, r1, #0, 6
     6d8:	1c5301f3 	ldfnee	f0, [r3], {243}	; 0xf3
     6dc:	009f0123 	addseq	r0, pc, r3, lsr #2
     6e0:	00000000 	andeq	r0, r0, r0
     6e4:	80000000 	andhi	r0, r0, r0
     6e8:	a4000000 	strge	r0, [r0], #-0
     6ec:	01000000 	mrseq	r0, (UNDEF: 0)
     6f0:	00a45000 	adceq	r5, r4, r0
     6f4:	01180000 	tsteq	r8, r0
     6f8:	00030000 	andeq	r0, r3, r0
     6fc:	189f0270 	ldmne	pc, {r4, r5, r6, r9}	; <UNPREDICTABLE>
     700:	3c000001 	stccc	0, cr0, [r0], {1}
     704:	04000002 	streq	r0, [r0], #-2
     708:	5001f300 	andpl	pc, r1, r0, lsl #6
     70c:	0000009f 	muleq	r0, pc, r0	; <UNPREDICTABLE>
     710:	00000000 	andeq	r0, r0, r0
     714:	00008000 	andeq	r8, r0, r0
     718:	0000f000 	andeq	pc, r0, r0
     71c:	51000100 	mrspl	r0, (UNDEF: 16)
     720:	000000f0 	strdeq	r0, [r0], -r0	; <UNPREDICTABLE>
     724:	00000160 	andeq	r0, r0, r0, ror #2
     728:	60550001 	subsvs	r0, r5, r1
     72c:	6c000001 	stcvs	0, cr0, [r0], {1}
     730:	01000001 	tsteq	r0, r1
     734:	016c5100 	cmneq	ip, r0, lsl #2
     738:	01a00000 	moveq	r0, r0
     73c:	00010000 	andeq	r0, r1, r0
     740:	0001a055 	andeq	sl, r1, r5, asr r0
     744:	0001b400 	andeq	fp, r1, r0, lsl #8
     748:	51000100 	mrspl	r0, (UNDEF: 16)
     74c:	000001b4 			; <UNDEFINED> instruction: 0x000001b4
     750:	000001d4 	ldrdeq	r0, [r0], -r4
     754:	d4550001 	ldrble	r0, [r5], #-1
     758:	d7000001 	strle	r0, [r0, -r1]
     75c:	01000001 	tsteq	r0, r1
     760:	01d75100 	bicseq	r5, r7, r0, lsl #2
     764:	021c0000 	andseq	r0, ip, #0
     768:	00010000 	andeq	r0, r1, r0
     76c:	00021c55 	andeq	r1, r2, r5, asr ip
     770:	00023c00 	andeq	r3, r2, r0, lsl #24
     774:	f3000400 	vshl.u8	d0, d0, d0
     778:	009f5101 	addseq	r5, pc, r1, lsl #2
     77c:	00000000 	andeq	r0, r0, r0
     780:	80000000 	andhi	r0, r0, r0
     784:	94000000 	strls	r0, [r0], #-0
     788:	01000000 	mrseq	r0, (UNDEF: 0)
     78c:	00945200 	addseq	r5, r4, r0, lsl #4
     790:	021c0000 	andseq	r0, ip, #0
     794:	00010000 	andeq	r0, r1, r0
     798:	00021c54 	andeq	r1, r2, r4, asr ip
     79c:	00023c00 	andeq	r3, r2, r0, lsl #24
     7a0:	f3000400 	vshl.u8	d0, d0, d0
     7a4:	009f5201 	addseq	r5, pc, r1, lsl #4
     7a8:	00000000 	andeq	r0, r0, r0
     7ac:	80000000 	andhi	r0, r0, r0
     7b0:	00000000 	andeq	r0, r0, r0
     7b4:	01000001 	tsteq	r0, r1
     7b8:	01045300 	mrseq	r5, LR_abt
     7bc:	01080000 	mrseq	r0, (UNDEF: 8)
     7c0:	00010000 	andeq	r0, r1, r0
     7c4:	00016053 	andeq	r6, r1, r3, asr r0
     7c8:	00016400 	andeq	r6, r1, r0, lsl #8
     7cc:	53000100 	movwpl	r0, #256	; 0x100
     7d0:	00000164 	andeq	r0, r0, r4, ror #2
     7d4:	0000016c 	andeq	r0, r0, ip, ror #2
     7d8:	6c5c0001 	mrrcvs	0, 0, r0, ip, cr1
     7dc:	a0000001 	andge	r0, r0, r1
     7e0:	04000001 	streq	r0, [r0], #-1
     7e4:	5301f300 	movwpl	pc, #4864	; 0x1300	; <UNPREDICTABLE>
     7e8:	0001a09f 	muleq	r1, pc, r0	; <UNPREDICTABLE>
     7ec:	0001b000 	andeq	fp, r1, r0
     7f0:	53000100 	movwpl	r0, #256	; 0x100
     7f4:	000001b0 			; <UNDEFINED> instruction: 0x000001b0
     7f8:	000001b4 			; <UNDEFINED> instruction: 0x000001b4
     7fc:	b45c0001 	ldrblt	r0, [ip], #-1
     800:	d4000001 	strle	r0, [r0], #-1
     804:	04000001 	streq	r0, [r0], #-1
     808:	5301f300 	movwpl	pc, #4864	; 0x1300	; <UNPREDICTABLE>
     80c:	0001d49f 	muleq	r1, pc, r4	; <UNPREDICTABLE>
     810:	0001d700 	andeq	sp, r1, r0, lsl #14
     814:	53000100 	movwpl	r0, #256	; 0x100
     818:	000001d7 	ldrdeq	r0, [r0], -r7
     81c:	000001f8 	strdeq	r0, [r0], -r8
     820:	01f30004 	mvnseq	r0, r4
     824:	00009f53 	andeq	r9, r0, r3, asr pc
     828:	00000000 	andeq	r0, r0, r0
     82c:	00800000 	addeq	r0, r0, r0
     830:	009c0000 	addseq	r0, ip, r0
     834:	00020000 	andeq	r0, r2, r0
     838:	009c0091 	umullseq	r0, ip, r1, r0
     83c:	01d70000 	bicseq	r0, r7, r0
     840:	00010000 	andeq	r0, r1, r0
     844:	0001f852 	andeq	pc, r1, r2, asr r8	; <UNPREDICTABLE>
     848:	0001ff00 	andeq	pc, r1, r0, lsl #30
     84c:	52000100 	andpl	r0, r0, #0, 2
	...
     858:	0000009c 	muleq	r0, ip, r0
     85c:	0000010c 	andeq	r0, r0, ip, lsl #2
     860:	a0910004 	addsge	r0, r1, r4
     864:	010c9f7f 	tsteq	ip, pc, ror pc
     868:	01180000 	tsteq	r8, r0
     86c:	00010000 	andeq	r0, r1, r0
     870:	00011851 	andeq	r1, r1, r1, asr r8
     874:	00011c00 	andeq	r1, r1, r0, lsl #24
     878:	50000100 	andpl	r0, r0, r0, lsl #2
     87c:	0000011c 	andeq	r0, r0, ip, lsl r1
     880:	00000120 	andeq	r0, r0, r0, lsr #2
     884:	20510001 	subscs	r0, r1, r1
     888:	60000001 	andvs	r0, r0, r1
     88c:	01000001 	tsteq	r0, r1
     890:	01605000 	cmneq	r0, r0
     894:	01640000 	cmneq	r4, r0
     898:	00040000 	andeq	r0, r4, r0
     89c:	9f7fa091 	svcls	0x007fa091
     8a0:	00000164 	andeq	r0, r0, r4, ror #2
     8a4:	0000016c 	andeq	r0, r0, ip, ror #2
     8a8:	6c530001 	mrrcvs	0, 0, r0, r3, cr1
     8ac:	70000001 	andvc	r0, r0, r1
     8b0:	01000001 	tsteq	r0, r1
     8b4:	01705000 	cmneq	r0, r0
     8b8:	01740000 	cmneq	r4, r0
     8bc:	00010000 	andeq	r0, r1, r0
     8c0:	00017453 	andeq	r7, r1, r3, asr r4
     8c4:	00018800 	andeq	r8, r1, r0, lsl #16
     8c8:	50000100 	andpl	r0, r0, r0, lsl #2
     8cc:	00000188 	andeq	r0, r0, r8, lsl #3
     8d0:	00000194 	muleq	r0, r4, r1
     8d4:	01700003 	cmneq	r0, r3
     8d8:	0001949f 	muleq	r1, pc, r4	; <UNPREDICTABLE>
     8dc:	0001a000 	andeq	sl, r1, r0
     8e0:	50000100 	andpl	r0, r0, r0, lsl #2
     8e4:	000001a0 	andeq	r0, r0, r0, lsr #3
     8e8:	000001a8 	andeq	r0, r0, r8, lsr #3
     8ec:	a1910004 	orrsge	r0, r1, r4
     8f0:	01a89f7f 			; <UNDEFINED> instruction: 0x01a89f7f
     8f4:	01ac0000 			; <UNDEFINED> instruction: 0x01ac0000
     8f8:	00010000 	andeq	r0, r1, r0
     8fc:	0001ac50 	andeq	sl, r1, r0, asr ip
     900:	0001b000 	andeq	fp, r1, r0
     904:	91000400 	tstls	r0, r0, lsl #8
     908:	b09f7fa0 	addslt	r7, pc, r0, lsr #31
     90c:	b8000001 	stmdalt	r0, {r0}
     910:	01000001 	tsteq	r0, r1
     914:	01b85300 			; <UNDEFINED> instruction: 0x01b85300
     918:	01d40000 	bicseq	r0, r4, r0
     91c:	00010000 	andeq	r0, r1, r0
     920:	0001d450 	andeq	sp, r1, r0, asr r4
     924:	0001f800 	andeq	pc, r1, r0, lsl #16
     928:	91000400 	tstls	r0, r0, lsl #8
     92c:	f89f7fa0 			; <UNDEFINED> instruction: 0xf89f7fa0
     930:	ff000001 			; <UNDEFINED> instruction: 0xff000001
     934:	01000001 	tsteq	r0, r1
     938:	00005000 	andeq	r5, r0, r0
     93c:	00000000 	andeq	r0, r0, r0
     940:	00a00000 	adceq	r0, r0, r0
     944:	00ec0000 	rsceq	r0, ip, r0
     948:	00010000 	andeq	r0, r1, r0
     94c:	0000ec5c 	andeq	lr, r0, ip, asr ip
     950:	00010000 	andeq	r0, r1, r0
     954:	53000100 	movwpl	r0, #256	; 0x100
     958:	00000100 	andeq	r0, r0, r0, lsl #2
     95c:	00000104 	andeq	r0, r0, r4, lsl #2
     960:	045c0001 	ldrbeq	r0, [ip], #-1
     964:	08000001 	stmdaeq	r0, {r0}
     968:	01000001 	tsteq	r0, r1
     96c:	01085300 	mrseq	r5, (UNDEF: 56)
     970:	01600000 	cmneq	r0, r0
     974:	00010000 	andeq	r0, r1, r0
     978:	0001605c 	andeq	r6, r1, ip, asr r0
     97c:	00016400 	andeq	r6, r1, r0, lsl #8
     980:	53000100 	movwpl	r0, #256	; 0x100
     984:	00000164 	andeq	r0, r0, r4, ror #2
     988:	00000180 	andeq	r0, r0, r0, lsl #3
     98c:	805c0001 	subshi	r0, ip, r1
     990:	84000001 	strhi	r0, [r0], #-1
     994:	05000001 	streq	r0, [r0, #-1]
     998:	34007c00 	strcc	r7, [r0], #-3072	; 0xc00
     99c:	01849f25 	orreq	r9, r4, r5, lsr #30
     9a0:	01a00000 	moveq	r0, r0
     9a4:	00010000 	andeq	r0, r1, r0
     9a8:	0001a05c 	andeq	sl, r1, ip, asr r0
     9ac:	0001b000 	andeq	fp, r1, r0
     9b0:	53000100 	movwpl	r0, #256	; 0x100
     9b4:	000001b0 			; <UNDEFINED> instruction: 0x000001b0
     9b8:	000001c4 	andeq	r0, r0, r4, asr #3
     9bc:	c45c0001 	ldrbgt	r0, [ip], #-1
     9c0:	cc000001 	stcgt	0, cr0, [r0], {1}
     9c4:	05000001 	streq	r0, [r0, #-1]
     9c8:	31007c00 	tstcc	r0, r0, lsl #24
     9cc:	01cc9f25 	biceq	r9, ip, r5, lsr #30
     9d0:	01d40000 	bicseq	r0, r4, r0
     9d4:	00010000 	andeq	r0, r1, r0
     9d8:	0001d45c 	andeq	sp, r1, ip, asr r4
     9dc:	0001d700 	andeq	sp, r1, r0, lsl #14
     9e0:	53000100 	movwpl	r0, #256	; 0x100
     9e4:	000001d7 	ldrdeq	r0, [r0], -r7
     9e8:	000001f8 	strdeq	r0, [r0], -r8
     9ec:	01f30004 	mvnseq	r0, r4
     9f0:	01f89f53 	mvnseq	r9, r3, asr pc
     9f4:	01ff0000 	mvnseq	r0, r0
     9f8:	00010000 	andeq	r0, r1, r0
     9fc:	0000005c 	andeq	r0, r0, ip, asr r0
     a00:	00000000 	andeq	r0, r0, r0
     a04:	0000ec00 	andeq	lr, r0, r0, lsl #24
     a08:	0000fc00 	andeq	pc, r0, r0, lsl #24
     a0c:	30000200 	andcc	r0, r0, r0, lsl #4
     a10:	0000fc9f 	muleq	r0, pc, ip	; <UNPREDICTABLE>
     a14:	00010400 	andeq	r0, r1, r0, lsl #8
     a18:	31000200 	mrscc	r0, R8_usr
     a1c:	0001049f 	muleq	r1, pc, r4	; <UNPREDICTABLE>
     a20:	00010800 	andeq	r0, r1, r0, lsl #16
     a24:	30000200 	andcc	r0, r0, r0, lsl #4
     a28:	0000009f 	muleq	r0, pc, r0	; <UNPREDICTABLE>
     a2c:	00000000 	andeq	r0, r0, r0
     a30:	00023c00 	andeq	r3, r2, r0, lsl #24
     a34:	00024f00 	andeq	r4, r2, r0, lsl #30
     a38:	50000100 	andpl	r0, r0, r0, lsl #2
     a3c:	0000024f 	andeq	r0, r0, pc, asr #4
     a40:	00000270 	andeq	r0, r0, r0, ror r2
     a44:	01f30004 	mvnseq	r0, r4
     a48:	02709f50 	rsbseq	r9, r0, #80, 30	; 0x140
     a4c:	02a40000 	adceq	r0, r4, #0
     a50:	00010000 	andeq	r0, r1, r0
     a54:	00000050 	andeq	r0, r0, r0, asr r0
     a58:	00000000 	andeq	r0, r0, r0
     a5c:	00023c00 	andeq	r3, r2, r0, lsl #24
     a60:	00024f00 	andeq	r4, r2, r0, lsl #30
     a64:	51000100 	mrspl	r0, (UNDEF: 16)
     a68:	0000024f 	andeq	r0, r0, pc, asr #4
     a6c:	00000270 	andeq	r0, r0, r0, ror r2
     a70:	01f30004 	mvnseq	r0, r4
     a74:	02709f51 	rsbseq	r9, r0, #324	; 0x144
     a78:	02a40000 	adceq	r0, r4, #0
     a7c:	00010000 	andeq	r0, r1, r0
     a80:	00000051 	andeq	r0, r0, r1, asr r0
     a84:	00000000 	andeq	r0, r0, r0
     a88:	0002a400 	andeq	sl, r2, r0, lsl #8
     a8c:	0002d400 	andeq	sp, r2, r0, lsl #8
     a90:	50000100 	andpl	r0, r0, r0, lsl #2
     a94:	000002d4 	ldrdeq	r0, [r0], -r4
     a98:	00000558 	andeq	r0, r0, r8, asr r5
     a9c:	585b0001 	ldmdapl	fp, {r0}^
     aa0:	78000005 	stmdavc	r0, {r0, r2}
     aa4:	04000005 	streq	r0, [r0], #-5
     aa8:	5001f300 	andpl	pc, r1, r0, lsl #6
     aac:	0000009f 	muleq	r0, pc, r0	; <UNPREDICTABLE>
     ab0:	00000000 	andeq	r0, r0, r0
     ab4:	0002a400 	andeq	sl, r2, r0, lsl #8
     ab8:	0002bc00 	andeq	fp, r2, r0, lsl #24
     abc:	51000100 	mrspl	r0, (UNDEF: 16)
     ac0:	000002bc 			; <UNDEFINED> instruction: 0x000002bc
     ac4:	000002d4 	ldrdeq	r0, [r0], -r4
     ac8:	01710003 	cmneq	r1, r3
     acc:	0002d49f 	muleq	r2, pc, r4	; <UNPREDICTABLE>
     ad0:	00057800 	andeq	r7, r5, r0, lsl #16
     ad4:	f3000400 	vshl.u8	d0, d0, d0
     ad8:	009f5101 	addseq	r5, pc, r1, lsl #2
     adc:	00000000 	andeq	r0, r0, r0
     ae0:	a4000000 	strge	r0, [r0], #-0
     ae4:	d4000002 	strle	r0, [r0], #-2
     ae8:	01000002 	tsteq	r0, r2
     aec:	02d45200 	sbcseq	r5, r4, #0, 4
     af0:	05580000 	ldrbeq	r0, [r8, #-0]
     af4:	00010000 	andeq	r0, r1, r0
     af8:	00000056 	andeq	r0, r0, r6, asr r0
     afc:	00000000 	andeq	r0, r0, r0
     b00:	0002a400 	andeq	sl, r2, r0, lsl #8
     b04:	0002c400 	andeq	ip, r2, r0, lsl #8
     b08:	53000100 	movwpl	r0, #256	; 0x100
	...
     b14:	000002b8 			; <UNDEFINED> instruction: 0x000002b8
     b18:	000002d4 	ldrdeq	r0, [r0], -r4
     b1c:	d4500001 	ldrble	r0, [r0], #-1
     b20:	d8000002 	stmdale	r0, {r1}
     b24:	01000002 	tsteq	r0, r2
     b28:	02d85400 	sbcseq	r5, r8, #0, 8
     b2c:	02e40000 	rsceq	r0, r4, #0
     b30:	00030000 	andeq	r0, r3, r0
     b34:	e49f0174 	ldr	r0, [pc], #372	; b3c <__code_start__-0x74c4>
     b38:	f0000002 			; <UNDEFINED> instruction: 0xf0000002
     b3c:	01000002 	tsteq	r0, r2
     b40:	02f05400 	rscseq	r5, r0, #0, 8
     b44:	02fc0000 	rscseq	r0, ip, #0
     b48:	00030000 	andeq	r0, r3, r0
     b4c:	fc9f0174 	ldc2	1, cr0, [pc], {116}	; 0x74
     b50:	0c000002 	stceq	0, cr0, [r0], {2}
     b54:	01000005 	tsteq	r0, r5
     b58:	050c5400 	streq	r5, [ip, #-1024]	; 0x400
     b5c:	05180000 	ldreq	r0, [r8, #-0]
     b60:	00030000 	andeq	r0, r3, r0
     b64:	189f0174 	ldmne	pc, {r2, r4, r5, r6, r8}	; <UNPREDICTABLE>
     b68:	44000005 	strmi	r0, [r0], #-5
     b6c:	01000005 	tsteq	r0, r5
     b70:	05445400 	strbeq	r5, [r4, #-1024]	; 0x400
     b74:	05500000 	ldrbeq	r0, [r0, #-0]
     b78:	00010000 	andeq	r0, r1, r0
     b7c:	00055050 	andeq	r5, r5, r0, asr r0
     b80:	00055800 	andeq	r5, r5, r0, lsl #16
     b84:	74000300 	strvc	r0, [r0], #-768	; 0x300
     b88:	00009f01 	andeq	r9, r0, r1, lsl #30
     b8c:	00000000 	andeq	r0, r0, r0
     b90:	02c00000 	sbceq	r0, r0, #0
     b94:	05580000 	ldrbeq	r0, [r8, #-0]
     b98:	00010000 	andeq	r0, r1, r0
     b9c:	00055858 	andeq	r5, r5, r8, asr r8
     ba0:	00057800 	andeq	r7, r5, r0, lsl #16
     ba4:	f3000a00 	vpmax.u8	d0, d0, d0
     ba8:	01f35101 	mvnseq	r5, r1, lsl #2
     bac:	1c312250 	lfmne	f2, 4, [r1], #-320	; 0xfffffec0
     bb0:	0000009f 	muleq	r0, pc, r0	; <UNPREDICTABLE>
     bb4:	00000000 	andeq	r0, r0, r0
     bb8:	0002c800 	andeq	ip, r2, r0, lsl #16
     bbc:	0002d400 	andeq	sp, r2, r0, lsl #8
     bc0:	52000100 	andpl	r0, r0, #0, 2
     bc4:	000002d4 	ldrdeq	r0, [r0], -r4
     bc8:	00000578 	andeq	r0, r0, r8, ror r5
     bcc:	cc910003 	ldcgt	0, cr0, [r1], {3}
     bd0:	0000007e 	andeq	r0, r0, lr, ror r0
     bd4:	00000000 	andeq	r0, r0, r0
     bd8:	00041000 	andeq	r1, r4, r0
     bdc:	00041400 	andeq	r1, r4, r0, lsl #8
     be0:	50000100 	andpl	r0, r0, r0, lsl #2
     be4:	00000438 	andeq	r0, r0, r8, lsr r4
     be8:	0000043c 	andeq	r0, r0, ip, lsr r4
     bec:	60500001 	subsvs	r0, r0, r1
     bf0:	64000004 	strvs	r0, [r0], #-4
     bf4:	01000004 	tsteq	r0, r4
     bf8:	04885000 	streq	r5, [r8], #0
     bfc:	048c0000 	streq	r0, [ip], #0
     c00:	00010000 	andeq	r0, r1, r0
     c04:	00049450 	andeq	r9, r4, r0, asr r4
     c08:	00049800 	andeq	r9, r4, r0, lsl #16
     c0c:	50000100 	andpl	r0, r0, r0, lsl #2
     c10:	000004bc 			; <UNDEFINED> instruction: 0x000004bc
     c14:	000004c0 	andeq	r0, r0, r0, asr #9
     c18:	04500001 	ldrbeq	r0, [r0], #-1
     c1c:	2c000005 	stccs	0, cr0, [r0], {5}
     c20:	01000005 	tsteq	r0, r5
     c24:	00005000 	andeq	r5, r0, r0
     c28:	00000000 	andeq	r0, r0, r0
     c2c:	03040000 	movweq	r0, #16384	; 0x4000
     c30:	030c0000 	movweq	r0, #49152	; 0xc000
     c34:	00020000 	andeq	r0, r2, r0
     c38:	030c9f30 	movweq	r9, #53040	; 0xcf30
     c3c:	03100000 	tsteq	r0, #0
     c40:	00010000 	andeq	r0, r1, r0
     c44:	00031c57 	andeq	r1, r3, r7, asr ip
     c48:	00052c00 	andeq	r2, r5, r0, lsl #24
     c4c:	57000100 	strpl	r0, [r0, -r0, lsl #2]
	...
     c58:	00000004 	andeq	r0, r0, r4
     c5c:	00000008 	andeq	r0, r0, r8
     c60:	00730007 	rsbseq	r0, r3, r7
     c64:	2110000a 	tstcs	r0, sl
     c68:	0000089f 	muleq	r0, pc, r8	; <UNPREDICTABLE>
     c6c:	00001000 	andeq	r1, r0, r0
     c70:	53000100 	movwpl	r0, #256	; 0x100
	...
     c7c:	00000014 	andeq	r0, r0, r4, lsl r0
     c80:	00000018 	andeq	r0, r0, r8, lsl r0
     c84:	00730007 	rsbseq	r0, r3, r7
     c88:	1aefff0b 	bne	ffc008bc <__bss_end__+0xffbf6334>
     c8c:	0000189f 	muleq	r0, pc, r8	; <UNPREDICTABLE>
     c90:	00002000 	andeq	r2, r0, r0
     c94:	53000100 	movwpl	r0, #256	; 0x100
	...
     ca0:	00000014 	andeq	r0, r0, r4, lsl r0
     ca4:	0000001c 	andeq	r0, r0, ip, lsl r0
     ca8:	04730003 	ldrbteq	r0, [r3], #-3
     cac:	00001c9f 	muleq	r0, pc, ip	; <UNPREDICTABLE>
     cb0:	00002700 	andeq	r2, r0, r0, lsl #14
     cb4:	53000100 	movwpl	r0, #256	; 0x100
	...
     cc4:	0000000f 	andeq	r0, r0, pc
     cc8:	0f500001 	svceq	0x00500001
     ccc:	44000000 	strmi	r0, [r0], #-0
     cd0:	01000000 	mrseq	r0, (UNDEF: 0)
     cd4:	00005400 	andeq	r5, r0, r0, lsl #8
	...
     ce0:	000f0000 	andeq	r0, pc, r0
     ce4:	00010000 	andeq	r0, r1, r0
     ce8:	00000f50 	andeq	r0, r0, r0, asr pc
     cec:	00004400 	andeq	r4, r0, r0, lsl #8
     cf0:	54000100 	strpl	r0, [r0], #-256	; 0x100
	...
     d00:	0000000f 	andeq	r0, r0, pc
     d04:	0f500001 	svceq	0x00500001
     d08:	44000000 	strmi	r0, [r0], #-0
     d0c:	01000000 	mrseq	r0, (UNDEF: 0)
     d10:	00005400 	andeq	r5, r0, r0, lsl #8
     d14:	00000000 	andeq	r0, r0, r0
     d18:	00340000 	eorseq	r0, r4, r0
     d1c:	00400000 	subeq	r0, r0, r0
     d20:	00020000 	andeq	r0, r2, r0
     d24:	00409f30 	subeq	r9, r0, r0, lsr pc
     d28:	006c0000 	rsbeq	r0, ip, r0
     d2c:	00010000 	andeq	r0, r1, r0
     d30:	00000053 	andeq	r0, r0, r3, asr r0
     d34:	00000000 	andeq	r0, r0, r0
     d38:	00956c00 	addseq	r6, r5, r0, lsl #24
     d3c:	00957000 	addseq	r7, r5, r0
     d40:	30000200 	andcc	r0, r0, r0, lsl #4
     d44:	0095709f 	umullseq	r7, r5, pc, r0	; <UNPREDICTABLE>
     d48:	00957400 	addseq	r7, r5, r0, lsl #8
     d4c:	50000100 	andpl	r0, r0, r0, lsl #2
	...
     d58:	00009584 	andeq	r9, r0, r4, lsl #11
     d5c:	00009588 	andeq	r9, r0, r8, lsl #11
     d60:	9f300002 	svcls	0x00300002
     d64:	00009588 	andeq	r9, r0, r8, lsl #11
     d68:	0000958c 	andeq	r9, r0, ip, lsl #11
     d6c:	90530001 	subsls	r0, r3, r1
     d70:	98000095 	stmdals	r0, {r0, r2, r4, r7}
     d74:	01000095 	swpeq	r0, r5, [r0]	; <UNPREDICTABLE>
     d78:	00005300 	andeq	r5, r0, r0, lsl #6
	...
     d84:	00040000 	andeq	r0, r4, r0
     d88:	00010000 	andeq	r0, r1, r0
     d8c:	00000450 	andeq	r0, r0, r0, asr r4
     d90:	00000c00 	andeq	r0, r0, r0, lsl #24
     d94:	53000100 	movwpl	r0, #256	; 0x100
     d98:	0000000c 	andeq	r0, r0, ip
     d9c:	00000010 	andeq	r0, r0, r0, lsl r0
     da0:	10500001 	subsne	r0, r0, r1
     da4:	1c000000 	stcne	0, cr0, [r0], {-0}
     da8:	01000000 	mrseq	r0, (UNDEF: 0)
     dac:	00005300 	andeq	r5, r0, r0, lsl #6
     db0:	00000000 	andeq	r0, r0, r0
     db4:	00400000 	subeq	r0, r0, r0
     db8:	00430000 	subeq	r0, r3, r0
     dbc:	00010000 	andeq	r0, r1, r0
     dc0:	00004350 	andeq	r4, r0, r0, asr r3
     dc4:	00004c00 	andeq	r4, r0, r0, lsl #24
     dc8:	54000100 	strpl	r0, [r0], #-256	; 0x100
	...
     dd4:	0000004c 	andeq	r0, r0, ip, asr #32
     dd8:	00000057 	andeq	r0, r0, r7, asr r0
     ddc:	57500001 	ldrbpl	r0, [r0, -r1]
     de0:	70000000 	andvc	r0, r0, r0
     de4:	01000000 	mrseq	r0, (UNDEF: 0)
     de8:	00005500 	andeq	r5, r0, r0, lsl #10
     dec:	00000000 	andeq	r0, r0, r0
     df0:	00600000 	rsbeq	r0, r0, r0
     df4:	00640000 	rsbeq	r0, r4, r0
     df8:	00010000 	andeq	r0, r1, r0
     dfc:	00000050 	andeq	r0, r0, r0, asr r0
     e00:	00000000 	andeq	r0, r0, r0
     e04:	00007000 	andeq	r7, r0, r0
     e08:	00007c00 	andeq	r7, r0, r0, lsl #24
     e0c:	50000100 	andpl	r0, r0, r0, lsl #2
     e10:	0000007c 	andeq	r0, r0, ip, ror r0
     e14:	00000084 	andeq	r0, r0, r4, lsl #1
     e18:	01f30004 	mvnseq	r0, r4
     e1c:	00009f50 	andeq	r9, r0, r0, asr pc
     e20:	00000000 	andeq	r0, r0, r0
     e24:	00840000 	addeq	r0, r4, r0
     e28:	00900000 	addseq	r0, r0, r0
     e2c:	00010000 	andeq	r0, r1, r0
     e30:	00009050 	andeq	r9, r0, r0, asr r0
     e34:	00009800 	andeq	r9, r0, r0, lsl #16
     e38:	f3000400 	vshl.u8	d0, d0, d0
     e3c:	009f5001 	addseq	r5, pc, r1
     e40:	00000000 	andeq	r0, r0, r0
     e44:	38000000 	stmdacc	r0, {}	; <UNPREDICTABLE>
     e48:	43000001 	movwmi	r0, #1
     e4c:	01000001 	tsteq	r0, r1
     e50:	01435000 	mrseq	r5, (UNDEF: 67)
     e54:	01680000 	cmneq	r8, r0
     e58:	00010000 	andeq	r0, r1, r0
     e5c:	00000054 	andeq	r0, r0, r4, asr r0
	...
     e68:	00000f00 	andeq	r0, r0, r0, lsl #30
     e6c:	50000100 	andpl	r0, r0, r0, lsl #2
     e70:	0000000f 	andeq	r0, r0, pc
     e74:	00000020 	andeq	r0, r0, r0, lsr #32
     e78:	00540001 	subseq	r0, r4, r1
	...
     e84:	0f000000 	svceq	0x00000000
     e88:	01000000 	mrseq	r0, (UNDEF: 0)
     e8c:	000f5100 	andeq	r5, pc, r0, lsl #2
     e90:	00200000 	eoreq	r0, r0, r0
     e94:	00010000 	andeq	r0, r1, r0
     e98:	00000055 	andeq	r0, r0, r5, asr r0
     e9c:	00000000 	andeq	r0, r0, r0
     ea0:	0000ec00 	andeq	lr, r0, r0, lsl #24
     ea4:	00010400 	andeq	r0, r1, r0, lsl #8
     ea8:	50000100 	andpl	r0, r0, r0, lsl #2
     eac:	00000104 	andeq	r0, r0, r4, lsl #2
     eb0:	00000114 	andeq	r0, r0, r4, lsl r1
     eb4:	01f30004 	mvnseq	r0, r4
     eb8:	01149f50 	tsteq	r4, r0, asr pc
     ebc:	01180000 	tsteq	r8, r0
     ec0:	00010000 	andeq	r0, r1, r0
     ec4:	00011850 	andeq	r1, r1, r0, asr r8
     ec8:	00012000 	andeq	r2, r1, r0
     ecc:	f3000400 	vshl.u8	d0, d0, d0
     ed0:	009f5001 	addseq	r5, pc, r1
     ed4:	00000000 	andeq	r0, r0, r0
     ed8:	f8000000 			; <UNDEFINED> instruction: 0xf8000000
     edc:	04000000 	streq	r0, [r0], #-0
     ee0:	0b000001 	bleq	eec <__code_start__-0x7114>
     ee4:	35007000 	strcc	r7, [r0, #-0]
     ee8:	80b42325 	adcshi	r2, r4, r5, lsr #6
     eec:	9f028180 	svcls	0x00028180
     ef0:	00000104 	andeq	r0, r0, r4, lsl #2
     ef4:	00000107 	andeq	r0, r0, r7, lsl #2
     ef8:	07500001 	ldrbeq	r0, [r0, -r1]
     efc:	14000001 	strne	r0, [r0], #-1
     f00:	0c000001 	stceq	0, cr0, [r0], {1}
     f04:	5001f300 	andpl	pc, r1, r0, lsl #6
     f08:	b4232535 	strtlt	r2, [r3], #-1333	; 0x535
     f0c:	02818080 	addeq	r8, r1, #128	; 0x80
     f10:	0000009f 	muleq	r0, pc, r0	; <UNPREDICTABLE>
     f14:	00000000 	andeq	r0, r0, r0
     f18:	0000fc00 	andeq	pc, r0, r0, lsl #24
     f1c:	00011400 	andeq	r1, r1, r0, lsl #8
     f20:	54000100 	strpl	r0, [r0], #-256	; 0x100
	...
     f2c:	000000d0 	ldrdeq	r0, [r0], -r0	; <UNPREDICTABLE>
     f30:	000000df 	ldrdeq	r0, [r0], -pc	; <UNPREDICTABLE>
     f34:	df500001 	svcle	0x00500001
     f38:	e4000000 	str	r0, [r0], #-0
     f3c:	04000000 	streq	r0, [r0], #-0
     f40:	5001f300 	andpl	pc, r1, r0, lsl #6
     f44:	0000e49f 	muleq	r0, pc, r4	; <UNPREDICTABLE>
     f48:	0000e700 	andeq	lr, r0, r0, lsl #14
     f4c:	50000100 	andpl	r0, r0, r0, lsl #2
     f50:	000000e7 	andeq	r0, r0, r7, ror #1
     f54:	000000ec 	andeq	r0, r0, ip, ror #1
     f58:	01f30004 	mvnseq	r0, r4
     f5c:	00009f50 	andeq	r9, r0, r0, asr pc
     f60:	00000000 	andeq	r0, r0, r0
     f64:	00d00000 	sbcseq	r0, r0, r0
     f68:	00df0000 	sbcseq	r0, pc, r0
     f6c:	00010000 	andeq	r0, r1, r0
     f70:	0000df51 	andeq	sp, r0, r1, asr pc
     f74:	0000e400 	andeq	lr, r0, r0, lsl #8
     f78:	f3000400 	vshl.u8	d0, d0, d0
     f7c:	e49f5101 	ldr	r5, [pc], #257	; f84 <__code_start__-0x707c>
     f80:	e7000000 	str	r0, [r0, -r0]
     f84:	01000000 	mrseq	r0, (UNDEF: 0)
     f88:	00e75100 	rsceq	r5, r7, r0, lsl #2
     f8c:	00ec0000 	rsceq	r0, ip, r0
     f90:	00040000 	andeq	r0, r4, r0
     f94:	9f5101f3 	svcls	0x005101f3
	...
     fa0:	000000c0 	andeq	r0, r0, r0, asr #1
     fa4:	000000cb 	andeq	r0, r0, fp, asr #1
     fa8:	cb500001 	blgt	1400fb4 <__bss_end__+0x13f6a2c>
     fac:	d0000000 	andle	r0, r0, r0
     fb0:	04000000 	streq	r0, [r0], #-0
     fb4:	5001f300 	andpl	pc, r1, r0, lsl #6
     fb8:	0000009f 	muleq	r0, pc, r0	; <UNPREDICTABLE>
     fbc:	00000000 	andeq	r0, r0, r0
     fc0:	00009c00 	andeq	r9, r0, r0, lsl #24
     fc4:	0000b400 	andeq	fp, r0, r0, lsl #8
     fc8:	50000100 	andpl	r0, r0, r0, lsl #2
     fcc:	000000b4 	strheq	r0, [r0], -r4
     fd0:	000000c0 	andeq	r0, r0, r0, asr #1
     fd4:	01f30004 	mvnseq	r0, r4
     fd8:	00009f50 	andeq	r9, r0, r0, asr pc
     fdc:	00000000 	andeq	r0, r0, r0
     fe0:	00780000 	rsbseq	r0, r8, r0
     fe4:	00900000 	addseq	r0, r0, r0
     fe8:	00010000 	andeq	r0, r1, r0
     fec:	00009050 	andeq	r9, r0, r0, asr r0
     ff0:	00009c00 	andeq	r9, r0, r0, lsl #24
     ff4:	f3000400 	vshl.u8	d0, d0, d0
     ff8:	009f5001 	addseq	r5, pc, r1
     ffc:	00000000 	andeq	r0, r0, r0
    1000:	68000000 	stmdavs	r0, {}	; <UNPREDICTABLE>
    1004:	73000000 	movwvc	r0, #0
    1008:	01000000 	mrseq	r0, (UNDEF: 0)
    100c:	00735000 	rsbseq	r5, r3, r0
    1010:	00780000 	rsbseq	r0, r8, r0
    1014:	00040000 	andeq	r0, r4, r0
    1018:	9f5001f3 	svcls	0x005001f3
	...
    1028:	00000048 	andeq	r0, r0, r8, asr #32
    102c:	48500001 	ldmdami	r0, {r0}^
    1030:	68000000 	stmdavs	r0, {}	; <UNPREDICTABLE>
    1034:	04000000 	streq	r0, [r0], #-0
    1038:	5001f300 	andpl	pc, r1, r0, lsl #6
    103c:	0000009f 	muleq	r0, pc, r0	; <UNPREDICTABLE>
	...
    1048:	00004b00 	andeq	r4, r0, r0, lsl #22
    104c:	51000100 	mrspl	r0, (UNDEF: 16)
    1050:	0000004b 	andeq	r0, r0, fp, asr #32
    1054:	00000068 	andeq	r0, r0, r8, rrx
    1058:	01f30004 	mvnseq	r0, r4
    105c:	00009f51 	andeq	r9, r0, r1, asr pc
    1060:	00000000 	andeq	r0, r0, r0
    1064:	004c0000 	subeq	r0, ip, r0
    1068:	00540000 	subseq	r0, r4, r0
    106c:	00010000 	andeq	r0, r1, r0
    1070:	00005450 	andeq	r5, r0, r0, asr r4
    1074:	00005800 	andeq	r5, r0, r0, lsl #16
    1078:	75000900 	strvc	r0, [r0, #-2304]	; 0x900
    107c:	24007400 	strcs	r7, [r0], #-1024	; 0x400
    1080:	9f210071 	svcls	0x00210071
    1084:	00000058 	andeq	r0, r0, r8, asr r0
    1088:	0000005f 	andeq	r0, r0, pc, asr r0
    108c:	00510001 	subseq	r0, r1, r1
    1090:	00000000 	andeq	r0, r0, r0
    1094:	Address 0x0000000000001094 is out of bounds.


Disassembly of section .debug_aranges:

00000000 <.debug_aranges>:
   0:	0000001c 	andeq	r0, r0, ip, lsl r0
   4:	00000002 	andeq	r0, r0, r2
   8:	00040000 	andeq	r0, r4, r0
   c:	00000000 	andeq	r0, r0, r0
  10:	00008020 	andeq	r8, r0, r0, lsr #32
  14:	00000178 	andeq	r0, r0, r8, ror r1
	...
  20:	0000001c 	andeq	r0, r0, ip, lsl r0
  24:	042d0002 	strteq	r0, [sp], #-2
  28:	00040000 	andeq	r0, r4, r0
  2c:	00000000 	andeq	r0, r0, r0
  30:	00008198 	muleq	r0, r8, r1
  34:	00000354 	andeq	r0, r0, r4, asr r3
	...
  40:	0000001c 	andeq	r0, r0, ip, lsl r0
  44:	101f0002 	andsne	r0, pc, r2
  48:	00040000 	andeq	r0, r4, r0
  4c:	00000000 	andeq	r0, r0, r0
  50:	00008610 	andeq	r8, r0, r0, lsl r6
  54:	00000758 	andeq	r0, r0, r8, asr r7
	...
  60:	0000001c 	andeq	r0, r0, ip, lsl r0
  64:	1f060002 	svcne	0x00060002
  68:	00040000 	andeq	r0, r4, r0
  6c:	00000000 	andeq	r0, r0, r0
  70:	00008d68 	andeq	r8, r0, r8, ror #26
  74:	00000058 	andeq	r0, r0, r8, asr r0
	...
  80:	0000001c 	andeq	r0, r0, ip, lsl r0
  84:	209b0002 	addscs	r0, fp, r2
  88:	00040000 	andeq	r0, r4, r0
  8c:	00000000 	andeq	r0, r0, r0
  90:	00008dc0 	andeq	r8, r0, r0, asr #27
  94:	0000003c 	andeq	r0, r0, ip, lsr r0
	...
  a0:	0000001c 	andeq	r0, r0, ip, lsl r0
  a4:	21b20002 			; <UNDEFINED> instruction: 0x21b20002
  a8:	00040000 	andeq	r0, r4, r0
  ac:	00000000 	andeq	r0, r0, r0
  b0:	00008dfc 	strdeq	r8, [r0], -ip
  b4:	00000034 	andeq	r0, r0, r4, lsr r0
	...
  c0:	0000001c 	andeq	r0, r0, ip, lsl r0
  c4:	22a40002 	adccs	r0, r4, #2
  c8:	00040000 	andeq	r0, r4, r0
  cc:	00000000 	andeq	r0, r0, r0
  d0:	00008e30 	andeq	r8, r0, r0, lsr lr
  d4:	00000578 	andeq	r0, r0, r8, ror r5
	...
  e0:	0000001c 	andeq	r0, r0, ip, lsl r0
  e4:	298d0002 	stmibcs	sp, {r1}
  e8:	00040000 	andeq	r0, r4, r0
  ec:	00000000 	andeq	r0, r0, r0
  f0:	000093a8 	andeq	r9, r0, r8, lsr #7
  f4:	00000020 	andeq	r0, r0, r0, lsr #32
	...
 100:	0000001c 	andeq	r0, r0, ip, lsl r0
 104:	2a490002 	bcs	1240114 <__bss_end__+0x1235b8c>
 108:	00040000 	andeq	r0, r4, r0
 10c:	00000000 	andeq	r0, r0, r0
 110:	000093c8 	andeq	r9, r0, r8, asr #7
 114:	0000002c 	andeq	r0, r0, ip, lsr #32
	...
 120:	0000001c 	andeq	r0, r0, ip, lsl r0
 124:	2b5c0002 	blcs	1700134 <__bss_end__+0x16f5bac>
 128:	00040000 	andeq	r0, r4, r0
 12c:	00000000 	andeq	r0, r0, r0
 130:	000093f4 	strdeq	r9, [r0], -r4
 134:	00000038 	andeq	r0, r0, r8, lsr r0
	...
 140:	0000001c 	andeq	r0, r0, ip, lsl r0
 144:	2c6f0002 	stclcs	0, cr0, [pc], #-8	; 144 <__code_start__-0x7ebc>
 148:	00040000 	andeq	r0, r4, r0
 14c:	00000000 	andeq	r0, r0, r0
 150:	0000942c 	andeq	r9, r0, ip, lsr #8
 154:	00000044 	andeq	r0, r0, r4, asr #32
	...
 160:	0000001c 	andeq	r0, r0, ip, lsl r0
 164:	2db10002 	ldccs	0, cr0, [r1, #8]!
 168:	00040000 	andeq	r0, r4, r0
 16c:	00000000 	andeq	r0, r0, r0
 170:	00009470 	andeq	r9, r0, r0, ror r4
 174:	00000044 	andeq	r0, r0, r4, asr #32
	...
 180:	0000001c 	andeq	r0, r0, ip, lsl r0
 184:	2ef30002 	cdpcs	0, 15, cr0, cr3, cr2, {0}
 188:	00040000 	andeq	r0, r4, r0
 18c:	00000000 	andeq	r0, r0, r0
 190:	000094b4 			; <UNDEFINED> instruction: 0x000094b4
 194:	00000044 	andeq	r0, r0, r4, asr #32
	...
 1a0:	0000001c 	andeq	r0, r0, ip, lsl r0
 1a4:	30350002 	eorscc	r0, r5, r2
 1a8:	00040000 	andeq	r0, r4, r0
 1ac:	00000000 	andeq	r0, r0, r0
 1b0:	000094f8 	strdeq	r9, [r0], -r8
 1b4:	00000008 	andeq	r0, r0, r8
	...
 1c0:	0000001c 	andeq	r0, r0, ip, lsl r0
 1c4:	30d10002 	sbcscc	r0, r1, r2
 1c8:	00040000 	andeq	r0, r4, r0
 1cc:	00000000 	andeq	r0, r0, r0
 1d0:	00009500 	andeq	r9, r0, r0, lsl #10
 1d4:	0000006c 	andeq	r0, r0, ip, rrx
	...
 1e0:	0000001c 	andeq	r0, r0, ip, lsl r0
 1e4:	32ac0002 	adccc	r0, ip, #2
 1e8:	00040000 	andeq	r0, r4, r0
 1ec:	00000000 	andeq	r0, r0, r0
 1f0:	0000956c 	andeq	r9, r0, ip, ror #10
 1f4:	00000074 	andeq	r0, r0, r4, ror r0
	...
 200:	0000001c 	andeq	r0, r0, ip, lsl r0
 204:	345d0002 	ldrbcc	r0, [sp], #-2
 208:	00040000 	andeq	r0, r4, r0
 20c:	00000000 	andeq	r0, r0, r0
 210:	000095e0 	andeq	r9, r0, r0, ror #11
 214:	00000098 	muleq	r0, r8, r0
	...
 220:	0000001c 	andeq	r0, r0, ip, lsl r0
 224:	36580002 	ldrbcc	r0, [r8], -r2
 228:	00040000 	andeq	r0, r4, r0
 22c:	00000000 	andeq	r0, r0, r0
 230:	000096dc 	ldrdeq	r9, [r0], -ip
 234:	00000178 	andeq	r0, r0, r8, ror r1
	...
 240:	0000001c 	andeq	r0, r0, ip, lsl r0
 244:	43210002 	teqmi	r1, #2
 248:	00040000 	andeq	r0, r4, r0
 24c:	00000000 	andeq	r0, r0, r0
 250:	00009854 	andeq	r9, r0, r4, asr r8
 254:	00000120 	andeq	r0, r0, r0, lsr #2
	...

Disassembly of section .debug_line:

00000000 <.debug_line>:
       0:	0000014d 	andeq	r0, r0, sp, asr #2
       4:	010d0002 	tsteq	sp, r2
       8:	01020000 	mrseq	r0, (UNDEF: 2)
       c:	000d0efb 	strdeq	r0, [sp], -fp
      10:	01010101 	tsteq	r1, r1, lsl #2
      14:	01000000 	mrseq	r0, (UNDEF: 0)
      18:	74010000 	strvc	r0, [r1], #-0
      1c:	73747365 	cmnvc	r4, #-1811939327	; 0x94000001
      20:	2f002e00 	svccs	0x00002e00
      24:	2f727375 	svccs	0x00727375
      28:	61636f6c 	cmnvs	r3, ip, ror #30
      2c:	65432f6c 	strbvs	r2, [r3, #-3948]	; 0xf6c
      30:	72616c6c 	rsbvc	r6, r1, #108, 24	; 0x6c00
      34:	6d72612f 	ldfvse	f6, [r2, #-188]!	; 0xffffff44
      38:	6e6f6e2d 	cdpvs	14, 6, cr6, cr15, cr13, {1}
      3c:	61652d65 	cmnvs	r5, r5, ror #26
      40:	342f6962 	strtcc	r6, [pc], #-2402	; 48 <__code_start__-0x7fb8>
      44:	332e382e 	teqcc	lr, #3014656	; 0x2e0000
      48:	3173632d 	cmncc	r3, sp, lsr #6
      4c:	2f653037 	svccs	0x00653037
      50:	2f62696c 	svccs	0x0062696c
      54:	2f636367 	svccs	0x00636367
      58:	2d6d7261 	sfmcs	f7, 2, [sp, #-388]!	; 0xfffffe7c
      5c:	656e6f6e 	strbvs	r6, [lr, #-3950]!	; 0xf6e
      60:	6261652d 	rsbvs	r6, r1, #188743680	; 0xb400000
      64:	2e342f69 	cdpcs	15, 3, cr2, cr4, cr9, {3}
      68:	2f332e38 	svccs	0x00332e38
      6c:	6c636e69 	stclvs	14, cr6, [r3], #-420	; 0xfffffe5c
      70:	00656475 	rsbeq	r6, r5, r5, ror r4
      74:	6573552f 	ldrbvs	r5, [r3, #-1327]!	; 0x52f
      78:	622f7372 	eorvs	r7, pc, #-939524095	; 0xc8000001
      7c:	6e616972 	mcrvs	9, 3, r6, cr1, cr2, {3}
      80:	2f6e756a 	svccs	0x006e756a
      84:	6b736544 	blvs	1cd959c <__bss_end__+0x1ccf014>
      88:	2f706f74 	svccs	0x00706f74
      8c:	6f686373 	svcvs	0x00686373
      90:	532f6c6f 	teqpl	pc, #28416	; 0x6f00
      94:	6e697270 	mcrvs	2, 3, r7, cr9, cr0, {3}
      98:	32393167 	eorscc	r3, r9, #-1073741799	; 0xc0000019
      9c:	53432f30 	movtpl	r2, #16176	; 0x3f30
      a0:	4c303432 	cfldrsmi	mvf3, [r0], #-200	; 0xffffff38
      a4:	73632f58 	cmnvc	r3, #88, 30	; 0x160
      a8:	6c303432 	cfldrsvs	mvf3, [r0], #-200	; 0xffffff38
      ac:	30322d78 	eorscc	r2, r2, r8, ror sp
      b0:	2f727073 	svccs	0x00727073
      b4:	7062696c 	rsbvc	r6, r2, ip, ror #18
      b8:	6e692f69 	cdpvs	15, 6, cr2, cr9, cr9, {3}
      bc:	64756c63 	ldrbtvs	r6, [r5], #-3171	; 0xc63
      c0:	31000065 	tstcc	r0, r5, rrx
      c4:	61702d36 	cmnvs	r0, r6, lsr sp
      c8:	2d327472 	cfldrscs	mvf7, [r2, #-456]!	; 0xfffffe38
      cc:	74736574 	ldrbtvc	r6, [r3], #-1396	; 0x574
      d0:	00632e32 	rsbeq	r2, r3, r2, lsr lr
      d4:	63000001 	movwvs	r0, #1
      d8:	2d343170 	ldfcss	f3, [r4, #-448]!	; 0xfffffe40
      dc:	75626564 	strbvc	r6, [r2, #-1380]!	; 0x564
      e0:	00682e67 	rsbeq	r2, r8, r7, ror #28
      e4:	63000002 	movwvs	r0, #2
      e8:	6b636568 	blvs	18d9690 <__bss_end__+0x18cf108>
      ec:	746e692d 	strbtvc	r6, [lr], #-2349	; 0x92d
      f0:	656c7265 	strbvs	r7, [ip, #-613]!	; 0x265
      f4:	2e657661 	cdpcs	6, 6, cr7, cr5, cr1, {3}
      f8:	00020068 	andeq	r0, r2, r8, rrx
      fc:	64747300 	ldrbtvs	r7, [r4], #-768	; 0x300
     100:	2d746e69 	ldclcs	14, cr6, [r4, #-420]!	; 0xfffffe5c
     104:	2e636367 	cdpcs	3, 6, cr6, cr3, cr7, {3}
     108:	00030068 	andeq	r0, r3, r8, rrx
     10c:	69707200 	ldmdbvs	r0!, {r9, ip, sp, lr}^
     110:	0400682e 	streq	r6, [r0], #-2094	; 0x82e
     114:	00000000 	andeq	r0, r0, r0
     118:	80200205 	eorhi	r0, r0, r5, lsl #4
     11c:	2f160000 	svccs	0x00160000
     120:	4c012f2f 	stcmi	15, cr2, [r1], {47}	; 0x2f
     124:	192c0213 	stmdbne	ip!, {r0, r1, r4, r9}
     128:	02044ca0 	andeq	r4, r4, #160, 24	; 0xa000
     12c:	2e01ad03 	cdpcs	13, 0, cr10, cr1, cr3, {0}
     130:	d6030104 	strle	r0, [r3], -r4, lsl #2
     134:	834c667e 	movthi	r6, #50814	; 0xc67e
     138:	01040200 	mrseq	r0, R12_usr
     13c:	08066606 	stmdaeq	r6, {r1, r2, r9, sl, sp, lr}
     140:	005b0821 	subseq	r0, fp, r1, lsr #16
     144:	06010402 	streq	r0, [r1], -r2, lsl #8
     148:	21080666 	tstcs	r8, r6, ror #12
     14c:	01001e02 	tsteq	r0, r2, lsl #28
     150:	0001e701 	andeq	lr, r1, r1, lsl #14
     154:	ff000200 			; <UNDEFINED> instruction: 0xff000200
     158:	02000000 	andeq	r0, r0, #0
     15c:	0d0efb01 	vstreq	d15, [lr, #-4]
     160:	01010100 	mrseq	r0, (UNDEF: 17)
     164:	00000001 	andeq	r0, r0, r1
     168:	01000001 	tsteq	r0, r1
     16c:	7273752f 	rsbsvc	r7, r3, #197132288	; 0xbc00000
     170:	636f6c2f 	cmnvs	pc, #12032	; 0x2f00
     174:	432f6c61 	teqmi	pc, #24832	; 0x6100
     178:	616c6c65 	cmnvs	ip, r5, ror #24
     17c:	72612f72 	rsbvc	r2, r1, #456	; 0x1c8
     180:	6f6e2d6d 	svcvs	0x006e2d6d
     184:	652d656e 	strvs	r6, [sp, #-1390]!	; 0x56e
     188:	2f696261 	svccs	0x00696261
     18c:	2e382e34 	mrccs	14, 1, r2, cr8, cr4, {1}
     190:	73632d33 	cmnvc	r3, #3264	; 0xcc0
     194:	65303731 	ldrvs	r3, [r0, #-1841]!	; 0x731
     198:	62696c2f 	rsbvs	r6, r9, #12032	; 0x2f00
     19c:	6363672f 	cmnvs	r3, #12320768	; 0xbc0000
     1a0:	6d72612f 	ldfvse	f6, [r2, #-188]!	; 0xffffff44
     1a4:	6e6f6e2d 	cdpvs	14, 6, cr6, cr15, cr13, {1}
     1a8:	61652d65 	cmnvs	r5, r5, ror #26
     1ac:	342f6962 	strtcc	r6, [pc], #-2402	; 1b4 <__code_start__-0x7e4c>
     1b0:	332e382e 	teqcc	lr, #3014656	; 0x2e0000
     1b4:	636e692f 	cmnvs	lr, #770048	; 0xbc000
     1b8:	6564756c 	strbvs	r7, [r4, #-1388]!	; 0x56c
     1bc:	73552f00 	cmpvc	r5, #0, 30
     1c0:	2f737265 	svccs	0x00737265
     1c4:	61697262 	cmnvs	r9, r2, ror #4
     1c8:	6e756a6e 	vsubvs.f32	s13, s10, s29
     1cc:	7365442f 	cmnvc	r5, #788529152	; 0x2f000000
     1d0:	706f746b 	rsbvc	r7, pc, fp, ror #8
     1d4:	6863732f 	stmdavs	r3!, {r0, r1, r2, r3, r5, r8, r9, ip, sp, lr}^
     1d8:	2f6c6f6f 	svccs	0x006c6f6f
     1dc:	69727053 	ldmdbvs	r2!, {r0, r1, r4, r6, ip, sp, lr}^
     1e0:	3931676e 	ldmdbcc	r1!, {r1, r2, r3, r5, r6, r8, r9, sl, sp, lr}
     1e4:	432f3032 	teqmi	pc, #50	; 0x32
     1e8:	30343253 	eorscc	r3, r4, r3, asr r2
     1ec:	632f584c 	teqvs	pc, #76, 16	; 0x4c0000
     1f0:	30343273 	eorscc	r3, r4, r3, ror r2
     1f4:	322d786c 	eorcc	r7, sp, #108, 16	; 0x6c0000
     1f8:	72707330 	rsbsvc	r7, r0, #48, 6	; 0xc0000000
     1fc:	62696c2f 	rsbvs	r6, r9, #12032	; 0x2f00
     200:	692f6970 	stmdbvs	pc!, {r4, r5, r6, r8, fp, sp, lr}	; <UNPREDICTABLE>
     204:	756c636e 	strbvc	r6, [ip, #-878]!	; 0x36e
     208:	00006564 	andeq	r6, r0, r4, ror #10
     20c:	34317063 	ldrtcc	r7, [r1], #-99	; 0x63
     210:	6265642d 	rsbvs	r6, r5, #754974720	; 0x2d000000
     214:	632e6775 	teqvs	lr, #30670848	; 0x1d40000
     218:	00000000 	andeq	r0, r0, r0
     21c:	34317063 	ldrtcc	r7, [r1], #-99	; 0x63
     220:	6265642d 	rsbvs	r6, r5, #754974720	; 0x2d000000
     224:	682e6775 	stmdavs	lr!, {r0, r2, r4, r5, r6, r8, r9, sl, sp, lr}
     228:	00000000 	andeq	r0, r0, r0
     22c:	69647473 	stmdbvs	r4!, {r0, r1, r4, r5, r6, sl, ip, sp, lr}^
     230:	672d746e 	strvs	r7, [sp, -lr, ror #8]!
     234:	682e6363 	stmdavs	lr!, {r0, r1, r5, r6, r8, r9, sp, lr}
     238:	00000100 	andeq	r0, r0, r0, lsl #2
     23c:	2e697072 	mcrcs	0, 3, r7, cr9, cr2, {3}
     240:	00020068 	andeq	r0, r2, r8, rrx
     244:	69707200 	ldmdbvs	r0!, {r9, ip, sp, lr}^
     248:	746e692d 	strbtvc	r6, [lr], #-2349	; 0x92d
     24c:	75727265 	ldrbvc	r7, [r2, #-613]!	; 0x265
     250:	2e737470 	mrccs	4, 3, r7, cr3, cr0, {3}
     254:	00020068 	andeq	r0, r2, r8, rrx
     258:	05000000 	streq	r0, [r0, #-0]
     25c:	00819802 	addeq	r9, r1, r2, lsl #16
     260:	01350300 	teqeq	r5, r0, lsl #6
     264:	034a6203 	movteq	r6, #41475	; 0xa203
     268:	62032e24 	andvs	r2, r3, #36, 28	; 0x240
     26c:	2e7a032e 	cdpcs	3, 7, cr0, cr10, cr14, {1}
     270:	002e2903 	eoreq	r2, lr, r3, lsl #18
     274:	06010402 	streq	r0, [r1], -r2, lsl #8
     278:	6503064a 	strvs	r0, [r3, #-1610]	; 0x64a
     27c:	78032008 	stmdavc	r3, {r3, sp}
     280:	4a7a032e 	bmi	1e80f40 <__bss_end__+0x1e769b8>
     284:	002e3a03 	eoreq	r3, lr, r3, lsl #20
     288:	06010402 	streq	r0, [r1], -r2, lsl #8
     28c:	bb03064a 	bllt	c1bbc <__bss_end__+0xb7634>
     290:	0320087f 	teqeq	r0, #8323072	; 0x7f0000
     294:	4b4a00c8 	blmi	12805bc <__bss_end__+0x1276034>
     298:	6c0204f5 	cfstrsvs	mvf0, [r2], {245}	; 0xf5
     29c:	344a1303 	strbcc	r1, [sl], #-771	; 0x303
     2a0:	d65d034b 	ldrble	r0, [sp], -fp, asr #6
     2a4:	11030104 	tstne	r3, r4, lsl #2
     2a8:	0402002e 	streq	r0, [r2], #-46	; 0x2e
     2ac:	06660601 	strbteq	r0, [r6], -r1, lsl #12
     2b0:	02002208 	andeq	r2, r0, #8, 4	; 0x80000000
     2b4:	82060104 	andhi	r0, r6, #4, 2
     2b8:	03060204 	movweq	r0, #25092	; 0x6204
     2bc:	0420087a 	strteq	r0, [r0], #-2170	; 0x87a
     2c0:	2e0c0301 	cdpcs	3, 0, cr0, cr12, cr1, {0}
     2c4:	315a084b 	cmpcc	sl, fp, asr #16
     2c8:	bb032f83 	bllt	cc0dc <__bss_end__+0xc1b54>
     2cc:	5b03667f 	blpl	d9cd0 <__bss_end__+0xcf748>
     2d0:	019b034a 	orrseq	r0, fp, sl, asr #6
     2d4:	01650382 	smulbbeq	r5, r2, r3
     2d8:	032e1f03 	teqeq	lr, #3, 30
     2dc:	302c2e62 	eorcc	r2, ip, r2, ror #28
     2e0:	4a7eff03 	bmi	1fbfef4 <__bss_end__+0x1fb596c>
     2e4:	4a01b303 	bmi	6cef8 <__bss_end__+0x62970>
     2e8:	030204a2 	movweq	r0, #9378	; 0x24a2
     2ec:	04336662 	ldrteq	r6, [r3], #-1634	; 0x662
     2f0:	2e1b0301 	cdpcs	3, 1, cr0, cr11, cr1, {0}
     2f4:	0200d74b 	andeq	sp, r0, #19660800	; 0x12c0000
     2f8:	82060104 	andhi	r0, r6, #4, 2
     2fc:	03060204 	movweq	r0, #25092	; 0x6204
     300:	0420084f 	strteq	r0, [r0], #-2127	; 0x84f
     304:	2e330301 	cdpcs	3, 3, cr0, cr3, cr1, {0}
     308:	0b03f44b 	bleq	fd43c <__bss_end__+0xf2eb4>
     30c:	082f012e 	stmdaeq	pc!, {r1, r2, r3, r5, r8}	; <UNPREDICTABLE>
     310:	7fb1033f 	svcvc	0x00b1033f
     314:	00d30301 	sbcseq	r0, r3, r1, lsl #6
     318:	7fae032e 	svcvc	0x00ae032e
     31c:	03302c2e 	teqeq	r0, #11776	; 0x2e00
     320:	034a7eff 	movteq	r7, #44799	; 0xaeff
     324:	a24a01e7 	subge	r0, sl, #-1073741767	; 0xc0000039
     328:	017f9603 	cmneq	pc, r3, lsl #12
     32c:	8200fb03 	andhi	pc, r0, #3072	; 0xc00
     330:	4b4b4b31 	blmi	12d2ffc <__bss_end__+0x12c8a74>
     334:	026a684b 	rsbeq	r6, sl, #4915200	; 0x4b0000
     338:	01010008 	tsteq	r1, r8
     33c:	00000263 	andeq	r0, r0, r3, ror #4
     340:	013b0002 	teqeq	fp, r2
     344:	01020000 	mrseq	r0, (UNDEF: 2)
     348:	000d0efb 	strdeq	r0, [sp], -fp
     34c:	01010101 	tsteq	r1, r1, lsl #2
     350:	01000000 	mrseq	r0, (UNDEF: 0)
     354:	2f010000 	svccs	0x00010000
     358:	72657355 	rsbvc	r7, r5, #1409286145	; 0x54000001
     35c:	72622f73 	rsbvc	r2, r2, #460	; 0x1cc
     360:	6a6e6169 	bvs	1b9890c <__bss_end__+0x1b8e384>
     364:	442f6e75 	strtmi	r6, [pc], #-3701	; 36c <__code_start__-0x7c94>
     368:	746b7365 	strbtvc	r7, [fp], #-869	; 0x365
     36c:	732f706f 	teqvc	pc, #111	; 0x6f
     370:	6f6f6863 	svcvs	0x006f6863
     374:	70532f6c 	subsvc	r2, r3, ip, ror #30
     378:	676e6972 			; <UNDEFINED> instruction: 0x676e6972
     37c:	30323931 	eorscc	r3, r2, r1, lsr r9
     380:	3253432f 	subscc	r4, r3, #-1140850688	; 0xbc000000
     384:	584c3034 	stmdapl	ip, {r2, r4, r5, ip, sp}^
     388:	3273632f 	rsbscc	r6, r3, #-1140850688	; 0xbc000000
     38c:	786c3034 	stmdavc	ip!, {r2, r4, r5, ip, sp}^
     390:	7330322d 	teqvc	r0, #-805306366	; 0xd0000002
     394:	6c2f7270 	sfmvs	f7, 4, [pc], #-448	; 1dc <__code_start__-0x7e24>
     398:	69706269 	ldmdbvs	r0!, {r0, r3, r5, r6, r9, sp, lr}^
     39c:	636e692f 	cmnvs	lr, #770048	; 0xbc000
     3a0:	6564756c 	strbvs	r7, [r4, #-1388]!	; 0x56c
     3a4:	73752f00 	cmnvc	r5, #0, 30
     3a8:	6f6c2f72 	svcvs	0x006c2f72
     3ac:	2f6c6163 	svccs	0x006c6163
     3b0:	6c6c6543 	cfstr64vs	mvdx6, [ip], #-268	; 0xfffffef4
     3b4:	612f7261 	teqvs	pc, r1, ror #4
     3b8:	6e2d6d72 	mcrvs	13, 1, r6, cr13, cr2, {3}
     3bc:	2d656e6f 	stclcs	14, cr6, [r5, #-444]!	; 0xfffffe44
     3c0:	69626165 	stmdbvs	r2!, {r0, r2, r5, r6, r8, sp, lr}^
     3c4:	382e342f 	stmdacc	lr!, {r0, r1, r2, r3, r5, sl, ip, sp}
     3c8:	632d332e 	teqvs	sp, #-1207959552	; 0xb8000000
     3cc:	30373173 	eorscc	r3, r7, r3, ror r1
     3d0:	696c2f65 	stmdbvs	ip!, {r0, r2, r5, r6, r8, r9, sl, fp, sp}^
     3d4:	63672f62 	cmnvs	r7, #392	; 0x188
     3d8:	72612f63 	rsbvc	r2, r1, #396	; 0x18c
     3dc:	6f6e2d6d 	svcvs	0x006e2d6d
     3e0:	652d656e 	strvs	r6, [sp, #-1390]!	; 0x56e
     3e4:	2f696261 	svccs	0x00696261
     3e8:	2e382e34 	mrccs	14, 1, r2, cr8, cr4, {1}
     3ec:	6e692f33 	mcrvs	15, 3, r2, cr9, cr3, {1}
     3f0:	64756c63 	ldrbtvs	r6, [r5], #-3171	; 0xc63
     3f4:	63000065 	movwvs	r0, #101	; 0x65
     3f8:	6b636568 	blvs	18d99a0 <__bss_end__+0x18cf418>
     3fc:	746e692d 	strbtvc	r6, [lr], #-2349	; 0x92d
     400:	656c7265 	strbvs	r7, [ip, #-613]!	; 0x265
     404:	2e657661 	cdpcs	6, 6, cr7, cr5, cr1, {3}
     408:	00000063 	andeq	r0, r0, r3, rrx
     40c:	31706300 	cmncc	r0, r0, lsl #6
     410:	65642d34 	strbvs	r2, [r4, #-3380]!	; 0xd34
     414:	2e677562 	cdpcs	5, 6, cr7, cr7, cr2, {3}
     418:	00000068 	andeq	r0, r0, r8, rrx
     41c:	69707200 	ldmdbvs	r0!, {r9, ip, sp, lr}^
     420:	746e692d 	strbtvc	r6, [lr], #-2349	; 0x92d
     424:	75727265 	ldrbvc	r7, [r2, #-613]!	; 0x265
     428:	2e737470 	mrccs	4, 3, r7, cr3, cr0, {3}
     42c:	00010068 	andeq	r0, r1, r8, rrx
     430:	74696200 	strbtvc	r6, [r9], #-512	; 0x200
     434:	7075732d 	rsbsvc	r7, r5, sp, lsr #6
     438:	74726f70 	ldrbtvc	r6, [r2], #-3952	; 0xf70
     43c:	0000682e 	andeq	r6, r0, lr, lsr #16
     440:	70630000 	rsbvc	r0, r3, r0
     444:	752d7273 	strvc	r7, [sp, #-627]!	; 0x273
     448:	2e6c6974 	mcrcs	9, 3, r6, cr12, cr4, {3}
     44c:	00000068 	andeq	r0, r0, r8, rrx
     450:	64747300 	ldrbtvs	r7, [r4], #-768	; 0x300
     454:	2d746e69 	ldclcs	14, cr6, [r4, #-420]!	; 0xfffffe5c
     458:	2e636367 	cdpcs	3, 6, cr6, cr3, cr7, {3}
     45c:	00020068 	andeq	r0, r2, r8, rrx
     460:	65686300 	strbvs	r6, [r8, #-768]!	; 0x300
     464:	692d6b63 	pushvs	{r0, r1, r5, r6, r8, r9, fp, sp, lr}
     468:	7265746e 	rsbvc	r7, r5, #1845493760	; 0x6e000000
     46c:	7661656c 	strbtvc	r6, [r1], -ip, ror #10
     470:	00682e65 	rsbeq	r2, r8, r5, ror #28
     474:	72000000 	andvc	r0, r0, #0
     478:	682e6970 	stmdavs	lr!, {r4, r5, r6, r8, fp, sp, lr}
     47c:	00000100 	andeq	r0, r0, r0, lsl #2
     480:	02050000 	andeq	r0, r5, #0
     484:	00008610 	andeq	r8, r0, r0, lsl r6
     488:	67010a03 	strvs	r0, [r1, -r3, lsl #20]
     48c:	01040200 	mrseq	r0, R12_usr
     490:	02048206 	andeq	r8, r4, #1610612736	; 0x60000000
     494:	019a0306 	orrseq	r0, sl, r6, lsl #6
     498:	010433ba 			; <UNDEFINED> instruction: 0x010433ba
     49c:	2e7ee203 	cdpcs	2, 7, cr14, cr14, cr3, {0}
     4a0:	834dd84b 	movthi	sp, #55371	; 0xd84b
     4a4:	4b2f4b87 	blmi	bd32c8 <__bss_end__+0xbc8d40>
     4a8:	00686867 	rsbeq	r6, r8, r7, ror #16
     4ac:	06010402 	streq	r0, [r1], -r2, lsl #8
     4b0:	21080682 	smlabbcs	r8, r2, r6, r0
     4b4:	04020068 	streq	r0, [r2], #-104	; 0x68
     4b8:	06820601 	streq	r0, [r2], r1, lsl #12
     4bc:	020067bb 	andeq	r6, r0, #49020928	; 0x2ec0000
     4c0:	82060104 	andhi	r0, r6, #4, 2
     4c4:	ca08bc06 	bgt	22f4e4 <__bss_end__+0x224f5c>
     4c8:	04640304 	strbteq	r0, [r4], #-772	; 0x304
     4cc:	05043104 	streq	r3, [r4, #-260]	; 0x104
     4d0:	042e6b03 	strteq	r6, [lr], #-2819	; 0xb03
     4d4:	2e180301 	cdpcs	3, 1, cr0, cr8, cr1, {0}
     4d8:	2a844e4b 	bcs	fe113e0c <__bss_end__+0xfe109884>
     4dc:	04020068 	streq	r0, [r2], #-104	; 0x68
     4e0:	06660601 	strbteq	r0, [r6], -r1, lsl #12
     4e4:	4b676ad8 	blmi	19db04c <__bss_end__+0x19d0ac4>
     4e8:	849f8431 	ldrhi	r8, [pc], #1073	; 4f0 <__code_start__-0x7b10>
     4ec:	04686869 	strbteq	r6, [r8], #-2153	; 0x869
     4f0:	82560304 	subshi	r0, r6, #4, 6	; 0x10000000
     4f4:	6c030504 	cfstr32vs	mvfx0, [r3], {4}
     4f8:	0867652e 	stmdaeq	r7!, {r1, r2, r3, r5, r8, sl, sp, lr}^
     4fc:	02600825 	rsbeq	r0, r0, #2424832	; 0x250000
     500:	4b4b1528 	blmi	12c59a8 <__bss_end__+0x12bb420>
     504:	034b4b4b 	movteq	r4, #47947	; 0xbb4b
     508:	044bf279 	strbeq	pc, [fp], #-633	; 0x279	; <UNPREDICTABLE>
     50c:	2e330301 	cdpcs	3, 3, cr0, cr3, cr1, {0}
     510:	5a030304 	bpl	c1128 <__bss_end__+0xb6ba0>
     514:	03040466 	movweq	r0, #17510	; 0x4466
     518:	05042e78 	streq	r2, [r4, #-3704]	; 0xe78
     51c:	652e6c03 	strvs	r6, [lr, #-3075]!	; 0xc03
     520:	08250867 	stmdaeq	r5!, {r0, r1, r2, r5, r6, fp}
     524:	15280260 	strne	r0, [r8, #-608]!	; 0x260
     528:	4b4b4b4b 	blmi	12d325c <__bss_end__+0x12c8cd4>
     52c:	f279034b 	vcgt.s<illegal width 64>	q8, <illegal reg q4.5>, <illegal reg q5.5>
     530:	0303044b 	movweq	r0, #13387	; 0x344b
     534:	01042e0d 	tsteq	r4, sp, lsl #28
     538:	4c2e2703 	stcmi	7, cr2, [lr], #-12
     53c:	4f030404 	svcmi	0x00030404
     540:	0305044a 	movweq	r0, #21578	; 0x544a
     544:	67652e6c 	strbvs	r2, [r5, -ip, ror #28]!
     548:	03042508 	movweq	r2, #17672	; 0x4508
     54c:	58081703 	stmdapl	r8, {r0, r1, r8, r9, sl, ip}
     550:	78030404 	stmdavc	r3, {r2, sl}
     554:	0305042e 	movweq	r0, #21550	; 0x542e
     558:	67652e6c 	strbvs	r2, [r5, -ip, ror #28]!
     55c:	01042508 	tsteq	r4, r8, lsl #10
     560:	0800c203 	stmdaeq	r0, {r0, r1, r9, lr, pc}
     564:	04020058 	streq	r0, [r2], #-88	; 0x58
     568:	064a0601 	strbeq	r0, [sl], -r1, lsl #12
     56c:	2f4c2408 	svccs	0x004c2408
     570:	4d173a02 	vldrmi	s6, [r7, #-8]
     574:	6767684b 	strbvs	r6, [r7, -fp, asr #16]!
     578:	d67a039f 			; <UNDEFINED> instruction: 0xd67a039f
     57c:	01040200 	mrseq	r0, R12_usr
     580:	03062e06 	movweq	r2, #28166	; 0x6e06
     584:	1aa14a12 	bne	fe852dd4 <__bss_end__+0xfe84884c>
     588:	2d2d2d49 	stccs	13, cr2, [sp, #-292]!	; 0xfffffedc
     58c:	032d2d2d 	teqeq	sp, #2880	; 0xb40
     590:	2f4b4a0a 	svccs	0x004b4a0a
     594:	0402004b 	streq	r0, [r2], #-75	; 0x4b
     598:	82820601 	addhi	r0, r2, #1048576	; 0x100000
     59c:	02029f06 	andeq	r9, r2, #6, 30
     5a0:	0c010100 	stfeqs	f0, [r1], {-0}
     5a4:	02000001 	andeq	r0, r0, #1
     5a8:	0000f500 	andeq	pc, r0, r0, lsl #10
     5ac:	fb010200 	blx	40db6 <__bss_end__+0x3682e>
     5b0:	01000d0e 	tsteq	r0, lr, lsl #26
     5b4:	00010101 	andeq	r0, r1, r1, lsl #2
     5b8:	00010000 	andeq	r0, r1, r0
     5bc:	696c0100 	stmdbvs	ip!, {r8}^
     5c0:	2f006362 	svccs	0x00006362
     5c4:	2f727375 	svccs	0x00727375
     5c8:	61636f6c 	cmnvs	r3, ip, ror #30
     5cc:	65432f6c 	strbvs	r2, [r3, #-3948]	; 0xf6c
     5d0:	72616c6c 	rsbvc	r6, r1, #108, 24	; 0x6c00
     5d4:	6d72612f 	ldfvse	f6, [r2, #-188]!	; 0xffffff44
     5d8:	6e6f6e2d 	cdpvs	14, 6, cr6, cr15, cr13, {1}
     5dc:	61652d65 	cmnvs	r5, r5, ror #26
     5e0:	342f6962 	strtcc	r6, [pc], #-2402	; 5e8 <__code_start__-0x7a18>
     5e4:	332e382e 	teqcc	lr, #3014656	; 0x2e0000
     5e8:	3173632d 	cmncc	r3, sp, lsr #6
     5ec:	2f653037 	svccs	0x00653037
     5f0:	2f62696c 	svccs	0x0062696c
     5f4:	2f636367 	svccs	0x00636367
     5f8:	2d6d7261 	sfmcs	f7, 2, [sp, #-388]!	; 0xfffffe7c
     5fc:	656e6f6e 	strbvs	r6, [lr, #-3950]!	; 0xf6e
     600:	6261652d 	rsbvs	r6, r1, #188743680	; 0xb400000
     604:	2e342f69 	cdpcs	15, 3, cr2, cr4, cr9, {3}
     608:	2f332e38 	svccs	0x00332e38
     60c:	6c636e69 	stclvs	14, cr6, [r3], #-420	; 0xfffffe5c
     610:	00656475 	rsbeq	r6, r5, r5, ror r4
     614:	6573552f 	ldrbvs	r5, [r3, #-1327]!	; 0x52f
     618:	622f7372 	eorvs	r7, pc, #-939524095	; 0xc8000001
     61c:	6e616972 	mcrvs	9, 3, r6, cr1, cr2, {3}
     620:	2f6e756a 	svccs	0x006e756a
     624:	6b736544 	blvs	1cd9b3c <__bss_end__+0x1ccf5b4>
     628:	2f706f74 	svccs	0x00706f74
     62c:	6f686373 	svcvs	0x00686373
     630:	532f6c6f 	teqpl	pc, #28416	; 0x6f00
     634:	6e697270 	mcrvs	2, 3, r7, cr9, cr0, {3}
     638:	32393167 	eorscc	r3, r9, #-1073741799	; 0xc0000019
     63c:	53432f30 	movtpl	r2, #16176	; 0x3f30
     640:	4c303432 	cfldrsmi	mvf3, [r0], #-200	; 0xffffff38
     644:	73632f58 	cmnvc	r3, #88, 30	; 0x160
     648:	6c303432 	cfldrsvs	mvf3, [r0], #-200	; 0xffffff38
     64c:	30322d78 	eorscc	r2, r2, r8, ror sp
     650:	2f727073 	svccs	0x00727073
     654:	7062696c 	rsbvc	r6, r2, ip, ror #18
     658:	6e692f69 	cdpvs	15, 6, cr2, cr9, cr9, {3}
     65c:	64756c63 	ldrbtvs	r6, [r5], #-3171	; 0xc63
     660:	70000065 	andvc	r0, r0, r5, rrx
     664:	746e6972 	strbtvc	r6, [lr], #-2418	; 0x972
     668:	00632e6b 	rsbeq	r2, r3, fp, ror #28
     66c:	73000001 	movwvc	r0, #1
     670:	72616474 	rsbvc	r6, r1, #116, 8	; 0x74000000
     674:	00682e67 	rsbeq	r2, r8, r7, ror #28
     678:	3c000002 	stccc	0, cr0, [r0], {2}
     67c:	6c697562 	cfstr64vs	mvdx7, [r9], #-392	; 0xfffffe78
     680:	6e692d74 	mcrvs	13, 3, r2, cr9, cr4, {3}
     684:	0000003e 	andeq	r0, r0, lr, lsr r0
     688:	69707200 	ldmdbvs	r0!, {r9, ip, sp, lr}^
     68c:	0300682e 	movweq	r6, #2094	; 0x82e
     690:	61760000 	cmnvs	r6, r0
     694:	6972702d 	ldmdbvs	r2!, {r0, r2, r3, r5, ip, sp, lr}^
     698:	2e6b746e 	cdpcs	4, 6, cr7, cr11, cr14, {3}
     69c:	00010068 	andeq	r0, r1, r8, rrx
     6a0:	05000000 	streq	r0, [r0, #-0]
     6a4:	008d6802 	addeq	r6, sp, r2, lsl #16
     6a8:	4b6b1700 	blmi	1ac62b0 <__bss_end__+0x1abbd28>
     6ac:	0e0289bf 	mcreq	9, 0, r8, cr2, cr15, {5}
     6b0:	94010100 	strls	r0, [r1], #-256	; 0x100
     6b4:	02000000 	andeq	r0, r0, #0
     6b8:	00007c00 	andeq	r7, r0, r0, lsl #24
     6bc:	fb010200 	blx	40ec6 <__bss_end__+0x3693e>
     6c0:	01000d0e 	tsteq	r0, lr, lsl #26
     6c4:	00010101 	andeq	r0, r1, r1, lsl #2
     6c8:	00010000 	andeq	r0, r1, r0
     6cc:	696c0100 	stmdbvs	ip!, {r8}^
     6d0:	2f006362 	svccs	0x00006362
     6d4:	72657355 	rsbvc	r7, r5, #1409286145	; 0x54000001
     6d8:	72622f73 	rsbvc	r2, r2, #460	; 0x1cc
     6dc:	6a6e6169 	bvs	1b98c88 <__bss_end__+0x1b8e700>
     6e0:	442f6e75 	strtmi	r6, [pc], #-3701	; 6e8 <__code_start__-0x7918>
     6e4:	746b7365 	strbtvc	r7, [fp], #-869	; 0x365
     6e8:	732f706f 	teqvc	pc, #111	; 0x6f
     6ec:	6f6f6863 	svcvs	0x006f6863
     6f0:	70532f6c 	subsvc	r2, r3, ip, ror #30
     6f4:	676e6972 			; <UNDEFINED> instruction: 0x676e6972
     6f8:	30323931 	eorscc	r3, r2, r1, lsr r9
     6fc:	3253432f 	subscc	r4, r3, #-1140850688	; 0xbc000000
     700:	584c3034 	stmdapl	ip, {r2, r4, r5, ip, sp}^
     704:	3273632f 	rsbscc	r6, r3, #-1140850688	; 0xbc000000
     708:	786c3034 	stmdavc	ip!, {r2, r4, r5, ip, sp}^
     70c:	7330322d 	teqvc	r0, #-805306366	; 0xd0000002
     710:	6c2f7270 	sfmvs	f7, 4, [pc], #-448	; 558 <__code_start__-0x7aa8>
     714:	69706269 	ldmdbvs	r0!, {r0, r3, r5, r6, r9, sp, lr}^
     718:	636e692f 	cmnvs	lr, #770048	; 0xbc000
     71c:	6564756c 	strbvs	r7, [r4, #-1388]!	; 0x56c
     720:	75700000 	ldrbvc	r0, [r0, #-0]!
     724:	61686374 	smcvs	34356	; 0x8634
     728:	00632e72 	rsbeq	r2, r3, r2, ror lr
     72c:	72000001 	andvc	r0, r0, #1
     730:	682e6970 	stmdavs	lr!, {r4, r5, r6, r8, fp, sp, lr}
     734:	00000200 	andeq	r0, r0, r0, lsl #4
     738:	02050000 	andeq	r0, r5, #0
     73c:	00008dc0 	andeq	r8, r0, r0, asr #27
     740:	136b4a14 	cmnne	fp, #20, 20	; 0x14000
     744:	080213bc 	stmdaeq	r2, {r2, r3, r4, r5, r7, r8, r9, ip}
     748:	a0010100 	andge	r0, r1, r0, lsl #2
     74c:	02000000 	andeq	r0, r0, #0
     750:	00007900 	andeq	r7, r0, r0, lsl #18
     754:	fb010200 	blx	40f5e <__bss_end__+0x369d6>
     758:	01000d0e 	tsteq	r0, lr, lsl #26
     75c:	00010101 	andeq	r0, r1, r1, lsl #2
     760:	00010000 	andeq	r0, r1, r0
     764:	696c0100 	stmdbvs	ip!, {r8}^
     768:	2f006362 	svccs	0x00006362
     76c:	72657355 	rsbvc	r7, r5, #1409286145	; 0x54000001
     770:	72622f73 	rsbvc	r2, r2, #460	; 0x1cc
     774:	6a6e6169 	bvs	1b98d20 <__bss_end__+0x1b8e798>
     778:	442f6e75 	strtmi	r6, [pc], #-3701	; 780 <__code_start__-0x7880>
     77c:	746b7365 	strbtvc	r7, [fp], #-869	; 0x365
     780:	732f706f 	teqvc	pc, #111	; 0x6f
     784:	6f6f6863 	svcvs	0x006f6863
     788:	70532f6c 	subsvc	r2, r3, ip, ror #30
     78c:	676e6972 			; <UNDEFINED> instruction: 0x676e6972
     790:	30323931 	eorscc	r3, r2, r1, lsr r9
     794:	3253432f 	subscc	r4, r3, #-1140850688	; 0xbc000000
     798:	584c3034 	stmdapl	ip, {r2, r4, r5, ip, sp}^
     79c:	3273632f 	rsbscc	r6, r3, #-1140850688	; 0xbc000000
     7a0:	786c3034 	stmdavc	ip!, {r2, r4, r5, ip, sp}^
     7a4:	7330322d 	teqvc	r0, #-805306366	; 0xd0000002
     7a8:	6c2f7270 	sfmvs	f7, 4, [pc], #-448	; 5f0 <__code_start__-0x7a10>
     7ac:	69706269 	ldmdbvs	r0!, {r0, r3, r5, r6, r9, sp, lr}^
     7b0:	636e692f 	cmnvs	lr, #770048	; 0xbc000
     7b4:	6564756c 	strbvs	r7, [r4, #-1388]!	; 0x56c
     7b8:	75700000 	ldrbvc	r0, [r0, #-0]!
     7bc:	632e6b74 	teqvs	lr, #116, 22	; 0x1d000
     7c0:	00000100 	andeq	r0, r0, r0, lsl #2
     7c4:	2e697072 	mcrcs	0, 3, r7, cr9, cr2, {3}
     7c8:	00020068 	andeq	r0, r2, r8, rrx
     7cc:	05000000 	streq	r0, [r0, #-0]
     7d0:	008dfc02 	addeq	pc, sp, r2, lsl #24
     7d4:	2d4c1500 	cfstr64cs	mvdx1, [ip, #-0]
     7d8:	02040200 	andeq	r0, r4, #0, 4
     7dc:	0402002f 	streq	r0, [r2], #-47	; 0x2f
     7e0:	02004902 	andeq	r4, r0, #32768	; 0x8000
     7e4:	2e060104 	adfcss	f0, f6, f4
     7e8:	06026b06 	streq	r6, [r2], -r6, lsl #22
     7ec:	f1010100 	setend	le
     7f0:	02000001 	andeq	r0, r0, #1
     7f4:	0000e900 	andeq	lr, r0, r0, lsl #18
     7f8:	fb010200 	blx	41002 <__bss_end__+0x36a7a>
     7fc:	01000d0e 	tsteq	r0, lr, lsl #26
     800:	00010101 	andeq	r0, r1, r1, lsl #2
     804:	00010000 	andeq	r0, r1, r0
     808:	696c0100 	stmdbvs	ip!, {r8}^
     80c:	2f006362 	svccs	0x00006362
     810:	2f727375 	svccs	0x00727375
     814:	61636f6c 	cmnvs	r3, ip, ror #30
     818:	65432f6c 	strbvs	r2, [r3, #-3948]	; 0xf6c
     81c:	72616c6c 	rsbvc	r6, r1, #108, 24	; 0x6c00
     820:	6d72612f 	ldfvse	f6, [r2, #-188]!	; 0xffffff44
     824:	6e6f6e2d 	cdpvs	14, 6, cr6, cr15, cr13, {1}
     828:	61652d65 	cmnvs	r5, r5, ror #26
     82c:	342f6962 	strtcc	r6, [pc], #-2402	; 834 <__code_start__-0x77cc>
     830:	332e382e 	teqcc	lr, #3014656	; 0x2e0000
     834:	3173632d 	cmncc	r3, sp, lsr #6
     838:	2f653037 	svccs	0x00653037
     83c:	2f62696c 	svccs	0x0062696c
     840:	2f636367 	svccs	0x00636367
     844:	2d6d7261 	sfmcs	f7, 2, [sp, #-388]!	; 0xfffffe7c
     848:	656e6f6e 	strbvs	r6, [lr, #-3950]!	; 0xf6e
     84c:	6261652d 	rsbvs	r6, r1, #188743680	; 0xb400000
     850:	2e342f69 	cdpcs	15, 3, cr2, cr4, cr9, {3}
     854:	2f332e38 	svccs	0x00332e38
     858:	6c636e69 	stclvs	14, cr6, [r3], #-420	; 0xfffffe5c
     85c:	00656475 	rsbeq	r6, r5, r5, ror r4
     860:	6573552f 	ldrbvs	r5, [r3, #-1327]!	; 0x52f
     864:	622f7372 	eorvs	r7, pc, #-939524095	; 0xc8000001
     868:	6e616972 	mcrvs	9, 3, r6, cr1, cr2, {3}
     86c:	2f6e756a 	svccs	0x006e756a
     870:	6b736544 	blvs	1cd9d88 <__bss_end__+0x1ccf800>
     874:	2f706f74 	svccs	0x00706f74
     878:	6f686373 	svcvs	0x00686373
     87c:	532f6c6f 	teqpl	pc, #28416	; 0x6f00
     880:	6e697270 	mcrvs	2, 3, r7, cr9, cr0, {3}
     884:	32393167 	eorscc	r3, r9, #-1073741799	; 0xc0000019
     888:	53432f30 	movtpl	r2, #16176	; 0x3f30
     88c:	4c303432 	cfldrsmi	mvf3, [r0], #-200	; 0xffffff38
     890:	73632f58 	cmnvc	r3, #88, 30	; 0x160
     894:	6c303432 	cfldrsvs	mvf3, [r0], #-200	; 0xffffff38
     898:	30322d78 	eorscc	r2, r2, r8, ror sp
     89c:	2f727073 	svccs	0x00727073
     8a0:	7062696c 	rsbvc	r6, r2, ip, ror #18
     8a4:	6e692f69 	cdpvs	15, 6, cr2, cr9, cr9, {3}
     8a8:	64756c63 	ldrbtvs	r6, [r5], #-3171	; 0xc63
     8ac:	76000065 	strvc	r0, [r0], -r5, rrx
     8b0:	72702d61 	rsbsvc	r2, r0, #6208	; 0x1840
     8b4:	6b746e69 	blvs	1d1c260 <__bss_end__+0x1d11cd8>
     8b8:	0100632e 	tsteq	r0, lr, lsr #6
     8bc:	74730000 	ldrbtvc	r0, [r3], #-0
     8c0:	67726164 	ldrbvs	r6, [r2, -r4, ror #2]!
     8c4:	0200682e 	andeq	r6, r0, #3014656	; 0x2e0000
     8c8:	70720000 	rsbsvc	r0, r2, r0
     8cc:	00682e69 	rsbeq	r2, r8, r9, ror #28
     8d0:	3c000003 	stccc	0, cr0, [r0], {3}
     8d4:	6c697562 	cfstr64vs	mvdx7, [r9], #-392	; 0xfffffe78
     8d8:	6e692d74 	mcrvs	13, 3, r2, cr9, cr4, {3}
     8dc:	0000003e 	andeq	r0, r0, lr, lsr r0
     8e0:	05000000 	streq	r0, [r0, #-0]
     8e4:	008e3002 	addeq	r3, lr, r2
     8e8:	01260300 	teqeq	r6, r0, lsl #6
     8ec:	3113a501 	tstcc	r3, r1, lsl #10
     8f0:	0402002d 	streq	r0, [r2], #-45	; 0x2d
     8f4:	02002f02 	andeq	r2, r0, #2, 30
     8f8:	002d0204 	eoreq	r0, sp, r4, lsl #4
     8fc:	2f020402 	svccs	0x00020402
     900:	01040200 	mrseq	r0, R12_usr
     904:	304c4c2d 	subcc	r4, ip, sp, lsr #24
     908:	4f2f4b14 	svcmi	0x002f4b14
     90c:	02040200 	andeq	r0, r4, #0, 4
     910:	04020067 	streq	r0, [r2], #-103	; 0x67
     914:	4d4c6501 	cfstr64mi	mvdx6, [ip, #-4]
     918:	312fa030 	teqcc	pc, r0, lsr r0	; <UNPREDICTABLE>
     91c:	16260230 			; <UNDEFINED> instruction: 0x16260230
     920:	002c2d84 	eoreq	r2, ip, r4, lsl #27
     924:	30010402 	andcc	r0, r1, r2, lsl #8
     928:	01040200 	mrseq	r0, R12_usr
     92c:	00660633 	rsbeq	r0, r6, r3, lsr r6
     930:	2e010402 	cdpcs	4, 0, cr0, cr1, cr2, {0}
     934:	01040200 	mrseq	r0, R12_usr
     938:	67210806 	strvs	r0, [r1, -r6, lsl #16]!
     93c:	8273032f 	rsbshi	r0, r3, #-1140850688	; 0xbc000000
     940:	002e1303 	eoreq	r1, lr, r3, lsl #6
     944:	06010402 	streq	r0, [r1], -r2, lsl #8
     948:	04020066 	streq	r0, [r2], #-102	; 0x66
     94c:	4b830601 	blmi	fe0c2158 <__bss_end__+0xfe0b7bd0>
     950:	4b31674b 	blmi	c5a684 <__bss_end__+0xc500fc>
     954:	032e6503 	teqeq	lr, #12582912	; 0xc00000
     958:	02002e23 	andeq	r2, r0, #560	; 0x230
     95c:	2e060104 	adfcss	f0, f6, f4
     960:	01040200 	mrseq	r0, R12_usr
     964:	02009f06 	andeq	r9, r0, #6, 30
     968:	086a0104 	stmdaeq	sl!, {r2, r8}^
     96c:	a403d723 	strge	sp, [r3], #-1827	; 0x723
     970:	4b3c087f 	blmi	f02b74 <__bss_end__+0xef85ec>
     974:	01040200 	mrseq	r0, R12_usr
     978:	08064a06 	stmdaeq	r6, {r1, r2, r9, fp, lr}
     97c:	4b2f4b21 	blmi	bd3608 <__bss_end__+0xbc9080>
     980:	f200db03 	vqdmulh.s<illegal width 8>	d13, d0, d3
     984:	32484c9f 	subcc	r4, r8, #40704	; 0x9f00
     988:	4b842f4b 	blmi	fe10c6bc <__bss_end__+0xfe102134>
     98c:	314d2d2f 	cmpcc	sp, pc, lsr #26
     990:	00832f30 	addeq	r2, r3, r0, lsr pc
     994:	2c010402 	cfstrscs	mvf0, [r1], {2}
     998:	040200be 	streq	r0, [r2], #-190	; 0xbe
     99c:	064a0601 	strbeq	r0, [sl], -r1, lsl #12
     9a0:	36022208 	strcc	r2, [r2], -r8, lsl #4
     9a4:	d60e0316 			; <UNDEFINED> instruction: 0xd60e0316
     9a8:	08302108 	ldmdaeq	r0!, {r3, r8, sp}
     9ac:	21083121 	tstcs	r8, r1, lsr #2
     9b0:	30210830 	eorcc	r0, r1, r0, lsr r8
     9b4:	2108304b 	tstcs	r8, fp, asr #32
     9b8:	83834b30 	orrhi	r4, r3, #48, 22	; 0xc000
     9bc:	002f31d9 	ldrdeq	r3, [pc], -r9	; <UNPREDICTABLE>
     9c0:	65010402 	strvs	r0, [r1, #-1026]	; 0x402
     9c4:	02040200 	andeq	r0, r4, #0, 4
     9c8:	02004a06 	andeq	r4, r0, #24576	; 0x6000
     9cc:	03060104 	movweq	r0, #24836	; 0x6104
     9d0:	00667fbf 	strhteq	r7, [r6], #-255	; 0xffffff01
     9d4:	06020402 	streq	r0, [r2], -r2, lsl #8
     9d8:	c5030666 	strgt	r0, [r3, #-1638]	; 0x666
     9dc:	02684a00 	rsbeq	r4, r8, #0, 20
     9e0:	01010016 	tsteq	r1, r6, lsl r0
     9e4:	00000042 	andeq	r0, r0, r2, asr #32
     9e8:	00280002 	eoreq	r0, r8, r2
     9ec:	01020000 	mrseq	r0, (UNDEF: 2)
     9f0:	000d0efb 	strdeq	r0, [sp], -fp
     9f4:	01010101 	tsteq	r1, r1, lsl #2
     9f8:	01000000 	mrseq	r0, (UNDEF: 0)
     9fc:	73010000 	movwvc	r0, #4096	; 0x1000
     a00:	66666174 			; <UNDEFINED> instruction: 0x66666174
     a04:	6372732d 	cmnvs	r2, #-1275068416	; 0xb4000000
     a08:	61630000 	cmnvs	r3, r0
     a0c:	2e656863 	cdpcs	8, 6, cr6, cr5, cr3, {3}
     a10:	00010063 	andeq	r0, r1, r3, rrx
     a14:	05000000 	streq	r0, [r0, #-0]
     a18:	0093a802 	addseq	sl, r3, r2, lsl #16
     a1c:	30141400 	andscc	r1, r4, r0, lsl #8
     a20:	31144e2f 	tstcc	r4, pc, lsr #28
     a24:	0004022f 	andeq	r0, r4, pc, lsr #4
     a28:	009d0101 	addseq	r0, sp, r1, lsl #2
     a2c:	00020000 	andeq	r0, r2, r0
     a30:	00000086 	andeq	r0, r0, r6, lsl #1
     a34:	0efb0102 	cdpeq	1, 15, cr0, cr11, cr2, {0}
     a38:	0101000d 	tsteq	r1, sp
     a3c:	00000101 	andeq	r0, r0, r1, lsl #2
     a40:	00000100 	andeq	r0, r0, r0, lsl #2
     a44:	61747301 	cmnvs	r4, r1, lsl #6
     a48:	732d6666 	teqvc	sp, #106954752	; 0x6600000
     a4c:	2f006372 	svccs	0x00006372
     a50:	72657355 	rsbvc	r7, r5, #1409286145	; 0x54000001
     a54:	72622f73 	rsbvc	r2, r2, #460	; 0x1cc
     a58:	6a6e6169 	bvs	1b99004 <__bss_end__+0x1b8ea7c>
     a5c:	442f6e75 	strtmi	r6, [pc], #-3701	; a64 <__code_start__-0x759c>
     a60:	746b7365 	strbtvc	r7, [fp], #-869	; 0x365
     a64:	732f706f 	teqvc	pc, #111	; 0x6f
     a68:	6f6f6863 	svcvs	0x006f6863
     a6c:	70532f6c 	subsvc	r2, r3, ip, ror #30
     a70:	676e6972 			; <UNDEFINED> instruction: 0x676e6972
     a74:	30323931 	eorscc	r3, r2, r1, lsr r9
     a78:	3253432f 	subscc	r4, r3, #-1140850688	; 0xbc000000
     a7c:	584c3034 	stmdapl	ip, {r2, r4, r5, ip, sp}^
     a80:	3273632f 	rsbscc	r6, r3, #-1140850688	; 0xbc000000
     a84:	786c3034 	stmdavc	ip!, {r2, r4, r5, ip, sp}^
     a88:	7330322d 	teqvc	r0, #-805306366	; 0xd0000002
     a8c:	6c2f7270 	sfmvs	f7, 4, [pc], #-448	; 8d4 <__code_start__-0x772c>
     a90:	69706269 	ldmdbvs	r0!, {r0, r3, r5, r6, r9, sp, lr}^
     a94:	636e692f 	cmnvs	lr, #770048	; 0xbc000
     a98:	6564756c 	strbvs	r7, [r4, #-1388]!	; 0x56c
     a9c:	6c630000 	stclvs	0, cr0, [r3], #-0
     aa0:	2d6e6165 	stfcse	f6, [lr, #-404]!	; 0xfffffe6c
     aa4:	6f626572 	svcvs	0x00626572
     aa8:	632e746f 	teqvs	lr, #1862270976	; 0x6f000000
     aac:	00000100 	andeq	r0, r0, r0, lsl #2
     ab0:	2e697072 	mcrcs	0, 3, r7, cr9, cr2, {3}
     ab4:	00020068 	andeq	r0, r2, r8, rrx
     ab8:	05000000 	streq	r0, [r0, #-0]
     abc:	0093c802 	addseq	ip, r3, r2, lsl #16
     ac0:	2f2f1500 	svccs	0x002f1500
     ac4:	06024b83 	streq	r4, [r2], -r3, lsl #23
     ac8:	a6010100 	strge	r0, [r1], -r0, lsl #2
     acc:	02000000 	andeq	r0, r0, #0
     ad0:	00008000 	andeq	r8, r0, r0
     ad4:	fb010200 	blx	412de <__bss_end__+0x36d56>
     ad8:	01000d0e 	tsteq	r0, lr, lsl #26
     adc:	00010101 	andeq	r0, r1, r1, lsl #2
     ae0:	00010000 	andeq	r0, r1, r0
     ae4:	74730100 	ldrbtvc	r0, [r3], #-256	; 0x100
     ae8:	2d666661 	stclcs	6, cr6, [r6, #-388]!	; 0xfffffe7c
     aec:	00637273 	rsbeq	r7, r3, r3, ror r2
     af0:	6573552f 	ldrbvs	r5, [r3, #-1327]!	; 0x52f
     af4:	622f7372 	eorvs	r7, pc, #-939524095	; 0xc8000001
     af8:	6e616972 	mcrvs	9, 3, r6, cr1, cr2, {3}
     afc:	2f6e756a 	svccs	0x006e756a
     b00:	6b736544 	blvs	1cda018 <__bss_end__+0x1ccfa90>
     b04:	2f706f74 	svccs	0x00706f74
     b08:	6f686373 	svcvs	0x00686373
     b0c:	532f6c6f 	teqpl	pc, #28416	; 0x6f00
     b10:	6e697270 	mcrvs	2, 3, r7, cr9, cr0, {3}
     b14:	32393167 	eorscc	r3, r9, #-1073741799	; 0xc0000019
     b18:	53432f30 	movtpl	r2, #16176	; 0x3f30
     b1c:	4c303432 	cfldrsmi	mvf3, [r0], #-200	; 0xffffff38
     b20:	73632f58 	cmnvc	r3, #88, 30	; 0x160
     b24:	6c303432 	cfldrsvs	mvf3, [r0], #-200	; 0xffffff38
     b28:	30322d78 	eorscc	r2, r2, r8, ror sp
     b2c:	2f727073 	svccs	0x00727073
     b30:	7062696c 	rsbvc	r6, r2, ip, ror #18
     b34:	6e692f69 	cdpvs	15, 6, cr2, cr9, cr9, {3}
     b38:	64756c63 	ldrbtvs	r6, [r5], #-3171	; 0xc63
     b3c:	63000065 	movwvs	r0, #101	; 0x65
     b40:	72617473 	rsbvc	r7, r1, #1929379840	; 0x73000000
     b44:	00632e74 	rsbeq	r2, r3, r4, ror lr
     b48:	72000001 	andvc	r0, r0, #1
     b4c:	682e6970 	stmdavs	lr!, {r4, r5, r6, r8, fp, sp, lr}
     b50:	00000200 	andeq	r0, r0, r0, lsl #4
     b54:	02050000 	andeq	r0, r5, #0
     b58:	000093f4 	strdeq	r9, [r0], -r4
     b5c:	32010c03 	andcc	r0, r1, #768	; 0x300
     b60:	2f2d2f31 	svccs	0x002d2f31
     b64:	01040200 	mrseq	r0, R12_usr
     b68:	4a090349 	bmi	241894 <__bss_end__+0x23730c>
     b6c:	2f2e0d03 	svccs	0x002e0d03
     b70:	01000602 	tsteq	r0, r2, lsl #12
     b74:	0000a201 	andeq	sl, r0, r1, lsl #4
     b78:	8e000200 	cdphi	2, 0, cr0, cr0, cr0, {0}
     b7c:	02000000 	andeq	r0, r0, #0
     b80:	0d0efb01 	vstreq	d15, [lr, #-4]
     b84:	01010100 	mrseq	r0, (UNDEF: 17)
     b88:	00000001 	andeq	r0, r0, r1
     b8c:	01000001 	tsteq	r0, r1
     b90:	66617473 			; <UNDEFINED> instruction: 0x66617473
     b94:	72732d66 	rsbsvc	r2, r3, #6528	; 0x1980
     b98:	552f0063 	strpl	r0, [pc, #-99]!	; b3d <__code_start__-0x74c3>
     b9c:	73726573 	cmnvc	r2, #482344960	; 0x1cc00000
     ba0:	6972622f 	ldmdbvs	r2!, {r0, r1, r2, r3, r5, r9, sp, lr}^
     ba4:	756a6e61 	strbvc	r6, [sl, #-3681]!	; 0xe61
     ba8:	65442f6e 	strbvs	r2, [r4, #-3950]	; 0xf6e
     bac:	6f746b73 	svcvs	0x00746b73
     bb0:	63732f70 	cmnvs	r3, #112, 30	; 0x1c0
     bb4:	6c6f6f68 	stclvs	15, cr6, [pc], #-416	; a1c <__code_start__-0x75e4>
     bb8:	7270532f 	rsbsvc	r5, r0, #-1140850688	; 0xbc000000
     bbc:	31676e69 	cmncc	r7, r9, ror #28
     bc0:	2f303239 	svccs	0x00303239
     bc4:	34325343 	ldrtcc	r5, [r2], #-835	; 0x343
     bc8:	2f584c30 	svccs	0x00584c30
     bcc:	34327363 	ldrtcc	r7, [r2], #-867	; 0x363
     bd0:	2d786c30 	ldclcs	12, cr6, [r8, #-192]!	; 0xffffff40
     bd4:	70733032 	rsbsvc	r3, r3, r2, lsr r0
     bd8:	696c2f72 	stmdbvs	ip!, {r1, r4, r5, r6, r8, r9, sl, fp, sp}^
     bdc:	2f697062 	svccs	0x00697062
     be0:	6c636e69 	stclvs	14, cr6, [r3], #-420	; 0xfffffe5c
     be4:	00656475 	rsbeq	r6, r5, r5, ror r4
     be8:	66656400 	strbtvs	r6, [r5], -r0, lsl #8
     bec:	746c7561 	strbtvc	r7, [ip], #-1377	; 0x561
     bf0:	6e61682d 	cdpvs	8, 6, cr6, cr1, cr13, {1}
     bf4:	72656c64 	rsbvc	r6, r5, #100, 24	; 0x6400
     bf8:	7361662d 	cmnvc	r1, #47185920	; 0x2d00000
     bfc:	00632e74 	rsbeq	r2, r3, r4, ror lr
     c00:	72000001 	andvc	r0, r0, #1
     c04:	682e6970 	stmdavs	lr!, {r4, r5, r6, r8, fp, sp, lr}
     c08:	00000200 	andeq	r0, r0, r0, lsl #4
     c0c:	02050000 	andeq	r0, r5, #0
     c10:	0000942c 	andeq	r9, r0, ip, lsr #8
     c14:	1c026613 	stcne	6, cr6, [r2], {19}
     c18:	a3010100 	movwge	r0, #4352	; 0x1100
     c1c:	02000000 	andeq	r0, r0, #0
     c20:	00008f00 	andeq	r8, r0, r0, lsl #30
     c24:	fb010200 	blx	4142e <__bss_end__+0x36ea6>
     c28:	01000d0e 	tsteq	r0, lr, lsl #26
     c2c:	00010101 	andeq	r0, r1, r1, lsl #2
     c30:	00010000 	andeq	r0, r1, r0
     c34:	74730100 	ldrbtvc	r0, [r3], #-256	; 0x100
     c38:	2d666661 	stclcs	6, cr6, [r6, #-388]!	; 0xfffffe7c
     c3c:	00637273 	rsbeq	r7, r3, r3, ror r2
     c40:	6573552f 	ldrbvs	r5, [r3, #-1327]!	; 0x52f
     c44:	622f7372 	eorvs	r7, pc, #-939524095	; 0xc8000001
     c48:	6e616972 	mcrvs	9, 3, r6, cr1, cr2, {3}
     c4c:	2f6e756a 	svccs	0x006e756a
     c50:	6b736544 	blvs	1cda168 <__bss_end__+0x1ccfbe0>
     c54:	2f706f74 	svccs	0x00706f74
     c58:	6f686373 	svcvs	0x00686373
     c5c:	532f6c6f 	teqpl	pc, #28416	; 0x6f00
     c60:	6e697270 	mcrvs	2, 3, r7, cr9, cr0, {3}
     c64:	32393167 	eorscc	r3, r9, #-1073741799	; 0xc0000019
     c68:	53432f30 	movtpl	r2, #16176	; 0x3f30
     c6c:	4c303432 	cfldrsmi	mvf3, [r0], #-200	; 0xffffff38
     c70:	73632f58 	cmnvc	r3, #88, 30	; 0x160
     c74:	6c303432 	cfldrsvs	mvf3, [r0], #-200	; 0xffffff38
     c78:	30322d78 	eorscc	r2, r2, r8, ror sp
     c7c:	2f727073 	svccs	0x00727073
     c80:	7062696c 	rsbvc	r6, r2, ip, ror #18
     c84:	6e692f69 	cdpvs	15, 6, cr2, cr9, cr9, {3}
     c88:	64756c63 	ldrbtvs	r6, [r5], #-3171	; 0xc63
     c8c:	64000065 	strvs	r0, [r0], #-101	; 0x65
     c90:	75616665 	strbvc	r6, [r1, #-1637]!	; 0x665
     c94:	682d746c 	stmdavs	sp!, {r2, r3, r5, r6, sl, ip, sp, lr}
     c98:	6c646e61 	stclvs	14, cr6, [r4], #-388	; 0xfffffe7c
     c9c:	722d7265 	eorvc	r7, sp, #1342177286	; 0x50000006
     ca0:	74657365 	strbtvc	r7, [r5], #-869	; 0x365
     ca4:	0100632e 	tsteq	r0, lr, lsr #6
     ca8:	70720000 	rsbsvc	r0, r2, r0
     cac:	00682e69 	rsbeq	r2, r8, r9, ror #28
     cb0:	00000002 	andeq	r0, r0, r2
     cb4:	70020500 	andvc	r0, r2, r0, lsl #10
     cb8:	13000094 	movwne	r0, #148	; 0x94
     cbc:	001c0266 	andseq	r0, ip, r6, ror #4
     cc0:	00ac0101 	adceq	r0, ip, r1, lsl #2
     cc4:	00020000 	andeq	r0, r2, r0
     cc8:	00000098 	muleq	r0, r8, r0
     ccc:	0efb0102 	cdpeq	1, 15, cr0, cr11, cr2, {0}
     cd0:	0101000d 	tsteq	r1, sp
     cd4:	00000101 	andeq	r0, r0, r1, lsl #2
     cd8:	00000100 	andeq	r0, r0, r0, lsl #2
     cdc:	61747301 	cmnvs	r4, r1, lsl #6
     ce0:	732d6666 	teqvc	sp, #106954752	; 0x6600000
     ce4:	2f006372 	svccs	0x00006372
     ce8:	72657355 	rsbvc	r7, r5, #1409286145	; 0x54000001
     cec:	72622f73 	rsbvc	r2, r2, #460	; 0x1cc
     cf0:	6a6e6169 	bvs	1b9929c <__bss_end__+0x1b8ed14>
     cf4:	442f6e75 	strtmi	r6, [pc], #-3701	; cfc <__code_start__-0x7304>
     cf8:	746b7365 	strbtvc	r7, [fp], #-869	; 0x365
     cfc:	732f706f 	teqvc	pc, #111	; 0x6f
     d00:	6f6f6863 	svcvs	0x006f6863
     d04:	70532f6c 	subsvc	r2, r3, ip, ror #30
     d08:	676e6972 			; <UNDEFINED> instruction: 0x676e6972
     d0c:	30323931 	eorscc	r3, r2, r1, lsr r9
     d10:	3253432f 	subscc	r4, r3, #-1140850688	; 0xbc000000
     d14:	584c3034 	stmdapl	ip, {r2, r4, r5, ip, sp}^
     d18:	3273632f 	rsbscc	r6, r3, #-1140850688	; 0xbc000000
     d1c:	786c3034 	stmdavc	ip!, {r2, r4, r5, ip, sp}^
     d20:	7330322d 	teqvc	r0, #-805306366	; 0xd0000002
     d24:	6c2f7270 	sfmvs	f7, 4, [pc], #-448	; b6c <__code_start__-0x7494>
     d28:	69706269 	ldmdbvs	r0!, {r0, r3, r5, r6, r9, sp, lr}^
     d2c:	636e692f 	cmnvs	lr, #770048	; 0xbc000
     d30:	6564756c 	strbvs	r7, [r4, #-1388]!	; 0x56c
     d34:	65640000 	strbvs	r0, [r4, #-0]!
     d38:	6c756166 	ldfvse	f6, [r5], #-408	; 0xfffffe68
     d3c:	61682d74 	smcvs	33492	; 0x82d4
     d40:	656c646e 	strbvs	r6, [ip, #-1134]!	; 0x46e
     d44:	6e752d72 	mrcvs	13, 3, r2, cr5, cr2, {3}
     d48:	69666564 	stmdbvs	r6!, {r2, r5, r6, r8, sl, sp, lr}^
     d4c:	2d64656e 	cfstr64cs	mvdx6, [r4, #-440]!	; 0xfffffe48
     d50:	74736e69 	ldrbtvc	r6, [r3], #-3689	; 0xe69
     d54:	0100632e 	tsteq	r0, lr, lsr #6
     d58:	70720000 	rsbsvc	r0, r2, r0
     d5c:	00682e69 	rsbeq	r2, r8, r9, ror #28
     d60:	00000002 	andeq	r0, r0, r2
     d64:	b4020500 	strlt	r0, [r2], #-1280	; 0x500
     d68:	13000094 	movwne	r0, #148	; 0x94
     d6c:	001c0266 	andseq	r0, ip, r6, ror #4
     d70:	00470101 	subeq	r0, r7, r1, lsl #2
     d74:	00020000 	andeq	r0, r2, r0
     d78:	00000033 	andeq	r0, r0, r3, lsr r0
     d7c:	0efb0102 	cdpeq	1, 15, cr0, cr11, cr2, {0}
     d80:	0101000d 	tsteq	r1, sp
     d84:	00000101 	andeq	r0, r0, r1, lsl #2
     d88:	00000100 	andeq	r0, r0, r0, lsl #2
     d8c:	61747301 	cmnvs	r4, r1, lsl #6
     d90:	732d6666 	teqvc	sp, #106954752	; 0x6600000
     d94:	00006372 	andeq	r6, r0, r2, ror r3
     d98:	61666564 	cmnvs	r6, r4, ror #10
     d9c:	2d746c75 	ldclcs	12, cr6, [r4, #-468]!	; 0xfffffe2c
     da0:	646e6168 	strbtvs	r6, [lr], #-360	; 0x168
     da4:	7372656c 	cmnvc	r2, #108, 10	; 0x1b000000
     da8:	0100632e 	tsteq	r0, lr, lsr #6
     dac:	00000000 	andeq	r0, r0, r0
     db0:	94f80205 	ldrbtls	r0, [r8], #517	; 0x205
     db4:	2f150000 	svccs	0x00150000
     db8:	01000202 	tsteq	r0, r2, lsl #4
     dbc:	0000c901 	andeq	ip, r0, r1, lsl #18
     dc0:	9a000200 	bls	15c8 <__code_start__-0x6a38>
     dc4:	02000000 	andeq	r0, r0, #0
     dc8:	0d0efb01 	vstreq	d15, [lr, #-4]
     dcc:	01010100 	mrseq	r0, (UNDEF: 17)
     dd0:	00000001 	andeq	r0, r0, r1
     dd4:	01000001 	tsteq	r0, r1
     dd8:	66617473 			; <UNDEFINED> instruction: 0x66617473
     ddc:	72732d66 	rsbsvc	r2, r3, #6528	; 0x1980
     de0:	552f0063 	strpl	r0, [pc, #-99]!	; d85 <__code_start__-0x727b>
     de4:	73726573 	cmnvc	r2, #482344960	; 0x1cc00000
     de8:	6972622f 	ldmdbvs	r2!, {r0, r1, r2, r3, r5, r9, sp, lr}^
     dec:	756a6e61 	strbvc	r6, [sl, #-3681]!	; 0xe61
     df0:	65442f6e 	strbvs	r2, [r4, #-3950]	; 0xf6e
     df4:	6f746b73 	svcvs	0x00746b73
     df8:	63732f70 	cmnvs	r3, #112, 30	; 0x1c0
     dfc:	6c6f6f68 	stclvs	15, cr6, [pc], #-416	; c64 <__code_start__-0x739c>
     e00:	7270532f 	rsbsvc	r5, r0, #-1140850688	; 0xbc000000
     e04:	31676e69 	cmncc	r7, r9, ror #28
     e08:	2f303239 	svccs	0x00303239
     e0c:	34325343 	ldrtcc	r5, [r2], #-835	; 0x343
     e10:	2f584c30 	svccs	0x00584c30
     e14:	34327363 	ldrtcc	r7, [r2], #-867	; 0x363
     e18:	2d786c30 	ldclcs	12, cr6, [r8, #-192]!	; 0xffffff40
     e1c:	70733032 	rsbsvc	r3, r3, r2, lsr r0
     e20:	696c2f72 	stmdbvs	ip!, {r1, r4, r5, r6, r8, r9, sl, fp, sp}^
     e24:	2f697062 	svccs	0x00697062
     e28:	6c636e69 	stclvs	14, cr6, [r3], #-420	; 0xfffffe5c
     e2c:	00656475 	rsbeq	r6, r5, r5, ror r4
     e30:	746e6900 	strbtvc	r6, [lr], #-2304	; 0x900
     e34:	75727265 	ldrbvc	r7, [r2, #-613]!	; 0x265
     e38:	2d737470 	cfldrdcs	mvd7, [r3, #-448]!	; 0xfffffe40
     e3c:	00632e63 	rsbeq	r2, r3, r3, ror #28
     e40:	72000001 	andvc	r0, r0, #1
     e44:	692d6970 	pushvs	{r4, r5, r6, r8, fp, sp, lr}
     e48:	7265746e 	rsbvc	r7, r5, #1845493760	; 0x6e000000
     e4c:	74707572 	ldrbtvc	r7, [r0], #-1394	; 0x572
     e50:	00682e73 	rsbeq	r2, r8, r3, ror lr
     e54:	72000002 	andvc	r0, r0, #2
     e58:	682e6970 	stmdavs	lr!, {r4, r5, r6, r8, fp, sp, lr}
     e5c:	00000200 	andeq	r0, r0, r0, lsl #4
     e60:	02050000 	andeq	r0, r5, #0
     e64:	00009500 	andeq	r9, r0, r0, lsl #10
     e68:	31011a03 	tstcc	r1, r3, lsl #20
     e6c:	3667672f 	strbtcc	r6, [r7], -pc, lsr #14
     e70:	002d2f83 	eoreq	r2, sp, r3, lsl #31
     e74:	2f020402 	svccs	0x00020402
     e78:	02040200 	andeq	r0, r4, #0, 4
     e7c:	04020065 	streq	r0, [r2], #-101	; 0x65
     e80:	062e0601 	strteq	r0, [lr], -r1, lsl #12
     e84:	000a024c 	andeq	r0, sl, ip, asr #4
     e88:	00a20101 	adceq	r0, r2, r1, lsl #2
     e8c:	00020000 	andeq	r0, r2, r0
     e90:	00000080 	andeq	r0, r0, r0, lsl #1
     e94:	0efb0102 	cdpeq	1, 15, cr0, cr11, cr2, {0}
     e98:	0101000d 	tsteq	r1, sp
     e9c:	00000101 	andeq	r0, r0, r1, lsl #2
     ea0:	00000100 	andeq	r0, r0, r0, lsl #2
     ea4:	61747301 	cmnvs	r4, r1, lsl #6
     ea8:	732d6666 	teqvc	sp, #106954752	; 0x6600000
     eac:	2f006372 	svccs	0x00006372
     eb0:	72657355 	rsbvc	r7, r5, #1409286145	; 0x54000001
     eb4:	72622f73 	rsbvc	r2, r2, #460	; 0x1cc
     eb8:	6a6e6169 	bvs	1b99464 <__bss_end__+0x1b8eedc>
     ebc:	442f6e75 	strtmi	r6, [pc], #-3701	; ec4 <__code_start__-0x713c>
     ec0:	746b7365 	strbtvc	r7, [fp], #-869	; 0x365
     ec4:	732f706f 	teqvc	pc, #111	; 0x6f
     ec8:	6f6f6863 	svcvs	0x006f6863
     ecc:	70532f6c 	subsvc	r2, r3, ip, ror #30
     ed0:	676e6972 			; <UNDEFINED> instruction: 0x676e6972
     ed4:	30323931 	eorscc	r3, r2, r1, lsr r9
     ed8:	3253432f 	subscc	r4, r3, #-1140850688	; 0xbc000000
     edc:	584c3034 	stmdapl	ip, {r2, r4, r5, ip, sp}^
     ee0:	3273632f 	rsbscc	r6, r3, #-1140850688	; 0xbc000000
     ee4:	786c3034 	stmdavc	ip!, {r2, r4, r5, ip, sp}^
     ee8:	7330322d 	teqvc	r0, #-805306366	; 0xd0000002
     eec:	6c2f7270 	sfmvs	f7, 4, [pc], #-448	; d34 <__code_start__-0x72cc>
     ef0:	69706269 	ldmdbvs	r0!, {r0, r3, r5, r6, r9, sp, lr}^
     ef4:	636e692f 	cmnvs	lr, #770048	; 0xbc000
     ef8:	6564756c 	strbvs	r7, [r4, #-1388]!	; 0x56c
     efc:	65720000 	ldrbvs	r0, [r2, #-0]!
     f00:	746f6f62 	strbtvc	r6, [pc], #-3938	; f08 <__code_start__-0x70f8>
     f04:	0100632e 	tsteq	r0, lr, lsr #6
     f08:	70720000 	rsbsvc	r0, r2, r0
     f0c:	00682e69 	rsbeq	r2, r8, r9, ror #28
     f10:	00000002 	andeq	r0, r0, r2
     f14:	6c020500 	cfstr32vs	mvfx0, [r2], {-0}
     f18:	03000095 	movweq	r0, #149	; 0x95
     f1c:	3114010d 	tstcc	r4, sp, lsl #2
     f20:	2f15852f 	svccs	0x0015852f
     f24:	672f4d4b 	strvs	r4, [pc, -fp, asr #26]!
     f28:	02675235 	rsbeq	r5, r7, #1342177283	; 0x50000003
     f2c:	01010010 	tsteq	r1, r0, lsl r0
     f30:	000000ae 	andeq	r0, r0, lr, lsr #1
     f34:	007f0002 	rsbseq	r0, pc, r2
     f38:	01020000 	mrseq	r0, (UNDEF: 2)
     f3c:	000d0efb 	strdeq	r0, [sp], -fp
     f40:	01010101 	tsteq	r1, r1, lsl #2
     f44:	01000000 	mrseq	r0, (UNDEF: 0)
     f48:	73010000 	movwvc	r0, #4096	; 0x1000
     f4c:	66666174 			; <UNDEFINED> instruction: 0x66666174
     f50:	6372732d 	cmnvs	r2, #-1275068416	; 0xb4000000
     f54:	73552f00 	cmpvc	r5, #0, 30
     f58:	2f737265 	svccs	0x00737265
     f5c:	61697262 	cmnvs	r9, r2, ror #4
     f60:	6e756a6e 	vsubvs.f32	s13, s10, s29
     f64:	7365442f 	cmnvc	r5, #788529152	; 0x2f000000
     f68:	706f746b 	rsbvc	r7, pc, fp, ror #8
     f6c:	6863732f 	stmdavs	r3!, {r0, r1, r2, r3, r5, r8, r9, ip, sp, lr}^
     f70:	2f6c6f6f 	svccs	0x006c6f6f
     f74:	69727053 	ldmdbvs	r2!, {r0, r1, r4, r6, ip, sp, lr}^
     f78:	3931676e 	ldmdbcc	r1!, {r1, r2, r3, r5, r6, r8, r9, sl, sp, lr}
     f7c:	432f3032 	teqmi	pc, #50	; 0x32
     f80:	30343253 	eorscc	r3, r4, r3, asr r2
     f84:	632f584c 	teqvs	pc, #76, 16	; 0x4c0000
     f88:	30343273 	eorscc	r3, r4, r3, ror r2
     f8c:	322d786c 	eorcc	r7, sp, #108, 16	; 0x6c0000
     f90:	72707330 	rsbsvc	r7, r0, #48, 6	; 0xc0000000
     f94:	62696c2f 	rsbvs	r6, r9, #12032	; 0x2f00
     f98:	692f6970 	stmdbvs	pc!, {r4, r5, r6, r8, fp, sp, lr}	; <UNPREDICTABLE>
     f9c:	756c636e 	strbvc	r6, [ip, #-878]!	; 0x36e
     fa0:	00006564 	andeq	r6, r0, r4, ror #10
     fa4:	656d6974 	strbvs	r6, [sp, #-2420]!	; 0x974
     fa8:	00632e72 	rsbeq	r2, r3, r2, ror lr
     fac:	72000001 	andvc	r0, r0, #1
     fb0:	682e6970 	stmdavs	lr!, {r4, r5, r6, r8, fp, sp, lr}
     fb4:	00000200 	andeq	r0, r0, r0, lsl #4
     fb8:	02050000 	andeq	r0, r5, #0
     fbc:	000095e0 	andeq	r9, r0, r0, ror #11
     fc0:	2d2f1416 	cfstrscs	mvf1, [pc, #-88]!	; f70 <__code_start__-0x7090>
     fc4:	01040200 	mrseq	r0, R12_usr
     fc8:	6d062e06 	stcvs	14, cr2, [r6, #-24]	; 0xffffffe8
     fcc:	4d4b2f31 	stclmi	15, cr2, [fp, #-196]	; 0xffffff3c
     fd0:	304b2f31 	subcc	r2, fp, r1, lsr pc
     fd4:	2f4c4b4c 	svccs	0x004c4b4c
     fd8:	842f2f6a 	strthi	r2, [pc], #-3946	; fe0 <__code_start__-0x7020>
     fdc:	0008022f 	andeq	r0, r8, pc, lsr #4
     fe0:	01480101 	cmpeq	r8, r1, lsl #2
     fe4:	00020000 	andeq	r0, r2, r0
     fe8:	00000102 	andeq	r0, r0, r2, lsl #2
     fec:	0efb0102 	cdpeq	1, 15, cr0, cr11, cr2, {0}
     ff0:	0101000d 	tsteq	r1, sp
     ff4:	00000101 	andeq	r0, r0, r1, lsl #2
     ff8:	00000100 	andeq	r0, r0, r0, lsl #2
     ffc:	73752f01 	cmnvc	r5, #1, 30
    1000:	6e692f72 	mcrvs	15, 3, r2, cr9, cr2, {3}
    1004:	64756c63 	ldrbtvs	r6, [r5], #-3171	; 0xc63
    1008:	656e2f65 	strbvs	r2, [lr, #-3941]!	; 0xf65
    100c:	62696c77 	rsbvs	r6, r9, #30464	; 0x7700
    1010:	7379732f 	cmnvc	r9, #-1140850688	; 0xbc000000
    1014:	73752f00 	cmnvc	r5, #0, 30
    1018:	696c2f72 	stmdbvs	ip!, {r1, r4, r5, r6, r8, r9, sl, fp, sp}^
    101c:	63672f62 	cmnvs	r7, #392	; 0x188
    1020:	72612f63 	rsbvc	r2, r1, #396	; 0x18c
    1024:	6f6e2d6d 	svcvs	0x006e2d6d
    1028:	652d656e 	strvs	r6, [sp, #-1390]!	; 0x56e
    102c:	2f696261 	svccs	0x00696261
    1030:	2e332e36 	mrccs	14, 1, r2, cr3, cr6, {1}
    1034:	6e692f31 	mcrvs	15, 3, r2, cr9, cr1, {1}
    1038:	64756c63 	ldrbtvs	r6, [r5], #-3171	; 0xc63
    103c:	682f0065 	stmdavs	pc!, {r0, r2, r5, r6}	; <UNPREDICTABLE>
    1040:	2f656d6f 	svccs	0x00656d6f
    1044:	6c676e65 	stclvs	14, cr6, [r7], #-404	; 0xfffffe6c
    1048:	632f7265 	teqvs	pc, #1342177286	; 0x50000006
    104c:	7373616c 	cmnvc	r3, #108, 2
    1050:	3273632f 	rsbscc	r6, r3, #-1140850688	; 0xbc000000
    1054:	786c3034 	stmdavc	ip!, {r2, r4, r5, ip, sp}^
    1058:	7330322d 	teqvc	r0, #-805306366	; 0xd0000002
    105c:	2f2f7270 	svccs	0x002f7270
    1060:	7062696c 	rsbvc	r6, r2, ip, ror #18
    1064:	682f0069 	stmdavs	pc!, {r0, r3, r5, r6}	; <UNPREDICTABLE>
    1068:	2f656d6f 	svccs	0x00656d6f
    106c:	6c676e65 	stclvs	14, cr6, [r7], #-404	; 0xfffffe6c
    1070:	632f7265 	teqvs	pc, #1342177286	; 0x50000006
    1074:	7373616c 	cmnvc	r3, #108, 2
    1078:	3273632f 	rsbscc	r6, r3, #-1140850688	; 0xbc000000
    107c:	786c3034 	stmdavc	ip!, {r2, r4, r5, ip, sp}^
    1080:	7330322d 	teqvc	r0, #-805306366	; 0xd0000002
    1084:	2f2f7270 	svccs	0x002f7270
    1088:	7062696c 	rsbvc	r6, r2, ip, ror #18
    108c:	74732f69 	ldrbtvc	r2, [r3], #-3945	; 0xf69
    1090:	2d666661 	stclcs	6, cr6, [r6, #-388]!	; 0xfffffe7c
    1094:	00637273 	rsbeq	r7, r3, r3, ror r2
    1098:	72617500 	rsbvc	r7, r1, #0, 10
    109c:	00632e74 	rsbeq	r2, r3, r4, ror lr
    10a0:	6c000000 	stcvs	0, cr0, [r0], {-0}
    10a4:	2e6b636f 	cdpcs	3, 6, cr6, cr11, cr15, {3}
    10a8:	00010068 	andeq	r0, r1, r8, rrx
    10ac:	79745f00 	ldmdbvc	r4!, {r8, r9, sl, fp, ip, lr}^
    10b0:	2e736570 	mrccs	5, 3, r6, cr3, cr0, {3}
    10b4:	00010068 	andeq	r0, r1, r8, rrx
    10b8:	64747300 	ldrbtvs	r7, [r4], #-768	; 0x300
    10bc:	2e666564 	cdpcs	5, 6, cr6, cr6, cr4, {3}
    10c0:	00020068 	andeq	r0, r2, r8, rrx
    10c4:	65657200 	strbvs	r7, [r5, #-512]!	; 0x200
    10c8:	682e746e 	stmdavs	lr!, {r1, r2, r3, r5, r6, sl, ip, sp, lr}
    10cc:	00000100 	andeq	r0, r0, r0, lsl #2
    10d0:	2e697072 	mcrcs	0, 3, r7, cr9, cr2, {3}
    10d4:	00030068 	andeq	r0, r3, r8, rrx
    10d8:	72617500 	rsbvc	r7, r1, #0, 10
    10dc:	00682e74 	rsbeq	r2, r8, r4, ror lr
    10e0:	67000004 	strvs	r0, [r0, -r4]
    10e4:	2e6f6970 	mcrcs	9, 3, r6, cr15, cr0, {3}
    10e8:	00040068 	andeq	r0, r4, r8, rrx
    10ec:	05000000 	streq	r0, [r0, #-0]
    10f0:	0096dc02 	addseq	sp, r6, r2, lsl #24
    10f4:	012c0300 	teqeq	ip, r0, lsl #6
    10f8:	9e0c0367 	cdpls	3, 0, cr0, cr12, cr7, {3}
    10fc:	35686735 	strbcc	r6, [r8, #-1845]!	; 0x735
    1100:	2e0c0368 	cdpcs	3, 0, cr0, cr12, cr8, {3}
    1104:	69696b85 	stmdbvs	r9!, {r0, r2, r7, r8, r9, fp, sp, lr}^
    1108:	6b660c03 	blvs	198411c <__bss_end__+0x1979b94>
    110c:	34420867 	strbcc	r0, [r2], #-2151	; 0x867
    1110:	68364b68 	ldmdavs	r6!, {r3, r5, r6, r8, r9, fp, lr}
    1114:	02002f87 	andeq	r2, r0, #540	; 0x21c
    1118:	682f0104 	stmdavs	pc!, {r2, r8}	; <UNPREDICTABLE>
    111c:	4b673067 	blmi	19cd2c0 <__bss_end__+0x19c2d38>
    1120:	01040200 	mrseq	r0, R12_usr
    1124:	6967682f 	stmdbvs	r7!, {r0, r1, r2, r3, r5, fp, sp, lr}^
    1128:	0006022e 	andeq	r0, r6, lr, lsr #4
    112c:	012b0101 	teqeq	fp, r1, lsl #2
    1130:	00020000 	andeq	r0, r2, r0
    1134:	000000f8 	strdeq	r0, [r0], -r8
    1138:	0efb0102 	cdpeq	1, 15, cr0, cr11, cr2, {0}
    113c:	0101000d 	tsteq	r1, sp
    1140:	00000101 	andeq	r0, r0, r1, lsl #2
    1144:	00000100 	andeq	r0, r0, r0, lsl #2
    1148:	73752f01 	cmnvc	r5, #1, 30
    114c:	6e692f72 	mcrvs	15, 3, r2, cr9, cr2, {3}
    1150:	64756c63 	ldrbtvs	r6, [r5], #-3171	; 0xc63
    1154:	656e2f65 	strbvs	r2, [lr, #-3941]!	; 0xf65
    1158:	62696c77 	rsbvs	r6, r9, #30464	; 0x7700
    115c:	7379732f 	cmnvc	r9, #-1140850688	; 0xbc000000
    1160:	73752f00 	cmnvc	r5, #0, 30
    1164:	696c2f72 	stmdbvs	ip!, {r1, r4, r5, r6, r8, r9, sl, fp, sp}^
    1168:	63672f62 	cmnvs	r7, #392	; 0x188
    116c:	72612f63 	rsbvc	r2, r1, #396	; 0x18c
    1170:	6f6e2d6d 	svcvs	0x006e2d6d
    1174:	652d656e 	strvs	r6, [sp, #-1390]!	; 0x56e
    1178:	2f696261 	svccs	0x00696261
    117c:	2e332e36 	mrccs	14, 1, r2, cr3, cr6, {1}
    1180:	6e692f31 	mcrvs	15, 3, r2, cr9, cr1, {1}
    1184:	64756c63 	ldrbtvs	r6, [r5], #-3171	; 0xc63
    1188:	682f0065 	stmdavs	pc!, {r0, r2, r5, r6}	; <UNPREDICTABLE>
    118c:	2f656d6f 	svccs	0x00656d6f
    1190:	6c676e65 	stclvs	14, cr6, [r7], #-404	; 0xfffffe6c
    1194:	632f7265 	teqvs	pc, #1342177286	; 0x50000006
    1198:	7373616c 	cmnvc	r3, #108, 2
    119c:	3273632f 	rsbscc	r6, r3, #-1140850688	; 0xbc000000
    11a0:	786c3034 	stmdavc	ip!, {r2, r4, r5, ip, sp}^
    11a4:	7330322d 	teqvc	r0, #-805306366	; 0xd0000002
    11a8:	2f2f7270 	svccs	0x002f7270
    11ac:	7062696c 	rsbvc	r6, r2, ip, ror #18
    11b0:	682f0069 	stmdavs	pc!, {r0, r3, r5, r6}	; <UNPREDICTABLE>
    11b4:	2f656d6f 	svccs	0x00656d6f
    11b8:	6c676e65 	stclvs	14, cr6, [r7], #-404	; 0xfffffe6c
    11bc:	632f7265 	teqvs	pc, #1342177286	; 0x50000006
    11c0:	7373616c 	cmnvc	r3, #108, 2
    11c4:	3273632f 	rsbscc	r6, r3, #-1140850688	; 0xbc000000
    11c8:	786c3034 	stmdavc	ip!, {r2, r4, r5, ip, sp}^
    11cc:	7330322d 	teqvc	r0, #-805306366	; 0xd0000002
    11d0:	2f2f7270 	svccs	0x002f7270
    11d4:	7062696c 	rsbvc	r6, r2, ip, ror #18
    11d8:	74732f69 	ldrbtvc	r2, [r3], #-3945	; 0xf69
    11dc:	2d666661 	stclcs	6, cr6, [r6, #-388]!	; 0xfffffe7c
    11e0:	00637273 	rsbeq	r7, r3, r3, ror r2
    11e4:	69706700 	ldmdbvs	r0!, {r8, r9, sl, sp, lr}^
    11e8:	00632e6f 	rsbeq	r2, r3, pc, ror #28
    11ec:	6c000000 	stcvs	0, cr0, [r0], {-0}
    11f0:	2e6b636f 	cdpcs	3, 6, cr6, cr11, cr15, {3}
    11f4:	00010068 	andeq	r0, r1, r8, rrx
    11f8:	79745f00 	ldmdbvc	r4!, {r8, r9, sl, fp, ip, lr}^
    11fc:	2e736570 	mrccs	5, 3, r6, cr3, cr0, {3}
    1200:	00010068 	andeq	r0, r1, r8, rrx
    1204:	64747300 	ldrbtvs	r7, [r4], #-768	; 0x300
    1208:	2e666564 	cdpcs	5, 6, cr6, cr6, cr4, {3}
    120c:	00020068 	andeq	r0, r2, r8, rrx
    1210:	65657200 	strbvs	r7, [r5, #-512]!	; 0x200
    1214:	682e746e 	stmdavs	lr!, {r1, r2, r3, r5, r6, sl, ip, sp, lr}
    1218:	00000100 	andeq	r0, r0, r0, lsl #2
    121c:	2e697072 	mcrcs	0, 3, r7, cr9, cr2, {3}
    1220:	00030068 	andeq	r0, r3, r8, rrx
    1224:	69706700 	ldmdbvs	r0!, {r8, r9, sl, sp, lr}^
    1228:	00682e6f 	rsbeq	r2, r8, pc, ror #28
    122c:	00000004 	andeq	r0, r0, r4
    1230:	54020500 	strpl	r0, [r2], #-1280	; 0x500
    1234:	03000098 	movweq	r0, #152	; 0x98
    1238:	4c130127 	ldfmis	f0, [r3], {39}	; 0x27
    123c:	68f44f47 	ldmvs	r4!, {r0, r1, r2, r6, r8, r9, sl, fp, lr}^
    1240:	2fa14c4b 	svccs	0x00a14c4b
    1244:	3149136a 	cmpcc	r9, sl, ror #6
    1248:	314913be 	strhcc	r1, [r9, #-62]	; 0xffffffc2
    124c:	2f6a2fbe 	svccs	0x006a2fbe
    1250:	134f484d 	movtne	r4, #63565	; 0xf84d
    1254:	b72f3249 	strlt	r3, [pc, -r9, asr #4]!
    1258:	01000602 	tsteq	r0, r2, lsl #12
    125c:	Address 0x000000000000125c is out of bounds.


Disassembly of section .debug_str:

00000000 <.debug_str>:
   0:	74736574 	ldrbtvc	r6, [r3], #-1396	; 0x574
   4:	36312f73 	shsub16cc	r2, r1, r3
   8:	7261702d 	rsbvc	r7, r1, #45	; 0x2d
   c:	742d3274 	strtvc	r3, [sp], #-628	; 0x274
  10:	32747365 	rsbscc	r7, r4, #-1811939327	; 0x94000001
  14:	6f00632e 	svcvs	0x0000632e
  18:	00705f6e 	rsbseq	r5, r0, lr, ror #30
  1c:	63656863 	cmnvs	r5, #6488064	; 0x630000
  20:	5f72656b 	svcpl	0x0072656b
  24:	68730074 	ldmdavs	r3!, {r2, r4, r5, r6}^
  28:	2074726f 	rsbscs	r7, r4, pc, ror #4
  2c:	00746e69 	rsbseq	r6, r4, r9, ror #28
  30:	74697773 	strbtvc	r7, [r9], #-1907	; 0x773
  34:	64656863 	strbtvs	r6, [r5], #-2147	; 0x863
  38:	6500705f 	strvs	r7, [r0, #-95]	; 0x5f
  3c:	635f7370 	cmpvs	pc, #112, 6	; 0xc0000001
  40:	6b636568 	blvs	18d95e8 <__bss_end__+0x18cf060>
  44:	73552f00 	cmpvc	r5, #0, 30
  48:	2f737265 	svccs	0x00737265
  4c:	61697262 	cmnvs	r9, r2, ror #4
  50:	6e756a6e 	vsubvs.f32	s13, s10, s29
  54:	7365442f 	cmnvc	r5, #788529152	; 0x2f000000
  58:	706f746b 	rsbvc	r7, pc, fp, ror #8
  5c:	6863732f 	stmdavs	r3!, {r0, r1, r2, r3, r5, r8, r9, ip, sp, lr}^
  60:	2f6c6f6f 	svccs	0x006c6f6f
  64:	69727053 	ldmdbvs	r2!, {r0, r1, r4, r6, ip, sp, lr}^
  68:	3931676e 	ldmdbcc	r1!, {r1, r2, r3, r5, r6, r8, r9, sl, sp, lr}
  6c:	432f3032 	teqmi	pc, #50	; 0x32
  70:	30343253 	eorscc	r3, r4, r3, asr r2
  74:	632f584c 	teqvs	pc, #76, 16	; 0x4c0000
  78:	30343273 	eorscc	r3, r4, r3, ror r2
  7c:	322d786c 	eorcc	r7, sp, #108, 16	; 0x6c0000
  80:	72707330 	rsbsvc	r7, r0, #48, 6	; 0xc0000000
  84:	62616c2f 	rsbvs	r6, r1, #12032	; 0x2f00
  88:	36312f73 	shsub16cc	r2, r1, r3
  8c:	6e69732d 	cdpvs	3, 6, cr7, cr9, cr13, {1}
  90:	2d656c67 	stclcs	12, cr6, [r5, #-412]!	; 0xfffffe64
  94:	70657473 	rsbvc	r7, r5, r3, ror r4
  98:	646f632f 	strbtvs	r6, [pc], #-815	; a0 <__code_start__-0x7f60>
  9c:	6f6e0065 	svcvs	0x006e0065
  a0:	69616d74 	stmdbvs	r1!, {r2, r4, r5, r6, r8, sl, fp, sp, lr}^
  a4:	7065006e 	rsbvc	r0, r5, lr, rrx
  a8:	00415f73 	subeq	r5, r1, r3, ror pc
  ac:	5f6b7262 	svcpl	0x006b7262
  b0:	62726576 	rsbsvs	r6, r2, #494927872	; 0x1d800000
  b4:	0065736f 	rsbeq	r7, r5, pc, ror #6
  b8:	5f737065 	svcpl	0x00737065
  bc:	656e0042 	strbvs	r0, [lr, #-66]!	; 0x42
  c0:	726f7272 	rsbvc	r7, pc, #536870919	; 0x20000007
  c4:	77730073 			; <UNDEFINED> instruction: 0x77730073
  c8:	68637469 	stmdavs	r3!, {r0, r3, r5, r6, sl, ip, sp, lr}^
  cc:	5f6e6f5f 	svcpl	0x006e6f5f
  d0:	74736e69 	ldrbtvc	r6, [r3], #-3689	; 0xe69
  d4:	75006e5f 	strvc	r6, [r0, #-3679]	; 0xe5f
  d8:	6769736e 	strbvs	r7, [r9, -lr, ror #6]!
  dc:	2064656e 	rsbcs	r6, r4, lr, ror #10
  e0:	72616863 	rsbvc	r6, r1, #6488064	; 0x630000
  e4:	656c6300 	strbvs	r6, [ip, #-768]!	; 0x300
  e8:	725f6e61 	subsvc	r6, pc, #1552	; 0x610
  ec:	6f6f6265 	svcvs	0x006f6265
  f0:	6e690074 	mcrvs	0, 3, r0, cr9, cr4, {3}
  f4:	635f7473 	cmpvs	pc, #1929379840	; 0x73000000
  f8:	746e756f 	strbtvc	r7, [lr], #-1391	; 0x56f
  fc:	6f687300 	svcvs	0x00687300
 100:	75207472 	strvc	r7, [r0, #-1138]!	; 0x472
 104:	6769736e 	strbvs	r7, [r9, -lr, ror #6]!
 108:	2064656e 	rsbcs	r6, r4, lr, ror #10
 10c:	00746e69 	rsbseq	r6, r4, r9, ror #28
 110:	5f6b7262 	svcpl	0x006b7262
 114:	62726576 	rsbsvs	r6, r2, #494927872	; 0x1d800000
 118:	5f65736f 	svcpl	0x0065736f
 11c:	70650070 	rsbvc	r0, r5, r0, ror r0
 120:	6e695f73 	mcrvs	15, 3, r5, cr9, cr3, {3}
 124:	5f007469 	svcpl	0x00007469
 128:	4e55465f 	mrcmi	6, 2, r4, cr5, cr15, {2}
 12c:	4f495443 	svcmi	0x00495443
 130:	005f5f4e 	subseq	r5, pc, lr, asr #30
 134:	65746e69 	ldrbvs	r6, [r4, #-3689]!	; 0xe69
 138:	61656c72 	smcvs	22210	; 0x56c2
 13c:	676e6976 			; <UNDEFINED> instruction: 0x676e6976
 140:	4700705f 	smlsdmi	r0, pc, r0, r7	; <UNPREDICTABLE>
 144:	4320554e 	teqmi	r0, #327155712	; 0x13800000
 148:	382e3420 	stmdacc	lr!, {r5, sl, ip, sp}
 14c:	2d20332e 	stccs	3, cr3, [r0, #-184]!	; 0xffffff48
 150:	7570636d 	ldrbvc	r6, [r0, #-877]!	; 0x36d
 154:	6d72613d 	ldfvse	f6, [r2, #-244]!	; 0xffffff0c
 158:	36373131 			; <UNDEFINED> instruction: 0x36373131
 15c:	2d667a6a 	vstmdbcs	r6!, {s15-s120}
 160:	6d2d2073 	stcvs	0, cr2, [sp, #-460]!	; 0xfffffe34
 164:	656e7574 	strbvs	r7, [lr, #-1396]!	; 0x574
 168:	6d72613d 	ldfvse	f6, [r2, #-244]!	; 0xffffff0c
 16c:	36373131 			; <UNDEFINED> instruction: 0x36373131
 170:	2d667a6a 	vstmdbcs	r6!, {s15-s120}
 174:	672d2073 			; <UNDEFINED> instruction: 0x672d2073
 178:	20626467 	rsbcs	r6, r2, r7, ror #8
 17c:	20674f2d 	rsbcs	r4, r7, sp, lsr #30
 180:	6474732d 	ldrbtvs	r7, [r4], #-813	; 0x32d
 184:	756e673d 	strbvc	r6, [lr, #-1853]!	; 0x73d
 188:	2d203939 	stccs	9, cr3, [r0, #-228]!	; 0xffffff1c
 18c:	65726666 	ldrbvs	r6, [r2, #-1638]!	; 0x666
 190:	61747365 	cmnvs	r4, r5, ror #6
 194:	6e69646e 	cdpvs	4, 6, cr6, cr9, cr14, {3}
 198:	662d2067 	strtvs	r2, [sp], -r7, rrx
 19c:	742d6f6e 	strtvc	r6, [sp], #-3950	; 0xf6e
 1a0:	656c706f 	strbvs	r7, [ip, #-111]!	; 0x6f
 1a4:	2d6c6576 	cfstr64cs	mvdx6, [ip, #-472]!	; 0xfffffe28
 1a8:	726f6572 	rsbvc	r6, pc, #478150656	; 0x1c800000
 1ac:	00726564 	rsbseq	r6, r2, r4, ror #10
 1b0:	676e6f6c 	strbvs	r6, [lr, -ip, ror #30]!
 1b4:	6e6f6c20 	cdpvs	12, 6, cr6, cr15, cr0, {1}
 1b8:	6e752067 	cdpvs	0, 7, cr2, cr5, cr7, {3}
 1bc:	6e676973 	mcrvs	9, 3, r6, cr7, cr3, {3}
 1c0:	69206465 	stmdbvs	r0!, {r0, r2, r5, r6, sl, sp, lr}
 1c4:	6500746e 	strvs	r7, [r0, #-1134]	; 0x46e
 1c8:	6d5f7370 	ldclvs	3, cr7, [pc, #-448]	; 10 <__code_start__-0x7ff0>
 1cc:	68635f6b 	stmdavs	r3!, {r0, r1, r3, r5, r6, r8, r9, sl, fp, ip, lr}^
 1d0:	656b6365 	strbvs	r6, [fp, #-869]!	; 0x365
 1d4:	736e0072 	cmnvc	lr, #114	; 0x72
 1d8:	63746977 	cmnvs	r4, #1949696	; 0x1dc000
 1dc:	00736568 	rsbseq	r6, r3, r8, ror #10
 1e0:	657a6973 	ldrbvs	r6, [sl, #-2419]!	; 0x973
 1e4:	65707974 	ldrbvs	r7, [r0, #-2420]!	; 0x974
 1e8:	6e6f6c00 	cdpvs	12, 6, cr6, cr15, cr0, {0}
 1ec:	6f6c2067 	svcvs	0x006c2067
 1f0:	6920676e 	stmdbvs	r0!, {r1, r2, r3, r5, r6, r8, r9, sl, sp, lr}
 1f4:	6e00746e 	cdpvs	4, 0, cr7, cr0, cr14, {3}
 1f8:	61697274 	smcvs	38692	; 0x9724
 1fc:	7300736c 	movwvc	r7, #876	; 0x36c
 200:	63746977 	cmnvs	r4, #1949696	; 0x1dc000
 204:	64615f68 	strbtvs	r5, [r1], #-3944	; 0xf68
 208:	65007264 	strvs	r7, [r0, #-612]	; 0x264
 20c:	6c62616e 	stfvse	f6, [r2], #-440	; 0xfffffe48
 210:	61635f65 	cmnvs	r3, r5, ror #30
 214:	00656863 	rsbeq	r6, r5, r3, ror #16
 218:	746e6975 	strbtvc	r6, [lr], #-2421	; 0x975
 21c:	745f3233 	ldrbvc	r3, [pc], #-563	; 224 <__code_start__-0x7ddc>
 220:	69707200 	ldmdbvs	r0!, {r9, ip, sp, lr}^
 224:	7365725f 	cmnvc	r5, #-268435451	; 0xf0000005
 228:	705f7465 	subsvc	r7, pc, r5, ror #8
 22c:	00637475 	rsbeq	r7, r3, r5, ror r4
 230:	61746164 	cmnvs	r4, r4, ror #2
 234:	6f62615f 	svcvs	0x0062615f
 238:	765f7472 			; <UNDEFINED> instruction: 0x765f7472
 23c:	6f746365 	svcvs	0x00746365
 240:	72700072 	rsbsvc	r0, r0, #114	; 0x72
 244:	74656665 	strbtvc	r6, [r5], #-1637	; 0x665
 248:	615f6863 	cmpvs	pc, r3, ror #16
 24c:	74726f62 	ldrbtvc	r6, [r2], #-3938	; 0xf62
 250:	6365765f 	cmnvs	r5, #99614720	; 0x5f00000
 254:	00726f74 	rsbseq	r6, r2, r4, ror pc
 258:	5f736177 	svcpl	0x00736177
 25c:	75626564 	strbvc	r6, [r2, #-1380]!	; 0x564
 260:	61645f67 	cmnvs	r4, r7, ror #30
 264:	61666174 	smcvs	26132	; 0x6614
 268:	00746c75 	rsbseq	r6, r4, r5, ror ip
 26c:	34317063 	ldrtcc	r7, [r1], #-99	; 0x63
 270:	6265642d 	rsbvs	r6, r5, #754974720	; 0x2d000000
 274:	632e6775 	teqvs	lr, #30670848	; 0x1d40000
 278:	73617700 	cmnvc	r1, #0, 14
 27c:	6265645f 	rsbvs	r6, r5, #1593835520	; 0x5f000000
 280:	695f6775 	ldmdbvs	pc, {r0, r2, r4, r5, r6, r8, r9, sl, sp, lr}^	; <UNPREDICTABLE>
 284:	6674736e 	ldrbtvs	r7, [r4], -lr, ror #6
 288:	746c7561 	strbtvc	r7, [ip], #-1377	; 0x561
 28c:	63736400 	cmnvs	r3, #0, 8
 290:	65735f72 	ldrbvs	r5, [r3, #-3954]!	; 0xf72
 294:	63770074 	cmnvs	r7, #116	; 0x74
 298:	725f3072 	subsvc	r3, pc, #114	; 0x72
 29c:	77006765 	strvc	r6, [r0, -r5, ror #14]
 2a0:	5f307263 	svcpl	0x00307263
 2a4:	00746567 	rsbseq	r6, r4, r7, ror #10
 2a8:	74696e69 	strbtvc	r6, [r9], #-3689	; 0xe69
 2ac:	6200705f 	andvs	r7, r0, #95	; 0x5f
 2b0:	74706b72 	ldrbtvc	r6, [r0], #-2930	; 0xb72
 2b4:	6e61685f 	mcrvs	8, 3, r6, cr1, cr15, {2}
 2b8:	72656c64 	rsbvc	r6, r5, #100, 24	; 0x6400
 2bc:	70630030 	rsbvc	r0, r3, r0, lsr r0
 2c0:	625f3431 	subsvs	r3, pc, #822083584	; 0x31000000
 2c4:	5f307263 	svcpl	0x00307263
 2c8:	00746573 	rsbseq	r6, r4, r3, ror r5
 2cc:	30727677 	rsbscc	r7, r2, r7, ror r6
 2d0:	6c61765f 	stclvs	6, cr7, [r1], #-380	; 0xfffffe84
 2d4:	74617700 	strbtvc	r7, [r1], #-1792	; 0x700
 2d8:	74706863 	ldrbtvc	r6, [r0], #-2147	; 0x863
 2dc:	7465735f 	strbtvc	r7, [r5], #-863	; 0x35f
 2e0:	76770030 			; <UNDEFINED> instruction: 0x76770030
 2e4:	735f3072 	cmpvc	pc, #114	; 0x72
 2e8:	62007465 	andvs	r7, r0, #1694498816	; 0x65000000
 2ec:	6e5f6b72 	vmovvs.s8	r6, d15[3]
 2f0:	65725f6f 	ldrbvs	r5, [r2, #-3951]!	; 0xf6f
 2f4:	72655f74 	rsbvc	r5, r5, #116, 30	; 0x1d0
 2f8:	00726f72 	rsbseq	r6, r2, r2, ror pc
 2fc:	34317063 	ldrtcc	r7, [r1], #-99	; 0x63
 300:	7263625f 	rsbvc	r6, r3, #-268435451	; 0xf0000005
 304:	65675f30 	strbvs	r5, [r7, #-3888]!	; 0xf30
 308:	72620074 	rsbvc	r0, r2, #116	; 0x74
 30c:	5f74706b 	svcpl	0x0074706b
 310:	6d73696d 	ldclvs	9, cr6, [r3, #-436]!	; 0xfffffe4c
 314:	68637461 	stmdavs	r3!, {r0, r5, r6, sl, ip, sp, lr}^
 318:	7465735f 	strbtvc	r7, [r5], #-863	; 0x35f
 31c:	66640030 			; <UNDEFINED> instruction: 0x66640030
 320:	765f7273 			; <UNDEFINED> instruction: 0x765f7273
 324:	69006c61 	stmdbvs	r0, {r0, r5, r6, sl, fp, sp, lr}
 328:	5f726166 	svcpl	0x00726166
 32c:	00746567 	rsbseq	r6, r4, r7, ror #10
 330:	72736669 	rsbsvc	r6, r3, #110100480	; 0x6900000
 334:	7465675f 	strbtvc	r6, [r5], #-1887	; 0x75f
 338:	74617700 	strbtvc	r7, [r1], #-1792	; 0x700
 33c:	74706863 	ldrbtvc	r6, [r0], #-2147	; 0x863
 340:	6e61685f 	mcrvs	8, 3, r6, cr1, cr15, {2}
 344:	72656c64 	rsbvc	r6, r5, #100, 24	; 0x6400
 348:	72620030 	rsbvc	r0, r2, #48	; 0x30
 34c:	5f74706b 	svcpl	0x0074706b
 350:	6d73696d 	ldclvs	9, cr6, [r3, #-436]!	; 0xfffffe4c
 354:	68637461 	stmdavs	r3!, {r0, r5, r6, sl, ip, sp, lr}^
 358:	7369645f 	cmnvc	r9, #1593835520	; 0x5f000000
 35c:	656c6261 	strbvs	r6, [ip, #-609]!	; 0x261
 360:	61640030 	cmnvs	r4, r0, lsr r0
 364:	61666174 	smcvs	26132	; 0x6614
 368:	5f746c75 	svcpl	0x00746c75
 36c:	6d6f7266 	sfmvs	f7, 2, [pc, #-408]!	; 1dc <__code_start__-0x7e24>
 370:	00646c5f 	rsbeq	r6, r4, pc, asr ip
 374:	34317063 	ldrtcc	r7, [r1], #-99	; 0x63
 378:	7276625f 	rsbsvc	r6, r6, #-268435451	; 0xf0000005
 37c:	65735f30 	ldrbvs	r5, [r3, #-3888]!	; 0xf30
 380:	61770074 	cmnvs	r7, r4, ror r0
 384:	65645f73 	strbvs	r5, [r4, #-3955]!	; 0xf73
 388:	66677562 	strbtvs	r7, [r7], -r2, ror #10
 38c:	746c7561 	strbtvc	r7, [ip], #-1377	; 0x561
 390:	6300725f 	movwvs	r7, #607	; 0x25f
 394:	5f343170 	svcpl	0x00343170
 398:	62616e65 	rsbvs	r6, r1, #1616	; 0x650
 39c:	6e00656c 	cfsh32vs	mvfx6, mvfx0, #60
 3a0:	6c756166 	ldfvse	f6, [r5], #-408	; 0xfffffe68
 3a4:	62007374 	andvs	r7, r0, #116, 6	; 0xd0000001
 3a8:	5f307276 	svcpl	0x00307276
 3ac:	006c6176 	rsbeq	r6, ip, r6, ror r1
 3b0:	72736664 	rsbsvc	r6, r3, #100, 12	; 0x6400000
 3b4:	7465675f 	strbtvc	r6, [r5], #-1887	; 0x75f
 3b8:	73797300 	cmnvc	r9, #0, 6
 3bc:	6c6c6163 	stfvse	f6, [ip], #-396	; 0xfffffe74
 3c0:	6365765f 	cmnvs	r5, #99614720	; 0x5f00000
 3c4:	00726f74 	rsbseq	r6, r2, r4, ror pc
 3c8:	66657270 			; <UNDEFINED> instruction: 0x66657270
 3cc:	68637465 	stmdavs	r3!, {r0, r2, r5, r6, sl, ip, sp, lr}^
 3d0:	756c665f 	strbvc	r6, [ip, #-1631]!	; 0x65f
 3d4:	735f6873 	cmpvc	pc, #7536640	; 0x730000
 3d8:	62007465 	andvs	r7, r0, #1694498816	; 0x65000000
 3dc:	5f307263 	svcpl	0x00307263
 3e0:	00676572 	rsbeq	r6, r7, r2, ror r5
 3e4:	646e6168 	strbtvs	r6, [lr], #-360	; 0x168
 3e8:	5f72656c 	svcpl	0x0072656c
 3ec:	66770074 			; <UNDEFINED> instruction: 0x66770074
 3f0:	675f7261 	ldrbvs	r7, [pc, -r1, ror #4]
 3f4:	73007465 	movwvc	r7, #1125	; 0x465
 3f8:	6e5f7379 	mrcvs	3, 2, r7, cr15, cr9, {3}
 3fc:	62006d75 	andvs	r6, r0, #7488	; 0x1d40
 400:	74706b72 	ldrbtvc	r6, [r0], #-2930	; 0xb72
 404:	7465735f 	strbtvc	r7, [r5], #-863	; 0x35f
 408:	63770030 	cmnvs	r7, #48	; 0x30
 40c:	735f3072 	cmpvc	pc, #114	; 0x72
 410:	69007465 	stmdbvs	r0, {r0, r2, r5, r6, sl, ip, sp, lr}
 414:	695f746e 	ldmdbvs	pc, {r1, r2, r3, r5, r6, sl, ip, sp, lr}^	; <UNPREDICTABLE>
 418:	0074696e 	rsbseq	r6, r4, lr, ror #18
 41c:	676e6973 			; <UNDEFINED> instruction: 0x676e6973
 420:	735f656c 	cmpvc	pc, #108, 10	; 0x1b000000
 424:	5f706574 	svcpl	0x00706574
 428:	646e6168 	strbtvs	r6, [lr], #-360	; 0x168
 42c:	0072656c 	rsbseq	r6, r2, ip, ror #10
 430:	63656863 	cmnvs	r5, #6488064	; 0x630000
 434:	657a5f6b 	ldrbvs	r5, [sl, #-3947]!	; 0xf6b
 438:	63006f72 	movwvs	r6, #3954	; 0xf72
 43c:	6b636568 	blvs	18d99e4 <__bss_end__+0x18cf45c>
 440:	746e692d 	strbtvc	r6, [lr], #-2349	; 0x92d
 444:	656c7265 	strbvs	r7, [ip, #-613]!	; 0x265
 448:	2e657661 	cdpcs	6, 6, cr7, cr5, cr1, {3}
 44c:	73750063 	cmnvc	r5, #99	; 0x63
 450:	745f7265 	ldrbvc	r7, [pc], #-613	; 458 <__code_start__-0x7ba8>
 454:	706d6172 	rsbvc	r6, sp, r2, ror r1
 458:	6e696c6f 	cdpvs	12, 6, cr6, cr9, cr15, {3}
 45c:	65725f65 	ldrbvs	r5, [r2, #-3941]!	; 0xf65
 460:	70630074 	rsbvc	r0, r3, r4, ror r0
 464:	675f7273 			; <UNDEFINED> instruction: 0x675f7273
 468:	65007465 	strvs	r7, [r0, #-1125]	; 0x465
 46c:	63657078 	cmnvs	r5, #120	; 0x78
 470:	5f646574 	svcpl	0x00646574
 474:	646e6168 	strbtvs	r6, [lr], #-360	; 0x168
 478:	6d00656c 	cfstr32vs	mvfx6, [r0, #-432]	; 0xfffffe50
 47c:	006b7361 	rsbeq	r7, fp, r1, ror #6
 480:	73746962 	cmnvc	r4, #1605632	; 0x188000
 484:	726c635f 	rsbvc	r6, ip, #2080374785	; 0x7c000001
 488:	65686300 	strbvs	r6, [r8, #-768]!	; 0x300
 48c:	6f5f6b63 	svcvs	0x005f6b63
 490:	635f656e 	cmpvs	pc, #461373440	; 0x1b800000
 494:	74697773 	strbtvc	r7, [r9], #-1907	; 0x773
 498:	6d006863 	stcvs	8, cr6, [r0, #-396]	; 0xfffffe74
 49c:	5f65646f 	svcpl	0x0065646f
 4a0:	00727473 	rsbseq	r7, r2, r3, ror r4
 4a4:	65646f6d 	strbvs	r6, [r4, #-3949]!	; 0xf6d
 4a8:	7465735f 	strbtvc	r7, [r5], #-863	; 0x35f
 4ac:	65686300 	strbvs	r6, [r8, #-768]!	; 0x300
 4b0:	735f6b63 	cmpvc	pc, #101376	; 0x18c00
 4b4:	65757165 	ldrbvs	r7, [r5, #-357]!	; 0x165
 4b8:	6169746e 	cmnvs	r9, lr, ror #8
 4bc:	7063006c 	rsbvc	r0, r3, ip, rrx
 4c0:	6f5f7273 	svcvs	0x005f7273
 4c4:	6200646c 	andvs	r6, r0, #108, 8	; 0x6c000000
 4c8:	5f737469 	svcpl	0x00737469
 4cc:	00746567 	rsbseq	r6, r4, r7, ror #10
 4d0:	72737063 	rsbsvc	r7, r3, #99	; 0x63
 4d4:	6573755f 	ldrbvs	r7, [r3, #-1375]!	; 0x55f
 4d8:	70630072 	rsbvc	r0, r3, r2, ror r0
 4dc:	6d007273 	sfmvs	f7, 4, [r0, #-460]	; 0xfffffe34
 4e0:	5f65646f 	svcpl	0x0065646f
 4e4:	6167656c 	cmnvs	r7, ip, ror #10
 4e8:	6f6d006c 	svcvs	0x006d006c
 4ec:	675f6564 	ldrbvs	r6, [pc, -r4, ror #10]
 4f0:	72007465 	andvc	r7, r0, #1694498816	; 0x65000000
 4f4:	00736765 	rsbseq	r6, r3, r5, ror #14
 4f8:	65646f6d 	strbvs	r6, [r4, #-3949]!	; 0xf6d
 4fc:	675f5f00 	ldrbvs	r5, [pc, -r0, lsl #30]
 500:	5f63756e 	svcpl	0x0063756e
 504:	6c5f6176 	ldfvse	f6, [pc], {118}	; 0x76
 508:	00747369 	rsbseq	r7, r4, r9, ror #6
 50c:	6362696c 	cmnvs	r2, #108, 18	; 0x1b0000
 510:	6972702f 	ldmdbvs	r2!, {r0, r1, r2, r3, r5, ip, sp, lr}^
 514:	2e6b746e 	cdpcs	4, 6, cr7, cr11, cr14, {3}
 518:	4e470063 	cdpmi	0, 4, cr0, cr7, cr3, {3}
 51c:	20432055 	subcs	r2, r3, r5, asr r0
 520:	2e382e34 	mrccs	14, 1, r2, cr8, cr4, {1}
 524:	6d2d2033 	stcvs	0, cr2, [sp, #-204]!	; 0xffffff34
 528:	3d757063 	ldclcc	0, cr7, [r5, #-396]!	; 0xfffffe74
 52c:	316d7261 	cmncc	sp, r1, ror #4
 530:	6a363731 	bvs	d8e1fc <__bss_end__+0xd83c74>
 534:	732d667a 	teqvc	sp, #127926272	; 0x7a00000
 538:	746d2d20 	strbtvc	r2, [sp], #-3360	; 0xd20
 53c:	3d656e75 	stclcc	14, cr6, [r5, #-468]!	; 0xfffffe2c
 540:	316d7261 	cmncc	sp, r1, ror #4
 544:	6a363731 	bvs	d8e210 <__bss_end__+0xd83c88>
 548:	732d667a 	teqvc	sp, #127926272	; 0x7a00000
 54c:	67672d20 	strbvs	r2, [r7, -r0, lsr #26]!
 550:	2d206264 	sfmcs	f6, 4, [r0, #-400]!	; 0xfffffe70
 554:	2d20674f 	stccs	7, cr6, [r0, #-316]!	; 0xfffffec4
 558:	3d647473 	cfstrdcc	mvd7, [r4, #-460]!	; 0xfffffe34
 55c:	39756e67 	ldmdbcc	r5!, {r0, r1, r2, r5, r6, r9, sl, fp, sp, lr}^
 560:	662d2039 			; <UNDEFINED> instruction: 0x662d2039
 564:	65657266 	strbvs	r7, [r5, #-614]!	; 0x266
 568:	6e617473 	mcrvs	4, 3, r7, cr1, cr3, {3}
 56c:	676e6964 	strbvs	r6, [lr, -r4, ror #18]!
 570:	5f617600 	svcpl	0x00617600
 574:	6e697270 	mcrvs	2, 3, r7, cr9, cr0, {3}
 578:	5f006b74 	svcpl	0x00006b74
 57c:	5f61765f 	svcpl	0x0061765f
 580:	7473696c 	ldrbtvc	r6, [r3], #-2412	; 0x96c
 584:	73552f00 	cmpvc	r5, #0, 30
 588:	2f737265 	svccs	0x00737265
 58c:	61697262 	cmnvs	r9, r2, ror #4
 590:	6e756a6e 	vsubvs.f32	s13, s10, s29
 594:	7365442f 	cmnvc	r5, #788529152	; 0x2f000000
 598:	706f746b 	rsbvc	r7, pc, fp, ror #8
 59c:	6863732f 	stmdavs	r3!, {r0, r1, r2, r3, r5, r8, r9, ip, sp, lr}^
 5a0:	2f6c6f6f 	svccs	0x006c6f6f
 5a4:	69727053 	ldmdbvs	r2!, {r0, r1, r4, r6, ip, sp, lr}^
 5a8:	3931676e 	ldmdbcc	r1!, {r1, r2, r3, r5, r6, r8, r9, sl, sp, lr}
 5ac:	432f3032 	teqmi	pc, #50	; 0x32
 5b0:	30343253 	eorscc	r3, r4, r3, asr r2
 5b4:	632f584c 	teqvs	pc, #76, 16	; 0x4c0000
 5b8:	30343273 	eorscc	r3, r4, r3, ror r2
 5bc:	322d786c 	eorcc	r7, sp, #108, 16	; 0x6c0000
 5c0:	72707330 	rsbsvc	r7, r0, #48, 6	; 0xc0000000
 5c4:	62696c2f 	rsbvs	r6, r9, #12032	; 0x2f00
 5c8:	5f006970 	svcpl	0x00006970
 5cc:	0070615f 	rsbseq	r6, r0, pc, asr r1
 5d0:	74726175 	ldrbtvc	r6, [r2], #-373	; 0x175
 5d4:	7475705f 	ldrbtvc	r7, [r5], #-95	; 0x5f
 5d8:	6e690063 	cdpvs	0, 6, cr0, cr9, cr3, {3}
 5dc:	6e726574 	mrcvs	5, 3, r6, cr2, cr4, {3}
 5e0:	705f6c61 	subsvc	r6, pc, r1, ror #24
 5e4:	68637475 	stmdavs	r3!, {r0, r2, r4, r5, r6, sl, ip, sp, lr}^
 5e8:	72007261 	andvc	r7, r0, #268435462	; 0x10000006
 5ec:	705f6970 	subsvc	r6, pc, r0, ror r9	; <UNPREDICTABLE>
 5f0:	68637475 	stmdavs	r3!, {r0, r2, r4, r5, r6, sl, ip, sp, lr}^
 5f4:	6c007261 	sfmvs	f7, 4, [r0], {97}	; 0x61
 5f8:	2f636269 	svccs	0x00636269
 5fc:	63747570 	cmnvs	r4, #112, 10	; 0x1c000000
 600:	2e726168 	rpwcssz	f6, f2, #0.0
 604:	70720063 	rsbsvc	r0, r2, r3, rrx
 608:	65735f69 	ldrbvs	r5, [r3, #-3945]!	; 0xf69
 60c:	75705f74 	ldrbvc	r5, [r0, #-3956]!	; 0xf74
 610:	6c006374 	stcvs	3, cr6, [r0], {116}	; 0x74
 614:	2f636269 	svccs	0x00636269
 618:	6b747570 	blvs	1d1dbe0 <__bss_end__+0x1d13658>
 61c:	6900632e 	stmdbvs	r0, {r1, r2, r3, r5, r8, r9, sp, lr}
 620:	7265746e 	rsbvc	r7, r5, #1845493760	; 0x6e000000
 624:	5f6c616e 	svcpl	0x006c616e
 628:	6b747570 	blvs	1d1dbf0 <__bss_end__+0x1d13668>
 62c:	746d6600 	strbtvc	r6, [sp], #-1536	; 0x600
 630:	6174735f 	cmnvs	r4, pc, asr r3
 634:	6e007472 	mcrvs	4, 0, r7, cr0, cr2, {3}
 638:	705f6765 	subsvc	r6, pc, r5, ror #14
 63c:	76657200 	strbtvc	r7, [r5], -r0, lsl #4
 640:	65737265 	ldrbvs	r7, [r3, #-613]!	; 0x265
 644:	64736900 	ldrbtvs	r6, [r3], #-2304	; 0x900
 648:	74696769 	strbtvc	r6, [r9], #-1897	; 0x769
 64c:	74757000 	ldrbtvc	r7, [r5], #-0
 650:	70665f73 	rsbvc	r5, r6, r3, ror pc
 654:	67697300 	strbvs	r7, [r9, -r0, lsl #6]!
 658:	5f64656e 	svcpl	0x0064656e
 65c:	696c0070 	stmdbvs	ip!, {r4, r5, r6}^
 660:	762f6362 	strtvc	r6, [pc], -r2, ror #6
 664:	72702d61 	rsbsvc	r2, r0, #6208	; 0x1840
 668:	6b746e69 	blvs	1d1c014 <__bss_end__+0x1d11a8c>
 66c:	7200632e 	andvc	r6, r0, #-1207959552	; 0xb8000000
 670:	735f6970 	cmpvc	pc, #112, 18	; 0x1c0000
 674:	6f5f7465 	svcvs	0x005f7465
 678:	75707475 	ldrbvc	r7, [r0, #-1141]!	; 0x475
 67c:	69770074 	ldmdbvs	r7!, {r2, r4, r5, r6}^
 680:	00687464 	rsbeq	r7, r8, r4, ror #8
 684:	63747570 	cmnvs	r4, #112, 10	; 0x1c000000
 688:	0070665f 	rsbseq	r6, r0, pc, asr r6
 68c:	74696d65 	strbtvc	r6, [r9], #-3429	; 0xd65
 690:	73696400 	cmnvc	r9, #0, 8
 694:	656c6261 	strbvs	r6, [ip, #-609]!	; 0x261
 698:	6361635f 	cmnvs	r1, #2080374785	; 0x7c000001
 69c:	73006568 	movwvc	r6, #1384	; 0x568
 6a0:	66666174 			; <UNDEFINED> instruction: 0x66666174
 6a4:	6372732d 	cmnvs	r2, #-1275068416	; 0xb4000000
 6a8:	6361632f 	cmnvs	r1, #-1140850688	; 0xbc000000
 6ac:	632e6568 	teqvs	lr, #104, 10	; 0x1a000000
 6b0:	62657200 	rsbvs	r7, r5, #0, 4
 6b4:	5f746f6f 	svcpl	0x00746f6f
 6b8:	646e6168 	strbtvs	r6, [lr], #-360	; 0x168
 6bc:	0072656c 	rsbseq	r6, r2, ip, ror #10
 6c0:	66617473 			; <UNDEFINED> instruction: 0x66617473
 6c4:	72732d66 	rsbsvc	r2, r3, #6528	; 0x1980
 6c8:	6c632f63 	stclvs	15, cr2, [r3], #-396	; 0xfffffe74
 6cc:	2d6e6165 	stfcse	f6, [lr, #-404]!	; 0xfffffe6c
 6d0:	6f626572 	svcvs	0x00626572
 6d4:	632e746f 	teqvs	lr, #1862270976	; 0x6f000000
 6d8:	69707200 	ldmdbvs	r0!, {r9, ip, sp, lr}^
 6dc:	6265725f 	rsbvs	r7, r5, #-268435451	; 0xf0000005
 6e0:	00746f6f 	rsbseq	r6, r4, pc, ror #30
 6e4:	616c6564 	cmnvs	ip, r4, ror #10
 6e8:	736d5f79 	cmnvc	sp, #484	; 0x1e4
 6ec:	625f5f00 	subsvs	r5, pc, #0, 30
 6f0:	735f7373 	cmpvc	pc, #-872415231	; 0xcc000001
 6f4:	74726174 	ldrbtvc	r6, [r2], #-372	; 0x174
 6f8:	5f005f5f 	svcpl	0x00005f5f
 6fc:	7373625f 	cmnvc	r3, #-268435451	; 0xf0000005
 700:	646e655f 	strbtvs	r6, [lr], #-1375	; 0x55f
 704:	63005f5f 	movwvs	r5, #3935	; 0xf5f
 708:	72617473 	rsbvc	r7, r1, #1929379840	; 0x73000000
 70c:	61685f74 	smcvs	34292	; 0x85f4
 710:	656c646e 	strbvs	r6, [ip, #-1134]!	; 0x46e
 714:	73620072 	cmnvc	r2, #114	; 0x72
 718:	6e655f73 	mcrvs	15, 3, r5, cr5, cr3, {3}
 71c:	635f0064 	cmpvs	pc, #100	; 0x64
 720:	72617473 	rsbvc	r7, r1, #1929379840	; 0x73000000
 724:	74730074 	ldrbtvc	r0, [r3], #-116	; 0x74
 728:	2d666661 	stclcs	6, cr6, [r6, #-388]!	; 0xfffffe7c
 72c:	2f637273 	svccs	0x00637273
 730:	61747363 	cmnvs	r4, r3, ror #6
 734:	632e7472 	teqvs	lr, #1912602624	; 0x72000000
 738:	61747300 	cmnvs	r4, r0, lsl #6
 73c:	732d6666 	teqvc	sp, #106954752	; 0x6600000
 740:	642f6372 	strtvs	r6, [pc], #-882	; 748 <__code_start__-0x78b8>
 744:	75616665 	strbvc	r6, [r1, #-1637]!	; 0x665
 748:	682d746c 	stmdavs	sp!, {r2, r3, r5, r6, sl, ip, sp, lr}
 74c:	6c646e61 	stclvs	14, cr6, [r4], #-388	; 0xfffffe7c
 750:	662d7265 	strtvs	r7, [sp], -r5, ror #4
 754:	2e747361 	cdpcs	3, 7, cr7, cr4, cr1, {3}
 758:	61660063 	cmnvs	r6, r3, rrx
 75c:	695f7473 	ldmdbvs	pc, {r0, r1, r4, r5, r6, sl, ip, sp, lr}^	; <UNPREDICTABLE>
 760:	7265746e 	rsbvc	r7, r5, #1845493760	; 0x6e000000
 764:	74707572 	ldrbtvc	r7, [r0], #-1394	; 0x572
 768:	6365765f 	cmnvs	r5, #99614720	; 0x5f00000
 76c:	00726f74 	rsbseq	r6, r2, r4, ror pc
 770:	65736572 	ldrbvs	r6, [r3, #-1394]!	; 0x572
 774:	65765f74 	ldrbvs	r5, [r6, #-3956]!	; 0xf74
 778:	726f7463 	rsbvc	r7, pc, #1660944384	; 0x63000000
 77c:	61747300 	cmnvs	r4, r0, lsl #6
 780:	732d6666 	teqvc	sp, #106954752	; 0x6600000
 784:	642f6372 	strtvs	r6, [pc], #-882	; 78c <__code_start__-0x7874>
 788:	75616665 	strbvc	r6, [r1, #-1637]!	; 0x665
 78c:	682d746c 	stmdavs	sp!, {r2, r3, r5, r6, sl, ip, sp, lr}
 790:	6c646e61 	stclvs	14, cr6, [r4], #-388	; 0xfffffe7c
 794:	722d7265 	eorvc	r7, sp, #1342177286	; 0x50000006
 798:	74657365 	strbtvc	r7, [r5], #-869	; 0x365
 79c:	7300632e 	movwvc	r6, #814	; 0x32e
 7a0:	66666174 			; <UNDEFINED> instruction: 0x66666174
 7a4:	6372732d 	cmnvs	r2, #-1275068416	; 0xb4000000
 7a8:	6665642f 	strbtvs	r6, [r5], -pc, lsr #8
 7ac:	746c7561 	strbtvc	r7, [ip], #-1377	; 0x561
 7b0:	6e61682d 	cdpvs	8, 6, cr6, cr1, cr13, {1}
 7b4:	72656c64 	rsbvc	r6, r5, #100, 24	; 0x6400
 7b8:	646e752d 	strbtvs	r7, [lr], #-1325	; 0x52d
 7bc:	6e696665 	cdpvs	6, 6, cr6, cr9, cr5, {3}
 7c0:	692d6465 	pushvs	{r0, r2, r5, r6, sl, sp, lr}
 7c4:	2e74736e 	cdpcs	3, 7, cr7, cr4, cr14, {3}
 7c8:	6e750063 	cdpvs	0, 7, cr0, cr5, cr3, {3}
 7cc:	69666564 	stmdbvs	r6!, {r2, r5, r6, r8, sl, sp, lr}^
 7d0:	5f64656e 	svcpl	0x0064656e
 7d4:	74736e69 	ldrbtvc	r6, [r3], #-3689	; 0xe69
 7d8:	74637572 	strbtvc	r7, [r3], #-1394	; 0x572
 7dc:	5f6e6f69 	svcpl	0x006e6f69
 7e0:	74636576 	strbtvc	r6, [r3], #-1398	; 0x576
 7e4:	7300726f 	movwvc	r7, #623	; 0x26f
 7e8:	66666174 			; <UNDEFINED> instruction: 0x66666174
 7ec:	6372732d 	cmnvs	r2, #-1275068416	; 0xb4000000
 7f0:	6665642f 	strbtvs	r6, [r5], -pc, lsr #8
 7f4:	746c7561 	strbtvc	r7, [ip], #-1377	; 0x561
 7f8:	6e61682d 	cdpvs	8, 6, cr6, cr1, cr13, {1}
 7fc:	72656c64 	rsbvc	r6, r5, #100, 24	; 0x6400
 800:	00632e73 	rsbeq	r2, r3, r3, ror lr
 804:	5f515249 	svcpl	0x00515249
 808:	646e6570 	strbtvs	r6, [lr], #-1392	; 0x570
 80c:	5f676e69 	svcpl	0x00676e69
 810:	69440032 	stmdbvs	r4, {r1, r4, r5}^
 814:	6c626173 	stfvse	f6, [r2], #-460	; 0xfffffe34
 818:	61425f65 	cmpvs	r2, r5, ror #30
 81c:	5f636973 	svcpl	0x00636973
 820:	73515249 	cmpvc	r1, #-1879048188	; 0x90000004
 824:	51494600 	cmppl	r9, r0, lsl #12
 828:	6e6f635f 	mcrvs	3, 3, r6, cr15, cr15, {2}
 82c:	6c6f7274 	sfmvs	f7, 2, [pc], #-464	; 664 <__code_start__-0x799c>
 830:	6e695f00 	cdpvs	15, 6, cr5, cr9, cr0, {0}
 834:	72726574 	rsbsvc	r6, r2, #116, 10	; 0x1d000000
 838:	5f747075 	svcpl	0x00747075
 83c:	6c626174 	stfvse	f6, [r2], #-464	; 0xfffffe30
 840:	52490065 	subpl	r0, r9, #101	; 0x65
 844:	61625f51 	cmnvs	r2, r1, asr pc
 848:	5f636973 	svcpl	0x00636973
 84c:	646e6570 	strbtvs	r6, [lr], #-1392	; 0x570
 850:	00676e69 	rsbeq	r6, r7, r9, ror #28
 854:	62616e45 	rsbvs	r6, r1, #1104	; 0x450
 858:	425f656c 	subsmi	r6, pc, #108, 10	; 0x1b000000
 85c:	63697361 	cmnvs	r9, #-2080374783	; 0x84000001
 860:	5152495f 	cmppl	r2, pc, asr r9
 864:	6e450073 	mcrvs	0, 2, r0, cr5, cr3, {3}
 868:	656c6261 	strbvs	r6, [ip, #-609]!	; 0x261
 86c:	5152495f 	cmppl	r2, pc, asr r9
 870:	00315f73 	eorseq	r5, r1, r3, ror pc
 874:	62616e45 	rsbvs	r6, r1, #1104	; 0x450
 878:	495f656c 	ldmdbmi	pc, {r2, r3, r5, r6, r8, sl, sp, lr}^	; <UNPREDICTABLE>
 87c:	5f735152 	svcpl	0x00735152
 880:	695f0032 	ldmdbvs	pc, {r1, r4, r5}^	; <UNPREDICTABLE>
 884:	7265746e 	rsbvc	r7, r5, #1845493760	; 0x6e000000
 888:	74707572 	ldrbtvc	r7, [r0], #-1394	; 0x572
 88c:	6261745f 	rsbvs	r7, r1, #1593835520	; 0x5f000000
 890:	655f656c 	ldrbvs	r6, [pc, #-1388]	; 32c <__code_start__-0x7cd4>
 894:	6400646e 	strvs	r6, [r0], #-1134	; 0x46e
 898:	625f7665 	subsvs	r7, pc, #105906176	; 0x6500000
 89c:	69727261 	ldmdbvs	r2!, {r0, r5, r6, r9, ip, sp, lr}^
 8a0:	73007265 	movwvc	r7, #613	; 0x265
 8a4:	66666174 			; <UNDEFINED> instruction: 0x66666174
 8a8:	6372732d 	cmnvs	r2, #-1275068416	; 0xb4000000
 8ac:	746e692f 	strbtvc	r6, [lr], #-2351	; 0x92f
 8b0:	75727265 	ldrbvc	r7, [r2, #-613]!	; 0x265
 8b4:	2d737470 	cfldrdcs	mvd7, [r3, #-448]!	; 0xfffffe40
 8b8:	00632e63 	rsbeq	r2, r3, r3, ror #28
 8bc:	5f515249 	svcpl	0x00515249
 8c0:	65736142 	ldrbvs	r6, [r3, #-322]!	; 0x142
 8c4:	54555000 	ldrbpl	r5, [r5], #-0
 8c8:	44003233 	strmi	r3, [r0], #-563	; 0x233
 8cc:	62617369 	rsbvs	r7, r1, #-1543503871	; 0xa4000001
 8d0:	495f656c 	ldmdbmi	pc, {r2, r3, r5, r6, r8, sl, sp, lr}^	; <UNPREDICTABLE>
 8d4:	5f735152 	svcpl	0x00735152
 8d8:	69440031 	stmdbvs	r4, {r0, r4, r5}^
 8dc:	6c626173 	stfvse	f6, [r2], #-460	; 0xfffffe34
 8e0:	52495f65 	subpl	r5, r9, #404	; 0x194
 8e4:	325f7351 	subscc	r7, pc, #1140850689	; 0x44000001
 8e8:	51524900 	cmppl	r2, r0, lsl #18
 8ec:	6e65705f 	mcrvs	0, 3, r7, cr5, cr15, {2}
 8f0:	676e6964 	strbvs	r6, [lr, -r4, ror #18]!
 8f4:	6100315f 	tstvs	r0, pc, asr r1
 8f8:	73755f74 	cmnvc	r5, #116, 30	; 0x1d0
 8fc:	6c5f7265 	lfmvs	f7, 2, [pc], {101}	; 0x65
 900:	6c657665 	stclvs	6, cr7, [r5], #-404	; 0xfffffe6c
 904:	61747300 	cmnvs	r4, r0, lsl #6
 908:	732d6666 	teqvc	sp, #106954752	; 0x6600000
 90c:	722f6372 	eorvc	r6, pc, #-939524095	; 0xc8000001
 910:	6f6f6265 	svcvs	0x006f6265
 914:	00632e74 	rsbeq	r2, r3, r4, ror lr
 918:	525f4d50 	subspl	r4, pc, #80, 26	; 0x1400
 91c:	5f435453 	svcpl	0x00435453
 920:	46435257 			; <UNDEFINED> instruction: 0x46435257
 924:	55465f47 	strbpl	r5, [r6, #-3911]	; 0xf47
 928:	525f4c4c 	subspl	r4, pc, #76, 24	; 0x4c00
 92c:	54455345 	strbpl	r5, [r5], #-837	; 0x345
 930:	5f4d5000 	svcpl	0x004d5000
 934:	474f4457 	smlsldmi	r4, pc, r7, r4	; <UNPREDICTABLE>
 938:	74657300 	strbtvc	r7, [r5], #-768	; 0x300
 93c:	6573755f 	ldrbvs	r7, [r3, #-1375]!	; 0x55f
 940:	656c5f72 	strbvs	r5, [ip, #-3954]!	; 0xf72
 944:	006c6576 	rsbeq	r6, ip, r6, ror r5
 948:	505f4d50 	subspl	r4, pc, r0, asr sp	; <UNPREDICTABLE>
 94c:	57535341 	ldrbpl	r5, [r3, -r1, asr #6]
 950:	0044524f 	subeq	r5, r4, pc, asr #4
 954:	525f4d50 	subspl	r4, pc, #80, 26	; 0x1400
 958:	00435453 	subeq	r5, r3, r3, asr r4
 95c:	656d6974 	strbvs	r6, [sp, #-2420]!	; 0x974
 960:	65675f72 	strbvs	r5, [r7, #-3954]!	; 0xf72
 964:	73755f74 	cmnvc	r5, #116, 30	; 0x1d0
 968:	725f6365 	subsvc	r6, pc, #-1811939327	; 0x94000001
 96c:	64007761 	strvs	r7, [r0], #-1889	; 0x761
 970:	79616c65 	stmdbvc	r1!, {r0, r2, r5, r6, sl, fp, sp, lr}^
 974:	6365735f 	cmnvs	r5, #2080374785	; 0x7c000001
 978:	61747300 	cmnvs	r4, r0, lsl #6
 97c:	732d6666 	teqvc	sp, #106954752	; 0x6600000
 980:	742f6372 	strtvc	r6, [pc], #-882	; 988 <__code_start__-0x7678>
 984:	72656d69 	rsbvc	r6, r5, #6720	; 0x1a40
 988:	4700632e 	strmi	r6, [r0, -lr, lsr #6]
 98c:	32335445 	eorscc	r5, r3, #1157627904	; 0x45000000
 990:	63697400 	cmnvs	r9, #0, 8
 994:	6400736b 	strvs	r7, [r0], #-875	; 0x36b
 998:	79616c65 	stmdbvc	r1!, {r0, r2, r5, r6, sl, fp, sp, lr}^
 99c:	6379635f 	cmnvs	r9, #2080374785	; 0x7c000001
 9a0:	0073656c 	rsbseq	r6, r3, ip, ror #10
 9a4:	616c6564 	cmnvs	ip, r4, ror #10
 9a8:	73755f79 	cmnvc	r5, #484	; 0x1e4
 9ac:	6d697400 	cfstrdvs	mvd7, [r9, #-0]
 9b0:	675f7265 	ldrbvs	r7, [pc, -r5, ror #4]
 9b4:	755f7465 	ldrbvc	r7, [pc, #-1125]	; 557 <__code_start__-0x7aa9>
 9b8:	00636573 	rsbeq	r6, r3, r3, ror r5
 9bc:	6f73645f 	svcvs	0x0073645f
 9c0:	6e61685f 	mcrvs	8, 3, r6, cr1, cr15, {2}
 9c4:	00656c64 	rsbeq	r6, r5, r4, ror #24
 9c8:	7a69735f 	bvc	1a5d74c <__bss_end__+0x1a531c4>
 9cc:	725f0065 	subsvc	r0, pc, #101	; 0x65
 9d0:	34646e61 	strbtcc	r6, [r4], #-3681	; 0xe61
 9d4:	655f0038 	ldrbvs	r0, [pc, #-56]	; 9a4 <__code_start__-0x765c>
 9d8:	6772656d 	ldrbvs	r6, [r2, -sp, ror #10]!
 9dc:	79636e65 	stmdbvc	r3!, {r0, r2, r5, r6, r9, sl, fp, sp, lr}^
 9e0:	72617500 	rsbvc	r7, r1, #0, 10
 9e4:	6e695f74 	mcrvs	15, 3, r5, cr9, cr4, {3}
 9e8:	5f007469 	svcpl	0x00007469
 9ec:	74726377 	ldrbtvc	r6, [r2], #-887	; 0x377
 9f0:	5f626d6f 	svcpl	0x00626d6f
 9f4:	74617473 	strbtvc	r7, [r1], #-1139	; 0x473
 9f8:	775f0065 	ldrbvc	r0, [pc, -r5, rrx]
 9fc:	74727363 	ldrbtvc	r7, [r2], #-867	; 0x363
 a00:	73626d6f 	cmnvc	r2, #7104	; 0x1bc0
 a04:	6174735f 	cmnvs	r4, pc, asr r3
 a08:	5f006574 	svcpl	0x00006574
 a0c:	7366626c 	cmnvc	r6, #108, 4	; 0xc0000006
 a10:	00657a69 	rsbeq	r7, r5, r9, ror #20
 a14:	4f495047 	svcmi	0x00495047
 a18:	4e55465f 	mrcmi	6, 2, r4, cr5, cr15, {2}
 a1c:	4e495f43 	cdpmi	15, 4, cr5, cr9, cr3, {2}
 a20:	00545550 	subseq	r5, r4, r0, asr r5
 a24:	72626d5f 	rsbvc	r6, r2, #6080	; 0x17c0
 a28:	63776f74 	cmnvs	r7, #116, 30	; 0x1d0
 a2c:	6174735f 	cmnvs	r4, pc, asr r3
 a30:	5f006574 	svcpl	0x00006574
 a34:	6f746377 	svcvs	0x00746377
 a38:	735f626d 	cmpvc	pc, #-805306362	; 0xd0000006
 a3c:	65746174 	ldrbvs	r6, [r4, #-372]!	; 0x174
 a40:	745f5f00 	ldrbvc	r5, [pc], #-3840	; a48 <__code_start__-0x75b8>
 a44:	65735f6d 	ldrbvs	r5, [r3, #-3949]!	; 0xf6d
 a48:	74730063 	ldrbtvc	r0, [r3], #-99	; 0x63
 a4c:	5f007461 	svcpl	0x00007461
 a50:	66756275 			; <UNDEFINED> instruction: 0x66756275
 a54:	49504700 	ldmdbmi	r0, {r8, r9, sl, lr}^
 a58:	55465f4f 	strbpl	r5, [r6, #-3919]	; 0xf4f
 a5c:	415f434e 	cmpmi	pc, lr, asr #6
 a60:	0031544c 	eorseq	r5, r1, ip, asr #8
 a64:	7361625f 	cmnvc	r1, #-268435451	; 0xf0000005
 a68:	6e630065 	cdpvs	0, 6, cr0, cr3, cr5, {3}
 a6c:	5f006c74 	svcpl	0x00006c74
 a70:	5f6d745f 	svcpl	0x006d745f
 a74:	72756f68 	rsbsvc	r6, r5, #104, 30	; 0x1a0
 a78:	735f5f00 	cmpvc	pc, #0, 30
 a7c:	6f5f0066 	svcvs	0x005f0066
 a80:	78655f6e 	stmdavc	r5!, {r1, r2, r3, r5, r6, r8, r9, sl, fp, ip, lr}^
 a84:	615f7469 	cmpvs	pc, r9, ror #8
 a88:	00736772 	rsbseq	r6, r3, r2, ror r7
 a8c:	6f6f635f 	svcvs	0x006f635f
 a90:	0065696b 	rsbeq	r6, r5, fp, ror #18
 a94:	67735f5f 			; <UNDEFINED> instruction: 0x67735f5f
 a98:	0065756c 	rsbeq	r7, r5, ip, ror #10
 a9c:	616c665f 	cmnvs	ip, pc, asr r6
 aa0:	5f007367 	svcpl	0x00007367
 aa4:	635f7369 	cmpvs	pc, #-1543503871	; 0xa4000001
 aa8:	5f006178 	svcpl	0x00006178
 aac:	69647473 	stmdbvs	r4!, {r0, r1, r4, r5, r6, sl, ip, sp, lr}^
 ab0:	625f006e 	subsvs	r0, pc, #110	; 0x6e
 ab4:	69736b6c 	ldmdbvs	r3!, {r2, r3, r5, r6, r8, r9, fp, sp, lr}^
 ab8:	7500657a 	strvc	r6, [r0, #-1402]	; 0x57a
 abc:	2e747261 	cdpcs	2, 7, cr7, cr4, cr1, {3}
 ac0:	75610063 	strbvc	r0, [r1, #-99]!	; 0x63
 ac4:	65705f78 	ldrbvs	r5, [r0, #-3960]!	; 0xf78
 ac8:	68706972 	ldmdavs	r0!, {r1, r4, r5, r6, r8, fp, sp, lr}^
 acc:	635f0073 	cmpvs	pc, #115	; 0x73
 ad0:	75627476 	strbvc	r7, [r2, #-1142]!	; 0x476
 ad4:	682f0066 	stmdavs	pc!, {r1, r2, r5, r6}	; <UNPREDICTABLE>
 ad8:	2f656d6f 	svccs	0x00656d6f
 adc:	6c676e65 	stclvs	14, cr6, [r7], #-404	; 0xfffffe6c
 ae0:	632f7265 	teqvs	pc, #1342177286	; 0x50000006
 ae4:	7373616c 	cmnvc	r3, #108, 2
 ae8:	3273632f 	rsbscc	r6, r3, #-1140850688	; 0xbc000000
 aec:	786c3034 	stmdavc	ip!, {r2, r4, r5, ip, sp}^
 af0:	7330322d 	teqvc	r0, #-805306366	; 0xd0000002
 af4:	6c2f7270 	sfmvs	f7, 4, [pc], #-448	; 93c <__code_start__-0x76c4>
 af8:	69706269 	ldmdbvs	r0!, {r0, r3, r5, r6, r9, sp, lr}^
 afc:	6174732f 	cmnvs	r4, pc, lsr #6
 b00:	702d6666 	eorvc	r6, sp, r6, ror #12
 b04:	61766972 	cmnvs	r6, r2, ror r9
 b08:	5f006574 	svcpl	0x00006574
 b0c:	7273626d 	rsbsvc	r6, r3, #-805306362	; 0xd0000006
 b10:	63776f74 	cmnvs	r7, #116, 30	; 0x1d0
 b14:	74735f73 	ldrbtvc	r5, [r3], #-3955	; 0xf73
 b18:	00657461 	rsbeq	r7, r5, r1, ror #8
 b1c:	72626d5f 	rsbvc	r6, r2, #6080	; 0x17c0
 b20:	5f6e656c 	svcpl	0x006e656c
 b24:	74617473 	strbtvc	r7, [r1], #-1139	; 0x473
 b28:	665f0065 	ldrbvs	r0, [pc], -r5, rrx
 b2c:	6772616e 	ldrbvs	r6, [r2, -lr, ror #2]!
 b30:	75610073 	strbvc	r0, [r1, #-115]!	; 0x73
 b34:	6e655f78 	mcrvs	15, 3, r5, cr5, cr8, {3}
 b38:	656c6261 	strbvs	r6, [ip, #-609]!	; 0x261
 b3c:	665f0073 			; <UNDEFINED> instruction: 0x665f0073
 b40:	5f00736e 	svcpl	0x0000736e
 b44:	6e676973 	mcrvs	9, 3, r6, cr7, cr3, {3}
 b48:	72617500 	rsbvc	r7, r1, #0, 10
 b4c:	61635f74 	smcvs	13812	; 0x35f4
 b50:	75705f6e 	ldrbvc	r5, [r0, #-3950]!	; 0xf6e
 b54:	5f006374 	svcpl	0x00006374
 b58:	636f6c66 	cmnvs	pc, #26112	; 0x6600
 b5c:	00745f6b 	rsbseq	r5, r4, fp, ror #30
 b60:	6474735f 	ldrbtvs	r7, [r4], #-863	; 0x35f
 b64:	00727265 	rsbseq	r7, r2, r5, ror #4
 b68:	6769425f 			; <UNDEFINED> instruction: 0x6769425f
 b6c:	00746e69 	rsbseq	r6, r4, r9, ror #28
 b70:	6d61675f 	stclvs	7, cr6, [r1, #-380]!	; 0xfffffe84
 b74:	735f616d 	cmpvc	pc, #1073741851	; 0x4000001b
 b78:	676e6769 	strbvs	r6, [lr, -r9, ror #14]!
 b7c:	5f006d61 	svcpl	0x00006d61
 b80:	75736572 	ldrbvc	r6, [r3, #-1394]!	; 0x572
 b84:	6b5f746c 	blvs	17ddd3c <__bss_end__+0x17d37b4>
 b88:	745f5f00 	ldrbvc	r5, [pc], #-3840	; b90 <__code_start__-0x7470>
 b8c:	5f5f006d 	svcpl	0x005f006d
 b90:	62686377 	rsbvs	r6, r8, #-603979775	; 0xdc000001
 b94:	72617500 	rsbvc	r7, r1, #0, 10
 b98:	65675f74 	strbvs	r5, [r7, #-3956]!	; 0xf74
 b9c:	5f006374 	svcpl	0x00006374
 ba0:	6f647473 	svcvs	0x00647473
 ba4:	5f007475 	svcpl	0x00007475
 ba8:	6c747663 	ldclvs	6, cr7, [r4], #-396	; 0xfffffe74
 bac:	5f006e65 	svcpl	0x00006e65
 bb0:	656c6966 	strbvs	r6, [ip, #-2406]!	; 0x966
 bb4:	696e5f00 	stmdbvs	lr!, {r8, r9, sl, fp, ip, lr}^
 bb8:	0073626f 	rsbseq	r6, r3, pc, ror #4
 bbc:	6574615f 	ldrbvs	r6, [r4, #-351]!	; 0x15f
 bc0:	30746978 	rsbscc	r6, r4, r8, ror r9
 bc4:	69735f00 	ldmdbvs	r3!, {r8, r9, sl, fp, ip, lr}^
 bc8:	6c616e67 	stclvs	14, cr6, [r1], #-412	; 0xfffffe64
 bcc:	6675625f 			; <UNDEFINED> instruction: 0x6675625f
 bd0:	73615f00 	cmnvc	r1, #0, 30
 bd4:	6d697463 	cfstrdvs	mvd7, [r9, #-396]!	; 0xfffffe74
 bd8:	75625f65 	strbvc	r5, [r2, #-3941]!	; 0xf65
 bdc:	725f0066 	subsvc	r0, pc, #102	; 0x66
 be0:	6c757365 	ldclvs	3, cr7, [r5], #-404	; 0xfffffe6c
 be4:	5f5f0074 	svcpl	0x005f0074
 be8:	00686377 	rsbeq	r6, r8, r7, ror r3
 bec:	4f495047 	svcmi	0x00495047
 bf0:	4e55465f 	mrcmi	6, 2, r4, cr5, cr15, {2}
 bf4:	4c415f43 	mcrrmi	15, 4, r5, r1, cr3
 bf8:	77003254 	smlsdvc	r0, r4, r2, r3
 bfc:	5f746e69 	svcpl	0x00746e69
 c00:	6c5f0074 	mrrcvs	0, 7, r0, pc, cr4	; <UNPREDICTABLE>
 c04:	006b636f 	rsbeq	r6, fp, pc, ror #6
 c08:	616c665f 	cmnvs	ip, pc, asr r6
 c0c:	00327367 	eorseq	r7, r2, r7, ror #6
 c10:	6d745f5f 	ldclvs	15, cr5, [r4, #-380]!	; 0xfffffe84
 c14:	6165795f 	cmnvs	r5, pc, asr r9
 c18:	6f5f0072 	svcvs	0x005f0072
 c1c:	65736666 	ldrbvs	r6, [r3, #-1638]!	; 0x666
 c20:	70670074 	rsbvc	r0, r7, r4, ror r0
 c24:	735f6f69 	cmpvc	pc, #420	; 0x1a4
 c28:	665f7465 	ldrbvs	r7, [pc], -r5, ror #8
 c2c:	74636e75 	strbtvc	r6, [r3], #-3701	; 0xe75
 c30:	006e6f69 	rsbeq	r6, lr, r9, ror #30
 c34:	78656e5f 	stmdavc	r5!, {r0, r1, r2, r3, r4, r6, r9, sl, fp, sp, lr}^
 c38:	5f006674 	svcpl	0x00006674
 c3c:	5f6d745f 	svcpl	0x006d745f
 c40:	006e6f6d 	rsbeq	r6, lr, sp, ror #30
 c44:	6574615f 	ldrbvs	r6, [r4, #-351]!	; 0x15f
 c48:	00746978 	rsbseq	r6, r4, r8, ror r9
 c4c:	64735f5f 	ldrbtvs	r5, [r3], #-3935	; 0xf5f
 c50:	6e696469 	cdpvs	4, 6, cr6, cr9, cr9, {3}
 c54:	5f007469 	svcpl	0x00007469
 c58:	5f66666f 	svcpl	0x0066666f
 c5c:	61750074 	cmnvs	r5, r4, ror r0
 c60:	5f007472 	svcpl	0x00007472
 c64:	65657266 	strbvs	r7, [r5, #-614]!	; 0x266
 c68:	7473696c 	ldrbtvc	r6, [r3], #-2412	; 0x96c
 c6c:	4f4c5f00 	svcmi	0x004c5f00
 c70:	525f4b43 	subspl	r4, pc, #68608	; 0x10c00
 c74:	52554345 	subspl	r4, r5, #335544321	; 0x14000001
 c78:	45564953 	ldrbmi	r4, [r6, #-2387]	; 0x953
 c7c:	5f00545f 	svcpl	0x0000545f
 c80:	0077656e 	rsbseq	r6, r7, lr, ror #10
 c84:	655f685f 	ldrbvs	r6, [pc, #-2143]	; 42d <__code_start__-0x7bd3>
 c88:	6f6e7272 	svcvs	0x006e7272
 c8c:	745f5f00 	ldrbvc	r5, [pc], #-3840	; c94 <__code_start__-0x736c>
 c90:	64795f6d 	ldrbtvs	r5, [r9], #-3949	; 0xf6d
 c94:	5f007961 	svcpl	0x00007961
 c98:	7562735f 	strbvc	r7, [r2, #-863]!	; 0x35f
 c9c:	695f0066 	ldmdbvs	pc, {r1, r2, r5, r6}^	; <UNPREDICTABLE>
 ca0:	0073626f 	rsbseq	r6, r3, pc, ror #4
 ca4:	49465f5f 	stmdbmi	r6, {r0, r1, r2, r3, r4, r6, r8, r9, sl, fp, ip, lr}^
 ca8:	5f00454c 	svcpl	0x0000454c
 cac:	7473626d 	ldrbtvc	r6, [r3], #-621	; 0x26d
 cb0:	5f657461 	svcpl	0x00657461
 cb4:	5f5f0074 	svcpl	0x005f0074
 cb8:	4c494673 	mcrrmi	6, 7, r4, r9, cr3
 cbc:	6d5f0045 	ldclvs	0, cr0, [pc, #-276]	; bb0 <__code_start__-0x7450>
 cc0:	61747362 	cmnvs	r4, r2, ror #6
 cc4:	5f006574 	svcpl	0x00006574
 cc8:	646e6172 	strbtvs	r6, [lr], #-370	; 0x172
 ccc:	78656e5f 	stmdavc	r5!, {r0, r1, r2, r3, r4, r6, r9, sl, fp, sp, lr}^
 cd0:	6d5f0074 	ldclvs	0, cr0, [pc, #-464]	; b08 <__code_start__-0x74f8>
 cd4:	6e656c62 	cdpvs	12, 6, cr6, cr5, cr2, {3}
 cd8:	6174735f 	cmnvs	r4, pc, asr r3
 cdc:	5f006574 	svcpl	0x00006574
 ce0:	00636e69 	rsbeq	r6, r3, r9, ror #28
 ce4:	646e695f 	strbtvs	r6, [lr], #-2399	; 0x95f
 ce8:	75635f00 	strbvc	r5, [r3, #-3840]!	; 0xf00
 cec:	6e657272 	mcrvs	2, 3, r7, cr5, cr2, {3}
 cf0:	6f6c5f74 	svcvs	0x006c5f74
 cf4:	656c6163 	strbvs	r6, [ip, #-355]!	; 0x163
 cf8:	635f5f00 	cmpvs	pc, #0, 30
 cfc:	6e61656c 	cdpvs	5, 6, cr6, cr1, cr12, {3}
 d00:	5f007075 	svcpl	0x00007075
 d04:	7778616d 	ldrbvc	r6, [r8, -sp, ror #2]!
 d08:	5f007364 	svcpl	0x00007364
 d0c:	6e656572 	mcrvs	5, 3, r6, cr5, cr2, {3}
 d10:	735f0074 	cmpvc	pc, #116	; 0x74
 d14:	00646565 	rsbeq	r6, r4, r5, ror #10
 d18:	6f635f5f 	svcvs	0x00635f5f
 d1c:	00746e75 	rsbseq	r6, r4, r5, ror lr
 d20:	61765f5f 	cmnvs	r6, pc, asr pc
 d24:	0065756c 	rsbeq	r7, r5, ip, ror #10
 d28:	6565735f 	strbvs	r7, [r5, #-863]!	; 0x35f
 d2c:	6162006b 	cmnvs	r2, fp, rrx
 d30:	5f006475 	svcpl	0x00006475
 d34:	736f7066 	cmnvc	pc, #102	; 0x66
 d38:	5f00745f 	svcpl	0x0000745f
 d3c:	5f6d745f 	svcpl	0x006d745f
 d40:	006e696d 	rsbeq	r6, lr, sp, ror #18
 d44:	61726373 	cmnvs	r2, r3, ror r3
 d48:	00686374 	rsbeq	r6, r8, r4, ror r3
 d4c:	6c756d5f 	ldclvs	13, cr6, [r5], #-380	; 0xfffffe84
 d50:	75700074 	ldrbvc	r0, [r0, #-116]!	; 0x74
 d54:	00323374 	eorseq	r3, r2, r4, ror r3
 d58:	20554e47 	subscs	r4, r5, r7, asr #28
 d5c:	20393943 	eorscs	r3, r9, r3, asr #18
 d60:	2e332e36 	mrccs	14, 1, r2, cr3, cr6, {1}
 d64:	30322031 	eorscc	r2, r2, r1, lsr r0
 d68:	36303731 			; <UNDEFINED> instruction: 0x36303731
 d6c:	2d203032 	stccs	0, cr3, [r0, #-200]!	; 0xffffff38
 d70:	7570636d 	ldrbvc	r6, [r0, #-877]!	; 0x36d
 d74:	6d72613d 	ldfvse	f6, [r2, #-244]!	; 0xffffff0c
 d78:	36373131 			; <UNDEFINED> instruction: 0x36373131
 d7c:	2d667a6a 	vstmdbcs	r6!, {s15-s120}
 d80:	6d2d2073 	stcvs	0, cr2, [sp, #-460]!	; 0xfffffe34
 d84:	656e7574 	strbvs	r7, [lr, #-1396]!	; 0x574
 d88:	6d72613d 	ldfvse	f6, [r2, #-244]!	; 0xffffff0c
 d8c:	36373131 			; <UNDEFINED> instruction: 0x36373131
 d90:	2d667a6a 	vstmdbcs	r6!, {s15-s120}
 d94:	672d2073 			; <UNDEFINED> instruction: 0x672d2073
 d98:	20626467 	rsbcs	r6, r2, r7, ror #8
 d9c:	20674f2d 	rsbcs	r4, r7, sp, lsr #30
 da0:	6474732d 	ldrbtvs	r7, [r4], #-813	; 0x32d
 da4:	756e673d 	strbvc	r6, [lr, #-1853]!	; 0x73d
 da8:	2d203939 	stccs	9, cr3, [r0, #-228]!	; 0xffffff1c
 dac:	65726666 	ldrbvs	r6, [r2, #-1638]!	; 0x666
 db0:	61747365 	cmnvs	r4, r5, ror #6
 db4:	6e69646e 	cdpvs	4, 6, cr6, cr9, cr14, {3}
 db8:	735f0067 	cmpvc	pc, #103	; 0x67
 dbc:	6f747274 	svcvs	0x00747274
 dc0:	616c5f6b 	cmnvs	ip, fp, ror #30
 dc4:	5f007473 	svcpl	0x00007473
 dc8:	79746e66 	ldmdbvc	r4!, {r1, r2, r5, r6, r9, sl, fp, sp, lr}^
 dcc:	00736570 	rsbseq	r6, r3, r0, ror r5
 dd0:	6464615f 	strbtvs	r6, [r4], #-351	; 0x15f
 dd4:	555f5f00 	ldrbpl	r5, [pc, #-3840]	; fffffedc <__bss_end__+0xffff5954>
 dd8:	676e6f4c 	strbvs	r6, [lr, -ip, asr #30]!
 ddc:	65675f00 	strbvs	r5, [r7, #-3840]!	; 0xf00
 de0:	74616474 	strbtvc	r6, [r1], #-1140	; 0x474
 de4:	72655f65 	rsbvc	r5, r5, #404	; 0x194
 de8:	675f0072 			; <UNDEFINED> instruction: 0x675f0072
 dec:	61626f6c 	cmnvs	r2, ip, ror #30
 df0:	6d695f6c 	stclvs	15, cr5, [r9, #-432]!	; 0xfffffe50
 df4:	65727570 	ldrbvs	r7, [r2, #-1392]!	; 0x570
 df8:	7274705f 	rsbsvc	r7, r4, #95	; 0x5f
 dfc:	75635f00 	strbvc	r5, [r3, #-3840]!	; 0xf00
 e00:	6e657272 	mcrvs	2, 3, r7, cr5, cr2, {3}
 e04:	61635f74 	smcvs	13812	; 0x35f4
 e08:	6f676574 	svcvs	0x00676574
 e0c:	5f007972 	svcpl	0x00007972
 e10:	73756e75 	cmnvc	r5, #1872	; 0x750
 e14:	725f6465 	subsvc	r6, pc, #1694498816	; 0x65000000
 e18:	00646e61 	rsbeq	r6, r4, r1, ror #28
 e1c:	7364775f 	cmnvc	r4, #24903680	; 0x17c0000
 e20:	745f5f00 	ldrbvc	r5, [pc], #-3840	; e28 <__code_start__-0x71d8>
 e24:	64775f6d 	ldrbtvs	r5, [r7], #-3949	; 0xf6d
 e28:	5f007961 	svcpl	0x00007961
 e2c:	65756c67 	ldrbvs	r6, [r5, #-3175]!	; 0xc67
 e30:	49504700 	ldmdbmi	r0, {r8, r9, sl, lr}^
 e34:	55465f4f 	strbpl	r5, [r6, #-3919]	; 0xf4f
 e38:	4f5f434e 	svcmi	0x005f434e
 e3c:	55505455 	ldrbpl	r5, [r0, #-1109]	; 0x455
 e40:	6e5f0054 	mrcvs	0, 2, r0, cr15, cr4, {2}
 e44:	6c6c616d 	stfvse	f6, [ip], #-436	; 0xfffffe4c
 e48:	5f00636f 	svcpl	0x0000636f
 e4c:	6134366c 	teqvs	r4, ip, ror #12
 e50:	6675625f 			; <UNDEFINED> instruction: 0x6675625f
 e54:	74656700 	strbtvc	r6, [r5], #-1792	; 0x700
 e58:	75003233 	strvc	r3, [r0, #-563]	; 0x233
 e5c:	5f747261 	svcpl	0x00747261
 e60:	5f6e6163 	svcpl	0x006e6163
 e64:	63746567 	cmnvs	r4, #432013312	; 0x19c00000
 e68:	69735f00 	ldmdbvs	r3!, {r8, r9, sl, fp, ip, lr}^
 e6c:	75665f67 	strbvc	r5, [r6, #-3943]!	; 0xf67
 e70:	6f00636e 	svcvs	0x0000636e
 e74:	6e695f72 	mcrvs	15, 3, r5, cr9, cr2, {3}
 e78:	75003233 	strvc	r3, [r0, #-563]	; 0x233
 e7c:	5f747261 	svcpl	0x00747261
 e80:	5f736168 	svcpl	0x00736168
 e84:	61746164 	cmnvs	r4, r4, ror #2
 e88:	49504700 	ldmdbmi	r0, {r8, r9, sl, lr}^
 e8c:	55465f4f 	strbpl	r5, [r6, #-3919]	; 0xf4f
 e90:	415f434e 	cmpmi	pc, lr, asr #6
 e94:	0030544c 	eorseq	r5, r0, ip, asr #8
 e98:	75626e5f 	strbvc	r6, [r2, #-3679]!	; 0xe5f
 e9c:	755f0066 	ldrbvc	r0, [pc, #-102]	; e3e <__code_start__-0x71c2>
 ea0:	6573756e 	ldrbvs	r7, [r3, #-1390]!	; 0x56e
 ea4:	50470064 	subpl	r0, r7, r4, rrx
 ea8:	465f4f49 	ldrbmi	r4, [pc], -r9, asr #30
 eac:	5f434e55 	svcpl	0x00434e55
 eb0:	33544c41 	cmpcc	r4, #16640	; 0x4100
 eb4:	49504700 	ldmdbmi	r0, {r8, r9, sl, lr}^
 eb8:	55465f4f 	strbpl	r5, [r6, #-3919]	; 0xf4f
 ebc:	415f434e 	cmpmi	pc, lr, asr #6
 ec0:	0034544c 	eorseq	r5, r4, ip, asr #8
 ec4:	4f495047 	svcmi	0x00495047
 ec8:	4e55465f 	mrcmi	6, 2, r4, cr5, cr15, {2}
 ecc:	4c415f43 	mcrrmi	15, 4, r5, r1, cr3
 ed0:	5f003554 	svcpl	0x00003554
 ed4:	5f6d745f 	svcpl	0x006d745f
 ed8:	73647369 	cmnvc	r4, #-1543503871	; 0xa4000001
 edc:	6c5f0074 	mrrcvs	0, 7, r0, pc, cr4	; <UNPREDICTABLE>
 ee0:	6c61636f 	stclvs	3, cr6, [r1], #-444	; 0xfffffe44
 ee4:	656d6974 	strbvs	r6, [sp, #-2420]!	; 0x974
 ee8:	6675625f 			; <UNDEFINED> instruction: 0x6675625f
 eec:	6c635f00 	stclvs	15, cr5, [r3], #-0
 ef0:	0065736f 	rsbeq	r7, r5, pc, ror #6
 ef4:	3834725f 	ldmdacc	r4!, {r0, r1, r2, r3, r4, r6, r9, ip, sp, lr}
 ef8:	626d5f00 	rsbvs	r5, sp, #0, 30
 efc:	63776f74 	cmnvs	r7, #116, 30	; 0x1d0
 f00:	6174735f 	cmnvs	r4, pc, asr r3
 f04:	5f006574 	svcpl	0x00006574
 f08:	00733570 	rsbseq	r3, r3, r0, ror r5
 f0c:	6d745f5f 	ldclvs	15, cr5, [r4, #-380]!	; 0xfffffe84
 f10:	61646d5f 	cmnvs	r4, pc, asr sp
 f14:	70670079 	rsbvc	r0, r7, r9, ror r0
 f18:	735f6f69 	cmpvc	pc, #420	; 0x1a4
 f1c:	6f5f7465 	svcvs	0x005f7465
 f20:	62006666 	andvs	r6, r0, #106954752	; 0x6600000
 f24:	006b6e61 	rsbeq	r6, fp, r1, ror #28
 f28:	6f697067 	svcvs	0x00697067
 f2c:	6700632e 	strvs	r6, [r0, -lr, lsr #6]
 f30:	5f6f6970 	svcpl	0x006f6970
 f34:	64616572 	strbtvs	r6, [r1], #-1394	; 0x572
 f38:	69706700 	ldmdbvs	r0!, {r8, r9, sl, sp, lr}^
 f3c:	65735f6f 	ldrbvs	r5, [r3, #-3951]!	; 0xf6f
 f40:	756f5f74 	strbvc	r5, [pc, #-3956]!	; ffffffd4 <__bss_end__+0xffff5a4c>
 f44:	74757074 	ldrbtvc	r7, [r5], #-116	; 0x74
 f48:	69706700 	ldmdbvs	r0!, {r8, r9, sl, sp, lr}^
 f4c:	72775f6f 	rsbsvc	r5, r7, #444	; 0x1bc
 f50:	00657469 	rsbeq	r7, r5, r9, ror #8
 f54:	6f697067 	svcvs	0x00697067
 f58:	7465735f 	strbtvc	r7, [r5], #-863	; 0x35f
 f5c:	70670030 	rsbvc	r0, r7, r0, lsr r0
 f60:	6c5f6f69 	mrrcvs	15, 6, r6, pc, cr9	; <UNPREDICTABLE>
 f64:	00307665 	eorseq	r7, r0, r5, ror #12
 f68:	6f697067 	svcvs	0x00697067
 f6c:	7465735f 	strbtvc	r7, [r5], #-863	; 0x35f
 f70:	706e695f 	rsbvc	r6, lr, pc, asr r9
 f74:	67007475 	smlsdxvs	r0, r5, r4, r7
 f78:	5f6f6970 	svcpl	0x006f6970
 f7c:	5f746573 	svcpl	0x00746573
 f80:	67006e6f 	strvs	r6, [r0, -pc, ror #28]
 f84:	5f6f6970 	svcpl	0x006f6970
 f88:	636e7566 	cmnvs	lr, #427819008	; 0x19800000
 f8c:	6700745f 	smlsdvs	r0, pc, r4, r7	; <UNPREDICTABLE>
 f90:	5f6f6970 	svcpl	0x006f6970
 f94:	30726c63 	rsbscc	r6, r2, r3, ror #24
	...

Disassembly of section .debug_frame:

00000000 <.debug_frame>:
   0:	0000000c 	andeq	r0, r0, ip
   4:	ffffffff 			; <UNDEFINED> instruction: 0xffffffff
   8:	7c020001 	stcvc	0, cr0, [r2], {1}
   c:	000d0c0e 	andeq	r0, sp, lr, lsl #24
  10:	0000000c 	andeq	r0, r0, ip
  14:	00000000 	andeq	r0, r0, r0
  18:	00008020 	andeq	r8, r0, r0, lsr #32
  1c:	00000004 	andeq	r0, r0, r4
  20:	0000000c 	andeq	r0, r0, ip
  24:	00000000 	andeq	r0, r0, r0
  28:	00008024 	andeq	r8, r0, r4, lsr #32
  2c:	00000004 	andeq	r0, r0, r4
  30:	0000000c 	andeq	r0, r0, ip
  34:	00000000 	andeq	r0, r0, r0
  38:	00008028 	andeq	r8, r0, r8, lsr #32
  3c:	00000004 	andeq	r0, r0, r4
  40:	0000000c 	andeq	r0, r0, ip
  44:	00000000 	andeq	r0, r0, r0
  48:	0000802c 	andeq	r8, r0, ip, lsr #32
  4c:	00000008 	andeq	r0, r0, r8
  50:	0000000c 	andeq	r0, r0, ip
  54:	00000000 	andeq	r0, r0, r0
  58:	00008034 	andeq	r8, r0, r4, lsr r0
  5c:	0000006c 	andeq	r0, r0, ip, rrx
  60:	00000014 	andeq	r0, r0, r4, lsl r0
  64:	00000000 	andeq	r0, r0, r0
  68:	000080a0 	andeq	r8, r0, r0, lsr #1
  6c:	000000f8 	strdeq	r0, [r0], -r8
  70:	8e040e42 	cdphi	14, 0, cr0, cr4, cr2, {2}
  74:	480e4201 	stmdami	lr, {r0, r9, lr}
  78:	0000000c 	andeq	r0, r0, ip
  7c:	ffffffff 			; <UNDEFINED> instruction: 0xffffffff
  80:	7c020001 	stcvc	0, cr0, [r2], {1}
  84:	000d0c0e 	andeq	r0, sp, lr, lsl #24
  88:	00000014 	andeq	r0, r0, r4, lsl r0
  8c:	00000078 	andeq	r0, r0, r8, ror r0
  90:	00008198 	muleq	r0, r8, r1
  94:	000000b0 	strheq	r0, [r0], -r0	; <UNPREDICTABLE>
  98:	8e040e42 	cdphi	14, 0, cr0, cr4, cr2, {2}
  9c:	100e4201 	andne	r4, lr, r1, lsl #4
  a0:	00000014 	andeq	r0, r0, r4, lsl r0
  a4:	00000078 	andeq	r0, r0, r8, ror r0
  a8:	00008248 	andeq	r8, r0, r8, asr #4
  ac:	000000dc 	ldrdeq	r0, [r0], -ip
  b0:	8e040e42 	cdphi	14, 0, cr0, cr4, cr2, {2}
  b4:	100e4201 	andne	r4, lr, r1, lsl #4
  b8:	00000014 	andeq	r0, r0, r4, lsl r0
  bc:	00000078 	andeq	r0, r0, r8, ror r0
  c0:	00008324 	andeq	r8, r0, r4, lsr #6
  c4:	0000003c 	andeq	r0, r0, ip, lsr r0
  c8:	83080e42 	movwhi	r0, #36418	; 0x8e42
  cc:	00018e02 	andeq	r8, r1, r2, lsl #28
  d0:	0000000c 	andeq	r0, r0, ip
  d4:	00000078 	andeq	r0, r0, r8, ror r0
  d8:	00008360 	andeq	r8, r0, r0, ror #6
  dc:	00000034 	andeq	r0, r0, r4, lsr r0
  e0:	00000014 	andeq	r0, r0, r4, lsl r0
  e4:	00000078 	andeq	r0, r0, r8, ror r0
  e8:	00008394 	muleq	r0, r4, r3
  ec:	00000098 	muleq	r0, r8, r0
  f0:	8e040e42 	cdphi	14, 0, cr0, cr4, cr2, {2}
  f4:	100e4201 	andne	r4, lr, r1, lsl #4
  f8:	0000000c 	andeq	r0, r0, ip
  fc:	00000078 	andeq	r0, r0, r8, ror r0
 100:	0000842c 	andeq	r8, r0, ip, lsr #8
 104:	00000004 	andeq	r0, r0, r4
 108:	00000014 	andeq	r0, r0, r4, lsl r0
 10c:	00000078 	andeq	r0, r0, r8, ror r0
 110:	00008430 	andeq	r8, r0, r0, lsr r4
 114:	0000002c 	andeq	r0, r0, ip, lsr #32
 118:	83080e42 	movwhi	r0, #36418	; 0x8e42
 11c:	00018e02 	andeq	r8, r1, r2, lsl #28
 120:	0000000c 	andeq	r0, r0, ip
 124:	00000078 	andeq	r0, r0, r8, ror r0
 128:	0000845c 	andeq	r8, r0, ip, asr r4
 12c:	00000034 	andeq	r0, r0, r4, lsr r0
 130:	0000000c 	andeq	r0, r0, ip
 134:	00000078 	andeq	r0, r0, r8, ror r0
 138:	00008490 	muleq	r0, r0, r4
 13c:	00000010 	andeq	r0, r0, r0, lsl r0
 140:	00000014 	andeq	r0, r0, r4, lsl r0
 144:	00000078 	andeq	r0, r0, r8, ror r0
 148:	000084a0 	andeq	r8, r0, r0, lsr #9
 14c:	0000004c 	andeq	r0, r0, ip, asr #32
 150:	83080e42 	movwhi	r0, #36418	; 0x8e42
 154:	00018e02 	andeq	r8, r1, r2, lsl #28
 158:	0000000c 	andeq	r0, r0, ip
 15c:	ffffffff 			; <UNDEFINED> instruction: 0xffffffff
 160:	7c020001 	stcvc	0, cr0, [r2], {1}
 164:	000d0c0e 	andeq	r0, sp, lr, lsl #24
 168:	00000018 	andeq	r0, r0, r8, lsl r0
 16c:	00000158 	andeq	r0, r0, r8, asr r1
 170:	00008610 	andeq	r8, r0, r0, lsl r6
 174:	00000198 	muleq	r0, r8, r1
 178:	840c0e42 	strhi	r0, [ip], #-3650	; 0xe42
 17c:	8e028503 	cfsh32hi	mvfx8, mvfx2, #3
 180:	180e4201 	stmdane	lr, {r0, r9, lr}
 184:	00000024 	andeq	r0, r0, r4, lsr #32
 188:	00000158 	andeq	r0, r0, r8, asr r1
 18c:	000087a8 	andeq	r8, r0, r8, lsr #15
 190:	000004c8 	andeq	r0, r0, r8, asr #9
 194:	84240e42 	strthi	r0, [r4], #-3650	; 0xe42
 198:	86088509 	strhi	r8, [r8], -r9, lsl #10
 19c:	88068707 	stmdahi	r6, {r0, r1, r2, r8, r9, sl, pc}
 1a0:	8a048905 	bhi	1225bc <__bss_end__+0x118034>
 1a4:	8e028b03 	vmlahi.f64	d8, d2, d3
 1a8:	300e4201 	andcc	r4, lr, r1, lsl #4
 1ac:	00000018 	andeq	r0, r0, r8, lsl r0
 1b0:	00000158 	andeq	r0, r0, r8, asr r1
 1b4:	00008c70 	andeq	r8, r0, r0, ror ip
 1b8:	00000084 	andeq	r0, r0, r4, lsl #1
 1bc:	83100e42 	tsthi	r0, #1056	; 0x420
 1c0:	85038404 	strhi	r8, [r3, #-1028]	; 0x404
 1c4:	00018e02 	andeq	r8, r1, r2, lsl #28
 1c8:	0000000c 	andeq	r0, r0, ip
 1cc:	00000158 	andeq	r0, r0, r8, asr r1
 1d0:	00008cf4 	strdeq	r8, [r0], -r4
 1d4:	00000028 	andeq	r0, r0, r8, lsr #32
 1d8:	00000014 	andeq	r0, r0, r4, lsl r0
 1dc:	00000158 	andeq	r0, r0, r8, asr r1
 1e0:	00008d1c 	andeq	r8, r0, ip, lsl sp
 1e4:	0000004c 	andeq	r0, r0, ip, asr #32
 1e8:	84080e42 	strhi	r0, [r8], #-3650	; 0xe42
 1ec:	00018e02 	andeq	r8, r1, r2, lsl #28
 1f0:	0000000c 	andeq	r0, r0, ip
 1f4:	ffffffff 			; <UNDEFINED> instruction: 0xffffffff
 1f8:	7c020001 	stcvc	0, cr0, [r2], {1}
 1fc:	000d0c0e 	andeq	r0, sp, lr, lsl #24
 200:	00000024 	andeq	r0, r0, r4, lsr #32
 204:	000001f0 	strdeq	r0, [r0], -r0	; <UNPREDICTABLE>
 208:	00008d68 	andeq	r8, r0, r8, ror #26
 20c:	00000058 	andeq	r0, r0, r8, asr r0
 210:	80100e42 	andshi	r0, r0, r2, asr #28
 214:	82038104 	andhi	r8, r3, #4, 2
 218:	42018302 	andmi	r8, r1, #134217728	; 0x8000000
 21c:	07841c0e 	streq	r1, [r4, lr, lsl #24]
 220:	058e0685 	streq	r0, [lr, #1669]	; 0x685
 224:	00280e42 	eoreq	r0, r8, r2, asr #28
 228:	0000000c 	andeq	r0, r0, ip
 22c:	ffffffff 			; <UNDEFINED> instruction: 0xffffffff
 230:	7c020001 	stcvc	0, cr0, [r2], {1}
 234:	000d0c0e 	andeq	r0, sp, lr, lsl #24
 238:	00000014 	andeq	r0, r0, r4, lsl r0
 23c:	00000228 	andeq	r0, r0, r8, lsr #4
 240:	00008dc0 	andeq	r8, r0, r0, asr #27
 244:	00000014 	andeq	r0, r0, r4, lsl r0
 248:	84080e42 	strhi	r0, [r8], #-3650	; 0xe42
 24c:	00018e02 	andeq	r8, r1, r2, lsl #28
 250:	0000000c 	andeq	r0, r0, ip
 254:	00000228 	andeq	r0, r0, r8, lsr #4
 258:	00008dd4 	ldrdeq	r8, [r0], -r4
 25c:	00000018 	andeq	r0, r0, r8, lsl r0
 260:	0000000c 	andeq	r0, r0, ip
 264:	00000228 	andeq	r0, r0, r8, lsr #4
 268:	00008dec 	andeq	r8, r0, ip, ror #27
 26c:	00000010 	andeq	r0, r0, r0, lsl r0
 270:	0000000c 	andeq	r0, r0, ip
 274:	ffffffff 			; <UNDEFINED> instruction: 0xffffffff
 278:	7c020001 	stcvc	0, cr0, [r2], {1}
 27c:	000d0c0e 	andeq	r0, sp, lr, lsl #24
 280:	00000018 	andeq	r0, r0, r8, lsl r0
 284:	00000270 	andeq	r0, r0, r0, ror r2
 288:	00008dfc 	strdeq	r8, [r0], -ip
 28c:	00000034 	andeq	r0, r0, r4, lsr r0
 290:	83100e42 	tsthi	r0, #1056	; 0x420
 294:	85038404 	strhi	r8, [r3, #-1028]	; 0x404
 298:	00018e02 	andeq	r8, r1, r2, lsl #28
 29c:	0000000c 	andeq	r0, r0, ip
 2a0:	ffffffff 			; <UNDEFINED> instruction: 0xffffffff
 2a4:	7c020001 	stcvc	0, cr0, [r2], {1}
 2a8:	000d0c0e 	andeq	r0, sp, lr, lsl #24
 2ac:	0000000c 	andeq	r0, r0, ip
 2b0:	0000029c 	muleq	r0, ip, r2
 2b4:	00008e30 	andeq	r8, r0, r0, lsr lr
 2b8:	00000014 	andeq	r0, r0, r4, lsl r0
 2bc:	0000000c 	andeq	r0, r0, ip
 2c0:	0000029c 	muleq	r0, ip, r2
 2c4:	00008e44 	andeq	r8, r0, r4, asr #28
 2c8:	0000002c 	andeq	r0, r0, ip, lsr #32
 2cc:	0000000c 	andeq	r0, r0, ip
 2d0:	0000029c 	muleq	r0, ip, r2
 2d4:	00008e70 	andeq	r8, r0, r0, ror lr
 2d8:	00000040 	andeq	r0, r0, r0, asr #32
 2dc:	00000020 	andeq	r0, r0, r0, lsr #32
 2e0:	0000029c 	muleq	r0, ip, r2
 2e4:	00008eb0 			; <UNDEFINED> instruction: 0x00008eb0
 2e8:	000001bc 			; <UNDEFINED> instruction: 0x000001bc
 2ec:	84180e42 	ldrhi	r0, [r8], #-3650	; 0xe42
 2f0:	86058506 	strhi	r8, [r5], -r6, lsl #10
 2f4:	88038704 	stmdahi	r3, {r2, r8, r9, sl, pc}
 2f8:	42018e02 	andmi	r8, r1, #2, 28
 2fc:	0000600e 	andeq	r6, r0, lr
 300:	00000014 	andeq	r0, r0, r4, lsl r0
 304:	0000029c 	muleq	r0, ip, r2
 308:	0000906c 	andeq	r9, r0, ip, rrx
 30c:	00000068 	andeq	r0, r0, r8, rrx
 310:	8e040e42 	cdphi	14, 0, cr0, cr4, cr2, {2}
 314:	100e4201 	andne	r4, lr, r1, lsl #4
 318:	00000028 	andeq	r0, r0, r8, lsr #32
 31c:	0000029c 	muleq	r0, ip, r2
 320:	000090d4 	ldrdeq	r9, [r0], -r4
 324:	000002d4 	ldrdeq	r0, [r0], -r4
 328:	84240e42 	strthi	r0, [r4], #-3650	; 0xe42
 32c:	86088509 	strhi	r8, [r8], -r9, lsl #10
 330:	88068707 	stmdahi	r6, {r0, r1, r2, r8, r9, sl, pc}
 334:	8a048905 	bhi	122750 <__bss_end__+0x1181c8>
 338:	8e028b03 	vmlahi.f64	d8, d2, d3
 33c:	b80e4201 	stmdalt	lr, {r0, r9, lr}
 340:	00000001 	andeq	r0, r0, r1
 344:	0000000c 	andeq	r0, r0, ip
 348:	ffffffff 			; <UNDEFINED> instruction: 0xffffffff
 34c:	7c020001 	stcvc	0, cr0, [r2], {1}
 350:	000d0c0e 	andeq	r0, sp, lr, lsl #24
 354:	0000000c 	andeq	r0, r0, ip
 358:	00000344 	andeq	r0, r0, r4, asr #6
 35c:	000093a8 	andeq	r9, r0, r8, lsr #7
 360:	00000010 	andeq	r0, r0, r0, lsl r0
 364:	0000000c 	andeq	r0, r0, ip
 368:	00000344 	andeq	r0, r0, r4, asr #6
 36c:	000093b8 			; <UNDEFINED> instruction: 0x000093b8
 370:	00000010 	andeq	r0, r0, r0, lsl r0
 374:	0000000c 	andeq	r0, r0, ip
 378:	ffffffff 			; <UNDEFINED> instruction: 0xffffffff
 37c:	7c020001 	stcvc	0, cr0, [r2], {1}
 380:	000d0c0e 	andeq	r0, sp, lr, lsl #24
 384:	00000014 	andeq	r0, r0, r4, lsl r0
 388:	00000374 	andeq	r0, r0, r4, ror r3
 38c:	000093c8 	andeq	r9, r0, r8, asr #7
 390:	0000002c 	andeq	r0, r0, ip, lsr #32
 394:	83080e42 	movwhi	r0, #36418	; 0x8e42
 398:	00018e02 	andeq	r8, r1, r2, lsl #28
 39c:	0000000c 	andeq	r0, r0, ip
 3a0:	ffffffff 			; <UNDEFINED> instruction: 0xffffffff
 3a4:	7c020001 	stcvc	0, cr0, [r2], {1}
 3a8:	000d0c0e 	andeq	r0, sp, lr, lsl #24
 3ac:	00000014 	andeq	r0, r0, r4, lsl r0
 3b0:	0000039c 	muleq	r0, ip, r3
 3b4:	000093f4 	strdeq	r9, [r0], -r4
 3b8:	00000038 	andeq	r0, r0, r8, lsr r0
 3bc:	83080e42 	movwhi	r0, #36418	; 0x8e42
 3c0:	00018e02 	andeq	r8, r1, r2, lsl #28
 3c4:	0000000c 	andeq	r0, r0, ip
 3c8:	ffffffff 			; <UNDEFINED> instruction: 0xffffffff
 3cc:	7c020001 	stcvc	0, cr0, [r2], {1}
 3d0:	000d0c0e 	andeq	r0, sp, lr, lsl #24
 3d4:	00000014 	andeq	r0, r0, r4, lsl r0
 3d8:	000003c4 	andeq	r0, r0, r4, asr #7
 3dc:	0000942c 	andeq	r9, r0, ip, lsr #8
 3e0:	00000044 	andeq	r0, r0, r4, asr #32
 3e4:	8e040e42 	cdphi	14, 0, cr0, cr4, cr2, {2}
 3e8:	100e4201 	andne	r4, lr, r1, lsl #4
 3ec:	0000000c 	andeq	r0, r0, ip
 3f0:	ffffffff 			; <UNDEFINED> instruction: 0xffffffff
 3f4:	7c020001 	stcvc	0, cr0, [r2], {1}
 3f8:	000d0c0e 	andeq	r0, sp, lr, lsl #24
 3fc:	00000014 	andeq	r0, r0, r4, lsl r0
 400:	000003ec 	andeq	r0, r0, ip, ror #7
 404:	00009470 	andeq	r9, r0, r0, ror r4
 408:	00000044 	andeq	r0, r0, r4, asr #32
 40c:	8e040e42 	cdphi	14, 0, cr0, cr4, cr2, {2}
 410:	100e4201 	andne	r4, lr, r1, lsl #4
 414:	0000000c 	andeq	r0, r0, ip
 418:	ffffffff 			; <UNDEFINED> instruction: 0xffffffff
 41c:	7c020001 	stcvc	0, cr0, [r2], {1}
 420:	000d0c0e 	andeq	r0, sp, lr, lsl #24
 424:	00000014 	andeq	r0, r0, r4, lsl r0
 428:	00000414 	andeq	r0, r0, r4, lsl r4
 42c:	000094b4 			; <UNDEFINED> instruction: 0x000094b4
 430:	00000044 	andeq	r0, r0, r4, asr #32
 434:	8e040e42 	cdphi	14, 0, cr0, cr4, cr2, {2}
 438:	100e4201 	andne	r4, lr, r1, lsl #4
 43c:	0000000c 	andeq	r0, r0, ip
 440:	ffffffff 			; <UNDEFINED> instruction: 0xffffffff
 444:	7c020001 	stcvc	0, cr0, [r2], {1}
 448:	000d0c0e 	andeq	r0, sp, lr, lsl #24
 44c:	0000000c 	andeq	r0, r0, ip
 450:	0000043c 	andeq	r0, r0, ip, lsr r4
 454:	000094f8 	strdeq	r9, [r0], -r8
 458:	00000004 	andeq	r0, r0, r4
 45c:	0000000c 	andeq	r0, r0, ip
 460:	0000043c 	andeq	r0, r0, ip, lsr r4
 464:	000094fc 	strdeq	r9, [r0], -ip
 468:	00000004 	andeq	r0, r0, r4
 46c:	0000000c 	andeq	r0, r0, ip
 470:	ffffffff 			; <UNDEFINED> instruction: 0xffffffff
 474:	7c020001 	stcvc	0, cr0, [r2], {1}
 478:	000d0c0e 	andeq	r0, sp, lr, lsl #24
 47c:	00000014 	andeq	r0, r0, r4, lsl r0
 480:	0000046c 	andeq	r0, r0, ip, ror #8
 484:	00009500 	andeq	r9, r0, r0, lsl #10
 488:	0000006c 	andeq	r0, r0, ip, rrx
 48c:	83080e42 	movwhi	r0, #36418	; 0x8e42
 490:	00018e02 	andeq	r8, r1, r2, lsl #28
 494:	0000000c 	andeq	r0, r0, ip
 498:	ffffffff 			; <UNDEFINED> instruction: 0xffffffff
 49c:	7c020001 	stcvc	0, cr0, [r2], {1}
 4a0:	000d0c0e 	andeq	r0, sp, lr, lsl #24
 4a4:	0000000c 	andeq	r0, r0, ip
 4a8:	00000494 	muleq	r0, r4, r4
 4ac:	0000956c 	andeq	r9, r0, ip, ror #10
 4b0:	00000018 	andeq	r0, r0, r8, lsl r0
 4b4:	0000000c 	andeq	r0, r0, ip
 4b8:	00000494 	muleq	r0, r4, r4
 4bc:	00009584 	andeq	r9, r0, r4, lsl #11
 4c0:	00000014 	andeq	r0, r0, r4, lsl r0
 4c4:	00000014 	andeq	r0, r0, r4, lsl r0
 4c8:	00000494 	muleq	r0, r4, r4
 4cc:	00009598 	muleq	r0, r8, r5
 4d0:	00000048 	andeq	r0, r0, r8, asr #32
 4d4:	83080e42 	movwhi	r0, #36418	; 0x8e42
 4d8:	00018e02 	andeq	r8, r1, r2, lsl #28
 4dc:	0000000c 	andeq	r0, r0, ip
 4e0:	ffffffff 			; <UNDEFINED> instruction: 0xffffffff
 4e4:	7c020001 	stcvc	0, cr0, [r2], {1}
 4e8:	000d0c0e 	andeq	r0, sp, lr, lsl #24
 4ec:	0000000c 	andeq	r0, r0, ip
 4f0:	000004dc 	ldrdeq	r0, [r0], -ip
 4f4:	000095e0 	andeq	r9, r0, r0, ror #11
 4f8:	0000001c 	andeq	r0, r0, ip, lsl r0
 4fc:	00000014 	andeq	r0, r0, r4, lsl r0
 500:	000004dc 	ldrdeq	r0, [r0], -ip
 504:	000095fc 	strdeq	r9, [r0], -ip
 508:	00000014 	andeq	r0, r0, r4, lsl r0
 50c:	83080e42 	movwhi	r0, #36418	; 0x8e42
 510:	00018e02 	andeq	r8, r1, r2, lsl #28
 514:	00000014 	andeq	r0, r0, r4, lsl r0
 518:	000004dc 	ldrdeq	r0, [r0], -ip
 51c:	00009610 	andeq	r9, r0, r0, lsl r6
 520:	0000001c 	andeq	r0, r0, ip, lsl r0
 524:	84080e42 	strhi	r0, [r8], #-3650	; 0xe42
 528:	00018e02 	andeq	r8, r1, r2, lsl #28
 52c:	00000018 	andeq	r0, r0, r8, lsl r0
 530:	000004dc 	ldrdeq	r0, [r0], -ip
 534:	0000962c 	andeq	r9, r0, ip, lsr #12
 538:	00000024 	andeq	r0, r0, r4, lsr #32
 53c:	83100e42 	tsthi	r0, #1056	; 0x420
 540:	85038404 	strhi	r8, [r3, #-1028]	; 0x404
 544:	00018e02 	andeq	r8, r1, r2, lsl #28
 548:	00000014 	andeq	r0, r0, r4, lsl r0
 54c:	000004dc 	ldrdeq	r0, [r0], -ip
 550:	00009650 	andeq	r9, r0, r0, asr r6
 554:	00000014 	andeq	r0, r0, r4, lsl r0
 558:	83080e42 	movwhi	r0, #36418	; 0x8e42
 55c:	00018e02 	andeq	r8, r1, r2, lsl #28
 560:	00000014 	andeq	r0, r0, r4, lsl r0
 564:	000004dc 	ldrdeq	r0, [r0], -ip
 568:	00009664 	andeq	r9, r0, r4, ror #12
 56c:	00000014 	andeq	r0, r0, r4, lsl r0
 570:	83080e42 	movwhi	r0, #36418	; 0x8e42
 574:	00018e02 	andeq	r8, r1, r2, lsl #28
 578:	0000000c 	andeq	r0, r0, ip
 57c:	ffffffff 			; <UNDEFINED> instruction: 0xffffffff
 580:	7c020001 	stcvc	0, cr0, [r2], {1}
 584:	000d0c0e 	andeq	r0, sp, lr, lsl #24
 588:	00000018 	andeq	r0, r0, r8, lsl r0
 58c:	00000578 	andeq	r0, r0, r8, ror r5
 590:	000096dc 	ldrdeq	r9, [r0], -ip
 594:	00000020 	andeq	r0, r0, r0, lsr #32
 598:	84100e42 	ldrhi	r0, [r0], #-3650	; 0xe42
 59c:	86038504 	strhi	r8, [r3], -r4, lsl #10
 5a0:	00018e02 	andeq	r8, r1, r2, lsl #28
 5a4:	00000014 	andeq	r0, r0, r4, lsl r0
 5a8:	00000578 	andeq	r0, r0, r8, ror r5
 5ac:	000096fc 	strdeq	r9, [r0], -ip
 5b0:	000000b0 	strheq	r0, [r0], -r0	; <UNPREDICTABLE>
 5b4:	84080e42 	strhi	r0, [r8], #-3650	; 0xe42
 5b8:	00018e02 	andeq	r8, r1, r2, lsl #28
 5bc:	00000014 	andeq	r0, r0, r4, lsl r0
 5c0:	00000578 	andeq	r0, r0, r8, ror r5
 5c4:	000097ac 	andeq	r9, r0, ip, lsr #15
 5c8:	00000018 	andeq	r0, r0, r8, lsl r0
 5cc:	84080e42 	strhi	r0, [r8], #-3650	; 0xe42
 5d0:	00018e02 	andeq	r8, r1, r2, lsl #28
 5d4:	00000014 	andeq	r0, r0, r4, lsl r0
 5d8:	00000578 	andeq	r0, r0, r8, ror r5
 5dc:	000097c4 	andeq	r9, r0, r4, asr #15
 5e0:	00000020 	andeq	r0, r0, r0, lsr #32
 5e4:	84080e42 	strhi	r0, [r8], #-3650	; 0xe42
 5e8:	00018e02 	andeq	r8, r1, r2, lsl #28
 5ec:	00000014 	andeq	r0, r0, r4, lsl r0
 5f0:	00000578 	andeq	r0, r0, r8, ror r5
 5f4:	000097e4 	andeq	r9, r0, r4, ror #15
 5f8:	00000030 	andeq	r0, r0, r0, lsr r0
 5fc:	84080e42 	strhi	r0, [r8], #-3650	; 0xe42
 600:	00018e02 	andeq	r8, r1, r2, lsl #28
 604:	00000014 	andeq	r0, r0, r4, lsl r0
 608:	00000578 	andeq	r0, r0, r8, ror r5
 60c:	00009814 	andeq	r9, r0, r4, lsl r8
 610:	00000030 	andeq	r0, r0, r0, lsr r0
 614:	84080e42 	strhi	r0, [r8], #-3650	; 0xe42
 618:	00018e02 	andeq	r8, r1, r2, lsl #28
 61c:	00000014 	andeq	r0, r0, r4, lsl r0
 620:	00000578 	andeq	r0, r0, r8, ror r5
 624:	00009844 	andeq	r9, r0, r4, asr #16
 628:	00000010 	andeq	r0, r0, r0, lsl r0
 62c:	84080e42 	strhi	r0, [r8], #-3650	; 0xe42
 630:	00018e02 	andeq	r8, r1, r2, lsl #28
 634:	0000000c 	andeq	r0, r0, ip
 638:	ffffffff 			; <UNDEFINED> instruction: 0xffffffff
 63c:	7c020001 	stcvc	0, cr0, [r2], {1}
 640:	000d0c0e 	andeq	r0, sp, lr, lsl #24
 644:	00000018 	andeq	r0, r0, r8, lsl r0
 648:	00000634 	andeq	r0, r0, r4, lsr r6
 64c:	00009854 	andeq	r9, r0, r4, asr r8
 650:	00000068 	andeq	r0, r0, r8, rrx
 654:	84100e4a 	ldrhi	r0, [r0], #-3658	; 0xe4a
 658:	86038504 	strhi	r8, [r3], -r4, lsl #10
 65c:	00018e02 	andeq	r8, r1, r2, lsl #28
 660:	00000014 	andeq	r0, r0, r4, lsl r0
 664:	00000634 	andeq	r0, r0, r4, lsr r6
 668:	000098bc 			; <UNDEFINED> instruction: 0x000098bc
 66c:	00000010 	andeq	r0, r0, r0, lsl r0
 670:	84080e42 	strhi	r0, [r8], #-3650	; 0xe42
 674:	00018e02 	andeq	r8, r1, r2, lsl #28
 678:	00000014 	andeq	r0, r0, r4, lsl r0
 67c:	00000634 	andeq	r0, r0, r4, lsr r6
 680:	000098cc 	andeq	r9, r0, ip, asr #17
 684:	00000024 	andeq	r0, r0, r4, lsr #32
 688:	84080e46 	strhi	r0, [r8], #-3654	; 0xe46
 68c:	00018e02 	andeq	r8, r1, r2, lsl #28
 690:	00000014 	andeq	r0, r0, r4, lsl r0
 694:	00000634 	andeq	r0, r0, r4, lsr r6
 698:	000098f0 	strdeq	r9, [r0], -r0
 69c:	00000024 	andeq	r0, r0, r4, lsr #32
 6a0:	84080e46 	strhi	r0, [r8], #-3654	; 0xe46
 6a4:	00018e02 	andeq	r8, r1, r2, lsl #28
 6a8:	00000014 	andeq	r0, r0, r4, lsl r0
 6ac:	00000634 	andeq	r0, r0, r4, lsr r6
 6b0:	00009914 	andeq	r9, r0, r4, lsl r9
 6b4:	00000010 	andeq	r0, r0, r0, lsl r0
 6b8:	84080e42 	strhi	r0, [r8], #-3650	; 0xe42
 6bc:	00018e02 	andeq	r8, r1, r2, lsl #28
 6c0:	00000014 	andeq	r0, r0, r4, lsl r0
 6c4:	00000634 	andeq	r0, r0, r4, lsr r6
 6c8:	00009924 	andeq	r9, r0, r4, lsr #18
 6cc:	0000001c 	andeq	r0, r0, ip, lsl r0
 6d0:	84080e42 	strhi	r0, [r8], #-3650	; 0xe42
 6d4:	00018e02 	andeq	r8, r1, r2, lsl #28
 6d8:	00000018 	andeq	r0, r0, r8, lsl r0
 6dc:	00000634 	andeq	r0, r0, r4, lsr r6
 6e0:	00009940 	andeq	r9, r0, r0, asr #18
 6e4:	00000034 	andeq	r0, r0, r4, lsr r0
 6e8:	84080e46 	strhi	r0, [r8], #-3654	; 0xe46
 6ec:	4e018e02 	cdpmi	14, 0, cr8, cr1, cr2, {0}
 6f0:	cec4000e 	cdpgt	0, 12, cr0, cr4, cr14, {0}

Disassembly of section .debug_ranges:

00000000 <.debug_ranges>:
   0:	0000956c 	andeq	r9, r0, ip, ror #10
   4:	000095e0 	andeq	r9, r0, r0, ror #11
	...
