
tests/16-part2-test1.elf:     file format elf32-littlearm


Disassembly of section .text:

00008000 <__code_start__>:
    8000:	e3a00013 	mov	r0, #19
    8004:	e129f000 	msr	CPSR_fc, r0
    8008:	e3a00000 	mov	r0, #0
    800c:	ee073f95 	mcr	15, 0, r3, cr7, cr5, {4}
    8010:	e3a0d302 	mov	sp, #134217728	; 0x8000000
    8014:	e3a0b000 	mov	fp, #0
    8018:	eb0005d3 	bl	976c <_cstart>
    801c:	eb00063b 	bl	9910 <rpi_reboot>

00008020 <mode_str>:
    8020:	e92d4010 	push	{r4, lr}
    8024:	e24dd008 	sub	sp, sp, #8
    8028:	e1a04000 	mov	r4, r0
    802c:	e200301f 	and	r3, r0, #31
    8030:	e3530012 	cmp	r3, #18
    8034:	13530010 	cmpne	r3, #16
    8038:	0a000006 	beq	8058 <mode_str+0x38>
    803c:	e3530017 	cmp	r3, #23
    8040:	13530013 	cmpne	r3, #19
    8044:	0a000005 	beq	8060 <mode_str+0x40>
    8048:	e353001f 	cmp	r3, #31
    804c:	1a000005 	bne	8068 <mode_str+0x48>
    8050:	e3a02001 	mov	r2, #1
    8054:	ea000004 	b	806c <mode_str+0x4c>
    8058:	e3a02001 	mov	r2, #1
    805c:	ea000002 	b	806c <mode_str+0x4c>
    8060:	e3a02001 	mov	r2, #1
    8064:	ea000000 	b	806c <mode_str+0x4c>
    8068:	e3a02000 	mov	r2, #0
    806c:	e3520000 	cmp	r2, #0
    8070:	1a000008 	bne	8098 <mode_str+0x78>
    8074:	eb000434 	bl	914c <rpi_reset_putc>
    8078:	e59f30c4 	ldr	r3, [pc, #196]	; 8144 <mode_str+0x124>
    807c:	e58d3000 	str	r3, [sp]
    8080:	e59f00c0 	ldr	r0, [pc, #192]	; 8148 <mode_str+0x128>
    8084:	e59f10c0 	ldr	r1, [pc, #192]	; 814c <mode_str+0x12c>
    8088:	e59f20c0 	ldr	r2, [pc, #192]	; 8150 <mode_str+0x130>
    808c:	e3a03011 	mov	r3, #17
    8090:	eb000412 	bl	90e0 <printk>
    8094:	eb0005a9 	bl	9740 <clean_reboot>
    8098:	e2433010 	sub	r3, r3, #16
    809c:	e353000f 	cmp	r3, #15
    80a0:	979ff103 	ldrls	pc, [pc, r3, lsl #2]
    80a4:	ea000019 	b	8110 <mode_str+0xf0>
    80a8:	00008130 	andeq	r8, r0, r0, lsr r1
    80ac:	00008138 	andeq	r8, r0, r8, lsr r1
    80b0:	000080e8 	andeq	r8, r0, r8, ror #1
    80b4:	000080f0 	strdeq	r8, [r0], -r0
    80b8:	00008110 	andeq	r8, r0, r0, lsl r1
    80bc:	00008110 	andeq	r8, r0, r0, lsl r1
    80c0:	00008110 	andeq	r8, r0, r0, lsl r1
    80c4:	000080f8 	strdeq	r8, [r0], -r8	; <UNPREDICTABLE>
    80c8:	00008110 	andeq	r8, r0, r0, lsl r1
    80cc:	00008110 	andeq	r8, r0, r0, lsl r1
    80d0:	00008110 	andeq	r8, r0, r0, lsl r1
    80d4:	00008100 	andeq	r8, r0, r0, lsl #2
    80d8:	00008110 	andeq	r8, r0, r0, lsl r1
    80dc:	00008110 	andeq	r8, r0, r0, lsl r1
    80e0:	00008110 	andeq	r8, r0, r0, lsl r1
    80e4:	00008108 	andeq	r8, r0, r8, lsl #2
    80e8:	e59f0064 	ldr	r0, [pc, #100]	; 8154 <mode_str+0x134>
    80ec:	ea000012 	b	813c <mode_str+0x11c>
    80f0:	e59f0060 	ldr	r0, [pc, #96]	; 8158 <mode_str+0x138>
    80f4:	ea000010 	b	813c <mode_str+0x11c>
    80f8:	e59f005c 	ldr	r0, [pc, #92]	; 815c <mode_str+0x13c>
    80fc:	ea00000e 	b	813c <mode_str+0x11c>
    8100:	e59f0058 	ldr	r0, [pc, #88]	; 8160 <mode_str+0x140>
    8104:	ea00000c 	b	813c <mode_str+0x11c>
    8108:	e59f0054 	ldr	r0, [pc, #84]	; 8164 <mode_str+0x144>
    810c:	ea00000a 	b	813c <mode_str+0x11c>
    8110:	eb00040d 	bl	914c <rpi_reset_putc>
    8114:	e58d4000 	str	r4, [sp]
    8118:	e59f0048 	ldr	r0, [pc, #72]	; 8168 <mode_str+0x148>
    811c:	e59f1028 	ldr	r1, [pc, #40]	; 814c <mode_str+0x12c>
    8120:	e59f2044 	ldr	r2, [pc, #68]	; 816c <mode_str+0x14c>
    8124:	e3a03021 	mov	r3, #33	; 0x21
    8128:	eb0003ec 	bl	90e0 <printk>
    812c:	eb000583 	bl	9740 <clean_reboot>
    8130:	e59f0038 	ldr	r0, [pc, #56]	; 8170 <mode_str+0x150>
    8134:	ea000000 	b	813c <mode_str+0x11c>
    8138:	e59f0034 	ldr	r0, [pc, #52]	; 8174 <mode_str+0x154>
    813c:	e28dd008 	add	sp, sp, #8
    8140:	e8bd8010 	pop	{r4, pc}
    8144:	00009d70 	andeq	r9, r0, r0, ror sp
    8148:	00009d4c 	andeq	r9, r0, ip, asr #26
    814c:	00009d60 	andeq	r9, r0, r0, ror #26
    8150:	00009fd4 	ldrdeq	r9, [r0], -r4
    8154:	00009d10 	andeq	r9, r0, r0, lsl sp
    8158:	00009d1c 	andeq	r9, r0, ip, lsl sp
    815c:	00009d28 	andeq	r9, r0, r8, lsr #26
    8160:	00009d34 	andeq	r9, r0, r4, lsr sp
    8164:	00009d40 	andeq	r9, r0, r0, asr #26
    8168:	00009d84 	andeq	r9, r0, r4, lsl #27
    816c:	00009fc8 	andeq	r9, r0, r8, asr #31
    8170:	00009cf8 	strdeq	r9, [r0], -r8
    8174:	00009d04 	andeq	r9, r0, r4, lsl #26

00008178 <user_test>:
    8178:	e52de004 	push	{lr}		; (str lr, [sp, #-4]!)
    817c:	e24dd00c 	sub	sp, sp, #12
    8180:	e59f3068 	ldr	r3, [pc, #104]	; 81f0 <user_test+0x78>
    8184:	e5933000 	ldr	r3, [r3]
    8188:	e1530000 	cmp	r3, r0
    818c:	0a00000d 	beq	81c8 <user_test+0x50>
    8190:	eb0003ed 	bl	914c <rpi_reset_putc>
    8194:	e59f3058 	ldr	r3, [pc, #88]	; 81f4 <user_test+0x7c>
    8198:	e58d3000 	str	r3, [sp]
    819c:	e59f0054 	ldr	r0, [pc, #84]	; 81f8 <user_test+0x80>
    81a0:	e59f1054 	ldr	r1, [pc, #84]	; 81fc <user_test+0x84>
    81a4:	e59f2054 	ldr	r2, [pc, #84]	; 8200 <user_test+0x88>
    81a8:	e3a0300f 	mov	r3, #15
    81ac:	eb0003cb 	bl	90e0 <printk>
    81b0:	eb000562 	bl	9740 <clean_reboot>
    81b4:	e5921000 	ldr	r1, [r2]
    81b8:	e2811001 	add	r1, r1, #1
    81bc:	e5821000 	str	r1, [r2]
    81c0:	e2833001 	add	r3, r3, #1
    81c4:	ea000002 	b	81d4 <user_test+0x5c>
    81c8:	e3a03000 	mov	r3, #0
    81cc:	e59f0030 	ldr	r0, [pc, #48]	; 8204 <user_test+0x8c>
    81d0:	e59f2030 	ldr	r2, [pc, #48]	; 8208 <user_test+0x90>
    81d4:	e1530000 	cmp	r3, r0
    81d8:	dafffff5 	ble	81b4 <user_test+0x3c>
    81dc:	e3a02001 	mov	r2, #1
    81e0:	e59f3024 	ldr	r3, [pc, #36]	; 820c <user_test+0x94>
    81e4:	e5832000 	str	r2, [r3]
    81e8:	e28dd00c 	add	sp, sp, #12
    81ec:	e49df004 	pop	{pc}		; (ldr pc, [sp], #4)
    81f0:	0000a5a4 	andeq	sl, r0, r4, lsr #11
    81f4:	00009dc0 	andeq	r9, r0, r0, asr #27
    81f8:	00009d4c 	andeq	r9, r0, ip, asr #26
    81fc:	00009da8 	andeq	r9, r0, r8, lsr #27
    8200:	00009f88 	andeq	r9, r0, r8, lsl #31
    8204:	0000270f 	andeq	r2, r0, pc, lsl #14
    8208:	0000a5a0 	andeq	sl, r0, r0, lsr #11
    820c:	0000a59c 	muleq	r0, ip, r5

00008210 <single_step_handler>:
    8210:	e92d4010 	push	{r4, lr}
    8214:	e24dd008 	sub	sp, sp, #8
    8218:	e1a04001 	mov	r4, r1
    821c:	e59f311c 	ldr	r3, [pc, #284]	; 8340 <single_step_handler+0x130>
    8220:	e5933000 	ldr	r3, [r3]
    8224:	e3530000 	cmp	r3, #0
    8228:	0a000007 	beq	824c <single_step_handler+0x3c>
    822c:	e58d1000 	str	r1, [sp]
    8230:	e59f310c 	ldr	r3, [pc, #268]	; 8344 <single_step_handler+0x134>
    8234:	e58d3004 	str	r3, [sp, #4]
    8238:	e59f0108 	ldr	r0, [pc, #264]	; 8348 <single_step_handler+0x138>
    823c:	e59f1108 	ldr	r1, [pc, #264]	; 834c <single_step_handler+0x13c>
    8240:	e59f2108 	ldr	r2, [pc, #264]	; 8350 <single_step_handler+0x140>
    8244:	e3a03018 	mov	r3, #24
    8248:	eb0003a4 	bl	90e0 <printk>
    824c:	ee153f30 	mrc	15, 0, r3, cr5, cr0, {1}
    8250:	e203300f 	and	r3, r3, #15
    8254:	e3530002 	cmp	r3, #2
    8258:	0a000006 	beq	8278 <single_step_handler+0x68>
    825c:	eb0003ba 	bl	914c <rpi_reset_putc>
    8260:	e59f00ec 	ldr	r0, [pc, #236]	; 8354 <single_step_handler+0x144>
    8264:	e59f10e0 	ldr	r1, [pc, #224]	; 834c <single_step_handler+0x13c>
    8268:	e59f20e0 	ldr	r2, [pc, #224]	; 8350 <single_step_handler+0x140>
    826c:	e3a0301b 	mov	r3, #27
    8270:	eb00039a 	bl	90e0 <printk>
    8274:	eb000531 	bl	9740 <clean_reboot>
    8278:	e59f30d8 	ldr	r3, [pc, #216]	; 8358 <single_step_handler+0x148>
    827c:	e5933000 	ldr	r3, [r3]
    8280:	e3530000 	cmp	r3, #0
    8284:	0a000014 	beq	82dc <single_step_handler+0xcc>
    8288:	e59f30cc 	ldr	r3, [pc, #204]	; 835c <single_step_handler+0x14c>
    828c:	e5932000 	ldr	r2, [r3]
    8290:	e59f30c8 	ldr	r3, [pc, #200]	; 8360 <single_step_handler+0x150>
    8294:	e1520003 	cmp	r2, r3
    8298:	0a000008 	beq	82c0 <single_step_handler+0xb0>
    829c:	eb0003aa 	bl	914c <rpi_reset_putc>
    82a0:	e59f30bc 	ldr	r3, [pc, #188]	; 8364 <single_step_handler+0x154>
    82a4:	e58d3000 	str	r3, [sp]
    82a8:	e59f00b8 	ldr	r0, [pc, #184]	; 8368 <single_step_handler+0x158>
    82ac:	e59f1098 	ldr	r1, [pc, #152]	; 834c <single_step_handler+0x13c>
    82b0:	e59f2098 	ldr	r2, [pc, #152]	; 8350 <single_step_handler+0x140>
    82b4:	e3a0301e 	mov	r3, #30
    82b8:	eb000388 	bl	90e0 <printk>
    82bc:	eb00051f 	bl	9740 <clean_reboot>
    82c0:	e59f3094 	ldr	r3, [pc, #148]	; 835c <single_step_handler+0x14c>
    82c4:	e5931000 	ldr	r1, [r3]
    82c8:	e59f009c 	ldr	r0, [pc, #156]	; 836c <single_step_handler+0x15c>
    82cc:	eb000383 	bl	90e0 <printk>
    82d0:	e1a00004 	mov	r0, r4
    82d4:	eb00014e 	bl	8814 <brkpt_mismatch_disable0>
    82d8:	ea000016 	b	8338 <single_step_handler+0x128>
    82dc:	e59f305c 	ldr	r3, [pc, #92]	; 8340 <single_step_handler+0x130>
    82e0:	e5933000 	ldr	r3, [r3]
    82e4:	e3530000 	cmp	r3, #0
    82e8:	0a000005 	beq	8304 <single_step_handler+0xf4>
    82ec:	e58d4000 	str	r4, [sp]
    82f0:	e59f0078 	ldr	r0, [pc, #120]	; 8370 <single_step_handler+0x160>
    82f4:	e59f1050 	ldr	r1, [pc, #80]	; 834c <single_step_handler+0x13c>
    82f8:	e59f2050 	ldr	r2, [pc, #80]	; 8350 <single_step_handler+0x140>
    82fc:	e3a03022 	mov	r3, #34	; 0x22
    8300:	eb000376 	bl	90e0 <printk>
    8304:	e1a00004 	mov	r0, r4
    8308:	e59f1064 	ldr	r1, [pc, #100]	; 8374 <single_step_handler+0x164>
    830c:	eb000133 	bl	87e0 <brkpt_mismatch_set0>
    8310:	e59f3028 	ldr	r3, [pc, #40]	; 8340 <single_step_handler+0x130>
    8314:	e5933000 	ldr	r3, [r3]
    8318:	e3530000 	cmp	r3, #0
    831c:	0a000005 	beq	8338 <single_step_handler+0x128>
    8320:	e58d4000 	str	r4, [sp]
    8324:	e59f004c 	ldr	r0, [pc, #76]	; 8378 <single_step_handler+0x168>
    8328:	e59f101c 	ldr	r1, [pc, #28]	; 834c <single_step_handler+0x13c>
    832c:	e59f201c 	ldr	r2, [pc, #28]	; 8350 <single_step_handler+0x140>
    8330:	e3a03024 	mov	r3, #36	; 0x24
    8334:	eb000369 	bl	90e0 <printk>
    8338:	e28dd008 	add	sp, sp, #8
    833c:	e8bd8010 	pop	{r4, pc}
    8340:	0000a5b0 			; <UNDEFINED> instruction: 0x0000a5b0
    8344:	00008178 	andeq	r8, r0, r8, ror r1
    8348:	00009ddc 	ldrdeq	r9, [r0], -ip
    834c:	00009da8 	andeq	r9, r0, r8, lsr #27
    8350:	00009f9c 	muleq	r0, ip, pc	; <UNPREDICTABLE>
    8354:	00009e0c 	andeq	r9, r0, ip, lsl #28
    8358:	0000a59c 	muleq	r0, ip, r5
    835c:	0000a5a0 	andeq	sl, r0, r0, lsr #11
    8360:	00002710 	andeq	r2, r0, r0, lsl r7
    8364:	00009e44 	andeq	r9, r0, r4, asr #28
    8368:	00009d4c 	andeq	r9, r0, ip, asr #26
    836c:	00009e50 	andeq	r9, r0, r0, asr lr
    8370:	00009e70 	andeq	r9, r0, r0, ror lr
    8374:	00008210 	andeq	r8, r0, r0, lsl r2
    8378:	00009e98 	muleq	r0, r8, lr

0000837c <notmain>:
    837c:	e92d4030 	push	{r4, r5, lr}
    8380:	e24dd00c 	sub	sp, sp, #12
    8384:	eb0000c7 	bl	86a8 <cp14_enable>
    8388:	eb0004e4 	bl	9720 <enable_cache>
    838c:	e59f5144 	ldr	r5, [pc, #324]	; 84d8 <notmain+0x15c>
    8390:	e3a03001 	mov	r3, #1
    8394:	e5853000 	str	r3, [r5]
    8398:	e10f4000 	mrs	r4, CPSR
    839c:	e1a00004 	mov	r0, r4
    83a0:	ebffff1e 	bl	8020 <mode_str>
    83a4:	e1a01000 	mov	r1, r0
    83a8:	e59f012c 	ldr	r0, [pc, #300]	; 84dc <notmain+0x160>
    83ac:	e1a02004 	mov	r2, r4
    83b0:	eb00034a 	bl	90e0 <printk>
    83b4:	e5953000 	ldr	r3, [r5]
    83b8:	e3530000 	cmp	r3, #0
    83bc:	0a000004 	beq	83d4 <notmain+0x58>
    83c0:	e59f0118 	ldr	r0, [pc, #280]	; 84e0 <notmain+0x164>
    83c4:	e59f1118 	ldr	r1, [pc, #280]	; 84e4 <notmain+0x168>
    83c8:	e59f2118 	ldr	r2, [pc, #280]	; 84e8 <notmain+0x16c>
    83cc:	e3a03034 	mov	r3, #52	; 0x34
    83d0:	eb000342 	bl	90e0 <printk>
    83d4:	e3a00000 	mov	r0, #0
    83d8:	e59f110c 	ldr	r1, [pc, #268]	; 84ec <notmain+0x170>
    83dc:	eb0000ff 	bl	87e0 <brkpt_mismatch_set0>
    83e0:	e59f30f0 	ldr	r3, [pc, #240]	; 84d8 <notmain+0x15c>
    83e4:	e5933000 	ldr	r3, [r3]
    83e8:	e3530000 	cmp	r3, #0
    83ec:	0a000004 	beq	8404 <notmain+0x88>
    83f0:	e59f00f8 	ldr	r0, [pc, #248]	; 84f0 <notmain+0x174>
    83f4:	e59f10e8 	ldr	r1, [pc, #232]	; 84e4 <notmain+0x168>
    83f8:	e59f20e8 	ldr	r2, [pc, #232]	; 84e8 <notmain+0x16c>
    83fc:	e3a03036 	mov	r3, #54	; 0x36
    8400:	eb000336 	bl	90e0 <printk>
    8404:	e3a02000 	mov	r2, #0
    8408:	e59f30c8 	ldr	r3, [pc, #200]	; 84d8 <notmain+0x15c>
    840c:	e5832000 	str	r2, [r3]
    8410:	e59f20dc 	ldr	r2, [pc, #220]	; 84f4 <notmain+0x178>
    8414:	e5822000 	str	r2, [r2]
    8418:	e3c4001f 	bic	r0, r4, #31
    841c:	e3800010 	orr	r0, r0, #16
    8420:	e59f10d0 	ldr	r1, [pc, #208]	; 84f8 <notmain+0x17c>
    8424:	eb00014c 	bl	895c <user_trampoline_ret>
    8428:	e1a00004 	mov	r0, r4
    842c:	ebfffefb 	bl	8020 <mode_str>
    8430:	e1a01000 	mov	r1, r0
    8434:	e59f00c0 	ldr	r0, [pc, #192]	; 84fc <notmain+0x180>
    8438:	e1a02004 	mov	r2, r4
    843c:	eb000327 	bl	90e0 <printk>
    8440:	e10f4000 	mrs	r4, CPSR
    8444:	e10f0000 	mrs	r0, CPSR
    8448:	ebfffef4 	bl	8020 <mode_str>
    844c:	e1a01000 	mov	r1, r0
    8450:	e59f0084 	ldr	r0, [pc, #132]	; 84dc <notmain+0x160>
    8454:	e1a02004 	mov	r2, r4
    8458:	eb000320 	bl	90e0 <printk>
    845c:	e10f3000 	mrs	r3, CPSR
    8460:	e1540003 	cmp	r4, r3
    8464:	0a000008 	beq	848c <notmain+0x110>
    8468:	eb000337 	bl	914c <rpi_reset_putc>
    846c:	e59f308c 	ldr	r3, [pc, #140]	; 8500 <notmain+0x184>
    8470:	e58d3000 	str	r3, [sp]
    8474:	e59f0088 	ldr	r0, [pc, #136]	; 8504 <notmain+0x188>
    8478:	e59f1064 	ldr	r1, [pc, #100]	; 84e4 <notmain+0x168>
    847c:	e59f2064 	ldr	r2, [pc, #100]	; 84e8 <notmain+0x16c>
    8480:	e3a03042 	mov	r3, #66	; 0x42
    8484:	eb000315 	bl	90e0 <printk>
    8488:	eb0004ac 	bl	9740 <clean_reboot>
    848c:	e59f3074 	ldr	r3, [pc, #116]	; 8508 <notmain+0x18c>
    8490:	e5932000 	ldr	r2, [r3]
    8494:	e59f3070 	ldr	r3, [pc, #112]	; 850c <notmain+0x190>
    8498:	e1520003 	cmp	r2, r3
    849c:	0a000008 	beq	84c4 <notmain+0x148>
    84a0:	eb000329 	bl	914c <rpi_reset_putc>
    84a4:	e59f3064 	ldr	r3, [pc, #100]	; 8510 <notmain+0x194>
    84a8:	e58d3000 	str	r3, [sp]
    84ac:	e59f0050 	ldr	r0, [pc, #80]	; 8504 <notmain+0x188>
    84b0:	e59f102c 	ldr	r1, [pc, #44]	; 84e4 <notmain+0x168>
    84b4:	e59f202c 	ldr	r2, [pc, #44]	; 84e8 <notmain+0x16c>
    84b8:	e3a03043 	mov	r3, #67	; 0x43
    84bc:	eb000307 	bl	90e0 <printk>
    84c0:	eb00049e 	bl	9740 <clean_reboot>
    84c4:	e59f0048 	ldr	r0, [pc, #72]	; 8514 <notmain+0x198>
    84c8:	eb000304 	bl	90e0 <printk>
    84cc:	e59f0044 	ldr	r0, [pc, #68]	; 8518 <notmain+0x19c>
    84d0:	eb000302 	bl	90e0 <printk>
    84d4:	eb000499 	bl	9740 <clean_reboot>
    84d8:	0000a5b0 			; <UNDEFINED> instruction: 0x0000a5b0
    84dc:	00009ec4 	andeq	r9, r0, r4, asr #29
    84e0:	00009edc 	ldrdeq	r9, [r0], -ip
    84e4:	00009da8 	andeq	r9, r0, r8, lsr #27
    84e8:	00009f94 	muleq	r0, r4, pc	; <UNPREDICTABLE>
    84ec:	00008210 	andeq	r8, r0, r0, lsl r2
    84f0:	00009f04 	andeq	r9, r0, r4, lsl #30
    84f4:	0000a5a4 	andeq	sl, r0, r4, lsr #11
    84f8:	00008178 	andeq	r8, r0, r8, ror r1
    84fc:	00009f24 	andeq	r9, r0, r4, lsr #30
    8500:	00009f40 	andeq	r9, r0, r0, asr #30
    8504:	00009d4c 	andeq	r9, r0, ip, asr #26
    8508:	0000a5a0 	andeq	sl, r0, r0, lsr #11
    850c:	00002710 	andeq	r2, r0, r0, lsl r7
    8510:	00009e44 	andeq	r9, r0, r4, asr #28
    8514:	00009f58 	andeq	r9, r0, r8, asr pc
    8518:	00009f64 	andeq	r9, r0, r4, ror #30

0000851c <watchpt_set0>:
    851c:	e52de004 	push	{lr}		; (str lr, [sp, #-4]!)
    8520:	e24dd00c 	sub	sp, sp, #12
    8524:	ee103ef0 	mrc	14, 0, r3, cr0, cr0, {7}
    8528:	e3c33001 	bic	r3, r3, #1
    852c:	ee003ef0 	mcr	14, 0, r3, cr0, cr0, {7}
    8530:	ee102ef0 	mrc	14, 0, r2, cr0, cr0, {7}
    8534:	e1530002 	cmp	r3, r2
    8538:	0a000008 	beq	8560 <watchpt_set0+0x44>
    853c:	eb000302 	bl	914c <rpi_reset_putc>
    8540:	e59f306c 	ldr	r3, [pc, #108]	; 85b4 <watchpt_set0+0x98>
    8544:	e58d3000 	str	r3, [sp]
    8548:	e59f0068 	ldr	r0, [pc, #104]	; 85b8 <watchpt_set0+0x9c>
    854c:	e59f1068 	ldr	r1, [pc, #104]	; 85bc <watchpt_set0+0xa0>
    8550:	e59f2068 	ldr	r2, [pc, #104]	; 85c0 <watchpt_set0+0xa4>
    8554:	e3a03041 	mov	r3, #65	; 0x41
    8558:	eb0002e0 	bl	90e0 <printk>
    855c:	eb000477 	bl	9740 <clean_reboot>
    8560:	ee000ed0 	mcr	14, 0, r0, cr0, cr0, {6}
    8564:	e59f3058 	ldr	r3, [pc, #88]	; 85c4 <watchpt_set0+0xa8>
    8568:	ee003ef0 	mcr	14, 0, r3, cr0, cr0, {7}
    856c:	ee102ef0 	mrc	14, 0, r2, cr0, cr0, {7}
    8570:	e1520003 	cmp	r2, r3
    8574:	0a000008 	beq	859c <watchpt_set0+0x80>
    8578:	eb0002f3 	bl	914c <rpi_reset_putc>
    857c:	e59f3030 	ldr	r3, [pc, #48]	; 85b4 <watchpt_set0+0x98>
    8580:	e58d3000 	str	r3, [sp]
    8584:	e59f002c 	ldr	r0, [pc, #44]	; 85b8 <watchpt_set0+0x9c>
    8588:	e59f102c 	ldr	r1, [pc, #44]	; 85bc <watchpt_set0+0xa0>
    858c:	e59f202c 	ldr	r2, [pc, #44]	; 85c0 <watchpt_set0+0xa4>
    8590:	e3a03052 	mov	r3, #82	; 0x52
    8594:	eb0002d1 	bl	90e0 <printk>
    8598:	eb000468 	bl	9740 <clean_reboot>
    859c:	e3a03000 	mov	r3, #0
    85a0:	ee073f95 	mcr	15, 0, r3, cr7, cr5, {4}
    85a4:	e59f301c 	ldr	r3, [pc, #28]	; 85c8 <watchpt_set0+0xac>
    85a8:	e5831000 	str	r1, [r3]
    85ac:	e28dd00c 	add	sp, sp, #12
    85b0:	e49df004 	pop	{pc}		; (ldr pc, [sp], #4)
    85b4:	00009ffc 	strdeq	r9, [r0], -ip
    85b8:	00009d4c 	andeq	r9, r0, ip, asr #26
    85bc:	00009fec 	andeq	r9, r0, ip, ror #31
    85c0:	0000a0e8 	andeq	sl, r0, r8, ror #1
    85c4:	000001ff 	strdeq	r0, [r0], -pc	; <UNPREDICTABLE>
    85c8:	0000a5a8 	andeq	sl, r0, r8, lsr #11

000085cc <data_abort_vector>:
    85cc:	e52de004 	push	{lr}		; (str lr, [sp, #-4]!)
    85d0:	e24dd00c 	sub	sp, sp, #12
    85d4:	e1a01000 	mov	r1, r0
    85d8:	ee153f10 	mrc	15, 0, r3, cr5, cr0, {0}
    85dc:	ee153f10 	mrc	15, 0, r3, cr5, cr0, {0}
    85e0:	e203300f 	and	r3, r3, #15
    85e4:	e3530002 	cmp	r3, #2
    85e8:	0a000006 	beq	8608 <data_abort_vector+0x3c>
    85ec:	eb0002d6 	bl	914c <rpi_reset_putc>
    85f0:	e59f008c 	ldr	r0, [pc, #140]	; 8684 <data_abort_vector+0xb8>
    85f4:	e59f108c 	ldr	r1, [pc, #140]	; 8688 <data_abort_vector+0xbc>
    85f8:	e59f208c 	ldr	r2, [pc, #140]	; 868c <data_abort_vector+0xc0>
    85fc:	e3a03079 	mov	r3, #121	; 0x79
    8600:	eb0002b6 	bl	90e0 <printk>
    8604:	eb00044d 	bl	9740 <clean_reboot>
    8608:	ee103e16 	mrc	14, 0, r3, cr0, cr6, {0}
    860c:	e2433004 	sub	r3, r3, #4
    8610:	e1530000 	cmp	r3, r0
    8614:	0a000008 	beq	863c <data_abort_vector+0x70>
    8618:	eb0002cb 	bl	914c <rpi_reset_putc>
    861c:	e59f306c 	ldr	r3, [pc, #108]	; 8690 <data_abort_vector+0xc4>
    8620:	e58d3000 	str	r3, [sp]
    8624:	e59f0068 	ldr	r0, [pc, #104]	; 8694 <data_abort_vector+0xc8>
    8628:	e59f1068 	ldr	r1, [pc, #104]	; 8698 <data_abort_vector+0xcc>
    862c:	e59f2068 	ldr	r2, [pc, #104]	; 869c <data_abort_vector+0xd0>
    8630:	e3a03067 	mov	r3, #103	; 0x67
    8634:	eb0002a9 	bl	90e0 <printk>
    8638:	eb000440 	bl	9740 <clean_reboot>
    863c:	e59f305c 	ldr	r3, [pc, #92]	; 86a0 <data_abort_vector+0xd4>
    8640:	e5933000 	ldr	r3, [r3]
    8644:	e3530000 	cmp	r3, #0
    8648:	1a000008 	bne	8670 <data_abort_vector+0xa4>
    864c:	eb0002be 	bl	914c <rpi_reset_putc>
    8650:	e59f304c 	ldr	r3, [pc, #76]	; 86a4 <data_abort_vector+0xd8>
    8654:	e58d3000 	str	r3, [sp]
    8658:	e59f0034 	ldr	r0, [pc, #52]	; 8694 <data_abort_vector+0xc8>
    865c:	e59f1034 	ldr	r1, [pc, #52]	; 8698 <data_abort_vector+0xcc>
    8660:	e59f2034 	ldr	r2, [pc, #52]	; 869c <data_abort_vector+0xd0>
    8664:	e3a03069 	mov	r3, #105	; 0x69
    8668:	eb00029c 	bl	90e0 <printk>
    866c:	eb000433 	bl	9740 <clean_reboot>
    8670:	ee162f10 	mrc	15, 0, r2, cr6, cr0, {0}
    8674:	e3a00000 	mov	r0, #0
    8678:	e12fff33 	blx	r3
    867c:	e28dd00c 	add	sp, sp, #12
    8680:	e49df004 	pop	{pc}		; (ldr pc, [sp], #4)
    8684:	0000a014 	andeq	sl, r0, r4, lsl r0
    8688:	0000a04c 	andeq	sl, r0, ip, asr #32
    868c:	0000a10c 	andeq	sl, r0, ip, lsl #2
    8690:	0000a05c 	andeq	sl, r0, ip, asr r0
    8694:	00009d4c 	andeq	r9, r0, ip, asr #26
    8698:	00009fec 	andeq	r9, r0, ip, ror #31
    869c:	0000a0f8 	strdeq	sl, [r0], -r8
    86a0:	0000a5a8 	andeq	sl, r0, r8, lsr #11
    86a4:	0000a070 	andeq	sl, r0, r0, ror r0

000086a8 <cp14_enable>:
    86a8:	e92d4008 	push	{r3, lr}
    86ac:	e59f302c 	ldr	r3, [pc, #44]	; 86e0 <cp14_enable+0x38>
    86b0:	e5933000 	ldr	r3, [r3]
    86b4:	e3530000 	cmp	r3, #0
    86b8:	1a000003 	bne	86cc <cp14_enable+0x24>
    86bc:	eb00046d 	bl	9878 <int_init>
    86c0:	e3a02001 	mov	r2, #1
    86c4:	e59f3014 	ldr	r3, [pc, #20]	; 86e0 <cp14_enable+0x38>
    86c8:	e5832000 	str	r2, [r3]
    86cc:	e3a03902 	mov	r3, #32768	; 0x8000
    86d0:	ee003e11 	mcr	14, 0, r3, cr0, cr1, {0}
    86d4:	e3a03000 	mov	r3, #0
    86d8:	ee073f95 	mcr	15, 0, r3, cr7, cr5, {4}
    86dc:	e8bd8008 	pop	{r3, pc}
    86e0:	0000a5b8 			; <UNDEFINED> instruction: 0x0000a5b8

000086e4 <brkpt_set0>:
    86e4:	ee103eb0 	mrc	14, 0, r3, cr0, cr0, {5}
    86e8:	e3c33001 	bic	r3, r3, #1
    86ec:	ee003eb0 	mcr	14, 0, r3, cr0, cr0, {5}
    86f0:	ee000e90 	mcr	14, 0, r0, cr0, cr0, {4}
    86f4:	e59f3014 	ldr	r3, [pc, #20]	; 8710 <brkpt_set0+0x2c>
    86f8:	ee003eb0 	mcr	14, 0, r3, cr0, cr0, {5}
    86fc:	e3a03000 	mov	r3, #0
    8700:	ee073f95 	mcr	15, 0, r3, cr7, cr5, {4}
    8704:	e59f3008 	ldr	r3, [pc, #8]	; 8714 <brkpt_set0+0x30>
    8708:	e5831000 	str	r1, [r3]
    870c:	e12fff1e 	bx	lr
    8710:	000001e7 	andeq	r0, r0, r7, ror #3
    8714:	0000a5ac 	andeq	sl, r0, ip, lsr #11

00008718 <prefetch_abort_vector>:
    8718:	e52de004 	push	{lr}		; (str lr, [sp, #-4]!)
    871c:	e24dd00c 	sub	sp, sp, #12
    8720:	e1a01000 	mov	r1, r0
    8724:	ee153f30 	mrc	15, 0, r3, cr5, cr0, {1}
    8728:	e203300f 	and	r3, r3, #15
    872c:	e3530002 	cmp	r3, #2
    8730:	0a000006 	beq	8750 <prefetch_abort_vector+0x38>
    8734:	eb000284 	bl	914c <rpi_reset_putc>
    8738:	e59f0058 	ldr	r0, [pc, #88]	; 8798 <prefetch_abort_vector+0x80>
    873c:	e59f1058 	ldr	r1, [pc, #88]	; 879c <prefetch_abort_vector+0x84>
    8740:	e59f2058 	ldr	r2, [pc, #88]	; 87a0 <prefetch_abort_vector+0x88>
    8744:	e3a030c7 	mov	r3, #199	; 0xc7
    8748:	eb000264 	bl	90e0 <printk>
    874c:	eb0003fb 	bl	9740 <clean_reboot>
    8750:	e59f304c 	ldr	r3, [pc, #76]	; 87a4 <prefetch_abort_vector+0x8c>
    8754:	e5933000 	ldr	r3, [r3]
    8758:	e3530000 	cmp	r3, #0
    875c:	1a000008 	bne	8784 <prefetch_abort_vector+0x6c>
    8760:	eb000279 	bl	914c <rpi_reset_putc>
    8764:	e59f303c 	ldr	r3, [pc, #60]	; 87a8 <prefetch_abort_vector+0x90>
    8768:	e58d3000 	str	r3, [sp]
    876c:	e59f0038 	ldr	r0, [pc, #56]	; 87ac <prefetch_abort_vector+0x94>
    8770:	e59f1024 	ldr	r1, [pc, #36]	; 879c <prefetch_abort_vector+0x84>
    8774:	e59f2024 	ldr	r2, [pc, #36]	; 87a0 <prefetch_abort_vector+0x88>
    8778:	e3a030c8 	mov	r3, #200	; 0xc8
    877c:	eb000257 	bl	90e0 <printk>
    8780:	eb0003ee 	bl	9740 <clean_reboot>
    8784:	ee162f10 	mrc	15, 0, r2, cr6, cr0, {0}
    8788:	e3a00000 	mov	r0, #0
    878c:	e12fff33 	blx	r3
    8790:	e28dd00c 	add	sp, sp, #12
    8794:	e49df004 	pop	{pc}		; (ldr pc, [sp], #4)
    8798:	00009e0c 	andeq	r9, r0, ip, lsl #28
    879c:	00009fec 	andeq	r9, r0, ip, ror #31
    87a0:	0000a120 	andeq	sl, r0, r0, lsr #2
    87a4:	0000a5ac 	andeq	sl, r0, ip, lsr #11
    87a8:	0000a084 	andeq	sl, r0, r4, lsl #1
    87ac:	00009d4c 	andeq	r9, r0, ip, asr #26

000087b0 <interrupt_vector>:
    87b0:	e12fff1e 	bx	lr

000087b4 <brk_no_ret_error>:
    87b4:	e92d4008 	push	{r3, lr}
    87b8:	eb000263 	bl	914c <rpi_reset_putc>
    87bc:	e59f0010 	ldr	r0, [pc, #16]	; 87d4 <brk_no_ret_error+0x20>
    87c0:	e59f1010 	ldr	r1, [pc, #16]	; 87d8 <brk_no_ret_error+0x24>
    87c4:	e59f2010 	ldr	r2, [pc, #16]	; 87dc <brk_no_ret_error+0x28>
    87c8:	e3a030d9 	mov	r3, #217	; 0xd9
    87cc:	eb000243 	bl	90e0 <printk>
    87d0:	eb0003da 	bl	9740 <clean_reboot>
    87d4:	0000a094 	muleq	r0, r4, r0
    87d8:	00009fec 	andeq	r9, r0, ip, ror #31
    87dc:	0000a138 	andeq	sl, r0, r8, lsr r1

000087e0 <brkpt_mismatch_set0>:
    87e0:	ee103eb0 	mrc	14, 0, r3, cr0, cr0, {5}
    87e4:	e3c33001 	bic	r3, r3, #1
    87e8:	ee003eb0 	mcr	14, 0, r3, cr0, cr0, {5}
    87ec:	ee000e90 	mcr	14, 0, r0, cr0, cr0, {4}
    87f0:	e59f3014 	ldr	r3, [pc, #20]	; 880c <brkpt_mismatch_set0+0x2c>
    87f4:	ee003eb0 	mcr	14, 0, r3, cr0, cr0, {5}
    87f8:	e3a03000 	mov	r3, #0
    87fc:	ee073f95 	mcr	15, 0, r3, cr7, cr5, {4}
    8800:	e59f3008 	ldr	r3, [pc, #8]	; 8810 <brkpt_mismatch_set0+0x30>
    8804:	e5831000 	str	r1, [r3]
    8808:	e12fff1e 	bx	lr
    880c:	004001e7 	subeq	r0, r0, r7, ror #3
    8810:	0000a5ac 	andeq	sl, r0, ip, lsr #11

00008814 <brkpt_mismatch_disable0>:
    8814:	e59f3004 	ldr	r3, [pc, #4]	; 8820 <brkpt_mismatch_disable0+0xc>
    8818:	ee003eb0 	mcr	14, 0, r3, cr0, cr0, {5}
    881c:	e12fff1e 	bx	lr
    8820:	004001e6 	subeq	r0, r0, r6, ror #3

00008824 <syscall_vector>:
    8824:	e92d4008 	push	{r3, lr}
    8828:	e5903000 	ldr	r3, [r0]
    882c:	e3c334ff 	bic	r3, r3, #-16777216	; 0xff000000
    8830:	e3530001 	cmp	r3, #1
    8834:	1a000001 	bne	8840 <syscall_vector+0x1c>
    8838:	e169f001 	msr	SPSR_fc, r1
    883c:	ea000007 	b	8860 <syscall_vector+0x3c>
    8840:	e3530002 	cmp	r3, #2
    8844:	1a000002 	bne	8854 <syscall_vector+0x30>
    8848:	e59f0018 	ldr	r0, [pc, #24]	; 8868 <syscall_vector+0x44>
    884c:	eb000223 	bl	90e0 <printk>
    8850:	ea000002 	b	8860 <syscall_vector+0x3c>
    8854:	e59f0010 	ldr	r0, [pc, #16]	; 886c <syscall_vector+0x48>
    8858:	e1a01003 	mov	r1, r3
    885c:	eb00021f 	bl	90e0 <printk>
    8860:	e3a00000 	mov	r0, #0
    8864:	e8bd8008 	pop	{r3, pc}
    8868:	0000a0c4 	andeq	sl, r0, r4, asr #1
    886c:	0000a0d0 	ldrdeq	sl, [r0], -r0

00008870 <_interrupt_table>:
    8870:	e59ff020 	ldr	pc, [pc, #32]	; 8898 <_reset_asm>
    8874:	e59ff020 	ldr	pc, [pc, #32]	; 889c <_undefined_instruction_asm>
    8878:	e59ff020 	ldr	pc, [pc, #32]	; 88a0 <_software_interrupt_asm>
    887c:	e59ff020 	ldr	pc, [pc, #32]	; 88a4 <_prefetch_abort_asm>
    8880:	e59ff020 	ldr	pc, [pc, #32]	; 88a8 <_data_abort_asm>
    8884:	e59ff00c 	ldr	pc, [pc, #12]	; 8898 <_reset_asm>
    8888:	e59ff01c 	ldr	pc, [pc, #28]	; 88ac <_interrupt_asm>

0000888c <fast_interrupt_asm>:
    888c:	e3a0d409 	mov	sp, #150994944	; 0x9000000
    8890:	e24ee004 	sub	lr, lr, #4
    8894:	eb0003c2 	bl	97a4 <fast_interrupt_vector>

00008898 <_reset_asm>:
    8898:	000088c8 	andeq	r8, r0, r8, asr #17

0000889c <_undefined_instruction_asm>:
    889c:	0000890c 	andeq	r8, r0, ip, lsl #18

000088a0 <_software_interrupt_asm>:
    88a0:	00008918 	andeq	r8, r0, r8, lsl r9

000088a4 <_prefetch_abort_asm>:
    88a4:	000088f0 	strdeq	r8, [r0], -r0

000088a8 <_data_abort_asm>:
    88a8:	000088d4 	ldrdeq	r8, [r0], -r4

000088ac <_interrupt_asm>:
    88ac:	000088b0 			; <UNDEFINED> instruction: 0x000088b0

000088b0 <_interrupt_table_end>:
    88b0:	e3a0d409 	mov	sp, #150994944	; 0x9000000
    88b4:	e24ee004 	sub	lr, lr, #4
    88b8:	e92d5fff 	push	{r0, r1, r2, r3, r4, r5, r6, r7, r8, r9, sl, fp, ip, lr}
    88bc:	e1a0000e 	mov	r0, lr
    88c0:	e8bd5fff 	pop	{r0, r1, r2, r3, r4, r5, r6, r7, r8, r9, sl, fp, ip, lr}
    88c4:	e1b0f00e 	movs	pc, lr

000088c8 <reset_asm>:
    88c8:	e3a0d409 	mov	sp, #150994944	; 0x9000000
    88cc:	e24ee004 	sub	lr, lr, #4
    88d0:	eb0003c4 	bl	97e8 <reset_vector>

000088d4 <data_abort_asm>:
    88d4:	e24ee008 	sub	lr, lr, #8
    88d8:	e3a0d409 	mov	sp, #150994944	; 0x9000000
    88dc:	e92d5fff 	push	{r0, r1, r2, r3, r4, r5, r6, r7, r8, r9, sl, fp, ip, lr}
    88e0:	e1a0000e 	mov	r0, lr
    88e4:	ebffff38 	bl	85cc <data_abort_vector>
    88e8:	e8bd5fff 	pop	{r0, r1, r2, r3, r4, r5, r6, r7, r8, r9, sl, fp, ip, lr}
    88ec:	e1b0f00e 	movs	pc, lr

000088f0 <prefetch_abort_asm>:
    88f0:	e24ee004 	sub	lr, lr, #4
    88f4:	e3a0d409 	mov	sp, #150994944	; 0x9000000
    88f8:	e92d5fff 	push	{r0, r1, r2, r3, r4, r5, r6, r7, r8, r9, sl, fp, ip, lr}
    88fc:	e1a0000e 	mov	r0, lr
    8900:	ebffff84 	bl	8718 <prefetch_abort_vector>
    8904:	e8bd5fff 	pop	{r0, r1, r2, r3, r4, r5, r6, r7, r8, r9, sl, fp, ip, lr}
    8908:	e1b0f00e 	movs	pc, lr

0000890c <undefined_instruction_asm>:
    890c:	e3a0d409 	mov	sp, #150994944	; 0x9000000
    8910:	e24ee004 	sub	lr, lr, #4
    8914:	eb0003c4 	bl	982c <undefined_instruction_vector>

00008918 <software_interrupt_asm>:
    8918:	e92d5ff0 	push	{r4, r5, r6, r7, r8, r9, sl, fp, ip, lr}
    891c:	e24ee004 	sub	lr, lr, #4
    8920:	e1a01000 	mov	r1, r0
    8924:	e1a0000e 	mov	r0, lr
    8928:	ebffffbd 	bl	8824 <syscall_vector>
    892c:	e8bd5ff0 	pop	{r4, r5, r6, r7, r8, r9, sl, fp, ip, lr}
    8930:	e1b0f00e 	movs	pc, lr

00008934 <user_trampoline_no_ret>:
    8934:	e1a0200d 	mov	r2, sp
    8938:	e129f000 	msr	CPSR_fc, r0
    893c:	e10f5000 	mrs	r5, CPSR
    8940:	ee070f95 	mcr	15, 0, r0, cr7, cr5, {4}
    8944:	e1a0d002 	mov	sp, r2
    8948:	e92d5ff0 	push	{r4, r5, r6, r7, r8, r9, sl, fp, ip, lr}
    894c:	e12fff31 	blx	r1
    8950:	e8bd5ff0 	pop	{r4, r5, r6, r7, r8, r9, sl, fp, ip, lr}
    8954:	eb000379 	bl	9740 <clean_reboot>
    8958:	ebffff95 	bl	87b4 <brk_no_ret_error>

0000895c <user_trampoline_ret>:
    895c:	e92d5ff0 	push	{r4, r5, r6, r7, r8, r9, sl, fp, ip, lr}
    8960:	e10f4000 	mrs	r4, CPSR
    8964:	e1a0500d 	mov	r5, sp
    8968:	e129f000 	msr	CPSR_fc, r0
    896c:	e1a0d005 	mov	sp, r5
    8970:	e1a00002 	mov	r0, r2
    8974:	e12fff31 	blx	r1
    8978:	e1a00004 	mov	r0, r4
    897c:	ef000001 	svc	0x00000001
    8980:	e8bd5ff0 	pop	{r4, r5, r6, r7, r8, r9, sl, fp, ip, lr}
    8984:	e12fff1e 	bx	lr

00008988 <single_step_handler>:
    8988:	e92d4030 	push	{r4, r5, lr}
    898c:	e24dd00c 	sub	sp, sp, #12
    8990:	e1a05001 	mov	r5, r1
    8994:	e59f3150 	ldr	r3, [pc, #336]	; 8aec <single_step_handler+0x164>
    8998:	e5933000 	ldr	r3, [r3]
    899c:	e3530000 	cmp	r3, #0
    89a0:	0a000005 	beq	89bc <single_step_handler+0x34>
    89a4:	e58d1000 	str	r1, [sp]
    89a8:	e59f0140 	ldr	r0, [pc, #320]	; 8af0 <single_step_handler+0x168>
    89ac:	e59f1140 	ldr	r1, [pc, #320]	; 8af4 <single_step_handler+0x16c>
    89b0:	e59f2140 	ldr	r2, [pc, #320]	; 8af8 <single_step_handler+0x170>
    89b4:	e3a0300c 	mov	r3, #12
    89b8:	eb0001c8 	bl	90e0 <printk>
    89bc:	ee153f30 	mrc	15, 0, r3, cr5, cr0, {1}
    89c0:	e203300f 	and	r3, r3, #15
    89c4:	e3530002 	cmp	r3, #2
    89c8:	0a000006 	beq	89e8 <single_step_handler+0x60>
    89cc:	eb0001de 	bl	914c <rpi_reset_putc>
    89d0:	e59f0124 	ldr	r0, [pc, #292]	; 8afc <single_step_handler+0x174>
    89d4:	e59f1118 	ldr	r1, [pc, #280]	; 8af4 <single_step_handler+0x16c>
    89d8:	e59f2118 	ldr	r2, [pc, #280]	; 8af8 <single_step_handler+0x170>
    89dc:	e3a0300e 	mov	r3, #14
    89e0:	eb0001be 	bl	90e0 <printk>
    89e4:	eb000355 	bl	9740 <clean_reboot>
    89e8:	e59f3110 	ldr	r3, [pc, #272]	; 8b00 <single_step_handler+0x178>
    89ec:	e5934000 	ldr	r4, [r3]
    89f0:	e594201c 	ldr	r2, [r4, #28]
    89f4:	e5943018 	ldr	r3, [r4, #24]
    89f8:	e1520003 	cmp	r2, r3
    89fc:	1a000011 	bne	8a48 <single_step_handler+0xc0>
    8a00:	e59f00fc 	ldr	r0, [pc, #252]	; 8b04 <single_step_handler+0x17c>
    8a04:	e1a01005 	mov	r1, r5
    8a08:	e5942008 	ldr	r2, [r4, #8]
    8a0c:	eb0001b3 	bl	90e0 <printk>
    8a10:	e1a00005 	mov	r0, r5
    8a14:	ebffff7e 	bl	8814 <brkpt_mismatch_disable0>
    8a18:	e5845020 	str	r5, [r4, #32]
    8a1c:	e3a03001 	mov	r3, #1
    8a20:	e5843024 	str	r3, [r4, #36]	; 0x24
    8a24:	e5943014 	ldr	r3, [r4, #20]
    8a28:	e2833001 	add	r3, r3, #1
    8a2c:	e5843014 	str	r3, [r4, #20]
    8a30:	e5943008 	ldr	r3, [r4, #8]
    8a34:	e1a00004 	mov	r0, r4
    8a38:	e12fff33 	blx	r3
    8a3c:	e59f00c4 	ldr	r0, [pc, #196]	; 8b08 <single_step_handler+0x180>
    8a40:	eb0001a6 	bl	90e0 <printk>
    8a44:	ea000026 	b	8ae4 <single_step_handler+0x15c>
    8a48:	e594201c 	ldr	r2, [r4, #28]
    8a4c:	e5943018 	ldr	r3, [r4, #24]
    8a50:	e1520003 	cmp	r2, r3
    8a54:	3a000008 	bcc	8a7c <single_step_handler+0xf4>
    8a58:	eb0001bb 	bl	914c <rpi_reset_putc>
    8a5c:	e59f30a8 	ldr	r3, [pc, #168]	; 8b0c <single_step_handler+0x184>
    8a60:	e58d3000 	str	r3, [sp]
    8a64:	e59f00a4 	ldr	r0, [pc, #164]	; 8b10 <single_step_handler+0x188>
    8a68:	e59f1084 	ldr	r1, [pc, #132]	; 8af4 <single_step_handler+0x16c>
    8a6c:	e59f2084 	ldr	r2, [pc, #132]	; 8af8 <single_step_handler+0x170>
    8a70:	e3a03021 	mov	r3, #33	; 0x21
    8a74:	eb000199 	bl	90e0 <printk>
    8a78:	eb000330 	bl	9740 <clean_reboot>
    8a7c:	e594301c 	ldr	r3, [r4, #28]
    8a80:	e2833001 	add	r3, r3, #1
    8a84:	e584301c 	str	r3, [r4, #28]
    8a88:	e59f305c 	ldr	r3, [pc, #92]	; 8aec <single_step_handler+0x164>
    8a8c:	e5933000 	ldr	r3, [r3]
    8a90:	e3530000 	cmp	r3, #0
    8a94:	0a000005 	beq	8ab0 <single_step_handler+0x128>
    8a98:	e58d5000 	str	r5, [sp]
    8a9c:	e59f0070 	ldr	r0, [pc, #112]	; 8b14 <single_step_handler+0x18c>
    8aa0:	e59f104c 	ldr	r1, [pc, #76]	; 8af4 <single_step_handler+0x16c>
    8aa4:	e59f204c 	ldr	r2, [pc, #76]	; 8af8 <single_step_handler+0x170>
    8aa8:	e3a03024 	mov	r3, #36	; 0x24
    8aac:	eb00018b 	bl	90e0 <printk>
    8ab0:	e1a00005 	mov	r0, r5
    8ab4:	e59f105c 	ldr	r1, [pc, #92]	; 8b18 <single_step_handler+0x190>
    8ab8:	ebffff48 	bl	87e0 <brkpt_mismatch_set0>
    8abc:	e59f3028 	ldr	r3, [pc, #40]	; 8aec <single_step_handler+0x164>
    8ac0:	e5933000 	ldr	r3, [r3]
    8ac4:	e3530000 	cmp	r3, #0
    8ac8:	0a000005 	beq	8ae4 <single_step_handler+0x15c>
    8acc:	e58d5000 	str	r5, [sp]
    8ad0:	e59f0044 	ldr	r0, [pc, #68]	; 8b1c <single_step_handler+0x194>
    8ad4:	e59f1018 	ldr	r1, [pc, #24]	; 8af4 <single_step_handler+0x16c>
    8ad8:	e59f2018 	ldr	r2, [pc, #24]	; 8af8 <single_step_handler+0x170>
    8adc:	e3a03026 	mov	r3, #38	; 0x26
    8ae0:	eb00017e 	bl	90e0 <printk>
    8ae4:	e28dd00c 	add	sp, sp, #12
    8ae8:	e8bd8030 	pop	{r4, r5, pc}
    8aec:	0000a5b0 			; <UNDEFINED> instruction: 0x0000a5b0
    8af0:	0000a14c 	andeq	sl, r0, ip, asr #2
    8af4:	0000a16c 	andeq	sl, r0, ip, ror #2
    8af8:	0000a33c 	andeq	sl, r0, ip, lsr r3
    8afc:	00009e0c 	andeq	r9, r0, ip, lsl #28
    8b00:	0000a5bc 			; <UNDEFINED> instruction: 0x0000a5bc
    8b04:	0000a180 	andeq	sl, r0, r0, lsl #3
    8b08:	0000a1a0 	andeq	sl, r0, r0, lsr #3
    8b0c:	0000a1c8 	andeq	sl, r0, r8, asr #3
    8b10:	00009d4c 	andeq	r9, r0, ip, asr #26
    8b14:	00009e70 	andeq	r9, r0, r0, ror lr
    8b18:	00008988 	andeq	r8, r0, r8, lsl #19
    8b1c:	00009e98 	muleq	r0, r8, lr

00008b20 <check_one_cswitch>:
    8b20:	e92d4ff0 	push	{r4, r5, r6, r7, r8, r9, sl, fp, lr}
    8b24:	e24dd00c 	sub	sp, sp, #12
    8b28:	e1a04000 	mov	r4, r0
    8b2c:	e10f8000 	mrs	r8, CPSR
    8b30:	e3c8701f 	bic	r7, r8, #31
    8b34:	e3877010 	orr	r7, r7, #16
    8b38:	e59f3448 	ldr	r3, [pc, #1096]	; 8f88 <check_one_cswitch+0x468>
    8b3c:	e5830000 	str	r0, [r3]
    8b40:	e3a03001 	mov	r3, #1
    8b44:	e5803030 	str	r3, [r0, #48]	; 0x30
    8b48:	e59f643c 	ldr	r6, [pc, #1084]	; 8f8c <check_one_cswitch+0x46c>
    8b4c:	e59fb43c 	ldr	fp, [pc, #1084]	; 8f90 <check_one_cswitch+0x470>
    8b50:	e59fa43c 	ldr	sl, [pc, #1084]	; 8f94 <check_one_cswitch+0x474>
    8b54:	e59f943c 	ldr	r9, [pc, #1084]	; 8f98 <check_one_cswitch+0x478>
    8b58:	e59f543c 	ldr	r5, [pc, #1084]	; 8f9c <check_one_cswitch+0x47c>
    8b5c:	e594300c 	ldr	r3, [r4, #12]
    8b60:	e1a00004 	mov	r0, r4
    8b64:	e12fff33 	blx	r3
    8b68:	e5963000 	ldr	r3, [r6]
    8b6c:	e3530000 	cmp	r3, #0
    8b70:	0a000006 	beq	8b90 <check_one_cswitch+0x70>
    8b74:	e5943028 	ldr	r3, [r4, #40]	; 0x28
    8b78:	e58d3000 	str	r3, [sp]
    8b7c:	e1a0000b 	mov	r0, fp
    8b80:	e1a0100a 	mov	r1, sl
    8b84:	e1a02009 	mov	r2, r9
    8b88:	e3a03033 	mov	r3, #51	; 0x33
    8b8c:	eb000153 	bl	90e0 <printk>
    8b90:	e3a00000 	mov	r0, #0
    8b94:	e1a01005 	mov	r1, r5
    8b98:	ebffff10 	bl	87e0 <brkpt_mismatch_set0>
    8b9c:	e5943018 	ldr	r3, [r4, #24]
    8ba0:	e2833001 	add	r3, r3, #1
    8ba4:	e5843018 	str	r3, [r4, #24]
    8ba8:	e3a03000 	mov	r3, #0
    8bac:	e584301c 	str	r3, [r4, #28]
    8bb0:	e5843024 	str	r3, [r4, #36]	; 0x24
    8bb4:	e1a00007 	mov	r0, r7
    8bb8:	e5941004 	ldr	r1, [r4, #4]
    8bbc:	e1a02004 	mov	r2, r4
    8bc0:	ebffff65 	bl	895c <user_trampoline_ret>
    8bc4:	e5943010 	ldr	r3, [r4, #16]
    8bc8:	e1a00004 	mov	r0, r4
    8bcc:	e12fff33 	blx	r3
    8bd0:	e3500000 	cmp	r0, #0
    8bd4:	1a000006 	bne	8bf4 <check_one_cswitch+0xd4>
    8bd8:	e5941020 	ldr	r1, [r4, #32]
    8bdc:	e5942018 	ldr	r2, [r4, #24]
    8be0:	e59f03b8 	ldr	r0, [pc, #952]	; 8fa0 <check_one_cswitch+0x480>
    8be4:	eb00013d 	bl	90e0 <printk>
    8be8:	e594302c 	ldr	r3, [r4, #44]	; 0x2c
    8bec:	e2833001 	add	r3, r3, #1
    8bf0:	e584302c 	str	r3, [r4, #44]	; 0x2c
    8bf4:	e5942028 	ldr	r2, [r4, #40]	; 0x28
    8bf8:	e2822001 	add	r2, r2, #1
    8bfc:	e5842028 	str	r2, [r4, #40]	; 0x28
    8c00:	e5943024 	ldr	r3, [r4, #36]	; 0x24
    8c04:	e3530000 	cmp	r3, #0
    8c08:	1affffd3 	bne	8b5c <check_one_cswitch+0x3c>
    8c0c:	e5941014 	ldr	r1, [r4, #20]
    8c10:	e59f038c 	ldr	r0, [pc, #908]	; 8fa4 <check_one_cswitch+0x484>
    8c14:	e594302c 	ldr	r3, [r4, #44]	; 0x2c
    8c18:	eb000130 	bl	90e0 <printk>
    8c1c:	e208301f 	and	r3, r8, #31
    8c20:	e3530012 	cmp	r3, #18
    8c24:	13530010 	cmpne	r3, #16
    8c28:	0a000006 	beq	8c48 <check_one_cswitch+0x128>
    8c2c:	e3530017 	cmp	r3, #23
    8c30:	13530013 	cmpne	r3, #19
    8c34:	0a000005 	beq	8c50 <check_one_cswitch+0x130>
    8c38:	e353001f 	cmp	r3, #31
    8c3c:	1a000005 	bne	8c58 <check_one_cswitch+0x138>
    8c40:	e3a02001 	mov	r2, #1
    8c44:	ea000004 	b	8c5c <check_one_cswitch+0x13c>
    8c48:	e3a02001 	mov	r2, #1
    8c4c:	ea000002 	b	8c5c <check_one_cswitch+0x13c>
    8c50:	e3a02001 	mov	r2, #1
    8c54:	ea000000 	b	8c5c <check_one_cswitch+0x13c>
    8c58:	e3a02000 	mov	r2, #0
    8c5c:	e3520000 	cmp	r2, #0
    8c60:	1a000008 	bne	8c88 <check_one_cswitch+0x168>
    8c64:	eb000138 	bl	914c <rpi_reset_putc>
    8c68:	e59f3338 	ldr	r3, [pc, #824]	; 8fa8 <check_one_cswitch+0x488>
    8c6c:	e58d3000 	str	r3, [sp]
    8c70:	e59f0334 	ldr	r0, [pc, #820]	; 8fac <check_one_cswitch+0x48c>
    8c74:	e59f1334 	ldr	r1, [pc, #820]	; 8fb0 <check_one_cswitch+0x490>
    8c78:	e59f2334 	ldr	r2, [pc, #820]	; 8fb4 <check_one_cswitch+0x494>
    8c7c:	e3a03011 	mov	r3, #17
    8c80:	eb000116 	bl	90e0 <printk>
    8c84:	eb0002ad 	bl	9740 <clean_reboot>
    8c88:	e2433010 	sub	r3, r3, #16
    8c8c:	e353000f 	cmp	r3, #15
    8c90:	979ff103 	ldrls	pc, [pc, r3, lsl #2]
    8c94:	ea000019 	b	8d00 <check_one_cswitch+0x1e0>
    8c98:	00008d20 	andeq	r8, r0, r0, lsr #26
    8c9c:	00008d28 	andeq	r8, r0, r8, lsr #26
    8ca0:	00008cd8 	ldrdeq	r8, [r0], -r8	; <UNPREDICTABLE>
    8ca4:	00008ce0 	andeq	r8, r0, r0, ror #25
    8ca8:	00008d00 	andeq	r8, r0, r0, lsl #26
    8cac:	00008d00 	andeq	r8, r0, r0, lsl #26
    8cb0:	00008d00 	andeq	r8, r0, r0, lsl #26
    8cb4:	00008ce8 	andeq	r8, r0, r8, ror #25
    8cb8:	00008d00 	andeq	r8, r0, r0, lsl #26
    8cbc:	00008d00 	andeq	r8, r0, r0, lsl #26
    8cc0:	00008d00 	andeq	r8, r0, r0, lsl #26
    8cc4:	00008cf0 	strdeq	r8, [r0], -r0
    8cc8:	00008d00 	andeq	r8, r0, r0, lsl #26
    8ccc:	00008d00 	andeq	r8, r0, r0, lsl #26
    8cd0:	00008d00 	andeq	r8, r0, r0, lsl #26
    8cd4:	00008cf8 	strdeq	r8, [r0], -r8	; <UNPREDICTABLE>
    8cd8:	e59f12d8 	ldr	r1, [pc, #728]	; 8fb8 <check_one_cswitch+0x498>
    8cdc:	ea000012 	b	8d2c <check_one_cswitch+0x20c>
    8ce0:	e59f12d4 	ldr	r1, [pc, #724]	; 8fbc <check_one_cswitch+0x49c>
    8ce4:	ea000010 	b	8d2c <check_one_cswitch+0x20c>
    8ce8:	e59f12d0 	ldr	r1, [pc, #720]	; 8fc0 <check_one_cswitch+0x4a0>
    8cec:	ea00000e 	b	8d2c <check_one_cswitch+0x20c>
    8cf0:	e59f12cc 	ldr	r1, [pc, #716]	; 8fc4 <check_one_cswitch+0x4a4>
    8cf4:	ea00000c 	b	8d2c <check_one_cswitch+0x20c>
    8cf8:	e59f12c8 	ldr	r1, [pc, #712]	; 8fc8 <check_one_cswitch+0x4a8>
    8cfc:	ea00000a 	b	8d2c <check_one_cswitch+0x20c>
    8d00:	eb000111 	bl	914c <rpi_reset_putc>
    8d04:	e58d8000 	str	r8, [sp]
    8d08:	e59f02bc 	ldr	r0, [pc, #700]	; 8fcc <check_one_cswitch+0x4ac>
    8d0c:	e59f129c 	ldr	r1, [pc, #668]	; 8fb0 <check_one_cswitch+0x490>
    8d10:	e59f22b8 	ldr	r2, [pc, #696]	; 8fd0 <check_one_cswitch+0x4b0>
    8d14:	e3a03021 	mov	r3, #33	; 0x21
    8d18:	eb0000f0 	bl	90e0 <printk>
    8d1c:	eb000287 	bl	9740 <clean_reboot>
    8d20:	e59f12ac 	ldr	r1, [pc, #684]	; 8fd4 <check_one_cswitch+0x4b4>
    8d24:	ea000000 	b	8d2c <check_one_cswitch+0x20c>
    8d28:	e59f12a8 	ldr	r1, [pc, #680]	; 8fd8 <check_one_cswitch+0x4b8>
    8d2c:	e59f02a8 	ldr	r0, [pc, #680]	; 8fdc <check_one_cswitch+0x4bc>
    8d30:	e1a02008 	mov	r2, r8
    8d34:	eb0000e9 	bl	90e0 <printk>
    8d38:	e10f5000 	mrs	r5, CPSR
    8d3c:	e205301f 	and	r3, r5, #31
    8d40:	e3530012 	cmp	r3, #18
    8d44:	13530010 	cmpne	r3, #16
    8d48:	0a000006 	beq	8d68 <check_one_cswitch+0x248>
    8d4c:	e3530017 	cmp	r3, #23
    8d50:	13530013 	cmpne	r3, #19
    8d54:	0a000005 	beq	8d70 <check_one_cswitch+0x250>
    8d58:	e353001f 	cmp	r3, #31
    8d5c:	1a000005 	bne	8d78 <check_one_cswitch+0x258>
    8d60:	e3a02001 	mov	r2, #1
    8d64:	ea000004 	b	8d7c <check_one_cswitch+0x25c>
    8d68:	e3a02001 	mov	r2, #1
    8d6c:	ea000002 	b	8d7c <check_one_cswitch+0x25c>
    8d70:	e3a02001 	mov	r2, #1
    8d74:	ea000000 	b	8d7c <check_one_cswitch+0x25c>
    8d78:	e3a02000 	mov	r2, #0
    8d7c:	e3520000 	cmp	r2, #0
    8d80:	1a000008 	bne	8da8 <check_one_cswitch+0x288>
    8d84:	eb0000f0 	bl	914c <rpi_reset_putc>
    8d88:	e59f3218 	ldr	r3, [pc, #536]	; 8fa8 <check_one_cswitch+0x488>
    8d8c:	e58d3000 	str	r3, [sp]
    8d90:	e59f0214 	ldr	r0, [pc, #532]	; 8fac <check_one_cswitch+0x48c>
    8d94:	e59f1214 	ldr	r1, [pc, #532]	; 8fb0 <check_one_cswitch+0x490>
    8d98:	e59f2214 	ldr	r2, [pc, #532]	; 8fb4 <check_one_cswitch+0x494>
    8d9c:	e3a03011 	mov	r3, #17
    8da0:	eb0000ce 	bl	90e0 <printk>
    8da4:	eb000265 	bl	9740 <clean_reboot>
    8da8:	e2433010 	sub	r3, r3, #16
    8dac:	e353000f 	cmp	r3, #15
    8db0:	979ff103 	ldrls	pc, [pc, r3, lsl #2]
    8db4:	ea000019 	b	8e20 <check_one_cswitch+0x300>
    8db8:	00008e40 	andeq	r8, r0, r0, asr #28
    8dbc:	00008e48 	andeq	r8, r0, r8, asr #28
    8dc0:	00008df8 	strdeq	r8, [r0], -r8	; <UNPREDICTABLE>
    8dc4:	00008e00 	andeq	r8, r0, r0, lsl #28
    8dc8:	00008e20 	andeq	r8, r0, r0, lsr #28
    8dcc:	00008e20 	andeq	r8, r0, r0, lsr #28
    8dd0:	00008e20 	andeq	r8, r0, r0, lsr #28
    8dd4:	00008e08 	andeq	r8, r0, r8, lsl #28
    8dd8:	00008e20 	andeq	r8, r0, r0, lsr #28
    8ddc:	00008e20 	andeq	r8, r0, r0, lsr #28
    8de0:	00008e20 	andeq	r8, r0, r0, lsr #28
    8de4:	00008e10 	andeq	r8, r0, r0, lsl lr
    8de8:	00008e20 	andeq	r8, r0, r0, lsr #28
    8dec:	00008e20 	andeq	r8, r0, r0, lsr #28
    8df0:	00008e20 	andeq	r8, r0, r0, lsr #28
    8df4:	00008e18 	andeq	r8, r0, r8, lsl lr
    8df8:	e59f11b8 	ldr	r1, [pc, #440]	; 8fb8 <check_one_cswitch+0x498>
    8dfc:	ea000012 	b	8e4c <check_one_cswitch+0x32c>
    8e00:	e59f11b4 	ldr	r1, [pc, #436]	; 8fbc <check_one_cswitch+0x49c>
    8e04:	ea000010 	b	8e4c <check_one_cswitch+0x32c>
    8e08:	e59f11b0 	ldr	r1, [pc, #432]	; 8fc0 <check_one_cswitch+0x4a0>
    8e0c:	ea00000e 	b	8e4c <check_one_cswitch+0x32c>
    8e10:	e59f11ac 	ldr	r1, [pc, #428]	; 8fc4 <check_one_cswitch+0x4a4>
    8e14:	ea00000c 	b	8e4c <check_one_cswitch+0x32c>
    8e18:	e59f11a8 	ldr	r1, [pc, #424]	; 8fc8 <check_one_cswitch+0x4a8>
    8e1c:	ea00000a 	b	8e4c <check_one_cswitch+0x32c>
    8e20:	eb0000c9 	bl	914c <rpi_reset_putc>
    8e24:	e58d5000 	str	r5, [sp]
    8e28:	e59f019c 	ldr	r0, [pc, #412]	; 8fcc <check_one_cswitch+0x4ac>
    8e2c:	e59f117c 	ldr	r1, [pc, #380]	; 8fb0 <check_one_cswitch+0x490>
    8e30:	e59f2198 	ldr	r2, [pc, #408]	; 8fd0 <check_one_cswitch+0x4b0>
    8e34:	e3a03021 	mov	r3, #33	; 0x21
    8e38:	eb0000a8 	bl	90e0 <printk>
    8e3c:	eb00023f 	bl	9740 <clean_reboot>
    8e40:	e59f118c 	ldr	r1, [pc, #396]	; 8fd4 <check_one_cswitch+0x4b4>
    8e44:	ea000000 	b	8e4c <check_one_cswitch+0x32c>
    8e48:	e59f1188 	ldr	r1, [pc, #392]	; 8fd8 <check_one_cswitch+0x4b8>
    8e4c:	e10f2000 	mrs	r2, CPSR
    8e50:	e59f0188 	ldr	r0, [pc, #392]	; 8fe0 <check_one_cswitch+0x4c0>
    8e54:	eb0000a1 	bl	90e0 <printk>
    8e58:	e3a00000 	mov	r0, #0
    8e5c:	ebfffe6c 	bl	8814 <brkpt_mismatch_disable0>
    8e60:	e208801f 	and	r8, r8, #31
    8e64:	e3580012 	cmp	r8, #18
    8e68:	13580010 	cmpne	r8, #16
    8e6c:	0a000006 	beq	8e8c <check_one_cswitch+0x36c>
    8e70:	e3580017 	cmp	r8, #23
    8e74:	13580013 	cmpne	r8, #19
    8e78:	0a000005 	beq	8e94 <check_one_cswitch+0x374>
    8e7c:	e358001f 	cmp	r8, #31
    8e80:	1a000005 	bne	8e9c <check_one_cswitch+0x37c>
    8e84:	e3a03001 	mov	r3, #1
    8e88:	ea000004 	b	8ea0 <check_one_cswitch+0x380>
    8e8c:	e3a03001 	mov	r3, #1
    8e90:	ea000002 	b	8ea0 <check_one_cswitch+0x380>
    8e94:	e3a03001 	mov	r3, #1
    8e98:	ea000000 	b	8ea0 <check_one_cswitch+0x380>
    8e9c:	e3a03000 	mov	r3, #0
    8ea0:	e3530000 	cmp	r3, #0
    8ea4:	1a000008 	bne	8ecc <check_one_cswitch+0x3ac>
    8ea8:	eb0000a7 	bl	914c <rpi_reset_putc>
    8eac:	e59f30f4 	ldr	r3, [pc, #244]	; 8fa8 <check_one_cswitch+0x488>
    8eb0:	e58d3000 	str	r3, [sp]
    8eb4:	e59f00f0 	ldr	r0, [pc, #240]	; 8fac <check_one_cswitch+0x48c>
    8eb8:	e59f10f0 	ldr	r1, [pc, #240]	; 8fb0 <check_one_cswitch+0x490>
    8ebc:	e59f20f0 	ldr	r2, [pc, #240]	; 8fb4 <check_one_cswitch+0x494>
    8ec0:	e3a03011 	mov	r3, #17
    8ec4:	eb000085 	bl	90e0 <printk>
    8ec8:	eb00021c 	bl	9740 <clean_reboot>
    8ecc:	e10f3000 	mrs	r3, CPSR
    8ed0:	e203301f 	and	r3, r3, #31
    8ed4:	e3530012 	cmp	r3, #18
    8ed8:	13530010 	cmpne	r3, #16
    8edc:	0a000006 	beq	8efc <check_one_cswitch+0x3dc>
    8ee0:	e3530017 	cmp	r3, #23
    8ee4:	13530013 	cmpne	r3, #19
    8ee8:	0a000005 	beq	8f04 <check_one_cswitch+0x3e4>
    8eec:	e353001f 	cmp	r3, #31
    8ef0:	1a000005 	bne	8f0c <check_one_cswitch+0x3ec>
    8ef4:	e3a02001 	mov	r2, #1
    8ef8:	ea000004 	b	8f10 <check_one_cswitch+0x3f0>
    8efc:	e3a02001 	mov	r2, #1
    8f00:	ea000002 	b	8f10 <check_one_cswitch+0x3f0>
    8f04:	e3a02001 	mov	r2, #1
    8f08:	ea000000 	b	8f10 <check_one_cswitch+0x3f0>
    8f0c:	e3a02000 	mov	r2, #0
    8f10:	e3520000 	cmp	r2, #0
    8f14:	1a000008 	bne	8f3c <check_one_cswitch+0x41c>
    8f18:	eb00008b 	bl	914c <rpi_reset_putc>
    8f1c:	e59f3084 	ldr	r3, [pc, #132]	; 8fa8 <check_one_cswitch+0x488>
    8f20:	e58d3000 	str	r3, [sp]
    8f24:	e59f0080 	ldr	r0, [pc, #128]	; 8fac <check_one_cswitch+0x48c>
    8f28:	e59f1080 	ldr	r1, [pc, #128]	; 8fb0 <check_one_cswitch+0x490>
    8f2c:	e59f2080 	ldr	r2, [pc, #128]	; 8fb4 <check_one_cswitch+0x494>
    8f30:	e3a03011 	mov	r3, #17
    8f34:	eb000069 	bl	90e0 <printk>
    8f38:	eb000200 	bl	9740 <clean_reboot>
    8f3c:	e1580003 	cmp	r8, r3
    8f40:	0a000008 	beq	8f68 <check_one_cswitch+0x448>
    8f44:	eb000080 	bl	914c <rpi_reset_putc>
    8f48:	e59f3094 	ldr	r3, [pc, #148]	; 8fe4 <check_one_cswitch+0x4c4>
    8f4c:	e58d3000 	str	r3, [sp]
    8f50:	e59f0054 	ldr	r0, [pc, #84]	; 8fac <check_one_cswitch+0x48c>
    8f54:	e59f1038 	ldr	r1, [pc, #56]	; 8f94 <check_one_cswitch+0x474>
    8f58:	e59f2038 	ldr	r2, [pc, #56]	; 8f98 <check_one_cswitch+0x478>
    8f5c:	e3a03053 	mov	r3, #83	; 0x53
    8f60:	eb00005e 	bl	90e0 <printk>
    8f64:	eb0001f5 	bl	9740 <clean_reboot>
    8f68:	e3a03000 	mov	r3, #0
    8f6c:	e5843030 	str	r3, [r4, #48]	; 0x30
    8f70:	e594002c 	ldr	r0, [r4, #44]	; 0x2c
    8f74:	e1500003 	cmp	r0, r3
    8f78:	13a00000 	movne	r0, #0
    8f7c:	03a00001 	moveq	r0, #1
    8f80:	e28dd00c 	add	sp, sp, #12
    8f84:	e8bd8ff0 	pop	{r4, r5, r6, r7, r8, r9, sl, fp, pc}
    8f88:	0000a5bc 			; <UNDEFINED> instruction: 0x0000a5bc
    8f8c:	0000a5b0 			; <UNDEFINED> instruction: 0x0000a5b0
    8f90:	0000a1ec 	andeq	sl, r0, ip, ror #3
    8f94:	0000a16c 	andeq	sl, r0, ip, ror #2
    8f98:	0000a328 	andeq	sl, r0, r8, lsr #6
    8f9c:	00008988 	andeq	r8, r0, r8, lsl #19
    8fa0:	0000a224 	andeq	sl, r0, r4, lsr #4
    8fa4:	0000a26c 	andeq	sl, r0, ip, ror #4
    8fa8:	00009d70 	andeq	r9, r0, r0, ror sp
    8fac:	00009d4c 	andeq	r9, r0, ip, asr #26
    8fb0:	0000a2a0 	andeq	sl, r0, r0, lsr #5
    8fb4:	0000a374 	andeq	sl, r0, r4, ror r3
    8fb8:	00009d10 	andeq	r9, r0, r0, lsl sp
    8fbc:	00009d1c 	andeq	r9, r0, ip, lsl sp
    8fc0:	00009d28 	andeq	r9, r0, r8, lsr #26
    8fc4:	00009d34 	andeq	r9, r0, r4, lsr sp
    8fc8:	00009d40 	andeq	r9, r0, r0, asr #26
    8fcc:	00009d84 	andeq	r9, r0, r4, lsl #27
    8fd0:	0000a368 	andeq	sl, r0, r8, ror #6
    8fd4:	00009cf8 	strdeq	r9, [r0], -r8
    8fd8:	00009d04 	andeq	r9, r0, r4, lsl #26
    8fdc:	00009f24 	andeq	r9, r0, r4, lsr #30
    8fe0:	00009ec4 	andeq	r9, r0, r4, asr #29
    8fe4:	0000a2ac 	andeq	sl, r0, ip, lsr #5

00008fe8 <check_sequential>:
    8fe8:	e92d4038 	push	{r3, r4, r5, lr}
    8fec:	e1a04000 	mov	r4, r0
    8ff0:	e3a05000 	mov	r5, #0
    8ff4:	ea000015 	b	9050 <check_sequential+0x68>
    8ff8:	e594300c 	ldr	r3, [r4, #12]
    8ffc:	e1a00004 	mov	r0, r4
    9000:	e12fff33 	blx	r3
    9004:	e5943004 	ldr	r3, [r4, #4]
    9008:	e1a00004 	mov	r0, r4
    900c:	e12fff33 	blx	r3
    9010:	e5943008 	ldr	r3, [r4, #8]
    9014:	e1a00004 	mov	r0, r4
    9018:	e12fff33 	blx	r3
    901c:	e5943010 	ldr	r3, [r4, #16]
    9020:	e1a00004 	mov	r0, r4
    9024:	e12fff33 	blx	r3
    9028:	e3500000 	cmp	r0, #0
    902c:	1a000006 	bne	904c <check_sequential+0x64>
    9030:	eb000045 	bl	914c <rpi_reset_putc>
    9034:	e59f0024 	ldr	r0, [pc, #36]	; 9060 <check_sequential+0x78>
    9038:	e59f1024 	ldr	r1, [pc, #36]	; 9064 <check_sequential+0x7c>
    903c:	e59f2024 	ldr	r2, [pc, #36]	; 9068 <check_sequential+0x80>
    9040:	e3a03068 	mov	r3, #104	; 0x68
    9044:	eb000025 	bl	90e0 <printk>
    9048:	eb0001bc 	bl	9740 <clean_reboot>
    904c:	e2855001 	add	r5, r5, #1
    9050:	e3550063 	cmp	r5, #99	; 0x63
    9054:	9affffe7 	bls	8ff8 <check_sequential+0x10>
    9058:	e3a00001 	mov	r0, #1
    905c:	e8bd8038 	pop	{r3, r4, r5, pc}
    9060:	0000a2d8 	ldrdeq	sl, [r0], -r8
    9064:	0000a16c 	andeq	sl, r0, ip, ror #2
    9068:	0000a314 	andeq	sl, r0, r4, lsl r3

0000906c <check_zero>:
    906c:	e3a03000 	mov	r3, #0
    9070:	e5803030 	str	r3, [r0, #48]	; 0x30
    9074:	e580302c 	str	r3, [r0, #44]	; 0x2c
    9078:	e5803028 	str	r3, [r0, #40]	; 0x28
    907c:	e5803024 	str	r3, [r0, #36]	; 0x24
    9080:	e5803020 	str	r3, [r0, #32]
    9084:	e580301c 	str	r3, [r0, #28]
    9088:	e5803018 	str	r3, [r0, #24]
    908c:	e5803014 	str	r3, [r0, #20]
    9090:	e12fff1e 	bx	lr

00009094 <check>:
    9094:	e92d4010 	push	{r4, lr}
    9098:	e1a04000 	mov	r4, r0
    909c:	ebfffd81 	bl	86a8 <cp14_enable>
    90a0:	e1a00004 	mov	r0, r4
    90a4:	ebfffff0 	bl	906c <check_zero>
    90a8:	e1a00004 	mov	r0, r4
    90ac:	ebffffcd 	bl	8fe8 <check_sequential>
    90b0:	e3500000 	cmp	r0, #0
    90b4:	0a000005 	beq	90d0 <check+0x3c>
    90b8:	e1a00004 	mov	r0, r4
    90bc:	ebfffe97 	bl	8b20 <check_one_cswitch>
    90c0:	e3500000 	cmp	r0, #0
    90c4:	0a000003 	beq	90d8 <check+0x44>
    90c8:	e3a00001 	mov	r0, #1
    90cc:	e8bd8010 	pop	{r4, pc}
    90d0:	e3a00000 	mov	r0, #0
    90d4:	e8bd8010 	pop	{r4, pc}
    90d8:	e3a00000 	mov	r0, #0
    90dc:	e8bd8010 	pop	{r4, pc}

000090e0 <printk>:
    90e0:	e92d000f 	push	{r0, r1, r2, r3}
    90e4:	e92d4030 	push	{r4, r5, lr}
    90e8:	e24dd00c 	sub	sp, sp, #12
    90ec:	e28d301c 	add	r3, sp, #28
    90f0:	e58d3004 	str	r3, [sp, #4]
    90f4:	e59f4034 	ldr	r4, [pc, #52]	; 9130 <printk+0x50>
    90f8:	e1a00004 	mov	r0, r4
    90fc:	e3a01b01 	mov	r1, #1024	; 0x400
    9100:	e59d2018 	ldr	r2, [sp, #24]
    9104:	eb0000d0 	bl	944c <va_printk>
    9108:	e1a05000 	mov	r5, r0
    910c:	e59f3020 	ldr	r3, [pc, #32]	; 9134 <printk+0x54>
    9110:	e5933000 	ldr	r3, [r3]
    9114:	e1a00004 	mov	r0, r4
    9118:	e12fff33 	blx	r3
    911c:	e1a00005 	mov	r0, r5
    9120:	e28dd00c 	add	sp, sp, #12
    9124:	e8bd4030 	pop	{r4, r5, lr}
    9128:	e28dd010 	add	sp, sp, #16
    912c:	e12fff1e 	bx	lr
    9130:	0000a5c4 	andeq	sl, r0, r4, asr #11
    9134:	00009cf4 	strdeq	r9, [r0], -r4

00009138 <internal_putchar>:
    9138:	e92d4010 	push	{r4, lr}
    913c:	e1a04000 	mov	r4, r0
    9140:	eb000291 	bl	9b8c <uart_putc>
    9144:	e1a00004 	mov	r0, r4
    9148:	e8bd8010 	pop	{r4, pc}

0000914c <rpi_reset_putc>:
    914c:	e59f2008 	ldr	r2, [pc, #8]	; 915c <rpi_reset_putc+0x10>
    9150:	e59f3008 	ldr	r3, [pc, #8]	; 9160 <rpi_reset_putc+0x14>
    9154:	e5832000 	str	r2, [r3]
    9158:	e12fff1e 	bx	lr
    915c:	00009138 	andeq	r9, r0, r8, lsr r1
    9160:	00009cf0 	strdeq	r9, [r0], -r0

00009164 <rpi_set_putc>:
    9164:	e59f3004 	ldr	r3, [pc, #4]	; 9170 <rpi_set_putc+0xc>
    9168:	e5830000 	str	r0, [r3]
    916c:	e12fff1e 	bx	lr
    9170:	00009cf0 	strdeq	r9, [r0], -r0

00009174 <internal_putk>:
    9174:	e92d4038 	push	{r3, r4, r5, lr}
    9178:	e1a04000 	mov	r4, r0
    917c:	e59f5020 	ldr	r5, [pc, #32]	; 91a4 <internal_putk+0x30>
    9180:	ea000002 	b	9190 <internal_putk+0x1c>
    9184:	e5953000 	ldr	r3, [r5]
    9188:	e12fff33 	blx	r3
    918c:	e2844001 	add	r4, r4, #1
    9190:	e5d40000 	ldrb	r0, [r4]
    9194:	e3500000 	cmp	r0, #0
    9198:	1afffff9 	bne	9184 <internal_putk+0x10>
    919c:	e3a00001 	mov	r0, #1
    91a0:	e8bd8038 	pop	{r3, r4, r5, pc}
    91a4:	00009cf0 	strdeq	r9, [r0], -r0

000091a8 <isdigit>:
    91a8:	e2400030 	sub	r0, r0, #48	; 0x30
    91ac:	e3500009 	cmp	r0, #9
    91b0:	83a00000 	movhi	r0, #0
    91b4:	93a00001 	movls	r0, #1
    91b8:	e12fff1e 	bx	lr

000091bc <pad>:
    91bc:	e0611000 	rsb	r1, r1, r0
    91c0:	e3a03020 	mov	r3, #32
    91c4:	ea000002 	b	91d4 <pad+0x18>
    91c8:	e5c03000 	strb	r3, [r0]
    91cc:	e2811001 	add	r1, r1, #1
    91d0:	e2800001 	add	r0, r0, #1
    91d4:	e1510002 	cmp	r1, r2
    91d8:	bafffffa 	blt	91c8 <pad+0xc>
    91dc:	e3a03000 	mov	r3, #0
    91e0:	e5c03000 	strb	r3, [r0]
    91e4:	e12fff1e 	bx	lr

000091e8 <reverse>:
    91e8:	e063c002 	rsb	ip, r3, r2
    91ec:	e28cc001 	add	ip, ip, #1
    91f0:	e15c0001 	cmp	ip, r1
    91f4:	c061100c 	rsbgt	r1, r1, ip
    91f8:	c0833001 	addgt	r3, r3, r1
    91fc:	e2422001 	sub	r2, r2, #1
    9200:	e1a01000 	mov	r1, r0
    9204:	ea000002 	b	9214 <reverse+0x2c>
    9208:	e452c001 	ldrb	ip, [r2], #-1
    920c:	e5c1c000 	strb	ip, [r1]
    9210:	e2811001 	add	r1, r1, #1
    9214:	e1520003 	cmp	r2, r3
    9218:	2afffffa 	bcs	9208 <reverse+0x20>
    921c:	e3a03000 	mov	r3, #0
    9220:	e5c13000 	strb	r3, [r1]
    9224:	e12fff1e 	bx	lr

00009228 <emit>:
    9228:	e92d41f0 	push	{r4, r5, r6, r7, r8, lr}
    922c:	e24dd048 	sub	sp, sp, #72	; 0x48
    9230:	e1a05001 	mov	r5, r1
    9234:	e1a04002 	mov	r4, r2
    9238:	e59d2060 	ldr	r2, [sp, #96]	; 0x60
    923c:	e1520004 	cmp	r2, r4
    9240:	c2442001 	subgt	r2, r4, #1
    9244:	e1a0c003 	mov	ip, r3
    9248:	e2400002 	sub	r0, r0, #2
    924c:	e350000e 	cmp	r0, #14
    9250:	979ff100 	ldrls	pc, [pc, r0, lsl #2]
    9254:	ea000048 	b	937c <emit+0x154>
    9258:	00009354 	andeq	r9, r0, r4, asr r3
    925c:	0000937c 	andeq	r9, r0, ip, ror r3
    9260:	0000937c 	andeq	r9, r0, ip, ror r3
    9264:	0000937c 	andeq	r9, r0, ip, ror r3
    9268:	0000937c 	andeq	r9, r0, ip, ror r3
    926c:	0000937c 	andeq	r9, r0, ip, ror r3
    9270:	00009348 	andeq	r9, r0, r8, asr #6
    9274:	0000937c 	andeq	r9, r0, ip, ror r3
    9278:	00009294 	muleq	r0, r4, r2
    927c:	0000937c 	andeq	r9, r0, ip, ror r3
    9280:	0000937c 	andeq	r9, r0, ip, ror r3
    9284:	0000937c 	andeq	r9, r0, ip, ror r3
    9288:	0000937c 	andeq	r9, r0, ip, ror r3
    928c:	0000937c 	andeq	r9, r0, ip, ror r3
    9290:	00009308 	andeq	r9, r0, r8, lsl #6
    9294:	e59d1064 	ldr	r1, [sp, #100]	; 0x64
    9298:	e2911000 	adds	r1, r1, #0
    929c:	13a01001 	movne	r1, #1
    92a0:	e0111fa3 	ands	r1, r1, r3, lsr #31
    92a4:	1263c000 	rsbne	ip, r3, #0
    92a8:	13a08001 	movne	r8, #1
    92ac:	03a08000 	moveq	r8, #0
    92b0:	e28d1008 	add	r1, sp, #8
    92b4:	e59f7108 	ldr	r7, [pc, #264]	; 93c4 <emit+0x19c>
    92b8:	e59f6108 	ldr	r6, [pc, #264]	; 93c8 <emit+0x1a0>
    92bc:	ea000000 	b	92c4 <emit+0x9c>
    92c0:	e1a01000 	mov	r1, r0
    92c4:	e2810001 	add	r0, r1, #1
    92c8:	e083ec97 	umull	lr, r3, r7, ip
    92cc:	e1a031a3 	lsr	r3, r3, #3
    92d0:	e1a0e003 	mov	lr, r3
    92d4:	e0833103 	add	r3, r3, r3, lsl #2
    92d8:	e1a03083 	lsl	r3, r3, #1
    92dc:	e063300c 	rsb	r3, r3, ip
    92e0:	e7d63003 	ldrb	r3, [r6, r3]
    92e4:	e5c13000 	strb	r3, [r1]
    92e8:	e1a0c00e 	mov	ip, lr
    92ec:	e35e0000 	cmp	lr, #0
    92f0:	1afffff2 	bne	92c0 <emit+0x98>
    92f4:	e3580000 	cmp	r8, #0
    92f8:	12810002 	addne	r0, r1, #2
    92fc:	13a0302d 	movne	r3, #45	; 0x2d
    9300:	15c13001 	strbne	r3, [r1, #1]
    9304:	ea000025 	b	93a0 <emit+0x178>
    9308:	e28d3008 	add	r3, sp, #8
    930c:	e59fe0b8 	ldr	lr, [pc, #184]	; 93cc <emit+0x1a4>
    9310:	ea000000 	b	9318 <emit+0xf0>
    9314:	e1a03000 	mov	r3, r0
    9318:	e2830001 	add	r0, r3, #1
    931c:	e20c100f 	and	r1, ip, #15
    9320:	e7de1001 	ldrb	r1, [lr, r1]
    9324:	e5c31000 	strb	r1, [r3]
    9328:	e1b0c22c 	lsrs	ip, ip, #4
    932c:	1afffff8 	bne	9314 <emit+0xec>
    9330:	e3a01078 	mov	r1, #120	; 0x78
    9334:	e5c31001 	strb	r1, [r3, #1]
    9338:	e2830003 	add	r0, r3, #3
    933c:	e3a01030 	mov	r1, #48	; 0x30
    9340:	e5c31002 	strb	r1, [r3, #2]
    9344:	ea000015 	b	93a0 <emit+0x178>
    9348:	e5cd3008 	strb	r3, [sp, #8]
    934c:	e28d0009 	add	r0, sp, #9
    9350:	ea000012 	b	93a0 <emit+0x178>
    9354:	e28d3008 	add	r3, sp, #8
    9358:	e59fe070 	ldr	lr, [pc, #112]	; 93d0 <emit+0x1a8>
    935c:	e2830001 	add	r0, r3, #1
    9360:	e20c1001 	and	r1, ip, #1
    9364:	e7de1001 	ldrb	r1, [lr, r1]
    9368:	e5c31000 	strb	r1, [r3]
    936c:	e1a03000 	mov	r3, r0
    9370:	e1b0c0ac 	lsrs	ip, ip, #1
    9374:	1afffff8 	bne	935c <emit+0x134>
    9378:	ea000008 	b	93a0 <emit+0x178>
    937c:	ebffff72 	bl	914c <rpi_reset_putc>
    9380:	e59f304c 	ldr	r3, [pc, #76]	; 93d4 <emit+0x1ac>
    9384:	e58d3000 	str	r3, [sp]
    9388:	e59f0048 	ldr	r0, [pc, #72]	; 93d8 <emit+0x1b0>
    938c:	e59f1048 	ldr	r1, [pc, #72]	; 93dc <emit+0x1b4>
    9390:	e59f2048 	ldr	r2, [pc, #72]	; 93e0 <emit+0x1b8>
    9394:	e3a03077 	mov	r3, #119	; 0x77
    9398:	ebffff50 	bl	90e0 <printk>
    939c:	eb0000e7 	bl	9740 <clean_reboot>
    93a0:	e28d1008 	add	r1, sp, #8
    93a4:	ebffff84 	bl	91bc <pad>
    93a8:	e1a02000 	mov	r2, r0
    93ac:	e1a00005 	mov	r0, r5
    93b0:	e1a01004 	mov	r1, r4
    93b4:	e28d3008 	add	r3, sp, #8
    93b8:	ebffff8a 	bl	91e8 <reverse>
    93bc:	e28dd048 	add	sp, sp, #72	; 0x48
    93c0:	e8bd81f0 	pop	{r4, r5, r6, r7, r8, pc}
    93c4:	cccccccd 	stclgt	12, cr12, [ip], {205}	; 0xcd
    93c8:	0000a3c8 	andeq	sl, r0, r8, asr #7
    93cc:	0000a3d4 	ldrdeq	sl, [r0], -r4
    93d0:	0000a3e8 	andeq	sl, r0, r8, ror #7
    93d4:	0000a3c4 	andeq	sl, r0, r4, asr #7
    93d8:	00009d4c 	andeq	r9, r0, ip, asr #26
    93dc:	0000a3b0 			; <UNDEFINED> instruction: 0x0000a3b0
    93e0:	0000a38c 	andeq	sl, r0, ip, lsl #7

000093e4 <rpi_set_output>:
    93e4:	e52de004 	push	{lr}		; (str lr, [sp, #-4]!)
    93e8:	e24dd00c 	sub	sp, sp, #12
    93ec:	e3500000 	cmp	r0, #0
    93f0:	1a000008 	bne	9418 <rpi_set_output+0x34>
    93f4:	ebffff54 	bl	914c <rpi_reset_putc>
    93f8:	e59f3034 	ldr	r3, [pc, #52]	; 9434 <rpi_set_output+0x50>
    93fc:	e58d3000 	str	r3, [sp]
    9400:	e59f0030 	ldr	r0, [pc, #48]	; 9438 <rpi_set_output+0x54>
    9404:	e59f1030 	ldr	r1, [pc, #48]	; 943c <rpi_set_output+0x58>
    9408:	e59f2030 	ldr	r2, [pc, #48]	; 9440 <rpi_set_output+0x5c>
    940c:	e3a03020 	mov	r3, #32
    9410:	ebffff32 	bl	90e0 <printk>
    9414:	eb0000c9 	bl	9740 <clean_reboot>
    9418:	e59f3024 	ldr	r3, [pc, #36]	; 9444 <rpi_set_output+0x60>
    941c:	e5830000 	str	r0, [r3]
    9420:	e3510000 	cmp	r1, #0
    9424:	159f301c 	ldrne	r3, [pc, #28]	; 9448 <rpi_set_output+0x64>
    9428:	15831000 	strne	r1, [r3]
    942c:	e28dd00c 	add	sp, sp, #12
    9430:	e49df004 	pop	{pc}		; (ldr pc, [sp], #4)
    9434:	0000a3ec 	andeq	sl, r0, ip, ror #7
    9438:	00009d4c 	andeq	r9, r0, ip, asr #26
    943c:	0000a3b0 			; <UNDEFINED> instruction: 0x0000a3b0
    9440:	0000a394 	muleq	r0, r4, r3
    9444:	00009cf0 	strdeq	r9, [r0], -r0
    9448:	00009cf4 	strdeq	r9, [r0], -r4

0000944c <va_printk>:
    944c:	e92d4ff0 	push	{r4, r5, r6, r7, r8, r9, sl, fp, lr}
    9450:	e24dd094 	sub	sp, sp, #148	; 0x94
    9454:	e1a0b000 	mov	fp, r0
    9458:	e58d200c 	str	r2, [sp, #12]
    945c:	e1a0a003 	mov	sl, r3
    9460:	e2411001 	sub	r1, r1, #1
    9464:	e0808001 	add	r8, r0, r1
    9468:	e3a03000 	mov	r3, #0
    946c:	e5c03000 	strb	r3, [r0]
    9470:	e1a04000 	mov	r4, r0
    9474:	e1a06002 	mov	r6, r2
    9478:	ea000095 	b	96d4 <va_printk+0x288>
    947c:	e3530025 	cmp	r3, #37	; 0x25
    9480:	12866001 	addne	r6, r6, #1
    9484:	15c43000 	strbne	r3, [r4]
    9488:	12844001 	addne	r4, r4, #1
    948c:	1a000090 	bne	96d4 <va_printk+0x288>
    9490:	e5d62001 	ldrb	r2, [r6, #1]
    9494:	e3520025 	cmp	r2, #37	; 0x25
    9498:	05c43000 	strbeq	r3, [r4]
    949c:	02866002 	addeq	r6, r6, #2
    94a0:	02844001 	addeq	r4, r4, #1
    94a4:	0a00008a 	beq	96d4 <va_printk+0x288>
    94a8:	e2866001 	add	r6, r6, #1
    94ac:	e3a07000 	mov	r7, #0
    94b0:	ea000004 	b	94c8 <va_printk+0x7c>
    94b4:	e0877107 	add	r7, r7, r7, lsl #2
    94b8:	e1a07087 	lsl	r7, r7, #1
    94bc:	e0877005 	add	r7, r7, r5
    94c0:	e2477030 	sub	r7, r7, #48	; 0x30
    94c4:	e2866001 	add	r6, r6, #1
    94c8:	e5d65000 	ldrb	r5, [r6]
    94cc:	e1a09005 	mov	r9, r5
    94d0:	e1a00005 	mov	r0, r5
    94d4:	ebffff33 	bl	91a8 <isdigit>
    94d8:	e3500000 	cmp	r0, #0
    94dc:	1afffff4 	bne	94b4 <va_printk+0x68>
    94e0:	e357001f 	cmp	r7, #31
    94e4:	9a000008 	bls	950c <va_printk+0xc0>
    94e8:	ebffff17 	bl	914c <rpi_reset_putc>
    94ec:	e59f320c 	ldr	r3, [pc, #524]	; 9700 <va_printk+0x2b4>
    94f0:	e58d3000 	str	r3, [sp]
    94f4:	e59f0208 	ldr	r0, [pc, #520]	; 9704 <va_printk+0x2b8>
    94f8:	e59f1208 	ldr	r1, [pc, #520]	; 9708 <va_printk+0x2bc>
    94fc:	e59f2208 	ldr	r2, [pc, #520]	; 970c <va_printk+0x2c0>
    9500:	e3a03095 	mov	r3, #149	; 0x95
    9504:	ebfffef5 	bl	90e0 <printk>
    9508:	eb00008c 	bl	9740 <clean_reboot>
    950c:	e2455062 	sub	r5, r5, #98	; 0x62
    9510:	e3550016 	cmp	r5, #22
    9514:	979ff105 	ldrls	pc, [pc, r5, lsl #2]
    9518:	ea000052 	b	9668 <va_printk+0x21c>
    951c:	0000960c 	andeq	r9, r0, ip, lsl #12
    9520:	00009640 	andeq	r9, r0, r0, asr #12
    9524:	00009594 	muleq	r0, r4, r5
    9528:	00009668 	andeq	r9, r0, r8, ror #12
    952c:	00009578 	andeq	r9, r0, r8, ror r5
    9530:	00009668 	andeq	r9, r0, r8, ror #12
    9534:	00009668 	andeq	r9, r0, r8, ror #12
    9538:	00009668 	andeq	r9, r0, r8, ror #12
    953c:	00009668 	andeq	r9, r0, r8, ror #12
    9540:	00009668 	andeq	r9, r0, r8, ror #12
    9544:	00009668 	andeq	r9, r0, r8, ror #12
    9548:	00009668 	andeq	r9, r0, r8, ror #12
    954c:	00009668 	andeq	r9, r0, r8, ror #12
    9550:	00009668 	andeq	r9, r0, r8, ror #12
    9554:	000095e4 	andeq	r9, r0, r4, ror #11
    9558:	00009668 	andeq	r9, r0, r8, ror #12
    955c:	00009668 	andeq	r9, r0, r8, ror #12
    9560:	00009634 	andeq	r9, r0, r4, lsr r6
    9564:	00009668 	andeq	r9, r0, r8, ror #12
    9568:	000095bc 			; <UNDEFINED> instruction: 0x000095bc
    956c:	00009668 	andeq	r9, r0, r8, ror #12
    9570:	00009668 	andeq	r9, r0, r8, ror #12
    9574:	000095e4 	andeq	r9, r0, r4, ror #11
    9578:	ebfffef3 	bl	914c <rpi_reset_putc>
    957c:	e59f018c 	ldr	r0, [pc, #396]	; 9710 <va_printk+0x2c4>
    9580:	e59f1180 	ldr	r1, [pc, #384]	; 9708 <va_printk+0x2bc>
    9584:	e59f2180 	ldr	r2, [pc, #384]	; 970c <va_printk+0x2c0>
    9588:	e3a0309b 	mov	r3, #155	; 0x9b
    958c:	ebfffed3 	bl	90e0 <printk>
    9590:	eb00006a 	bl	9740 <clean_reboot>
    9594:	e59a3000 	ldr	r3, [sl]
    9598:	e28aa004 	add	sl, sl, #4
    959c:	e58d7000 	str	r7, [sp]
    95a0:	e3a02001 	mov	r2, #1
    95a4:	e58d2004 	str	r2, [sp, #4]
    95a8:	e3a0000a 	mov	r0, #10
    95ac:	e28d1010 	add	r1, sp, #16
    95b0:	e3a02080 	mov	r2, #128	; 0x80
    95b4:	ebffff1b 	bl	9228 <emit>
    95b8:	ea00003b 	b	96ac <va_printk+0x260>
    95bc:	e59a3000 	ldr	r3, [sl]
    95c0:	e28aa004 	add	sl, sl, #4
    95c4:	e58d7000 	str	r7, [sp]
    95c8:	e3a02000 	mov	r2, #0
    95cc:	e58d2004 	str	r2, [sp, #4]
    95d0:	e3a0000a 	mov	r0, #10
    95d4:	e28d1010 	add	r1, sp, #16
    95d8:	e3a02080 	mov	r2, #128	; 0x80
    95dc:	ebffff11 	bl	9228 <emit>
    95e0:	ea000031 	b	96ac <va_printk+0x260>
    95e4:	e59a3000 	ldr	r3, [sl]
    95e8:	e28aa004 	add	sl, sl, #4
    95ec:	e58d7000 	str	r7, [sp]
    95f0:	e3a02000 	mov	r2, #0
    95f4:	e58d2004 	str	r2, [sp, #4]
    95f8:	e3a00010 	mov	r0, #16
    95fc:	e08d1000 	add	r1, sp, r0
    9600:	e3a02080 	mov	r2, #128	; 0x80
    9604:	ebffff07 	bl	9228 <emit>
    9608:	ea000027 	b	96ac <va_printk+0x260>
    960c:	e59a3000 	ldr	r3, [sl]
    9610:	e28aa004 	add	sl, sl, #4
    9614:	e58d7000 	str	r7, [sp]
    9618:	e3a02000 	mov	r2, #0
    961c:	e58d2004 	str	r2, [sp, #4]
    9620:	e3a00002 	mov	r0, #2
    9624:	e28d1010 	add	r1, sp, #16
    9628:	e3a02080 	mov	r2, #128	; 0x80
    962c:	ebfffefd 	bl	9228 <emit>
    9630:	ea00001d 	b	96ac <va_printk+0x260>
    9634:	e59a0000 	ldr	r0, [sl]
    9638:	e28aa004 	add	sl, sl, #4
    963c:	ea00001a 	b	96ac <va_printk+0x260>
    9640:	e59a3000 	ldr	r3, [sl]
    9644:	e28aa004 	add	sl, sl, #4
    9648:	e58d7000 	str	r7, [sp]
    964c:	e3a02000 	mov	r2, #0
    9650:	e58d2004 	str	r2, [sp, #4]
    9654:	e3a00008 	mov	r0, #8
    9658:	e28d1010 	add	r1, sp, #16
    965c:	e3a02080 	mov	r2, #128	; 0x80
    9660:	ebfffef0 	bl	9228 <emit>
    9664:	ea000010 	b	96ac <va_printk+0x260>
    9668:	e3a03000 	mov	r3, #0
    966c:	e5c63001 	strb	r3, [r6, #1]
    9670:	e59f009c 	ldr	r0, [pc, #156]	; 9714 <va_printk+0x2c8>
    9674:	e1a01009 	mov	r1, r9
    9678:	e1a02009 	mov	r2, r9
    967c:	ebfffe97 	bl	90e0 <printk>
    9680:	e59f3090 	ldr	r3, [pc, #144]	; 9718 <va_printk+0x2cc>
    9684:	e5933000 	ldr	r3, [r3]
    9688:	e59d000c 	ldr	r0, [sp, #12]
    968c:	e12fff33 	blx	r3
    9690:	ebfffead 	bl	914c <rpi_reset_putc>
    9694:	e59f0080 	ldr	r0, [pc, #128]	; 971c <va_printk+0x2d0>
    9698:	e59f1068 	ldr	r1, [pc, #104]	; 9708 <va_printk+0x2bc>
    969c:	e59f2068 	ldr	r2, [pc, #104]	; 970c <va_printk+0x2c0>
    96a0:	e3a030bf 	mov	r3, #191	; 0xbf
    96a4:	ebfffe8d 	bl	90e0 <printk>
    96a8:	eb000024 	bl	9740 <clean_reboot>
    96ac:	e2866001 	add	r6, r6, #1
    96b0:	ea000002 	b	96c0 <va_printk+0x274>
    96b4:	e2800001 	add	r0, r0, #1
    96b8:	e5c43000 	strb	r3, [r4]
    96bc:	e2844001 	add	r4, r4, #1
    96c0:	e1540008 	cmp	r4, r8
    96c4:	2a000002 	bcs	96d4 <va_printk+0x288>
    96c8:	e5d03000 	ldrb	r3, [r0]
    96cc:	e3530000 	cmp	r3, #0
    96d0:	1afffff7 	bne	96b4 <va_printk+0x268>
    96d4:	e5d63000 	ldrb	r3, [r6]
    96d8:	e3530000 	cmp	r3, #0
    96dc:	0a000001 	beq	96e8 <va_printk+0x29c>
    96e0:	e1540008 	cmp	r4, r8
    96e4:	3affff64 	bcc	947c <va_printk+0x30>
    96e8:	e2840001 	add	r0, r4, #1
    96ec:	e3a03000 	mov	r3, #0
    96f0:	e5c43000 	strb	r3, [r4]
    96f4:	e06b0000 	rsb	r0, fp, r0
    96f8:	e28dd094 	add	sp, sp, #148	; 0x94
    96fc:	e8bd8ff0 	pop	{r4, r5, r6, r7, r8, r9, sl, fp, pc}
    9700:	0000a3f4 	strdeq	sl, [r0], -r4
    9704:	00009d4c 	andeq	r9, r0, ip, asr #26
    9708:	0000a3b0 			; <UNDEFINED> instruction: 0x0000a3b0
    970c:	0000a3a4 	andeq	sl, r0, r4, lsr #7
    9710:	0000a400 	andeq	sl, r0, r0, lsl #8
    9714:	0000a428 	andeq	sl, r0, r8, lsr #8
    9718:	00009cf4 	strdeq	r9, [r0], -r4
    971c:	0000a458 	andeq	sl, r0, r8, asr r4

00009720 <enable_cache>:
    9720:	ee113f10 	mrc	15, 0, r3, cr1, cr0, {0}
    9724:	e3833b06 	orr	r3, r3, #6144	; 0x1800
    9728:	ee013f10 	mcr	15, 0, r3, cr1, cr0, {0}
    972c:	e12fff1e 	bx	lr

00009730 <disable_cache>:
    9730:	ee113f10 	mrc	15, 0, r3, cr1, cr0, {0}
    9734:	e3c33b06 	bic	r3, r3, #6144	; 0x1800
    9738:	ee013f10 	mcr	15, 0, r3, cr1, cr0, {0}
    973c:	e12fff1e 	bx	lr

00009740 <clean_reboot>:
    9740:	e92d4008 	push	{r3, lr}
    9744:	eb00004a 	bl	9874 <reboot_handler>
    9748:	e59f3014 	ldr	r3, [pc, #20]	; 9764 <clean_reboot+0x24>
    974c:	e5933000 	ldr	r3, [r3]
    9750:	e59f0010 	ldr	r0, [pc, #16]	; 9768 <clean_reboot+0x28>
    9754:	e12fff33 	blx	r3
    9758:	e3a00064 	mov	r0, #100	; 0x64
    975c:	eb000099 	bl	99c8 <delay_ms>
    9760:	eb00006a 	bl	9910 <rpi_reboot>
    9764:	00009cf4 	strdeq	r9, [r0], -r4
    9768:	0000a478 	andeq	sl, r0, r8, ror r4

0000976c <_cstart>:
    976c:	e92d4008 	push	{r3, lr}
    9770:	e59f3024 	ldr	r3, [pc, #36]	; 979c <_cstart+0x30>
    9774:	e59f2024 	ldr	r2, [pc, #36]	; 97a0 <_cstart+0x34>
    9778:	e3a01000 	mov	r1, #0
    977c:	ea000001 	b	9788 <_cstart+0x1c>
    9780:	e5831000 	str	r1, [r3]
    9784:	e2833004 	add	r3, r3, #4
    9788:	e1530002 	cmp	r3, r2
    978c:	3afffffb 	bcc	9780 <_cstart+0x14>
    9790:	eb000036 	bl	9870 <cstart_handler>
    9794:	ebfffaf8 	bl	837c <notmain>
    9798:	ebffffe8 	bl	9740 <clean_reboot>
    979c:	0000a59c 	muleq	r0, ip, r5
    97a0:	0000a9c8 	andeq	sl, r0, r8, asr #19

000097a4 <fast_interrupt_vector>:
    97a4:	e52de004 	push	{lr}		; (str lr, [sp, #-4]!)
    97a8:	e24dd00c 	sub	sp, sp, #12
    97ac:	e1a04000 	mov	r4, r0
    97b0:	ebfffe65 	bl	914c <rpi_reset_putc>
    97b4:	e59f301c 	ldr	r3, [pc, #28]	; 97d8 <fast_interrupt_vector+0x34>
    97b8:	e58d3000 	str	r3, [sp]
    97bc:	e58d4004 	str	r4, [sp, #4]
    97c0:	e59f0014 	ldr	r0, [pc, #20]	; 97dc <fast_interrupt_vector+0x38>
    97c4:	e59f1014 	ldr	r1, [pc, #20]	; 97e0 <fast_interrupt_vector+0x3c>
    97c8:	e59f2014 	ldr	r2, [pc, #20]	; 97e4 <fast_interrupt_vector+0x40>
    97cc:	e3a03002 	mov	r3, #2
    97d0:	ebfffe42 	bl	90e0 <printk>
    97d4:	ebffffd9 	bl	9740 <clean_reboot>
    97d8:	0000a4fc 	strdeq	sl, [r0], -ip
    97dc:	0000a49c 	muleq	r0, ip, r4
    97e0:	0000a4d8 	ldrdeq	sl, [r0], -r8
    97e4:	0000a484 	andeq	sl, r0, r4, lsl #9

000097e8 <reset_vector>:
    97e8:	e52de004 	push	{lr}		; (str lr, [sp, #-4]!)
    97ec:	e24dd00c 	sub	sp, sp, #12
    97f0:	e1a04000 	mov	r4, r0
    97f4:	ebfffe54 	bl	914c <rpi_reset_putc>
    97f8:	e59f301c 	ldr	r3, [pc, #28]	; 981c <reset_vector+0x34>
    97fc:	e58d3000 	str	r3, [sp]
    9800:	e58d4004 	str	r4, [sp, #4]
    9804:	e59f0014 	ldr	r0, [pc, #20]	; 9820 <reset_vector+0x38>
    9808:	e59f1014 	ldr	r1, [pc, #20]	; 9824 <reset_vector+0x3c>
    980c:	e59f2014 	ldr	r2, [pc, #20]	; 9828 <reset_vector+0x40>
    9810:	e3a03002 	mov	r3, #2
    9814:	ebfffe31 	bl	90e0 <printk>
    9818:	ebffffc8 	bl	9740 <clean_reboot>
    981c:	0000a538 	andeq	sl, r0, r8, lsr r5
    9820:	0000a49c 	muleq	r0, ip, r4
    9824:	0000a514 	andeq	sl, r0, r4, lsl r5
    9828:	0000a504 	andeq	sl, r0, r4, lsl #10

0000982c <undefined_instruction_vector>:
    982c:	e52de004 	push	{lr}		; (str lr, [sp, #-4]!)
    9830:	e24dd00c 	sub	sp, sp, #12
    9834:	e1a04000 	mov	r4, r0
    9838:	ebfffe43 	bl	914c <rpi_reset_putc>
    983c:	e59f301c 	ldr	r3, [pc, #28]	; 9860 <undefined_instruction_vector+0x34>
    9840:	e58d3000 	str	r3, [sp]
    9844:	e58d4004 	str	r4, [sp, #4]
    9848:	e59f0014 	ldr	r0, [pc, #20]	; 9864 <undefined_instruction_vector+0x38>
    984c:	e59f1014 	ldr	r1, [pc, #20]	; 9868 <undefined_instruction_vector+0x3c>
    9850:	e59f2014 	ldr	r2, [pc, #20]	; 986c <undefined_instruction_vector+0x40>
    9854:	e3a03002 	mov	r3, #2
    9858:	ebfffe20 	bl	90e0 <printk>
    985c:	ebffffb7 	bl	9740 <clean_reboot>
    9860:	0000a58c 	andeq	sl, r0, ip, lsl #11
    9864:	0000a49c 	muleq	r0, ip, r4
    9868:	0000a560 	andeq	sl, r0, r0, ror #10
    986c:	0000a540 	andeq	sl, r0, r0, asr #10

00009870 <cstart_handler>:
    9870:	e12fff1e 	bx	lr

00009874 <reboot_handler>:
    9874:	e12fff1e 	bx	lr

00009878 <int_init>:
    9878:	e92d4008 	push	{r3, lr}
    987c:	eb00005b 	bl	99f0 <dev_barrier>
    9880:	e59f004c 	ldr	r0, [pc, #76]	; 98d4 <int_init+0x5c>
    9884:	e3e01000 	mvn	r1, #0
    9888:	eb000060 	bl	9a10 <PUT32>
    988c:	e59f0044 	ldr	r0, [pc, #68]	; 98d8 <int_init+0x60>
    9890:	e3e01000 	mvn	r1, #0
    9894:	eb00005d 	bl	9a10 <PUT32>
    9898:	eb000054 	bl	99f0 <dev_barrier>
    989c:	e59f3038 	ldr	r3, [pc, #56]	; 98dc <int_init+0x64>
    98a0:	e59f0038 	ldr	r0, [pc, #56]	; 98e0 <int_init+0x68>
    98a4:	e0630000 	rsb	r0, r3, r0
    98a8:	e1a00140 	asr	r0, r0, #2
    98ac:	e3a03000 	mov	r3, #0
    98b0:	e59fc024 	ldr	ip, [pc, #36]	; 98dc <int_init+0x64>
    98b4:	ea000003 	b	98c8 <int_init+0x50>
    98b8:	e1a02103 	lsl	r2, r3, #2
    98bc:	e79c1103 	ldr	r1, [ip, r3, lsl #2]
    98c0:	e5821000 	str	r1, [r2]
    98c4:	e2833001 	add	r3, r3, #1
    98c8:	e1530000 	cmp	r3, r0
    98cc:	3afffff9 	bcc	98b8 <int_init+0x40>
    98d0:	e8bd8008 	pop	{r3, pc}
    98d4:	2000b21c 	andcs	fp, r0, ip, lsl r2
    98d8:	2000b220 	andcs	fp, r0, r0, lsr #4
    98dc:	00008870 	andeq	r8, r0, r0, ror r8
    98e0:	000088b0 			; <UNDEFINED> instruction: 0x000088b0

000098e4 <at_user_level>:
    98e4:	e10f0000 	mrs	r0, CPSR
    98e8:	e200001f 	and	r0, r0, #31
    98ec:	e3500010 	cmp	r0, #16
    98f0:	13a00000 	movne	r0, #0
    98f4:	03a00001 	moveq	r0, #1
    98f8:	e12fff1e 	bx	lr

000098fc <set_user_level>:
    98fc:	e10f3000 	mrs	r3, CPSR
    9900:	e3c3301f 	bic	r3, r3, #31
    9904:	e3833010 	orr	r3, r3, #16
    9908:	e129f003 	msr	CPSR_fc, r3
    990c:	e12fff1e 	bx	lr

00009910 <rpi_reboot>:
    9910:	e92d4008 	push	{r3, lr}
    9914:	ebfffff2 	bl	98e4 <at_user_level>
    9918:	e3500000 	cmp	r0, #0
    991c:	0a000000 	beq	9924 <rpi_reboot+0x14>
    9920:	ebfffff5 	bl	98fc <set_user_level>
    9924:	e3a0001e 	mov	r0, #30
    9928:	eb000026 	bl	99c8 <delay_ms>
    992c:	e59f0014 	ldr	r0, [pc, #20]	; 9948 <rpi_reboot+0x38>
    9930:	e59f1014 	ldr	r1, [pc, #20]	; 994c <rpi_reboot+0x3c>
    9934:	eb000035 	bl	9a10 <PUT32>
    9938:	e59f0010 	ldr	r0, [pc, #16]	; 9950 <rpi_reboot+0x40>
    993c:	e59f1010 	ldr	r1, [pc, #16]	; 9954 <rpi_reboot+0x44>
    9940:	eb000032 	bl	9a10 <PUT32>
    9944:	eafffffe 	b	9944 <rpi_reboot+0x34>
    9948:	20100024 	andscs	r0, r0, r4, lsr #32
    994c:	5a000001 	bpl	9958 <delay_cycles>
    9950:	2010001c 	andscs	r0, r0, ip, lsl r0
    9954:	5a000020 	bpl	99dc <delay_sec>

00009958 <delay_cycles>:
    9958:	ea000001 	b	9964 <delay_cycles+0xc>
    995c:	e2811000 	add	r1, r1, #0
    9960:	e1a00003 	mov	r0, r3
    9964:	e2403001 	sub	r3, r0, #1
    9968:	e3500000 	cmp	r0, #0
    996c:	1afffffa 	bne	995c <delay_cycles+0x4>
    9970:	e12fff1e 	bx	lr

00009974 <timer_get_usec_raw>:
    9974:	e92d4008 	push	{r3, lr}
    9978:	e59f0004 	ldr	r0, [pc, #4]	; 9984 <timer_get_usec_raw+0x10>
    997c:	eb00002f 	bl	9a40 <GET32>
    9980:	e8bd8008 	pop	{r3, pc}
    9984:	20003004 	andcs	r3, r0, r4

00009988 <timer_get_usec>:
    9988:	e92d4010 	push	{r4, lr}
    998c:	eb000017 	bl	99f0 <dev_barrier>
    9990:	ebfffff7 	bl	9974 <timer_get_usec_raw>
    9994:	e1a04000 	mov	r4, r0
    9998:	eb000014 	bl	99f0 <dev_barrier>
    999c:	e1a00004 	mov	r0, r4
    99a0:	e8bd8010 	pop	{r4, pc}

000099a4 <delay_us>:
    99a4:	e92d4038 	push	{r3, r4, r5, lr}
    99a8:	e1a05000 	mov	r5, r0
    99ac:	ebfffff5 	bl	9988 <timer_get_usec>
    99b0:	e1a04000 	mov	r4, r0
    99b4:	ebfffff3 	bl	9988 <timer_get_usec>
    99b8:	e0640000 	rsb	r0, r4, r0
    99bc:	e1500005 	cmp	r0, r5
    99c0:	3afffffb 	bcc	99b4 <delay_us+0x10>
    99c4:	e8bd8038 	pop	{r3, r4, r5, pc}

000099c8 <delay_ms>:
    99c8:	e92d4008 	push	{r3, lr}
    99cc:	e3a03ffa 	mov	r3, #1000	; 0x3e8
    99d0:	e0000093 	mul	r0, r3, r0
    99d4:	ebfffff2 	bl	99a4 <delay_us>
    99d8:	e8bd8008 	pop	{r3, pc}

000099dc <delay_sec>:
    99dc:	e92d4008 	push	{r3, lr}
    99e0:	e3a03ffa 	mov	r3, #1000	; 0x3e8
    99e4:	e0000093 	mul	r0, r3, r0
    99e8:	ebfffff6 	bl	99c8 <delay_ms>
    99ec:	e8bd8008 	pop	{r3, pc}

000099f0 <dev_barrier>:
    99f0:	ea000002 	b	9a00 <dsb>

000099f4 <dmb>:
    99f4:	e3a00000 	mov	r0, #0
    99f8:	ee070fba 	mcr	15, 0, r0, cr7, cr10, {5}
    99fc:	e12fff1e 	bx	lr

00009a00 <dsb>:
    9a00:	ee070f9a 	mcr	15, 0, r0, cr7, cr10, {4}
    9a04:	e12fff1e 	bx	lr

00009a08 <put32>:
    9a08:	e5801000 	str	r1, [r0]
    9a0c:	e12fff1e 	bx	lr

00009a10 <PUT32>:
    9a10:	e5801000 	str	r1, [r0]
    9a14:	e12fff1e 	bx	lr

00009a18 <put16>:
    9a18:	e1c010b0 	strh	r1, [r0]
    9a1c:	e12fff1e 	bx	lr

00009a20 <PUT16>:
    9a20:	e1c010b0 	strh	r1, [r0]
    9a24:	e12fff1e 	bx	lr

00009a28 <put8>:
    9a28:	e5c01000 	strb	r1, [r0]
    9a2c:	e12fff1e 	bx	lr

00009a30 <PUT8>:
    9a30:	e5c01000 	strb	r1, [r0]
    9a34:	e12fff1e 	bx	lr

00009a38 <get32>:
    9a38:	e5900000 	ldr	r0, [r0]
    9a3c:	e12fff1e 	bx	lr

00009a40 <GET32>:
    9a40:	e5900000 	ldr	r0, [r0]
    9a44:	e12fff1e 	bx	lr

00009a48 <GETPC>:
    9a48:	e1a0000e 	mov	r0, lr
    9a4c:	e12fff1e 	bx	lr

00009a50 <dummy>:
    9a50:	e12fff1e 	bx	lr

00009a54 <or_in32>:
    9a54:	e92d4070 	push	{r4, r5, r6, lr}
    9a58:	e1a04000 	mov	r4, r0
    9a5c:	e1a05001 	mov	r5, r1
    9a60:	ebfffff4 	bl	9a38 <get32>
    9a64:	e1801005 	orr	r1, r0, r5
    9a68:	e1a00004 	mov	r0, r4
    9a6c:	ebffffe5 	bl	9a08 <put32>
    9a70:	e8bd8070 	pop	{r4, r5, r6, pc}

00009a74 <uart_init>:
    9a74:	e92d4010 	push	{r4, lr}
    9a78:	e3a01002 	mov	r1, #2
    9a7c:	e3a0000e 	mov	r0, #14
    9a80:	eb000051 	bl	9bcc <gpio_set_function>
    9a84:	e3a01002 	mov	r1, #2
    9a88:	e3a0000f 	mov	r0, #15
    9a8c:	eb00004e 	bl	9bcc <gpio_set_function>
    9a90:	ebffffd6 	bl	99f0 <dev_barrier>
    9a94:	e3a01001 	mov	r1, #1
    9a98:	e59f0064 	ldr	r0, [pc, #100]	; 9b04 <uart_init+0x90>
    9a9c:	ebffffec 	bl	9a54 <or_in32>
    9aa0:	ebffffd2 	bl	99f0 <dev_barrier>
    9aa4:	e59f405c 	ldr	r4, [pc, #92]	; 9b08 <uart_init+0x94>
    9aa8:	e3a01000 	mov	r1, #0
    9aac:	e1a00004 	mov	r0, r4
    9ab0:	ebffffd4 	bl	9a08 <put32>
    9ab4:	e3a01000 	mov	r1, #0
    9ab8:	e59f004c 	ldr	r0, [pc, #76]	; 9b0c <uart_init+0x98>
    9abc:	ebffffd1 	bl	9a08 <put32>
    9ac0:	e3a01003 	mov	r1, #3
    9ac4:	e59f0044 	ldr	r0, [pc, #68]	; 9b10 <uart_init+0x9c>
    9ac8:	ebffffce 	bl	9a08 <put32>
    9acc:	e3a01000 	mov	r1, #0
    9ad0:	e59f003c 	ldr	r0, [pc, #60]	; 9b14 <uart_init+0xa0>
    9ad4:	ebffffcb 	bl	9a08 <put32>
    9ad8:	e3a010c7 	mov	r1, #199	; 0xc7
    9adc:	e59f0034 	ldr	r0, [pc, #52]	; 9b18 <uart_init+0xa4>
    9ae0:	ebffffc8 	bl	9a08 <put32>
    9ae4:	e59f1030 	ldr	r1, [pc, #48]	; 9b1c <uart_init+0xa8>
    9ae8:	e59f0030 	ldr	r0, [pc, #48]	; 9b20 <uart_init+0xac>
    9aec:	ebffffc5 	bl	9a08 <put32>
    9af0:	e3a01003 	mov	r1, #3
    9af4:	e1a00004 	mov	r0, r4
    9af8:	ebffffc2 	bl	9a08 <put32>
    9afc:	ebffffbb 	bl	99f0 <dev_barrier>
    9b00:	e8bd8010 	pop	{r4, pc}
    9b04:	20215004 	eorcs	r5, r1, r4
    9b08:	20215060 	eorcs	r5, r1, r0, rrx
    9b0c:	20215044 	eorcs	r5, r1, r4, asr #32
    9b10:	2021504c 	eorcs	r5, r1, ip, asr #32
    9b14:	20215050 	eorcs	r5, r1, r0, asr r0
    9b18:	20215048 	eorcs	r5, r1, r8, asr #32
    9b1c:	0000010e 	andeq	r0, r0, lr, lsl #2
    9b20:	20215068 	eorcs	r5, r1, r8, rrx

00009b24 <uart_can_getc>:
    9b24:	e92d4010 	push	{r4, lr}
    9b28:	e59f0008 	ldr	r0, [pc, #8]	; 9b38 <uart_can_getc+0x14>
    9b2c:	ebffffc1 	bl	9a38 <get32>
    9b30:	e2000001 	and	r0, r0, #1
    9b34:	e8bd8010 	pop	{r4, pc}
    9b38:	20215064 	eorcs	r5, r1, r4, rrx

00009b3c <uart_can_putc>:
    9b3c:	e92d4010 	push	{r4, lr}
    9b40:	e59f0010 	ldr	r0, [pc, #16]	; 9b58 <uart_can_putc+0x1c>
    9b44:	ebffffbb 	bl	9a38 <get32>
    9b48:	e3100002 	tst	r0, #2
    9b4c:	13a00001 	movne	r0, #1
    9b50:	03a00000 	moveq	r0, #0
    9b54:	e8bd8010 	pop	{r4, pc}
    9b58:	20215064 	eorcs	r5, r1, r4, rrx

00009b5c <uart_getc>:
    9b5c:	e92d4010 	push	{r4, lr}
    9b60:	ebffffa2 	bl	99f0 <dev_barrier>
    9b64:	ebffffee 	bl	9b24 <uart_can_getc>
    9b68:	e3500000 	cmp	r0, #0
    9b6c:	0afffffc 	beq	9b64 <uart_getc+0x8>
    9b70:	e59f0010 	ldr	r0, [pc, #16]	; 9b88 <uart_getc+0x2c>
    9b74:	ebffffaf 	bl	9a38 <get32>
    9b78:	e6ef4070 	uxtb	r4, r0
    9b7c:	ebffff9b 	bl	99f0 <dev_barrier>
    9b80:	e1a00004 	mov	r0, r4
    9b84:	e8bd8010 	pop	{r4, pc}
    9b88:	20215040 	eorcs	r5, r1, r0, asr #32

00009b8c <uart_putc>:
    9b8c:	e92d4010 	push	{r4, lr}
    9b90:	e1a04000 	mov	r4, r0
    9b94:	ebffff95 	bl	99f0 <dev_barrier>
    9b98:	ebffffe7 	bl	9b3c <uart_can_putc>
    9b9c:	e3500000 	cmp	r0, #0
    9ba0:	0afffffc 	beq	9b98 <uart_putc+0xc>
    9ba4:	e6ef1074 	uxtb	r1, r4
    9ba8:	e59f0008 	ldr	r0, [pc, #8]	; 9bb8 <uart_putc+0x2c>
    9bac:	ebffff95 	bl	9a08 <put32>
    9bb0:	ebffff8e 	bl	99f0 <dev_barrier>
    9bb4:	e8bd8010 	pop	{r4, pc}
    9bb8:	20215040 	eorcs	r5, r1, r0, asr #32

00009bbc <uart_has_data>:
    9bbc:	e92d4010 	push	{r4, lr}
    9bc0:	ebffff8a 	bl	99f0 <dev_barrier>
    9bc4:	ebffffd6 	bl	9b24 <uart_can_getc>
    9bc8:	e8bd8010 	pop	{r4, pc}

00009bcc <gpio_set_function>:
    9bcc:	e350001f 	cmp	r0, #31
    9bd0:	812fff1e 	bxhi	lr
    9bd4:	e3d13007 	bics	r3, r1, #7
    9bd8:	112fff1e 	bxne	lr
    9bdc:	e92d4070 	push	{r4, r5, r6, lr}
    9be0:	e1a05001 	mov	r5, r1
    9be4:	e59f3044 	ldr	r3, [pc, #68]	; 9c30 <gpio_set_function+0x64>
    9be8:	e0832093 	umull	r2, r3, r3, r0
    9bec:	e1a031a3 	lsr	r3, r3, #3
    9bf0:	e1a06003 	mov	r6, r3
    9bf4:	e0833103 	add	r3, r3, r3, lsl #2
    9bf8:	e1a02083 	lsl	r2, r3, #1
    9bfc:	e0403002 	sub	r3, r0, r2
    9c00:	e0834083 	add	r4, r3, r3, lsl #1
    9c04:	e2866302 	add	r6, r6, #134217728	; 0x8000000
    9c08:	e2866702 	add	r6, r6, #524288	; 0x80000
    9c0c:	e1a06106 	lsl	r6, r6, #2
    9c10:	e1a00006 	mov	r0, r6
    9c14:	ebffff89 	bl	9a40 <GET32>
    9c18:	e3a01007 	mov	r1, #7
    9c1c:	e1c01411 	bic	r1, r0, r1, lsl r4
    9c20:	e1811415 	orr	r1, r1, r5, lsl r4
    9c24:	e1a00006 	mov	r0, r6
    9c28:	ebffff78 	bl	9a10 <PUT32>
    9c2c:	e8bd8070 	pop	{r4, r5, r6, pc}
    9c30:	cccccccd 	stclgt	12, cr12, [ip], {205}	; 0xcd

00009c34 <gpio_set_output>:
    9c34:	e92d4010 	push	{r4, lr}
    9c38:	e3a01001 	mov	r1, #1
    9c3c:	ebffffe2 	bl	9bcc <gpio_set_function>
    9c40:	e8bd8010 	pop	{r4, pc}

00009c44 <gpio_set_on>:
    9c44:	e350001f 	cmp	r0, #31
    9c48:	812fff1e 	bxhi	lr
    9c4c:	e92d4010 	push	{r4, lr}
    9c50:	e3a01001 	mov	r1, #1
    9c54:	e1a01011 	lsl	r1, r1, r0
    9c58:	e59f0004 	ldr	r0, [pc, #4]	; 9c64 <gpio_set_on+0x20>
    9c5c:	ebffff6b 	bl	9a10 <PUT32>
    9c60:	e8bd8010 	pop	{r4, pc}
    9c64:	2020001c 	eorcs	r0, r0, ip, lsl r0

00009c68 <gpio_set_off>:
    9c68:	e350001f 	cmp	r0, #31
    9c6c:	812fff1e 	bxhi	lr
    9c70:	e92d4010 	push	{r4, lr}
    9c74:	e3a01001 	mov	r1, #1
    9c78:	e1a01011 	lsl	r1, r1, r0
    9c7c:	e59f0004 	ldr	r0, [pc, #4]	; 9c88 <gpio_set_off+0x20>
    9c80:	ebffff62 	bl	9a10 <PUT32>
    9c84:	e8bd8010 	pop	{r4, pc}
    9c88:	20200028 	eorcs	r0, r0, r8, lsr #32

00009c8c <gpio_set_input>:
    9c8c:	e92d4010 	push	{r4, lr}
    9c90:	e3a01000 	mov	r1, #0
    9c94:	ebffffcc 	bl	9bcc <gpio_set_function>
    9c98:	e8bd8010 	pop	{r4, pc}

00009c9c <gpio_write>:
    9c9c:	e92d4010 	push	{r4, lr}
    9ca0:	e3510000 	cmp	r1, #0
    9ca4:	1a000001 	bne	9cb0 <gpio_write+0x14>
    9ca8:	ebffffee 	bl	9c68 <gpio_set_off>
    9cac:	e8bd8010 	pop	{r4, pc}
    9cb0:	ebffffe3 	bl	9c44 <gpio_set_on>
    9cb4:	e8bd8010 	pop	{r4, pc}

00009cb8 <gpio_read>:
    9cb8:	e350001f 	cmp	r0, #31
    9cbc:	8a000007 	bhi	9ce0 <gpio_read+0x28>
    9cc0:	e92d4010 	push	{r4, lr}
    9cc4:	e200401f 	and	r4, r0, #31
    9cc8:	e59f3018 	ldr	r3, [pc, #24]	; 9ce8 <gpio_read+0x30>
    9ccc:	e08302a0 	add	r0, r3, r0, lsr #5
    9cd0:	ebffff5a 	bl	9a40 <GET32>
    9cd4:	e1a00430 	lsr	r0, r0, r4
    9cd8:	e2000001 	and	r0, r0, #1
    9cdc:	e8bd8010 	pop	{r4, pc}
    9ce0:	e3e00000 	mvn	r0, #0
    9ce4:	e12fff1e 	bx	lr
    9ce8:	20200034 	eorcs	r0, r0, r4, lsr r0

00009cec <__code_end__>:
    9cec:	00000000 	andeq	r0, r0, r0

Disassembly of section .data:

00009cf0 <__data_start__>:
    9cf0:	00009138 	andeq	r9, r0, r8, lsr r1

00009cf4 <putk>:
    9cf4:	00009174 	andeq	r9, r0, r4, ror r1

Disassembly of section .rodata:

00009cf8 <__FUNCTION__.4394-0x290>:
    9cf8:	52455355 	subpl	r5, r5, #1409286145	; 0x54000001
    9cfc:	444f4d20 	strbmi	r4, [pc], #-3360	; 9d04 <__data_end__+0xc>
    9d00:	00000045 	andeq	r0, r0, r5, asr #32
    9d04:	20514946 	subscs	r4, r1, r6, asr #18
    9d08:	45444f4d 	strbmi	r4, [r4, #-3917]	; 0xf4d
    9d0c:	00000000 	andeq	r0, r0, r0
    9d10:	20515249 	subscs	r5, r1, r9, asr #4
    9d14:	45444f4d 	strbmi	r4, [r4, #-3917]	; 0xf4d
    9d18:	00000000 	andeq	r0, r0, r0
    9d1c:	45505553 	ldrbmi	r5, [r0, #-1363]	; 0x553
    9d20:	4f4d2052 	svcmi	0x004d2052
    9d24:	00004544 	andeq	r4, r0, r4, asr #10
    9d28:	524f4241 	subpl	r4, pc, #268435460	; 0x10000004
    9d2c:	4f4d2054 	svcmi	0x004d2054
    9d30:	00004544 	andeq	r4, r0, r4, asr #10
    9d34:	45444e55 	strbmi	r4, [r4, #-3669]	; 0xe55
    9d38:	4f4d2046 	svcmi	0x004d2046
    9d3c:	00004544 	andeq	r4, r0, r4, asr #10
    9d40:	20535953 	subscs	r5, r3, r3, asr r9
    9d44:	45444f4d 	strbmi	r4, [r4, #-3917]	; 0xf4d
    9d48:	00000000 	andeq	r0, r0, r0
    9d4c:	494e4150 	stmdbmi	lr, {r4, r6, r8, lr}^
    9d50:	73253a43 	teqvc	r5, #274432	; 0x43000
    9d54:	3a73253a 	bcc	1cd3244 <__bss_end__+0x1cc887c>
    9d58:	253a6425 	ldrcs	r6, [sl, #-1061]!	; 0x425
    9d5c:	00000a73 	andeq	r0, r0, r3, ror sl
    9d60:	70632f2e 	rsbvc	r2, r3, lr, lsr #30
    9d64:	752d7273 	strvc	r7, [sp, #-627]!	; 0x273
    9d68:	2e6c6974 	mcrcs	9, 3, r6, cr12, cr4, {3}
    9d6c:	00000068 	andeq	r0, r0, r8, rrx
    9d70:	65646f6d 	strbvs	r6, [r4, #-3949]!	; 0xf6d
    9d74:	67656c5f 			; <UNDEFINED> instruction: 0x67656c5f
    9d78:	6d286c61 	stcvs	12, cr6, [r8, #-388]!	; 0xfffffe7c
    9d7c:	2965646f 	stmdbcs	r5!, {r0, r1, r2, r3, r5, r6, sl, sp, lr}^
    9d80:	00000000 	andeq	r0, r0, r0
    9d84:	494e4150 	stmdbmi	lr, {r4, r6, r8, lr}^
    9d88:	73253a43 	teqvc	r5, #274432	; 0x43000
    9d8c:	3a73253a 	bcc	1cd327c <__bss_end__+0x1cc88b4>
    9d90:	753a6425 	ldrvc	r6, [sl, #-1061]!	; 0x425
    9d94:	6f6e6b6e 	svcvs	0x006e6b6e
    9d98:	6d206e77 	stcvs	14, cr6, [r0, #-476]!	; 0xfffffe24
    9d9c:	3a65646f 	bcc	1962f60 <__bss_end__+0x1958598>
    9da0:	78253c20 	stmdavc	r5!, {r5, sl, fp, ip, sp}
    9da4:	000a0a3e 	andeq	r0, sl, lr, lsr sl
    9da8:	74736574 	ldrbtvc	r6, [r3], #-1396	; 0x574
    9dac:	36312f73 	shsub16cc	r2, r1, r3
    9db0:	7261702d 	rsbvc	r7, r1, #45	; 0x2d
    9db4:	742d3274 	strtvc	r3, [sp], #-628	; 0x274
    9db8:	31747365 	cmncc	r4, r5, ror #6
    9dbc:	0000632e 	andeq	r6, r0, lr, lsr #6
    9dc0:	646e6168 	strbtvs	r6, [lr], #-360	; 0x168
    9dc4:	3d20656c 	cfstr32cc	mvfx6, [r0, #-432]!	; 0xfffffe50
    9dc8:	7865203d 	stmdavc	r5!, {r0, r2, r3, r4, r5, sp}^
    9dcc:	74636570 	strbtvc	r6, [r3], #-1392	; 0x570
    9dd0:	685f6465 	ldmdavs	pc, {r0, r2, r5, r6, sl, sp, lr}^	; <UNPREDICTABLE>
    9dd4:	6c646e61 	stclvs	14, cr6, [r4], #-388	; 0xfffffe7c
    9dd8:	00000065 	andeq	r0, r0, r5, rrx
    9ddc:	253a7325 	ldrcs	r7, [sl, #-805]!	; 0x325
    9de0:	64253a73 	strtvs	r3, [r5], #-2675	; 0xa73
    9de4:	6572703a 	ldrbvs	r7, [r2, #-58]!	; 0x3a
    9de8:	63746566 	cmnvs	r4, #427819008	; 0x19800000
    9dec:	62612068 	rsbvs	r2, r1, #104	; 0x68
    9df0:	2074726f 	rsbscs	r7, r4, pc, ror #4
    9df4:	25207461 	strcs	r7, [r0, #-1121]!	; 0x461
    9df8:	75202c70 	strvc	r2, [r0, #-3184]!	; 0xc70
    9dfc:	5f726573 	svcpl	0x00726573
    9e00:	74736574 	ldrbtvc	r6, [r3], #-1396	; 0x574
    9e04:	25203d20 	strcs	r3, [r0, #-3360]!	; 0xd20
    9e08:	00000a70 	andeq	r0, r0, r0, ror sl
    9e0c:	494e4150 	stmdbmi	lr, {r4, r6, r8, lr}^
    9e10:	73253a43 	teqvc	r5, #274432	; 0x43000
    9e14:	3a73253a 	bcc	1cd3304 <__bss_end__+0x1cc893c>
    9e18:	693a6425 	ldmdbvs	sl!, {r0, r2, r5, sl, sp, lr}
    9e1c:	736f706d 	cmnvc	pc, #109	; 0x6d
    9e20:	6c626973 	stclvs	9, cr6, [r2], #-460	; 0xfffffe34
    9e24:	73203a65 	teqvc	r0, #413696	; 0x65000
    9e28:	6c756f68 	ldclvs	15, cr6, [r5], #-416	; 0xfffffe60
    9e2c:	65672064 	strbvs	r2, [r7, #-100]!	; 0x64
    9e30:	6f6e2074 	svcvs	0x006e2074
    9e34:	68746f20 	ldmdavs	r4!, {r5, r8, r9, sl, fp, sp, lr}^
    9e38:	66207265 	strtvs	r7, [r0], -r5, ror #4
    9e3c:	746c7561 	strbtvc	r7, [ip], #-1377	; 0x561
    9e40:	000a0a73 	andeq	r0, sl, r3, ror sl
    9e44:	20746e63 	rsbscs	r6, r4, r3, ror #28
    9e48:	4e203d3d 	mcrmi	13, 1, r3, cr0, cr13, {1}
    9e4c:	00000000 	andeq	r0, r0, r0
    9e50:	656e6f64 	strbvs	r6, [lr, #-3940]!	; 0xf64
    9e54:	6e697320 	cdpvs	3, 6, cr7, cr9, cr0, {1}
    9e58:	20656c67 	rsbcs	r6, r5, r7, ror #24
    9e5c:	70657473 	rsbvc	r7, r5, r3, ror r4
    9e60:	676e6970 			; <UNDEFINED> instruction: 0x676e6970
    9e64:	6e63203a 	mcrvs	0, 3, r2, cr3, cr10, {1}
    9e68:	64253d74 	strtvs	r3, [r5], #-3444	; 0xd74
    9e6c:	000a2121 	andeq	r2, sl, r1, lsr #2
    9e70:	253a7325 	ldrcs	r7, [sl, #-805]!	; 0x325
    9e74:	64253a73 	strtvs	r3, [r5], #-2675	; 0xa73
    9e78:	7465733a 	strbtvc	r7, [r5], #-826	; 0x33a
    9e7c:	676e6974 			; <UNDEFINED> instruction: 0x676e6974
    9e80:	20707520 	rsbscs	r7, r0, r0, lsr #10
    9e84:	696d2061 	stmdbvs	sp!, {r0, r5, r6, sp}^
    9e88:	74616d73 	strbtvc	r6, [r1], #-3443	; 0xd73
    9e8c:	6f206863 	svcvs	0x00206863
    9e90:	7025206e 	eorvc	r2, r5, lr, rrx
    9e94:	0000000a 	andeq	r0, r0, sl
    9e98:	253a7325 	ldrcs	r7, [sl, #-805]!	; 0x325
    9e9c:	64253a73 	strtvs	r3, [r5], #-2675	; 0xa73
    9ea0:	6e6f643a 	mcrvs	4, 3, r6, cr15, cr10, {1}
    9ea4:	65732065 	ldrbvs	r2, [r3, #-101]!	; 0x65
    9ea8:	6e697474 	mcrvs	4, 3, r7, cr9, cr4, {3}
    9eac:	70752067 	rsbsvc	r2, r5, r7, rrx
    9eb0:	6d206120 	stfvss	f6, [r0, #-128]!	; 0xffffff80
    9eb4:	616d7369 	cmnvs	sp, r9, ror #6
    9eb8:	20686374 	rsbcs	r6, r8, r4, ror r3
    9ebc:	25206e6f 	strcs	r6, [r0, #-3695]!	; 0xe6f
    9ec0:	00000a70 	andeq	r0, r0, r0, ror sl
    9ec4:	72727563 	rsbsvc	r7, r2, #415236096	; 0x18c00000
    9ec8:	20746e65 	rsbscs	r6, r4, r5, ror #28
    9ecc:	65646f6d 	strbvs	r6, [r4, #-3949]!	; 0xf6d
    9ed0:	25203d20 	strcs	r3, [r0, #-3360]!	; 0xd20
    9ed4:	25282073 	strcs	r2, [r8, #-115]!	; 0x73
    9ed8:	000a2978 	andeq	r2, sl, r8, ror r9
    9edc:	253a7325 	ldrcs	r7, [sl, #-805]!	; 0x325
    9ee0:	64253a73 	strtvs	r3, [r5], #-2675	; 0xa73
    9ee4:	6f62613a 	svcvs	0x0062613a
    9ee8:	74207475 	strtvc	r7, [r0], #-1141	; 0x475
    9eec:	6573206f 	ldrbvs	r2, [r3, #-111]!	; 0x6f
    9ef0:	696d2074 	stmdbvs	sp!, {r2, r4, r5, r6, sp}^
    9ef4:	74616d73 	strbtvc	r6, [r1], #-3443	; 0xd73
    9ef8:	62206863 	eorvs	r6, r0, #6488064	; 0x630000
    9efc:	74706b72 	ldrbtvc	r6, [r0], #-2930	; 0xb72
    9f00:	0000000a 	andeq	r0, r0, sl
    9f04:	253a7325 	ldrcs	r7, [sl, #-805]!	; 0x325
    9f08:	64253a73 	strtvs	r3, [r5], #-2675	; 0xa73
    9f0c:	7465733a 	strbtvc	r7, [r5], #-826	; 0x33a
    9f10:	73696d20 	cmnvc	r9, #32, 26	; 0x800
    9f14:	6374616d 	cmnvs	r4, #1073741851	; 0x4000001b
    9f18:	72622068 	rsbvc	r2, r2, #104	; 0x68
    9f1c:	0a74706b 	beq	1d260d0 <__bss_end__+0x1d1b708>
    9f20:	00000000 	andeq	r0, r0, r0
    9f24:	65707865 	ldrbvs	r7, [r0, #-2149]!	; 0x865
    9f28:	64657463 	strbtvs	r7, [r5], #-1123	; 0x463
    9f2c:	646f6d20 	strbtvs	r6, [pc], #-3360	; 9f34 <__data_end__+0x23c>
    9f30:	203d2065 	eorscs	r2, sp, r5, rrx
    9f34:	28207325 	stmdacs	r0!, {r0, r2, r5, r8, r9, ip, sp, lr}
    9f38:	0a297825 	beq	a67fd4 <__bss_end__+0xa5d60c>
    9f3c:	00000000 	andeq	r0, r0, r0
    9f40:	72737063 	rsbsvc	r7, r3, #99	; 0x63
    9f44:	646c6f5f 	strbtvs	r6, [ip], #-3935	; 0xf5f
    9f48:	203d3d20 	eorscs	r3, sp, r0, lsr #26
    9f4c:	72737063 	rsbsvc	r7, r3, #99	; 0x63
    9f50:	7465675f 	strbtvc	r6, [r5], #-1887	; 0x75f
    9f54:	00002928 	andeq	r2, r0, r8, lsr #18
    9f58:	43435553 	movtmi	r5, #13651	; 0x3553
    9f5c:	3a535345 	bcc	14dec78 <__bss_end__+0x14d42b0>
    9f60:	00000000 	andeq	r0, r0, r0
    9f64:	6d617274 	sfmvs	f7, 2, [r1, #-464]!	; 0xfffffe30
    9f68:	696c6f70 	stmdbvs	ip!, {r4, r5, r6, r8, r9, sl, fp, sp, lr}^
    9f6c:	7220656e 	eorvc	r6, r0, #461373440	; 0x1b800000
    9f70:	72757465 	rsbsvc	r7, r5, #1694498816	; 0x65000000
    9f74:	2064656e 	rsbcs	r6, r4, lr, ror #10
    9f78:	63637573 	cmnvs	r3, #482344960	; 0x1cc00000
    9f7c:	66737365 	ldrbtvs	r7, [r3], -r5, ror #6
    9f80:	796c6c75 	stmdbvc	ip!, {r0, r2, r4, r5, r6, sl, fp, sp, lr}^
    9f84:	0000000a 	andeq	r0, r0, sl

00009f88 <__FUNCTION__.4394>:
    9f88:	72657375 	rsbvc	r7, r5, #-738197503	; 0xd4000001
    9f8c:	7365745f 	cmnvc	r5, #1593835520	; 0x5f000000
    9f90:	00000074 	andeq	r0, r0, r4, ror r0

00009f94 <__FUNCTION__.4409>:
    9f94:	6d746f6e 	ldclvs	15, cr6, [r4, #-440]!	; 0xfffffe48
    9f98:	006e6961 	rsbeq	r6, lr, r1, ror #18

00009f9c <__FUNCTION__.4404>:
    9f9c:	676e6973 			; <UNDEFINED> instruction: 0x676e6973
    9fa0:	735f656c 	cmpvc	pc, #108, 10	; 0x1b000000
    9fa4:	5f706574 	svcpl	0x00706574
    9fa8:	646e6168 	strbtvs	r6, [lr], #-360	; 0x168
    9fac:	0072656c 	rsbseq	r6, r2, ip, ror #10

00009fb0 <__FUNCTION__.4375>:
    9fb0:	65646f6d 	strbvs	r6, [r4, #-3949]!	; 0xf6d
    9fb4:	7465735f 	strbtvc	r7, [r5], #-863	; 0x35f
    9fb8:	00000000 	andeq	r0, r0, r0

00009fbc <__FUNCTION__.4258>:
    9fbc:	73746962 	cmnvc	r4, #1605632	; 0x188000
    9fc0:	726c635f 	rsbvc	r6, ip, #2080374785	; 0x7c000001
    9fc4:	00000000 	andeq	r0, r0, r0

00009fc8 <__FUNCTION__.4387>:
    9fc8:	65646f6d 	strbvs	r6, [r4, #-3949]!	; 0xf6d
    9fcc:	7274735f 	rsbsvc	r7, r4, #2080374785	; 0x7c000001
    9fd0:	00000000 	andeq	r0, r0, r0

00009fd4 <__FUNCTION__.4370>:
    9fd4:	65646f6d 	strbvs	r6, [r4, #-3949]!	; 0xf6d
    9fd8:	7465675f 	strbtvc	r6, [r5], #-1887	; 0x75f
    9fdc:	00000000 	andeq	r0, r0, r0

00009fe0 <__FUNCTION__.4251>:
    9fe0:	73746962 	cmnvc	r4, #1605632	; 0x188000
    9fe4:	7465675f 	strbtvc	r6, [r5], #-1887	; 0x75f
    9fe8:	00000000 	andeq	r0, r0, r0
    9fec:	34317063 	ldrtcc	r7, [r1], #-99	; 0x63
    9ff0:	6265642d 	rsbvs	r6, r5, #754974720	; 0x2d000000
    9ff4:	632e6775 	teqvs	lr, #30670848	; 0x1d40000
    9ff8:	00000000 	andeq	r0, r0, r0
    9ffc:	30726377 	rsbscc	r6, r2, r7, ror r3
    a000:	6765725f 			; <UNDEFINED> instruction: 0x6765725f
    a004:	203d3d20 	eorscs	r3, sp, r0, lsr #26
    a008:	30726377 	rsbscc	r6, r2, r7, ror r3
    a00c:	7465675f 	strbtvc	r6, [r5], #-1887	; 0x75f
    a010:	00002928 	andeq	r2, r0, r8, lsr #18
    a014:	494e4150 	stmdbmi	lr, {r4, r6, r8, lr}^
    a018:	73253a43 	teqvc	r5, #274432	; 0x43000
    a01c:	3a73253a 	bcc	1cd350c <__bss_end__+0x1cc8b44>
    a020:	693a6425 	ldmdbvs	sl!, {r0, r2, r5, sl, sp, lr}
    a024:	736f706d 	cmnvc	pc, #109	; 0x6d
    a028:	6c626973 	stclvs	9, cr6, [r2], #-460	; 0xfffffe34
    a02c:	73203a65 	teqvc	r0, #413696	; 0x65000
    a030:	6c756f68 	ldclvs	15, cr6, [r5], #-416	; 0xfffffe60
    a034:	6e6f2064 	cdpvs	0, 6, cr2, cr15, cr4, {3}
    a038:	6720796c 	strvs	r7, [r0, -ip, ror #18]!
    a03c:	64207465 	strtvs	r7, [r0], #-1125	; 0x465
    a040:	66617461 	strbtvs	r7, [r1], -r1, ror #8
    a044:	746c7561 	strbtvc	r7, [ip], #-1377	; 0x561
    a048:	000a0a73 	andeq	r0, sl, r3, ror sl
    a04c:	34317063 	ldrtcc	r7, [r1], #-99	; 0x63
    a050:	6265642d 	rsbvs	r6, r5, #754974720	; 0x2d000000
    a054:	682e6775 	stmdavs	lr!, {r0, r2, r4, r5, r6, r8, r9, sl, sp, lr}
    a058:	00000000 	andeq	r0, r0, r0
    a05c:	72616677 	rsbvc	r6, r1, #124780544	; 0x7700000
    a060:	7465675f 	strbtvc	r6, [r5], #-1887	; 0x75f
    a064:	342d2928 	strtcc	r2, [sp], #-2344	; 0x928
    a068:	203d3d20 	eorscs	r3, sp, r0, lsr #26
    a06c:	00006370 	andeq	r6, r0, r0, ror r3
    a070:	63746177 	cmnvs	r4, #-1073741795	; 0xc000001d
    a074:	5f747068 	svcpl	0x00747068
    a078:	646e6168 	strbtvs	r6, [lr], #-360	; 0x168
    a07c:	3072656c 	rsbscc	r6, r2, ip, ror #10
    a080:	00000000 	andeq	r0, r0, r0
    a084:	706b7262 	rsbvc	r7, fp, r2, ror #4
    a088:	61685f74 	smcvs	34292	; 0x85f4
    a08c:	656c646e 	strbvs	r6, [ip, #-1134]!	; 0x46e
    a090:	00003072 	andeq	r3, r0, r2, ror r0
    a094:	494e4150 	stmdbmi	lr, {r4, r6, r8, lr}^
    a098:	73253a43 	teqvc	r5, #274432	; 0x43000
    a09c:	3a73253a 	bcc	1cd358c <__bss_end__+0x1cc8bc4>
    a0a0:	723a6425 	eorsvc	r6, sl, #620756992	; 0x25000000
    a0a4:	72757465 	rsbsvc	r7, r5, #1694498816	; 0x65000000
    a0a8:	2064656e 	rsbcs	r6, r4, lr, ror #10
    a0ac:	20646e61 	rsbcs	r6, r4, r1, ror #28
    a0b0:	756f6873 	strbvc	r6, [pc, #-2163]!	; 9845 <undefined_instruction_vector+0x19>
    a0b4:	6e20646c 	cdpvs	4, 2, cr6, cr0, cr12, {3}
    a0b8:	6820746f 	stmdavs	r0!, {r0, r1, r2, r3, r5, r6, sl, ip, sp, lr}
    a0bc:	21657661 	cmncs	r5, r1, ror #12
    a0c0:	00000a0a 	andeq	r0, r0, sl, lsl #20
    a0c4:	75736572 	ldrbvc	r6, [r3, #-1394]!	; 0x572
    a0c8:	203a746c 	eorscs	r7, sl, ip, ror #8
    a0cc:	000a7825 	andeq	r7, sl, r5, lsr #16
    a0d0:	656c6c69 	strbvs	r6, [ip, #-3177]!	; 0xc69
    a0d4:	206c6167 	rsbcs	r6, ip, r7, ror #2
    a0d8:	74737973 	ldrbtvc	r7, [r3], #-2419	; 0x973
    a0dc:	63206d65 	teqvs	r0, #6464	; 0x1940
    a0e0:	206c6c61 	rsbcs	r6, ip, r1, ror #24
    a0e4:	000a6425 	andeq	r6, sl, r5, lsr #8

0000a0e8 <__FUNCTION__.4393>:
    a0e8:	63746177 	cmnvs	r4, #-1073741795	; 0xc000001d
    a0ec:	5f747068 	svcpl	0x00747068
    a0f0:	30746573 	rsbscc	r6, r4, r3, ror r5
    a0f4:	00000000 	andeq	r0, r0, r0

0000a0f8 <__FUNCTION__.4399>:
    a0f8:	61746164 	cmnvs	r4, r4, ror #2
    a0fc:	6f62615f 	svcvs	0x0062615f
    a100:	765f7472 			; <UNDEFINED> instruction: 0x765f7472
    a104:	6f746365 	svcvs	0x00746365
    a108:	00000072 	andeq	r0, r0, r2, ror r0

0000a10c <__FUNCTION__.4306>:
    a10c:	5f736177 	svcpl	0x00736177
    a110:	75626564 	strbvc	r6, [r2, #-1380]!	; 0x564
    a114:	61645f67 	cmnvs	r4, r7, ror #30
    a118:	61666174 	smcvs	26132	; 0x6614
    a11c:	00746c75 	rsbseq	r6, r4, r5, ror ip

0000a120 <__FUNCTION__.4443>:
    a120:	66657270 			; <UNDEFINED> instruction: 0x66657270
    a124:	68637465 	stmdavs	r3!, {r0, r2, r5, r6, sl, ip, sp, lr}^
    a128:	6f62615f 	svcvs	0x0062615f
    a12c:	765f7472 			; <UNDEFINED> instruction: 0x765f7472
    a130:	6f746365 	svcvs	0x00746365
    a134:	00000072 	andeq	r0, r0, r2, ror r0

0000a138 <__FUNCTION__.4451>:
    a138:	5f6b7262 	svcpl	0x006b7262
    a13c:	725f6f6e 	subsvc	r6, pc, #440	; 0x1b8
    a140:	655f7465 	ldrbvs	r7, [pc, #-1125]	; 9ce3 <gpio_read+0x2b>
    a144:	726f7272 	rsbvc	r7, pc, #536870919	; 0x20000007
    a148:	00000000 	andeq	r0, r0, r0
    a14c:	253a7325 	ldrcs	r7, [sl, #-805]!	; 0x325
    a150:	64253a73 	strtvs	r3, [r5], #-2675	; 0xa73
    a154:	6572703a 	ldrbvs	r7, [r2, #-58]!	; 0x3a
    a158:	63746566 	cmnvs	r4, #427819008	; 0x19800000
    a15c:	62612068 	rsbvs	r2, r1, #104	; 0x68
    a160:	2074726f 	rsbscs	r7, r4, pc, ror #4
    a164:	25207461 	strcs	r7, [r0, #-1121]!	; 0x461
    a168:	00000a70 	andeq	r0, r0, r0, ror sl
    a16c:	63656863 	cmnvs	r5, #6488064	; 0x630000
    a170:	6e692d6b 	cdpvs	13, 6, cr2, cr9, cr11, {3}
    a174:	6c726574 	cfldr64vs	mvdx6, [r2], #-464	; 0xfffffe30
    a178:	65766165 	ldrbvs	r6, [r6, #-357]!	; 0x165
    a17c:	0000632e 	andeq	r6, r0, lr, lsr #6
    a180:	756f6261 	strbvc	r6, [pc, #-609]!	; 9f27 <__data_end__+0x22f>
    a184:	6f742074 	svcvs	0x00742074
    a188:	69777320 	ldmdbvs	r7!, {r5, r8, r9, ip, sp, lr}^
    a18c:	20686374 	rsbcs	r6, r8, r4, ror r3
    a190:	6d6f7266 	sfmvs	f7, 2, [pc, #-408]!	; a000 <__FUNCTION__.4251+0x20>
    a194:	20702520 	rsbscs	r2, r0, r0, lsr #10
    a198:	25206f74 	strcs	r6, [r0, #-3956]!	; 0xf74
    a19c:	00000a70 	andeq	r0, r0, r0, ror sl
    a1a0:	656e6f64 	strbvs	r6, [lr, #-3940]!	; 0xf64
    a1a4:	6e757220 	cdpvs	2, 7, cr7, cr5, cr0, {1}
    a1a8:	676e696e 	strbvs	r6, [lr, -lr, ror #18]!
    a1ac:	202c4220 	eorcs	r4, ip, r0, lsr #4
    a1b0:	6e696f67 	cdpvs	15, 6, cr6, cr9, cr7, {3}
    a1b4:	6f742067 	svcvs	0x00742067
    a1b8:	74657220 	strbtvc	r7, [r5], #-544	; 0x220
    a1bc:	206e7275 	rsbcs	r7, lr, r5, ror r2
    a1c0:	41206f74 	teqmi	r0, r4, ror pc
    a1c4:	0000000a 	andeq	r0, r0, sl
    a1c8:	693e2d63 	ldmdbvs	lr!, {r0, r1, r5, r6, r8, sl, fp, sp}
    a1cc:	5f74736e 	svcpl	0x0074736e
    a1d0:	6e756f63 	cdpvs	15, 7, cr6, cr5, cr3, {3}
    a1d4:	203c2074 	eorscs	r2, ip, r4, ror r0
    a1d8:	733e2d63 	teqvc	lr, #6336	; 0x18c0
    a1dc:	63746977 	cmnvs	r4, #1949696	; 0x1dc000
    a1e0:	6e6f5f68 	cdpvs	15, 6, cr5, cr15, cr8, {3}
    a1e4:	736e695f 	cmnvc	lr, #1556480	; 0x17c000
    a1e8:	006e5f74 	rsbeq	r5, lr, r4, ror pc
    a1ec:	253a7325 	ldrcs	r7, [sl, #-805]!	; 0x325
    a1f0:	64253a73 	strtvs	r3, [r5], #-2675	; 0xa73
    a1f4:	6972743a 	ldmdbvs	r2!, {r1, r3, r4, r5, sl, ip, sp, lr}^
    a1f8:	253d6c61 	ldrcs	r6, [sp, #-3169]!	; 0xc61
    a1fc:	61203a64 	teqvs	r0, r4, ror #20
    a200:	74756f62 	ldrbtvc	r6, [r5], #-3938	; 0xf62
    a204:	206f7420 	rsbcs	r7, pc, r0, lsr #8
    a208:	20746573 	rsbscs	r6, r4, r3, ror r5
    a20c:	6d73696d 	ldclvs	9, cr6, [r3, #-436]!	; 0xfffffe4c
    a210:	68637461 	stmdavs	r3!, {r0, r5, r6, sl, ip, sp, lr}^
    a214:	6b726220 	blvs	1ca2a9c <__bss_end__+0x1c980d4>
    a218:	66207470 			; <UNDEFINED> instruction: 0x66207470
    a21c:	4120726f 	teqmi	r0, pc, ror #4
    a220:	0000000a 	andeq	r0, r0, sl
    a224:	4f525245 	svcmi	0x00525245
    a228:	63203a52 	teqvs	r0, #335872	; 0x52000
    a22c:	6b636568 	blvs	18e37d4 <__bss_end__+0x18d8e0c>
    a230:	69616620 	stmdbvs	r1!, {r5, r9, sl, sp, lr}^
    a234:	2064656c 	rsbcs	r6, r4, ip, ror #10
    a238:	6e656877 	mcrvs	8, 3, r6, cr5, cr7, {3}
    a23c:	69777320 	ldmdbvs	r7!, {r5, r8, r9, ip, sp, lr}^
    a240:	65686374 	strbvs	r6, [r8, #-884]!	; 0x374
    a244:	6e6f2064 	cdpvs	0, 6, cr2, cr15, cr4, {3}
    a248:	64646120 	strbtvs	r6, [r4], #-288	; 0x120
    a24c:	73736572 	cmnvc	r3, #478150656	; 0x1c800000
    a250:	2c702520 	cfldr64cs	mvdx2, [r0], #-128	; 0xffffff80
    a254:	74666120 	strbtvc	r6, [r6], #-288	; 0x120
    a258:	25207265 	strcs	r7, [r0, #-613]!	; 0x265
    a25c:	6e692064 	cdpvs	0, 6, cr2, cr9, cr4, {3}
    a260:	75727473 	ldrbvc	r7, [r2, #-1139]!	; 0x473
    a264:	6f697463 	svcvs	0x00697463
    a268:	000a736e 	andeq	r7, sl, lr, ror #6
    a26c:	656e6f64 	strbvs	r6, [lr, #-3940]!	; 0xf64
    a270:	64202021 	strtvs	r2, [r0], #-33	; 0x21
    a274:	63206469 	teqvs	r0, #1761607680	; 0x69000000
    a278:	736e3e2d 	cmnvc	lr, #720	; 0x2d0
    a27c:	63746977 	cmnvs	r4, #1949696	; 0x1dc000
    a280:	3d736568 	cfldr64cc	mvdx6, [r3, #-416]!	; 0xfffffe60
    a284:	202c6425 	eorcs	r6, ip, r5, lsr #8
    a288:	6972746e 	ldmdbvs	r2!, {r1, r2, r3, r5, r6, sl, ip, sp, lr}^
    a28c:	3d736c61 	ldclcc	12, cr6, [r3, #-388]!	; 0xfffffe7c
    a290:	202c6425 	eorcs	r6, ip, r5, lsr #8
    a294:	7272656e 	rsbsvc	r6, r2, #461373440	; 0x1b800000
    a298:	3d73726f 	lfmcc	f7, 2, [r3, #-444]!	; 0xfffffe44
    a29c:	000a6425 	andeq	r6, sl, r5, lsr #8
    a2a0:	72737063 	rsbsvc	r7, r3, #99	; 0x63
    a2a4:	6974752d 	ldmdbvs	r4!, {r0, r2, r3, r5, r8, sl, ip, sp, lr}^
    a2a8:	00682e6c 	rsbeq	r2, r8, ip, ror #28
    a2ac:	65646f6d 	strbvs	r6, [r4, #-3949]!	; 0xf6d
    a2b0:	7465675f 	strbtvc	r6, [r5], #-1887	; 0x75f
    a2b4:	73706328 	cmnvc	r0, #40, 6	; 0xa0000000
    a2b8:	6c6f5f72 	stclvs	15, cr5, [pc], #-456	; a0f8 <__FUNCTION__.4399>
    a2bc:	3d202964 	stccc	9, cr2, [r0, #-400]!	; 0xfffffe70
    a2c0:	6f6d203d 	svcvs	0x006d203d
    a2c4:	675f6564 	ldrbvs	r6, [pc, -r4, ror #10]
    a2c8:	63287465 	teqvs	r8, #1694498816	; 0x65000000
    a2cc:	5f727370 	svcpl	0x00727370
    a2d0:	28746567 	ldmdacs	r4!, {r0, r1, r2, r5, r6, r8, sl, sp, lr}^
    a2d4:	00002929 	andeq	r2, r0, r9, lsr #18
    a2d8:	494e4150 	stmdbmi	lr, {r4, r6, r8, lr}^
    a2dc:	73253a43 	teqvc	r5, #274432	; 0x43000
    a2e0:	3a73253a 	bcc	1cd37d0 <__bss_end__+0x1cc8e08>
    a2e4:	633a6425 	teqvs	sl, #620756992	; 0x25000000
    a2e8:	6b636568 	blvs	18e3890 <__bss_end__+0x18d8ec8>
    a2ec:	69616620 	stmdbvs	r1!, {r5, r9, sl, sp, lr}^
    a2f0:	2064656c 	rsbcs	r6, r4, ip, ror #10
    a2f4:	75716573 	ldrbvc	r6, [r1, #-1395]!	; 0x573
    a2f8:	69746e65 	ldmdbvs	r4!, {r0, r2, r5, r6, r9, sl, fp, sp, lr}^
    a2fc:	796c6c61 	stmdbvc	ip!, {r0, r5, r6, sl, fp, sp, lr}^
    a300:	6f63203a 	svcvs	0x0063203a
    a304:	69206564 	stmdbvs	r0!, {r2, r5, r6, r8, sl, sp, lr}
    a308:	72622073 	rsbvc	r2, r2, #115	; 0x73
    a30c:	6e656b6f 	vnmulvs.f64	d22, d5, d31
    a310:	00000a0a 	andeq	r0, r0, sl, lsl #20

0000a314 <__FUNCTION__.4431>:
    a314:	63656863 	cmnvs	r5, #6488064	; 0x630000
    a318:	65735f6b 	ldrbvs	r5, [r3, #-3947]!	; 0xf6b
    a31c:	6e657571 	mcrvs	5, 3, r7, cr5, cr1, {3}
    a320:	6c616974 	stclvs	9, cr6, [r1], #-464	; 0xfffffe30
    a324:	00000000 	andeq	r0, r0, r0

0000a328 <__FUNCTION__.4423>:
    a328:	63656863 	cmnvs	r5, #6488064	; 0x630000
    a32c:	6e6f5f6b 	cdpvs	15, 6, cr5, cr15, cr11, {3}
    a330:	73635f65 	cmnvc	r3, #404	; 0x194
    a334:	63746977 	cmnvs	r4, #1949696	; 0x1dc000
    a338:	00000068 	andeq	r0, r0, r8, rrx

0000a33c <__FUNCTION__.4416>:
    a33c:	676e6973 			; <UNDEFINED> instruction: 0x676e6973
    a340:	735f656c 	cmpvc	pc, #108, 10	; 0x1b000000
    a344:	5f706574 	svcpl	0x00706574
    a348:	646e6168 	strbtvs	r6, [lr], #-360	; 0x168
    a34c:	0072656c 	rsbseq	r6, r2, ip, ror #10

0000a350 <__FUNCTION__.4396>:
    a350:	65646f6d 	strbvs	r6, [r4, #-3949]!	; 0xf6d
    a354:	7465735f 	strbtvc	r7, [r5], #-863	; 0x35f
    a358:	00000000 	andeq	r0, r0, r0

0000a35c <__FUNCTION__.4258>:
    a35c:	73746962 	cmnvc	r4, #1605632	; 0x188000
    a360:	726c635f 	rsbvc	r6, ip, #2080374785	; 0x7c000001
    a364:	00000000 	andeq	r0, r0, r0

0000a368 <__FUNCTION__.4408>:
    a368:	65646f6d 	strbvs	r6, [r4, #-3949]!	; 0xf6d
    a36c:	7274735f 	rsbsvc	r7, r4, #2080374785	; 0x7c000001
    a370:	00000000 	andeq	r0, r0, r0

0000a374 <__FUNCTION__.4391>:
    a374:	65646f6d 	strbvs	r6, [r4, #-3949]!	; 0xf6d
    a378:	7465675f 	strbtvc	r6, [r5], #-1887	; 0x75f
    a37c:	00000000 	andeq	r0, r0, r0

0000a380 <__FUNCTION__.4251>:
    a380:	73746962 	cmnvc	r4, #1605632	; 0x188000
    a384:	7465675f 	strbtvc	r6, [r5], #-1887	; 0x75f
    a388:	00000000 	andeq	r0, r0, r0

0000a38c <__FUNCTION__.4249>:
    a38c:	74696d65 	strbtvc	r6, [r9], #-3429	; 0xd65
    a390:	00000000 	andeq	r0, r0, r0

0000a394 <__FUNCTION__.4197>:
    a394:	5f697072 	svcpl	0x00697072
    a398:	5f746573 	svcpl	0x00746573
    a39c:	7074756f 	rsbsvc	r7, r4, pc, ror #10
    a3a0:	00007475 	andeq	r7, r0, r5, ror r4

0000a3a4 <__FUNCTION__.4272>:
    a3a4:	705f6176 	subsvc	r6, pc, r6, ror r1	; <UNPREDICTABLE>
    a3a8:	746e6972 	strbtvc	r6, [lr], #-2418	; 0x972
    a3ac:	0000006b 	andeq	r0, r0, fp, rrx
    a3b0:	6362696c 	cmnvs	r2, #108, 18	; 0x1b0000
    a3b4:	2d61762f 	stclcs	6, cr7, [r1, #-188]!	; 0xffffff44
    a3b8:	6e697270 	mcrvs	2, 3, r7, cr9, cr0, {3}
    a3bc:	632e6b74 	teqvs	lr, #116, 22	; 0x1d000
    a3c0:	00000000 	andeq	r0, r0, r0
    a3c4:	00000030 	andeq	r0, r0, r0, lsr r0
    a3c8:	33323130 	teqcc	r2, #48, 2
    a3cc:	37363534 			; <UNDEFINED> instruction: 0x37363534
    a3d0:	00003938 	andeq	r3, r0, r8, lsr r9
    a3d4:	33323130 	teqcc	r2, #48, 2
    a3d8:	37363534 			; <UNDEFINED> instruction: 0x37363534
    a3dc:	62613938 	rsbvs	r3, r1, #56, 18	; 0xe0000
    a3e0:	66656463 	strbtvs	r6, [r5], -r3, ror #8
    a3e4:	00000000 	andeq	r0, r0, r0
    a3e8:	00003130 	andeq	r3, r0, r0, lsr r1
    a3ec:	63747570 	cmnvs	r4, #112, 10	; 0x1c000000
    a3f0:	0070665f 	rsbseq	r6, r0, pc, asr r6
    a3f4:	74646977 	strbtvc	r6, [r4], #-2423	; 0x977
    a3f8:	203c2068 	eorscs	r2, ip, r8, rrx
    a3fc:	00003233 	andeq	r3, r0, r3, lsr r2
    a400:	494e4150 	stmdbmi	lr, {r4, r6, r8, lr}^
    a404:	73253a43 	teqvc	r5, #274432	; 0x43000
    a408:	3a73253a 	bcc	1cd38f8 <__bss_end__+0x1cc8f30>
    a40c:	663a6425 	ldrtvs	r6, [sl], -r5, lsr #8
    a410:	74616f6c 	strbtvc	r6, [r1], #-3948	; 0xf6c
    a414:	746f6e20 	strbtvc	r6, [pc], #-3616	; a41c <__FUNCTION__.4272+0x78>
    a418:	616e6520 	cmnvs	lr, r0, lsr #10
    a41c:	64656c62 	strbtvs	r6, [r5], #-3170	; 0xc62
    a420:	0a212121 	beq	8528ac <__bss_end__+0x847ee4>
    a424:	00000000 	andeq	r0, r0, r0
    a428:	6e697270 	mcrvs	2, 3, r7, cr9, cr0, {3}
    a42c:	203a6b74 	eorscs	r6, sl, r4, ror fp
    a430:	20746f6e 	rsbscs	r6, r4, lr, ror #30
    a434:	646e6168 	strbtvs	r6, [lr], #-360	; 0x168
    a438:	676e696c 	strbvs	r6, [lr, -ip, ror #18]!
    a43c:	65707320 	ldrbvs	r7, [r0, #-800]!	; 0x320
    a440:	69666963 	stmdbvs	r6!, {r0, r1, r5, r6, r8, fp, sp, lr}^
    a444:	27207265 	strcs	r7, [r0, -r5, ror #4]!
    a448:	20276325 	eorcs	r6, r7, r5, lsr #6
    a44c:	63736128 	cmnvs	r3, #40, 2
    a450:	253d6969 	ldrcs	r6, [sp, #-2409]!	; 0x969
    a454:	000a2964 	andeq	r2, sl, r4, ror #18
    a458:	494e4150 	stmdbmi	lr, {r4, r6, r8, lr}^
    a45c:	73253a43 	teqvc	r5, #274432	; 0x43000
    a460:	3a73253a 	bcc	1cd3950 <__bss_end__+0x1cc8f88>
    a464:	703a6425 	eorsvc	r6, sl, r5, lsr #8
    a468:	746e6972 	strbtvc	r6, [lr], #-2418	; 0x972
    a46c:	7265206b 	rsbvc	r2, r5, #107	; 0x6b
    a470:	0a726f72 	beq	1ca6240 <__bss_end__+0x1c9b878>
    a474:	0000000a 	andeq	r0, r0, sl
    a478:	454e4f44 	strbmi	r4, [lr, #-3908]	; 0xf44
    a47c:	0a212121 	beq	852908 <__bss_end__+0x847f40>
    a480:	00000000 	andeq	r0, r0, r0

0000a484 <__FUNCTION__.4220>:
    a484:	74736166 	ldrbtvc	r6, [r3], #-358	; 0x166
    a488:	746e695f 	strbtvc	r6, [lr], #-2399	; 0x95f
    a48c:	75727265 	ldrbvc	r7, [r2, #-613]!	; 0x265
    a490:	765f7470 			; <UNDEFINED> instruction: 0x765f7470
    a494:	6f746365 	svcvs	0x00746365
    a498:	00000072 	andeq	r0, r0, r2, ror r0
    a49c:	494e4150 	stmdbmi	lr, {r4, r6, r8, lr}^
    a4a0:	73253a43 	teqvc	r5, #274432	; 0x43000
    a4a4:	3a73253a 	bcc	1cd3994 <__bss_end__+0x1cc8fcc>
    a4a8:	453a6425 	ldrmi	r6, [sl, #-1061]!	; 0x425
    a4ac:	524f5252 	subpl	r5, pc, #536870917	; 0x20000005
    a4b0:	6e75203a 	mrcvs	0, 3, r2, cr5, cr10, {1}
    a4b4:	646e6168 	strbtvs	r6, [lr], #-360	; 0x168
    a4b8:	2064656c 	rsbcs	r6, r4, ip, ror #10
    a4bc:	65637865 	strbvs	r7, [r3, #-2149]!	; 0x865
    a4c0:	6f697470 	svcvs	0x00697470
    a4c4:	253c206e 	ldrcs	r2, [ip, #-110]!	; 0x6e
    a4c8:	61203e73 	teqvs	r0, r3, ror lr
    a4cc:	43502074 	cmpmi	r0, #116	; 0x74
    a4d0:	0a78253d 	beq	1e139cc <__bss_end__+0x1e09004>
    a4d4:	0000000a 	andeq	r0, r0, sl
    a4d8:	66617473 			; <UNDEFINED> instruction: 0x66617473
    a4dc:	72732d66 	rsbsvc	r2, r3, #6528	; 0x1980
    a4e0:	65642f63 	strbvs	r2, [r4, #-3939]!	; 0xf63
    a4e4:	6c756166 	ldfvse	f6, [r5], #-408	; 0xfffffe68
    a4e8:	61682d74 	smcvs	33492	; 0x82d4
    a4ec:	656c646e 	strbvs	r6, [ip, #-1134]!	; 0x46e
    a4f0:	61662d72 	smcvs	25298	; 0x62d2
    a4f4:	632e7473 	teqvs	lr, #1929379840	; 0x73000000
    a4f8:	00000000 	andeq	r0, r0, r0
    a4fc:	74736166 	ldrbtvc	r6, [r3], #-358	; 0x166
    a500:	00000000 	andeq	r0, r0, r0

0000a504 <__FUNCTION__.4220>:
    a504:	65736572 	ldrbvs	r6, [r3, #-1394]!	; 0x572
    a508:	65765f74 	ldrbvs	r5, [r6, #-3956]!	; 0xf74
    a50c:	726f7463 	rsbvc	r7, pc, #1660944384	; 0x63000000
    a510:	00000000 	andeq	r0, r0, r0
    a514:	66617473 			; <UNDEFINED> instruction: 0x66617473
    a518:	72732d66 	rsbsvc	r2, r3, #6528	; 0x1980
    a51c:	65642f63 	strbvs	r2, [r4, #-3939]!	; 0xf63
    a520:	6c756166 	ldfvse	f6, [r5], #-408	; 0xfffffe68
    a524:	61682d74 	smcvs	33492	; 0x82d4
    a528:	656c646e 	strbvs	r6, [ip, #-1134]!	; 0x46e
    a52c:	65722d72 	ldrbvs	r2, [r2, #-3442]!	; 0xd72
    a530:	2e746573 	mrccs	5, 3, r6, cr4, cr3, {3}
    a534:	00000063 	andeq	r0, r0, r3, rrx
    a538:	65736572 	ldrbvs	r6, [r3, #-1394]!	; 0x572
    a53c:	00000074 	andeq	r0, r0, r4, ror r0

0000a540 <__FUNCTION__.4220>:
    a540:	65646e75 	strbvs	r6, [r4, #-3701]!	; 0xe75
    a544:	656e6966 	strbvs	r6, [lr, #-2406]!	; 0x966
    a548:	6e695f64 	cdpvs	15, 6, cr5, cr9, cr4, {3}
    a54c:	75727473 	ldrbvc	r7, [r2, #-1139]!	; 0x473
    a550:	6f697463 	svcvs	0x00697463
    a554:	65765f6e 	ldrbvs	r5, [r6, #-3950]!	; 0xf6e
    a558:	726f7463 	rsbvc	r7, pc, #1660944384	; 0x63000000
    a55c:	00000000 	andeq	r0, r0, r0
    a560:	66617473 			; <UNDEFINED> instruction: 0x66617473
    a564:	72732d66 	rsbsvc	r2, r3, #6528	; 0x1980
    a568:	65642f63 	strbvs	r2, [r4, #-3939]!	; 0xf63
    a56c:	6c756166 	ldfvse	f6, [r5], #-408	; 0xfffffe68
    a570:	61682d74 	smcvs	33492	; 0x82d4
    a574:	656c646e 	strbvs	r6, [ip, #-1134]!	; 0x46e
    a578:	6e752d72 	mrcvs	13, 3, r2, cr5, cr2, {3}
    a57c:	69666564 	stmdbvs	r6!, {r2, r5, r6, r8, sl, sp, lr}^
    a580:	2d64656e 	cfstr64cs	mvdx6, [r4, #-440]!	; 0xfffffe48
    a584:	74736e69 	ldrbtvc	r6, [r3], #-3689	; 0xe69
    a588:	0000632e 	andeq	r6, r0, lr, lsr #6
    a58c:	65646e75 	strbvs	r6, [r4, #-3701]!	; 0xe75
    a590:	656e6966 	strbvs	r6, [lr, #-2406]!	; 0x966
    a594:	6e692064 	cdpvs	0, 6, cr2, cr9, cr4, {3}
    a598:	00007473 	andeq	r7, r0, r3, ror r4

Disassembly of section .bss:

0000a59c <__bss_start__>:
    a59c:	00000000 	andeq	r0, r0, r0

0000a5a0 <cnt>:
    a5a0:	00000000 	andeq	r0, r0, r0

0000a5a4 <expected_handle>:
    a5a4:	00000000 	andeq	r0, r0, r0

0000a5a8 <watchpt_handler0>:
    a5a8:	00000000 	andeq	r0, r0, r0

0000a5ac <brkpt_handler0>:
    a5ac:	00000000 	andeq	r0, r0, r0

0000a5b0 <brk_verbose_p>:
    a5b0:	00000000 	andeq	r0, r0, r0

0000a5b4 <nfaults.4398>:
    a5b4:	00000000 	andeq	r0, r0, r0

0000a5b8 <init_p.4404>:
    a5b8:	00000000 	andeq	r0, r0, r0

0000a5bc <checker>:
    a5bc:	00000000 	andeq	r0, r0, r0

0000a5c0 <expected_handle>:
    a5c0:	00000000 	andeq	r0, r0, r0

0000a5c4 <buf.4189>:
	...

Disassembly of section .ARM.attributes:

00000000 <.ARM.attributes>:
   0:	00002a41 	andeq	r2, r0, r1, asr #20
   4:	61656100 	cmnvs	r5, r0, lsl #2
   8:	01006962 	tsteq	r0, r2, ror #18
   c:	00000020 	andeq	r0, r0, r0, lsr #32
  10:	4b5a3605 	blmi	168d82c <__bss_end__+0x1682e64>
  14:	08070600 	stmdaeq	r7, {r9, sl}
  18:	12010901 	andne	r0, r1, #16384	; 0x4000
  1c:	15011404 	strne	r1, [r1, #-1028]	; 0x404
  20:	18031701 	stmdane	r3, {r0, r8, r9, sl, ip}
  24:	22011a01 	andcs	r1, r1, #4096	; 0x1000
  28:	Address 0x0000000000000028 is out of bounds.


Disassembly of section .comment:

00000000 <.comment>:
   0:	3a434347 	bcc	10d0d24 <__bss_end__+0x10c635c>
   4:	4e472820 	cdpmi	8, 4, cr2, cr7, cr0, {1}
   8:	34202955 	strtcc	r2, [r0], #-2389	; 0x955
   c:	332e382e 	teqcc	lr, #3014656	; 0x2e0000
  10:	43434700 	movtmi	r4, #14080	; 0x3700
  14:	3128203a 	teqcc	r8, sl, lsr r0
  18:	2e363a35 	mrccs	10, 1, r3, cr6, cr5, {1}
  1c:	2b312e33 	blcs	c4b8f0 <__bss_end__+0xc40f28>
  20:	326e7673 	rsbcc	r7, lr, #120586240	; 0x7300000
  24:	33303335 	teqcc	r0, #-738197504	; 0xd4000000
  28:	62312d39 	eorsvs	r2, r1, #3648	; 0xe40
  2c:	646c6975 	strbtvs	r6, [ip], #-2421	; 0x975
  30:	36202931 			; <UNDEFINED> instruction: 0x36202931
  34:	312e332e 	teqcc	lr, lr, lsr #6
  38:	31303220 	teqcc	r0, r0, lsr #4
  3c:	32363037 	eorscc	r3, r6, #55	; 0x37
  40:	Address 0x0000000000000040 is out of bounds.


Disassembly of section .debug_info:

00000000 <.debug_info>:
       0:	00000af0 	strdeq	r0, [r0], -r0	; <UNPREDICTABLE>
       4:	00000004 	andeq	r0, r0, r4
       8:	01040000 	mrseq	r0, (UNDEF: 4)
       c:	0000014b 	andeq	r0, r0, fp, asr #2
      10:	00021b01 	andeq	r1, r2, r1, lsl #22
      14:	00006400 	andeq	r6, r0, r0, lsl #8
      18:	00802000 	addeq	r2, r0, r0
      1c:	0004fc00 	andeq	pc, r4, r0, lsl #24
      20:	00000000 	andeq	r0, r0, r0
      24:	05040200 	streq	r0, [r4, #-512]	; 0x200
      28:	00746e69 	rsbseq	r6, r4, r9, ror #28
      2c:	c2070403 	andgt	r0, r7, #50331648	; 0x3000000
      30:	03000001 	movweq	r0, #1
      34:	00e50601 	rsceq	r0, r5, r1, lsl #12
      38:	02030000 	andeq	r0, r3, #0
      3c:	00023705 	andeq	r3, r2, r5, lsl #14
      40:	05040300 	streq	r0, [r4, #-768]	; 0x300
      44:	00000200 	andeq	r0, r0, r0, lsl #4
      48:	fb050803 	blx	14205e <__bss_end__+0x137696>
      4c:	03000001 	movweq	r0, #1
      50:	00e30801 	rsceq	r0, r3, r1, lsl #16
      54:	02030000 	andeq	r0, r3, #0
      58:	00004c07 	andeq	r4, r0, r7, lsl #24
      5c:	01170400 	tsteq	r7, r0, lsl #8
      60:	34060000 	strcc	r0, [r6], #-0
      64:	00000068 	andeq	r0, r0, r8, rrx
      68:	bd070403 	cfstrslt	mvf0, [r7, #-12]
      6c:	03000001 	movweq	r0, #1
      70:	01b80708 			; <UNDEFINED> instruction: 0x01b80708
      74:	04030000 	streq	r0, [r3], #-0
      78:	0001de07 	andeq	sp, r1, r7, lsl #28
      7c:	03040500 	movweq	r0, #17664	; 0x4500
      80:	00ec0801 	rsceq	r0, ip, r1, lsl #16
      84:	04060000 	streq	r0, [r6], #-0
      88:	0000008c 	andeq	r0, r0, ip, lsl #1
      8c:	00007f07 	andeq	r7, r0, r7, lsl #30
      90:	007f0800 	rsbseq	r0, pc, r0, lsl #16
      94:	00a10000 	adceq	r0, r1, r0
      98:	76090000 	strvc	r0, [r9], -r0
      9c:	07000000 	streq	r0, [r0, -r0]
      a0:	01d40400 	bicseq	r0, r4, r0, lsl #8
      a4:	8a040000 	bhi	1000ac <__bss_end__+0xf56e4>
      a8:	000000ac 	andeq	r0, r0, ip, lsr #1
      ac:	00b20406 	adcseq	r0, r2, r6, lsl #8
      b0:	c70a0000 	strgt	r0, [sl, -r0]
      b4:	0b000000 	bleq	bc <__code_start__-0x7f44>
      b8:	000000c7 	andeq	r0, r0, r7, asr #1
      bc:	00005d0b 	andeq	r5, r0, fp, lsl #26
      c0:	005d0b00 	subseq	r0, sp, r0, lsl #22
      c4:	06000000 	streq	r0, [r0], -r0
      c8:	00005d04 	andeq	r5, r0, r4, lsl #26
      cc:	02410c00 	subeq	r0, r1, #0, 24
      d0:	a6040000 	strge	r0, [r4], -r0
      d4:	0000005d 	andeq	r0, r0, sp, asr r0
      d8:	0000e903 	andeq	lr, r0, r3, lsl #18
      dc:	65720d00 	ldrbvs	r0, [r2, #-3328]!	; 0xd00
      e0:	a6040074 			; <UNDEFINED> instruction: 0xa6040074
      e4:	0000005d 	andeq	r0, r0, sp, asr r0
      e8:	024a0c00 	subeq	r0, sl, #0, 24
      ec:	07010000 	streq	r0, [r1, -r0]
      f0:	00000025 	andeq	r0, r0, r5, lsr #32
      f4:	00010503 	andeq	r0, r1, r3, lsl #10
      f8:	01cf0e00 	biceq	r0, pc, r0, lsl #28
      fc:	07010000 	streq	r0, [r1, -r0]
     100:	0000002c 	andeq	r0, r0, ip, lsr #32
     104:	02550c00 	subseq	r0, r5, #0, 24
     108:	a9040000 	stmdbge	r4, {}	; <UNPREDICTABLE>
     10c:	0000002c 	andeq	r0, r0, ip, lsr #32
     110:	00011f03 	andeq	r1, r1, r3, lsl #30
     114:	00720d00 	rsbseq	r0, r2, r0, lsl #26
     118:	002caa04 	eoreq	sl, ip, r4, lsl #20
     11c:	0f000000 	svceq	0x00000000
     120:	000000c5 	andeq	r0, r0, r5, asr #1
     124:	3703c304 	strcc	ip, [r3, -r4, lsl #6]
     128:	0e000001 	cdpeq	0, 0, cr0, cr0, cr1, {0}
     12c:	0000005f 	andeq	r0, r0, pc, asr r0
     130:	0025c304 	eoreq	ip, r5, r4, lsl #6
     134:	0c000000 	stceq	0, cr0, [r0], {-0}
     138:	00000275 	andeq	r0, r0, r5, ror r2
     13c:	005d2605 	subseq	r2, sp, r5, lsl #12
     140:	53030000 	movwpl	r0, #12288	; 0x3000
     144:	10000001 	andne	r0, r0, r1
     148:	00000026 	andeq	r0, r0, r6, lsr #32
     14c:	005d2705 	subseq	r2, sp, r5, lsl #14
     150:	0c000000 	stceq	0, cr0, [r0], {-0}
     154:	00000000 	andeq	r0, r0, r0
     158:	005d0f01 	subseq	r0, sp, r1, lsl #30
     15c:	87030000 	strhi	r0, [r3, -r0]
     160:	0e000001 	cdpeq	0, 0, cr0, cr0, cr1, {0}
     164:	00000026 	andeq	r0, r0, r6, lsr #32
     168:	005d0f01 	subseq	r0, sp, r1, lsl #30
     16c:	cf100000 	svcgt	0x00100000
     170:	01000001 	tsteq	r0, r1
     174:	00002c10 	andeq	r2, r0, r0, lsl ip
     178:	012a1100 	teqeq	sl, r0, lsl #2
     17c:	01970000 	orrseq	r0, r7, r0
     180:	00000000 	andeq	r0, r0, r0
     184:	08000000 	stmdaeq	r0, {}	; <UNPREDICTABLE>
     188:	0000007f 	andeq	r0, r0, pc, ror r0
     18c:	00000197 	muleq	r0, r7, r1
     190:	00007609 	andeq	r7, r0, r9, lsl #12
     194:	07000800 	streq	r0, [r0, -r0, lsl #16]
     198:	00000187 	andeq	r0, r0, r7, lsl #3
     19c:	00001d0c 	andeq	r1, r0, ip, lsl #26
     1a0:	5d1c0200 	lfmpl	f0, 4, [ip, #-0]
     1a4:	03000000 	movweq	r0, #0
     1a8:	000001e0 	andeq	r0, r0, r0, ror #3
     1ac:	02007812 	andeq	r7, r0, #1179648	; 0x120000
     1b0:	00005d1c 	andeq	r5, r0, ip, lsl sp
     1b4:	626c1200 	rsbvs	r1, ip, #0, 4
     1b8:	2c1c0200 	lfmcs	f0, 4, [ip], {-0}
     1bc:	12000000 	andne	r0, r0, #0
     1c0:	02006275 	andeq	r6, r0, #1342177287	; 0x50000007
     1c4:	00002c1c 	andeq	r2, r0, ip, lsl ip
     1c8:	012a1100 	teqeq	sl, r0, lsl #2
     1cc:	01e00000 	mvneq	r0, r0
     1d0:	001d0000 	andseq	r0, sp, r0
     1d4:	6e0d0000 	cdpvs	0, 0, cr0, cr13, cr0, {0}
     1d8:	2c1f0200 	lfmcs	f0, 4, [pc], {-0}
     1dc:	00000000 	andeq	r0, r0, r0
     1e0:	00018707 	andeq	r8, r1, r7, lsl #14
     1e4:	002b1300 	eoreq	r1, fp, r0, lsl #6
     1e8:	18010000 	stmdane	r1, {}	; <UNPREDICTABLE>
     1ec:	00000086 	andeq	r0, r0, r6, lsl #1
     1f0:	00008020 	andeq	r8, r0, r0, lsr #32
     1f4:	00000158 	andeq	r0, r0, r8, asr r1
     1f8:	03439c01 	movteq	r9, #15361	; 0x3c01
     1fc:	26140000 	ldrcs	r0, [r4], -r0
     200:	01000000 	mrseq	r0, (UNDEF: 0)
     204:	00005d18 	andeq	r5, r0, r8, lsl sp
     208:	00000000 	andeq	r0, r0, r0
     20c:	012a1500 	teqeq	sl, r0, lsl #10
     210:	03430000 	movteq	r0, #12288	; 0x3000
     214:	03050000 	movweq	r0, #20480	; 0x5000
     218:	00009fc8 	andeq	r9, r0, r8, asr #31
     21c:	00015316 	andeq	r5, r1, r6, lsl r3
     220:	00802c00 	addeq	r2, r0, r0, lsl #24
     224:	00006c00 	andeq	r6, r0, r0, lsl #24
     228:	fa190100 	blx	640630 <__bss_end__+0x635c68>
     22c:	17000002 	strne	r0, [r0, -r2]
     230:	00000163 	andeq	r0, r0, r3, ror #2
     234:	000000dc 	ldrdeq	r0, [r0], -ip
     238:	00802c18 	addeq	r2, r0, r8, lsl ip
     23c:	00006c00 	andeq	r6, r0, r0, lsl #24
     240:	016e1900 	cmneq	lr, r0, lsl #18
     244:	791a0000 	ldmdbvc	sl, {}	; <UNPREDICTABLE>
     248:	05000001 	streq	r0, [r0, #-1]
     24c:	009fd403 	addseq	sp, pc, r3, lsl #8
     250:	019c1600 	orrseq	r1, ip, r0, lsl #12
     254:	802c0000 	eorhi	r0, ip, r0
     258:	00040000 	andeq	r0, r4, r0
     25c:	10010000 	andne	r0, r1, r0
     260:	00000295 	muleq	r0, r5, r2
     264:	0001bf1b 	andeq	fp, r1, fp, lsl pc
     268:	b51b0400 	ldrlt	r0, [fp, #-1024]	; 0x400
     26c:	00000001 	andeq	r0, r0, r1
     270:	0001ac17 	andeq	sl, r1, r7, lsl ip
     274:	0000dc00 	andeq	sp, r0, r0, lsl #24
     278:	802c1800 	eorhi	r1, ip, r0, lsl #16
     27c:	00040000 	andeq	r0, r4, r0
     280:	d61c0000 	ldrle	r0, [ip], -r0
     284:	05000001 	streq	r0, [r0, #-1]
     288:	0001c91a 	andeq	ip, r1, sl, lsl r9
     28c:	e0030500 	and	r0, r3, r0, lsl #10
     290:	0000009f 	muleq	r0, pc, r0	; <UNPREDICTABLE>
     294:	00e91600 	rsceq	r1, r9, r0, lsl #12
     298:	80300000 	eorshi	r0, r0, r0
     29c:	003c0000 	eorseq	r0, ip, r0
     2a0:	11010000 	mrsne	r0, (UNDEF: 1)
     2a4:	000002ae 	andeq	r0, r0, lr, lsr #5
     2a8:	0000f91d 	andeq	pc, r0, sp, lsl r9	; <UNPREDICTABLE>
     2ac:	781e0000 	ldmdavc	lr, {}	; <UNPREDICTABLE>
     2b0:	72000080 	andvc	r0, r0, #128	; 0x80
     2b4:	1f00000a 	svcne	0x0000000a
     2b8:	00008094 	muleq	r0, r4, r0
     2bc:	00000a79 	andeq	r0, r0, r9, ror sl
     2c0:	000002ef 	andeq	r0, r0, pc, ror #5
     2c4:	01530120 	cmpeq	r3, r0, lsr #2
     2c8:	52012041 	andpl	r2, r1, #65	; 0x41
     2cc:	9fd40305 	svcls	0x00d40305
     2d0:	01200000 	teqeq	r0, r0
     2d4:	60030551 	andvs	r0, r3, r1, asr r5
     2d8:	2000009d 	mulcs	r0, sp, r0
     2dc:	03055001 	movweq	r5, #20481	; 0x5001
     2e0:	00009d4c 	andeq	r9, r0, ip, asr #26
     2e4:	007d0220 	rsbseq	r0, sp, r0, lsr #4
     2e8:	9d700305 	ldclls	3, cr0, [r0, #-20]!	; 0xffffffec
     2ec:	1e000000 	cdpne	0, 0, cr0, cr0, cr0, {0}
     2f0:	00008098 	muleq	r0, r8, r0
     2f4:	00000a8f 	andeq	r0, r0, pc, lsl #21
     2f8:	141e0000 	ldrne	r0, [lr], #-0
     2fc:	72000081 	andvc	r0, r0, #129	; 0x81
     300:	1f00000a 	svcne	0x0000000a
     304:	0000812c 	andeq	r8, r0, ip, lsr #2
     308:	00000a79 	andeq	r0, r0, r9, ror sl
     30c:	00000339 	andeq	r0, r0, r9, lsr r3
     310:	02530120 	subseq	r0, r3, #32, 2
     314:	01202108 	teqeq	r0, r8, lsl #2
     318:	c8030552 	stmdagt	r3, {r1, r4, r6, r8, sl}
     31c:	2000009f 	mulcs	r0, pc, r0	; <UNPREDICTABLE>
     320:	03055101 	movweq	r5, #20737	; 0x5101
     324:	00009d60 	andeq	r9, r0, r0, ror #26
     328:	05500120 	ldrbeq	r0, [r0, #-288]	; 0x120
     32c:	009d8403 	addseq	r8, sp, r3, lsl #8
     330:	7d022000 	stcvc	0, cr2, [r2, #-0]
     334:	00740200 	rsbseq	r0, r4, r0, lsl #4
     338:	81301e00 	teqhi	r0, r0, lsl #28
     33c:	0a8f0000 	beq	fe3c0344 <__bss_end__+0xfe3b597c>
     340:	07000000 	streq	r0, [r0, -r0]
     344:	00000187 	andeq	r0, r0, r7, lsl #3
     348:	00012021 	andeq	r2, r1, r1, lsr #32
     34c:	780e0300 	stmdavc	lr, {r8, r9}
     350:	98000081 	stmdals	r0, {r0, r7}
     354:	01000000 	mrseq	r0, (UNDEF: 0)
     358:	0003dd9c 	muleq	r3, ip, sp
     35c:	01071400 	tsteq	r7, r0, lsl #8
     360:	0e030000 	cdpeq	0, 0, cr0, cr3, cr0, {0}
     364:	0000007d 	andeq	r0, r0, sp, ror r0
     368:	000001b8 			; <UNDEFINED> instruction: 0x000001b8
     36c:	00012a15 	andeq	r2, r1, r5, lsl sl
     370:	0003ed00 	andeq	lr, r3, r0, lsl #26
     374:	88030500 	stmdahi	r3, {r8, sl}
     378:	2200009f 	andcs	r0, r0, #159	; 0x9f
     37c:	00000000 	andeq	r0, r0, r0
     380:	00000392 	muleq	r0, r2, r3
     384:	03006923 	movweq	r6, #2339	; 0x923
     388:	00002510 	andeq	r2, r0, r0, lsl r5
     38c:	0001f200 	andeq	pc, r1, r0, lsl #4
     390:	941e0000 	ldrls	r0, [lr], #-0
     394:	72000081 	andvc	r0, r0, #129	; 0x81
     398:	1f00000a 	svcne	0x0000000a
     39c:	000081b0 			; <UNDEFINED> instruction: 0x000081b0
     3a0:	00000a79 	andeq	r0, r0, r9, ror sl
     3a4:	000003d3 	ldrdeq	r0, [r0], -r3
     3a8:	01530120 	cmpeq	r3, r0, lsr #2
     3ac:	5201203f 	andpl	r2, r1, #63	; 0x3f
     3b0:	9f880305 	svcls	0x00880305
     3b4:	01200000 	teqeq	r0, r0
     3b8:	a8030551 	stmdage	r3, {r0, r4, r6, r8, sl}
     3bc:	2000009d 	mulcs	r0, sp, r0
     3c0:	03055001 	movweq	r5, #20481	; 0x5001
     3c4:	00009d4c 	andeq	r9, r0, ip, asr #26
     3c8:	007d0220 	rsbseq	r0, sp, r0, lsr #4
     3cc:	9dc00305 	stclls	3, cr0, [r0, #20]
     3d0:	1e000000 	cdpne	0, 0, cr0, cr0, cr0, {0}
     3d4:	000081b4 			; <UNDEFINED> instruction: 0x000081b4
     3d8:	00000a8f 	andeq	r0, r0, pc, lsl #21
     3dc:	007f0800 	rsbseq	r0, pc, r0, lsl #16
     3e0:	03ed0000 	mvneq	r0, #0
     3e4:	76090000 	strvc	r0, [r9], -r0
     3e8:	09000000 	stmdbeq	r0, {}	; <UNPREDICTABLE>
     3ec:	03dd0700 	bicseq	r0, sp, #0, 14
     3f0:	37240000 	strcc	r0, [r4, -r0]!
     3f4:	03000001 	movweq	r0, #1
     3f8:	00821017 	addeq	r1, r2, r7, lsl r0
     3fc:	00016c00 	andeq	r6, r1, r0, lsl #24
     400:	029c0100 	addseq	r0, ip, #0, 2
     404:	14000006 	strne	r0, [r0], #-6
     408:	00000232 	andeq	r0, r0, r2, lsr r2
     40c:	00c71703 	sbceq	r1, r7, r3, lsl #14
     410:	02100000 	andseq	r0, r0, #0
     414:	70250000 	eorvc	r0, r5, r0
     418:	17030063 	strne	r0, [r3, -r3, rrx]
     41c:	0000005d 	andeq	r0, r0, sp, asr r0
     420:	00000231 	andeq	r0, r0, r1, lsr r2
     424:	00043414 	andeq	r3, r4, r4, lsl r4
     428:	5d170300 	ldcpl	3, cr0, [r7, #-0]
     42c:	5d000000 	stcpl	0, cr0, [r0, #-0]
     430:	15000002 	strne	r0, [r0, #-2]
     434:	0000012a 	andeq	r0, r0, sl, lsr #2
     438:	00000612 	andeq	r0, r0, r2, lsl r6
     43c:	9f9c0305 	svcls	0x009c0305
     440:	05160000 	ldreq	r0, [r6, #-0]
     444:	4c000001 	stcmi	0, cr0, [r0], {1}
     448:	08000082 	stmdaeq	r0, {r1, r7}
     44c:	03000000 	movweq	r0, #0
     450:	0004881a 	andeq	r8, r4, sl, lsl r8
     454:	824c1800 	subhi	r1, ip, #0, 16
     458:	00080000 	andeq	r0, r8, r0
     45c:	15190000 	ldrne	r0, [r9, #-0]
     460:	26000001 	strcs	r0, [r0], -r1
     464:	000000cd 	andeq	r0, r0, sp, asr #1
     468:	0000824c 	andeq	r8, r0, ip, asr #4
     46c:	00000004 	andeq	r0, r0, r4
     470:	4c18aa04 	ldcmi	10, cr10, [r8], {4}
     474:	04000082 	streq	r0, [r0], #-130	; 0x82
     478:	27000000 	strcs	r0, [r0, -r0]
     47c:	000000dd 	ldrdeq	r0, [r0], -sp
     480:	0000027e 	andeq	r0, r0, lr, ror r2
     484:	00000000 	andeq	r0, r0, r0
     488:	00824c1f 	addeq	r4, r2, pc, lsl ip
     48c:	000a7900 	andeq	r7, sl, r0, lsl #18
     490:	0004c700 	andeq	ip, r4, r0, lsl #14
     494:	53012000 	movwpl	r2, #4096	; 0x1000
     498:	01204801 	teqeq	r0, r1, lsl #16
     49c:	9c030552 	cfstr32ls	mvfx0, [r3], {82}	; 0x52
     4a0:	2000009f 	mulcs	r0, pc, r0	; <UNPREDICTABLE>
     4a4:	03055101 	movweq	r5, #20737	; 0x5101
     4a8:	00009da8 	andeq	r9, r0, r8, lsr #27
     4ac:	05500120 	ldrbeq	r0, [r0, #-288]	; 0x120
     4b0:	009ddc03 	addseq	sp, sp, r3, lsl #24
     4b4:	7d022000 	stcvc	0, cr2, [r2, #-0]
     4b8:	78030504 	stmdavc	r3, {r2, r8, sl}
     4bc:	20000081 	andcs	r0, r0, r1, lsl #1
     4c0:	02007d02 	andeq	r7, r0, #2, 26	; 0x80
     4c4:	1e000074 	mcrne	0, 0, r0, cr0, cr4, {3}
     4c8:	00008260 	andeq	r8, r0, r0, ror #4
     4cc:	00000a72 	andeq	r0, r0, r2, ror sl
     4d0:	0082741f 	addeq	r7, r2, pc, lsl r4
     4d4:	000a7900 	andeq	r7, sl, r0, lsl #18
     4d8:	0004fe00 	andeq	pc, r4, r0, lsl #28
     4dc:	53012000 	movwpl	r2, #4096	; 0x1000
     4e0:	01204b01 	teqeq	r0, r1, lsl #22
     4e4:	9c030552 	cfstr32ls	mvfx0, [r3], {82}	; 0x52
     4e8:	2000009f 	mulcs	r0, pc, r0	; <UNPREDICTABLE>
     4ec:	03055101 	movweq	r5, #20737	; 0x5101
     4f0:	00009da8 	andeq	r9, r0, r8, lsr #27
     4f4:	05500120 	ldrbeq	r0, [r0, #-288]	; 0x120
     4f8:	009e0c03 	addseq	r0, lr, r3, lsl #24
     4fc:	781e0000 	ldmdavc	lr, {}	; <UNPREDICTABLE>
     500:	8f000082 	svchi	0x00000082
     504:	1e00000a 	cdpne	0, 0, cr0, cr0, cr10, {0}
     508:	000082a0 	andeq	r8, r0, r0, lsr #5
     50c:	00000a72 	andeq	r0, r0, r2, ror sl
     510:	0082bc1f 	addeq	fp, r2, pc, lsl ip
     514:	000a7900 	andeq	r7, sl, r0, lsl #18
     518:	00054800 	andeq	r4, r5, r0, lsl #16
     51c:	53012000 	movwpl	r2, #4096	; 0x1000
     520:	01204e01 	teqeq	r0, r1, lsl #28
     524:	9c030552 	cfstr32ls	mvfx0, [r3], {82}	; 0x52
     528:	2000009f 	mulcs	r0, pc, r0	; <UNPREDICTABLE>
     52c:	03055101 	movweq	r5, #20737	; 0x5101
     530:	00009da8 	andeq	r9, r0, r8, lsr #27
     534:	05500120 	ldrbeq	r0, [r0, #-288]	; 0x120
     538:	009d4c03 	addseq	r4, sp, r3, lsl #24
     53c:	7d022000 	stcvc	0, cr2, [r2, #-0]
     540:	44030500 	strmi	r0, [r3], #-1280	; 0x500
     544:	0000009e 	muleq	r0, lr, r0
     548:	0082c01e 	addeq	ip, r2, lr, lsl r0
     54c:	000a8f00 	andeq	r8, sl, r0, lsl #30
     550:	82d01f00 	sbcshi	r1, r0, #0, 30
     554:	0a790000 	beq	1e4055c <__bss_end__+0x1e35b94>
     558:	05680000 	strbeq	r0, [r8, #-0]!
     55c:	01200000 	teqeq	r0, r0
     560:	50030550 	andpl	r0, r3, r0, asr r5
     564:	0000009e 	muleq	r0, lr, r0
     568:	0082d81f 	addeq	sp, r2, pc, lsl r8
     56c:	000a9600 	andeq	r9, sl, r0, lsl #12
     570:	00057c00 	andeq	r7, r5, r0, lsl #24
     574:	50012000 	andpl	r2, r1, r0
     578:	00007402 	andeq	r7, r0, r2, lsl #8
     57c:	0083041f 	addeq	r0, r3, pc, lsl r4
     580:	000a7900 	andeq	r7, sl, r0, lsl #18
     584:	0005b200 	andeq	fp, r5, r0, lsl #4
     588:	53012000 	movwpl	r2, #4096	; 0x1000
     58c:	20220802 	eorcs	r0, r2, r2, lsl #16
     590:	03055201 	movweq	r5, #20993	; 0x5201
     594:	00009f9c 	muleq	r0, ip, pc	; <UNPREDICTABLE>
     598:	05510120 	ldrbeq	r0, [r1, #-288]	; 0x120
     59c:	009da803 	addseq	sl, sp, r3, lsl #16
     5a0:	50012000 	andpl	r2, r1, r0
     5a4:	9e700305 	cdpls	3, 7, cr0, cr0, cr5, {0}
     5a8:	02200000 	eoreq	r0, r0, #0
     5ac:	7402007d 	strvc	r0, [r2], #-125	; 0x7d
     5b0:	101f0000 	andsne	r0, pc, r0
     5b4:	a7000083 	strge	r0, [r0, -r3, lsl #1]
     5b8:	cf00000a 	svcgt	0x0000000a
     5bc:	20000005 	andcs	r0, r0, r5
     5c0:	03055101 	movweq	r5, #20737	; 0x5101
     5c4:	00008210 	andeq	r8, r0, r0, lsl r2
     5c8:	02500120 	subseq	r0, r0, #32, 2
     5cc:	28000074 	stmdacs	r0, {r2, r4, r5, r6}
     5d0:	00008338 	andeq	r8, r0, r8, lsr r3
     5d4:	00000a79 	andeq	r0, r0, r9, ror sl
     5d8:	02530120 	subseq	r0, r3, #32, 2
     5dc:	01202408 	teqeq	r0, r8, lsl #8
     5e0:	9c030552 	cfstr32ls	mvfx0, [r3], {82}	; 0x52
     5e4:	2000009f 	mulcs	r0, pc, r0	; <UNPREDICTABLE>
     5e8:	03055101 	movweq	r5, #20737	; 0x5101
     5ec:	00009da8 	andeq	r9, r0, r8, lsr #27
     5f0:	05500120 	ldrbeq	r0, [r0, #-288]	; 0x120
     5f4:	009e9803 	addseq	r9, lr, r3, lsl #16
     5f8:	7d022000 	stcvc	0, cr2, [r2, #-0]
     5fc:	00740200 	rsbseq	r0, r4, r0, lsl #4
     600:	7f080000 	svcvc	0x00080000
     604:	12000000 	andne	r0, r0, #0
     608:	09000006 	stmdbeq	r0, {r1, r2}
     60c:	00000076 	andeq	r0, r0, r6, ror r0
     610:	02070013 	andeq	r0, r7, #19
     614:	0c000006 	stceq	0, cr0, [r0], {6}
     618:	000000d1 	ldrdeq	r0, [r0], -r1
     61c:	005d1401 	subseq	r1, sp, r1, lsl #8
     620:	4b030000 	blmi	c0628 <__bss_end__+0xb5c60>
     624:	0e000006 	cdpeq	0, 0, cr0, cr0, cr6, {0}
     628:	00000026 	andeq	r0, r0, r6, lsr #32
     62c:	005d1401 	subseq	r1, sp, r1, lsl #8
     630:	cf0e0000 	svcgt	0x000e0000
     634:	01000001 	tsteq	r0, r1
     638:	00002c14 	andeq	r2, r0, r4, lsl ip
     63c:	012a1100 	teqeq	sl, r0, lsl #2
     640:	064b0000 	strbeq	r0, [fp], -r0
     644:	00d10000 	sbcseq	r0, r1, r0
     648:	07000000 	streq	r0, [r0, -r0]
     64c:	00000187 	andeq	r0, r0, r7, lsl #3
     650:	00010e0c 	andeq	r0, r1, ip, lsl #28
     654:	5d250200 	sfmpl	f0, 4, [r5, #-0]
     658:	03000000 	movweq	r0, #0
     65c:	0000069f 	muleq	r0, pc, r6	; <UNPREDICTABLE>
     660:	02007812 	andeq	r7, r0, #1179648	; 0x120000
     664:	00005d25 	andeq	r5, r0, r5, lsr #26
     668:	626c1200 	rsbvs	r1, ip, #0, 4
     66c:	2c250200 	sfmcs	f0, 4, [r5], #-0
     670:	12000000 	andne	r0, r0, #0
     674:	02006275 	andeq	r6, r0, #1342177287	; 0x50000007
     678:	00002c25 	andeq	r2, r0, r5, lsr #24
     67c:	012a1100 	teqeq	sl, r0, lsl #2
     680:	069f0000 	ldreq	r0, [pc], r0
     684:	010e0000 	mrseq	r0, (UNDEF: 14)
     688:	6e0d0000 	cdpvs	0, 0, cr0, cr13, cr0, {0}
     68c:	2c280200 	sfmcs	f0, 4, [r8], #-0
     690:	10000000 	andne	r0, r0, r0
     694:	00000216 	andeq	r0, r0, r6, lsl r2
     698:	002c2a02 	eoreq	r2, ip, r2, lsl #20
     69c:	07000000 	streq	r0, [r0, -r0]
     6a0:	00000187 	andeq	r0, r0, r7, lsl #3
     6a4:	0000bd21 	andeq	fp, r0, r1, lsr #26
     6a8:	7c280300 	stcvc	3, cr0, [r8], #-0
     6ac:	a0000083 	andge	r0, r0, r3, lsl #1
     6b0:	01000001 	tsteq	r0, r1
     6b4:	000a2a9c 	muleq	sl, ip, sl
     6b8:	00da1000 	sbcseq	r1, sl, r0
     6bc:	30030000 	andcc	r0, r3, r0
     6c0:	0000005d 	andeq	r0, r0, sp, asr r0
     6c4:	00012a15 	andeq	r2, r1, r5, lsl sl
     6c8:	000a2a00 	andeq	r2, sl, r0, lsl #20
     6cc:	94030500 	strls	r0, [r3], #-1280	; 0x500
     6d0:	1600009f 			; <UNDEFINED> instruction: 0x1600009f
     6d4:	0000011f 	andeq	r0, r0, pc, lsl r1
     6d8:	0000838c 	andeq	r8, r0, ip, lsl #7
     6dc:	0000000c 	andeq	r0, r0, ip
     6e0:	06ed2e03 	strbteq	r2, [sp], r3, lsl #28
     6e4:	2b1b0000 	blcs	6c06ec <__bss_end__+0x6b5d24>
     6e8:	01000001 	tsteq	r0, r1
     6ec:	01371600 	teqeq	r7, r0, lsl #12
     6f0:	83980000 	orrshi	r0, r8, #0
     6f4:	00040000 	andeq	r0, r4, r0
     6f8:	30030000 	andcc	r0, r3, r0
     6fc:	00000714 	andeq	r0, r0, r4, lsl r7
     700:	00839818 	addeq	r9, r3, r8, lsl r8
     704:	00000400 	andeq	r0, r0, r0, lsl #8
     708:	01472700 	cmpeq	r7, r0, lsl #14
     70c:	02910000 	addseq	r0, r1, #0
     710:	00000000 	andeq	r0, r0, r0
     714:	00011f16 	andeq	r1, r1, r6, lsl pc
     718:	00840400 	addeq	r0, r4, r0, lsl #8
     71c:	00000c00 	andeq	r0, r0, r0, lsl #24
     720:	2e390300 	cdpcs	3, 3, cr0, cr9, cr0, {0}
     724:	1b000007 	blne	748 <__code_start__-0x78b8>
     728:	0000012b 	andeq	r0, r0, fp, lsr #2
     72c:	17160000 	ldrne	r0, [r6, -r0]
     730:	18000006 	stmdane	r0, {r1, r2}
     734:	04000084 	streq	r0, [r0], #-132	; 0x84
     738:	03000000 	movweq	r0, #0
     73c:	0007ac3b 	andeq	sl, r7, fp, lsr ip
     740:	06321b00 	ldrteq	r1, [r2], -r0, lsl #22
     744:	17100000 	ldrne	r0, [r0, -r0]
     748:	00000627 	andeq	r0, r0, r7, lsr #12
     74c:	000002a4 	andeq	r0, r0, r4, lsr #5
     750:	00841818 	addeq	r1, r4, r8, lsl r8
     754:	00000400 	andeq	r0, r0, r0, lsl #8
     758:	063d1a00 	ldrteq	r1, [sp], -r0, lsl #20
     75c:	03050000 	movweq	r0, #20480	; 0x5000
     760:	00009fb0 			; <UNDEFINED> instruction: 0x00009fb0
     764:	00065026 	andeq	r5, r6, r6, lsr #32
     768:	00841800 	addeq	r1, r4, r0, lsl #16
     76c:	00000400 	andeq	r0, r0, r0, lsl #8
     770:	1b160100 	blne	580b78 <__bss_end__+0x5761b0>
     774:	00000673 	andeq	r0, r0, r3, ror r6
     778:	06691b04 	strbteq	r1, [r9], -r4, lsl #22
     77c:	17000000 	strne	r0, [r0, -r0]
     780:	00000660 	andeq	r0, r0, r0, ror #12
     784:	000002a4 	andeq	r0, r0, r4, lsr #5
     788:	00841818 	addeq	r1, r4, r8, lsl r8
     78c:	00000400 	andeq	r0, r0, r0, lsl #8
     790:	068a1c00 	streq	r1, [sl], r0, lsl #24
     794:	1c050000 	stcne	0, cr0, [r5], {-0}
     798:	00000693 	muleq	r0, r3, r6
     79c:	067d1a1f 			; <UNDEFINED> instruction: 0x067d1a1f
     7a0:	03050000 	movweq	r0, #20480	; 0x5000
     7a4:	00009fbc 			; <UNDEFINED> instruction: 0x00009fbc
     7a8:	00000000 	andeq	r0, r0, r0
     7ac:	00013716 	andeq	r3, r1, r6, lsl r7
     7b0:	00844000 	addeq	r4, r4, r0
     7b4:	00000400 	andeq	r0, r0, r0, lsl #8
     7b8:	cf3f0300 	svcgt	0x003f0300
     7bc:	18000007 	stmdane	r0, {r0, r1, r2}
     7c0:	00008440 	andeq	r8, r0, r0, asr #8
     7c4:	00000004 	andeq	r0, r0, r4
     7c8:	00014719 	andeq	r4, r1, r9, lsl r7
     7cc:	16000000 	strne	r0, [r0], -r0
     7d0:	00000137 	andeq	r0, r0, r7, lsr r1
     7d4:	00008444 	andeq	r8, r0, r4, asr #8
     7d8:	00000004 	andeq	r0, r0, r4
     7dc:	07f64003 	ldrbeq	r4, [r6, r3]!
     7e0:	44180000 	ldrmi	r0, [r8], #-0
     7e4:	04000084 	streq	r0, [r0], #-132	; 0x84
     7e8:	27000000 	strcs	r0, [r0, -r0]
     7ec:	00000147 	andeq	r0, r0, r7, asr #2
     7f0:	000002b7 			; <UNDEFINED> instruction: 0x000002b7
     7f4:	37160000 	ldrcc	r0, [r6, -r0]
     7f8:	5c000001 	stcpl	0, cr0, [r0], {1}
     7fc:	04000084 	streq	r0, [r0], #-132	; 0x84
     800:	03000000 	movweq	r0, #0
     804:	00081d42 	andeq	r1, r8, r2, asr #26
     808:	845c1800 	ldrbhi	r1, [ip], #-2048	; 0x800
     80c:	00040000 	andeq	r0, r4, r0
     810:	47270000 	strmi	r0, [r7, -r0]!
     814:	ca000001 	bgt	820 <__code_start__-0x77e0>
     818:	00000002 	andeq	r0, r0, r2
     81c:	83881e00 	orrhi	r1, r8, #0, 28
     820:	0abd0000 	beq	fef40828 <__bss_end__+0xfef35e60>
     824:	8c1e0000 	ldchi	0, cr0, [lr], {-0}
     828:	c4000083 	strgt	r0, [r0], #-131	; 0x83
     82c:	1f00000a 	svcne	0x0000000a
     830:	000083a4 	andeq	r8, r0, r4, lsr #7
     834:	000001e5 	andeq	r0, r0, r5, ror #3
     838:	00000843 	andeq	r0, r0, r3, asr #16
     83c:	02500120 	subseq	r0, r0, #32, 2
     840:	1f000074 	svcne	0x00000074
     844:	000083b4 			; <UNDEFINED> instruction: 0x000083b4
     848:	00000a79 	andeq	r0, r0, r9, ror sl
     84c:	00000860 	andeq	r0, r0, r0, ror #16
     850:	02520120 	subseq	r0, r2, #32, 2
     854:	01200074 	teqeq	r0, r4, ror r0
     858:	c4030550 	strgt	r0, [r3], #-1360	; 0x550
     85c:	0000009e 	muleq	r0, lr, r0
     860:	0083d41f 	addeq	sp, r3, pc, lsl r4
     864:	000a7900 	andeq	r7, sl, r0, lsl #18
     868:	00088f00 	andeq	r8, r8, r0, lsl #30
     86c:	53012000 	movwpl	r2, #4096	; 0x1000
     870:	20340802 	eorscs	r0, r4, r2, lsl #16
     874:	03055201 	movweq	r5, #20993	; 0x5201
     878:	00009f94 	muleq	r0, r4, pc	; <UNPREDICTABLE>
     87c:	05510120 	ldrbeq	r0, [r1, #-288]	; 0x120
     880:	009da803 	addseq	sl, sp, r3, lsl #16
     884:	50012000 	andpl	r2, r1, r0
     888:	9edc0305 	cdpls	3, 13, cr0, cr12, cr5, {0}
     88c:	1f000000 	svcne	0x00000000
     890:	000083e0 	andeq	r8, r0, r0, ror #7
     894:	00000aa7 	andeq	r0, r0, r7, lsr #21
     898:	000008ab 	andeq	r0, r0, fp, lsr #17
     89c:	05510120 	ldrbeq	r0, [r1, #-288]	; 0x120
     8a0:	00821003 	addeq	r1, r2, r3
     8a4:	50012000 	andpl	r2, r1, r0
     8a8:	1f003001 	svcne	0x00003001
     8ac:	00008404 	andeq	r8, r0, r4, lsl #8
     8b0:	00000a79 	andeq	r0, r0, r9, ror sl
     8b4:	000008da 	ldrdeq	r0, [r0], -sl
     8b8:	02530120 	subseq	r0, r3, #32, 2
     8bc:	01203608 	teqeq	r0, r8, lsl #12
     8c0:	94030552 	strls	r0, [r3], #-1362	; 0x552
     8c4:	2000009f 	mulcs	r0, pc, r0	; <UNPREDICTABLE>
     8c8:	03055101 	movweq	r5, #20737	; 0x5101
     8cc:	00009da8 	andeq	r9, r0, r8, lsr #27
     8d0:	05500120 	ldrbeq	r0, [r0, #-288]	; 0x120
     8d4:	009f0403 	addseq	r0, pc, r3, lsl #8
     8d8:	281f0000 	ldmdacs	pc, {}	; <UNPREDICTABLE>
     8dc:	cb000084 	blgt	af4 <__code_start__-0x750c>
     8e0:	0500000a 	streq	r0, [r0, #-10]
     8e4:	20000009 	andcs	r0, r0, r9
     8e8:	03055201 	movweq	r5, #20993	; 0x5201
     8ec:	0000a5a4 	andeq	sl, r0, r4, lsr #11
     8f0:	05510120 	ldrbeq	r0, [r1, #-288]	; 0x120
     8f4:	00817803 	addeq	r7, r1, r3, lsl #16
     8f8:	50012000 	andpl	r2, r1, r0
     8fc:	09007407 	stmdbeq	r0, {r0, r1, r2, sl, ip, sp, lr}
     900:	21401ae0 	smlalttcs	r1, r0, r0, sl
     904:	84301f00 	ldrthi	r1, [r0], #-3840	; 0xf00
     908:	01e50000 	mvneq	r0, r0
     90c:	09190000 	ldmdbeq	r9, {}	; <UNPREDICTABLE>
     910:	01200000 	teqeq	r0, r0
     914:	00740250 	rsbseq	r0, r4, r0, asr r2
     918:	84401f00 	strbhi	r1, [r0], #-3840	; 0xf00
     91c:	0a790000 	beq	1e40924 <__bss_end__+0x1e35f5c>
     920:	09360000 	ldmdbeq	r6!, {}	; <UNPREDICTABLE>
     924:	01200000 	teqeq	r0, r0
     928:	00740252 	rsbseq	r0, r4, r2, asr r2
     92c:	05500120 	ldrbeq	r0, [r0, #-288]	; 0x120
     930:	009f2403 	addseq	r2, pc, r3, lsl #8
     934:	4c1e0000 	ldcmi	0, cr0, [lr], {-0}
     938:	e5000084 	str	r0, [r0, #-132]	; 0x84
     93c:	1f000001 	svcne	0x00000001
     940:	0000845c 	andeq	r8, r0, ip, asr r4
     944:	00000a79 	andeq	r0, r0, r9, ror sl
     948:	0000095c 	andeq	r0, r0, ip, asr r9
     94c:	02520120 	subseq	r0, r2, #32, 2
     950:	01200074 	teqeq	r0, r4, ror r0
     954:	c4030550 	strgt	r0, [r3], #-1360	; 0x550
     958:	0000009e 	muleq	r0, lr, r0
     95c:	00846c1e 	addeq	r6, r4, lr, lsl ip
     960:	000a7200 	andeq	r7, sl, r0, lsl #4
     964:	84881f00 	strhi	r1, [r8], #3840	; 0xf00
     968:	0a790000 	beq	1e40970 <__bss_end__+0x1e35fa8>
     96c:	099e0000 	ldmibeq	lr, {}	; <UNPREDICTABLE>
     970:	01200000 	teqeq	r0, r0
     974:	42080253 	andmi	r0, r8, #805306373	; 0x30000005
     978:	05520120 	ldrbeq	r0, [r2, #-288]	; 0x120
     97c:	009f9403 	addseq	r9, pc, r3, lsl #8
     980:	51012000 	mrspl	r2, (UNDEF: 1)
     984:	9da80305 	stcls	3, cr0, [r8, #20]!
     988:	01200000 	teqeq	r0, r0
     98c:	4c030550 	cfstr32mi	mvfx0, [r3], {80}	; 0x50
     990:	2000009d 	mulcs	r0, sp, r0
     994:	05007d02 	streq	r7, [r0, #-3330]	; 0xd02
     998:	009f4003 	addseq	r4, pc, r3
     99c:	8c1e0000 	ldchi	0, cr0, [lr], {-0}
     9a0:	8f000084 	svchi	0x00000084
     9a4:	1e00000a 	cdpne	0, 0, cr0, cr0, cr10, {0}
     9a8:	000084a4 	andeq	r8, r0, r4, lsr #9
     9ac:	00000a72 	andeq	r0, r0, r2, ror sl
     9b0:	0084c01f 	addeq	ip, r4, pc, lsl r0
     9b4:	000a7900 	andeq	r7, sl, r0, lsl #18
     9b8:	0009e900 	andeq	lr, r9, r0, lsl #18
     9bc:	53012000 	movwpl	r2, #4096	; 0x1000
     9c0:	20430802 	subcs	r0, r3, r2, lsl #16
     9c4:	03055201 	movweq	r5, #20993	; 0x5201
     9c8:	00009f94 	muleq	r0, r4, pc	; <UNPREDICTABLE>
     9cc:	05510120 	ldrbeq	r0, [r1, #-288]	; 0x120
     9d0:	009da803 	addseq	sl, sp, r3, lsl #16
     9d4:	50012000 	andpl	r2, r1, r0
     9d8:	9d4c0305 	stclls	3, cr0, [ip, #-20]	; 0xffffffec
     9dc:	02200000 	eoreq	r0, r0, #0
     9e0:	0305007d 	movweq	r0, #20605	; 0x507d
     9e4:	00009e44 	andeq	r9, r0, r4, asr #28
     9e8:	84c41e00 	strbhi	r1, [r4], #3584	; 0xe00
     9ec:	0a8f0000 	beq	fe3c09f4 <__bss_end__+0xfe3b602c>
     9f0:	cc1f0000 	ldcgt	0, cr0, [pc], {-0}
     9f4:	79000084 	stmdbvc	r0, {r2, r7}
     9f8:	0900000a 	stmdbeq	r0, {r1, r3}
     9fc:	2000000a 	andcs	r0, r0, sl
     a00:	03055001 	movweq	r5, #20481	; 0x5001
     a04:	00009f58 	andeq	r9, r0, r8, asr pc
     a08:	84d41f00 	ldrbhi	r1, [r4], #3840	; 0xf00
     a0c:	0a790000 	beq	1e40a14 <__bss_end__+0x1e3604c>
     a10:	0a200000 	beq	800a18 <__bss_end__+0x7f6050>
     a14:	01200000 	teqeq	r0, r0
     a18:	64030550 	strvs	r0, [r3], #-1360	; 0x550
     a1c:	0000009f 	muleq	r0, pc, r0	; <UNPREDICTABLE>
     a20:	0084d81e 	addeq	sp, r4, lr, lsl r8
     a24:	000a8f00 	andeq	r8, sl, r0, lsl #30
     a28:	91070000 	mrsls	r0, (UNDEF: 7)
     a2c:	29000000 	stmdbcs	r0, {}	; <UNPREDICTABLE>
     a30:	0000029b 	muleq	r0, fp, r2
     a34:	0a400803 	beq	1002a48 <__bss_end__+0xff8080>
     a38:	03050000 	movweq	r0, #20480	; 0x5000
     a3c:	0000a59c 	muleq	r0, ip, r5
     a40:	0000252a 	andeq	r2, r0, sl, lsr #10
     a44:	6e632b00 	vmulvs.f64	d18, d3, d0
     a48:	08030074 	stmdaeq	r3, {r2, r4, r5, r6}
     a4c:	00000a40 	andeq	r0, r0, r0, asr #20
     a50:	a5a00305 	strge	r0, [r0, #773]!	; 0x305
     a54:	fe290000 	cdp2	0, 2, cr0, cr9, cr0, {0}
     a58:	03000000 	movweq	r0, #0
     a5c:	00007d0a 	andeq	r7, r0, sl, lsl #26
     a60:	a4030500 	strge	r0, [r3], #-1280	; 0x500
     a64:	2c0000a5 	stccs	0, cr0, [r0], {165}	; 0xa5
     a68:	0000028d 	andeq	r0, r0, sp, lsl #5
     a6c:	0025c204 	eoreq	ip, r5, r4, lsl #4
     a70:	7e2d0000 	cdpvc	0, 2, cr0, cr13, cr0, {0}
     a74:	07000002 	streq	r0, [r0, -r2]
     a78:	05632e1e 	strbeq	r2, [r3, #-3614]!	; 0xe1e
     a7c:	29070000 	stmdbcs	r7, {}	; <UNPREDICTABLE>
     a80:	00000025 	andeq	r0, r0, r5, lsr #32
     a84:	00000a8f 	andeq	r0, r0, pc, lsl #21
     a88:	0000860b 	andeq	r8, r0, fp, lsl #12
     a8c:	2d002f00 	stccs	15, cr2, [r0, #-0]
     a90:	000000f1 	strdeq	r0, [r0], -r1
     a94:	34306507 	ldrtcc	r6, [r0], #-1287	; 0x507
     a98:	04000000 	streq	r0, [r0], #-0
     a9c:	000aa7e3 	andeq	sl, sl, r3, ror #15
     aa0:	005d0b00 	subseq	r0, sp, r0, lsl #22
     aa4:	30000000 	andcc	r0, r0, r0
     aa8:	00000009 	andeq	r0, r0, r9
     aac:	0abdd904 	beq	fef76ec4 <__bss_end__+0xfef6c4fc>
     ab0:	5d0b0000 	stcpl	0, cr0, [fp, #-0]
     ab4:	0b000000 	bleq	abc <__code_start__-0x7544>
     ab8:	000000a1 	andeq	r0, r0, r1, lsr #1
     abc:	02692d00 	rsbeq	r2, r9, #0, 26
     ac0:	90040000 	andls	r0, r4, r0
     ac4:	0002092d 	andeq	r0, r2, sp, lsr #18
     ac8:	308d0700 	addcc	r0, sp, r0, lsl #14
     acc:	000001e7 	andeq	r0, r0, r7, ror #3
     ad0:	0ae6f304 	beq	ff9bd6e8 <__bss_end__+0xff9b2d20>
     ad4:	5d0b0000 	stcpl	0, cr0, [fp, #-0]
     ad8:	0b000000 	bleq	ae0 <__code_start__-0x7520>
     adc:	00000ae6 	andeq	r0, r0, r6, ror #21
     ae0:	00007d0b 	andeq	r7, r0, fp, lsl #26
     ae4:	04060000 	streq	r0, [r6], #-0
     ae8:	00000aec 	andeq	r0, r0, ip, ror #21
     aec:	007d0b31 	rsbseq	r0, sp, r1, lsr fp
     af0:	00000000 	andeq	r0, r0, r0
     af4:	00000bee 	andeq	r0, r0, lr, ror #23
     af8:	02720004 	rsbseq	r0, r2, #4
     afc:	01040000 	mrseq	r0, (UNDEF: 4)
     b00:	0000014b 	andeq	r0, r0, fp, asr #2
     b04:	0002dc01 	andeq	sp, r2, r1, lsl #24
     b08:	00006400 	andeq	r6, r0, r0, lsl #8
     b0c:	00851c00 	addeq	r1, r5, r0, lsl #24
     b10:	00035400 	andeq	r5, r3, r0, lsl #8
     b14:	00021d00 	andeq	r1, r2, r0, lsl #26
     b18:	05040200 	streq	r0, [r4, #-512]	; 0x200
     b1c:	00746e69 	rsbseq	r6, r4, r9, ror #28
     b20:	c2070403 	andgt	r0, r7, #50331648	; 0x3000000
     b24:	03000001 	movweq	r0, #1
     b28:	00e50601 	rsceq	r0, r5, r1, lsl #12
     b2c:	02030000 	andeq	r0, r3, #0
     b30:	00023705 	andeq	r3, r2, r5, lsl #14
     b34:	05040300 	streq	r0, [r4, #-768]	; 0x300
     b38:	00000200 	andeq	r0, r0, r0, lsl #4
     b3c:	fb050803 	blx	142b52 <__bss_end__+0x13818a>
     b40:	03000001 	movweq	r0, #1
     b44:	00e30801 	rsceq	r0, r3, r1, lsl #16
     b48:	02030000 	andeq	r0, r3, #0
     b4c:	00004c07 	andeq	r4, r0, r7, lsl #24
     b50:	01170400 	tsteq	r7, r0, lsl #8
     b54:	34030000 	strcc	r0, [r3], #-0
     b58:	00000068 	andeq	r0, r0, r8, rrx
     b5c:	bd070403 	cfstrslt	mvf0, [r7, #-12]
     b60:	03000001 	movweq	r0, #1
     b64:	01b80708 			; <UNDEFINED> instruction: 0x01b80708
     b68:	04030000 	streq	r0, [r3], #-0
     b6c:	0001de07 	andeq	sp, r1, r7, lsl #28
     b70:	03040500 	movweq	r0, #17664	; 0x4500
     b74:	00ec0801 	rsceq	r0, ip, r1, lsl #16
     b78:	04060000 	streq	r0, [r6], #-0
     b7c:	0000008c 	andeq	r0, r0, ip, lsl #1
     b80:	00007f07 	andeq	r7, r0, r7, lsl #30
     b84:	01d40400 	bicseq	r0, r4, r0, lsl #8
     b88:	8a020000 	bhi	80b90 <__bss_end__+0x761c8>
     b8c:	0000009c 	muleq	r0, ip, r0
     b90:	00a20406 	adceq	r0, r2, r6, lsl #8
     b94:	b7080000 	strlt	r0, [r8, -r0]
     b98:	09000000 	stmdbeq	r0, {}	; <UNPREDICTABLE>
     b9c:	000000b7 	strheq	r0, [r0], -r7
     ba0:	00005d09 	andeq	r5, r0, r9, lsl #26
     ba4:	005d0900 	subseq	r0, sp, r0, lsl #18
     ba8:	06000000 	streq	r0, [r0], -r0
     bac:	00005d04 	andeq	r5, r0, r4, lsl #26
     bb0:	03cb0a00 	biceq	r0, fp, #0, 20
     bb4:	5f020000 	svcpl	0x00020000
     bb8:	0000005d 	andeq	r0, r0, sp, asr r0
     bbc:	0000d903 	andeq	sp, r0, r3, lsl #18
     bc0:	65720b00 	ldrbvs	r0, [r2, #-2816]!	; 0xb00
     bc4:	5f020074 	svcpl	0x00020074
     bc8:	0000005d 	andeq	r0, r0, sp, asr r0
     bcc:	02410a00 	subeq	r0, r1, #0, 20
     bd0:	a6020000 	strge	r0, [r2], -r0
     bd4:	0000005d 	andeq	r0, r0, sp, asr r0
     bd8:	0000f503 	andeq	pc, r0, r3, lsl #10
     bdc:	65720b00 	ldrbvs	r0, [r2, #-2816]!	; 0xb00
     be0:	a6020074 			; <UNDEFINED> instruction: 0xa6020074
     be4:	0000005d 	andeq	r0, r0, sp, asr r0
     be8:	03a90a00 			; <UNDEFINED> instruction: 0x03a90a00
     bec:	70020000 	andvc	r0, r2, r0
     bf0:	0000002c 	andeq	r0, r0, ip, lsr #32
     bf4:	00010f03 	andeq	r0, r1, r3, lsl #30
     bf8:	00720c00 	rsbseq	r0, r2, r0, lsl #24
     bfc:	005d7002 	subseq	r7, sp, r2
     c00:	0a000000 	beq	c08 <__code_start__-0x73f8>
     c04:	000002fb 	strdeq	r0, [r0], -fp
     c08:	005d1801 	subseq	r1, sp, r1, lsl #16
     c0c:	2b030000 	blcs	c0c14 <__bss_end__+0xb624c>
     c10:	0b000001 	bleq	c1c <__code_start__-0x73e4>
     c14:	00746572 	rsbseq	r6, r4, r2, ror r5
     c18:	005d1801 	subseq	r1, sp, r1, lsl #16
     c1c:	0d000000 	stceq	0, cr0, [r0, #-0]
     c20:	0000041b 	andeq	r0, r0, fp, lsl r4
     c24:	41031e01 	tstmi	r3, r1, lsl #28
     c28:	0c000001 	stceq	0, cr0, [r0], {1}
     c2c:	1e010076 	mcrne	0, 0, r0, cr1, cr6, {3}
     c30:	0000005d 	andeq	r0, r0, sp, asr r0
     c34:	033e0d00 	teqeq	lr, #0, 26
     c38:	26010000 	strcs	r0, [r1], -r0
     c3c:	00015703 	andeq	r5, r1, r3, lsl #14
     c40:	00760c00 	rsbseq	r0, r6, r0, lsl #24
     c44:	005d2601 	subseq	r2, sp, r1, lsl #12
     c48:	0d000000 	stceq	0, cr0, [r0, #-0]
     c4c:	000003e3 	andeq	r0, r0, r3, ror #7
     c50:	6d030d01 	stcvs	13, cr0, [r3, #-4]
     c54:	0c000001 	stceq	0, cr0, [r0], {1}
     c58:	0d010076 	stceq	0, cr0, [r1, #-472]	; 0xfffffe28
     c5c:	0000005d 	andeq	r0, r0, sp, asr r0
     c60:	03890a00 	orreq	r0, r9, #0, 20
     c64:	66020000 	strvs	r0, [r2], -r0
     c68:	0000002c 	andeq	r0, r0, ip, lsr #32
     c6c:	00018903 	andeq	r8, r1, r3, lsl #18
     c70:	03660e00 	cmneq	r6, #0, 28
     c74:	67020000 	strvs	r0, [r2, -r0]
     c78:	0000005d 	andeq	r0, r0, sp, asr r0
     c7c:	03ff0a00 	mvnseq	r0, #0, 20
     c80:	56020000 	strpl	r0, [r2], -r0
     c84:	0000005d 	andeq	r0, r0, sp, asr r0
     c88:	0001a503 	andeq	sl, r1, r3, lsl #10
     c8c:	65720b00 	ldrbvs	r0, [r2, #-2816]!	; 0xb00
     c90:	56020074 			; <UNDEFINED> instruction: 0x56020074
     c94:	0000005d 	andeq	r0, r0, sp, asr r0
     c98:	03700a00 	cmneq	r0, #0, 20
     c9c:	63020000 	movwvs	r0, #8192	; 0x2000
     ca0:	0000005d 	andeq	r0, r0, sp, asr r0
     ca4:	0001c103 	andeq	ip, r1, r3, lsl #2
     ca8:	65720b00 	ldrbvs	r0, [r2, #-2816]!	; 0xb00
     cac:	63020074 	movwvs	r0, #8308	; 0x2074
     cb0:	0000005d 	andeq	r0, r0, sp, asr r0
     cb4:	02e90d00 	rsceq	r0, r9, #0, 26
     cb8:	32010000 	andcc	r0, r1, #0
     cbc:	0001d703 	andeq	sp, r1, r3, lsl #14
     cc0:	00760c00 	rsbseq	r0, r6, r0, lsl #24
     cc4:	005d3201 	subseq	r3, sp, r1, lsl #4
     cc8:	0a000000 	beq	cd0 <__code_start__-0x7330>
     ccc:	00000358 	andeq	r0, r0, r8, asr r3
     cd0:	005d8d01 	subseq	r8, sp, r1, lsl #26
     cd4:	f3030000 	vhadd.u8	d0, d3, d0
     cd8:	0b000001 	bleq	ce4 <__code_start__-0x731c>
     cdc:	00746572 	rsbseq	r6, r4, r2, ror r5
     ce0:	005d8d01 	subseq	r8, sp, r1, lsl #26
     ce4:	0d000000 	stceq	0, cr0, [r0, #-0]
     ce8:	0000031a 	andeq	r0, r0, sl, lsl r3
     cec:	09038e01 	stmdbeq	r3, {r0, r9, sl, fp, pc}
     cf0:	0c000002 	stceq	0, cr0, [r0], {2}
     cf4:	8e010076 	mcrhi	0, 0, r0, cr1, cr6, {3}
     cf8:	0000005d 	andeq	r0, r0, sp, asr r0
     cfc:	039b0d00 	orrseq	r0, fp, #0, 26
     d00:	8c010000 	stchi	0, cr0, [r1], {-0}
     d04:	00021f03 	andeq	r1, r2, r3, lsl #30
     d08:	00760c00 	rsbseq	r0, r6, r0, lsl #24
     d0c:	005d8c01 	subseq	r8, sp, r1, lsl #24
     d10:	0a000000 	beq	d18 <__code_start__-0x72e8>
     d14:	00000255 	andeq	r0, r0, r5, asr r2
     d18:	002ca902 	eoreq	sl, ip, r2, lsl #18
     d1c:	39030000 	stmdbcc	r3, {}	; <UNPREDICTABLE>
     d20:	0b000002 	bleq	d30 <__code_start__-0x72d0>
     d24:	aa020072 	bge	80ef4 <__bss_end__+0x7652c>
     d28:	0000002c 	andeq	r0, r0, ip, lsr #32
     d2c:	036f0a00 	cmneq	pc, #0, 20
     d30:	97020000 	strls	r0, [r2, -r0]
     d34:	0000005d 	andeq	r0, r0, sp, asr r0
     d38:	00025503 	andeq	r5, r2, r3, lsl #10
     d3c:	65720b00 	ldrbvs	r0, [r2, #-2816]!	; 0xb00
     d40:	97020074 	smlsdxls	r2, r4, r0, r0
     d44:	0000005d 	andeq	r0, r0, sp, asr r0
     d48:	03310f00 	teqeq	r1, #0, 30
     d4c:	36010000 	strcc	r0, [r1], -r0
     d50:	0000851c 	andeq	r8, r0, ip, lsl r5
     d54:	000000b0 	strheq	r0, [r0], -r0	; <UNPREDICTABLE>
     d58:	04309c01 	ldrteq	r9, [r0], #-3073	; 0xc01
     d5c:	33100000 	tstcc	r0, #0
     d60:	01000004 	tsteq	r0, r4
     d64:	00007d36 	andeq	r7, r0, r6, lsr sp
     d68:	0002e800 	andeq	lr, r2, r0, lsl #16
     d6c:	01431000 	mrseq	r1, (UNDEF: 67)
     d70:	36010000 	strcc	r0, [r1], -r0
     d74:	00000091 	muleq	r0, r1, r0
     d78:	0000032d 	andeq	r0, r0, sp, lsr #6
     d7c:	0002f211 	andeq	pc, r2, r1, lsl r2	; <UNPREDICTABLE>
     d80:	5d390100 	ldfpls	f0, [r9, #-0]
     d84:	72000000 	andvc	r0, r0, #0
     d88:	12000003 	andne	r0, r0, #3
     d8c:	0000012a 	andeq	r0, r0, sl, lsr #2
     d90:	00000440 	andeq	r0, r0, r0, asr #8
     d94:	a0e80305 	rscge	r0, r8, r5, lsl #6
     d98:	28110000 	ldmdacs	r1, {}	; <UNPREDICTABLE>
     d9c:	01000003 	tsteq	r0, r3
     da0:	00005d43 	andeq	r5, r0, r3, asr #26
     da4:	00039e00 	andeq	r9, r3, r0, lsl #28
     da8:	010f1300 	mrseq	r1, SP_hyp
     dac:	85240000 	strhi	r0, [r4, #-0]!
     db0:	00040000 	andeq	r0, r4, r0
     db4:	39010000 	stmdbcc	r1, {}	; <UNPREDICTABLE>
     db8:	000002dc 	ldrdeq	r0, [r0], -ip
     dbc:	00852414 	addeq	r2, r5, r4, lsl r4
     dc0:	00000400 	andeq	r0, r0, r0, lsl #8
     dc4:	011f1500 	tsteq	pc, r0, lsl #10
     dc8:	03ca0000 	biceq	r0, sl, #0
     dcc:	00000000 	andeq	r0, r0, r0
     dd0:	00012b13 	andeq	r2, r1, r3, lsl fp
     dd4:	00852c00 	addeq	r2, r5, r0, lsl #24
     dd8:	00000400 	andeq	r0, r0, r0, lsl #8
     ddc:	f93f0100 			; <UNDEFINED> instruction: 0xf93f0100
     de0:	16000002 	strne	r0, [r0], -r2
     de4:	00000137 	andeq	r0, r0, r7, lsr r1
     de8:	000003dd 	ldrdeq	r0, [r0], -sp
     dec:	010f1300 	mrseq	r1, SP_hyp
     df0:	85300000 	ldrhi	r0, [r0, #-0]!
     df4:	00040000 	andeq	r0, r4, r0
     df8:	41010000 	mrsmi	r0, (UNDEF: 1)
     dfc:	00000320 	andeq	r0, r0, r0, lsr #6
     e00:	00853014 	addeq	r3, r5, r4, lsl r0
     e04:	00000400 	andeq	r0, r0, r0, lsl #8
     e08:	011f1500 	tsteq	pc, r0, lsl #10
     e0c:	03fb0000 	mvnseq	r0, #0
     e10:	00000000 	andeq	r0, r0, r0
     e14:	00014113 	andeq	r4, r1, r3, lsl r1
     e18:	00856000 	addeq	r6, r5, r0
     e1c:	00000400 	andeq	r0, r0, r0, lsl #8
     e20:	3d460100 	stfcce	f0, [r6, #-0]
     e24:	16000003 	strne	r0, [r0], -r3
     e28:	0000014d 	andeq	r0, r0, sp, asr #2
     e2c:	0000039e 	muleq	r0, lr, r3
     e30:	012b1300 	teqeq	fp, r0, lsl #6
     e34:	85640000 	strbhi	r0, [r4, #-0]!
     e38:	00080000 	andeq	r0, r8, r0
     e3c:	50010000 	andpl	r0, r1, r0
     e40:	00000358 	andeq	r0, r0, r8, asr r3
     e44:	00013717 	andeq	r3, r1, r7, lsl r7
     e48:	0001ff00 	andeq	pc, r1, r0, lsl #30
     e4c:	00010f13 	andeq	r0, r1, r3, lsl pc
     e50:	00856c00 	addeq	r6, r5, r0, lsl #24
     e54:	00000400 	andeq	r0, r0, r0, lsl #8
     e58:	7f520100 	svcvc	0x00520100
     e5c:	14000003 	strne	r0, [r0], #-3
     e60:	0000856c 	andeq	r8, r0, ip, ror #10
     e64:	00000004 	andeq	r0, r0, r4
     e68:	00011f15 	andeq	r1, r1, r5, lsl pc
     e6c:	00041900 	andeq	r1, r4, r0, lsl #18
     e70:	13000000 	movwne	r0, #0
     e74:	00000157 	andeq	r0, r0, r7, asr r1
     e78:	0000859c 	muleq	r0, ip, r5
     e7c:	00000008 	andeq	r0, r0, r8
     e80:	03995401 	orrseq	r5, r9, #16777216	; 0x1000000
     e84:	63180000 	tstvs	r8, #0
     e88:	00000001 	andeq	r0, r0, r1
     e8c:	85401900 	strbhi	r1, [r0, #-2304]	; 0x900
     e90:	0bc60000 	bleq	ff180e98 <__bss_end__+0xff1764d0>
     e94:	5c1a0000 	ldcpl	0, cr0, [sl], {-0}
     e98:	cd000085 	stcgt	0, cr0, [r0, #-532]	; 0xfffffdec
     e9c:	db00000b 	blle	ed0 <__code_start__-0x7130>
     ea0:	1b000003 	blne	eb4 <__code_start__-0x714c>
     ea4:	08025301 	stmdaeq	r2, {r0, r8, r9, ip, lr}
     ea8:	52011b41 	andpl	r1, r1, #66560	; 0x10400
     eac:	a0e80305 	rscge	r0, r8, r5, lsl #6
     eb0:	011b0000 	tsteq	fp, r0
     eb4:	ec030551 	cfstr32	mvfx0, [r3], {81}	; 0x51
     eb8:	1b00009f 	blne	113c <__code_start__-0x6ec4>
     ebc:	03055001 	movweq	r5, #20481	; 0x5001
     ec0:	00009d4c 	andeq	r9, r0, ip, asr #26
     ec4:	007d021b 	rsbseq	r0, sp, fp, lsl r2
     ec8:	9ffc0305 	svcls	0x00fc0305
     ecc:	19000000 	stmdbne	r0, {}	; <UNPREDICTABLE>
     ed0:	00008560 	andeq	r8, r0, r0, ror #10
     ed4:	00000be3 	andeq	r0, r0, r3, ror #23
     ed8:	00857c19 	addeq	r7, r5, r9, lsl ip
     edc:	000bc600 	andeq	ip, fp, r0, lsl #12
     ee0:	85981a00 	ldrhi	r1, [r8, #2560]	; 0xa00
     ee4:	0bcd0000 	bleq	ff340eec <__bss_end__+0xff336524>
     ee8:	04260000 	strteq	r0, [r6], #-0
     eec:	011b0000 	tsteq	fp, r0
     ef0:	52080253 	andpl	r0, r8, #805306373	; 0x30000005
     ef4:	0552011b 	ldrbeq	r0, [r2, #-283]	; 0x11b
     ef8:	00a0e803 	adceq	lr, r0, r3, lsl #16
     efc:	51011b00 	tstpl	r1, r0, lsl #22
     f00:	9fec0305 	svcls	0x00ec0305
     f04:	011b0000 	tsteq	fp, r0
     f08:	4c030550 	cfstr32mi	mvfx0, [r3], {80}	; 0x50
     f0c:	1b00009d 	blne	1188 <__code_start__-0x6e78>
     f10:	05007d02 	streq	r7, [r0, #-3330]	; 0xd02
     f14:	009ffc03 	addseq	pc, pc, r3, lsl #24
     f18:	9c190000 	ldcls	0, cr0, [r9], {-0}
     f1c:	e3000085 	movw	r0, #133	; 0x85
     f20:	0000000b 	andeq	r0, r0, fp
     f24:	00007f1c 	andeq	r7, r0, ip, lsl pc
     f28:	00044000 	andeq	r4, r4, r0
     f2c:	00761d00 	rsbseq	r1, r6, r0, lsl #26
     f30:	000c0000 	andeq	r0, ip, r0
     f34:	00043007 	andeq	r3, r4, r7
     f38:	02c80a00 	sbceq	r0, r8, #0, 20
     f3c:	76020000 	strvc	r0, [r2], -r0
     f40:	0000002c 	andeq	r0, r0, ip, lsr #32
     f44:	00046c03 	andeq	r6, r4, r3, lsl #24
     f48:	00720b00 	rsbseq	r0, r2, r0, lsl #22
     f4c:	002c7702 	eoreq	r7, ip, r2, lsl #14
     f50:	2a1e0000 	bcs	780f58 <__bss_end__+0x776590>
     f54:	7c000001 	stcvc	0, cr0, [r0], {1}
     f58:	c8000004 	stmdagt	r0, {r2}
     f5c:	00000002 	andeq	r0, r0, r2
     f60:	00007f1c 	andeq	r7, r0, ip, lsl pc
     f64:	00047c00 	andeq	r7, r4, r0, lsl #24
     f68:	00761d00 	rsbseq	r1, r6, r0, lsl #26
     f6c:	00130000 	andseq	r0, r3, r0
     f70:	00046c07 	andeq	r6, r4, r7, lsl #24
     f74:	02a00f00 	adceq	r0, r0, #0, 30
     f78:	59010000 	stmdbpl	r1, {}	; <UNPREDICTABLE>
     f7c:	000085cc 	andeq	r8, r0, ip, asr #11
     f80:	000000dc 	ldrdeq	r0, [r0], -ip
     f84:	06b09c01 	ldrteq	r9, [r0], r1, lsl #24
     f88:	701f0000 	andsvc	r0, pc, r0
     f8c:	59010063 	stmdbpl	r1, {r0, r1, r5, r6}
     f90:	0000002c 	andeq	r0, r0, ip, lsr #32
     f94:	00000437 	andeq	r0, r0, r7, lsr r4
     f98:	0003ba20 	andeq	fp, r3, r0, lsr #20
     f9c:	255a0100 	ldrbcs	r0, [sl, #-256]	; 0x100
     fa0:	05000000 	streq	r0, [r0, #-0]
     fa4:	00a5b403 	adceq	fp, r5, r3, lsl #8
     fa8:	012a1200 	teqeq	sl, r0, lsl #4
     fac:	06c00000 	strbeq	r0, [r0], r0
     fb0:	03050000 	movweq	r0, #20480	; 0x5000
     fb4:	0000a0f8 	strdeq	sl, [r0], -r8
     fb8:	0004340e 	andeq	r3, r4, lr, lsl #8
     fbc:	5d6b0100 	stfple	f0, [fp, #-0]
     fc0:	13000000 	movwne	r0, #0
     fc4:	0000016d 	andeq	r0, r0, sp, ror #2
     fc8:	000085d8 	ldrdeq	r8, [r0], -r8	; <UNPREDICTABLE>
     fcc:	00000004 	andeq	r0, r0, r4
     fd0:	05115c01 	ldreq	r5, [r1, #-3073]	; 0xc01
     fd4:	d8140000 	ldmdale	r4, {}	; <UNPREDICTABLE>
     fd8:	04000085 	streq	r0, [r0], #-133	; 0x85
     fdc:	21000000 	mrscs	r0, (UNDEF: 0)
     fe0:	0000017d 	andeq	r0, r0, sp, ror r1
     fe4:	0000bd22 	andeq	fp, r0, r2, lsr #26
     fe8:	0085d800 	addeq	sp, r5, r0, lsl #16
     fec:	00000400 	andeq	r0, r0, r0, lsl #8
     ff0:	14670200 	strbtne	r0, [r7], #-512	; 0x200
     ff4:	000085d8 	ldrdeq	r8, [r0], -r8	; <UNPREDICTABLE>
     ff8:	00000004 	andeq	r0, r0, r4
     ffc:	0000cd21 	andeq	ip, r0, r1, lsr #26
    1000:	00000000 	andeq	r0, r0, r0
    1004:	04451300 	strbeq	r1, [r5], #-768	; 0x300
    1008:	85dc0000 	ldrbhi	r0, [ip]
    100c:	002c0000 	eoreq	r0, ip, r0
    1010:	62010000 	andvs	r0, r1, #0
    1014:	000005c4 	andeq	r0, r0, r4, asr #11
    1018:	0085dc14 	addeq	sp, r5, r4, lsl ip
    101c:	00002c00 	andeq	r2, r0, r0, lsl #24
    1020:	04552100 	ldrbeq	r2, [r5], #-256	; 0x100
    1024:	5e230000 	cdppl	0, 2, cr0, cr3, cr0, {0}
    1028:	05000004 	streq	r0, [r0, #-4]
    102c:	00a10c03 	adceq	r0, r1, r3, lsl #24
    1030:	00bd1300 	adcseq	r1, sp, r0, lsl #6
    1034:	85dc0000 	ldrbhi	r0, [ip]
    1038:	00040000 	andeq	r0, r4, r0
    103c:	77020000 	strvc	r0, [r2, -r0]
    1040:	00000564 	andeq	r0, r0, r4, ror #10
    1044:	0085dc14 	addeq	sp, r5, r4, lsl ip
    1048:	00000400 	andeq	r0, r0, r0, lsl #8
    104c:	00cd1500 	sbceq	r1, sp, r0, lsl #10
    1050:	04ae0000 	strteq	r0, [lr], #0
    1054:	00000000 	andeq	r0, r0, r0
    1058:	0000f513 	andeq	pc, r0, r3, lsl r5	; <UNPREDICTABLE>
    105c:	0085e000 	addeq	lr, r5, r0
    1060:	00000400 	andeq	r0, r0, r0, lsl #8
    1064:	81780200 	cmnhi	r8, r0, lsl #4
    1068:	16000005 	strne	r0, [r0], -r5
    106c:	00000105 	andeq	r0, r0, r5, lsl #2
    1070:	000004ae 	andeq	r0, r0, lr, lsr #9
    1074:	85f01900 	ldrbhi	r1, [r0, #2304]!	; 0x900
    1078:	0bc60000 	bleq	ff181080 <__bss_end__+0xff1766b8>
    107c:	041a0000 	ldreq	r0, [sl], #-0
    1080:	cd000086 	stcgt	0, cr0, [r0, #-536]	; 0xfffffde8
    1084:	b900000b 	stmdblt	r0, {r0, r1, r3}
    1088:	1b000005 	blne	10a4 <__code_start__-0x6f5c>
    108c:	08025301 	stmdaeq	r2, {r0, r8, r9, ip, lr}
    1090:	52011b79 	andpl	r1, r1, #123904	; 0x1e400
    1094:	a10c0305 	tstge	ip, r5, lsl #6
    1098:	011b0000 	tsteq	fp, r0
    109c:	4c030551 	cfstr32mi	mvfx0, [r3], {81}	; 0x51
    10a0:	1b0000a0 	blne	1328 <__code_start__-0x6cd8>
    10a4:	03055001 	movweq	r5, #20481	; 0x5001
    10a8:	0000a014 	andeq	sl, r0, r4, lsl r0
    10ac:	86081900 	strhi	r1, [r8], -r0, lsl #18
    10b0:	0be30000 	bleq	ff8c10b8 <__bss_end__+0xff8b66f0>
    10b4:	00000000 	andeq	r0, r0, r0
    10b8:	00018913 	andeq	r8, r1, r3, lsl r9
    10bc:	00860800 	addeq	r0, r6, r0, lsl #16
    10c0:	00000400 	andeq	r0, r0, r0, lsl #8
    10c4:	eb670100 	bl	19c14cc <__bss_end__+0x19b6b04>
    10c8:	14000005 	strne	r0, [r0], #-5
    10cc:	00008608 	andeq	r8, r0, r8, lsl #12
    10d0:	00000004 	andeq	r0, r0, r4
    10d4:	00019915 	andeq	r9, r1, r5, lsl r9
    10d8:	0004c100 	andeq	ip, r4, r0, lsl #2
    10dc:	13000000 	movwne	r0, #0
    10e0:	000001a5 	andeq	r0, r0, r5, lsr #3
    10e4:	00008670 	andeq	r8, r0, r0, ror r6
    10e8:	00000004 	andeq	r0, r0, r4
    10ec:	060e6b01 	streq	r6, [lr], -r1, lsl #22
    10f0:	70140000 	andsvc	r0, r4, r0
    10f4:	04000086 	streq	r0, [r0], #-134	; 0x86
    10f8:	21000000 	mrscs	r0, (UNDEF: 0)
    10fc:	000001b5 			; <UNDEFINED> instruction: 0x000001b5
    1100:	1c190000 	ldcne	0, cr0, [r9], {-0}
    1104:	c6000086 	strgt	r0, [r0], -r6, lsl #1
    1108:	1a00000b 	bne	113c <__code_start__-0x6ec4>
    110c:	00008638 	andeq	r8, r0, r8, lsr r6
    1110:	00000bcd 	andeq	r0, r0, sp, asr #23
    1114:	00000650 	andeq	r0, r0, r0, asr r6
    1118:	0253011b 	subseq	r0, r3, #-1073741818	; 0xc0000006
    111c:	011b6708 	tsteq	fp, r8, lsl #14
    1120:	f8030552 			; <UNDEFINED> instruction: 0xf8030552
    1124:	1b0000a0 	blne	13ac <__code_start__-0x6c54>
    1128:	03055101 	movweq	r5, #20737	; 0x5101
    112c:	00009fec 	andeq	r9, r0, ip, ror #31
    1130:	0550011b 	ldrbeq	r0, [r0, #-283]	; 0x11b
    1134:	009d4c03 	addseq	r4, sp, r3, lsl #24
    1138:	7d021b00 	vstrvc	d1, [r2, #-0]
    113c:	5c030500 	cfstr32pl	mvfx0, [r3], {-0}
    1140:	000000a0 	andeq	r0, r0, r0, lsr #1
    1144:	00863c19 	addeq	r3, r6, r9, lsl ip
    1148:	000be300 	andeq	lr, fp, r0, lsl #6
    114c:	86501900 	ldrbhi	r1, [r0], -r0, lsl #18
    1150:	0bc60000 	bleq	ff181158 <__bss_end__+0xff176790>
    1154:	6c1a0000 	ldcvs	0, cr0, [sl], {-0}
    1158:	cd000086 	stcgt	0, cr0, [r0, #-536]	; 0xfffffde8
    115c:	9b00000b 	blls	1190 <__code_start__-0x6e70>
    1160:	1b000006 	blne	1180 <__code_start__-0x6e80>
    1164:	08025301 	stmdaeq	r2, {r0, r8, r9, ip, lr}
    1168:	52011b69 	andpl	r1, r1, #107520	; 0x1a400
    116c:	a0f80305 	rscsge	r0, r8, r5, lsl #6
    1170:	011b0000 	tsteq	fp, r0
    1174:	ec030551 	cfstr32	mvfx0, [r3], {81}	; 0x51
    1178:	1b00009f 	blne	13fc <__code_start__-0x6c04>
    117c:	03055001 	movweq	r5, #20481	; 0x5001
    1180:	00009d4c 	andeq	r9, r0, ip, asr #26
    1184:	007d021b 	rsbseq	r0, sp, fp, lsl r2
    1188:	a0700305 	rsbsge	r0, r0, r5, lsl #6
    118c:	19000000 	stmdbne	r0, {}	; <UNPREDICTABLE>
    1190:	00008670 	andeq	r8, r0, r0, ror r6
    1194:	00000be3 	andeq	r0, r0, r3, ror #23
    1198:	00867c24 	addeq	r7, r6, r4, lsr #24
    119c:	50011b00 	andpl	r1, r1, r0, lsl #22
    11a0:	00003001 	andeq	r3, r0, r1
    11a4:	00007f1c 	andeq	r7, r0, ip, lsl pc
    11a8:	0006c000 	andeq	ip, r6, r0
    11ac:	00761d00 	rsbseq	r1, r6, r0, lsl #26
    11b0:	00110000 	andseq	r0, r1, r0
    11b4:	0006b007 	andeq	fp, r6, r7
    11b8:	02690f00 	rsbeq	r0, r9, #0, 30
    11bc:	72010000 	andvc	r0, r1, #0
    11c0:	000086a8 	andeq	r8, r0, r8, lsr #13
    11c4:	0000003c 	andeq	r0, r0, ip, lsr r0
    11c8:	07359c01 	ldreq	r9, [r5, -r1, lsl #24]!
    11cc:	04200000 	strteq	r0, [r0], #-0
    11d0:	01000003 	tsteq	r0, r3
    11d4:	00002573 	andeq	r2, r0, r3, ror r5
    11d8:	b8030500 	stmdalt	r3, {r8, sl}
    11dc:	250000a5 	strcs	r0, [r0, #-165]	; 0xa5
    11e0:	7c010076 	stcvc	0, cr0, [r1], {118}	; 0x76
    11e4:	0000005d 	andeq	r0, r0, sp, asr r0
    11e8:	c1138000 	tstgt	r3, r0
    11ec:	cc000001 	stcgt	0, cr0, [r0], {1}
    11f0:	08000086 	stmdaeq	r0, {r1, r2, r7}
    11f4:	01000000 	mrseq	r0, (UNDEF: 0)
    11f8:	0007117e 	andeq	r1, r7, lr, ror r1
    11fc:	01cd1700 	biceq	r1, sp, r0, lsl #14
    1200:	80000000 	andhi	r0, r0, r0
    1204:	01571300 	cmpeq	r7, r0, lsl #6
    1208:	86d40000 	ldrbhi	r0, [r4], r0
    120c:	00100000 	andseq	r0, r0, r0
    1210:	80010000 	andhi	r0, r1, r0
    1214:	0000072b 	andeq	r0, r0, fp, lsr #14
    1218:	00016318 	andeq	r6, r1, r8, lsl r3
    121c:	19000000 	stmdbne	r0, {}	; <UNPREDICTABLE>
    1220:	000086c0 	andeq	r8, r0, r0, asr #13
    1224:	00000bea 	andeq	r0, r0, sl, ror #23
    1228:	04100f00 	ldreq	r0, [r0], #-3840	; 0xf00
    122c:	a8010000 	stmdage	r1, {}	; <UNPREDICTABLE>
    1230:	000086e4 	andeq	r8, r0, r4, ror #13
    1234:	00000034 	andeq	r0, r0, r4, lsr r0
    1238:	08119c01 	ldmdaeq	r1, {r0, sl, fp, ip, pc}
    123c:	34260000 	strtcc	r0, [r6], #-0
    1240:	01000004 	tsteq	r0, r4
    1244:	00005da8 	andeq	r5, r0, r8, lsr #27
    1248:	26500100 	ldrbcs	r0, [r0], -r0, lsl #2
    124c:	00000143 	andeq	r0, r0, r3, asr #2
    1250:	0091a801 	addseq	sl, r1, r1, lsl #16
    1254:	51010000 	mrspl	r0, (UNDEF: 1)
    1258:	0003f611 	andeq	pc, r3, r1, lsl r6	; <UNPREDICTABLE>
    125c:	5da90100 	stfpls	f0, [r9]
    1260:	ee000000 	cdp	0, 0, cr0, cr0, cr0, {0}
    1264:	20000004 	andcs	r0, r0, r4
    1268:	000003c2 	andeq	r0, r0, r2, asr #7
    126c:	005db101 	subseq	fp, sp, r1, lsl #2
    1270:	50010000 	andpl	r0, r1, r0
    1274:	0001d713 	andeq	sp, r1, r3, lsl r7
    1278:	0086e400 	addeq	lr, r6, r0, lsl #8
    127c:	00000400 	andeq	r0, r0, r0, lsl #8
    1280:	a7a90100 	strge	r0, [r9, r0, lsl #2]!
    1284:	14000007 	strne	r0, [r0], #-7
    1288:	000086e4 	andeq	r8, r0, r4, ror #13
    128c:	00000004 	andeq	r0, r0, r4
    1290:	0001e715 	andeq	lr, r1, r5, lsl r7
    1294:	00050f00 	andeq	r0, r5, r0, lsl #30
    1298:	13000000 	movwne	r0, #0
    129c:	000001f3 	strdeq	r0, [r0], -r3
    12a0:	000086ec 	andeq	r8, r0, ip, ror #13
    12a4:	00000004 	andeq	r0, r0, r4
    12a8:	07c4af01 	strbeq	sl, [r4, r1, lsl #30]
    12ac:	ff160000 			; <UNDEFINED> instruction: 0xff160000
    12b0:	22000001 	andcs	r0, r0, #1
    12b4:	00000005 	andeq	r0, r0, r5
    12b8:	00020913 	andeq	r0, r2, r3, lsl r9
    12bc:	0086f000 	addeq	pc, r6, r0
    12c0:	00000400 	andeq	r0, r0, r0, lsl #8
    12c4:	dfb40100 	svcle	0x00b40100
    12c8:	27000007 	strcs	r0, [r0, -r7]
    12cc:	00000215 	andeq	r0, r0, r5, lsl r2
    12d0:	13005001 	movwne	r5, #1
    12d4:	000001f3 	strdeq	r0, [r0], -r3
    12d8:	000086f4 	strdeq	r8, [r0], -r4
    12dc:	00000008 	andeq	r0, r0, r8
    12e0:	07fabe01 	ldrbeq	fp, [sl, r1, lsl #28]!
    12e4:	ff170000 			; <UNDEFINED> instruction: 0xff170000
    12e8:	e7000001 	str	r0, [r0, -r1]
    12ec:	57220001 	strpl	r0, [r2, -r1]!
    12f0:	fc000001 	stc2	0, cr0, [r0], {1}
    12f4:	08000086 	stmdaeq	r0, {r1, r2, r7}
    12f8:	01000000 	mrseq	r0, (UNDEF: 0)
    12fc:	016318bf 	strheq	r1, [r3, #-143]!	; 0xffffff71
    1300:	00000000 	andeq	r0, r0, r0
    1304:	02b20f00 	adcseq	r0, r2, #0, 30
    1308:	c4010000 	strgt	r0, [r1], #-0
    130c:	00008718 	andeq	r8, r0, r8, lsl r7
    1310:	00000098 	muleq	r0, r8, r0
    1314:	09449c01 	stmdbeq	r4, {r0, sl, fp, ip, pc}^
    1318:	701f0000 	andsvc	r0, pc, r0
    131c:	c4010063 	strgt	r0, [r1], #-99	; 0x63
    1320:	0000002c 	andeq	r0, r0, ip, lsr #32
    1324:	00000535 	andeq	r0, r0, r5, lsr r5
    1328:	00012a12 	andeq	r2, r1, r2, lsl sl
    132c:	00095400 	andeq	r5, r9, r0, lsl #8
    1330:	20030500 	andcs	r0, r3, r0, lsl #10
    1334:	130000a1 	movwne	r0, #161	; 0xa1
    1338:	0000021f 	andeq	r0, r0, pc, lsl r2
    133c:	00008724 	andeq	r8, r0, r4, lsr #14
    1340:	00000008 	andeq	r0, r0, r8
    1344:	0889c601 	stmeq	r9, {r0, r9, sl, lr, pc}
    1348:	24140000 	ldrcs	r0, [r4], #-0
    134c:	08000087 	stmdaeq	r0, {r0, r1, r2, r7}
    1350:	21000000 	mrscs	r0, (UNDEF: 0)
    1354:	0000022f 	andeq	r0, r0, pc, lsr #4
    1358:	0000d922 	andeq	sp, r0, r2, lsr #18
    135c:	00872400 	addeq	r2, r7, r0, lsl #8
    1360:	00000400 	andeq	r0, r0, r0, lsl #8
    1364:	14aa0200 	strtne	r0, [sl], #512	; 0x200
    1368:	00008724 	andeq	r8, r0, r4, lsr #14
    136c:	00000004 	andeq	r0, r0, r4
    1370:	0000e915 	andeq	lr, r0, r5, lsl r9
    1374:	00059300 	andeq	r9, r5, r0, lsl #6
    1378:	00000000 	andeq	r0, r0, r0
    137c:	02391300 	eorseq	r1, r9, #0, 6
    1380:	87840000 	strhi	r0, [r4, r0]
    1384:	00040000 	andeq	r0, r4, r0
    1388:	ca010000 	bgt	41390 <__bss_end__+0x369c8>
    138c:	000008ac 	andeq	r0, r0, ip, lsr #17
    1390:	00878414 	addeq	r8, r7, r4, lsl r4
    1394:	00000400 	andeq	r0, r0, r0, lsl #8
    1398:	02492100 	subeq	r2, r9, #0, 2
    139c:	00000000 	andeq	r0, r0, r0
    13a0:	00873819 	addeq	r3, r7, r9, lsl r8
    13a4:	000bc600 	andeq	ip, fp, r0, lsl #12
    13a8:	874c1a00 	strbhi	r1, [ip, -r0, lsl #20]
    13ac:	0bcd0000 	bleq	ff3413b4 <__bss_end__+0xff3369ec>
    13b0:	08e40000 	stmiaeq	r4!, {}^	; <UNPREDICTABLE>
    13b4:	011b0000 	tsteq	fp, r0
    13b8:	c7080253 	smlsdgt	r8, r3, r2, r0
    13bc:	0552011b 	ldrbeq	r0, [r2, #-283]	; 0x11b
    13c0:	00a12003 	adceq	r2, r1, r3
    13c4:	51011b00 	tstpl	r1, r0, lsl #22
    13c8:	9fec0305 	svcls	0x00ec0305
    13cc:	011b0000 	tsteq	fp, r0
    13d0:	0c030550 	cfstr32eq	mvfx0, [r3], {80}	; 0x50
    13d4:	0000009e 	muleq	r0, lr, r0
    13d8:	00875019 	addeq	r5, r7, r9, lsl r0
    13dc:	000be300 	andeq	lr, fp, r0, lsl #6
    13e0:	87641900 	strbhi	r1, [r4, -r0, lsl #18]!
    13e4:	0bc60000 	bleq	ff1813ec <__bss_end__+0xff176a24>
    13e8:	801a0000 	andshi	r0, sl, r0
    13ec:	cd000087 	stcgt	0, cr0, [r0, #-540]	; 0xfffffde4
    13f0:	2f00000b 	svccs	0x0000000b
    13f4:	1b000009 	blne	1420 <__code_start__-0x6be0>
    13f8:	08025301 	stmdaeq	r2, {r0, r8, r9, ip, lr}
    13fc:	52011bc8 	andpl	r1, r1, #200, 22	; 0x32000
    1400:	a1200305 	teqge	r0, r5, lsl #6
    1404:	011b0000 	tsteq	fp, r0
    1408:	ec030551 	cfstr32	mvfx0, [r3], {81}	; 0x51
    140c:	1b00009f 	blne	1690 <__code_start__-0x6970>
    1410:	03055001 	movweq	r5, #20481	; 0x5001
    1414:	00009d4c 	andeq	r9, r0, ip, asr #26
    1418:	007d021b 	rsbseq	r0, sp, fp, lsl r2
    141c:	a0840305 	addge	r0, r4, r5, lsl #6
    1420:	19000000 	stmdbne	r0, {}	; <UNPREDICTABLE>
    1424:	00008784 	andeq	r8, r0, r4, lsl #15
    1428:	00000be3 	andeq	r0, r0, r3, ror #23
    142c:	00879024 	addeq	r9, r7, r4, lsr #32
    1430:	50011b00 	andpl	r1, r1, r0, lsl #22
    1434:	00003001 	andeq	r3, r0, r1
    1438:	00007f1c 	andeq	r7, r0, ip, lsl pc
    143c:	00095400 	andeq	r5, r9, r0, lsl #8
    1440:	00761d00 	rsbseq	r1, r6, r0, lsl #26
    1444:	00150000 	andseq	r0, r5, r0
    1448:	00094407 	andeq	r4, r9, r7, lsl #8
    144c:	074e0f00 	strbeq	r0, [lr, -r0, lsl #30]
    1450:	cd010000 	stcgt	0, cr0, [r1, #-0]
    1454:	000087b0 			; <UNDEFINED> instruction: 0x000087b0
    1458:	00000004 	andeq	r0, r0, r4
    145c:	097b9c01 	ldmdbeq	fp!, {r0, sl, fp, ip, pc}^
    1460:	70280000 	eorvc	r0, r8, r0
    1464:	cd010063 	stcgt	0, cr0, [r1, #-396]	; 0xfffffe74
    1468:	0000002c 	andeq	r0, r0, ip, lsr #32
    146c:	0f005001 	svceq	0x00005001
    1470:	00000347 	andeq	r0, r0, r7, asr #6
    1474:	87b4d801 	ldrhi	sp, [r4, r1, lsl #16]!
    1478:	002c0000 	eoreq	r0, ip, r0
    147c:	9c010000 	stcls	0, cr0, [r1], {-0}
    1480:	000009e1 	andeq	r0, r0, r1, ror #19
    1484:	00012a12 	andeq	r2, r1, r2, lsl sl
    1488:	0009f100 	andeq	pc, r9, r0, lsl #2
    148c:	38030500 	stmdacc	r3, {r8, sl}
    1490:	190000a1 	stmdbne	r0, {r0, r5, r7}
    1494:	000087bc 			; <UNDEFINED> instruction: 0x000087bc
    1498:	00000bc6 	andeq	r0, r0, r6, asr #23
    149c:	0087d01a 	addeq	sp, r7, sl, lsl r0
    14a0:	000bcd00 	andeq	ip, fp, r0, lsl #26
    14a4:	0009d700 	andeq	sp, r9, r0, lsl #14
    14a8:	53011b00 	movwpl	r1, #6912	; 0x1b00
    14ac:	1bd90802 	blne	ff6434bc <__bss_end__+0xff638af4>
    14b0:	03055201 	movweq	r5, #20993	; 0x5201
    14b4:	0000a138 	andeq	sl, r0, r8, lsr r1
    14b8:	0551011b 	ldrbeq	r0, [r1, #-283]	; 0x11b
    14bc:	009fec03 	addseq	lr, pc, r3, lsl #24
    14c0:	50011b00 	andpl	r1, r1, r0, lsl #22
    14c4:	a0940305 	addsge	r0, r4, r5, lsl #6
    14c8:	19000000 	stmdbne	r0, {}	; <UNPREDICTABLE>
    14cc:	000087d4 	ldrdeq	r8, [r0], -r4
    14d0:	00000be3 	andeq	r0, r0, r3, ror #23
    14d4:	007f1c00 	rsbseq	r1, pc, r0, lsl #24
    14d8:	09f10000 	ldmibeq	r1!, {}^	; <UNPREDICTABLE>
    14dc:	761d0000 	ldrvc	r0, [sp], -r0
    14e0:	10000000 	andne	r0, r0, r0
    14e4:	09e10700 	stmibeq	r1!, {r8, r9, sl}^
    14e8:	090f0000 	stmdbeq	pc, {}	; <UNPREDICTABLE>
    14ec:	01000000 	mrseq	r0, (UNDEF: 0)
    14f0:	0087e0dc 	ldrdeq	lr, [r7], ip
    14f4:	00003400 	andeq	r3, r0, r0, lsl #8
    14f8:	d49c0100 	ldrle	r0, [ip], #256	; 0x100
    14fc:	2600000a 	strcs	r0, [r0], -sl
    1500:	00000434 	andeq	r0, r0, r4, lsr r4
    1504:	005ddc01 	subseq	sp, sp, r1, lsl #24
    1508:	50010000 	andpl	r0, r1, r0
    150c:	00014326 	andeq	r4, r1, r6, lsr #6
    1510:	91dc0100 	bicsls	r0, ip, r0, lsl #2
    1514:	01000000 	mrseq	r0, (UNDEF: 0)
    1518:	03f61151 	mvnseq	r1, #1073741844	; 0x40000014
    151c:	dd010000 	stcle	0, cr0, [r1, #-0]
    1520:	0000005d 	andeq	r0, r0, sp, asr r0
    1524:	000005a6 	andeq	r0, r0, r6, lsr #11
    1528:	0003c220 	andeq	ip, r3, r0, lsr #4
    152c:	5de50100 	stfple	f0, [r5]
    1530:	01000000 	mrseq	r0, (UNDEF: 0)
    1534:	01d71350 	bicseq	r1, r7, r0, asr r3
    1538:	87e00000 	strbhi	r0, [r0, r0]!
    153c:	00040000 	andeq	r0, r4, r0
    1540:	dd010000 	stcle	0, cr0, [r1, #-0]
    1544:	00000a68 	andeq	r0, r0, r8, ror #20
    1548:	0087e014 	addeq	lr, r7, r4, lsl r0
    154c:	00000400 	andeq	r0, r0, r0, lsl #8
    1550:	01e71500 	mvneq	r1, r0, lsl #10
    1554:	05c90000 	strbeq	r0, [r9]
    1558:	00000000 	andeq	r0, r0, r0
    155c:	0001f313 	andeq	pc, r1, r3, lsl r3	; <UNPREDICTABLE>
    1560:	0087e800 	addeq	lr, r7, r0, lsl #16
    1564:	00000400 	andeq	r0, r0, r0, lsl #8
    1568:	85e30100 	strbhi	r0, [r3, #256]!	; 0x100
    156c:	1600000a 	strne	r0, [r0], -sl
    1570:	000001ff 	strdeq	r0, [r0], -pc	; <UNPREDICTABLE>
    1574:	000005dc 	ldrdeq	r0, [r0], -ip
    1578:	02091300 	andeq	r1, r9, #0, 6
    157c:	87ec0000 	strbhi	r0, [ip, r0]!
    1580:	00040000 	andeq	r0, r4, r0
    1584:	e8010000 	stmda	r1, {}	; <UNPREDICTABLE>
    1588:	00000aa0 	andeq	r0, r0, r0, lsr #21
    158c:	00021527 	andeq	r1, r2, r7, lsr #10
    1590:	00500100 	subseq	r0, r0, r0, lsl #2
    1594:	0001f313 	andeq	pc, r1, r3, lsl r3	; <UNPREDICTABLE>
    1598:	0087f000 	addeq	pc, r7, r0
    159c:	00000800 	andeq	r0, r0, r0, lsl #16
    15a0:	bdf20100 	ldflte	f0, [r2]
    15a4:	2900000a 	stmdbcs	r0, {r1, r3}
    15a8:	000001ff 	strdeq	r0, [r0], -pc	; <UNPREDICTABLE>
    15ac:	004001e7 	subeq	r0, r0, r7, ror #3
    15b0:	01572200 	cmpeq	r7, r0, lsl #4
    15b4:	87f80000 	ldrbhi	r0, [r8, r0]!
    15b8:	00080000 	andeq	r0, r8, r0
    15bc:	f3010000 	vhadd.u8	d0, d1, d0
    15c0:	00016318 	andeq	r6, r1, r8, lsl r3
    15c4:	00000000 	andeq	r0, r0, r0
    15c8:	0000340f 	andeq	r3, r0, pc, lsl #8
    15cc:	14f80100 	ldrbtne	r0, [r8], #256	; 0x100
    15d0:	10000088 	andne	r0, r0, r8, lsl #1
    15d4:	01000000 	mrseq	r0, (UNDEF: 0)
    15d8:	000b209c 	muleq	fp, ip, r0
    15dc:	04342600 	ldrteq	r2, [r4], #-1536	; 0x600
    15e0:	f8010000 			; <UNDEFINED> instruction: 0xf8010000
    15e4:	0000005d 	andeq	r0, r0, sp, asr r0
    15e8:	f62a5001 			; <UNDEFINED> instruction: 0xf62a5001
    15ec:	01000003 	tsteq	r0, r3
    15f0:	00005df9 	strdeq	r5, [r0], -r9
    15f4:	4001e600 	andmi	lr, r1, r0, lsl #12
    15f8:	01f32b00 	mvnseq	r2, r0, lsl #22
    15fc:	88140000 	ldmdahi	r4, {}	; <UNPREDICTABLE>
    1600:	00100000 	andseq	r0, r0, r0
    1604:	00010000 	andeq	r0, r1, r0
    1608:	01ff2901 	mvnseq	r2, r1, lsl #18
    160c:	01e60000 	mvneq	r0, r0
    1610:	00000040 	andeq	r0, r0, r0, asr #32
    1614:	0003d42c 	andeq	sp, r3, ip, lsr #8
    1618:	01090100 	mrseq	r0, (UNDEF: 25)
    161c:	00000025 	andeq	r0, r0, r5, lsr #32
    1620:	00008824 	andeq	r8, r0, r4, lsr #16
    1624:	0000004c 	andeq	r0, r0, ip, asr #32
    1628:	0b939c01 	bleq	fe4e8634 <__bss_end__+0xfe4ddc6c>
    162c:	702d0000 	eorvc	r0, sp, r0
    1630:	09010063 	stmdbeq	r1, {r0, r1, r5, r6}
    1634:	00002c01 	andeq	r2, r0, r1, lsl #24
    1638:	0005ef00 	andeq	lr, r5, r0, lsl #30
    163c:	30722d00 	rsbscc	r2, r2, r0, lsl #26
    1640:	01090100 	mrseq	r0, (UNDEF: 25)
    1644:	0000005d 	andeq	r0, r0, sp, asr r0
    1648:	00000629 	andeq	r0, r0, r9, lsr #12
    164c:	0004082e 	andeq	r0, r4, lr, lsr #16
    1650:	010a0100 	mrseq	r0, (UNDEF: 26)
    1654:	0000005d 	andeq	r0, r0, sp, asr r0
    1658:	00000663 	andeq	r0, r0, r3, ror #12
    165c:	0088501a 	addeq	r5, r8, sl, lsl r0
    1660:	000bcd00 	andeq	ip, fp, r0, lsl #26
    1664:	000b7f00 	andeq	r7, fp, r0, lsl #30
    1668:	50011b00 	andpl	r1, r1, r0, lsl #22
    166c:	a0c40305 	sbcge	r0, r4, r5, lsl #6
    1670:	2f000000 	svccs	0x00000000
    1674:	00008860 	andeq	r8, r0, r0, ror #16
    1678:	00000bcd 	andeq	r0, r0, sp, asr #23
    167c:	0550011b 	ldrbeq	r0, [r0, #-283]	; 0x11b
    1680:	00a0d003 	adceq	sp, r0, r3
    1684:	20000000 	andcs	r0, r0, r0
    1688:	00000378 	andeq	r0, r0, r8, ror r3
    168c:	00910b01 	addseq	r0, r1, r1, lsl #22
    1690:	03050000 	movweq	r0, #20480	; 0x5000
    1694:	0000a5a8 	andeq	sl, r0, r8, lsr #11
    1698:	00030b20 	andeq	r0, r3, r0, lsr #22
    169c:	91890100 	orrls	r0, r9, r0, lsl #2
    16a0:	05000000 	streq	r0, [r0, #-0]
    16a4:	00a5ac03 	adceq	sl, r5, r3, lsl #24
    16a8:	028d3000 	addeq	r3, sp, #0
    16ac:	d5010000 	strle	r0, [r1, #-0]
    16b0:	00000025 	andeq	r0, r0, r5, lsr #32
    16b4:	a5b00305 	ldrge	r0, [r0, #773]!	; 0x305
    16b8:	7e310000 	cdpvc	0, 3, cr0, cr1, cr0, {0}
    16bc:	04000002 	streq	r0, [r0], #-2
    16c0:	0563321e 	strbeq	r3, [r3, #-542]!	; 0x21e
    16c4:	29040000 	stmdbcs	r4, {}	; <UNPREDICTABLE>
    16c8:	00000025 	andeq	r0, r0, r5, lsr #32
    16cc:	00000be3 	andeq	r0, r0, r3, ror #23
    16d0:	00008609 	andeq	r8, r0, r9, lsl #12
    16d4:	31003300 	mrscc	r3, LR_irq
    16d8:	000000f1 	strdeq	r0, [r0], -r1
    16dc:	24316504 	ldrtcs	r6, [r1], #-1284	; 0x504
    16e0:	05000004 	streq	r0, [r0, #-4]
    16e4:	0ee30036 	mcreq	0, 7, r0, cr3, cr6, {1}
    16e8:	00040000 	andeq	r0, r4, r0
    16ec:	00000505 	andeq	r0, r0, r5, lsl #10
    16f0:	014b0104 	cmpeq	fp, r4, lsl #2
    16f4:	4f010000 	svcmi	0x00010000
    16f8:	64000004 	strvs	r0, [r0], #-4
    16fc:	88000000 	stmdahi	r0, {}	; <UNPREDICTABLE>
    1700:	58000089 	stmdapl	r0, {r0, r3, r7}
    1704:	08000007 	stmdaeq	r0, {r0, r1, r2}
    1708:	02000004 	andeq	r0, r0, #4
    170c:	6e690504 	cdpvs	5, 6, cr0, cr9, cr4, {0}
    1710:	04030074 	streq	r0, [r3], #-116	; 0x74
    1714:	0001c207 	andeq	ip, r1, r7, lsl #4
    1718:	06010300 	streq	r0, [r1], -r0, lsl #6
    171c:	000000e5 	andeq	r0, r0, r5, ror #1
    1720:	37050203 	strcc	r0, [r5, -r3, lsl #4]
    1724:	03000002 	movweq	r0, #2
    1728:	02000504 	andeq	r0, r0, #4, 10	; 0x1000000
    172c:	08030000 	stmdaeq	r3, {}	; <UNPREDICTABLE>
    1730:	0001fb05 	andeq	pc, r1, r5, lsl #22
    1734:	08010300 	stmdaeq	r1, {r8, r9}
    1738:	000000e3 	andeq	r0, r0, r3, ror #1
    173c:	4c070203 	sfmmi	f0, 4, [r7], {3}
    1740:	04000000 	streq	r0, [r0], #-0
    1744:	00000117 	andeq	r0, r0, r7, lsl r1
    1748:	00683406 	rsbeq	r3, r8, r6, lsl #8
    174c:	04030000 	streq	r0, [r3], #-0
    1750:	0001bd07 	andeq	fp, r1, r7, lsl #26
    1754:	07080300 	streq	r0, [r8, -r0, lsl #6]
    1758:	000001b8 			; <UNDEFINED> instruction: 0x000001b8
    175c:	de070403 	cdple	4, 0, cr0, cr7, cr3, {0}
    1760:	05000001 	streq	r0, [r0, #-1]
    1764:	08010304 	stmdaeq	r1, {r2, r8, r9}
    1768:	000000ec 	andeq	r0, r0, ip, ror #1
    176c:	008c0406 	addeq	r0, ip, r6, lsl #8
    1770:	7f070000 	svcvc	0x00070000
    1774:	04000000 	streq	r0, [r0], #-0
    1778:	000001d4 	ldrdeq	r0, [r0], -r4
    177c:	009c8a02 	addseq	r8, ip, r2, lsl #20
    1780:	04060000 	streq	r0, [r6], #-0
    1784:	000000a2 	andeq	r0, r0, r2, lsr #1
    1788:	0000b708 	andeq	fp, r0, r8, lsl #14
    178c:	00b70900 	adcseq	r0, r7, r0, lsl #18
    1790:	5d090000 	stcpl	0, cr0, [r9, #-0]
    1794:	09000000 	stmdbeq	r0, {}	; <UNPREDICTABLE>
    1798:	0000005d 	andeq	r0, r0, sp, asr r0
    179c:	5d040600 	stcpl	6, cr0, [r4, #-0]
    17a0:	0a000000 	beq	17a8 <__code_start__-0x6858>
    17a4:	000004e4 	andeq	r0, r0, r4, ror #9
    17a8:	620a0734 	andvs	r0, sl, #52, 14	; 0xd00000
    17ac:	0b000001 	bleq	17b8 <__code_start__-0x6848>
    17b0:	00000a2a 	andeq	r0, r0, sl, lsr #20
    17b4:	01620f07 	cmneq	r2, r7, lsl #30
    17b8:	0c000000 	stceq	0, cr0, [r0], {-0}
    17bc:	12070041 	andne	r0, r7, #65	; 0x41
    17c0:	0000017a 	andeq	r0, r0, sl, ror r1
    17c4:	00420c04 	subeq	r0, r2, r4, lsl #24
    17c8:	017a1307 	cmneq	sl, r7, lsl #6
    17cc:	0b080000 	bleq	2017d4 <__bss_end__+0x1f6e0c>
    17d0:	00000428 	andeq	r0, r0, r8, lsr #8
    17d4:	017a1607 	cmneq	sl, r7, lsl #12
    17d8:	0b0c0000 	bleq	3017e0 <__bss_end__+0x2f6e18>
    17dc:	00000462 	andeq	r0, r0, r2, ror #8
    17e0:	018f1807 	orreq	r1, pc, r7, lsl #16
    17e4:	0b100000 	bleq	4017ec <__bss_end__+0x3f6e24>
    17e8:	000004cf 	andeq	r0, r0, pc, asr #9
    17ec:	01951f07 	orrseq	r1, r5, r7, lsl #30
    17f0:	0b140000 	bleq	5017f8 <__bss_end__+0x4f6e30>
    17f4:	000004be 			; <UNDEFINED> instruction: 0x000004be
    17f8:	01953107 	orrseq	r3, r5, r7, lsl #2
    17fc:	0b180000 	bleq	601804 <__bss_end__+0x5f6e3c>
    1800:	00000439 	andeq	r0, r0, r9, lsr r4
    1804:	019a3607 	orrseq	r3, sl, r7, lsl #12
    1808:	0b1c0000 	bleq	701810 <__bss_end__+0x6f6e48>
    180c:	0000042d 	andeq	r0, r0, sp, lsr #8
    1810:	019a3a07 	orrseq	r3, sl, r7, lsl #20
    1814:	0b200000 	bleq	80181c <__bss_end__+0x7f6e54>
    1818:	000004d9 	ldrdeq	r0, [r0], -r9
    181c:	01953f07 	orrseq	r3, r5, r7, lsl #30
    1820:	0b240000 	bleq	901828 <__bss_end__+0x8f6e60>
    1824:	0000047a 	andeq	r0, r0, sl, ror r4
    1828:	002c4207 	eoreq	r4, ip, r7, lsl #4
    182c:	0b280000 	bleq	a01834 <__bss_end__+0x9f6e6c>
    1830:	000004b6 			; <UNDEFINED> instruction: 0x000004b6
    1834:	002c4307 	eoreq	r4, ip, r7, lsl #6
    1838:	0b2c0000 	bleq	b01840 <__bss_end__+0xaf6e78>
    183c:	000004a7 	andeq	r0, r0, r7, lsr #9
    1840:	002c4607 	eoreq	r4, ip, r7, lsl #12
    1844:	00300000 	eorseq	r0, r0, r0
    1848:	01680406 	cmneq	r8, r6, lsl #8
    184c:	080d0000 	stmdaeq	sp, {}	; <UNPREDICTABLE>
    1850:	00000174 	andeq	r0, r0, r4, ror r1
    1854:	00017409 	andeq	r7, r1, r9, lsl #8
    1858:	04060000 	streq	r0, [r6], #-0
    185c:	000000bd 	strheq	r0, [r0], -sp
    1860:	01690406 	cmneq	r9, r6, lsl #8
    1864:	250e0000 	strcs	r0, [lr, #-0]
    1868:	8f000000 	svchi	0x00000000
    186c:	09000001 	stmdbeq	r0, {r0}
    1870:	00000174 	andeq	r0, r0, r4, ror r1
    1874:	80040600 	andhi	r0, r4, r0, lsl #12
    1878:	0f000001 	svceq	0x00000001
    187c:	0000002c 	andeq	r0, r0, ip, lsr #32
    1880:	00005d0f 	andeq	r5, r0, pc, lsl #26
    1884:	04930400 	ldreq	r0, [r3], #1024	; 0x400
    1888:	47070000 	strmi	r0, [r7, -r0]
    188c:	000000bd 	strheq	r0, [r0], -sp
    1890:	00024110 	andeq	r4, r2, r0, lsl r1
    1894:	5da60200 	sfmpl	f0, 4, [r6]
    1898:	03000000 	movweq	r0, #0
    189c:	000001c6 	andeq	r0, r0, r6, asr #3
    18a0:	74657211 	strbtvc	r7, [r5], #-529	; 0x211
    18a4:	5da60200 	sfmpl	f0, 4, [r6]
    18a8:	00000000 	andeq	r0, r0, r0
    18ac:	00024a10 	andeq	r4, r2, r0, lsl sl
    18b0:	25070500 	strcs	r0, [r7, #-1280]	; 0x500
    18b4:	03000000 	movweq	r0, #0
    18b8:	000001e2 	andeq	r0, r0, r2, ror #3
    18bc:	0001cf12 	andeq	ip, r1, r2, lsl pc
    18c0:	2c070500 	cfstr32cs	mvfx0, [r7], {-0}
    18c4:	00000000 	andeq	r0, r0, r0
    18c8:	00027510 	andeq	r7, r2, r0, lsl r5
    18cc:	5d260300 	stcpl	3, cr0, [r6, #-0]
    18d0:	03000000 	movweq	r0, #0
    18d4:	000001fe 	strdeq	r0, [r0], -lr
    18d8:	00002613 	andeq	r2, r0, r3, lsl r6
    18dc:	5d270300 	stcpl	3, cr0, [r7, #-0]
    18e0:	00000000 	andeq	r0, r0, r0
    18e4:	00025510 	andeq	r5, r2, r0, lsl r5
    18e8:	2ca90200 	sfmcs	f0, 4, [r9]
    18ec:	03000000 	movweq	r0, #0
    18f0:	00000218 	andeq	r0, r0, r8, lsl r2
    18f4:	02007211 	andeq	r7, r0, #268435457	; 0x10000001
    18f8:	00002caa 	andeq	r2, r0, sl, lsr #25
    18fc:	37140000 	ldrcc	r0, [r4, -r0]
    1900:	01000001 	tsteq	r0, r1
    1904:	0089880b 	addeq	r8, r9, fp, lsl #16
    1908:	00019800 	andeq	r9, r1, r0, lsl #16
    190c:	599c0100 	ldmibpl	ip, {r8}
    1910:	15000004 	strne	r0, [r0, #-4]
    1914:	00000232 	andeq	r0, r0, r2, lsr r2
    1918:	00b70b01 	adcseq	r0, r7, r1, lsl #22
    191c:	06810000 	streq	r0, [r1], r0
    1920:	70160000 	andsvc	r0, r6, r0
    1924:	0b010063 	bleq	41ab8 <__bss_end__+0x370f0>
    1928:	0000005d 	andeq	r0, r0, sp, asr r0
    192c:	000006a2 	andeq	r0, r0, r2, lsr #13
    1930:	00043415 	andeq	r3, r4, r5, lsl r4
    1934:	5d0b0100 	stfpls	f0, [fp, #-0]
    1938:	ce000000 	cdpgt	0, 0, cr0, cr0, cr0, {0}
    193c:	17000006 	strne	r0, [r0, -r6]
    1940:	0000012a 	andeq	r0, r0, sl, lsr #2
    1944:	00000469 	andeq	r0, r0, r9, ror #8
    1948:	a33c0305 	teqge	ip, #335544320	; 0x14000000
    194c:	63180000 	tstvs	r8, #0
    1950:	6e100100 	mufvss	f0, f0, f0
    1954:	ef000004 	svc	0x00000004
    1958:	19000006 	stmdbne	r0, {r1, r2}
    195c:	000001fe 	strdeq	r0, [r0], -lr
    1960:	000089bc 			; <UNDEFINED> instruction: 0x000089bc
    1964:	00000008 	andeq	r0, r0, r8
    1968:	02bb0d01 	adcseq	r0, fp, #1, 26	; 0x40
    196c:	bc1a0000 	ldclt	0, cr0, [sl], {-0}
    1970:	08000089 	stmdaeq	r0, {r0, r3, r7}
    1974:	1b000000 	blne	197c <__code_start__-0x6684>
    1978:	0000020e 	andeq	r0, r0, lr, lsl #4
    197c:	0001aa1c 	andeq	sl, r1, ip, lsl sl
    1980:	0089bc00 	addeq	fp, r9, r0, lsl #24
    1984:	00000400 	andeq	r0, r0, r0, lsl #8
    1988:	1aaa0200 	bne	fea82190 <__bss_end__+0xfea777c8>
    198c:	000089bc 			; <UNDEFINED> instruction: 0x000089bc
    1990:	00000004 	andeq	r0, r0, r4
    1994:	0001ba1d 	andeq	fp, r1, sp, lsl sl
    1998:	00070200 	andeq	r0, r7, r0, lsl #4
    199c:	00000000 	andeq	r0, r0, r0
    19a0:	89bc1e00 	ldmibhi	ip!, {r9, sl, fp, ip}
    19a4:	0e680000 	cdpeq	0, 6, cr0, cr8, cr0, {0}
    19a8:	02f00000 	rscseq	r0, r0, #0
    19ac:	011f0000 	tsteq	pc, r0
    19b0:	1f3c0153 	svcne	0x003c0153
    19b4:	03055201 	movweq	r5, #20993	; 0x5201
    19b8:	0000a33c 	andeq	sl, r0, ip, lsr r3
    19bc:	0551011f 	ldrbeq	r0, [r1, #-287]	; 0x11f
    19c0:	00a16c03 	adceq	r6, r1, r3, lsl #24
    19c4:	50011f00 	andpl	r1, r1, r0, lsl #30
    19c8:	a14c0305 	cmpge	ip, r5, lsl #6
    19cc:	021f0000 	andseq	r0, pc, #0
    19d0:	7502007d 	strvc	r0, [r2, #-125]	; 0x7d
    19d4:	d0200000 	eorle	r0, r0, r0
    19d8:	7e000089 	cdpvc	0, 0, cr0, cr0, cr9, {4}
    19dc:	1e00000e 	cdpne	0, 0, cr0, cr0, cr14, {0}
    19e0:	000089e4 	andeq	r8, r0, r4, ror #19
    19e4:	00000e68 	andeq	r0, r0, r8, ror #28
    19e8:	00000327 	andeq	r0, r0, r7, lsr #6
    19ec:	0153011f 	cmpeq	r3, pc, lsl r1
    19f0:	52011f3e 	andpl	r1, r1, #62, 30	; 0xf8
    19f4:	a33c0305 	teqge	ip, #335544320	; 0x14000000
    19f8:	011f0000 	tsteq	pc, r0
    19fc:	6c030551 	cfstr32vs	mvfx0, [r3], {81}	; 0x51
    1a00:	1f0000a1 	svcne	0x000000a1
    1a04:	03055001 	movweq	r5, #20481	; 0x5001
    1a08:	00009e0c 	andeq	r9, r0, ip, lsl #28
    1a0c:	89e82000 	stmibhi	r8!, {sp}^
    1a10:	0e850000 	cdpeq	0, 8, cr0, cr5, cr0, {0}
    1a14:	101e0000 	andsne	r0, lr, r0
    1a18:	6800008a 	stmdavs	r0, {r1, r3, r7}
    1a1c:	4d00000e 	stcmi	0, cr0, [r0, #-56]	; 0xffffffc8
    1a20:	1f000003 	svcne	0x00000003
    1a24:	75025101 	strvc	r5, [r2, #-257]	; 0x101
    1a28:	50011f00 	andpl	r1, r1, r0, lsl #30
    1a2c:	a1800305 	orrge	r0, r0, r5, lsl #6
    1a30:	1e000000 	cdpne	0, 0, cr0, cr0, cr0, {0}
    1a34:	00008a18 	andeq	r8, r0, r8, lsl sl
    1a38:	00000e8c 	andeq	r0, r0, ip, lsl #29
    1a3c:	00000361 	andeq	r0, r0, r1, ror #6
    1a40:	0250011f 	subseq	r0, r0, #-1073741817	; 0xc0000007
    1a44:	21000075 	tstcs	r0, r5, ror r0
    1a48:	00008a3c 	andeq	r8, r0, ip, lsr sl
    1a4c:	00000371 	andeq	r0, r0, r1, ror r3
    1a50:	0250011f 	subseq	r0, r0, #-1073741817	; 0xc0000007
    1a54:	1e000074 	mcrne	0, 0, r0, cr0, cr4, {3}
    1a58:	00008a44 	andeq	r8, r0, r4, asr #20
    1a5c:	00000e68 	andeq	r0, r0, r8, ror #28
    1a60:	00000388 	andeq	r0, r0, r8, lsl #7
    1a64:	0550011f 	ldrbeq	r0, [r0, #-287]	; 0x11f
    1a68:	00a1a003 	adceq	sl, r1, r3
    1a6c:	5c200000 	stcpl	0, cr0, [r0], #-0
    1a70:	7e00008a 	cdpvc	0, 0, cr0, cr0, cr10, {4}
    1a74:	1e00000e 	cdpne	0, 0, cr0, cr0, cr14, {0}
    1a78:	00008a78 	andeq	r8, r0, r8, ror sl
    1a7c:	00000e68 	andeq	r0, r0, r8, ror #28
    1a80:	000003ca 	andeq	r0, r0, sl, asr #7
    1a84:	0253011f 	subseq	r0, r3, #-1073741817	; 0xc0000007
    1a88:	011f2108 	tsteq	pc, r8, lsl #2
    1a8c:	3c030552 	cfstr32cc	mvfx0, [r3], {82}	; 0x52
    1a90:	1f0000a3 	svcne	0x000000a3
    1a94:	03055101 	movweq	r5, #20737	; 0x5101
    1a98:	0000a16c 	andeq	sl, r0, ip, ror #2
    1a9c:	0550011f 	ldrbeq	r0, [r0, #-287]	; 0x11f
    1aa0:	009d4c03 	addseq	r4, sp, r3, lsl #24
    1aa4:	7d021f00 	stcvc	15, cr1, [r2, #-0]
    1aa8:	c8030500 	stmdagt	r3, {r8, sl}
    1aac:	000000a1 	andeq	r0, r0, r1, lsr #1
    1ab0:	008a7c20 	addeq	r7, sl, r0, lsr #24
    1ab4:	000e8500 	andeq	r8, lr, r0, lsl #10
    1ab8:	8ab01e00 	bhi	fec092c0 <__bss_end__+0xfebfe8f8>
    1abc:	0e680000 	cdpeq	0, 6, cr0, cr8, cr0, {0}
    1ac0:	04090000 	streq	r0, [r9], #-0
    1ac4:	011f0000 	tsteq	pc, r0
    1ac8:	24080253 	strcs	r0, [r8], #-595	; 0x253
    1acc:	0552011f 	ldrbeq	r0, [r2, #-287]	; 0x11f
    1ad0:	00a33c03 	adceq	r3, r3, r3, lsl #24
    1ad4:	51011f00 	tstpl	r1, r0, lsl #30
    1ad8:	a16c0305 	cmnge	ip, r5, lsl #6
    1adc:	011f0000 	tsteq	pc, r0
    1ae0:	70030550 	andvc	r0, r3, r0, asr r5
    1ae4:	1f00009e 	svcne	0x0000009e
    1ae8:	02007d02 	andeq	r7, r0, #2, 26	; 0x80
    1aec:	1e000075 	mcrne	0, 0, r0, cr0, cr5, {3}
    1af0:	00008abc 			; <UNDEFINED> instruction: 0x00008abc
    1af4:	00000e9d 	muleq	r0, sp, lr
    1af8:	00000426 	andeq	r0, r0, r6, lsr #8
    1afc:	0551011f 	ldrbeq	r0, [r1, #-287]	; 0x11f
    1b00:	00898803 	addeq	r8, r9, r3, lsl #16
    1b04:	50011f00 	andpl	r1, r1, r0, lsl #30
    1b08:	00007502 	andeq	r7, r0, r2, lsl #10
    1b0c:	008ae422 	addeq	lr, sl, r2, lsr #8
    1b10:	000e6800 	andeq	r6, lr, r0, lsl #16
    1b14:	53011f00 	movwpl	r1, #7936	; 0x1f00
    1b18:	1f260802 	svcne	0x00260802
    1b1c:	03055201 	movweq	r5, #20993	; 0x5201
    1b20:	0000a33c 	andeq	sl, r0, ip, lsr r3
    1b24:	0551011f 	ldrbeq	r0, [r1, #-287]	; 0x11f
    1b28:	00a16c03 	adceq	r6, r1, r3, lsl #24
    1b2c:	50011f00 	andpl	r1, r1, r0, lsl #30
    1b30:	9e980305 	cdpls	3, 9, cr0, cr8, cr5, {0}
    1b34:	021f0000 	andseq	r0, pc, #0
    1b38:	7502007d 	strvc	r0, [r2, #-125]	; 0x7d
    1b3c:	23000000 	movwcs	r0, #0
    1b40:	0000007f 	andeq	r0, r0, pc, ror r0
    1b44:	00000469 	andeq	r0, r0, r9, ror #8
    1b48:	00007624 	andeq	r7, r0, r4, lsr #12
    1b4c:	07001300 	streq	r1, [r0, -r0, lsl #6]
    1b50:	00000459 	andeq	r0, r0, r9, asr r4
    1b54:	019f0406 	orrseq	r0, pc, r6, lsl #8
    1b58:	d1100000 	tstle	r0, r0
    1b5c:	05000000 	streq	r0, [r0, #-0]
    1b60:	00005d14 	andeq	r5, r0, r4, lsl sp
    1b64:	04a80300 	strteq	r0, [r8], #768	; 0x300
    1b68:	26120000 	ldrcs	r0, [r2], -r0
    1b6c:	05000000 	streq	r0, [r0, #-0]
    1b70:	00005d14 	andeq	r5, r0, r4, lsl sp
    1b74:	01cf1200 	biceq	r1, pc, r0, lsl #4
    1b78:	14050000 	strne	r0, [r5], #-0
    1b7c:	0000002c 	andeq	r0, r0, ip, lsr #32
    1b80:	00012a25 	andeq	r2, r1, r5, lsr #20
    1b84:	0004b800 	andeq	fp, r4, r0, lsl #16
    1b88:	0000d100 	andeq	sp, r0, r0, lsl #2
    1b8c:	7f230000 	svcvc	0x00230000
    1b90:	b8000000 	stmdalt	r0, {}	; <UNPREDICTABLE>
    1b94:	24000004 	strcs	r0, [r0], #-4
    1b98:	00000076 	andeq	r0, r0, r6, ror r0
    1b9c:	a8070008 	stmdage	r7, {r3}
    1ba0:	10000004 	andne	r0, r0, r4
    1ba4:	0000010e 	andeq	r0, r0, lr, lsl #2
    1ba8:	005d2504 	subseq	r2, sp, r4, lsl #10
    1bac:	0c030000 	stceq	0, cr0, [r3], {-0}
    1bb0:	26000005 	strcs	r0, [r0], -r5
    1bb4:	25040078 	strcs	r0, [r4, #-120]	; 0x78
    1bb8:	0000005d 	andeq	r0, r0, sp, asr r0
    1bbc:	00626c26 	rsbeq	r6, r2, r6, lsr #24
    1bc0:	002c2504 	eoreq	r2, ip, r4, lsl #10
    1bc4:	75260000 	strvc	r0, [r6, #-0]!
    1bc8:	25040062 	strcs	r0, [r4, #-98]	; 0x62
    1bcc:	0000002c 	andeq	r0, r0, ip, lsr #32
    1bd0:	00012a25 	andeq	r2, r1, r5, lsr #20
    1bd4:	00050c00 	andeq	r0, r5, r0, lsl #24
    1bd8:	00010e00 	andeq	r0, r1, r0, lsl #28
    1bdc:	006e1100 	rsbeq	r1, lr, r0, lsl #2
    1be0:	002c2804 	eoreq	r2, ip, r4, lsl #16
    1be4:	16130000 	ldrne	r0, [r3], -r0
    1be8:	04000002 	streq	r0, [r0], #-2
    1bec:	00002c2a 	andeq	r2, r0, sl, lsr #24
    1bf0:	a8070000 	stmdage	r7, {}	; <UNPREDICTABLE>
    1bf4:	10000004 	andne	r0, r0, r4
    1bf8:	0000002b 	andeq	r0, r0, fp, lsr #32
    1bfc:	00861805 	addeq	r1, r6, r5, lsl #16
    1c00:	3a030000 	bcc	c1c08 <__bss_end__+0xb7240>
    1c04:	12000005 	andne	r0, r0, #5
    1c08:	00000026 	andeq	r0, r0, r6, lsr #32
    1c0c:	005d1805 	subseq	r1, sp, r5, lsl #16
    1c10:	2a250000 	bcs	941c18 <__bss_end__+0x937250>
    1c14:	3a000001 	bcc	1c20 <__code_start__-0x63e0>
    1c18:	2b000005 	blcs	1c34 <__code_start__-0x63cc>
    1c1c:	00000000 	andeq	r0, r0, r0
    1c20:	0004a807 	andeq	sl, r4, r7, lsl #16
    1c24:	00001000 	andeq	r1, r0, r0
    1c28:	0f050000 	svceq	0x00050000
    1c2c:	0000005d 	andeq	r0, r0, sp, asr r0
    1c30:	00057303 	andeq	r7, r5, r3, lsl #6
    1c34:	00261200 	eoreq	r1, r6, r0, lsl #4
    1c38:	0f050000 	svceq	0x00050000
    1c3c:	0000005d 	andeq	r0, r0, sp, asr r0
    1c40:	0001cf13 	andeq	ip, r1, r3, lsl pc
    1c44:	2c100500 	cfldr32cs	mvfx0, [r0], {-0}
    1c48:	25000000 	strcs	r0, [r0, #-0]
    1c4c:	0000012a 	andeq	r0, r0, sl, lsr #2
    1c50:	00000573 	andeq	r0, r0, r3, ror r5
    1c54:	00000000 	andeq	r0, r0, r0
    1c58:	04a80700 	strteq	r0, [r8], #1792	; 0x700
    1c5c:	1d100000 	ldcne	0, cr0, [r0, #-0]
    1c60:	04000000 	streq	r0, [r0], #-0
    1c64:	00005d1c 	andeq	r5, r0, ip, lsl sp
    1c68:	05bc0300 	ldreq	r0, [ip, #768]!	; 0x300
    1c6c:	78260000 	stmdavc	r6!, {}	; <UNPREDICTABLE>
    1c70:	5d1c0400 	cfldrspl	mvf0, [ip, #-0]
    1c74:	26000000 	strcs	r0, [r0], -r0
    1c78:	0400626c 	streq	r6, [r0], #-620	; 0x26c
    1c7c:	00002c1c 	andeq	r2, r0, ip, lsl ip
    1c80:	62752600 	rsbsvs	r2, r5, #0, 12
    1c84:	2c1c0400 	cfldrscs	mvf0, [ip], {-0}
    1c88:	25000000 	strcs	r0, [r0, #-0]
    1c8c:	0000012a 	andeq	r0, r0, sl, lsr #2
    1c90:	000005bc 			; <UNDEFINED> instruction: 0x000005bc
    1c94:	0000001d 	andeq	r0, r0, sp, lsl r0
    1c98:	04006e11 	streq	r6, [r0], #-3601	; 0xe11
    1c9c:	00002c1f 	andeq	r2, r0, pc, lsl ip
    1ca0:	a8070000 	stmdage	r7, {}	; <UNPREDICTABLE>
    1ca4:	27000004 	strcs	r0, [r0, -r4]
    1ca8:	00000468 	andeq	r0, r0, r8, ror #8
    1cac:	002c2a01 	eoreq	r2, ip, r1, lsl #20
    1cb0:	8b200000 	blhi	801cb8 <__bss_end__+0x7f72f0>
    1cb4:	04c80000 	strbeq	r0, [r8], #0
    1cb8:	9c010000 	stcls	0, cr0, [r1], {-0}
    1cbc:	00000cc4 	andeq	r0, r0, r4, asr #25
    1cc0:	01006316 	tsteq	r0, r6, lsl r3
    1cc4:	00046e2a 	andeq	r6, r4, sl, lsr #28
    1cc8:	00071500 	andeq	r1, r7, r0, lsl #10
    1ccc:	00da2800 	sbcseq	r2, sl, r0, lsl #16
    1cd0:	2b010000 	blcs	41cd8 <__bss_end__+0x37310>
    1cd4:	0000005d 	andeq	r0, r0, sp, asr r0
    1cd8:	9d135801 	ldcls	8, cr5, [r3, #-4]
    1cdc:	01000004 	tsteq	r0, r4
    1ce0:	00005d2c 	andeq	r5, r0, ip, lsr #26
    1ce4:	012a1700 	teqeq	sl, r0, lsl #14
    1ce8:	0cd40000 	ldcleq	0, cr0, [r4], {0}
    1cec:	03050000 	movweq	r0, #20480	; 0x5000
    1cf0:	0000a328 	andeq	sl, r0, r8, lsr #6
    1cf4:	0001e219 	andeq	lr, r1, r9, lsl r2
    1cf8:	008b2c00 	addeq	r2, fp, r0, lsl #24
    1cfc:	00000400 	andeq	r0, r0, r0, lsl #8
    1d00:	352b0100 	strcc	r0, [fp, #-256]!	; 0x100
    1d04:	1a000006 	bne	1d24 <__code_start__-0x62dc>
    1d08:	00008b2c 	andeq	r8, r0, ip, lsr #22
    1d0c:	00000004 	andeq	r0, r0, r4
    1d10:	0001f21d 	andeq	pc, r1, sp, lsl r2	; <UNPREDICTABLE>
    1d14:	00074100 	andeq	r4, r7, r0, lsl #2
    1d18:	19000000 	stmdbne	r0, {}	; <UNPREDICTABLE>
    1d1c:	00000474 	andeq	r0, r0, r4, ror r4
    1d20:	00008b30 	andeq	r8, r0, r0, lsr fp
    1d24:	00000008 	andeq	r0, r0, r8
    1d28:	06b32c01 	ldrteq	r2, [r3], r1, lsl #24
    1d2c:	8f290000 	svchi	0x00290000
    1d30:	10000004 	andne	r0, r0, r4
    1d34:	0004842a 	andeq	r8, r4, sl, lsr #8
    1d38:	00074100 	andeq	r4, r7, r0, lsl #2
    1d3c:	8b301a00 	blhi	c08544 <__bss_end__+0xbfdb7c>
    1d40:	00080000 	andeq	r0, r8, r0
    1d44:	9a2b0000 	bls	ac1d4c <__bss_end__+0xab7384>
    1d48:	05000004 	streq	r0, [r0, #-4]
    1d4c:	00a35003 	adceq	r5, r3, r3
    1d50:	04bd1c00 	ldrteq	r1, [sp], #3072	; 0xc00
    1d54:	8b300000 	blhi	c01d5c <__bss_end__+0xbf7394>
    1d58:	00040000 	andeq	r0, r4, r0
    1d5c:	16050000 	strne	r0, [r5], -r0
    1d60:	0004e029 	andeq	lr, r4, r9, lsr #32
    1d64:	d6290400 	strtle	r0, [r9], -r0, lsl #8
    1d68:	00000004 	andeq	r0, r0, r4
    1d6c:	0004cd2a 	andeq	ip, r4, sl, lsr #26
    1d70:	00074100 	andeq	r4, r7, r0, lsl #2
    1d74:	8b301a00 	blhi	c0857c <__bss_end__+0xbfdbb4>
    1d78:	00040000 	andeq	r0, r4, r0
    1d7c:	f72c0000 			; <UNDEFINED> instruction: 0xf72c0000
    1d80:	05000004 	streq	r0, [r0, #-4]
    1d84:	0005002c 	andeq	r0, r5, ip, lsr #32
    1d88:	ea2b1f00 	b	ac9990 <__bss_end__+0xabefc8>
    1d8c:	05000004 	streq	r0, [r0, #-4]
    1d90:	00a35c03 	adceq	r5, r3, r3, lsl #24
    1d94:	00000000 	andeq	r0, r0, r0
    1d98:	05111900 	ldreq	r1, [r1, #-2304]	; 0x900
    1d9c:	8c1c0000 	ldchi	0, cr0, [ip], {-0}
    1da0:	01100000 	tsteq	r0, r0
    1da4:	4e010000 	cdpmi	0, 0, cr0, cr1, cr0, {0}
    1da8:	0000080b 	andeq	r0, r0, fp, lsl #16
    1dac:	0005212a 	andeq	r2, r5, sl, lsr #2
    1db0:	00075400 	andeq	r5, r7, r0, lsl #8
    1db4:	8c1c1a00 	ldchi	10, cr1, [ip], {-0}
    1db8:	01100000 	tsteq	r0, r0
    1dbc:	2c2b0000 	stccs	0, cr0, [fp], #-0
    1dc0:	05000005 	streq	r0, [r0, #-5]
    1dc4:	00a36803 	adceq	r6, r3, r3, lsl #16
    1dc8:	053f1900 	ldreq	r1, [pc, #-2304]!	; 14d0 <__code_start__-0x6b30>
    1dcc:	8c1c0000 	ldchi	0, cr0, [ip], {-0}
    1dd0:	006c0000 	rsbeq	r0, ip, r0
    1dd4:	19050000 	stmdbne	r5, {}	; <UNPREDICTABLE>
    1dd8:	000007c1 	andeq	r0, r0, r1, asr #15
    1ddc:	00054f2a 	andeq	r4, r5, sl, lsr #30
    1de0:	00075400 	andeq	r5, r7, r0, lsl #8
    1de4:	8c1c1a00 	ldchi	10, cr1, [ip], {-0}
    1de8:	006c0000 	rsbeq	r0, ip, r0
    1dec:	5a1b0000 	bpl	6c1df4 <__bss_end__+0x6b742c>
    1df0:	2b000005 	blcs	1e0c <__code_start__-0x61f4>
    1df4:	00000565 	andeq	r0, r0, r5, ror #10
    1df8:	a3740305 	cmnge	r4, #335544320	; 0x14000000
    1dfc:	78190000 	ldmdavc	r9, {}	; <UNPREDICTABLE>
    1e00:	1c000005 	stcne	0, cr0, [r0], {5}
    1e04:	0400008c 	streq	r0, [r0], #-140	; 0x8c
    1e08:	05000000 	streq	r0, [r0, #-0]
    1e0c:	00075c10 	andeq	r5, r7, r0, lsl ip
    1e10:	059b2900 	ldreq	r2, [fp, #2304]	; 0x900
    1e14:	29040000 	stmdbcs	r4, {}	; <UNPREDICTABLE>
    1e18:	00000591 	muleq	r0, r1, r5
    1e1c:	05882a00 	streq	r2, [r8, #2560]	; 0xa00
    1e20:	07540000 	ldrbeq	r0, [r4, -r0]
    1e24:	1c1a0000 	ldcne	0, cr0, [sl], {-0}
    1e28:	0400008c 	streq	r0, [r0], #-140	; 0x8c
    1e2c:	2c000000 	stccs	0, cr0, [r0], {-0}
    1e30:	000005b2 			; <UNDEFINED> instruction: 0x000005b2
    1e34:	05a52b05 	streq	r2, [r5, #2821]!	; 0xb05
    1e38:	03050000 	movweq	r0, #20480	; 0x5000
    1e3c:	0000a380 	andeq	sl, r0, r0, lsl #7
    1e40:	c6190000 	ldrgt	r0, [r9], -r0
    1e44:	20000001 	andcs	r0, r0, r1
    1e48:	3c00008c 	stccc	0, cr0, [r0], {140}	; 0x8c
    1e4c:	05000000 	streq	r0, [r0, #-0]
    1e50:	00077511 	andeq	r7, r7, r1, lsl r5
    1e54:	01d62d00 	bicseq	r2, r6, r0, lsl #26
    1e58:	20000000 	andcs	r0, r0, r0
    1e5c:	00008c68 	andeq	r8, r0, r8, ror #24
    1e60:	00000e7e 	andeq	r0, r0, lr, ror lr
    1e64:	008c841e 	addeq	r8, ip, lr, lsl r4
    1e68:	000e6800 	andeq	r6, lr, r0, lsl #16
    1e6c:	0007b600 	andeq	fp, r7, r0, lsl #12
    1e70:	53011f00 	movwpl	r1, #7936	; 0x1f00
    1e74:	011f4101 	tsteq	pc, r1, lsl #2
    1e78:	74030552 	strvc	r0, [r3], #-1362	; 0x552
    1e7c:	1f0000a3 	svcne	0x000000a3
    1e80:	03055101 	movweq	r5, #20737	; 0x5101
    1e84:	0000a2a0 	andeq	sl, r0, r0, lsr #5
    1e88:	0550011f 	ldrbeq	r0, [r0, #-287]	; 0x11f
    1e8c:	009d4c03 	addseq	r4, sp, r3, lsl #24
    1e90:	7d021f00 	stcvc	15, cr1, [r2, #-0]
    1e94:	70030500 	andvc	r0, r3, r0, lsl #10
    1e98:	0000009d 	muleq	r0, sp, r0
    1e9c:	008c8820 	addeq	r8, ip, r0, lsr #16
    1ea0:	000e8500 	andeq	r8, lr, r0, lsl #10
    1ea4:	20000000 	andcs	r0, r0, r0
    1ea8:	00008d04 	andeq	r8, r0, r4, lsl #26
    1eac:	00000e7e 	andeq	r0, r0, lr, ror lr
    1eb0:	008d1c1e 	addeq	r1, sp, lr, lsl ip
    1eb4:	000e6800 	andeq	r6, lr, r0, lsl #16
    1eb8:	00080000 	andeq	r0, r8, r0
    1ebc:	53011f00 	movwpl	r1, #7936	; 0x1f00
    1ec0:	1f210802 	svcne	0x00210802
    1ec4:	03055201 	movweq	r5, #20993	; 0x5201
    1ec8:	0000a368 	andeq	sl, r0, r8, ror #6
    1ecc:	0551011f 	ldrbeq	r0, [r1, #-287]	; 0x11f
    1ed0:	00a2a003 	adceq	sl, r2, r3
    1ed4:	50011f00 	andpl	r1, r1, r0, lsl #30
    1ed8:	9d840305 	stcls	3, cr0, [r4, #20]
    1edc:	021f0000 	andseq	r0, pc, #0
    1ee0:	7802007d 	stmdavc	r2, {r0, r2, r3, r4, r5, r6}
    1ee4:	20200000 	eorcs	r0, r0, r0
    1ee8:	8500008d 	strhi	r0, [r0, #-141]	; 0x8d
    1eec:	0000000e 	andeq	r0, r0, lr
    1ef0:	01e21900 	mvneq	r1, r0, lsl #18
    1ef4:	8d380000 	ldchi	0, cr0, [r8, #-0]
    1ef8:	00040000 	andeq	r0, r4, r0
    1efc:	4f010000 	svcmi	0x00010000
    1f00:	00000832 	andeq	r0, r0, r2, lsr r8
    1f04:	008d381a 	addeq	r3, sp, sl, lsl r8
    1f08:	00000400 	andeq	r0, r0, r0, lsl #8
    1f0c:	01f21d00 	mvnseq	r1, r0, lsl #26
    1f10:	07670000 	strbeq	r0, [r7, -r0]!
    1f14:	00000000 	andeq	r0, r0, r0
    1f18:	00051119 	andeq	r1, r5, r9, lsl r1
    1f1c:	008d3c00 	addeq	r3, sp, r0, lsl #24
    1f20:	00011000 	andeq	r1, r1, r0
    1f24:	8a4f0100 	bhi	13c232c <__bss_end__+0x13b7964>
    1f28:	2a000009 	bcs	1f54 <__code_start__-0x60ac>
    1f2c:	00000521 	andeq	r0, r0, r1, lsr #10
    1f30:	00000767 	andeq	r0, r0, r7, ror #14
    1f34:	008d3c1a 	addeq	r3, sp, sl, lsl ip
    1f38:	00011000 	andeq	r1, r1, r0
    1f3c:	052c2b00 	streq	r2, [ip, #-2816]!	; 0xb00
    1f40:	03050000 	movweq	r0, #20480	; 0x5000
    1f44:	0000a368 	andeq	sl, r0, r8, ror #6
    1f48:	00053f19 	andeq	r3, r5, r9, lsl pc
    1f4c:	008d3c00 	addeq	r3, sp, r0, lsl #24
    1f50:	00006c00 	andeq	r6, r0, r0, lsl #24
    1f54:	40190500 	andsmi	r0, r9, r0, lsl #10
    1f58:	2a000009 	bcs	1f84 <__code_start__-0x607c>
    1f5c:	0000054f 	andeq	r0, r0, pc, asr #10
    1f60:	00000767 	andeq	r0, r0, r7, ror #14
    1f64:	008d3c1a 	addeq	r3, sp, sl, lsl ip
    1f68:	00006c00 	andeq	r6, r0, r0, lsl #24
    1f6c:	055a1b00 	ldrbeq	r1, [sl, #-2816]	; 0xb00
    1f70:	652b0000 	strvs	r0, [fp, #-0]!
    1f74:	05000005 	streq	r0, [r0, #-5]
    1f78:	00a37403 	adceq	r7, r3, r3, lsl #8
    1f7c:	05781900 	ldrbeq	r1, [r8, #-2304]!	; 0x900
    1f80:	8d3c0000 	ldchi	0, cr0, [ip, #-0]
    1f84:	00040000 	andeq	r0, r4, r0
    1f88:	10050000 	andne	r0, r5, r0
    1f8c:	000008db 	ldrdeq	r0, [r0], -fp
    1f90:	00059b29 	andeq	r9, r5, r9, lsr #22
    1f94:	91290400 	teqls	r9, r0, lsl #8
    1f98:	00000005 	andeq	r0, r0, r5
    1f9c:	0005882a 	andeq	r8, r5, sl, lsr #16
    1fa0:	00076700 	andeq	r6, r7, r0, lsl #14
    1fa4:	8d3c1a00 	vldmdbhi	ip!, {s2-s1}
    1fa8:	00040000 	andeq	r0, r4, r0
    1fac:	b22c0000 	eorlt	r0, ip, #0
    1fb0:	05000005 	streq	r0, [r0, #-5]
    1fb4:	0005a52b 	andeq	sl, r5, fp, lsr #10
    1fb8:	80030500 	andhi	r0, r3, r0, lsl #10
    1fbc:	000000a3 	andeq	r0, r0, r3, lsr #1
    1fc0:	01c61900 	biceq	r1, r6, r0, lsl #18
    1fc4:	8d400000 	stclhi	0, cr0, [r0, #-0]
    1fc8:	003c0000 	eorseq	r0, ip, r0
    1fcc:	11050000 	mrsne	r0, (UNDEF: 5)
    1fd0:	000008f4 	strdeq	r0, [r0], -r4
    1fd4:	0001d62d 	andeq	sp, r1, sp, lsr #12
    1fd8:	88200000 	stmdahi	r0!, {}	; <UNPREDICTABLE>
    1fdc:	7e00008d 	cdpvc	0, 0, cr0, cr0, cr13, {4}
    1fe0:	1e00000e 	cdpne	0, 0, cr0, cr0, cr14, {0}
    1fe4:	00008da4 	andeq	r8, r0, r4, lsr #27
    1fe8:	00000e68 	andeq	r0, r0, r8, ror #28
    1fec:	00000935 	andeq	r0, r0, r5, lsr r9
    1ff0:	0153011f 	cmpeq	r3, pc, lsl r1
    1ff4:	52011f41 	andpl	r1, r1, #260	; 0x104
    1ff8:	a3740305 	cmnge	r4, #335544320	; 0x14000000
    1ffc:	011f0000 	tsteq	pc, r0
    2000:	a0030551 	andge	r0, r3, r1, asr r5
    2004:	1f0000a2 	svcne	0x000000a2
    2008:	03055001 	movweq	r5, #20481	; 0x5001
    200c:	00009d4c 	andeq	r9, r0, ip, asr #26
    2010:	007d021f 	rsbseq	r0, sp, pc, lsl r2
    2014:	9d700305 	ldclls	3, cr0, [r0, #-20]!	; 0xffffffec
    2018:	20000000 	andcs	r0, r0, r0
    201c:	00008da8 	andeq	r8, r0, r8, lsr #27
    2020:	00000e85 	andeq	r0, r0, r5, lsl #29
    2024:	24200000 	strtcs	r0, [r0], #-0
    2028:	7e00008e 	cdpvc	0, 0, cr0, cr0, cr14, {4}
    202c:	1e00000e 	cdpne	0, 0, cr0, cr0, cr14, {0}
    2030:	00008e3c 	andeq	r8, r0, ip, lsr lr
    2034:	00000e68 	andeq	r0, r0, r8, ror #28
    2038:	0000097f 	andeq	r0, r0, pc, ror r9
    203c:	0253011f 	subseq	r0, r3, #-1073741817	; 0xc0000007
    2040:	011f2108 	tsteq	pc, r8, lsl #2
    2044:	68030552 	stmdavs	r3, {r1, r4, r6, r8, sl}
    2048:	1f0000a3 	svcne	0x000000a3
    204c:	03055101 	movweq	r5, #20737	; 0x5101
    2050:	0000a2a0 	andeq	sl, r0, r0, lsr #5
    2054:	0550011f 	ldrbeq	r0, [r0, #-287]	; 0x11f
    2058:	009d8403 	addseq	r8, sp, r3, lsl #8
    205c:	7d021f00 	stcvc	15, cr1, [r2, #-0]
    2060:	00750200 	rsbseq	r0, r5, r0, lsl #4
    2064:	8e402000 	cdphi	0, 4, cr2, cr0, cr0, {0}
    2068:	0e850000 	cdpeq	0, 8, cr0, cr5, cr0, {0}
    206c:	00000000 	andeq	r0, r0, r0
    2070:	0001e219 	andeq	lr, r1, r9, lsl r2
    2074:	008e4c00 	addeq	r4, lr, r0, lsl #24
    2078:	00000400 	andeq	r0, r0, r0, lsl #8
    207c:	ad4f0100 	stfgee	f0, [pc, #-0]	; 2084 <__code_start__-0x5f7c>
    2080:	1a000009 	bne	20ac <__code_start__-0x5f54>
    2084:	00008e4c 	andeq	r8, r0, ip, asr #28
    2088:	00000004 	andeq	r0, r0, r4
    208c:	0001f21b 	andeq	pc, r1, fp, lsl r2	; <UNPREDICTABLE>
    2090:	19000000 	stmdbne	r0, {}	; <UNPREDICTABLE>
    2094:	0000053f 	andeq	r0, r0, pc, lsr r5
    2098:	00008e60 	andeq	r8, r0, r0, ror #28
    209c:	0000006c 	andeq	r0, r0, ip, rrx
    20a0:	0a8b5301 	beq	fe2d6cac <__bss_end__+0xfe2cc2e4>
    20a4:	4f2a0000 	svcmi	0x002a0000
    20a8:	7a000005 	bvc	20c4 <__code_start__-0x5f3c>
    20ac:	1a000007 	bne	20d0 <__code_start__-0x5f30>
    20b0:	00008e60 	andeq	r8, r0, r0, ror #28
    20b4:	0000006c 	andeq	r0, r0, ip, rrx
    20b8:	00055a1b 	andeq	r5, r5, fp, lsl sl
    20bc:	05652b00 	strbeq	r2, [r5, #-2816]!	; 0xb00
    20c0:	03050000 	movweq	r0, #20480	; 0x5000
    20c4:	0000a374 	andeq	sl, r0, r4, ror r3
    20c8:	00057819 	andeq	r7, r5, r9, lsl r8
    20cc:	008e6000 	addeq	r6, lr, r0
    20d0:	00000400 	andeq	r0, r0, r0, lsl #8
    20d4:	26100500 	ldrcs	r0, [r0], -r0, lsl #10
    20d8:	2900000a 	stmdbcs	r0, {r1, r3}
    20dc:	0000059b 	muleq	r0, fp, r5
    20e0:	05912904 	ldreq	r2, [r1, #2308]	; 0x904
    20e4:	2a000000 	bcs	20ec <__code_start__-0x5f14>
    20e8:	00000588 	andeq	r0, r0, r8, lsl #11
    20ec:	0000077a 	andeq	r0, r0, sl, ror r7
    20f0:	008e601a 	addeq	r6, lr, sl, lsl r0
    20f4:	00000400 	andeq	r0, r0, r0, lsl #8
    20f8:	05b22c00 	ldreq	r2, [r2, #3072]!	; 0xc00
    20fc:	2b050000 	blcs	142104 <__bss_end__+0x13773c>
    2100:	000005a5 	andeq	r0, r0, r5, lsr #11
    2104:	a3800305 	orrge	r0, r0, #335544320	; 0x14000000
    2108:	00000000 	andeq	r0, r0, r0
    210c:	0001c619 	andeq	ip, r1, r9, lsl r6
    2110:	008e6400 	addeq	r6, lr, r0, lsl #8
    2114:	00003c00 	andeq	r3, r0, r0, lsl #24
    2118:	3f110500 	svccc	0x00110500
    211c:	2d00000a 	stccs	0, cr0, [r0, #-40]	; 0xffffffd8
    2120:	000001d6 	ldrdeq	r0, [r0], -r6
    2124:	8eac2000 	cdphi	0, 10, cr2, cr12, cr0, {0}
    2128:	0e7e0000 	cdpeq	0, 7, cr0, cr14, cr0, {0}
    212c:	c81e0000 	ldmdagt	lr, {}	; <UNPREDICTABLE>
    2130:	6800008e 	stmdavs	r0, {r1, r2, r3, r7}
    2134:	8000000e 	andhi	r0, r0, lr
    2138:	1f00000a 	svcne	0x0000000a
    213c:	41015301 	tstmi	r1, r1, lsl #6
    2140:	0552011f 	ldrbeq	r0, [r2, #-287]	; 0x11f
    2144:	00a37403 	adceq	r7, r3, r3, lsl #8
    2148:	51011f00 	tstpl	r1, r0, lsl #30
    214c:	a2a00305 	adcge	r0, r0, #335544320	; 0x14000000
    2150:	011f0000 	tsteq	pc, r0
    2154:	4c030550 	cfstr32mi	mvfx0, [r3], {80}	; 0x50
    2158:	1f00009d 	svcne	0x0000009d
    215c:	05007d02 	streq	r7, [r0, #-3330]	; 0xd02
    2160:	009d7003 	addseq	r7, sp, r3
    2164:	cc200000 	stcgt	0, cr0, [r0], #-0
    2168:	8500008e 	strhi	r0, [r0, #-142]	; 0x8e
    216c:	0000000e 	andeq	r0, r0, lr
    2170:	01e21900 	mvneq	r1, r0, lsl #18
    2174:	8ecc0000 	cdphi	0, 12, cr0, cr12, cr0, {0}
    2178:	00040000 	andeq	r0, r4, r0
    217c:	53010000 	movwpl	r0, #4096	; 0x1000
    2180:	00000ab2 			; <UNDEFINED> instruction: 0x00000ab2
    2184:	008ecc1a 	addeq	ip, lr, sl, lsl ip
    2188:	00000400 	andeq	r0, r0, r0, lsl #8
    218c:	01f21d00 	mvnseq	r1, r0, lsl #26
    2190:	078d0000 	streq	r0, [sp, r0]
    2194:	00000000 	andeq	r0, r0, r0
    2198:	00053f19 	andeq	r3, r5, r9, lsl pc
    219c:	008ed000 	addeq	sp, lr, r0
    21a0:	00006c00 	andeq	r6, r0, r0, lsl #24
    21a4:	90530100 	subsls	r0, r3, r0, lsl #2
    21a8:	2a00000b 	bcs	21dc <__code_start__-0x5e24>
    21ac:	0000054f 	andeq	r0, r0, pc, asr #10
    21b0:	0000078d 	andeq	r0, r0, sp, lsl #15
    21b4:	008ed01a 	addeq	sp, lr, sl, lsl r0
    21b8:	00006c00 	andeq	r6, r0, r0, lsl #24
    21bc:	055a1b00 	ldrbeq	r1, [sl, #-2816]	; 0xb00
    21c0:	652b0000 	strvs	r0, [fp, #-0]!
    21c4:	05000005 	streq	r0, [r0, #-5]
    21c8:	00a37403 	adceq	r7, r3, r3, lsl #8
    21cc:	05781900 	ldrbeq	r1, [r8, #-2304]!	; 0x900
    21d0:	8ed00000 	cdphi	0, 13, cr0, cr0, cr0, {0}
    21d4:	00040000 	andeq	r0, r4, r0
    21d8:	10050000 	andne	r0, r5, r0
    21dc:	00000b2b 	andeq	r0, r0, fp, lsr #22
    21e0:	00059b29 	andeq	r9, r5, r9, lsr #22
    21e4:	91290400 	teqls	r9, r0, lsl #8
    21e8:	00000005 	andeq	r0, r0, r5
    21ec:	0005882a 	andeq	r8, r5, sl, lsr #16
    21f0:	00078d00 	andeq	r8, r7, r0, lsl #26
    21f4:	8ed01a00 	vfnmshi.f32	s3, s0, s0
    21f8:	00040000 	andeq	r0, r4, r0
    21fc:	b22c0000 	eorlt	r0, ip, #0
    2200:	05000005 	streq	r0, [r0, #-5]
    2204:	0005a52b 	andeq	sl, r5, fp, lsr #10
    2208:	80030500 	andhi	r0, r3, r0, lsl #10
    220c:	000000a3 	andeq	r0, r0, r3, lsr #1
    2210:	01c61900 	biceq	r1, r6, r0, lsl #18
    2214:	8ed40000 	cdphi	0, 13, cr0, cr4, cr0, {0}
    2218:	003c0000 	eorseq	r0, ip, r0
    221c:	11050000 	mrsne	r0, (UNDEF: 5)
    2220:	00000b44 	andeq	r0, r0, r4, asr #22
    2224:	0001d62d 	andeq	sp, r1, sp, lsr #12
    2228:	1c200000 	stcne	0, cr0, [r0], #-0
    222c:	7e00008f 	cdpvc	0, 0, cr0, cr0, cr15, {4}
    2230:	1e00000e 	cdpne	0, 0, cr0, cr0, cr14, {0}
    2234:	00008f38 	andeq	r8, r0, r8, lsr pc
    2238:	00000e68 	andeq	r0, r0, r8, ror #28
    223c:	00000b85 	andeq	r0, r0, r5, lsl #23
    2240:	0153011f 	cmpeq	r3, pc, lsl r1
    2244:	52011f41 	andpl	r1, r1, #260	; 0x104
    2248:	a3740305 	cmnge	r4, #335544320	; 0x14000000
    224c:	011f0000 	tsteq	pc, r0
    2250:	a0030551 	andge	r0, r3, r1, asr r5
    2254:	1f0000a2 	svcne	0x000000a2
    2258:	03055001 	movweq	r5, #20481	; 0x5001
    225c:	00009d4c 	andeq	r9, r0, ip, asr #26
    2260:	007d021f 	rsbseq	r0, sp, pc, lsl r2
    2264:	9d700305 	ldclls	3, cr0, [r0, #-20]!	; 0xffffffec
    2268:	20000000 	andcs	r0, r0, r0
    226c:	00008f3c 	andeq	r8, r0, ip, lsr pc
    2270:	00000e85 	andeq	r0, r0, r5, lsl #29
    2274:	68210000 	stmdavs	r1!, {}	; <UNPREDICTABLE>
    2278:	a000008b 	andge	r0, r0, fp, lsl #1
    227c:	1f00000b 	svcne	0x0000000b
    2280:	74025001 	strvc	r5, [r2], #-1
    2284:	901e0000 	andsls	r0, lr, r0
    2288:	6800008b 	stmdavs	r0, {r0, r1, r3, r7}
    228c:	c600000e 	strgt	r0, [r0], -lr
    2290:	1f00000b 	svcne	0x0000000b
    2294:	08025301 	stmdaeq	r2, {r0, r8, r9, ip, lr}
    2298:	52011f33 	andpl	r1, r1, #51, 30	; 0xcc
    229c:	1f007902 	svcne	0x00007902
    22a0:	7a025101 	bvc	966ac <__bss_end__+0x8bce4>
    22a4:	50011f00 	andpl	r1, r1, r0, lsl #30
    22a8:	00007b02 	andeq	r7, r0, r2, lsl #22
    22ac:	008b9c1e 	addeq	r9, fp, lr, lsl ip
    22b0:	000e9d00 	andeq	r9, lr, r0, lsl #26
    22b4:	000bdf00 	andeq	sp, fp, r0, lsl #30
    22b8:	51011f00 	tstpl	r1, r0, lsl #30
    22bc:	1f007502 	svcne	0x00007502
    22c0:	30015001 	andcc	r5, r1, r1
    22c4:	8bc41e00 	blhi	ff109acc <__bss_end__+0xff0ff104>
    22c8:	0eb30000 	cdpeq	0, 11, cr0, cr3, cr0, {0}
    22cc:	0bf90000 	bleq	ffe422d4 <__bss_end__+0xffe3790c>
    22d0:	011f0000 	tsteq	pc, r0
    22d4:	00740252 	rsbseq	r0, r4, r2, asr r2
    22d8:	0250011f 	subseq	r0, r0, #-1073741817	; 0xc0000007
    22dc:	21000077 	tstcs	r0, r7, ror r0
    22e0:	00008bd0 	ldrdeq	r8, [r0], -r0
    22e4:	00000c09 	andeq	r0, r0, r9, lsl #24
    22e8:	0250011f 	subseq	r0, r0, #-1073741817	; 0xc0000007
    22ec:	1e000074 	mcrne	0, 0, r0, cr0, cr4, {3}
    22f0:	00008be8 	andeq	r8, r0, r8, ror #23
    22f4:	00000e68 	andeq	r0, r0, r8, ror #28
    22f8:	00000c20 	andeq	r0, r0, r0, lsr #24
    22fc:	0550011f 	ldrbeq	r0, [r0, #-287]	; 0x11f
    2300:	00a22403 	adceq	r2, r2, r3, lsl #8
    2304:	1c1e0000 	ldcne	0, cr0, [lr], {-0}
    2308:	6800008c 	stmdavs	r0, {r2, r3, r7}
    230c:	3700000e 	strcc	r0, [r0, -lr]
    2310:	1f00000c 	svcne	0x0000000c
    2314:	03055001 	movweq	r5, #20481	; 0x5001
    2318:	0000a26c 	andeq	sl, r0, ip, ror #4
    231c:	8d381e00 	ldchi	14, cr1, [r8, #-0]
    2320:	0e680000 	cdpeq	0, 6, cr0, cr8, cr0, {0}
    2324:	0c540000 	mraeq	r0, r4, acc0
    2328:	011f0000 	tsteq	pc, r0
    232c:	00780252 	rsbseq	r0, r8, r2, asr r2
    2330:	0550011f 	ldrbeq	r0, [r0, #-287]	; 0x11f
    2334:	009f2403 	addseq	r2, pc, r3, lsl #8
    2338:	581e0000 	ldmdapl	lr, {}	; <UNPREDICTABLE>
    233c:	6800008e 	stmdavs	r0, {r1, r2, r3, r7}
    2340:	6b00000e 	blvs	2380 <__code_start__-0x5c80>
    2344:	1f00000c 	svcne	0x0000000c
    2348:	03055001 	movweq	r5, #20481	; 0x5001
    234c:	00009ec4 	andeq	r9, r0, r4, asr #29
    2350:	8e601e00 	cdphi	14, 6, cr1, cr0, cr0, {0}
    2354:	0e8c0000 	cdpeq	0, 8, cr0, cr12, cr0, {0}
    2358:	0c7e0000 	ldcleq	0, cr0, [lr], #-0
    235c:	011f0000 	tsteq	pc, r0
    2360:	00300150 	eorseq	r0, r0, r0, asr r1
    2364:	008f4820 	addeq	r4, pc, r0, lsr #16
    2368:	000e7e00 	andeq	r7, lr, r0, lsl #28
    236c:	8f641e00 	svchi	0x00641e00
    2370:	0e680000 	cdpeq	0, 6, cr0, cr8, cr0, {0}
    2374:	0cba0000 	ldceq	0, cr0, [sl]
    2378:	011f0000 	tsteq	pc, r0
    237c:	53080253 	movwpl	r0, #33363	; 0x8253
    2380:	0252011f 	subseq	r0, r2, #-1073741817	; 0xc0000007
    2384:	011f0079 	tsteq	pc, r9, ror r0	; <UNPREDICTABLE>
    2388:	007a0251 	rsbseq	r0, sl, r1, asr r2
    238c:	0550011f 	ldrbeq	r0, [r0, #-287]	; 0x11f
    2390:	009d4c03 	addseq	r4, sp, r3, lsl #24
    2394:	7d021f00 	stcvc	15, cr1, [r2, #-0]
    2398:	ac030500 	cfstr32ge	mvfx0, [r3], {-0}
    239c:	000000a2 	andeq	r0, r0, r2, lsr #1
    23a0:	008f6820 	addeq	r6, pc, r0, lsr #16
    23a4:	000e8500 	andeq	r8, lr, r0, lsl #10
    23a8:	7f230000 	svcvc	0x00230000
    23ac:	d4000000 	strle	r0, [r0], #-0
    23b0:	2400000c 	strcs	r0, [r0], #-12
    23b4:	00000076 	andeq	r0, r0, r6, ror r0
    23b8:	c4070011 	strgt	r0, [r7], #-17
    23bc:	2700000c 	strcs	r0, [r0, -ip]
    23c0:	00000482 	andeq	r0, r0, r2, lsl #9
    23c4:	002c5f01 	eoreq	r5, ip, r1, lsl #30
    23c8:	8fe80000 	svchi	0x00e80000
    23cc:	00840000 	addeq	r0, r4, r0
    23d0:	9c010000 	stcls	0, cr0, [r1], {-0}
    23d4:	00000d9d 	muleq	r0, sp, sp
    23d8:	01006316 	tsteq	r0, r6, lsl r3
    23dc:	00046e5f 	andeq	r6, r4, pc, asr lr
    23e0:	0007a000 	andeq	sl, r7, r0
    23e4:	00691800 	rsbeq	r1, r9, r0, lsl #16
    23e8:	002c6101 	eoreq	r6, ip, r1, lsl #2
    23ec:	07be0000 	ldreq	r0, [lr, r0]!
    23f0:	2a170000 	bcs	5c23f8 <__bss_end__+0x5b7a30>
    23f4:	ad000001 	stcge	0, cr0, [r0, #-4]
    23f8:	0500000d 	streq	r0, [r0, #-13]
    23fc:	00a31403 	adceq	r1, r3, r3, lsl #8
    2400:	90042100 	andls	r2, r4, r0, lsl #2
    2404:	0d2b0000 	stceq	0, cr0, [fp, #-0]
    2408:	011f0000 	tsteq	pc, r0
    240c:	00740250 	rsbseq	r0, r4, r0, asr r2
    2410:	90102100 	andsls	r2, r0, r0, lsl #2
    2414:	0d3b0000 	ldceq	0, cr0, [fp, #-0]
    2418:	011f0000 	tsteq	pc, r0
    241c:	00740250 	rsbseq	r0, r4, r0, asr r2
    2420:	901c2100 	andsls	r2, ip, r0, lsl #2
    2424:	0d4b0000 	stcleq	0, cr0, [fp, #-0]
    2428:	011f0000 	tsteq	pc, r0
    242c:	00740250 	rsbseq	r0, r4, r0, asr r2
    2430:	90282100 	eorls	r2, r8, r0, lsl #2
    2434:	0d5b0000 	ldcleq	0, cr0, [fp, #-0]
    2438:	011f0000 	tsteq	pc, r0
    243c:	00740250 	rsbseq	r0, r4, r0, asr r2
    2440:	90342000 	eorsls	r2, r4, r0
    2444:	0e7e0000 	cdpeq	0, 7, cr0, cr14, cr0, {0}
    2448:	481e0000 	ldmdami	lr, {}	; <UNPREDICTABLE>
    244c:	68000090 	stmdavs	r0, {r4, r7}
    2450:	9300000e 	movwls	r0, #14
    2454:	1f00000d 	svcne	0x0000000d
    2458:	08025301 	stmdaeq	r2, {r0, r8, r9, ip, lr}
    245c:	52011f68 	andpl	r1, r1, #104, 30	; 0x1a0
    2460:	a3140305 	tstge	r4, #335544320	; 0x14000000
    2464:	011f0000 	tsteq	pc, r0
    2468:	6c030551 	cfstr32vs	mvfx0, [r3], {81}	; 0x51
    246c:	1f0000a1 	svcne	0x000000a1
    2470:	03055001 	movweq	r5, #20481	; 0x5001
    2474:	0000a2d8 	ldrdeq	sl, [r0], -r8
    2478:	904c2000 	subls	r2, ip, r0
    247c:	0e850000 	cdpeq	0, 8, cr0, cr5, cr0, {0}
    2480:	23000000 	movwcs	r0, #0
    2484:	0000007f 	andeq	r0, r0, pc, ror r0
    2488:	00000dad 	andeq	r0, r0, sp, lsr #27
    248c:	00007624 	andeq	r7, r0, r4, lsr #12
    2490:	07001000 	streq	r1, [r0, -r0]
    2494:	00000d9d 	muleq	r0, sp, sp
    2498:	00044414 	andeq	r4, r4, r4, lsl r4
    249c:	6c770100 	ldfvse	f0, [r7], #-0
    24a0:	28000090 	stmdacs	r0, {r4, r7}
    24a4:	01000000 	mrseq	r0, (UNDEF: 0)
    24a8:	000dd39c 	muleq	sp, ip, r3
    24ac:	00632e00 	rsbeq	r2, r3, r0, lsl #28
    24b0:	046e7701 	strbteq	r7, [lr], #-1793	; 0x701
    24b4:	50010000 	andpl	r0, r1, r0
    24b8:	04622f00 	strbteq	r2, [r2], #-3840	; 0xf00
    24bc:	82010000 	andhi	r0, r1, #0
    24c0:	00000025 	andeq	r0, r0, r5, lsr #32
    24c4:	00009094 	muleq	r0, r4, r0
    24c8:	0000004c 	andeq	r0, r0, ip, asr #32
    24cc:	0e3b9c01 	cdpeq	12, 3, cr9, cr11, cr1, {0}
    24d0:	63160000 	tstvs	r6, #0
    24d4:	6e820100 	rmfvss	f0, f2, f0
    24d8:	dd000004 	stcle	0, cr0, [r0, #-16]
    24dc:	20000007 	andcs	r0, r0, r7
    24e0:	000090a0 	andeq	r9, r0, r0, lsr #1
    24e4:	00000edf 	ldrdeq	r0, [r0], -pc	; <UNPREDICTABLE>
    24e8:	0090a81e 	addseq	sl, r0, lr, lsl r8
    24ec:	000db200 	andeq	fp, sp, r0, lsl #4
    24f0:	000e1600 	andeq	r1, lr, r0, lsl #12
    24f4:	50011f00 	andpl	r1, r1, r0, lsl #30
    24f8:	00007402 	andeq	r7, r0, r2, lsl #8
    24fc:	0090b01e 	addseq	fp, r0, lr, lsl r0
    2500:	000cd900 	andeq	sp, ip, r0, lsl #18
    2504:	000e2a00 	andeq	r2, lr, r0, lsl #20
    2508:	50011f00 	andpl	r1, r1, r0, lsl #30
    250c:	00007402 	andeq	r7, r0, r2, lsl #8
    2510:	0090c022 	addseq	ip, r0, r2, lsr #32
    2514:	0005c100 	andeq	ip, r5, r0, lsl #2
    2518:	50011f00 	andpl	r1, r1, r0, lsl #30
    251c:	00007402 	andeq	r7, r0, r2, lsl #8
    2520:	04e42800 	strbteq	r2, [r4], #2048	; 0x800
    2524:	06010000 	streq	r0, [r1], -r0
    2528:	0000046e 	andeq	r0, r0, lr, ror #8
    252c:	a5bc0305 	ldrge	r0, [ip, #773]!	; 0x305
    2530:	fe280000 	cdp2	0, 2, cr0, cr8, cr0, {0}
    2534:	01000000 	mrseq	r0, (UNDEF: 0)
    2538:	00007d08 	andeq	r7, r0, r8, lsl #26
    253c:	c0030500 	andgt	r0, r3, r0, lsl #10
    2540:	300000a5 	andcc	r0, r0, r5, lsr #1
    2544:	0000028d 	andeq	r0, r0, sp, lsl #5
    2548:	0025c202 	eoreq	ip, r5, r2, lsl #4
    254c:	63310000 	teqvs	r1, #0
    2550:	08000005 	stmdaeq	r0, {r0, r2}
    2554:	00002529 	andeq	r2, r0, r9, lsr #10
    2558:	000e7e00 	andeq	r7, lr, r0, lsl #28
    255c:	00860900 	addeq	r0, r6, r0, lsl #18
    2560:	00320000 	eorseq	r0, r2, r0
    2564:	00027e33 	andeq	r7, r2, r3, lsr lr
    2568:	331e0800 	tstcc	lr, #0, 16
    256c:	000000f1 	strdeq	r0, [r0], -r1
    2570:	34346508 	ldrtcc	r6, [r4], #-1288	; 0x508
    2574:	02000000 	andeq	r0, r0, #0
    2578:	000e9de3 	andeq	r9, lr, r3, ror #27
    257c:	005d0900 	subseq	r0, sp, r0, lsl #18
    2580:	34000000 	strcc	r0, [r0], #-0
    2584:	00000009 	andeq	r0, r0, r9
    2588:	0eb3d902 	cdpeq	9, 11, cr13, cr3, cr2, {0}
    258c:	5d090000 	stcpl	0, cr0, [r9, #-0]
    2590:	09000000 	stmdbeq	r0, {}	; <UNPREDICTABLE>
    2594:	00000091 	muleq	r0, r1, r0
    2598:	01e73400 	mvneq	r3, r0, lsl #8
    259c:	f3020000 	vhadd.u8	d0, d2, d0
    25a0:	00000ece 	andeq	r0, r0, lr, asr #29
    25a4:	00005d09 	andeq	r5, r0, r9, lsl #26
    25a8:	0ece0900 	cdpeq	9, 12, cr0, cr14, cr0, {0}
    25ac:	7d090000 	stcvc	0, cr0, [r9, #-0]
    25b0:	00000000 	andeq	r0, r0, r0
    25b4:	0ed40406 	cdpeq	4, 13, cr0, cr4, cr6, {0}
    25b8:	df080000 	svcle	0x00080000
    25bc:	0900000e 	stmdbeq	r0, {r1, r2, r3}
    25c0:	0000007d 	andeq	r0, r0, sp, ror r0
    25c4:	02693300 	rsbeq	r3, r9, #0, 6
    25c8:	90020000 	andls	r0, r2, r0
    25cc:	00019100 	andeq	r9, r1, r0, lsl #2
    25d0:	a0000400 	andge	r0, r0, r0, lsl #8
    25d4:	04000007 	streq	r0, [r0], #-7
    25d8:	00050901 	andeq	r0, r5, r1, lsl #18
    25dc:	04fb0100 	ldrbteq	r0, [fp], #256	; 0x100
    25e0:	05740000 	ldrbeq	r0, [r4, #-0]!
    25e4:	90e00000 	rscls	r0, r0, r0
    25e8:	00580000 	subseq	r0, r8, r0
    25ec:	066f0000 	strbteq	r0, [pc], -r0
    25f0:	ec020000 	stc	0, cr0, [r2], {-0}
    25f4:	02000004 	andeq	r0, r0, #4
    25f8:	00003028 	andeq	r3, r0, r8, lsr #32
    25fc:	056a0300 	strbeq	r0, [sl, #-768]!	; 0x300
    2600:	03040000 	movweq	r0, #16384	; 0x4000
    2604:	00004700 	andeq	r4, r0, r0, lsl #14
    2608:	05ba0400 	ldreq	r0, [sl, #1024]!	; 0x400
    260c:	00470000 	subeq	r0, r7, r0
    2610:	00000000 	andeq	r0, r0, r0
    2614:	6c020405 	cfstrsvs	mvf0, [r2], {5}
    2618:	02000005 	andeq	r0, r0, #5
    261c:	00002562 	andeq	r2, r0, r2, ror #10
    2620:	05040600 	streq	r0, [r4, #-1536]	; 0x600
    2624:	00746e69 	rsbseq	r6, r4, r9, ror #28
    2628:	c2070407 	andgt	r0, r7, #117440512	; 0x7000000
    262c:	07000001 	streq	r0, [r0, -r1]
    2630:	00e50601 	rsceq	r0, r5, r1, lsl #12
    2634:	02070000 	andeq	r0, r7, #0
    2638:	00023705 	andeq	r3, r2, r5, lsl #14
    263c:	05040700 	streq	r0, [r4, #-1792]	; 0x700
    2640:	00000200 	andeq	r0, r0, r0, lsl #4
    2644:	fb050807 	blx	14466a <__bss_end__+0x139ca2>
    2648:	07000001 	streq	r0, [r0, -r1]
    264c:	00e30801 	rsceq	r0, r3, r1, lsl #16
    2650:	02070000 	andeq	r0, r7, #0
    2654:	00004c07 	andeq	r4, r0, r7, lsl #24
    2658:	07040700 	streq	r0, [r4, -r0, lsl #14]
    265c:	000001bd 			; <UNDEFINED> instruction: 0x000001bd
    2660:	b8070807 	stmdalt	r7, {r0, r1, r2, fp}
    2664:	07000001 	streq	r0, [r0, -r1]
    2668:	01de0704 	bicseq	r0, lr, r4, lsl #14
    266c:	04080000 	streq	r0, [r8], #-0
    2670:	000000a7 	andeq	r0, r0, r7, lsr #1
    2674:	ec080107 	stfs	f0, [r8], {7}
    2678:	08000000 	stmdaeq	r0, {}	; <UNPREDICTABLE>
    267c:	0000b404 	andeq	fp, r0, r4, lsl #8
    2680:	00a70900 	adceq	r0, r7, r0, lsl #18
    2684:	630a0000 	movwvs	r0, #40960	; 0xa000
    2688:	01000005 	tsteq	r0, r5
    268c:	00005406 	andeq	r5, r0, r6, lsl #8
    2690:	0090e000 	addseq	lr, r0, r0
    2694:	00005800 	andeq	r5, r0, r0, lsl #16
    2698:	439c0100 	orrsmi	r0, ip, #0, 2
    269c:	0b000001 	bleq	26a8 <__code_start__-0x5958>
    26a0:	00746d66 	rsbseq	r6, r4, r6, ror #26
    26a4:	00ae0601 	adceq	r0, lr, r1, lsl #12
    26a8:	91020000 	mrsls	r0, (UNDEF: 2)
    26ac:	620d0c70 	andvs	r0, sp, #112, 24	; 0x7000
    26b0:	01006675 	tsteq	r0, r5, ror r6
    26b4:	00014308 	andeq	r4, r1, r8, lsl #6
    26b8:	c4030500 	strgt	r0, [r3], #-1280	; 0x500
    26bc:	0e0000a5 	cdpeq	0, 0, cr0, cr0, cr5, {5}
    26c0:	00000a76 	andeq	r0, r0, r6, ror sl
    26c4:	00490901 	subeq	r0, r9, r1, lsl #18
    26c8:	91020000 	mrsls	r0, (UNDEF: 2)
    26cc:	7a730f5c 	bvc	1cc6444 <__bss_end__+0x1cbba7c>
    26d0:	540c0100 	strpl	r0, [ip], #-256	; 0x100
    26d4:	fb000000 	blx	26de <__code_start__-0x5922>
    26d8:	10000007 	andne	r0, r0, r7
    26dc:	00009108 	andeq	r9, r0, r8, lsl #2
    26e0:	00000174 	andeq	r0, r0, r4, ror r1
    26e4:	00000136 	andeq	r0, r0, r6, lsr r1
    26e8:	02530111 	subseq	r0, r3, #1073741828	; 0x40000004
    26ec:	01114c91 			; <UNDEFINED> instruction: 0x01114c91
    26f0:	48910352 	ldmmi	r1, {r1, r4, r6, r8, r9}
    26f4:	51011106 	tstpl	r1, r6, lsl #2
    26f8:	04000a03 	streq	r0, [r0], #-2563	; 0xa03
    26fc:	02500111 	subseq	r0, r0, #1073741828	; 0x40000004
    2700:	12000074 	andne	r0, r0, #116	; 0x74
    2704:	0000911c 	andeq	r9, r0, ip, lsl r1
    2708:	02500111 	subseq	r0, r0, #1073741828	; 0x40000004
    270c:	00000074 	andeq	r0, r0, r4, ror r0
    2710:	0000a713 	andeq	sl, r0, r3, lsl r7
    2714:	00015400 	andeq	r5, r1, r0, lsl #8
    2718:	009a1400 	addseq	r1, sl, r0, lsl #8
    271c:	03ff0000 	mvnseq	r0, #0
    2720:	00541500 	subseq	r1, r4, r0, lsl #10
    2724:	01630000 	cmneq	r3, r0
    2728:	ae160000 	cdpge	0, 1, cr0, cr6, cr0, {0}
    272c:	00000000 	andeq	r0, r0, r0
    2730:	00061717 	andeq	r1, r6, r7, lsl r7
    2734:	6e220400 	cdpvs	4, 2, cr0, cr2, cr0, {0}
    2738:	08000001 	stmdaeq	r0, {r0}
    273c:	00015404 	andeq	r5, r1, r4, lsl #8
    2740:	05601800 	strbeq	r1, [r0, #-2048]!	; 0x800
    2744:	02050000 	andeq	r0, r5, #0
    2748:	00000054 	andeq	r0, r0, r4, asr r0
    274c:	0000a116 	andeq	sl, r0, r6, lsl r1
    2750:	00541600 	subseq	r1, r4, r0, lsl #12
    2754:	ae160000 	cdpge	0, 1, cr0, cr6, cr0, {0}
    2758:	16000000 	strne	r0, [r0], -r0
    275c:	00000049 	andeq	r0, r0, r9, asr #32
    2760:	01130000 	tsteq	r3, r0
    2764:	00040000 	andeq	r0, r4, r0
    2768:	000008d1 	ldrdeq	r0, [r0], -r1
    276c:	05090104 	streq	r0, [r9, #-260]	; 0x104
    2770:	e6010000 	str	r0, [r1], -r0
    2774:	74000005 	strvc	r0, [r0], #-5
    2778:	38000005 	stmdacc	r0, {r0, r2}
    277c:	3c000091 	stccc	0, cr0, [r0], {145}	; 0x91
    2780:	7f000000 	svcvc	0x00000000
    2784:	02000007 	andeq	r0, r0, #7
    2788:	6e690504 	cdpvs	5, 6, cr0, cr9, cr4, {0}
    278c:	04030074 	streq	r0, [r3], #-116	; 0x74
    2790:	0001c207 	andeq	ip, r1, r7, lsl #4
    2794:	06010300 	streq	r0, [r1], -r0, lsl #6
    2798:	000000e5 	andeq	r0, r0, r5, ror #1
    279c:	37050203 	strcc	r0, [r5, -r3, lsl #4]
    27a0:	03000002 	movweq	r0, #2
    27a4:	02000504 	andeq	r0, r0, #4, 10	; 0x1000000
    27a8:	08030000 	stmdaeq	r3, {}	; <UNPREDICTABLE>
    27ac:	0001fb05 	andeq	pc, r1, r5, lsl #22
    27b0:	08010300 	stmdaeq	r1, {r8, r9}
    27b4:	000000e3 	andeq	r0, r0, r3, ror #1
    27b8:	4c070203 	sfmmi	f0, 4, [r7], {3}
    27bc:	03000000 	movweq	r0, #0
    27c0:	01bd0704 			; <UNDEFINED> instruction: 0x01bd0704
    27c4:	08030000 	stmdaeq	r3, {}	; <UNPREDICTABLE>
    27c8:	0001b807 	andeq	fp, r1, r7, lsl #16
    27cc:	07040300 	streq	r0, [r4, -r0, lsl #6]
    27d0:	000001de 	ldrdeq	r0, [r0], -lr
    27d4:	ec080103 	stfs	f0, [r8], {3}
    27d8:	04000000 	streq	r0, [r0], #-0
    27dc:	000005c9 	andeq	r0, r0, r9, asr #11
    27e0:	00250301 	eoreq	r0, r5, r1, lsl #6
    27e4:	91380000 	teqls	r8, r0
    27e8:	00140000 	andseq	r0, r4, r0
    27ec:	9c010000 	stcls	0, cr0, [r1], {-0}
    27f0:	000000b0 	strheq	r0, [r0], -r0	; <UNPREDICTABLE>
    27f4:	01006305 	tsteq	r0, r5, lsl #6
    27f8:	00002503 	andeq	r2, r0, r3, lsl #10
    27fc:	00082400 	andeq	r2, r8, r0, lsl #8
    2800:	91440600 	cmpls	r4, r0, lsl #12
    2804:	01090000 	mrseq	r0, (UNDEF: 9)
    2808:	01070000 	mrseq	r0, (UNDEF: 7)
    280c:	00740250 	rsbseq	r0, r4, r0, asr r2
    2810:	7e080000 	cdpvc	0, 0, cr0, cr8, cr0, {0}
    2814:	01000002 	tsteq	r0, r2
    2818:	00914c08 	addseq	r4, r1, r8, lsl #24
    281c:	00001800 	andeq	r1, r0, r0, lsl #16
    2820:	099c0100 	ldmibeq	ip, {r8}
    2824:	000005f5 	strdeq	r0, [r0], -r5
    2828:	91640b01 	cmnls	r4, r1, lsl #22
    282c:	00100000 	andseq	r0, r0, r0
    2830:	9c010000 	stcls	0, cr0, [r1], {-0}
    2834:	000000e3 	andeq	r0, r0, r3, ror #1
    2838:	0070660a 	rsbseq	r6, r0, sl, lsl #12
    283c:	00f20b01 	rscseq	r0, r2, r1, lsl #22
    2840:	50010000 	andpl	r0, r1, r0
    2844:	00250b00 	eoreq	r0, r5, r0, lsl #22
    2848:	00f20000 	rscseq	r0, r2, r0
    284c:	250c0000 	strcs	r0, [ip, #-0]
    2850:	00000000 	andeq	r0, r0, r0
    2854:	00e3040d 	rsceq	r0, r3, sp, lsl #8
    2858:	da0e0000 	ble	382860 <__bss_end__+0x377e98>
    285c:	01000005 	tsteq	r0, r5
    2860:	0000f206 	andeq	pc, r0, r6, lsl #4
    2864:	f0030500 			; <UNDEFINED> instruction: 0xf0030500
    2868:	0f00009c 	svceq	0x0000009c
    286c:	000005bf 			; <UNDEFINED> instruction: 0x000005bf
    2870:	2c0c3c02 	stccs	12, cr3, [ip], {2}
    2874:	00000000 	andeq	r0, r0, r0
    2878:	0000ee00 	andeq	lr, r0, r0, lsl #28
    287c:	b9000400 	stmdblt	r0, {sl}
    2880:	04000009 	streq	r0, [r0], #-9
    2884:	00050901 	andeq	r0, r5, r1, lsl #18
    2888:	06020100 	streq	r0, [r2], -r0, lsl #2
    288c:	05740000 	ldrbeq	r0, [r4, #-0]!
    2890:	91740000 	cmnls	r4, r0
    2894:	00340000 	eorseq	r0, r4, r0
    2898:	08170000 	ldmdaeq	r7, {}	; <UNPREDICTABLE>
    289c:	04020000 	streq	r0, [r2], #-0
    28a0:	746e6905 	strbtvc	r6, [lr], #-2309	; 0x905
    28a4:	07040300 	streq	r0, [r4, -r0, lsl #6]
    28a8:	000001c2 	andeq	r0, r0, r2, asr #3
    28ac:	e5060103 	str	r0, [r6, #-259]	; 0x103
    28b0:	03000000 	movweq	r0, #0
    28b4:	02370502 	eorseq	r0, r7, #8388608	; 0x800000
    28b8:	04030000 	streq	r0, [r3], #-0
    28bc:	00020005 	andeq	r0, r2, r5
    28c0:	05080300 	streq	r0, [r8, #-768]	; 0x300
    28c4:	000001fb 	strdeq	r0, [r0], -fp
    28c8:	e3080103 	movw	r0, #33027	; 0x8103
    28cc:	03000000 	movweq	r0, #0
    28d0:	004c0702 	subeq	r0, ip, r2, lsl #14
    28d4:	04030000 	streq	r0, [r3], #-0
    28d8:	0001bd07 	andeq	fp, r1, r7, lsl #26
    28dc:	07080300 	streq	r0, [r8, -r0, lsl #6]
    28e0:	000001b8 			; <UNDEFINED> instruction: 0x000001b8
    28e4:	de070403 	cdple	4, 0, cr0, cr7, cr3, {0}
    28e8:	03000001 	movweq	r0, #1
    28ec:	00ec0801 	rsceq	r0, ip, r1, lsl #16
    28f0:	04040000 	streq	r0, [r4], #-0
    28f4:	0000007f 	andeq	r0, r0, pc, ror r0
    28f8:	00007205 	andeq	r7, r0, r5, lsl #4
    28fc:	060e0600 	streq	r0, [lr], -r0, lsl #12
    2900:	04010000 	streq	r0, [r1], #-0
    2904:	00000025 	andeq	r0, r0, r5, lsr #32
    2908:	00009174 	andeq	r9, r0, r4, ror r1
    290c:	00000034 	andeq	r0, r0, r4, lsr r0
    2910:	00ab9c01 	adceq	r9, fp, r1, lsl #24
    2914:	70070000 	andvc	r0, r7, r0
    2918:	79040100 	stmdbvc	r4, {r8}
    291c:	42000000 	andmi	r0, r0, #0
    2920:	00000008 	andeq	r0, r0, r8
    2924:	00002508 	andeq	r2, r0, r8, lsl #10
    2928:	0000ba00 	andeq	fp, r0, r0, lsl #20
    292c:	00250900 	eoreq	r0, r5, r0, lsl #18
    2930:	0a000000 	beq	2938 <__code_start__-0x56c8>
    2934:	000005da 	ldrdeq	r0, [r0], -sl
    2938:	00c51d02 	sbceq	r1, r5, r2, lsl #26
    293c:	04040000 	streq	r0, [r4], #-0
    2940:	000000ab 	andeq	r0, r0, fp, lsr #1
    2944:	00002508 	andeq	r2, r0, r8, lsl #10
    2948:	0000da00 	andeq	sp, r0, r0, lsl #20
    294c:	00790900 	rsbseq	r0, r9, r0, lsl #18
    2950:	0b000000 	bleq	2958 <__code_start__-0x56a8>
    2954:	00000617 	andeq	r0, r0, r7, lsl r6
    2958:	00eb0c01 	rsceq	r0, fp, r1, lsl #24
    295c:	03050000 	movweq	r0, #20480	; 0x5000
    2960:	00009cf4 	strdeq	r9, [r0], -r4
    2964:	00cb0404 	sbceq	r0, fp, r4, lsl #8
    2968:	e5000000 	str	r0, [r0, #-0]
    296c:	04000006 	streq	r0, [r0], #-6
    2970:	000a5200 	andeq	r5, sl, r0, lsl #4
    2974:	09010400 	stmdbeq	r1, {sl}
    2978:	01000005 	tsteq	r0, r5
    297c:	0000064d 	andeq	r0, r0, sp, asr #12
    2980:	00000574 	andeq	r0, r0, r4, ror r5
    2984:	000091a8 	andeq	r9, r0, r8, lsr #3
    2988:	00000578 	andeq	r0, r0, r8, ror r5
    298c:	000008bb 			; <UNDEFINED> instruction: 0x000008bb
    2990:	69050402 	stmdbvs	r5, {r1, sl}
    2994:	0300746e 	movweq	r7, #1134	; 0x46e
    2998:	01c20704 	biceq	r0, r2, r4, lsl #14
    299c:	01030000 	mrseq	r0, (UNDEF: 3)
    29a0:	0000e506 	andeq	lr, r0, r6, lsl #10
    29a4:	05020300 	streq	r0, [r2, #-768]	; 0x300
    29a8:	00000237 	andeq	r0, r0, r7, lsr r2
    29ac:	00050403 	andeq	r0, r5, r3, lsl #8
    29b0:	03000002 	movweq	r0, #2
    29b4:	01fb0508 	mvnseq	r0, r8, lsl #10
    29b8:	01030000 	mrseq	r0, (UNDEF: 3)
    29bc:	0000e308 	andeq	lr, r0, r8, lsl #6
    29c0:	07020300 	streq	r0, [r2, -r0, lsl #6]
    29c4:	0000004c 	andeq	r0, r0, ip, asr #32
    29c8:	bd070403 	cfstrslt	mvf0, [r7, #-12]
    29cc:	03000001 	movweq	r0, #1
    29d0:	01b80708 			; <UNDEFINED> instruction: 0x01b80708
    29d4:	04030000 	streq	r0, [r3], #-0
    29d8:	0001de07 	andeq	sp, r1, r7, lsl #28
    29dc:	05040400 	streq	r0, [r4, #-1024]	; 0x400
    29e0:	00007a04 	andeq	r7, r0, r4, lsl #20
    29e4:	08010300 	stmdaeq	r1, {r8, r9}
    29e8:	000000ec 	andeq	r0, r0, ip, ror #1
    29ec:	00870405 	addeq	r0, r7, r5, lsl #8
    29f0:	7a060000 	bvc	1829f8 <__bss_end__+0x178030>
    29f4:	07000000 	streq	r0, [r0, -r0]
    29f8:	000004ec 	andeq	r0, r0, ip, ror #9
    29fc:	00972802 	addseq	r2, r7, r2, lsl #16
    2a00:	6a080000 	bvs	202a08 <__bss_end__+0x1f8040>
    2a04:	04000005 	streq	r0, [r0], #-5
    2a08:	00ae0004 	adceq	r0, lr, r4
    2a0c:	ba090000 	blt	242a14 <__bss_end__+0x23804c>
    2a10:	72000005 	andvc	r0, r0, #5
    2a14:	00000000 	andeq	r0, r0, r0
    2a18:	056c0700 	strbeq	r0, [ip, #-1792]!	; 0x700
    2a1c:	62020000 	andvs	r0, r2, #0
    2a20:	0000008c 	andeq	r0, r0, ip, lsl #1
    2a24:	0006340a 	andeq	r3, r6, sl, lsl #8
    2a28:	25270100 	strcs	r0, [r7, #-256]!	; 0x100
    2a2c:	a8000000 	stmdage	r0, {}	; <UNPREDICTABLE>
    2a30:	14000091 	strne	r0, [r0], #-145	; 0x91
    2a34:	01000000 	mrseq	r0, (UNDEF: 0)
    2a38:	0000e09c 	muleq	r0, ip, r0
    2a3c:	00630b00 	rsbeq	r0, r3, r0, lsl #22
    2a40:	00252701 	eoreq	r2, r5, r1, lsl #14
    2a44:	08600000 	stmdaeq	r0!, {}^	; <UNPREDICTABLE>
    2a48:	0c000000 	stceq	0, cr0, [r0], {-0}
    2a4c:	00646170 	rsbeq	r6, r4, r0, ror r1
    2a50:	00742e01 	rsbseq	r2, r4, r1, lsl #28
    2a54:	91bc0000 			; <UNDEFINED> instruction: 0x91bc0000
    2a58:	002c0000 	eoreq	r0, ip, r0
    2a5c:	9c010000 	stcls	0, cr0, [r1], {-0}
    2a60:	00000130 	andeq	r0, r0, r0, lsr r1
    2a64:	0100700b 	tsteq	r0, fp
    2a68:	0000742e 	andeq	r7, r0, lr, lsr #8
    2a6c:	00088e00 	andeq	r8, r8, r0, lsl #28
    2a70:	0a540d00 	beq	1505e78 <__bss_end__+0x14fb4b0>
    2a74:	2e010000 	cdpcs	0, 0, cr0, cr1, cr0, {0}
    2a78:	00000074 	andeq	r0, r0, r4, ror r0
    2a7c:	000008b9 			; <UNDEFINED> instruction: 0x000008b9
    2a80:	00066d0e 	andeq	r6, r6, lr, lsl #26
    2a84:	252e0100 	strcs	r0, [lr, #-256]!	; 0x100
    2a88:	01000000 	mrseq	r0, (UNDEF: 0)
    2a8c:	656c0f52 	strbvs	r0, [ip, #-3922]!	; 0xf52
    2a90:	2f01006e 	svccs	0x0001006e
    2a94:	00000025 	andeq	r0, r0, r5, lsr #32
    2a98:	0a005101 	beq	16ea4 <__bss_end__+0xc4dc>
    2a9c:	0000062c 	andeq	r0, r0, ip, lsr #12
    2aa0:	00743701 	rsbseq	r3, r4, r1, lsl #14
    2aa4:	91e80000 	mvnls	r0, r0
    2aa8:	00400000 	subeq	r0, r0, r0
    2aac:	9c010000 	stcls	0, cr0, [r1], {-0}
    2ab0:	0000019c 	muleq	r0, ip, r1
    2ab4:	7473640b 	ldrbtvc	r6, [r3], #-1035	; 0x40b
    2ab8:	74370100 	ldrtvc	r0, [r7], #-256	; 0x100
    2abc:	da000000 	ble	2ac4 <__code_start__-0x553c>
    2ac0:	0b000008 	bleq	2ae8 <__code_start__-0x5518>
    2ac4:	3701006e 	strcc	r0, [r1, -lr, rrx]
    2ac8:	00000025 	andeq	r0, r0, r5, lsr #32
    2acc:	00000912 	andeq	r0, r0, r2, lsl r9
    2ad0:	0100700b 	tsteq	r0, fp
    2ad4:	00007437 	andeq	r7, r0, r7, lsr r4
    2ad8:	00093300 	andeq	r3, r9, r0, lsl #6
    2adc:	06200d00 	strteq	r0, [r0], -r0, lsl #26
    2ae0:	37010000 	strcc	r0, [r1, -r0]
    2ae4:	00000074 	andeq	r0, r0, r4, ror r0
    2ae8:	00000969 	andeq	r0, r0, r9, ror #18
    2aec:	6e656c10 	mcrvs	12, 3, r6, cr5, cr0, {0}
    2af0:	25390100 	ldrcs	r0, [r9, #-256]!	; 0x100
    2af4:	87000000 	strhi	r0, [r0, -r0]
    2af8:	0f000009 	svceq	0x00000009
    2afc:	3d010073 	stccc	0, cr0, [r1, #-460]	; 0xfffffe34
    2b00:	00000074 	andeq	r0, r0, r4, ror r0
    2b04:	0a005001 	beq	16b10 <__bss_end__+0xc148>
    2b08:	0000067b 	andeq	r0, r0, fp, ror r6
    2b0c:	00744701 	rsbseq	r4, r4, r1, lsl #14
    2b10:	92280000 	eorls	r0, r8, #0
    2b14:	01bc0000 			; <UNDEFINED> instruction: 0x01bc0000
    2b18:	9c010000 	stcls	0, cr0, [r1], {-0}
    2b1c:	000002df 	ldrdeq	r0, [r0], -pc	; <UNPREDICTABLE>
    2b20:	000a540d 	andeq	r5, sl, sp, lsl #8
    2b24:	2c470100 	stfcse	f0, [r7], {-0}
    2b28:	ae000000 	cdpge	0, 0, cr0, cr0, cr0, {0}
    2b2c:	0b000009 	bleq	2b58 <__code_start__-0x54a8>
    2b30:	00747364 	rsbseq	r7, r4, r4, ror #6
    2b34:	00744701 	rsbseq	r4, r4, r1, lsl #14
    2b38:	09dc0000 	ldmibeq	ip, {}^	; <UNPREDICTABLE>
    2b3c:	6e0b0000 	cdpvs	0, 0, cr0, cr11, cr0, {0}
    2b40:	25470100 	strbcs	r0, [r7, #-256]	; 0x100
    2b44:	4a000000 	bmi	2b4c <__code_start__-0x54b4>
    2b48:	0b00000a 	bleq	2b78 <__code_start__-0x5488>
    2b4c:	006c6176 	rsbeq	r6, ip, r6, ror r1
    2b50:	00254701 	eoreq	r4, r5, r1, lsl #14
    2b54:	0a760000 	beq	1d82b5c <__bss_end__+0x1d78194>
    2b58:	6d0d0000 	stcvs	0, cr0, [sp, #-0]
    2b5c:	01000006 	tsteq	r0, r6
    2b60:	00002547 	andeq	r2, r0, r7, asr #10
    2b64:	000af500 	andeq	pc, sl, r0, lsl #10
    2b68:	06440e00 	strbeq	r0, [r4], -r0, lsl #28
    2b6c:	47010000 	strmi	r0, [r1, -r0]
    2b70:	00000025 	andeq	r0, r0, r5, lsr #32
    2b74:	0f049102 	svceq	0x00049102
    2b78:	00667562 	rsbeq	r7, r6, r2, ror #10
    2b7c:	02df4c01 	sbcseq	r4, pc, #256	; 0x100
    2b80:	91030000 	mrsls	r0, (UNDEF: 3)
    2b84:	70107fa8 	andsvc	r7, r0, r8, lsr #31
    2b88:	744c0100 	strbvc	r0, [ip], #-256	; 0x100
    2b8c:	1f000000 	svcne	0x00000000
    2b90:	1000000b 	andne	r0, r0, fp
    2b94:	4d010075 	stcmi	0, cr0, [r1, #-468]	; 0xfffffe2c
    2b98:	0000002c 	andeq	r0, r0, ip, lsr #32
    2b9c:	00000c09 	andeq	r0, r0, r9, lsl #24
    2ba0:	00012a11 	andeq	r2, r1, r1, lsl sl
    2ba4:	0002ff00 	andeq	pc, r2, r0, lsl #30
    2ba8:	8c030500 	cfstr32hi	mvfx0, [r3], {-0}
    2bac:	120000a3 	andne	r0, r0, #163	; 0xa3
    2bb0:	00009294 	muleq	r0, r4, r2
    2bb4:	00000074 	andeq	r0, r0, r4, ror r0
    2bb8:	00000261 	andeq	r0, r0, r1, ror #4
    2bbc:	00062613 	andeq	r2, r6, r3, lsl r6
    2bc0:	2c520100 	ldfcse	f0, [r2], {-0}
    2bc4:	cc000000 	stcgt	0, cr0, [r0], {-0}
    2bc8:	0000000c 	andeq	r0, r0, ip
    2bcc:	00938014 	addseq	r8, r3, r4, lsl r0
    2bd0:	0006c400 	andeq	ip, r6, r0, lsl #8
    2bd4:	939c1500 	orrsls	r1, ip, #0, 10
    2bd8:	06cb0000 	strbeq	r0, [fp], r0
    2bdc:	02a30000 	adceq	r0, r3, #0
    2be0:	01160000 	tsteq	r6, r0
    2be4:	77080253 	smlsdvc	r8, r3, r2, r0
    2be8:	05520116 	ldrbeq	r0, [r2, #-278]	; 0x116
    2bec:	00a38c03 	adceq	r8, r3, r3, lsl #24
    2bf0:	51011600 	tstpl	r1, r0, lsl #12
    2bf4:	a3b00305 	movsge	r0, #335544320	; 0x14000000
    2bf8:	01160000 	tsteq	r6, r0
    2bfc:	4c030550 	cfstr32mi	mvfx0, [r3], {80}	; 0x50
    2c00:	1600009d 			; <UNDEFINED> instruction: 0x1600009d
    2c04:	05007d02 	streq	r7, [r0, #-3330]	; 0xd02
    2c08:	00a3c403 	adceq	ip, r3, r3, lsl #8
    2c0c:	a0140000 	andsge	r0, r4, r0
    2c10:	e1000093 	swp	r0, r3, [r0]	; <UNPREDICTABLE>
    2c14:	15000006 	strne	r0, [r0, #-6]
    2c18:	000093a8 	andeq	r9, r0, r8, lsr #7
    2c1c:	000000e0 	andeq	r0, r0, r0, ror #1
    2c20:	000002c1 	andeq	r0, r0, r1, asr #5
    2c24:	03510116 	cmpeq	r1, #-2147483643	; 0x80000005
    2c28:	007fa091 			; <UNDEFINED> instruction: 0x007fa091
    2c2c:	0093bc17 	addseq	fp, r3, r7, lsl ip
    2c30:	00013000 	andeq	r3, r1, r0
    2c34:	53011600 	movwpl	r1, #5632	; 0x1600
    2c38:	7fa09103 	svcvc	0x00a09103
    2c3c:	02510116 	subseq	r0, r1, #-2147483643	; 0x80000005
    2c40:	01160074 	tsteq	r6, r4, ror r0
    2c44:	00750250 	rsbseq	r0, r5, r0, asr r2
    2c48:	7a180000 	bvc	602c50 <__bss_end__+0x5f8288>
    2c4c:	ef000000 	svc	0x00000000
    2c50:	19000002 	stmdbne	r0, {r1}
    2c54:	0000006b 	andeq	r0, r0, fp, rrx
    2c58:	7a18003f 	bvc	602d5c <__bss_end__+0x5f8394>
    2c5c:	ff000000 			; <UNDEFINED> instruction: 0xff000000
    2c60:	19000002 	stmdbne	r0, {r1}
    2c64:	0000006b 	andeq	r0, r0, fp, rrx
    2c68:	ef060004 	svc	0x00060004
    2c6c:	1a000002 	bne	2c7c <__code_start__-0x5384>
    2c70:	0000065e 	andeq	r0, r0, lr, asr r6
    2c74:	93e41f01 	mvnls	r1, #1, 30
    2c78:	00680000 	rsbeq	r0, r8, r0
    2c7c:	9c010000 	stcls	0, cr0, [r1], {-0}
    2c80:	00000392 	muleq	r0, r2, r3
    2c84:	0006730d 	andeq	r7, r6, sp, lsl #6
    2c88:	a11f0100 	tstge	pc, r0, lsl #2
    2c8c:	f8000003 			; <UNDEFINED> instruction: 0xf8000003
    2c90:	0d00000c 	stceq	0, cr0, [r0, #-48]	; 0xffffffd0
    2c94:	0000063c 	andeq	r0, r0, ip, lsr r6
    2c98:	03b61f01 			; <UNDEFINED> instruction: 0x03b61f01
    2c9c:	0d240000 	stceq	0, cr0, [r4, #-0]
    2ca0:	2a110000 	bcs	442ca8 <__bss_end__+0x4382e0>
    2ca4:	cc000001 	stcgt	0, cr0, [r0], {1}
    2ca8:	05000003 	streq	r0, [r0, #-3]
    2cac:	00a39403 	adceq	r9, r3, r3, lsl #8
    2cb0:	93f81400 	mvnsls	r1, #0, 8
    2cb4:	06c40000 	strbeq	r0, [r4], r0
    2cb8:	14150000 	ldrne	r0, [r5], #-0
    2cbc:	cb000094 	blgt	2f14 <__code_start__-0x50ec>
    2cc0:	88000006 	stmdahi	r0, {r1, r2}
    2cc4:	16000003 	strne	r0, [r0], -r3
    2cc8:	08025301 	stmdaeq	r2, {r0, r8, r9, ip, lr}
    2ccc:	52011620 	andpl	r1, r1, #32, 12	; 0x2000000
    2cd0:	a3940305 	orrsge	r0, r4, #335544320	; 0x14000000
    2cd4:	01160000 	tsteq	r6, r0
    2cd8:	b0030551 	andlt	r0, r3, r1, asr r5
    2cdc:	160000a3 	strne	r0, [r0], -r3, lsr #1
    2ce0:	03055001 	movweq	r5, #20481	; 0x5001
    2ce4:	00009d4c 	andeq	r9, r0, ip, asr #26
    2ce8:	007d0216 	rsbseq	r0, sp, r6, lsl r2
    2cec:	a3ec0305 	mvnge	r0, #335544320	; 0x14000000
    2cf0:	14000000 	strne	r0, [r0], #-0
    2cf4:	00009418 	andeq	r9, r0, r8, lsl r4
    2cf8:	000006e1 	andeq	r0, r0, r1, ror #13
    2cfc:	00251b00 	eoreq	r1, r5, r0, lsl #22
    2d00:	03a10000 			; <UNDEFINED> instruction: 0x03a10000
    2d04:	251c0000 	ldrcs	r0, [ip, #-0]
    2d08:	00000000 	andeq	r0, r0, r0
    2d0c:	03920405 	orrseq	r0, r2, #83886080	; 0x5000000
    2d10:	251b0000 	ldrcs	r0, [fp, #-0]
    2d14:	b6000000 	strlt	r0, [r0], -r0
    2d18:	1c000003 	stcne	0, cr0, [r0], {3}
    2d1c:	00000081 	andeq	r0, r0, r1, lsl #1
    2d20:	a7040500 	strge	r0, [r4, -r0, lsl #10]
    2d24:	18000003 	stmdane	r0, {r0, r1}
    2d28:	0000007a 	andeq	r0, r0, sl, ror r0
    2d2c:	000003cc 	andeq	r0, r0, ip, asr #7
    2d30:	00006b19 	andeq	r6, r0, r9, lsl fp
    2d34:	06000e00 	streq	r0, [r0], -r0, lsl #28
    2d38:	000003bc 			; <UNDEFINED> instruction: 0x000003bc
    2d3c:	0005601d 	andeq	r6, r5, sp, lsl r0
    2d40:	257f0100 	ldrbcs	r0, [pc, #-256]!	; 2c48 <__code_start__-0x53b8>
    2d44:	4c000000 	stcmi	0, cr0, [r0], {-0}
    2d48:	d4000094 	strle	r0, [r0], #-148	; 0x94
    2d4c:	01000002 	tsteq	r0, r2
    2d50:	0006899c 	muleq	r6, ip, r9
    2d54:	75620b00 	strbvc	r0, [r2, #-2816]!	; 0xb00
    2d58:	7f010066 	svcvc	0x00010066
    2d5c:	00000074 	andeq	r0, r0, r4, ror r0
    2d60:	00000d50 	andeq	r0, r0, r0, asr sp
    2d64:	01006e0b 	tsteq	r0, fp, lsl #28
    2d68:	0000257f 	andeq	r2, r0, pc, ror r5
    2d6c:	000d7c00 	andeq	r7, sp, r0, lsl #24
    2d70:	6d660b00 	vstmdbvs	r6!, {d16-d15}
    2d74:	7f010074 	svcvc	0x00010074
    2d78:	00000081 	andeq	r0, r0, r1, lsl #1
    2d7c:	00000daa 	andeq	r0, r0, sl, lsr #27
    2d80:	000a760d 	andeq	r7, sl, sp, lsl #12
    2d84:	ae7f0100 	rpwgee	f0, f7, f0
    2d88:	c8000000 	stmdagt	r0, {}	; <UNPREDICTABLE>
    2d8c:	1000000d 	andne	r0, r0, sp
    2d90:	80010070 	andhi	r0, r1, r0, ror r0
    2d94:	00000074 	andeq	r0, r0, r4, ror r0
    2d98:	00000ddb 	ldrdeq	r0, [r0], -fp
    2d9c:	01006510 	tsteq	r0, r0, lsl r5
    2da0:	00007480 	andeq	r7, r0, r0, lsl #9
    2da4:	000e5900 	andeq	r5, lr, r0, lsl #18
    2da8:	061c1300 	ldreq	r1, [ip], -r0, lsl #6
    2dac:	83010000 	movwhi	r0, #4096	; 0x1000
    2db0:	00000081 	andeq	r0, r0, r1, lsl #1
    2db4:	00000e80 	andeq	r0, r0, r0, lsl #29
    2db8:	00012a11 	andeq	r2, r1, r1, lsl sl
    2dbc:	00069900 	andeq	r9, r6, r0, lsl #18
    2dc0:	a4030500 	strge	r0, [r3], #-1280	; 0x500
    2dc4:	1e0000a3 	cdpne	0, 0, cr0, cr0, cr3, {5}
    2dc8:	000094a8 	andeq	r9, r0, r8, lsr #9
    2dcc:	0000022c 	andeq	r0, r0, ip, lsr #4
    2dd0:	01007310 	tsteq	r0, r0, lsl r3
    2dd4:	0000748e 	andeq	r7, r0, lr, lsl #9
    2dd8:	000ea000 	andeq	sl, lr, r0
    2ddc:	756e0f00 	strbvc	r0, [lr, #-3840]!	; 0xf00
    2de0:	8e01006d 	cdphi	0, 0, cr0, cr1, cr13, {3}
    2de4:	0000069e 	muleq	r0, lr, r6
    2de8:	7ed89103 	atnvce	f1, f3
    2dec:	00066d13 	andeq	r6, r6, r3, lsl sp
    2df0:	2c8f0100 	stfcss	f0, [pc], {0}
    2df4:	f5000000 			; <UNDEFINED> instruction: 0xf5000000
    2df8:	1500000e 	strne	r0, [r0, #-14]
    2dfc:	000094d8 	ldrdeq	r9, [r0], -r8
    2e00:	000000b9 	strheq	r0, [r0], -r9
    2e04:	000004a4 	andeq	r0, r0, r4, lsr #9
    2e08:	02500116 	subseq	r0, r0, #-2147483643	; 0x80000005
    2e0c:	14000075 	strne	r0, [r0], #-117	; 0x75
    2e10:	000094ec 	andeq	r9, r0, ip, ror #9
    2e14:	000006c4 	andeq	r0, r0, r4, asr #13
    2e18:	00950815 	addseq	r0, r5, r5, lsl r8
    2e1c:	0006cb00 	andeq	ip, r6, r0, lsl #22
    2e20:	0004e600 	andeq	lr, r4, r0, lsl #12
    2e24:	53011600 	movwpl	r1, #5632	; 0x1600
    2e28:	16950802 	ldrne	r0, [r5], r2, lsl #16
    2e2c:	03055201 	movweq	r5, #20993	; 0x5201
    2e30:	0000a3a4 	andeq	sl, r0, r4, lsr #7
    2e34:	05510116 	ldrbeq	r0, [r1, #-278]	; 0x116
    2e38:	00a3b003 	adceq	fp, r3, r3
    2e3c:	50011600 	andpl	r1, r1, r0, lsl #12
    2e40:	9d4c0305 	stclls	3, cr0, [ip, #-20]	; 0xffffffec
    2e44:	02160000 	andseq	r0, r6, #0
    2e48:	0305007d 	movweq	r0, #20605	; 0x507d
    2e4c:	0000a3f4 	strdeq	sl, [r0], -r4
    2e50:	950c1400 	strls	r1, [ip, #-1024]	; 0x400
    2e54:	06e10000 	strbteq	r0, [r1], r0
    2e58:	7c140000 	ldcvc	0, cr0, [r4], {-0}
    2e5c:	c4000095 	strgt	r0, [r0], #-149	; 0x95
    2e60:	15000006 	strne	r0, [r0, #-6]
    2e64:	00009590 	muleq	r0, r0, r5
    2e68:	000006cb 	andeq	r0, r0, fp, asr #13
    2e6c:	00000527 	andeq	r0, r0, r7, lsr #10
    2e70:	02530116 	subseq	r0, r3, #-2147483643	; 0x80000005
    2e74:	01169b08 	tsteq	r6, r8, lsl #22
    2e78:	a4030552 	strge	r0, [r3], #-1362	; 0x552
    2e7c:	160000a3 	strne	r0, [r0], -r3, lsr #1
    2e80:	03055101 	movweq	r5, #20737	; 0x5101
    2e84:	0000a3b0 			; <UNDEFINED> instruction: 0x0000a3b0
    2e88:	05500116 	ldrbeq	r0, [r0, #-278]	; 0x116
    2e8c:	00a40003 	adceq	r0, r4, r3
    2e90:	94140000 	ldrls	r0, [r4], #-0
    2e94:	e1000095 	swp	r0, r5, [r0]	; <UNPREDICTABLE>
    2e98:	15000006 	strne	r0, [r0, #-6]
    2e9c:	000095b8 			; <UNDEFINED> instruction: 0x000095b8
    2ea0:	0000019c 	muleq	r0, ip, r1
    2ea4:	0000055d 	andeq	r0, r0, sp, asr r5
    2ea8:	02520116 	subseq	r0, r2, #-2147483643	; 0x80000005
    2eac:	01168008 	tsteq	r6, r8
    2eb0:	d0910351 	addsle	r0, r1, r1, asr r3
    2eb4:	5001167e 	andpl	r1, r1, lr, ror r6
    2eb8:	02163a01 	andseq	r3, r6, #4096	; 0x1000
    2ebc:	3101047d 	tstcc	r1, sp, ror r4
    2ec0:	007d0216 	rsbseq	r0, sp, r6, lsl r2
    2ec4:	00007702 	andeq	r7, r0, r2, lsl #14
    2ec8:	0095e015 	addseq	lr, r5, r5, lsl r0
    2ecc:	00019c00 	andeq	r9, r1, r0, lsl #24
    2ed0:	00058a00 	andeq	r8, r5, r0, lsl #20
    2ed4:	52011600 	andpl	r1, r1, #0, 12
    2ed8:	16800802 	strne	r0, [r0], r2, lsl #16
    2edc:	91035101 	tstls	r3, r1, lsl #2
    2ee0:	01167ed0 			; <UNDEFINED> instruction: 0x01167ed0
    2ee4:	163a0150 			; <UNDEFINED> instruction: 0x163a0150
    2ee8:	01047d02 	tsteq	r4, r2, lsl #26
    2eec:	7d021630 	stcvc	6, cr1, [r2, #-192]	; 0xffffff40
    2ef0:	00770200 	rsbseq	r0, r7, r0, lsl #4
    2ef4:	96081500 	strls	r1, [r8], -r0, lsl #10
    2ef8:	019c0000 	orrseq	r0, ip, r0
    2efc:	05b70000 	ldreq	r0, [r7, #0]!
    2f00:	01160000 	tsteq	r6, r0
    2f04:	80080252 	andhi	r0, r8, r2, asr r2
    2f08:	03510116 	cmpeq	r1, #-2147483643	; 0x80000005
    2f0c:	167ed091 			; <UNDEFINED> instruction: 0x167ed091
    2f10:	40015001 	andmi	r5, r1, r1
    2f14:	047d0216 	ldrbteq	r0, [sp], #-534	; 0x216
    2f18:	02163001 	andseq	r3, r6, #1
    2f1c:	7702007d 	smlsdxvc	r2, sp, r0, r0
    2f20:	30150000 	andscc	r0, r5, r0
    2f24:	9c000096 	stcls	0, cr0, [r0], {150}	; 0x96
    2f28:	e4000001 	str	r0, [r0], #-1
    2f2c:	16000005 	strne	r0, [r0], -r5
    2f30:	08025201 	stmdaeq	r2, {r0, r9, ip, lr}
    2f34:	51011680 	smlabbpl	r1, r0, r6, r1
    2f38:	7ed09103 	atnvcs	f1, f3
    2f3c:	01500116 	cmpeq	r0, r6, lsl r1
    2f40:	7d021632 	stcvc	6, cr1, [r2, #-200]	; 0xffffff38
    2f44:	16300104 	ldrtne	r0, [r0], -r4, lsl #2
    2f48:	02007d02 	andeq	r7, r0, #2, 26	; 0x80
    2f4c:	15000077 	strne	r0, [r0, #-119]	; 0x77
    2f50:	00009664 	andeq	r9, r0, r4, ror #12
    2f54:	0000019c 	muleq	r0, ip, r1
    2f58:	00000611 	andeq	r0, r0, r1, lsl r6
    2f5c:	02520116 	subseq	r0, r2, #-2147483643	; 0x80000005
    2f60:	01168008 	tsteq	r6, r8
    2f64:	d0910351 	addsle	r0, r1, r1, asr r3
    2f68:	5001167e 	andpl	r1, r1, lr, ror r6
    2f6c:	02163801 	andseq	r3, r6, #65536	; 0x10000
    2f70:	3001047d 	andcc	r0, r1, sp, ror r4
    2f74:	007d0216 	rsbseq	r0, sp, r6, lsl r2
    2f78:	00007702 	andeq	r7, r0, r2, lsl #14
    2f7c:	00968015 	addseq	r8, r6, r5, lsl r0
    2f80:	0006cb00 	andeq	ip, r6, r0, lsl #22
    2f84:	00063400 	andeq	r3, r6, r0, lsl #8
    2f88:	52011600 	andpl	r1, r1, #0, 12
    2f8c:	16007902 	strne	r7, [r0], -r2, lsl #18
    2f90:	79025101 	stmdbvc	r2, {r0, r8, ip, lr}
    2f94:	50011600 	andpl	r1, r1, r0, lsl #12
    2f98:	a4280305 	strtge	r0, [r8], #-773	; 0x305
    2f9c:	1f000000 	svcne	0x00000000
    2fa0:	00009690 	muleq	r0, r0, r6
    2fa4:	00000646 	andeq	r0, r0, r6, asr #12
    2fa8:	04500116 	ldrbeq	r0, [r0], #-278	; 0x116
    2fac:	067ecc91 			; <UNDEFINED> instruction: 0x067ecc91
    2fb0:	96941400 	ldrls	r1, [r4], r0, lsl #8
    2fb4:	06c40000 	strbeq	r0, [r4], r0
    2fb8:	a8150000 	ldmdage	r5, {}	; <UNPREDICTABLE>
    2fbc:	cb000096 	blgt	321c <__code_start__-0x4de4>
    2fc0:	7e000006 	cdpvc	0, 0, cr0, cr0, cr6, {0}
    2fc4:	16000006 	strne	r0, [r0], -r6
    2fc8:	08025301 	stmdaeq	r2, {r0, r8, r9, ip, lr}
    2fcc:	520116bf 	andpl	r1, r1, #200278016	; 0xbf00000
    2fd0:	a3a40305 			; <UNDEFINED> instruction: 0xa3a40305
    2fd4:	01160000 	tsteq	r6, r0
    2fd8:	b0030551 	andlt	r0, r3, r1, asr r5
    2fdc:	160000a3 	strne	r0, [r0], -r3, lsr #1
    2fe0:	03055001 	movweq	r5, #20481	; 0x5001
    2fe4:	0000a458 	andeq	sl, r0, r8, asr r4
    2fe8:	96ac1400 	strtls	r1, [ip], r0, lsl #8
    2fec:	06e10000 	strbteq	r0, [r1], r0
    2ff0:	00000000 	andeq	r0, r0, r0
    2ff4:	00007a18 	andeq	r7, r0, r8, lsl sl
    2ff8:	00069900 	andeq	r9, r6, r0, lsl #18
    2ffc:	006b1900 	rsbeq	r1, fp, r0, lsl #18
    3000:	00090000 	andeq	r0, r9, r0
    3004:	00068906 	andeq	r8, r6, r6, lsl #18
    3008:	007a1800 	rsbseq	r1, sl, r0, lsl #16
    300c:	06ae0000 	strteq	r0, [lr], r0
    3010:	6b190000 	blvs	643018 <__bss_end__+0x638650>
    3014:	7f000000 	svcvc	0x00000000
    3018:	05da2000 	ldrbeq	r2, [sl]
    301c:	1d030000 	stcne	0, cr0, [r3, #-0]
    3020:	000003a1 	andeq	r0, r0, r1, lsr #7
    3024:	00061720 	andeq	r1, r6, r0, lsr #14
    3028:	b6220300 	strtlt	r0, [r2], -r0, lsl #6
    302c:	21000003 	tstcs	r0, r3
    3030:	0000027e 	andeq	r0, r0, lr, ror r2
    3034:	63221e03 	teqvs	r2, #3, 28	; 0x30
    3038:	03000005 	movweq	r0, #5
    303c:	00002529 	andeq	r2, r0, r9, lsr #10
    3040:	0006e100 	andeq	lr, r6, r0, lsl #2
    3044:	00811c00 	addeq	r1, r1, r0, lsl #24
    3048:	00230000 	eoreq	r0, r3, r0
    304c:	0000f121 	andeq	pc, r0, r1, lsr #2
    3050:	00650300 	rsbeq	r0, r5, r0, lsl #6
    3054:	000000b8 	strheq	r0, [r0], -r8
    3058:	0c3b0004 	ldceq	0, cr0, [fp], #-16
    305c:	01040000 	mrseq	r0, (UNDEF: 4)
    3060:	00000509 	andeq	r0, r0, r9, lsl #10
    3064:	00068e01 	andeq	r8, r6, r1, lsl #28
    3068:	00057400 	andeq	r7, r5, r0, lsl #8
    306c:	00972000 	addseq	r2, r7, r0
    3070:	00002000 	andeq	r2, r0, r0
    3074:	000ab000 	andeq	fp, sl, r0
    3078:	05040200 	streq	r0, [r4, #-512]	; 0x200
    307c:	00746e69 	rsbseq	r6, r4, r9, ror #28
    3080:	c2070403 	andgt	r0, r7, #50331648	; 0x3000000
    3084:	03000001 	movweq	r0, #1
    3088:	00e50601 	rsceq	r0, r5, r1, lsl #12
    308c:	02030000 	andeq	r0, r3, #0
    3090:	00023705 	andeq	r3, r2, r5, lsl #14
    3094:	05040300 	streq	r0, [r4, #-768]	; 0x300
    3098:	00000200 	andeq	r0, r0, r0, lsl #4
    309c:	fb050803 	blx	1450b2 <__bss_end__+0x13a6ea>
    30a0:	03000001 	movweq	r0, #1
    30a4:	00e30801 	rsceq	r0, r3, r1, lsl #16
    30a8:	02030000 	andeq	r0, r3, #0
    30ac:	00004c07 	andeq	r4, r0, r7, lsl #24
    30b0:	07040300 	streq	r0, [r4, -r0, lsl #6]
    30b4:	000001bd 			; <UNDEFINED> instruction: 0x000001bd
    30b8:	b8070803 	stmdalt	r7, {r0, r1, fp}
    30bc:	03000001 	movweq	r0, #1
    30c0:	01de0704 	bicseq	r0, lr, r4, lsl #14
    30c4:	01030000 	mrseq	r0, (UNDEF: 3)
    30c8:	0000ec08 	andeq	lr, r0, r8, lsl #24
    30cc:	02090400 	andeq	r0, r9, #0, 8
    30d0:	03010000 	movweq	r0, #4096	; 0x1000
    30d4:	00009720 	andeq	r9, r0, r0, lsr #14
    30d8:	00000010 	andeq	r0, r0, r0, lsl r0
    30dc:	009c9c01 	addseq	r9, ip, r1, lsl #24
    30e0:	72050000 	andvc	r0, r5, #0
    30e4:	2c040100 	stfcss	f0, [r4], {-0}
    30e8:	1f000000 	svcne	0x00000000
    30ec:	0000000f 	andeq	r0, r0, pc
    30f0:	00068006 	andeq	r8, r6, r6
    30f4:	300c0100 	andcc	r0, ip, r0, lsl #2
    30f8:	10000097 	mulne	r0, r7, r0
    30fc:	01000000 	mrseq	r0, (UNDEF: 0)
    3100:	0072059c 			; <UNDEFINED> instruction: 0x0072059c
    3104:	002c0d01 	eoreq	r0, ip, r1, lsl #26
    3108:	0f430000 	svceq	0x00430000
    310c:	00000000 	andeq	r0, r0, r0
    3110:	0000010f 	andeq	r0, r0, pc, lsl #2
    3114:	0ca60004 	stceq	0, cr0, [r6], #16
    3118:	01040000 	mrseq	r0, (UNDEF: 4)
    311c:	00000509 	andeq	r0, r0, r9, lsl #10
    3120:	0006af01 	andeq	sl, r6, r1, lsl #30
    3124:	00057400 	andeq	r7, r5, r0, lsl #8
    3128:	00974000 	addseq	r4, r7, r0
    312c:	00002c00 	andeq	r2, r0, r0, lsl #24
    3130:	000af600 	andeq	pc, sl, r0, lsl #12
    3134:	05040200 	streq	r0, [r4, #-512]	; 0x200
    3138:	00746e69 	rsbseq	r6, r4, r9, ror #28
    313c:	c2070403 	andgt	r0, r7, #50331648	; 0x3000000
    3140:	03000001 	movweq	r0, #1
    3144:	00e50601 	rsceq	r0, r5, r1, lsl #12
    3148:	02030000 	andeq	r0, r3, #0
    314c:	00023705 	andeq	r3, r2, r5, lsl #14
    3150:	05040300 	streq	r0, [r4, #-768]	; 0x300
    3154:	00000200 	andeq	r0, r0, r0, lsl #4
    3158:	fb050803 	blx	14516e <__bss_end__+0x13a7a6>
    315c:	03000001 	movweq	r0, #1
    3160:	00e30801 	rsceq	r0, r3, r1, lsl #16
    3164:	02030000 	andeq	r0, r3, #0
    3168:	00004c07 	andeq	r4, r0, r7, lsl #24
    316c:	07040300 	streq	r0, [r4, -r0, lsl #6]
    3170:	000001bd 			; <UNDEFINED> instruction: 0x000001bd
    3174:	b8070803 	stmdalt	r7, {r0, r1, fp}
    3178:	03000001 	movweq	r0, #1
    317c:	01de0704 	bicseq	r0, lr, r4, lsl #14
    3180:	01030000 	mrseq	r0, (UNDEF: 3)
    3184:	0000ec08 	andeq	lr, r0, r8, lsl #24
    3188:	7f040400 	svcvc	0x00040400
    318c:	05000000 	streq	r0, [r0, #-0]
    3190:	00000072 	andeq	r0, r0, r2, ror r0
    3194:	0000f106 	andeq	pc, r0, r6, lsl #2
    3198:	40040100 	andmi	r0, r4, r0, lsl #2
    319c:	2c000097 	stccs	0, cr0, [r0], {151}	; 0x97
    31a0:	01000000 	mrseq	r0, (UNDEF: 0)
    31a4:	0000d39c 	muleq	r0, ip, r3
    31a8:	97480700 	strbls	r0, [r8, -r0, lsl #14]
    31ac:	00f30000 	rscseq	r0, r3, r0
    31b0:	58080000 	stmdapl	r8, {}	; <UNPREDICTABLE>
    31b4:	b5000097 	strlt	r0, [r0, #-151]	; 0x97
    31b8:	09000000 	stmdbeq	r0, {}	; <UNPREDICTABLE>
    31bc:	03055001 	movweq	r5, #20481	; 0x5001
    31c0:	0000a478 	andeq	sl, r0, r8, ror r4
    31c4:	97600a00 	strbls	r0, [r0, -r0, lsl #20]!
    31c8:	00fa0000 	rscseq	r0, sl, r0
    31cc:	00c90000 	sbceq	r0, r9, r0
    31d0:	01090000 	mrseq	r0, (UNDEF: 9)
    31d4:	64080250 	strvs	r0, [r8], #-592	; 0x250
    31d8:	97640700 	strbls	r0, [r4, -r0, lsl #14]!
    31dc:	010b0000 	mrseq	r0, (UNDEF: 11)
    31e0:	0b000000 	bleq	31e8 <__code_start__-0x4e18>
    31e4:	00000025 	andeq	r0, r0, r5, lsr #32
    31e8:	000000e2 	andeq	r0, r0, r2, ror #1
    31ec:	0000790c 	andeq	r7, r0, ip, lsl #18
    31f0:	170d0000 	strne	r0, [sp, -r0]
    31f4:	02000006 	andeq	r0, r0, #6
    31f8:	0000ed22 	andeq	lr, r0, r2, lsr #26
    31fc:	d3040400 	movwle	r0, #17408	; 0x4400
    3200:	0e000000 	cdpeq	0, 0, cr0, cr0, cr0, {0}
    3204:	000006a0 	andeq	r0, r0, r0, lsr #13
    3208:	d30fdc02 	movwle	sp, #64514	; 0xfc02
    320c:	02000006 	andeq	r0, r0, #6
    3210:	00010b4f 	andeq	r0, r1, pc, asr #22
    3214:	002c0c00 	eoreq	r0, ip, r0, lsl #24
    3218:	0e000000 	cdpeq	0, 0, cr0, cr0, cr0, {0}
    321c:	000006c8 	andeq	r0, r0, r8, asr #13
    3220:	0f006202 	svceq	0x00006202
    3224:	04000001 	streq	r0, [r0], #-1
    3228:	000d7000 	andeq	r7, sp, r0
    322c:	09010400 	stmdbeq	r1, {sl}
    3230:	01000005 	tsteq	r0, r5
    3234:	00000715 	andeq	r0, r0, r5, lsl r7
    3238:	00000574 	andeq	r0, r0, r4, ror r5
    323c:	0000976c 	andeq	r9, r0, ip, ror #14
    3240:	00000038 	andeq	r0, r0, r8, lsr r0
    3244:	00000b97 	muleq	r0, r7, fp
    3248:	69050402 	stmdbvs	r5, {r1, sl}
    324c:	0300746e 	movweq	r7, #1134	; 0x46e
    3250:	01c20704 	biceq	r0, r2, r4, lsl #14
    3254:	01030000 	mrseq	r0, (UNDEF: 3)
    3258:	0000e506 	andeq	lr, r0, r6, lsl #10
    325c:	05020300 	streq	r0, [r2, #-768]	; 0x300
    3260:	00000237 	andeq	r0, r0, r7, lsr r2
    3264:	00050403 	andeq	r0, r5, r3, lsl #8
    3268:	03000002 	movweq	r0, #2
    326c:	01fb0508 	mvnseq	r0, r8, lsl #10
    3270:	01030000 	mrseq	r0, (UNDEF: 3)
    3274:	0000e308 	andeq	lr, r0, r8, lsl #6
    3278:	07020300 	streq	r0, [r2, -r0, lsl #6]
    327c:	0000004c 	andeq	r0, r0, ip, asr #32
    3280:	bd070403 	cfstrslt	mvf0, [r7, #-12]
    3284:	03000001 	movweq	r0, #1
    3288:	01b80708 			; <UNDEFINED> instruction: 0x01b80708
    328c:	04030000 	streq	r0, [r3], #-0
    3290:	0001de07 	andeq	sp, r1, r7, lsl #28
    3294:	08010300 	stmdaeq	r1, {r8, r9}
    3298:	000000ec 	andeq	r0, r0, ip, ror #1
    329c:	00070d04 	andeq	r0, r7, r4, lsl #26
    32a0:	6c0d0100 	stfvss	f0, [sp], {-0}
    32a4:	38000097 	stmdacc	r0, {r0, r1, r2, r4, r7}
    32a8:	01000000 	mrseq	r0, (UNDEF: 0)
    32ac:	0000e19c 	muleq	r0, ip, r1
    32b0:	06dc0500 	ldrbeq	r0, [ip], r0, lsl #10
    32b4:	0e010000 	cdpeq	0, 0, cr0, cr1, cr0, {0}
    32b8:	00000025 	andeq	r0, r0, r5, lsr #32
    32bc:	0006ea05 	andeq	lr, r6, r5, lsl #20
    32c0:	250e0100 	strcs	r0, [lr, #-256]	; 0x100
    32c4:	06000000 	streq	r0, [r0], -r0
    32c8:	000000bd 	strheq	r0, [r0], -sp
    32cc:	62070f01 	andvs	r0, r7, #1, 30
    32d0:	01007373 	tsteq	r0, r3, ror r3
    32d4:	0000e111 	andeq	lr, r0, r1, lsl r1
    32d8:	000f6700 	andeq	r6, pc, r0, lsl #14
    32dc:	07050800 	streq	r0, [r5, -r0, lsl #16]
    32e0:	12010000 	andne	r0, r1, #0
    32e4:	000000e1 	andeq	r0, r0, r1, ror #1
    32e8:	00979409 	addseq	r9, r7, r9, lsl #8
    32ec:	0000fd00 	andeq	pc, r0, r0, lsl #26
    32f0:	97980900 	ldrls	r0, [r8, r0, lsl #18]
    32f4:	01040000 	mrseq	r0, (UNDEF: 4)
    32f8:	9c090000 	stcls	0, cr0, [r9], {-0}
    32fc:	0b000097 	bleq	3560 <__code_start__-0x4aa0>
    3300:	00000001 	andeq	r0, r0, r1
    3304:	0025040a 	eoreq	r0, r5, sl, lsl #8
    3308:	dc050000 	stcle	0, cr0, [r5], {-0}
    330c:	01000006 	tsteq	r0, r6
    3310:	0000250e 	andeq	r2, r0, lr, lsl #10
    3314:	06ea0500 	strbteq	r0, [sl], r0, lsl #10
    3318:	0e010000 	cdpeq	0, 0, cr0, cr1, cr0, {0}
    331c:	00000025 	andeq	r0, r0, r5, lsr #32
    3320:	0006f606 	andeq	pc, r6, r6, lsl #12
    3324:	06da0200 	ldrbeq	r0, [sl], r0, lsl #4
    3328:	000000bd 	strheq	r0, [r0], -sp
    332c:	f106d702 			; <UNDEFINED> instruction: 0xf106d702
    3330:	02000000 	andeq	r0, r0, #0
    3334:	013e0065 	teqeq	lr, r5, rrx
    3338:	00040000 	andeq	r0, r4, r0
    333c:	00000e04 	andeq	r0, r0, r4, lsl #28
    3340:	05090104 	streq	r0, [r9, #-260]	; 0x104
    3344:	28010000 	stmdacs	r1, {}	; <UNPREDICTABLE>
    3348:	74000007 	strvc	r0, [r0], #-7
    334c:	a4000005 	strge	r0, [r0], #-5
    3350:	44000097 	strmi	r0, [r0], #-151	; 0x97
    3354:	41000000 	mrsmi	r0, (UNDEF: 0)
    3358:	0200000c 	andeq	r0, r0, #12
    335c:	6e690504 	cdpvs	5, 6, cr0, cr9, cr4, {0}
    3360:	04030074 	streq	r0, [r3], #-116	; 0x74
    3364:	0001c207 	andeq	ip, r1, r7, lsl #4
    3368:	06010300 	streq	r0, [r1], -r0, lsl #6
    336c:	000000e5 	andeq	r0, r0, r5, ror #1
    3370:	37050203 	strcc	r0, [r5, -r3, lsl #4]
    3374:	03000002 	movweq	r0, #2
    3378:	02000504 	andeq	r0, r0, #4, 10	; 0x1000000
    337c:	08030000 	stmdaeq	r3, {}	; <UNPREDICTABLE>
    3380:	0001fb05 	andeq	pc, r1, r5, lsl #22
    3384:	08010300 	stmdaeq	r1, {r8, r9}
    3388:	000000e3 	andeq	r0, r0, r3, ror #1
    338c:	4c070203 	sfmmi	f0, 4, [r7], {3}
    3390:	03000000 	movweq	r0, #0
    3394:	01bd0704 			; <UNDEFINED> instruction: 0x01bd0704
    3398:	08030000 	stmdaeq	r3, {}	; <UNPREDICTABLE>
    339c:	0001b807 	andeq	fp, r1, r7, lsl #16
    33a0:	07040300 	streq	r0, [r4, -r0, lsl #6]
    33a4:	000001de 	ldrdeq	r0, [r0], -lr
    33a8:	ec080103 	stfs	f0, [r8], {3}
    33ac:	04000000 	streq	r0, [r0], #-0
    33b0:	00007f04 	andeq	r7, r0, r4, lsl #30
    33b4:	00720500 	rsbseq	r0, r2, r0, lsl #10
    33b8:	49060000 	stmdbmi	r6, {}	; <UNPREDICTABLE>
    33bc:	01000007 	tsteq	r0, r7
    33c0:	0097a402 	addseq	sl, r7, r2, lsl #8
    33c4:	00004400 	andeq	r4, r0, r0, lsl #8
    33c8:	089c0100 	ldmeq	ip, {r8}
    33cc:	07000001 	streq	r0, [r0, -r1]
    33d0:	01006370 	tsteq	r0, r0, ror r3
    33d4:	00002c02 	andeq	r2, r0, r2, lsl #24
    33d8:	000f8700 	andeq	r8, pc, r0, lsl #14
    33dc:	012a0800 	teqeq	sl, r0, lsl #16
    33e0:	01180000 	tsteq	r8, r0
    33e4:	03050000 	movweq	r0, #20480	; 0x5000
    33e8:	0000a484 	andeq	sl, r0, r4, lsl #9
    33ec:	0097b409 	addseq	fp, r7, r9, lsl #8
    33f0:	00011d00 	andeq	r1, r1, r0, lsl #26
    33f4:	97d40a00 	ldrbls	r0, [r4, r0, lsl #20]
    33f8:	01240000 	teqeq	r4, r0
    33fc:	00fe0000 	rscseq	r0, lr, r0
    3400:	010b0000 	mrseq	r0, (UNDEF: 11)
    3404:	0b320153 	bleq	c83958 <__bss_end__+0xc78f90>
    3408:	03055201 	movweq	r5, #20993	; 0x5201
    340c:	0000a484 	andeq	sl, r0, r4, lsl #9
    3410:	0551010b 	ldrbeq	r0, [r1, #-267]	; 0x10b
    3414:	00a4d803 	adceq	sp, r4, r3, lsl #16
    3418:	50010b00 	andpl	r0, r1, r0, lsl #22
    341c:	a49c0305 	ldrge	r0, [ip], #773	; 0x305
    3420:	020b0000 	andeq	r0, fp, #0
    3424:	7402047d 	strvc	r0, [r2], #-1149	; 0x47d
    3428:	7d020b00 	vstrvc	d0, [r2, #-0]
    342c:	fc030500 	stc2	5, cr0, [r3], {-0}
    3430:	000000a4 	andeq	r0, r0, r4, lsr #1
    3434:	0097d809 	addseq	sp, r7, r9, lsl #16
    3438:	00013a00 	andeq	r3, r1, r0, lsl #20
    343c:	720c0000 	andvc	r0, ip, #0
    3440:	18000000 	stmdane	r0, {}	; <UNPREDICTABLE>
    3444:	0d000001 	stceq	0, cr0, [r0, #-4]
    3448:	0000006b 	andeq	r0, r0, fp, rrx
    344c:	08050015 	stmdaeq	r5, {r0, r2, r4}
    3450:	0e000001 	cdpeq	0, 0, cr0, cr0, cr1, {0}
    3454:	0000027e 	andeq	r0, r0, lr, ror r2
    3458:	630f1e02 	movwvs	r1, #65026	; 0xfe02
    345c:	02000005 	andeq	r0, r0, #5
    3460:	00002529 	andeq	r2, r0, r9, lsr #10
    3464:	00013a00 	andeq	r3, r1, r0, lsl #20
    3468:	00791000 	rsbseq	r1, r9, r0
    346c:	00110000 	andseq	r0, r1, r0
    3470:	0000f10e 	andeq	pc, r0, lr, lsl #2
    3474:	00650200 	rsbeq	r0, r5, r0, lsl #4
    3478:	0000013e 	andeq	r0, r0, lr, lsr r1
    347c:	0edc0004 	cdpeq	0, 13, cr0, cr12, cr4, {0}
    3480:	01040000 	mrseq	r0, (UNDEF: 4)
    3484:	00000509 	andeq	r0, r0, r9, lsl #10
    3488:	00076c01 	andeq	r6, r7, r1, lsl #24
    348c:	00057400 	andeq	r7, r5, r0, lsl #8
    3490:	0097e800 	addseq	lr, r7, r0, lsl #16
    3494:	00004400 	andeq	r4, r0, r0, lsl #8
    3498:	000ce700 	andeq	lr, ip, r0, lsl #14
    349c:	05040200 	streq	r0, [r4, #-512]	; 0x200
    34a0:	00746e69 	rsbseq	r6, r4, r9, ror #28
    34a4:	c2070403 	andgt	r0, r7, #50331648	; 0x3000000
    34a8:	03000001 	movweq	r0, #1
    34ac:	00e50601 	rsceq	r0, r5, r1, lsl #12
    34b0:	02030000 	andeq	r0, r3, #0
    34b4:	00023705 	andeq	r3, r2, r5, lsl #14
    34b8:	05040300 	streq	r0, [r4, #-768]	; 0x300
    34bc:	00000200 	andeq	r0, r0, r0, lsl #4
    34c0:	fb050803 	blx	1454d6 <__bss_end__+0x13ab0e>
    34c4:	03000001 	movweq	r0, #1
    34c8:	00e30801 	rsceq	r0, r3, r1, lsl #16
    34cc:	02030000 	andeq	r0, r3, #0
    34d0:	00004c07 	andeq	r4, r0, r7, lsl #24
    34d4:	07040300 	streq	r0, [r4, -r0, lsl #6]
    34d8:	000001bd 			; <UNDEFINED> instruction: 0x000001bd
    34dc:	b8070803 	stmdalt	r7, {r0, r1, fp}
    34e0:	03000001 	movweq	r0, #1
    34e4:	01de0704 	bicseq	r0, lr, r4, lsl #14
    34e8:	01030000 	mrseq	r0, (UNDEF: 3)
    34ec:	0000ec08 	andeq	lr, r0, r8, lsl #24
    34f0:	7f040400 	svcvc	0x00040400
    34f4:	05000000 	streq	r0, [r0, #-0]
    34f8:	00000072 	andeq	r0, r0, r2, ror r0
    34fc:	00075f06 	andeq	r5, r7, r6, lsl #30
    3500:	e8020100 	stmda	r2, {r8}
    3504:	44000097 	strmi	r0, [r0], #-151	; 0x97
    3508:	01000000 	mrseq	r0, (UNDEF: 0)
    350c:	0001089c 	muleq	r1, ip, r8
    3510:	63700700 	cmnvs	r0, #0, 14
    3514:	2c020100 	stfcss	f0, [r2], {-0}
    3518:	a5000000 	strge	r0, [r0, #-0]
    351c:	0800000f 	stmdaeq	r0, {r0, r1, r2, r3}
    3520:	0000012a 	andeq	r0, r0, sl, lsr #2
    3524:	00000118 	andeq	r0, r0, r8, lsl r1
    3528:	a5040305 	strge	r0, [r4, #-773]	; 0x305
    352c:	f8090000 			; <UNDEFINED> instruction: 0xf8090000
    3530:	1d000097 	stcne	0, cr0, [r0, #-604]	; 0xfffffda4
    3534:	0a000001 	beq	3540 <__code_start__-0x4ac0>
    3538:	00009818 	andeq	r9, r0, r8, lsl r8
    353c:	00000124 	andeq	r0, r0, r4, lsr #2
    3540:	000000fe 	strdeq	r0, [r0], -lr
    3544:	0153010b 	cmpeq	r3, fp, lsl #2
    3548:	52010b32 	andpl	r0, r1, #51200	; 0xc800
    354c:	a5040305 	strge	r0, [r4, #-773]	; 0x305
    3550:	010b0000 	mrseq	r0, (UNDEF: 11)
    3554:	14030551 	strne	r0, [r3], #-1361	; 0x551
    3558:	0b0000a5 	bleq	37f4 <__code_start__-0x480c>
    355c:	03055001 	movweq	r5, #20481	; 0x5001
    3560:	0000a49c 	muleq	r0, ip, r4
    3564:	047d020b 	ldrbteq	r0, [sp], #-523	; 0x20b
    3568:	0b007402 	bleq	20578 <__bss_end__+0x15bb0>
    356c:	05007d02 	streq	r7, [r0, #-3330]	; 0xd02
    3570:	00a53803 	adceq	r3, r5, r3, lsl #16
    3574:	1c090000 	stcne	0, cr0, [r9], {-0}
    3578:	3a000098 	bcc	37e0 <__code_start__-0x4820>
    357c:	00000001 	andeq	r0, r0, r1
    3580:	0000720c 	andeq	r7, r0, ip, lsl #4
    3584:	00011800 	andeq	r1, r1, r0, lsl #16
    3588:	006b0d00 	rsbeq	r0, fp, r0, lsl #26
    358c:	000c0000 	andeq	r0, ip, r0
    3590:	00010805 	andeq	r0, r1, r5, lsl #16
    3594:	027e0e00 	rsbseq	r0, lr, #0, 28
    3598:	1e020000 	cdpne	0, 0, cr0, cr2, cr0, {0}
    359c:	0005630f 	andeq	r6, r5, pc, lsl #6
    35a0:	25290200 	strcs	r0, [r9, #-512]!	; 0x200
    35a4:	3a000000 	bcc	35ac <__code_start__-0x4a54>
    35a8:	10000001 	andne	r0, r0, r1
    35ac:	00000079 	andeq	r0, r0, r9, ror r0
    35b0:	f10e0011 	cpsid	,#17
    35b4:	02000000 	andeq	r0, r0, #0
    35b8:	013e0065 	teqeq	lr, r5, rrx
    35bc:	00040000 	andeq	r0, r4, r0
    35c0:	00000fb4 			; <UNDEFINED> instruction: 0x00000fb4
    35c4:	05090104 	streq	r0, [r9, #-260]	; 0x104
    35c8:	8e010000 	cdphi	0, 0, cr0, cr1, cr0, {0}
    35cc:	74000007 	strvc	r0, [r0], #-7
    35d0:	2c000005 	stccs	0, cr0, [r0], {5}
    35d4:	44000098 	strmi	r0, [r0], #-152	; 0x98
    35d8:	8e000000 	cdphi	0, 0, cr0, cr0, cr0, {0}
    35dc:	0200000d 	andeq	r0, r0, #13
    35e0:	6e690504 	cdpvs	5, 6, cr0, cr9, cr4, {0}
    35e4:	04030074 	streq	r0, [r3], #-116	; 0x74
    35e8:	0001c207 	andeq	ip, r1, r7, lsl #4
    35ec:	06010300 	streq	r0, [r1], -r0, lsl #6
    35f0:	000000e5 	andeq	r0, r0, r5, ror #1
    35f4:	37050203 	strcc	r0, [r5, -r3, lsl #4]
    35f8:	03000002 	movweq	r0, #2
    35fc:	02000504 	andeq	r0, r0, #4, 10	; 0x1000000
    3600:	08030000 	stmdaeq	r3, {}	; <UNPREDICTABLE>
    3604:	0001fb05 	andeq	pc, r1, r5, lsl #22
    3608:	08010300 	stmdaeq	r1, {r8, r9}
    360c:	000000e3 	andeq	r0, r0, r3, ror #1
    3610:	4c070203 	sfmmi	f0, 4, [r7], {3}
    3614:	03000000 	movweq	r0, #0
    3618:	01bd0704 			; <UNDEFINED> instruction: 0x01bd0704
    361c:	08030000 	stmdaeq	r3, {}	; <UNPREDICTABLE>
    3620:	0001b807 	andeq	fp, r1, r7, lsl #16
    3624:	07040300 	streq	r0, [r4, -r0, lsl #6]
    3628:	000001de 	ldrdeq	r0, [r0], -lr
    362c:	ec080103 	stfs	f0, [r8], {3}
    3630:	04000000 	streq	r0, [r0], #-0
    3634:	00007f04 	andeq	r7, r0, r4, lsl #30
    3638:	00720500 	rsbseq	r0, r2, r0, lsl #10
    363c:	b9060000 	stmdblt	r6, {}	; <UNPREDICTABLE>
    3640:	01000007 	tsteq	r0, r7
    3644:	00982c02 	addseq	r2, r8, r2, lsl #24
    3648:	00004400 	andeq	r4, r0, r0, lsl #8
    364c:	089c0100 	ldmeq	ip, {r8}
    3650:	07000001 	streq	r0, [r0, -r1]
    3654:	01006370 	tsteq	r0, r0, ror r3
    3658:	00002c02 	andeq	r2, r0, r2, lsl #24
    365c:	000fc300 	andeq	ip, pc, r0, lsl #6
    3660:	012a0800 	teqeq	sl, r0, lsl #16
    3664:	01180000 	tsteq	r8, r0
    3668:	03050000 	movweq	r0, #20480	; 0x5000
    366c:	0000a540 	andeq	sl, r0, r0, asr #10
    3670:	00983c09 	addseq	r3, r8, r9, lsl #24
    3674:	00011d00 	andeq	r1, r1, r0, lsl #26
    3678:	985c0a00 	ldmdals	ip, {r9, fp}^
    367c:	01240000 	teqeq	r4, r0
    3680:	00fe0000 	rscseq	r0, lr, r0
    3684:	010b0000 	mrseq	r0, (UNDEF: 11)
    3688:	0b320153 	bleq	c83bdc <__bss_end__+0xc79214>
    368c:	03055201 	movweq	r5, #20993	; 0x5201
    3690:	0000a540 	andeq	sl, r0, r0, asr #10
    3694:	0551010b 	ldrbeq	r0, [r1, #-267]	; 0x10b
    3698:	00a56003 	adceq	r6, r5, r3
    369c:	50010b00 	andpl	r0, r1, r0, lsl #22
    36a0:	a49c0305 	ldrge	r0, [ip], #773	; 0x305
    36a4:	020b0000 	andeq	r0, fp, #0
    36a8:	7402047d 	strvc	r0, [r2], #-1149	; 0x47d
    36ac:	7d020b00 	vstrvc	d0, [r2, #-0]
    36b0:	8c030500 	cfstr32hi	mvfx0, [r3], {-0}
    36b4:	000000a5 	andeq	r0, r0, r5, lsr #1
    36b8:	00986009 	addseq	r6, r8, r9
    36bc:	00013a00 	andeq	r3, r1, r0, lsl #20
    36c0:	720c0000 	andvc	r0, ip, #0
    36c4:	18000000 	stmdane	r0, {}	; <UNPREDICTABLE>
    36c8:	0d000001 	stceq	0, cr0, [r0, #-4]
    36cc:	0000006b 	andeq	r0, r0, fp, rrx
    36d0:	0805001c 	stmdaeq	r5, {r2, r3, r4}
    36d4:	0e000001 	cdpeq	0, 0, cr0, cr0, cr1, {0}
    36d8:	0000027e 	andeq	r0, r0, lr, ror r2
    36dc:	630f1e02 	movwvs	r1, #65026	; 0xfe02
    36e0:	02000005 	andeq	r0, r0, #5
    36e4:	00002529 	andeq	r2, r0, r9, lsr #10
    36e8:	00013a00 	andeq	r3, r1, r0, lsl #20
    36ec:	00791000 	rsbseq	r1, r9, r0
    36f0:	00110000 	andseq	r0, r1, r0
    36f4:	0000f10e 	andeq	pc, r0, lr, lsl #2
    36f8:	00650200 	rsbeq	r0, r5, r0, lsl #4
    36fc:	00000098 	muleq	r0, r8, r0
    3700:	108c0004 	addne	r0, ip, r4
    3704:	01040000 	mrseq	r0, (UNDEF: 4)
    3708:	00000509 	andeq	r0, r0, r9, lsl #10
    370c:	0007d601 	andeq	sp, r7, r1, lsl #12
    3710:	00057400 	andeq	r7, r5, r0, lsl #8
    3714:	00987000 	addseq	r7, r8, r0
    3718:	00000800 	andeq	r0, r0, r0, lsl #16
    371c:	000e3e00 	andeq	r3, lr, r0, lsl #28
    3720:	05040200 	streq	r0, [r4, #-512]	; 0x200
    3724:	00746e69 	rsbseq	r6, r4, r9, ror #28
    3728:	c2070403 	andgt	r0, r7, #50331648	; 0x3000000
    372c:	03000001 	movweq	r0, #1
    3730:	00e50601 	rsceq	r0, r5, r1, lsl #12
    3734:	02030000 	andeq	r0, r3, #0
    3738:	00023705 	andeq	r3, r2, r5, lsl #14
    373c:	05040300 	streq	r0, [r4, #-768]	; 0x300
    3740:	00000200 	andeq	r0, r0, r0, lsl #4
    3744:	fb050803 	blx	14575a <__bss_end__+0x13ad92>
    3748:	03000001 	movweq	r0, #1
    374c:	00e30801 	rsceq	r0, r3, r1, lsl #16
    3750:	02030000 	andeq	r0, r3, #0
    3754:	00004c07 	andeq	r4, r0, r7, lsl #24
    3758:	07040300 	streq	r0, [r4, -r0, lsl #6]
    375c:	000001bd 			; <UNDEFINED> instruction: 0x000001bd
    3760:	b8070803 	stmdalt	r7, {r0, r1, fp}
    3764:	03000001 	movweq	r0, #1
    3768:	01de0704 	bicseq	r0, lr, r4, lsl #14
    376c:	01030000 	mrseq	r0, (UNDEF: 3)
    3770:	0000ec08 	andeq	lr, r0, r8, lsl #24
    3774:	06f60400 	ldrbteq	r0, [r6], r0, lsl #8
    3778:	04010000 	streq	r0, [r1], #-0
    377c:	00009870 	andeq	r9, r0, r0, ror r8
    3780:	00000004 	andeq	r0, r0, r4
    3784:	a0049c01 	andge	r9, r4, r1, lsl #24
    3788:	01000006 	tsteq	r0, r6
    378c:	00987405 	addseq	r7, r8, r5, lsl #8
    3790:	00000400 	andeq	r0, r0, r0, lsl #8
    3794:	009c0100 	addseq	r0, ip, r0, lsl #2
    3798:	000001d7 	ldrdeq	r0, [r0], -r7
    379c:	10ce0004 	sbcne	r0, lr, r4
    37a0:	01040000 	mrseq	r0, (UNDEF: 4)
    37a4:	00000509 	andeq	r0, r0, r9, lsl #10
    37a8:	00089201 	andeq	r9, r8, r1, lsl #4
    37ac:	00057400 	andeq	r7, r5, r0, lsl #8
    37b0:	00987800 	addseq	r7, r8, r0, lsl #16
    37b4:	00006c00 	andeq	r6, r0, r0, lsl #24
    37b8:	000e8900 	andeq	r8, lr, r0, lsl #18
    37bc:	05040200 	streq	r0, [r4, #-512]	; 0x200
    37c0:	00746e69 	rsbseq	r6, r4, r9, ror #28
    37c4:	c2070403 	andgt	r0, r7, #50331648	; 0x3000000
    37c8:	03000001 	movweq	r0, #1
    37cc:	00e50601 	rsceq	r0, r5, r1, lsl #12
    37d0:	02030000 	andeq	r0, r3, #0
    37d4:	00023705 	andeq	r3, r2, r5, lsl #14
    37d8:	05040300 	streq	r0, [r4, #-768]	; 0x300
    37dc:	00000200 	andeq	r0, r0, r0, lsl #4
    37e0:	fb050803 	blx	1457f6 <__bss_end__+0x13ae2e>
    37e4:	03000001 	movweq	r0, #1
    37e8:	00e30801 	rsceq	r0, r3, r1, lsl #16
    37ec:	02030000 	andeq	r0, r3, #0
    37f0:	00004c07 	andeq	r4, r0, r7, lsl #24
    37f4:	07040300 	streq	r0, [r4, -r0, lsl #6]
    37f8:	000001bd 			; <UNDEFINED> instruction: 0x000001bd
    37fc:	b8070803 	stmdalt	r7, {r0, r1, fp}
    3800:	03000001 	movweq	r0, #1
    3804:	01de0704 	bicseq	r0, lr, r4, lsl #14
    3808:	01030000 	mrseq	r0, (UNDEF: 3)
    380c:	0000ec08 	andeq	lr, r0, r8, lsl #24
    3810:	02040400 	andeq	r0, r4, #0, 8
    3814:	0000f014 	andeq	pc, r0, r4, lsl r0	; <UNPREDICTABLE>
    3818:	08ab0500 	stmiaeq	fp!, {r8, sl}
    381c:	e4800000 	str	r0, [r0], #0
    3820:	05028082 	streq	r8, [r2, #-130]	; 0x82
    3824:	00000831 	andeq	r0, r0, r1, lsr r8
    3828:	8082e480 	addhi	lr, r2, r0, lsl #9
    382c:	08d80502 	ldmeq	r8, {r1, r8, sl}^
    3830:	e4840000 	str	r0, [r4], #0
    3834:	05028082 	streq	r8, [r2, #-130]	; 0x82
    3838:	000007f3 	strdeq	r0, [r0], -r3
    383c:	8082e488 	addhi	lr, r2, r8, lsl #9
    3840:	08140502 	ldmdaeq	r4, {r1, r8, sl}
    3844:	e48c0000 	str	r0, [ip], #0
    3848:	05028082 	streq	r8, [r2, #-130]	; 0x82
    384c:	00000855 	andeq	r0, r0, r5, asr r8
    3850:	8082e490 	umullhi	lr, r2, r0, r4
    3854:	08630502 	stmdaeq	r3!, {r1, r8, sl}^
    3858:	e4940000 	ldr	r0, [r4], #0
    385c:	05028082 	streq	r8, [r2, #-130]	; 0x82
    3860:	00000843 	andeq	r0, r0, r3, asr #16
    3864:	8082e498 	umullhi	lr, r2, r8, r4
    3868:	08ba0502 	ldmeq	sl!, {r1, r8, sl}
    386c:	e49c0000 	ldr	r0, [ip], #0
    3870:	05028082 	streq	r8, [r2, #-130]	; 0x82
    3874:	000008c9 	andeq	r0, r0, r9, asr #17
    3878:	8082e4a0 	addhi	lr, r2, r0, lsr #9
    387c:	08010502 	stmdaeq	r1, {r1, r8, sl}
    3880:	e4a40000 	strt	r0, [r4], #0
    3884:	00028082 	andeq	r8, r2, r2, lsl #1
    3888:	00042406 	andeq	r2, r4, r6, lsl #8
    388c:	781b0100 	ldmdavc	fp, {r8}
    3890:	6c000098 	stcvs	0, cr0, [r0], {152}	; 0x98
    3894:	01000000 	mrseq	r0, (UNDEF: 0)
    3898:	0001a59c 	muleq	r1, ip, r5
    389c:	08200700 	stmdaeq	r0!, {r8, r9, sl}
    38a0:	23010000 	movwcs	r0, #4096	; 0x1000
    38a4:	0000002c 	andeq	r0, r0, ip, lsr #32
    38a8:	00087107 	andeq	r7, r8, r7, lsl #2
    38ac:	2c240100 	stfcss	f0, [r4], #-0
    38b0:	08000000 	stmdaeq	r0, {}	; <UNPREDICTABLE>
    38b4:	00747364 	rsbseq	r7, r4, r4, ror #6
    38b8:	01a52701 			; <UNDEFINED> instruction: 0x01a52701
    38bc:	09000000 	stmdbeq	r0, {}	; <UNPREDICTABLE>
    38c0:	00637273 	rsbeq	r7, r3, r3, ror r2
    38c4:	01a52801 			; <UNDEFINED> instruction: 0x01a52801
    38c8:	6e0a0000 	cdpvs	0, 0, cr0, cr10, cr0, {0}
    38cc:	2c290100 	stfcss	f0, [r9], #-0
    38d0:	01000000 	mrseq	r0, (UNDEF: 0)
    38d4:	98ac0b50 	stmials	ip!, {r4, r6, r8, r9, fp}
    38d8:	00240000 	eoreq	r0, r4, r0
    38dc:	01580000 	cmpeq	r8, r0
    38e0:	690c0000 	stmdbvs	ip, {}	; <UNPREDICTABLE>
    38e4:	252a0100 	strcs	r0, [sl, #-256]!	; 0x100
    38e8:	e1000000 	mrs	r0, (UNDEF: 0)
    38ec:	0000000f 	andeq	r0, r0, pc
    38f0:	0098800d 	addseq	r8, r8, sp
    38f4:	0001c100 	andeq	ip, r1, r0, lsl #2
    38f8:	988c0e00 	stmls	ip, {r9, sl, fp}
    38fc:	01c80000 	biceq	r0, r8, r0
    3900:	017e0000 	cmneq	lr, r0
    3904:	010f0000 	mrseq	r0, CPSR
    3908:	ff090251 			; <UNDEFINED> instruction: 0xff090251
    390c:	0550010f 	ldrbeq	r0, [r0, #-271]	; 0x10f
    3910:	00b21c0c 	adcseq	r1, r2, ip, lsl #24
    3914:	980e0020 	stmdals	lr, {r5}
    3918:	c8000098 	stmdagt	r0, {r3, r4, r7}
    391c:	9b000001 	blls	3928 <__code_start__-0x46d8>
    3920:	0f000001 	svceq	0x00000001
    3924:	09025101 	stmdbeq	r2, {r0, r8, ip, lr}
    3928:	50010fff 	strdpl	r0, [r1], -pc	; <UNPREDICTABLE>
    392c:	b2200c05 	eorlt	r0, r0, #1280	; 0x500
    3930:	0d002000 	stceq	0, cr2, [r0, #-0]
    3934:	0000989c 	muleq	r0, ip, r8
    3938:	000001c1 	andeq	r0, r0, r1, asr #3
    393c:	2c041000 	stccs	0, cr1, [r4], {-0}
    3940:	07000000 	streq	r0, [r0, -r0]
    3944:	00000820 	andeq	r0, r0, r0, lsr #16
    3948:	002c2301 	eoreq	r2, ip, r1, lsl #6
    394c:	71070000 	mrsvc	r0, (UNDEF: 7)
    3950:	01000008 	tsteq	r0, r8
    3954:	00002c24 	andeq	r2, r0, r4, lsr #24
    3958:	08861100 	stmeq	r6, {r8, ip}
    395c:	89030000 	stmdbhi	r3, {}	; <UNPREDICTABLE>
    3960:	0008b412 	andeq	fp, r8, r2, lsl r4
    3964:	139b0300 	orrsne	r0, fp, #0, 6
    3968:	0000002c 	andeq	r0, r0, ip, lsr #32
    396c:	00002c13 	andeq	r2, r0, r3, lsl ip
    3970:	ad000000 	stcge	0, cr0, [r0, #-0]
    3974:	04000001 	streq	r0, [r0], #-1
    3978:	0011d400 	andseq	sp, r1, r0, lsl #8
    397c:	09010400 	stmdbeq	r1, {sl}
    3980:	01000005 	tsteq	r0, r5
    3984:	000008f4 	strdeq	r0, [r0], -r4
    3988:	00000574 	andeq	r0, r0, r4, ror r5
    398c:	00000018 	andeq	r0, r0, r8, lsl r0
    3990:	00000000 	andeq	r0, r0, r0
    3994:	00000f56 	andeq	r0, r0, r6, asr pc
    3998:	69050402 	stmdbvs	r5, {r1, sl}
    399c:	0300746e 	movweq	r7, #1134	; 0x46e
    39a0:	01c20704 	biceq	r0, r2, r4, lsl #14
    39a4:	01030000 	mrseq	r0, (UNDEF: 3)
    39a8:	0000e506 	andeq	lr, r0, r6, lsl #10
    39ac:	05020300 	streq	r0, [r2, #-768]	; 0x300
    39b0:	00000237 	andeq	r0, r0, r7, lsr r2
    39b4:	00050403 	andeq	r0, r5, r3, lsl #8
    39b8:	03000002 	movweq	r0, #2
    39bc:	01fb0508 	mvnseq	r0, r8, lsl #10
    39c0:	01030000 	mrseq	r0, (UNDEF: 3)
    39c4:	0000e308 	andeq	lr, r0, r8, lsl #6
    39c8:	07020300 	streq	r0, [r2, -r0, lsl #6]
    39cc:	0000004c 	andeq	r0, r0, ip, asr #32
    39d0:	bd070403 	cfstrslt	mvf0, [r7, #-12]
    39d4:	03000001 	movweq	r0, #1
    39d8:	01b80708 			; <UNDEFINED> instruction: 0x01b80708
    39dc:	04030000 	streq	r0, [r3], #-0
    39e0:	0001de07 	andeq	sp, r1, r7, lsl #28
    39e4:	08010300 	stmdaeq	r1, {r8, r9}
    39e8:	000000ec 	andeq	r0, r0, ip, ror #1
    39ec:	0008e604 	andeq	lr, r8, r4, lsl #12
    39f0:	250e0100 	strcs	r0, [lr, #-256]	; 0x100
    39f4:	e4000000 	str	r0, [r0], #-0
    39f8:	18000098 	stmdane	r0, {r3, r4, r7}
    39fc:	01000000 	mrseq	r0, (UNDEF: 0)
    3a00:	0000a29c 	muleq	r0, ip, r2
    3a04:	00260500 	eoreq	r0, r6, r0, lsl #10
    3a08:	0f010000 	svceq	0x00010000
    3a0c:	0000002c 	andeq	r0, r0, ip, lsr #32
    3a10:	00001000 	andeq	r1, r0, r0
    3a14:	09280600 	stmdbeq	r8!, {r9, sl}
    3a18:	17010000 	strne	r0, [r1, -r0]
    3a1c:	000098fc 	strdeq	r9, [r0], -ip
    3a20:	00000014 	andeq	r0, r0, r4, lsl r0
    3a24:	00c79c01 	sbceq	r9, r7, r1, lsl #24
    3a28:	26050000 	strcs	r0, [r5], -r0
    3a2c:	01000000 	mrseq	r0, (UNDEF: 0)
    3a30:	00002c18 	andeq	r2, r0, r8, lsl ip
    3a34:	00101f00 	andseq	r1, r0, r0, lsl #30
    3a38:	c8060000 	stmdagt	r6, {}	; <UNPREDICTABLE>
    3a3c:	01000006 	tsteq	r0, r6
    3a40:	0099101f 	addseq	r1, r9, pc, lsl r0
    3a44:	00004800 	andeq	r4, r0, r0, lsl #16
    3a48:	779c0100 	ldrvc	r0, [ip, r0, lsl #2]
    3a4c:	07000001 	streq	r0, [r0, -r1]
    3a50:	00000943 	andeq	r0, r0, r3, asr #18
    3a54:	01772a01 	cmneq	r7, r1, lsl #20
    3a58:	001c0000 	andseq	r0, ip, r0
    3a5c:	20072010 	andcs	r2, r7, r0, lsl r0
    3a60:	01000009 	tsteq	r0, r9
    3a64:	0001772b 	andeq	r7, r1, fp, lsr #14
    3a68:	10002400 	andne	r2, r0, r0, lsl #8
    3a6c:	09370720 	ldmdbeq	r7!, {r5, r8, r9, sl}
    3a70:	2c010000 	stccs	0, cr0, [r1], {-0}
    3a74:	00000177 	andeq	r0, r0, r7, ror r1
    3a78:	5a000000 	bpl	3a80 <__code_start__-0x4580>
    3a7c:	00090708 	andeq	r0, r9, r8, lsl #14
    3a80:	772d0100 	strvc	r0, [sp, -r0, lsl #2]!
    3a84:	20000001 	andcs	r0, r0, r1
    3a88:	00991809 	addseq	r1, r9, r9, lsl #16
    3a8c:	00007900 	andeq	r7, r0, r0, lsl #18
    3a90:	99240900 	stmdbls	r4!, {r8, fp}
    3a94:	00a20000 	adceq	r0, r2, r0
    3a98:	2c0a0000 	stccs	0, cr0, [sl], {-0}
    3a9c:	8d000099 	stchi	0, cr0, [r0, #-612]	; 0xfffffd9c
    3aa0:	3a000001 	bcc	3aac <__code_start__-0x4554>
    3aa4:	0b000001 	bleq	3ab0 <__code_start__-0x4550>
    3aa8:	4e015001 	cdpmi	0, 0, cr5, cr1, cr1, {0}
    3aac:	99380a00 	ldmdbls	r8!, {r9, fp}
    3ab0:	019e0000 	orrseq	r0, lr, r0
    3ab4:	015a0000 	cmpeq	sl, r0
    3ab8:	010b0000 	mrseq	r0, (UNDEF: 11)
    3abc:	010c0551 	tsteq	ip, r1, asr r5
    3ac0:	0b5a0000 	bleq	1683ac8 <__bss_end__+0x1679100>
    3ac4:	0c055001 	stceq	0, cr5, [r5], {1}
    3ac8:	20100024 	andscs	r0, r0, r4, lsr #32
    3acc:	99440c00 	stmdbls	r4, {sl, fp}^
    3ad0:	019e0000 	orrseq	r0, lr, r0
    3ad4:	010b0000 	mrseq	r0, (UNDEF: 11)
    3ad8:	200c0551 	andcs	r0, ip, r1, asr r5
    3adc:	0b5a0000 	bleq	1683ae4 <__bss_end__+0x167911c>
    3ae0:	0c055001 	stceq	0, cr5, [r5], {1}
    3ae4:	2010001c 	andscs	r0, r0, ip, lsl r0
    3ae8:	250d0000 	strcs	r0, [sp, #-0]
    3aec:	08000000 	stmdaeq	r0, {}	; <UNPREDICTABLE>
    3af0:	000008e9 	andeq	r0, r0, r9, ror #17
    3af4:	01880d01 	orreq	r0, r8, r1, lsl #26
    3af8:	0d100000 	ldceq	0, cr0, [r0, #-0]
    3afc:	0000002c 	andeq	r0, r0, ip, lsr #32
    3b00:	0006d30e 	andeq	sp, r6, lr, lsl #6
    3b04:	9e4f0200 	cdpls	2, 4, cr0, cr15, cr0, {0}
    3b08:	0f000001 	svceq	0x00000001
    3b0c:	0000002c 	andeq	r0, r0, ip, lsr #32
    3b10:	08b41000 	ldmeq	r4!, {ip}
    3b14:	9b020000 	blls	83b1c <__bss_end__+0x79154>
    3b18:	00002c0f 	andeq	r2, r0, pc, lsl #24
    3b1c:	002c0f00 	eoreq	r0, ip, r0, lsl #30
    3b20:	00000000 	andeq	r0, r0, r0
    3b24:	000001f7 	strdeq	r0, [r0], -r7
    3b28:	12c20004 	sbcne	r0, r2, #4
    3b2c:	01040000 	mrseq	r0, (UNDEF: 4)
    3b30:	00000509 	andeq	r0, r0, r9, lsl #10
    3b34:	00096801 	andeq	r6, r9, r1, lsl #16
    3b38:	00057400 	andeq	r7, r5, r0, lsl #8
    3b3c:	00995800 	addseq	r5, r9, r0, lsl #16
    3b40:	00009800 	andeq	r9, r0, r0, lsl #16
    3b44:	000ffc00 	andeq	pc, pc, r0, lsl #24
    3b48:	05040200 	streq	r0, [r4, #-512]	; 0x200
    3b4c:	00746e69 	rsbseq	r6, r4, r9, ror #28
    3b50:	c2070403 	andgt	r0, r7, #50331648	; 0x3000000
    3b54:	03000001 	movweq	r0, #1
    3b58:	00e50601 	rsceq	r0, r5, r1, lsl #12
    3b5c:	02030000 	andeq	r0, r3, #0
    3b60:	00023705 	andeq	r3, r2, r5, lsl #14
    3b64:	05040300 	streq	r0, [r4, #-768]	; 0x300
    3b68:	00000200 	andeq	r0, r0, r0, lsl #4
    3b6c:	fb050803 	blx	145b82 <__bss_end__+0x13b1ba>
    3b70:	03000001 	movweq	r0, #1
    3b74:	00e30801 	rsceq	r0, r3, r1, lsl #16
    3b78:	02030000 	andeq	r0, r3, #0
    3b7c:	00004c07 	andeq	r4, r0, r7, lsl #24
    3b80:	07040300 	streq	r0, [r4, -r0, lsl #6]
    3b84:	000001bd 			; <UNDEFINED> instruction: 0x000001bd
    3b88:	b8070803 	stmdalt	r7, {r0, r1, fp}
    3b8c:	03000001 	movweq	r0, #1
    3b90:	01de0704 	bicseq	r0, lr, r4, lsl #14
    3b94:	01030000 	mrseq	r0, (UNDEF: 3)
    3b98:	0000ec08 	andeq	lr, r0, r8, lsl #24
    3b9c:	09860400 	stmibeq	r6, {sl}
    3ba0:	05010000 	streq	r0, [r1, #-0]
    3ba4:	00009958 	andeq	r9, r0, r8, asr r9
    3ba8:	0000001c 	andeq	r0, r0, ip, lsl r0
    3bac:	009e9c01 	addseq	r9, lr, r1, lsl #24
    3bb0:	80050000 	andhi	r0, r5, r0
    3bb4:	01000009 	tsteq	r0, r9
    3bb8:	00002c05 	andeq	r2, r0, r5, lsl #24
    3bbc:	00104900 	andseq	r4, r0, r0, lsl #18
    3bc0:	4b060000 	blmi	183bc8 <__bss_end__+0x179200>
    3bc4:	01000009 	tsteq	r0, r9
    3bc8:	00002c11 	andeq	r2, r0, r1, lsl ip
    3bcc:	00997400 	addseq	r7, r9, r0, lsl #8
    3bd0:	00001400 	andeq	r1, r0, r0, lsl #8
    3bd4:	cb9c0100 	blgt	fe703fdc <__bss_end__+0xfe6f9614>
    3bd8:	07000000 	streq	r0, [r0, -r0]
    3bdc:	00009980 	andeq	r9, r0, r0, lsl #19
    3be0:	000001de 	ldrdeq	r0, [r0], -lr
    3be4:	05500108 	ldrbeq	r0, [r0, #-264]	; 0x108
    3be8:	0030040c 	eorseq	r0, r0, ip, lsl #8
    3bec:	06000020 	streq	r0, [r0], -r0, lsr #32
    3bf0:	0000099c 	muleq	r0, ip, r9
    3bf4:	002c1601 	eoreq	r1, ip, r1, lsl #12
    3bf8:	99880000 	stmibls	r8, {}	; <UNPREDICTABLE>
    3bfc:	001c0000 	andseq	r0, ip, r0
    3c00:	9c010000 	stcls	0, cr0, [r1], {-0}
    3c04:	0000010d 	andeq	r0, r0, sp, lsl #2
    3c08:	01007509 	tsteq	r0, r9, lsl #10
    3c0c:	00002c1a 	andeq	r2, r0, sl, lsl ip
    3c10:	00107d00 	andseq	r7, r0, r0, lsl #26
    3c14:	99900a00 	ldmibls	r0, {r9, fp}
    3c18:	01f30000 	mvnseq	r0, r0
    3c1c:	940a0000 	strls	r0, [sl], #-0
    3c20:	9e000099 	mcrls	0, 0, r0, cr0, cr9, {4}
    3c24:	0a000000 	beq	3c2c <__code_start__-0x43d4>
    3c28:	0000999c 	muleq	r0, ip, r9
    3c2c:	000001f3 	strdeq	r0, [r0], -r3
    3c30:	09930400 	ldmibeq	r3, {sl}
    3c34:	1f010000 	svcne	0x00010000
    3c38:	000099a4 	andeq	r9, r0, r4, lsr #19
    3c3c:	00000024 	andeq	r0, r0, r4, lsr #32
    3c40:	016b9c01 	cmneq	fp, r1, lsl #24
    3c44:	750b0000 	strvc	r0, [fp, #-0]
    3c48:	1f010073 	svcne	0x00010073
    3c4c:	0000002c 	andeq	r0, r0, ip, lsr #32
    3c50:	0000109b 	muleq	r0, fp, r0
    3c54:	0062720c 	rsbeq	r7, r2, ip, lsl #4
    3c58:	002c2001 	eoreq	r2, ip, r1
    3c5c:	54010000 	strpl	r0, [r1], #-0
    3c60:	0099b40d 	addseq	fp, r9, sp, lsl #8
    3c64:	00001000 	andeq	r1, r0, r0
    3c68:	00016100 	andeq	r6, r1, r0, lsl #2
    3c6c:	61720900 	cmnvs	r2, r0, lsl #18
    3c70:	2c220100 	stfcss	f0, [r2], #-0
    3c74:	b9000000 	stmdblt	r0, {}	; <UNPREDICTABLE>
    3c78:	0a000010 	beq	3cc0 <__code_start__-0x4340>
    3c7c:	000099b8 			; <UNDEFINED> instruction: 0x000099b8
    3c80:	000000cb 	andeq	r0, r0, fp, asr #1
    3c84:	99b00a00 	ldmibls	r0!, {r9, fp}
    3c88:	00cb0000 	sbceq	r0, fp, r0
    3c8c:	04000000 	streq	r0, [r0], #-0
    3c90:	000006d3 	ldrdeq	r0, [r0], -r3
    3c94:	99c82801 	stmibls	r8, {r0, fp, sp}^
    3c98:	00140000 	andseq	r0, r4, r0
    3c9c:	9c010000 	stcls	0, cr0, [r1], {-0}
    3ca0:	000001a4 	andeq	r0, r0, r4, lsr #3
    3ca4:	00736d0b 	rsbseq	r6, r3, fp, lsl #26
    3ca8:	002c2801 	eoreq	r2, ip, r1, lsl #16
    3cac:	10cc0000 	sbcne	r0, ip, r0
    3cb0:	d8070000 	stmdale	r7, {}	; <UNPREDICTABLE>
    3cb4:	0d000099 	stceq	0, cr0, [r0, #-612]	; 0xfffffd9c
    3cb8:	08000001 	stmdaeq	r0, {r0}
    3cbc:	f3075001 	vhadd.u8	d5, d7, d1
    3cc0:	e80a5001 	stmda	sl, {r0, ip, lr}
    3cc4:	00001e03 	andeq	r1, r0, r3, lsl #28
    3cc8:	00095e04 	andeq	r5, r9, r4, lsl #28
    3ccc:	dc2b0100 	stfles	f0, [fp], #-0
    3cd0:	14000099 	strne	r0, [r0], #-153	; 0x99
    3cd4:	01000000 	mrseq	r0, (UNDEF: 0)
    3cd8:	0001de9c 	muleq	r1, ip, lr
    3cdc:	65730b00 	ldrbvs	r0, [r3, #-2816]!	; 0xb00
    3ce0:	2b010063 	blcs	43e74 <__bss_end__+0x394ac>
    3ce4:	0000002c 	andeq	r0, r0, ip, lsr #32
    3ce8:	000010ed 	andeq	r1, r0, sp, ror #1
    3cec:	0099ec07 	addseq	lr, r9, r7, lsl #24
    3cf0:	00016b00 	andeq	r6, r1, r0, lsl #22
    3cf4:	50010800 	andpl	r0, r1, r0, lsl #16
    3cf8:	5001f307 	andpl	pc, r1, r7, lsl #6
    3cfc:	1e03e80a 	cdpne	8, 0, cr14, cr3, cr10, {0}
    3d00:	7a0e0000 	bvc	383d08 <__bss_end__+0x379340>
    3d04:	02000009 	andeq	r0, r0, #9
    3d08:	00002ca7 	andeq	r2, r0, r7, lsr #25
    3d0c:	0001f300 	andeq	pc, r1, r0, lsl #6
    3d10:	002c0f00 	eoreq	r0, ip, r0, lsl #30
    3d14:	10000000 	andne	r0, r0, r0
    3d18:	00000886 	andeq	r0, r0, r6, lsl #17
    3d1c:	c5008902 	strgt	r8, [r0, #-2306]	; 0x902
    3d20:	0400000c 	streq	r0, [r0], #-12
    3d24:	0013b800 	andseq	fp, r3, r0, lsl #16
    3d28:	47010400 	strmi	r0, [r1, -r0, lsl #8]
    3d2c:	0c00000d 	stceq	0, cr0, [r0], {13}
    3d30:	00000aaa 	andeq	r0, r0, sl, lsr #21
    3d34:	00000ac5 	andeq	r0, r0, r5, asr #21
    3d38:	00009a54 	andeq	r9, r0, r4, asr sl
    3d3c:	00000178 	andeq	r0, r0, r8, ror r1
    3d40:	000010ae 	andeq	r1, r0, lr, lsr #1
    3d44:	69050402 	stmdbvs	r5, {r1, sl}
    3d48:	0300746e 	movweq	r7, #1134	; 0x46e
    3d4c:	01c20704 	biceq	r0, r2, r4, lsl #14
    3d50:	2c040000 	stccs	0, cr0, [r4], {-0}
    3d54:	03000000 	movweq	r0, #0
    3d58:	00e50601 	rsceq	r0, r5, r1, lsl #12
    3d5c:	02030000 	andeq	r0, r3, #0
    3d60:	00023705 	andeq	r3, r2, r5, lsl #14
    3d64:	05040300 	streq	r0, [r4, #-768]	; 0x300
    3d68:	00000200 	andeq	r0, r0, r0, lsl #4
    3d6c:	fb050803 	blx	145d82 <__bss_end__+0x13b3ba>
    3d70:	03000001 	movweq	r0, #1
    3d74:	00e30801 	rsceq	r0, r3, r1, lsl #16
    3d78:	02030000 	andeq	r0, r3, #0
    3d7c:	00004c07 	andeq	r4, r0, r7, lsl #24
    3d80:	07040300 	streq	r0, [r4, -r0, lsl #6]
    3d84:	000001bd 			; <UNDEFINED> instruction: 0x000001bd
    3d88:	b8070803 	stmdalt	r7, {r0, r1, fp}
    3d8c:	05000001 	streq	r0, [r0, #-1]
    3d90:	00000c5c 	andeq	r0, r0, ip, asr ip
    3d94:	00250702 	eoreq	r0, r5, r2, lsl #14
    3d98:	46050000 	strmi	r0, [r5], -r0
    3d9c:	0300000c 	movweq	r0, #12
    3da0:	0000462c 	andeq	r4, r0, ip, lsr #12
    3da4:	0d220500 	cfstr32eq	mvfx0, [r2, #-0]
    3da8:	72030000 	andvc	r0, r3, #0
    3dac:	00000046 	andeq	r0, r0, r6, asr #32
    3db0:	000bea06 	andeq	lr, fp, r6, lsl #20
    3db4:	01650400 	cmneq	r5, r0, lsl #8
    3db8:	0000002c 	andeq	r0, r0, ip, lsr #32
    3dbc:	a6030407 	strge	r0, [r3], -r7, lsl #8
    3dc0:	000000bc 	strheq	r0, [r0], -ip
    3dc4:	000bd508 	andeq	sp, fp, r8, lsl #10
    3dc8:	91a80300 			; <UNDEFINED> instruction: 0x91a80300
    3dcc:	08000000 	stmdaeq	r0, {}	; <UNPREDICTABLE>
    3dd0:	00000b7d 	andeq	r0, r0, sp, ror fp
    3dd4:	00bca903 	adcseq	sl, ip, r3, lsl #18
    3dd8:	09000000 	stmdbeq	r0, {}	; <UNPREDICTABLE>
    3ddc:	00000054 	andeq	r0, r0, r4, asr r0
    3de0:	000000cc 	andeq	r0, r0, ip, asr #1
    3de4:	0000cc0a 	andeq	ip, r0, sl, lsl #24
    3de8:	03000300 	movweq	r0, #768	; 0x300
    3dec:	01de0704 	bicseq	r0, lr, r4, lsl #14
    3df0:	080b0000 	stmdaeq	fp, {}	; <UNPREDICTABLE>
    3df4:	00f4a303 	rscseq	sl, r4, r3, lsl #6
    3df8:	070c0000 	streq	r0, [ip, -r0]
    3dfc:	0300000d 	movweq	r0, #13
    3e00:	000025a5 	andeq	r2, r0, r5, lsr #11
    3e04:	0f0c0000 	svceq	0x000c0000
    3e08:	0300000d 	movweq	r0, #13
    3e0c:	00009daa 	andeq	r9, r0, sl, lsr #27
    3e10:	05000400 	streq	r0, [r0, #-1024]	; 0x400
    3e14:	00000c9a 	muleq	r0, sl, ip
    3e18:	00d3ab03 	sbcseq	sl, r3, r3, lsl #22
    3e1c:	46050000 	strmi	r0, [r5], -r0
    3e20:	0300000b 	movweq	r0, #11
    3e24:	000070af 	andeq	r7, r0, pc, lsr #1
    3e28:	0e040d00 	cdpeq	13, 0, cr0, cr4, cr0, {0}
    3e2c:	00011204 	andeq	r1, r1, r4, lsl #4
    3e30:	08010300 	stmdaeq	r1, {r8, r9}
    3e34:	000000ec 	andeq	r0, r0, ip, ror #1
    3e38:	0001120f 	andeq	r1, r1, pc, lsl #4
    3e3c:	0dc40500 	cfstr64eq	mvdx0, [r4]
    3e40:	16050000 	strne	r0, [r5], -r0
    3e44:	00000062 	andeq	r0, r0, r2, rrx
    3e48:	000b5710 	andeq	r5, fp, r0, lsl r7
    3e4c:	2d051800 	stccs	8, cr1, [r5, #-0]
    3e50:	0000017c 	andeq	r0, r0, ip, ror r1
    3e54:	000cbb0c 	andeq	fp, ip, ip, lsl #22
    3e58:	7c2f0500 	cfstr32vc	mvfx0, [pc], #-0	; 3e60 <__code_start__-0x41a0>
    3e5c:	00000001 	andeq	r0, r0, r1
    3e60:	006b5f11 	rsbeq	r5, fp, r1, lsl pc
    3e64:	00253005 	eoreq	r3, r5, r5
    3e68:	0c040000 	stceq	0, cr0, [r4], {-0}
    3e6c:	00000cf2 	strdeq	r0, [r0], -r2
    3e70:	00253005 	eoreq	r3, r5, r5
    3e74:	0c080000 	stceq	0, cr0, [r8], {-0}
    3e78:	00000b32 	andeq	r0, r0, r2, lsr fp
    3e7c:	00253005 	eoreq	r3, r5, r5
    3e80:	0c0c0000 	stceq	0, cr0, [ip], {-0}
    3e84:	00000e0b 	andeq	r0, r0, fp, lsl #28
    3e88:	00253005 	eoreq	r3, r5, r5
    3e8c:	11100000 	tstne	r0, r0
    3e90:	0500785f 	streq	r7, [r0, #-2143]	; 0x85f
    3e94:	00018231 	andeq	r8, r1, r1, lsr r2
    3e98:	0e001400 	cfcpyseq	mvf1, mvf0
    3e9c:	00012904 	andeq	r2, r1, r4, lsl #18
    3ea0:	011e0900 	tsteq	lr, r0, lsl #18
    3ea4:	01920000 	orrseq	r0, r2, r0
    3ea8:	cc0a0000 	stcgt	0, cr0, [sl], {-0}
    3eac:	00000000 	andeq	r0, r0, r0
    3eb0:	0b781000 	bleq	1e07eb8 <__bss_end__+0x1dfd4f0>
    3eb4:	05240000 	streq	r0, [r4, #-0]!
    3eb8:	00020b35 	andeq	r0, r2, r5, lsr fp
    3ebc:	0a300c00 	beq	c06ec4 <__bss_end__+0xbfc4fc>
    3ec0:	37050000 	strcc	r0, [r5, -r0]
    3ec4:	00000025 	andeq	r0, r0, r5, lsr #32
    3ec8:	0d2a0c00 	stceq	12, cr0, [sl, #-0]
    3ecc:	38050000 	stmdacc	r5, {}	; <UNPREDICTABLE>
    3ed0:	00000025 	andeq	r0, r0, r5, lsr #32
    3ed4:	0a5e0c04 	beq	1786eec <__bss_end__+0x177c524>
    3ed8:	39050000 	stmdbcc	r5, {}	; <UNPREDICTABLE>
    3edc:	00000025 	andeq	r0, r0, r5, lsr #32
    3ee0:	0efb0c08 	cdpeq	12, 15, cr0, cr11, cr8, {0}
    3ee4:	3a050000 	bcc	143eec <__bss_end__+0x139524>
    3ee8:	00000025 	andeq	r0, r0, r5, lsr #32
    3eec:	0c2a0c0c 	stceq	12, cr0, [sl], #-48	; 0xffffffd0
    3ef0:	3b050000 	blcc	143ef8 <__bss_end__+0x139530>
    3ef4:	00000025 	andeq	r0, r0, r5, lsr #32
    3ef8:	0bff0c10 	bleq	fffc6f40 <__bss_end__+0xfffbc578>
    3efc:	3c050000 	stccc	0, cr0, [r5], {-0}
    3f00:	00000025 	andeq	r0, r0, r5, lsr #32
    3f04:	0e100c14 	mrceq	12, 0, r0, cr0, cr4, {0}
    3f08:	3d050000 	stccc	0, cr0, [r5, #-0]
    3f0c:	00000025 	andeq	r0, r0, r5, lsr #32
    3f10:	0c7c0c18 	ldcleq	12, cr0, [ip], #-96	; 0xffffffa0
    3f14:	3e050000 	cdpcc	0, 0, cr0, cr5, cr0, {0}
    3f18:	00000025 	andeq	r0, r0, r5, lsr #32
    3f1c:	0ec20c1c 	mcreq	12, 6, r0, cr2, cr12, {0}
    3f20:	3f050000 	svccc	0x00050000
    3f24:	00000025 	andeq	r0, r0, r5, lsr #32
    3f28:	6d120020 	ldcvs	0, cr0, [r2, #-128]	; 0xffffff80
    3f2c:	0800000a 	stmdaeq	r0, {r1, r3}
    3f30:	4b480501 	blmi	120533c <__bss_end__+0x11fa974>
    3f34:	0c000002 	stceq	0, cr0, [r0], {2}
    3f38:	00000b19 	andeq	r0, r0, r9, lsl fp
    3f3c:	024b4905 	subeq	r4, fp, #81920	; 0x14000
    3f40:	0c000000 	stceq	0, cr0, [r0], {-0}
    3f44:	000009ab 	andeq	r0, r0, fp, lsr #19
    3f48:	024b4a05 	subeq	r4, fp, #20480	; 0x5000
    3f4c:	13800000 	orrne	r0, r0, #0
    3f50:	00000db6 			; <UNDEFINED> instruction: 0x00000db6
    3f54:	011e4c05 	tsteq	lr, r5, lsl #24
    3f58:	01000000 	mrseq	r0, (UNDEF: 0)
    3f5c:	000a9213 	andeq	r9, sl, r3, lsl r2
    3f60:	1e4f0500 	cdpne	5, 4, cr0, cr15, cr0, {0}
    3f64:	04000001 	streq	r0, [r0], #-1
    3f68:	0a090001 	beq	243f74 <__bss_end__+0x2395ac>
    3f6c:	5b000001 	blpl	3f78 <__code_start__-0x4088>
    3f70:	0a000002 	beq	3f80 <__code_start__-0x4080>
    3f74:	000000cc 	andeq	r0, r0, ip, asr #1
    3f78:	3312001f 	tstcc	r2, #31
    3f7c:	9000000c 	andls	r0, r0, ip
    3f80:	995b0501 	ldmdbls	fp, {r0, r8, sl}^
    3f84:	0c000002 	stceq	0, cr0, [r0], {2}
    3f88:	00000cbb 			; <UNDEFINED> instruction: 0x00000cbb
    3f8c:	02995c05 	addseq	r5, r9, #1280	; 0x500
    3f90:	0c000000 	stceq	0, cr0, [r0], {-0}
    3f94:	00000cd3 	ldrdeq	r0, [r0], -r3
    3f98:	00255d05 	eoreq	r5, r5, r5, lsl #26
    3f9c:	0c040000 	stceq	0, cr0, [r4], {-0}
    3fa0:	00000b2d 	andeq	r0, r0, sp, lsr #22
    3fa4:	029f5f05 	addseq	r5, pc, #5, 30
    3fa8:	0c080000 	stceq	0, cr0, [r8], {-0}
    3fac:	00000a6d 	andeq	r0, r0, sp, ror #20
    3fb0:	020b6005 	andeq	r6, fp, #5
    3fb4:	00880000 	addeq	r0, r8, r0
    3fb8:	025b040e 	subseq	r0, fp, #234881024	; 0xe000000
    3fbc:	af090000 	svcge	0x00090000
    3fc0:	af000002 	svcge	0x00000002
    3fc4:	0a000002 	beq	3fd4 <__code_start__-0x402c>
    3fc8:	000000cc 	andeq	r0, r0, ip, asr #1
    3fcc:	040e001f 	streq	r0, [lr], #-31
    3fd0:	000002b5 			; <UNDEFINED> instruction: 0x000002b5
    3fd4:	0c861014 	stceq	0, cr1, [r6], {20}
    3fd8:	05080000 	streq	r0, [r8, #-0]
    3fdc:	0002db73 	andeq	sp, r2, r3, ror fp
    3fe0:	0a530c00 	beq	14c6fe8 <__bss_end__+0x14bc620>
    3fe4:	74050000 	strvc	r0, [r5], #-0
    3fe8:	000002db 	ldrdeq	r0, [r0], -fp
    3fec:	09b70c00 	ldmibeq	r7!, {sl, fp}
    3ff0:	75050000 	strvc	r0, [r5, #-0]
    3ff4:	00000025 	andeq	r0, r0, r5, lsr #32
    3ff8:	040e0004 	streq	r0, [lr], #-4
    3ffc:	00000054 	andeq	r0, r0, r4, asr r0
    4000:	000ca510 	andeq	sl, ip, r0, lsl r5
    4004:	b3056800 	movwlt	r6, #22528	; 0x5800
    4008:	0000040b 	andeq	r0, r0, fp, lsl #8
    400c:	00705f11 	rsbseq	r5, r0, r1, lsl pc
    4010:	02dbb405 	sbcseq	fp, fp, #83886080	; 0x5000000
    4014:	11000000 	mrsne	r0, (UNDEF: 0)
    4018:	0500725f 	streq	r7, [r0, #-607]	; 0x25f
    401c:	000025b5 			; <UNDEFINED> instruction: 0x000025b5
    4020:	5f110400 	svcpl	0x00110400
    4024:	b6050077 			; <UNDEFINED> instruction: 0xb6050077
    4028:	00000025 	andeq	r0, r0, r5, lsr #32
    402c:	0a8b0c08 	beq	fe2c7054 <__bss_end__+0xfe2bc68c>
    4030:	b7050000 	strlt	r0, [r5, -r0]
    4034:	0000003f 	andeq	r0, r0, pc, lsr r0
    4038:	0b9e0c0c 	bleq	fe787070 <__bss_end__+0xfe77c6a8>
    403c:	b8050000 	stmdalt	r5, {}	; <UNPREDICTABLE>
    4040:	0000003f 	andeq	r0, r0, pc, lsr r0
    4044:	625f110e 	subsvs	r1, pc, #-2147483645	; 0x80000003
    4048:	b9050066 	stmdblt	r5, {r1, r2, r5, r6}
    404c:	000002b6 			; <UNDEFINED> instruction: 0x000002b6
    4050:	09fa0c10 	ldmibeq	sl!, {r4, sl, fp}^
    4054:	ba050000 	blt	14405c <__bss_end__+0x139694>
    4058:	00000025 	andeq	r0, r0, r5, lsr #32
    405c:	0a7b0c18 	beq	1ec70c4 <__bss_end__+0x1ebc6fc>
    4060:	c1050000 	mrsgt	r0, (UNDEF: 5)
    4064:	0000010a 	andeq	r0, r0, sl, lsl #2
    4068:	0f220c1c 	svceq	0x00220c1c
    406c:	c3050000 	movwgt	r0, #20480	; 0x5000
    4070:	00000566 	andeq	r0, r0, r6, ror #10
    4074:	0f3c0c20 	svceq	0x003c0c20
    4078:	c5050000 	strgt	r0, [r5, #-0]
    407c:	00000590 	muleq	r0, r0, r5
    4080:	0d170c24 	ldceq	12, cr0, [r7, #-144]	; 0xffffff70
    4084:	c8050000 	stmdagt	r5, {}	; <UNPREDICTABLE>
    4088:	000005b4 			; <UNDEFINED> instruction: 0x000005b4
    408c:	0edc0c28 	cdpeq	12, 13, cr0, cr12, cr8, {1}
    4090:	c9050000 	stmdbgt	r5, {}	; <UNPREDICTABLE>
    4094:	000005ce 	andeq	r0, r0, lr, asr #11
    4098:	755f112c 	ldrbvc	r1, [pc, #-300]	; 3f74 <__code_start__-0x408c>
    409c:	cc050062 	stcgt	0, cr0, [r5], {98}	; 0x62
    40a0:	000002b6 			; <UNDEFINED> instruction: 0x000002b6
    40a4:	755f1130 	ldrbvc	r1, [pc, #-304]	; 3f7c <__code_start__-0x4084>
    40a8:	cd050070 	stcgt	0, cr0, [r5, #-448]	; 0xfffffe40
    40ac:	000002db 	ldrdeq	r0, [r0], -fp
    40b0:	755f1138 	ldrbvc	r1, [pc, #-312]	; 3f80 <__code_start__-0x4080>
    40b4:	ce050072 	mcrgt	0, 0, r0, cr5, cr2, {3}
    40b8:	00000025 	andeq	r0, r0, r5, lsr #32
    40bc:	0a3e0c3c 	beq	f871b4 <__bss_end__+0xf7c7ec>
    40c0:	d1050000 	mrsle	r0, (UNDEF: 5)
    40c4:	000005d4 	ldrdeq	r0, [r0], -r4
    40c8:	0e870c40 	cdpeq	12, 8, cr0, cr7, cr0, {2}
    40cc:	d2050000 	andle	r0, r5, #0
    40d0:	000005e4 	andeq	r0, r0, r4, ror #11
    40d4:	6c5f1143 	ldfvse	f1, [pc], {67}	; 0x43
    40d8:	d5050062 	strle	r0, [r5, #-98]	; 0x62
    40dc:	000002b6 			; <UNDEFINED> instruction: 0x000002b6
    40e0:	0aa10c44 	beq	fe8471f8 <__bss_end__+0xfe83c830>
    40e4:	d8050000 	stmdale	r5, {}	; <UNPREDICTABLE>
    40e8:	00000025 	andeq	r0, r0, r5, lsr #32
    40ec:	0c090c4c 	stceq	12, cr0, [r9], {76}	; 0x4c
    40f0:	d9050000 	stmdble	r5, {}	; <UNPREDICTABLE>
    40f4:	0000007b 	andeq	r0, r0, fp, ror r0
    40f8:	0e720c50 	mrceq	12, 3, r0, cr2, cr0, {2}
    40fc:	dc050000 	stcle	0, cr0, [r5], {-0}
    4100:	00000429 	andeq	r0, r0, r9, lsr #8
    4104:	0bf10c54 	bleq	ffc4725c <__bss_end__+0xffc3c894>
    4108:	e0050000 	and	r0, r5, r0
    410c:	000000ff 	strdeq	r0, [r0], -pc	; <UNPREDICTABLE>
    4110:	0cad0c58 	stceq	12, cr0, [sp], #352	; 0x160
    4114:	e2050000 	and	r0, r5, #0
    4118:	000000f4 	strdeq	r0, [r0], -r4
    411c:	0bf70c5c 	bleq	ffdc7294 <__bss_end__+0xffdbc8cc>
    4120:	e3050000 	movw	r0, #20480	; 0x5000
    4124:	00000025 	andeq	r0, r0, r5, lsr #32
    4128:	25150064 	ldrcs	r0, [r5, #-100]	; 0x64
    412c:	29000000 	stmdbcs	r0, {}	; <UNPREDICTABLE>
    4130:	16000004 	strne	r0, [r0], -r4
    4134:	00000429 	andeq	r0, r0, r9, lsr #8
    4138:	00010a16 	andeq	r0, r1, r6, lsl sl
    413c:	010c1600 	tsteq	ip, r0, lsl #12
    4140:	25160000 	ldrcs	r0, [r6, #-0]
    4144:	00000000 	andeq	r0, r0, r0
    4148:	0434040e 	ldrteq	r0, [r4], #-1038	; 0x40e
    414c:	290f0000 	stmdbcs	pc, {}	; <UNPREDICTABLE>
    4150:	17000004 	strne	r0, [r0, -r4]
    4154:	00000cfa 	strdeq	r0, [r0], -sl
    4158:	38050428 	stmdacc	r5, {r3, r5, sl}
    415c:	00056602 	andeq	r6, r5, r2, lsl #12
    4160:	0c751800 	ldcleq	8, cr1, [r5], #-0
    4164:	3a050000 	bcc	14416c <__bss_end__+0x1397a4>
    4168:	00002502 	andeq	r2, r0, r2, lsl #10
    416c:	9a180000 	bls	604174 <__bss_end__+0x5f97ac>
    4170:	0500000a 	streq	r0, [r0, #-10]
    4174:	063b023f 			; <UNDEFINED> instruction: 0x063b023f
    4178:	18040000 	stmdane	r4, {}	; <UNPREDICTABLE>
    417c:	00000b8e 	andeq	r0, r0, lr, lsl #23
    4180:	3b023f05 	blcc	93d9c <__bss_end__+0x893d4>
    4184:	08000006 	stmdaeq	r0, {r1, r2}
    4188:	000b4f18 	andeq	r4, fp, r8, lsl pc
    418c:	023f0500 	eorseq	r0, pc, #0, 10
    4190:	0000063b 	andeq	r0, r0, fp, lsr r6
    4194:	0cce180c 	stcleq	8, cr1, [lr], {12}
    4198:	41050000 	mrsmi	r0, (UNDEF: 5)
    419c:	00002502 	andeq	r2, r0, r2, lsl #10
    41a0:	c5181000 	ldrgt	r1, [r8, #-0]
    41a4:	05000009 	streq	r0, [r0, #-9]
    41a8:	081d0242 	ldmdaeq	sp, {r1, r6, r9}
    41ac:	18140000 	ldmdane	r4, {}	; <UNPREDICTABLE>
    41b0:	00000dec 	andeq	r0, r0, ip, ror #27
    41b4:	25024405 	strcs	r4, [r2, #-1029]	; 0x405
    41b8:	30000000 	andcc	r0, r0, r0
    41bc:	000cd818 	andeq	sp, ip, r8, lsl r8
    41c0:	02450500 	subeq	r0, r5, #0, 10
    41c4:	0000058a 	andeq	r0, r0, sl, lsl #11
    41c8:	0c3b1834 	ldceq	8, cr1, [fp], #-208	; 0xffffff30
    41cc:	47050000 	strmi	r0, [r5, -r0]
    41d0:	00002502 	andeq	r2, r0, r2, lsl #10
    41d4:	e8183800 	ldmda	r8, {fp, ip, sp}
    41d8:	0500000c 	streq	r0, [r0, #-12]
    41dc:	08380249 	ldmdaeq	r8!, {r0, r3, r6, r9}
    41e0:	183c0000 	ldmdane	ip!, {}	; <UNPREDICTABLE>
    41e4:	00000bcd 	andeq	r0, r0, sp, asr #23
    41e8:	7c024c05 	stcvc	12, cr4, [r2], {5}
    41ec:	40000001 	andmi	r0, r0, r1
    41f0:	000b6e18 	andeq	r6, fp, r8, lsl lr
    41f4:	024d0500 	subeq	r0, sp, #0, 10
    41f8:	00000025 	andeq	r0, r0, r5, lsr #32
    41fc:	0ef61844 	cdpeq	8, 15, cr1, cr6, cr4, {2}
    4200:	4e050000 	cdpmi	0, 0, cr0, cr5, cr0, {0}
    4204:	00017c02 	andeq	r7, r1, r2, lsl #24
    4208:	52184800 	andspl	r4, r8, #0, 16
    420c:	0500000c 	streq	r0, [r0, #-12]
    4210:	083e024f 	ldmdaeq	lr!, {r0, r1, r2, r3, r6, r9}
    4214:	184c0000 	stmdane	ip, {}^	; <UNPREDICTABLE>
    4218:	00000b96 	muleq	r0, r6, fp
    421c:	25025205 	strcs	r5, [r2, #-517]	; 0x205
    4220:	50000000 	andpl	r0, r0, r0
    4224:	000abd18 	andeq	fp, sl, r8, lsl sp
    4228:	02530500 	subseq	r0, r3, #0, 10
    422c:	0000010c 	andeq	r0, r0, ip, lsl #2
    4230:	0c6e1854 	stcleq	8, cr1, [lr], #-336	; 0xfffffeb0
    4234:	76050000 	strvc	r0, [r5], -r0
    4238:	0007fb02 	andeq	pc, r7, r2, lsl #22
    423c:	33195800 	tstcc	r9, #0, 16
    4240:	0500000c 	streq	r0, [r0, #-12]
    4244:	0299027a 	addseq	r0, r9, #-1610612729	; 0xa0000007
    4248:	01480000 	mrseq	r0, (UNDEF: 72)
    424c:	000bab19 	andeq	sl, fp, r9, lsl fp
    4250:	027b0500 	rsbseq	r0, fp, #0, 10
    4254:	0000025b 	andeq	r0, r0, fp, asr r2
    4258:	5819014c 	ldmdapl	r9, {r2, r3, r6, r8}
    425c:	0500000e 	streq	r0, [r0, #-14]
    4260:	084f027f 	stmdaeq	pc, {r0, r1, r2, r3, r4, r5, r6, r9}^	; <UNPREDICTABLE>
    4264:	02dc0000 	sbcseq	r0, ip, #0
    4268:	000a8319 	andeq	r8, sl, r9, lsl r3
    426c:	02840500 	addeq	r0, r4, #0, 10
    4270:	00000600 	andeq	r0, r0, r0, lsl #12
    4274:	681902e0 	ldmdavs	r9, {r5, r6, r7, r9}
    4278:	0500000a 	streq	r0, [r0, #-10]
    427c:	085b0285 	ldmdaeq	fp, {r0, r2, r7, r9}^
    4280:	02ec0000 	rsceq	r0, ip, #0
    4284:	0b040e00 	bleq	107a8c <__bss_end__+0xfd0c4>
    4288:	15000004 	strne	r0, [r0, #-4]
    428c:	00000025 	andeq	r0, r0, r5, lsr #32
    4290:	0000058a 	andeq	r0, r0, sl, lsl #11
    4294:	00042916 	andeq	r2, r4, r6, lsl r9
    4298:	010a1600 	tsteq	sl, r0, lsl #12
    429c:	8a160000 	bhi	5842a4 <__bss_end__+0x5798dc>
    42a0:	16000005 	strne	r0, [r0], -r5
    42a4:	00000025 	andeq	r0, r0, r5, lsr #32
    42a8:	19040e00 	stmdbne	r4, {r9, sl, fp}
    42ac:	0e000001 	cdpeq	0, 0, cr0, cr0, cr1, {0}
    42b0:	00056c04 	andeq	r6, r5, r4, lsl #24
    42b4:	00861500 	addeq	r1, r6, r0, lsl #10
    42b8:	05b40000 	ldreq	r0, [r4, #0]!
    42bc:	29160000 	ldmdbcs	r6, {}	; <UNPREDICTABLE>
    42c0:	16000004 	strne	r0, [r0], -r4
    42c4:	0000010a 	andeq	r0, r0, sl, lsl #2
    42c8:	00008616 	andeq	r8, r0, r6, lsl r6
    42cc:	00251600 	eoreq	r1, r5, r0, lsl #12
    42d0:	0e000000 	cdpeq	0, 0, cr0, cr0, cr0, {0}
    42d4:	00059604 	andeq	r9, r5, r4, lsl #12
    42d8:	00251500 	eoreq	r1, r5, r0, lsl #10
    42dc:	05ce0000 	strbeq	r0, [lr]
    42e0:	29160000 	ldmdbcs	r6, {}	; <UNPREDICTABLE>
    42e4:	16000004 	strne	r0, [r0], -r4
    42e8:	0000010a 	andeq	r0, r0, sl, lsl #2
    42ec:	ba040e00 	blt	107af4 <__bss_end__+0xfd12c>
    42f0:	09000005 	stmdbeq	r0, {r0, r2}
    42f4:	00000054 	andeq	r0, r0, r4, asr r0
    42f8:	000005e4 	andeq	r0, r0, r4, ror #11
    42fc:	0000cc0a 	andeq	ip, r0, sl, lsl #24
    4300:	09000200 	stmdbeq	r0, {r9}
    4304:	00000054 	andeq	r0, r0, r4, asr r0
    4308:	000005f4 	strdeq	r0, [r0], -r4
    430c:	0000cc0a 	andeq	ip, r0, sl, lsl #24
    4310:	06000000 	streq	r0, [r0], -r0
    4314:	00000c93 	muleq	r0, r3, ip
    4318:	e1011d05 	tst	r1, r5, lsl #26
    431c:	1a000002 	bne	432c <__code_start__-0x3cd4>
    4320:	00000e1a 	andeq	r0, r0, sl, lsl lr
    4324:	0121050c 	teqeq	r1, ip, lsl #10
    4328:	00000635 	andeq	r0, r0, r5, lsr r6
    432c:	000cbb18 	andeq	fp, ip, r8, lsl fp
    4330:	01230500 	teqeq	r3, r0, lsl #10
    4334:	00000635 	andeq	r0, r0, r5, lsr r6
    4338:	0ba41800 	bleq	fe90a340 <__bss_end__+0xfe8ff978>
    433c:	24050000 	strcs	r0, [r5], #-0
    4340:	00002501 	andeq	r2, r0, r1, lsl #10
    4344:	8d180400 	cfldrshi	mvf0, [r8, #-0]
    4348:	0500000c 	streq	r0, [r0, #-12]
    434c:	063b0125 	ldrteq	r0, [fp], -r5, lsr #2
    4350:	00080000 	andeq	r0, r8, r0
    4354:	0600040e 	streq	r0, [r0], -lr, lsl #8
    4358:	040e0000 	streq	r0, [lr], #-0
    435c:	000005f4 	strdeq	r0, [r0], -r4
    4360:	0009bd1a 	andeq	fp, r9, sl, lsl sp
    4364:	3d050e00 	stccc	14, cr0, [r5, #-0]
    4368:	00067601 	andeq	r7, r6, r1, lsl #12
    436c:	0d011800 	stceq	8, cr1, [r1, #-0]
    4370:	3e050000 	cdpcc	0, 0, cr0, cr5, cr0, {0}
    4374:	00067601 	andeq	r7, r6, r1, lsl #12
    4378:	3b180000 	blcc	604380 <__bss_end__+0x5f99b8>
    437c:	0500000d 	streq	r0, [r0, #-13]
    4380:	0676013f 			; <UNDEFINED> instruction: 0x0676013f
    4384:	18060000 	stmdane	r6, {}	; <UNPREDICTABLE>
    4388:	00000dbf 			; <UNDEFINED> instruction: 0x00000dbf
    438c:	5b014005 	blpl	543a8 <__bss_end__+0x499e0>
    4390:	0c000000 	stceq	0, cr0, [r0], {-0}
    4394:	005b0900 	subseq	r0, fp, r0, lsl #18
    4398:	06860000 	streq	r0, [r6], r0
    439c:	cc0a0000 	stcgt	0, cr0, [sl], {-0}
    43a0:	02000000 	andeq	r0, r0, #0
    43a4:	05d01b00 	ldrbeq	r1, [r0, #2816]	; 0xb00
    43a8:	07870257 			; <UNDEFINED> instruction: 0x07870257
    43ac:	fe180000 	cdp2	0, 1, cr0, cr8, cr0, {0}
    43b0:	0500000d 	streq	r0, [r0, #-13]
    43b4:	002c0259 	eoreq	r0, ip, r9, asr r2
    43b8:	18000000 	stmdane	r0, {}	; <UNPREDICTABLE>
    43bc:	00000da9 	andeq	r0, r0, r9, lsr #27
    43c0:	0c025a05 	stceq	10, cr5, [r2], {5}
    43c4:	04000001 	streq	r0, [r0], #-1
    43c8:	000bc018 	andeq	ip, fp, r8, lsl r0
    43cc:	025b0500 	subseq	r0, fp, #0, 10
    43d0:	00000787 	andeq	r0, r0, r7, lsl #15
    43d4:	0ecd1808 	cdpeq	8, 12, cr1, cr13, cr8, {0}
    43d8:	5c050000 	stcpl	0, cr0, [r5], {-0}
    43dc:	00019202 	andeq	r9, r1, r2, lsl #4
    43e0:	5f182400 	svcpl	0x00182400
    43e4:	0500000b 	streq	r0, [r0, #-11]
    43e8:	0025025d 	eoreq	r0, r5, sp, asr r2
    43ec:	18480000 	stmdane	r8, {}^	; <UNPREDICTABLE>
    43f0:	00000cb6 			; <UNDEFINED> instruction: 0x00000cb6
    43f4:	69025e05 	stmdbvs	r2, {r0, r2, r9, sl, fp, ip, lr}
    43f8:	50000000 	andpl	r0, r0, r0
    43fc:	000ee318 	andeq	lr, lr, r8, lsl r3
    4400:	025f0500 	subseq	r0, pc, #0, 10
    4404:	00000641 	andeq	r0, r0, r1, asr #12
    4408:	0cc11858 	stcleq	8, cr1, [r1], {88}	; 0x58
    440c:	60050000 	andvs	r0, r5, r0
    4410:	0000f402 	andeq	pc, r0, r2, lsl #8
    4414:	e8186800 	ldmda	r8, {fp, sp, lr}
    4418:	0500000e 	streq	r0, [r0, #-14]
    441c:	00f40261 	rscseq	r0, r4, r1, ror #4
    4420:	18700000 	ldmdane	r0!, {}^	; <UNPREDICTABLE>
    4424:	00000a22 	andeq	r0, r0, r2, lsr #20
    4428:	f4026205 	vst1.8	{d6-d9}, [r2], r5
    442c:	78000000 	stmdavc	r0, {}	; <UNPREDICTABLE>
    4430:	000e3a18 	andeq	r3, lr, r8, lsl sl
    4434:	02630500 	rsbeq	r0, r3, #0, 10
    4438:	00000797 	muleq	r0, r7, r7
    443c:	0bb41880 	bleq	fed0a644 <__bss_end__+0xfecffc7c>
    4440:	64050000 	strvs	r0, [r5], #-0
    4444:	0007a702 	andeq	sl, r7, r2, lsl #14
    4448:	cc188800 	ldcgt	8, cr8, [r8], {-0}
    444c:	0500000d 	streq	r0, [r0, #-13]
    4450:	00250265 	eoreq	r0, r5, r5, ror #4
    4454:	18a00000 	stmiane	r0!, {}	; <UNPREDICTABLE>
    4458:	00000b0b 	andeq	r0, r0, fp, lsl #22
    445c:	f4026605 	vst1.8	{d6-d8}, [r2], r5
    4460:	a4000000 	strge	r0, [r0], #-0
    4464:	000a1318 	andeq	r1, sl, r8, lsl r3
    4468:	02670500 	rsbeq	r0, r7, #0, 10
    446c:	000000f4 	strdeq	r0, [r0], -r4
    4470:	0afa18ac 	beq	ffe8a728 <__bss_end__+0xffe7fd60>
    4474:	68050000 	stmdavs	r5, {}	; <UNPREDICTABLE>
    4478:	0000f402 	andeq	pc, r0, r2, lsl #8
    447c:	da18b400 	ble	631484 <__bss_end__+0x626abc>
    4480:	05000009 	streq	r0, [r0, #-9]
    4484:	00f40269 	rscseq	r0, r4, r9, ror #4
    4488:	18bc0000 	ldmne	ip!, {}	; <UNPREDICTABLE>
    448c:	000009e9 	andeq	r0, r0, r9, ror #19
    4490:	f4026a05 	vst1.8	{d6-d7}, [r2], r5
    4494:	c4000000 	strgt	r0, [r0], #-0
    4498:	000c7318 	andeq	r7, ip, r8, lsl r3
    449c:	026b0500 	rsbeq	r0, fp, #0, 10
    44a0:	00000025 	andeq	r0, r0, r5, lsr #32
    44a4:	120900cc 	andne	r0, r9, #204	; 0xcc
    44a8:	97000001 	strls	r0, [r0, -r1]
    44ac:	0a000007 	beq	44d0 <__code_start__-0x3b30>
    44b0:	000000cc 	andeq	r0, r0, ip, asr #1
    44b4:	12090019 	andne	r0, r9, #25
    44b8:	a7000001 	strge	r0, [r0, -r1]
    44bc:	0a000007 	beq	44e0 <__code_start__-0x3b20>
    44c0:	000000cc 	andeq	r0, r0, ip, asr #1
    44c4:	12090007 	andne	r0, r9, #7
    44c8:	b7000001 	strlt	r0, [r0, -r1]
    44cc:	0a000007 	beq	44f0 <__code_start__-0x3b10>
    44d0:	000000cc 	andeq	r0, r0, ip, asr #1
    44d4:	f01b0017 			; <UNDEFINED> instruction: 0xf01b0017
    44d8:	db027005 	blle	a04f4 <__bss_end__+0x95b2c>
    44dc:	18000007 	stmdane	r0, {r0, r1, r2}
    44e0:	00000c23 	andeq	r0, r0, r3, lsr #24
    44e4:	db027305 	blle	a1100 <__bss_end__+0x96738>
    44e8:	00000007 	andeq	r0, r0, r7
    44ec:	000e3118 	andeq	r3, lr, r8, lsl r1
    44f0:	02740500 	rsbseq	r0, r4, #0, 10
    44f4:	000007eb 	andeq	r0, r0, fp, ror #15
    44f8:	db090078 	blle	2446e0 <__bss_end__+0x239d18>
    44fc:	eb000002 	bl	450c <__code_start__-0x3af4>
    4500:	0a000007 	beq	4524 <__code_start__-0x3adc>
    4504:	000000cc 	andeq	r0, r0, ip, asr #1
    4508:	2c09001d 	stccs	0, cr0, [r9], {29}
    450c:	fb000000 	blx	4516 <__code_start__-0x3aea>
    4510:	0a000007 	beq	4534 <__code_start__-0x3acc>
    4514:	000000cc 	andeq	r0, r0, ip, asr #1
    4518:	f01c001d 			; <UNDEFINED> instruction: 0xf01c001d
    451c:	1d025505 	cfstr32ne	mvfx5, [r2, #-20]	; 0xffffffec
    4520:	1d000008 	stcne	0, cr0, [r0, #-32]	; 0xffffffe0
    4524:	00000cfa 	strdeq	r0, [r0], -sl
    4528:	86026c05 	strhi	r6, [r2], -r5, lsl #24
    452c:	1d000006 	stcne	0, cr0, [r0, #-24]	; 0xffffffe8
    4530:	00000e8d 	andeq	r0, r0, sp, lsl #29
    4534:	b7027505 	strlt	r7, [r2, -r5, lsl #10]
    4538:	00000007 	andeq	r0, r0, r7
    453c:	00011209 	andeq	r1, r1, r9, lsl #4
    4540:	00082d00 	andeq	r2, r8, r0, lsl #26
    4544:	00cc0a00 	sbceq	r0, ip, r0, lsl #20
    4548:	00180000 	andseq	r0, r8, r0
    454c:	0008381e 	andeq	r3, r8, lr, lsl r8
    4550:	04291600 	strteq	r1, [r9], #-1536	; 0x600
    4554:	0e000000 	cdpeq	0, 0, cr0, cr0, cr0, {0}
    4558:	00082d04 	andeq	r2, r8, r4, lsl #26
    455c:	7c040e00 	stcvc	14, cr0, [r4], {-0}
    4560:	1e000001 	cdpne	0, 0, cr0, cr0, cr1, {0}
    4564:	0000084f 	andeq	r0, r0, pc, asr #16
    4568:	00002516 	andeq	r2, r0, r6, lsl r5
    456c:	040e0000 	streq	r0, [lr], #-0
    4570:	00000855 	andeq	r0, r0, r5, asr r8
    4574:	0844040e 	stmdaeq	r4, {r1, r2, r3, sl}^
    4578:	f4090000 	vst4.8	{d0-d3}, [r9], r0
    457c:	6b000005 	blvs	4598 <__code_start__-0x3a68>
    4580:	0a000008 	beq	45a8 <__code_start__-0x3a58>
    4584:	000000cc 	andeq	r0, r0, ip, asr #1
    4588:	e01f0002 	ands	r0, pc, r2
    458c:	0500000d 	streq	r0, [r0, #-13]
    4590:	042902fd 	strteq	r0, [r9], #-765	; 0x2fd
    4594:	d91f0000 	ldmdble	pc, {}	; <UNPREDICTABLE>
    4598:	0500000d 	streq	r0, [r0, #-13]
    459c:	042f02fe 	strteq	r0, [pc], #-766	; 45a4 <__code_start__-0x3a5c>
    45a0:	25150000 	ldrcs	r0, [r5, #-0]
    45a4:	92000000 	andls	r0, r0, #0
    45a8:	16000008 	strne	r0, [r0], -r8
    45ac:	00000025 	andeq	r0, r0, r5, lsr #32
    45b0:	05da2000 	ldrbeq	r2, [sl]
    45b4:	1d060000 	stcne	0, cr0, [r6, #-0]
    45b8:	0000089d 	muleq	r0, sp, r8
    45bc:	0883040e 	stmeq	r3, {r1, r2, r3, sl}
    45c0:	25150000 	ldrcs	r0, [r5, #-0]
    45c4:	b2000000 	andlt	r0, r0, #0
    45c8:	16000008 	strne	r0, [r0], -r8
    45cc:	0000058a 	andeq	r0, r0, sl, lsl #11
    45d0:	06172000 	ldreq	r2, [r7], -r0
    45d4:	22060000 	andcs	r0, r6, #0
    45d8:	000008bd 			; <UNDEFINED> instruction: 0x000008bd
    45dc:	08a3040e 	stmiaeq	r3!, {r1, r2, r3, sl}
    45e0:	01210000 	teqeq	r1, r0
    45e4:	00000054 	andeq	r0, r0, r4, asr r0
    45e8:	09000c08 	stmdbeq	r0, {r3, sl, fp}
    45ec:	03220000 	teqeq	r2, #0
    45f0:	0000000a 	andeq	r0, r0, sl
    45f4:	000e2022 	andeq	r2, lr, r2, lsr #32
    45f8:	78220100 	stmdavc	r2!, {r8}
    45fc:	0400000e 	streq	r0, [r0], #-14
    4600:	000a4422 	andeq	r4, sl, r2, lsr #8
    4604:	db220500 	blle	885a0c <__bss_end__+0x87b044>
    4608:	0600000b 	streq	r0, [r0], -fp
    460c:	000e9522 	andeq	r9, lr, r2, lsr #10
    4610:	a4220700 	strtge	r0, [r2], #-1792	; 0x700
    4614:	0300000e 	movweq	r0, #14
    4618:	000eb322 	andeq	fp, lr, r2, lsr #6
    461c:	10000200 	andne	r0, r0, r0, lsl #4
    4620:	00000ab1 			; <UNDEFINED> instruction: 0x00000ab1
    4624:	9006072c 	andls	r0, r6, ip, lsr #14
    4628:	11000009 	tstne	r0, r9
    462c:	07006f69 	streq	r6, [r0, -r9, ror #30]
    4630:	00003309 	andeq	r3, r0, r9, lsl #6
    4634:	69110000 	ldmdbvs	r1, {}	; <UNPREDICTABLE>
    4638:	07007265 	streq	r7, [r0, -r5, ror #4]
    463c:	0000330a 	andeq	r3, r0, sl, lsl #6
    4640:	69110400 	ldmdbvs	r1, {sl}
    4644:	07007269 	streq	r7, [r0, -r9, ror #4]
    4648:	00003311 	andeq	r3, r0, r1, lsl r3
    464c:	6c110800 	ldcvs	8, cr0, [r1], {-0}
    4650:	07007263 	streq	r7, [r0, -r3, ror #4]
    4654:	00003313 	andeq	r3, r0, r3, lsl r3
    4658:	6d110c00 	ldcvs	12, cr0, [r1, #-0]
    465c:	07007263 	streq	r7, [r0, -r3, ror #4]
    4660:	00003314 	andeq	r3, r0, r4, lsl r3
    4664:	6c111000 	ldcvs	0, cr1, [r1], {-0}
    4668:	07007273 	smlsdxeq	r0, r3, r2, r7
    466c:	00003315 	andeq	r3, r0, r5, lsl r3
    4670:	6d111400 	cfldrsvs	mvf1, [r1, #-0]
    4674:	07007273 	smlsdxeq	r0, r3, r2, r7
    4678:	00003316 	andeq	r3, r0, r6, lsl r3
    467c:	330c1800 	movwcc	r1, #51200	; 0xc800
    4680:	0700000d 	streq	r0, [r0, -sp]
    4684:	00003317 	andeq	r3, r0, r7, lsl r3
    4688:	590c1c00 	stmdbpl	ip, {sl, fp, ip}
    468c:	0700000a 	streq	r0, [r0, -sl]
    4690:	0000331b 	andeq	r3, r0, fp, lsl r3
    4694:	390c2000 	stmdbcc	ip, {sp}
    4698:	0700000a 	streq	r0, [r0, -sl]
    469c:	0000331d 	andeq	r3, r0, sp, lsl r3
    46a0:	1d0c2400 	cfstrsne	mvf2, [ip, #-0]
    46a4:	0700000d 	streq	r0, [r0, -sp]
    46a8:	0000331e 	andeq	r3, r0, lr, lsl r3
    46ac:	23002800 	movwcs	r2, #2048	; 0x800
    46b0:	00000b21 	andeq	r0, r0, r1, lsr #22
    46b4:	09a50701 	stmibeq	r5!, {r0, r8, r9, sl}
    46b8:	50040000 	andpl	r0, r4, r0
    46bc:	040e2021 	streq	r2, [lr], #-33	; 0x21
    46c0:	00000033 	andeq	r0, r0, r3, lsr r0
    46c4:	00099f0f 	andeq	r9, r9, pc, lsl #30
    46c8:	0c4d2300 	mcrreq	3, 0, r2, sp, cr0
    46cc:	28010000 	stmdacs	r1, {}	; <UNPREDICTABLE>
    46d0:	000009bf 			; <UNDEFINED> instruction: 0x000009bf
    46d4:	20215040 	eorcs	r5, r1, r0, asr #32
    46d8:	0900040e 	stmdbeq	r0, {r1, r2, r3, sl}
    46dc:	b90f0000 	stmdblt	pc, {}	; <UNPREDICTABLE>
    46e0:	24000009 	strcs	r0, [r0], #-9
    46e4:	00000e6a 	andeq	r0, r0, sl, ror #28
    46e8:	0025a701 	eoreq	sl, r5, r1, lsl #14
    46ec:	9bbc0000 	blls	fef046f4 <__bss_end__+0xfeef9d2c>
    46f0:	00100000 	andseq	r0, r0, r0
    46f4:	9c010000 	stcls	0, cr0, [r1], {-0}
    46f8:	000009f0 	strdeq	r0, [r0], -r0	; <UNPREDICTABLE>
    46fc:	009bc425 	addseq	ip, fp, r5, lsr #8
    4700:	000c9c00 	andeq	r9, ip, r0, lsl #24
    4704:	9bc82500 	blls	ff20db0c <__bss_end__+0xff203144>
    4708:	0ad20000 	beq	ff484710 <__bss_end__+0xff479d48>
    470c:	26000000 	strcs	r0, [r0], -r0
    4710:	000005bf 			; <UNDEFINED> instruction: 0x000005bf
    4714:	9b8c9f01 	blls	fe32c320 <__bss_end__+0xfe321958>
    4718:	00300000 	eorseq	r0, r0, r0
    471c:	9c010000 	stcls	0, cr0, [r1], {-0}
    4720:	00000a4e 	andeq	r0, r0, lr, asr #20
    4724:	01006327 	tsteq	r0, r7, lsr #6
    4728:	00002c9f 	muleq	r0, pc, ip	; <UNPREDICTABLE>
    472c:	00110e00 	andseq	r0, r1, r0, lsl #28
    4730:	9b982500 	blls	fe60db38 <__bss_end__+0xfe603170>
    4734:	0c9c0000 	ldceq	0, cr0, [ip], {0}
    4738:	9c250000 	stcls	0, cr0, [r5], #-0
    473c:	a500009b 	strge	r0, [r0, #-155]	; 0x9b
    4740:	2800000a 	stmdacs	r0, {r1, r3}
    4744:	00009bb0 			; <UNDEFINED> instruction: 0x00009bb0
    4748:	00000ca7 	andeq	r0, r0, r7, lsr #25
    474c:	00000a44 	andeq	r0, r0, r4, asr #20
    4750:	05500129 	ldrbeq	r0, [r0, #-297]	; 0x129
    4754:	2150400c 	cmpcs	r0, ip
    4758:	51012920 	tstpl	r1, r0, lsr #18
    475c:	08007405 	stmdaeq	r0, {r0, r2, sl, ip, sp, lr}
    4760:	25001aff 	strcs	r1, [r0, #-2815]	; 0xaff
    4764:	00009bb4 			; <UNDEFINED> instruction: 0x00009bb4
    4768:	00000c9c 	muleq	r0, ip, ip
    476c:	0b842400 	bleq	fe10d774 <__bss_end__+0xfe102dac>
    4770:	97010000 	strls	r0, [r1, -r0]
    4774:	00000025 	andeq	r0, r0, r5, lsr #32
    4778:	00009b5c 	andeq	r9, r0, ip, asr fp
    477c:	00000030 	andeq	r0, r0, r0, lsr r0
    4780:	0aa59c01 	beq	fe96b78c <__bss_end__+0xfe960dc4>
    4784:	632a0000 	teqvs	sl, #0
    4788:	259b0100 	ldrcs	r0, [fp, #256]	; 0x100
    478c:	01000000 	mrseq	r0, (UNDEF: 0)
    4790:	9b642554 	blls	190dce8 <__bss_end__+0x1903320>
    4794:	0c9c0000 	ldceq	0, cr0, [ip], {0}
    4798:	68250000 	stmdavs	r5!, {}	; <UNPREDICTABLE>
    479c:	d200009b 	andle	r0, r0, #155	; 0x9b
    47a0:	2800000a 	stmdacs	r0, {r1, r3}
    47a4:	00009b78 	andeq	r9, r0, r8, ror fp
    47a8:	00000cb2 			; <UNDEFINED> instruction: 0x00000cb2
    47ac:	00000a9b 	muleq	r0, fp, sl
    47b0:	05500129 	ldrbeq	r0, [r0, #-297]	; 0x129
    47b4:	2150400c 	cmpcs	r0, ip
    47b8:	80250020 	eorhi	r0, r5, r0, lsr #32
    47bc:	9c00009b 	stcls	0, cr0, [r0], {155}	; 0x9b
    47c0:	0000000c 	andeq	r0, r0, ip
    47c4:	000b3824 	andeq	r3, fp, r4, lsr #16
    47c8:	25880100 	strcs	r0, [r8, #256]	; 0x100
    47cc:	3c000000 	stccc	0, cr0, [r0], {-0}
    47d0:	2000009b 	mulcs	r0, fp, r0
    47d4:	01000000 	mrseq	r0, (UNDEF: 0)
    47d8:	000ad29c 	muleq	sl, ip, r2
    47dc:	9b482b00 	blls	120f3e4 <__bss_end__+0x1204a1c>
    47e0:	0cb20000 	ldceq	0, cr0, [r2]
    47e4:	01290000 	teqeq	r9, r0
    47e8:	640c0550 	strvs	r0, [ip], #-1360	; 0x550
    47ec:	00202150 	eoreq	r2, r0, r0, asr r1
    47f0:	0e4a2400 	cdpeq	4, 4, cr2, cr10, cr0, {0}
    47f4:	7f010000 	svcvc	0x00010000
    47f8:	00000025 	andeq	r0, r0, r5, lsr #32
    47fc:	00009b24 	andeq	r9, r0, r4, lsr #22
    4800:	00000018 	andeq	r0, r0, r8, lsl r0
    4804:	0aff9c01 	beq	fffeb810 <__bss_end__+0xfffe0e48>
    4808:	302b0000 	eorcc	r0, fp, r0
    480c:	b200009b 	andlt	r0, r0, #155	; 0x9b
    4810:	2900000c 	stmdbcs	r0, {r2, r3}
    4814:	0c055001 	stceq	0, cr5, [r5], {1}
    4818:	20215064 	eorcs	r5, r1, r4, rrx
    481c:	d0260000 	eorle	r0, r6, r0
    4820:	01000009 	tsteq	r0, r9
    4824:	009a743a 	addseq	r7, sl, sl, lsr r4
    4828:	0000b000 	andeq	fp, r0, r0
    482c:	3d9c0100 	ldfccs	f0, [ip]
    4830:	2800000c 	stmdacs	r0, {r2, r3}
    4834:	00009a84 	andeq	r9, r0, r4, lsl #21
    4838:	00000cbd 			; <UNDEFINED> instruction: 0x00000cbd
    483c:	00000b2c 	andeq	r0, r0, ip, lsr #22
    4840:	01500129 	cmpeq	r0, r9, lsr #2
    4844:	5101293e 	tstpl	r1, lr, lsr r9
    4848:	28003201 	stmdacs	r0, {r0, r9, ip, sp}
    484c:	00009a90 	muleq	r0, r0, sl
    4850:	00000cbd 			; <UNDEFINED> instruction: 0x00000cbd
    4854:	00000b44 	andeq	r0, r0, r4, asr #22
    4858:	01500129 	cmpeq	r0, r9, lsr #2
    485c:	5101293f 	tstpl	r1, pc, lsr r9
    4860:	25003201 	strcs	r3, [r0, #-513]	; 0x201
    4864:	00009a94 	muleq	r0, r4, sl
    4868:	00000c9c 	muleq	r0, ip, ip
    486c:	009aa028 	addseq	sl, sl, r8, lsr #32
    4870:	000c3d00 	andeq	r3, ip, r0, lsl #26
    4874:	000b6900 	andeq	r6, fp, r0, lsl #18
    4878:	50012900 	andpl	r2, r1, r0, lsl #18
    487c:	50040c05 	andpl	r0, r4, r5, lsl #24
    4880:	01292021 	teqeq	r9, r1, lsr #32
    4884:	00310151 	eorseq	r0, r1, r1, asr r1
    4888:	009aa425 	addseq	sl, sl, r5, lsr #8
    488c:	000c9c00 	andeq	r9, ip, r0, lsl #24
    4890:	9ab42800 	bls	fed0e898 <__bss_end__+0xfed03ed0>
    4894:	0ca70000 	stceq	0, cr0, [r7]
    4898:	0b8b0000 	bleq	fe2c48a0 <__bss_end__+0xfe2b9ed8>
    489c:	01290000 	teqeq	r9, r0
    48a0:	00740250 	rsbseq	r0, r4, r0, asr r2
    48a4:	01510129 	cmpeq	r1, r9, lsr #2
    48a8:	c0280030 	eorgt	r0, r8, r0, lsr r0
    48ac:	a700009a 			; <UNDEFINED> instruction: 0xa700009a
    48b0:	a700000c 	strge	r0, [r0, -ip]
    48b4:	2900000b 	stmdbcs	r0, {r0, r1, r3}
    48b8:	0c055001 	stceq	0, cr5, [r5], {1}
    48bc:	20215044 	eorcs	r5, r1, r4, asr #32
    48c0:	01510129 	cmpeq	r1, r9, lsr #2
    48c4:	cc280030 	stcgt	0, cr0, [r8], #-192	; 0xffffff40
    48c8:	a700009a 			; <UNDEFINED> instruction: 0xa700009a
    48cc:	c300000c 	movwgt	r0, #12
    48d0:	2900000b 	stmdbcs	r0, {r0, r1, r3}
    48d4:	0c055001 	stceq	0, cr5, [r5], {1}
    48d8:	2021504c 	eorcs	r5, r1, ip, asr #32
    48dc:	01510129 	cmpeq	r1, r9, lsr #2
    48e0:	d8280033 	stmdale	r8!, {r0, r1, r4, r5}
    48e4:	a700009a 			; <UNDEFINED> instruction: 0xa700009a
    48e8:	df00000c 	svcle	0x0000000c
    48ec:	2900000b 	stmdbcs	r0, {r0, r1, r3}
    48f0:	0c055001 	stceq	0, cr5, [r5], {1}
    48f4:	20215050 	eorcs	r5, r1, r0, asr r0
    48f8:	01510129 	cmpeq	r1, r9, lsr #2
    48fc:	e4280030 	strt	r0, [r8], #-48	; 0x30
    4900:	a700009a 			; <UNDEFINED> instruction: 0xa700009a
    4904:	fc00000c 	stc2	0, cr0, [r0], {12}
    4908:	2900000b 	stmdbcs	r0, {r0, r1, r3}
    490c:	0c055001 	stceq	0, cr5, [r5], {1}
    4910:	20215048 	eorcs	r5, r1, r8, asr #32
    4914:	02510129 	subseq	r0, r1, #1073741834	; 0x4000000a
    4918:	2800c708 	stmdacs	r0, {r3, r8, r9, sl, lr, pc}
    491c:	00009af0 	strdeq	r9, [r0], -r0
    4920:	00000ca7 	andeq	r0, r0, r7, lsr #25
    4924:	00000c1a 	andeq	r0, r0, sl, lsl ip
    4928:	05500129 	ldrbeq	r0, [r0, #-297]	; 0x129
    492c:	2150680c 	cmpcs	r0, ip, lsl #16
    4930:	51012920 	tstpl	r1, r0, lsr #18
    4934:	010e0a03 	tsteq	lr, r3, lsl #20
    4938:	9afc2800 	bls	fff0e940 <__bss_end__+0xfff03f78>
    493c:	0ca70000 	stceq	0, cr0, [r7]
    4940:	0c330000 	ldceq	0, cr0, [r3], #-0
    4944:	01290000 	teqeq	r9, r0
    4948:	00740250 	rsbseq	r0, r4, r0, asr r2
    494c:	01510129 	cmpeq	r1, r9, lsr #2
    4950:	00250033 	eoreq	r0, r5, r3, lsr r0
    4954:	9c00009b 	stcls	0, cr0, [r0], {155}	; 0x9b
    4958:	0000000c 	andeq	r0, r0, ip
    495c:	000e622c 	andeq	r6, lr, ip, lsr #4
    4960:	542d0100 	strtpl	r0, [sp], #-256	; 0x100
    4964:	2000009a 	mulcs	r0, sl, r0
    4968:	01000000 	mrseq	r0, (UNDEF: 0)
    496c:	000c959c 	muleq	ip, ip, r5
    4970:	04342d00 	ldrteq	r2, [r4], #-3328	; 0xd00
    4974:	2d010000 	stccs	0, cr0, [r1, #-0]
    4978:	00000c95 	muleq	r0, r5, ip
    497c:	0000112c 	andeq	r1, r0, ip, lsr #2
    4980:	6c617627 	stclvs	6, cr7, [r1], #-156	; 0xffffff64
    4984:	2c2d0100 	stfcss	f0, [sp], #-0
    4988:	4a000000 	bmi	4990 <__code_start__-0x3670>
    498c:	28000011 	stmdacs	r0, {r0, r4}
    4990:	00009a64 	andeq	r9, r0, r4, ror #20
    4994:	00000cb2 			; <UNDEFINED> instruction: 0x00000cb2
    4998:	00000c84 	andeq	r0, r0, r4, lsl #25
    499c:	02500129 	subseq	r0, r0, #1073741834	; 0x4000000a
    49a0:	2b000074 	blcs	4b78 <__code_start__-0x3488>
    49a4:	00009a70 	andeq	r9, r0, r0, ror sl
    49a8:	00000ca7 	andeq	r0, r0, r7, lsr #25
    49ac:	02500129 	subseq	r0, r0, #1073741834	; 0x4000000a
    49b0:	00000074 	andeq	r0, r0, r4, ror r0
    49b4:	0c9b040e 	cfldrseq	mvf0, [fp], {14}
    49b8:	2f2e0000 	svccs	0x002e0000
    49bc:	00000886 	andeq	r0, r0, r6, lsl #17
    49c0:	00000886 	andeq	r0, r0, r6, lsl #17
    49c4:	412f8906 	teqmi	pc, r6, lsl #18
    49c8:	4100000d 	tstmi	r0, sp
    49cc:	0600000d 	streq	r0, [r0], -sp
    49d0:	0e442f9c 	mcreq	15, 2, r2, cr4, cr12, {4}
    49d4:	0e440000 	cdpeq	0, 4, cr0, cr4, cr0, {0}
    49d8:	a8060000 	stmdage	r6, {}	; <UNPREDICTABLE>
    49dc:	000c112f 	andeq	r1, ip, pc, lsr #2
    49e0:	000c1100 	andeq	r1, ip, r0, lsl #2
    49e4:	00190800 	andseq	r0, r9, r0, lsl #16
    49e8:	00000b70 	andeq	r0, r0, r0, ror fp
    49ec:	162c0004 	strtne	r0, [ip], -r4
    49f0:	01040000 	mrseq	r0, (UNDEF: 4)
    49f4:	00000d47 	andeq	r0, r0, r7, asr #26
    49f8:	000f170c 	andeq	r1, pc, ip, lsl #14
    49fc:	000ac500 	andeq	ip, sl, r0, lsl #10
    4a00:	009bcc00 	addseq	ip, fp, r0, lsl #24
    4a04:	00012000 	andeq	r2, r1, r0
    4a08:	0011fa00 	andseq	pc, r1, r0, lsl #20
    4a0c:	05040200 	streq	r0, [r4, #-512]	; 0x200
    4a10:	00746e69 	rsbseq	r6, r4, r9, ror #28
    4a14:	c2070403 	andgt	r0, r7, #50331648	; 0x3000000
    4a18:	04000001 	streq	r0, [r0], #-1
    4a1c:	0000002c 	andeq	r0, r0, ip, lsr #32
    4a20:	e5060103 	str	r0, [r6, #-259]	; 0x103
    4a24:	03000000 	movweq	r0, #0
    4a28:	02370502 	eorseq	r0, r7, #8388608	; 0x800000
    4a2c:	04030000 	streq	r0, [r3], #-0
    4a30:	00020005 	andeq	r0, r2, r5
    4a34:	05080300 	streq	r0, [r8, #-768]	; 0x300
    4a38:	000001fb 	strdeq	r0, [r0], -fp
    4a3c:	e3080103 	movw	r0, #33027	; 0x8103
    4a40:	03000000 	movweq	r0, #0
    4a44:	004c0702 	subeq	r0, ip, r2, lsl #14
    4a48:	04030000 	streq	r0, [r3], #-0
    4a4c:	0001bd07 	andeq	fp, r1, r7, lsl #26
    4a50:	07080300 	streq	r0, [r8, -r0, lsl #6]
    4a54:	000001b8 			; <UNDEFINED> instruction: 0x000001b8
    4a58:	000c5c05 	andeq	r5, ip, r5, lsl #24
    4a5c:	25070200 	strcs	r0, [r7, #-512]	; 0x200
    4a60:	05000000 	streq	r0, [r0, #-0]
    4a64:	00000c46 	andeq	r0, r0, r6, asr #24
    4a68:	00462c03 	subeq	r2, r6, r3, lsl #24
    4a6c:	22050000 	andcs	r0, r5, #0
    4a70:	0300000d 	movweq	r0, #13
    4a74:	00004672 	andeq	r4, r0, r2, ror r6
    4a78:	0bea0600 	bleq	ffa86280 <__bss_end__+0xffa7b8b8>
    4a7c:	65040000 	strvs	r0, [r4, #-0]
    4a80:	00002c01 	andeq	r2, r0, r1, lsl #24
    4a84:	03040700 	movweq	r0, #18176	; 0x4700
    4a88:	0000bca6 	andeq	fp, r0, r6, lsr #25
    4a8c:	0bd50800 	bleq	ff546a94 <__bss_end__+0xff53c0cc>
    4a90:	a8030000 	stmdage	r3, {}	; <UNPREDICTABLE>
    4a94:	00000091 	muleq	r0, r1, r0
    4a98:	000b7d08 	andeq	r7, fp, r8, lsl #26
    4a9c:	bca90300 	stclt	3, cr0, [r9]
    4aa0:	00000000 	andeq	r0, r0, r0
    4aa4:	00005409 	andeq	r5, r0, r9, lsl #8
    4aa8:	0000cc00 	andeq	ip, r0, r0, lsl #24
    4aac:	00cc0a00 	sbceq	r0, ip, r0, lsl #20
    4ab0:	00030000 	andeq	r0, r3, r0
    4ab4:	de070403 	cdple	4, 0, cr0, cr7, cr3, {0}
    4ab8:	0b000001 	bleq	4ac4 <__code_start__-0x353c>
    4abc:	f4a30308 	vld4.8	{d0[0],d1[0],d2[0],d3[0]}, [r3], r8
    4ac0:	0c000000 	stceq	0, cr0, [r0], {-0}
    4ac4:	00000d07 	andeq	r0, r0, r7, lsl #26
    4ac8:	0025a503 	eoreq	sl, r5, r3, lsl #10
    4acc:	0c000000 	stceq	0, cr0, [r0], {-0}
    4ad0:	00000d0f 	andeq	r0, r0, pc, lsl #26
    4ad4:	009daa03 	addseq	sl, sp, r3, lsl #20
    4ad8:	00040000 	andeq	r0, r4, r0
    4adc:	000c9a05 	andeq	r9, ip, r5, lsl #20
    4ae0:	d3ab0300 			; <UNDEFINED> instruction: 0xd3ab0300
    4ae4:	05000000 	streq	r0, [r0, #-0]
    4ae8:	00000b46 	andeq	r0, r0, r6, asr #22
    4aec:	0070af03 	rsbseq	sl, r0, r3, lsl #30
    4af0:	040d0000 	streq	r0, [sp], #-0
    4af4:	0112040e 	tsteq	r2, lr, lsl #8
    4af8:	01030000 	mrseq	r0, (UNDEF: 3)
    4afc:	0000ec08 	andeq	lr, r0, r8, lsl #24
    4b00:	01120400 	tsteq	r2, r0, lsl #8
    4b04:	c4050000 	strgt	r0, [r5], #-0
    4b08:	0500000d 	streq	r0, [r0, #-13]
    4b0c:	00006216 	andeq	r6, r0, r6, lsl r2
    4b10:	0b570f00 	bleq	15c8718 <__bss_end__+0x15bdd50>
    4b14:	05180000 	ldreq	r0, [r8, #-0]
    4b18:	00017c2d 	andeq	r7, r1, sp, lsr #24
    4b1c:	0cbb0c00 	ldceq	12, cr0, [fp]
    4b20:	2f050000 	svccs	0x00050000
    4b24:	0000017c 	andeq	r0, r0, ip, ror r1
    4b28:	6b5f1000 	blvs	17c8b30 <__bss_end__+0x17be168>
    4b2c:	25300500 	ldrcs	r0, [r0, #-1280]!	; 0x500
    4b30:	04000000 	streq	r0, [r0], #-0
    4b34:	000cf20c 	andeq	pc, ip, ip, lsl #4
    4b38:	25300500 	ldrcs	r0, [r0, #-1280]!	; 0x500
    4b3c:	08000000 	stmdaeq	r0, {}	; <UNPREDICTABLE>
    4b40:	000b320c 	andeq	r3, fp, ip, lsl #4
    4b44:	25300500 	ldrcs	r0, [r0, #-1280]!	; 0x500
    4b48:	0c000000 	stceq	0, cr0, [r0], {-0}
    4b4c:	000e0b0c 	andeq	r0, lr, ip, lsl #22
    4b50:	25300500 	ldrcs	r0, [r0, #-1280]!	; 0x500
    4b54:	10000000 	andne	r0, r0, r0
    4b58:	00785f10 	rsbseq	r5, r8, r0, lsl pc
    4b5c:	01823105 	orreq	r3, r2, r5, lsl #2
    4b60:	00140000 	andseq	r0, r4, r0
    4b64:	0129040e 	teqeq	r9, lr, lsl #8
    4b68:	1e090000 	cdpne	0, 0, cr0, cr9, cr0, {0}
    4b6c:	92000001 	andls	r0, r0, #1
    4b70:	0a000001 	beq	4b7c <__code_start__-0x3484>
    4b74:	000000cc 	andeq	r0, r0, ip, asr #1
    4b78:	780f0000 	stmdavc	pc, {}	; <UNPREDICTABLE>
    4b7c:	2400000b 	strcs	r0, [r0], #-11
    4b80:	020b3505 	andeq	r3, fp, #20971520	; 0x1400000
    4b84:	300c0000 	andcc	r0, ip, r0
    4b88:	0500000a 	streq	r0, [r0, #-10]
    4b8c:	00002537 	andeq	r2, r0, r7, lsr r5
    4b90:	2a0c0000 	bcs	304b98 <__bss_end__+0x2fa1d0>
    4b94:	0500000d 	streq	r0, [r0, #-13]
    4b98:	00002538 	andeq	r2, r0, r8, lsr r5
    4b9c:	5e0c0400 	cfcpyspl	mvf0, mvf12
    4ba0:	0500000a 	streq	r0, [r0, #-10]
    4ba4:	00002539 	andeq	r2, r0, r9, lsr r5
    4ba8:	fb0c0800 	blx	306bb2 <__bss_end__+0x2fc1ea>
    4bac:	0500000e 	streq	r0, [r0, #-14]
    4bb0:	0000253a 	andeq	r2, r0, sl, lsr r5
    4bb4:	2a0c0c00 	bcs	307bbc <__bss_end__+0x2fd1f4>
    4bb8:	0500000c 	streq	r0, [r0, #-12]
    4bbc:	0000253b 	andeq	r2, r0, fp, lsr r5
    4bc0:	ff0c1000 			; <UNDEFINED> instruction: 0xff0c1000
    4bc4:	0500000b 	streq	r0, [r0, #-11]
    4bc8:	0000253c 	andeq	r2, r0, ip, lsr r5
    4bcc:	100c1400 	andne	r1, ip, r0, lsl #8
    4bd0:	0500000e 	streq	r0, [r0, #-14]
    4bd4:	0000253d 	andeq	r2, r0, sp, lsr r5
    4bd8:	7c0c1800 	stcvc	8, cr1, [ip], {-0}
    4bdc:	0500000c 	streq	r0, [r0, #-12]
    4be0:	0000253e 	andeq	r2, r0, lr, lsr r5
    4be4:	c20c1c00 	andgt	r1, ip, #0, 24
    4be8:	0500000e 	streq	r0, [r0, #-14]
    4bec:	0000253f 	andeq	r2, r0, pc, lsr r5
    4bf0:	11002000 	mrsne	r2, (UNDEF: 0)
    4bf4:	00000a6d 	andeq	r0, r0, sp, ror #20
    4bf8:	48050108 	stmdami	r5, {r3, r8}
    4bfc:	0000024b 	andeq	r0, r0, fp, asr #4
    4c00:	000b190c 	andeq	r1, fp, ip, lsl #18
    4c04:	4b490500 	blmi	124600c <__bss_end__+0x123b644>
    4c08:	00000002 	andeq	r0, r0, r2
    4c0c:	0009ab0c 	andeq	sl, r9, ip, lsl #22
    4c10:	4b4a0500 	blmi	1286018 <__bss_end__+0x127b650>
    4c14:	80000002 	andhi	r0, r0, r2
    4c18:	000db612 	andeq	fp, sp, r2, lsl r6
    4c1c:	1e4c0500 	cdpne	5, 4, cr0, cr12, cr0, {0}
    4c20:	00000001 	andeq	r0, r0, r1
    4c24:	0a921201 	beq	fe489430 <__bss_end__+0xfe47ea68>
    4c28:	4f050000 	svcmi	0x00050000
    4c2c:	0000011e 	andeq	r0, r0, lr, lsl r1
    4c30:	09000104 	stmdbeq	r0, {r2, r8}
    4c34:	0000010a 	andeq	r0, r0, sl, lsl #2
    4c38:	0000025b 	andeq	r0, r0, fp, asr r2
    4c3c:	0000cc0a 	andeq	ip, r0, sl, lsl #24
    4c40:	11001f00 	tstne	r0, r0, lsl #30
    4c44:	00000c33 	andeq	r0, r0, r3, lsr ip
    4c48:	5b050190 	blpl	145290 <__bss_end__+0x13a8c8>
    4c4c:	00000299 	muleq	r0, r9, r2
    4c50:	000cbb0c 	andeq	fp, ip, ip, lsl #22
    4c54:	995c0500 	ldmdbls	ip, {r8, sl}^
    4c58:	00000002 	andeq	r0, r0, r2
    4c5c:	000cd30c 	andeq	sp, ip, ip, lsl #6
    4c60:	255d0500 	ldrbcs	r0, [sp, #-1280]	; 0x500
    4c64:	04000000 	streq	r0, [r0], #-0
    4c68:	000b2d0c 	andeq	r2, fp, ip, lsl #26
    4c6c:	9f5f0500 	svcls	0x005f0500
    4c70:	08000002 	stmdaeq	r0, {r1}
    4c74:	000a6d0c 	andeq	r6, sl, ip, lsl #26
    4c78:	0b600500 	bleq	1806080 <__bss_end__+0x17fb6b8>
    4c7c:	88000002 	stmdahi	r0, {r1}
    4c80:	5b040e00 	blpl	108488 <__bss_end__+0xfdac0>
    4c84:	09000002 	stmdbeq	r0, {r1}
    4c88:	000002af 	andeq	r0, r0, pc, lsr #5
    4c8c:	000002af 	andeq	r0, r0, pc, lsr #5
    4c90:	0000cc0a 	andeq	ip, r0, sl, lsl #24
    4c94:	0e001f00 	cdpeq	15, 0, cr1, cr0, cr0, {0}
    4c98:	0002b504 	andeq	fp, r2, r4, lsl #10
    4c9c:	860f1300 	strhi	r1, [pc], -r0, lsl #6
    4ca0:	0800000c 	stmdaeq	r0, {r2, r3}
    4ca4:	02db7305 	sbcseq	r7, fp, #335544320	; 0x14000000
    4ca8:	530c0000 	movwpl	r0, #49152	; 0xc000
    4cac:	0500000a 	streq	r0, [r0, #-10]
    4cb0:	0002db74 	andeq	sp, r2, r4, ror fp
    4cb4:	b70c0000 	strlt	r0, [ip, -r0]
    4cb8:	05000009 	streq	r0, [r0, #-9]
    4cbc:	00002575 	andeq	r2, r0, r5, ror r5
    4cc0:	0e000400 	cfcpyseq	mvf0, mvf0
    4cc4:	00005404 	andeq	r5, r0, r4, lsl #8
    4cc8:	0ca50f00 	stceq	15, cr0, [r5]
    4ccc:	05680000 	strbeq	r0, [r8, #-0]!
    4cd0:	00040bb3 			; <UNDEFINED> instruction: 0x00040bb3
    4cd4:	705f1000 	subsvc	r1, pc, r0
    4cd8:	dbb40500 	blle	fed060e0 <__bss_end__+0xfecfb718>
    4cdc:	00000002 	andeq	r0, r0, r2
    4ce0:	00725f10 	rsbseq	r5, r2, r0, lsl pc
    4ce4:	0025b505 	eoreq	fp, r5, r5, lsl #10
    4ce8:	10040000 	andne	r0, r4, r0
    4cec:	0500775f 	streq	r7, [r0, #-1887]	; 0x75f
    4cf0:	000025b6 			; <UNDEFINED> instruction: 0x000025b6
    4cf4:	8b0c0800 	blhi	306cfc <__bss_end__+0x2fc334>
    4cf8:	0500000a 	streq	r0, [r0, #-10]
    4cfc:	00003fb7 			; <UNDEFINED> instruction: 0x00003fb7
    4d00:	9e0c0c00 	cdpls	12, 0, cr0, cr12, cr0, {0}
    4d04:	0500000b 	streq	r0, [r0, #-11]
    4d08:	00003fb8 			; <UNDEFINED> instruction: 0x00003fb8
    4d0c:	5f100e00 	svcpl	0x00100e00
    4d10:	05006662 	streq	r6, [r0, #-1634]	; 0x662
    4d14:	0002b6b9 			; <UNDEFINED> instruction: 0x0002b6b9
    4d18:	fa0c1000 	blx	308d20 <__bss_end__+0x2fe358>
    4d1c:	05000009 	streq	r0, [r0, #-9]
    4d20:	000025ba 			; <UNDEFINED> instruction: 0x000025ba
    4d24:	7b0c1800 	blvc	30ad2c <__bss_end__+0x300364>
    4d28:	0500000a 	streq	r0, [r0, #-10]
    4d2c:	00010ac1 	andeq	r0, r1, r1, asr #21
    4d30:	220c1c00 	andcs	r1, ip, #0, 24
    4d34:	0500000f 	streq	r0, [r0, #-15]
    4d38:	000566c3 	andeq	r6, r5, r3, asr #13
    4d3c:	3c0c2000 	stccc	0, cr2, [ip], {-0}
    4d40:	0500000f 	streq	r0, [r0, #-15]
    4d44:	000590c5 	andeq	r9, r5, r5, asr #1
    4d48:	170c2400 	strne	r2, [ip, -r0, lsl #8]
    4d4c:	0500000d 	streq	r0, [r0, #-13]
    4d50:	0005b4c8 	andeq	fp, r5, r8, asr #9
    4d54:	dc0c2800 	stcle	8, cr2, [ip], {-0}
    4d58:	0500000e 	streq	r0, [r0, #-14]
    4d5c:	0005cec9 	andeq	ip, r5, r9, asr #29
    4d60:	5f102c00 	svcpl	0x00102c00
    4d64:	05006275 	streq	r6, [r0, #-629]	; 0x275
    4d68:	0002b6cc 	andeq	fp, r2, ip, asr #13
    4d6c:	5f103000 	svcpl	0x00103000
    4d70:	05007075 	streq	r7, [r0, #-117]	; 0x75
    4d74:	0002dbcd 	andeq	sp, r2, sp, asr #23
    4d78:	5f103800 	svcpl	0x00103800
    4d7c:	05007275 	streq	r7, [r0, #-629]	; 0x275
    4d80:	000025ce 	andeq	r2, r0, lr, asr #11
    4d84:	3e0c3c00 	cdpcc	12, 0, cr3, cr12, cr0, {0}
    4d88:	0500000a 	streq	r0, [r0, #-10]
    4d8c:	0005d4d1 	ldrdeq	sp, [r5], -r1
    4d90:	870c4000 	strhi	r4, [ip, -r0]
    4d94:	0500000e 	streq	r0, [r0, #-14]
    4d98:	0005e4d2 	ldrdeq	lr, [r5], -r2
    4d9c:	5f104300 	svcpl	0x00104300
    4da0:	0500626c 	streq	r6, [r0, #-620]	; 0x26c
    4da4:	0002b6d5 	ldrdeq	fp, [r2], -r5
    4da8:	a10c4400 	tstge	ip, r0, lsl #8
    4dac:	0500000a 	streq	r0, [r0, #-10]
    4db0:	000025d8 	ldrdeq	r2, [r0], -r8
    4db4:	090c4c00 	stmdbeq	ip, {sl, fp, lr}
    4db8:	0500000c 	streq	r0, [r0, #-12]
    4dbc:	00007bd9 	ldrdeq	r7, [r0], -r9
    4dc0:	720c5000 	andvc	r5, ip, #0
    4dc4:	0500000e 	streq	r0, [r0, #-14]
    4dc8:	000429dc 	ldrdeq	r2, [r4], -ip
    4dcc:	f10c5400 			; <UNDEFINED> instruction: 0xf10c5400
    4dd0:	0500000b 	streq	r0, [r0, #-11]
    4dd4:	0000ffe0 	andeq	pc, r0, r0, ror #31
    4dd8:	ad0c5800 	stcge	8, cr5, [ip, #-0]
    4ddc:	0500000c 	streq	r0, [r0, #-12]
    4de0:	0000f4e2 	andeq	pc, r0, r2, ror #9
    4de4:	f70c5c00 			; <UNDEFINED> instruction: 0xf70c5c00
    4de8:	0500000b 	streq	r0, [r0, #-11]
    4dec:	000025e3 	andeq	r2, r0, r3, ror #11
    4df0:	14006400 	strne	r6, [r0], #-1024	; 0x400
    4df4:	00000025 	andeq	r0, r0, r5, lsr #32
    4df8:	00000429 	andeq	r0, r0, r9, lsr #8
    4dfc:	00042915 	andeq	r2, r4, r5, lsl r9
    4e00:	010a1500 	tsteq	sl, r0, lsl #10
    4e04:	0c150000 	ldceq	0, cr0, [r5], {-0}
    4e08:	15000001 	strne	r0, [r0, #-1]
    4e0c:	00000025 	andeq	r0, r0, r5, lsr #32
    4e10:	34040e00 	strcc	r0, [r4], #-3584	; 0xe00
    4e14:	04000004 	streq	r0, [r0], #-4
    4e18:	00000429 	andeq	r0, r0, r9, lsr #8
    4e1c:	000cfa16 	andeq	pc, ip, r6, lsl sl	; <UNPREDICTABLE>
    4e20:	05042800 	streq	r2, [r4, #-2048]	; 0x800
    4e24:	05660238 	strbeq	r0, [r6, #-568]!	; 0x238
    4e28:	75170000 	ldrvc	r0, [r7, #-0]
    4e2c:	0500000c 	streq	r0, [r0, #-12]
    4e30:	0025023a 	eoreq	r0, r5, sl, lsr r2
    4e34:	17000000 	strne	r0, [r0, -r0]
    4e38:	00000a9a 	muleq	r0, sl, sl
    4e3c:	3b023f05 	blcc	94a58 <__bss_end__+0x8a090>
    4e40:	04000006 	streq	r0, [r0], #-6
    4e44:	000b8e17 	andeq	r8, fp, r7, lsl lr
    4e48:	023f0500 	eorseq	r0, pc, #0, 10
    4e4c:	0000063b 	andeq	r0, r0, fp, lsr r6
    4e50:	0b4f1708 	bleq	13caa78 <__bss_end__+0x13c00b0>
    4e54:	3f050000 	svccc	0x00050000
    4e58:	00063b02 	andeq	r3, r6, r2, lsl #22
    4e5c:	ce170c00 	cdpgt	12, 1, cr0, cr7, cr0, {0}
    4e60:	0500000c 	streq	r0, [r0, #-12]
    4e64:	00250241 	eoreq	r0, r5, r1, asr #4
    4e68:	17100000 	ldrne	r0, [r0, -r0]
    4e6c:	000009c5 	andeq	r0, r0, r5, asr #19
    4e70:	1d024205 	sfmne	f4, 4, [r2, #-20]	; 0xffffffec
    4e74:	14000008 	strne	r0, [r0], #-8
    4e78:	000dec17 	andeq	lr, sp, r7, lsl ip
    4e7c:	02440500 	subeq	r0, r4, #0, 10
    4e80:	00000025 	andeq	r0, r0, r5, lsr #32
    4e84:	0cd81730 	ldcleq	7, cr1, [r8], {48}	; 0x30
    4e88:	45050000 	strmi	r0, [r5, #-0]
    4e8c:	00058a02 	andeq	r8, r5, r2, lsl #20
    4e90:	3b173400 	blcc	5d1e98 <__bss_end__+0x5c74d0>
    4e94:	0500000c 	streq	r0, [r0, #-12]
    4e98:	00250247 	eoreq	r0, r5, r7, asr #4
    4e9c:	17380000 	ldrne	r0, [r8, -r0]!
    4ea0:	00000ce8 	andeq	r0, r0, r8, ror #25
    4ea4:	38024905 	stmdacc	r2, {r0, r2, r8, fp, lr}
    4ea8:	3c000008 	stccc	0, cr0, [r0], {8}
    4eac:	000bcd17 	andeq	ip, fp, r7, lsl sp
    4eb0:	024c0500 	subeq	r0, ip, #0, 10
    4eb4:	0000017c 	andeq	r0, r0, ip, ror r1
    4eb8:	0b6e1740 	bleq	1b8abc0 <__bss_end__+0x1b801f8>
    4ebc:	4d050000 	stcmi	0, cr0, [r5, #-0]
    4ec0:	00002502 	andeq	r2, r0, r2, lsl #10
    4ec4:	f6174400 			; <UNDEFINED> instruction: 0xf6174400
    4ec8:	0500000e 	streq	r0, [r0, #-14]
    4ecc:	017c024e 	cmneq	ip, lr, asr #4
    4ed0:	17480000 	strbne	r0, [r8, -r0]
    4ed4:	00000c52 	andeq	r0, r0, r2, asr ip
    4ed8:	3e024f05 	cdpcc	15, 0, cr4, cr2, cr5, {0}
    4edc:	4c000008 	stcmi	0, cr0, [r0], {8}
    4ee0:	000b9617 	andeq	r9, fp, r7, lsl r6
    4ee4:	02520500 	subseq	r0, r2, #0, 10
    4ee8:	00000025 	andeq	r0, r0, r5, lsr #32
    4eec:	0abd1750 	beq	fef4ac34 <__bss_end__+0xfef4026c>
    4ef0:	53050000 	movwpl	r0, #20480	; 0x5000
    4ef4:	00010c02 	andeq	r0, r1, r2, lsl #24
    4ef8:	6e175400 	cfmulsvs	mvf5, mvf7, mvf0
    4efc:	0500000c 	streq	r0, [r0, #-12]
    4f00:	07fb0276 			; <UNDEFINED> instruction: 0x07fb0276
    4f04:	18580000 	ldmdane	r8, {}^	; <UNPREDICTABLE>
    4f08:	00000c33 	andeq	r0, r0, r3, lsr ip
    4f0c:	99027a05 	stmdbls	r2, {r0, r2, r9, fp, ip, sp, lr}
    4f10:	48000002 	stmdami	r0, {r1}
    4f14:	0bab1801 	bleq	feacaf20 <__bss_end__+0xfeac0558>
    4f18:	7b050000 	blvc	144f20 <__bss_end__+0x13a558>
    4f1c:	00025b02 	andeq	r5, r2, r2, lsl #22
    4f20:	18014c00 	stmdane	r1, {sl, fp, lr}
    4f24:	00000e58 	andeq	r0, r0, r8, asr lr
    4f28:	4f027f05 	svcmi	0x00027f05
    4f2c:	dc000008 	stcle	0, cr0, [r0], {8}
    4f30:	0a831802 	beq	fe0caf40 <__bss_end__+0xfe0c0578>
    4f34:	84050000 	strhi	r0, [r5], #-0
    4f38:	00060002 	andeq	r0, r6, r2
    4f3c:	1802e000 	stmdane	r2, {sp, lr, pc}
    4f40:	00000a68 	andeq	r0, r0, r8, ror #20
    4f44:	5b028505 	blpl	a6360 <__bss_end__+0x9b998>
    4f48:	ec000008 	stc	0, cr0, [r0], {8}
    4f4c:	040e0002 	streq	r0, [lr], #-2
    4f50:	0000040b 	andeq	r0, r0, fp, lsl #8
    4f54:	00002514 	andeq	r2, r0, r4, lsl r5
    4f58:	00058a00 	andeq	r8, r5, r0, lsl #20
    4f5c:	04291500 	strteq	r1, [r9], #-1280	; 0x500
    4f60:	0a150000 	beq	544f68 <__bss_end__+0x53a5a0>
    4f64:	15000001 	strne	r0, [r0, #-1]
    4f68:	0000058a 	andeq	r0, r0, sl, lsl #11
    4f6c:	00002515 	andeq	r2, r0, r5, lsl r5
    4f70:	040e0000 	streq	r0, [lr], #-0
    4f74:	00000119 	andeq	r0, r0, r9, lsl r1
    4f78:	056c040e 	strbeq	r0, [ip, #-1038]!	; 0x40e
    4f7c:	86140000 	ldrhi	r0, [r4], -r0
    4f80:	b4000000 	strlt	r0, [r0], #-0
    4f84:	15000005 	strne	r0, [r0, #-5]
    4f88:	00000429 	andeq	r0, r0, r9, lsr #8
    4f8c:	00010a15 	andeq	r0, r1, r5, lsl sl
    4f90:	00861500 	addeq	r1, r6, r0, lsl #10
    4f94:	25150000 	ldrcs	r0, [r5, #-0]
    4f98:	00000000 	andeq	r0, r0, r0
    4f9c:	0596040e 	ldreq	r0, [r6, #1038]	; 0x40e
    4fa0:	25140000 	ldrcs	r0, [r4, #-0]
    4fa4:	ce000000 	cdpgt	0, 0, cr0, cr0, cr0, {0}
    4fa8:	15000005 	strne	r0, [r0, #-5]
    4fac:	00000429 	andeq	r0, r0, r9, lsr #8
    4fb0:	00010a15 	andeq	r0, r1, r5, lsl sl
    4fb4:	040e0000 	streq	r0, [lr], #-0
    4fb8:	000005ba 			; <UNDEFINED> instruction: 0x000005ba
    4fbc:	00005409 	andeq	r5, r0, r9, lsl #8
    4fc0:	0005e400 	andeq	lr, r5, r0, lsl #8
    4fc4:	00cc0a00 	sbceq	r0, ip, r0, lsl #20
    4fc8:	00020000 	andeq	r0, r2, r0
    4fcc:	00005409 	andeq	r5, r0, r9, lsl #8
    4fd0:	0005f400 	andeq	pc, r5, r0, lsl #8
    4fd4:	00cc0a00 	sbceq	r0, ip, r0, lsl #20
    4fd8:	00000000 	andeq	r0, r0, r0
    4fdc:	000c9306 	andeq	r9, ip, r6, lsl #6
    4fe0:	011d0500 	tsteq	sp, r0, lsl #10
    4fe4:	000002e1 	andeq	r0, r0, r1, ror #5
    4fe8:	000e1a19 	andeq	r1, lr, r9, lsl sl
    4fec:	21050c00 	tstcs	r5, r0, lsl #24
    4ff0:	00063501 	andeq	r3, r6, r1, lsl #10
    4ff4:	0cbb1700 	ldceq	7, cr1, [fp]
    4ff8:	23050000 	movwcs	r0, #20480	; 0x5000
    4ffc:	00063501 	andeq	r3, r6, r1, lsl #10
    5000:	a4170000 	ldrge	r0, [r7], #-0
    5004:	0500000b 	streq	r0, [r0, #-11]
    5008:	00250124 	eoreq	r0, r5, r4, lsr #2
    500c:	17040000 	strne	r0, [r4, -r0]
    5010:	00000c8d 	andeq	r0, r0, sp, lsl #25
    5014:	3b012505 	blcc	4e430 <__bss_end__+0x43a68>
    5018:	08000006 	stmdaeq	r0, {r1, r2}
    501c:	00040e00 	andeq	r0, r4, r0, lsl #28
    5020:	0e000006 	cdpeq	0, 0, cr0, cr0, cr6, {0}
    5024:	0005f404 	andeq	pc, r5, r4, lsl #8
    5028:	09bd1900 	ldmibeq	sp!, {r8, fp, ip}
    502c:	050e0000 	streq	r0, [lr, #-0]
    5030:	0676013d 			; <UNDEFINED> instruction: 0x0676013d
    5034:	01170000 	tsteq	r7, r0
    5038:	0500000d 	streq	r0, [r0, #-13]
    503c:	0676013e 			; <UNDEFINED> instruction: 0x0676013e
    5040:	17000000 	strne	r0, [r0, -r0]
    5044:	00000d3b 	andeq	r0, r0, fp, lsr sp
    5048:	76013f05 	strvc	r3, [r1], -r5, lsl #30
    504c:	06000006 	streq	r0, [r0], -r6
    5050:	000dbf17 	andeq	fp, sp, r7, lsl pc
    5054:	01400500 	cmpeq	r0, r0, lsl #10
    5058:	0000005b 	andeq	r0, r0, fp, asr r0
    505c:	5b09000c 	blpl	245094 <__bss_end__+0x23a6cc>
    5060:	86000000 	strhi	r0, [r0], -r0
    5064:	0a000006 	beq	5084 <__code_start__-0x2f7c>
    5068:	000000cc 	andeq	r0, r0, ip, asr #1
    506c:	d01a0002 	andsle	r0, sl, r2
    5070:	87025705 	strhi	r5, [r2, -r5, lsl #14]
    5074:	17000007 	strne	r0, [r0, -r7]
    5078:	00000dfe 	strdeq	r0, [r0], -lr
    507c:	2c025905 	stccs	9, cr5, [r2], {5}
    5080:	00000000 	andeq	r0, r0, r0
    5084:	000da917 	andeq	sl, sp, r7, lsl r9
    5088:	025a0500 	subseq	r0, sl, #0, 10
    508c:	0000010c 	andeq	r0, r0, ip, lsl #2
    5090:	0bc01704 	bleq	ff00aca8 <__bss_end__+0xff0002e0>
    5094:	5b050000 	blpl	14509c <__bss_end__+0x13a6d4>
    5098:	00078702 	andeq	r8, r7, r2, lsl #14
    509c:	cd170800 	ldcgt	8, cr0, [r7, #-0]
    50a0:	0500000e 	streq	r0, [r0, #-14]
    50a4:	0192025c 	orrseq	r0, r2, ip, asr r2
    50a8:	17240000 	strne	r0, [r4, -r0]!
    50ac:	00000b5f 	andeq	r0, r0, pc, asr fp
    50b0:	25025d05 	strcs	r5, [r2, #-3333]	; 0xd05
    50b4:	48000000 	stmdami	r0, {}	; <UNPREDICTABLE>
    50b8:	000cb617 	andeq	fp, ip, r7, lsl r6
    50bc:	025e0500 	subseq	r0, lr, #0, 10
    50c0:	00000069 	andeq	r0, r0, r9, rrx
    50c4:	0ee31750 	mcreq	7, 7, r1, cr3, cr0, {2}
    50c8:	5f050000 	svcpl	0x00050000
    50cc:	00064102 	andeq	r4, r6, r2, lsl #2
    50d0:	c1175800 	tstgt	r7, r0, lsl #16
    50d4:	0500000c 	streq	r0, [r0, #-12]
    50d8:	00f40260 	rscseq	r0, r4, r0, ror #4
    50dc:	17680000 	strbne	r0, [r8, -r0]!
    50e0:	00000ee8 	andeq	r0, r0, r8, ror #29
    50e4:	f4026105 	vst4.8	{d6,d8,d10,d12}, [r2], r5
    50e8:	70000000 	andvc	r0, r0, r0
    50ec:	000a2217 	andeq	r2, sl, r7, lsl r2
    50f0:	02620500 	rsbeq	r0, r2, #0, 10
    50f4:	000000f4 	strdeq	r0, [r0], -r4
    50f8:	0e3a1778 	mrceq	7, 1, r1, cr10, cr8, {3}
    50fc:	63050000 	movwvs	r0, #20480	; 0x5000
    5100:	00079702 	andeq	r9, r7, r2, lsl #14
    5104:	b4178000 	ldrlt	r8, [r7], #-0
    5108:	0500000b 	streq	r0, [r0, #-11]
    510c:	07a70264 	streq	r0, [r7, r4, ror #4]!
    5110:	17880000 	strne	r0, [r8, r0]
    5114:	00000dcc 	andeq	r0, r0, ip, asr #27
    5118:	25026505 	strcs	r6, [r2, #-1285]	; 0x505
    511c:	a0000000 	andge	r0, r0, r0
    5120:	000b0b17 	andeq	r0, fp, r7, lsl fp
    5124:	02660500 	rsbeq	r0, r6, #0, 10
    5128:	000000f4 	strdeq	r0, [r0], -r4
    512c:	0a1317a4 	beq	4cafc4 <__bss_end__+0x4c05fc>
    5130:	67050000 	strvs	r0, [r5, -r0]
    5134:	0000f402 	andeq	pc, r0, r2, lsl #8
    5138:	fa17ac00 	blx	5f0140 <__bss_end__+0x5e5778>
    513c:	0500000a 	streq	r0, [r0, #-10]
    5140:	00f40268 	rscseq	r0, r4, r8, ror #4
    5144:	17b40000 	ldrne	r0, [r4, r0]!
    5148:	000009da 	ldrdeq	r0, [r0], -sl
    514c:	f4026905 	vst2.8	{d6,d8}, [r2], r5
    5150:	bc000000 	stclt	0, cr0, [r0], {-0}
    5154:	0009e917 	andeq	lr, r9, r7, lsl r9
    5158:	026a0500 	rsbeq	r0, sl, #0, 10
    515c:	000000f4 	strdeq	r0, [r0], -r4
    5160:	0c7317c4 	ldcleq	7, cr1, [r3], #-784	; 0xfffffcf0
    5164:	6b050000 	blvs	14516c <__bss_end__+0x13a7a4>
    5168:	00002502 	andeq	r2, r0, r2, lsl #10
    516c:	0900cc00 	stmdbeq	r0, {sl, fp, lr, pc}
    5170:	00000112 	andeq	r0, r0, r2, lsl r1
    5174:	00000797 	muleq	r0, r7, r7
    5178:	0000cc0a 	andeq	ip, r0, sl, lsl #24
    517c:	09001900 	stmdbeq	r0, {r8, fp, ip}
    5180:	00000112 	andeq	r0, r0, r2, lsl r1
    5184:	000007a7 	andeq	r0, r0, r7, lsr #15
    5188:	0000cc0a 	andeq	ip, r0, sl, lsl #24
    518c:	09000700 	stmdbeq	r0, {r8, r9, sl}
    5190:	00000112 	andeq	r0, r0, r2, lsl r1
    5194:	000007b7 			; <UNDEFINED> instruction: 0x000007b7
    5198:	0000cc0a 	andeq	ip, r0, sl, lsl #24
    519c:	1a001700 	bne	ada4 <__bss_end__+0x3dc>
    51a0:	027005f0 	rsbseq	r0, r0, #240, 10	; 0x3c000000
    51a4:	000007db 	ldrdeq	r0, [r0], -fp
    51a8:	000c2317 	andeq	r2, ip, r7, lsl r3
    51ac:	02730500 	rsbseq	r0, r3, #0, 10
    51b0:	000007db 	ldrdeq	r0, [r0], -fp
    51b4:	0e311700 	cdpeq	7, 3, cr1, cr1, cr0, {0}
    51b8:	74050000 	strvc	r0, [r5], #-0
    51bc:	0007eb02 	andeq	lr, r7, r2, lsl #22
    51c0:	09007800 	stmdbeq	r0, {fp, ip, sp, lr}
    51c4:	000002db 	ldrdeq	r0, [r0], -fp
    51c8:	000007eb 	andeq	r0, r0, fp, ror #15
    51cc:	0000cc0a 	andeq	ip, r0, sl, lsl #24
    51d0:	09001d00 	stmdbeq	r0, {r8, sl, fp, ip}
    51d4:	0000002c 	andeq	r0, r0, ip, lsr #32
    51d8:	000007fb 	strdeq	r0, [r0], -fp
    51dc:	0000cc0a 	andeq	ip, r0, sl, lsl #24
    51e0:	1b001d00 	blne	c5e8 <__bss_end__+0x1c20>
    51e4:	025505f0 	subseq	r0, r5, #240, 10	; 0x3c000000
    51e8:	0000081d 	andeq	r0, r0, sp, lsl r8
    51ec:	000cfa1c 	andeq	pc, ip, ip, lsl sl	; <UNPREDICTABLE>
    51f0:	026c0500 	rsbeq	r0, ip, #0, 10
    51f4:	00000686 	andeq	r0, r0, r6, lsl #13
    51f8:	000e8d1c 	andeq	r8, lr, ip, lsl sp
    51fc:	02750500 	rsbseq	r0, r5, #0, 10
    5200:	000007b7 			; <UNDEFINED> instruction: 0x000007b7
    5204:	01120900 	tsteq	r2, r0, lsl #18
    5208:	082d0000 	stmdaeq	sp!, {}	; <UNPREDICTABLE>
    520c:	cc0a0000 	stcgt	0, cr0, [sl], {-0}
    5210:	18000000 	stmdane	r0, {}	; <UNPREDICTABLE>
    5214:	08381d00 	ldmdaeq	r8!, {r8, sl, fp, ip}
    5218:	29150000 	ldmdbcs	r5, {}	; <UNPREDICTABLE>
    521c:	00000004 	andeq	r0, r0, r4
    5220:	082d040e 	stmdaeq	sp!, {r1, r2, r3, sl}
    5224:	040e0000 	streq	r0, [lr], #-0
    5228:	0000017c 	andeq	r0, r0, ip, ror r1
    522c:	00084f1d 	andeq	r4, r8, sp, lsl pc
    5230:	00251500 	eoreq	r1, r5, r0, lsl #10
    5234:	0e000000 	cdpeq	0, 0, cr0, cr0, cr0, {0}
    5238:	00085504 	andeq	r5, r8, r4, lsl #10
    523c:	44040e00 	strmi	r0, [r4], #-3584	; 0xe00
    5240:	09000008 	stmdbeq	r0, {r3}
    5244:	000005f4 	strdeq	r0, [r0], -r4
    5248:	0000086b 	andeq	r0, r0, fp, ror #16
    524c:	0000cc0a 	andeq	ip, r0, sl, lsl #24
    5250:	1e000200 	cdpne	2, 0, cr0, cr0, cr0, {0}
    5254:	00000de0 	andeq	r0, r0, r0, ror #27
    5258:	2902fd05 	stmdbcs	r2, {r0, r2, r8, sl, fp, ip, sp, lr, pc}
    525c:	1e000004 	cdpne	0, 0, cr0, cr0, cr4, {0}
    5260:	00000dd9 	ldrdeq	r0, [r0], -r9
    5264:	2f02fe05 	svccs	0x0002fe05
    5268:	14000004 	strne	r0, [r0], #-4
    526c:	00000025 	andeq	r0, r0, r5, lsr #32
    5270:	00000892 	muleq	r0, r2, r8
    5274:	00002515 	andeq	r2, r0, r5, lsl r5
    5278:	da1f0000 	ble	7c5280 <__bss_end__+0x7ba8b8>
    527c:	06000005 	streq	r0, [r0], -r5
    5280:	00089d1d 	andeq	r9, r8, sp, lsl sp
    5284:	83040e00 	movwhi	r0, #19968	; 0x4e00
    5288:	14000008 	strne	r0, [r0], #-8
    528c:	00000025 	andeq	r0, r0, r5, lsr #32
    5290:	000008b2 			; <UNDEFINED> instruction: 0x000008b2
    5294:	00058a15 	andeq	r8, r5, r5, lsl sl
    5298:	171f0000 	ldrne	r0, [pc, -r0]
    529c:	06000006 	streq	r0, [r0], -r6
    52a0:	0008bd22 	andeq	fp, r8, r2, lsr #26
    52a4:	a3040e00 	movwge	r0, #19968	; 0x4e00
    52a8:	20000008 	andcs	r0, r0, r8
    52ac:	00005401 	andeq	r5, r0, r1, lsl #8
    52b0:	000c0700 	andeq	r0, ip, r0, lsl #14
    52b4:	21000009 	tstcs	r0, r9
    52b8:	00000a03 	andeq	r0, r0, r3, lsl #20
    52bc:	0e202100 	sufeqs	f2, f0, f0
    52c0:	21010000 	mrscs	r0, (UNDEF: 1)
    52c4:	00000e78 	andeq	r0, r0, r8, ror lr
    52c8:	0a442104 	beq	110d6e0 <__bss_end__+0x1102d18>
    52cc:	21050000 	mrscs	r0, (UNDEF: 5)
    52d0:	00000bdb 	ldrdeq	r0, [r0], -fp
    52d4:	0e952106 	fmleqs	f2, f5, f6
    52d8:	21070000 	mrscs	r0, (UNDEF: 7)
    52dc:	00000ea4 	andeq	r0, r0, r4, lsr #29
    52e0:	0eb32103 	frdeqs	f2, f3, f3
    52e4:	00020000 	andeq	r0, r2, r0
    52e8:	000f7205 	andeq	r7, pc, r5, lsl #4
    52ec:	c3150700 	tstgt	r5, #0, 14
    52f0:	22000008 	andcs	r0, r0, #8
    52f4:	00000f43 	andeq	r0, r0, r3, asr #30
    52f8:	00331d01 	eorseq	r1, r3, r1, lsl #26
    52fc:	001c0000 	andseq	r0, ip, r0
    5300:	7e222020 	cdpvc	0, 2, cr2, cr2, cr0, {1}
    5304:	0100000f 	tsteq	r0, pc
    5308:	0000331e 	andeq	r3, r0, lr, lsl r3
    530c:	20002800 	andcs	r2, r0, r0, lsl #16
    5310:	0f4d2220 	svceq	0x004d2220
    5314:	1f010000 	svcne	0x00010000
    5318:	00000033 	andeq	r0, r0, r3, lsr r0
    531c:	20200034 	eorcs	r0, r0, r4, lsr r0
    5320:	000f1e23 	andeq	r1, pc, r3, lsr #28
    5324:	25560100 	ldrbcs	r0, [r6, #-256]	; 0x100
    5328:	b8000000 	stmdalt	r0, {}	; <UNPREDICTABLE>
    532c:	3400009c 	strcc	r0, [r0], #-156	; 0x9c
    5330:	01000000 	mrseq	r0, (UNDEF: 0)
    5334:	0009989c 	muleq	r9, ip, r8
    5338:	69702400 	ldmdbvs	r0!, {sl, sp}^
    533c:	5601006e 	strpl	r0, [r1], -lr, rrx
    5340:	0000002c 	andeq	r0, r0, ip, lsr #32
    5344:	00001168 	andeq	r1, r0, r8, ror #2
    5348:	000f1225 	andeq	r1, pc, r5, lsr #4
    534c:	2c590100 	ldfcse	f0, [r9], {-0}
    5350:	a2000000 	andge	r0, r0, #0
    5354:	26000011 			; <UNDEFINED> instruction: 0x26000011
    5358:	0066666f 	rsbeq	r6, r6, pc, ror #12
    535c:	002c5a01 	eoreq	r5, ip, r1, lsl #20
    5360:	11e00000 	mvnne	r0, r0
    5364:	d4270000 	strtle	r0, [r7], #-0
    5368:	5d00009c 	stcpl	0, cr0, [r0, #-624]	; 0xfffffd90
    536c:	2800000b 	stmdacs	r0, {r0, r1, r3}
    5370:	f30b5001 	vhadd.u8	d5, d11, d1
    5374:	25355001 	ldrcs	r5, [r5, #-1]!
    5378:	8080b423 	addhi	fp, r0, r3, lsr #8
    537c:	00000281 	andeq	r0, r0, r1, lsl #5
    5380:	000f3829 	andeq	r3, pc, r9, lsr #16
    5384:	9c4f0100 	stflse	f0, [pc], {-0}
    5388:	1c00009c 	stcne	0, cr0, [r0], {156}	; 0x9c
    538c:	01000000 	mrseq	r0, (UNDEF: 0)
    5390:	0009e89c 	muleq	r9, ip, r8
    5394:	69702400 	ldmdbvs	r0!, {sl, sp}^
    5398:	4f01006e 	svcmi	0x0001006e
    539c:	0000002c 	andeq	r0, r0, ip, lsr #32
    53a0:	000011f3 	strdeq	r1, [r0], -r3
    53a4:	01007624 	tsteq	r0, r4, lsr #12
    53a8:	00002c4f 	andeq	r2, r0, pc, asr #24
    53ac:	00122d00 	andseq	r2, r2, r0, lsl #26
    53b0:	9cac2a00 	vstmials	ip!, {s4-s3}
    53b4:	0a230000 	beq	8c53bc <__bss_end__+0x8ba9f4>
    53b8:	09de0000 	ldmibeq	lr, {}^	; <UNPREDICTABLE>
    53bc:	01280000 	teqeq	r8, r0
    53c0:	01f30350 	mvnseq	r0, r0, asr r3
    53c4:	b42b0050 	strtlt	r0, [fp], #-80	; 0x50
    53c8:	6400009c 	strvs	r0, [r0], #-156	; 0x9c
    53cc:	0000000a 	andeq	r0, r0, sl
    53d0:	000f5729 	andeq	r5, pc, r9, lsr #14
    53d4:	8c4a0100 	stfhie	f0, [sl], {-0}
    53d8:	1000009c 	mulne	r0, ip, r0
    53dc:	01000000 	mrseq	r0, (UNDEF: 0)
    53e0:	000a239c 	muleq	sl, ip, r3
    53e4:	69702400 	ldmdbvs	r0!, {sl, sp}^
    53e8:	4a01006e 	bmi	455a8 <__bss_end__+0x3abe0>
    53ec:	0000002c 	andeq	r0, r0, ip, lsr #32
    53f0:	00001267 	andeq	r1, r0, r7, ror #4
    53f4:	009c9827 	addseq	r9, ip, r7, lsr #16
    53f8:	000ae000 	andeq	lr, sl, r0
    53fc:	50012800 	andpl	r2, r1, r0, lsl #16
    5400:	5001f303 	andpl	pc, r1, r3, lsl #6
    5404:	01510128 	cmpeq	r1, r8, lsr #2
    5408:	29000030 	stmdbcs	r0, {r4, r5}
    540c:	00000f05 	andeq	r0, r0, r5, lsl #30
    5410:	9c684301 	stclls	3, cr4, [r8], #-4
    5414:	00240000 	eoreq	r0, r4, r0
    5418:	9c010000 	stcls	0, cr0, [r1], {-0}
    541c:	00000a64 	andeq	r0, r0, r4, ror #20
    5420:	6e697024 	cdpvs	0, 6, cr7, cr9, cr4, {1}
    5424:	2c430100 	stfcse	f0, [r3], {-0}
    5428:	88000000 	stmdahi	r0, {}	; <UNPREDICTABLE>
    542c:	27000012 	smladcs	r0, r2, r0, r0
    5430:	00009c84 	andeq	r9, r0, r4, lsl #25
    5434:	00000b68 	andeq	r0, r0, r8, ror #22
    5438:	05500128 	ldrbeq	r0, [r0, #-296]	; 0x128
    543c:	2000280c 	andcs	r2, r0, ip, lsl #16
    5440:	51012820 	tstpl	r1, r0, lsr #16
    5444:	01f33105 	mvnseq	r3, r5, lsl #2
    5448:	00002450 	andeq	r2, r0, r0, asr r4
    544c:	000f6629 	andeq	r6, pc, r9, lsr #12
    5450:	443c0100 	ldrtmi	r0, [ip], #-256	; 0x100
    5454:	2400009c 	strcs	r0, [r0], #-156	; 0x9c
    5458:	01000000 	mrseq	r0, (UNDEF: 0)
    545c:	000aa59c 	muleq	sl, ip, r5
    5460:	69702400 	ldmdbvs	r0!, {sl, sp}^
    5464:	3c01006e 	stccc	0, cr0, [r1], {110}	; 0x6e
    5468:	0000002c 	andeq	r0, r0, ip, lsr #32
    546c:	000012a9 	andeq	r1, r0, r9, lsr #5
    5470:	009c6027 	addseq	r6, ip, r7, lsr #32
    5474:	000b6800 	andeq	r6, fp, r0, lsl #16
    5478:	50012800 	andpl	r2, r1, r0, lsl #16
    547c:	001c0c05 	andseq	r0, ip, r5, lsl #24
    5480:	01282020 	teqeq	r8, r0, lsr #32
    5484:	f3310551 	vqrshl.u64	q0, <illegal reg q0.5>, <illegal reg q0.5>
    5488:	00245001 	eoreq	r5, r4, r1
    548c:	0f282900 	svceq	0x00282900
    5490:	37010000 	strcc	r0, [r1, -r0]
    5494:	00009c34 	andeq	r9, r0, r4, lsr ip
    5498:	00000010 	andeq	r0, r0, r0, lsl r0
    549c:	0ae09c01 	beq	ff82c4a8 <__bss_end__+0xff821ae0>
    54a0:	70240000 	eorvc	r0, r4, r0
    54a4:	01006e69 	tsteq	r0, r9, ror #28
    54a8:	00002c37 	andeq	r2, r0, r7, lsr ip
    54ac:	0012ca00 	andseq	ip, r2, r0, lsl #20
    54b0:	9c402700 	mcrrls	7, 0, r2, r0, cr0
    54b4:	0ae00000 	beq	ff8054bc <__bss_end__+0xff7faaf4>
    54b8:	01280000 	teqeq	r8, r0
    54bc:	01f30350 	mvnseq	r0, r0, asr r3
    54c0:	51012850 	tstpl	r1, r0, asr r8
    54c4:	00003101 	andeq	r3, r0, r1, lsl #2
    54c8:	000c1129 	andeq	r1, ip, r9, lsr #2
    54cc:	cc280100 	stfgts	f0, [r8], #-0
    54d0:	6800009b 	stmdavs	r0, {r0, r1, r3, r4, r7}
    54d4:	01000000 	mrseq	r0, (UNDEF: 0)
    54d8:	000b5d9c 	muleq	fp, ip, sp
    54dc:	69702400 	ldmdbvs	r0!, {sl, sp}^
    54e0:	2801006e 	stmdacs	r1, {r1, r2, r3, r5, r6}
    54e4:	0000002c 	andeq	r0, r0, ip, lsr #32
    54e8:	000012eb 	andeq	r1, r0, fp, ror #5
    54ec:	000e5d2c 	andeq	r5, lr, ip, lsr #26
    54f0:	00280100 	eoreq	r0, r8, r0, lsl #2
    54f4:	0c000009 	stceq	0, cr0, [r0], {9}
    54f8:	2d000013 	stccs	0, cr0, [r0, #-76]	; 0xffffffb4
    54fc:	0066666f 	rsbeq	r6, r6, pc, ror #12
    5500:	002c2d01 	eoreq	r2, ip, r1, lsl #26
    5504:	54010000 	strpl	r0, [r1], #-0
    5508:	0100672d 	tsteq	r0, sp, lsr #14
    550c:	00002c2f 	andeq	r2, r0, pc, lsr #24
    5510:	26560100 	ldrbcs	r0, [r6], -r0, lsl #2
    5514:	31010076 	tstcc	r1, r6, ror r0
    5518:	0000002c 	andeq	r0, r0, ip, lsr #32
    551c:	0000132d 	andeq	r1, r0, sp, lsr #6
    5520:	009c182a 	addseq	r1, ip, sl, lsr #16
    5524:	000b5d00 	andeq	r5, fp, r0, lsl #26
    5528:	000b4c00 	andeq	r4, fp, r0, lsl #24
    552c:	50012800 	andpl	r2, r1, r0, lsl #16
    5530:	00007602 	andeq	r7, r0, r2, lsl #12
    5534:	009c2c27 	addseq	r2, ip, r7, lsr #24
    5538:	000b6800 	andeq	r6, fp, r0, lsl #16
    553c:	50012800 	andpl	r2, r1, r0, lsl #16
    5540:	00007602 	andeq	r7, r0, r2, lsl #12
    5544:	097a2e00 	ldmdbeq	sl!, {r9, sl, fp, sp}^
    5548:	097a0000 	ldmdbeq	sl!, {}^	; <UNPREDICTABLE>
    554c:	a7060000 	strge	r0, [r6, -r0]
    5550:	0008b42e 	andeq	fp, r8, lr, lsr #8
    5554:	0008b400 	andeq	fp, r8, r0, lsl #8
    5558:	009b0600 	addseq	r0, fp, r0, lsl #12

Disassembly of section .debug_abbrev:

00000000 <.debug_abbrev>:
       0:	25011101 	strcs	r1, [r1, #-257]	; 0x101
       4:	030b130e 	movweq	r1, #45838	; 0xb30e
       8:	110e1b0e 	tstne	lr, lr, lsl #22
       c:	10061201 	andne	r1, r6, r1, lsl #4
      10:	02000017 	andeq	r0, r0, #23
      14:	0b0b0024 	bleq	2c00ac <__bss_end__+0x2b56e4>
      18:	08030b3e 	stmdaeq	r3, {r1, r2, r3, r4, r5, r8, r9, fp}
      1c:	24030000 	strcs	r0, [r3], #-0
      20:	3e0b0b00 	vmlacc.f64	d0, d11, d0
      24:	000e030b 	andeq	r0, lr, fp, lsl #6
      28:	00160400 	andseq	r0, r6, r0, lsl #8
      2c:	0b3a0e03 	bleq	e83840 <__bss_end__+0xe78e78>
      30:	13490b3b 	movtne	r0, #39739	; 0x9b3b
      34:	0f050000 	svceq	0x00050000
      38:	000b0b00 	andeq	r0, fp, r0, lsl #22
      3c:	000f0600 	andeq	r0, pc, r0, lsl #12
      40:	13490b0b 	movtne	r0, #39691	; 0x9b0b
      44:	26070000 	strcs	r0, [r7], -r0
      48:	00134900 	andseq	r4, r3, r0, lsl #18
      4c:	01010800 	tsteq	r1, r0, lsl #16
      50:	13011349 	movwne	r1, #4937	; 0x1349
      54:	21090000 	mrscs	r0, (UNDEF: 9)
      58:	2f134900 	svccs	0x00134900
      5c:	0a00000b 	beq	90 <__code_start__-0x7f70>
      60:	19270115 	stmdbne	r7!, {r0, r2, r4, r8}
      64:	00001301 	andeq	r1, r0, r1, lsl #6
      68:	4900050b 	stmdbmi	r0, {r0, r1, r3, r8, sl}
      6c:	0c000013 	stceq	0, cr0, [r0], {19}
      70:	0e03012e 	adfeqsp	f0, f3, #0.5
      74:	0b3b0b3a 	bleq	ec2d64 <__bss_end__+0xeb839c>
      78:	13491927 	movtne	r1, #39207	; 0x9927
      7c:	13010b20 	movwne	r0, #6944	; 0x1b20
      80:	340d0000 	strcc	r0, [sp], #-0
      84:	3a080300 	bcc	200c8c <__bss_end__+0x1f62c4>
      88:	490b3b0b 	stmdbmi	fp, {r0, r1, r3, r8, r9, fp, ip, sp}
      8c:	0e000013 	mcreq	0, 0, r0, cr0, cr3, {0}
      90:	0e030005 	cdpeq	0, 0, cr0, cr3, cr5, {0}
      94:	0b3b0b3a 	bleq	ec2d84 <__bss_end__+0xeb83bc>
      98:	00001349 	andeq	r1, r0, r9, asr #6
      9c:	03012e0f 	movweq	r2, #7695	; 0x1e0f
      a0:	3b0b3a0e 	blcc	2ce8e0 <__bss_end__+0x2c3f18>
      a4:	2019270b 	andscs	r2, r9, fp, lsl #14
      a8:	0013010b 	andseq	r0, r3, fp, lsl #2
      ac:	00341000 	eorseq	r1, r4, r0
      b0:	0b3a0e03 	bleq	e838c4 <__bss_end__+0xe78efc>
      b4:	13490b3b 	movtne	r0, #39739	; 0x9b3b
      b8:	34110000 	ldrcc	r0, [r1], #-0
      bc:	490e0300 	stmdbmi	lr, {r8, r9}
      c0:	1c193413 	cfldrsne	mvf3, [r9], {19}
      c4:	1200000e 	andne	r0, r0, #14
      c8:	08030005 	stmdaeq	r3, {r0, r2}
      cc:	0b3b0b3a 	bleq	ec2dbc <__bss_end__+0xeb83f4>
      d0:	00001349 	andeq	r1, r0, r9, asr #6
      d4:	03012e13 	movweq	r2, #7699	; 0x1e13
      d8:	3b0b3a0e 	blcc	2ce918 <__bss_end__+0x2c3f50>
      dc:	4919270b 	ldmdbmi	r9, {r0, r1, r3, r8, r9, sl, sp}
      e0:	12011113 	andne	r1, r1, #-1073741820	; 0xc0000004
      e4:	97184006 	ldrls	r4, [r8, -r6]
      e8:	13011942 	movwne	r1, #6466	; 0x1942
      ec:	05140000 	ldreq	r0, [r4, #-0]
      f0:	3a0e0300 	bcc	380cf8 <__bss_end__+0x376330>
      f4:	490b3b0b 	stmdbmi	fp, {r0, r1, r3, r8, r9, fp, ip, sp}
      f8:	00170213 	andseq	r0, r7, r3, lsl r2
      fc:	00341500 	eorseq	r1, r4, r0, lsl #10
     100:	13490e03 	movtne	r0, #40451	; 0x9e03
     104:	18021934 	stmdane	r2, {r2, r4, r5, r8, fp, ip}
     108:	1d160000 	ldcne	0, cr0, [r6, #-0]
     10c:	11133101 	tstne	r3, r1, lsl #2
     110:	58061201 	stmdapl	r6, {r0, r9, ip}
     114:	010b590b 	tsteq	fp, fp, lsl #18
     118:	17000013 	smladne	r0, r3, r0, r0
     11c:	13310005 	teqne	r1, #5
     120:	00001702 	andeq	r1, r0, r2, lsl #14
     124:	11010b18 	tstne	r1, r8, lsl fp
     128:	00061201 	andeq	r1, r6, r1, lsl #4
     12c:	00341900 	eorseq	r1, r4, r0, lsl #18
     130:	00001331 	andeq	r1, r0, r1, lsr r3
     134:	3100341a 	tstcc	r0, sl, lsl r4
     138:	00180213 	andseq	r0, r8, r3, lsl r2
     13c:	00051b00 	andeq	r1, r5, r0, lsl #22
     140:	0b1c1331 	bleq	704e0c <__bss_end__+0x6fa444>
     144:	341c0000 	ldrcc	r0, [ip], #-0
     148:	1c133100 	ldfnes	f3, [r3], {-0}
     14c:	1d00000b 	stcne	0, cr0, [r0, #-44]	; 0xffffffd4
     150:	13310005 	teqne	r1, #5
     154:	891e0000 	ldmdbhi	lr, {}	; <UNPREDICTABLE>
     158:	11000182 	smlabbne	r0, r2, r1, r0
     15c:	00133101 	andseq	r3, r3, r1, lsl #2
     160:	82891f00 	addhi	r1, r9, #0, 30
     164:	01110101 	tsteq	r1, r1, lsl #2
     168:	13011331 	movwne	r1, #4913	; 0x1331
     16c:	8a200000 	bhi	800174 <__bss_end__+0x7f57ac>
     170:	02000182 	andeq	r0, r0, #-2147483616	; 0x80000020
     174:	18429118 	stmdane	r2, {r3, r4, r8, ip, pc}^
     178:	2e210000 	cdpcs	0, 2, cr0, cr1, cr0, {0}
     17c:	03193f01 	tsteq	r9, #1, 30
     180:	3b0b3a0e 	blcc	2ce9c0 <__bss_end__+0x2c3ff8>
     184:	1119270b 	tstne	r9, fp, lsl #14
     188:	40061201 	andmi	r1, r6, r1, lsl #4
     18c:	19429718 	stmdbne	r2, {r3, r4, r8, r9, sl, ip, pc}^
     190:	00001301 	andeq	r1, r0, r1, lsl #6
     194:	55010b22 	strpl	r0, [r1, #-2850]	; 0xb22
     198:	00130117 	andseq	r0, r3, r7, lsl r1
     19c:	00342300 	eorseq	r2, r4, r0, lsl #6
     1a0:	0b3a0803 	bleq	e821b4 <__bss_end__+0xe777ec>
     1a4:	13490b3b 	movtne	r0, #39739	; 0x9b3b
     1a8:	00001702 	andeq	r1, r0, r2, lsl #14
     1ac:	03012e24 	movweq	r2, #7716	; 0x1e24
     1b0:	3b0b3a0e 	blcc	2ce9f0 <__bss_end__+0x2c4028>
     1b4:	1119270b 	tstne	r9, fp, lsl #14
     1b8:	40061201 	andmi	r1, r6, r1, lsl #4
     1bc:	19429718 	stmdbne	r2, {r3, r4, r8, r9, sl, ip, pc}^
     1c0:	00001301 	andeq	r1, r0, r1, lsl #6
     1c4:	03000525 	movweq	r0, #1317	; 0x525
     1c8:	3b0b3a08 	blcc	2ce9f0 <__bss_end__+0x2c4028>
     1cc:	0213490b 	andseq	r4, r3, #180224	; 0x2c000
     1d0:	26000017 			; <UNDEFINED> instruction: 0x26000017
     1d4:	1331011d 	teqne	r1, #1073741831	; 0x40000007
     1d8:	06120111 			; <UNDEFINED> instruction: 0x06120111
     1dc:	0b590b58 	bleq	1642f44 <__bss_end__+0x163857c>
     1e0:	34270000 	strtcc	r0, [r7], #-0
     1e4:	02133100 	andseq	r3, r3, #0, 2
     1e8:	28000017 	stmdacs	r0, {r0, r1, r2, r4}
     1ec:	01018289 	smlabbeq	r1, r9, r2, r8
     1f0:	13310111 	teqne	r1, #1073741828	; 0x40000004
     1f4:	34290000 	strtcc	r0, [r9], #-0
     1f8:	3a0e0300 	bcc	380e00 <__bss_end__+0x376438>
     1fc:	490b3b0b 	stmdbmi	fp, {r0, r1, r3, r8, r9, fp, ip, sp}
     200:	00180213 	andseq	r0, r8, r3, lsl r2
     204:	00352a00 	eorseq	r2, r5, r0, lsl #20
     208:	00001349 	andeq	r1, r0, r9, asr #6
     20c:	0300342b 	movweq	r3, #1067	; 0x42b
     210:	3b0b3a08 	blcc	2cea38 <__bss_end__+0x2c4070>
     214:	0213490b 	andseq	r4, r3, #180224	; 0x2c000
     218:	2c000018 	stccs	0, cr0, [r0], {24}
     21c:	0e030034 	mcreq	0, 0, r0, cr3, cr4, {1}
     220:	0b3b0b3a 	bleq	ec2f10 <__bss_end__+0xeb8548>
     224:	193f1349 	ldmdbne	pc!, {r0, r3, r6, r8, r9, ip}	; <UNPREDICTABLE>
     228:	0000193c 	andeq	r1, r0, ip, lsr r9
     22c:	3f002e2d 	svccc	0x00002e2d
     230:	3a0e0319 	bcc	380e9c <__bss_end__+0x3764d4>
     234:	270b3b0b 	strcs	r3, [fp, -fp, lsl #22]
     238:	00193c19 	andseq	r3, r9, r9, lsl ip
     23c:	012e2e00 	teqeq	lr, r0, lsl #28
     240:	0e03193f 	mcreq	9, 0, r1, cr3, cr15, {1}
     244:	0b3b0b3a 	bleq	ec2f34 <__bss_end__+0xeb856c>
     248:	13491927 	movtne	r1, #39207	; 0x9927
     24c:	1301193c 	movwne	r1, #6460	; 0x193c
     250:	182f0000 	stmdane	pc!, {}	; <UNPREDICTABLE>
     254:	30000000 	andcc	r0, r0, r0
     258:	193f012e 	ldmdbne	pc!, {r1, r2, r3, r5, r8}	; <UNPREDICTABLE>
     25c:	0b3a0e03 	bleq	e83a70 <__bss_end__+0xe790a8>
     260:	19270b3b 	stmdbne	r7!, {r0, r1, r3, r4, r5, r8, r9, fp}
     264:	1301193c 	movwne	r1, #6460	; 0x193c
     268:	15310000 	ldrne	r0, [r1, #-0]!
     26c:	00192701 	andseq	r2, r9, r1, lsl #14
     270:	11010000 	mrsne	r0, (UNDEF: 1)
     274:	130e2501 	movwne	r2, #58625	; 0xe501
     278:	1b0e030b 	blne	380eac <__bss_end__+0x3764e4>
     27c:	1201110e 	andne	r1, r1, #-2147483645	; 0x80000003
     280:	00171006 	andseq	r1, r7, r6
     284:	00240200 	eoreq	r0, r4, r0, lsl #4
     288:	0b3e0b0b 	bleq	f82ebc <__bss_end__+0xf784f4>
     28c:	00000803 	andeq	r0, r0, r3, lsl #16
     290:	0b002403 	bleq	92a4 <emit+0x7c>
     294:	030b3e0b 	movweq	r3, #48651	; 0xbe0b
     298:	0400000e 	streq	r0, [r0], #-14
     29c:	0e030016 	mcreq	0, 0, r0, cr3, cr6, {0}
     2a0:	0b3b0b3a 	bleq	ec2f90 <__bss_end__+0xeb85c8>
     2a4:	00001349 	andeq	r1, r0, r9, asr #6
     2a8:	0b000f05 	bleq	3ec4 <__code_start__-0x413c>
     2ac:	0600000b 	streq	r0, [r0], -fp
     2b0:	0b0b000f 	bleq	2c02f4 <__bss_end__+0x2b592c>
     2b4:	00001349 	andeq	r1, r0, r9, asr #6
     2b8:	49002607 	stmdbmi	r0, {r0, r1, r2, r9, sl, sp}
     2bc:	08000013 	stmdaeq	r0, {r0, r1, r4}
     2c0:	19270115 	stmdbne	r7!, {r0, r2, r4, r8}
     2c4:	00001301 	andeq	r1, r0, r1, lsl #6
     2c8:	49000509 	stmdbmi	r0, {r0, r3, r8, sl}
     2cc:	0a000013 	beq	320 <__code_start__-0x7ce0>
     2d0:	0e03012e 	adfeqsp	f0, f3, #0.5
     2d4:	0b3b0b3a 	bleq	ec2fc4 <__bss_end__+0xeb85fc>
     2d8:	13491927 	movtne	r1, #39207	; 0x9927
     2dc:	13010b20 	movwne	r0, #6944	; 0x1b20
     2e0:	340b0000 	strcc	r0, [fp], #-0
     2e4:	3a080300 	bcc	200eec <__bss_end__+0x1f6524>
     2e8:	490b3b0b 	stmdbmi	fp, {r0, r1, r3, r8, r9, fp, ip, sp}
     2ec:	0c000013 	stceq	0, cr0, [r0], {19}
     2f0:	08030005 	stmdaeq	r3, {r0, r2}
     2f4:	0b3b0b3a 	bleq	ec2fe4 <__bss_end__+0xeb861c>
     2f8:	00001349 	andeq	r1, r0, r9, asr #6
     2fc:	03012e0d 	movweq	r2, #7693	; 0x1e0d
     300:	3b0b3a0e 	blcc	2ceb40 <__bss_end__+0x2c4178>
     304:	2019270b 	andscs	r2, r9, fp, lsl #14
     308:	0013010b 	andseq	r0, r3, fp, lsl #2
     30c:	00340e00 	eorseq	r0, r4, r0, lsl #28
     310:	0b3a0e03 	bleq	e83b24 <__bss_end__+0xe7915c>
     314:	13490b3b 	movtne	r0, #39739	; 0x9b3b
     318:	2e0f0000 	cdpcs	0, 0, cr0, cr15, cr0, {0}
     31c:	03193f01 	tsteq	r9, #1, 30
     320:	3b0b3a0e 	blcc	2ceb60 <__bss_end__+0x2c4198>
     324:	1119270b 	tstne	r9, fp, lsl #14
     328:	40061201 	andmi	r1, r6, r1, lsl #4
     32c:	19429718 	stmdbne	r2, {r3, r4, r8, r9, sl, ip, pc}^
     330:	00001301 	andeq	r1, r0, r1, lsl #6
     334:	03000510 	movweq	r0, #1296	; 0x510
     338:	3b0b3a0e 	blcc	2ceb78 <__bss_end__+0x2c41b0>
     33c:	0213490b 	andseq	r4, r3, #180224	; 0x2c000
     340:	11000017 	tstne	r0, r7, lsl r0
     344:	0e030034 	mcreq	0, 0, r0, cr3, cr4, {1}
     348:	0b3b0b3a 	bleq	ec3038 <__bss_end__+0xeb8670>
     34c:	17021349 	strne	r1, [r2, -r9, asr #6]
     350:	34120000 	ldrcc	r0, [r2], #-0
     354:	490e0300 	stmdbmi	lr, {r8, r9}
     358:	02193413 	andseq	r3, r9, #318767104	; 0x13000000
     35c:	13000018 	movwne	r0, #24
     360:	1331011d 	teqne	r1, #1073741831	; 0x40000007
     364:	06120111 			; <UNDEFINED> instruction: 0x06120111
     368:	0b590b58 	bleq	16430d0 <__bss_end__+0x1638708>
     36c:	00001301 	andeq	r1, r0, r1, lsl #6
     370:	11010b14 	tstne	r1, r4, lsl fp
     374:	00061201 	andeq	r1, r6, r1, lsl #4
     378:	00341500 	eorseq	r1, r4, r0, lsl #10
     37c:	17021331 	smladxne	r2, r1, r3, r1
     380:	05160000 	ldreq	r0, [r6, #-0]
     384:	02133100 	andseq	r3, r3, #0, 2
     388:	17000017 	smladne	r0, r7, r0, r0
     38c:	13310005 	teqne	r1, #5
     390:	0000051c 	andeq	r0, r0, ip, lsl r5
     394:	31000518 	tstcc	r0, r8, lsl r5
     398:	000b1c13 	andeq	r1, fp, r3, lsl ip
     39c:	82891900 	addhi	r1, r9, #0, 18
     3a0:	01110001 	tsteq	r1, r1
     3a4:	00001331 	andeq	r1, r0, r1, lsr r3
     3a8:	0182891a 	orreq	r8, r2, sl, lsl r9
     3ac:	31011101 	tstcc	r1, r1, lsl #2
     3b0:	00130113 	andseq	r0, r3, r3, lsl r1
     3b4:	828a1b00 	addhi	r1, sl, #0, 22
     3b8:	18020001 	stmdane	r2, {r0}
     3bc:	00184291 	mulseq	r8, r1, r2
     3c0:	01011c00 	tsteq	r1, r0, lsl #24
     3c4:	13011349 	movwne	r1, #4937	; 0x1349
     3c8:	211d0000 	tstcs	sp, r0
     3cc:	2f134900 	svccs	0x00134900
     3d0:	1e00000b 	cdpne	0, 0, cr0, cr0, cr11, {0}
     3d4:	0e030034 	mcreq	0, 0, r0, cr3, cr4, {1}
     3d8:	19341349 	ldmdbne	r4!, {r0, r3, r6, r8, r9, ip}
     3dc:	00000e1c 	andeq	r0, r0, ip, lsl lr
     3e0:	0300051f 	movweq	r0, #1311	; 0x51f
     3e4:	3b0b3a08 	blcc	2cec0c <__bss_end__+0x2c4244>
     3e8:	0213490b 	andseq	r4, r3, #180224	; 0x2c000
     3ec:	20000017 	andcs	r0, r0, r7, lsl r0
     3f0:	0e030034 	mcreq	0, 0, r0, cr3, cr4, {1}
     3f4:	0b3b0b3a 	bleq	ec30e4 <__bss_end__+0xeb871c>
     3f8:	18021349 	stmdane	r2, {r0, r3, r6, r8, r9, ip}
     3fc:	34210000 	strtcc	r0, [r1], #-0
     400:	00133100 	andseq	r3, r3, r0, lsl #2
     404:	011d2200 	tsteq	sp, r0, lsl #4
     408:	01111331 	tsteq	r1, r1, lsr r3
     40c:	0b580612 	bleq	1601c5c <__bss_end__+0x15f7294>
     410:	00000b59 	andeq	r0, r0, r9, asr fp
     414:	31003423 	tstcc	r0, r3, lsr #8
     418:	00180213 	andseq	r0, r8, r3, lsl r2
     41c:	82892400 	addhi	r2, r9, #0, 8
     420:	01110101 	tsteq	r1, r1, lsl #2
     424:	34250000 	strtcc	r0, [r5], #-0
     428:	3a080300 	bcc	201030 <__bss_end__+0x1f6668>
     42c:	490b3b0b 	stmdbmi	fp, {r0, r1, r3, r8, r9, fp, ip, sp}
     430:	00051c13 	andeq	r1, r5, r3, lsl ip
     434:	00052600 	andeq	r2, r5, r0, lsl #12
     438:	0b3a0e03 	bleq	e83c4c <__bss_end__+0xe79284>
     43c:	13490b3b 	movtne	r0, #39739	; 0x9b3b
     440:	00001802 	andeq	r1, r0, r2, lsl #16
     444:	31000527 	tstcc	r0, r7, lsr #10
     448:	00180213 	andseq	r0, r8, r3, lsl r2
     44c:	00052800 	andeq	r2, r5, r0, lsl #16
     450:	0b3a0803 	bleq	e82464 <__bss_end__+0xe77a9c>
     454:	13490b3b 	movtne	r0, #39739	; 0x9b3b
     458:	00001802 	andeq	r1, r0, r2, lsl #16
     45c:	31000529 	tstcc	r0, r9, lsr #10
     460:	00061c13 	andeq	r1, r6, r3, lsl ip
     464:	00342a00 	eorseq	r2, r4, r0, lsl #20
     468:	0b3a0e03 	bleq	e83c7c <__bss_end__+0xe792b4>
     46c:	13490b3b 	movtne	r0, #39739	; 0x9b3b
     470:	0000061c 	andeq	r0, r0, ip, lsl r6
     474:	31011d2b 	tstcc	r1, fp, lsr #26
     478:	12011113 	andne	r1, r1, #-1073741820	; 0xc0000004
     47c:	590b5806 	stmdbpl	fp, {r1, r2, fp, ip, lr}
     480:	2c000005 	stccs	0, cr0, [r0], {5}
     484:	193f012e 	ldmdbne	pc!, {r1, r2, r3, r5, r8}	; <UNPREDICTABLE>
     488:	0b3a0e03 	bleq	e83c9c <__bss_end__+0xe792d4>
     48c:	1927053b 	stmdbne	r7!, {r0, r1, r3, r4, r5, r8, sl}
     490:	01111349 	tsteq	r1, r9, asr #6
     494:	18400612 	stmdane	r0, {r1, r4, r9, sl}^
     498:	01194297 			; <UNDEFINED> instruction: 0x01194297
     49c:	2d000013 	stccs	0, cr0, [r0, #-76]	; 0xffffffb4
     4a0:	08030005 	stmdaeq	r3, {r0, r2}
     4a4:	053b0b3a 	ldreq	r0, [fp, #-2874]!	; 0xb3a
     4a8:	17021349 	strne	r1, [r2, -r9, asr #6]
     4ac:	342e0000 	strtcc	r0, [lr], #-0
     4b0:	3a0e0300 	bcc	3810b8 <__bss_end__+0x3766f0>
     4b4:	49053b0b 	stmdbmi	r5, {r0, r1, r3, r8, r9, fp, ip, sp}
     4b8:	00170213 	andseq	r0, r7, r3, lsl r2
     4bc:	82892f00 	addhi	r2, r9, #0, 30
     4c0:	01110101 	tsteq	r1, r1, lsl #2
     4c4:	00001331 	andeq	r1, r0, r1, lsr r3
     4c8:	03003430 	movweq	r3, #1072	; 0x430
     4cc:	3b0b3a0e 	blcc	2ced0c <__bss_end__+0x2c4344>
     4d0:	3f13490b 	svccc	0x0013490b
     4d4:	00180219 	andseq	r0, r8, r9, lsl r2
     4d8:	002e3100 	eoreq	r3, lr, r0, lsl #2
     4dc:	0e03193f 	mcreq	9, 0, r1, cr3, cr15, {1}
     4e0:	0b3b0b3a 	bleq	ec31d0 <__bss_end__+0xeb8808>
     4e4:	193c1927 	ldmdbne	ip!, {r0, r1, r2, r5, r8, fp, ip}
     4e8:	2e320000 	cdpcs	0, 3, cr0, cr2, cr0, {0}
     4ec:	03193f01 	tsteq	r9, #1, 30
     4f0:	3b0b3a0e 	blcc	2ced30 <__bss_end__+0x2c4368>
     4f4:	4919270b 	ldmdbmi	r9, {r0, r1, r3, r8, r9, sl, sp}
     4f8:	01193c13 	tsteq	r9, r3, lsl ip
     4fc:	33000013 	movwcc	r0, #19
     500:	00000018 	andeq	r0, r0, r8, lsl r0
     504:	01110100 	tsteq	r1, r0, lsl #2
     508:	0b130e25 	bleq	4c3da4 <__bss_end__+0x4b93dc>
     50c:	0e1b0e03 	cdpeq	14, 1, cr0, cr11, cr3, {0}
     510:	06120111 			; <UNDEFINED> instruction: 0x06120111
     514:	00001710 	andeq	r1, r0, r0, lsl r7
     518:	0b002402 	bleq	9528 <va_printk+0xdc>
     51c:	030b3e0b 	movweq	r3, #48651	; 0xbe0b
     520:	03000008 	movweq	r0, #8
     524:	0b0b0024 	bleq	2c05bc <__bss_end__+0x2b5bf4>
     528:	0e030b3e 	vmoveq.16	d3[0], r0
     52c:	16040000 	strne	r0, [r4], -r0
     530:	3a0e0300 	bcc	381138 <__bss_end__+0x376770>
     534:	490b3b0b 	stmdbmi	fp, {r0, r1, r3, r8, r9, fp, ip, sp}
     538:	05000013 	streq	r0, [r0, #-19]
     53c:	0b0b000f 	bleq	2c0580 <__bss_end__+0x2b5bb8>
     540:	0f060000 	svceq	0x00060000
     544:	490b0b00 	stmdbmi	fp, {r8, r9, fp}
     548:	07000013 	smladeq	r0, r3, r0, r0
     54c:	13490026 	movtne	r0, #36902	; 0x9026
     550:	15080000 	strne	r0, [r8, #-0]
     554:	01192701 	tsteq	r9, r1, lsl #14
     558:	09000013 	stmdbeq	r0, {r0, r1, r4}
     55c:	13490005 	movtne	r0, #36869	; 0x9005
     560:	130a0000 	movwne	r0, #40960	; 0xa000
     564:	0b0e0301 	bleq	381170 <__bss_end__+0x3767a8>
     568:	3b0b3a0b 	blcc	2ced9c <__bss_end__+0x2c43d4>
     56c:	0013010b 	andseq	r0, r3, fp, lsl #2
     570:	000d0b00 	andeq	r0, sp, r0, lsl #22
     574:	0b3a0e03 	bleq	e83d88 <__bss_end__+0xe793c0>
     578:	13490b3b 	movtne	r0, #39739	; 0x9b3b
     57c:	00000b38 	andeq	r0, r0, r8, lsr fp
     580:	03000d0c 	movweq	r0, #3340	; 0xd0c
     584:	3b0b3a08 	blcc	2cedac <__bss_end__+0x2c43e4>
     588:	3813490b 	ldmdacc	r3, {r0, r1, r3, r8, fp, lr}
     58c:	0d00000b 	stceq	0, cr0, [r0, #-44]	; 0xffffffd4
     590:	00000035 	andeq	r0, r0, r5, lsr r0
     594:	2701150e 	strcs	r1, [r1, -lr, lsl #10]
     598:	01134919 	tsteq	r3, r9, lsl r9
     59c:	0f000013 	svceq	0x00000013
     5a0:	13490035 	movtne	r0, #36917	; 0x9035
     5a4:	2e100000 	cdpcs	0, 1, cr0, cr0, cr0, {0}
     5a8:	3a0e0301 	bcc	3811b4 <__bss_end__+0x3767ec>
     5ac:	270b3b0b 	strcs	r3, [fp, -fp, lsl #22]
     5b0:	20134919 	andscs	r4, r3, r9, lsl r9
     5b4:	0013010b 	andseq	r0, r3, fp, lsl #2
     5b8:	00341100 	eorseq	r1, r4, r0, lsl #2
     5bc:	0b3a0803 	bleq	e825d0 <__bss_end__+0xe77c08>
     5c0:	13490b3b 	movtne	r0, #39739	; 0x9b3b
     5c4:	05120000 	ldreq	r0, [r2, #-0]
     5c8:	3a0e0300 	bcc	3811d0 <__bss_end__+0x376808>
     5cc:	490b3b0b 	stmdbmi	fp, {r0, r1, r3, r8, r9, fp, ip, sp}
     5d0:	13000013 	movwne	r0, #19
     5d4:	0e030034 	mcreq	0, 0, r0, cr3, cr4, {1}
     5d8:	0b3b0b3a 	bleq	ec32c8 <__bss_end__+0xeb8900>
     5dc:	00001349 	andeq	r1, r0, r9, asr #6
     5e0:	03012e14 	movweq	r2, #7700	; 0x1e14
     5e4:	3b0b3a0e 	blcc	2cee24 <__bss_end__+0x2c445c>
     5e8:	1119270b 	tstne	r9, fp, lsl #14
     5ec:	40061201 	andmi	r1, r6, r1, lsl #4
     5f0:	19429718 	stmdbne	r2, {r3, r4, r8, r9, sl, ip, pc}^
     5f4:	00001301 	andeq	r1, r0, r1, lsl #6
     5f8:	03000515 	movweq	r0, #1301	; 0x515
     5fc:	3b0b3a0e 	blcc	2cee3c <__bss_end__+0x2c4474>
     600:	0213490b 	andseq	r4, r3, #180224	; 0x2c000
     604:	16000017 			; <UNDEFINED> instruction: 0x16000017
     608:	08030005 	stmdaeq	r3, {r0, r2}
     60c:	0b3b0b3a 	bleq	ec32fc <__bss_end__+0xeb8934>
     610:	17021349 	strne	r1, [r2, -r9, asr #6]
     614:	34170000 	ldrcc	r0, [r7], #-0
     618:	490e0300 	stmdbmi	lr, {r8, r9}
     61c:	02193413 	andseq	r3, r9, #318767104	; 0x13000000
     620:	18000018 	stmdane	r0, {r3, r4}
     624:	08030034 	stmdaeq	r3, {r2, r4, r5}
     628:	0b3b0b3a 	bleq	ec3318 <__bss_end__+0xeb8950>
     62c:	17021349 	strne	r1, [r2, -r9, asr #6]
     630:	1d190000 	ldcne	0, cr0, [r9, #-0]
     634:	11133101 	tstne	r3, r1, lsl #2
     638:	58061201 	stmdapl	r6, {r0, r9, ip}
     63c:	010b590b 	tsteq	fp, fp, lsl #18
     640:	1a000013 	bne	694 <__code_start__-0x796c>
     644:	0111010b 	tsteq	r1, fp, lsl #2
     648:	00000612 	andeq	r0, r0, r2, lsl r6
     64c:	3100341b 	tstcc	r0, fp, lsl r4
     650:	1c000013 	stcne	0, cr0, [r0], {19}
     654:	1331011d 	teqne	r1, #1073741831	; 0x40000007
     658:	06120111 			; <UNDEFINED> instruction: 0x06120111
     65c:	0b590b58 	bleq	16433c4 <__bss_end__+0x16389fc>
     660:	341d0000 	ldrcc	r0, [sp], #-0
     664:	02133100 	andseq	r3, r3, #0, 2
     668:	1e000017 	mcrne	0, 0, r0, cr0, cr7, {0}
     66c:	01018289 	smlabbeq	r1, r9, r2, r8
     670:	13310111 	teqne	r1, #1073741828	; 0x40000004
     674:	00001301 	andeq	r1, r0, r1, lsl #6
     678:	01828a1f 	orreq	r8, r2, pc, lsl sl
     67c:	91180200 	tstls	r8, r0, lsl #4
     680:	00001842 	andeq	r1, r0, r2, asr #16
     684:	01828920 	orreq	r8, r2, r0, lsr #18
     688:	31011100 	mrscc	r1, (UNDEF: 17)
     68c:	21000013 	tstcs	r0, r3, lsl r0
     690:	01018289 	smlabbeq	r1, r9, r2, r8
     694:	13010111 	movwne	r0, #4369	; 0x1111
     698:	89220000 	stmdbhi	r2!, {}	; <UNPREDICTABLE>
     69c:	11010182 	smlabbne	r1, r2, r1, r0
     6a0:	00133101 	andseq	r3, r3, r1, lsl #2
     6a4:	01012300 	mrseq	r2, SP_irq
     6a8:	13011349 	movwne	r1, #4937	; 0x1349
     6ac:	21240000 	teqcs	r4, r0
     6b0:	2f134900 	svccs	0x00134900
     6b4:	2500000b 	strcs	r0, [r0, #-11]
     6b8:	0e030034 	mcreq	0, 0, r0, cr3, cr4, {1}
     6bc:	19341349 	ldmdbne	r4!, {r0, r3, r6, r8, r9, ip}
     6c0:	00000e1c 	andeq	r0, r0, ip, lsl lr
     6c4:	03000526 	movweq	r0, #1318	; 0x526
     6c8:	3b0b3a08 	blcc	2ceef0 <__bss_end__+0x2c4528>
     6cc:	0013490b 	andseq	r4, r3, fp, lsl #18
     6d0:	012e2700 	teqeq	lr, r0, lsl #14
     6d4:	0b3a0e03 	bleq	e83ee8 <__bss_end__+0xe79520>
     6d8:	19270b3b 	stmdbne	r7!, {r0, r1, r3, r4, r5, r8, r9, fp}
     6dc:	01111349 	tsteq	r1, r9, asr #6
     6e0:	18400612 	stmdane	r0, {r1, r4, r9, sl}^
     6e4:	01194297 			; <UNDEFINED> instruction: 0x01194297
     6e8:	28000013 	stmdacs	r0, {r0, r1, r4}
     6ec:	0e030034 	mcreq	0, 0, r0, cr3, cr4, {1}
     6f0:	0b3b0b3a 	bleq	ec33e0 <__bss_end__+0xeb8a18>
     6f4:	18021349 	stmdane	r2, {r0, r3, r6, r8, r9, ip}
     6f8:	05290000 	streq	r0, [r9, #-0]!
     6fc:	1c133100 	ldfnes	f3, [r3], {-0}
     700:	2a00000b 	bcs	734 <__code_start__-0x78cc>
     704:	13310005 	teqne	r1, #5
     708:	00001702 	andeq	r1, r0, r2, lsl #14
     70c:	3100342b 	tstcc	r0, fp, lsr #8
     710:	00180213 	andseq	r0, r8, r3, lsl r2
     714:	00342c00 	eorseq	r2, r4, r0, lsl #24
     718:	0b1c1331 	bleq	7053e4 <__bss_end__+0x6faa1c>
     71c:	052d0000 	streq	r0, [sp, #-0]!
     720:	00133100 	andseq	r3, r3, r0, lsl #2
     724:	00052e00 	andeq	r2, r5, r0, lsl #28
     728:	0b3a0803 	bleq	e8273c <__bss_end__+0xe77d74>
     72c:	13490b3b 	movtne	r0, #39739	; 0x9b3b
     730:	00001802 	andeq	r1, r0, r2, lsl #16
     734:	3f012e2f 	svccc	0x00012e2f
     738:	3a0e0319 	bcc	3813a4 <__bss_end__+0x3769dc>
     73c:	270b3b0b 	strcs	r3, [fp, -fp, lsl #22]
     740:	11134919 	tstne	r3, r9, lsl r9
     744:	40061201 	andmi	r1, r6, r1, lsl #4
     748:	19429718 	stmdbne	r2, {r3, r4, r8, r9, sl, ip, pc}^
     74c:	00001301 	andeq	r1, r0, r1, lsl #6
     750:	03003430 	movweq	r3, #1072	; 0x430
     754:	3b0b3a0e 	blcc	2cef94 <__bss_end__+0x2c45cc>
     758:	3f13490b 	svccc	0x0013490b
     75c:	00193c19 	andseq	r3, r9, r9, lsl ip
     760:	012e3100 	teqeq	lr, r0, lsl #2
     764:	0e03193f 	mcreq	9, 0, r1, cr3, cr15, {1}
     768:	0b3b0b3a 	bleq	ec3458 <__bss_end__+0xeb8a90>
     76c:	13491927 	movtne	r1, #39207	; 0x9927
     770:	1301193c 	movwne	r1, #6460	; 0x193c
     774:	18320000 	ldmdane	r2!, {}	; <UNPREDICTABLE>
     778:	33000000 	movwcc	r0, #0
     77c:	193f002e 	ldmdbne	pc!, {r1, r2, r3, r5}	; <UNPREDICTABLE>
     780:	0b3a0e03 	bleq	e83f94 <__bss_end__+0xe795cc>
     784:	19270b3b 	stmdbne	r7!, {r0, r1, r3, r4, r5, r8, r9, fp}
     788:	0000193c 	andeq	r1, r0, ip, lsr r9
     78c:	3f012e34 	svccc	0x00012e34
     790:	3a0e0319 	bcc	3813fc <__bss_end__+0x376a34>
     794:	270b3b0b 	strcs	r3, [fp, -fp, lsl #22]
     798:	01193c19 	tsteq	r9, r9, lsl ip
     79c:	00000013 	andeq	r0, r0, r3, lsl r0
     7a0:	25011101 	strcs	r1, [r1, #-257]	; 0x101
     7a4:	030b130e 	movweq	r1, #45838	; 0xb30e
     7a8:	110e1b0e 	tstne	lr, lr, lsl #22
     7ac:	10061201 	andne	r1, r6, r1, lsl #4
     7b0:	02000017 	andeq	r0, r0, #23
     7b4:	0e030016 	mcreq	0, 0, r0, cr3, cr6, {0}
     7b8:	0b3b0b3a 	bleq	ec34a8 <__bss_end__+0xeb8ae0>
     7bc:	00001349 	andeq	r1, r0, r9, asr #6
     7c0:	03011303 	movweq	r1, #4867	; 0x1303
     7c4:	3a0b0b0e 	bcc	2c3404 <__bss_end__+0x2b8a3c>
     7c8:	010b3b0b 	tsteq	fp, fp, lsl #22
     7cc:	04000013 	streq	r0, [r0], #-19
     7d0:	0e03000d 	cdpeq	0, 0, cr0, cr3, cr13, {0}
     7d4:	0b381349 	bleq	e05500 <__bss_end__+0xdfab38>
     7d8:	00001934 	andeq	r1, r0, r4, lsr r9
     7dc:	0b000f05 	bleq	43f8 <__code_start__-0x3c08>
     7e0:	0600000b 	streq	r0, [r0], -fp
     7e4:	0b0b0024 	bleq	2c087c <__bss_end__+0x2b5eb4>
     7e8:	08030b3e 	stmdaeq	r3, {r1, r2, r3, r4, r5, r8, r9, fp}
     7ec:	24070000 	strcs	r0, [r7], #-0
     7f0:	3e0b0b00 	vmlacc.f64	d0, d11, d0
     7f4:	000e030b 	andeq	r0, lr, fp, lsl #6
     7f8:	000f0800 	andeq	r0, pc, r0, lsl #16
     7fc:	13490b0b 	movtne	r0, #39691	; 0x9b0b
     800:	26090000 	strcs	r0, [r9], -r0
     804:	00134900 	andseq	r4, r3, r0, lsl #18
     808:	012e0a00 	teqeq	lr, r0, lsl #20
     80c:	0e03193f 	mcreq	9, 0, r1, cr3, cr15, {1}
     810:	0b3b0b3a 	bleq	ec3500 <__bss_end__+0xeb8b38>
     814:	13491927 	movtne	r1, #39207	; 0x9927
     818:	06120111 			; <UNDEFINED> instruction: 0x06120111
     81c:	42971840 	addsmi	r1, r7, #64, 16	; 0x400000
     820:	00130119 	andseq	r0, r3, r9, lsl r1
     824:	00050b00 	andeq	r0, r5, r0, lsl #22
     828:	0b3a0803 	bleq	e8283c <__bss_end__+0xe77e74>
     82c:	13490b3b 	movtne	r0, #39739	; 0x9b3b
     830:	00001802 	andeq	r1, r0, r2, lsl #16
     834:	0000180c 	andeq	r1, r0, ip, lsl #16
     838:	00340d00 	eorseq	r0, r4, r0, lsl #26
     83c:	0b3a0803 	bleq	e82850 <__bss_end__+0xe77e88>
     840:	13490b3b 	movtne	r0, #39739	; 0x9b3b
     844:	00001802 	andeq	r1, r0, r2, lsl #16
     848:	0300340e 	movweq	r3, #1038	; 0x40e
     84c:	3b0b3a0e 	blcc	2cf08c <__bss_end__+0x2c46c4>
     850:	0213490b 	andseq	r4, r3, #180224	; 0x2c000
     854:	0f000018 	svceq	0x00000018
     858:	08030034 	stmdaeq	r3, {r2, r4, r5}
     85c:	0b3b0b3a 	bleq	ec354c <__bss_end__+0xeb8b84>
     860:	17021349 	strne	r1, [r2, -r9, asr #6]
     864:	89100000 	ldmdbhi	r0, {}	; <UNPREDICTABLE>
     868:	11010182 	smlabbne	r1, r2, r1, r0
     86c:	01133101 	tsteq	r3, r1, lsl #2
     870:	11000013 	tstne	r0, r3, lsl r0
     874:	0001828a 	andeq	r8, r1, sl, lsl #5
     878:	42911802 	addsmi	r1, r1, #131072	; 0x20000
     87c:	12000018 	andne	r0, r0, #24
     880:	01018289 	smlabbeq	r1, r9, r2, r8
     884:	00000111 	andeq	r0, r0, r1, lsl r1
     888:	49010113 	stmdbmi	r1, {r0, r1, r4, r8}
     88c:	00130113 	andseq	r0, r3, r3, lsl r1
     890:	00211400 	eoreq	r1, r1, r0, lsl #8
     894:	052f1349 	streq	r1, [pc, #-841]!	; 553 <__code_start__-0x7aad>
     898:	15150000 	ldrne	r0, [r5, #-0]
     89c:	49192701 	ldmdbmi	r9, {r0, r8, r9, sl, sp}
     8a0:	00130113 	andseq	r0, r3, r3, lsl r1
     8a4:	00051600 	andeq	r1, r5, r0, lsl #12
     8a8:	00001349 	andeq	r1, r0, r9, asr #6
     8ac:	03003417 	movweq	r3, #1047	; 0x417
     8b0:	3b0b3a0e 	blcc	2cf0f0 <__bss_end__+0x2c4728>
     8b4:	3f13490b 	svccc	0x0013490b
     8b8:	00193c19 	andseq	r3, r9, r9, lsl ip
     8bc:	012e1800 	teqeq	lr, r0, lsl #16
     8c0:	0e03193f 	mcreq	9, 0, r1, cr3, cr15, {1}
     8c4:	0b3b0b3a 	bleq	ec35b4 <__bss_end__+0xeb8bec>
     8c8:	13491927 	movtne	r1, #39207	; 0x9927
     8cc:	0000193c 	andeq	r1, r0, ip, lsr r9
     8d0:	01110100 	tsteq	r1, r0, lsl #2
     8d4:	0b130e25 	bleq	4c4170 <__bss_end__+0x4b97a8>
     8d8:	0e1b0e03 	cdpeq	14, 1, cr0, cr11, cr3, {0}
     8dc:	06120111 			; <UNDEFINED> instruction: 0x06120111
     8e0:	00001710 	andeq	r1, r0, r0, lsl r7
     8e4:	0b002402 	bleq	98f4 <at_user_level+0x10>
     8e8:	030b3e0b 	movweq	r3, #48651	; 0xbe0b
     8ec:	03000008 	movweq	r0, #8
     8f0:	0b0b0024 	bleq	2c0988 <__bss_end__+0x2b5fc0>
     8f4:	0e030b3e 	vmoveq.16	d3[0], r0
     8f8:	2e040000 	cdpcs	0, 0, cr0, cr4, cr0, {0}
     8fc:	3a0e0301 	bcc	381508 <__bss_end__+0x376b40>
     900:	270b3b0b 	strcs	r3, [fp, -fp, lsl #22]
     904:	11134919 	tstne	r3, r9, lsl r9
     908:	40061201 	andmi	r1, r6, r1, lsl #4
     90c:	19429718 	stmdbne	r2, {r3, r4, r8, r9, sl, ip, pc}^
     910:	00001301 	andeq	r1, r0, r1, lsl #6
     914:	03000505 	movweq	r0, #1285	; 0x505
     918:	3b0b3a08 	blcc	2cf140 <__bss_end__+0x2c4778>
     91c:	0213490b 	andseq	r4, r3, #180224	; 0x2c000
     920:	06000017 			; <UNDEFINED> instruction: 0x06000017
     924:	01018289 	smlabbeq	r1, r9, r2, r8
     928:	13310111 	teqne	r1, #1073741828	; 0x40000004
     92c:	8a070000 	bhi	1c0934 <__bss_end__+0x1b5f6c>
     930:	02000182 	andeq	r0, r0, #-2147483616	; 0x80000020
     934:	18429118 	stmdane	r2, {r3, r4, r8, ip, pc}^
     938:	2e080000 	cdpcs	0, 0, cr0, cr8, cr0, {0}
     93c:	03193f00 	tsteq	r9, #0, 30
     940:	3b0b3a0e 	blcc	2cf180 <__bss_end__+0x2c47b8>
     944:	1119270b 	tstne	r9, fp, lsl #14
     948:	40061201 	andmi	r1, r6, r1, lsl #4
     94c:	19429718 	stmdbne	r2, {r3, r4, r8, r9, sl, ip, pc}^
     950:	2e090000 	cdpcs	0, 0, cr0, cr9, cr0, {0}
     954:	03193f01 	tsteq	r9, #1, 30
     958:	3b0b3a0e 	blcc	2cf198 <__bss_end__+0x2c47d0>
     95c:	1119270b 	tstne	r9, fp, lsl #14
     960:	40061201 	andmi	r1, r6, r1, lsl #4
     964:	19429718 	stmdbne	r2, {r3, r4, r8, r9, sl, ip, pc}^
     968:	00001301 	andeq	r1, r0, r1, lsl #6
     96c:	0300050a 	movweq	r0, #1290	; 0x50a
     970:	3b0b3a08 	blcc	2cf198 <__bss_end__+0x2c47d0>
     974:	0213490b 	andseq	r4, r3, #180224	; 0x2c000
     978:	0b000018 	bleq	9e0 <__code_start__-0x7620>
     97c:	19270115 	stmdbne	r7!, {r0, r2, r4, r8}
     980:	13011349 	movwne	r1, #4937	; 0x1349
     984:	050c0000 	streq	r0, [ip, #-0]
     988:	00134900 	andseq	r4, r3, r0, lsl #18
     98c:	000f0d00 	andeq	r0, pc, r0, lsl #26
     990:	13490b0b 	movtne	r0, #39691	; 0x9b0b
     994:	340e0000 	strcc	r0, [lr], #-0
     998:	3a0e0300 	bcc	3815a0 <__bss_end__+0x376bd8>
     99c:	490b3b0b 	stmdbmi	fp, {r0, r1, r3, r8, r9, fp, ip, sp}
     9a0:	02193f13 	andseq	r3, r9, #19, 30	; 0x4c
     9a4:	0f000018 	svceq	0x00000018
     9a8:	193f012e 	ldmdbne	pc!, {r1, r2, r3, r5, r8}	; <UNPREDICTABLE>
     9ac:	0b3a0e03 	bleq	e841c0 <__bss_end__+0xe797f8>
     9b0:	19270b3b 	stmdbne	r7!, {r0, r1, r3, r4, r5, r8, r9, fp}
     9b4:	0000193c 	andeq	r1, r0, ip, lsr r9
     9b8:	01110100 	tsteq	r1, r0, lsl #2
     9bc:	0b130e25 	bleq	4c4258 <__bss_end__+0x4b9890>
     9c0:	0e1b0e03 	cdpeq	14, 1, cr0, cr11, cr3, {0}
     9c4:	06120111 			; <UNDEFINED> instruction: 0x06120111
     9c8:	00001710 	andeq	r1, r0, r0, lsl r7
     9cc:	0b002402 	bleq	99dc <delay_sec>
     9d0:	030b3e0b 	movweq	r3, #48651	; 0xbe0b
     9d4:	03000008 	movweq	r0, #8
     9d8:	0b0b0024 	bleq	2c0a70 <__bss_end__+0x2b60a8>
     9dc:	0e030b3e 	vmoveq.16	d3[0], r0
     9e0:	0f040000 	svceq	0x00040000
     9e4:	490b0b00 	stmdbmi	fp, {r8, r9, fp}
     9e8:	05000013 	streq	r0, [r0, #-19]
     9ec:	13490026 	movtne	r0, #36902	; 0x9026
     9f0:	2e060000 	cdpcs	0, 0, cr0, cr6, cr0, {0}
     9f4:	03193f01 	tsteq	r9, #1, 30
     9f8:	3b0b3a0e 	blcc	2cf238 <__bss_end__+0x2c4870>
     9fc:	4919270b 	ldmdbmi	r9, {r0, r1, r3, r8, r9, sl, sp}
     a00:	12011113 	andne	r1, r1, #-1073741820	; 0xc0000004
     a04:	96184006 	ldrls	r4, [r8], -r6
     a08:	13011942 	movwne	r1, #6466	; 0x1942
     a0c:	05070000 	streq	r0, [r7, #-0]
     a10:	3a080300 	bcc	201618 <__bss_end__+0x1f6c50>
     a14:	490b3b0b 	stmdbmi	fp, {r0, r1, r3, r8, r9, fp, ip, sp}
     a18:	00170213 	andseq	r0, r7, r3, lsl r2
     a1c:	01150800 	tsteq	r5, r0, lsl #16
     a20:	13491927 	movtne	r1, #39207	; 0x9927
     a24:	00001301 	andeq	r1, r0, r1, lsl #6
     a28:	49000509 	stmdbmi	r0, {r0, r3, r8, sl}
     a2c:	0a000013 	beq	a80 <__code_start__-0x7580>
     a30:	0e030034 	mcreq	0, 0, r0, cr3, cr4, {1}
     a34:	0b3b0b3a 	bleq	ec3724 <__bss_end__+0xeb8d5c>
     a38:	193f1349 	ldmdbne	pc!, {r0, r3, r6, r8, r9, ip}	; <UNPREDICTABLE>
     a3c:	0000193c 	andeq	r1, r0, ip, lsr r9
     a40:	0300340b 	movweq	r3, #1035	; 0x40b
     a44:	3b0b3a0e 	blcc	2cf284 <__bss_end__+0x2c48bc>
     a48:	3f13490b 	svccc	0x0013490b
     a4c:	00180219 	andseq	r0, r8, r9, lsl r2
     a50:	11010000 	mrsne	r0, (UNDEF: 1)
     a54:	130e2501 	movwne	r2, #58625	; 0xe501
     a58:	1b0e030b 	blne	38168c <__bss_end__+0x376cc4>
     a5c:	1201110e 	andne	r1, r1, #-2147483645	; 0x80000003
     a60:	00171006 	andseq	r1, r7, r6
     a64:	00240200 	eoreq	r0, r4, r0, lsl #4
     a68:	0b3e0b0b 	bleq	f8369c <__bss_end__+0xf78cd4>
     a6c:	00000803 	andeq	r0, r0, r3, lsl #16
     a70:	0b002403 	bleq	9a84 <uart_init+0x10>
     a74:	030b3e0b 	movweq	r3, #48651	; 0xbe0b
     a78:	0400000e 	streq	r0, [r0], #-14
     a7c:	0b0b000f 	bleq	2c0ac0 <__bss_end__+0x2b60f8>
     a80:	0f050000 	svceq	0x00050000
     a84:	490b0b00 	stmdbmi	fp, {r8, r9, fp}
     a88:	06000013 			; <UNDEFINED> instruction: 0x06000013
     a8c:	13490026 	movtne	r0, #36902	; 0x9026
     a90:	16070000 	strne	r0, [r7], -r0
     a94:	3a0e0300 	bcc	38169c <__bss_end__+0x376cd4>
     a98:	490b3b0b 	stmdbmi	fp, {r0, r1, r3, r8, r9, fp, ip, sp}
     a9c:	08000013 	stmdaeq	r0, {r0, r1, r4}
     aa0:	0e030113 	mcreq	1, 0, r0, cr3, cr3, {0}
     aa4:	0b3a0b0b 	bleq	e836d8 <__bss_end__+0xe78d10>
     aa8:	13010b3b 	movwne	r0, #6971	; 0x1b3b
     aac:	0d090000 	stceq	0, cr0, [r9, #-0]
     ab0:	490e0300 	stmdbmi	lr, {r8, r9}
     ab4:	340b3813 	strcc	r3, [fp], #-2067	; 0x813
     ab8:	0a000019 	beq	b24 <__code_start__-0x74dc>
     abc:	0e03012e 	adfeqsp	f0, f3, #0.5
     ac0:	0b3b0b3a 	bleq	ec37b0 <__bss_end__+0xeb8de8>
     ac4:	13491927 	movtne	r1, #39207	; 0x9927
     ac8:	06120111 			; <UNDEFINED> instruction: 0x06120111
     acc:	42971840 	addsmi	r1, r7, #64, 16	; 0x400000
     ad0:	00130119 	andseq	r0, r3, r9, lsl r1
     ad4:	00050b00 	andeq	r0, r5, r0, lsl #22
     ad8:	0b3a0803 	bleq	e82aec <__bss_end__+0xe78124>
     adc:	13490b3b 	movtne	r0, #39739	; 0x9b3b
     ae0:	00001702 	andeq	r1, r0, r2, lsl #14
     ae4:	03012e0c 	movweq	r2, #7692	; 0x1e0c
     ae8:	3b0b3a08 	blcc	2cf310 <__bss_end__+0x2c4948>
     aec:	4919270b 	ldmdbmi	r9, {r0, r1, r3, r8, r9, sl, sp}
     af0:	12011113 	andne	r1, r1, #-1073741820	; 0xc0000004
     af4:	97184006 	ldrls	r4, [r8, -r6]
     af8:	13011942 	movwne	r1, #6466	; 0x1942
     afc:	050d0000 	streq	r0, [sp, #-0]
     b00:	3a0e0300 	bcc	381708 <__bss_end__+0x376d40>
     b04:	490b3b0b 	stmdbmi	fp, {r0, r1, r3, r8, r9, fp, ip, sp}
     b08:	00170213 	andseq	r0, r7, r3, lsl r2
     b0c:	00050e00 	andeq	r0, r5, r0, lsl #28
     b10:	0b3a0e03 	bleq	e84324 <__bss_end__+0xe7995c>
     b14:	13490b3b 	movtne	r0, #39739	; 0x9b3b
     b18:	00001802 	andeq	r1, r0, r2, lsl #16
     b1c:	0300340f 	movweq	r3, #1039	; 0x40f
     b20:	3b0b3a08 	blcc	2cf348 <__bss_end__+0x2c4980>
     b24:	0213490b 	andseq	r4, r3, #180224	; 0x2c000
     b28:	10000018 	andne	r0, r0, r8, lsl r0
     b2c:	08030034 	stmdaeq	r3, {r2, r4, r5}
     b30:	0b3b0b3a 	bleq	ec3820 <__bss_end__+0xeb8e58>
     b34:	17021349 	strne	r1, [r2, -r9, asr #6]
     b38:	34110000 	ldrcc	r0, [r1], #-0
     b3c:	490e0300 	stmdbmi	lr, {r8, r9}
     b40:	02193413 	andseq	r3, r9, #318767104	; 0x13000000
     b44:	12000018 	andne	r0, r0, #24
     b48:	0111010b 	tsteq	r1, fp, lsl #2
     b4c:	13010612 	movwne	r0, #5650	; 0x1612
     b50:	34130000 	ldrcc	r0, [r3], #-0
     b54:	3a0e0300 	bcc	38175c <__bss_end__+0x376d94>
     b58:	490b3b0b 	stmdbmi	fp, {r0, r1, r3, r8, r9, fp, ip, sp}
     b5c:	00170213 	andseq	r0, r7, r3, lsl r2
     b60:	82891400 	addhi	r1, r9, #0, 8
     b64:	01110001 	tsteq	r1, r1
     b68:	00001331 	andeq	r1, r0, r1, lsr r3
     b6c:	01828915 	orreq	r8, r2, r5, lsl r9
     b70:	31011101 	tstcc	r1, r1, lsl #2
     b74:	00130113 	andseq	r0, r3, r3, lsl r1
     b78:	828a1600 	addhi	r1, sl, #0, 12
     b7c:	18020001 	stmdane	r2, {r0}
     b80:	00184291 	mulseq	r8, r1, r2
     b84:	82891700 	addhi	r1, r9, #0, 14
     b88:	01110101 	tsteq	r1, r1, lsl #2
     b8c:	00001331 	andeq	r1, r0, r1, lsr r3
     b90:	49010118 	stmdbmi	r1, {r3, r4, r8}
     b94:	00130113 	andseq	r0, r3, r3, lsl r1
     b98:	00211900 	eoreq	r1, r1, r0, lsl #18
     b9c:	0b2f1349 	bleq	bc58c8 <__bss_end__+0xbbaf00>
     ba0:	2e1a0000 	cdpcs	0, 1, cr0, cr10, cr0, {0}
     ba4:	03193f01 	tsteq	r9, #1, 30
     ba8:	3b0b3a0e 	blcc	2cf3e8 <__bss_end__+0x2c4a20>
     bac:	1119270b 	tstne	r9, fp, lsl #14
     bb0:	40061201 	andmi	r1, r6, r1, lsl #4
     bb4:	19429718 	stmdbne	r2, {r3, r4, r8, r9, sl, ip, pc}^
     bb8:	00001301 	andeq	r1, r0, r1, lsl #6
     bbc:	2701151b 	smladcs	r1, fp, r5, r1
     bc0:	01134919 	tsteq	r3, r9, lsl r9
     bc4:	1c000013 	stcne	0, cr0, [r0], {19}
     bc8:	13490005 	movtne	r0, #36869	; 0x9005
     bcc:	2e1d0000 	cdpcs	0, 1, cr0, cr13, cr0, {0}
     bd0:	03193f01 	tsteq	r9, #1, 30
     bd4:	3b0b3a0e 	blcc	2cf414 <__bss_end__+0x2c4a4c>
     bd8:	4919270b 	ldmdbmi	r9, {r0, r1, r3, r8, r9, sl, sp}
     bdc:	12011113 	andne	r1, r1, #-1073741820	; 0xc0000004
     be0:	97184006 	ldrls	r4, [r8, -r6]
     be4:	13011942 	movwne	r1, #6466	; 0x1942
     be8:	0b1e0000 	bleq	780bf0 <__bss_end__+0x776228>
     bec:	12011101 	andne	r1, r1, #1073741824	; 0x40000000
     bf0:	1f000006 	svcne	0x00000006
     bf4:	01018289 	smlabbeq	r1, r9, r2, r8
     bf8:	13010111 	movwne	r0, #4369	; 0x1111
     bfc:	34200000 	strtcc	r0, [r0], #-0
     c00:	3a0e0300 	bcc	381808 <__bss_end__+0x376e40>
     c04:	490b3b0b 	stmdbmi	fp, {r0, r1, r3, r8, r9, fp, ip, sp}
     c08:	3c193f13 	ldccc	15, cr3, [r9], {19}
     c0c:	21000019 	tstcs	r0, r9, lsl r0
     c10:	193f002e 	ldmdbne	pc!, {r1, r2, r3, r5}	; <UNPREDICTABLE>
     c14:	0b3a0e03 	bleq	e84428 <__bss_end__+0xe79a60>
     c18:	19270b3b 	stmdbne	r7!, {r0, r1, r3, r4, r5, r8, r9, fp}
     c1c:	0000193c 	andeq	r1, r0, ip, lsr r9
     c20:	3f012e22 	svccc	0x00012e22
     c24:	3a0e0319 	bcc	381890 <__bss_end__+0x376ec8>
     c28:	270b3b0b 	strcs	r3, [fp, -fp, lsl #22]
     c2c:	3c134919 	ldccc	9, cr4, [r3], {25}
     c30:	00130119 	andseq	r0, r3, r9, lsl r1
     c34:	00182300 	andseq	r2, r8, r0, lsl #6
     c38:	01000000 	mrseq	r0, (UNDEF: 0)
     c3c:	0e250111 	mcreq	1, 1, r0, cr5, cr1, {0}
     c40:	0e030b13 	vmoveq.32	d3[0], r0
     c44:	01110e1b 	tsteq	r1, fp, lsl lr
     c48:	17100612 			; <UNDEFINED> instruction: 0x17100612
     c4c:	24020000 	strcs	r0, [r2], #-0
     c50:	3e0b0b00 	vmlacc.f64	d0, d11, d0
     c54:	0008030b 	andeq	r0, r8, fp, lsl #6
     c58:	00240300 	eoreq	r0, r4, r0, lsl #6
     c5c:	0b3e0b0b 	bleq	f83890 <__bss_end__+0xf78ec8>
     c60:	00000e03 	andeq	r0, r0, r3, lsl #28
     c64:	3f012e04 	svccc	0x00012e04
     c68:	3a0e0319 	bcc	3818d4 <__bss_end__+0x376f0c>
     c6c:	270b3b0b 	strcs	r3, [fp, -fp, lsl #22]
     c70:	12011119 	andne	r1, r1, #1073741830	; 0x40000006
     c74:	97184006 	ldrls	r4, [r8, -r6]
     c78:	13011942 	movwne	r1, #6466	; 0x1942
     c7c:	34050000 	strcc	r0, [r5], #-0
     c80:	3a080300 	bcc	201888 <__bss_end__+0x1f6ec0>
     c84:	490b3b0b 	stmdbmi	fp, {r0, r1, r3, r8, r9, fp, ip, sp}
     c88:	00170213 	andseq	r0, r7, r3, lsl r2
     c8c:	012e0600 	teqeq	lr, r0, lsl #12
     c90:	0e03193f 	mcreq	9, 0, r1, cr3, cr15, {1}
     c94:	0b3b0b3a 	bleq	ec3984 <__bss_end__+0xeb8fbc>
     c98:	01111927 	tsteq	r1, r7, lsr #18
     c9c:	18400612 	stmdane	r0, {r1, r4, r9, sl}^
     ca0:	00194297 	mulseq	r9, r7, r2
     ca4:	11010000 	mrsne	r0, (UNDEF: 1)
     ca8:	130e2501 	movwne	r2, #58625	; 0xe501
     cac:	1b0e030b 	blne	3818e0 <__bss_end__+0x376f18>
     cb0:	1201110e 	andne	r1, r1, #-2147483645	; 0x80000003
     cb4:	00171006 	andseq	r1, r7, r6
     cb8:	00240200 	eoreq	r0, r4, r0, lsl #4
     cbc:	0b3e0b0b 	bleq	f838f0 <__bss_end__+0xf78f28>
     cc0:	00000803 	andeq	r0, r0, r3, lsl #16
     cc4:	0b002403 	bleq	9cd8 <gpio_read+0x20>
     cc8:	030b3e0b 	movweq	r3, #48651	; 0xbe0b
     ccc:	0400000e 	streq	r0, [r0], #-14
     cd0:	0b0b000f 	bleq	2c0d14 <__bss_end__+0x2b634c>
     cd4:	00001349 	andeq	r1, r0, r9, asr #6
     cd8:	49002605 	stmdbmi	r0, {r0, r2, r9, sl, sp}
     cdc:	06000013 			; <UNDEFINED> instruction: 0x06000013
     ce0:	193f012e 	ldmdbne	pc!, {r1, r2, r3, r5, r8}	; <UNPREDICTABLE>
     ce4:	0b3a0e03 	bleq	e844f8 <__bss_end__+0xe79b30>
     ce8:	19270b3b 	stmdbne	r7!, {r0, r1, r3, r4, r5, r8, r9, fp}
     cec:	06120111 			; <UNDEFINED> instruction: 0x06120111
     cf0:	42971840 	addsmi	r1, r7, #64, 16	; 0x400000
     cf4:	00130119 	andseq	r0, r3, r9, lsl r1
     cf8:	82890700 	addhi	r0, r9, #0, 14
     cfc:	01110001 	tsteq	r1, r1
     d00:	00001331 	andeq	r1, r0, r1, lsr r3
     d04:	01828908 	orreq	r8, r2, r8, lsl #18
     d08:	01011101 	tsteq	r1, r1, lsl #2
     d0c:	09000013 	stmdbeq	r0, {r0, r1, r4}
     d10:	0001828a 	andeq	r8, r1, sl, lsl #5
     d14:	42911802 	addsmi	r1, r1, #131072	; 0x20000
     d18:	0a000018 	beq	d80 <__code_start__-0x7280>
     d1c:	01018289 	smlabbeq	r1, r9, r2, r8
     d20:	13310111 	teqne	r1, #1073741828	; 0x40000004
     d24:	00001301 	andeq	r1, r0, r1, lsl #6
     d28:	2701150b 	strcs	r1, [r1, -fp, lsl #10]
     d2c:	01134919 	tsteq	r3, r9, lsl r9
     d30:	0c000013 	stceq	0, cr0, [r0], {19}
     d34:	13490005 	movtne	r0, #36869	; 0x9005
     d38:	340d0000 	strcc	r0, [sp], #-0
     d3c:	3a0e0300 	bcc	381944 <__bss_end__+0x376f7c>
     d40:	490b3b0b 	stmdbmi	fp, {r0, r1, r3, r8, r9, fp, ip, sp}
     d44:	3c193f13 	ldccc	15, cr3, [r9], {19}
     d48:	0e000019 	mcreq	0, 0, r0, cr0, cr9, {0}
     d4c:	193f002e 	ldmdbne	pc!, {r1, r2, r3, r5}	; <UNPREDICTABLE>
     d50:	0b3a0e03 	bleq	e84564 <__bss_end__+0xe79b9c>
     d54:	19270b3b 	stmdbne	r7!, {r0, r1, r3, r4, r5, r8, r9, fp}
     d58:	0000193c 	andeq	r1, r0, ip, lsr r9
     d5c:	3f012e0f 	svccc	0x00012e0f
     d60:	3a0e0319 	bcc	3819cc <__bss_end__+0x377004>
     d64:	270b3b0b 	strcs	r3, [fp, -fp, lsl #22]
     d68:	01193c19 	tsteq	r9, r9, lsl ip
     d6c:	00000013 	andeq	r0, r0, r3, lsl r0
     d70:	25011101 	strcs	r1, [r1, #-257]	; 0x101
     d74:	030b130e 	movweq	r1, #45838	; 0xb30e
     d78:	110e1b0e 	tstne	lr, lr, lsl #22
     d7c:	10061201 	andne	r1, r6, r1, lsl #4
     d80:	02000017 	andeq	r0, r0, #23
     d84:	0b0b0024 	bleq	2c0e1c <__bss_end__+0x2b6454>
     d88:	08030b3e 	stmdaeq	r3, {r1, r2, r3, r4, r5, r8, r9, fp}
     d8c:	24030000 	strcs	r0, [r3], #-0
     d90:	3e0b0b00 	vmlacc.f64	d0, d11, d0
     d94:	000e030b 	andeq	r0, lr, fp, lsl #6
     d98:	012e0400 	teqeq	lr, r0, lsl #8
     d9c:	0e03193f 	mcreq	9, 0, r1, cr3, cr15, {1}
     da0:	0b3b0b3a 	bleq	ec3a90 <__bss_end__+0xeb90c8>
     da4:	06120111 			; <UNDEFINED> instruction: 0x06120111
     da8:	42971840 	addsmi	r1, r7, #64, 16	; 0x400000
     dac:	00130119 	andseq	r0, r3, r9, lsl r1
     db0:	00340500 	eorseq	r0, r4, r0, lsl #10
     db4:	0b3a0e03 	bleq	e845c8 <__bss_end__+0xe79c00>
     db8:	13490b3b 	movtne	r0, #39739	; 0x9b3b
     dbc:	193c193f 	ldmdbne	ip!, {r0, r1, r2, r3, r4, r5, r8, fp, ip}
     dc0:	2e060000 	cdpcs	0, 0, cr0, cr6, cr0, {0}
     dc4:	03193f00 	tsteq	r9, #0, 30
     dc8:	3b0b3a0e 	blcc	2cf608 <__bss_end__+0x2c4c40>
     dcc:	3c19270b 	ldccc	7, cr2, [r9], {11}
     dd0:	07000019 	smladeq	r0, r9, r0, r0
     dd4:	08030034 	stmdaeq	r3, {r2, r4, r5}
     dd8:	0b3b0b3a 	bleq	ec3ac8 <__bss_end__+0xeb9100>
     ddc:	17021349 	strne	r1, [r2, -r9, asr #6]
     de0:	34080000 	strcc	r0, [r8], #-0
     de4:	3a0e0300 	bcc	3819ec <__bss_end__+0x377024>
     de8:	490b3b0b 	stmdbmi	fp, {r0, r1, r3, r8, r9, fp, ip, sp}
     dec:	09000013 	stmdbeq	r0, {r0, r1, r4}
     df0:	00018289 	andeq	r8, r1, r9, lsl #5
     df4:	13310111 	teqne	r1, #1073741828	; 0x40000004
     df8:	0f0a0000 	svceq	0x000a0000
     dfc:	490b0b00 	stmdbmi	fp, {r8, r9, fp}
     e00:	00000013 	andeq	r0, r0, r3, lsl r0
     e04:	25011101 	strcs	r1, [r1, #-257]	; 0x101
     e08:	030b130e 	movweq	r1, #45838	; 0xb30e
     e0c:	110e1b0e 	tstne	lr, lr, lsl #22
     e10:	10061201 	andne	r1, r6, r1, lsl #4
     e14:	02000017 	andeq	r0, r0, #23
     e18:	0b0b0024 	bleq	2c0eb0 <__bss_end__+0x2b64e8>
     e1c:	08030b3e 	stmdaeq	r3, {r1, r2, r3, r4, r5, r8, r9, fp}
     e20:	24030000 	strcs	r0, [r3], #-0
     e24:	3e0b0b00 	vmlacc.f64	d0, d11, d0
     e28:	000e030b 	andeq	r0, lr, fp, lsl #6
     e2c:	000f0400 	andeq	r0, pc, r0, lsl #8
     e30:	13490b0b 	movtne	r0, #39691	; 0x9b0b
     e34:	26050000 	strcs	r0, [r5], -r0
     e38:	00134900 	andseq	r4, r3, r0, lsl #18
     e3c:	012e0600 	teqeq	lr, r0, lsl #12
     e40:	0e03193f 	mcreq	9, 0, r1, cr3, cr15, {1}
     e44:	0b3b0b3a 	bleq	ec3b34 <__bss_end__+0xeb916c>
     e48:	01111927 	tsteq	r1, r7, lsr #18
     e4c:	18400612 	stmdane	r0, {r1, r4, r9, sl}^
     e50:	01194297 			; <UNDEFINED> instruction: 0x01194297
     e54:	07000013 	smladeq	r0, r3, r0, r0
     e58:	08030005 	stmdaeq	r3, {r0, r2}
     e5c:	0b3b0b3a 	bleq	ec3b4c <__bss_end__+0xeb9184>
     e60:	17021349 	strne	r1, [r2, -r9, asr #6]
     e64:	34080000 	strcc	r0, [r8], #-0
     e68:	490e0300 	stmdbmi	lr, {r8, r9}
     e6c:	02193413 	andseq	r3, r9, #318767104	; 0x13000000
     e70:	09000018 	stmdbeq	r0, {r3, r4}
     e74:	00018289 	andeq	r8, r1, r9, lsl #5
     e78:	13310111 	teqne	r1, #1073741828	; 0x40000004
     e7c:	890a0000 	stmdbhi	sl, {}	; <UNPREDICTABLE>
     e80:	11010182 	smlabbne	r1, r2, r1, r0
     e84:	01133101 	tsteq	r3, r1, lsl #2
     e88:	0b000013 	bleq	edc <__code_start__-0x7124>
     e8c:	0001828a 	andeq	r8, r1, sl, lsl #5
     e90:	42911802 	addsmi	r1, r1, #131072	; 0x20000
     e94:	0c000018 	stceq	0, cr0, [r0], {24}
     e98:	13490101 	movtne	r0, #37121	; 0x9101
     e9c:	00001301 	andeq	r1, r0, r1, lsl #6
     ea0:	4900210d 	stmdbmi	r0, {r0, r2, r3, r8, sp}
     ea4:	000b2f13 	andeq	r2, fp, r3, lsl pc
     ea8:	002e0e00 	eoreq	r0, lr, r0, lsl #28
     eac:	0e03193f 	mcreq	9, 0, r1, cr3, cr15, {1}
     eb0:	0b3b0b3a 	bleq	ec3ba0 <__bss_end__+0xeb91d8>
     eb4:	193c1927 	ldmdbne	ip!, {r0, r1, r2, r5, r8, fp, ip}
     eb8:	2e0f0000 	cdpcs	0, 0, cr0, cr15, cr0, {0}
     ebc:	03193f01 	tsteq	r9, #1, 30
     ec0:	3b0b3a0e 	blcc	2cf700 <__bss_end__+0x2c4d38>
     ec4:	4919270b 	ldmdbmi	r9, {r0, r1, r3, r8, r9, sl, sp}
     ec8:	01193c13 	tsteq	r9, r3, lsl ip
     ecc:	10000013 	andne	r0, r0, r3, lsl r0
     ed0:	13490005 	movtne	r0, #36869	; 0x9005
     ed4:	18110000 	ldmdane	r1, {}	; <UNPREDICTABLE>
     ed8:	00000000 	andeq	r0, r0, r0
     edc:	25011101 	strcs	r1, [r1, #-257]	; 0x101
     ee0:	030b130e 	movweq	r1, #45838	; 0xb30e
     ee4:	110e1b0e 	tstne	lr, lr, lsl #22
     ee8:	10061201 	andne	r1, r6, r1, lsl #4
     eec:	02000017 	andeq	r0, r0, #23
     ef0:	0b0b0024 	bleq	2c0f88 <__bss_end__+0x2b65c0>
     ef4:	08030b3e 	stmdaeq	r3, {r1, r2, r3, r4, r5, r8, r9, fp}
     ef8:	24030000 	strcs	r0, [r3], #-0
     efc:	3e0b0b00 	vmlacc.f64	d0, d11, d0
     f00:	000e030b 	andeq	r0, lr, fp, lsl #6
     f04:	000f0400 	andeq	r0, pc, r0, lsl #8
     f08:	13490b0b 	movtne	r0, #39691	; 0x9b0b
     f0c:	26050000 	strcs	r0, [r5], -r0
     f10:	00134900 	andseq	r4, r3, r0, lsl #18
     f14:	012e0600 	teqeq	lr, r0, lsl #12
     f18:	0e03193f 	mcreq	9, 0, r1, cr3, cr15, {1}
     f1c:	0b3b0b3a 	bleq	ec3c0c <__bss_end__+0xeb9244>
     f20:	01111927 	tsteq	r1, r7, lsr #18
     f24:	18400612 	stmdane	r0, {r1, r4, r9, sl}^
     f28:	01194297 			; <UNDEFINED> instruction: 0x01194297
     f2c:	07000013 	smladeq	r0, r3, r0, r0
     f30:	08030005 	stmdaeq	r3, {r0, r2}
     f34:	0b3b0b3a 	bleq	ec3c24 <__bss_end__+0xeb925c>
     f38:	17021349 	strne	r1, [r2, -r9, asr #6]
     f3c:	34080000 	strcc	r0, [r8], #-0
     f40:	490e0300 	stmdbmi	lr, {r8, r9}
     f44:	02193413 	andseq	r3, r9, #318767104	; 0x13000000
     f48:	09000018 	stmdbeq	r0, {r3, r4}
     f4c:	00018289 	andeq	r8, r1, r9, lsl #5
     f50:	13310111 	teqne	r1, #1073741828	; 0x40000004
     f54:	890a0000 	stmdbhi	sl, {}	; <UNPREDICTABLE>
     f58:	11010182 	smlabbne	r1, r2, r1, r0
     f5c:	01133101 	tsteq	r3, r1, lsl #2
     f60:	0b000013 	bleq	fb4 <__code_start__-0x704c>
     f64:	0001828a 	andeq	r8, r1, sl, lsl #5
     f68:	42911802 	addsmi	r1, r1, #131072	; 0x20000
     f6c:	0c000018 	stceq	0, cr0, [r0], {24}
     f70:	13490101 	movtne	r0, #37121	; 0x9101
     f74:	00001301 	andeq	r1, r0, r1, lsl #6
     f78:	4900210d 	stmdbmi	r0, {r0, r2, r3, r8, sp}
     f7c:	000b2f13 	andeq	r2, fp, r3, lsl pc
     f80:	002e0e00 	eoreq	r0, lr, r0, lsl #28
     f84:	0e03193f 	mcreq	9, 0, r1, cr3, cr15, {1}
     f88:	0b3b0b3a 	bleq	ec3c78 <__bss_end__+0xeb92b0>
     f8c:	193c1927 	ldmdbne	ip!, {r0, r1, r2, r5, r8, fp, ip}
     f90:	2e0f0000 	cdpcs	0, 0, cr0, cr15, cr0, {0}
     f94:	03193f01 	tsteq	r9, #1, 30
     f98:	3b0b3a0e 	blcc	2cf7d8 <__bss_end__+0x2c4e10>
     f9c:	4919270b 	ldmdbmi	r9, {r0, r1, r3, r8, r9, sl, sp}
     fa0:	01193c13 	tsteq	r9, r3, lsl ip
     fa4:	10000013 	andne	r0, r0, r3, lsl r0
     fa8:	13490005 	movtne	r0, #36869	; 0x9005
     fac:	18110000 	ldmdane	r1, {}	; <UNPREDICTABLE>
     fb0:	00000000 	andeq	r0, r0, r0
     fb4:	25011101 	strcs	r1, [r1, #-257]	; 0x101
     fb8:	030b130e 	movweq	r1, #45838	; 0xb30e
     fbc:	110e1b0e 	tstne	lr, lr, lsl #22
     fc0:	10061201 	andne	r1, r6, r1, lsl #4
     fc4:	02000017 	andeq	r0, r0, #23
     fc8:	0b0b0024 	bleq	2c1060 <__bss_end__+0x2b6698>
     fcc:	08030b3e 	stmdaeq	r3, {r1, r2, r3, r4, r5, r8, r9, fp}
     fd0:	24030000 	strcs	r0, [r3], #-0
     fd4:	3e0b0b00 	vmlacc.f64	d0, d11, d0
     fd8:	000e030b 	andeq	r0, lr, fp, lsl #6
     fdc:	000f0400 	andeq	r0, pc, r0, lsl #8
     fe0:	13490b0b 	movtne	r0, #39691	; 0x9b0b
     fe4:	26050000 	strcs	r0, [r5], -r0
     fe8:	00134900 	andseq	r4, r3, r0, lsl #18
     fec:	012e0600 	teqeq	lr, r0, lsl #12
     ff0:	0e03193f 	mcreq	9, 0, r1, cr3, cr15, {1}
     ff4:	0b3b0b3a 	bleq	ec3ce4 <__bss_end__+0xeb931c>
     ff8:	01111927 	tsteq	r1, r7, lsr #18
     ffc:	18400612 	stmdane	r0, {r1, r4, r9, sl}^
    1000:	01194297 			; <UNDEFINED> instruction: 0x01194297
    1004:	07000013 	smladeq	r0, r3, r0, r0
    1008:	08030005 	stmdaeq	r3, {r0, r2}
    100c:	0b3b0b3a 	bleq	ec3cfc <__bss_end__+0xeb9334>
    1010:	17021349 	strne	r1, [r2, -r9, asr #6]
    1014:	34080000 	strcc	r0, [r8], #-0
    1018:	490e0300 	stmdbmi	lr, {r8, r9}
    101c:	02193413 	andseq	r3, r9, #318767104	; 0x13000000
    1020:	09000018 	stmdbeq	r0, {r3, r4}
    1024:	00018289 	andeq	r8, r1, r9, lsl #5
    1028:	13310111 	teqne	r1, #1073741828	; 0x40000004
    102c:	890a0000 	stmdbhi	sl, {}	; <UNPREDICTABLE>
    1030:	11010182 	smlabbne	r1, r2, r1, r0
    1034:	01133101 	tsteq	r3, r1, lsl #2
    1038:	0b000013 	bleq	108c <__code_start__-0x6f74>
    103c:	0001828a 	andeq	r8, r1, sl, lsl #5
    1040:	42911802 	addsmi	r1, r1, #131072	; 0x20000
    1044:	0c000018 	stceq	0, cr0, [r0], {24}
    1048:	13490101 	movtne	r0, #37121	; 0x9101
    104c:	00001301 	andeq	r1, r0, r1, lsl #6
    1050:	4900210d 	stmdbmi	r0, {r0, r2, r3, r8, sp}
    1054:	000b2f13 	andeq	r2, fp, r3, lsl pc
    1058:	002e0e00 	eoreq	r0, lr, r0, lsl #28
    105c:	0e03193f 	mcreq	9, 0, r1, cr3, cr15, {1}
    1060:	0b3b0b3a 	bleq	ec3d50 <__bss_end__+0xeb9388>
    1064:	193c1927 	ldmdbne	ip!, {r0, r1, r2, r5, r8, fp, ip}
    1068:	2e0f0000 	cdpcs	0, 0, cr0, cr15, cr0, {0}
    106c:	03193f01 	tsteq	r9, #1, 30
    1070:	3b0b3a0e 	blcc	2cf8b0 <__bss_end__+0x2c4ee8>
    1074:	4919270b 	ldmdbmi	r9, {r0, r1, r3, r8, r9, sl, sp}
    1078:	01193c13 	tsteq	r9, r3, lsl ip
    107c:	10000013 	andne	r0, r0, r3, lsl r0
    1080:	13490005 	movtne	r0, #36869	; 0x9005
    1084:	18110000 	ldmdane	r1, {}	; <UNPREDICTABLE>
    1088:	00000000 	andeq	r0, r0, r0
    108c:	25011101 	strcs	r1, [r1, #-257]	; 0x101
    1090:	030b130e 	movweq	r1, #45838	; 0xb30e
    1094:	110e1b0e 	tstne	lr, lr, lsl #22
    1098:	10061201 	andne	r1, r6, r1, lsl #4
    109c:	02000017 	andeq	r0, r0, #23
    10a0:	0b0b0024 	bleq	2c1138 <__bss_end__+0x2b6770>
    10a4:	08030b3e 	stmdaeq	r3, {r1, r2, r3, r4, r5, r8, r9, fp}
    10a8:	24030000 	strcs	r0, [r3], #-0
    10ac:	3e0b0b00 	vmlacc.f64	d0, d11, d0
    10b0:	000e030b 	andeq	r0, lr, fp, lsl #6
    10b4:	002e0400 	eoreq	r0, lr, r0, lsl #8
    10b8:	0e03193f 	mcreq	9, 0, r1, cr3, cr15, {1}
    10bc:	0b3b0b3a 	bleq	ec3dac <__bss_end__+0xeb93e4>
    10c0:	01111927 	tsteq	r1, r7, lsr #18
    10c4:	18400612 	stmdane	r0, {r1, r4, r9, sl}^
    10c8:	00194297 	mulseq	r9, r7, r2
    10cc:	11010000 	mrsne	r0, (UNDEF: 1)
    10d0:	130e2501 	movwne	r2, #58625	; 0xe501
    10d4:	1b0e030b 	blne	381d08 <__bss_end__+0x377340>
    10d8:	1201110e 	andne	r1, r1, #-2147483645	; 0x80000003
    10dc:	00171006 	andseq	r1, r7, r6
    10e0:	00240200 	eoreq	r0, r4, r0, lsl #4
    10e4:	0b3e0b0b 	bleq	f83d18 <__bss_end__+0xf79350>
    10e8:	00000803 	andeq	r0, r0, r3, lsl #16
    10ec:	0b002403 	bleq	a100 <__FUNCTION__.4399+0x8>
    10f0:	030b3e0b 	movweq	r3, #48651	; 0xbe0b
    10f4:	0400000e 	streq	r0, [r0], #-14
    10f8:	0b0b0104 	bleq	2c1510 <__bss_end__+0x2b6b48>
    10fc:	0b3b0b3a 	bleq	ec3dec <__bss_end__+0xeb9424>
    1100:	00001301 	andeq	r1, r0, r1, lsl #6
    1104:	03002805 	movweq	r2, #2053	; 0x805
    1108:	000d1c0e 	andeq	r1, sp, lr, lsl #24
    110c:	012e0600 	teqeq	lr, r0, lsl #12
    1110:	0e03193f 	mcreq	9, 0, r1, cr3, cr15, {1}
    1114:	0b3b0b3a 	bleq	ec3e04 <__bss_end__+0xeb943c>
    1118:	01111927 	tsteq	r1, r7, lsr #18
    111c:	18400612 	stmdane	r0, {r1, r4, r9, sl}^
    1120:	01194297 			; <UNDEFINED> instruction: 0x01194297
    1124:	07000013 	smladeq	r0, r3, r0, r0
    1128:	0e030034 	mcreq	0, 0, r0, cr3, cr4, {1}
    112c:	0b3b0b3a 	bleq	ec3e1c <__bss_end__+0xeb9454>
    1130:	193f1349 	ldmdbne	pc!, {r0, r3, r6, r8, r9, ip}	; <UNPREDICTABLE>
    1134:	0000193c 	andeq	r1, r0, ip, lsr r9
    1138:	03003408 	movweq	r3, #1032	; 0x408
    113c:	3b0b3a08 	blcc	2cf964 <__bss_end__+0x2c4f9c>
    1140:	1c13490b 	ldcne	9, cr4, [r3], {11}
    1144:	0900000b 	stmdbeq	r0, {r0, r1, r3}
    1148:	08030034 	stmdaeq	r3, {r2, r4, r5}
    114c:	0b3b0b3a 	bleq	ec3e3c <__bss_end__+0xeb9474>
    1150:	00001349 	andeq	r1, r0, r9, asr #6
    1154:	0300340a 	movweq	r3, #1034	; 0x40a
    1158:	3b0b3a08 	blcc	2cf980 <__bss_end__+0x2c4fb8>
    115c:	0213490b 	andseq	r4, r3, #180224	; 0x2c000
    1160:	0b000018 	bleq	11c8 <__code_start__-0x6e38>
    1164:	0111010b 	tsteq	r1, fp, lsl #2
    1168:	13010612 	movwne	r0, #5650	; 0x1612
    116c:	340c0000 	strcc	r0, [ip], #-0
    1170:	3a080300 	bcc	201d78 <__bss_end__+0x1f73b0>
    1174:	490b3b0b 	stmdbmi	fp, {r0, r1, r3, r8, r9, fp, ip, sp}
    1178:	00170213 	andseq	r0, r7, r3, lsl r2
    117c:	82890d00 	addhi	r0, r9, #0, 26
    1180:	01110001 	tsteq	r1, r1
    1184:	00001331 	andeq	r1, r0, r1, lsr r3
    1188:	0182890e 	orreq	r8, r2, lr, lsl #18
    118c:	31011101 	tstcc	r1, r1, lsl #2
    1190:	00130113 	andseq	r0, r3, r3, lsl r1
    1194:	828a0f00 	addhi	r0, sl, #0, 30
    1198:	18020001 	stmdane	r2, {r0}
    119c:	00184291 	mulseq	r8, r1, r2
    11a0:	000f1000 	andeq	r1, pc, r0
    11a4:	13490b0b 	movtne	r0, #39691	; 0x9b0b
    11a8:	2e110000 	cdpcs	0, 1, cr0, cr1, cr0, {0}
    11ac:	03193f00 	tsteq	r9, #0, 30
    11b0:	3b0b3a0e 	blcc	2cf9f0 <__bss_end__+0x2c5028>
    11b4:	3c19270b 	ldccc	7, cr2, [r9], {11}
    11b8:	12000019 	andne	r0, r0, #25
    11bc:	193f012e 	ldmdbne	pc!, {r1, r2, r3, r5, r8}	; <UNPREDICTABLE>
    11c0:	0b3a0e03 	bleq	e849d4 <__bss_end__+0xe7a00c>
    11c4:	19270b3b 	stmdbne	r7!, {r0, r1, r3, r4, r5, r8, r9, fp}
    11c8:	0000193c 	andeq	r1, r0, ip, lsr r9
    11cc:	49000513 	stmdbmi	r0, {r0, r1, r4, r8, sl}
    11d0:	00000013 	andeq	r0, r0, r3, lsl r0
    11d4:	25011101 	strcs	r1, [r1, #-257]	; 0x101
    11d8:	030b130e 	movweq	r1, #45838	; 0xb30e
    11dc:	550e1b0e 	strpl	r1, [lr, #-2830]	; 0xb0e
    11e0:	10011117 	andne	r1, r1, r7, lsl r1
    11e4:	02000017 	andeq	r0, r0, #23
    11e8:	0b0b0024 	bleq	2c1280 <__bss_end__+0x2b68b8>
    11ec:	08030b3e 	stmdaeq	r3, {r1, r2, r3, r4, r5, r8, r9, fp}
    11f0:	24030000 	strcs	r0, [r3], #-0
    11f4:	3e0b0b00 	vmlacc.f64	d0, d11, d0
    11f8:	000e030b 	andeq	r0, lr, fp, lsl #6
    11fc:	012e0400 	teqeq	lr, r0, lsl #8
    1200:	0e03193f 	mcreq	9, 0, r1, cr3, cr15, {1}
    1204:	0b3b0b3a 	bleq	ec3ef4 <__bss_end__+0xeb952c>
    1208:	13491927 	movtne	r1, #39207	; 0x9927
    120c:	06120111 			; <UNDEFINED> instruction: 0x06120111
    1210:	42971840 	addsmi	r1, r7, #64, 16	; 0x400000
    1214:	00130119 	andseq	r0, r3, r9, lsl r1
    1218:	00340500 	eorseq	r0, r4, r0, lsl #10
    121c:	0b3a0e03 	bleq	e84a30 <__bss_end__+0xe7a068>
    1220:	13490b3b 	movtne	r0, #39739	; 0x9b3b
    1224:	00001702 	andeq	r1, r0, r2, lsl #14
    1228:	3f012e06 	svccc	0x00012e06
    122c:	3a0e0319 	bcc	381e98 <__bss_end__+0x3774d0>
    1230:	270b3b0b 	strcs	r3, [fp, -fp, lsl #22]
    1234:	12011119 	andne	r1, r1, #1073741830	; 0x40000006
    1238:	97184006 	ldrls	r4, [r8, -r6]
    123c:	13011942 	movwne	r1, #6466	; 0x1942
    1240:	34070000 	strcc	r0, [r7], #-0
    1244:	3a0e0300 	bcc	381e4c <__bss_end__+0x377484>
    1248:	490b3b0b 	stmdbmi	fp, {r0, r1, r3, r8, r9, fp, ip, sp}
    124c:	00061c13 	andeq	r1, r6, r3, lsl ip
    1250:	00340800 	eorseq	r0, r4, r0, lsl #16
    1254:	0b3a0e03 	bleq	e84a68 <__bss_end__+0xe7a0a0>
    1258:	13490b3b 	movtne	r0, #39739	; 0x9b3b
    125c:	00000b1c 	andeq	r0, r0, ip, lsl fp
    1260:	01828909 	orreq	r8, r2, r9, lsl #18
    1264:	31011100 	mrscc	r1, (UNDEF: 17)
    1268:	0a000013 	beq	12bc <__code_start__-0x6d44>
    126c:	01018289 	smlabbeq	r1, r9, r2, r8
    1270:	13310111 	teqne	r1, #1073741828	; 0x40000004
    1274:	00001301 	andeq	r1, r0, r1, lsl #6
    1278:	01828a0b 	orreq	r8, r2, fp, lsl #20
    127c:	91180200 	tstls	r8, r0, lsl #4
    1280:	00001842 	andeq	r1, r0, r2, asr #16
    1284:	0182890c 	orreq	r8, r2, ip, lsl #18
    1288:	31011101 	tstcc	r1, r1, lsl #2
    128c:	0d000013 	stceq	0, cr0, [r0, #-76]	; 0xffffffb4
    1290:	13490026 	movtne	r0, #36902	; 0x9026
    1294:	2e0e0000 	cdpcs	0, 0, cr0, cr14, cr0, {0}
    1298:	03193f01 	tsteq	r9, #1, 30
    129c:	3b0b3a0e 	blcc	2cfadc <__bss_end__+0x2c5114>
    12a0:	3c19270b 	ldccc	7, cr2, [r9], {11}
    12a4:	00130119 	andseq	r0, r3, r9, lsl r1
    12a8:	00050f00 	andeq	r0, r5, r0, lsl #30
    12ac:	00001349 	andeq	r1, r0, r9, asr #6
    12b0:	3f012e10 	svccc	0x00012e10
    12b4:	3a0e0319 	bcc	381f20 <__bss_end__+0x377558>
    12b8:	270b3b0b 	strcs	r3, [fp, -fp, lsl #22]
    12bc:	00193c19 	andseq	r3, r9, r9, lsl ip
    12c0:	11010000 	mrsne	r0, (UNDEF: 1)
    12c4:	130e2501 	movwne	r2, #58625	; 0xe501
    12c8:	1b0e030b 	blne	381efc <__bss_end__+0x377534>
    12cc:	1201110e 	andne	r1, r1, #-2147483645	; 0x80000003
    12d0:	00171006 	andseq	r1, r7, r6
    12d4:	00240200 	eoreq	r0, r4, r0, lsl #4
    12d8:	0b3e0b0b 	bleq	f83f0c <__bss_end__+0xf79544>
    12dc:	00000803 	andeq	r0, r0, r3, lsl #16
    12e0:	0b002403 	bleq	a2f4 <__FUNCTION__.4451+0x1bc>
    12e4:	030b3e0b 	movweq	r3, #48651	; 0xbe0b
    12e8:	0400000e 	streq	r0, [r0], #-14
    12ec:	193f012e 	ldmdbne	pc!, {r1, r2, r3, r5, r8}	; <UNPREDICTABLE>
    12f0:	0b3a0e03 	bleq	e84b04 <__bss_end__+0xe7a13c>
    12f4:	19270b3b 	stmdbne	r7!, {r0, r1, r3, r4, r5, r8, r9, fp}
    12f8:	06120111 			; <UNDEFINED> instruction: 0x06120111
    12fc:	42971840 	addsmi	r1, r7, #64, 16	; 0x400000
    1300:	00130119 	andseq	r0, r3, r9, lsl r1
    1304:	00050500 	andeq	r0, r5, r0, lsl #10
    1308:	0b3a0e03 	bleq	e84b1c <__bss_end__+0xe7a154>
    130c:	13490b3b 	movtne	r0, #39739	; 0x9b3b
    1310:	00001702 	andeq	r1, r0, r2, lsl #14
    1314:	3f012e06 	svccc	0x00012e06
    1318:	3a0e0319 	bcc	381f84 <__bss_end__+0x3775bc>
    131c:	270b3b0b 	strcs	r3, [fp, -fp, lsl #22]
    1320:	11134919 	tstne	r3, r9, lsl r9
    1324:	40061201 	andmi	r1, r6, r1, lsl #4
    1328:	19429718 	stmdbne	r2, {r3, r4, r8, r9, sl, ip, pc}^
    132c:	00001301 	andeq	r1, r0, r1, lsl #6
    1330:	01828907 	orreq	r8, r2, r7, lsl #18
    1334:	31011101 	tstcc	r1, r1, lsl #2
    1338:	08000013 	stmdaeq	r0, {r0, r1, r4}
    133c:	0001828a 	andeq	r8, r1, sl, lsl #5
    1340:	42911802 	addsmi	r1, r1, #131072	; 0x20000
    1344:	09000018 	stmdbeq	r0, {r3, r4}
    1348:	08030034 	stmdaeq	r3, {r2, r4, r5}
    134c:	0b3b0b3a 	bleq	ec403c <__bss_end__+0xeb9674>
    1350:	17021349 	strne	r1, [r2, -r9, asr #6]
    1354:	890a0000 	stmdbhi	sl, {}	; <UNPREDICTABLE>
    1358:	11000182 	smlabbne	r0, r2, r1, r0
    135c:	00133101 	andseq	r3, r3, r1, lsl #2
    1360:	00050b00 	andeq	r0, r5, r0, lsl #22
    1364:	0b3a0803 	bleq	e83378 <__bss_end__+0xe789b0>
    1368:	13490b3b 	movtne	r0, #39739	; 0x9b3b
    136c:	00001702 	andeq	r1, r0, r2, lsl #14
    1370:	0300340c 	movweq	r3, #1036	; 0x40c
    1374:	3b0b3a08 	blcc	2cfb9c <__bss_end__+0x2c51d4>
    1378:	0213490b 	andseq	r4, r3, #180224	; 0x2c000
    137c:	0d000018 	stceq	0, cr0, [r0, #-96]	; 0xffffffa0
    1380:	0111010b 	tsteq	r1, fp, lsl #2
    1384:	13010612 	movwne	r0, #5650	; 0x1612
    1388:	2e0e0000 	cdpcs	0, 0, cr0, cr14, cr0, {0}
    138c:	03193f01 	tsteq	r9, #1, 30
    1390:	3b0b3a0e 	blcc	2cfbd0 <__bss_end__+0x2c5208>
    1394:	4919270b 	ldmdbmi	r9, {r0, r1, r3, r8, r9, sl, sp}
    1398:	01193c13 	tsteq	r9, r3, lsl ip
    139c:	0f000013 	svceq	0x00000013
    13a0:	13490005 	movtne	r0, #36869	; 0x9005
    13a4:	2e100000 	cdpcs	0, 1, cr0, cr0, cr0, {0}
    13a8:	03193f00 	tsteq	r9, #0, 30
    13ac:	3b0b3a0e 	blcc	2cfbec <__bss_end__+0x2c5224>
    13b0:	3c19270b 	ldccc	7, cr2, [r9], {11}
    13b4:	00000019 	andeq	r0, r0, r9, lsl r0
    13b8:	25011101 	strcs	r1, [r1, #-257]	; 0x101
    13bc:	030b130e 	movweq	r1, #45838	; 0xb30e
    13c0:	110e1b0e 	tstne	lr, lr, lsl #22
    13c4:	10061201 	andne	r1, r6, r1, lsl #4
    13c8:	02000017 	andeq	r0, r0, #23
    13cc:	0b0b0024 	bleq	2c1464 <__bss_end__+0x2b6a9c>
    13d0:	08030b3e 	stmdaeq	r3, {r1, r2, r3, r4, r5, r8, r9, fp}
    13d4:	24030000 	strcs	r0, [r3], #-0
    13d8:	3e0b0b00 	vmlacc.f64	d0, d11, d0
    13dc:	000e030b 	andeq	r0, lr, fp, lsl #6
    13e0:	00350400 	eorseq	r0, r5, r0, lsl #8
    13e4:	00001349 	andeq	r1, r0, r9, asr #6
    13e8:	03001605 	movweq	r1, #1541	; 0x605
    13ec:	3b0b3a0e 	blcc	2cfc2c <__bss_end__+0x2c5264>
    13f0:	0013490b 	andseq	r4, r3, fp, lsl #18
    13f4:	00160600 	andseq	r0, r6, r0, lsl #12
    13f8:	0b3a0e03 	bleq	e84c0c <__bss_end__+0xe7a244>
    13fc:	1349053b 	movtne	r0, #38203	; 0x953b
    1400:	17070000 	strne	r0, [r7, -r0]
    1404:	3a0b0b01 	bcc	2c4010 <__bss_end__+0x2b9648>
    1408:	010b3b0b 	tsteq	fp, fp, lsl #22
    140c:	08000013 	stmdaeq	r0, {r0, r1, r4}
    1410:	0e03000d 	cdpeq	0, 0, cr0, cr3, cr13, {0}
    1414:	0b3b0b3a 	bleq	ec4104 <__bss_end__+0xeb973c>
    1418:	00001349 	andeq	r1, r0, r9, asr #6
    141c:	49010109 	stmdbmi	r1, {r0, r3, r8}
    1420:	00130113 	andseq	r0, r3, r3, lsl r1
    1424:	00210a00 	eoreq	r0, r1, r0, lsl #20
    1428:	0b2f1349 	bleq	bc6154 <__bss_end__+0xbbb78c>
    142c:	130b0000 	movwne	r0, #45056	; 0xb000
    1430:	3a0b0b01 	bcc	2c403c <__bss_end__+0x2b9674>
    1434:	010b3b0b 	tsteq	fp, fp, lsl #22
    1438:	0c000013 	stceq	0, cr0, [r0], {19}
    143c:	0e03000d 	cdpeq	0, 0, cr0, cr3, cr13, {0}
    1440:	0b3b0b3a 	bleq	ec4130 <__bss_end__+0xeb9768>
    1444:	0b381349 	bleq	e06170 <__bss_end__+0xdfb7a8>
    1448:	0f0d0000 	svceq	0x000d0000
    144c:	000b0b00 	andeq	r0, fp, r0, lsl #22
    1450:	000f0e00 	andeq	r0, pc, r0, lsl #28
    1454:	13490b0b 	movtne	r0, #39691	; 0x9b0b
    1458:	260f0000 	strcs	r0, [pc], -r0
    145c:	00134900 	andseq	r4, r3, r0, lsl #18
    1460:	01131000 	tsteq	r3, r0
    1464:	0b0b0e03 	bleq	2c4c78 <__bss_end__+0x2ba2b0>
    1468:	0b3b0b3a 	bleq	ec4158 <__bss_end__+0xeb9790>
    146c:	00001301 	andeq	r1, r0, r1, lsl #6
    1470:	03000d11 	movweq	r0, #3345	; 0xd11
    1474:	3b0b3a08 	blcc	2cfc9c <__bss_end__+0x2c52d4>
    1478:	3813490b 	ldmdacc	r3, {r0, r1, r3, r8, fp, lr}
    147c:	1200000b 	andne	r0, r0, #11
    1480:	0e030113 	mcreq	1, 0, r0, cr3, cr3, {0}
    1484:	0b3a050b 	bleq	e828b8 <__bss_end__+0xe77ef0>
    1488:	13010b3b 	movwne	r0, #6971	; 0x1b3b
    148c:	0d130000 	ldceq	0, cr0, [r3, #-0]
    1490:	3a0e0300 	bcc	382098 <__bss_end__+0x3776d0>
    1494:	490b3b0b 	stmdbmi	fp, {r0, r1, r3, r8, r9, fp, ip, sp}
    1498:	00053813 	andeq	r3, r5, r3, lsl r8
    149c:	00151400 	andseq	r1, r5, r0, lsl #8
    14a0:	00001927 	andeq	r1, r0, r7, lsr #18
    14a4:	27011515 	smladcs	r1, r5, r5, r1
    14a8:	01134919 	tsteq	r3, r9, lsl r9
    14ac:	16000013 			; <UNDEFINED> instruction: 0x16000013
    14b0:	13490005 	movtne	r0, #36869	; 0x9005
    14b4:	13170000 	tstne	r7, #0
    14b8:	0b0e0301 	bleq	3820c4 <__bss_end__+0x3776fc>
    14bc:	3b0b3a05 	blcc	2cfcd8 <__bss_end__+0x2c5310>
    14c0:	00130105 	andseq	r0, r3, r5, lsl #2
    14c4:	000d1800 	andeq	r1, sp, r0, lsl #16
    14c8:	0b3a0e03 	bleq	e84cdc <__bss_end__+0xe7a314>
    14cc:	1349053b 	movtne	r0, #38203	; 0x953b
    14d0:	00000b38 	andeq	r0, r0, r8, lsr fp
    14d4:	03000d19 	movweq	r0, #3353	; 0xd19
    14d8:	3b0b3a0e 	blcc	2cfd18 <__bss_end__+0x2c5350>
    14dc:	38134905 	ldmdacc	r3, {r0, r2, r8, fp, lr}
    14e0:	1a000005 	bne	14fc <__code_start__-0x6b04>
    14e4:	0e030113 	mcreq	1, 0, r0, cr3, cr3, {0}
    14e8:	0b3a0b0b 	bleq	e8411c <__bss_end__+0xe79754>
    14ec:	1301053b 	movwne	r0, #5435	; 0x153b
    14f0:	131b0000 	tstne	fp, #0
    14f4:	3a0b0b01 	bcc	2c4100 <__bss_end__+0x2b9738>
    14f8:	01053b0b 	tsteq	r5, fp, lsl #22
    14fc:	1c000013 	stcne	0, cr0, [r0], {19}
    1500:	0b0b0117 	bleq	2c1964 <__bss_end__+0x2b6f9c>
    1504:	053b0b3a 	ldreq	r0, [fp, #-2874]!	; 0xb3a
    1508:	00001301 	andeq	r1, r0, r1, lsl #6
    150c:	03000d1d 	movweq	r0, #3357	; 0xd1d
    1510:	3b0b3a0e 	blcc	2cfd50 <__bss_end__+0x2c5388>
    1514:	00134905 	andseq	r4, r3, r5, lsl #18
    1518:	01151e00 	tsteq	r5, r0, lsl #28
    151c:	13011927 	movwne	r1, #6439	; 0x1927
    1520:	341f0000 	ldrcc	r0, [pc], #-0	; 1528 <__code_start__-0x6ad8>
    1524:	3a0e0300 	bcc	38212c <__bss_end__+0x377764>
    1528:	49053b0b 	stmdbmi	r5, {r0, r1, r3, r8, r9, fp, ip, sp}
    152c:	3c193f13 	ldccc	15, cr3, [r9], {19}
    1530:	20000019 	andcs	r0, r0, r9, lsl r0
    1534:	0e030034 	mcreq	0, 0, r0, cr3, cr4, {1}
    1538:	0b3b0b3a 	bleq	ec4228 <__bss_end__+0xeb9860>
    153c:	193f1349 	ldmdbne	pc!, {r0, r3, r6, r8, r9, ip}	; <UNPREDICTABLE>
    1540:	0000193c 	andeq	r1, r0, ip, lsr r9
    1544:	0b010421 	bleq	425d0 <__bss_end__+0x37c08>
    1548:	3a13490b 	bcc	4d397c <__bss_end__+0x4c8fb4>
    154c:	010b3b0b 	tsteq	fp, fp, lsl #22
    1550:	22000013 	andcs	r0, r0, #19
    1554:	0e030028 	cdpeq	0, 0, cr0, cr3, cr8, {1}
    1558:	00000b1c 	andeq	r0, r0, ip, lsl fp
    155c:	03003423 	movweq	r3, #1059	; 0x423
    1560:	3b0b3a0e 	blcc	2cfda0 <__bss_end__+0x2c53d8>
    1564:	1c13490b 	ldcne	9, cr4, [r3], {11}
    1568:	24000006 	strcs	r0, [r0], #-6
    156c:	193f012e 	ldmdbne	pc!, {r1, r2, r3, r5, r8}	; <UNPREDICTABLE>
    1570:	0b3a0e03 	bleq	e84d84 <__bss_end__+0xe7a3bc>
    1574:	19270b3b 	stmdbne	r7!, {r0, r1, r3, r4, r5, r8, r9, fp}
    1578:	01111349 	tsteq	r1, r9, asr #6
    157c:	18400612 	stmdane	r0, {r1, r4, r9, sl}^
    1580:	01194297 			; <UNDEFINED> instruction: 0x01194297
    1584:	25000013 	strcs	r0, [r0, #-19]
    1588:	00018289 	andeq	r8, r1, r9, lsl #5
    158c:	13310111 	teqne	r1, #1073741828	; 0x40000004
    1590:	2e260000 	cdpcs	0, 2, cr0, cr6, cr0, {0}
    1594:	03193f01 	tsteq	r9, #1, 30
    1598:	3b0b3a0e 	blcc	2cfdd8 <__bss_end__+0x2c5410>
    159c:	1119270b 	tstne	r9, fp, lsl #14
    15a0:	40061201 	andmi	r1, r6, r1, lsl #4
    15a4:	19429718 	stmdbne	r2, {r3, r4, r8, r9, sl, ip, pc}^
    15a8:	00001301 	andeq	r1, r0, r1, lsl #6
    15ac:	03000527 	movweq	r0, #1319	; 0x527
    15b0:	3b0b3a08 	blcc	2cfdd8 <__bss_end__+0x2c5410>
    15b4:	0213490b 	andseq	r4, r3, #180224	; 0x2c000
    15b8:	28000017 	stmdacs	r0, {r0, r1, r2, r4}
    15bc:	01018289 	smlabbeq	r1, r9, r2, r8
    15c0:	13310111 	teqne	r1, #1073741828	; 0x40000004
    15c4:	00001301 	andeq	r1, r0, r1, lsl #6
    15c8:	01828a29 	orreq	r8, r2, r9, lsr #20
    15cc:	91180200 	tstls	r8, r0, lsl #4
    15d0:	00001842 	andeq	r1, r0, r2, asr #16
    15d4:	0300342a 	movweq	r3, #1066	; 0x42a
    15d8:	3b0b3a08 	blcc	2cfe00 <__bss_end__+0x2c5438>
    15dc:	0213490b 	andseq	r4, r3, #180224	; 0x2c000
    15e0:	2b000018 	blcs	1648 <__code_start__-0x69b8>
    15e4:	01018289 	smlabbeq	r1, r9, r2, r8
    15e8:	13310111 	teqne	r1, #1073741828	; 0x40000004
    15ec:	2e2c0000 	cdpcs	0, 2, cr0, cr12, cr0, {0}
    15f0:	3a0e0301 	bcc	3821fc <__bss_end__+0x377834>
    15f4:	270b3b0b 	strcs	r3, [fp, -fp, lsl #22]
    15f8:	12011119 	andne	r1, r1, #1073741830	; 0x40000006
    15fc:	97184006 	ldrls	r4, [r8, -r6]
    1600:	13011942 	movwne	r1, #6466	; 0x1942
    1604:	052d0000 	streq	r0, [sp, #-0]!
    1608:	3a0e0300 	bcc	382210 <__bss_end__+0x377848>
    160c:	490b3b0b 	stmdbmi	fp, {r0, r1, r3, r8, r9, fp, ip, sp}
    1610:	00170213 	andseq	r0, r7, r3, lsl r2
    1614:	00352e00 	eorseq	r2, r5, r0, lsl #28
    1618:	2e2f0000 	cdpcs	0, 2, cr0, cr15, cr0, {0}
    161c:	3c193f00 	ldccc	15, cr3, [r9], {-0}
    1620:	030e6e19 	movweq	r6, #60953	; 0xee19
    1624:	3b0b3a0e 	blcc	2cfe64 <__bss_end__+0x2c549c>
    1628:	0000000b 	andeq	r0, r0, fp
    162c:	25011101 	strcs	r1, [r1, #-257]	; 0x101
    1630:	030b130e 	movweq	r1, #45838	; 0xb30e
    1634:	110e1b0e 	tstne	lr, lr, lsl #22
    1638:	10061201 	andne	r1, r6, r1, lsl #4
    163c:	02000017 	andeq	r0, r0, #23
    1640:	0b0b0024 	bleq	2c16d8 <__bss_end__+0x2b6d10>
    1644:	08030b3e 	stmdaeq	r3, {r1, r2, r3, r4, r5, r8, r9, fp}
    1648:	24030000 	strcs	r0, [r3], #-0
    164c:	3e0b0b00 	vmlacc.f64	d0, d11, d0
    1650:	000e030b 	andeq	r0, lr, fp, lsl #6
    1654:	00260400 	eoreq	r0, r6, r0, lsl #8
    1658:	00001349 	andeq	r1, r0, r9, asr #6
    165c:	03001605 	movweq	r1, #1541	; 0x605
    1660:	3b0b3a0e 	blcc	2cfea0 <__bss_end__+0x2c54d8>
    1664:	0013490b 	andseq	r4, r3, fp, lsl #18
    1668:	00160600 	andseq	r0, r6, r0, lsl #12
    166c:	0b3a0e03 	bleq	e84e80 <__bss_end__+0xe7a4b8>
    1670:	1349053b 	movtne	r0, #38203	; 0x953b
    1674:	17070000 	strne	r0, [r7, -r0]
    1678:	3a0b0b01 	bcc	2c4284 <__bss_end__+0x2b98bc>
    167c:	010b3b0b 	tsteq	fp, fp, lsl #22
    1680:	08000013 	stmdaeq	r0, {r0, r1, r4}
    1684:	0e03000d 	cdpeq	0, 0, cr0, cr3, cr13, {0}
    1688:	0b3b0b3a 	bleq	ec4378 <__bss_end__+0xeb99b0>
    168c:	00001349 	andeq	r1, r0, r9, asr #6
    1690:	49010109 	stmdbmi	r1, {r0, r3, r8}
    1694:	00130113 	andseq	r0, r3, r3, lsl r1
    1698:	00210a00 	eoreq	r0, r1, r0, lsl #20
    169c:	0b2f1349 	bleq	bc63c8 <__bss_end__+0xbbba00>
    16a0:	130b0000 	movwne	r0, #45056	; 0xb000
    16a4:	3a0b0b01 	bcc	2c42b0 <__bss_end__+0x2b98e8>
    16a8:	010b3b0b 	tsteq	fp, fp, lsl #22
    16ac:	0c000013 	stceq	0, cr0, [r0], {19}
    16b0:	0e03000d 	cdpeq	0, 0, cr0, cr3, cr13, {0}
    16b4:	0b3b0b3a 	bleq	ec43a4 <__bss_end__+0xeb99dc>
    16b8:	0b381349 	bleq	e063e4 <__bss_end__+0xdfba1c>
    16bc:	0f0d0000 	svceq	0x000d0000
    16c0:	000b0b00 	andeq	r0, fp, r0, lsl #22
    16c4:	000f0e00 	andeq	r0, pc, r0, lsl #28
    16c8:	13490b0b 	movtne	r0, #39691	; 0x9b0b
    16cc:	130f0000 	movwne	r0, #61440	; 0xf000
    16d0:	0b0e0301 	bleq	3822dc <__bss_end__+0x377914>
    16d4:	3b0b3a0b 	blcc	2cff08 <__bss_end__+0x2c5540>
    16d8:	0013010b 	andseq	r0, r3, fp, lsl #2
    16dc:	000d1000 	andeq	r1, sp, r0
    16e0:	0b3a0803 	bleq	e836f4 <__bss_end__+0xe78d2c>
    16e4:	13490b3b 	movtne	r0, #39739	; 0x9b3b
    16e8:	00000b38 	andeq	r0, r0, r8, lsr fp
    16ec:	03011311 	movweq	r1, #4881	; 0x1311
    16f0:	3a050b0e 	bcc	144330 <__bss_end__+0x139968>
    16f4:	010b3b0b 	tsteq	fp, fp, lsl #22
    16f8:	12000013 	andne	r0, r0, #19
    16fc:	0e03000d 	cdpeq	0, 0, cr0, cr3, cr13, {0}
    1700:	0b3b0b3a 	bleq	ec43f0 <__bss_end__+0xeb9a28>
    1704:	05381349 	ldreq	r1, [r8, #-841]!	; 0x349
    1708:	15130000 	ldrne	r0, [r3, #-0]
    170c:	00192700 	andseq	r2, r9, r0, lsl #14
    1710:	01151400 	tsteq	r5, r0, lsl #8
    1714:	13491927 	movtne	r1, #39207	; 0x9927
    1718:	00001301 	andeq	r1, r0, r1, lsl #6
    171c:	49000515 	stmdbmi	r0, {r0, r2, r4, r8, sl}
    1720:	16000013 			; <UNDEFINED> instruction: 0x16000013
    1724:	0e030113 	mcreq	1, 0, r0, cr3, cr3, {0}
    1728:	0b3a050b 	bleq	e82b5c <__bss_end__+0xe78194>
    172c:	1301053b 	movwne	r0, #5435	; 0x153b
    1730:	0d170000 	ldceq	0, cr0, [r7, #-0]
    1734:	3a0e0300 	bcc	38233c <__bss_end__+0x377974>
    1738:	49053b0b 	stmdbmi	r5, {r0, r1, r3, r8, r9, fp, ip, sp}
    173c:	000b3813 	andeq	r3, fp, r3, lsl r8
    1740:	000d1800 	andeq	r1, sp, r0, lsl #16
    1744:	0b3a0e03 	bleq	e84f58 <__bss_end__+0xe7a590>
    1748:	1349053b 	movtne	r0, #38203	; 0x953b
    174c:	00000538 	andeq	r0, r0, r8, lsr r5
    1750:	03011319 	movweq	r1, #4889	; 0x1319
    1754:	3a0b0b0e 	bcc	2c4394 <__bss_end__+0x2b99cc>
    1758:	01053b0b 	tsteq	r5, fp, lsl #22
    175c:	1a000013 	bne	17b0 <__code_start__-0x6850>
    1760:	0b0b0113 	bleq	2c1bb4 <__bss_end__+0x2b71ec>
    1764:	053b0b3a 	ldreq	r0, [fp, #-2874]!	; 0xb3a
    1768:	00001301 	andeq	r1, r0, r1, lsl #6
    176c:	0b01171b 	bleq	473e0 <__bss_end__+0x3ca18>
    1770:	3b0b3a0b 	blcc	2cffa4 <__bss_end__+0x2c55dc>
    1774:	00130105 	andseq	r0, r3, r5, lsl #2
    1778:	000d1c00 	andeq	r1, sp, r0, lsl #24
    177c:	0b3a0e03 	bleq	e84f90 <__bss_end__+0xe7a5c8>
    1780:	1349053b 	movtne	r0, #38203	; 0x953b
    1784:	151d0000 	ldrne	r0, [sp, #-0]
    1788:	01192701 	tsteq	r9, r1, lsl #14
    178c:	1e000013 	mcrne	0, 0, r0, cr0, cr3, {0}
    1790:	0e030034 	mcreq	0, 0, r0, cr3, cr4, {1}
    1794:	053b0b3a 	ldreq	r0, [fp, #-2874]!	; 0xb3a
    1798:	193f1349 	ldmdbne	pc!, {r0, r3, r6, r8, r9, ip}	; <UNPREDICTABLE>
    179c:	0000193c 	andeq	r1, r0, ip, lsr r9
    17a0:	0300341f 	movweq	r3, #1055	; 0x41f
    17a4:	3b0b3a0e 	blcc	2cffe4 <__bss_end__+0x2c561c>
    17a8:	3f13490b 	svccc	0x0013490b
    17ac:	00193c19 	andseq	r3, r9, r9, lsl ip
    17b0:	01042000 	mrseq	r2, (UNDEF: 4)
    17b4:	13490b0b 	movtne	r0, #39691	; 0x9b0b
    17b8:	0b3b0b3a 	bleq	ec44a8 <__bss_end__+0xeb9ae0>
    17bc:	00001301 	andeq	r1, r0, r1, lsl #6
    17c0:	03002821 	movweq	r2, #2081	; 0x821
    17c4:	000b1c0e 	andeq	r1, fp, lr, lsl #24
    17c8:	00342200 	eorseq	r2, r4, r0, lsl #4
    17cc:	0b3a0e03 	bleq	e84fe0 <__bss_end__+0xe7a618>
    17d0:	13490b3b 	movtne	r0, #39739	; 0x9b3b
    17d4:	0000061c 	andeq	r0, r0, ip, lsl r6
    17d8:	3f012e23 	svccc	0x00012e23
    17dc:	3a0e0319 	bcc	382448 <__bss_end__+0x377a80>
    17e0:	270b3b0b 	strcs	r3, [fp, -fp, lsl #22]
    17e4:	11134919 	tstne	r3, r9, lsl r9
    17e8:	40061201 	andmi	r1, r6, r1, lsl #4
    17ec:	19429718 	stmdbne	r2, {r3, r4, r8, r9, sl, ip, pc}^
    17f0:	00001301 	andeq	r1, r0, r1, lsl #6
    17f4:	03000524 	movweq	r0, #1316	; 0x524
    17f8:	3b0b3a08 	blcc	2d0020 <__bss_end__+0x2c5658>
    17fc:	0213490b 	andseq	r4, r3, #180224	; 0x2c000
    1800:	25000017 	strcs	r0, [r0, #-23]
    1804:	0e030034 	mcreq	0, 0, r0, cr3, cr4, {1}
    1808:	0b3b0b3a 	bleq	ec44f8 <__bss_end__+0xeb9b30>
    180c:	17021349 	strne	r1, [r2, -r9, asr #6]
    1810:	34260000 	strtcc	r0, [r6], #-0
    1814:	3a080300 	bcc	20241c <__bss_end__+0x1f7a54>
    1818:	490b3b0b 	stmdbmi	fp, {r0, r1, r3, r8, r9, fp, ip, sp}
    181c:	00170213 	andseq	r0, r7, r3, lsl r2
    1820:	82892700 	addhi	r2, r9, #0, 14
    1824:	01110101 	tsteq	r1, r1, lsl #2
    1828:	00001331 	andeq	r1, r0, r1, lsr r3
    182c:	01828a28 	orreq	r8, r2, r8, lsr #20
    1830:	91180200 	tstls	r8, r0, lsl #4
    1834:	00001842 	andeq	r1, r0, r2, asr #16
    1838:	3f012e29 	svccc	0x00012e29
    183c:	3a0e0319 	bcc	3824a8 <__bss_end__+0x377ae0>
    1840:	270b3b0b 	strcs	r3, [fp, -fp, lsl #22]
    1844:	12011119 	andne	r1, r1, #1073741830	; 0x40000006
    1848:	97184006 	ldrls	r4, [r8, -r6]
    184c:	13011942 	movwne	r1, #6466	; 0x1942
    1850:	892a0000 	stmdbhi	sl!, {}	; <UNPREDICTABLE>
    1854:	11010182 	smlabbne	r1, r2, r1, r0
    1858:	01133101 	tsteq	r3, r1, lsl #2
    185c:	2b000013 	blcs	18b0 <__code_start__-0x6750>
    1860:	00018289 	andeq	r8, r1, r9, lsl #5
    1864:	13310111 	teqne	r1, #1073741828	; 0x40000004
    1868:	052c0000 	streq	r0, [ip, #-0]!
    186c:	3a0e0300 	bcc	382474 <__bss_end__+0x377aac>
    1870:	490b3b0b 	stmdbmi	fp, {r0, r1, r3, r8, r9, fp, ip, sp}
    1874:	00170213 	andseq	r0, r7, r3, lsl r2
    1878:	00342d00 	eorseq	r2, r4, r0, lsl #26
    187c:	0b3a0803 	bleq	e83890 <__bss_end__+0xe78ec8>
    1880:	13490b3b 	movtne	r0, #39739	; 0x9b3b
    1884:	00001802 	andeq	r1, r0, r2, lsl #16
    1888:	3f002e2e 	svccc	0x00002e2e
    188c:	6e193c19 	mrcvs	12, 0, r3, cr9, cr9, {0}
    1890:	3a0e030e 	bcc	3824d0 <__bss_end__+0x377b08>
    1894:	000b3b0b 	andeq	r3, fp, fp, lsl #22
	...

Disassembly of section .debug_loc:

00000000 <.debug_loc>:
       0:	00000000 	andeq	r0, r0, r0
       4:	00000057 	andeq	r0, r0, r7, asr r0
       8:	57500001 	ldrbpl	r0, [r0, -r1]
       c:	78000000 	stmdavc	r0, {}	; <UNPREDICTABLE>
      10:	01000000 	mrseq	r0, (UNDEF: 0)
      14:	00785400 	rsbseq	r5, r8, r0, lsl #8
      18:	00cc0000 	sbceq	r0, ip, r0
      1c:	00010000 	andeq	r0, r1, r0
      20:	0000cc50 	andeq	ip, r0, r0, asr ip
      24:	0000d000 	andeq	sp, r0, r0
      28:	54000100 	strpl	r0, [r0], #-256	; 0x100
      2c:	000000d0 	ldrdeq	r0, [r0], -r0	; <UNPREDICTABLE>
      30:	000000d4 	ldrdeq	r0, [r0], -r4
      34:	d4500001 	ldrble	r0, [r0], #-1
      38:	d8000000 	stmdale	r0, {}	; <UNPREDICTABLE>
      3c:	01000000 	mrseq	r0, (UNDEF: 0)
      40:	00d85400 	sbcseq	r5, r8, r0, lsl #8
      44:	00dc0000 	sbcseq	r0, ip, r0
      48:	00010000 	andeq	r0, r1, r0
      4c:	0000dc50 	andeq	sp, r0, r0, asr ip
      50:	0000e000 	andeq	lr, r0, r0
      54:	54000100 	strpl	r0, [r0], #-256	; 0x100
      58:	000000e0 	andeq	r0, r0, r0, ror #1
      5c:	000000e4 	andeq	r0, r0, r4, ror #1
      60:	e4500001 	ldrb	r0, [r0], #-1
      64:	e8000000 	stmda	r0, {}	; <UNPREDICTABLE>
      68:	01000000 	mrseq	r0, (UNDEF: 0)
      6c:	00e85400 	rsceq	r5, r8, r0, lsl #8
      70:	00ec0000 	rsceq	r0, ip, r0
      74:	00010000 	andeq	r0, r1, r0
      78:	0000ec50 	andeq	lr, r0, r0, asr ip
      7c:	0000f000 	andeq	pc, r0, r0
      80:	54000100 	strpl	r0, [r0], #-256	; 0x100
      84:	000000f0 	strdeq	r0, [r0], -r0	; <UNPREDICTABLE>
      88:	000000f3 	strdeq	r0, [r0], -r3
      8c:	f3500001 	vhadd.u16	d16, d0, d1
      90:	10000000 	andne	r0, r0, r0
      94:	01000001 	tsteq	r0, r1
      98:	01105400 	tsteq	r0, r0, lsl #8
      9c:	01140000 	tsteq	r4, r0
      a0:	00010000 	andeq	r0, r1, r0
      a4:	00011450 	andeq	r1, r1, r0, asr r4
      a8:	00011800 	andeq	r1, r1, r0, lsl #16
      ac:	54000100 	strpl	r0, [r0], #-256	; 0x100
      b0:	00000118 	andeq	r0, r0, r8, lsl r1
      b4:	0000011c 	andeq	r0, r0, ip, lsl r1
      b8:	1c500001 	mrrcne	0, 0, r0, r0, cr1	; <UNPREDICTABLE>
      bc:	24000001 	strcs	r0, [r0], #-1
      c0:	01000001 	tsteq	r0, r1
      c4:	01245400 	teqeq	r4, r0, lsl #8
      c8:	01580000 	cmpeq	r8, r0
      cc:	00040000 	andeq	r0, r4, r0
      d0:	9f5001f3 	svcls	0x005001f3
	...
      dc:	0000000c 	andeq	r0, r0, ip
      e0:	00000057 	andeq	r0, r0, r7, asr r0
      e4:	57500001 	ldrbpl	r0, [r0, -r1]
      e8:	78000000 	stmdavc	r0, {}	; <UNPREDICTABLE>
      ec:	01000000 	mrseq	r0, (UNDEF: 0)
      f0:	00785400 	rsbseq	r5, r8, r0, lsl #8
      f4:	00cc0000 	sbceq	r0, ip, r0
      f8:	00010000 	andeq	r0, r1, r0
      fc:	0000cc50 	andeq	ip, r0, r0, asr ip
     100:	0000d000 	andeq	sp, r0, r0
     104:	54000100 	strpl	r0, [r0], #-256	; 0x100
     108:	000000d0 	ldrdeq	r0, [r0], -r0	; <UNPREDICTABLE>
     10c:	000000d4 	ldrdeq	r0, [r0], -r4
     110:	d4500001 	ldrble	r0, [r0], #-1
     114:	d8000000 	stmdale	r0, {}	; <UNPREDICTABLE>
     118:	01000000 	mrseq	r0, (UNDEF: 0)
     11c:	00d85400 	sbcseq	r5, r8, r0, lsl #8
     120:	00dc0000 	sbcseq	r0, ip, r0
     124:	00010000 	andeq	r0, r1, r0
     128:	0000dc50 	andeq	sp, r0, r0, asr ip
     12c:	0000e000 	andeq	lr, r0, r0
     130:	54000100 	strpl	r0, [r0], #-256	; 0x100
     134:	000000e0 	andeq	r0, r0, r0, ror #1
     138:	000000e4 	andeq	r0, r0, r4, ror #1
     13c:	e4500001 	ldrb	r0, [r0], #-1
     140:	e8000000 	stmda	r0, {}	; <UNPREDICTABLE>
     144:	01000000 	mrseq	r0, (UNDEF: 0)
     148:	00e85400 	rsceq	r5, r8, r0, lsl #8
     14c:	00ec0000 	rsceq	r0, ip, r0
     150:	00010000 	andeq	r0, r1, r0
     154:	0000ec50 	andeq	lr, r0, r0, asr ip
     158:	0000f000 	andeq	pc, r0, r0
     15c:	54000100 	strpl	r0, [r0], #-256	; 0x100
     160:	000000f0 	strdeq	r0, [r0], -r0	; <UNPREDICTABLE>
     164:	000000f3 	strdeq	r0, [r0], -r3
     168:	f3500001 	vhadd.u16	d16, d0, d1
     16c:	10000000 	andne	r0, r0, r0
     170:	01000001 	tsteq	r0, r1
     174:	01105400 	tsteq	r0, r0, lsl #8
     178:	01140000 	tsteq	r4, r0
     17c:	00010000 	andeq	r0, r1, r0
     180:	00011450 	andeq	r1, r1, r0, asr r4
     184:	00011800 	andeq	r1, r1, r0, lsl #16
     188:	54000100 	strpl	r0, [r0], #-256	; 0x100
     18c:	00000118 	andeq	r0, r0, r8, lsl r1
     190:	0000011c 	andeq	r0, r0, ip, lsl r1
     194:	1c500001 	mrrcne	0, 0, r0, r0, cr1	; <UNPREDICTABLE>
     198:	24000001 	strcs	r0, [r0], #-1
     19c:	01000001 	tsteq	r0, r1
     1a0:	01245400 	teqeq	r4, r0, lsl #8
     1a4:	01580000 	cmpeq	r8, r0
     1a8:	00040000 	andeq	r0, r4, r0
     1ac:	9f5001f3 	svcls	0x005001f3
	...
     1b8:	00000158 	andeq	r0, r0, r8, asr r1
     1bc:	00000173 	andeq	r0, r0, r3, ror r1
     1c0:	73500001 	cmpvc	r0, #1
     1c4:	a8000001 	stmdage	r0, {r0}
     1c8:	04000001 	streq	r0, [r0], #-1
     1cc:	5001f300 	andpl	pc, r1, r0, lsl #6
     1d0:	0001a89f 	muleq	r1, pc, r8	; <UNPREDICTABLE>
     1d4:	0001b000 	andeq	fp, r1, r0
     1d8:	50000100 	andpl	r0, r0, r0, lsl #2
     1dc:	000001b0 			; <UNDEFINED> instruction: 0x000001b0
     1e0:	000001f0 	strdeq	r0, [r0], -r0	; <UNPREDICTABLE>
     1e4:	01f30004 	mvnseq	r0, r4
     1e8:	00009f50 	andeq	r9, r0, r0, asr pc
     1ec:	00000000 	andeq	r0, r0, r0
     1f0:	01940000 	orrseq	r0, r4, r0
     1f4:	01a80000 			; <UNDEFINED> instruction: 0x01a80000
     1f8:	00010000 	andeq	r0, r1, r0
     1fc:	0001b453 	andeq	fp, r1, r3, asr r4
     200:	0001c400 	andeq	ip, r1, r0, lsl #8
     204:	53000100 	movwpl	r0, #256	; 0x100
	...
     210:	000001f0 	strdeq	r0, [r0], -r0	; <UNPREDICTABLE>
     214:	0000021c 	andeq	r0, r0, ip, lsl r2
     218:	1c500001 	mrrcne	0, 0, r0, r0, cr1	; <UNPREDICTABLE>
     21c:	5c000002 	stcpl	0, cr0, [r0], {2}
     220:	04000003 	streq	r0, [r0], #-3
     224:	5001f300 	andpl	pc, r1, r0, lsl #6
     228:	0000009f 	muleq	r0, pc, r0	; <UNPREDICTABLE>
     22c:	00000000 	andeq	r0, r0, r0
     230:	0001f000 	andeq	pc, r1, r0
     234:	00022000 	andeq	r2, r2, r0
     238:	51000100 	mrspl	r0, (UNDEF: 16)
     23c:	00000220 	andeq	r0, r0, r0, lsr #4
     240:	00000320 	andeq	r0, r0, r0, lsr #6
     244:	20540001 	subscs	r0, r4, r1
     248:	5c000003 	stcpl	0, cr0, [r0], {3}
     24c:	04000003 	streq	r0, [r0], #-3
     250:	5101f300 	mrspl	pc, SP_irq	; <UNPREDICTABLE>
     254:	0000009f 	muleq	r0, pc, r0	; <UNPREDICTABLE>
     258:	00000000 	andeq	r0, r0, r0
     25c:	0001f000 	andeq	pc, r1, r0
     260:	00022400 	andeq	r2, r2, r0, lsl #8
     264:	52000100 	andpl	r0, r0, #0, 2
     268:	00000224 	andeq	r0, r0, r4, lsr #4
     26c:	0000035c 	andeq	r0, r0, ip, asr r3
     270:	01f30004 	mvnseq	r0, r4
     274:	00009f52 	andeq	r9, r0, r2, asr pc
     278:	00000000 	andeq	r0, r0, r0
     27c:	02300000 	eorseq	r0, r0, #0
     280:	02340000 	eorseq	r0, r4, #0
     284:	00010000 	andeq	r0, r1, r0
     288:	00000053 	andeq	r0, r0, r3, asr r0
     28c:	00000000 	andeq	r0, r0, r0
     290:	00037c00 	andeq	r7, r3, r0, lsl #24
     294:	00042400 	andeq	r2, r4, r0, lsl #8
     298:	54000100 	strpl	r0, [r0], #-256	; 0x100
	...
     2a4:	000003f8 	strdeq	r0, [r0], -r8
     2a8:	00000424 	andeq	r0, r0, r4, lsr #8
     2ac:	00540001 	subseq	r0, r4, r1
     2b0:	00000000 	andeq	r0, r0, r0
     2b4:	28000000 	stmdacs	r0, {}	; <UNPREDICTABLE>
     2b8:	2b000004 	blcs	2d0 <__code_start__-0x7d30>
     2bc:	01000004 	tsteq	r0, r4
     2c0:	00005000 	andeq	r5, r0, r0
     2c4:	00000000 	andeq	r0, r0, r0
     2c8:	04400000 	strbeq	r0, [r0], #-0
     2cc:	044b0000 	strbeq	r0, [fp], #-0
     2d0:	00010000 	andeq	r0, r1, r0
     2d4:	00046c53 	andeq	r6, r4, r3, asr ip
     2d8:	00047000 	andeq	r7, r4, r0
     2dc:	53000100 	movwpl	r0, #256	; 0x100
	...
     2ec:	00000023 	andeq	r0, r0, r3, lsr #32
     2f0:	23500001 	cmpcs	r0, #1
     2f4:	44000000 	strmi	r0, [r0], #-0
     2f8:	04000000 	streq	r0, [r0], #-0
     2fc:	5001f300 	andpl	pc, r1, r0, lsl #6
     300:	0000449f 	muleq	r0, pc, r4	; <UNPREDICTABLE>
     304:	00005f00 	andeq	r5, r0, r0, lsl #30
     308:	50000100 	andpl	r0, r0, r0, lsl #2
     30c:	0000005f 	andeq	r0, r0, pc, asr r0
     310:	00000080 	andeq	r0, r0, r0, lsl #1
     314:	01f30004 	mvnseq	r0, r4
     318:	00809f50 	addeq	r9, r0, r0, asr pc
     31c:	00b00000 	adcseq	r0, r0, r0
     320:	00010000 	andeq	r0, r1, r0
     324:	00000050 	andeq	r0, r0, r0, asr r0
	...
     330:	00002300 	andeq	r2, r0, r0, lsl #6
     334:	51000100 	mrspl	r0, (UNDEF: 16)
     338:	00000023 	andeq	r0, r0, r3, lsr #32
     33c:	00000044 	andeq	r0, r0, r4, asr #32
     340:	01f30004 	mvnseq	r0, r4
     344:	00449f51 	subeq	r9, r4, r1, asr pc
     348:	005f0000 	subseq	r0, pc, r0
     34c:	00010000 	andeq	r0, r1, r0
     350:	00005f51 	andeq	r5, r0, r1, asr pc
     354:	00008000 	andeq	r8, r0, r0
     358:	f3000400 	vshl.u8	d0, d0, d0
     35c:	809f5101 	addshi	r5, pc, r1, lsl #2
     360:	b0000000 	andlt	r0, r0, r0
     364:	01000000 	mrseq	r0, (UNDEF: 0)
     368:	00005100 	andeq	r5, r0, r0, lsl #2
     36c:	00000000 	andeq	r0, r0, r0
     370:	00100000 	andseq	r0, r0, r0
     374:	00230000 	eoreq	r0, r3, r0
     378:	00010000 	andeq	r0, r1, r0
     37c:	00004453 	andeq	r4, r0, r3, asr r4
     380:	00004800 	andeq	r4, r0, r0, lsl #16
     384:	53000100 	movwpl	r0, #256	; 0x100
     388:	00000048 	andeq	r0, r0, r8, asr #32
     38c:	000000b0 	strheq	r0, [r0], -r0	; <UNPREDICTABLE>
     390:	ff0a0004 			; <UNDEFINED> instruction: 0xff0a0004
     394:	00009f01 	andeq	r9, r0, r1, lsl #30
     398:	00000000 	andeq	r0, r0, r0
     39c:	00440000 	subeq	r0, r4, r0
     3a0:	005f0000 	subseq	r0, pc, r0
     3a4:	00010000 	andeq	r0, r1, r0
     3a8:	00005f50 	andeq	r5, r0, r0, asr pc
     3ac:	00008000 	andeq	r8, r0, r0
     3b0:	f3000400 	vshl.u8	d0, d0, d0
     3b4:	809f5001 	addshi	r5, pc, r1
     3b8:	b0000000 	andlt	r0, r0, r0
     3bc:	01000000 	mrseq	r0, (UNDEF: 0)
     3c0:	00005000 	andeq	r5, r0, r0
     3c4:	00000000 	andeq	r0, r0, r0
     3c8:	000c0000 	andeq	r0, ip, r0
     3cc:	00100000 	andseq	r0, r0, r0
     3d0:	00010000 	andeq	r0, r1, r0
     3d4:	00000053 	andeq	r0, r0, r3, asr r0
     3d8:	00000000 	andeq	r0, r0, r0
     3dc:	00001000 	andeq	r1, r0, r0
     3e0:	00002300 	andeq	r2, r0, r0, lsl #6
     3e4:	53000100 	movwpl	r0, #256	; 0x100
     3e8:	00000044 	andeq	r0, r0, r4, asr #32
     3ec:	0000004c 	andeq	r0, r0, ip, asr #32
     3f0:	00530001 	subseq	r0, r3, r1
     3f4:	00000000 	andeq	r0, r0, r0
     3f8:	18000000 	stmdane	r0, {}	; <UNPREDICTABLE>
     3fc:	23000000 	movwcs	r0, #0
     400:	01000000 	mrseq	r0, (UNDEF: 0)
     404:	00445200 	subeq	r5, r4, r0, lsl #4
     408:	00540000 	subseq	r0, r4, r0
     40c:	00010000 	andeq	r0, r1, r0
     410:	00000052 	andeq	r0, r0, r2, asr r0
     414:	00000000 	andeq	r0, r0, r0
     418:	00005400 	andeq	r5, r0, r0, lsl #8
     41c:	00005f00 	andeq	r5, r0, r0, lsl #30
     420:	52000100 	andpl	r0, r0, #0, 2
     424:	00000080 	andeq	r0, r0, r0, lsl #1
     428:	000000b0 	strheq	r0, [r0], -r0	; <UNPREDICTABLE>
     42c:	00520001 	subseq	r0, r2, r1
     430:	00000000 	andeq	r0, r0, r0
     434:	b0000000 	andlt	r0, r0, r0
     438:	d3000000 	movwle	r0, #0
     43c:	01000000 	mrseq	r0, (UNDEF: 0)
     440:	00d35000 	sbcseq	r5, r3, r0
     444:	00ec0000 	rsceq	r0, ip, r0
     448:	00040000 	andeq	r0, r4, r0
     44c:	9f5001f3 	svcls	0x005001f3
     450:	000000ec 	andeq	r0, r0, ip, ror #1
     454:	000000ff 	strdeq	r0, [r0], -pc	; <UNPREDICTABLE>
     458:	ff500001 			; <UNDEFINED> instruction: 0xff500001
     45c:	20000000 	andcs	r0, r0, r0
     460:	04000001 	streq	r0, [r0], #-1
     464:	5001f300 	andpl	pc, r1, r0, lsl #6
     468:	0001209f 	muleq	r1, pc, r0	; <UNPREDICTABLE>
     46c:	00013300 	andeq	r3, r1, r0, lsl #6
     470:	50000100 	andpl	r0, r0, r0, lsl #2
     474:	00000133 	andeq	r0, r0, r3, lsr r1
     478:	00000154 	andeq	r0, r0, r4, asr r1
     47c:	01f30004 	mvnseq	r0, r4
     480:	01549f50 	cmpeq	r4, r0, asr pc
     484:	015c0000 	cmpeq	ip, r0
     488:	00010000 	andeq	r0, r1, r0
     48c:	00015c50 	andeq	r5, r1, r0, asr ip
     490:	00015f00 	andeq	r5, r1, r0, lsl #30
     494:	51000100 	mrspl	r0, (UNDEF: 16)
     498:	0000015f 	andeq	r0, r0, pc, asr r1
     49c:	0000018c 	andeq	r0, r0, ip, lsl #3
     4a0:	01f30004 	mvnseq	r0, r4
     4a4:	00009f50 	andeq	r9, r0, r0, asr pc
     4a8:	00000000 	andeq	r0, r0, r0
     4ac:	00c40000 	sbceq	r0, r4, r0
     4b0:	00c80000 	sbceq	r0, r8, r0
     4b4:	00010000 	andeq	r0, r1, r0
     4b8:	00000053 	andeq	r0, r0, r3, asr r0
     4bc:	00000000 	andeq	r0, r0, r0
     4c0:	0000f000 	andeq	pc, r0, r0
     4c4:	0000f400 	andeq	pc, r0, r0, lsl #8
     4c8:	53000100 	movwpl	r0, #256	; 0x100
     4cc:	000000f4 	strdeq	r0, [r0], -r4
     4d0:	000000ff 	strdeq	r0, [r0], -pc	; <UNPREDICTABLE>
     4d4:	04730003 	ldrbteq	r0, [r3], #-3
     4d8:	0001209f 	muleq	r1, pc, r0	; <UNPREDICTABLE>
     4dc:	00012400 	andeq	r2, r1, r0, lsl #8
     4e0:	73000300 	movwvc	r0, #768	; 0x300
     4e4:	00009f04 	andeq	r9, r0, r4, lsl #30
     4e8:	00000000 	andeq	r0, r0, r0
     4ec:	01d00000 	bicseq	r0, r0, r0
     4f0:	01d80000 	bicseq	r0, r8, r0
     4f4:	00010000 	andeq	r0, r1, r0
     4f8:	0001d853 	andeq	sp, r1, r3, asr r8
     4fc:	0001fc00 	andeq	pc, r1, r0, lsl #24
     500:	0a000400 	beq	1508 <__code_start__-0x6af8>
     504:	009f01e7 	addseq	r0, pc, r7, ror #3
     508:	00000000 	andeq	r0, r0, r0
     50c:	cc000000 	stcgt	0, cr0, [r0], {-0}
     510:	d0000001 	andle	r0, r0, r1
     514:	01000001 	tsteq	r0, r1
     518:	00005300 	andeq	r5, r0, r0, lsl #6
     51c:	00000000 	andeq	r0, r0, r0
     520:	01d00000 	bicseq	r0, r0, r0
     524:	01dc0000 	bicseq	r0, ip, r0
     528:	00010000 	andeq	r0, r1, r0
     52c:	00000053 	andeq	r0, r0, r3, asr r0
     530:	00000000 	andeq	r0, r0, r0
     534:	0001fc00 	andeq	pc, r1, r0, lsl #24
     538:	00021b00 	andeq	r1, r2, r0, lsl #22
     53c:	50000100 	andpl	r0, r0, r0, lsl #2
     540:	0000021b 	andeq	r0, r0, fp, lsl r2
     544:	00000234 	andeq	r0, r0, r4, lsr r2
     548:	01f30004 	mvnseq	r0, r4
     54c:	02349f50 	eorseq	r9, r4, #80, 30	; 0x140
     550:	02470000 	subeq	r0, r7, #0
     554:	00010000 	andeq	r0, r1, r0
     558:	00024750 	andeq	r4, r2, r0, asr r7
     55c:	00026800 	andeq	r6, r2, r0, lsl #16
     560:	f3000400 	vshl.u8	d0, d0, d0
     564:	689f5001 	ldmvs	pc, {r0, ip, lr}	; <UNPREDICTABLE>
     568:	70000002 	andvc	r0, r0, r2
     56c:	01000002 	tsteq	r0, r2
     570:	02705000 	rsbseq	r5, r0, #0
     574:	02730000 	rsbseq	r0, r3, #0
     578:	00010000 	andeq	r0, r1, r0
     57c:	00027351 	andeq	r7, r2, r1, asr r3
     580:	00029400 	andeq	r9, r2, r0, lsl #8
     584:	f3000400 	vshl.u8	d0, d0, d0
     588:	009f5001 	addseq	r5, pc, r1
     58c:	00000000 	andeq	r0, r0, r0
     590:	0c000000 	stceq	0, cr0, [r0], {-0}
     594:	10000002 	andne	r0, r0, r2
     598:	01000002 	tsteq	r0, r2
     59c:	00005300 	andeq	r5, r0, r0, lsl #6
     5a0:	00000000 	andeq	r0, r0, r0
     5a4:	02cc0000 	sbceq	r0, ip, #0
     5a8:	02d40000 	sbcseq	r0, r4, #0
     5ac:	00010000 	andeq	r0, r1, r0
     5b0:	0002d453 	andeq	sp, r2, r3, asr r4
     5b4:	0002f800 	andeq	pc, r2, r0, lsl #16
     5b8:	0c000600 	stceq	6, cr0, [r0], {-0}
     5bc:	004001e7 	subeq	r0, r0, r7, ror #3
     5c0:	0000009f 	muleq	r0, pc, r0	; <UNPREDICTABLE>
     5c4:	00000000 	andeq	r0, r0, r0
     5c8:	0002c800 	andeq	ip, r2, r0, lsl #16
     5cc:	0002cc00 	andeq	ip, r2, r0, lsl #24
     5d0:	53000100 	movwpl	r0, #256	; 0x100
	...
     5dc:	000002cc 	andeq	r0, r0, ip, asr #5
     5e0:	000002d8 	ldrdeq	r0, [r0], -r8
     5e4:	00530001 	subseq	r0, r3, r1
     5e8:	00000000 	andeq	r0, r0, r0
     5ec:	08000000 	stmdaeq	r0, {}	; <UNPREDICTABLE>
     5f0:	30000003 	andcc	r0, r0, r3
     5f4:	01000003 	tsteq	r0, r3
     5f8:	03305000 	teqeq	r0, #0
     5fc:	03380000 	teqeq	r8, #0
     600:	00040000 	andeq	r0, r4, r0
     604:	9f5001f3 	svcls	0x005001f3
     608:	00000338 	andeq	r0, r0, r8, lsr r3
     60c:	0000033c 	andeq	r0, r0, ip, lsr r3
     610:	3c500001 	mrrccc	0, 0, r0, r0, cr1	; <UNPREDICTABLE>
     614:	54000003 	strpl	r0, [r0], #-3
     618:	04000003 	streq	r0, [r0], #-3
     61c:	5001f300 	andpl	pc, r1, r0, lsl #6
     620:	0000009f 	muleq	r0, pc, r0	; <UNPREDICTABLE>
     624:	00000000 	andeq	r0, r0, r0
     628:	00030800 	andeq	r0, r3, r0, lsl #16
     62c:	00033300 	andeq	r3, r3, r0, lsl #6
     630:	51000100 	mrspl	r0, (UNDEF: 16)
     634:	00000333 	andeq	r0, r0, r3, lsr r3
     638:	00000338 	andeq	r0, r0, r8, lsr r3
     63c:	01f30004 	mvnseq	r0, r4
     640:	03389f51 	teqeq	r8, #324	; 0x144
     644:	03400000 	movteq	r0, #0
     648:	00010000 	andeq	r0, r1, r0
     64c:	00034051 	andeq	r4, r3, r1, asr r0
     650:	00035400 	andeq	r5, r3, r0, lsl #8
     654:	f3000400 	vshl.u8	d0, d0, d0
     658:	009f5101 	addseq	r5, pc, r1, lsl #2
     65c:	00000000 	andeq	r0, r0, r0
     660:	14000000 	strne	r0, [r0], #-0
     664:	33000003 	movwcc	r0, #3
     668:	01000003 	tsteq	r0, r3
     66c:	03385300 	teqeq	r8, #0, 6
     670:	03430000 	movteq	r0, #12288	; 0x3000
     674:	00010000 	andeq	r0, r1, r0
     678:	00000053 	andeq	r0, r0, r3, asr r0
	...
     684:	00002400 	andeq	r2, r0, r0, lsl #8
     688:	50000100 	andpl	r0, r0, r0, lsl #2
     68c:	00000024 	andeq	r0, r0, r4, lsr #32
     690:	00000198 	muleq	r0, r8, r1
     694:	01f30004 	mvnseq	r0, r4
     698:	00009f50 	andeq	r9, r0, r0, asr pc
	...
     6a4:	00280000 	eoreq	r0, r8, r0
     6a8:	00010000 	andeq	r0, r1, r0
     6ac:	00002851 	andeq	r2, r0, r1, asr r8
     6b0:	00016400 	andeq	r6, r1, r0, lsl #8
     6b4:	55000100 	strpl	r0, [r0, #-256]	; 0x100
     6b8:	00000164 	andeq	r0, r0, r4, ror #2
     6bc:	00000198 	muleq	r0, r8, r1
     6c0:	01f30004 	mvnseq	r0, r4
     6c4:	00009f51 	andeq	r9, r0, r1, asr pc
	...
     6d0:	002c0000 	eoreq	r0, ip, r0
     6d4:	00010000 	andeq	r0, r1, r0
     6d8:	00002c52 	andeq	r2, r0, r2, asr ip
     6dc:	00019800 	andeq	r9, r1, r0, lsl #16
     6e0:	f3000400 	vshl.u8	d0, d0, d0
     6e4:	009f5201 	addseq	r5, pc, r1, lsl #4
     6e8:	00000000 	andeq	r0, r0, r0
     6ec:	68000000 	stmdavs	r0, {}	; <UNPREDICTABLE>
     6f0:	64000000 	strvs	r0, [r0], #-0
     6f4:	01000001 	tsteq	r0, r1
     6f8:	00005400 	andeq	r5, r0, r0, lsl #8
     6fc:	00000000 	andeq	r0, r0, r0
     700:	00380000 	eorseq	r0, r8, r0
     704:	003c0000 	eorseq	r0, ip, r0
     708:	00010000 	andeq	r0, r1, r0
     70c:	00000053 	andeq	r0, r0, r3, asr r0
     710:	00000000 	andeq	r0, r0, r0
     714:	00019800 	andeq	r9, r1, r0, lsl #16
     718:	0001d400 	andeq	sp, r1, r0, lsl #8
     71c:	50000100 	andpl	r0, r0, r0, lsl #2
     720:	000001d4 	ldrdeq	r0, [r0], -r4
     724:	00000600 	andeq	r0, r0, r0, lsl #12
     728:	00540001 	subseq	r0, r4, r1
     72c:	60000006 	andvs	r0, r0, r6
     730:	04000006 	streq	r0, [r0], #-6
     734:	5001f300 	andpl	pc, r1, r0, lsl #6
     738:	0000009f 	muleq	r0, pc, r0	; <UNPREDICTABLE>
     73c:	00000000 	andeq	r0, r0, r0
     740:	0001a800 	andeq	sl, r1, r0, lsl #16
     744:	0004dc00 	andeq	sp, r4, r0, lsl #24
     748:	58000100 	stmdapl	r0, {r8}
	...
     754:	00000294 	muleq	r0, r4, r2
     758:	000004dc 	ldrdeq	r0, [r0], -ip
     75c:	00580001 	subseq	r0, r8, r1
     760:	00000000 	andeq	r0, r0, r0
     764:	b4000000 	strlt	r0, [r0], #-0
     768:	00000003 	andeq	r0, r0, r3
     76c:	01000006 	tsteq	r0, r6
     770:	00005500 	andeq	r5, r0, r0, lsl #10
     774:	00000000 	andeq	r0, r0, r0
     778:	04d80000 	ldrbeq	r0, [r8], #0
     77c:	04dc0000 	ldrbeq	r0, [ip], #0
     780:	00010000 	andeq	r0, r1, r0
     784:	00000058 	andeq	r0, r0, r8, asr r0
     788:	00000000 	andeq	r0, r0, r0
     78c:	00054800 	andeq	r4, r5, r0, lsl #16
     790:	00054c00 	andeq	r4, r5, r0, lsl #24
     794:	53000100 	movwpl	r0, #256	; 0x100
	...
     7a0:	00000660 	andeq	r0, r0, r0, ror #12
     7a4:	00000670 	andeq	r0, r0, r0, ror r6
     7a8:	70500001 	subsvc	r0, r0, r1
     7ac:	e4000006 	str	r0, [r0], #-6
     7b0:	01000006 	tsteq	r0, r6
     7b4:	00005400 	andeq	r5, r0, r0, lsl #8
     7b8:	00000000 	andeq	r0, r0, r0
     7bc:	06680000 	strbteq	r0, [r8], -r0
     7c0:	06700000 	ldrbteq	r0, [r0], -r0
     7c4:	00020000 	andeq	r0, r2, r0
     7c8:	06709f30 	uhasxeq	r9, r0, r0
     7cc:	06e40000 	strbteq	r0, [r4], r0
     7d0:	00010000 	andeq	r0, r1, r0
     7d4:	00000055 	andeq	r0, r0, r5, asr r0
     7d8:	00000000 	andeq	r0, r0, r0
     7dc:	00070c00 	andeq	r0, r7, r0, lsl #24
     7e0:	00071700 	andeq	r1, r7, r0, lsl #14
     7e4:	50000100 	andpl	r0, r0, r0, lsl #2
     7e8:	00000717 	andeq	r0, r0, r7, lsl r7
     7ec:	00000758 	andeq	r0, r0, r8, asr r7
     7f0:	00540001 	subseq	r0, r4, r1
     7f4:	00000000 	andeq	r0, r0, r0
     7f8:	2c000000 	stccs	0, cr0, [r0], {-0}
     7fc:	38000000 	stmdacc	r0, {}	; <UNPREDICTABLE>
     800:	01000000 	mrseq	r0, (UNDEF: 0)
     804:	00385000 	eorseq	r5, r8, r0
     808:	00480000 	subeq	r0, r8, r0
     80c:	00010000 	andeq	r0, r1, r0
     810:	00004855 	andeq	r4, r0, r5, asr r8
     814:	00005800 	andeq	r5, r0, r0, lsl #16
     818:	50000100 	andpl	r0, r0, r0, lsl #2
	...
     828:	0000000b 	andeq	r0, r0, fp
     82c:	0b500001 	bleq	1400838 <__bss_end__+0x13f5e70>
     830:	14000000 	strne	r0, [r0], #-0
     834:	01000000 	mrseq	r0, (UNDEF: 0)
     838:	00005400 	andeq	r5, r0, r0, lsl #8
	...
     844:	00100000 	andseq	r0, r0, r0
     848:	00010000 	andeq	r0, r1, r0
     84c:	00001050 	andeq	r1, r0, r0, asr r0
     850:	00003400 	andeq	r3, r0, r0, lsl #8
     854:	54000100 	strpl	r0, [r0], #-256	; 0x100
	...
     864:	00000004 	andeq	r0, r0, r4
     868:	04500001 	ldrbeq	r0, [r0], #-1
     86c:	0c000000 	stceq	0, cr0, [r0], {-0}
     870:	03000000 	movweq	r0, #0
     874:	9f307000 	svcls	0x00307000
     878:	0000000c 	andeq	r0, r0, ip
     87c:	00000014 	andeq	r0, r0, r4, lsl r0
     880:	01f30004 	mvnseq	r0, r4
     884:	00009f50 	andeq	r9, r0, r0, asr pc
     888:	00000000 	andeq	r0, r0, r0
     88c:	00140000 	andseq	r0, r4, r0
     890:	00200000 	eoreq	r0, r0, r0
     894:	00010000 	andeq	r0, r1, r0
     898:	00002050 	andeq	r2, r0, r0, asr r0
     89c:	00002c00 	andeq	r2, r0, r0, lsl #24
     8a0:	70000300 	andvc	r0, r0, r0, lsl #6
     8a4:	002c9f01 	eoreq	r9, ip, r1, lsl #30
     8a8:	00400000 	subeq	r0, r0, r0
     8ac:	00010000 	andeq	r0, r1, r0
     8b0:	00000050 	andeq	r0, r0, r0, asr r0
     8b4:	00000000 	andeq	r0, r0, r0
     8b8:	00001400 	andeq	r1, r0, r0, lsl #8
     8bc:	00001800 	andeq	r1, r0, r0, lsl #16
     8c0:	51000100 	mrspl	r0, (UNDEF: 16)
     8c4:	00000018 	andeq	r0, r0, r8, lsl r0
     8c8:	00000040 	andeq	r0, r0, r0, asr #32
     8cc:	01f30004 	mvnseq	r0, r4
     8d0:	00009f51 	andeq	r9, r0, r1, asr pc
     8d4:	00000000 	andeq	r0, r0, r0
     8d8:	00400000 	subeq	r0, r0, r0
     8dc:	00600000 	rsbeq	r0, r0, r0
     8e0:	00010000 	andeq	r0, r1, r0
     8e4:	00006050 	andeq	r6, r0, r0, asr r0
     8e8:	00006c00 	andeq	r6, r0, r0, lsl #24
     8ec:	71000300 	mrsvc	r0, LR_irq
     8f0:	006c9f01 	rsbeq	r9, ip, r1, lsl #30
     8f4:	00740000 	rsbseq	r0, r4, r0
     8f8:	00010000 	andeq	r0, r1, r0
     8fc:	00007451 	andeq	r7, r0, r1, asr r4
     900:	00008000 	andeq	r8, r0, r0
     904:	71000300 	mrsvc	r0, LR_irq
     908:	00009f01 	andeq	r9, r0, r1, lsl #30
     90c:	00000000 	andeq	r0, r0, r0
     910:	00400000 	subeq	r0, r0, r0
     914:	00500000 	subseq	r0, r0, r0
     918:	00010000 	andeq	r0, r1, r0
     91c:	00005051 	andeq	r5, r0, r1, asr r0
     920:	00008000 	andeq	r8, r0, r0
     924:	f3000400 	vshl.u8	d0, d0, d0
     928:	009f5101 	addseq	r5, pc, r1, lsl #2
     92c:	00000000 	andeq	r0, r0, r0
     930:	40000000 	andmi	r0, r0, r0
     934:	58000000 	stmdapl	r0, {}	; <UNPREDICTABLE>
     938:	01000000 	mrseq	r0, (UNDEF: 0)
     93c:	00585200 	subseq	r5, r8, r0, lsl #4
     940:	00640000 	rsbeq	r0, r4, r0
     944:	00010000 	andeq	r0, r1, r0
     948:	00006452 	andeq	r6, r0, r2, asr r4
     94c:	00006800 	andeq	r6, r0, r0, lsl #16
     950:	72000300 	andvc	r0, r0, #0, 6
     954:	00689f01 	rsbeq	r9, r8, r1, lsl #30
     958:	00800000 	addeq	r0, r0, r0
     95c:	00010000 	andeq	r0, r1, r0
     960:	00000052 	andeq	r0, r0, r2, asr r0
     964:	00000000 	andeq	r0, r0, r0
     968:	00004000 	andeq	r4, r0, r0
     96c:	00005400 	andeq	r5, r0, r0, lsl #8
     970:	53000100 	movwpl	r0, #256	; 0x100
     974:	00000054 	andeq	r0, r0, r4, asr r0
     978:	00000078 	andeq	r0, r0, r8, ror r0
     97c:	00530001 	subseq	r0, r3, r1
     980:	00000000 	andeq	r0, r0, r0
     984:	48000000 	stmdami	r0, {}	; <UNPREDICTABLE>
     988:	60000000 	andvs	r0, r0, r0
     98c:	01000000 	mrseq	r0, (UNDEF: 0)
     990:	00605c00 	rsbeq	r5, r0, r0, lsl #24
     994:	00800000 	addeq	r0, r0, r0
     998:	000a0000 	andeq	r0, sl, r0
     99c:	f35201f3 	vbsl	q8, q9, <illegal reg q9.5>
     9a0:	231c5301 	tstcs	ip, #67108864	; 0x4000000
     9a4:	00009f01 	andeq	r9, r0, r1, lsl #30
     9a8:	00000000 	andeq	r0, r0, r0
     9ac:	00800000 	addeq	r0, r0, r0
     9b0:	00a40000 	adceq	r0, r4, r0
     9b4:	00010000 	andeq	r0, r1, r0
     9b8:	0000a450 	andeq	sl, r0, r0, asr r4
     9bc:	00011800 	andeq	r1, r1, r0, lsl #16
     9c0:	70000300 	andvc	r0, r0, r0, lsl #6
     9c4:	01189f02 	tsteq	r8, r2, lsl #30
     9c8:	023c0000 	eorseq	r0, ip, #0
     9cc:	00040000 	andeq	r0, r4, r0
     9d0:	9f5001f3 	svcls	0x005001f3
	...
     9dc:	00000080 	andeq	r0, r0, r0, lsl #1
     9e0:	000000f0 	strdeq	r0, [r0], -r0	; <UNPREDICTABLE>
     9e4:	f0510001 			; <UNDEFINED> instruction: 0xf0510001
     9e8:	60000000 	andvs	r0, r0, r0
     9ec:	01000001 	tsteq	r0, r1
     9f0:	01605500 	cmneq	r0, r0, lsl #10
     9f4:	016c0000 	cmneq	ip, r0
     9f8:	00010000 	andeq	r0, r1, r0
     9fc:	00016c51 	andeq	r6, r1, r1, asr ip
     a00:	0001a000 	andeq	sl, r1, r0
     a04:	55000100 	strpl	r0, [r0, #-256]	; 0x100
     a08:	000001a0 	andeq	r0, r0, r0, lsr #3
     a0c:	000001b4 			; <UNDEFINED> instruction: 0x000001b4
     a10:	b4510001 	ldrblt	r0, [r1], #-1
     a14:	d4000001 	strle	r0, [r0], #-1
     a18:	01000001 	tsteq	r0, r1
     a1c:	01d45500 	bicseq	r5, r4, r0, lsl #10
     a20:	01d70000 	bicseq	r0, r7, r0
     a24:	00010000 	andeq	r0, r1, r0
     a28:	0001d751 	andeq	sp, r1, r1, asr r7
     a2c:	00021c00 	andeq	r1, r2, r0, lsl #24
     a30:	55000100 	strpl	r0, [r0, #-256]	; 0x100
     a34:	0000021c 	andeq	r0, r0, ip, lsl r2
     a38:	0000023c 	andeq	r0, r0, ip, lsr r2
     a3c:	01f30004 	mvnseq	r0, r4
     a40:	00009f51 	andeq	r9, r0, r1, asr pc
     a44:	00000000 	andeq	r0, r0, r0
     a48:	00800000 	addeq	r0, r0, r0
     a4c:	00940000 	addseq	r0, r4, r0
     a50:	00010000 	andeq	r0, r1, r0
     a54:	00009452 	andeq	r9, r0, r2, asr r4
     a58:	00021c00 	andeq	r1, r2, r0, lsl #24
     a5c:	54000100 	strpl	r0, [r0], #-256	; 0x100
     a60:	0000021c 	andeq	r0, r0, ip, lsl r2
     a64:	0000023c 	andeq	r0, r0, ip, lsr r2
     a68:	01f30004 	mvnseq	r0, r4
     a6c:	00009f52 	andeq	r9, r0, r2, asr pc
     a70:	00000000 	andeq	r0, r0, r0
     a74:	00800000 	addeq	r0, r0, r0
     a78:	01000000 	mrseq	r0, (UNDEF: 0)
     a7c:	00010000 	andeq	r0, r1, r0
     a80:	00010453 	andeq	r0, r1, r3, asr r4
     a84:	00010800 	andeq	r0, r1, r0, lsl #16
     a88:	53000100 	movwpl	r0, #256	; 0x100
     a8c:	00000160 	andeq	r0, r0, r0, ror #2
     a90:	00000164 	andeq	r0, r0, r4, ror #2
     a94:	64530001 	ldrbvs	r0, [r3], #-1
     a98:	6c000001 	stcvs	0, cr0, [r0], {1}
     a9c:	01000001 	tsteq	r0, r1
     aa0:	016c5c00 	cmneq	ip, r0, lsl #24
     aa4:	01a00000 	moveq	r0, r0
     aa8:	00040000 	andeq	r0, r4, r0
     aac:	9f5301f3 	svcls	0x005301f3
     ab0:	000001a0 	andeq	r0, r0, r0, lsr #3
     ab4:	000001b0 			; <UNDEFINED> instruction: 0x000001b0
     ab8:	b0530001 	subslt	r0, r3, r1
     abc:	b4000001 	strlt	r0, [r0], #-1
     ac0:	01000001 	tsteq	r0, r1
     ac4:	01b45c00 			; <UNDEFINED> instruction: 0x01b45c00
     ac8:	01d40000 	bicseq	r0, r4, r0
     acc:	00040000 	andeq	r0, r4, r0
     ad0:	9f5301f3 	svcls	0x005301f3
     ad4:	000001d4 	ldrdeq	r0, [r0], -r4
     ad8:	000001d7 	ldrdeq	r0, [r0], -r7
     adc:	d7530001 	ldrble	r0, [r3, -r1]
     ae0:	f8000001 			; <UNDEFINED> instruction: 0xf8000001
     ae4:	04000001 	streq	r0, [r0], #-1
     ae8:	5301f300 	movwpl	pc, #4864	; 0x1300	; <UNPREDICTABLE>
     aec:	0000009f 	muleq	r0, pc, r0	; <UNPREDICTABLE>
     af0:	00000000 	andeq	r0, r0, r0
     af4:	00008000 	andeq	r8, r0, r0
     af8:	00009c00 	andeq	r9, r0, r0, lsl #24
     afc:	91000200 	mrsls	r0, R8_usr
     b00:	00009c00 	andeq	r9, r0, r0, lsl #24
     b04:	0001d700 	andeq	sp, r1, r0, lsl #14
     b08:	52000100 	andpl	r0, r0, #0, 2
     b0c:	000001f8 	strdeq	r0, [r0], -r8
     b10:	000001ff 	strdeq	r0, [r0], -pc	; <UNPREDICTABLE>
     b14:	00520001 	subseq	r0, r2, r1
     b18:	00000000 	andeq	r0, r0, r0
     b1c:	9c000000 	stcls	0, cr0, [r0], {-0}
     b20:	0c000000 	stceq	0, cr0, [r0], {-0}
     b24:	04000001 	streq	r0, [r0], #-1
     b28:	7fa09100 	svcvc	0x00a09100
     b2c:	00010c9f 	muleq	r1, pc, ip	; <UNPREDICTABLE>
     b30:	00011800 	andeq	r1, r1, r0, lsl #16
     b34:	51000100 	mrspl	r0, (UNDEF: 16)
     b38:	00000118 	andeq	r0, r0, r8, lsl r1
     b3c:	0000011c 	andeq	r0, r0, ip, lsl r1
     b40:	1c500001 	mrrcne	0, 0, r0, r0, cr1	; <UNPREDICTABLE>
     b44:	20000001 	andcs	r0, r0, r1
     b48:	01000001 	tsteq	r0, r1
     b4c:	01205100 	teqeq	r0, r0, lsl #2
     b50:	01600000 	cmneq	r0, r0
     b54:	00010000 	andeq	r0, r1, r0
     b58:	00016050 	andeq	r6, r1, r0, asr r0
     b5c:	00016400 	andeq	r6, r1, r0, lsl #8
     b60:	91000400 	tstls	r0, r0, lsl #8
     b64:	649f7fa0 	ldrvs	r7, [pc], #4000	; b6c <__code_start__-0x7494>
     b68:	6c000001 	stcvs	0, cr0, [r0], {1}
     b6c:	01000001 	tsteq	r0, r1
     b70:	016c5300 	cmneq	ip, r0, lsl #6
     b74:	01700000 	cmneq	r0, r0
     b78:	00010000 	andeq	r0, r1, r0
     b7c:	00017050 	andeq	r7, r1, r0, asr r0
     b80:	00017400 	andeq	r7, r1, r0, lsl #8
     b84:	53000100 	movwpl	r0, #256	; 0x100
     b88:	00000174 	andeq	r0, r0, r4, ror r1
     b8c:	00000188 	andeq	r0, r0, r8, lsl #3
     b90:	88500001 	ldmdahi	r0, {r0}^
     b94:	94000001 	strls	r0, [r0], #-1
     b98:	03000001 	movweq	r0, #1
     b9c:	9f017000 	svcls	0x00017000
     ba0:	00000194 	muleq	r0, r4, r1
     ba4:	000001a0 	andeq	r0, r0, r0, lsr #3
     ba8:	a0500001 	subsge	r0, r0, r1
     bac:	a8000001 	stmdage	r0, {r0}
     bb0:	04000001 	streq	r0, [r0], #-1
     bb4:	7fa19100 	svcvc	0x00a19100
     bb8:	0001a89f 	muleq	r1, pc, r8	; <UNPREDICTABLE>
     bbc:	0001ac00 	andeq	sl, r1, r0, lsl #24
     bc0:	50000100 	andpl	r0, r0, r0, lsl #2
     bc4:	000001ac 	andeq	r0, r0, ip, lsr #3
     bc8:	000001b0 			; <UNDEFINED> instruction: 0x000001b0
     bcc:	a0910004 	addsge	r0, r1, r4
     bd0:	01b09f7f 	rorseq	r9, pc, pc
     bd4:	01b80000 			; <UNDEFINED> instruction: 0x01b80000
     bd8:	00010000 	andeq	r0, r1, r0
     bdc:	0001b853 	andeq	fp, r1, r3, asr r8
     be0:	0001d400 	andeq	sp, r1, r0, lsl #8
     be4:	50000100 	andpl	r0, r0, r0, lsl #2
     be8:	000001d4 	ldrdeq	r0, [r0], -r4
     bec:	000001f8 	strdeq	r0, [r0], -r8
     bf0:	a0910004 	addsge	r0, r1, r4
     bf4:	01f89f7f 	mvnseq	r9, pc, ror pc
     bf8:	01ff0000 	mvnseq	r0, r0
     bfc:	00010000 	andeq	r0, r1, r0
     c00:	00000050 	andeq	r0, r0, r0, asr r0
     c04:	00000000 	andeq	r0, r0, r0
     c08:	0000a000 	andeq	sl, r0, r0
     c0c:	0000ec00 	andeq	lr, r0, r0, lsl #24
     c10:	5c000100 	stfpls	f0, [r0], {-0}
     c14:	000000ec 	andeq	r0, r0, ip, ror #1
     c18:	00000100 	andeq	r0, r0, r0, lsl #2
     c1c:	00530001 	subseq	r0, r3, r1
     c20:	04000001 	streq	r0, [r0], #-1
     c24:	01000001 	tsteq	r0, r1
     c28:	01045c00 	tsteq	r4, r0, lsl #24
     c2c:	01080000 	mrseq	r0, (UNDEF: 8)
     c30:	00010000 	andeq	r0, r1, r0
     c34:	00010853 	andeq	r0, r1, r3, asr r8
     c38:	00016000 	andeq	r6, r1, r0
     c3c:	5c000100 	stfpls	f0, [r0], {-0}
     c40:	00000160 	andeq	r0, r0, r0, ror #2
     c44:	00000164 	andeq	r0, r0, r4, ror #2
     c48:	64530001 	ldrbvs	r0, [r3], #-1
     c4c:	80000001 	andhi	r0, r0, r1
     c50:	01000001 	tsteq	r0, r1
     c54:	01805c00 	orreq	r5, r0, r0, lsl #24
     c58:	01840000 	orreq	r0, r4, r0
     c5c:	00050000 	andeq	r0, r5, r0
     c60:	2534007c 	ldrcs	r0, [r4, #-124]!	; 0x7c
     c64:	0001849f 	muleq	r1, pc, r4	; <UNPREDICTABLE>
     c68:	0001a000 	andeq	sl, r1, r0
     c6c:	5c000100 	stfpls	f0, [r0], {-0}
     c70:	000001a0 	andeq	r0, r0, r0, lsr #3
     c74:	000001b0 			; <UNDEFINED> instruction: 0x000001b0
     c78:	b0530001 	subslt	r0, r3, r1
     c7c:	c4000001 	strgt	r0, [r0], #-1
     c80:	01000001 	tsteq	r0, r1
     c84:	01c45c00 	biceq	r5, r4, r0, lsl #24
     c88:	01cc0000 	biceq	r0, ip, r0
     c8c:	00050000 	andeq	r0, r5, r0
     c90:	2531007c 	ldrcs	r0, [r1, #-124]!	; 0x7c
     c94:	0001cc9f 	muleq	r1, pc, ip	; <UNPREDICTABLE>
     c98:	0001d400 	andeq	sp, r1, r0, lsl #8
     c9c:	5c000100 	stfpls	f0, [r0], {-0}
     ca0:	000001d4 	ldrdeq	r0, [r0], -r4
     ca4:	000001d7 	ldrdeq	r0, [r0], -r7
     ca8:	d7530001 	ldrble	r0, [r3, -r1]
     cac:	f8000001 			; <UNDEFINED> instruction: 0xf8000001
     cb0:	04000001 	streq	r0, [r0], #-1
     cb4:	5301f300 	movwpl	pc, #4864	; 0x1300	; <UNPREDICTABLE>
     cb8:	0001f89f 	muleq	r1, pc, r8	; <UNPREDICTABLE>
     cbc:	0001ff00 	andeq	pc, r1, r0, lsl #30
     cc0:	5c000100 	stfpls	f0, [r0], {-0}
	...
     ccc:	000000ec 	andeq	r0, r0, ip, ror #1
     cd0:	000000fc 	strdeq	r0, [r0], -ip
     cd4:	9f300002 	svcls	0x00300002
     cd8:	000000fc 	strdeq	r0, [r0], -ip
     cdc:	00000104 	andeq	r0, r0, r4, lsl #2
     ce0:	9f310002 	svcls	0x00310002
     ce4:	00000104 	andeq	r0, r0, r4, lsl #2
     ce8:	00000108 	andeq	r0, r0, r8, lsl #2
     cec:	9f300002 	svcls	0x00300002
	...
     cf8:	0000023c 	andeq	r0, r0, ip, lsr r2
     cfc:	0000024f 	andeq	r0, r0, pc, asr #4
     d00:	4f500001 	svcmi	0x00500001
     d04:	70000002 	andvc	r0, r0, r2
     d08:	04000002 	streq	r0, [r0], #-2
     d0c:	5001f300 	andpl	pc, r1, r0, lsl #6
     d10:	0002709f 	muleq	r2, pc, r0	; <UNPREDICTABLE>
     d14:	0002a400 	andeq	sl, r2, r0, lsl #8
     d18:	50000100 	andpl	r0, r0, r0, lsl #2
	...
     d24:	0000023c 	andeq	r0, r0, ip, lsr r2
     d28:	0000024f 	andeq	r0, r0, pc, asr #4
     d2c:	4f510001 	svcmi	0x00510001
     d30:	70000002 	andvc	r0, r0, r2
     d34:	04000002 	streq	r0, [r0], #-2
     d38:	5101f300 	mrspl	pc, SP_irq	; <UNPREDICTABLE>
     d3c:	0002709f 	muleq	r2, pc, r0	; <UNPREDICTABLE>
     d40:	0002a400 	andeq	sl, r2, r0, lsl #8
     d44:	51000100 	mrspl	r0, (UNDEF: 16)
	...
     d50:	000002a4 	andeq	r0, r0, r4, lsr #5
     d54:	000002d4 	ldrdeq	r0, [r0], -r4
     d58:	d4500001 	ldrble	r0, [r0], #-1
     d5c:	58000002 	stmdapl	r0, {r1}
     d60:	01000005 	tsteq	r0, r5
     d64:	05585b00 	ldrbeq	r5, [r8, #-2816]	; 0xb00
     d68:	05780000 	ldrbeq	r0, [r8, #-0]!
     d6c:	00040000 	andeq	r0, r4, r0
     d70:	9f5001f3 	svcls	0x005001f3
	...
     d7c:	000002a4 	andeq	r0, r0, r4, lsr #5
     d80:	000002bc 			; <UNDEFINED> instruction: 0x000002bc
     d84:	bc510001 	mrrclt	0, 0, r0, r1, cr1
     d88:	d4000002 	strle	r0, [r0], #-2
     d8c:	03000002 	movweq	r0, #2
     d90:	9f017100 	svcls	0x00017100
     d94:	000002d4 	ldrdeq	r0, [r0], -r4
     d98:	00000578 	andeq	r0, r0, r8, ror r5
     d9c:	01f30004 	mvnseq	r0, r4
     da0:	00009f51 	andeq	r9, r0, r1, asr pc
     da4:	00000000 	andeq	r0, r0, r0
     da8:	02a40000 	adceq	r0, r4, #0
     dac:	02d40000 	sbcseq	r0, r4, #0
     db0:	00010000 	andeq	r0, r1, r0
     db4:	0002d452 	andeq	sp, r2, r2, asr r4
     db8:	00055800 	andeq	r5, r5, r0, lsl #16
     dbc:	56000100 	strpl	r0, [r0], -r0, lsl #2
	...
     dc8:	000002a4 	andeq	r0, r0, r4, lsr #5
     dcc:	000002c4 	andeq	r0, r0, r4, asr #5
     dd0:	00530001 	subseq	r0, r3, r1
     dd4:	00000000 	andeq	r0, r0, r0
     dd8:	b8000000 	stmdalt	r0, {}	; <UNPREDICTABLE>
     ddc:	d4000002 	strle	r0, [r0], #-2
     de0:	01000002 	tsteq	r0, r2
     de4:	02d45000 	sbcseq	r5, r4, #0
     de8:	02d80000 	sbcseq	r0, r8, #0
     dec:	00010000 	andeq	r0, r1, r0
     df0:	0002d854 	andeq	sp, r2, r4, asr r8
     df4:	0002e400 	andeq	lr, r2, r0, lsl #8
     df8:	74000300 	strvc	r0, [r0], #-768	; 0x300
     dfc:	02e49f01 	rsceq	r9, r4, #1, 30
     e00:	02f00000 	rscseq	r0, r0, #0
     e04:	00010000 	andeq	r0, r1, r0
     e08:	0002f054 	andeq	pc, r2, r4, asr r0	; <UNPREDICTABLE>
     e0c:	0002fc00 	andeq	pc, r2, r0, lsl #24
     e10:	74000300 	strvc	r0, [r0], #-768	; 0x300
     e14:	02fc9f01 	rscseq	r9, ip, #1, 30
     e18:	050c0000 	streq	r0, [ip, #-0]
     e1c:	00010000 	andeq	r0, r1, r0
     e20:	00050c54 	andeq	r0, r5, r4, asr ip
     e24:	00051800 	andeq	r1, r5, r0, lsl #16
     e28:	74000300 	strvc	r0, [r0], #-768	; 0x300
     e2c:	05189f01 	ldreq	r9, [r8, #-3841]	; 0xf01
     e30:	05440000 	strbeq	r0, [r4, #-0]
     e34:	00010000 	andeq	r0, r1, r0
     e38:	00054454 	andeq	r4, r5, r4, asr r4
     e3c:	00055000 	andeq	r5, r5, r0
     e40:	50000100 	andpl	r0, r0, r0, lsl #2
     e44:	00000550 	andeq	r0, r0, r0, asr r5
     e48:	00000558 	andeq	r0, r0, r8, asr r5
     e4c:	01740003 	cmneq	r4, r3
     e50:	0000009f 	muleq	r0, pc, r0	; <UNPREDICTABLE>
     e54:	00000000 	andeq	r0, r0, r0
     e58:	0002c000 	andeq	ip, r2, r0
     e5c:	00055800 	andeq	r5, r5, r0, lsl #16
     e60:	58000100 	stmdapl	r0, {r8}
     e64:	00000558 	andeq	r0, r0, r8, asr r5
     e68:	00000578 	andeq	r0, r0, r8, ror r5
     e6c:	01f3000a 	mvnseq	r0, sl
     e70:	5001f351 	andpl	pc, r1, r1, asr r3	; <UNPREDICTABLE>
     e74:	9f1c3122 	svcls	0x001c3122
	...
     e80:	000002c8 	andeq	r0, r0, r8, asr #5
     e84:	000002d4 	ldrdeq	r0, [r0], -r4
     e88:	d4520001 	ldrble	r0, [r2], #-1
     e8c:	78000002 	stmdavc	r0, {r1}
     e90:	03000005 	movweq	r0, #5
     e94:	7ecc9100 	acsvce	f1, f0
	...
     ea0:	00000410 	andeq	r0, r0, r0, lsl r4
     ea4:	00000414 	andeq	r0, r0, r4, lsl r4
     ea8:	38500001 	ldmdacc	r0, {r0}^
     eac:	3c000004 	stccc	0, cr0, [r0], {4}
     eb0:	01000004 	tsteq	r0, r4
     eb4:	04605000 	strbteq	r5, [r0], #-0
     eb8:	04640000 	strbteq	r0, [r4], #-0
     ebc:	00010000 	andeq	r0, r1, r0
     ec0:	00048850 	andeq	r8, r4, r0, asr r8
     ec4:	00048c00 	andeq	r8, r4, r0, lsl #24
     ec8:	50000100 	andpl	r0, r0, r0, lsl #2
     ecc:	00000494 	muleq	r0, r4, r4
     ed0:	00000498 	muleq	r0, r8, r4
     ed4:	bc500001 	mrrclt	0, 0, r0, r0, cr1	; <UNPREDICTABLE>
     ed8:	c0000004 	andgt	r0, r0, r4
     edc:	01000004 	tsteq	r0, r4
     ee0:	05045000 	streq	r5, [r4, #-0]
     ee4:	052c0000 	streq	r0, [ip, #-0]!
     ee8:	00010000 	andeq	r0, r1, r0
     eec:	00000050 	andeq	r0, r0, r0, asr r0
     ef0:	00000000 	andeq	r0, r0, r0
     ef4:	00030400 	andeq	r0, r3, r0, lsl #8
     ef8:	00030c00 	andeq	r0, r3, r0, lsl #24
     efc:	30000200 	andcc	r0, r0, r0, lsl #4
     f00:	00030c9f 	muleq	r3, pc, ip	; <UNPREDICTABLE>
     f04:	00031000 	andeq	r1, r3, r0
     f08:	57000100 	strpl	r0, [r0, -r0, lsl #2]
     f0c:	0000031c 	andeq	r0, r0, ip, lsl r3
     f10:	0000052c 	andeq	r0, r0, ip, lsr #10
     f14:	00570001 	subseq	r0, r7, r1
     f18:	00000000 	andeq	r0, r0, r0
     f1c:	04000000 	streq	r0, [r0], #-0
     f20:	08000000 	stmdaeq	r0, {}	; <UNPREDICTABLE>
     f24:	07000000 	streq	r0, [r0, -r0]
     f28:	0a007300 	beq	1db30 <__bss_end__+0x13168>
     f2c:	9f211000 	svcls	0x00211000
     f30:	00000008 	andeq	r0, r0, r8
     f34:	00000010 	andeq	r0, r0, r0, lsl r0
     f38:	00530001 	subseq	r0, r3, r1
     f3c:	00000000 	andeq	r0, r0, r0
     f40:	14000000 	strne	r0, [r0], #-0
     f44:	18000000 	stmdane	r0, {}	; <UNPREDICTABLE>
     f48:	07000000 	streq	r0, [r0, -r0]
     f4c:	0b007300 	bleq	1db54 <__bss_end__+0x1318c>
     f50:	9f1aefff 	svcls	0x001aefff
     f54:	00000018 	andeq	r0, r0, r8, lsl r0
     f58:	00000020 	andeq	r0, r0, r0, lsr #32
     f5c:	00530001 	subseq	r0, r3, r1
     f60:	00000000 	andeq	r0, r0, r0
     f64:	14000000 	strne	r0, [r0], #-0
     f68:	1c000000 	stcne	0, cr0, [r0], {-0}
     f6c:	03000000 	movweq	r0, #0
     f70:	9f047300 	svcls	0x00047300
     f74:	0000001c 	andeq	r0, r0, ip, lsl r0
     f78:	00000027 	andeq	r0, r0, r7, lsr #32
     f7c:	00530001 	subseq	r0, r3, r1
	...
     f88:	0f000000 	svceq	0x00000000
     f8c:	01000000 	mrseq	r0, (UNDEF: 0)
     f90:	000f5000 	andeq	r5, pc, r0
     f94:	00440000 	subeq	r0, r4, r0
     f98:	00010000 	andeq	r0, r1, r0
     f9c:	00000054 	andeq	r0, r0, r4, asr r0
	...
     fa8:	00000f00 	andeq	r0, r0, r0, lsl #30
     fac:	50000100 	andpl	r0, r0, r0, lsl #2
     fb0:	0000000f 	andeq	r0, r0, pc
     fb4:	00000044 	andeq	r0, r0, r4, asr #32
     fb8:	00540001 	subseq	r0, r4, r1
	...
     fc4:	0f000000 	svceq	0x00000000
     fc8:	01000000 	mrseq	r0, (UNDEF: 0)
     fcc:	000f5000 	andeq	r5, pc, r0
     fd0:	00440000 	subeq	r0, r4, r0
     fd4:	00010000 	andeq	r0, r1, r0
     fd8:	00000054 	andeq	r0, r0, r4, asr r0
     fdc:	00000000 	andeq	r0, r0, r0
     fe0:	00003400 	andeq	r3, r0, r0, lsl #8
     fe4:	00004000 	andeq	r4, r0, r0
     fe8:	30000200 	andcc	r0, r0, r0, lsl #4
     fec:	0000409f 	muleq	r0, pc, r0	; <UNPREDICTABLE>
     ff0:	00006c00 	andeq	r6, r0, r0, lsl #24
     ff4:	53000100 	movwpl	r0, #256	; 0x100
	...
    1000:	000098e4 	andeq	r9, r0, r4, ror #17
    1004:	000098e8 	andeq	r9, r0, r8, ror #17
    1008:	9f300002 	svcls	0x00300002
    100c:	000098e8 	andeq	r9, r0, r8, ror #17
    1010:	000098ec 	andeq	r9, r0, ip, ror #17
    1014:	00500001 	subseq	r0, r0, r1
    1018:	00000000 	andeq	r0, r0, r0
    101c:	fc000000 	stc2	0, cr0, [r0], {-0}
    1020:	00000098 	muleq	r0, r8, r0
    1024:	02000099 	andeq	r0, r0, #153	; 0x99
    1028:	009f3000 	addseq	r3, pc, r0
    102c:	04000099 	streq	r0, [r0], #-153	; 0x99
    1030:	01000099 	swpeq	r0, r9, [r0]	; <UNPREDICTABLE>
    1034:	99085300 	stmdbls	r8, {r8, r9, ip, lr}
    1038:	99100000 	ldmdbls	r0, {}	; <UNPREDICTABLE>
    103c:	00010000 	andeq	r0, r1, r0
    1040:	00000053 	andeq	r0, r0, r3, asr r0
	...
    104c:	00000400 	andeq	r0, r0, r0, lsl #8
    1050:	50000100 	andpl	r0, r0, r0, lsl #2
    1054:	00000004 	andeq	r0, r0, r4
    1058:	0000000c 	andeq	r0, r0, ip
    105c:	0c530001 	mrrceq	0, 0, r0, r3, cr1
    1060:	10000000 	andne	r0, r0, r0
    1064:	01000000 	mrseq	r0, (UNDEF: 0)
    1068:	00105000 	andseq	r5, r0, r0
    106c:	001c0000 	andseq	r0, ip, r0
    1070:	00010000 	andeq	r0, r1, r0
    1074:	00000053 	andeq	r0, r0, r3, asr r0
    1078:	00000000 	andeq	r0, r0, r0
    107c:	00004000 	andeq	r4, r0, r0
    1080:	00004300 	andeq	r4, r0, r0, lsl #6
    1084:	50000100 	andpl	r0, r0, r0, lsl #2
    1088:	00000043 	andeq	r0, r0, r3, asr #32
    108c:	0000004c 	andeq	r0, r0, ip, asr #32
    1090:	00540001 	subseq	r0, r4, r1
    1094:	00000000 	andeq	r0, r0, r0
    1098:	4c000000 	stcmi	0, cr0, [r0], {-0}
    109c:	57000000 	strpl	r0, [r0, -r0]
    10a0:	01000000 	mrseq	r0, (UNDEF: 0)
    10a4:	00575000 	subseq	r5, r7, r0
    10a8:	00700000 	rsbseq	r0, r0, r0
    10ac:	00010000 	andeq	r0, r1, r0
    10b0:	00000055 	andeq	r0, r0, r5, asr r0
    10b4:	00000000 	andeq	r0, r0, r0
    10b8:	00006000 	andeq	r6, r0, r0
    10bc:	00006400 	andeq	r6, r0, r0, lsl #8
    10c0:	50000100 	andpl	r0, r0, r0, lsl #2
	...
    10cc:	00000070 	andeq	r0, r0, r0, ror r0
    10d0:	0000007c 	andeq	r0, r0, ip, ror r0
    10d4:	7c500001 	mrrcvc	0, 0, r0, r0, cr1	; <UNPREDICTABLE>
    10d8:	84000000 	strhi	r0, [r0], #-0
    10dc:	04000000 	streq	r0, [r0], #-0
    10e0:	5001f300 	andpl	pc, r1, r0, lsl #6
    10e4:	0000009f 	muleq	r0, pc, r0	; <UNPREDICTABLE>
    10e8:	00000000 	andeq	r0, r0, r0
    10ec:	00008400 	andeq	r8, r0, r0, lsl #8
    10f0:	00009000 	andeq	r9, r0, r0
    10f4:	50000100 	andpl	r0, r0, r0, lsl #2
    10f8:	00000090 	muleq	r0, r0, r0
    10fc:	00000098 	muleq	r0, r8, r0
    1100:	01f30004 	mvnseq	r0, r4
    1104:	00009f50 	andeq	r9, r0, r0, asr pc
    1108:	00000000 	andeq	r0, r0, r0
    110c:	01380000 	teqeq	r8, r0
    1110:	01430000 	mrseq	r0, (UNDEF: 67)
    1114:	00010000 	andeq	r0, r1, r0
    1118:	00014350 	andeq	r4, r1, r0, asr r3
    111c:	00016800 	andeq	r6, r1, r0, lsl #16
    1120:	54000100 	strpl	r0, [r0], #-256	; 0x100
	...
    1130:	0000000f 	andeq	r0, r0, pc
    1134:	0f500001 	svceq	0x00500001
    1138:	20000000 	andcs	r0, r0, r0
    113c:	01000000 	mrseq	r0, (UNDEF: 0)
    1140:	00005400 	andeq	r5, r0, r0, lsl #8
	...
    114c:	000f0000 	andeq	r0, pc, r0
    1150:	00010000 	andeq	r0, r1, r0
    1154:	00000f51 	andeq	r0, r0, r1, asr pc
    1158:	00002000 	andeq	r2, r0, r0
    115c:	55000100 	strpl	r0, [r0, #-256]	; 0x100
	...
    1168:	000000ec 	andeq	r0, r0, ip, ror #1
    116c:	00000104 	andeq	r0, r0, r4, lsl #2
    1170:	04500001 	ldrbeq	r0, [r0], #-1
    1174:	14000001 	strne	r0, [r0], #-1
    1178:	04000001 	streq	r0, [r0], #-1
    117c:	5001f300 	andpl	pc, r1, r0, lsl #6
    1180:	0001149f 	muleq	r1, pc, r4	; <UNPREDICTABLE>
    1184:	00011800 	andeq	r1, r1, r0, lsl #16
    1188:	50000100 	andpl	r0, r0, r0, lsl #2
    118c:	00000118 	andeq	r0, r0, r8, lsl r1
    1190:	00000120 	andeq	r0, r0, r0, lsr #2
    1194:	01f30004 	mvnseq	r0, r4
    1198:	00009f50 	andeq	r9, r0, r0, asr pc
    119c:	00000000 	andeq	r0, r0, r0
    11a0:	00f80000 	rscseq	r0, r8, r0
    11a4:	01040000 	mrseq	r0, (UNDEF: 4)
    11a8:	000b0000 	andeq	r0, fp, r0
    11ac:	25350070 	ldrcs	r0, [r5, #-112]!	; 0x70
    11b0:	8080b423 	addhi	fp, r0, r3, lsr #8
    11b4:	049f0281 	ldreq	r0, [pc], #641	; 11bc <__code_start__-0x6e44>
    11b8:	07000001 	streq	r0, [r0, -r1]
    11bc:	01000001 	tsteq	r0, r1
    11c0:	01075000 	mrseq	r5, (UNDEF: 7)
    11c4:	01140000 	tsteq	r4, r0
    11c8:	000c0000 	andeq	r0, ip, r0
    11cc:	355001f3 	ldrbcc	r0, [r0, #-499]	; 0x1f3
    11d0:	80b42325 	adcshi	r2, r4, r5, lsr #6
    11d4:	9f028180 	svcls	0x00028180
	...
    11e0:	000000fc 	strdeq	r0, [r0], -ip
    11e4:	00000114 	andeq	r0, r0, r4, lsl r1
    11e8:	00540001 	subseq	r0, r4, r1
    11ec:	00000000 	andeq	r0, r0, r0
    11f0:	d0000000 	andle	r0, r0, r0
    11f4:	df000000 	svcle	0x00000000
    11f8:	01000000 	mrseq	r0, (UNDEF: 0)
    11fc:	00df5000 	sbcseq	r5, pc, r0
    1200:	00e40000 	rsceq	r0, r4, r0
    1204:	00040000 	andeq	r0, r4, r0
    1208:	9f5001f3 	svcls	0x005001f3
    120c:	000000e4 	andeq	r0, r0, r4, ror #1
    1210:	000000e7 	andeq	r0, r0, r7, ror #1
    1214:	e7500001 	ldrb	r0, [r0, -r1]
    1218:	ec000000 	stc	0, cr0, [r0], {-0}
    121c:	04000000 	streq	r0, [r0], #-0
    1220:	5001f300 	andpl	pc, r1, r0, lsl #6
    1224:	0000009f 	muleq	r0, pc, r0	; <UNPREDICTABLE>
    1228:	00000000 	andeq	r0, r0, r0
    122c:	0000d000 	andeq	sp, r0, r0
    1230:	0000df00 	andeq	sp, r0, r0, lsl #30
    1234:	51000100 	mrspl	r0, (UNDEF: 16)
    1238:	000000df 	ldrdeq	r0, [r0], -pc	; <UNPREDICTABLE>
    123c:	000000e4 	andeq	r0, r0, r4, ror #1
    1240:	01f30004 	mvnseq	r0, r4
    1244:	00e49f51 	rsceq	r9, r4, r1, asr pc
    1248:	00e70000 	rsceq	r0, r7, r0
    124c:	00010000 	andeq	r0, r1, r0
    1250:	0000e751 	andeq	lr, r0, r1, asr r7
    1254:	0000ec00 	andeq	lr, r0, r0, lsl #24
    1258:	f3000400 	vshl.u8	d0, d0, d0
    125c:	009f5101 	addseq	r5, pc, r1, lsl #2
    1260:	00000000 	andeq	r0, r0, r0
    1264:	c0000000 	andgt	r0, r0, r0
    1268:	cb000000 	blgt	1270 <__code_start__-0x6d90>
    126c:	01000000 	mrseq	r0, (UNDEF: 0)
    1270:	00cb5000 	sbceq	r5, fp, r0
    1274:	00d00000 	sbcseq	r0, r0, r0
    1278:	00040000 	andeq	r0, r4, r0
    127c:	9f5001f3 	svcls	0x005001f3
	...
    1288:	0000009c 	muleq	r0, ip, r0
    128c:	000000b4 	strheq	r0, [r0], -r4
    1290:	b4500001 	ldrblt	r0, [r0], #-1
    1294:	c0000000 	andgt	r0, r0, r0
    1298:	04000000 	streq	r0, [r0], #-0
    129c:	5001f300 	andpl	pc, r1, r0, lsl #6
    12a0:	0000009f 	muleq	r0, pc, r0	; <UNPREDICTABLE>
    12a4:	00000000 	andeq	r0, r0, r0
    12a8:	00007800 	andeq	r7, r0, r0, lsl #16
    12ac:	00009000 	andeq	r9, r0, r0
    12b0:	50000100 	andpl	r0, r0, r0, lsl #2
    12b4:	00000090 	muleq	r0, r0, r0
    12b8:	0000009c 	muleq	r0, ip, r0
    12bc:	01f30004 	mvnseq	r0, r4
    12c0:	00009f50 	andeq	r9, r0, r0, asr pc
    12c4:	00000000 	andeq	r0, r0, r0
    12c8:	00680000 	rsbeq	r0, r8, r0
    12cc:	00730000 	rsbseq	r0, r3, r0
    12d0:	00010000 	andeq	r0, r1, r0
    12d4:	00007350 	andeq	r7, r0, r0, asr r3
    12d8:	00007800 	andeq	r7, r0, r0, lsl #16
    12dc:	f3000400 	vshl.u8	d0, d0, d0
    12e0:	009f5001 	addseq	r5, pc, r1
	...
    12ec:	48000000 	stmdami	r0, {}	; <UNPREDICTABLE>
    12f0:	01000000 	mrseq	r0, (UNDEF: 0)
    12f4:	00485000 	subeq	r5, r8, r0
    12f8:	00680000 	rsbeq	r0, r8, r0
    12fc:	00040000 	andeq	r0, r4, r0
    1300:	9f5001f3 	svcls	0x005001f3
	...
    1310:	0000004b 	andeq	r0, r0, fp, asr #32
    1314:	4b510001 	blmi	1441320 <__bss_end__+0x1436958>
    1318:	68000000 	stmdavs	r0, {}	; <UNPREDICTABLE>
    131c:	04000000 	streq	r0, [r0], #-0
    1320:	5101f300 	mrspl	pc, SP_irq	; <UNPREDICTABLE>
    1324:	0000009f 	muleq	r0, pc, r0	; <UNPREDICTABLE>
    1328:	00000000 	andeq	r0, r0, r0
    132c:	00004c00 	andeq	r4, r0, r0, lsl #24
    1330:	00005400 	andeq	r5, r0, r0, lsl #8
    1334:	50000100 	andpl	r0, r0, r0, lsl #2
    1338:	00000054 	andeq	r0, r0, r4, asr r0
    133c:	00000058 	andeq	r0, r0, r8, asr r0
    1340:	00750009 	rsbseq	r0, r5, r9
    1344:	71240074 	teqvc	r4, r4, ror r0
    1348:	589f2100 	ldmpl	pc, {r8, sp}	; <UNPREDICTABLE>
    134c:	5f000000 	svcpl	0x00000000
    1350:	01000000 	mrseq	r0, (UNDEF: 0)
    1354:	00005100 	andeq	r5, r0, r0, lsl #2
    1358:	00000000 	andeq	r0, r0, r0
	...

Disassembly of section .debug_aranges:

00000000 <.debug_aranges>:
   0:	0000001c 	andeq	r0, r0, ip, lsl r0
   4:	00000002 	andeq	r0, r0, r2
   8:	00040000 	andeq	r0, r4, r0
   c:	00000000 	andeq	r0, r0, r0
  10:	00008020 	andeq	r8, r0, r0, lsr #32
  14:	000004fc 	strdeq	r0, [r0], -ip
	...
  20:	0000001c 	andeq	r0, r0, ip, lsl r0
  24:	0af40002 	beq	ffd00034 <__bss_end__+0xffcf566c>
  28:	00040000 	andeq	r0, r4, r0
  2c:	00000000 	andeq	r0, r0, r0
  30:	0000851c 	andeq	r8, r0, ip, lsl r5
  34:	00000354 	andeq	r0, r0, r4, asr r3
	...
  40:	0000001c 	andeq	r0, r0, ip, lsl r0
  44:	16e60002 	strbtne	r0, [r6], r2
  48:	00040000 	andeq	r0, r4, r0
  4c:	00000000 	andeq	r0, r0, r0
  50:	00008988 	andeq	r8, r0, r8, lsl #19
  54:	00000758 	andeq	r0, r0, r8, asr r7
	...
  60:	0000001c 	andeq	r0, r0, ip, lsl r0
  64:	25cd0002 	strbcs	r0, [sp, #2]
  68:	00040000 	andeq	r0, r4, r0
  6c:	00000000 	andeq	r0, r0, r0
  70:	000090e0 	andeq	r9, r0, r0, ror #1
  74:	00000058 	andeq	r0, r0, r8, asr r0
	...
  80:	0000001c 	andeq	r0, r0, ip, lsl r0
  84:	27620002 	strbcs	r0, [r2, -r2]!
  88:	00040000 	andeq	r0, r4, r0
  8c:	00000000 	andeq	r0, r0, r0
  90:	00009138 	andeq	r9, r0, r8, lsr r1
  94:	0000003c 	andeq	r0, r0, ip, lsr r0
	...
  a0:	0000001c 	andeq	r0, r0, ip, lsl r0
  a4:	28790002 	ldmdacs	r9!, {r1}^
  a8:	00040000 	andeq	r0, r4, r0
  ac:	00000000 	andeq	r0, r0, r0
  b0:	00009174 	andeq	r9, r0, r4, ror r1
  b4:	00000034 	andeq	r0, r0, r4, lsr r0
	...
  c0:	0000001c 	andeq	r0, r0, ip, lsl r0
  c4:	296b0002 	stmdbcs	fp!, {r1}^
  c8:	00040000 	andeq	r0, r4, r0
  cc:	00000000 	andeq	r0, r0, r0
  d0:	000091a8 	andeq	r9, r0, r8, lsr #3
  d4:	00000578 	andeq	r0, r0, r8, ror r5
	...
  e0:	0000001c 	andeq	r0, r0, ip, lsl r0
  e4:	30540002 	subscc	r0, r4, r2
  e8:	00040000 	andeq	r0, r4, r0
  ec:	00000000 	andeq	r0, r0, r0
  f0:	00009720 	andeq	r9, r0, r0, lsr #14
  f4:	00000020 	andeq	r0, r0, r0, lsr #32
	...
 100:	0000001c 	andeq	r0, r0, ip, lsl r0
 104:	31100002 	tstcc	r0, r2
 108:	00040000 	andeq	r0, r4, r0
 10c:	00000000 	andeq	r0, r0, r0
 110:	00009740 	andeq	r9, r0, r0, asr #14
 114:	0000002c 	andeq	r0, r0, ip, lsr #32
	...
 120:	0000001c 	andeq	r0, r0, ip, lsl r0
 124:	32230002 	eorcc	r0, r3, #2
 128:	00040000 	andeq	r0, r4, r0
 12c:	00000000 	andeq	r0, r0, r0
 130:	0000976c 	andeq	r9, r0, ip, ror #14
 134:	00000038 	andeq	r0, r0, r8, lsr r0
	...
 140:	0000001c 	andeq	r0, r0, ip, lsl r0
 144:	33360002 	teqcc	r6, #2
 148:	00040000 	andeq	r0, r4, r0
 14c:	00000000 	andeq	r0, r0, r0
 150:	000097a4 	andeq	r9, r0, r4, lsr #15
 154:	00000044 	andeq	r0, r0, r4, asr #32
	...
 160:	0000001c 	andeq	r0, r0, ip, lsl r0
 164:	34780002 	ldrbtcc	r0, [r8], #-2
 168:	00040000 	andeq	r0, r4, r0
 16c:	00000000 	andeq	r0, r0, r0
 170:	000097e8 	andeq	r9, r0, r8, ror #15
 174:	00000044 	andeq	r0, r0, r4, asr #32
	...
 180:	0000001c 	andeq	r0, r0, ip, lsl r0
 184:	35ba0002 	ldrcc	r0, [sl, #2]!
 188:	00040000 	andeq	r0, r4, r0
 18c:	00000000 	andeq	r0, r0, r0
 190:	0000982c 	andeq	r9, r0, ip, lsr #16
 194:	00000044 	andeq	r0, r0, r4, asr #32
	...
 1a0:	0000001c 	andeq	r0, r0, ip, lsl r0
 1a4:	36fc0002 	ldrbtcc	r0, [ip], r2
 1a8:	00040000 	andeq	r0, r4, r0
 1ac:	00000000 	andeq	r0, r0, r0
 1b0:	00009870 	andeq	r9, r0, r0, ror r8
 1b4:	00000008 	andeq	r0, r0, r8
	...
 1c0:	0000001c 	andeq	r0, r0, ip, lsl r0
 1c4:	37980002 	ldrcc	r0, [r8, r2]
 1c8:	00040000 	andeq	r0, r4, r0
 1cc:	00000000 	andeq	r0, r0, r0
 1d0:	00009878 	andeq	r9, r0, r8, ror r8
 1d4:	0000006c 	andeq	r0, r0, ip, rrx
	...
 1e0:	0000001c 	andeq	r0, r0, ip, lsl r0
 1e4:	39730002 	ldmdbcc	r3!, {r1}^
 1e8:	00040000 	andeq	r0, r4, r0
 1ec:	00000000 	andeq	r0, r0, r0
 1f0:	000098e4 	andeq	r9, r0, r4, ror #17
 1f4:	00000074 	andeq	r0, r0, r4, ror r0
	...
 200:	0000001c 	andeq	r0, r0, ip, lsl r0
 204:	3b240002 	blcc	900214 <__bss_end__+0x8f584c>
 208:	00040000 	andeq	r0, r4, r0
 20c:	00000000 	andeq	r0, r0, r0
 210:	00009958 	andeq	r9, r0, r8, asr r9
 214:	00000098 	muleq	r0, r8, r0
	...
 220:	0000001c 	andeq	r0, r0, ip, lsl r0
 224:	3d1f0002 	ldccc	0, cr0, [pc, #-8]	; 224 <__code_start__-0x7ddc>
 228:	00040000 	andeq	r0, r4, r0
 22c:	00000000 	andeq	r0, r0, r0
 230:	00009a54 	andeq	r9, r0, r4, asr sl
 234:	00000178 	andeq	r0, r0, r8, ror r1
	...
 240:	0000001c 	andeq	r0, r0, ip, lsl r0
 244:	49e80002 	stmibmi	r8!, {r1}^
 248:	00040000 	andeq	r0, r4, r0
 24c:	00000000 	andeq	r0, r0, r0
 250:	00009bcc 	andeq	r9, r0, ip, asr #23
 254:	00000120 	andeq	r0, r0, r0, lsr #2
	...

Disassembly of section .debug_ranges:

00000000 <.debug_ranges>:
   0:	00000194 	muleq	r0, r4, r1
   4:	000001a8 	andeq	r0, r0, r8, lsr #3
   8:	000001ac 	andeq	r0, r0, ip, lsr #3
   c:	000001bc 			; <UNDEFINED> instruction: 0x000001bc
	...
  18:	000098e4 	andeq	r9, r0, r4, ror #17
  1c:	00009958 	andeq	r9, r0, r8, asr r9
	...

Disassembly of section .debug_line:

00000000 <.debug_line>:
       0:	00000219 	andeq	r0, r0, r9, lsl r2
       4:	012b0002 	teqeq	fp, r2
       8:	01020000 	mrseq	r0, (UNDEF: 2)
       c:	000d0efb 	strdeq	r0, [sp], -fp
      10:	01010101 	tsteq	r1, r1, lsl #2
      14:	01000000 	mrseq	r0, (UNDEF: 0)
      18:	2e010000 	cdpcs	0, 0, cr0, cr1, cr0, {0}
      1c:	73657400 	cmnvc	r5, #0, 8
      20:	2f007374 	svccs	0x00007374
      24:	72657355 	rsbvc	r7, r5, #1409286145	; 0x54000001
      28:	72622f73 	rsbvc	r2, r2, #460	; 0x1cc
      2c:	6a6e6169 	bvs	1b985d8 <__bss_end__+0x1b8dc10>
      30:	442f6e75 	strtmi	r6, [pc], #-3701	; 38 <__code_start__-0x7fc8>
      34:	746b7365 	strbtvc	r7, [fp], #-869	; 0x365
      38:	732f706f 	teqvc	pc, #111	; 0x6f
      3c:	6f6f6863 	svcvs	0x006f6863
      40:	70532f6c 	subsvc	r2, r3, ip, ror #30
      44:	676e6972 			; <UNDEFINED> instruction: 0x676e6972
      48:	30323931 	eorscc	r3, r2, r1, lsr r9
      4c:	3253432f 	subscc	r4, r3, #-1140850688	; 0xbc000000
      50:	584c3034 	stmdapl	ip, {r2, r4, r5, ip, sp}^
      54:	3273632f 	rsbscc	r6, r3, #-1140850688	; 0xbc000000
      58:	786c3034 	stmdavc	ip!, {r2, r4, r5, ip, sp}^
      5c:	7330322d 	teqvc	r0, #-805306366	; 0xd0000002
      60:	6c2f7270 	sfmvs	f7, 4, [pc], #-448	; fffffea8 <__bss_end__+0xffff54e0>
      64:	69706269 	ldmdbvs	r0!, {r0, r3, r5, r6, r9, sp, lr}^
      68:	636e692f 	cmnvs	lr, #770048	; 0xbc000
      6c:	6564756c 	strbvs	r7, [r4, #-1388]!	; 0x56c
      70:	73752f00 	cmnvc	r5, #0, 30
      74:	6f6c2f72 	svcvs	0x006c2f72
      78:	2f6c6163 	svccs	0x006c6163
      7c:	6c6c6543 	cfstr64vs	mvdx6, [ip], #-268	; 0xfffffef4
      80:	612f7261 	teqvs	pc, r1, ror #4
      84:	6e2d6d72 	mcrvs	13, 1, r6, cr13, cr2, {3}
      88:	2d656e6f 	stclcs	14, cr6, [r5, #-444]!	; 0xfffffe44
      8c:	69626165 	stmdbvs	r2!, {r0, r2, r5, r6, r8, sp, lr}^
      90:	382e342f 	stmdacc	lr!, {r0, r1, r2, r3, r5, sl, ip, sp}
      94:	632d332e 	teqvs	sp, #-1207959552	; 0xb8000000
      98:	30373173 	eorscc	r3, r7, r3, ror r1
      9c:	696c2f65 	stmdbvs	ip!, {r0, r2, r5, r6, r8, r9, sl, fp, sp}^
      a0:	63672f62 	cmnvs	r7, #392	; 0x188
      a4:	72612f63 	rsbvc	r2, r1, #396	; 0x18c
      a8:	6f6e2d6d 	svcvs	0x006e2d6d
      ac:	652d656e 	strvs	r6, [sp, #-1390]!	; 0x56e
      b0:	2f696261 	svccs	0x00696261
      b4:	2e382e34 	mrccs	14, 1, r2, cr8, cr4, {1}
      b8:	6e692f33 	mcrvs	15, 3, r2, cr9, cr3, {1}
      bc:	64756c63 	ldrbtvs	r6, [r5], #-3171	; 0xc63
      c0:	63000065 	movwvs	r0, #101	; 0x65
      c4:	2d727370 	ldclcs	3, cr7, [r2, #-448]!	; 0xfffffe40
      c8:	6c697475 	cfstrdvs	mvd7, [r9], #-468	; 0xfffffe2c
      cc:	0100682e 	tsteq	r0, lr, lsr #16
      d0:	69620000 	stmdbvs	r2!, {}^	; <UNPREDICTABLE>
      d4:	75732d74 	ldrbvc	r2, [r3, #-3444]!	; 0xd74
      d8:	726f7070 	rsbvc	r7, pc, #112	; 0x70
      dc:	00682e74 	rsbeq	r2, r8, r4, ror lr
      e0:	31000001 	tstcc	r0, r1
      e4:	61702d36 	cmnvs	r0, r6, lsr sp
      e8:	2d327472 	cfldrscs	mvf7, [r2, #-456]!	; 0xfffffe38
      ec:	74736574 	ldrbtvc	r6, [r3], #-1396	; 0x574
      f0:	00632e31 	rsbeq	r2, r3, r1, lsr lr
      f4:	63000002 	movwvs	r0, #2
      f8:	2d343170 	ldfcss	f3, [r4, #-448]!	; 0xfffffe40
      fc:	75626564 	strbvc	r6, [r2, #-1380]!	; 0x564
     100:	00682e67 	rsbeq	r2, r8, r7, ror #28
     104:	72000001 	andvc	r0, r0, #1
     108:	692d6970 	pushvs	{r4, r5, r6, r8, fp, sp, lr}
     10c:	7265746e 	rsbvc	r7, r5, #1845493760	; 0x6e000000
     110:	74707572 	ldrbtvc	r7, [r0], #-1394	; 0x572
     114:	00682e73 	rsbeq	r2, r8, r3, ror lr
     118:	73000003 	movwvc	r0, #3
     11c:	6e696474 	mcrvs	4, 3, r6, cr9, cr4, {3}
     120:	63672d74 	cmnvs	r7, #116, 26	; 0x1d00
     124:	00682e63 	rsbeq	r2, r8, r3, ror #28
     128:	72000004 	andvc	r0, r0, #4
     12c:	682e6970 	stmdavs	lr!, {r4, r5, r6, r8, fp, sp, lr}
     130:	00000300 	andeq	r0, r0, r0, lsl #6
     134:	02050000 	andeq	r0, r5, #0
     138:	00008020 	andeq	r8, r0, r0, lsr #32
     13c:	04011703 	streq	r1, [r1], #-1795	; 0x703
     140:	01046e02 	tsteq	r4, r2, lsl #28
     144:	652e6c03 	strvs	r6, [lr, #-3075]!	; 0xc03
     148:	08250867 	stmdaeq	r5!, {r0, r1, r2, r5, r6, fp}
     14c:	15280260 	strne	r0, [r8, #-608]!	; 0x260
     150:	4b4b4b4b 	blmi	12d2e84 <__bss_end__+0x12c84bc>
     154:	f279034b 	vcgt.s<illegal width 64>	q8, <illegal reg q4.5>, <illegal reg q5.5>
     158:	0304364b 	movweq	r3, #17995	; 0x464b
     15c:	c8086b03 	stmdagt	r8, {r0, r1, r8, r9, fp, sp, lr}
     160:	0402004b 	streq	r0, [r2], #-75	; 0x4b
     164:	00820601 	addeq	r0, r2, r1, lsl #12
     168:	06020402 	streq	r0, [r2], -r2, lsl #8
     16c:	02002208 	andeq	r2, r0, #8, 4	; 0x80000000
     170:	06650204 	strbteq	r0, [r5], -r4, lsl #4
     174:	002f0666 	eoreq	r0, pc, r6, ror #12
     178:	2d010402 	cfstrscs	mvf0, [r1, #-8]
     17c:	3f08674d 	svccc	0x0008674d
     180:	04020067 	streq	r0, [r2], #-103	; 0x67
     184:	04820601 	streq	r0, [r2], #1537	; 0x601
     188:	8e030604 	cfmadd32hi	mvax0, mvfx0, mvfx3, mvfx4
     18c:	0433f201 	ldrteq	pc, [r3], #-513	; 0x201	; <UNPREDICTABLE>
     190:	7eef0303 	cdpvc	3, 14, cr0, cr15, cr3, {0}
     194:	83d84b2e 	bicshi	r4, r8, #47104	; 0xb800
     198:	01040200 	mrseq	r0, R12_usr
     19c:	08069e06 	stmdaeq	r6, {r1, r2, r9, sl, fp, ip, pc}
     1a0:	00688321 	rsbeq	r8, r8, r1, lsr #6
     1a4:	06010402 	streq	r0, [r1], -r2, lsl #8
     1a8:	67bb0682 	ldrvs	r0, [fp, r2, lsl #13]!
     1ac:	01040200 	mrseq	r0, R12_usr
     1b0:	bc068206 	sfmlt	f0, 1, [r6], {6}
     1b4:	4b142202 	blmi	5089c4 <__bss_end__+0x4fdffc>
     1b8:	03040431 	movweq	r0, #17457	; 0x4431
     1bc:	042e0197 	strteq	r0, [lr], #-407	; 0x197
     1c0:	7ee50305 	cdpvc	3, 14, cr0, cr5, cr5, {0}
     1c4:	03030466 	movweq	r0, #13414	; 0x3466
     1c8:	00bd2e09 	adcseq	r2, sp, r9, lsl #28
     1cc:	06010402 	streq	r0, [r1], -r2, lsl #8
     1d0:	679f0666 	ldrvs	r0, [pc, r6, ror #12]
     1d4:	01040200 	mrseq	r0, R12_usr
     1d8:	04048206 	streq	r8, [r4], #-518	; 0x206
     1dc:	018d0306 	orreq	r0, sp, r6, lsl #6
     1e0:	0303049e 	movweq	r0, #13470	; 0x349e
     1e4:	04667ef7 	strbteq	r7, [r6], #-3831	; 0xef7
     1e8:	4a710302 	bmi	1c40df8 <__bss_end__+0x1c36430>
     1ec:	10030304 	andne	r0, r3, r4, lsl #6
     1f0:	0504692e 	streq	r6, [r4, #-2350]	; 0x92e
     1f4:	04ba6a03 	ldrteq	r6, [sl], #2563	; 0xa03
     1f8:	4a180303 	bmi	600e0c <__bss_end__+0x5f6444>
     1fc:	68030504 	stmdavs	r3, {r2, r8, sl}
     200:	0303049e 	movweq	r0, #13470	; 0x349e
     204:	02002e1a 	andeq	r2, r0, #416	; 0x1a0
     208:	4a060104 	bmi	180620 <__bss_end__+0x175c58>
     20c:	00210806 	eoreq	r0, r1, r6, lsl #16
     210:	06010402 	streq	r0, [r1], -r2, lsl #8
     214:	2308069e 	movwcs	r0, #34462	; 0x869e
     218:	01002c02 	tsteq	r0, r2, lsl #24
     21c:	0001e701 	andeq	lr, r1, r1, lsl #14
     220:	ff000200 			; <UNDEFINED> instruction: 0xff000200
     224:	02000000 	andeq	r0, r0, #0
     228:	0d0efb01 	vstreq	d15, [lr, #-4]
     22c:	01010100 	mrseq	r0, (UNDEF: 17)
     230:	00000001 	andeq	r0, r0, r1
     234:	01000001 	tsteq	r0, r1
     238:	7273752f 	rsbsvc	r7, r3, #197132288	; 0xbc00000
     23c:	636f6c2f 	cmnvs	pc, #12032	; 0x2f00
     240:	432f6c61 	teqmi	pc, #24832	; 0x6100
     244:	616c6c65 	cmnvs	ip, r5, ror #24
     248:	72612f72 	rsbvc	r2, r1, #456	; 0x1c8
     24c:	6f6e2d6d 	svcvs	0x006e2d6d
     250:	652d656e 	strvs	r6, [sp, #-1390]!	; 0x56e
     254:	2f696261 	svccs	0x00696261
     258:	2e382e34 	mrccs	14, 1, r2, cr8, cr4, {1}
     25c:	73632d33 	cmnvc	r3, #3264	; 0xcc0
     260:	65303731 	ldrvs	r3, [r0, #-1841]!	; 0x731
     264:	62696c2f 	rsbvs	r6, r9, #12032	; 0x2f00
     268:	6363672f 	cmnvs	r3, #12320768	; 0xbc0000
     26c:	6d72612f 	ldfvse	f6, [r2, #-188]!	; 0xffffff44
     270:	6e6f6e2d 	cdpvs	14, 6, cr6, cr15, cr13, {1}
     274:	61652d65 	cmnvs	r5, r5, ror #26
     278:	342f6962 	strtcc	r6, [pc], #-2402	; 280 <__code_start__-0x7d80>
     27c:	332e382e 	teqcc	lr, #3014656	; 0x2e0000
     280:	636e692f 	cmnvs	lr, #770048	; 0xbc000
     284:	6564756c 	strbvs	r7, [r4, #-1388]!	; 0x56c
     288:	73552f00 	cmpvc	r5, #0, 30
     28c:	2f737265 	svccs	0x00737265
     290:	61697262 	cmnvs	r9, r2, ror #4
     294:	6e756a6e 	vsubvs.f32	s13, s10, s29
     298:	7365442f 	cmnvc	r5, #788529152	; 0x2f000000
     29c:	706f746b 	rsbvc	r7, pc, fp, ror #8
     2a0:	6863732f 	stmdavs	r3!, {r0, r1, r2, r3, r5, r8, r9, ip, sp, lr}^
     2a4:	2f6c6f6f 	svccs	0x006c6f6f
     2a8:	69727053 	ldmdbvs	r2!, {r0, r1, r4, r6, ip, sp, lr}^
     2ac:	3931676e 	ldmdbcc	r1!, {r1, r2, r3, r5, r6, r8, r9, sl, sp, lr}
     2b0:	432f3032 	teqmi	pc, #50	; 0x32
     2b4:	30343253 	eorscc	r3, r4, r3, asr r2
     2b8:	632f584c 	teqvs	pc, #76, 16	; 0x4c0000
     2bc:	30343273 	eorscc	r3, r4, r3, ror r2
     2c0:	322d786c 	eorcc	r7, sp, #108, 16	; 0x6c0000
     2c4:	72707330 	rsbsvc	r7, r0, #48, 6	; 0xc0000000
     2c8:	62696c2f 	rsbvs	r6, r9, #12032	; 0x2f00
     2cc:	692f6970 	stmdbvs	pc!, {r4, r5, r6, r8, fp, sp, lr}	; <UNPREDICTABLE>
     2d0:	756c636e 	strbvc	r6, [ip, #-878]!	; 0x36e
     2d4:	00006564 	andeq	r6, r0, r4, ror #10
     2d8:	34317063 	ldrtcc	r7, [r1], #-99	; 0x63
     2dc:	6265642d 	rsbvs	r6, r5, #754974720	; 0x2d000000
     2e0:	632e6775 	teqvs	lr, #30670848	; 0x1d40000
     2e4:	00000000 	andeq	r0, r0, r0
     2e8:	34317063 	ldrtcc	r7, [r1], #-99	; 0x63
     2ec:	6265642d 	rsbvs	r6, r5, #754974720	; 0x2d000000
     2f0:	682e6775 	stmdavs	lr!, {r0, r2, r4, r5, r6, r8, r9, sl, sp, lr}
     2f4:	00000000 	andeq	r0, r0, r0
     2f8:	69647473 	stmdbvs	r4!, {r0, r1, r4, r5, r6, sl, ip, sp, lr}^
     2fc:	672d746e 	strvs	r7, [sp, -lr, ror #8]!
     300:	682e6363 	stmdavs	lr!, {r0, r1, r5, r6, r8, r9, sp, lr}
     304:	00000100 	andeq	r0, r0, r0, lsl #2
     308:	2e697072 	mcrcs	0, 3, r7, cr9, cr2, {3}
     30c:	00020068 	andeq	r0, r2, r8, rrx
     310:	69707200 	ldmdbvs	r0!, {r9, ip, sp, lr}^
     314:	746e692d 	strbtvc	r6, [lr], #-2349	; 0x92d
     318:	75727265 	ldrbvc	r7, [r2, #-613]!	; 0x265
     31c:	2e737470 	mrccs	4, 3, r7, cr3, cr0, {3}
     320:	00020068 	andeq	r0, r2, r8, rrx
     324:	05000000 	streq	r0, [r0, #-0]
     328:	00851c02 	addeq	r1, r5, r2, lsl #24
     32c:	01350300 	teqeq	r5, r0, lsl #6
     330:	034a6203 	movteq	r6, #41475	; 0xa203
     334:	62032e24 	andvs	r2, r3, #36, 28	; 0x240
     338:	2e7a032e 	cdpcs	3, 7, cr0, cr10, cr14, {1}
     33c:	002e2903 	eoreq	r2, lr, r3, lsl #18
     340:	06010402 	streq	r0, [r1], -r2, lsl #8
     344:	6503064a 	strvs	r0, [r3, #-1610]	; 0x64a
     348:	78032008 	stmdavc	r3, {r3, sp}
     34c:	4a7a032e 	bmi	1e8100c <__bss_end__+0x1e76644>
     350:	002e3a03 	eoreq	r3, lr, r3, lsl #20
     354:	06010402 	streq	r0, [r1], -r2, lsl #8
     358:	bb03064a 	bllt	c1c88 <__bss_end__+0xb72c0>
     35c:	0320087f 	teqeq	r0, #8323072	; 0x7f0000
     360:	4b4a00c8 	blmi	1280688 <__bss_end__+0x1275cc0>
     364:	6c0204f5 	cfstrsvs	mvf0, [r2], {245}	; 0xf5
     368:	344a1303 	strbcc	r1, [sl], #-771	; 0x303
     36c:	d65d034b 	ldrble	r0, [sp], -fp, asr #6
     370:	11030104 	tstne	r3, r4, lsl #2
     374:	0402002e 	streq	r0, [r2], #-46	; 0x2e
     378:	06660601 	strbteq	r0, [r6], -r1, lsl #12
     37c:	02002208 	andeq	r2, r0, #8, 4	; 0x80000000
     380:	82060104 	andhi	r0, r6, #4, 2
     384:	03060204 	movweq	r0, #25092	; 0x6204
     388:	0420087a 	strteq	r0, [r0], #-2170	; 0x87a
     38c:	2e0c0301 	cdpcs	3, 0, cr0, cr12, cr1, {0}
     390:	315a084b 	cmpcc	sl, fp, asr #16
     394:	bb032f83 	bllt	cc1a8 <__bss_end__+0xc17e0>
     398:	5b03667f 	blpl	d9d9c <__bss_end__+0xcf3d4>
     39c:	019b034a 	orrseq	r0, fp, sl, asr #6
     3a0:	01650382 	smulbbeq	r5, r2, r3
     3a4:	032e1f03 	teqeq	lr, #3, 30
     3a8:	302c2e62 	eorcc	r2, ip, r2, ror #28
     3ac:	4a7eff03 	bmi	1fbffc0 <__bss_end__+0x1fb55f8>
     3b0:	4a01b303 	bmi	6cfc4 <__bss_end__+0x625fc>
     3b4:	030204a2 	movweq	r0, #9378	; 0x24a2
     3b8:	04336662 	ldrteq	r6, [r3], #-1634	; 0x662
     3bc:	2e1b0301 	cdpcs	3, 1, cr0, cr11, cr1, {0}
     3c0:	0200d74b 	andeq	sp, r0, #19660800	; 0x12c0000
     3c4:	82060104 	andhi	r0, r6, #4, 2
     3c8:	03060204 	movweq	r0, #25092	; 0x6204
     3cc:	0420084f 	strteq	r0, [r0], #-2127	; 0x84f
     3d0:	2e330301 	cdpcs	3, 3, cr0, cr3, cr1, {0}
     3d4:	0b03f44b 	bleq	fd508 <__bss_end__+0xf2b40>
     3d8:	082f012e 	stmdaeq	pc!, {r1, r2, r3, r5, r8}	; <UNPREDICTABLE>
     3dc:	7fb1033f 	svcvc	0x00b1033f
     3e0:	00d30301 	sbcseq	r0, r3, r1, lsl #6
     3e4:	7fae032e 	svcvc	0x00ae032e
     3e8:	03302c2e 	teqeq	r0, #11776	; 0x2e00
     3ec:	034a7eff 	movteq	r7, #44799	; 0xaeff
     3f0:	a24a01e7 	subge	r0, sl, #-1073741767	; 0xc0000039
     3f4:	017f9603 	cmneq	pc, r3, lsl #12
     3f8:	8200fb03 	andhi	pc, r0, #3072	; 0xc00
     3fc:	4b4b4b31 	blmi	12d30c8 <__bss_end__+0x12c8700>
     400:	026a684b 	rsbeq	r6, sl, #4915200	; 0x4b0000
     404:	01010008 	tsteq	r1, r8
     408:	00000263 	andeq	r0, r0, r3, ror #4
     40c:	013b0002 	teqeq	fp, r2
     410:	01020000 	mrseq	r0, (UNDEF: 2)
     414:	000d0efb 	strdeq	r0, [sp], -fp
     418:	01010101 	tsteq	r1, r1, lsl #2
     41c:	01000000 	mrseq	r0, (UNDEF: 0)
     420:	2f010000 	svccs	0x00010000
     424:	72657355 	rsbvc	r7, r5, #1409286145	; 0x54000001
     428:	72622f73 	rsbvc	r2, r2, #460	; 0x1cc
     42c:	6a6e6169 	bvs	1b989d8 <__bss_end__+0x1b8e010>
     430:	442f6e75 	strtmi	r6, [pc], #-3701	; 438 <__code_start__-0x7bc8>
     434:	746b7365 	strbtvc	r7, [fp], #-869	; 0x365
     438:	732f706f 	teqvc	pc, #111	; 0x6f
     43c:	6f6f6863 	svcvs	0x006f6863
     440:	70532f6c 	subsvc	r2, r3, ip, ror #30
     444:	676e6972 			; <UNDEFINED> instruction: 0x676e6972
     448:	30323931 	eorscc	r3, r2, r1, lsr r9
     44c:	3253432f 	subscc	r4, r3, #-1140850688	; 0xbc000000
     450:	584c3034 	stmdapl	ip, {r2, r4, r5, ip, sp}^
     454:	3273632f 	rsbscc	r6, r3, #-1140850688	; 0xbc000000
     458:	786c3034 	stmdavc	ip!, {r2, r4, r5, ip, sp}^
     45c:	7330322d 	teqvc	r0, #-805306366	; 0xd0000002
     460:	6c2f7270 	sfmvs	f7, 4, [pc], #-448	; 2a8 <__code_start__-0x7d58>
     464:	69706269 	ldmdbvs	r0!, {r0, r3, r5, r6, r9, sp, lr}^
     468:	636e692f 	cmnvs	lr, #770048	; 0xbc000
     46c:	6564756c 	strbvs	r7, [r4, #-1388]!	; 0x56c
     470:	73752f00 	cmnvc	r5, #0, 30
     474:	6f6c2f72 	svcvs	0x006c2f72
     478:	2f6c6163 	svccs	0x006c6163
     47c:	6c6c6543 	cfstr64vs	mvdx6, [ip], #-268	; 0xfffffef4
     480:	612f7261 	teqvs	pc, r1, ror #4
     484:	6e2d6d72 	mcrvs	13, 1, r6, cr13, cr2, {3}
     488:	2d656e6f 	stclcs	14, cr6, [r5, #-444]!	; 0xfffffe44
     48c:	69626165 	stmdbvs	r2!, {r0, r2, r5, r6, r8, sp, lr}^
     490:	382e342f 	stmdacc	lr!, {r0, r1, r2, r3, r5, sl, ip, sp}
     494:	632d332e 	teqvs	sp, #-1207959552	; 0xb8000000
     498:	30373173 	eorscc	r3, r7, r3, ror r1
     49c:	696c2f65 	stmdbvs	ip!, {r0, r2, r5, r6, r8, r9, sl, fp, sp}^
     4a0:	63672f62 	cmnvs	r7, #392	; 0x188
     4a4:	72612f63 	rsbvc	r2, r1, #396	; 0x18c
     4a8:	6f6e2d6d 	svcvs	0x006e2d6d
     4ac:	652d656e 	strvs	r6, [sp, #-1390]!	; 0x56e
     4b0:	2f696261 	svccs	0x00696261
     4b4:	2e382e34 	mrccs	14, 1, r2, cr8, cr4, {1}
     4b8:	6e692f33 	mcrvs	15, 3, r2, cr9, cr3, {1}
     4bc:	64756c63 	ldrbtvs	r6, [r5], #-3171	; 0xc63
     4c0:	63000065 	movwvs	r0, #101	; 0x65
     4c4:	6b636568 	blvs	18d9a6c <__bss_end__+0x18cf0a4>
     4c8:	746e692d 	strbtvc	r6, [lr], #-2349	; 0x92d
     4cc:	656c7265 	strbvs	r7, [ip, #-613]!	; 0x265
     4d0:	2e657661 	cdpcs	6, 6, cr7, cr5, cr1, {3}
     4d4:	00000063 	andeq	r0, r0, r3, rrx
     4d8:	31706300 	cmncc	r0, r0, lsl #6
     4dc:	65642d34 	strbvs	r2, [r4, #-3380]!	; 0xd34
     4e0:	2e677562 	cdpcs	5, 6, cr7, cr7, cr2, {3}
     4e4:	00000068 	andeq	r0, r0, r8, rrx
     4e8:	69707200 	ldmdbvs	r0!, {r9, ip, sp, lr}^
     4ec:	746e692d 	strbtvc	r6, [lr], #-2349	; 0x92d
     4f0:	75727265 	ldrbvc	r7, [r2, #-613]!	; 0x265
     4f4:	2e737470 	mrccs	4, 3, r7, cr3, cr0, {3}
     4f8:	00010068 	andeq	r0, r1, r8, rrx
     4fc:	74696200 	strbtvc	r6, [r9], #-512	; 0x200
     500:	7075732d 	rsbsvc	r7, r5, sp, lsr #6
     504:	74726f70 	ldrbtvc	r6, [r2], #-3952	; 0xf70
     508:	0000682e 	andeq	r6, r0, lr, lsr #16
     50c:	70630000 	rsbvc	r0, r3, r0
     510:	752d7273 	strvc	r7, [sp, #-627]!	; 0x273
     514:	2e6c6974 	mcrcs	9, 3, r6, cr12, cr4, {3}
     518:	00000068 	andeq	r0, r0, r8, rrx
     51c:	64747300 	ldrbtvs	r7, [r4], #-768	; 0x300
     520:	2d746e69 	ldclcs	14, cr6, [r4, #-420]!	; 0xfffffe5c
     524:	2e636367 	cdpcs	3, 6, cr6, cr3, cr7, {3}
     528:	00020068 	andeq	r0, r2, r8, rrx
     52c:	65686300 	strbvs	r6, [r8, #-768]!	; 0x300
     530:	692d6b63 	pushvs	{r0, r1, r5, r6, r8, r9, fp, sp, lr}
     534:	7265746e 	rsbvc	r7, r5, #1845493760	; 0x6e000000
     538:	7661656c 	strbtvc	r6, [r1], -ip, ror #10
     53c:	00682e65 	rsbeq	r2, r8, r5, ror #28
     540:	72000000 	andvc	r0, r0, #0
     544:	682e6970 	stmdavs	lr!, {r4, r5, r6, r8, fp, sp, lr}
     548:	00000100 	andeq	r0, r0, r0, lsl #2
     54c:	02050000 	andeq	r0, r5, #0
     550:	00008988 	andeq	r8, r0, r8, lsl #19
     554:	67010a03 	strvs	r0, [r1, -r3, lsl #20]
     558:	01040200 	mrseq	r0, R12_usr
     55c:	02048206 	andeq	r8, r4, #1610612736	; 0x60000000
     560:	019a0306 	orrseq	r0, sl, r6, lsl #6
     564:	010433ba 			; <UNDEFINED> instruction: 0x010433ba
     568:	2e7ee203 	cdpcs	2, 7, cr14, cr14, cr3, {0}
     56c:	834dd84b 	movthi	sp, #55371	; 0xd84b
     570:	4b2f4b87 	blmi	bd3394 <__bss_end__+0xbc89cc>
     574:	00686867 	rsbeq	r6, r8, r7, ror #16
     578:	06010402 	streq	r0, [r1], -r2, lsl #8
     57c:	21080682 	smlabbcs	r8, r2, r6, r0
     580:	04020068 	streq	r0, [r2], #-104	; 0x68
     584:	06820601 	streq	r0, [r2], r1, lsl #12
     588:	020067bb 	andeq	r6, r0, #49020928	; 0x2ec0000
     58c:	82060104 	andhi	r0, r6, #4, 2
     590:	ca08bc06 	bgt	22f5b0 <__bss_end__+0x224be8>
     594:	04640304 	strbteq	r0, [r4], #-772	; 0x304
     598:	05043104 	streq	r3, [r4, #-260]	; 0x104
     59c:	042e6b03 	strteq	r6, [lr], #-2819	; 0xb03
     5a0:	2e180301 	cdpcs	3, 1, cr0, cr8, cr1, {0}
     5a4:	2a844e4b 	bcs	fe113ed8 <__bss_end__+0xfe109510>
     5a8:	04020068 	streq	r0, [r2], #-104	; 0x68
     5ac:	06660601 	strbteq	r0, [r6], -r1, lsl #12
     5b0:	4b676ad8 	blmi	19db118 <__bss_end__+0x19d0750>
     5b4:	849f8431 	ldrhi	r8, [pc], #1073	; 5bc <__code_start__-0x7a44>
     5b8:	04686869 	strbteq	r6, [r8], #-2153	; 0x869
     5bc:	82560304 	subshi	r0, r6, #4, 6	; 0x10000000
     5c0:	6c030504 	cfstr32vs	mvfx0, [r3], {4}
     5c4:	0867652e 	stmdaeq	r7!, {r1, r2, r3, r5, r8, sl, sp, lr}^
     5c8:	02600825 	rsbeq	r0, r0, #2424832	; 0x250000
     5cc:	4b4b1528 	blmi	12c5a74 <__bss_end__+0x12bb0ac>
     5d0:	034b4b4b 	movteq	r4, #47947	; 0xbb4b
     5d4:	044bf279 	strbeq	pc, [fp], #-633	; 0x279	; <UNPREDICTABLE>
     5d8:	2e330301 	cdpcs	3, 3, cr0, cr3, cr1, {0}
     5dc:	5a030304 	bpl	c11f4 <__bss_end__+0xb682c>
     5e0:	03040466 	movweq	r0, #17510	; 0x4466
     5e4:	05042e78 	streq	r2, [r4, #-3704]	; 0xe78
     5e8:	652e6c03 	strvs	r6, [lr, #-3075]!	; 0xc03
     5ec:	08250867 	stmdaeq	r5!, {r0, r1, r2, r5, r6, fp}
     5f0:	15280260 	strne	r0, [r8, #-608]!	; 0x260
     5f4:	4b4b4b4b 	blmi	12d3328 <__bss_end__+0x12c8960>
     5f8:	f279034b 	vcgt.s<illegal width 64>	q8, <illegal reg q4.5>, <illegal reg q5.5>
     5fc:	0303044b 	movweq	r0, #13387	; 0x344b
     600:	01042e0d 	tsteq	r4, sp, lsl #28
     604:	4c2e2703 	stcmi	7, cr2, [lr], #-12
     608:	4f030404 	svcmi	0x00030404
     60c:	0305044a 	movweq	r0, #21578	; 0x544a
     610:	67652e6c 	strbvs	r2, [r5, -ip, ror #28]!
     614:	03042508 	movweq	r2, #17672	; 0x4508
     618:	58081703 	stmdapl	r8, {r0, r1, r8, r9, sl, ip}
     61c:	78030404 	stmdavc	r3, {r2, sl}
     620:	0305042e 	movweq	r0, #21550	; 0x542e
     624:	67652e6c 	strbvs	r2, [r5, -ip, ror #28]!
     628:	01042508 	tsteq	r4, r8, lsl #10
     62c:	0800c203 	stmdaeq	r0, {r0, r1, r9, lr, pc}
     630:	04020058 	streq	r0, [r2], #-88	; 0x58
     634:	064a0601 	strbeq	r0, [sl], -r1, lsl #12
     638:	2f4c2408 	svccs	0x004c2408
     63c:	4d173a02 	vldrmi	s6, [r7, #-8]
     640:	6767684b 	strbvs	r6, [r7, -fp, asr #16]!
     644:	d67a039f 			; <UNDEFINED> instruction: 0xd67a039f
     648:	01040200 	mrseq	r0, R12_usr
     64c:	03062e06 	movweq	r2, #28166	; 0x6e06
     650:	1aa14a12 	bne	fe852ea0 <__bss_end__+0xfe8484d8>
     654:	2d2d2d49 	stccs	13, cr2, [sp, #-292]!	; 0xfffffedc
     658:	032d2d2d 	teqeq	sp, #2880	; 0xb40
     65c:	2f4b4a0a 	svccs	0x004b4a0a
     660:	0402004b 	streq	r0, [r2], #-75	; 0x4b
     664:	82820601 	addhi	r0, r2, #1048576	; 0x100000
     668:	02029f06 	andeq	r9, r2, #6, 30
     66c:	0c010100 	stfeqs	f0, [r1], {-0}
     670:	02000001 	andeq	r0, r0, #1
     674:	0000f500 	andeq	pc, r0, r0, lsl #10
     678:	fb010200 	blx	40e82 <__bss_end__+0x364ba>
     67c:	01000d0e 	tsteq	r0, lr, lsl #26
     680:	00010101 	andeq	r0, r1, r1, lsl #2
     684:	00010000 	andeq	r0, r1, r0
     688:	696c0100 	stmdbvs	ip!, {r8}^
     68c:	2f006362 	svccs	0x00006362
     690:	2f727375 	svccs	0x00727375
     694:	61636f6c 	cmnvs	r3, ip, ror #30
     698:	65432f6c 	strbvs	r2, [r3, #-3948]	; 0xf6c
     69c:	72616c6c 	rsbvc	r6, r1, #108, 24	; 0x6c00
     6a0:	6d72612f 	ldfvse	f6, [r2, #-188]!	; 0xffffff44
     6a4:	6e6f6e2d 	cdpvs	14, 6, cr6, cr15, cr13, {1}
     6a8:	61652d65 	cmnvs	r5, r5, ror #26
     6ac:	342f6962 	strtcc	r6, [pc], #-2402	; 6b4 <__code_start__-0x794c>
     6b0:	332e382e 	teqcc	lr, #3014656	; 0x2e0000
     6b4:	3173632d 	cmncc	r3, sp, lsr #6
     6b8:	2f653037 	svccs	0x00653037
     6bc:	2f62696c 	svccs	0x0062696c
     6c0:	2f636367 	svccs	0x00636367
     6c4:	2d6d7261 	sfmcs	f7, 2, [sp, #-388]!	; 0xfffffe7c
     6c8:	656e6f6e 	strbvs	r6, [lr, #-3950]!	; 0xf6e
     6cc:	6261652d 	rsbvs	r6, r1, #188743680	; 0xb400000
     6d0:	2e342f69 	cdpcs	15, 3, cr2, cr4, cr9, {3}
     6d4:	2f332e38 	svccs	0x00332e38
     6d8:	6c636e69 	stclvs	14, cr6, [r3], #-420	; 0xfffffe5c
     6dc:	00656475 	rsbeq	r6, r5, r5, ror r4
     6e0:	6573552f 	ldrbvs	r5, [r3, #-1327]!	; 0x52f
     6e4:	622f7372 	eorvs	r7, pc, #-939524095	; 0xc8000001
     6e8:	6e616972 	mcrvs	9, 3, r6, cr1, cr2, {3}
     6ec:	2f6e756a 	svccs	0x006e756a
     6f0:	6b736544 	blvs	1cd9c08 <__bss_end__+0x1ccf240>
     6f4:	2f706f74 	svccs	0x00706f74
     6f8:	6f686373 	svcvs	0x00686373
     6fc:	532f6c6f 	teqpl	pc, #28416	; 0x6f00
     700:	6e697270 	mcrvs	2, 3, r7, cr9, cr0, {3}
     704:	32393167 	eorscc	r3, r9, #-1073741799	; 0xc0000019
     708:	53432f30 	movtpl	r2, #16176	; 0x3f30
     70c:	4c303432 	cfldrsmi	mvf3, [r0], #-200	; 0xffffff38
     710:	73632f58 	cmnvc	r3, #88, 30	; 0x160
     714:	6c303432 	cfldrsvs	mvf3, [r0], #-200	; 0xffffff38
     718:	30322d78 	eorscc	r2, r2, r8, ror sp
     71c:	2f727073 	svccs	0x00727073
     720:	7062696c 	rsbvc	r6, r2, ip, ror #18
     724:	6e692f69 	cdpvs	15, 6, cr2, cr9, cr9, {3}
     728:	64756c63 	ldrbtvs	r6, [r5], #-3171	; 0xc63
     72c:	70000065 	andvc	r0, r0, r5, rrx
     730:	746e6972 	strbtvc	r6, [lr], #-2418	; 0x972
     734:	00632e6b 	rsbeq	r2, r3, fp, ror #28
     738:	73000001 	movwvc	r0, #1
     73c:	72616474 	rsbvc	r6, r1, #116, 8	; 0x74000000
     740:	00682e67 	rsbeq	r2, r8, r7, ror #28
     744:	3c000002 	stccc	0, cr0, [r0], {2}
     748:	6c697562 	cfstr64vs	mvdx7, [r9], #-392	; 0xfffffe78
     74c:	6e692d74 	mcrvs	13, 3, r2, cr9, cr4, {3}
     750:	0000003e 	andeq	r0, r0, lr, lsr r0
     754:	69707200 	ldmdbvs	r0!, {r9, ip, sp, lr}^
     758:	0300682e 	movweq	r6, #2094	; 0x82e
     75c:	61760000 	cmnvs	r6, r0
     760:	6972702d 	ldmdbvs	r2!, {r0, r2, r3, r5, ip, sp, lr}^
     764:	2e6b746e 	cdpcs	4, 6, cr7, cr11, cr14, {3}
     768:	00010068 	andeq	r0, r1, r8, rrx
     76c:	05000000 	streq	r0, [r0, #-0]
     770:	0090e002 	addseq	lr, r0, r2
     774:	4b6b1700 	blmi	1ac637c <__bss_end__+0x1abb9b4>
     778:	0e0289bf 	mcreq	9, 0, r8, cr2, cr15, {5}
     77c:	94010100 	strls	r0, [r1], #-256	; 0x100
     780:	02000000 	andeq	r0, r0, #0
     784:	00007c00 	andeq	r7, r0, r0, lsl #24
     788:	fb010200 	blx	40f92 <__bss_end__+0x365ca>
     78c:	01000d0e 	tsteq	r0, lr, lsl #26
     790:	00010101 	andeq	r0, r1, r1, lsl #2
     794:	00010000 	andeq	r0, r1, r0
     798:	696c0100 	stmdbvs	ip!, {r8}^
     79c:	2f006362 	svccs	0x00006362
     7a0:	72657355 	rsbvc	r7, r5, #1409286145	; 0x54000001
     7a4:	72622f73 	rsbvc	r2, r2, #460	; 0x1cc
     7a8:	6a6e6169 	bvs	1b98d54 <__bss_end__+0x1b8e38c>
     7ac:	442f6e75 	strtmi	r6, [pc], #-3701	; 7b4 <__code_start__-0x784c>
     7b0:	746b7365 	strbtvc	r7, [fp], #-869	; 0x365
     7b4:	732f706f 	teqvc	pc, #111	; 0x6f
     7b8:	6f6f6863 	svcvs	0x006f6863
     7bc:	70532f6c 	subsvc	r2, r3, ip, ror #30
     7c0:	676e6972 			; <UNDEFINED> instruction: 0x676e6972
     7c4:	30323931 	eorscc	r3, r2, r1, lsr r9
     7c8:	3253432f 	subscc	r4, r3, #-1140850688	; 0xbc000000
     7cc:	584c3034 	stmdapl	ip, {r2, r4, r5, ip, sp}^
     7d0:	3273632f 	rsbscc	r6, r3, #-1140850688	; 0xbc000000
     7d4:	786c3034 	stmdavc	ip!, {r2, r4, r5, ip, sp}^
     7d8:	7330322d 	teqvc	r0, #-805306366	; 0xd0000002
     7dc:	6c2f7270 	sfmvs	f7, 4, [pc], #-448	; 624 <__code_start__-0x79dc>
     7e0:	69706269 	ldmdbvs	r0!, {r0, r3, r5, r6, r9, sp, lr}^
     7e4:	636e692f 	cmnvs	lr, #770048	; 0xbc000
     7e8:	6564756c 	strbvs	r7, [r4, #-1388]!	; 0x56c
     7ec:	75700000 	ldrbvc	r0, [r0, #-0]!
     7f0:	61686374 	smcvs	34356	; 0x8634
     7f4:	00632e72 	rsbeq	r2, r3, r2, ror lr
     7f8:	72000001 	andvc	r0, r0, #1
     7fc:	682e6970 	stmdavs	lr!, {r4, r5, r6, r8, fp, sp, lr}
     800:	00000200 	andeq	r0, r0, r0, lsl #4
     804:	02050000 	andeq	r0, r5, #0
     808:	00009138 	andeq	r9, r0, r8, lsr r1
     80c:	136b4a14 	cmnne	fp, #20, 20	; 0x14000
     810:	080213bc 	stmdaeq	r2, {r2, r3, r4, r5, r7, r8, r9, ip}
     814:	a0010100 	andge	r0, r1, r0, lsl #2
     818:	02000000 	andeq	r0, r0, #0
     81c:	00007900 	andeq	r7, r0, r0, lsl #18
     820:	fb010200 	blx	4102a <__bss_end__+0x36662>
     824:	01000d0e 	tsteq	r0, lr, lsl #26
     828:	00010101 	andeq	r0, r1, r1, lsl #2
     82c:	00010000 	andeq	r0, r1, r0
     830:	696c0100 	stmdbvs	ip!, {r8}^
     834:	2f006362 	svccs	0x00006362
     838:	72657355 	rsbvc	r7, r5, #1409286145	; 0x54000001
     83c:	72622f73 	rsbvc	r2, r2, #460	; 0x1cc
     840:	6a6e6169 	bvs	1b98dec <__bss_end__+0x1b8e424>
     844:	442f6e75 	strtmi	r6, [pc], #-3701	; 84c <__code_start__-0x77b4>
     848:	746b7365 	strbtvc	r7, [fp], #-869	; 0x365
     84c:	732f706f 	teqvc	pc, #111	; 0x6f
     850:	6f6f6863 	svcvs	0x006f6863
     854:	70532f6c 	subsvc	r2, r3, ip, ror #30
     858:	676e6972 			; <UNDEFINED> instruction: 0x676e6972
     85c:	30323931 	eorscc	r3, r2, r1, lsr r9
     860:	3253432f 	subscc	r4, r3, #-1140850688	; 0xbc000000
     864:	584c3034 	stmdapl	ip, {r2, r4, r5, ip, sp}^
     868:	3273632f 	rsbscc	r6, r3, #-1140850688	; 0xbc000000
     86c:	786c3034 	stmdavc	ip!, {r2, r4, r5, ip, sp}^
     870:	7330322d 	teqvc	r0, #-805306366	; 0xd0000002
     874:	6c2f7270 	sfmvs	f7, 4, [pc], #-448	; 6bc <__code_start__-0x7944>
     878:	69706269 	ldmdbvs	r0!, {r0, r3, r5, r6, r9, sp, lr}^
     87c:	636e692f 	cmnvs	lr, #770048	; 0xbc000
     880:	6564756c 	strbvs	r7, [r4, #-1388]!	; 0x56c
     884:	75700000 	ldrbvc	r0, [r0, #-0]!
     888:	632e6b74 	teqvs	lr, #116, 22	; 0x1d000
     88c:	00000100 	andeq	r0, r0, r0, lsl #2
     890:	2e697072 	mcrcs	0, 3, r7, cr9, cr2, {3}
     894:	00020068 	andeq	r0, r2, r8, rrx
     898:	05000000 	streq	r0, [r0, #-0]
     89c:	00917402 	addseq	r7, r1, r2, lsl #8
     8a0:	2d4c1500 	cfstr64cs	mvdx1, [ip, #-0]
     8a4:	02040200 	andeq	r0, r4, #0, 4
     8a8:	0402002f 	streq	r0, [r2], #-47	; 0x2f
     8ac:	02004902 	andeq	r4, r0, #32768	; 0x8000
     8b0:	2e060104 	adfcss	f0, f6, f4
     8b4:	06026b06 	streq	r6, [r2], -r6, lsl #22
     8b8:	f1010100 	setend	le
     8bc:	02000001 	andeq	r0, r0, #1
     8c0:	0000e900 	andeq	lr, r0, r0, lsl #18
     8c4:	fb010200 	blx	410ce <__bss_end__+0x36706>
     8c8:	01000d0e 	tsteq	r0, lr, lsl #26
     8cc:	00010101 	andeq	r0, r1, r1, lsl #2
     8d0:	00010000 	andeq	r0, r1, r0
     8d4:	696c0100 	stmdbvs	ip!, {r8}^
     8d8:	2f006362 	svccs	0x00006362
     8dc:	2f727375 	svccs	0x00727375
     8e0:	61636f6c 	cmnvs	r3, ip, ror #30
     8e4:	65432f6c 	strbvs	r2, [r3, #-3948]	; 0xf6c
     8e8:	72616c6c 	rsbvc	r6, r1, #108, 24	; 0x6c00
     8ec:	6d72612f 	ldfvse	f6, [r2, #-188]!	; 0xffffff44
     8f0:	6e6f6e2d 	cdpvs	14, 6, cr6, cr15, cr13, {1}
     8f4:	61652d65 	cmnvs	r5, r5, ror #26
     8f8:	342f6962 	strtcc	r6, [pc], #-2402	; 900 <__code_start__-0x7700>
     8fc:	332e382e 	teqcc	lr, #3014656	; 0x2e0000
     900:	3173632d 	cmncc	r3, sp, lsr #6
     904:	2f653037 	svccs	0x00653037
     908:	2f62696c 	svccs	0x0062696c
     90c:	2f636367 	svccs	0x00636367
     910:	2d6d7261 	sfmcs	f7, 2, [sp, #-388]!	; 0xfffffe7c
     914:	656e6f6e 	strbvs	r6, [lr, #-3950]!	; 0xf6e
     918:	6261652d 	rsbvs	r6, r1, #188743680	; 0xb400000
     91c:	2e342f69 	cdpcs	15, 3, cr2, cr4, cr9, {3}
     920:	2f332e38 	svccs	0x00332e38
     924:	6c636e69 	stclvs	14, cr6, [r3], #-420	; 0xfffffe5c
     928:	00656475 	rsbeq	r6, r5, r5, ror r4
     92c:	6573552f 	ldrbvs	r5, [r3, #-1327]!	; 0x52f
     930:	622f7372 	eorvs	r7, pc, #-939524095	; 0xc8000001
     934:	6e616972 	mcrvs	9, 3, r6, cr1, cr2, {3}
     938:	2f6e756a 	svccs	0x006e756a
     93c:	6b736544 	blvs	1cd9e54 <__bss_end__+0x1ccf48c>
     940:	2f706f74 	svccs	0x00706f74
     944:	6f686373 	svcvs	0x00686373
     948:	532f6c6f 	teqpl	pc, #28416	; 0x6f00
     94c:	6e697270 	mcrvs	2, 3, r7, cr9, cr0, {3}
     950:	32393167 	eorscc	r3, r9, #-1073741799	; 0xc0000019
     954:	53432f30 	movtpl	r2, #16176	; 0x3f30
     958:	4c303432 	cfldrsmi	mvf3, [r0], #-200	; 0xffffff38
     95c:	73632f58 	cmnvc	r3, #88, 30	; 0x160
     960:	6c303432 	cfldrsvs	mvf3, [r0], #-200	; 0xffffff38
     964:	30322d78 	eorscc	r2, r2, r8, ror sp
     968:	2f727073 	svccs	0x00727073
     96c:	7062696c 	rsbvc	r6, r2, ip, ror #18
     970:	6e692f69 	cdpvs	15, 6, cr2, cr9, cr9, {3}
     974:	64756c63 	ldrbtvs	r6, [r5], #-3171	; 0xc63
     978:	76000065 	strvc	r0, [r0], -r5, rrx
     97c:	72702d61 	rsbsvc	r2, r0, #6208	; 0x1840
     980:	6b746e69 	blvs	1d1c32c <__bss_end__+0x1d11964>
     984:	0100632e 	tsteq	r0, lr, lsr #6
     988:	74730000 	ldrbtvc	r0, [r3], #-0
     98c:	67726164 	ldrbvs	r6, [r2, -r4, ror #2]!
     990:	0200682e 	andeq	r6, r0, #3014656	; 0x2e0000
     994:	70720000 	rsbsvc	r0, r2, r0
     998:	00682e69 	rsbeq	r2, r8, r9, ror #28
     99c:	3c000003 	stccc	0, cr0, [r0], {3}
     9a0:	6c697562 	cfstr64vs	mvdx7, [r9], #-392	; 0xfffffe78
     9a4:	6e692d74 	mcrvs	13, 3, r2, cr9, cr4, {3}
     9a8:	0000003e 	andeq	r0, r0, lr, lsr r0
     9ac:	05000000 	streq	r0, [r0, #-0]
     9b0:	0091a802 	addseq	sl, r1, r2, lsl #16
     9b4:	01260300 	teqeq	r6, r0, lsl #6
     9b8:	3113a501 	tstcc	r3, r1, lsl #10
     9bc:	0402002d 	streq	r0, [r2], #-45	; 0x2d
     9c0:	02002f02 	andeq	r2, r0, #2, 30
     9c4:	002d0204 	eoreq	r0, sp, r4, lsl #4
     9c8:	2f020402 	svccs	0x00020402
     9cc:	01040200 	mrseq	r0, R12_usr
     9d0:	304c4c2d 	subcc	r4, ip, sp, lsr #24
     9d4:	4f2f4b14 	svcmi	0x002f4b14
     9d8:	02040200 	andeq	r0, r4, #0, 4
     9dc:	04020067 	streq	r0, [r2], #-103	; 0x67
     9e0:	4d4c6501 	cfstr64mi	mvdx6, [ip, #-4]
     9e4:	312fa030 	teqcc	pc, r0, lsr r0	; <UNPREDICTABLE>
     9e8:	16260230 			; <UNDEFINED> instruction: 0x16260230
     9ec:	002c2d84 	eoreq	r2, ip, r4, lsl #27
     9f0:	30010402 	andcc	r0, r1, r2, lsl #8
     9f4:	01040200 	mrseq	r0, R12_usr
     9f8:	00660633 	rsbeq	r0, r6, r3, lsr r6
     9fc:	2e010402 	cdpcs	4, 0, cr0, cr1, cr2, {0}
     a00:	01040200 	mrseq	r0, R12_usr
     a04:	67210806 	strvs	r0, [r1, -r6, lsl #16]!
     a08:	8273032f 	rsbshi	r0, r3, #-1140850688	; 0xbc000000
     a0c:	002e1303 	eoreq	r1, lr, r3, lsl #6
     a10:	06010402 	streq	r0, [r1], -r2, lsl #8
     a14:	04020066 	streq	r0, [r2], #-102	; 0x66
     a18:	4b830601 	blmi	fe0c2224 <__bss_end__+0xfe0b785c>
     a1c:	4b31674b 	blmi	c5a750 <__bss_end__+0xc4fd88>
     a20:	032e6503 	teqeq	lr, #12582912	; 0xc00000
     a24:	02002e23 	andeq	r2, r0, #560	; 0x230
     a28:	2e060104 	adfcss	f0, f6, f4
     a2c:	01040200 	mrseq	r0, R12_usr
     a30:	02009f06 	andeq	r9, r0, #6, 30
     a34:	086a0104 	stmdaeq	sl!, {r2, r8}^
     a38:	a403d723 	strge	sp, [r3], #-1827	; 0x723
     a3c:	4b3c087f 	blmi	f02c40 <__bss_end__+0xef8278>
     a40:	01040200 	mrseq	r0, R12_usr
     a44:	08064a06 	stmdaeq	r6, {r1, r2, r9, fp, lr}
     a48:	4b2f4b21 	blmi	bd36d4 <__bss_end__+0xbc8d0c>
     a4c:	f200db03 	vqdmulh.s<illegal width 8>	d13, d0, d3
     a50:	32484c9f 	subcc	r4, r8, #40704	; 0x9f00
     a54:	4b842f4b 	blmi	fe10c788 <__bss_end__+0xfe101dc0>
     a58:	314d2d2f 	cmpcc	sp, pc, lsr #26
     a5c:	00832f30 	addeq	r2, r3, r0, lsr pc
     a60:	2c010402 	cfstrscs	mvf0, [r1], {2}
     a64:	040200be 	streq	r0, [r2], #-190	; 0xbe
     a68:	064a0601 	strbeq	r0, [sl], -r1, lsl #12
     a6c:	36022208 	strcc	r2, [r2], -r8, lsl #4
     a70:	d60e0316 			; <UNDEFINED> instruction: 0xd60e0316
     a74:	08302108 	ldmdaeq	r0!, {r3, r8, sp}
     a78:	21083121 	tstcs	r8, r1, lsr #2
     a7c:	30210830 	eorcc	r0, r1, r0, lsr r8
     a80:	2108304b 	tstcs	r8, fp, asr #32
     a84:	83834b30 	orrhi	r4, r3, #48, 22	; 0xc000
     a88:	002f31d9 	ldrdeq	r3, [pc], -r9	; <UNPREDICTABLE>
     a8c:	65010402 	strvs	r0, [r1, #-1026]	; 0x402
     a90:	02040200 	andeq	r0, r4, #0, 4
     a94:	02004a06 	andeq	r4, r0, #24576	; 0x6000
     a98:	03060104 	movweq	r0, #24836	; 0x6104
     a9c:	00667fbf 	strhteq	r7, [r6], #-255	; 0xffffff01
     aa0:	06020402 	streq	r0, [r2], -r2, lsl #8
     aa4:	c5030666 	strgt	r0, [r3, #-1638]	; 0x666
     aa8:	02684a00 	rsbeq	r4, r8, #0, 20
     aac:	01010016 	tsteq	r1, r6, lsl r0
     ab0:	00000042 	andeq	r0, r0, r2, asr #32
     ab4:	00280002 	eoreq	r0, r8, r2
     ab8:	01020000 	mrseq	r0, (UNDEF: 2)
     abc:	000d0efb 	strdeq	r0, [sp], -fp
     ac0:	01010101 	tsteq	r1, r1, lsl #2
     ac4:	01000000 	mrseq	r0, (UNDEF: 0)
     ac8:	73010000 	movwvc	r0, #4096	; 0x1000
     acc:	66666174 			; <UNDEFINED> instruction: 0x66666174
     ad0:	6372732d 	cmnvs	r2, #-1275068416	; 0xb4000000
     ad4:	61630000 	cmnvs	r3, r0
     ad8:	2e656863 	cdpcs	8, 6, cr6, cr5, cr3, {3}
     adc:	00010063 	andeq	r0, r1, r3, rrx
     ae0:	05000000 	streq	r0, [r0, #-0]
     ae4:	00972002 	addseq	r2, r7, r2
     ae8:	30141400 	andscc	r1, r4, r0, lsl #8
     aec:	31144e2f 	tstcc	r4, pc, lsr #28
     af0:	0004022f 	andeq	r0, r4, pc, lsr #4
     af4:	009d0101 	addseq	r0, sp, r1, lsl #2
     af8:	00020000 	andeq	r0, r2, r0
     afc:	00000086 	andeq	r0, r0, r6, lsl #1
     b00:	0efb0102 	cdpeq	1, 15, cr0, cr11, cr2, {0}
     b04:	0101000d 	tsteq	r1, sp
     b08:	00000101 	andeq	r0, r0, r1, lsl #2
     b0c:	00000100 	andeq	r0, r0, r0, lsl #2
     b10:	61747301 	cmnvs	r4, r1, lsl #6
     b14:	732d6666 	teqvc	sp, #106954752	; 0x6600000
     b18:	2f006372 	svccs	0x00006372
     b1c:	72657355 	rsbvc	r7, r5, #1409286145	; 0x54000001
     b20:	72622f73 	rsbvc	r2, r2, #460	; 0x1cc
     b24:	6a6e6169 	bvs	1b990d0 <__bss_end__+0x1b8e708>
     b28:	442f6e75 	strtmi	r6, [pc], #-3701	; b30 <__code_start__-0x74d0>
     b2c:	746b7365 	strbtvc	r7, [fp], #-869	; 0x365
     b30:	732f706f 	teqvc	pc, #111	; 0x6f
     b34:	6f6f6863 	svcvs	0x006f6863
     b38:	70532f6c 	subsvc	r2, r3, ip, ror #30
     b3c:	676e6972 			; <UNDEFINED> instruction: 0x676e6972
     b40:	30323931 	eorscc	r3, r2, r1, lsr r9
     b44:	3253432f 	subscc	r4, r3, #-1140850688	; 0xbc000000
     b48:	584c3034 	stmdapl	ip, {r2, r4, r5, ip, sp}^
     b4c:	3273632f 	rsbscc	r6, r3, #-1140850688	; 0xbc000000
     b50:	786c3034 	stmdavc	ip!, {r2, r4, r5, ip, sp}^
     b54:	7330322d 	teqvc	r0, #-805306366	; 0xd0000002
     b58:	6c2f7270 	sfmvs	f7, 4, [pc], #-448	; 9a0 <__code_start__-0x7660>
     b5c:	69706269 	ldmdbvs	r0!, {r0, r3, r5, r6, r9, sp, lr}^
     b60:	636e692f 	cmnvs	lr, #770048	; 0xbc000
     b64:	6564756c 	strbvs	r7, [r4, #-1388]!	; 0x56c
     b68:	6c630000 	stclvs	0, cr0, [r3], #-0
     b6c:	2d6e6165 	stfcse	f6, [lr, #-404]!	; 0xfffffe6c
     b70:	6f626572 	svcvs	0x00626572
     b74:	632e746f 	teqvs	lr, #1862270976	; 0x6f000000
     b78:	00000100 	andeq	r0, r0, r0, lsl #2
     b7c:	2e697072 	mcrcs	0, 3, r7, cr9, cr2, {3}
     b80:	00020068 	andeq	r0, r2, r8, rrx
     b84:	05000000 	streq	r0, [r0, #-0]
     b88:	00974002 	addseq	r4, r7, r2
     b8c:	2f2f1500 	svccs	0x002f1500
     b90:	06024b83 	streq	r4, [r2], -r3, lsl #23
     b94:	a6010100 	strge	r0, [r1], -r0, lsl #2
     b98:	02000000 	andeq	r0, r0, #0
     b9c:	00008000 	andeq	r8, r0, r0
     ba0:	fb010200 	blx	413aa <__bss_end__+0x369e2>
     ba4:	01000d0e 	tsteq	r0, lr, lsl #26
     ba8:	00010101 	andeq	r0, r1, r1, lsl #2
     bac:	00010000 	andeq	r0, r1, r0
     bb0:	74730100 	ldrbtvc	r0, [r3], #-256	; 0x100
     bb4:	2d666661 	stclcs	6, cr6, [r6, #-388]!	; 0xfffffe7c
     bb8:	00637273 	rsbeq	r7, r3, r3, ror r2
     bbc:	6573552f 	ldrbvs	r5, [r3, #-1327]!	; 0x52f
     bc0:	622f7372 	eorvs	r7, pc, #-939524095	; 0xc8000001
     bc4:	6e616972 	mcrvs	9, 3, r6, cr1, cr2, {3}
     bc8:	2f6e756a 	svccs	0x006e756a
     bcc:	6b736544 	blvs	1cda0e4 <__bss_end__+0x1ccf71c>
     bd0:	2f706f74 	svccs	0x00706f74
     bd4:	6f686373 	svcvs	0x00686373
     bd8:	532f6c6f 	teqpl	pc, #28416	; 0x6f00
     bdc:	6e697270 	mcrvs	2, 3, r7, cr9, cr0, {3}
     be0:	32393167 	eorscc	r3, r9, #-1073741799	; 0xc0000019
     be4:	53432f30 	movtpl	r2, #16176	; 0x3f30
     be8:	4c303432 	cfldrsmi	mvf3, [r0], #-200	; 0xffffff38
     bec:	73632f58 	cmnvc	r3, #88, 30	; 0x160
     bf0:	6c303432 	cfldrsvs	mvf3, [r0], #-200	; 0xffffff38
     bf4:	30322d78 	eorscc	r2, r2, r8, ror sp
     bf8:	2f727073 	svccs	0x00727073
     bfc:	7062696c 	rsbvc	r6, r2, ip, ror #18
     c00:	6e692f69 	cdpvs	15, 6, cr2, cr9, cr9, {3}
     c04:	64756c63 	ldrbtvs	r6, [r5], #-3171	; 0xc63
     c08:	63000065 	movwvs	r0, #101	; 0x65
     c0c:	72617473 	rsbvc	r7, r1, #1929379840	; 0x73000000
     c10:	00632e74 	rsbeq	r2, r3, r4, ror lr
     c14:	72000001 	andvc	r0, r0, #1
     c18:	682e6970 	stmdavs	lr!, {r4, r5, r6, r8, fp, sp, lr}
     c1c:	00000200 	andeq	r0, r0, r0, lsl #4
     c20:	02050000 	andeq	r0, r5, #0
     c24:	0000976c 	andeq	r9, r0, ip, ror #14
     c28:	32010c03 	andcc	r0, r1, #768	; 0x300
     c2c:	2f2d2f31 	svccs	0x002d2f31
     c30:	01040200 	mrseq	r0, R12_usr
     c34:	4a090349 	bmi	241960 <__bss_end__+0x236f98>
     c38:	2f2e0d03 	svccs	0x002e0d03
     c3c:	01000602 	tsteq	r0, r2, lsl #12
     c40:	0000a201 	andeq	sl, r0, r1, lsl #4
     c44:	8e000200 	cdphi	2, 0, cr0, cr0, cr0, {0}
     c48:	02000000 	andeq	r0, r0, #0
     c4c:	0d0efb01 	vstreq	d15, [lr, #-4]
     c50:	01010100 	mrseq	r0, (UNDEF: 17)
     c54:	00000001 	andeq	r0, r0, r1
     c58:	01000001 	tsteq	r0, r1
     c5c:	66617473 			; <UNDEFINED> instruction: 0x66617473
     c60:	72732d66 	rsbsvc	r2, r3, #6528	; 0x1980
     c64:	552f0063 	strpl	r0, [pc, #-99]!	; c09 <__code_start__-0x73f7>
     c68:	73726573 	cmnvc	r2, #482344960	; 0x1cc00000
     c6c:	6972622f 	ldmdbvs	r2!, {r0, r1, r2, r3, r5, r9, sp, lr}^
     c70:	756a6e61 	strbvc	r6, [sl, #-3681]!	; 0xe61
     c74:	65442f6e 	strbvs	r2, [r4, #-3950]	; 0xf6e
     c78:	6f746b73 	svcvs	0x00746b73
     c7c:	63732f70 	cmnvs	r3, #112, 30	; 0x1c0
     c80:	6c6f6f68 	stclvs	15, cr6, [pc], #-416	; ae8 <__code_start__-0x7518>
     c84:	7270532f 	rsbsvc	r5, r0, #-1140850688	; 0xbc000000
     c88:	31676e69 	cmncc	r7, r9, ror #28
     c8c:	2f303239 	svccs	0x00303239
     c90:	34325343 	ldrtcc	r5, [r2], #-835	; 0x343
     c94:	2f584c30 	svccs	0x00584c30
     c98:	34327363 	ldrtcc	r7, [r2], #-867	; 0x363
     c9c:	2d786c30 	ldclcs	12, cr6, [r8, #-192]!	; 0xffffff40
     ca0:	70733032 	rsbsvc	r3, r3, r2, lsr r0
     ca4:	696c2f72 	stmdbvs	ip!, {r1, r4, r5, r6, r8, r9, sl, fp, sp}^
     ca8:	2f697062 	svccs	0x00697062
     cac:	6c636e69 	stclvs	14, cr6, [r3], #-420	; 0xfffffe5c
     cb0:	00656475 	rsbeq	r6, r5, r5, ror r4
     cb4:	66656400 	strbtvs	r6, [r5], -r0, lsl #8
     cb8:	746c7561 	strbtvc	r7, [ip], #-1377	; 0x561
     cbc:	6e61682d 	cdpvs	8, 6, cr6, cr1, cr13, {1}
     cc0:	72656c64 	rsbvc	r6, r5, #100, 24	; 0x6400
     cc4:	7361662d 	cmnvc	r1, #47185920	; 0x2d00000
     cc8:	00632e74 	rsbeq	r2, r3, r4, ror lr
     ccc:	72000001 	andvc	r0, r0, #1
     cd0:	682e6970 	stmdavs	lr!, {r4, r5, r6, r8, fp, sp, lr}
     cd4:	00000200 	andeq	r0, r0, r0, lsl #4
     cd8:	02050000 	andeq	r0, r5, #0
     cdc:	000097a4 	andeq	r9, r0, r4, lsr #15
     ce0:	1c026613 	stcne	6, cr6, [r2], {19}
     ce4:	a3010100 	movwge	r0, #4352	; 0x1100
     ce8:	02000000 	andeq	r0, r0, #0
     cec:	00008f00 	andeq	r8, r0, r0, lsl #30
     cf0:	fb010200 	blx	414fa <__bss_end__+0x36b32>
     cf4:	01000d0e 	tsteq	r0, lr, lsl #26
     cf8:	00010101 	andeq	r0, r1, r1, lsl #2
     cfc:	00010000 	andeq	r0, r1, r0
     d00:	74730100 	ldrbtvc	r0, [r3], #-256	; 0x100
     d04:	2d666661 	stclcs	6, cr6, [r6, #-388]!	; 0xfffffe7c
     d08:	00637273 	rsbeq	r7, r3, r3, ror r2
     d0c:	6573552f 	ldrbvs	r5, [r3, #-1327]!	; 0x52f
     d10:	622f7372 	eorvs	r7, pc, #-939524095	; 0xc8000001
     d14:	6e616972 	mcrvs	9, 3, r6, cr1, cr2, {3}
     d18:	2f6e756a 	svccs	0x006e756a
     d1c:	6b736544 	blvs	1cda234 <__bss_end__+0x1ccf86c>
     d20:	2f706f74 	svccs	0x00706f74
     d24:	6f686373 	svcvs	0x00686373
     d28:	532f6c6f 	teqpl	pc, #28416	; 0x6f00
     d2c:	6e697270 	mcrvs	2, 3, r7, cr9, cr0, {3}
     d30:	32393167 	eorscc	r3, r9, #-1073741799	; 0xc0000019
     d34:	53432f30 	movtpl	r2, #16176	; 0x3f30
     d38:	4c303432 	cfldrsmi	mvf3, [r0], #-200	; 0xffffff38
     d3c:	73632f58 	cmnvc	r3, #88, 30	; 0x160
     d40:	6c303432 	cfldrsvs	mvf3, [r0], #-200	; 0xffffff38
     d44:	30322d78 	eorscc	r2, r2, r8, ror sp
     d48:	2f727073 	svccs	0x00727073
     d4c:	7062696c 	rsbvc	r6, r2, ip, ror #18
     d50:	6e692f69 	cdpvs	15, 6, cr2, cr9, cr9, {3}
     d54:	64756c63 	ldrbtvs	r6, [r5], #-3171	; 0xc63
     d58:	64000065 	strvs	r0, [r0], #-101	; 0x65
     d5c:	75616665 	strbvc	r6, [r1, #-1637]!	; 0x665
     d60:	682d746c 	stmdavs	sp!, {r2, r3, r5, r6, sl, ip, sp, lr}
     d64:	6c646e61 	stclvs	14, cr6, [r4], #-388	; 0xfffffe7c
     d68:	722d7265 	eorvc	r7, sp, #1342177286	; 0x50000006
     d6c:	74657365 	strbtvc	r7, [r5], #-869	; 0x365
     d70:	0100632e 	tsteq	r0, lr, lsr #6
     d74:	70720000 	rsbsvc	r0, r2, r0
     d78:	00682e69 	rsbeq	r2, r8, r9, ror #28
     d7c:	00000002 	andeq	r0, r0, r2
     d80:	e8020500 	stmda	r2, {r8, sl}
     d84:	13000097 	movwne	r0, #151	; 0x97
     d88:	001c0266 	andseq	r0, ip, r6, ror #4
     d8c:	00ac0101 	adceq	r0, ip, r1, lsl #2
     d90:	00020000 	andeq	r0, r2, r0
     d94:	00000098 	muleq	r0, r8, r0
     d98:	0efb0102 	cdpeq	1, 15, cr0, cr11, cr2, {0}
     d9c:	0101000d 	tsteq	r1, sp
     da0:	00000101 	andeq	r0, r0, r1, lsl #2
     da4:	00000100 	andeq	r0, r0, r0, lsl #2
     da8:	61747301 	cmnvs	r4, r1, lsl #6
     dac:	732d6666 	teqvc	sp, #106954752	; 0x6600000
     db0:	2f006372 	svccs	0x00006372
     db4:	72657355 	rsbvc	r7, r5, #1409286145	; 0x54000001
     db8:	72622f73 	rsbvc	r2, r2, #460	; 0x1cc
     dbc:	6a6e6169 	bvs	1b99368 <__bss_end__+0x1b8e9a0>
     dc0:	442f6e75 	strtmi	r6, [pc], #-3701	; dc8 <__code_start__-0x7238>
     dc4:	746b7365 	strbtvc	r7, [fp], #-869	; 0x365
     dc8:	732f706f 	teqvc	pc, #111	; 0x6f
     dcc:	6f6f6863 	svcvs	0x006f6863
     dd0:	70532f6c 	subsvc	r2, r3, ip, ror #30
     dd4:	676e6972 			; <UNDEFINED> instruction: 0x676e6972
     dd8:	30323931 	eorscc	r3, r2, r1, lsr r9
     ddc:	3253432f 	subscc	r4, r3, #-1140850688	; 0xbc000000
     de0:	584c3034 	stmdapl	ip, {r2, r4, r5, ip, sp}^
     de4:	3273632f 	rsbscc	r6, r3, #-1140850688	; 0xbc000000
     de8:	786c3034 	stmdavc	ip!, {r2, r4, r5, ip, sp}^
     dec:	7330322d 	teqvc	r0, #-805306366	; 0xd0000002
     df0:	6c2f7270 	sfmvs	f7, 4, [pc], #-448	; c38 <__code_start__-0x73c8>
     df4:	69706269 	ldmdbvs	r0!, {r0, r3, r5, r6, r9, sp, lr}^
     df8:	636e692f 	cmnvs	lr, #770048	; 0xbc000
     dfc:	6564756c 	strbvs	r7, [r4, #-1388]!	; 0x56c
     e00:	65640000 	strbvs	r0, [r4, #-0]!
     e04:	6c756166 	ldfvse	f6, [r5], #-408	; 0xfffffe68
     e08:	61682d74 	smcvs	33492	; 0x82d4
     e0c:	656c646e 	strbvs	r6, [ip, #-1134]!	; 0x46e
     e10:	6e752d72 	mrcvs	13, 3, r2, cr5, cr2, {3}
     e14:	69666564 	stmdbvs	r6!, {r2, r5, r6, r8, sl, sp, lr}^
     e18:	2d64656e 	cfstr64cs	mvdx6, [r4, #-440]!	; 0xfffffe48
     e1c:	74736e69 	ldrbtvc	r6, [r3], #-3689	; 0xe69
     e20:	0100632e 	tsteq	r0, lr, lsr #6
     e24:	70720000 	rsbsvc	r0, r2, r0
     e28:	00682e69 	rsbeq	r2, r8, r9, ror #28
     e2c:	00000002 	andeq	r0, r0, r2
     e30:	2c020500 	cfstr32cs	mvfx0, [r2], {-0}
     e34:	13000098 	movwne	r0, #152	; 0x98
     e38:	001c0266 	andseq	r0, ip, r6, ror #4
     e3c:	00470101 	subeq	r0, r7, r1, lsl #2
     e40:	00020000 	andeq	r0, r2, r0
     e44:	00000033 	andeq	r0, r0, r3, lsr r0
     e48:	0efb0102 	cdpeq	1, 15, cr0, cr11, cr2, {0}
     e4c:	0101000d 	tsteq	r1, sp
     e50:	00000101 	andeq	r0, r0, r1, lsl #2
     e54:	00000100 	andeq	r0, r0, r0, lsl #2
     e58:	61747301 	cmnvs	r4, r1, lsl #6
     e5c:	732d6666 	teqvc	sp, #106954752	; 0x6600000
     e60:	00006372 	andeq	r6, r0, r2, ror r3
     e64:	61666564 	cmnvs	r6, r4, ror #10
     e68:	2d746c75 	ldclcs	12, cr6, [r4, #-468]!	; 0xfffffe2c
     e6c:	646e6168 	strbtvs	r6, [lr], #-360	; 0x168
     e70:	7372656c 	cmnvc	r2, #108, 10	; 0x1b000000
     e74:	0100632e 	tsteq	r0, lr, lsr #6
     e78:	00000000 	andeq	r0, r0, r0
     e7c:	98700205 	ldmdals	r0!, {r0, r2, r9}^
     e80:	2f150000 	svccs	0x00150000
     e84:	01000202 	tsteq	r0, r2, lsl #4
     e88:	0000c901 	andeq	ip, r0, r1, lsl #18
     e8c:	9a000200 	bls	1694 <__code_start__-0x696c>
     e90:	02000000 	andeq	r0, r0, #0
     e94:	0d0efb01 	vstreq	d15, [lr, #-4]
     e98:	01010100 	mrseq	r0, (UNDEF: 17)
     e9c:	00000001 	andeq	r0, r0, r1
     ea0:	01000001 	tsteq	r0, r1
     ea4:	66617473 			; <UNDEFINED> instruction: 0x66617473
     ea8:	72732d66 	rsbsvc	r2, r3, #6528	; 0x1980
     eac:	552f0063 	strpl	r0, [pc, #-99]!	; e51 <__code_start__-0x71af>
     eb0:	73726573 	cmnvc	r2, #482344960	; 0x1cc00000
     eb4:	6972622f 	ldmdbvs	r2!, {r0, r1, r2, r3, r5, r9, sp, lr}^
     eb8:	756a6e61 	strbvc	r6, [sl, #-3681]!	; 0xe61
     ebc:	65442f6e 	strbvs	r2, [r4, #-3950]	; 0xf6e
     ec0:	6f746b73 	svcvs	0x00746b73
     ec4:	63732f70 	cmnvs	r3, #112, 30	; 0x1c0
     ec8:	6c6f6f68 	stclvs	15, cr6, [pc], #-416	; d30 <__code_start__-0x72d0>
     ecc:	7270532f 	rsbsvc	r5, r0, #-1140850688	; 0xbc000000
     ed0:	31676e69 	cmncc	r7, r9, ror #28
     ed4:	2f303239 	svccs	0x00303239
     ed8:	34325343 	ldrtcc	r5, [r2], #-835	; 0x343
     edc:	2f584c30 	svccs	0x00584c30
     ee0:	34327363 	ldrtcc	r7, [r2], #-867	; 0x363
     ee4:	2d786c30 	ldclcs	12, cr6, [r8, #-192]!	; 0xffffff40
     ee8:	70733032 	rsbsvc	r3, r3, r2, lsr r0
     eec:	696c2f72 	stmdbvs	ip!, {r1, r4, r5, r6, r8, r9, sl, fp, sp}^
     ef0:	2f697062 	svccs	0x00697062
     ef4:	6c636e69 	stclvs	14, cr6, [r3], #-420	; 0xfffffe5c
     ef8:	00656475 	rsbeq	r6, r5, r5, ror r4
     efc:	746e6900 	strbtvc	r6, [lr], #-2304	; 0x900
     f00:	75727265 	ldrbvc	r7, [r2, #-613]!	; 0x265
     f04:	2d737470 	cfldrdcs	mvd7, [r3, #-448]!	; 0xfffffe40
     f08:	00632e63 	rsbeq	r2, r3, r3, ror #28
     f0c:	72000001 	andvc	r0, r0, #1
     f10:	692d6970 	pushvs	{r4, r5, r6, r8, fp, sp, lr}
     f14:	7265746e 	rsbvc	r7, r5, #1845493760	; 0x6e000000
     f18:	74707572 	ldrbtvc	r7, [r0], #-1394	; 0x572
     f1c:	00682e73 	rsbeq	r2, r8, r3, ror lr
     f20:	72000002 	andvc	r0, r0, #2
     f24:	682e6970 	stmdavs	lr!, {r4, r5, r6, r8, fp, sp, lr}
     f28:	00000200 	andeq	r0, r0, r0, lsl #4
     f2c:	02050000 	andeq	r0, r5, #0
     f30:	00009878 	andeq	r9, r0, r8, ror r8
     f34:	31011a03 	tstcc	r1, r3, lsl #20
     f38:	3667672f 	strbtcc	r6, [r7], -pc, lsr #14
     f3c:	002d2f83 	eoreq	r2, sp, r3, lsl #31
     f40:	2f020402 	svccs	0x00020402
     f44:	02040200 	andeq	r0, r4, #0, 4
     f48:	04020065 	streq	r0, [r2], #-101	; 0x65
     f4c:	062e0601 	strteq	r0, [lr], -r1, lsl #12
     f50:	000a024c 	andeq	r0, sl, ip, asr #4
     f54:	00a20101 	adceq	r0, r2, r1, lsl #2
     f58:	00020000 	andeq	r0, r2, r0
     f5c:	00000080 	andeq	r0, r0, r0, lsl #1
     f60:	0efb0102 	cdpeq	1, 15, cr0, cr11, cr2, {0}
     f64:	0101000d 	tsteq	r1, sp
     f68:	00000101 	andeq	r0, r0, r1, lsl #2
     f6c:	00000100 	andeq	r0, r0, r0, lsl #2
     f70:	61747301 	cmnvs	r4, r1, lsl #6
     f74:	732d6666 	teqvc	sp, #106954752	; 0x6600000
     f78:	2f006372 	svccs	0x00006372
     f7c:	72657355 	rsbvc	r7, r5, #1409286145	; 0x54000001
     f80:	72622f73 	rsbvc	r2, r2, #460	; 0x1cc
     f84:	6a6e6169 	bvs	1b99530 <__bss_end__+0x1b8eb68>
     f88:	442f6e75 	strtmi	r6, [pc], #-3701	; f90 <__code_start__-0x7070>
     f8c:	746b7365 	strbtvc	r7, [fp], #-869	; 0x365
     f90:	732f706f 	teqvc	pc, #111	; 0x6f
     f94:	6f6f6863 	svcvs	0x006f6863
     f98:	70532f6c 	subsvc	r2, r3, ip, ror #30
     f9c:	676e6972 			; <UNDEFINED> instruction: 0x676e6972
     fa0:	30323931 	eorscc	r3, r2, r1, lsr r9
     fa4:	3253432f 	subscc	r4, r3, #-1140850688	; 0xbc000000
     fa8:	584c3034 	stmdapl	ip, {r2, r4, r5, ip, sp}^
     fac:	3273632f 	rsbscc	r6, r3, #-1140850688	; 0xbc000000
     fb0:	786c3034 	stmdavc	ip!, {r2, r4, r5, ip, sp}^
     fb4:	7330322d 	teqvc	r0, #-805306366	; 0xd0000002
     fb8:	6c2f7270 	sfmvs	f7, 4, [pc], #-448	; e00 <__code_start__-0x7200>
     fbc:	69706269 	ldmdbvs	r0!, {r0, r3, r5, r6, r9, sp, lr}^
     fc0:	636e692f 	cmnvs	lr, #770048	; 0xbc000
     fc4:	6564756c 	strbvs	r7, [r4, #-1388]!	; 0x56c
     fc8:	65720000 	ldrbvs	r0, [r2, #-0]!
     fcc:	746f6f62 	strbtvc	r6, [pc], #-3938	; fd4 <__code_start__-0x702c>
     fd0:	0100632e 	tsteq	r0, lr, lsr #6
     fd4:	70720000 	rsbsvc	r0, r2, r0
     fd8:	00682e69 	rsbeq	r2, r8, r9, ror #28
     fdc:	00000002 	andeq	r0, r0, r2
     fe0:	e4020500 	str	r0, [r2], #-1280	; 0x500
     fe4:	03000098 	movweq	r0, #152	; 0x98
     fe8:	3114010d 	tstcc	r4, sp, lsl #2
     fec:	2f15852f 	svccs	0x0015852f
     ff0:	672f4d4b 	strvs	r4, [pc, -fp, asr #26]!
     ff4:	02675235 	rsbeq	r5, r7, #1342177283	; 0x50000003
     ff8:	01010010 	tsteq	r1, r0, lsl r0
     ffc:	000000ae 	andeq	r0, r0, lr, lsr #1
    1000:	007f0002 	rsbseq	r0, pc, r2
    1004:	01020000 	mrseq	r0, (UNDEF: 2)
    1008:	000d0efb 	strdeq	r0, [sp], -fp
    100c:	01010101 	tsteq	r1, r1, lsl #2
    1010:	01000000 	mrseq	r0, (UNDEF: 0)
    1014:	73010000 	movwvc	r0, #4096	; 0x1000
    1018:	66666174 			; <UNDEFINED> instruction: 0x66666174
    101c:	6372732d 	cmnvs	r2, #-1275068416	; 0xb4000000
    1020:	73552f00 	cmpvc	r5, #0, 30
    1024:	2f737265 	svccs	0x00737265
    1028:	61697262 	cmnvs	r9, r2, ror #4
    102c:	6e756a6e 	vsubvs.f32	s13, s10, s29
    1030:	7365442f 	cmnvc	r5, #788529152	; 0x2f000000
    1034:	706f746b 	rsbvc	r7, pc, fp, ror #8
    1038:	6863732f 	stmdavs	r3!, {r0, r1, r2, r3, r5, r8, r9, ip, sp, lr}^
    103c:	2f6c6f6f 	svccs	0x006c6f6f
    1040:	69727053 	ldmdbvs	r2!, {r0, r1, r4, r6, ip, sp, lr}^
    1044:	3931676e 	ldmdbcc	r1!, {r1, r2, r3, r5, r6, r8, r9, sl, sp, lr}
    1048:	432f3032 	teqmi	pc, #50	; 0x32
    104c:	30343253 	eorscc	r3, r4, r3, asr r2
    1050:	632f584c 	teqvs	pc, #76, 16	; 0x4c0000
    1054:	30343273 	eorscc	r3, r4, r3, ror r2
    1058:	322d786c 	eorcc	r7, sp, #108, 16	; 0x6c0000
    105c:	72707330 	rsbsvc	r7, r0, #48, 6	; 0xc0000000
    1060:	62696c2f 	rsbvs	r6, r9, #12032	; 0x2f00
    1064:	692f6970 	stmdbvs	pc!, {r4, r5, r6, r8, fp, sp, lr}	; <UNPREDICTABLE>
    1068:	756c636e 	strbvc	r6, [ip, #-878]!	; 0x36e
    106c:	00006564 	andeq	r6, r0, r4, ror #10
    1070:	656d6974 	strbvs	r6, [sp, #-2420]!	; 0x974
    1074:	00632e72 	rsbeq	r2, r3, r2, ror lr
    1078:	72000001 	andvc	r0, r0, #1
    107c:	682e6970 	stmdavs	lr!, {r4, r5, r6, r8, fp, sp, lr}
    1080:	00000200 	andeq	r0, r0, r0, lsl #4
    1084:	02050000 	andeq	r0, r5, #0
    1088:	00009958 	andeq	r9, r0, r8, asr r9
    108c:	2d2f1416 	cfstrscs	mvf1, [pc, #-88]!	; 103c <__code_start__-0x6fc4>
    1090:	01040200 	mrseq	r0, R12_usr
    1094:	6d062e06 	stcvs	14, cr2, [r6, #-24]	; 0xffffffe8
    1098:	4d4b2f31 	stclmi	15, cr2, [fp, #-196]	; 0xffffff3c
    109c:	304b2f31 	subcc	r2, fp, r1, lsr pc
    10a0:	2f4c4b4c 	svccs	0x004c4b4c
    10a4:	842f2f6a 	strthi	r2, [pc], #-3946	; 10ac <__code_start__-0x6f54>
    10a8:	0008022f 	andeq	r0, r8, pc, lsr #4
    10ac:	01480101 	cmpeq	r8, r1, lsl #2
    10b0:	00020000 	andeq	r0, r2, r0
    10b4:	00000102 	andeq	r0, r0, r2, lsl #2
    10b8:	0efb0102 	cdpeq	1, 15, cr0, cr11, cr2, {0}
    10bc:	0101000d 	tsteq	r1, sp
    10c0:	00000101 	andeq	r0, r0, r1, lsl #2
    10c4:	00000100 	andeq	r0, r0, r0, lsl #2
    10c8:	73752f01 	cmnvc	r5, #1, 30
    10cc:	6e692f72 	mcrvs	15, 3, r2, cr9, cr2, {3}
    10d0:	64756c63 	ldrbtvs	r6, [r5], #-3171	; 0xc63
    10d4:	656e2f65 	strbvs	r2, [lr, #-3941]!	; 0xf65
    10d8:	62696c77 	rsbvs	r6, r9, #30464	; 0x7700
    10dc:	7379732f 	cmnvc	r9, #-1140850688	; 0xbc000000
    10e0:	73752f00 	cmnvc	r5, #0, 30
    10e4:	696c2f72 	stmdbvs	ip!, {r1, r4, r5, r6, r8, r9, sl, fp, sp}^
    10e8:	63672f62 	cmnvs	r7, #392	; 0x188
    10ec:	72612f63 	rsbvc	r2, r1, #396	; 0x18c
    10f0:	6f6e2d6d 	svcvs	0x006e2d6d
    10f4:	652d656e 	strvs	r6, [sp, #-1390]!	; 0x56e
    10f8:	2f696261 	svccs	0x00696261
    10fc:	2e332e36 	mrccs	14, 1, r2, cr3, cr6, {1}
    1100:	6e692f31 	mcrvs	15, 3, r2, cr9, cr1, {1}
    1104:	64756c63 	ldrbtvs	r6, [r5], #-3171	; 0xc63
    1108:	682f0065 	stmdavs	pc!, {r0, r2, r5, r6}	; <UNPREDICTABLE>
    110c:	2f656d6f 	svccs	0x00656d6f
    1110:	6c676e65 	stclvs	14, cr6, [r7], #-404	; 0xfffffe6c
    1114:	632f7265 	teqvs	pc, #1342177286	; 0x50000006
    1118:	7373616c 	cmnvc	r3, #108, 2
    111c:	3273632f 	rsbscc	r6, r3, #-1140850688	; 0xbc000000
    1120:	786c3034 	stmdavc	ip!, {r2, r4, r5, ip, sp}^
    1124:	7330322d 	teqvc	r0, #-805306366	; 0xd0000002
    1128:	2f2f7270 	svccs	0x002f7270
    112c:	7062696c 	rsbvc	r6, r2, ip, ror #18
    1130:	682f0069 	stmdavs	pc!, {r0, r3, r5, r6}	; <UNPREDICTABLE>
    1134:	2f656d6f 	svccs	0x00656d6f
    1138:	6c676e65 	stclvs	14, cr6, [r7], #-404	; 0xfffffe6c
    113c:	632f7265 	teqvs	pc, #1342177286	; 0x50000006
    1140:	7373616c 	cmnvc	r3, #108, 2
    1144:	3273632f 	rsbscc	r6, r3, #-1140850688	; 0xbc000000
    1148:	786c3034 	stmdavc	ip!, {r2, r4, r5, ip, sp}^
    114c:	7330322d 	teqvc	r0, #-805306366	; 0xd0000002
    1150:	2f2f7270 	svccs	0x002f7270
    1154:	7062696c 	rsbvc	r6, r2, ip, ror #18
    1158:	74732f69 	ldrbtvc	r2, [r3], #-3945	; 0xf69
    115c:	2d666661 	stclcs	6, cr6, [r6, #-388]!	; 0xfffffe7c
    1160:	00637273 	rsbeq	r7, r3, r3, ror r2
    1164:	72617500 	rsbvc	r7, r1, #0, 10
    1168:	00632e74 	rsbeq	r2, r3, r4, ror lr
    116c:	6c000000 	stcvs	0, cr0, [r0], {-0}
    1170:	2e6b636f 	cdpcs	3, 6, cr6, cr11, cr15, {3}
    1174:	00010068 	andeq	r0, r1, r8, rrx
    1178:	79745f00 	ldmdbvc	r4!, {r8, r9, sl, fp, ip, lr}^
    117c:	2e736570 	mrccs	5, 3, r6, cr3, cr0, {3}
    1180:	00010068 	andeq	r0, r1, r8, rrx
    1184:	64747300 	ldrbtvs	r7, [r4], #-768	; 0x300
    1188:	2e666564 	cdpcs	5, 6, cr6, cr6, cr4, {3}
    118c:	00020068 	andeq	r0, r2, r8, rrx
    1190:	65657200 	strbvs	r7, [r5, #-512]!	; 0x200
    1194:	682e746e 	stmdavs	lr!, {r1, r2, r3, r5, r6, sl, ip, sp, lr}
    1198:	00000100 	andeq	r0, r0, r0, lsl #2
    119c:	2e697072 	mcrcs	0, 3, r7, cr9, cr2, {3}
    11a0:	00030068 	andeq	r0, r3, r8, rrx
    11a4:	72617500 	rsbvc	r7, r1, #0, 10
    11a8:	00682e74 	rsbeq	r2, r8, r4, ror lr
    11ac:	67000004 	strvs	r0, [r0, -r4]
    11b0:	2e6f6970 	mcrcs	9, 3, r6, cr15, cr0, {3}
    11b4:	00040068 	andeq	r0, r4, r8, rrx
    11b8:	05000000 	streq	r0, [r0, #-0]
    11bc:	009a5402 	addseq	r5, sl, r2, lsl #8
    11c0:	012c0300 	teqeq	ip, r0, lsl #6
    11c4:	9e0c0367 	cdpls	3, 0, cr0, cr12, cr7, {3}
    11c8:	35686735 	strbcc	r6, [r8, #-1845]!	; 0x735
    11cc:	2e0c0368 	cdpcs	3, 0, cr0, cr12, cr8, {3}
    11d0:	69696b85 	stmdbvs	r9!, {r0, r2, r7, r8, r9, fp, sp, lr}^
    11d4:	6b660c03 	blvs	19841e8 <__bss_end__+0x1979820>
    11d8:	34420867 	strbcc	r0, [r2], #-2151	; 0x867
    11dc:	68364b68 	ldmdavs	r6!, {r3, r5, r6, r8, r9, fp, lr}
    11e0:	02002f87 	andeq	r2, r0, #540	; 0x21c
    11e4:	682f0104 	stmdavs	pc!, {r2, r8}	; <UNPREDICTABLE>
    11e8:	4b673067 	blmi	19cd38c <__bss_end__+0x19c29c4>
    11ec:	01040200 	mrseq	r0, R12_usr
    11f0:	6967682f 	stmdbvs	r7!, {r0, r1, r2, r3, r5, fp, sp, lr}^
    11f4:	0006022e 	andeq	r0, r6, lr, lsr #4
    11f8:	012b0101 	teqeq	fp, r1, lsl #2
    11fc:	00020000 	andeq	r0, r2, r0
    1200:	000000f8 	strdeq	r0, [r0], -r8
    1204:	0efb0102 	cdpeq	1, 15, cr0, cr11, cr2, {0}
    1208:	0101000d 	tsteq	r1, sp
    120c:	00000101 	andeq	r0, r0, r1, lsl #2
    1210:	00000100 	andeq	r0, r0, r0, lsl #2
    1214:	73752f01 	cmnvc	r5, #1, 30
    1218:	6e692f72 	mcrvs	15, 3, r2, cr9, cr2, {3}
    121c:	64756c63 	ldrbtvs	r6, [r5], #-3171	; 0xc63
    1220:	656e2f65 	strbvs	r2, [lr, #-3941]!	; 0xf65
    1224:	62696c77 	rsbvs	r6, r9, #30464	; 0x7700
    1228:	7379732f 	cmnvc	r9, #-1140850688	; 0xbc000000
    122c:	73752f00 	cmnvc	r5, #0, 30
    1230:	696c2f72 	stmdbvs	ip!, {r1, r4, r5, r6, r8, r9, sl, fp, sp}^
    1234:	63672f62 	cmnvs	r7, #392	; 0x188
    1238:	72612f63 	rsbvc	r2, r1, #396	; 0x18c
    123c:	6f6e2d6d 	svcvs	0x006e2d6d
    1240:	652d656e 	strvs	r6, [sp, #-1390]!	; 0x56e
    1244:	2f696261 	svccs	0x00696261
    1248:	2e332e36 	mrccs	14, 1, r2, cr3, cr6, {1}
    124c:	6e692f31 	mcrvs	15, 3, r2, cr9, cr1, {1}
    1250:	64756c63 	ldrbtvs	r6, [r5], #-3171	; 0xc63
    1254:	682f0065 	stmdavs	pc!, {r0, r2, r5, r6}	; <UNPREDICTABLE>
    1258:	2f656d6f 	svccs	0x00656d6f
    125c:	6c676e65 	stclvs	14, cr6, [r7], #-404	; 0xfffffe6c
    1260:	632f7265 	teqvs	pc, #1342177286	; 0x50000006
    1264:	7373616c 	cmnvc	r3, #108, 2
    1268:	3273632f 	rsbscc	r6, r3, #-1140850688	; 0xbc000000
    126c:	786c3034 	stmdavc	ip!, {r2, r4, r5, ip, sp}^
    1270:	7330322d 	teqvc	r0, #-805306366	; 0xd0000002
    1274:	2f2f7270 	svccs	0x002f7270
    1278:	7062696c 	rsbvc	r6, r2, ip, ror #18
    127c:	682f0069 	stmdavs	pc!, {r0, r3, r5, r6}	; <UNPREDICTABLE>
    1280:	2f656d6f 	svccs	0x00656d6f
    1284:	6c676e65 	stclvs	14, cr6, [r7], #-404	; 0xfffffe6c
    1288:	632f7265 	teqvs	pc, #1342177286	; 0x50000006
    128c:	7373616c 	cmnvc	r3, #108, 2
    1290:	3273632f 	rsbscc	r6, r3, #-1140850688	; 0xbc000000
    1294:	786c3034 	stmdavc	ip!, {r2, r4, r5, ip, sp}^
    1298:	7330322d 	teqvc	r0, #-805306366	; 0xd0000002
    129c:	2f2f7270 	svccs	0x002f7270
    12a0:	7062696c 	rsbvc	r6, r2, ip, ror #18
    12a4:	74732f69 	ldrbtvc	r2, [r3], #-3945	; 0xf69
    12a8:	2d666661 	stclcs	6, cr6, [r6, #-388]!	; 0xfffffe7c
    12ac:	00637273 	rsbeq	r7, r3, r3, ror r2
    12b0:	69706700 	ldmdbvs	r0!, {r8, r9, sl, sp, lr}^
    12b4:	00632e6f 	rsbeq	r2, r3, pc, ror #28
    12b8:	6c000000 	stcvs	0, cr0, [r0], {-0}
    12bc:	2e6b636f 	cdpcs	3, 6, cr6, cr11, cr15, {3}
    12c0:	00010068 	andeq	r0, r1, r8, rrx
    12c4:	79745f00 	ldmdbvc	r4!, {r8, r9, sl, fp, ip, lr}^
    12c8:	2e736570 	mrccs	5, 3, r6, cr3, cr0, {3}
    12cc:	00010068 	andeq	r0, r1, r8, rrx
    12d0:	64747300 	ldrbtvs	r7, [r4], #-768	; 0x300
    12d4:	2e666564 	cdpcs	5, 6, cr6, cr6, cr4, {3}
    12d8:	00020068 	andeq	r0, r2, r8, rrx
    12dc:	65657200 	strbvs	r7, [r5, #-512]!	; 0x200
    12e0:	682e746e 	stmdavs	lr!, {r1, r2, r3, r5, r6, sl, ip, sp, lr}
    12e4:	00000100 	andeq	r0, r0, r0, lsl #2
    12e8:	2e697072 	mcrcs	0, 3, r7, cr9, cr2, {3}
    12ec:	00030068 	andeq	r0, r3, r8, rrx
    12f0:	69706700 	ldmdbvs	r0!, {r8, r9, sl, sp, lr}^
    12f4:	00682e6f 	rsbeq	r2, r8, pc, ror #28
    12f8:	00000004 	andeq	r0, r0, r4
    12fc:	cc020500 	cfstr32gt	mvfx0, [r2], {-0}
    1300:	0300009b 	movweq	r0, #155	; 0x9b
    1304:	4c130127 	ldfmis	f0, [r3], {39}	; 0x27
    1308:	68f44f47 	ldmvs	r4!, {r0, r1, r2, r6, r8, r9, sl, fp, lr}^
    130c:	2fa14c4b 	svccs	0x00a14c4b
    1310:	3149136a 	cmpcc	r9, sl, ror #6
    1314:	314913be 	strhcc	r1, [r9, #-62]	; 0xffffffc2
    1318:	2f6a2fbe 	svccs	0x006a2fbe
    131c:	134f484d 	movtne	r4, #63565	; 0xf84d
    1320:	b72f3249 	strlt	r3, [pc, -r9, asr #4]!
    1324:	01000602 	tsteq	r0, r2, lsl #12
    1328:	Address 0x0000000000001328 is out of bounds.


Disassembly of section .debug_str:

00000000 <.debug_str>:
   0:	65646f6d 	strbvs	r6, [r4, #-3949]!	; 0xf6d
   4:	7465675f 	strbtvc	r6, [r5], #-1887	; 0x75f
   8:	6b726200 	blvs	1c98810 <__bss_end__+0x1c8de48>
   c:	6d5f7470 	cfldrdvs	mvd7, [pc, #-448]	; fffffe54 <__bss_end__+0xffff548c>
  10:	616d7369 	cmnvs	sp, r9, ror #6
  14:	5f686374 	svcpl	0x00686374
  18:	30746573 	rsbscc	r6, r4, r3, ror r5
  1c:	74696200 	strbtvc	r6, [r9], #-512	; 0x200
  20:	65675f73 	strbvs	r5, [r7, #-3955]!	; 0xf73
  24:	70630074 	rsbvc	r0, r3, r4, ror r0
  28:	6d007273 	sfmvs	f7, 4, [r0, #-460]	; 0xfffffe34
  2c:	5f65646f 	svcpl	0x0065646f
  30:	00727473 	rsbseq	r7, r2, r3, ror r4
  34:	706b7262 	rsbvc	r7, fp, r2, ror #4
  38:	696d5f74 	stmdbvs	sp!, {r2, r4, r5, r6, r8, r9, sl, fp, ip, lr}^
  3c:	74616d73 	strbtvc	r6, [r1], #-3443	; 0xd73
  40:	645f6863 	ldrbvs	r6, [pc], #-2147	; 48 <__code_start__-0x7fb8>
  44:	62617369 	rsbvs	r7, r1, #-1543503871	; 0xa4000001
  48:	0030656c 	eorseq	r6, r0, ip, ror #10
  4c:	726f6873 	rsbvc	r6, pc, #7536640	; 0x730000
  50:	6e752074 	mrcvs	0, 3, r2, cr5, cr4, {3}
  54:	6e676973 	mcrvs	9, 3, r6, cr7, cr3, {3}
  58:	69206465 	stmdbvs	r0!, {r0, r2, r5, r6, sl, sp, lr}
  5c:	6f00746e 	svcvs	0x0000746e
  60:	00705f6e 	rsbseq	r5, r0, lr, ror #30
  64:	6573552f 	ldrbvs	r5, [r3, #-1327]!	; 0x52f
  68:	622f7372 	eorvs	r7, pc, #-939524095	; 0xc8000001
  6c:	6e616972 	mcrvs	9, 3, r6, cr1, cr2, {3}
  70:	2f6e756a 	svccs	0x006e756a
  74:	6b736544 	blvs	1cd958c <__bss_end__+0x1ccebc4>
  78:	2f706f74 	svccs	0x00706f74
  7c:	6f686373 	svcvs	0x00686373
  80:	532f6c6f 	teqpl	pc, #28416	; 0x6f00
  84:	6e697270 	mcrvs	2, 3, r7, cr9, cr0, {3}
  88:	32393167 	eorscc	r3, r9, #-1073741799	; 0xc0000019
  8c:	53432f30 	movtpl	r2, #16176	; 0x3f30
  90:	4c303432 	cfldrsmi	mvf3, [r0], #-200	; 0xffffff38
  94:	73632f58 	cmnvc	r3, #88, 30	; 0x160
  98:	6c303432 	cfldrsvs	mvf3, [r0], #-200	; 0xffffff38
  9c:	30322d78 	eorscc	r2, r2, r8, ror sp
  a0:	2f727073 	svccs	0x00727073
  a4:	7362616c 	cmnvc	r2, #108, 2
  a8:	2d36312f 	ldfcss	f3, [r6, #-188]!	; 0xffffff44
  ac:	676e6973 			; <UNDEFINED> instruction: 0x676e6973
  b0:	732d656c 	teqvc	sp, #108, 10	; 0x1b000000
  b4:	2f706574 	svccs	0x00706574
  b8:	65646f63 	strbvs	r6, [r4, #-3939]!	; 0xf63
  bc:	746f6e00 	strbtvc	r6, [pc], #-3584	; c4 <__code_start__-0x7f3c>
  c0:	6e69616d 	powvsez	f6, f1, #5.0
  c4:	6b726200 	blvs	1c988cc <__bss_end__+0x1c8df04>
  c8:	7265765f 	rsbvc	r7, r5, #99614720	; 0x5f00000
  cc:	65736f62 	ldrbvs	r6, [r3, #-3938]!	; 0xf62
  d0:	646f6d00 	strbtvs	r6, [pc], #-3328	; d8 <__code_start__-0x7f28>
  d4:	65735f65 	ldrbvs	r5, [r3, #-3941]!	; 0xf65
  d8:	70630074 	rsbvc	r0, r3, r4, ror r0
  dc:	6f5f7273 	svcvs	0x005f7273
  e0:	7500646c 	strvc	r6, [r0, #-1132]	; 0x46c
  e4:	6769736e 	strbvs	r7, [r9, -lr, ror #6]!
  e8:	2064656e 	rsbcs	r6, r4, lr, ror #10
  ec:	72616863 	rsbvc	r6, r1, #6488064	; 0x630000
  f0:	656c6300 	strbvs	r6, [ip, #-768]!	; 0x300
  f4:	725f6e61 	subsvc	r6, pc, #1552	; 0x610
  f8:	6f6f6265 	svcvs	0x006f6265
  fc:	78650074 	stmdavc	r5!, {r2, r4, r5, r6}^
 100:	74636570 	strbtvc	r6, [r3], #-1392	; 0x570
 104:	685f6465 	ldmdavs	pc, {r0, r2, r5, r6, sl, sp, lr}^	; <UNPREDICTABLE>
 108:	6c646e61 	stclvs	14, cr6, [r4], #-388	; 0xfffffe7c
 10c:	69620065 	stmdbvs	r2!, {r0, r2, r5, r6}^
 110:	635f7374 	cmpvs	pc, #116, 6	; 0xd0000001
 114:	7500726c 	strvc	r7, [r0, #-620]	; 0x26c
 118:	33746e69 	cmncc	r4, #1680	; 0x690
 11c:	00745f32 	rsbseq	r5, r4, r2, lsr pc
 120:	72657375 	rsbvc	r7, r5, #-738197503	; 0xd4000001
 124:	7365745f 	cmnvc	r5, #1593835520	; 0x5f000000
 128:	5f5f0074 	svcpl	0x005f0074
 12c:	434e5546 	movtmi	r5, #58694	; 0xe546
 130:	4e4f4954 	mcrmi	9, 2, r4, cr15, cr4, {2}
 134:	73005f5f 	movwvc	r5, #3935	; 0xf5f
 138:	6c676e69 	stclvs	14, cr6, [r7], #-420	; 0xfffffe5c
 13c:	74735f65 	ldrbtvc	r5, [r3], #-3941	; 0xf65
 140:	685f7065 	ldmdavs	pc, {r0, r2, r5, r6, ip, sp, lr}^	; <UNPREDICTABLE>
 144:	6c646e61 	stclvs	14, cr6, [r4], #-388	; 0xfffffe7c
 148:	47007265 	strmi	r7, [r0, -r5, ror #4]
 14c:	4320554e 	teqmi	r0, #327155712	; 0x13800000
 150:	382e3420 	stmdacc	lr!, {r5, sl, ip, sp}
 154:	2d20332e 	stccs	3, cr3, [r0, #-184]!	; 0xffffff48
 158:	7570636d 	ldrbvc	r6, [r0, #-877]!	; 0x36d
 15c:	6d72613d 	ldfvse	f6, [r2, #-244]!	; 0xffffff0c
 160:	36373131 			; <UNDEFINED> instruction: 0x36373131
 164:	2d667a6a 	vstmdbcs	r6!, {s15-s120}
 168:	6d2d2073 	stcvs	0, cr2, [sp, #-460]!	; 0xfffffe34
 16c:	656e7574 	strbvs	r7, [lr, #-1396]!	; 0x574
 170:	6d72613d 	ldfvse	f6, [r2, #-244]!	; 0xffffff0c
 174:	36373131 			; <UNDEFINED> instruction: 0x36373131
 178:	2d667a6a 	vstmdbcs	r6!, {s15-s120}
 17c:	672d2073 			; <UNDEFINED> instruction: 0x672d2073
 180:	20626467 	rsbcs	r6, r2, r7, ror #8
 184:	20674f2d 	rsbcs	r4, r7, sp, lsr #30
 188:	6474732d 	ldrbtvs	r7, [r4], #-813	; 0x32d
 18c:	756e673d 	strbvc	r6, [lr, #-1853]!	; 0x73d
 190:	2d203939 	stccs	9, cr3, [r0, #-228]!	; 0xffffff1c
 194:	65726666 	ldrbvs	r6, [r2, #-1638]!	; 0x666
 198:	61747365 	cmnvs	r4, r5, ror #6
 19c:	6e69646e 	cdpvs	4, 6, cr6, cr9, cr14, {3}
 1a0:	662d2067 	strtvs	r2, [sp], -r7, rrx
 1a4:	742d6f6e 	strtvc	r6, [sp], #-3950	; 0xf6e
 1a8:	656c706f 	strbvs	r7, [ip, #-111]!	; 0x6f
 1ac:	2d6c6576 	cfstr64cs	mvdx6, [ip, #-472]!	; 0xfffffe28
 1b0:	726f6572 	rsbvc	r6, pc, #478150656	; 0x1c800000
 1b4:	00726564 	rsbseq	r6, r2, r4, ror #10
 1b8:	676e6f6c 	strbvs	r6, [lr, -ip, ror #30]!
 1bc:	6e6f6c20 	cdpvs	12, 6, cr6, cr15, cr0, {1}
 1c0:	6e752067 	cdpvs	0, 7, cr2, cr5, cr7, {3}
 1c4:	6e676973 	mcrvs	9, 3, r6, cr7, cr3, {3}
 1c8:	69206465 	stmdbvs	r0!, {r0, r2, r5, r6, sl, sp, lr}
 1cc:	6d00746e 	cfstrsvs	mvf7, [r0, #-440]	; 0xfffffe48
 1d0:	0065646f 	rsbeq	r6, r5, pc, ror #8
 1d4:	646e6168 	strbtvs	r6, [lr], #-360	; 0x168
 1d8:	5f72656c 	svcpl	0x0072656c
 1dc:	69730074 	ldmdbvs	r3!, {r2, r4, r5, r6}^
 1e0:	7974657a 	ldmdbvc	r4!, {r1, r3, r4, r5, r6, r8, sl, sp, lr}^
 1e4:	75006570 	strvc	r6, [r0, #-1392]	; 0x570
 1e8:	5f726573 	svcpl	0x00726573
 1ec:	6d617274 	sfmvs	f7, 2, [r1, #-464]!	; 0xfffffe30
 1f0:	696c6f70 	stmdbvs	ip!, {r4, r5, r6, r8, r9, sl, fp, sp, lr}^
 1f4:	725f656e 	subsvc	r6, pc, #461373440	; 0x1b800000
 1f8:	6c007465 	cfstrsvs	mvf7, [r0], {101}	; 0x65
 1fc:	20676e6f 	rsbcs	r6, r7, pc, ror #28
 200:	676e6f6c 	strbvs	r6, [lr, -ip, ror #30]!
 204:	746e6920 	strbtvc	r6, [lr], #-2336	; 0x920
 208:	616e6500 	cmnvs	lr, r0, lsl #10
 20c:	5f656c62 	svcpl	0x00656c62
 210:	68636163 	stmdavs	r3!, {r0, r1, r5, r6, r8, sp, lr}^
 214:	616d0065 	cmnvs	sp, r5, rrx
 218:	74006b73 	strvc	r6, [r0], #-2931	; 0xb73
 21c:	73747365 	cmnvc	r4, #-1811939327	; 0x94000001
 220:	2d36312f 	ldfcss	f3, [r6, #-188]!	; 0xffffff44
 224:	74726170 	ldrbtvc	r6, [r2], #-368	; 0x170
 228:	65742d32 	ldrbvs	r2, [r4, #-3378]!	; 0xd32
 22c:	2e317473 	mrccs	4, 1, r7, cr1, cr3, {3}
 230:	65720063 	ldrbvs	r0, [r2, #-99]!	; 0x63
 234:	73007367 	movwvc	r7, #871	; 0x367
 238:	74726f68 	ldrbtvc	r6, [r2], #-3944	; 0xf68
 23c:	746e6920 	strbtvc	r6, [lr], #-2336	; 0x920
 240:	73666900 	cmnvc	r6, #0, 18
 244:	65675f72 	strbvs	r5, [r7, #-3954]!	; 0xf72
 248:	6f6d0074 	svcvs	0x006d0074
 24c:	6c5f6564 	cfldr64vs	mvdx6, [pc], {100}	; 0x64
 250:	6c616765 	stclvs	7, cr6, [r1], #-404	; 0xfffffe6c
 254:	73617700 	cmnvc	r1, #0, 14
 258:	6265645f 	rsbvs	r6, r5, #1593835520	; 0x5f000000
 25c:	695f6775 	ldmdbvs	pc, {r0, r2, r4, r5, r6, r8, r9, sl, sp, lr}^	; <UNPREDICTABLE>
 260:	6674736e 	ldrbtvs	r7, [r4], -lr, ror #6
 264:	746c7561 	strbtvc	r7, [ip], #-1377	; 0x561
 268:	31706300 	cmncc	r0, r0, lsl #6
 26c:	6e655f34 	mcrvs	15, 3, r5, cr5, cr4, {1}
 270:	656c6261 	strbvs	r6, [ip, #-609]!	; 0x261
 274:	73706300 	cmnvc	r0, #0, 6
 278:	65675f72 	strbvs	r5, [r7, #-3954]!	; 0xf72
 27c:	70720074 	rsbsvc	r0, r2, r4, ror r0
 280:	65725f69 	ldrbvs	r5, [r2, #-3945]!	; 0xf69
 284:	5f746573 	svcpl	0x00746573
 288:	63747570 	cmnvs	r4, #112, 10	; 0x1c000000
 28c:	6b726200 	blvs	1c98a94 <__bss_end__+0x1c8e0cc>
 290:	7265765f 	rsbvc	r7, r5, #99614720	; 0x5f00000
 294:	65736f62 	ldrbvs	r6, [r3, #-3938]!	; 0xf62
 298:	6400705f 	strvs	r7, [r0], #-95	; 0x5f
 29c:	00656e6f 	rsbeq	r6, r5, pc, ror #28
 2a0:	61746164 	cmnvs	r4, r4, ror #2
 2a4:	6f62615f 	svcvs	0x0062615f
 2a8:	765f7472 			; <UNDEFINED> instruction: 0x765f7472
 2ac:	6f746365 	svcvs	0x00746365
 2b0:	72700072 	rsbsvc	r0, r0, #114	; 0x72
 2b4:	74656665 	strbtvc	r6, [r5], #-1637	; 0x665
 2b8:	615f6863 	cmpvs	pc, r3, ror #16
 2bc:	74726f62 	ldrbtvc	r6, [r2], #-3938	; 0xf62
 2c0:	6365765f 	cmnvs	r5, #99614720	; 0x5f00000
 2c4:	00726f74 	rsbseq	r6, r2, r4, ror pc
 2c8:	5f736177 	svcpl	0x00736177
 2cc:	75626564 	strbvc	r6, [r2, #-1380]!	; 0x564
 2d0:	61645f67 	cmnvs	r4, r7, ror #30
 2d4:	61666174 	smcvs	26132	; 0x6614
 2d8:	00746c75 	rsbseq	r6, r4, r5, ror ip
 2dc:	34317063 	ldrtcc	r7, [r1], #-99	; 0x63
 2e0:	6265642d 	rsbvs	r6, r5, #754974720	; 0x2d000000
 2e4:	632e6775 	teqvs	lr, #30670848	; 0x1d40000
 2e8:	63736400 	cmnvs	r3, #0, 8
 2ec:	65735f72 	ldrbvs	r5, [r3, #-3954]!	; 0xf72
 2f0:	63770074 	cmnvs	r7, #116	; 0x74
 2f4:	725f3072 	subsvc	r3, pc, #114	; 0x72
 2f8:	77006765 	strvc	r6, [r0, -r5, ror #14]
 2fc:	5f307263 	svcpl	0x00307263
 300:	00746567 	rsbseq	r6, r4, r7, ror #10
 304:	74696e69 	strbtvc	r6, [r9], #-3689	; 0xe69
 308:	6200705f 	andvs	r7, r0, #95	; 0x5f
 30c:	74706b72 	ldrbtvc	r6, [r0], #-2930	; 0xb72
 310:	6e61685f 	mcrvs	8, 3, r6, cr1, cr15, {2}
 314:	72656c64 	rsbvc	r6, r5, #100, 24	; 0x6400
 318:	70630030 	rsbvc	r0, r3, r0, lsr r0
 31c:	625f3431 	subsvs	r3, pc, #822083584	; 0x31000000
 320:	5f307263 	svcpl	0x00307263
 324:	00746573 	rsbseq	r6, r4, r3, ror r5
 328:	30727677 	rsbscc	r7, r2, r7, ror r6
 32c:	6c61765f 	stclvs	6, cr7, [r1], #-380	; 0xfffffe84
 330:	74617700 	strbtvc	r7, [r1], #-1792	; 0x700
 334:	74706863 	ldrbtvc	r6, [r0], #-2147	; 0x863
 338:	7465735f 	strbtvc	r7, [r5], #-863	; 0x35f
 33c:	76770030 			; <UNDEFINED> instruction: 0x76770030
 340:	735f3072 	cmpvc	pc, #114	; 0x72
 344:	62007465 	andvs	r7, r0, #1694498816	; 0x65000000
 348:	6e5f6b72 	vmovvs.s8	r6, d15[3]
 34c:	65725f6f 	ldrbvs	r5, [r2, #-3951]!	; 0xf6f
 350:	72655f74 	rsbvc	r5, r5, #116, 30	; 0x1d0
 354:	00726f72 	rsbseq	r6, r2, r2, ror pc
 358:	34317063 	ldrtcc	r7, [r1], #-99	; 0x63
 35c:	7263625f 	rsbvc	r6, r3, #-268435451	; 0xf0000005
 360:	65675f30 	strbvs	r5, [r7, #-3888]!	; 0xf30
 364:	66640074 			; <UNDEFINED> instruction: 0x66640074
 368:	765f7273 			; <UNDEFINED> instruction: 0x765f7273
 36c:	69006c61 	stmdbvs	r0, {r0, r5, r6, sl, fp, sp, lr}
 370:	5f726166 	svcpl	0x00726166
 374:	00746567 	rsbseq	r6, r4, r7, ror #10
 378:	63746177 	cmnvs	r4, #-1073741795	; 0xc000001d
 37c:	5f747068 	svcpl	0x00747068
 380:	646e6168 	strbtvs	r6, [lr], #-360	; 0x168
 384:	3072656c 	rsbscc	r6, r2, ip, ror #10
 388:	74616400 	strbtvc	r6, [r1], #-1024	; 0x400
 38c:	75616661 	strbvc	r6, [r1, #-1633]!	; 0x661
 390:	665f746c 	ldrbvs	r7, [pc], -ip, ror #8
 394:	5f6d6f72 	svcpl	0x006d6f72
 398:	6300646c 	movwvs	r6, #1132	; 0x46c
 39c:	5f343170 	svcpl	0x00343170
 3a0:	30727662 	rsbscc	r7, r2, r2, ror #12
 3a4:	7465735f 	strbtvc	r7, [r5], #-863	; 0x35f
 3a8:	73617700 	cmnvc	r1, #0, 14
 3ac:	6265645f 	rsbvs	r6, r5, #1593835520	; 0x5f000000
 3b0:	61666775 	smcvs	26229	; 0x6675
 3b4:	5f746c75 	svcpl	0x00746c75
 3b8:	666e0072 			; <UNDEFINED> instruction: 0x666e0072
 3bc:	746c7561 	strbtvc	r7, [ip], #-1377	; 0x561
 3c0:	76620073 			; <UNDEFINED> instruction: 0x76620073
 3c4:	765f3072 			; <UNDEFINED> instruction: 0x765f3072
 3c8:	64006c61 	strvs	r6, [r0], #-3169	; 0xc61
 3cc:	5f727366 	svcpl	0x00727366
 3d0:	00746567 	rsbseq	r6, r4, r7, ror #10
 3d4:	63737973 	cmnvs	r3, #1884160	; 0x1cc000
 3d8:	5f6c6c61 	svcpl	0x006c6c61
 3dc:	74636576 	strbtvc	r6, [r3], #-1398	; 0x576
 3e0:	7000726f 	andvc	r7, r0, pc, ror #4
 3e4:	65666572 	strbvs	r6, [r6, #-1394]!	; 0x572
 3e8:	5f686374 	svcpl	0x00686374
 3ec:	73756c66 	cmnvc	r5, #26112	; 0x6600
 3f0:	65735f68 	ldrbvs	r5, [r3, #-3944]!	; 0xf68
 3f4:	63620074 	cmnvs	r2, #116	; 0x74
 3f8:	725f3072 	subsvc	r3, pc, #114	; 0x72
 3fc:	77006765 	strvc	r6, [r0, -r5, ror #14]
 400:	5f726166 	svcpl	0x00726166
 404:	00746567 	rsbseq	r6, r4, r7, ror #10
 408:	5f737973 	svcpl	0x00737973
 40c:	006d756e 	rsbeq	r7, sp, lr, ror #10
 410:	706b7262 	rsbvc	r7, fp, r2, ror #4
 414:	65735f74 	ldrbvs	r5, [r3, #-3956]!	; 0xf74
 418:	77003074 	smlsdxvc	r0, r4, r0, r3
 41c:	5f307263 	svcpl	0x00307263
 420:	00746573 	rsbseq	r6, r4, r3, ror r5
 424:	5f746e69 	svcpl	0x00746e69
 428:	74696e69 	strbtvc	r6, [r9], #-3689	; 0xe69
 42c:	69777300 	ldmdbvs	r7!, {r8, r9, ip, sp, lr}^
 430:	5f686374 	svcpl	0x00686374
 434:	72646461 	rsbvc	r6, r4, #1627389952	; 0x61000000
 438:	736e6900 	cmnvc	lr, #0, 18
 43c:	6f635f74 	svcvs	0x00635f74
 440:	00746e75 	rsbseq	r6, r4, r5, ror lr
 444:	63656863 	cmnvs	r5, #6488064	; 0x630000
 448:	657a5f6b 	ldrbvs	r5, [sl, #-3947]!	; 0xf6b
 44c:	63006f72 	movwvs	r6, #3954	; 0xf72
 450:	6b636568 	blvs	18d99f8 <__bss_end__+0x18cf030>
 454:	746e692d 	strbtvc	r6, [lr], #-2349	; 0x92d
 458:	656c7265 	strbvs	r7, [ip, #-613]!	; 0x265
 45c:	2e657661 	cdpcs	6, 6, cr7, cr5, cr1, {3}
 460:	68630063 	stmdavs	r3!, {r0, r1, r5, r6}^
 464:	006b6365 	rsbeq	r6, fp, r5, ror #6
 468:	63656863 	cmnvs	r5, #6488064	; 0x630000
 46c:	6e6f5f6b 	cdpvs	15, 6, cr5, cr15, cr11, {3}
 470:	73635f65 	cmnvc	r3, #404	; 0x194
 474:	63746977 	cmnvs	r4, #1949696	; 0x1dc000
 478:	746e0068 	strbtvc	r0, [lr], #-104	; 0x68
 47c:	6c616972 	stclvs	9, cr6, [r1], #-456	; 0xfffffe38
 480:	68630073 	stmdavs	r3!, {r0, r1, r4, r5, r6}^
 484:	5f6b6365 	svcpl	0x006b6365
 488:	75716573 	ldrbvc	r6, [r1, #-1395]!	; 0x573
 48c:	69746e65 	ldmdbvs	r4!, {r0, r2, r5, r6, r9, sl, fp, sp, lr}^
 490:	63006c61 	movwvs	r6, #3169	; 0xc61
 494:	6b636568 	blvs	18d9a3c <__bss_end__+0x18cf074>
 498:	745f7265 	ldrbvc	r7, [pc], #-613	; 4a0 <__code_start__-0x7b60>
 49c:	73706300 	cmnvc	r0, #0, 6
 4a0:	73755f72 	cmnvc	r5, #456	; 0x1c8
 4a4:	69007265 	stmdbvs	r0, {r0, r2, r5, r6, r9, ip, sp, lr}
 4a8:	7265746e 	rsbvc	r7, r5, #1845493760	; 0x6e000000
 4ac:	7661656c 	strbtvc	r6, [r1], -ip, ror #10
 4b0:	5f676e69 	svcpl	0x00676e69
 4b4:	656e0070 	strbvs	r0, [lr, #-112]!	; 0x70
 4b8:	726f7272 	rsbvc	r7, pc, #536870919	; 0x20000007
 4bc:	77730073 			; <UNDEFINED> instruction: 0x77730073
 4c0:	68637469 	stmdavs	r3!, {r0, r3, r5, r6, sl, ip, sp, lr}^
 4c4:	5f6e6f5f 	svcpl	0x006e6f5f
 4c8:	74736e69 	ldrbtvc	r6, [r3], #-3689	; 0xe69
 4cc:	6e006e5f 	mcrvs	14, 0, r6, cr0, cr15, {2}
 4d0:	74697773 	strbtvc	r7, [r9], #-1907	; 0x773
 4d4:	73656863 	cmnvc	r5, #6488064	; 0x630000
 4d8:	69777300 	ldmdbvs	r7!, {r8, r9, ip, sp, lr}^
 4dc:	65686374 	strbvs	r6, [r8, #-884]!	; 0x374
 4e0:	00705f64 	rsbseq	r5, r0, r4, ror #30
 4e4:	63656863 	cmnvs	r5, #6488064	; 0x630000
 4e8:	0072656b 	rsbseq	r6, r2, fp, ror #10
 4ec:	6e675f5f 	mcrvs	15, 3, r5, cr7, cr15, {2}
 4f0:	765f6375 			; <UNDEFINED> instruction: 0x765f6375
 4f4:	696c5f61 	stmdbvs	ip!, {r0, r5, r6, r8, r9, sl, fp, ip, lr}^
 4f8:	6c007473 	cfstrsvs	mvf7, [r0], {115}	; 0x73
 4fc:	2f636269 	svccs	0x00636269
 500:	6e697270 	mcrvs	2, 3, r7, cr9, cr0, {3}
 504:	632e6b74 	teqvs	lr, #116, 22	; 0x1d000
 508:	554e4700 	strbpl	r4, [lr, #-1792]	; 0x700
 50c:	34204320 	strtcc	r4, [r0], #-800	; 0x320
 510:	332e382e 	teqcc	lr, #3014656	; 0x2e0000
 514:	636d2d20 	cmnvs	sp, #32, 26	; 0x800
 518:	613d7570 	teqvs	sp, r0, ror r5
 51c:	31316d72 	teqcc	r1, r2, ror sp
 520:	7a6a3637 	bvc	1a8de04 <__bss_end__+0x1a8343c>
 524:	20732d66 	rsbscs	r2, r3, r6, ror #26
 528:	75746d2d 	ldrbvc	r6, [r4, #-3373]!	; 0xd2d
 52c:	613d656e 	teqvs	sp, lr, ror #10
 530:	31316d72 	teqcc	r1, r2, ror sp
 534:	7a6a3637 	bvc	1a8de18 <__bss_end__+0x1a83450>
 538:	20732d66 	rsbscs	r2, r3, r6, ror #26
 53c:	6467672d 	strbtvs	r6, [r7], #-1837	; 0x72d
 540:	4f2d2062 	svcmi	0x002d2062
 544:	732d2067 	teqvc	sp, #103	; 0x67
 548:	673d6474 			; <UNDEFINED> instruction: 0x673d6474
 54c:	3939756e 	ldmdbcc	r9!, {r1, r2, r3, r5, r6, r8, sl, ip, sp, lr}
 550:	66662d20 	strbtvs	r2, [r6], -r0, lsr #26
 554:	73656572 	cmnvc	r5, #478150656	; 0x1c800000
 558:	646e6174 	strbtvs	r6, [lr], #-372	; 0x174
 55c:	00676e69 	rsbeq	r6, r7, r9, ror #28
 560:	705f6176 	subsvc	r6, pc, r6, ror r1	; <UNPREDICTABLE>
 564:	746e6972 	strbtvc	r6, [lr], #-2418	; 0x972
 568:	5f5f006b 	svcpl	0x005f006b
 56c:	6c5f6176 	ldfvse	f6, [pc], {118}	; 0x76
 570:	00747369 	rsbseq	r7, r4, r9, ror #6
 574:	6573552f 	ldrbvs	r5, [r3, #-1327]!	; 0x52f
 578:	622f7372 	eorvs	r7, pc, #-939524095	; 0xc8000001
 57c:	6e616972 	mcrvs	9, 3, r6, cr1, cr2, {3}
 580:	2f6e756a 	svccs	0x006e756a
 584:	6b736544 	blvs	1cd9a9c <__bss_end__+0x1ccf0d4>
 588:	2f706f74 	svccs	0x00706f74
 58c:	6f686373 	svcvs	0x00686373
 590:	532f6c6f 	teqpl	pc, #28416	; 0x6f00
 594:	6e697270 	mcrvs	2, 3, r7, cr9, cr0, {3}
 598:	32393167 	eorscc	r3, r9, #-1073741799	; 0xc0000019
 59c:	53432f30 	movtpl	r2, #16176	; 0x3f30
 5a0:	4c303432 	cfldrsmi	mvf3, [r0], #-200	; 0xffffff38
 5a4:	73632f58 	cmnvc	r3, #88, 30	; 0x160
 5a8:	6c303432 	cfldrsvs	mvf3, [r0], #-200	; 0xffffff38
 5ac:	30322d78 	eorscc	r2, r2, r8, ror sp
 5b0:	2f727073 	svccs	0x00727073
 5b4:	7062696c 	rsbvc	r6, r2, ip, ror #18
 5b8:	5f5f0069 	svcpl	0x005f0069
 5bc:	75007061 	strvc	r7, [r0, #-97]	; 0x61
 5c0:	5f747261 	svcpl	0x00747261
 5c4:	63747570 	cmnvs	r4, #112, 10	; 0x1c000000
 5c8:	746e6900 	strbtvc	r6, [lr], #-2304	; 0x900
 5cc:	616e7265 	cmnvs	lr, r5, ror #4
 5d0:	75705f6c 	ldrbvc	r5, [r0, #-3948]!	; 0xf6c
 5d4:	61686374 	smcvs	34356	; 0x8634
 5d8:	70720072 	rsbsvc	r0, r2, r2, ror r0
 5dc:	75705f69 	ldrbvc	r5, [r0, #-3945]!	; 0xf69
 5e0:	61686374 	smcvs	34356	; 0x8634
 5e4:	696c0072 	stmdbvs	ip!, {r1, r4, r5, r6}^
 5e8:	702f6362 	eorvc	r6, pc, r2, ror #6
 5ec:	68637475 	stmdavs	r3!, {r0, r2, r4, r5, r6, sl, ip, sp, lr}^
 5f0:	632e7261 	teqvs	lr, #268435462	; 0x10000006
 5f4:	69707200 	ldmdbvs	r0!, {r9, ip, sp, lr}^
 5f8:	7465735f 	strbtvc	r7, [r5], #-863	; 0x35f
 5fc:	7475705f 	ldrbtvc	r7, [r5], #-95	; 0x5f
 600:	696c0063 	stmdbvs	ip!, {r0, r1, r5, r6}^
 604:	702f6362 	eorvc	r6, pc, r2, ror #6
 608:	2e6b7475 	mcrcs	4, 3, r7, cr11, cr5, {3}
 60c:	6e690063 	cdpvs	0, 6, cr0, cr9, cr3, {3}
 610:	6e726574 	mrcvs	5, 3, r6, cr2, cr4, {3}
 614:	705f6c61 	subsvc	r6, pc, r1, ror #24
 618:	006b7475 	rsbeq	r7, fp, r5, ror r4
 61c:	5f746d66 	svcpl	0x00746d66
 620:	72617473 	rsbvc	r7, r1, #1929379840	; 0x73000000
 624:	656e0074 	strbvs	r0, [lr, #-116]!	; 0x74
 628:	00705f67 	rsbseq	r5, r0, r7, ror #30
 62c:	65766572 	ldrbvs	r6, [r6, #-1394]!	; 0x572
 630:	00657372 	rsbeq	r7, r5, r2, ror r3
 634:	69647369 	stmdbvs	r4!, {r0, r3, r5, r6, r8, r9, ip, sp, lr}^
 638:	00746967 	rsbseq	r6, r4, r7, ror #18
 63c:	73747570 	cmnvc	r4, #112, 10	; 0x1c000000
 640:	0070665f 	rsbseq	r6, r0, pc, asr r6
 644:	6e676973 	mcrvs	9, 3, r6, cr7, cr3, {3}
 648:	705f6465 	subsvc	r6, pc, r5, ror #8
 64c:	62696c00 	rsbvs	r6, r9, #0, 24
 650:	61762f63 	cmnvs	r6, r3, ror #30
 654:	6972702d 	ldmdbvs	r2!, {r0, r2, r3, r5, ip, sp, lr}^
 658:	2e6b746e 	cdpcs	4, 6, cr7, cr11, cr14, {3}
 65c:	70720063 	rsbsvc	r0, r2, r3, rrx
 660:	65735f69 	ldrbvs	r5, [r3, #-3945]!	; 0xf69
 664:	756f5f74 	strbvc	r5, [pc, #-3956]!	; fffff6f8 <__bss_end__+0xffff4d30>
 668:	74757074 	ldrbtvc	r7, [r5], #-116	; 0x74
 66c:	64697700 	strbtvs	r7, [r9], #-1792	; 0x700
 670:	70006874 	andvc	r6, r0, r4, ror r8
 674:	5f637475 	svcpl	0x00637475
 678:	65007066 	strvs	r7, [r0, #-102]	; 0x66
 67c:	0074696d 	rsbseq	r6, r4, sp, ror #18
 680:	61736964 	cmnvs	r3, r4, ror #18
 684:	5f656c62 	svcpl	0x00656c62
 688:	68636163 	stmdavs	r3!, {r0, r1, r5, r6, r8, sp, lr}^
 68c:	74730065 	ldrbtvc	r0, [r3], #-101	; 0x65
 690:	2d666661 	stclcs	6, cr6, [r6, #-388]!	; 0xfffffe7c
 694:	2f637273 	svccs	0x00637273
 698:	68636163 	stmdavs	r3!, {r0, r1, r5, r6, r8, sp, lr}^
 69c:	00632e65 	rsbeq	r2, r3, r5, ror #28
 6a0:	6f626572 	svcvs	0x00626572
 6a4:	685f746f 	ldmdavs	pc, {r0, r1, r2, r3, r5, r6, sl, ip, sp, lr}^	; <UNPREDICTABLE>
 6a8:	6c646e61 	stclvs	14, cr6, [r4], #-388	; 0xfffffe7c
 6ac:	73007265 	movwvc	r7, #613	; 0x265
 6b0:	66666174 			; <UNDEFINED> instruction: 0x66666174
 6b4:	6372732d 	cmnvs	r2, #-1275068416	; 0xb4000000
 6b8:	656c632f 	strbvs	r6, [ip, #-815]!	; 0x32f
 6bc:	722d6e61 	eorvc	r6, sp, #1552	; 0x610
 6c0:	6f6f6265 	svcvs	0x006f6265
 6c4:	00632e74 	rsbeq	r2, r3, r4, ror lr
 6c8:	5f697072 	svcpl	0x00697072
 6cc:	6f626572 	svcvs	0x00626572
 6d0:	6400746f 	strvs	r7, [r0], #-1135	; 0x46f
 6d4:	79616c65 	stmdbvc	r1!, {r0, r2, r5, r6, sl, fp, sp, lr}^
 6d8:	00736d5f 	rsbseq	r6, r3, pc, asr sp
 6dc:	73625f5f 	cmnvc	r2, #380	; 0x17c
 6e0:	74735f73 	ldrbtvc	r5, [r3], #-3955	; 0xf73
 6e4:	5f747261 	svcpl	0x00747261
 6e8:	5f5f005f 	svcpl	0x005f005f
 6ec:	5f737362 	svcpl	0x00737362
 6f0:	5f646e65 	svcpl	0x00646e65
 6f4:	7363005f 	cmnvc	r3, #95	; 0x5f
 6f8:	74726174 	ldrbtvc	r6, [r2], #-372	; 0x174
 6fc:	6e61685f 	mcrvs	8, 3, r6, cr1, cr15, {2}
 700:	72656c64 	rsbvc	r6, r5, #100, 24	; 0x6400
 704:	73736200 	cmnvc	r3, #0, 4
 708:	646e655f 	strbtvs	r6, [lr], #-1375	; 0x55f
 70c:	73635f00 	cmnvc	r3, #0, 30
 710:	74726174 	ldrbtvc	r6, [r2], #-372	; 0x174
 714:	61747300 	cmnvs	r4, r0, lsl #6
 718:	732d6666 	teqvc	sp, #106954752	; 0x6600000
 71c:	632f6372 	teqvs	pc, #-939524095	; 0xc8000001
 720:	72617473 	rsbvc	r7, r1, #1929379840	; 0x73000000
 724:	00632e74 	rsbeq	r2, r3, r4, ror lr
 728:	66617473 			; <UNDEFINED> instruction: 0x66617473
 72c:	72732d66 	rsbsvc	r2, r3, #6528	; 0x1980
 730:	65642f63 	strbvs	r2, [r4, #-3939]!	; 0xf63
 734:	6c756166 	ldfvse	f6, [r5], #-408	; 0xfffffe68
 738:	61682d74 	smcvs	33492	; 0x82d4
 73c:	656c646e 	strbvs	r6, [ip, #-1134]!	; 0x46e
 740:	61662d72 	smcvs	25298	; 0x62d2
 744:	632e7473 	teqvs	lr, #1929379840	; 0x73000000
 748:	73616600 	cmnvc	r1, #0, 12
 74c:	6e695f74 	mcrvs	15, 3, r5, cr9, cr4, {3}
 750:	72726574 	rsbsvc	r6, r2, #116, 10	; 0x1d000000
 754:	5f747075 	svcpl	0x00747075
 758:	74636576 	strbtvc	r6, [r3], #-1398	; 0x576
 75c:	7200726f 	andvc	r7, r0, #-268435450	; 0xf0000006
 760:	74657365 	strbtvc	r7, [r5], #-869	; 0x365
 764:	6365765f 	cmnvs	r5, #99614720	; 0x5f00000
 768:	00726f74 	rsbseq	r6, r2, r4, ror pc
 76c:	66617473 			; <UNDEFINED> instruction: 0x66617473
 770:	72732d66 	rsbsvc	r2, r3, #6528	; 0x1980
 774:	65642f63 	strbvs	r2, [r4, #-3939]!	; 0xf63
 778:	6c756166 	ldfvse	f6, [r5], #-408	; 0xfffffe68
 77c:	61682d74 	smcvs	33492	; 0x82d4
 780:	656c646e 	strbvs	r6, [ip, #-1134]!	; 0x46e
 784:	65722d72 	ldrbvs	r2, [r2, #-3442]!	; 0xd72
 788:	2e746573 	mrccs	5, 3, r6, cr4, cr3, {3}
 78c:	74730063 	ldrbtvc	r0, [r3], #-99	; 0x63
 790:	2d666661 	stclcs	6, cr6, [r6, #-388]!	; 0xfffffe7c
 794:	2f637273 	svccs	0x00637273
 798:	61666564 	cmnvs	r6, r4, ror #10
 79c:	2d746c75 	ldclcs	12, cr6, [r4, #-468]!	; 0xfffffe2c
 7a0:	646e6168 	strbtvs	r6, [lr], #-360	; 0x168
 7a4:	2d72656c 	cfldr64cs	mvdx6, [r2, #-432]!	; 0xfffffe50
 7a8:	65646e75 	strbvs	r6, [r4, #-3701]!	; 0xe75
 7ac:	656e6966 	strbvs	r6, [lr, #-2406]!	; 0x966
 7b0:	6e692d64 	cdpvs	13, 6, cr2, cr9, cr4, {3}
 7b4:	632e7473 	teqvs	lr, #1929379840	; 0x73000000
 7b8:	646e7500 	strbtvs	r7, [lr], #-1280	; 0x500
 7bc:	6e696665 	cdpvs	6, 6, cr6, cr9, cr5, {3}
 7c0:	695f6465 	ldmdbvs	pc, {r0, r2, r5, r6, sl, sp, lr}^	; <UNPREDICTABLE>
 7c4:	7274736e 	rsbsvc	r7, r4, #-1207959551	; 0xb8000001
 7c8:	69746375 	ldmdbvs	r4!, {r0, r2, r4, r5, r6, r8, r9, sp, lr}^
 7cc:	765f6e6f 	ldrbvc	r6, [pc], -pc, ror #28
 7d0:	6f746365 	svcvs	0x00746365
 7d4:	74730072 	ldrbtvc	r0, [r3], #-114	; 0x72
 7d8:	2d666661 	stclcs	6, cr6, [r6, #-388]!	; 0xfffffe7c
 7dc:	2f637273 	svccs	0x00637273
 7e0:	61666564 	cmnvs	r6, r4, ror #10
 7e4:	2d746c75 	ldclcs	12, cr6, [r4, #-468]!	; 0xfffffe2c
 7e8:	646e6168 	strbtvs	r6, [lr], #-360	; 0x168
 7ec:	7372656c 	cmnvc	r2, #108, 10	; 0x1b000000
 7f0:	4900632e 	stmdbmi	r0, {r1, r2, r3, r5, r8, r9, sp, lr}
 7f4:	705f5152 	subsvc	r5, pc, r2, asr r1	; <UNPREDICTABLE>
 7f8:	69646e65 	stmdbvs	r4!, {r0, r2, r5, r6, r9, sl, fp, sp, lr}^
 7fc:	325f676e 	subscc	r6, pc, #28835840	; 0x1b80000
 800:	73694400 	cmnvc	r9, #0, 8
 804:	656c6261 	strbvs	r6, [ip, #-609]!	; 0x261
 808:	7361425f 	cmnvc	r1, #-268435451	; 0xf0000005
 80c:	495f6369 	ldmdbmi	pc, {r0, r3, r5, r6, r8, r9, sp, lr}^	; <UNPREDICTABLE>
 810:	00735152 	rsbseq	r5, r3, r2, asr r1
 814:	5f514946 	svcpl	0x00514946
 818:	746e6f63 	strbtvc	r6, [lr], #-3939	; 0xf63
 81c:	006c6f72 	rsbeq	r6, ip, r2, ror pc
 820:	746e695f 	strbtvc	r6, [lr], #-2399	; 0x95f
 824:	75727265 	ldrbvc	r7, [r2, #-613]!	; 0x265
 828:	745f7470 	ldrbvc	r7, [pc], #-1136	; 830 <__code_start__-0x77d0>
 82c:	656c6261 	strbvs	r6, [ip, #-609]!	; 0x261
 830:	51524900 	cmppl	r2, r0, lsl #18
 834:	7361625f 	cmnvc	r1, #-268435451	; 0xf0000005
 838:	705f6369 	subsvc	r6, pc, r9, ror #6
 83c:	69646e65 	stmdbvs	r4!, {r0, r2, r5, r6, r9, sl, fp, sp, lr}^
 840:	4500676e 	strmi	r6, [r0, #-1902]	; 0x76e
 844:	6c62616e 	stfvse	f6, [r2], #-440	; 0xfffffe48
 848:	61425f65 	cmpvs	r2, r5, ror #30
 84c:	5f636973 	svcpl	0x00636973
 850:	73515249 	cmpvc	r1, #-1879048188	; 0x90000004
 854:	616e4500 	cmnvs	lr, r0, lsl #10
 858:	5f656c62 	svcpl	0x00656c62
 85c:	73515249 	cmpvc	r1, #-1879048188	; 0x90000004
 860:	4500315f 	strmi	r3, [r0, #-351]	; 0x15f
 864:	6c62616e 	stfvse	f6, [r2], #-440	; 0xfffffe48
 868:	52495f65 	subpl	r5, r9, #404	; 0x194
 86c:	325f7351 	subscc	r7, pc, #1140850689	; 0x44000001
 870:	6e695f00 	cdpvs	15, 6, cr5, cr9, cr0, {0}
 874:	72726574 	rsbsvc	r6, r2, #116, 10	; 0x1d000000
 878:	5f747075 	svcpl	0x00747075
 87c:	6c626174 	stfvse	f6, [r2], #-464	; 0xfffffe30
 880:	6e655f65 	cdpvs	15, 6, cr5, cr5, cr5, {3}
 884:	65640064 	strbvs	r0, [r4, #-100]!	; 0x64
 888:	61625f76 	smcvs	9718	; 0x25f6
 88c:	65697272 	strbvs	r7, [r9, #-626]!	; 0x272
 890:	74730072 	ldrbtvc	r0, [r3], #-114	; 0x72
 894:	2d666661 	stclcs	6, cr6, [r6, #-388]!	; 0xfffffe7c
 898:	2f637273 	svccs	0x00637273
 89c:	65746e69 	ldrbvs	r6, [r4, #-3689]!	; 0xe69
 8a0:	70757272 	rsbsvc	r7, r5, r2, ror r2
 8a4:	632d7374 	teqvs	sp, #116, 6	; 0xd0000001
 8a8:	4900632e 	stmdbmi	r0, {r1, r2, r3, r5, r8, r9, sp, lr}
 8ac:	425f5152 	subsmi	r5, pc, #-2147483628	; 0x80000014
 8b0:	00657361 	rsbeq	r7, r5, r1, ror #6
 8b4:	33545550 	cmpcc	r4, #80, 10	; 0x14000000
 8b8:	69440032 	stmdbvs	r4, {r1, r4, r5}^
 8bc:	6c626173 	stfvse	f6, [r2], #-460	; 0xfffffe34
 8c0:	52495f65 	subpl	r5, r9, #404	; 0x194
 8c4:	315f7351 	cmpcc	pc, r1, asr r3	; <UNPREDICTABLE>
 8c8:	73694400 	cmnvc	r9, #0, 8
 8cc:	656c6261 	strbvs	r6, [ip, #-609]!	; 0x261
 8d0:	5152495f 	cmppl	r2, pc, asr r9
 8d4:	00325f73 	eorseq	r5, r2, r3, ror pc
 8d8:	5f515249 	svcpl	0x00515249
 8dc:	646e6570 	strbtvs	r6, [lr], #-1392	; 0x570
 8e0:	5f676e69 	svcpl	0x00676e69
 8e4:	74610031 	strbtvc	r0, [r1], #-49	; 0x31
 8e8:	6573755f 	ldrbvs	r7, [r3, #-1375]!	; 0x55f
 8ec:	656c5f72 	strbvs	r5, [ip, #-3954]!	; 0xf72
 8f0:	006c6576 	rsbeq	r6, ip, r6, ror r5
 8f4:	66617473 			; <UNDEFINED> instruction: 0x66617473
 8f8:	72732d66 	rsbsvc	r2, r3, #6528	; 0x1980
 8fc:	65722f63 	ldrbvs	r2, [r2, #-3939]!	; 0xf63
 900:	746f6f62 	strbtvc	r6, [pc], #-3938	; 908 <__code_start__-0x76f8>
 904:	5000632e 	andpl	r6, r0, lr, lsr #6
 908:	53525f4d 	cmppl	r2, #308	; 0x134
 90c:	575f4354 			; <UNDEFINED> instruction: 0x575f4354
 910:	47464352 	smlsldmi	r4, r6, r2, r3
 914:	4c55465f 	mrrcmi	6, 5, r4, r5, cr15
 918:	45525f4c 	ldrbmi	r5, [r2, #-3916]	; 0xf4c
 91c:	00544553 	subseq	r4, r4, r3, asr r5
 920:	575f4d50 			; <UNDEFINED> instruction: 0x575f4d50
 924:	00474f44 	subeq	r4, r7, r4, asr #30
 928:	5f746573 	svcpl	0x00746573
 92c:	72657375 	rsbvc	r7, r5, #-738197503	; 0xd4000001
 930:	76656c5f 			; <UNDEFINED> instruction: 0x76656c5f
 934:	50006c65 	andpl	r6, r0, r5, ror #24
 938:	41505f4d 	cmpmi	r0, sp, asr #30
 93c:	4f575353 	svcmi	0x00575353
 940:	50004452 	andpl	r4, r0, r2, asr r4
 944:	53525f4d 	cmppl	r2, #308	; 0x134
 948:	74004354 	strvc	r4, [r0], #-852	; 0x354
 94c:	72656d69 	rsbvc	r6, r5, #6720	; 0x1a40
 950:	7465675f 	strbtvc	r6, [r5], #-1887	; 0x75f
 954:	6573755f 	ldrbvs	r7, [r3, #-1375]!	; 0x55f
 958:	61725f63 	cmnvs	r2, r3, ror #30
 95c:	65640077 	strbvs	r0, [r4, #-119]!	; 0x77
 960:	5f79616c 	svcpl	0x0079616c
 964:	00636573 	rsbeq	r6, r3, r3, ror r5
 968:	66617473 			; <UNDEFINED> instruction: 0x66617473
 96c:	72732d66 	rsbsvc	r2, r3, #6528	; 0x1980
 970:	69742f63 	ldmdbvs	r4!, {r0, r1, r5, r6, r8, r9, sl, fp, sp}^
 974:	2e72656d 	cdpcs	5, 7, cr6, cr2, cr13, {3}
 978:	45470063 	strbmi	r0, [r7, #-99]	; 0x63
 97c:	00323354 	eorseq	r3, r2, r4, asr r3
 980:	6b636974 	blvs	18daf58 <__bss_end__+0x18d0590>
 984:	65640073 	strbvs	r0, [r4, #-115]!	; 0x73
 988:	5f79616c 	svcpl	0x0079616c
 98c:	6c637963 	stclvs	9, cr7, [r3], #-396	; 0xfffffe74
 990:	64007365 	strvs	r7, [r0], #-869	; 0x365
 994:	79616c65 	stmdbvc	r1!, {r0, r2, r5, r6, sl, fp, sp, lr}^
 998:	0073755f 	rsbseq	r7, r3, pc, asr r5
 99c:	656d6974 	strbvs	r6, [sp, #-2420]!	; 0x974
 9a0:	65675f72 	strbvs	r5, [r7, #-3954]!	; 0xf72
 9a4:	73755f74 	cmnvc	r5, #116, 30	; 0x1d0
 9a8:	5f006365 	svcpl	0x00006365
 9ac:	5f6f7364 	svcpl	0x006f7364
 9b0:	646e6168 	strbtvs	r6, [lr], #-360	; 0x168
 9b4:	5f00656c 	svcpl	0x0000656c
 9b8:	657a6973 	ldrbvs	r6, [sl, #-2419]!	; 0x973
 9bc:	61725f00 	cmnvs	r2, r0, lsl #30
 9c0:	3834646e 	ldmdacc	r4!, {r1, r2, r3, r5, r6, sl, sp, lr}
 9c4:	6d655f00 	stclvs	15, cr5, [r5, #-0]
 9c8:	65677265 	strbvs	r7, [r7, #-613]!	; 0x265
 9cc:	0079636e 	rsbseq	r6, r9, lr, ror #6
 9d0:	74726175 	ldrbtvc	r6, [r2], #-373	; 0x175
 9d4:	696e695f 	stmdbvs	lr!, {r0, r1, r2, r3, r4, r6, r8, fp, sp, lr}^
 9d8:	775f0074 			; <UNDEFINED> instruction: 0x775f0074
 9dc:	6f747263 	svcvs	0x00747263
 9e0:	735f626d 	cmpvc	pc, #-805306362	; 0xd0000006
 9e4:	65746174 	ldrbvs	r6, [r4, #-372]!	; 0x174
 9e8:	63775f00 	cmnvs	r7, #0, 30
 9ec:	6f747273 	svcvs	0x00747273
 9f0:	5f73626d 	svcpl	0x0073626d
 9f4:	74617473 	strbtvc	r7, [r1], #-1139	; 0x473
 9f8:	6c5f0065 	mrrcvs	0, 6, r0, pc, cr5	; <UNPREDICTABLE>
 9fc:	69736662 	ldmdbvs	r3!, {r1, r5, r6, r9, sl, sp, lr}^
 a00:	4700657a 	smlsdxmi	r0, sl, r5, r6
 a04:	5f4f4950 	svcpl	0x004f4950
 a08:	434e5546 	movtmi	r5, #58694	; 0xe546
 a0c:	504e495f 	subpl	r4, lr, pc, asr r9
 a10:	5f005455 	svcpl	0x00005455
 a14:	7472626d 	ldrbtvc	r6, [r2], #-621	; 0x26d
 a18:	5f63776f 	svcpl	0x0063776f
 a1c:	74617473 	strbtvc	r7, [r1], #-1139	; 0x473
 a20:	775f0065 	ldrbvc	r0, [pc, -r5, rrx]
 a24:	6d6f7463 	cfstrdvs	mvd7, [pc, #-396]!	; 8a0 <__code_start__-0x7760>
 a28:	74735f62 	ldrbtvc	r5, [r3], #-3938	; 0xf62
 a2c:	00657461 	rsbeq	r7, r5, r1, ror #8
 a30:	6d745f5f 	ldclvs	15, cr5, [r4, #-380]!	; 0xfffffe84
 a34:	6365735f 	cmnvs	r5, #2080374785	; 0x7c000001
 a38:	61747300 	cmnvs	r4, r0, lsl #6
 a3c:	755f0074 	ldrbvc	r0, [pc, #-116]	; 9d0 <__code_start__-0x7630>
 a40:	00667562 	rsbeq	r7, r6, r2, ror #10
 a44:	4f495047 	svcmi	0x00495047
 a48:	4e55465f 	mrcmi	6, 2, r4, cr5, cr15, {2}
 a4c:	4c415f43 	mcrrmi	15, 4, r5, r1, cr3
 a50:	5f003154 	svcpl	0x00003154
 a54:	65736162 	ldrbvs	r6, [r3, #-354]!	; 0x162
 a58:	746e6300 	strbtvc	r6, [lr], #-768	; 0x300
 a5c:	5f5f006c 	svcpl	0x005f006c
 a60:	685f6d74 	ldmdavs	pc, {r2, r4, r5, r6, r8, sl, fp, sp, lr}^	; <UNPREDICTABLE>
 a64:	0072756f 	rsbseq	r7, r2, pc, ror #10
 a68:	66735f5f 	uhsaxvs	r5, r3, pc	; <UNPREDICTABLE>
 a6c:	6e6f5f00 	cdpvs	15, 6, cr5, cr15, cr0, {0}
 a70:	6978655f 	ldmdbvs	r8!, {r0, r1, r2, r3, r4, r6, r8, sl, sp, lr}^
 a74:	72615f74 	rsbvc	r5, r1, #116, 30	; 0x1d0
 a78:	5f007367 	svcpl	0x00007367
 a7c:	6b6f6f63 	blvs	1bdc810 <__bss_end__+0x1bd1e48>
 a80:	5f006569 	svcpl	0x00006569
 a84:	6c67735f 	stclvs	3, cr7, [r7], #-380	; 0xfffffe84
 a88:	5f006575 	svcpl	0x00006575
 a8c:	67616c66 	strbvs	r6, [r1, -r6, ror #24]!
 a90:	695f0073 	ldmdbvs	pc, {r0, r1, r4, r5, r6}^	; <UNPREDICTABLE>
 a94:	78635f73 	stmdavc	r3!, {r0, r1, r4, r5, r6, r8, r9, sl, fp, ip, lr}^
 a98:	735f0061 	cmpvc	pc, #97	; 0x61
 a9c:	6e696474 	mcrvs	4, 3, r6, cr9, cr4, {3}
 aa0:	6c625f00 	stclvs	15, cr5, [r2], #-0
 aa4:	7a69736b 	bvc	1a5d858 <__bss_end__+0x1a52e90>
 aa8:	61750065 	cmnvs	r5, r5, rrx
 aac:	632e7472 	teqvs	lr, #1912602624	; 0x72000000
 ab0:	78756100 	ldmdavc	r5!, {r8, sp, lr}^
 ab4:	7265705f 	rsbvc	r7, r5, #95	; 0x5f
 ab8:	73687069 	cmnvc	r8, #105	; 0x69
 abc:	76635f00 	strbtvc	r5, [r3], -r0, lsl #30
 ac0:	66756274 			; <UNDEFINED> instruction: 0x66756274
 ac4:	6f682f00 	svcvs	0x00682f00
 ac8:	652f656d 	strvs	r6, [pc, #-1389]!	; 563 <__code_start__-0x7a9d>
 acc:	656c676e 	strbvs	r6, [ip, #-1902]!	; 0x76e
 ad0:	6c632f72 	stclvs	15, cr2, [r3], #-456	; 0xfffffe38
 ad4:	2f737361 	svccs	0x00737361
 ad8:	34327363 	ldrtcc	r7, [r2], #-867	; 0x363
 adc:	2d786c30 	ldclcs	12, cr6, [r8, #-192]!	; 0xffffff40
 ae0:	70733032 	rsbsvc	r3, r3, r2, lsr r0
 ae4:	696c2f72 	stmdbvs	ip!, {r1, r4, r5, r6, r8, r9, sl, fp, sp}^
 ae8:	2f697062 	svccs	0x00697062
 aec:	66617473 			; <UNDEFINED> instruction: 0x66617473
 af0:	72702d66 	rsbsvc	r2, r0, #6528	; 0x1980
 af4:	74617669 	strbtvc	r7, [r1], #-1641	; 0x669
 af8:	6d5f0065 	ldclvs	0, cr0, [pc, #-404]	; 96c <__code_start__-0x7694>
 afc:	74727362 	ldrbtvc	r7, [r2], #-866	; 0x362
 b00:	7363776f 	cmnvc	r3, #29097984	; 0x1bc0000
 b04:	6174735f 	cmnvs	r4, pc, asr r3
 b08:	5f006574 	svcpl	0x00006574
 b0c:	6c72626d 	lfmvs	f6, 2, [r2], #-436	; 0xfffffe4c
 b10:	735f6e65 	cmpvc	pc, #1616	; 0x650
 b14:	65746174 	ldrbvs	r6, [r4, #-372]!	; 0x174
 b18:	6e665f00 	cdpvs	15, 6, cr5, cr6, cr0, {0}
 b1c:	73677261 	cmnvc	r7, #268435462	; 0x10000006
 b20:	78756100 	ldmdavc	r5!, {r8, sp, lr}^
 b24:	616e655f 	cmnvs	lr, pc, asr r5
 b28:	73656c62 	cmnvc	r5, #25088	; 0x6200
 b2c:	6e665f00 	cdpvs	15, 6, cr5, cr6, cr0, {0}
 b30:	735f0073 	cmpvc	pc, #115	; 0x73
 b34:	006e6769 	rsbeq	r6, lr, r9, ror #14
 b38:	74726175 	ldrbtvc	r6, [r2], #-373	; 0x175
 b3c:	6e61635f 	mcrvs	3, 3, r6, cr1, cr15, {2}
 b40:	7475705f 	ldrbtvc	r7, [r5], #-95	; 0x5f
 b44:	665f0063 	ldrbvs	r0, [pc], -r3, rrx
 b48:	6b636f6c 	blvs	18dc900 <__bss_end__+0x18d1f38>
 b4c:	5f00745f 	svcpl	0x0000745f
 b50:	65647473 	strbvs	r7, [r4, #-1139]!	; 0x473
 b54:	5f007272 	svcpl	0x00007272
 b58:	69676942 	stmdbvs	r7!, {r1, r6, r8, fp, sp, lr}^
 b5c:	5f00746e 	svcpl	0x0000746e
 b60:	6d6d6167 	stfvse	f6, [sp, #-412]!	; 0xfffffe64
 b64:	69735f61 	ldmdbvs	r3!, {r0, r5, r6, r8, r9, sl, fp, ip, lr}^
 b68:	61676e67 	cmnvs	r7, r7, ror #28
 b6c:	725f006d 	subsvc	r0, pc, #109	; 0x6d
 b70:	6c757365 	ldclvs	3, cr7, [r5], #-404	; 0xfffffe6c
 b74:	006b5f74 	rsbeq	r5, fp, r4, ror pc
 b78:	6d745f5f 	ldclvs	15, cr5, [r4, #-380]!	; 0xfffffe84
 b7c:	775f5f00 	ldrbvc	r5, [pc, -r0, lsl #30]
 b80:	00626863 	rsbeq	r6, r2, r3, ror #16
 b84:	74726175 	ldrbtvc	r6, [r2], #-373	; 0x175
 b88:	7465675f 	strbtvc	r6, [r5], #-1887	; 0x75f
 b8c:	735f0063 	cmpvc	pc, #99	; 0x63
 b90:	756f6474 	strbvc	r6, [pc, #-1140]!	; 724 <__code_start__-0x78dc>
 b94:	635f0074 	cmpvs	pc, #116	; 0x74
 b98:	656c7476 	strbvs	r7, [ip, #-1142]!	; 0x476
 b9c:	665f006e 	ldrbvs	r0, [pc], -lr, rrx
 ba0:	00656c69 	rsbeq	r6, r5, r9, ror #24
 ba4:	6f696e5f 	svcvs	0x00696e5f
 ba8:	5f007362 	svcpl	0x00007362
 bac:	78657461 	stmdavc	r5!, {r0, r5, r6, sl, ip, sp, lr}^
 bb0:	00307469 	eorseq	r7, r0, r9, ror #8
 bb4:	6769735f 			; <UNDEFINED> instruction: 0x6769735f
 bb8:	5f6c616e 	svcpl	0x006c616e
 bbc:	00667562 	rsbeq	r7, r6, r2, ror #10
 bc0:	6373615f 	cmnvs	r3, #-1073741801	; 0xc0000017
 bc4:	656d6974 	strbvs	r6, [sp, #-2420]!	; 0x974
 bc8:	6675625f 			; <UNDEFINED> instruction: 0x6675625f
 bcc:	65725f00 	ldrbvs	r5, [r2, #-3840]!	; 0xf00
 bd0:	746c7573 	strbtvc	r7, [ip], #-1395	; 0x573
 bd4:	775f5f00 	ldrbvc	r5, [pc, -r0, lsl #30]
 bd8:	47006863 	strmi	r6, [r0, -r3, ror #16]
 bdc:	5f4f4950 	svcpl	0x004f4950
 be0:	434e5546 	movtmi	r5, #58694	; 0xe546
 be4:	544c415f 	strbpl	r4, [ip], #-351	; 0x15f
 be8:	69770032 	ldmdbvs	r7!, {r1, r4, r5}^
 bec:	745f746e 	ldrbvc	r7, [pc], #-1134	; bf4 <__code_start__-0x740c>
 bf0:	6f6c5f00 	svcvs	0x006c5f00
 bf4:	5f006b63 	svcpl	0x00006b63
 bf8:	67616c66 	strbvs	r6, [r1, -r6, ror #24]!
 bfc:	5f003273 	svcpl	0x00003273
 c00:	5f6d745f 	svcpl	0x006d745f
 c04:	72616579 	rsbvc	r6, r1, #507510784	; 0x1e400000
 c08:	666f5f00 	strbtvs	r5, [pc], -r0, lsl #30
 c0c:	74657366 	strbtvc	r7, [r5], #-870	; 0x366
 c10:	69706700 	ldmdbvs	r0!, {r8, r9, sl, sp, lr}^
 c14:	65735f6f 	ldrbvs	r5, [r3, #-3951]!	; 0xf6f
 c18:	75665f74 	strbvc	r5, [r6, #-3956]!	; 0xf74
 c1c:	6974636e 	ldmdbvs	r4!, {r1, r2, r3, r5, r6, r8, r9, sp, lr}^
 c20:	5f006e6f 	svcpl	0x00006e6f
 c24:	7478656e 	ldrbtvc	r6, [r8], #-1390	; 0x56e
 c28:	5f5f0066 	svcpl	0x005f0066
 c2c:	6d5f6d74 	ldclvs	13, cr6, [pc, #-464]	; a64 <__code_start__-0x759c>
 c30:	5f006e6f 	svcpl	0x00006e6f
 c34:	78657461 	stmdavc	r5!, {r0, r5, r6, sl, ip, sp, lr}^
 c38:	5f007469 	svcpl	0x00007469
 c3c:	6964735f 	stmdbvs	r4!, {r0, r1, r2, r3, r4, r6, r8, r9, ip, sp, lr}^
 c40:	696e6964 	stmdbvs	lr!, {r2, r5, r6, r8, fp, sp, lr}^
 c44:	6f5f0074 	svcvs	0x005f0074
 c48:	745f6666 	ldrbvc	r6, [pc], #-1638	; c50 <__code_start__-0x73b0>
 c4c:	72617500 	rsbvc	r7, r1, #0, 10
 c50:	665f0074 			; <UNDEFINED> instruction: 0x665f0074
 c54:	6c656572 	cfstr64vs	mvdx6, [r5], #-456	; 0xfffffe38
 c58:	00747369 	rsbseq	r7, r4, r9, ror #6
 c5c:	434f4c5f 	movtmi	r4, #64607	; 0xfc5f
 c60:	45525f4b 	ldrbmi	r5, [r2, #-3915]	; 0xf4b
 c64:	53525543 	cmppl	r2, #281018368	; 0x10c00000
 c68:	5f455649 	svcpl	0x00455649
 c6c:	6e5f0054 	mrcvs	0, 2, r0, cr15, cr4, {2}
 c70:	5f007765 	svcpl	0x00007765
 c74:	72655f68 	rsbvc	r5, r5, #104, 30	; 0x1a0
 c78:	006f6e72 	rsbeq	r6, pc, r2, ror lr	; <UNPREDICTABLE>
 c7c:	6d745f5f 	ldclvs	15, cr5, [r4, #-380]!	; 0xfffffe84
 c80:	6164795f 	cmnvs	r4, pc, asr r9
 c84:	5f5f0079 	svcpl	0x005f0079
 c88:	66756273 			; <UNDEFINED> instruction: 0x66756273
 c8c:	6f695f00 	svcvs	0x00695f00
 c90:	5f007362 	svcpl	0x00007362
 c94:	4c49465f 	mcrrmi	6, 5, r4, r9, cr15
 c98:	6d5f0045 	ldclvs	0, cr0, [pc, #-276]	; b8c <__code_start__-0x7474>
 c9c:	61747362 	cmnvs	r4, r2, ror #6
 ca0:	745f6574 	ldrbvc	r6, [pc], #-1396	; ca8 <__code_start__-0x7358>
 ca4:	735f5f00 	cmpvc	pc, #0, 30
 ca8:	454c4946 	strbmi	r4, [ip, #-2374]	; 0x946
 cac:	626d5f00 	rsbvs	r5, sp, #0, 30
 cb0:	74617473 	strbtvc	r7, [r1], #-1139	; 0x473
 cb4:	725f0065 	subsvc	r0, pc, #101	; 0x65
 cb8:	5f646e61 	svcpl	0x00646e61
 cbc:	7478656e 	ldrbtvc	r6, [r8], #-1390	; 0x56e
 cc0:	626d5f00 	rsbvs	r5, sp, #0, 30
 cc4:	5f6e656c 	svcpl	0x006e656c
 cc8:	74617473 	strbtvc	r7, [r1], #-1139	; 0x473
 ccc:	695f0065 	ldmdbvs	pc, {r0, r2, r5, r6}^	; <UNPREDICTABLE>
 cd0:	5f00636e 	svcpl	0x0000636e
 cd4:	00646e69 	rsbeq	r6, r4, r9, ror #28
 cd8:	7275635f 	rsbsvc	r6, r5, #2080374785	; 0x7c000001
 cdc:	746e6572 	strbtvc	r6, [lr], #-1394	; 0x572
 ce0:	636f6c5f 	cmnvs	pc, #24320	; 0x5f00
 ce4:	00656c61 	rsbeq	r6, r5, r1, ror #24
 ce8:	6c635f5f 	stclvs	15, cr5, [r3], #-380	; 0xfffffe84
 cec:	756e6165 	strbvc	r6, [lr, #-357]!	; 0x165
 cf0:	6d5f0070 	ldclvs	0, cr0, [pc, #-448]	; b38 <__code_start__-0x74c8>
 cf4:	64777861 	ldrbtvs	r7, [r7], #-2145	; 0x861
 cf8:	725f0073 	subsvc	r0, pc, #115	; 0x73
 cfc:	746e6565 	strbtvc	r6, [lr], #-1381	; 0x565
 d00:	65735f00 	ldrbvs	r5, [r3, #-3840]!	; 0xf00
 d04:	5f006465 	svcpl	0x00006465
 d08:	756f635f 	strbvc	r6, [pc, #-863]!	; 9b1 <__code_start__-0x764f>
 d0c:	5f00746e 	svcpl	0x0000746e
 d10:	6c61765f 	stclvs	6, cr7, [r1], #-380	; 0xfffffe84
 d14:	5f006575 	svcpl	0x00006575
 d18:	6b656573 	blvs	195a2ec <__bss_end__+0x194f924>
 d1c:	75616200 	strbvc	r6, [r1, #-512]!	; 0x200
 d20:	665f0064 	ldrbvs	r0, [pc], -r4, rrx
 d24:	5f736f70 	svcpl	0x00736f70
 d28:	5f5f0074 	svcpl	0x005f0074
 d2c:	6d5f6d74 	ldclvs	13, cr6, [pc, #-464]	; b64 <__code_start__-0x749c>
 d30:	73006e69 	movwvc	r6, #3689	; 0xe69
 d34:	74617263 	strbtvc	r7, [r1], #-611	; 0x263
 d38:	5f006863 	svcpl	0x00006863
 d3c:	746c756d 	strbtvc	r7, [ip], #-1389	; 0x56d
 d40:	74757000 	ldrbtvc	r7, [r5], #-0
 d44:	47003233 	smladxmi	r0, r3, r2, r3
 d48:	4320554e 	teqmi	r0, #327155712	; 0x13800000
 d4c:	36203939 			; <UNDEFINED> instruction: 0x36203939
 d50:	312e332e 	teqcc	lr, lr, lsr #6
 d54:	31303220 	teqcc	r0, r0, lsr #4
 d58:	32363037 	eorscc	r3, r6, #55	; 0x37
 d5c:	6d2d2030 	stcvs	0, cr2, [sp, #-192]!	; 0xffffff40
 d60:	3d757063 	ldclcc	0, cr7, [r5, #-396]!	; 0xfffffe74
 d64:	316d7261 	cmncc	sp, r1, ror #4
 d68:	6a363731 	bvs	d8ea34 <__bss_end__+0xd8406c>
 d6c:	732d667a 	teqvc	sp, #127926272	; 0x7a00000
 d70:	746d2d20 	strbtvc	r2, [sp], #-3360	; 0xd20
 d74:	3d656e75 	stclcc	14, cr6, [r5, #-468]!	; 0xfffffe2c
 d78:	316d7261 	cmncc	sp, r1, ror #4
 d7c:	6a363731 	bvs	d8ea48 <__bss_end__+0xd84080>
 d80:	732d667a 	teqvc	sp, #127926272	; 0x7a00000
 d84:	67672d20 	strbvs	r2, [r7, -r0, lsr #26]!
 d88:	2d206264 	sfmcs	f6, 4, [r0, #-400]!	; 0xfffffe70
 d8c:	2d20674f 	stccs	7, cr6, [r0, #-316]!	; 0xfffffec4
 d90:	3d647473 	cfstrdcc	mvd7, [r4, #-460]!	; 0xfffffe34
 d94:	39756e67 	ldmdbcc	r5!, {r0, r1, r2, r5, r6, r9, sl, fp, sp, lr}^
 d98:	662d2039 			; <UNDEFINED> instruction: 0x662d2039
 d9c:	65657266 	strbvs	r7, [r5, #-614]!	; 0x266
 da0:	6e617473 	mcrvs	4, 3, r7, cr1, cr3, {3}
 da4:	676e6964 	strbvs	r6, [lr, -r4, ror #18]!
 da8:	74735f00 	ldrbtvc	r5, [r3], #-3840	; 0xf00
 dac:	6b6f7472 	blvs	1bddf7c <__bss_end__+0x1bd35b4>
 db0:	73616c5f 	cmnvc	r1, #24320	; 0x5f00
 db4:	665f0074 			; <UNDEFINED> instruction: 0x665f0074
 db8:	7079746e 	rsbsvc	r7, r9, lr, ror #8
 dbc:	5f007365 	svcpl	0x00007365
 dc0:	00646461 	rsbeq	r6, r4, r1, ror #8
 dc4:	4c555f5f 	mrrcmi	15, 5, r5, r5, cr15	; <UNPREDICTABLE>
 dc8:	00676e6f 	rsbeq	r6, r7, pc, ror #28
 dcc:	7465675f 	strbtvc	r6, [r5], #-1887	; 0x75f
 dd0:	65746164 	ldrbvs	r6, [r4, #-356]!	; 0x164
 dd4:	7272655f 	rsbsvc	r6, r2, #398458880	; 0x17c00000
 dd8:	6c675f00 	stclvs	15, cr5, [r7], #-0
 ddc:	6c61626f 	sfmvs	f6, 2, [r1], #-444	; 0xfffffe44
 de0:	706d695f 	rsbvc	r6, sp, pc, asr r9
 de4:	5f657275 	svcpl	0x00657275
 de8:	00727470 	rsbseq	r7, r2, r0, ror r4
 dec:	7275635f 	rsbsvc	r6, r5, #2080374785	; 0x7c000001
 df0:	746e6572 	strbtvc	r6, [lr], #-1394	; 0x572
 df4:	7461635f 	strbtvc	r6, [r1], #-863	; 0x35f
 df8:	726f6765 	rsbvc	r6, pc, #26476544	; 0x1940000
 dfc:	755f0079 	ldrbvc	r0, [pc, #-121]	; d8b <__code_start__-0x7275>
 e00:	6573756e 	ldrbvs	r7, [r3, #-1390]!	; 0x56e
 e04:	61725f64 	cmnvs	r2, r4, ror #30
 e08:	5f00646e 	svcpl	0x0000646e
 e0c:	00736477 	rsbseq	r6, r3, r7, ror r4
 e10:	6d745f5f 	ldclvs	15, cr5, [r4, #-380]!	; 0xfffffe84
 e14:	6164775f 	cmnvs	r4, pc, asr r7
 e18:	675f0079 			; <UNDEFINED> instruction: 0x675f0079
 e1c:	0065756c 	rsbeq	r7, r5, ip, ror #10
 e20:	4f495047 	svcmi	0x00495047
 e24:	4e55465f 	mrcmi	6, 2, r4, cr5, cr15, {2}
 e28:	554f5f43 	strbpl	r5, [pc, #-3907]	; fffffeed <__bss_end__+0xffff5525>
 e2c:	54555054 	ldrbpl	r5, [r5], #-84	; 0x54
 e30:	6d6e5f00 	stclvs	15, cr5, [lr, #-0]
 e34:	6f6c6c61 	svcvs	0x006c6c61
 e38:	6c5f0063 	mrrcvs	0, 6, r0, pc, cr3	; <UNPREDICTABLE>
 e3c:	5f613436 	svcpl	0x00613436
 e40:	00667562 	rsbeq	r7, r6, r2, ror #10
 e44:	33746567 	cmncc	r4, #432013312	; 0x19c00000
 e48:	61750032 	cmnvs	r5, r2, lsr r0
 e4c:	635f7472 	cmpvs	pc, #1912602624	; 0x72000000
 e50:	675f6e61 	ldrbvs	r6, [pc, -r1, ror #28]
 e54:	00637465 	rsbeq	r7, r3, r5, ror #8
 e58:	6769735f 			; <UNDEFINED> instruction: 0x6769735f
 e5c:	6e75665f 	mrcvs	6, 3, r6, cr5, cr15, {2}
 e60:	726f0063 	rsbvc	r0, pc, #99	; 0x63
 e64:	336e695f 	cmncc	lr, #1556480	; 0x17c000
 e68:	61750032 	cmnvs	r5, r2, lsr r0
 e6c:	685f7472 	ldmdavs	pc, {r1, r4, r5, r6, sl, ip, sp, lr}^	; <UNPREDICTABLE>
 e70:	645f7361 	ldrbvs	r7, [pc], #-865	; e78 <__code_start__-0x7188>
 e74:	00617461 	rsbeq	r7, r1, r1, ror #8
 e78:	4f495047 	svcmi	0x00495047
 e7c:	4e55465f 	mrcmi	6, 2, r4, cr5, cr15, {2}
 e80:	4c415f43 	mcrrmi	15, 4, r5, r1, cr3
 e84:	5f003054 	svcpl	0x00003054
 e88:	6675626e 	ldrbtvs	r6, [r5], -lr, ror #4
 e8c:	6e755f00 	cdpvs	15, 7, cr5, cr5, cr0, {0}
 e90:	64657375 	strbtvs	r7, [r5], #-885	; 0x375
 e94:	49504700 	ldmdbmi	r0, {r8, r9, sl, lr}^
 e98:	55465f4f 	strbpl	r5, [r6, #-3919]	; 0xf4f
 e9c:	415f434e 	cmpmi	pc, lr, asr #6
 ea0:	0033544c 	eorseq	r5, r3, ip, asr #8
 ea4:	4f495047 	svcmi	0x00495047
 ea8:	4e55465f 	mrcmi	6, 2, r4, cr5, cr15, {2}
 eac:	4c415f43 	mcrrmi	15, 4, r5, r1, cr3
 eb0:	47003454 	smlsdmi	r0, r4, r4, r3
 eb4:	5f4f4950 	svcpl	0x004f4950
 eb8:	434e5546 	movtmi	r5, #58694	; 0xe546
 ebc:	544c415f 	strbpl	r4, [ip], #-351	; 0x15f
 ec0:	5f5f0035 	svcpl	0x005f0035
 ec4:	695f6d74 	ldmdbvs	pc, {r2, r4, r5, r6, r8, sl, fp, sp, lr}^	; <UNPREDICTABLE>
 ec8:	74736473 	ldrbtvc	r6, [r3], #-1139	; 0x473
 ecc:	6f6c5f00 	svcvs	0x006c5f00
 ed0:	746c6163 	strbtvc	r6, [ip], #-355	; 0x163
 ed4:	5f656d69 	svcpl	0x00656d69
 ed8:	00667562 	rsbeq	r7, r6, r2, ror #10
 edc:	6f6c635f 	svcvs	0x006c635f
 ee0:	5f006573 	svcpl	0x00006573
 ee4:	00383472 	eorseq	r3, r8, r2, ror r4
 ee8:	74626d5f 	strbtvc	r6, [r2], #-3423	; 0xd5f
 eec:	5f63776f 	svcpl	0x0063776f
 ef0:	74617473 	strbtvc	r7, [r1], #-1139	; 0x473
 ef4:	705f0065 	subsvc	r0, pc, r5, rrx
 ef8:	5f007335 	svcpl	0x00007335
 efc:	5f6d745f 	svcpl	0x006d745f
 f00:	7961646d 	stmdbvc	r1!, {r0, r2, r3, r5, r6, sl, sp, lr}^
 f04:	69706700 	ldmdbvs	r0!, {r8, r9, sl, sp, lr}^
 f08:	65735f6f 	ldrbvs	r5, [r3, #-3951]!	; 0xf6f
 f0c:	666f5f74 	uqsub16vs	r5, pc, r4	; <UNPREDICTABLE>
 f10:	61620066 	cmnvs	r2, r6, rrx
 f14:	67006b6e 	strvs	r6, [r0, -lr, ror #22]
 f18:	2e6f6970 	mcrcs	9, 3, r6, cr15, cr0, {3}
 f1c:	70670063 	rsbvc	r0, r7, r3, rrx
 f20:	725f6f69 	subsvc	r6, pc, #420	; 0x1a4
 f24:	00646165 	rsbeq	r6, r4, r5, ror #2
 f28:	6f697067 	svcvs	0x00697067
 f2c:	7465735f 	strbtvc	r7, [r5], #-863	; 0x35f
 f30:	74756f5f 	ldrbtvc	r6, [r5], #-3935	; 0xf5f
 f34:	00747570 	rsbseq	r7, r4, r0, ror r5
 f38:	6f697067 	svcvs	0x00697067
 f3c:	6972775f 	ldmdbvs	r2!, {r0, r1, r2, r3, r4, r6, r8, r9, sl, ip, sp, lr}^
 f40:	67006574 	smlsdxvs	r0, r4, r5, r6
 f44:	5f6f6970 	svcpl	0x006f6970
 f48:	30746573 	rsbscc	r6, r4, r3, ror r5
 f4c:	69706700 	ldmdbvs	r0!, {r8, r9, sl, sp, lr}^
 f50:	656c5f6f 	strbvs	r5, [ip, #-3951]!	; 0xf6f
 f54:	67003076 	smlsdxvs	r0, r6, r0, r3
 f58:	5f6f6970 	svcpl	0x006f6970
 f5c:	5f746573 	svcpl	0x00746573
 f60:	75706e69 	ldrbvc	r6, [r0, #-3689]!	; 0xe69
 f64:	70670074 	rsbvc	r0, r7, r4, ror r0
 f68:	735f6f69 	cmpvc	pc, #420	; 0x1a4
 f6c:	6f5f7465 	svcvs	0x005f7465
 f70:	7067006e 	rsbvc	r0, r7, lr, rrx
 f74:	665f6f69 	ldrbvs	r6, [pc], -r9, ror #30
 f78:	5f636e75 	svcpl	0x00636e75
 f7c:	70670074 	rsbvc	r0, r7, r4, ror r0
 f80:	635f6f69 	cmpvs	pc, #420	; 0x1a4
 f84:	0030726c 	eorseq	r7, r0, ip, ror #4

Disassembly of section .debug_frame:

00000000 <.debug_frame>:
   0:	0000000c 	andeq	r0, r0, ip
   4:	ffffffff 			; <UNDEFINED> instruction: 0xffffffff
   8:	7c020001 	stcvc	0, cr0, [r2], {1}
   c:	000d0c0e 	andeq	r0, sp, lr, lsl #24
  10:	00000018 	andeq	r0, r0, r8, lsl r0
  14:	00000000 	andeq	r0, r0, r0
  18:	00008020 	andeq	r8, r0, r0, lsr #32
  1c:	00000158 	andeq	r0, r0, r8, asr r1
  20:	84080e42 	strhi	r0, [r8], #-3650	; 0xe42
  24:	42018e02 	andmi	r8, r1, #2, 28
  28:	0000100e 	andeq	r1, r0, lr
  2c:	00000014 	andeq	r0, r0, r4, lsl r0
  30:	00000000 	andeq	r0, r0, r0
  34:	00008178 	andeq	r8, r0, r8, ror r1
  38:	00000098 	muleq	r0, r8, r0
  3c:	8e040e42 	cdphi	14, 0, cr0, cr4, cr2, {2}
  40:	100e4201 	andne	r4, lr, r1, lsl #4
  44:	00000018 	andeq	r0, r0, r8, lsl r0
  48:	00000000 	andeq	r0, r0, r0
  4c:	00008210 	andeq	r8, r0, r0, lsl r2
  50:	0000016c 	andeq	r0, r0, ip, ror #2
  54:	84080e42 	strhi	r0, [r8], #-3650	; 0xe42
  58:	42018e02 	andmi	r8, r1, #2, 28
  5c:	0000100e 	andeq	r1, r0, lr
  60:	00000018 	andeq	r0, r0, r8, lsl r0
  64:	00000000 	andeq	r0, r0, r0
  68:	0000837c 	andeq	r8, r0, ip, ror r3
  6c:	000001a0 	andeq	r0, r0, r0, lsr #3
  70:	840c0e42 	strhi	r0, [ip], #-3650	; 0xe42
  74:	8e028503 	cfsh32hi	mvfx8, mvfx2, #3
  78:	180e4201 	stmdane	lr, {r0, r9, lr}
  7c:	0000000c 	andeq	r0, r0, ip
  80:	ffffffff 			; <UNDEFINED> instruction: 0xffffffff
  84:	7c020001 	stcvc	0, cr0, [r2], {1}
  88:	000d0c0e 	andeq	r0, sp, lr, lsl #24
  8c:	00000014 	andeq	r0, r0, r4, lsl r0
  90:	0000007c 	andeq	r0, r0, ip, ror r0
  94:	0000851c 	andeq	r8, r0, ip, lsl r5
  98:	000000b0 	strheq	r0, [r0], -r0	; <UNPREDICTABLE>
  9c:	8e040e42 	cdphi	14, 0, cr0, cr4, cr2, {2}
  a0:	100e4201 	andne	r4, lr, r1, lsl #4
  a4:	00000014 	andeq	r0, r0, r4, lsl r0
  a8:	0000007c 	andeq	r0, r0, ip, ror r0
  ac:	000085cc 	andeq	r8, r0, ip, asr #11
  b0:	000000dc 	ldrdeq	r0, [r0], -ip
  b4:	8e040e42 	cdphi	14, 0, cr0, cr4, cr2, {2}
  b8:	100e4201 	andne	r4, lr, r1, lsl #4
  bc:	00000014 	andeq	r0, r0, r4, lsl r0
  c0:	0000007c 	andeq	r0, r0, ip, ror r0
  c4:	000086a8 	andeq	r8, r0, r8, lsr #13
  c8:	0000003c 	andeq	r0, r0, ip, lsr r0
  cc:	83080e42 	movwhi	r0, #36418	; 0x8e42
  d0:	00018e02 	andeq	r8, r1, r2, lsl #28
  d4:	0000000c 	andeq	r0, r0, ip
  d8:	0000007c 	andeq	r0, r0, ip, ror r0
  dc:	000086e4 	andeq	r8, r0, r4, ror #13
  e0:	00000034 	andeq	r0, r0, r4, lsr r0
  e4:	00000014 	andeq	r0, r0, r4, lsl r0
  e8:	0000007c 	andeq	r0, r0, ip, ror r0
  ec:	00008718 	andeq	r8, r0, r8, lsl r7
  f0:	00000098 	muleq	r0, r8, r0
  f4:	8e040e42 	cdphi	14, 0, cr0, cr4, cr2, {2}
  f8:	100e4201 	andne	r4, lr, r1, lsl #4
  fc:	0000000c 	andeq	r0, r0, ip
 100:	0000007c 	andeq	r0, r0, ip, ror r0
 104:	000087b0 			; <UNDEFINED> instruction: 0x000087b0
 108:	00000004 	andeq	r0, r0, r4
 10c:	00000014 	andeq	r0, r0, r4, lsl r0
 110:	0000007c 	andeq	r0, r0, ip, ror r0
 114:	000087b4 			; <UNDEFINED> instruction: 0x000087b4
 118:	0000002c 	andeq	r0, r0, ip, lsr #32
 11c:	83080e42 	movwhi	r0, #36418	; 0x8e42
 120:	00018e02 	andeq	r8, r1, r2, lsl #28
 124:	0000000c 	andeq	r0, r0, ip
 128:	0000007c 	andeq	r0, r0, ip, ror r0
 12c:	000087e0 	andeq	r8, r0, r0, ror #15
 130:	00000034 	andeq	r0, r0, r4, lsr r0
 134:	0000000c 	andeq	r0, r0, ip
 138:	0000007c 	andeq	r0, r0, ip, ror r0
 13c:	00008814 	andeq	r8, r0, r4, lsl r8
 140:	00000010 	andeq	r0, r0, r0, lsl r0
 144:	00000014 	andeq	r0, r0, r4, lsl r0
 148:	0000007c 	andeq	r0, r0, ip, ror r0
 14c:	00008824 	andeq	r8, r0, r4, lsr #16
 150:	0000004c 	andeq	r0, r0, ip, asr #32
 154:	83080e42 	movwhi	r0, #36418	; 0x8e42
 158:	00018e02 	andeq	r8, r1, r2, lsl #28
 15c:	0000000c 	andeq	r0, r0, ip
 160:	ffffffff 			; <UNDEFINED> instruction: 0xffffffff
 164:	7c020001 	stcvc	0, cr0, [r2], {1}
 168:	000d0c0e 	andeq	r0, sp, lr, lsl #24
 16c:	00000018 	andeq	r0, r0, r8, lsl r0
 170:	0000015c 	andeq	r0, r0, ip, asr r1
 174:	00008988 	andeq	r8, r0, r8, lsl #19
 178:	00000198 	muleq	r0, r8, r1
 17c:	840c0e42 	strhi	r0, [ip], #-3650	; 0xe42
 180:	8e028503 	cfsh32hi	mvfx8, mvfx2, #3
 184:	180e4201 	stmdane	lr, {r0, r9, lr}
 188:	00000024 	andeq	r0, r0, r4, lsr #32
 18c:	0000015c 	andeq	r0, r0, ip, asr r1
 190:	00008b20 	andeq	r8, r0, r0, lsr #22
 194:	000004c8 	andeq	r0, r0, r8, asr #9
 198:	84240e42 	strthi	r0, [r4], #-3650	; 0xe42
 19c:	86088509 	strhi	r8, [r8], -r9, lsl #10
 1a0:	88068707 	stmdahi	r6, {r0, r1, r2, r8, r9, sl, pc}
 1a4:	8a048905 	bhi	1225c0 <__bss_end__+0x117bf8>
 1a8:	8e028b03 	vmlahi.f64	d8, d2, d3
 1ac:	300e4201 	andcc	r4, lr, r1, lsl #4
 1b0:	00000018 	andeq	r0, r0, r8, lsl r0
 1b4:	0000015c 	andeq	r0, r0, ip, asr r1
 1b8:	00008fe8 	andeq	r8, r0, r8, ror #31
 1bc:	00000084 	andeq	r0, r0, r4, lsl #1
 1c0:	83100e42 	tsthi	r0, #1056	; 0x420
 1c4:	85038404 	strhi	r8, [r3, #-1028]	; 0x404
 1c8:	00018e02 	andeq	r8, r1, r2, lsl #28
 1cc:	0000000c 	andeq	r0, r0, ip
 1d0:	0000015c 	andeq	r0, r0, ip, asr r1
 1d4:	0000906c 	andeq	r9, r0, ip, rrx
 1d8:	00000028 	andeq	r0, r0, r8, lsr #32
 1dc:	00000014 	andeq	r0, r0, r4, lsl r0
 1e0:	0000015c 	andeq	r0, r0, ip, asr r1
 1e4:	00009094 	muleq	r0, r4, r0
 1e8:	0000004c 	andeq	r0, r0, ip, asr #32
 1ec:	84080e42 	strhi	r0, [r8], #-3650	; 0xe42
 1f0:	00018e02 	andeq	r8, r1, r2, lsl #28
 1f4:	0000000c 	andeq	r0, r0, ip
 1f8:	ffffffff 			; <UNDEFINED> instruction: 0xffffffff
 1fc:	7c020001 	stcvc	0, cr0, [r2], {1}
 200:	000d0c0e 	andeq	r0, sp, lr, lsl #24
 204:	00000024 	andeq	r0, r0, r4, lsr #32
 208:	000001f4 	strdeq	r0, [r0], -r4
 20c:	000090e0 	andeq	r9, r0, r0, ror #1
 210:	00000058 	andeq	r0, r0, r8, asr r0
 214:	80100e42 	andshi	r0, r0, r2, asr #28
 218:	82038104 	andhi	r8, r3, #4, 2
 21c:	42018302 	andmi	r8, r1, #134217728	; 0x8000000
 220:	07841c0e 	streq	r1, [r4, lr, lsl #24]
 224:	058e0685 	streq	r0, [lr, #1669]	; 0x685
 228:	00280e42 	eoreq	r0, r8, r2, asr #28
 22c:	0000000c 	andeq	r0, r0, ip
 230:	ffffffff 			; <UNDEFINED> instruction: 0xffffffff
 234:	7c020001 	stcvc	0, cr0, [r2], {1}
 238:	000d0c0e 	andeq	r0, sp, lr, lsl #24
 23c:	00000014 	andeq	r0, r0, r4, lsl r0
 240:	0000022c 	andeq	r0, r0, ip, lsr #4
 244:	00009138 	andeq	r9, r0, r8, lsr r1
 248:	00000014 	andeq	r0, r0, r4, lsl r0
 24c:	84080e42 	strhi	r0, [r8], #-3650	; 0xe42
 250:	00018e02 	andeq	r8, r1, r2, lsl #28
 254:	0000000c 	andeq	r0, r0, ip
 258:	0000022c 	andeq	r0, r0, ip, lsr #4
 25c:	0000914c 	andeq	r9, r0, ip, asr #2
 260:	00000018 	andeq	r0, r0, r8, lsl r0
 264:	0000000c 	andeq	r0, r0, ip
 268:	0000022c 	andeq	r0, r0, ip, lsr #4
 26c:	00009164 	andeq	r9, r0, r4, ror #2
 270:	00000010 	andeq	r0, r0, r0, lsl r0
 274:	0000000c 	andeq	r0, r0, ip
 278:	ffffffff 			; <UNDEFINED> instruction: 0xffffffff
 27c:	7c020001 	stcvc	0, cr0, [r2], {1}
 280:	000d0c0e 	andeq	r0, sp, lr, lsl #24
 284:	00000018 	andeq	r0, r0, r8, lsl r0
 288:	00000274 	andeq	r0, r0, r4, ror r2
 28c:	00009174 	andeq	r9, r0, r4, ror r1
 290:	00000034 	andeq	r0, r0, r4, lsr r0
 294:	83100e42 	tsthi	r0, #1056	; 0x420
 298:	85038404 	strhi	r8, [r3, #-1028]	; 0x404
 29c:	00018e02 	andeq	r8, r1, r2, lsl #28
 2a0:	0000000c 	andeq	r0, r0, ip
 2a4:	ffffffff 			; <UNDEFINED> instruction: 0xffffffff
 2a8:	7c020001 	stcvc	0, cr0, [r2], {1}
 2ac:	000d0c0e 	andeq	r0, sp, lr, lsl #24
 2b0:	0000000c 	andeq	r0, r0, ip
 2b4:	000002a0 	andeq	r0, r0, r0, lsr #5
 2b8:	000091a8 	andeq	r9, r0, r8, lsr #3
 2bc:	00000014 	andeq	r0, r0, r4, lsl r0
 2c0:	0000000c 	andeq	r0, r0, ip
 2c4:	000002a0 	andeq	r0, r0, r0, lsr #5
 2c8:	000091bc 			; <UNDEFINED> instruction: 0x000091bc
 2cc:	0000002c 	andeq	r0, r0, ip, lsr #32
 2d0:	0000000c 	andeq	r0, r0, ip
 2d4:	000002a0 	andeq	r0, r0, r0, lsr #5
 2d8:	000091e8 	andeq	r9, r0, r8, ror #3
 2dc:	00000040 	andeq	r0, r0, r0, asr #32
 2e0:	00000020 	andeq	r0, r0, r0, lsr #32
 2e4:	000002a0 	andeq	r0, r0, r0, lsr #5
 2e8:	00009228 	andeq	r9, r0, r8, lsr #4
 2ec:	000001bc 			; <UNDEFINED> instruction: 0x000001bc
 2f0:	84180e42 	ldrhi	r0, [r8], #-3650	; 0xe42
 2f4:	86058506 	strhi	r8, [r5], -r6, lsl #10
 2f8:	88038704 	stmdahi	r3, {r2, r8, r9, sl, pc}
 2fc:	42018e02 	andmi	r8, r1, #2, 28
 300:	0000600e 	andeq	r6, r0, lr
 304:	00000014 	andeq	r0, r0, r4, lsl r0
 308:	000002a0 	andeq	r0, r0, r0, lsr #5
 30c:	000093e4 	andeq	r9, r0, r4, ror #7
 310:	00000068 	andeq	r0, r0, r8, rrx
 314:	8e040e42 	cdphi	14, 0, cr0, cr4, cr2, {2}
 318:	100e4201 	andne	r4, lr, r1, lsl #4
 31c:	00000028 	andeq	r0, r0, r8, lsr #32
 320:	000002a0 	andeq	r0, r0, r0, lsr #5
 324:	0000944c 	andeq	r9, r0, ip, asr #8
 328:	000002d4 	ldrdeq	r0, [r0], -r4
 32c:	84240e42 	strthi	r0, [r4], #-3650	; 0xe42
 330:	86088509 	strhi	r8, [r8], -r9, lsl #10
 334:	88068707 	stmdahi	r6, {r0, r1, r2, r8, r9, sl, pc}
 338:	8a048905 	bhi	122754 <__bss_end__+0x117d8c>
 33c:	8e028b03 	vmlahi.f64	d8, d2, d3
 340:	b80e4201 	stmdalt	lr, {r0, r9, lr}
 344:	00000001 	andeq	r0, r0, r1
 348:	0000000c 	andeq	r0, r0, ip
 34c:	ffffffff 			; <UNDEFINED> instruction: 0xffffffff
 350:	7c020001 	stcvc	0, cr0, [r2], {1}
 354:	000d0c0e 	andeq	r0, sp, lr, lsl #24
 358:	0000000c 	andeq	r0, r0, ip
 35c:	00000348 	andeq	r0, r0, r8, asr #6
 360:	00009720 	andeq	r9, r0, r0, lsr #14
 364:	00000010 	andeq	r0, r0, r0, lsl r0
 368:	0000000c 	andeq	r0, r0, ip
 36c:	00000348 	andeq	r0, r0, r8, asr #6
 370:	00009730 	andeq	r9, r0, r0, lsr r7
 374:	00000010 	andeq	r0, r0, r0, lsl r0
 378:	0000000c 	andeq	r0, r0, ip
 37c:	ffffffff 			; <UNDEFINED> instruction: 0xffffffff
 380:	7c020001 	stcvc	0, cr0, [r2], {1}
 384:	000d0c0e 	andeq	r0, sp, lr, lsl #24
 388:	00000014 	andeq	r0, r0, r4, lsl r0
 38c:	00000378 	andeq	r0, r0, r8, ror r3
 390:	00009740 	andeq	r9, r0, r0, asr #14
 394:	0000002c 	andeq	r0, r0, ip, lsr #32
 398:	83080e42 	movwhi	r0, #36418	; 0x8e42
 39c:	00018e02 	andeq	r8, r1, r2, lsl #28
 3a0:	0000000c 	andeq	r0, r0, ip
 3a4:	ffffffff 			; <UNDEFINED> instruction: 0xffffffff
 3a8:	7c020001 	stcvc	0, cr0, [r2], {1}
 3ac:	000d0c0e 	andeq	r0, sp, lr, lsl #24
 3b0:	00000014 	andeq	r0, r0, r4, lsl r0
 3b4:	000003a0 	andeq	r0, r0, r0, lsr #7
 3b8:	0000976c 	andeq	r9, r0, ip, ror #14
 3bc:	00000038 	andeq	r0, r0, r8, lsr r0
 3c0:	83080e42 	movwhi	r0, #36418	; 0x8e42
 3c4:	00018e02 	andeq	r8, r1, r2, lsl #28
 3c8:	0000000c 	andeq	r0, r0, ip
 3cc:	ffffffff 			; <UNDEFINED> instruction: 0xffffffff
 3d0:	7c020001 	stcvc	0, cr0, [r2], {1}
 3d4:	000d0c0e 	andeq	r0, sp, lr, lsl #24
 3d8:	00000014 	andeq	r0, r0, r4, lsl r0
 3dc:	000003c8 	andeq	r0, r0, r8, asr #7
 3e0:	000097a4 	andeq	r9, r0, r4, lsr #15
 3e4:	00000044 	andeq	r0, r0, r4, asr #32
 3e8:	8e040e42 	cdphi	14, 0, cr0, cr4, cr2, {2}
 3ec:	100e4201 	andne	r4, lr, r1, lsl #4
 3f0:	0000000c 	andeq	r0, r0, ip
 3f4:	ffffffff 			; <UNDEFINED> instruction: 0xffffffff
 3f8:	7c020001 	stcvc	0, cr0, [r2], {1}
 3fc:	000d0c0e 	andeq	r0, sp, lr, lsl #24
 400:	00000014 	andeq	r0, r0, r4, lsl r0
 404:	000003f0 	strdeq	r0, [r0], -r0	; <UNPREDICTABLE>
 408:	000097e8 	andeq	r9, r0, r8, ror #15
 40c:	00000044 	andeq	r0, r0, r4, asr #32
 410:	8e040e42 	cdphi	14, 0, cr0, cr4, cr2, {2}
 414:	100e4201 	andne	r4, lr, r1, lsl #4
 418:	0000000c 	andeq	r0, r0, ip
 41c:	ffffffff 			; <UNDEFINED> instruction: 0xffffffff
 420:	7c020001 	stcvc	0, cr0, [r2], {1}
 424:	000d0c0e 	andeq	r0, sp, lr, lsl #24
 428:	00000014 	andeq	r0, r0, r4, lsl r0
 42c:	00000418 	andeq	r0, r0, r8, lsl r4
 430:	0000982c 	andeq	r9, r0, ip, lsr #16
 434:	00000044 	andeq	r0, r0, r4, asr #32
 438:	8e040e42 	cdphi	14, 0, cr0, cr4, cr2, {2}
 43c:	100e4201 	andne	r4, lr, r1, lsl #4
 440:	0000000c 	andeq	r0, r0, ip
 444:	ffffffff 			; <UNDEFINED> instruction: 0xffffffff
 448:	7c020001 	stcvc	0, cr0, [r2], {1}
 44c:	000d0c0e 	andeq	r0, sp, lr, lsl #24
 450:	0000000c 	andeq	r0, r0, ip
 454:	00000440 	andeq	r0, r0, r0, asr #8
 458:	00009870 	andeq	r9, r0, r0, ror r8
 45c:	00000004 	andeq	r0, r0, r4
 460:	0000000c 	andeq	r0, r0, ip
 464:	00000440 	andeq	r0, r0, r0, asr #8
 468:	00009874 	andeq	r9, r0, r4, ror r8
 46c:	00000004 	andeq	r0, r0, r4
 470:	0000000c 	andeq	r0, r0, ip
 474:	ffffffff 			; <UNDEFINED> instruction: 0xffffffff
 478:	7c020001 	stcvc	0, cr0, [r2], {1}
 47c:	000d0c0e 	andeq	r0, sp, lr, lsl #24
 480:	00000014 	andeq	r0, r0, r4, lsl r0
 484:	00000470 	andeq	r0, r0, r0, ror r4
 488:	00009878 	andeq	r9, r0, r8, ror r8
 48c:	0000006c 	andeq	r0, r0, ip, rrx
 490:	83080e42 	movwhi	r0, #36418	; 0x8e42
 494:	00018e02 	andeq	r8, r1, r2, lsl #28
 498:	0000000c 	andeq	r0, r0, ip
 49c:	ffffffff 			; <UNDEFINED> instruction: 0xffffffff
 4a0:	7c020001 	stcvc	0, cr0, [r2], {1}
 4a4:	000d0c0e 	andeq	r0, sp, lr, lsl #24
 4a8:	0000000c 	andeq	r0, r0, ip
 4ac:	00000498 	muleq	r0, r8, r4
 4b0:	000098e4 	andeq	r9, r0, r4, ror #17
 4b4:	00000018 	andeq	r0, r0, r8, lsl r0
 4b8:	0000000c 	andeq	r0, r0, ip
 4bc:	00000498 	muleq	r0, r8, r4
 4c0:	000098fc 	strdeq	r9, [r0], -ip
 4c4:	00000014 	andeq	r0, r0, r4, lsl r0
 4c8:	00000014 	andeq	r0, r0, r4, lsl r0
 4cc:	00000498 	muleq	r0, r8, r4
 4d0:	00009910 	andeq	r9, r0, r0, lsl r9
 4d4:	00000048 	andeq	r0, r0, r8, asr #32
 4d8:	83080e42 	movwhi	r0, #36418	; 0x8e42
 4dc:	00018e02 	andeq	r8, r1, r2, lsl #28
 4e0:	0000000c 	andeq	r0, r0, ip
 4e4:	ffffffff 			; <UNDEFINED> instruction: 0xffffffff
 4e8:	7c020001 	stcvc	0, cr0, [r2], {1}
 4ec:	000d0c0e 	andeq	r0, sp, lr, lsl #24
 4f0:	0000000c 	andeq	r0, r0, ip
 4f4:	000004e0 	andeq	r0, r0, r0, ror #9
 4f8:	00009958 	andeq	r9, r0, r8, asr r9
 4fc:	0000001c 	andeq	r0, r0, ip, lsl r0
 500:	00000014 	andeq	r0, r0, r4, lsl r0
 504:	000004e0 	andeq	r0, r0, r0, ror #9
 508:	00009974 	andeq	r9, r0, r4, ror r9
 50c:	00000014 	andeq	r0, r0, r4, lsl r0
 510:	83080e42 	movwhi	r0, #36418	; 0x8e42
 514:	00018e02 	andeq	r8, r1, r2, lsl #28
 518:	00000014 	andeq	r0, r0, r4, lsl r0
 51c:	000004e0 	andeq	r0, r0, r0, ror #9
 520:	00009988 	andeq	r9, r0, r8, lsl #19
 524:	0000001c 	andeq	r0, r0, ip, lsl r0
 528:	84080e42 	strhi	r0, [r8], #-3650	; 0xe42
 52c:	00018e02 	andeq	r8, r1, r2, lsl #28
 530:	00000018 	andeq	r0, r0, r8, lsl r0
 534:	000004e0 	andeq	r0, r0, r0, ror #9
 538:	000099a4 	andeq	r9, r0, r4, lsr #19
 53c:	00000024 	andeq	r0, r0, r4, lsr #32
 540:	83100e42 	tsthi	r0, #1056	; 0x420
 544:	85038404 	strhi	r8, [r3, #-1028]	; 0x404
 548:	00018e02 	andeq	r8, r1, r2, lsl #28
 54c:	00000014 	andeq	r0, r0, r4, lsl r0
 550:	000004e0 	andeq	r0, r0, r0, ror #9
 554:	000099c8 	andeq	r9, r0, r8, asr #19
 558:	00000014 	andeq	r0, r0, r4, lsl r0
 55c:	83080e42 	movwhi	r0, #36418	; 0x8e42
 560:	00018e02 	andeq	r8, r1, r2, lsl #28
 564:	00000014 	andeq	r0, r0, r4, lsl r0
 568:	000004e0 	andeq	r0, r0, r0, ror #9
 56c:	000099dc 	ldrdeq	r9, [r0], -ip
 570:	00000014 	andeq	r0, r0, r4, lsl r0
 574:	83080e42 	movwhi	r0, #36418	; 0x8e42
 578:	00018e02 	andeq	r8, r1, r2, lsl #28
 57c:	0000000c 	andeq	r0, r0, ip
 580:	ffffffff 			; <UNDEFINED> instruction: 0xffffffff
 584:	7c020001 	stcvc	0, cr0, [r2], {1}
 588:	000d0c0e 	andeq	r0, sp, lr, lsl #24
 58c:	00000018 	andeq	r0, r0, r8, lsl r0
 590:	0000057c 	andeq	r0, r0, ip, ror r5
 594:	00009a54 	andeq	r9, r0, r4, asr sl
 598:	00000020 	andeq	r0, r0, r0, lsr #32
 59c:	84100e42 	ldrhi	r0, [r0], #-3650	; 0xe42
 5a0:	86038504 	strhi	r8, [r3], -r4, lsl #10
 5a4:	00018e02 	andeq	r8, r1, r2, lsl #28
 5a8:	00000014 	andeq	r0, r0, r4, lsl r0
 5ac:	0000057c 	andeq	r0, r0, ip, ror r5
 5b0:	00009a74 	andeq	r9, r0, r4, ror sl
 5b4:	000000b0 	strheq	r0, [r0], -r0	; <UNPREDICTABLE>
 5b8:	84080e42 	strhi	r0, [r8], #-3650	; 0xe42
 5bc:	00018e02 	andeq	r8, r1, r2, lsl #28
 5c0:	00000014 	andeq	r0, r0, r4, lsl r0
 5c4:	0000057c 	andeq	r0, r0, ip, ror r5
 5c8:	00009b24 	andeq	r9, r0, r4, lsr #22
 5cc:	00000018 	andeq	r0, r0, r8, lsl r0
 5d0:	84080e42 	strhi	r0, [r8], #-3650	; 0xe42
 5d4:	00018e02 	andeq	r8, r1, r2, lsl #28
 5d8:	00000014 	andeq	r0, r0, r4, lsl r0
 5dc:	0000057c 	andeq	r0, r0, ip, ror r5
 5e0:	00009b3c 	andeq	r9, r0, ip, lsr fp
 5e4:	00000020 	andeq	r0, r0, r0, lsr #32
 5e8:	84080e42 	strhi	r0, [r8], #-3650	; 0xe42
 5ec:	00018e02 	andeq	r8, r1, r2, lsl #28
 5f0:	00000014 	andeq	r0, r0, r4, lsl r0
 5f4:	0000057c 	andeq	r0, r0, ip, ror r5
 5f8:	00009b5c 	andeq	r9, r0, ip, asr fp
 5fc:	00000030 	andeq	r0, r0, r0, lsr r0
 600:	84080e42 	strhi	r0, [r8], #-3650	; 0xe42
 604:	00018e02 	andeq	r8, r1, r2, lsl #28
 608:	00000014 	andeq	r0, r0, r4, lsl r0
 60c:	0000057c 	andeq	r0, r0, ip, ror r5
 610:	00009b8c 	andeq	r9, r0, ip, lsl #23
 614:	00000030 	andeq	r0, r0, r0, lsr r0
 618:	84080e42 	strhi	r0, [r8], #-3650	; 0xe42
 61c:	00018e02 	andeq	r8, r1, r2, lsl #28
 620:	00000014 	andeq	r0, r0, r4, lsl r0
 624:	0000057c 	andeq	r0, r0, ip, ror r5
 628:	00009bbc 			; <UNDEFINED> instruction: 0x00009bbc
 62c:	00000010 	andeq	r0, r0, r0, lsl r0
 630:	84080e42 	strhi	r0, [r8], #-3650	; 0xe42
 634:	00018e02 	andeq	r8, r1, r2, lsl #28
 638:	0000000c 	andeq	r0, r0, ip
 63c:	ffffffff 			; <UNDEFINED> instruction: 0xffffffff
 640:	7c020001 	stcvc	0, cr0, [r2], {1}
 644:	000d0c0e 	andeq	r0, sp, lr, lsl #24
 648:	00000018 	andeq	r0, r0, r8, lsl r0
 64c:	00000638 	andeq	r0, r0, r8, lsr r6
 650:	00009bcc 	andeq	r9, r0, ip, asr #23
 654:	00000068 	andeq	r0, r0, r8, rrx
 658:	84100e4a 	ldrhi	r0, [r0], #-3658	; 0xe4a
 65c:	86038504 	strhi	r8, [r3], -r4, lsl #10
 660:	00018e02 	andeq	r8, r1, r2, lsl #28
 664:	00000014 	andeq	r0, r0, r4, lsl r0
 668:	00000638 	andeq	r0, r0, r8, lsr r6
 66c:	00009c34 	andeq	r9, r0, r4, lsr ip
 670:	00000010 	andeq	r0, r0, r0, lsl r0
 674:	84080e42 	strhi	r0, [r8], #-3650	; 0xe42
 678:	00018e02 	andeq	r8, r1, r2, lsl #28
 67c:	00000014 	andeq	r0, r0, r4, lsl r0
 680:	00000638 	andeq	r0, r0, r8, lsr r6
 684:	00009c44 	andeq	r9, r0, r4, asr #24
 688:	00000024 	andeq	r0, r0, r4, lsr #32
 68c:	84080e46 	strhi	r0, [r8], #-3654	; 0xe46
 690:	00018e02 	andeq	r8, r1, r2, lsl #28
 694:	00000014 	andeq	r0, r0, r4, lsl r0
 698:	00000638 	andeq	r0, r0, r8, lsr r6
 69c:	00009c68 	andeq	r9, r0, r8, ror #24
 6a0:	00000024 	andeq	r0, r0, r4, lsr #32
 6a4:	84080e46 	strhi	r0, [r8], #-3654	; 0xe46
 6a8:	00018e02 	andeq	r8, r1, r2, lsl #28
 6ac:	00000014 	andeq	r0, r0, r4, lsl r0
 6b0:	00000638 	andeq	r0, r0, r8, lsr r6
 6b4:	00009c8c 	andeq	r9, r0, ip, lsl #25
 6b8:	00000010 	andeq	r0, r0, r0, lsl r0
 6bc:	84080e42 	strhi	r0, [r8], #-3650	; 0xe42
 6c0:	00018e02 	andeq	r8, r1, r2, lsl #28
 6c4:	00000014 	andeq	r0, r0, r4, lsl r0
 6c8:	00000638 	andeq	r0, r0, r8, lsr r6
 6cc:	00009c9c 	muleq	r0, ip, ip
 6d0:	0000001c 	andeq	r0, r0, ip, lsl r0
 6d4:	84080e42 	strhi	r0, [r8], #-3650	; 0xe42
 6d8:	00018e02 	andeq	r8, r1, r2, lsl #28
 6dc:	00000018 	andeq	r0, r0, r8, lsl r0
 6e0:	00000638 	andeq	r0, r0, r8, lsr r6
 6e4:	00009cb8 			; <UNDEFINED> instruction: 0x00009cb8
 6e8:	00000034 	andeq	r0, r0, r4, lsr r0
 6ec:	84080e46 	strhi	r0, [r8], #-3654	; 0xe46
 6f0:	4e018e02 	cdpmi	14, 0, cr8, cr1, cr2, {0}
 6f4:	cec4000e 	cdpgt	0, 12, cr0, cr4, cr14, {0}
