
tests/test2.elf:     file format elf32-littlearm


Disassembly of section .text:

00008000 <__code_start__>:
    8000:	e3a0d302 	mov	sp, #134217728	; 0x8000000
    8004:	e3a0b000 	mov	fp, #0
    8008:	eb0002e5 	bl	8ba4 <_cstart>
    800c:	eb00035e 	bl	8d8c <rpi_reboot>

00008010 <test_put32>:
    8010:	e5801000 	str	r1, [r0]
    8014:	e12fff1e 	bx	lr

00008018 <test_get32>:
    8018:	e5900000 	ldr	r0, [r0]
    801c:	e12fff1e 	bx	lr

00008020 <watchpt_handler>:
    8020:	e52de004 	push	{lr}		; (str lr, [sp, #-4]!)
    8024:	e24dd00c 	sub	sp, sp, #12
    8028:	e1a03001 	mov	r3, r1
    802c:	ee151f10 	mrc	15, 0, r1, cr5, cr0, {0}
    8030:	e3110b02 	tst	r1, #2048	; 0x800
    8034:	059f1048 	ldreq	r1, [pc, #72]	; 8084 <watchpt_handler+0x64>
    8038:	159f1048 	ldrne	r1, [pc, #72]	; 8088 <watchpt_handler+0x68>
    803c:	ee100e16 	mrc	14, 0, r0, cr0, cr6, {0}
    8040:	e2400008 	sub	r0, r0, #8
    8044:	e58d0000 	str	r0, [sp]
    8048:	e59f003c 	ldr	r0, [pc, #60]	; 808c <watchpt_handler+0x6c>
    804c:	eb000139 	bl	8538 <printk>
    8050:	ee153f10 	mrc	15, 0, r3, cr5, cr0, {0}
    8054:	e3130b02 	tst	r3, #2048	; 0x800
    8058:	0a000006 	beq	8078 <watchpt_handler+0x58>
    805c:	eb000150 	bl	85a4 <rpi_reset_putc>
    8060:	e59f0028 	ldr	r0, [pc, #40]	; 8090 <watchpt_handler+0x70>
    8064:	e59f1028 	ldr	r1, [pc, #40]	; 8094 <watchpt_handler+0x74>
    8068:	e59f2028 	ldr	r2, [pc, #40]	; 8098 <watchpt_handler+0x78>
    806c:	e3a03014 	mov	r3, #20
    8070:	eb000130 	bl	8538 <printk>
    8074:	eb0002bf 	bl	8b78 <clean_reboot>
    8078:	e59f001c 	ldr	r0, [pc, #28]	; 809c <watchpt_handler+0x7c>
    807c:	eb00012d 	bl	8538 <printk>
    8080:	eb0002bc 	bl	8b78 <clean_reboot>
    8084:	00009170 	andeq	r9, r0, r0, ror r1
    8088:	00009674 	andeq	r9, r0, r4, ror r6
    808c:	00009174 	andeq	r9, r0, r4, ror r1
    8090:	000091b8 			; <UNDEFINED> instruction: 0x000091b8
    8094:	000091d8 	ldrdeq	r9, [r0], -r8
    8098:	00009234 	andeq	r9, r0, r4, lsr r2
    809c:	000091e8 	andeq	r9, r0, r8, ror #3

000080a0 <notmain>:
    80a0:	e92d4008 	push	{r3, lr}
    80a4:	eb000099 	bl	8310 <cp14_enable>
    80a8:	e3a00000 	mov	r0, #0
    80ac:	e59f1038 	ldr	r1, [pc, #56]	; 80ec <notmain+0x4c>
    80b0:	eb000013 	bl	8104 <watchpt_set0>
    80b4:	e59f0034 	ldr	r0, [pc, #52]	; 80f0 <notmain+0x50>
    80b8:	e3a01000 	mov	r1, #0
    80bc:	eb00011d 	bl	8538 <printk>
    80c0:	e59f002c 	ldr	r0, [pc, #44]	; 80f4 <notmain+0x54>
    80c4:	eb00011b 	bl	8538 <printk>
    80c8:	e3a00000 	mov	r0, #0
    80cc:	ebffffd1 	bl	8018 <test_get32>
    80d0:	eb000133 	bl	85a4 <rpi_reset_putc>
    80d4:	e59f001c 	ldr	r0, [pc, #28]	; 80f8 <notmain+0x58>
    80d8:	e59f101c 	ldr	r1, [pc, #28]	; 80fc <notmain+0x5c>
    80dc:	e59f201c 	ldr	r2, [pc, #28]	; 8100 <notmain+0x60>
    80e0:	e3a03022 	mov	r3, #34	; 0x22
    80e4:	eb000113 	bl	8538 <printk>
    80e8:	eb0002a2 	bl	8b78 <clean_reboot>
    80ec:	00008020 	andeq	r8, r0, r0, lsr #32
    80f0:	000091f4 	strdeq	r9, [r0], -r4
    80f4:	00009210 	andeq	r9, r0, r0, lsl r2
    80f8:	000091b8 			; <UNDEFINED> instruction: 0x000091b8
    80fc:	000091d8 	ldrdeq	r9, [r0], -r8
    8100:	0000922c 	andeq	r9, r0, ip, lsr #4

00008104 <watchpt_set0>:
    8104:	e52de004 	push	{lr}		; (str lr, [sp, #-4]!)
    8108:	e24dd00c 	sub	sp, sp, #12
    810c:	ee103ef0 	mrc	14, 0, r3, cr0, cr0, {7}
    8110:	e3c33001 	bic	r3, r3, #1
    8114:	ee003ef0 	mcr	14, 0, r3, cr0, cr0, {7}
    8118:	ee102ef0 	mrc	14, 0, r2, cr0, cr0, {7}
    811c:	e1530002 	cmp	r3, r2
    8120:	0a000008 	beq	8148 <watchpt_set0+0x44>
    8124:	eb00011e 	bl	85a4 <rpi_reset_putc>
    8128:	e59f306c 	ldr	r3, [pc, #108]	; 819c <watchpt_set0+0x98>
    812c:	e58d3000 	str	r3, [sp]
    8130:	e59f0068 	ldr	r0, [pc, #104]	; 81a0 <watchpt_set0+0x9c>
    8134:	e59f1068 	ldr	r1, [pc, #104]	; 81a4 <watchpt_set0+0xa0>
    8138:	e59f2068 	ldr	r2, [pc, #104]	; 81a8 <watchpt_set0+0xa4>
    813c:	e3a03041 	mov	r3, #65	; 0x41
    8140:	eb0000fc 	bl	8538 <printk>
    8144:	eb00028b 	bl	8b78 <clean_reboot>
    8148:	ee000ed0 	mcr	14, 0, r0, cr0, cr0, {6}
    814c:	e59f3058 	ldr	r3, [pc, #88]	; 81ac <watchpt_set0+0xa8>
    8150:	ee003ef0 	mcr	14, 0, r3, cr0, cr0, {7}
    8154:	ee102ef0 	mrc	14, 0, r2, cr0, cr0, {7}
    8158:	e1520003 	cmp	r2, r3
    815c:	0a000008 	beq	8184 <watchpt_set0+0x80>
    8160:	eb00010f 	bl	85a4 <rpi_reset_putc>
    8164:	e59f3030 	ldr	r3, [pc, #48]	; 819c <watchpt_set0+0x98>
    8168:	e58d3000 	str	r3, [sp]
    816c:	e59f002c 	ldr	r0, [pc, #44]	; 81a0 <watchpt_set0+0x9c>
    8170:	e59f102c 	ldr	r1, [pc, #44]	; 81a4 <watchpt_set0+0xa0>
    8174:	e59f202c 	ldr	r2, [pc, #44]	; 81a8 <watchpt_set0+0xa4>
    8178:	e3a03052 	mov	r3, #82	; 0x52
    817c:	eb0000ed 	bl	8538 <printk>
    8180:	eb00027c 	bl	8b78 <clean_reboot>
    8184:	e3a03000 	mov	r3, #0
    8188:	ee073f95 	mcr	15, 0, r3, cr7, cr5, {4}
    818c:	e59f301c 	ldr	r3, [pc, #28]	; 81b0 <watchpt_set0+0xac>
    8190:	e5831000 	str	r1, [r3]
    8194:	e28dd00c 	add	sp, sp, #12
    8198:	e49df004 	pop	{pc}		; (ldr pc, [sp], #4)
    819c:	00009268 	andeq	r9, r0, r8, ror #4
    81a0:	00009244 	andeq	r9, r0, r4, asr #4
    81a4:	00009258 	andeq	r9, r0, r8, asr r2
    81a8:	000093d8 	ldrdeq	r9, [r0], -r8
    81ac:	000001ff 	strdeq	r0, [r0], -pc	; <UNPREDICTABLE>
    81b0:	00009678 	andeq	r9, r0, r8, ror r6

000081b4 <data_abort_vector>:
    81b4:	e92d4030 	push	{r4, r5, lr}
    81b8:	e24dd00c 	sub	sp, sp, #12
    81bc:	e1a04000 	mov	r4, r0
    81c0:	e59f310c 	ldr	r3, [pc, #268]	; 82d4 <data_abort_vector+0x120>
    81c4:	e5931000 	ldr	r1, [r3]
    81c8:	e2812001 	add	r2, r1, #1
    81cc:	e5832000 	str	r2, [r3]
    81d0:	e59f0100 	ldr	r0, [pc, #256]	; 82d8 <data_abort_vector+0x124>
    81d4:	e1a02004 	mov	r2, r4
    81d8:	eb0000d6 	bl	8538 <printk>
    81dc:	ee153f10 	mrc	15, 0, r3, cr5, cr0, {0}
    81e0:	e3130b02 	tst	r3, #2048	; 0x800
    81e4:	1a000002 	bne	81f4 <data_abort_vector+0x40>
    81e8:	e59f00ec 	ldr	r0, [pc, #236]	; 82dc <data_abort_vector+0x128>
    81ec:	eb0000d1 	bl	8538 <printk>
    81f0:	ea000001 	b	81fc <data_abort_vector+0x48>
    81f4:	e59f00e4 	ldr	r0, [pc, #228]	; 82e0 <data_abort_vector+0x12c>
    81f8:	eb0000ce 	bl	8538 <printk>
    81fc:	ee153f10 	mrc	15, 0, r3, cr5, cr0, {0}
    8200:	e203300f 	and	r3, r3, #15
    8204:	e3530002 	cmp	r3, #2
    8208:	0a000006 	beq	8228 <data_abort_vector+0x74>
    820c:	eb0000e4 	bl	85a4 <rpi_reset_putc>
    8210:	e59f00cc 	ldr	r0, [pc, #204]	; 82e4 <data_abort_vector+0x130>
    8214:	e59f10cc 	ldr	r1, [pc, #204]	; 82e8 <data_abort_vector+0x134>
    8218:	e59f20cc 	ldr	r2, [pc, #204]	; 82ec <data_abort_vector+0x138>
    821c:	e3a03079 	mov	r3, #121	; 0x79
    8220:	eb0000c4 	bl	8538 <printk>
    8224:	eb000253 	bl	8b78 <clean_reboot>
    8228:	ee101e16 	mrc	14, 0, r1, cr0, cr6, {0}
    822c:	e59f00bc 	ldr	r0, [pc, #188]	; 82f0 <data_abort_vector+0x13c>
    8230:	e2411008 	sub	r1, r1, #8
    8234:	e1a02004 	mov	r2, r4
    8238:	eb0000be 	bl	8538 <printk>
    823c:	ee103e16 	mrc	14, 0, r3, cr0, cr6, {0}
    8240:	e2433004 	sub	r3, r3, #4
    8244:	e1530004 	cmp	r3, r4
    8248:	0a000008 	beq	8270 <data_abort_vector+0xbc>
    824c:	eb0000d4 	bl	85a4 <rpi_reset_putc>
    8250:	e59f309c 	ldr	r3, [pc, #156]	; 82f4 <data_abort_vector+0x140>
    8254:	e58d3000 	str	r3, [sp]
    8258:	e59f0098 	ldr	r0, [pc, #152]	; 82f8 <data_abort_vector+0x144>
    825c:	e59f1098 	ldr	r1, [pc, #152]	; 82fc <data_abort_vector+0x148>
    8260:	e59f2098 	ldr	r2, [pc, #152]	; 8300 <data_abort_vector+0x14c>
    8264:	e3a03065 	mov	r3, #101	; 0x65
    8268:	eb0000b2 	bl	8538 <printk>
    826c:	eb000241 	bl	8b78 <clean_reboot>
    8270:	e59f308c 	ldr	r3, [pc, #140]	; 8304 <data_abort_vector+0x150>
    8274:	e5933000 	ldr	r3, [r3]
    8278:	e3530000 	cmp	r3, #0
    827c:	1a000008 	bne	82a4 <data_abort_vector+0xf0>
    8280:	eb0000c7 	bl	85a4 <rpi_reset_putc>
    8284:	e59f307c 	ldr	r3, [pc, #124]	; 8308 <data_abort_vector+0x154>
    8288:	e58d3000 	str	r3, [sp]
    828c:	e59f0064 	ldr	r0, [pc, #100]	; 82f8 <data_abort_vector+0x144>
    8290:	e59f1064 	ldr	r1, [pc, #100]	; 82fc <data_abort_vector+0x148>
    8294:	e59f2064 	ldr	r2, [pc, #100]	; 8300 <data_abort_vector+0x14c>
    8298:	e3a03067 	mov	r3, #103	; 0x67
    829c:	eb0000a5 	bl	8538 <printk>
    82a0:	eb000234 	bl	8b78 <clean_reboot>
    82a4:	ee165f10 	mrc	15, 0, r5, cr6, cr0, {0}
    82a8:	e59f005c 	ldr	r0, [pc, #92]	; 830c <data_abort_vector+0x158>
    82ac:	e1a01005 	mov	r1, r5
    82b0:	eb0000a0 	bl	8538 <printk>
    82b4:	e59f3048 	ldr	r3, [pc, #72]	; 8304 <data_abort_vector+0x150>
    82b8:	e5933000 	ldr	r3, [r3]
    82bc:	e3a00000 	mov	r0, #0
    82c0:	e1a01004 	mov	r1, r4
    82c4:	e1a02005 	mov	r2, r5
    82c8:	e12fff33 	blx	r3
    82cc:	e28dd00c 	add	sp, sp, #12
    82d0:	e8bd8030 	pop	{r4, r5, pc}
    82d4:	00009680 	andeq	r9, r0, r0, lsl #13
    82d8:	00009280 	andeq	r9, r0, r0, lsl #5
    82dc:	000092a0 	andeq	r9, r0, r0, lsr #5
    82e0:	000092b4 			; <UNDEFINED> instruction: 0x000092b4
    82e4:	000092c8 	andeq	r9, r0, r8, asr #5
    82e8:	00009300 	andeq	r9, r0, r0, lsl #6
    82ec:	000093fc 	strdeq	r9, [r0], -ip
    82f0:	00009310 	andeq	r9, r0, r0, lsl r3
    82f4:	0000932c 	andeq	r9, r0, ip, lsr #6
    82f8:	00009244 	andeq	r9, r0, r4, asr #4
    82fc:	00009258 	andeq	r9, r0, r8, asr r2
    8300:	000093e8 	andeq	r9, r0, r8, ror #7
    8304:	00009678 	andeq	r9, r0, r8, ror r6
    8308:	00009340 	andeq	r9, r0, r0, asr #6
    830c:	00009354 	andeq	r9, r0, r4, asr r3

00008310 <cp14_enable>:
    8310:	e92d4008 	push	{r3, lr}
    8314:	e59f302c 	ldr	r3, [pc, #44]	; 8348 <cp14_enable+0x38>
    8318:	e5933000 	ldr	r3, [r3]
    831c:	e3530000 	cmp	r3, #0
    8320:	1a000003 	bne	8334 <cp14_enable+0x24>
    8324:	eb000272 	bl	8cf4 <int_init>
    8328:	e3a02001 	mov	r2, #1
    832c:	e59f3014 	ldr	r3, [pc, #20]	; 8348 <cp14_enable+0x38>
    8330:	e5832000 	str	r2, [r3]
    8334:	e3a03902 	mov	r3, #32768	; 0x8000
    8338:	ee003e11 	mcr	14, 0, r3, cr0, cr1, {0}
    833c:	e3a03000 	mov	r3, #0
    8340:	ee073f95 	mcr	15, 0, r3, cr7, cr5, {4}
    8344:	e8bd8008 	pop	{r3, pc}
    8348:	00009684 	andeq	r9, r0, r4, lsl #13

0000834c <brkpt_set0>:
    834c:	ee103eb0 	mrc	14, 0, r3, cr0, cr0, {5}
    8350:	e3c33001 	bic	r3, r3, #1
    8354:	ee003eb0 	mcr	14, 0, r3, cr0, cr0, {5}
    8358:	ee000e90 	mcr	14, 0, r0, cr0, cr0, {4}
    835c:	e59f3014 	ldr	r3, [pc, #20]	; 8378 <brkpt_set0+0x2c>
    8360:	ee003eb0 	mcr	14, 0, r3, cr0, cr0, {5}
    8364:	e3a03000 	mov	r3, #0
    8368:	ee073f95 	mcr	15, 0, r3, cr7, cr5, {4}
    836c:	e59f3008 	ldr	r3, [pc, #8]	; 837c <brkpt_set0+0x30>
    8370:	e5831000 	str	r1, [r3]
    8374:	e12fff1e 	bx	lr
    8378:	000001e7 	andeq	r0, r0, r7, ror #3
    837c:	0000967c 	andeq	r9, r0, ip, ror r6

00008380 <prefetch_abort_vector>:
    8380:	e92d4010 	push	{r4, lr}
    8384:	e24dd008 	sub	sp, sp, #8
    8388:	e1a04000 	mov	r4, r0
    838c:	e59f0090 	ldr	r0, [pc, #144]	; 8424 <prefetch_abort_vector+0xa4>
    8390:	e1a01004 	mov	r1, r4
    8394:	eb000067 	bl	8538 <printk>
    8398:	ee153f30 	mrc	15, 0, r3, cr5, cr0, {1}
    839c:	e203300f 	and	r3, r3, #15
    83a0:	e3530002 	cmp	r3, #2
    83a4:	0a000006 	beq	83c4 <prefetch_abort_vector+0x44>
    83a8:	eb00007d 	bl	85a4 <rpi_reset_putc>
    83ac:	e59f0074 	ldr	r0, [pc, #116]	; 8428 <prefetch_abort_vector+0xa8>
    83b0:	e59f1074 	ldr	r1, [pc, #116]	; 842c <prefetch_abort_vector+0xac>
    83b4:	e59f2074 	ldr	r2, [pc, #116]	; 8430 <prefetch_abort_vector+0xb0>
    83b8:	e3a030c5 	mov	r3, #197	; 0xc5
    83bc:	eb00005d 	bl	8538 <printk>
    83c0:	eb0001ec 	bl	8b78 <clean_reboot>
    83c4:	e59f3068 	ldr	r3, [pc, #104]	; 8434 <prefetch_abort_vector+0xb4>
    83c8:	e5933000 	ldr	r3, [r3]
    83cc:	e3530000 	cmp	r3, #0
    83d0:	1a000008 	bne	83f8 <prefetch_abort_vector+0x78>
    83d4:	eb000072 	bl	85a4 <rpi_reset_putc>
    83d8:	e59f3058 	ldr	r3, [pc, #88]	; 8438 <prefetch_abort_vector+0xb8>
    83dc:	e58d3000 	str	r3, [sp]
    83e0:	e59f0054 	ldr	r0, [pc, #84]	; 843c <prefetch_abort_vector+0xbc>
    83e4:	e59f1040 	ldr	r1, [pc, #64]	; 842c <prefetch_abort_vector+0xac>
    83e8:	e59f2040 	ldr	r2, [pc, #64]	; 8430 <prefetch_abort_vector+0xb0>
    83ec:	e3a030c6 	mov	r3, #198	; 0xc6
    83f0:	eb000050 	bl	8538 <printk>
    83f4:	eb0001df 	bl	8b78 <clean_reboot>
    83f8:	e59f0040 	ldr	r0, [pc, #64]	; 8440 <prefetch_abort_vector+0xc0>
    83fc:	e1a01004 	mov	r1, r4
    8400:	eb00004c 	bl	8538 <printk>
    8404:	ee162f10 	mrc	15, 0, r2, cr6, cr0, {0}
    8408:	e59f3024 	ldr	r3, [pc, #36]	; 8434 <prefetch_abort_vector+0xb4>
    840c:	e5933000 	ldr	r3, [r3]
    8410:	e3a00000 	mov	r0, #0
    8414:	e1a01004 	mov	r1, r4
    8418:	e12fff33 	blx	r3
    841c:	e28dd008 	add	sp, sp, #8
    8420:	e8bd8010 	pop	{r4, pc}
    8424:	00009368 	andeq	r9, r0, r8, ror #6
    8428:	00009380 	andeq	r9, r0, r0, lsl #7
    842c:	00009258 	andeq	r9, r0, r8, asr r2
    8430:	00009410 	andeq	r9, r0, r0, lsl r4
    8434:	0000967c 	andeq	r9, r0, ip, ror r6
    8438:	000093b8 			; <UNDEFINED> instruction: 0x000093b8
    843c:	00009244 	andeq	r9, r0, r4, asr #4
    8440:	000093c8 	andeq	r9, r0, r8, asr #7

00008444 <interrupt_vector>:
    8444:	e12fff1e 	bx	lr

00008448 <_interrupt_table>:
    8448:	e59ff020 	ldr	pc, [pc, #32]	; 8470 <_reset_asm>
    844c:	e59ff020 	ldr	pc, [pc, #32]	; 8474 <_undefined_instruction_asm>
    8450:	e59ff020 	ldr	pc, [pc, #32]	; 8478 <_software_interrupt_asm>
    8454:	e59ff020 	ldr	pc, [pc, #32]	; 847c <_prefetch_abort_asm>
    8458:	e59ff020 	ldr	pc, [pc, #32]	; 8480 <_data_abort_asm>
    845c:	e59ff00c 	ldr	pc, [pc, #12]	; 8470 <_reset_asm>
    8460:	e59ff01c 	ldr	pc, [pc, #28]	; 8484 <_interrupt_asm>

00008464 <fast_interrupt_asm>:
    8464:	e3a0d409 	mov	sp, #150994944	; 0x9000000
    8468:	e24ee004 	sub	lr, lr, #4
    846c:	eb0001da 	bl	8bdc <fast_interrupt_vector>

00008470 <_reset_asm>:
    8470:	000084a4 	andeq	r8, r0, r4, lsr #9

00008474 <_undefined_instruction_asm>:
    8474:	000084c4 	andeq	r8, r0, r4, asr #9

00008478 <_software_interrupt_asm>:
    8478:	000084e4 	andeq	r8, r0, r4, ror #9

0000847c <_prefetch_abort_asm>:
    847c:	000084f0 	strdeq	r8, [r0], -r0

00008480 <_data_abort_asm>:
    8480:	00008514 	andeq	r8, r0, r4, lsl r5

00008484 <_interrupt_asm>:
    8484:	00008488 	andeq	r8, r0, r8, lsl #9

00008488 <_interrupt_table_end>:
    8488:	e3a0d409 	mov	sp, #150994944	; 0x9000000
    848c:	e24ee004 	sub	lr, lr, #4
    8490:	e92d5fff 	push	{r0, r1, r2, r3, r4, r5, r6, r7, r8, r9, sl, fp, ip, lr}
    8494:	e1a0000e 	mov	r0, lr
    8498:	ebffffe9 	bl	8444 <interrupt_vector>
    849c:	e8bd5fff 	pop	{r0, r1, r2, r3, r4, r5, r6, r7, r8, r9, sl, fp, ip, lr}
    84a0:	e1b0f00e 	movs	pc, lr

000084a4 <reset_asm>:
    84a4:	e3a0d409 	mov	sp, #150994944	; 0x9000000
    84a8:	e24ee004 	sub	lr, lr, #4
    84ac:	e3a0d409 	mov	sp, #150994944	; 0x9000000
    84b0:	e92d5fff 	push	{r0, r1, r2, r3, r4, r5, r6, r7, r8, r9, sl, fp, ip, lr}
    84b4:	e1a0000e 	mov	r0, lr
    84b8:	eb0001d8 	bl	8c20 <reset_vector>
    84bc:	e8bd5fff 	pop	{r0, r1, r2, r3, r4, r5, r6, r7, r8, r9, sl, fp, ip, lr}
    84c0:	e1b0f00e 	movs	pc, lr

000084c4 <undefined_instruction_asm>:
    84c4:	e3a0d409 	mov	sp, #150994944	; 0x9000000
    84c8:	e24ee004 	sub	lr, lr, #4
    84cc:	e3a0d409 	mov	sp, #150994944	; 0x9000000
    84d0:	e92d5fff 	push	{r0, r1, r2, r3, r4, r5, r6, r7, r8, r9, sl, fp, ip, lr}
    84d4:	e1a0000e 	mov	r0, lr
    84d8:	eb0001f2 	bl	8ca8 <undefined_instruction_vector>
    84dc:	e8bd5fff 	pop	{r0, r1, r2, r3, r4, r5, r6, r7, r8, r9, sl, fp, ip, lr}
    84e0:	e1b0f00e 	movs	pc, lr

000084e4 <software_interrupt_asm>:
    84e4:	e3a0d409 	mov	sp, #150994944	; 0x9000000
    84e8:	e24ee004 	sub	lr, lr, #4
    84ec:	eb0001dc 	bl	8c64 <software_interrupt_vector>

000084f0 <prefetch_abort_asm>:
    84f0:	e3a0d409 	mov	sp, #150994944	; 0x9000000
    84f4:	e1a0000e 	mov	r0, lr
    84f8:	e24ee004 	sub	lr, lr, #4
    84fc:	e3a0d409 	mov	sp, #150994944	; 0x9000000
    8500:	e92d5fff 	push	{r0, r1, r2, r3, r4, r5, r6, r7, r8, r9, sl, fp, ip, lr}
    8504:	e1a0000e 	mov	r0, lr
    8508:	ebffff9c 	bl	8380 <prefetch_abort_vector>
    850c:	e8bd5fff 	pop	{r0, r1, r2, r3, r4, r5, r6, r7, r8, r9, sl, fp, ip, lr}
    8510:	e1b0f00e 	movs	pc, lr

00008514 <data_abort_asm>:
    8514:	e3a0d409 	mov	sp, #150994944	; 0x9000000
    8518:	e1a0000e 	mov	r0, lr
    851c:	e24ee008 	sub	lr, lr, #8
    8520:	e3a0d409 	mov	sp, #150994944	; 0x9000000
    8524:	e92d5fff 	push	{r0, r1, r2, r3, r4, r5, r6, r7, r8, r9, sl, fp, ip, lr}
    8528:	e1a0000e 	mov	r0, lr
    852c:	ebffff20 	bl	81b4 <data_abort_vector>
    8530:	e8bd5fff 	pop	{r0, r1, r2, r3, r4, r5, r6, r7, r8, r9, sl, fp, ip, lr}
    8534:	e1b0f00e 	movs	pc, lr

00008538 <printk>:
    8538:	e92d000f 	push	{r0, r1, r2, r3}
    853c:	e92d4030 	push	{r4, r5, lr}
    8540:	e24dd00c 	sub	sp, sp, #12
    8544:	e28d301c 	add	r3, sp, #28
    8548:	e58d3004 	str	r3, [sp, #4]
    854c:	e59f4034 	ldr	r4, [pc, #52]	; 8588 <printk+0x50>
    8550:	e1a00004 	mov	r0, r4
    8554:	e3a01b01 	mov	r1, #1024	; 0x400
    8558:	e59d2018 	ldr	r2, [sp, #24]
    855c:	eb0000d0 	bl	88a4 <va_printk>
    8560:	e1a05000 	mov	r5, r0
    8564:	e59f3020 	ldr	r3, [pc, #32]	; 858c <printk+0x54>
    8568:	e5933000 	ldr	r3, [r3]
    856c:	e1a00004 	mov	r0, r4
    8570:	e12fff33 	blx	r3
    8574:	e1a00005 	mov	r0, r5
    8578:	e28dd00c 	add	sp, sp, #12
    857c:	e8bd4030 	pop	{r4, r5, lr}
    8580:	e28dd010 	add	sp, sp, #16
    8584:	e12fff1e 	bx	lr
    8588:	00009688 	andeq	r9, r0, r8, lsl #13
    858c:	0000916c 	andeq	r9, r0, ip, ror #2

00008590 <internal_putchar>:
    8590:	e92d4010 	push	{r4, lr}
    8594:	e1a04000 	mov	r4, r0
    8598:	eb00029a 	bl	9008 <uart_putc>
    859c:	e1a00004 	mov	r0, r4
    85a0:	e8bd8010 	pop	{r4, pc}

000085a4 <rpi_reset_putc>:
    85a4:	e59f2008 	ldr	r2, [pc, #8]	; 85b4 <rpi_reset_putc+0x10>
    85a8:	e59f3008 	ldr	r3, [pc, #8]	; 85b8 <rpi_reset_putc+0x14>
    85ac:	e5832000 	str	r2, [r3]
    85b0:	e12fff1e 	bx	lr
    85b4:	00008590 	muleq	r0, r0, r5
    85b8:	00009168 	andeq	r9, r0, r8, ror #2

000085bc <rpi_set_putc>:
    85bc:	e59f3004 	ldr	r3, [pc, #4]	; 85c8 <rpi_set_putc+0xc>
    85c0:	e5830000 	str	r0, [r3]
    85c4:	e12fff1e 	bx	lr
    85c8:	00009168 	andeq	r9, r0, r8, ror #2

000085cc <internal_putk>:
    85cc:	e92d4038 	push	{r3, r4, r5, lr}
    85d0:	e1a04000 	mov	r4, r0
    85d4:	e59f5020 	ldr	r5, [pc, #32]	; 85fc <internal_putk+0x30>
    85d8:	ea000002 	b	85e8 <internal_putk+0x1c>
    85dc:	e5953000 	ldr	r3, [r5]
    85e0:	e12fff33 	blx	r3
    85e4:	e2844001 	add	r4, r4, #1
    85e8:	e5d40000 	ldrb	r0, [r4]
    85ec:	e3500000 	cmp	r0, #0
    85f0:	1afffff9 	bne	85dc <internal_putk+0x10>
    85f4:	e3a00001 	mov	r0, #1
    85f8:	e8bd8038 	pop	{r3, r4, r5, pc}
    85fc:	00009168 	andeq	r9, r0, r8, ror #2

00008600 <isdigit>:
    8600:	e2400030 	sub	r0, r0, #48	; 0x30
    8604:	e3500009 	cmp	r0, #9
    8608:	83a00000 	movhi	r0, #0
    860c:	93a00001 	movls	r0, #1
    8610:	e12fff1e 	bx	lr

00008614 <pad>:
    8614:	e0611000 	rsb	r1, r1, r0
    8618:	e3a03020 	mov	r3, #32
    861c:	ea000002 	b	862c <pad+0x18>
    8620:	e5c03000 	strb	r3, [r0]
    8624:	e2811001 	add	r1, r1, #1
    8628:	e2800001 	add	r0, r0, #1
    862c:	e1510002 	cmp	r1, r2
    8630:	bafffffa 	blt	8620 <pad+0xc>
    8634:	e3a03000 	mov	r3, #0
    8638:	e5c03000 	strb	r3, [r0]
    863c:	e12fff1e 	bx	lr

00008640 <reverse>:
    8640:	e063c002 	rsb	ip, r3, r2
    8644:	e28cc001 	add	ip, ip, #1
    8648:	e15c0001 	cmp	ip, r1
    864c:	c061100c 	rsbgt	r1, r1, ip
    8650:	c0833001 	addgt	r3, r3, r1
    8654:	e2422001 	sub	r2, r2, #1
    8658:	e1a01000 	mov	r1, r0
    865c:	ea000002 	b	866c <reverse+0x2c>
    8660:	e452c001 	ldrb	ip, [r2], #-1
    8664:	e5c1c000 	strb	ip, [r1]
    8668:	e2811001 	add	r1, r1, #1
    866c:	e1520003 	cmp	r2, r3
    8670:	2afffffa 	bcs	8660 <reverse+0x20>
    8674:	e3a03000 	mov	r3, #0
    8678:	e5c13000 	strb	r3, [r1]
    867c:	e12fff1e 	bx	lr

00008680 <emit>:
    8680:	e92d41f0 	push	{r4, r5, r6, r7, r8, lr}
    8684:	e24dd048 	sub	sp, sp, #72	; 0x48
    8688:	e1a05001 	mov	r5, r1
    868c:	e1a04002 	mov	r4, r2
    8690:	e59d2060 	ldr	r2, [sp, #96]	; 0x60
    8694:	e1520004 	cmp	r2, r4
    8698:	c2442001 	subgt	r2, r4, #1
    869c:	e1a0c003 	mov	ip, r3
    86a0:	e2400002 	sub	r0, r0, #2
    86a4:	e350000e 	cmp	r0, #14
    86a8:	979ff100 	ldrls	pc, [pc, r0, lsl #2]
    86ac:	ea000048 	b	87d4 <emit+0x154>
    86b0:	000087ac 	andeq	r8, r0, ip, lsr #15
    86b4:	000087d4 	ldrdeq	r8, [r0], -r4
    86b8:	000087d4 	ldrdeq	r8, [r0], -r4
    86bc:	000087d4 	ldrdeq	r8, [r0], -r4
    86c0:	000087d4 	ldrdeq	r8, [r0], -r4
    86c4:	000087d4 	ldrdeq	r8, [r0], -r4
    86c8:	000087a0 	andeq	r8, r0, r0, lsr #15
    86cc:	000087d4 	ldrdeq	r8, [r0], -r4
    86d0:	000086ec 	andeq	r8, r0, ip, ror #13
    86d4:	000087d4 	ldrdeq	r8, [r0], -r4
    86d8:	000087d4 	ldrdeq	r8, [r0], -r4
    86dc:	000087d4 	ldrdeq	r8, [r0], -r4
    86e0:	000087d4 	ldrdeq	r8, [r0], -r4
    86e4:	000087d4 	ldrdeq	r8, [r0], -r4
    86e8:	00008760 	andeq	r8, r0, r0, ror #14
    86ec:	e59d1064 	ldr	r1, [sp, #100]	; 0x64
    86f0:	e2911000 	adds	r1, r1, #0
    86f4:	13a01001 	movne	r1, #1
    86f8:	e0111fa3 	ands	r1, r1, r3, lsr #31
    86fc:	1263c000 	rsbne	ip, r3, #0
    8700:	13a08001 	movne	r8, #1
    8704:	03a08000 	moveq	r8, #0
    8708:	e28d1008 	add	r1, sp, #8
    870c:	e59f7108 	ldr	r7, [pc, #264]	; 881c <emit+0x19c>
    8710:	e59f6108 	ldr	r6, [pc, #264]	; 8820 <emit+0x1a0>
    8714:	ea000000 	b	871c <emit+0x9c>
    8718:	e1a01000 	mov	r1, r0
    871c:	e2810001 	add	r0, r1, #1
    8720:	e083ec97 	umull	lr, r3, r7, ip
    8724:	e1a031a3 	lsr	r3, r3, #3
    8728:	e1a0e003 	mov	lr, r3
    872c:	e0833103 	add	r3, r3, r3, lsl #2
    8730:	e1a03083 	lsl	r3, r3, #1
    8734:	e063300c 	rsb	r3, r3, ip
    8738:	e7d63003 	ldrb	r3, [r6, r3]
    873c:	e5c13000 	strb	r3, [r1]
    8740:	e1a0c00e 	mov	ip, lr
    8744:	e35e0000 	cmp	lr, #0
    8748:	1afffff2 	bne	8718 <emit+0x98>
    874c:	e3580000 	cmp	r8, #0
    8750:	12810002 	addne	r0, r1, #2
    8754:	13a0302d 	movne	r3, #45	; 0x2d
    8758:	15c13001 	strbne	r3, [r1, #1]
    875c:	ea000025 	b	87f8 <emit+0x178>
    8760:	e28d3008 	add	r3, sp, #8
    8764:	e59fe0b8 	ldr	lr, [pc, #184]	; 8824 <emit+0x1a4>
    8768:	ea000000 	b	8770 <emit+0xf0>
    876c:	e1a03000 	mov	r3, r0
    8770:	e2830001 	add	r0, r3, #1
    8774:	e20c100f 	and	r1, ip, #15
    8778:	e7de1001 	ldrb	r1, [lr, r1]
    877c:	e5c31000 	strb	r1, [r3]
    8780:	e1b0c22c 	lsrs	ip, ip, #4
    8784:	1afffff8 	bne	876c <emit+0xec>
    8788:	e3a01078 	mov	r1, #120	; 0x78
    878c:	e5c31001 	strb	r1, [r3, #1]
    8790:	e2830003 	add	r0, r3, #3
    8794:	e3a01030 	mov	r1, #48	; 0x30
    8798:	e5c31002 	strb	r1, [r3, #2]
    879c:	ea000015 	b	87f8 <emit+0x178>
    87a0:	e5cd3008 	strb	r3, [sp, #8]
    87a4:	e28d0009 	add	r0, sp, #9
    87a8:	ea000012 	b	87f8 <emit+0x178>
    87ac:	e28d3008 	add	r3, sp, #8
    87b0:	e59fe070 	ldr	lr, [pc, #112]	; 8828 <emit+0x1a8>
    87b4:	e2830001 	add	r0, r3, #1
    87b8:	e20c1001 	and	r1, ip, #1
    87bc:	e7de1001 	ldrb	r1, [lr, r1]
    87c0:	e5c31000 	strb	r1, [r3]
    87c4:	e1a03000 	mov	r3, r0
    87c8:	e1b0c0ac 	lsrs	ip, ip, #1
    87cc:	1afffff8 	bne	87b4 <emit+0x134>
    87d0:	ea000008 	b	87f8 <emit+0x178>
    87d4:	ebffff72 	bl	85a4 <rpi_reset_putc>
    87d8:	e59f304c 	ldr	r3, [pc, #76]	; 882c <emit+0x1ac>
    87dc:	e58d3000 	str	r3, [sp]
    87e0:	e59f0048 	ldr	r0, [pc, #72]	; 8830 <emit+0x1b0>
    87e4:	e59f1048 	ldr	r1, [pc, #72]	; 8834 <emit+0x1b4>
    87e8:	e59f2048 	ldr	r2, [pc, #72]	; 8838 <emit+0x1b8>
    87ec:	e3a03077 	mov	r3, #119	; 0x77
    87f0:	ebffff50 	bl	8538 <printk>
    87f4:	eb0000df 	bl	8b78 <clean_reboot>
    87f8:	e28d1008 	add	r1, sp, #8
    87fc:	ebffff84 	bl	8614 <pad>
    8800:	e1a02000 	mov	r2, r0
    8804:	e1a00005 	mov	r0, r5
    8808:	e1a01004 	mov	r1, r4
    880c:	e28d3008 	add	r3, sp, #8
    8810:	ebffff8a 	bl	8640 <reverse>
    8814:	e28dd048 	add	sp, sp, #72	; 0x48
    8818:	e8bd81f0 	pop	{r4, r5, r6, r7, r8, pc}
    881c:	cccccccd 	stclgt	12, cr12, [ip], {205}	; 0xcd
    8820:	00009464 	andeq	r9, r0, r4, ror #8
    8824:	00009470 	andeq	r9, r0, r0, ror r4
    8828:	00009484 	andeq	r9, r0, r4, lsl #9
    882c:	00009460 	andeq	r9, r0, r0, ror #8
    8830:	00009244 	andeq	r9, r0, r4, asr #4
    8834:	0000944c 	andeq	r9, r0, ip, asr #8
    8838:	00009428 	andeq	r9, r0, r8, lsr #8

0000883c <rpi_set_output>:
    883c:	e52de004 	push	{lr}		; (str lr, [sp, #-4]!)
    8840:	e24dd00c 	sub	sp, sp, #12
    8844:	e3500000 	cmp	r0, #0
    8848:	1a000008 	bne	8870 <rpi_set_output+0x34>
    884c:	ebffff54 	bl	85a4 <rpi_reset_putc>
    8850:	e59f3034 	ldr	r3, [pc, #52]	; 888c <rpi_set_output+0x50>
    8854:	e58d3000 	str	r3, [sp]
    8858:	e59f0030 	ldr	r0, [pc, #48]	; 8890 <rpi_set_output+0x54>
    885c:	e59f1030 	ldr	r1, [pc, #48]	; 8894 <rpi_set_output+0x58>
    8860:	e59f2030 	ldr	r2, [pc, #48]	; 8898 <rpi_set_output+0x5c>
    8864:	e3a03020 	mov	r3, #32
    8868:	ebffff32 	bl	8538 <printk>
    886c:	eb0000c1 	bl	8b78 <clean_reboot>
    8870:	e59f3024 	ldr	r3, [pc, #36]	; 889c <rpi_set_output+0x60>
    8874:	e5830000 	str	r0, [r3]
    8878:	e3510000 	cmp	r1, #0
    887c:	159f301c 	ldrne	r3, [pc, #28]	; 88a0 <rpi_set_output+0x64>
    8880:	15831000 	strne	r1, [r3]
    8884:	e28dd00c 	add	sp, sp, #12
    8888:	e49df004 	pop	{pc}		; (ldr pc, [sp], #4)
    888c:	00009488 	andeq	r9, r0, r8, lsl #9
    8890:	00009244 	andeq	r9, r0, r4, asr #4
    8894:	0000944c 	andeq	r9, r0, ip, asr #8
    8898:	00009430 	andeq	r9, r0, r0, lsr r4
    889c:	00009168 	andeq	r9, r0, r8, ror #2
    88a0:	0000916c 	andeq	r9, r0, ip, ror #2

000088a4 <va_printk>:
    88a4:	e92d4ff0 	push	{r4, r5, r6, r7, r8, r9, sl, fp, lr}
    88a8:	e24dd094 	sub	sp, sp, #148	; 0x94
    88ac:	e1a0b000 	mov	fp, r0
    88b0:	e58d200c 	str	r2, [sp, #12]
    88b4:	e1a0a003 	mov	sl, r3
    88b8:	e2411001 	sub	r1, r1, #1
    88bc:	e0808001 	add	r8, r0, r1
    88c0:	e3a03000 	mov	r3, #0
    88c4:	e5c03000 	strb	r3, [r0]
    88c8:	e1a04000 	mov	r4, r0
    88cc:	e1a06002 	mov	r6, r2
    88d0:	ea000095 	b	8b2c <va_printk+0x288>
    88d4:	e3530025 	cmp	r3, #37	; 0x25
    88d8:	12866001 	addne	r6, r6, #1
    88dc:	15c43000 	strbne	r3, [r4]
    88e0:	12844001 	addne	r4, r4, #1
    88e4:	1a000090 	bne	8b2c <va_printk+0x288>
    88e8:	e5d62001 	ldrb	r2, [r6, #1]
    88ec:	e3520025 	cmp	r2, #37	; 0x25
    88f0:	05c43000 	strbeq	r3, [r4]
    88f4:	02866002 	addeq	r6, r6, #2
    88f8:	02844001 	addeq	r4, r4, #1
    88fc:	0a00008a 	beq	8b2c <va_printk+0x288>
    8900:	e2866001 	add	r6, r6, #1
    8904:	e3a07000 	mov	r7, #0
    8908:	ea000004 	b	8920 <va_printk+0x7c>
    890c:	e0877107 	add	r7, r7, r7, lsl #2
    8910:	e1a07087 	lsl	r7, r7, #1
    8914:	e0877005 	add	r7, r7, r5
    8918:	e2477030 	sub	r7, r7, #48	; 0x30
    891c:	e2866001 	add	r6, r6, #1
    8920:	e5d65000 	ldrb	r5, [r6]
    8924:	e1a09005 	mov	r9, r5
    8928:	e1a00005 	mov	r0, r5
    892c:	ebffff33 	bl	8600 <isdigit>
    8930:	e3500000 	cmp	r0, #0
    8934:	1afffff4 	bne	890c <va_printk+0x68>
    8938:	e357001f 	cmp	r7, #31
    893c:	9a000008 	bls	8964 <va_printk+0xc0>
    8940:	ebffff17 	bl	85a4 <rpi_reset_putc>
    8944:	e59f320c 	ldr	r3, [pc, #524]	; 8b58 <va_printk+0x2b4>
    8948:	e58d3000 	str	r3, [sp]
    894c:	e59f0208 	ldr	r0, [pc, #520]	; 8b5c <va_printk+0x2b8>
    8950:	e59f1208 	ldr	r1, [pc, #520]	; 8b60 <va_printk+0x2bc>
    8954:	e59f2208 	ldr	r2, [pc, #520]	; 8b64 <va_printk+0x2c0>
    8958:	e3a03095 	mov	r3, #149	; 0x95
    895c:	ebfffef5 	bl	8538 <printk>
    8960:	eb000084 	bl	8b78 <clean_reboot>
    8964:	e2455062 	sub	r5, r5, #98	; 0x62
    8968:	e3550016 	cmp	r5, #22
    896c:	979ff105 	ldrls	pc, [pc, r5, lsl #2]
    8970:	ea000052 	b	8ac0 <va_printk+0x21c>
    8974:	00008a64 	andeq	r8, r0, r4, ror #20
    8978:	00008a98 	muleq	r0, r8, sl
    897c:	000089ec 	andeq	r8, r0, ip, ror #19
    8980:	00008ac0 	andeq	r8, r0, r0, asr #21
    8984:	000089d0 	ldrdeq	r8, [r0], -r0
    8988:	00008ac0 	andeq	r8, r0, r0, asr #21
    898c:	00008ac0 	andeq	r8, r0, r0, asr #21
    8990:	00008ac0 	andeq	r8, r0, r0, asr #21
    8994:	00008ac0 	andeq	r8, r0, r0, asr #21
    8998:	00008ac0 	andeq	r8, r0, r0, asr #21
    899c:	00008ac0 	andeq	r8, r0, r0, asr #21
    89a0:	00008ac0 	andeq	r8, r0, r0, asr #21
    89a4:	00008ac0 	andeq	r8, r0, r0, asr #21
    89a8:	00008ac0 	andeq	r8, r0, r0, asr #21
    89ac:	00008a3c 	andeq	r8, r0, ip, lsr sl
    89b0:	00008ac0 	andeq	r8, r0, r0, asr #21
    89b4:	00008ac0 	andeq	r8, r0, r0, asr #21
    89b8:	00008a8c 	andeq	r8, r0, ip, lsl #21
    89bc:	00008ac0 	andeq	r8, r0, r0, asr #21
    89c0:	00008a14 	andeq	r8, r0, r4, lsl sl
    89c4:	00008ac0 	andeq	r8, r0, r0, asr #21
    89c8:	00008ac0 	andeq	r8, r0, r0, asr #21
    89cc:	00008a3c 	andeq	r8, r0, ip, lsr sl
    89d0:	ebfffef3 	bl	85a4 <rpi_reset_putc>
    89d4:	e59f018c 	ldr	r0, [pc, #396]	; 8b68 <va_printk+0x2c4>
    89d8:	e59f1180 	ldr	r1, [pc, #384]	; 8b60 <va_printk+0x2bc>
    89dc:	e59f2180 	ldr	r2, [pc, #384]	; 8b64 <va_printk+0x2c0>
    89e0:	e3a0309b 	mov	r3, #155	; 0x9b
    89e4:	ebfffed3 	bl	8538 <printk>
    89e8:	eb000062 	bl	8b78 <clean_reboot>
    89ec:	e59a3000 	ldr	r3, [sl]
    89f0:	e28aa004 	add	sl, sl, #4
    89f4:	e58d7000 	str	r7, [sp]
    89f8:	e3a02001 	mov	r2, #1
    89fc:	e58d2004 	str	r2, [sp, #4]
    8a00:	e3a0000a 	mov	r0, #10
    8a04:	e28d1010 	add	r1, sp, #16
    8a08:	e3a02080 	mov	r2, #128	; 0x80
    8a0c:	ebffff1b 	bl	8680 <emit>
    8a10:	ea00003b 	b	8b04 <va_printk+0x260>
    8a14:	e59a3000 	ldr	r3, [sl]
    8a18:	e28aa004 	add	sl, sl, #4
    8a1c:	e58d7000 	str	r7, [sp]
    8a20:	e3a02000 	mov	r2, #0
    8a24:	e58d2004 	str	r2, [sp, #4]
    8a28:	e3a0000a 	mov	r0, #10
    8a2c:	e28d1010 	add	r1, sp, #16
    8a30:	e3a02080 	mov	r2, #128	; 0x80
    8a34:	ebffff11 	bl	8680 <emit>
    8a38:	ea000031 	b	8b04 <va_printk+0x260>
    8a3c:	e59a3000 	ldr	r3, [sl]
    8a40:	e28aa004 	add	sl, sl, #4
    8a44:	e58d7000 	str	r7, [sp]
    8a48:	e3a02000 	mov	r2, #0
    8a4c:	e58d2004 	str	r2, [sp, #4]
    8a50:	e3a00010 	mov	r0, #16
    8a54:	e08d1000 	add	r1, sp, r0
    8a58:	e3a02080 	mov	r2, #128	; 0x80
    8a5c:	ebffff07 	bl	8680 <emit>
    8a60:	ea000027 	b	8b04 <va_printk+0x260>
    8a64:	e59a3000 	ldr	r3, [sl]
    8a68:	e28aa004 	add	sl, sl, #4
    8a6c:	e58d7000 	str	r7, [sp]
    8a70:	e3a02000 	mov	r2, #0
    8a74:	e58d2004 	str	r2, [sp, #4]
    8a78:	e3a00002 	mov	r0, #2
    8a7c:	e28d1010 	add	r1, sp, #16
    8a80:	e3a02080 	mov	r2, #128	; 0x80
    8a84:	ebfffefd 	bl	8680 <emit>
    8a88:	ea00001d 	b	8b04 <va_printk+0x260>
    8a8c:	e59a0000 	ldr	r0, [sl]
    8a90:	e28aa004 	add	sl, sl, #4
    8a94:	ea00001a 	b	8b04 <va_printk+0x260>
    8a98:	e59a3000 	ldr	r3, [sl]
    8a9c:	e28aa004 	add	sl, sl, #4
    8aa0:	e58d7000 	str	r7, [sp]
    8aa4:	e3a02000 	mov	r2, #0
    8aa8:	e58d2004 	str	r2, [sp, #4]
    8aac:	e3a00008 	mov	r0, #8
    8ab0:	e28d1010 	add	r1, sp, #16
    8ab4:	e3a02080 	mov	r2, #128	; 0x80
    8ab8:	ebfffef0 	bl	8680 <emit>
    8abc:	ea000010 	b	8b04 <va_printk+0x260>
    8ac0:	e3a03000 	mov	r3, #0
    8ac4:	e5c63001 	strb	r3, [r6, #1]
    8ac8:	e59f009c 	ldr	r0, [pc, #156]	; 8b6c <va_printk+0x2c8>
    8acc:	e1a01009 	mov	r1, r9
    8ad0:	e1a02009 	mov	r2, r9
    8ad4:	ebfffe97 	bl	8538 <printk>
    8ad8:	e59f3090 	ldr	r3, [pc, #144]	; 8b70 <va_printk+0x2cc>
    8adc:	e5933000 	ldr	r3, [r3]
    8ae0:	e59d000c 	ldr	r0, [sp, #12]
    8ae4:	e12fff33 	blx	r3
    8ae8:	ebfffead 	bl	85a4 <rpi_reset_putc>
    8aec:	e59f0080 	ldr	r0, [pc, #128]	; 8b74 <va_printk+0x2d0>
    8af0:	e59f1068 	ldr	r1, [pc, #104]	; 8b60 <va_printk+0x2bc>
    8af4:	e59f2068 	ldr	r2, [pc, #104]	; 8b64 <va_printk+0x2c0>
    8af8:	e3a030bf 	mov	r3, #191	; 0xbf
    8afc:	ebfffe8d 	bl	8538 <printk>
    8b00:	eb00001c 	bl	8b78 <clean_reboot>
    8b04:	e2866001 	add	r6, r6, #1
    8b08:	ea000002 	b	8b18 <va_printk+0x274>
    8b0c:	e2800001 	add	r0, r0, #1
    8b10:	e5c43000 	strb	r3, [r4]
    8b14:	e2844001 	add	r4, r4, #1
    8b18:	e1540008 	cmp	r4, r8
    8b1c:	2a000002 	bcs	8b2c <va_printk+0x288>
    8b20:	e5d03000 	ldrb	r3, [r0]
    8b24:	e3530000 	cmp	r3, #0
    8b28:	1afffff7 	bne	8b0c <va_printk+0x268>
    8b2c:	e5d63000 	ldrb	r3, [r6]
    8b30:	e3530000 	cmp	r3, #0
    8b34:	0a000001 	beq	8b40 <va_printk+0x29c>
    8b38:	e1540008 	cmp	r4, r8
    8b3c:	3affff64 	bcc	88d4 <va_printk+0x30>
    8b40:	e2840001 	add	r0, r4, #1
    8b44:	e3a03000 	mov	r3, #0
    8b48:	e5c43000 	strb	r3, [r4]
    8b4c:	e06b0000 	rsb	r0, fp, r0
    8b50:	e28dd094 	add	sp, sp, #148	; 0x94
    8b54:	e8bd8ff0 	pop	{r4, r5, r6, r7, r8, r9, sl, fp, pc}
    8b58:	00009490 	muleq	r0, r0, r4
    8b5c:	00009244 	andeq	r9, r0, r4, asr #4
    8b60:	0000944c 	andeq	r9, r0, ip, asr #8
    8b64:	00009440 	andeq	r9, r0, r0, asr #8
    8b68:	0000949c 	muleq	r0, ip, r4
    8b6c:	000094c4 	andeq	r9, r0, r4, asr #9
    8b70:	0000916c 	andeq	r9, r0, ip, ror #2
    8b74:	000094f4 	strdeq	r9, [r0], -r4

00008b78 <clean_reboot>:
    8b78:	e92d4008 	push	{r3, lr}
    8b7c:	eb00005b 	bl	8cf0 <reboot_handler>
    8b80:	e59f3014 	ldr	r3, [pc, #20]	; 8b9c <clean_reboot+0x24>
    8b84:	e5933000 	ldr	r3, [r3]
    8b88:	e59f0010 	ldr	r0, [pc, #16]	; 8ba0 <clean_reboot+0x28>
    8b8c:	e12fff33 	blx	r3
    8b90:	e3a00064 	mov	r0, #100	; 0x64
    8b94:	eb0000aa 	bl	8e44 <delay_ms>
    8b98:	eb00007b 	bl	8d8c <rpi_reboot>
    8b9c:	0000916c 	andeq	r9, r0, ip, ror #2
    8ba0:	00009514 	andeq	r9, r0, r4, lsl r5

00008ba4 <_cstart>:
    8ba4:	e92d4008 	push	{r3, lr}
    8ba8:	e59f3024 	ldr	r3, [pc, #36]	; 8bd4 <_cstart+0x30>
    8bac:	e59f2024 	ldr	r2, [pc, #36]	; 8bd8 <_cstart+0x34>
    8bb0:	e3a01000 	mov	r1, #0
    8bb4:	ea000001 	b	8bc0 <_cstart+0x1c>
    8bb8:	e5831000 	str	r1, [r3]
    8bbc:	e2833004 	add	r3, r3, #4
    8bc0:	e1530002 	cmp	r3, r2
    8bc4:	3afffffb 	bcc	8bb8 <_cstart+0x14>
    8bc8:	eb000047 	bl	8cec <cstart_handler>
    8bcc:	ebfffd33 	bl	80a0 <notmain>
    8bd0:	ebffffe8 	bl	8b78 <clean_reboot>
    8bd4:	00009678 	andeq	r9, r0, r8, ror r6
    8bd8:	00009a88 	andeq	r9, r0, r8, lsl #21

00008bdc <fast_interrupt_vector>:
    8bdc:	e52de004 	push	{lr}		; (str lr, [sp, #-4]!)
    8be0:	e24dd00c 	sub	sp, sp, #12
    8be4:	e1a04000 	mov	r4, r0
    8be8:	ebfffe6d 	bl	85a4 <rpi_reset_putc>
    8bec:	e59f301c 	ldr	r3, [pc, #28]	; 8c10 <fast_interrupt_vector+0x34>
    8bf0:	e58d3000 	str	r3, [sp]
    8bf4:	e58d4004 	str	r4, [sp, #4]
    8bf8:	e59f0014 	ldr	r0, [pc, #20]	; 8c14 <fast_interrupt_vector+0x38>
    8bfc:	e59f1014 	ldr	r1, [pc, #20]	; 8c18 <fast_interrupt_vector+0x3c>
    8c00:	e59f2014 	ldr	r2, [pc, #20]	; 8c1c <fast_interrupt_vector+0x40>
    8c04:	e3a03002 	mov	r3, #2
    8c08:	ebfffe4a 	bl	8538 <printk>
    8c0c:	ebffffd9 	bl	8b78 <clean_reboot>
    8c10:	00009598 	muleq	r0, r8, r5
    8c14:	00009538 	andeq	r9, r0, r8, lsr r5
    8c18:	00009574 	andeq	r9, r0, r4, ror r5
    8c1c:	00009520 	andeq	r9, r0, r0, lsr #10

00008c20 <reset_vector>:
    8c20:	e52de004 	push	{lr}		; (str lr, [sp, #-4]!)
    8c24:	e24dd00c 	sub	sp, sp, #12
    8c28:	e1a04000 	mov	r4, r0
    8c2c:	ebfffe5c 	bl	85a4 <rpi_reset_putc>
    8c30:	e59f301c 	ldr	r3, [pc, #28]	; 8c54 <reset_vector+0x34>
    8c34:	e58d3000 	str	r3, [sp]
    8c38:	e58d4004 	str	r4, [sp, #4]
    8c3c:	e59f0014 	ldr	r0, [pc, #20]	; 8c58 <reset_vector+0x38>
    8c40:	e59f1014 	ldr	r1, [pc, #20]	; 8c5c <reset_vector+0x3c>
    8c44:	e59f2014 	ldr	r2, [pc, #20]	; 8c60 <reset_vector+0x40>
    8c48:	e3a03002 	mov	r3, #2
    8c4c:	ebfffe39 	bl	8538 <printk>
    8c50:	ebffffc8 	bl	8b78 <clean_reboot>
    8c54:	000095d4 	ldrdeq	r9, [r0], -r4
    8c58:	00009538 	andeq	r9, r0, r8, lsr r5
    8c5c:	000095b0 			; <UNDEFINED> instruction: 0x000095b0
    8c60:	000095a0 	andeq	r9, r0, r0, lsr #11

00008c64 <software_interrupt_vector>:
    8c64:	e52de004 	push	{lr}		; (str lr, [sp, #-4]!)
    8c68:	e24dd00c 	sub	sp, sp, #12
    8c6c:	e1a04000 	mov	r4, r0
    8c70:	ebfffe4b 	bl	85a4 <rpi_reset_putc>
    8c74:	e59f301c 	ldr	r3, [pc, #28]	; 8c98 <software_interrupt_vector+0x34>
    8c78:	e58d3000 	str	r3, [sp]
    8c7c:	e58d4004 	str	r4, [sp, #4]
    8c80:	e59f0014 	ldr	r0, [pc, #20]	; 8c9c <software_interrupt_vector+0x38>
    8c84:	e59f1014 	ldr	r1, [pc, #20]	; 8ca0 <software_interrupt_vector+0x3c>
    8c88:	e59f2014 	ldr	r2, [pc, #20]	; 8ca4 <software_interrupt_vector+0x40>
    8c8c:	e3a03002 	mov	r3, #2
    8c90:	ebfffe28 	bl	8538 <printk>
    8c94:	ebffffb7 	bl	8b78 <clean_reboot>
    8c98:	00009618 	andeq	r9, r0, r8, lsl r6
    8c9c:	00009538 	andeq	r9, r0, r8, lsr r5
    8ca0:	000095f8 	strdeq	r9, [r0], -r8
    8ca4:	000095dc 	ldrdeq	r9, [r0], -ip

00008ca8 <undefined_instruction_vector>:
    8ca8:	e52de004 	push	{lr}		; (str lr, [sp, #-4]!)
    8cac:	e24dd00c 	sub	sp, sp, #12
    8cb0:	e1a04000 	mov	r4, r0
    8cb4:	ebfffe3a 	bl	85a4 <rpi_reset_putc>
    8cb8:	e59f301c 	ldr	r3, [pc, #28]	; 8cdc <undefined_instruction_vector+0x34>
    8cbc:	e58d3000 	str	r3, [sp]
    8cc0:	e58d4004 	str	r4, [sp, #4]
    8cc4:	e59f0014 	ldr	r0, [pc, #20]	; 8ce0 <undefined_instruction_vector+0x38>
    8cc8:	e59f1014 	ldr	r1, [pc, #20]	; 8ce4 <undefined_instruction_vector+0x3c>
    8ccc:	e59f2014 	ldr	r2, [pc, #20]	; 8ce8 <undefined_instruction_vector+0x40>
    8cd0:	e3a03002 	mov	r3, #2
    8cd4:	ebfffe17 	bl	8538 <printk>
    8cd8:	ebffffa6 	bl	8b78 <clean_reboot>
    8cdc:	00009668 	andeq	r9, r0, r8, ror #12
    8ce0:	00009538 	andeq	r9, r0, r8, lsr r5
    8ce4:	0000963c 	andeq	r9, r0, ip, lsr r6
    8ce8:	0000961c 	andeq	r9, r0, ip, lsl r6

00008cec <cstart_handler>:
    8cec:	e12fff1e 	bx	lr

00008cf0 <reboot_handler>:
    8cf0:	e12fff1e 	bx	lr

00008cf4 <int_init>:
    8cf4:	e92d4008 	push	{r3, lr}
    8cf8:	eb00005b 	bl	8e6c <dev_barrier>
    8cfc:	e59f004c 	ldr	r0, [pc, #76]	; 8d50 <int_init+0x5c>
    8d00:	e3e01000 	mvn	r1, #0
    8d04:	eb000060 	bl	8e8c <PUT32>
    8d08:	e59f0044 	ldr	r0, [pc, #68]	; 8d54 <int_init+0x60>
    8d0c:	e3e01000 	mvn	r1, #0
    8d10:	eb00005d 	bl	8e8c <PUT32>
    8d14:	eb000054 	bl	8e6c <dev_barrier>
    8d18:	e59f3038 	ldr	r3, [pc, #56]	; 8d58 <int_init+0x64>
    8d1c:	e59f0038 	ldr	r0, [pc, #56]	; 8d5c <int_init+0x68>
    8d20:	e0630000 	rsb	r0, r3, r0
    8d24:	e1a00140 	asr	r0, r0, #2
    8d28:	e3a03000 	mov	r3, #0
    8d2c:	e59fc024 	ldr	ip, [pc, #36]	; 8d58 <int_init+0x64>
    8d30:	ea000003 	b	8d44 <int_init+0x50>
    8d34:	e1a02103 	lsl	r2, r3, #2
    8d38:	e79c1103 	ldr	r1, [ip, r3, lsl #2]
    8d3c:	e5821000 	str	r1, [r2]
    8d40:	e2833001 	add	r3, r3, #1
    8d44:	e1530000 	cmp	r3, r0
    8d48:	3afffff9 	bcc	8d34 <int_init+0x40>
    8d4c:	e8bd8008 	pop	{r3, pc}
    8d50:	2000b21c 	andcs	fp, r0, ip, lsl r2
    8d54:	2000b220 	andcs	fp, r0, r0, lsr #4
    8d58:	00008448 	andeq	r8, r0, r8, asr #8
    8d5c:	00008488 	andeq	r8, r0, r8, lsl #9

00008d60 <at_user_level>:
    8d60:	e10f0000 	mrs	r0, CPSR
    8d64:	e200001f 	and	r0, r0, #31
    8d68:	e3500010 	cmp	r0, #16
    8d6c:	13a00000 	movne	r0, #0
    8d70:	03a00001 	moveq	r0, #1
    8d74:	e12fff1e 	bx	lr

00008d78 <set_user_level>:
    8d78:	e10f3000 	mrs	r3, CPSR
    8d7c:	e3c3301f 	bic	r3, r3, #31
    8d80:	e3833010 	orr	r3, r3, #16
    8d84:	e129f003 	msr	CPSR_fc, r3
    8d88:	e12fff1e 	bx	lr

00008d8c <rpi_reboot>:
    8d8c:	e92d4008 	push	{r3, lr}
    8d90:	ebfffff2 	bl	8d60 <at_user_level>
    8d94:	e3500000 	cmp	r0, #0
    8d98:	0a000000 	beq	8da0 <rpi_reboot+0x14>
    8d9c:	ebfffff5 	bl	8d78 <set_user_level>
    8da0:	e3a0001e 	mov	r0, #30
    8da4:	eb000026 	bl	8e44 <delay_ms>
    8da8:	e59f0014 	ldr	r0, [pc, #20]	; 8dc4 <rpi_reboot+0x38>
    8dac:	e59f1014 	ldr	r1, [pc, #20]	; 8dc8 <rpi_reboot+0x3c>
    8db0:	eb000035 	bl	8e8c <PUT32>
    8db4:	e59f0010 	ldr	r0, [pc, #16]	; 8dcc <rpi_reboot+0x40>
    8db8:	e59f1010 	ldr	r1, [pc, #16]	; 8dd0 <rpi_reboot+0x44>
    8dbc:	eb000032 	bl	8e8c <PUT32>
    8dc0:	eafffffe 	b	8dc0 <rpi_reboot+0x34>
    8dc4:	20100024 	andscs	r0, r0, r4, lsr #32
    8dc8:	5a000001 	bpl	8dd4 <delay_cycles>
    8dcc:	2010001c 	andscs	r0, r0, ip, lsl r0
    8dd0:	5a000020 	bpl	8e58 <delay_sec>

00008dd4 <delay_cycles>:
    8dd4:	ea000001 	b	8de0 <delay_cycles+0xc>
    8dd8:	e2811000 	add	r1, r1, #0
    8ddc:	e1a00003 	mov	r0, r3
    8de0:	e2403001 	sub	r3, r0, #1
    8de4:	e3500000 	cmp	r0, #0
    8de8:	1afffffa 	bne	8dd8 <delay_cycles+0x4>
    8dec:	e12fff1e 	bx	lr

00008df0 <timer_get_usec_raw>:
    8df0:	e92d4008 	push	{r3, lr}
    8df4:	e59f0004 	ldr	r0, [pc, #4]	; 8e00 <timer_get_usec_raw+0x10>
    8df8:	eb00002f 	bl	8ebc <GET32>
    8dfc:	e8bd8008 	pop	{r3, pc}
    8e00:	20003004 	andcs	r3, r0, r4

00008e04 <timer_get_usec>:
    8e04:	e92d4010 	push	{r4, lr}
    8e08:	eb000017 	bl	8e6c <dev_barrier>
    8e0c:	ebfffff7 	bl	8df0 <timer_get_usec_raw>
    8e10:	e1a04000 	mov	r4, r0
    8e14:	eb000014 	bl	8e6c <dev_barrier>
    8e18:	e1a00004 	mov	r0, r4
    8e1c:	e8bd8010 	pop	{r4, pc}

00008e20 <delay_us>:
    8e20:	e92d4038 	push	{r3, r4, r5, lr}
    8e24:	e1a05000 	mov	r5, r0
    8e28:	ebfffff5 	bl	8e04 <timer_get_usec>
    8e2c:	e1a04000 	mov	r4, r0
    8e30:	ebfffff3 	bl	8e04 <timer_get_usec>
    8e34:	e0640000 	rsb	r0, r4, r0
    8e38:	e1500005 	cmp	r0, r5
    8e3c:	3afffffb 	bcc	8e30 <delay_us+0x10>
    8e40:	e8bd8038 	pop	{r3, r4, r5, pc}

00008e44 <delay_ms>:
    8e44:	e92d4008 	push	{r3, lr}
    8e48:	e3a03ffa 	mov	r3, #1000	; 0x3e8
    8e4c:	e0000093 	mul	r0, r3, r0
    8e50:	ebfffff2 	bl	8e20 <delay_us>
    8e54:	e8bd8008 	pop	{r3, pc}

00008e58 <delay_sec>:
    8e58:	e92d4008 	push	{r3, lr}
    8e5c:	e3a03ffa 	mov	r3, #1000	; 0x3e8
    8e60:	e0000093 	mul	r0, r3, r0
    8e64:	ebfffff6 	bl	8e44 <delay_ms>
    8e68:	e8bd8008 	pop	{r3, pc}

00008e6c <dev_barrier>:
    8e6c:	ea000002 	b	8e7c <dsb>

00008e70 <dmb>:
    8e70:	e3a00000 	mov	r0, #0
    8e74:	ee070fba 	mcr	15, 0, r0, cr7, cr10, {5}
    8e78:	e12fff1e 	bx	lr

00008e7c <dsb>:
    8e7c:	ee070f9a 	mcr	15, 0, r0, cr7, cr10, {4}
    8e80:	e12fff1e 	bx	lr

00008e84 <put32>:
    8e84:	e5801000 	str	r1, [r0]
    8e88:	e12fff1e 	bx	lr

00008e8c <PUT32>:
    8e8c:	e5801000 	str	r1, [r0]
    8e90:	e12fff1e 	bx	lr

00008e94 <put16>:
    8e94:	e1c010b0 	strh	r1, [r0]
    8e98:	e12fff1e 	bx	lr

00008e9c <PUT16>:
    8e9c:	e1c010b0 	strh	r1, [r0]
    8ea0:	e12fff1e 	bx	lr

00008ea4 <put8>:
    8ea4:	e5c01000 	strb	r1, [r0]
    8ea8:	e12fff1e 	bx	lr

00008eac <PUT8>:
    8eac:	e5c01000 	strb	r1, [r0]
    8eb0:	e12fff1e 	bx	lr

00008eb4 <get32>:
    8eb4:	e5900000 	ldr	r0, [r0]
    8eb8:	e12fff1e 	bx	lr

00008ebc <GET32>:
    8ebc:	e5900000 	ldr	r0, [r0]
    8ec0:	e12fff1e 	bx	lr

00008ec4 <GETPC>:
    8ec4:	e1a0000e 	mov	r0, lr
    8ec8:	e12fff1e 	bx	lr

00008ecc <dummy>:
    8ecc:	e12fff1e 	bx	lr

00008ed0 <or_in32>:
    8ed0:	e92d4070 	push	{r4, r5, r6, lr}
    8ed4:	e1a04000 	mov	r4, r0
    8ed8:	e1a05001 	mov	r5, r1
    8edc:	ebfffff4 	bl	8eb4 <get32>
    8ee0:	e1801005 	orr	r1, r0, r5
    8ee4:	e1a00004 	mov	r0, r4
    8ee8:	ebffffe5 	bl	8e84 <put32>
    8eec:	e8bd8070 	pop	{r4, r5, r6, pc}

00008ef0 <uart_init>:
    8ef0:	e92d4010 	push	{r4, lr}
    8ef4:	e3a01002 	mov	r1, #2
    8ef8:	e3a0000e 	mov	r0, #14
    8efc:	eb000051 	bl	9048 <gpio_set_function>
    8f00:	e3a01002 	mov	r1, #2
    8f04:	e3a0000f 	mov	r0, #15
    8f08:	eb00004e 	bl	9048 <gpio_set_function>
    8f0c:	ebffffd6 	bl	8e6c <dev_barrier>
    8f10:	e3a01001 	mov	r1, #1
    8f14:	e59f0064 	ldr	r0, [pc, #100]	; 8f80 <uart_init+0x90>
    8f18:	ebffffec 	bl	8ed0 <or_in32>
    8f1c:	ebffffd2 	bl	8e6c <dev_barrier>
    8f20:	e59f405c 	ldr	r4, [pc, #92]	; 8f84 <uart_init+0x94>
    8f24:	e3a01000 	mov	r1, #0
    8f28:	e1a00004 	mov	r0, r4
    8f2c:	ebffffd4 	bl	8e84 <put32>
    8f30:	e3a01000 	mov	r1, #0
    8f34:	e59f004c 	ldr	r0, [pc, #76]	; 8f88 <uart_init+0x98>
    8f38:	ebffffd1 	bl	8e84 <put32>
    8f3c:	e3a01003 	mov	r1, #3
    8f40:	e59f0044 	ldr	r0, [pc, #68]	; 8f8c <uart_init+0x9c>
    8f44:	ebffffce 	bl	8e84 <put32>
    8f48:	e3a01000 	mov	r1, #0
    8f4c:	e59f003c 	ldr	r0, [pc, #60]	; 8f90 <uart_init+0xa0>
    8f50:	ebffffcb 	bl	8e84 <put32>
    8f54:	e3a010c7 	mov	r1, #199	; 0xc7
    8f58:	e59f0034 	ldr	r0, [pc, #52]	; 8f94 <uart_init+0xa4>
    8f5c:	ebffffc8 	bl	8e84 <put32>
    8f60:	e59f1030 	ldr	r1, [pc, #48]	; 8f98 <uart_init+0xa8>
    8f64:	e59f0030 	ldr	r0, [pc, #48]	; 8f9c <uart_init+0xac>
    8f68:	ebffffc5 	bl	8e84 <put32>
    8f6c:	e3a01003 	mov	r1, #3
    8f70:	e1a00004 	mov	r0, r4
    8f74:	ebffffc2 	bl	8e84 <put32>
    8f78:	ebffffbb 	bl	8e6c <dev_barrier>
    8f7c:	e8bd8010 	pop	{r4, pc}
    8f80:	20215004 	eorcs	r5, r1, r4
    8f84:	20215060 	eorcs	r5, r1, r0, rrx
    8f88:	20215044 	eorcs	r5, r1, r4, asr #32
    8f8c:	2021504c 	eorcs	r5, r1, ip, asr #32
    8f90:	20215050 	eorcs	r5, r1, r0, asr r0
    8f94:	20215048 	eorcs	r5, r1, r8, asr #32
    8f98:	0000010e 	andeq	r0, r0, lr, lsl #2
    8f9c:	20215068 	eorcs	r5, r1, r8, rrx

00008fa0 <uart_can_getc>:
    8fa0:	e92d4010 	push	{r4, lr}
    8fa4:	e59f0008 	ldr	r0, [pc, #8]	; 8fb4 <uart_can_getc+0x14>
    8fa8:	ebffffc1 	bl	8eb4 <get32>
    8fac:	e2000001 	and	r0, r0, #1
    8fb0:	e8bd8010 	pop	{r4, pc}
    8fb4:	20215064 	eorcs	r5, r1, r4, rrx

00008fb8 <uart_can_putc>:
    8fb8:	e92d4010 	push	{r4, lr}
    8fbc:	e59f0010 	ldr	r0, [pc, #16]	; 8fd4 <uart_can_putc+0x1c>
    8fc0:	ebffffbb 	bl	8eb4 <get32>
    8fc4:	e3100002 	tst	r0, #2
    8fc8:	13a00001 	movne	r0, #1
    8fcc:	03a00000 	moveq	r0, #0
    8fd0:	e8bd8010 	pop	{r4, pc}
    8fd4:	20215064 	eorcs	r5, r1, r4, rrx

00008fd8 <uart_getc>:
    8fd8:	e92d4010 	push	{r4, lr}
    8fdc:	ebffffa2 	bl	8e6c <dev_barrier>
    8fe0:	ebffffee 	bl	8fa0 <uart_can_getc>
    8fe4:	e3500000 	cmp	r0, #0
    8fe8:	0afffffc 	beq	8fe0 <uart_getc+0x8>
    8fec:	e59f0010 	ldr	r0, [pc, #16]	; 9004 <uart_getc+0x2c>
    8ff0:	ebffffaf 	bl	8eb4 <get32>
    8ff4:	e6ef4070 	uxtb	r4, r0
    8ff8:	ebffff9b 	bl	8e6c <dev_barrier>
    8ffc:	e1a00004 	mov	r0, r4
    9000:	e8bd8010 	pop	{r4, pc}
    9004:	20215040 	eorcs	r5, r1, r0, asr #32

00009008 <uart_putc>:
    9008:	e92d4010 	push	{r4, lr}
    900c:	e1a04000 	mov	r4, r0
    9010:	ebffff95 	bl	8e6c <dev_barrier>
    9014:	ebffffe7 	bl	8fb8 <uart_can_putc>
    9018:	e3500000 	cmp	r0, #0
    901c:	0afffffc 	beq	9014 <uart_putc+0xc>
    9020:	e6ef1074 	uxtb	r1, r4
    9024:	e59f0008 	ldr	r0, [pc, #8]	; 9034 <uart_putc+0x2c>
    9028:	ebffff95 	bl	8e84 <put32>
    902c:	ebffff8e 	bl	8e6c <dev_barrier>
    9030:	e8bd8010 	pop	{r4, pc}
    9034:	20215040 	eorcs	r5, r1, r0, asr #32

00009038 <uart_has_data>:
    9038:	e92d4010 	push	{r4, lr}
    903c:	ebffff8a 	bl	8e6c <dev_barrier>
    9040:	ebffffd6 	bl	8fa0 <uart_can_getc>
    9044:	e8bd8010 	pop	{r4, pc}

00009048 <gpio_set_function>:
    9048:	e350001f 	cmp	r0, #31
    904c:	812fff1e 	bxhi	lr
    9050:	e3d13007 	bics	r3, r1, #7
    9054:	112fff1e 	bxne	lr
    9058:	e92d4070 	push	{r4, r5, r6, lr}
    905c:	e1a05001 	mov	r5, r1
    9060:	e59f3044 	ldr	r3, [pc, #68]	; 90ac <gpio_set_function+0x64>
    9064:	e0832093 	umull	r2, r3, r3, r0
    9068:	e1a031a3 	lsr	r3, r3, #3
    906c:	e1a06003 	mov	r6, r3
    9070:	e0833103 	add	r3, r3, r3, lsl #2
    9074:	e1a02083 	lsl	r2, r3, #1
    9078:	e0403002 	sub	r3, r0, r2
    907c:	e0834083 	add	r4, r3, r3, lsl #1
    9080:	e2866302 	add	r6, r6, #134217728	; 0x8000000
    9084:	e2866702 	add	r6, r6, #524288	; 0x80000
    9088:	e1a06106 	lsl	r6, r6, #2
    908c:	e1a00006 	mov	r0, r6
    9090:	ebffff89 	bl	8ebc <GET32>
    9094:	e3a01007 	mov	r1, #7
    9098:	e1c01411 	bic	r1, r0, r1, lsl r4
    909c:	e1811415 	orr	r1, r1, r5, lsl r4
    90a0:	e1a00006 	mov	r0, r6
    90a4:	ebffff78 	bl	8e8c <PUT32>
    90a8:	e8bd8070 	pop	{r4, r5, r6, pc}
    90ac:	cccccccd 	stclgt	12, cr12, [ip], {205}	; 0xcd

000090b0 <gpio_set_output>:
    90b0:	e92d4010 	push	{r4, lr}
    90b4:	e3a01001 	mov	r1, #1
    90b8:	ebffffe2 	bl	9048 <gpio_set_function>
    90bc:	e8bd8010 	pop	{r4, pc}

000090c0 <gpio_set_on>:
    90c0:	e350001f 	cmp	r0, #31
    90c4:	812fff1e 	bxhi	lr
    90c8:	e92d4010 	push	{r4, lr}
    90cc:	e3a01001 	mov	r1, #1
    90d0:	e1a01011 	lsl	r1, r1, r0
    90d4:	e59f0004 	ldr	r0, [pc, #4]	; 90e0 <gpio_set_on+0x20>
    90d8:	ebffff6b 	bl	8e8c <PUT32>
    90dc:	e8bd8010 	pop	{r4, pc}
    90e0:	2020001c 	eorcs	r0, r0, ip, lsl r0

000090e4 <gpio_set_off>:
    90e4:	e350001f 	cmp	r0, #31
    90e8:	812fff1e 	bxhi	lr
    90ec:	e92d4010 	push	{r4, lr}
    90f0:	e3a01001 	mov	r1, #1
    90f4:	e1a01011 	lsl	r1, r1, r0
    90f8:	e59f0004 	ldr	r0, [pc, #4]	; 9104 <gpio_set_off+0x20>
    90fc:	ebffff62 	bl	8e8c <PUT32>
    9100:	e8bd8010 	pop	{r4, pc}
    9104:	20200028 	eorcs	r0, r0, r8, lsr #32

00009108 <gpio_set_input>:
    9108:	e92d4010 	push	{r4, lr}
    910c:	e3a01000 	mov	r1, #0
    9110:	ebffffcc 	bl	9048 <gpio_set_function>
    9114:	e8bd8010 	pop	{r4, pc}

00009118 <gpio_write>:
    9118:	e92d4010 	push	{r4, lr}
    911c:	e3510000 	cmp	r1, #0
    9120:	1a000001 	bne	912c <gpio_write+0x14>
    9124:	ebffffee 	bl	90e4 <gpio_set_off>
    9128:	e8bd8010 	pop	{r4, pc}
    912c:	ebffffe3 	bl	90c0 <gpio_set_on>
    9130:	e8bd8010 	pop	{r4, pc}

00009134 <gpio_read>:
    9134:	e350001f 	cmp	r0, #31
    9138:	8a000007 	bhi	915c <gpio_read+0x28>
    913c:	e92d4010 	push	{r4, lr}
    9140:	e200401f 	and	r4, r0, #31
    9144:	e59f3018 	ldr	r3, [pc, #24]	; 9164 <gpio_read+0x30>
    9148:	e08302a0 	add	r0, r3, r0, lsr #5
    914c:	ebffff5a 	bl	8ebc <GET32>
    9150:	e1a00430 	lsr	r0, r0, r4
    9154:	e2000001 	and	r0, r0, #1
    9158:	e8bd8010 	pop	{r4, pc}
    915c:	e3e00000 	mvn	r0, #0
    9160:	e12fff1e 	bx	lr
    9164:	20200034 	eorcs	r0, r0, r4, lsr r0

Disassembly of section .data:

00009168 <__data_start__>:
    9168:	00008590 	muleq	r0, r0, r5

0000916c <putk>:
    916c:	000085cc 	andeq	r8, r0, ip, asr #11

Disassembly of section .rodata:

00009170 <__FUNCTION__.4316-0xbc>:
    9170:	0000646c 	andeq	r6, r0, ip, ror #8
    9174:	65696c63 	strbvs	r6, [r9, #-3171]!	; 0xc63
    9178:	6920746e 	stmdbvs	r0!, {r1, r2, r3, r5, r6, sl, ip, sp, lr}
    917c:	6177206e 	cmnvs	r7, lr, rrx
    9180:	70686374 	rsbvc	r6, r8, r4, ror r3
    9184:	746e696f 	strbtvc	r6, [lr], #-2415	; 0x96f
    9188:	7266203a 	rsbvc	r2, r6, #58	; 0x3a
    918c:	61206d6f 	teqvs	r0, pc, ror #26
    9190:	20732520 	rsbscs	r2, r3, r0, lsr #10
    9194:	72646461 	rsbvc	r6, r4, #1627389952	; 0x61000000
    9198:	2c70253d 	cfldr64cs	mvdx2, [r0], #-244	; 0xffffff0c
    919c:	3d637020 	stclcc	0, cr7, [r3, #-128]!	; 0xffffff80
    91a0:	202c7025 	eorcs	r7, ip, r5, lsr #32
    91a4:	756a6461 	strbvc	r6, [sl, #-1121]!	; 0x461
    91a8:	64657473 	strbtvs	r7, [r5], #-1139	; 0x473
    91ac:	61667720 	cmnvs	r6, r0, lsr #14
    91b0:	70253d72 	eorvc	r3, r5, r2, ror sp
    91b4:	0000000a 	andeq	r0, r0, sl
    91b8:	494e4150 	stmdbmi	lr, {r4, r6, r8, lr}^
    91bc:	73253a43 	teqvc	r5, #274432	; 0x43000
    91c0:	3a73253a 	bcc	1cd26b0 <__bss_end__+0x1cc8c28>
    91c4:	743a6425 	ldrtvc	r6, [sl], #-1061	; 0x425
    91c8:	20747365 	rsbscs	r7, r4, r5, ror #6
    91cc:	6c696166 	stfvse	f6, [r9], #-408	; 0xfffffe68
    91d0:	0a216465 	beq	86236c <__bss_end__+0x8588e4>
    91d4:	0000000a 	andeq	r0, r0, sl
    91d8:	74736574 	ldrbtvc	r6, [r3], #-1396	; 0x574
    91dc:	65742f73 	ldrbvs	r2, [r4, #-3955]!	; 0xf73
    91e0:	2e327473 	mrccs	4, 1, r7, cr2, cr3, {3}
    91e4:	00000063 	andeq	r0, r0, r3, rrx
    91e8:	43435553 	movtmi	r5, #13651	; 0x3553
    91ec:	0a535345 	beq	14ddf08 <__bss_end__+0x14d4480>
    91f0:	00000000 	andeq	r0, r0, r0
    91f4:	20746573 	rsbscs	r6, r4, r3, ror r5
    91f8:	63746177 	cmnvs	r4, #-1073741795	; 0xc000001d
    91fc:	6e697068 	cdpvs	0, 6, cr7, cr9, cr8, {3}
    9200:	6f662074 	svcvs	0x00662074
    9204:	64612072 	strbtvs	r2, [r1], #-114	; 0x72
    9208:	25207264 	strcs	r7, [r0, #-612]!	; 0x264
    920c:	00000a70 	andeq	r0, r0, r0, ror sl
    9210:	756f6873 	strbvc	r6, [pc, #-2163]!	; 89a5 <va_printk+0x101>
    9214:	7320646c 	teqvc	r0, #108, 8	; 0x6c000000
    9218:	61206565 	teqvs	r0, r5, ror #10
    921c:	616f6c20 	cmnvs	pc, r0, lsr #24
    9220:	61662064 	cmnvs	r6, r4, rrx
    9224:	21746c75 	cmncs	r4, r5, ror ip
    9228:	0000000a 	andeq	r0, r0, sl

0000922c <__FUNCTION__.4316>:
    922c:	6d746f6e 	ldclvs	15, cr6, [r4, #-440]!	; 0xfffffe48
    9230:	006e6961 	rsbeq	r6, lr, r1, ror #18

00009234 <__FUNCTION__.4311>:
    9234:	63746177 	cmnvs	r4, #-1073741795	; 0xc000001d
    9238:	5f747068 	svcpl	0x00747068
    923c:	646e6168 	strbtvs	r6, [lr], #-360	; 0x168
    9240:	0072656c 	rsbseq	r6, r2, ip, ror #10
    9244:	494e4150 	stmdbmi	lr, {r4, r6, r8, lr}^
    9248:	73253a43 	teqvc	r5, #274432	; 0x43000
    924c:	3a73253a 	bcc	1cd273c <__bss_end__+0x1cc8cb4>
    9250:	253a6425 	ldrcs	r6, [sl, #-1061]!	; 0x425
    9254:	00000a73 	andeq	r0, r0, r3, ror sl
    9258:	34317063 	ldrtcc	r7, [r1], #-99	; 0x63
    925c:	6265642d 	rsbvs	r6, r5, #754974720	; 0x2d000000
    9260:	632e6775 	teqvs	lr, #30670848	; 0x1d40000
    9264:	00000000 	andeq	r0, r0, r0
    9268:	30726377 	rsbscc	r6, r2, r7, ror r3
    926c:	6765725f 			; <UNDEFINED> instruction: 0x6765725f
    9270:	203d3d20 	eorscs	r3, sp, r0, lsr #26
    9274:	30726377 	rsbscc	r6, r2, r7, ror r3
    9278:	7465675f 	strbtvc	r6, [r5], #-1887	; 0x75f
    927c:	00002928 	andeq	r2, r0, r8, lsr #18
    9280:	7561666e 	strbvc	r6, [r1, #-1646]!	; 0x66e
    9284:	253d746c 	ldrcs	r7, [sp, #-1132]!	; 0x46c
    9288:	64203a64 	strtvs	r3, [r0], #-2660	; 0xa64
    928c:	20617461 	rsbcs	r7, r1, r1, ror #8
    9290:	726f6261 	rsbvc	r6, pc, #268435462	; 0x10000006
    9294:	74612074 	strbtvc	r2, [r1], #-116	; 0x74
    9298:	0a702520 	beq	1c12720 <__bss_end__+0x1c08c98>
    929c:	00000000 	andeq	r0, r0, r0
    92a0:	20736177 	rsbscs	r6, r3, r7, ror r1
    92a4:	6d6f7266 	sfmvs	f7, 2, [pc, #-408]!	; 9114 <gpio_set_input+0xc>
    92a8:	6c206120 	stfvss	f6, [r0], #-128	; 0xffffff80
    92ac:	0a64616f 	beq	1921870 <__bss_end__+0x1917de8>
    92b0:	00000000 	andeq	r0, r0, r0
    92b4:	20736177 	rsbscs	r6, r3, r7, ror r1
    92b8:	6d6f7266 	sfmvs	f7, 2, [pc, #-408]!	; 9128 <gpio_write+0x10>
    92bc:	73206120 	teqvc	r0, #32, 2
    92c0:	65726f74 	ldrbvs	r6, [r2, #-3956]!	; 0xf74
    92c4:	0000000a 	andeq	r0, r0, sl
    92c8:	494e4150 	stmdbmi	lr, {r4, r6, r8, lr}^
    92cc:	73253a43 	teqvc	r5, #274432	; 0x43000
    92d0:	3a73253a 	bcc	1cd27c0 <__bss_end__+0x1cc8d38>
    92d4:	693a6425 	ldmdbvs	sl!, {r0, r2, r5, sl, sp, lr}
    92d8:	736f706d 	cmnvc	pc, #109	; 0x6d
    92dc:	6c626973 	stclvs	9, cr6, [r2], #-460	; 0xfffffe34
    92e0:	73203a65 	teqvc	r0, #413696	; 0x65000
    92e4:	6c756f68 	ldclvs	15, cr6, [r5], #-416	; 0xfffffe60
    92e8:	6e6f2064 	cdpvs	0, 6, cr2, cr15, cr4, {3}
    92ec:	6720796c 	strvs	r7, [r0, -ip, ror #18]!
    92f0:	64207465 	strtvs	r7, [r0], #-1125	; 0x465
    92f4:	66617461 	strbtvs	r7, [r1], -r1, ror #8
    92f8:	746c7561 	strbtvc	r7, [ip], #-1377	; 0x561
    92fc:	000a0a73 	andeq	r0, sl, r3, ror sl
    9300:	34317063 	ldrtcc	r7, [r1], #-99	; 0x63
    9304:	6265642d 	rsbvs	r6, r5, #754974720	; 0x2d000000
    9308:	682e6775 	stmdavs	lr!, {r0, r2, r4, r5, r6, r8, r9, sl, sp, lr}
    930c:	00000000 	andeq	r0, r0, r0
    9310:	72616677 	rsbvc	r6, r1, #124780544	; 0x7700000
    9314:	64646120 	strbtvs	r6, [r4], #-288	; 0x120
    9318:	73736572 	cmnvc	r3, #478150656	; 0x1c800000
    931c:	25203d20 	strcs	r3, [r0, #-3360]!	; 0xd20
    9320:	70202c70 	eorvc	r2, r0, r0, ror ip
    9324:	203d2063 	eorscs	r2, sp, r3, rrx
    9328:	000a7025 	andeq	r7, sl, r5, lsr #32
    932c:	72616677 	rsbvc	r6, r1, #124780544	; 0x7700000
    9330:	7465675f 	strbtvc	r6, [r5], #-1887	; 0x75f
    9334:	342d2928 	strtcc	r2, [sp], #-2344	; 0x928
    9338:	203d3d20 	eorscs	r3, sp, r0, lsr #26
    933c:	00006370 	andeq	r6, r0, r0, ror r3
    9340:	63746177 	cmnvs	r4, #-1073741795	; 0xc000001d
    9344:	5f747068 	svcpl	0x00747068
    9348:	646e6168 	strbtvs	r6, [lr], #-360	; 0x168
    934c:	3072656c 	rsbscc	r6, r2, ip, ror #10
    9350:	00000000 	andeq	r0, r0, r0
    9354:	20726166 	rsbscs	r6, r2, r6, ror #2
    9358:	72646461 	rsbvc	r6, r4, #1627389952	; 0x61000000
    935c:	20737365 	rsbscs	r7, r3, r5, ror #6
    9360:	7025203d 	eorvc	r2, r5, sp, lsr r0
    9364:	0000000a 	andeq	r0, r0, sl
    9368:	66657270 			; <UNDEFINED> instruction: 0x66657270
    936c:	68637465 	stmdavs	r3!, {r0, r2, r5, r6, sl, ip, sp, lr}^
    9370:	6f626120 	svcvs	0x00626120
    9374:	61207472 	teqvs	r0, r2, ror r4
    9378:	70252074 	eorvc	r2, r5, r4, ror r0
    937c:	0000000a 	andeq	r0, r0, sl
    9380:	494e4150 	stmdbmi	lr, {r4, r6, r8, lr}^
    9384:	73253a43 	teqvc	r5, #274432	; 0x43000
    9388:	3a73253a 	bcc	1cd2878 <__bss_end__+0x1cc8df0>
    938c:	693a6425 	ldmdbvs	sl!, {r0, r2, r5, sl, sp, lr}
    9390:	736f706d 	cmnvc	pc, #109	; 0x6d
    9394:	6c626973 	stclvs	9, cr6, [r2], #-460	; 0xfffffe34
    9398:	73203a65 	teqvc	r0, #413696	; 0x65000
    939c:	6c756f68 	ldclvs	15, cr6, [r5], #-416	; 0xfffffe60
    93a0:	65672064 	strbvs	r2, [r7, #-100]!	; 0x64
    93a4:	6f6e2074 	svcvs	0x006e2074
    93a8:	68746f20 	ldmdavs	r4!, {r5, r8, r9, sl, fp, sp, lr}^
    93ac:	66207265 	strtvs	r7, [r0], -r5, ror #4
    93b0:	746c7561 	strbtvc	r7, [ip], #-1377	; 0x561
    93b4:	000a0a73 	andeq	r0, sl, r3, ror sl
    93b8:	706b7262 	rsbvc	r7, fp, r2, ror #4
    93bc:	61685f74 	smcvs	34292	; 0x85f4
    93c0:	656c646e 	strbvs	r6, [ip, #-1134]!	; 0x46e
    93c4:	00003072 	andeq	r3, r0, r2, ror r0
    93c8:	65746641 	ldrbvs	r6, [r4, #-1601]!	; 0x641
    93cc:	73612072 	cmnvc	r1, #114	; 0x72
    93d0:	74726573 	ldrbtvc	r6, [r2], #-1395	; 0x573
    93d4:	0000000a 	andeq	r0, r0, sl

000093d8 <__FUNCTION__.4367>:
    93d8:	63746177 	cmnvs	r4, #-1073741795	; 0xc000001d
    93dc:	5f747068 	svcpl	0x00747068
    93e0:	30746573 	rsbscc	r6, r4, r3, ror r5
    93e4:	00000000 	andeq	r0, r0, r0

000093e8 <__FUNCTION__.4373>:
    93e8:	61746164 	cmnvs	r4, r4, ror #2
    93ec:	6f62615f 	svcvs	0x0062615f
    93f0:	765f7472 			; <UNDEFINED> instruction: 0x765f7472
    93f4:	6f746365 	svcvs	0x00746365
    93f8:	00000072 	andeq	r0, r0, r2, ror r0

000093fc <__FUNCTION__.4306>:
    93fc:	5f736177 	svcpl	0x00736177
    9400:	75626564 	strbvc	r6, [r2, #-1380]!	; 0x564
    9404:	61645f67 	cmnvs	r4, r7, ror #30
    9408:	61666174 	smcvs	26132	; 0x6614
    940c:	00746c75 	rsbseq	r6, r4, r5, ror ip

00009410 <__FUNCTION__.4417>:
    9410:	66657270 			; <UNDEFINED> instruction: 0x66657270
    9414:	68637465 	stmdavs	r3!, {r0, r2, r5, r6, sl, ip, sp, lr}^
    9418:	6f62615f 	svcvs	0x0062615f
    941c:	765f7472 			; <UNDEFINED> instruction: 0x765f7472
    9420:	6f746365 	svcvs	0x00746365
    9424:	00000072 	andeq	r0, r0, r2, ror r0

00009428 <__FUNCTION__.4249>:
    9428:	74696d65 	strbtvc	r6, [r9], #-3429	; 0xd65
    942c:	00000000 	andeq	r0, r0, r0

00009430 <__FUNCTION__.4197>:
    9430:	5f697072 	svcpl	0x00697072
    9434:	5f746573 	svcpl	0x00746573
    9438:	7074756f 	rsbsvc	r7, r4, pc, ror #10
    943c:	00007475 	andeq	r7, r0, r5, ror r4

00009440 <__FUNCTION__.4272>:
    9440:	705f6176 	subsvc	r6, pc, r6, ror r1	; <UNPREDICTABLE>
    9444:	746e6972 	strbtvc	r6, [lr], #-2418	; 0x972
    9448:	0000006b 	andeq	r0, r0, fp, rrx
    944c:	6362696c 	cmnvs	r2, #108, 18	; 0x1b0000
    9450:	2d61762f 	stclcs	6, cr7, [r1, #-188]!	; 0xffffff44
    9454:	6e697270 	mcrvs	2, 3, r7, cr9, cr0, {3}
    9458:	632e6b74 	teqvs	lr, #116, 22	; 0x1d000
    945c:	00000000 	andeq	r0, r0, r0
    9460:	00000030 	andeq	r0, r0, r0, lsr r0
    9464:	33323130 	teqcc	r2, #48, 2
    9468:	37363534 			; <UNDEFINED> instruction: 0x37363534
    946c:	00003938 	andeq	r3, r0, r8, lsr r9
    9470:	33323130 	teqcc	r2, #48, 2
    9474:	37363534 			; <UNDEFINED> instruction: 0x37363534
    9478:	62613938 	rsbvs	r3, r1, #56, 18	; 0xe0000
    947c:	66656463 	strbtvs	r6, [r5], -r3, ror #8
    9480:	00000000 	andeq	r0, r0, r0
    9484:	00003130 	andeq	r3, r0, r0, lsr r1
    9488:	63747570 	cmnvs	r4, #112, 10	; 0x1c000000
    948c:	0070665f 	rsbseq	r6, r0, pc, asr r6
    9490:	74646977 	strbtvc	r6, [r4], #-2423	; 0x977
    9494:	203c2068 	eorscs	r2, ip, r8, rrx
    9498:	00003233 	andeq	r3, r0, r3, lsr r2
    949c:	494e4150 	stmdbmi	lr, {r4, r6, r8, lr}^
    94a0:	73253a43 	teqvc	r5, #274432	; 0x43000
    94a4:	3a73253a 	bcc	1cd2994 <__bss_end__+0x1cc8f0c>
    94a8:	663a6425 	ldrtvs	r6, [sl], -r5, lsr #8
    94ac:	74616f6c 	strbtvc	r6, [r1], #-3948	; 0xf6c
    94b0:	746f6e20 	strbtvc	r6, [pc], #-3616	; 94b8 <__FUNCTION__.4272+0x78>
    94b4:	616e6520 	cmnvs	lr, r0, lsr #10
    94b8:	64656c62 	strbtvs	r6, [r5], #-3170	; 0xc62
    94bc:	0a212121 	beq	851948 <__bss_end__+0x847ec0>
    94c0:	00000000 	andeq	r0, r0, r0
    94c4:	6e697270 	mcrvs	2, 3, r7, cr9, cr0, {3}
    94c8:	203a6b74 	eorscs	r6, sl, r4, ror fp
    94cc:	20746f6e 	rsbscs	r6, r4, lr, ror #30
    94d0:	646e6168 	strbtvs	r6, [lr], #-360	; 0x168
    94d4:	676e696c 	strbvs	r6, [lr, -ip, ror #18]!
    94d8:	65707320 	ldrbvs	r7, [r0, #-800]!	; 0x320
    94dc:	69666963 	stmdbvs	r6!, {r0, r1, r5, r6, r8, fp, sp, lr}^
    94e0:	27207265 	strcs	r7, [r0, -r5, ror #4]!
    94e4:	20276325 	eorcs	r6, r7, r5, lsr #6
    94e8:	63736128 	cmnvs	r3, #40, 2
    94ec:	253d6969 	ldrcs	r6, [sp, #-2409]!	; 0x969
    94f0:	000a2964 	andeq	r2, sl, r4, ror #18
    94f4:	494e4150 	stmdbmi	lr, {r4, r6, r8, lr}^
    94f8:	73253a43 	teqvc	r5, #274432	; 0x43000
    94fc:	3a73253a 	bcc	1cd29ec <__bss_end__+0x1cc8f64>
    9500:	703a6425 	eorsvc	r6, sl, r5, lsr #8
    9504:	746e6972 	strbtvc	r6, [lr], #-2418	; 0x972
    9508:	7265206b 	rsbvc	r2, r5, #107	; 0x6b
    950c:	0a726f72 	beq	1ca52dc <__bss_end__+0x1c9b854>
    9510:	0000000a 	andeq	r0, r0, sl
    9514:	454e4f44 	strbmi	r4, [lr, #-3908]	; 0xf44
    9518:	0a212121 	beq	8519a4 <__bss_end__+0x847f1c>
    951c:	00000000 	andeq	r0, r0, r0

00009520 <__FUNCTION__.4220>:
    9520:	74736166 	ldrbtvc	r6, [r3], #-358	; 0x166
    9524:	746e695f 	strbtvc	r6, [lr], #-2399	; 0x95f
    9528:	75727265 	ldrbvc	r7, [r2, #-613]!	; 0x265
    952c:	765f7470 			; <UNDEFINED> instruction: 0x765f7470
    9530:	6f746365 	svcvs	0x00746365
    9534:	00000072 	andeq	r0, r0, r2, ror r0
    9538:	494e4150 	stmdbmi	lr, {r4, r6, r8, lr}^
    953c:	73253a43 	teqvc	r5, #274432	; 0x43000
    9540:	3a73253a 	bcc	1cd2a30 <__bss_end__+0x1cc8fa8>
    9544:	453a6425 	ldrmi	r6, [sl, #-1061]!	; 0x425
    9548:	524f5252 	subpl	r5, pc, #536870917	; 0x20000005
    954c:	6e75203a 	mrcvs	0, 3, r2, cr5, cr10, {1}
    9550:	646e6168 	strbtvs	r6, [lr], #-360	; 0x168
    9554:	2064656c 	rsbcs	r6, r4, ip, ror #10
    9558:	65637865 	strbvs	r7, [r3, #-2149]!	; 0x865
    955c:	6f697470 	svcvs	0x00697470
    9560:	253c206e 	ldrcs	r2, [ip, #-110]!	; 0x6e
    9564:	61203e73 	teqvs	r0, r3, ror lr
    9568:	43502074 	cmpmi	r0, #116	; 0x74
    956c:	0a78253d 	beq	1e12a68 <__bss_end__+0x1e08fe0>
    9570:	0000000a 	andeq	r0, r0, sl
    9574:	66617473 			; <UNDEFINED> instruction: 0x66617473
    9578:	72732d66 	rsbsvc	r2, r3, #6528	; 0x1980
    957c:	65642f63 	strbvs	r2, [r4, #-3939]!	; 0xf63
    9580:	6c756166 	ldfvse	f6, [r5], #-408	; 0xfffffe68
    9584:	61682d74 	smcvs	33492	; 0x82d4
    9588:	656c646e 	strbvs	r6, [ip, #-1134]!	; 0x46e
    958c:	61662d72 	smcvs	25298	; 0x62d2
    9590:	632e7473 	teqvs	lr, #1929379840	; 0x73000000
    9594:	00000000 	andeq	r0, r0, r0
    9598:	74736166 	ldrbtvc	r6, [r3], #-358	; 0x166
    959c:	00000000 	andeq	r0, r0, r0

000095a0 <__FUNCTION__.4220>:
    95a0:	65736572 	ldrbvs	r6, [r3, #-1394]!	; 0x572
    95a4:	65765f74 	ldrbvs	r5, [r6, #-3956]!	; 0xf74
    95a8:	726f7463 	rsbvc	r7, pc, #1660944384	; 0x63000000
    95ac:	00000000 	andeq	r0, r0, r0
    95b0:	66617473 			; <UNDEFINED> instruction: 0x66617473
    95b4:	72732d66 	rsbsvc	r2, r3, #6528	; 0x1980
    95b8:	65642f63 	strbvs	r2, [r4, #-3939]!	; 0xf63
    95bc:	6c756166 	ldfvse	f6, [r5], #-408	; 0xfffffe68
    95c0:	61682d74 	smcvs	33492	; 0x82d4
    95c4:	656c646e 	strbvs	r6, [ip, #-1134]!	; 0x46e
    95c8:	65722d72 	ldrbvs	r2, [r2, #-3442]!	; 0xd72
    95cc:	2e746573 	mrccs	5, 3, r6, cr4, cr3, {3}
    95d0:	00000063 	andeq	r0, r0, r3, rrx
    95d4:	65736572 	ldrbvs	r6, [r3, #-1394]!	; 0x572
    95d8:	00000074 	andeq	r0, r0, r4, ror r0

000095dc <__FUNCTION__.4220>:
    95dc:	74666f73 	strbtvc	r6, [r6], #-3955	; 0xf73
    95e0:	65726177 	ldrbvs	r6, [r2, #-375]!	; 0x177
    95e4:	746e695f 	strbtvc	r6, [lr], #-2399	; 0x95f
    95e8:	75727265 	ldrbvc	r7, [r2, #-613]!	; 0x265
    95ec:	765f7470 			; <UNDEFINED> instruction: 0x765f7470
    95f0:	6f746365 	svcvs	0x00746365
    95f4:	00000072 	andeq	r0, r0, r2, ror r0
    95f8:	66617473 			; <UNDEFINED> instruction: 0x66617473
    95fc:	72732d66 	rsbsvc	r2, r3, #6528	; 0x1980
    9600:	65642f63 	strbvs	r2, [r4, #-3939]!	; 0xf63
    9604:	6c756166 	ldfvse	f6, [r5], #-408	; 0xfffffe68
    9608:	61682d74 	smcvs	33492	; 0x82d4
    960c:	656c646e 	strbvs	r6, [ip, #-1134]!	; 0x46e
    9610:	77732d72 			; <UNDEFINED> instruction: 0x77732d72
    9614:	00632e69 	rsbeq	r2, r3, r9, ror #28
    9618:	00697773 	rsbeq	r7, r9, r3, ror r7

0000961c <__FUNCTION__.4220>:
    961c:	65646e75 	strbvs	r6, [r4, #-3701]!	; 0xe75
    9620:	656e6966 	strbvs	r6, [lr, #-2406]!	; 0x966
    9624:	6e695f64 	cdpvs	15, 6, cr5, cr9, cr4, {3}
    9628:	75727473 	ldrbvc	r7, [r2, #-1139]!	; 0x473
    962c:	6f697463 	svcvs	0x00697463
    9630:	65765f6e 	ldrbvs	r5, [r6, #-3950]!	; 0xf6e
    9634:	726f7463 	rsbvc	r7, pc, #1660944384	; 0x63000000
    9638:	00000000 	andeq	r0, r0, r0
    963c:	66617473 			; <UNDEFINED> instruction: 0x66617473
    9640:	72732d66 	rsbsvc	r2, r3, #6528	; 0x1980
    9644:	65642f63 	strbvs	r2, [r4, #-3939]!	; 0xf63
    9648:	6c756166 	ldfvse	f6, [r5], #-408	; 0xfffffe68
    964c:	61682d74 	smcvs	33492	; 0x82d4
    9650:	656c646e 	strbvs	r6, [ip, #-1134]!	; 0x46e
    9654:	6e752d72 	mrcvs	13, 3, r2, cr5, cr2, {3}
    9658:	69666564 	stmdbvs	r6!, {r2, r5, r6, r8, sl, sp, lr}^
    965c:	2d64656e 	cfstr64cs	mvdx6, [r4, #-440]!	; 0xfffffe48
    9660:	74736e69 	ldrbtvc	r6, [r3], #-3689	; 0xe69
    9664:	0000632e 	andeq	r6, r0, lr, lsr #6
    9668:	65646e75 	strbvs	r6, [r4, #-3701]!	; 0xe75
    966c:	656e6966 	strbvs	r6, [lr, #-2406]!	; 0x966
    9670:	6e692064 	cdpvs	0, 6, cr2, cr9, cr4, {3}
    9674:	00007473 	andeq	r7, r0, r3, ror r4

Disassembly of section .bss:

00009678 <__bss_start__>:
    9678:	00000000 	andeq	r0, r0, r0

0000967c <brkpt_handler0>:
    967c:	00000000 	andeq	r0, r0, r0

00009680 <nfaults.4372>:
    9680:	00000000 	andeq	r0, r0, r0

00009684 <init_p.4378>:
    9684:	00000000 	andeq	r0, r0, r0

00009688 <buf.4189>:
	...

Disassembly of section .ARM.attributes:

00000000 <.ARM.attributes>:
   0:	00002a41 	andeq	r2, r0, r1, asr #20
   4:	61656100 	cmnvs	r5, r0, lsl #2
   8:	01006962 	tsteq	r0, r2, ror #18
   c:	00000020 	andeq	r0, r0, r0, lsr #32
  10:	4b5a3605 	blmi	168d82c <__bss_end__+0x1683da4>
  14:	08070600 	stmdaeq	r7, {r9, sl}
  18:	12010901 	andne	r0, r1, #16384	; 0x4000
  1c:	15011404 	strne	r1, [r1, #-1028]	; 0x404
  20:	18031701 	stmdane	r3, {r0, r8, r9, sl, ip}
  24:	22011a01 	andcs	r1, r1, #4096	; 0x1000
  28:	Address 0x0000000000000028 is out of bounds.


Disassembly of section .comment:

00000000 <.comment>:
   0:	3a434347 	bcc	10d0d24 <__bss_end__+0x10c729c>
   4:	4e472820 	cdpmi	8, 4, cr2, cr7, cr0, {1}
   8:	34202955 	strtcc	r2, [r0], #-2389	; 0x955
   c:	332e382e 	teqcc	lr, #3014656	; 0x2e0000
  10:	43434700 	movtmi	r4, #14080	; 0x3700
  14:	3128203a 	teqcc	r8, sl, lsr r0
  18:	2e363a35 	mrccs	10, 1, r3, cr6, cr5, {1}
  1c:	2b312e33 	blcs	c4b8f0 <__bss_end__+0xc41e68>
  20:	326e7673 	rsbcc	r7, lr, #120586240	; 0x7300000
  24:	33303335 	teqcc	r0, #-738197504	; 0xd4000000
  28:	62312d39 	eorsvs	r2, r1, #3648	; 0xe40
  2c:	646c6975 	strbtvs	r6, [ip], #-2421	; 0x975
  30:	36202931 			; <UNDEFINED> instruction: 0x36202931
  34:	312e332e 	teqcc	lr, lr, lsr #6
  38:	31303220 	teqcc	r0, r0, lsr #4
  3c:	32363037 	eorscc	r3, r6, #55	; 0x37
  40:	Address 0x0000000000000040 is out of bounds.


Disassembly of section .debug_info:

00000000 <.debug_info>:
       0:	00000425 	andeq	r0, r0, r5, lsr #8
       4:	00000004 	andeq	r0, r0, r4
       8:	01040000 	mrseq	r0, (UNDEF: 4)
       c:	000000e4 	andeq	r0, r0, r4, ror #1
      10:	00007e01 	andeq	r7, r0, r1, lsl #28
      14:	00000b00 	andeq	r0, r0, r0, lsl #22
      18:	00801000 	addeq	r1, r0, r0
      1c:	0000f400 	andeq	pc, r0, r0, lsl #8
      20:	00000000 	andeq	r0, r0, r0
      24:	05040200 	streq	r0, [r4, #-512]	; 0x200
      28:	00746e69 	rsbseq	r6, r4, r9, ror #28
      2c:	5b070403 	blpl	1c1040 <__bss_end__+0x1b75b8>
      30:	03000001 	movweq	r0, #1
      34:	009b0601 	addseq	r0, fp, r1, lsl #12
      38:	02030000 	andeq	r0, r3, #0
      3c:	0001a105 	andeq	sl, r1, r5, lsl #2
      40:	05040300 	streq	r0, [r4, #-768]	; 0x300
      44:	00000193 	muleq	r0, r3, r1
      48:	8e050803 	cdphi	8, 0, cr0, cr5, cr3, {0}
      4c:	03000001 	movweq	r0, #1
      50:	00990801 	addseq	r0, r9, r1, lsl #16
      54:	02030000 	andeq	r0, r3, #0
      58:	00006307 	andeq	r6, r0, r7, lsl #6
      5c:	01bd0400 			; <UNDEFINED> instruction: 0x01bd0400
      60:	34030000 	strcc	r0, [r3], #-0
      64:	00000068 	andeq	r0, r0, r8, rrx
      68:	56070403 	strpl	r0, [r7], -r3, lsl #8
      6c:	03000001 	movweq	r0, #1
      70:	01510708 	cmpeq	r1, r8, lsl #14
      74:	04030000 	streq	r0, [r3], #-0
      78:	00018507 	andeq	r8, r1, r7, lsl #10
      7c:	03040500 	movweq	r0, #17664	; 0x4500
      80:	00a20801 	adceq	r0, r2, r1, lsl #16
      84:	04060000 	streq	r0, [r6], #-0
      88:	0000008c 	andeq	r0, r0, ip, lsl #1
      8c:	00007f07 	andeq	r7, r0, r7, lsl #30
      90:	007f0800 	rsbseq	r0, pc, r0, lsl #16
      94:	00a10000 	adceq	r0, r1, r0
      98:	76090000 	strvc	r0, [r9], -r0
      9c:	07000000 	streq	r0, [r0, -r0]
      a0:	00c40400 	sbceq	r0, r4, r0, lsl #8
      a4:	8a020000 	bhi	800ac <__bss_end__+0x76624>
      a8:	000000ac 	andeq	r0, r0, ip, lsr #1
      ac:	00b20406 	adcseq	r0, r2, r6, lsl #8
      b0:	c70a0000 	strgt	r0, [sl, -r0]
      b4:	0b000000 	bleq	bc <__code_start__-0x7f44>
      b8:	000000c7 	andeq	r0, r0, r7, asr #1
      bc:	00005d0b 	andeq	r5, r0, fp, lsl #26
      c0:	005d0b00 	subseq	r0, sp, r0, lsl #22
      c4:	06000000 	streq	r0, [r0], -r0
      c8:	00005d04 	andeq	r5, r0, r4, lsl #26
      cc:	01ab0c00 			; <UNDEFINED> instruction: 0x01ab0c00
      d0:	5f020000 	svcpl	0x00020000
      d4:	0000005d 	andeq	r0, r0, sp, asr r0
      d8:	0000e903 	andeq	lr, r0, r3, lsl #18
      dc:	65720d00 	ldrbvs	r0, [r2, #-3328]!	; 0xd00
      e0:	5f020074 	svcpl	0x00020074
      e4:	0000005d 	andeq	r0, r0, sp, asr r0
      e8:	01680c00 	cmneq	r8, r0, lsl #24
      ec:	66020000 	strvs	r0, [r2], -r0
      f0:	0000002c 	andeq	r0, r0, ip, lsr #32
      f4:	00010503 	andeq	r0, r1, r3, lsl #10
      f8:	01b40e00 			; <UNDEFINED> instruction: 0x01b40e00
      fc:	67020000 	strvs	r0, [r2, -r0]
     100:	0000005d 	andeq	r0, r0, sp, asr r0
     104:	00db0c00 	sbcseq	r0, fp, r0, lsl #24
     108:	56020000 	strpl	r0, [r2], -r0
     10c:	0000005d 	andeq	r0, r0, sp, asr r0
     110:	00012103 	andeq	r2, r1, r3, lsl #2
     114:	65720d00 	ldrbvs	r0, [r2, #-3328]!	; 0xd00
     118:	56020074 			; <UNDEFINED> instruction: 0x56020074
     11c:	0000005d 	andeq	r0, r0, sp, asr r0
     120:	017a0f00 	cmneq	sl, r0, lsl #30
     124:	06010000 	streq	r0, [r1], -r0
     128:	00008010 	andeq	r8, r0, r0, lsl r0
     12c:	00000008 	andeq	r0, r0, r8
     130:	014d9c01 	cmpeq	sp, r1, lsl #24
     134:	75100000 	ldrvc	r0, [r0, #-0]
     138:	4d060100 	stfmis	f0, [r6, #-0]
     13c:	01000001 	tsteq	r0, r1
     140:	00781050 	rsbseq	r1, r8, r0, asr r0
     144:	005d0601 	subseq	r0, sp, r1, lsl #12
     148:	51010000 	mrspl	r0, (UNDEF: 1)
     14c:	53040600 	movwpl	r0, #17920	; 0x4600
     150:	11000001 	tstne	r0, r1
     154:	00000012 	andeq	r0, r0, r2, lsl r0
     158:	5d090100 	stfpls	f0, [r9, #-0]
     15c:	18000000 	stmdane	r0, {}	; <UNPREDICTABLE>
     160:	08000080 	stmdaeq	r0, {r7}
     164:	01000000 	mrseq	r0, (UNDEF: 0)
     168:	00017b9c 	muleq	r1, ip, fp
     16c:	00751300 	rsbseq	r1, r5, r0, lsl #6
     170:	014d0901 	cmpeq	sp, r1, lsl #18
     174:	00000000 	andeq	r0, r0, r0
     178:	14000000 	strne	r0, [r0], #-0
     17c:	000000b4 	strheq	r0, [r0], -r4
     180:	80200d01 	eorhi	r0, r0, r1, lsl #26
     184:	00800000 	addeq	r0, r0, r0
     188:	9c010000 	stcls	0, cr0, [r1], {-0}
     18c:	000002f6 	strdeq	r0, [r0], -r6
     190:	00019c15 	andeq	r9, r1, r5, lsl ip
     194:	c70d0100 	strgt	r0, [sp, -r0, lsl #2]
     198:	21000000 	mrscs	r0, (UNDEF: 0)
     19c:	13000000 	movwne	r0, #0
     1a0:	01006370 	tsteq	r0, r0, ror r3
     1a4:	00005d0d 	andeq	r5, r0, sp, lsl #26
     1a8:	00004200 	andeq	r4, r0, r0, lsl #4
     1ac:	02511500 	subseq	r1, r1, #0, 10
     1b0:	0d010000 	stceq	0, cr0, [r1, #-0]
     1b4:	0000005d 	andeq	r0, r0, sp, asr r0
     1b8:	0000006e 	andeq	r0, r0, lr, rrx
     1bc:	0000ce16 	andeq	ip, r0, r6, lsl lr
     1c0:	00030600 	andeq	r0, r3, r0, lsl #12
     1c4:	34030500 	strcc	r0, [r3], #-1280	; 0x500
     1c8:	17000092 			; <UNDEFINED> instruction: 0x17000092
     1cc:	000000e9 	andeq	r0, r0, r9, ror #1
     1d0:	0000802c 	andeq	r8, r0, ip, lsr #32
     1d4:	00000004 	andeq	r0, r0, r4
     1d8:	02110f01 	andseq	r0, r1, #1, 30
     1dc:	2c180000 	ldccs	0, cr0, [r8], {-0}
     1e0:	04000080 	streq	r0, [r0], #-128	; 0x80
     1e4:	19000000 	stmdbne	r0, {}	; <UNPREDICTABLE>
     1e8:	000000f9 	strdeq	r0, [r0], -r9
     1ec:	0000cd1a 	andeq	ip, r0, sl, lsl sp
     1f0:	00802c00 	addeq	r2, r0, r0, lsl #24
     1f4:	00000400 	andeq	r0, r0, r0, lsl #8
     1f8:	18670200 	stmdane	r7!, {r9}^
     1fc:	0000802c 	andeq	r8, r0, ip, lsr #32
     200:	00000004 	andeq	r0, r0, r4
     204:	0000dd1b 	andeq	sp, r0, fp, lsl sp
     208:	00008f00 	andeq	r8, r0, r0, lsl #30
     20c:	00000000 	andeq	r0, r0, r0
     210:	01051700 	tsteq	r5, r0, lsl #14
     214:	803c0000 	eorshi	r0, ip, r0
     218:	00040000 	andeq	r0, r4, r0
     21c:	12010000 	andne	r0, r1, #0
     220:	00000238 	andeq	r0, r0, r8, lsr r2
     224:	00803c18 	addeq	r3, r0, r8, lsl ip
     228:	00000400 	andeq	r0, r0, r0, lsl #8
     22c:	01151b00 	tsteq	r5, r0, lsl #22
     230:	00ad0000 	adceq	r0, sp, r0
     234:	00000000 	andeq	r0, r0, r0
     238:	0000e917 	andeq	lr, r0, r7, lsl r9
     23c:	00805000 	addeq	r5, r0, r0
     240:	00000400 	andeq	r0, r0, r0, lsl #8
     244:	7e130100 	mufvcs	f0, f3, f0
     248:	18000002 	stmdane	r0, {r1}
     24c:	00008050 	andeq	r8, r0, r0, asr r0
     250:	00000004 	andeq	r0, r0, r4
     254:	0000f919 	andeq	pc, r0, r9, lsl r9	; <UNPREDICTABLE>
     258:	00cd1a00 	sbceq	r1, sp, r0, lsl #20
     25c:	80500000 	subshi	r0, r0, r0
     260:	00040000 	andeq	r0, r4, r0
     264:	67020000 	strvs	r0, [r2, -r0]
     268:	00805018 	addeq	r5, r0, r8, lsl r0
     26c:	00000400 	andeq	r0, r0, r0, lsl #8
     270:	00dd1b00 	sbcseq	r1, sp, r0, lsl #22
     274:	00dd0000 	sbcseq	r0, sp, r0
     278:	00000000 	andeq	r0, r0, r0
     27c:	501c0000 	andspl	r0, ip, r0
     280:	eb000080 	bl	488 <__code_start__-0x7b78>
     284:	95000003 	strls	r0, [r0, #-3]
     288:	1d000002 	stcne	0, cr0, [r0, #-8]
     28c:	03055001 	movweq	r5, #20481	; 0x5001
     290:	00009174 	andeq	r9, r0, r4, ror r1
     294:	80601e00 	rsbhi	r1, r0, r0, lsl #28
     298:	04010000 	streq	r0, [r1], #-0
     29c:	741c0000 	ldrvc	r0, [ip], #-0
     2a0:	eb000080 	bl	4a8 <__code_start__-0x7b58>
     2a4:	cc000003 	stcgt	0, cr0, [r0], {3}
     2a8:	1d000002 	stcne	0, cr0, [r0, #-8]
     2ac:	44015301 	strmi	r5, [r1], #-769	; 0x301
     2b0:	0552011d 	ldrbeq	r0, [r2, #-285]	; 0x11d
     2b4:	00923403 	addseq	r3, r2, r3, lsl #8
     2b8:	51011d00 	tstpl	r1, r0, lsl #26
     2bc:	91d80305 	bicsls	r0, r8, r5, lsl #6
     2c0:	011d0000 	tsteq	sp, r0
     2c4:	b8030550 	stmdalt	r3, {r4, r6, r8, sl}
     2c8:	00000091 	muleq	r0, r1, r0
     2cc:	0080781e 	addeq	r7, r0, lr, lsl r8
     2d0:	00040800 	andeq	r0, r4, r0, lsl #16
     2d4:	80801c00 	addhi	r1, r0, r0, lsl #24
     2d8:	03eb0000 	mvneq	r0, #0
     2dc:	02ec0000 	rsceq	r0, ip, #0
     2e0:	011d0000 	tsteq	sp, r0
     2e4:	e8030550 	stmda	r3, {r4, r6, r8, sl}
     2e8:	00000091 	muleq	r0, r1, r0
     2ec:	0080841e 	addeq	r8, r0, lr, lsl r4
     2f0:	00040800 	andeq	r0, r4, r0, lsl #16
     2f4:	7f080000 	svcvc	0x00080000
     2f8:	06000000 	streq	r0, [r0], -r0
     2fc:	09000003 	stmdbeq	r0, {r0, r1}
     300:	00000076 	andeq	r0, r0, r6, ror r0
     304:	f607000f 			; <UNDEFINED> instruction: 0xf607000f
     308:	0f000002 	svceq	0x00000002
     30c:	00000076 	andeq	r0, r0, r6, ror r0
     310:	80a01901 	adchi	r1, r0, r1, lsl #18
     314:	00640000 	rsbeq	r0, r4, r0
     318:	9c010000 	stcls	0, cr0, [r1], {-0}
     31c:	000003e6 	andeq	r0, r0, r6, ror #7
     320:	0100701f 	tsteq	r0, pc, lsl r0
     324:	00007d1c 	andeq	r7, r0, ip, lsl sp
     328:	ce160000 	cdpgt	0, 1, cr0, cr6, cr0, {0}
     32c:	e6000000 	str	r0, [r0], -r0
     330:	05000003 	streq	r0, [r0, #-3]
     334:	00922c03 	addseq	r2, r2, r3, lsl #24
     338:	80a81e00 	adchi	r1, r8, r0, lsl #28
     33c:	040f0000 	streq	r0, [pc], #-0	; 344 <__code_start__-0x7cbc>
     340:	b41c0000 	ldrlt	r0, [ip], #-0
     344:	16000080 	strne	r0, [r0], -r0, lsl #1
     348:	5e000004 	cdppl	0, 0, cr0, cr0, cr4, {0}
     34c:	1d000003 	stcne	0, cr0, [r0, #-12]
     350:	03055101 	movweq	r5, #20737	; 0x5101
     354:	00008020 	andeq	r8, r0, r0, lsr #32
     358:	0150011d 	cmpeq	r0, sp, lsl r1
     35c:	c01c0030 	andsgt	r0, ip, r0, lsr r0
     360:	eb000080 	bl	568 <__code_start__-0x7a98>
     364:	7a000003 	bvc	378 <__code_start__-0x7c88>
     368:	1d000003 	stcne	0, cr0, [r0, #-12]
     36c:	30015101 	andcc	r5, r1, r1, lsl #2
     370:	0550011d 	ldrbeq	r0, [r0, #-285]	; 0x11d
     374:	0091f403 	addseq	pc, r1, r3, lsl #8
     378:	c81c0000 	ldmdagt	ip, {}	; <UNPREDICTABLE>
     37c:	eb000080 	bl	584 <__code_start__-0x7a7c>
     380:	91000003 	tstls	r0, r3
     384:	1d000003 	stcne	0, cr0, [r0, #-12]
     388:	03055001 	movweq	r5, #20481	; 0x5001
     38c:	00009210 	andeq	r9, r0, r0, lsl r2
     390:	80d01c00 	sbcshi	r1, r0, r0, lsl #24
     394:	01540000 	cmpeq	r4, r0
     398:	03a40000 			; <UNDEFINED> instruction: 0x03a40000
     39c:	011d0000 	tsteq	sp, r0
     3a0:	00300150 	eorseq	r0, r0, r0, asr r1
     3a4:	0080d41e 	addeq	sp, r0, lr, lsl r4
     3a8:	00040100 	andeq	r0, r4, r0, lsl #2
     3ac:	80e81c00 	rschi	r1, r8, r0, lsl #24
     3b0:	03eb0000 	mvneq	r0, #0
     3b4:	03dc0000 	bicseq	r0, ip, #0
     3b8:	011d0000 	tsteq	sp, r0
     3bc:	22080253 	andcs	r0, r8, #805306373	; 0x30000005
     3c0:	0552011d 	ldrbeq	r0, [r2, #-285]	; 0x11d
     3c4:	00922c03 	addseq	r2, r2, r3, lsl #24
     3c8:	51011d00 	tstpl	r1, r0, lsl #26
     3cc:	91d80305 	bicsls	r0, r8, r5, lsl #6
     3d0:	011d0000 	tsteq	sp, r0
     3d4:	b8030550 	stmdalt	r3, {r4, r6, r8, sl}
     3d8:	00000091 	muleq	r0, r1, r0
     3dc:	0080ec1e 	addeq	lr, r0, lr, lsl ip
     3e0:	00040800 	andeq	r0, r4, r0, lsl #16
     3e4:	91070000 	mrsls	r0, (UNDEF: 7)
     3e8:	20000000 	andcs	r0, r0, r0
     3ec:	000003a6 	andeq	r0, r0, r6, lsr #7
     3f0:	00252904 	eoreq	r2, r5, r4, lsl #18
     3f4:	04010000 	streq	r0, [r1], #-0
     3f8:	860b0000 	strhi	r0, [fp], -r0
     3fc:	21000000 	mrscs	r0, (UNDEF: 0)
     400:	01d22200 	bicseq	r2, r2, r0, lsl #4
     404:	1e040000 	cdpne	0, 0, cr0, cr4, cr0, {0}
     408:	0000a722 	andeq	sl, r0, r2, lsr #14
     40c:	22650400 	rsbcs	r0, r5, #0, 8
     410:	000001c6 	andeq	r0, r0, r6, asr #3
     414:	8c239002 	stchi	0, cr9, [r3], #-8
     418:	02000000 	andeq	r0, r0, #0
     41c:	007d0b8d 	rsbseq	r0, sp, sp, lsl #23
     420:	a10b0000 	mrsge	r0, (UNDEF: 11)
     424:	00000000 	andeq	r0, r0, r0
     428:	000abd00 	andeq	fp, sl, r0, lsl #26
     42c:	d2000400 	andle	r0, r0, #0, 8
     430:	04000001 	streq	r0, [r0], #-1
     434:	0000e401 	andeq	lr, r0, r1, lsl #8
     438:	02bf0100 	adcseq	r0, pc, #0, 2
     43c:	000b0000 	andeq	r0, fp, r0
     440:	81040000 	mrshi	r0, (UNDEF: 4)
     444:	03440000 	movteq	r0, #16384	; 0x4000
     448:	01380000 	teqeq	r8, r0
     44c:	04020000 	streq	r0, [r2], #-0
     450:	746e6905 	strbtvc	r6, [lr], #-2309	; 0x905
     454:	07040300 	streq	r0, [r4, -r0, lsl #6]
     458:	0000015b 	andeq	r0, r0, fp, asr r1
     45c:	9b060103 	blls	180870 <__bss_end__+0x176de8>
     460:	03000000 	movweq	r0, #0
     464:	01a10502 			; <UNDEFINED> instruction: 0x01a10502
     468:	04030000 	streq	r0, [r3], #-0
     46c:	00019305 	andeq	r9, r1, r5, lsl #6
     470:	05080300 	streq	r0, [r8, #-768]	; 0x300
     474:	0000018e 	andeq	r0, r0, lr, lsl #3
     478:	99080103 	stmdbls	r8, {r0, r1, r8}
     47c:	03000000 	movweq	r0, #0
     480:	00630702 	rsbeq	r0, r3, r2, lsl #14
     484:	bd040000 	stclt	0, cr0, [r4, #-0]
     488:	03000001 	movweq	r0, #1
     48c:	00006834 	andeq	r6, r0, r4, lsr r8
     490:	07040300 	streq	r0, [r4, -r0, lsl #6]
     494:	00000156 	andeq	r0, r0, r6, asr r1
     498:	51070803 	tstpl	r7, r3, lsl #16
     49c:	03000001 	movweq	r0, #1
     4a0:	01850704 	orreq	r0, r5, r4, lsl #14
     4a4:	04050000 	streq	r0, [r5], #-0
     4a8:	a2080103 	andge	r0, r8, #-1073741824	; 0xc0000000
     4ac:	06000000 	streq	r0, [r0], -r0
     4b0:	00008c04 	andeq	r8, r0, r4, lsl #24
     4b4:	007f0700 	rsbseq	r0, pc, r0, lsl #14
     4b8:	c4040000 	strgt	r0, [r4], #-0
     4bc:	02000000 	andeq	r0, r0, #0
     4c0:	00009c8a 	andeq	r9, r0, sl, lsl #25
     4c4:	a2040600 	andge	r0, r4, #0, 12
     4c8:	08000000 	stmdaeq	r0, {}	; <UNPREDICTABLE>
     4cc:	000000b7 	strheq	r0, [r0], -r7
     4d0:	0000b709 	andeq	fp, r0, r9, lsl #14
     4d4:	005d0900 	subseq	r0, sp, r0, lsl #18
     4d8:	5d090000 	stcpl	0, cr0, [r9, #-0]
     4dc:	00000000 	andeq	r0, r0, r0
     4e0:	005d0406 	subseq	r0, sp, r6, lsl #8
     4e4:	ab0a0000 	blge	2804ec <__bss_end__+0x276a64>
     4e8:	02000001 	andeq	r0, r0, #1
     4ec:	00005d5f 	andeq	r5, r0, pc, asr sp
     4f0:	00d90300 	sbcseq	r0, r9, r0, lsl #6
     4f4:	720b0000 	andvc	r0, fp, #0
     4f8:	02007465 	andeq	r7, r0, #1694498816	; 0x65000000
     4fc:	00005d5f 	andeq	r5, r0, pc, asr sp
     500:	da0a0000 	ble	280508 <__bss_end__+0x276a80>
     504:	02000002 	andeq	r0, r0, #2
     508:	00005da6 	andeq	r5, r0, r6, lsr #27
     50c:	00f50300 	rscseq	r0, r5, r0, lsl #6
     510:	720b0000 	andvc	r0, fp, #0
     514:	02007465 	andeq	r7, r0, #1694498816	; 0x65000000
     518:	00005da6 	andeq	r5, r0, r6, lsr #27
     51c:	120a0000 	andne	r0, sl, #0
     520:	02000002 	andeq	r0, r0, #2
     524:	00002c70 	andeq	r2, r0, r0, ror ip
     528:	010f0300 	mrseq	r0, SP_hyp
     52c:	720c0000 	andvc	r0, ip, #0
     530:	5d700200 	lfmpl	f0, 2, [r0, #-0]
     534:	00000000 	andeq	r0, r0, r0
     538:	0002e30a 	andeq	lr, r2, sl, lsl #6
     53c:	5d180100 	ldfpls	f0, [r8, #-0]
     540:	03000000 	movweq	r0, #0
     544:	0000012b 	andeq	r0, r0, fp, lsr #2
     548:	7465720b 	strbtvc	r7, [r5], #-523	; 0x20b
     54c:	5d180100 	ldfpls	f0, [r8, #-0]
     550:	00000000 	andeq	r0, r0, r0
     554:	00030f0d 	andeq	r0, r3, sp, lsl #30
     558:	031e0100 	tsteq	lr, #0, 2
     55c:	00000141 	andeq	r0, r0, r1, asr #2
     560:	0100760c 	tsteq	r0, ip, lsl #12
     564:	00005d1e 	andeq	r5, r0, lr, lsl sp
     568:	a60d0000 	strge	r0, [sp], -r0
     56c:	01000002 	tsteq	r0, r2
     570:	01570326 	cmpeq	r7, r6, lsr #6
     574:	760c0000 	strvc	r0, [ip], -r0
     578:	5d260100 	stfpls	f0, [r6, #-0]
     57c:	00000000 	andeq	r0, r0, r0
     580:	0001f70d 	andeq	pc, r1, sp, lsl #14
     584:	030d0100 	movweq	r0, #53504	; 0xd100
     588:	0000016d 	andeq	r0, r0, sp, ror #2
     58c:	0100760c 	tsteq	r0, ip, lsl #12
     590:	00005d0d 	andeq	r5, r0, sp, lsl #26
     594:	680a0000 	stmdavs	sl, {}	; <UNPREDICTABLE>
     598:	02000001 	andeq	r0, r0, #1
     59c:	00002c66 	andeq	r2, r0, r6, ror #24
     5a0:	01890300 	orreq	r0, r9, r0, lsl #6
     5a4:	b40e0000 	strlt	r0, [lr], #-0
     5a8:	02000001 	andeq	r0, r0, #1
     5ac:	00005d67 	andeq	r5, r0, r7, ror #26
     5b0:	db0a0000 	blle	2805b8 <__bss_end__+0x276b30>
     5b4:	02000000 	andeq	r0, r0, #0
     5b8:	00005d56 	andeq	r5, r0, r6, asr sp
     5bc:	01a50300 			; <UNDEFINED> instruction: 0x01a50300
     5c0:	720b0000 	andvc	r0, fp, #0
     5c4:	02007465 	andeq	r7, r0, #1694498816	; 0x65000000
     5c8:	00005d56 	andeq	r5, r0, r6, asr sp
     5cc:	240a0000 	strcs	r0, [sl], #-0
     5d0:	02000002 	andeq	r0, r0, #2
     5d4:	00005d63 	andeq	r5, r0, r3, ror #26
     5d8:	01c10300 	biceq	r0, r1, r0, lsl #6
     5dc:	720b0000 	andvc	r0, fp, #0
     5e0:	02007465 	andeq	r7, r0, #1694498816	; 0x65000000
     5e4:	00005d63 	andeq	r5, r0, r3, ror #26
     5e8:	b60d0000 	strlt	r0, [sp], -r0
     5ec:	01000002 	tsteq	r0, r2
     5f0:	01d70332 	bicseq	r0, r7, r2, lsr r3
     5f4:	760c0000 	strvc	r0, [ip], -r0
     5f8:	5d320100 	ldfpls	f0, [r2, #-0]
     5fc:	00000000 	andeq	r0, r0, r0
     600:	0002cc0a 	andeq	ip, r2, sl, lsl #24
     604:	5d8b0100 	stfpls	f0, [fp]
     608:	03000000 	movweq	r0, #0
     60c:	000001f3 	strdeq	r0, [r0], -r3
     610:	7465720b 	strbtvc	r7, [r5], #-523	; 0x20b
     614:	5d8b0100 	stfpls	f0, [fp]
     618:	00000000 	andeq	r0, r0, r0
     61c:	0003210d 	andeq	r2, r3, sp, lsl #2
     620:	038c0100 	orreq	r0, ip, #0, 2
     624:	00000209 	andeq	r0, r0, r9, lsl #4
     628:	0100760c 	tsteq	r0, ip, lsl #12
     62c:	00005d8c 	andeq	r5, r0, ip, lsl #27
     630:	720d0000 	andvc	r0, sp, #0
     634:	01000002 	tsteq	r0, r2
     638:	021f038a 	andseq	r0, pc, #671088642	; 0x28000002
     63c:	760c0000 	strvc	r0, [ip], -r0
     640:	5d8a0100 	stfpls	f0, [sl]
     644:	00000000 	andeq	r0, r0, r0
     648:	0002ec0a 	andeq	lr, r2, sl, lsl #24
     64c:	2ca90200 	sfmcs	f0, 4, [r9]
     650:	03000000 	movweq	r0, #0
     654:	00000239 	andeq	r0, r0, r9, lsr r2
     658:	0200720b 	andeq	r7, r0, #-1342177280	; 0xb0000000
     65c:	00002caa 	andeq	r2, r0, sl, lsr #25
     660:	230a0000 	movwcs	r0, #40960	; 0xa000
     664:	02000002 	andeq	r0, r0, #2
     668:	00005d97 	muleq	r0, r7, sp
     66c:	02550300 	subseq	r0, r5, #0, 6
     670:	720b0000 	andvc	r0, fp, #0
     674:	02007465 	andeq	r7, r0, #1694498816	; 0x65000000
     678:	00005d97 	muleq	r0, r7, sp
     67c:	8c0f0000 	stchi	0, cr0, [pc], {-0}
     680:	01000000 	mrseq	r0, (UNDEF: 0)
     684:	00810436 	addeq	r0, r1, r6, lsr r4
     688:	0000b000 	andeq	fp, r0, r0
     68c:	309c0100 	addscc	r0, ip, r0, lsl #2
     690:	10000004 	andne	r0, r0, r4
     694:	00000250 	andeq	r0, r0, r0, asr r2
     698:	007d3601 	rsbseq	r3, sp, r1, lsl #12
     69c:	00fb0000 	rscseq	r0, fp, r0
     6a0:	ca100000 	bgt	4006a8 <__bss_end__+0x3f6c20>
     6a4:	01000004 	tsteq	r0, r4
     6a8:	00009136 	andeq	r9, r0, r6, lsr r1
     6ac:	00014000 	andeq	r4, r1, r0
     6b0:	02471100 	subeq	r1, r7, #0, 2
     6b4:	39010000 	stmdbcc	r1, {}	; <UNPREDICTABLE>
     6b8:	0000005d 	andeq	r0, r0, sp, asr r0
     6bc:	00000185 	andeq	r0, r0, r5, lsl #3
     6c0:	0000ce12 	andeq	ip, r0, r2, lsl lr
     6c4:	00044000 	andeq	r4, r4, r0
     6c8:	d8030500 	stmdale	r3, {r8, sl}
     6cc:	11000093 	swpne	r0, r3, [r0]	; <UNPREDICTABLE>
     6d0:	0000022c 	andeq	r0, r0, ip, lsr #4
     6d4:	005d4301 	subseq	r4, sp, r1, lsl #6
     6d8:	01b10000 			; <UNDEFINED> instruction: 0x01b10000
     6dc:	0f130000 	svceq	0x00130000
     6e0:	0c000001 	stceq	0, cr0, [r0], {1}
     6e4:	04000081 	streq	r0, [r0], #-129	; 0x81
     6e8:	01000000 	mrseq	r0, (UNDEF: 0)
     6ec:	0002dc39 	andeq	sp, r2, r9, lsr ip
     6f0:	810c1400 	tsthi	ip, r0, lsl #8
     6f4:	00040000 	andeq	r0, r4, r0
     6f8:	1f150000 	svcne	0x00150000
     6fc:	dd000001 	stcle	0, cr0, [r0, #-4]
     700:	00000001 	andeq	r0, r0, r1
     704:	012b1300 	teqeq	fp, r0, lsl #6
     708:	81140000 	tsthi	r4, r0
     70c:	00040000 	andeq	r0, r4, r0
     710:	3f010000 	svccc	0x00010000
     714:	000002f9 	strdeq	r0, [r0], -r9
     718:	00013716 	andeq	r3, r1, r6, lsl r7
     71c:	0001f000 	andeq	pc, r1, r0
     720:	0f130000 	svceq	0x00130000
     724:	18000001 	stmdane	r0, {r0}
     728:	04000081 	streq	r0, [r0], #-129	; 0x81
     72c:	01000000 	mrseq	r0, (UNDEF: 0)
     730:	00032041 	andeq	r2, r3, r1, asr #32
     734:	81181400 	tsthi	r8, r0, lsl #8
     738:	00040000 	andeq	r0, r4, r0
     73c:	1f150000 	svcne	0x00150000
     740:	0e000001 	cdpeq	0, 0, cr0, cr0, cr1, {0}
     744:	00000002 	andeq	r0, r0, r2
     748:	01411300 	mrseq	r1, (UNDEF: 113)
     74c:	81480000 	mrshi	r0, (UNDEF: 72)
     750:	00040000 	andeq	r0, r4, r0
     754:	46010000 	strmi	r0, [r1], -r0
     758:	0000033d 	andeq	r0, r0, sp, lsr r3
     75c:	00014d16 	andeq	r4, r1, r6, lsl sp
     760:	0001b100 	andeq	fp, r1, r0, lsl #2
     764:	2b130000 	blcs	4c076c <__bss_end__+0x4b6ce4>
     768:	4c000001 	stcmi	0, cr0, [r0], {1}
     76c:	08000081 	stmdaeq	r0, {r0, r7}
     770:	01000000 	mrseq	r0, (UNDEF: 0)
     774:	00035850 	andeq	r5, r3, r0, asr r8
     778:	01371700 	teqeq	r7, r0, lsl #14
     77c:	01ff0000 	mvnseq	r0, r0
     780:	010f1300 	mrseq	r1, SP_hyp
     784:	81540000 	cmphi	r4, r0
     788:	00040000 	andeq	r0, r4, r0
     78c:	52010000 	andpl	r0, r1, #0
     790:	0000037f 	andeq	r0, r0, pc, ror r3
     794:	00815414 	addeq	r5, r1, r4, lsl r4
     798:	00000400 	andeq	r0, r0, r0, lsl #8
     79c:	011f1500 	tsteq	pc, r0, lsl #10
     7a0:	022c0000 	eoreq	r0, ip, #0
     7a4:	00000000 	andeq	r0, r0, r0
     7a8:	00015713 	andeq	r5, r1, r3, lsl r7
     7ac:	00818400 	addeq	r8, r1, r0, lsl #8
     7b0:	00000800 	andeq	r0, r0, r0, lsl #16
     7b4:	99540100 	ldmdbls	r4, {r8}^
     7b8:	18000003 	stmdane	r0, {r0, r1}
     7bc:	00000163 	andeq	r0, r0, r3, ror #2
     7c0:	28190000 	ldmdacs	r9, {}	; <UNPREDICTABLE>
     7c4:	95000081 	strls	r0, [r0, #-129]	; 0x81
     7c8:	1a00000a 	bne	7f8 <__code_start__-0x7808>
     7cc:	00008144 	andeq	r8, r0, r4, asr #2
     7d0:	00000a9c 	muleq	r0, ip, sl
     7d4:	000003db 	ldrdeq	r0, [r0], -fp
     7d8:	0253011b 	subseq	r0, r3, #-1073741818	; 0xc0000006
     7dc:	011b4108 	tsteq	fp, r8, lsl #2
     7e0:	d8030552 	stmdale	r3, {r1, r4, r6, r8, sl}
     7e4:	1b000093 	blne	a38 <__code_start__-0x75c8>
     7e8:	03055101 	movweq	r5, #20737	; 0x5101
     7ec:	00009258 	andeq	r9, r0, r8, asr r2
     7f0:	0550011b 	ldrbeq	r0, [r0, #-283]	; 0x11b
     7f4:	00924403 	addseq	r4, r2, r3, lsl #8
     7f8:	7d021b00 	vstrvc	d1, [r2, #-0]
     7fc:	68030500 	stmdavs	r3, {r8, sl}
     800:	00000092 	muleq	r0, r2, r0
     804:	00814819 	addeq	r4, r1, r9, lsl r8
     808:	000ab200 	andeq	fp, sl, r0, lsl #4
     80c:	81641900 	cmnhi	r4, r0, lsl #18
     810:	0a950000 	beq	fe540818 <__bss_end__+0xfe536d90>
     814:	801a0000 	andshi	r0, sl, r0
     818:	9c000081 	stcls	0, cr0, [r0], {129}	; 0x81
     81c:	2600000a 	strcs	r0, [r0], -sl
     820:	1b000004 	blne	838 <__code_start__-0x77c8>
     824:	08025301 	stmdaeq	r2, {r0, r8, r9, ip, lr}
     828:	52011b52 	andpl	r1, r1, #83968	; 0x14800
     82c:	93d80305 	bicsls	r0, r8, #335544320	; 0x14000000
     830:	011b0000 	tsteq	fp, r0
     834:	58030551 	stmdapl	r3, {r0, r4, r6, r8, sl}
     838:	1b000092 	blne	a88 <__code_start__-0x7578>
     83c:	03055001 	movweq	r5, #20481	; 0x5001
     840:	00009244 	andeq	r9, r0, r4, asr #4
     844:	007d021b 	rsbseq	r0, sp, fp, lsl r2
     848:	92680305 	rsbls	r0, r8, #335544320	; 0x14000000
     84c:	19000000 	stmdbne	r0, {}	; <UNPREDICTABLE>
     850:	00008184 	andeq	r8, r0, r4, lsl #3
     854:	00000ab2 			; <UNDEFINED> instruction: 0x00000ab2
     858:	007f1c00 	rsbseq	r1, pc, r0, lsl #24
     85c:	04400000 	strbeq	r0, [r0], #-0
     860:	761d0000 	ldrvc	r0, [sp], -r0
     864:	0c000000 	stceq	0, cr0, [r0], {-0}
     868:	04300700 	ldrteq	r0, [r0], #-1792	; 0x700
     86c:	800a0000 	andhi	r0, sl, r0
     870:	02000002 	andeq	r0, r0, #2
     874:	00002c76 	andeq	r2, r0, r6, ror ip
     878:	046c0300 	strbteq	r0, [ip], #-768	; 0x300
     87c:	720b0000 	andvc	r0, fp, #0
     880:	2c770200 	lfmcs	f0, 2, [r7], #-0
     884:	1e000000 	cdpne	0, 0, cr0, cr0, cr0, {0}
     888:	000000ce 	andeq	r0, r0, lr, asr #1
     88c:	0000047c 	andeq	r0, r0, ip, ror r4
     890:	00000280 	andeq	r0, r0, r0, lsl #5
     894:	007f1c00 	rsbseq	r1, pc, r0, lsl #24
     898:	047c0000 	ldrbteq	r0, [ip], #-0
     89c:	761d0000 	ldrvc	r0, [sp], -r0
     8a0:	13000000 	movwne	r0, #0
     8a4:	046c0700 	strbteq	r0, [ip], #-1792	; 0x700
     8a8:	940f0000 	strls	r0, [pc], #-0	; 8b0 <__code_start__-0x7750>
     8ac:	01000002 	tsteq	r0, r2
     8b0:	0081b459 	addeq	fp, r1, r9, asr r4
     8b4:	00015c00 	andeq	r5, r1, r0, lsl #24
     8b8:	689c0100 	ldmvs	ip, {r8}
     8bc:	1f000007 	svcne	0x00000007
     8c0:	01006370 	tsteq	r0, r0, ror r3
     8c4:	00002c59 	andeq	r2, r0, r9, asr ip
     8c8:	00024a00 	andeq	r4, r2, r0, lsl #20
     8cc:	020a2000 	andeq	r2, sl, #0
     8d0:	5a010000 	bpl	408d8 <__bss_end__+0x36e50>
     8d4:	00000025 	andeq	r0, r0, r5, lsr #32
     8d8:	96800305 	strls	r0, [r0], r5, lsl #6
     8dc:	ce120000 	cdpgt	0, 1, cr0, cr2, cr0, {0}
     8e0:	78000000 	stmdavc	r0, {}	; <UNPREDICTABLE>
     8e4:	05000007 	streq	r0, [r0, #-7]
     8e8:	0093e803 	addseq	lr, r3, r3, lsl #16
     8ec:	02510e00 	subseq	r0, r1, #0, 28
     8f0:	69010000 	stmdbvs	r1, {}	; <UNPREDICTABLE>
     8f4:	0000005d 	andeq	r0, r0, sp, asr r0
     8f8:	00016d13 	andeq	r6, r1, r3, lsl sp
     8fc:	0081dc00 	addeq	sp, r1, r0, lsl #24
     900:	00000400 	andeq	r0, r0, r0, lsl #8
     904:	155c0100 	ldrbne	r0, [ip, #-256]	; 0x100
     908:	14000005 	strne	r0, [r0], #-5
     90c:	000081dc 	ldrdeq	r8, [r0], -ip
     910:	00000004 	andeq	r0, r0, r4
     914:	00017d21 	andeq	r7, r1, r1, lsr #26
     918:	00bd2200 	adcseq	r2, sp, r0, lsl #4
     91c:	81dc0000 	bicshi	r0, ip, r0
     920:	00040000 	andeq	r0, r4, r0
     924:	67020000 	strvs	r0, [r2, -r0]
     928:	0081dc14 	addeq	sp, r1, r4, lsl ip
     92c:	00000400 	andeq	r0, r0, r0, lsl #8
     930:	00cd1500 	sbceq	r1, sp, r0, lsl #10
     934:	02760000 	rsbseq	r0, r6, #0
     938:	00000000 	andeq	r0, r0, r0
     93c:	45130000 	ldrmi	r0, [r3, #-0]
     940:	fc000004 	stc2	0, cr0, [r0], {4}
     944:	2c000081 	stccs	0, cr0, [r0], {129}	; 0x81
     948:	01000000 	mrseq	r0, (UNDEF: 0)
     94c:	0005c860 	andeq	ip, r5, r0, ror #16
     950:	81fc1400 	mvnshi	r1, r0, lsl #8
     954:	002c0000 	eoreq	r0, ip, r0
     958:	55210000 	strpl	r0, [r1, #-0]!
     95c:	23000004 	movwcs	r0, #4
     960:	0000045e 	andeq	r0, r0, lr, asr r4
     964:	93fc0305 	mvnsls	r0, #335544320	; 0x14000000
     968:	bd130000 	ldclt	0, cr0, [r3, #-0]
     96c:	fc000000 	stc2	0, cr0, [r0], {-0}
     970:	04000081 	streq	r0, [r0], #-129	; 0x81
     974:	02000000 	andeq	r0, r0, #0
     978:	00056877 	andeq	r6, r5, r7, ror r8
     97c:	81fc1400 	mvnshi	r1, r0, lsl #8
     980:	00040000 	andeq	r0, r4, r0
     984:	cd150000 	ldcgt	0, cr0, [r5, #-0]
     988:	94000000 	strls	r0, [r0], #-0
     98c:	00000002 	andeq	r0, r0, r2
     990:	00f51300 	rscseq	r1, r5, r0, lsl #6
     994:	82000000 	andhi	r0, r0, #0
     998:	00040000 	andeq	r0, r4, r0
     99c:	78020000 	stmdavc	r2, {}	; <UNPREDICTABLE>
     9a0:	00000585 	andeq	r0, r0, r5, lsl #11
     9a4:	00010516 	andeq	r0, r1, r6, lsl r5
     9a8:	00029400 	andeq	r9, r2, r0, lsl #8
     9ac:	10190000 	andsne	r0, r9, r0
     9b0:	95000082 	strls	r0, [r0, #-130]	; 0x82
     9b4:	1a00000a 	bne	9e4 <__code_start__-0x761c>
     9b8:	00008224 	andeq	r8, r0, r4, lsr #4
     9bc:	00000a9c 	muleq	r0, ip, sl
     9c0:	000005bd 			; <UNDEFINED> instruction: 0x000005bd
     9c4:	0253011b 	subseq	r0, r3, #-1073741818	; 0xc0000006
     9c8:	011b7908 	tsteq	fp, r8, lsl #18
     9cc:	fc030552 	stc2	5, cr0, [r3], {82}	; 0x52
     9d0:	1b000093 	blne	c24 <__code_start__-0x73dc>
     9d4:	03055101 	movweq	r5, #20737	; 0x5101
     9d8:	00009300 	andeq	r9, r0, r0, lsl #6
     9dc:	0550011b 	ldrbeq	r0, [r0, #-283]	; 0x11b
     9e0:	0092c803 	addseq	ip, r2, r3, lsl #16
     9e4:	28190000 	ldmdacs	r9, {}	; <UNPREDICTABLE>
     9e8:	b2000082 	andlt	r0, r0, #130	; 0x82
     9ec:	0000000a 	andeq	r0, r0, sl
     9f0:	01891300 	orreq	r1, r9, r0, lsl #6
     9f4:	82280000 	eorhi	r0, r8, #0
     9f8:	00040000 	andeq	r0, r4, r0
     9fc:	64010000 	strvs	r0, [r1], #-0
     a00:	000005eb 	andeq	r0, r0, fp, ror #11
     a04:	00822814 	addeq	r2, r2, r4, lsl r8
     a08:	00000400 	andeq	r0, r0, r0, lsl #8
     a0c:	01992100 	orrseq	r2, r9, r0, lsl #2
     a10:	00000000 	andeq	r0, r0, r0
     a14:	00018913 	andeq	r8, r1, r3, lsl r9
     a18:	00823c00 	addeq	r3, r2, r0, lsl #24
     a1c:	00000400 	andeq	r0, r0, r0, lsl #8
     a20:	12650100 	rsbne	r0, r5, #0, 2
     a24:	14000006 	strne	r0, [r0], #-6
     a28:	0000823c 	andeq	r8, r0, ip, lsr r2
     a2c:	00000004 	andeq	r0, r0, r4
     a30:	00019915 	andeq	r9, r1, r5, lsl r9
     a34:	0002a700 	andeq	sl, r2, r0, lsl #14
     a38:	13000000 	movwne	r0, #0
     a3c:	000001a5 	andeq	r0, r0, r5, lsr #3
     a40:	000082a4 	andeq	r8, r0, r4, lsr #5
     a44:	00000004 	andeq	r0, r0, r4
     a48:	06356901 	ldrteq	r6, [r5], -r1, lsl #18
     a4c:	a4140000 	ldrge	r0, [r4], #-0
     a50:	04000082 	streq	r0, [r0], #-130	; 0x82
     a54:	21000000 	mrscs	r0, (UNDEF: 0)
     a58:	000001b5 			; <UNDEFINED> instruction: 0x000001b5
     a5c:	dc1a0000 	ldcle	0, cr0, [sl], {-0}
     a60:	9c000081 	stcls	0, cr0, [r0], {129}	; 0x81
     a64:	5200000a 	andpl	r0, r0, #10
     a68:	1b000006 	blne	a88 <__code_start__-0x7578>
     a6c:	74025201 	strvc	r5, [r2], #-513	; 0x201
     a70:	50011b00 	andpl	r1, r1, r0, lsl #22
     a74:	92800305 	addls	r0, r0, #335544320	; 0x14000000
     a78:	1a000000 	bne	a80 <__code_start__-0x7580>
     a7c:	000081f0 	strdeq	r8, [r0], -r0
     a80:	00000a9c 	muleq	r0, ip, sl
     a84:	00000669 	andeq	r0, r0, r9, ror #12
     a88:	0550011b 	ldrbeq	r0, [r0, #-283]	; 0x11b
     a8c:	0092a003 	addseq	sl, r2, r3
     a90:	fc1a0000 	ldc2	0, cr0, [sl], {-0}
     a94:	9c000081 	stcls	0, cr0, [r0], {129}	; 0x81
     a98:	8000000a 	andhi	r0, r0, sl
     a9c:	1b000006 	blne	abc <__code_start__-0x7544>
     aa0:	03055001 	movweq	r5, #20481	; 0x5001
     aa4:	000092b4 			; <UNDEFINED> instruction: 0x000092b4
     aa8:	823c1a00 	eorshi	r1, ip, #0, 20
     aac:	0a9c0000 	beq	fe700ab4 <__bss_end__+0xfe6f702c>
     ab0:	069d0000 	ldreq	r0, [sp], r0
     ab4:	011b0000 	tsteq	fp, r0
     ab8:	00740252 	rsbseq	r0, r4, r2, asr r2
     abc:	0550011b 	ldrbeq	r0, [r0, #-283]	; 0x11b
     ac0:	00931003 	addseq	r1, r3, r3
     ac4:	50190000 	andspl	r0, r9, r0
     ac8:	95000082 	strls	r0, [r0, #-130]	; 0x82
     acc:	1a00000a 	bne	afc <__code_start__-0x7504>
     ad0:	0000826c 	andeq	r8, r0, ip, ror #4
     ad4:	00000a9c 	muleq	r0, ip, sl
     ad8:	000006df 	ldrdeq	r0, [r0], -pc	; <UNPREDICTABLE>
     adc:	0253011b 	subseq	r0, r3, #-1073741818	; 0xc0000006
     ae0:	011b6508 	tsteq	fp, r8, lsl #10
     ae4:	e8030552 	stmda	r3, {r1, r4, r6, r8, sl}
     ae8:	1b000093 	blne	d3c <__code_start__-0x72c4>
     aec:	03055101 	movweq	r5, #20737	; 0x5101
     af0:	00009258 	andeq	r9, r0, r8, asr r2
     af4:	0550011b 	ldrbeq	r0, [r0, #-283]	; 0x11b
     af8:	00924403 	addseq	r4, r2, r3, lsl #8
     afc:	7d021b00 	vstrvc	d1, [r2, #-0]
     b00:	2c030500 	cfstr32cs	mvfx0, [r3], {-0}
     b04:	00000093 	muleq	r0, r3, r0
     b08:	00827019 	addeq	r7, r2, r9, lsl r0
     b0c:	000ab200 	andeq	fp, sl, r0, lsl #4
     b10:	82841900 	addhi	r1, r4, #0, 18
     b14:	0a950000 	beq	fe540b1c <__bss_end__+0xfe537094>
     b18:	a01a0000 	andsge	r0, sl, r0
     b1c:	9c000082 	stcls	0, cr0, [r0], {130}	; 0x82
     b20:	2a00000a 	bcs	b50 <__code_start__-0x74b0>
     b24:	1b000007 	blne	b48 <__code_start__-0x74b8>
     b28:	08025301 	stmdaeq	r2, {r0, r8, r9, ip, lr}
     b2c:	52011b67 	andpl	r1, r1, #105472	; 0x19c00
     b30:	93e80305 	mvnls	r0, #335544320	; 0x14000000
     b34:	011b0000 	tsteq	fp, r0
     b38:	58030551 	stmdapl	r3, {r0, r4, r6, r8, sl}
     b3c:	1b000092 	blne	d8c <__code_start__-0x7274>
     b40:	03055001 	movweq	r5, #20481	; 0x5001
     b44:	00009244 	andeq	r9, r0, r4, asr #4
     b48:	007d021b 	rsbseq	r0, sp, fp, lsl r2
     b4c:	93400305 	movtls	r0, #773	; 0x305
     b50:	19000000 	stmdbne	r0, {}	; <UNPREDICTABLE>
     b54:	000082a4 	andeq	r8, r0, r4, lsr #5
     b58:	00000ab2 			; <UNDEFINED> instruction: 0x00000ab2
     b5c:	0082b41a 	addeq	fp, r2, sl, lsl r4
     b60:	000a9c00 	andeq	r9, sl, r0, lsl #24
     b64:	00075000 	andeq	r5, r7, r0
     b68:	51011b00 	tstpl	r1, r0, lsl #22
     b6c:	1b007502 	blne	1df7c <__bss_end__+0x144f4>
     b70:	03055001 	movweq	r5, #20481	; 0x5001
     b74:	00009354 	andeq	r9, r0, r4, asr r3
     b78:	82cc2400 	sbchi	r2, ip, #0, 8
     b7c:	011b0000 	tsteq	fp, r0
     b80:	00750252 	rsbseq	r0, r5, r2, asr r2
     b84:	0251011b 	subseq	r0, r1, #-1073741818	; 0xc0000006
     b88:	011b0074 	tsteq	fp, r4, ror r0
     b8c:	00300150 	eorseq	r0, r0, r0, asr r1
     b90:	007f1c00 	rsbseq	r1, pc, r0, lsl #24
     b94:	07780000 	ldrbeq	r0, [r8, -r0]!
     b98:	761d0000 	ldrvc	r0, [sp], -r0
     b9c:	11000000 	mrsne	r0, (UNDEF: 0)
     ba0:	07680700 	strbeq	r0, [r8, -r0, lsl #14]!
     ba4:	c60f0000 	strgt	r0, [pc], -r0
     ba8:	01000001 	tsteq	r0, r1
     bac:	00831070 	addeq	r1, r3, r0, ror r0
     bb0:	00003c00 	andeq	r3, r0, r0, lsl #24
     bb4:	ed9c0100 	ldfs	f0, [ip]
     bb8:	20000007 	andcs	r0, r0, r7
     bbc:	000002af 	andeq	r0, r0, pc, lsr #5
     bc0:	00257101 	eoreq	r7, r5, r1, lsl #2
     bc4:	03050000 	movweq	r0, #20480	; 0x5000
     bc8:	00009684 	andeq	r9, r0, r4, lsl #13
     bcc:	01007625 	tsteq	r0, r5, lsr #12
     bd0:	00005d7a 	andeq	r5, r0, sl, ror sp
     bd4:	13800000 	orrne	r0, r0, #0
     bd8:	000001c1 	andeq	r0, r0, r1, asr #3
     bdc:	00008334 	andeq	r8, r0, r4, lsr r3
     be0:	00000008 	andeq	r0, r0, r8
     be4:	07c97c01 	strbeq	r7, [r9, r1, lsl #24]
     be8:	cd170000 	ldcgt	0, cr0, [r7, #-0]
     bec:	00000001 	andeq	r0, r0, r1
     bf0:	57130080 	ldrpl	r0, [r3, -r0, lsl #1]
     bf4:	3c000001 	stccc	0, cr0, [r0], {1}
     bf8:	10000083 	andne	r0, r0, r3, lsl #1
     bfc:	01000000 	mrseq	r0, (UNDEF: 0)
     c00:	0007e37e 	andeq	lr, r7, lr, ror r3
     c04:	01631800 	cmneq	r3, r0, lsl #16
     c08:	00000000 	andeq	r0, r0, r0
     c0c:	00832819 	addeq	r2, r3, r9, lsl r8
     c10:	000ab900 	andeq	fp, sl, r0, lsl #18
     c14:	560f0000 	strpl	r0, [pc], -r0
     c18:	01000002 	tsteq	r0, r2
     c1c:	00834ca6 	addeq	r4, r3, r6, lsr #25
     c20:	00003400 	andeq	r3, r0, r0, lsl #8
     c24:	c99c0100 	ldmibgt	ip, {r8}
     c28:	26000008 	strcs	r0, [r0], -r8
     c2c:	00000251 	andeq	r0, r0, r1, asr r2
     c30:	005da601 	subseq	sl, sp, r1, lsl #12
     c34:	50010000 	andpl	r0, r1, r0
     c38:	0004ca26 	andeq	ip, r4, r6, lsr #20
     c3c:	91a60100 			; <UNDEFINED> instruction: 0x91a60100
     c40:	01000000 	mrseq	r0, (UNDEF: 0)
     c44:	023e1151 	eorseq	r1, lr, #1073741844	; 0x40000014
     c48:	a7010000 	strge	r0, [r1, -r0]
     c4c:	0000005d 	andeq	r0, r0, sp, asr r0
     c50:	000002d4 	ldrdeq	r0, [r0], -r4
     c54:	00023520 	andeq	r3, r2, r0, lsr #10
     c58:	5daf0100 	stfpls	f0, [pc]	; c60 <__code_start__-0x73a0>
     c5c:	01000000 	mrseq	r0, (UNDEF: 0)
     c60:	01d71350 	bicseq	r1, r7, r0, asr r3
     c64:	834c0000 	movthi	r0, #49152	; 0xc000
     c68:	00040000 	andeq	r0, r4, r0
     c6c:	a7010000 	strge	r0, [r1, -r0]
     c70:	0000085f 	andeq	r0, r0, pc, asr r8
     c74:	00834c14 	addeq	r4, r3, r4, lsl ip
     c78:	00000400 	andeq	r0, r0, r0, lsl #8
     c7c:	01e71500 	mvneq	r1, r0, lsl #10
     c80:	02f50000 	rscseq	r0, r5, #0
     c84:	00000000 	andeq	r0, r0, r0
     c88:	0001f313 	andeq	pc, r1, r3, lsl r3	; <UNPREDICTABLE>
     c8c:	00835400 	addeq	r5, r3, r0, lsl #8
     c90:	00000400 	andeq	r0, r0, r0, lsl #8
     c94:	7cad0100 	stfvcs	f0, [sp]
     c98:	16000008 	strne	r0, [r0], -r8
     c9c:	000001ff 	strdeq	r0, [r0], -pc	; <UNPREDICTABLE>
     ca0:	00000308 	andeq	r0, r0, r8, lsl #6
     ca4:	02091300 	andeq	r1, r9, #0, 6
     ca8:	83580000 	cmphi	r8, #0
     cac:	00040000 	andeq	r0, r4, r0
     cb0:	b2010000 	andlt	r0, r1, #0
     cb4:	00000897 	muleq	r0, r7, r8
     cb8:	00021527 	andeq	r1, r2, r7, lsr #10
     cbc:	00500100 	subseq	r0, r0, r0, lsl #2
     cc0:	0001f313 	andeq	pc, r1, r3, lsl r3	; <UNPREDICTABLE>
     cc4:	00835c00 	addeq	r5, r3, r0, lsl #24
     cc8:	00000800 	andeq	r0, r0, r0, lsl #16
     ccc:	b2bc0100 	adcslt	r0, ip, #0, 2
     cd0:	17000008 	strne	r0, [r0, -r8]
     cd4:	000001ff 	strdeq	r0, [r0], -pc	; <UNPREDICTABLE>
     cd8:	220001e7 	andcs	r0, r0, #-1073741767	; 0xc0000039
     cdc:	00000157 	andeq	r0, r0, r7, asr r1
     ce0:	00008364 	andeq	r8, r0, r4, ror #6
     ce4:	00000008 	andeq	r0, r0, r8
     ce8:	6318bd01 	tstvs	r8, #1, 26	; 0x40
     cec:	00000001 	andeq	r0, r0, r1
     cf0:	e10f0000 	mrs	r0, CPSR
     cf4:	01000001 	tsteq	r0, r1
     cf8:	008380c2 	addeq	r8, r3, r2, asr #1
     cfc:	0000c400 	andeq	ip, r0, r0, lsl #8
     d00:	3c9c0100 	ldfccs	f0, [ip], {0}
     d04:	1f00000a 	svcne	0x0000000a
     d08:	01006370 	tsteq	r0, r0, ror r3
     d0c:	00002cc2 	andeq	r2, r0, r2, asr #25
     d10:	00031b00 	andeq	r1, r3, r0, lsl #22
     d14:	00ce1200 	sbceq	r1, lr, r0, lsl #4
     d18:	0a4c0000 	beq	1300d20 <__bss_end__+0x12f7298>
     d1c:	03050000 	movweq	r0, #20480	; 0x5000
     d20:	00009410 	andeq	r9, r0, r0, lsl r4
     d24:	00021f13 	andeq	r1, r2, r3, lsl pc
     d28:	00839800 	addeq	r9, r3, r0, lsl #16
     d2c:	00000800 	andeq	r0, r0, r0, lsl #16
     d30:	41c40100 	bicmi	r0, r4, r0, lsl #2
     d34:	14000009 	strne	r0, [r0], #-9
     d38:	00008398 	muleq	r0, r8, r3
     d3c:	00000008 	andeq	r0, r0, r8
     d40:	00022f21 	andeq	r2, r2, r1, lsr #30
     d44:	00d92200 	sbcseq	r2, r9, r0, lsl #4
     d48:	83980000 	orrshi	r0, r8, #0
     d4c:	00040000 	andeq	r0, r4, r0
     d50:	aa020000 	bge	80d58 <__bss_end__+0x772d0>
     d54:	00839814 	addeq	r9, r3, r4, lsl r8
     d58:	00000400 	andeq	r0, r0, r0, lsl #8
     d5c:	00e91500 	rsceq	r1, r9, r0, lsl #10
     d60:	03470000 	movteq	r0, #28672	; 0x7000
     d64:	00000000 	andeq	r0, r0, r0
     d68:	39130000 	ldmdbcc	r3, {}	; <UNPREDICTABLE>
     d6c:	04000002 	streq	r0, [r0], #-2
     d70:	04000084 	streq	r0, [r0], #-132	; 0x84
     d74:	01000000 	mrseq	r0, (UNDEF: 0)
     d78:	000964c8 	andeq	r6, r9, r8, asr #9
     d7c:	84041400 	strhi	r1, [r4], #-1024	; 0x400
     d80:	00040000 	andeq	r0, r4, r0
     d84:	49210000 	stmdbmi	r1!, {}	; <UNPREDICTABLE>
     d88:	00000002 	andeq	r0, r0, r2
     d8c:	83981a00 	orrshi	r1, r8, #0, 20
     d90:	0a9c0000 	beq	fe700d98 <__bss_end__+0xfe6f7310>
     d94:	09810000 	stmibeq	r1, {}	; <UNPREDICTABLE>
     d98:	011b0000 	tsteq	fp, r0
     d9c:	00740251 	rsbseq	r0, r4, r1, asr r2
     da0:	0550011b 	ldrbeq	r0, [r0, #-283]	; 0x11b
     da4:	00936803 	addseq	r6, r3, r3, lsl #16
     da8:	ac190000 	ldcge	0, cr0, [r9], {-0}
     dac:	95000083 	strls	r0, [r0, #-131]	; 0x83
     db0:	1a00000a 	bne	de0 <__code_start__-0x7220>
     db4:	000083c0 	andeq	r8, r0, r0, asr #7
     db8:	00000a9c 	muleq	r0, ip, sl
     dbc:	000009b9 			; <UNDEFINED> instruction: 0x000009b9
     dc0:	0253011b 	subseq	r0, r3, #-1073741818	; 0xc0000006
     dc4:	011bc508 	tsteq	fp, r8, lsl #10
     dc8:	10030552 	andne	r0, r3, r2, asr r5
     dcc:	1b000094 	blne	1024 <__code_start__-0x6fdc>
     dd0:	03055101 	movweq	r5, #20737	; 0x5101
     dd4:	00009258 	andeq	r9, r0, r8, asr r2
     dd8:	0550011b 	ldrbeq	r0, [r0, #-283]	; 0x11b
     ddc:	00938003 	addseq	r8, r3, r3
     de0:	c4190000 	ldrgt	r0, [r9], #-0
     de4:	b2000083 	andlt	r0, r0, #131	; 0x83
     de8:	1900000a 	stmdbne	r0, {r1, r3}
     dec:	000083d8 	ldrdeq	r8, [r0], -r8	; <UNPREDICTABLE>
     df0:	00000a95 	muleq	r0, r5, sl
     df4:	0083f41a 	addeq	pc, r3, sl, lsl r4	; <UNPREDICTABLE>
     df8:	000a9c00 	andeq	r9, sl, r0, lsl #24
     dfc:	000a0400 	andeq	r0, sl, r0, lsl #8
     e00:	53011b00 	movwpl	r1, #6912	; 0x1b00
     e04:	1bc60802 	blne	ff182e14 <__bss_end__+0xff17938c>
     e08:	03055201 	movweq	r5, #20993	; 0x5201
     e0c:	00009410 	andeq	r9, r0, r0, lsl r4
     e10:	0551011b 	ldrbeq	r0, [r1, #-283]	; 0x11b
     e14:	00925803 	addseq	r5, r2, r3, lsl #16
     e18:	50011b00 	andpl	r1, r1, r0, lsl #22
     e1c:	92440305 	subls	r0, r4, #335544320	; 0x14000000
     e20:	021b0000 	andseq	r0, fp, #0
     e24:	0305007d 	movweq	r0, #20605	; 0x507d
     e28:	000093b8 			; <UNDEFINED> instruction: 0x000093b8
     e2c:	83f81900 	mvnshi	r1, #0, 18
     e30:	0ab20000 	beq	fec80e38 <__bss_end__+0xfec773b0>
     e34:	041a0000 	ldreq	r0, [sl], #-0
     e38:	9c000084 	stcls	0, cr0, [r0], {132}	; 0x84
     e3c:	2a00000a 	bcs	e6c <__code_start__-0x7194>
     e40:	1b00000a 	blne	e70 <__code_start__-0x7190>
     e44:	74025101 	strvc	r5, [r2], #-257	; 0x101
     e48:	50011b00 	andpl	r1, r1, r0, lsl #22
     e4c:	93c80305 	bicls	r0, r8, #335544320	; 0x14000000
     e50:	24000000 	strcs	r0, [r0], #-0
     e54:	0000841c 	andeq	r8, r0, ip, lsl r4
     e58:	0251011b 	subseq	r0, r1, #-1073741818	; 0xc0000006
     e5c:	011b0074 	tsteq	fp, r4, ror r0
     e60:	00300150 	eorseq	r0, r0, r0, asr r1
     e64:	007f1c00 	rsbseq	r1, pc, r0, lsl #24
     e68:	0a4c0000 	beq	1300e70 <__bss_end__+0x12f73e8>
     e6c:	761d0000 	ldrvc	r0, [sp], -r0
     e70:	15000000 	strne	r0, [r0, #-0]
     e74:	0a3c0700 	beq	f02a7c <__bss_end__+0xef8ff4>
     e78:	da0f0000 	ble	3c0e80 <__bss_end__+0x3b73f8>
     e7c:	01000005 	tsteq	r0, r5
     e80:	008444cb 	addeq	r4, r4, fp, asr #9
     e84:	00000400 	andeq	r0, r0, r0, lsl #8
     e88:	739c0100 	orrsvc	r0, ip, #0, 2
     e8c:	2800000a 	stmdacs	r0, {r1, r3}
     e90:	01006370 	tsteq	r0, r0, ror r3
     e94:	00002ccb 	andeq	r2, r0, fp, asr #25
     e98:	00500100 	subseq	r0, r0, r0, lsl #2
     e9c:	00026120 	andeq	r6, r2, r0, lsr #2
     ea0:	910b0100 	mrsls	r0, (UNDEF: 27)
     ea4:	05000000 	streq	r0, [r0, #-0]
     ea8:	00967803 	addseq	r7, r6, r3, lsl #16
     eac:	03002000 	movweq	r2, #0
     eb0:	87010000 	strhi	r0, [r1, -r0]
     eb4:	00000091 	muleq	r0, r1, r0
     eb8:	967c0305 	ldrbtls	r0, [ip], -r5, lsl #6
     ebc:	d2290000 	eorle	r0, r9, #0
     ec0:	04000001 	streq	r0, [r0], #-1
     ec4:	03a62a1e 			; <UNDEFINED> instruction: 0x03a62a1e
     ec8:	29040000 	stmdbcs	r4, {}	; <UNPREDICTABLE>
     ecc:	00000025 	andeq	r0, r0, r5, lsr #32
     ed0:	00000ab2 			; <UNDEFINED> instruction: 0x00000ab2
     ed4:	00008609 	andeq	r8, r0, r9, lsl #12
     ed8:	29002b00 	stmdbcs	r0, {r8, r9, fp, sp}
     edc:	000000a7 	andeq	r0, r0, r7, lsr #1
     ee0:	18296504 	stmdane	r9!, {r2, r8, sl, sp, lr}
     ee4:	05000003 	streq	r0, [r0, #-3]
     ee8:	01910036 	orrseq	r0, r1, r6, lsr r0
     eec:	00040000 	andeq	r0, r4, r0
     ef0:	000003e8 	andeq	r0, r0, r8, ror #7
     ef4:	034c0104 	movteq	r0, #49412	; 0xc104
     ef8:	3e010000 	cdpcc	0, 0, cr0, cr1, cr0, {0}
     efc:	b7000003 	strlt	r0, [r0, -r3]
     f00:	38000003 	stmdacc	r0, {r0, r1}
     f04:	58000085 	stmdapl	r0, {r0, r2, r7}
     f08:	0a000000 	beq	f10 <__code_start__-0x70f0>
     f0c:	02000003 	andeq	r0, r0, #3
     f10:	0000032f 	andeq	r0, r0, pc, lsr #6
     f14:	00302802 	eorseq	r2, r0, r2, lsl #16
     f18:	ad030000 	stcge	0, cr0, [r3, #-0]
     f1c:	04000003 	streq	r0, [r0], #-3
     f20:	00470003 	subeq	r0, r7, r3
     f24:	fd040000 	stc2	0, cr0, [r4, #-0]
     f28:	47000003 	strmi	r0, [r0, -r3]
     f2c:	00000000 	andeq	r0, r0, r0
     f30:	02040500 	andeq	r0, r4, #0, 10
     f34:	000003af 	andeq	r0, r0, pc, lsr #7
     f38:	00256202 	eoreq	r6, r5, r2, lsl #4
     f3c:	04060000 	streq	r0, [r6], #-0
     f40:	746e6905 	strbtvc	r6, [lr], #-2309	; 0x905
     f44:	07040700 	streq	r0, [r4, -r0, lsl #14]
     f48:	0000015b 	andeq	r0, r0, fp, asr r1
     f4c:	9b060107 	blls	181370 <__bss_end__+0x1778e8>
     f50:	07000000 	streq	r0, [r0, -r0]
     f54:	01a10502 			; <UNDEFINED> instruction: 0x01a10502
     f58:	04070000 	streq	r0, [r7], #-0
     f5c:	00019305 	andeq	r9, r1, r5, lsl #6
     f60:	05080700 	streq	r0, [r8, #-1792]	; 0x700
     f64:	0000018e 	andeq	r0, r0, lr, lsl #3
     f68:	99080107 	stmdbls	r8, {r0, r1, r2, r8}
     f6c:	07000000 	streq	r0, [r0, -r0]
     f70:	00630702 	rsbeq	r0, r3, r2, lsl #14
     f74:	04070000 	streq	r0, [r7], #-0
     f78:	00015607 	andeq	r5, r1, r7, lsl #12
     f7c:	07080700 	streq	r0, [r8, -r0, lsl #14]
     f80:	00000151 	andeq	r0, r0, r1, asr r1
     f84:	85070407 	strhi	r0, [r7, #-1031]	; 0x407
     f88:	08000001 	stmdaeq	r0, {r0}
     f8c:	0000a704 	andeq	sl, r0, r4, lsl #14
     f90:	08010700 	stmdaeq	r1, {r8, r9, sl}
     f94:	000000a2 	andeq	r0, r0, r2, lsr #1
     f98:	00b40408 	adcseq	r0, r4, r8, lsl #8
     f9c:	a7090000 	strge	r0, [r9, -r0]
     fa0:	0a000000 	beq	fa8 <__code_start__-0x7058>
     fa4:	000003a6 	andeq	r0, r0, r6, lsr #7
     fa8:	00540601 	subseq	r0, r4, r1, lsl #12
     fac:	85380000 	ldrhi	r0, [r8, #-0]!
     fb0:	00580000 	subseq	r0, r8, r0
     fb4:	9c010000 	stcls	0, cr0, [r1], {-0}
     fb8:	00000143 	andeq	r0, r0, r3, asr #2
     fbc:	746d660b 	strbtvc	r6, [sp], #-1547	; 0x60b
     fc0:	ae060100 	adfges	f0, f6, f0
     fc4:	02000000 	andeq	r0, r0, #0
     fc8:	0d0c7091 	stceq	0, cr7, [ip, #-580]	; 0xfffffdbc
     fcc:	00667562 	rsbeq	r7, r6, r2, ror #10
     fd0:	01430801 	cmpeq	r3, r1, lsl #16
     fd4:	03050000 	movweq	r0, #20480	; 0x5000
     fd8:	00009688 	andeq	r9, r0, r8, lsl #13
     fdc:	0008d80e 	andeq	sp, r8, lr, lsl #16
     fe0:	49090100 	stmdbmi	r9, {r8}
     fe4:	02000000 	andeq	r0, r0, #0
     fe8:	730f5c91 	movwvc	r5, #64657	; 0xfc91
     fec:	0c01007a 	stceq	0, cr0, [r1], {122}	; 0x7a
     ff0:	00000054 	andeq	r0, r0, r4, asr r0
     ff4:	0000035a 	andeq	r0, r0, sl, asr r3
     ff8:	00856010 	addeq	r6, r5, r0, lsl r0
     ffc:	00017400 	andeq	r7, r1, r0, lsl #8
    1000:	00013600 	andeq	r3, r1, r0, lsl #12
    1004:	53011100 	movwpl	r1, #4352	; 0x1100
    1008:	114c9102 	cmpne	ip, r2, lsl #2
    100c:	91035201 	tstls	r3, r1, lsl #4
    1010:	01110648 	tsteq	r1, r8, asr #12
    1014:	000a0351 	andeq	r0, sl, r1, asr r3
    1018:	50011104 	andpl	r1, r1, r4, lsl #2
    101c:	00007402 	andeq	r7, r0, r2, lsl #8
    1020:	00857412 	addeq	r7, r5, r2, lsl r4
    1024:	50011100 	andpl	r1, r1, r0, lsl #2
    1028:	00007402 	andeq	r7, r0, r2, lsl #8
    102c:	00a71300 	adceq	r1, r7, r0, lsl #6
    1030:	01540000 	cmpeq	r4, r0
    1034:	9a140000 	bls	50103c <__bss_end__+0x4f75b4>
    1038:	ff000000 			; <UNDEFINED> instruction: 0xff000000
    103c:	54150003 	ldrpl	r0, [r5], #-3
    1040:	63000000 	movwvs	r0, #0
    1044:	16000001 	strne	r0, [r0], -r1
    1048:	000000ae 	andeq	r0, r0, lr, lsr #1
    104c:	045a1700 	ldrbeq	r1, [sl], #-1792	; 0x700
    1050:	22040000 	andcs	r0, r4, #0
    1054:	0000016e 	andeq	r0, r0, lr, ror #2
    1058:	01540408 	cmpeq	r4, r8, lsl #8
    105c:	a3180000 	tstge	r8, #0
    1060:	05000003 	streq	r0, [r0, #-3]
    1064:	00005402 	andeq	r5, r0, r2, lsl #8
    1068:	00a11600 	adceq	r1, r1, r0, lsl #12
    106c:	54160000 	ldrpl	r0, [r6], #-0
    1070:	16000000 	strne	r0, [r0], -r0
    1074:	000000ae 	andeq	r0, r0, lr, lsr #1
    1078:	00004916 	andeq	r4, r0, r6, lsl r9
    107c:	13000000 	movwne	r0, #0
    1080:	04000001 	streq	r0, [r0], #-1
    1084:	00051900 	andeq	r1, r5, r0, lsl #18
    1088:	4c010400 	cfstrsmi	mvf0, [r1], {-0}
    108c:	01000003 	tsteq	r0, r3
    1090:	00000429 	andeq	r0, r0, r9, lsr #8
    1094:	000003b7 			; <UNDEFINED> instruction: 0x000003b7
    1098:	00008590 	muleq	r0, r0, r5
    109c:	0000003c 	andeq	r0, r0, ip, lsr r0
    10a0:	0000041a 	andeq	r0, r0, sl, lsl r4
    10a4:	69050402 	stmdbvs	r5, {r1, sl}
    10a8:	0300746e 	movweq	r7, #1134	; 0x46e
    10ac:	015b0704 	cmpeq	fp, r4, lsl #14
    10b0:	01030000 	mrseq	r0, (UNDEF: 3)
    10b4:	00009b06 	andeq	r9, r0, r6, lsl #22
    10b8:	05020300 	streq	r0, [r2, #-768]	; 0x300
    10bc:	000001a1 	andeq	r0, r0, r1, lsr #3
    10c0:	93050403 	movwls	r0, #21507	; 0x5403
    10c4:	03000001 	movweq	r0, #1
    10c8:	018e0508 	orreq	r0, lr, r8, lsl #10
    10cc:	01030000 	mrseq	r0, (UNDEF: 3)
    10d0:	00009908 	andeq	r9, r0, r8, lsl #18
    10d4:	07020300 	streq	r0, [r2, -r0, lsl #6]
    10d8:	00000063 	andeq	r0, r0, r3, rrx
    10dc:	56070403 	strpl	r0, [r7], -r3, lsl #8
    10e0:	03000001 	movweq	r0, #1
    10e4:	01510708 	cmpeq	r1, r8, lsl #14
    10e8:	04030000 	streq	r0, [r3], #-0
    10ec:	00018507 	andeq	r8, r1, r7, lsl #10
    10f0:	08010300 	stmdaeq	r1, {r8, r9}
    10f4:	000000a2 	andeq	r0, r0, r2, lsr #1
    10f8:	00040c04 	andeq	r0, r4, r4, lsl #24
    10fc:	25030100 	strcs	r0, [r3, #-256]	; 0x100
    1100:	90000000 	andls	r0, r0, r0
    1104:	14000085 	strne	r0, [r0], #-133	; 0x85
    1108:	01000000 	mrseq	r0, (UNDEF: 0)
    110c:	0000b09c 	muleq	r0, ip, r0
    1110:	00630500 	rsbeq	r0, r3, r0, lsl #10
    1114:	00250301 	eoreq	r0, r5, r1, lsl #6
    1118:	03830000 	orreq	r0, r3, #0
    111c:	9c060000 	stcls	0, cr0, [r6], {-0}
    1120:	09000085 	stmdbeq	r0, {r0, r2, r7}
    1124:	07000001 	streq	r0, [r0, -r1]
    1128:	74025001 	strvc	r5, [r2], #-1
    112c:	08000000 	stmdaeq	r0, {}	; <UNPREDICTABLE>
    1130:	000001d2 	ldrdeq	r0, [r0], -r2
    1134:	85a40801 	strhi	r0, [r4, #2049]!	; 0x801
    1138:	00180000 	andseq	r0, r8, r0
    113c:	9c010000 	stcls	0, cr0, [r1], {-0}
    1140:	00043809 	andeq	r3, r4, r9, lsl #16
    1144:	bc0b0100 	stflts	f0, [fp], {-0}
    1148:	10000085 	andne	r0, r0, r5, lsl #1
    114c:	01000000 	mrseq	r0, (UNDEF: 0)
    1150:	0000e39c 	muleq	r0, ip, r3
    1154:	70660a00 	rsbvc	r0, r6, r0, lsl #20
    1158:	f20b0100 	vrhadd.s8	d0, d11, d0
    115c:	01000000 	mrseq	r0, (UNDEF: 0)
    1160:	250b0050 	strcs	r0, [fp, #-80]	; 0x50
    1164:	f2000000 	vhadd.s8	d0, d0, d0
    1168:	0c000000 	stceq	0, cr0, [r0], {-0}
    116c:	00000025 	andeq	r0, r0, r5, lsr #32
    1170:	e3040d00 	movw	r0, #19712	; 0x4d00
    1174:	0e000000 	cdpeq	0, 0, cr0, cr0, cr0, {0}
    1178:	0000041d 	andeq	r0, r0, sp, lsl r4
    117c:	00f20601 	rscseq	r0, r2, r1, lsl #12
    1180:	03050000 	movweq	r0, #20480	; 0x5000
    1184:	00009168 	andeq	r9, r0, r8, ror #2
    1188:	0004020f 	andeq	r0, r4, pc, lsl #4
    118c:	0c3c0200 	lfmeq	f0, 4, [ip], #-0
    1190:	0000002c 	andeq	r0, r0, ip, lsr #32
    1194:	00ee0000 	rsceq	r0, lr, r0
    1198:	00040000 	andeq	r0, r4, r0
    119c:	00000601 	andeq	r0, r0, r1, lsl #12
    11a0:	034c0104 	movteq	r0, #49412	; 0xc104
    11a4:	45010000 	strmi	r0, [r1, #-0]
    11a8:	b7000004 	strlt	r0, [r0, -r4]
    11ac:	cc000003 	stcgt	0, cr0, [r0], {3}
    11b0:	34000085 	strcc	r0, [r0], #-133	; 0x85
    11b4:	b2000000 	andlt	r0, r0, #0
    11b8:	02000004 	andeq	r0, r0, #4
    11bc:	6e690504 	cdpvs	5, 6, cr0, cr9, cr4, {0}
    11c0:	04030074 	streq	r0, [r3], #-116	; 0x74
    11c4:	00015b07 	andeq	r5, r1, r7, lsl #22
    11c8:	06010300 	streq	r0, [r1], -r0, lsl #6
    11cc:	0000009b 	muleq	r0, fp, r0
    11d0:	a1050203 	tstge	r5, r3, lsl #4
    11d4:	03000001 	movweq	r0, #1
    11d8:	01930504 	orrseq	r0, r3, r4, lsl #10
    11dc:	08030000 	stmdaeq	r3, {}	; <UNPREDICTABLE>
    11e0:	00018e05 	andeq	r8, r1, r5, lsl #28
    11e4:	08010300 	stmdaeq	r1, {r8, r9}
    11e8:	00000099 	muleq	r0, r9, r0
    11ec:	63070203 	movwvs	r0, #29187	; 0x7203
    11f0:	03000000 	movweq	r0, #0
    11f4:	01560704 	cmpeq	r6, r4, lsl #14
    11f8:	08030000 	stmdaeq	r3, {}	; <UNPREDICTABLE>
    11fc:	00015107 	andeq	r5, r1, r7, lsl #2
    1200:	07040300 	streq	r0, [r4, -r0, lsl #6]
    1204:	00000185 	andeq	r0, r0, r5, lsl #3
    1208:	a2080103 	andge	r0, r8, #-1073741824	; 0xc0000000
    120c:	04000000 	streq	r0, [r0], #-0
    1210:	00007f04 	andeq	r7, r0, r4, lsl #30
    1214:	00720500 	rsbseq	r0, r2, r0, lsl #10
    1218:	51060000 	mrspl	r0, (UNDEF: 6)
    121c:	01000004 	tsteq	r0, r4
    1220:	00002504 	andeq	r2, r0, r4, lsl #10
    1224:	0085cc00 	addeq	ip, r5, r0, lsl #24
    1228:	00003400 	andeq	r3, r0, r0, lsl #8
    122c:	ab9c0100 	blge	fe701634 <__bss_end__+0xfe6f7bac>
    1230:	07000000 	streq	r0, [r0, -r0]
    1234:	04010070 	streq	r0, [r1], #-112	; 0x70
    1238:	00000079 	andeq	r0, r0, r9, ror r0
    123c:	000003a1 	andeq	r0, r0, r1, lsr #7
    1240:	00250800 	eoreq	r0, r5, r0, lsl #16
    1244:	00ba0000 	adcseq	r0, sl, r0
    1248:	25090000 	strcs	r0, [r9, #-0]
    124c:	00000000 	andeq	r0, r0, r0
    1250:	00041d0a 	andeq	r1, r4, sl, lsl #26
    1254:	c51d0200 	ldrgt	r0, [sp, #-512]	; 0x200
    1258:	04000000 	streq	r0, [r0], #-0
    125c:	0000ab04 	andeq	sl, r0, r4, lsl #22
    1260:	00250800 	eoreq	r0, r5, r0, lsl #16
    1264:	00da0000 	sbcseq	r0, sl, r0
    1268:	79090000 	stmdbvc	r9, {}	; <UNPREDICTABLE>
    126c:	00000000 	andeq	r0, r0, r0
    1270:	00045a0b 	andeq	r5, r4, fp, lsl #20
    1274:	eb0c0100 	bl	30167c <__bss_end__+0x2f7bf4>
    1278:	05000000 	streq	r0, [r0, #-0]
    127c:	00916c03 	addseq	r6, r1, r3, lsl #24
    1280:	cb040400 	blgt	102288 <__bss_end__+0xf8800>
    1284:	00000000 	andeq	r0, r0, r0
    1288:	000006e5 	andeq	r0, r0, r5, ror #13
    128c:	069a0004 	ldreq	r0, [sl], r4
    1290:	01040000 	mrseq	r0, (UNDEF: 4)
    1294:	0000034c 	andeq	r0, r0, ip, asr #6
    1298:	00049001 	andeq	r9, r4, r1
    129c:	0003b700 	andeq	fp, r3, r0, lsl #14
    12a0:	00860000 	addeq	r0, r6, r0
    12a4:	00057800 	andeq	r7, r5, r0, lsl #16
    12a8:	00055600 	andeq	r5, r5, r0, lsl #12
    12ac:	05040200 	streq	r0, [r4, #-512]	; 0x200
    12b0:	00746e69 	rsbseq	r6, r4, r9, ror #28
    12b4:	5b070403 	blpl	1c22c8 <__bss_end__+0x1b8840>
    12b8:	03000001 	movweq	r0, #1
    12bc:	009b0601 	addseq	r0, fp, r1, lsl #12
    12c0:	02030000 	andeq	r0, r3, #0
    12c4:	0001a105 	andeq	sl, r1, r5, lsl #2
    12c8:	05040300 	streq	r0, [r4, #-768]	; 0x300
    12cc:	00000193 	muleq	r0, r3, r1
    12d0:	8e050803 	cdphi	8, 0, cr0, cr5, cr3, {0}
    12d4:	03000001 	movweq	r0, #1
    12d8:	00990801 	addseq	r0, r9, r1, lsl #16
    12dc:	02030000 	andeq	r0, r3, #0
    12e0:	00006307 	andeq	r6, r0, r7, lsl #6
    12e4:	07040300 	streq	r0, [r4, -r0, lsl #6]
    12e8:	00000156 	andeq	r0, r0, r6, asr r1
    12ec:	51070803 	tstpl	r7, r3, lsl #16
    12f0:	03000001 	movweq	r0, #1
    12f4:	01850704 	orreq	r0, r5, r4, lsl #14
    12f8:	04040000 	streq	r0, [r4], #-0
    12fc:	007a0405 	rsbseq	r0, sl, r5, lsl #8
    1300:	01030000 	mrseq	r0, (UNDEF: 3)
    1304:	0000a208 	andeq	sl, r0, r8, lsl #4
    1308:	87040500 	strhi	r0, [r4, -r0, lsl #10]
    130c:	06000000 	streq	r0, [r0], -r0
    1310:	0000007a 	andeq	r0, r0, sl, ror r0
    1314:	00032f07 	andeq	r2, r3, r7, lsl #30
    1318:	97280200 	strls	r0, [r8, -r0, lsl #4]!
    131c:	08000000 	stmdaeq	r0, {}	; <UNPREDICTABLE>
    1320:	000003ad 	andeq	r0, r0, sp, lsr #7
    1324:	ae000404 	cdpge	4, 0, cr0, cr0, cr4, {0}
    1328:	09000000 	stmdbeq	r0, {}	; <UNPREDICTABLE>
    132c:	000003fd 	strdeq	r0, [r0], -sp
    1330:	00000072 	andeq	r0, r0, r2, ror r0
    1334:	af070000 	svcge	0x00070000
    1338:	02000003 	andeq	r0, r0, #3
    133c:	00008c62 	andeq	r8, r0, r2, ror #24
    1340:	04770a00 	ldrbteq	r0, [r7], #-2560	; 0xa00
    1344:	27010000 	strcs	r0, [r1, -r0]
    1348:	00000025 	andeq	r0, r0, r5, lsr #32
    134c:	00008600 	andeq	r8, r0, r0, lsl #12
    1350:	00000014 	andeq	r0, r0, r4, lsl r0
    1354:	00e09c01 	rsceq	r9, r0, r1, lsl #24
    1358:	630b0000 	movwvs	r0, #45056	; 0xb000
    135c:	25270100 	strcs	r0, [r7, #-256]!	; 0x100
    1360:	bf000000 	svclt	0x00000000
    1364:	00000003 	andeq	r0, r0, r3
    1368:	6461700c 	strbtvs	r7, [r1], #-12
    136c:	742e0100 	strtvc	r0, [lr], #-256	; 0x100
    1370:	14000000 	strne	r0, [r0], #-0
    1374:	2c000086 	stccs	0, cr0, [r0], {134}	; 0x86
    1378:	01000000 	mrseq	r0, (UNDEF: 0)
    137c:	0001309c 	muleq	r1, ip, r0
    1380:	00700b00 	rsbseq	r0, r0, r0, lsl #22
    1384:	00742e01 	rsbseq	r2, r4, r1, lsl #28
    1388:	03ed0000 	mvneq	r0, #0
    138c:	b60d0000 	strlt	r0, [sp], -r0
    1390:	01000008 	tsteq	r0, r8
    1394:	0000742e 	andeq	r7, r0, lr, lsr #8
    1398:	00041800 	andeq	r1, r4, r0, lsl #16
    139c:	04b00e00 	ldrteq	r0, [r0], #3584	; 0xe00
    13a0:	2e010000 	cdpcs	0, 0, cr0, cr1, cr0, {0}
    13a4:	00000025 	andeq	r0, r0, r5, lsr #32
    13a8:	6c0f5201 	sfmvs	f5, 4, [pc], {1}
    13ac:	01006e65 	tsteq	r0, r5, ror #28
    13b0:	0000252f 	andeq	r2, r0, pc, lsr #10
    13b4:	00510100 	subseq	r0, r1, r0, lsl #2
    13b8:	00046f0a 	andeq	r6, r4, sl, lsl #30
    13bc:	74370100 	ldrtvc	r0, [r7], #-256	; 0x100
    13c0:	40000000 	andmi	r0, r0, r0
    13c4:	40000086 	andmi	r0, r0, r6, lsl #1
    13c8:	01000000 	mrseq	r0, (UNDEF: 0)
    13cc:	00019c9c 	muleq	r1, ip, ip
    13d0:	73640b00 	cmnvc	r4, #0, 22
    13d4:	37010074 	smlsdxcc	r1, r4, r0, r0
    13d8:	00000074 	andeq	r0, r0, r4, ror r0
    13dc:	00000439 	andeq	r0, r0, r9, lsr r4
    13e0:	01006e0b 	tsteq	r0, fp, lsl #28
    13e4:	00002537 	andeq	r2, r0, r7, lsr r5
    13e8:	00047100 	andeq	r7, r4, r0, lsl #2
    13ec:	00700b00 	rsbseq	r0, r0, r0, lsl #22
    13f0:	00743701 	rsbseq	r3, r4, r1, lsl #14
    13f4:	04920000 	ldreq	r0, [r2], #0
    13f8:	630d0000 	movwvs	r0, #53248	; 0xd000
    13fc:	01000004 	tsteq	r0, r4
    1400:	00007437 	andeq	r7, r0, r7, lsr r4
    1404:	0004c800 	andeq	ip, r4, r0, lsl #16
    1408:	656c1000 	strbvs	r1, [ip, #-0]!
    140c:	3901006e 	stmdbcc	r1, {r1, r2, r3, r5, r6}
    1410:	00000025 	andeq	r0, r0, r5, lsr #32
    1414:	000004e6 	andeq	r0, r0, r6, ror #9
    1418:	0100730f 	tsteq	r0, pc, lsl #6
    141c:	0000743d 	andeq	r7, r0, sp, lsr r4
    1420:	00500100 	subseq	r0, r0, r0, lsl #2
    1424:	0004be0a 	andeq	fp, r4, sl, lsl #28
    1428:	74470100 	strbvc	r0, [r7], #-256	; 0x100
    142c:	80000000 	andhi	r0, r0, r0
    1430:	bc000086 	stclt	0, cr0, [r0], {134}	; 0x86
    1434:	01000001 	tsteq	r0, r1
    1438:	0002df9c 	muleq	r2, ip, pc	; <UNPREDICTABLE>
    143c:	08b60d00 	ldmeq	r6!, {r8, sl, fp}
    1440:	47010000 	strmi	r0, [r1, -r0]
    1444:	0000002c 	andeq	r0, r0, ip, lsr #32
    1448:	0000050d 	andeq	r0, r0, sp, lsl #10
    144c:	7473640b 	ldrbtvc	r6, [r3], #-1035	; 0x40b
    1450:	74470100 	strbvc	r0, [r7], #-256	; 0x100
    1454:	3b000000 	blcc	145c <__code_start__-0x6ba4>
    1458:	0b000005 	bleq	1474 <__code_start__-0x6b8c>
    145c:	4701006e 	strmi	r0, [r1, -lr, rrx]
    1460:	00000025 	andeq	r0, r0, r5, lsr #32
    1464:	000005a9 	andeq	r0, r0, r9, lsr #11
    1468:	6c61760b 	stclvs	6, cr7, [r1], #-44	; 0xffffffd4
    146c:	25470100 	strbcs	r0, [r7, #-256]	; 0x100
    1470:	d5000000 	strle	r0, [r0, #-0]
    1474:	0d000005 	stceq	0, cr0, [r0, #-20]	; 0xffffffec
    1478:	000004b0 			; <UNDEFINED> instruction: 0x000004b0
    147c:	00254701 	eoreq	r4, r5, r1, lsl #14
    1480:	06540000 	ldrbeq	r0, [r4], -r0
    1484:	870e0000 	strhi	r0, [lr, -r0]
    1488:	01000004 	tsteq	r0, r4
    148c:	00002547 	andeq	r2, r0, r7, asr #10
    1490:	04910200 	ldreq	r0, [r1], #512	; 0x200
    1494:	6675620f 	ldrbtvs	r6, [r5], -pc, lsl #4
    1498:	df4c0100 	svcle	0x004c0100
    149c:	03000002 	movweq	r0, #2
    14a0:	107fa891 			; <UNDEFINED> instruction: 0x107fa891
    14a4:	4c010070 	stcmi	0, cr0, [r1], {112}	; 0x70
    14a8:	00000074 	andeq	r0, r0, r4, ror r0
    14ac:	0000067e 	andeq	r0, r0, lr, ror r6
    14b0:	01007510 	tsteq	r0, r0, lsl r5
    14b4:	00002c4d 	andeq	r2, r0, sp, asr #24
    14b8:	00076800 	andeq	r6, r7, r0, lsl #16
    14bc:	00ce1100 	sbceq	r1, lr, r0, lsl #2
    14c0:	02ff0000 	rscseq	r0, pc, #0
    14c4:	03050000 	movweq	r0, #20480	; 0x5000
    14c8:	00009428 	andeq	r9, r0, r8, lsr #8
    14cc:	0086ec12 	addeq	lr, r6, r2, lsl ip
    14d0:	00007400 	andeq	r7, r0, r0, lsl #8
    14d4:	00026100 	andeq	r6, r2, r0, lsl #2
    14d8:	04691300 	strbteq	r1, [r9], #-768	; 0x300
    14dc:	52010000 	andpl	r0, r1, #0
    14e0:	0000002c 	andeq	r0, r0, ip, lsr #32
    14e4:	0000082b 	andeq	r0, r0, fp, lsr #16
    14e8:	87d81400 	ldrbhi	r1, [r8, r0, lsl #8]
    14ec:	06c40000 	strbeq	r0, [r4], r0
    14f0:	f4150000 			; <UNDEFINED> instruction: 0xf4150000
    14f4:	cb000087 	blgt	1718 <__code_start__-0x68e8>
    14f8:	a3000006 	movwge	r0, #6
    14fc:	16000002 	strne	r0, [r0], -r2
    1500:	08025301 	stmdaeq	r2, {r0, r8, r9, ip, lr}
    1504:	52011677 	andpl	r1, r1, #124780544	; 0x7700000
    1508:	94280305 	strtls	r0, [r8], #-773	; 0x305
    150c:	01160000 	tsteq	r6, r0
    1510:	4c030551 	cfstr32mi	mvfx0, [r3], {81}	; 0x51
    1514:	16000094 			; <UNDEFINED> instruction: 0x16000094
    1518:	03055001 	movweq	r5, #20481	; 0x5001
    151c:	00009244 	andeq	r9, r0, r4, asr #4
    1520:	007d0216 	rsbseq	r0, sp, r6, lsl r2
    1524:	94600305 	strbtls	r0, [r0], #-773	; 0x305
    1528:	14000000 	strne	r0, [r0], #-0
    152c:	000087f8 	strdeq	r8, [r0], -r8	; <UNPREDICTABLE>
    1530:	000006e1 	andeq	r0, r0, r1, ror #13
    1534:	00880015 	addeq	r0, r8, r5, lsl r0
    1538:	0000e000 	andeq	lr, r0, r0
    153c:	0002c100 	andeq	ip, r2, r0, lsl #2
    1540:	51011600 	tstpl	r1, r0, lsl #12
    1544:	7fa09103 	svcvc	0x00a09103
    1548:	88141700 	ldmdahi	r4, {r8, r9, sl, ip}
    154c:	01300000 	teqeq	r0, r0
    1550:	01160000 	tsteq	r6, r0
    1554:	a0910353 	addsge	r0, r1, r3, asr r3
    1558:	5101167f 	tstpl	r1, pc, ror r6
    155c:	16007402 	strne	r7, [r0], -r2, lsl #8
    1560:	75025001 	strvc	r5, [r2, #-1]
    1564:	18000000 	stmdane	r0, {}	; <UNPREDICTABLE>
    1568:	0000007a 	andeq	r0, r0, sl, ror r0
    156c:	000002ef 	andeq	r0, r0, pc, ror #5
    1570:	00006b19 	andeq	r6, r0, r9, lsl fp
    1574:	18003f00 	stmdane	r0, {r8, r9, sl, fp, ip, sp}
    1578:	0000007a 	andeq	r0, r0, sl, ror r0
    157c:	000002ff 	strdeq	r0, [r0], -pc	; <UNPREDICTABLE>
    1580:	00006b19 	andeq	r6, r0, r9, lsl fp
    1584:	06000400 	streq	r0, [r0], -r0, lsl #8
    1588:	000002ef 	andeq	r0, r0, pc, ror #5
    158c:	0004a11a 	andeq	sl, r4, sl, lsl r1
    1590:	3c1f0100 	ldfccs	f0, [pc], {-0}
    1594:	68000088 	stmdavs	r0, {r3, r7}
    1598:	01000000 	mrseq	r0, (UNDEF: 0)
    159c:	0003929c 	muleq	r3, ip, r2
    15a0:	04b60d00 	ldrteq	r0, [r6], #3328	; 0xd00
    15a4:	1f010000 	svcne	0x00010000
    15a8:	000003a1 	andeq	r0, r0, r1, lsr #7
    15ac:	00000857 	andeq	r0, r0, r7, asr r8
    15b0:	00047f0d 	andeq	r7, r4, sp, lsl #30
    15b4:	b61f0100 	ldrlt	r0, [pc], -r0, lsl #2
    15b8:	83000003 	movwhi	r0, #3
    15bc:	11000008 	tstne	r0, r8
    15c0:	000000ce 	andeq	r0, r0, lr, asr #1
    15c4:	000003cc 	andeq	r0, r0, ip, asr #7
    15c8:	94300305 	ldrtls	r0, [r0], #-773	; 0x305
    15cc:	50140000 	andspl	r0, r4, r0
    15d0:	c4000088 	strgt	r0, [r0], #-136	; 0x88
    15d4:	15000006 	strne	r0, [r0, #-6]
    15d8:	0000886c 	andeq	r8, r0, ip, ror #16
    15dc:	000006cb 	andeq	r0, r0, fp, asr #13
    15e0:	00000388 	andeq	r0, r0, r8, lsl #7
    15e4:	02530116 	subseq	r0, r3, #-2147483643	; 0x80000005
    15e8:	01162008 	tsteq	r6, r8
    15ec:	30030552 	andcc	r0, r3, r2, asr r5
    15f0:	16000094 			; <UNDEFINED> instruction: 0x16000094
    15f4:	03055101 	movweq	r5, #20737	; 0x5101
    15f8:	0000944c 	andeq	r9, r0, ip, asr #8
    15fc:	05500116 	ldrbeq	r0, [r0, #-278]	; 0x116
    1600:	00924403 	addseq	r4, r2, r3, lsl #8
    1604:	7d021600 	stcvc	6, cr1, [r2, #-0]
    1608:	88030500 	stmdahi	r3, {r8, sl}
    160c:	00000094 	muleq	r0, r4, r0
    1610:	00887014 	addeq	r7, r8, r4, lsl r0
    1614:	0006e100 	andeq	lr, r6, r0, lsl #2
    1618:	251b0000 	ldrcs	r0, [fp, #-0]
    161c:	a1000000 	mrsge	r0, (UNDEF: 0)
    1620:	1c000003 	stcne	0, cr0, [r0], {3}
    1624:	00000025 	andeq	r0, r0, r5, lsr #32
    1628:	92040500 	andls	r0, r4, #0, 10
    162c:	1b000003 	blne	1640 <__code_start__-0x69c0>
    1630:	00000025 	andeq	r0, r0, r5, lsr #32
    1634:	000003b6 			; <UNDEFINED> instruction: 0x000003b6
    1638:	0000811c 	andeq	r8, r0, ip, lsl r1
    163c:	04050000 	streq	r0, [r5], #-0
    1640:	000003a7 	andeq	r0, r0, r7, lsr #7
    1644:	00007a18 	andeq	r7, r0, r8, lsl sl
    1648:	0003cc00 	andeq	ip, r3, r0, lsl #24
    164c:	006b1900 	rsbeq	r1, fp, r0, lsl #18
    1650:	000e0000 	andeq	r0, lr, r0
    1654:	0003bc06 	andeq	fp, r3, r6, lsl #24
    1658:	03a31d00 			; <UNDEFINED> instruction: 0x03a31d00
    165c:	7f010000 	svcvc	0x00010000
    1660:	00000025 	andeq	r0, r0, r5, lsr #32
    1664:	000088a4 	andeq	r8, r0, r4, lsr #17
    1668:	000002d4 	ldrdeq	r0, [r0], -r4
    166c:	06899c01 	streq	r9, [r9], r1, lsl #24
    1670:	620b0000 	andvs	r0, fp, #0
    1674:	01006675 	tsteq	r0, r5, ror r6
    1678:	0000747f 	andeq	r7, r0, pc, ror r4
    167c:	0008af00 	andeq	sl, r8, r0, lsl #30
    1680:	006e0b00 	rsbeq	r0, lr, r0, lsl #22
    1684:	00257f01 	eoreq	r7, r5, r1, lsl #30
    1688:	08db0000 	ldmeq	fp, {}^	; <UNPREDICTABLE>
    168c:	660b0000 	strvs	r0, [fp], -r0
    1690:	0100746d 	tsteq	r0, sp, ror #8
    1694:	0000817f 	andeq	r8, r0, pc, ror r1
    1698:	00090900 	andeq	r0, r9, r0, lsl #18
    169c:	08d80d00 	ldmeq	r8, {r8, sl, fp}^
    16a0:	7f010000 	svcvc	0x00010000
    16a4:	000000ae 	andeq	r0, r0, lr, lsr #1
    16a8:	00000927 	andeq	r0, r0, r7, lsr #18
    16ac:	01007010 	tsteq	r0, r0, lsl r0
    16b0:	00007480 	andeq	r7, r0, r0, lsl #9
    16b4:	00093a00 	andeq	r3, r9, r0, lsl #20
    16b8:	00651000 	rsbeq	r1, r5, r0
    16bc:	00748001 	rsbseq	r8, r4, r1
    16c0:	09b80000 	ldmibeq	r8!, {}	; <UNPREDICTABLE>
    16c4:	5f130000 	svcpl	0x00130000
    16c8:	01000004 	tsteq	r0, r4
    16cc:	00008183 	andeq	r8, r0, r3, lsl #3
    16d0:	0009df00 	andeq	sp, r9, r0, lsl #30
    16d4:	00ce1100 	sbceq	r1, lr, r0, lsl #2
    16d8:	06990000 	ldreq	r0, [r9], r0
    16dc:	03050000 	movweq	r0, #20480	; 0x5000
    16e0:	00009440 	andeq	r9, r0, r0, asr #8
    16e4:	0089001e 	addeq	r0, r9, lr, lsl r0
    16e8:	00022c00 	andeq	r2, r2, r0, lsl #24
    16ec:	00731000 	rsbseq	r1, r3, r0
    16f0:	00748e01 	rsbseq	r8, r4, r1, lsl #28
    16f4:	09ff0000 	ldmibeq	pc!, {}^	; <UNPREDICTABLE>
    16f8:	6e0f0000 	cdpvs	0, 0, cr0, cr15, cr0, {0}
    16fc:	01006d75 	tsteq	r0, r5, ror sp
    1700:	00069e8e 	andeq	r9, r6, lr, lsl #29
    1704:	d8910300 	ldmle	r1, {r8, r9}
    1708:	04b0137e 	ldrteq	r1, [r0], #894	; 0x37e
    170c:	8f010000 	svchi	0x00010000
    1710:	0000002c 	andeq	r0, r0, ip, lsr #32
    1714:	00000a54 	andeq	r0, r0, r4, asr sl
    1718:	00893015 	addeq	r3, r9, r5, lsl r0
    171c:	0000b900 	andeq	fp, r0, r0, lsl #18
    1720:	0004a400 	andeq	sl, r4, r0, lsl #8
    1724:	50011600 	andpl	r1, r1, r0, lsl #12
    1728:	00007502 	andeq	r7, r0, r2, lsl #10
    172c:	00894414 	addeq	r4, r9, r4, lsl r4
    1730:	0006c400 	andeq	ip, r6, r0, lsl #8
    1734:	89601500 	stmdbhi	r0!, {r8, sl, ip}^
    1738:	06cb0000 	strbeq	r0, [fp], r0
    173c:	04e60000 	strbteq	r0, [r6], #0
    1740:	01160000 	tsteq	r6, r0
    1744:	95080253 	strls	r0, [r8, #-595]	; 0x253
    1748:	05520116 	ldrbeq	r0, [r2, #-278]	; 0x116
    174c:	00944003 	addseq	r4, r4, r3
    1750:	51011600 	tstpl	r1, r0, lsl #12
    1754:	944c0305 	strbls	r0, [ip], #-773	; 0x305
    1758:	01160000 	tsteq	r6, r0
    175c:	44030550 	strmi	r0, [r3], #-1360	; 0x550
    1760:	16000092 			; <UNDEFINED> instruction: 0x16000092
    1764:	05007d02 	streq	r7, [r0, #-3330]	; 0xd02
    1768:	00949003 	addseq	r9, r4, r3
    176c:	64140000 	ldrvs	r0, [r4], #-0
    1770:	e1000089 	smlabb	r0, r9, r0, r0
    1774:	14000006 	strne	r0, [r0], #-6
    1778:	000089d4 	ldrdeq	r8, [r0], -r4
    177c:	000006c4 	andeq	r0, r0, r4, asr #13
    1780:	0089e815 	addeq	lr, r9, r5, lsl r8
    1784:	0006cb00 	andeq	ip, r6, r0, lsl #22
    1788:	00052700 	andeq	r2, r5, r0, lsl #14
    178c:	53011600 	movwpl	r1, #5632	; 0x1600
    1790:	169b0802 	ldrne	r0, [fp], r2, lsl #16
    1794:	03055201 	movweq	r5, #20993	; 0x5201
    1798:	00009440 	andeq	r9, r0, r0, asr #8
    179c:	05510116 	ldrbeq	r0, [r1, #-278]	; 0x116
    17a0:	00944c03 	addseq	r4, r4, r3, lsl #24
    17a4:	50011600 	andpl	r1, r1, r0, lsl #12
    17a8:	949c0305 	ldrls	r0, [ip], #773	; 0x305
    17ac:	14000000 	strne	r0, [r0], #-0
    17b0:	000089ec 	andeq	r8, r0, ip, ror #19
    17b4:	000006e1 	andeq	r0, r0, r1, ror #13
    17b8:	008a1015 	addeq	r1, sl, r5, lsl r0
    17bc:	00019c00 	andeq	r9, r1, r0, lsl #24
    17c0:	00055d00 	andeq	r5, r5, r0, lsl #26
    17c4:	52011600 	andpl	r1, r1, #0, 12
    17c8:	16800802 	strne	r0, [r0], r2, lsl #16
    17cc:	91035101 	tstls	r3, r1, lsl #2
    17d0:	01167ed0 			; <UNDEFINED> instruction: 0x01167ed0
    17d4:	163a0150 			; <UNDEFINED> instruction: 0x163a0150
    17d8:	01047d02 	tsteq	r4, r2, lsl #26
    17dc:	7d021631 	stcvc	6, cr1, [r2, #-196]	; 0xffffff3c
    17e0:	00770200 	rsbseq	r0, r7, r0, lsl #4
    17e4:	8a381500 	bhi	e06bec <__bss_end__+0xdfd164>
    17e8:	019c0000 	orrseq	r0, ip, r0
    17ec:	058a0000 	streq	r0, [sl]
    17f0:	01160000 	tsteq	r6, r0
    17f4:	80080252 	andhi	r0, r8, r2, asr r2
    17f8:	03510116 	cmpeq	r1, #-2147483643	; 0x80000005
    17fc:	167ed091 			; <UNDEFINED> instruction: 0x167ed091
    1800:	3a015001 	bcc	5580c <__bss_end__+0x4bd84>
    1804:	047d0216 	ldrbteq	r0, [sp], #-534	; 0x216
    1808:	02163001 	andseq	r3, r6, #1
    180c:	7702007d 	smlsdxvc	r2, sp, r0, r0
    1810:	60150000 	andsvs	r0, r5, r0
    1814:	9c00008a 	stcls	0, cr0, [r0], {138}	; 0x8a
    1818:	b7000001 	strlt	r0, [r0, -r1]
    181c:	16000005 	strne	r0, [r0], -r5
    1820:	08025201 	stmdaeq	r2, {r0, r9, ip, lr}
    1824:	51011680 	smlabbpl	r1, r0, r6, r1
    1828:	7ed09103 	atnvcs	f1, f3
    182c:	01500116 	cmpeq	r0, r6, lsl r1
    1830:	7d021640 	stcvc	6, cr1, [r2, #-256]	; 0xffffff00
    1834:	16300104 	ldrtne	r0, [r0], -r4, lsl #2
    1838:	02007d02 	andeq	r7, r0, #2, 26	; 0x80
    183c:	15000077 	strne	r0, [r0, #-119]	; 0x77
    1840:	00008a88 	andeq	r8, r0, r8, lsl #21
    1844:	0000019c 	muleq	r0, ip, r1
    1848:	000005e4 	andeq	r0, r0, r4, ror #11
    184c:	02520116 	subseq	r0, r2, #-2147483643	; 0x80000005
    1850:	01168008 	tsteq	r6, r8
    1854:	d0910351 	addsle	r0, r1, r1, asr r3
    1858:	5001167e 	andpl	r1, r1, lr, ror r6
    185c:	02163201 	andseq	r3, r6, #268435456	; 0x10000000
    1860:	3001047d 	andcc	r0, r1, sp, ror r4
    1864:	007d0216 	rsbseq	r0, sp, r6, lsl r2
    1868:	00007702 	andeq	r7, r0, r2, lsl #14
    186c:	008abc15 	addeq	fp, sl, r5, lsl ip
    1870:	00019c00 	andeq	r9, r1, r0, lsl #24
    1874:	00061100 	andeq	r1, r6, r0, lsl #2
    1878:	52011600 	andpl	r1, r1, #0, 12
    187c:	16800802 	strne	r0, [r0], r2, lsl #16
    1880:	91035101 	tstls	r3, r1, lsl #2
    1884:	01167ed0 			; <UNDEFINED> instruction: 0x01167ed0
    1888:	16380150 			; <UNDEFINED> instruction: 0x16380150
    188c:	01047d02 	tsteq	r4, r2, lsl #26
    1890:	7d021630 	stcvc	6, cr1, [r2, #-192]	; 0xffffff40
    1894:	00770200 	rsbseq	r0, r7, r0, lsl #4
    1898:	8ad81500 	bhi	ff606ca0 <__bss_end__+0xff5fd218>
    189c:	06cb0000 	strbeq	r0, [fp], r0
    18a0:	06340000 	ldrteq	r0, [r4], -r0
    18a4:	01160000 	tsteq	r6, r0
    18a8:	00790252 	rsbseq	r0, r9, r2, asr r2
    18ac:	02510116 	subseq	r0, r1, #-2147483643	; 0x80000005
    18b0:	01160079 	tsteq	r6, r9, ror r0
    18b4:	c4030550 	strgt	r0, [r3], #-1360	; 0x550
    18b8:	00000094 	muleq	r0, r4, r0
    18bc:	008ae81f 	addeq	lr, sl, pc, lsl r8
    18c0:	00064600 	andeq	r4, r6, r0, lsl #12
    18c4:	50011600 	andpl	r1, r1, r0, lsl #12
    18c8:	7ecc9104 	acsvce	f1, f4
    18cc:	ec140006 	ldc	0, cr0, [r4], {6}
    18d0:	c400008a 	strgt	r0, [r0], #-138	; 0x8a
    18d4:	15000006 	strne	r0, [r0, #-6]
    18d8:	00008b00 	andeq	r8, r0, r0, lsl #22
    18dc:	000006cb 	andeq	r0, r0, fp, asr #13
    18e0:	0000067e 	andeq	r0, r0, lr, ror r6
    18e4:	02530116 	subseq	r0, r3, #-2147483643	; 0x80000005
    18e8:	0116bf08 	tsteq	r6, r8, lsl #30
    18ec:	40030552 	andmi	r0, r3, r2, asr r5
    18f0:	16000094 			; <UNDEFINED> instruction: 0x16000094
    18f4:	03055101 	movweq	r5, #20737	; 0x5101
    18f8:	0000944c 	andeq	r9, r0, ip, asr #8
    18fc:	05500116 	ldrbeq	r0, [r0, #-278]	; 0x116
    1900:	0094f403 	addseq	pc, r4, r3, lsl #8
    1904:	04140000 	ldreq	r0, [r4], #-0
    1908:	e100008b 	smlabb	r0, fp, r0, r0
    190c:	00000006 	andeq	r0, r0, r6
    1910:	007a1800 	rsbseq	r1, sl, r0, lsl #16
    1914:	06990000 	ldreq	r0, [r9], r0
    1918:	6b190000 	blvs	641920 <__bss_end__+0x637e98>
    191c:	09000000 	stmdbeq	r0, {}	; <UNPREDICTABLE>
    1920:	06890600 	streq	r0, [r9], r0, lsl #12
    1924:	7a180000 	bvc	60192c <__bss_end__+0x5f7ea4>
    1928:	ae000000 	cdpge	0, 0, cr0, cr0, cr0, {0}
    192c:	19000006 	stmdbne	r0, {r1, r2}
    1930:	0000006b 	andeq	r0, r0, fp, rrx
    1934:	1d20007f 	stcne	0, cr0, [r0, #-508]!	; 0xfffffe04
    1938:	03000004 	movweq	r0, #4
    193c:	0003a11d 	andeq	sl, r3, sp, lsl r1
    1940:	045a2000 	ldrbeq	r2, [sl], #-0
    1944:	22030000 	andcs	r0, r3, #0
    1948:	000003b6 			; <UNDEFINED> instruction: 0x000003b6
    194c:	0001d221 	andeq	sp, r1, r1, lsr #4
    1950:	221e0300 	andscs	r0, lr, #0, 6
    1954:	000003a6 	andeq	r0, r0, r6, lsr #7
    1958:	00252903 	eoreq	r2, r5, r3, lsl #18
    195c:	06e10000 	strbteq	r0, [r1], r0
    1960:	811c0000 	tsthi	ip, r0
    1964:	23000000 	movwcs	r0, #0
    1968:	00a72100 	adceq	r2, r7, r0, lsl #2
    196c:	65030000 	strvs	r0, [r3, #-0]
    1970:	00010f00 	andeq	r0, r1, r0, lsl #30
    1974:	83000400 	movwhi	r0, #1024	; 0x400
    1978:	04000008 	streq	r0, [r0], #-8
    197c:	00034c01 	andeq	r4, r3, r1, lsl #24
    1980:	04d20100 	ldrbeq	r0, [r2], #256	; 0x100
    1984:	03b70000 			; <UNDEFINED> instruction: 0x03b70000
    1988:	8b780000 	blhi	1e01990 <__bss_end__+0x1df7f08>
    198c:	002c0000 	eoreq	r0, ip, r0
    1990:	074b0000 	strbeq	r0, [fp, -r0]
    1994:	04020000 	streq	r0, [r2], #-0
    1998:	746e6905 	strbtvc	r6, [lr], #-2309	; 0x905
    199c:	07040300 	streq	r0, [r4, -r0, lsl #6]
    19a0:	0000015b 	andeq	r0, r0, fp, asr r1
    19a4:	9b060103 	blls	181db8 <__bss_end__+0x178330>
    19a8:	03000000 	movweq	r0, #0
    19ac:	01a10502 			; <UNDEFINED> instruction: 0x01a10502
    19b0:	04030000 	streq	r0, [r3], #-0
    19b4:	00019305 	andeq	r9, r1, r5, lsl #6
    19b8:	05080300 	streq	r0, [r8, #-768]	; 0x300
    19bc:	0000018e 	andeq	r0, r0, lr, lsl #3
    19c0:	99080103 	stmdbls	r8, {r0, r1, r8}
    19c4:	03000000 	movweq	r0, #0
    19c8:	00630702 	rsbeq	r0, r3, r2, lsl #14
    19cc:	04030000 	streq	r0, [r3], #-0
    19d0:	00015607 	andeq	r5, r1, r7, lsl #12
    19d4:	07080300 	streq	r0, [r8, -r0, lsl #6]
    19d8:	00000151 	andeq	r0, r0, r1, asr r1
    19dc:	85070403 	strhi	r0, [r7, #-1027]	; 0x403
    19e0:	03000001 	movweq	r0, #1
    19e4:	00a20801 	adceq	r0, r2, r1, lsl #16
    19e8:	04040000 	streq	r0, [r4], #-0
    19ec:	0000007f 	andeq	r0, r0, pc, ror r0
    19f0:	00007205 	andeq	r7, r0, r5, lsl #4
    19f4:	00a70600 	adceq	r0, r7, r0, lsl #12
    19f8:	04010000 	streq	r0, [r1], #-0
    19fc:	00008b78 	andeq	r8, r0, r8, ror fp
    1a00:	0000002c 	andeq	r0, r0, ip, lsr #32
    1a04:	00d39c01 	sbcseq	r9, r3, r1, lsl #24
    1a08:	80070000 	andhi	r0, r7, r0
    1a0c:	f300008b 	vhadd.u8	d0, d16, d11
    1a10:	08000000 	stmdaeq	r0, {}	; <UNPREDICTABLE>
    1a14:	00008b90 	muleq	r0, r0, fp
    1a18:	000000b5 	strheq	r0, [r0], -r5
    1a1c:	05500109 	ldrbeq	r0, [r0, #-265]	; 0x109
    1a20:	00951403 	addseq	r1, r5, r3, lsl #8
    1a24:	980a0000 	stmdals	sl, {}	; <UNPREDICTABLE>
    1a28:	fa00008b 	blx	1c5c <__code_start__-0x63a4>
    1a2c:	c9000000 	stmdbgt	r0, {}	; <UNPREDICTABLE>
    1a30:	09000000 	stmdbeq	r0, {}	; <UNPREDICTABLE>
    1a34:	08025001 	stmdaeq	r2, {r0, ip, lr}
    1a38:	9c070064 	stcls	0, cr0, [r7], {100}	; 0x64
    1a3c:	0b00008b 	bleq	1c70 <__code_start__-0x6390>
    1a40:	00000001 	andeq	r0, r0, r1
    1a44:	0000250b 	andeq	r2, r0, fp, lsl #10
    1a48:	0000e200 	andeq	lr, r0, r0, lsl #4
    1a4c:	00790c00 	rsbseq	r0, r9, r0, lsl #24
    1a50:	0d000000 	stceq	0, cr0, [r0, #-0]
    1a54:	0000045a 	andeq	r0, r0, sl, asr r4
    1a58:	00ed2202 	rsceq	r2, sp, r2, lsl #4
    1a5c:	04040000 	streq	r0, [r4], #-0
    1a60:	000000d3 	ldrdeq	r0, [r0], -r3
    1a64:	0004c30e 	andeq	ip, r4, lr, lsl #6
    1a68:	0fdc0200 	svceq	0x00dc0200
    1a6c:	000004f6 	strdeq	r0, [r0], -r6
    1a70:	010b4f02 	tsteq	fp, r2, lsl #30
    1a74:	2c0c0000 	stccs	0, cr0, [ip], {-0}
    1a78:	00000000 	andeq	r0, r0, r0
    1a7c:	0004eb0e 	andeq	lr, r4, lr, lsl #22
    1a80:	00620200 	rsbeq	r0, r2, r0, lsl #4
    1a84:	0000010f 	andeq	r0, r0, pc, lsl #2
    1a88:	094d0004 	stmdbeq	sp, {r2}^
    1a8c:	01040000 	mrseq	r0, (UNDEF: 4)
    1a90:	0000034c 	andeq	r0, r0, ip, asr #6
    1a94:	00053801 	andeq	r3, r5, r1, lsl #16
    1a98:	0003b700 	andeq	fp, r3, r0, lsl #14
    1a9c:	008ba400 	addeq	sl, fp, r0, lsl #8
    1aa0:	00003800 	andeq	r3, r0, r0, lsl #16
    1aa4:	0007ec00 	andeq	lr, r7, r0, lsl #24
    1aa8:	05040200 	streq	r0, [r4, #-512]	; 0x200
    1aac:	00746e69 	rsbseq	r6, r4, r9, ror #28
    1ab0:	5b070403 	blpl	1c2ac4 <__bss_end__+0x1b903c>
    1ab4:	03000001 	movweq	r0, #1
    1ab8:	009b0601 	addseq	r0, fp, r1, lsl #12
    1abc:	02030000 	andeq	r0, r3, #0
    1ac0:	0001a105 	andeq	sl, r1, r5, lsl #2
    1ac4:	05040300 	streq	r0, [r4, #-768]	; 0x300
    1ac8:	00000193 	muleq	r0, r3, r1
    1acc:	8e050803 	cdphi	8, 0, cr0, cr5, cr3, {0}
    1ad0:	03000001 	movweq	r0, #1
    1ad4:	00990801 	addseq	r0, r9, r1, lsl #16
    1ad8:	02030000 	andeq	r0, r3, #0
    1adc:	00006307 	andeq	r6, r0, r7, lsl #6
    1ae0:	07040300 	streq	r0, [r4, -r0, lsl #6]
    1ae4:	00000156 	andeq	r0, r0, r6, asr r1
    1ae8:	51070803 	tstpl	r7, r3, lsl #16
    1aec:	03000001 	movweq	r0, #1
    1af0:	01850704 	orreq	r0, r5, r4, lsl #14
    1af4:	01030000 	mrseq	r0, (UNDEF: 3)
    1af8:	0000a208 	andeq	sl, r0, r8, lsl #4
    1afc:	05300400 	ldreq	r0, [r0, #-1024]!	; 0x400
    1b00:	0d010000 	stceq	0, cr0, [r1, #-0]
    1b04:	00008ba4 	andeq	r8, r0, r4, lsr #23
    1b08:	00000038 	andeq	r0, r0, r8, lsr r0
    1b0c:	00e19c01 	rsceq	r9, r1, r1, lsl #24
    1b10:	ff050000 			; <UNDEFINED> instruction: 0xff050000
    1b14:	01000004 	tsteq	r0, r4
    1b18:	0000250e 	andeq	r2, r0, lr, lsl #10
    1b1c:	050d0500 	streq	r0, [sp, #-1280]	; 0x500
    1b20:	0e010000 	cdpeq	0, 0, cr0, cr1, cr0, {0}
    1b24:	00000025 	andeq	r0, r0, r5, lsr #32
    1b28:	00007606 	andeq	r7, r0, r6, lsl #12
    1b2c:	070f0100 	streq	r0, [pc, -r0, lsl #2]
    1b30:	00737362 	rsbseq	r7, r3, r2, ror #6
    1b34:	00e11101 	rsceq	r1, r1, r1, lsl #2
    1b38:	0a7e0000 	beq	1f81b40 <__bss_end__+0x1f780b8>
    1b3c:	28080000 	stmdacs	r8, {}	; <UNPREDICTABLE>
    1b40:	01000005 	tsteq	r0, r5
    1b44:	0000e112 	andeq	lr, r0, r2, lsl r1
    1b48:	8bcc0900 	blhi	ff303f50 <__bss_end__+0xff2fa4c8>
    1b4c:	00fd0000 	rscseq	r0, sp, r0
    1b50:	d0090000 	andle	r0, r9, r0
    1b54:	0400008b 	streq	r0, [r0], #-139	; 0x8b
    1b58:	09000001 	stmdbeq	r0, {r0}
    1b5c:	00008bd4 	ldrdeq	r8, [r0], -r4
    1b60:	0000010b 	andeq	r0, r0, fp, lsl #2
    1b64:	25040a00 	strcs	r0, [r4, #-2560]	; 0xa00
    1b68:	05000000 	streq	r0, [r0, #-0]
    1b6c:	000004ff 	strdeq	r0, [r0], -pc	; <UNPREDICTABLE>
    1b70:	00250e01 	eoreq	r0, r5, r1, lsl #28
    1b74:	0d050000 	stceq	0, cr0, [r5, #-0]
    1b78:	01000005 	tsteq	r0, r5
    1b7c:	0000250e 	andeq	r2, r0, lr, lsl #10
    1b80:	05190600 	ldreq	r0, [r9, #-1536]	; 0x600
    1b84:	da020000 	ble	81b8c <__bss_end__+0x78104>
    1b88:	00007606 	andeq	r7, r0, r6, lsl #12
    1b8c:	06d70200 	ldrbeq	r0, [r7], r0, lsl #4
    1b90:	000000a7 	andeq	r0, r0, r7, lsr #1
    1b94:	3e006502 	cfsh32cc	mvfx6, mvfx0, #2
    1b98:	04000001 	streq	r0, [r0], #-1
    1b9c:	0009e100 	andeq	lr, r9, r0, lsl #2
    1ba0:	4c010400 	cfstrsmi	mvf0, [r1], {-0}
    1ba4:	01000003 	tsteq	r0, r3
    1ba8:	0000054b 	andeq	r0, r0, fp, asr #10
    1bac:	000003b7 			; <UNDEFINED> instruction: 0x000003b7
    1bb0:	00008bdc 	ldrdeq	r8, [r0], -ip
    1bb4:	00000044 	andeq	r0, r0, r4, asr #32
    1bb8:	00000896 	muleq	r0, r6, r8
    1bbc:	69050402 	stmdbvs	r5, {r1, sl}
    1bc0:	0300746e 	movweq	r7, #1134	; 0x46e
    1bc4:	015b0704 	cmpeq	fp, r4, lsl #14
    1bc8:	01030000 	mrseq	r0, (UNDEF: 3)
    1bcc:	00009b06 	andeq	r9, r0, r6, lsl #22
    1bd0:	05020300 	streq	r0, [r2, #-768]	; 0x300
    1bd4:	000001a1 	andeq	r0, r0, r1, lsr #3
    1bd8:	93050403 	movwls	r0, #21507	; 0x5403
    1bdc:	03000001 	movweq	r0, #1
    1be0:	018e0508 	orreq	r0, lr, r8, lsl #10
    1be4:	01030000 	mrseq	r0, (UNDEF: 3)
    1be8:	00009908 	andeq	r9, r0, r8, lsl #18
    1bec:	07020300 	streq	r0, [r2, -r0, lsl #6]
    1bf0:	00000063 	andeq	r0, r0, r3, rrx
    1bf4:	56070403 	strpl	r0, [r7], -r3, lsl #8
    1bf8:	03000001 	movweq	r0, #1
    1bfc:	01510708 	cmpeq	r1, r8, lsl #14
    1c00:	04030000 	streq	r0, [r3], #-0
    1c04:	00018507 	andeq	r8, r1, r7, lsl #10
    1c08:	08010300 	stmdaeq	r1, {r8, r9}
    1c0c:	000000a2 	andeq	r0, r0, r2, lsr #1
    1c10:	007f0404 	rsbseq	r0, pc, r4, lsl #8
    1c14:	72050000 	andvc	r0, r5, #0
    1c18:	06000000 	streq	r0, [r0], -r0
    1c1c:	0000056c 	andeq	r0, r0, ip, ror #10
    1c20:	8bdc0201 	blhi	ff70242c <__bss_end__+0xff6f89a4>
    1c24:	00440000 	subeq	r0, r4, r0
    1c28:	9c010000 	stcls	0, cr0, [r1], {-0}
    1c2c:	00000108 	andeq	r0, r0, r8, lsl #2
    1c30:	00637007 	rsbeq	r7, r3, r7
    1c34:	002c0201 	eoreq	r0, ip, r1, lsl #4
    1c38:	0a9e0000 	beq	fe781c40 <__bss_end__+0xfe7781b8>
    1c3c:	ce080000 	cdpgt	0, 0, cr0, cr8, cr0, {0}
    1c40:	18000000 	stmdane	r0, {}	; <UNPREDICTABLE>
    1c44:	05000001 	streq	r0, [r0, #-1]
    1c48:	00952003 	addseq	r2, r5, r3
    1c4c:	8bec0900 	blhi	ffb04054 <__bss_end__+0xffafa5cc>
    1c50:	011d0000 	tsteq	sp, r0
    1c54:	0c0a0000 	stceq	0, cr0, [sl], {-0}
    1c58:	2400008c 	strcs	r0, [r0], #-140	; 0x8c
    1c5c:	fe000001 	cdp2	0, 0, cr0, cr0, cr1, {0}
    1c60:	0b000000 	bleq	1c68 <__code_start__-0x6398>
    1c64:	32015301 	andcc	r5, r1, #67108864	; 0x4000000
    1c68:	0552010b 	ldrbeq	r0, [r2, #-267]	; 0x10b
    1c6c:	00952003 	addseq	r2, r5, r3
    1c70:	51010b00 	tstpl	r1, r0, lsl #22
    1c74:	95740305 	ldrbls	r0, [r4, #-773]!	; 0x305
    1c78:	010b0000 	mrseq	r0, (UNDEF: 11)
    1c7c:	38030550 	stmdacc	r3, {r4, r6, r8, sl}
    1c80:	0b000095 	bleq	1edc <__code_start__-0x6124>
    1c84:	02047d02 	andeq	r7, r4, #2, 26	; 0x80
    1c88:	020b0074 	andeq	r0, fp, #116	; 0x74
    1c8c:	0305007d 	movweq	r0, #20605	; 0x507d
    1c90:	00009598 	muleq	r0, r8, r5
    1c94:	8c100900 	ldchi	9, cr0, [r0], {-0}
    1c98:	013a0000 	teqeq	sl, r0
    1c9c:	0c000000 	stceq	0, cr0, [r0], {-0}
    1ca0:	00000072 	andeq	r0, r0, r2, ror r0
    1ca4:	00000118 	andeq	r0, r0, r8, lsl r1
    1ca8:	00006b0d 	andeq	r6, r0, sp, lsl #22
    1cac:	05001500 	streq	r1, [r0, #-1280]	; 0x500
    1cb0:	00000108 	andeq	r0, r0, r8, lsl #2
    1cb4:	0001d20e 	andeq	sp, r1, lr, lsl #4
    1cb8:	0f1e0200 	svceq	0x001e0200
    1cbc:	000003a6 	andeq	r0, r0, r6, lsr #7
    1cc0:	00252902 	eoreq	r2, r5, r2, lsl #18
    1cc4:	013a0000 	teqeq	sl, r0
    1cc8:	79100000 	ldmdbvc	r0, {}	; <UNPREDICTABLE>
    1ccc:	11000000 	mrsne	r0, (UNDEF: 0)
    1cd0:	00a70e00 	adceq	r0, r7, r0, lsl #28
    1cd4:	65020000 	strvs	r0, [r2, #-0]
    1cd8:	00013e00 	andeq	r3, r1, r0, lsl #28
    1cdc:	b9000400 	stmdblt	r0, {sl}
    1ce0:	0400000a 	streq	r0, [r0], #-10
    1ce4:	00034c01 	andeq	r4, r3, r1, lsl #24
    1ce8:	058f0100 	streq	r0, [pc, #256]	; 1df0 <__code_start__-0x6210>
    1cec:	03b70000 			; <UNDEFINED> instruction: 0x03b70000
    1cf0:	8c200000 	stchi	0, cr0, [r0], #-0
    1cf4:	00440000 	subeq	r0, r4, r0
    1cf8:	093c0000 	ldmdbeq	ip!, {}	; <UNPREDICTABLE>
    1cfc:	04020000 	streq	r0, [r2], #-0
    1d00:	746e6905 	strbtvc	r6, [lr], #-2309	; 0x905
    1d04:	07040300 	streq	r0, [r4, -r0, lsl #6]
    1d08:	0000015b 	andeq	r0, r0, fp, asr r1
    1d0c:	9b060103 	blls	182120 <__bss_end__+0x178698>
    1d10:	03000000 	movweq	r0, #0
    1d14:	01a10502 			; <UNDEFINED> instruction: 0x01a10502
    1d18:	04030000 	streq	r0, [r3], #-0
    1d1c:	00019305 	andeq	r9, r1, r5, lsl #6
    1d20:	05080300 	streq	r0, [r8, #-768]	; 0x300
    1d24:	0000018e 	andeq	r0, r0, lr, lsl #3
    1d28:	99080103 	stmdbls	r8, {r0, r1, r8}
    1d2c:	03000000 	movweq	r0, #0
    1d30:	00630702 	rsbeq	r0, r3, r2, lsl #14
    1d34:	04030000 	streq	r0, [r3], #-0
    1d38:	00015607 	andeq	r5, r1, r7, lsl #12
    1d3c:	07080300 	streq	r0, [r8, -r0, lsl #6]
    1d40:	00000151 	andeq	r0, r0, r1, asr r1
    1d44:	85070403 	strhi	r0, [r7, #-1027]	; 0x403
    1d48:	03000001 	movweq	r0, #1
    1d4c:	00a20801 	adceq	r0, r2, r1, lsl #16
    1d50:	04040000 	streq	r0, [r4], #-0
    1d54:	0000007f 	andeq	r0, r0, pc, ror r0
    1d58:	00007205 	andeq	r7, r0, r5, lsl #4
    1d5c:	05820600 	streq	r0, [r2, #1536]	; 0x600
    1d60:	02010000 	andeq	r0, r1, #0
    1d64:	00008c20 	andeq	r8, r0, r0, lsr #24
    1d68:	00000044 	andeq	r0, r0, r4, asr #32
    1d6c:	01089c01 	tsteq	r8, r1, lsl #24
    1d70:	70070000 	andvc	r0, r7, r0
    1d74:	02010063 	andeq	r0, r1, #99	; 0x63
    1d78:	0000002c 	andeq	r0, r0, ip, lsr #32
    1d7c:	00000abc 			; <UNDEFINED> instruction: 0x00000abc
    1d80:	0000ce08 	andeq	ip, r0, r8, lsl #28
    1d84:	00011800 	andeq	r1, r1, r0, lsl #16
    1d88:	a0030500 	andge	r0, r3, r0, lsl #10
    1d8c:	09000095 	stmdbeq	r0, {r0, r2, r4, r7}
    1d90:	00008c30 	andeq	r8, r0, r0, lsr ip
    1d94:	0000011d 	andeq	r0, r0, sp, lsl r1
    1d98:	008c500a 	addeq	r5, ip, sl
    1d9c:	00012400 	andeq	r2, r1, r0, lsl #8
    1da0:	0000fe00 	andeq	pc, r0, r0, lsl #28
    1da4:	53010b00 	movwpl	r0, #6912	; 0x1b00
    1da8:	010b3201 	tsteq	fp, r1, lsl #4
    1dac:	a0030552 	andge	r0, r3, r2, asr r5
    1db0:	0b000095 	bleq	200c <__code_start__-0x5ff4>
    1db4:	03055101 	movweq	r5, #20737	; 0x5101
    1db8:	000095b0 			; <UNDEFINED> instruction: 0x000095b0
    1dbc:	0550010b 	ldrbeq	r0, [r0, #-267]	; 0x10b
    1dc0:	00953803 	addseq	r3, r5, r3, lsl #16
    1dc4:	7d020b00 	vstrvc	d0, [r2, #-0]
    1dc8:	00740204 	rsbseq	r0, r4, r4, lsl #4
    1dcc:	007d020b 	rsbseq	r0, sp, fp, lsl #4
    1dd0:	95d40305 	ldrbls	r0, [r4, #773]	; 0x305
    1dd4:	09000000 	stmdbeq	r0, {}	; <UNPREDICTABLE>
    1dd8:	00008c54 	andeq	r8, r0, r4, asr ip
    1ddc:	0000013a 	andeq	r0, r0, sl, lsr r1
    1de0:	00720c00 	rsbseq	r0, r2, r0, lsl #24
    1de4:	01180000 	tsteq	r8, r0
    1de8:	6b0d0000 	blvs	341df0 <__bss_end__+0x338368>
    1dec:	0c000000 	stceq	0, cr0, [r0], {-0}
    1df0:	01080500 	tsteq	r8, r0, lsl #10
    1df4:	d20e0000 	andle	r0, lr, #0
    1df8:	02000001 	andeq	r0, r0, #1
    1dfc:	03a60f1e 			; <UNDEFINED> instruction: 0x03a60f1e
    1e00:	29020000 	stmdbcs	r2, {}	; <UNPREDICTABLE>
    1e04:	00000025 	andeq	r0, r0, r5, lsr #32
    1e08:	0000013a 	andeq	r0, r0, sl, lsr r1
    1e0c:	00007910 	andeq	r7, r0, r0, lsl r9
    1e10:	0e001100 	adfeqs	f1, f0, f0
    1e14:	000000a7 	andeq	r0, r0, r7, lsr #1
    1e18:	3e006502 	cfsh32cc	mvfx6, mvfx0, #2
    1e1c:	04000001 	streq	r0, [r0], #-1
    1e20:	000b9100 	andeq	r9, fp, r0, lsl #2
    1e24:	4c010400 	cfstrsmi	mvf0, [r1], {-0}
    1e28:	01000003 	tsteq	r0, r3
    1e2c:	000005b1 			; <UNDEFINED> instruction: 0x000005b1
    1e30:	000003b7 			; <UNDEFINED> instruction: 0x000003b7
    1e34:	00008c64 	andeq	r8, r0, r4, ror #24
    1e38:	00000044 	andeq	r0, r0, r4, asr #32
    1e3c:	000009e3 	andeq	r0, r0, r3, ror #19
    1e40:	69050402 	stmdbvs	r5, {r1, sl}
    1e44:	0300746e 	movweq	r7, #1134	; 0x46e
    1e48:	015b0704 	cmpeq	fp, r4, lsl #14
    1e4c:	01030000 	mrseq	r0, (UNDEF: 3)
    1e50:	00009b06 	andeq	r9, r0, r6, lsl #22
    1e54:	05020300 	streq	r0, [r2, #-768]	; 0x300
    1e58:	000001a1 	andeq	r0, r0, r1, lsr #3
    1e5c:	93050403 	movwls	r0, #21507	; 0x5403
    1e60:	03000001 	movweq	r0, #1
    1e64:	018e0508 	orreq	r0, lr, r8, lsl #10
    1e68:	01030000 	mrseq	r0, (UNDEF: 3)
    1e6c:	00009908 	andeq	r9, r0, r8, lsl #18
    1e70:	07020300 	streq	r0, [r2, -r0, lsl #6]
    1e74:	00000063 	andeq	r0, r0, r3, rrx
    1e78:	56070403 	strpl	r0, [r7], -r3, lsl #8
    1e7c:	03000001 	movweq	r0, #1
    1e80:	01510708 	cmpeq	r1, r8, lsl #14
    1e84:	04030000 	streq	r0, [r3], #-0
    1e88:	00018507 	andeq	r8, r1, r7, lsl #10
    1e8c:	08010300 	stmdaeq	r1, {r8, r9}
    1e90:	000000a2 	andeq	r0, r0, r2, lsr #1
    1e94:	007f0404 	rsbseq	r0, pc, r4, lsl #8
    1e98:	72050000 	andvc	r0, r5, #0
    1e9c:	06000000 	streq	r0, [r0], -r0
    1ea0:	00000072 	andeq	r0, r0, r2, ror r0
    1ea4:	00000094 	muleq	r0, r4, r0
    1ea8:	00006b07 	andeq	r6, r0, r7, lsl #22
    1eac:	08001900 	stmdaeq	r0, {r8, fp, ip}
    1eb0:	000005d1 	ldrdeq	r0, [r0], -r1
    1eb4:	8c640201 	sfmhi	f0, 2, [r4], #-4
    1eb8:	00440000 	subeq	r0, r4, r0
    1ebc:	9c010000 	stcls	0, cr0, [r1], {-0}
    1ec0:	00000118 	andeq	r0, r0, r8, lsl r1
    1ec4:	00637009 	rsbeq	r7, r3, r9
    1ec8:	002c0201 	eoreq	r0, ip, r1, lsl #4
    1ecc:	0ada0000 	beq	ff681ed4 <__bss_end__+0xff67844c>
    1ed0:	ce0a0000 	cdpgt	0, 0, cr0, cr10, cr0, {0}
    1ed4:	18000000 	stmdane	r0, {}	; <UNPREDICTABLE>
    1ed8:	05000001 	streq	r0, [r0, #-1]
    1edc:	0095dc03 	addseq	sp, r5, r3, lsl #24
    1ee0:	8c740b00 	ldclhi	11, cr0, [r4], #-0
    1ee4:	011d0000 	tsteq	sp, r0
    1ee8:	940c0000 	strls	r0, [ip], #-0
    1eec:	2400008c 	strcs	r0, [r0], #-140	; 0x8c
    1ef0:	0e000001 	cdpeq	0, 0, cr0, cr0, cr1, {0}
    1ef4:	0d000001 	stceq	0, cr0, [r0, #-4]
    1ef8:	32015301 	andcc	r5, r1, #67108864	; 0x4000000
    1efc:	0552010d 	ldrbeq	r0, [r2, #-269]	; 0x10d
    1f00:	0095dc03 	addseq	sp, r5, r3, lsl #24
    1f04:	51010d00 	tstpl	r1, r0, lsl #26
    1f08:	95f80305 	ldrbls	r0, [r8, #773]!	; 0x305
    1f0c:	010d0000 	mrseq	r0, (UNDEF: 13)
    1f10:	38030550 	stmdacc	r3, {r4, r6, r8, sl}
    1f14:	0d000095 	stceq	0, cr0, [r0, #-596]	; 0xfffffdac
    1f18:	02047d02 	andeq	r7, r4, #2, 26	; 0x80
    1f1c:	020d0074 	andeq	r0, sp, #116	; 0x74
    1f20:	0305007d 	movweq	r0, #20605	; 0x507d
    1f24:	00009618 	andeq	r9, r0, r8, lsl r6
    1f28:	8c980b00 	vldmiahi	r8, {d0-d-1}
    1f2c:	013a0000 	teqeq	sl, r0
    1f30:	05000000 	streq	r0, [r0, #-0]
    1f34:	00000084 	andeq	r0, r0, r4, lsl #1
    1f38:	0001d20e 	andeq	sp, r1, lr, lsl #4
    1f3c:	0f1e0200 	svceq	0x001e0200
    1f40:	000003a6 	andeq	r0, r0, r6, lsr #7
    1f44:	00252902 	eoreq	r2, r5, r2, lsl #18
    1f48:	013a0000 	teqeq	sl, r0
    1f4c:	79100000 	ldmdbvc	r0, {}	; <UNPREDICTABLE>
    1f50:	11000000 	mrsne	r0, (UNDEF: 0)
    1f54:	00a70e00 	adceq	r0, r7, r0, lsl #28
    1f58:	65020000 	strvs	r0, [r2, #-0]
    1f5c:	00013e00 	andeq	r3, r1, r0, lsl #28
    1f60:	69000400 	stmdbvs	r0, {sl}
    1f64:	0400000c 	streq	r0, [r0], #-12
    1f68:	00034c01 	andeq	r4, r3, r1, lsl #24
    1f6c:	05eb0100 	strbeq	r0, [fp, #256]!	; 0x100
    1f70:	03b70000 			; <UNDEFINED> instruction: 0x03b70000
    1f74:	8ca80000 	stchi	0, cr0, [r8]
    1f78:	00440000 	subeq	r0, r4, r0
    1f7c:	0a880000 	beq	fe201f84 <__bss_end__+0xfe1f84fc>
    1f80:	04020000 	streq	r0, [r2], #-0
    1f84:	746e6905 	strbtvc	r6, [lr], #-2309	; 0x905
    1f88:	07040300 	streq	r0, [r4, -r0, lsl #6]
    1f8c:	0000015b 	andeq	r0, r0, fp, asr r1
    1f90:	9b060103 	blls	1823a4 <__bss_end__+0x17891c>
    1f94:	03000000 	movweq	r0, #0
    1f98:	01a10502 			; <UNDEFINED> instruction: 0x01a10502
    1f9c:	04030000 	streq	r0, [r3], #-0
    1fa0:	00019305 	andeq	r9, r1, r5, lsl #6
    1fa4:	05080300 	streq	r0, [r8, #-768]	; 0x300
    1fa8:	0000018e 	andeq	r0, r0, lr, lsl #3
    1fac:	99080103 	stmdbls	r8, {r0, r1, r8}
    1fb0:	03000000 	movweq	r0, #0
    1fb4:	00630702 	rsbeq	r0, r3, r2, lsl #14
    1fb8:	04030000 	streq	r0, [r3], #-0
    1fbc:	00015607 	andeq	r5, r1, r7, lsl #12
    1fc0:	07080300 	streq	r0, [r8, -r0, lsl #6]
    1fc4:	00000151 	andeq	r0, r0, r1, asr r1
    1fc8:	85070403 	strhi	r0, [r7, #-1027]	; 0x403
    1fcc:	03000001 	movweq	r0, #1
    1fd0:	00a20801 	adceq	r0, r2, r1, lsl #16
    1fd4:	04040000 	streq	r0, [r4], #-0
    1fd8:	0000007f 	andeq	r0, r0, pc, ror r0
    1fdc:	00007205 	andeq	r7, r0, r5, lsl #4
    1fe0:	06160600 	ldreq	r0, [r6], -r0, lsl #12
    1fe4:	02010000 	andeq	r0, r1, #0
    1fe8:	00008ca8 	andeq	r8, r0, r8, lsr #25
    1fec:	00000044 	andeq	r0, r0, r4, asr #32
    1ff0:	01089c01 	tsteq	r8, r1, lsl #24
    1ff4:	70070000 	andvc	r0, r7, r0
    1ff8:	02010063 	andeq	r0, r1, #99	; 0x63
    1ffc:	0000002c 	andeq	r0, r0, ip, lsr #32
    2000:	00000af8 	strdeq	r0, [r0], -r8
    2004:	0000ce08 	andeq	ip, r0, r8, lsl #28
    2008:	00011800 	andeq	r1, r1, r0, lsl #16
    200c:	1c030500 	cfstr32ne	mvfx0, [r3], {-0}
    2010:	09000096 	stmdbeq	r0, {r1, r2, r4, r7}
    2014:	00008cb8 			; <UNDEFINED> instruction: 0x00008cb8
    2018:	0000011d 	andeq	r0, r0, sp, lsl r1
    201c:	008cd80a 	addeq	sp, ip, sl, lsl #16
    2020:	00012400 	andeq	r2, r1, r0, lsl #8
    2024:	0000fe00 	andeq	pc, r0, r0, lsl #28
    2028:	53010b00 	movwpl	r0, #6912	; 0x1b00
    202c:	010b3201 	tsteq	fp, r1, lsl #4
    2030:	1c030552 	cfstr32ne	mvfx0, [r3], {82}	; 0x52
    2034:	0b000096 	bleq	2294 <__code_start__-0x5d6c>
    2038:	03055101 	movweq	r5, #20737	; 0x5101
    203c:	0000963c 	andeq	r9, r0, ip, lsr r6
    2040:	0550010b 	ldrbeq	r0, [r0, #-267]	; 0x10b
    2044:	00953803 	addseq	r3, r5, r3, lsl #16
    2048:	7d020b00 	vstrvc	d0, [r2, #-0]
    204c:	00740204 	rsbseq	r0, r4, r4, lsl #4
    2050:	007d020b 	rsbseq	r0, sp, fp, lsl #4
    2054:	96680305 	strbtls	r0, [r8], -r5, lsl #6
    2058:	09000000 	stmdbeq	r0, {}	; <UNPREDICTABLE>
    205c:	00008cdc 	ldrdeq	r8, [r0], -ip
    2060:	0000013a 	andeq	r0, r0, sl, lsr r1
    2064:	00720c00 	rsbseq	r0, r2, r0, lsl #24
    2068:	01180000 	tsteq	r8, r0
    206c:	6b0d0000 	blvs	342074 <__bss_end__+0x3385ec>
    2070:	1c000000 	stcne	0, cr0, [r0], {-0}
    2074:	01080500 	tsteq	r8, r0, lsl #10
    2078:	d20e0000 	andle	r0, lr, #0
    207c:	02000001 	andeq	r0, r0, #1
    2080:	03a60f1e 			; <UNDEFINED> instruction: 0x03a60f1e
    2084:	29020000 	stmdbcs	r2, {}	; <UNPREDICTABLE>
    2088:	00000025 	andeq	r0, r0, r5, lsr #32
    208c:	0000013a 	andeq	r0, r0, sl, lsr r1
    2090:	00007910 	andeq	r7, r0, r0, lsl r9
    2094:	0e001100 	adfeqs	f1, f0, f0
    2098:	000000a7 	andeq	r0, r0, r7, lsr #1
    209c:	98006502 	stmdals	r0, {r1, r8, sl, sp, lr}
    20a0:	04000000 	streq	r0, [r0], #-0
    20a4:	000d4100 	andeq	r4, sp, r0, lsl #2
    20a8:	4c010400 	cfstrsmi	mvf0, [r1], {-0}
    20ac:	01000003 	tsteq	r0, r3
    20b0:	00000633 	andeq	r0, r0, r3, lsr r6
    20b4:	000003b7 			; <UNDEFINED> instruction: 0x000003b7
    20b8:	00008cec 	andeq	r8, r0, ip, ror #25
    20bc:	00000008 	andeq	r0, r0, r8
    20c0:	00000b38 	andeq	r0, r0, r8, lsr fp
    20c4:	69050402 	stmdbvs	r5, {r1, sl}
    20c8:	0300746e 	movweq	r7, #1134	; 0x46e
    20cc:	015b0704 	cmpeq	fp, r4, lsl #14
    20d0:	01030000 	mrseq	r0, (UNDEF: 3)
    20d4:	00009b06 	andeq	r9, r0, r6, lsl #22
    20d8:	05020300 	streq	r0, [r2, #-768]	; 0x300
    20dc:	000001a1 	andeq	r0, r0, r1, lsr #3
    20e0:	93050403 	movwls	r0, #21507	; 0x5403
    20e4:	03000001 	movweq	r0, #1
    20e8:	018e0508 	orreq	r0, lr, r8, lsl #10
    20ec:	01030000 	mrseq	r0, (UNDEF: 3)
    20f0:	00009908 	andeq	r9, r0, r8, lsl #18
    20f4:	07020300 	streq	r0, [r2, -r0, lsl #6]
    20f8:	00000063 	andeq	r0, r0, r3, rrx
    20fc:	56070403 	strpl	r0, [r7], -r3, lsl #8
    2100:	03000001 	movweq	r0, #1
    2104:	01510708 	cmpeq	r1, r8, lsl #14
    2108:	04030000 	streq	r0, [r3], #-0
    210c:	00018507 	andeq	r8, r1, r7, lsl #10
    2110:	08010300 	stmdaeq	r1, {r8, r9}
    2114:	000000a2 	andeq	r0, r0, r2, lsr #1
    2118:	00051904 	andeq	r1, r5, r4, lsl #18
    211c:	ec040100 	stfs	f0, [r4], {-0}
    2120:	0400008c 	streq	r0, [r0], #-140	; 0x8c
    2124:	01000000 	mrseq	r0, (UNDEF: 0)
    2128:	04c3049c 	strbeq	r0, [r3], #1180	; 0x49c
    212c:	05010000 	streq	r0, [r1, #-0]
    2130:	00008cf0 	strdeq	r8, [r0], -r0
    2134:	00000004 	andeq	r0, r0, r4
    2138:	d7009c01 	strle	r9, [r0, -r1, lsl #24]
    213c:	04000001 	streq	r0, [r0], #-1
    2140:	000d8300 	andeq	r8, sp, r0, lsl #6
    2144:	4c010400 	cfstrsmi	mvf0, [r1], {-0}
    2148:	01000003 	tsteq	r0, r3
    214c:	000006ef 	andeq	r0, r0, pc, ror #13
    2150:	000003b7 			; <UNDEFINED> instruction: 0x000003b7
    2154:	00008cf4 	strdeq	r8, [r0], -r4
    2158:	0000006c 	andeq	r0, r0, ip, rrx
    215c:	00000b83 	andeq	r0, r0, r3, lsl #23
    2160:	69050402 	stmdbvs	r5, {r1, sl}
    2164:	0300746e 	movweq	r7, #1134	; 0x46e
    2168:	015b0704 	cmpeq	fp, r4, lsl #14
    216c:	01030000 	mrseq	r0, (UNDEF: 3)
    2170:	00009b06 	andeq	r9, r0, r6, lsl #22
    2174:	05020300 	streq	r0, [r2, #-768]	; 0x300
    2178:	000001a1 	andeq	r0, r0, r1, lsr #3
    217c:	93050403 	movwls	r0, #21507	; 0x5403
    2180:	03000001 	movweq	r0, #1
    2184:	018e0508 	orreq	r0, lr, r8, lsl #10
    2188:	01030000 	mrseq	r0, (UNDEF: 3)
    218c:	00009908 	andeq	r9, r0, r8, lsl #18
    2190:	07020300 	streq	r0, [r2, -r0, lsl #6]
    2194:	00000063 	andeq	r0, r0, r3, rrx
    2198:	56070403 	strpl	r0, [r7], -r3, lsl #8
    219c:	03000001 	movweq	r0, #1
    21a0:	01510708 	cmpeq	r1, r8, lsl #14
    21a4:	04030000 	streq	r0, [r3], #-0
    21a8:	00018507 	andeq	r8, r1, r7, lsl #10
    21ac:	08010300 	stmdaeq	r1, {r8, r9}
    21b0:	000000a2 	andeq	r0, r0, r2, lsr #1
    21b4:	14020404 	strne	r0, [r2], #-1028	; 0x404
    21b8:	000000f0 	strdeq	r0, [r0], -r0	; <UNPREDICTABLE>
    21bc:	00070805 	andeq	r0, r7, r5, lsl #16
    21c0:	82e48000 	rschi	r8, r4, #0
    21c4:	8e050280 	cdphi	2, 0, cr0, cr5, cr0, {4}
    21c8:	80000006 	andhi	r0, r0, r6
    21cc:	028082e4 	addeq	r8, r0, #228, 4	; 0x4000000e
    21d0:	00073505 	andeq	r3, r7, r5, lsl #10
    21d4:	82e48400 	rschi	r8, r4, #0, 8
    21d8:	50050280 	andpl	r0, r5, r0, lsl #5
    21dc:	88000006 	stmdahi	r0, {r1, r2}
    21e0:	028082e4 	addeq	r8, r0, #228, 4	; 0x4000000e
    21e4:	00067105 	andeq	r7, r6, r5, lsl #2
    21e8:	82e48c00 	rschi	r8, r4, #0, 24
    21ec:	b2050280 	andlt	r0, r5, #128, 4
    21f0:	90000006 	andls	r0, r0, r6
    21f4:	028082e4 	addeq	r8, r0, #228, 4	; 0x4000000e
    21f8:	0006c005 	andeq	ip, r6, r5
    21fc:	82e49400 	rschi	r9, r4, #0, 8
    2200:	a0050280 	andge	r0, r5, r0, lsl #5
    2204:	98000006 	stmdals	r0, {r1, r2}
    2208:	028082e4 	addeq	r8, r0, #228, 4	; 0x4000000e
    220c:	00071705 	andeq	r1, r7, r5, lsl #14
    2210:	82e49c00 	rschi	r9, r4, #0, 24
    2214:	26050280 	strcs	r0, [r5], -r0, lsl #5
    2218:	a0000007 	andge	r0, r0, r7
    221c:	028082e4 	addeq	r8, r0, #228, 4	; 0x4000000e
    2220:	00065e05 	andeq	r5, r6, r5, lsl #28
    2224:	82e4a400 	rschi	sl, r4, #0, 8
    2228:	06000280 	streq	r0, [r0], -r0, lsl #5
    222c:	00000318 	andeq	r0, r0, r8, lsl r3
    2230:	8cf41b01 	fldmiaxhi	r4!, {d17-d16}	;@ Deprecated
    2234:	006c0000 	rsbeq	r0, ip, r0
    2238:	9c010000 	stcls	0, cr0, [r1], {-0}
    223c:	000001a5 	andeq	r0, r0, r5, lsr #3
    2240:	00067d07 	andeq	r7, r6, r7, lsl #26
    2244:	2c230100 	stfcss	f0, [r3], #-0
    2248:	07000000 	streq	r0, [r0, -r0]
    224c:	000006ce 	andeq	r0, r0, lr, asr #13
    2250:	002c2401 	eoreq	r2, ip, r1, lsl #8
    2254:	64080000 	strvs	r0, [r8], #-0
    2258:	01007473 	tsteq	r0, r3, ror r4
    225c:	0001a527 	andeq	sl, r1, r7, lsr #10
    2260:	73090000 	movwvc	r0, #36864	; 0x9000
    2264:	01006372 	tsteq	r0, r2, ror r3
    2268:	0001a528 	andeq	sl, r1, r8, lsr #10
    226c:	006e0a00 	rsbeq	r0, lr, r0, lsl #20
    2270:	002c2901 	eoreq	r2, ip, r1, lsl #18
    2274:	50010000 	andpl	r0, r1, r0
    2278:	008d280b 	addeq	r2, sp, fp, lsl #16
    227c:	00002400 	andeq	r2, r0, r0, lsl #8
    2280:	00015800 	andeq	r5, r1, r0, lsl #16
    2284:	00690c00 	rsbeq	r0, r9, r0, lsl #24
    2288:	00252a01 	eoreq	r2, r5, r1, lsl #20
    228c:	0b160000 	bleq	582294 <__bss_end__+0x57880c>
    2290:	0d000000 	stceq	0, cr0, [r0, #-0]
    2294:	00008cfc 	strdeq	r8, [r0], -ip
    2298:	000001c1 	andeq	r0, r0, r1, asr #3
    229c:	008d080e 	addeq	r0, sp, lr, lsl #16
    22a0:	0001c800 	andeq	ip, r1, r0, lsl #16
    22a4:	00017e00 	andeq	r7, r1, r0, lsl #28
    22a8:	51010f00 	tstpl	r1, r0, lsl #30
    22ac:	0fff0902 	svceq	0x00ff0902
    22b0:	0c055001 	stceq	0, cr5, [r5], {1}
    22b4:	2000b21c 	andcs	fp, r0, ip, lsl r2
    22b8:	8d140e00 	ldchi	14, cr0, [r4, #-0]
    22bc:	01c80000 	biceq	r0, r8, r0
    22c0:	019b0000 	orrseq	r0, fp, r0
    22c4:	010f0000 	mrseq	r0, CPSR
    22c8:	ff090251 			; <UNDEFINED> instruction: 0xff090251
    22cc:	0550010f 	ldrbeq	r0, [r0, #-271]	; 0x10f
    22d0:	00b2200c 	adcseq	r2, r2, ip
    22d4:	180d0020 	stmdane	sp, {r5}
    22d8:	c100008d 	smlabbgt	r0, sp, r0, r0
    22dc:	00000001 	andeq	r0, r0, r1
    22e0:	002c0410 	eoreq	r0, ip, r0, lsl r4
    22e4:	7d070000 	stcvc	0, cr0, [r7, #-0]
    22e8:	01000006 	tsteq	r0, r6
    22ec:	00002c23 	andeq	r2, r0, r3, lsr #24
    22f0:	06ce0700 	strbeq	r0, [lr], r0, lsl #14
    22f4:	24010000 	strcs	r0, [r1], #-0
    22f8:	0000002c 	andeq	r0, r0, ip, lsr #32
    22fc:	0006e311 	andeq	lr, r6, r1, lsl r3
    2300:	12890300 	addne	r0, r9, #0, 6
    2304:	00000711 	andeq	r0, r0, r1, lsl r7
    2308:	2c139b03 	ldccs	11, cr9, [r3], {3}
    230c:	13000000 	movwne	r0, #0
    2310:	0000002c 	andeq	r0, r0, ip, lsr #32
    2314:	01ad0000 			; <UNDEFINED> instruction: 0x01ad0000
    2318:	00040000 	andeq	r0, r4, r0
    231c:	00000e89 	andeq	r0, r0, r9, lsl #29
    2320:	034c0104 	movteq	r0, #49412	; 0xc104
    2324:	51010000 	mrspl	r0, (UNDEF: 1)
    2328:	b7000007 	strlt	r0, [r0, -r7]
    232c:	00000003 	andeq	r0, r0, r3
    2330:	00000000 	andeq	r0, r0, r0
    2334:	50000000 	andpl	r0, r0, r0
    2338:	0200000c 	andeq	r0, r0, #12
    233c:	6e690504 	cdpvs	5, 6, cr0, cr9, cr4, {0}
    2340:	04030074 	streq	r0, [r3], #-116	; 0x74
    2344:	00015b07 	andeq	r5, r1, r7, lsl #22
    2348:	06010300 	streq	r0, [r1], -r0, lsl #6
    234c:	0000009b 	muleq	r0, fp, r0
    2350:	a1050203 	tstge	r5, r3, lsl #4
    2354:	03000001 	movweq	r0, #1
    2358:	01930504 	orrseq	r0, r3, r4, lsl #10
    235c:	08030000 	stmdaeq	r3, {}	; <UNPREDICTABLE>
    2360:	00018e05 	andeq	r8, r1, r5, lsl #28
    2364:	08010300 	stmdaeq	r1, {r8, r9}
    2368:	00000099 	muleq	r0, r9, r0
    236c:	63070203 	movwvs	r0, #29187	; 0x7203
    2370:	03000000 	movweq	r0, #0
    2374:	01560704 	cmpeq	r6, r4, lsl #14
    2378:	08030000 	stmdaeq	r3, {}	; <UNPREDICTABLE>
    237c:	00015107 	andeq	r5, r1, r7, lsl #2
    2380:	07040300 	streq	r0, [r4, -r0, lsl #6]
    2384:	00000185 	andeq	r0, r0, r5, lsl #3
    2388:	a2080103 	andge	r0, r8, #-1073741824	; 0xc0000000
    238c:	04000000 	streq	r0, [r0], #-0
    2390:	00000743 	andeq	r0, r0, r3, asr #14
    2394:	00250e01 	eoreq	r0, r5, r1, lsl #28
    2398:	8d600000 	stclhi	0, cr0, [r0, #-0]
    239c:	00180000 	andseq	r0, r8, r0
    23a0:	9c010000 	stcls	0, cr0, [r1], {-0}
    23a4:	000000a2 	andeq	r0, r0, r2, lsr #1
    23a8:	0007a805 	andeq	sl, r7, r5, lsl #16
    23ac:	2c0f0100 	stfcss	f0, [pc], {-0}
    23b0:	35000000 	strcc	r0, [r0, #-0]
    23b4:	0000000b 	andeq	r0, r0, fp
    23b8:	00078506 	andeq	r8, r7, r6, lsl #10
    23bc:	78170100 	ldmdavc	r7, {r8}
    23c0:	1400008d 	strne	r0, [r0], #-141	; 0x8d
    23c4:	01000000 	mrseq	r0, (UNDEF: 0)
    23c8:	0000c79c 	muleq	r0, ip, r7
    23cc:	07a80500 	streq	r0, [r8, r0, lsl #10]!
    23d0:	18010000 	stmdane	r1, {}	; <UNPREDICTABLE>
    23d4:	0000002c 	andeq	r0, r0, ip, lsr #32
    23d8:	00000b54 	andeq	r0, r0, r4, asr fp
    23dc:	04eb0600 	strbteq	r0, [fp], #1536	; 0x600
    23e0:	1f010000 	svcne	0x00010000
    23e4:	00008d8c 	andeq	r8, r0, ip, lsl #27
    23e8:	00000048 	andeq	r0, r0, r8, asr #32
    23ec:	01779c01 	cmneq	r7, r1, lsl #24
    23f0:	a0070000 	andge	r0, r7, r0
    23f4:	01000007 	tsteq	r0, r7
    23f8:	0001772a 	andeq	r7, r1, sl, lsr #14
    23fc:	10001c00 	andne	r1, r0, r0, lsl #24
    2400:	077d0720 	ldrbeq	r0, [sp, -r0, lsr #14]!
    2404:	2b010000 	blcs	4240c <__bss_end__+0x38984>
    2408:	00000177 	andeq	r0, r0, r7, ror r1
    240c:	20100024 	andscs	r0, r0, r4, lsr #32
    2410:	00079407 	andeq	r9, r7, r7, lsl #8
    2414:	772c0100 	strvc	r0, [ip, -r0, lsl #2]!
    2418:	00000001 	andeq	r0, r0, r1
    241c:	085a0000 	ldmdaeq	sl, {}^	; <UNPREDICTABLE>
    2420:	00000764 	andeq	r0, r0, r4, ror #14
    2424:	01772d01 	cmneq	r7, r1, lsl #26
    2428:	09200000 	stmdbeq	r0!, {}	; <UNPREDICTABLE>
    242c:	00008d94 	muleq	r0, r4, sp
    2430:	00000079 	andeq	r0, r0, r9, ror r0
    2434:	008da009 	addeq	sl, sp, r9
    2438:	0000a200 	andeq	sl, r0, r0, lsl #4
    243c:	8da80a00 	stchi	10, cr0, [r8]
    2440:	018d0000 	orreq	r0, sp, r0
    2444:	013a0000 	teqeq	sl, r0
    2448:	010b0000 	mrseq	r0, (UNDEF: 11)
    244c:	004e0150 	subeq	r0, lr, r0, asr r1
    2450:	008db40a 	addeq	fp, sp, sl, lsl #8
    2454:	00019e00 	andeq	r9, r1, r0, lsl #28
    2458:	00015a00 	andeq	r5, r1, r0, lsl #20
    245c:	51010b00 	tstpl	r1, r0, lsl #22
    2460:	00010c05 	andeq	r0, r1, r5, lsl #24
    2464:	010b5a00 	tsteq	fp, r0, lsl #20
    2468:	240c0550 	strcs	r0, [ip], #-1360	; 0x550
    246c:	00201000 	eoreq	r1, r0, r0
    2470:	008dc00c 	addeq	ip, sp, ip
    2474:	00019e00 	andeq	r9, r1, r0, lsl #28
    2478:	51010b00 	tstpl	r1, r0, lsl #22
    247c:	00200c05 	eoreq	r0, r0, r5, lsl #24
    2480:	010b5a00 	tsteq	fp, r0, lsl #20
    2484:	1c0c0550 	cfstr32ne	mvfx0, [ip], {80}	; 0x50
    2488:	00201000 	eoreq	r1, r0, r0
    248c:	00250d00 	eoreq	r0, r5, r0, lsl #26
    2490:	46080000 	strmi	r0, [r8], -r0
    2494:	01000007 	tsteq	r0, r7
    2498:	0001880d 	andeq	r8, r1, sp, lsl #16
    249c:	2c0d1000 	stccs	0, cr1, [sp], {-0}
    24a0:	0e000000 	cdpeq	0, 0, cr0, cr0, cr0, {0}
    24a4:	000004f6 	strdeq	r0, [r0], -r6
    24a8:	019e4f02 	orrseq	r4, lr, r2, lsl #30
    24ac:	2c0f0000 	stccs	0, cr0, [pc], {-0}
    24b0:	00000000 	andeq	r0, r0, r0
    24b4:	00071110 	andeq	r1, r7, r0, lsl r1
    24b8:	0f9b0200 	svceq	0x009b0200
    24bc:	0000002c 	andeq	r0, r0, ip, lsr #32
    24c0:	00002c0f 	andeq	r2, r0, pc, lsl #24
    24c4:	f7000000 			; <UNDEFINED> instruction: 0xf7000000
    24c8:	04000001 	streq	r0, [r0], #-1
    24cc:	000f7700 	andeq	r7, pc, r0, lsl #14
    24d0:	4c010400 	cfstrsmi	mvf0, [r1], {-0}
    24d4:	01000003 	tsteq	r0, r3
    24d8:	000007ca 	andeq	r0, r0, sl, asr #15
    24dc:	000003b7 			; <UNDEFINED> instruction: 0x000003b7
    24e0:	00008dd4 	ldrdeq	r8, [r0], -r4
    24e4:	00000098 	muleq	r0, r8, r0
    24e8:	00000cf6 	strdeq	r0, [r0], -r6
    24ec:	69050402 	stmdbvs	r5, {r1, sl}
    24f0:	0300746e 	movweq	r7, #1134	; 0x46e
    24f4:	015b0704 	cmpeq	fp, r4, lsl #14
    24f8:	01030000 	mrseq	r0, (UNDEF: 3)
    24fc:	00009b06 	andeq	r9, r0, r6, lsl #22
    2500:	05020300 	streq	r0, [r2, #-768]	; 0x300
    2504:	000001a1 	andeq	r0, r0, r1, lsr #3
    2508:	93050403 	movwls	r0, #21507	; 0x5403
    250c:	03000001 	movweq	r0, #1
    2510:	018e0508 	orreq	r0, lr, r8, lsl #10
    2514:	01030000 	mrseq	r0, (UNDEF: 3)
    2518:	00009908 	andeq	r9, r0, r8, lsl #18
    251c:	07020300 	streq	r0, [r2, -r0, lsl #6]
    2520:	00000063 	andeq	r0, r0, r3, rrx
    2524:	56070403 	strpl	r0, [r7], -r3, lsl #8
    2528:	03000001 	movweq	r0, #1
    252c:	01510708 	cmpeq	r1, r8, lsl #14
    2530:	04030000 	streq	r0, [r3], #-0
    2534:	00018507 	andeq	r8, r1, r7, lsl #10
    2538:	08010300 	stmdaeq	r1, {r8, r9}
    253c:	000000a2 	andeq	r0, r0, r2, lsr #1
    2540:	0007e804 	andeq	lr, r7, r4, lsl #16
    2544:	d4050100 	strle	r0, [r5], #-256	; 0x100
    2548:	1c00008d 	stcne	0, cr0, [r0], {141}	; 0x8d
    254c:	01000000 	mrseq	r0, (UNDEF: 0)
    2550:	00009e9c 	muleq	r0, ip, lr
    2554:	07e20500 	strbeq	r0, [r2, r0, lsl #10]!
    2558:	05010000 	streq	r0, [r1, #-0]
    255c:	0000002c 	andeq	r0, r0, ip, lsr #32
    2560:	00000b7e 	andeq	r0, r0, lr, ror fp
    2564:	07ad0600 	streq	r0, [sp, r0, lsl #12]!
    2568:	11010000 	mrsne	r0, (UNDEF: 1)
    256c:	0000002c 	andeq	r0, r0, ip, lsr #32
    2570:	00008df0 	strdeq	r8, [r0], -r0
    2574:	00000014 	andeq	r0, r0, r4, lsl r0
    2578:	00cb9c01 	sbceq	r9, fp, r1, lsl #24
    257c:	fc070000 	stc2	0, cr0, [r7], {-0}
    2580:	de00008d 	cdple	0, 0, cr0, cr0, cr13, {4}
    2584:	08000001 	stmdaeq	r0, {r0}
    2588:	0c055001 	stceq	0, cr5, [r5], {1}
    258c:	20003004 	andcs	r3, r0, r4
    2590:	fe060000 	cdp2	0, 0, cr0, cr6, cr0, {0}
    2594:	01000007 	tsteq	r0, r7
    2598:	00002c16 	andeq	r2, r0, r6, lsl ip
    259c:	008e0400 	addeq	r0, lr, r0, lsl #8
    25a0:	00001c00 	andeq	r1, r0, r0, lsl #24
    25a4:	0d9c0100 	ldfeqs	f0, [ip]
    25a8:	09000001 	stmdbeq	r0, {r0}
    25ac:	1a010075 	bne	42788 <__bss_end__+0x38d00>
    25b0:	0000002c 	andeq	r0, r0, ip, lsr #32
    25b4:	00000bb2 			; <UNDEFINED> instruction: 0x00000bb2
    25b8:	008e0c0a 	addeq	r0, lr, sl, lsl #24
    25bc:	0001f300 	andeq	pc, r1, r0, lsl #6
    25c0:	8e100a00 	vnmlshi.f32	s0, s0, s0
    25c4:	009e0000 	addseq	r0, lr, r0
    25c8:	180a0000 	stmdane	sl, {}	; <UNPREDICTABLE>
    25cc:	f300008e 	vhadd.u8	d0, d16, d14
    25d0:	00000001 	andeq	r0, r0, r1
    25d4:	0007f504 	andeq	pc, r7, r4, lsl #10
    25d8:	201f0100 	andscs	r0, pc, r0, lsl #2
    25dc:	2400008e 	strcs	r0, [r0], #-142	; 0x8e
    25e0:	01000000 	mrseq	r0, (UNDEF: 0)
    25e4:	00016b9c 	muleq	r1, ip, fp
    25e8:	73750b00 	cmnvc	r5, #0, 22
    25ec:	2c1f0100 	ldfcss	f0, [pc], {-0}
    25f0:	d0000000 	andle	r0, r0, r0
    25f4:	0c00000b 	stceq	0, cr0, [r0], {11}
    25f8:	01006272 	tsteq	r0, r2, ror r2
    25fc:	00002c20 	andeq	r2, r0, r0, lsr #24
    2600:	0d540100 	ldfeqe	f0, [r4, #-0]
    2604:	00008e30 	andeq	r8, r0, r0, lsr lr
    2608:	00000010 	andeq	r0, r0, r0, lsl r0
    260c:	00000161 	andeq	r0, r0, r1, ror #2
    2610:	00617209 	rsbeq	r7, r1, r9, lsl #4
    2614:	002c2201 	eoreq	r2, ip, r1, lsl #4
    2618:	0bee0000 	bleq	ffb82620 <__bss_end__+0xffb78b98>
    261c:	340a0000 	strcc	r0, [sl], #-0
    2620:	cb00008e 	blgt	2860 <__code_start__-0x57a0>
    2624:	00000000 	andeq	r0, r0, r0
    2628:	008e2c0a 	addeq	r2, lr, sl, lsl #24
    262c:	0000cb00 	andeq	ip, r0, r0, lsl #22
    2630:	f6040000 			; <UNDEFINED> instruction: 0xf6040000
    2634:	01000004 	tsteq	r0, r4
    2638:	008e4428 	addeq	r4, lr, r8, lsr #8
    263c:	00001400 	andeq	r1, r0, r0, lsl #8
    2640:	a49c0100 	ldrge	r0, [ip], #256	; 0x100
    2644:	0b000001 	bleq	2650 <__code_start__-0x59b0>
    2648:	0100736d 	tsteq	r0, sp, ror #6
    264c:	00002c28 	andeq	r2, r0, r8, lsr #24
    2650:	000c0100 	andeq	r0, ip, r0, lsl #2
    2654:	8e540700 	cdphi	7, 5, cr0, cr4, cr0, {0}
    2658:	010d0000 	mrseq	r0, (UNDEF: 13)
    265c:	01080000 	mrseq	r0, (UNDEF: 8)
    2660:	01f30750 	mvnseq	r0, r0, asr r7
    2664:	03e80a50 	mvneq	r0, #80, 20	; 0x50000
    2668:	0400001e 	streq	r0, [r0], #-30
    266c:	000007c0 	andeq	r0, r0, r0, asr #15
    2670:	8e582b01 	vnmlshi.f64	d18, d8, d1
    2674:	00140000 	andseq	r0, r4, r0
    2678:	9c010000 	stcls	0, cr0, [r1], {-0}
    267c:	000001de 	ldrdeq	r0, [r0], -lr
    2680:	6365730b 	cmnvs	r5, #738197504	; 0x2c000000
    2684:	2c2b0100 	stfcss	f0, [fp], #-0
    2688:	22000000 	andcs	r0, r0, #0
    268c:	0700000c 	streq	r0, [r0, -ip]
    2690:	00008e68 	andeq	r8, r0, r8, ror #28
    2694:	0000016b 	andeq	r0, r0, fp, ror #2
    2698:	07500108 	ldrbeq	r0, [r0, -r8, lsl #2]
    269c:	0a5001f3 	beq	1402e70 <__bss_end__+0x13f93e8>
    26a0:	001e03e8 	andseq	r0, lr, r8, ror #7
    26a4:	07dc0e00 	ldrbeq	r0, [ip, r0, lsl #28]
    26a8:	a7020000 	strge	r0, [r2, -r0]
    26ac:	0000002c 	andeq	r0, r0, ip, lsr #32
    26b0:	000001f3 	strdeq	r0, [r0], -r3
    26b4:	00002c0f 	andeq	r2, r0, pc, lsl #24
    26b8:	e3100000 	tst	r0, #0
    26bc:	02000006 	andeq	r0, r0, #6
    26c0:	0cc50089 	stcleq	0, cr0, [r5], {137}	; 0x89
    26c4:	00040000 	andeq	r0, r4, r0
    26c8:	0000106d 	andeq	r1, r0, sp, rrx
    26cc:	0ba30104 	bleq	fe8c2ae4 <__bss_end__+0xfe8b905c>
    26d0:	0c0c0000 	stceq	0, cr0, [ip], {-0}
    26d4:	27000009 	strcs	r0, [r0, -r9]
    26d8:	d0000009 	andle	r0, r0, r9
    26dc:	7800008e 	stmdavc	r0, {r1, r2, r3, r7}
    26e0:	a8000001 	stmdage	r0, {r0}
    26e4:	0200000d 	andeq	r0, r0, #13
    26e8:	6e690504 	cdpvs	5, 6, cr0, cr9, cr4, {0}
    26ec:	04030074 	streq	r0, [r3], #-116	; 0x74
    26f0:	00015b07 	andeq	r5, r1, r7, lsl #22
    26f4:	002c0400 	eoreq	r0, ip, r0, lsl #8
    26f8:	01030000 	mrseq	r0, (UNDEF: 3)
    26fc:	00009b06 	andeq	r9, r0, r6, lsl #22
    2700:	05020300 	streq	r0, [r2, #-768]	; 0x300
    2704:	000001a1 	andeq	r0, r0, r1, lsr #3
    2708:	93050403 	movwls	r0, #21507	; 0x5403
    270c:	03000001 	movweq	r0, #1
    2710:	018e0508 	orreq	r0, lr, r8, lsl #10
    2714:	01030000 	mrseq	r0, (UNDEF: 3)
    2718:	00009908 	andeq	r9, r0, r8, lsl #18
    271c:	07020300 	streq	r0, [r2, -r0, lsl #6]
    2720:	00000063 	andeq	r0, r0, r3, rrx
    2724:	56070403 	strpl	r0, [r7], -r3, lsl #8
    2728:	03000001 	movweq	r0, #1
    272c:	01510708 	cmpeq	r1, r8, lsl #14
    2730:	be050000 	cdplt	0, 0, cr0, cr5, cr0, {0}
    2734:	0200000a 	andeq	r0, r0, #10
    2738:	00002507 	andeq	r2, r0, r7, lsl #10
    273c:	0aa80500 	beq	fea03b44 <__bss_end__+0xfe9fa0bc>
    2740:	2c030000 	stccs	0, cr0, [r3], {-0}
    2744:	00000046 	andeq	r0, r0, r6, asr #32
    2748:	000b8405 	andeq	r8, fp, r5, lsl #8
    274c:	46720300 	ldrbtmi	r0, [r2], -r0, lsl #6
    2750:	06000000 	streq	r0, [r0], -r0
    2754:	00000a4c 	andeq	r0, r0, ip, asr #20
    2758:	2c016504 	cfstr32cs	mvfx6, [r1], {4}
    275c:	07000000 	streq	r0, [r0, -r0]
    2760:	bca60304 	stclt	3, cr0, [r6], #16
    2764:	08000000 	stmdaeq	r0, {}	; <UNPREDICTABLE>
    2768:	00000a37 	andeq	r0, r0, r7, lsr sl
    276c:	0091a803 	addseq	sl, r1, r3, lsl #16
    2770:	df080000 	svcle	0x00080000
    2774:	03000009 	movweq	r0, #9
    2778:	0000bca9 	andeq	fp, r0, r9, lsr #25
    277c:	54090000 	strpl	r0, [r9], #-0
    2780:	cc000000 	stcgt	0, cr0, [r0], {-0}
    2784:	0a000000 	beq	278c <__code_start__-0x5874>
    2788:	000000cc 	andeq	r0, r0, ip, asr #1
    278c:	04030003 	streq	r0, [r3], #-3
    2790:	00018507 	andeq	r8, r1, r7, lsl #10
    2794:	03080b00 	movweq	r0, #35584	; 0x8b00
    2798:	0000f4a3 	andeq	pc, r0, r3, lsr #9
    279c:	0b690c00 	bleq	1a457a4 <__bss_end__+0x1a3bd1c>
    27a0:	a5030000 	strge	r0, [r3, #-0]
    27a4:	00000025 	andeq	r0, r0, r5, lsr #32
    27a8:	0b710c00 	bleq	1c457b0 <__bss_end__+0x1c3bd28>
    27ac:	aa030000 	bge	c27b4 <__bss_end__+0xb8d2c>
    27b0:	0000009d 	muleq	r0, sp, r0
    27b4:	fc050004 	stc2	0, cr0, [r5], {4}
    27b8:	0300000a 	movweq	r0, #10
    27bc:	0000d3ab 	andeq	sp, r0, fp, lsr #7
    27c0:	09a80500 	stmibeq	r8!, {r8, sl}
    27c4:	af030000 	svcge	0x00030000
    27c8:	00000070 	andeq	r0, r0, r0, ror r0
    27cc:	040e040d 	streq	r0, [lr], #-1037	; 0x40d
    27d0:	00000112 	andeq	r0, r0, r2, lsl r1
    27d4:	a2080103 	andge	r0, r8, #-1073741824	; 0xc0000000
    27d8:	0f000000 	svceq	0x00000000
    27dc:	00000112 	andeq	r0, r0, r2, lsl r1
    27e0:	000c2005 	andeq	r2, ip, r5
    27e4:	62160500 	andsvs	r0, r6, #0, 10
    27e8:	10000000 	andne	r0, r0, r0
    27ec:	000009b9 			; <UNDEFINED> instruction: 0x000009b9
    27f0:	7c2d0518 	cfstr32vc	mvfx0, [sp], #-96	; 0xffffffa0
    27f4:	0c000001 	stceq	0, cr0, [r0], {1}
    27f8:	00000b1d 	andeq	r0, r0, sp, lsl fp
    27fc:	017c2f05 	cmneq	ip, r5, lsl #30
    2800:	11000000 	mrsne	r0, (UNDEF: 0)
    2804:	05006b5f 	streq	r6, [r0, #-2911]	; 0xb5f
    2808:	00002530 	andeq	r2, r0, r0, lsr r5
    280c:	540c0400 	strpl	r0, [ip], #-1024	; 0x400
    2810:	0500000b 	streq	r0, [r0, #-11]
    2814:	00002530 	andeq	r2, r0, r0, lsr r5
    2818:	940c0800 	strls	r0, [ip], #-2048	; 0x800
    281c:	05000009 	streq	r0, [r0, #-9]
    2820:	00002530 	andeq	r2, r0, r0, lsr r5
    2824:	670c0c00 	strvs	r0, [ip, -r0, lsl #24]
    2828:	0500000c 	streq	r0, [r0, #-12]
    282c:	00002530 	andeq	r2, r0, r0, lsr r5
    2830:	5f111000 	svcpl	0x00111000
    2834:	31050078 	tstcc	r5, r8, ror r0
    2838:	00000182 	andeq	r0, r0, r2, lsl #3
    283c:	040e0014 	streq	r0, [lr], #-20
    2840:	00000129 	andeq	r0, r0, r9, lsr #2
    2844:	00011e09 	andeq	r1, r1, r9, lsl #28
    2848:	00019200 	andeq	r9, r1, r0, lsl #4
    284c:	00cc0a00 	sbceq	r0, ip, r0, lsl #20
    2850:	00000000 	andeq	r0, r0, r0
    2854:	0009da10 	andeq	sp, r9, r0, lsl sl
    2858:	35052400 	strcc	r2, [r5, #-1024]	; 0x400
    285c:	0000020b 	andeq	r0, r0, fp, lsl #4
    2860:	0008920c 	andeq	r9, r8, ip, lsl #4
    2864:	25370500 	ldrcs	r0, [r7, #-1280]!	; 0x500
    2868:	00000000 	andeq	r0, r0, r0
    286c:	000b8c0c 	andeq	r8, fp, ip, lsl #24
    2870:	25380500 	ldrcs	r0, [r8, #-1280]!	; 0x500
    2874:	04000000 	streq	r0, [r0], #-0
    2878:	0008c00c 	andeq	ip, r8, ip
    287c:	25390500 	ldrcs	r0, [r9, #-1280]!	; 0x500
    2880:	08000000 	stmdaeq	r0, {}	; <UNPREDICTABLE>
    2884:	000d510c 	andeq	r5, sp, ip, lsl #2
    2888:	253a0500 	ldrcs	r0, [sl, #-1280]!	; 0x500
    288c:	0c000000 	stceq	0, cr0, [r0], {-0}
    2890:	000a8c0c 	andeq	r8, sl, ip, lsl #24
    2894:	253b0500 	ldrcs	r0, [fp, #-1280]!	; 0x500
    2898:	10000000 	andne	r0, r0, r0
    289c:	000a610c 	andeq	r6, sl, ip, lsl #2
    28a0:	253c0500 	ldrcs	r0, [ip, #-1280]!	; 0x500
    28a4:	14000000 	strne	r0, [r0], #-0
    28a8:	000c6c0c 	andeq	r6, ip, ip, lsl #24
    28ac:	253d0500 	ldrcs	r0, [sp, #-1280]!	; 0x500
    28b0:	18000000 	stmdane	r0, {}	; <UNPREDICTABLE>
    28b4:	000ade0c 	andeq	sp, sl, ip, lsl #28
    28b8:	253e0500 	ldrcs	r0, [lr, #-1280]!	; 0x500
    28bc:	1c000000 	stcne	0, cr0, [r0], {-0}
    28c0:	000d180c 	andeq	r1, sp, ip, lsl #16
    28c4:	253f0500 	ldrcs	r0, [pc, #-1280]!	; 23cc <__code_start__-0x5c34>
    28c8:	20000000 	andcs	r0, r0, r0
    28cc:	08cf1200 	stmiaeq	pc, {r9, ip}^	; <UNPREDICTABLE>
    28d0:	01080000 	mrseq	r0, (UNDEF: 8)
    28d4:	024b4805 	subeq	r4, fp, #327680	; 0x50000
    28d8:	7b0c0000 	blvc	3028e0 <__bss_end__+0x2f8e58>
    28dc:	05000009 	streq	r0, [r0, #-9]
    28e0:	00024b49 	andeq	r4, r2, r9, asr #22
    28e4:	0d0c0000 	stceq	0, cr0, [ip, #-0]
    28e8:	05000008 	streq	r0, [r0, #-8]
    28ec:	00024b4a 	andeq	r4, r2, sl, asr #22
    28f0:	12138000 	andsne	r8, r3, #0
    28f4:	0500000c 	streq	r0, [r0, #-12]
    28f8:	00011e4c 	andeq	r1, r1, ip, asr #28
    28fc:	13010000 	movwne	r0, #4096	; 0x1000
    2900:	000008f4 	strdeq	r0, [r0], -r4
    2904:	011e4f05 	tsteq	lr, r5, lsl #30
    2908:	01040000 	mrseq	r0, (UNDEF: 4)
    290c:	010a0900 	tsteq	sl, r0, lsl #18
    2910:	025b0000 	subseq	r0, fp, #0
    2914:	cc0a0000 	stcgt	0, cr0, [sl], {-0}
    2918:	1f000000 	svcne	0x00000000
    291c:	0a951200 	beq	fe547124 <__bss_end__+0xfe53d69c>
    2920:	01900000 	orrseq	r0, r0, r0
    2924:	02995b05 	addseq	r5, r9, #5120	; 0x1400
    2928:	1d0c0000 	stcne	0, cr0, [ip, #-0]
    292c:	0500000b 	streq	r0, [r0, #-11]
    2930:	0002995c 	andeq	r9, r2, ip, asr r9
    2934:	350c0000 	strcc	r0, [ip, #-0]
    2938:	0500000b 	streq	r0, [r0, #-11]
    293c:	0000255d 	andeq	r2, r0, sp, asr r5
    2940:	8f0c0400 	svchi	0x000c0400
    2944:	05000009 	streq	r0, [r0, #-9]
    2948:	00029f5f 	andeq	r9, r2, pc, asr pc
    294c:	cf0c0800 	svcgt	0x000c0800
    2950:	05000008 	streq	r0, [r0, #-8]
    2954:	00020b60 	andeq	r0, r2, r0, ror #22
    2958:	0e008800 	cdpeq	8, 0, cr8, cr0, cr0, {0}
    295c:	00025b04 	andeq	r5, r2, r4, lsl #22
    2960:	02af0900 	adceq	r0, pc, #0, 18
    2964:	02af0000 	adceq	r0, pc, #0
    2968:	cc0a0000 	stcgt	0, cr0, [sl], {-0}
    296c:	1f000000 	svcne	0x00000000
    2970:	b5040e00 	strlt	r0, [r4, #-3584]	; 0xe00
    2974:	14000002 	strne	r0, [r0], #-2
    2978:	000ae810 	andeq	lr, sl, r0, lsl r8
    297c:	73050800 	movwvc	r0, #22528	; 0x5800
    2980:	000002db 	ldrdeq	r0, [r0], -fp
    2984:	0008b50c 	andeq	fp, r8, ip, lsl #10
    2988:	db740500 	blle	1d03d90 <__bss_end__+0x1cfa308>
    298c:	00000002 	andeq	r0, r0, r2
    2990:	0008190c 	andeq	r1, r8, ip, lsl #18
    2994:	25750500 	ldrbcs	r0, [r5, #-1280]!	; 0x500
    2998:	04000000 	streq	r0, [r0], #-0
    299c:	54040e00 	strpl	r0, [r4], #-3584	; 0xe00
    29a0:	10000000 	andne	r0, r0, r0
    29a4:	00000b07 	andeq	r0, r0, r7, lsl #22
    29a8:	0bb30568 	bleq	fecc3f50 <__bss_end__+0xfecba4c8>
    29ac:	11000004 	tstne	r0, r4
    29b0:	0500705f 	streq	r7, [r0, #-95]	; 0x5f
    29b4:	0002dbb4 			; <UNDEFINED> instruction: 0x0002dbb4
    29b8:	5f110000 	svcpl	0x00110000
    29bc:	b5050072 	strlt	r0, [r5, #-114]	; 0x72
    29c0:	00000025 	andeq	r0, r0, r5, lsr #32
    29c4:	775f1104 	ldrbvc	r1, [pc, -r4, lsl #2]
    29c8:	25b60500 	ldrcs	r0, [r6, #1280]!	; 0x500
    29cc:	08000000 	stmdaeq	r0, {}	; <UNPREDICTABLE>
    29d0:	0008ed0c 	andeq	lr, r8, ip, lsl #26
    29d4:	3fb70500 	svccc	0x00b70500
    29d8:	0c000000 	stceq	0, cr0, [r0], {-0}
    29dc:	000a000c 	andeq	r0, sl, ip
    29e0:	3fb80500 	svccc	0x00b80500
    29e4:	0e000000 	cdpeq	0, 0, cr0, cr0, cr0, {0}
    29e8:	66625f11 	uqadd16vs	r5, r2, r1
    29ec:	b6b90500 	ldrtlt	r0, [r9], r0, lsl #10
    29f0:	10000002 	andne	r0, r0, r2
    29f4:	00085c0c 	andeq	r5, r8, ip, lsl #24
    29f8:	25ba0500 	ldrcs	r0, [sl, #1280]!	; 0x500
    29fc:	18000000 	stmdane	r0, {}	; <UNPREDICTABLE>
    2a00:	0008dd0c 	andeq	sp, r8, ip, lsl #26
    2a04:	0ac10500 	beq	ff043e0c <__bss_end__+0xff03a384>
    2a08:	1c000001 	stcne	0, cr0, [r0], {1}
    2a0c:	000d780c 	andeq	r7, sp, ip, lsl #16
    2a10:	66c30500 	strbvs	r0, [r3], r0, lsl #10
    2a14:	20000005 	andcs	r0, r0, r5
    2a18:	000d920c 	andeq	r9, sp, ip, lsl #4
    2a1c:	90c50500 	sbcls	r0, r5, r0, lsl #10
    2a20:	24000005 	strcs	r0, [r0], #-5
    2a24:	000b790c 	andeq	r7, fp, ip, lsl #18
    2a28:	b4c80500 	strblt	r0, [r8], #1280	; 0x500
    2a2c:	28000005 	stmdacs	r0, {r0, r2}
    2a30:	000d320c 	andeq	r3, sp, ip, lsl #4
    2a34:	cec90500 	cdpgt	5, 12, cr0, cr9, cr0, {0}
    2a38:	2c000005 	stccs	0, cr0, [r0], {5}
    2a3c:	62755f11 	rsbsvs	r5, r5, #17, 30	; 0x44
    2a40:	b6cc0500 	strblt	r0, [ip], r0, lsl #10
    2a44:	30000002 	andcc	r0, r0, r2
    2a48:	70755f11 	rsbsvc	r5, r5, r1, lsl pc
    2a4c:	dbcd0500 	blle	ff343e54 <__bss_end__+0xff33a3cc>
    2a50:	38000002 	stmdacc	r0, {r1}
    2a54:	72755f11 	rsbsvc	r5, r5, #17, 30	; 0x44
    2a58:	25ce0500 	strbcs	r0, [lr, #1280]	; 0x500
    2a5c:	3c000000 	stccc	0, cr0, [r0], {-0}
    2a60:	0008a00c 	andeq	sl, r8, ip
    2a64:	d4d10500 	ldrble	r0, [r1], #1280	; 0x500
    2a68:	40000005 	andmi	r0, r0, r5
    2a6c:	000cdd0c 	andeq	sp, ip, ip, lsl #26
    2a70:	e4d20500 	ldrb	r0, [r2], #1280	; 0x500
    2a74:	43000005 	movwmi	r0, #5
    2a78:	626c5f11 	rsbvs	r5, ip, #17, 30	; 0x44
    2a7c:	b6d50500 	ldrblt	r0, [r5], r0, lsl #10
    2a80:	44000002 	strmi	r0, [r0], #-2
    2a84:	0009030c 	andeq	r0, r9, ip, lsl #6
    2a88:	25d80500 	ldrbcs	r0, [r8, #1280]	; 0x500
    2a8c:	4c000000 	stcmi	0, cr0, [r0], {-0}
    2a90:	000a6b0c 	andeq	r6, sl, ip, lsl #22
    2a94:	7bd90500 	blvc	ff643e9c <__bss_end__+0xff63a414>
    2a98:	50000000 	andpl	r0, r0, r0
    2a9c:	000cc80c 	andeq	ip, ip, ip, lsl #16
    2aa0:	29dc0500 	ldmibcs	ip, {r8, sl}^
    2aa4:	54000004 	strpl	r0, [r0], #-4
    2aa8:	000a530c 	andeq	r5, sl, ip, lsl #6
    2aac:	ffe00500 			; <UNDEFINED> instruction: 0xffe00500
    2ab0:	58000000 	stmdapl	r0, {}	; <UNPREDICTABLE>
    2ab4:	000b0f0c 	andeq	r0, fp, ip, lsl #30
    2ab8:	f4e20500 	vld2.16	{d16[0],d17[0]}, [r2], r0
    2abc:	5c000000 	stcpl	0, cr0, [r0], {-0}
    2ac0:	000a590c 	andeq	r5, sl, ip, lsl #18
    2ac4:	25e30500 	strbcs	r0, [r3, #1280]!	; 0x500
    2ac8:	64000000 	strvs	r0, [r0], #-0
    2acc:	00251500 	eoreq	r1, r5, r0, lsl #10
    2ad0:	04290000 	strteq	r0, [r9], #-0
    2ad4:	29160000 	ldmdbcs	r6, {}	; <UNPREDICTABLE>
    2ad8:	16000004 	strne	r0, [r0], -r4
    2adc:	0000010a 	andeq	r0, r0, sl, lsl #2
    2ae0:	00010c16 	andeq	r0, r1, r6, lsl ip
    2ae4:	00251600 	eoreq	r1, r5, r0, lsl #12
    2ae8:	0e000000 	cdpeq	0, 0, cr0, cr0, cr0, {0}
    2aec:	00043404 	andeq	r3, r4, r4, lsl #8
    2af0:	04290f00 	strteq	r0, [r9], #-3840	; 0xf00
    2af4:	5c170000 	ldcpl	0, cr0, [r7], {-0}
    2af8:	2800000b 	stmdacs	r0, {r0, r1, r3}
    2afc:	02380504 	eorseq	r0, r8, #4, 10	; 0x1000000
    2b00:	00000566 	andeq	r0, r0, r6, ror #10
    2b04:	000ad718 	andeq	sp, sl, r8, lsl r7
    2b08:	023a0500 	eorseq	r0, sl, #0, 10
    2b0c:	00000025 	andeq	r0, r0, r5, lsr #32
    2b10:	08fc1800 	ldmeq	ip!, {fp, ip}^
    2b14:	3f050000 	svccc	0x00050000
    2b18:	00063b02 	andeq	r3, r6, r2, lsl #22
    2b1c:	f0180400 			; <UNDEFINED> instruction: 0xf0180400
    2b20:	05000009 	streq	r0, [r0, #-9]
    2b24:	063b023f 			; <UNDEFINED> instruction: 0x063b023f
    2b28:	18080000 	stmdane	r8, {}	; <UNPREDICTABLE>
    2b2c:	000009b1 			; <UNDEFINED> instruction: 0x000009b1
    2b30:	3b023f05 	blcc	9274c <__bss_end__+0x88cc4>
    2b34:	0c000006 	stceq	0, cr0, [r0], {6}
    2b38:	000b3018 	andeq	r3, fp, r8, lsl r0
    2b3c:	02410500 	subeq	r0, r1, #0, 10
    2b40:	00000025 	andeq	r0, r0, r5, lsr #32
    2b44:	08271810 	stmdaeq	r7!, {r4, fp, ip}
    2b48:	42050000 	andmi	r0, r5, #0
    2b4c:	00081d02 	andeq	r1, r8, r2, lsl #26
    2b50:	48181400 	ldmdami	r8, {sl, ip}
    2b54:	0500000c 	streq	r0, [r0, #-12]
    2b58:	00250244 	eoreq	r0, r5, r4, asr #4
    2b5c:	18300000 	ldmdane	r0!, {}	; <UNPREDICTABLE>
    2b60:	00000b3a 	andeq	r0, r0, sl, lsr fp
    2b64:	8a024505 	bhi	93f80 <__bss_end__+0x8a4f8>
    2b68:	34000005 	strcc	r0, [r0], #-5
    2b6c:	000a9d18 	andeq	r9, sl, r8, lsl sp
    2b70:	02470500 	subeq	r0, r7, #0, 10
    2b74:	00000025 	andeq	r0, r0, r5, lsr #32
    2b78:	0b4a1838 	bleq	1288c60 <__bss_end__+0x127f1d8>
    2b7c:	49050000 	stmdbmi	r5, {}	; <UNPREDICTABLE>
    2b80:	00083802 	andeq	r3, r8, r2, lsl #16
    2b84:	2f183c00 	svccs	0x00183c00
    2b88:	0500000a 	streq	r0, [r0, #-10]
    2b8c:	017c024c 	cmneq	ip, ip, asr #4
    2b90:	18400000 	stmdane	r0, {}^	; <UNPREDICTABLE>
    2b94:	000009d0 	ldrdeq	r0, [r0], -r0	; <UNPREDICTABLE>
    2b98:	25024d05 	strcs	r4, [r2, #-3333]	; 0xd05
    2b9c:	44000000 	strmi	r0, [r0], #-0
    2ba0:	000d4c18 	andeq	r4, sp, r8, lsl ip
    2ba4:	024e0500 	subeq	r0, lr, #0, 10
    2ba8:	0000017c 	andeq	r0, r0, ip, ror r1
    2bac:	0ab41848 	beq	fed08cd4 <__bss_end__+0xfecff24c>
    2bb0:	4f050000 	svcmi	0x00050000
    2bb4:	00083e02 	andeq	r3, r8, r2, lsl #28
    2bb8:	f8184c00 			; <UNDEFINED> instruction: 0xf8184c00
    2bbc:	05000009 	streq	r0, [r0, #-9]
    2bc0:	00250252 	eoreq	r0, r5, r2, asr r2
    2bc4:	18500000 	ldmdane	r0, {}^	; <UNPREDICTABLE>
    2bc8:	0000091f 	andeq	r0, r0, pc, lsl r9
    2bcc:	0c025305 	stceq	3, cr5, [r2], {5}
    2bd0:	54000001 	strpl	r0, [r0], #-1
    2bd4:	000ad018 	andeq	sp, sl, r8, lsl r0
    2bd8:	02760500 	rsbseq	r0, r6, #0, 10
    2bdc:	000007fb 	strdeq	r0, [r0], -fp
    2be0:	0a951958 	beq	fe549148 <__bss_end__+0xfe53f6c0>
    2be4:	7a050000 	bvc	142bec <__bss_end__+0x139164>
    2be8:	00029902 	andeq	r9, r2, r2, lsl #18
    2bec:	19014800 	stmdbne	r1, {fp, lr}
    2bf0:	00000a0d 	andeq	r0, r0, sp, lsl #20
    2bf4:	5b027b05 	blpl	a1810 <__bss_end__+0x97d88>
    2bf8:	4c000002 	stcmi	0, cr0, [r0], {2}
    2bfc:	0cae1901 	stceq	9, cr1, [lr], #4
    2c00:	7f050000 	svcvc	0x00050000
    2c04:	00084f02 	andeq	r4, r8, r2, lsl #30
    2c08:	1902dc00 	stmdbne	r2, {sl, fp, ip, lr, pc}
    2c0c:	000008e5 	andeq	r0, r0, r5, ror #17
    2c10:	00028405 	andeq	r8, r2, r5, lsl #8
    2c14:	e0000006 	and	r0, r0, r6
    2c18:	08ca1902 	stmiaeq	sl, {r1, r8, fp, ip}^
    2c1c:	85050000 	strhi	r0, [r5, #-0]
    2c20:	00085b02 	andeq	r5, r8, r2, lsl #22
    2c24:	0002ec00 	andeq	lr, r2, r0, lsl #24
    2c28:	040b040e 	streq	r0, [fp], #-1038	; 0x40e
    2c2c:	25150000 	ldrcs	r0, [r5, #-0]
    2c30:	8a000000 	bhi	2c38 <__code_start__-0x53c8>
    2c34:	16000005 	strne	r0, [r0], -r5
    2c38:	00000429 	andeq	r0, r0, r9, lsr #8
    2c3c:	00010a16 	andeq	r0, r1, r6, lsl sl
    2c40:	058a1600 	streq	r1, [sl, #1536]	; 0x600
    2c44:	25160000 	ldrcs	r0, [r6, #-0]
    2c48:	00000000 	andeq	r0, r0, r0
    2c4c:	0119040e 	tsteq	r9, lr, lsl #8
    2c50:	040e0000 	streq	r0, [lr], #-0
    2c54:	0000056c 	andeq	r0, r0, ip, ror #10
    2c58:	00008615 	andeq	r8, r0, r5, lsl r6
    2c5c:	0005b400 	andeq	fp, r5, r0, lsl #8
    2c60:	04291600 	strteq	r1, [r9], #-1536	; 0x600
    2c64:	0a160000 	beq	582c6c <__bss_end__+0x5791e4>
    2c68:	16000001 	strne	r0, [r0], -r1
    2c6c:	00000086 	andeq	r0, r0, r6, lsl #1
    2c70:	00002516 	andeq	r2, r0, r6, lsl r5
    2c74:	040e0000 	streq	r0, [lr], #-0
    2c78:	00000596 	muleq	r0, r6, r5
    2c7c:	00002515 	andeq	r2, r0, r5, lsl r5
    2c80:	0005ce00 	andeq	ip, r5, r0, lsl #28
    2c84:	04291600 	strteq	r1, [r9], #-1536	; 0x600
    2c88:	0a160000 	beq	582c90 <__bss_end__+0x579208>
    2c8c:	00000001 	andeq	r0, r0, r1
    2c90:	05ba040e 	ldreq	r0, [sl, #1038]!	; 0x40e
    2c94:	54090000 	strpl	r0, [r9], #-0
    2c98:	e4000000 	str	r0, [r0], #-0
    2c9c:	0a000005 	beq	2cb8 <__code_start__-0x5348>
    2ca0:	000000cc 	andeq	r0, r0, ip, asr #1
    2ca4:	54090002 	strpl	r0, [r9], #-2
    2ca8:	f4000000 	vst4.8	{d0-d3}, [r0], r0
    2cac:	0a000005 	beq	2cc8 <__code_start__-0x5338>
    2cb0:	000000cc 	andeq	r0, r0, ip, asr #1
    2cb4:	f5060000 			; <UNDEFINED> instruction: 0xf5060000
    2cb8:	0500000a 	streq	r0, [r0, #-10]
    2cbc:	02e1011d 	rsceq	r0, r1, #1073741831	; 0x40000007
    2cc0:	761a0000 	ldrvc	r0, [sl], -r0
    2cc4:	0c00000c 	stceq	0, cr0, [r0], {12}
    2cc8:	35012105 	strcc	r2, [r1, #-261]	; 0x105
    2ccc:	18000006 	stmdane	r0, {r1, r2}
    2cd0:	00000b1d 	andeq	r0, r0, sp, lsl fp
    2cd4:	35012305 	strcc	r2, [r1, #-773]	; 0x305
    2cd8:	00000006 	andeq	r0, r0, r6
    2cdc:	000a0618 	andeq	r0, sl, r8, lsl r6
    2ce0:	01240500 	teqeq	r4, r0, lsl #10
    2ce4:	00000025 	andeq	r0, r0, r5, lsr #32
    2ce8:	0aef1804 	beq	ffbc8d00 <__bss_end__+0xffbbf278>
    2cec:	25050000 	strcs	r0, [r5, #-0]
    2cf0:	00063b01 	andeq	r3, r6, r1, lsl #22
    2cf4:	0e000800 	cdpeq	8, 0, cr0, cr0, cr0, {0}
    2cf8:	00060004 	andeq	r0, r6, r4
    2cfc:	f4040e00 			; <UNDEFINED> instruction: 0xf4040e00
    2d00:	1a000005 	bne	2d1c <__code_start__-0x52e4>
    2d04:	0000081f 	andeq	r0, r0, pc, lsl r8
    2d08:	013d050e 	teqeq	sp, lr, lsl #10
    2d0c:	00000676 	andeq	r0, r0, r6, ror r6
    2d10:	000b6318 	andeq	r6, fp, r8, lsl r3
    2d14:	013e0500 	teqeq	lr, r0, lsl #10
    2d18:	00000676 	andeq	r0, r0, r6, ror r6
    2d1c:	0b9d1800 	bleq	fe748d24 <__bss_end__+0xfe73f29c>
    2d20:	3f050000 	svccc	0x00050000
    2d24:	00067601 	andeq	r7, r6, r1, lsl #12
    2d28:	1b180600 	blne	604530 <__bss_end__+0x5faaa8>
    2d2c:	0500000c 	streq	r0, [r0, #-12]
    2d30:	005b0140 	subseq	r0, fp, r0, asr #2
    2d34:	000c0000 	andeq	r0, ip, r0
    2d38:	00005b09 	andeq	r5, r0, r9, lsl #22
    2d3c:	00068600 	andeq	r8, r6, r0, lsl #12
    2d40:	00cc0a00 	sbceq	r0, ip, r0, lsl #20
    2d44:	00020000 	andeq	r0, r2, r0
    2d48:	5705d01b 	smladpl	r5, fp, r0, sp
    2d4c:	00078702 	andeq	r8, r7, r2, lsl #14
    2d50:	0c5a1800 	mrrceq	8, 0, r1, sl, cr0
    2d54:	59050000 	stmdbpl	r5, {}	; <UNPREDICTABLE>
    2d58:	00002c02 	andeq	r2, r0, r2, lsl #24
    2d5c:	05180000 	ldreq	r0, [r8, #-0]
    2d60:	0500000c 	streq	r0, [r0, #-12]
    2d64:	010c025a 	tsteq	ip, sl, asr r2
    2d68:	18040000 	stmdane	r4, {}	; <UNPREDICTABLE>
    2d6c:	00000a22 	andeq	r0, r0, r2, lsr #20
    2d70:	87025b05 	strhi	r5, [r2, -r5, lsl #22]
    2d74:	08000007 	stmdaeq	r0, {r0, r1, r2}
    2d78:	000d2318 	andeq	r2, sp, r8, lsl r3
    2d7c:	025c0500 	subseq	r0, ip, #0, 10
    2d80:	00000192 	muleq	r0, r2, r1
    2d84:	09c11824 	stmibeq	r1, {r2, r5, fp, ip}^
    2d88:	5d050000 	stcpl	0, cr0, [r5, #-0]
    2d8c:	00002502 	andeq	r2, r0, r2, lsl #10
    2d90:	18184800 	ldmdane	r8, {fp, lr}
    2d94:	0500000b 	streq	r0, [r0, #-11]
    2d98:	0069025e 	rsbeq	r0, r9, lr, asr r2
    2d9c:	18500000 	ldmdane	r0, {}^	; <UNPREDICTABLE>
    2da0:	00000d39 	andeq	r0, r0, r9, lsr sp
    2da4:	41025f05 	tstmi	r2, r5, lsl #30
    2da8:	58000006 	stmdapl	r0, {r1, r2}
    2dac:	000b2318 	andeq	r2, fp, r8, lsl r3
    2db0:	02600500 	rsbeq	r0, r0, #0, 10
    2db4:	000000f4 	strdeq	r0, [r0], -r4
    2db8:	0d3e1868 	ldceq	8, cr1, [lr, #-416]!	; 0xfffffe60
    2dbc:	61050000 	mrsvs	r0, (UNDEF: 5)
    2dc0:	0000f402 	andeq	pc, r0, r2, lsl #8
    2dc4:	84187000 	ldrhi	r7, [r8], #-0
    2dc8:	05000008 	streq	r0, [r0, #-8]
    2dcc:	00f40262 	rscseq	r0, r4, r2, ror #4
    2dd0:	18780000 	ldmdane	r8!, {}^	; <UNPREDICTABLE>
    2dd4:	00000c96 	muleq	r0, r6, ip
    2dd8:	97026305 	strls	r6, [r2, -r5, lsl #6]
    2ddc:	80000007 	andhi	r0, r0, r7
    2de0:	000a1618 	andeq	r1, sl, r8, lsl r6
    2de4:	02640500 	rsbeq	r0, r4, #0, 10
    2de8:	000007a7 	andeq	r0, r0, r7, lsr #15
    2dec:	0c281888 	stceq	8, cr1, [r8], #-544	; 0xfffffde0
    2df0:	65050000 	strvs	r0, [r5, #-0]
    2df4:	00002502 	andeq	r2, r0, r2, lsl #10
    2df8:	6d18a000 	ldcvs	0, cr10, [r8, #-0]
    2dfc:	05000009 	streq	r0, [r0, #-9]
    2e00:	00f40266 	rscseq	r0, r4, r6, ror #4
    2e04:	18a40000 	stmiane	r4!, {}	; <UNPREDICTABLE>
    2e08:	00000875 	andeq	r0, r0, r5, ror r8
    2e0c:	f4026705 	vst1.8	{d6}, [r2], r5
    2e10:	ac000000 	stcge	0, cr0, [r0], {-0}
    2e14:	00095c18 	andeq	r5, r9, r8, lsl ip
    2e18:	02680500 	rsbeq	r0, r8, #0, 10
    2e1c:	000000f4 	strdeq	r0, [r0], -r4
    2e20:	083c18b4 	ldmdaeq	ip!, {r2, r4, r5, r7, fp, ip}
    2e24:	69050000 	stmdbvs	r5, {}	; <UNPREDICTABLE>
    2e28:	0000f402 	andeq	pc, r0, r2, lsl #8
    2e2c:	4b18bc00 	blmi	631e34 <__bss_end__+0x6283ac>
    2e30:	05000008 	streq	r0, [r0, #-8]
    2e34:	00f4026a 	rscseq	r0, r4, sl, ror #4
    2e38:	18c40000 	stmiane	r4, {}^	; <UNPREDICTABLE>
    2e3c:	00000ad5 	ldrdeq	r0, [r0], -r5
    2e40:	25026b05 	strcs	r6, [r2, #-2821]	; 0xb05
    2e44:	cc000000 	stcgt	0, cr0, [r0], {-0}
    2e48:	01120900 	tsteq	r2, r0, lsl #18
    2e4c:	07970000 	ldreq	r0, [r7, r0]
    2e50:	cc0a0000 	stcgt	0, cr0, [sl], {-0}
    2e54:	19000000 	stmdbne	r0, {}	; <UNPREDICTABLE>
    2e58:	01120900 	tsteq	r2, r0, lsl #18
    2e5c:	07a70000 	streq	r0, [r7, r0]!
    2e60:	cc0a0000 	stcgt	0, cr0, [sl], {-0}
    2e64:	07000000 	streq	r0, [r0, -r0]
    2e68:	01120900 	tsteq	r2, r0, lsl #18
    2e6c:	07b70000 	ldreq	r0, [r7, r0]!
    2e70:	cc0a0000 	stcgt	0, cr0, [sl], {-0}
    2e74:	17000000 	strne	r0, [r0, -r0]
    2e78:	05f01b00 	ldrbeq	r1, [r0, #2816]!	; 0xb00
    2e7c:	07db0270 			; <UNDEFINED> instruction: 0x07db0270
    2e80:	85180000 	ldrhi	r0, [r8, #-0]
    2e84:	0500000a 	streq	r0, [r0, #-10]
    2e88:	07db0273 			; <UNDEFINED> instruction: 0x07db0273
    2e8c:	18000000 	stmdane	r0, {}	; <UNPREDICTABLE>
    2e90:	00000c8d 	andeq	r0, r0, sp, lsl #25
    2e94:	eb027405 	bl	9feb0 <__bss_end__+0x96428>
    2e98:	78000007 	stmdavc	r0, {r0, r1, r2}
    2e9c:	02db0900 	sbcseq	r0, fp, #0, 18
    2ea0:	07eb0000 	strbeq	r0, [fp, r0]!
    2ea4:	cc0a0000 	stcgt	0, cr0, [sl], {-0}
    2ea8:	1d000000 	stcne	0, cr0, [r0, #-0]
    2eac:	002c0900 	eoreq	r0, ip, r0, lsl #18
    2eb0:	07fb0000 	ldrbeq	r0, [fp, r0]!
    2eb4:	cc0a0000 	stcgt	0, cr0, [sl], {-0}
    2eb8:	1d000000 	stcne	0, cr0, [r0, #-0]
    2ebc:	05f01c00 	ldrbeq	r1, [r0, #3072]!	; 0xc00
    2ec0:	081d0255 	ldmdaeq	sp, {r0, r2, r4, r6, r9}
    2ec4:	5c1d0000 	ldcpl	0, cr0, [sp], {-0}
    2ec8:	0500000b 	streq	r0, [r0, #-11]
    2ecc:	0686026c 	streq	r0, [r6], ip, ror #4
    2ed0:	e31d0000 	tst	sp, #0
    2ed4:	0500000c 	streq	r0, [r0, #-12]
    2ed8:	07b70275 			; <UNDEFINED> instruction: 0x07b70275
    2edc:	09000000 	stmdbeq	r0, {}	; <UNPREDICTABLE>
    2ee0:	00000112 	andeq	r0, r0, r2, lsl r1
    2ee4:	0000082d 	andeq	r0, r0, sp, lsr #16
    2ee8:	0000cc0a 	andeq	ip, r0, sl, lsl #24
    2eec:	1e001800 	cdpne	8, 0, cr1, cr0, cr0, {0}
    2ef0:	00000838 	andeq	r0, r0, r8, lsr r8
    2ef4:	00042916 	andeq	r2, r4, r6, lsl r9
    2ef8:	040e0000 	streq	r0, [lr], #-0
    2efc:	0000082d 	andeq	r0, r0, sp, lsr #16
    2f00:	017c040e 	cmneq	ip, lr, lsl #8
    2f04:	4f1e0000 	svcmi	0x001e0000
    2f08:	16000008 	strne	r0, [r0], -r8
    2f0c:	00000025 	andeq	r0, r0, r5, lsr #32
    2f10:	55040e00 	strpl	r0, [r4, #-3584]	; 0xe00
    2f14:	0e000008 	cdpeq	0, 0, cr0, cr0, cr8, {0}
    2f18:	00084404 	andeq	r4, r8, r4, lsl #8
    2f1c:	05f40900 	ldrbeq	r0, [r4, #2304]!	; 0x900
    2f20:	086b0000 	stmdaeq	fp!, {}^	; <UNPREDICTABLE>
    2f24:	cc0a0000 	stcgt	0, cr0, [sl], {-0}
    2f28:	02000000 	andeq	r0, r0, #0
    2f2c:	0c3c1f00 	ldceq	15, cr1, [ip], #-0
    2f30:	fd050000 	stc2	0, cr0, [r5, #-0]
    2f34:	00042902 	andeq	r2, r4, r2, lsl #18
    2f38:	0c351f00 	ldceq	15, cr1, [r5], #-0
    2f3c:	fe050000 	cdp2	0, 0, cr0, cr5, cr0, {0}
    2f40:	00042f02 	andeq	r2, r4, r2, lsl #30
    2f44:	00251500 	eoreq	r1, r5, r0, lsl #10
    2f48:	08920000 	ldmeq	r2, {}	; <UNPREDICTABLE>
    2f4c:	25160000 	ldrcs	r0, [r6, #-0]
    2f50:	00000000 	andeq	r0, r0, r0
    2f54:	00041d20 	andeq	r1, r4, r0, lsr #26
    2f58:	9d1d0600 	ldcls	6, cr0, [sp, #-0]
    2f5c:	0e000008 	cdpeq	0, 0, cr0, cr0, cr8, {0}
    2f60:	00088304 	andeq	r8, r8, r4, lsl #6
    2f64:	00251500 	eoreq	r1, r5, r0, lsl #10
    2f68:	08b20000 	ldmeq	r2!, {}	; <UNPREDICTABLE>
    2f6c:	8a160000 	bhi	582f74 <__bss_end__+0x5794ec>
    2f70:	00000005 	andeq	r0, r0, r5
    2f74:	00045a20 	andeq	r5, r4, r0, lsr #20
    2f78:	bd220600 	stclt	6, cr0, [r2, #-0]
    2f7c:	0e000008 	cdpeq	0, 0, cr0, cr0, cr8, {0}
    2f80:	0008a304 	andeq	sl, r8, r4, lsl #6
    2f84:	54012100 	strpl	r2, [r1], #-256	; 0x100
    2f88:	08000000 	stmdaeq	r0, {}	; <UNPREDICTABLE>
    2f8c:	0009000c 	andeq	r0, r9, ip
    2f90:	08652200 	stmdaeq	r5!, {r9, sp}^
    2f94:	22000000 	andcs	r0, r0, #0
    2f98:	00000c7c 	andeq	r0, r0, ip, ror ip
    2f9c:	0cce2201 	sfmeq	f2, 2, [lr], {1}
    2fa0:	22040000 	andcs	r0, r4, #0
    2fa4:	000008a6 	andeq	r0, r0, r6, lsr #17
    2fa8:	0a3d2205 	beq	f4b7c4 <__bss_end__+0xf41d3c>
    2fac:	22060000 	andcs	r0, r6, #0
    2fb0:	00000ceb 	andeq	r0, r0, fp, ror #25
    2fb4:	0cfa2207 	lfmeq	f2, 2, [sl], #28
    2fb8:	22030000 	andcs	r0, r3, #0
    2fbc:	00000d09 	andeq	r0, r0, r9, lsl #26
    2fc0:	13100002 	tstne	r0, #2
    2fc4:	2c000009 	stccs	0, cr0, [r0], {9}
    2fc8:	09900607 	ldmibeq	r0, {r0, r1, r2, r9, sl}
    2fcc:	69110000 	ldmdbvs	r1, {}	; <UNPREDICTABLE>
    2fd0:	0907006f 	stmdbeq	r7, {r0, r1, r2, r3, r5, r6}
    2fd4:	00000033 	andeq	r0, r0, r3, lsr r0
    2fd8:	65691100 	strbvs	r1, [r9, #-256]!	; 0x100
    2fdc:	0a070072 	beq	1c31ac <__bss_end__+0x1b9724>
    2fe0:	00000033 	andeq	r0, r0, r3, lsr r0
    2fe4:	69691104 	stmdbvs	r9!, {r2, r8, ip}^
    2fe8:	11070072 	tstne	r7, r2, ror r0
    2fec:	00000033 	andeq	r0, r0, r3, lsr r0
    2ff0:	636c1108 	cmnvs	ip, #8, 2
    2ff4:	13070072 	movwne	r0, #28786	; 0x7072
    2ff8:	00000033 	andeq	r0, r0, r3, lsr r0
    2ffc:	636d110c 	cmnvs	sp, #12, 2
    3000:	14070072 	strne	r0, [r7], #-114	; 0x72
    3004:	00000033 	andeq	r0, r0, r3, lsr r0
    3008:	736c1110 	cmnvc	ip, #16, 2
    300c:	15070072 	strne	r0, [r7, #-114]	; 0x72
    3010:	00000033 	andeq	r0, r0, r3, lsr r0
    3014:	736d1114 	cmnvc	sp, #20, 2
    3018:	16070072 			; <UNDEFINED> instruction: 0x16070072
    301c:	00000033 	andeq	r0, r0, r3, lsr r0
    3020:	0b950c18 	bleq	fe546088 <__bss_end__+0xfe53c600>
    3024:	17070000 	strne	r0, [r7, -r0]
    3028:	00000033 	andeq	r0, r0, r3, lsr r0
    302c:	08bb0c1c 	ldmeq	fp!, {r2, r3, r4, sl, fp}
    3030:	1b070000 	blne	1c3038 <__bss_end__+0x1b95b0>
    3034:	00000033 	andeq	r0, r0, r3, lsr r0
    3038:	089b0c20 	ldmeq	fp, {r5, sl, fp}
    303c:	1d070000 	stcne	0, cr0, [r7, #-0]
    3040:	00000033 	andeq	r0, r0, r3, lsr r0
    3044:	0b7f0c24 	bleq	1fc60dc <__bss_end__+0x1fbc654>
    3048:	1e070000 	cdpne	0, 0, cr0, cr7, cr0, {0}
    304c:	00000033 	andeq	r0, r0, r3, lsr r0
    3050:	83230028 	teqhi	r3, #40	; 0x28
    3054:	01000009 	tsteq	r0, r9
    3058:	0009a507 	andeq	sl, r9, r7, lsl #10
    305c:	21500400 	cmpcs	r0, r0, lsl #8
    3060:	33040e20 	movwcc	r0, #20000	; 0x4e20
    3064:	0f000000 	svceq	0x00000000
    3068:	0000099f 	muleq	r0, pc, r9	; <UNPREDICTABLE>
    306c:	000aaf23 	andeq	sl, sl, r3, lsr #30
    3070:	bf280100 	svclt	0x00280100
    3074:	40000009 	andmi	r0, r0, r9
    3078:	0e202150 	mcreq	1, 1, r2, cr0, cr0, {2}
    307c:	00090004 	andeq	r0, r9, r4
    3080:	09b90f00 	ldmibeq	r9!, {r8, r9, sl, fp}
    3084:	c0240000 	eorgt	r0, r4, r0
    3088:	0100000c 	tsteq	r0, ip
    308c:	000025a7 	andeq	r2, r0, r7, lsr #11
    3090:	00903800 	addseq	r3, r0, r0, lsl #16
    3094:	00001000 	andeq	r1, r0, r0
    3098:	f09c0100 			; <UNDEFINED> instruction: 0xf09c0100
    309c:	25000009 	strcs	r0, [r0, #-9]
    30a0:	00009040 	andeq	r9, r0, r0, asr #32
    30a4:	00000c9c 	muleq	r0, ip, ip
    30a8:	00904425 	addseq	r4, r0, r5, lsr #8
    30ac:	000ad200 	andeq	sp, sl, r0, lsl #4
    30b0:	02260000 	eoreq	r0, r6, #0
    30b4:	01000004 	tsteq	r0, r4
    30b8:	0090089f 	umullseq	r0, r0, pc, r8	; <UNPREDICTABLE>
    30bc:	00003000 	andeq	r3, r0, r0
    30c0:	4e9c0100 	fmlmie	f0, f4, f0
    30c4:	2700000a 	strcs	r0, [r0, -sl]
    30c8:	9f010063 	svcls	0x00010063
    30cc:	0000002c 	andeq	r0, r0, ip, lsr #32
    30d0:	00000c43 	andeq	r0, r0, r3, asr #24
    30d4:	00901425 	addseq	r1, r0, r5, lsr #8
    30d8:	000c9c00 	andeq	r9, ip, r0, lsl #24
    30dc:	90182500 	andsls	r2, r8, r0, lsl #10
    30e0:	0aa50000 	beq	fe9430e8 <__bss_end__+0xfe939660>
    30e4:	2c280000 	stccs	0, cr0, [r8], #-0
    30e8:	a7000090 			; <UNDEFINED> instruction: 0xa7000090
    30ec:	4400000c 	strmi	r0, [r0], #-12
    30f0:	2900000a 	stmdbcs	r0, {r1, r3}
    30f4:	0c055001 	stceq	0, cr5, [r5], {1}
    30f8:	20215040 	eorcs	r5, r1, r0, asr #32
    30fc:	05510129 	ldrbeq	r0, [r1, #-297]	; 0x129
    3100:	ff080074 			; <UNDEFINED> instruction: 0xff080074
    3104:	3025001a 	eorcc	r0, r5, sl, lsl r0
    3108:	9c000090 	stcls	0, cr0, [r0], {144}	; 0x90
    310c:	0000000c 	andeq	r0, r0, ip
    3110:	0009e624 	andeq	lr, r9, r4, lsr #12
    3114:	25970100 	ldrcs	r0, [r7, #256]	; 0x100
    3118:	d8000000 	stmdale	r0, {}	; <UNPREDICTABLE>
    311c:	3000008f 	andcc	r0, r0, pc, lsl #1
    3120:	01000000 	mrseq	r0, (UNDEF: 0)
    3124:	000aa59c 	muleq	sl, ip, r5
    3128:	00632a00 	rsbeq	r2, r3, r0, lsl #20
    312c:	00259b01 	eoreq	r9, r5, r1, lsl #22
    3130:	54010000 	strpl	r0, [r1], #-0
    3134:	008fe025 	addeq	lr, pc, r5, lsr #32
    3138:	000c9c00 	andeq	r9, ip, r0, lsl #24
    313c:	8fe42500 	svchi	0x00e42500
    3140:	0ad20000 	beq	ff483148 <__bss_end__+0xff4796c0>
    3144:	f4280000 	vld4.8	{d0-d3}, [r8], r0
    3148:	b200008f 	andlt	r0, r0, #143	; 0x8f
    314c:	9b00000c 	blls	3184 <__code_start__-0x4e7c>
    3150:	2900000a 	stmdbcs	r0, {r1, r3}
    3154:	0c055001 	stceq	0, cr5, [r5], {1}
    3158:	20215040 	eorcs	r5, r1, r0, asr #32
    315c:	8ffc2500 	svchi	0x00fc2500
    3160:	0c9c0000 	ldceq	0, cr0, [ip], {0}
    3164:	24000000 	strcs	r0, [r0], #-0
    3168:	0000099a 	muleq	r0, sl, r9
    316c:	00258801 	eoreq	r8, r5, r1, lsl #16
    3170:	8fb80000 	svchi	0x00b80000
    3174:	00200000 	eoreq	r0, r0, r0
    3178:	9c010000 	stcls	0, cr0, [r1], {-0}
    317c:	00000ad2 	ldrdeq	r0, [r0], -r2
    3180:	008fc42b 	addeq	ip, pc, fp, lsr #8
    3184:	000cb200 	andeq	fp, ip, r0, lsl #4
    3188:	50012900 	andpl	r2, r1, r0, lsl #18
    318c:	50640c05 	rsbpl	r0, r4, r5, lsl #24
    3190:	00002021 	andeq	r2, r0, r1, lsr #32
    3194:	000ca024 	andeq	sl, ip, r4, lsr #32
    3198:	257f0100 	ldrbcs	r0, [pc, #-256]!	; 30a0 <__code_start__-0x4f60>
    319c:	a0000000 	andge	r0, r0, r0
    31a0:	1800008f 	stmdane	r0, {r0, r1, r2, r3, r7}
    31a4:	01000000 	mrseq	r0, (UNDEF: 0)
    31a8:	000aff9c 	muleq	sl, ip, pc	; <UNPREDICTABLE>
    31ac:	8fac2b00 	svchi	0x00ac2b00
    31b0:	0cb20000 	ldceq	0, cr0, [r2]
    31b4:	01290000 	teqeq	r9, r0
    31b8:	640c0550 	strvs	r0, [ip], #-1360	; 0x550
    31bc:	00202150 	eoreq	r2, r0, r0, asr r1
    31c0:	08322600 	ldmdaeq	r2!, {r9, sl, sp}
    31c4:	3a010000 	bcc	431cc <__bss_end__+0x39744>
    31c8:	00008ef0 	strdeq	r8, [r0], -r0
    31cc:	000000b0 	strheq	r0, [r0], -r0	; <UNPREDICTABLE>
    31d0:	0c3d9c01 	ldceq	12, cr9, [sp], #-4
    31d4:	00280000 	eoreq	r0, r8, r0
    31d8:	bd00008f 	stclt	0, cr0, [r0, #-572]	; 0xfffffdc4
    31dc:	2c00000c 	stccs	0, cr0, [r0], {12}
    31e0:	2900000b 	stmdbcs	r0, {r0, r1, r3}
    31e4:	3e015001 	cdpcc	0, 0, cr5, cr1, cr1, {0}
    31e8:	01510129 	cmpeq	r1, r9, lsr #2
    31ec:	0c280032 	stceq	0, cr0, [r8], #-200	; 0xffffff38
    31f0:	bd00008f 	stclt	0, cr0, [r0, #-572]	; 0xfffffdc4
    31f4:	4400000c 	strmi	r0, [r0], #-12
    31f8:	2900000b 	stmdbcs	r0, {r0, r1, r3}
    31fc:	3f015001 	svccc	0x00015001
    3200:	01510129 	cmpeq	r1, r9, lsr #2
    3204:	10250032 	eorne	r0, r5, r2, lsr r0
    3208:	9c00008f 	stcls	0, cr0, [r0], {143}	; 0x8f
    320c:	2800000c 	stmdacs	r0, {r2, r3}
    3210:	00008f1c 	andeq	r8, r0, ip, lsl pc
    3214:	00000c3d 	andeq	r0, r0, sp, lsr ip
    3218:	00000b69 	andeq	r0, r0, r9, ror #22
    321c:	05500129 	ldrbeq	r0, [r0, #-297]	; 0x129
    3220:	2150040c 	cmpcs	r0, ip, lsl #8
    3224:	51012920 	tstpl	r1, r0, lsr #18
    3228:	25003101 	strcs	r3, [r0, #-257]	; 0x101
    322c:	00008f20 	andeq	r8, r0, r0, lsr #30
    3230:	00000c9c 	muleq	r0, ip, ip
    3234:	008f3028 	addeq	r3, pc, r8, lsr #32
    3238:	000ca700 	andeq	sl, ip, r0, lsl #14
    323c:	000b8b00 	andeq	r8, fp, r0, lsl #22
    3240:	50012900 	andpl	r2, r1, r0, lsl #18
    3244:	29007402 	stmdbcs	r0, {r1, sl, ip, sp, lr}
    3248:	30015101 	andcc	r5, r1, r1, lsl #2
    324c:	8f3c2800 	svchi	0x003c2800
    3250:	0ca70000 	stceq	0, cr0, [r7]
    3254:	0ba70000 	bleq	fe9c325c <__bss_end__+0xfe9b97d4>
    3258:	01290000 	teqeq	r9, r0
    325c:	440c0550 	strmi	r0, [ip], #-1360	; 0x550
    3260:	29202150 	stmdbcs	r0!, {r4, r6, r8, sp}
    3264:	30015101 	andcc	r5, r1, r1, lsl #2
    3268:	8f482800 	svchi	0x00482800
    326c:	0ca70000 	stceq	0, cr0, [r7]
    3270:	0bc30000 	bleq	ff0c3278 <__bss_end__+0xff0b97f0>
    3274:	01290000 	teqeq	r9, r0
    3278:	4c0c0550 	cfstr32mi	mvfx0, [ip], {80}	; 0x50
    327c:	29202150 	stmdbcs	r0!, {r4, r6, r8, sp}
    3280:	33015101 	movwcc	r5, #4353	; 0x1101
    3284:	8f542800 	svchi	0x00542800
    3288:	0ca70000 	stceq	0, cr0, [r7]
    328c:	0bdf0000 	bleq	ff7c3294 <__bss_end__+0xff7b980c>
    3290:	01290000 	teqeq	r9, r0
    3294:	500c0550 	andpl	r0, ip, r0, asr r5
    3298:	29202150 	stmdbcs	r0!, {r4, r6, r8, sp}
    329c:	30015101 	andcc	r5, r1, r1, lsl #2
    32a0:	8f602800 	svchi	0x00602800
    32a4:	0ca70000 	stceq	0, cr0, [r7]
    32a8:	0bfc0000 	bleq	fff032b0 <__bss_end__+0xffef9828>
    32ac:	01290000 	teqeq	r9, r0
    32b0:	480c0550 	stmdami	ip, {r4, r6, r8, sl}
    32b4:	29202150 	stmdbcs	r0!, {r4, r6, r8, sp}
    32b8:	08025101 	stmdaeq	r2, {r0, r8, ip, lr}
    32bc:	6c2800c7 	stcvs	0, cr0, [r8], #-796	; 0xfffffce4
    32c0:	a700008f 	strge	r0, [r0, -pc, lsl #1]
    32c4:	1a00000c 	bne	32fc <__code_start__-0x4d04>
    32c8:	2900000c 	stmdbcs	r0, {r2, r3}
    32cc:	0c055001 	stceq	0, cr5, [r5], {1}
    32d0:	20215068 	eorcs	r5, r1, r8, rrx
    32d4:	03510129 	cmpeq	r1, #1073741834	; 0x4000000a
    32d8:	00010e0a 	andeq	r0, r1, sl, lsl #28
    32dc:	008f7828 	addeq	r7, pc, r8, lsr #16
    32e0:	000ca700 	andeq	sl, ip, r0, lsl #14
    32e4:	000c3300 	andeq	r3, ip, r0, lsl #6
    32e8:	50012900 	andpl	r2, r1, r0, lsl #18
    32ec:	29007402 	stmdbcs	r0, {r1, sl, ip, sp, lr}
    32f0:	33015101 	movwcc	r5, #4353	; 0x1101
    32f4:	8f7c2500 	svchi	0x007c2500
    32f8:	0c9c0000 	ldceq	0, cr0, [ip], {0}
    32fc:	2c000000 	stccs	0, cr0, [r0], {-0}
    3300:	00000cb8 			; <UNDEFINED> instruction: 0x00000cb8
    3304:	8ed02d01 	cdphi	13, 13, cr2, cr0, cr1, {0}
    3308:	00200000 	eoreq	r0, r0, r0
    330c:	9c010000 	stcls	0, cr0, [r1], {-0}
    3310:	00000c95 	muleq	r0, r5, ip
    3314:	0002512d 	andeq	r5, r2, sp, lsr #2
    3318:	952d0100 	strls	r0, [sp, #-256]!	; 0x100
    331c:	6100000c 	tstvs	r0, ip
    3320:	2700000c 	strcs	r0, [r0, -ip]
    3324:	006c6176 	rsbeq	r6, ip, r6, ror r1
    3328:	002c2d01 	eoreq	r2, ip, r1, lsl #26
    332c:	0c7f0000 	ldcleq	0, cr0, [pc], #-0	; 3334 <__code_start__-0x4ccc>
    3330:	e0280000 	eor	r0, r8, r0
    3334:	b200008e 	andlt	r0, r0, #142	; 0x8e
    3338:	8400000c 	strhi	r0, [r0], #-12
    333c:	2900000c 	stmdbcs	r0, {r2, r3}
    3340:	74025001 	strvc	r5, [r2], #-1
    3344:	ec2b0000 	stc	0, cr0, [fp], #-0
    3348:	a700008e 	strge	r0, [r0, -lr, lsl #1]
    334c:	2900000c 	stmdbcs	r0, {r2, r3}
    3350:	74025001 	strvc	r5, [r2], #-1
    3354:	0e000000 	cdpeq	0, 0, cr0, cr0, cr0, {0}
    3358:	000c9b04 	andeq	r9, ip, r4, lsl #22
    335c:	e32f2e00 	teq	pc, #0, 28
    3360:	e3000006 	movw	r0, #6
    3364:	06000006 	streq	r0, [r0], -r6
    3368:	017f2f89 	cmneq	pc, r9, lsl #31
    336c:	017f0000 	cmneq	pc, r0
    3370:	9c060000 	stcls	0, cr0, [r6], {-0}
    3374:	0000052f 	andeq	r0, r0, pc, lsr #10
    3378:	00000500 	andeq	r0, r0, r0, lsl #10
    337c:	2fa80600 	svccs	0x00a80600
    3380:	00000a73 	andeq	r0, r0, r3, ror sl
    3384:	00000a73 	andeq	r0, r0, r3, ror sl
    3388:	70001908 	andvc	r1, r0, r8, lsl #18
    338c:	0400000b 	streq	r0, [r0], #-11
    3390:	0012e100 	andseq	lr, r2, r0, lsl #2
    3394:	a3010400 	movwge	r0, #5120	; 0x1400
    3398:	0c00000b 	stceq	0, cr0, [r0], {11}
    339c:	00000d6d 	andeq	r0, r0, sp, ror #26
    33a0:	00000927 	andeq	r0, r0, r7, lsr #18
    33a4:	00009048 	andeq	r9, r0, r8, asr #32
    33a8:	00000120 	andeq	r0, r0, r0, lsr #2
    33ac:	00000ef4 	strdeq	r0, [r0], -r4
    33b0:	69050402 	stmdbvs	r5, {r1, sl}
    33b4:	0300746e 	movweq	r7, #1134	; 0x46e
    33b8:	015b0704 	cmpeq	fp, r4, lsl #14
    33bc:	2c040000 	stccs	0, cr0, [r4], {-0}
    33c0:	03000000 	movweq	r0, #0
    33c4:	009b0601 	addseq	r0, fp, r1, lsl #12
    33c8:	02030000 	andeq	r0, r3, #0
    33cc:	0001a105 	andeq	sl, r1, r5, lsl #2
    33d0:	05040300 	streq	r0, [r4, #-768]	; 0x300
    33d4:	00000193 	muleq	r0, r3, r1
    33d8:	8e050803 	cdphi	8, 0, cr0, cr5, cr3, {0}
    33dc:	03000001 	movweq	r0, #1
    33e0:	00990801 	addseq	r0, r9, r1, lsl #16
    33e4:	02030000 	andeq	r0, r3, #0
    33e8:	00006307 	andeq	r6, r0, r7, lsl #6
    33ec:	07040300 	streq	r0, [r4, -r0, lsl #6]
    33f0:	00000156 	andeq	r0, r0, r6, asr r1
    33f4:	51070803 	tstpl	r7, r3, lsl #16
    33f8:	05000001 	streq	r0, [r0, #-1]
    33fc:	00000abe 			; <UNDEFINED> instruction: 0x00000abe
    3400:	00250702 	eoreq	r0, r5, r2, lsl #14
    3404:	a8050000 	stmdage	r5, {}	; <UNPREDICTABLE>
    3408:	0300000a 	movweq	r0, #10
    340c:	0000462c 	andeq	r4, r0, ip, lsr #12
    3410:	0b840500 	bleq	fe104818 <__bss_end__+0xfe0fad90>
    3414:	72030000 	andvc	r0, r3, #0
    3418:	00000046 	andeq	r0, r0, r6, asr #32
    341c:	000a4c06 	andeq	r4, sl, r6, lsl #24
    3420:	01650400 	cmneq	r5, r0, lsl #8
    3424:	0000002c 	andeq	r0, r0, ip, lsr #32
    3428:	a6030407 	strge	r0, [r3], -r7, lsl #8
    342c:	000000bc 	strheq	r0, [r0], -ip
    3430:	000a3708 	andeq	r3, sl, r8, lsl #14
    3434:	91a80300 			; <UNDEFINED> instruction: 0x91a80300
    3438:	08000000 	stmdaeq	r0, {}	; <UNPREDICTABLE>
    343c:	000009df 	ldrdeq	r0, [r0], -pc	; <UNPREDICTABLE>
    3440:	00bca903 	adcseq	sl, ip, r3, lsl #18
    3444:	09000000 	stmdbeq	r0, {}	; <UNPREDICTABLE>
    3448:	00000054 	andeq	r0, r0, r4, asr r0
    344c:	000000cc 	andeq	r0, r0, ip, asr #1
    3450:	0000cc0a 	andeq	ip, r0, sl, lsl #24
    3454:	03000300 	movweq	r0, #768	; 0x300
    3458:	01850704 	orreq	r0, r5, r4, lsl #14
    345c:	080b0000 	stmdaeq	fp, {}	; <UNPREDICTABLE>
    3460:	00f4a303 	rscseq	sl, r4, r3, lsl #6
    3464:	690c0000 	stmdbvs	ip, {}	; <UNPREDICTABLE>
    3468:	0300000b 	movweq	r0, #11
    346c:	000025a5 	andeq	r2, r0, r5, lsr #11
    3470:	710c0000 	mrsvc	r0, (UNDEF: 12)
    3474:	0300000b 	movweq	r0, #11
    3478:	00009daa 	andeq	r9, r0, sl, lsr #27
    347c:	05000400 	streq	r0, [r0, #-1024]	; 0x400
    3480:	00000afc 	strdeq	r0, [r0], -ip
    3484:	00d3ab03 	sbcseq	sl, r3, r3, lsl #22
    3488:	a8050000 	stmdage	r5, {}	; <UNPREDICTABLE>
    348c:	03000009 	movweq	r0, #9
    3490:	000070af 	andeq	r7, r0, pc, lsr #1
    3494:	0e040d00 	cdpeq	13, 0, cr0, cr4, cr0, {0}
    3498:	00011204 	andeq	r1, r1, r4, lsl #4
    349c:	08010300 	stmdaeq	r1, {r8, r9}
    34a0:	000000a2 	andeq	r0, r0, r2, lsr #1
    34a4:	00011204 	andeq	r1, r1, r4, lsl #4
    34a8:	0c200500 	cfstr32eq	mvfx0, [r0], #-0
    34ac:	16050000 	strne	r0, [r5], -r0
    34b0:	00000062 	andeq	r0, r0, r2, rrx
    34b4:	0009b90f 	andeq	fp, r9, pc, lsl #18
    34b8:	2d051800 	stccs	8, cr1, [r5, #-0]
    34bc:	0000017c 	andeq	r0, r0, ip, ror r1
    34c0:	000b1d0c 	andeq	r1, fp, ip, lsl #26
    34c4:	7c2f0500 	cfstr32vc	mvfx0, [pc], #-0	; 34cc <__code_start__-0x4b34>
    34c8:	00000001 	andeq	r0, r0, r1
    34cc:	006b5f10 	rsbeq	r5, fp, r0, lsl pc
    34d0:	00253005 	eoreq	r3, r5, r5
    34d4:	0c040000 	stceq	0, cr0, [r4], {-0}
    34d8:	00000b54 	andeq	r0, r0, r4, asr fp
    34dc:	00253005 	eoreq	r3, r5, r5
    34e0:	0c080000 	stceq	0, cr0, [r8], {-0}
    34e4:	00000994 	muleq	r0, r4, r9
    34e8:	00253005 	eoreq	r3, r5, r5
    34ec:	0c0c0000 	stceq	0, cr0, [ip], {-0}
    34f0:	00000c67 	andeq	r0, r0, r7, ror #24
    34f4:	00253005 	eoreq	r3, r5, r5
    34f8:	10100000 	andsne	r0, r0, r0
    34fc:	0500785f 	streq	r7, [r0, #-2143]	; 0x85f
    3500:	00018231 	andeq	r8, r1, r1, lsr r2
    3504:	0e001400 	cfcpyseq	mvf1, mvf0
    3508:	00012904 	andeq	r2, r1, r4, lsl #18
    350c:	011e0900 	tsteq	lr, r0, lsl #18
    3510:	01920000 	orrseq	r0, r2, r0
    3514:	cc0a0000 	stcgt	0, cr0, [sl], {-0}
    3518:	00000000 	andeq	r0, r0, r0
    351c:	09da0f00 	ldmibeq	sl, {r8, r9, sl, fp}^
    3520:	05240000 	streq	r0, [r4, #-0]!
    3524:	00020b35 	andeq	r0, r2, r5, lsr fp
    3528:	08920c00 	ldmeq	r2, {sl, fp}
    352c:	37050000 	strcc	r0, [r5, -r0]
    3530:	00000025 	andeq	r0, r0, r5, lsr #32
    3534:	0b8c0c00 	bleq	fe30653c <__bss_end__+0xfe2fcab4>
    3538:	38050000 	stmdacc	r5, {}	; <UNPREDICTABLE>
    353c:	00000025 	andeq	r0, r0, r5, lsr #32
    3540:	08c00c04 	stmiaeq	r0, {r2, sl, fp}^
    3544:	39050000 	stmdbcc	r5, {}	; <UNPREDICTABLE>
    3548:	00000025 	andeq	r0, r0, r5, lsr #32
    354c:	0d510c08 	ldcleq	12, cr0, [r1, #-32]	; 0xffffffe0
    3550:	3a050000 	bcc	143558 <__bss_end__+0x139ad0>
    3554:	00000025 	andeq	r0, r0, r5, lsr #32
    3558:	0a8c0c0c 	beq	fe306590 <__bss_end__+0xfe2fcb08>
    355c:	3b050000 	blcc	143564 <__bss_end__+0x139adc>
    3560:	00000025 	andeq	r0, r0, r5, lsr #32
    3564:	0a610c10 	beq	18465ac <__bss_end__+0x183cb24>
    3568:	3c050000 	stccc	0, cr0, [r5], {-0}
    356c:	00000025 	andeq	r0, r0, r5, lsr #32
    3570:	0c6c0c14 	stcleq	12, cr0, [ip], #-80	; 0xffffffb0
    3574:	3d050000 	stccc	0, cr0, [r5, #-0]
    3578:	00000025 	andeq	r0, r0, r5, lsr #32
    357c:	0ade0c18 	beq	ff7865e4 <__bss_end__+0xff77cb5c>
    3580:	3e050000 	cdpcc	0, 0, cr0, cr5, cr0, {0}
    3584:	00000025 	andeq	r0, r0, r5, lsr #32
    3588:	0d180c1c 	ldceq	12, cr0, [r8, #-112]	; 0xffffff90
    358c:	3f050000 	svccc	0x00050000
    3590:	00000025 	andeq	r0, r0, r5, lsr #32
    3594:	cf110020 	svcgt	0x00110020
    3598:	08000008 	stmdaeq	r0, {r3}
    359c:	4b480501 	blmi	12049a8 <__bss_end__+0x11faf20>
    35a0:	0c000002 	stceq	0, cr0, [r0], {2}
    35a4:	0000097b 	andeq	r0, r0, fp, ror r9
    35a8:	024b4905 	subeq	r4, fp, #81920	; 0x14000
    35ac:	0c000000 	stceq	0, cr0, [r0], {-0}
    35b0:	0000080d 	andeq	r0, r0, sp, lsl #16
    35b4:	024b4a05 	subeq	r4, fp, #20480	; 0x5000
    35b8:	12800000 	addne	r0, r0, #0
    35bc:	00000c12 	andeq	r0, r0, r2, lsl ip
    35c0:	011e4c05 	tsteq	lr, r5, lsl #24
    35c4:	01000000 	mrseq	r0, (UNDEF: 0)
    35c8:	0008f412 	andeq	pc, r8, r2, lsl r4	; <UNPREDICTABLE>
    35cc:	1e4f0500 	cdpne	5, 4, cr0, cr15, cr0, {0}
    35d0:	04000001 	streq	r0, [r0], #-1
    35d4:	0a090001 	beq	2435e0 <__bss_end__+0x239b58>
    35d8:	5b000001 	blpl	35e4 <__code_start__-0x4a1c>
    35dc:	0a000002 	beq	35ec <__code_start__-0x4a14>
    35e0:	000000cc 	andeq	r0, r0, ip, asr #1
    35e4:	9511001f 	ldrls	r0, [r1, #-31]
    35e8:	9000000a 	andls	r0, r0, sl
    35ec:	995b0501 	ldmdbls	fp, {r0, r8, sl}^
    35f0:	0c000002 	stceq	0, cr0, [r0], {2}
    35f4:	00000b1d 	andeq	r0, r0, sp, lsl fp
    35f8:	02995c05 	addseq	r5, r9, #1280	; 0x500
    35fc:	0c000000 	stceq	0, cr0, [r0], {-0}
    3600:	00000b35 	andeq	r0, r0, r5, lsr fp
    3604:	00255d05 	eoreq	r5, r5, r5, lsl #26
    3608:	0c040000 	stceq	0, cr0, [r4], {-0}
    360c:	0000098f 	andeq	r0, r0, pc, lsl #19
    3610:	029f5f05 	addseq	r5, pc, #5, 30
    3614:	0c080000 	stceq	0, cr0, [r8], {-0}
    3618:	000008cf 	andeq	r0, r0, pc, asr #17
    361c:	020b6005 	andeq	r6, fp, #5
    3620:	00880000 	addeq	r0, r8, r0
    3624:	025b040e 	subseq	r0, fp, #234881024	; 0xe000000
    3628:	af090000 	svcge	0x00090000
    362c:	af000002 	svcge	0x00000002
    3630:	0a000002 	beq	3640 <__code_start__-0x49c0>
    3634:	000000cc 	andeq	r0, r0, ip, asr #1
    3638:	040e001f 	streq	r0, [lr], #-31
    363c:	000002b5 			; <UNDEFINED> instruction: 0x000002b5
    3640:	0ae80f13 	beq	ffa07294 <__bss_end__+0xff9fd80c>
    3644:	05080000 	streq	r0, [r8, #-0]
    3648:	0002db73 	andeq	sp, r2, r3, ror fp
    364c:	08b50c00 	ldmeq	r5!, {sl, fp}
    3650:	74050000 	strvc	r0, [r5], #-0
    3654:	000002db 	ldrdeq	r0, [r0], -fp
    3658:	08190c00 	ldmdaeq	r9, {sl, fp}
    365c:	75050000 	strvc	r0, [r5, #-0]
    3660:	00000025 	andeq	r0, r0, r5, lsr #32
    3664:	040e0004 	streq	r0, [lr], #-4
    3668:	00000054 	andeq	r0, r0, r4, asr r0
    366c:	000b070f 	andeq	r0, fp, pc, lsl #14
    3670:	b3056800 	movwlt	r6, #22528	; 0x5800
    3674:	0000040b 	andeq	r0, r0, fp, lsl #8
    3678:	00705f10 	rsbseq	r5, r0, r0, lsl pc
    367c:	02dbb405 	sbcseq	fp, fp, #83886080	; 0x5000000
    3680:	10000000 	andne	r0, r0, r0
    3684:	0500725f 	streq	r7, [r0, #-607]	; 0x25f
    3688:	000025b5 			; <UNDEFINED> instruction: 0x000025b5
    368c:	5f100400 	svcpl	0x00100400
    3690:	b6050077 			; <UNDEFINED> instruction: 0xb6050077
    3694:	00000025 	andeq	r0, r0, r5, lsr #32
    3698:	08ed0c08 	stmiaeq	sp!, {r3, sl, fp}^
    369c:	b7050000 	strlt	r0, [r5, -r0]
    36a0:	0000003f 	andeq	r0, r0, pc, lsr r0
    36a4:	0a000c0c 	beq	66dc <__code_start__-0x1924>
    36a8:	b8050000 	stmdalt	r5, {}	; <UNPREDICTABLE>
    36ac:	0000003f 	andeq	r0, r0, pc, lsr r0
    36b0:	625f100e 	subsvs	r1, pc, #14
    36b4:	b9050066 	stmdblt	r5, {r1, r2, r5, r6}
    36b8:	000002b6 			; <UNDEFINED> instruction: 0x000002b6
    36bc:	085c0c10 	ldmdaeq	ip, {r4, sl, fp}^
    36c0:	ba050000 	blt	1436c8 <__bss_end__+0x139c40>
    36c4:	00000025 	andeq	r0, r0, r5, lsr #32
    36c8:	08dd0c18 	ldmeq	sp, {r3, r4, sl, fp}^
    36cc:	c1050000 	mrsgt	r0, (UNDEF: 5)
    36d0:	0000010a 	andeq	r0, r0, sl, lsl #2
    36d4:	0d780c1c 	ldcleq	12, cr0, [r8, #-112]!	; 0xffffff90
    36d8:	c3050000 	movwgt	r0, #20480	; 0x5000
    36dc:	00000566 	andeq	r0, r0, r6, ror #10
    36e0:	0d920c20 	ldceq	12, cr0, [r2, #128]	; 0x80
    36e4:	c5050000 	strgt	r0, [r5, #-0]
    36e8:	00000590 	muleq	r0, r0, r5
    36ec:	0b790c24 	bleq	1e46784 <__bss_end__+0x1e3ccfc>
    36f0:	c8050000 	stmdagt	r5, {}	; <UNPREDICTABLE>
    36f4:	000005b4 			; <UNDEFINED> instruction: 0x000005b4
    36f8:	0d320c28 	ldceq	12, cr0, [r2, #-160]!	; 0xffffff60
    36fc:	c9050000 	stmdbgt	r5, {}	; <UNPREDICTABLE>
    3700:	000005ce 	andeq	r0, r0, lr, asr #11
    3704:	755f102c 	ldrbvc	r1, [pc, #-44]	; 36e0 <__code_start__-0x4920>
    3708:	cc050062 	stcgt	0, cr0, [r5], {98}	; 0x62
    370c:	000002b6 			; <UNDEFINED> instruction: 0x000002b6
    3710:	755f1030 	ldrbvc	r1, [pc, #-48]	; 36e8 <__code_start__-0x4918>
    3714:	cd050070 	stcgt	0, cr0, [r5, #-448]	; 0xfffffe40
    3718:	000002db 	ldrdeq	r0, [r0], -fp
    371c:	755f1038 	ldrbvc	r1, [pc, #-56]	; 36ec <__code_start__-0x4914>
    3720:	ce050072 	mcrgt	0, 0, r0, cr5, cr2, {3}
    3724:	00000025 	andeq	r0, r0, r5, lsr #32
    3728:	08a00c3c 	stmiaeq	r0!, {r2, r3, r4, r5, sl, fp}
    372c:	d1050000 	mrsle	r0, (UNDEF: 5)
    3730:	000005d4 	ldrdeq	r0, [r0], -r4
    3734:	0cdd0c40 	ldcleq	12, cr0, [sp], {64}	; 0x40
    3738:	d2050000 	andle	r0, r5, #0
    373c:	000005e4 	andeq	r0, r0, r4, ror #11
    3740:	6c5f1043 	mrrcvs	0, 4, r1, pc, cr3	; <UNPREDICTABLE>
    3744:	d5050062 	strle	r0, [r5, #-98]	; 0x62
    3748:	000002b6 			; <UNDEFINED> instruction: 0x000002b6
    374c:	09030c44 	stmdbeq	r3, {r2, r6, sl, fp}
    3750:	d8050000 	stmdale	r5, {}	; <UNPREDICTABLE>
    3754:	00000025 	andeq	r0, r0, r5, lsr #32
    3758:	0a6b0c4c 	beq	1ac6890 <__bss_end__+0x1abce08>
    375c:	d9050000 	stmdble	r5, {}	; <UNPREDICTABLE>
    3760:	0000007b 	andeq	r0, r0, fp, ror r0
    3764:	0cc80c50 	stcleq	12, cr0, [r8], {80}	; 0x50
    3768:	dc050000 	stcle	0, cr0, [r5], {-0}
    376c:	00000429 	andeq	r0, r0, r9, lsr #8
    3770:	0a530c54 	beq	14c68c8 <__bss_end__+0x14bce40>
    3774:	e0050000 	and	r0, r5, r0
    3778:	000000ff 	strdeq	r0, [r0], -pc	; <UNPREDICTABLE>
    377c:	0b0f0c58 	bleq	3c68e4 <__bss_end__+0x3bce5c>
    3780:	e2050000 	and	r0, r5, #0
    3784:	000000f4 	strdeq	r0, [r0], -r4
    3788:	0a590c5c 	beq	1646900 <__bss_end__+0x163ce78>
    378c:	e3050000 	movw	r0, #20480	; 0x5000
    3790:	00000025 	andeq	r0, r0, r5, lsr #32
    3794:	25140064 	ldrcs	r0, [r4, #-100]	; 0x64
    3798:	29000000 	stmdbcs	r0, {}	; <UNPREDICTABLE>
    379c:	15000004 	strne	r0, [r0, #-4]
    37a0:	00000429 	andeq	r0, r0, r9, lsr #8
    37a4:	00010a15 	andeq	r0, r1, r5, lsl sl
    37a8:	010c1500 	tsteq	ip, r0, lsl #10
    37ac:	25150000 	ldrcs	r0, [r5, #-0]
    37b0:	00000000 	andeq	r0, r0, r0
    37b4:	0434040e 	ldrteq	r0, [r4], #-1038	; 0x40e
    37b8:	29040000 	stmdbcs	r4, {}	; <UNPREDICTABLE>
    37bc:	16000004 	strne	r0, [r0], -r4
    37c0:	00000b5c 	andeq	r0, r0, ip, asr fp
    37c4:	38050428 	stmdacc	r5, {r3, r5, sl}
    37c8:	00056602 	andeq	r6, r5, r2, lsl #12
    37cc:	0ad71700 	beq	ff5c93d4 <__bss_end__+0xff5bf94c>
    37d0:	3a050000 	bcc	1437d8 <__bss_end__+0x139d50>
    37d4:	00002502 	andeq	r2, r0, r2, lsl #10
    37d8:	fc170000 	ldc2	0, cr0, [r7], {-0}
    37dc:	05000008 	streq	r0, [r0, #-8]
    37e0:	063b023f 			; <UNDEFINED> instruction: 0x063b023f
    37e4:	17040000 	strne	r0, [r4, -r0]
    37e8:	000009f0 	strdeq	r0, [r0], -r0	; <UNPREDICTABLE>
    37ec:	3b023f05 	blcc	93408 <__bss_end__+0x89980>
    37f0:	08000006 	stmdaeq	r0, {r1, r2}
    37f4:	0009b117 	andeq	fp, r9, r7, lsl r1
    37f8:	023f0500 	eorseq	r0, pc, #0, 10
    37fc:	0000063b 	andeq	r0, r0, fp, lsr r6
    3800:	0b30170c 	bleq	c09438 <__bss_end__+0xbff9b0>
    3804:	41050000 	mrsmi	r0, (UNDEF: 5)
    3808:	00002502 	andeq	r2, r0, r2, lsl #10
    380c:	27171000 	ldrcs	r1, [r7, -r0]
    3810:	05000008 	streq	r0, [r0, #-8]
    3814:	081d0242 	ldmdaeq	sp, {r1, r6, r9}
    3818:	17140000 	ldrne	r0, [r4, -r0]
    381c:	00000c48 	andeq	r0, r0, r8, asr #24
    3820:	25024405 	strcs	r4, [r2, #-1029]	; 0x405
    3824:	30000000 	andcc	r0, r0, r0
    3828:	000b3a17 	andeq	r3, fp, r7, lsl sl
    382c:	02450500 	subeq	r0, r5, #0, 10
    3830:	0000058a 	andeq	r0, r0, sl, lsl #11
    3834:	0a9d1734 	beq	fe74950c <__bss_end__+0xfe73fa84>
    3838:	47050000 	strmi	r0, [r5, -r0]
    383c:	00002502 	andeq	r2, r0, r2, lsl #10
    3840:	4a173800 	bmi	5d1848 <__bss_end__+0x5c7dc0>
    3844:	0500000b 	streq	r0, [r0, #-11]
    3848:	08380249 	ldmdaeq	r8!, {r0, r3, r6, r9}
    384c:	173c0000 	ldrne	r0, [ip, -r0]!
    3850:	00000a2f 	andeq	r0, r0, pc, lsr #20
    3854:	7c024c05 	stcvc	12, cr4, [r2], {5}
    3858:	40000001 	andmi	r0, r0, r1
    385c:	0009d017 	andeq	sp, r9, r7, lsl r0
    3860:	024d0500 	subeq	r0, sp, #0, 10
    3864:	00000025 	andeq	r0, r0, r5, lsr #32
    3868:	0d4c1744 	stcleq	7, cr1, [ip, #-272]	; 0xfffffef0
    386c:	4e050000 	cdpmi	0, 0, cr0, cr5, cr0, {0}
    3870:	00017c02 	andeq	r7, r1, r2, lsl #24
    3874:	b4174800 	ldrlt	r4, [r7], #-2048	; 0x800
    3878:	0500000a 	streq	r0, [r0, #-10]
    387c:	083e024f 	ldmdaeq	lr!, {r0, r1, r2, r3, r6, r9}
    3880:	174c0000 	strbne	r0, [ip, -r0]
    3884:	000009f8 	strdeq	r0, [r0], -r8
    3888:	25025205 	strcs	r5, [r2, #-517]	; 0x205
    388c:	50000000 	andpl	r0, r0, r0
    3890:	00091f17 	andeq	r1, r9, r7, lsl pc
    3894:	02530500 	subseq	r0, r3, #0, 10
    3898:	0000010c 	andeq	r0, r0, ip, lsl #2
    389c:	0ad01754 	beq	ff4095f4 <__bss_end__+0xff3ffb6c>
    38a0:	76050000 	strvc	r0, [r5], -r0
    38a4:	0007fb02 	andeq	pc, r7, r2, lsl #22
    38a8:	95185800 	ldrls	r5, [r8, #-2048]	; 0x800
    38ac:	0500000a 	streq	r0, [r0, #-10]
    38b0:	0299027a 	addseq	r0, r9, #-1610612729	; 0xa0000007
    38b4:	01480000 	mrseq	r0, (UNDEF: 72)
    38b8:	000a0d18 	andeq	r0, sl, r8, lsl sp
    38bc:	027b0500 	rsbseq	r0, fp, #0, 10
    38c0:	0000025b 	andeq	r0, r0, fp, asr r2
    38c4:	ae18014c 	mufgeem	f0, f0, #4.0
    38c8:	0500000c 	streq	r0, [r0, #-12]
    38cc:	084f027f 	stmdaeq	pc, {r0, r1, r2, r3, r4, r5, r6, r9}^	; <UNPREDICTABLE>
    38d0:	02dc0000 	sbcseq	r0, ip, #0
    38d4:	0008e518 	andeq	lr, r8, r8, lsl r5
    38d8:	02840500 	addeq	r0, r4, #0, 10
    38dc:	00000600 	andeq	r0, r0, r0, lsl #12
    38e0:	ca1802e0 	bgt	604468 <__bss_end__+0x5fa9e0>
    38e4:	05000008 	streq	r0, [r0, #-8]
    38e8:	085b0285 	ldmdaeq	fp, {r0, r2, r7, r9}^
    38ec:	02ec0000 	rsceq	r0, ip, #0
    38f0:	0b040e00 	bleq	1070f8 <__bss_end__+0xfd670>
    38f4:	14000004 	strne	r0, [r0], #-4
    38f8:	00000025 	andeq	r0, r0, r5, lsr #32
    38fc:	0000058a 	andeq	r0, r0, sl, lsl #11
    3900:	00042915 	andeq	r2, r4, r5, lsl r9
    3904:	010a1500 	tsteq	sl, r0, lsl #10
    3908:	8a150000 	bhi	543910 <__bss_end__+0x539e88>
    390c:	15000005 	strne	r0, [r0, #-5]
    3910:	00000025 	andeq	r0, r0, r5, lsr #32
    3914:	19040e00 	stmdbne	r4, {r9, sl, fp}
    3918:	0e000001 	cdpeq	0, 0, cr0, cr0, cr1, {0}
    391c:	00056c04 	andeq	r6, r5, r4, lsl #24
    3920:	00861400 	addeq	r1, r6, r0, lsl #8
    3924:	05b40000 	ldreq	r0, [r4, #0]!
    3928:	29150000 	ldmdbcs	r5, {}	; <UNPREDICTABLE>
    392c:	15000004 	strne	r0, [r0, #-4]
    3930:	0000010a 	andeq	r0, r0, sl, lsl #2
    3934:	00008615 	andeq	r8, r0, r5, lsl r6
    3938:	00251500 	eoreq	r1, r5, r0, lsl #10
    393c:	0e000000 	cdpeq	0, 0, cr0, cr0, cr0, {0}
    3940:	00059604 	andeq	r9, r5, r4, lsl #12
    3944:	00251400 	eoreq	r1, r5, r0, lsl #8
    3948:	05ce0000 	strbeq	r0, [lr]
    394c:	29150000 	ldmdbcs	r5, {}	; <UNPREDICTABLE>
    3950:	15000004 	strne	r0, [r0, #-4]
    3954:	0000010a 	andeq	r0, r0, sl, lsl #2
    3958:	ba040e00 	blt	107160 <__bss_end__+0xfd6d8>
    395c:	09000005 	stmdbeq	r0, {r0, r2}
    3960:	00000054 	andeq	r0, r0, r4, asr r0
    3964:	000005e4 	andeq	r0, r0, r4, ror #11
    3968:	0000cc0a 	andeq	ip, r0, sl, lsl #24
    396c:	09000200 	stmdbeq	r0, {r9}
    3970:	00000054 	andeq	r0, r0, r4, asr r0
    3974:	000005f4 	strdeq	r0, [r0], -r4
    3978:	0000cc0a 	andeq	ip, r0, sl, lsl #24
    397c:	06000000 	streq	r0, [r0], -r0
    3980:	00000af5 	strdeq	r0, [r0], -r5
    3984:	e1011d05 	tst	r1, r5, lsl #26
    3988:	19000002 	stmdbne	r0, {r1}
    398c:	00000c76 	andeq	r0, r0, r6, ror ip
    3990:	0121050c 	teqeq	r1, ip, lsl #10
    3994:	00000635 	andeq	r0, r0, r5, lsr r6
    3998:	000b1d17 	andeq	r1, fp, r7, lsl sp
    399c:	01230500 	teqeq	r3, r0, lsl #10
    39a0:	00000635 	andeq	r0, r0, r5, lsr r6
    39a4:	0a061700 	beq	1895ac <__bss_end__+0x17fb24>
    39a8:	24050000 	strcs	r0, [r5], #-0
    39ac:	00002501 	andeq	r2, r0, r1, lsl #10
    39b0:	ef170400 	svc	0x00170400
    39b4:	0500000a 	streq	r0, [r0, #-10]
    39b8:	063b0125 	ldrteq	r0, [fp], -r5, lsr #2
    39bc:	00080000 	andeq	r0, r8, r0
    39c0:	0600040e 	streq	r0, [r0], -lr, lsl #8
    39c4:	040e0000 	streq	r0, [lr], #-0
    39c8:	000005f4 	strdeq	r0, [r0], -r4
    39cc:	00081f19 	andeq	r1, r8, r9, lsl pc
    39d0:	3d050e00 	stccc	14, cr0, [r5, #-0]
    39d4:	00067601 	andeq	r7, r6, r1, lsl #12
    39d8:	0b631700 	bleq	18c95e0 <__bss_end__+0x18bfb58>
    39dc:	3e050000 	cdpcc	0, 0, cr0, cr5, cr0, {0}
    39e0:	00067601 	andeq	r7, r6, r1, lsl #12
    39e4:	9d170000 	ldcls	0, cr0, [r7, #-0]
    39e8:	0500000b 	streq	r0, [r0, #-11]
    39ec:	0676013f 			; <UNDEFINED> instruction: 0x0676013f
    39f0:	17060000 	strne	r0, [r6, -r0]
    39f4:	00000c1b 	andeq	r0, r0, fp, lsl ip
    39f8:	5b014005 	blpl	53a14 <__bss_end__+0x49f8c>
    39fc:	0c000000 	stceq	0, cr0, [r0], {-0}
    3a00:	005b0900 	subseq	r0, fp, r0, lsl #18
    3a04:	06860000 	streq	r0, [r6], r0
    3a08:	cc0a0000 	stcgt	0, cr0, [sl], {-0}
    3a0c:	02000000 	andeq	r0, r0, #0
    3a10:	05d01a00 	ldrbeq	r1, [r0, #2560]	; 0xa00
    3a14:	07870257 			; <UNDEFINED> instruction: 0x07870257
    3a18:	5a170000 	bpl	5c3a20 <__bss_end__+0x5b9f98>
    3a1c:	0500000c 	streq	r0, [r0, #-12]
    3a20:	002c0259 	eoreq	r0, ip, r9, asr r2
    3a24:	17000000 	strne	r0, [r0, -r0]
    3a28:	00000c05 	andeq	r0, r0, r5, lsl #24
    3a2c:	0c025a05 	stceq	10, cr5, [r2], {5}
    3a30:	04000001 	streq	r0, [r0], #-1
    3a34:	000a2217 	andeq	r2, sl, r7, lsl r2
    3a38:	025b0500 	subseq	r0, fp, #0, 10
    3a3c:	00000787 	andeq	r0, r0, r7, lsl #15
    3a40:	0d231708 	stceq	7, cr1, [r3, #-32]!	; 0xffffffe0
    3a44:	5c050000 	stcpl	0, cr0, [r5], {-0}
    3a48:	00019202 	andeq	r9, r1, r2, lsl #4
    3a4c:	c1172400 	tstgt	r7, r0, lsl #8
    3a50:	05000009 	streq	r0, [r0, #-9]
    3a54:	0025025d 	eoreq	r0, r5, sp, asr r2
    3a58:	17480000 	strbne	r0, [r8, -r0]
    3a5c:	00000b18 	andeq	r0, r0, r8, lsl fp
    3a60:	69025e05 	stmdbvs	r2, {r0, r2, r9, sl, fp, ip, lr}
    3a64:	50000000 	andpl	r0, r0, r0
    3a68:	000d3917 	andeq	r3, sp, r7, lsl r9
    3a6c:	025f0500 	subseq	r0, pc, #0, 10
    3a70:	00000641 	andeq	r0, r0, r1, asr #12
    3a74:	0b231758 	bleq	8c97dc <__bss_end__+0x8bfd54>
    3a78:	60050000 	andvs	r0, r5, r0
    3a7c:	0000f402 	andeq	pc, r0, r2, lsl #8
    3a80:	3e176800 	cdpcc	8, 1, cr6, cr7, cr0, {0}
    3a84:	0500000d 	streq	r0, [r0, #-13]
    3a88:	00f40261 	rscseq	r0, r4, r1, ror #4
    3a8c:	17700000 	ldrbne	r0, [r0, -r0]!
    3a90:	00000884 	andeq	r0, r0, r4, lsl #17
    3a94:	f4026205 	vst1.8	{d6-d9}, [r2], r5
    3a98:	78000000 	stmdavc	r0, {}	; <UNPREDICTABLE>
    3a9c:	000c9617 	andeq	r9, ip, r7, lsl r6
    3aa0:	02630500 	rsbeq	r0, r3, #0, 10
    3aa4:	00000797 	muleq	r0, r7, r7
    3aa8:	0a161780 	beq	5898b0 <__bss_end__+0x57fe28>
    3aac:	64050000 	strvs	r0, [r5], #-0
    3ab0:	0007a702 	andeq	sl, r7, r2, lsl #14
    3ab4:	28178800 	ldmdacs	r7, {fp, pc}
    3ab8:	0500000c 	streq	r0, [r0, #-12]
    3abc:	00250265 	eoreq	r0, r5, r5, ror #4
    3ac0:	17a00000 	strne	r0, [r0, r0]!
    3ac4:	0000096d 	andeq	r0, r0, sp, ror #18
    3ac8:	f4026605 	vst1.8	{d6-d8}, [r2], r5
    3acc:	a4000000 	strge	r0, [r0], #-0
    3ad0:	00087517 	andeq	r7, r8, r7, lsl r5
    3ad4:	02670500 	rsbeq	r0, r7, #0, 10
    3ad8:	000000f4 	strdeq	r0, [r0], -r4
    3adc:	095c17ac 	ldmdbeq	ip, {r2, r3, r5, r7, r8, r9, sl, ip}^
    3ae0:	68050000 	stmdavs	r5, {}	; <UNPREDICTABLE>
    3ae4:	0000f402 	andeq	pc, r0, r2, lsl #8
    3ae8:	3c17b400 	cfldrscc	mvf11, [r7], {-0}
    3aec:	05000008 	streq	r0, [r0, #-8]
    3af0:	00f40269 	rscseq	r0, r4, r9, ror #4
    3af4:	17bc0000 	ldrne	r0, [ip, r0]!
    3af8:	0000084b 	andeq	r0, r0, fp, asr #16
    3afc:	f4026a05 	vst1.8	{d6-d7}, [r2], r5
    3b00:	c4000000 	strgt	r0, [r0], #-0
    3b04:	000ad517 	andeq	sp, sl, r7, lsl r5
    3b08:	026b0500 	rsbeq	r0, fp, #0, 10
    3b0c:	00000025 	andeq	r0, r0, r5, lsr #32
    3b10:	120900cc 	andne	r0, r9, #204	; 0xcc
    3b14:	97000001 	strls	r0, [r0, -r1]
    3b18:	0a000007 	beq	3b3c <__code_start__-0x44c4>
    3b1c:	000000cc 	andeq	r0, r0, ip, asr #1
    3b20:	12090019 	andne	r0, r9, #25
    3b24:	a7000001 	strge	r0, [r0, -r1]
    3b28:	0a000007 	beq	3b4c <__code_start__-0x44b4>
    3b2c:	000000cc 	andeq	r0, r0, ip, asr #1
    3b30:	12090007 	andne	r0, r9, #7
    3b34:	b7000001 	strlt	r0, [r0, -r1]
    3b38:	0a000007 	beq	3b5c <__code_start__-0x44a4>
    3b3c:	000000cc 	andeq	r0, r0, ip, asr #1
    3b40:	f01a0017 			; <UNDEFINED> instruction: 0xf01a0017
    3b44:	db027005 	blle	9fb60 <__bss_end__+0x960d8>
    3b48:	17000007 	strne	r0, [r0, -r7]
    3b4c:	00000a85 	andeq	r0, r0, r5, lsl #21
    3b50:	db027305 	blle	a076c <__bss_end__+0x96ce4>
    3b54:	00000007 	andeq	r0, r0, r7
    3b58:	000c8d17 	andeq	r8, ip, r7, lsl sp
    3b5c:	02740500 	rsbseq	r0, r4, #0, 10
    3b60:	000007eb 	andeq	r0, r0, fp, ror #15
    3b64:	db090078 	blle	243d4c <__bss_end__+0x23a2c4>
    3b68:	eb000002 	bl	3b78 <__code_start__-0x4488>
    3b6c:	0a000007 	beq	3b90 <__code_start__-0x4470>
    3b70:	000000cc 	andeq	r0, r0, ip, asr #1
    3b74:	2c09001d 	stccs	0, cr0, [r9], {29}
    3b78:	fb000000 	blx	3b82 <__code_start__-0x447e>
    3b7c:	0a000007 	beq	3ba0 <__code_start__-0x4460>
    3b80:	000000cc 	andeq	r0, r0, ip, asr #1
    3b84:	f01b001d 			; <UNDEFINED> instruction: 0xf01b001d
    3b88:	1d025505 	cfstr32ne	mvfx5, [r2, #-20]	; 0xffffffec
    3b8c:	1c000008 	stcne	0, cr0, [r0], {8}
    3b90:	00000b5c 	andeq	r0, r0, ip, asr fp
    3b94:	86026c05 	strhi	r6, [r2], -r5, lsl #24
    3b98:	1c000006 	stcne	0, cr0, [r0], {6}
    3b9c:	00000ce3 	andeq	r0, r0, r3, ror #25
    3ba0:	b7027505 	strlt	r7, [r2, -r5, lsl #10]
    3ba4:	00000007 	andeq	r0, r0, r7
    3ba8:	00011209 	andeq	r1, r1, r9, lsl #4
    3bac:	00082d00 	andeq	r2, r8, r0, lsl #26
    3bb0:	00cc0a00 	sbceq	r0, ip, r0, lsl #20
    3bb4:	00180000 	andseq	r0, r8, r0
    3bb8:	0008381d 	andeq	r3, r8, sp, lsl r8
    3bbc:	04291500 	strteq	r1, [r9], #-1280	; 0x500
    3bc0:	0e000000 	cdpeq	0, 0, cr0, cr0, cr0, {0}
    3bc4:	00082d04 	andeq	r2, r8, r4, lsl #26
    3bc8:	7c040e00 	stcvc	14, cr0, [r4], {-0}
    3bcc:	1d000001 	stcne	0, cr0, [r0, #-4]
    3bd0:	0000084f 	andeq	r0, r0, pc, asr #16
    3bd4:	00002515 	andeq	r2, r0, r5, lsl r5
    3bd8:	040e0000 	streq	r0, [lr], #-0
    3bdc:	00000855 	andeq	r0, r0, r5, asr r8
    3be0:	0844040e 	stmdaeq	r4, {r1, r2, r3, sl}^
    3be4:	f4090000 	vst4.8	{d0-d3}, [r9], r0
    3be8:	6b000005 	blvs	3c04 <__code_start__-0x43fc>
    3bec:	0a000008 	beq	3c14 <__code_start__-0x43ec>
    3bf0:	000000cc 	andeq	r0, r0, ip, asr #1
    3bf4:	3c1e0002 	ldccc	0, cr0, [lr], {2}
    3bf8:	0500000c 	streq	r0, [r0, #-12]
    3bfc:	042902fd 	strteq	r0, [r9], #-765	; 0x2fd
    3c00:	351e0000 	ldrcc	r0, [lr, #-0]
    3c04:	0500000c 	streq	r0, [r0, #-12]
    3c08:	042f02fe 	strteq	r0, [pc], #-766	; 3c10 <__code_start__-0x43f0>
    3c0c:	25140000 	ldrcs	r0, [r4, #-0]
    3c10:	92000000 	andls	r0, r0, #0
    3c14:	15000008 	strne	r0, [r0, #-8]
    3c18:	00000025 	andeq	r0, r0, r5, lsr #32
    3c1c:	041d1f00 	ldreq	r1, [sp], #-3840	; 0xf00
    3c20:	1d060000 	stcne	0, cr0, [r6, #-0]
    3c24:	0000089d 	muleq	r0, sp, r8
    3c28:	0883040e 	stmeq	r3, {r1, r2, r3, sl}
    3c2c:	25140000 	ldrcs	r0, [r4, #-0]
    3c30:	b2000000 	andlt	r0, r0, #0
    3c34:	15000008 	strne	r0, [r0, #-8]
    3c38:	0000058a 	andeq	r0, r0, sl, lsl #11
    3c3c:	045a1f00 	ldrbeq	r1, [sl], #-3840	; 0xf00
    3c40:	22060000 	andcs	r0, r6, #0
    3c44:	000008bd 			; <UNDEFINED> instruction: 0x000008bd
    3c48:	08a3040e 	stmiaeq	r3!, {r1, r2, r3, sl}
    3c4c:	01200000 	teqeq	r0, r0
    3c50:	00000054 	andeq	r0, r0, r4, asr r0
    3c54:	09000c07 	stmdbeq	r0, {r0, r1, r2, sl, fp}
    3c58:	65210000 	strvs	r0, [r1, #-0]!
    3c5c:	00000008 	andeq	r0, r0, r8
    3c60:	000c7c21 	andeq	r7, ip, r1, lsr #24
    3c64:	ce210100 	sufgts	f0, f1, f0
    3c68:	0400000c 	streq	r0, [r0], #-12
    3c6c:	0008a621 	andeq	sl, r8, r1, lsr #12
    3c70:	3d210500 	cfstr32cc	mvfx0, [r1, #-0]
    3c74:	0600000a 	streq	r0, [r0], -sl
    3c78:	000ceb21 	andeq	lr, ip, r1, lsr #22
    3c7c:	fa210700 	blx	845884 <__bss_end__+0x83bdfc>
    3c80:	0300000c 	movweq	r0, #12
    3c84:	000d0921 	andeq	r0, sp, r1, lsr #18
    3c88:	05000200 	streq	r0, [r0, #-512]	; 0x200
    3c8c:	00000dc8 	andeq	r0, r0, r8, asr #27
    3c90:	08c31507 	stmiaeq	r3, {r0, r1, r2, r8, sl, ip}^
    3c94:	99220000 	stmdbls	r2!, {}	; <UNPREDICTABLE>
    3c98:	0100000d 	tsteq	r0, sp
    3c9c:	0000331d 	andeq	r3, r0, sp, lsl r3
    3ca0:	20001c00 	andcs	r1, r0, r0, lsl #24
    3ca4:	0dd42220 	lfmeq	f2, 2, [r4, #128]	; 0x80
    3ca8:	1e010000 	cdpne	0, 0, cr0, cr1, cr0, {0}
    3cac:	00000033 	andeq	r0, r0, r3, lsr r0
    3cb0:	20200028 	eorcs	r0, r0, r8, lsr #32
    3cb4:	000da322 	andeq	sl, sp, r2, lsr #6
    3cb8:	331f0100 	tstcc	pc, #0, 2
    3cbc:	34000000 	strcc	r0, [r0], #-0
    3cc0:	23202000 	teqcs	r0, #0
    3cc4:	00000d74 	andeq	r0, r0, r4, ror sp
    3cc8:	00255601 	eoreq	r5, r5, r1, lsl #12
    3ccc:	91340000 	teqls	r4, r0
    3cd0:	00340000 	eorseq	r0, r4, r0
    3cd4:	9c010000 	stcls	0, cr0, [r1], {-0}
    3cd8:	00000998 	muleq	r0, r8, r9
    3cdc:	6e697024 	cdpvs	0, 6, cr7, cr9, cr4, {1}
    3ce0:	2c560100 	ldfcse	f0, [r6], {-0}
    3ce4:	9d000000 	stcls	0, cr0, [r0, #-0]
    3ce8:	2500000c 	strcs	r0, [r0, #-12]
    3cec:	00000d68 	andeq	r0, r0, r8, ror #26
    3cf0:	002c5901 	eoreq	r5, ip, r1, lsl #18
    3cf4:	0cd70000 	ldcleq	0, cr0, [r7], {0}
    3cf8:	6f260000 	svcvs	0x00260000
    3cfc:	01006666 	tsteq	r0, r6, ror #12
    3d00:	00002c5a 	andeq	r2, r0, sl, asr ip
    3d04:	000d1500 	andeq	r1, sp, r0, lsl #10
    3d08:	91502700 	cmpls	r0, r0, lsl #14
    3d0c:	0b5d0000 	bleq	1743d14 <__bss_end__+0x173a28c>
    3d10:	01280000 	teqeq	r8, r0
    3d14:	01f30b50 	mvnseq	r0, r0, asr fp
    3d18:	23253550 	teqcs	r5, #80, 10	; 0x14000000
    3d1c:	818080b4 	strhhi	r8, [r0, r4]
    3d20:	29000002 	stmdbcs	r0, {r1}
    3d24:	00000d8e 	andeq	r0, r0, lr, lsl #27
    3d28:	91184f01 	tstls	r8, r1, lsl #30
    3d2c:	001c0000 	andseq	r0, ip, r0
    3d30:	9c010000 	stcls	0, cr0, [r1], {-0}
    3d34:	000009e8 	andeq	r0, r0, r8, ror #19
    3d38:	6e697024 	cdpvs	0, 6, cr7, cr9, cr4, {1}
    3d3c:	2c4f0100 	stfcse	f0, [pc], {-0}
    3d40:	28000000 	stmdacs	r0, {}	; <UNPREDICTABLE>
    3d44:	2400000d 	strcs	r0, [r0], #-13
    3d48:	4f010076 	svcmi	0x00010076
    3d4c:	0000002c 	andeq	r0, r0, ip, lsr #32
    3d50:	00000d62 	andeq	r0, r0, r2, ror #26
    3d54:	0091282a 	addseq	r2, r1, sl, lsr #16
    3d58:	000a2300 	andeq	r2, sl, r0, lsl #6
    3d5c:	0009de00 	andeq	sp, r9, r0, lsl #28
    3d60:	50012800 	andpl	r2, r1, r0, lsl #16
    3d64:	5001f303 	andpl	pc, r1, r3, lsl #6
    3d68:	91302b00 	teqls	r0, r0, lsl #22
    3d6c:	0a640000 	beq	1903d74 <__bss_end__+0x18fa2ec>
    3d70:	29000000 	stmdbcs	r0, {}	; <UNPREDICTABLE>
    3d74:	00000dad 	andeq	r0, r0, sp, lsr #27
    3d78:	91084a01 	tstls	r8, r1, lsl #20
    3d7c:	00100000 	andseq	r0, r0, r0
    3d80:	9c010000 	stcls	0, cr0, [r1], {-0}
    3d84:	00000a23 	andeq	r0, r0, r3, lsr #20
    3d88:	6e697024 	cdpvs	0, 6, cr7, cr9, cr4, {1}
    3d8c:	2c4a0100 	stfcse	f0, [sl], {-0}
    3d90:	9c000000 	stcls	0, cr0, [r0], {-0}
    3d94:	2700000d 	strcs	r0, [r0, -sp]
    3d98:	00009114 	andeq	r9, r0, r4, lsl r1
    3d9c:	00000ae0 	andeq	r0, r0, r0, ror #21
    3da0:	03500128 	cmpeq	r0, #40, 2
    3da4:	285001f3 	ldmdacs	r0, {r0, r1, r4, r5, r6, r7, r8}^
    3da8:	30015101 	andcc	r5, r1, r1, lsl #2
    3dac:	5b290000 	blpl	a43db4 <__bss_end__+0xa3a32c>
    3db0:	0100000d 	tsteq	r0, sp
    3db4:	0090e443 	addseq	lr, r0, r3, asr #8
    3db8:	00002400 	andeq	r2, r0, r0, lsl #8
    3dbc:	649c0100 	ldrvs	r0, [ip], #256	; 0x100
    3dc0:	2400000a 	strcs	r0, [r0], #-10
    3dc4:	006e6970 	rsbeq	r6, lr, r0, ror r9
    3dc8:	002c4301 	eoreq	r4, ip, r1, lsl #6
    3dcc:	0dbd0000 	ldceq	0, cr0, [sp]
    3dd0:	00270000 	eoreq	r0, r7, r0
    3dd4:	68000091 	stmdavs	r0, {r0, r4, r7}
    3dd8:	2800000b 	stmdacs	r0, {r0, r1, r3}
    3ddc:	0c055001 	stceq	0, cr5, [r5], {1}
    3de0:	20200028 	eorcs	r0, r0, r8, lsr #32
    3de4:	05510128 	ldrbeq	r0, [r1, #-296]	; 0x128
    3de8:	5001f331 	andpl	pc, r1, r1, lsr r3	; <UNPREDICTABLE>
    3dec:	29000024 	stmdbcs	r0, {r2, r5}
    3df0:	00000dbc 			; <UNDEFINED> instruction: 0x00000dbc
    3df4:	90c03c01 	sbcls	r3, r0, r1, lsl #24
    3df8:	00240000 	eoreq	r0, r4, r0
    3dfc:	9c010000 	stcls	0, cr0, [r1], {-0}
    3e00:	00000aa5 	andeq	r0, r0, r5, lsr #21
    3e04:	6e697024 	cdpvs	0, 6, cr7, cr9, cr4, {1}
    3e08:	2c3c0100 	ldfcss	f0, [ip], #-0
    3e0c:	de000000 	cdple	0, 0, cr0, cr0, cr0, {0}
    3e10:	2700000d 	strcs	r0, [r0, -sp]
    3e14:	000090dc 	ldrdeq	r9, [r0], -ip
    3e18:	00000b68 	andeq	r0, r0, r8, ror #22
    3e1c:	05500128 	ldrbeq	r0, [r0, #-296]	; 0x128
    3e20:	20001c0c 	andcs	r1, r0, ip, lsl #24
    3e24:	51012820 	tstpl	r1, r0, lsr #16
    3e28:	01f33105 	mvnseq	r3, r5, lsl #2
    3e2c:	00002450 	andeq	r2, r0, r0, asr r4
    3e30:	000d7e29 	andeq	r7, sp, r9, lsr #28
    3e34:	b0370100 	eorslt	r0, r7, r0, lsl #2
    3e38:	10000090 	mulne	r0, r0, r0
    3e3c:	01000000 	mrseq	r0, (UNDEF: 0)
    3e40:	000ae09c 	muleq	sl, ip, r0
    3e44:	69702400 	ldmdbvs	r0!, {sl, sp}^
    3e48:	3701006e 	strcc	r0, [r1, -lr, rrx]
    3e4c:	0000002c 	andeq	r0, r0, ip, lsr #32
    3e50:	00000dff 	strdeq	r0, [r0], -pc	; <UNPREDICTABLE>
    3e54:	0090bc27 	addseq	fp, r0, r7, lsr #24
    3e58:	000ae000 	andeq	lr, sl, r0
    3e5c:	50012800 	andpl	r2, r1, r0, lsl #16
    3e60:	5001f303 	andpl	pc, r1, r3, lsl #6
    3e64:	01510128 	cmpeq	r1, r8, lsr #2
    3e68:	29000031 	stmdbcs	r0, {r0, r4, r5}
    3e6c:	00000a73 	andeq	r0, r0, r3, ror sl
    3e70:	90482801 	subls	r2, r8, r1, lsl #16
    3e74:	00680000 	rsbeq	r0, r8, r0
    3e78:	9c010000 	stcls	0, cr0, [r1], {-0}
    3e7c:	00000b5d 	andeq	r0, r0, sp, asr fp
    3e80:	6e697024 	cdpvs	0, 6, cr7, cr9, cr4, {1}
    3e84:	2c280100 	stfcss	f0, [r8], #-0
    3e88:	20000000 	andcs	r0, r0, r0
    3e8c:	2c00000e 	stccs	0, cr0, [r0], {14}
    3e90:	00000cb3 			; <UNDEFINED> instruction: 0x00000cb3
    3e94:	09002801 	stmdbeq	r0, {r0, fp, sp}
    3e98:	0e410000 	cdpeq	0, 4, cr0, cr1, cr0, {0}
    3e9c:	6f2d0000 	svcvs	0x002d0000
    3ea0:	01006666 	tsteq	r0, r6, ror #12
    3ea4:	00002c2d 	andeq	r2, r0, sp, lsr #24
    3ea8:	2d540100 	ldfcse	f0, [r4, #-0]
    3eac:	2f010067 	svccs	0x00010067
    3eb0:	0000002c 	andeq	r0, r0, ip, lsr #32
    3eb4:	76265601 	strtvc	r5, [r6], -r1, lsl #12
    3eb8:	2c310100 	ldfcss	f0, [r1], #-0
    3ebc:	62000000 	andvs	r0, r0, #0
    3ec0:	2a00000e 	bcs	3f00 <__code_start__-0x4100>
    3ec4:	00009094 	muleq	r0, r4, r0
    3ec8:	00000b5d 	andeq	r0, r0, sp, asr fp
    3ecc:	00000b4c 	andeq	r0, r0, ip, asr #22
    3ed0:	02500128 	subseq	r0, r0, #40, 2
    3ed4:	27000076 	smlsdxcs	r0, r6, r0, r0
    3ed8:	000090a8 	andeq	r9, r0, r8, lsr #1
    3edc:	00000b68 	andeq	r0, r0, r8, ror #22
    3ee0:	02500128 	subseq	r0, r0, #40, 2
    3ee4:	00000076 	andeq	r0, r0, r6, ror r0
    3ee8:	0007dc2e 	andeq	sp, r7, lr, lsr #24
    3eec:	0007dc00 	andeq	sp, r7, r0, lsl #24
    3ef0:	2ea70600 	cdpcs	6, 10, cr0, cr7, cr0, {0}
    3ef4:	00000711 	andeq	r0, r0, r1, lsl r7
    3ef8:	00000711 	andeq	r0, r0, r1, lsl r7
    3efc:	Address 0x0000000000003efc is out of bounds.


Disassembly of section .debug_abbrev:

00000000 <.debug_abbrev>:
       0:	25011101 	strcs	r1, [r1, #-257]	; 0x101
       4:	030b130e 	movweq	r1, #45838	; 0xb30e
       8:	110e1b0e 	tstne	lr, lr, lsl #22
       c:	10061201 	andne	r1, r6, r1, lsl #4
      10:	02000017 	andeq	r0, r0, #23
      14:	0b0b0024 	bleq	2c00ac <__bss_end__+0x2b6624>
      18:	08030b3e 	stmdaeq	r3, {r1, r2, r3, r4, r5, r8, r9, fp}
      1c:	24030000 	strcs	r0, [r3], #-0
      20:	3e0b0b00 	vmlacc.f64	d0, d11, d0
      24:	000e030b 	andeq	r0, lr, fp, lsl #6
      28:	00160400 	andseq	r0, r6, r0, lsl #8
      2c:	0b3a0e03 	bleq	e83840 <__bss_end__+0xe79db8>
      30:	13490b3b 	movtne	r0, #39739	; 0x9b3b
      34:	0f050000 	svceq	0x00050000
      38:	000b0b00 	andeq	r0, fp, r0, lsl #22
      3c:	000f0600 	andeq	r0, pc, r0, lsl #12
      40:	13490b0b 	movtne	r0, #39691	; 0x9b0b
      44:	26070000 	strcs	r0, [r7], -r0
      48:	00134900 	andseq	r4, r3, r0, lsl #18
      4c:	01010800 	tsteq	r1, r0, lsl #16
      50:	13011349 	movwne	r1, #4937	; 0x1349
      54:	21090000 	mrscs	r0, (UNDEF: 9)
      58:	2f134900 	svccs	0x00134900
      5c:	0a00000b 	beq	90 <__code_start__-0x7f70>
      60:	19270115 	stmdbne	r7!, {r0, r2, r4, r8}
      64:	00001301 	andeq	r1, r0, r1, lsl #6
      68:	4900050b 	stmdbmi	r0, {r0, r1, r3, r8, sl}
      6c:	0c000013 	stceq	0, cr0, [r0], {19}
      70:	0e03012e 	adfeqsp	f0, f3, #0.5
      74:	0b3b0b3a 	bleq	ec2d64 <__bss_end__+0xeb92dc>
      78:	13491927 	movtne	r1, #39207	; 0x9927
      7c:	13010b20 	movwne	r0, #6944	; 0x1b20
      80:	340d0000 	strcc	r0, [sp], #-0
      84:	3a080300 	bcc	200c8c <__bss_end__+0x1f7204>
      88:	490b3b0b 	stmdbmi	fp, {r0, r1, r3, r8, r9, fp, ip, sp}
      8c:	0e000013 	mcreq	0, 0, r0, cr0, cr3, {0}
      90:	0e030034 	mcreq	0, 0, r0, cr3, cr4, {1}
      94:	0b3b0b3a 	bleq	ec2d84 <__bss_end__+0xeb92fc>
      98:	00001349 	andeq	r1, r0, r9, asr #6
      9c:	3f012e0f 	svccc	0x00012e0f
      a0:	3a0e0319 	bcc	380d0c <__bss_end__+0x377284>
      a4:	270b3b0b 	strcs	r3, [fp, -fp, lsl #22]
      a8:	12011119 	andne	r1, r1, #1073741830	; 0x40000006
      ac:	97184006 	ldrls	r4, [r8, -r6]
      b0:	13011942 	movwne	r1, #6466	; 0x1942
      b4:	05100000 	ldreq	r0, [r0, #-0]
      b8:	3a080300 	bcc	200cc0 <__bss_end__+0x1f7238>
      bc:	490b3b0b 	stmdbmi	fp, {r0, r1, r3, r8, r9, fp, ip, sp}
      c0:	00180213 	andseq	r0, r8, r3, lsl r2
      c4:	00351100 	eorseq	r1, r5, r0, lsl #2
      c8:	2e120000 	cdpcs	0, 1, cr0, cr2, cr0, {0}
      cc:	03193f01 	tsteq	r9, #1, 30
      d0:	3b0b3a0e 	blcc	2ce910 <__bss_end__+0x2c4e88>
      d4:	4919270b 	ldmdbmi	r9, {r0, r1, r3, r8, r9, sl, sp}
      d8:	12011113 	andne	r1, r1, #-1073741820	; 0xc0000004
      dc:	97184006 	ldrls	r4, [r8, -r6]
      e0:	13011942 	movwne	r1, #6466	; 0x1942
      e4:	05130000 	ldreq	r0, [r3, #-0]
      e8:	3a080300 	bcc	200cf0 <__bss_end__+0x1f7268>
      ec:	490b3b0b 	stmdbmi	fp, {r0, r1, r3, r8, r9, fp, ip, sp}
      f0:	00170213 	andseq	r0, r7, r3, lsl r2
      f4:	012e1400 	teqeq	lr, r0, lsl #8
      f8:	0b3a0e03 	bleq	e8390c <__bss_end__+0xe79e84>
      fc:	19270b3b 	stmdbne	r7!, {r0, r1, r3, r4, r5, r8, r9, fp}
     100:	06120111 			; <UNDEFINED> instruction: 0x06120111
     104:	42971840 	addsmi	r1, r7, #64, 16	; 0x400000
     108:	00130119 	andseq	r0, r3, r9, lsl r1
     10c:	00051500 	andeq	r1, r5, r0, lsl #10
     110:	0b3a0e03 	bleq	e83924 <__bss_end__+0xe79e9c>
     114:	13490b3b 	movtne	r0, #39739	; 0x9b3b
     118:	00001702 	andeq	r1, r0, r2, lsl #14
     11c:	03003416 	movweq	r3, #1046	; 0x416
     120:	3413490e 	ldrcc	r4, [r3], #-2318	; 0x90e
     124:	00180219 	andseq	r0, r8, r9, lsl r2
     128:	011d1700 	tsteq	sp, r0, lsl #14
     12c:	01111331 	tsteq	r1, r1, lsr r3
     130:	0b580612 	bleq	1601980 <__bss_end__+0x15f7ef8>
     134:	13010b59 	movwne	r0, #7001	; 0x1b59
     138:	0b180000 	bleq	600140 <__bss_end__+0x5f66b8>
     13c:	12011101 	andne	r1, r1, #1073741824	; 0x40000000
     140:	19000006 	stmdbne	r0, {r1, r2}
     144:	13310034 	teqne	r1, #52	; 0x34
     148:	1d1a0000 	ldcne	0, cr0, [sl, #-0]
     14c:	11133101 	tstne	r3, r1, lsl #2
     150:	58061201 	stmdapl	r6, {r0, r9, ip}
     154:	000b590b 	andeq	r5, fp, fp, lsl #18
     158:	00341b00 	eorseq	r1, r4, r0, lsl #22
     15c:	17021331 	smladxne	r2, r1, r3, r1
     160:	891c0000 	ldmdbhi	ip, {}	; <UNPREDICTABLE>
     164:	11010182 	smlabbne	r1, r2, r1, r0
     168:	01133101 	tsteq	r3, r1, lsl #2
     16c:	1d000013 	stcne	0, cr0, [r0, #-76]	; 0xffffffb4
     170:	0001828a 	andeq	r8, r1, sl, lsl #5
     174:	42911802 	addsmi	r1, r1, #131072	; 0x20000
     178:	1e000018 	mcrne	0, 0, r0, cr0, cr8, {0}
     17c:	00018289 	andeq	r8, r1, r9, lsl #5
     180:	13310111 	teqne	r1, #1073741828	; 0x40000004
     184:	341f0000 	ldrcc	r0, [pc], #-0	; 18c <__code_start__-0x7e74>
     188:	3a080300 	bcc	200d90 <__bss_end__+0x1f7308>
     18c:	490b3b0b 	stmdbmi	fp, {r0, r1, r3, r8, r9, fp, ip, sp}
     190:	000b1c13 	andeq	r1, fp, r3, lsl ip
     194:	012e2000 	teqeq	lr, r0
     198:	0e03193f 	mcreq	9, 0, r1, cr3, cr15, {1}
     19c:	0b3b0b3a 	bleq	ec2e8c <__bss_end__+0xeb9404>
     1a0:	13491927 	movtne	r1, #39207	; 0x9927
     1a4:	1301193c 	movwne	r1, #6460	; 0x193c
     1a8:	18210000 	stmdane	r1!, {}	; <UNPREDICTABLE>
     1ac:	22000000 	andcs	r0, r0, #0
     1b0:	193f002e 	ldmdbne	pc!, {r1, r2, r3, r5}	; <UNPREDICTABLE>
     1b4:	0b3a0e03 	bleq	e839c8 <__bss_end__+0xe79f40>
     1b8:	19270b3b 	stmdbne	r7!, {r0, r1, r3, r4, r5, r8, r9, fp}
     1bc:	0000193c 	andeq	r1, r0, ip, lsr r9
     1c0:	3f012e23 	svccc	0x00012e23
     1c4:	3a0e0319 	bcc	380e30 <__bss_end__+0x3773a8>
     1c8:	270b3b0b 	strcs	r3, [fp, -fp, lsl #22]
     1cc:	00193c19 	andseq	r3, r9, r9, lsl ip
     1d0:	11010000 	mrsne	r0, (UNDEF: 1)
     1d4:	130e2501 	movwne	r2, #58625	; 0xe501
     1d8:	1b0e030b 	blne	380e0c <__bss_end__+0x377384>
     1dc:	1201110e 	andne	r1, r1, #-2147483645	; 0x80000003
     1e0:	00171006 	andseq	r1, r7, r6
     1e4:	00240200 	eoreq	r0, r4, r0, lsl #4
     1e8:	0b3e0b0b 	bleq	f82e1c <__bss_end__+0xf79394>
     1ec:	00000803 	andeq	r0, r0, r3, lsl #16
     1f0:	0b002403 	bleq	9204 <__data_end__+0x94>
     1f4:	030b3e0b 	movweq	r3, #48651	; 0xbe0b
     1f8:	0400000e 	streq	r0, [r0], #-14
     1fc:	0e030016 	mcreq	0, 0, r0, cr3, cr6, {0}
     200:	0b3b0b3a 	bleq	ec2ef0 <__bss_end__+0xeb9468>
     204:	00001349 	andeq	r1, r0, r9, asr #6
     208:	0b000f05 	bleq	3e24 <__code_start__-0x41dc>
     20c:	0600000b 	streq	r0, [r0], -fp
     210:	0b0b000f 	bleq	2c0254 <__bss_end__+0x2b67cc>
     214:	00001349 	andeq	r1, r0, r9, asr #6
     218:	49002607 	stmdbmi	r0, {r0, r1, r2, r9, sl, sp}
     21c:	08000013 	stmdaeq	r0, {r0, r1, r4}
     220:	19270115 	stmdbne	r7!, {r0, r2, r4, r8}
     224:	00001301 	andeq	r1, r0, r1, lsl #6
     228:	49000509 	stmdbmi	r0, {r0, r3, r8, sl}
     22c:	0a000013 	beq	280 <__code_start__-0x7d80>
     230:	0e03012e 	adfeqsp	f0, f3, #0.5
     234:	0b3b0b3a 	bleq	ec2f24 <__bss_end__+0xeb949c>
     238:	13491927 	movtne	r1, #39207	; 0x9927
     23c:	13010b20 	movwne	r0, #6944	; 0x1b20
     240:	340b0000 	strcc	r0, [fp], #-0
     244:	3a080300 	bcc	200e4c <__bss_end__+0x1f73c4>
     248:	490b3b0b 	stmdbmi	fp, {r0, r1, r3, r8, r9, fp, ip, sp}
     24c:	0c000013 	stceq	0, cr0, [r0], {19}
     250:	08030005 	stmdaeq	r3, {r0, r2}
     254:	0b3b0b3a 	bleq	ec2f44 <__bss_end__+0xeb94bc>
     258:	00001349 	andeq	r1, r0, r9, asr #6
     25c:	03012e0d 	movweq	r2, #7693	; 0x1e0d
     260:	3b0b3a0e 	blcc	2ceaa0 <__bss_end__+0x2c5018>
     264:	2019270b 	andscs	r2, r9, fp, lsl #14
     268:	0013010b 	andseq	r0, r3, fp, lsl #2
     26c:	00340e00 	eorseq	r0, r4, r0, lsl #28
     270:	0b3a0e03 	bleq	e83a84 <__bss_end__+0xe79ffc>
     274:	13490b3b 	movtne	r0, #39739	; 0x9b3b
     278:	2e0f0000 	cdpcs	0, 0, cr0, cr15, cr0, {0}
     27c:	03193f01 	tsteq	r9, #1, 30
     280:	3b0b3a0e 	blcc	2ceac0 <__bss_end__+0x2c5038>
     284:	1119270b 	tstne	r9, fp, lsl #14
     288:	40061201 	andmi	r1, r6, r1, lsl #4
     28c:	19429718 	stmdbne	r2, {r3, r4, r8, r9, sl, ip, pc}^
     290:	00001301 	andeq	r1, r0, r1, lsl #6
     294:	03000510 	movweq	r0, #1296	; 0x510
     298:	3b0b3a0e 	blcc	2cead8 <__bss_end__+0x2c5050>
     29c:	0213490b 	andseq	r4, r3, #180224	; 0x2c000
     2a0:	11000017 	tstne	r0, r7, lsl r0
     2a4:	0e030034 	mcreq	0, 0, r0, cr3, cr4, {1}
     2a8:	0b3b0b3a 	bleq	ec2f98 <__bss_end__+0xeb9510>
     2ac:	17021349 	strne	r1, [r2, -r9, asr #6]
     2b0:	34120000 	ldrcc	r0, [r2], #-0
     2b4:	490e0300 	stmdbmi	lr, {r8, r9}
     2b8:	02193413 	andseq	r3, r9, #318767104	; 0x13000000
     2bc:	13000018 	movwne	r0, #24
     2c0:	1331011d 	teqne	r1, #1073741831	; 0x40000007
     2c4:	06120111 			; <UNDEFINED> instruction: 0x06120111
     2c8:	0b590b58 	bleq	1643030 <__bss_end__+0x16395a8>
     2cc:	00001301 	andeq	r1, r0, r1, lsl #6
     2d0:	11010b14 	tstne	r1, r4, lsl fp
     2d4:	00061201 	andeq	r1, r6, r1, lsl #4
     2d8:	00341500 	eorseq	r1, r4, r0, lsl #10
     2dc:	17021331 	smladxne	r2, r1, r3, r1
     2e0:	05160000 	ldreq	r0, [r6, #-0]
     2e4:	02133100 	andseq	r3, r3, #0, 2
     2e8:	17000017 	smladne	r0, r7, r0, r0
     2ec:	13310005 	teqne	r1, #5
     2f0:	0000051c 	andeq	r0, r0, ip, lsl r5
     2f4:	31000518 	tstcc	r0, r8, lsl r5
     2f8:	000b1c13 	andeq	r1, fp, r3, lsl ip
     2fc:	82891900 	addhi	r1, r9, #0, 18
     300:	01110001 	tsteq	r1, r1
     304:	00001331 	andeq	r1, r0, r1, lsr r3
     308:	0182891a 	orreq	r8, r2, sl, lsl r9
     30c:	31011101 	tstcc	r1, r1, lsl #2
     310:	00130113 	andseq	r0, r3, r3, lsl r1
     314:	828a1b00 	addhi	r1, sl, #0, 22
     318:	18020001 	stmdane	r2, {r0}
     31c:	00184291 	mulseq	r8, r1, r2
     320:	01011c00 	tsteq	r1, r0, lsl #24
     324:	13011349 	movwne	r1, #4937	; 0x1349
     328:	211d0000 	tstcs	sp, r0
     32c:	2f134900 	svccs	0x00134900
     330:	1e00000b 	cdpne	0, 0, cr0, cr0, cr11, {0}
     334:	0e030034 	mcreq	0, 0, r0, cr3, cr4, {1}
     338:	19341349 	ldmdbne	r4!, {r0, r3, r6, r8, r9, ip}
     33c:	00000e1c 	andeq	r0, r0, ip, lsl lr
     340:	0300051f 	movweq	r0, #1311	; 0x51f
     344:	3b0b3a08 	blcc	2ceb6c <__bss_end__+0x2c50e4>
     348:	0213490b 	andseq	r4, r3, #180224	; 0x2c000
     34c:	20000017 	andcs	r0, r0, r7, lsl r0
     350:	0e030034 	mcreq	0, 0, r0, cr3, cr4, {1}
     354:	0b3b0b3a 	bleq	ec3044 <__bss_end__+0xeb95bc>
     358:	18021349 	stmdane	r2, {r0, r3, r6, r8, r9, ip}
     35c:	34210000 	strtcc	r0, [r1], #-0
     360:	00133100 	andseq	r3, r3, r0, lsl #2
     364:	011d2200 	tsteq	sp, r0, lsl #4
     368:	01111331 	tsteq	r1, r1, lsr r3
     36c:	0b580612 	bleq	1601bbc <__bss_end__+0x15f8134>
     370:	00000b59 	andeq	r0, r0, r9, asr fp
     374:	31003423 	tstcc	r0, r3, lsr #8
     378:	00180213 	andseq	r0, r8, r3, lsl r2
     37c:	82892400 	addhi	r2, r9, #0, 8
     380:	01110101 	tsteq	r1, r1, lsl #2
     384:	34250000 	strtcc	r0, [r5], #-0
     388:	3a080300 	bcc	200f90 <__bss_end__+0x1f7508>
     38c:	490b3b0b 	stmdbmi	fp, {r0, r1, r3, r8, r9, fp, ip, sp}
     390:	00051c13 	andeq	r1, r5, r3, lsl ip
     394:	00052600 	andeq	r2, r5, r0, lsl #12
     398:	0b3a0e03 	bleq	e83bac <__bss_end__+0xe7a124>
     39c:	13490b3b 	movtne	r0, #39739	; 0x9b3b
     3a0:	00001802 	andeq	r1, r0, r2, lsl #16
     3a4:	31000527 	tstcc	r0, r7, lsr #10
     3a8:	00180213 	andseq	r0, r8, r3, lsl r2
     3ac:	00052800 	andeq	r2, r5, r0, lsl #16
     3b0:	0b3a0803 	bleq	e823c4 <__bss_end__+0xe7893c>
     3b4:	13490b3b 	movtne	r0, #39739	; 0x9b3b
     3b8:	00001802 	andeq	r1, r0, r2, lsl #16
     3bc:	3f002e29 	svccc	0x00002e29
     3c0:	3a0e0319 	bcc	38102c <__bss_end__+0x3775a4>
     3c4:	270b3b0b 	strcs	r3, [fp, -fp, lsl #22]
     3c8:	00193c19 	andseq	r3, r9, r9, lsl ip
     3cc:	012e2a00 	teqeq	lr, r0, lsl #20
     3d0:	0e03193f 	mcreq	9, 0, r1, cr3, cr15, {1}
     3d4:	0b3b0b3a 	bleq	ec30c4 <__bss_end__+0xeb963c>
     3d8:	13491927 	movtne	r1, #39207	; 0x9927
     3dc:	1301193c 	movwne	r1, #6460	; 0x193c
     3e0:	182b0000 	stmdane	fp!, {}	; <UNPREDICTABLE>
     3e4:	00000000 	andeq	r0, r0, r0
     3e8:	25011101 	strcs	r1, [r1, #-257]	; 0x101
     3ec:	030b130e 	movweq	r1, #45838	; 0xb30e
     3f0:	110e1b0e 	tstne	lr, lr, lsl #22
     3f4:	10061201 	andne	r1, r6, r1, lsl #4
     3f8:	02000017 	andeq	r0, r0, #23
     3fc:	0e030016 	mcreq	0, 0, r0, cr3, cr6, {0}
     400:	0b3b0b3a 	bleq	ec30f0 <__bss_end__+0xeb9668>
     404:	00001349 	andeq	r1, r0, r9, asr #6
     408:	03011303 	movweq	r1, #4867	; 0x1303
     40c:	3a0b0b0e 	bcc	2c304c <__bss_end__+0x2b95c4>
     410:	010b3b0b 	tsteq	fp, fp, lsl #22
     414:	04000013 	streq	r0, [r0], #-19
     418:	0e03000d 	cdpeq	0, 0, cr0, cr3, cr13, {0}
     41c:	0b381349 	bleq	e05148 <__bss_end__+0xdfb6c0>
     420:	00001934 	andeq	r1, r0, r4, lsr r9
     424:	0b000f05 	bleq	4040 <__code_start__-0x3fc0>
     428:	0600000b 	streq	r0, [r0], -fp
     42c:	0b0b0024 	bleq	2c04c4 <__bss_end__+0x2b6a3c>
     430:	08030b3e 	stmdaeq	r3, {r1, r2, r3, r4, r5, r8, r9, fp}
     434:	24070000 	strcs	r0, [r7], #-0
     438:	3e0b0b00 	vmlacc.f64	d0, d11, d0
     43c:	000e030b 	andeq	r0, lr, fp, lsl #6
     440:	000f0800 	andeq	r0, pc, r0, lsl #16
     444:	13490b0b 	movtne	r0, #39691	; 0x9b0b
     448:	26090000 	strcs	r0, [r9], -r0
     44c:	00134900 	andseq	r4, r3, r0, lsl #18
     450:	012e0a00 	teqeq	lr, r0, lsl #20
     454:	0e03193f 	mcreq	9, 0, r1, cr3, cr15, {1}
     458:	0b3b0b3a 	bleq	ec3148 <__bss_end__+0xeb96c0>
     45c:	13491927 	movtne	r1, #39207	; 0x9927
     460:	06120111 			; <UNDEFINED> instruction: 0x06120111
     464:	42971840 	addsmi	r1, r7, #64, 16	; 0x400000
     468:	00130119 	andseq	r0, r3, r9, lsl r1
     46c:	00050b00 	andeq	r0, r5, r0, lsl #22
     470:	0b3a0803 	bleq	e82484 <__bss_end__+0xe789fc>
     474:	13490b3b 	movtne	r0, #39739	; 0x9b3b
     478:	00001802 	andeq	r1, r0, r2, lsl #16
     47c:	0000180c 	andeq	r1, r0, ip, lsl #16
     480:	00340d00 	eorseq	r0, r4, r0, lsl #26
     484:	0b3a0803 	bleq	e82498 <__bss_end__+0xe78a10>
     488:	13490b3b 	movtne	r0, #39739	; 0x9b3b
     48c:	00001802 	andeq	r1, r0, r2, lsl #16
     490:	0300340e 	movweq	r3, #1038	; 0x40e
     494:	3b0b3a0e 	blcc	2cecd4 <__bss_end__+0x2c524c>
     498:	0213490b 	andseq	r4, r3, #180224	; 0x2c000
     49c:	0f000018 	svceq	0x00000018
     4a0:	08030034 	stmdaeq	r3, {r2, r4, r5}
     4a4:	0b3b0b3a 	bleq	ec3194 <__bss_end__+0xeb970c>
     4a8:	17021349 	strne	r1, [r2, -r9, asr #6]
     4ac:	89100000 	ldmdbhi	r0, {}	; <UNPREDICTABLE>
     4b0:	11010182 	smlabbne	r1, r2, r1, r0
     4b4:	01133101 	tsteq	r3, r1, lsl #2
     4b8:	11000013 	tstne	r0, r3, lsl r0
     4bc:	0001828a 	andeq	r8, r1, sl, lsl #5
     4c0:	42911802 	addsmi	r1, r1, #131072	; 0x20000
     4c4:	12000018 	andne	r0, r0, #24
     4c8:	01018289 	smlabbeq	r1, r9, r2, r8
     4cc:	00000111 	andeq	r0, r0, r1, lsl r1
     4d0:	49010113 	stmdbmi	r1, {r0, r1, r4, r8}
     4d4:	00130113 	andseq	r0, r3, r3, lsl r1
     4d8:	00211400 	eoreq	r1, r1, r0, lsl #8
     4dc:	052f1349 	streq	r1, [pc, #-841]!	; 19b <__code_start__-0x7e65>
     4e0:	15150000 	ldrne	r0, [r5, #-0]
     4e4:	49192701 	ldmdbmi	r9, {r0, r8, r9, sl, sp}
     4e8:	00130113 	andseq	r0, r3, r3, lsl r1
     4ec:	00051600 	andeq	r1, r5, r0, lsl #12
     4f0:	00001349 	andeq	r1, r0, r9, asr #6
     4f4:	03003417 	movweq	r3, #1047	; 0x417
     4f8:	3b0b3a0e 	blcc	2ced38 <__bss_end__+0x2c52b0>
     4fc:	3f13490b 	svccc	0x0013490b
     500:	00193c19 	andseq	r3, r9, r9, lsl ip
     504:	012e1800 	teqeq	lr, r0, lsl #16
     508:	0e03193f 	mcreq	9, 0, r1, cr3, cr15, {1}
     50c:	0b3b0b3a 	bleq	ec31fc <__bss_end__+0xeb9774>
     510:	13491927 	movtne	r1, #39207	; 0x9927
     514:	0000193c 	andeq	r1, r0, ip, lsr r9
     518:	01110100 	tsteq	r1, r0, lsl #2
     51c:	0b130e25 	bleq	4c3db8 <__bss_end__+0x4ba330>
     520:	0e1b0e03 	cdpeq	14, 1, cr0, cr11, cr3, {0}
     524:	06120111 			; <UNDEFINED> instruction: 0x06120111
     528:	00001710 	andeq	r1, r0, r0, lsl r7
     52c:	0b002402 	bleq	953c <__FUNCTION__.4220+0x1c>
     530:	030b3e0b 	movweq	r3, #48651	; 0xbe0b
     534:	03000008 	movweq	r0, #8
     538:	0b0b0024 	bleq	2c05d0 <__bss_end__+0x2b6b48>
     53c:	0e030b3e 	vmoveq.16	d3[0], r0
     540:	2e040000 	cdpcs	0, 0, cr0, cr4, cr0, {0}
     544:	3a0e0301 	bcc	381150 <__bss_end__+0x3776c8>
     548:	270b3b0b 	strcs	r3, [fp, -fp, lsl #22]
     54c:	11134919 	tstne	r3, r9, lsl r9
     550:	40061201 	andmi	r1, r6, r1, lsl #4
     554:	19429718 	stmdbne	r2, {r3, r4, r8, r9, sl, ip, pc}^
     558:	00001301 	andeq	r1, r0, r1, lsl #6
     55c:	03000505 	movweq	r0, #1285	; 0x505
     560:	3b0b3a08 	blcc	2ced88 <__bss_end__+0x2c5300>
     564:	0213490b 	andseq	r4, r3, #180224	; 0x2c000
     568:	06000017 			; <UNDEFINED> instruction: 0x06000017
     56c:	01018289 	smlabbeq	r1, r9, r2, r8
     570:	13310111 	teqne	r1, #1073741828	; 0x40000004
     574:	8a070000 	bhi	1c057c <__bss_end__+0x1b6af4>
     578:	02000182 	andeq	r0, r0, #-2147483616	; 0x80000020
     57c:	18429118 	stmdane	r2, {r3, r4, r8, ip, pc}^
     580:	2e080000 	cdpcs	0, 0, cr0, cr8, cr0, {0}
     584:	03193f00 	tsteq	r9, #0, 30
     588:	3b0b3a0e 	blcc	2cedc8 <__bss_end__+0x2c5340>
     58c:	1119270b 	tstne	r9, fp, lsl #14
     590:	40061201 	andmi	r1, r6, r1, lsl #4
     594:	19429718 	stmdbne	r2, {r3, r4, r8, r9, sl, ip, pc}^
     598:	2e090000 	cdpcs	0, 0, cr0, cr9, cr0, {0}
     59c:	03193f01 	tsteq	r9, #1, 30
     5a0:	3b0b3a0e 	blcc	2cede0 <__bss_end__+0x2c5358>
     5a4:	1119270b 	tstne	r9, fp, lsl #14
     5a8:	40061201 	andmi	r1, r6, r1, lsl #4
     5ac:	19429718 	stmdbne	r2, {r3, r4, r8, r9, sl, ip, pc}^
     5b0:	00001301 	andeq	r1, r0, r1, lsl #6
     5b4:	0300050a 	movweq	r0, #1290	; 0x50a
     5b8:	3b0b3a08 	blcc	2cede0 <__bss_end__+0x2c5358>
     5bc:	0213490b 	andseq	r4, r3, #180224	; 0x2c000
     5c0:	0b000018 	bleq	628 <__code_start__-0x79d8>
     5c4:	19270115 	stmdbne	r7!, {r0, r2, r4, r8}
     5c8:	13011349 	movwne	r1, #4937	; 0x1349
     5cc:	050c0000 	streq	r0, [ip, #-0]
     5d0:	00134900 	andseq	r4, r3, r0, lsl #18
     5d4:	000f0d00 	andeq	r0, pc, r0, lsl #26
     5d8:	13490b0b 	movtne	r0, #39691	; 0x9b0b
     5dc:	340e0000 	strcc	r0, [lr], #-0
     5e0:	3a0e0300 	bcc	3811e8 <__bss_end__+0x377760>
     5e4:	490b3b0b 	stmdbmi	fp, {r0, r1, r3, r8, r9, fp, ip, sp}
     5e8:	02193f13 	andseq	r3, r9, #19, 30	; 0x4c
     5ec:	0f000018 	svceq	0x00000018
     5f0:	193f012e 	ldmdbne	pc!, {r1, r2, r3, r5, r8}	; <UNPREDICTABLE>
     5f4:	0b3a0e03 	bleq	e83e08 <__bss_end__+0xe7a380>
     5f8:	19270b3b 	stmdbne	r7!, {r0, r1, r3, r4, r5, r8, r9, fp}
     5fc:	0000193c 	andeq	r1, r0, ip, lsr r9
     600:	01110100 	tsteq	r1, r0, lsl #2
     604:	0b130e25 	bleq	4c3ea0 <__bss_end__+0x4ba418>
     608:	0e1b0e03 	cdpeq	14, 1, cr0, cr11, cr3, {0}
     60c:	06120111 			; <UNDEFINED> instruction: 0x06120111
     610:	00001710 	andeq	r1, r0, r0, lsl r7
     614:	0b002402 	bleq	9624 <__FUNCTION__.4220+0x8>
     618:	030b3e0b 	movweq	r3, #48651	; 0xbe0b
     61c:	03000008 	movweq	r0, #8
     620:	0b0b0024 	bleq	2c06b8 <__bss_end__+0x2b6c30>
     624:	0e030b3e 	vmoveq.16	d3[0], r0
     628:	0f040000 	svceq	0x00040000
     62c:	490b0b00 	stmdbmi	fp, {r8, r9, fp}
     630:	05000013 	streq	r0, [r0, #-19]
     634:	13490026 	movtne	r0, #36902	; 0x9026
     638:	2e060000 	cdpcs	0, 0, cr0, cr6, cr0, {0}
     63c:	03193f01 	tsteq	r9, #1, 30
     640:	3b0b3a0e 	blcc	2cee80 <__bss_end__+0x2c53f8>
     644:	4919270b 	ldmdbmi	r9, {r0, r1, r3, r8, r9, sl, sp}
     648:	12011113 	andne	r1, r1, #-1073741820	; 0xc0000004
     64c:	96184006 	ldrls	r4, [r8], -r6
     650:	13011942 	movwne	r1, #6466	; 0x1942
     654:	05070000 	streq	r0, [r7, #-0]
     658:	3a080300 	bcc	201260 <__bss_end__+0x1f77d8>
     65c:	490b3b0b 	stmdbmi	fp, {r0, r1, r3, r8, r9, fp, ip, sp}
     660:	00170213 	andseq	r0, r7, r3, lsl r2
     664:	01150800 	tsteq	r5, r0, lsl #16
     668:	13491927 	movtne	r1, #39207	; 0x9927
     66c:	00001301 	andeq	r1, r0, r1, lsl #6
     670:	49000509 	stmdbmi	r0, {r0, r3, r8, sl}
     674:	0a000013 	beq	6c8 <__code_start__-0x7938>
     678:	0e030034 	mcreq	0, 0, r0, cr3, cr4, {1}
     67c:	0b3b0b3a 	bleq	ec336c <__bss_end__+0xeb98e4>
     680:	193f1349 	ldmdbne	pc!, {r0, r3, r6, r8, r9, ip}	; <UNPREDICTABLE>
     684:	0000193c 	andeq	r1, r0, ip, lsr r9
     688:	0300340b 	movweq	r3, #1035	; 0x40b
     68c:	3b0b3a0e 	blcc	2ceecc <__bss_end__+0x2c5444>
     690:	3f13490b 	svccc	0x0013490b
     694:	00180219 	andseq	r0, r8, r9, lsl r2
     698:	11010000 	mrsne	r0, (UNDEF: 1)
     69c:	130e2501 	movwne	r2, #58625	; 0xe501
     6a0:	1b0e030b 	blne	3812d4 <__bss_end__+0x37784c>
     6a4:	1201110e 	andne	r1, r1, #-2147483645	; 0x80000003
     6a8:	00171006 	andseq	r1, r7, r6
     6ac:	00240200 	eoreq	r0, r4, r0, lsl #4
     6b0:	0b3e0b0b 	bleq	f832e4 <__bss_end__+0xf7985c>
     6b4:	00000803 	andeq	r0, r0, r3, lsl #16
     6b8:	0b002403 	bleq	96cc <buf.4189+0x44>
     6bc:	030b3e0b 	movweq	r3, #48651	; 0xbe0b
     6c0:	0400000e 	streq	r0, [r0], #-14
     6c4:	0b0b000f 	bleq	2c0708 <__bss_end__+0x2b6c80>
     6c8:	0f050000 	svceq	0x00050000
     6cc:	490b0b00 	stmdbmi	fp, {r8, r9, fp}
     6d0:	06000013 			; <UNDEFINED> instruction: 0x06000013
     6d4:	13490026 	movtne	r0, #36902	; 0x9026
     6d8:	16070000 	strne	r0, [r7], -r0
     6dc:	3a0e0300 	bcc	3812e4 <__bss_end__+0x37785c>
     6e0:	490b3b0b 	stmdbmi	fp, {r0, r1, r3, r8, r9, fp, ip, sp}
     6e4:	08000013 	stmdaeq	r0, {r0, r1, r4}
     6e8:	0e030113 	mcreq	1, 0, r0, cr3, cr3, {0}
     6ec:	0b3a0b0b 	bleq	e83320 <__bss_end__+0xe79898>
     6f0:	13010b3b 	movwne	r0, #6971	; 0x1b3b
     6f4:	0d090000 	stceq	0, cr0, [r9, #-0]
     6f8:	490e0300 	stmdbmi	lr, {r8, r9}
     6fc:	340b3813 	strcc	r3, [fp], #-2067	; 0x813
     700:	0a000019 	beq	76c <__code_start__-0x7894>
     704:	0e03012e 	adfeqsp	f0, f3, #0.5
     708:	0b3b0b3a 	bleq	ec33f8 <__bss_end__+0xeb9970>
     70c:	13491927 	movtne	r1, #39207	; 0x9927
     710:	06120111 			; <UNDEFINED> instruction: 0x06120111
     714:	42971840 	addsmi	r1, r7, #64, 16	; 0x400000
     718:	00130119 	andseq	r0, r3, r9, lsl r1
     71c:	00050b00 	andeq	r0, r5, r0, lsl #22
     720:	0b3a0803 	bleq	e82734 <__bss_end__+0xe78cac>
     724:	13490b3b 	movtne	r0, #39739	; 0x9b3b
     728:	00001702 	andeq	r1, r0, r2, lsl #14
     72c:	03012e0c 	movweq	r2, #7692	; 0x1e0c
     730:	3b0b3a08 	blcc	2cef58 <__bss_end__+0x2c54d0>
     734:	4919270b 	ldmdbmi	r9, {r0, r1, r3, r8, r9, sl, sp}
     738:	12011113 	andne	r1, r1, #-1073741820	; 0xc0000004
     73c:	97184006 	ldrls	r4, [r8, -r6]
     740:	13011942 	movwne	r1, #6466	; 0x1942
     744:	050d0000 	streq	r0, [sp, #-0]
     748:	3a0e0300 	bcc	381350 <__bss_end__+0x3778c8>
     74c:	490b3b0b 	stmdbmi	fp, {r0, r1, r3, r8, r9, fp, ip, sp}
     750:	00170213 	andseq	r0, r7, r3, lsl r2
     754:	00050e00 	andeq	r0, r5, r0, lsl #28
     758:	0b3a0e03 	bleq	e83f6c <__bss_end__+0xe7a4e4>
     75c:	13490b3b 	movtne	r0, #39739	; 0x9b3b
     760:	00001802 	andeq	r1, r0, r2, lsl #16
     764:	0300340f 	movweq	r3, #1039	; 0x40f
     768:	3b0b3a08 	blcc	2cef90 <__bss_end__+0x2c5508>
     76c:	0213490b 	andseq	r4, r3, #180224	; 0x2c000
     770:	10000018 	andne	r0, r0, r8, lsl r0
     774:	08030034 	stmdaeq	r3, {r2, r4, r5}
     778:	0b3b0b3a 	bleq	ec3468 <__bss_end__+0xeb99e0>
     77c:	17021349 	strne	r1, [r2, -r9, asr #6]
     780:	34110000 	ldrcc	r0, [r1], #-0
     784:	490e0300 	stmdbmi	lr, {r8, r9}
     788:	02193413 	andseq	r3, r9, #318767104	; 0x13000000
     78c:	12000018 	andne	r0, r0, #24
     790:	0111010b 	tsteq	r1, fp, lsl #2
     794:	13010612 	movwne	r0, #5650	; 0x1612
     798:	34130000 	ldrcc	r0, [r3], #-0
     79c:	3a0e0300 	bcc	3813a4 <__bss_end__+0x37791c>
     7a0:	490b3b0b 	stmdbmi	fp, {r0, r1, r3, r8, r9, fp, ip, sp}
     7a4:	00170213 	andseq	r0, r7, r3, lsl r2
     7a8:	82891400 	addhi	r1, r9, #0, 8
     7ac:	01110001 	tsteq	r1, r1
     7b0:	00001331 	andeq	r1, r0, r1, lsr r3
     7b4:	01828915 	orreq	r8, r2, r5, lsl r9
     7b8:	31011101 	tstcc	r1, r1, lsl #2
     7bc:	00130113 	andseq	r0, r3, r3, lsl r1
     7c0:	828a1600 	addhi	r1, sl, #0, 12
     7c4:	18020001 	stmdane	r2, {r0}
     7c8:	00184291 	mulseq	r8, r1, r2
     7cc:	82891700 	addhi	r1, r9, #0, 14
     7d0:	01110101 	tsteq	r1, r1, lsl #2
     7d4:	00001331 	andeq	r1, r0, r1, lsr r3
     7d8:	49010118 	stmdbmi	r1, {r3, r4, r8}
     7dc:	00130113 	andseq	r0, r3, r3, lsl r1
     7e0:	00211900 	eoreq	r1, r1, r0, lsl #18
     7e4:	0b2f1349 	bleq	bc5510 <__bss_end__+0xbbba88>
     7e8:	2e1a0000 	cdpcs	0, 1, cr0, cr10, cr0, {0}
     7ec:	03193f01 	tsteq	r9, #1, 30
     7f0:	3b0b3a0e 	blcc	2cf030 <__bss_end__+0x2c55a8>
     7f4:	1119270b 	tstne	r9, fp, lsl #14
     7f8:	40061201 	andmi	r1, r6, r1, lsl #4
     7fc:	19429718 	stmdbne	r2, {r3, r4, r8, r9, sl, ip, pc}^
     800:	00001301 	andeq	r1, r0, r1, lsl #6
     804:	2701151b 	smladcs	r1, fp, r5, r1
     808:	01134919 	tsteq	r3, r9, lsl r9
     80c:	1c000013 	stcne	0, cr0, [r0], {19}
     810:	13490005 	movtne	r0, #36869	; 0x9005
     814:	2e1d0000 	cdpcs	0, 1, cr0, cr13, cr0, {0}
     818:	03193f01 	tsteq	r9, #1, 30
     81c:	3b0b3a0e 	blcc	2cf05c <__bss_end__+0x2c55d4>
     820:	4919270b 	ldmdbmi	r9, {r0, r1, r3, r8, r9, sl, sp}
     824:	12011113 	andne	r1, r1, #-1073741820	; 0xc0000004
     828:	97184006 	ldrls	r4, [r8, -r6]
     82c:	13011942 	movwne	r1, #6466	; 0x1942
     830:	0b1e0000 	bleq	780838 <__bss_end__+0x776db0>
     834:	12011101 	andne	r1, r1, #1073741824	; 0x40000000
     838:	1f000006 	svcne	0x00000006
     83c:	01018289 	smlabbeq	r1, r9, r2, r8
     840:	13010111 	movwne	r0, #4369	; 0x1111
     844:	34200000 	strtcc	r0, [r0], #-0
     848:	3a0e0300 	bcc	381450 <__bss_end__+0x3779c8>
     84c:	490b3b0b 	stmdbmi	fp, {r0, r1, r3, r8, r9, fp, ip, sp}
     850:	3c193f13 	ldccc	15, cr3, [r9], {19}
     854:	21000019 	tstcs	r0, r9, lsl r0
     858:	193f002e 	ldmdbne	pc!, {r1, r2, r3, r5}	; <UNPREDICTABLE>
     85c:	0b3a0e03 	bleq	e84070 <__bss_end__+0xe7a5e8>
     860:	19270b3b 	stmdbne	r7!, {r0, r1, r3, r4, r5, r8, r9, fp}
     864:	0000193c 	andeq	r1, r0, ip, lsr r9
     868:	3f012e22 	svccc	0x00012e22
     86c:	3a0e0319 	bcc	3814d8 <__bss_end__+0x377a50>
     870:	270b3b0b 	strcs	r3, [fp, -fp, lsl #22]
     874:	3c134919 	ldccc	9, cr4, [r3], {25}
     878:	00130119 	andseq	r0, r3, r9, lsl r1
     87c:	00182300 	andseq	r2, r8, r0, lsl #6
     880:	01000000 	mrseq	r0, (UNDEF: 0)
     884:	0e250111 	mcreq	1, 1, r0, cr5, cr1, {0}
     888:	0e030b13 	vmoveq.32	d3[0], r0
     88c:	01110e1b 	tsteq	r1, fp, lsl lr
     890:	17100612 			; <UNDEFINED> instruction: 0x17100612
     894:	24020000 	strcs	r0, [r2], #-0
     898:	3e0b0b00 	vmlacc.f64	d0, d11, d0
     89c:	0008030b 	andeq	r0, r8, fp, lsl #6
     8a0:	00240300 	eoreq	r0, r4, r0, lsl #6
     8a4:	0b3e0b0b 	bleq	f834d8 <__bss_end__+0xf79a50>
     8a8:	00000e03 	andeq	r0, r0, r3, lsl #28
     8ac:	0b000f04 	bleq	44c4 <__code_start__-0x3b3c>
     8b0:	0013490b 	andseq	r4, r3, fp, lsl #18
     8b4:	00260500 	eoreq	r0, r6, r0, lsl #10
     8b8:	00001349 	andeq	r1, r0, r9, asr #6
     8bc:	3f012e06 	svccc	0x00012e06
     8c0:	3a0e0319 	bcc	38152c <__bss_end__+0x377aa4>
     8c4:	270b3b0b 	strcs	r3, [fp, -fp, lsl #22]
     8c8:	12011119 	andne	r1, r1, #1073741830	; 0x40000006
     8cc:	97184006 	ldrls	r4, [r8, -r6]
     8d0:	13011942 	movwne	r1, #6466	; 0x1942
     8d4:	89070000 	stmdbhi	r7, {}	; <UNPREDICTABLE>
     8d8:	11000182 	smlabbne	r0, r2, r1, r0
     8dc:	00133101 	andseq	r3, r3, r1, lsl #2
     8e0:	82890800 	addhi	r0, r9, #0, 16
     8e4:	01110101 	tsteq	r1, r1, lsl #2
     8e8:	00001301 	andeq	r1, r0, r1, lsl #6
     8ec:	01828a09 	orreq	r8, r2, r9, lsl #20
     8f0:	91180200 	tstls	r8, r0, lsl #4
     8f4:	00001842 	andeq	r1, r0, r2, asr #16
     8f8:	0182890a 	orreq	r8, r2, sl, lsl #18
     8fc:	31011101 	tstcc	r1, r1, lsl #2
     900:	00130113 	andseq	r0, r3, r3, lsl r1
     904:	01150b00 	tsteq	r5, r0, lsl #22
     908:	13491927 	movtne	r1, #39207	; 0x9927
     90c:	00001301 	andeq	r1, r0, r1, lsl #6
     910:	4900050c 	stmdbmi	r0, {r2, r3, r8, sl}
     914:	0d000013 	stceq	0, cr0, [r0, #-76]	; 0xffffffb4
     918:	0e030034 	mcreq	0, 0, r0, cr3, cr4, {1}
     91c:	0b3b0b3a 	bleq	ec360c <__bss_end__+0xeb9b84>
     920:	193f1349 	ldmdbne	pc!, {r0, r3, r6, r8, r9, ip}	; <UNPREDICTABLE>
     924:	0000193c 	andeq	r1, r0, ip, lsr r9
     928:	3f002e0e 	svccc	0x00002e0e
     92c:	3a0e0319 	bcc	381598 <__bss_end__+0x377b10>
     930:	270b3b0b 	strcs	r3, [fp, -fp, lsl #22]
     934:	00193c19 	andseq	r3, r9, r9, lsl ip
     938:	012e0f00 	teqeq	lr, r0, lsl #30
     93c:	0e03193f 	mcreq	9, 0, r1, cr3, cr15, {1}
     940:	0b3b0b3a 	bleq	ec3630 <__bss_end__+0xeb9ba8>
     944:	193c1927 	ldmdbne	ip!, {r0, r1, r2, r5, r8, fp, ip}
     948:	00001301 	andeq	r1, r0, r1, lsl #6
     94c:	01110100 	tsteq	r1, r0, lsl #2
     950:	0b130e25 	bleq	4c41ec <__bss_end__+0x4ba764>
     954:	0e1b0e03 	cdpeq	14, 1, cr0, cr11, cr3, {0}
     958:	06120111 			; <UNDEFINED> instruction: 0x06120111
     95c:	00001710 	andeq	r1, r0, r0, lsl r7
     960:	0b002402 	bleq	9970 <buf.4189+0x2e8>
     964:	030b3e0b 	movweq	r3, #48651	; 0xbe0b
     968:	03000008 	movweq	r0, #8
     96c:	0b0b0024 	bleq	2c0a04 <__bss_end__+0x2b6f7c>
     970:	0e030b3e 	vmoveq.16	d3[0], r0
     974:	2e040000 	cdpcs	0, 0, cr0, cr4, cr0, {0}
     978:	03193f01 	tsteq	r9, #1, 30
     97c:	3b0b3a0e 	blcc	2cf1bc <__bss_end__+0x2c5734>
     980:	1201110b 	andne	r1, r1, #-1073741822	; 0xc0000002
     984:	97184006 	ldrls	r4, [r8, -r6]
     988:	13011942 	movwne	r1, #6466	; 0x1942
     98c:	34050000 	strcc	r0, [r5], #-0
     990:	3a0e0300 	bcc	381598 <__bss_end__+0x377b10>
     994:	490b3b0b 	stmdbmi	fp, {r0, r1, r3, r8, r9, fp, ip, sp}
     998:	3c193f13 	ldccc	15, cr3, [r9], {19}
     99c:	06000019 			; <UNDEFINED> instruction: 0x06000019
     9a0:	193f002e 	ldmdbne	pc!, {r1, r2, r3, r5}	; <UNPREDICTABLE>
     9a4:	0b3a0e03 	bleq	e841b8 <__bss_end__+0xe7a730>
     9a8:	19270b3b 	stmdbne	r7!, {r0, r1, r3, r4, r5, r8, r9, fp}
     9ac:	0000193c 	andeq	r1, r0, ip, lsr r9
     9b0:	03003407 	movweq	r3, #1031	; 0x407
     9b4:	3b0b3a08 	blcc	2cf1dc <__bss_end__+0x2c5754>
     9b8:	0213490b 	andseq	r4, r3, #180224	; 0x2c000
     9bc:	08000017 	stmdaeq	r0, {r0, r1, r2, r4}
     9c0:	0e030034 	mcreq	0, 0, r0, cr3, cr4, {1}
     9c4:	0b3b0b3a 	bleq	ec36b4 <__bss_end__+0xeb9c2c>
     9c8:	00001349 	andeq	r1, r0, r9, asr #6
     9cc:	01828909 	orreq	r8, r2, r9, lsl #18
     9d0:	31011100 	mrscc	r1, (UNDEF: 17)
     9d4:	0a000013 	beq	a28 <__code_start__-0x75d8>
     9d8:	0b0b000f 	bleq	2c0a1c <__bss_end__+0x2b6f94>
     9dc:	00001349 	andeq	r1, r0, r9, asr #6
     9e0:	01110100 	tsteq	r1, r0, lsl #2
     9e4:	0b130e25 	bleq	4c4280 <__bss_end__+0x4ba7f8>
     9e8:	0e1b0e03 	cdpeq	14, 1, cr0, cr11, cr3, {0}
     9ec:	06120111 			; <UNDEFINED> instruction: 0x06120111
     9f0:	00001710 	andeq	r1, r0, r0, lsl r7
     9f4:	0b002402 	bleq	9a04 <buf.4189+0x37c>
     9f8:	030b3e0b 	movweq	r3, #48651	; 0xbe0b
     9fc:	03000008 	movweq	r0, #8
     a00:	0b0b0024 	bleq	2c0a98 <__bss_end__+0x2b7010>
     a04:	0e030b3e 	vmoveq.16	d3[0], r0
     a08:	0f040000 	svceq	0x00040000
     a0c:	490b0b00 	stmdbmi	fp, {r8, r9, fp}
     a10:	05000013 	streq	r0, [r0, #-19]
     a14:	13490026 	movtne	r0, #36902	; 0x9026
     a18:	2e060000 	cdpcs	0, 0, cr0, cr6, cr0, {0}
     a1c:	03193f01 	tsteq	r9, #1, 30
     a20:	3b0b3a0e 	blcc	2cf260 <__bss_end__+0x2c57d8>
     a24:	1119270b 	tstne	r9, fp, lsl #14
     a28:	40061201 	andmi	r1, r6, r1, lsl #4
     a2c:	19429718 	stmdbne	r2, {r3, r4, r8, r9, sl, ip, pc}^
     a30:	00001301 	andeq	r1, r0, r1, lsl #6
     a34:	03000507 	movweq	r0, #1287	; 0x507
     a38:	3b0b3a08 	blcc	2cf260 <__bss_end__+0x2c57d8>
     a3c:	0213490b 	andseq	r4, r3, #180224	; 0x2c000
     a40:	08000017 	stmdaeq	r0, {r0, r1, r2, r4}
     a44:	0e030034 	mcreq	0, 0, r0, cr3, cr4, {1}
     a48:	19341349 	ldmdbne	r4!, {r0, r3, r6, r8, r9, ip}
     a4c:	00001802 	andeq	r1, r0, r2, lsl #16
     a50:	01828909 	orreq	r8, r2, r9, lsl #18
     a54:	31011100 	mrscc	r1, (UNDEF: 17)
     a58:	0a000013 	beq	aac <__code_start__-0x7554>
     a5c:	01018289 	smlabbeq	r1, r9, r2, r8
     a60:	13310111 	teqne	r1, #1073741828	; 0x40000004
     a64:	00001301 	andeq	r1, r0, r1, lsl #6
     a68:	01828a0b 	orreq	r8, r2, fp, lsl #20
     a6c:	91180200 	tstls	r8, r0, lsl #4
     a70:	00001842 	andeq	r1, r0, r2, asr #16
     a74:	4901010c 	stmdbmi	r1, {r2, r3, r8}
     a78:	00130113 	andseq	r0, r3, r3, lsl r1
     a7c:	00210d00 	eoreq	r0, r1, r0, lsl #26
     a80:	0b2f1349 	bleq	bc57ac <__bss_end__+0xbbbd24>
     a84:	2e0e0000 	cdpcs	0, 0, cr0, cr14, cr0, {0}
     a88:	03193f00 	tsteq	r9, #0, 30
     a8c:	3b0b3a0e 	blcc	2cf2cc <__bss_end__+0x2c5844>
     a90:	3c19270b 	ldccc	7, cr2, [r9], {11}
     a94:	0f000019 	svceq	0x00000019
     a98:	193f012e 	ldmdbne	pc!, {r1, r2, r3, r5, r8}	; <UNPREDICTABLE>
     a9c:	0b3a0e03 	bleq	e842b0 <__bss_end__+0xe7a828>
     aa0:	19270b3b 	stmdbne	r7!, {r0, r1, r3, r4, r5, r8, r9, fp}
     aa4:	193c1349 	ldmdbne	ip!, {r0, r3, r6, r8, r9, ip}
     aa8:	00001301 	andeq	r1, r0, r1, lsl #6
     aac:	49000510 	stmdbmi	r0, {r4, r8, sl}
     ab0:	11000013 	tstne	r0, r3, lsl r0
     ab4:	00000018 	andeq	r0, r0, r8, lsl r0
     ab8:	01110100 	tsteq	r1, r0, lsl #2
     abc:	0b130e25 	bleq	4c4358 <__bss_end__+0x4ba8d0>
     ac0:	0e1b0e03 	cdpeq	14, 1, cr0, cr11, cr3, {0}
     ac4:	06120111 			; <UNDEFINED> instruction: 0x06120111
     ac8:	00001710 	andeq	r1, r0, r0, lsl r7
     acc:	0b002402 	bleq	9adc <__bss_end__+0x54>
     ad0:	030b3e0b 	movweq	r3, #48651	; 0xbe0b
     ad4:	03000008 	movweq	r0, #8
     ad8:	0b0b0024 	bleq	2c0b70 <__bss_end__+0x2b70e8>
     adc:	0e030b3e 	vmoveq.16	d3[0], r0
     ae0:	0f040000 	svceq	0x00040000
     ae4:	490b0b00 	stmdbmi	fp, {r8, r9, fp}
     ae8:	05000013 	streq	r0, [r0, #-19]
     aec:	13490026 	movtne	r0, #36902	; 0x9026
     af0:	2e060000 	cdpcs	0, 0, cr0, cr6, cr0, {0}
     af4:	03193f01 	tsteq	r9, #1, 30
     af8:	3b0b3a0e 	blcc	2cf338 <__bss_end__+0x2c58b0>
     afc:	1119270b 	tstne	r9, fp, lsl #14
     b00:	40061201 	andmi	r1, r6, r1, lsl #4
     b04:	19429718 	stmdbne	r2, {r3, r4, r8, r9, sl, ip, pc}^
     b08:	00001301 	andeq	r1, r0, r1, lsl #6
     b0c:	03000507 	movweq	r0, #1287	; 0x507
     b10:	3b0b3a08 	blcc	2cf338 <__bss_end__+0x2c58b0>
     b14:	0213490b 	andseq	r4, r3, #180224	; 0x2c000
     b18:	08000017 	stmdaeq	r0, {r0, r1, r2, r4}
     b1c:	0e030034 	mcreq	0, 0, r0, cr3, cr4, {1}
     b20:	19341349 	ldmdbne	r4!, {r0, r3, r6, r8, r9, ip}
     b24:	00001802 	andeq	r1, r0, r2, lsl #16
     b28:	01828909 	orreq	r8, r2, r9, lsl #18
     b2c:	31011100 	mrscc	r1, (UNDEF: 17)
     b30:	0a000013 	beq	b84 <__code_start__-0x747c>
     b34:	01018289 	smlabbeq	r1, r9, r2, r8
     b38:	13310111 	teqne	r1, #1073741828	; 0x40000004
     b3c:	00001301 	andeq	r1, r0, r1, lsl #6
     b40:	01828a0b 	orreq	r8, r2, fp, lsl #20
     b44:	91180200 	tstls	r8, r0, lsl #4
     b48:	00001842 	andeq	r1, r0, r2, asr #16
     b4c:	4901010c 	stmdbmi	r1, {r2, r3, r8}
     b50:	00130113 	andseq	r0, r3, r3, lsl r1
     b54:	00210d00 	eoreq	r0, r1, r0, lsl #26
     b58:	0b2f1349 	bleq	bc5884 <__bss_end__+0xbbbdfc>
     b5c:	2e0e0000 	cdpcs	0, 0, cr0, cr14, cr0, {0}
     b60:	03193f00 	tsteq	r9, #0, 30
     b64:	3b0b3a0e 	blcc	2cf3a4 <__bss_end__+0x2c591c>
     b68:	3c19270b 	ldccc	7, cr2, [r9], {11}
     b6c:	0f000019 	svceq	0x00000019
     b70:	193f012e 	ldmdbne	pc!, {r1, r2, r3, r5, r8}	; <UNPREDICTABLE>
     b74:	0b3a0e03 	bleq	e84388 <__bss_end__+0xe7a900>
     b78:	19270b3b 	stmdbne	r7!, {r0, r1, r3, r4, r5, r8, r9, fp}
     b7c:	193c1349 	ldmdbne	ip!, {r0, r3, r6, r8, r9, ip}
     b80:	00001301 	andeq	r1, r0, r1, lsl #6
     b84:	49000510 	stmdbmi	r0, {r4, r8, sl}
     b88:	11000013 	tstne	r0, r3, lsl r0
     b8c:	00000018 	andeq	r0, r0, r8, lsl r0
     b90:	01110100 	tsteq	r1, r0, lsl #2
     b94:	0b130e25 	bleq	4c4430 <__bss_end__+0x4ba9a8>
     b98:	0e1b0e03 	cdpeq	14, 1, cr0, cr11, cr3, {0}
     b9c:	06120111 			; <UNDEFINED> instruction: 0x06120111
     ba0:	00001710 	andeq	r1, r0, r0, lsl r7
     ba4:	0b002402 	bleq	9bb4 <__bss_end__+0x12c>
     ba8:	030b3e0b 	movweq	r3, #48651	; 0xbe0b
     bac:	03000008 	movweq	r0, #8
     bb0:	0b0b0024 	bleq	2c0c48 <__bss_end__+0x2b71c0>
     bb4:	0e030b3e 	vmoveq.16	d3[0], r0
     bb8:	0f040000 	svceq	0x00040000
     bbc:	490b0b00 	stmdbmi	fp, {r8, r9, fp}
     bc0:	05000013 	streq	r0, [r0, #-19]
     bc4:	13490026 	movtne	r0, #36902	; 0x9026
     bc8:	01060000 	mrseq	r0, (UNDEF: 6)
     bcc:	01134901 	tsteq	r3, r1, lsl #18
     bd0:	07000013 	smladeq	r0, r3, r0, r0
     bd4:	13490021 	movtne	r0, #36897	; 0x9021
     bd8:	00000b2f 	andeq	r0, r0, pc, lsr #22
     bdc:	3f012e08 	svccc	0x00012e08
     be0:	3a0e0319 	bcc	38184c <__bss_end__+0x377dc4>
     be4:	270b3b0b 	strcs	r3, [fp, -fp, lsl #22]
     be8:	12011119 	andne	r1, r1, #1073741830	; 0x40000006
     bec:	97184006 	ldrls	r4, [r8, -r6]
     bf0:	13011942 	movwne	r1, #6466	; 0x1942
     bf4:	05090000 	streq	r0, [r9, #-0]
     bf8:	3a080300 	bcc	201800 <__bss_end__+0x1f7d78>
     bfc:	490b3b0b 	stmdbmi	fp, {r0, r1, r3, r8, r9, fp, ip, sp}
     c00:	00170213 	andseq	r0, r7, r3, lsl r2
     c04:	00340a00 	eorseq	r0, r4, r0, lsl #20
     c08:	13490e03 	movtne	r0, #40451	; 0x9e03
     c0c:	18021934 	stmdane	r2, {r2, r4, r5, r8, fp, ip}
     c10:	890b0000 	stmdbhi	fp, {}	; <UNPREDICTABLE>
     c14:	11000182 	smlabbne	r0, r2, r1, r0
     c18:	00133101 	andseq	r3, r3, r1, lsl #2
     c1c:	82890c00 	addhi	r0, r9, #0, 24
     c20:	01110101 	tsteq	r1, r1, lsl #2
     c24:	13011331 	movwne	r1, #4913	; 0x1331
     c28:	8a0d0000 	bhi	340c30 <__bss_end__+0x3371a8>
     c2c:	02000182 	andeq	r0, r0, #-2147483616	; 0x80000020
     c30:	18429118 	stmdane	r2, {r3, r4, r8, ip, pc}^
     c34:	2e0e0000 	cdpcs	0, 0, cr0, cr14, cr0, {0}
     c38:	03193f00 	tsteq	r9, #0, 30
     c3c:	3b0b3a0e 	blcc	2cf47c <__bss_end__+0x2c59f4>
     c40:	3c19270b 	ldccc	7, cr2, [r9], {11}
     c44:	0f000019 	svceq	0x00000019
     c48:	193f012e 	ldmdbne	pc!, {r1, r2, r3, r5, r8}	; <UNPREDICTABLE>
     c4c:	0b3a0e03 	bleq	e84460 <__bss_end__+0xe7a9d8>
     c50:	19270b3b 	stmdbne	r7!, {r0, r1, r3, r4, r5, r8, r9, fp}
     c54:	193c1349 	ldmdbne	ip!, {r0, r3, r6, r8, r9, ip}
     c58:	00001301 	andeq	r1, r0, r1, lsl #6
     c5c:	49000510 	stmdbmi	r0, {r4, r8, sl}
     c60:	11000013 	tstne	r0, r3, lsl r0
     c64:	00000018 	andeq	r0, r0, r8, lsl r0
     c68:	01110100 	tsteq	r1, r0, lsl #2
     c6c:	0b130e25 	bleq	4c4508 <__bss_end__+0x4baa80>
     c70:	0e1b0e03 	cdpeq	14, 1, cr0, cr11, cr3, {0}
     c74:	06120111 			; <UNDEFINED> instruction: 0x06120111
     c78:	00001710 	andeq	r1, r0, r0, lsl r7
     c7c:	0b002402 	bleq	9c8c <__bss_end__+0x204>
     c80:	030b3e0b 	movweq	r3, #48651	; 0xbe0b
     c84:	03000008 	movweq	r0, #8
     c88:	0b0b0024 	bleq	2c0d20 <__bss_end__+0x2b7298>
     c8c:	0e030b3e 	vmoveq.16	d3[0], r0
     c90:	0f040000 	svceq	0x00040000
     c94:	490b0b00 	stmdbmi	fp, {r8, r9, fp}
     c98:	05000013 	streq	r0, [r0, #-19]
     c9c:	13490026 	movtne	r0, #36902	; 0x9026
     ca0:	2e060000 	cdpcs	0, 0, cr0, cr6, cr0, {0}
     ca4:	03193f01 	tsteq	r9, #1, 30
     ca8:	3b0b3a0e 	blcc	2cf4e8 <__bss_end__+0x2c5a60>
     cac:	1119270b 	tstne	r9, fp, lsl #14
     cb0:	40061201 	andmi	r1, r6, r1, lsl #4
     cb4:	19429718 	stmdbne	r2, {r3, r4, r8, r9, sl, ip, pc}^
     cb8:	00001301 	andeq	r1, r0, r1, lsl #6
     cbc:	03000507 	movweq	r0, #1287	; 0x507
     cc0:	3b0b3a08 	blcc	2cf4e8 <__bss_end__+0x2c5a60>
     cc4:	0213490b 	andseq	r4, r3, #180224	; 0x2c000
     cc8:	08000017 	stmdaeq	r0, {r0, r1, r2, r4}
     ccc:	0e030034 	mcreq	0, 0, r0, cr3, cr4, {1}
     cd0:	19341349 	ldmdbne	r4!, {r0, r3, r6, r8, r9, ip}
     cd4:	00001802 	andeq	r1, r0, r2, lsl #16
     cd8:	01828909 	orreq	r8, r2, r9, lsl #18
     cdc:	31011100 	mrscc	r1, (UNDEF: 17)
     ce0:	0a000013 	beq	d34 <__code_start__-0x72cc>
     ce4:	01018289 	smlabbeq	r1, r9, r2, r8
     ce8:	13310111 	teqne	r1, #1073741828	; 0x40000004
     cec:	00001301 	andeq	r1, r0, r1, lsl #6
     cf0:	01828a0b 	orreq	r8, r2, fp, lsl #20
     cf4:	91180200 	tstls	r8, r0, lsl #4
     cf8:	00001842 	andeq	r1, r0, r2, asr #16
     cfc:	4901010c 	stmdbmi	r1, {r2, r3, r8}
     d00:	00130113 	andseq	r0, r3, r3, lsl r1
     d04:	00210d00 	eoreq	r0, r1, r0, lsl #26
     d08:	0b2f1349 	bleq	bc5a34 <__bss_end__+0xbbbfac>
     d0c:	2e0e0000 	cdpcs	0, 0, cr0, cr14, cr0, {0}
     d10:	03193f00 	tsteq	r9, #0, 30
     d14:	3b0b3a0e 	blcc	2cf554 <__bss_end__+0x2c5acc>
     d18:	3c19270b 	ldccc	7, cr2, [r9], {11}
     d1c:	0f000019 	svceq	0x00000019
     d20:	193f012e 	ldmdbne	pc!, {r1, r2, r3, r5, r8}	; <UNPREDICTABLE>
     d24:	0b3a0e03 	bleq	e84538 <__bss_end__+0xe7aab0>
     d28:	19270b3b 	stmdbne	r7!, {r0, r1, r3, r4, r5, r8, r9, fp}
     d2c:	193c1349 	ldmdbne	ip!, {r0, r3, r6, r8, r9, ip}
     d30:	00001301 	andeq	r1, r0, r1, lsl #6
     d34:	49000510 	stmdbmi	r0, {r4, r8, sl}
     d38:	11000013 	tstne	r0, r3, lsl r0
     d3c:	00000018 	andeq	r0, r0, r8, lsl r0
     d40:	01110100 	tsteq	r1, r0, lsl #2
     d44:	0b130e25 	bleq	4c45e0 <__bss_end__+0x4bab58>
     d48:	0e1b0e03 	cdpeq	14, 1, cr0, cr11, cr3, {0}
     d4c:	06120111 			; <UNDEFINED> instruction: 0x06120111
     d50:	00001710 	andeq	r1, r0, r0, lsl r7
     d54:	0b002402 	bleq	9d64 <__bss_end__+0x2dc>
     d58:	030b3e0b 	movweq	r3, #48651	; 0xbe0b
     d5c:	03000008 	movweq	r0, #8
     d60:	0b0b0024 	bleq	2c0df8 <__bss_end__+0x2b7370>
     d64:	0e030b3e 	vmoveq.16	d3[0], r0
     d68:	2e040000 	cdpcs	0, 0, cr0, cr4, cr0, {0}
     d6c:	03193f00 	tsteq	r9, #0, 30
     d70:	3b0b3a0e 	blcc	2cf5b0 <__bss_end__+0x2c5b28>
     d74:	1119270b 	tstne	r9, fp, lsl #14
     d78:	40061201 	andmi	r1, r6, r1, lsl #4
     d7c:	19429718 	stmdbne	r2, {r3, r4, r8, r9, sl, ip, pc}^
     d80:	01000000 	mrseq	r0, (UNDEF: 0)
     d84:	0e250111 	mcreq	1, 1, r0, cr5, cr1, {0}
     d88:	0e030b13 	vmoveq.32	d3[0], r0
     d8c:	01110e1b 	tsteq	r1, fp, lsl lr
     d90:	17100612 			; <UNDEFINED> instruction: 0x17100612
     d94:	24020000 	strcs	r0, [r2], #-0
     d98:	3e0b0b00 	vmlacc.f64	d0, d11, d0
     d9c:	0008030b 	andeq	r0, r8, fp, lsl #6
     da0:	00240300 	eoreq	r0, r4, r0, lsl #6
     da4:	0b3e0b0b 	bleq	f839d8 <__bss_end__+0xf79f50>
     da8:	00000e03 	andeq	r0, r0, r3, lsl #28
     dac:	0b010404 	bleq	41dc4 <__bss_end__+0x3833c>
     db0:	3b0b3a0b 	blcc	2cf5e4 <__bss_end__+0x2c5b5c>
     db4:	0013010b 	andseq	r0, r3, fp, lsl #2
     db8:	00280500 	eoreq	r0, r8, r0, lsl #10
     dbc:	0d1c0e03 	ldceq	14, cr0, [ip, #-12]
     dc0:	2e060000 	cdpcs	0, 0, cr0, cr6, cr0, {0}
     dc4:	03193f01 	tsteq	r9, #1, 30
     dc8:	3b0b3a0e 	blcc	2cf608 <__bss_end__+0x2c5b80>
     dcc:	1119270b 	tstne	r9, fp, lsl #14
     dd0:	40061201 	andmi	r1, r6, r1, lsl #4
     dd4:	19429718 	stmdbne	r2, {r3, r4, r8, r9, sl, ip, pc}^
     dd8:	00001301 	andeq	r1, r0, r1, lsl #6
     ddc:	03003407 	movweq	r3, #1031	; 0x407
     de0:	3b0b3a0e 	blcc	2cf620 <__bss_end__+0x2c5b98>
     de4:	3f13490b 	svccc	0x0013490b
     de8:	00193c19 	andseq	r3, r9, r9, lsl ip
     dec:	00340800 	eorseq	r0, r4, r0, lsl #16
     df0:	0b3a0803 	bleq	e82e04 <__bss_end__+0xe7937c>
     df4:	13490b3b 	movtne	r0, #39739	; 0x9b3b
     df8:	00000b1c 	andeq	r0, r0, ip, lsl fp
     dfc:	03003409 	movweq	r3, #1033	; 0x409
     e00:	3b0b3a08 	blcc	2cf628 <__bss_end__+0x2c5ba0>
     e04:	0013490b 	andseq	r4, r3, fp, lsl #18
     e08:	00340a00 	eorseq	r0, r4, r0, lsl #20
     e0c:	0b3a0803 	bleq	e82e20 <__bss_end__+0xe79398>
     e10:	13490b3b 	movtne	r0, #39739	; 0x9b3b
     e14:	00001802 	andeq	r1, r0, r2, lsl #16
     e18:	11010b0b 	tstne	r1, fp, lsl #22
     e1c:	01061201 	tsteq	r6, r1, lsl #4
     e20:	0c000013 	stceq	0, cr0, [r0], {19}
     e24:	08030034 	stmdaeq	r3, {r2, r4, r5}
     e28:	0b3b0b3a 	bleq	ec3b18 <__bss_end__+0xeba090>
     e2c:	17021349 	strne	r1, [r2, -r9, asr #6]
     e30:	890d0000 	stmdbhi	sp, {}	; <UNPREDICTABLE>
     e34:	11000182 	smlabbne	r0, r2, r1, r0
     e38:	00133101 	andseq	r3, r3, r1, lsl #2
     e3c:	82890e00 	addhi	r0, r9, #0, 28
     e40:	01110101 	tsteq	r1, r1, lsl #2
     e44:	13011331 	movwne	r1, #4913	; 0x1331
     e48:	8a0f0000 	bhi	3c0e50 <__bss_end__+0x3b73c8>
     e4c:	02000182 	andeq	r0, r0, #-2147483616	; 0x80000020
     e50:	18429118 	stmdane	r2, {r3, r4, r8, ip, pc}^
     e54:	0f100000 	svceq	0x00100000
     e58:	490b0b00 	stmdbmi	fp, {r8, r9, fp}
     e5c:	11000013 	tstne	r0, r3, lsl r0
     e60:	193f002e 	ldmdbne	pc!, {r1, r2, r3, r5}	; <UNPREDICTABLE>
     e64:	0b3a0e03 	bleq	e84678 <__bss_end__+0xe7abf0>
     e68:	19270b3b 	stmdbne	r7!, {r0, r1, r3, r4, r5, r8, r9, fp}
     e6c:	0000193c 	andeq	r1, r0, ip, lsr r9
     e70:	3f012e12 	svccc	0x00012e12
     e74:	3a0e0319 	bcc	381ae0 <__bss_end__+0x378058>
     e78:	270b3b0b 	strcs	r3, [fp, -fp, lsl #22]
     e7c:	00193c19 	andseq	r3, r9, r9, lsl ip
     e80:	00051300 	andeq	r1, r5, r0, lsl #6
     e84:	00001349 	andeq	r1, r0, r9, asr #6
     e88:	01110100 	tsteq	r1, r0, lsl #2
     e8c:	0b130e25 	bleq	4c4728 <__bss_end__+0x4baca0>
     e90:	0e1b0e03 	cdpeq	14, 1, cr0, cr11, cr3, {0}
     e94:	01111755 	tsteq	r1, r5, asr r7
     e98:	00001710 	andeq	r1, r0, r0, lsl r7
     e9c:	0b002402 	bleq	9eac <__bss_end__+0x424>
     ea0:	030b3e0b 	movweq	r3, #48651	; 0xbe0b
     ea4:	03000008 	movweq	r0, #8
     ea8:	0b0b0024 	bleq	2c0f40 <__bss_end__+0x2b74b8>
     eac:	0e030b3e 	vmoveq.16	d3[0], r0
     eb0:	2e040000 	cdpcs	0, 0, cr0, cr4, cr0, {0}
     eb4:	03193f01 	tsteq	r9, #1, 30
     eb8:	3b0b3a0e 	blcc	2cf6f8 <__bss_end__+0x2c5c70>
     ebc:	4919270b 	ldmdbmi	r9, {r0, r1, r3, r8, r9, sl, sp}
     ec0:	12011113 	andne	r1, r1, #-1073741820	; 0xc0000004
     ec4:	97184006 	ldrls	r4, [r8, -r6]
     ec8:	13011942 	movwne	r1, #6466	; 0x1942
     ecc:	34050000 	strcc	r0, [r5], #-0
     ed0:	3a0e0300 	bcc	381ad8 <__bss_end__+0x378050>
     ed4:	490b3b0b 	stmdbmi	fp, {r0, r1, r3, r8, r9, fp, ip, sp}
     ed8:	00170213 	andseq	r0, r7, r3, lsl r2
     edc:	012e0600 	teqeq	lr, r0, lsl #12
     ee0:	0e03193f 	mcreq	9, 0, r1, cr3, cr15, {1}
     ee4:	0b3b0b3a 	bleq	ec3bd4 <__bss_end__+0xeba14c>
     ee8:	01111927 	tsteq	r1, r7, lsr #18
     eec:	18400612 	stmdane	r0, {r1, r4, r9, sl}^
     ef0:	01194297 			; <UNDEFINED> instruction: 0x01194297
     ef4:	07000013 	smladeq	r0, r3, r0, r0
     ef8:	0e030034 	mcreq	0, 0, r0, cr3, cr4, {1}
     efc:	0b3b0b3a 	bleq	ec3bec <__bss_end__+0xeba164>
     f00:	061c1349 	ldreq	r1, [ip], -r9, asr #6
     f04:	34080000 	strcc	r0, [r8], #-0
     f08:	3a0e0300 	bcc	381b10 <__bss_end__+0x378088>
     f0c:	490b3b0b 	stmdbmi	fp, {r0, r1, r3, r8, r9, fp, ip, sp}
     f10:	000b1c13 	andeq	r1, fp, r3, lsl ip
     f14:	82890900 	addhi	r0, r9, #0, 18
     f18:	01110001 	tsteq	r1, r1
     f1c:	00001331 	andeq	r1, r0, r1, lsr r3
     f20:	0182890a 	orreq	r8, r2, sl, lsl #18
     f24:	31011101 	tstcc	r1, r1, lsl #2
     f28:	00130113 	andseq	r0, r3, r3, lsl r1
     f2c:	828a0b00 	addhi	r0, sl, #0, 22
     f30:	18020001 	stmdane	r2, {r0}
     f34:	00184291 	mulseq	r8, r1, r2
     f38:	82890c00 	addhi	r0, r9, #0, 24
     f3c:	01110101 	tsteq	r1, r1, lsl #2
     f40:	00001331 	andeq	r1, r0, r1, lsr r3
     f44:	4900260d 	stmdbmi	r0, {r0, r2, r3, r9, sl, sp}
     f48:	0e000013 	mcreq	0, 0, r0, cr0, cr3, {0}
     f4c:	193f012e 	ldmdbne	pc!, {r1, r2, r3, r5, r8}	; <UNPREDICTABLE>
     f50:	0b3a0e03 	bleq	e84764 <__bss_end__+0xe7acdc>
     f54:	19270b3b 	stmdbne	r7!, {r0, r1, r3, r4, r5, r8, r9, fp}
     f58:	1301193c 	movwne	r1, #6460	; 0x193c
     f5c:	050f0000 	streq	r0, [pc, #-0]	; f64 <__code_start__-0x709c>
     f60:	00134900 	andseq	r4, r3, r0, lsl #18
     f64:	012e1000 	teqeq	lr, r0
     f68:	0e03193f 	mcreq	9, 0, r1, cr3, cr15, {1}
     f6c:	0b3b0b3a 	bleq	ec3c5c <__bss_end__+0xeba1d4>
     f70:	193c1927 	ldmdbne	ip!, {r0, r1, r2, r5, r8, fp, ip}
     f74:	01000000 	mrseq	r0, (UNDEF: 0)
     f78:	0e250111 	mcreq	1, 1, r0, cr5, cr1, {0}
     f7c:	0e030b13 	vmoveq.32	d3[0], r0
     f80:	01110e1b 	tsteq	r1, fp, lsl lr
     f84:	17100612 			; <UNDEFINED> instruction: 0x17100612
     f88:	24020000 	strcs	r0, [r2], #-0
     f8c:	3e0b0b00 	vmlacc.f64	d0, d11, d0
     f90:	0008030b 	andeq	r0, r8, fp, lsl #6
     f94:	00240300 	eoreq	r0, r4, r0, lsl #6
     f98:	0b3e0b0b 	bleq	f83bcc <__bss_end__+0xf7a144>
     f9c:	00000e03 	andeq	r0, r0, r3, lsl #28
     fa0:	3f012e04 	svccc	0x00012e04
     fa4:	3a0e0319 	bcc	381c10 <__bss_end__+0x378188>
     fa8:	270b3b0b 	strcs	r3, [fp, -fp, lsl #22]
     fac:	12011119 	andne	r1, r1, #1073741830	; 0x40000006
     fb0:	97184006 	ldrls	r4, [r8, -r6]
     fb4:	13011942 	movwne	r1, #6466	; 0x1942
     fb8:	05050000 	streq	r0, [r5, #-0]
     fbc:	3a0e0300 	bcc	381bc4 <__bss_end__+0x37813c>
     fc0:	490b3b0b 	stmdbmi	fp, {r0, r1, r3, r8, r9, fp, ip, sp}
     fc4:	00170213 	andseq	r0, r7, r3, lsl r2
     fc8:	012e0600 	teqeq	lr, r0, lsl #12
     fcc:	0e03193f 	mcreq	9, 0, r1, cr3, cr15, {1}
     fd0:	0b3b0b3a 	bleq	ec3cc0 <__bss_end__+0xeba238>
     fd4:	13491927 	movtne	r1, #39207	; 0x9927
     fd8:	06120111 			; <UNDEFINED> instruction: 0x06120111
     fdc:	42971840 	addsmi	r1, r7, #64, 16	; 0x400000
     fe0:	00130119 	andseq	r0, r3, r9, lsl r1
     fe4:	82890700 	addhi	r0, r9, #0, 14
     fe8:	01110101 	tsteq	r1, r1, lsl #2
     fec:	00001331 	andeq	r1, r0, r1, lsr r3
     ff0:	01828a08 	orreq	r8, r2, r8, lsl #20
     ff4:	91180200 	tstls	r8, r0, lsl #4
     ff8:	00001842 	andeq	r1, r0, r2, asr #16
     ffc:	03003409 	movweq	r3, #1033	; 0x409
    1000:	3b0b3a08 	blcc	2cf828 <__bss_end__+0x2c5da0>
    1004:	0213490b 	andseq	r4, r3, #180224	; 0x2c000
    1008:	0a000017 	beq	106c <__code_start__-0x6f94>
    100c:	00018289 	andeq	r8, r1, r9, lsl #5
    1010:	13310111 	teqne	r1, #1073741828	; 0x40000004
    1014:	050b0000 	streq	r0, [fp, #-0]
    1018:	3a080300 	bcc	201c20 <__bss_end__+0x1f8198>
    101c:	490b3b0b 	stmdbmi	fp, {r0, r1, r3, r8, r9, fp, ip, sp}
    1020:	00170213 	andseq	r0, r7, r3, lsl r2
    1024:	00340c00 	eorseq	r0, r4, r0, lsl #24
    1028:	0b3a0803 	bleq	e8303c <__bss_end__+0xe795b4>
    102c:	13490b3b 	movtne	r0, #39739	; 0x9b3b
    1030:	00001802 	andeq	r1, r0, r2, lsl #16
    1034:	11010b0d 	tstne	r1, sp, lsl #22
    1038:	01061201 	tsteq	r6, r1, lsl #4
    103c:	0e000013 	mcreq	0, 0, r0, cr0, cr3, {0}
    1040:	193f012e 	ldmdbne	pc!, {r1, r2, r3, r5, r8}	; <UNPREDICTABLE>
    1044:	0b3a0e03 	bleq	e84858 <__bss_end__+0xe7add0>
    1048:	19270b3b 	stmdbne	r7!, {r0, r1, r3, r4, r5, r8, r9, fp}
    104c:	193c1349 	ldmdbne	ip!, {r0, r3, r6, r8, r9, ip}
    1050:	00001301 	andeq	r1, r0, r1, lsl #6
    1054:	4900050f 	stmdbmi	r0, {r0, r1, r2, r3, r8, sl}
    1058:	10000013 	andne	r0, r0, r3, lsl r0
    105c:	193f002e 	ldmdbne	pc!, {r1, r2, r3, r5}	; <UNPREDICTABLE>
    1060:	0b3a0e03 	bleq	e84874 <__bss_end__+0xe7adec>
    1064:	19270b3b 	stmdbne	r7!, {r0, r1, r3, r4, r5, r8, r9, fp}
    1068:	0000193c 	andeq	r1, r0, ip, lsr r9
    106c:	01110100 	tsteq	r1, r0, lsl #2
    1070:	0b130e25 	bleq	4c490c <__bss_end__+0x4bae84>
    1074:	0e1b0e03 	cdpeq	14, 1, cr0, cr11, cr3, {0}
    1078:	06120111 			; <UNDEFINED> instruction: 0x06120111
    107c:	00001710 	andeq	r1, r0, r0, lsl r7
    1080:	0b002402 	bleq	a090 <__bss_end__+0x608>
    1084:	030b3e0b 	movweq	r3, #48651	; 0xbe0b
    1088:	03000008 	movweq	r0, #8
    108c:	0b0b0024 	bleq	2c1124 <__bss_end__+0x2b769c>
    1090:	0e030b3e 	vmoveq.16	d3[0], r0
    1094:	35040000 	strcc	r0, [r4, #-0]
    1098:	00134900 	andseq	r4, r3, r0, lsl #18
    109c:	00160500 	andseq	r0, r6, r0, lsl #10
    10a0:	0b3a0e03 	bleq	e848b4 <__bss_end__+0xe7ae2c>
    10a4:	13490b3b 	movtne	r0, #39739	; 0x9b3b
    10a8:	16060000 	strne	r0, [r6], -r0
    10ac:	3a0e0300 	bcc	381cb4 <__bss_end__+0x37822c>
    10b0:	49053b0b 	stmdbmi	r5, {r0, r1, r3, r8, r9, fp, ip, sp}
    10b4:	07000013 	smladeq	r0, r3, r0, r0
    10b8:	0b0b0117 	bleq	2c151c <__bss_end__+0x2b7a94>
    10bc:	0b3b0b3a 	bleq	ec3dac <__bss_end__+0xeba324>
    10c0:	00001301 	andeq	r1, r0, r1, lsl #6
    10c4:	03000d08 	movweq	r0, #3336	; 0xd08
    10c8:	3b0b3a0e 	blcc	2cf908 <__bss_end__+0x2c5e80>
    10cc:	0013490b 	andseq	r4, r3, fp, lsl #18
    10d0:	01010900 	tsteq	r1, r0, lsl #18
    10d4:	13011349 	movwne	r1, #4937	; 0x1349
    10d8:	210a0000 	mrscs	r0, (UNDEF: 10)
    10dc:	2f134900 	svccs	0x00134900
    10e0:	0b00000b 	bleq	1114 <__code_start__-0x6eec>
    10e4:	0b0b0113 	bleq	2c1538 <__bss_end__+0x2b7ab0>
    10e8:	0b3b0b3a 	bleq	ec3dd8 <__bss_end__+0xeba350>
    10ec:	00001301 	andeq	r1, r0, r1, lsl #6
    10f0:	03000d0c 	movweq	r0, #3340	; 0xd0c
    10f4:	3b0b3a0e 	blcc	2cf934 <__bss_end__+0x2c5eac>
    10f8:	3813490b 	ldmdacc	r3, {r0, r1, r3, r8, fp, lr}
    10fc:	0d00000b 	stceq	0, cr0, [r0, #-44]	; 0xffffffd4
    1100:	0b0b000f 	bleq	2c1144 <__bss_end__+0x2b76bc>
    1104:	0f0e0000 	svceq	0x000e0000
    1108:	490b0b00 	stmdbmi	fp, {r8, r9, fp}
    110c:	0f000013 	svceq	0x00000013
    1110:	13490026 	movtne	r0, #36902	; 0x9026
    1114:	13100000 	tstne	r0, #0
    1118:	0b0e0301 	bleq	381d24 <__bss_end__+0x37829c>
    111c:	3b0b3a0b 	blcc	2cf950 <__bss_end__+0x2c5ec8>
    1120:	0013010b 	andseq	r0, r3, fp, lsl #2
    1124:	000d1100 	andeq	r1, sp, r0, lsl #2
    1128:	0b3a0803 	bleq	e8313c <__bss_end__+0xe796b4>
    112c:	13490b3b 	movtne	r0, #39739	; 0x9b3b
    1130:	00000b38 	andeq	r0, r0, r8, lsr fp
    1134:	03011312 	movweq	r1, #4882	; 0x1312
    1138:	3a050b0e 	bcc	143d78 <__bss_end__+0x13a2f0>
    113c:	010b3b0b 	tsteq	fp, fp, lsl #22
    1140:	13000013 	movwne	r0, #19
    1144:	0e03000d 	cdpeq	0, 0, cr0, cr3, cr13, {0}
    1148:	0b3b0b3a 	bleq	ec3e38 <__bss_end__+0xeba3b0>
    114c:	05381349 	ldreq	r1, [r8, #-841]!	; 0x349
    1150:	15140000 	ldrne	r0, [r4, #-0]
    1154:	00192700 	andseq	r2, r9, r0, lsl #14
    1158:	01151500 	tsteq	r5, r0, lsl #10
    115c:	13491927 	movtne	r1, #39207	; 0x9927
    1160:	00001301 	andeq	r1, r0, r1, lsl #6
    1164:	49000516 	stmdbmi	r0, {r1, r2, r4, r8, sl}
    1168:	17000013 	smladne	r0, r3, r0, r0
    116c:	0e030113 	mcreq	1, 0, r0, cr3, cr3, {0}
    1170:	0b3a050b 	bleq	e825a4 <__bss_end__+0xe78b1c>
    1174:	1301053b 	movwne	r0, #5435	; 0x153b
    1178:	0d180000 	ldceq	0, cr0, [r8, #-0]
    117c:	3a0e0300 	bcc	381d84 <__bss_end__+0x3782fc>
    1180:	49053b0b 	stmdbmi	r5, {r0, r1, r3, r8, r9, fp, ip, sp}
    1184:	000b3813 	andeq	r3, fp, r3, lsl r8
    1188:	000d1900 	andeq	r1, sp, r0, lsl #18
    118c:	0b3a0e03 	bleq	e849a0 <__bss_end__+0xe7af18>
    1190:	1349053b 	movtne	r0, #38203	; 0x953b
    1194:	00000538 	andeq	r0, r0, r8, lsr r5
    1198:	0301131a 	movweq	r1, #4890	; 0x131a
    119c:	3a0b0b0e 	bcc	2c3ddc <__bss_end__+0x2ba354>
    11a0:	01053b0b 	tsteq	r5, fp, lsl #22
    11a4:	1b000013 	blne	11f8 <__code_start__-0x6e08>
    11a8:	0b0b0113 	bleq	2c15fc <__bss_end__+0x2b7b74>
    11ac:	053b0b3a 	ldreq	r0, [fp, #-2874]!	; 0xb3a
    11b0:	00001301 	andeq	r1, r0, r1, lsl #6
    11b4:	0b01171c 	bleq	46e2c <__bss_end__+0x3d3a4>
    11b8:	3b0b3a0b 	blcc	2cf9ec <__bss_end__+0x2c5f64>
    11bc:	00130105 	andseq	r0, r3, r5, lsl #2
    11c0:	000d1d00 	andeq	r1, sp, r0, lsl #26
    11c4:	0b3a0e03 	bleq	e849d8 <__bss_end__+0xe7af50>
    11c8:	1349053b 	movtne	r0, #38203	; 0x953b
    11cc:	151e0000 	ldrne	r0, [lr, #-0]
    11d0:	01192701 	tsteq	r9, r1, lsl #14
    11d4:	1f000013 	svcne	0x00000013
    11d8:	0e030034 	mcreq	0, 0, r0, cr3, cr4, {1}
    11dc:	053b0b3a 	ldreq	r0, [fp, #-2874]!	; 0xb3a
    11e0:	193f1349 	ldmdbne	pc!, {r0, r3, r6, r8, r9, ip}	; <UNPREDICTABLE>
    11e4:	0000193c 	andeq	r1, r0, ip, lsr r9
    11e8:	03003420 	movweq	r3, #1056	; 0x420
    11ec:	3b0b3a0e 	blcc	2cfa2c <__bss_end__+0x2c5fa4>
    11f0:	3f13490b 	svccc	0x0013490b
    11f4:	00193c19 	andseq	r3, r9, r9, lsl ip
    11f8:	01042100 	mrseq	r2, (UNDEF: 20)
    11fc:	13490b0b 	movtne	r0, #39691	; 0x9b0b
    1200:	0b3b0b3a 	bleq	ec3ef0 <__bss_end__+0xeba468>
    1204:	00001301 	andeq	r1, r0, r1, lsl #6
    1208:	03002822 	movweq	r2, #2082	; 0x822
    120c:	000b1c0e 	andeq	r1, fp, lr, lsl #24
    1210:	00342300 	eorseq	r2, r4, r0, lsl #6
    1214:	0b3a0e03 	bleq	e84a28 <__bss_end__+0xe7afa0>
    1218:	13490b3b 	movtne	r0, #39739	; 0x9b3b
    121c:	0000061c 	andeq	r0, r0, ip, lsl r6
    1220:	3f012e24 	svccc	0x00012e24
    1224:	3a0e0319 	bcc	381e90 <__bss_end__+0x378408>
    1228:	270b3b0b 	strcs	r3, [fp, -fp, lsl #22]
    122c:	11134919 	tstne	r3, r9, lsl r9
    1230:	40061201 	andmi	r1, r6, r1, lsl #4
    1234:	19429718 	stmdbne	r2, {r3, r4, r8, r9, sl, ip, pc}^
    1238:	00001301 	andeq	r1, r0, r1, lsl #6
    123c:	01828925 	orreq	r8, r2, r5, lsr #18
    1240:	31011100 	mrscc	r1, (UNDEF: 17)
    1244:	26000013 			; <UNDEFINED> instruction: 0x26000013
    1248:	193f012e 	ldmdbne	pc!, {r1, r2, r3, r5, r8}	; <UNPREDICTABLE>
    124c:	0b3a0e03 	bleq	e84a60 <__bss_end__+0xe7afd8>
    1250:	19270b3b 	stmdbne	r7!, {r0, r1, r3, r4, r5, r8, r9, fp}
    1254:	06120111 			; <UNDEFINED> instruction: 0x06120111
    1258:	42971840 	addsmi	r1, r7, #64, 16	; 0x400000
    125c:	00130119 	andseq	r0, r3, r9, lsl r1
    1260:	00052700 	andeq	r2, r5, r0, lsl #14
    1264:	0b3a0803 	bleq	e83278 <__bss_end__+0xe797f0>
    1268:	13490b3b 	movtne	r0, #39739	; 0x9b3b
    126c:	00001702 	andeq	r1, r0, r2, lsl #14
    1270:	01828928 	orreq	r8, r2, r8, lsr #18
    1274:	31011101 	tstcc	r1, r1, lsl #2
    1278:	00130113 	andseq	r0, r3, r3, lsl r1
    127c:	828a2900 	addhi	r2, sl, #0, 18
    1280:	18020001 	stmdane	r2, {r0}
    1284:	00184291 	mulseq	r8, r1, r2
    1288:	00342a00 	eorseq	r2, r4, r0, lsl #20
    128c:	0b3a0803 	bleq	e832a0 <__bss_end__+0xe79818>
    1290:	13490b3b 	movtne	r0, #39739	; 0x9b3b
    1294:	00001802 	andeq	r1, r0, r2, lsl #16
    1298:	0182892b 	orreq	r8, r2, fp, lsr #18
    129c:	31011101 	tstcc	r1, r1, lsl #2
    12a0:	2c000013 	stccs	0, cr0, [r0], {19}
    12a4:	0e03012e 	adfeqsp	f0, f3, #0.5
    12a8:	0b3b0b3a 	bleq	ec3f98 <__bss_end__+0xeba510>
    12ac:	01111927 	tsteq	r1, r7, lsr #18
    12b0:	18400612 	stmdane	r0, {r1, r4, r9, sl}^
    12b4:	01194297 			; <UNDEFINED> instruction: 0x01194297
    12b8:	2d000013 	stccs	0, cr0, [r0, #-76]	; 0xffffffb4
    12bc:	0e030005 	cdpeq	0, 0, cr0, cr3, cr5, {0}
    12c0:	0b3b0b3a 	bleq	ec3fb0 <__bss_end__+0xeba528>
    12c4:	17021349 	strne	r1, [r2, -r9, asr #6]
    12c8:	352e0000 	strcc	r0, [lr, #-0]!
    12cc:	2f000000 	svccs	0x00000000
    12d0:	193f002e 	ldmdbne	pc!, {r1, r2, r3, r5}	; <UNPREDICTABLE>
    12d4:	0e6e193c 	mcreq	9, 3, r1, cr14, cr12, {1}
    12d8:	0b3a0e03 	bleq	e84aec <__bss_end__+0xe7b064>
    12dc:	00000b3b 	andeq	r0, r0, fp, lsr fp
    12e0:	01110100 	tsteq	r1, r0, lsl #2
    12e4:	0b130e25 	bleq	4c4b80 <__bss_end__+0x4bb0f8>
    12e8:	0e1b0e03 	cdpeq	14, 1, cr0, cr11, cr3, {0}
    12ec:	06120111 			; <UNDEFINED> instruction: 0x06120111
    12f0:	00001710 	andeq	r1, r0, r0, lsl r7
    12f4:	0b002402 	bleq	a304 <__bss_end__+0x87c>
    12f8:	030b3e0b 	movweq	r3, #48651	; 0xbe0b
    12fc:	03000008 	movweq	r0, #8
    1300:	0b0b0024 	bleq	2c1398 <__bss_end__+0x2b7910>
    1304:	0e030b3e 	vmoveq.16	d3[0], r0
    1308:	26040000 	strcs	r0, [r4], -r0
    130c:	00134900 	andseq	r4, r3, r0, lsl #18
    1310:	00160500 	andseq	r0, r6, r0, lsl #10
    1314:	0b3a0e03 	bleq	e84b28 <__bss_end__+0xe7b0a0>
    1318:	13490b3b 	movtne	r0, #39739	; 0x9b3b
    131c:	16060000 	strne	r0, [r6], -r0
    1320:	3a0e0300 	bcc	381f28 <__bss_end__+0x3784a0>
    1324:	49053b0b 	stmdbmi	r5, {r0, r1, r3, r8, r9, fp, ip, sp}
    1328:	07000013 	smladeq	r0, r3, r0, r0
    132c:	0b0b0117 	bleq	2c1790 <__bss_end__+0x2b7d08>
    1330:	0b3b0b3a 	bleq	ec4020 <__bss_end__+0xeba598>
    1334:	00001301 	andeq	r1, r0, r1, lsl #6
    1338:	03000d08 	movweq	r0, #3336	; 0xd08
    133c:	3b0b3a0e 	blcc	2cfb7c <__bss_end__+0x2c60f4>
    1340:	0013490b 	andseq	r4, r3, fp, lsl #18
    1344:	01010900 	tsteq	r1, r0, lsl #18
    1348:	13011349 	movwne	r1, #4937	; 0x1349
    134c:	210a0000 	mrscs	r0, (UNDEF: 10)
    1350:	2f134900 	svccs	0x00134900
    1354:	0b00000b 	bleq	1388 <__code_start__-0x6c78>
    1358:	0b0b0113 	bleq	2c17ac <__bss_end__+0x2b7d24>
    135c:	0b3b0b3a 	bleq	ec404c <__bss_end__+0xeba5c4>
    1360:	00001301 	andeq	r1, r0, r1, lsl #6
    1364:	03000d0c 	movweq	r0, #3340	; 0xd0c
    1368:	3b0b3a0e 	blcc	2cfba8 <__bss_end__+0x2c6120>
    136c:	3813490b 	ldmdacc	r3, {r0, r1, r3, r8, fp, lr}
    1370:	0d00000b 	stceq	0, cr0, [r0, #-44]	; 0xffffffd4
    1374:	0b0b000f 	bleq	2c13b8 <__bss_end__+0x2b7930>
    1378:	0f0e0000 	svceq	0x000e0000
    137c:	490b0b00 	stmdbmi	fp, {r8, r9, fp}
    1380:	0f000013 	svceq	0x00000013
    1384:	0e030113 	mcreq	1, 0, r0, cr3, cr3, {0}
    1388:	0b3a0b0b 	bleq	e83fbc <__bss_end__+0xe7a534>
    138c:	13010b3b 	movwne	r0, #6971	; 0x1b3b
    1390:	0d100000 	ldceq	0, cr0, [r0, #-0]
    1394:	3a080300 	bcc	201f9c <__bss_end__+0x1f8514>
    1398:	490b3b0b 	stmdbmi	fp, {r0, r1, r3, r8, r9, fp, ip, sp}
    139c:	000b3813 	andeq	r3, fp, r3, lsl r8
    13a0:	01131100 	tsteq	r3, r0, lsl #2
    13a4:	050b0e03 	streq	r0, [fp, #-3587]	; 0xe03
    13a8:	0b3b0b3a 	bleq	ec4098 <__bss_end__+0xeba610>
    13ac:	00001301 	andeq	r1, r0, r1, lsl #6
    13b0:	03000d12 	movweq	r0, #3346	; 0xd12
    13b4:	3b0b3a0e 	blcc	2cfbf4 <__bss_end__+0x2c616c>
    13b8:	3813490b 	ldmdacc	r3, {r0, r1, r3, r8, fp, lr}
    13bc:	13000005 	movwne	r0, #5
    13c0:	19270015 	stmdbne	r7!, {r0, r2, r4}
    13c4:	15140000 	ldrne	r0, [r4, #-0]
    13c8:	49192701 	ldmdbmi	r9, {r0, r8, r9, sl, sp}
    13cc:	00130113 	andseq	r0, r3, r3, lsl r1
    13d0:	00051500 	andeq	r1, r5, r0, lsl #10
    13d4:	00001349 	andeq	r1, r0, r9, asr #6
    13d8:	03011316 	movweq	r1, #4886	; 0x1316
    13dc:	3a050b0e 	bcc	14401c <__bss_end__+0x13a594>
    13e0:	01053b0b 	tsteq	r5, fp, lsl #22
    13e4:	17000013 	smladne	r0, r3, r0, r0
    13e8:	0e03000d 	cdpeq	0, 0, cr0, cr3, cr13, {0}
    13ec:	053b0b3a 	ldreq	r0, [fp, #-2874]!	; 0xb3a
    13f0:	0b381349 	bleq	e0611c <__bss_end__+0xdfc694>
    13f4:	0d180000 	ldceq	0, cr0, [r8, #-0]
    13f8:	3a0e0300 	bcc	382000 <__bss_end__+0x378578>
    13fc:	49053b0b 	stmdbmi	r5, {r0, r1, r3, r8, r9, fp, ip, sp}
    1400:	00053813 	andeq	r3, r5, r3, lsl r8
    1404:	01131900 	tsteq	r3, r0, lsl #18
    1408:	0b0b0e03 	bleq	2c4c1c <__bss_end__+0x2bb194>
    140c:	053b0b3a 	ldreq	r0, [fp, #-2874]!	; 0xb3a
    1410:	00001301 	andeq	r1, r0, r1, lsl #6
    1414:	0b01131a 	bleq	46084 <__bss_end__+0x3c5fc>
    1418:	3b0b3a0b 	blcc	2cfc4c <__bss_end__+0x2c61c4>
    141c:	00130105 	andseq	r0, r3, r5, lsl #2
    1420:	01171b00 	tsteq	r7, r0, lsl #22
    1424:	0b3a0b0b 	bleq	e84058 <__bss_end__+0xe7a5d0>
    1428:	1301053b 	movwne	r0, #5435	; 0x153b
    142c:	0d1c0000 	ldceq	0, cr0, [ip, #-0]
    1430:	3a0e0300 	bcc	382038 <__bss_end__+0x3785b0>
    1434:	49053b0b 	stmdbmi	r5, {r0, r1, r3, r8, r9, fp, ip, sp}
    1438:	1d000013 	stcne	0, cr0, [r0, #-76]	; 0xffffffb4
    143c:	19270115 	stmdbne	r7!, {r0, r2, r4, r8}
    1440:	00001301 	andeq	r1, r0, r1, lsl #6
    1444:	0300341e 	movweq	r3, #1054	; 0x41e
    1448:	3b0b3a0e 	blcc	2cfc88 <__bss_end__+0x2c6200>
    144c:	3f134905 	svccc	0x00134905
    1450:	00193c19 	andseq	r3, r9, r9, lsl ip
    1454:	00341f00 	eorseq	r1, r4, r0, lsl #30
    1458:	0b3a0e03 	bleq	e84c6c <__bss_end__+0xe7b1e4>
    145c:	13490b3b 	movtne	r0, #39739	; 0x9b3b
    1460:	193c193f 	ldmdbne	ip!, {r0, r1, r2, r3, r4, r5, r8, fp, ip}
    1464:	04200000 	strteq	r0, [r0], #-0
    1468:	490b0b01 	stmdbmi	fp, {r0, r8, r9, fp}
    146c:	3b0b3a13 	blcc	2cfcc0 <__bss_end__+0x2c6238>
    1470:	0013010b 	andseq	r0, r3, fp, lsl #2
    1474:	00282100 	eoreq	r2, r8, r0, lsl #2
    1478:	0b1c0e03 	bleq	704c8c <__bss_end__+0x6fb204>
    147c:	34220000 	strtcc	r0, [r2], #-0
    1480:	3a0e0300 	bcc	382088 <__bss_end__+0x378600>
    1484:	490b3b0b 	stmdbmi	fp, {r0, r1, r3, r8, r9, fp, ip, sp}
    1488:	00061c13 	andeq	r1, r6, r3, lsl ip
    148c:	012e2300 	teqeq	lr, r0, lsl #6
    1490:	0e03193f 	mcreq	9, 0, r1, cr3, cr15, {1}
    1494:	0b3b0b3a 	bleq	ec4184 <__bss_end__+0xeba6fc>
    1498:	13491927 	movtne	r1, #39207	; 0x9927
    149c:	06120111 			; <UNDEFINED> instruction: 0x06120111
    14a0:	42971840 	addsmi	r1, r7, #64, 16	; 0x400000
    14a4:	00130119 	andseq	r0, r3, r9, lsl r1
    14a8:	00052400 	andeq	r2, r5, r0, lsl #8
    14ac:	0b3a0803 	bleq	e834c0 <__bss_end__+0xe79a38>
    14b0:	13490b3b 	movtne	r0, #39739	; 0x9b3b
    14b4:	00001702 	andeq	r1, r0, r2, lsl #14
    14b8:	03003425 	movweq	r3, #1061	; 0x425
    14bc:	3b0b3a0e 	blcc	2cfcfc <__bss_end__+0x2c6274>
    14c0:	0213490b 	andseq	r4, r3, #180224	; 0x2c000
    14c4:	26000017 			; <UNDEFINED> instruction: 0x26000017
    14c8:	08030034 	stmdaeq	r3, {r2, r4, r5}
    14cc:	0b3b0b3a 	bleq	ec41bc <__bss_end__+0xeba734>
    14d0:	17021349 	strne	r1, [r2, -r9, asr #6]
    14d4:	89270000 	stmdbhi	r7!, {}	; <UNPREDICTABLE>
    14d8:	11010182 	smlabbne	r1, r2, r1, r0
    14dc:	00133101 	andseq	r3, r3, r1, lsl #2
    14e0:	828a2800 	addhi	r2, sl, #0, 16
    14e4:	18020001 	stmdane	r2, {r0}
    14e8:	00184291 	mulseq	r8, r1, r2
    14ec:	012e2900 	teqeq	lr, r0, lsl #18
    14f0:	0e03193f 	mcreq	9, 0, r1, cr3, cr15, {1}
    14f4:	0b3b0b3a 	bleq	ec41e4 <__bss_end__+0xeba75c>
    14f8:	01111927 	tsteq	r1, r7, lsr #18
    14fc:	18400612 	stmdane	r0, {r1, r4, r9, sl}^
    1500:	01194297 			; <UNDEFINED> instruction: 0x01194297
    1504:	2a000013 	bcs	1558 <__code_start__-0x6aa8>
    1508:	01018289 	smlabbeq	r1, r9, r2, r8
    150c:	13310111 	teqne	r1, #1073741828	; 0x40000004
    1510:	00001301 	andeq	r1, r0, r1, lsl #6
    1514:	0182892b 	orreq	r8, r2, fp, lsr #18
    1518:	31011100 	mrscc	r1, (UNDEF: 17)
    151c:	2c000013 	stccs	0, cr0, [r0], {19}
    1520:	0e030005 	cdpeq	0, 0, cr0, cr3, cr5, {0}
    1524:	0b3b0b3a 	bleq	ec4214 <__bss_end__+0xeba78c>
    1528:	17021349 	strne	r1, [r2, -r9, asr #6]
    152c:	342d0000 	strtcc	r0, [sp], #-0
    1530:	3a080300 	bcc	202138 <__bss_end__+0x1f86b0>
    1534:	490b3b0b 	stmdbmi	fp, {r0, r1, r3, r8, r9, fp, ip, sp}
    1538:	00180213 	andseq	r0, r8, r3, lsl r2
    153c:	002e2e00 	eoreq	r2, lr, r0, lsl #28
    1540:	193c193f 	ldmdbne	ip!, {r0, r1, r2, r3, r4, r5, r8, fp, ip}
    1544:	0e030e6e 	cdpeq	14, 0, cr0, cr3, cr14, {3}
    1548:	0b3b0b3a 	bleq	ec4238 <__bss_end__+0xeba7b0>
    154c:	Address 0x000000000000154c is out of bounds.


Disassembly of section .debug_loc:

00000000 <.debug_loc>:
   0:	00000008 	andeq	r0, r0, r8
   4:	0000000c 	andeq	r0, r0, ip
   8:	0c500001 	mrrceq	0, 0, r0, r0, cr1	; <UNPREDICTABLE>
   c:	10000000 	andne	r0, r0, r0
  10:	04000000 	streq	r0, [r0], #-0
  14:	5001f300 	andpl	pc, r1, r0, lsl #6
  18:	0000009f 	muleq	r0, pc, r0	; <UNPREDICTABLE>
  1c:	00000000 	andeq	r0, r0, r0
  20:	00001000 	andeq	r1, r0, r0
  24:	00003000 	andeq	r3, r0, r0
  28:	50000100 	andpl	r0, r0, r0, lsl #2
  2c:	00000030 	andeq	r0, r0, r0, lsr r0
  30:	00000090 	muleq	r0, r0, r0
  34:	01f30004 	mvnseq	r0, r4
  38:	00009f50 	andeq	r9, r0, r0, asr pc
  3c:	00000000 	andeq	r0, r0, r0
  40:	00100000 	andseq	r0, r0, r0
  44:	00200000 	eoreq	r0, r0, r0
  48:	00010000 	andeq	r0, r1, r0
  4c:	00002051 	andeq	r2, r0, r1, asr r0
  50:	00003f00 	andeq	r3, r0, r0, lsl #30
  54:	53000100 	movwpl	r0, #256	; 0x100
  58:	0000003f 	andeq	r0, r0, pc, lsr r0
  5c:	00000090 	muleq	r0, r0, r0
  60:	01f30004 	mvnseq	r0, r4
  64:	00009f51 	andeq	r9, r0, r1, asr pc
  68:	00000000 	andeq	r0, r0, r0
  6c:	00100000 	andseq	r0, r0, r0
  70:	003f0000 	eorseq	r0, pc, r0
  74:	00010000 	andeq	r0, r1, r0
  78:	00003f52 	andeq	r3, r0, r2, asr pc
  7c:	00009000 	andeq	r9, r0, r0
  80:	f3000400 	vshl.u8	d0, d0, d0
  84:	009f5201 	addseq	r5, pc, r1, lsl #4
  88:	00000000 	andeq	r0, r0, r0
  8c:	20000000 	andcs	r0, r0, r0
  90:	28000000 	stmdacs	r0, {}	; <UNPREDICTABLE>
  94:	01000000 	mrseq	r0, (UNDEF: 0)
  98:	00285100 	eoreq	r5, r8, r0, lsl #2
  9c:	002c0000 	eoreq	r0, ip, r0
  a0:	00010000 	andeq	r0, r1, r0
  a4:	00000051 	andeq	r0, r0, r1, asr r0
  a8:	00000000 	andeq	r0, r0, r0
  ac:	00003000 	andeq	r3, r0, r0
  b0:	00003400 	andeq	r3, r0, r0, lsl #8
  b4:	50000100 	andpl	r0, r0, r0, lsl #2
  b8:	00000034 	andeq	r0, r0, r4, lsr r0
  bc:	0000003c 	andeq	r0, r0, ip, lsr r0
  c0:	08700003 	ldmdaeq	r0!, {r0, r1}^
  c4:	00003c9f 	muleq	r0, pc, ip	; <UNPREDICTABLE>
  c8:	00003f00 	andeq	r3, r0, r0, lsl #30
  cc:	7d000600 	stcvc	6, cr0, [r0, #-0]
  d0:	08230600 	stmdaeq	r3!, {r9, sl}
  d4:	0000009f 	muleq	r0, pc, r0	; <UNPREDICTABLE>
  d8:	00000000 	andeq	r0, r0, r0
  dc:	00004400 	andeq	r4, r0, r0, lsl #8
  e0:	00004f00 	andeq	r4, r0, r0, lsl #30
  e4:	53000100 	movwpl	r0, #256	; 0x100
  e8:	00000068 	andeq	r0, r0, r8, rrx
  ec:	0000006f 	andeq	r0, r0, pc, rrx
  f0:	00530001 	subseq	r0, r3, r1
	...
  fc:	23000000 	movwcs	r0, #0
 100:	01000000 	mrseq	r0, (UNDEF: 0)
 104:	00235000 	eoreq	r5, r3, r0
 108:	00440000 	subeq	r0, r4, r0
 10c:	00040000 	andeq	r0, r4, r0
 110:	9f5001f3 	svcls	0x005001f3
 114:	00000044 	andeq	r0, r0, r4, asr #32
 118:	0000005f 	andeq	r0, r0, pc, asr r0
 11c:	5f500001 	svcpl	0x00500001
 120:	80000000 	andhi	r0, r0, r0
 124:	04000000 	streq	r0, [r0], #-0
 128:	5001f300 	andpl	pc, r1, r0, lsl #6
 12c:	0000809f 	muleq	r0, pc, r0	; <UNPREDICTABLE>
 130:	0000b000 	andeq	fp, r0, r0
 134:	50000100 	andpl	r0, r0, r0, lsl #2
	...
 144:	00000023 	andeq	r0, r0, r3, lsr #32
 148:	23510001 	cmpcs	r1, #1
 14c:	44000000 	strmi	r0, [r0], #-0
 150:	04000000 	streq	r0, [r0], #-0
 154:	5101f300 	mrspl	pc, SP_irq	; <UNPREDICTABLE>
 158:	0000449f 	muleq	r0, pc, r4	; <UNPREDICTABLE>
 15c:	00005f00 	andeq	r5, r0, r0, lsl #30
 160:	51000100 	mrspl	r0, (UNDEF: 16)
 164:	0000005f 	andeq	r0, r0, pc, asr r0
 168:	00000080 	andeq	r0, r0, r0, lsl #1
 16c:	01f30004 	mvnseq	r0, r4
 170:	00809f51 	addeq	r9, r0, r1, asr pc
 174:	00b00000 	adcseq	r0, r0, r0
 178:	00010000 	andeq	r0, r1, r0
 17c:	00000051 	andeq	r0, r0, r1, asr r0
 180:	00000000 	andeq	r0, r0, r0
 184:	00001000 	andeq	r1, r0, r0
 188:	00002300 	andeq	r2, r0, r0, lsl #6
 18c:	53000100 	movwpl	r0, #256	; 0x100
 190:	00000044 	andeq	r0, r0, r4, asr #32
 194:	00000048 	andeq	r0, r0, r8, asr #32
 198:	48530001 	ldmdami	r3, {r0}^
 19c:	b0000000 	andlt	r0, r0, r0
 1a0:	04000000 	streq	r0, [r0], #-0
 1a4:	01ff0a00 	mvnseq	r0, r0, lsl #20
 1a8:	0000009f 	muleq	r0, pc, r0	; <UNPREDICTABLE>
 1ac:	00000000 	andeq	r0, r0, r0
 1b0:	00004400 	andeq	r4, r0, r0, lsl #8
 1b4:	00005f00 	andeq	r5, r0, r0, lsl #30
 1b8:	50000100 	andpl	r0, r0, r0, lsl #2
 1bc:	0000005f 	andeq	r0, r0, pc, asr r0
 1c0:	00000080 	andeq	r0, r0, r0, lsl #1
 1c4:	01f30004 	mvnseq	r0, r4
 1c8:	00809f50 	addeq	r9, r0, r0, asr pc
 1cc:	00b00000 	adcseq	r0, r0, r0
 1d0:	00010000 	andeq	r0, r1, r0
 1d4:	00000050 	andeq	r0, r0, r0, asr r0
 1d8:	00000000 	andeq	r0, r0, r0
 1dc:	00000c00 	andeq	r0, r0, r0, lsl #24
 1e0:	00001000 	andeq	r1, r0, r0
 1e4:	53000100 	movwpl	r0, #256	; 0x100
	...
 1f0:	00000010 	andeq	r0, r0, r0, lsl r0
 1f4:	00000023 	andeq	r0, r0, r3, lsr #32
 1f8:	44530001 	ldrbmi	r0, [r3], #-1
 1fc:	4c000000 	stcmi	0, cr0, [r0], {-0}
 200:	01000000 	mrseq	r0, (UNDEF: 0)
 204:	00005300 	andeq	r5, r0, r0, lsl #6
 208:	00000000 	andeq	r0, r0, r0
 20c:	00180000 	andseq	r0, r8, r0
 210:	00230000 	eoreq	r0, r3, r0
 214:	00010000 	andeq	r0, r1, r0
 218:	00004452 	andeq	r4, r0, r2, asr r4
 21c:	00005400 	andeq	r5, r0, r0, lsl #8
 220:	52000100 	andpl	r0, r0, #0, 2
	...
 22c:	00000054 	andeq	r0, r0, r4, asr r0
 230:	0000005f 	andeq	r0, r0, pc, asr r0
 234:	80520001 	subshi	r0, r2, r1
 238:	b0000000 	andlt	r0, r0, r0
 23c:	01000000 	mrseq	r0, (UNDEF: 0)
 240:	00005200 	andeq	r5, r0, r0, lsl #4
 244:	00000000 	andeq	r0, r0, r0
 248:	00b00000 	adcseq	r0, r0, r0
 24c:	00d00000 	sbcseq	r0, r0, r0
 250:	00010000 	andeq	r0, r1, r0
 254:	0000d050 	andeq	sp, r0, r0, asr r0
 258:	0001d000 	andeq	sp, r1, r0
 25c:	54000100 	strpl	r0, [r0], #-256	; 0x100
 260:	000001d0 	ldrdeq	r0, [r0], -r0	; <UNPREDICTABLE>
 264:	0000020c 	andeq	r0, r0, ip, lsl #4
 268:	01f30004 	mvnseq	r0, r4
 26c:	00009f50 	andeq	r9, r0, r0, asr pc
 270:	00000000 	andeq	r0, r0, r0
 274:	00dc0000 	sbcseq	r0, ip, r0
 278:	00eb0000 	rsceq	r0, fp, r0
 27c:	00010000 	andeq	r0, r1, r0
 280:	0000f053 	andeq	pc, r0, r3, asr r0	; <UNPREDICTABLE>
 284:	0000f700 	andeq	pc, r0, r0, lsl #14
 288:	53000100 	movwpl	r0, #256	; 0x100
	...
 294:	000000fc 	strdeq	r0, [r0], -ip
 298:	00000100 	andeq	r0, r0, r0, lsl #2
 29c:	00530001 	subseq	r0, r3, r1
 2a0:	00000000 	andeq	r0, r0, r0
 2a4:	3c000000 	stccc	0, cr0, [r0], {-0}
 2a8:	40000001 	andmi	r0, r0, r1
 2ac:	01000001 	tsteq	r0, r1
 2b0:	01405300 	mrseq	r5, SPSR_irq
 2b4:	014b0000 	mrseq	r0, (UNDEF: 75)
 2b8:	00030000 	andeq	r0, r3, r0
 2bc:	6c9f0473 	cfldrsvs	mvf0, [pc], {115}	; 0x73
 2c0:	70000001 	andvc	r0, r0, r1
 2c4:	03000001 	movweq	r0, #1
 2c8:	9f047300 	svcls	0x00047300
	...
 2d4:	00000250 	andeq	r0, r0, r0, asr r2
 2d8:	00000258 	andeq	r0, r0, r8, asr r2
 2dc:	58530001 	ldmdapl	r3, {r0}^
 2e0:	7c000002 	stcvc	0, cr0, [r0], {2}
 2e4:	04000002 	streq	r0, [r0], #-2
 2e8:	01e70a00 	mvneq	r0, r0, lsl #20
 2ec:	0000009f 	muleq	r0, pc, r0	; <UNPREDICTABLE>
 2f0:	00000000 	andeq	r0, r0, r0
 2f4:	00024c00 	andeq	r4, r2, r0, lsl #24
 2f8:	00025000 	andeq	r5, r2, r0
 2fc:	53000100 	movwpl	r0, #256	; 0x100
	...
 308:	00000250 	andeq	r0, r0, r0, asr r2
 30c:	0000025c 	andeq	r0, r0, ip, asr r2
 310:	00530001 	subseq	r0, r3, r1
 314:	00000000 	andeq	r0, r0, r0
 318:	7c000000 	stcvc	0, cr0, [r0], {-0}
 31c:	8c000002 	stchi	0, cr0, [r0], {2}
 320:	01000002 	tsteq	r0, r2
 324:	028c5000 	addeq	r5, ip, #0
 328:	03200000 	teqeq	r0, #0
 32c:	00010000 	andeq	r0, r1, r0
 330:	00032054 	andeq	r2, r3, r4, asr r0
 334:	00034000 	andeq	r4, r3, r0
 338:	f3000400 	vshl.u8	d0, d0, d0
 33c:	009f5001 	addseq	r5, pc, r1
 340:	00000000 	andeq	r0, r0, r0
 344:	98000000 	stmdals	r0, {}	; <UNPREDICTABLE>
 348:	9c000002 	stcls	0, cr0, [r0], {2}
 34c:	01000002 	tsteq	r0, r2
 350:	00005300 	andeq	r5, r0, r0, lsl #6
 354:	00000000 	andeq	r0, r0, r0
 358:	002c0000 	eoreq	r0, ip, r0
 35c:	00380000 	eorseq	r0, r8, r0
 360:	00010000 	andeq	r0, r1, r0
 364:	00003850 	andeq	r3, r0, r0, asr r8
 368:	00004800 	andeq	r4, r0, r0, lsl #16
 36c:	55000100 	strpl	r0, [r0, #-256]	; 0x100
 370:	00000048 	andeq	r0, r0, r8, asr #32
 374:	00000058 	andeq	r0, r0, r8, asr r0
 378:	00500001 	subseq	r0, r0, r1
	...
 384:	0b000000 	bleq	38c <__code_start__-0x7c74>
 388:	01000000 	mrseq	r0, (UNDEF: 0)
 38c:	000b5000 	andeq	r5, fp, r0
 390:	00140000 	andseq	r0, r4, r0
 394:	00010000 	andeq	r0, r1, r0
 398:	00000054 	andeq	r0, r0, r4, asr r0
	...
 3a4:	00001000 	andeq	r1, r0, r0
 3a8:	50000100 	andpl	r0, r0, r0, lsl #2
 3ac:	00000010 	andeq	r0, r0, r0, lsl r0
 3b0:	00000034 	andeq	r0, r0, r4, lsr r0
 3b4:	00540001 	subseq	r0, r4, r1
	...
 3c0:	04000000 	streq	r0, [r0], #-0
 3c4:	01000000 	mrseq	r0, (UNDEF: 0)
 3c8:	00045000 	andeq	r5, r4, r0
 3cc:	000c0000 	andeq	r0, ip, r0
 3d0:	00030000 	andeq	r0, r3, r0
 3d4:	0c9f3070 	ldceq	0, cr3, [pc], {112}	; 0x70
 3d8:	14000000 	strne	r0, [r0], #-0
 3dc:	04000000 	streq	r0, [r0], #-0
 3e0:	5001f300 	andpl	pc, r1, r0, lsl #6
 3e4:	0000009f 	muleq	r0, pc, r0	; <UNPREDICTABLE>
 3e8:	00000000 	andeq	r0, r0, r0
 3ec:	00001400 	andeq	r1, r0, r0, lsl #8
 3f0:	00002000 	andeq	r2, r0, r0
 3f4:	50000100 	andpl	r0, r0, r0, lsl #2
 3f8:	00000020 	andeq	r0, r0, r0, lsr #32
 3fc:	0000002c 	andeq	r0, r0, ip, lsr #32
 400:	01700003 	cmneq	r0, r3
 404:	00002c9f 	muleq	r0, pc, ip	; <UNPREDICTABLE>
 408:	00004000 	andeq	r4, r0, r0
 40c:	50000100 	andpl	r0, r0, r0, lsl #2
	...
 418:	00000014 	andeq	r0, r0, r4, lsl r0
 41c:	00000018 	andeq	r0, r0, r8, lsl r0
 420:	18510001 	ldmdane	r1, {r0}^
 424:	40000000 	andmi	r0, r0, r0
 428:	04000000 	streq	r0, [r0], #-0
 42c:	5101f300 	mrspl	pc, SP_irq	; <UNPREDICTABLE>
 430:	0000009f 	muleq	r0, pc, r0	; <UNPREDICTABLE>
 434:	00000000 	andeq	r0, r0, r0
 438:	00004000 	andeq	r4, r0, r0
 43c:	00006000 	andeq	r6, r0, r0
 440:	50000100 	andpl	r0, r0, r0, lsl #2
 444:	00000060 	andeq	r0, r0, r0, rrx
 448:	0000006c 	andeq	r0, r0, ip, rrx
 44c:	01710003 	cmneq	r1, r3
 450:	00006c9f 	muleq	r0, pc, ip	; <UNPREDICTABLE>
 454:	00007400 	andeq	r7, r0, r0, lsl #8
 458:	51000100 	mrspl	r0, (UNDEF: 16)
 45c:	00000074 	andeq	r0, r0, r4, ror r0
 460:	00000080 	andeq	r0, r0, r0, lsl #1
 464:	01710003 	cmneq	r1, r3
 468:	0000009f 	muleq	r0, pc, r0	; <UNPREDICTABLE>
 46c:	00000000 	andeq	r0, r0, r0
 470:	00004000 	andeq	r4, r0, r0
 474:	00005000 	andeq	r5, r0, r0
 478:	51000100 	mrspl	r0, (UNDEF: 16)
 47c:	00000050 	andeq	r0, r0, r0, asr r0
 480:	00000080 	andeq	r0, r0, r0, lsl #1
 484:	01f30004 	mvnseq	r0, r4
 488:	00009f51 	andeq	r9, r0, r1, asr pc
 48c:	00000000 	andeq	r0, r0, r0
 490:	00400000 	subeq	r0, r0, r0
 494:	00580000 	subseq	r0, r8, r0
 498:	00010000 	andeq	r0, r1, r0
 49c:	00005852 	andeq	r5, r0, r2, asr r8
 4a0:	00006400 	andeq	r6, r0, r0, lsl #8
 4a4:	52000100 	andpl	r0, r0, #0, 2
 4a8:	00000064 	andeq	r0, r0, r4, rrx
 4ac:	00000068 	andeq	r0, r0, r8, rrx
 4b0:	01720003 	cmneq	r2, r3
 4b4:	0000689f 	muleq	r0, pc, r8	; <UNPREDICTABLE>
 4b8:	00008000 	andeq	r8, r0, r0
 4bc:	52000100 	andpl	r0, r0, #0, 2
	...
 4c8:	00000040 	andeq	r0, r0, r0, asr #32
 4cc:	00000054 	andeq	r0, r0, r4, asr r0
 4d0:	54530001 	ldrbpl	r0, [r3], #-1
 4d4:	78000000 	stmdavc	r0, {}	; <UNPREDICTABLE>
 4d8:	01000000 	mrseq	r0, (UNDEF: 0)
 4dc:	00005300 	andeq	r5, r0, r0, lsl #6
 4e0:	00000000 	andeq	r0, r0, r0
 4e4:	00480000 	subeq	r0, r8, r0
 4e8:	00600000 	rsbeq	r0, r0, r0
 4ec:	00010000 	andeq	r0, r1, r0
 4f0:	0000605c 	andeq	r6, r0, ip, asr r0
 4f4:	00008000 	andeq	r8, r0, r0
 4f8:	f3000a00 	vpmax.u8	d0, d0, d0
 4fc:	01f35201 	mvnseq	r5, r1, lsl #4
 500:	01231c53 	teqeq	r3, r3, asr ip
 504:	0000009f 	muleq	r0, pc, r0	; <UNPREDICTABLE>
 508:	00000000 	andeq	r0, r0, r0
 50c:	00008000 	andeq	r8, r0, r0
 510:	0000a400 	andeq	sl, r0, r0, lsl #8
 514:	50000100 	andpl	r0, r0, r0, lsl #2
 518:	000000a4 	andeq	r0, r0, r4, lsr #1
 51c:	00000118 	andeq	r0, r0, r8, lsl r1
 520:	02700003 	rsbseq	r0, r0, #3
 524:	0001189f 	muleq	r1, pc, r8	; <UNPREDICTABLE>
 528:	00023c00 	andeq	r3, r2, r0, lsl #24
 52c:	f3000400 	vshl.u8	d0, d0, d0
 530:	009f5001 	addseq	r5, pc, r1
 534:	00000000 	andeq	r0, r0, r0
 538:	80000000 	andhi	r0, r0, r0
 53c:	f0000000 			; <UNDEFINED> instruction: 0xf0000000
 540:	01000000 	mrseq	r0, (UNDEF: 0)
 544:	00f05100 	rscseq	r5, r0, r0, lsl #2
 548:	01600000 	cmneq	r0, r0
 54c:	00010000 	andeq	r0, r1, r0
 550:	00016055 	andeq	r6, r1, r5, asr r0
 554:	00016c00 	andeq	r6, r1, r0, lsl #24
 558:	51000100 	mrspl	r0, (UNDEF: 16)
 55c:	0000016c 	andeq	r0, r0, ip, ror #2
 560:	000001a0 	andeq	r0, r0, r0, lsr #3
 564:	a0550001 	subsge	r0, r5, r1
 568:	b4000001 	strlt	r0, [r0], #-1
 56c:	01000001 	tsteq	r0, r1
 570:	01b45100 			; <UNDEFINED> instruction: 0x01b45100
 574:	01d40000 	bicseq	r0, r4, r0
 578:	00010000 	andeq	r0, r1, r0
 57c:	0001d455 	andeq	sp, r1, r5, asr r4
 580:	0001d700 	andeq	sp, r1, r0, lsl #14
 584:	51000100 	mrspl	r0, (UNDEF: 16)
 588:	000001d7 	ldrdeq	r0, [r0], -r7
 58c:	0000021c 	andeq	r0, r0, ip, lsl r2
 590:	1c550001 	mrrcne	0, 0, r0, r5, cr1
 594:	3c000002 	stccc	0, cr0, [r0], {2}
 598:	04000002 	streq	r0, [r0], #-2
 59c:	5101f300 	mrspl	pc, SP_irq	; <UNPREDICTABLE>
 5a0:	0000009f 	muleq	r0, pc, r0	; <UNPREDICTABLE>
 5a4:	00000000 	andeq	r0, r0, r0
 5a8:	00008000 	andeq	r8, r0, r0
 5ac:	00009400 	andeq	r9, r0, r0, lsl #8
 5b0:	52000100 	andpl	r0, r0, #0, 2
 5b4:	00000094 	muleq	r0, r4, r0
 5b8:	0000021c 	andeq	r0, r0, ip, lsl r2
 5bc:	1c540001 	mrrcne	0, 0, r0, r4, cr1
 5c0:	3c000002 	stccc	0, cr0, [r0], {2}
 5c4:	04000002 	streq	r0, [r0], #-2
 5c8:	5201f300 	andpl	pc, r1, #0, 6
 5cc:	0000009f 	muleq	r0, pc, r0	; <UNPREDICTABLE>
 5d0:	00000000 	andeq	r0, r0, r0
 5d4:	00008000 	andeq	r8, r0, r0
 5d8:	00010000 	andeq	r0, r1, r0
 5dc:	53000100 	movwpl	r0, #256	; 0x100
 5e0:	00000104 	andeq	r0, r0, r4, lsl #2
 5e4:	00000108 	andeq	r0, r0, r8, lsl #2
 5e8:	60530001 	subsvs	r0, r3, r1
 5ec:	64000001 	strvs	r0, [r0], #-1
 5f0:	01000001 	tsteq	r0, r1
 5f4:	01645300 	cmneq	r4, r0, lsl #6
 5f8:	016c0000 	cmneq	ip, r0
 5fc:	00010000 	andeq	r0, r1, r0
 600:	00016c5c 	andeq	r6, r1, ip, asr ip
 604:	0001a000 	andeq	sl, r1, r0
 608:	f3000400 	vshl.u8	d0, d0, d0
 60c:	a09f5301 	addsge	r5, pc, r1, lsl #6
 610:	b0000001 	andlt	r0, r0, r1
 614:	01000001 	tsteq	r0, r1
 618:	01b05300 	lslseq	r5, r0, #6
 61c:	01b40000 			; <UNDEFINED> instruction: 0x01b40000
 620:	00010000 	andeq	r0, r1, r0
 624:	0001b45c 	andeq	fp, r1, ip, asr r4
 628:	0001d400 	andeq	sp, r1, r0, lsl #8
 62c:	f3000400 	vshl.u8	d0, d0, d0
 630:	d49f5301 	ldrle	r5, [pc], #769	; 638 <__code_start__-0x79c8>
 634:	d7000001 	strle	r0, [r0, -r1]
 638:	01000001 	tsteq	r0, r1
 63c:	01d75300 	bicseq	r5, r7, r0, lsl #6
 640:	01f80000 	mvnseq	r0, r0
 644:	00040000 	andeq	r0, r4, r0
 648:	9f5301f3 	svcls	0x005301f3
	...
 654:	00000080 	andeq	r0, r0, r0, lsl #1
 658:	0000009c 	muleq	r0, ip, r0
 65c:	00910002 	addseq	r0, r1, r2
 660:	0000009c 	muleq	r0, ip, r0
 664:	000001d7 	ldrdeq	r0, [r0], -r7
 668:	f8520001 			; <UNDEFINED> instruction: 0xf8520001
 66c:	ff000001 			; <UNDEFINED> instruction: 0xff000001
 670:	01000001 	tsteq	r0, r1
 674:	00005200 	andeq	r5, r0, r0, lsl #4
 678:	00000000 	andeq	r0, r0, r0
 67c:	009c0000 	addseq	r0, ip, r0
 680:	010c0000 	mrseq	r0, (UNDEF: 12)
 684:	00040000 	andeq	r0, r4, r0
 688:	9f7fa091 	svcls	0x007fa091
 68c:	0000010c 	andeq	r0, r0, ip, lsl #2
 690:	00000118 	andeq	r0, r0, r8, lsl r1
 694:	18510001 	ldmdane	r1, {r0}^
 698:	1c000001 	stcne	0, cr0, [r0], {1}
 69c:	01000001 	tsteq	r0, r1
 6a0:	011c5000 	tsteq	ip, r0
 6a4:	01200000 	teqeq	r0, r0
 6a8:	00010000 	andeq	r0, r1, r0
 6ac:	00012051 	andeq	r2, r1, r1, asr r0
 6b0:	00016000 	andeq	r6, r1, r0
 6b4:	50000100 	andpl	r0, r0, r0, lsl #2
 6b8:	00000160 	andeq	r0, r0, r0, ror #2
 6bc:	00000164 	andeq	r0, r0, r4, ror #2
 6c0:	a0910004 	addsge	r0, r1, r4
 6c4:	01649f7f 	smceq	18943	; 0x49ff
 6c8:	016c0000 	cmneq	ip, r0
 6cc:	00010000 	andeq	r0, r1, r0
 6d0:	00016c53 	andeq	r6, r1, r3, asr ip
 6d4:	00017000 	andeq	r7, r1, r0
 6d8:	50000100 	andpl	r0, r0, r0, lsl #2
 6dc:	00000170 	andeq	r0, r0, r0, ror r1
 6e0:	00000174 	andeq	r0, r0, r4, ror r1
 6e4:	74530001 	ldrbvc	r0, [r3], #-1
 6e8:	88000001 	stmdahi	r0, {r0}
 6ec:	01000001 	tsteq	r0, r1
 6f0:	01885000 	orreq	r5, r8, r0
 6f4:	01940000 	orrseq	r0, r4, r0
 6f8:	00030000 	andeq	r0, r3, r0
 6fc:	949f0170 	ldrls	r0, [pc], #368	; 704 <__code_start__-0x78fc>
 700:	a0000001 	andge	r0, r0, r1
 704:	01000001 	tsteq	r0, r1
 708:	01a05000 	moveq	r5, r0
 70c:	01a80000 			; <UNDEFINED> instruction: 0x01a80000
 710:	00040000 	andeq	r0, r4, r0
 714:	9f7fa191 	svcls	0x007fa191
 718:	000001a8 	andeq	r0, r0, r8, lsr #3
 71c:	000001ac 	andeq	r0, r0, ip, lsr #3
 720:	ac500001 	mrrcge	0, 0, r0, r0, cr1	; <UNPREDICTABLE>
 724:	b0000001 	andlt	r0, r0, r1
 728:	04000001 	streq	r0, [r0], #-1
 72c:	7fa09100 	svcvc	0x00a09100
 730:	0001b09f 	muleq	r1, pc, r0	; <UNPREDICTABLE>
 734:	0001b800 	andeq	fp, r1, r0, lsl #16
 738:	53000100 	movwpl	r0, #256	; 0x100
 73c:	000001b8 			; <UNDEFINED> instruction: 0x000001b8
 740:	000001d4 	ldrdeq	r0, [r0], -r4
 744:	d4500001 	ldrble	r0, [r0], #-1
 748:	f8000001 			; <UNDEFINED> instruction: 0xf8000001
 74c:	04000001 	streq	r0, [r0], #-1
 750:	7fa09100 	svcvc	0x00a09100
 754:	0001f89f 	muleq	r1, pc, r8	; <UNPREDICTABLE>
 758:	0001ff00 	andeq	pc, r1, r0, lsl #30
 75c:	50000100 	andpl	r0, r0, r0, lsl #2
	...
 768:	000000a0 	andeq	r0, r0, r0, lsr #1
 76c:	000000ec 	andeq	r0, r0, ip, ror #1
 770:	ec5c0001 	mrrc	0, 0, r0, ip, cr1
 774:	00000000 	andeq	r0, r0, r0
 778:	01000001 	tsteq	r0, r1
 77c:	01005300 	mrseq	r5, LR_irq
 780:	01040000 	mrseq	r0, (UNDEF: 4)
 784:	00010000 	andeq	r0, r1, r0
 788:	0001045c 	andeq	r0, r1, ip, asr r4
 78c:	00010800 	andeq	r0, r1, r0, lsl #16
 790:	53000100 	movwpl	r0, #256	; 0x100
 794:	00000108 	andeq	r0, r0, r8, lsl #2
 798:	00000160 	andeq	r0, r0, r0, ror #2
 79c:	605c0001 	subsvs	r0, ip, r1
 7a0:	64000001 	strvs	r0, [r0], #-1
 7a4:	01000001 	tsteq	r0, r1
 7a8:	01645300 	cmneq	r4, r0, lsl #6
 7ac:	01800000 	orreq	r0, r0, r0
 7b0:	00010000 	andeq	r0, r1, r0
 7b4:	0001805c 	andeq	r8, r1, ip, asr r0
 7b8:	00018400 	andeq	r8, r1, r0, lsl #8
 7bc:	7c000500 	cfstr32vc	mvfx0, [r0], {-0}
 7c0:	9f253400 	svcls	0x00253400
 7c4:	00000184 	andeq	r0, r0, r4, lsl #3
 7c8:	000001a0 	andeq	r0, r0, r0, lsr #3
 7cc:	a05c0001 	subsge	r0, ip, r1
 7d0:	b0000001 	andlt	r0, r0, r1
 7d4:	01000001 	tsteq	r0, r1
 7d8:	01b05300 	lslseq	r5, r0, #6
 7dc:	01c40000 	biceq	r0, r4, r0
 7e0:	00010000 	andeq	r0, r1, r0
 7e4:	0001c45c 	andeq	ip, r1, ip, asr r4
 7e8:	0001cc00 	andeq	ip, r1, r0, lsl #24
 7ec:	7c000500 	cfstr32vc	mvfx0, [r0], {-0}
 7f0:	9f253100 	svcls	0x00253100
 7f4:	000001cc 	andeq	r0, r0, ip, asr #3
 7f8:	000001d4 	ldrdeq	r0, [r0], -r4
 7fc:	d45c0001 	ldrble	r0, [ip], #-1
 800:	d7000001 	strle	r0, [r0, -r1]
 804:	01000001 	tsteq	r0, r1
 808:	01d75300 	bicseq	r5, r7, r0, lsl #6
 80c:	01f80000 	mvnseq	r0, r0
 810:	00040000 	andeq	r0, r4, r0
 814:	9f5301f3 	svcls	0x005301f3
 818:	000001f8 	strdeq	r0, [r0], -r8
 81c:	000001ff 	strdeq	r0, [r0], -pc	; <UNPREDICTABLE>
 820:	005c0001 	subseq	r0, ip, r1
 824:	00000000 	andeq	r0, r0, r0
 828:	ec000000 	stc	0, cr0, [r0], {-0}
 82c:	fc000000 	stc2	0, cr0, [r0], {-0}
 830:	02000000 	andeq	r0, r0, #0
 834:	fc9f3000 	ldc2	0, cr3, [pc], {0}
 838:	04000000 	streq	r0, [r0], #-0
 83c:	02000001 	andeq	r0, r0, #1
 840:	049f3100 	ldreq	r3, [pc], #256	; 848 <__code_start__-0x77b8>
 844:	08000001 	stmdaeq	r0, {r0}
 848:	02000001 	andeq	r0, r0, #1
 84c:	009f3000 	addseq	r3, pc, r0
 850:	00000000 	andeq	r0, r0, r0
 854:	3c000000 	stccc	0, cr0, [r0], {-0}
 858:	4f000002 	svcmi	0x00000002
 85c:	01000002 	tsteq	r0, r2
 860:	024f5000 	subeq	r5, pc, #0
 864:	02700000 	rsbseq	r0, r0, #0
 868:	00040000 	andeq	r0, r4, r0
 86c:	9f5001f3 	svcls	0x005001f3
 870:	00000270 	andeq	r0, r0, r0, ror r2
 874:	000002a4 	andeq	r0, r0, r4, lsr #5
 878:	00500001 	subseq	r0, r0, r1
 87c:	00000000 	andeq	r0, r0, r0
 880:	3c000000 	stccc	0, cr0, [r0], {-0}
 884:	4f000002 	svcmi	0x00000002
 888:	01000002 	tsteq	r0, r2
 88c:	024f5100 	subeq	r5, pc, #0, 2
 890:	02700000 	rsbseq	r0, r0, #0
 894:	00040000 	andeq	r0, r4, r0
 898:	9f5101f3 	svcls	0x005101f3
 89c:	00000270 	andeq	r0, r0, r0, ror r2
 8a0:	000002a4 	andeq	r0, r0, r4, lsr #5
 8a4:	00510001 	subseq	r0, r1, r1
 8a8:	00000000 	andeq	r0, r0, r0
 8ac:	a4000000 	strge	r0, [r0], #-0
 8b0:	d4000002 	strle	r0, [r0], #-2
 8b4:	01000002 	tsteq	r0, r2
 8b8:	02d45000 	sbcseq	r5, r4, #0
 8bc:	05580000 	ldrbeq	r0, [r8, #-0]
 8c0:	00010000 	andeq	r0, r1, r0
 8c4:	0005585b 	andeq	r5, r5, fp, asr r8
 8c8:	00057800 	andeq	r7, r5, r0, lsl #16
 8cc:	f3000400 	vshl.u8	d0, d0, d0
 8d0:	009f5001 	addseq	r5, pc, r1
 8d4:	00000000 	andeq	r0, r0, r0
 8d8:	a4000000 	strge	r0, [r0], #-0
 8dc:	bc000002 	stclt	0, cr0, [r0], {2}
 8e0:	01000002 	tsteq	r0, r2
 8e4:	02bc5100 	adcseq	r5, ip, #0, 2
 8e8:	02d40000 	sbcseq	r0, r4, #0
 8ec:	00030000 	andeq	r0, r3, r0
 8f0:	d49f0171 	ldrle	r0, [pc], #369	; 8f8 <__code_start__-0x7708>
 8f4:	78000002 	stmdavc	r0, {r1}
 8f8:	04000005 	streq	r0, [r0], #-5
 8fc:	5101f300 	mrspl	pc, SP_irq	; <UNPREDICTABLE>
 900:	0000009f 	muleq	r0, pc, r0	; <UNPREDICTABLE>
 904:	00000000 	andeq	r0, r0, r0
 908:	0002a400 	andeq	sl, r2, r0, lsl #8
 90c:	0002d400 	andeq	sp, r2, r0, lsl #8
 910:	52000100 	andpl	r0, r0, #0, 2
 914:	000002d4 	ldrdeq	r0, [r0], -r4
 918:	00000558 	andeq	r0, r0, r8, asr r5
 91c:	00560001 	subseq	r0, r6, r1
 920:	00000000 	andeq	r0, r0, r0
 924:	a4000000 	strge	r0, [r0], #-0
 928:	c4000002 	strgt	r0, [r0], #-2
 92c:	01000002 	tsteq	r0, r2
 930:	00005300 	andeq	r5, r0, r0, lsl #6
 934:	00000000 	andeq	r0, r0, r0
 938:	02b80000 	adcseq	r0, r8, #0
 93c:	02d40000 	sbcseq	r0, r4, #0
 940:	00010000 	andeq	r0, r1, r0
 944:	0002d450 	andeq	sp, r2, r0, asr r4
 948:	0002d800 	andeq	sp, r2, r0, lsl #16
 94c:	54000100 	strpl	r0, [r0], #-256	; 0x100
 950:	000002d8 	ldrdeq	r0, [r0], -r8
 954:	000002e4 	andeq	r0, r0, r4, ror #5
 958:	01740003 	cmneq	r4, r3
 95c:	0002e49f 	muleq	r2, pc, r4	; <UNPREDICTABLE>
 960:	0002f000 	andeq	pc, r2, r0
 964:	54000100 	strpl	r0, [r0], #-256	; 0x100
 968:	000002f0 	strdeq	r0, [r0], -r0	; <UNPREDICTABLE>
 96c:	000002fc 	strdeq	r0, [r0], -ip
 970:	01740003 	cmneq	r4, r3
 974:	0002fc9f 	muleq	r2, pc, ip	; <UNPREDICTABLE>
 978:	00050c00 	andeq	r0, r5, r0, lsl #24
 97c:	54000100 	strpl	r0, [r0], #-256	; 0x100
 980:	0000050c 	andeq	r0, r0, ip, lsl #10
 984:	00000518 	andeq	r0, r0, r8, lsl r5
 988:	01740003 	cmneq	r4, r3
 98c:	0005189f 	muleq	r5, pc, r8	; <UNPREDICTABLE>
 990:	00054400 	andeq	r4, r5, r0, lsl #8
 994:	54000100 	strpl	r0, [r0], #-256	; 0x100
 998:	00000544 	andeq	r0, r0, r4, asr #10
 99c:	00000550 	andeq	r0, r0, r0, asr r5
 9a0:	50500001 	subspl	r0, r0, r1
 9a4:	58000005 	stmdapl	r0, {r0, r2}
 9a8:	03000005 	movweq	r0, #5
 9ac:	9f017400 	svcls	0x00017400
	...
 9b8:	000002c0 	andeq	r0, r0, r0, asr #5
 9bc:	00000558 	andeq	r0, r0, r8, asr r5
 9c0:	58580001 	ldmdapl	r8, {r0}^
 9c4:	78000005 	stmdavc	r0, {r0, r2}
 9c8:	0a000005 	beq	9e4 <__code_start__-0x761c>
 9cc:	5101f300 	mrspl	pc, SP_irq	; <UNPREDICTABLE>
 9d0:	225001f3 	subscs	r0, r0, #-1073741764	; 0xc000003c
 9d4:	009f1c31 	addseq	r1, pc, r1, lsr ip	; <UNPREDICTABLE>
 9d8:	00000000 	andeq	r0, r0, r0
 9dc:	c8000000 	stmdagt	r0, {}	; <UNPREDICTABLE>
 9e0:	d4000002 	strle	r0, [r0], #-2
 9e4:	01000002 	tsteq	r0, r2
 9e8:	02d45200 	sbcseq	r5, r4, #0, 4
 9ec:	05780000 	ldrbeq	r0, [r8, #-0]!
 9f0:	00030000 	andeq	r0, r3, r0
 9f4:	007ecc91 			; <UNDEFINED> instruction: 0x007ecc91
 9f8:	00000000 	andeq	r0, r0, r0
 9fc:	10000000 	andne	r0, r0, r0
 a00:	14000004 	strne	r0, [r0], #-4
 a04:	01000004 	tsteq	r0, r4
 a08:	04385000 	ldrteq	r5, [r8], #-0
 a0c:	043c0000 	ldrteq	r0, [ip], #-0
 a10:	00010000 	andeq	r0, r1, r0
 a14:	00046050 	andeq	r6, r4, r0, asr r0
 a18:	00046400 	andeq	r6, r4, r0, lsl #8
 a1c:	50000100 	andpl	r0, r0, r0, lsl #2
 a20:	00000488 	andeq	r0, r0, r8, lsl #9
 a24:	0000048c 	andeq	r0, r0, ip, lsl #9
 a28:	94500001 	ldrbls	r0, [r0], #-1
 a2c:	98000004 	stmdals	r0, {r2}
 a30:	01000004 	tsteq	r0, r4
 a34:	04bc5000 	ldrteq	r5, [ip], #0
 a38:	04c00000 	strbeq	r0, [r0], #0
 a3c:	00010000 	andeq	r0, r1, r0
 a40:	00050450 	andeq	r0, r5, r0, asr r4
 a44:	00052c00 	andeq	r2, r5, r0, lsl #24
 a48:	50000100 	andpl	r0, r0, r0, lsl #2
	...
 a54:	00000304 	andeq	r0, r0, r4, lsl #6
 a58:	0000030c 	andeq	r0, r0, ip, lsl #6
 a5c:	9f300002 	svcls	0x00300002
 a60:	0000030c 	andeq	r0, r0, ip, lsl #6
 a64:	00000310 	andeq	r0, r0, r0, lsl r3
 a68:	1c570001 	mrrcne	0, 0, r0, r7, cr1
 a6c:	2c000003 	stccs	0, cr0, [r0], {3}
 a70:	01000005 	tsteq	r0, r5
 a74:	00005700 	andeq	r5, r0, r0, lsl #14
 a78:	00000000 	andeq	r0, r0, r0
 a7c:	00140000 	andseq	r0, r4, r0
 a80:	001c0000 	andseq	r0, ip, r0
 a84:	00030000 	andeq	r0, r3, r0
 a88:	1c9f0473 	cfldrsne	mvf0, [pc], {115}	; 0x73
 a8c:	27000000 	strcs	r0, [r0, -r0]
 a90:	01000000 	mrseq	r0, (UNDEF: 0)
 a94:	00005300 	andeq	r5, r0, r0, lsl #6
	...
 aa0:	000f0000 	andeq	r0, pc, r0
 aa4:	00010000 	andeq	r0, r1, r0
 aa8:	00000f50 	andeq	r0, r0, r0, asr pc
 aac:	00004400 	andeq	r4, r0, r0, lsl #8
 ab0:	54000100 	strpl	r0, [r0], #-256	; 0x100
	...
 ac0:	0000000f 	andeq	r0, r0, pc
 ac4:	0f500001 	svceq	0x00500001
 ac8:	44000000 	strmi	r0, [r0], #-0
 acc:	01000000 	mrseq	r0, (UNDEF: 0)
 ad0:	00005400 	andeq	r5, r0, r0, lsl #8
	...
 adc:	000f0000 	andeq	r0, pc, r0
 ae0:	00010000 	andeq	r0, r1, r0
 ae4:	00000f50 	andeq	r0, r0, r0, asr pc
 ae8:	00004400 	andeq	r4, r0, r0, lsl #8
 aec:	54000100 	strpl	r0, [r0], #-256	; 0x100
	...
 afc:	0000000f 	andeq	r0, r0, pc
 b00:	0f500001 	svceq	0x00500001
 b04:	44000000 	strmi	r0, [r0], #-0
 b08:	01000000 	mrseq	r0, (UNDEF: 0)
 b0c:	00005400 	andeq	r5, r0, r0, lsl #8
 b10:	00000000 	andeq	r0, r0, r0
 b14:	00340000 	eorseq	r0, r4, r0
 b18:	00400000 	subeq	r0, r0, r0
 b1c:	00020000 	andeq	r0, r2, r0
 b20:	00409f30 	subeq	r9, r0, r0, lsr pc
 b24:	006c0000 	rsbeq	r0, ip, r0
 b28:	00010000 	andeq	r0, r1, r0
 b2c:	00000053 	andeq	r0, r0, r3, asr r0
 b30:	00000000 	andeq	r0, r0, r0
 b34:	008d6000 	addeq	r6, sp, r0
 b38:	008d6400 	addeq	r6, sp, r0, lsl #8
 b3c:	30000200 	andcc	r0, r0, r0, lsl #4
 b40:	008d649f 	umulleq	r6, sp, pc, r4	; <UNPREDICTABLE>
 b44:	008d6800 	addeq	r6, sp, r0, lsl #16
 b48:	50000100 	andpl	r0, r0, r0, lsl #2
	...
 b54:	00008d78 	andeq	r8, r0, r8, ror sp
 b58:	00008d7c 	andeq	r8, r0, ip, ror sp
 b5c:	9f300002 	svcls	0x00300002
 b60:	00008d7c 	andeq	r8, r0, ip, ror sp
 b64:	00008d80 	andeq	r8, r0, r0, lsl #27
 b68:	84530001 	ldrbhi	r0, [r3], #-1
 b6c:	8c00008d 	stchi	0, cr0, [r0], {141}	; 0x8d
 b70:	0100008d 	smlabbeq	r0, sp, r0, r0
 b74:	00005300 	andeq	r5, r0, r0, lsl #6
	...
 b80:	00040000 	andeq	r0, r4, r0
 b84:	00010000 	andeq	r0, r1, r0
 b88:	00000450 	andeq	r0, r0, r0, asr r4
 b8c:	00000c00 	andeq	r0, r0, r0, lsl #24
 b90:	53000100 	movwpl	r0, #256	; 0x100
 b94:	0000000c 	andeq	r0, r0, ip
 b98:	00000010 	andeq	r0, r0, r0, lsl r0
 b9c:	10500001 	subsne	r0, r0, r1
 ba0:	1c000000 	stcne	0, cr0, [r0], {-0}
 ba4:	01000000 	mrseq	r0, (UNDEF: 0)
 ba8:	00005300 	andeq	r5, r0, r0, lsl #6
 bac:	00000000 	andeq	r0, r0, r0
 bb0:	00400000 	subeq	r0, r0, r0
 bb4:	00430000 	subeq	r0, r3, r0
 bb8:	00010000 	andeq	r0, r1, r0
 bbc:	00004350 	andeq	r4, r0, r0, asr r3
 bc0:	00004c00 	andeq	r4, r0, r0, lsl #24
 bc4:	54000100 	strpl	r0, [r0], #-256	; 0x100
	...
 bd0:	0000004c 	andeq	r0, r0, ip, asr #32
 bd4:	00000057 	andeq	r0, r0, r7, asr r0
 bd8:	57500001 	ldrbpl	r0, [r0, -r1]
 bdc:	70000000 	andvc	r0, r0, r0
 be0:	01000000 	mrseq	r0, (UNDEF: 0)
 be4:	00005500 	andeq	r5, r0, r0, lsl #10
 be8:	00000000 	andeq	r0, r0, r0
 bec:	00600000 	rsbeq	r0, r0, r0
 bf0:	00640000 	rsbeq	r0, r4, r0
 bf4:	00010000 	andeq	r0, r1, r0
 bf8:	00000050 	andeq	r0, r0, r0, asr r0
 bfc:	00000000 	andeq	r0, r0, r0
 c00:	00007000 	andeq	r7, r0, r0
 c04:	00007c00 	andeq	r7, r0, r0, lsl #24
 c08:	50000100 	andpl	r0, r0, r0, lsl #2
 c0c:	0000007c 	andeq	r0, r0, ip, ror r0
 c10:	00000084 	andeq	r0, r0, r4, lsl #1
 c14:	01f30004 	mvnseq	r0, r4
 c18:	00009f50 	andeq	r9, r0, r0, asr pc
 c1c:	00000000 	andeq	r0, r0, r0
 c20:	00840000 	addeq	r0, r4, r0
 c24:	00900000 	addseq	r0, r0, r0
 c28:	00010000 	andeq	r0, r1, r0
 c2c:	00009050 	andeq	r9, r0, r0, asr r0
 c30:	00009800 	andeq	r9, r0, r0, lsl #16
 c34:	f3000400 	vshl.u8	d0, d0, d0
 c38:	009f5001 	addseq	r5, pc, r1
 c3c:	00000000 	andeq	r0, r0, r0
 c40:	38000000 	stmdacc	r0, {}	; <UNPREDICTABLE>
 c44:	43000001 	movwmi	r0, #1
 c48:	01000001 	tsteq	r0, r1
 c4c:	01435000 	mrseq	r5, (UNDEF: 67)
 c50:	01680000 	cmneq	r8, r0
 c54:	00010000 	andeq	r0, r1, r0
 c58:	00000054 	andeq	r0, r0, r4, asr r0
	...
 c64:	00000f00 	andeq	r0, r0, r0, lsl #30
 c68:	50000100 	andpl	r0, r0, r0, lsl #2
 c6c:	0000000f 	andeq	r0, r0, pc
 c70:	00000020 	andeq	r0, r0, r0, lsr #32
 c74:	00540001 	subseq	r0, r4, r1
	...
 c80:	0f000000 	svceq	0x00000000
 c84:	01000000 	mrseq	r0, (UNDEF: 0)
 c88:	000f5100 	andeq	r5, pc, r0, lsl #2
 c8c:	00200000 	eoreq	r0, r0, r0
 c90:	00010000 	andeq	r0, r1, r0
 c94:	00000055 	andeq	r0, r0, r5, asr r0
 c98:	00000000 	andeq	r0, r0, r0
 c9c:	0000ec00 	andeq	lr, r0, r0, lsl #24
 ca0:	00010400 	andeq	r0, r1, r0, lsl #8
 ca4:	50000100 	andpl	r0, r0, r0, lsl #2
 ca8:	00000104 	andeq	r0, r0, r4, lsl #2
 cac:	00000114 	andeq	r0, r0, r4, lsl r1
 cb0:	01f30004 	mvnseq	r0, r4
 cb4:	01149f50 	tsteq	r4, r0, asr pc
 cb8:	01180000 	tsteq	r8, r0
 cbc:	00010000 	andeq	r0, r1, r0
 cc0:	00011850 	andeq	r1, r1, r0, asr r8
 cc4:	00012000 	andeq	r2, r1, r0
 cc8:	f3000400 	vshl.u8	d0, d0, d0
 ccc:	009f5001 	addseq	r5, pc, r1
 cd0:	00000000 	andeq	r0, r0, r0
 cd4:	f8000000 			; <UNDEFINED> instruction: 0xf8000000
 cd8:	04000000 	streq	r0, [r0], #-0
 cdc:	0b000001 	bleq	ce8 <__code_start__-0x7318>
 ce0:	35007000 	strcc	r7, [r0, #-0]
 ce4:	80b42325 	adcshi	r2, r4, r5, lsr #6
 ce8:	9f028180 	svcls	0x00028180
 cec:	00000104 	andeq	r0, r0, r4, lsl #2
 cf0:	00000107 	andeq	r0, r0, r7, lsl #2
 cf4:	07500001 	ldrbeq	r0, [r0, -r1]
 cf8:	14000001 	strne	r0, [r0], #-1
 cfc:	0c000001 	stceq	0, cr0, [r0], {1}
 d00:	5001f300 	andpl	pc, r1, r0, lsl #6
 d04:	b4232535 	strtlt	r2, [r3], #-1333	; 0x535
 d08:	02818080 	addeq	r8, r1, #128	; 0x80
 d0c:	0000009f 	muleq	r0, pc, r0	; <UNPREDICTABLE>
 d10:	00000000 	andeq	r0, r0, r0
 d14:	0000fc00 	andeq	pc, r0, r0, lsl #24
 d18:	00011400 	andeq	r1, r1, r0, lsl #8
 d1c:	54000100 	strpl	r0, [r0], #-256	; 0x100
	...
 d28:	000000d0 	ldrdeq	r0, [r0], -r0	; <UNPREDICTABLE>
 d2c:	000000df 	ldrdeq	r0, [r0], -pc	; <UNPREDICTABLE>
 d30:	df500001 	svcle	0x00500001
 d34:	e4000000 	str	r0, [r0], #-0
 d38:	04000000 	streq	r0, [r0], #-0
 d3c:	5001f300 	andpl	pc, r1, r0, lsl #6
 d40:	0000e49f 	muleq	r0, pc, r4	; <UNPREDICTABLE>
 d44:	0000e700 	andeq	lr, r0, r0, lsl #14
 d48:	50000100 	andpl	r0, r0, r0, lsl #2
 d4c:	000000e7 	andeq	r0, r0, r7, ror #1
 d50:	000000ec 	andeq	r0, r0, ip, ror #1
 d54:	01f30004 	mvnseq	r0, r4
 d58:	00009f50 	andeq	r9, r0, r0, asr pc
 d5c:	00000000 	andeq	r0, r0, r0
 d60:	00d00000 	sbcseq	r0, r0, r0
 d64:	00df0000 	sbcseq	r0, pc, r0
 d68:	00010000 	andeq	r0, r1, r0
 d6c:	0000df51 	andeq	sp, r0, r1, asr pc
 d70:	0000e400 	andeq	lr, r0, r0, lsl #8
 d74:	f3000400 	vshl.u8	d0, d0, d0
 d78:	e49f5101 	ldr	r5, [pc], #257	; d80 <__code_start__-0x7280>
 d7c:	e7000000 	str	r0, [r0, -r0]
 d80:	01000000 	mrseq	r0, (UNDEF: 0)
 d84:	00e75100 	rsceq	r5, r7, r0, lsl #2
 d88:	00ec0000 	rsceq	r0, ip, r0
 d8c:	00040000 	andeq	r0, r4, r0
 d90:	9f5101f3 	svcls	0x005101f3
	...
 d9c:	000000c0 	andeq	r0, r0, r0, asr #1
 da0:	000000cb 	andeq	r0, r0, fp, asr #1
 da4:	cb500001 	blgt	1400db0 <__bss_end__+0x13f7328>
 da8:	d0000000 	andle	r0, r0, r0
 dac:	04000000 	streq	r0, [r0], #-0
 db0:	5001f300 	andpl	pc, r1, r0, lsl #6
 db4:	0000009f 	muleq	r0, pc, r0	; <UNPREDICTABLE>
 db8:	00000000 	andeq	r0, r0, r0
 dbc:	00009c00 	andeq	r9, r0, r0, lsl #24
 dc0:	0000b400 	andeq	fp, r0, r0, lsl #8
 dc4:	50000100 	andpl	r0, r0, r0, lsl #2
 dc8:	000000b4 	strheq	r0, [r0], -r4
 dcc:	000000c0 	andeq	r0, r0, r0, asr #1
 dd0:	01f30004 	mvnseq	r0, r4
 dd4:	00009f50 	andeq	r9, r0, r0, asr pc
 dd8:	00000000 	andeq	r0, r0, r0
 ddc:	00780000 	rsbseq	r0, r8, r0
 de0:	00900000 	addseq	r0, r0, r0
 de4:	00010000 	andeq	r0, r1, r0
 de8:	00009050 	andeq	r9, r0, r0, asr r0
 dec:	00009c00 	andeq	r9, r0, r0, lsl #24
 df0:	f3000400 	vshl.u8	d0, d0, d0
 df4:	009f5001 	addseq	r5, pc, r1
 df8:	00000000 	andeq	r0, r0, r0
 dfc:	68000000 	stmdavs	r0, {}	; <UNPREDICTABLE>
 e00:	73000000 	movwvc	r0, #0
 e04:	01000000 	mrseq	r0, (UNDEF: 0)
 e08:	00735000 	rsbseq	r5, r3, r0
 e0c:	00780000 	rsbseq	r0, r8, r0
 e10:	00040000 	andeq	r0, r4, r0
 e14:	9f5001f3 	svcls	0x005001f3
	...
 e24:	00000048 	andeq	r0, r0, r8, asr #32
 e28:	48500001 	ldmdami	r0, {r0}^
 e2c:	68000000 	stmdavs	r0, {}	; <UNPREDICTABLE>
 e30:	04000000 	streq	r0, [r0], #-0
 e34:	5001f300 	andpl	pc, r1, r0, lsl #6
 e38:	0000009f 	muleq	r0, pc, r0	; <UNPREDICTABLE>
	...
 e44:	00004b00 	andeq	r4, r0, r0, lsl #22
 e48:	51000100 	mrspl	r0, (UNDEF: 16)
 e4c:	0000004b 	andeq	r0, r0, fp, asr #32
 e50:	00000068 	andeq	r0, r0, r8, rrx
 e54:	01f30004 	mvnseq	r0, r4
 e58:	00009f51 	andeq	r9, r0, r1, asr pc
 e5c:	00000000 	andeq	r0, r0, r0
 e60:	004c0000 	subeq	r0, ip, r0
 e64:	00540000 	subseq	r0, r4, r0
 e68:	00010000 	andeq	r0, r1, r0
 e6c:	00005450 	andeq	r5, r0, r0, asr r4
 e70:	00005800 	andeq	r5, r0, r0, lsl #16
 e74:	75000900 	strvc	r0, [r0, #-2304]	; 0x900
 e78:	24007400 	strcs	r7, [r0], #-1024	; 0x400
 e7c:	9f210071 	svcls	0x00210071
 e80:	00000058 	andeq	r0, r0, r8, asr r0
 e84:	0000005f 	andeq	r0, r0, pc, asr r0
 e88:	00510001 	subseq	r0, r1, r1
 e8c:	00000000 	andeq	r0, r0, r0
 e90:	Address 0x0000000000000e90 is out of bounds.


Disassembly of section .debug_aranges:

00000000 <.debug_aranges>:
   0:	0000001c 	andeq	r0, r0, ip, lsl r0
   4:	00000002 	andeq	r0, r0, r2
   8:	00040000 	andeq	r0, r4, r0
   c:	00000000 	andeq	r0, r0, r0
  10:	00008010 	andeq	r8, r0, r0, lsl r0
  14:	000000f4 	strdeq	r0, [r0], -r4
	...
  20:	0000001c 	andeq	r0, r0, ip, lsl r0
  24:	04290002 	strteq	r0, [r9], #-2
  28:	00040000 	andeq	r0, r4, r0
  2c:	00000000 	andeq	r0, r0, r0
  30:	00008104 	andeq	r8, r0, r4, lsl #2
  34:	00000344 	andeq	r0, r0, r4, asr #6
	...
  40:	0000001c 	andeq	r0, r0, ip, lsl r0
  44:	0eea0002 	cdpeq	0, 14, cr0, cr10, cr2, {0}
  48:	00040000 	andeq	r0, r4, r0
  4c:	00000000 	andeq	r0, r0, r0
  50:	00008538 	andeq	r8, r0, r8, lsr r5
  54:	00000058 	andeq	r0, r0, r8, asr r0
	...
  60:	0000001c 	andeq	r0, r0, ip, lsl r0
  64:	107f0002 	rsbsne	r0, pc, r2
  68:	00040000 	andeq	r0, r4, r0
  6c:	00000000 	andeq	r0, r0, r0
  70:	00008590 	muleq	r0, r0, r5
  74:	0000003c 	andeq	r0, r0, ip, lsr r0
	...
  80:	0000001c 	andeq	r0, r0, ip, lsl r0
  84:	11960002 	orrsne	r0, r6, r2
  88:	00040000 	andeq	r0, r4, r0
  8c:	00000000 	andeq	r0, r0, r0
  90:	000085cc 	andeq	r8, r0, ip, asr #11
  94:	00000034 	andeq	r0, r0, r4, lsr r0
	...
  a0:	0000001c 	andeq	r0, r0, ip, lsl r0
  a4:	12880002 	addne	r0, r8, #2
  a8:	00040000 	andeq	r0, r4, r0
  ac:	00000000 	andeq	r0, r0, r0
  b0:	00008600 	andeq	r8, r0, r0, lsl #12
  b4:	00000578 	andeq	r0, r0, r8, ror r5
	...
  c0:	0000001c 	andeq	r0, r0, ip, lsl r0
  c4:	19710002 	ldmdbne	r1!, {r1}^
  c8:	00040000 	andeq	r0, r4, r0
  cc:	00000000 	andeq	r0, r0, r0
  d0:	00008b78 	andeq	r8, r0, r8, ror fp
  d4:	0000002c 	andeq	r0, r0, ip, lsr #32
	...
  e0:	0000001c 	andeq	r0, r0, ip, lsl r0
  e4:	1a840002 	bne	fe1000f4 <__bss_end__+0xfe0f666c>
  e8:	00040000 	andeq	r0, r4, r0
  ec:	00000000 	andeq	r0, r0, r0
  f0:	00008ba4 	andeq	r8, r0, r4, lsr #23
  f4:	00000038 	andeq	r0, r0, r8, lsr r0
	...
 100:	0000001c 	andeq	r0, r0, ip, lsl r0
 104:	1b970002 	blne	fe5c0114 <__bss_end__+0xfe5b668c>
 108:	00040000 	andeq	r0, r4, r0
 10c:	00000000 	andeq	r0, r0, r0
 110:	00008bdc 	ldrdeq	r8, [r0], -ip
 114:	00000044 	andeq	r0, r0, r4, asr #32
	...
 120:	0000001c 	andeq	r0, r0, ip, lsl r0
 124:	1cd90002 	ldclne	0, cr0, [r9], {2}
 128:	00040000 	andeq	r0, r4, r0
 12c:	00000000 	andeq	r0, r0, r0
 130:	00008c20 	andeq	r8, r0, r0, lsr #24
 134:	00000044 	andeq	r0, r0, r4, asr #32
	...
 140:	0000001c 	andeq	r0, r0, ip, lsl r0
 144:	1e1b0002 	cdpne	0, 1, cr0, cr11, cr2, {0}
 148:	00040000 	andeq	r0, r4, r0
 14c:	00000000 	andeq	r0, r0, r0
 150:	00008c64 	andeq	r8, r0, r4, ror #24
 154:	00000044 	andeq	r0, r0, r4, asr #32
	...
 160:	0000001c 	andeq	r0, r0, ip, lsl r0
 164:	1f5d0002 	svcne	0x005d0002
 168:	00040000 	andeq	r0, r4, r0
 16c:	00000000 	andeq	r0, r0, r0
 170:	00008ca8 	andeq	r8, r0, r8, lsr #25
 174:	00000044 	andeq	r0, r0, r4, asr #32
	...
 180:	0000001c 	andeq	r0, r0, ip, lsl r0
 184:	209f0002 	addscs	r0, pc, r2
 188:	00040000 	andeq	r0, r4, r0
 18c:	00000000 	andeq	r0, r0, r0
 190:	00008cec 	andeq	r8, r0, ip, ror #25
 194:	00000008 	andeq	r0, r0, r8
	...
 1a0:	0000001c 	andeq	r0, r0, ip, lsl r0
 1a4:	213b0002 	teqcs	fp, r2
 1a8:	00040000 	andeq	r0, r4, r0
 1ac:	00000000 	andeq	r0, r0, r0
 1b0:	00008cf4 	strdeq	r8, [r0], -r4
 1b4:	0000006c 	andeq	r0, r0, ip, rrx
	...
 1c0:	0000001c 	andeq	r0, r0, ip, lsl r0
 1c4:	23160002 	tstcs	r6, #2
 1c8:	00040000 	andeq	r0, r4, r0
 1cc:	00000000 	andeq	r0, r0, r0
 1d0:	00008d60 	andeq	r8, r0, r0, ror #26
 1d4:	00000074 	andeq	r0, r0, r4, ror r0
	...
 1e0:	0000001c 	andeq	r0, r0, ip, lsl r0
 1e4:	24c70002 	strbcs	r0, [r7], #2
 1e8:	00040000 	andeq	r0, r4, r0
 1ec:	00000000 	andeq	r0, r0, r0
 1f0:	00008dd4 	ldrdeq	r8, [r0], -r4
 1f4:	00000098 	muleq	r0, r8, r0
	...
 200:	0000001c 	andeq	r0, r0, ip, lsl r0
 204:	26c20002 	strbcs	r0, [r2], r2
 208:	00040000 	andeq	r0, r4, r0
 20c:	00000000 	andeq	r0, r0, r0
 210:	00008ed0 	ldrdeq	r8, [r0], -r0
 214:	00000178 	andeq	r0, r0, r8, ror r1
	...
 220:	0000001c 	andeq	r0, r0, ip, lsl r0
 224:	338b0002 	orrcc	r0, fp, #2
 228:	00040000 	andeq	r0, r4, r0
 22c:	00000000 	andeq	r0, r0, r0
 230:	00009048 	andeq	r9, r0, r8, asr #32
 234:	00000120 	andeq	r0, r0, r0, lsr #2
	...

Disassembly of section .debug_line:

00000000 <.debug_line>:
       0:	00000134 	andeq	r0, r0, r4, lsr r1
       4:	00ee0002 	rsceq	r0, lr, r2
       8:	01020000 	mrseq	r0, (UNDEF: 2)
       c:	000d0efb 	strdeq	r0, [sp], -fp
      10:	01010101 	tsteq	r1, r1, lsl #2
      14:	01000000 	mrseq	r0, (UNDEF: 0)
      18:	74010000 	strvc	r0, [r1], #-0
      1c:	73747365 	cmnvc	r4, #-1811939327	; 0x94000001
      20:	2f002e00 	svccs	0x00002e00
      24:	2f727375 	svccs	0x00727375
      28:	61636f6c 	cmnvs	r3, ip, ror #30
      2c:	65432f6c 	strbvs	r2, [r3, #-3948]	; 0xf6c
      30:	72616c6c 	rsbvc	r6, r1, #108, 24	; 0x6c00
      34:	6d72612f 	ldfvse	f6, [r2, #-188]!	; 0xffffff44
      38:	6e6f6e2d 	cdpvs	14, 6, cr6, cr15, cr13, {1}
      3c:	61652d65 	cmnvs	r5, r5, ror #26
      40:	342f6962 	strtcc	r6, [pc], #-2402	; 48 <__code_start__-0x7fb8>
      44:	332e382e 	teqcc	lr, #3014656	; 0x2e0000
      48:	3173632d 	cmncc	r3, sp, lsr #6
      4c:	2f653037 	svccs	0x00653037
      50:	2f62696c 	svccs	0x0062696c
      54:	2f636367 	svccs	0x00636367
      58:	2d6d7261 	sfmcs	f7, 2, [sp, #-388]!	; 0xfffffe7c
      5c:	656e6f6e 	strbvs	r6, [lr, #-3950]!	; 0xf6e
      60:	6261652d 	rsbvs	r6, r1, #188743680	; 0xb400000
      64:	2e342f69 	cdpcs	15, 3, cr2, cr4, cr9, {3}
      68:	2f332e38 	svccs	0x00332e38
      6c:	6c636e69 	stclvs	14, cr6, [r3], #-420	; 0xfffffe5c
      70:	00656475 	rsbeq	r6, r5, r5, ror r4
      74:	6573552f 	ldrbvs	r5, [r3, #-1327]!	; 0x52f
      78:	622f7372 	eorvs	r7, pc, #-939524095	; 0xc8000001
      7c:	6e616972 	mcrvs	9, 3, r6, cr1, cr2, {3}
      80:	2f6e756a 	svccs	0x006e756a
      84:	6b736544 	blvs	1cd959c <__bss_end__+0x1ccfb14>
      88:	2f706f74 	svccs	0x00706f74
      8c:	6f686373 	svcvs	0x00686373
      90:	532f6c6f 	teqpl	pc, #28416	; 0x6f00
      94:	6e697270 	mcrvs	2, 3, r7, cr9, cr0, {3}
      98:	32393167 	eorscc	r3, r9, #-1073741799	; 0xc0000019
      9c:	53432f30 	movtpl	r2, #16176	; 0x3f30
      a0:	4c303432 	cfldrsmi	mvf3, [r0], #-200	; 0xffffff38
      a4:	73632f58 	cmnvc	r3, #88, 30	; 0x160
      a8:	6c303432 	cfldrsvs	mvf3, [r0], #-200	; 0xffffff38
      ac:	30322d78 	eorscc	r2, r2, r8, ror sp
      b0:	2f727073 	svccs	0x00727073
      b4:	7062696c 	rsbvc	r6, r2, ip, ror #18
      b8:	6e692f69 	cdpvs	15, 6, cr2, cr9, cr9, {3}
      bc:	64756c63 	ldrbtvs	r6, [r5], #-3171	; 0xc63
      c0:	74000065 	strvc	r0, [r0], #-101	; 0x65
      c4:	32747365 	rsbscc	r7, r4, #-1811939327	; 0x94000001
      c8:	0100632e 	tsteq	r0, lr, lsr #6
      cc:	70630000 	rsbvc	r0, r3, r0
      d0:	642d3431 	strtvs	r3, [sp], #-1073	; 0x431
      d4:	67756265 	ldrbvs	r6, [r5, -r5, ror #4]!
      d8:	0200682e 	andeq	r6, r0, #3014656	; 0x2e0000
      dc:	74730000 	ldrbtvc	r0, [r3], #-0
      e0:	746e6964 	strbtvc	r6, [lr], #-2404	; 0x964
      e4:	6363672d 	cmnvs	r3, #11796480	; 0xb40000
      e8:	0300682e 	movweq	r6, #2094	; 0x82e
      ec:	70720000 	rsbsvc	r0, r2, r0
      f0:	00682e69 	rsbeq	r2, r8, r9, ror #28
      f4:	00000004 	andeq	r0, r0, r4
      f8:	10020500 	andne	r0, r2, r0, lsl #10
      fc:	17000080 	strne	r0, [r0, -r0, lsl #1]
     100:	2f134c13 	svccs	0x00134c13
     104:	03020430 	movweq	r0, #9264	; 0x2430
     108:	046600d2 	strbteq	r0, [r6], #-210	; 0xd2
     10c:	7faf0301 	svcvc	0x00af0301
     110:	0302042e 	movweq	r0, #9262	; 0x242e
     114:	046600c8 	strbteq	r0, [r6], #-200	; 0xc8
     118:	7fb80301 	svcvc	0x00b80301
     11c:	0302042e 	movweq	r0, #9262	; 0x242e
     120:	048200d1 	streq	r0, [r2], #209	; 0xd1
     124:	7fb40301 	svcvc	0x00b40301
     128:	4bd74b2e 	blmi	ff5d2de8 <__bss_end__+0xff5c9360>
     12c:	67312ff5 			; <UNDEFINED> instruction: 0x67312ff5
     130:	024b4b68 	subeq	r4, fp, #104, 22	; 0x1a000
     134:	0101001a 	tsteq	r1, sl, lsl r0
     138:	000001ce 	andeq	r0, r0, lr, asr #3
     13c:	00ff0002 	rscseq	r0, pc, r2
     140:	01020000 	mrseq	r0, (UNDEF: 2)
     144:	000d0efb 	strdeq	r0, [sp], -fp
     148:	01010101 	tsteq	r1, r1, lsl #2
     14c:	01000000 	mrseq	r0, (UNDEF: 0)
     150:	2f010000 	svccs	0x00010000
     154:	2f727375 	svccs	0x00727375
     158:	61636f6c 	cmnvs	r3, ip, ror #30
     15c:	65432f6c 	strbvs	r2, [r3, #-3948]	; 0xf6c
     160:	72616c6c 	rsbvc	r6, r1, #108, 24	; 0x6c00
     164:	6d72612f 	ldfvse	f6, [r2, #-188]!	; 0xffffff44
     168:	6e6f6e2d 	cdpvs	14, 6, cr6, cr15, cr13, {1}
     16c:	61652d65 	cmnvs	r5, r5, ror #26
     170:	342f6962 	strtcc	r6, [pc], #-2402	; 178 <__code_start__-0x7e88>
     174:	332e382e 	teqcc	lr, #3014656	; 0x2e0000
     178:	3173632d 	cmncc	r3, sp, lsr #6
     17c:	2f653037 	svccs	0x00653037
     180:	2f62696c 	svccs	0x0062696c
     184:	2f636367 	svccs	0x00636367
     188:	2d6d7261 	sfmcs	f7, 2, [sp, #-388]!	; 0xfffffe7c
     18c:	656e6f6e 	strbvs	r6, [lr, #-3950]!	; 0xf6e
     190:	6261652d 	rsbvs	r6, r1, #188743680	; 0xb400000
     194:	2e342f69 	cdpcs	15, 3, cr2, cr4, cr9, {3}
     198:	2f332e38 	svccs	0x00332e38
     19c:	6c636e69 	stclvs	14, cr6, [r3], #-420	; 0xfffffe5c
     1a0:	00656475 	rsbeq	r6, r5, r5, ror r4
     1a4:	6573552f 	ldrbvs	r5, [r3, #-1327]!	; 0x52f
     1a8:	622f7372 	eorvs	r7, pc, #-939524095	; 0xc8000001
     1ac:	6e616972 	mcrvs	9, 3, r6, cr1, cr2, {3}
     1b0:	2f6e756a 	svccs	0x006e756a
     1b4:	6b736544 	blvs	1cd96cc <__bss_end__+0x1ccfc44>
     1b8:	2f706f74 	svccs	0x00706f74
     1bc:	6f686373 	svcvs	0x00686373
     1c0:	532f6c6f 	teqpl	pc, #28416	; 0x6f00
     1c4:	6e697270 	mcrvs	2, 3, r7, cr9, cr0, {3}
     1c8:	32393167 	eorscc	r3, r9, #-1073741799	; 0xc0000019
     1cc:	53432f30 	movtpl	r2, #16176	; 0x3f30
     1d0:	4c303432 	cfldrsmi	mvf3, [r0], #-200	; 0xffffff38
     1d4:	73632f58 	cmnvc	r3, #88, 30	; 0x160
     1d8:	6c303432 	cfldrsvs	mvf3, [r0], #-200	; 0xffffff38
     1dc:	30322d78 	eorscc	r2, r2, r8, ror sp
     1e0:	2f727073 	svccs	0x00727073
     1e4:	7062696c 	rsbvc	r6, r2, ip, ror #18
     1e8:	6e692f69 	cdpvs	15, 6, cr2, cr9, cr9, {3}
     1ec:	64756c63 	ldrbtvs	r6, [r5], #-3171	; 0xc63
     1f0:	63000065 	movwvs	r0, #101	; 0x65
     1f4:	2d343170 	ldfcss	f3, [r4, #-448]!	; 0xfffffe40
     1f8:	75626564 	strbvc	r6, [r2, #-1380]!	; 0x564
     1fc:	00632e67 	rsbeq	r2, r3, r7, ror #28
     200:	63000000 	movwvs	r0, #0
     204:	2d343170 	ldfcss	f3, [r4, #-448]!	; 0xfffffe40
     208:	75626564 	strbvc	r6, [r2, #-1380]!	; 0x564
     20c:	00682e67 	rsbeq	r2, r8, r7, ror #28
     210:	73000000 	movwvc	r0, #0
     214:	6e696474 	mcrvs	4, 3, r6, cr9, cr4, {3}
     218:	63672d74 	cmnvs	r7, #116, 26	; 0x1d00
     21c:	00682e63 	rsbeq	r2, r8, r3, ror #28
     220:	72000001 	andvc	r0, r0, #1
     224:	682e6970 	stmdavs	lr!, {r4, r5, r6, r8, fp, sp, lr}
     228:	00000200 	andeq	r0, r0, r0, lsl #4
     22c:	2d697072 	stclcs	0, cr7, [r9, #-456]!	; 0xfffffe38
     230:	65746e69 	ldrbvs	r6, [r4, #-3689]!	; 0xe69
     234:	70757272 	rsbsvc	r7, r5, r2, ror r2
     238:	682e7374 	stmdavs	lr!, {r2, r4, r5, r6, r8, r9, ip, sp, lr}
     23c:	00000200 	andeq	r0, r0, r0, lsl #4
     240:	02050000 	andeq	r0, r5, #0
     244:	00008104 	andeq	r8, r0, r4, lsl #2
     248:	03013503 	movweq	r3, #5379	; 0x1503
     24c:	24034a62 	strcs	r4, [r3], #-2658	; 0xa62
     250:	2e62032e 	cdpcs	3, 6, cr0, cr2, cr14, {1}
     254:	032e7a03 	teqeq	lr, #12288	; 0x3000
     258:	02002e29 	andeq	r2, r0, #656	; 0x290
     25c:	4a060104 	bmi	180674 <__bss_end__+0x176bec>
     260:	08650306 	stmdaeq	r5!, {r1, r2, r8, r9}^
     264:	2e780320 	cdpcs	3, 7, cr0, cr8, cr0, {1}
     268:	034a7a03 	movteq	r7, #43523	; 0xaa03
     26c:	02002e3a 	andeq	r2, r0, #928	; 0x3a0
     270:	4a060104 	bmi	180688 <__bss_end__+0x176c00>
     274:	7fbb0306 	svcvc	0x00bb0306
     278:	c8032008 	stmdagt	r3, {r3, sp}
     27c:	f54b4a00 			; <UNDEFINED> instruction: 0xf54b4a00
     280:	da020468 	ble	81428 <__bss_end__+0x779a0>
     284:	4b2b0104 	blmi	ac069c <__bss_end__+0xab6c14>
     288:	4a020468 	bmi	81430 <__bss_end__+0x779a8>
     28c:	342e1303 	strtcc	r1, [lr], #-771	; 0x303
     290:	d65d034b 	ldrble	r0, [sp], -fp, asr #6
     294:	0e030104 	adfeqs	f0, f3, f4
     298:	0302042e 	movweq	r0, #9262	; 0x242e
     29c:	01048272 	tsteq	r4, r2, ror r2
     2a0:	002e0f03 	eoreq	r0, lr, r3, lsl #30
     2a4:	06010402 	streq	r0, [r1], -r2, lsl #8
     2a8:	22080666 	andcs	r0, r8, #106954752	; 0x6600000
     2ac:	01040200 	mrseq	r0, R12_usr
     2b0:	02048206 	andeq	r8, r4, #1610612736	; 0x60000000
     2b4:	041c0806 	ldreq	r0, [ip], #-2054	; 0x806
     2b8:	bb693501 	bllt	1a4d6c4 <__bss_end__+0x1a43c3c>
     2bc:	31142202 	tstcc	r4, r2, lsl #4
     2c0:	bd032f83 	stclt	15, cr2, [r3, #-524]	; 0xfffffdf4
     2c4:	5b03667f 	blpl	d9cc8 <__bss_end__+0xd0240>
     2c8:	0199034a 	orrseq	r0, r9, sl, asr #6
     2cc:	01650382 	smulbbeq	r5, r2, r3
     2d0:	032e1f03 	teqeq	lr, #3, 30
     2d4:	302c2e62 	eorcc	r2, ip, r2, ror #28
     2d8:	4a7f8103 	bmi	1fe06ec <__bss_end__+0x1fd6c64>
     2dc:	4a01b103 	bmi	6c6f0 <__bss_end__+0x62c68>
     2e0:	020467a2 	andeq	r6, r4, #42467328	; 0x2880000
     2e4:	33666303 	cmncc	r6, #201326592	; 0xc000000
     2e8:	19030104 	stmdbne	r3, {r2, r8}
     2ec:	00d74b2e 	sbcseq	r4, r7, lr, lsr #22
     2f0:	06010402 	streq	r0, [r1], -r2, lsl #8
     2f4:	21080682 	smlabbcs	r8, r2, r6, r0
     2f8:	50030204 	andpl	r0, r3, r4, lsl #4
     2fc:	03010466 	movweq	r0, #5222	; 0x1466
     300:	089f2e31 	ldmeq	pc, {r0, r4, r5, r9, sl, fp, sp}	; <UNPREDICTABLE>
     304:	0002023e 	andeq	r0, r2, lr, lsr r2
     308:	010c0101 	tsteq	ip, r1, lsl #2
     30c:	00020000 	andeq	r0, r2, r0
     310:	000000f5 	strdeq	r0, [r0], -r5
     314:	0efb0102 	cdpeq	1, 15, cr0, cr11, cr2, {0}
     318:	0101000d 	tsteq	r1, sp
     31c:	00000101 	andeq	r0, r0, r1, lsl #2
     320:	00000100 	andeq	r0, r0, r0, lsl #2
     324:	62696c01 	rsbvs	r6, r9, #256	; 0x100
     328:	752f0063 	strvc	r0, [pc, #-99]!	; 2cd <__code_start__-0x7d33>
     32c:	6c2f7273 	sfmvs	f7, 4, [pc], #-460	; 168 <__code_start__-0x7e98>
     330:	6c61636f 	stclvs	3, cr6, [r1], #-444	; 0xfffffe44
     334:	6c65432f 	stclvs	3, cr4, [r5], #-188	; 0xffffff44
     338:	2f72616c 	svccs	0x0072616c
     33c:	2d6d7261 	sfmcs	f7, 2, [sp, #-388]!	; 0xfffffe7c
     340:	656e6f6e 	strbvs	r6, [lr, #-3950]!	; 0xf6e
     344:	6261652d 	rsbvs	r6, r1, #188743680	; 0xb400000
     348:	2e342f69 	cdpcs	15, 3, cr2, cr4, cr9, {3}
     34c:	2d332e38 	ldccs	14, cr2, [r3, #-224]!	; 0xffffff20
     350:	37317363 	ldrcc	r7, [r1, -r3, ror #6]!
     354:	6c2f6530 	cfstr32vs	mvfx6, [pc], #-192	; 29c <__code_start__-0x7d64>
     358:	672f6269 	strvs	r6, [pc, -r9, ror #4]!
     35c:	612f6363 	teqvs	pc, r3, ror #6
     360:	6e2d6d72 	mcrvs	13, 1, r6, cr13, cr2, {3}
     364:	2d656e6f 	stclcs	14, cr6, [r5, #-444]!	; 0xfffffe44
     368:	69626165 	stmdbvs	r2!, {r0, r2, r5, r6, r8, sp, lr}^
     36c:	382e342f 	stmdacc	lr!, {r0, r1, r2, r3, r5, sl, ip, sp}
     370:	692f332e 	stmdbvs	pc!, {r1, r2, r3, r5, r8, r9, ip, sp}	; <UNPREDICTABLE>
     374:	756c636e 	strbvc	r6, [ip, #-878]!	; 0x36e
     378:	2f006564 	svccs	0x00006564
     37c:	72657355 	rsbvc	r7, r5, #1409286145	; 0x54000001
     380:	72622f73 	rsbvc	r2, r2, #460	; 0x1cc
     384:	6a6e6169 	bvs	1b98930 <__bss_end__+0x1b8eea8>
     388:	442f6e75 	strtmi	r6, [pc], #-3701	; 390 <__code_start__-0x7c70>
     38c:	746b7365 	strbtvc	r7, [fp], #-869	; 0x365
     390:	732f706f 	teqvc	pc, #111	; 0x6f
     394:	6f6f6863 	svcvs	0x006f6863
     398:	70532f6c 	subsvc	r2, r3, ip, ror #30
     39c:	676e6972 			; <UNDEFINED> instruction: 0x676e6972
     3a0:	30323931 	eorscc	r3, r2, r1, lsr r9
     3a4:	3253432f 	subscc	r4, r3, #-1140850688	; 0xbc000000
     3a8:	584c3034 	stmdapl	ip, {r2, r4, r5, ip, sp}^
     3ac:	3273632f 	rsbscc	r6, r3, #-1140850688	; 0xbc000000
     3b0:	786c3034 	stmdavc	ip!, {r2, r4, r5, ip, sp}^
     3b4:	7330322d 	teqvc	r0, #-805306366	; 0xd0000002
     3b8:	6c2f7270 	sfmvs	f7, 4, [pc], #-448	; 200 <__code_start__-0x7e00>
     3bc:	69706269 	ldmdbvs	r0!, {r0, r3, r5, r6, r9, sp, lr}^
     3c0:	636e692f 	cmnvs	lr, #770048	; 0xbc000
     3c4:	6564756c 	strbvs	r7, [r4, #-1388]!	; 0x56c
     3c8:	72700000 	rsbsvc	r0, r0, #0
     3cc:	6b746e69 	blvs	1d1bd78 <__bss_end__+0x1d122f0>
     3d0:	0100632e 	tsteq	r0, lr, lsr #6
     3d4:	74730000 	ldrbtvc	r0, [r3], #-0
     3d8:	67726164 	ldrbvs	r6, [r2, -r4, ror #2]!
     3dc:	0200682e 	andeq	r6, r0, #3014656	; 0x2e0000
     3e0:	623c0000 	eorsvs	r0, ip, #0
     3e4:	746c6975 	strbtvc	r6, [ip], #-2421	; 0x975
     3e8:	3e6e692d 	cdpcc	9, 6, cr6, cr14, cr13, {1}
     3ec:	00000000 	andeq	r0, r0, r0
     3f0:	2e697072 	mcrcs	0, 3, r7, cr9, cr2, {3}
     3f4:	00030068 	andeq	r0, r3, r8, rrx
     3f8:	2d617600 	stclcs	6, cr7, [r1, #-0]
     3fc:	6e697270 	mcrvs	2, 3, r7, cr9, cr0, {3}
     400:	682e6b74 	stmdavs	lr!, {r2, r4, r5, r6, r8, r9, fp, sp, lr}
     404:	00000100 	andeq	r0, r0, r0, lsl #2
     408:	02050000 	andeq	r0, r5, #0
     40c:	00008538 	andeq	r8, r0, r8, lsr r5
     410:	bf4b6b17 	svclt	0x004b6b17
     414:	000e0289 	andeq	r0, lr, r9, lsl #5
     418:	00940101 	addseq	r0, r4, r1, lsl #2
     41c:	00020000 	andeq	r0, r2, r0
     420:	0000007c 	andeq	r0, r0, ip, ror r0
     424:	0efb0102 	cdpeq	1, 15, cr0, cr11, cr2, {0}
     428:	0101000d 	tsteq	r1, sp
     42c:	00000101 	andeq	r0, r0, r1, lsl #2
     430:	00000100 	andeq	r0, r0, r0, lsl #2
     434:	62696c01 	rsbvs	r6, r9, #256	; 0x100
     438:	552f0063 	strpl	r0, [pc, #-99]!	; 3dd <__code_start__-0x7c23>
     43c:	73726573 	cmnvc	r2, #482344960	; 0x1cc00000
     440:	6972622f 	ldmdbvs	r2!, {r0, r1, r2, r3, r5, r9, sp, lr}^
     444:	756a6e61 	strbvc	r6, [sl, #-3681]!	; 0xe61
     448:	65442f6e 	strbvs	r2, [r4, #-3950]	; 0xf6e
     44c:	6f746b73 	svcvs	0x00746b73
     450:	63732f70 	cmnvs	r3, #112, 30	; 0x1c0
     454:	6c6f6f68 	stclvs	15, cr6, [pc], #-416	; 2bc <__code_start__-0x7d44>
     458:	7270532f 	rsbsvc	r5, r0, #-1140850688	; 0xbc000000
     45c:	31676e69 	cmncc	r7, r9, ror #28
     460:	2f303239 	svccs	0x00303239
     464:	34325343 	ldrtcc	r5, [r2], #-835	; 0x343
     468:	2f584c30 	svccs	0x00584c30
     46c:	34327363 	ldrtcc	r7, [r2], #-867	; 0x363
     470:	2d786c30 	ldclcs	12, cr6, [r8, #-192]!	; 0xffffff40
     474:	70733032 	rsbsvc	r3, r3, r2, lsr r0
     478:	696c2f72 	stmdbvs	ip!, {r1, r4, r5, r6, r8, r9, sl, fp, sp}^
     47c:	2f697062 	svccs	0x00697062
     480:	6c636e69 	stclvs	14, cr6, [r3], #-420	; 0xfffffe5c
     484:	00656475 	rsbeq	r6, r5, r5, ror r4
     488:	74757000 	ldrbtvc	r7, [r5], #-0
     48c:	72616863 	rsbvc	r6, r1, #6488064	; 0x630000
     490:	0100632e 	tsteq	r0, lr, lsr #6
     494:	70720000 	rsbsvc	r0, r2, r0
     498:	00682e69 	rsbeq	r2, r8, r9, ror #28
     49c:	00000002 	andeq	r0, r0, r2
     4a0:	90020500 	andls	r0, r2, r0, lsl #10
     4a4:	14000085 	strne	r0, [r0], #-133	; 0x85
     4a8:	bc136b4a 	ldclt	11, cr6, [r3], {74}	; 0x4a
     4ac:	00080213 	andeq	r0, r8, r3, lsl r2
     4b0:	00a00101 	adceq	r0, r0, r1, lsl #2
     4b4:	00020000 	andeq	r0, r2, r0
     4b8:	00000079 	andeq	r0, r0, r9, ror r0
     4bc:	0efb0102 	cdpeq	1, 15, cr0, cr11, cr2, {0}
     4c0:	0101000d 	tsteq	r1, sp
     4c4:	00000101 	andeq	r0, r0, r1, lsl #2
     4c8:	00000100 	andeq	r0, r0, r0, lsl #2
     4cc:	62696c01 	rsbvs	r6, r9, #256	; 0x100
     4d0:	552f0063 	strpl	r0, [pc, #-99]!	; 475 <__code_start__-0x7b8b>
     4d4:	73726573 	cmnvc	r2, #482344960	; 0x1cc00000
     4d8:	6972622f 	ldmdbvs	r2!, {r0, r1, r2, r3, r5, r9, sp, lr}^
     4dc:	756a6e61 	strbvc	r6, [sl, #-3681]!	; 0xe61
     4e0:	65442f6e 	strbvs	r2, [r4, #-3950]	; 0xf6e
     4e4:	6f746b73 	svcvs	0x00746b73
     4e8:	63732f70 	cmnvs	r3, #112, 30	; 0x1c0
     4ec:	6c6f6f68 	stclvs	15, cr6, [pc], #-416	; 354 <__code_start__-0x7cac>
     4f0:	7270532f 	rsbsvc	r5, r0, #-1140850688	; 0xbc000000
     4f4:	31676e69 	cmncc	r7, r9, ror #28
     4f8:	2f303239 	svccs	0x00303239
     4fc:	34325343 	ldrtcc	r5, [r2], #-835	; 0x343
     500:	2f584c30 	svccs	0x00584c30
     504:	34327363 	ldrtcc	r7, [r2], #-867	; 0x363
     508:	2d786c30 	ldclcs	12, cr6, [r8, #-192]!	; 0xffffff40
     50c:	70733032 	rsbsvc	r3, r3, r2, lsr r0
     510:	696c2f72 	stmdbvs	ip!, {r1, r4, r5, r6, r8, r9, sl, fp, sp}^
     514:	2f697062 	svccs	0x00697062
     518:	6c636e69 	stclvs	14, cr6, [r3], #-420	; 0xfffffe5c
     51c:	00656475 	rsbeq	r6, r5, r5, ror r4
     520:	74757000 	ldrbtvc	r7, [r5], #-0
     524:	00632e6b 	rsbeq	r2, r3, fp, ror #28
     528:	72000001 	andvc	r0, r0, #1
     52c:	682e6970 	stmdavs	lr!, {r4, r5, r6, r8, fp, sp, lr}
     530:	00000200 	andeq	r0, r0, r0, lsl #4
     534:	02050000 	andeq	r0, r5, #0
     538:	000085cc 	andeq	r8, r0, ip, asr #11
     53c:	002d4c15 	eoreq	r4, sp, r5, lsl ip
     540:	2f020402 	svccs	0x00020402
     544:	02040200 	andeq	r0, r4, #0, 4
     548:	04020049 	streq	r0, [r2], #-73	; 0x49
     54c:	062e0601 	strteq	r0, [lr], -r1, lsl #12
     550:	0006026b 	andeq	r0, r6, fp, ror #4
     554:	01f10101 	mvnseq	r0, r1, lsl #2
     558:	00020000 	andeq	r0, r2, r0
     55c:	000000e9 	andeq	r0, r0, r9, ror #1
     560:	0efb0102 	cdpeq	1, 15, cr0, cr11, cr2, {0}
     564:	0101000d 	tsteq	r1, sp
     568:	00000101 	andeq	r0, r0, r1, lsl #2
     56c:	00000100 	andeq	r0, r0, r0, lsl #2
     570:	62696c01 	rsbvs	r6, r9, #256	; 0x100
     574:	752f0063 	strvc	r0, [pc, #-99]!	; 519 <__code_start__-0x7ae7>
     578:	6c2f7273 	sfmvs	f7, 4, [pc], #-460	; 3b4 <__code_start__-0x7c4c>
     57c:	6c61636f 	stclvs	3, cr6, [r1], #-444	; 0xfffffe44
     580:	6c65432f 	stclvs	3, cr4, [r5], #-188	; 0xffffff44
     584:	2f72616c 	svccs	0x0072616c
     588:	2d6d7261 	sfmcs	f7, 2, [sp, #-388]!	; 0xfffffe7c
     58c:	656e6f6e 	strbvs	r6, [lr, #-3950]!	; 0xf6e
     590:	6261652d 	rsbvs	r6, r1, #188743680	; 0xb400000
     594:	2e342f69 	cdpcs	15, 3, cr2, cr4, cr9, {3}
     598:	2d332e38 	ldccs	14, cr2, [r3, #-224]!	; 0xffffff20
     59c:	37317363 	ldrcc	r7, [r1, -r3, ror #6]!
     5a0:	6c2f6530 	cfstr32vs	mvfx6, [pc], #-192	; 4e8 <__code_start__-0x7b18>
     5a4:	672f6269 	strvs	r6, [pc, -r9, ror #4]!
     5a8:	612f6363 	teqvs	pc, r3, ror #6
     5ac:	6e2d6d72 	mcrvs	13, 1, r6, cr13, cr2, {3}
     5b0:	2d656e6f 	stclcs	14, cr6, [r5, #-444]!	; 0xfffffe44
     5b4:	69626165 	stmdbvs	r2!, {r0, r2, r5, r6, r8, sp, lr}^
     5b8:	382e342f 	stmdacc	lr!, {r0, r1, r2, r3, r5, sl, ip, sp}
     5bc:	692f332e 	stmdbvs	pc!, {r1, r2, r3, r5, r8, r9, ip, sp}	; <UNPREDICTABLE>
     5c0:	756c636e 	strbvc	r6, [ip, #-878]!	; 0x36e
     5c4:	2f006564 	svccs	0x00006564
     5c8:	72657355 	rsbvc	r7, r5, #1409286145	; 0x54000001
     5cc:	72622f73 	rsbvc	r2, r2, #460	; 0x1cc
     5d0:	6a6e6169 	bvs	1b98b7c <__bss_end__+0x1b8f0f4>
     5d4:	442f6e75 	strtmi	r6, [pc], #-3701	; 5dc <__code_start__-0x7a24>
     5d8:	746b7365 	strbtvc	r7, [fp], #-869	; 0x365
     5dc:	732f706f 	teqvc	pc, #111	; 0x6f
     5e0:	6f6f6863 	svcvs	0x006f6863
     5e4:	70532f6c 	subsvc	r2, r3, ip, ror #30
     5e8:	676e6972 			; <UNDEFINED> instruction: 0x676e6972
     5ec:	30323931 	eorscc	r3, r2, r1, lsr r9
     5f0:	3253432f 	subscc	r4, r3, #-1140850688	; 0xbc000000
     5f4:	584c3034 	stmdapl	ip, {r2, r4, r5, ip, sp}^
     5f8:	3273632f 	rsbscc	r6, r3, #-1140850688	; 0xbc000000
     5fc:	786c3034 	stmdavc	ip!, {r2, r4, r5, ip, sp}^
     600:	7330322d 	teqvc	r0, #-805306366	; 0xd0000002
     604:	6c2f7270 	sfmvs	f7, 4, [pc], #-448	; 44c <__code_start__-0x7bb4>
     608:	69706269 	ldmdbvs	r0!, {r0, r3, r5, r6, r9, sp, lr}^
     60c:	636e692f 	cmnvs	lr, #770048	; 0xbc000
     610:	6564756c 	strbvs	r7, [r4, #-1388]!	; 0x56c
     614:	61760000 	cmnvs	r6, r0
     618:	6972702d 	ldmdbvs	r2!, {r0, r2, r3, r5, ip, sp, lr}^
     61c:	2e6b746e 	cdpcs	4, 6, cr7, cr11, cr14, {3}
     620:	00010063 	andeq	r0, r1, r3, rrx
     624:	64747300 	ldrbtvs	r7, [r4], #-768	; 0x300
     628:	2e677261 	cdpcs	2, 6, cr7, cr7, cr1, {3}
     62c:	00020068 	andeq	r0, r2, r8, rrx
     630:	69707200 	ldmdbvs	r0!, {r9, ip, sp, lr}^
     634:	0300682e 	movweq	r6, #2094	; 0x82e
     638:	623c0000 	eorsvs	r0, ip, #0
     63c:	746c6975 	strbtvc	r6, [ip], #-2421	; 0x975
     640:	3e6e692d 	cdpcc	9, 6, cr6, cr14, cr13, {1}
     644:	00000000 	andeq	r0, r0, r0
     648:	02050000 	andeq	r0, r5, #0
     64c:	00008600 	andeq	r8, r0, r0, lsl #12
     650:	01012603 	tsteq	r1, r3, lsl #12
     654:	2d3113a5 	ldccs	3, cr1, [r1, #-660]!	; 0xfffffd6c
     658:	02040200 	andeq	r0, r4, #0, 4
     65c:	0402002f 	streq	r0, [r2], #-47	; 0x2f
     660:	02002d02 	andeq	r2, r0, #2, 26	; 0x80
     664:	002f0204 	eoreq	r0, pc, r4, lsl #4
     668:	2d010402 	cfstrscs	mvf0, [r1, #-8]
     66c:	14304c4c 	ldrtne	r4, [r0], #-3148	; 0xc4c
     670:	004f2f4b 	subeq	r2, pc, fp, asr #30
     674:	67020402 	strvs	r0, [r2, -r2, lsl #8]
     678:	01040200 	mrseq	r0, R12_usr
     67c:	304d4c65 	subcc	r4, sp, r5, ror #24
     680:	30312fa0 	eorscc	r2, r1, r0, lsr #31
     684:	84162602 	ldrhi	r2, [r6], #-1538	; 0x602
     688:	02002c2d 	andeq	r2, r0, #11520	; 0x2d00
     68c:	00300104 	eorseq	r0, r0, r4, lsl #2
     690:	33010402 	movwcc	r0, #5122	; 0x1402
     694:	02006606 	andeq	r6, r0, #6291456	; 0x600000
     698:	002e0104 	eoreq	r0, lr, r4, lsl #2
     69c:	06010402 	streq	r0, [r1], -r2, lsl #8
     6a0:	2f672108 	svccs	0x00672108
     6a4:	03827303 	orreq	r7, r2, #201326592	; 0xc000000
     6a8:	02002e13 	andeq	r2, r0, #304	; 0x130
     6ac:	66060104 	strvs	r0, [r6], -r4, lsl #2
     6b0:	01040200 	mrseq	r0, R12_usr
     6b4:	4b4b8306 	blmi	12e12d4 <__bss_end__+0x12d784c>
     6b8:	034b3167 	movteq	r3, #45415	; 0xb167
     6bc:	23032e65 	movwcs	r2, #15973	; 0x3e65
     6c0:	0402002e 	streq	r0, [r2], #-46	; 0x2e
     6c4:	002e0601 	eoreq	r0, lr, r1, lsl #12
     6c8:	06010402 	streq	r0, [r1], -r2, lsl #8
     6cc:	0402009f 	streq	r0, [r2], #-159	; 0x9f
     6d0:	23086a01 	movwcs	r6, #35329	; 0x8a01
     6d4:	7fa403d7 	svcvc	0x00a403d7
     6d8:	004b3c08 	subeq	r3, fp, r8, lsl #24
     6dc:	06010402 	streq	r0, [r1], -r2, lsl #8
     6e0:	2108064a 	tstcs	r8, sl, asr #12
     6e4:	034b2f4b 	movteq	r2, #48971	; 0xbf4b
     6e8:	9ff200db 	svcls	0x00f200db
     6ec:	4b32484c 	blmi	c92824 <__bss_end__+0xc88d9c>
     6f0:	2f4b842f 	svccs	0x004b842f
     6f4:	30314d2d 	eorscc	r4, r1, sp, lsr #26
     6f8:	0200832f 	andeq	r8, r0, #-1140850688	; 0xbc000000
     6fc:	be2c0104 	suflte	f0, f4, f4
     700:	01040200 	mrseq	r0, R12_usr
     704:	08064a06 	stmdaeq	r6, {r1, r2, r9, fp, lr}
     708:	16360222 	ldrtne	r0, [r6], -r2, lsr #4
     70c:	08d60e03 	ldmeq	r6, {r0, r1, r9, sl, fp}^
     710:	21083021 	tstcs	r8, r1, lsr #32
     714:	30210831 	eorcc	r0, r1, r1, lsr r8
     718:	4b302108 	blmi	c08b40 <__bss_end__+0xbff0b8>
     71c:	30210830 	eorcc	r0, r1, r0, lsr r8
     720:	d983834b 	stmible	r3, {r0, r1, r3, r6, r8, r9, pc}
     724:	02002f31 	andeq	r2, r0, #49, 30	; 0xc4
     728:	00650104 	rsbeq	r0, r5, r4, lsl #2
     72c:	06020402 	streq	r0, [r2], -r2, lsl #8
     730:	0402004a 	streq	r0, [r2], #-74	; 0x4a
     734:	bf030601 	svclt	0x00030601
     738:	0200667f 	andeq	r6, r0, #133169152	; 0x7f00000
     73c:	66060204 	strvs	r0, [r6], -r4, lsl #4
     740:	00c50306 	sbceq	r0, r5, r6, lsl #6
     744:	1602684a 	strne	r6, [r2], -sl, asr #16
     748:	9d010100 	stflss	f0, [r1, #-0]
     74c:	02000000 	andeq	r0, r0, #0
     750:	00008600 	andeq	r8, r0, r0, lsl #12
     754:	fb010200 	blx	40f5e <__bss_end__+0x374d6>
     758:	01000d0e 	tsteq	r0, lr, lsl #26
     75c:	00010101 	andeq	r0, r1, r1, lsl #2
     760:	00010000 	andeq	r0, r1, r0
     764:	74730100 	ldrbtvc	r0, [r3], #-256	; 0x100
     768:	2d666661 	stclcs	6, cr6, [r6, #-388]!	; 0xfffffe7c
     76c:	00637273 	rsbeq	r7, r3, r3, ror r2
     770:	6573552f 	ldrbvs	r5, [r3, #-1327]!	; 0x52f
     774:	622f7372 	eorvs	r7, pc, #-939524095	; 0xc8000001
     778:	6e616972 	mcrvs	9, 3, r6, cr1, cr2, {3}
     77c:	2f6e756a 	svccs	0x006e756a
     780:	6b736544 	blvs	1cd9c98 <__bss_end__+0x1cd0210>
     784:	2f706f74 	svccs	0x00706f74
     788:	6f686373 	svcvs	0x00686373
     78c:	532f6c6f 	teqpl	pc, #28416	; 0x6f00
     790:	6e697270 	mcrvs	2, 3, r7, cr9, cr0, {3}
     794:	32393167 	eorscc	r3, r9, #-1073741799	; 0xc0000019
     798:	53432f30 	movtpl	r2, #16176	; 0x3f30
     79c:	4c303432 	cfldrsmi	mvf3, [r0], #-200	; 0xffffff38
     7a0:	73632f58 	cmnvc	r3, #88, 30	; 0x160
     7a4:	6c303432 	cfldrsvs	mvf3, [r0], #-200	; 0xffffff38
     7a8:	30322d78 	eorscc	r2, r2, r8, ror sp
     7ac:	2f727073 	svccs	0x00727073
     7b0:	7062696c 	rsbvc	r6, r2, ip, ror #18
     7b4:	6e692f69 	cdpvs	15, 6, cr2, cr9, cr9, {3}
     7b8:	64756c63 	ldrbtvs	r6, [r5], #-3171	; 0xc63
     7bc:	63000065 	movwvs	r0, #101	; 0x65
     7c0:	6e61656c 	cdpvs	5, 6, cr6, cr1, cr12, {3}
     7c4:	6265722d 	rsbvs	r7, r5, #-805306366	; 0xd0000002
     7c8:	2e746f6f 	cdpcs	15, 7, cr6, cr4, cr15, {3}
     7cc:	00010063 	andeq	r0, r1, r3, rrx
     7d0:	69707200 	ldmdbvs	r0!, {r9, ip, sp, lr}^
     7d4:	0200682e 	andeq	r6, r0, #3014656	; 0x2e0000
     7d8:	00000000 	andeq	r0, r0, r0
     7dc:	8b780205 	blhi	1e00ff8 <__bss_end__+0x1df7570>
     7e0:	2f150000 	svccs	0x00150000
     7e4:	024b832f 	subeq	r8, fp, #-1140850688	; 0xbc000000
     7e8:	01010006 	tsteq	r1, r6
     7ec:	000000a6 	andeq	r0, r0, r6, lsr #1
     7f0:	00800002 	addeq	r0, r0, r2
     7f4:	01020000 	mrseq	r0, (UNDEF: 2)
     7f8:	000d0efb 	strdeq	r0, [sp], -fp
     7fc:	01010101 	tsteq	r1, r1, lsl #2
     800:	01000000 	mrseq	r0, (UNDEF: 0)
     804:	73010000 	movwvc	r0, #4096	; 0x1000
     808:	66666174 			; <UNDEFINED> instruction: 0x66666174
     80c:	6372732d 	cmnvs	r2, #-1275068416	; 0xb4000000
     810:	73552f00 	cmpvc	r5, #0, 30
     814:	2f737265 	svccs	0x00737265
     818:	61697262 	cmnvs	r9, r2, ror #4
     81c:	6e756a6e 	vsubvs.f32	s13, s10, s29
     820:	7365442f 	cmnvc	r5, #788529152	; 0x2f000000
     824:	706f746b 	rsbvc	r7, pc, fp, ror #8
     828:	6863732f 	stmdavs	r3!, {r0, r1, r2, r3, r5, r8, r9, ip, sp, lr}^
     82c:	2f6c6f6f 	svccs	0x006c6f6f
     830:	69727053 	ldmdbvs	r2!, {r0, r1, r4, r6, ip, sp, lr}^
     834:	3931676e 	ldmdbcc	r1!, {r1, r2, r3, r5, r6, r8, r9, sl, sp, lr}
     838:	432f3032 	teqmi	pc, #50	; 0x32
     83c:	30343253 	eorscc	r3, r4, r3, asr r2
     840:	632f584c 	teqvs	pc, #76, 16	; 0x4c0000
     844:	30343273 	eorscc	r3, r4, r3, ror r2
     848:	322d786c 	eorcc	r7, sp, #108, 16	; 0x6c0000
     84c:	72707330 	rsbsvc	r7, r0, #48, 6	; 0xc0000000
     850:	62696c2f 	rsbvs	r6, r9, #12032	; 0x2f00
     854:	692f6970 	stmdbvs	pc!, {r4, r5, r6, r8, fp, sp, lr}	; <UNPREDICTABLE>
     858:	756c636e 	strbvc	r6, [ip, #-878]!	; 0x36e
     85c:	00006564 	andeq	r6, r0, r4, ror #10
     860:	61747363 	cmnvs	r4, r3, ror #6
     864:	632e7472 	teqvs	lr, #1912602624	; 0x72000000
     868:	00000100 	andeq	r0, r0, r0, lsl #2
     86c:	2e697072 	mcrcs	0, 3, r7, cr9, cr2, {3}
     870:	00020068 	andeq	r0, r2, r8, rrx
     874:	05000000 	streq	r0, [r0, #-0]
     878:	008ba402 	addeq	sl, fp, r2, lsl #8
     87c:	010c0300 	mrseq	r0, LR_mon
     880:	2d2f3132 	stfcss	f3, [pc, #-200]!	; 7c0 <__code_start__-0x7840>
     884:	0402002f 	streq	r0, [r2], #-47	; 0x2f
     888:	09034901 	stmdbeq	r3, {r0, r8, fp, lr}
     88c:	2e0d034a 	cdpcs	3, 0, cr0, cr13, cr10, {2}
     890:	0006022f 	andeq	r0, r6, pc, lsr #4
     894:	00a20101 	adceq	r0, r2, r1, lsl #2
     898:	00020000 	andeq	r0, r2, r0
     89c:	0000008e 	andeq	r0, r0, lr, lsl #1
     8a0:	0efb0102 	cdpeq	1, 15, cr0, cr11, cr2, {0}
     8a4:	0101000d 	tsteq	r1, sp
     8a8:	00000101 	andeq	r0, r0, r1, lsl #2
     8ac:	00000100 	andeq	r0, r0, r0, lsl #2
     8b0:	61747301 	cmnvs	r4, r1, lsl #6
     8b4:	732d6666 	teqvc	sp, #106954752	; 0x6600000
     8b8:	2f006372 	svccs	0x00006372
     8bc:	72657355 	rsbvc	r7, r5, #1409286145	; 0x54000001
     8c0:	72622f73 	rsbvc	r2, r2, #460	; 0x1cc
     8c4:	6a6e6169 	bvs	1b98e70 <__bss_end__+0x1b8f3e8>
     8c8:	442f6e75 	strtmi	r6, [pc], #-3701	; 8d0 <__code_start__-0x7730>
     8cc:	746b7365 	strbtvc	r7, [fp], #-869	; 0x365
     8d0:	732f706f 	teqvc	pc, #111	; 0x6f
     8d4:	6f6f6863 	svcvs	0x006f6863
     8d8:	70532f6c 	subsvc	r2, r3, ip, ror #30
     8dc:	676e6972 			; <UNDEFINED> instruction: 0x676e6972
     8e0:	30323931 	eorscc	r3, r2, r1, lsr r9
     8e4:	3253432f 	subscc	r4, r3, #-1140850688	; 0xbc000000
     8e8:	584c3034 	stmdapl	ip, {r2, r4, r5, ip, sp}^
     8ec:	3273632f 	rsbscc	r6, r3, #-1140850688	; 0xbc000000
     8f0:	786c3034 	stmdavc	ip!, {r2, r4, r5, ip, sp}^
     8f4:	7330322d 	teqvc	r0, #-805306366	; 0xd0000002
     8f8:	6c2f7270 	sfmvs	f7, 4, [pc], #-448	; 740 <__code_start__-0x78c0>
     8fc:	69706269 	ldmdbvs	r0!, {r0, r3, r5, r6, r9, sp, lr}^
     900:	636e692f 	cmnvs	lr, #770048	; 0xbc000
     904:	6564756c 	strbvs	r7, [r4, #-1388]!	; 0x56c
     908:	65640000 	strbvs	r0, [r4, #-0]!
     90c:	6c756166 	ldfvse	f6, [r5], #-408	; 0xfffffe68
     910:	61682d74 	smcvs	33492	; 0x82d4
     914:	656c646e 	strbvs	r6, [ip, #-1134]!	; 0x46e
     918:	61662d72 	smcvs	25298	; 0x62d2
     91c:	632e7473 	teqvs	lr, #1929379840	; 0x73000000
     920:	00000100 	andeq	r0, r0, r0, lsl #2
     924:	2e697072 	mcrcs	0, 3, r7, cr9, cr2, {3}
     928:	00020068 	andeq	r0, r2, r8, rrx
     92c:	05000000 	streq	r0, [r0, #-0]
     930:	008bdc02 	addeq	sp, fp, r2, lsl #24
     934:	02661300 	rsbeq	r1, r6, #0, 6
     938:	0101001c 	tsteq	r1, ip, lsl r0
     93c:	000000a3 	andeq	r0, r0, r3, lsr #1
     940:	008f0002 	addeq	r0, pc, r2
     944:	01020000 	mrseq	r0, (UNDEF: 2)
     948:	000d0efb 	strdeq	r0, [sp], -fp
     94c:	01010101 	tsteq	r1, r1, lsl #2
     950:	01000000 	mrseq	r0, (UNDEF: 0)
     954:	73010000 	movwvc	r0, #4096	; 0x1000
     958:	66666174 			; <UNDEFINED> instruction: 0x66666174
     95c:	6372732d 	cmnvs	r2, #-1275068416	; 0xb4000000
     960:	73552f00 	cmpvc	r5, #0, 30
     964:	2f737265 	svccs	0x00737265
     968:	61697262 	cmnvs	r9, r2, ror #4
     96c:	6e756a6e 	vsubvs.f32	s13, s10, s29
     970:	7365442f 	cmnvc	r5, #788529152	; 0x2f000000
     974:	706f746b 	rsbvc	r7, pc, fp, ror #8
     978:	6863732f 	stmdavs	r3!, {r0, r1, r2, r3, r5, r8, r9, ip, sp, lr}^
     97c:	2f6c6f6f 	svccs	0x006c6f6f
     980:	69727053 	ldmdbvs	r2!, {r0, r1, r4, r6, ip, sp, lr}^
     984:	3931676e 	ldmdbcc	r1!, {r1, r2, r3, r5, r6, r8, r9, sl, sp, lr}
     988:	432f3032 	teqmi	pc, #50	; 0x32
     98c:	30343253 	eorscc	r3, r4, r3, asr r2
     990:	632f584c 	teqvs	pc, #76, 16	; 0x4c0000
     994:	30343273 	eorscc	r3, r4, r3, ror r2
     998:	322d786c 	eorcc	r7, sp, #108, 16	; 0x6c0000
     99c:	72707330 	rsbsvc	r7, r0, #48, 6	; 0xc0000000
     9a0:	62696c2f 	rsbvs	r6, r9, #12032	; 0x2f00
     9a4:	692f6970 	stmdbvs	pc!, {r4, r5, r6, r8, fp, sp, lr}	; <UNPREDICTABLE>
     9a8:	756c636e 	strbvc	r6, [ip, #-878]!	; 0x36e
     9ac:	00006564 	andeq	r6, r0, r4, ror #10
     9b0:	61666564 	cmnvs	r6, r4, ror #10
     9b4:	2d746c75 	ldclcs	12, cr6, [r4, #-468]!	; 0xfffffe2c
     9b8:	646e6168 	strbtvs	r6, [lr], #-360	; 0x168
     9bc:	2d72656c 	cfldr64cs	mvdx6, [r2, #-432]!	; 0xfffffe50
     9c0:	65736572 	ldrbvs	r6, [r3, #-1394]!	; 0x572
     9c4:	00632e74 	rsbeq	r2, r3, r4, ror lr
     9c8:	72000001 	andvc	r0, r0, #1
     9cc:	682e6970 	stmdavs	lr!, {r4, r5, r6, r8, fp, sp, lr}
     9d0:	00000200 	andeq	r0, r0, r0, lsl #4
     9d4:	02050000 	andeq	r0, r5, #0
     9d8:	00008c20 	andeq	r8, r0, r0, lsr #24
     9dc:	1c026613 	stcne	6, cr6, [r2], {19}
     9e0:	a1010100 	mrsge	r0, (UNDEF: 17)
     9e4:	02000000 	andeq	r0, r0, #0
     9e8:	00008d00 	andeq	r8, r0, r0, lsl #26
     9ec:	fb010200 	blx	411f6 <__bss_end__+0x3776e>
     9f0:	01000d0e 	tsteq	r0, lr, lsl #26
     9f4:	00010101 	andeq	r0, r1, r1, lsl #2
     9f8:	00010000 	andeq	r0, r1, r0
     9fc:	74730100 	ldrbtvc	r0, [r3], #-256	; 0x100
     a00:	2d666661 	stclcs	6, cr6, [r6, #-388]!	; 0xfffffe7c
     a04:	00637273 	rsbeq	r7, r3, r3, ror r2
     a08:	6573552f 	ldrbvs	r5, [r3, #-1327]!	; 0x52f
     a0c:	622f7372 	eorvs	r7, pc, #-939524095	; 0xc8000001
     a10:	6e616972 	mcrvs	9, 3, r6, cr1, cr2, {3}
     a14:	2f6e756a 	svccs	0x006e756a
     a18:	6b736544 	blvs	1cd9f30 <__bss_end__+0x1cd04a8>
     a1c:	2f706f74 	svccs	0x00706f74
     a20:	6f686373 	svcvs	0x00686373
     a24:	532f6c6f 	teqpl	pc, #28416	; 0x6f00
     a28:	6e697270 	mcrvs	2, 3, r7, cr9, cr0, {3}
     a2c:	32393167 	eorscc	r3, r9, #-1073741799	; 0xc0000019
     a30:	53432f30 	movtpl	r2, #16176	; 0x3f30
     a34:	4c303432 	cfldrsmi	mvf3, [r0], #-200	; 0xffffff38
     a38:	73632f58 	cmnvc	r3, #88, 30	; 0x160
     a3c:	6c303432 	cfldrsvs	mvf3, [r0], #-200	; 0xffffff38
     a40:	30322d78 	eorscc	r2, r2, r8, ror sp
     a44:	2f727073 	svccs	0x00727073
     a48:	7062696c 	rsbvc	r6, r2, ip, ror #18
     a4c:	6e692f69 	cdpvs	15, 6, cr2, cr9, cr9, {3}
     a50:	64756c63 	ldrbtvs	r6, [r5], #-3171	; 0xc63
     a54:	64000065 	strvs	r0, [r0], #-101	; 0x65
     a58:	75616665 	strbvc	r6, [r1, #-1637]!	; 0x665
     a5c:	682d746c 	stmdavs	sp!, {r2, r3, r5, r6, sl, ip, sp, lr}
     a60:	6c646e61 	stclvs	14, cr6, [r4], #-388	; 0xfffffe7c
     a64:	732d7265 	teqvc	sp, #1342177286	; 0x50000006
     a68:	632e6977 	teqvs	lr, #1949696	; 0x1dc000
     a6c:	00000100 	andeq	r0, r0, r0, lsl #2
     a70:	2e697072 	mcrcs	0, 3, r7, cr9, cr2, {3}
     a74:	00020068 	andeq	r0, r2, r8, rrx
     a78:	05000000 	streq	r0, [r0, #-0]
     a7c:	008c6402 	addeq	r6, ip, r2, lsl #8
     a80:	02661300 	rsbeq	r1, r6, #0, 6
     a84:	0101001c 	tsteq	r1, ip, lsl r0
     a88:	000000ac 	andeq	r0, r0, ip, lsr #1
     a8c:	00980002 	addseq	r0, r8, r2
     a90:	01020000 	mrseq	r0, (UNDEF: 2)
     a94:	000d0efb 	strdeq	r0, [sp], -fp
     a98:	01010101 	tsteq	r1, r1, lsl #2
     a9c:	01000000 	mrseq	r0, (UNDEF: 0)
     aa0:	73010000 	movwvc	r0, #4096	; 0x1000
     aa4:	66666174 			; <UNDEFINED> instruction: 0x66666174
     aa8:	6372732d 	cmnvs	r2, #-1275068416	; 0xb4000000
     aac:	73552f00 	cmpvc	r5, #0, 30
     ab0:	2f737265 	svccs	0x00737265
     ab4:	61697262 	cmnvs	r9, r2, ror #4
     ab8:	6e756a6e 	vsubvs.f32	s13, s10, s29
     abc:	7365442f 	cmnvc	r5, #788529152	; 0x2f000000
     ac0:	706f746b 	rsbvc	r7, pc, fp, ror #8
     ac4:	6863732f 	stmdavs	r3!, {r0, r1, r2, r3, r5, r8, r9, ip, sp, lr}^
     ac8:	2f6c6f6f 	svccs	0x006c6f6f
     acc:	69727053 	ldmdbvs	r2!, {r0, r1, r4, r6, ip, sp, lr}^
     ad0:	3931676e 	ldmdbcc	r1!, {r1, r2, r3, r5, r6, r8, r9, sl, sp, lr}
     ad4:	432f3032 	teqmi	pc, #50	; 0x32
     ad8:	30343253 	eorscc	r3, r4, r3, asr r2
     adc:	632f584c 	teqvs	pc, #76, 16	; 0x4c0000
     ae0:	30343273 	eorscc	r3, r4, r3, ror r2
     ae4:	322d786c 	eorcc	r7, sp, #108, 16	; 0x6c0000
     ae8:	72707330 	rsbsvc	r7, r0, #48, 6	; 0xc0000000
     aec:	62696c2f 	rsbvs	r6, r9, #12032	; 0x2f00
     af0:	692f6970 	stmdbvs	pc!, {r4, r5, r6, r8, fp, sp, lr}	; <UNPREDICTABLE>
     af4:	756c636e 	strbvc	r6, [ip, #-878]!	; 0x36e
     af8:	00006564 	andeq	r6, r0, r4, ror #10
     afc:	61666564 	cmnvs	r6, r4, ror #10
     b00:	2d746c75 	ldclcs	12, cr6, [r4, #-468]!	; 0xfffffe2c
     b04:	646e6168 	strbtvs	r6, [lr], #-360	; 0x168
     b08:	2d72656c 	cfldr64cs	mvdx6, [r2, #-432]!	; 0xfffffe50
     b0c:	65646e75 	strbvs	r6, [r4, #-3701]!	; 0xe75
     b10:	656e6966 	strbvs	r6, [lr, #-2406]!	; 0x966
     b14:	6e692d64 	cdpvs	13, 6, cr2, cr9, cr4, {3}
     b18:	632e7473 	teqvs	lr, #1929379840	; 0x73000000
     b1c:	00000100 	andeq	r0, r0, r0, lsl #2
     b20:	2e697072 	mcrcs	0, 3, r7, cr9, cr2, {3}
     b24:	00020068 	andeq	r0, r2, r8, rrx
     b28:	05000000 	streq	r0, [r0, #-0]
     b2c:	008ca802 	addeq	sl, ip, r2, lsl #16
     b30:	02661300 	rsbeq	r1, r6, #0, 6
     b34:	0101001c 	tsteq	r1, ip, lsl r0
     b38:	00000047 	andeq	r0, r0, r7, asr #32
     b3c:	00330002 	eorseq	r0, r3, r2
     b40:	01020000 	mrseq	r0, (UNDEF: 2)
     b44:	000d0efb 	strdeq	r0, [sp], -fp
     b48:	01010101 	tsteq	r1, r1, lsl #2
     b4c:	01000000 	mrseq	r0, (UNDEF: 0)
     b50:	73010000 	movwvc	r0, #4096	; 0x1000
     b54:	66666174 			; <UNDEFINED> instruction: 0x66666174
     b58:	6372732d 	cmnvs	r2, #-1275068416	; 0xb4000000
     b5c:	65640000 	strbvs	r0, [r4, #-0]!
     b60:	6c756166 	ldfvse	f6, [r5], #-408	; 0xfffffe68
     b64:	61682d74 	smcvs	33492	; 0x82d4
     b68:	656c646e 	strbvs	r6, [ip, #-1134]!	; 0x46e
     b6c:	632e7372 	teqvs	lr, #-939524095	; 0xc8000001
     b70:	00000100 	andeq	r0, r0, r0, lsl #2
     b74:	02050000 	andeq	r0, r5, #0
     b78:	00008cec 	andeq	r8, r0, ip, ror #25
     b7c:	02022f15 	andeq	r2, r2, #21, 30	; 0x54
     b80:	c9010100 	stmdbgt	r1, {r8}
     b84:	02000000 	andeq	r0, r0, #0
     b88:	00009a00 	andeq	r9, r0, r0, lsl #20
     b8c:	fb010200 	blx	41396 <__bss_end__+0x3790e>
     b90:	01000d0e 	tsteq	r0, lr, lsl #26
     b94:	00010101 	andeq	r0, r1, r1, lsl #2
     b98:	00010000 	andeq	r0, r1, r0
     b9c:	74730100 	ldrbtvc	r0, [r3], #-256	; 0x100
     ba0:	2d666661 	stclcs	6, cr6, [r6, #-388]!	; 0xfffffe7c
     ba4:	00637273 	rsbeq	r7, r3, r3, ror r2
     ba8:	6573552f 	ldrbvs	r5, [r3, #-1327]!	; 0x52f
     bac:	622f7372 	eorvs	r7, pc, #-939524095	; 0xc8000001
     bb0:	6e616972 	mcrvs	9, 3, r6, cr1, cr2, {3}
     bb4:	2f6e756a 	svccs	0x006e756a
     bb8:	6b736544 	blvs	1cda0d0 <__bss_end__+0x1cd0648>
     bbc:	2f706f74 	svccs	0x00706f74
     bc0:	6f686373 	svcvs	0x00686373
     bc4:	532f6c6f 	teqpl	pc, #28416	; 0x6f00
     bc8:	6e697270 	mcrvs	2, 3, r7, cr9, cr0, {3}
     bcc:	32393167 	eorscc	r3, r9, #-1073741799	; 0xc0000019
     bd0:	53432f30 	movtpl	r2, #16176	; 0x3f30
     bd4:	4c303432 	cfldrsmi	mvf3, [r0], #-200	; 0xffffff38
     bd8:	73632f58 	cmnvc	r3, #88, 30	; 0x160
     bdc:	6c303432 	cfldrsvs	mvf3, [r0], #-200	; 0xffffff38
     be0:	30322d78 	eorscc	r2, r2, r8, ror sp
     be4:	2f727073 	svccs	0x00727073
     be8:	7062696c 	rsbvc	r6, r2, ip, ror #18
     bec:	6e692f69 	cdpvs	15, 6, cr2, cr9, cr9, {3}
     bf0:	64756c63 	ldrbtvs	r6, [r5], #-3171	; 0xc63
     bf4:	69000065 	stmdbvs	r0, {r0, r2, r5, r6}
     bf8:	7265746e 	rsbvc	r7, r5, #1845493760	; 0x6e000000
     bfc:	74707572 	ldrbtvc	r7, [r0], #-1394	; 0x572
     c00:	2e632d73 	mcrcs	13, 3, r2, cr3, cr3, {3}
     c04:	00010063 	andeq	r0, r1, r3, rrx
     c08:	69707200 	ldmdbvs	r0!, {r9, ip, sp, lr}^
     c0c:	746e692d 	strbtvc	r6, [lr], #-2349	; 0x92d
     c10:	75727265 	ldrbvc	r7, [r2, #-613]!	; 0x265
     c14:	2e737470 	mrccs	4, 3, r7, cr3, cr0, {3}
     c18:	00020068 	andeq	r0, r2, r8, rrx
     c1c:	69707200 	ldmdbvs	r0!, {r9, ip, sp, lr}^
     c20:	0200682e 	andeq	r6, r0, #3014656	; 0x2e0000
     c24:	00000000 	andeq	r0, r0, r0
     c28:	8cf40205 	lfmhi	f0, 2, [r4], #20
     c2c:	1a030000 	bne	c0c34 <__bss_end__+0xb71ac>
     c30:	672f3101 	strvs	r3, [pc, -r1, lsl #2]!
     c34:	2f833667 	svccs	0x00833667
     c38:	0402002d 	streq	r0, [r2], #-45	; 0x2d
     c3c:	02002f02 	andeq	r2, r0, #2, 30
     c40:	00650204 	rsbeq	r0, r5, r4, lsl #4
     c44:	06010402 	streq	r0, [r1], -r2, lsl #8
     c48:	024c062e 	subeq	r0, ip, #48234496	; 0x2e00000
     c4c:	0101000a 	tsteq	r1, sl
     c50:	000000a2 	andeq	r0, r0, r2, lsr #1
     c54:	00800002 	addeq	r0, r0, r2
     c58:	01020000 	mrseq	r0, (UNDEF: 2)
     c5c:	000d0efb 	strdeq	r0, [sp], -fp
     c60:	01010101 	tsteq	r1, r1, lsl #2
     c64:	01000000 	mrseq	r0, (UNDEF: 0)
     c68:	73010000 	movwvc	r0, #4096	; 0x1000
     c6c:	66666174 			; <UNDEFINED> instruction: 0x66666174
     c70:	6372732d 	cmnvs	r2, #-1275068416	; 0xb4000000
     c74:	73552f00 	cmpvc	r5, #0, 30
     c78:	2f737265 	svccs	0x00737265
     c7c:	61697262 	cmnvs	r9, r2, ror #4
     c80:	6e756a6e 	vsubvs.f32	s13, s10, s29
     c84:	7365442f 	cmnvc	r5, #788529152	; 0x2f000000
     c88:	706f746b 	rsbvc	r7, pc, fp, ror #8
     c8c:	6863732f 	stmdavs	r3!, {r0, r1, r2, r3, r5, r8, r9, ip, sp, lr}^
     c90:	2f6c6f6f 	svccs	0x006c6f6f
     c94:	69727053 	ldmdbvs	r2!, {r0, r1, r4, r6, ip, sp, lr}^
     c98:	3931676e 	ldmdbcc	r1!, {r1, r2, r3, r5, r6, r8, r9, sl, sp, lr}
     c9c:	432f3032 	teqmi	pc, #50	; 0x32
     ca0:	30343253 	eorscc	r3, r4, r3, asr r2
     ca4:	632f584c 	teqvs	pc, #76, 16	; 0x4c0000
     ca8:	30343273 	eorscc	r3, r4, r3, ror r2
     cac:	322d786c 	eorcc	r7, sp, #108, 16	; 0x6c0000
     cb0:	72707330 	rsbsvc	r7, r0, #48, 6	; 0xc0000000
     cb4:	62696c2f 	rsbvs	r6, r9, #12032	; 0x2f00
     cb8:	692f6970 	stmdbvs	pc!, {r4, r5, r6, r8, fp, sp, lr}	; <UNPREDICTABLE>
     cbc:	756c636e 	strbvc	r6, [ip, #-878]!	; 0x36e
     cc0:	00006564 	andeq	r6, r0, r4, ror #10
     cc4:	6f626572 	svcvs	0x00626572
     cc8:	632e746f 	teqvs	lr, #1862270976	; 0x6f000000
     ccc:	00000100 	andeq	r0, r0, r0, lsl #2
     cd0:	2e697072 	mcrcs	0, 3, r7, cr9, cr2, {3}
     cd4:	00020068 	andeq	r0, r2, r8, rrx
     cd8:	05000000 	streq	r0, [r0, #-0]
     cdc:	008d6002 	addeq	r6, sp, r2
     ce0:	010d0300 	mrseq	r0, SP_mon
     ce4:	852f3114 	strhi	r3, [pc, #-276]!	; bd8 <__code_start__-0x7428>
     ce8:	4d4b2f15 	stclmi	15, cr2, [fp, #-84]	; 0xffffffac
     cec:	5235672f 	eorspl	r6, r5, #12320768	; 0xbc0000
     cf0:	00100267 	andseq	r0, r0, r7, ror #4
     cf4:	00ae0101 	adceq	r0, lr, r1, lsl #2
     cf8:	00020000 	andeq	r0, r2, r0
     cfc:	0000007f 	andeq	r0, r0, pc, ror r0
     d00:	0efb0102 	cdpeq	1, 15, cr0, cr11, cr2, {0}
     d04:	0101000d 	tsteq	r1, sp
     d08:	00000101 	andeq	r0, r0, r1, lsl #2
     d0c:	00000100 	andeq	r0, r0, r0, lsl #2
     d10:	61747301 	cmnvs	r4, r1, lsl #6
     d14:	732d6666 	teqvc	sp, #106954752	; 0x6600000
     d18:	2f006372 	svccs	0x00006372
     d1c:	72657355 	rsbvc	r7, r5, #1409286145	; 0x54000001
     d20:	72622f73 	rsbvc	r2, r2, #460	; 0x1cc
     d24:	6a6e6169 	bvs	1b992d0 <__bss_end__+0x1b8f848>
     d28:	442f6e75 	strtmi	r6, [pc], #-3701	; d30 <__code_start__-0x72d0>
     d2c:	746b7365 	strbtvc	r7, [fp], #-869	; 0x365
     d30:	732f706f 	teqvc	pc, #111	; 0x6f
     d34:	6f6f6863 	svcvs	0x006f6863
     d38:	70532f6c 	subsvc	r2, r3, ip, ror #30
     d3c:	676e6972 			; <UNDEFINED> instruction: 0x676e6972
     d40:	30323931 	eorscc	r3, r2, r1, lsr r9
     d44:	3253432f 	subscc	r4, r3, #-1140850688	; 0xbc000000
     d48:	584c3034 	stmdapl	ip, {r2, r4, r5, ip, sp}^
     d4c:	3273632f 	rsbscc	r6, r3, #-1140850688	; 0xbc000000
     d50:	786c3034 	stmdavc	ip!, {r2, r4, r5, ip, sp}^
     d54:	7330322d 	teqvc	r0, #-805306366	; 0xd0000002
     d58:	6c2f7270 	sfmvs	f7, 4, [pc], #-448	; ba0 <__code_start__-0x7460>
     d5c:	69706269 	ldmdbvs	r0!, {r0, r3, r5, r6, r9, sp, lr}^
     d60:	636e692f 	cmnvs	lr, #770048	; 0xbc000
     d64:	6564756c 	strbvs	r7, [r4, #-1388]!	; 0x56c
     d68:	69740000 	ldmdbvs	r4!, {}^	; <UNPREDICTABLE>
     d6c:	2e72656d 	cdpcs	5, 7, cr6, cr2, cr13, {3}
     d70:	00010063 	andeq	r0, r1, r3, rrx
     d74:	69707200 	ldmdbvs	r0!, {r9, ip, sp, lr}^
     d78:	0200682e 	andeq	r6, r0, #3014656	; 0x2e0000
     d7c:	00000000 	andeq	r0, r0, r0
     d80:	8dd40205 	lfmhi	f0, 2, [r4, #20]
     d84:	14160000 	ldrne	r0, [r6], #-0
     d88:	02002d2f 	andeq	r2, r0, #3008	; 0xbc0
     d8c:	2e060104 	adfcss	f0, f6, f4
     d90:	2f316d06 	svccs	0x00316d06
     d94:	2f314d4b 	svccs	0x00314d4b
     d98:	4b4c304b 	blmi	130cecc <__bss_end__+0x1303444>
     d9c:	2f6a2f4c 	svccs	0x006a2f4c
     da0:	022f842f 	eoreq	r8, pc, #788529152	; 0x2f000000
     da4:	01010008 	tsteq	r1, r8
     da8:	00000148 	andeq	r0, r0, r8, asr #2
     dac:	01020002 	tsteq	r2, r2
     db0:	01020000 	mrseq	r0, (UNDEF: 2)
     db4:	000d0efb 	strdeq	r0, [sp], -fp
     db8:	01010101 	tsteq	r1, r1, lsl #2
     dbc:	01000000 	mrseq	r0, (UNDEF: 0)
     dc0:	2f010000 	svccs	0x00010000
     dc4:	2f727375 	svccs	0x00727375
     dc8:	6c636e69 	stclvs	14, cr6, [r3], #-420	; 0xfffffe5c
     dcc:	2f656475 	svccs	0x00656475
     dd0:	6c77656e 	cfldr64vs	mvdx6, [r7], #-440	; 0xfffffe48
     dd4:	732f6269 	teqvc	pc, #-1879048186	; 0x90000006
     dd8:	2f007379 	svccs	0x00007379
     ddc:	2f727375 	svccs	0x00727375
     de0:	2f62696c 	svccs	0x0062696c
     de4:	2f636367 	svccs	0x00636367
     de8:	2d6d7261 	sfmcs	f7, 2, [sp, #-388]!	; 0xfffffe7c
     dec:	656e6f6e 	strbvs	r6, [lr, #-3950]!	; 0xf6e
     df0:	6261652d 	rsbvs	r6, r1, #188743680	; 0xb400000
     df4:	2e362f69 	cdpcs	15, 3, cr2, cr6, cr9, {3}
     df8:	2f312e33 	svccs	0x00312e33
     dfc:	6c636e69 	stclvs	14, cr6, [r3], #-420	; 0xfffffe5c
     e00:	00656475 	rsbeq	r6, r5, r5, ror r4
     e04:	6d6f682f 	stclvs	8, cr6, [pc, #-188]!	; d50 <__code_start__-0x72b0>
     e08:	6e652f65 	cdpvs	15, 6, cr2, cr5, cr5, {3}
     e0c:	72656c67 	rsbvc	r6, r5, #26368	; 0x6700
     e10:	616c632f 	cmnvs	ip, pc, lsr #6
     e14:	632f7373 	teqvs	pc, #-872415231	; 0xcc000001
     e18:	30343273 	eorscc	r3, r4, r3, ror r2
     e1c:	322d786c 	eorcc	r7, sp, #108, 16	; 0x6c0000
     e20:	72707330 	rsbsvc	r7, r0, #48, 6	; 0xc0000000
     e24:	696c2f2f 	stmdbvs	ip!, {r0, r1, r2, r3, r5, r8, r9, sl, fp, sp}^
     e28:	00697062 	rsbeq	r7, r9, r2, rrx
     e2c:	6d6f682f 	stclvs	8, cr6, [pc, #-188]!	; d78 <__code_start__-0x7288>
     e30:	6e652f65 	cdpvs	15, 6, cr2, cr5, cr5, {3}
     e34:	72656c67 	rsbvc	r6, r5, #26368	; 0x6700
     e38:	616c632f 	cmnvs	ip, pc, lsr #6
     e3c:	632f7373 	teqvs	pc, #-872415231	; 0xcc000001
     e40:	30343273 	eorscc	r3, r4, r3, ror r2
     e44:	322d786c 	eorcc	r7, sp, #108, 16	; 0x6c0000
     e48:	72707330 	rsbsvc	r7, r0, #48, 6	; 0xc0000000
     e4c:	696c2f2f 	stmdbvs	ip!, {r0, r1, r2, r3, r5, r8, r9, sl, fp, sp}^
     e50:	2f697062 	svccs	0x00697062
     e54:	66617473 			; <UNDEFINED> instruction: 0x66617473
     e58:	72732d66 	rsbsvc	r2, r3, #6528	; 0x1980
     e5c:	75000063 	strvc	r0, [r0, #-99]	; 0x63
     e60:	2e747261 	cdpcs	2, 7, cr7, cr4, cr1, {3}
     e64:	00000063 	andeq	r0, r0, r3, rrx
     e68:	636f6c00 	cmnvs	pc, #0, 24
     e6c:	00682e6b 	rsbeq	r2, r8, fp, ror #28
     e70:	5f000001 	svcpl	0x00000001
     e74:	65707974 	ldrbvs	r7, [r0, #-2420]!	; 0x974
     e78:	00682e73 	rsbeq	r2, r8, r3, ror lr
     e7c:	73000001 	movwvc	r0, #1
     e80:	65646474 	strbvs	r6, [r4, #-1140]!	; 0x474
     e84:	00682e66 	rsbeq	r2, r8, r6, ror #28
     e88:	72000002 	andvc	r0, r0, #2
     e8c:	746e6565 	strbtvc	r6, [lr], #-1381	; 0x565
     e90:	0100682e 	tsteq	r0, lr, lsr #16
     e94:	70720000 	rsbsvc	r0, r2, r0
     e98:	00682e69 	rsbeq	r2, r8, r9, ror #28
     e9c:	75000003 	strvc	r0, [r0, #-3]
     ea0:	2e747261 	cdpcs	2, 7, cr7, cr4, cr1, {3}
     ea4:	00040068 	andeq	r0, r4, r8, rrx
     ea8:	69706700 	ldmdbvs	r0!, {r8, r9, sl, sp, lr}^
     eac:	00682e6f 	rsbeq	r2, r8, pc, ror #28
     eb0:	00000004 	andeq	r0, r0, r4
     eb4:	d0020500 	andle	r0, r2, r0, lsl #10
     eb8:	0300008e 	movweq	r0, #142	; 0x8e
     ebc:	0367012c 	cmneq	r7, #44, 2
     ec0:	67359e0c 	ldrvs	r9, [r5, -ip, lsl #28]!
     ec4:	03683568 	cmneq	r8, #104, 10	; 0x1a000000
     ec8:	6b852e0c 	blvs	fe14c700 <__bss_end__+0xfe142c78>
     ecc:	0c036969 	stceq	9, cr6, [r3], {105}	; 0x69
     ed0:	08676b66 	stmdaeq	r7!, {r1, r2, r5, r6, r8, r9, fp, sp, lr}^
     ed4:	4b683442 	blmi	1a0dfe4 <__bss_end__+0x1a0455c>
     ed8:	2f876836 	svccs	0x00876836
     edc:	01040200 	mrseq	r0, R12_usr
     ee0:	3067682f 	rsbcc	r6, r7, pc, lsr #16
     ee4:	02004b67 	andeq	r4, r0, #105472	; 0x19c00
     ee8:	682f0104 	stmdavs	pc!, {r2, r8}	; <UNPREDICTABLE>
     eec:	022e6967 	eoreq	r6, lr, #1687552	; 0x19c000
     ef0:	01010006 	tsteq	r1, r6
     ef4:	0000012b 	andeq	r0, r0, fp, lsr #2
     ef8:	00f80002 	rscseq	r0, r8, r2
     efc:	01020000 	mrseq	r0, (UNDEF: 2)
     f00:	000d0efb 	strdeq	r0, [sp], -fp
     f04:	01010101 	tsteq	r1, r1, lsl #2
     f08:	01000000 	mrseq	r0, (UNDEF: 0)
     f0c:	2f010000 	svccs	0x00010000
     f10:	2f727375 	svccs	0x00727375
     f14:	6c636e69 	stclvs	14, cr6, [r3], #-420	; 0xfffffe5c
     f18:	2f656475 	svccs	0x00656475
     f1c:	6c77656e 	cfldr64vs	mvdx6, [r7], #-440	; 0xfffffe48
     f20:	732f6269 	teqvc	pc, #-1879048186	; 0x90000006
     f24:	2f007379 	svccs	0x00007379
     f28:	2f727375 	svccs	0x00727375
     f2c:	2f62696c 	svccs	0x0062696c
     f30:	2f636367 	svccs	0x00636367
     f34:	2d6d7261 	sfmcs	f7, 2, [sp, #-388]!	; 0xfffffe7c
     f38:	656e6f6e 	strbvs	r6, [lr, #-3950]!	; 0xf6e
     f3c:	6261652d 	rsbvs	r6, r1, #188743680	; 0xb400000
     f40:	2e362f69 	cdpcs	15, 3, cr2, cr6, cr9, {3}
     f44:	2f312e33 	svccs	0x00312e33
     f48:	6c636e69 	stclvs	14, cr6, [r3], #-420	; 0xfffffe5c
     f4c:	00656475 	rsbeq	r6, r5, r5, ror r4
     f50:	6d6f682f 	stclvs	8, cr6, [pc, #-188]!	; e9c <__code_start__-0x7164>
     f54:	6e652f65 	cdpvs	15, 6, cr2, cr5, cr5, {3}
     f58:	72656c67 	rsbvc	r6, r5, #26368	; 0x6700
     f5c:	616c632f 	cmnvs	ip, pc, lsr #6
     f60:	632f7373 	teqvs	pc, #-872415231	; 0xcc000001
     f64:	30343273 	eorscc	r3, r4, r3, ror r2
     f68:	322d786c 	eorcc	r7, sp, #108, 16	; 0x6c0000
     f6c:	72707330 	rsbsvc	r7, r0, #48, 6	; 0xc0000000
     f70:	696c2f2f 	stmdbvs	ip!, {r0, r1, r2, r3, r5, r8, r9, sl, fp, sp}^
     f74:	00697062 	rsbeq	r7, r9, r2, rrx
     f78:	6d6f682f 	stclvs	8, cr6, [pc, #-188]!	; ec4 <__code_start__-0x713c>
     f7c:	6e652f65 	cdpvs	15, 6, cr2, cr5, cr5, {3}
     f80:	72656c67 	rsbvc	r6, r5, #26368	; 0x6700
     f84:	616c632f 	cmnvs	ip, pc, lsr #6
     f88:	632f7373 	teqvs	pc, #-872415231	; 0xcc000001
     f8c:	30343273 	eorscc	r3, r4, r3, ror r2
     f90:	322d786c 	eorcc	r7, sp, #108, 16	; 0x6c0000
     f94:	72707330 	rsbsvc	r7, r0, #48, 6	; 0xc0000000
     f98:	696c2f2f 	stmdbvs	ip!, {r0, r1, r2, r3, r5, r8, r9, sl, fp, sp}^
     f9c:	2f697062 	svccs	0x00697062
     fa0:	66617473 			; <UNDEFINED> instruction: 0x66617473
     fa4:	72732d66 	rsbsvc	r2, r3, #6528	; 0x1980
     fa8:	67000063 	strvs	r0, [r0, -r3, rrx]
     fac:	2e6f6970 	mcrcs	9, 3, r6, cr15, cr0, {3}
     fb0:	00000063 	andeq	r0, r0, r3, rrx
     fb4:	636f6c00 	cmnvs	pc, #0, 24
     fb8:	00682e6b 	rsbeq	r2, r8, fp, ror #28
     fbc:	5f000001 	svcpl	0x00000001
     fc0:	65707974 	ldrbvs	r7, [r0, #-2420]!	; 0x974
     fc4:	00682e73 	rsbeq	r2, r8, r3, ror lr
     fc8:	73000001 	movwvc	r0, #1
     fcc:	65646474 	strbvs	r6, [r4, #-1140]!	; 0x474
     fd0:	00682e66 	rsbeq	r2, r8, r6, ror #28
     fd4:	72000002 	andvc	r0, r0, #2
     fd8:	746e6565 	strbtvc	r6, [lr], #-1381	; 0x565
     fdc:	0100682e 	tsteq	r0, lr, lsr #16
     fe0:	70720000 	rsbsvc	r0, r2, r0
     fe4:	00682e69 	rsbeq	r2, r8, r9, ror #28
     fe8:	67000003 	strvs	r0, [r0, -r3]
     fec:	2e6f6970 	mcrcs	9, 3, r6, cr15, cr0, {3}
     ff0:	00040068 	andeq	r0, r4, r8, rrx
     ff4:	05000000 	streq	r0, [r0, #-0]
     ff8:	00904802 	addseq	r4, r0, r2, lsl #16
     ffc:	01270300 	teqeq	r7, r0, lsl #6
    1000:	4f474c13 	svcmi	0x00474c13
    1004:	4c4b68f4 	mcrrmi	8, 15, r6, fp, cr4
    1008:	136a2fa1 	cmnne	sl, #644	; 0x284
    100c:	13be3149 			; <UNDEFINED> instruction: 0x13be3149
    1010:	2fbe3149 	svccs	0x00be3149
    1014:	484d2f6a 	stmdami	sp, {r1, r3, r5, r6, r8, r9, sl, fp, sp}^
    1018:	3249134f 	subcc	r1, r9, #1006632961	; 0x3c000001
    101c:	0602b72f 	streq	fp, [r2], -pc, lsr #14
    1020:	Address 0x0000000000001020 is out of bounds.


Disassembly of section .debug_str:

00000000 <.debug_str>:
   0:	74736574 	ldrbtvc	r6, [r3], #-1396	; 0x574
   4:	7465675f 	strbtvc	r6, [r5], #-1887	; 0x75f
   8:	2f003233 	svccs	0x00003233
   c:	72657355 	rsbvc	r7, r5, #1409286145	; 0x54000001
  10:	72622f73 	rsbvc	r2, r2, #460	; 0x1cc
  14:	6a6e6169 	bvs	1b985c0 <__bss_end__+0x1b8eb38>
  18:	442f6e75 	strtmi	r6, [pc], #-3701	; 20 <__code_start__-0x7fe0>
  1c:	746b7365 	strbtvc	r7, [fp], #-869	; 0x365
  20:	732f706f 	teqvc	pc, #111	; 0x6f
  24:	6f6f6863 	svcvs	0x006f6863
  28:	70532f6c 	subsvc	r2, r3, ip, ror #30
  2c:	676e6972 			; <UNDEFINED> instruction: 0x676e6972
  30:	30323931 	eorscc	r3, r2, r1, lsr r9
  34:	3253432f 	subscc	r4, r3, #-1140850688	; 0xbc000000
  38:	584c3034 	stmdapl	ip, {r2, r4, r5, ip, sp}^
  3c:	3273632f 	rsbscc	r6, r3, #-1140850688	; 0xbc000000
  40:	786c3034 	stmdavc	ip!, {r2, r4, r5, ip, sp}^
  44:	7330322d 	teqvc	r0, #-805306366	; 0xd0000002
  48:	6c2f7270 	sfmvs	f7, 4, [pc], #-448	; fffffe90 <__bss_end__+0xffff6408>
  4c:	2f736261 	svccs	0x00736261
  50:	772d3531 			; <UNDEFINED> instruction: 0x772d3531
  54:	68637461 	stmdavs	r3!, {r0, r5, r6, sl, ip, sp, lr}^
  58:	6e696f70 	mcrvs	15, 3, r6, cr9, cr0, {3}
  5c:	6f632f74 	svcvs	0x00632f74
  60:	73006564 	movwvc	r6, #1380	; 0x564
  64:	74726f68 	ldrbtvc	r6, [r2], #-3944	; 0xf68
  68:	736e7520 	cmnvc	lr, #32, 10	; 0x8000000
  6c:	656e6769 	strbvs	r6, [lr, #-1897]!	; 0x769
  70:	6e692064 	cdpvs	0, 6, cr2, cr9, cr4, {3}
  74:	6f6e0074 	svcvs	0x006e0074
  78:	69616d74 	stmdbvs	r1!, {r2, r4, r5, r6, r8, sl, fp, sp, lr}^
  7c:	6574006e 	ldrbvs	r0, [r4, #-110]!	; 0x6e
  80:	2f737473 	svccs	0x00737473
  84:	74736574 	ldrbtvc	r6, [r3], #-1396	; 0x574
  88:	00632e32 	rsbeq	r2, r3, r2, lsr lr
  8c:	63746177 	cmnvs	r4, #-1073741795	; 0xc000001d
  90:	5f747068 	svcpl	0x00747068
  94:	30746573 	rsbscc	r6, r4, r3, ror r5
  98:	736e7500 	cmnvc	lr, #0, 10
  9c:	656e6769 	strbvs	r6, [lr, #-1897]!	; 0x769
  a0:	68632064 	stmdavs	r3!, {r2, r5, r6, sp}^
  a4:	63007261 	movwvs	r7, #609	; 0x261
  a8:	6e61656c 	cdpvs	5, 6, cr6, cr1, cr12, {3}
  ac:	6265725f 	rsbvs	r7, r5, #-268435451	; 0xf0000005
  b0:	00746f6f 	rsbseq	r6, r4, pc, ror #30
  b4:	63746177 	cmnvs	r4, #-1073741795	; 0xc000001d
  b8:	5f747068 	svcpl	0x00747068
  bc:	646e6168 	strbtvs	r6, [lr], #-360	; 0x168
  c0:	0072656c 	rsbseq	r6, r2, ip, ror #10
  c4:	646e6168 	strbtvs	r6, [lr], #-360	; 0x168
  c8:	5f72656c 	svcpl	0x0072656c
  cc:	5f5f0074 	svcpl	0x005f0074
  d0:	434e5546 	movtmi	r5, #58694	; 0xe546
  d4:	4e4f4954 	mcrmi	9, 2, r4, cr15, cr4, {2}
  d8:	77005f5f 	smlsdvc	r0, pc, pc, r5	; <UNPREDICTABLE>
  dc:	5f726166 	svcpl	0x00726166
  e0:	00746567 	rsbseq	r6, r4, r7, ror #10
  e4:	20554e47 	subscs	r4, r5, r7, asr #28
  e8:	2e342043 	cdpcs	0, 3, cr2, cr4, cr3, {2}
  ec:	20332e38 	eorscs	r2, r3, r8, lsr lr
  f0:	70636d2d 	rsbvc	r6, r3, sp, lsr #26
  f4:	72613d75 	rsbvc	r3, r1, #7488	; 0x1d40
  f8:	3731316d 	ldrcc	r3, [r1, -sp, ror #2]!
  fc:	667a6a36 			; <UNDEFINED> instruction: 0x667a6a36
 100:	2d20732d 	stccs	3, cr7, [r0, #-180]!	; 0xffffff4c
 104:	6e75746d 	cdpvs	4, 7, cr7, cr5, cr13, {3}
 108:	72613d65 	rsbvc	r3, r1, #6464	; 0x1940
 10c:	3731316d 	ldrcc	r3, [r1, -sp, ror #2]!
 110:	667a6a36 			; <UNDEFINED> instruction: 0x667a6a36
 114:	2d20732d 	stccs	3, cr7, [r0, #-180]!	; 0xffffff4c
 118:	62646767 	rsbvs	r6, r4, #27000832	; 0x19c0000
 11c:	674f2d20 	strbvs	r2, [pc, -r0, lsr #26]
 120:	74732d20 	ldrbtvc	r2, [r3], #-3360	; 0xd20
 124:	6e673d64 	cdpvs	13, 6, cr3, cr7, cr4, {3}
 128:	20393975 	eorscs	r3, r9, r5, ror r9
 12c:	7266662d 	rsbvc	r6, r6, #47185920	; 0x2d00000
 130:	74736565 	ldrbtvc	r6, [r3], #-1381	; 0x565
 134:	69646e61 	stmdbvs	r4!, {r0, r5, r6, r9, sl, fp, sp, lr}^
 138:	2d20676e 	stccs	7, cr6, [r0, #-440]!	; 0xfffffe48
 13c:	2d6f6e66 	stclcs	14, cr6, [pc, #-408]!	; ffffffac <__bss_end__+0xffff6524>
 140:	6c706f74 	ldclvs	15, cr6, [r0], #-464	; 0xfffffe30
 144:	6c657665 	stclvs	6, cr7, [r5], #-404	; 0xfffffe6c
 148:	6f65722d 	svcvs	0x0065722d
 14c:	72656472 	rsbvc	r6, r5, #1912602624	; 0x72000000
 150:	6e6f6c00 	cdpvs	12, 6, cr6, cr15, cr0, {0}
 154:	6f6c2067 	svcvs	0x006c2067
 158:	7520676e 	strvc	r6, [r0, #-1902]!	; 0x76e
 15c:	6769736e 	strbvs	r7, [r9, -lr, ror #6]!
 160:	2064656e 	rsbcs	r6, r4, lr, ror #10
 164:	00746e69 	rsbseq	r6, r4, r9, ror #28
 168:	61746164 	cmnvs	r4, r4, ror #2
 16c:	6c756166 	ldfvse	f6, [r5], #-408	; 0xfffffe68
 170:	72665f74 	rsbvc	r5, r6, #116, 30	; 0x1d0
 174:	6c5f6d6f 	mrrcvs	13, 6, r6, pc, cr15	; <UNPREDICTABLE>
 178:	65740064 	ldrbvs	r0, [r4, #-100]!	; 0x64
 17c:	705f7473 	subsvc	r7, pc, r3, ror r4	; <UNPREDICTABLE>
 180:	32337475 	eorscc	r7, r3, #1962934272	; 0x75000000
 184:	7a697300 	bvc	1a5cd8c <__bss_end__+0x1a53304>
 188:	70797465 	rsbsvc	r7, r9, r5, ror #8
 18c:	6f6c0065 	svcvs	0x006c0065
 190:	6c20676e 	stcvs	7, cr6, [r0], #-440	; 0xfffffe48
 194:	20676e6f 	rsbcs	r6, r7, pc, ror #28
 198:	00746e69 	rsbseq	r6, r4, r9, ror #28
 19c:	73676572 	cmnvc	r7, #478150656	; 0x1c800000
 1a0:	6f687300 	svcvs	0x00687300
 1a4:	69207472 	stmdbvs	r0!, {r1, r4, r5, r6, sl, ip, sp, lr}
 1a8:	6400746e 	strvs	r7, [r0], #-1134	; 0x46e
 1ac:	5f727366 	svcpl	0x00727366
 1b0:	00746567 	rsbseq	r6, r4, r7, ror #10
 1b4:	72736664 	rsbsvc	r6, r3, #100, 12	; 0x6400000
 1b8:	6c61765f 	stclvs	6, cr7, [r1], #-380	; 0xfffffe84
 1bc:	6e697500 	cdpvs	5, 6, cr7, cr9, cr0, {0}
 1c0:	5f323374 	svcpl	0x00323374
 1c4:	70630074 	rsbvc	r0, r3, r4, ror r0
 1c8:	655f3431 	ldrbvs	r3, [pc, #-1073]	; fffffd9f <__bss_end__+0xffff6317>
 1cc:	6c62616e 	stfvse	f6, [r2], #-440	; 0xfffffe48
 1d0:	70720065 	rsbsvc	r0, r2, r5, rrx
 1d4:	65725f69 	ldrbvs	r5, [r2, #-3945]!	; 0xf69
 1d8:	5f746573 	svcpl	0x00746573
 1dc:	63747570 	cmnvs	r4, #112, 10	; 0x1c000000
 1e0:	65727000 	ldrbvs	r7, [r2, #-0]!
 1e4:	63746566 	cmnvs	r4, #427819008	; 0x19800000
 1e8:	62615f68 	rsbvs	r5, r1, #104, 30	; 0x1a0
 1ec:	5f74726f 	svcpl	0x0074726f
 1f0:	74636576 	strbtvc	r6, [r3], #-1398	; 0x576
 1f4:	7000726f 	andvc	r7, r0, pc, ror #4
 1f8:	65666572 	strbvs	r6, [r6, #-1394]!	; 0x572
 1fc:	5f686374 	svcpl	0x00686374
 200:	73756c66 	cmnvc	r5, #26112	; 0x6600
 204:	65735f68 	ldrbvs	r5, [r3, #-3944]!	; 0xf68
 208:	666e0074 			; <UNDEFINED> instruction: 0x666e0074
 20c:	746c7561 	strbtvc	r7, [ip], #-1377	; 0x561
 210:	61770073 	cmnvs	r7, r3, ror r0
 214:	65645f73 	strbvs	r5, [r4, #-3955]!	; 0xf73
 218:	66677562 	strbtvs	r7, [r7], -r2, ror #10
 21c:	746c7561 	strbtvc	r7, [ip], #-1377	; 0x561
 220:	6900725f 	stmdbvs	r0, {r0, r1, r2, r3, r4, r6, r9, ip, sp, lr}
 224:	5f726166 	svcpl	0x00726166
 228:	00746567 	rsbseq	r6, r4, r7, ror #10
 22c:	30727677 	rsbscc	r7, r2, r7, ror r6
 230:	6c61765f 	stclvs	6, cr7, [r1], #-380	; 0xfffffe84
 234:	72766200 	rsbsvc	r6, r6, #0, 4
 238:	61765f30 	cmnvs	r6, r0, lsr pc
 23c:	6362006c 	cmnvs	r2, #108	; 0x6c
 240:	725f3072 	subsvc	r3, pc, #114	; 0x72
 244:	77006765 	strvc	r6, [r0, -r5, ror #14]
 248:	5f307263 	svcpl	0x00307263
 24c:	00676572 	rsbeq	r6, r7, r2, ror r5
 250:	6464615f 	strbtvs	r6, [r4], #-351	; 0x15f
 254:	72620072 	rsbvc	r0, r2, #114	; 0x72
 258:	5f74706b 	svcpl	0x0074706b
 25c:	30746573 	rsbscc	r6, r4, r3, ror r5
 260:	74617700 	strbtvc	r7, [r1], #-1792	; 0x700
 264:	74706863 	ldrbtvc	r6, [r0], #-2147	; 0x863
 268:	6e61685f 	mcrvs	8, 3, r6, cr1, cr15, {2}
 26c:	72656c64 	rsbvc	r6, r5, #100, 24	; 0x6400
 270:	70630030 	rsbvc	r0, r3, r0, lsr r0
 274:	625f3431 	subsvs	r3, pc, #822083584	; 0x31000000
 278:	5f307276 	svcpl	0x00307276
 27c:	00746573 	rsbseq	r6, r4, r3, ror r5
 280:	5f736177 	svcpl	0x00736177
 284:	75626564 	strbvc	r6, [r2, #-1380]!	; 0x564
 288:	61645f67 	cmnvs	r4, r7, ror #30
 28c:	61666174 	smcvs	26132	; 0x6614
 290:	00746c75 	rsbseq	r6, r4, r5, ror ip
 294:	61746164 	cmnvs	r4, r4, ror #2
 298:	6f62615f 	svcvs	0x0062615f
 29c:	765f7472 			; <UNDEFINED> instruction: 0x765f7472
 2a0:	6f746365 	svcvs	0x00746365
 2a4:	76770072 			; <UNDEFINED> instruction: 0x76770072
 2a8:	735f3072 	cmpvc	pc, #114	; 0x72
 2ac:	69007465 	stmdbvs	r0, {r0, r2, r5, r6, sl, ip, sp, lr}
 2b0:	5f74696e 	svcpl	0x0074696e
 2b4:	73640070 	cmnvc	r4, #112	; 0x70
 2b8:	735f7263 	cmpvc	pc, #805306374	; 0x30000006
 2bc:	63007465 	movwvs	r7, #1125	; 0x465
 2c0:	2d343170 	ldfcss	f3, [r4, #-448]!	; 0xfffffe40
 2c4:	75626564 	strbvc	r6, [r2, #-1380]!	; 0x564
 2c8:	00632e67 	rsbeq	r2, r3, r7, ror #28
 2cc:	34317063 	ldrtcc	r7, [r1], #-99	; 0x63
 2d0:	7263625f 	rsbvc	r6, r3, #-268435451	; 0xf0000005
 2d4:	65675f30 	strbvs	r5, [r7, #-3888]!	; 0xf30
 2d8:	66690074 			; <UNDEFINED> instruction: 0x66690074
 2dc:	675f7273 			; <UNDEFINED> instruction: 0x675f7273
 2e0:	77007465 	strvc	r7, [r0, -r5, ror #8]
 2e4:	5f307263 	svcpl	0x00307263
 2e8:	00746567 	rsbseq	r6, r4, r7, ror #10
 2ec:	5f736177 	svcpl	0x00736177
 2f0:	75626564 	strbvc	r6, [r2, #-1380]!	; 0x564
 2f4:	6e695f67 	cdpvs	15, 6, cr5, cr9, cr7, {3}
 2f8:	61667473 	smcvs	26435	; 0x6743
 2fc:	00746c75 	rsbseq	r6, r4, r5, ror ip
 300:	706b7262 	rsbvc	r7, fp, r2, ror #4
 304:	61685f74 	smcvs	34292	; 0x85f4
 308:	656c646e 	strbvs	r6, [ip, #-1134]!	; 0x46e
 30c:	77003072 	smlsdxvc	r0, r2, r0, r3
 310:	5f307263 	svcpl	0x00307263
 314:	00746573 	rsbseq	r6, r4, r3, ror r5
 318:	5f746e69 	svcpl	0x00746e69
 31c:	74696e69 	strbtvc	r6, [r9], #-3689	; 0xe69
 320:	31706300 	cmncc	r0, r0, lsl #6
 324:	63625f34 	cmnvs	r2, #52, 30	; 0xd0
 328:	735f3072 	cmpvc	pc, #114	; 0x72
 32c:	5f007465 	svcpl	0x00007465
 330:	756e675f 	strbvc	r6, [lr, #-1887]!	; 0x75f
 334:	61765f63 	cmnvs	r6, r3, ror #30
 338:	73696c5f 	cmnvc	r9, #24320	; 0x5f00
 33c:	696c0074 	stmdbvs	ip!, {r2, r4, r5, r6}^
 340:	702f6362 	eorvc	r6, pc, r2, ror #6
 344:	746e6972 	strbtvc	r6, [lr], #-2418	; 0x972
 348:	00632e6b 	rsbeq	r2, r3, fp, ror #28
 34c:	20554e47 	subscs	r4, r5, r7, asr #28
 350:	2e342043 	cdpcs	0, 3, cr2, cr4, cr3, {2}
 354:	20332e38 	eorscs	r2, r3, r8, lsr lr
 358:	70636d2d 	rsbvc	r6, r3, sp, lsr #26
 35c:	72613d75 	rsbvc	r3, r1, #7488	; 0x1d40
 360:	3731316d 	ldrcc	r3, [r1, -sp, ror #2]!
 364:	667a6a36 			; <UNDEFINED> instruction: 0x667a6a36
 368:	2d20732d 	stccs	3, cr7, [r0, #-180]!	; 0xffffff4c
 36c:	6e75746d 	cdpvs	4, 7, cr7, cr5, cr13, {3}
 370:	72613d65 	rsbvc	r3, r1, #6464	; 0x1940
 374:	3731316d 	ldrcc	r3, [r1, -sp, ror #2]!
 378:	667a6a36 			; <UNDEFINED> instruction: 0x667a6a36
 37c:	2d20732d 	stccs	3, cr7, [r0, #-180]!	; 0xffffff4c
 380:	62646767 	rsbvs	r6, r4, #27000832	; 0x19c0000
 384:	674f2d20 	strbvs	r2, [pc, -r0, lsr #26]
 388:	74732d20 	ldrbtvc	r2, [r3], #-3360	; 0xd20
 38c:	6e673d64 	cdpvs	13, 6, cr3, cr7, cr4, {3}
 390:	20393975 	eorscs	r3, r9, r5, ror r9
 394:	7266662d 	rsbvc	r6, r6, #47185920	; 0x2d00000
 398:	74736565 	ldrbtvc	r6, [r3], #-1381	; 0x565
 39c:	69646e61 	stmdbvs	r4!, {r0, r5, r6, r9, sl, fp, sp, lr}^
 3a0:	7600676e 	strvc	r6, [r0], -lr, ror #14
 3a4:	72705f61 	rsbsvc	r5, r0, #388	; 0x184
 3a8:	6b746e69 	blvs	1d1bd54 <__bss_end__+0x1d122cc>
 3ac:	765f5f00 	ldrbvc	r5, [pc], -r0, lsl #30
 3b0:	696c5f61 	stmdbvs	ip!, {r0, r5, r6, r8, r9, sl, fp, ip, lr}^
 3b4:	2f007473 	svccs	0x00007473
 3b8:	72657355 	rsbvc	r7, r5, #1409286145	; 0x54000001
 3bc:	72622f73 	rsbvc	r2, r2, #460	; 0x1cc
 3c0:	6a6e6169 	bvs	1b9896c <__bss_end__+0x1b8eee4>
 3c4:	442f6e75 	strtmi	r6, [pc], #-3701	; 3cc <__code_start__-0x7c34>
 3c8:	746b7365 	strbtvc	r7, [fp], #-869	; 0x365
 3cc:	732f706f 	teqvc	pc, #111	; 0x6f
 3d0:	6f6f6863 	svcvs	0x006f6863
 3d4:	70532f6c 	subsvc	r2, r3, ip, ror #30
 3d8:	676e6972 			; <UNDEFINED> instruction: 0x676e6972
 3dc:	30323931 	eorscc	r3, r2, r1, lsr r9
 3e0:	3253432f 	subscc	r4, r3, #-1140850688	; 0xbc000000
 3e4:	584c3034 	stmdapl	ip, {r2, r4, r5, ip, sp}^
 3e8:	3273632f 	rsbscc	r6, r3, #-1140850688	; 0xbc000000
 3ec:	786c3034 	stmdavc	ip!, {r2, r4, r5, ip, sp}^
 3f0:	7330322d 	teqvc	r0, #-805306366	; 0xd0000002
 3f4:	6c2f7270 	sfmvs	f7, 4, [pc], #-448	; 23c <__code_start__-0x7dc4>
 3f8:	69706269 	ldmdbvs	r0!, {r0, r3, r5, r6, r9, sp, lr}^
 3fc:	615f5f00 	cmpvs	pc, r0, lsl #30
 400:	61750070 	cmnvs	r5, r0, ror r0
 404:	705f7472 	subsvc	r7, pc, r2, ror r4	; <UNPREDICTABLE>
 408:	00637475 	rsbeq	r7, r3, r5, ror r4
 40c:	65746e69 	ldrbvs	r6, [r4, #-3689]!	; 0xe69
 410:	6c616e72 	stclvs	14, cr6, [r1], #-456	; 0xfffffe38
 414:	7475705f 	ldrbtvc	r7, [r5], #-95	; 0x5f
 418:	72616863 	rsbvc	r6, r1, #6488064	; 0x630000
 41c:	69707200 	ldmdbvs	r0!, {r9, ip, sp, lr}^
 420:	7475705f 	ldrbtvc	r7, [r5], #-95	; 0x5f
 424:	72616863 	rsbvc	r6, r1, #6488064	; 0x630000
 428:	62696c00 	rsbvs	r6, r9, #0, 24
 42c:	75702f63 	ldrbvc	r2, [r0, #-3939]!	; 0xf63
 430:	61686374 	smcvs	34356	; 0x8634
 434:	00632e72 	rsbeq	r2, r3, r2, ror lr
 438:	5f697072 	svcpl	0x00697072
 43c:	5f746573 	svcpl	0x00746573
 440:	63747570 	cmnvs	r4, #112, 10	; 0x1c000000
 444:	62696c00 	rsbvs	r6, r9, #0, 24
 448:	75702f63 	ldrbvc	r2, [r0, #-3939]!	; 0xf63
 44c:	632e6b74 	teqvs	lr, #116, 22	; 0x1d000
 450:	746e6900 	strbtvc	r6, [lr], #-2304	; 0x900
 454:	616e7265 	cmnvs	lr, r5, ror #4
 458:	75705f6c 	ldrbvc	r5, [r0, #-3948]!	; 0xf6c
 45c:	66006b74 			; <UNDEFINED> instruction: 0x66006b74
 460:	735f746d 	cmpvc	pc, #1828716544	; 0x6d000000
 464:	74726174 	ldrbtvc	r6, [r2], #-372	; 0x174
 468:	67656e00 	strbvs	r6, [r5, -r0, lsl #28]!
 46c:	7200705f 	andvc	r7, r0, #95	; 0x5f
 470:	72657665 	rsbvc	r7, r5, #105906176	; 0x6500000
 474:	69006573 	stmdbvs	r0, {r0, r1, r4, r5, r6, r8, sl, sp, lr}
 478:	67696473 			; <UNDEFINED> instruction: 0x67696473
 47c:	70007469 	andvc	r7, r0, r9, ror #8
 480:	5f737475 	svcpl	0x00737475
 484:	73007066 	movwvc	r7, #102	; 0x66
 488:	656e6769 	strbvs	r6, [lr, #-1897]!	; 0x769
 48c:	00705f64 	rsbseq	r5, r0, r4, ror #30
 490:	6362696c 	cmnvs	r2, #108, 18	; 0x1b0000
 494:	2d61762f 	stclcs	6, cr7, [r1, #-188]!	; 0xffffff44
 498:	6e697270 	mcrvs	2, 3, r7, cr9, cr0, {3}
 49c:	632e6b74 	teqvs	lr, #116, 22	; 0x1d000
 4a0:	69707200 	ldmdbvs	r0!, {r9, ip, sp, lr}^
 4a4:	7465735f 	strbtvc	r7, [r5], #-863	; 0x35f
 4a8:	74756f5f 	ldrbtvc	r6, [r5], #-3935	; 0xf5f
 4ac:	00747570 	rsbseq	r7, r4, r0, ror r5
 4b0:	74646977 	strbtvc	r6, [r4], #-2423	; 0x977
 4b4:	75700068 	ldrbvc	r0, [r0, #-104]!	; 0x68
 4b8:	665f6374 			; <UNDEFINED> instruction: 0x665f6374
 4bc:	6d650070 	stclvs	0, cr0, [r5, #-448]!	; 0xfffffe40
 4c0:	72007469 	andvc	r7, r0, #1761607680	; 0x69000000
 4c4:	6f6f6265 	svcvs	0x006f6265
 4c8:	61685f74 	smcvs	34292	; 0x85f4
 4cc:	656c646e 	strbvs	r6, [ip, #-1134]!	; 0x46e
 4d0:	74730072 	ldrbtvc	r0, [r3], #-114	; 0x72
 4d4:	2d666661 	stclcs	6, cr6, [r6, #-388]!	; 0xfffffe7c
 4d8:	2f637273 	svccs	0x00637273
 4dc:	61656c63 	cmnvs	r5, r3, ror #24
 4e0:	65722d6e 	ldrbvs	r2, [r2, #-3438]!	; 0xd6e
 4e4:	746f6f62 	strbtvc	r6, [pc], #-3938	; 4ec <__code_start__-0x7b14>
 4e8:	7200632e 	andvc	r6, r0, #-1207959552	; 0xb8000000
 4ec:	725f6970 	subsvc	r6, pc, #112, 18	; 0x1c0000
 4f0:	6f6f6265 	svcvs	0x006f6265
 4f4:	65640074 	strbvs	r0, [r4, #-116]!	; 0x74
 4f8:	5f79616c 	svcpl	0x0079616c
 4fc:	5f00736d 	svcpl	0x0000736d
 500:	7373625f 	cmnvc	r3, #-268435451	; 0xf0000005
 504:	6174735f 	cmnvs	r4, pc, asr r3
 508:	5f5f7472 	svcpl	0x005f7472
 50c:	625f5f00 	subsvs	r5, pc, #0, 30
 510:	655f7373 	ldrbvs	r7, [pc, #-883]	; 1a5 <__code_start__-0x7e5b>
 514:	5f5f646e 	svcpl	0x005f646e
 518:	74736300 	ldrbtvc	r6, [r3], #-768	; 0x300
 51c:	5f747261 	svcpl	0x00747261
 520:	646e6168 	strbtvs	r6, [lr], #-360	; 0x168
 524:	0072656c 	rsbseq	r6, r2, ip, ror #10
 528:	5f737362 	svcpl	0x00737362
 52c:	00646e65 	rsbeq	r6, r4, r5, ror #28
 530:	7473635f 	ldrbtvc	r6, [r3], #-863	; 0x35f
 534:	00747261 	rsbseq	r7, r4, r1, ror #4
 538:	66617473 			; <UNDEFINED> instruction: 0x66617473
 53c:	72732d66 	rsbsvc	r2, r3, #6528	; 0x1980
 540:	73632f63 	cmnvc	r3, #396	; 0x18c
 544:	74726174 	ldrbtvc	r6, [r2], #-372	; 0x174
 548:	7300632e 	movwvc	r6, #814	; 0x32e
 54c:	66666174 			; <UNDEFINED> instruction: 0x66666174
 550:	6372732d 	cmnvs	r2, #-1275068416	; 0xb4000000
 554:	6665642f 	strbtvs	r6, [r5], -pc, lsr #8
 558:	746c7561 	strbtvc	r7, [ip], #-1377	; 0x561
 55c:	6e61682d 	cdpvs	8, 6, cr6, cr1, cr13, {1}
 560:	72656c64 	rsbvc	r6, r5, #100, 24	; 0x6400
 564:	7361662d 	cmnvc	r1, #47185920	; 0x2d00000
 568:	00632e74 	rsbeq	r2, r3, r4, ror lr
 56c:	74736166 	ldrbtvc	r6, [r3], #-358	; 0x166
 570:	746e695f 	strbtvc	r6, [lr], #-2399	; 0x95f
 574:	75727265 	ldrbvc	r7, [r2, #-613]!	; 0x265
 578:	765f7470 			; <UNDEFINED> instruction: 0x765f7470
 57c:	6f746365 	svcvs	0x00746365
 580:	65720072 	ldrbvs	r0, [r2, #-114]!	; 0x72
 584:	5f746573 	svcpl	0x00746573
 588:	74636576 	strbtvc	r6, [r3], #-1398	; 0x576
 58c:	7300726f 	movwvc	r7, #623	; 0x26f
 590:	66666174 			; <UNDEFINED> instruction: 0x66666174
 594:	6372732d 	cmnvs	r2, #-1275068416	; 0xb4000000
 598:	6665642f 	strbtvs	r6, [r5], -pc, lsr #8
 59c:	746c7561 	strbtvc	r7, [ip], #-1377	; 0x561
 5a0:	6e61682d 	cdpvs	8, 6, cr6, cr1, cr13, {1}
 5a4:	72656c64 	rsbvc	r6, r5, #100, 24	; 0x6400
 5a8:	7365722d 	cmnvc	r5, #-805306366	; 0xd0000002
 5ac:	632e7465 	teqvs	lr, #1694498816	; 0x65000000
 5b0:	61747300 	cmnvs	r4, r0, lsl #6
 5b4:	732d6666 	teqvc	sp, #106954752	; 0x6600000
 5b8:	642f6372 	strtvs	r6, [pc], #-882	; 5c0 <__code_start__-0x7a40>
 5bc:	75616665 	strbvc	r6, [r1, #-1637]!	; 0x665
 5c0:	682d746c 	stmdavs	sp!, {r2, r3, r5, r6, sl, ip, sp, lr}
 5c4:	6c646e61 	stclvs	14, cr6, [r4], #-388	; 0xfffffe7c
 5c8:	732d7265 	teqvc	sp, #1342177286	; 0x50000006
 5cc:	632e6977 	teqvs	lr, #1949696	; 0x1dc000
 5d0:	666f7300 	strbtvs	r7, [pc], -r0, lsl #6
 5d4:	72617774 	rsbvc	r7, r1, #116, 14	; 0x1d00000
 5d8:	6e695f65 	cdpvs	15, 6, cr5, cr9, cr5, {3}
 5dc:	72726574 	rsbsvc	r6, r2, #116, 10	; 0x1d000000
 5e0:	5f747075 	svcpl	0x00747075
 5e4:	74636576 	strbtvc	r6, [r3], #-1398	; 0x576
 5e8:	7300726f 	movwvc	r7, #623	; 0x26f
 5ec:	66666174 			; <UNDEFINED> instruction: 0x66666174
 5f0:	6372732d 	cmnvs	r2, #-1275068416	; 0xb4000000
 5f4:	6665642f 	strbtvs	r6, [r5], -pc, lsr #8
 5f8:	746c7561 	strbtvc	r7, [ip], #-1377	; 0x561
 5fc:	6e61682d 	cdpvs	8, 6, cr6, cr1, cr13, {1}
 600:	72656c64 	rsbvc	r6, r5, #100, 24	; 0x6400
 604:	646e752d 	strbtvs	r7, [lr], #-1325	; 0x52d
 608:	6e696665 	cdpvs	6, 6, cr6, cr9, cr5, {3}
 60c:	692d6465 	pushvs	{r0, r2, r5, r6, sl, sp, lr}
 610:	2e74736e 	cdpcs	3, 7, cr7, cr4, cr14, {3}
 614:	6e750063 	cdpvs	0, 7, cr0, cr5, cr3, {3}
 618:	69666564 	stmdbvs	r6!, {r2, r5, r6, r8, sl, sp, lr}^
 61c:	5f64656e 	svcpl	0x0064656e
 620:	74736e69 	ldrbtvc	r6, [r3], #-3689	; 0xe69
 624:	74637572 	strbtvc	r7, [r3], #-1394	; 0x572
 628:	5f6e6f69 	svcpl	0x006e6f69
 62c:	74636576 	strbtvc	r6, [r3], #-1398	; 0x576
 630:	7300726f 	movwvc	r7, #623	; 0x26f
 634:	66666174 			; <UNDEFINED> instruction: 0x66666174
 638:	6372732d 	cmnvs	r2, #-1275068416	; 0xb4000000
 63c:	6665642f 	strbtvs	r6, [r5], -pc, lsr #8
 640:	746c7561 	strbtvc	r7, [ip], #-1377	; 0x561
 644:	6e61682d 	cdpvs	8, 6, cr6, cr1, cr13, {1}
 648:	72656c64 	rsbvc	r6, r5, #100, 24	; 0x6400
 64c:	00632e73 	rsbeq	r2, r3, r3, ror lr
 650:	5f515249 	svcpl	0x00515249
 654:	646e6570 	strbtvs	r6, [lr], #-1392	; 0x570
 658:	5f676e69 	svcpl	0x00676e69
 65c:	69440032 	stmdbvs	r4, {r1, r4, r5}^
 660:	6c626173 	stfvse	f6, [r2], #-460	; 0xfffffe34
 664:	61425f65 	cmpvs	r2, r5, ror #30
 668:	5f636973 	svcpl	0x00636973
 66c:	73515249 	cmpvc	r1, #-1879048188	; 0x90000004
 670:	51494600 	cmppl	r9, r0, lsl #12
 674:	6e6f635f 	mcrvs	3, 3, r6, cr15, cr15, {2}
 678:	6c6f7274 	sfmvs	f7, 2, [pc], #-464	; 4b0 <__code_start__-0x7b50>
 67c:	6e695f00 	cdpvs	15, 6, cr5, cr9, cr0, {0}
 680:	72726574 	rsbsvc	r6, r2, #116, 10	; 0x1d000000
 684:	5f747075 	svcpl	0x00747075
 688:	6c626174 	stfvse	f6, [r2], #-464	; 0xfffffe30
 68c:	52490065 	subpl	r0, r9, #101	; 0x65
 690:	61625f51 	cmnvs	r2, r1, asr pc
 694:	5f636973 	svcpl	0x00636973
 698:	646e6570 	strbtvs	r6, [lr], #-1392	; 0x570
 69c:	00676e69 	rsbeq	r6, r7, r9, ror #28
 6a0:	62616e45 	rsbvs	r6, r1, #1104	; 0x450
 6a4:	425f656c 	subsmi	r6, pc, #108, 10	; 0x1b000000
 6a8:	63697361 	cmnvs	r9, #-2080374783	; 0x84000001
 6ac:	5152495f 	cmppl	r2, pc, asr r9
 6b0:	6e450073 	mcrvs	0, 2, r0, cr5, cr3, {3}
 6b4:	656c6261 	strbvs	r6, [ip, #-609]!	; 0x261
 6b8:	5152495f 	cmppl	r2, pc, asr r9
 6bc:	00315f73 	eorseq	r5, r1, r3, ror pc
 6c0:	62616e45 	rsbvs	r6, r1, #1104	; 0x450
 6c4:	495f656c 	ldmdbmi	pc, {r2, r3, r5, r6, r8, sl, sp, lr}^	; <UNPREDICTABLE>
 6c8:	5f735152 	svcpl	0x00735152
 6cc:	695f0032 	ldmdbvs	pc, {r1, r4, r5}^	; <UNPREDICTABLE>
 6d0:	7265746e 	rsbvc	r7, r5, #1845493760	; 0x6e000000
 6d4:	74707572 	ldrbtvc	r7, [r0], #-1394	; 0x572
 6d8:	6261745f 	rsbvs	r7, r1, #1593835520	; 0x5f000000
 6dc:	655f656c 	ldrbvs	r6, [pc, #-1388]	; 178 <__code_start__-0x7e88>
 6e0:	6400646e 	strvs	r6, [r0], #-1134	; 0x46e
 6e4:	625f7665 	subsvs	r7, pc, #105906176	; 0x6500000
 6e8:	69727261 	ldmdbvs	r2!, {r0, r5, r6, r9, ip, sp, lr}^
 6ec:	73007265 	movwvc	r7, #613	; 0x265
 6f0:	66666174 			; <UNDEFINED> instruction: 0x66666174
 6f4:	6372732d 	cmnvs	r2, #-1275068416	; 0xb4000000
 6f8:	746e692f 	strbtvc	r6, [lr], #-2351	; 0x92f
 6fc:	75727265 	ldrbvc	r7, [r2, #-613]!	; 0x265
 700:	2d737470 	cfldrdcs	mvd7, [r3, #-448]!	; 0xfffffe40
 704:	00632e63 	rsbeq	r2, r3, r3, ror #28
 708:	5f515249 	svcpl	0x00515249
 70c:	65736142 	ldrbvs	r6, [r3, #-322]!	; 0x142
 710:	54555000 	ldrbpl	r5, [r5], #-0
 714:	44003233 	strmi	r3, [r0], #-563	; 0x233
 718:	62617369 	rsbvs	r7, r1, #-1543503871	; 0xa4000001
 71c:	495f656c 	ldmdbmi	pc, {r2, r3, r5, r6, r8, sl, sp, lr}^	; <UNPREDICTABLE>
 720:	5f735152 	svcpl	0x00735152
 724:	69440031 	stmdbvs	r4, {r0, r4, r5}^
 728:	6c626173 	stfvse	f6, [r2], #-460	; 0xfffffe34
 72c:	52495f65 	subpl	r5, r9, #404	; 0x194
 730:	325f7351 	subscc	r7, pc, #1140850689	; 0x44000001
 734:	51524900 	cmppl	r2, r0, lsl #18
 738:	6e65705f 	mcrvs	0, 3, r7, cr5, cr15, {2}
 73c:	676e6964 	strbvs	r6, [lr, -r4, ror #18]!
 740:	6100315f 	tstvs	r0, pc, asr r1
 744:	73755f74 	cmnvc	r5, #116, 30	; 0x1d0
 748:	6c5f7265 	lfmvs	f7, 2, [pc], {101}	; 0x65
 74c:	6c657665 	stclvs	6, cr7, [r5], #-404	; 0xfffffe6c
 750:	61747300 	cmnvs	r4, r0, lsl #6
 754:	732d6666 	teqvc	sp, #106954752	; 0x6600000
 758:	722f6372 	eorvc	r6, pc, #-939524095	; 0xc8000001
 75c:	6f6f6265 	svcvs	0x006f6265
 760:	00632e74 	rsbeq	r2, r3, r4, ror lr
 764:	525f4d50 	subspl	r4, pc, #80, 26	; 0x1400
 768:	5f435453 	svcpl	0x00435453
 76c:	46435257 			; <UNDEFINED> instruction: 0x46435257
 770:	55465f47 	strbpl	r5, [r6, #-3911]	; 0xf47
 774:	525f4c4c 	subspl	r4, pc, #76, 24	; 0x4c00
 778:	54455345 	strbpl	r5, [r5], #-837	; 0x345
 77c:	5f4d5000 	svcpl	0x004d5000
 780:	474f4457 	smlsldmi	r4, pc, r7, r4	; <UNPREDICTABLE>
 784:	74657300 	strbtvc	r7, [r5], #-768	; 0x300
 788:	6573755f 	ldrbvs	r7, [r3, #-1375]!	; 0x55f
 78c:	656c5f72 	strbvs	r5, [ip, #-3954]!	; 0xf72
 790:	006c6576 	rsbeq	r6, ip, r6, ror r5
 794:	505f4d50 	subspl	r4, pc, r0, asr sp	; <UNPREDICTABLE>
 798:	57535341 	ldrbpl	r5, [r3, -r1, asr #6]
 79c:	0044524f 	subeq	r5, r4, pc, asr #4
 7a0:	525f4d50 	subspl	r4, pc, #80, 26	; 0x1400
 7a4:	00435453 	subeq	r5, r3, r3, asr r4
 7a8:	72737063 	rsbsvc	r7, r3, #99	; 0x63
 7ac:	6d697400 	cfstrdvs	mvd7, [r9, #-0]
 7b0:	675f7265 	ldrbvs	r7, [pc, -r5, ror #4]
 7b4:	755f7465 	ldrbvc	r7, [pc, #-1125]	; 357 <__code_start__-0x7ca9>
 7b8:	5f636573 	svcpl	0x00636573
 7bc:	00776172 	rsbseq	r6, r7, r2, ror r1
 7c0:	616c6564 	cmnvs	ip, r4, ror #10
 7c4:	65735f79 	ldrbvs	r5, [r3, #-3961]!	; 0xf79
 7c8:	74730063 	ldrbtvc	r0, [r3], #-99	; 0x63
 7cc:	2d666661 	stclcs	6, cr6, [r6, #-388]!	; 0xfffffe7c
 7d0:	2f637273 	svccs	0x00637273
 7d4:	656d6974 	strbvs	r6, [sp, #-2420]!	; 0x974
 7d8:	00632e72 	rsbeq	r2, r3, r2, ror lr
 7dc:	33544547 	cmpcc	r4, #297795584	; 0x11c00000
 7e0:	69740032 	ldmdbvs	r4!, {r1, r4, r5}^
 7e4:	00736b63 	rsbseq	r6, r3, r3, ror #22
 7e8:	616c6564 	cmnvs	ip, r4, ror #10
 7ec:	79635f79 	stmdbvc	r3!, {r0, r3, r4, r5, r6, r8, r9, sl, fp, ip, lr}^
 7f0:	73656c63 	cmnvc	r5, #25344	; 0x6300
 7f4:	6c656400 	cfstrdvs	mvd6, [r5], #-0
 7f8:	755f7961 	ldrbvc	r7, [pc, #-2401]	; fffffe9f <__bss_end__+0xffff6417>
 7fc:	69740073 	ldmdbvs	r4!, {r0, r1, r4, r5, r6}^
 800:	5f72656d 	svcpl	0x0072656d
 804:	5f746567 	svcpl	0x00746567
 808:	63657375 	cmnvs	r5, #-738197503	; 0xd4000001
 80c:	73645f00 	cmnvc	r4, #0, 30
 810:	61685f6f 	cmnvs	r8, pc, ror #30
 814:	656c646e 	strbvs	r6, [ip, #-1134]!	; 0x46e
 818:	69735f00 	ldmdbvs	r3!, {r8, r9, sl, fp, ip, lr}^
 81c:	5f00657a 	svcpl	0x0000657a
 820:	646e6172 	strbtvs	r6, [lr], #-370	; 0x172
 824:	5f003834 	svcpl	0x00003834
 828:	72656d65 	rsbvc	r6, r5, #6464	; 0x1940
 82c:	636e6567 	cmnvs	lr, #432013312	; 0x19c00000
 830:	61750079 	cmnvs	r5, r9, ror r0
 834:	695f7472 	ldmdbvs	pc, {r1, r4, r5, r6, sl, ip, sp, lr}^	; <UNPREDICTABLE>
 838:	0074696e 	rsbseq	r6, r4, lr, ror #18
 83c:	7263775f 	rsbvc	r7, r3, #24903680	; 0x17c0000
 840:	626d6f74 	rsbvs	r6, sp, #116, 30	; 0x1d0
 844:	6174735f 	cmnvs	r4, pc, asr r3
 848:	5f006574 	svcpl	0x00006574
 84c:	72736377 	rsbsvc	r6, r3, #-603979775	; 0xdc000001
 850:	626d6f74 	rsbvs	r6, sp, #116, 30	; 0x1d0
 854:	74735f73 	ldrbtvc	r5, [r3], #-3955	; 0xf73
 858:	00657461 	rsbeq	r7, r5, r1, ror #8
 85c:	66626c5f 			; <UNDEFINED> instruction: 0x66626c5f
 860:	657a6973 	ldrbvs	r6, [sl, #-2419]!	; 0x973
 864:	49504700 	ldmdbmi	r0, {r8, r9, sl, lr}^
 868:	55465f4f 	strbpl	r5, [r6, #-3919]	; 0xf4f
 86c:	495f434e 	ldmdbmi	pc, {r1, r2, r3, r6, r8, r9, lr}^	; <UNPREDICTABLE>
 870:	5455504e 	ldrbpl	r5, [r5], #-78	; 0x4e
 874:	626d5f00 	rsbvs	r5, sp, #0, 30
 878:	776f7472 			; <UNDEFINED> instruction: 0x776f7472
 87c:	74735f63 	ldrbtvc	r5, [r3], #-3939	; 0xf63
 880:	00657461 	rsbeq	r7, r5, r1, ror #8
 884:	7463775f 	strbtvc	r7, [r3], #-1887	; 0x75f
 888:	5f626d6f 	svcpl	0x00626d6f
 88c:	74617473 	strbtvc	r7, [r1], #-1139	; 0x473
 890:	5f5f0065 	svcpl	0x005f0065
 894:	735f6d74 	cmpvc	pc, #116, 26	; 0x1d00
 898:	73006365 	movwvc	r6, #869	; 0x365
 89c:	00746174 	rsbseq	r6, r4, r4, ror r1
 8a0:	7562755f 	strbvc	r7, [r2, #-1375]!	; 0x55f
 8a4:	50470066 	subpl	r0, r7, r6, rrx
 8a8:	465f4f49 	ldrbmi	r4, [pc], -r9, asr #30
 8ac:	5f434e55 	svcpl	0x00434e55
 8b0:	31544c41 	cmpcc	r4, r1, asr #24
 8b4:	61625f00 	cmnvs	r2, r0, lsl #30
 8b8:	63006573 	movwvs	r6, #1395	; 0x573
 8bc:	006c746e 	rsbeq	r7, ip, lr, ror #8
 8c0:	6d745f5f 	ldclvs	15, cr5, [r4, #-380]!	; 0xfffffe84
 8c4:	756f685f 	strbvc	r6, [pc, #-2143]!	; 6d <__code_start__-0x7f93>
 8c8:	5f5f0072 	svcpl	0x005f0072
 8cc:	5f006673 	svcpl	0x00006673
 8d0:	655f6e6f 	ldrbvs	r6, [pc, #-3695]	; fffffa69 <__bss_end__+0xffff5fe1>
 8d4:	5f746978 	svcpl	0x00746978
 8d8:	73677261 	cmnvc	r7, #268435462	; 0x10000006
 8dc:	6f635f00 	svcvs	0x00635f00
 8e0:	65696b6f 	strbvs	r6, [r9, #-2927]!	; 0xb6f
 8e4:	735f5f00 	cmpvc	pc, #0, 30
 8e8:	65756c67 	ldrbvs	r6, [r5, #-3175]!	; 0xc67
 8ec:	6c665f00 	stclvs	15, cr5, [r6], #-0
 8f0:	00736761 	rsbseq	r6, r3, r1, ror #14
 8f4:	5f73695f 	svcpl	0x0073695f
 8f8:	00617863 	rsbeq	r7, r1, r3, ror #16
 8fc:	6474735f 	ldrbtvs	r7, [r4], #-863	; 0x35f
 900:	5f006e69 	svcpl	0x00006e69
 904:	736b6c62 	cmnvc	fp, #25088	; 0x6200
 908:	00657a69 	rsbeq	r7, r5, r9, ror #20
 90c:	74726175 	ldrbtvc	r6, [r2], #-373	; 0x175
 910:	6100632e 	tstvs	r0, lr, lsr #6
 914:	705f7875 	subsvc	r7, pc, r5, ror r8	; <UNPREDICTABLE>
 918:	70697265 	rsbvc	r7, r9, r5, ror #4
 91c:	5f007368 	svcpl	0x00007368
 920:	62747663 	rsbsvs	r7, r4, #103809024	; 0x6300000
 924:	2f006675 	svccs	0x00006675
 928:	656d6f68 	strbvs	r6, [sp, #-3944]!	; 0xf68
 92c:	676e652f 	strbvs	r6, [lr, -pc, lsr #10]!
 930:	2f72656c 	svccs	0x0072656c
 934:	73616c63 	cmnvc	r1, #25344	; 0x6300
 938:	73632f73 	cmnvc	r3, #460	; 0x1cc
 93c:	6c303432 	cfldrsvs	mvf3, [r0], #-200	; 0xffffff38
 940:	30322d78 	eorscc	r2, r2, r8, ror sp
 944:	2f727073 	svccs	0x00727073
 948:	7062696c 	rsbvc	r6, r2, ip, ror #18
 94c:	74732f69 	ldrbtvc	r2, [r3], #-3945	; 0xf69
 950:	2d666661 	stclcs	6, cr6, [r6, #-388]!	; 0xfffffe7c
 954:	76697270 			; <UNDEFINED> instruction: 0x76697270
 958:	00657461 	rsbeq	r7, r5, r1, ror #8
 95c:	73626d5f 	cmnvc	r2, #6080	; 0x17c0
 960:	776f7472 			; <UNDEFINED> instruction: 0x776f7472
 964:	735f7363 	cmpvc	pc, #-1946157055	; 0x8c000001
 968:	65746174 	ldrbvs	r6, [r4, #-372]!	; 0x174
 96c:	626d5f00 	rsbvs	r5, sp, #0, 30
 970:	6e656c72 	mcrvs	12, 3, r6, cr5, cr2, {3}
 974:	6174735f 	cmnvs	r4, pc, asr r3
 978:	5f006574 	svcpl	0x00006574
 97c:	72616e66 	rsbvc	r6, r1, #1632	; 0x660
 980:	61007367 	tstvs	r0, r7, ror #6
 984:	655f7875 	ldrbvs	r7, [pc, #-2165]	; 117 <__code_start__-0x7ee9>
 988:	6c62616e 	stfvse	f6, [r2], #-440	; 0xfffffe48
 98c:	5f007365 	svcpl	0x00007365
 990:	00736e66 	rsbseq	r6, r3, r6, ror #28
 994:	6769735f 			; <UNDEFINED> instruction: 0x6769735f
 998:	6175006e 	cmnvs	r5, lr, rrx
 99c:	635f7472 	cmpvs	pc, #1912602624	; 0x72000000
 9a0:	705f6e61 	subsvc	r6, pc, r1, ror #28
 9a4:	00637475 	rsbeq	r7, r3, r5, ror r4
 9a8:	6f6c665f 	svcvs	0x006c665f
 9ac:	745f6b63 	ldrbvc	r6, [pc], #-2915	; 9b4 <__code_start__-0x764c>
 9b0:	74735f00 	ldrbtvc	r5, [r3], #-3840	; 0xf00
 9b4:	72726564 	rsbsvc	r6, r2, #100, 10	; 0x19000000
 9b8:	69425f00 	stmdbvs	r2, {r8, r9, sl, fp, ip, lr}^
 9bc:	746e6967 	strbtvc	r6, [lr], #-2407	; 0x967
 9c0:	61675f00 	cmnvs	r7, r0, lsl #30
 9c4:	5f616d6d 	svcpl	0x00616d6d
 9c8:	6e676973 	mcrvs	9, 3, r6, cr7, cr3, {3}
 9cc:	006d6167 	rsbeq	r6, sp, r7, ror #2
 9d0:	7365725f 	cmnvc	r5, #-268435451	; 0xf0000005
 9d4:	5f746c75 	svcpl	0x00746c75
 9d8:	5f5f006b 	svcpl	0x005f006b
 9dc:	5f006d74 	svcpl	0x00006d74
 9e0:	6863775f 	stmdavs	r3!, {r0, r1, r2, r3, r4, r6, r8, r9, sl, ip, sp, lr}^
 9e4:	61750062 	cmnvs	r5, r2, rrx
 9e8:	675f7472 			; <UNDEFINED> instruction: 0x675f7472
 9ec:	00637465 	rsbeq	r7, r3, r5, ror #8
 9f0:	6474735f 	ldrbtvs	r7, [r4], #-863	; 0x35f
 9f4:	0074756f 	rsbseq	r7, r4, pc, ror #10
 9f8:	7476635f 	ldrbtvc	r6, [r6], #-863	; 0x35f
 9fc:	006e656c 	rsbeq	r6, lr, ip, ror #10
 a00:	6c69665f 	stclvs	6, cr6, [r9], #-380	; 0xfffffe84
 a04:	6e5f0065 	cdpvs	0, 5, cr0, cr15, cr5, {3}
 a08:	73626f69 	cmnvc	r2, #420	; 0x1a4
 a0c:	74615f00 	strbtvc	r5, [r1], #-3840	; 0xf00
 a10:	74697865 	strbtvc	r7, [r9], #-2149	; 0x865
 a14:	735f0030 	cmpvc	pc, #48	; 0x30
 a18:	616e6769 	cmnvs	lr, r9, ror #14
 a1c:	75625f6c 	strbvc	r5, [r2, #-3948]!	; 0xf6c
 a20:	615f0066 	cmpvs	pc, r6, rrx
 a24:	69746373 	ldmdbvs	r4!, {r0, r1, r4, r5, r6, r8, r9, sp, lr}^
 a28:	625f656d 	subsvs	r6, pc, #457179136	; 0x1b400000
 a2c:	5f006675 	svcpl	0x00006675
 a30:	75736572 	ldrbvc	r6, [r3, #-1394]!	; 0x572
 a34:	5f00746c 	svcpl	0x0000746c
 a38:	6863775f 	stmdavs	r3!, {r0, r1, r2, r3, r4, r6, r8, r9, sl, ip, sp, lr}^
 a3c:	49504700 	ldmdbmi	r0, {r8, r9, sl, lr}^
 a40:	55465f4f 	strbpl	r5, [r6, #-3919]	; 0xf4f
 a44:	415f434e 	cmpmi	pc, lr, asr #6
 a48:	0032544c 	eorseq	r5, r2, ip, asr #8
 a4c:	746e6977 	strbtvc	r6, [lr], #-2423	; 0x977
 a50:	5f00745f 	svcpl	0x0000745f
 a54:	6b636f6c 	blvs	18dc80c <__bss_end__+0x18d2d84>
 a58:	6c665f00 	stclvs	15, cr5, [r6], #-0
 a5c:	32736761 	rsbscc	r6, r3, #25427968	; 0x1840000
 a60:	745f5f00 	ldrbvc	r5, [pc], #-3840	; a68 <__code_start__-0x7598>
 a64:	65795f6d 	ldrbvs	r5, [r9, #-3949]!	; 0xf6d
 a68:	5f007261 	svcpl	0x00007261
 a6c:	7366666f 	cmnvc	r6, #116391936	; 0x6f00000
 a70:	67007465 	strvs	r7, [r0, -r5, ror #8]
 a74:	5f6f6970 	svcpl	0x006f6970
 a78:	5f746573 	svcpl	0x00746573
 a7c:	636e7566 	cmnvs	lr, #427819008	; 0x19800000
 a80:	6e6f6974 	mcrvs	9, 3, r6, cr15, cr4, {3}
 a84:	656e5f00 	strbvs	r5, [lr, #-3840]!	; 0xf00
 a88:	00667478 	rsbeq	r7, r6, r8, ror r4
 a8c:	6d745f5f 	ldclvs	15, cr5, [r4, #-380]!	; 0xfffffe84
 a90:	6e6f6d5f 	mcrvs	13, 3, r6, cr15, cr15, {2}
 a94:	74615f00 	strbtvc	r5, [r1], #-3840	; 0xf00
 a98:	74697865 	strbtvc	r7, [r9], #-2149	; 0x865
 a9c:	735f5f00 	cmpvc	pc, #0, 30
 aa0:	69646964 	stmdbvs	r4!, {r2, r5, r6, r8, fp, sp, lr}^
 aa4:	0074696e 	rsbseq	r6, r4, lr, ror #18
 aa8:	66666f5f 	uqsaxvs	r6, r6, pc	; <UNPREDICTABLE>
 aac:	7500745f 	strvc	r7, [r0, #-1119]	; 0x45f
 ab0:	00747261 	rsbseq	r7, r4, r1, ror #4
 ab4:	6572665f 	ldrbvs	r6, [r2, #-1631]!	; 0x65f
 ab8:	73696c65 	cmnvc	r9, #25856	; 0x6500
 abc:	4c5f0074 	mrrcmi	0, 7, r0, pc, cr4	; <UNPREDICTABLE>
 ac0:	5f4b434f 	svcpl	0x004b434f
 ac4:	55434552 	strbpl	r4, [r3, #-1362]	; 0x552
 ac8:	56495352 			; <UNDEFINED> instruction: 0x56495352
 acc:	00545f45 	subseq	r5, r4, r5, asr #30
 ad0:	77656e5f 			; <UNDEFINED> instruction: 0x77656e5f
 ad4:	5f685f00 	svcpl	0x00685f00
 ad8:	6e727265 	cdpvs	2, 7, cr7, cr2, cr5, {3}
 adc:	5f5f006f 	svcpl	0x005f006f
 ae0:	795f6d74 	ldmdbvc	pc, {r2, r4, r5, r6, r8, sl, fp, sp, lr}^	; <UNPREDICTABLE>
 ae4:	00796164 	rsbseq	r6, r9, r4, ror #2
 ae8:	62735f5f 	rsbsvs	r5, r3, #380	; 0x17c
 aec:	5f006675 	svcpl	0x00006675
 af0:	73626f69 	cmnvc	r2, #420	; 0x1a4
 af4:	465f5f00 	ldrbmi	r5, [pc], -r0, lsl #30
 af8:	00454c49 	subeq	r4, r5, r9, asr #24
 afc:	73626d5f 	cmnvc	r2, #6080	; 0x17c0
 b00:	65746174 	ldrbvs	r6, [r4, #-372]!	; 0x174
 b04:	5f00745f 	svcpl	0x0000745f
 b08:	4946735f 	stmdbmi	r6, {r0, r1, r2, r3, r4, r6, r8, r9, ip, sp, lr}^
 b0c:	5f00454c 	svcpl	0x0000454c
 b10:	7473626d 	ldrbtvc	r6, [r3], #-621	; 0x26d
 b14:	00657461 	rsbeq	r7, r5, r1, ror #8
 b18:	6e61725f 	mcrvs	2, 3, r7, cr1, cr15, {2}
 b1c:	656e5f64 	strbvs	r5, [lr, #-3940]!	; 0xf64
 b20:	5f007478 	svcpl	0x00007478
 b24:	656c626d 	strbvs	r6, [ip, #-621]!	; 0x26d
 b28:	74735f6e 	ldrbtvc	r5, [r3], #-3950	; 0xf6e
 b2c:	00657461 	rsbeq	r7, r5, r1, ror #8
 b30:	636e695f 	cmnvs	lr, #1556480	; 0x17c000
 b34:	6e695f00 	cdpvs	15, 6, cr5, cr9, cr0, {0}
 b38:	635f0064 	cmpvs	pc, #100	; 0x64
 b3c:	65727275 	ldrbvs	r7, [r2, #-629]!	; 0x275
 b40:	6c5f746e 	cfldrdvs	mvd7, [pc], {110}	; 0x6e
 b44:	6c61636f 	stclvs	3, cr6, [r1], #-444	; 0xfffffe44
 b48:	5f5f0065 	svcpl	0x005f0065
 b4c:	61656c63 	cmnvs	r5, r3, ror #24
 b50:	0070756e 	rsbseq	r7, r0, lr, ror #10
 b54:	78616d5f 	stmdavc	r1!, {r0, r1, r2, r3, r4, r6, r8, sl, fp, sp, lr}^
 b58:	00736477 	rsbseq	r6, r3, r7, ror r4
 b5c:	6565725f 	strbvs	r7, [r5, #-607]!	; 0x25f
 b60:	5f00746e 	svcpl	0x0000746e
 b64:	64656573 	strbtvs	r6, [r5], #-1395	; 0x573
 b68:	635f5f00 	cmpvs	pc, #0, 30
 b6c:	746e756f 	strbtvc	r7, [lr], #-1391	; 0x56f
 b70:	765f5f00 	ldrbvc	r5, [pc], -r0, lsl #30
 b74:	65756c61 	ldrbvs	r6, [r5, #-3169]!	; 0xc61
 b78:	65735f00 	ldrbvs	r5, [r3, #-3840]!	; 0xf00
 b7c:	62006b65 	andvs	r6, r0, #103424	; 0x19400
 b80:	00647561 	rsbeq	r7, r4, r1, ror #10
 b84:	6f70665f 	svcvs	0x0070665f
 b88:	00745f73 	rsbseq	r5, r4, r3, ror pc
 b8c:	6d745f5f 	ldclvs	15, cr5, [r4, #-380]!	; 0xfffffe84
 b90:	6e696d5f 	mcrvs	13, 3, r6, cr9, cr15, {2}
 b94:	72637300 	rsbvc	r7, r3, #0, 6
 b98:	68637461 	stmdavs	r3!, {r0, r5, r6, sl, ip, sp, lr}^
 b9c:	756d5f00 	strbvc	r5, [sp, #-3840]!	; 0xf00
 ba0:	4700746c 	strmi	r7, [r0, -ip, ror #8]
 ba4:	4320554e 	teqmi	r0, #327155712	; 0x13800000
 ba8:	36203939 			; <UNDEFINED> instruction: 0x36203939
 bac:	312e332e 	teqcc	lr, lr, lsr #6
 bb0:	31303220 	teqcc	r0, r0, lsr #4
 bb4:	32363037 	eorscc	r3, r6, #55	; 0x37
 bb8:	6d2d2030 	stcvs	0, cr2, [sp, #-192]!	; 0xffffff40
 bbc:	3d757063 	ldclcc	0, cr7, [r5, #-396]!	; 0xfffffe74
 bc0:	316d7261 	cmncc	sp, r1, ror #4
 bc4:	6a363731 	bvs	d8e890 <__bss_end__+0xd84e08>
 bc8:	732d667a 	teqvc	sp, #127926272	; 0x7a00000
 bcc:	746d2d20 	strbtvc	r2, [sp], #-3360	; 0xd20
 bd0:	3d656e75 	stclcc	14, cr6, [r5, #-468]!	; 0xfffffe2c
 bd4:	316d7261 	cmncc	sp, r1, ror #4
 bd8:	6a363731 	bvs	d8e8a4 <__bss_end__+0xd84e1c>
 bdc:	732d667a 	teqvc	sp, #127926272	; 0x7a00000
 be0:	67672d20 	strbvs	r2, [r7, -r0, lsr #26]!
 be4:	2d206264 	sfmcs	f6, 4, [r0, #-400]!	; 0xfffffe70
 be8:	2d20674f 	stccs	7, cr6, [r0, #-316]!	; 0xfffffec4
 bec:	3d647473 	cfstrdcc	mvd7, [r4, #-460]!	; 0xfffffe34
 bf0:	39756e67 	ldmdbcc	r5!, {r0, r1, r2, r5, r6, r9, sl, fp, sp, lr}^
 bf4:	662d2039 			; <UNDEFINED> instruction: 0x662d2039
 bf8:	65657266 	strbvs	r7, [r5, #-614]!	; 0x266
 bfc:	6e617473 	mcrvs	4, 3, r7, cr1, cr3, {3}
 c00:	676e6964 	strbvs	r6, [lr, -r4, ror #18]!
 c04:	74735f00 	ldrbtvc	r5, [r3], #-3840	; 0xf00
 c08:	6b6f7472 	blvs	1bdddd8 <__bss_end__+0x1bd4350>
 c0c:	73616c5f 	cmnvc	r1, #24320	; 0x5f00
 c10:	665f0074 			; <UNDEFINED> instruction: 0x665f0074
 c14:	7079746e 	rsbsvc	r7, r9, lr, ror #8
 c18:	5f007365 	svcpl	0x00007365
 c1c:	00646461 	rsbeq	r6, r4, r1, ror #8
 c20:	4c555f5f 	mrrcmi	15, 5, r5, r5, cr15	; <UNPREDICTABLE>
 c24:	00676e6f 	rsbeq	r6, r7, pc, ror #28
 c28:	7465675f 	strbtvc	r6, [r5], #-1887	; 0x75f
 c2c:	65746164 	ldrbvs	r6, [r4, #-356]!	; 0x164
 c30:	7272655f 	rsbsvc	r6, r2, #398458880	; 0x17c00000
 c34:	6c675f00 	stclvs	15, cr5, [r7], #-0
 c38:	6c61626f 	sfmvs	f6, 2, [r1], #-444	; 0xfffffe44
 c3c:	706d695f 	rsbvc	r6, sp, pc, asr r9
 c40:	5f657275 	svcpl	0x00657275
 c44:	00727470 	rsbseq	r7, r2, r0, ror r4
 c48:	7275635f 	rsbsvc	r6, r5, #2080374785	; 0x7c000001
 c4c:	746e6572 	strbtvc	r6, [lr], #-1394	; 0x572
 c50:	7461635f 	strbtvc	r6, [r1], #-863	; 0x35f
 c54:	726f6765 	rsbvc	r6, pc, #26476544	; 0x1940000
 c58:	755f0079 	ldrbvc	r0, [pc, #-121]	; be7 <__code_start__-0x7419>
 c5c:	6573756e 	ldrbvs	r7, [r3, #-1390]!	; 0x56e
 c60:	61725f64 	cmnvs	r2, r4, ror #30
 c64:	5f00646e 	svcpl	0x0000646e
 c68:	00736477 	rsbseq	r6, r3, r7, ror r4
 c6c:	6d745f5f 	ldclvs	15, cr5, [r4, #-380]!	; 0xfffffe84
 c70:	6164775f 	cmnvs	r4, pc, asr r7
 c74:	675f0079 			; <UNDEFINED> instruction: 0x675f0079
 c78:	0065756c 	rsbeq	r7, r5, ip, ror #10
 c7c:	4f495047 	svcmi	0x00495047
 c80:	4e55465f 	mrcmi	6, 2, r4, cr5, cr15, {2}
 c84:	554f5f43 	strbpl	r5, [pc, #-3907]	; fffffd49 <__bss_end__+0xffff62c1>
 c88:	54555054 	ldrbpl	r5, [r5], #-84	; 0x54
 c8c:	6d6e5f00 	stclvs	15, cr5, [lr, #-0]
 c90:	6f6c6c61 	svcvs	0x006c6c61
 c94:	6c5f0063 	mrrcvs	0, 6, r0, pc, cr3	; <UNPREDICTABLE>
 c98:	5f613436 	svcpl	0x00613436
 c9c:	00667562 	rsbeq	r7, r6, r2, ror #10
 ca0:	74726175 	ldrbtvc	r6, [r2], #-373	; 0x175
 ca4:	6e61635f 	mcrvs	3, 3, r6, cr1, cr15, {2}
 ca8:	7465675f 	strbtvc	r6, [r5], #-1887	; 0x75f
 cac:	735f0063 	cmpvc	pc, #99	; 0x63
 cb0:	665f6769 	ldrbvs	r6, [pc], -r9, ror #14
 cb4:	00636e75 	rsbeq	r6, r3, r5, ror lr
 cb8:	695f726f 	ldmdbvs	pc, {r0, r1, r2, r3, r5, r6, r9, ip, sp, lr}^	; <UNPREDICTABLE>
 cbc:	0032336e 	eorseq	r3, r2, lr, ror #6
 cc0:	74726175 	ldrbtvc	r6, [r2], #-373	; 0x175
 cc4:	7361685f 	cmnvc	r1, #6225920	; 0x5f0000
 cc8:	7461645f 	strbtvc	r6, [r1], #-1119	; 0x45f
 ccc:	50470061 	subpl	r0, r7, r1, rrx
 cd0:	465f4f49 	ldrbmi	r4, [pc], -r9, asr #30
 cd4:	5f434e55 	svcpl	0x00434e55
 cd8:	30544c41 	subscc	r4, r4, r1, asr #24
 cdc:	626e5f00 	rsbvs	r5, lr, #0, 30
 ce0:	5f006675 	svcpl	0x00006675
 ce4:	73756e75 	cmnvc	r5, #1872	; 0x750
 ce8:	47006465 	strmi	r6, [r0, -r5, ror #8]
 cec:	5f4f4950 	svcpl	0x004f4950
 cf0:	434e5546 	movtmi	r5, #58694	; 0xe546
 cf4:	544c415f 	strbpl	r4, [ip], #-351	; 0x15f
 cf8:	50470033 	subpl	r0, r7, r3, lsr r0
 cfc:	465f4f49 	ldrbmi	r4, [pc], -r9, asr #30
 d00:	5f434e55 	svcpl	0x00434e55
 d04:	34544c41 	ldrbcc	r4, [r4], #-3137	; 0xc41
 d08:	49504700 	ldmdbmi	r0, {r8, r9, sl, lr}^
 d0c:	55465f4f 	strbpl	r5, [r6, #-3919]	; 0xf4f
 d10:	415f434e 	cmpmi	pc, lr, asr #6
 d14:	0035544c 	eorseq	r5, r5, ip, asr #8
 d18:	6d745f5f 	ldclvs	15, cr5, [r4, #-380]!	; 0xfffffe84
 d1c:	6473695f 	ldrbtvs	r6, [r3], #-2399	; 0x95f
 d20:	5f007473 	svcpl	0x00007473
 d24:	61636f6c 	cmnvs	r3, ip, ror #30
 d28:	6d69746c 	cfstrdvs	mvd7, [r9, #-432]!	; 0xfffffe50
 d2c:	75625f65 	strbvc	r5, [r2, #-3941]!	; 0xf65
 d30:	635f0066 	cmpvs	pc, #102	; 0x66
 d34:	65736f6c 	ldrbvs	r6, [r3, #-3948]!	; 0xf6c
 d38:	34725f00 	ldrbtcc	r5, [r2], #-3840	; 0xf00
 d3c:	6d5f0038 	ldclvs	0, cr0, [pc, #-224]	; c64 <__code_start__-0x739c>
 d40:	776f7462 	strbvc	r7, [pc, -r2, ror #8]!
 d44:	74735f63 	ldrbtvc	r5, [r3], #-3939	; 0xf63
 d48:	00657461 	rsbeq	r7, r5, r1, ror #8
 d4c:	7335705f 	teqvc	r5, #95	; 0x5f
 d50:	745f5f00 	ldrbvc	r5, [pc], #-3840	; d58 <__code_start__-0x72a8>
 d54:	646d5f6d 	strbtvs	r5, [sp], #-3949	; 0xf6d
 d58:	67007961 	strvs	r7, [r0, -r1, ror #18]
 d5c:	5f6f6970 	svcpl	0x006f6970
 d60:	5f746573 	svcpl	0x00746573
 d64:	0066666f 	rsbeq	r6, r6, pc, ror #12
 d68:	6b6e6162 	blvs	1b992f8 <__bss_end__+0x1b8f870>
 d6c:	69706700 	ldmdbvs	r0!, {r8, r9, sl, sp, lr}^
 d70:	00632e6f 	rsbeq	r2, r3, pc, ror #28
 d74:	6f697067 	svcvs	0x00697067
 d78:	6165725f 	cmnvs	r5, pc, asr r2
 d7c:	70670064 	rsbvc	r0, r7, r4, rrx
 d80:	735f6f69 	cmpvc	pc, #420	; 0x1a4
 d84:	6f5f7465 	svcvs	0x005f7465
 d88:	75707475 	ldrbvc	r7, [r0, #-1141]!	; 0x475
 d8c:	70670074 	rsbvc	r0, r7, r4, ror r0
 d90:	775f6f69 	ldrbvc	r6, [pc, -r9, ror #30]
 d94:	65746972 	ldrbvs	r6, [r4, #-2418]!	; 0x972
 d98:	69706700 	ldmdbvs	r0!, {r8, r9, sl, sp, lr}^
 d9c:	65735f6f 	ldrbvs	r5, [r3, #-3951]!	; 0xf6f
 da0:	67003074 	smlsdxvs	r0, r4, r0, r3
 da4:	5f6f6970 	svcpl	0x006f6970
 da8:	3076656c 	rsbscc	r6, r6, ip, ror #10
 dac:	69706700 	ldmdbvs	r0!, {r8, r9, sl, sp, lr}^
 db0:	65735f6f 	ldrbvs	r5, [r3, #-3951]!	; 0xf6f
 db4:	6e695f74 	mcrvs	15, 3, r5, cr9, cr4, {3}
 db8:	00747570 	rsbseq	r7, r4, r0, ror r5
 dbc:	6f697067 	svcvs	0x00697067
 dc0:	7465735f 	strbtvc	r7, [r5], #-863	; 0x35f
 dc4:	006e6f5f 	rsbeq	r6, lr, pc, asr pc
 dc8:	6f697067 	svcvs	0x00697067
 dcc:	6e75665f 	mrcvs	6, 3, r6, cr5, cr15, {2}
 dd0:	00745f63 	rsbseq	r5, r4, r3, ror #30
 dd4:	6f697067 	svcvs	0x00697067
 dd8:	726c635f 	rsbvc	r6, ip, #2080374785	; 0x7c000001
 ddc:	Address 0x0000000000000ddc is out of bounds.


Disassembly of section .debug_frame:

00000000 <.debug_frame>:
   0:	0000000c 	andeq	r0, r0, ip
   4:	ffffffff 			; <UNDEFINED> instruction: 0xffffffff
   8:	7c020001 	stcvc	0, cr0, [r2], {1}
   c:	000d0c0e 	andeq	r0, sp, lr, lsl #24
  10:	0000000c 	andeq	r0, r0, ip
  14:	00000000 	andeq	r0, r0, r0
  18:	00008010 	andeq	r8, r0, r0, lsl r0
  1c:	00000008 	andeq	r0, r0, r8
  20:	0000000c 	andeq	r0, r0, ip
  24:	00000000 	andeq	r0, r0, r0
  28:	00008018 	andeq	r8, r0, r8, lsl r0
  2c:	00000008 	andeq	r0, r0, r8
  30:	00000014 	andeq	r0, r0, r4, lsl r0
  34:	00000000 	andeq	r0, r0, r0
  38:	00008020 	andeq	r8, r0, r0, lsr #32
  3c:	00000080 	andeq	r0, r0, r0, lsl #1
  40:	8e040e42 	cdphi	14, 0, cr0, cr4, cr2, {2}
  44:	100e4201 	andne	r4, lr, r1, lsl #4
  48:	00000014 	andeq	r0, r0, r4, lsl r0
  4c:	00000000 	andeq	r0, r0, r0
  50:	000080a0 	andeq	r8, r0, r0, lsr #1
  54:	00000064 	andeq	r0, r0, r4, rrx
  58:	83080e42 	movwhi	r0, #36418	; 0x8e42
  5c:	00018e02 	andeq	r8, r1, r2, lsl #28
  60:	0000000c 	andeq	r0, r0, ip
  64:	ffffffff 			; <UNDEFINED> instruction: 0xffffffff
  68:	7c020001 	stcvc	0, cr0, [r2], {1}
  6c:	000d0c0e 	andeq	r0, sp, lr, lsl #24
  70:	00000014 	andeq	r0, r0, r4, lsl r0
  74:	00000060 	andeq	r0, r0, r0, rrx
  78:	00008104 	andeq	r8, r0, r4, lsl #2
  7c:	000000b0 	strheq	r0, [r0], -r0	; <UNPREDICTABLE>
  80:	8e040e42 	cdphi	14, 0, cr0, cr4, cr2, {2}
  84:	100e4201 	andne	r4, lr, r1, lsl #4
  88:	00000018 	andeq	r0, r0, r8, lsl r0
  8c:	00000060 	andeq	r0, r0, r0, rrx
  90:	000081b4 			; <UNDEFINED> instruction: 0x000081b4
  94:	0000015c 	andeq	r0, r0, ip, asr r1
  98:	840c0e42 	strhi	r0, [ip], #-3650	; 0xe42
  9c:	8e028503 	cfsh32hi	mvfx8, mvfx2, #3
  a0:	180e4201 	stmdane	lr, {r0, r9, lr}
  a4:	00000014 	andeq	r0, r0, r4, lsl r0
  a8:	00000060 	andeq	r0, r0, r0, rrx
  ac:	00008310 	andeq	r8, r0, r0, lsl r3
  b0:	0000003c 	andeq	r0, r0, ip, lsr r0
  b4:	83080e42 	movwhi	r0, #36418	; 0x8e42
  b8:	00018e02 	andeq	r8, r1, r2, lsl #28
  bc:	0000000c 	andeq	r0, r0, ip
  c0:	00000060 	andeq	r0, r0, r0, rrx
  c4:	0000834c 	andeq	r8, r0, ip, asr #6
  c8:	00000034 	andeq	r0, r0, r4, lsr r0
  cc:	00000018 	andeq	r0, r0, r8, lsl r0
  d0:	00000060 	andeq	r0, r0, r0, rrx
  d4:	00008380 	andeq	r8, r0, r0, lsl #7
  d8:	000000c4 	andeq	r0, r0, r4, asr #1
  dc:	84080e42 	strhi	r0, [r8], #-3650	; 0xe42
  e0:	42018e02 	andmi	r8, r1, #2, 28
  e4:	0000100e 	andeq	r1, r0, lr
  e8:	0000000c 	andeq	r0, r0, ip
  ec:	00000060 	andeq	r0, r0, r0, rrx
  f0:	00008444 	andeq	r8, r0, r4, asr #8
  f4:	00000004 	andeq	r0, r0, r4
  f8:	0000000c 	andeq	r0, r0, ip
  fc:	ffffffff 			; <UNDEFINED> instruction: 0xffffffff
 100:	7c020001 	stcvc	0, cr0, [r2], {1}
 104:	000d0c0e 	andeq	r0, sp, lr, lsl #24
 108:	00000024 	andeq	r0, r0, r4, lsr #32
 10c:	000000f8 	strdeq	r0, [r0], -r8
 110:	00008538 	andeq	r8, r0, r8, lsr r5
 114:	00000058 	andeq	r0, r0, r8, asr r0
 118:	80100e42 	andshi	r0, r0, r2, asr #28
 11c:	82038104 	andhi	r8, r3, #4, 2
 120:	42018302 	andmi	r8, r1, #134217728	; 0x8000000
 124:	07841c0e 	streq	r1, [r4, lr, lsl #24]
 128:	058e0685 	streq	r0, [lr, #1669]	; 0x685
 12c:	00280e42 	eoreq	r0, r8, r2, asr #28
 130:	0000000c 	andeq	r0, r0, ip
 134:	ffffffff 			; <UNDEFINED> instruction: 0xffffffff
 138:	7c020001 	stcvc	0, cr0, [r2], {1}
 13c:	000d0c0e 	andeq	r0, sp, lr, lsl #24
 140:	00000014 	andeq	r0, r0, r4, lsl r0
 144:	00000130 	andeq	r0, r0, r0, lsr r1
 148:	00008590 	muleq	r0, r0, r5
 14c:	00000014 	andeq	r0, r0, r4, lsl r0
 150:	84080e42 	strhi	r0, [r8], #-3650	; 0xe42
 154:	00018e02 	andeq	r8, r1, r2, lsl #28
 158:	0000000c 	andeq	r0, r0, ip
 15c:	00000130 	andeq	r0, r0, r0, lsr r1
 160:	000085a4 	andeq	r8, r0, r4, lsr #11
 164:	00000018 	andeq	r0, r0, r8, lsl r0
 168:	0000000c 	andeq	r0, r0, ip
 16c:	00000130 	andeq	r0, r0, r0, lsr r1
 170:	000085bc 			; <UNDEFINED> instruction: 0x000085bc
 174:	00000010 	andeq	r0, r0, r0, lsl r0
 178:	0000000c 	andeq	r0, r0, ip
 17c:	ffffffff 			; <UNDEFINED> instruction: 0xffffffff
 180:	7c020001 	stcvc	0, cr0, [r2], {1}
 184:	000d0c0e 	andeq	r0, sp, lr, lsl #24
 188:	00000018 	andeq	r0, r0, r8, lsl r0
 18c:	00000178 	andeq	r0, r0, r8, ror r1
 190:	000085cc 	andeq	r8, r0, ip, asr #11
 194:	00000034 	andeq	r0, r0, r4, lsr r0
 198:	83100e42 	tsthi	r0, #1056	; 0x420
 19c:	85038404 	strhi	r8, [r3, #-1028]	; 0x404
 1a0:	00018e02 	andeq	r8, r1, r2, lsl #28
 1a4:	0000000c 	andeq	r0, r0, ip
 1a8:	ffffffff 			; <UNDEFINED> instruction: 0xffffffff
 1ac:	7c020001 	stcvc	0, cr0, [r2], {1}
 1b0:	000d0c0e 	andeq	r0, sp, lr, lsl #24
 1b4:	0000000c 	andeq	r0, r0, ip
 1b8:	000001a4 	andeq	r0, r0, r4, lsr #3
 1bc:	00008600 	andeq	r8, r0, r0, lsl #12
 1c0:	00000014 	andeq	r0, r0, r4, lsl r0
 1c4:	0000000c 	andeq	r0, r0, ip
 1c8:	000001a4 	andeq	r0, r0, r4, lsr #3
 1cc:	00008614 	andeq	r8, r0, r4, lsl r6
 1d0:	0000002c 	andeq	r0, r0, ip, lsr #32
 1d4:	0000000c 	andeq	r0, r0, ip
 1d8:	000001a4 	andeq	r0, r0, r4, lsr #3
 1dc:	00008640 	andeq	r8, r0, r0, asr #12
 1e0:	00000040 	andeq	r0, r0, r0, asr #32
 1e4:	00000020 	andeq	r0, r0, r0, lsr #32
 1e8:	000001a4 	andeq	r0, r0, r4, lsr #3
 1ec:	00008680 	andeq	r8, r0, r0, lsl #13
 1f0:	000001bc 			; <UNDEFINED> instruction: 0x000001bc
 1f4:	84180e42 	ldrhi	r0, [r8], #-3650	; 0xe42
 1f8:	86058506 	strhi	r8, [r5], -r6, lsl #10
 1fc:	88038704 	stmdahi	r3, {r2, r8, r9, sl, pc}
 200:	42018e02 	andmi	r8, r1, #2, 28
 204:	0000600e 	andeq	r6, r0, lr
 208:	00000014 	andeq	r0, r0, r4, lsl r0
 20c:	000001a4 	andeq	r0, r0, r4, lsr #3
 210:	0000883c 	andeq	r8, r0, ip, lsr r8
 214:	00000068 	andeq	r0, r0, r8, rrx
 218:	8e040e42 	cdphi	14, 0, cr0, cr4, cr2, {2}
 21c:	100e4201 	andne	r4, lr, r1, lsl #4
 220:	00000028 	andeq	r0, r0, r8, lsr #32
 224:	000001a4 	andeq	r0, r0, r4, lsr #3
 228:	000088a4 	andeq	r8, r0, r4, lsr #17
 22c:	000002d4 	ldrdeq	r0, [r0], -r4
 230:	84240e42 	strthi	r0, [r4], #-3650	; 0xe42
 234:	86088509 	strhi	r8, [r8], -r9, lsl #10
 238:	88068707 	stmdahi	r6, {r0, r1, r2, r8, r9, sl, pc}
 23c:	8a048905 	bhi	122658 <__bss_end__+0x118bd0>
 240:	8e028b03 	vmlahi.f64	d8, d2, d3
 244:	b80e4201 	stmdalt	lr, {r0, r9, lr}
 248:	00000001 	andeq	r0, r0, r1
 24c:	0000000c 	andeq	r0, r0, ip
 250:	ffffffff 			; <UNDEFINED> instruction: 0xffffffff
 254:	7c020001 	stcvc	0, cr0, [r2], {1}
 258:	000d0c0e 	andeq	r0, sp, lr, lsl #24
 25c:	00000014 	andeq	r0, r0, r4, lsl r0
 260:	0000024c 	andeq	r0, r0, ip, asr #4
 264:	00008b78 	andeq	r8, r0, r8, ror fp
 268:	0000002c 	andeq	r0, r0, ip, lsr #32
 26c:	83080e42 	movwhi	r0, #36418	; 0x8e42
 270:	00018e02 	andeq	r8, r1, r2, lsl #28
 274:	0000000c 	andeq	r0, r0, ip
 278:	ffffffff 			; <UNDEFINED> instruction: 0xffffffff
 27c:	7c020001 	stcvc	0, cr0, [r2], {1}
 280:	000d0c0e 	andeq	r0, sp, lr, lsl #24
 284:	00000014 	andeq	r0, r0, r4, lsl r0
 288:	00000274 	andeq	r0, r0, r4, ror r2
 28c:	00008ba4 	andeq	r8, r0, r4, lsr #23
 290:	00000038 	andeq	r0, r0, r8, lsr r0
 294:	83080e42 	movwhi	r0, #36418	; 0x8e42
 298:	00018e02 	andeq	r8, r1, r2, lsl #28
 29c:	0000000c 	andeq	r0, r0, ip
 2a0:	ffffffff 			; <UNDEFINED> instruction: 0xffffffff
 2a4:	7c020001 	stcvc	0, cr0, [r2], {1}
 2a8:	000d0c0e 	andeq	r0, sp, lr, lsl #24
 2ac:	00000014 	andeq	r0, r0, r4, lsl r0
 2b0:	0000029c 	muleq	r0, ip, r2
 2b4:	00008bdc 	ldrdeq	r8, [r0], -ip
 2b8:	00000044 	andeq	r0, r0, r4, asr #32
 2bc:	8e040e42 	cdphi	14, 0, cr0, cr4, cr2, {2}
 2c0:	100e4201 	andne	r4, lr, r1, lsl #4
 2c4:	0000000c 	andeq	r0, r0, ip
 2c8:	ffffffff 			; <UNDEFINED> instruction: 0xffffffff
 2cc:	7c020001 	stcvc	0, cr0, [r2], {1}
 2d0:	000d0c0e 	andeq	r0, sp, lr, lsl #24
 2d4:	00000014 	andeq	r0, r0, r4, lsl r0
 2d8:	000002c4 	andeq	r0, r0, r4, asr #5
 2dc:	00008c20 	andeq	r8, r0, r0, lsr #24
 2e0:	00000044 	andeq	r0, r0, r4, asr #32
 2e4:	8e040e42 	cdphi	14, 0, cr0, cr4, cr2, {2}
 2e8:	100e4201 	andne	r4, lr, r1, lsl #4
 2ec:	0000000c 	andeq	r0, r0, ip
 2f0:	ffffffff 			; <UNDEFINED> instruction: 0xffffffff
 2f4:	7c020001 	stcvc	0, cr0, [r2], {1}
 2f8:	000d0c0e 	andeq	r0, sp, lr, lsl #24
 2fc:	00000014 	andeq	r0, r0, r4, lsl r0
 300:	000002ec 	andeq	r0, r0, ip, ror #5
 304:	00008c64 	andeq	r8, r0, r4, ror #24
 308:	00000044 	andeq	r0, r0, r4, asr #32
 30c:	8e040e42 	cdphi	14, 0, cr0, cr4, cr2, {2}
 310:	100e4201 	andne	r4, lr, r1, lsl #4
 314:	0000000c 	andeq	r0, r0, ip
 318:	ffffffff 			; <UNDEFINED> instruction: 0xffffffff
 31c:	7c020001 	stcvc	0, cr0, [r2], {1}
 320:	000d0c0e 	andeq	r0, sp, lr, lsl #24
 324:	00000014 	andeq	r0, r0, r4, lsl r0
 328:	00000314 	andeq	r0, r0, r4, lsl r3
 32c:	00008ca8 	andeq	r8, r0, r8, lsr #25
 330:	00000044 	andeq	r0, r0, r4, asr #32
 334:	8e040e42 	cdphi	14, 0, cr0, cr4, cr2, {2}
 338:	100e4201 	andne	r4, lr, r1, lsl #4
 33c:	0000000c 	andeq	r0, r0, ip
 340:	ffffffff 			; <UNDEFINED> instruction: 0xffffffff
 344:	7c020001 	stcvc	0, cr0, [r2], {1}
 348:	000d0c0e 	andeq	r0, sp, lr, lsl #24
 34c:	0000000c 	andeq	r0, r0, ip
 350:	0000033c 	andeq	r0, r0, ip, lsr r3
 354:	00008cec 	andeq	r8, r0, ip, ror #25
 358:	00000004 	andeq	r0, r0, r4
 35c:	0000000c 	andeq	r0, r0, ip
 360:	0000033c 	andeq	r0, r0, ip, lsr r3
 364:	00008cf0 	strdeq	r8, [r0], -r0
 368:	00000004 	andeq	r0, r0, r4
 36c:	0000000c 	andeq	r0, r0, ip
 370:	ffffffff 			; <UNDEFINED> instruction: 0xffffffff
 374:	7c020001 	stcvc	0, cr0, [r2], {1}
 378:	000d0c0e 	andeq	r0, sp, lr, lsl #24
 37c:	00000014 	andeq	r0, r0, r4, lsl r0
 380:	0000036c 	andeq	r0, r0, ip, ror #6
 384:	00008cf4 	strdeq	r8, [r0], -r4
 388:	0000006c 	andeq	r0, r0, ip, rrx
 38c:	83080e42 	movwhi	r0, #36418	; 0x8e42
 390:	00018e02 	andeq	r8, r1, r2, lsl #28
 394:	0000000c 	andeq	r0, r0, ip
 398:	ffffffff 			; <UNDEFINED> instruction: 0xffffffff
 39c:	7c020001 	stcvc	0, cr0, [r2], {1}
 3a0:	000d0c0e 	andeq	r0, sp, lr, lsl #24
 3a4:	0000000c 	andeq	r0, r0, ip
 3a8:	00000394 	muleq	r0, r4, r3
 3ac:	00008d60 	andeq	r8, r0, r0, ror #26
 3b0:	00000018 	andeq	r0, r0, r8, lsl r0
 3b4:	0000000c 	andeq	r0, r0, ip
 3b8:	00000394 	muleq	r0, r4, r3
 3bc:	00008d78 	andeq	r8, r0, r8, ror sp
 3c0:	00000014 	andeq	r0, r0, r4, lsl r0
 3c4:	00000014 	andeq	r0, r0, r4, lsl r0
 3c8:	00000394 	muleq	r0, r4, r3
 3cc:	00008d8c 	andeq	r8, r0, ip, lsl #27
 3d0:	00000048 	andeq	r0, r0, r8, asr #32
 3d4:	83080e42 	movwhi	r0, #36418	; 0x8e42
 3d8:	00018e02 	andeq	r8, r1, r2, lsl #28
 3dc:	0000000c 	andeq	r0, r0, ip
 3e0:	ffffffff 			; <UNDEFINED> instruction: 0xffffffff
 3e4:	7c020001 	stcvc	0, cr0, [r2], {1}
 3e8:	000d0c0e 	andeq	r0, sp, lr, lsl #24
 3ec:	0000000c 	andeq	r0, r0, ip
 3f0:	000003dc 	ldrdeq	r0, [r0], -ip
 3f4:	00008dd4 	ldrdeq	r8, [r0], -r4
 3f8:	0000001c 	andeq	r0, r0, ip, lsl r0
 3fc:	00000014 	andeq	r0, r0, r4, lsl r0
 400:	000003dc 	ldrdeq	r0, [r0], -ip
 404:	00008df0 	strdeq	r8, [r0], -r0
 408:	00000014 	andeq	r0, r0, r4, lsl r0
 40c:	83080e42 	movwhi	r0, #36418	; 0x8e42
 410:	00018e02 	andeq	r8, r1, r2, lsl #28
 414:	00000014 	andeq	r0, r0, r4, lsl r0
 418:	000003dc 	ldrdeq	r0, [r0], -ip
 41c:	00008e04 	andeq	r8, r0, r4, lsl #28
 420:	0000001c 	andeq	r0, r0, ip, lsl r0
 424:	84080e42 	strhi	r0, [r8], #-3650	; 0xe42
 428:	00018e02 	andeq	r8, r1, r2, lsl #28
 42c:	00000018 	andeq	r0, r0, r8, lsl r0
 430:	000003dc 	ldrdeq	r0, [r0], -ip
 434:	00008e20 	andeq	r8, r0, r0, lsr #28
 438:	00000024 	andeq	r0, r0, r4, lsr #32
 43c:	83100e42 	tsthi	r0, #1056	; 0x420
 440:	85038404 	strhi	r8, [r3, #-1028]	; 0x404
 444:	00018e02 	andeq	r8, r1, r2, lsl #28
 448:	00000014 	andeq	r0, r0, r4, lsl r0
 44c:	000003dc 	ldrdeq	r0, [r0], -ip
 450:	00008e44 	andeq	r8, r0, r4, asr #28
 454:	00000014 	andeq	r0, r0, r4, lsl r0
 458:	83080e42 	movwhi	r0, #36418	; 0x8e42
 45c:	00018e02 	andeq	r8, r1, r2, lsl #28
 460:	00000014 	andeq	r0, r0, r4, lsl r0
 464:	000003dc 	ldrdeq	r0, [r0], -ip
 468:	00008e58 	andeq	r8, r0, r8, asr lr
 46c:	00000014 	andeq	r0, r0, r4, lsl r0
 470:	83080e42 	movwhi	r0, #36418	; 0x8e42
 474:	00018e02 	andeq	r8, r1, r2, lsl #28
 478:	0000000c 	andeq	r0, r0, ip
 47c:	ffffffff 			; <UNDEFINED> instruction: 0xffffffff
 480:	7c020001 	stcvc	0, cr0, [r2], {1}
 484:	000d0c0e 	andeq	r0, sp, lr, lsl #24
 488:	00000018 	andeq	r0, r0, r8, lsl r0
 48c:	00000478 	andeq	r0, r0, r8, ror r4
 490:	00008ed0 	ldrdeq	r8, [r0], -r0
 494:	00000020 	andeq	r0, r0, r0, lsr #32
 498:	84100e42 	ldrhi	r0, [r0], #-3650	; 0xe42
 49c:	86038504 	strhi	r8, [r3], -r4, lsl #10
 4a0:	00018e02 	andeq	r8, r1, r2, lsl #28
 4a4:	00000014 	andeq	r0, r0, r4, lsl r0
 4a8:	00000478 	andeq	r0, r0, r8, ror r4
 4ac:	00008ef0 	strdeq	r8, [r0], -r0
 4b0:	000000b0 	strheq	r0, [r0], -r0	; <UNPREDICTABLE>
 4b4:	84080e42 	strhi	r0, [r8], #-3650	; 0xe42
 4b8:	00018e02 	andeq	r8, r1, r2, lsl #28
 4bc:	00000014 	andeq	r0, r0, r4, lsl r0
 4c0:	00000478 	andeq	r0, r0, r8, ror r4
 4c4:	00008fa0 	andeq	r8, r0, r0, lsr #31
 4c8:	00000018 	andeq	r0, r0, r8, lsl r0
 4cc:	84080e42 	strhi	r0, [r8], #-3650	; 0xe42
 4d0:	00018e02 	andeq	r8, r1, r2, lsl #28
 4d4:	00000014 	andeq	r0, r0, r4, lsl r0
 4d8:	00000478 	andeq	r0, r0, r8, ror r4
 4dc:	00008fb8 			; <UNDEFINED> instruction: 0x00008fb8
 4e0:	00000020 	andeq	r0, r0, r0, lsr #32
 4e4:	84080e42 	strhi	r0, [r8], #-3650	; 0xe42
 4e8:	00018e02 	andeq	r8, r1, r2, lsl #28
 4ec:	00000014 	andeq	r0, r0, r4, lsl r0
 4f0:	00000478 	andeq	r0, r0, r8, ror r4
 4f4:	00008fd8 	ldrdeq	r8, [r0], -r8	; <UNPREDICTABLE>
 4f8:	00000030 	andeq	r0, r0, r0, lsr r0
 4fc:	84080e42 	strhi	r0, [r8], #-3650	; 0xe42
 500:	00018e02 	andeq	r8, r1, r2, lsl #28
 504:	00000014 	andeq	r0, r0, r4, lsl r0
 508:	00000478 	andeq	r0, r0, r8, ror r4
 50c:	00009008 	andeq	r9, r0, r8
 510:	00000030 	andeq	r0, r0, r0, lsr r0
 514:	84080e42 	strhi	r0, [r8], #-3650	; 0xe42
 518:	00018e02 	andeq	r8, r1, r2, lsl #28
 51c:	00000014 	andeq	r0, r0, r4, lsl r0
 520:	00000478 	andeq	r0, r0, r8, ror r4
 524:	00009038 	andeq	r9, r0, r8, lsr r0
 528:	00000010 	andeq	r0, r0, r0, lsl r0
 52c:	84080e42 	strhi	r0, [r8], #-3650	; 0xe42
 530:	00018e02 	andeq	r8, r1, r2, lsl #28
 534:	0000000c 	andeq	r0, r0, ip
 538:	ffffffff 			; <UNDEFINED> instruction: 0xffffffff
 53c:	7c020001 	stcvc	0, cr0, [r2], {1}
 540:	000d0c0e 	andeq	r0, sp, lr, lsl #24
 544:	00000018 	andeq	r0, r0, r8, lsl r0
 548:	00000534 	andeq	r0, r0, r4, lsr r5
 54c:	00009048 	andeq	r9, r0, r8, asr #32
 550:	00000068 	andeq	r0, r0, r8, rrx
 554:	84100e4a 	ldrhi	r0, [r0], #-3658	; 0xe4a
 558:	86038504 	strhi	r8, [r3], -r4, lsl #10
 55c:	00018e02 	andeq	r8, r1, r2, lsl #28
 560:	00000014 	andeq	r0, r0, r4, lsl r0
 564:	00000534 	andeq	r0, r0, r4, lsr r5
 568:	000090b0 	strheq	r9, [r0], -r0
 56c:	00000010 	andeq	r0, r0, r0, lsl r0
 570:	84080e42 	strhi	r0, [r8], #-3650	; 0xe42
 574:	00018e02 	andeq	r8, r1, r2, lsl #28
 578:	00000014 	andeq	r0, r0, r4, lsl r0
 57c:	00000534 	andeq	r0, r0, r4, lsr r5
 580:	000090c0 	andeq	r9, r0, r0, asr #1
 584:	00000024 	andeq	r0, r0, r4, lsr #32
 588:	84080e46 	strhi	r0, [r8], #-3654	; 0xe46
 58c:	00018e02 	andeq	r8, r1, r2, lsl #28
 590:	00000014 	andeq	r0, r0, r4, lsl r0
 594:	00000534 	andeq	r0, r0, r4, lsr r5
 598:	000090e4 	andeq	r9, r0, r4, ror #1
 59c:	00000024 	andeq	r0, r0, r4, lsr #32
 5a0:	84080e46 	strhi	r0, [r8], #-3654	; 0xe46
 5a4:	00018e02 	andeq	r8, r1, r2, lsl #28
 5a8:	00000014 	andeq	r0, r0, r4, lsl r0
 5ac:	00000534 	andeq	r0, r0, r4, lsr r5
 5b0:	00009108 	andeq	r9, r0, r8, lsl #2
 5b4:	00000010 	andeq	r0, r0, r0, lsl r0
 5b8:	84080e42 	strhi	r0, [r8], #-3650	; 0xe42
 5bc:	00018e02 	andeq	r8, r1, r2, lsl #28
 5c0:	00000014 	andeq	r0, r0, r4, lsl r0
 5c4:	00000534 	andeq	r0, r0, r4, lsr r5
 5c8:	00009118 	andeq	r9, r0, r8, lsl r1
 5cc:	0000001c 	andeq	r0, r0, ip, lsl r0
 5d0:	84080e42 	strhi	r0, [r8], #-3650	; 0xe42
 5d4:	00018e02 	andeq	r8, r1, r2, lsl #28
 5d8:	00000018 	andeq	r0, r0, r8, lsl r0
 5dc:	00000534 	andeq	r0, r0, r4, lsr r5
 5e0:	00009134 	andeq	r9, r0, r4, lsr r1
 5e4:	00000034 	andeq	r0, r0, r4, lsr r0
 5e8:	84080e46 	strhi	r0, [r8], #-3654	; 0xe46
 5ec:	4e018e02 	cdpmi	14, 0, cr8, cr1, cr2, {0}
 5f0:	cec4000e 	cdpgt	0, 12, cr0, cr4, cr14, {0}

Disassembly of section .debug_ranges:

00000000 <.debug_ranges>:
   0:	00008d60 	andeq	r8, r0, r0, ror #26
   4:	00008dd4 	ldrdeq	r8, [r0], -r4
	...
