
tests/test4.elf:     file format elf32-littlearm


Disassembly of section .text:

00008000 <__code_start__>:
    8000:	e3a0d302 	mov	sp, #134217728	; 0x8000000
    8004:	e3a0b000 	mov	fp, #0
    8008:	eb0002eb 	bl	8bbc <_cstart>
    800c:	eb000364 	bl	8da4 <rpi_reboot>

00008010 <handler>:
    8010:	e52de004 	push	{lr}		; (str lr, [sp, #-4]!)
    8014:	e24dd00c 	sub	sp, sp, #12
    8018:	e1a04001 	mov	r4, r1
    801c:	e59f0070 	ldr	r0, [pc, #112]	; 8094 <handler+0x84>
    8020:	eb00014a 	bl	8550 <printk>
    8024:	ee153f30 	mrc	15, 0, r3, cr5, cr0, {1}
    8028:	e203300f 	and	r3, r3, #15
    802c:	e3530002 	cmp	r3, #2
    8030:	0a000006 	beq	8050 <handler+0x40>
    8034:	eb000160 	bl	85bc <rpi_reset_putc>
    8038:	e59f0058 	ldr	r0, [pc, #88]	; 8098 <handler+0x88>
    803c:	e59f1058 	ldr	r1, [pc, #88]	; 809c <handler+0x8c>
    8040:	e59f2058 	ldr	r2, [pc, #88]	; 80a0 <handler+0x90>
    8044:	e3a03009 	mov	r3, #9
    8048:	eb000140 	bl	8550 <printk>
    804c:	eb0002cf 	bl	8b90 <clean_reboot>
    8050:	e59f004c 	ldr	r0, [pc, #76]	; 80a4 <handler+0x94>
    8054:	e1a01004 	mov	r1, r4
    8058:	eb00013c 	bl	8550 <printk>
    805c:	e3540000 	cmp	r4, #0
    8060:	0a000008 	beq	8088 <handler+0x78>
    8064:	eb000154 	bl	85bc <rpi_reset_putc>
    8068:	e59f3038 	ldr	r3, [pc, #56]	; 80a8 <handler+0x98>
    806c:	e58d3000 	str	r3, [sp]
    8070:	e59f0034 	ldr	r0, [pc, #52]	; 80ac <handler+0x9c>
    8074:	e59f1020 	ldr	r1, [pc, #32]	; 809c <handler+0x8c>
    8078:	e59f2020 	ldr	r2, [pc, #32]	; 80a0 <handler+0x90>
    807c:	e3a0300b 	mov	r3, #11
    8080:	eb000132 	bl	8550 <printk>
    8084:	eb0002c1 	bl	8b90 <clean_reboot>
    8088:	e59f0020 	ldr	r0, [pc, #32]	; 80b0 <handler+0xa0>
    808c:	eb00012f 	bl	8550 <printk>
    8090:	eb0002be 	bl	8b90 <clean_reboot>
    8094:	00009190 	muleq	r0, r0, r1
    8098:	000091a8 	andeq	r9, r0, r8, lsr #3
    809c:	000091e0 	andeq	r9, r0, r0, ror #3
    80a0:	00009290 	muleq	r0, r0, r2
    80a4:	000091f0 	strdeq	r9, [r0], -r0
    80a8:	00009210 	andeq	r9, r0, r0, lsl r2
    80ac:	000091fc 	strdeq	r9, [r0], -ip
    80b0:	00009218 	andeq	r9, r0, r8, lsl r2

000080b4 <notmain>:
    80b4:	e92d4008 	push	{r3, lr}
    80b8:	eb00009a 	bl	8328 <cp14_enable>
    80bc:	e3a00000 	mov	r0, #0
    80c0:	e59f103c 	ldr	r1, [pc, #60]	; 8104 <notmain+0x50>
    80c4:	eb0000a6 	bl	8364 <brkpt_set0>
    80c8:	e59f0038 	ldr	r0, [pc, #56]	; 8108 <notmain+0x54>
    80cc:	e3a01000 	mov	r1, #0
    80d0:	eb00011e 	bl	8550 <printk>
    80d4:	e59f0030 	ldr	r0, [pc, #48]	; 810c <notmain+0x58>
    80d8:	e3a01000 	mov	r1, #0
    80dc:	eb00011b 	bl	8550 <printk>
    80e0:	e3a00000 	mov	r0, #0
    80e4:	eb000366 	bl	8e84 <BRANCHTO>
    80e8:	eb000133 	bl	85bc <rpi_reset_putc>
    80ec:	e59f001c 	ldr	r0, [pc, #28]	; 8110 <notmain+0x5c>
    80f0:	e59f101c 	ldr	r1, [pc, #28]	; 8114 <notmain+0x60>
    80f4:	e59f201c 	ldr	r2, [pc, #28]	; 8118 <notmain+0x64>
    80f8:	e3a03019 	mov	r3, #25
    80fc:	eb000113 	bl	8550 <printk>
    8100:	eb0002a2 	bl	8b90 <clean_reboot>
    8104:	00008010 	andeq	r8, r0, r0, lsl r0
    8108:	00009224 	andeq	r9, r0, r4, lsr #4
    810c:	00009240 	andeq	r9, r0, r0, asr #4
    8110:	00009268 	andeq	r9, r0, r8, ror #4
    8114:	000091e0 	andeq	r9, r0, r0, ror #3
    8118:	00009288 	andeq	r9, r0, r8, lsl #5

0000811c <watchpt_set0>:
    811c:	e52de004 	push	{lr}		; (str lr, [sp, #-4]!)
    8120:	e24dd00c 	sub	sp, sp, #12
    8124:	ee103ef0 	mrc	14, 0, r3, cr0, cr0, {7}
    8128:	e3c33001 	bic	r3, r3, #1
    812c:	ee003ef0 	mcr	14, 0, r3, cr0, cr0, {7}
    8130:	ee102ef0 	mrc	14, 0, r2, cr0, cr0, {7}
    8134:	e1530002 	cmp	r3, r2
    8138:	0a000008 	beq	8160 <watchpt_set0+0x44>
    813c:	eb00011e 	bl	85bc <rpi_reset_putc>
    8140:	e59f306c 	ldr	r3, [pc, #108]	; 81b4 <watchpt_set0+0x98>
    8144:	e58d3000 	str	r3, [sp]
    8148:	e59f0068 	ldr	r0, [pc, #104]	; 81b8 <watchpt_set0+0x9c>
    814c:	e59f1068 	ldr	r1, [pc, #104]	; 81bc <watchpt_set0+0xa0>
    8150:	e59f2068 	ldr	r2, [pc, #104]	; 81c0 <watchpt_set0+0xa4>
    8154:	e3a03041 	mov	r3, #65	; 0x41
    8158:	eb0000fc 	bl	8550 <printk>
    815c:	eb00028b 	bl	8b90 <clean_reboot>
    8160:	ee000ed0 	mcr	14, 0, r0, cr0, cr0, {6}
    8164:	e59f3058 	ldr	r3, [pc, #88]	; 81c4 <watchpt_set0+0xa8>
    8168:	ee003ef0 	mcr	14, 0, r3, cr0, cr0, {7}
    816c:	ee102ef0 	mrc	14, 0, r2, cr0, cr0, {7}
    8170:	e1520003 	cmp	r2, r3
    8174:	0a000008 	beq	819c <watchpt_set0+0x80>
    8178:	eb00010f 	bl	85bc <rpi_reset_putc>
    817c:	e59f3030 	ldr	r3, [pc, #48]	; 81b4 <watchpt_set0+0x98>
    8180:	e58d3000 	str	r3, [sp]
    8184:	e59f002c 	ldr	r0, [pc, #44]	; 81b8 <watchpt_set0+0x9c>
    8188:	e59f102c 	ldr	r1, [pc, #44]	; 81bc <watchpt_set0+0xa0>
    818c:	e59f202c 	ldr	r2, [pc, #44]	; 81c0 <watchpt_set0+0xa4>
    8190:	e3a03052 	mov	r3, #82	; 0x52
    8194:	eb0000ed 	bl	8550 <printk>
    8198:	eb00027c 	bl	8b90 <clean_reboot>
    819c:	e3a03000 	mov	r3, #0
    81a0:	ee073f95 	mcr	15, 0, r3, cr7, cr5, {4}
    81a4:	e59f301c 	ldr	r3, [pc, #28]	; 81c8 <watchpt_set0+0xac>
    81a8:	e5831000 	str	r1, [r3]
    81ac:	e28dd00c 	add	sp, sp, #12
    81b0:	e49df004 	pop	{pc}		; (ldr pc, [sp], #4)
    81b4:	000092a8 	andeq	r9, r0, r8, lsr #5
    81b8:	000091fc 	strdeq	r9, [r0], -ip
    81bc:	00009298 	muleq	r0, r8, r2
    81c0:	000093c8 	andeq	r9, r0, r8, asr #7
    81c4:	000001ff 	strdeq	r0, [r0], -pc	; <UNPREDICTABLE>
    81c8:	00009668 	andeq	r9, r0, r8, ror #12

000081cc <data_abort_vector>:
    81cc:	e92d4030 	push	{r4, r5, lr}
    81d0:	e24dd00c 	sub	sp, sp, #12
    81d4:	e1a04000 	mov	r4, r0
    81d8:	e59f310c 	ldr	r3, [pc, #268]	; 82ec <data_abort_vector+0x120>
    81dc:	e5931000 	ldr	r1, [r3]
    81e0:	e2812001 	add	r2, r1, #1
    81e4:	e5832000 	str	r2, [r3]
    81e8:	e59f0100 	ldr	r0, [pc, #256]	; 82f0 <data_abort_vector+0x124>
    81ec:	e1a02004 	mov	r2, r4
    81f0:	eb0000d6 	bl	8550 <printk>
    81f4:	ee153f10 	mrc	15, 0, r3, cr5, cr0, {0}
    81f8:	e3130b02 	tst	r3, #2048	; 0x800
    81fc:	1a000002 	bne	820c <data_abort_vector+0x40>
    8200:	e59f00ec 	ldr	r0, [pc, #236]	; 82f4 <data_abort_vector+0x128>
    8204:	eb0000d1 	bl	8550 <printk>
    8208:	ea000001 	b	8214 <data_abort_vector+0x48>
    820c:	e59f00e4 	ldr	r0, [pc, #228]	; 82f8 <data_abort_vector+0x12c>
    8210:	eb0000ce 	bl	8550 <printk>
    8214:	ee153f10 	mrc	15, 0, r3, cr5, cr0, {0}
    8218:	e203300f 	and	r3, r3, #15
    821c:	e3530002 	cmp	r3, #2
    8220:	0a000006 	beq	8240 <data_abort_vector+0x74>
    8224:	eb0000e4 	bl	85bc <rpi_reset_putc>
    8228:	e59f00cc 	ldr	r0, [pc, #204]	; 82fc <data_abort_vector+0x130>
    822c:	e59f10cc 	ldr	r1, [pc, #204]	; 8300 <data_abort_vector+0x134>
    8230:	e59f20cc 	ldr	r2, [pc, #204]	; 8304 <data_abort_vector+0x138>
    8234:	e3a03079 	mov	r3, #121	; 0x79
    8238:	eb0000c4 	bl	8550 <printk>
    823c:	eb000253 	bl	8b90 <clean_reboot>
    8240:	ee101e16 	mrc	14, 0, r1, cr0, cr6, {0}
    8244:	e59f00bc 	ldr	r0, [pc, #188]	; 8308 <data_abort_vector+0x13c>
    8248:	e2411008 	sub	r1, r1, #8
    824c:	e1a02004 	mov	r2, r4
    8250:	eb0000be 	bl	8550 <printk>
    8254:	ee103e16 	mrc	14, 0, r3, cr0, cr6, {0}
    8258:	e2433004 	sub	r3, r3, #4
    825c:	e1530004 	cmp	r3, r4
    8260:	0a000008 	beq	8288 <data_abort_vector+0xbc>
    8264:	eb0000d4 	bl	85bc <rpi_reset_putc>
    8268:	e59f309c 	ldr	r3, [pc, #156]	; 830c <data_abort_vector+0x140>
    826c:	e58d3000 	str	r3, [sp]
    8270:	e59f0098 	ldr	r0, [pc, #152]	; 8310 <data_abort_vector+0x144>
    8274:	e59f1098 	ldr	r1, [pc, #152]	; 8314 <data_abort_vector+0x148>
    8278:	e59f2098 	ldr	r2, [pc, #152]	; 8318 <data_abort_vector+0x14c>
    827c:	e3a03065 	mov	r3, #101	; 0x65
    8280:	eb0000b2 	bl	8550 <printk>
    8284:	eb000241 	bl	8b90 <clean_reboot>
    8288:	e59f308c 	ldr	r3, [pc, #140]	; 831c <data_abort_vector+0x150>
    828c:	e5933000 	ldr	r3, [r3]
    8290:	e3530000 	cmp	r3, #0
    8294:	1a000008 	bne	82bc <data_abort_vector+0xf0>
    8298:	eb0000c7 	bl	85bc <rpi_reset_putc>
    829c:	e59f307c 	ldr	r3, [pc, #124]	; 8320 <data_abort_vector+0x154>
    82a0:	e58d3000 	str	r3, [sp]
    82a4:	e59f0064 	ldr	r0, [pc, #100]	; 8310 <data_abort_vector+0x144>
    82a8:	e59f1064 	ldr	r1, [pc, #100]	; 8314 <data_abort_vector+0x148>
    82ac:	e59f2064 	ldr	r2, [pc, #100]	; 8318 <data_abort_vector+0x14c>
    82b0:	e3a03067 	mov	r3, #103	; 0x67
    82b4:	eb0000a5 	bl	8550 <printk>
    82b8:	eb000234 	bl	8b90 <clean_reboot>
    82bc:	ee165f10 	mrc	15, 0, r5, cr6, cr0, {0}
    82c0:	e59f005c 	ldr	r0, [pc, #92]	; 8324 <data_abort_vector+0x158>
    82c4:	e1a01005 	mov	r1, r5
    82c8:	eb0000a0 	bl	8550 <printk>
    82cc:	e59f3048 	ldr	r3, [pc, #72]	; 831c <data_abort_vector+0x150>
    82d0:	e5933000 	ldr	r3, [r3]
    82d4:	e3a00000 	mov	r0, #0
    82d8:	e1a01004 	mov	r1, r4
    82dc:	e1a02005 	mov	r2, r5
    82e0:	e12fff33 	blx	r3
    82e4:	e28dd00c 	add	sp, sp, #12
    82e8:	e8bd8030 	pop	{r4, r5, pc}
    82ec:	00009670 	andeq	r9, r0, r0, ror r6
    82f0:	000092c0 	andeq	r9, r0, r0, asr #5
    82f4:	000092e0 	andeq	r9, r0, r0, ror #5
    82f8:	000092f4 	strdeq	r9, [r0], -r4
    82fc:	00009308 	andeq	r9, r0, r8, lsl #6
    8300:	00009340 	andeq	r9, r0, r0, asr #6
    8304:	000093ec 	andeq	r9, r0, ip, ror #7
    8308:	00009350 	andeq	r9, r0, r0, asr r3
    830c:	0000936c 	andeq	r9, r0, ip, ror #6
    8310:	000091fc 	strdeq	r9, [r0], -ip
    8314:	00009298 	muleq	r0, r8, r2
    8318:	000093d8 	ldrdeq	r9, [r0], -r8
    831c:	00009668 	andeq	r9, r0, r8, ror #12
    8320:	00009380 	andeq	r9, r0, r0, lsl #7
    8324:	00009394 	muleq	r0, r4, r3

00008328 <cp14_enable>:
    8328:	e92d4008 	push	{r3, lr}
    832c:	e59f302c 	ldr	r3, [pc, #44]	; 8360 <cp14_enable+0x38>
    8330:	e5933000 	ldr	r3, [r3]
    8334:	e3530000 	cmp	r3, #0
    8338:	1a000003 	bne	834c <cp14_enable+0x24>
    833c:	eb000272 	bl	8d0c <int_init>
    8340:	e3a02001 	mov	r2, #1
    8344:	e59f3014 	ldr	r3, [pc, #20]	; 8360 <cp14_enable+0x38>
    8348:	e5832000 	str	r2, [r3]
    834c:	e3a03902 	mov	r3, #32768	; 0x8000
    8350:	ee003e11 	mcr	14, 0, r3, cr0, cr1, {0}
    8354:	e3a03000 	mov	r3, #0
    8358:	ee073f95 	mcr	15, 0, r3, cr7, cr5, {4}
    835c:	e8bd8008 	pop	{r3, pc}
    8360:	00009674 	andeq	r9, r0, r4, ror r6

00008364 <brkpt_set0>:
    8364:	ee103eb0 	mrc	14, 0, r3, cr0, cr0, {5}
    8368:	e3c33001 	bic	r3, r3, #1
    836c:	ee003eb0 	mcr	14, 0, r3, cr0, cr0, {5}
    8370:	ee000e90 	mcr	14, 0, r0, cr0, cr0, {4}
    8374:	e59f3014 	ldr	r3, [pc, #20]	; 8390 <brkpt_set0+0x2c>
    8378:	ee003eb0 	mcr	14, 0, r3, cr0, cr0, {5}
    837c:	e3a03000 	mov	r3, #0
    8380:	ee073f95 	mcr	15, 0, r3, cr7, cr5, {4}
    8384:	e59f3008 	ldr	r3, [pc, #8]	; 8394 <brkpt_set0+0x30>
    8388:	e5831000 	str	r1, [r3]
    838c:	e12fff1e 	bx	lr
    8390:	000001e7 	andeq	r0, r0, r7, ror #3
    8394:	0000966c 	andeq	r9, r0, ip, ror #12

00008398 <prefetch_abort_vector>:
    8398:	e92d4010 	push	{r4, lr}
    839c:	e24dd008 	sub	sp, sp, #8
    83a0:	e1a04000 	mov	r4, r0
    83a4:	e59f0090 	ldr	r0, [pc, #144]	; 843c <prefetch_abort_vector+0xa4>
    83a8:	e1a01004 	mov	r1, r4
    83ac:	eb000067 	bl	8550 <printk>
    83b0:	ee153f30 	mrc	15, 0, r3, cr5, cr0, {1}
    83b4:	e203300f 	and	r3, r3, #15
    83b8:	e3530002 	cmp	r3, #2
    83bc:	0a000006 	beq	83dc <prefetch_abort_vector+0x44>
    83c0:	eb00007d 	bl	85bc <rpi_reset_putc>
    83c4:	e59f0074 	ldr	r0, [pc, #116]	; 8440 <prefetch_abort_vector+0xa8>
    83c8:	e59f1074 	ldr	r1, [pc, #116]	; 8444 <prefetch_abort_vector+0xac>
    83cc:	e59f2074 	ldr	r2, [pc, #116]	; 8448 <prefetch_abort_vector+0xb0>
    83d0:	e3a030c5 	mov	r3, #197	; 0xc5
    83d4:	eb00005d 	bl	8550 <printk>
    83d8:	eb0001ec 	bl	8b90 <clean_reboot>
    83dc:	e59f3068 	ldr	r3, [pc, #104]	; 844c <prefetch_abort_vector+0xb4>
    83e0:	e5933000 	ldr	r3, [r3]
    83e4:	e3530000 	cmp	r3, #0
    83e8:	1a000008 	bne	8410 <prefetch_abort_vector+0x78>
    83ec:	eb000072 	bl	85bc <rpi_reset_putc>
    83f0:	e59f3058 	ldr	r3, [pc, #88]	; 8450 <prefetch_abort_vector+0xb8>
    83f4:	e58d3000 	str	r3, [sp]
    83f8:	e59f0054 	ldr	r0, [pc, #84]	; 8454 <prefetch_abort_vector+0xbc>
    83fc:	e59f1040 	ldr	r1, [pc, #64]	; 8444 <prefetch_abort_vector+0xac>
    8400:	e59f2040 	ldr	r2, [pc, #64]	; 8448 <prefetch_abort_vector+0xb0>
    8404:	e3a030c6 	mov	r3, #198	; 0xc6
    8408:	eb000050 	bl	8550 <printk>
    840c:	eb0001df 	bl	8b90 <clean_reboot>
    8410:	e59f0040 	ldr	r0, [pc, #64]	; 8458 <prefetch_abort_vector+0xc0>
    8414:	e1a01004 	mov	r1, r4
    8418:	eb00004c 	bl	8550 <printk>
    841c:	ee162f10 	mrc	15, 0, r2, cr6, cr0, {0}
    8420:	e59f3024 	ldr	r3, [pc, #36]	; 844c <prefetch_abort_vector+0xb4>
    8424:	e5933000 	ldr	r3, [r3]
    8428:	e3a00000 	mov	r0, #0
    842c:	e1a01004 	mov	r1, r4
    8430:	e12fff33 	blx	r3
    8434:	e28dd008 	add	sp, sp, #8
    8438:	e8bd8010 	pop	{r4, pc}
    843c:	00009190 	muleq	r0, r0, r1
    8440:	000091a8 	andeq	r9, r0, r8, lsr #3
    8444:	00009298 	muleq	r0, r8, r2
    8448:	00009400 	andeq	r9, r0, r0, lsl #8
    844c:	0000966c 	andeq	r9, r0, ip, ror #12
    8450:	000093a8 	andeq	r9, r0, r8, lsr #7
    8454:	000091fc 	strdeq	r9, [r0], -ip
    8458:	000093b8 			; <UNDEFINED> instruction: 0x000093b8

0000845c <interrupt_vector>:
    845c:	e12fff1e 	bx	lr

00008460 <_interrupt_table>:
    8460:	e59ff020 	ldr	pc, [pc, #32]	; 8488 <_reset_asm>
    8464:	e59ff020 	ldr	pc, [pc, #32]	; 848c <_undefined_instruction_asm>
    8468:	e59ff020 	ldr	pc, [pc, #32]	; 8490 <_software_interrupt_asm>
    846c:	e59ff020 	ldr	pc, [pc, #32]	; 8494 <_prefetch_abort_asm>
    8470:	e59ff020 	ldr	pc, [pc, #32]	; 8498 <_data_abort_asm>
    8474:	e59ff00c 	ldr	pc, [pc, #12]	; 8488 <_reset_asm>
    8478:	e59ff01c 	ldr	pc, [pc, #28]	; 849c <_interrupt_asm>

0000847c <fast_interrupt_asm>:
    847c:	e3a0d409 	mov	sp, #150994944	; 0x9000000
    8480:	e24ee004 	sub	lr, lr, #4
    8484:	eb0001da 	bl	8bf4 <fast_interrupt_vector>

00008488 <_reset_asm>:
    8488:	000084bc 			; <UNDEFINED> instruction: 0x000084bc

0000848c <_undefined_instruction_asm>:
    848c:	000084dc 	ldrdeq	r8, [r0], -ip

00008490 <_software_interrupt_asm>:
    8490:	000084fc 	strdeq	r8, [r0], -ip

00008494 <_prefetch_abort_asm>:
    8494:	00008508 	andeq	r8, r0, r8, lsl #10

00008498 <_data_abort_asm>:
    8498:	0000852c 	andeq	r8, r0, ip, lsr #10

0000849c <_interrupt_asm>:
    849c:	000084a0 	andeq	r8, r0, r0, lsr #9

000084a0 <_interrupt_table_end>:
    84a0:	e3a0d409 	mov	sp, #150994944	; 0x9000000
    84a4:	e24ee004 	sub	lr, lr, #4
    84a8:	e92d5fff 	push	{r0, r1, r2, r3, r4, r5, r6, r7, r8, r9, sl, fp, ip, lr}
    84ac:	e1a0000e 	mov	r0, lr
    84b0:	ebffffe9 	bl	845c <interrupt_vector>
    84b4:	e8bd5fff 	pop	{r0, r1, r2, r3, r4, r5, r6, r7, r8, r9, sl, fp, ip, lr}
    84b8:	e1b0f00e 	movs	pc, lr

000084bc <reset_asm>:
    84bc:	e3a0d409 	mov	sp, #150994944	; 0x9000000
    84c0:	e24ee004 	sub	lr, lr, #4
    84c4:	e3a0d409 	mov	sp, #150994944	; 0x9000000
    84c8:	e92d5fff 	push	{r0, r1, r2, r3, r4, r5, r6, r7, r8, r9, sl, fp, ip, lr}
    84cc:	e1a0000e 	mov	r0, lr
    84d0:	eb0001d8 	bl	8c38 <reset_vector>
    84d4:	e8bd5fff 	pop	{r0, r1, r2, r3, r4, r5, r6, r7, r8, r9, sl, fp, ip, lr}
    84d8:	e1b0f00e 	movs	pc, lr

000084dc <undefined_instruction_asm>:
    84dc:	e3a0d409 	mov	sp, #150994944	; 0x9000000
    84e0:	e24ee004 	sub	lr, lr, #4
    84e4:	e3a0d409 	mov	sp, #150994944	; 0x9000000
    84e8:	e92d5fff 	push	{r0, r1, r2, r3, r4, r5, r6, r7, r8, r9, sl, fp, ip, lr}
    84ec:	e1a0000e 	mov	r0, lr
    84f0:	eb0001f2 	bl	8cc0 <undefined_instruction_vector>
    84f4:	e8bd5fff 	pop	{r0, r1, r2, r3, r4, r5, r6, r7, r8, r9, sl, fp, ip, lr}
    84f8:	e1b0f00e 	movs	pc, lr

000084fc <software_interrupt_asm>:
    84fc:	e3a0d409 	mov	sp, #150994944	; 0x9000000
    8500:	e24ee004 	sub	lr, lr, #4
    8504:	eb0001dc 	bl	8c7c <software_interrupt_vector>

00008508 <prefetch_abort_asm>:
    8508:	e3a0d409 	mov	sp, #150994944	; 0x9000000
    850c:	e1a0000e 	mov	r0, lr
    8510:	e24ee004 	sub	lr, lr, #4
    8514:	e3a0d409 	mov	sp, #150994944	; 0x9000000
    8518:	e92d5fff 	push	{r0, r1, r2, r3, r4, r5, r6, r7, r8, r9, sl, fp, ip, lr}
    851c:	e1a0000e 	mov	r0, lr
    8520:	ebffff9c 	bl	8398 <prefetch_abort_vector>
    8524:	e8bd5fff 	pop	{r0, r1, r2, r3, r4, r5, r6, r7, r8, r9, sl, fp, ip, lr}
    8528:	e1b0f00e 	movs	pc, lr

0000852c <data_abort_asm>:
    852c:	e3a0d409 	mov	sp, #150994944	; 0x9000000
    8530:	e1a0000e 	mov	r0, lr
    8534:	e24ee008 	sub	lr, lr, #8
    8538:	e3a0d409 	mov	sp, #150994944	; 0x9000000
    853c:	e92d5fff 	push	{r0, r1, r2, r3, r4, r5, r6, r7, r8, r9, sl, fp, ip, lr}
    8540:	e1a0000e 	mov	r0, lr
    8544:	ebffff20 	bl	81cc <data_abort_vector>
    8548:	e8bd5fff 	pop	{r0, r1, r2, r3, r4, r5, r6, r7, r8, r9, sl, fp, ip, lr}
    854c:	e1b0f00e 	movs	pc, lr

00008550 <printk>:
    8550:	e92d000f 	push	{r0, r1, r2, r3}
    8554:	e92d4030 	push	{r4, r5, lr}
    8558:	e24dd00c 	sub	sp, sp, #12
    855c:	e28d301c 	add	r3, sp, #28
    8560:	e58d3004 	str	r3, [sp, #4]
    8564:	e59f4034 	ldr	r4, [pc, #52]	; 85a0 <printk+0x50>
    8568:	e1a00004 	mov	r0, r4
    856c:	e3a01b01 	mov	r1, #1024	; 0x400
    8570:	e59d2018 	ldr	r2, [sp, #24]
    8574:	eb0000d0 	bl	88bc <va_printk>
    8578:	e1a05000 	mov	r5, r0
    857c:	e59f3020 	ldr	r3, [pc, #32]	; 85a4 <printk+0x54>
    8580:	e5933000 	ldr	r3, [r3]
    8584:	e1a00004 	mov	r0, r4
    8588:	e12fff33 	blx	r3
    858c:	e1a00005 	mov	r0, r5
    8590:	e28dd00c 	add	sp, sp, #12
    8594:	e8bd4030 	pop	{r4, r5, lr}
    8598:	e28dd010 	add	sp, sp, #16
    859c:	e12fff1e 	bx	lr
    85a0:	00009678 	andeq	r9, r0, r8, ror r6
    85a4:	0000918c 	andeq	r9, r0, ip, lsl #3

000085a8 <internal_putchar>:
    85a8:	e92d4010 	push	{r4, lr}
    85ac:	e1a04000 	mov	r4, r0
    85b0:	eb00029b 	bl	9024 <uart_putc>
    85b4:	e1a00004 	mov	r0, r4
    85b8:	e8bd8010 	pop	{r4, pc}

000085bc <rpi_reset_putc>:
    85bc:	e59f2008 	ldr	r2, [pc, #8]	; 85cc <rpi_reset_putc+0x10>
    85c0:	e59f3008 	ldr	r3, [pc, #8]	; 85d0 <rpi_reset_putc+0x14>
    85c4:	e5832000 	str	r2, [r3]
    85c8:	e12fff1e 	bx	lr
    85cc:	000085a8 	andeq	r8, r0, r8, lsr #11
    85d0:	00009188 	andeq	r9, r0, r8, lsl #3

000085d4 <rpi_set_putc>:
    85d4:	e59f3004 	ldr	r3, [pc, #4]	; 85e0 <rpi_set_putc+0xc>
    85d8:	e5830000 	str	r0, [r3]
    85dc:	e12fff1e 	bx	lr
    85e0:	00009188 	andeq	r9, r0, r8, lsl #3

000085e4 <internal_putk>:
    85e4:	e92d4038 	push	{r3, r4, r5, lr}
    85e8:	e1a04000 	mov	r4, r0
    85ec:	e59f5020 	ldr	r5, [pc, #32]	; 8614 <internal_putk+0x30>
    85f0:	ea000002 	b	8600 <internal_putk+0x1c>
    85f4:	e5953000 	ldr	r3, [r5]
    85f8:	e12fff33 	blx	r3
    85fc:	e2844001 	add	r4, r4, #1
    8600:	e5d40000 	ldrb	r0, [r4]
    8604:	e3500000 	cmp	r0, #0
    8608:	1afffff9 	bne	85f4 <internal_putk+0x10>
    860c:	e3a00001 	mov	r0, #1
    8610:	e8bd8038 	pop	{r3, r4, r5, pc}
    8614:	00009188 	andeq	r9, r0, r8, lsl #3

00008618 <isdigit>:
    8618:	e2400030 	sub	r0, r0, #48	; 0x30
    861c:	e3500009 	cmp	r0, #9
    8620:	83a00000 	movhi	r0, #0
    8624:	93a00001 	movls	r0, #1
    8628:	e12fff1e 	bx	lr

0000862c <pad>:
    862c:	e0611000 	rsb	r1, r1, r0
    8630:	e3a03020 	mov	r3, #32
    8634:	ea000002 	b	8644 <pad+0x18>
    8638:	e5c03000 	strb	r3, [r0]
    863c:	e2811001 	add	r1, r1, #1
    8640:	e2800001 	add	r0, r0, #1
    8644:	e1510002 	cmp	r1, r2
    8648:	bafffffa 	blt	8638 <pad+0xc>
    864c:	e3a03000 	mov	r3, #0
    8650:	e5c03000 	strb	r3, [r0]
    8654:	e12fff1e 	bx	lr

00008658 <reverse>:
    8658:	e063c002 	rsb	ip, r3, r2
    865c:	e28cc001 	add	ip, ip, #1
    8660:	e15c0001 	cmp	ip, r1
    8664:	c061100c 	rsbgt	r1, r1, ip
    8668:	c0833001 	addgt	r3, r3, r1
    866c:	e2422001 	sub	r2, r2, #1
    8670:	e1a01000 	mov	r1, r0
    8674:	ea000002 	b	8684 <reverse+0x2c>
    8678:	e452c001 	ldrb	ip, [r2], #-1
    867c:	e5c1c000 	strb	ip, [r1]
    8680:	e2811001 	add	r1, r1, #1
    8684:	e1520003 	cmp	r2, r3
    8688:	2afffffa 	bcs	8678 <reverse+0x20>
    868c:	e3a03000 	mov	r3, #0
    8690:	e5c13000 	strb	r3, [r1]
    8694:	e12fff1e 	bx	lr

00008698 <emit>:
    8698:	e92d41f0 	push	{r4, r5, r6, r7, r8, lr}
    869c:	e24dd048 	sub	sp, sp, #72	; 0x48
    86a0:	e1a05001 	mov	r5, r1
    86a4:	e1a04002 	mov	r4, r2
    86a8:	e59d2060 	ldr	r2, [sp, #96]	; 0x60
    86ac:	e1520004 	cmp	r2, r4
    86b0:	c2442001 	subgt	r2, r4, #1
    86b4:	e1a0c003 	mov	ip, r3
    86b8:	e2400002 	sub	r0, r0, #2
    86bc:	e350000e 	cmp	r0, #14
    86c0:	979ff100 	ldrls	pc, [pc, r0, lsl #2]
    86c4:	ea000048 	b	87ec <emit+0x154>
    86c8:	000087c4 	andeq	r8, r0, r4, asr #15
    86cc:	000087ec 	andeq	r8, r0, ip, ror #15
    86d0:	000087ec 	andeq	r8, r0, ip, ror #15
    86d4:	000087ec 	andeq	r8, r0, ip, ror #15
    86d8:	000087ec 	andeq	r8, r0, ip, ror #15
    86dc:	000087ec 	andeq	r8, r0, ip, ror #15
    86e0:	000087b8 			; <UNDEFINED> instruction: 0x000087b8
    86e4:	000087ec 	andeq	r8, r0, ip, ror #15
    86e8:	00008704 	andeq	r8, r0, r4, lsl #14
    86ec:	000087ec 	andeq	r8, r0, ip, ror #15
    86f0:	000087ec 	andeq	r8, r0, ip, ror #15
    86f4:	000087ec 	andeq	r8, r0, ip, ror #15
    86f8:	000087ec 	andeq	r8, r0, ip, ror #15
    86fc:	000087ec 	andeq	r8, r0, ip, ror #15
    8700:	00008778 	andeq	r8, r0, r8, ror r7
    8704:	e59d1064 	ldr	r1, [sp, #100]	; 0x64
    8708:	e2911000 	adds	r1, r1, #0
    870c:	13a01001 	movne	r1, #1
    8710:	e0111fa3 	ands	r1, r1, r3, lsr #31
    8714:	1263c000 	rsbne	ip, r3, #0
    8718:	13a08001 	movne	r8, #1
    871c:	03a08000 	moveq	r8, #0
    8720:	e28d1008 	add	r1, sp, #8
    8724:	e59f7108 	ldr	r7, [pc, #264]	; 8834 <emit+0x19c>
    8728:	e59f6108 	ldr	r6, [pc, #264]	; 8838 <emit+0x1a0>
    872c:	ea000000 	b	8734 <emit+0x9c>
    8730:	e1a01000 	mov	r1, r0
    8734:	e2810001 	add	r0, r1, #1
    8738:	e083ec97 	umull	lr, r3, r7, ip
    873c:	e1a031a3 	lsr	r3, r3, #3
    8740:	e1a0e003 	mov	lr, r3
    8744:	e0833103 	add	r3, r3, r3, lsl #2
    8748:	e1a03083 	lsl	r3, r3, #1
    874c:	e063300c 	rsb	r3, r3, ip
    8750:	e7d63003 	ldrb	r3, [r6, r3]
    8754:	e5c13000 	strb	r3, [r1]
    8758:	e1a0c00e 	mov	ip, lr
    875c:	e35e0000 	cmp	lr, #0
    8760:	1afffff2 	bne	8730 <emit+0x98>
    8764:	e3580000 	cmp	r8, #0
    8768:	12810002 	addne	r0, r1, #2
    876c:	13a0302d 	movne	r3, #45	; 0x2d
    8770:	15c13001 	strbne	r3, [r1, #1]
    8774:	ea000025 	b	8810 <emit+0x178>
    8778:	e28d3008 	add	r3, sp, #8
    877c:	e59fe0b8 	ldr	lr, [pc, #184]	; 883c <emit+0x1a4>
    8780:	ea000000 	b	8788 <emit+0xf0>
    8784:	e1a03000 	mov	r3, r0
    8788:	e2830001 	add	r0, r3, #1
    878c:	e20c100f 	and	r1, ip, #15
    8790:	e7de1001 	ldrb	r1, [lr, r1]
    8794:	e5c31000 	strb	r1, [r3]
    8798:	e1b0c22c 	lsrs	ip, ip, #4
    879c:	1afffff8 	bne	8784 <emit+0xec>
    87a0:	e3a01078 	mov	r1, #120	; 0x78
    87a4:	e5c31001 	strb	r1, [r3, #1]
    87a8:	e2830003 	add	r0, r3, #3
    87ac:	e3a01030 	mov	r1, #48	; 0x30
    87b0:	e5c31002 	strb	r1, [r3, #2]
    87b4:	ea000015 	b	8810 <emit+0x178>
    87b8:	e5cd3008 	strb	r3, [sp, #8]
    87bc:	e28d0009 	add	r0, sp, #9
    87c0:	ea000012 	b	8810 <emit+0x178>
    87c4:	e28d3008 	add	r3, sp, #8
    87c8:	e59fe070 	ldr	lr, [pc, #112]	; 8840 <emit+0x1a8>
    87cc:	e2830001 	add	r0, r3, #1
    87d0:	e20c1001 	and	r1, ip, #1
    87d4:	e7de1001 	ldrb	r1, [lr, r1]
    87d8:	e5c31000 	strb	r1, [r3]
    87dc:	e1a03000 	mov	r3, r0
    87e0:	e1b0c0ac 	lsrs	ip, ip, #1
    87e4:	1afffff8 	bne	87cc <emit+0x134>
    87e8:	ea000008 	b	8810 <emit+0x178>
    87ec:	ebffff72 	bl	85bc <rpi_reset_putc>
    87f0:	e59f304c 	ldr	r3, [pc, #76]	; 8844 <emit+0x1ac>
    87f4:	e58d3000 	str	r3, [sp]
    87f8:	e59f0048 	ldr	r0, [pc, #72]	; 8848 <emit+0x1b0>
    87fc:	e59f1048 	ldr	r1, [pc, #72]	; 884c <emit+0x1b4>
    8800:	e59f2048 	ldr	r2, [pc, #72]	; 8850 <emit+0x1b8>
    8804:	e3a03077 	mov	r3, #119	; 0x77
    8808:	ebffff50 	bl	8550 <printk>
    880c:	eb0000df 	bl	8b90 <clean_reboot>
    8810:	e28d1008 	add	r1, sp, #8
    8814:	ebffff84 	bl	862c <pad>
    8818:	e1a02000 	mov	r2, r0
    881c:	e1a00005 	mov	r0, r5
    8820:	e1a01004 	mov	r1, r4
    8824:	e28d3008 	add	r3, sp, #8
    8828:	ebffff8a 	bl	8658 <reverse>
    882c:	e28dd048 	add	sp, sp, #72	; 0x48
    8830:	e8bd81f0 	pop	{r4, r5, r6, r7, r8, pc}
    8834:	cccccccd 	stclgt	12, cr12, [ip], {205}	; 0xcd
    8838:	00009454 	andeq	r9, r0, r4, asr r4
    883c:	00009460 	andeq	r9, r0, r0, ror #8
    8840:	00009474 	andeq	r9, r0, r4, ror r4
    8844:	00009450 	andeq	r9, r0, r0, asr r4
    8848:	000091fc 	strdeq	r9, [r0], -ip
    884c:	0000943c 	andeq	r9, r0, ip, lsr r4
    8850:	00009418 	andeq	r9, r0, r8, lsl r4

00008854 <rpi_set_output>:
    8854:	e52de004 	push	{lr}		; (str lr, [sp, #-4]!)
    8858:	e24dd00c 	sub	sp, sp, #12
    885c:	e3500000 	cmp	r0, #0
    8860:	1a000008 	bne	8888 <rpi_set_output+0x34>
    8864:	ebffff54 	bl	85bc <rpi_reset_putc>
    8868:	e59f3034 	ldr	r3, [pc, #52]	; 88a4 <rpi_set_output+0x50>
    886c:	e58d3000 	str	r3, [sp]
    8870:	e59f0030 	ldr	r0, [pc, #48]	; 88a8 <rpi_set_output+0x54>
    8874:	e59f1030 	ldr	r1, [pc, #48]	; 88ac <rpi_set_output+0x58>
    8878:	e59f2030 	ldr	r2, [pc, #48]	; 88b0 <rpi_set_output+0x5c>
    887c:	e3a03020 	mov	r3, #32
    8880:	ebffff32 	bl	8550 <printk>
    8884:	eb0000c1 	bl	8b90 <clean_reboot>
    8888:	e59f3024 	ldr	r3, [pc, #36]	; 88b4 <rpi_set_output+0x60>
    888c:	e5830000 	str	r0, [r3]
    8890:	e3510000 	cmp	r1, #0
    8894:	159f301c 	ldrne	r3, [pc, #28]	; 88b8 <rpi_set_output+0x64>
    8898:	15831000 	strne	r1, [r3]
    889c:	e28dd00c 	add	sp, sp, #12
    88a0:	e49df004 	pop	{pc}		; (ldr pc, [sp], #4)
    88a4:	00009478 	andeq	r9, r0, r8, ror r4
    88a8:	000091fc 	strdeq	r9, [r0], -ip
    88ac:	0000943c 	andeq	r9, r0, ip, lsr r4
    88b0:	00009420 	andeq	r9, r0, r0, lsr #8
    88b4:	00009188 	andeq	r9, r0, r8, lsl #3
    88b8:	0000918c 	andeq	r9, r0, ip, lsl #3

000088bc <va_printk>:
    88bc:	e92d4ff0 	push	{r4, r5, r6, r7, r8, r9, sl, fp, lr}
    88c0:	e24dd094 	sub	sp, sp, #148	; 0x94
    88c4:	e1a0b000 	mov	fp, r0
    88c8:	e58d200c 	str	r2, [sp, #12]
    88cc:	e1a0a003 	mov	sl, r3
    88d0:	e2411001 	sub	r1, r1, #1
    88d4:	e0808001 	add	r8, r0, r1
    88d8:	e3a03000 	mov	r3, #0
    88dc:	e5c03000 	strb	r3, [r0]
    88e0:	e1a04000 	mov	r4, r0
    88e4:	e1a06002 	mov	r6, r2
    88e8:	ea000095 	b	8b44 <va_printk+0x288>
    88ec:	e3530025 	cmp	r3, #37	; 0x25
    88f0:	12866001 	addne	r6, r6, #1
    88f4:	15c43000 	strbne	r3, [r4]
    88f8:	12844001 	addne	r4, r4, #1
    88fc:	1a000090 	bne	8b44 <va_printk+0x288>
    8900:	e5d62001 	ldrb	r2, [r6, #1]
    8904:	e3520025 	cmp	r2, #37	; 0x25
    8908:	05c43000 	strbeq	r3, [r4]
    890c:	02866002 	addeq	r6, r6, #2
    8910:	02844001 	addeq	r4, r4, #1
    8914:	0a00008a 	beq	8b44 <va_printk+0x288>
    8918:	e2866001 	add	r6, r6, #1
    891c:	e3a07000 	mov	r7, #0
    8920:	ea000004 	b	8938 <va_printk+0x7c>
    8924:	e0877107 	add	r7, r7, r7, lsl #2
    8928:	e1a07087 	lsl	r7, r7, #1
    892c:	e0877005 	add	r7, r7, r5
    8930:	e2477030 	sub	r7, r7, #48	; 0x30
    8934:	e2866001 	add	r6, r6, #1
    8938:	e5d65000 	ldrb	r5, [r6]
    893c:	e1a09005 	mov	r9, r5
    8940:	e1a00005 	mov	r0, r5
    8944:	ebffff33 	bl	8618 <isdigit>
    8948:	e3500000 	cmp	r0, #0
    894c:	1afffff4 	bne	8924 <va_printk+0x68>
    8950:	e357001f 	cmp	r7, #31
    8954:	9a000008 	bls	897c <va_printk+0xc0>
    8958:	ebffff17 	bl	85bc <rpi_reset_putc>
    895c:	e59f320c 	ldr	r3, [pc, #524]	; 8b70 <va_printk+0x2b4>
    8960:	e58d3000 	str	r3, [sp]
    8964:	e59f0208 	ldr	r0, [pc, #520]	; 8b74 <va_printk+0x2b8>
    8968:	e59f1208 	ldr	r1, [pc, #520]	; 8b78 <va_printk+0x2bc>
    896c:	e59f2208 	ldr	r2, [pc, #520]	; 8b7c <va_printk+0x2c0>
    8970:	e3a03095 	mov	r3, #149	; 0x95
    8974:	ebfffef5 	bl	8550 <printk>
    8978:	eb000084 	bl	8b90 <clean_reboot>
    897c:	e2455062 	sub	r5, r5, #98	; 0x62
    8980:	e3550016 	cmp	r5, #22
    8984:	979ff105 	ldrls	pc, [pc, r5, lsl #2]
    8988:	ea000052 	b	8ad8 <va_printk+0x21c>
    898c:	00008a7c 	andeq	r8, r0, ip, ror sl
    8990:	00008ab0 			; <UNDEFINED> instruction: 0x00008ab0
    8994:	00008a04 	andeq	r8, r0, r4, lsl #20
    8998:	00008ad8 	ldrdeq	r8, [r0], -r8	; <UNPREDICTABLE>
    899c:	000089e8 	andeq	r8, r0, r8, ror #19
    89a0:	00008ad8 	ldrdeq	r8, [r0], -r8	; <UNPREDICTABLE>
    89a4:	00008ad8 	ldrdeq	r8, [r0], -r8	; <UNPREDICTABLE>
    89a8:	00008ad8 	ldrdeq	r8, [r0], -r8	; <UNPREDICTABLE>
    89ac:	00008ad8 	ldrdeq	r8, [r0], -r8	; <UNPREDICTABLE>
    89b0:	00008ad8 	ldrdeq	r8, [r0], -r8	; <UNPREDICTABLE>
    89b4:	00008ad8 	ldrdeq	r8, [r0], -r8	; <UNPREDICTABLE>
    89b8:	00008ad8 	ldrdeq	r8, [r0], -r8	; <UNPREDICTABLE>
    89bc:	00008ad8 	ldrdeq	r8, [r0], -r8	; <UNPREDICTABLE>
    89c0:	00008ad8 	ldrdeq	r8, [r0], -r8	; <UNPREDICTABLE>
    89c4:	00008a54 	andeq	r8, r0, r4, asr sl
    89c8:	00008ad8 	ldrdeq	r8, [r0], -r8	; <UNPREDICTABLE>
    89cc:	00008ad8 	ldrdeq	r8, [r0], -r8	; <UNPREDICTABLE>
    89d0:	00008aa4 	andeq	r8, r0, r4, lsr #21
    89d4:	00008ad8 	ldrdeq	r8, [r0], -r8	; <UNPREDICTABLE>
    89d8:	00008a2c 	andeq	r8, r0, ip, lsr #20
    89dc:	00008ad8 	ldrdeq	r8, [r0], -r8	; <UNPREDICTABLE>
    89e0:	00008ad8 	ldrdeq	r8, [r0], -r8	; <UNPREDICTABLE>
    89e4:	00008a54 	andeq	r8, r0, r4, asr sl
    89e8:	ebfffef3 	bl	85bc <rpi_reset_putc>
    89ec:	e59f018c 	ldr	r0, [pc, #396]	; 8b80 <va_printk+0x2c4>
    89f0:	e59f1180 	ldr	r1, [pc, #384]	; 8b78 <va_printk+0x2bc>
    89f4:	e59f2180 	ldr	r2, [pc, #384]	; 8b7c <va_printk+0x2c0>
    89f8:	e3a0309b 	mov	r3, #155	; 0x9b
    89fc:	ebfffed3 	bl	8550 <printk>
    8a00:	eb000062 	bl	8b90 <clean_reboot>
    8a04:	e59a3000 	ldr	r3, [sl]
    8a08:	e28aa004 	add	sl, sl, #4
    8a0c:	e58d7000 	str	r7, [sp]
    8a10:	e3a02001 	mov	r2, #1
    8a14:	e58d2004 	str	r2, [sp, #4]
    8a18:	e3a0000a 	mov	r0, #10
    8a1c:	e28d1010 	add	r1, sp, #16
    8a20:	e3a02080 	mov	r2, #128	; 0x80
    8a24:	ebffff1b 	bl	8698 <emit>
    8a28:	ea00003b 	b	8b1c <va_printk+0x260>
    8a2c:	e59a3000 	ldr	r3, [sl]
    8a30:	e28aa004 	add	sl, sl, #4
    8a34:	e58d7000 	str	r7, [sp]
    8a38:	e3a02000 	mov	r2, #0
    8a3c:	e58d2004 	str	r2, [sp, #4]
    8a40:	e3a0000a 	mov	r0, #10
    8a44:	e28d1010 	add	r1, sp, #16
    8a48:	e3a02080 	mov	r2, #128	; 0x80
    8a4c:	ebffff11 	bl	8698 <emit>
    8a50:	ea000031 	b	8b1c <va_printk+0x260>
    8a54:	e59a3000 	ldr	r3, [sl]
    8a58:	e28aa004 	add	sl, sl, #4
    8a5c:	e58d7000 	str	r7, [sp]
    8a60:	e3a02000 	mov	r2, #0
    8a64:	e58d2004 	str	r2, [sp, #4]
    8a68:	e3a00010 	mov	r0, #16
    8a6c:	e08d1000 	add	r1, sp, r0
    8a70:	e3a02080 	mov	r2, #128	; 0x80
    8a74:	ebffff07 	bl	8698 <emit>
    8a78:	ea000027 	b	8b1c <va_printk+0x260>
    8a7c:	e59a3000 	ldr	r3, [sl]
    8a80:	e28aa004 	add	sl, sl, #4
    8a84:	e58d7000 	str	r7, [sp]
    8a88:	e3a02000 	mov	r2, #0
    8a8c:	e58d2004 	str	r2, [sp, #4]
    8a90:	e3a00002 	mov	r0, #2
    8a94:	e28d1010 	add	r1, sp, #16
    8a98:	e3a02080 	mov	r2, #128	; 0x80
    8a9c:	ebfffefd 	bl	8698 <emit>
    8aa0:	ea00001d 	b	8b1c <va_printk+0x260>
    8aa4:	e59a0000 	ldr	r0, [sl]
    8aa8:	e28aa004 	add	sl, sl, #4
    8aac:	ea00001a 	b	8b1c <va_printk+0x260>
    8ab0:	e59a3000 	ldr	r3, [sl]
    8ab4:	e28aa004 	add	sl, sl, #4
    8ab8:	e58d7000 	str	r7, [sp]
    8abc:	e3a02000 	mov	r2, #0
    8ac0:	e58d2004 	str	r2, [sp, #4]
    8ac4:	e3a00008 	mov	r0, #8
    8ac8:	e28d1010 	add	r1, sp, #16
    8acc:	e3a02080 	mov	r2, #128	; 0x80
    8ad0:	ebfffef0 	bl	8698 <emit>
    8ad4:	ea000010 	b	8b1c <va_printk+0x260>
    8ad8:	e3a03000 	mov	r3, #0
    8adc:	e5c63001 	strb	r3, [r6, #1]
    8ae0:	e59f009c 	ldr	r0, [pc, #156]	; 8b84 <va_printk+0x2c8>
    8ae4:	e1a01009 	mov	r1, r9
    8ae8:	e1a02009 	mov	r2, r9
    8aec:	ebfffe97 	bl	8550 <printk>
    8af0:	e59f3090 	ldr	r3, [pc, #144]	; 8b88 <va_printk+0x2cc>
    8af4:	e5933000 	ldr	r3, [r3]
    8af8:	e59d000c 	ldr	r0, [sp, #12]
    8afc:	e12fff33 	blx	r3
    8b00:	ebfffead 	bl	85bc <rpi_reset_putc>
    8b04:	e59f0080 	ldr	r0, [pc, #128]	; 8b8c <va_printk+0x2d0>
    8b08:	e59f1068 	ldr	r1, [pc, #104]	; 8b78 <va_printk+0x2bc>
    8b0c:	e59f2068 	ldr	r2, [pc, #104]	; 8b7c <va_printk+0x2c0>
    8b10:	e3a030bf 	mov	r3, #191	; 0xbf
    8b14:	ebfffe8d 	bl	8550 <printk>
    8b18:	eb00001c 	bl	8b90 <clean_reboot>
    8b1c:	e2866001 	add	r6, r6, #1
    8b20:	ea000002 	b	8b30 <va_printk+0x274>
    8b24:	e2800001 	add	r0, r0, #1
    8b28:	e5c43000 	strb	r3, [r4]
    8b2c:	e2844001 	add	r4, r4, #1
    8b30:	e1540008 	cmp	r4, r8
    8b34:	2a000002 	bcs	8b44 <va_printk+0x288>
    8b38:	e5d03000 	ldrb	r3, [r0]
    8b3c:	e3530000 	cmp	r3, #0
    8b40:	1afffff7 	bne	8b24 <va_printk+0x268>
    8b44:	e5d63000 	ldrb	r3, [r6]
    8b48:	e3530000 	cmp	r3, #0
    8b4c:	0a000001 	beq	8b58 <va_printk+0x29c>
    8b50:	e1540008 	cmp	r4, r8
    8b54:	3affff64 	bcc	88ec <va_printk+0x30>
    8b58:	e2840001 	add	r0, r4, #1
    8b5c:	e3a03000 	mov	r3, #0
    8b60:	e5c43000 	strb	r3, [r4]
    8b64:	e06b0000 	rsb	r0, fp, r0
    8b68:	e28dd094 	add	sp, sp, #148	; 0x94
    8b6c:	e8bd8ff0 	pop	{r4, r5, r6, r7, r8, r9, sl, fp, pc}
    8b70:	00009480 	andeq	r9, r0, r0, lsl #9
    8b74:	000091fc 	strdeq	r9, [r0], -ip
    8b78:	0000943c 	andeq	r9, r0, ip, lsr r4
    8b7c:	00009430 	andeq	r9, r0, r0, lsr r4
    8b80:	0000948c 	andeq	r9, r0, ip, lsl #9
    8b84:	000094b4 			; <UNDEFINED> instruction: 0x000094b4
    8b88:	0000918c 	andeq	r9, r0, ip, lsl #3
    8b8c:	000094e4 	andeq	r9, r0, r4, ror #9

00008b90 <clean_reboot>:
    8b90:	e92d4008 	push	{r3, lr}
    8b94:	eb00005b 	bl	8d08 <reboot_handler>
    8b98:	e59f3014 	ldr	r3, [pc, #20]	; 8bb4 <clean_reboot+0x24>
    8b9c:	e5933000 	ldr	r3, [r3]
    8ba0:	e59f0010 	ldr	r0, [pc, #16]	; 8bb8 <clean_reboot+0x28>
    8ba4:	e12fff33 	blx	r3
    8ba8:	e3a00064 	mov	r0, #100	; 0x64
    8bac:	eb0000aa 	bl	8e5c <delay_ms>
    8bb0:	eb00007b 	bl	8da4 <rpi_reboot>
    8bb4:	0000918c 	andeq	r9, r0, ip, lsl #3
    8bb8:	00009504 	andeq	r9, r0, r4, lsl #10

00008bbc <_cstart>:
    8bbc:	e92d4008 	push	{r3, lr}
    8bc0:	e59f3024 	ldr	r3, [pc, #36]	; 8bec <_cstart+0x30>
    8bc4:	e59f2024 	ldr	r2, [pc, #36]	; 8bf0 <_cstart+0x34>
    8bc8:	e3a01000 	mov	r1, #0
    8bcc:	ea000001 	b	8bd8 <_cstart+0x1c>
    8bd0:	e5831000 	str	r1, [r3]
    8bd4:	e2833004 	add	r3, r3, #4
    8bd8:	e1530002 	cmp	r3, r2
    8bdc:	3afffffb 	bcc	8bd0 <_cstart+0x14>
    8be0:	eb000047 	bl	8d04 <cstart_handler>
    8be4:	ebfffd32 	bl	80b4 <notmain>
    8be8:	ebffffe8 	bl	8b90 <clean_reboot>
    8bec:	00009668 	andeq	r9, r0, r8, ror #12
    8bf0:	00009a78 	andeq	r9, r0, r8, ror sl

00008bf4 <fast_interrupt_vector>:
    8bf4:	e52de004 	push	{lr}		; (str lr, [sp, #-4]!)
    8bf8:	e24dd00c 	sub	sp, sp, #12
    8bfc:	e1a04000 	mov	r4, r0
    8c00:	ebfffe6d 	bl	85bc <rpi_reset_putc>
    8c04:	e59f301c 	ldr	r3, [pc, #28]	; 8c28 <fast_interrupt_vector+0x34>
    8c08:	e58d3000 	str	r3, [sp]
    8c0c:	e58d4004 	str	r4, [sp, #4]
    8c10:	e59f0014 	ldr	r0, [pc, #20]	; 8c2c <fast_interrupt_vector+0x38>
    8c14:	e59f1014 	ldr	r1, [pc, #20]	; 8c30 <fast_interrupt_vector+0x3c>
    8c18:	e59f2014 	ldr	r2, [pc, #20]	; 8c34 <fast_interrupt_vector+0x40>
    8c1c:	e3a03002 	mov	r3, #2
    8c20:	ebfffe4a 	bl	8550 <printk>
    8c24:	ebffffd9 	bl	8b90 <clean_reboot>
    8c28:	00009588 	andeq	r9, r0, r8, lsl #11
    8c2c:	00009528 	andeq	r9, r0, r8, lsr #10
    8c30:	00009564 	andeq	r9, r0, r4, ror #10
    8c34:	00009510 	andeq	r9, r0, r0, lsl r5

00008c38 <reset_vector>:
    8c38:	e52de004 	push	{lr}		; (str lr, [sp, #-4]!)
    8c3c:	e24dd00c 	sub	sp, sp, #12
    8c40:	e1a04000 	mov	r4, r0
    8c44:	ebfffe5c 	bl	85bc <rpi_reset_putc>
    8c48:	e59f301c 	ldr	r3, [pc, #28]	; 8c6c <reset_vector+0x34>
    8c4c:	e58d3000 	str	r3, [sp]
    8c50:	e58d4004 	str	r4, [sp, #4]
    8c54:	e59f0014 	ldr	r0, [pc, #20]	; 8c70 <reset_vector+0x38>
    8c58:	e59f1014 	ldr	r1, [pc, #20]	; 8c74 <reset_vector+0x3c>
    8c5c:	e59f2014 	ldr	r2, [pc, #20]	; 8c78 <reset_vector+0x40>
    8c60:	e3a03002 	mov	r3, #2
    8c64:	ebfffe39 	bl	8550 <printk>
    8c68:	ebffffc8 	bl	8b90 <clean_reboot>
    8c6c:	000095c4 	andeq	r9, r0, r4, asr #11
    8c70:	00009528 	andeq	r9, r0, r8, lsr #10
    8c74:	000095a0 	andeq	r9, r0, r0, lsr #11
    8c78:	00009590 	muleq	r0, r0, r5

00008c7c <software_interrupt_vector>:
    8c7c:	e52de004 	push	{lr}		; (str lr, [sp, #-4]!)
    8c80:	e24dd00c 	sub	sp, sp, #12
    8c84:	e1a04000 	mov	r4, r0
    8c88:	ebfffe4b 	bl	85bc <rpi_reset_putc>
    8c8c:	e59f301c 	ldr	r3, [pc, #28]	; 8cb0 <software_interrupt_vector+0x34>
    8c90:	e58d3000 	str	r3, [sp]
    8c94:	e58d4004 	str	r4, [sp, #4]
    8c98:	e59f0014 	ldr	r0, [pc, #20]	; 8cb4 <software_interrupt_vector+0x38>
    8c9c:	e59f1014 	ldr	r1, [pc, #20]	; 8cb8 <software_interrupt_vector+0x3c>
    8ca0:	e59f2014 	ldr	r2, [pc, #20]	; 8cbc <software_interrupt_vector+0x40>
    8ca4:	e3a03002 	mov	r3, #2
    8ca8:	ebfffe28 	bl	8550 <printk>
    8cac:	ebffffb7 	bl	8b90 <clean_reboot>
    8cb0:	00009608 	andeq	r9, r0, r8, lsl #12
    8cb4:	00009528 	andeq	r9, r0, r8, lsr #10
    8cb8:	000095e8 	andeq	r9, r0, r8, ror #11
    8cbc:	000095cc 	andeq	r9, r0, ip, asr #11

00008cc0 <undefined_instruction_vector>:
    8cc0:	e52de004 	push	{lr}		; (str lr, [sp, #-4]!)
    8cc4:	e24dd00c 	sub	sp, sp, #12
    8cc8:	e1a04000 	mov	r4, r0
    8ccc:	ebfffe3a 	bl	85bc <rpi_reset_putc>
    8cd0:	e59f301c 	ldr	r3, [pc, #28]	; 8cf4 <undefined_instruction_vector+0x34>
    8cd4:	e58d3000 	str	r3, [sp]
    8cd8:	e58d4004 	str	r4, [sp, #4]
    8cdc:	e59f0014 	ldr	r0, [pc, #20]	; 8cf8 <undefined_instruction_vector+0x38>
    8ce0:	e59f1014 	ldr	r1, [pc, #20]	; 8cfc <undefined_instruction_vector+0x3c>
    8ce4:	e59f2014 	ldr	r2, [pc, #20]	; 8d00 <undefined_instruction_vector+0x40>
    8ce8:	e3a03002 	mov	r3, #2
    8cec:	ebfffe17 	bl	8550 <printk>
    8cf0:	ebffffa6 	bl	8b90 <clean_reboot>
    8cf4:	00009658 	andeq	r9, r0, r8, asr r6
    8cf8:	00009528 	andeq	r9, r0, r8, lsr #10
    8cfc:	0000962c 	andeq	r9, r0, ip, lsr #12
    8d00:	0000960c 	andeq	r9, r0, ip, lsl #12

00008d04 <cstart_handler>:
    8d04:	e12fff1e 	bx	lr

00008d08 <reboot_handler>:
    8d08:	e12fff1e 	bx	lr

00008d0c <int_init>:
    8d0c:	e92d4008 	push	{r3, lr}
    8d10:	eb00005c 	bl	8e88 <dev_barrier>
    8d14:	e59f004c 	ldr	r0, [pc, #76]	; 8d68 <int_init+0x5c>
    8d18:	e3e01000 	mvn	r1, #0
    8d1c:	eb000061 	bl	8ea8 <PUT32>
    8d20:	e59f0044 	ldr	r0, [pc, #68]	; 8d6c <int_init+0x60>
    8d24:	e3e01000 	mvn	r1, #0
    8d28:	eb00005e 	bl	8ea8 <PUT32>
    8d2c:	eb000055 	bl	8e88 <dev_barrier>
    8d30:	e59f3038 	ldr	r3, [pc, #56]	; 8d70 <int_init+0x64>
    8d34:	e59f0038 	ldr	r0, [pc, #56]	; 8d74 <int_init+0x68>
    8d38:	e0630000 	rsb	r0, r3, r0
    8d3c:	e1a00140 	asr	r0, r0, #2
    8d40:	e3a03000 	mov	r3, #0
    8d44:	e59fc024 	ldr	ip, [pc, #36]	; 8d70 <int_init+0x64>
    8d48:	ea000003 	b	8d5c <int_init+0x50>
    8d4c:	e1a02103 	lsl	r2, r3, #2
    8d50:	e79c1103 	ldr	r1, [ip, r3, lsl #2]
    8d54:	e5821000 	str	r1, [r2]
    8d58:	e2833001 	add	r3, r3, #1
    8d5c:	e1530000 	cmp	r3, r0
    8d60:	3afffff9 	bcc	8d4c <int_init+0x40>
    8d64:	e8bd8008 	pop	{r3, pc}
    8d68:	2000b21c 	andcs	fp, r0, ip, lsl r2
    8d6c:	2000b220 	andcs	fp, r0, r0, lsr #4
    8d70:	00008460 	andeq	r8, r0, r0, ror #8
    8d74:	000084a0 	andeq	r8, r0, r0, lsr #9

00008d78 <at_user_level>:
    8d78:	e10f0000 	mrs	r0, CPSR
    8d7c:	e200001f 	and	r0, r0, #31
    8d80:	e3500010 	cmp	r0, #16
    8d84:	13a00000 	movne	r0, #0
    8d88:	03a00001 	moveq	r0, #1
    8d8c:	e12fff1e 	bx	lr

00008d90 <set_user_level>:
    8d90:	e10f3000 	mrs	r3, CPSR
    8d94:	e3c3301f 	bic	r3, r3, #31
    8d98:	e3833010 	orr	r3, r3, #16
    8d9c:	e129f003 	msr	CPSR_fc, r3
    8da0:	e12fff1e 	bx	lr

00008da4 <rpi_reboot>:
    8da4:	e92d4008 	push	{r3, lr}
    8da8:	ebfffff2 	bl	8d78 <at_user_level>
    8dac:	e3500000 	cmp	r0, #0
    8db0:	0a000000 	beq	8db8 <rpi_reboot+0x14>
    8db4:	ebfffff5 	bl	8d90 <set_user_level>
    8db8:	e3a0001e 	mov	r0, #30
    8dbc:	eb000026 	bl	8e5c <delay_ms>
    8dc0:	e59f0014 	ldr	r0, [pc, #20]	; 8ddc <rpi_reboot+0x38>
    8dc4:	e59f1014 	ldr	r1, [pc, #20]	; 8de0 <rpi_reboot+0x3c>
    8dc8:	eb000036 	bl	8ea8 <PUT32>
    8dcc:	e59f0010 	ldr	r0, [pc, #16]	; 8de4 <rpi_reboot+0x40>
    8dd0:	e59f1010 	ldr	r1, [pc, #16]	; 8de8 <rpi_reboot+0x44>
    8dd4:	eb000033 	bl	8ea8 <PUT32>
    8dd8:	eafffffe 	b	8dd8 <rpi_reboot+0x34>
    8ddc:	20100024 	andscs	r0, r0, r4, lsr #32
    8de0:	5a000001 	bpl	8dec <delay_cycles>
    8de4:	2010001c 	andscs	r0, r0, ip, lsl r0
    8de8:	5a000020 	bpl	8e70 <delay_sec>

00008dec <delay_cycles>:
    8dec:	ea000001 	b	8df8 <delay_cycles+0xc>
    8df0:	e2811000 	add	r1, r1, #0
    8df4:	e1a00003 	mov	r0, r3
    8df8:	e2403001 	sub	r3, r0, #1
    8dfc:	e3500000 	cmp	r0, #0
    8e00:	1afffffa 	bne	8df0 <delay_cycles+0x4>
    8e04:	e12fff1e 	bx	lr

00008e08 <timer_get_usec_raw>:
    8e08:	e92d4008 	push	{r3, lr}
    8e0c:	e59f0004 	ldr	r0, [pc, #4]	; 8e18 <timer_get_usec_raw+0x10>
    8e10:	eb000030 	bl	8ed8 <GET32>
    8e14:	e8bd8008 	pop	{r3, pc}
    8e18:	20003004 	andcs	r3, r0, r4

00008e1c <timer_get_usec>:
    8e1c:	e92d4010 	push	{r4, lr}
    8e20:	eb000018 	bl	8e88 <dev_barrier>
    8e24:	ebfffff7 	bl	8e08 <timer_get_usec_raw>
    8e28:	e1a04000 	mov	r4, r0
    8e2c:	eb000015 	bl	8e88 <dev_barrier>
    8e30:	e1a00004 	mov	r0, r4
    8e34:	e8bd8010 	pop	{r4, pc}

00008e38 <delay_us>:
    8e38:	e92d4038 	push	{r3, r4, r5, lr}
    8e3c:	e1a05000 	mov	r5, r0
    8e40:	ebfffff5 	bl	8e1c <timer_get_usec>
    8e44:	e1a04000 	mov	r4, r0
    8e48:	ebfffff3 	bl	8e1c <timer_get_usec>
    8e4c:	e0640000 	rsb	r0, r4, r0
    8e50:	e1500005 	cmp	r0, r5
    8e54:	3afffffb 	bcc	8e48 <delay_us+0x10>
    8e58:	e8bd8038 	pop	{r3, r4, r5, pc}

00008e5c <delay_ms>:
    8e5c:	e92d4008 	push	{r3, lr}
    8e60:	e3a03ffa 	mov	r3, #1000	; 0x3e8
    8e64:	e0000093 	mul	r0, r3, r0
    8e68:	ebfffff2 	bl	8e38 <delay_us>
    8e6c:	e8bd8008 	pop	{r3, pc}

00008e70 <delay_sec>:
    8e70:	e92d4008 	push	{r3, lr}
    8e74:	e3a03ffa 	mov	r3, #1000	; 0x3e8
    8e78:	e0000093 	mul	r0, r3, r0
    8e7c:	ebfffff6 	bl	8e5c <delay_ms>
    8e80:	e8bd8008 	pop	{r3, pc}

00008e84 <BRANCHTO>:
    8e84:	e12fff10 	bx	r0

00008e88 <dev_barrier>:
    8e88:	ea000002 	b	8e98 <dsb>

00008e8c <dmb>:
    8e8c:	e3a00000 	mov	r0, #0
    8e90:	ee070fba 	mcr	15, 0, r0, cr7, cr10, {5}
    8e94:	e12fff1e 	bx	lr

00008e98 <dsb>:
    8e98:	ee070f9a 	mcr	15, 0, r0, cr7, cr10, {4}
    8e9c:	e12fff1e 	bx	lr

00008ea0 <put32>:
    8ea0:	e5801000 	str	r1, [r0]
    8ea4:	e12fff1e 	bx	lr

00008ea8 <PUT32>:
    8ea8:	e5801000 	str	r1, [r0]
    8eac:	e12fff1e 	bx	lr

00008eb0 <put16>:
    8eb0:	e1c010b0 	strh	r1, [r0]
    8eb4:	e12fff1e 	bx	lr

00008eb8 <PUT16>:
    8eb8:	e1c010b0 	strh	r1, [r0]
    8ebc:	e12fff1e 	bx	lr

00008ec0 <put8>:
    8ec0:	e5c01000 	strb	r1, [r0]
    8ec4:	e12fff1e 	bx	lr

00008ec8 <PUT8>:
    8ec8:	e5c01000 	strb	r1, [r0]
    8ecc:	e12fff1e 	bx	lr

00008ed0 <get32>:
    8ed0:	e5900000 	ldr	r0, [r0]
    8ed4:	e12fff1e 	bx	lr

00008ed8 <GET32>:
    8ed8:	e5900000 	ldr	r0, [r0]
    8edc:	e12fff1e 	bx	lr

00008ee0 <GETPC>:
    8ee0:	e1a0000e 	mov	r0, lr
    8ee4:	e12fff1e 	bx	lr

00008ee8 <dummy>:
    8ee8:	e12fff1e 	bx	lr

00008eec <or_in32>:
    8eec:	e92d4070 	push	{r4, r5, r6, lr}
    8ef0:	e1a04000 	mov	r4, r0
    8ef4:	e1a05001 	mov	r5, r1
    8ef8:	ebfffff4 	bl	8ed0 <get32>
    8efc:	e1801005 	orr	r1, r0, r5
    8f00:	e1a00004 	mov	r0, r4
    8f04:	ebffffe5 	bl	8ea0 <put32>
    8f08:	e8bd8070 	pop	{r4, r5, r6, pc}

00008f0c <uart_init>:
    8f0c:	e92d4010 	push	{r4, lr}
    8f10:	e3a01002 	mov	r1, #2
    8f14:	e3a0000e 	mov	r0, #14
    8f18:	eb000051 	bl	9064 <gpio_set_function>
    8f1c:	e3a01002 	mov	r1, #2
    8f20:	e3a0000f 	mov	r0, #15
    8f24:	eb00004e 	bl	9064 <gpio_set_function>
    8f28:	ebffffd6 	bl	8e88 <dev_barrier>
    8f2c:	e3a01001 	mov	r1, #1
    8f30:	e59f0064 	ldr	r0, [pc, #100]	; 8f9c <uart_init+0x90>
    8f34:	ebffffec 	bl	8eec <or_in32>
    8f38:	ebffffd2 	bl	8e88 <dev_barrier>
    8f3c:	e59f405c 	ldr	r4, [pc, #92]	; 8fa0 <uart_init+0x94>
    8f40:	e3a01000 	mov	r1, #0
    8f44:	e1a00004 	mov	r0, r4
    8f48:	ebffffd4 	bl	8ea0 <put32>
    8f4c:	e3a01000 	mov	r1, #0
    8f50:	e59f004c 	ldr	r0, [pc, #76]	; 8fa4 <uart_init+0x98>
    8f54:	ebffffd1 	bl	8ea0 <put32>
    8f58:	e3a01003 	mov	r1, #3
    8f5c:	e59f0044 	ldr	r0, [pc, #68]	; 8fa8 <uart_init+0x9c>
    8f60:	ebffffce 	bl	8ea0 <put32>
    8f64:	e3a01000 	mov	r1, #0
    8f68:	e59f003c 	ldr	r0, [pc, #60]	; 8fac <uart_init+0xa0>
    8f6c:	ebffffcb 	bl	8ea0 <put32>
    8f70:	e3a010c7 	mov	r1, #199	; 0xc7
    8f74:	e59f0034 	ldr	r0, [pc, #52]	; 8fb0 <uart_init+0xa4>
    8f78:	ebffffc8 	bl	8ea0 <put32>
    8f7c:	e59f1030 	ldr	r1, [pc, #48]	; 8fb4 <uart_init+0xa8>
    8f80:	e59f0030 	ldr	r0, [pc, #48]	; 8fb8 <uart_init+0xac>
    8f84:	ebffffc5 	bl	8ea0 <put32>
    8f88:	e3a01003 	mov	r1, #3
    8f8c:	e1a00004 	mov	r0, r4
    8f90:	ebffffc2 	bl	8ea0 <put32>
    8f94:	ebffffbb 	bl	8e88 <dev_barrier>
    8f98:	e8bd8010 	pop	{r4, pc}
    8f9c:	20215004 	eorcs	r5, r1, r4
    8fa0:	20215060 	eorcs	r5, r1, r0, rrx
    8fa4:	20215044 	eorcs	r5, r1, r4, asr #32
    8fa8:	2021504c 	eorcs	r5, r1, ip, asr #32
    8fac:	20215050 	eorcs	r5, r1, r0, asr r0
    8fb0:	20215048 	eorcs	r5, r1, r8, asr #32
    8fb4:	0000010e 	andeq	r0, r0, lr, lsl #2
    8fb8:	20215068 	eorcs	r5, r1, r8, rrx

00008fbc <uart_can_getc>:
    8fbc:	e92d4010 	push	{r4, lr}
    8fc0:	e59f0008 	ldr	r0, [pc, #8]	; 8fd0 <uart_can_getc+0x14>
    8fc4:	ebffffc1 	bl	8ed0 <get32>
    8fc8:	e2000001 	and	r0, r0, #1
    8fcc:	e8bd8010 	pop	{r4, pc}
    8fd0:	20215064 	eorcs	r5, r1, r4, rrx

00008fd4 <uart_can_putc>:
    8fd4:	e92d4010 	push	{r4, lr}
    8fd8:	e59f0010 	ldr	r0, [pc, #16]	; 8ff0 <uart_can_putc+0x1c>
    8fdc:	ebffffbb 	bl	8ed0 <get32>
    8fe0:	e3100002 	tst	r0, #2
    8fe4:	13a00001 	movne	r0, #1
    8fe8:	03a00000 	moveq	r0, #0
    8fec:	e8bd8010 	pop	{r4, pc}
    8ff0:	20215064 	eorcs	r5, r1, r4, rrx

00008ff4 <uart_getc>:
    8ff4:	e92d4010 	push	{r4, lr}
    8ff8:	ebffffa2 	bl	8e88 <dev_barrier>
    8ffc:	ebffffee 	bl	8fbc <uart_can_getc>
    9000:	e3500000 	cmp	r0, #0
    9004:	0afffffc 	beq	8ffc <uart_getc+0x8>
    9008:	e59f0010 	ldr	r0, [pc, #16]	; 9020 <uart_getc+0x2c>
    900c:	ebffffaf 	bl	8ed0 <get32>
    9010:	e6ef4070 	uxtb	r4, r0
    9014:	ebffff9b 	bl	8e88 <dev_barrier>
    9018:	e1a00004 	mov	r0, r4
    901c:	e8bd8010 	pop	{r4, pc}
    9020:	20215040 	eorcs	r5, r1, r0, asr #32

00009024 <uart_putc>:
    9024:	e92d4010 	push	{r4, lr}
    9028:	e1a04000 	mov	r4, r0
    902c:	ebffff95 	bl	8e88 <dev_barrier>
    9030:	ebffffe7 	bl	8fd4 <uart_can_putc>
    9034:	e3500000 	cmp	r0, #0
    9038:	0afffffc 	beq	9030 <uart_putc+0xc>
    903c:	e6ef1074 	uxtb	r1, r4
    9040:	e59f0008 	ldr	r0, [pc, #8]	; 9050 <uart_putc+0x2c>
    9044:	ebffff95 	bl	8ea0 <put32>
    9048:	ebffff8e 	bl	8e88 <dev_barrier>
    904c:	e8bd8010 	pop	{r4, pc}
    9050:	20215040 	eorcs	r5, r1, r0, asr #32

00009054 <uart_has_data>:
    9054:	e92d4010 	push	{r4, lr}
    9058:	ebffff8a 	bl	8e88 <dev_barrier>
    905c:	ebffffd6 	bl	8fbc <uart_can_getc>
    9060:	e8bd8010 	pop	{r4, pc}

00009064 <gpio_set_function>:
    9064:	e350001f 	cmp	r0, #31
    9068:	812fff1e 	bxhi	lr
    906c:	e3d13007 	bics	r3, r1, #7
    9070:	112fff1e 	bxne	lr
    9074:	e92d4070 	push	{r4, r5, r6, lr}
    9078:	e1a05001 	mov	r5, r1
    907c:	e59f3044 	ldr	r3, [pc, #68]	; 90c8 <gpio_set_function+0x64>
    9080:	e0832093 	umull	r2, r3, r3, r0
    9084:	e1a031a3 	lsr	r3, r3, #3
    9088:	e1a06003 	mov	r6, r3
    908c:	e0833103 	add	r3, r3, r3, lsl #2
    9090:	e1a02083 	lsl	r2, r3, #1
    9094:	e0403002 	sub	r3, r0, r2
    9098:	e0834083 	add	r4, r3, r3, lsl #1
    909c:	e2866302 	add	r6, r6, #134217728	; 0x8000000
    90a0:	e2866702 	add	r6, r6, #524288	; 0x80000
    90a4:	e1a06106 	lsl	r6, r6, #2
    90a8:	e1a00006 	mov	r0, r6
    90ac:	ebffff89 	bl	8ed8 <GET32>
    90b0:	e3a01007 	mov	r1, #7
    90b4:	e1c01411 	bic	r1, r0, r1, lsl r4
    90b8:	e1811415 	orr	r1, r1, r5, lsl r4
    90bc:	e1a00006 	mov	r0, r6
    90c0:	ebffff78 	bl	8ea8 <PUT32>
    90c4:	e8bd8070 	pop	{r4, r5, r6, pc}
    90c8:	cccccccd 	stclgt	12, cr12, [ip], {205}	; 0xcd

000090cc <gpio_set_output>:
    90cc:	e92d4010 	push	{r4, lr}
    90d0:	e3a01001 	mov	r1, #1
    90d4:	ebffffe2 	bl	9064 <gpio_set_function>
    90d8:	e8bd8010 	pop	{r4, pc}

000090dc <gpio_set_on>:
    90dc:	e350001f 	cmp	r0, #31
    90e0:	812fff1e 	bxhi	lr
    90e4:	e92d4010 	push	{r4, lr}
    90e8:	e3a01001 	mov	r1, #1
    90ec:	e1a01011 	lsl	r1, r1, r0
    90f0:	e59f0004 	ldr	r0, [pc, #4]	; 90fc <gpio_set_on+0x20>
    90f4:	ebffff6b 	bl	8ea8 <PUT32>
    90f8:	e8bd8010 	pop	{r4, pc}
    90fc:	2020001c 	eorcs	r0, r0, ip, lsl r0

00009100 <gpio_set_off>:
    9100:	e350001f 	cmp	r0, #31
    9104:	812fff1e 	bxhi	lr
    9108:	e92d4010 	push	{r4, lr}
    910c:	e3a01001 	mov	r1, #1
    9110:	e1a01011 	lsl	r1, r1, r0
    9114:	e59f0004 	ldr	r0, [pc, #4]	; 9120 <gpio_set_off+0x20>
    9118:	ebffff62 	bl	8ea8 <PUT32>
    911c:	e8bd8010 	pop	{r4, pc}
    9120:	20200028 	eorcs	r0, r0, r8, lsr #32

00009124 <gpio_set_input>:
    9124:	e92d4010 	push	{r4, lr}
    9128:	e3a01000 	mov	r1, #0
    912c:	ebffffcc 	bl	9064 <gpio_set_function>
    9130:	e8bd8010 	pop	{r4, pc}

00009134 <gpio_write>:
    9134:	e92d4010 	push	{r4, lr}
    9138:	e3510000 	cmp	r1, #0
    913c:	1a000001 	bne	9148 <gpio_write+0x14>
    9140:	ebffffee 	bl	9100 <gpio_set_off>
    9144:	e8bd8010 	pop	{r4, pc}
    9148:	ebffffe3 	bl	90dc <gpio_set_on>
    914c:	e8bd8010 	pop	{r4, pc}

00009150 <gpio_read>:
    9150:	e350001f 	cmp	r0, #31
    9154:	8a000007 	bhi	9178 <gpio_read+0x28>
    9158:	e92d4010 	push	{r4, lr}
    915c:	e200401f 	and	r4, r0, #31
    9160:	e59f3018 	ldr	r3, [pc, #24]	; 9180 <gpio_read+0x30>
    9164:	e08302a0 	add	r0, r3, r0, lsr #5
    9168:	ebffff5a 	bl	8ed8 <GET32>
    916c:	e1a00430 	lsr	r0, r0, r4
    9170:	e2000001 	and	r0, r0, #1
    9174:	e8bd8010 	pop	{r4, pc}
    9178:	e3e00000 	mvn	r0, #0
    917c:	e12fff1e 	bx	lr
    9180:	20200034 	eorcs	r0, r0, r4, lsr r0

00009184 <__code_end__>:
    9184:	00000000 	andeq	r0, r0, r0

Disassembly of section .data:

00009188 <__data_start__>:
    9188:	000085a8 	andeq	r8, r0, r8, lsr #11

0000918c <putk>:
    918c:	000085e4 	andeq	r8, r0, r4, ror #11

Disassembly of section .rodata:

00009190 <__FUNCTION__.4309-0xf8>:
    9190:	66657270 			; <UNDEFINED> instruction: 0x66657270
    9194:	68637465 	stmdavs	r3!, {r0, r2, r5, r6, sl, ip, sp, lr}^
    9198:	6f626120 	svcvs	0x00626120
    919c:	61207472 	teqvs	r0, r2, ror r4
    91a0:	70252074 	eorvc	r2, r5, r4, ror r0
    91a4:	0000000a 	andeq	r0, r0, sl
    91a8:	494e4150 	stmdbmi	lr, {r4, r6, r8, lr}^
    91ac:	73253a43 	teqvc	r5, #274432	; 0x43000
    91b0:	3a73253a 	bcc	1cd26a0 <__bss_end__+0x1cc8c28>
    91b4:	693a6425 	ldmdbvs	sl!, {r0, r2, r5, sl, sp, lr}
    91b8:	736f706d 	cmnvc	pc, #109	; 0x6d
    91bc:	6c626973 	stclvs	9, cr6, [r2], #-460	; 0xfffffe34
    91c0:	73203a65 	teqvc	r0, #413696	; 0x65000
    91c4:	6c756f68 	ldclvs	15, cr6, [r5], #-416	; 0xfffffe60
    91c8:	65672064 	strbvs	r2, [r7, #-100]!	; 0x64
    91cc:	6f6e2074 	svcvs	0x006e2074
    91d0:	68746f20 	ldmdavs	r4!, {r5, r8, r9, sl, fp, sp, lr}^
    91d4:	66207265 	strtvs	r7, [r0], -r5, ror #4
    91d8:	746c7561 	strbtvc	r7, [ip], #-1377	; 0x561
    91dc:	000a0a73 	andeq	r0, sl, r3, ror sl
    91e0:	74736574 	ldrbtvc	r6, [r3], #-1396	; 0x574
    91e4:	65742f73 	ldrbvs	r2, [r4, #-3955]!	; 0xf73
    91e8:	2e347473 	mrccs	4, 1, r7, cr4, cr3, {3}
    91ec:	00000063 	andeq	r0, r0, r3, rrx
    91f0:	61206370 	teqvs	r0, r0, ror r3
    91f4:	70252074 	eorvc	r2, r5, r4, ror r0
    91f8:	0000000a 	andeq	r0, r0, sl
    91fc:	494e4150 	stmdbmi	lr, {r4, r6, r8, lr}^
    9200:	73253a43 	teqvc	r5, #274432	; 0x43000
    9204:	3a73253a 	bcc	1cd26f4 <__bss_end__+0x1cc8c7c>
    9208:	253a6425 	ldrcs	r6, [sl, #-1061]!	; 0x425
    920c:	00000a73 	andeq	r0, r0, r3, ror sl
    9210:	3d206370 	stccc	3, cr6, [r0, #-448]!	; 0xfffffe40
    9214:	0030203d 	eorseq	r2, r0, sp, lsr r0
    9218:	63637573 	cmnvs	r3, #482344960	; 0x1cc00000
    921c:	21737365 	cmncs	r3, r5, ror #6
    9220:	0000000a 	andeq	r0, r0, sl
    9224:	20746573 	rsbscs	r6, r4, r3, ror r5
    9228:	61657262 	cmnvs	r5, r2, ror #4
    922c:	696f706b 	stmdbvs	pc!, {r0, r1, r3, r5, r6, ip, sp, lr}^	; <UNPREDICTABLE>
    9230:	6620746e 	strtvs	r7, [r0], -lr, ror #8
    9234:	6120726f 	teqvs	r0, pc, ror #4
    9238:	20726464 	rsbscs	r6, r2, r4, ror #8
    923c:	000a7025 	andeq	r7, sl, r5, lsr #32
    9240:	756f6873 	strbvc	r6, [pc, #-2163]!	; 89d5 <va_printk+0x119>
    9244:	7320646c 	teqvc	r0, #108, 8	; 0x6c000000
    9248:	61206565 	teqvs	r0, r5, ror #10
    924c:	65726220 	ldrbvs	r6, [r2, #-544]!	; 0x220
    9250:	6f706b61 	svcvs	0x00706b61
    9254:	20746e69 	rsbscs	r6, r4, r9, ror #28
    9258:	6c756166 	ldfvse	f6, [r5], #-408	; 0xfffffe68
    925c:	74612074 	strbtvc	r2, [r1], #-116	; 0x74
    9260:	21702520 	cmncs	r0, r0, lsr #10
    9264:	0000000a 	andeq	r0, r0, sl
    9268:	494e4150 	stmdbmi	lr, {r4, r6, r8, lr}^
    926c:	73253a43 	teqvc	r5, #274432	; 0x43000
    9270:	3a73253a 	bcc	1cd2760 <__bss_end__+0x1cc8ce8>
    9274:	743a6425 	ldrtvc	r6, [sl], #-1061	; 0x425
    9278:	20747365 	rsbscs	r7, r4, r5, ror #6
    927c:	6c696166 	stfvse	f6, [r9], #-408	; 0xfffffe68
    9280:	0a216465 	beq	86241c <__bss_end__+0x8589a4>
    9284:	0000000a 	andeq	r0, r0, sl

00009288 <__FUNCTION__.4309>:
    9288:	6d746f6e 	ldclvs	15, cr6, [r4, #-440]!	; 0xfffffe48
    928c:	006e6961 	rsbeq	r6, lr, r1, ror #18

00009290 <__FUNCTION__.4304>:
    9290:	646e6168 	strbtvs	r6, [lr], #-360	; 0x168
    9294:	0072656c 	rsbseq	r6, r2, ip, ror #10
    9298:	34317063 	ldrtcc	r7, [r1], #-99	; 0x63
    929c:	6265642d 	rsbvs	r6, r5, #754974720	; 0x2d000000
    92a0:	632e6775 	teqvs	lr, #30670848	; 0x1d40000
    92a4:	00000000 	andeq	r0, r0, r0
    92a8:	30726377 	rsbscc	r6, r2, r7, ror r3
    92ac:	6765725f 			; <UNDEFINED> instruction: 0x6765725f
    92b0:	203d3d20 	eorscs	r3, sp, r0, lsr #26
    92b4:	30726377 	rsbscc	r6, r2, r7, ror r3
    92b8:	7465675f 	strbtvc	r6, [r5], #-1887	; 0x75f
    92bc:	00002928 	andeq	r2, r0, r8, lsr #18
    92c0:	7561666e 	strbvc	r6, [r1, #-1646]!	; 0x66e
    92c4:	253d746c 	ldrcs	r7, [sp, #-1132]!	; 0x46c
    92c8:	64203a64 	strtvs	r3, [r0], #-2660	; 0xa64
    92cc:	20617461 	rsbcs	r7, r1, r1, ror #8
    92d0:	726f6261 	rsbvc	r6, pc, #268435462	; 0x10000006
    92d4:	74612074 	strbtvc	r2, [r1], #-116	; 0x74
    92d8:	0a702520 	beq	1c12760 <__bss_end__+0x1c08ce8>
    92dc:	00000000 	andeq	r0, r0, r0
    92e0:	20736177 	rsbscs	r6, r3, r7, ror r1
    92e4:	6d6f7266 	sfmvs	f7, 2, [pc, #-408]!	; 9154 <gpio_read+0x4>
    92e8:	6c206120 	stfvss	f6, [r0], #-128	; 0xffffff80
    92ec:	0a64616f 	beq	19218b0 <__bss_end__+0x1917e38>
    92f0:	00000000 	andeq	r0, r0, r0
    92f4:	20736177 	rsbscs	r6, r3, r7, ror r1
    92f8:	6d6f7266 	sfmvs	f7, 2, [pc, #-408]!	; 9168 <gpio_read+0x18>
    92fc:	73206120 	teqvc	r0, #32, 2
    9300:	65726f74 	ldrbvs	r6, [r2, #-3956]!	; 0xf74
    9304:	0000000a 	andeq	r0, r0, sl
    9308:	494e4150 	stmdbmi	lr, {r4, r6, r8, lr}^
    930c:	73253a43 	teqvc	r5, #274432	; 0x43000
    9310:	3a73253a 	bcc	1cd2800 <__bss_end__+0x1cc8d88>
    9314:	693a6425 	ldmdbvs	sl!, {r0, r2, r5, sl, sp, lr}
    9318:	736f706d 	cmnvc	pc, #109	; 0x6d
    931c:	6c626973 	stclvs	9, cr6, [r2], #-460	; 0xfffffe34
    9320:	73203a65 	teqvc	r0, #413696	; 0x65000
    9324:	6c756f68 	ldclvs	15, cr6, [r5], #-416	; 0xfffffe60
    9328:	6e6f2064 	cdpvs	0, 6, cr2, cr15, cr4, {3}
    932c:	6720796c 	strvs	r7, [r0, -ip, ror #18]!
    9330:	64207465 	strtvs	r7, [r0], #-1125	; 0x465
    9334:	66617461 	strbtvs	r7, [r1], -r1, ror #8
    9338:	746c7561 	strbtvc	r7, [ip], #-1377	; 0x561
    933c:	000a0a73 	andeq	r0, sl, r3, ror sl
    9340:	34317063 	ldrtcc	r7, [r1], #-99	; 0x63
    9344:	6265642d 	rsbvs	r6, r5, #754974720	; 0x2d000000
    9348:	682e6775 	stmdavs	lr!, {r0, r2, r4, r5, r6, r8, r9, sl, sp, lr}
    934c:	00000000 	andeq	r0, r0, r0
    9350:	72616677 	rsbvc	r6, r1, #124780544	; 0x7700000
    9354:	64646120 	strbtvs	r6, [r4], #-288	; 0x120
    9358:	73736572 	cmnvc	r3, #478150656	; 0x1c800000
    935c:	25203d20 	strcs	r3, [r0, #-3360]!	; 0xd20
    9360:	70202c70 	eorvc	r2, r0, r0, ror ip
    9364:	203d2063 	eorscs	r2, sp, r3, rrx
    9368:	000a7025 	andeq	r7, sl, r5, lsr #32
    936c:	72616677 	rsbvc	r6, r1, #124780544	; 0x7700000
    9370:	7465675f 	strbtvc	r6, [r5], #-1887	; 0x75f
    9374:	342d2928 	strtcc	r2, [sp], #-2344	; 0x928
    9378:	203d3d20 	eorscs	r3, sp, r0, lsr #26
    937c:	00006370 	andeq	r6, r0, r0, ror r3
    9380:	63746177 	cmnvs	r4, #-1073741795	; 0xc000001d
    9384:	5f747068 	svcpl	0x00747068
    9388:	646e6168 	strbtvs	r6, [lr], #-360	; 0x168
    938c:	3072656c 	rsbscc	r6, r2, ip, ror #10
    9390:	00000000 	andeq	r0, r0, r0
    9394:	20726166 	rsbscs	r6, r2, r6, ror #2
    9398:	72646461 	rsbvc	r6, r4, #1627389952	; 0x61000000
    939c:	20737365 	rsbscs	r7, r3, r5, ror #6
    93a0:	7025203d 	eorvc	r2, r5, sp, lsr r0
    93a4:	0000000a 	andeq	r0, r0, sl
    93a8:	706b7262 	rsbvc	r7, fp, r2, ror #4
    93ac:	61685f74 	smcvs	34292	; 0x85f4
    93b0:	656c646e 	strbvs	r6, [ip, #-1134]!	; 0x46e
    93b4:	00003072 	andeq	r3, r0, r2, ror r0
    93b8:	65746641 	ldrbvs	r6, [r4, #-1601]!	; 0x641
    93bc:	73612072 	cmnvc	r1, #114	; 0x72
    93c0:	74726573 	ldrbtvc	r6, [r2], #-1395	; 0x573
    93c4:	0000000a 	andeq	r0, r0, sl

000093c8 <__FUNCTION__.4367>:
    93c8:	63746177 	cmnvs	r4, #-1073741795	; 0xc000001d
    93cc:	5f747068 	svcpl	0x00747068
    93d0:	30746573 	rsbscc	r6, r4, r3, ror r5
    93d4:	00000000 	andeq	r0, r0, r0

000093d8 <__FUNCTION__.4373>:
    93d8:	61746164 	cmnvs	r4, r4, ror #2
    93dc:	6f62615f 	svcvs	0x0062615f
    93e0:	765f7472 			; <UNDEFINED> instruction: 0x765f7472
    93e4:	6f746365 	svcvs	0x00746365
    93e8:	00000072 	andeq	r0, r0, r2, ror r0

000093ec <__FUNCTION__.4306>:
    93ec:	5f736177 	svcpl	0x00736177
    93f0:	75626564 	strbvc	r6, [r2, #-1380]!	; 0x564
    93f4:	61645f67 	cmnvs	r4, r7, ror #30
    93f8:	61666174 	smcvs	26132	; 0x6614
    93fc:	00746c75 	rsbseq	r6, r4, r5, ror ip

00009400 <__FUNCTION__.4417>:
    9400:	66657270 			; <UNDEFINED> instruction: 0x66657270
    9404:	68637465 	stmdavs	r3!, {r0, r2, r5, r6, sl, ip, sp, lr}^
    9408:	6f62615f 	svcvs	0x0062615f
    940c:	765f7472 			; <UNDEFINED> instruction: 0x765f7472
    9410:	6f746365 	svcvs	0x00746365
    9414:	00000072 	andeq	r0, r0, r2, ror r0

00009418 <__FUNCTION__.4249>:
    9418:	74696d65 	strbtvc	r6, [r9], #-3429	; 0xd65
    941c:	00000000 	andeq	r0, r0, r0

00009420 <__FUNCTION__.4197>:
    9420:	5f697072 	svcpl	0x00697072
    9424:	5f746573 	svcpl	0x00746573
    9428:	7074756f 	rsbsvc	r7, r4, pc, ror #10
    942c:	00007475 	andeq	r7, r0, r5, ror r4

00009430 <__FUNCTION__.4272>:
    9430:	705f6176 	subsvc	r6, pc, r6, ror r1	; <UNPREDICTABLE>
    9434:	746e6972 	strbtvc	r6, [lr], #-2418	; 0x972
    9438:	0000006b 	andeq	r0, r0, fp, rrx
    943c:	6362696c 	cmnvs	r2, #108, 18	; 0x1b0000
    9440:	2d61762f 	stclcs	6, cr7, [r1, #-188]!	; 0xffffff44
    9444:	6e697270 	mcrvs	2, 3, r7, cr9, cr0, {3}
    9448:	632e6b74 	teqvs	lr, #116, 22	; 0x1d000
    944c:	00000000 	andeq	r0, r0, r0
    9450:	00000030 	andeq	r0, r0, r0, lsr r0
    9454:	33323130 	teqcc	r2, #48, 2
    9458:	37363534 			; <UNDEFINED> instruction: 0x37363534
    945c:	00003938 	andeq	r3, r0, r8, lsr r9
    9460:	33323130 	teqcc	r2, #48, 2
    9464:	37363534 			; <UNDEFINED> instruction: 0x37363534
    9468:	62613938 	rsbvs	r3, r1, #56, 18	; 0xe0000
    946c:	66656463 	strbtvs	r6, [r5], -r3, ror #8
    9470:	00000000 	andeq	r0, r0, r0
    9474:	00003130 	andeq	r3, r0, r0, lsr r1
    9478:	63747570 	cmnvs	r4, #112, 10	; 0x1c000000
    947c:	0070665f 	rsbseq	r6, r0, pc, asr r6
    9480:	74646977 	strbtvc	r6, [r4], #-2423	; 0x977
    9484:	203c2068 	eorscs	r2, ip, r8, rrx
    9488:	00003233 	andeq	r3, r0, r3, lsr r2
    948c:	494e4150 	stmdbmi	lr, {r4, r6, r8, lr}^
    9490:	73253a43 	teqvc	r5, #274432	; 0x43000
    9494:	3a73253a 	bcc	1cd2984 <__bss_end__+0x1cc8f0c>
    9498:	663a6425 	ldrtvs	r6, [sl], -r5, lsr #8
    949c:	74616f6c 	strbtvc	r6, [r1], #-3948	; 0xf6c
    94a0:	746f6e20 	strbtvc	r6, [pc], #-3616	; 94a8 <__FUNCTION__.4272+0x78>
    94a4:	616e6520 	cmnvs	lr, r0, lsr #10
    94a8:	64656c62 	strbtvs	r6, [r5], #-3170	; 0xc62
    94ac:	0a212121 	beq	851938 <__bss_end__+0x847ec0>
    94b0:	00000000 	andeq	r0, r0, r0
    94b4:	6e697270 	mcrvs	2, 3, r7, cr9, cr0, {3}
    94b8:	203a6b74 	eorscs	r6, sl, r4, ror fp
    94bc:	20746f6e 	rsbscs	r6, r4, lr, ror #30
    94c0:	646e6168 	strbtvs	r6, [lr], #-360	; 0x168
    94c4:	676e696c 	strbvs	r6, [lr, -ip, ror #18]!
    94c8:	65707320 	ldrbvs	r7, [r0, #-800]!	; 0x320
    94cc:	69666963 	stmdbvs	r6!, {r0, r1, r5, r6, r8, fp, sp, lr}^
    94d0:	27207265 	strcs	r7, [r0, -r5, ror #4]!
    94d4:	20276325 	eorcs	r6, r7, r5, lsr #6
    94d8:	63736128 	cmnvs	r3, #40, 2
    94dc:	253d6969 	ldrcs	r6, [sp, #-2409]!	; 0x969
    94e0:	000a2964 	andeq	r2, sl, r4, ror #18
    94e4:	494e4150 	stmdbmi	lr, {r4, r6, r8, lr}^
    94e8:	73253a43 	teqvc	r5, #274432	; 0x43000
    94ec:	3a73253a 	bcc	1cd29dc <__bss_end__+0x1cc8f64>
    94f0:	703a6425 	eorsvc	r6, sl, r5, lsr #8
    94f4:	746e6972 	strbtvc	r6, [lr], #-2418	; 0x972
    94f8:	7265206b 	rsbvc	r2, r5, #107	; 0x6b
    94fc:	0a726f72 	beq	1ca52cc <__bss_end__+0x1c9b854>
    9500:	0000000a 	andeq	r0, r0, sl
    9504:	454e4f44 	strbmi	r4, [lr, #-3908]	; 0xf44
    9508:	0a212121 	beq	851994 <__bss_end__+0x847f1c>
    950c:	00000000 	andeq	r0, r0, r0

00009510 <__FUNCTION__.4220>:
    9510:	74736166 	ldrbtvc	r6, [r3], #-358	; 0x166
    9514:	746e695f 	strbtvc	r6, [lr], #-2399	; 0x95f
    9518:	75727265 	ldrbvc	r7, [r2, #-613]!	; 0x265
    951c:	765f7470 			; <UNDEFINED> instruction: 0x765f7470
    9520:	6f746365 	svcvs	0x00746365
    9524:	00000072 	andeq	r0, r0, r2, ror r0
    9528:	494e4150 	stmdbmi	lr, {r4, r6, r8, lr}^
    952c:	73253a43 	teqvc	r5, #274432	; 0x43000
    9530:	3a73253a 	bcc	1cd2a20 <__bss_end__+0x1cc8fa8>
    9534:	453a6425 	ldrmi	r6, [sl, #-1061]!	; 0x425
    9538:	524f5252 	subpl	r5, pc, #536870917	; 0x20000005
    953c:	6e75203a 	mrcvs	0, 3, r2, cr5, cr10, {1}
    9540:	646e6168 	strbtvs	r6, [lr], #-360	; 0x168
    9544:	2064656c 	rsbcs	r6, r4, ip, ror #10
    9548:	65637865 	strbvs	r7, [r3, #-2149]!	; 0x865
    954c:	6f697470 	svcvs	0x00697470
    9550:	253c206e 	ldrcs	r2, [ip, #-110]!	; 0x6e
    9554:	61203e73 	teqvs	r0, r3, ror lr
    9558:	43502074 	cmpmi	r0, #116	; 0x74
    955c:	0a78253d 	beq	1e12a58 <__bss_end__+0x1e08fe0>
    9560:	0000000a 	andeq	r0, r0, sl
    9564:	66617473 			; <UNDEFINED> instruction: 0x66617473
    9568:	72732d66 	rsbsvc	r2, r3, #6528	; 0x1980
    956c:	65642f63 	strbvs	r2, [r4, #-3939]!	; 0xf63
    9570:	6c756166 	ldfvse	f6, [r5], #-408	; 0xfffffe68
    9574:	61682d74 	smcvs	33492	; 0x82d4
    9578:	656c646e 	strbvs	r6, [ip, #-1134]!	; 0x46e
    957c:	61662d72 	smcvs	25298	; 0x62d2
    9580:	632e7473 	teqvs	lr, #1929379840	; 0x73000000
    9584:	00000000 	andeq	r0, r0, r0
    9588:	74736166 	ldrbtvc	r6, [r3], #-358	; 0x166
    958c:	00000000 	andeq	r0, r0, r0

00009590 <__FUNCTION__.4220>:
    9590:	65736572 	ldrbvs	r6, [r3, #-1394]!	; 0x572
    9594:	65765f74 	ldrbvs	r5, [r6, #-3956]!	; 0xf74
    9598:	726f7463 	rsbvc	r7, pc, #1660944384	; 0x63000000
    959c:	00000000 	andeq	r0, r0, r0
    95a0:	66617473 			; <UNDEFINED> instruction: 0x66617473
    95a4:	72732d66 	rsbsvc	r2, r3, #6528	; 0x1980
    95a8:	65642f63 	strbvs	r2, [r4, #-3939]!	; 0xf63
    95ac:	6c756166 	ldfvse	f6, [r5], #-408	; 0xfffffe68
    95b0:	61682d74 	smcvs	33492	; 0x82d4
    95b4:	656c646e 	strbvs	r6, [ip, #-1134]!	; 0x46e
    95b8:	65722d72 	ldrbvs	r2, [r2, #-3442]!	; 0xd72
    95bc:	2e746573 	mrccs	5, 3, r6, cr4, cr3, {3}
    95c0:	00000063 	andeq	r0, r0, r3, rrx
    95c4:	65736572 	ldrbvs	r6, [r3, #-1394]!	; 0x572
    95c8:	00000074 	andeq	r0, r0, r4, ror r0

000095cc <__FUNCTION__.4220>:
    95cc:	74666f73 	strbtvc	r6, [r6], #-3955	; 0xf73
    95d0:	65726177 	ldrbvs	r6, [r2, #-375]!	; 0x177
    95d4:	746e695f 	strbtvc	r6, [lr], #-2399	; 0x95f
    95d8:	75727265 	ldrbvc	r7, [r2, #-613]!	; 0x265
    95dc:	765f7470 			; <UNDEFINED> instruction: 0x765f7470
    95e0:	6f746365 	svcvs	0x00746365
    95e4:	00000072 	andeq	r0, r0, r2, ror r0
    95e8:	66617473 			; <UNDEFINED> instruction: 0x66617473
    95ec:	72732d66 	rsbsvc	r2, r3, #6528	; 0x1980
    95f0:	65642f63 	strbvs	r2, [r4, #-3939]!	; 0xf63
    95f4:	6c756166 	ldfvse	f6, [r5], #-408	; 0xfffffe68
    95f8:	61682d74 	smcvs	33492	; 0x82d4
    95fc:	656c646e 	strbvs	r6, [ip, #-1134]!	; 0x46e
    9600:	77732d72 			; <UNDEFINED> instruction: 0x77732d72
    9604:	00632e69 	rsbeq	r2, r3, r9, ror #28
    9608:	00697773 	rsbeq	r7, r9, r3, ror r7

0000960c <__FUNCTION__.4220>:
    960c:	65646e75 	strbvs	r6, [r4, #-3701]!	; 0xe75
    9610:	656e6966 	strbvs	r6, [lr, #-2406]!	; 0x966
    9614:	6e695f64 	cdpvs	15, 6, cr5, cr9, cr4, {3}
    9618:	75727473 	ldrbvc	r7, [r2, #-1139]!	; 0x473
    961c:	6f697463 	svcvs	0x00697463
    9620:	65765f6e 	ldrbvs	r5, [r6, #-3950]!	; 0xf6e
    9624:	726f7463 	rsbvc	r7, pc, #1660944384	; 0x63000000
    9628:	00000000 	andeq	r0, r0, r0
    962c:	66617473 			; <UNDEFINED> instruction: 0x66617473
    9630:	72732d66 	rsbsvc	r2, r3, #6528	; 0x1980
    9634:	65642f63 	strbvs	r2, [r4, #-3939]!	; 0xf63
    9638:	6c756166 	ldfvse	f6, [r5], #-408	; 0xfffffe68
    963c:	61682d74 	smcvs	33492	; 0x82d4
    9640:	656c646e 	strbvs	r6, [ip, #-1134]!	; 0x46e
    9644:	6e752d72 	mrcvs	13, 3, r2, cr5, cr2, {3}
    9648:	69666564 	stmdbvs	r6!, {r2, r5, r6, r8, sl, sp, lr}^
    964c:	2d64656e 	cfstr64cs	mvdx6, [r4, #-440]!	; 0xfffffe48
    9650:	74736e69 	ldrbtvc	r6, [r3], #-3689	; 0xe69
    9654:	0000632e 	andeq	r6, r0, lr, lsr #6
    9658:	65646e75 	strbvs	r6, [r4, #-3701]!	; 0xe75
    965c:	656e6966 	strbvs	r6, [lr, #-2406]!	; 0x966
    9660:	6e692064 	cdpvs	0, 6, cr2, cr9, cr4, {3}
    9664:	00007473 	andeq	r7, r0, r3, ror r4

Disassembly of section .bss:

00009668 <__bss_start__>:
    9668:	00000000 	andeq	r0, r0, r0

0000966c <brkpt_handler0>:
    966c:	00000000 	andeq	r0, r0, r0

00009670 <nfaults.4372>:
    9670:	00000000 	andeq	r0, r0, r0

00009674 <init_p.4378>:
    9674:	00000000 	andeq	r0, r0, r0

00009678 <buf.4189>:
	...

Disassembly of section .ARM.attributes:

00000000 <.ARM.attributes>:
   0:	00002a41 	andeq	r2, r0, r1, asr #20
   4:	61656100 	cmnvs	r5, r0, lsl #2
   8:	01006962 	tsteq	r0, r2, ror #18
   c:	00000020 	andeq	r0, r0, r0, lsr #32
  10:	4b5a3605 	blmi	168d82c <__bss_end__+0x1683db4>
  14:	08070600 	stmdaeq	r7, {r9, sl}
  18:	12010901 	andne	r0, r1, #16384	; 0x4000
  1c:	15011404 	strne	r1, [r1, #-1028]	; 0x404
  20:	18031701 	stmdane	r3, {r0, r8, r9, sl, ip}
  24:	22011a01 	andcs	r1, r1, #4096	; 0x1000
  28:	Address 0x0000000000000028 is out of bounds.


Disassembly of section .comment:

00000000 <.comment>:
   0:	3a434347 	bcc	10d0d24 <__bss_end__+0x10c72ac>
   4:	4e472820 	cdpmi	8, 4, cr2, cr7, cr0, {1}
   8:	34202955 	strtcc	r2, [r0], #-2389	; 0x955
   c:	332e382e 	teqcc	lr, #3014656	; 0x2e0000
  10:	43434700 	movtmi	r4, #14080	; 0x3700
  14:	3128203a 	teqcc	r8, sl, lsr r0
  18:	2e363a35 	mrccs	10, 1, r3, cr6, cr5, {1}
  1c:	2b312e33 	blcs	c4b8f0 <__bss_end__+0xc41e78>
  20:	326e7673 	rsbcc	r7, lr, #120586240	; 0x7300000
  24:	33303335 	teqcc	r0, #-738197504	; 0xd4000000
  28:	62312d39 	eorsvs	r2, r1, #3648	; 0xe40
  2c:	646c6975 	strbtvs	r6, [ip], #-2421	; 0x975
  30:	36202931 			; <UNDEFINED> instruction: 0x36202931
  34:	312e332e 	teqcc	lr, lr, lsr #6
  38:	31303220 	teqcc	r0, r0, lsr #4
  3c:	32363037 	eorscc	r3, r6, #55	; 0x37
  40:	Address 0x0000000000000040 is out of bounds.


Disassembly of section .debug_info:

00000000 <.debug_info>:
       0:	000003b0 			; <UNDEFINED> instruction: 0x000003b0
       4:	00000004 	andeq	r0, r0, r4
       8:	01040000 	mrseq	r0, (UNDEF: 4)
       c:	000000b8 	strheq	r0, [r0], -r8
      10:	00019a01 	andeq	r9, r1, r1, lsl #20
      14:	00000000 	andeq	r0, r0, r0
      18:	00801000 	addeq	r1, r0, r0
      1c:	00010c00 	andeq	r0, r1, r0, lsl #24
      20:	00000000 	andeq	r0, r0, r0
      24:	05040200 	streq	r0, [r4, #-512]	; 0x200
      28:	00746e69 	rsbseq	r6, r4, r9, ror #28
      2c:	2f070403 	svccs	0x00070403
      30:	03000001 	movweq	r0, #1
      34:	00620601 	rsbeq	r0, r2, r1, lsl #12
      38:	02030000 	andeq	r0, r3, #0
      3c:	00015805 	andeq	r5, r1, r5, lsl #16
      40:	05040300 	streq	r0, [r4, #-768]	; 0x300
      44:	0000014a 	andeq	r0, r0, sl, asr #2
      48:	45050803 	strmi	r0, [r5, #-2051]	; 0x803
      4c:	03000001 	movweq	r0, #1
      50:	00600801 	rsbeq	r0, r0, r1, lsl #16
      54:	02030000 	andeq	r0, r3, #0
      58:	00007b07 	andeq	r7, r0, r7, lsl #22
      5c:	00970400 	addseq	r0, r7, r0, lsl #8
      60:	34030000 	strcc	r0, [r3], #-0
      64:	00000068 	andeq	r0, r0, r8, rrx
      68:	2a070403 	bcs	1c107c <__bss_end__+0x1b7604>
      6c:	03000001 	movweq	r0, #1
      70:	01250708 	teqeq	r5, r8, lsl #14
      74:	04030000 	streq	r0, [r3], #-0
      78:	00013c07 	andeq	r3, r1, r7, lsl #24
      7c:	08010300 	stmdaeq	r1, {r8, r9}
      80:	00000069 	andeq	r0, r0, r9, rrx
      84:	008a0405 	addeq	r0, sl, r5, lsl #8
      88:	7d060000 	stcvc	0, cr0, [r6, #-0]
      8c:	07000000 	streq	r0, [r0, -r0]
      90:	0000007d 	andeq	r0, r0, sp, ror r0
      94:	0000009f 	muleq	r0, pc, r0	; <UNPREDICTABLE>
      98:	00007608 	andeq	r7, r0, r8, lsl #12
      9c:	04000700 	streq	r0, [r0], #-1792	; 0x700
      a0:	000001a8 	andeq	r0, r0, r8, lsr #3
      a4:	00aa8a02 	adceq	r8, sl, r2, lsl #20
      a8:	04050000 	streq	r0, [r5], #-0
      ac:	000000b0 	strheq	r0, [r0], -r0	; <UNPREDICTABLE>
      b0:	0000c509 	andeq	ip, r0, r9, lsl #10
      b4:	00c50a00 	sbceq	r0, r5, r0, lsl #20
      b8:	5d0a0000 	stcpl	0, cr0, [sl, #-0]
      bc:	0a000000 	beq	c4 <__code_start__-0x7f3c>
      c0:	0000005d 	andeq	r0, r0, sp, asr r0
      c4:	5d040500 	cfstr32pl	mvfx0, [r4, #-0]
      c8:	0b000000 	bleq	d0 <__code_start__-0x7f30>
      cc:	00000162 	andeq	r0, r0, r2, ror #2
      d0:	005da602 	subseq	sl, sp, r2, lsl #12
      d4:	e7030000 	str	r0, [r3, -r0]
      d8:	0c000000 	stceq	0, cr0, [r0], {-0}
      dc:	00746572 	rsbseq	r6, r4, r2, ror r5
      e0:	005da602 	subseq	sl, sp, r2, lsl #12
      e4:	0b000000 	bleq	ec <__code_start__-0x7f14>
      e8:	0000016b 	andeq	r0, r0, fp, ror #2
      ec:	002ca902 	eoreq	sl, ip, r2, lsl #18
      f0:	01030000 	mrseq	r0, (UNDEF: 3)
      f4:	0c000001 	stceq	0, cr0, [r0], {1}
      f8:	aa020072 	bge	802c8 <__bss_end__+0x76850>
      fc:	0000002c 	andeq	r0, r0, ip, lsr #32
     100:	04ad0d00 	strteq	r0, [sp], #3328	; 0xd00
     104:	06010000 	streq	r0, [r1], -r0
     108:	00008010 	andeq	r8, r0, r0, lsl r0
     10c:	000000a4 	andeq	r0, r0, r4, lsr #1
     110:	027c9c01 	rsbseq	r9, ip, #256	; 0x100
     114:	530e0000 	movwpl	r0, #57344	; 0xe000
     118:	01000001 	tsteq	r0, r1
     11c:	0000c506 	andeq	ip, r0, r6, lsl #10
     120:	00000000 	andeq	r0, r0, r0
     124:	63700f00 	cmnvs	r0, #0, 30
     128:	5d060100 	stfpls	f0, [r6, #-0]
     12c:	21000000 	mrscs	r0, (UNDEF: 0)
     130:	0e000000 	cdpeq	0, 0, cr0, cr0, cr0, {0}
     134:	00000241 	andeq	r0, r0, r1, asr #4
     138:	005d0601 	subseq	r0, sp, r1, lsl #12
     13c:	003f0000 	eorseq	r0, pc, r0
     140:	ab100000 	blge	400148 <__bss_end__+0x3f66d0>
     144:	7c000000 	stcvc	0, cr0, [r0], {-0}
     148:	05000002 	streq	r0, [r0, #-2]
     14c:	00929003 	addseq	r9, r2, r3
     150:	00e71100 	rsceq	r1, r7, r0, lsl #2
     154:	80240000 	eorhi	r0, r4, r0
     158:	00080000 	andeq	r0, r8, r0
     15c:	08010000 	stmdaeq	r1, {}	; <UNPREDICTABLE>
     160:	00000197 	muleq	r0, r7, r1
     164:	00802412 	addeq	r2, r0, r2, lsl r4
     168:	00000800 	andeq	r0, r0, r0, lsl #16
     16c:	00f71300 	rscseq	r1, r7, r0, lsl #6
     170:	cb140000 	blgt	500178 <__bss_end__+0x4f6700>
     174:	24000000 	strcs	r0, [r0], #-0
     178:	04000080 	streq	r0, [r0], #-128	; 0x80
     17c:	02000000 	andeq	r0, r0, #0
     180:	802412aa 	eorhi	r1, r4, sl, lsr #5
     184:	00040000 	andeq	r0, r4, r0
     188:	db150000 	blle	540190 <__bss_end__+0x536718>
     18c:	60000000 	andvs	r0, r0, r0
     190:	00000000 	andeq	r0, r0, r0
     194:	16000000 	strne	r0, [r0], -r0
     198:	00008024 	andeq	r8, r0, r4, lsr #32
     19c:	00000365 	andeq	r0, r0, r5, ror #6
     1a0:	000001b4 			; <UNDEFINED> instruction: 0x000001b4
     1a4:	02510117 	subseq	r0, r1, #-1073741819	; 0xc0000005
     1a8:	01170074 	tsteq	r7, r4, ror r0
     1ac:	90030550 	andls	r0, r3, r0, asr r5
     1b0:	00000091 	muleq	r0, r1, r0
     1b4:	00803818 	addeq	r3, r0, r8, lsl r8
     1b8:	00037b00 	andeq	r7, r3, r0, lsl #22
     1bc:	804c1600 	subhi	r1, ip, r0, lsl #12
     1c0:	03650000 	cmneq	r5, #0
     1c4:	01eb0000 	mvneq	r0, r0
     1c8:	01170000 	tsteq	r7, r0
     1cc:	17390153 			; <UNDEFINED> instruction: 0x17390153
     1d0:	03055201 	movweq	r5, #20993	; 0x5201
     1d4:	00009290 	muleq	r0, r0, r2
     1d8:	05510117 	ldrbeq	r0, [r1, #-279]	; 0x117
     1dc:	0091e003 	addseq	lr, r1, r3
     1e0:	50011700 	andpl	r1, r1, r0, lsl #14
     1e4:	91a80305 			; <UNDEFINED> instruction: 0x91a80305
     1e8:	18000000 	stmdane	r0, {}	; <UNPREDICTABLE>
     1ec:	00008050 	andeq	r8, r0, r0, asr r0
     1f0:	00000382 	andeq	r0, r0, r2, lsl #7
     1f4:	00805c16 	addeq	r5, r0, r6, lsl ip
     1f8:	00036500 	andeq	r6, r3, r0, lsl #10
     1fc:	00021100 	andeq	r1, r2, r0, lsl #2
     200:	51011700 	tstpl	r1, r0, lsl #14
     204:	17007402 	strne	r7, [r0, -r2, lsl #8]
     208:	03055001 	movweq	r5, #20481	; 0x5001
     20c:	000091f0 	strdeq	r9, [r0], -r0
     210:	80681800 	rsbhi	r1, r8, r0, lsl #16
     214:	037b0000 	cmneq	fp, #0
     218:	84160000 	ldrhi	r0, [r6], #-0
     21c:	65000080 	strvs	r0, [r0, #-128]	; 0x80
     220:	52000003 	andpl	r0, r0, #3
     224:	17000002 	strne	r0, [r0, -r2]
     228:	3b015301 	blcc	54e34 <__bss_end__+0x4b3bc>
     22c:	05520117 	ldrbeq	r0, [r2, #-279]	; 0x117
     230:	00929003 	addseq	r9, r2, r3
     234:	51011700 	tstpl	r1, r0, lsl #14
     238:	91e00305 	mvnls	r0, r5, lsl #6
     23c:	01170000 	tsteq	r7, r0
     240:	fc030550 	stc2	5, cr0, [r3], {80}	; 0x50
     244:	17000091 			; <UNDEFINED> instruction: 0x17000091
     248:	05007d02 	streq	r7, [r0, #-3330]	; 0xd02
     24c:	00921003 	addseq	r1, r2, r3
     250:	88180000 	ldmdahi	r8, {}	; <UNPREDICTABLE>
     254:	82000080 	andhi	r0, r0, #128	; 0x80
     258:	16000003 	strne	r0, [r0], -r3
     25c:	00008090 	muleq	r0, r0, r0
     260:	00000365 	andeq	r0, r0, r5, ror #6
     264:	00000272 	andeq	r0, r0, r2, ror r2
     268:	05500117 	ldrbeq	r0, [r0, #-279]	; 0x117
     26c:	00921803 	addseq	r1, r2, r3, lsl #16
     270:	94180000 	ldrls	r0, [r8], #-0
     274:	82000080 	andhi	r0, r0, #128	; 0x80
     278:	00000003 	andeq	r0, r0, r3
     27c:	00008f06 	andeq	r8, r0, r6, lsl #30
     280:	00581900 	subseq	r1, r8, r0, lsl #18
     284:	10010000 	andne	r0, r1, r0
     288:	000080b4 	strheq	r8, [r0], -r4
     28c:	00000068 	andeq	r0, r0, r8, rrx
     290:	03609c01 	cmneq	r0, #256	; 0x100
     294:	701a0000 	andsvc	r0, sl, r0
     298:	5d130100 	ldfpls	f0, [r3, #-0]
     29c:	00000000 	andeq	r0, r0, r0
     2a0:	0000ab10 	andeq	sl, r0, r0, lsl fp
     2a4:	00036000 	andeq	r6, r3, r0
     2a8:	88030500 	stmdahi	r3, {r8, sl}
     2ac:	18000092 	stmdane	r0, {r1, r4, r7}
     2b0:	000080bc 	strheq	r8, [r0], -ip
     2b4:	00000389 	andeq	r0, r0, r9, lsl #7
     2b8:	0080c816 	addeq	ip, r0, r6, lsl r8
     2bc:	00039000 	andeq	r9, r3, r0
     2c0:	0002d400 	andeq	sp, r2, r0, lsl #8
     2c4:	51011700 	tstpl	r1, r0, lsl #14
     2c8:	80100305 	andshi	r0, r0, r5, lsl #6
     2cc:	01170000 	tsteq	r7, r0
     2d0:	00300150 	eorseq	r0, r0, r0, asr r1
     2d4:	0080d416 	addeq	sp, r0, r6, lsl r4
     2d8:	00036500 	andeq	r6, r3, r0, lsl #10
     2dc:	0002f000 	andeq	pc, r2, r0
     2e0:	51011700 	tstpl	r1, r0, lsl #14
     2e4:	01173001 	tsteq	r7, r1
     2e8:	24030550 	strcs	r0, [r3], #-1360	; 0x550
     2ec:	00000092 	muleq	r0, r2, r0
     2f0:	0080e016 	addeq	lr, r0, r6, lsl r0
     2f4:	00036500 	andeq	r6, r3, r0, lsl #10
     2f8:	00030c00 	andeq	r0, r3, r0, lsl #24
     2fc:	51011700 	tstpl	r1, r0, lsl #14
     300:	01173001 	tsteq	r7, r1
     304:	40030550 	andmi	r0, r3, r0, asr r5
     308:	00000092 	muleq	r0, r2, r0
     30c:	0080e816 	addeq	lr, r0, r6, lsl r8
     310:	0003a600 	andeq	sl, r3, r0, lsl #12
     314:	00031f00 	andeq	r1, r3, r0, lsl #30
     318:	50011700 	andpl	r1, r1, r0, lsl #14
     31c:	18003001 	stmdane	r0, {r0, ip, sp}
     320:	000080ec 	andeq	r8, r0, ip, ror #1
     324:	0000037b 	andeq	r0, r0, fp, ror r3
     328:	00810016 	addeq	r0, r1, r6, lsl r0
     32c:	00036500 	andeq	r6, r3, r0, lsl #10
     330:	00035600 	andeq	r5, r3, r0, lsl #12
     334:	53011700 	movwpl	r1, #5888	; 0x1700
     338:	01174901 	tsteq	r7, r1, lsl #18
     33c:	88030552 	stmdahi	r3, {r1, r4, r6, r8, sl}
     340:	17000092 			; <UNDEFINED> instruction: 0x17000092
     344:	03055101 	movweq	r5, #20737	; 0x5101
     348:	000091e0 	andeq	r9, r0, r0, ror #3
     34c:	05500117 	ldrbeq	r0, [r0, #-279]	; 0x117
     350:	00926803 	addseq	r6, r2, r3, lsl #16
     354:	04180000 	ldreq	r0, [r8], #-0
     358:	82000081 	andhi	r0, r0, #129	; 0x81
     35c:	00000003 	andeq	r0, r0, r3
     360:	00008f06 	andeq	r8, r0, r6, lsl #30
     364:	03891b00 	orreq	r1, r9, #0, 22
     368:	29040000 	stmdbcs	r4, {}	; <UNPREDICTABLE>
     36c:	00000025 	andeq	r0, r0, r5, lsr #32
     370:	0000037b 	andeq	r0, r0, fp, ror r3
     374:	0000840a 	andeq	r8, r0, sl, lsl #8
     378:	1d001c00 	stcne	12, cr1, [r0, #-0]
     37c:	0000018b 	andeq	r0, r0, fp, lsl #3
     380:	6e1d1e04 	cdpvs	14, 1, cr1, cr13, cr4, {0}
     384:	04000000 	streq	r0, [r0], #-0
     388:	017f1d65 	cmneq	pc, r5, ror #26
     38c:	90020000 	andls	r0, r2, r0
     390:	0000a01e 	andeq	sl, r0, lr, lsl r0
     394:	a6af0200 	strtge	r0, [pc], r0, lsl #4
     398:	0a000003 	beq	3ac <__code_start__-0x7c54>
     39c:	0000005d 	andeq	r0, r0, sp, asr r0
     3a0:	00009f0a 	andeq	r9, r0, sl, lsl #30
     3a4:	8e1f0000 	cdphi	0, 1, cr0, cr15, cr0, {0}
     3a8:	04000000 	streq	r0, [r0], #-0
     3ac:	002c0aba 	strhteq	r0, [ip], -sl
     3b0:	00000000 	andeq	r0, r0, r0
     3b4:	00000abd 			; <UNDEFINED> instruction: 0x00000abd
     3b8:	01a10004 			; <UNDEFINED> instruction: 0x01a10004
     3bc:	01040000 	mrseq	r0, (UNDEF: 4)
     3c0:	000000b8 	strheq	r0, [r0], -r8
     3c4:	0002bf01 	andeq	fp, r2, r1, lsl #30
     3c8:	00000000 	andeq	r0, r0, r0
     3cc:	00811c00 	addeq	r1, r1, r0, lsl #24
     3d0:	00034400 	andeq	r4, r3, r0, lsl #8
     3d4:	00012800 	andeq	r2, r1, r0, lsl #16
     3d8:	05040200 	streq	r0, [r4, #-512]	; 0x200
     3dc:	00746e69 	rsbseq	r6, r4, r9, ror #28
     3e0:	2f070403 	svccs	0x00070403
     3e4:	03000001 	movweq	r0, #1
     3e8:	00620601 	rsbeq	r0, r2, r1, lsl #12
     3ec:	02030000 	andeq	r0, r3, #0
     3f0:	00015805 	andeq	r5, r1, r5, lsl #16
     3f4:	05040300 	streq	r0, [r4, #-768]	; 0x300
     3f8:	0000014a 	andeq	r0, r0, sl, asr #2
     3fc:	45050803 	strmi	r0, [r5, #-2051]	; 0x803
     400:	03000001 	movweq	r0, #1
     404:	00600801 	rsbeq	r0, r0, r1, lsl #16
     408:	02030000 	andeq	r0, r3, #0
     40c:	00007b07 	andeq	r7, r0, r7, lsl #22
     410:	00970400 	addseq	r0, r7, r0, lsl #8
     414:	34030000 	strcc	r0, [r3], #-0
     418:	00000068 	andeq	r0, r0, r8, rrx
     41c:	2a070403 	bcs	1c1430 <__bss_end__+0x1b79b8>
     420:	03000001 	movweq	r0, #1
     424:	01250708 	teqeq	r5, r8, lsl #14
     428:	04030000 	streq	r0, [r3], #-0
     42c:	00013c07 	andeq	r3, r1, r7, lsl #24
     430:	03040500 	movweq	r0, #17664	; 0x4500
     434:	00690801 	rsbeq	r0, r9, r1, lsl #16
     438:	04060000 	streq	r0, [r6], #-0
     43c:	0000008c 	andeq	r0, r0, ip, lsl #1
     440:	00007f07 	andeq	r7, r0, r7, lsl #30
     444:	01a80400 			; <UNDEFINED> instruction: 0x01a80400
     448:	8a020000 	bhi	80450 <__bss_end__+0x769d8>
     44c:	0000009c 	muleq	r0, ip, r0
     450:	00a20406 	adceq	r0, r2, r6, lsl #8
     454:	b7080000 	strlt	r0, [r8, -r0]
     458:	09000000 	stmdbeq	r0, {}	; <UNPREDICTABLE>
     45c:	000000b7 	strheq	r0, [r0], -r7
     460:	00005d09 	andeq	r5, r0, r9, lsl #26
     464:	005d0900 	subseq	r0, sp, r0, lsl #18
     468:	06000000 	streq	r0, [r0], -r0
     46c:	00005d04 	andeq	r5, r0, r4, lsl #26
     470:	02370a00 	eorseq	r0, r7, #0, 20
     474:	5f020000 	svcpl	0x00020000
     478:	0000005d 	andeq	r0, r0, sp, asr r0
     47c:	0000d903 	andeq	sp, r0, r3, lsl #18
     480:	65720b00 	ldrbvs	r0, [r2, #-2816]!	; 0xb00
     484:	5f020074 	svcpl	0x00020074
     488:	0000005d 	andeq	r0, r0, sp, asr r0
     48c:	01620a00 	cmneq	r2, r0, lsl #20
     490:	a6020000 	strge	r0, [r2], -r0
     494:	0000005d 	andeq	r0, r0, sp, asr r0
     498:	0000f503 	andeq	pc, r0, r3, lsl #10
     49c:	65720b00 	ldrbvs	r0, [r2, #-2816]!	; 0xb00
     4a0:	a6020074 			; <UNDEFINED> instruction: 0xa6020074
     4a4:	0000005d 	andeq	r0, r0, sp, asr r0
     4a8:	01ec0a00 	mvneq	r0, r0, lsl #20
     4ac:	70020000 	andvc	r0, r2, r0
     4b0:	0000002c 	andeq	r0, r0, ip, lsr #32
     4b4:	00010f03 	andeq	r0, r1, r3, lsl #30
     4b8:	00720c00 	rsbseq	r0, r2, r0, lsl #24
     4bc:	005d7002 	subseq	r7, sp, r2
     4c0:	0a000000 	beq	4c8 <__code_start__-0x7b38>
     4c4:	000002da 	ldrdeq	r0, [r0], -sl
     4c8:	005d1801 	subseq	r1, sp, r1, lsl #16
     4cc:	2b030000 	blcs	c04d4 <__bss_end__+0xb6a5c>
     4d0:	0b000001 	bleq	4dc <__code_start__-0x7b24>
     4d4:	00746572 	rsbseq	r6, r4, r2, ror r5
     4d8:	005d1801 	subseq	r1, sp, r1, lsl #16
     4dc:	0d000000 	stceq	0, cr0, [r0, #-0]
     4e0:	000002f2 	strdeq	r0, [r0], -r2
     4e4:	41031e01 	tstmi	r3, r1, lsl #28
     4e8:	0c000001 	stceq	0, cr0, [r0], {1}
     4ec:	1e010076 	mcrne	0, 0, r0, cr1, cr6, {3}
     4f0:	0000005d 	andeq	r0, r0, sp, asr r0
     4f4:	02940d00 	addseq	r0, r4, #0, 26
     4f8:	26010000 	strcs	r0, [r1], -r0
     4fc:	00015703 	andeq	r5, r1, r3, lsl #14
     500:	00760c00 	rsbseq	r0, r6, r0, lsl #24
     504:	005d2601 	subseq	r2, sp, r1, lsl #12
     508:	0d000000 	stceq	0, cr0, [r0, #-0]
     50c:	000001c8 	andeq	r0, r0, r8, asr #3
     510:	6d030d01 	stcvs	13, cr0, [r3, #-4]
     514:	0c000001 	stceq	0, cr0, [r0], {1}
     518:	0d010076 	stceq	0, cr0, [r1, #-472]	; 0xfffffe28
     51c:	0000005d 	andeq	r0, r0, sp, asr r0
     520:	029d0a00 	addseq	r0, sp, #0, 20
     524:	66020000 	strvs	r0, [r2], -r0
     528:	0000002c 	andeq	r0, r0, ip, lsr #32
     52c:	00018903 	andeq	r8, r1, r3, lsl #18
     530:	01db0e00 	bicseq	r0, fp, r0, lsl #28
     534:	67020000 	strvs	r0, [r2, -r0]
     538:	0000005d 	andeq	r0, r0, sp, asr r0
     53c:	02650a00 	rsbeq	r0, r5, #0, 20
     540:	56020000 	strpl	r0, [r2], -r0
     544:	0000005d 	andeq	r0, r0, sp, asr r0
     548:	0001a503 	andeq	sl, r1, r3, lsl #10
     54c:	65720b00 	ldrbvs	r0, [r2, #-2816]!	; 0xb00
     550:	56020074 			; <UNDEFINED> instruction: 0x56020074
     554:	0000005d 	andeq	r0, r0, sp, asr r0
     558:	01fe0a00 	mvnseq	r0, r0, lsl #20
     55c:	63020000 	movwvs	r0, #8192	; 0x2000
     560:	0000005d 	andeq	r0, r0, sp, asr r0
     564:	0001c103 	andeq	ip, r1, r3, lsl #2
     568:	65720b00 	ldrbvs	r0, [r2, #-2816]!	; 0xb00
     56c:	63020074 	movwvs	r0, #8308	; 0x2074
     570:	0000005d 	andeq	r0, r0, sp, asr r0
     574:	02b60d00 	adcseq	r0, r6, #0, 26
     578:	32010000 	andcc	r0, r1, #0
     57c:	0001d703 	andeq	sp, r1, r3, lsl #14
     580:	00760c00 	rsbseq	r0, r6, r0, lsl #24
     584:	005d3201 	subseq	r3, sp, r1, lsl #4
     588:	0a000000 	beq	590 <__code_start__-0x7a70>
     58c:	000002cc 	andeq	r0, r0, ip, asr #5
     590:	005d8b01 	subseq	r8, sp, r1, lsl #22
     594:	f3030000 	vhadd.u8	d0, d3, d0
     598:	0b000001 	bleq	5a4 <__code_start__-0x7a5c>
     59c:	00746572 	rsbseq	r6, r4, r2, ror r5
     5a0:	005d8b01 	subseq	r8, sp, r1, lsl #22
     5a4:	0d000000 	stceq	0, cr0, [r0, #-0]
     5a8:	00000304 	andeq	r0, r0, r4, lsl #6
     5ac:	09038c01 	stmdbeq	r3, {r0, sl, fp, pc}
     5b0:	0c000002 	stceq	0, cr0, [r0], {2}
     5b4:	8c010076 	stchi	0, cr0, [r1], {118}	; 0x76
     5b8:	0000005d 	andeq	r0, r0, sp, asr r0
     5bc:	02570d00 	subseq	r0, r7, #0, 26
     5c0:	8a010000 	bhi	405c8 <__bss_end__+0x36b50>
     5c4:	00021f03 	andeq	r1, r2, r3, lsl #30
     5c8:	00760c00 	rsbseq	r0, r6, r0, lsl #24
     5cc:	005d8a01 	subseq	r8, sp, r1, lsl #20
     5d0:	0a000000 	beq	5d8 <__code_start__-0x7a28>
     5d4:	0000016b 	andeq	r0, r0, fp, ror #2
     5d8:	002ca902 	eoreq	sl, ip, r2, lsl #18
     5dc:	39030000 	stmdbcc	r3, {}	; <UNPREDICTABLE>
     5e0:	0b000002 	bleq	5f0 <__code_start__-0x7a10>
     5e4:	aa020072 	bge	807b4 <__bss_end__+0x76d3c>
     5e8:	0000002c 	andeq	r0, r0, ip, lsr #32
     5ec:	01fd0a00 	mvnseq	r0, r0, lsl #20
     5f0:	97020000 	strls	r0, [r2, -r0]
     5f4:	0000005d 	andeq	r0, r0, sp, asr r0
     5f8:	00025503 	andeq	r5, r2, r3, lsl #10
     5fc:	65720b00 	ldrbvs	r0, [r2, #-2816]!	; 0xb00
     600:	97020074 	smlsdxls	r2, r4, r0, r0
     604:	0000005d 	andeq	r0, r0, sp, asr r0
     608:	02210f00 	eoreq	r0, r1, #0, 30
     60c:	36010000 	strcc	r0, [r1], -r0
     610:	0000811c 	andeq	r8, r0, ip, lsl r1
     614:	000000b0 	strheq	r0, [r0], -r0	; <UNPREDICTABLE>
     618:	04309c01 	ldrteq	r9, [r0], #-3073	; 0xc01
     61c:	40100000 	andsmi	r0, r0, r0
     620:	01000002 	tsteq	r0, r2
     624:	00007d36 	andeq	r7, r0, r6, lsr sp
     628:	00007300 	andeq	r7, r0, r0, lsl #6
     62c:	04ad1000 	strteq	r1, [sp], #0
     630:	36010000 	strcc	r0, [r1], -r0
     634:	00000091 	muleq	r0, r1, r0
     638:	000000b8 	strheq	r0, [r0], -r8
     63c:	00022e11 	andeq	r2, r2, r1, lsl lr
     640:	5d390100 	ldfpls	f0, [r9, #-0]
     644:	fd000000 	stc2	0, cr0, [r0, #-0]
     648:	12000000 	andne	r0, r0, #0
     64c:	000000ab 	andeq	r0, r0, fp, lsr #1
     650:	00000440 	andeq	r0, r0, r0, asr #8
     654:	93c80305 	bicls	r0, r8, #335544320	; 0x14000000
     658:	06110000 	ldreq	r0, [r1], -r0
     65c:	01000002 	tsteq	r0, r2
     660:	00005d43 	andeq	r5, r0, r3, asr #26
     664:	00012900 	andeq	r2, r1, r0, lsl #18
     668:	010f1300 	mrseq	r1, SP_hyp
     66c:	81240000 	teqhi	r4, r0
     670:	00040000 	andeq	r0, r4, r0
     674:	39010000 	stmdbcc	r1, {}	; <UNPREDICTABLE>
     678:	000002dc 	ldrdeq	r0, [r0], -ip
     67c:	00812414 	addeq	r2, r1, r4, lsl r4
     680:	00000400 	andeq	r0, r0, r0, lsl #8
     684:	011f1500 	tsteq	pc, r0, lsl #10
     688:	01550000 	cmpeq	r5, r0
     68c:	00000000 	andeq	r0, r0, r0
     690:	00012b13 	andeq	r2, r1, r3, lsl fp
     694:	00812c00 	addeq	r2, r1, r0, lsl #24
     698:	00000400 	andeq	r0, r0, r0, lsl #8
     69c:	f93f0100 			; <UNDEFINED> instruction: 0xf93f0100
     6a0:	16000002 	strne	r0, [r0], -r2
     6a4:	00000137 	andeq	r0, r0, r7, lsr r1
     6a8:	00000168 	andeq	r0, r0, r8, ror #2
     6ac:	010f1300 	mrseq	r1, SP_hyp
     6b0:	81300000 	teqhi	r0, r0
     6b4:	00040000 	andeq	r0, r4, r0
     6b8:	41010000 	mrsmi	r0, (UNDEF: 1)
     6bc:	00000320 	andeq	r0, r0, r0, lsr #6
     6c0:	00813014 	addeq	r3, r1, r4, lsl r0
     6c4:	00000400 	andeq	r0, r0, r0, lsl #8
     6c8:	011f1500 	tsteq	pc, r0, lsl #10
     6cc:	01860000 	orreq	r0, r6, r0
     6d0:	00000000 	andeq	r0, r0, r0
     6d4:	00014113 	andeq	r4, r1, r3, lsl r1
     6d8:	00816000 	addeq	r6, r1, r0
     6dc:	00000400 	andeq	r0, r0, r0, lsl #8
     6e0:	3d460100 	stfcce	f0, [r6, #-0]
     6e4:	16000003 	strne	r0, [r0], -r3
     6e8:	0000014d 	andeq	r0, r0, sp, asr #2
     6ec:	00000129 	andeq	r0, r0, r9, lsr #2
     6f0:	012b1300 	teqeq	fp, r0, lsl #6
     6f4:	81640000 	cmnhi	r4, r0
     6f8:	00080000 	andeq	r0, r8, r0
     6fc:	50010000 	andpl	r0, r1, r0
     700:	00000358 	andeq	r0, r0, r8, asr r3
     704:	00013717 	andeq	r3, r1, r7, lsl r7
     708:	0001ff00 	andeq	pc, r1, r0, lsl #30
     70c:	00010f13 	andeq	r0, r1, r3, lsl pc
     710:	00816c00 	addeq	r6, r1, r0, lsl #24
     714:	00000400 	andeq	r0, r0, r0, lsl #8
     718:	7f520100 	svcvc	0x00520100
     71c:	14000003 	strne	r0, [r0], #-3
     720:	0000816c 	andeq	r8, r0, ip, ror #2
     724:	00000004 	andeq	r0, r0, r4
     728:	00011f15 	andeq	r1, r1, r5, lsl pc
     72c:	0001a400 	andeq	sl, r1, r0, lsl #8
     730:	13000000 	movwne	r0, #0
     734:	00000157 	andeq	r0, r0, r7, asr r1
     738:	0000819c 	muleq	r0, ip, r1
     73c:	00000008 	andeq	r0, r0, r8
     740:	03995401 	orrseq	r5, r9, #16777216	; 0x1000000
     744:	63180000 	tstvs	r8, #0
     748:	00000001 	andeq	r0, r0, r1
     74c:	81401900 	cmphi	r0, r0, lsl #18
     750:	0a950000 	beq	fe540758 <__bss_end__+0xfe536ce0>
     754:	5c1a0000 	ldcpl	0, cr0, [sl], {-0}
     758:	9c000081 	stcls	0, cr0, [r0], {129}	; 0x81
     75c:	db00000a 	blle	78c <__code_start__-0x7874>
     760:	1b000003 	blne	774 <__code_start__-0x788c>
     764:	08025301 	stmdaeq	r2, {r0, r8, r9, ip, lr}
     768:	52011b41 	andpl	r1, r1, #66560	; 0x10400
     76c:	93c80305 	bicls	r0, r8, #335544320	; 0x14000000
     770:	011b0000 	tsteq	fp, r0
     774:	98030551 	stmdals	r3, {r0, r4, r6, r8, sl}
     778:	1b000092 	blne	9c8 <__code_start__-0x7638>
     77c:	03055001 	movweq	r5, #20481	; 0x5001
     780:	000091fc 	strdeq	r9, [r0], -ip
     784:	007d021b 	rsbseq	r0, sp, fp, lsl r2
     788:	92a80305 	adcls	r0, r8, #335544320	; 0x14000000
     78c:	19000000 	stmdbne	r0, {}	; <UNPREDICTABLE>
     790:	00008160 	andeq	r8, r0, r0, ror #2
     794:	00000ab2 			; <UNDEFINED> instruction: 0x00000ab2
     798:	00817c19 	addeq	r7, r1, r9, lsl ip
     79c:	000a9500 	andeq	r9, sl, r0, lsl #10
     7a0:	81981a00 	orrshi	r1, r8, r0, lsl #20
     7a4:	0a9c0000 	beq	fe7007ac <__bss_end__+0xfe6f6d34>
     7a8:	04260000 	strteq	r0, [r6], #-0
     7ac:	011b0000 	tsteq	fp, r0
     7b0:	52080253 	andpl	r0, r8, #805306373	; 0x30000005
     7b4:	0552011b 	ldrbeq	r0, [r2, #-283]	; 0x11b
     7b8:	0093c803 	addseq	ip, r3, r3, lsl #16
     7bc:	51011b00 	tstpl	r1, r0, lsl #22
     7c0:	92980305 	addsls	r0, r8, #335544320	; 0x14000000
     7c4:	011b0000 	tsteq	fp, r0
     7c8:	fc030550 	stc2	5, cr0, [r3], {80}	; 0x50
     7cc:	1b000091 	blne	a18 <__code_start__-0x75e8>
     7d0:	05007d02 	streq	r7, [r0, #-3330]	; 0xd02
     7d4:	0092a803 	addseq	sl, r2, r3, lsl #16
     7d8:	9c190000 	ldcls	0, cr0, [r9], {-0}
     7dc:	b2000081 	andlt	r0, r0, #129	; 0x81
     7e0:	0000000a 	andeq	r0, r0, sl
     7e4:	00007f1c 	andeq	r7, r0, ip, lsl pc
     7e8:	00044000 	andeq	r4, r4, r0
     7ec:	00761d00 	rsbseq	r1, r6, r0, lsl #26
     7f0:	000c0000 	andeq	r0, ip, r0
     7f4:	00043007 	andeq	r3, r4, r7
     7f8:	026e0a00 	rsbeq	r0, lr, #0, 20
     7fc:	76020000 	strvc	r0, [r2], -r0
     800:	0000002c 	andeq	r0, r0, ip, lsr #32
     804:	00046c03 	andeq	r6, r4, r3, lsl #24
     808:	00720b00 	rsbseq	r0, r2, r0, lsl #22
     80c:	002c7702 	eoreq	r7, ip, r2, lsl #14
     810:	ab1e0000 	blge	780818 <__bss_end__+0x776da0>
     814:	7c000000 	stcvc	0, cr0, [r0], {-0}
     818:	6e000004 	cdpvs	0, 0, cr0, cr0, cr4, {0}
     81c:	00000002 	andeq	r0, r0, r2
     820:	00007f1c 	andeq	r7, r0, ip, lsl pc
     824:	00047c00 	andeq	r7, r4, r0, lsl #24
     828:	00761d00 	rsbseq	r1, r6, r0, lsl #26
     82c:	00130000 	andseq	r0, r3, r0
     830:	00046c07 	andeq	r6, r4, r7, lsl #24
     834:	02820f00 	addeq	r0, r2, #0, 30
     838:	59010000 	stmdbpl	r1, {}	; <UNPREDICTABLE>
     83c:	000081cc 	andeq	r8, r0, ip, asr #3
     840:	0000015c 	andeq	r0, r0, ip, asr r1
     844:	07689c01 	strbeq	r9, [r8, -r1, lsl #24]!
     848:	701f0000 	andsvc	r0, pc, r0
     84c:	59010063 	stmdbpl	r1, {r0, r1, r5, r6}
     850:	0000002c 	andeq	r0, r0, ip, lsr #32
     854:	000001c2 	andeq	r0, r0, r2, asr #3
     858:	0001e420 	andeq	lr, r1, r0, lsr #8
     85c:	255a0100 	ldrbcs	r0, [sl, #-256]	; 0x100
     860:	05000000 	streq	r0, [r0, #-0]
     864:	00967003 	addseq	r7, r6, r3
     868:	00ab1200 	adceq	r1, fp, r0, lsl #4
     86c:	07780000 	ldrbeq	r0, [r8, -r0]!
     870:	03050000 	movweq	r0, #20480	; 0x5000
     874:	000093d8 	ldrdeq	r9, [r0], -r8
     878:	0002410e 	andeq	r4, r2, lr, lsl #2
     87c:	5d690100 	stfple	f0, [r9, #-0]
     880:	13000000 	movwne	r0, #0
     884:	0000016d 	andeq	r0, r0, sp, ror #2
     888:	000081f4 	strdeq	r8, [r0], -r4
     88c:	00000004 	andeq	r0, r0, r4
     890:	05155c01 	ldreq	r5, [r5, #-3073]	; 0xc01
     894:	f4140000 			; <UNDEFINED> instruction: 0xf4140000
     898:	04000081 	streq	r0, [r0], #-129	; 0x81
     89c:	21000000 	mrscs	r0, (UNDEF: 0)
     8a0:	0000017d 	andeq	r0, r0, sp, ror r1
     8a4:	0000bd22 	andeq	fp, r0, r2, lsr #26
     8a8:	0081f400 	addeq	pc, r1, r0, lsl #8
     8ac:	00000400 	andeq	r0, r0, r0, lsl #8
     8b0:	14670200 	strbtne	r0, [r7], #-512	; 0x200
     8b4:	000081f4 	strdeq	r8, [r0], -r4
     8b8:	00000004 	andeq	r0, r0, r4
     8bc:	0000cd15 	andeq	ip, r0, r5, lsl sp
     8c0:	0001ee00 	andeq	lr, r1, r0, lsl #28
     8c4:	00000000 	andeq	r0, r0, r0
     8c8:	04451300 	strbeq	r1, [r5], #-768	; 0x300
     8cc:	82140000 	andshi	r0, r4, #0
     8d0:	002c0000 	eoreq	r0, ip, r0
     8d4:	60010000 	andvs	r0, r1, r0
     8d8:	000005c8 	andeq	r0, r0, r8, asr #11
     8dc:	00821414 	addeq	r1, r2, r4, lsl r4
     8e0:	00002c00 	andeq	r2, r0, r0, lsl #24
     8e4:	04552100 	ldrbeq	r2, [r5], #-256	; 0x100
     8e8:	5e230000 	cdppl	0, 2, cr0, cr3, cr0, {0}
     8ec:	05000004 	streq	r0, [r0, #-4]
     8f0:	0093ec03 	addseq	lr, r3, r3, lsl #24
     8f4:	00bd1300 	adcseq	r1, sp, r0, lsl #6
     8f8:	82140000 	andshi	r0, r4, #0
     8fc:	00040000 	andeq	r0, r4, r0
     900:	77020000 	strvc	r0, [r2, -r0]
     904:	00000568 	andeq	r0, r0, r8, ror #10
     908:	00821414 	addeq	r1, r2, r4, lsl r4
     90c:	00000400 	andeq	r0, r0, r0, lsl #8
     910:	00cd1500 	sbceq	r1, sp, r0, lsl #10
     914:	020c0000 	andeq	r0, ip, #0
     918:	00000000 	andeq	r0, r0, r0
     91c:	0000f513 	andeq	pc, r0, r3, lsl r5	; <UNPREDICTABLE>
     920:	00821800 	addeq	r1, r2, r0, lsl #16
     924:	00000400 	andeq	r0, r0, r0, lsl #8
     928:	85780200 	ldrbhi	r0, [r8, #-512]!	; 0x200
     92c:	16000005 	strne	r0, [r0], -r5
     930:	00000105 	andeq	r0, r0, r5, lsl #2
     934:	0000020c 	andeq	r0, r0, ip, lsl #4
     938:	82281900 	eorhi	r1, r8, #0, 18
     93c:	0a950000 	beq	fe540944 <__bss_end__+0xfe536ecc>
     940:	3c1a0000 	ldccc	0, cr0, [sl], {-0}
     944:	9c000082 	stcls	0, cr0, [r0], {130}	; 0x82
     948:	bd00000a 	stclt	0, cr0, [r0, #-40]	; 0xffffffd8
     94c:	1b000005 	blne	968 <__code_start__-0x7698>
     950:	08025301 	stmdaeq	r2, {r0, r8, r9, ip, lr}
     954:	52011b79 	andpl	r1, r1, #123904	; 0x1e400
     958:	93ec0305 	mvnls	r0, #335544320	; 0x14000000
     95c:	011b0000 	tsteq	fp, r0
     960:	40030551 	andmi	r0, r3, r1, asr r5
     964:	1b000093 	blne	bb8 <__code_start__-0x7448>
     968:	03055001 	movweq	r5, #20481	; 0x5001
     96c:	00009308 	andeq	r9, r0, r8, lsl #6
     970:	82401900 	subhi	r1, r0, #0, 18
     974:	0ab20000 	beq	fec8097c <__bss_end__+0xfec76f04>
     978:	00000000 	andeq	r0, r0, r0
     97c:	00018913 	andeq	r8, r1, r3, lsl r9
     980:	00824000 	addeq	r4, r2, r0
     984:	00000400 	andeq	r0, r0, r0, lsl #8
     988:	eb640100 	bl	1900d90 <__bss_end__+0x18f7318>
     98c:	14000005 	strne	r0, [r0], #-5
     990:	00008240 	andeq	r8, r0, r0, asr #4
     994:	00000004 	andeq	r0, r0, r4
     998:	00019921 	andeq	r9, r1, r1, lsr #18
     99c:	13000000 	movwne	r0, #0
     9a0:	00000189 	andeq	r0, r0, r9, lsl #3
     9a4:	00008254 	andeq	r8, r0, r4, asr r2
     9a8:	00000004 	andeq	r0, r0, r4
     9ac:	06126501 	ldreq	r6, [r2], -r1, lsl #10
     9b0:	54140000 	ldrpl	r0, [r4], #-0
     9b4:	04000082 	streq	r0, [r0], #-130	; 0x82
     9b8:	15000000 	strne	r0, [r0, #-0]
     9bc:	00000199 	muleq	r0, r9, r1
     9c0:	0000021f 	andeq	r0, r0, pc, lsl r2
     9c4:	a5130000 	ldrge	r0, [r3, #-0]
     9c8:	bc000001 	stclt	0, cr0, [r0], {1}
     9cc:	04000082 	streq	r0, [r0], #-130	; 0x82
     9d0:	01000000 	mrseq	r0, (UNDEF: 0)
     9d4:	00063569 	andeq	r3, r6, r9, ror #10
     9d8:	82bc1400 	adcshi	r1, ip, #0, 8
     9dc:	00040000 	andeq	r0, r4, r0
     9e0:	b5210000 	strlt	r0, [r1, #-0]!
     9e4:	00000001 	andeq	r0, r0, r1
     9e8:	81f41a00 	mvnshi	r1, r0, lsl #20
     9ec:	0a9c0000 	beq	fe7009f4 <__bss_end__+0xfe6f6f7c>
     9f0:	06520000 	ldrbeq	r0, [r2], -r0
     9f4:	011b0000 	tsteq	fp, r0
     9f8:	00740252 	rsbseq	r0, r4, r2, asr r2
     9fc:	0550011b 	ldrbeq	r0, [r0, #-283]	; 0x11b
     a00:	0092c003 	addseq	ip, r2, r3
     a04:	081a0000 	ldmdaeq	sl, {}	; <UNPREDICTABLE>
     a08:	9c000082 	stcls	0, cr0, [r0], {130}	; 0x82
     a0c:	6900000a 	stmdbvs	r0, {r1, r3}
     a10:	1b000006 	blne	a30 <__code_start__-0x75d0>
     a14:	03055001 	movweq	r5, #20481	; 0x5001
     a18:	000092e0 	andeq	r9, r0, r0, ror #5
     a1c:	82141a00 	andshi	r1, r4, #0, 20
     a20:	0a9c0000 	beq	fe700a28 <__bss_end__+0xfe6f6fb0>
     a24:	06800000 	streq	r0, [r0], r0
     a28:	011b0000 	tsteq	fp, r0
     a2c:	f4030550 	vst3.16	{d0,d2,d4}, [r3 :64], r0
     a30:	00000092 	muleq	r0, r2, r0
     a34:	0082541a 	addeq	r5, r2, sl, lsl r4
     a38:	000a9c00 	andeq	r9, sl, r0, lsl #24
     a3c:	00069d00 	andeq	r9, r6, r0, lsl #26
     a40:	52011b00 	andpl	r1, r1, #0, 22
     a44:	1b007402 	blne	1da54 <__bss_end__+0x13fdc>
     a48:	03055001 	movweq	r5, #20481	; 0x5001
     a4c:	00009350 	andeq	r9, r0, r0, asr r3
     a50:	82681900 	rsbhi	r1, r8, #0, 18
     a54:	0a950000 	beq	fe540a5c <__bss_end__+0xfe536fe4>
     a58:	841a0000 	ldrhi	r0, [sl], #-0
     a5c:	9c000082 	stcls	0, cr0, [r0], {130}	; 0x82
     a60:	df00000a 	svcle	0x0000000a
     a64:	1b000006 	blne	a84 <__code_start__-0x757c>
     a68:	08025301 	stmdaeq	r2, {r0, r8, r9, ip, lr}
     a6c:	52011b65 	andpl	r1, r1, #103424	; 0x19400
     a70:	93d80305 	bicsls	r0, r8, #335544320	; 0x14000000
     a74:	011b0000 	tsteq	fp, r0
     a78:	98030551 	stmdals	r3, {r0, r4, r6, r8, sl}
     a7c:	1b000092 	blne	ccc <__code_start__-0x7334>
     a80:	03055001 	movweq	r5, #20481	; 0x5001
     a84:	000091fc 	strdeq	r9, [r0], -ip
     a88:	007d021b 	rsbseq	r0, sp, fp, lsl r2
     a8c:	936c0305 	cmnls	ip, #335544320	; 0x14000000
     a90:	19000000 	stmdbne	r0, {}	; <UNPREDICTABLE>
     a94:	00008288 	andeq	r8, r0, r8, lsl #5
     a98:	00000ab2 			; <UNDEFINED> instruction: 0x00000ab2
     a9c:	00829c19 	addeq	r9, r2, r9, lsl ip
     aa0:	000a9500 	andeq	r9, sl, r0, lsl #10
     aa4:	82b81a00 	adcshi	r1, r8, #0, 20
     aa8:	0a9c0000 	beq	fe700ab0 <__bss_end__+0xfe6f7038>
     aac:	072a0000 	streq	r0, [sl, -r0]!
     ab0:	011b0000 	tsteq	fp, r0
     ab4:	67080253 	smlsdvs	r8, r3, r2, r0
     ab8:	0552011b 	ldrbeq	r0, [r2, #-283]	; 0x11b
     abc:	0093d803 	addseq	sp, r3, r3, lsl #16
     ac0:	51011b00 	tstpl	r1, r0, lsl #22
     ac4:	92980305 	addsls	r0, r8, #335544320	; 0x14000000
     ac8:	011b0000 	tsteq	fp, r0
     acc:	fc030550 	stc2	5, cr0, [r3], {80}	; 0x50
     ad0:	1b000091 	blne	d1c <__code_start__-0x72e4>
     ad4:	05007d02 	streq	r7, [r0, #-3330]	; 0xd02
     ad8:	00938003 	addseq	r8, r3, r3
     adc:	bc190000 	ldclt	0, cr0, [r9], {-0}
     ae0:	b2000082 	andlt	r0, r0, #130	; 0x82
     ae4:	1a00000a 	bne	b14 <__code_start__-0x74ec>
     ae8:	000082cc 	andeq	r8, r0, ip, asr #5
     aec:	00000a9c 	muleq	r0, ip, sl
     af0:	00000750 	andeq	r0, r0, r0, asr r7
     af4:	0251011b 	subseq	r0, r1, #-1073741818	; 0xc0000006
     af8:	011b0075 	tsteq	fp, r5, ror r0
     afc:	94030550 	strls	r0, [r3], #-1360	; 0x550
     b00:	00000093 	muleq	r0, r3, r0
     b04:	0082e424 	addeq	lr, r2, r4, lsr #8
     b08:	52011b00 	andpl	r1, r1, #0, 22
     b0c:	1b007502 	blne	1df1c <__bss_end__+0x144a4>
     b10:	74025101 	strvc	r5, [r2], #-257	; 0x101
     b14:	50011b00 	andpl	r1, r1, r0, lsl #22
     b18:	00003001 	andeq	r3, r0, r1
     b1c:	00007f1c 	andeq	r7, r0, ip, lsl pc
     b20:	00077800 	andeq	r7, r7, r0, lsl #16
     b24:	00761d00 	rsbseq	r1, r6, r0, lsl #26
     b28:	00110000 	andseq	r0, r1, r0
     b2c:	00076807 	andeq	r6, r7, r7, lsl #16
     b30:	017f0f00 	cmneq	pc, r0, lsl #30
     b34:	70010000 	andvc	r0, r1, r0
     b38:	00008328 	andeq	r8, r0, r8, lsr #6
     b3c:	0000003c 	andeq	r0, r0, ip, lsr r0
     b40:	07ed9c01 	strbeq	r9, [sp, r1, lsl #24]!
     b44:	af200000 	svcge	0x00200000
     b48:	01000002 	tsteq	r0, r2
     b4c:	00002571 	andeq	r2, r0, r1, ror r5
     b50:	74030500 	strvc	r0, [r3], #-1280	; 0x500
     b54:	25000096 	strcs	r0, [r0, #-150]	; 0x96
     b58:	7a010076 	bvc	40d38 <__bss_end__+0x372c0>
     b5c:	0000005d 	andeq	r0, r0, sp, asr r0
     b60:	c1138000 	tstgt	r3, r0
     b64:	4c000001 	stcmi	0, cr0, [r0], {1}
     b68:	08000083 	stmdaeq	r0, {r0, r1, r7}
     b6c:	01000000 	mrseq	r0, (UNDEF: 0)
     b70:	0007c97c 	andeq	ip, r7, ip, ror r9
     b74:	01cd1700 	biceq	r1, sp, r0, lsl #14
     b78:	80000000 	andhi	r0, r0, r0
     b7c:	01571300 	cmpeq	r7, r0, lsl #6
     b80:	83540000 	cmphi	r4, #0
     b84:	00100000 	andseq	r0, r0, r0
     b88:	7e010000 	cdpvc	0, 0, cr0, cr1, cr0, {0}
     b8c:	000007e3 	andeq	r0, r0, r3, ror #15
     b90:	00016318 	andeq	r6, r1, r8, lsl r3
     b94:	19000000 	stmdbne	r0, {}	; <UNPREDICTABLE>
     b98:	00008340 	andeq	r8, r0, r0, asr #6
     b9c:	00000ab9 			; <UNDEFINED> instruction: 0x00000ab9
     ba0:	00a00f00 	adceq	r0, r0, r0, lsl #30
     ba4:	a6010000 	strge	r0, [r1], -r0
     ba8:	00008364 	andeq	r8, r0, r4, ror #6
     bac:	00000034 	andeq	r0, r0, r4, lsr r0
     bb0:	08c99c01 	stmiaeq	r9, {r0, sl, fp, ip, pc}^
     bb4:	41260000 	teqmi	r6, r0
     bb8:	01000002 	tsteq	r0, r2
     bbc:	00005da6 	andeq	r5, r0, r6, lsr #27
     bc0:	26500100 	ldrbcs	r0, [r0], -r0, lsl #2
     bc4:	000004ad 	andeq	r0, r0, sp, lsr #9
     bc8:	0091a601 	addseq	sl, r1, r1, lsl #12
     bcc:	51010000 	mrspl	r0, (UNDEF: 1)
     bd0:	00021811 	andeq	r1, r2, r1, lsl r8
     bd4:	5da70100 	stfpls	f0, [r7]
     bd8:	4c000000 	stcmi	0, cr0, [r0], {-0}
     bdc:	20000002 	andcs	r0, r0, r2
     be0:	0000020f 	andeq	r0, r0, pc, lsl #4
     be4:	005daf01 	subseq	sl, sp, r1, lsl #30
     be8:	50010000 	andpl	r0, r1, r0
     bec:	0001d713 	andeq	sp, r1, r3, lsl r7
     bf0:	00836400 	addeq	r6, r3, r0, lsl #8
     bf4:	00000400 	andeq	r0, r0, r0, lsl #8
     bf8:	5fa70100 	svcpl	0x00a70100
     bfc:	14000008 	strne	r0, [r0], #-8
     c00:	00008364 	andeq	r8, r0, r4, ror #6
     c04:	00000004 	andeq	r0, r0, r4
     c08:	0001e715 	andeq	lr, r1, r5, lsl r7
     c0c:	00026d00 	andeq	r6, r2, r0, lsl #26
     c10:	13000000 	movwne	r0, #0
     c14:	000001f3 	strdeq	r0, [r0], -r3
     c18:	0000836c 	andeq	r8, r0, ip, ror #6
     c1c:	00000004 	andeq	r0, r0, r4
     c20:	087cad01 	ldmdaeq	ip!, {r0, r8, sl, fp, sp, pc}^
     c24:	ff160000 			; <UNDEFINED> instruction: 0xff160000
     c28:	80000001 	andhi	r0, r0, r1
     c2c:	00000002 	andeq	r0, r0, r2
     c30:	00020913 	andeq	r0, r2, r3, lsl r9
     c34:	00837000 	addeq	r7, r3, r0
     c38:	00000400 	andeq	r0, r0, r0, lsl #8
     c3c:	97b20100 	ldrls	r0, [r2, r0, lsl #2]!
     c40:	27000008 	strcs	r0, [r0, -r8]
     c44:	00000215 	andeq	r0, r0, r5, lsl r2
     c48:	13005001 	movwne	r5, #1
     c4c:	000001f3 	strdeq	r0, [r0], -r3
     c50:	00008374 	andeq	r8, r0, r4, ror r3
     c54:	00000008 	andeq	r0, r0, r8
     c58:	08b2bc01 	ldmeq	r2!, {r0, sl, fp, ip, sp, pc}
     c5c:	ff170000 			; <UNDEFINED> instruction: 0xff170000
     c60:	e7000001 	str	r0, [r0, -r1]
     c64:	57220001 	strpl	r0, [r2, -r1]!
     c68:	7c000001 	stcvc	0, cr0, [r0], {1}
     c6c:	08000083 	stmdaeq	r0, {r0, r1, r7}
     c70:	01000000 	mrseq	r0, (UNDEF: 0)
     c74:	016318bd 	strheq	r1, [r3, #-141]!	; 0xffffff73
     c78:	00000000 	andeq	r0, r0, r0
     c7c:	01b20f00 			; <UNDEFINED> instruction: 0x01b20f00
     c80:	c2010000 	andgt	r0, r1, #0
     c84:	00008398 	muleq	r0, r8, r3
     c88:	000000c4 	andeq	r0, r0, r4, asr #1
     c8c:	0a3c9c01 	beq	f27c98 <__bss_end__+0xf1e220>
     c90:	701f0000 	andsvc	r0, pc, r0
     c94:	c2010063 	andgt	r0, r1, #99	; 0x63
     c98:	0000002c 	andeq	r0, r0, ip, lsr #32
     c9c:	00000293 	muleq	r0, r3, r2
     ca0:	0000ab12 	andeq	sl, r0, r2, lsl fp
     ca4:	000a4c00 	andeq	r4, sl, r0, lsl #24
     ca8:	00030500 	andeq	r0, r3, r0, lsl #10
     cac:	13000094 	movwne	r0, #148	; 0x94
     cb0:	0000021f 	andeq	r0, r0, pc, lsl r2
     cb4:	000083b0 			; <UNDEFINED> instruction: 0x000083b0
     cb8:	00000008 	andeq	r0, r0, r8
     cbc:	0941c401 	stmdbeq	r1, {r0, sl, lr, pc}^
     cc0:	b0140000 	andslt	r0, r4, r0
     cc4:	08000083 	stmdaeq	r0, {r0, r1, r7}
     cc8:	21000000 	mrscs	r0, (UNDEF: 0)
     ccc:	0000022f 	andeq	r0, r0, pc, lsr #4
     cd0:	0000d922 	andeq	sp, r0, r2, lsr #18
     cd4:	0083b000 	addeq	fp, r3, r0
     cd8:	00000400 	andeq	r0, r0, r0, lsl #8
     cdc:	14aa0200 	strtne	r0, [sl], #512	; 0x200
     ce0:	000083b0 			; <UNDEFINED> instruction: 0x000083b0
     ce4:	00000004 	andeq	r0, r0, r4
     ce8:	0000e915 	andeq	lr, r0, r5, lsl r9
     cec:	0002bf00 	andeq	fp, r2, r0, lsl #30
     cf0:	00000000 	andeq	r0, r0, r0
     cf4:	02391300 	eorseq	r1, r9, #0, 6
     cf8:	841c0000 	ldrhi	r0, [ip], #-0
     cfc:	00040000 	andeq	r0, r4, r0
     d00:	c8010000 	stmdagt	r1, {}	; <UNPREDICTABLE>
     d04:	00000964 	andeq	r0, r0, r4, ror #18
     d08:	00841c14 	addeq	r1, r4, r4, lsl ip
     d0c:	00000400 	andeq	r0, r0, r0, lsl #8
     d10:	02492100 	subeq	r2, r9, #0, 2
     d14:	00000000 	andeq	r0, r0, r0
     d18:	0083b01a 	addeq	fp, r3, sl, lsl r0
     d1c:	000a9c00 	andeq	r9, sl, r0, lsl #24
     d20:	00098100 	andeq	r8, r9, r0, lsl #2
     d24:	51011b00 	tstpl	r1, r0, lsl #22
     d28:	1b007402 	blne	1dd38 <__bss_end__+0x142c0>
     d2c:	03055001 	movweq	r5, #20481	; 0x5001
     d30:	00009190 	muleq	r0, r0, r1
     d34:	83c41900 	bichi	r1, r4, #0, 18
     d38:	0a950000 	beq	fe540d40 <__bss_end__+0xfe5372c8>
     d3c:	d81a0000 	ldmdale	sl, {}	; <UNPREDICTABLE>
     d40:	9c000083 	stcls	0, cr0, [r0], {131}	; 0x83
     d44:	b900000a 	stmdblt	r0, {r1, r3}
     d48:	1b000009 	blne	d74 <__code_start__-0x728c>
     d4c:	08025301 	stmdaeq	r2, {r0, r8, r9, ip, lr}
     d50:	52011bc5 	andpl	r1, r1, #201728	; 0x31400
     d54:	94000305 	strls	r0, [r0], #-773	; 0x305
     d58:	011b0000 	tsteq	fp, r0
     d5c:	98030551 	stmdals	r3, {r0, r4, r6, r8, sl}
     d60:	1b000092 	blne	fb0 <__code_start__-0x7050>
     d64:	03055001 	movweq	r5, #20481	; 0x5001
     d68:	000091a8 	andeq	r9, r0, r8, lsr #3
     d6c:	83dc1900 	bicshi	r1, ip, #0, 18
     d70:	0ab20000 	beq	fec80d78 <__bss_end__+0xfec77300>
     d74:	f0190000 			; <UNDEFINED> instruction: 0xf0190000
     d78:	95000083 	strls	r0, [r0, #-131]	; 0x83
     d7c:	1a00000a 	bne	dac <__code_start__-0x7254>
     d80:	0000840c 	andeq	r8, r0, ip, lsl #8
     d84:	00000a9c 	muleq	r0, ip, sl
     d88:	00000a04 	andeq	r0, r0, r4, lsl #20
     d8c:	0253011b 	subseq	r0, r3, #-1073741818	; 0xc0000006
     d90:	011bc608 	tsteq	fp, r8, lsl #12
     d94:	00030552 	andeq	r0, r3, r2, asr r5
     d98:	1b000094 	blne	ff0 <__code_start__-0x7010>
     d9c:	03055101 	movweq	r5, #20737	; 0x5101
     da0:	00009298 	muleq	r0, r8, r2
     da4:	0550011b 	ldrbeq	r0, [r0, #-283]	; 0x11b
     da8:	0091fc03 	addseq	pc, r1, r3, lsl #24
     dac:	7d021b00 	vstrvc	d1, [r2, #-0]
     db0:	a8030500 	stmdage	r3, {r8, sl}
     db4:	00000093 	muleq	r0, r3, r0
     db8:	00841019 	addeq	r1, r4, r9, lsl r0
     dbc:	000ab200 	andeq	fp, sl, r0, lsl #4
     dc0:	841c1a00 	ldrhi	r1, [ip], #-2560	; 0xa00
     dc4:	0a9c0000 	beq	fe700dcc <__bss_end__+0xfe6f7354>
     dc8:	0a2a0000 	beq	a80dd0 <__bss_end__+0xa77358>
     dcc:	011b0000 	tsteq	fp, r0
     dd0:	00740251 	rsbseq	r0, r4, r1, asr r2
     dd4:	0550011b 	ldrbeq	r0, [r0, #-283]	; 0x11b
     dd8:	0093b803 	addseq	fp, r3, r3, lsl #16
     ddc:	34240000 	strtcc	r0, [r4], #-0
     de0:	1b000084 	blne	ff8 <__code_start__-0x7008>
     de4:	74025101 	strvc	r5, [r2], #-257	; 0x101
     de8:	50011b00 	andpl	r1, r1, r0, lsl #22
     dec:	00003001 	andeq	r3, r0, r1
     df0:	00007f1c 	andeq	r7, r0, ip, lsl pc
     df4:	000a4c00 	andeq	r4, sl, r0, lsl #24
     df8:	00761d00 	rsbseq	r1, r6, r0, lsl #26
     dfc:	00150000 	andseq	r0, r5, r0
     e00:	000a3c07 	andeq	r3, sl, r7, lsl #24
     e04:	05bd0f00 	ldreq	r0, [sp, #3840]!	; 0xf00
     e08:	cb010000 	blgt	40e10 <__bss_end__+0x37398>
     e0c:	0000845c 	andeq	r8, r0, ip, asr r4
     e10:	00000004 	andeq	r0, r0, r4
     e14:	0a739c01 	beq	1ce7e20 <__bss_end__+0x1cde3a8>
     e18:	70280000 	eorvc	r0, r8, r0
     e1c:	cb010063 	blgt	40fb0 <__bss_end__+0x37538>
     e20:	0000002c 	andeq	r0, r0, ip, lsr #32
     e24:	20005001 	andcs	r5, r0, r1
     e28:	00000246 	andeq	r0, r0, r6, asr #4
     e2c:	00910b01 	addseq	r0, r1, r1, lsl #22
     e30:	03050000 	movweq	r0, #20480	; 0x5000
     e34:	00009668 	andeq	r9, r0, r8, ror #12
     e38:	0002e320 	andeq	lr, r2, r0, lsr #6
     e3c:	91870100 	orrls	r0, r7, r0, lsl #2
     e40:	05000000 	streq	r0, [r0, #-0]
     e44:	00966c03 	addseq	r6, r6, r3, lsl #24
     e48:	018b2900 	orreq	r2, fp, r0, lsl #18
     e4c:	1e040000 	cdpne	0, 0, cr0, cr4, cr0, {0}
     e50:	0003892a 	andeq	r8, r3, sl, lsr #18
     e54:	25290400 	strcs	r0, [r9, #-1024]!	; 0x400
     e58:	b2000000 	andlt	r0, r0, #0
     e5c:	0900000a 	stmdbeq	r0, {r1, r3}
     e60:	00000086 	andeq	r0, r0, r6, lsl #1
     e64:	6e29002b 	cdpvs	0, 2, cr0, cr9, cr11, {1}
     e68:	04000000 	streq	r0, [r0], #-0
     e6c:	02fb2965 	rscseq	r2, fp, #1654784	; 0x194000
     e70:	36050000 	strcc	r0, [r5], -r0
     e74:	00019100 	andeq	r9, r1, r0, lsl #2
     e78:	b7000400 	strlt	r0, [r0, -r0, lsl #8]
     e7c:	04000003 	streq	r0, [r0], #-3
     e80:	00032f01 	andeq	r2, r3, r1, lsl #30
     e84:	03210100 	teqeq	r1, #0, 2
     e88:	039a0000 	orrseq	r0, sl, #0
     e8c:	85500000 	ldrbhi	r0, [r0, #-0]
     e90:	00580000 	subseq	r0, r8, r0
     e94:	02fa0000 	rscseq	r0, sl, #0
     e98:	12020000 	andne	r0, r2, #0
     e9c:	02000003 	andeq	r0, r0, #3
     ea0:	00003028 	andeq	r3, r0, r8, lsr #32
     ea4:	03900300 	orrseq	r0, r0, #0, 6
     ea8:	03040000 	movweq	r0, #16384	; 0x4000
     eac:	00004700 	andeq	r4, r0, r0, lsl #14
     eb0:	03e00400 	mvneq	r0, #0, 8
     eb4:	00470000 	subeq	r0, r7, r0
     eb8:	00000000 	andeq	r0, r0, r0
     ebc:	92020405 	andls	r0, r2, #83886080	; 0x5000000
     ec0:	02000003 	andeq	r0, r0, #3
     ec4:	00002562 	andeq	r2, r0, r2, ror #10
     ec8:	05040600 	streq	r0, [r4, #-1536]	; 0x600
     ecc:	00746e69 	rsbseq	r6, r4, r9, ror #28
     ed0:	2f070407 	svccs	0x00070407
     ed4:	07000001 	streq	r0, [r0, -r1]
     ed8:	00620601 	rsbeq	r0, r2, r1, lsl #12
     edc:	02070000 	andeq	r0, r7, #0
     ee0:	00015805 	andeq	r5, r1, r5, lsl #16
     ee4:	05040700 	streq	r0, [r4, #-1792]	; 0x700
     ee8:	0000014a 	andeq	r0, r0, sl, asr #2
     eec:	45050807 	strmi	r0, [r5, #-2055]	; 0x807
     ef0:	07000001 	streq	r0, [r0, -r1]
     ef4:	00600801 	rsbeq	r0, r0, r1, lsl #16
     ef8:	02070000 	andeq	r0, r7, #0
     efc:	00007b07 	andeq	r7, r0, r7, lsl #22
     f00:	07040700 	streq	r0, [r4, -r0, lsl #14]
     f04:	0000012a 	andeq	r0, r0, sl, lsr #2
     f08:	25070807 	strcs	r0, [r7, #-2055]	; 0x807
     f0c:	07000001 	streq	r0, [r0, -r1]
     f10:	013c0704 	teqeq	ip, r4, lsl #14
     f14:	04080000 	streq	r0, [r8], #-0
     f18:	000000a7 	andeq	r0, r0, r7, lsr #1
     f1c:	69080107 	stmdbvs	r8, {r0, r1, r2, r8}
     f20:	08000000 	stmdaeq	r0, {}	; <UNPREDICTABLE>
     f24:	0000b404 	andeq	fp, r0, r4, lsl #8
     f28:	00a70900 	adceq	r0, r7, r0, lsl #18
     f2c:	890a0000 	stmdbhi	sl, {}	; <UNPREDICTABLE>
     f30:	01000003 	tsteq	r0, r3
     f34:	00005406 	andeq	r5, r0, r6, lsl #8
     f38:	00855000 	addeq	r5, r5, r0
     f3c:	00005800 	andeq	r5, r0, r0, lsl #16
     f40:	439c0100 	orrsmi	r0, ip, #0, 2
     f44:	0b000001 	bleq	f50 <__code_start__-0x70b0>
     f48:	00746d66 	rsbseq	r6, r4, r6, ror #26
     f4c:	00ae0601 	adceq	r0, lr, r1, lsl #12
     f50:	91020000 	mrsls	r0, (UNDEF: 2)
     f54:	620d0c70 	andvs	r0, sp, #112, 24	; 0x7000
     f58:	01006675 	tsteq	r0, r5, ror r6
     f5c:	00014308 	andeq	r4, r1, r8, lsl #6
     f60:	78030500 	stmdavc	r3, {r8, sl}
     f64:	0e000096 	mcreq	0, 0, r0, cr0, cr6, {4}
     f68:	000008bb 			; <UNDEFINED> instruction: 0x000008bb
     f6c:	00490901 	subeq	r0, r9, r1, lsl #18
     f70:	91020000 	mrsls	r0, (UNDEF: 2)
     f74:	7a730f5c 	bvc	1cc4cec <__bss_end__+0x1cbb274>
     f78:	540c0100 	strpl	r0, [ip], #-256	; 0x100
     f7c:	d2000000 	andle	r0, r0, #0
     f80:	10000002 	andne	r0, r0, r2
     f84:	00008578 	andeq	r8, r0, r8, ror r5
     f88:	00000174 	andeq	r0, r0, r4, ror r1
     f8c:	00000136 	andeq	r0, r0, r6, lsr r1
     f90:	02530111 	subseq	r0, r3, #1073741828	; 0x40000004
     f94:	01114c91 			; <UNDEFINED> instruction: 0x01114c91
     f98:	48910352 	ldmmi	r1, {r1, r4, r6, r8, r9}
     f9c:	51011106 	tstpl	r1, r6, lsl #2
     fa0:	04000a03 	streq	r0, [r0], #-2563	; 0xa03
     fa4:	02500111 	subseq	r0, r0, #1073741828	; 0x40000004
     fa8:	12000074 	andne	r0, r0, #116	; 0x74
     fac:	0000858c 	andeq	r8, r0, ip, lsl #11
     fb0:	02500111 	subseq	r0, r0, #1073741828	; 0x40000004
     fb4:	00000074 	andeq	r0, r0, r4, ror r0
     fb8:	0000a713 	andeq	sl, r0, r3, lsl r7
     fbc:	00015400 	andeq	r5, r1, r0, lsl #8
     fc0:	009a1400 	addseq	r1, sl, r0, lsl #8
     fc4:	03ff0000 	mvnseq	r0, #0
     fc8:	00541500 	subseq	r1, r4, r0, lsl #10
     fcc:	01630000 	cmneq	r3, r0
     fd0:	ae160000 	cdpge	0, 1, cr0, cr6, cr0, {0}
     fd4:	00000000 	andeq	r0, r0, r0
     fd8:	00043d17 	andeq	r3, r4, r7, lsl sp
     fdc:	6e220400 	cdpvs	4, 2, cr0, cr2, cr0, {0}
     fe0:	08000001 	stmdaeq	r0, {r0}
     fe4:	00015404 	andeq	r5, r1, r4, lsl #8
     fe8:	03861800 	orreq	r1, r6, #0, 16
     fec:	02050000 	andeq	r0, r5, #0
     ff0:	00000054 	andeq	r0, r0, r4, asr r0
     ff4:	0000a116 	andeq	sl, r0, r6, lsl r1
     ff8:	00541600 	subseq	r1, r4, r0, lsl #12
     ffc:	ae160000 	cdpge	0, 1, cr0, cr6, cr0, {0}
    1000:	16000000 	strne	r0, [r0], -r0
    1004:	00000049 	andeq	r0, r0, r9, asr #32
    1008:	01130000 	tsteq	r3, r0
    100c:	00040000 	andeq	r0, r4, r0
    1010:	000004e8 	andeq	r0, r0, r8, ror #9
    1014:	032f0104 	teqeq	pc, #4, 2
    1018:	0c010000 	stceq	0, cr0, [r1], {-0}
    101c:	9a000004 	bls	1034 <__code_start__-0x6fcc>
    1020:	a8000003 	stmdage	r0, {r0, r1}
    1024:	3c000085 	stccc	0, cr0, [r0], {133}	; 0x85
    1028:	0a000000 	beq	1030 <__code_start__-0x6fd0>
    102c:	02000004 	andeq	r0, r0, #4
    1030:	6e690504 	cdpvs	5, 6, cr0, cr9, cr4, {0}
    1034:	04030074 	streq	r0, [r3], #-116	; 0x74
    1038:	00012f07 	andeq	r2, r1, r7, lsl #30
    103c:	06010300 	streq	r0, [r1], -r0, lsl #6
    1040:	00000062 	andeq	r0, r0, r2, rrx
    1044:	58050203 	stmdapl	r5, {r0, r1, r9}
    1048:	03000001 	movweq	r0, #1
    104c:	014a0504 	cmpeq	sl, r4, lsl #10
    1050:	08030000 	stmdaeq	r3, {}	; <UNPREDICTABLE>
    1054:	00014505 	andeq	r4, r1, r5, lsl #10
    1058:	08010300 	stmdaeq	r1, {r8, r9}
    105c:	00000060 	andeq	r0, r0, r0, rrx
    1060:	7b070203 	blvc	1c1874 <__bss_end__+0x1b7dfc>
    1064:	03000000 	movweq	r0, #0
    1068:	012a0704 	teqeq	sl, r4, lsl #14
    106c:	08030000 	stmdaeq	r3, {}	; <UNPREDICTABLE>
    1070:	00012507 	andeq	r2, r1, r7, lsl #10
    1074:	07040300 	streq	r0, [r4, -r0, lsl #6]
    1078:	0000013c 	andeq	r0, r0, ip, lsr r1
    107c:	69080103 	stmdbvs	r8, {r0, r1, r8}
    1080:	04000000 	streq	r0, [r0], #-0
    1084:	000003ef 	andeq	r0, r0, pc, ror #7
    1088:	00250301 	eoreq	r0, r5, r1, lsl #6
    108c:	85a80000 	strhi	r0, [r8, #0]!
    1090:	00140000 	andseq	r0, r4, r0
    1094:	9c010000 	stcls	0, cr0, [r1], {-0}
    1098:	000000b0 	strheq	r0, [r0], -r0	; <UNPREDICTABLE>
    109c:	01006305 	tsteq	r0, r5, lsl #6
    10a0:	00002503 	andeq	r2, r0, r3, lsl #10
    10a4:	0002fb00 	andeq	pc, r2, r0, lsl #22
    10a8:	85b40600 	ldrhi	r0, [r4, #1536]!	; 0x600
    10ac:	01090000 	mrseq	r0, (UNDEF: 9)
    10b0:	01070000 	mrseq	r0, (UNDEF: 7)
    10b4:	00740250 	rsbseq	r0, r4, r0, asr r2
    10b8:	8b080000 	blhi	2010c0 <__bss_end__+0x1f7648>
    10bc:	01000001 	tsteq	r0, r1
    10c0:	0085bc08 	addeq	fp, r5, r8, lsl #24
    10c4:	00001800 	andeq	r1, r0, r0, lsl #16
    10c8:	099c0100 	ldmibeq	ip, {r8}
    10cc:	0000041b 	andeq	r0, r0, fp, lsl r4
    10d0:	85d40b01 	ldrbhi	r0, [r4, #2817]	; 0xb01
    10d4:	00100000 	andseq	r0, r0, r0
    10d8:	9c010000 	stcls	0, cr0, [r1], {-0}
    10dc:	000000e3 	andeq	r0, r0, r3, ror #1
    10e0:	0070660a 	rsbseq	r6, r0, sl, lsl #12
    10e4:	00f20b01 	rscseq	r0, r2, r1, lsl #22
    10e8:	50010000 	andpl	r0, r1, r0
    10ec:	00250b00 	eoreq	r0, r5, r0, lsl #22
    10f0:	00f20000 	rscseq	r0, r2, r0
    10f4:	250c0000 	strcs	r0, [ip, #-0]
    10f8:	00000000 	andeq	r0, r0, r0
    10fc:	00e3040d 	rsceq	r0, r3, sp, lsl #8
    1100:	000e0000 	andeq	r0, lr, r0
    1104:	01000004 	tsteq	r0, r4
    1108:	0000f206 	andeq	pc, r0, r6, lsl #4
    110c:	88030500 	stmdahi	r3, {r8, sl}
    1110:	0f000091 	svceq	0x00000091
    1114:	000003e5 	andeq	r0, r0, r5, ror #7
    1118:	2c0c3c02 	stccs	12, cr3, [ip], {2}
    111c:	00000000 	andeq	r0, r0, r0
    1120:	0000ee00 	andeq	lr, r0, r0, lsl #28
    1124:	d0000400 	andle	r0, r0, r0, lsl #8
    1128:	04000005 	streq	r0, [r0], #-5
    112c:	00032f01 	andeq	r2, r3, r1, lsl #30
    1130:	04280100 	strteq	r0, [r8], #-256	; 0x100
    1134:	039a0000 	orrseq	r0, sl, #0
    1138:	85e40000 	strbhi	r0, [r4, #0]!
    113c:	00340000 	eorseq	r0, r4, r0
    1140:	04a20000 	strteq	r0, [r2], #0
    1144:	04020000 	streq	r0, [r2], #-0
    1148:	746e6905 	strbtvc	r6, [lr], #-2309	; 0x905
    114c:	07040300 	streq	r0, [r4, -r0, lsl #6]
    1150:	0000012f 	andeq	r0, r0, pc, lsr #2
    1154:	62060103 	andvs	r0, r6, #-1073741824	; 0xc0000000
    1158:	03000000 	movweq	r0, #0
    115c:	01580502 	cmpeq	r8, r2, lsl #10
    1160:	04030000 	streq	r0, [r3], #-0
    1164:	00014a05 	andeq	r4, r1, r5, lsl #20
    1168:	05080300 	streq	r0, [r8, #-768]	; 0x300
    116c:	00000145 	andeq	r0, r0, r5, asr #2
    1170:	60080103 	andvs	r0, r8, r3, lsl #2
    1174:	03000000 	movweq	r0, #0
    1178:	007b0702 	rsbseq	r0, fp, r2, lsl #14
    117c:	04030000 	streq	r0, [r3], #-0
    1180:	00012a07 	andeq	r2, r1, r7, lsl #20
    1184:	07080300 	streq	r0, [r8, -r0, lsl #6]
    1188:	00000125 	andeq	r0, r0, r5, lsr #2
    118c:	3c070403 	cfstrscc	mvf0, [r7], {3}
    1190:	03000001 	movweq	r0, #1
    1194:	00690801 	rsbeq	r0, r9, r1, lsl #16
    1198:	04040000 	streq	r0, [r4], #-0
    119c:	0000007f 	andeq	r0, r0, pc, ror r0
    11a0:	00007205 	andeq	r7, r0, r5, lsl #4
    11a4:	04340600 	ldrteq	r0, [r4], #-1536	; 0x600
    11a8:	04010000 	streq	r0, [r1], #-0
    11ac:	00000025 	andeq	r0, r0, r5, lsr #32
    11b0:	000085e4 	andeq	r8, r0, r4, ror #11
    11b4:	00000034 	andeq	r0, r0, r4, lsr r0
    11b8:	00ab9c01 	adceq	r9, fp, r1, lsl #24
    11bc:	70070000 	andvc	r0, r7, r0
    11c0:	79040100 	stmdbvc	r4, {r8}
    11c4:	19000000 	stmdbne	r0, {}	; <UNPREDICTABLE>
    11c8:	00000003 	andeq	r0, r0, r3
    11cc:	00002508 	andeq	r2, r0, r8, lsl #10
    11d0:	0000ba00 	andeq	fp, r0, r0, lsl #20
    11d4:	00250900 	eoreq	r0, r5, r0, lsl #18
    11d8:	0a000000 	beq	11e0 <__code_start__-0x6e20>
    11dc:	00000400 	andeq	r0, r0, r0, lsl #8
    11e0:	00c51d02 	sbceq	r1, r5, r2, lsl #26
    11e4:	04040000 	streq	r0, [r4], #-0
    11e8:	000000ab 	andeq	r0, r0, fp, lsr #1
    11ec:	00002508 	andeq	r2, r0, r8, lsl #10
    11f0:	0000da00 	andeq	sp, r0, r0, lsl #20
    11f4:	00790900 	rsbseq	r0, r9, r0, lsl #18
    11f8:	0b000000 	bleq	1200 <__code_start__-0x6e00>
    11fc:	0000043d 	andeq	r0, r0, sp, lsr r4
    1200:	00eb0c01 	rsceq	r0, fp, r1, lsl #24
    1204:	03050000 	movweq	r0, #20480	; 0x5000
    1208:	0000918c 	andeq	r9, r0, ip, lsl #3
    120c:	00cb0404 	sbceq	r0, fp, r4, lsl #8
    1210:	e5000000 	str	r0, [r0, #-0]
    1214:	04000006 	streq	r0, [r0], #-6
    1218:	00066900 	andeq	r6, r6, r0, lsl #18
    121c:	2f010400 	svccs	0x00010400
    1220:	01000003 	tsteq	r0, r3
    1224:	00000473 	andeq	r0, r0, r3, ror r4
    1228:	0000039a 	muleq	r0, sl, r3
    122c:	00008618 	andeq	r8, r0, r8, lsl r6
    1230:	00000578 	andeq	r0, r0, r8, ror r5
    1234:	00000546 	andeq	r0, r0, r6, asr #10
    1238:	69050402 	stmdbvs	r5, {r1, sl}
    123c:	0300746e 	movweq	r7, #1134	; 0x46e
    1240:	012f0704 	teqeq	pc, r4, lsl #14
    1244:	01030000 	mrseq	r0, (UNDEF: 3)
    1248:	00006206 	andeq	r6, r0, r6, lsl #4
    124c:	05020300 	streq	r0, [r2, #-768]	; 0x300
    1250:	00000158 	andeq	r0, r0, r8, asr r1
    1254:	4a050403 	bmi	142268 <__bss_end__+0x1387f0>
    1258:	03000001 	movweq	r0, #1
    125c:	01450508 	cmpeq	r5, r8, lsl #10
    1260:	01030000 	mrseq	r0, (UNDEF: 3)
    1264:	00006008 	andeq	r6, r0, r8
    1268:	07020300 	streq	r0, [r2, -r0, lsl #6]
    126c:	0000007b 	andeq	r0, r0, fp, ror r0
    1270:	2a070403 	bcs	1c2284 <__bss_end__+0x1b880c>
    1274:	03000001 	movweq	r0, #1
    1278:	01250708 	teqeq	r5, r8, lsl #14
    127c:	04030000 	streq	r0, [r3], #-0
    1280:	00013c07 	andeq	r3, r1, r7, lsl #24
    1284:	05040400 	streq	r0, [r4, #-1024]	; 0x400
    1288:	00007a04 	andeq	r7, r0, r4, lsl #20
    128c:	08010300 	stmdaeq	r1, {r8, r9}
    1290:	00000069 	andeq	r0, r0, r9, rrx
    1294:	00870405 	addeq	r0, r7, r5, lsl #8
    1298:	7a060000 	bvc	1812a0 <__bss_end__+0x177828>
    129c:	07000000 	streq	r0, [r0, -r0]
    12a0:	00000312 	andeq	r0, r0, r2, lsl r3
    12a4:	00972802 	addseq	r2, r7, r2, lsl #16
    12a8:	90080000 	andls	r0, r8, r0
    12ac:	04000003 	streq	r0, [r0], #-3
    12b0:	00ae0004 	adceq	r0, lr, r4
    12b4:	e0090000 	and	r0, r9, r0
    12b8:	72000003 	andvc	r0, r0, #3
    12bc:	00000000 	andeq	r0, r0, r0
    12c0:	03920700 	orrseq	r0, r2, #0, 14
    12c4:	62020000 	andvs	r0, r2, #0
    12c8:	0000008c 	andeq	r0, r0, ip, lsl #1
    12cc:	00045a0a 	andeq	r5, r4, sl, lsl #20
    12d0:	25270100 	strcs	r0, [r7, #-256]!	; 0x100
    12d4:	18000000 	stmdane	r0, {}	; <UNPREDICTABLE>
    12d8:	14000086 	strne	r0, [r0], #-134	; 0x86
    12dc:	01000000 	mrseq	r0, (UNDEF: 0)
    12e0:	0000e09c 	muleq	r0, ip, r0
    12e4:	00630b00 	rsbeq	r0, r3, r0, lsl #22
    12e8:	00252701 	eoreq	r2, r5, r1, lsl #14
    12ec:	03370000 	teqeq	r7, #0
    12f0:	0c000000 	stceq	0, cr0, [r0], {-0}
    12f4:	00646170 	rsbeq	r6, r4, r0, ror r1
    12f8:	00742e01 	rsbseq	r2, r4, r1, lsl #28
    12fc:	862c0000 	strthi	r0, [ip], -r0
    1300:	002c0000 	eoreq	r0, ip, r0
    1304:	9c010000 	stcls	0, cr0, [r1], {-0}
    1308:	00000130 	andeq	r0, r0, r0, lsr r1
    130c:	0100700b 	tsteq	r0, fp
    1310:	0000742e 	andeq	r7, r0, lr, lsr #8
    1314:	00036500 	andeq	r6, r3, r0, lsl #10
    1318:	08990d00 	ldmeq	r9, {r8, sl, fp}
    131c:	2e010000 	cdpcs	0, 0, cr0, cr1, cr0, {0}
    1320:	00000074 	andeq	r0, r0, r4, ror r0
    1324:	00000390 	muleq	r0, r0, r3
    1328:	0004930e 	andeq	r9, r4, lr, lsl #6
    132c:	252e0100 	strcs	r0, [lr, #-256]!	; 0x100
    1330:	01000000 	mrseq	r0, (UNDEF: 0)
    1334:	656c0f52 	strbvs	r0, [ip, #-3922]!	; 0xf52
    1338:	2f01006e 	svccs	0x0001006e
    133c:	00000025 	andeq	r0, r0, r5, lsr #32
    1340:	0a005101 	beq	1574c <__bss_end__+0xbcd4>
    1344:	00000452 	andeq	r0, r0, r2, asr r4
    1348:	00743701 	rsbseq	r3, r4, r1, lsl #14
    134c:	86580000 	ldrbhi	r0, [r8], -r0
    1350:	00400000 	subeq	r0, r0, r0
    1354:	9c010000 	stcls	0, cr0, [r1], {-0}
    1358:	0000019c 	muleq	r0, ip, r1
    135c:	7473640b 	ldrbtvc	r6, [r3], #-1035	; 0x40b
    1360:	74370100 	ldrtvc	r0, [r7], #-256	; 0x100
    1364:	b1000000 	mrslt	r0, (UNDEF: 0)
    1368:	0b000003 	bleq	137c <__code_start__-0x6c84>
    136c:	3701006e 	strcc	r0, [r1, -lr, rrx]
    1370:	00000025 	andeq	r0, r0, r5, lsr #32
    1374:	000003e9 	andeq	r0, r0, r9, ror #7
    1378:	0100700b 	tsteq	r0, fp
    137c:	00007437 	andeq	r7, r0, r7, lsr r4
    1380:	00040a00 	andeq	r0, r4, r0, lsl #20
    1384:	04460d00 	strbeq	r0, [r6], #-3328	; 0xd00
    1388:	37010000 	strcc	r0, [r1, -r0]
    138c:	00000074 	andeq	r0, r0, r4, ror r0
    1390:	00000440 	andeq	r0, r0, r0, asr #8
    1394:	6e656c10 	mcrvs	12, 3, r6, cr5, cr0, {0}
    1398:	25390100 	ldrcs	r0, [r9, #-256]!	; 0x100
    139c:	5e000000 	cdppl	0, 0, cr0, cr0, cr0, {0}
    13a0:	0f000004 	svceq	0x00000004
    13a4:	3d010073 	stccc	0, cr0, [r1, #-460]	; 0xfffffe34
    13a8:	00000074 	andeq	r0, r0, r4, ror r0
    13ac:	0a005001 	beq	153b8 <__bss_end__+0xb940>
    13b0:	000004a1 	andeq	r0, r0, r1, lsr #9
    13b4:	00744701 	rsbseq	r4, r4, r1, lsl #14
    13b8:	86980000 	ldrhi	r0, [r8], r0
    13bc:	01bc0000 			; <UNDEFINED> instruction: 0x01bc0000
    13c0:	9c010000 	stcls	0, cr0, [r1], {-0}
    13c4:	000002df 	ldrdeq	r0, [r0], -pc	; <UNPREDICTABLE>
    13c8:	0008990d 	andeq	r9, r8, sp, lsl #18
    13cc:	2c470100 	stfcse	f0, [r7], {-0}
    13d0:	85000000 	strhi	r0, [r0, #-0]
    13d4:	0b000004 	bleq	13ec <__code_start__-0x6c14>
    13d8:	00747364 	rsbseq	r7, r4, r4, ror #6
    13dc:	00744701 	rsbseq	r4, r4, r1, lsl #14
    13e0:	04b30000 	ldrteq	r0, [r3], #0
    13e4:	6e0b0000 	cdpvs	0, 0, cr0, cr11, cr0, {0}
    13e8:	25470100 	strbcs	r0, [r7, #-256]	; 0x100
    13ec:	21000000 	mrscs	r0, (UNDEF: 0)
    13f0:	0b000005 	bleq	140c <__code_start__-0x6bf4>
    13f4:	006c6176 	rsbeq	r6, ip, r6, ror r1
    13f8:	00254701 	eoreq	r4, r5, r1, lsl #14
    13fc:	054d0000 	strbeq	r0, [sp, #-0]
    1400:	930d0000 	movwls	r0, #53248	; 0xd000
    1404:	01000004 	tsteq	r0, r4
    1408:	00002547 	andeq	r2, r0, r7, asr #10
    140c:	0005cc00 	andeq	ip, r5, r0, lsl #24
    1410:	046a0e00 	strbteq	r0, [sl], #-3584	; 0xe00
    1414:	47010000 	strmi	r0, [r1, -r0]
    1418:	00000025 	andeq	r0, r0, r5, lsr #32
    141c:	0f049102 	svceq	0x00049102
    1420:	00667562 	rsbeq	r7, r6, r2, ror #10
    1424:	02df4c01 	sbcseq	r4, pc, #256	; 0x100
    1428:	91030000 	mrsls	r0, (UNDEF: 3)
    142c:	70107fa8 	andsvc	r7, r0, r8, lsr #31
    1430:	744c0100 	strbvc	r0, [ip], #-256	; 0x100
    1434:	f6000000 			; <UNDEFINED> instruction: 0xf6000000
    1438:	10000005 	andne	r0, r0, r5
    143c:	4d010075 	stcmi	0, cr0, [r1, #-468]	; 0xfffffe2c
    1440:	0000002c 	andeq	r0, r0, ip, lsr #32
    1444:	000006e0 	andeq	r0, r0, r0, ror #13
    1448:	0000ab11 	andeq	sl, r0, r1, lsl fp
    144c:	0002ff00 	andeq	pc, r2, r0, lsl #30
    1450:	18030500 	stmdane	r3, {r8, sl}
    1454:	12000094 	andne	r0, r0, #148	; 0x94
    1458:	00008704 	andeq	r8, r0, r4, lsl #14
    145c:	00000074 	andeq	r0, r0, r4, ror r0
    1460:	00000261 	andeq	r0, r0, r1, ror #4
    1464:	00044c13 	andeq	r4, r4, r3, lsl ip
    1468:	2c520100 	ldfcse	f0, [r2], {-0}
    146c:	a3000000 	movwge	r0, #0
    1470:	00000007 	andeq	r0, r0, r7
    1474:	0087f014 	addeq	pc, r7, r4, lsl r0	; <UNPREDICTABLE>
    1478:	0006c400 	andeq	ip, r6, r0, lsl #8
    147c:	880c1500 	stmdahi	ip, {r8, sl, ip}
    1480:	06cb0000 	strbeq	r0, [fp], r0
    1484:	02a30000 	adceq	r0, r3, #0
    1488:	01160000 	tsteq	r6, r0
    148c:	77080253 	smlsdvc	r8, r3, r2, r0
    1490:	05520116 	ldrbeq	r0, [r2, #-278]	; 0x116
    1494:	00941803 	addseq	r1, r4, r3, lsl #16
    1498:	51011600 	tstpl	r1, r0, lsl #12
    149c:	943c0305 	ldrtls	r0, [ip], #-773	; 0x305
    14a0:	01160000 	tsteq	r6, r0
    14a4:	fc030550 	stc2	5, cr0, [r3], {80}	; 0x50
    14a8:	16000091 			; <UNDEFINED> instruction: 0x16000091
    14ac:	05007d02 	streq	r7, [r0, #-3330]	; 0xd02
    14b0:	00945003 	addseq	r5, r4, r3
    14b4:	10140000 	andsne	r0, r4, r0
    14b8:	e1000088 	smlabb	r0, r8, r0, r0
    14bc:	15000006 	strne	r0, [r0, #-6]
    14c0:	00008818 	andeq	r8, r0, r8, lsl r8
    14c4:	000000e0 	andeq	r0, r0, r0, ror #1
    14c8:	000002c1 	andeq	r0, r0, r1, asr #5
    14cc:	03510116 	cmpeq	r1, #-2147483643	; 0x80000005
    14d0:	007fa091 			; <UNDEFINED> instruction: 0x007fa091
    14d4:	00882c17 	addeq	r2, r8, r7, lsl ip
    14d8:	00013000 	andeq	r3, r1, r0
    14dc:	53011600 	movwpl	r1, #5632	; 0x1600
    14e0:	7fa09103 	svcvc	0x00a09103
    14e4:	02510116 	subseq	r0, r1, #-2147483643	; 0x80000005
    14e8:	01160074 	tsteq	r6, r4, ror r0
    14ec:	00750250 	rsbseq	r0, r5, r0, asr r2
    14f0:	7a180000 	bvc	6014f8 <__bss_end__+0x5f7a80>
    14f4:	ef000000 	svc	0x00000000
    14f8:	19000002 	stmdbne	r0, {r1}
    14fc:	0000006b 	andeq	r0, r0, fp, rrx
    1500:	7a18003f 	bvc	601604 <__bss_end__+0x5f7b8c>
    1504:	ff000000 			; <UNDEFINED> instruction: 0xff000000
    1508:	19000002 	stmdbne	r0, {r1}
    150c:	0000006b 	andeq	r0, r0, fp, rrx
    1510:	ef060004 	svc	0x00060004
    1514:	1a000002 	bne	1524 <__code_start__-0x6adc>
    1518:	00000484 	andeq	r0, r0, r4, lsl #9
    151c:	88541f01 	ldmdahi	r4, {r0, r8, r9, sl, fp, ip}^
    1520:	00680000 	rsbeq	r0, r8, r0
    1524:	9c010000 	stcls	0, cr0, [r1], {-0}
    1528:	00000392 	muleq	r0, r2, r3
    152c:	0004990d 	andeq	r9, r4, sp, lsl #18
    1530:	a11f0100 	tstge	pc, r0, lsl #2
    1534:	cf000003 	svcgt	0x00000003
    1538:	0d000007 	stceq	0, cr0, [r0, #-28]	; 0xffffffe4
    153c:	00000462 	andeq	r0, r0, r2, ror #8
    1540:	03b61f01 			; <UNDEFINED> instruction: 0x03b61f01
    1544:	07fb0000 	ldrbeq	r0, [fp, r0]!
    1548:	ab110000 	blge	441550 <__bss_end__+0x437ad8>
    154c:	cc000000 	stcgt	0, cr0, [r0], {-0}
    1550:	05000003 	streq	r0, [r0, #-3]
    1554:	00942003 	addseq	r2, r4, r3
    1558:	88681400 	stmdahi	r8!, {sl, ip}^
    155c:	06c40000 	strbeq	r0, [r4], r0
    1560:	84150000 	ldrhi	r0, [r5], #-0
    1564:	cb000088 	blgt	178c <__code_start__-0x6874>
    1568:	88000006 	stmdahi	r0, {r1, r2}
    156c:	16000003 	strne	r0, [r0], -r3
    1570:	08025301 	stmdaeq	r2, {r0, r8, r9, ip, lr}
    1574:	52011620 	andpl	r1, r1, #32, 12	; 0x2000000
    1578:	94200305 	strtls	r0, [r0], #-773	; 0x305
    157c:	01160000 	tsteq	r6, r0
    1580:	3c030551 	cfstr32cc	mvfx0, [r3], {81}	; 0x51
    1584:	16000094 			; <UNDEFINED> instruction: 0x16000094
    1588:	03055001 	movweq	r5, #20481	; 0x5001
    158c:	000091fc 	strdeq	r9, [r0], -ip
    1590:	007d0216 	rsbseq	r0, sp, r6, lsl r2
    1594:	94780305 	ldrbtls	r0, [r8], #-773	; 0x305
    1598:	14000000 	strne	r0, [r0], #-0
    159c:	00008888 	andeq	r8, r0, r8, lsl #17
    15a0:	000006e1 	andeq	r0, r0, r1, ror #13
    15a4:	00251b00 	eoreq	r1, r5, r0, lsl #22
    15a8:	03a10000 			; <UNDEFINED> instruction: 0x03a10000
    15ac:	251c0000 	ldrcs	r0, [ip, #-0]
    15b0:	00000000 	andeq	r0, r0, r0
    15b4:	03920405 	orrseq	r0, r2, #83886080	; 0x5000000
    15b8:	251b0000 	ldrcs	r0, [fp, #-0]
    15bc:	b6000000 	strlt	r0, [r0], -r0
    15c0:	1c000003 	stcne	0, cr0, [r0], {3}
    15c4:	00000081 	andeq	r0, r0, r1, lsl #1
    15c8:	a7040500 	strge	r0, [r4, -r0, lsl #10]
    15cc:	18000003 	stmdane	r0, {r0, r1}
    15d0:	0000007a 	andeq	r0, r0, sl, ror r0
    15d4:	000003cc 	andeq	r0, r0, ip, asr #7
    15d8:	00006b19 	andeq	r6, r0, r9, lsl fp
    15dc:	06000e00 	streq	r0, [r0], -r0, lsl #28
    15e0:	000003bc 			; <UNDEFINED> instruction: 0x000003bc
    15e4:	0003861d 	andeq	r8, r3, sp, lsl r6
    15e8:	257f0100 	ldrbcs	r0, [pc, #-256]!	; 14f0 <__code_start__-0x6b10>
    15ec:	bc000000 	stclt	0, cr0, [r0], {-0}
    15f0:	d4000088 	strle	r0, [r0], #-136	; 0x88
    15f4:	01000002 	tsteq	r0, r2
    15f8:	0006899c 	muleq	r6, ip, r9
    15fc:	75620b00 	strbvc	r0, [r2, #-2816]!	; 0xb00
    1600:	7f010066 	svcvc	0x00010066
    1604:	00000074 	andeq	r0, r0, r4, ror r0
    1608:	00000827 	andeq	r0, r0, r7, lsr #16
    160c:	01006e0b 	tsteq	r0, fp, lsl #28
    1610:	0000257f 	andeq	r2, r0, pc, ror r5
    1614:	00085300 	andeq	r5, r8, r0, lsl #6
    1618:	6d660b00 	vstmdbvs	r6!, {d16-d15}
    161c:	7f010074 	svcvc	0x00010074
    1620:	00000081 	andeq	r0, r0, r1, lsl #1
    1624:	00000881 	andeq	r0, r0, r1, lsl #17
    1628:	0008bb0d 	andeq	fp, r8, sp, lsl #22
    162c:	ae7f0100 	rpwgee	f0, f7, f0
    1630:	9f000000 	svcls	0x00000000
    1634:	10000008 	andne	r0, r0, r8
    1638:	80010070 	andhi	r0, r1, r0, ror r0
    163c:	00000074 	andeq	r0, r0, r4, ror r0
    1640:	000008b2 			; <UNDEFINED> instruction: 0x000008b2
    1644:	01006510 	tsteq	r0, r0, lsl r5
    1648:	00007480 	andeq	r7, r0, r0, lsl #9
    164c:	00093000 	andeq	r3, r9, r0
    1650:	04421300 	strbeq	r1, [r2], #-768	; 0x300
    1654:	83010000 	movwhi	r0, #4096	; 0x1000
    1658:	00000081 	andeq	r0, r0, r1, lsl #1
    165c:	00000957 	andeq	r0, r0, r7, asr r9
    1660:	0000ab11 	andeq	sl, r0, r1, lsl fp
    1664:	00069900 	andeq	r9, r6, r0, lsl #18
    1668:	30030500 	andcc	r0, r3, r0, lsl #10
    166c:	1e000094 	mcrne	0, 0, r0, cr0, cr4, {4}
    1670:	00008918 	andeq	r8, r0, r8, lsl r9
    1674:	0000022c 	andeq	r0, r0, ip, lsr #4
    1678:	01007310 	tsteq	r0, r0, lsl r3
    167c:	0000748e 	andeq	r7, r0, lr, lsl #9
    1680:	00097700 	andeq	r7, r9, r0, lsl #14
    1684:	756e0f00 	strbvc	r0, [lr, #-3840]!	; 0xf00
    1688:	8e01006d 	cdphi	0, 0, cr0, cr1, cr13, {3}
    168c:	0000069e 	muleq	r0, lr, r6
    1690:	7ed89103 	atnvce	f1, f3
    1694:	00049313 	andeq	r9, r4, r3, lsl r3
    1698:	2c8f0100 	stfcss	f0, [pc], {0}
    169c:	cc000000 	stcgt	0, cr0, [r0], {-0}
    16a0:	15000009 	strne	r0, [r0, #-9]
    16a4:	00008948 	andeq	r8, r0, r8, asr #18
    16a8:	000000b9 	strheq	r0, [r0], -r9
    16ac:	000004a4 	andeq	r0, r0, r4, lsr #9
    16b0:	02500116 	subseq	r0, r0, #-2147483643	; 0x80000005
    16b4:	14000075 	strne	r0, [r0], #-117	; 0x75
    16b8:	0000895c 	andeq	r8, r0, ip, asr r9
    16bc:	000006c4 	andeq	r0, r0, r4, asr #13
    16c0:	00897815 	addeq	r7, r9, r5, lsl r8
    16c4:	0006cb00 	andeq	ip, r6, r0, lsl #22
    16c8:	0004e600 	andeq	lr, r4, r0, lsl #12
    16cc:	53011600 	movwpl	r1, #5632	; 0x1600
    16d0:	16950802 	ldrne	r0, [r5], r2, lsl #16
    16d4:	03055201 	movweq	r5, #20993	; 0x5201
    16d8:	00009430 	andeq	r9, r0, r0, lsr r4
    16dc:	05510116 	ldrbeq	r0, [r1, #-278]	; 0x116
    16e0:	00943c03 	addseq	r3, r4, r3, lsl #24
    16e4:	50011600 	andpl	r1, r1, r0, lsl #12
    16e8:	91fc0305 	mvnsls	r0, r5, lsl #6
    16ec:	02160000 	andseq	r0, r6, #0
    16f0:	0305007d 	movweq	r0, #20605	; 0x507d
    16f4:	00009480 	andeq	r9, r0, r0, lsl #9
    16f8:	897c1400 	ldmdbhi	ip!, {sl, ip}^
    16fc:	06e10000 	strbteq	r0, [r1], r0
    1700:	ec140000 	ldc	0, cr0, [r4], {-0}
    1704:	c4000089 	strgt	r0, [r0], #-137	; 0x89
    1708:	15000006 	strne	r0, [r0, #-6]
    170c:	00008a00 	andeq	r8, r0, r0, lsl #20
    1710:	000006cb 	andeq	r0, r0, fp, asr #13
    1714:	00000527 	andeq	r0, r0, r7, lsr #10
    1718:	02530116 	subseq	r0, r3, #-2147483643	; 0x80000005
    171c:	01169b08 	tsteq	r6, r8, lsl #22
    1720:	30030552 	andcc	r0, r3, r2, asr r5
    1724:	16000094 			; <UNDEFINED> instruction: 0x16000094
    1728:	03055101 	movweq	r5, #20737	; 0x5101
    172c:	0000943c 	andeq	r9, r0, ip, lsr r4
    1730:	05500116 	ldrbeq	r0, [r0, #-278]	; 0x116
    1734:	00948c03 	addseq	r8, r4, r3, lsl #24
    1738:	04140000 	ldreq	r0, [r4], #-0
    173c:	e100008a 	smlabb	r0, sl, r0, r0
    1740:	15000006 	strne	r0, [r0, #-6]
    1744:	00008a28 	andeq	r8, r0, r8, lsr #20
    1748:	0000019c 	muleq	r0, ip, r1
    174c:	0000055d 	andeq	r0, r0, sp, asr r5
    1750:	02520116 	subseq	r0, r2, #-2147483643	; 0x80000005
    1754:	01168008 	tsteq	r6, r8
    1758:	d0910351 	addsle	r0, r1, r1, asr r3
    175c:	5001167e 	andpl	r1, r1, lr, ror r6
    1760:	02163a01 	andseq	r3, r6, #4096	; 0x1000
    1764:	3101047d 	tstcc	r1, sp, ror r4
    1768:	007d0216 	rsbseq	r0, sp, r6, lsl r2
    176c:	00007702 	andeq	r7, r0, r2, lsl #14
    1770:	008a5015 	addeq	r5, sl, r5, lsl r0
    1774:	00019c00 	andeq	r9, r1, r0, lsl #24
    1778:	00058a00 	andeq	r8, r5, r0, lsl #20
    177c:	52011600 	andpl	r1, r1, #0, 12
    1780:	16800802 	strne	r0, [r0], r2, lsl #16
    1784:	91035101 	tstls	r3, r1, lsl #2
    1788:	01167ed0 			; <UNDEFINED> instruction: 0x01167ed0
    178c:	163a0150 			; <UNDEFINED> instruction: 0x163a0150
    1790:	01047d02 	tsteq	r4, r2, lsl #26
    1794:	7d021630 	stcvc	6, cr1, [r2, #-192]	; 0xffffff40
    1798:	00770200 	rsbseq	r0, r7, r0, lsl #4
    179c:	8a781500 	bhi	1e06ba4 <__bss_end__+0x1dfd12c>
    17a0:	019c0000 	orrseq	r0, ip, r0
    17a4:	05b70000 	ldreq	r0, [r7, #0]!
    17a8:	01160000 	tsteq	r6, r0
    17ac:	80080252 	andhi	r0, r8, r2, asr r2
    17b0:	03510116 	cmpeq	r1, #-2147483643	; 0x80000005
    17b4:	167ed091 			; <UNDEFINED> instruction: 0x167ed091
    17b8:	40015001 	andmi	r5, r1, r1
    17bc:	047d0216 	ldrbteq	r0, [sp], #-534	; 0x216
    17c0:	02163001 	andseq	r3, r6, #1
    17c4:	7702007d 	smlsdxvc	r2, sp, r0, r0
    17c8:	a0150000 	andsge	r0, r5, r0
    17cc:	9c00008a 	stcls	0, cr0, [r0], {138}	; 0x8a
    17d0:	e4000001 	str	r0, [r0], #-1
    17d4:	16000005 	strne	r0, [r0], -r5
    17d8:	08025201 	stmdaeq	r2, {r0, r9, ip, lr}
    17dc:	51011680 	smlabbpl	r1, r0, r6, r1
    17e0:	7ed09103 	atnvcs	f1, f3
    17e4:	01500116 	cmpeq	r0, r6, lsl r1
    17e8:	7d021632 	stcvc	6, cr1, [r2, #-200]	; 0xffffff38
    17ec:	16300104 	ldrtne	r0, [r0], -r4, lsl #2
    17f0:	02007d02 	andeq	r7, r0, #2, 26	; 0x80
    17f4:	15000077 	strne	r0, [r0, #-119]	; 0x77
    17f8:	00008ad4 	ldrdeq	r8, [r0], -r4
    17fc:	0000019c 	muleq	r0, ip, r1
    1800:	00000611 	andeq	r0, r0, r1, lsl r6
    1804:	02520116 	subseq	r0, r2, #-2147483643	; 0x80000005
    1808:	01168008 	tsteq	r6, r8
    180c:	d0910351 	addsle	r0, r1, r1, asr r3
    1810:	5001167e 	andpl	r1, r1, lr, ror r6
    1814:	02163801 	andseq	r3, r6, #65536	; 0x10000
    1818:	3001047d 	andcc	r0, r1, sp, ror r4
    181c:	007d0216 	rsbseq	r0, sp, r6, lsl r2
    1820:	00007702 	andeq	r7, r0, r2, lsl #14
    1824:	008af015 	addeq	pc, sl, r5, lsl r0	; <UNPREDICTABLE>
    1828:	0006cb00 	andeq	ip, r6, r0, lsl #22
    182c:	00063400 	andeq	r3, r6, r0, lsl #8
    1830:	52011600 	andpl	r1, r1, #0, 12
    1834:	16007902 	strne	r7, [r0], -r2, lsl #18
    1838:	79025101 	stmdbvc	r2, {r0, r8, ip, lr}
    183c:	50011600 	andpl	r1, r1, r0, lsl #12
    1840:	94b40305 	ldrtls	r0, [r4], #773	; 0x305
    1844:	1f000000 	svcne	0x00000000
    1848:	00008b00 	andeq	r8, r0, r0, lsl #22
    184c:	00000646 	andeq	r0, r0, r6, asr #12
    1850:	04500116 	ldrbeq	r0, [r0], #-278	; 0x116
    1854:	067ecc91 			; <UNDEFINED> instruction: 0x067ecc91
    1858:	8b041400 	blhi	106860 <__bss_end__+0xfcde8>
    185c:	06c40000 	strbeq	r0, [r4], r0
    1860:	18150000 	ldmdane	r5, {}	; <UNPREDICTABLE>
    1864:	cb00008b 	blgt	1a98 <__code_start__-0x6568>
    1868:	7e000006 	cdpvc	0, 0, cr0, cr0, cr6, {0}
    186c:	16000006 	strne	r0, [r0], -r6
    1870:	08025301 	stmdaeq	r2, {r0, r8, r9, ip, lr}
    1874:	520116bf 	andpl	r1, r1, #200278016	; 0xbf00000
    1878:	94300305 	ldrtls	r0, [r0], #-773	; 0x305
    187c:	01160000 	tsteq	r6, r0
    1880:	3c030551 	cfstr32cc	mvfx0, [r3], {81}	; 0x51
    1884:	16000094 			; <UNDEFINED> instruction: 0x16000094
    1888:	03055001 	movweq	r5, #20481	; 0x5001
    188c:	000094e4 	andeq	r9, r0, r4, ror #9
    1890:	8b1c1400 	blhi	706898 <__bss_end__+0x6fce20>
    1894:	06e10000 	strbteq	r0, [r1], r0
    1898:	00000000 	andeq	r0, r0, r0
    189c:	00007a18 	andeq	r7, r0, r8, lsl sl
    18a0:	00069900 	andeq	r9, r6, r0, lsl #18
    18a4:	006b1900 	rsbeq	r1, fp, r0, lsl #18
    18a8:	00090000 	andeq	r0, r9, r0
    18ac:	00068906 	andeq	r8, r6, r6, lsl #18
    18b0:	007a1800 	rsbseq	r1, sl, r0, lsl #16
    18b4:	06ae0000 	strteq	r0, [lr], r0
    18b8:	6b190000 	blvs	6418c0 <__bss_end__+0x637e48>
    18bc:	7f000000 	svcvc	0x00000000
    18c0:	04002000 	streq	r2, [r0], #-0
    18c4:	1d030000 	stcne	0, cr0, [r3, #-0]
    18c8:	000003a1 	andeq	r0, r0, r1, lsr #7
    18cc:	00043d20 	andeq	r3, r4, r0, lsr #26
    18d0:	b6220300 	strtlt	r0, [r2], -r0, lsl #6
    18d4:	21000003 	tstcs	r0, r3
    18d8:	0000018b 	andeq	r0, r0, fp, lsl #3
    18dc:	89221e03 	stmdbhi	r2!, {r0, r1, r9, sl, fp, ip}
    18e0:	03000003 	movweq	r0, #3
    18e4:	00002529 	andeq	r2, r0, r9, lsr #10
    18e8:	0006e100 	andeq	lr, r6, r0, lsl #2
    18ec:	00811c00 	addeq	r1, r1, r0, lsl #24
    18f0:	00230000 	eoreq	r0, r3, r0
    18f4:	00006e21 	andeq	r6, r0, r1, lsr #28
    18f8:	00650300 	rsbeq	r0, r5, r0, lsl #6
    18fc:	0000010f 	andeq	r0, r0, pc, lsl #2
    1900:	08520004 	ldmdaeq	r2, {r2}^
    1904:	01040000 	mrseq	r0, (UNDEF: 4)
    1908:	0000032f 	andeq	r0, r0, pc, lsr #6
    190c:	0004b501 	andeq	fp, r4, r1, lsl #10
    1910:	00039a00 	andeq	r9, r3, r0, lsl #20
    1914:	008b9000 	addeq	r9, fp, r0
    1918:	00002c00 	andeq	r2, r0, r0, lsl #24
    191c:	00073b00 	andeq	r3, r7, r0, lsl #22
    1920:	05040200 	streq	r0, [r4, #-512]	; 0x200
    1924:	00746e69 	rsbseq	r6, r4, r9, ror #28
    1928:	2f070403 	svccs	0x00070403
    192c:	03000001 	movweq	r0, #1
    1930:	00620601 	rsbeq	r0, r2, r1, lsl #12
    1934:	02030000 	andeq	r0, r3, #0
    1938:	00015805 	andeq	r5, r1, r5, lsl #16
    193c:	05040300 	streq	r0, [r4, #-768]	; 0x300
    1940:	0000014a 	andeq	r0, r0, sl, asr #2
    1944:	45050803 	strmi	r0, [r5, #-2051]	; 0x803
    1948:	03000001 	movweq	r0, #1
    194c:	00600801 	rsbeq	r0, r0, r1, lsl #16
    1950:	02030000 	andeq	r0, r3, #0
    1954:	00007b07 	andeq	r7, r0, r7, lsl #22
    1958:	07040300 	streq	r0, [r4, -r0, lsl #6]
    195c:	0000012a 	andeq	r0, r0, sl, lsr #2
    1960:	25070803 	strcs	r0, [r7, #-2051]	; 0x803
    1964:	03000001 	movweq	r0, #1
    1968:	013c0704 	teqeq	ip, r4, lsl #14
    196c:	01030000 	mrseq	r0, (UNDEF: 3)
    1970:	00006908 	andeq	r6, r0, r8, lsl #18
    1974:	7f040400 	svcvc	0x00040400
    1978:	05000000 	streq	r0, [r0, #-0]
    197c:	00000072 	andeq	r0, r0, r2, ror r0
    1980:	00006e06 	andeq	r6, r0, r6, lsl #28
    1984:	90040100 	andls	r0, r4, r0, lsl #2
    1988:	2c00008b 	stccs	0, cr0, [r0], {139}	; 0x8b
    198c:	01000000 	mrseq	r0, (UNDEF: 0)
    1990:	0000d39c 	muleq	r0, ip, r3
    1994:	8b980700 	blhi	fe60359c <__bss_end__+0xfe5f9b24>
    1998:	00f30000 	rscseq	r0, r3, r0
    199c:	a8080000 	stmdage	r8, {}	; <UNPREDICTABLE>
    19a0:	b500008b 	strlt	r0, [r0, #-139]	; 0x8b
    19a4:	09000000 	stmdbeq	r0, {}	; <UNPREDICTABLE>
    19a8:	03055001 	movweq	r5, #20481	; 0x5001
    19ac:	00009504 	andeq	r9, r0, r4, lsl #10
    19b0:	8bb00a00 	blhi	fec041b8 <__bss_end__+0xfebfa740>
    19b4:	00fa0000 	rscseq	r0, sl, r0
    19b8:	00c90000 	sbceq	r0, r9, r0
    19bc:	01090000 	mrseq	r0, (UNDEF: 9)
    19c0:	64080250 	strvs	r0, [r8], #-592	; 0x250
    19c4:	8bb40700 	blhi	fed035cc <__bss_end__+0xfecf9b54>
    19c8:	010b0000 	mrseq	r0, (UNDEF: 11)
    19cc:	0b000000 	bleq	19d4 <__code_start__-0x662c>
    19d0:	00000025 	andeq	r0, r0, r5, lsr #32
    19d4:	000000e2 	andeq	r0, r0, r2, ror #1
    19d8:	0000790c 	andeq	r7, r0, ip, lsl #18
    19dc:	3d0d0000 	stccc	0, cr0, [sp, #-0]
    19e0:	02000004 	andeq	r0, r0, #4
    19e4:	0000ed22 	andeq	lr, r0, r2, lsr #26
    19e8:	d3040400 	movwle	r0, #17408	; 0x4400
    19ec:	0e000000 	cdpeq	0, 0, cr0, cr0, cr0, {0}
    19f0:	000004a6 	andeq	r0, r0, r6, lsr #9
    19f4:	d90fdc02 	stmdble	pc, {r1, sl, fp, ip, lr, pc}	; <UNPREDICTABLE>
    19f8:	02000004 	andeq	r0, r0, #4
    19fc:	00010b4f 	andeq	r0, r1, pc, asr #22
    1a00:	002c0c00 	eoreq	r0, ip, r0, lsl #24
    1a04:	0e000000 	cdpeq	0, 0, cr0, cr0, cr0, {0}
    1a08:	000004ce 	andeq	r0, r0, lr, asr #9
    1a0c:	0f006202 	svceq	0x00006202
    1a10:	04000001 	streq	r0, [r0], #-1
    1a14:	00091c00 	andeq	r1, r9, r0, lsl #24
    1a18:	2f010400 	svccs	0x00010400
    1a1c:	01000003 	tsteq	r0, r3
    1a20:	0000051b 	andeq	r0, r0, fp, lsl r5
    1a24:	0000039a 	muleq	r0, sl, r3
    1a28:	00008bbc 			; <UNDEFINED> instruction: 0x00008bbc
    1a2c:	00000038 	andeq	r0, r0, r8, lsr r0
    1a30:	000007dc 	ldrdeq	r0, [r0], -ip
    1a34:	69050402 	stmdbvs	r5, {r1, sl}
    1a38:	0300746e 	movweq	r7, #1134	; 0x46e
    1a3c:	012f0704 	teqeq	pc, r4, lsl #14
    1a40:	01030000 	mrseq	r0, (UNDEF: 3)
    1a44:	00006206 	andeq	r6, r0, r6, lsl #4
    1a48:	05020300 	streq	r0, [r2, #-768]	; 0x300
    1a4c:	00000158 	andeq	r0, r0, r8, asr r1
    1a50:	4a050403 	bmi	142a64 <__bss_end__+0x138fec>
    1a54:	03000001 	movweq	r0, #1
    1a58:	01450508 	cmpeq	r5, r8, lsl #10
    1a5c:	01030000 	mrseq	r0, (UNDEF: 3)
    1a60:	00006008 	andeq	r6, r0, r8
    1a64:	07020300 	streq	r0, [r2, -r0, lsl #6]
    1a68:	0000007b 	andeq	r0, r0, fp, ror r0
    1a6c:	2a070403 	bcs	1c2a80 <__bss_end__+0x1b9008>
    1a70:	03000001 	movweq	r0, #1
    1a74:	01250708 	teqeq	r5, r8, lsl #14
    1a78:	04030000 	streq	r0, [r3], #-0
    1a7c:	00013c07 	andeq	r3, r1, r7, lsl #24
    1a80:	08010300 	stmdaeq	r1, {r8, r9}
    1a84:	00000069 	andeq	r0, r0, r9, rrx
    1a88:	00051304 	andeq	r1, r5, r4, lsl #6
    1a8c:	bc0d0100 	stflts	f0, [sp], {-0}
    1a90:	3800008b 	stmdacc	r0, {r0, r1, r3, r7}
    1a94:	01000000 	mrseq	r0, (UNDEF: 0)
    1a98:	0000e19c 	muleq	r0, ip, r1
    1a9c:	04e20500 	strbteq	r0, [r2], #1280	; 0x500
    1aa0:	0e010000 	cdpeq	0, 0, cr0, cr1, cr0, {0}
    1aa4:	00000025 	andeq	r0, r0, r5, lsr #32
    1aa8:	0004f005 	andeq	pc, r4, r5
    1aac:	250e0100 	strcs	r0, [lr, #-256]	; 0x100
    1ab0:	06000000 	streq	r0, [r0], -r0
    1ab4:	00000058 	andeq	r0, r0, r8, asr r0
    1ab8:	62070f01 	andvs	r0, r7, #1, 30
    1abc:	01007373 	tsteq	r0, r3, ror r3
    1ac0:	0000e111 	andeq	lr, r0, r1, lsl r1
    1ac4:	0009f600 	andeq	pc, r9, r0, lsl #12
    1ac8:	050b0800 	streq	r0, [fp, #-2048]	; 0x800
    1acc:	12010000 	andne	r0, r1, #0
    1ad0:	000000e1 	andeq	r0, r0, r1, ror #1
    1ad4:	008be409 	addeq	lr, fp, r9, lsl #8
    1ad8:	0000fd00 	andeq	pc, r0, r0, lsl #26
    1adc:	8be80900 	blhi	ffa03ee4 <__bss_end__+0xff9fa46c>
    1ae0:	01040000 	mrseq	r0, (UNDEF: 4)
    1ae4:	ec090000 	stc	0, cr0, [r9], {-0}
    1ae8:	0b00008b 	bleq	1d1c <__code_start__-0x62e4>
    1aec:	00000001 	andeq	r0, r0, r1
    1af0:	0025040a 	eoreq	r0, r5, sl, lsl #8
    1af4:	e2050000 	and	r0, r5, #0
    1af8:	01000004 	tsteq	r0, r4
    1afc:	0000250e 	andeq	r2, r0, lr, lsl #10
    1b00:	04f00500 	ldrbteq	r0, [r0], #1280	; 0x500
    1b04:	0e010000 	cdpeq	0, 0, cr0, cr1, cr0, {0}
    1b08:	00000025 	andeq	r0, r0, r5, lsr #32
    1b0c:	0004fc06 	andeq	pc, r4, r6, lsl #24
    1b10:	06da0200 	ldrbeq	r0, [sl], r0, lsl #4
    1b14:	00000058 	andeq	r0, r0, r8, asr r0
    1b18:	6e06d702 	cdpvs	7, 0, cr13, cr6, cr2, {0}
    1b1c:	02000000 	andeq	r0, r0, #0
    1b20:	013e0065 	teqeq	lr, r5, rrx
    1b24:	00040000 	andeq	r0, r4, r0
    1b28:	000009b0 			; <UNDEFINED> instruction: 0x000009b0
    1b2c:	032f0104 	teqeq	pc, #4, 2
    1b30:	2e010000 	cdpcs	0, 0, cr0, cr1, cr0, {0}
    1b34:	9a000005 	bls	1b50 <__code_start__-0x64b0>
    1b38:	f4000003 	vst4.8	{d0-d3}, [r0], r3
    1b3c:	4400008b 	strmi	r0, [r0], #-139	; 0x8b
    1b40:	86000000 	strhi	r0, [r0], -r0
    1b44:	02000008 	andeq	r0, r0, #8
    1b48:	6e690504 	cdpvs	5, 6, cr0, cr9, cr4, {0}
    1b4c:	04030074 	streq	r0, [r3], #-116	; 0x74
    1b50:	00012f07 	andeq	r2, r1, r7, lsl #30
    1b54:	06010300 	streq	r0, [r1], -r0, lsl #6
    1b58:	00000062 	andeq	r0, r0, r2, rrx
    1b5c:	58050203 	stmdapl	r5, {r0, r1, r9}
    1b60:	03000001 	movweq	r0, #1
    1b64:	014a0504 	cmpeq	sl, r4, lsl #10
    1b68:	08030000 	stmdaeq	r3, {}	; <UNPREDICTABLE>
    1b6c:	00014505 	andeq	r4, r1, r5, lsl #10
    1b70:	08010300 	stmdaeq	r1, {r8, r9}
    1b74:	00000060 	andeq	r0, r0, r0, rrx
    1b78:	7b070203 	blvc	1c238c <__bss_end__+0x1b8914>
    1b7c:	03000000 	movweq	r0, #0
    1b80:	012a0704 	teqeq	sl, r4, lsl #14
    1b84:	08030000 	stmdaeq	r3, {}	; <UNPREDICTABLE>
    1b88:	00012507 	andeq	r2, r1, r7, lsl #10
    1b8c:	07040300 	streq	r0, [r4, -r0, lsl #6]
    1b90:	0000013c 	andeq	r0, r0, ip, lsr r1
    1b94:	69080103 	stmdbvs	r8, {r0, r1, r8}
    1b98:	04000000 	streq	r0, [r0], #-0
    1b9c:	00007f04 	andeq	r7, r0, r4, lsl #30
    1ba0:	00720500 	rsbseq	r0, r2, r0, lsl #10
    1ba4:	4f060000 	svcmi	0x00060000
    1ba8:	01000005 	tsteq	r0, r5
    1bac:	008bf402 	addeq	pc, fp, r2, lsl #8
    1bb0:	00004400 	andeq	r4, r0, r0, lsl #8
    1bb4:	089c0100 	ldmeq	ip, {r8}
    1bb8:	07000001 	streq	r0, [r0, -r1]
    1bbc:	01006370 	tsteq	r0, r0, ror r3
    1bc0:	00002c02 	andeq	r2, r0, r2, lsl #24
    1bc4:	000a1600 	andeq	r1, sl, r0, lsl #12
    1bc8:	00ab0800 	adceq	r0, fp, r0, lsl #16
    1bcc:	01180000 	tsteq	r8, r0
    1bd0:	03050000 	movweq	r0, #20480	; 0x5000
    1bd4:	00009510 	andeq	r9, r0, r0, lsl r5
    1bd8:	008c0409 	addeq	r0, ip, r9, lsl #8
    1bdc:	00011d00 	andeq	r1, r1, r0, lsl #26
    1be0:	8c240a00 	stchi	10, cr0, [r4], #-0
    1be4:	01240000 	teqeq	r4, r0
    1be8:	00fe0000 	rscseq	r0, lr, r0
    1bec:	010b0000 	mrseq	r0, (UNDEF: 11)
    1bf0:	0b320153 	bleq	c82144 <__bss_end__+0xc786cc>
    1bf4:	03055201 	movweq	r5, #20993	; 0x5201
    1bf8:	00009510 	andeq	r9, r0, r0, lsl r5
    1bfc:	0551010b 	ldrbeq	r0, [r1, #-267]	; 0x10b
    1c00:	00956403 	addseq	r6, r5, r3, lsl #8
    1c04:	50010b00 	andpl	r0, r1, r0, lsl #22
    1c08:	95280305 	strls	r0, [r8, #-773]!	; 0x305
    1c0c:	020b0000 	andeq	r0, fp, #0
    1c10:	7402047d 	strvc	r0, [r2], #-1149	; 0x47d
    1c14:	7d020b00 	vstrvc	d0, [r2, #-0]
    1c18:	88030500 	stmdahi	r3, {r8, sl}
    1c1c:	00000095 	muleq	r0, r5, r0
    1c20:	008c2809 	addeq	r2, ip, r9, lsl #16
    1c24:	00013a00 	andeq	r3, r1, r0, lsl #20
    1c28:	720c0000 	andvc	r0, ip, #0
    1c2c:	18000000 	stmdane	r0, {}	; <UNPREDICTABLE>
    1c30:	0d000001 	stceq	0, cr0, [r0, #-4]
    1c34:	0000006b 	andeq	r0, r0, fp, rrx
    1c38:	08050015 	stmdaeq	r5, {r0, r2, r4}
    1c3c:	0e000001 	cdpeq	0, 0, cr0, cr0, cr1, {0}
    1c40:	0000018b 	andeq	r0, r0, fp, lsl #3
    1c44:	890f1e02 	stmdbhi	pc, {r1, r9, sl, fp, ip}	; <UNPREDICTABLE>
    1c48:	02000003 	andeq	r0, r0, #3
    1c4c:	00002529 	andeq	r2, r0, r9, lsr #10
    1c50:	00013a00 	andeq	r3, r1, r0, lsl #20
    1c54:	00791000 	rsbseq	r1, r9, r0
    1c58:	00110000 	andseq	r0, r1, r0
    1c5c:	00006e0e 	andeq	r6, r0, lr, lsl #28
    1c60:	00650200 	rsbeq	r0, r5, r0, lsl #4
    1c64:	0000013e 	andeq	r0, r0, lr, lsr r1
    1c68:	0a880004 	beq	fe201c80 <__bss_end__+0xfe1f8208>
    1c6c:	01040000 	mrseq	r0, (UNDEF: 4)
    1c70:	0000032f 	andeq	r0, r0, pc, lsr #6
    1c74:	00057201 	andeq	r7, r5, r1, lsl #4
    1c78:	00039a00 	andeq	r9, r3, r0, lsl #20
    1c7c:	008c3800 	addeq	r3, ip, r0, lsl #16
    1c80:	00004400 	andeq	r4, r0, r0, lsl #8
    1c84:	00092c00 	andeq	r2, r9, r0, lsl #24
    1c88:	05040200 	streq	r0, [r4, #-512]	; 0x200
    1c8c:	00746e69 	rsbseq	r6, r4, r9, ror #28
    1c90:	2f070403 	svccs	0x00070403
    1c94:	03000001 	movweq	r0, #1
    1c98:	00620601 	rsbeq	r0, r2, r1, lsl #12
    1c9c:	02030000 	andeq	r0, r3, #0
    1ca0:	00015805 	andeq	r5, r1, r5, lsl #16
    1ca4:	05040300 	streq	r0, [r4, #-768]	; 0x300
    1ca8:	0000014a 	andeq	r0, r0, sl, asr #2
    1cac:	45050803 	strmi	r0, [r5, #-2051]	; 0x803
    1cb0:	03000001 	movweq	r0, #1
    1cb4:	00600801 	rsbeq	r0, r0, r1, lsl #16
    1cb8:	02030000 	andeq	r0, r3, #0
    1cbc:	00007b07 	andeq	r7, r0, r7, lsl #22
    1cc0:	07040300 	streq	r0, [r4, -r0, lsl #6]
    1cc4:	0000012a 	andeq	r0, r0, sl, lsr #2
    1cc8:	25070803 	strcs	r0, [r7, #-2051]	; 0x803
    1ccc:	03000001 	movweq	r0, #1
    1cd0:	013c0704 	teqeq	ip, r4, lsl #14
    1cd4:	01030000 	mrseq	r0, (UNDEF: 3)
    1cd8:	00006908 	andeq	r6, r0, r8, lsl #18
    1cdc:	7f040400 	svcvc	0x00040400
    1ce0:	05000000 	streq	r0, [r0, #-0]
    1ce4:	00000072 	andeq	r0, r0, r2, ror r0
    1ce8:	00056506 	andeq	r6, r5, r6, lsl #10
    1cec:	38020100 	stmdacc	r2, {r8}
    1cf0:	4400008c 	strmi	r0, [r0], #-140	; 0x8c
    1cf4:	01000000 	mrseq	r0, (UNDEF: 0)
    1cf8:	0001089c 	muleq	r1, ip, r8
    1cfc:	63700700 	cmnvs	r0, #0, 14
    1d00:	2c020100 	stfcss	f0, [r2], {-0}
    1d04:	34000000 	strcc	r0, [r0], #-0
    1d08:	0800000a 	stmdaeq	r0, {r1, r3}
    1d0c:	000000ab 	andeq	r0, r0, fp, lsr #1
    1d10:	00000118 	andeq	r0, r0, r8, lsl r1
    1d14:	95900305 	ldrls	r0, [r0, #773]	; 0x305
    1d18:	48090000 	stmdami	r9, {}	; <UNPREDICTABLE>
    1d1c:	1d00008c 	stcne	0, cr0, [r0, #-560]	; 0xfffffdd0
    1d20:	0a000001 	beq	1d2c <__code_start__-0x62d4>
    1d24:	00008c68 	andeq	r8, r0, r8, ror #24
    1d28:	00000124 	andeq	r0, r0, r4, lsr #2
    1d2c:	000000fe 	strdeq	r0, [r0], -lr
    1d30:	0153010b 	cmpeq	r3, fp, lsl #2
    1d34:	52010b32 	andpl	r0, r1, #51200	; 0xc800
    1d38:	95900305 	ldrls	r0, [r0, #773]	; 0x305
    1d3c:	010b0000 	mrseq	r0, (UNDEF: 11)
    1d40:	a0030551 	andge	r0, r3, r1, asr r5
    1d44:	0b000095 	bleq	1fa0 <__code_start__-0x6060>
    1d48:	03055001 	movweq	r5, #20481	; 0x5001
    1d4c:	00009528 	andeq	r9, r0, r8, lsr #10
    1d50:	047d020b 	ldrbteq	r0, [sp], #-523	; 0x20b
    1d54:	0b007402 	bleq	1ed64 <__bss_end__+0x152ec>
    1d58:	05007d02 	streq	r7, [r0, #-3330]	; 0xd02
    1d5c:	0095c403 	addseq	ip, r5, r3, lsl #8
    1d60:	6c090000 	stcvs	0, cr0, [r9], {-0}
    1d64:	3a00008c 	bcc	1f9c <__code_start__-0x6064>
    1d68:	00000001 	andeq	r0, r0, r1
    1d6c:	0000720c 	andeq	r7, r0, ip, lsl #4
    1d70:	00011800 	andeq	r1, r1, r0, lsl #16
    1d74:	006b0d00 	rsbeq	r0, fp, r0, lsl #26
    1d78:	000c0000 	andeq	r0, ip, r0
    1d7c:	00010805 	andeq	r0, r1, r5, lsl #16
    1d80:	018b0e00 	orreq	r0, fp, r0, lsl #28
    1d84:	1e020000 	cdpne	0, 0, cr0, cr2, cr0, {0}
    1d88:	0003890f 	andeq	r8, r3, pc, lsl #18
    1d8c:	25290200 	strcs	r0, [r9, #-512]!	; 0x200
    1d90:	3a000000 	bcc	1d98 <__code_start__-0x6268>
    1d94:	10000001 	andne	r0, r0, r1
    1d98:	00000079 	andeq	r0, r0, r9, ror r0
    1d9c:	6e0e0011 	mcrvs	0, 0, r0, cr14, cr1, {0}
    1da0:	02000000 	andeq	r0, r0, #0
    1da4:	013e0065 	teqeq	lr, r5, rrx
    1da8:	00040000 	andeq	r0, r4, r0
    1dac:	00000b60 	andeq	r0, r0, r0, ror #22
    1db0:	032f0104 	teqeq	pc, #4, 2
    1db4:	94010000 	strls	r0, [r1], #-0
    1db8:	9a000005 	bls	1dd4 <__code_start__-0x622c>
    1dbc:	7c000003 	stcvc	0, cr0, [r0], {3}
    1dc0:	4400008c 	strmi	r0, [r0], #-140	; 0x8c
    1dc4:	d3000000 	movwle	r0, #0
    1dc8:	02000009 	andeq	r0, r0, #9
    1dcc:	6e690504 	cdpvs	5, 6, cr0, cr9, cr4, {0}
    1dd0:	04030074 	streq	r0, [r3], #-116	; 0x74
    1dd4:	00012f07 	andeq	r2, r1, r7, lsl #30
    1dd8:	06010300 	streq	r0, [r1], -r0, lsl #6
    1ddc:	00000062 	andeq	r0, r0, r2, rrx
    1de0:	58050203 	stmdapl	r5, {r0, r1, r9}
    1de4:	03000001 	movweq	r0, #1
    1de8:	014a0504 	cmpeq	sl, r4, lsl #10
    1dec:	08030000 	stmdaeq	r3, {}	; <UNPREDICTABLE>
    1df0:	00014505 	andeq	r4, r1, r5, lsl #10
    1df4:	08010300 	stmdaeq	r1, {r8, r9}
    1df8:	00000060 	andeq	r0, r0, r0, rrx
    1dfc:	7b070203 	blvc	1c2610 <__bss_end__+0x1b8b98>
    1e00:	03000000 	movweq	r0, #0
    1e04:	012a0704 	teqeq	sl, r4, lsl #14
    1e08:	08030000 	stmdaeq	r3, {}	; <UNPREDICTABLE>
    1e0c:	00012507 	andeq	r2, r1, r7, lsl #10
    1e10:	07040300 	streq	r0, [r4, -r0, lsl #6]
    1e14:	0000013c 	andeq	r0, r0, ip, lsr r1
    1e18:	69080103 	stmdbvs	r8, {r0, r1, r8}
    1e1c:	04000000 	streq	r0, [r0], #-0
    1e20:	00007f04 	andeq	r7, r0, r4, lsl #30
    1e24:	00720500 	rsbseq	r0, r2, r0, lsl #10
    1e28:	72060000 	andvc	r0, r6, #0
    1e2c:	94000000 	strls	r0, [r0], #-0
    1e30:	07000000 	streq	r0, [r0, -r0]
    1e34:	0000006b 	andeq	r0, r0, fp, rrx
    1e38:	b4080019 	strlt	r0, [r8], #-25
    1e3c:	01000005 	tsteq	r0, r5
    1e40:	008c7c02 	addeq	r7, ip, r2, lsl #24
    1e44:	00004400 	andeq	r4, r0, r0, lsl #8
    1e48:	189c0100 	ldmne	ip, {r8}
    1e4c:	09000001 	stmdbeq	r0, {r0}
    1e50:	01006370 	tsteq	r0, r0, ror r3
    1e54:	00002c02 	andeq	r2, r0, r2, lsl #24
    1e58:	000a5200 	andeq	r5, sl, r0, lsl #4
    1e5c:	00ab0a00 	adceq	r0, fp, r0, lsl #20
    1e60:	01180000 	tsteq	r8, r0
    1e64:	03050000 	movweq	r0, #20480	; 0x5000
    1e68:	000095cc 	andeq	r9, r0, ip, asr #11
    1e6c:	008c8c0b 	addeq	r8, ip, fp, lsl #24
    1e70:	00011d00 	andeq	r1, r1, r0, lsl #26
    1e74:	8cac0c00 	stchi	12, cr0, [ip]
    1e78:	01240000 	teqeq	r4, r0
    1e7c:	010e0000 	mrseq	r0, (UNDEF: 14)
    1e80:	010d0000 	mrseq	r0, (UNDEF: 13)
    1e84:	0d320153 	ldfeqs	f0, [r2, #-332]!	; 0xfffffeb4
    1e88:	03055201 	movweq	r5, #20993	; 0x5201
    1e8c:	000095cc 	andeq	r9, r0, ip, asr #11
    1e90:	0551010d 	ldrbeq	r0, [r1, #-269]	; 0x10d
    1e94:	0095e803 	addseq	lr, r5, r3, lsl #16
    1e98:	50010d00 	andpl	r0, r1, r0, lsl #26
    1e9c:	95280305 	strls	r0, [r8, #-773]!	; 0x305
    1ea0:	020d0000 	andeq	r0, sp, #0
    1ea4:	7402047d 	strvc	r0, [r2], #-1149	; 0x47d
    1ea8:	7d020d00 	stcvc	13, cr0, [r2, #-0]
    1eac:	08030500 	stmdaeq	r3, {r8, sl}
    1eb0:	00000096 	muleq	r0, r6, r0
    1eb4:	008cb00b 	addeq	fp, ip, fp
    1eb8:	00013a00 	andeq	r3, r1, r0, lsl #20
    1ebc:	84050000 	strhi	r0, [r5], #-0
    1ec0:	0e000000 	cdpeq	0, 0, cr0, cr0, cr0, {0}
    1ec4:	0000018b 	andeq	r0, r0, fp, lsl #3
    1ec8:	890f1e02 	stmdbhi	pc, {r1, r9, sl, fp, ip}	; <UNPREDICTABLE>
    1ecc:	02000003 	andeq	r0, r0, #3
    1ed0:	00002529 	andeq	r2, r0, r9, lsr #10
    1ed4:	00013a00 	andeq	r3, r1, r0, lsl #20
    1ed8:	00791000 	rsbseq	r1, r9, r0
    1edc:	00110000 	andseq	r0, r1, r0
    1ee0:	00006e0e 	andeq	r6, r0, lr, lsl #28
    1ee4:	00650200 	rsbeq	r0, r5, r0, lsl #4
    1ee8:	0000013e 	andeq	r0, r0, lr, lsr r1
    1eec:	0c380004 	ldceq	0, cr0, [r8], #-16
    1ef0:	01040000 	mrseq	r0, (UNDEF: 4)
    1ef4:	0000032f 	andeq	r0, r0, pc, lsr #6
    1ef8:	0005ce01 	andeq	ip, r5, r1, lsl #28
    1efc:	00039a00 	andeq	r9, r3, r0, lsl #20
    1f00:	008cc000 	addeq	ip, ip, r0
    1f04:	00004400 	andeq	r4, r0, r0, lsl #8
    1f08:	000a7800 	andeq	r7, sl, r0, lsl #16
    1f0c:	05040200 	streq	r0, [r4, #-512]	; 0x200
    1f10:	00746e69 	rsbseq	r6, r4, r9, ror #28
    1f14:	2f070403 	svccs	0x00070403
    1f18:	03000001 	movweq	r0, #1
    1f1c:	00620601 	rsbeq	r0, r2, r1, lsl #12
    1f20:	02030000 	andeq	r0, r3, #0
    1f24:	00015805 	andeq	r5, r1, r5, lsl #16
    1f28:	05040300 	streq	r0, [r4, #-768]	; 0x300
    1f2c:	0000014a 	andeq	r0, r0, sl, asr #2
    1f30:	45050803 	strmi	r0, [r5, #-2051]	; 0x803
    1f34:	03000001 	movweq	r0, #1
    1f38:	00600801 	rsbeq	r0, r0, r1, lsl #16
    1f3c:	02030000 	andeq	r0, r3, #0
    1f40:	00007b07 	andeq	r7, r0, r7, lsl #22
    1f44:	07040300 	streq	r0, [r4, -r0, lsl #6]
    1f48:	0000012a 	andeq	r0, r0, sl, lsr #2
    1f4c:	25070803 	strcs	r0, [r7, #-2051]	; 0x803
    1f50:	03000001 	movweq	r0, #1
    1f54:	013c0704 	teqeq	ip, r4, lsl #14
    1f58:	01030000 	mrseq	r0, (UNDEF: 3)
    1f5c:	00006908 	andeq	r6, r0, r8, lsl #18
    1f60:	7f040400 	svcvc	0x00040400
    1f64:	05000000 	streq	r0, [r0, #-0]
    1f68:	00000072 	andeq	r0, r0, r2, ror r0
    1f6c:	0005f906 	andeq	pc, r5, r6, lsl #18
    1f70:	c0020100 	andgt	r0, r2, r0, lsl #2
    1f74:	4400008c 	strmi	r0, [r0], #-140	; 0x8c
    1f78:	01000000 	mrseq	r0, (UNDEF: 0)
    1f7c:	0001089c 	muleq	r1, ip, r8
    1f80:	63700700 	cmnvs	r0, #0, 14
    1f84:	2c020100 	stfcss	f0, [r2], {-0}
    1f88:	70000000 	andvc	r0, r0, r0
    1f8c:	0800000a 	stmdaeq	r0, {r1, r3}
    1f90:	000000ab 	andeq	r0, r0, fp, lsr #1
    1f94:	00000118 	andeq	r0, r0, r8, lsl r1
    1f98:	960c0305 	strls	r0, [ip], -r5, lsl #6
    1f9c:	d0090000 	andle	r0, r9, r0
    1fa0:	1d00008c 	stcne	0, cr0, [r0, #-560]	; 0xfffffdd0
    1fa4:	0a000001 	beq	1fb0 <__code_start__-0x6050>
    1fa8:	00008cf0 	strdeq	r8, [r0], -r0
    1fac:	00000124 	andeq	r0, r0, r4, lsr #2
    1fb0:	000000fe 	strdeq	r0, [r0], -lr
    1fb4:	0153010b 	cmpeq	r3, fp, lsl #2
    1fb8:	52010b32 	andpl	r0, r1, #51200	; 0xc800
    1fbc:	960c0305 	strls	r0, [ip], -r5, lsl #6
    1fc0:	010b0000 	mrseq	r0, (UNDEF: 11)
    1fc4:	2c030551 	cfstr32cs	mvfx0, [r3], {81}	; 0x51
    1fc8:	0b000096 	bleq	2228 <__code_start__-0x5dd8>
    1fcc:	03055001 	movweq	r5, #20481	; 0x5001
    1fd0:	00009528 	andeq	r9, r0, r8, lsr #10
    1fd4:	047d020b 	ldrbteq	r0, [sp], #-523	; 0x20b
    1fd8:	0b007402 	bleq	1efe8 <__bss_end__+0x15570>
    1fdc:	05007d02 	streq	r7, [r0, #-3330]	; 0xd02
    1fe0:	00965803 	addseq	r5, r6, r3, lsl #16
    1fe4:	f4090000 	vst4.8	{d0-d3}, [r9], r0
    1fe8:	3a00008c 	bcc	2220 <__code_start__-0x5de0>
    1fec:	00000001 	andeq	r0, r0, r1
    1ff0:	0000720c 	andeq	r7, r0, ip, lsl #4
    1ff4:	00011800 	andeq	r1, r1, r0, lsl #16
    1ff8:	006b0d00 	rsbeq	r0, fp, r0, lsl #26
    1ffc:	001c0000 	andseq	r0, ip, r0
    2000:	00010805 	andeq	r0, r1, r5, lsl #16
    2004:	018b0e00 	orreq	r0, fp, r0, lsl #28
    2008:	1e020000 	cdpne	0, 0, cr0, cr2, cr0, {0}
    200c:	0003890f 	andeq	r8, r3, pc, lsl #18
    2010:	25290200 	strcs	r0, [r9, #-512]!	; 0x200
    2014:	3a000000 	bcc	201c <__code_start__-0x5fe4>
    2018:	10000001 	andne	r0, r0, r1
    201c:	00000079 	andeq	r0, r0, r9, ror r0
    2020:	6e0e0011 	mcrvs	0, 0, r0, cr14, cr1, {0}
    2024:	02000000 	andeq	r0, r0, #0
    2028:	00980065 	addseq	r0, r8, r5, rrx
    202c:	00040000 	andeq	r0, r4, r0
    2030:	00000d10 	andeq	r0, r0, r0, lsl sp
    2034:	032f0104 	teqeq	pc, #4, 2
    2038:	16010000 	strne	r0, [r1], -r0
    203c:	9a000006 	bls	205c <__code_start__-0x5fa4>
    2040:	04000003 	streq	r0, [r0], #-3
    2044:	0800008d 	stmdaeq	r0, {r0, r2, r3, r7}
    2048:	28000000 	stmdacs	r0, {}	; <UNPREDICTABLE>
    204c:	0200000b 	andeq	r0, r0, #11
    2050:	6e690504 	cdpvs	5, 6, cr0, cr9, cr4, {0}
    2054:	04030074 	streq	r0, [r3], #-116	; 0x74
    2058:	00012f07 	andeq	r2, r1, r7, lsl #30
    205c:	06010300 	streq	r0, [r1], -r0, lsl #6
    2060:	00000062 	andeq	r0, r0, r2, rrx
    2064:	58050203 	stmdapl	r5, {r0, r1, r9}
    2068:	03000001 	movweq	r0, #1
    206c:	014a0504 	cmpeq	sl, r4, lsl #10
    2070:	08030000 	stmdaeq	r3, {}	; <UNPREDICTABLE>
    2074:	00014505 	andeq	r4, r1, r5, lsl #10
    2078:	08010300 	stmdaeq	r1, {r8, r9}
    207c:	00000060 	andeq	r0, r0, r0, rrx
    2080:	7b070203 	blvc	1c2894 <__bss_end__+0x1b8e1c>
    2084:	03000000 	movweq	r0, #0
    2088:	012a0704 	teqeq	sl, r4, lsl #14
    208c:	08030000 	stmdaeq	r3, {}	; <UNPREDICTABLE>
    2090:	00012507 	andeq	r2, r1, r7, lsl #10
    2094:	07040300 	streq	r0, [r4, -r0, lsl #6]
    2098:	0000013c 	andeq	r0, r0, ip, lsr r1
    209c:	69080103 	stmdbvs	r8, {r0, r1, r8}
    20a0:	04000000 	streq	r0, [r0], #-0
    20a4:	000004fc 	strdeq	r0, [r0], -ip
    20a8:	8d040401 	cfstrshi	mvf0, [r4, #-4]
    20ac:	00040000 	andeq	r0, r4, r0
    20b0:	9c010000 	stcls	0, cr0, [r1], {-0}
    20b4:	0004a604 	andeq	sl, r4, r4, lsl #12
    20b8:	08050100 	stmdaeq	r5, {r8}
    20bc:	0400008d 	streq	r0, [r0], #-141	; 0x8d
    20c0:	01000000 	mrseq	r0, (UNDEF: 0)
    20c4:	01d7009c 			; <UNDEFINED> instruction: 0x01d7009c
    20c8:	00040000 	andeq	r0, r4, r0
    20cc:	00000d52 	andeq	r0, r0, r2, asr sp
    20d0:	032f0104 	teqeq	pc, #4, 2
    20d4:	d2010000 	andle	r0, r1, #0
    20d8:	9a000006 	bls	20f8 <__code_start__-0x5f08>
    20dc:	0c000003 	stceq	0, cr0, [r0], {3}
    20e0:	6c00008d 	stcvs	0, cr0, [r0], {141}	; 0x8d
    20e4:	73000000 	movwvc	r0, #0
    20e8:	0200000b 	andeq	r0, r0, #11
    20ec:	6e690504 	cdpvs	5, 6, cr0, cr9, cr4, {0}
    20f0:	04030074 	streq	r0, [r3], #-116	; 0x74
    20f4:	00012f07 	andeq	r2, r1, r7, lsl #30
    20f8:	06010300 	streq	r0, [r1], -r0, lsl #6
    20fc:	00000062 	andeq	r0, r0, r2, rrx
    2100:	58050203 	stmdapl	r5, {r0, r1, r9}
    2104:	03000001 	movweq	r0, #1
    2108:	014a0504 	cmpeq	sl, r4, lsl #10
    210c:	08030000 	stmdaeq	r3, {}	; <UNPREDICTABLE>
    2110:	00014505 	andeq	r4, r1, r5, lsl #10
    2114:	08010300 	stmdaeq	r1, {r8, r9}
    2118:	00000060 	andeq	r0, r0, r0, rrx
    211c:	7b070203 	blvc	1c2930 <__bss_end__+0x1b8eb8>
    2120:	03000000 	movweq	r0, #0
    2124:	012a0704 	teqeq	sl, r4, lsl #14
    2128:	08030000 	stmdaeq	r3, {}	; <UNPREDICTABLE>
    212c:	00012507 	andeq	r2, r1, r7, lsl #10
    2130:	07040300 	streq	r0, [r4, -r0, lsl #6]
    2134:	0000013c 	andeq	r0, r0, ip, lsr r1
    2138:	69080103 	stmdbvs	r8, {r0, r1, r8}
    213c:	04000000 	streq	r0, [r0], #-0
    2140:	f0140204 			; <UNDEFINED> instruction: 0xf0140204
    2144:	05000000 	streq	r0, [r0, #-0]
    2148:	000006eb 	andeq	r0, r0, fp, ror #13
    214c:	8082e480 	addhi	lr, r2, r0, lsl #9
    2150:	06710502 	ldrbteq	r0, [r1], -r2, lsl #10
    2154:	e4800000 	str	r0, [r0], #0
    2158:	05028082 	streq	r8, [r2, #-130]	; 0x82
    215c:	00000718 	andeq	r0, r0, r8, lsl r7
    2160:	8082e484 	addhi	lr, r2, r4, lsl #9
    2164:	06330502 	ldrteq	r0, [r3], -r2, lsl #10
    2168:	e4880000 	str	r0, [r8], #0
    216c:	05028082 	streq	r8, [r2, #-130]	; 0x82
    2170:	00000654 	andeq	r0, r0, r4, asr r6
    2174:	8082e48c 	addhi	lr, r2, ip, lsl #9
    2178:	06950502 	ldreq	r0, [r5], r2, lsl #10
    217c:	e4900000 	ldr	r0, [r0], #0
    2180:	05028082 	streq	r8, [r2, #-130]	; 0x82
    2184:	000006a3 	andeq	r0, r0, r3, lsr #13
    2188:	8082e494 	umullhi	lr, r2, r4, r4
    218c:	06830502 	streq	r0, [r3], r2, lsl #10
    2190:	e4980000 	ldr	r0, [r8], #0
    2194:	05028082 	streq	r8, [r2, #-130]	; 0x82
    2198:	000006fa 	strdeq	r0, [r0], -sl
    219c:	8082e49c 	umullhi	lr, r2, ip, r4
    21a0:	07090502 	streq	r0, [r9, -r2, lsl #10]
    21a4:	e4a00000 	strt	r0, [r0], #0
    21a8:	05028082 	streq	r8, [r2, #-130]	; 0x82
    21ac:	00000641 	andeq	r0, r0, r1, asr #12
    21b0:	8082e4a4 	addhi	lr, r2, r4, lsr #9
    21b4:	fb060002 	blx	1821c6 <__bss_end__+0x17874e>
    21b8:	01000002 	tsteq	r0, r2
    21bc:	008d0c1b 	addeq	r0, sp, fp, lsl ip
    21c0:	00006c00 	andeq	r6, r0, r0, lsl #24
    21c4:	a59c0100 	ldrge	r0, [ip, #256]	; 0x100
    21c8:	07000001 	streq	r0, [r0, -r1]
    21cc:	00000660 	andeq	r0, r0, r0, ror #12
    21d0:	002c2301 	eoreq	r2, ip, r1, lsl #6
    21d4:	b1070000 	mrslt	r0, (UNDEF: 7)
    21d8:	01000006 	tsteq	r0, r6
    21dc:	00002c24 	andeq	r2, r0, r4, lsr #24
    21e0:	73640800 	cmnvc	r4, #0, 16
    21e4:	27010074 	smlsdxcs	r1, r4, r0, r0
    21e8:	000001a5 	andeq	r0, r0, r5, lsr #3
    21ec:	72730900 	rsbsvc	r0, r3, #0, 18
    21f0:	28010063 	stmdacs	r1, {r0, r1, r5, r6}
    21f4:	000001a5 	andeq	r0, r0, r5, lsr #3
    21f8:	01006e0a 	tsteq	r0, sl, lsl #28
    21fc:	00002c29 	andeq	r2, r0, r9, lsr #24
    2200:	0b500100 	bleq	1402608 <__bss_end__+0x13f8b90>
    2204:	00008d40 	andeq	r8, r0, r0, asr #26
    2208:	00000024 	andeq	r0, r0, r4, lsr #32
    220c:	00000158 	andeq	r0, r0, r8, asr r1
    2210:	0100690c 	tsteq	r0, ip, lsl #18
    2214:	0000252a 	andeq	r2, r0, sl, lsr #10
    2218:	000a8e00 	andeq	r8, sl, r0, lsl #28
    221c:	140d0000 	strne	r0, [sp], #-0
    2220:	c100008d 	smlabbgt	r0, sp, r0, r0
    2224:	0e000001 	cdpeq	0, 0, cr0, cr0, cr1, {0}
    2228:	00008d20 	andeq	r8, r0, r0, lsr #26
    222c:	000001c8 	andeq	r0, r0, r8, asr #3
    2230:	0000017e 	andeq	r0, r0, lr, ror r1
    2234:	0251010f 	subseq	r0, r1, #-1073741821	; 0xc0000003
    2238:	010fff09 	tsteq	pc, r9, lsl #30
    223c:	1c0c0550 	cfstr32ne	mvfx0, [ip], {80}	; 0x50
    2240:	002000b2 	strhteq	r0, [r0], -r2
    2244:	008d2c0e 	addeq	r2, sp, lr, lsl #24
    2248:	0001c800 	andeq	ip, r1, r0, lsl #16
    224c:	00019b00 	andeq	r9, r1, r0, lsl #22
    2250:	51010f00 	tstpl	r1, r0, lsl #30
    2254:	0fff0902 	svceq	0x00ff0902
    2258:	0c055001 	stceq	0, cr5, [r5], {1}
    225c:	2000b220 	andcs	fp, r0, r0, lsr #4
    2260:	8d300d00 	ldchi	13, cr0, [r0, #-0]
    2264:	01c10000 	biceq	r0, r1, r0
    2268:	10000000 	andne	r0, r0, r0
    226c:	00002c04 	andeq	r2, r0, r4, lsl #24
    2270:	06600700 	strbteq	r0, [r0], -r0, lsl #14
    2274:	23010000 	movwcs	r0, #4096	; 0x1000
    2278:	0000002c 	andeq	r0, r0, ip, lsr #32
    227c:	0006b107 	andeq	fp, r6, r7, lsl #2
    2280:	2c240100 	stfcss	f0, [r4], #-0
    2284:	11000000 	mrsne	r0, (UNDEF: 0)
    2288:	000006c6 	andeq	r0, r0, r6, asr #13
    228c:	f4128903 			; <UNDEFINED> instruction: 0xf4128903
    2290:	03000006 	movweq	r0, #6
    2294:	002c139b 	mlaeq	ip, fp, r3, r1
    2298:	2c130000 	ldccs	0, cr0, [r3], {-0}
    229c:	00000000 	andeq	r0, r0, r0
    22a0:	0001ad00 	andeq	sl, r1, r0, lsl #26
    22a4:	58000400 	stmdapl	r0, {sl}
    22a8:	0400000e 	streq	r0, [r0], #-14
    22ac:	00032f01 	andeq	r2, r3, r1, lsl #30
    22b0:	07340100 	ldreq	r0, [r4, -r0, lsl #2]!
    22b4:	039a0000 	orrseq	r0, sl, #0
	...
    22c0:	0c400000 	mareq	acc0, r0, r0
    22c4:	04020000 	streq	r0, [r2], #-0
    22c8:	746e6905 	strbtvc	r6, [lr], #-2309	; 0x905
    22cc:	07040300 	streq	r0, [r4, -r0, lsl #6]
    22d0:	0000012f 	andeq	r0, r0, pc, lsr #2
    22d4:	62060103 	andvs	r0, r6, #-1073741824	; 0xc0000000
    22d8:	03000000 	movweq	r0, #0
    22dc:	01580502 	cmpeq	r8, r2, lsl #10
    22e0:	04030000 	streq	r0, [r3], #-0
    22e4:	00014a05 	andeq	r4, r1, r5, lsl #20
    22e8:	05080300 	streq	r0, [r8, #-768]	; 0x300
    22ec:	00000145 	andeq	r0, r0, r5, asr #2
    22f0:	60080103 	andvs	r0, r8, r3, lsl #2
    22f4:	03000000 	movweq	r0, #0
    22f8:	007b0702 	rsbseq	r0, fp, r2, lsl #14
    22fc:	04030000 	streq	r0, [r3], #-0
    2300:	00012a07 	andeq	r2, r1, r7, lsl #20
    2304:	07080300 	streq	r0, [r8, -r0, lsl #6]
    2308:	00000125 	andeq	r0, r0, r5, lsr #2
    230c:	3c070403 	cfstrscc	mvf0, [r7], {3}
    2310:	03000001 	movweq	r0, #1
    2314:	00690801 	rsbeq	r0, r9, r1, lsl #16
    2318:	26040000 	strcs	r0, [r4], -r0
    231c:	01000007 	tsteq	r0, r7
    2320:	0000250e 	andeq	r2, r0, lr, lsl #10
    2324:	008d7800 	addeq	r7, sp, r0, lsl #16
    2328:	00001800 	andeq	r1, r0, r0, lsl #16
    232c:	a29c0100 	addsge	r0, ip, #0, 2
    2330:	05000000 	streq	r0, [r0, #-0]
    2334:	0000078b 	andeq	r0, r0, fp, lsl #15
    2338:	002c0f01 	eoreq	r0, ip, r1, lsl #30
    233c:	0aad0000 	beq	feb42344 <__bss_end__+0xfeb388cc>
    2340:	06000000 	streq	r0, [r0], -r0
    2344:	00000768 	andeq	r0, r0, r8, ror #14
    2348:	8d901701 	ldchi	7, cr1, [r0, #4]
    234c:	00140000 	andseq	r0, r4, r0
    2350:	9c010000 	stcls	0, cr0, [r1], {-0}
    2354:	000000c7 	andeq	r0, r0, r7, asr #1
    2358:	00078b05 	andeq	r8, r7, r5, lsl #22
    235c:	2c180100 	ldfcss	f0, [r8], {-0}
    2360:	cc000000 	stcgt	0, cr0, [r0], {-0}
    2364:	0000000a 	andeq	r0, r0, sl
    2368:	0004ce06 	andeq	ip, r4, r6, lsl #28
    236c:	a41f0100 	ldrge	r0, [pc], #-256	; 2374 <__code_start__-0x5c8c>
    2370:	4800008d 	stmdami	r0, {r0, r2, r3, r7}
    2374:	01000000 	mrseq	r0, (UNDEF: 0)
    2378:	0001779c 	muleq	r1, ip, r7
    237c:	07830700 	streq	r0, [r3, r0, lsl #14]
    2380:	2a010000 	bcs	42388 <__bss_end__+0x38910>
    2384:	00000177 	andeq	r0, r0, r7, ror r1
    2388:	2010001c 	andscs	r0, r0, ip, lsl r0
    238c:	00076007 	andeq	r6, r7, r7
    2390:	772b0100 	strvc	r0, [fp, -r0, lsl #2]!
    2394:	24000001 	strcs	r0, [r0], #-1
    2398:	07201000 	streq	r1, [r0, -r0]!
    239c:	00000777 	andeq	r0, r0, r7, ror r7
    23a0:	01772c01 	cmneq	r7, r1, lsl #24
    23a4:	00000000 	andeq	r0, r0, r0
    23a8:	47085a00 	strmi	r5, [r8, -r0, lsl #20]
    23ac:	01000007 	tsteq	r0, r7
    23b0:	0001772d 	andeq	r7, r1, sp, lsr #14
    23b4:	ac092000 	stcge	0, cr2, [r9], {-0}
    23b8:	7900008d 	stmdbvc	r0, {r0, r2, r3, r7}
    23bc:	09000000 	stmdbeq	r0, {}	; <UNPREDICTABLE>
    23c0:	00008db8 			; <UNDEFINED> instruction: 0x00008db8
    23c4:	000000a2 	andeq	r0, r0, r2, lsr #1
    23c8:	008dc00a 	addeq	ip, sp, sl
    23cc:	00018d00 	andeq	r8, r1, r0, lsl #26
    23d0:	00013a00 	andeq	r3, r1, r0, lsl #20
    23d4:	50010b00 	andpl	r0, r1, r0, lsl #22
    23d8:	0a004e01 	beq	15be4 <__bss_end__+0xc16c>
    23dc:	00008dcc 	andeq	r8, r0, ip, asr #27
    23e0:	0000019e 	muleq	r0, lr, r1
    23e4:	0000015a 	andeq	r0, r0, sl, asr r1
    23e8:	0551010b 	ldrbeq	r0, [r1, #-267]	; 0x10b
    23ec:	0000010c 	andeq	r0, r0, ip, lsl #2
    23f0:	50010b5a 	andpl	r0, r1, sl, asr fp
    23f4:	00240c05 	eoreq	r0, r4, r5, lsl #24
    23f8:	0c002010 	stceq	0, cr2, [r0], {16}
    23fc:	00008dd8 	ldrdeq	r8, [r0], -r8	; <UNPREDICTABLE>
    2400:	0000019e 	muleq	r0, lr, r1
    2404:	0551010b 	ldrbeq	r0, [r1, #-267]	; 0x10b
    2408:	0000200c 	andeq	r2, r0, ip
    240c:	50010b5a 	andpl	r0, r1, sl, asr fp
    2410:	001c0c05 	andseq	r0, ip, r5, lsl #24
    2414:	00002010 	andeq	r2, r0, r0, lsl r0
    2418:	0000250d 	andeq	r2, r0, sp, lsl #10
    241c:	07290800 	streq	r0, [r9, -r0, lsl #16]!
    2420:	0d010000 	stceq	0, cr0, [r1, #-0]
    2424:	00000188 	andeq	r0, r0, r8, lsl #3
    2428:	002c0d10 	eoreq	r0, ip, r0, lsl sp
    242c:	d90e0000 	stmdble	lr, {}	; <UNPREDICTABLE>
    2430:	02000004 	andeq	r0, r0, #4
    2434:	00019e4f 	andeq	r9, r1, pc, asr #28
    2438:	002c0f00 	eoreq	r0, ip, r0, lsl #30
    243c:	10000000 	andne	r0, r0, r0
    2440:	000006f4 	strdeq	r0, [r0], -r4
    2444:	2c0f9b02 	stccs	11, cr9, [pc], {2}
    2448:	0f000000 	svceq	0x00000000
    244c:	0000002c 	andeq	r0, r0, ip, lsr #32
    2450:	01f70000 	mvnseq	r0, r0
    2454:	00040000 	andeq	r0, r4, r0
    2458:	00000f46 	andeq	r0, r0, r6, asr #30
    245c:	032f0104 	teqeq	pc, #4, 2
    2460:	ad010000 	stcge	0, cr0, [r1, #-0]
    2464:	9a000007 	bls	2488 <__code_start__-0x5b78>
    2468:	ec000003 	stc	0, cr0, [r0], {3}
    246c:	9800008d 	stmdals	r0, {r0, r2, r3, r7}
    2470:	e6000000 	str	r0, [r0], -r0
    2474:	0200000c 	andeq	r0, r0, #12
    2478:	6e690504 	cdpvs	5, 6, cr0, cr9, cr4, {0}
    247c:	04030074 	streq	r0, [r3], #-116	; 0x74
    2480:	00012f07 	andeq	r2, r1, r7, lsl #30
    2484:	06010300 	streq	r0, [r1], -r0, lsl #6
    2488:	00000062 	andeq	r0, r0, r2, rrx
    248c:	58050203 	stmdapl	r5, {r0, r1, r9}
    2490:	03000001 	movweq	r0, #1
    2494:	014a0504 	cmpeq	sl, r4, lsl #10
    2498:	08030000 	stmdaeq	r3, {}	; <UNPREDICTABLE>
    249c:	00014505 	andeq	r4, r1, r5, lsl #10
    24a0:	08010300 	stmdaeq	r1, {r8, r9}
    24a4:	00000060 	andeq	r0, r0, r0, rrx
    24a8:	7b070203 	blvc	1c2cbc <__bss_end__+0x1b9244>
    24ac:	03000000 	movweq	r0, #0
    24b0:	012a0704 	teqeq	sl, r4, lsl #14
    24b4:	08030000 	stmdaeq	r3, {}	; <UNPREDICTABLE>
    24b8:	00012507 	andeq	r2, r1, r7, lsl #10
    24bc:	07040300 	streq	r0, [r4, -r0, lsl #6]
    24c0:	0000013c 	andeq	r0, r0, ip, lsr r1
    24c4:	69080103 	stmdbvs	r8, {r0, r1, r8}
    24c8:	04000000 	streq	r0, [r0], #-0
    24cc:	000007cb 	andeq	r0, r0, fp, asr #15
    24d0:	8dec0501 	cfstr64hi	mvdx0, [ip, #4]!
    24d4:	001c0000 	andseq	r0, ip, r0
    24d8:	9c010000 	stcls	0, cr0, [r1], {-0}
    24dc:	0000009e 	muleq	r0, lr, r0
    24e0:	0007c505 	andeq	ip, r7, r5, lsl #10
    24e4:	2c050100 	stfcss	f0, [r5], {-0}
    24e8:	f6000000 			; <UNDEFINED> instruction: 0xf6000000
    24ec:	0000000a 	andeq	r0, r0, sl
    24f0:	00079006 	andeq	r9, r7, r6
    24f4:	2c110100 	ldfcss	f0, [r1], {-0}
    24f8:	08000000 	stmdaeq	r0, {}	; <UNPREDICTABLE>
    24fc:	1400008e 	strne	r0, [r0], #-142	; 0x8e
    2500:	01000000 	mrseq	r0, (UNDEF: 0)
    2504:	0000cb9c 	muleq	r0, ip, fp
    2508:	8e140700 	cdphi	7, 1, cr0, cr4, cr0, {0}
    250c:	01de0000 	bicseq	r0, lr, r0
    2510:	01080000 	mrseq	r0, (UNDEF: 8)
    2514:	040c0550 	streq	r0, [ip], #-1360	; 0x550
    2518:	00200030 	eoreq	r0, r0, r0, lsr r0
    251c:	07e10600 	strbeq	r0, [r1, r0, lsl #12]!
    2520:	16010000 	strne	r0, [r1], -r0
    2524:	0000002c 	andeq	r0, r0, ip, lsr #32
    2528:	00008e1c 	andeq	r8, r0, ip, lsl lr
    252c:	0000001c 	andeq	r0, r0, ip, lsl r0
    2530:	010d9c01 	tsteq	sp, r1, lsl #24
    2534:	75090000 	strvc	r0, [r9, #-0]
    2538:	2c1a0100 	ldfcss	f0, [sl], {-0}
    253c:	2a000000 	bcs	2544 <__code_start__-0x5abc>
    2540:	0a00000b 	beq	2574 <__code_start__-0x5a8c>
    2544:	00008e24 	andeq	r8, r0, r4, lsr #28
    2548:	000001f3 	strdeq	r0, [r0], -r3
    254c:	008e280a 	addeq	r2, lr, sl, lsl #16
    2550:	00009e00 	andeq	r9, r0, r0, lsl #28
    2554:	8e300a00 	vaddhi.f32	s0, s0, s0
    2558:	01f30000 	mvnseq	r0, r0
    255c:	04000000 	streq	r0, [r0], #-0
    2560:	000007d8 	ldrdeq	r0, [r0], -r8
    2564:	8e381f01 	cdphi	15, 3, cr1, cr8, cr1, {0}
    2568:	00240000 	eoreq	r0, r4, r0
    256c:	9c010000 	stcls	0, cr0, [r1], {-0}
    2570:	0000016b 	andeq	r0, r0, fp, ror #2
    2574:	0073750b 	rsbseq	r7, r3, fp, lsl #10
    2578:	002c1f01 	eoreq	r1, ip, r1, lsl #30
    257c:	0b480000 	bleq	1202584 <__bss_end__+0x11f8b0c>
    2580:	720c0000 	andvc	r0, ip, #0
    2584:	20010062 	andcs	r0, r1, r2, rrx
    2588:	0000002c 	andeq	r0, r0, ip, lsr #32
    258c:	480d5401 	stmdami	sp, {r0, sl, ip, lr}
    2590:	1000008e 	andne	r0, r0, lr, lsl #1
    2594:	61000000 	mrsvs	r0, (UNDEF: 0)
    2598:	09000001 	stmdbeq	r0, {r0}
    259c:	01006172 	tsteq	r0, r2, ror r1
    25a0:	00002c22 	andeq	r2, r0, r2, lsr #24
    25a4:	000b6600 	andeq	r6, fp, r0, lsl #12
    25a8:	8e4c0a00 	vmlahi.f32	s1, s24, s0
    25ac:	00cb0000 	sbceq	r0, fp, r0
    25b0:	0a000000 	beq	25b8 <__code_start__-0x5a48>
    25b4:	00008e44 	andeq	r8, r0, r4, asr #28
    25b8:	000000cb 	andeq	r0, r0, fp, asr #1
    25bc:	04d90400 	ldrbeq	r0, [r9], #1024	; 0x400
    25c0:	28010000 	stmdacs	r1, {}	; <UNPREDICTABLE>
    25c4:	00008e5c 	andeq	r8, r0, ip, asr lr
    25c8:	00000014 	andeq	r0, r0, r4, lsl r0
    25cc:	01a49c01 			; <UNDEFINED> instruction: 0x01a49c01
    25d0:	6d0b0000 	stcvs	0, cr0, [fp, #-0]
    25d4:	28010073 	stmdacs	r1, {r0, r1, r4, r5, r6}
    25d8:	0000002c 	andeq	r0, r0, ip, lsr #32
    25dc:	00000b79 	andeq	r0, r0, r9, ror fp
    25e0:	008e6c07 	addeq	r6, lr, r7, lsl #24
    25e4:	00010d00 	andeq	r0, r1, r0, lsl #26
    25e8:	50010800 	andpl	r0, r1, r0, lsl #16
    25ec:	5001f307 	andpl	pc, r1, r7, lsl #6
    25f0:	1e03e80a 	cdpne	8, 0, cr14, cr3, cr10, {0}
    25f4:	a3040000 	movwge	r0, #16384	; 0x4000
    25f8:	01000007 	tsteq	r0, r7
    25fc:	008e702b 	addeq	r7, lr, fp, lsr #32
    2600:	00001400 	andeq	r1, r0, r0, lsl #8
    2604:	de9c0100 	fmllee	f0, f4, f0
    2608:	0b000001 	bleq	2614 <__code_start__-0x59ec>
    260c:	00636573 	rsbeq	r6, r3, r3, ror r5
    2610:	002c2b01 	eoreq	r2, ip, r1, lsl #22
    2614:	0b9a0000 	bleq	fe68261c <__bss_end__+0xfe678ba4>
    2618:	80070000 	andhi	r0, r7, r0
    261c:	6b00008e 	blvs	285c <__code_start__-0x57a4>
    2620:	08000001 	stmdaeq	r0, {r0}
    2624:	f3075001 	vhadd.u8	d5, d7, d1
    2628:	e80a5001 	stmda	sl, {r0, ip, lr}
    262c:	00001e03 	andeq	r1, r0, r3, lsl #28
    2630:	0007bf0e 	andeq	fp, r7, lr, lsl #30
    2634:	2ca70200 	sfmcs	f0, 4, [r7]
    2638:	f3000000 	vhadd.u8	d0, d0, d0
    263c:	0f000001 	svceq	0x00000001
    2640:	0000002c 	andeq	r0, r0, ip, lsr #32
    2644:	06c61000 	strbeq	r1, [r6], r0
    2648:	89020000 	stmdbhi	r2, {}	; <UNPREDICTABLE>
    264c:	000cc500 	andeq	ip, ip, r0, lsl #10
    2650:	3c000400 	cfstrscc	mvf0, [r0], {-0}
    2654:	04000010 	streq	r0, [r0], #-16
    2658:	000b8c01 	andeq	r8, fp, r1, lsl #24
    265c:	08ef0c00 	stmiaeq	pc!, {sl, fp}^	; <UNPREDICTABLE>
    2660:	090a0000 	stmdbeq	sl, {}	; <UNPREDICTABLE>
    2664:	8eec0000 	cdphi	0, 14, cr0, cr12, cr0, {0}
    2668:	01780000 	cmneq	r8, r0
    266c:	0d980000 	ldceq	0, cr0, [r8]
    2670:	04020000 	streq	r0, [r2], #-0
    2674:	746e6905 	strbtvc	r6, [lr], #-2309	; 0x905
    2678:	07040300 	streq	r0, [r4, -r0, lsl #6]
    267c:	0000012f 	andeq	r0, r0, pc, lsr #2
    2680:	00002c04 	andeq	r2, r0, r4, lsl #24
    2684:	06010300 	streq	r0, [r1], -r0, lsl #6
    2688:	00000062 	andeq	r0, r0, r2, rrx
    268c:	58050203 	stmdapl	r5, {r0, r1, r9}
    2690:	03000001 	movweq	r0, #1
    2694:	014a0504 	cmpeq	sl, r4, lsl #10
    2698:	08030000 	stmdaeq	r3, {}	; <UNPREDICTABLE>
    269c:	00014505 	andeq	r4, r1, r5, lsl #10
    26a0:	08010300 	stmdaeq	r1, {r8, r9}
    26a4:	00000060 	andeq	r0, r0, r0, rrx
    26a8:	7b070203 	blvc	1c2ebc <__bss_end__+0x1b9444>
    26ac:	03000000 	movweq	r0, #0
    26b0:	012a0704 	teqeq	sl, r4, lsl #14
    26b4:	08030000 	stmdaeq	r3, {}	; <UNPREDICTABLE>
    26b8:	00012507 	andeq	r2, r1, r7, lsl #10
    26bc:	0aa10500 	beq	fe843ac4 <__bss_end__+0xfe83a04c>
    26c0:	07020000 	streq	r0, [r2, -r0]
    26c4:	00000025 	andeq	r0, r0, r5, lsr #32
    26c8:	000a8b05 	andeq	r8, sl, r5, lsl #22
    26cc:	462c0300 	strtmi	r0, [ip], -r0, lsl #6
    26d0:	05000000 	streq	r0, [r0, #-0]
    26d4:	00000b67 	andeq	r0, r0, r7, ror #22
    26d8:	00467203 	subeq	r7, r6, r3, lsl #4
    26dc:	2f060000 	svccs	0x00060000
    26e0:	0400000a 	streq	r0, [r0], #-10
    26e4:	002c0165 	eoreq	r0, ip, r5, ror #2
    26e8:	04070000 	streq	r0, [r7], #-0
    26ec:	00bca603 	adcseq	sl, ip, r3, lsl #12
    26f0:	1a080000 	bne	2026f8 <__bss_end__+0x1f8c80>
    26f4:	0300000a 	movweq	r0, #10
    26f8:	000091a8 	andeq	r9, r0, r8, lsr #3
    26fc:	09c20800 	stmibeq	r2, {fp}^
    2700:	a9030000 	stmdbge	r3, {}	; <UNPREDICTABLE>
    2704:	000000bc 	strheq	r0, [r0], -ip
    2708:	00540900 	subseq	r0, r4, r0, lsl #18
    270c:	00cc0000 	sbceq	r0, ip, r0
    2710:	cc0a0000 	stcgt	0, cr0, [sl], {-0}
    2714:	03000000 	movweq	r0, #0
    2718:	07040300 	streq	r0, [r4, -r0, lsl #6]
    271c:	0000013c 	andeq	r0, r0, ip, lsr r1
    2720:	a303080b 	movwge	r0, #14347	; 0x380b
    2724:	000000f4 	strdeq	r0, [r0], -r4
    2728:	000b4c0c 	andeq	r4, fp, ip, lsl #24
    272c:	25a50300 	strcs	r0, [r5, #768]!	; 0x300
    2730:	00000000 	andeq	r0, r0, r0
    2734:	000b540c 	andeq	r5, fp, ip, lsl #8
    2738:	9daa0300 	stcls	3, cr0, [sl]
    273c:	04000000 	streq	r0, [r0], #-0
    2740:	0adf0500 	beq	ff7c3b48 <__bss_end__+0xff7ba0d0>
    2744:	ab030000 	blge	c274c <__bss_end__+0xb8cd4>
    2748:	000000d3 	ldrdeq	r0, [r0], -r3
    274c:	00098b05 	andeq	r8, r9, r5, lsl #22
    2750:	70af0300 	adcvc	r0, pc, r0, lsl #6
    2754:	0d000000 	stceq	0, cr0, [r0, #-0]
    2758:	12040e04 	andne	r0, r4, #4, 28	; 0x40
    275c:	03000001 	movweq	r0, #1
    2760:	00690801 	rsbeq	r0, r9, r1, lsl #16
    2764:	120f0000 	andne	r0, pc, #0
    2768:	05000001 	streq	r0, [r0, #-1]
    276c:	00000c09 	andeq	r0, r0, r9, lsl #24
    2770:	00621605 	rsbeq	r1, r2, r5, lsl #12
    2774:	9c100000 	ldcls	0, cr0, [r0], {-0}
    2778:	18000009 	stmdane	r0, {r0, r3}
    277c:	017c2d05 	cmneq	ip, r5, lsl #26
    2780:	000c0000 	andeq	r0, ip, r0
    2784:	0500000b 	streq	r0, [r0, #-11]
    2788:	00017c2f 	andeq	r7, r1, pc, lsr #24
    278c:	5f110000 	svcpl	0x00110000
    2790:	3005006b 	andcc	r0, r5, fp, rrx
    2794:	00000025 	andeq	r0, r0, r5, lsr #32
    2798:	0b370c04 	bleq	dc57b0 <__bss_end__+0xdbbd38>
    279c:	30050000 	andcc	r0, r5, r0
    27a0:	00000025 	andeq	r0, r0, r5, lsr #32
    27a4:	09770c08 	ldmdbeq	r7!, {r3, sl, fp}^
    27a8:	30050000 	andcc	r0, r5, r0
    27ac:	00000025 	andeq	r0, r0, r5, lsr #32
    27b0:	0c500c0c 	mrrceq	12, 0, r0, r0, cr12	; <UNPREDICTABLE>
    27b4:	30050000 	andcc	r0, r5, r0
    27b8:	00000025 	andeq	r0, r0, r5, lsr #32
    27bc:	785f1110 	ldmdavc	pc, {r4, r8, ip}^	; <UNPREDICTABLE>
    27c0:	82310500 	eorshi	r0, r1, #0, 10
    27c4:	14000001 	strne	r0, [r0], #-1
    27c8:	29040e00 	stmdbcs	r4, {r9, sl, fp}
    27cc:	09000001 	stmdbeq	r0, {r0}
    27d0:	0000011e 	andeq	r0, r0, lr, lsl r1
    27d4:	00000192 	muleq	r0, r2, r1
    27d8:	0000cc0a 	andeq	ip, r0, sl, lsl #24
    27dc:	10000000 	andne	r0, r0, r0
    27e0:	000009bd 			; <UNDEFINED> instruction: 0x000009bd
    27e4:	0b350524 	bleq	d43c7c <__bss_end__+0xd3a204>
    27e8:	0c000002 	stceq	0, cr0, [r0], {2}
    27ec:	00000875 	andeq	r0, r0, r5, ror r8
    27f0:	00253705 	eoreq	r3, r5, r5, lsl #14
    27f4:	0c000000 	stceq	0, cr0, [r0], {-0}
    27f8:	00000b6f 	andeq	r0, r0, pc, ror #22
    27fc:	00253805 	eoreq	r3, r5, r5, lsl #16
    2800:	0c040000 	stceq	0, cr0, [r4], {-0}
    2804:	000008a3 	andeq	r0, r0, r3, lsr #17
    2808:	00253905 	eoreq	r3, r5, r5, lsl #18
    280c:	0c080000 	stceq	0, cr0, [r8], {-0}
    2810:	00000d40 	andeq	r0, r0, r0, asr #26
    2814:	00253a05 	eoreq	r3, r5, r5, lsl #20
    2818:	0c0c0000 	stceq	0, cr0, [ip], {-0}
    281c:	00000a6f 	andeq	r0, r0, pc, ror #20
    2820:	00253b05 	eoreq	r3, r5, r5, lsl #22
    2824:	0c100000 	ldceq	0, cr0, [r0], {-0}
    2828:	00000a44 	andeq	r0, r0, r4, asr #20
    282c:	00253c05 	eoreq	r3, r5, r5, lsl #24
    2830:	0c140000 	ldceq	0, cr0, [r4], {-0}
    2834:	00000c55 	andeq	r0, r0, r5, asr ip
    2838:	00253d05 	eoreq	r3, r5, r5, lsl #26
    283c:	0c180000 	ldceq	0, cr0, [r8], {-0}
    2840:	00000ac1 	andeq	r0, r0, r1, asr #21
    2844:	00253e05 	eoreq	r3, r5, r5, lsl #28
    2848:	0c1c0000 	ldceq	0, cr0, [ip], {-0}
    284c:	00000d07 	andeq	r0, r0, r7, lsl #26
    2850:	00253f05 	eoreq	r3, r5, r5, lsl #30
    2854:	00200000 	eoreq	r0, r0, r0
    2858:	0008b212 	andeq	fp, r8, r2, lsl r2
    285c:	05010800 	streq	r0, [r1, #-2048]	; 0x800
    2860:	00024b48 	andeq	r4, r2, r8, asr #22
    2864:	095e0c00 	ldmdbeq	lr, {sl, fp}^
    2868:	49050000 	stmdbmi	r5, {}	; <UNPREDICTABLE>
    286c:	0000024b 	andeq	r0, r0, fp, asr #4
    2870:	07f00c00 	ldrbeq	r0, [r0, r0, lsl #24]!
    2874:	4a050000 	bmi	14287c <__bss_end__+0x138e04>
    2878:	0000024b 	andeq	r0, r0, fp, asr #4
    287c:	0bfb1380 	bleq	ffec7684 <__bss_end__+0xffebdc0c>
    2880:	4c050000 	stcmi	0, cr0, [r5], {-0}
    2884:	0000011e 	andeq	r0, r0, lr, lsl r1
    2888:	d7130100 	ldrle	r0, [r3, -r0, lsl #2]
    288c:	05000008 	streq	r0, [r0, #-8]
    2890:	00011e4f 	andeq	r1, r1, pc, asr #28
    2894:	00010400 	andeq	r0, r1, r0, lsl #8
    2898:	00010a09 	andeq	r0, r1, r9, lsl #20
    289c:	00025b00 	andeq	r5, r2, r0, lsl #22
    28a0:	00cc0a00 	sbceq	r0, ip, r0, lsl #20
    28a4:	001f0000 	andseq	r0, pc, r0
    28a8:	000a7812 	andeq	r7, sl, r2, lsl r8
    28ac:	05019000 	streq	r9, [r1, #-0]
    28b0:	0002995b 	andeq	r9, r2, fp, asr r9
    28b4:	0b000c00 	bleq	58bc <__code_start__-0x2744>
    28b8:	5c050000 	stcpl	0, cr0, [r5], {-0}
    28bc:	00000299 	muleq	r0, r9, r2
    28c0:	0b180c00 	bleq	6058c8 <__bss_end__+0x5fbe50>
    28c4:	5d050000 	stcpl	0, cr0, [r5, #-0]
    28c8:	00000025 	andeq	r0, r0, r5, lsr #32
    28cc:	09720c04 	ldmdbeq	r2!, {r2, sl, fp}^
    28d0:	5f050000 	svcpl	0x00050000
    28d4:	0000029f 	muleq	r0, pc, r2	; <UNPREDICTABLE>
    28d8:	08b20c08 	ldmeq	r2!, {r3, sl, fp}
    28dc:	60050000 	andvs	r0, r5, r0
    28e0:	0000020b 	andeq	r0, r0, fp, lsl #4
    28e4:	040e0088 	streq	r0, [lr], #-136	; 0x88
    28e8:	0000025b 	andeq	r0, r0, fp, asr r2
    28ec:	0002af09 	andeq	sl, r2, r9, lsl #30
    28f0:	0002af00 	andeq	sl, r2, r0, lsl #30
    28f4:	00cc0a00 	sbceq	r0, ip, r0, lsl #20
    28f8:	001f0000 	andseq	r0, pc, r0
    28fc:	02b5040e 	adcseq	r0, r5, #234881024	; 0xe000000
    2900:	10140000 	andsne	r0, r4, r0
    2904:	00000acb 	andeq	r0, r0, fp, asr #21
    2908:	db730508 	blle	1cc3d30 <__bss_end__+0x1cba2b8>
    290c:	0c000002 	stceq	0, cr0, [r0], {2}
    2910:	00000898 	muleq	r0, r8, r8
    2914:	02db7405 	sbcseq	r7, fp, #83886080	; 0x5000000
    2918:	0c000000 	stceq	0, cr0, [r0], {-0}
    291c:	000007fc 	strdeq	r0, [r0], -ip
    2920:	00257505 	eoreq	r7, r5, r5, lsl #10
    2924:	00040000 	andeq	r0, r4, r0
    2928:	0054040e 	subseq	r0, r4, lr, lsl #8
    292c:	ea100000 	b	402934 <__bss_end__+0x3f8ebc>
    2930:	6800000a 	stmdavs	r0, {r1, r3}
    2934:	040bb305 	streq	fp, [fp], #-773	; 0x305
    2938:	5f110000 	svcpl	0x00110000
    293c:	b4050070 	strlt	r0, [r5], #-112	; 0x70
    2940:	000002db 	ldrdeq	r0, [r0], -fp
    2944:	725f1100 	subsvc	r1, pc, #0, 2
    2948:	25b50500 	ldrcs	r0, [r5, #1280]!	; 0x500
    294c:	04000000 	streq	r0, [r0], #-0
    2950:	00775f11 	rsbseq	r5, r7, r1, lsl pc
    2954:	0025b605 	eoreq	fp, r5, r5, lsl #12
    2958:	0c080000 	stceq	0, cr0, [r8], {-0}
    295c:	000008d0 	ldrdeq	r0, [r0], -r0	; <UNPREDICTABLE>
    2960:	003fb705 	eorseq	fp, pc, r5, lsl #14
    2964:	0c0c0000 	stceq	0, cr0, [ip], {-0}
    2968:	000009e3 	andeq	r0, r0, r3, ror #19
    296c:	003fb805 	eorseq	fp, pc, r5, lsl #16
    2970:	110e0000 	mrsne	r0, (UNDEF: 14)
    2974:	0066625f 	rsbeq	r6, r6, pc, asr r2
    2978:	02b6b905 	adcseq	fp, r6, #81920	; 0x14000
    297c:	0c100000 	ldceq	0, cr0, [r0], {-0}
    2980:	0000083f 	andeq	r0, r0, pc, lsr r8
    2984:	0025ba05 	eoreq	fp, r5, r5, lsl #20
    2988:	0c180000 	ldceq	0, cr0, [r8], {-0}
    298c:	000008c0 	andeq	r0, r0, r0, asr #17
    2990:	010ac105 	tsteq	sl, r5, lsl #2
    2994:	0c1c0000 	ldceq	0, cr0, [ip], {-0}
    2998:	00000d67 	andeq	r0, r0, r7, ror #26
    299c:	0566c305 	strbeq	ip, [r6, #-773]!	; 0x305
    29a0:	0c200000 	stceq	0, cr0, [r0], #-0
    29a4:	00000d81 	andeq	r0, r0, r1, lsl #27
    29a8:	0590c505 	ldreq	ip, [r0, #1285]	; 0x505
    29ac:	0c240000 	stceq	0, cr0, [r4], #-0
    29b0:	00000b5c 	andeq	r0, r0, ip, asr fp
    29b4:	05b4c805 	ldreq	ip, [r4, #2053]!	; 0x805
    29b8:	0c280000 	stceq	0, cr0, [r8], #-0
    29bc:	00000d21 	andeq	r0, r0, r1, lsr #26
    29c0:	05cec905 	strbeq	ip, [lr, #2309]	; 0x905
    29c4:	112c0000 	teqne	ip, r0
    29c8:	0062755f 	rsbeq	r7, r2, pc, asr r5
    29cc:	02b6cc05 	adcseq	ip, r6, #1280	; 0x500
    29d0:	11300000 	teqne	r0, r0
    29d4:	0070755f 	rsbseq	r7, r0, pc, asr r5
    29d8:	02dbcd05 	sbcseq	ip, fp, #320	; 0x140
    29dc:	11380000 	teqne	r8, r0
    29e0:	0072755f 	rsbseq	r7, r2, pc, asr r5
    29e4:	0025ce05 	eoreq	ip, r5, r5, lsl #28
    29e8:	0c3c0000 	ldceq	0, cr0, [ip], #-0
    29ec:	00000883 	andeq	r0, r0, r3, lsl #17
    29f0:	05d4d105 	ldrbeq	sp, [r4, #261]	; 0x105
    29f4:	0c400000 	mareq	acc0, r0, r0
    29f8:	00000ccc 	andeq	r0, r0, ip, asr #25
    29fc:	05e4d205 	strbeq	sp, [r4, #517]!	; 0x205
    2a00:	11430000 	mrsne	r0, (UNDEF: 67)
    2a04:	00626c5f 	rsbeq	r6, r2, pc, asr ip
    2a08:	02b6d505 	adcseq	sp, r6, #20971520	; 0x1400000
    2a0c:	0c440000 	mareq	acc0, r0, r4
    2a10:	000008e6 	andeq	r0, r0, r6, ror #17
    2a14:	0025d805 	eoreq	sp, r5, r5, lsl #16
    2a18:	0c4c0000 	mareq	acc0, r0, ip
    2a1c:	00000a4e 	andeq	r0, r0, lr, asr #20
    2a20:	007bd905 	rsbseq	sp, fp, r5, lsl #18
    2a24:	0c500000 	mraeq	r0, r0, acc0
    2a28:	00000cb7 			; <UNDEFINED> instruction: 0x00000cb7
    2a2c:	0429dc05 	strteq	sp, [r9], #-3077	; 0xc05
    2a30:	0c540000 	mraeq	r0, r4, acc0
    2a34:	00000a36 	andeq	r0, r0, r6, lsr sl
    2a38:	00ffe005 	rscseq	lr, pc, r5
    2a3c:	0c580000 	mraeq	r0, r8, acc0
    2a40:	00000af2 	strdeq	r0, [r0], -r2
    2a44:	00f4e205 	rscseq	lr, r4, r5, lsl #4
    2a48:	0c5c0000 	mraeq	r0, ip, acc0
    2a4c:	00000a3c 	andeq	r0, r0, ip, lsr sl
    2a50:	0025e305 	eoreq	lr, r5, r5, lsl #6
    2a54:	00640000 	rsbeq	r0, r4, r0
    2a58:	00002515 	andeq	r2, r0, r5, lsl r5
    2a5c:	00042900 	andeq	r2, r4, r0, lsl #18
    2a60:	04291600 	strteq	r1, [r9], #-1536	; 0x600
    2a64:	0a160000 	beq	582a6c <__bss_end__+0x578ff4>
    2a68:	16000001 	strne	r0, [r0], -r1
    2a6c:	0000010c 	andeq	r0, r0, ip, lsl #2
    2a70:	00002516 	andeq	r2, r0, r6, lsl r5
    2a74:	040e0000 	streq	r0, [lr], #-0
    2a78:	00000434 	andeq	r0, r0, r4, lsr r4
    2a7c:	0004290f 	andeq	r2, r4, pc, lsl #18
    2a80:	0b3f1700 	bleq	fc8688 <__bss_end__+0xfbec10>
    2a84:	04280000 	strteq	r0, [r8], #-0
    2a88:	66023805 	strvs	r3, [r2], -r5, lsl #16
    2a8c:	18000005 	stmdane	r0, {r0, r2}
    2a90:	00000aba 			; <UNDEFINED> instruction: 0x00000aba
    2a94:	25023a05 	strcs	r3, [r2, #-2565]	; 0xa05
    2a98:	00000000 	andeq	r0, r0, r0
    2a9c:	0008df18 	andeq	sp, r8, r8, lsl pc
    2aa0:	023f0500 	eorseq	r0, pc, #0, 10
    2aa4:	0000063b 	andeq	r0, r0, fp, lsr r6
    2aa8:	09d31804 	ldmibeq	r3, {r2, fp, ip}^
    2aac:	3f050000 	svccc	0x00050000
    2ab0:	00063b02 	andeq	r3, r6, r2, lsl #22
    2ab4:	94180800 	ldrls	r0, [r8], #-2048	; 0x800
    2ab8:	05000009 	streq	r0, [r0, #-9]
    2abc:	063b023f 			; <UNDEFINED> instruction: 0x063b023f
    2ac0:	180c0000 	stmdane	ip, {}	; <UNPREDICTABLE>
    2ac4:	00000b13 	andeq	r0, r0, r3, lsl fp
    2ac8:	25024105 	strcs	r4, [r2, #-261]	; 0x105
    2acc:	10000000 	andne	r0, r0, r0
    2ad0:	00080a18 	andeq	r0, r8, r8, lsl sl
    2ad4:	02420500 	subeq	r0, r2, #0, 10
    2ad8:	0000081d 	andeq	r0, r0, sp, lsl r8
    2adc:	0c311814 	ldceq	8, cr1, [r1], #-80	; 0xffffffb0
    2ae0:	44050000 	strmi	r0, [r5], #-0
    2ae4:	00002502 	andeq	r2, r0, r2, lsl #10
    2ae8:	1d183000 	ldcne	0, cr3, [r8, #-0]
    2aec:	0500000b 	streq	r0, [r0, #-11]
    2af0:	058a0245 	streq	r0, [sl, #581]	; 0x245
    2af4:	18340000 	ldmdane	r4!, {}	; <UNPREDICTABLE>
    2af8:	00000a80 	andeq	r0, r0, r0, lsl #21
    2afc:	25024705 	strcs	r4, [r2, #-1797]	; 0x705
    2b00:	38000000 	stmdacc	r0, {}	; <UNPREDICTABLE>
    2b04:	000b2d18 	andeq	r2, fp, r8, lsl sp
    2b08:	02490500 	subeq	r0, r9, #0, 10
    2b0c:	00000838 	andeq	r0, r0, r8, lsr r8
    2b10:	0a12183c 	beq	488c08 <__bss_end__+0x47f190>
    2b14:	4c050000 	stcmi	0, cr0, [r5], {-0}
    2b18:	00017c02 	andeq	r7, r1, r2, lsl #24
    2b1c:	b3184000 	tstlt	r8, #0
    2b20:	05000009 	streq	r0, [r0, #-9]
    2b24:	0025024d 	eoreq	r0, r5, sp, asr #4
    2b28:	18440000 	stmdane	r4, {}^	; <UNPREDICTABLE>
    2b2c:	00000d3b 	andeq	r0, r0, fp, lsr sp
    2b30:	7c024e05 	stcvc	14, cr4, [r2], {5}
    2b34:	48000001 	stmdami	r0, {r0}
    2b38:	000a9718 	andeq	r9, sl, r8, lsl r7
    2b3c:	024f0500 	subeq	r0, pc, #0, 10
    2b40:	0000083e 	andeq	r0, r0, lr, lsr r8
    2b44:	09db184c 	ldmibeq	fp, {r2, r3, r6, fp, ip}^
    2b48:	52050000 	andpl	r0, r5, #0
    2b4c:	00002502 	andeq	r2, r0, r2, lsl #10
    2b50:	02185000 	andseq	r5, r8, #0
    2b54:	05000009 	streq	r0, [r0, #-9]
    2b58:	010c0253 	tsteq	ip, r3, asr r2
    2b5c:	18540000 	ldmdane	r4, {}^	; <UNPREDICTABLE>
    2b60:	00000ab3 			; <UNDEFINED> instruction: 0x00000ab3
    2b64:	fb027605 	blx	a0382 <__bss_end__+0x9690a>
    2b68:	58000007 	stmdapl	r0, {r0, r1, r2}
    2b6c:	000a7819 	andeq	r7, sl, r9, lsl r8
    2b70:	027a0500 	rsbseq	r0, sl, #0, 10
    2b74:	00000299 	muleq	r0, r9, r2
    2b78:	f0190148 			; <UNDEFINED> instruction: 0xf0190148
    2b7c:	05000009 	streq	r0, [r0, #-9]
    2b80:	025b027b 	subseq	r0, fp, #-1342177273	; 0xb0000007
    2b84:	014c0000 	mrseq	r0, (UNDEF: 76)
    2b88:	000c9d19 	andeq	r9, ip, r9, lsl sp
    2b8c:	027f0500 	rsbseq	r0, pc, #0, 10
    2b90:	0000084f 	andeq	r0, r0, pc, asr #16
    2b94:	c81902dc 	ldmdagt	r9, {r2, r3, r4, r6, r7, r9}
    2b98:	05000008 	streq	r0, [r0, #-8]
    2b9c:	06000284 	streq	r0, [r0], -r4, lsl #5
    2ba0:	02e00000 	rsceq	r0, r0, #0
    2ba4:	0008ad19 	andeq	sl, r8, r9, lsl sp
    2ba8:	02850500 	addeq	r0, r5, #0, 10
    2bac:	0000085b 	andeq	r0, r0, fp, asr r8
    2bb0:	0e0002ec 	cdpeq	2, 0, cr0, cr0, cr12, {7}
    2bb4:	00040b04 	andeq	r0, r4, r4, lsl #22
    2bb8:	00251500 	eoreq	r1, r5, r0, lsl #10
    2bbc:	058a0000 	streq	r0, [sl]
    2bc0:	29160000 	ldmdbcs	r6, {}	; <UNPREDICTABLE>
    2bc4:	16000004 	strne	r0, [r0], -r4
    2bc8:	0000010a 	andeq	r0, r0, sl, lsl #2
    2bcc:	00058a16 	andeq	r8, r5, r6, lsl sl
    2bd0:	00251600 	eoreq	r1, r5, r0, lsl #12
    2bd4:	0e000000 	cdpeq	0, 0, cr0, cr0, cr0, {0}
    2bd8:	00011904 	andeq	r1, r1, r4, lsl #18
    2bdc:	6c040e00 	stcvs	14, cr0, [r4], {-0}
    2be0:	15000005 	strne	r0, [r0, #-5]
    2be4:	00000086 	andeq	r0, r0, r6, lsl #1
    2be8:	000005b4 			; <UNDEFINED> instruction: 0x000005b4
    2bec:	00042916 	andeq	r2, r4, r6, lsl r9
    2bf0:	010a1600 	tsteq	sl, r0, lsl #12
    2bf4:	86160000 	ldrhi	r0, [r6], -r0
    2bf8:	16000000 	strne	r0, [r0], -r0
    2bfc:	00000025 	andeq	r0, r0, r5, lsr #32
    2c00:	96040e00 	strls	r0, [r4], -r0, lsl #28
    2c04:	15000005 	strne	r0, [r0, #-5]
    2c08:	00000025 	andeq	r0, r0, r5, lsr #32
    2c0c:	000005ce 	andeq	r0, r0, lr, asr #11
    2c10:	00042916 	andeq	r2, r4, r6, lsl r9
    2c14:	010a1600 	tsteq	sl, r0, lsl #12
    2c18:	0e000000 	cdpeq	0, 0, cr0, cr0, cr0, {0}
    2c1c:	0005ba04 	andeq	fp, r5, r4, lsl #20
    2c20:	00540900 	subseq	r0, r4, r0, lsl #18
    2c24:	05e40000 	strbeq	r0, [r4, #0]!
    2c28:	cc0a0000 	stcgt	0, cr0, [sl], {-0}
    2c2c:	02000000 	andeq	r0, r0, #0
    2c30:	00540900 	subseq	r0, r4, r0, lsl #18
    2c34:	05f40000 	ldrbeq	r0, [r4, #0]!
    2c38:	cc0a0000 	stcgt	0, cr0, [sl], {-0}
    2c3c:	00000000 	andeq	r0, r0, r0
    2c40:	0ad80600 	beq	ff604448 <__bss_end__+0xff5fa9d0>
    2c44:	1d050000 	stcne	0, cr0, [r5, #-0]
    2c48:	0002e101 	andeq	lr, r2, r1, lsl #2
    2c4c:	0c5f1a00 	mrrceq	10, 0, r1, pc, cr0	; <UNPREDICTABLE>
    2c50:	050c0000 	streq	r0, [ip, #-0]
    2c54:	06350121 	ldrteq	r0, [r5], -r1, lsr #2
    2c58:	00180000 	andseq	r0, r8, r0
    2c5c:	0500000b 	streq	r0, [r0, #-11]
    2c60:	06350123 	ldrteq	r0, [r5], -r3, lsr #2
    2c64:	18000000 	stmdane	r0, {}	; <UNPREDICTABLE>
    2c68:	000009e9 	andeq	r0, r0, r9, ror #19
    2c6c:	25012405 	strcs	r2, [r1, #-1029]	; 0x405
    2c70:	04000000 	streq	r0, [r0], #-0
    2c74:	000ad218 	andeq	sp, sl, r8, lsl r2
    2c78:	01250500 	teqeq	r5, r0, lsl #10
    2c7c:	0000063b 	andeq	r0, r0, fp, lsr r6
    2c80:	040e0008 	streq	r0, [lr], #-8
    2c84:	00000600 	andeq	r0, r0, r0, lsl #12
    2c88:	05f4040e 	ldrbeq	r0, [r4, #1038]!	; 0x40e
    2c8c:	021a0000 	andseq	r0, sl, #0
    2c90:	0e000008 	cdpeq	0, 0, cr0, cr0, cr8, {0}
    2c94:	76013d05 	strvc	r3, [r1], -r5, lsl #26
    2c98:	18000006 	stmdane	r0, {r1, r2}
    2c9c:	00000b46 	andeq	r0, r0, r6, asr #22
    2ca0:	76013e05 	strvc	r3, [r1], -r5, lsl #28
    2ca4:	00000006 	andeq	r0, r0, r6
    2ca8:	000b8018 	andeq	r8, fp, r8, lsl r0
    2cac:	013f0500 	teqeq	pc, r0, lsl #10
    2cb0:	00000676 	andeq	r0, r0, r6, ror r6
    2cb4:	0c041806 	stceq	8, cr1, [r4], {6}
    2cb8:	40050000 	andmi	r0, r5, r0
    2cbc:	00005b01 	andeq	r5, r0, r1, lsl #22
    2cc0:	09000c00 	stmdbeq	r0, {sl, fp}
    2cc4:	0000005b 	andeq	r0, r0, fp, asr r0
    2cc8:	00000686 	andeq	r0, r0, r6, lsl #13
    2ccc:	0000cc0a 	andeq	ip, r0, sl, lsl #24
    2cd0:	1b000200 	blne	34d8 <__code_start__-0x4b28>
    2cd4:	025705d0 	subseq	r0, r7, #208, 10	; 0x34000000
    2cd8:	00000787 	andeq	r0, r0, r7, lsl #15
    2cdc:	000c4318 	andeq	r4, ip, r8, lsl r3
    2ce0:	02590500 	subseq	r0, r9, #0, 10
    2ce4:	0000002c 	andeq	r0, r0, ip, lsr #32
    2ce8:	0bee1800 	bleq	ffb88cf0 <__bss_end__+0xffb7f278>
    2cec:	5a050000 	bpl	142cf4 <__bss_end__+0x13927c>
    2cf0:	00010c02 	andeq	r0, r1, r2, lsl #24
    2cf4:	05180400 	ldreq	r0, [r8, #-1024]	; 0x400
    2cf8:	0500000a 	streq	r0, [r0, #-10]
    2cfc:	0787025b 			; <UNDEFINED> instruction: 0x0787025b
    2d00:	18080000 	stmdane	r8, {}	; <UNPREDICTABLE>
    2d04:	00000d12 	andeq	r0, r0, r2, lsl sp
    2d08:	92025c05 	andls	r5, r2, #1280	; 0x500
    2d0c:	24000001 	strcs	r0, [r0], #-1
    2d10:	0009a418 	andeq	sl, r9, r8, lsl r4
    2d14:	025d0500 	subseq	r0, sp, #0, 10
    2d18:	00000025 	andeq	r0, r0, r5, lsr #32
    2d1c:	0afb1848 	beq	ffec8e44 <__bss_end__+0xffebf3cc>
    2d20:	5e050000 	cdppl	0, 0, cr0, cr5, cr0, {0}
    2d24:	00006902 	andeq	r6, r0, r2, lsl #18
    2d28:	28185000 	ldmdacs	r8, {ip, lr}
    2d2c:	0500000d 	streq	r0, [r0, #-13]
    2d30:	0641025f 			; <UNDEFINED> instruction: 0x0641025f
    2d34:	18580000 	ldmdane	r8, {}^	; <UNPREDICTABLE>
    2d38:	00000b06 	andeq	r0, r0, r6, lsl #22
    2d3c:	f4026005 	vst4.8	{d6-d9}, [r2], r5
    2d40:	68000000 	stmdavs	r0, {}	; <UNPREDICTABLE>
    2d44:	000d2d18 	andeq	r2, sp, r8, lsl sp
    2d48:	02610500 	rsbeq	r0, r1, #0, 10
    2d4c:	000000f4 	strdeq	r0, [r0], -r4
    2d50:	08671870 	stmdaeq	r7!, {r4, r5, r6, fp, ip}^
    2d54:	62050000 	andvs	r0, r5, #0
    2d58:	0000f402 	andeq	pc, r0, r2, lsl #8
    2d5c:	7f187800 	svcvc	0x00187800
    2d60:	0500000c 	streq	r0, [r0, #-12]
    2d64:	07970263 	ldreq	r0, [r7, r3, ror #4]
    2d68:	18800000 	stmne	r0, {}	; <UNPREDICTABLE>
    2d6c:	000009f9 	strdeq	r0, [r0], -r9
    2d70:	a7026405 	strge	r6, [r2, -r5, lsl #8]
    2d74:	88000007 	stmdahi	r0, {r0, r1, r2}
    2d78:	000c1118 	andeq	r1, ip, r8, lsl r1
    2d7c:	02650500 	rsbeq	r0, r5, #0, 10
    2d80:	00000025 	andeq	r0, r0, r5, lsr #32
    2d84:	095018a0 	ldmdbeq	r0, {r5, r7, fp, ip}^
    2d88:	66050000 	strvs	r0, [r5], -r0
    2d8c:	0000f402 	andeq	pc, r0, r2, lsl #8
    2d90:	5818a400 	ldmdapl	r8, {sl, sp, pc}
    2d94:	05000008 	streq	r0, [r0, #-8]
    2d98:	00f40267 	rscseq	r0, r4, r7, ror #4
    2d9c:	18ac0000 	stmiane	ip!, {}	; <UNPREDICTABLE>
    2da0:	0000093f 	andeq	r0, r0, pc, lsr r9
    2da4:	f4026805 	vst2.8	{d6-d7}, [r2], r5
    2da8:	b4000000 	strlt	r0, [r0], #-0
    2dac:	00081f18 	andeq	r1, r8, r8, lsl pc
    2db0:	02690500 	rsbeq	r0, r9, #0, 10
    2db4:	000000f4 	strdeq	r0, [r0], -r4
    2db8:	082e18bc 	stmdaeq	lr!, {r2, r3, r4, r5, r7, fp, ip}
    2dbc:	6a050000 	bvs	142dc4 <__bss_end__+0x13934c>
    2dc0:	0000f402 	andeq	pc, r0, r2, lsl #8
    2dc4:	b818c400 	ldmdalt	r8, {sl, lr, pc}
    2dc8:	0500000a 	streq	r0, [r0, #-10]
    2dcc:	0025026b 	eoreq	r0, r5, fp, ror #4
    2dd0:	00cc0000 	sbceq	r0, ip, r0
    2dd4:	00011209 	andeq	r1, r1, r9, lsl #4
    2dd8:	00079700 	andeq	r9, r7, r0, lsl #14
    2ddc:	00cc0a00 	sbceq	r0, ip, r0, lsl #20
    2de0:	00190000 	andseq	r0, r9, r0
    2de4:	00011209 	andeq	r1, r1, r9, lsl #4
    2de8:	0007a700 	andeq	sl, r7, r0, lsl #14
    2dec:	00cc0a00 	sbceq	r0, ip, r0, lsl #20
    2df0:	00070000 	andeq	r0, r7, r0
    2df4:	00011209 	andeq	r1, r1, r9, lsl #4
    2df8:	0007b700 	andeq	fp, r7, r0, lsl #14
    2dfc:	00cc0a00 	sbceq	r0, ip, r0, lsl #20
    2e00:	00170000 	andseq	r0, r7, r0
    2e04:	7005f01b 	andvc	pc, r5, fp, lsl r0	; <UNPREDICTABLE>
    2e08:	0007db02 	andeq	sp, r7, r2, lsl #22
    2e0c:	0a681800 	beq	1a08e14 <__bss_end__+0x19ff39c>
    2e10:	73050000 	movwvc	r0, #20480	; 0x5000
    2e14:	0007db02 	andeq	sp, r7, r2, lsl #22
    2e18:	76180000 	ldrvc	r0, [r8], -r0
    2e1c:	0500000c 	streq	r0, [r0, #-12]
    2e20:	07eb0274 			; <UNDEFINED> instruction: 0x07eb0274
    2e24:	00780000 	rsbseq	r0, r8, r0
    2e28:	0002db09 	andeq	sp, r2, r9, lsl #22
    2e2c:	0007eb00 	andeq	lr, r7, r0, lsl #22
    2e30:	00cc0a00 	sbceq	r0, ip, r0, lsl #20
    2e34:	001d0000 	andseq	r0, sp, r0
    2e38:	00002c09 	andeq	r2, r0, r9, lsl #24
    2e3c:	0007fb00 	andeq	pc, r7, r0, lsl #22
    2e40:	00cc0a00 	sbceq	r0, ip, r0, lsl #20
    2e44:	001d0000 	andseq	r0, sp, r0
    2e48:	5505f01c 	strpl	pc, [r5, #-28]
    2e4c:	00081d02 	andeq	r1, r8, r2, lsl #26
    2e50:	0b3f1d00 	bleq	fca258 <__bss_end__+0xfc07e0>
    2e54:	6c050000 	stcvs	0, cr0, [r5], {-0}
    2e58:	00068602 	andeq	r8, r6, r2, lsl #12
    2e5c:	0cd21d00 	ldcleq	13, cr1, [r2], {0}
    2e60:	75050000 	strvc	r0, [r5, #-0]
    2e64:	0007b702 	andeq	fp, r7, r2, lsl #14
    2e68:	12090000 	andne	r0, r9, #0
    2e6c:	2d000001 	stccs	0, cr0, [r0, #-4]
    2e70:	0a000008 	beq	2e98 <__code_start__-0x5168>
    2e74:	000000cc 	andeq	r0, r0, ip, asr #1
    2e78:	381e0018 	ldmdacc	lr, {r3, r4}
    2e7c:	16000008 	strne	r0, [r0], -r8
    2e80:	00000429 	andeq	r0, r0, r9, lsr #8
    2e84:	2d040e00 	stccs	14, cr0, [r4, #-0]
    2e88:	0e000008 	cdpeq	0, 0, cr0, cr0, cr8, {0}
    2e8c:	00017c04 	andeq	r7, r1, r4, lsl #24
    2e90:	084f1e00 	stmdaeq	pc, {r9, sl, fp, ip}^	; <UNPREDICTABLE>
    2e94:	25160000 	ldrcs	r0, [r6, #-0]
    2e98:	00000000 	andeq	r0, r0, r0
    2e9c:	0855040e 	ldmdaeq	r5, {r1, r2, r3, sl}^
    2ea0:	040e0000 	streq	r0, [lr], #-0
    2ea4:	00000844 	andeq	r0, r0, r4, asr #16
    2ea8:	0005f409 	andeq	pc, r5, r9, lsl #8
    2eac:	00086b00 	andeq	r6, r8, r0, lsl #22
    2eb0:	00cc0a00 	sbceq	r0, ip, r0, lsl #20
    2eb4:	00020000 	andeq	r0, r2, r0
    2eb8:	000c251f 	andeq	r2, ip, pc, lsl r5
    2ebc:	02fd0500 	rscseq	r0, sp, #0, 10
    2ec0:	00000429 	andeq	r0, r0, r9, lsr #8
    2ec4:	000c1e1f 	andeq	r1, ip, pc, lsl lr
    2ec8:	02fe0500 	rscseq	r0, lr, #0, 10
    2ecc:	0000042f 	andeq	r0, r0, pc, lsr #8
    2ed0:	00002515 	andeq	r2, r0, r5, lsl r5
    2ed4:	00089200 	andeq	r9, r8, r0, lsl #4
    2ed8:	00251600 	eoreq	r1, r5, r0, lsl #12
    2edc:	20000000 	andcs	r0, r0, r0
    2ee0:	00000400 	andeq	r0, r0, r0, lsl #8
    2ee4:	089d1d06 	ldmeq	sp, {r1, r2, r8, sl, fp, ip}
    2ee8:	040e0000 	streq	r0, [lr], #-0
    2eec:	00000883 	andeq	r0, r0, r3, lsl #17
    2ef0:	00002515 	andeq	r2, r0, r5, lsl r5
    2ef4:	0008b200 	andeq	fp, r8, r0, lsl #4
    2ef8:	058a1600 	streq	r1, [sl, #1536]	; 0x600
    2efc:	20000000 	andcs	r0, r0, r0
    2f00:	0000043d 	andeq	r0, r0, sp, lsr r4
    2f04:	08bd2206 	popeq	{r1, r2, r9, sp}
    2f08:	040e0000 	streq	r0, [lr], #-0
    2f0c:	000008a3 	andeq	r0, r0, r3, lsr #17
    2f10:	00540121 	subseq	r0, r4, r1, lsr #2
    2f14:	0c080000 	stceq	0, cr0, [r8], {-0}
    2f18:	00000900 	andeq	r0, r0, r0, lsl #18
    2f1c:	00084822 	andeq	r4, r8, r2, lsr #16
    2f20:	65220000 	strvs	r0, [r2, #-0]!
    2f24:	0100000c 	tsteq	r0, ip
    2f28:	000cbd22 	andeq	fp, ip, r2, lsr #26
    2f2c:	89220400 	stmdbhi	r2!, {sl}
    2f30:	05000008 	streq	r0, [r0, #-8]
    2f34:	000a2022 	andeq	r2, sl, r2, lsr #32
    2f38:	da220600 	ble	884740 <__bss_end__+0x87acc8>
    2f3c:	0700000c 	streq	r0, [r0, -ip]
    2f40:	000ce922 	andeq	lr, ip, r2, lsr #18
    2f44:	f8220300 			; <UNDEFINED> instruction: 0xf8220300
    2f48:	0200000c 	andeq	r0, r0, #12
    2f4c:	08f61000 	ldmeq	r6!, {ip}^
    2f50:	072c0000 	streq	r0, [ip, -r0]!
    2f54:	00099006 	andeq	r9, r9, r6
    2f58:	6f691100 	svcvs	0x00691100
    2f5c:	33090700 	movwcc	r0, #38656	; 0x9700
    2f60:	00000000 	andeq	r0, r0, r0
    2f64:	72656911 	rsbvc	r6, r5, #278528	; 0x44000
    2f68:	330a0700 	movwcc	r0, #42752	; 0xa700
    2f6c:	04000000 	streq	r0, [r0], #-0
    2f70:	72696911 	rsbvc	r6, r9, #278528	; 0x44000
    2f74:	33110700 	tstcc	r1, #0, 14
    2f78:	08000000 	stmdaeq	r0, {}	; <UNPREDICTABLE>
    2f7c:	72636c11 	rsbvc	r6, r3, #4352	; 0x1100
    2f80:	33130700 	tstcc	r3, #0, 14
    2f84:	0c000000 	stceq	0, cr0, [r0], {-0}
    2f88:	72636d11 	rsbvc	r6, r3, #1088	; 0x440
    2f8c:	33140700 	tstcc	r4, #0, 14
    2f90:	10000000 	andne	r0, r0, r0
    2f94:	72736c11 	rsbsvc	r6, r3, #4352	; 0x1100
    2f98:	33150700 	tstcc	r5, #0, 14
    2f9c:	14000000 	strne	r0, [r0], #-0
    2fa0:	72736d11 	rsbsvc	r6, r3, #1088	; 0x440
    2fa4:	33160700 	tstcc	r6, #0, 14
    2fa8:	18000000 	stmdane	r0, {}	; <UNPREDICTABLE>
    2fac:	000b780c 	andeq	r7, fp, ip, lsl #16
    2fb0:	33170700 	tstcc	r7, #0, 14
    2fb4:	1c000000 	stcne	0, cr0, [r0], {-0}
    2fb8:	00089e0c 	andeq	r9, r8, ip, lsl #28
    2fbc:	331b0700 	tstcc	fp, #0, 14
    2fc0:	20000000 	andcs	r0, r0, r0
    2fc4:	00087e0c 	andeq	r7, r8, ip, lsl #28
    2fc8:	331d0700 	tstcc	sp, #0, 14
    2fcc:	24000000 	strcs	r0, [r0], #-0
    2fd0:	000b620c 	andeq	r6, fp, ip, lsl #4
    2fd4:	331e0700 	tstcc	lr, #0, 14
    2fd8:	28000000 	stmdacs	r0, {}	; <UNPREDICTABLE>
    2fdc:	09662300 	stmdbeq	r6!, {r8, r9, sp}^
    2fe0:	07010000 	streq	r0, [r1, -r0]
    2fe4:	000009a5 	andeq	r0, r0, r5, lsr #19
    2fe8:	20215004 	eorcs	r5, r1, r4
    2fec:	0033040e 	eorseq	r0, r3, lr, lsl #8
    2ff0:	9f0f0000 	svcls	0x000f0000
    2ff4:	23000009 	movwcs	r0, #9
    2ff8:	00000a92 	muleq	r0, r2, sl
    2ffc:	09bf2801 	ldmibeq	pc!, {r0, fp, sp}	; <UNPREDICTABLE>
    3000:	50400000 	subpl	r0, r0, r0
    3004:	040e2021 	streq	r2, [lr], #-33	; 0x21
    3008:	00000900 	andeq	r0, r0, r0, lsl #18
    300c:	0009b90f 	andeq	fp, r9, pc, lsl #18
    3010:	0caf2400 	cfstrseq	mvf2, [pc]	; 3018 <__code_start__-0x4fe8>
    3014:	a7010000 	strge	r0, [r1, -r0]
    3018:	00000025 	andeq	r0, r0, r5, lsr #32
    301c:	00009054 	andeq	r9, r0, r4, asr r0
    3020:	00000010 	andeq	r0, r0, r0, lsl r0
    3024:	09f09c01 	ldmibeq	r0!, {r0, sl, fp, ip, pc}^
    3028:	5c250000 	stcpl	0, cr0, [r5], #-0
    302c:	9c000090 	stcls	0, cr0, [r0], {144}	; 0x90
    3030:	2500000c 	strcs	r0, [r0, #-12]
    3034:	00009060 	andeq	r9, r0, r0, rrx
    3038:	00000ad2 	ldrdeq	r0, [r0], -r2
    303c:	03e52600 	mvneq	r2, #0, 12
    3040:	9f010000 	svcls	0x00010000
    3044:	00009024 	andeq	r9, r0, r4, lsr #32
    3048:	00000030 	andeq	r0, r0, r0, lsr r0
    304c:	0a4e9c01 	beq	13aa058 <__bss_end__+0x13a05e0>
    3050:	63270000 	teqvs	r7, #0
    3054:	2c9f0100 	ldfcss	f0, [pc], {0}
    3058:	bb000000 	bllt	3060 <__code_start__-0x4fa0>
    305c:	2500000b 	strcs	r0, [r0, #-11]
    3060:	00009030 	andeq	r9, r0, r0, lsr r0
    3064:	00000c9c 	muleq	r0, ip, ip
    3068:	00903425 	addseq	r3, r0, r5, lsr #8
    306c:	000aa500 	andeq	sl, sl, r0, lsl #10
    3070:	90482800 	subls	r2, r8, r0, lsl #16
    3074:	0ca70000 	stceq	0, cr0, [r7]
    3078:	0a440000 	beq	1103080 <__bss_end__+0x10f9608>
    307c:	01290000 	teqeq	r9, r0
    3080:	400c0550 	andmi	r0, ip, r0, asr r5
    3084:	29202150 	stmdbcs	r0!, {r4, r6, r8, sp}
    3088:	74055101 	strvc	r5, [r5], #-257	; 0x101
    308c:	1aff0800 	bne	fffc5094 <__bss_end__+0xfffbb61c>
    3090:	904c2500 	subls	r2, ip, r0, lsl #10
    3094:	0c9c0000 	ldceq	0, cr0, [ip], {0}
    3098:	24000000 	strcs	r0, [r0], #-0
    309c:	000009c9 	andeq	r0, r0, r9, asr #19
    30a0:	00259701 	eoreq	r9, r5, r1, lsl #14
    30a4:	8ff40000 	svchi	0x00f40000
    30a8:	00300000 	eorseq	r0, r0, r0
    30ac:	9c010000 	stcls	0, cr0, [r1], {-0}
    30b0:	00000aa5 	andeq	r0, r0, r5, lsr #21
    30b4:	0100632a 	tsteq	r0, sl, lsr #6
    30b8:	0000259b 	muleq	r0, fp, r5
    30bc:	25540100 	ldrbcs	r0, [r4, #-256]	; 0x100
    30c0:	00008ffc 	strdeq	r8, [r0], -ip
    30c4:	00000c9c 	muleq	r0, ip, ip
    30c8:	00900025 	addseq	r0, r0, r5, lsr #32
    30cc:	000ad200 	andeq	sp, sl, r0, lsl #4
    30d0:	90102800 	andsls	r2, r0, r0, lsl #16
    30d4:	0cb20000 	ldceq	0, cr0, [r2]
    30d8:	0a9b0000 	beq	fe6c30e0 <__bss_end__+0xfe6b9668>
    30dc:	01290000 	teqeq	r9, r0
    30e0:	400c0550 	andmi	r0, ip, r0, asr r5
    30e4:	00202150 	eoreq	r2, r0, r0, asr r1
    30e8:	00901825 	addseq	r1, r0, r5, lsr #16
    30ec:	000c9c00 	andeq	r9, ip, r0, lsl #24
    30f0:	7d240000 	stcvc	0, cr0, [r4, #-0]
    30f4:	01000009 	tsteq	r0, r9
    30f8:	00002588 	andeq	r2, r0, r8, lsl #11
    30fc:	008fd400 	addeq	sp, pc, r0, lsl #8
    3100:	00002000 	andeq	r2, r0, r0
    3104:	d29c0100 	addsle	r0, ip, #0, 2
    3108:	2b00000a 	blcs	3138 <__code_start__-0x4ec8>
    310c:	00008fe0 	andeq	r8, r0, r0, ror #31
    3110:	00000cb2 			; <UNDEFINED> instruction: 0x00000cb2
    3114:	05500129 	ldrbeq	r0, [r0, #-297]	; 0x129
    3118:	2150640c 	cmpcs	r0, ip, lsl #8
    311c:	24000020 	strcs	r0, [r0], #-32
    3120:	00000c8f 	andeq	r0, r0, pc, lsl #25
    3124:	00257f01 	eoreq	r7, r5, r1, lsl #30
    3128:	8fbc0000 	svchi	0x00bc0000
    312c:	00180000 	andseq	r0, r8, r0
    3130:	9c010000 	stcls	0, cr0, [r1], {-0}
    3134:	00000aff 	strdeq	r0, [r0], -pc	; <UNPREDICTABLE>
    3138:	008fc82b 	addeq	ip, pc, fp, lsr #16
    313c:	000cb200 	andeq	fp, ip, r0, lsl #4
    3140:	50012900 	andpl	r2, r1, r0, lsl #18
    3144:	50640c05 	rsbpl	r0, r4, r5, lsl #24
    3148:	00002021 	andeq	r2, r0, r1, lsr #32
    314c:	00081526 	andeq	r1, r8, r6, lsr #10
    3150:	0c3a0100 	ldfeqs	f0, [sl], #-0
    3154:	b000008f 	andlt	r0, r0, pc, lsl #1
    3158:	01000000 	mrseq	r0, (UNDEF: 0)
    315c:	000c3d9c 	muleq	ip, ip, sp
    3160:	8f1c2800 	svchi	0x001c2800
    3164:	0cbd0000 	ldceq	0, cr0, [sp]
    3168:	0b2c0000 	bleq	b03170 <__bss_end__+0xaf96f8>
    316c:	01290000 	teqeq	r9, r0
    3170:	293e0150 	ldmdbcs	lr!, {r4, r6, r8}
    3174:	32015101 	andcc	r5, r1, #1073741824	; 0x40000000
    3178:	8f282800 	svchi	0x00282800
    317c:	0cbd0000 	ldceq	0, cr0, [sp]
    3180:	0b440000 	bleq	1103188 <__bss_end__+0x10f9710>
    3184:	01290000 	teqeq	r9, r0
    3188:	293f0150 	ldmdbcs	pc!, {r4, r6, r8}	; <UNPREDICTABLE>
    318c:	32015101 	andcc	r5, r1, #1073741824	; 0x40000000
    3190:	8f2c2500 	svchi	0x002c2500
    3194:	0c9c0000 	ldceq	0, cr0, [ip], {0}
    3198:	38280000 	stmdacc	r8!, {}	; <UNPREDICTABLE>
    319c:	3d00008f 	stccc	0, cr0, [r0, #-572]	; 0xfffffdc4
    31a0:	6900000c 	stmdbvs	r0, {r2, r3}
    31a4:	2900000b 	stmdbcs	r0, {r0, r1, r3}
    31a8:	0c055001 	stceq	0, cr5, [r5], {1}
    31ac:	20215004 	eorcs	r5, r1, r4
    31b0:	01510129 	cmpeq	r1, r9, lsr #2
    31b4:	3c250031 	stccc	0, cr0, [r5], #-196	; 0xffffff3c
    31b8:	9c00008f 	stcls	0, cr0, [r0], {143}	; 0x8f
    31bc:	2800000c 	stmdacs	r0, {r2, r3}
    31c0:	00008f4c 	andeq	r8, r0, ip, asr #30
    31c4:	00000ca7 	andeq	r0, r0, r7, lsr #25
    31c8:	00000b8b 	andeq	r0, r0, fp, lsl #23
    31cc:	02500129 	subseq	r0, r0, #1073741834	; 0x4000000a
    31d0:	01290074 	teqeq	r9, r4, ror r0
    31d4:	00300151 	eorseq	r0, r0, r1, asr r1
    31d8:	008f5828 	addeq	r5, pc, r8, lsr #16
    31dc:	000ca700 	andeq	sl, ip, r0, lsl #14
    31e0:	000ba700 	andeq	sl, fp, r0, lsl #14
    31e4:	50012900 	andpl	r2, r1, r0, lsl #18
    31e8:	50440c05 	subpl	r0, r4, r5, lsl #24
    31ec:	01292021 	teqeq	r9, r1, lsr #32
    31f0:	00300151 	eorseq	r0, r0, r1, asr r1
    31f4:	008f6428 	addeq	r6, pc, r8, lsr #8
    31f8:	000ca700 	andeq	sl, ip, r0, lsl #14
    31fc:	000bc300 	andeq	ip, fp, r0, lsl #6
    3200:	50012900 	andpl	r2, r1, r0, lsl #18
    3204:	504c0c05 	subpl	r0, ip, r5, lsl #24
    3208:	01292021 	teqeq	r9, r1, lsr #32
    320c:	00330151 	eorseq	r0, r3, r1, asr r1
    3210:	008f7028 	addeq	r7, pc, r8, lsr #32
    3214:	000ca700 	andeq	sl, ip, r0, lsl #14
    3218:	000bdf00 	andeq	sp, fp, r0, lsl #30
    321c:	50012900 	andpl	r2, r1, r0, lsl #18
    3220:	50500c05 	subspl	r0, r0, r5, lsl #24
    3224:	01292021 	teqeq	r9, r1, lsr #32
    3228:	00300151 	eorseq	r0, r0, r1, asr r1
    322c:	008f7c28 	addeq	r7, pc, r8, lsr #24
    3230:	000ca700 	andeq	sl, ip, r0, lsl #14
    3234:	000bfc00 	andeq	pc, fp, r0, lsl #24
    3238:	50012900 	andpl	r2, r1, r0, lsl #18
    323c:	50480c05 	subpl	r0, r8, r5, lsl #24
    3240:	01292021 	teqeq	r9, r1, lsr #32
    3244:	c7080251 	smlsdgt	r8, r1, r2, r0
    3248:	8f882800 	svchi	0x00882800
    324c:	0ca70000 	stceq	0, cr0, [r7]
    3250:	0c1a0000 	ldceq	0, cr0, [sl], {-0}
    3254:	01290000 	teqeq	r9, r0
    3258:	680c0550 	stmdavs	ip, {r4, r6, r8, sl}
    325c:	29202150 	stmdbcs	r0!, {r4, r6, r8, sp}
    3260:	0a035101 	beq	d766c <__bss_end__+0xcdbf4>
    3264:	2800010e 	stmdacs	r0, {r1, r2, r3, r8}
    3268:	00008f94 	muleq	r0, r4, pc	; <UNPREDICTABLE>
    326c:	00000ca7 	andeq	r0, r0, r7, lsr #25
    3270:	00000c33 	andeq	r0, r0, r3, lsr ip
    3274:	02500129 	subseq	r0, r0, #1073741834	; 0x4000000a
    3278:	01290074 	teqeq	r9, r4, ror r0
    327c:	00330151 	eorseq	r0, r3, r1, asr r1
    3280:	008f9825 	addeq	r9, pc, r5, lsr #16
    3284:	000c9c00 	andeq	r9, ip, r0, lsl #24
    3288:	a72c0000 	strge	r0, [ip, -r0]!
    328c:	0100000c 	tsteq	r0, ip
    3290:	008eec2d 	addeq	lr, lr, sp, lsr #24
    3294:	00002000 	andeq	r2, r0, r0
    3298:	959c0100 	ldrls	r0, [ip, #256]	; 0x100
    329c:	2d00000c 	stccs	0, cr0, [r0, #-48]	; 0xffffffd0
    32a0:	00000241 	andeq	r0, r0, r1, asr #4
    32a4:	0c952d01 	ldceq	13, cr2, [r5], {1}
    32a8:	0bd90000 	bleq	ff6432b0 <__bss_end__+0xff639838>
    32ac:	76270000 	strtvc	r0, [r7], -r0
    32b0:	01006c61 	tsteq	r0, r1, ror #24
    32b4:	00002c2d 	andeq	r2, r0, sp, lsr #24
    32b8:	000bf700 	andeq	pc, fp, r0, lsl #14
    32bc:	8efc2800 	cdphi	8, 15, cr2, cr12, cr0, {0}
    32c0:	0cb20000 	ldceq	0, cr0, [r2]
    32c4:	0c840000 	stceq	0, cr0, [r4], {0}
    32c8:	01290000 	teqeq	r9, r0
    32cc:	00740250 	rsbseq	r0, r4, r0, asr r2
    32d0:	8f082b00 	svchi	0x00082b00
    32d4:	0ca70000 	stceq	0, cr0, [r7]
    32d8:	01290000 	teqeq	r9, r0
    32dc:	00740250 	rsbseq	r0, r4, r0, asr r2
    32e0:	040e0000 	streq	r0, [lr], #-0
    32e4:	00000c9b 	muleq	r0, fp, ip
    32e8:	06c62f2e 	strbeq	r2, [r6], lr, lsr #30
    32ec:	06c60000 	strbeq	r0, [r6], r0
    32f0:	89060000 	stmdbhi	r6, {}	; <UNPREDICTABLE>
    32f4:	000b862f 	andeq	r8, fp, pc, lsr #12
    32f8:	000b8600 	andeq	r8, fp, r0, lsl #12
    32fc:	2f9c0600 	svccs	0x009c0600
    3300:	00000c89 	andeq	r0, r0, r9, lsl #25
    3304:	00000c89 	andeq	r0, r0, r9, lsl #25
    3308:	562fa806 	strtpl	sl, [pc], -r6, lsl #16
    330c:	5600000a 	strpl	r0, [r0], -sl
    3310:	0800000a 	stmdaeq	r0, {r1, r3}
    3314:	0b700019 	bleq	1c03380 <__bss_end__+0x1bf9908>
    3318:	00040000 	andeq	r0, r4, r0
    331c:	000012b0 			; <UNDEFINED> instruction: 0x000012b0
    3320:	0b8c0104 	bleq	fe303738 <__bss_end__+0xfe2f9cc0>
    3324:	5c0c0000 	stcpl	0, cr0, [ip], {-0}
    3328:	0a00000d 	beq	3364 <__code_start__-0x4c9c>
    332c:	64000009 	strvs	r0, [r0], #-9
    3330:	20000090 	mulcs	r0, r0, r0
    3334:	e4000001 	str	r0, [r0], #-1
    3338:	0200000e 	andeq	r0, r0, #14
    333c:	6e690504 	cdpvs	5, 6, cr0, cr9, cr4, {0}
    3340:	04030074 	streq	r0, [r3], #-116	; 0x74
    3344:	00012f07 	andeq	r2, r1, r7, lsl #30
    3348:	002c0400 	eoreq	r0, ip, r0, lsl #8
    334c:	01030000 	mrseq	r0, (UNDEF: 3)
    3350:	00006206 	andeq	r6, r0, r6, lsl #4
    3354:	05020300 	streq	r0, [r2, #-768]	; 0x300
    3358:	00000158 	andeq	r0, r0, r8, asr r1
    335c:	4a050403 	bmi	144370 <__bss_end__+0x13a8f8>
    3360:	03000001 	movweq	r0, #1
    3364:	01450508 	cmpeq	r5, r8, lsl #10
    3368:	01030000 	mrseq	r0, (UNDEF: 3)
    336c:	00006008 	andeq	r6, r0, r8
    3370:	07020300 	streq	r0, [r2, -r0, lsl #6]
    3374:	0000007b 	andeq	r0, r0, fp, ror r0
    3378:	2a070403 	bcs	1c438c <__bss_end__+0x1ba914>
    337c:	03000001 	movweq	r0, #1
    3380:	01250708 	teqeq	r5, r8, lsl #14
    3384:	a1050000 	mrsge	r0, (UNDEF: 5)
    3388:	0200000a 	andeq	r0, r0, #10
    338c:	00002507 	andeq	r2, r0, r7, lsl #10
    3390:	0a8b0500 	beq	fe2c4798 <__bss_end__+0xfe2bad20>
    3394:	2c030000 	stccs	0, cr0, [r3], {-0}
    3398:	00000046 	andeq	r0, r0, r6, asr #32
    339c:	000b6705 	andeq	r6, fp, r5, lsl #14
    33a0:	46720300 	ldrbtmi	r0, [r2], -r0, lsl #6
    33a4:	06000000 	streq	r0, [r0], -r0
    33a8:	00000a2f 	andeq	r0, r0, pc, lsr #20
    33ac:	2c016504 	cfstr32cs	mvfx6, [r1], {4}
    33b0:	07000000 	streq	r0, [r0, -r0]
    33b4:	bca60304 	stclt	3, cr0, [r6], #16
    33b8:	08000000 	stmdaeq	r0, {}	; <UNPREDICTABLE>
    33bc:	00000a1a 	andeq	r0, r0, sl, lsl sl
    33c0:	0091a803 	addseq	sl, r1, r3, lsl #16
    33c4:	c2080000 	andgt	r0, r8, #0
    33c8:	03000009 	movweq	r0, #9
    33cc:	0000bca9 	andeq	fp, r0, r9, lsr #25
    33d0:	54090000 	strpl	r0, [r9], #-0
    33d4:	cc000000 	stcgt	0, cr0, [r0], {-0}
    33d8:	0a000000 	beq	33e0 <__code_start__-0x4c20>
    33dc:	000000cc 	andeq	r0, r0, ip, asr #1
    33e0:	04030003 	streq	r0, [r3], #-3
    33e4:	00013c07 	andeq	r3, r1, r7, lsl #24
    33e8:	03080b00 	movweq	r0, #35584	; 0x8b00
    33ec:	0000f4a3 	andeq	pc, r0, r3, lsr #9
    33f0:	0b4c0c00 	bleq	13063f8 <__bss_end__+0x12fc980>
    33f4:	a5030000 	strge	r0, [r3, #-0]
    33f8:	00000025 	andeq	r0, r0, r5, lsr #32
    33fc:	0b540c00 	bleq	1506404 <__bss_end__+0x14fc98c>
    3400:	aa030000 	bge	c3408 <__bss_end__+0xb9990>
    3404:	0000009d 	muleq	r0, sp, r0
    3408:	df050004 	svcle	0x00050004
    340c:	0300000a 	movweq	r0, #10
    3410:	0000d3ab 	andeq	sp, r0, fp, lsr #7
    3414:	098b0500 	stmibeq	fp, {r8, sl}
    3418:	af030000 	svcge	0x00030000
    341c:	00000070 	andeq	r0, r0, r0, ror r0
    3420:	040e040d 	streq	r0, [lr], #-1037	; 0x40d
    3424:	00000112 	andeq	r0, r0, r2, lsl r1
    3428:	69080103 	stmdbvs	r8, {r0, r1, r8}
    342c:	04000000 	streq	r0, [r0], #-0
    3430:	00000112 	andeq	r0, r0, r2, lsl r1
    3434:	000c0905 	andeq	r0, ip, r5, lsl #18
    3438:	62160500 	andsvs	r0, r6, #0, 10
    343c:	0f000000 	svceq	0x00000000
    3440:	0000099c 	muleq	r0, ip, r9
    3444:	7c2d0518 	cfstr32vc	mvfx0, [sp], #-96	; 0xffffffa0
    3448:	0c000001 	stceq	0, cr0, [r0], {1}
    344c:	00000b00 	andeq	r0, r0, r0, lsl #22
    3450:	017c2f05 	cmneq	ip, r5, lsl #30
    3454:	10000000 	andne	r0, r0, r0
    3458:	05006b5f 	streq	r6, [r0, #-2911]	; 0xb5f
    345c:	00002530 	andeq	r2, r0, r0, lsr r5
    3460:	370c0400 	strcc	r0, [ip, -r0, lsl #8]
    3464:	0500000b 	streq	r0, [r0, #-11]
    3468:	00002530 	andeq	r2, r0, r0, lsr r5
    346c:	770c0800 	strvc	r0, [ip, -r0, lsl #16]
    3470:	05000009 	streq	r0, [r0, #-9]
    3474:	00002530 	andeq	r2, r0, r0, lsr r5
    3478:	500c0c00 	andpl	r0, ip, r0, lsl #24
    347c:	0500000c 	streq	r0, [r0, #-12]
    3480:	00002530 	andeq	r2, r0, r0, lsr r5
    3484:	5f101000 	svcpl	0x00101000
    3488:	31050078 	tstcc	r5, r8, ror r0
    348c:	00000182 	andeq	r0, r0, r2, lsl #3
    3490:	040e0014 	streq	r0, [lr], #-20
    3494:	00000129 	andeq	r0, r0, r9, lsr #2
    3498:	00011e09 	andeq	r1, r1, r9, lsl #28
    349c:	00019200 	andeq	r9, r1, r0, lsl #4
    34a0:	00cc0a00 	sbceq	r0, ip, r0, lsl #20
    34a4:	00000000 	andeq	r0, r0, r0
    34a8:	0009bd0f 	andeq	fp, r9, pc, lsl #26
    34ac:	35052400 	strcc	r2, [r5, #-1024]	; 0x400
    34b0:	0000020b 	andeq	r0, r0, fp, lsl #4
    34b4:	0008750c 	andeq	r7, r8, ip, lsl #10
    34b8:	25370500 	ldrcs	r0, [r7, #-1280]!	; 0x500
    34bc:	00000000 	andeq	r0, r0, r0
    34c0:	000b6f0c 	andeq	r6, fp, ip, lsl #30
    34c4:	25380500 	ldrcs	r0, [r8, #-1280]!	; 0x500
    34c8:	04000000 	streq	r0, [r0], #-0
    34cc:	0008a30c 	andeq	sl, r8, ip, lsl #6
    34d0:	25390500 	ldrcs	r0, [r9, #-1280]!	; 0x500
    34d4:	08000000 	stmdaeq	r0, {}	; <UNPREDICTABLE>
    34d8:	000d400c 	andeq	r4, sp, ip
    34dc:	253a0500 	ldrcs	r0, [sl, #-1280]!	; 0x500
    34e0:	0c000000 	stceq	0, cr0, [r0], {-0}
    34e4:	000a6f0c 	andeq	r6, sl, ip, lsl #30
    34e8:	253b0500 	ldrcs	r0, [fp, #-1280]!	; 0x500
    34ec:	10000000 	andne	r0, r0, r0
    34f0:	000a440c 	andeq	r4, sl, ip, lsl #8
    34f4:	253c0500 	ldrcs	r0, [ip, #-1280]!	; 0x500
    34f8:	14000000 	strne	r0, [r0], #-0
    34fc:	000c550c 	andeq	r5, ip, ip, lsl #10
    3500:	253d0500 	ldrcs	r0, [sp, #-1280]!	; 0x500
    3504:	18000000 	stmdane	r0, {}	; <UNPREDICTABLE>
    3508:	000ac10c 	andeq	ip, sl, ip, lsl #2
    350c:	253e0500 	ldrcs	r0, [lr, #-1280]!	; 0x500
    3510:	1c000000 	stcne	0, cr0, [r0], {-0}
    3514:	000d070c 	andeq	r0, sp, ip, lsl #14
    3518:	253f0500 	ldrcs	r0, [pc, #-1280]!	; 3020 <__code_start__-0x4fe0>
    351c:	20000000 	andcs	r0, r0, r0
    3520:	08b21100 	ldmeq	r2!, {r8, ip}
    3524:	01080000 	mrseq	r0, (UNDEF: 8)
    3528:	024b4805 	subeq	r4, fp, #327680	; 0x50000
    352c:	5e0c0000 	cdppl	0, 0, cr0, cr12, cr0, {0}
    3530:	05000009 	streq	r0, [r0, #-9]
    3534:	00024b49 	andeq	r4, r2, r9, asr #22
    3538:	f00c0000 			; <UNDEFINED> instruction: 0xf00c0000
    353c:	05000007 	streq	r0, [r0, #-7]
    3540:	00024b4a 	andeq	r4, r2, sl, asr #22
    3544:	fb128000 	blx	4a354e <__bss_end__+0x499ad6>
    3548:	0500000b 	streq	r0, [r0, #-11]
    354c:	00011e4c 	andeq	r1, r1, ip, asr #28
    3550:	12010000 	andne	r0, r1, #0
    3554:	000008d7 	ldrdeq	r0, [r0], -r7
    3558:	011e4f05 	tsteq	lr, r5, lsl #30
    355c:	01040000 	mrseq	r0, (UNDEF: 4)
    3560:	010a0900 	tsteq	sl, r0, lsl #18
    3564:	025b0000 	subseq	r0, fp, #0
    3568:	cc0a0000 	stcgt	0, cr0, [sl], {-0}
    356c:	1f000000 	svcne	0x00000000
    3570:	0a781100 	beq	1e07978 <__bss_end__+0x1dfdf00>
    3574:	01900000 	orrseq	r0, r0, r0
    3578:	02995b05 	addseq	r5, r9, #5120	; 0x1400
    357c:	000c0000 	andeq	r0, ip, r0
    3580:	0500000b 	streq	r0, [r0, #-11]
    3584:	0002995c 	andeq	r9, r2, ip, asr r9
    3588:	180c0000 	stmdane	ip, {}	; <UNPREDICTABLE>
    358c:	0500000b 	streq	r0, [r0, #-11]
    3590:	0000255d 	andeq	r2, r0, sp, asr r5
    3594:	720c0400 	andvc	r0, ip, #0, 8
    3598:	05000009 	streq	r0, [r0, #-9]
    359c:	00029f5f 	andeq	r9, r2, pc, asr pc
    35a0:	b20c0800 	andlt	r0, ip, #0, 16
    35a4:	05000008 	streq	r0, [r0, #-8]
    35a8:	00020b60 	andeq	r0, r2, r0, ror #22
    35ac:	0e008800 	cdpeq	8, 0, cr8, cr0, cr0, {0}
    35b0:	00025b04 	andeq	r5, r2, r4, lsl #22
    35b4:	02af0900 	adceq	r0, pc, #0, 18
    35b8:	02af0000 	adceq	r0, pc, #0
    35bc:	cc0a0000 	stcgt	0, cr0, [sl], {-0}
    35c0:	1f000000 	svcne	0x00000000
    35c4:	b5040e00 	strlt	r0, [r4, #-3584]	; 0xe00
    35c8:	13000002 	movwne	r0, #2
    35cc:	000acb0f 	andeq	ip, sl, pc, lsl #22
    35d0:	73050800 	movwvc	r0, #22528	; 0x5800
    35d4:	000002db 	ldrdeq	r0, [r0], -fp
    35d8:	0008980c 	andeq	r9, r8, ip, lsl #16
    35dc:	db740500 	blle	1d049e4 <__bss_end__+0x1cfaf6c>
    35e0:	00000002 	andeq	r0, r0, r2
    35e4:	0007fc0c 	andeq	pc, r7, ip, lsl #24
    35e8:	25750500 	ldrbcs	r0, [r5, #-1280]!	; 0x500
    35ec:	04000000 	streq	r0, [r0], #-0
    35f0:	54040e00 	strpl	r0, [r4], #-3584	; 0xe00
    35f4:	0f000000 	svceq	0x00000000
    35f8:	00000aea 	andeq	r0, r0, sl, ror #21
    35fc:	0bb30568 	bleq	fecc4ba4 <__bss_end__+0xfecbb12c>
    3600:	10000004 	andne	r0, r0, r4
    3604:	0500705f 	streq	r7, [r0, #-95]	; 0x5f
    3608:	0002dbb4 			; <UNDEFINED> instruction: 0x0002dbb4
    360c:	5f100000 	svcpl	0x00100000
    3610:	b5050072 	strlt	r0, [r5, #-114]	; 0x72
    3614:	00000025 	andeq	r0, r0, r5, lsr #32
    3618:	775f1004 	ldrbvc	r1, [pc, -r4]
    361c:	25b60500 	ldrcs	r0, [r6, #1280]!	; 0x500
    3620:	08000000 	stmdaeq	r0, {}	; <UNPREDICTABLE>
    3624:	0008d00c 	andeq	sp, r8, ip
    3628:	3fb70500 	svccc	0x00b70500
    362c:	0c000000 	stceq	0, cr0, [r0], {-0}
    3630:	0009e30c 	andeq	lr, r9, ip, lsl #6
    3634:	3fb80500 	svccc	0x00b80500
    3638:	0e000000 	cdpeq	0, 0, cr0, cr0, cr0, {0}
    363c:	66625f10 	uqadd16vs	r5, r2, r0
    3640:	b6b90500 	ldrtlt	r0, [r9], r0, lsl #10
    3644:	10000002 	andne	r0, r0, r2
    3648:	00083f0c 	andeq	r3, r8, ip, lsl #30
    364c:	25ba0500 	ldrcs	r0, [sl, #1280]!	; 0x500
    3650:	18000000 	stmdane	r0, {}	; <UNPREDICTABLE>
    3654:	0008c00c 	andeq	ip, r8, ip
    3658:	0ac10500 	beq	ff044a60 <__bss_end__+0xff03afe8>
    365c:	1c000001 	stcne	0, cr0, [r0], {1}
    3660:	000d670c 	andeq	r6, sp, ip, lsl #14
    3664:	66c30500 	strbvs	r0, [r3], r0, lsl #10
    3668:	20000005 	andcs	r0, r0, r5
    366c:	000d810c 	andeq	r8, sp, ip, lsl #2
    3670:	90c50500 	sbcls	r0, r5, r0, lsl #10
    3674:	24000005 	strcs	r0, [r0], #-5
    3678:	000b5c0c 	andeq	r5, fp, ip, lsl #24
    367c:	b4c80500 	strblt	r0, [r8], #1280	; 0x500
    3680:	28000005 	stmdacs	r0, {r0, r2}
    3684:	000d210c 	andeq	r2, sp, ip, lsl #2
    3688:	cec90500 	cdpgt	5, 12, cr0, cr9, cr0, {0}
    368c:	2c000005 	stccs	0, cr0, [r0], {5}
    3690:	62755f10 	rsbsvs	r5, r5, #16, 30	; 0x40
    3694:	b6cc0500 	strblt	r0, [ip], r0, lsl #10
    3698:	30000002 	andcc	r0, r0, r2
    369c:	70755f10 	rsbsvc	r5, r5, r0, lsl pc
    36a0:	dbcd0500 	blle	ff344aa8 <__bss_end__+0xff33b030>
    36a4:	38000002 	stmdacc	r0, {r1}
    36a8:	72755f10 	rsbsvc	r5, r5, #16, 30	; 0x40
    36ac:	25ce0500 	strbcs	r0, [lr, #1280]	; 0x500
    36b0:	3c000000 	stccc	0, cr0, [r0], {-0}
    36b4:	0008830c 	andeq	r8, r8, ip, lsl #6
    36b8:	d4d10500 	ldrble	r0, [r1], #1280	; 0x500
    36bc:	40000005 	andmi	r0, r0, r5
    36c0:	000ccc0c 	andeq	ip, ip, ip, lsl #24
    36c4:	e4d20500 	ldrb	r0, [r2], #1280	; 0x500
    36c8:	43000005 	movwmi	r0, #5
    36cc:	626c5f10 	rsbvs	r5, ip, #16, 30	; 0x40
    36d0:	b6d50500 	ldrblt	r0, [r5], r0, lsl #10
    36d4:	44000002 	strmi	r0, [r0], #-2
    36d8:	0008e60c 	andeq	lr, r8, ip, lsl #12
    36dc:	25d80500 	ldrbcs	r0, [r8, #1280]	; 0x500
    36e0:	4c000000 	stcmi	0, cr0, [r0], {-0}
    36e4:	000a4e0c 	andeq	r4, sl, ip, lsl #28
    36e8:	7bd90500 	blvc	ff644af0 <__bss_end__+0xff63b078>
    36ec:	50000000 	andpl	r0, r0, r0
    36f0:	000cb70c 	andeq	fp, ip, ip, lsl #14
    36f4:	29dc0500 	ldmibcs	ip, {r8, sl}^
    36f8:	54000004 	strpl	r0, [r0], #-4
    36fc:	000a360c 	andeq	r3, sl, ip, lsl #12
    3700:	ffe00500 			; <UNDEFINED> instruction: 0xffe00500
    3704:	58000000 	stmdapl	r0, {}	; <UNPREDICTABLE>
    3708:	000af20c 	andeq	pc, sl, ip, lsl #4
    370c:	f4e20500 	vld2.16	{d16[0],d17[0]}, [r2], r0
    3710:	5c000000 	stcpl	0, cr0, [r0], {-0}
    3714:	000a3c0c 	andeq	r3, sl, ip, lsl #24
    3718:	25e30500 	strbcs	r0, [r3, #1280]!	; 0x500
    371c:	64000000 	strvs	r0, [r0], #-0
    3720:	00251400 	eoreq	r1, r5, r0, lsl #8
    3724:	04290000 	strteq	r0, [r9], #-0
    3728:	29150000 	ldmdbcs	r5, {}	; <UNPREDICTABLE>
    372c:	15000004 	strne	r0, [r0, #-4]
    3730:	0000010a 	andeq	r0, r0, sl, lsl #2
    3734:	00010c15 	andeq	r0, r1, r5, lsl ip
    3738:	00251500 	eoreq	r1, r5, r0, lsl #10
    373c:	0e000000 	cdpeq	0, 0, cr0, cr0, cr0, {0}
    3740:	00043404 	andeq	r3, r4, r4, lsl #8
    3744:	04290400 	strteq	r0, [r9], #-1024	; 0x400
    3748:	3f160000 	svccc	0x00160000
    374c:	2800000b 	stmdacs	r0, {r0, r1, r3}
    3750:	02380504 	eorseq	r0, r8, #4, 10	; 0x1000000
    3754:	00000566 	andeq	r0, r0, r6, ror #10
    3758:	000aba17 	andeq	fp, sl, r7, lsl sl
    375c:	023a0500 	eorseq	r0, sl, #0, 10
    3760:	00000025 	andeq	r0, r0, r5, lsr #32
    3764:	08df1700 	ldmeq	pc, {r8, r9, sl, ip}^	; <UNPREDICTABLE>
    3768:	3f050000 	svccc	0x00050000
    376c:	00063b02 	andeq	r3, r6, r2, lsl #22
    3770:	d3170400 	tstle	r7, #0, 8
    3774:	05000009 	streq	r0, [r0, #-9]
    3778:	063b023f 			; <UNDEFINED> instruction: 0x063b023f
    377c:	17080000 	strne	r0, [r8, -r0]
    3780:	00000994 	muleq	r0, r4, r9
    3784:	3b023f05 	blcc	933a0 <__bss_end__+0x89928>
    3788:	0c000006 	stceq	0, cr0, [r0], {6}
    378c:	000b1317 	andeq	r1, fp, r7, lsl r3
    3790:	02410500 	subeq	r0, r1, #0, 10
    3794:	00000025 	andeq	r0, r0, r5, lsr #32
    3798:	080a1710 	stmdaeq	sl, {r4, r8, r9, sl, ip}
    379c:	42050000 	andmi	r0, r5, #0
    37a0:	00081d02 	andeq	r1, r8, r2, lsl #26
    37a4:	31171400 	tstcc	r7, r0, lsl #8
    37a8:	0500000c 	streq	r0, [r0, #-12]
    37ac:	00250244 	eoreq	r0, r5, r4, asr #4
    37b0:	17300000 	ldrne	r0, [r0, -r0]!
    37b4:	00000b1d 	andeq	r0, r0, sp, lsl fp
    37b8:	8a024505 	bhi	94bd4 <__bss_end__+0x8b15c>
    37bc:	34000005 	strcc	r0, [r0], #-5
    37c0:	000a8017 	andeq	r8, sl, r7, lsl r0
    37c4:	02470500 	subeq	r0, r7, #0, 10
    37c8:	00000025 	andeq	r0, r0, r5, lsr #32
    37cc:	0b2d1738 	bleq	b494b4 <__bss_end__+0xb3fa3c>
    37d0:	49050000 	stmdbmi	r5, {}	; <UNPREDICTABLE>
    37d4:	00083802 	andeq	r3, r8, r2, lsl #16
    37d8:	12173c00 	andsne	r3, r7, #0, 24
    37dc:	0500000a 	streq	r0, [r0, #-10]
    37e0:	017c024c 	cmneq	ip, ip, asr #4
    37e4:	17400000 	strbne	r0, [r0, -r0]
    37e8:	000009b3 			; <UNDEFINED> instruction: 0x000009b3
    37ec:	25024d05 	strcs	r4, [r2, #-3333]	; 0xd05
    37f0:	44000000 	strmi	r0, [r0], #-0
    37f4:	000d3b17 	andeq	r3, sp, r7, lsl fp
    37f8:	024e0500 	subeq	r0, lr, #0, 10
    37fc:	0000017c 	andeq	r0, r0, ip, ror r1
    3800:	0a971748 	beq	fe5c9528 <__bss_end__+0xfe5bfab0>
    3804:	4f050000 	svcmi	0x00050000
    3808:	00083e02 	andeq	r3, r8, r2, lsl #28
    380c:	db174c00 	blle	5d6814 <__bss_end__+0x5ccd9c>
    3810:	05000009 	streq	r0, [r0, #-9]
    3814:	00250252 	eoreq	r0, r5, r2, asr r2
    3818:	17500000 	ldrbne	r0, [r0, -r0]
    381c:	00000902 	andeq	r0, r0, r2, lsl #18
    3820:	0c025305 	stceq	3, cr5, [r2], {5}
    3824:	54000001 	strpl	r0, [r0], #-1
    3828:	000ab317 	andeq	fp, sl, r7, lsl r3
    382c:	02760500 	rsbseq	r0, r6, #0, 10
    3830:	000007fb 	strdeq	r0, [r0], -fp
    3834:	0a781858 	beq	1e0999c <__bss_end__+0x1dfff24>
    3838:	7a050000 	bvc	143840 <__bss_end__+0x139dc8>
    383c:	00029902 	andeq	r9, r2, r2, lsl #18
    3840:	18014800 	stmdane	r1, {fp, lr}
    3844:	000009f0 	strdeq	r0, [r0], -r0	; <UNPREDICTABLE>
    3848:	5b027b05 	blpl	a2464 <__bss_end__+0x989ec>
    384c:	4c000002 	stcmi	0, cr0, [r0], {2}
    3850:	0c9d1801 	ldceq	8, cr1, [sp], {1}
    3854:	7f050000 	svcvc	0x00050000
    3858:	00084f02 	andeq	r4, r8, r2, lsl #30
    385c:	1802dc00 	stmdane	r2, {sl, fp, ip, lr, pc}
    3860:	000008c8 	andeq	r0, r0, r8, asr #17
    3864:	00028405 	andeq	r8, r2, r5, lsl #8
    3868:	e0000006 	and	r0, r0, r6
    386c:	08ad1802 	stmiaeq	sp!, {r1, fp, ip}
    3870:	85050000 	strhi	r0, [r5, #-0]
    3874:	00085b02 	andeq	r5, r8, r2, lsl #22
    3878:	0002ec00 	andeq	lr, r2, r0, lsl #24
    387c:	040b040e 	streq	r0, [fp], #-1038	; 0x40e
    3880:	25140000 	ldrcs	r0, [r4, #-0]
    3884:	8a000000 	bhi	388c <__code_start__-0x4774>
    3888:	15000005 	strne	r0, [r0, #-5]
    388c:	00000429 	andeq	r0, r0, r9, lsr #8
    3890:	00010a15 	andeq	r0, r1, r5, lsl sl
    3894:	058a1500 	streq	r1, [sl, #1280]	; 0x500
    3898:	25150000 	ldrcs	r0, [r5, #-0]
    389c:	00000000 	andeq	r0, r0, r0
    38a0:	0119040e 	tsteq	r9, lr, lsl #8
    38a4:	040e0000 	streq	r0, [lr], #-0
    38a8:	0000056c 	andeq	r0, r0, ip, ror #10
    38ac:	00008614 	andeq	r8, r0, r4, lsl r6
    38b0:	0005b400 	andeq	fp, r5, r0, lsl #8
    38b4:	04291500 	strteq	r1, [r9], #-1280	; 0x500
    38b8:	0a150000 	beq	5438c0 <__bss_end__+0x539e48>
    38bc:	15000001 	strne	r0, [r0, #-1]
    38c0:	00000086 	andeq	r0, r0, r6, lsl #1
    38c4:	00002515 	andeq	r2, r0, r5, lsl r5
    38c8:	040e0000 	streq	r0, [lr], #-0
    38cc:	00000596 	muleq	r0, r6, r5
    38d0:	00002514 	andeq	r2, r0, r4, lsl r5
    38d4:	0005ce00 	andeq	ip, r5, r0, lsl #28
    38d8:	04291500 	strteq	r1, [r9], #-1280	; 0x500
    38dc:	0a150000 	beq	5438e4 <__bss_end__+0x539e6c>
    38e0:	00000001 	andeq	r0, r0, r1
    38e4:	05ba040e 	ldreq	r0, [sl, #1038]!	; 0x40e
    38e8:	54090000 	strpl	r0, [r9], #-0
    38ec:	e4000000 	str	r0, [r0], #-0
    38f0:	0a000005 	beq	390c <__code_start__-0x46f4>
    38f4:	000000cc 	andeq	r0, r0, ip, asr #1
    38f8:	54090002 	strpl	r0, [r9], #-2
    38fc:	f4000000 	vst4.8	{d0-d3}, [r0], r0
    3900:	0a000005 	beq	391c <__code_start__-0x46e4>
    3904:	000000cc 	andeq	r0, r0, ip, asr #1
    3908:	d8060000 	stmdale	r6, {}	; <UNPREDICTABLE>
    390c:	0500000a 	streq	r0, [r0, #-10]
    3910:	02e1011d 	rsceq	r0, r1, #1073741831	; 0x40000007
    3914:	5f190000 	svcpl	0x00190000
    3918:	0c00000c 	stceq	0, cr0, [r0], {12}
    391c:	35012105 	strcc	r2, [r1, #-261]	; 0x105
    3920:	17000006 	strne	r0, [r0, -r6]
    3924:	00000b00 	andeq	r0, r0, r0, lsl #22
    3928:	35012305 	strcc	r2, [r1, #-773]	; 0x305
    392c:	00000006 	andeq	r0, r0, r6
    3930:	0009e917 	andeq	lr, r9, r7, lsl r9
    3934:	01240500 	teqeq	r4, r0, lsl #10
    3938:	00000025 	andeq	r0, r0, r5, lsr #32
    393c:	0ad21704 	beq	ff489554 <__bss_end__+0xff47fadc>
    3940:	25050000 	strcs	r0, [r5, #-0]
    3944:	00063b01 	andeq	r3, r6, r1, lsl #22
    3948:	0e000800 	cdpeq	8, 0, cr0, cr0, cr0, {0}
    394c:	00060004 	andeq	r0, r6, r4
    3950:	f4040e00 			; <UNDEFINED> instruction: 0xf4040e00
    3954:	19000005 	stmdbne	r0, {r0, r2}
    3958:	00000802 	andeq	r0, r0, r2, lsl #16
    395c:	013d050e 	teqeq	sp, lr, lsl #10
    3960:	00000676 	andeq	r0, r0, r6, ror r6
    3964:	000b4617 	andeq	r4, fp, r7, lsl r6
    3968:	013e0500 	teqeq	lr, r0, lsl #10
    396c:	00000676 	andeq	r0, r0, r6, ror r6
    3970:	0b801700 	bleq	fe009578 <__bss_end__+0xfdfffb00>
    3974:	3f050000 	svccc	0x00050000
    3978:	00067601 	andeq	r7, r6, r1, lsl #12
    397c:	04170600 	ldreq	r0, [r7], #-1536	; 0x600
    3980:	0500000c 	streq	r0, [r0, #-12]
    3984:	005b0140 	subseq	r0, fp, r0, asr #2
    3988:	000c0000 	andeq	r0, ip, r0
    398c:	00005b09 	andeq	r5, r0, r9, lsl #22
    3990:	00068600 	andeq	r8, r6, r0, lsl #12
    3994:	00cc0a00 	sbceq	r0, ip, r0, lsl #20
    3998:	00020000 	andeq	r0, r2, r0
    399c:	5705d01a 	smladpl	r5, sl, r0, sp
    39a0:	00078702 	andeq	r8, r7, r2, lsl #14
    39a4:	0c431700 	mcrreq	7, 0, r1, r3, cr0
    39a8:	59050000 	stmdbpl	r5, {}	; <UNPREDICTABLE>
    39ac:	00002c02 	andeq	r2, r0, r2, lsl #24
    39b0:	ee170000 	cdp	0, 1, cr0, cr7, cr0, {0}
    39b4:	0500000b 	streq	r0, [r0, #-11]
    39b8:	010c025a 	tsteq	ip, sl, asr r2
    39bc:	17040000 	strne	r0, [r4, -r0]
    39c0:	00000a05 	andeq	r0, r0, r5, lsl #20
    39c4:	87025b05 	strhi	r5, [r2, -r5, lsl #22]
    39c8:	08000007 	stmdaeq	r0, {r0, r1, r2}
    39cc:	000d1217 	andeq	r1, sp, r7, lsl r2
    39d0:	025c0500 	subseq	r0, ip, #0, 10
    39d4:	00000192 	muleq	r0, r2, r1
    39d8:	09a41724 	stmibeq	r4!, {r2, r5, r8, r9, sl, ip}
    39dc:	5d050000 	stcpl	0, cr0, [r5, #-0]
    39e0:	00002502 	andeq	r2, r0, r2, lsl #10
    39e4:	fb174800 	blx	5d59ee <__bss_end__+0x5cbf76>
    39e8:	0500000a 	streq	r0, [r0, #-10]
    39ec:	0069025e 	rsbeq	r0, r9, lr, asr r2
    39f0:	17500000 	ldrbne	r0, [r0, -r0]
    39f4:	00000d28 	andeq	r0, r0, r8, lsr #26
    39f8:	41025f05 	tstmi	r2, r5, lsl #30
    39fc:	58000006 	stmdapl	r0, {r1, r2}
    3a00:	000b0617 	andeq	r0, fp, r7, lsl r6
    3a04:	02600500 	rsbeq	r0, r0, #0, 10
    3a08:	000000f4 	strdeq	r0, [r0], -r4
    3a0c:	0d2d1768 	stceq	7, cr1, [sp, #-416]!	; 0xfffffe60
    3a10:	61050000 	mrsvs	r0, (UNDEF: 5)
    3a14:	0000f402 	andeq	pc, r0, r2, lsl #8
    3a18:	67177000 	ldrvs	r7, [r7, -r0]
    3a1c:	05000008 	streq	r0, [r0, #-8]
    3a20:	00f40262 	rscseq	r0, r4, r2, ror #4
    3a24:	17780000 	ldrbne	r0, [r8, -r0]!
    3a28:	00000c7f 	andeq	r0, r0, pc, ror ip
    3a2c:	97026305 	strls	r6, [r2, -r5, lsl #6]
    3a30:	80000007 	andhi	r0, r0, r7
    3a34:	0009f917 	andeq	pc, r9, r7, lsl r9	; <UNPREDICTABLE>
    3a38:	02640500 	rsbeq	r0, r4, #0, 10
    3a3c:	000007a7 	andeq	r0, r0, r7, lsr #15
    3a40:	0c111788 	ldceq	7, cr1, [r1], {136}	; 0x88
    3a44:	65050000 	strvs	r0, [r5, #-0]
    3a48:	00002502 	andeq	r2, r0, r2, lsl #10
    3a4c:	5017a000 	andspl	sl, r7, r0
    3a50:	05000009 	streq	r0, [r0, #-9]
    3a54:	00f40266 	rscseq	r0, r4, r6, ror #4
    3a58:	17a40000 	strne	r0, [r4, r0]!
    3a5c:	00000858 	andeq	r0, r0, r8, asr r8
    3a60:	f4026705 	vst1.8	{d6}, [r2], r5
    3a64:	ac000000 	stcge	0, cr0, [r0], {-0}
    3a68:	00093f17 	andeq	r3, r9, r7, lsl pc
    3a6c:	02680500 	rsbeq	r0, r8, #0, 10
    3a70:	000000f4 	strdeq	r0, [r0], -r4
    3a74:	081f17b4 	ldmdaeq	pc, {r2, r4, r5, r7, r8, r9, sl, ip}	; <UNPREDICTABLE>
    3a78:	69050000 	stmdbvs	r5, {}	; <UNPREDICTABLE>
    3a7c:	0000f402 	andeq	pc, r0, r2, lsl #8
    3a80:	2e17bc00 	cdpcs	12, 1, cr11, cr7, cr0, {0}
    3a84:	05000008 	streq	r0, [r0, #-8]
    3a88:	00f4026a 	rscseq	r0, r4, sl, ror #4
    3a8c:	17c40000 	strbne	r0, [r4, r0]
    3a90:	00000ab8 			; <UNDEFINED> instruction: 0x00000ab8
    3a94:	25026b05 	strcs	r6, [r2, #-2821]	; 0xb05
    3a98:	cc000000 	stcgt	0, cr0, [r0], {-0}
    3a9c:	01120900 	tsteq	r2, r0, lsl #18
    3aa0:	07970000 	ldreq	r0, [r7, r0]
    3aa4:	cc0a0000 	stcgt	0, cr0, [sl], {-0}
    3aa8:	19000000 	stmdbne	r0, {}	; <UNPREDICTABLE>
    3aac:	01120900 	tsteq	r2, r0, lsl #18
    3ab0:	07a70000 	streq	r0, [r7, r0]!
    3ab4:	cc0a0000 	stcgt	0, cr0, [sl], {-0}
    3ab8:	07000000 	streq	r0, [r0, -r0]
    3abc:	01120900 	tsteq	r2, r0, lsl #18
    3ac0:	07b70000 	ldreq	r0, [r7, r0]!
    3ac4:	cc0a0000 	stcgt	0, cr0, [sl], {-0}
    3ac8:	17000000 	strne	r0, [r0, -r0]
    3acc:	05f01a00 	ldrbeq	r1, [r0, #2560]!	; 0xa00
    3ad0:	07db0270 			; <UNDEFINED> instruction: 0x07db0270
    3ad4:	68170000 	ldmdavs	r7, {}	; <UNPREDICTABLE>
    3ad8:	0500000a 	streq	r0, [r0, #-10]
    3adc:	07db0273 			; <UNDEFINED> instruction: 0x07db0273
    3ae0:	17000000 	strne	r0, [r0, -r0]
    3ae4:	00000c76 	andeq	r0, r0, r6, ror ip
    3ae8:	eb027405 	bl	a0b04 <__bss_end__+0x9708c>
    3aec:	78000007 	stmdavc	r0, {r0, r1, r2}
    3af0:	02db0900 	sbcseq	r0, fp, #0, 18
    3af4:	07eb0000 	strbeq	r0, [fp, r0]!
    3af8:	cc0a0000 	stcgt	0, cr0, [sl], {-0}
    3afc:	1d000000 	stcne	0, cr0, [r0, #-0]
    3b00:	002c0900 	eoreq	r0, ip, r0, lsl #18
    3b04:	07fb0000 	ldrbeq	r0, [fp, r0]!
    3b08:	cc0a0000 	stcgt	0, cr0, [sl], {-0}
    3b0c:	1d000000 	stcne	0, cr0, [r0, #-0]
    3b10:	05f01b00 	ldrbeq	r1, [r0, #2816]!	; 0xb00
    3b14:	081d0255 	ldmdaeq	sp, {r0, r2, r4, r6, r9}
    3b18:	3f1c0000 	svccc	0x001c0000
    3b1c:	0500000b 	streq	r0, [r0, #-11]
    3b20:	0686026c 	streq	r0, [r6], ip, ror #4
    3b24:	d21c0000 	andsle	r0, ip, #0
    3b28:	0500000c 	streq	r0, [r0, #-12]
    3b2c:	07b70275 			; <UNDEFINED> instruction: 0x07b70275
    3b30:	09000000 	stmdbeq	r0, {}	; <UNPREDICTABLE>
    3b34:	00000112 	andeq	r0, r0, r2, lsl r1
    3b38:	0000082d 	andeq	r0, r0, sp, lsr #16
    3b3c:	0000cc0a 	andeq	ip, r0, sl, lsl #24
    3b40:	1d001800 	stcne	8, cr1, [r0, #-0]
    3b44:	00000838 	andeq	r0, r0, r8, lsr r8
    3b48:	00042915 	andeq	r2, r4, r5, lsl r9
    3b4c:	040e0000 	streq	r0, [lr], #-0
    3b50:	0000082d 	andeq	r0, r0, sp, lsr #16
    3b54:	017c040e 	cmneq	ip, lr, lsl #8
    3b58:	4f1d0000 	svcmi	0x001d0000
    3b5c:	15000008 	strne	r0, [r0, #-8]
    3b60:	00000025 	andeq	r0, r0, r5, lsr #32
    3b64:	55040e00 	strpl	r0, [r4, #-3584]	; 0xe00
    3b68:	0e000008 	cdpeq	0, 0, cr0, cr0, cr8, {0}
    3b6c:	00084404 	andeq	r4, r8, r4, lsl #8
    3b70:	05f40900 	ldrbeq	r0, [r4, #2304]!	; 0x900
    3b74:	086b0000 	stmdaeq	fp!, {}^	; <UNPREDICTABLE>
    3b78:	cc0a0000 	stcgt	0, cr0, [sl], {-0}
    3b7c:	02000000 	andeq	r0, r0, #0
    3b80:	0c251e00 	stceq	14, cr1, [r5], #-0
    3b84:	fd050000 	stc2	0, cr0, [r5, #-0]
    3b88:	00042902 	andeq	r2, r4, r2, lsl #18
    3b8c:	0c1e1e00 	ldceq	14, cr1, [lr], {-0}
    3b90:	fe050000 	cdp2	0, 0, cr0, cr5, cr0, {0}
    3b94:	00042f02 	andeq	r2, r4, r2, lsl #30
    3b98:	00251400 	eoreq	r1, r5, r0, lsl #8
    3b9c:	08920000 	ldmeq	r2, {}	; <UNPREDICTABLE>
    3ba0:	25150000 	ldrcs	r0, [r5, #-0]
    3ba4:	00000000 	andeq	r0, r0, r0
    3ba8:	0004001f 	andeq	r0, r4, pc, lsl r0
    3bac:	9d1d0600 	ldcls	6, cr0, [sp, #-0]
    3bb0:	0e000008 	cdpeq	0, 0, cr0, cr0, cr8, {0}
    3bb4:	00088304 	andeq	r8, r8, r4, lsl #6
    3bb8:	00251400 	eoreq	r1, r5, r0, lsl #8
    3bbc:	08b20000 	ldmeq	r2!, {}	; <UNPREDICTABLE>
    3bc0:	8a150000 	bhi	543bc8 <__bss_end__+0x53a150>
    3bc4:	00000005 	andeq	r0, r0, r5
    3bc8:	00043d1f 	andeq	r3, r4, pc, lsl sp
    3bcc:	bd220600 	stclt	6, cr0, [r2, #-0]
    3bd0:	0e000008 	cdpeq	0, 0, cr0, cr0, cr8, {0}
    3bd4:	0008a304 	andeq	sl, r8, r4, lsl #6
    3bd8:	54012000 	strpl	r2, [r1], #-0
    3bdc:	07000000 	streq	r0, [r0, -r0]
    3be0:	0009000c 	andeq	r0, r9, ip
    3be4:	08482100 	stmdaeq	r8, {r8, sp}^
    3be8:	21000000 	mrscs	r0, (UNDEF: 0)
    3bec:	00000c65 	andeq	r0, r0, r5, ror #24
    3bf0:	0cbd2101 	ldfeqs	f2, [sp], #4
    3bf4:	21040000 	mrscs	r0, (UNDEF: 4)
    3bf8:	00000889 	andeq	r0, r0, r9, lsl #17
    3bfc:	0a202105 	beq	80c018 <__bss_end__+0x8025a0>
    3c00:	21060000 	mrscs	r0, (UNDEF: 6)
    3c04:	00000cda 	ldrdeq	r0, [r0], -sl
    3c08:	0ce92107 	stfeqe	f2, [r9], #28
    3c0c:	21030000 	mrscs	r0, (UNDEF: 3)
    3c10:	00000cf8 	strdeq	r0, [r0], -r8
    3c14:	b7050002 	strlt	r0, [r5, -r2]
    3c18:	0700000d 	streq	r0, [r0, -sp]
    3c1c:	0008c315 	andeq	ip, r8, r5, lsl r3
    3c20:	0d882200 	sfmeq	f2, 4, [r8]
    3c24:	1d010000 	stcne	0, cr0, [r1, #-0]
    3c28:	00000033 	andeq	r0, r0, r3, lsr r0
    3c2c:	2020001c 	eorcs	r0, r0, ip, lsl r0
    3c30:	000dc322 	andeq	ip, sp, r2, lsr #6
    3c34:	331e0100 	tstcc	lr, #0, 2
    3c38:	28000000 	stmdacs	r0, {}	; <UNPREDICTABLE>
    3c3c:	22202000 	eorcs	r2, r0, #0
    3c40:	00000d92 	muleq	r0, r2, sp
    3c44:	00331f01 	eorseq	r1, r3, r1, lsl #30
    3c48:	00340000 	eorseq	r0, r4, r0
    3c4c:	63232020 	teqvs	r3, #32
    3c50:	0100000d 	tsteq	r0, sp
    3c54:	00002556 	andeq	r2, r0, r6, asr r5
    3c58:	00915000 	addseq	r5, r1, r0
    3c5c:	00003400 	andeq	r3, r0, r0, lsl #8
    3c60:	989c0100 	ldmls	ip, {r8}
    3c64:	24000009 	strcs	r0, [r0], #-9
    3c68:	006e6970 	rsbeq	r6, lr, r0, ror r9
    3c6c:	002c5601 	eoreq	r5, ip, r1, lsl #12
    3c70:	0c150000 	ldceq	0, cr0, [r5], {-0}
    3c74:	57250000 	strpl	r0, [r5, -r0]!
    3c78:	0100000d 	tsteq	r0, sp
    3c7c:	00002c59 	andeq	r2, r0, r9, asr ip
    3c80:	000c4f00 	andeq	r4, ip, r0, lsl #30
    3c84:	666f2600 	strbtvs	r2, [pc], -r0, lsl #12
    3c88:	5a010066 	bpl	43e28 <__bss_end__+0x3a3b0>
    3c8c:	0000002c 	andeq	r0, r0, ip, lsr #32
    3c90:	00000c8d 	andeq	r0, r0, sp, lsl #25
    3c94:	00916c27 	addseq	r6, r1, r7, lsr #24
    3c98:	000b5d00 	andeq	r5, fp, r0, lsl #26
    3c9c:	50012800 	andpl	r2, r1, r0, lsl #16
    3ca0:	5001f30b 	andpl	pc, r1, fp, lsl #6
    3ca4:	b4232535 	strtlt	r2, [r3], #-1333	; 0x535
    3ca8:	02818080 	addeq	r8, r1, #128	; 0x80
    3cac:	7d290000 	stcvc	0, cr0, [r9, #-0]
    3cb0:	0100000d 	tsteq	r0, sp
    3cb4:	0091344f 	addseq	r3, r1, pc, asr #8
    3cb8:	00001c00 	andeq	r1, r0, r0, lsl #24
    3cbc:	e89c0100 	ldm	ip, {r8}
    3cc0:	24000009 	strcs	r0, [r0], #-9
    3cc4:	006e6970 	rsbeq	r6, lr, r0, ror r9
    3cc8:	002c4f01 	eoreq	r4, ip, r1, lsl #30
    3ccc:	0ca00000 	stceq	0, cr0, [r0]
    3cd0:	76240000 	strtvc	r0, [r4], -r0
    3cd4:	2c4f0100 	stfcse	f0, [pc], {-0}
    3cd8:	da000000 	ble	3ce0 <__code_start__-0x4320>
    3cdc:	2a00000c 	bcs	3d14 <__code_start__-0x42ec>
    3ce0:	00009144 	andeq	r9, r0, r4, asr #2
    3ce4:	00000a23 	andeq	r0, r0, r3, lsr #20
    3ce8:	000009de 	ldrdeq	r0, [r0], -lr
    3cec:	03500128 	cmpeq	r0, #40, 2
    3cf0:	005001f3 	ldrsheq	r0, [r0], #-19	; 0xffffffed
    3cf4:	00914c2b 	addseq	r4, r1, fp, lsr #24
    3cf8:	000a6400 	andeq	r6, sl, r0, lsl #8
    3cfc:	9c290000 	stcls	0, cr0, [r9], #-0
    3d00:	0100000d 	tsteq	r0, sp
    3d04:	0091244a 	addseq	r2, r1, sl, asr #8
    3d08:	00001000 	andeq	r1, r0, r0
    3d0c:	239c0100 	orrscs	r0, ip, #0, 2
    3d10:	2400000a 	strcs	r0, [r0], #-10
    3d14:	006e6970 	rsbeq	r6, lr, r0, ror r9
    3d18:	002c4a01 	eoreq	r4, ip, r1, lsl #20
    3d1c:	0d140000 	ldceq	0, cr0, [r4, #-0]
    3d20:	30270000 	eorcc	r0, r7, r0
    3d24:	e0000091 	mul	r0, r1, r0
    3d28:	2800000a 	stmdacs	r0, {r1, r3}
    3d2c:	f3035001 	vhadd.u8	d5, d3, d1
    3d30:	01285001 	teqeq	r8, r1
    3d34:	00300151 	eorseq	r0, r0, r1, asr r1
    3d38:	0d4a2900 	stcleq	9, cr2, [sl, #-0]
    3d3c:	43010000 	movwmi	r0, #4096	; 0x1000
    3d40:	00009100 	andeq	r9, r0, r0, lsl #2
    3d44:	00000024 	andeq	r0, r0, r4, lsr #32
    3d48:	0a649c01 	beq	192ad54 <__bss_end__+0x19212dc>
    3d4c:	70240000 	eorvc	r0, r4, r0
    3d50:	01006e69 	tsteq	r0, r9, ror #28
    3d54:	00002c43 	andeq	r2, r0, r3, asr #24
    3d58:	000d3500 	andeq	r3, sp, r0, lsl #10
    3d5c:	911c2700 	tstls	ip, r0, lsl #14
    3d60:	0b680000 	bleq	1a03d68 <__bss_end__+0x19fa2f0>
    3d64:	01280000 	teqeq	r8, r0
    3d68:	280c0550 	stmdacs	ip, {r4, r6, r8, sl}
    3d6c:	28202000 	stmdacs	r0!, {sp}
    3d70:	31055101 	tstcc	r5, r1, lsl #2
    3d74:	245001f3 	ldrbcs	r0, [r0], #-499	; 0x1f3
    3d78:	ab290000 	blge	a43d80 <__bss_end__+0xa3a308>
    3d7c:	0100000d 	tsteq	r0, sp
    3d80:	0090dc3c 	addseq	sp, r0, ip, lsr ip
    3d84:	00002400 	andeq	r2, r0, r0, lsl #8
    3d88:	a59c0100 	ldrge	r0, [ip, #256]	; 0x100
    3d8c:	2400000a 	strcs	r0, [r0], #-10
    3d90:	006e6970 	rsbeq	r6, lr, r0, ror r9
    3d94:	002c3c01 	eoreq	r3, ip, r1, lsl #24
    3d98:	0d560000 	ldcleq	0, cr0, [r6, #-0]
    3d9c:	f8270000 			; <UNDEFINED> instruction: 0xf8270000
    3da0:	68000090 	stmdavs	r0, {r4, r7}
    3da4:	2800000b 	stmdacs	r0, {r0, r1, r3}
    3da8:	0c055001 	stceq	0, cr5, [r5], {1}
    3dac:	2020001c 	eorcs	r0, r0, ip, lsl r0
    3db0:	05510128 	ldrbeq	r0, [r1, #-296]	; 0x128
    3db4:	5001f331 	andpl	pc, r1, r1, lsr r3	; <UNPREDICTABLE>
    3db8:	29000024 	stmdbcs	r0, {r2, r5}
    3dbc:	00000d6d 	andeq	r0, r0, sp, ror #26
    3dc0:	90cc3701 	sbcls	r3, ip, r1, lsl #14
    3dc4:	00100000 	andseq	r0, r0, r0
    3dc8:	9c010000 	stcls	0, cr0, [r1], {-0}
    3dcc:	00000ae0 	andeq	r0, r0, r0, ror #21
    3dd0:	6e697024 	cdpvs	0, 6, cr7, cr9, cr4, {1}
    3dd4:	2c370100 	ldfcss	f0, [r7], #-0
    3dd8:	77000000 	strvc	r0, [r0, -r0]
    3ddc:	2700000d 	strcs	r0, [r0, -sp]
    3de0:	000090d8 	ldrdeq	r9, [r0], -r8
    3de4:	00000ae0 	andeq	r0, r0, r0, ror #21
    3de8:	03500128 	cmpeq	r0, #40, 2
    3dec:	285001f3 	ldmdacs	r0, {r0, r1, r4, r5, r6, r7, r8}^
    3df0:	31015101 	tstcc	r1, r1, lsl #2
    3df4:	56290000 	strtpl	r0, [r9], -r0
    3df8:	0100000a 	tsteq	r0, sl
    3dfc:	00906428 	addseq	r6, r0, r8, lsr #8
    3e00:	00006800 	andeq	r6, r0, r0, lsl #16
    3e04:	5d9c0100 	ldfpls	f0, [ip]
    3e08:	2400000b 	strcs	r0, [r0], #-11
    3e0c:	006e6970 	rsbeq	r6, lr, r0, ror r9
    3e10:	002c2801 	eoreq	r2, ip, r1, lsl #16
    3e14:	0d980000 	ldceq	0, cr0, [r8]
    3e18:	a22c0000 	eorge	r0, ip, #0
    3e1c:	0100000c 	tsteq	r0, ip
    3e20:	00090028 	andeq	r0, r9, r8, lsr #32
    3e24:	000db900 	andeq	fp, sp, r0, lsl #18
    3e28:	666f2d00 	strbtvs	r2, [pc], -r0, lsl #26
    3e2c:	2d010066 	stccs	0, cr0, [r1, #-408]	; 0xfffffe68
    3e30:	0000002c 	andeq	r0, r0, ip, lsr #32
    3e34:	672d5401 	strvs	r5, [sp, -r1, lsl #8]!
    3e38:	2c2f0100 	stfcss	f0, [pc], #-0	; 3e40 <__code_start__-0x41c0>
    3e3c:	01000000 	mrseq	r0, (UNDEF: 0)
    3e40:	00762656 	rsbseq	r2, r6, r6, asr r6
    3e44:	002c3101 	eoreq	r3, ip, r1, lsl #2
    3e48:	0dda0000 	ldcleq	0, cr0, [sl]
    3e4c:	b02a0000 	eorlt	r0, sl, r0
    3e50:	5d000090 	stcpl	0, cr0, [r0, #-576]	; 0xfffffdc0
    3e54:	4c00000b 	stcmi	0, cr0, [r0], {11}
    3e58:	2800000b 	stmdacs	r0, {r0, r1, r3}
    3e5c:	76025001 	strvc	r5, [r2], -r1
    3e60:	c4270000 	strtgt	r0, [r7], #-0
    3e64:	68000090 	stmdavs	r0, {r4, r7}
    3e68:	2800000b 	stmdacs	r0, {r0, r1, r3}
    3e6c:	76025001 	strvc	r5, [r2], -r1
    3e70:	2e000000 	cdpcs	0, 0, cr0, cr0, cr0, {0}
    3e74:	000007bf 			; <UNDEFINED> instruction: 0x000007bf
    3e78:	000007bf 			; <UNDEFINED> instruction: 0x000007bf
    3e7c:	f42ea706 	vld1.8	{d10}, [lr], r6
    3e80:	f4000006 	vst4.8	{d0-d3}, [r0], r6
    3e84:	06000006 	streq	r0, [r0], -r6
    3e88:	Address 0x0000000000003e88 is out of bounds.


Disassembly of section .debug_abbrev:

00000000 <.debug_abbrev>:
       0:	25011101 	strcs	r1, [r1, #-257]	; 0x101
       4:	030b130e 	movweq	r1, #45838	; 0xb30e
       8:	110e1b0e 	tstne	lr, lr, lsl #22
       c:	10061201 	andne	r1, r6, r1, lsl #4
      10:	02000017 	andeq	r0, r0, #23
      14:	0b0b0024 	bleq	2c00ac <__bss_end__+0x2b6634>
      18:	08030b3e 	stmdaeq	r3, {r1, r2, r3, r4, r5, r8, r9, fp}
      1c:	24030000 	strcs	r0, [r3], #-0
      20:	3e0b0b00 	vmlacc.f64	d0, d11, d0
      24:	000e030b 	andeq	r0, lr, fp, lsl #6
      28:	00160400 	andseq	r0, r6, r0, lsl #8
      2c:	0b3a0e03 	bleq	e83840 <__bss_end__+0xe79dc8>
      30:	13490b3b 	movtne	r0, #39739	; 0x9b3b
      34:	0f050000 	svceq	0x00050000
      38:	490b0b00 	stmdbmi	fp, {r8, r9, fp}
      3c:	06000013 			; <UNDEFINED> instruction: 0x06000013
      40:	13490026 	movtne	r0, #36902	; 0x9026
      44:	01070000 	mrseq	r0, (UNDEF: 7)
      48:	01134901 	tsteq	r3, r1, lsl #18
      4c:	08000013 	stmdaeq	r0, {r0, r1, r4}
      50:	13490021 	movtne	r0, #36897	; 0x9021
      54:	00000b2f 	andeq	r0, r0, pc, lsr #22
      58:	27011509 	strcs	r1, [r1, -r9, lsl #10]
      5c:	00130119 	andseq	r0, r3, r9, lsl r1
      60:	00050a00 	andeq	r0, r5, r0, lsl #20
      64:	00001349 	andeq	r1, r0, r9, asr #6
      68:	03012e0b 	movweq	r2, #7691	; 0x1e0b
      6c:	3b0b3a0e 	blcc	2ce8ac <__bss_end__+0x2c4e34>
      70:	4919270b 	ldmdbmi	r9, {r0, r1, r3, r8, r9, sl, sp}
      74:	010b2013 	tsteq	fp, r3, lsl r0
      78:	0c000013 	stceq	0, cr0, [r0], {19}
      7c:	08030034 	stmdaeq	r3, {r2, r4, r5}
      80:	0b3b0b3a 	bleq	ec2d70 <__bss_end__+0xeb92f8>
      84:	00001349 	andeq	r1, r0, r9, asr #6
      88:	03012e0d 	movweq	r2, #7693	; 0x1e0d
      8c:	3b0b3a0e 	blcc	2ce8cc <__bss_end__+0x2c4e54>
      90:	1119270b 	tstne	r9, fp, lsl #14
      94:	40061201 	andmi	r1, r6, r1, lsl #4
      98:	19429718 	stmdbne	r2, {r3, r4, r8, r9, sl, ip, pc}^
      9c:	00001301 	andeq	r1, r0, r1, lsl #6
      a0:	0300050e 	movweq	r0, #1294	; 0x50e
      a4:	3b0b3a0e 	blcc	2ce8e4 <__bss_end__+0x2c4e6c>
      a8:	0213490b 	andseq	r4, r3, #180224	; 0x2c000
      ac:	0f000017 	svceq	0x00000017
      b0:	08030005 	stmdaeq	r3, {r0, r2}
      b4:	0b3b0b3a 	bleq	ec2da4 <__bss_end__+0xeb932c>
      b8:	17021349 	strne	r1, [r2, -r9, asr #6]
      bc:	34100000 	ldrcc	r0, [r0], #-0
      c0:	490e0300 	stmdbmi	lr, {r8, r9}
      c4:	02193413 	andseq	r3, r9, #318767104	; 0x13000000
      c8:	11000018 	tstne	r0, r8, lsl r0
      cc:	1331011d 	teqne	r1, #1073741831	; 0x40000007
      d0:	06120111 			; <UNDEFINED> instruction: 0x06120111
      d4:	0b590b58 	bleq	1642e3c <__bss_end__+0x16393c4>
      d8:	00001301 	andeq	r1, r0, r1, lsl #6
      dc:	11010b12 	tstne	r1, r2, lsl fp
      e0:	00061201 	andeq	r1, r6, r1, lsl #4
      e4:	00341300 	eorseq	r1, r4, r0, lsl #6
      e8:	00001331 	andeq	r1, r0, r1, lsr r3
      ec:	31011d14 	tstcc	r1, r4, lsl sp
      f0:	12011113 	andne	r1, r1, #-1073741820	; 0xc0000004
      f4:	590b5806 	stmdbpl	fp, {r1, r2, fp, ip, lr}
      f8:	1500000b 	strne	r0, [r0, #-11]
      fc:	13310034 	teqne	r1, #52	; 0x34
     100:	00001702 	andeq	r1, r0, r2, lsl #14
     104:	01828916 	orreq	r8, r2, r6, lsl r9
     108:	31011101 	tstcc	r1, r1, lsl #2
     10c:	00130113 	andseq	r0, r3, r3, lsl r1
     110:	828a1700 	addhi	r1, sl, #0, 14
     114:	18020001 	stmdane	r2, {r0}
     118:	00184291 	mulseq	r8, r1, r2
     11c:	82891800 	addhi	r1, r9, #0, 16
     120:	01110001 	tsteq	r1, r1
     124:	00001331 	andeq	r1, r0, r1, lsr r3
     128:	3f012e19 	svccc	0x00012e19
     12c:	3a0e0319 	bcc	380d98 <__bss_end__+0x377320>
     130:	270b3b0b 	strcs	r3, [fp, -fp, lsl #22]
     134:	12011119 	andne	r1, r1, #1073741830	; 0x40000006
     138:	97184006 	ldrls	r4, [r8, -r6]
     13c:	13011942 	movwne	r1, #6466	; 0x1942
     140:	341a0000 	ldrcc	r0, [sl], #-0
     144:	3a080300 	bcc	200d4c <__bss_end__+0x1f72d4>
     148:	490b3b0b 	stmdbmi	fp, {r0, r1, r3, r8, r9, fp, ip, sp}
     14c:	000b1c13 	andeq	r1, fp, r3, lsl ip
     150:	012e1b00 	teqeq	lr, r0, lsl #22
     154:	0e03193f 	mcreq	9, 0, r1, cr3, cr15, {1}
     158:	0b3b0b3a 	bleq	ec2e48 <__bss_end__+0xeb93d0>
     15c:	13491927 	movtne	r1, #39207	; 0x9927
     160:	1301193c 	movwne	r1, #6460	; 0x193c
     164:	181c0000 	ldmdane	ip, {}	; <UNPREDICTABLE>
     168:	1d000000 	stcne	0, cr0, [r0, #-0]
     16c:	193f002e 	ldmdbne	pc!, {r1, r2, r3, r5}	; <UNPREDICTABLE>
     170:	0b3a0e03 	bleq	e83984 <__bss_end__+0xe79f0c>
     174:	19270b3b 	stmdbne	r7!, {r0, r1, r3, r4, r5, r8, r9, fp}
     178:	0000193c 	andeq	r1, r0, ip, lsr r9
     17c:	3f012e1e 	svccc	0x00012e1e
     180:	3a0e0319 	bcc	380dec <__bss_end__+0x377374>
     184:	270b3b0b 	strcs	r3, [fp, -fp, lsl #22]
     188:	01193c19 	tsteq	r9, r9, lsl ip
     18c:	1f000013 	svcne	0x00000013
     190:	193f012e 	ldmdbne	pc!, {r1, r2, r3, r5, r8}	; <UNPREDICTABLE>
     194:	0b3a0e03 	bleq	e839a8 <__bss_end__+0xe79f30>
     198:	19270b3b 	stmdbne	r7!, {r0, r1, r3, r4, r5, r8, r9, fp}
     19c:	0000193c 	andeq	r1, r0, ip, lsr r9
     1a0:	01110100 	tsteq	r1, r0, lsl #2
     1a4:	0b130e25 	bleq	4c3a40 <__bss_end__+0x4b9fc8>
     1a8:	0e1b0e03 	cdpeq	14, 1, cr0, cr11, cr3, {0}
     1ac:	06120111 			; <UNDEFINED> instruction: 0x06120111
     1b0:	00001710 	andeq	r1, r0, r0, lsl r7
     1b4:	0b002402 	bleq	91c4 <__data_end__+0x34>
     1b8:	030b3e0b 	movweq	r3, #48651	; 0xbe0b
     1bc:	03000008 	movweq	r0, #8
     1c0:	0b0b0024 	bleq	2c0258 <__bss_end__+0x2b67e0>
     1c4:	0e030b3e 	vmoveq.16	d3[0], r0
     1c8:	16040000 	strne	r0, [r4], -r0
     1cc:	3a0e0300 	bcc	380dd4 <__bss_end__+0x37735c>
     1d0:	490b3b0b 	stmdbmi	fp, {r0, r1, r3, r8, r9, fp, ip, sp}
     1d4:	05000013 	streq	r0, [r0, #-19]
     1d8:	0b0b000f 	bleq	2c021c <__bss_end__+0x2b67a4>
     1dc:	0f060000 	svceq	0x00060000
     1e0:	490b0b00 	stmdbmi	fp, {r8, r9, fp}
     1e4:	07000013 	smladeq	r0, r3, r0, r0
     1e8:	13490026 	movtne	r0, #36902	; 0x9026
     1ec:	15080000 	strne	r0, [r8, #-0]
     1f0:	01192701 	tsteq	r9, r1, lsl #14
     1f4:	09000013 	stmdbeq	r0, {r0, r1, r4}
     1f8:	13490005 	movtne	r0, #36869	; 0x9005
     1fc:	2e0a0000 	cdpcs	0, 0, cr0, cr10, cr0, {0}
     200:	3a0e0301 	bcc	380e0c <__bss_end__+0x377394>
     204:	270b3b0b 	strcs	r3, [fp, -fp, lsl #22]
     208:	20134919 	andscs	r4, r3, r9, lsl r9
     20c:	0013010b 	andseq	r0, r3, fp, lsl #2
     210:	00340b00 	eorseq	r0, r4, r0, lsl #22
     214:	0b3a0803 	bleq	e82228 <__bss_end__+0xe787b0>
     218:	13490b3b 	movtne	r0, #39739	; 0x9b3b
     21c:	050c0000 	streq	r0, [ip, #-0]
     220:	3a080300 	bcc	200e28 <__bss_end__+0x1f73b0>
     224:	490b3b0b 	stmdbmi	fp, {r0, r1, r3, r8, r9, fp, ip, sp}
     228:	0d000013 	stceq	0, cr0, [r0, #-76]	; 0xffffffb4
     22c:	0e03012e 	adfeqsp	f0, f3, #0.5
     230:	0b3b0b3a 	bleq	ec2f20 <__bss_end__+0xeb94a8>
     234:	0b201927 	bleq	8066d8 <__bss_end__+0x7fcc60>
     238:	00001301 	andeq	r1, r0, r1, lsl #6
     23c:	0300340e 	movweq	r3, #1038	; 0x40e
     240:	3b0b3a0e 	blcc	2cea80 <__bss_end__+0x2c5008>
     244:	0013490b 	andseq	r4, r3, fp, lsl #18
     248:	012e0f00 	teqeq	lr, r0, lsl #30
     24c:	0e03193f 	mcreq	9, 0, r1, cr3, cr15, {1}
     250:	0b3b0b3a 	bleq	ec2f40 <__bss_end__+0xeb94c8>
     254:	01111927 	tsteq	r1, r7, lsr #18
     258:	18400612 	stmdane	r0, {r1, r4, r9, sl}^
     25c:	01194297 			; <UNDEFINED> instruction: 0x01194297
     260:	10000013 	andne	r0, r0, r3, lsl r0
     264:	0e030005 	cdpeq	0, 0, cr0, cr3, cr5, {0}
     268:	0b3b0b3a 	bleq	ec2f58 <__bss_end__+0xeb94e0>
     26c:	17021349 	strne	r1, [r2, -r9, asr #6]
     270:	34110000 	ldrcc	r0, [r1], #-0
     274:	3a0e0300 	bcc	380e7c <__bss_end__+0x377404>
     278:	490b3b0b 	stmdbmi	fp, {r0, r1, r3, r8, r9, fp, ip, sp}
     27c:	00170213 	andseq	r0, r7, r3, lsl r2
     280:	00341200 	eorseq	r1, r4, r0, lsl #4
     284:	13490e03 	movtne	r0, #40451	; 0x9e03
     288:	18021934 	stmdane	r2, {r2, r4, r5, r8, fp, ip}
     28c:	1d130000 	ldcne	0, cr0, [r3, #-0]
     290:	11133101 	tstne	r3, r1, lsl #2
     294:	58061201 	stmdapl	r6, {r0, r9, ip}
     298:	010b590b 	tsteq	fp, fp, lsl #18
     29c:	14000013 	strne	r0, [r0], #-19
     2a0:	0111010b 	tsteq	r1, fp, lsl #2
     2a4:	00000612 	andeq	r0, r0, r2, lsl r6
     2a8:	31003415 	tstcc	r0, r5, lsl r4
     2ac:	00170213 	andseq	r0, r7, r3, lsl r2
     2b0:	00051600 	andeq	r1, r5, r0, lsl #12
     2b4:	17021331 	smladxne	r2, r1, r3, r1
     2b8:	05170000 	ldreq	r0, [r7, #-0]
     2bc:	1c133100 	ldfnes	f3, [r3], {-0}
     2c0:	18000005 	stmdane	r0, {r0, r2}
     2c4:	13310005 	teqne	r1, #5
     2c8:	00000b1c 	andeq	r0, r0, ip, lsl fp
     2cc:	01828919 	orreq	r8, r2, r9, lsl r9
     2d0:	31011100 	mrscc	r1, (UNDEF: 17)
     2d4:	1a000013 	bne	328 <__code_start__-0x7cd8>
     2d8:	01018289 	smlabbeq	r1, r9, r2, r8
     2dc:	13310111 	teqne	r1, #1073741828	; 0x40000004
     2e0:	00001301 	andeq	r1, r0, r1, lsl #6
     2e4:	01828a1b 	orreq	r8, r2, fp, lsl sl
     2e8:	91180200 	tstls	r8, r0, lsl #4
     2ec:	00001842 	andeq	r1, r0, r2, asr #16
     2f0:	4901011c 	stmdbmi	r1, {r2, r3, r4, r8}
     2f4:	00130113 	andseq	r0, r3, r3, lsl r1
     2f8:	00211d00 	eoreq	r1, r1, r0, lsl #26
     2fc:	0b2f1349 	bleq	bc5028 <__bss_end__+0xbbb5b0>
     300:	341e0000 	ldrcc	r0, [lr], #-0
     304:	490e0300 	stmdbmi	lr, {r8, r9}
     308:	1c193413 	cfldrsne	mvf3, [r9], {19}
     30c:	1f00000e 	svcne	0x0000000e
     310:	08030005 	stmdaeq	r3, {r0, r2}
     314:	0b3b0b3a 	bleq	ec3004 <__bss_end__+0xeb958c>
     318:	17021349 	strne	r1, [r2, -r9, asr #6]
     31c:	34200000 	strtcc	r0, [r0], #-0
     320:	3a0e0300 	bcc	380f28 <__bss_end__+0x3774b0>
     324:	490b3b0b 	stmdbmi	fp, {r0, r1, r3, r8, r9, fp, ip, sp}
     328:	00180213 	andseq	r0, r8, r3, lsl r2
     32c:	00342100 	eorseq	r2, r4, r0, lsl #2
     330:	00001331 	andeq	r1, r0, r1, lsr r3
     334:	31011d22 	tstcc	r1, r2, lsr #26
     338:	12011113 	andne	r1, r1, #-1073741820	; 0xc0000004
     33c:	590b5806 	stmdbpl	fp, {r1, r2, fp, ip, lr}
     340:	2300000b 	movwcs	r0, #11
     344:	13310034 	teqne	r1, #52	; 0x34
     348:	00001802 	andeq	r1, r0, r2, lsl #16
     34c:	01828924 	orreq	r8, r2, r4, lsr #18
     350:	00011101 	andeq	r1, r1, r1, lsl #2
     354:	00342500 	eorseq	r2, r4, r0, lsl #10
     358:	0b3a0803 	bleq	e8236c <__bss_end__+0xe788f4>
     35c:	13490b3b 	movtne	r0, #39739	; 0x9b3b
     360:	0000051c 	andeq	r0, r0, ip, lsl r5
     364:	03000526 	movweq	r0, #1318	; 0x526
     368:	3b0b3a0e 	blcc	2ceba8 <__bss_end__+0x2c5130>
     36c:	0213490b 	andseq	r4, r3, #180224	; 0x2c000
     370:	27000018 	smladcs	r0, r8, r0, r0
     374:	13310005 	teqne	r1, #5
     378:	00001802 	andeq	r1, r0, r2, lsl #16
     37c:	03000528 	movweq	r0, #1320	; 0x528
     380:	3b0b3a08 	blcc	2ceba8 <__bss_end__+0x2c5130>
     384:	0213490b 	andseq	r4, r3, #180224	; 0x2c000
     388:	29000018 	stmdbcs	r0, {r3, r4}
     38c:	193f002e 	ldmdbne	pc!, {r1, r2, r3, r5}	; <UNPREDICTABLE>
     390:	0b3a0e03 	bleq	e83ba4 <__bss_end__+0xe7a12c>
     394:	19270b3b 	stmdbne	r7!, {r0, r1, r3, r4, r5, r8, r9, fp}
     398:	0000193c 	andeq	r1, r0, ip, lsr r9
     39c:	3f012e2a 	svccc	0x00012e2a
     3a0:	3a0e0319 	bcc	38100c <__bss_end__+0x377594>
     3a4:	270b3b0b 	strcs	r3, [fp, -fp, lsl #22]
     3a8:	3c134919 	ldccc	9, cr4, [r3], {25}
     3ac:	00130119 	andseq	r0, r3, r9, lsl r1
     3b0:	00182b00 	andseq	r2, r8, r0, lsl #22
     3b4:	01000000 	mrseq	r0, (UNDEF: 0)
     3b8:	0e250111 	mcreq	1, 1, r0, cr5, cr1, {0}
     3bc:	0e030b13 	vmoveq.32	d3[0], r0
     3c0:	01110e1b 	tsteq	r1, fp, lsl lr
     3c4:	17100612 			; <UNDEFINED> instruction: 0x17100612
     3c8:	16020000 	strne	r0, [r2], -r0
     3cc:	3a0e0300 	bcc	380fd4 <__bss_end__+0x37755c>
     3d0:	490b3b0b 	stmdbmi	fp, {r0, r1, r3, r8, r9, fp, ip, sp}
     3d4:	03000013 	movweq	r0, #19
     3d8:	0e030113 	mcreq	1, 0, r0, cr3, cr3, {0}
     3dc:	0b3a0b0b 	bleq	e83010 <__bss_end__+0xe79598>
     3e0:	13010b3b 	movwne	r0, #6971	; 0x1b3b
     3e4:	0d040000 	stceq	0, cr0, [r4, #-0]
     3e8:	490e0300 	stmdbmi	lr, {r8, r9}
     3ec:	340b3813 	strcc	r3, [fp], #-2067	; 0x813
     3f0:	05000019 	streq	r0, [r0, #-25]
     3f4:	0b0b000f 	bleq	2c0438 <__bss_end__+0x2b69c0>
     3f8:	24060000 	strcs	r0, [r6], #-0
     3fc:	3e0b0b00 	vmlacc.f64	d0, d11, d0
     400:	0008030b 	andeq	r0, r8, fp, lsl #6
     404:	00240700 	eoreq	r0, r4, r0, lsl #14
     408:	0b3e0b0b 	bleq	f8303c <__bss_end__+0xf795c4>
     40c:	00000e03 	andeq	r0, r0, r3, lsl #28
     410:	0b000f08 	bleq	4038 <__code_start__-0x3fc8>
     414:	0013490b 	andseq	r4, r3, fp, lsl #18
     418:	00260900 	eoreq	r0, r6, r0, lsl #18
     41c:	00001349 	andeq	r1, r0, r9, asr #6
     420:	3f012e0a 	svccc	0x00012e0a
     424:	3a0e0319 	bcc	381090 <__bss_end__+0x377618>
     428:	270b3b0b 	strcs	r3, [fp, -fp, lsl #22]
     42c:	11134919 	tstne	r3, r9, lsl r9
     430:	40061201 	andmi	r1, r6, r1, lsl #4
     434:	19429718 	stmdbne	r2, {r3, r4, r8, r9, sl, ip, pc}^
     438:	00001301 	andeq	r1, r0, r1, lsl #6
     43c:	0300050b 	movweq	r0, #1291	; 0x50b
     440:	3b0b3a08 	blcc	2cec68 <__bss_end__+0x2c51f0>
     444:	0213490b 	andseq	r4, r3, #180224	; 0x2c000
     448:	0c000018 	stceq	0, cr0, [r0], {24}
     44c:	00000018 	andeq	r0, r0, r8, lsl r0
     450:	0300340d 	movweq	r3, #1037	; 0x40d
     454:	3b0b3a08 	blcc	2cec7c <__bss_end__+0x2c5204>
     458:	0213490b 	andseq	r4, r3, #180224	; 0x2c000
     45c:	0e000018 	mcreq	0, 0, r0, cr0, cr8, {0}
     460:	0e030034 	mcreq	0, 0, r0, cr3, cr4, {1}
     464:	0b3b0b3a 	bleq	ec3154 <__bss_end__+0xeb96dc>
     468:	18021349 	stmdane	r2, {r0, r3, r6, r8, r9, ip}
     46c:	340f0000 	strcc	r0, [pc], #-0	; 474 <__code_start__-0x7b8c>
     470:	3a080300 	bcc	201078 <__bss_end__+0x1f7600>
     474:	490b3b0b 	stmdbmi	fp, {r0, r1, r3, r8, r9, fp, ip, sp}
     478:	00170213 	andseq	r0, r7, r3, lsl r2
     47c:	82891000 	addhi	r1, r9, #0
     480:	01110101 	tsteq	r1, r1, lsl #2
     484:	13011331 	movwne	r1, #4913	; 0x1331
     488:	8a110000 	bhi	440490 <__bss_end__+0x436a18>
     48c:	02000182 	andeq	r0, r0, #-2147483616	; 0x80000020
     490:	18429118 	stmdane	r2, {r3, r4, r8, ip, pc}^
     494:	89120000 	ldmdbhi	r2, {}	; <UNPREDICTABLE>
     498:	11010182 	smlabbne	r1, r2, r1, r0
     49c:	13000001 	movwne	r0, #1
     4a0:	13490101 	movtne	r0, #37121	; 0x9101
     4a4:	00001301 	andeq	r1, r0, r1, lsl #6
     4a8:	49002114 	stmdbmi	r0, {r2, r4, r8, sp}
     4ac:	00052f13 	andeq	r2, r5, r3, lsl pc
     4b0:	01151500 	tsteq	r5, r0, lsl #10
     4b4:	13491927 	movtne	r1, #39207	; 0x9927
     4b8:	00001301 	andeq	r1, r0, r1, lsl #6
     4bc:	49000516 	stmdbmi	r0, {r1, r2, r4, r8, sl}
     4c0:	17000013 	smladne	r0, r3, r0, r0
     4c4:	0e030034 	mcreq	0, 0, r0, cr3, cr4, {1}
     4c8:	0b3b0b3a 	bleq	ec31b8 <__bss_end__+0xeb9740>
     4cc:	193f1349 	ldmdbne	pc!, {r0, r3, r6, r8, r9, ip}	; <UNPREDICTABLE>
     4d0:	0000193c 	andeq	r1, r0, ip, lsr r9
     4d4:	3f012e18 	svccc	0x00012e18
     4d8:	3a0e0319 	bcc	381144 <__bss_end__+0x3776cc>
     4dc:	270b3b0b 	strcs	r3, [fp, -fp, lsl #22]
     4e0:	3c134919 	ldccc	9, cr4, [r3], {25}
     4e4:	00000019 	andeq	r0, r0, r9, lsl r0
     4e8:	25011101 	strcs	r1, [r1, #-257]	; 0x101
     4ec:	030b130e 	movweq	r1, #45838	; 0xb30e
     4f0:	110e1b0e 	tstne	lr, lr, lsl #22
     4f4:	10061201 	andne	r1, r6, r1, lsl #4
     4f8:	02000017 	andeq	r0, r0, #23
     4fc:	0b0b0024 	bleq	2c0594 <__bss_end__+0x2b6b1c>
     500:	08030b3e 	stmdaeq	r3, {r1, r2, r3, r4, r5, r8, r9, fp}
     504:	24030000 	strcs	r0, [r3], #-0
     508:	3e0b0b00 	vmlacc.f64	d0, d11, d0
     50c:	000e030b 	andeq	r0, lr, fp, lsl #6
     510:	012e0400 	teqeq	lr, r0, lsl #8
     514:	0b3a0e03 	bleq	e83d28 <__bss_end__+0xe7a2b0>
     518:	19270b3b 	stmdbne	r7!, {r0, r1, r3, r4, r5, r8, r9, fp}
     51c:	01111349 	tsteq	r1, r9, asr #6
     520:	18400612 	stmdane	r0, {r1, r4, r9, sl}^
     524:	01194297 			; <UNDEFINED> instruction: 0x01194297
     528:	05000013 	streq	r0, [r0, #-19]
     52c:	08030005 	stmdaeq	r3, {r0, r2}
     530:	0b3b0b3a 	bleq	ec3220 <__bss_end__+0xeb97a8>
     534:	17021349 	strne	r1, [r2, -r9, asr #6]
     538:	89060000 	stmdbhi	r6, {}	; <UNPREDICTABLE>
     53c:	11010182 	smlabbne	r1, r2, r1, r0
     540:	00133101 	andseq	r3, r3, r1, lsl #2
     544:	828a0700 	addhi	r0, sl, #0, 14
     548:	18020001 	stmdane	r2, {r0}
     54c:	00184291 	mulseq	r8, r1, r2
     550:	002e0800 	eoreq	r0, lr, r0, lsl #16
     554:	0e03193f 	mcreq	9, 0, r1, cr3, cr15, {1}
     558:	0b3b0b3a 	bleq	ec3248 <__bss_end__+0xeb97d0>
     55c:	01111927 	tsteq	r1, r7, lsr #18
     560:	18400612 	stmdane	r0, {r1, r4, r9, sl}^
     564:	00194297 	mulseq	r9, r7, r2
     568:	012e0900 	teqeq	lr, r0, lsl #18
     56c:	0e03193f 	mcreq	9, 0, r1, cr3, cr15, {1}
     570:	0b3b0b3a 	bleq	ec3260 <__bss_end__+0xeb97e8>
     574:	01111927 	tsteq	r1, r7, lsr #18
     578:	18400612 	stmdane	r0, {r1, r4, r9, sl}^
     57c:	01194297 			; <UNDEFINED> instruction: 0x01194297
     580:	0a000013 	beq	5d4 <__code_start__-0x7a2c>
     584:	08030005 	stmdaeq	r3, {r0, r2}
     588:	0b3b0b3a 	bleq	ec3278 <__bss_end__+0xeb9800>
     58c:	18021349 	stmdane	r2, {r0, r3, r6, r8, r9, ip}
     590:	150b0000 	strne	r0, [fp, #-0]
     594:	49192701 	ldmdbmi	r9, {r0, r8, r9, sl, sp}
     598:	00130113 	andseq	r0, r3, r3, lsl r1
     59c:	00050c00 	andeq	r0, r5, r0, lsl #24
     5a0:	00001349 	andeq	r1, r0, r9, asr #6
     5a4:	0b000f0d 	bleq	41e0 <__code_start__-0x3e20>
     5a8:	0013490b 	andseq	r4, r3, fp, lsl #18
     5ac:	00340e00 	eorseq	r0, r4, r0, lsl #28
     5b0:	0b3a0e03 	bleq	e83dc4 <__bss_end__+0xe7a34c>
     5b4:	13490b3b 	movtne	r0, #39739	; 0x9b3b
     5b8:	1802193f 	stmdane	r2, {r0, r1, r2, r3, r4, r5, r8, fp, ip}
     5bc:	2e0f0000 	cdpcs	0, 0, cr0, cr15, cr0, {0}
     5c0:	03193f01 	tsteq	r9, #1, 30
     5c4:	3b0b3a0e 	blcc	2cee04 <__bss_end__+0x2c538c>
     5c8:	3c19270b 	ldccc	7, cr2, [r9], {11}
     5cc:	00000019 	andeq	r0, r0, r9, lsl r0
     5d0:	25011101 	strcs	r1, [r1, #-257]	; 0x101
     5d4:	030b130e 	movweq	r1, #45838	; 0xb30e
     5d8:	110e1b0e 	tstne	lr, lr, lsl #22
     5dc:	10061201 	andne	r1, r6, r1, lsl #4
     5e0:	02000017 	andeq	r0, r0, #23
     5e4:	0b0b0024 	bleq	2c067c <__bss_end__+0x2b6c04>
     5e8:	08030b3e 	stmdaeq	r3, {r1, r2, r3, r4, r5, r8, r9, fp}
     5ec:	24030000 	strcs	r0, [r3], #-0
     5f0:	3e0b0b00 	vmlacc.f64	d0, d11, d0
     5f4:	000e030b 	andeq	r0, lr, fp, lsl #6
     5f8:	000f0400 	andeq	r0, pc, r0, lsl #8
     5fc:	13490b0b 	movtne	r0, #39691	; 0x9b0b
     600:	26050000 	strcs	r0, [r5], -r0
     604:	00134900 	andseq	r4, r3, r0, lsl #18
     608:	012e0600 	teqeq	lr, r0, lsl #12
     60c:	0e03193f 	mcreq	9, 0, r1, cr3, cr15, {1}
     610:	0b3b0b3a 	bleq	ec3300 <__bss_end__+0xeb9888>
     614:	13491927 	movtne	r1, #39207	; 0x9927
     618:	06120111 			; <UNDEFINED> instruction: 0x06120111
     61c:	42961840 	addsmi	r1, r6, #64, 16	; 0x400000
     620:	00130119 	andseq	r0, r3, r9, lsl r1
     624:	00050700 	andeq	r0, r5, r0, lsl #14
     628:	0b3a0803 	bleq	e8263c <__bss_end__+0xe78bc4>
     62c:	13490b3b 	movtne	r0, #39739	; 0x9b3b
     630:	00001702 	andeq	r1, r0, r2, lsl #14
     634:	27011508 	strcs	r1, [r1, -r8, lsl #10]
     638:	01134919 	tsteq	r3, r9, lsl r9
     63c:	09000013 	stmdbeq	r0, {r0, r1, r4}
     640:	13490005 	movtne	r0, #36869	; 0x9005
     644:	340a0000 	strcc	r0, [sl], #-0
     648:	3a0e0300 	bcc	381250 <__bss_end__+0x3777d8>
     64c:	490b3b0b 	stmdbmi	fp, {r0, r1, r3, r8, r9, fp, ip, sp}
     650:	3c193f13 	ldccc	15, cr3, [r9], {19}
     654:	0b000019 	bleq	6c0 <__code_start__-0x7940>
     658:	0e030034 	mcreq	0, 0, r0, cr3, cr4, {1}
     65c:	0b3b0b3a 	bleq	ec334c <__bss_end__+0xeb98d4>
     660:	193f1349 	ldmdbne	pc!, {r0, r3, r6, r8, r9, ip}	; <UNPREDICTABLE>
     664:	00001802 	andeq	r1, r0, r2, lsl #16
     668:	01110100 	tsteq	r1, r0, lsl #2
     66c:	0b130e25 	bleq	4c3f08 <__bss_end__+0x4ba490>
     670:	0e1b0e03 	cdpeq	14, 1, cr0, cr11, cr3, {0}
     674:	06120111 			; <UNDEFINED> instruction: 0x06120111
     678:	00001710 	andeq	r1, r0, r0, lsl r7
     67c:	0b002402 	bleq	968c <buf.4189+0x14>
     680:	030b3e0b 	movweq	r3, #48651	; 0xbe0b
     684:	03000008 	movweq	r0, #8
     688:	0b0b0024 	bleq	2c0720 <__bss_end__+0x2b6ca8>
     68c:	0e030b3e 	vmoveq.16	d3[0], r0
     690:	0f040000 	svceq	0x00040000
     694:	000b0b00 	andeq	r0, fp, r0, lsl #22
     698:	000f0500 	andeq	r0, pc, r0, lsl #10
     69c:	13490b0b 	movtne	r0, #39691	; 0x9b0b
     6a0:	26060000 	strcs	r0, [r6], -r0
     6a4:	00134900 	andseq	r4, r3, r0, lsl #18
     6a8:	00160700 	andseq	r0, r6, r0, lsl #14
     6ac:	0b3a0e03 	bleq	e83ec0 <__bss_end__+0xe7a448>
     6b0:	13490b3b 	movtne	r0, #39739	; 0x9b3b
     6b4:	13080000 	movwne	r0, #32768	; 0x8000
     6b8:	0b0e0301 	bleq	3812c4 <__bss_end__+0x37784c>
     6bc:	3b0b3a0b 	blcc	2ceef0 <__bss_end__+0x2c5478>
     6c0:	0013010b 	andseq	r0, r3, fp, lsl #2
     6c4:	000d0900 	andeq	r0, sp, r0, lsl #18
     6c8:	13490e03 	movtne	r0, #40451	; 0x9e03
     6cc:	19340b38 	ldmdbne	r4!, {r3, r4, r5, r8, r9, fp}
     6d0:	2e0a0000 	cdpcs	0, 0, cr0, cr10, cr0, {0}
     6d4:	3a0e0301 	bcc	3812e0 <__bss_end__+0x377868>
     6d8:	270b3b0b 	strcs	r3, [fp, -fp, lsl #22]
     6dc:	11134919 	tstne	r3, r9, lsl r9
     6e0:	40061201 	andmi	r1, r6, r1, lsl #4
     6e4:	19429718 	stmdbne	r2, {r3, r4, r8, r9, sl, ip, pc}^
     6e8:	00001301 	andeq	r1, r0, r1, lsl #6
     6ec:	0300050b 	movweq	r0, #1291	; 0x50b
     6f0:	3b0b3a08 	blcc	2cef18 <__bss_end__+0x2c54a0>
     6f4:	0213490b 	andseq	r4, r3, #180224	; 0x2c000
     6f8:	0c000017 	stceq	0, cr0, [r0], {23}
     6fc:	0803012e 	stmdaeq	r3, {r1, r2, r3, r5, r8}
     700:	0b3b0b3a 	bleq	ec33f0 <__bss_end__+0xeb9978>
     704:	13491927 	movtne	r1, #39207	; 0x9927
     708:	06120111 			; <UNDEFINED> instruction: 0x06120111
     70c:	42971840 	addsmi	r1, r7, #64, 16	; 0x400000
     710:	00130119 	andseq	r0, r3, r9, lsl r1
     714:	00050d00 	andeq	r0, r5, r0, lsl #26
     718:	0b3a0e03 	bleq	e83f2c <__bss_end__+0xe7a4b4>
     71c:	13490b3b 	movtne	r0, #39739	; 0x9b3b
     720:	00001702 	andeq	r1, r0, r2, lsl #14
     724:	0300050e 	movweq	r0, #1294	; 0x50e
     728:	3b0b3a0e 	blcc	2cef68 <__bss_end__+0x2c54f0>
     72c:	0213490b 	andseq	r4, r3, #180224	; 0x2c000
     730:	0f000018 	svceq	0x00000018
     734:	08030034 	stmdaeq	r3, {r2, r4, r5}
     738:	0b3b0b3a 	bleq	ec3428 <__bss_end__+0xeb99b0>
     73c:	18021349 	stmdane	r2, {r0, r3, r6, r8, r9, ip}
     740:	34100000 	ldrcc	r0, [r0], #-0
     744:	3a080300 	bcc	20134c <__bss_end__+0x1f78d4>
     748:	490b3b0b 	stmdbmi	fp, {r0, r1, r3, r8, r9, fp, ip, sp}
     74c:	00170213 	andseq	r0, r7, r3, lsl r2
     750:	00341100 	eorseq	r1, r4, r0, lsl #2
     754:	13490e03 	movtne	r0, #40451	; 0x9e03
     758:	18021934 	stmdane	r2, {r2, r4, r5, r8, fp, ip}
     75c:	0b120000 	bleq	480764 <__bss_end__+0x476cec>
     760:	12011101 	andne	r1, r1, #1073741824	; 0x40000000
     764:	00130106 	andseq	r0, r3, r6, lsl #2
     768:	00341300 	eorseq	r1, r4, r0, lsl #6
     76c:	0b3a0e03 	bleq	e83f80 <__bss_end__+0xe7a508>
     770:	13490b3b 	movtne	r0, #39739	; 0x9b3b
     774:	00001702 	andeq	r1, r0, r2, lsl #14
     778:	01828914 	orreq	r8, r2, r4, lsl r9
     77c:	31011100 	mrscc	r1, (UNDEF: 17)
     780:	15000013 	strne	r0, [r0, #-19]
     784:	01018289 	smlabbeq	r1, r9, r2, r8
     788:	13310111 	teqne	r1, #1073741828	; 0x40000004
     78c:	00001301 	andeq	r1, r0, r1, lsl #6
     790:	01828a16 	orreq	r8, r2, r6, lsl sl
     794:	91180200 	tstls	r8, r0, lsl #4
     798:	00001842 	andeq	r1, r0, r2, asr #16
     79c:	01828917 	orreq	r8, r2, r7, lsl r9
     7a0:	31011101 	tstcc	r1, r1, lsl #2
     7a4:	18000013 	stmdane	r0, {r0, r1, r4}
     7a8:	13490101 	movtne	r0, #37121	; 0x9101
     7ac:	00001301 	andeq	r1, r0, r1, lsl #6
     7b0:	49002119 	stmdbmi	r0, {r0, r3, r4, r8, sp}
     7b4:	000b2f13 	andeq	r2, fp, r3, lsl pc
     7b8:	012e1a00 	teqeq	lr, r0, lsl #20
     7bc:	0e03193f 	mcreq	9, 0, r1, cr3, cr15, {1}
     7c0:	0b3b0b3a 	bleq	ec34b0 <__bss_end__+0xeb9a38>
     7c4:	01111927 	tsteq	r1, r7, lsr #18
     7c8:	18400612 	stmdane	r0, {r1, r4, r9, sl}^
     7cc:	01194297 			; <UNDEFINED> instruction: 0x01194297
     7d0:	1b000013 	blne	824 <__code_start__-0x77dc>
     7d4:	19270115 	stmdbne	r7!, {r0, r2, r4, r8}
     7d8:	13011349 	movwne	r1, #4937	; 0x1349
     7dc:	051c0000 	ldreq	r0, [ip, #-0]
     7e0:	00134900 	andseq	r4, r3, r0, lsl #18
     7e4:	012e1d00 	teqeq	lr, r0, lsl #26
     7e8:	0e03193f 	mcreq	9, 0, r1, cr3, cr15, {1}
     7ec:	0b3b0b3a 	bleq	ec34dc <__bss_end__+0xeb9a64>
     7f0:	13491927 	movtne	r1, #39207	; 0x9927
     7f4:	06120111 			; <UNDEFINED> instruction: 0x06120111
     7f8:	42971840 	addsmi	r1, r7, #64, 16	; 0x400000
     7fc:	00130119 	andseq	r0, r3, r9, lsl r1
     800:	010b1e00 	tsteq	fp, r0, lsl #28
     804:	06120111 			; <UNDEFINED> instruction: 0x06120111
     808:	891f0000 	ldmdbhi	pc, {}	; <UNPREDICTABLE>
     80c:	11010182 	smlabbne	r1, r2, r1, r0
     810:	00130101 	andseq	r0, r3, r1, lsl #2
     814:	00342000 	eorseq	r2, r4, r0
     818:	0b3a0e03 	bleq	e8402c <__bss_end__+0xe7a5b4>
     81c:	13490b3b 	movtne	r0, #39739	; 0x9b3b
     820:	193c193f 	ldmdbne	ip!, {r0, r1, r2, r3, r4, r5, r8, fp, ip}
     824:	2e210000 	cdpcs	0, 2, cr0, cr1, cr0, {0}
     828:	03193f00 	tsteq	r9, #0, 30
     82c:	3b0b3a0e 	blcc	2cf06c <__bss_end__+0x2c55f4>
     830:	3c19270b 	ldccc	7, cr2, [r9], {11}
     834:	22000019 	andcs	r0, r0, #25
     838:	193f012e 	ldmdbne	pc!, {r1, r2, r3, r5, r8}	; <UNPREDICTABLE>
     83c:	0b3a0e03 	bleq	e84050 <__bss_end__+0xe7a5d8>
     840:	19270b3b 	stmdbne	r7!, {r0, r1, r3, r4, r5, r8, r9, fp}
     844:	193c1349 	ldmdbne	ip!, {r0, r3, r6, r8, r9, ip}
     848:	00001301 	andeq	r1, r0, r1, lsl #6
     84c:	00001823 	andeq	r1, r0, r3, lsr #16
     850:	11010000 	mrsne	r0, (UNDEF: 1)
     854:	130e2501 	movwne	r2, #58625	; 0xe501
     858:	1b0e030b 	blne	38148c <__bss_end__+0x377a14>
     85c:	1201110e 	andne	r1, r1, #-2147483645	; 0x80000003
     860:	00171006 	andseq	r1, r7, r6
     864:	00240200 	eoreq	r0, r4, r0, lsl #4
     868:	0b3e0b0b 	bleq	f8349c <__bss_end__+0xf79a24>
     86c:	00000803 	andeq	r0, r0, r3, lsl #16
     870:	0b002403 	bleq	9884 <buf.4189+0x20c>
     874:	030b3e0b 	movweq	r3, #48651	; 0xbe0b
     878:	0400000e 	streq	r0, [r0], #-14
     87c:	0b0b000f 	bleq	2c08c0 <__bss_end__+0x2b6e48>
     880:	00001349 	andeq	r1, r0, r9, asr #6
     884:	49002605 	stmdbmi	r0, {r0, r2, r9, sl, sp}
     888:	06000013 			; <UNDEFINED> instruction: 0x06000013
     88c:	193f012e 	ldmdbne	pc!, {r1, r2, r3, r5, r8}	; <UNPREDICTABLE>
     890:	0b3a0e03 	bleq	e840a4 <__bss_end__+0xe7a62c>
     894:	19270b3b 	stmdbne	r7!, {r0, r1, r3, r4, r5, r8, r9, fp}
     898:	06120111 			; <UNDEFINED> instruction: 0x06120111
     89c:	42971840 	addsmi	r1, r7, #64, 16	; 0x400000
     8a0:	00130119 	andseq	r0, r3, r9, lsl r1
     8a4:	82890700 	addhi	r0, r9, #0, 14
     8a8:	01110001 	tsteq	r1, r1
     8ac:	00001331 	andeq	r1, r0, r1, lsr r3
     8b0:	01828908 	orreq	r8, r2, r8, lsl #18
     8b4:	01011101 	tsteq	r1, r1, lsl #2
     8b8:	09000013 	stmdbeq	r0, {r0, r1, r4}
     8bc:	0001828a 	andeq	r8, r1, sl, lsl #5
     8c0:	42911802 	addsmi	r1, r1, #131072	; 0x20000
     8c4:	0a000018 	beq	92c <__code_start__-0x76d4>
     8c8:	01018289 	smlabbeq	r1, r9, r2, r8
     8cc:	13310111 	teqne	r1, #1073741828	; 0x40000004
     8d0:	00001301 	andeq	r1, r0, r1, lsl #6
     8d4:	2701150b 	strcs	r1, [r1, -fp, lsl #10]
     8d8:	01134919 	tsteq	r3, r9, lsl r9
     8dc:	0c000013 	stceq	0, cr0, [r0], {19}
     8e0:	13490005 	movtne	r0, #36869	; 0x9005
     8e4:	340d0000 	strcc	r0, [sp], #-0
     8e8:	3a0e0300 	bcc	3814f0 <__bss_end__+0x377a78>
     8ec:	490b3b0b 	stmdbmi	fp, {r0, r1, r3, r8, r9, fp, ip, sp}
     8f0:	3c193f13 	ldccc	15, cr3, [r9], {19}
     8f4:	0e000019 	mcreq	0, 0, r0, cr0, cr9, {0}
     8f8:	193f002e 	ldmdbne	pc!, {r1, r2, r3, r5}	; <UNPREDICTABLE>
     8fc:	0b3a0e03 	bleq	e84110 <__bss_end__+0xe7a698>
     900:	19270b3b 	stmdbne	r7!, {r0, r1, r3, r4, r5, r8, r9, fp}
     904:	0000193c 	andeq	r1, r0, ip, lsr r9
     908:	3f012e0f 	svccc	0x00012e0f
     90c:	3a0e0319 	bcc	381578 <__bss_end__+0x377b00>
     910:	270b3b0b 	strcs	r3, [fp, -fp, lsl #22]
     914:	01193c19 	tsteq	r9, r9, lsl ip
     918:	00000013 	andeq	r0, r0, r3, lsl r0
     91c:	25011101 	strcs	r1, [r1, #-257]	; 0x101
     920:	030b130e 	movweq	r1, #45838	; 0xb30e
     924:	110e1b0e 	tstne	lr, lr, lsl #22
     928:	10061201 	andne	r1, r6, r1, lsl #4
     92c:	02000017 	andeq	r0, r0, #23
     930:	0b0b0024 	bleq	2c09c8 <__bss_end__+0x2b6f50>
     934:	08030b3e 	stmdaeq	r3, {r1, r2, r3, r4, r5, r8, r9, fp}
     938:	24030000 	strcs	r0, [r3], #-0
     93c:	3e0b0b00 	vmlacc.f64	d0, d11, d0
     940:	000e030b 	andeq	r0, lr, fp, lsl #6
     944:	012e0400 	teqeq	lr, r0, lsl #8
     948:	0e03193f 	mcreq	9, 0, r1, cr3, cr15, {1}
     94c:	0b3b0b3a 	bleq	ec363c <__bss_end__+0xeb9bc4>
     950:	06120111 			; <UNDEFINED> instruction: 0x06120111
     954:	42971840 	addsmi	r1, r7, #64, 16	; 0x400000
     958:	00130119 	andseq	r0, r3, r9, lsl r1
     95c:	00340500 	eorseq	r0, r4, r0, lsl #10
     960:	0b3a0e03 	bleq	e84174 <__bss_end__+0xe7a6fc>
     964:	13490b3b 	movtne	r0, #39739	; 0x9b3b
     968:	193c193f 	ldmdbne	ip!, {r0, r1, r2, r3, r4, r5, r8, fp, ip}
     96c:	2e060000 	cdpcs	0, 0, cr0, cr6, cr0, {0}
     970:	03193f00 	tsteq	r9, #0, 30
     974:	3b0b3a0e 	blcc	2cf1b4 <__bss_end__+0x2c573c>
     978:	3c19270b 	ldccc	7, cr2, [r9], {11}
     97c:	07000019 	smladeq	r0, r9, r0, r0
     980:	08030034 	stmdaeq	r3, {r2, r4, r5}
     984:	0b3b0b3a 	bleq	ec3674 <__bss_end__+0xeb9bfc>
     988:	17021349 	strne	r1, [r2, -r9, asr #6]
     98c:	34080000 	strcc	r0, [r8], #-0
     990:	3a0e0300 	bcc	381598 <__bss_end__+0x377b20>
     994:	490b3b0b 	stmdbmi	fp, {r0, r1, r3, r8, r9, fp, ip, sp}
     998:	09000013 	stmdbeq	r0, {r0, r1, r4}
     99c:	00018289 	andeq	r8, r1, r9, lsl #5
     9a0:	13310111 	teqne	r1, #1073741828	; 0x40000004
     9a4:	0f0a0000 	svceq	0x000a0000
     9a8:	490b0b00 	stmdbmi	fp, {r8, r9, fp}
     9ac:	00000013 	andeq	r0, r0, r3, lsl r0
     9b0:	25011101 	strcs	r1, [r1, #-257]	; 0x101
     9b4:	030b130e 	movweq	r1, #45838	; 0xb30e
     9b8:	110e1b0e 	tstne	lr, lr, lsl #22
     9bc:	10061201 	andne	r1, r6, r1, lsl #4
     9c0:	02000017 	andeq	r0, r0, #23
     9c4:	0b0b0024 	bleq	2c0a5c <__bss_end__+0x2b6fe4>
     9c8:	08030b3e 	stmdaeq	r3, {r1, r2, r3, r4, r5, r8, r9, fp}
     9cc:	24030000 	strcs	r0, [r3], #-0
     9d0:	3e0b0b00 	vmlacc.f64	d0, d11, d0
     9d4:	000e030b 	andeq	r0, lr, fp, lsl #6
     9d8:	000f0400 	andeq	r0, pc, r0, lsl #8
     9dc:	13490b0b 	movtne	r0, #39691	; 0x9b0b
     9e0:	26050000 	strcs	r0, [r5], -r0
     9e4:	00134900 	andseq	r4, r3, r0, lsl #18
     9e8:	012e0600 	teqeq	lr, r0, lsl #12
     9ec:	0e03193f 	mcreq	9, 0, r1, cr3, cr15, {1}
     9f0:	0b3b0b3a 	bleq	ec36e0 <__bss_end__+0xeb9c68>
     9f4:	01111927 	tsteq	r1, r7, lsr #18
     9f8:	18400612 	stmdane	r0, {r1, r4, r9, sl}^
     9fc:	01194297 			; <UNDEFINED> instruction: 0x01194297
     a00:	07000013 	smladeq	r0, r3, r0, r0
     a04:	08030005 	stmdaeq	r3, {r0, r2}
     a08:	0b3b0b3a 	bleq	ec36f8 <__bss_end__+0xeb9c80>
     a0c:	17021349 	strne	r1, [r2, -r9, asr #6]
     a10:	34080000 	strcc	r0, [r8], #-0
     a14:	490e0300 	stmdbmi	lr, {r8, r9}
     a18:	02193413 	andseq	r3, r9, #318767104	; 0x13000000
     a1c:	09000018 	stmdbeq	r0, {r3, r4}
     a20:	00018289 	andeq	r8, r1, r9, lsl #5
     a24:	13310111 	teqne	r1, #1073741828	; 0x40000004
     a28:	890a0000 	stmdbhi	sl, {}	; <UNPREDICTABLE>
     a2c:	11010182 	smlabbne	r1, r2, r1, r0
     a30:	01133101 	tsteq	r3, r1, lsl #2
     a34:	0b000013 	bleq	a88 <__code_start__-0x7578>
     a38:	0001828a 	andeq	r8, r1, sl, lsl #5
     a3c:	42911802 	addsmi	r1, r1, #131072	; 0x20000
     a40:	0c000018 	stceq	0, cr0, [r0], {24}
     a44:	13490101 	movtne	r0, #37121	; 0x9101
     a48:	00001301 	andeq	r1, r0, r1, lsl #6
     a4c:	4900210d 	stmdbmi	r0, {r0, r2, r3, r8, sp}
     a50:	000b2f13 	andeq	r2, fp, r3, lsl pc
     a54:	002e0e00 	eoreq	r0, lr, r0, lsl #28
     a58:	0e03193f 	mcreq	9, 0, r1, cr3, cr15, {1}
     a5c:	0b3b0b3a 	bleq	ec374c <__bss_end__+0xeb9cd4>
     a60:	193c1927 	ldmdbne	ip!, {r0, r1, r2, r5, r8, fp, ip}
     a64:	2e0f0000 	cdpcs	0, 0, cr0, cr15, cr0, {0}
     a68:	03193f01 	tsteq	r9, #1, 30
     a6c:	3b0b3a0e 	blcc	2cf2ac <__bss_end__+0x2c5834>
     a70:	4919270b 	ldmdbmi	r9, {r0, r1, r3, r8, r9, sl, sp}
     a74:	01193c13 	tsteq	r9, r3, lsl ip
     a78:	10000013 	andne	r0, r0, r3, lsl r0
     a7c:	13490005 	movtne	r0, #36869	; 0x9005
     a80:	18110000 	ldmdane	r1, {}	; <UNPREDICTABLE>
     a84:	00000000 	andeq	r0, r0, r0
     a88:	25011101 	strcs	r1, [r1, #-257]	; 0x101
     a8c:	030b130e 	movweq	r1, #45838	; 0xb30e
     a90:	110e1b0e 	tstne	lr, lr, lsl #22
     a94:	10061201 	andne	r1, r6, r1, lsl #4
     a98:	02000017 	andeq	r0, r0, #23
     a9c:	0b0b0024 	bleq	2c0b34 <__bss_end__+0x2b70bc>
     aa0:	08030b3e 	stmdaeq	r3, {r1, r2, r3, r4, r5, r8, r9, fp}
     aa4:	24030000 	strcs	r0, [r3], #-0
     aa8:	3e0b0b00 	vmlacc.f64	d0, d11, d0
     aac:	000e030b 	andeq	r0, lr, fp, lsl #6
     ab0:	000f0400 	andeq	r0, pc, r0, lsl #8
     ab4:	13490b0b 	movtne	r0, #39691	; 0x9b0b
     ab8:	26050000 	strcs	r0, [r5], -r0
     abc:	00134900 	andseq	r4, r3, r0, lsl #18
     ac0:	012e0600 	teqeq	lr, r0, lsl #12
     ac4:	0e03193f 	mcreq	9, 0, r1, cr3, cr15, {1}
     ac8:	0b3b0b3a 	bleq	ec37b8 <__bss_end__+0xeb9d40>
     acc:	01111927 	tsteq	r1, r7, lsr #18
     ad0:	18400612 	stmdane	r0, {r1, r4, r9, sl}^
     ad4:	01194297 			; <UNDEFINED> instruction: 0x01194297
     ad8:	07000013 	smladeq	r0, r3, r0, r0
     adc:	08030005 	stmdaeq	r3, {r0, r2}
     ae0:	0b3b0b3a 	bleq	ec37d0 <__bss_end__+0xeb9d58>
     ae4:	17021349 	strne	r1, [r2, -r9, asr #6]
     ae8:	34080000 	strcc	r0, [r8], #-0
     aec:	490e0300 	stmdbmi	lr, {r8, r9}
     af0:	02193413 	andseq	r3, r9, #318767104	; 0x13000000
     af4:	09000018 	stmdbeq	r0, {r3, r4}
     af8:	00018289 	andeq	r8, r1, r9, lsl #5
     afc:	13310111 	teqne	r1, #1073741828	; 0x40000004
     b00:	890a0000 	stmdbhi	sl, {}	; <UNPREDICTABLE>
     b04:	11010182 	smlabbne	r1, r2, r1, r0
     b08:	01133101 	tsteq	r3, r1, lsl #2
     b0c:	0b000013 	bleq	b60 <__code_start__-0x74a0>
     b10:	0001828a 	andeq	r8, r1, sl, lsl #5
     b14:	42911802 	addsmi	r1, r1, #131072	; 0x20000
     b18:	0c000018 	stceq	0, cr0, [r0], {24}
     b1c:	13490101 	movtne	r0, #37121	; 0x9101
     b20:	00001301 	andeq	r1, r0, r1, lsl #6
     b24:	4900210d 	stmdbmi	r0, {r0, r2, r3, r8, sp}
     b28:	000b2f13 	andeq	r2, fp, r3, lsl pc
     b2c:	002e0e00 	eoreq	r0, lr, r0, lsl #28
     b30:	0e03193f 	mcreq	9, 0, r1, cr3, cr15, {1}
     b34:	0b3b0b3a 	bleq	ec3824 <__bss_end__+0xeb9dac>
     b38:	193c1927 	ldmdbne	ip!, {r0, r1, r2, r5, r8, fp, ip}
     b3c:	2e0f0000 	cdpcs	0, 0, cr0, cr15, cr0, {0}
     b40:	03193f01 	tsteq	r9, #1, 30
     b44:	3b0b3a0e 	blcc	2cf384 <__bss_end__+0x2c590c>
     b48:	4919270b 	ldmdbmi	r9, {r0, r1, r3, r8, r9, sl, sp}
     b4c:	01193c13 	tsteq	r9, r3, lsl ip
     b50:	10000013 	andne	r0, r0, r3, lsl r0
     b54:	13490005 	movtne	r0, #36869	; 0x9005
     b58:	18110000 	ldmdane	r1, {}	; <UNPREDICTABLE>
     b5c:	00000000 	andeq	r0, r0, r0
     b60:	25011101 	strcs	r1, [r1, #-257]	; 0x101
     b64:	030b130e 	movweq	r1, #45838	; 0xb30e
     b68:	110e1b0e 	tstne	lr, lr, lsl #22
     b6c:	10061201 	andne	r1, r6, r1, lsl #4
     b70:	02000017 	andeq	r0, r0, #23
     b74:	0b0b0024 	bleq	2c0c0c <__bss_end__+0x2b7194>
     b78:	08030b3e 	stmdaeq	r3, {r1, r2, r3, r4, r5, r8, r9, fp}
     b7c:	24030000 	strcs	r0, [r3], #-0
     b80:	3e0b0b00 	vmlacc.f64	d0, d11, d0
     b84:	000e030b 	andeq	r0, lr, fp, lsl #6
     b88:	000f0400 	andeq	r0, pc, r0, lsl #8
     b8c:	13490b0b 	movtne	r0, #39691	; 0x9b0b
     b90:	26050000 	strcs	r0, [r5], -r0
     b94:	00134900 	andseq	r4, r3, r0, lsl #18
     b98:	01010600 	tsteq	r1, r0, lsl #12
     b9c:	13011349 	movwne	r1, #4937	; 0x1349
     ba0:	21070000 	mrscs	r0, (UNDEF: 7)
     ba4:	2f134900 	svccs	0x00134900
     ba8:	0800000b 	stmdaeq	r0, {r0, r1, r3}
     bac:	193f012e 	ldmdbne	pc!, {r1, r2, r3, r5, r8}	; <UNPREDICTABLE>
     bb0:	0b3a0e03 	bleq	e843c4 <__bss_end__+0xe7a94c>
     bb4:	19270b3b 	stmdbne	r7!, {r0, r1, r3, r4, r5, r8, r9, fp}
     bb8:	06120111 			; <UNDEFINED> instruction: 0x06120111
     bbc:	42971840 	addsmi	r1, r7, #64, 16	; 0x400000
     bc0:	00130119 	andseq	r0, r3, r9, lsl r1
     bc4:	00050900 	andeq	r0, r5, r0, lsl #18
     bc8:	0b3a0803 	bleq	e82bdc <__bss_end__+0xe79164>
     bcc:	13490b3b 	movtne	r0, #39739	; 0x9b3b
     bd0:	00001702 	andeq	r1, r0, r2, lsl #14
     bd4:	0300340a 	movweq	r3, #1034	; 0x40a
     bd8:	3413490e 	ldrcc	r4, [r3], #-2318	; 0x90e
     bdc:	00180219 	andseq	r0, r8, r9, lsl r2
     be0:	82890b00 	addhi	r0, r9, #0, 22
     be4:	01110001 	tsteq	r1, r1
     be8:	00001331 	andeq	r1, r0, r1, lsr r3
     bec:	0182890c 	orreq	r8, r2, ip, lsl #18
     bf0:	31011101 	tstcc	r1, r1, lsl #2
     bf4:	00130113 	andseq	r0, r3, r3, lsl r1
     bf8:	828a0d00 	addhi	r0, sl, #0, 26
     bfc:	18020001 	stmdane	r2, {r0}
     c00:	00184291 	mulseq	r8, r1, r2
     c04:	002e0e00 	eoreq	r0, lr, r0, lsl #28
     c08:	0e03193f 	mcreq	9, 0, r1, cr3, cr15, {1}
     c0c:	0b3b0b3a 	bleq	ec38fc <__bss_end__+0xeb9e84>
     c10:	193c1927 	ldmdbne	ip!, {r0, r1, r2, r5, r8, fp, ip}
     c14:	2e0f0000 	cdpcs	0, 0, cr0, cr15, cr0, {0}
     c18:	03193f01 	tsteq	r9, #1, 30
     c1c:	3b0b3a0e 	blcc	2cf45c <__bss_end__+0x2c59e4>
     c20:	4919270b 	ldmdbmi	r9, {r0, r1, r3, r8, r9, sl, sp}
     c24:	01193c13 	tsteq	r9, r3, lsl ip
     c28:	10000013 	andne	r0, r0, r3, lsl r0
     c2c:	13490005 	movtne	r0, #36869	; 0x9005
     c30:	18110000 	ldmdane	r1, {}	; <UNPREDICTABLE>
     c34:	00000000 	andeq	r0, r0, r0
     c38:	25011101 	strcs	r1, [r1, #-257]	; 0x101
     c3c:	030b130e 	movweq	r1, #45838	; 0xb30e
     c40:	110e1b0e 	tstne	lr, lr, lsl #22
     c44:	10061201 	andne	r1, r6, r1, lsl #4
     c48:	02000017 	andeq	r0, r0, #23
     c4c:	0b0b0024 	bleq	2c0ce4 <__bss_end__+0x2b726c>
     c50:	08030b3e 	stmdaeq	r3, {r1, r2, r3, r4, r5, r8, r9, fp}
     c54:	24030000 	strcs	r0, [r3], #-0
     c58:	3e0b0b00 	vmlacc.f64	d0, d11, d0
     c5c:	000e030b 	andeq	r0, lr, fp, lsl #6
     c60:	000f0400 	andeq	r0, pc, r0, lsl #8
     c64:	13490b0b 	movtne	r0, #39691	; 0x9b0b
     c68:	26050000 	strcs	r0, [r5], -r0
     c6c:	00134900 	andseq	r4, r3, r0, lsl #18
     c70:	012e0600 	teqeq	lr, r0, lsl #12
     c74:	0e03193f 	mcreq	9, 0, r1, cr3, cr15, {1}
     c78:	0b3b0b3a 	bleq	ec3968 <__bss_end__+0xeb9ef0>
     c7c:	01111927 	tsteq	r1, r7, lsr #18
     c80:	18400612 	stmdane	r0, {r1, r4, r9, sl}^
     c84:	01194297 			; <UNDEFINED> instruction: 0x01194297
     c88:	07000013 	smladeq	r0, r3, r0, r0
     c8c:	08030005 	stmdaeq	r3, {r0, r2}
     c90:	0b3b0b3a 	bleq	ec3980 <__bss_end__+0xeb9f08>
     c94:	17021349 	strne	r1, [r2, -r9, asr #6]
     c98:	34080000 	strcc	r0, [r8], #-0
     c9c:	490e0300 	stmdbmi	lr, {r8, r9}
     ca0:	02193413 	andseq	r3, r9, #318767104	; 0x13000000
     ca4:	09000018 	stmdbeq	r0, {r3, r4}
     ca8:	00018289 	andeq	r8, r1, r9, lsl #5
     cac:	13310111 	teqne	r1, #1073741828	; 0x40000004
     cb0:	890a0000 	stmdbhi	sl, {}	; <UNPREDICTABLE>
     cb4:	11010182 	smlabbne	r1, r2, r1, r0
     cb8:	01133101 	tsteq	r3, r1, lsl #2
     cbc:	0b000013 	bleq	d10 <__code_start__-0x72f0>
     cc0:	0001828a 	andeq	r8, r1, sl, lsl #5
     cc4:	42911802 	addsmi	r1, r1, #131072	; 0x20000
     cc8:	0c000018 	stceq	0, cr0, [r0], {24}
     ccc:	13490101 	movtne	r0, #37121	; 0x9101
     cd0:	00001301 	andeq	r1, r0, r1, lsl #6
     cd4:	4900210d 	stmdbmi	r0, {r0, r2, r3, r8, sp}
     cd8:	000b2f13 	andeq	r2, fp, r3, lsl pc
     cdc:	002e0e00 	eoreq	r0, lr, r0, lsl #28
     ce0:	0e03193f 	mcreq	9, 0, r1, cr3, cr15, {1}
     ce4:	0b3b0b3a 	bleq	ec39d4 <__bss_end__+0xeb9f5c>
     ce8:	193c1927 	ldmdbne	ip!, {r0, r1, r2, r5, r8, fp, ip}
     cec:	2e0f0000 	cdpcs	0, 0, cr0, cr15, cr0, {0}
     cf0:	03193f01 	tsteq	r9, #1, 30
     cf4:	3b0b3a0e 	blcc	2cf534 <__bss_end__+0x2c5abc>
     cf8:	4919270b 	ldmdbmi	r9, {r0, r1, r3, r8, r9, sl, sp}
     cfc:	01193c13 	tsteq	r9, r3, lsl ip
     d00:	10000013 	andne	r0, r0, r3, lsl r0
     d04:	13490005 	movtne	r0, #36869	; 0x9005
     d08:	18110000 	ldmdane	r1, {}	; <UNPREDICTABLE>
     d0c:	00000000 	andeq	r0, r0, r0
     d10:	25011101 	strcs	r1, [r1, #-257]	; 0x101
     d14:	030b130e 	movweq	r1, #45838	; 0xb30e
     d18:	110e1b0e 	tstne	lr, lr, lsl #22
     d1c:	10061201 	andne	r1, r6, r1, lsl #4
     d20:	02000017 	andeq	r0, r0, #23
     d24:	0b0b0024 	bleq	2c0dbc <__bss_end__+0x2b7344>
     d28:	08030b3e 	stmdaeq	r3, {r1, r2, r3, r4, r5, r8, r9, fp}
     d2c:	24030000 	strcs	r0, [r3], #-0
     d30:	3e0b0b00 	vmlacc.f64	d0, d11, d0
     d34:	000e030b 	andeq	r0, lr, fp, lsl #6
     d38:	002e0400 	eoreq	r0, lr, r0, lsl #8
     d3c:	0e03193f 	mcreq	9, 0, r1, cr3, cr15, {1}
     d40:	0b3b0b3a 	bleq	ec3a30 <__bss_end__+0xeb9fb8>
     d44:	01111927 	tsteq	r1, r7, lsr #18
     d48:	18400612 	stmdane	r0, {r1, r4, r9, sl}^
     d4c:	00194297 	mulseq	r9, r7, r2
     d50:	11010000 	mrsne	r0, (UNDEF: 1)
     d54:	130e2501 	movwne	r2, #58625	; 0xe501
     d58:	1b0e030b 	blne	38198c <__bss_end__+0x377f14>
     d5c:	1201110e 	andne	r1, r1, #-2147483645	; 0x80000003
     d60:	00171006 	andseq	r1, r7, r6
     d64:	00240200 	eoreq	r0, r4, r0, lsl #4
     d68:	0b3e0b0b 	bleq	f8399c <__bss_end__+0xf79f24>
     d6c:	00000803 	andeq	r0, r0, r3, lsl #16
     d70:	0b002403 	bleq	9d84 <__bss_end__+0x30c>
     d74:	030b3e0b 	movweq	r3, #48651	; 0xbe0b
     d78:	0400000e 	streq	r0, [r0], #-14
     d7c:	0b0b0104 	bleq	2c1194 <__bss_end__+0x2b771c>
     d80:	0b3b0b3a 	bleq	ec3a70 <__bss_end__+0xeb9ff8>
     d84:	00001301 	andeq	r1, r0, r1, lsl #6
     d88:	03002805 	movweq	r2, #2053	; 0x805
     d8c:	000d1c0e 	andeq	r1, sp, lr, lsl #24
     d90:	012e0600 	teqeq	lr, r0, lsl #12
     d94:	0e03193f 	mcreq	9, 0, r1, cr3, cr15, {1}
     d98:	0b3b0b3a 	bleq	ec3a88 <__bss_end__+0xeba010>
     d9c:	01111927 	tsteq	r1, r7, lsr #18
     da0:	18400612 	stmdane	r0, {r1, r4, r9, sl}^
     da4:	01194297 			; <UNDEFINED> instruction: 0x01194297
     da8:	07000013 	smladeq	r0, r3, r0, r0
     dac:	0e030034 	mcreq	0, 0, r0, cr3, cr4, {1}
     db0:	0b3b0b3a 	bleq	ec3aa0 <__bss_end__+0xeba028>
     db4:	193f1349 	ldmdbne	pc!, {r0, r3, r6, r8, r9, ip}	; <UNPREDICTABLE>
     db8:	0000193c 	andeq	r1, r0, ip, lsr r9
     dbc:	03003408 	movweq	r3, #1032	; 0x408
     dc0:	3b0b3a08 	blcc	2cf5e8 <__bss_end__+0x2c5b70>
     dc4:	1c13490b 	ldcne	9, cr4, [r3], {11}
     dc8:	0900000b 	stmdbeq	r0, {r0, r1, r3}
     dcc:	08030034 	stmdaeq	r3, {r2, r4, r5}
     dd0:	0b3b0b3a 	bleq	ec3ac0 <__bss_end__+0xeba048>
     dd4:	00001349 	andeq	r1, r0, r9, asr #6
     dd8:	0300340a 	movweq	r3, #1034	; 0x40a
     ddc:	3b0b3a08 	blcc	2cf604 <__bss_end__+0x2c5b8c>
     de0:	0213490b 	andseq	r4, r3, #180224	; 0x2c000
     de4:	0b000018 	bleq	e4c <__code_start__-0x71b4>
     de8:	0111010b 	tsteq	r1, fp, lsl #2
     dec:	13010612 	movwne	r0, #5650	; 0x1612
     df0:	340c0000 	strcc	r0, [ip], #-0
     df4:	3a080300 	bcc	2019fc <__bss_end__+0x1f7f84>
     df8:	490b3b0b 	stmdbmi	fp, {r0, r1, r3, r8, r9, fp, ip, sp}
     dfc:	00170213 	andseq	r0, r7, r3, lsl r2
     e00:	82890d00 	addhi	r0, r9, #0, 26
     e04:	01110001 	tsteq	r1, r1
     e08:	00001331 	andeq	r1, r0, r1, lsr r3
     e0c:	0182890e 	orreq	r8, r2, lr, lsl #18
     e10:	31011101 	tstcc	r1, r1, lsl #2
     e14:	00130113 	andseq	r0, r3, r3, lsl r1
     e18:	828a0f00 	addhi	r0, sl, #0, 30
     e1c:	18020001 	stmdane	r2, {r0}
     e20:	00184291 	mulseq	r8, r1, r2
     e24:	000f1000 	andeq	r1, pc, r0
     e28:	13490b0b 	movtne	r0, #39691	; 0x9b0b
     e2c:	2e110000 	cdpcs	0, 1, cr0, cr1, cr0, {0}
     e30:	03193f00 	tsteq	r9, #0, 30
     e34:	3b0b3a0e 	blcc	2cf674 <__bss_end__+0x2c5bfc>
     e38:	3c19270b 	ldccc	7, cr2, [r9], {11}
     e3c:	12000019 	andne	r0, r0, #25
     e40:	193f012e 	ldmdbne	pc!, {r1, r2, r3, r5, r8}	; <UNPREDICTABLE>
     e44:	0b3a0e03 	bleq	e84658 <__bss_end__+0xe7abe0>
     e48:	19270b3b 	stmdbne	r7!, {r0, r1, r3, r4, r5, r8, r9, fp}
     e4c:	0000193c 	andeq	r1, r0, ip, lsr r9
     e50:	49000513 	stmdbmi	r0, {r0, r1, r4, r8, sl}
     e54:	00000013 	andeq	r0, r0, r3, lsl r0
     e58:	25011101 	strcs	r1, [r1, #-257]	; 0x101
     e5c:	030b130e 	movweq	r1, #45838	; 0xb30e
     e60:	550e1b0e 	strpl	r1, [lr, #-2830]	; 0xb0e
     e64:	10011117 	andne	r1, r1, r7, lsl r1
     e68:	02000017 	andeq	r0, r0, #23
     e6c:	0b0b0024 	bleq	2c0f04 <__bss_end__+0x2b748c>
     e70:	08030b3e 	stmdaeq	r3, {r1, r2, r3, r4, r5, r8, r9, fp}
     e74:	24030000 	strcs	r0, [r3], #-0
     e78:	3e0b0b00 	vmlacc.f64	d0, d11, d0
     e7c:	000e030b 	andeq	r0, lr, fp, lsl #6
     e80:	012e0400 	teqeq	lr, r0, lsl #8
     e84:	0e03193f 	mcreq	9, 0, r1, cr3, cr15, {1}
     e88:	0b3b0b3a 	bleq	ec3b78 <__bss_end__+0xeba100>
     e8c:	13491927 	movtne	r1, #39207	; 0x9927
     e90:	06120111 			; <UNDEFINED> instruction: 0x06120111
     e94:	42971840 	addsmi	r1, r7, #64, 16	; 0x400000
     e98:	00130119 	andseq	r0, r3, r9, lsl r1
     e9c:	00340500 	eorseq	r0, r4, r0, lsl #10
     ea0:	0b3a0e03 	bleq	e846b4 <__bss_end__+0xe7ac3c>
     ea4:	13490b3b 	movtne	r0, #39739	; 0x9b3b
     ea8:	00001702 	andeq	r1, r0, r2, lsl #14
     eac:	3f012e06 	svccc	0x00012e06
     eb0:	3a0e0319 	bcc	381b1c <__bss_end__+0x3780a4>
     eb4:	270b3b0b 	strcs	r3, [fp, -fp, lsl #22]
     eb8:	12011119 	andne	r1, r1, #1073741830	; 0x40000006
     ebc:	97184006 	ldrls	r4, [r8, -r6]
     ec0:	13011942 	movwne	r1, #6466	; 0x1942
     ec4:	34070000 	strcc	r0, [r7], #-0
     ec8:	3a0e0300 	bcc	381ad0 <__bss_end__+0x378058>
     ecc:	490b3b0b 	stmdbmi	fp, {r0, r1, r3, r8, r9, fp, ip, sp}
     ed0:	00061c13 	andeq	r1, r6, r3, lsl ip
     ed4:	00340800 	eorseq	r0, r4, r0, lsl #16
     ed8:	0b3a0e03 	bleq	e846ec <__bss_end__+0xe7ac74>
     edc:	13490b3b 	movtne	r0, #39739	; 0x9b3b
     ee0:	00000b1c 	andeq	r0, r0, ip, lsl fp
     ee4:	01828909 	orreq	r8, r2, r9, lsl #18
     ee8:	31011100 	mrscc	r1, (UNDEF: 17)
     eec:	0a000013 	beq	f40 <__code_start__-0x70c0>
     ef0:	01018289 	smlabbeq	r1, r9, r2, r8
     ef4:	13310111 	teqne	r1, #1073741828	; 0x40000004
     ef8:	00001301 	andeq	r1, r0, r1, lsl #6
     efc:	01828a0b 	orreq	r8, r2, fp, lsl #20
     f00:	91180200 	tstls	r8, r0, lsl #4
     f04:	00001842 	andeq	r1, r0, r2, asr #16
     f08:	0182890c 	orreq	r8, r2, ip, lsl #18
     f0c:	31011101 	tstcc	r1, r1, lsl #2
     f10:	0d000013 	stceq	0, cr0, [r0, #-76]	; 0xffffffb4
     f14:	13490026 	movtne	r0, #36902	; 0x9026
     f18:	2e0e0000 	cdpcs	0, 0, cr0, cr14, cr0, {0}
     f1c:	03193f01 	tsteq	r9, #1, 30
     f20:	3b0b3a0e 	blcc	2cf760 <__bss_end__+0x2c5ce8>
     f24:	3c19270b 	ldccc	7, cr2, [r9], {11}
     f28:	00130119 	andseq	r0, r3, r9, lsl r1
     f2c:	00050f00 	andeq	r0, r5, r0, lsl #30
     f30:	00001349 	andeq	r1, r0, r9, asr #6
     f34:	3f012e10 	svccc	0x00012e10
     f38:	3a0e0319 	bcc	381ba4 <__bss_end__+0x37812c>
     f3c:	270b3b0b 	strcs	r3, [fp, -fp, lsl #22]
     f40:	00193c19 	andseq	r3, r9, r9, lsl ip
     f44:	11010000 	mrsne	r0, (UNDEF: 1)
     f48:	130e2501 	movwne	r2, #58625	; 0xe501
     f4c:	1b0e030b 	blne	381b80 <__bss_end__+0x378108>
     f50:	1201110e 	andne	r1, r1, #-2147483645	; 0x80000003
     f54:	00171006 	andseq	r1, r7, r6
     f58:	00240200 	eoreq	r0, r4, r0, lsl #4
     f5c:	0b3e0b0b 	bleq	f83b90 <__bss_end__+0xf7a118>
     f60:	00000803 	andeq	r0, r0, r3, lsl #16
     f64:	0b002403 	bleq	9f78 <__bss_end__+0x500>
     f68:	030b3e0b 	movweq	r3, #48651	; 0xbe0b
     f6c:	0400000e 	streq	r0, [r0], #-14
     f70:	193f012e 	ldmdbne	pc!, {r1, r2, r3, r5, r8}	; <UNPREDICTABLE>
     f74:	0b3a0e03 	bleq	e84788 <__bss_end__+0xe7ad10>
     f78:	19270b3b 	stmdbne	r7!, {r0, r1, r3, r4, r5, r8, r9, fp}
     f7c:	06120111 			; <UNDEFINED> instruction: 0x06120111
     f80:	42971840 	addsmi	r1, r7, #64, 16	; 0x400000
     f84:	00130119 	andseq	r0, r3, r9, lsl r1
     f88:	00050500 	andeq	r0, r5, r0, lsl #10
     f8c:	0b3a0e03 	bleq	e847a0 <__bss_end__+0xe7ad28>
     f90:	13490b3b 	movtne	r0, #39739	; 0x9b3b
     f94:	00001702 	andeq	r1, r0, r2, lsl #14
     f98:	3f012e06 	svccc	0x00012e06
     f9c:	3a0e0319 	bcc	381c08 <__bss_end__+0x378190>
     fa0:	270b3b0b 	strcs	r3, [fp, -fp, lsl #22]
     fa4:	11134919 	tstne	r3, r9, lsl r9
     fa8:	40061201 	andmi	r1, r6, r1, lsl #4
     fac:	19429718 	stmdbne	r2, {r3, r4, r8, r9, sl, ip, pc}^
     fb0:	00001301 	andeq	r1, r0, r1, lsl #6
     fb4:	01828907 	orreq	r8, r2, r7, lsl #18
     fb8:	31011101 	tstcc	r1, r1, lsl #2
     fbc:	08000013 	stmdaeq	r0, {r0, r1, r4}
     fc0:	0001828a 	andeq	r8, r1, sl, lsl #5
     fc4:	42911802 	addsmi	r1, r1, #131072	; 0x20000
     fc8:	09000018 	stmdbeq	r0, {r3, r4}
     fcc:	08030034 	stmdaeq	r3, {r2, r4, r5}
     fd0:	0b3b0b3a 	bleq	ec3cc0 <__bss_end__+0xeba248>
     fd4:	17021349 	strne	r1, [r2, -r9, asr #6]
     fd8:	890a0000 	stmdbhi	sl, {}	; <UNPREDICTABLE>
     fdc:	11000182 	smlabbne	r0, r2, r1, r0
     fe0:	00133101 	andseq	r3, r3, r1, lsl #2
     fe4:	00050b00 	andeq	r0, r5, r0, lsl #22
     fe8:	0b3a0803 	bleq	e82ffc <__bss_end__+0xe79584>
     fec:	13490b3b 	movtne	r0, #39739	; 0x9b3b
     ff0:	00001702 	andeq	r1, r0, r2, lsl #14
     ff4:	0300340c 	movweq	r3, #1036	; 0x40c
     ff8:	3b0b3a08 	blcc	2cf820 <__bss_end__+0x2c5da8>
     ffc:	0213490b 	andseq	r4, r3, #180224	; 0x2c000
    1000:	0d000018 	stceq	0, cr0, [r0, #-96]	; 0xffffffa0
    1004:	0111010b 	tsteq	r1, fp, lsl #2
    1008:	13010612 	movwne	r0, #5650	; 0x1612
    100c:	2e0e0000 	cdpcs	0, 0, cr0, cr14, cr0, {0}
    1010:	03193f01 	tsteq	r9, #1, 30
    1014:	3b0b3a0e 	blcc	2cf854 <__bss_end__+0x2c5ddc>
    1018:	4919270b 	ldmdbmi	r9, {r0, r1, r3, r8, r9, sl, sp}
    101c:	01193c13 	tsteq	r9, r3, lsl ip
    1020:	0f000013 	svceq	0x00000013
    1024:	13490005 	movtne	r0, #36869	; 0x9005
    1028:	2e100000 	cdpcs	0, 1, cr0, cr0, cr0, {0}
    102c:	03193f00 	tsteq	r9, #0, 30
    1030:	3b0b3a0e 	blcc	2cf870 <__bss_end__+0x2c5df8>
    1034:	3c19270b 	ldccc	7, cr2, [r9], {11}
    1038:	00000019 	andeq	r0, r0, r9, lsl r0
    103c:	25011101 	strcs	r1, [r1, #-257]	; 0x101
    1040:	030b130e 	movweq	r1, #45838	; 0xb30e
    1044:	110e1b0e 	tstne	lr, lr, lsl #22
    1048:	10061201 	andne	r1, r6, r1, lsl #4
    104c:	02000017 	andeq	r0, r0, #23
    1050:	0b0b0024 	bleq	2c10e8 <__bss_end__+0x2b7670>
    1054:	08030b3e 	stmdaeq	r3, {r1, r2, r3, r4, r5, r8, r9, fp}
    1058:	24030000 	strcs	r0, [r3], #-0
    105c:	3e0b0b00 	vmlacc.f64	d0, d11, d0
    1060:	000e030b 	andeq	r0, lr, fp, lsl #6
    1064:	00350400 	eorseq	r0, r5, r0, lsl #8
    1068:	00001349 	andeq	r1, r0, r9, asr #6
    106c:	03001605 	movweq	r1, #1541	; 0x605
    1070:	3b0b3a0e 	blcc	2cf8b0 <__bss_end__+0x2c5e38>
    1074:	0013490b 	andseq	r4, r3, fp, lsl #18
    1078:	00160600 	andseq	r0, r6, r0, lsl #12
    107c:	0b3a0e03 	bleq	e84890 <__bss_end__+0xe7ae18>
    1080:	1349053b 	movtne	r0, #38203	; 0x953b
    1084:	17070000 	strne	r0, [r7, -r0]
    1088:	3a0b0b01 	bcc	2c3c94 <__bss_end__+0x2ba21c>
    108c:	010b3b0b 	tsteq	fp, fp, lsl #22
    1090:	08000013 	stmdaeq	r0, {r0, r1, r4}
    1094:	0e03000d 	cdpeq	0, 0, cr0, cr3, cr13, {0}
    1098:	0b3b0b3a 	bleq	ec3d88 <__bss_end__+0xeba310>
    109c:	00001349 	andeq	r1, r0, r9, asr #6
    10a0:	49010109 	stmdbmi	r1, {r0, r3, r8}
    10a4:	00130113 	andseq	r0, r3, r3, lsl r1
    10a8:	00210a00 	eoreq	r0, r1, r0, lsl #20
    10ac:	0b2f1349 	bleq	bc5dd8 <__bss_end__+0xbbc360>
    10b0:	130b0000 	movwne	r0, #45056	; 0xb000
    10b4:	3a0b0b01 	bcc	2c3cc0 <__bss_end__+0x2ba248>
    10b8:	010b3b0b 	tsteq	fp, fp, lsl #22
    10bc:	0c000013 	stceq	0, cr0, [r0], {19}
    10c0:	0e03000d 	cdpeq	0, 0, cr0, cr3, cr13, {0}
    10c4:	0b3b0b3a 	bleq	ec3db4 <__bss_end__+0xeba33c>
    10c8:	0b381349 	bleq	e05df4 <__bss_end__+0xdfc37c>
    10cc:	0f0d0000 	svceq	0x000d0000
    10d0:	000b0b00 	andeq	r0, fp, r0, lsl #22
    10d4:	000f0e00 	andeq	r0, pc, r0, lsl #28
    10d8:	13490b0b 	movtne	r0, #39691	; 0x9b0b
    10dc:	260f0000 	strcs	r0, [pc], -r0
    10e0:	00134900 	andseq	r4, r3, r0, lsl #18
    10e4:	01131000 	tsteq	r3, r0
    10e8:	0b0b0e03 	bleq	2c48fc <__bss_end__+0x2bae84>
    10ec:	0b3b0b3a 	bleq	ec3ddc <__bss_end__+0xeba364>
    10f0:	00001301 	andeq	r1, r0, r1, lsl #6
    10f4:	03000d11 	movweq	r0, #3345	; 0xd11
    10f8:	3b0b3a08 	blcc	2cf920 <__bss_end__+0x2c5ea8>
    10fc:	3813490b 	ldmdacc	r3, {r0, r1, r3, r8, fp, lr}
    1100:	1200000b 	andne	r0, r0, #11
    1104:	0e030113 	mcreq	1, 0, r0, cr3, cr3, {0}
    1108:	0b3a050b 	bleq	e8253c <__bss_end__+0xe78ac4>
    110c:	13010b3b 	movwne	r0, #6971	; 0x1b3b
    1110:	0d130000 	ldceq	0, cr0, [r3, #-0]
    1114:	3a0e0300 	bcc	381d1c <__bss_end__+0x3782a4>
    1118:	490b3b0b 	stmdbmi	fp, {r0, r1, r3, r8, r9, fp, ip, sp}
    111c:	00053813 	andeq	r3, r5, r3, lsl r8
    1120:	00151400 	andseq	r1, r5, r0, lsl #8
    1124:	00001927 	andeq	r1, r0, r7, lsr #18
    1128:	27011515 	smladcs	r1, r5, r5, r1
    112c:	01134919 	tsteq	r3, r9, lsl r9
    1130:	16000013 			; <UNDEFINED> instruction: 0x16000013
    1134:	13490005 	movtne	r0, #36869	; 0x9005
    1138:	13170000 	tstne	r7, #0
    113c:	0b0e0301 	bleq	381d48 <__bss_end__+0x3782d0>
    1140:	3b0b3a05 	blcc	2cf95c <__bss_end__+0x2c5ee4>
    1144:	00130105 	andseq	r0, r3, r5, lsl #2
    1148:	000d1800 	andeq	r1, sp, r0, lsl #16
    114c:	0b3a0e03 	bleq	e84960 <__bss_end__+0xe7aee8>
    1150:	1349053b 	movtne	r0, #38203	; 0x953b
    1154:	00000b38 	andeq	r0, r0, r8, lsr fp
    1158:	03000d19 	movweq	r0, #3353	; 0xd19
    115c:	3b0b3a0e 	blcc	2cf99c <__bss_end__+0x2c5f24>
    1160:	38134905 	ldmdacc	r3, {r0, r2, r8, fp, lr}
    1164:	1a000005 	bne	1180 <__code_start__-0x6e80>
    1168:	0e030113 	mcreq	1, 0, r0, cr3, cr3, {0}
    116c:	0b3a0b0b 	bleq	e83da0 <__bss_end__+0xe7a328>
    1170:	1301053b 	movwne	r0, #5435	; 0x153b
    1174:	131b0000 	tstne	fp, #0
    1178:	3a0b0b01 	bcc	2c3d84 <__bss_end__+0x2ba30c>
    117c:	01053b0b 	tsteq	r5, fp, lsl #22
    1180:	1c000013 	stcne	0, cr0, [r0], {19}
    1184:	0b0b0117 	bleq	2c15e8 <__bss_end__+0x2b7b70>
    1188:	053b0b3a 	ldreq	r0, [fp, #-2874]!	; 0xb3a
    118c:	00001301 	andeq	r1, r0, r1, lsl #6
    1190:	03000d1d 	movweq	r0, #3357	; 0xd1d
    1194:	3b0b3a0e 	blcc	2cf9d4 <__bss_end__+0x2c5f5c>
    1198:	00134905 	andseq	r4, r3, r5, lsl #18
    119c:	01151e00 	tsteq	r5, r0, lsl #28
    11a0:	13011927 	movwne	r1, #6439	; 0x1927
    11a4:	341f0000 	ldrcc	r0, [pc], #-0	; 11ac <__code_start__-0x6e54>
    11a8:	3a0e0300 	bcc	381db0 <__bss_end__+0x378338>
    11ac:	49053b0b 	stmdbmi	r5, {r0, r1, r3, r8, r9, fp, ip, sp}
    11b0:	3c193f13 	ldccc	15, cr3, [r9], {19}
    11b4:	20000019 	andcs	r0, r0, r9, lsl r0
    11b8:	0e030034 	mcreq	0, 0, r0, cr3, cr4, {1}
    11bc:	0b3b0b3a 	bleq	ec3eac <__bss_end__+0xeba434>
    11c0:	193f1349 	ldmdbne	pc!, {r0, r3, r6, r8, r9, ip}	; <UNPREDICTABLE>
    11c4:	0000193c 	andeq	r1, r0, ip, lsr r9
    11c8:	0b010421 	bleq	42254 <__bss_end__+0x387dc>
    11cc:	3a13490b 	bcc	4d3600 <__bss_end__+0x4c9b88>
    11d0:	010b3b0b 	tsteq	fp, fp, lsl #22
    11d4:	22000013 	andcs	r0, r0, #19
    11d8:	0e030028 	cdpeq	0, 0, cr0, cr3, cr8, {1}
    11dc:	00000b1c 	andeq	r0, r0, ip, lsl fp
    11e0:	03003423 	movweq	r3, #1059	; 0x423
    11e4:	3b0b3a0e 	blcc	2cfa24 <__bss_end__+0x2c5fac>
    11e8:	1c13490b 	ldcne	9, cr4, [r3], {11}
    11ec:	24000006 	strcs	r0, [r0], #-6
    11f0:	193f012e 	ldmdbne	pc!, {r1, r2, r3, r5, r8}	; <UNPREDICTABLE>
    11f4:	0b3a0e03 	bleq	e84a08 <__bss_end__+0xe7af90>
    11f8:	19270b3b 	stmdbne	r7!, {r0, r1, r3, r4, r5, r8, r9, fp}
    11fc:	01111349 	tsteq	r1, r9, asr #6
    1200:	18400612 	stmdane	r0, {r1, r4, r9, sl}^
    1204:	01194297 			; <UNDEFINED> instruction: 0x01194297
    1208:	25000013 	strcs	r0, [r0, #-19]
    120c:	00018289 	andeq	r8, r1, r9, lsl #5
    1210:	13310111 	teqne	r1, #1073741828	; 0x40000004
    1214:	2e260000 	cdpcs	0, 2, cr0, cr6, cr0, {0}
    1218:	03193f01 	tsteq	r9, #1, 30
    121c:	3b0b3a0e 	blcc	2cfa5c <__bss_end__+0x2c5fe4>
    1220:	1119270b 	tstne	r9, fp, lsl #14
    1224:	40061201 	andmi	r1, r6, r1, lsl #4
    1228:	19429718 	stmdbne	r2, {r3, r4, r8, r9, sl, ip, pc}^
    122c:	00001301 	andeq	r1, r0, r1, lsl #6
    1230:	03000527 	movweq	r0, #1319	; 0x527
    1234:	3b0b3a08 	blcc	2cfa5c <__bss_end__+0x2c5fe4>
    1238:	0213490b 	andseq	r4, r3, #180224	; 0x2c000
    123c:	28000017 	stmdacs	r0, {r0, r1, r2, r4}
    1240:	01018289 	smlabbeq	r1, r9, r2, r8
    1244:	13310111 	teqne	r1, #1073741828	; 0x40000004
    1248:	00001301 	andeq	r1, r0, r1, lsl #6
    124c:	01828a29 	orreq	r8, r2, r9, lsr #20
    1250:	91180200 	tstls	r8, r0, lsl #4
    1254:	00001842 	andeq	r1, r0, r2, asr #16
    1258:	0300342a 	movweq	r3, #1066	; 0x42a
    125c:	3b0b3a08 	blcc	2cfa84 <__bss_end__+0x2c600c>
    1260:	0213490b 	andseq	r4, r3, #180224	; 0x2c000
    1264:	2b000018 	blcs	12cc <__code_start__-0x6d34>
    1268:	01018289 	smlabbeq	r1, r9, r2, r8
    126c:	13310111 	teqne	r1, #1073741828	; 0x40000004
    1270:	2e2c0000 	cdpcs	0, 2, cr0, cr12, cr0, {0}
    1274:	3a0e0301 	bcc	381e80 <__bss_end__+0x378408>
    1278:	270b3b0b 	strcs	r3, [fp, -fp, lsl #22]
    127c:	12011119 	andne	r1, r1, #1073741830	; 0x40000006
    1280:	97184006 	ldrls	r4, [r8, -r6]
    1284:	13011942 	movwne	r1, #6466	; 0x1942
    1288:	052d0000 	streq	r0, [sp, #-0]!
    128c:	3a0e0300 	bcc	381e94 <__bss_end__+0x37841c>
    1290:	490b3b0b 	stmdbmi	fp, {r0, r1, r3, r8, r9, fp, ip, sp}
    1294:	00170213 	andseq	r0, r7, r3, lsl r2
    1298:	00352e00 	eorseq	r2, r5, r0, lsl #28
    129c:	2e2f0000 	cdpcs	0, 2, cr0, cr15, cr0, {0}
    12a0:	3c193f00 	ldccc	15, cr3, [r9], {-0}
    12a4:	030e6e19 	movweq	r6, #60953	; 0xee19
    12a8:	3b0b3a0e 	blcc	2cfae8 <__bss_end__+0x2c6070>
    12ac:	0000000b 	andeq	r0, r0, fp
    12b0:	25011101 	strcs	r1, [r1, #-257]	; 0x101
    12b4:	030b130e 	movweq	r1, #45838	; 0xb30e
    12b8:	110e1b0e 	tstne	lr, lr, lsl #22
    12bc:	10061201 	andne	r1, r6, r1, lsl #4
    12c0:	02000017 	andeq	r0, r0, #23
    12c4:	0b0b0024 	bleq	2c135c <__bss_end__+0x2b78e4>
    12c8:	08030b3e 	stmdaeq	r3, {r1, r2, r3, r4, r5, r8, r9, fp}
    12cc:	24030000 	strcs	r0, [r3], #-0
    12d0:	3e0b0b00 	vmlacc.f64	d0, d11, d0
    12d4:	000e030b 	andeq	r0, lr, fp, lsl #6
    12d8:	00260400 	eoreq	r0, r6, r0, lsl #8
    12dc:	00001349 	andeq	r1, r0, r9, asr #6
    12e0:	03001605 	movweq	r1, #1541	; 0x605
    12e4:	3b0b3a0e 	blcc	2cfb24 <__bss_end__+0x2c60ac>
    12e8:	0013490b 	andseq	r4, r3, fp, lsl #18
    12ec:	00160600 	andseq	r0, r6, r0, lsl #12
    12f0:	0b3a0e03 	bleq	e84b04 <__bss_end__+0xe7b08c>
    12f4:	1349053b 	movtne	r0, #38203	; 0x953b
    12f8:	17070000 	strne	r0, [r7, -r0]
    12fc:	3a0b0b01 	bcc	2c3f08 <__bss_end__+0x2ba490>
    1300:	010b3b0b 	tsteq	fp, fp, lsl #22
    1304:	08000013 	stmdaeq	r0, {r0, r1, r4}
    1308:	0e03000d 	cdpeq	0, 0, cr0, cr3, cr13, {0}
    130c:	0b3b0b3a 	bleq	ec3ffc <__bss_end__+0xeba584>
    1310:	00001349 	andeq	r1, r0, r9, asr #6
    1314:	49010109 	stmdbmi	r1, {r0, r3, r8}
    1318:	00130113 	andseq	r0, r3, r3, lsl r1
    131c:	00210a00 	eoreq	r0, r1, r0, lsl #20
    1320:	0b2f1349 	bleq	bc604c <__bss_end__+0xbbc5d4>
    1324:	130b0000 	movwne	r0, #45056	; 0xb000
    1328:	3a0b0b01 	bcc	2c3f34 <__bss_end__+0x2ba4bc>
    132c:	010b3b0b 	tsteq	fp, fp, lsl #22
    1330:	0c000013 	stceq	0, cr0, [r0], {19}
    1334:	0e03000d 	cdpeq	0, 0, cr0, cr3, cr13, {0}
    1338:	0b3b0b3a 	bleq	ec4028 <__bss_end__+0xeba5b0>
    133c:	0b381349 	bleq	e06068 <__bss_end__+0xdfc5f0>
    1340:	0f0d0000 	svceq	0x000d0000
    1344:	000b0b00 	andeq	r0, fp, r0, lsl #22
    1348:	000f0e00 	andeq	r0, pc, r0, lsl #28
    134c:	13490b0b 	movtne	r0, #39691	; 0x9b0b
    1350:	130f0000 	movwne	r0, #61440	; 0xf000
    1354:	0b0e0301 	bleq	381f60 <__bss_end__+0x3784e8>
    1358:	3b0b3a0b 	blcc	2cfb8c <__bss_end__+0x2c6114>
    135c:	0013010b 	andseq	r0, r3, fp, lsl #2
    1360:	000d1000 	andeq	r1, sp, r0
    1364:	0b3a0803 	bleq	e83378 <__bss_end__+0xe79900>
    1368:	13490b3b 	movtne	r0, #39739	; 0x9b3b
    136c:	00000b38 	andeq	r0, r0, r8, lsr fp
    1370:	03011311 	movweq	r1, #4881	; 0x1311
    1374:	3a050b0e 	bcc	143fb4 <__bss_end__+0x13a53c>
    1378:	010b3b0b 	tsteq	fp, fp, lsl #22
    137c:	12000013 	andne	r0, r0, #19
    1380:	0e03000d 	cdpeq	0, 0, cr0, cr3, cr13, {0}
    1384:	0b3b0b3a 	bleq	ec4074 <__bss_end__+0xeba5fc>
    1388:	05381349 	ldreq	r1, [r8, #-841]!	; 0x349
    138c:	15130000 	ldrne	r0, [r3, #-0]
    1390:	00192700 	andseq	r2, r9, r0, lsl #14
    1394:	01151400 	tsteq	r5, r0, lsl #8
    1398:	13491927 	movtne	r1, #39207	; 0x9927
    139c:	00001301 	andeq	r1, r0, r1, lsl #6
    13a0:	49000515 	stmdbmi	r0, {r0, r2, r4, r8, sl}
    13a4:	16000013 			; <UNDEFINED> instruction: 0x16000013
    13a8:	0e030113 	mcreq	1, 0, r0, cr3, cr3, {0}
    13ac:	0b3a050b 	bleq	e827e0 <__bss_end__+0xe78d68>
    13b0:	1301053b 	movwne	r0, #5435	; 0x153b
    13b4:	0d170000 	ldceq	0, cr0, [r7, #-0]
    13b8:	3a0e0300 	bcc	381fc0 <__bss_end__+0x378548>
    13bc:	49053b0b 	stmdbmi	r5, {r0, r1, r3, r8, r9, fp, ip, sp}
    13c0:	000b3813 	andeq	r3, fp, r3, lsl r8
    13c4:	000d1800 	andeq	r1, sp, r0, lsl #16
    13c8:	0b3a0e03 	bleq	e84bdc <__bss_end__+0xe7b164>
    13cc:	1349053b 	movtne	r0, #38203	; 0x953b
    13d0:	00000538 	andeq	r0, r0, r8, lsr r5
    13d4:	03011319 	movweq	r1, #4889	; 0x1319
    13d8:	3a0b0b0e 	bcc	2c4018 <__bss_end__+0x2ba5a0>
    13dc:	01053b0b 	tsteq	r5, fp, lsl #22
    13e0:	1a000013 	bne	1434 <__code_start__-0x6bcc>
    13e4:	0b0b0113 	bleq	2c1838 <__bss_end__+0x2b7dc0>
    13e8:	053b0b3a 	ldreq	r0, [fp, #-2874]!	; 0xb3a
    13ec:	00001301 	andeq	r1, r0, r1, lsl #6
    13f0:	0b01171b 	bleq	47064 <__bss_end__+0x3d5ec>
    13f4:	3b0b3a0b 	blcc	2cfc28 <__bss_end__+0x2c61b0>
    13f8:	00130105 	andseq	r0, r3, r5, lsl #2
    13fc:	000d1c00 	andeq	r1, sp, r0, lsl #24
    1400:	0b3a0e03 	bleq	e84c14 <__bss_end__+0xe7b19c>
    1404:	1349053b 	movtne	r0, #38203	; 0x953b
    1408:	151d0000 	ldrne	r0, [sp, #-0]
    140c:	01192701 	tsteq	r9, r1, lsl #14
    1410:	1e000013 	mcrne	0, 0, r0, cr0, cr3, {0}
    1414:	0e030034 	mcreq	0, 0, r0, cr3, cr4, {1}
    1418:	053b0b3a 	ldreq	r0, [fp, #-2874]!	; 0xb3a
    141c:	193f1349 	ldmdbne	pc!, {r0, r3, r6, r8, r9, ip}	; <UNPREDICTABLE>
    1420:	0000193c 	andeq	r1, r0, ip, lsr r9
    1424:	0300341f 	movweq	r3, #1055	; 0x41f
    1428:	3b0b3a0e 	blcc	2cfc68 <__bss_end__+0x2c61f0>
    142c:	3f13490b 	svccc	0x0013490b
    1430:	00193c19 	andseq	r3, r9, r9, lsl ip
    1434:	01042000 	mrseq	r2, (UNDEF: 4)
    1438:	13490b0b 	movtne	r0, #39691	; 0x9b0b
    143c:	0b3b0b3a 	bleq	ec412c <__bss_end__+0xeba6b4>
    1440:	00001301 	andeq	r1, r0, r1, lsl #6
    1444:	03002821 	movweq	r2, #2081	; 0x821
    1448:	000b1c0e 	andeq	r1, fp, lr, lsl #24
    144c:	00342200 	eorseq	r2, r4, r0, lsl #4
    1450:	0b3a0e03 	bleq	e84c64 <__bss_end__+0xe7b1ec>
    1454:	13490b3b 	movtne	r0, #39739	; 0x9b3b
    1458:	0000061c 	andeq	r0, r0, ip, lsl r6
    145c:	3f012e23 	svccc	0x00012e23
    1460:	3a0e0319 	bcc	3820cc <__bss_end__+0x378654>
    1464:	270b3b0b 	strcs	r3, [fp, -fp, lsl #22]
    1468:	11134919 	tstne	r3, r9, lsl r9
    146c:	40061201 	andmi	r1, r6, r1, lsl #4
    1470:	19429718 	stmdbne	r2, {r3, r4, r8, r9, sl, ip, pc}^
    1474:	00001301 	andeq	r1, r0, r1, lsl #6
    1478:	03000524 	movweq	r0, #1316	; 0x524
    147c:	3b0b3a08 	blcc	2cfca4 <__bss_end__+0x2c622c>
    1480:	0213490b 	andseq	r4, r3, #180224	; 0x2c000
    1484:	25000017 	strcs	r0, [r0, #-23]
    1488:	0e030034 	mcreq	0, 0, r0, cr3, cr4, {1}
    148c:	0b3b0b3a 	bleq	ec417c <__bss_end__+0xeba704>
    1490:	17021349 	strne	r1, [r2, -r9, asr #6]
    1494:	34260000 	strtcc	r0, [r6], #-0
    1498:	3a080300 	bcc	2020a0 <__bss_end__+0x1f8628>
    149c:	490b3b0b 	stmdbmi	fp, {r0, r1, r3, r8, r9, fp, ip, sp}
    14a0:	00170213 	andseq	r0, r7, r3, lsl r2
    14a4:	82892700 	addhi	r2, r9, #0, 14
    14a8:	01110101 	tsteq	r1, r1, lsl #2
    14ac:	00001331 	andeq	r1, r0, r1, lsr r3
    14b0:	01828a28 	orreq	r8, r2, r8, lsr #20
    14b4:	91180200 	tstls	r8, r0, lsl #4
    14b8:	00001842 	andeq	r1, r0, r2, asr #16
    14bc:	3f012e29 	svccc	0x00012e29
    14c0:	3a0e0319 	bcc	38212c <__bss_end__+0x3786b4>
    14c4:	270b3b0b 	strcs	r3, [fp, -fp, lsl #22]
    14c8:	12011119 	andne	r1, r1, #1073741830	; 0x40000006
    14cc:	97184006 	ldrls	r4, [r8, -r6]
    14d0:	13011942 	movwne	r1, #6466	; 0x1942
    14d4:	892a0000 	stmdbhi	sl!, {}	; <UNPREDICTABLE>
    14d8:	11010182 	smlabbne	r1, r2, r1, r0
    14dc:	01133101 	tsteq	r3, r1, lsl #2
    14e0:	2b000013 	blcs	1534 <__code_start__-0x6acc>
    14e4:	00018289 	andeq	r8, r1, r9, lsl #5
    14e8:	13310111 	teqne	r1, #1073741828	; 0x40000004
    14ec:	052c0000 	streq	r0, [ip, #-0]!
    14f0:	3a0e0300 	bcc	3820f8 <__bss_end__+0x378680>
    14f4:	490b3b0b 	stmdbmi	fp, {r0, r1, r3, r8, r9, fp, ip, sp}
    14f8:	00170213 	andseq	r0, r7, r3, lsl r2
    14fc:	00342d00 	eorseq	r2, r4, r0, lsl #26
    1500:	0b3a0803 	bleq	e83514 <__bss_end__+0xe79a9c>
    1504:	13490b3b 	movtne	r0, #39739	; 0x9b3b
    1508:	00001802 	andeq	r1, r0, r2, lsl #16
    150c:	3f002e2e 	svccc	0x00002e2e
    1510:	6e193c19 	mrcvs	12, 0, r3, cr9, cr9, {0}
    1514:	3a0e030e 	bcc	382154 <__bss_end__+0x3786dc>
    1518:	000b3b0b 	andeq	r3, fp, fp, lsl #22
	...

Disassembly of section .debug_loc:

00000000 <.debug_loc>:
   0:	00000000 	andeq	r0, r0, r0
   4:	00000010 	andeq	r0, r0, r0, lsl r0
   8:	10500001 	subsne	r0, r0, r1
   c:	a4000000 	strge	r0, [r0], #-0
  10:	04000000 	streq	r0, [r0], #-0
  14:	5001f300 	andpl	pc, r1, r0, lsl #6
  18:	0000009f 	muleq	r0, pc, r0	; <UNPREDICTABLE>
	...
  24:	00001300 	andeq	r1, r0, r0, lsl #6
  28:	51000100 	mrspl	r0, (UNDEF: 16)
  2c:	00000013 	andeq	r0, r0, r3, lsl r0
  30:	000000a4 	andeq	r0, r0, r4, lsr #1
  34:	00540001 	subseq	r0, r4, r1
	...
  40:	13000000 	movwne	r0, #0
  44:	01000000 	mrseq	r0, (UNDEF: 0)
  48:	00135200 	andseq	r5, r3, r0, lsl #4
  4c:	00a40000 	adceq	r0, r4, r0
  50:	00040000 	andeq	r0, r4, r0
  54:	9f5201f3 	svcls	0x005201f3
	...
  60:	00000018 	andeq	r0, r0, r8, lsl r0
  64:	0000001c 	andeq	r0, r0, ip, lsl r0
  68:	00530001 	subseq	r0, r3, r1
	...
  74:	23000000 	movwcs	r0, #0
  78:	01000000 	mrseq	r0, (UNDEF: 0)
  7c:	00235000 	eoreq	r5, r3, r0
  80:	00440000 	subeq	r0, r4, r0
  84:	00040000 	andeq	r0, r4, r0
  88:	9f5001f3 	svcls	0x005001f3
  8c:	00000044 	andeq	r0, r0, r4, asr #32
  90:	0000005f 	andeq	r0, r0, pc, asr r0
  94:	5f500001 	svcpl	0x00500001
  98:	80000000 	andhi	r0, r0, r0
  9c:	04000000 	streq	r0, [r0], #-0
  a0:	5001f300 	andpl	pc, r1, r0, lsl #6
  a4:	0000809f 	muleq	r0, pc, r0	; <UNPREDICTABLE>
  a8:	0000b000 	andeq	fp, r0, r0
  ac:	50000100 	andpl	r0, r0, r0, lsl #2
	...
  bc:	00000023 	andeq	r0, r0, r3, lsr #32
  c0:	23510001 	cmpcs	r1, #1
  c4:	44000000 	strmi	r0, [r0], #-0
  c8:	04000000 	streq	r0, [r0], #-0
  cc:	5101f300 	mrspl	pc, SP_irq	; <UNPREDICTABLE>
  d0:	0000449f 	muleq	r0, pc, r4	; <UNPREDICTABLE>
  d4:	00005f00 	andeq	r5, r0, r0, lsl #30
  d8:	51000100 	mrspl	r0, (UNDEF: 16)
  dc:	0000005f 	andeq	r0, r0, pc, asr r0
  e0:	00000080 	andeq	r0, r0, r0, lsl #1
  e4:	01f30004 	mvnseq	r0, r4
  e8:	00809f51 	addeq	r9, r0, r1, asr pc
  ec:	00b00000 	adcseq	r0, r0, r0
  f0:	00010000 	andeq	r0, r1, r0
  f4:	00000051 	andeq	r0, r0, r1, asr r0
  f8:	00000000 	andeq	r0, r0, r0
  fc:	00001000 	andeq	r1, r0, r0
 100:	00002300 	andeq	r2, r0, r0, lsl #6
 104:	53000100 	movwpl	r0, #256	; 0x100
 108:	00000044 	andeq	r0, r0, r4, asr #32
 10c:	00000048 	andeq	r0, r0, r8, asr #32
 110:	48530001 	ldmdami	r3, {r0}^
 114:	b0000000 	andlt	r0, r0, r0
 118:	04000000 	streq	r0, [r0], #-0
 11c:	01ff0a00 	mvnseq	r0, r0, lsl #20
 120:	0000009f 	muleq	r0, pc, r0	; <UNPREDICTABLE>
 124:	00000000 	andeq	r0, r0, r0
 128:	00004400 	andeq	r4, r0, r0, lsl #8
 12c:	00005f00 	andeq	r5, r0, r0, lsl #30
 130:	50000100 	andpl	r0, r0, r0, lsl #2
 134:	0000005f 	andeq	r0, r0, pc, asr r0
 138:	00000080 	andeq	r0, r0, r0, lsl #1
 13c:	01f30004 	mvnseq	r0, r4
 140:	00809f50 	addeq	r9, r0, r0, asr pc
 144:	00b00000 	adcseq	r0, r0, r0
 148:	00010000 	andeq	r0, r1, r0
 14c:	00000050 	andeq	r0, r0, r0, asr r0
 150:	00000000 	andeq	r0, r0, r0
 154:	00000c00 	andeq	r0, r0, r0, lsl #24
 158:	00001000 	andeq	r1, r0, r0
 15c:	53000100 	movwpl	r0, #256	; 0x100
	...
 168:	00000010 	andeq	r0, r0, r0, lsl r0
 16c:	00000023 	andeq	r0, r0, r3, lsr #32
 170:	44530001 	ldrbmi	r0, [r3], #-1
 174:	4c000000 	stcmi	0, cr0, [r0], {-0}
 178:	01000000 	mrseq	r0, (UNDEF: 0)
 17c:	00005300 	andeq	r5, r0, r0, lsl #6
 180:	00000000 	andeq	r0, r0, r0
 184:	00180000 	andseq	r0, r8, r0
 188:	00230000 	eoreq	r0, r3, r0
 18c:	00010000 	andeq	r0, r1, r0
 190:	00004452 	andeq	r4, r0, r2, asr r4
 194:	00005400 	andeq	r5, r0, r0, lsl #8
 198:	52000100 	andpl	r0, r0, #0, 2
	...
 1a4:	00000054 	andeq	r0, r0, r4, asr r0
 1a8:	0000005f 	andeq	r0, r0, pc, asr r0
 1ac:	80520001 	subshi	r0, r2, r1
 1b0:	b0000000 	andlt	r0, r0, r0
 1b4:	01000000 	mrseq	r0, (UNDEF: 0)
 1b8:	00005200 	andeq	r5, r0, r0, lsl #4
 1bc:	00000000 	andeq	r0, r0, r0
 1c0:	00b00000 	adcseq	r0, r0, r0
 1c4:	00d00000 	sbcseq	r0, r0, r0
 1c8:	00010000 	andeq	r0, r1, r0
 1cc:	0000d050 	andeq	sp, r0, r0, asr r0
 1d0:	0001d000 	andeq	sp, r1, r0
 1d4:	54000100 	strpl	r0, [r0], #-256	; 0x100
 1d8:	000001d0 	ldrdeq	r0, [r0], -r0	; <UNPREDICTABLE>
 1dc:	0000020c 	andeq	r0, r0, ip, lsl #4
 1e0:	01f30004 	mvnseq	r0, r4
 1e4:	00009f50 	andeq	r9, r0, r0, asr pc
 1e8:	00000000 	andeq	r0, r0, r0
 1ec:	00dc0000 	sbcseq	r0, ip, r0
 1f0:	00eb0000 	rsceq	r0, fp, r0
 1f4:	00010000 	andeq	r0, r1, r0
 1f8:	0000f053 	andeq	pc, r0, r3, asr r0	; <UNPREDICTABLE>
 1fc:	0000f700 	andeq	pc, r0, r0, lsl #14
 200:	53000100 	movwpl	r0, #256	; 0x100
	...
 20c:	000000fc 	strdeq	r0, [r0], -ip
 210:	00000100 	andeq	r0, r0, r0, lsl #2
 214:	00530001 	subseq	r0, r3, r1
 218:	00000000 	andeq	r0, r0, r0
 21c:	3c000000 	stccc	0, cr0, [r0], {-0}
 220:	40000001 	andmi	r0, r0, r1
 224:	01000001 	tsteq	r0, r1
 228:	01405300 	mrseq	r5, SPSR_irq
 22c:	014b0000 	mrseq	r0, (UNDEF: 75)
 230:	00030000 	andeq	r0, r3, r0
 234:	6c9f0473 	cfldrsvs	mvf0, [pc], {115}	; 0x73
 238:	70000001 	andvc	r0, r0, r1
 23c:	03000001 	movweq	r0, #1
 240:	9f047300 	svcls	0x00047300
	...
 24c:	00000250 	andeq	r0, r0, r0, asr r2
 250:	00000258 	andeq	r0, r0, r8, asr r2
 254:	58530001 	ldmdapl	r3, {r0}^
 258:	7c000002 	stcvc	0, cr0, [r0], {2}
 25c:	04000002 	streq	r0, [r0], #-2
 260:	01e70a00 	mvneq	r0, r0, lsl #20
 264:	0000009f 	muleq	r0, pc, r0	; <UNPREDICTABLE>
 268:	00000000 	andeq	r0, r0, r0
 26c:	00024c00 	andeq	r4, r2, r0, lsl #24
 270:	00025000 	andeq	r5, r2, r0
 274:	53000100 	movwpl	r0, #256	; 0x100
	...
 280:	00000250 	andeq	r0, r0, r0, asr r2
 284:	0000025c 	andeq	r0, r0, ip, asr r2
 288:	00530001 	subseq	r0, r3, r1
 28c:	00000000 	andeq	r0, r0, r0
 290:	7c000000 	stcvc	0, cr0, [r0], {-0}
 294:	8c000002 	stchi	0, cr0, [r0], {2}
 298:	01000002 	tsteq	r0, r2
 29c:	028c5000 	addeq	r5, ip, #0
 2a0:	03200000 	teqeq	r0, #0
 2a4:	00010000 	andeq	r0, r1, r0
 2a8:	00032054 	andeq	r2, r3, r4, asr r0
 2ac:	00034000 	andeq	r4, r3, r0
 2b0:	f3000400 	vshl.u8	d0, d0, d0
 2b4:	009f5001 	addseq	r5, pc, r1
 2b8:	00000000 	andeq	r0, r0, r0
 2bc:	98000000 	stmdals	r0, {}	; <UNPREDICTABLE>
 2c0:	9c000002 	stcls	0, cr0, [r0], {2}
 2c4:	01000002 	tsteq	r0, r2
 2c8:	00005300 	andeq	r5, r0, r0, lsl #6
 2cc:	00000000 	andeq	r0, r0, r0
 2d0:	002c0000 	eoreq	r0, ip, r0
 2d4:	00380000 	eorseq	r0, r8, r0
 2d8:	00010000 	andeq	r0, r1, r0
 2dc:	00003850 	andeq	r3, r0, r0, asr r8
 2e0:	00004800 	andeq	r4, r0, r0, lsl #16
 2e4:	55000100 	strpl	r0, [r0, #-256]	; 0x100
 2e8:	00000048 	andeq	r0, r0, r8, asr #32
 2ec:	00000058 	andeq	r0, r0, r8, asr r0
 2f0:	00500001 	subseq	r0, r0, r1
	...
 2fc:	0b000000 	bleq	304 <__code_start__-0x7cfc>
 300:	01000000 	mrseq	r0, (UNDEF: 0)
 304:	000b5000 	andeq	r5, fp, r0
 308:	00140000 	andseq	r0, r4, r0
 30c:	00010000 	andeq	r0, r1, r0
 310:	00000054 	andeq	r0, r0, r4, asr r0
	...
 31c:	00001000 	andeq	r1, r0, r0
 320:	50000100 	andpl	r0, r0, r0, lsl #2
 324:	00000010 	andeq	r0, r0, r0, lsl r0
 328:	00000034 	andeq	r0, r0, r4, lsr r0
 32c:	00540001 	subseq	r0, r4, r1
	...
 338:	04000000 	streq	r0, [r0], #-0
 33c:	01000000 	mrseq	r0, (UNDEF: 0)
 340:	00045000 	andeq	r5, r4, r0
 344:	000c0000 	andeq	r0, ip, r0
 348:	00030000 	andeq	r0, r3, r0
 34c:	0c9f3070 	ldceq	0, cr3, [pc], {112}	; 0x70
 350:	14000000 	strne	r0, [r0], #-0
 354:	04000000 	streq	r0, [r0], #-0
 358:	5001f300 	andpl	pc, r1, r0, lsl #6
 35c:	0000009f 	muleq	r0, pc, r0	; <UNPREDICTABLE>
 360:	00000000 	andeq	r0, r0, r0
 364:	00001400 	andeq	r1, r0, r0, lsl #8
 368:	00002000 	andeq	r2, r0, r0
 36c:	50000100 	andpl	r0, r0, r0, lsl #2
 370:	00000020 	andeq	r0, r0, r0, lsr #32
 374:	0000002c 	andeq	r0, r0, ip, lsr #32
 378:	01700003 	cmneq	r0, r3
 37c:	00002c9f 	muleq	r0, pc, ip	; <UNPREDICTABLE>
 380:	00004000 	andeq	r4, r0, r0
 384:	50000100 	andpl	r0, r0, r0, lsl #2
	...
 390:	00000014 	andeq	r0, r0, r4, lsl r0
 394:	00000018 	andeq	r0, r0, r8, lsl r0
 398:	18510001 	ldmdane	r1, {r0}^
 39c:	40000000 	andmi	r0, r0, r0
 3a0:	04000000 	streq	r0, [r0], #-0
 3a4:	5101f300 	mrspl	pc, SP_irq	; <UNPREDICTABLE>
 3a8:	0000009f 	muleq	r0, pc, r0	; <UNPREDICTABLE>
 3ac:	00000000 	andeq	r0, r0, r0
 3b0:	00004000 	andeq	r4, r0, r0
 3b4:	00006000 	andeq	r6, r0, r0
 3b8:	50000100 	andpl	r0, r0, r0, lsl #2
 3bc:	00000060 	andeq	r0, r0, r0, rrx
 3c0:	0000006c 	andeq	r0, r0, ip, rrx
 3c4:	01710003 	cmneq	r1, r3
 3c8:	00006c9f 	muleq	r0, pc, ip	; <UNPREDICTABLE>
 3cc:	00007400 	andeq	r7, r0, r0, lsl #8
 3d0:	51000100 	mrspl	r0, (UNDEF: 16)
 3d4:	00000074 	andeq	r0, r0, r4, ror r0
 3d8:	00000080 	andeq	r0, r0, r0, lsl #1
 3dc:	01710003 	cmneq	r1, r3
 3e0:	0000009f 	muleq	r0, pc, r0	; <UNPREDICTABLE>
 3e4:	00000000 	andeq	r0, r0, r0
 3e8:	00004000 	andeq	r4, r0, r0
 3ec:	00005000 	andeq	r5, r0, r0
 3f0:	51000100 	mrspl	r0, (UNDEF: 16)
 3f4:	00000050 	andeq	r0, r0, r0, asr r0
 3f8:	00000080 	andeq	r0, r0, r0, lsl #1
 3fc:	01f30004 	mvnseq	r0, r4
 400:	00009f51 	andeq	r9, r0, r1, asr pc
 404:	00000000 	andeq	r0, r0, r0
 408:	00400000 	subeq	r0, r0, r0
 40c:	00580000 	subseq	r0, r8, r0
 410:	00010000 	andeq	r0, r1, r0
 414:	00005852 	andeq	r5, r0, r2, asr r8
 418:	00006400 	andeq	r6, r0, r0, lsl #8
 41c:	52000100 	andpl	r0, r0, #0, 2
 420:	00000064 	andeq	r0, r0, r4, rrx
 424:	00000068 	andeq	r0, r0, r8, rrx
 428:	01720003 	cmneq	r2, r3
 42c:	0000689f 	muleq	r0, pc, r8	; <UNPREDICTABLE>
 430:	00008000 	andeq	r8, r0, r0
 434:	52000100 	andpl	r0, r0, #0, 2
	...
 440:	00000040 	andeq	r0, r0, r0, asr #32
 444:	00000054 	andeq	r0, r0, r4, asr r0
 448:	54530001 	ldrbpl	r0, [r3], #-1
 44c:	78000000 	stmdavc	r0, {}	; <UNPREDICTABLE>
 450:	01000000 	mrseq	r0, (UNDEF: 0)
 454:	00005300 	andeq	r5, r0, r0, lsl #6
 458:	00000000 	andeq	r0, r0, r0
 45c:	00480000 	subeq	r0, r8, r0
 460:	00600000 	rsbeq	r0, r0, r0
 464:	00010000 	andeq	r0, r1, r0
 468:	0000605c 	andeq	r6, r0, ip, asr r0
 46c:	00008000 	andeq	r8, r0, r0
 470:	f3000a00 	vpmax.u8	d0, d0, d0
 474:	01f35201 	mvnseq	r5, r1, lsl #4
 478:	01231c53 	teqeq	r3, r3, asr ip
 47c:	0000009f 	muleq	r0, pc, r0	; <UNPREDICTABLE>
 480:	00000000 	andeq	r0, r0, r0
 484:	00008000 	andeq	r8, r0, r0
 488:	0000a400 	andeq	sl, r0, r0, lsl #8
 48c:	50000100 	andpl	r0, r0, r0, lsl #2
 490:	000000a4 	andeq	r0, r0, r4, lsr #1
 494:	00000118 	andeq	r0, r0, r8, lsl r1
 498:	02700003 	rsbseq	r0, r0, #3
 49c:	0001189f 	muleq	r1, pc, r8	; <UNPREDICTABLE>
 4a0:	00023c00 	andeq	r3, r2, r0, lsl #24
 4a4:	f3000400 	vshl.u8	d0, d0, d0
 4a8:	009f5001 	addseq	r5, pc, r1
 4ac:	00000000 	andeq	r0, r0, r0
 4b0:	80000000 	andhi	r0, r0, r0
 4b4:	f0000000 			; <UNDEFINED> instruction: 0xf0000000
 4b8:	01000000 	mrseq	r0, (UNDEF: 0)
 4bc:	00f05100 	rscseq	r5, r0, r0, lsl #2
 4c0:	01600000 	cmneq	r0, r0
 4c4:	00010000 	andeq	r0, r1, r0
 4c8:	00016055 	andeq	r6, r1, r5, asr r0
 4cc:	00016c00 	andeq	r6, r1, r0, lsl #24
 4d0:	51000100 	mrspl	r0, (UNDEF: 16)
 4d4:	0000016c 	andeq	r0, r0, ip, ror #2
 4d8:	000001a0 	andeq	r0, r0, r0, lsr #3
 4dc:	a0550001 	subsge	r0, r5, r1
 4e0:	b4000001 	strlt	r0, [r0], #-1
 4e4:	01000001 	tsteq	r0, r1
 4e8:	01b45100 			; <UNDEFINED> instruction: 0x01b45100
 4ec:	01d40000 	bicseq	r0, r4, r0
 4f0:	00010000 	andeq	r0, r1, r0
 4f4:	0001d455 	andeq	sp, r1, r5, asr r4
 4f8:	0001d700 	andeq	sp, r1, r0, lsl #14
 4fc:	51000100 	mrspl	r0, (UNDEF: 16)
 500:	000001d7 	ldrdeq	r0, [r0], -r7
 504:	0000021c 	andeq	r0, r0, ip, lsl r2
 508:	1c550001 	mrrcne	0, 0, r0, r5, cr1
 50c:	3c000002 	stccc	0, cr0, [r0], {2}
 510:	04000002 	streq	r0, [r0], #-2
 514:	5101f300 	mrspl	pc, SP_irq	; <UNPREDICTABLE>
 518:	0000009f 	muleq	r0, pc, r0	; <UNPREDICTABLE>
 51c:	00000000 	andeq	r0, r0, r0
 520:	00008000 	andeq	r8, r0, r0
 524:	00009400 	andeq	r9, r0, r0, lsl #8
 528:	52000100 	andpl	r0, r0, #0, 2
 52c:	00000094 	muleq	r0, r4, r0
 530:	0000021c 	andeq	r0, r0, ip, lsl r2
 534:	1c540001 	mrrcne	0, 0, r0, r4, cr1
 538:	3c000002 	stccc	0, cr0, [r0], {2}
 53c:	04000002 	streq	r0, [r0], #-2
 540:	5201f300 	andpl	pc, r1, #0, 6
 544:	0000009f 	muleq	r0, pc, r0	; <UNPREDICTABLE>
 548:	00000000 	andeq	r0, r0, r0
 54c:	00008000 	andeq	r8, r0, r0
 550:	00010000 	andeq	r0, r1, r0
 554:	53000100 	movwpl	r0, #256	; 0x100
 558:	00000104 	andeq	r0, r0, r4, lsl #2
 55c:	00000108 	andeq	r0, r0, r8, lsl #2
 560:	60530001 	subsvs	r0, r3, r1
 564:	64000001 	strvs	r0, [r0], #-1
 568:	01000001 	tsteq	r0, r1
 56c:	01645300 	cmneq	r4, r0, lsl #6
 570:	016c0000 	cmneq	ip, r0
 574:	00010000 	andeq	r0, r1, r0
 578:	00016c5c 	andeq	r6, r1, ip, asr ip
 57c:	0001a000 	andeq	sl, r1, r0
 580:	f3000400 	vshl.u8	d0, d0, d0
 584:	a09f5301 	addsge	r5, pc, r1, lsl #6
 588:	b0000001 	andlt	r0, r0, r1
 58c:	01000001 	tsteq	r0, r1
 590:	01b05300 	lslseq	r5, r0, #6
 594:	01b40000 			; <UNDEFINED> instruction: 0x01b40000
 598:	00010000 	andeq	r0, r1, r0
 59c:	0001b45c 	andeq	fp, r1, ip, asr r4
 5a0:	0001d400 	andeq	sp, r1, r0, lsl #8
 5a4:	f3000400 	vshl.u8	d0, d0, d0
 5a8:	d49f5301 	ldrle	r5, [pc], #769	; 5b0 <__code_start__-0x7a50>
 5ac:	d7000001 	strle	r0, [r0, -r1]
 5b0:	01000001 	tsteq	r0, r1
 5b4:	01d75300 	bicseq	r5, r7, r0, lsl #6
 5b8:	01f80000 	mvnseq	r0, r0
 5bc:	00040000 	andeq	r0, r4, r0
 5c0:	9f5301f3 	svcls	0x005301f3
	...
 5cc:	00000080 	andeq	r0, r0, r0, lsl #1
 5d0:	0000009c 	muleq	r0, ip, r0
 5d4:	00910002 	addseq	r0, r1, r2
 5d8:	0000009c 	muleq	r0, ip, r0
 5dc:	000001d7 	ldrdeq	r0, [r0], -r7
 5e0:	f8520001 			; <UNDEFINED> instruction: 0xf8520001
 5e4:	ff000001 			; <UNDEFINED> instruction: 0xff000001
 5e8:	01000001 	tsteq	r0, r1
 5ec:	00005200 	andeq	r5, r0, r0, lsl #4
 5f0:	00000000 	andeq	r0, r0, r0
 5f4:	009c0000 	addseq	r0, ip, r0
 5f8:	010c0000 	mrseq	r0, (UNDEF: 12)
 5fc:	00040000 	andeq	r0, r4, r0
 600:	9f7fa091 	svcls	0x007fa091
 604:	0000010c 	andeq	r0, r0, ip, lsl #2
 608:	00000118 	andeq	r0, r0, r8, lsl r1
 60c:	18510001 	ldmdane	r1, {r0}^
 610:	1c000001 	stcne	0, cr0, [r0], {1}
 614:	01000001 	tsteq	r0, r1
 618:	011c5000 	tsteq	ip, r0
 61c:	01200000 	teqeq	r0, r0
 620:	00010000 	andeq	r0, r1, r0
 624:	00012051 	andeq	r2, r1, r1, asr r0
 628:	00016000 	andeq	r6, r1, r0
 62c:	50000100 	andpl	r0, r0, r0, lsl #2
 630:	00000160 	andeq	r0, r0, r0, ror #2
 634:	00000164 	andeq	r0, r0, r4, ror #2
 638:	a0910004 	addsge	r0, r1, r4
 63c:	01649f7f 	smceq	18943	; 0x49ff
 640:	016c0000 	cmneq	ip, r0
 644:	00010000 	andeq	r0, r1, r0
 648:	00016c53 	andeq	r6, r1, r3, asr ip
 64c:	00017000 	andeq	r7, r1, r0
 650:	50000100 	andpl	r0, r0, r0, lsl #2
 654:	00000170 	andeq	r0, r0, r0, ror r1
 658:	00000174 	andeq	r0, r0, r4, ror r1
 65c:	74530001 	ldrbvc	r0, [r3], #-1
 660:	88000001 	stmdahi	r0, {r0}
 664:	01000001 	tsteq	r0, r1
 668:	01885000 	orreq	r5, r8, r0
 66c:	01940000 	orrseq	r0, r4, r0
 670:	00030000 	andeq	r0, r3, r0
 674:	949f0170 	ldrls	r0, [pc], #368	; 67c <__code_start__-0x7984>
 678:	a0000001 	andge	r0, r0, r1
 67c:	01000001 	tsteq	r0, r1
 680:	01a05000 	moveq	r5, r0
 684:	01a80000 			; <UNDEFINED> instruction: 0x01a80000
 688:	00040000 	andeq	r0, r4, r0
 68c:	9f7fa191 	svcls	0x007fa191
 690:	000001a8 	andeq	r0, r0, r8, lsr #3
 694:	000001ac 	andeq	r0, r0, ip, lsr #3
 698:	ac500001 	mrrcge	0, 0, r0, r0, cr1	; <UNPREDICTABLE>
 69c:	b0000001 	andlt	r0, r0, r1
 6a0:	04000001 	streq	r0, [r0], #-1
 6a4:	7fa09100 	svcvc	0x00a09100
 6a8:	0001b09f 	muleq	r1, pc, r0	; <UNPREDICTABLE>
 6ac:	0001b800 	andeq	fp, r1, r0, lsl #16
 6b0:	53000100 	movwpl	r0, #256	; 0x100
 6b4:	000001b8 			; <UNDEFINED> instruction: 0x000001b8
 6b8:	000001d4 	ldrdeq	r0, [r0], -r4
 6bc:	d4500001 	ldrble	r0, [r0], #-1
 6c0:	f8000001 			; <UNDEFINED> instruction: 0xf8000001
 6c4:	04000001 	streq	r0, [r0], #-1
 6c8:	7fa09100 	svcvc	0x00a09100
 6cc:	0001f89f 	muleq	r1, pc, r8	; <UNPREDICTABLE>
 6d0:	0001ff00 	andeq	pc, r1, r0, lsl #30
 6d4:	50000100 	andpl	r0, r0, r0, lsl #2
	...
 6e0:	000000a0 	andeq	r0, r0, r0, lsr #1
 6e4:	000000ec 	andeq	r0, r0, ip, ror #1
 6e8:	ec5c0001 	mrrc	0, 0, r0, ip, cr1
 6ec:	00000000 	andeq	r0, r0, r0
 6f0:	01000001 	tsteq	r0, r1
 6f4:	01005300 	mrseq	r5, LR_irq
 6f8:	01040000 	mrseq	r0, (UNDEF: 4)
 6fc:	00010000 	andeq	r0, r1, r0
 700:	0001045c 	andeq	r0, r1, ip, asr r4
 704:	00010800 	andeq	r0, r1, r0, lsl #16
 708:	53000100 	movwpl	r0, #256	; 0x100
 70c:	00000108 	andeq	r0, r0, r8, lsl #2
 710:	00000160 	andeq	r0, r0, r0, ror #2
 714:	605c0001 	subsvs	r0, ip, r1
 718:	64000001 	strvs	r0, [r0], #-1
 71c:	01000001 	tsteq	r0, r1
 720:	01645300 	cmneq	r4, r0, lsl #6
 724:	01800000 	orreq	r0, r0, r0
 728:	00010000 	andeq	r0, r1, r0
 72c:	0001805c 	andeq	r8, r1, ip, asr r0
 730:	00018400 	andeq	r8, r1, r0, lsl #8
 734:	7c000500 	cfstr32vc	mvfx0, [r0], {-0}
 738:	9f253400 	svcls	0x00253400
 73c:	00000184 	andeq	r0, r0, r4, lsl #3
 740:	000001a0 	andeq	r0, r0, r0, lsr #3
 744:	a05c0001 	subsge	r0, ip, r1
 748:	b0000001 	andlt	r0, r0, r1
 74c:	01000001 	tsteq	r0, r1
 750:	01b05300 	lslseq	r5, r0, #6
 754:	01c40000 	biceq	r0, r4, r0
 758:	00010000 	andeq	r0, r1, r0
 75c:	0001c45c 	andeq	ip, r1, ip, asr r4
 760:	0001cc00 	andeq	ip, r1, r0, lsl #24
 764:	7c000500 	cfstr32vc	mvfx0, [r0], {-0}
 768:	9f253100 	svcls	0x00253100
 76c:	000001cc 	andeq	r0, r0, ip, asr #3
 770:	000001d4 	ldrdeq	r0, [r0], -r4
 774:	d45c0001 	ldrble	r0, [ip], #-1
 778:	d7000001 	strle	r0, [r0, -r1]
 77c:	01000001 	tsteq	r0, r1
 780:	01d75300 	bicseq	r5, r7, r0, lsl #6
 784:	01f80000 	mvnseq	r0, r0
 788:	00040000 	andeq	r0, r4, r0
 78c:	9f5301f3 	svcls	0x005301f3
 790:	000001f8 	strdeq	r0, [r0], -r8
 794:	000001ff 	strdeq	r0, [r0], -pc	; <UNPREDICTABLE>
 798:	005c0001 	subseq	r0, ip, r1
 79c:	00000000 	andeq	r0, r0, r0
 7a0:	ec000000 	stc	0, cr0, [r0], {-0}
 7a4:	fc000000 	stc2	0, cr0, [r0], {-0}
 7a8:	02000000 	andeq	r0, r0, #0
 7ac:	fc9f3000 	ldc2	0, cr3, [pc], {0}
 7b0:	04000000 	streq	r0, [r0], #-0
 7b4:	02000001 	andeq	r0, r0, #1
 7b8:	049f3100 	ldreq	r3, [pc], #256	; 7c0 <__code_start__-0x7840>
 7bc:	08000001 	stmdaeq	r0, {r0}
 7c0:	02000001 	andeq	r0, r0, #1
 7c4:	009f3000 	addseq	r3, pc, r0
 7c8:	00000000 	andeq	r0, r0, r0
 7cc:	3c000000 	stccc	0, cr0, [r0], {-0}
 7d0:	4f000002 	svcmi	0x00000002
 7d4:	01000002 	tsteq	r0, r2
 7d8:	024f5000 	subeq	r5, pc, #0
 7dc:	02700000 	rsbseq	r0, r0, #0
 7e0:	00040000 	andeq	r0, r4, r0
 7e4:	9f5001f3 	svcls	0x005001f3
 7e8:	00000270 	andeq	r0, r0, r0, ror r2
 7ec:	000002a4 	andeq	r0, r0, r4, lsr #5
 7f0:	00500001 	subseq	r0, r0, r1
 7f4:	00000000 	andeq	r0, r0, r0
 7f8:	3c000000 	stccc	0, cr0, [r0], {-0}
 7fc:	4f000002 	svcmi	0x00000002
 800:	01000002 	tsteq	r0, r2
 804:	024f5100 	subeq	r5, pc, #0, 2
 808:	02700000 	rsbseq	r0, r0, #0
 80c:	00040000 	andeq	r0, r4, r0
 810:	9f5101f3 	svcls	0x005101f3
 814:	00000270 	andeq	r0, r0, r0, ror r2
 818:	000002a4 	andeq	r0, r0, r4, lsr #5
 81c:	00510001 	subseq	r0, r1, r1
 820:	00000000 	andeq	r0, r0, r0
 824:	a4000000 	strge	r0, [r0], #-0
 828:	d4000002 	strle	r0, [r0], #-2
 82c:	01000002 	tsteq	r0, r2
 830:	02d45000 	sbcseq	r5, r4, #0
 834:	05580000 	ldrbeq	r0, [r8, #-0]
 838:	00010000 	andeq	r0, r1, r0
 83c:	0005585b 	andeq	r5, r5, fp, asr r8
 840:	00057800 	andeq	r7, r5, r0, lsl #16
 844:	f3000400 	vshl.u8	d0, d0, d0
 848:	009f5001 	addseq	r5, pc, r1
 84c:	00000000 	andeq	r0, r0, r0
 850:	a4000000 	strge	r0, [r0], #-0
 854:	bc000002 	stclt	0, cr0, [r0], {2}
 858:	01000002 	tsteq	r0, r2
 85c:	02bc5100 	adcseq	r5, ip, #0, 2
 860:	02d40000 	sbcseq	r0, r4, #0
 864:	00030000 	andeq	r0, r3, r0
 868:	d49f0171 	ldrle	r0, [pc], #369	; 870 <__code_start__-0x7790>
 86c:	78000002 	stmdavc	r0, {r1}
 870:	04000005 	streq	r0, [r0], #-5
 874:	5101f300 	mrspl	pc, SP_irq	; <UNPREDICTABLE>
 878:	0000009f 	muleq	r0, pc, r0	; <UNPREDICTABLE>
 87c:	00000000 	andeq	r0, r0, r0
 880:	0002a400 	andeq	sl, r2, r0, lsl #8
 884:	0002d400 	andeq	sp, r2, r0, lsl #8
 888:	52000100 	andpl	r0, r0, #0, 2
 88c:	000002d4 	ldrdeq	r0, [r0], -r4
 890:	00000558 	andeq	r0, r0, r8, asr r5
 894:	00560001 	subseq	r0, r6, r1
 898:	00000000 	andeq	r0, r0, r0
 89c:	a4000000 	strge	r0, [r0], #-0
 8a0:	c4000002 	strgt	r0, [r0], #-2
 8a4:	01000002 	tsteq	r0, r2
 8a8:	00005300 	andeq	r5, r0, r0, lsl #6
 8ac:	00000000 	andeq	r0, r0, r0
 8b0:	02b80000 	adcseq	r0, r8, #0
 8b4:	02d40000 	sbcseq	r0, r4, #0
 8b8:	00010000 	andeq	r0, r1, r0
 8bc:	0002d450 	andeq	sp, r2, r0, asr r4
 8c0:	0002d800 	andeq	sp, r2, r0, lsl #16
 8c4:	54000100 	strpl	r0, [r0], #-256	; 0x100
 8c8:	000002d8 	ldrdeq	r0, [r0], -r8
 8cc:	000002e4 	andeq	r0, r0, r4, ror #5
 8d0:	01740003 	cmneq	r4, r3
 8d4:	0002e49f 	muleq	r2, pc, r4	; <UNPREDICTABLE>
 8d8:	0002f000 	andeq	pc, r2, r0
 8dc:	54000100 	strpl	r0, [r0], #-256	; 0x100
 8e0:	000002f0 	strdeq	r0, [r0], -r0	; <UNPREDICTABLE>
 8e4:	000002fc 	strdeq	r0, [r0], -ip
 8e8:	01740003 	cmneq	r4, r3
 8ec:	0002fc9f 	muleq	r2, pc, ip	; <UNPREDICTABLE>
 8f0:	00050c00 	andeq	r0, r5, r0, lsl #24
 8f4:	54000100 	strpl	r0, [r0], #-256	; 0x100
 8f8:	0000050c 	andeq	r0, r0, ip, lsl #10
 8fc:	00000518 	andeq	r0, r0, r8, lsl r5
 900:	01740003 	cmneq	r4, r3
 904:	0005189f 	muleq	r5, pc, r8	; <UNPREDICTABLE>
 908:	00054400 	andeq	r4, r5, r0, lsl #8
 90c:	54000100 	strpl	r0, [r0], #-256	; 0x100
 910:	00000544 	andeq	r0, r0, r4, asr #10
 914:	00000550 	andeq	r0, r0, r0, asr r5
 918:	50500001 	subspl	r0, r0, r1
 91c:	58000005 	stmdapl	r0, {r0, r2}
 920:	03000005 	movweq	r0, #5
 924:	9f017400 	svcls	0x00017400
	...
 930:	000002c0 	andeq	r0, r0, r0, asr #5
 934:	00000558 	andeq	r0, r0, r8, asr r5
 938:	58580001 	ldmdapl	r8, {r0}^
 93c:	78000005 	stmdavc	r0, {r0, r2}
 940:	0a000005 	beq	95c <__code_start__-0x76a4>
 944:	5101f300 	mrspl	pc, SP_irq	; <UNPREDICTABLE>
 948:	225001f3 	subscs	r0, r0, #-1073741764	; 0xc000003c
 94c:	009f1c31 	addseq	r1, pc, r1, lsr ip	; <UNPREDICTABLE>
 950:	00000000 	andeq	r0, r0, r0
 954:	c8000000 	stmdagt	r0, {}	; <UNPREDICTABLE>
 958:	d4000002 	strle	r0, [r0], #-2
 95c:	01000002 	tsteq	r0, r2
 960:	02d45200 	sbcseq	r5, r4, #0, 4
 964:	05780000 	ldrbeq	r0, [r8, #-0]!
 968:	00030000 	andeq	r0, r3, r0
 96c:	007ecc91 			; <UNDEFINED> instruction: 0x007ecc91
 970:	00000000 	andeq	r0, r0, r0
 974:	10000000 	andne	r0, r0, r0
 978:	14000004 	strne	r0, [r0], #-4
 97c:	01000004 	tsteq	r0, r4
 980:	04385000 	ldrteq	r5, [r8], #-0
 984:	043c0000 	ldrteq	r0, [ip], #-0
 988:	00010000 	andeq	r0, r1, r0
 98c:	00046050 	andeq	r6, r4, r0, asr r0
 990:	00046400 	andeq	r6, r4, r0, lsl #8
 994:	50000100 	andpl	r0, r0, r0, lsl #2
 998:	00000488 	andeq	r0, r0, r8, lsl #9
 99c:	0000048c 	andeq	r0, r0, ip, lsl #9
 9a0:	94500001 	ldrbls	r0, [r0], #-1
 9a4:	98000004 	stmdals	r0, {r2}
 9a8:	01000004 	tsteq	r0, r4
 9ac:	04bc5000 	ldrteq	r5, [ip], #0
 9b0:	04c00000 	strbeq	r0, [r0], #0
 9b4:	00010000 	andeq	r0, r1, r0
 9b8:	00050450 	andeq	r0, r5, r0, asr r4
 9bc:	00052c00 	andeq	r2, r5, r0, lsl #24
 9c0:	50000100 	andpl	r0, r0, r0, lsl #2
	...
 9cc:	00000304 	andeq	r0, r0, r4, lsl #6
 9d0:	0000030c 	andeq	r0, r0, ip, lsl #6
 9d4:	9f300002 	svcls	0x00300002
 9d8:	0000030c 	andeq	r0, r0, ip, lsl #6
 9dc:	00000310 	andeq	r0, r0, r0, lsl r3
 9e0:	1c570001 	mrrcne	0, 0, r0, r7, cr1
 9e4:	2c000003 	stccs	0, cr0, [r0], {3}
 9e8:	01000005 	tsteq	r0, r5
 9ec:	00005700 	andeq	r5, r0, r0, lsl #14
 9f0:	00000000 	andeq	r0, r0, r0
 9f4:	00140000 	andseq	r0, r4, r0
 9f8:	001c0000 	andseq	r0, ip, r0
 9fc:	00030000 	andeq	r0, r3, r0
 a00:	1c9f0473 	cfldrsne	mvf0, [pc], {115}	; 0x73
 a04:	27000000 	strcs	r0, [r0, -r0]
 a08:	01000000 	mrseq	r0, (UNDEF: 0)
 a0c:	00005300 	andeq	r5, r0, r0, lsl #6
	...
 a18:	000f0000 	andeq	r0, pc, r0
 a1c:	00010000 	andeq	r0, r1, r0
 a20:	00000f50 	andeq	r0, r0, r0, asr pc
 a24:	00004400 	andeq	r4, r0, r0, lsl #8
 a28:	54000100 	strpl	r0, [r0], #-256	; 0x100
	...
 a38:	0000000f 	andeq	r0, r0, pc
 a3c:	0f500001 	svceq	0x00500001
 a40:	44000000 	strmi	r0, [r0], #-0
 a44:	01000000 	mrseq	r0, (UNDEF: 0)
 a48:	00005400 	andeq	r5, r0, r0, lsl #8
	...
 a54:	000f0000 	andeq	r0, pc, r0
 a58:	00010000 	andeq	r0, r1, r0
 a5c:	00000f50 	andeq	r0, r0, r0, asr pc
 a60:	00004400 	andeq	r4, r0, r0, lsl #8
 a64:	54000100 	strpl	r0, [r0], #-256	; 0x100
	...
 a74:	0000000f 	andeq	r0, r0, pc
 a78:	0f500001 	svceq	0x00500001
 a7c:	44000000 	strmi	r0, [r0], #-0
 a80:	01000000 	mrseq	r0, (UNDEF: 0)
 a84:	00005400 	andeq	r5, r0, r0, lsl #8
 a88:	00000000 	andeq	r0, r0, r0
 a8c:	00340000 	eorseq	r0, r4, r0
 a90:	00400000 	subeq	r0, r0, r0
 a94:	00020000 	andeq	r0, r2, r0
 a98:	00409f30 	subeq	r9, r0, r0, lsr pc
 a9c:	006c0000 	rsbeq	r0, ip, r0
 aa0:	00010000 	andeq	r0, r1, r0
 aa4:	00000053 	andeq	r0, r0, r3, asr r0
 aa8:	00000000 	andeq	r0, r0, r0
 aac:	008d7800 	addeq	r7, sp, r0, lsl #16
 ab0:	008d7c00 	addeq	r7, sp, r0, lsl #24
 ab4:	30000200 	andcc	r0, r0, r0, lsl #4
 ab8:	008d7c9f 	umulleq	r7, sp, pc, ip	; <UNPREDICTABLE>
 abc:	008d8000 	addeq	r8, sp, r0
 ac0:	50000100 	andpl	r0, r0, r0, lsl #2
	...
 acc:	00008d90 	muleq	r0, r0, sp
 ad0:	00008d94 	muleq	r0, r4, sp
 ad4:	9f300002 	svcls	0x00300002
 ad8:	00008d94 	muleq	r0, r4, sp
 adc:	00008d98 	muleq	r0, r8, sp
 ae0:	9c530001 	mrrcls	0, 0, r0, r3, cr1
 ae4:	a400008d 	strge	r0, [r0], #-141	; 0x8d
 ae8:	0100008d 	smlabbeq	r0, sp, r0, r0
 aec:	00005300 	andeq	r5, r0, r0, lsl #6
	...
 af8:	00040000 	andeq	r0, r4, r0
 afc:	00010000 	andeq	r0, r1, r0
 b00:	00000450 	andeq	r0, r0, r0, asr r4
 b04:	00000c00 	andeq	r0, r0, r0, lsl #24
 b08:	53000100 	movwpl	r0, #256	; 0x100
 b0c:	0000000c 	andeq	r0, r0, ip
 b10:	00000010 	andeq	r0, r0, r0, lsl r0
 b14:	10500001 	subsne	r0, r0, r1
 b18:	1c000000 	stcne	0, cr0, [r0], {-0}
 b1c:	01000000 	mrseq	r0, (UNDEF: 0)
 b20:	00005300 	andeq	r5, r0, r0, lsl #6
 b24:	00000000 	andeq	r0, r0, r0
 b28:	00400000 	subeq	r0, r0, r0
 b2c:	00430000 	subeq	r0, r3, r0
 b30:	00010000 	andeq	r0, r1, r0
 b34:	00004350 	andeq	r4, r0, r0, asr r3
 b38:	00004c00 	andeq	r4, r0, r0, lsl #24
 b3c:	54000100 	strpl	r0, [r0], #-256	; 0x100
	...
 b48:	0000004c 	andeq	r0, r0, ip, asr #32
 b4c:	00000057 	andeq	r0, r0, r7, asr r0
 b50:	57500001 	ldrbpl	r0, [r0, -r1]
 b54:	70000000 	andvc	r0, r0, r0
 b58:	01000000 	mrseq	r0, (UNDEF: 0)
 b5c:	00005500 	andeq	r5, r0, r0, lsl #10
 b60:	00000000 	andeq	r0, r0, r0
 b64:	00600000 	rsbeq	r0, r0, r0
 b68:	00640000 	rsbeq	r0, r4, r0
 b6c:	00010000 	andeq	r0, r1, r0
 b70:	00000050 	andeq	r0, r0, r0, asr r0
 b74:	00000000 	andeq	r0, r0, r0
 b78:	00007000 	andeq	r7, r0, r0
 b7c:	00007c00 	andeq	r7, r0, r0, lsl #24
 b80:	50000100 	andpl	r0, r0, r0, lsl #2
 b84:	0000007c 	andeq	r0, r0, ip, ror r0
 b88:	00000084 	andeq	r0, r0, r4, lsl #1
 b8c:	01f30004 	mvnseq	r0, r4
 b90:	00009f50 	andeq	r9, r0, r0, asr pc
 b94:	00000000 	andeq	r0, r0, r0
 b98:	00840000 	addeq	r0, r4, r0
 b9c:	00900000 	addseq	r0, r0, r0
 ba0:	00010000 	andeq	r0, r1, r0
 ba4:	00009050 	andeq	r9, r0, r0, asr r0
 ba8:	00009800 	andeq	r9, r0, r0, lsl #16
 bac:	f3000400 	vshl.u8	d0, d0, d0
 bb0:	009f5001 	addseq	r5, pc, r1
 bb4:	00000000 	andeq	r0, r0, r0
 bb8:	38000000 	stmdacc	r0, {}	; <UNPREDICTABLE>
 bbc:	43000001 	movwmi	r0, #1
 bc0:	01000001 	tsteq	r0, r1
 bc4:	01435000 	mrseq	r5, (UNDEF: 67)
 bc8:	01680000 	cmneq	r8, r0
 bcc:	00010000 	andeq	r0, r1, r0
 bd0:	00000054 	andeq	r0, r0, r4, asr r0
	...
 bdc:	00000f00 	andeq	r0, r0, r0, lsl #30
 be0:	50000100 	andpl	r0, r0, r0, lsl #2
 be4:	0000000f 	andeq	r0, r0, pc
 be8:	00000020 	andeq	r0, r0, r0, lsr #32
 bec:	00540001 	subseq	r0, r4, r1
	...
 bf8:	0f000000 	svceq	0x00000000
 bfc:	01000000 	mrseq	r0, (UNDEF: 0)
 c00:	000f5100 	andeq	r5, pc, r0, lsl #2
 c04:	00200000 	eoreq	r0, r0, r0
 c08:	00010000 	andeq	r0, r1, r0
 c0c:	00000055 	andeq	r0, r0, r5, asr r0
 c10:	00000000 	andeq	r0, r0, r0
 c14:	0000ec00 	andeq	lr, r0, r0, lsl #24
 c18:	00010400 	andeq	r0, r1, r0, lsl #8
 c1c:	50000100 	andpl	r0, r0, r0, lsl #2
 c20:	00000104 	andeq	r0, r0, r4, lsl #2
 c24:	00000114 	andeq	r0, r0, r4, lsl r1
 c28:	01f30004 	mvnseq	r0, r4
 c2c:	01149f50 	tsteq	r4, r0, asr pc
 c30:	01180000 	tsteq	r8, r0
 c34:	00010000 	andeq	r0, r1, r0
 c38:	00011850 	andeq	r1, r1, r0, asr r8
 c3c:	00012000 	andeq	r2, r1, r0
 c40:	f3000400 	vshl.u8	d0, d0, d0
 c44:	009f5001 	addseq	r5, pc, r1
 c48:	00000000 	andeq	r0, r0, r0
 c4c:	f8000000 			; <UNDEFINED> instruction: 0xf8000000
 c50:	04000000 	streq	r0, [r0], #-0
 c54:	0b000001 	bleq	c60 <__code_start__-0x73a0>
 c58:	35007000 	strcc	r7, [r0, #-0]
 c5c:	80b42325 	adcshi	r2, r4, r5, lsr #6
 c60:	9f028180 	svcls	0x00028180
 c64:	00000104 	andeq	r0, r0, r4, lsl #2
 c68:	00000107 	andeq	r0, r0, r7, lsl #2
 c6c:	07500001 	ldrbeq	r0, [r0, -r1]
 c70:	14000001 	strne	r0, [r0], #-1
 c74:	0c000001 	stceq	0, cr0, [r0], {1}
 c78:	5001f300 	andpl	pc, r1, r0, lsl #6
 c7c:	b4232535 	strtlt	r2, [r3], #-1333	; 0x535
 c80:	02818080 	addeq	r8, r1, #128	; 0x80
 c84:	0000009f 	muleq	r0, pc, r0	; <UNPREDICTABLE>
 c88:	00000000 	andeq	r0, r0, r0
 c8c:	0000fc00 	andeq	pc, r0, r0, lsl #24
 c90:	00011400 	andeq	r1, r1, r0, lsl #8
 c94:	54000100 	strpl	r0, [r0], #-256	; 0x100
	...
 ca0:	000000d0 	ldrdeq	r0, [r0], -r0	; <UNPREDICTABLE>
 ca4:	000000df 	ldrdeq	r0, [r0], -pc	; <UNPREDICTABLE>
 ca8:	df500001 	svcle	0x00500001
 cac:	e4000000 	str	r0, [r0], #-0
 cb0:	04000000 	streq	r0, [r0], #-0
 cb4:	5001f300 	andpl	pc, r1, r0, lsl #6
 cb8:	0000e49f 	muleq	r0, pc, r4	; <UNPREDICTABLE>
 cbc:	0000e700 	andeq	lr, r0, r0, lsl #14
 cc0:	50000100 	andpl	r0, r0, r0, lsl #2
 cc4:	000000e7 	andeq	r0, r0, r7, ror #1
 cc8:	000000ec 	andeq	r0, r0, ip, ror #1
 ccc:	01f30004 	mvnseq	r0, r4
 cd0:	00009f50 	andeq	r9, r0, r0, asr pc
 cd4:	00000000 	andeq	r0, r0, r0
 cd8:	00d00000 	sbcseq	r0, r0, r0
 cdc:	00df0000 	sbcseq	r0, pc, r0
 ce0:	00010000 	andeq	r0, r1, r0
 ce4:	0000df51 	andeq	sp, r0, r1, asr pc
 ce8:	0000e400 	andeq	lr, r0, r0, lsl #8
 cec:	f3000400 	vshl.u8	d0, d0, d0
 cf0:	e49f5101 	ldr	r5, [pc], #257	; cf8 <__code_start__-0x7308>
 cf4:	e7000000 	str	r0, [r0, -r0]
 cf8:	01000000 	mrseq	r0, (UNDEF: 0)
 cfc:	00e75100 	rsceq	r5, r7, r0, lsl #2
 d00:	00ec0000 	rsceq	r0, ip, r0
 d04:	00040000 	andeq	r0, r4, r0
 d08:	9f5101f3 	svcls	0x005101f3
	...
 d14:	000000c0 	andeq	r0, r0, r0, asr #1
 d18:	000000cb 	andeq	r0, r0, fp, asr #1
 d1c:	cb500001 	blgt	1400d28 <__bss_end__+0x13f72b0>
 d20:	d0000000 	andle	r0, r0, r0
 d24:	04000000 	streq	r0, [r0], #-0
 d28:	5001f300 	andpl	pc, r1, r0, lsl #6
 d2c:	0000009f 	muleq	r0, pc, r0	; <UNPREDICTABLE>
 d30:	00000000 	andeq	r0, r0, r0
 d34:	00009c00 	andeq	r9, r0, r0, lsl #24
 d38:	0000b400 	andeq	fp, r0, r0, lsl #8
 d3c:	50000100 	andpl	r0, r0, r0, lsl #2
 d40:	000000b4 	strheq	r0, [r0], -r4
 d44:	000000c0 	andeq	r0, r0, r0, asr #1
 d48:	01f30004 	mvnseq	r0, r4
 d4c:	00009f50 	andeq	r9, r0, r0, asr pc
 d50:	00000000 	andeq	r0, r0, r0
 d54:	00780000 	rsbseq	r0, r8, r0
 d58:	00900000 	addseq	r0, r0, r0
 d5c:	00010000 	andeq	r0, r1, r0
 d60:	00009050 	andeq	r9, r0, r0, asr r0
 d64:	00009c00 	andeq	r9, r0, r0, lsl #24
 d68:	f3000400 	vshl.u8	d0, d0, d0
 d6c:	009f5001 	addseq	r5, pc, r1
 d70:	00000000 	andeq	r0, r0, r0
 d74:	68000000 	stmdavs	r0, {}	; <UNPREDICTABLE>
 d78:	73000000 	movwvc	r0, #0
 d7c:	01000000 	mrseq	r0, (UNDEF: 0)
 d80:	00735000 	rsbseq	r5, r3, r0
 d84:	00780000 	rsbseq	r0, r8, r0
 d88:	00040000 	andeq	r0, r4, r0
 d8c:	9f5001f3 	svcls	0x005001f3
	...
 d9c:	00000048 	andeq	r0, r0, r8, asr #32
 da0:	48500001 	ldmdami	r0, {r0}^
 da4:	68000000 	stmdavs	r0, {}	; <UNPREDICTABLE>
 da8:	04000000 	streq	r0, [r0], #-0
 dac:	5001f300 	andpl	pc, r1, r0, lsl #6
 db0:	0000009f 	muleq	r0, pc, r0	; <UNPREDICTABLE>
	...
 dbc:	00004b00 	andeq	r4, r0, r0, lsl #22
 dc0:	51000100 	mrspl	r0, (UNDEF: 16)
 dc4:	0000004b 	andeq	r0, r0, fp, asr #32
 dc8:	00000068 	andeq	r0, r0, r8, rrx
 dcc:	01f30004 	mvnseq	r0, r4
 dd0:	00009f51 	andeq	r9, r0, r1, asr pc
 dd4:	00000000 	andeq	r0, r0, r0
 dd8:	004c0000 	subeq	r0, ip, r0
 ddc:	00540000 	subseq	r0, r4, r0
 de0:	00010000 	andeq	r0, r1, r0
 de4:	00005450 	andeq	r5, r0, r0, asr r4
 de8:	00005800 	andeq	r5, r0, r0, lsl #16
 dec:	75000900 	strvc	r0, [r0, #-2304]	; 0x900
 df0:	24007400 	strcs	r7, [r0], #-1024	; 0x400
 df4:	9f210071 	svcls	0x00210071
 df8:	00000058 	andeq	r0, r0, r8, asr r0
 dfc:	0000005f 	andeq	r0, r0, pc, asr r0
 e00:	00510001 	subseq	r0, r1, r1
 e04:	00000000 	andeq	r0, r0, r0
 e08:	Address 0x0000000000000e08 is out of bounds.


Disassembly of section .debug_aranges:

00000000 <.debug_aranges>:
   0:	0000001c 	andeq	r0, r0, ip, lsl r0
   4:	00000002 	andeq	r0, r0, r2
   8:	00040000 	andeq	r0, r4, r0
   c:	00000000 	andeq	r0, r0, r0
  10:	00008010 	andeq	r8, r0, r0, lsl r0
  14:	0000010c 	andeq	r0, r0, ip, lsl #2
	...
  20:	0000001c 	andeq	r0, r0, ip, lsl r0
  24:	03b40002 			; <UNDEFINED> instruction: 0x03b40002
  28:	00040000 	andeq	r0, r4, r0
  2c:	00000000 	andeq	r0, r0, r0
  30:	0000811c 	andeq	r8, r0, ip, lsl r1
  34:	00000344 	andeq	r0, r0, r4, asr #6
	...
  40:	0000001c 	andeq	r0, r0, ip, lsl r0
  44:	0e750002 	cdpeq	0, 7, cr0, cr5, cr2, {0}
  48:	00040000 	andeq	r0, r4, r0
  4c:	00000000 	andeq	r0, r0, r0
  50:	00008550 	andeq	r8, r0, r0, asr r5
  54:	00000058 	andeq	r0, r0, r8, asr r0
	...
  60:	0000001c 	andeq	r0, r0, ip, lsl r0
  64:	100a0002 	andne	r0, sl, r2
  68:	00040000 	andeq	r0, r4, r0
  6c:	00000000 	andeq	r0, r0, r0
  70:	000085a8 	andeq	r8, r0, r8, lsr #11
  74:	0000003c 	andeq	r0, r0, ip, lsr r0
	...
  80:	0000001c 	andeq	r0, r0, ip, lsl r0
  84:	11210002 	teqne	r1, r2
  88:	00040000 	andeq	r0, r4, r0
  8c:	00000000 	andeq	r0, r0, r0
  90:	000085e4 	andeq	r8, r0, r4, ror #11
  94:	00000034 	andeq	r0, r0, r4, lsr r0
	...
  a0:	0000001c 	andeq	r0, r0, ip, lsl r0
  a4:	12130002 	andsne	r0, r3, #2
  a8:	00040000 	andeq	r0, r4, r0
  ac:	00000000 	andeq	r0, r0, r0
  b0:	00008618 	andeq	r8, r0, r8, lsl r6
  b4:	00000578 	andeq	r0, r0, r8, ror r5
	...
  c0:	0000001c 	andeq	r0, r0, ip, lsl r0
  c4:	18fc0002 	ldmne	ip!, {r1}^
  c8:	00040000 	andeq	r0, r4, r0
  cc:	00000000 	andeq	r0, r0, r0
  d0:	00008b90 	muleq	r0, r0, fp
  d4:	0000002c 	andeq	r0, r0, ip, lsr #32
	...
  e0:	0000001c 	andeq	r0, r0, ip, lsl r0
  e4:	1a0f0002 	bne	3c00f4 <__bss_end__+0x3b667c>
  e8:	00040000 	andeq	r0, r4, r0
  ec:	00000000 	andeq	r0, r0, r0
  f0:	00008bbc 			; <UNDEFINED> instruction: 0x00008bbc
  f4:	00000038 	andeq	r0, r0, r8, lsr r0
	...
 100:	0000001c 	andeq	r0, r0, ip, lsl r0
 104:	1b220002 	blne	880114 <__bss_end__+0x87669c>
 108:	00040000 	andeq	r0, r4, r0
 10c:	00000000 	andeq	r0, r0, r0
 110:	00008bf4 	strdeq	r8, [r0], -r4
 114:	00000044 	andeq	r0, r0, r4, asr #32
	...
 120:	0000001c 	andeq	r0, r0, ip, lsl r0
 124:	1c640002 	stclne	0, cr0, [r4], #-8
 128:	00040000 	andeq	r0, r4, r0
 12c:	00000000 	andeq	r0, r0, r0
 130:	00008c38 	andeq	r8, r0, r8, lsr ip
 134:	00000044 	andeq	r0, r0, r4, asr #32
	...
 140:	0000001c 	andeq	r0, r0, ip, lsl r0
 144:	1da60002 	stcne	0, cr0, [r6, #8]!
 148:	00040000 	andeq	r0, r4, r0
 14c:	00000000 	andeq	r0, r0, r0
 150:	00008c7c 	andeq	r8, r0, ip, ror ip
 154:	00000044 	andeq	r0, r0, r4, asr #32
	...
 160:	0000001c 	andeq	r0, r0, ip, lsl r0
 164:	1ee80002 	cdpne	0, 14, cr0, cr8, cr2, {0}
 168:	00040000 	andeq	r0, r4, r0
 16c:	00000000 	andeq	r0, r0, r0
 170:	00008cc0 	andeq	r8, r0, r0, asr #25
 174:	00000044 	andeq	r0, r0, r4, asr #32
	...
 180:	0000001c 	andeq	r0, r0, ip, lsl r0
 184:	202a0002 	eorcs	r0, sl, r2
 188:	00040000 	andeq	r0, r4, r0
 18c:	00000000 	andeq	r0, r0, r0
 190:	00008d04 	andeq	r8, r0, r4, lsl #26
 194:	00000008 	andeq	r0, r0, r8
	...
 1a0:	0000001c 	andeq	r0, r0, ip, lsl r0
 1a4:	20c60002 	sbccs	r0, r6, r2
 1a8:	00040000 	andeq	r0, r4, r0
 1ac:	00000000 	andeq	r0, r0, r0
 1b0:	00008d0c 	andeq	r8, r0, ip, lsl #26
 1b4:	0000006c 	andeq	r0, r0, ip, rrx
	...
 1c0:	0000001c 	andeq	r0, r0, ip, lsl r0
 1c4:	22a10002 	adccs	r0, r1, #2
 1c8:	00040000 	andeq	r0, r4, r0
 1cc:	00000000 	andeq	r0, r0, r0
 1d0:	00008d78 	andeq	r8, r0, r8, ror sp
 1d4:	00000074 	andeq	r0, r0, r4, ror r0
	...
 1e0:	0000001c 	andeq	r0, r0, ip, lsl r0
 1e4:	24520002 	ldrbcs	r0, [r2], #-2
 1e8:	00040000 	andeq	r0, r4, r0
 1ec:	00000000 	andeq	r0, r0, r0
 1f0:	00008dec 	andeq	r8, r0, ip, ror #27
 1f4:	00000098 	muleq	r0, r8, r0
	...
 200:	0000001c 	andeq	r0, r0, ip, lsl r0
 204:	264d0002 	strbcs	r0, [sp], -r2
 208:	00040000 	andeq	r0, r4, r0
 20c:	00000000 	andeq	r0, r0, r0
 210:	00008eec 	andeq	r8, r0, ip, ror #29
 214:	00000178 	andeq	r0, r0, r8, ror r1
	...
 220:	0000001c 	andeq	r0, r0, ip, lsl r0
 224:	33160002 	tstcc	r6, #2
 228:	00040000 	andeq	r0, r4, r0
 22c:	00000000 	andeq	r0, r0, r0
 230:	00009064 	andeq	r9, r0, r4, rrx
 234:	00000120 	andeq	r0, r0, r0, lsr #2
	...

Disassembly of section .debug_line:

00000000 <.debug_line>:
       0:	00000124 	andeq	r0, r0, r4, lsr #2
       4:	00ee0002 	rsceq	r0, lr, r2
       8:	01020000 	mrseq	r0, (UNDEF: 2)
       c:	000d0efb 	strdeq	r0, [sp], -fp
      10:	01010101 	tsteq	r1, r1, lsl #2
      14:	01000000 	mrseq	r0, (UNDEF: 0)
      18:	74010000 	strvc	r0, [r1], #-0
      1c:	73747365 	cmnvc	r4, #-1811939327	; 0x94000001
      20:	2f002e00 	svccs	0x00002e00
      24:	2f727375 	svccs	0x00727375
      28:	61636f6c 	cmnvs	r3, ip, ror #30
      2c:	65432f6c 	strbvs	r2, [r3, #-3948]	; 0xf6c
      30:	72616c6c 	rsbvc	r6, r1, #108, 24	; 0x6c00
      34:	6d72612f 	ldfvse	f6, [r2, #-188]!	; 0xffffff44
      38:	6e6f6e2d 	cdpvs	14, 6, cr6, cr15, cr13, {1}
      3c:	61652d65 	cmnvs	r5, r5, ror #26
      40:	342f6962 	strtcc	r6, [pc], #-2402	; 48 <__code_start__-0x7fb8>
      44:	332e382e 	teqcc	lr, #3014656	; 0x2e0000
      48:	3173632d 	cmncc	r3, sp, lsr #6
      4c:	2f653037 	svccs	0x00653037
      50:	2f62696c 	svccs	0x0062696c
      54:	2f636367 	svccs	0x00636367
      58:	2d6d7261 	sfmcs	f7, 2, [sp, #-388]!	; 0xfffffe7c
      5c:	656e6f6e 	strbvs	r6, [lr, #-3950]!	; 0xf6e
      60:	6261652d 	rsbvs	r6, r1, #188743680	; 0xb400000
      64:	2e342f69 	cdpcs	15, 3, cr2, cr4, cr9, {3}
      68:	2f332e38 	svccs	0x00332e38
      6c:	6c636e69 	stclvs	14, cr6, [r3], #-420	; 0xfffffe5c
      70:	00656475 	rsbeq	r6, r5, r5, ror r4
      74:	6573552f 	ldrbvs	r5, [r3, #-1327]!	; 0x52f
      78:	622f7372 	eorvs	r7, pc, #-939524095	; 0xc8000001
      7c:	6e616972 	mcrvs	9, 3, r6, cr1, cr2, {3}
      80:	2f6e756a 	svccs	0x006e756a
      84:	6b736544 	blvs	1cd959c <__bss_end__+0x1ccfb24>
      88:	2f706f74 	svccs	0x00706f74
      8c:	6f686373 	svcvs	0x00686373
      90:	532f6c6f 	teqpl	pc, #28416	; 0x6f00
      94:	6e697270 	mcrvs	2, 3, r7, cr9, cr0, {3}
      98:	32393167 	eorscc	r3, r9, #-1073741799	; 0xc0000019
      9c:	53432f30 	movtpl	r2, #16176	; 0x3f30
      a0:	4c303432 	cfldrsmi	mvf3, [r0], #-200	; 0xffffff38
      a4:	73632f58 	cmnvc	r3, #88, 30	; 0x160
      a8:	6c303432 	cfldrsvs	mvf3, [r0], #-200	; 0xffffff38
      ac:	30322d78 	eorscc	r2, r2, r8, ror sp
      b0:	2f727073 	svccs	0x00727073
      b4:	7062696c 	rsbvc	r6, r2, ip, ror #18
      b8:	6e692f69 	cdpvs	15, 6, cr2, cr9, cr9, {3}
      bc:	64756c63 	ldrbtvs	r6, [r5], #-3171	; 0xc63
      c0:	74000065 	strvc	r0, [r0], #-101	; 0x65
      c4:	34747365 	ldrbtcc	r7, [r4], #-869	; 0x365
      c8:	0100632e 	tsteq	r0, lr, lsr #6
      cc:	70630000 	rsbvc	r0, r3, r0
      d0:	642d3431 	strtvs	r3, [sp], #-1073	; 0x431
      d4:	67756265 	ldrbvs	r6, [r5, -r5, ror #4]!
      d8:	0200682e 	andeq	r6, r0, #3014656	; 0x2e0000
      dc:	74730000 	ldrbtvc	r0, [r3], #-0
      e0:	746e6964 	strbtvc	r6, [lr], #-2404	; 0x964
      e4:	6363672d 	cmnvs	r3, #11796480	; 0xb40000
      e8:	0300682e 	movweq	r6, #2094	; 0x82e
      ec:	70720000 	rsbsvc	r0, r2, r0
      f0:	00682e69 	rsbeq	r2, r8, r9, ror #28
      f4:	00000004 	andeq	r0, r0, r4
      f8:	10020500 	andne	r0, r2, r0, lsl #10
      fc:	17000080 	strne	r0, [r0, -r0, lsl #1]
     100:	03020467 	movweq	r0, #9319	; 0x2467
     104:	334a019f 	movtcc	r0, #41375	; 0xa19f
     108:	dd030104 	stfles	f0, [r3, #-16]
     10c:	d74b2e7e 	smlsldxle	r2, fp, lr, lr
     110:	04020067 	streq	r0, [r2], #-103	; 0x67
     114:	064a0601 	strbeq	r0, [sl], -r1, lsl #12
     118:	084b2108 	stmdaeq	fp, {r3, r8, sp}^
     11c:	67312f23 	ldrvs	r2, [r1, -r3, lsr #30]!
     120:	024b6768 	subeq	r6, fp, #104, 14	; 0x1a00000
     124:	0101001a 	tsteq	r1, sl, lsl r0
     128:	000001ce 	andeq	r0, r0, lr, asr #3
     12c:	00ff0002 	rscseq	r0, pc, r2
     130:	01020000 	mrseq	r0, (UNDEF: 2)
     134:	000d0efb 	strdeq	r0, [sp], -fp
     138:	01010101 	tsteq	r1, r1, lsl #2
     13c:	01000000 	mrseq	r0, (UNDEF: 0)
     140:	2f010000 	svccs	0x00010000
     144:	2f727375 	svccs	0x00727375
     148:	61636f6c 	cmnvs	r3, ip, ror #30
     14c:	65432f6c 	strbvs	r2, [r3, #-3948]	; 0xf6c
     150:	72616c6c 	rsbvc	r6, r1, #108, 24	; 0x6c00
     154:	6d72612f 	ldfvse	f6, [r2, #-188]!	; 0xffffff44
     158:	6e6f6e2d 	cdpvs	14, 6, cr6, cr15, cr13, {1}
     15c:	61652d65 	cmnvs	r5, r5, ror #26
     160:	342f6962 	strtcc	r6, [pc], #-2402	; 168 <__code_start__-0x7e98>
     164:	332e382e 	teqcc	lr, #3014656	; 0x2e0000
     168:	3173632d 	cmncc	r3, sp, lsr #6
     16c:	2f653037 	svccs	0x00653037
     170:	2f62696c 	svccs	0x0062696c
     174:	2f636367 	svccs	0x00636367
     178:	2d6d7261 	sfmcs	f7, 2, [sp, #-388]!	; 0xfffffe7c
     17c:	656e6f6e 	strbvs	r6, [lr, #-3950]!	; 0xf6e
     180:	6261652d 	rsbvs	r6, r1, #188743680	; 0xb400000
     184:	2e342f69 	cdpcs	15, 3, cr2, cr4, cr9, {3}
     188:	2f332e38 	svccs	0x00332e38
     18c:	6c636e69 	stclvs	14, cr6, [r3], #-420	; 0xfffffe5c
     190:	00656475 	rsbeq	r6, r5, r5, ror r4
     194:	6573552f 	ldrbvs	r5, [r3, #-1327]!	; 0x52f
     198:	622f7372 	eorvs	r7, pc, #-939524095	; 0xc8000001
     19c:	6e616972 	mcrvs	9, 3, r6, cr1, cr2, {3}
     1a0:	2f6e756a 	svccs	0x006e756a
     1a4:	6b736544 	blvs	1cd96bc <__bss_end__+0x1ccfc44>
     1a8:	2f706f74 	svccs	0x00706f74
     1ac:	6f686373 	svcvs	0x00686373
     1b0:	532f6c6f 	teqpl	pc, #28416	; 0x6f00
     1b4:	6e697270 	mcrvs	2, 3, r7, cr9, cr0, {3}
     1b8:	32393167 	eorscc	r3, r9, #-1073741799	; 0xc0000019
     1bc:	53432f30 	movtpl	r2, #16176	; 0x3f30
     1c0:	4c303432 	cfldrsmi	mvf3, [r0], #-200	; 0xffffff38
     1c4:	73632f58 	cmnvc	r3, #88, 30	; 0x160
     1c8:	6c303432 	cfldrsvs	mvf3, [r0], #-200	; 0xffffff38
     1cc:	30322d78 	eorscc	r2, r2, r8, ror sp
     1d0:	2f727073 	svccs	0x00727073
     1d4:	7062696c 	rsbvc	r6, r2, ip, ror #18
     1d8:	6e692f69 	cdpvs	15, 6, cr2, cr9, cr9, {3}
     1dc:	64756c63 	ldrbtvs	r6, [r5], #-3171	; 0xc63
     1e0:	63000065 	movwvs	r0, #101	; 0x65
     1e4:	2d343170 	ldfcss	f3, [r4, #-448]!	; 0xfffffe40
     1e8:	75626564 	strbvc	r6, [r2, #-1380]!	; 0x564
     1ec:	00632e67 	rsbeq	r2, r3, r7, ror #28
     1f0:	63000000 	movwvs	r0, #0
     1f4:	2d343170 	ldfcss	f3, [r4, #-448]!	; 0xfffffe40
     1f8:	75626564 	strbvc	r6, [r2, #-1380]!	; 0x564
     1fc:	00682e67 	rsbeq	r2, r8, r7, ror #28
     200:	73000000 	movwvc	r0, #0
     204:	6e696474 	mcrvs	4, 3, r6, cr9, cr4, {3}
     208:	63672d74 	cmnvs	r7, #116, 26	; 0x1d00
     20c:	00682e63 	rsbeq	r2, r8, r3, ror #28
     210:	72000001 	andvc	r0, r0, #1
     214:	682e6970 	stmdavs	lr!, {r4, r5, r6, r8, fp, sp, lr}
     218:	00000200 	andeq	r0, r0, r0, lsl #4
     21c:	2d697072 	stclcs	0, cr7, [r9, #-456]!	; 0xfffffe38
     220:	65746e69 	ldrbvs	r6, [r4, #-3689]!	; 0xe69
     224:	70757272 	rsbsvc	r7, r5, r2, ror r2
     228:	682e7374 	stmdavs	lr!, {r2, r4, r5, r6, r8, r9, ip, sp, lr}
     22c:	00000200 	andeq	r0, r0, r0, lsl #4
     230:	02050000 	andeq	r0, r5, #0
     234:	0000811c 	andeq	r8, r0, ip, lsl r1
     238:	03013503 	movweq	r3, #5379	; 0x1503
     23c:	24034a62 	strcs	r4, [r3], #-2658	; 0xa62
     240:	2e62032e 	cdpcs	3, 6, cr0, cr2, cr14, {1}
     244:	032e7a03 	teqeq	lr, #12288	; 0x3000
     248:	02002e29 	andeq	r2, r0, #656	; 0x290
     24c:	4a060104 	bmi	180664 <__bss_end__+0x176bec>
     250:	08650306 	stmdaeq	r5!, {r1, r2, r8, r9}^
     254:	2e780320 	cdpcs	3, 7, cr0, cr8, cr0, {1}
     258:	034a7a03 	movteq	r7, #43523	; 0xaa03
     25c:	02002e3a 	andeq	r2, r0, #928	; 0x3a0
     260:	4a060104 	bmi	180678 <__bss_end__+0x176c00>
     264:	7fbb0306 	svcvc	0x00bb0306
     268:	c8032008 	stmdagt	r3, {r3, sp}
     26c:	f54b4a00 			; <UNDEFINED> instruction: 0xf54b4a00
     270:	da020468 	ble	81418 <__bss_end__+0x779a0>
     274:	4b2b0104 	blmi	ac068c <__bss_end__+0xab6c14>
     278:	4a020468 	bmi	81420 <__bss_end__+0x779a8>
     27c:	342e1303 	strtcc	r1, [lr], #-771	; 0x303
     280:	d65d034b 	ldrble	r0, [sp], -fp, asr #6
     284:	0e030104 	adfeqs	f0, f3, f4
     288:	0302042e 	movweq	r0, #9262	; 0x242e
     28c:	01048272 	tsteq	r4, r2, ror r2
     290:	002e0f03 	eoreq	r0, lr, r3, lsl #30
     294:	06010402 	streq	r0, [r1], -r2, lsl #8
     298:	22080666 	andcs	r0, r8, #106954752	; 0x6600000
     29c:	01040200 	mrseq	r0, R12_usr
     2a0:	02048206 	andeq	r8, r4, #1610612736	; 0x60000000
     2a4:	041c0806 	ldreq	r0, [ip], #-2054	; 0x806
     2a8:	bb693501 	bllt	1a4d6b4 <__bss_end__+0x1a43c3c>
     2ac:	31142202 	tstcc	r4, r2, lsl #4
     2b0:	bd032f83 	stclt	15, cr2, [r3, #-524]	; 0xfffffdf4
     2b4:	5b03667f 	blpl	d9cb8 <__bss_end__+0xd0240>
     2b8:	0199034a 	orrseq	r0, r9, sl, asr #6
     2bc:	01650382 	smulbbeq	r5, r2, r3
     2c0:	032e1f03 	teqeq	lr, #3, 30
     2c4:	302c2e62 	eorcc	r2, ip, r2, ror #28
     2c8:	4a7f8103 	bmi	1fe06dc <__bss_end__+0x1fd6c64>
     2cc:	4a01b103 	bmi	6c6e0 <__bss_end__+0x62c68>
     2d0:	020467a2 	andeq	r6, r4, #42467328	; 0x2880000
     2d4:	33666303 	cmncc	r6, #201326592	; 0xc000000
     2d8:	19030104 	stmdbne	r3, {r2, r8}
     2dc:	00d74b2e 	sbcseq	r4, r7, lr, lsr #22
     2e0:	06010402 	streq	r0, [r1], -r2, lsl #8
     2e4:	21080682 	smlabbcs	r8, r2, r6, r0
     2e8:	50030204 	andpl	r0, r3, r4, lsl #4
     2ec:	03010466 	movweq	r0, #5222	; 0x1466
     2f0:	089f2e31 	ldmeq	pc, {r0, r4, r5, r9, sl, fp, sp}	; <UNPREDICTABLE>
     2f4:	0002023e 	andeq	r0, r2, lr, lsr r2
     2f8:	010c0101 	tsteq	ip, r1, lsl #2
     2fc:	00020000 	andeq	r0, r2, r0
     300:	000000f5 	strdeq	r0, [r0], -r5
     304:	0efb0102 	cdpeq	1, 15, cr0, cr11, cr2, {0}
     308:	0101000d 	tsteq	r1, sp
     30c:	00000101 	andeq	r0, r0, r1, lsl #2
     310:	00000100 	andeq	r0, r0, r0, lsl #2
     314:	62696c01 	rsbvs	r6, r9, #256	; 0x100
     318:	752f0063 	strvc	r0, [pc, #-99]!	; 2bd <__code_start__-0x7d43>
     31c:	6c2f7273 	sfmvs	f7, 4, [pc], #-460	; 158 <__code_start__-0x7ea8>
     320:	6c61636f 	stclvs	3, cr6, [r1], #-444	; 0xfffffe44
     324:	6c65432f 	stclvs	3, cr4, [r5], #-188	; 0xffffff44
     328:	2f72616c 	svccs	0x0072616c
     32c:	2d6d7261 	sfmcs	f7, 2, [sp, #-388]!	; 0xfffffe7c
     330:	656e6f6e 	strbvs	r6, [lr, #-3950]!	; 0xf6e
     334:	6261652d 	rsbvs	r6, r1, #188743680	; 0xb400000
     338:	2e342f69 	cdpcs	15, 3, cr2, cr4, cr9, {3}
     33c:	2d332e38 	ldccs	14, cr2, [r3, #-224]!	; 0xffffff20
     340:	37317363 	ldrcc	r7, [r1, -r3, ror #6]!
     344:	6c2f6530 	cfstr32vs	mvfx6, [pc], #-192	; 28c <__code_start__-0x7d74>
     348:	672f6269 	strvs	r6, [pc, -r9, ror #4]!
     34c:	612f6363 	teqvs	pc, r3, ror #6
     350:	6e2d6d72 	mcrvs	13, 1, r6, cr13, cr2, {3}
     354:	2d656e6f 	stclcs	14, cr6, [r5, #-444]!	; 0xfffffe44
     358:	69626165 	stmdbvs	r2!, {r0, r2, r5, r6, r8, sp, lr}^
     35c:	382e342f 	stmdacc	lr!, {r0, r1, r2, r3, r5, sl, ip, sp}
     360:	692f332e 	stmdbvs	pc!, {r1, r2, r3, r5, r8, r9, ip, sp}	; <UNPREDICTABLE>
     364:	756c636e 	strbvc	r6, [ip, #-878]!	; 0x36e
     368:	2f006564 	svccs	0x00006564
     36c:	72657355 	rsbvc	r7, r5, #1409286145	; 0x54000001
     370:	72622f73 	rsbvc	r2, r2, #460	; 0x1cc
     374:	6a6e6169 	bvs	1b98920 <__bss_end__+0x1b8eea8>
     378:	442f6e75 	strtmi	r6, [pc], #-3701	; 380 <__code_start__-0x7c80>
     37c:	746b7365 	strbtvc	r7, [fp], #-869	; 0x365
     380:	732f706f 	teqvc	pc, #111	; 0x6f
     384:	6f6f6863 	svcvs	0x006f6863
     388:	70532f6c 	subsvc	r2, r3, ip, ror #30
     38c:	676e6972 			; <UNDEFINED> instruction: 0x676e6972
     390:	30323931 	eorscc	r3, r2, r1, lsr r9
     394:	3253432f 	subscc	r4, r3, #-1140850688	; 0xbc000000
     398:	584c3034 	stmdapl	ip, {r2, r4, r5, ip, sp}^
     39c:	3273632f 	rsbscc	r6, r3, #-1140850688	; 0xbc000000
     3a0:	786c3034 	stmdavc	ip!, {r2, r4, r5, ip, sp}^
     3a4:	7330322d 	teqvc	r0, #-805306366	; 0xd0000002
     3a8:	6c2f7270 	sfmvs	f7, 4, [pc], #-448	; 1f0 <__code_start__-0x7e10>
     3ac:	69706269 	ldmdbvs	r0!, {r0, r3, r5, r6, r9, sp, lr}^
     3b0:	636e692f 	cmnvs	lr, #770048	; 0xbc000
     3b4:	6564756c 	strbvs	r7, [r4, #-1388]!	; 0x56c
     3b8:	72700000 	rsbsvc	r0, r0, #0
     3bc:	6b746e69 	blvs	1d1bd68 <__bss_end__+0x1d122f0>
     3c0:	0100632e 	tsteq	r0, lr, lsr #6
     3c4:	74730000 	ldrbtvc	r0, [r3], #-0
     3c8:	67726164 	ldrbvs	r6, [r2, -r4, ror #2]!
     3cc:	0200682e 	andeq	r6, r0, #3014656	; 0x2e0000
     3d0:	623c0000 	eorsvs	r0, ip, #0
     3d4:	746c6975 	strbtvc	r6, [ip], #-2421	; 0x975
     3d8:	3e6e692d 	cdpcc	9, 6, cr6, cr14, cr13, {1}
     3dc:	00000000 	andeq	r0, r0, r0
     3e0:	2e697072 	mcrcs	0, 3, r7, cr9, cr2, {3}
     3e4:	00030068 	andeq	r0, r3, r8, rrx
     3e8:	2d617600 	stclcs	6, cr7, [r1, #-0]
     3ec:	6e697270 	mcrvs	2, 3, r7, cr9, cr0, {3}
     3f0:	682e6b74 	stmdavs	lr!, {r2, r4, r5, r6, r8, r9, fp, sp, lr}
     3f4:	00000100 	andeq	r0, r0, r0, lsl #2
     3f8:	02050000 	andeq	r0, r5, #0
     3fc:	00008550 	andeq	r8, r0, r0, asr r5
     400:	bf4b6b17 	svclt	0x004b6b17
     404:	000e0289 	andeq	r0, lr, r9, lsl #5
     408:	00940101 	addseq	r0, r4, r1, lsl #2
     40c:	00020000 	andeq	r0, r2, r0
     410:	0000007c 	andeq	r0, r0, ip, ror r0
     414:	0efb0102 	cdpeq	1, 15, cr0, cr11, cr2, {0}
     418:	0101000d 	tsteq	r1, sp
     41c:	00000101 	andeq	r0, r0, r1, lsl #2
     420:	00000100 	andeq	r0, r0, r0, lsl #2
     424:	62696c01 	rsbvs	r6, r9, #256	; 0x100
     428:	552f0063 	strpl	r0, [pc, #-99]!	; 3cd <__code_start__-0x7c33>
     42c:	73726573 	cmnvc	r2, #482344960	; 0x1cc00000
     430:	6972622f 	ldmdbvs	r2!, {r0, r1, r2, r3, r5, r9, sp, lr}^
     434:	756a6e61 	strbvc	r6, [sl, #-3681]!	; 0xe61
     438:	65442f6e 	strbvs	r2, [r4, #-3950]	; 0xf6e
     43c:	6f746b73 	svcvs	0x00746b73
     440:	63732f70 	cmnvs	r3, #112, 30	; 0x1c0
     444:	6c6f6f68 	stclvs	15, cr6, [pc], #-416	; 2ac <__code_start__-0x7d54>
     448:	7270532f 	rsbsvc	r5, r0, #-1140850688	; 0xbc000000
     44c:	31676e69 	cmncc	r7, r9, ror #28
     450:	2f303239 	svccs	0x00303239
     454:	34325343 	ldrtcc	r5, [r2], #-835	; 0x343
     458:	2f584c30 	svccs	0x00584c30
     45c:	34327363 	ldrtcc	r7, [r2], #-867	; 0x363
     460:	2d786c30 	ldclcs	12, cr6, [r8, #-192]!	; 0xffffff40
     464:	70733032 	rsbsvc	r3, r3, r2, lsr r0
     468:	696c2f72 	stmdbvs	ip!, {r1, r4, r5, r6, r8, r9, sl, fp, sp}^
     46c:	2f697062 	svccs	0x00697062
     470:	6c636e69 	stclvs	14, cr6, [r3], #-420	; 0xfffffe5c
     474:	00656475 	rsbeq	r6, r5, r5, ror r4
     478:	74757000 	ldrbtvc	r7, [r5], #-0
     47c:	72616863 	rsbvc	r6, r1, #6488064	; 0x630000
     480:	0100632e 	tsteq	r0, lr, lsr #6
     484:	70720000 	rsbsvc	r0, r2, r0
     488:	00682e69 	rsbeq	r2, r8, r9, ror #28
     48c:	00000002 	andeq	r0, r0, r2
     490:	a8020500 	stmdage	r2, {r8, sl}
     494:	14000085 	strne	r0, [r0], #-133	; 0x85
     498:	bc136b4a 	ldclt	11, cr6, [r3], {74}	; 0x4a
     49c:	00080213 	andeq	r0, r8, r3, lsl r2
     4a0:	00a00101 	adceq	r0, r0, r1, lsl #2
     4a4:	00020000 	andeq	r0, r2, r0
     4a8:	00000079 	andeq	r0, r0, r9, ror r0
     4ac:	0efb0102 	cdpeq	1, 15, cr0, cr11, cr2, {0}
     4b0:	0101000d 	tsteq	r1, sp
     4b4:	00000101 	andeq	r0, r0, r1, lsl #2
     4b8:	00000100 	andeq	r0, r0, r0, lsl #2
     4bc:	62696c01 	rsbvs	r6, r9, #256	; 0x100
     4c0:	552f0063 	strpl	r0, [pc, #-99]!	; 465 <__code_start__-0x7b9b>
     4c4:	73726573 	cmnvc	r2, #482344960	; 0x1cc00000
     4c8:	6972622f 	ldmdbvs	r2!, {r0, r1, r2, r3, r5, r9, sp, lr}^
     4cc:	756a6e61 	strbvc	r6, [sl, #-3681]!	; 0xe61
     4d0:	65442f6e 	strbvs	r2, [r4, #-3950]	; 0xf6e
     4d4:	6f746b73 	svcvs	0x00746b73
     4d8:	63732f70 	cmnvs	r3, #112, 30	; 0x1c0
     4dc:	6c6f6f68 	stclvs	15, cr6, [pc], #-416	; 344 <__code_start__-0x7cbc>
     4e0:	7270532f 	rsbsvc	r5, r0, #-1140850688	; 0xbc000000
     4e4:	31676e69 	cmncc	r7, r9, ror #28
     4e8:	2f303239 	svccs	0x00303239
     4ec:	34325343 	ldrtcc	r5, [r2], #-835	; 0x343
     4f0:	2f584c30 	svccs	0x00584c30
     4f4:	34327363 	ldrtcc	r7, [r2], #-867	; 0x363
     4f8:	2d786c30 	ldclcs	12, cr6, [r8, #-192]!	; 0xffffff40
     4fc:	70733032 	rsbsvc	r3, r3, r2, lsr r0
     500:	696c2f72 	stmdbvs	ip!, {r1, r4, r5, r6, r8, r9, sl, fp, sp}^
     504:	2f697062 	svccs	0x00697062
     508:	6c636e69 	stclvs	14, cr6, [r3], #-420	; 0xfffffe5c
     50c:	00656475 	rsbeq	r6, r5, r5, ror r4
     510:	74757000 	ldrbtvc	r7, [r5], #-0
     514:	00632e6b 	rsbeq	r2, r3, fp, ror #28
     518:	72000001 	andvc	r0, r0, #1
     51c:	682e6970 	stmdavs	lr!, {r4, r5, r6, r8, fp, sp, lr}
     520:	00000200 	andeq	r0, r0, r0, lsl #4
     524:	02050000 	andeq	r0, r5, #0
     528:	000085e4 	andeq	r8, r0, r4, ror #11
     52c:	002d4c15 	eoreq	r4, sp, r5, lsl ip
     530:	2f020402 	svccs	0x00020402
     534:	02040200 	andeq	r0, r4, #0, 4
     538:	04020049 	streq	r0, [r2], #-73	; 0x49
     53c:	062e0601 	strteq	r0, [lr], -r1, lsl #12
     540:	0006026b 	andeq	r0, r6, fp, ror #4
     544:	01f10101 	mvnseq	r0, r1, lsl #2
     548:	00020000 	andeq	r0, r2, r0
     54c:	000000e9 	andeq	r0, r0, r9, ror #1
     550:	0efb0102 	cdpeq	1, 15, cr0, cr11, cr2, {0}
     554:	0101000d 	tsteq	r1, sp
     558:	00000101 	andeq	r0, r0, r1, lsl #2
     55c:	00000100 	andeq	r0, r0, r0, lsl #2
     560:	62696c01 	rsbvs	r6, r9, #256	; 0x100
     564:	752f0063 	strvc	r0, [pc, #-99]!	; 509 <__code_start__-0x7af7>
     568:	6c2f7273 	sfmvs	f7, 4, [pc], #-460	; 3a4 <__code_start__-0x7c5c>
     56c:	6c61636f 	stclvs	3, cr6, [r1], #-444	; 0xfffffe44
     570:	6c65432f 	stclvs	3, cr4, [r5], #-188	; 0xffffff44
     574:	2f72616c 	svccs	0x0072616c
     578:	2d6d7261 	sfmcs	f7, 2, [sp, #-388]!	; 0xfffffe7c
     57c:	656e6f6e 	strbvs	r6, [lr, #-3950]!	; 0xf6e
     580:	6261652d 	rsbvs	r6, r1, #188743680	; 0xb400000
     584:	2e342f69 	cdpcs	15, 3, cr2, cr4, cr9, {3}
     588:	2d332e38 	ldccs	14, cr2, [r3, #-224]!	; 0xffffff20
     58c:	37317363 	ldrcc	r7, [r1, -r3, ror #6]!
     590:	6c2f6530 	cfstr32vs	mvfx6, [pc], #-192	; 4d8 <__code_start__-0x7b28>
     594:	672f6269 	strvs	r6, [pc, -r9, ror #4]!
     598:	612f6363 	teqvs	pc, r3, ror #6
     59c:	6e2d6d72 	mcrvs	13, 1, r6, cr13, cr2, {3}
     5a0:	2d656e6f 	stclcs	14, cr6, [r5, #-444]!	; 0xfffffe44
     5a4:	69626165 	stmdbvs	r2!, {r0, r2, r5, r6, r8, sp, lr}^
     5a8:	382e342f 	stmdacc	lr!, {r0, r1, r2, r3, r5, sl, ip, sp}
     5ac:	692f332e 	stmdbvs	pc!, {r1, r2, r3, r5, r8, r9, ip, sp}	; <UNPREDICTABLE>
     5b0:	756c636e 	strbvc	r6, [ip, #-878]!	; 0x36e
     5b4:	2f006564 	svccs	0x00006564
     5b8:	72657355 	rsbvc	r7, r5, #1409286145	; 0x54000001
     5bc:	72622f73 	rsbvc	r2, r2, #460	; 0x1cc
     5c0:	6a6e6169 	bvs	1b98b6c <__bss_end__+0x1b8f0f4>
     5c4:	442f6e75 	strtmi	r6, [pc], #-3701	; 5cc <__code_start__-0x7a34>
     5c8:	746b7365 	strbtvc	r7, [fp], #-869	; 0x365
     5cc:	732f706f 	teqvc	pc, #111	; 0x6f
     5d0:	6f6f6863 	svcvs	0x006f6863
     5d4:	70532f6c 	subsvc	r2, r3, ip, ror #30
     5d8:	676e6972 			; <UNDEFINED> instruction: 0x676e6972
     5dc:	30323931 	eorscc	r3, r2, r1, lsr r9
     5e0:	3253432f 	subscc	r4, r3, #-1140850688	; 0xbc000000
     5e4:	584c3034 	stmdapl	ip, {r2, r4, r5, ip, sp}^
     5e8:	3273632f 	rsbscc	r6, r3, #-1140850688	; 0xbc000000
     5ec:	786c3034 	stmdavc	ip!, {r2, r4, r5, ip, sp}^
     5f0:	7330322d 	teqvc	r0, #-805306366	; 0xd0000002
     5f4:	6c2f7270 	sfmvs	f7, 4, [pc], #-448	; 43c <__code_start__-0x7bc4>
     5f8:	69706269 	ldmdbvs	r0!, {r0, r3, r5, r6, r9, sp, lr}^
     5fc:	636e692f 	cmnvs	lr, #770048	; 0xbc000
     600:	6564756c 	strbvs	r7, [r4, #-1388]!	; 0x56c
     604:	61760000 	cmnvs	r6, r0
     608:	6972702d 	ldmdbvs	r2!, {r0, r2, r3, r5, ip, sp, lr}^
     60c:	2e6b746e 	cdpcs	4, 6, cr7, cr11, cr14, {3}
     610:	00010063 	andeq	r0, r1, r3, rrx
     614:	64747300 	ldrbtvs	r7, [r4], #-768	; 0x300
     618:	2e677261 	cdpcs	2, 6, cr7, cr7, cr1, {3}
     61c:	00020068 	andeq	r0, r2, r8, rrx
     620:	69707200 	ldmdbvs	r0!, {r9, ip, sp, lr}^
     624:	0300682e 	movweq	r6, #2094	; 0x82e
     628:	623c0000 	eorsvs	r0, ip, #0
     62c:	746c6975 	strbtvc	r6, [ip], #-2421	; 0x975
     630:	3e6e692d 	cdpcc	9, 6, cr6, cr14, cr13, {1}
     634:	00000000 	andeq	r0, r0, r0
     638:	02050000 	andeq	r0, r5, #0
     63c:	00008618 	andeq	r8, r0, r8, lsl r6
     640:	01012603 	tsteq	r1, r3, lsl #12
     644:	2d3113a5 	ldccs	3, cr1, [r1, #-660]!	; 0xfffffd6c
     648:	02040200 	andeq	r0, r4, #0, 4
     64c:	0402002f 	streq	r0, [r2], #-47	; 0x2f
     650:	02002d02 	andeq	r2, r0, #2, 26	; 0x80
     654:	002f0204 	eoreq	r0, pc, r4, lsl #4
     658:	2d010402 	cfstrscs	mvf0, [r1, #-8]
     65c:	14304c4c 	ldrtne	r4, [r0], #-3148	; 0xc4c
     660:	004f2f4b 	subeq	r2, pc, fp, asr #30
     664:	67020402 	strvs	r0, [r2, -r2, lsl #8]
     668:	01040200 	mrseq	r0, R12_usr
     66c:	304d4c65 	subcc	r4, sp, r5, ror #24
     670:	30312fa0 	eorscc	r2, r1, r0, lsr #31
     674:	84162602 	ldrhi	r2, [r6], #-1538	; 0x602
     678:	02002c2d 	andeq	r2, r0, #11520	; 0x2d00
     67c:	00300104 	eorseq	r0, r0, r4, lsl #2
     680:	33010402 	movwcc	r0, #5122	; 0x1402
     684:	02006606 	andeq	r6, r0, #6291456	; 0x600000
     688:	002e0104 	eoreq	r0, lr, r4, lsl #2
     68c:	06010402 	streq	r0, [r1], -r2, lsl #8
     690:	2f672108 	svccs	0x00672108
     694:	03827303 	orreq	r7, r2, #201326592	; 0xc000000
     698:	02002e13 	andeq	r2, r0, #304	; 0x130
     69c:	66060104 	strvs	r0, [r6], -r4, lsl #2
     6a0:	01040200 	mrseq	r0, R12_usr
     6a4:	4b4b8306 	blmi	12e12c4 <__bss_end__+0x12d784c>
     6a8:	034b3167 	movteq	r3, #45415	; 0xb167
     6ac:	23032e65 	movwcs	r2, #15973	; 0x3e65
     6b0:	0402002e 	streq	r0, [r2], #-46	; 0x2e
     6b4:	002e0601 	eoreq	r0, lr, r1, lsl #12
     6b8:	06010402 	streq	r0, [r1], -r2, lsl #8
     6bc:	0402009f 	streq	r0, [r2], #-159	; 0x9f
     6c0:	23086a01 	movwcs	r6, #35329	; 0x8a01
     6c4:	7fa403d7 	svcvc	0x00a403d7
     6c8:	004b3c08 	subeq	r3, fp, r8, lsl #24
     6cc:	06010402 	streq	r0, [r1], -r2, lsl #8
     6d0:	2108064a 	tstcs	r8, sl, asr #12
     6d4:	034b2f4b 	movteq	r2, #48971	; 0xbf4b
     6d8:	9ff200db 	svcls	0x00f200db
     6dc:	4b32484c 	blmi	c92814 <__bss_end__+0xc88d9c>
     6e0:	2f4b842f 	svccs	0x004b842f
     6e4:	30314d2d 	eorscc	r4, r1, sp, lsr #26
     6e8:	0200832f 	andeq	r8, r0, #-1140850688	; 0xbc000000
     6ec:	be2c0104 	suflte	f0, f4, f4
     6f0:	01040200 	mrseq	r0, R12_usr
     6f4:	08064a06 	stmdaeq	r6, {r1, r2, r9, fp, lr}
     6f8:	16360222 	ldrtne	r0, [r6], -r2, lsr #4
     6fc:	08d60e03 	ldmeq	r6, {r0, r1, r9, sl, fp}^
     700:	21083021 	tstcs	r8, r1, lsr #32
     704:	30210831 	eorcc	r0, r1, r1, lsr r8
     708:	4b302108 	blmi	c08b30 <__bss_end__+0xbff0b8>
     70c:	30210830 	eorcc	r0, r1, r0, lsr r8
     710:	d983834b 	stmible	r3, {r0, r1, r3, r6, r8, r9, pc}
     714:	02002f31 	andeq	r2, r0, #49, 30	; 0xc4
     718:	00650104 	rsbeq	r0, r5, r4, lsl #2
     71c:	06020402 	streq	r0, [r2], -r2, lsl #8
     720:	0402004a 	streq	r0, [r2], #-74	; 0x4a
     724:	bf030601 	svclt	0x00030601
     728:	0200667f 	andeq	r6, r0, #133169152	; 0x7f00000
     72c:	66060204 	strvs	r0, [r6], -r4, lsl #4
     730:	00c50306 	sbceq	r0, r5, r6, lsl #6
     734:	1602684a 	strne	r6, [r2], -sl, asr #16
     738:	9d010100 	stflss	f0, [r1, #-0]
     73c:	02000000 	andeq	r0, r0, #0
     740:	00008600 	andeq	r8, r0, r0, lsl #12
     744:	fb010200 	blx	40f4e <__bss_end__+0x374d6>
     748:	01000d0e 	tsteq	r0, lr, lsl #26
     74c:	00010101 	andeq	r0, r1, r1, lsl #2
     750:	00010000 	andeq	r0, r1, r0
     754:	74730100 	ldrbtvc	r0, [r3], #-256	; 0x100
     758:	2d666661 	stclcs	6, cr6, [r6, #-388]!	; 0xfffffe7c
     75c:	00637273 	rsbeq	r7, r3, r3, ror r2
     760:	6573552f 	ldrbvs	r5, [r3, #-1327]!	; 0x52f
     764:	622f7372 	eorvs	r7, pc, #-939524095	; 0xc8000001
     768:	6e616972 	mcrvs	9, 3, r6, cr1, cr2, {3}
     76c:	2f6e756a 	svccs	0x006e756a
     770:	6b736544 	blvs	1cd9c88 <__bss_end__+0x1cd0210>
     774:	2f706f74 	svccs	0x00706f74
     778:	6f686373 	svcvs	0x00686373
     77c:	532f6c6f 	teqpl	pc, #28416	; 0x6f00
     780:	6e697270 	mcrvs	2, 3, r7, cr9, cr0, {3}
     784:	32393167 	eorscc	r3, r9, #-1073741799	; 0xc0000019
     788:	53432f30 	movtpl	r2, #16176	; 0x3f30
     78c:	4c303432 	cfldrsmi	mvf3, [r0], #-200	; 0xffffff38
     790:	73632f58 	cmnvc	r3, #88, 30	; 0x160
     794:	6c303432 	cfldrsvs	mvf3, [r0], #-200	; 0xffffff38
     798:	30322d78 	eorscc	r2, r2, r8, ror sp
     79c:	2f727073 	svccs	0x00727073
     7a0:	7062696c 	rsbvc	r6, r2, ip, ror #18
     7a4:	6e692f69 	cdpvs	15, 6, cr2, cr9, cr9, {3}
     7a8:	64756c63 	ldrbtvs	r6, [r5], #-3171	; 0xc63
     7ac:	63000065 	movwvs	r0, #101	; 0x65
     7b0:	6e61656c 	cdpvs	5, 6, cr6, cr1, cr12, {3}
     7b4:	6265722d 	rsbvs	r7, r5, #-805306366	; 0xd0000002
     7b8:	2e746f6f 	cdpcs	15, 7, cr6, cr4, cr15, {3}
     7bc:	00010063 	andeq	r0, r1, r3, rrx
     7c0:	69707200 	ldmdbvs	r0!, {r9, ip, sp, lr}^
     7c4:	0200682e 	andeq	r6, r0, #3014656	; 0x2e0000
     7c8:	00000000 	andeq	r0, r0, r0
     7cc:	8b900205 	blhi	fe400fe8 <__bss_end__+0xfe3f7570>
     7d0:	2f150000 	svccs	0x00150000
     7d4:	024b832f 	subeq	r8, fp, #-1140850688	; 0xbc000000
     7d8:	01010006 	tsteq	r1, r6
     7dc:	000000a6 	andeq	r0, r0, r6, lsr #1
     7e0:	00800002 	addeq	r0, r0, r2
     7e4:	01020000 	mrseq	r0, (UNDEF: 2)
     7e8:	000d0efb 	strdeq	r0, [sp], -fp
     7ec:	01010101 	tsteq	r1, r1, lsl #2
     7f0:	01000000 	mrseq	r0, (UNDEF: 0)
     7f4:	73010000 	movwvc	r0, #4096	; 0x1000
     7f8:	66666174 			; <UNDEFINED> instruction: 0x66666174
     7fc:	6372732d 	cmnvs	r2, #-1275068416	; 0xb4000000
     800:	73552f00 	cmpvc	r5, #0, 30
     804:	2f737265 	svccs	0x00737265
     808:	61697262 	cmnvs	r9, r2, ror #4
     80c:	6e756a6e 	vsubvs.f32	s13, s10, s29
     810:	7365442f 	cmnvc	r5, #788529152	; 0x2f000000
     814:	706f746b 	rsbvc	r7, pc, fp, ror #8
     818:	6863732f 	stmdavs	r3!, {r0, r1, r2, r3, r5, r8, r9, ip, sp, lr}^
     81c:	2f6c6f6f 	svccs	0x006c6f6f
     820:	69727053 	ldmdbvs	r2!, {r0, r1, r4, r6, ip, sp, lr}^
     824:	3931676e 	ldmdbcc	r1!, {r1, r2, r3, r5, r6, r8, r9, sl, sp, lr}
     828:	432f3032 	teqmi	pc, #50	; 0x32
     82c:	30343253 	eorscc	r3, r4, r3, asr r2
     830:	632f584c 	teqvs	pc, #76, 16	; 0x4c0000
     834:	30343273 	eorscc	r3, r4, r3, ror r2
     838:	322d786c 	eorcc	r7, sp, #108, 16	; 0x6c0000
     83c:	72707330 	rsbsvc	r7, r0, #48, 6	; 0xc0000000
     840:	62696c2f 	rsbvs	r6, r9, #12032	; 0x2f00
     844:	692f6970 	stmdbvs	pc!, {r4, r5, r6, r8, fp, sp, lr}	; <UNPREDICTABLE>
     848:	756c636e 	strbvc	r6, [ip, #-878]!	; 0x36e
     84c:	00006564 	andeq	r6, r0, r4, ror #10
     850:	61747363 	cmnvs	r4, r3, ror #6
     854:	632e7472 	teqvs	lr, #1912602624	; 0x72000000
     858:	00000100 	andeq	r0, r0, r0, lsl #2
     85c:	2e697072 	mcrcs	0, 3, r7, cr9, cr2, {3}
     860:	00020068 	andeq	r0, r2, r8, rrx
     864:	05000000 	streq	r0, [r0, #-0]
     868:	008bbc02 	addeq	fp, fp, r2, lsl #24
     86c:	010c0300 	mrseq	r0, LR_mon
     870:	2d2f3132 	stfcss	f3, [pc, #-200]!	; 7b0 <__code_start__-0x7850>
     874:	0402002f 	streq	r0, [r2], #-47	; 0x2f
     878:	09034901 	stmdbeq	r3, {r0, r8, fp, lr}
     87c:	2e0d034a 	cdpcs	3, 0, cr0, cr13, cr10, {2}
     880:	0006022f 	andeq	r0, r6, pc, lsr #4
     884:	00a20101 	adceq	r0, r2, r1, lsl #2
     888:	00020000 	andeq	r0, r2, r0
     88c:	0000008e 	andeq	r0, r0, lr, lsl #1
     890:	0efb0102 	cdpeq	1, 15, cr0, cr11, cr2, {0}
     894:	0101000d 	tsteq	r1, sp
     898:	00000101 	andeq	r0, r0, r1, lsl #2
     89c:	00000100 	andeq	r0, r0, r0, lsl #2
     8a0:	61747301 	cmnvs	r4, r1, lsl #6
     8a4:	732d6666 	teqvc	sp, #106954752	; 0x6600000
     8a8:	2f006372 	svccs	0x00006372
     8ac:	72657355 	rsbvc	r7, r5, #1409286145	; 0x54000001
     8b0:	72622f73 	rsbvc	r2, r2, #460	; 0x1cc
     8b4:	6a6e6169 	bvs	1b98e60 <__bss_end__+0x1b8f3e8>
     8b8:	442f6e75 	strtmi	r6, [pc], #-3701	; 8c0 <__code_start__-0x7740>
     8bc:	746b7365 	strbtvc	r7, [fp], #-869	; 0x365
     8c0:	732f706f 	teqvc	pc, #111	; 0x6f
     8c4:	6f6f6863 	svcvs	0x006f6863
     8c8:	70532f6c 	subsvc	r2, r3, ip, ror #30
     8cc:	676e6972 			; <UNDEFINED> instruction: 0x676e6972
     8d0:	30323931 	eorscc	r3, r2, r1, lsr r9
     8d4:	3253432f 	subscc	r4, r3, #-1140850688	; 0xbc000000
     8d8:	584c3034 	stmdapl	ip, {r2, r4, r5, ip, sp}^
     8dc:	3273632f 	rsbscc	r6, r3, #-1140850688	; 0xbc000000
     8e0:	786c3034 	stmdavc	ip!, {r2, r4, r5, ip, sp}^
     8e4:	7330322d 	teqvc	r0, #-805306366	; 0xd0000002
     8e8:	6c2f7270 	sfmvs	f7, 4, [pc], #-448	; 730 <__code_start__-0x78d0>
     8ec:	69706269 	ldmdbvs	r0!, {r0, r3, r5, r6, r9, sp, lr}^
     8f0:	636e692f 	cmnvs	lr, #770048	; 0xbc000
     8f4:	6564756c 	strbvs	r7, [r4, #-1388]!	; 0x56c
     8f8:	65640000 	strbvs	r0, [r4, #-0]!
     8fc:	6c756166 	ldfvse	f6, [r5], #-408	; 0xfffffe68
     900:	61682d74 	smcvs	33492	; 0x82d4
     904:	656c646e 	strbvs	r6, [ip, #-1134]!	; 0x46e
     908:	61662d72 	smcvs	25298	; 0x62d2
     90c:	632e7473 	teqvs	lr, #1929379840	; 0x73000000
     910:	00000100 	andeq	r0, r0, r0, lsl #2
     914:	2e697072 	mcrcs	0, 3, r7, cr9, cr2, {3}
     918:	00020068 	andeq	r0, r2, r8, rrx
     91c:	05000000 	streq	r0, [r0, #-0]
     920:	008bf402 	addeq	pc, fp, r2, lsl #8
     924:	02661300 	rsbeq	r1, r6, #0, 6
     928:	0101001c 	tsteq	r1, ip, lsl r0
     92c:	000000a3 	andeq	r0, r0, r3, lsr #1
     930:	008f0002 	addeq	r0, pc, r2
     934:	01020000 	mrseq	r0, (UNDEF: 2)
     938:	000d0efb 	strdeq	r0, [sp], -fp
     93c:	01010101 	tsteq	r1, r1, lsl #2
     940:	01000000 	mrseq	r0, (UNDEF: 0)
     944:	73010000 	movwvc	r0, #4096	; 0x1000
     948:	66666174 			; <UNDEFINED> instruction: 0x66666174
     94c:	6372732d 	cmnvs	r2, #-1275068416	; 0xb4000000
     950:	73552f00 	cmpvc	r5, #0, 30
     954:	2f737265 	svccs	0x00737265
     958:	61697262 	cmnvs	r9, r2, ror #4
     95c:	6e756a6e 	vsubvs.f32	s13, s10, s29
     960:	7365442f 	cmnvc	r5, #788529152	; 0x2f000000
     964:	706f746b 	rsbvc	r7, pc, fp, ror #8
     968:	6863732f 	stmdavs	r3!, {r0, r1, r2, r3, r5, r8, r9, ip, sp, lr}^
     96c:	2f6c6f6f 	svccs	0x006c6f6f
     970:	69727053 	ldmdbvs	r2!, {r0, r1, r4, r6, ip, sp, lr}^
     974:	3931676e 	ldmdbcc	r1!, {r1, r2, r3, r5, r6, r8, r9, sl, sp, lr}
     978:	432f3032 	teqmi	pc, #50	; 0x32
     97c:	30343253 	eorscc	r3, r4, r3, asr r2
     980:	632f584c 	teqvs	pc, #76, 16	; 0x4c0000
     984:	30343273 	eorscc	r3, r4, r3, ror r2
     988:	322d786c 	eorcc	r7, sp, #108, 16	; 0x6c0000
     98c:	72707330 	rsbsvc	r7, r0, #48, 6	; 0xc0000000
     990:	62696c2f 	rsbvs	r6, r9, #12032	; 0x2f00
     994:	692f6970 	stmdbvs	pc!, {r4, r5, r6, r8, fp, sp, lr}	; <UNPREDICTABLE>
     998:	756c636e 	strbvc	r6, [ip, #-878]!	; 0x36e
     99c:	00006564 	andeq	r6, r0, r4, ror #10
     9a0:	61666564 	cmnvs	r6, r4, ror #10
     9a4:	2d746c75 	ldclcs	12, cr6, [r4, #-468]!	; 0xfffffe2c
     9a8:	646e6168 	strbtvs	r6, [lr], #-360	; 0x168
     9ac:	2d72656c 	cfldr64cs	mvdx6, [r2, #-432]!	; 0xfffffe50
     9b0:	65736572 	ldrbvs	r6, [r3, #-1394]!	; 0x572
     9b4:	00632e74 	rsbeq	r2, r3, r4, ror lr
     9b8:	72000001 	andvc	r0, r0, #1
     9bc:	682e6970 	stmdavs	lr!, {r4, r5, r6, r8, fp, sp, lr}
     9c0:	00000200 	andeq	r0, r0, r0, lsl #4
     9c4:	02050000 	andeq	r0, r5, #0
     9c8:	00008c38 	andeq	r8, r0, r8, lsr ip
     9cc:	1c026613 	stcne	6, cr6, [r2], {19}
     9d0:	a1010100 	mrsge	r0, (UNDEF: 17)
     9d4:	02000000 	andeq	r0, r0, #0
     9d8:	00008d00 	andeq	r8, r0, r0, lsl #26
     9dc:	fb010200 	blx	411e6 <__bss_end__+0x3776e>
     9e0:	01000d0e 	tsteq	r0, lr, lsl #26
     9e4:	00010101 	andeq	r0, r1, r1, lsl #2
     9e8:	00010000 	andeq	r0, r1, r0
     9ec:	74730100 	ldrbtvc	r0, [r3], #-256	; 0x100
     9f0:	2d666661 	stclcs	6, cr6, [r6, #-388]!	; 0xfffffe7c
     9f4:	00637273 	rsbeq	r7, r3, r3, ror r2
     9f8:	6573552f 	ldrbvs	r5, [r3, #-1327]!	; 0x52f
     9fc:	622f7372 	eorvs	r7, pc, #-939524095	; 0xc8000001
     a00:	6e616972 	mcrvs	9, 3, r6, cr1, cr2, {3}
     a04:	2f6e756a 	svccs	0x006e756a
     a08:	6b736544 	blvs	1cd9f20 <__bss_end__+0x1cd04a8>
     a0c:	2f706f74 	svccs	0x00706f74
     a10:	6f686373 	svcvs	0x00686373
     a14:	532f6c6f 	teqpl	pc, #28416	; 0x6f00
     a18:	6e697270 	mcrvs	2, 3, r7, cr9, cr0, {3}
     a1c:	32393167 	eorscc	r3, r9, #-1073741799	; 0xc0000019
     a20:	53432f30 	movtpl	r2, #16176	; 0x3f30
     a24:	4c303432 	cfldrsmi	mvf3, [r0], #-200	; 0xffffff38
     a28:	73632f58 	cmnvc	r3, #88, 30	; 0x160
     a2c:	6c303432 	cfldrsvs	mvf3, [r0], #-200	; 0xffffff38
     a30:	30322d78 	eorscc	r2, r2, r8, ror sp
     a34:	2f727073 	svccs	0x00727073
     a38:	7062696c 	rsbvc	r6, r2, ip, ror #18
     a3c:	6e692f69 	cdpvs	15, 6, cr2, cr9, cr9, {3}
     a40:	64756c63 	ldrbtvs	r6, [r5], #-3171	; 0xc63
     a44:	64000065 	strvs	r0, [r0], #-101	; 0x65
     a48:	75616665 	strbvc	r6, [r1, #-1637]!	; 0x665
     a4c:	682d746c 	stmdavs	sp!, {r2, r3, r5, r6, sl, ip, sp, lr}
     a50:	6c646e61 	stclvs	14, cr6, [r4], #-388	; 0xfffffe7c
     a54:	732d7265 	teqvc	sp, #1342177286	; 0x50000006
     a58:	632e6977 	teqvs	lr, #1949696	; 0x1dc000
     a5c:	00000100 	andeq	r0, r0, r0, lsl #2
     a60:	2e697072 	mcrcs	0, 3, r7, cr9, cr2, {3}
     a64:	00020068 	andeq	r0, r2, r8, rrx
     a68:	05000000 	streq	r0, [r0, #-0]
     a6c:	008c7c02 	addeq	r7, ip, r2, lsl #24
     a70:	02661300 	rsbeq	r1, r6, #0, 6
     a74:	0101001c 	tsteq	r1, ip, lsl r0
     a78:	000000ac 	andeq	r0, r0, ip, lsr #1
     a7c:	00980002 	addseq	r0, r8, r2
     a80:	01020000 	mrseq	r0, (UNDEF: 2)
     a84:	000d0efb 	strdeq	r0, [sp], -fp
     a88:	01010101 	tsteq	r1, r1, lsl #2
     a8c:	01000000 	mrseq	r0, (UNDEF: 0)
     a90:	73010000 	movwvc	r0, #4096	; 0x1000
     a94:	66666174 			; <UNDEFINED> instruction: 0x66666174
     a98:	6372732d 	cmnvs	r2, #-1275068416	; 0xb4000000
     a9c:	73552f00 	cmpvc	r5, #0, 30
     aa0:	2f737265 	svccs	0x00737265
     aa4:	61697262 	cmnvs	r9, r2, ror #4
     aa8:	6e756a6e 	vsubvs.f32	s13, s10, s29
     aac:	7365442f 	cmnvc	r5, #788529152	; 0x2f000000
     ab0:	706f746b 	rsbvc	r7, pc, fp, ror #8
     ab4:	6863732f 	stmdavs	r3!, {r0, r1, r2, r3, r5, r8, r9, ip, sp, lr}^
     ab8:	2f6c6f6f 	svccs	0x006c6f6f
     abc:	69727053 	ldmdbvs	r2!, {r0, r1, r4, r6, ip, sp, lr}^
     ac0:	3931676e 	ldmdbcc	r1!, {r1, r2, r3, r5, r6, r8, r9, sl, sp, lr}
     ac4:	432f3032 	teqmi	pc, #50	; 0x32
     ac8:	30343253 	eorscc	r3, r4, r3, asr r2
     acc:	632f584c 	teqvs	pc, #76, 16	; 0x4c0000
     ad0:	30343273 	eorscc	r3, r4, r3, ror r2
     ad4:	322d786c 	eorcc	r7, sp, #108, 16	; 0x6c0000
     ad8:	72707330 	rsbsvc	r7, r0, #48, 6	; 0xc0000000
     adc:	62696c2f 	rsbvs	r6, r9, #12032	; 0x2f00
     ae0:	692f6970 	stmdbvs	pc!, {r4, r5, r6, r8, fp, sp, lr}	; <UNPREDICTABLE>
     ae4:	756c636e 	strbvc	r6, [ip, #-878]!	; 0x36e
     ae8:	00006564 	andeq	r6, r0, r4, ror #10
     aec:	61666564 	cmnvs	r6, r4, ror #10
     af0:	2d746c75 	ldclcs	12, cr6, [r4, #-468]!	; 0xfffffe2c
     af4:	646e6168 	strbtvs	r6, [lr], #-360	; 0x168
     af8:	2d72656c 	cfldr64cs	mvdx6, [r2, #-432]!	; 0xfffffe50
     afc:	65646e75 	strbvs	r6, [r4, #-3701]!	; 0xe75
     b00:	656e6966 	strbvs	r6, [lr, #-2406]!	; 0x966
     b04:	6e692d64 	cdpvs	13, 6, cr2, cr9, cr4, {3}
     b08:	632e7473 	teqvs	lr, #1929379840	; 0x73000000
     b0c:	00000100 	andeq	r0, r0, r0, lsl #2
     b10:	2e697072 	mcrcs	0, 3, r7, cr9, cr2, {3}
     b14:	00020068 	andeq	r0, r2, r8, rrx
     b18:	05000000 	streq	r0, [r0, #-0]
     b1c:	008cc002 	addeq	ip, ip, r2
     b20:	02661300 	rsbeq	r1, r6, #0, 6
     b24:	0101001c 	tsteq	r1, ip, lsl r0
     b28:	00000047 	andeq	r0, r0, r7, asr #32
     b2c:	00330002 	eorseq	r0, r3, r2
     b30:	01020000 	mrseq	r0, (UNDEF: 2)
     b34:	000d0efb 	strdeq	r0, [sp], -fp
     b38:	01010101 	tsteq	r1, r1, lsl #2
     b3c:	01000000 	mrseq	r0, (UNDEF: 0)
     b40:	73010000 	movwvc	r0, #4096	; 0x1000
     b44:	66666174 			; <UNDEFINED> instruction: 0x66666174
     b48:	6372732d 	cmnvs	r2, #-1275068416	; 0xb4000000
     b4c:	65640000 	strbvs	r0, [r4, #-0]!
     b50:	6c756166 	ldfvse	f6, [r5], #-408	; 0xfffffe68
     b54:	61682d74 	smcvs	33492	; 0x82d4
     b58:	656c646e 	strbvs	r6, [ip, #-1134]!	; 0x46e
     b5c:	632e7372 	teqvs	lr, #-939524095	; 0xc8000001
     b60:	00000100 	andeq	r0, r0, r0, lsl #2
     b64:	02050000 	andeq	r0, r5, #0
     b68:	00008d04 	andeq	r8, r0, r4, lsl #26
     b6c:	02022f15 	andeq	r2, r2, #21, 30	; 0x54
     b70:	c9010100 	stmdbgt	r1, {r8}
     b74:	02000000 	andeq	r0, r0, #0
     b78:	00009a00 	andeq	r9, r0, r0, lsl #20
     b7c:	fb010200 	blx	41386 <__bss_end__+0x3790e>
     b80:	01000d0e 	tsteq	r0, lr, lsl #26
     b84:	00010101 	andeq	r0, r1, r1, lsl #2
     b88:	00010000 	andeq	r0, r1, r0
     b8c:	74730100 	ldrbtvc	r0, [r3], #-256	; 0x100
     b90:	2d666661 	stclcs	6, cr6, [r6, #-388]!	; 0xfffffe7c
     b94:	00637273 	rsbeq	r7, r3, r3, ror r2
     b98:	6573552f 	ldrbvs	r5, [r3, #-1327]!	; 0x52f
     b9c:	622f7372 	eorvs	r7, pc, #-939524095	; 0xc8000001
     ba0:	6e616972 	mcrvs	9, 3, r6, cr1, cr2, {3}
     ba4:	2f6e756a 	svccs	0x006e756a
     ba8:	6b736544 	blvs	1cda0c0 <__bss_end__+0x1cd0648>
     bac:	2f706f74 	svccs	0x00706f74
     bb0:	6f686373 	svcvs	0x00686373
     bb4:	532f6c6f 	teqpl	pc, #28416	; 0x6f00
     bb8:	6e697270 	mcrvs	2, 3, r7, cr9, cr0, {3}
     bbc:	32393167 	eorscc	r3, r9, #-1073741799	; 0xc0000019
     bc0:	53432f30 	movtpl	r2, #16176	; 0x3f30
     bc4:	4c303432 	cfldrsmi	mvf3, [r0], #-200	; 0xffffff38
     bc8:	73632f58 	cmnvc	r3, #88, 30	; 0x160
     bcc:	6c303432 	cfldrsvs	mvf3, [r0], #-200	; 0xffffff38
     bd0:	30322d78 	eorscc	r2, r2, r8, ror sp
     bd4:	2f727073 	svccs	0x00727073
     bd8:	7062696c 	rsbvc	r6, r2, ip, ror #18
     bdc:	6e692f69 	cdpvs	15, 6, cr2, cr9, cr9, {3}
     be0:	64756c63 	ldrbtvs	r6, [r5], #-3171	; 0xc63
     be4:	69000065 	stmdbvs	r0, {r0, r2, r5, r6}
     be8:	7265746e 	rsbvc	r7, r5, #1845493760	; 0x6e000000
     bec:	74707572 	ldrbtvc	r7, [r0], #-1394	; 0x572
     bf0:	2e632d73 	mcrcs	13, 3, r2, cr3, cr3, {3}
     bf4:	00010063 	andeq	r0, r1, r3, rrx
     bf8:	69707200 	ldmdbvs	r0!, {r9, ip, sp, lr}^
     bfc:	746e692d 	strbtvc	r6, [lr], #-2349	; 0x92d
     c00:	75727265 	ldrbvc	r7, [r2, #-613]!	; 0x265
     c04:	2e737470 	mrccs	4, 3, r7, cr3, cr0, {3}
     c08:	00020068 	andeq	r0, r2, r8, rrx
     c0c:	69707200 	ldmdbvs	r0!, {r9, ip, sp, lr}^
     c10:	0200682e 	andeq	r6, r0, #3014656	; 0x2e0000
     c14:	00000000 	andeq	r0, r0, r0
     c18:	8d0c0205 	sfmhi	f0, 4, [ip, #-20]	; 0xffffffec
     c1c:	1a030000 	bne	c0c24 <__bss_end__+0xb71ac>
     c20:	672f3101 	strvs	r3, [pc, -r1, lsl #2]!
     c24:	2f833667 	svccs	0x00833667
     c28:	0402002d 	streq	r0, [r2], #-45	; 0x2d
     c2c:	02002f02 	andeq	r2, r0, #2, 30
     c30:	00650204 	rsbeq	r0, r5, r4, lsl #4
     c34:	06010402 	streq	r0, [r1], -r2, lsl #8
     c38:	024c062e 	subeq	r0, ip, #48234496	; 0x2e00000
     c3c:	0101000a 	tsteq	r1, sl
     c40:	000000a2 	andeq	r0, r0, r2, lsr #1
     c44:	00800002 	addeq	r0, r0, r2
     c48:	01020000 	mrseq	r0, (UNDEF: 2)
     c4c:	000d0efb 	strdeq	r0, [sp], -fp
     c50:	01010101 	tsteq	r1, r1, lsl #2
     c54:	01000000 	mrseq	r0, (UNDEF: 0)
     c58:	73010000 	movwvc	r0, #4096	; 0x1000
     c5c:	66666174 			; <UNDEFINED> instruction: 0x66666174
     c60:	6372732d 	cmnvs	r2, #-1275068416	; 0xb4000000
     c64:	73552f00 	cmpvc	r5, #0, 30
     c68:	2f737265 	svccs	0x00737265
     c6c:	61697262 	cmnvs	r9, r2, ror #4
     c70:	6e756a6e 	vsubvs.f32	s13, s10, s29
     c74:	7365442f 	cmnvc	r5, #788529152	; 0x2f000000
     c78:	706f746b 	rsbvc	r7, pc, fp, ror #8
     c7c:	6863732f 	stmdavs	r3!, {r0, r1, r2, r3, r5, r8, r9, ip, sp, lr}^
     c80:	2f6c6f6f 	svccs	0x006c6f6f
     c84:	69727053 	ldmdbvs	r2!, {r0, r1, r4, r6, ip, sp, lr}^
     c88:	3931676e 	ldmdbcc	r1!, {r1, r2, r3, r5, r6, r8, r9, sl, sp, lr}
     c8c:	432f3032 	teqmi	pc, #50	; 0x32
     c90:	30343253 	eorscc	r3, r4, r3, asr r2
     c94:	632f584c 	teqvs	pc, #76, 16	; 0x4c0000
     c98:	30343273 	eorscc	r3, r4, r3, ror r2
     c9c:	322d786c 	eorcc	r7, sp, #108, 16	; 0x6c0000
     ca0:	72707330 	rsbsvc	r7, r0, #48, 6	; 0xc0000000
     ca4:	62696c2f 	rsbvs	r6, r9, #12032	; 0x2f00
     ca8:	692f6970 	stmdbvs	pc!, {r4, r5, r6, r8, fp, sp, lr}	; <UNPREDICTABLE>
     cac:	756c636e 	strbvc	r6, [ip, #-878]!	; 0x36e
     cb0:	00006564 	andeq	r6, r0, r4, ror #10
     cb4:	6f626572 	svcvs	0x00626572
     cb8:	632e746f 	teqvs	lr, #1862270976	; 0x6f000000
     cbc:	00000100 	andeq	r0, r0, r0, lsl #2
     cc0:	2e697072 	mcrcs	0, 3, r7, cr9, cr2, {3}
     cc4:	00020068 	andeq	r0, r2, r8, rrx
     cc8:	05000000 	streq	r0, [r0, #-0]
     ccc:	008d7802 	addeq	r7, sp, r2, lsl #16
     cd0:	010d0300 	mrseq	r0, SP_mon
     cd4:	852f3114 	strhi	r3, [pc, #-276]!	; bc8 <__code_start__-0x7438>
     cd8:	4d4b2f15 	stclmi	15, cr2, [fp, #-84]	; 0xffffffac
     cdc:	5235672f 	eorspl	r6, r5, #12320768	; 0xbc0000
     ce0:	00100267 	andseq	r0, r0, r7, ror #4
     ce4:	00ae0101 	adceq	r0, lr, r1, lsl #2
     ce8:	00020000 	andeq	r0, r2, r0
     cec:	0000007f 	andeq	r0, r0, pc, ror r0
     cf0:	0efb0102 	cdpeq	1, 15, cr0, cr11, cr2, {0}
     cf4:	0101000d 	tsteq	r1, sp
     cf8:	00000101 	andeq	r0, r0, r1, lsl #2
     cfc:	00000100 	andeq	r0, r0, r0, lsl #2
     d00:	61747301 	cmnvs	r4, r1, lsl #6
     d04:	732d6666 	teqvc	sp, #106954752	; 0x6600000
     d08:	2f006372 	svccs	0x00006372
     d0c:	72657355 	rsbvc	r7, r5, #1409286145	; 0x54000001
     d10:	72622f73 	rsbvc	r2, r2, #460	; 0x1cc
     d14:	6a6e6169 	bvs	1b992c0 <__bss_end__+0x1b8f848>
     d18:	442f6e75 	strtmi	r6, [pc], #-3701	; d20 <__code_start__-0x72e0>
     d1c:	746b7365 	strbtvc	r7, [fp], #-869	; 0x365
     d20:	732f706f 	teqvc	pc, #111	; 0x6f
     d24:	6f6f6863 	svcvs	0x006f6863
     d28:	70532f6c 	subsvc	r2, r3, ip, ror #30
     d2c:	676e6972 			; <UNDEFINED> instruction: 0x676e6972
     d30:	30323931 	eorscc	r3, r2, r1, lsr r9
     d34:	3253432f 	subscc	r4, r3, #-1140850688	; 0xbc000000
     d38:	584c3034 	stmdapl	ip, {r2, r4, r5, ip, sp}^
     d3c:	3273632f 	rsbscc	r6, r3, #-1140850688	; 0xbc000000
     d40:	786c3034 	stmdavc	ip!, {r2, r4, r5, ip, sp}^
     d44:	7330322d 	teqvc	r0, #-805306366	; 0xd0000002
     d48:	6c2f7270 	sfmvs	f7, 4, [pc], #-448	; b90 <__code_start__-0x7470>
     d4c:	69706269 	ldmdbvs	r0!, {r0, r3, r5, r6, r9, sp, lr}^
     d50:	636e692f 	cmnvs	lr, #770048	; 0xbc000
     d54:	6564756c 	strbvs	r7, [r4, #-1388]!	; 0x56c
     d58:	69740000 	ldmdbvs	r4!, {}^	; <UNPREDICTABLE>
     d5c:	2e72656d 	cdpcs	5, 7, cr6, cr2, cr13, {3}
     d60:	00010063 	andeq	r0, r1, r3, rrx
     d64:	69707200 	ldmdbvs	r0!, {r9, ip, sp, lr}^
     d68:	0200682e 	andeq	r6, r0, #3014656	; 0x2e0000
     d6c:	00000000 	andeq	r0, r0, r0
     d70:	8dec0205 	sfmhi	f0, 2, [ip, #20]!
     d74:	14160000 	ldrne	r0, [r6], #-0
     d78:	02002d2f 	andeq	r2, r0, #3008	; 0xbc0
     d7c:	2e060104 	adfcss	f0, f6, f4
     d80:	2f316d06 	svccs	0x00316d06
     d84:	2f314d4b 	svccs	0x00314d4b
     d88:	4b4c304b 	blmi	130cebc <__bss_end__+0x1303444>
     d8c:	2f6a2f4c 	svccs	0x006a2f4c
     d90:	022f842f 	eoreq	r8, pc, #788529152	; 0x2f000000
     d94:	01010008 	tsteq	r1, r8
     d98:	00000148 	andeq	r0, r0, r8, asr #2
     d9c:	01020002 	tsteq	r2, r2
     da0:	01020000 	mrseq	r0, (UNDEF: 2)
     da4:	000d0efb 	strdeq	r0, [sp], -fp
     da8:	01010101 	tsteq	r1, r1, lsl #2
     dac:	01000000 	mrseq	r0, (UNDEF: 0)
     db0:	2f010000 	svccs	0x00010000
     db4:	2f727375 	svccs	0x00727375
     db8:	6c636e69 	stclvs	14, cr6, [r3], #-420	; 0xfffffe5c
     dbc:	2f656475 	svccs	0x00656475
     dc0:	6c77656e 	cfldr64vs	mvdx6, [r7], #-440	; 0xfffffe48
     dc4:	732f6269 	teqvc	pc, #-1879048186	; 0x90000006
     dc8:	2f007379 	svccs	0x00007379
     dcc:	2f727375 	svccs	0x00727375
     dd0:	2f62696c 	svccs	0x0062696c
     dd4:	2f636367 	svccs	0x00636367
     dd8:	2d6d7261 	sfmcs	f7, 2, [sp, #-388]!	; 0xfffffe7c
     ddc:	656e6f6e 	strbvs	r6, [lr, #-3950]!	; 0xf6e
     de0:	6261652d 	rsbvs	r6, r1, #188743680	; 0xb400000
     de4:	2e362f69 	cdpcs	15, 3, cr2, cr6, cr9, {3}
     de8:	2f312e33 	svccs	0x00312e33
     dec:	6c636e69 	stclvs	14, cr6, [r3], #-420	; 0xfffffe5c
     df0:	00656475 	rsbeq	r6, r5, r5, ror r4
     df4:	6d6f682f 	stclvs	8, cr6, [pc, #-188]!	; d40 <__code_start__-0x72c0>
     df8:	6e652f65 	cdpvs	15, 6, cr2, cr5, cr5, {3}
     dfc:	72656c67 	rsbvc	r6, r5, #26368	; 0x6700
     e00:	616c632f 	cmnvs	ip, pc, lsr #6
     e04:	632f7373 	teqvs	pc, #-872415231	; 0xcc000001
     e08:	30343273 	eorscc	r3, r4, r3, ror r2
     e0c:	322d786c 	eorcc	r7, sp, #108, 16	; 0x6c0000
     e10:	72707330 	rsbsvc	r7, r0, #48, 6	; 0xc0000000
     e14:	696c2f2f 	stmdbvs	ip!, {r0, r1, r2, r3, r5, r8, r9, sl, fp, sp}^
     e18:	00697062 	rsbeq	r7, r9, r2, rrx
     e1c:	6d6f682f 	stclvs	8, cr6, [pc, #-188]!	; d68 <__code_start__-0x7298>
     e20:	6e652f65 	cdpvs	15, 6, cr2, cr5, cr5, {3}
     e24:	72656c67 	rsbvc	r6, r5, #26368	; 0x6700
     e28:	616c632f 	cmnvs	ip, pc, lsr #6
     e2c:	632f7373 	teqvs	pc, #-872415231	; 0xcc000001
     e30:	30343273 	eorscc	r3, r4, r3, ror r2
     e34:	322d786c 	eorcc	r7, sp, #108, 16	; 0x6c0000
     e38:	72707330 	rsbsvc	r7, r0, #48, 6	; 0xc0000000
     e3c:	696c2f2f 	stmdbvs	ip!, {r0, r1, r2, r3, r5, r8, r9, sl, fp, sp}^
     e40:	2f697062 	svccs	0x00697062
     e44:	66617473 			; <UNDEFINED> instruction: 0x66617473
     e48:	72732d66 	rsbsvc	r2, r3, #6528	; 0x1980
     e4c:	75000063 	strvc	r0, [r0, #-99]	; 0x63
     e50:	2e747261 	cdpcs	2, 7, cr7, cr4, cr1, {3}
     e54:	00000063 	andeq	r0, r0, r3, rrx
     e58:	636f6c00 	cmnvs	pc, #0, 24
     e5c:	00682e6b 	rsbeq	r2, r8, fp, ror #28
     e60:	5f000001 	svcpl	0x00000001
     e64:	65707974 	ldrbvs	r7, [r0, #-2420]!	; 0x974
     e68:	00682e73 	rsbeq	r2, r8, r3, ror lr
     e6c:	73000001 	movwvc	r0, #1
     e70:	65646474 	strbvs	r6, [r4, #-1140]!	; 0x474
     e74:	00682e66 	rsbeq	r2, r8, r6, ror #28
     e78:	72000002 	andvc	r0, r0, #2
     e7c:	746e6565 	strbtvc	r6, [lr], #-1381	; 0x565
     e80:	0100682e 	tsteq	r0, lr, lsr #16
     e84:	70720000 	rsbsvc	r0, r2, r0
     e88:	00682e69 	rsbeq	r2, r8, r9, ror #28
     e8c:	75000003 	strvc	r0, [r0, #-3]
     e90:	2e747261 	cdpcs	2, 7, cr7, cr4, cr1, {3}
     e94:	00040068 	andeq	r0, r4, r8, rrx
     e98:	69706700 	ldmdbvs	r0!, {r8, r9, sl, sp, lr}^
     e9c:	00682e6f 	rsbeq	r2, r8, pc, ror #28
     ea0:	00000004 	andeq	r0, r0, r4
     ea4:	ec020500 	cfstr32	mvfx0, [r2], {-0}
     ea8:	0300008e 	movweq	r0, #142	; 0x8e
     eac:	0367012c 	cmneq	r7, #44, 2
     eb0:	67359e0c 	ldrvs	r9, [r5, -ip, lsl #28]!
     eb4:	03683568 	cmneq	r8, #104, 10	; 0x1a000000
     eb8:	6b852e0c 	blvs	fe14c6f0 <__bss_end__+0xfe142c78>
     ebc:	0c036969 	stceq	9, cr6, [r3], {105}	; 0x69
     ec0:	08676b66 	stmdaeq	r7!, {r1, r2, r5, r6, r8, r9, fp, sp, lr}^
     ec4:	4b683442 	blmi	1a0dfd4 <__bss_end__+0x1a0455c>
     ec8:	2f876836 	svccs	0x00876836
     ecc:	01040200 	mrseq	r0, R12_usr
     ed0:	3067682f 	rsbcc	r6, r7, pc, lsr #16
     ed4:	02004b67 	andeq	r4, r0, #105472	; 0x19c00
     ed8:	682f0104 	stmdavs	pc!, {r2, r8}	; <UNPREDICTABLE>
     edc:	022e6967 	eoreq	r6, lr, #1687552	; 0x19c000
     ee0:	01010006 	tsteq	r1, r6
     ee4:	0000012b 	andeq	r0, r0, fp, lsr #2
     ee8:	00f80002 	rscseq	r0, r8, r2
     eec:	01020000 	mrseq	r0, (UNDEF: 2)
     ef0:	000d0efb 	strdeq	r0, [sp], -fp
     ef4:	01010101 	tsteq	r1, r1, lsl #2
     ef8:	01000000 	mrseq	r0, (UNDEF: 0)
     efc:	2f010000 	svccs	0x00010000
     f00:	2f727375 	svccs	0x00727375
     f04:	6c636e69 	stclvs	14, cr6, [r3], #-420	; 0xfffffe5c
     f08:	2f656475 	svccs	0x00656475
     f0c:	6c77656e 	cfldr64vs	mvdx6, [r7], #-440	; 0xfffffe48
     f10:	732f6269 	teqvc	pc, #-1879048186	; 0x90000006
     f14:	2f007379 	svccs	0x00007379
     f18:	2f727375 	svccs	0x00727375
     f1c:	2f62696c 	svccs	0x0062696c
     f20:	2f636367 	svccs	0x00636367
     f24:	2d6d7261 	sfmcs	f7, 2, [sp, #-388]!	; 0xfffffe7c
     f28:	656e6f6e 	strbvs	r6, [lr, #-3950]!	; 0xf6e
     f2c:	6261652d 	rsbvs	r6, r1, #188743680	; 0xb400000
     f30:	2e362f69 	cdpcs	15, 3, cr2, cr6, cr9, {3}
     f34:	2f312e33 	svccs	0x00312e33
     f38:	6c636e69 	stclvs	14, cr6, [r3], #-420	; 0xfffffe5c
     f3c:	00656475 	rsbeq	r6, r5, r5, ror r4
     f40:	6d6f682f 	stclvs	8, cr6, [pc, #-188]!	; e8c <__code_start__-0x7174>
     f44:	6e652f65 	cdpvs	15, 6, cr2, cr5, cr5, {3}
     f48:	72656c67 	rsbvc	r6, r5, #26368	; 0x6700
     f4c:	616c632f 	cmnvs	ip, pc, lsr #6
     f50:	632f7373 	teqvs	pc, #-872415231	; 0xcc000001
     f54:	30343273 	eorscc	r3, r4, r3, ror r2
     f58:	322d786c 	eorcc	r7, sp, #108, 16	; 0x6c0000
     f5c:	72707330 	rsbsvc	r7, r0, #48, 6	; 0xc0000000
     f60:	696c2f2f 	stmdbvs	ip!, {r0, r1, r2, r3, r5, r8, r9, sl, fp, sp}^
     f64:	00697062 	rsbeq	r7, r9, r2, rrx
     f68:	6d6f682f 	stclvs	8, cr6, [pc, #-188]!	; eb4 <__code_start__-0x714c>
     f6c:	6e652f65 	cdpvs	15, 6, cr2, cr5, cr5, {3}
     f70:	72656c67 	rsbvc	r6, r5, #26368	; 0x6700
     f74:	616c632f 	cmnvs	ip, pc, lsr #6
     f78:	632f7373 	teqvs	pc, #-872415231	; 0xcc000001
     f7c:	30343273 	eorscc	r3, r4, r3, ror r2
     f80:	322d786c 	eorcc	r7, sp, #108, 16	; 0x6c0000
     f84:	72707330 	rsbsvc	r7, r0, #48, 6	; 0xc0000000
     f88:	696c2f2f 	stmdbvs	ip!, {r0, r1, r2, r3, r5, r8, r9, sl, fp, sp}^
     f8c:	2f697062 	svccs	0x00697062
     f90:	66617473 			; <UNDEFINED> instruction: 0x66617473
     f94:	72732d66 	rsbsvc	r2, r3, #6528	; 0x1980
     f98:	67000063 	strvs	r0, [r0, -r3, rrx]
     f9c:	2e6f6970 	mcrcs	9, 3, r6, cr15, cr0, {3}
     fa0:	00000063 	andeq	r0, r0, r3, rrx
     fa4:	636f6c00 	cmnvs	pc, #0, 24
     fa8:	00682e6b 	rsbeq	r2, r8, fp, ror #28
     fac:	5f000001 	svcpl	0x00000001
     fb0:	65707974 	ldrbvs	r7, [r0, #-2420]!	; 0x974
     fb4:	00682e73 	rsbeq	r2, r8, r3, ror lr
     fb8:	73000001 	movwvc	r0, #1
     fbc:	65646474 	strbvs	r6, [r4, #-1140]!	; 0x474
     fc0:	00682e66 	rsbeq	r2, r8, r6, ror #28
     fc4:	72000002 	andvc	r0, r0, #2
     fc8:	746e6565 	strbtvc	r6, [lr], #-1381	; 0x565
     fcc:	0100682e 	tsteq	r0, lr, lsr #16
     fd0:	70720000 	rsbsvc	r0, r2, r0
     fd4:	00682e69 	rsbeq	r2, r8, r9, ror #28
     fd8:	67000003 	strvs	r0, [r0, -r3]
     fdc:	2e6f6970 	mcrcs	9, 3, r6, cr15, cr0, {3}
     fe0:	00040068 	andeq	r0, r4, r8, rrx
     fe4:	05000000 	streq	r0, [r0, #-0]
     fe8:	00906402 	addseq	r6, r0, r2, lsl #8
     fec:	01270300 	teqeq	r7, r0, lsl #6
     ff0:	4f474c13 	svcmi	0x00474c13
     ff4:	4c4b68f4 	mcrrmi	8, 15, r6, fp, cr4
     ff8:	136a2fa1 	cmnne	sl, #644	; 0x284
     ffc:	13be3149 			; <UNDEFINED> instruction: 0x13be3149
    1000:	2fbe3149 	svccs	0x00be3149
    1004:	484d2f6a 	stmdami	sp, {r1, r3, r5, r6, r8, r9, sl, fp, sp}^
    1008:	3249134f 	subcc	r1, r9, #1006632961	; 0x3c000001
    100c:	0602b72f 	streq	fp, [r2], -pc, lsr #14
    1010:	Address 0x0000000000001010 is out of bounds.


Disassembly of section .debug_str:

00000000 <.debug_str>:
   0:	6573552f 	ldrbvs	r5, [r3, #-1327]!	; 0x52f
   4:	622f7372 	eorvs	r7, pc, #-939524095	; 0xc8000001
   8:	6e616972 	mcrvs	9, 3, r6, cr1, cr2, {3}
   c:	2f6e756a 	svccs	0x006e756a
  10:	6b736544 	blvs	1cd9528 <__bss_end__+0x1ccfab0>
  14:	2f706f74 	svccs	0x00706f74
  18:	6f686373 	svcvs	0x00686373
  1c:	532f6c6f 	teqpl	pc, #28416	; 0x6f00
  20:	6e697270 	mcrvs	2, 3, r7, cr9, cr0, {3}
  24:	32393167 	eorscc	r3, r9, #-1073741799	; 0xc0000019
  28:	53432f30 	movtpl	r2, #16176	; 0x3f30
  2c:	4c303432 	cfldrsmi	mvf3, [r0], #-200	; 0xffffff38
  30:	73632f58 	cmnvc	r3, #88, 30	; 0x160
  34:	6c303432 	cfldrsvs	mvf3, [r0], #-200	; 0xffffff38
  38:	30322d78 	eorscc	r2, r2, r8, ror sp
  3c:	2f727073 	svccs	0x00727073
  40:	7362616c 	cmnvc	r2, #108, 2
  44:	2d35312f 	ldfcss	f3, [r5, #-188]!	; 0xffffff44
  48:	63746177 	cmnvs	r4, #-1073741795	; 0xc000001d
  4c:	696f7068 	stmdbvs	pc!, {r3, r5, r6, ip, sp, lr}^	; <UNPREDICTABLE>
  50:	632f746e 	teqvs	pc, #1845493760	; 0x6e000000
  54:	0065646f 	rsbeq	r6, r5, pc, ror #8
  58:	6d746f6e 	ldclvs	15, cr6, [r4, #-440]!	; 0xfffffe48
  5c:	006e6961 	rsbeq	r6, lr, r1, ror #18
  60:	69736e75 	ldmdbvs	r3!, {r0, r2, r4, r5, r6, r9, sl, fp, sp, lr}^
  64:	64656e67 	strbtvs	r6, [r5], #-3687	; 0xe67
  68:	61686320 	cmnvs	r8, r0, lsr #6
  6c:	6c630072 	stclvs	0, cr0, [r3], #-456	; 0xfffffe38
  70:	5f6e6165 	svcpl	0x006e6165
  74:	6f626572 	svcvs	0x00626572
  78:	7300746f 	movwvc	r7, #1135	; 0x46f
  7c:	74726f68 	ldrbtvc	r6, [r2], #-3944	; 0xf68
  80:	736e7520 	cmnvc	lr, #32, 10	; 0x8000000
  84:	656e6769 	strbvs	r6, [lr, #-1897]!	; 0x769
  88:	6e692064 	cdpvs	0, 6, cr2, cr9, cr4, {3}
  8c:	52420074 	subpl	r0, r2, #116	; 0x74
  90:	48434e41 	stmdami	r3, {r0, r6, r9, sl, fp, lr}^
  94:	75004f54 	strvc	r4, [r0, #-3924]	; 0xf54
  98:	33746e69 	cmncc	r4, #1680	; 0x690
  9c:	00745f32 	rsbseq	r5, r4, r2, lsr pc
  a0:	706b7262 	rsbvc	r7, fp, r2, ror #4
  a4:	65735f74 	ldrbvs	r5, [r3, #-3956]!	; 0xf74
  a8:	5f003074 	svcpl	0x00003074
  ac:	4e55465f 	mrcmi	6, 2, r4, cr5, cr15, {2}
  b0:	4f495443 	svcmi	0x00495443
  b4:	005f5f4e 	subseq	r5, pc, lr, asr #30
  b8:	20554e47 	subscs	r4, r5, r7, asr #28
  bc:	2e342043 	cdpcs	0, 3, cr2, cr4, cr3, {2}
  c0:	20332e38 	eorscs	r2, r3, r8, lsr lr
  c4:	70636d2d 	rsbvc	r6, r3, sp, lsr #26
  c8:	72613d75 	rsbvc	r3, r1, #7488	; 0x1d40
  cc:	3731316d 	ldrcc	r3, [r1, -sp, ror #2]!
  d0:	667a6a36 			; <UNDEFINED> instruction: 0x667a6a36
  d4:	2d20732d 	stccs	3, cr7, [r0, #-180]!	; 0xffffff4c
  d8:	6e75746d 	cdpvs	4, 7, cr7, cr5, cr13, {3}
  dc:	72613d65 	rsbvc	r3, r1, #6464	; 0x1940
  e0:	3731316d 	ldrcc	r3, [r1, -sp, ror #2]!
  e4:	667a6a36 			; <UNDEFINED> instruction: 0x667a6a36
  e8:	2d20732d 	stccs	3, cr7, [r0, #-180]!	; 0xffffff4c
  ec:	62646767 	rsbvs	r6, r4, #27000832	; 0x19c0000
  f0:	674f2d20 	strbvs	r2, [pc, -r0, lsr #26]
  f4:	74732d20 	ldrbtvc	r2, [r3], #-3360	; 0xd20
  f8:	6e673d64 	cdpvs	13, 6, cr3, cr7, cr4, {3}
  fc:	20393975 	eorscs	r3, r9, r5, ror r9
 100:	7266662d 	rsbvc	r6, r6, #47185920	; 0x2d00000
 104:	74736565 	ldrbtvc	r6, [r3], #-1381	; 0x565
 108:	69646e61 	stmdbvs	r4!, {r0, r5, r6, r9, sl, fp, sp, lr}^
 10c:	2d20676e 	stccs	7, cr6, [r0, #-440]!	; 0xfffffe48
 110:	2d6f6e66 	stclcs	14, cr6, [pc, #-408]!	; ffffff80 <__bss_end__+0xffff6508>
 114:	6c706f74 	ldclvs	15, cr6, [r0], #-464	; 0xfffffe30
 118:	6c657665 	stclvs	6, cr7, [r5], #-404	; 0xfffffe6c
 11c:	6f65722d 	svcvs	0x0065722d
 120:	72656472 	rsbvc	r6, r5, #1912602624	; 0x72000000
 124:	6e6f6c00 	cdpvs	12, 6, cr6, cr15, cr0, {0}
 128:	6f6c2067 	svcvs	0x006c2067
 12c:	7520676e 	strvc	r6, [r0, #-1902]!	; 0x76e
 130:	6769736e 	strbvs	r7, [r9, -lr, ror #6]!
 134:	2064656e 	rsbcs	r6, r4, lr, ror #10
 138:	00746e69 	rsbseq	r6, r4, r9, ror #28
 13c:	657a6973 	ldrbvs	r6, [sl, #-2419]!	; 0x973
 140:	65707974 	ldrbvs	r7, [r0, #-2420]!	; 0x974
 144:	6e6f6c00 	cdpvs	12, 6, cr6, cr15, cr0, {0}
 148:	6f6c2067 	svcvs	0x006c2067
 14c:	6920676e 	stmdbvs	r0!, {r1, r2, r3, r5, r6, r8, r9, sl, sp, lr}
 150:	7200746e 	andvc	r7, r0, #1845493760	; 0x6e000000
 154:	00736765 	rsbseq	r6, r3, r5, ror #14
 158:	726f6873 	rsbvc	r6, pc, #7536640	; 0x730000
 15c:	6e692074 	mcrvs	0, 3, r2, cr9, cr4, {3}
 160:	66690074 			; <UNDEFINED> instruction: 0x66690074
 164:	675f7273 			; <UNDEFINED> instruction: 0x675f7273
 168:	77007465 	strvc	r7, [r0, -r5, ror #8]
 16c:	645f7361 	ldrbvs	r7, [pc], #-865	; 174 <__code_start__-0x7e8c>
 170:	67756265 	ldrbvs	r6, [r5, -r5, ror #4]!
 174:	736e695f 	cmnvc	lr, #1556480	; 0x17c000
 178:	75616674 	strbvc	r6, [r1, #-1652]!	; 0x674
 17c:	6300746c 	movwvs	r7, #1132	; 0x46c
 180:	5f343170 	svcpl	0x00343170
 184:	62616e65 	rsbvs	r6, r1, #1616	; 0x650
 188:	7200656c 	andvc	r6, r0, #108, 10	; 0x1b000000
 18c:	725f6970 	subsvc	r6, pc, #112, 18	; 0x1c0000
 190:	74657365 	strbtvc	r7, [r5], #-869	; 0x365
 194:	7475705f 	ldrbtvc	r7, [r5], #-95	; 0x5f
 198:	65740063 	ldrbvs	r0, [r4, #-99]!	; 0x63
 19c:	2f737473 	svccs	0x00737473
 1a0:	74736574 	ldrbtvc	r6, [r3], #-1396	; 0x574
 1a4:	00632e34 	rsbeq	r2, r3, r4, lsr lr
 1a8:	646e6168 	strbtvs	r6, [lr], #-360	; 0x168
 1ac:	5f72656c 	svcpl	0x0072656c
 1b0:	72700074 	rsbsvc	r0, r0, #116	; 0x74
 1b4:	74656665 	strbtvc	r6, [r5], #-1637	; 0x665
 1b8:	615f6863 	cmpvs	pc, r3, ror #16
 1bc:	74726f62 	ldrbtvc	r6, [r2], #-3938	; 0xf62
 1c0:	6365765f 	cmnvs	r5, #99614720	; 0x5f00000
 1c4:	00726f74 	rsbseq	r6, r2, r4, ror pc
 1c8:	66657270 			; <UNDEFINED> instruction: 0x66657270
 1cc:	68637465 	stmdavs	r3!, {r0, r2, r5, r6, sl, ip, sp, lr}^
 1d0:	756c665f 	strbvc	r6, [ip, #-1631]!	; 0x65f
 1d4:	735f6873 	cmpvc	pc, #7536640	; 0x730000
 1d8:	64007465 	strvs	r7, [r0], #-1125	; 0x465
 1dc:	5f727366 	svcpl	0x00727366
 1e0:	006c6176 	rsbeq	r6, ip, r6, ror r1
 1e4:	7561666e 	strbvc	r6, [r1, #-1646]!	; 0x66e
 1e8:	0073746c 	rsbseq	r7, r3, ip, ror #8
 1ec:	5f736177 	svcpl	0x00736177
 1f0:	75626564 	strbvc	r6, [r2, #-1380]!	; 0x564
 1f4:	75616667 	strbvc	r6, [r1, #-1639]!	; 0x667
 1f8:	725f746c 	subsvc	r7, pc, #108, 8	; 0x6c000000
 1fc:	61666900 	cmnvs	r6, r0, lsl #18
 200:	65675f72 	strbvs	r5, [r7, #-3954]!	; 0xf72
 204:	76770074 			; <UNDEFINED> instruction: 0x76770074
 208:	765f3072 			; <UNDEFINED> instruction: 0x765f3072
 20c:	62006c61 	andvs	r6, r0, #24832	; 0x6100
 210:	5f307276 	svcpl	0x00307276
 214:	006c6176 	rsbeq	r6, ip, r6, ror r1
 218:	30726362 	rsbscc	r6, r2, r2, ror #6
 21c:	6765725f 			; <UNDEFINED> instruction: 0x6765725f
 220:	74617700 	strbtvc	r7, [r1], #-1792	; 0x700
 224:	74706863 	ldrbtvc	r6, [r0], #-2147	; 0x863
 228:	7465735f 	strbtvc	r7, [r5], #-863	; 0x35f
 22c:	63770030 	cmnvs	r7, #48	; 0x30
 230:	725f3072 	subsvc	r3, pc, #114	; 0x72
 234:	64006765 	strvs	r6, [r0], #-1893	; 0x765
 238:	5f727366 	svcpl	0x00727366
 23c:	00746567 	rsbseq	r6, r4, r7, ror #10
 240:	6464615f 	strbtvs	r6, [r4], #-351	; 0x15f
 244:	61770072 	cmnvs	r7, r2, ror r0
 248:	70686374 	rsbvc	r6, r8, r4, ror r3
 24c:	61685f74 	smcvs	34292	; 0x85f4
 250:	656c646e 	strbvs	r6, [ip, #-1134]!	; 0x46e
 254:	63003072 	movwvs	r3, #114	; 0x72
 258:	5f343170 	svcpl	0x00343170
 25c:	30727662 	rsbscc	r7, r2, r2, ror #12
 260:	7465735f 	strbtvc	r7, [r5], #-863	; 0x35f
 264:	61667700 	cmnvs	r6, r0, lsl #14
 268:	65675f72 	strbvs	r5, [r7, #-3954]!	; 0xf72
 26c:	61770074 	cmnvs	r7, r4, ror r0
 270:	65645f73 	strbvs	r5, [r4, #-3955]!	; 0xf73
 274:	5f677562 	svcpl	0x00677562
 278:	61746164 	cmnvs	r4, r4, ror #2
 27c:	6c756166 	ldfvse	f6, [r5], #-408	; 0xfffffe68
 280:	61640074 	smcvs	16388	; 0x4004
 284:	615f6174 	cmpvs	pc, r4, ror r1	; <UNPREDICTABLE>
 288:	74726f62 	ldrbtvc	r6, [r2], #-3938	; 0xf62
 28c:	6365765f 	cmnvs	r5, #99614720	; 0x5f00000
 290:	00726f74 	rsbseq	r6, r2, r4, ror pc
 294:	30727677 	rsbscc	r7, r2, r7, ror r6
 298:	7465735f 	strbtvc	r7, [r5], #-863	; 0x35f
 29c:	74616400 	strbtvc	r6, [r1], #-1024	; 0x400
 2a0:	75616661 	strbvc	r6, [r1, #-1633]!	; 0x661
 2a4:	665f746c 	ldrbvs	r7, [pc], -ip, ror #8
 2a8:	5f6d6f72 	svcpl	0x006d6f72
 2ac:	6900646c 	stmdbvs	r0, {r2, r3, r5, r6, sl, sp, lr}
 2b0:	5f74696e 	svcpl	0x0074696e
 2b4:	73640070 	cmnvc	r4, #112	; 0x70
 2b8:	735f7263 	cmpvc	pc, #805306374	; 0x30000006
 2bc:	63007465 	movwvs	r7, #1125	; 0x465
 2c0:	2d343170 	ldfcss	f3, [r4, #-448]!	; 0xfffffe40
 2c4:	75626564 	strbvc	r6, [r2, #-1380]!	; 0x564
 2c8:	00632e67 	rsbeq	r2, r3, r7, ror #28
 2cc:	34317063 	ldrtcc	r7, [r1], #-99	; 0x63
 2d0:	7263625f 	rsbvc	r6, r3, #-268435451	; 0xf0000005
 2d4:	65675f30 	strbvs	r5, [r7, #-3888]!	; 0xf30
 2d8:	63770074 	cmnvs	r7, #116	; 0x74
 2dc:	675f3072 			; <UNDEFINED> instruction: 0x675f3072
 2e0:	62007465 	andvs	r7, r0, #1694498816	; 0x65000000
 2e4:	74706b72 	ldrbtvc	r6, [r0], #-2930	; 0xb72
 2e8:	6e61685f 	mcrvs	8, 3, r6, cr1, cr15, {2}
 2ec:	72656c64 	rsbvc	r6, r5, #100, 24	; 0x6400
 2f0:	63770030 	cmnvs	r7, #48	; 0x30
 2f4:	735f3072 	cmpvc	pc, #114	; 0x72
 2f8:	69007465 	stmdbvs	r0, {r0, r2, r5, r6, sl, ip, sp, lr}
 2fc:	695f746e 	ldmdbvs	pc, {r1, r2, r3, r5, r6, sl, ip, sp, lr}^	; <UNPREDICTABLE>
 300:	0074696e 	rsbseq	r6, r4, lr, ror #18
 304:	34317063 	ldrtcc	r7, [r1], #-99	; 0x63
 308:	7263625f 	rsbvc	r6, r3, #-268435451	; 0xf0000005
 30c:	65735f30 	ldrbvs	r5, [r3, #-3888]!	; 0xf30
 310:	5f5f0074 	svcpl	0x005f0074
 314:	63756e67 	cmnvs	r5, #1648	; 0x670
 318:	5f61765f 	svcpl	0x0061765f
 31c:	7473696c 	ldrbtvc	r6, [r3], #-2412	; 0x96c
 320:	62696c00 	rsbvs	r6, r9, #0, 24
 324:	72702f63 	rsbsvc	r2, r0, #396	; 0x18c
 328:	6b746e69 	blvs	1d1bcd4 <__bss_end__+0x1d1225c>
 32c:	4700632e 	strmi	r6, [r0, -lr, lsr #6]
 330:	4320554e 	teqmi	r0, #327155712	; 0x13800000
 334:	382e3420 	stmdacc	lr!, {r5, sl, ip, sp}
 338:	2d20332e 	stccs	3, cr3, [r0, #-184]!	; 0xffffff48
 33c:	7570636d 	ldrbvc	r6, [r0, #-877]!	; 0x36d
 340:	6d72613d 	ldfvse	f6, [r2, #-244]!	; 0xffffff0c
 344:	36373131 			; <UNDEFINED> instruction: 0x36373131
 348:	2d667a6a 	vstmdbcs	r6!, {s15-s120}
 34c:	6d2d2073 	stcvs	0, cr2, [sp, #-460]!	; 0xfffffe34
 350:	656e7574 	strbvs	r7, [lr, #-1396]!	; 0x574
 354:	6d72613d 	ldfvse	f6, [r2, #-244]!	; 0xffffff0c
 358:	36373131 			; <UNDEFINED> instruction: 0x36373131
 35c:	2d667a6a 	vstmdbcs	r6!, {s15-s120}
 360:	672d2073 			; <UNDEFINED> instruction: 0x672d2073
 364:	20626467 	rsbcs	r6, r2, r7, ror #8
 368:	20674f2d 	rsbcs	r4, r7, sp, lsr #30
 36c:	6474732d 	ldrbtvs	r7, [r4], #-813	; 0x32d
 370:	756e673d 	strbvc	r6, [lr, #-1853]!	; 0x73d
 374:	2d203939 	stccs	9, cr3, [r0, #-228]!	; 0xffffff1c
 378:	65726666 	ldrbvs	r6, [r2, #-1638]!	; 0x666
 37c:	61747365 	cmnvs	r4, r5, ror #6
 380:	6e69646e 	cdpvs	4, 6, cr6, cr9, cr14, {3}
 384:	61760067 	cmnvs	r6, r7, rrx
 388:	6972705f 	ldmdbvs	r2!, {r0, r1, r2, r3, r4, r6, ip, sp, lr}^
 38c:	006b746e 	rsbeq	r7, fp, lr, ror #8
 390:	61765f5f 	cmnvs	r6, pc, asr pc
 394:	73696c5f 	cmnvc	r9, #24320	; 0x5f00
 398:	552f0074 	strpl	r0, [pc, #-116]!	; 32c <__code_start__-0x7cd4>
 39c:	73726573 	cmnvc	r2, #482344960	; 0x1cc00000
 3a0:	6972622f 	ldmdbvs	r2!, {r0, r1, r2, r3, r5, r9, sp, lr}^
 3a4:	756a6e61 	strbvc	r6, [sl, #-3681]!	; 0xe61
 3a8:	65442f6e 	strbvs	r2, [r4, #-3950]	; 0xf6e
 3ac:	6f746b73 	svcvs	0x00746b73
 3b0:	63732f70 	cmnvs	r3, #112, 30	; 0x1c0
 3b4:	6c6f6f68 	stclvs	15, cr6, [pc], #-416	; 21c <__code_start__-0x7de4>
 3b8:	7270532f 	rsbsvc	r5, r0, #-1140850688	; 0xbc000000
 3bc:	31676e69 	cmncc	r7, r9, ror #28
 3c0:	2f303239 	svccs	0x00303239
 3c4:	34325343 	ldrtcc	r5, [r2], #-835	; 0x343
 3c8:	2f584c30 	svccs	0x00584c30
 3cc:	34327363 	ldrtcc	r7, [r2], #-867	; 0x363
 3d0:	2d786c30 	ldclcs	12, cr6, [r8, #-192]!	; 0xffffff40
 3d4:	70733032 	rsbsvc	r3, r3, r2, lsr r0
 3d8:	696c2f72 	stmdbvs	ip!, {r1, r4, r5, r6, r8, r9, sl, fp, sp}^
 3dc:	00697062 	rsbeq	r7, r9, r2, rrx
 3e0:	70615f5f 	rsbvc	r5, r1, pc, asr pc
 3e4:	72617500 	rsbvc	r7, r1, #0, 10
 3e8:	75705f74 	ldrbvc	r5, [r0, #-3956]!	; 0xf74
 3ec:	69006374 	stmdbvs	r0, {r2, r4, r5, r6, r8, r9, sp, lr}
 3f0:	7265746e 	rsbvc	r7, r5, #1845493760	; 0x6e000000
 3f4:	5f6c616e 	svcpl	0x006c616e
 3f8:	63747570 	cmnvs	r4, #112, 10	; 0x1c000000
 3fc:	00726168 	rsbseq	r6, r2, r8, ror #2
 400:	5f697072 	svcpl	0x00697072
 404:	63747570 	cmnvs	r4, #112, 10	; 0x1c000000
 408:	00726168 	rsbseq	r6, r2, r8, ror #2
 40c:	6362696c 	cmnvs	r2, #108, 18	; 0x1b0000
 410:	7475702f 	ldrbtvc	r7, [r5], #-47	; 0x2f
 414:	72616863 	rsbvc	r6, r1, #6488064	; 0x630000
 418:	7200632e 	andvc	r6, r0, #-1207959552	; 0xb8000000
 41c:	735f6970 	cmpvc	pc, #112, 18	; 0x1c0000
 420:	705f7465 	subsvc	r7, pc, r5, ror #8
 424:	00637475 	rsbeq	r7, r3, r5, ror r4
 428:	6362696c 	cmnvs	r2, #108, 18	; 0x1b0000
 42c:	7475702f 	ldrbtvc	r7, [r5], #-47	; 0x2f
 430:	00632e6b 	rsbeq	r2, r3, fp, ror #28
 434:	65746e69 	ldrbvs	r6, [r4, #-3689]!	; 0xe69
 438:	6c616e72 	stclvs	14, cr6, [r1], #-456	; 0xfffffe38
 43c:	7475705f 	ldrbtvc	r7, [r5], #-95	; 0x5f
 440:	6d66006b 	stclvs	0, cr0, [r6, #-428]!	; 0xfffffe54
 444:	74735f74 	ldrbtvc	r5, [r3], #-3956	; 0xf74
 448:	00747261 	rsbseq	r7, r4, r1, ror #4
 44c:	5f67656e 	svcpl	0x0067656e
 450:	65720070 	ldrbvs	r0, [r2, #-112]!	; 0x70
 454:	73726576 	cmnvc	r2, #494927872	; 0x1d800000
 458:	73690065 	cmnvc	r9, #101	; 0x65
 45c:	69676964 	stmdbvs	r7!, {r2, r5, r6, r8, fp, sp, lr}^
 460:	75700074 	ldrbvc	r0, [r0, #-116]!	; 0x74
 464:	665f7374 			; <UNDEFINED> instruction: 0x665f7374
 468:	69730070 	ldmdbvs	r3!, {r4, r5, r6}^
 46c:	64656e67 	strbtvs	r6, [r5], #-3687	; 0xe67
 470:	6c00705f 	stcvs	0, cr7, [r0], {95}	; 0x5f
 474:	2f636269 	svccs	0x00636269
 478:	702d6176 	eorvc	r6, sp, r6, ror r1
 47c:	746e6972 	strbtvc	r6, [lr], #-2418	; 0x972
 480:	00632e6b 	rsbeq	r2, r3, fp, ror #28
 484:	5f697072 	svcpl	0x00697072
 488:	5f746573 	svcpl	0x00746573
 48c:	7074756f 	rsbsvc	r7, r4, pc, ror #10
 490:	77007475 	smlsdxvc	r0, r5, r4, r7
 494:	68746469 	ldmdavs	r4!, {r0, r3, r5, r6, sl, sp, lr}^
 498:	74757000 	ldrbtvc	r7, [r5], #-0
 49c:	70665f63 	rsbvc	r5, r6, r3, ror #30
 4a0:	696d6500 	stmdbvs	sp!, {r8, sl, sp, lr}^
 4a4:	65720074 	ldrbvs	r0, [r2, #-116]!	; 0x74
 4a8:	746f6f62 	strbtvc	r6, [pc], #-3938	; 4b0 <__code_start__-0x7b50>
 4ac:	6e61685f 	mcrvs	8, 3, r6, cr1, cr15, {2}
 4b0:	72656c64 	rsbvc	r6, r5, #100, 24	; 0x6400
 4b4:	61747300 	cmnvs	r4, r0, lsl #6
 4b8:	732d6666 	teqvc	sp, #106954752	; 0x6600000
 4bc:	632f6372 	teqvs	pc, #-939524095	; 0xc8000001
 4c0:	6e61656c 	cdpvs	5, 6, cr6, cr1, cr12, {3}
 4c4:	6265722d 	rsbvs	r7, r5, #-805306366	; 0xd0000002
 4c8:	2e746f6f 	cdpcs	15, 7, cr6, cr4, cr15, {3}
 4cc:	70720063 	rsbsvc	r0, r2, r3, rrx
 4d0:	65725f69 	ldrbvs	r5, [r2, #-3945]!	; 0xf69
 4d4:	746f6f62 	strbtvc	r6, [pc], #-3938	; 4dc <__code_start__-0x7b24>
 4d8:	6c656400 	cfstrdvs	mvd6, [r5], #-0
 4dc:	6d5f7961 	ldclvs	9, cr7, [pc, #-388]	; 360 <__code_start__-0x7ca0>
 4e0:	5f5f0073 	svcpl	0x005f0073
 4e4:	5f737362 	svcpl	0x00737362
 4e8:	72617473 	rsbvc	r7, r1, #1929379840	; 0x73000000
 4ec:	005f5f74 	subseq	r5, pc, r4, ror pc	; <UNPREDICTABLE>
 4f0:	73625f5f 	cmnvc	r2, #380	; 0x17c
 4f4:	6e655f73 	mcrvs	15, 3, r5, cr5, cr3, {3}
 4f8:	005f5f64 	subseq	r5, pc, r4, ror #30
 4fc:	61747363 	cmnvs	r4, r3, ror #6
 500:	685f7472 	ldmdavs	pc, {r1, r4, r5, r6, sl, ip, sp, lr}^	; <UNPREDICTABLE>
 504:	6c646e61 	stclvs	14, cr6, [r4], #-388	; 0xfffffe7c
 508:	62007265 	andvs	r7, r0, #1342177286	; 0x50000006
 50c:	655f7373 	ldrbvs	r7, [pc, #-883]	; 1a1 <__code_start__-0x7e5f>
 510:	5f00646e 	svcpl	0x0000646e
 514:	61747363 	cmnvs	r4, r3, ror #6
 518:	73007472 	movwvc	r7, #1138	; 0x472
 51c:	66666174 			; <UNDEFINED> instruction: 0x66666174
 520:	6372732d 	cmnvs	r2, #-1275068416	; 0xb4000000
 524:	7473632f 	ldrbtvc	r6, [r3], #-815	; 0x32f
 528:	2e747261 	cdpcs	2, 7, cr7, cr4, cr1, {3}
 52c:	74730063 	ldrbtvc	r0, [r3], #-99	; 0x63
 530:	2d666661 	stclcs	6, cr6, [r6, #-388]!	; 0xfffffe7c
 534:	2f637273 	svccs	0x00637273
 538:	61666564 	cmnvs	r6, r4, ror #10
 53c:	2d746c75 	ldclcs	12, cr6, [r4, #-468]!	; 0xfffffe2c
 540:	646e6168 	strbtvs	r6, [lr], #-360	; 0x168
 544:	2d72656c 	cfldr64cs	mvdx6, [r2, #-432]!	; 0xfffffe50
 548:	74736166 	ldrbtvc	r6, [r3], #-358	; 0x166
 54c:	6600632e 	strvs	r6, [r0], -lr, lsr #6
 550:	5f747361 	svcpl	0x00747361
 554:	65746e69 	ldrbvs	r6, [r4, #-3689]!	; 0xe69
 558:	70757272 	rsbsvc	r7, r5, r2, ror r2
 55c:	65765f74 	ldrbvs	r5, [r6, #-3956]!	; 0xf74
 560:	726f7463 	rsbvc	r7, pc, #1660944384	; 0x63000000
 564:	73657200 	cmnvc	r5, #0, 4
 568:	765f7465 	ldrbvc	r7, [pc], -r5, ror #8
 56c:	6f746365 	svcvs	0x00746365
 570:	74730072 	ldrbtvc	r0, [r3], #-114	; 0x72
 574:	2d666661 	stclcs	6, cr6, [r6, #-388]!	; 0xfffffe7c
 578:	2f637273 	svccs	0x00637273
 57c:	61666564 	cmnvs	r6, r4, ror #10
 580:	2d746c75 	ldclcs	12, cr6, [r4, #-468]!	; 0xfffffe2c
 584:	646e6168 	strbtvs	r6, [lr], #-360	; 0x168
 588:	2d72656c 	cfldr64cs	mvdx6, [r2, #-432]!	; 0xfffffe50
 58c:	65736572 	ldrbvs	r6, [r3, #-1394]!	; 0x572
 590:	00632e74 	rsbeq	r2, r3, r4, ror lr
 594:	66617473 			; <UNDEFINED> instruction: 0x66617473
 598:	72732d66 	rsbsvc	r2, r3, #6528	; 0x1980
 59c:	65642f63 	strbvs	r2, [r4, #-3939]!	; 0xf63
 5a0:	6c756166 	ldfvse	f6, [r5], #-408	; 0xfffffe68
 5a4:	61682d74 	smcvs	33492	; 0x82d4
 5a8:	656c646e 	strbvs	r6, [ip, #-1134]!	; 0x46e
 5ac:	77732d72 			; <UNDEFINED> instruction: 0x77732d72
 5b0:	00632e69 	rsbeq	r2, r3, r9, ror #28
 5b4:	74666f73 	strbtvc	r6, [r6], #-3955	; 0xf73
 5b8:	65726177 	ldrbvs	r6, [r2, #-375]!	; 0x177
 5bc:	746e695f 	strbtvc	r6, [lr], #-2399	; 0x95f
 5c0:	75727265 	ldrbvc	r7, [r2, #-613]!	; 0x265
 5c4:	765f7470 			; <UNDEFINED> instruction: 0x765f7470
 5c8:	6f746365 	svcvs	0x00746365
 5cc:	74730072 	ldrbtvc	r0, [r3], #-114	; 0x72
 5d0:	2d666661 	stclcs	6, cr6, [r6, #-388]!	; 0xfffffe7c
 5d4:	2f637273 	svccs	0x00637273
 5d8:	61666564 	cmnvs	r6, r4, ror #10
 5dc:	2d746c75 	ldclcs	12, cr6, [r4, #-468]!	; 0xfffffe2c
 5e0:	646e6168 	strbtvs	r6, [lr], #-360	; 0x168
 5e4:	2d72656c 	cfldr64cs	mvdx6, [r2, #-432]!	; 0xfffffe50
 5e8:	65646e75 	strbvs	r6, [r4, #-3701]!	; 0xe75
 5ec:	656e6966 	strbvs	r6, [lr, #-2406]!	; 0x966
 5f0:	6e692d64 	cdpvs	13, 6, cr2, cr9, cr4, {3}
 5f4:	632e7473 	teqvs	lr, #1929379840	; 0x73000000
 5f8:	646e7500 	strbtvs	r7, [lr], #-1280	; 0x500
 5fc:	6e696665 	cdpvs	6, 6, cr6, cr9, cr5, {3}
 600:	695f6465 	ldmdbvs	pc, {r0, r2, r5, r6, sl, sp, lr}^	; <UNPREDICTABLE>
 604:	7274736e 	rsbsvc	r7, r4, #-1207959551	; 0xb8000001
 608:	69746375 	ldmdbvs	r4!, {r0, r2, r4, r5, r6, r8, r9, sp, lr}^
 60c:	765f6e6f 	ldrbvc	r6, [pc], -pc, ror #28
 610:	6f746365 	svcvs	0x00746365
 614:	74730072 	ldrbtvc	r0, [r3], #-114	; 0x72
 618:	2d666661 	stclcs	6, cr6, [r6, #-388]!	; 0xfffffe7c
 61c:	2f637273 	svccs	0x00637273
 620:	61666564 	cmnvs	r6, r4, ror #10
 624:	2d746c75 	ldclcs	12, cr6, [r4, #-468]!	; 0xfffffe2c
 628:	646e6168 	strbtvs	r6, [lr], #-360	; 0x168
 62c:	7372656c 	cmnvc	r2, #108, 10	; 0x1b000000
 630:	4900632e 	stmdbmi	r0, {r1, r2, r3, r5, r8, r9, sp, lr}
 634:	705f5152 	subsvc	r5, pc, r2, asr r1	; <UNPREDICTABLE>
 638:	69646e65 	stmdbvs	r4!, {r0, r2, r5, r6, r9, sl, fp, sp, lr}^
 63c:	325f676e 	subscc	r6, pc, #28835840	; 0x1b80000
 640:	73694400 	cmnvc	r9, #0, 8
 644:	656c6261 	strbvs	r6, [ip, #-609]!	; 0x261
 648:	7361425f 	cmnvc	r1, #-268435451	; 0xf0000005
 64c:	495f6369 	ldmdbmi	pc, {r0, r3, r5, r6, r8, r9, sp, lr}^	; <UNPREDICTABLE>
 650:	00735152 	rsbseq	r5, r3, r2, asr r1
 654:	5f514946 	svcpl	0x00514946
 658:	746e6f63 	strbtvc	r6, [lr], #-3939	; 0xf63
 65c:	006c6f72 	rsbeq	r6, ip, r2, ror pc
 660:	746e695f 	strbtvc	r6, [lr], #-2399	; 0x95f
 664:	75727265 	ldrbvc	r7, [r2, #-613]!	; 0x265
 668:	745f7470 	ldrbvc	r7, [pc], #-1136	; 670 <__code_start__-0x7990>
 66c:	656c6261 	strbvs	r6, [ip, #-609]!	; 0x261
 670:	51524900 	cmppl	r2, r0, lsl #18
 674:	7361625f 	cmnvc	r1, #-268435451	; 0xf0000005
 678:	705f6369 	subsvc	r6, pc, r9, ror #6
 67c:	69646e65 	stmdbvs	r4!, {r0, r2, r5, r6, r9, sl, fp, sp, lr}^
 680:	4500676e 	strmi	r6, [r0, #-1902]	; 0x76e
 684:	6c62616e 	stfvse	f6, [r2], #-440	; 0xfffffe48
 688:	61425f65 	cmpvs	r2, r5, ror #30
 68c:	5f636973 	svcpl	0x00636973
 690:	73515249 	cmpvc	r1, #-1879048188	; 0x90000004
 694:	616e4500 	cmnvs	lr, r0, lsl #10
 698:	5f656c62 	svcpl	0x00656c62
 69c:	73515249 	cmpvc	r1, #-1879048188	; 0x90000004
 6a0:	4500315f 	strmi	r3, [r0, #-351]	; 0x15f
 6a4:	6c62616e 	stfvse	f6, [r2], #-440	; 0xfffffe48
 6a8:	52495f65 	subpl	r5, r9, #404	; 0x194
 6ac:	325f7351 	subscc	r7, pc, #1140850689	; 0x44000001
 6b0:	6e695f00 	cdpvs	15, 6, cr5, cr9, cr0, {0}
 6b4:	72726574 	rsbsvc	r6, r2, #116, 10	; 0x1d000000
 6b8:	5f747075 	svcpl	0x00747075
 6bc:	6c626174 	stfvse	f6, [r2], #-464	; 0xfffffe30
 6c0:	6e655f65 	cdpvs	15, 6, cr5, cr5, cr5, {3}
 6c4:	65640064 	strbvs	r0, [r4, #-100]!	; 0x64
 6c8:	61625f76 	smcvs	9718	; 0x25f6
 6cc:	65697272 	strbvs	r7, [r9, #-626]!	; 0x272
 6d0:	74730072 	ldrbtvc	r0, [r3], #-114	; 0x72
 6d4:	2d666661 	stclcs	6, cr6, [r6, #-388]!	; 0xfffffe7c
 6d8:	2f637273 	svccs	0x00637273
 6dc:	65746e69 	ldrbvs	r6, [r4, #-3689]!	; 0xe69
 6e0:	70757272 	rsbsvc	r7, r5, r2, ror r2
 6e4:	632d7374 	teqvs	sp, #116, 6	; 0xd0000001
 6e8:	4900632e 	stmdbmi	r0, {r1, r2, r3, r5, r8, r9, sp, lr}
 6ec:	425f5152 	subsmi	r5, pc, #-2147483628	; 0x80000014
 6f0:	00657361 	rsbeq	r7, r5, r1, ror #6
 6f4:	33545550 	cmpcc	r4, #80, 10	; 0x14000000
 6f8:	69440032 	stmdbvs	r4, {r1, r4, r5}^
 6fc:	6c626173 	stfvse	f6, [r2], #-460	; 0xfffffe34
 700:	52495f65 	subpl	r5, r9, #404	; 0x194
 704:	315f7351 	cmpcc	pc, r1, asr r3	; <UNPREDICTABLE>
 708:	73694400 	cmnvc	r9, #0, 8
 70c:	656c6261 	strbvs	r6, [ip, #-609]!	; 0x261
 710:	5152495f 	cmppl	r2, pc, asr r9
 714:	00325f73 	eorseq	r5, r2, r3, ror pc
 718:	5f515249 	svcpl	0x00515249
 71c:	646e6570 	strbtvs	r6, [lr], #-1392	; 0x570
 720:	5f676e69 	svcpl	0x00676e69
 724:	74610031 	strbtvc	r0, [r1], #-49	; 0x31
 728:	6573755f 	ldrbvs	r7, [r3, #-1375]!	; 0x55f
 72c:	656c5f72 	strbvs	r5, [ip, #-3954]!	; 0xf72
 730:	006c6576 	rsbeq	r6, ip, r6, ror r5
 734:	66617473 			; <UNDEFINED> instruction: 0x66617473
 738:	72732d66 	rsbsvc	r2, r3, #6528	; 0x1980
 73c:	65722f63 	ldrbvs	r2, [r2, #-3939]!	; 0xf63
 740:	746f6f62 	strbtvc	r6, [pc], #-3938	; 748 <__code_start__-0x78b8>
 744:	5000632e 	andpl	r6, r0, lr, lsr #6
 748:	53525f4d 	cmppl	r2, #308	; 0x134
 74c:	575f4354 			; <UNDEFINED> instruction: 0x575f4354
 750:	47464352 	smlsldmi	r4, r6, r2, r3
 754:	4c55465f 	mrrcmi	6, 5, r4, r5, cr15
 758:	45525f4c 	ldrbmi	r5, [r2, #-3916]	; 0xf4c
 75c:	00544553 	subseq	r4, r4, r3, asr r5
 760:	575f4d50 			; <UNDEFINED> instruction: 0x575f4d50
 764:	00474f44 	subeq	r4, r7, r4, asr #30
 768:	5f746573 	svcpl	0x00746573
 76c:	72657375 	rsbvc	r7, r5, #-738197503	; 0xd4000001
 770:	76656c5f 			; <UNDEFINED> instruction: 0x76656c5f
 774:	50006c65 	andpl	r6, r0, r5, ror #24
 778:	41505f4d 	cmpmi	r0, sp, asr #30
 77c:	4f575353 	svcmi	0x00575353
 780:	50004452 	andpl	r4, r0, r2, asr r4
 784:	53525f4d 	cmppl	r2, #308	; 0x134
 788:	63004354 	movwvs	r4, #852	; 0x354
 78c:	00727370 	rsbseq	r7, r2, r0, ror r3
 790:	656d6974 	strbvs	r6, [sp, #-2420]!	; 0x974
 794:	65675f72 	strbvs	r5, [r7, #-3954]!	; 0xf72
 798:	73755f74 	cmnvc	r5, #116, 30	; 0x1d0
 79c:	725f6365 	subsvc	r6, pc, #-1811939327	; 0x94000001
 7a0:	64007761 	strvs	r7, [r0], #-1889	; 0x761
 7a4:	79616c65 	stmdbvc	r1!, {r0, r2, r5, r6, sl, fp, sp, lr}^
 7a8:	6365735f 	cmnvs	r5, #2080374785	; 0x7c000001
 7ac:	61747300 	cmnvs	r4, r0, lsl #6
 7b0:	732d6666 	teqvc	sp, #106954752	; 0x6600000
 7b4:	742f6372 	strtvc	r6, [pc], #-882	; 7bc <__code_start__-0x7844>
 7b8:	72656d69 	rsbvc	r6, r5, #6720	; 0x1a40
 7bc:	4700632e 	strmi	r6, [r0, -lr, lsr #6]
 7c0:	32335445 	eorscc	r5, r3, #1157627904	; 0x45000000
 7c4:	63697400 	cmnvs	r9, #0, 8
 7c8:	6400736b 	strvs	r7, [r0], #-875	; 0x36b
 7cc:	79616c65 	stmdbvc	r1!, {r0, r2, r5, r6, sl, fp, sp, lr}^
 7d0:	6379635f 	cmnvs	r9, #2080374785	; 0x7c000001
 7d4:	0073656c 	rsbseq	r6, r3, ip, ror #10
 7d8:	616c6564 	cmnvs	ip, r4, ror #10
 7dc:	73755f79 	cmnvc	r5, #484	; 0x1e4
 7e0:	6d697400 	cfstrdvs	mvd7, [r9, #-0]
 7e4:	675f7265 	ldrbvs	r7, [pc, -r5, ror #4]
 7e8:	755f7465 	ldrbvc	r7, [pc, #-1125]	; 38b <__code_start__-0x7c75>
 7ec:	00636573 	rsbeq	r6, r3, r3, ror r5
 7f0:	6f73645f 	svcvs	0x0073645f
 7f4:	6e61685f 	mcrvs	8, 3, r6, cr1, cr15, {2}
 7f8:	00656c64 	rsbeq	r6, r5, r4, ror #24
 7fc:	7a69735f 	bvc	1a5d580 <__bss_end__+0x1a53b08>
 800:	725f0065 	subsvc	r0, pc, #101	; 0x65
 804:	34646e61 	strbtcc	r6, [r4], #-3681	; 0xe61
 808:	655f0038 	ldrbvs	r0, [pc, #-56]	; 7d8 <__code_start__-0x7828>
 80c:	6772656d 	ldrbvs	r6, [r2, -sp, ror #10]!
 810:	79636e65 	stmdbvc	r3!, {r0, r2, r5, r6, r9, sl, fp, sp, lr}^
 814:	72617500 	rsbvc	r7, r1, #0, 10
 818:	6e695f74 	mcrvs	15, 3, r5, cr9, cr4, {3}
 81c:	5f007469 	svcpl	0x00007469
 820:	74726377 	ldrbtvc	r6, [r2], #-887	; 0x377
 824:	5f626d6f 	svcpl	0x00626d6f
 828:	74617473 	strbtvc	r7, [r1], #-1139	; 0x473
 82c:	775f0065 	ldrbvc	r0, [pc, -r5, rrx]
 830:	74727363 	ldrbtvc	r7, [r2], #-867	; 0x363
 834:	73626d6f 	cmnvc	r2, #7104	; 0x1bc0
 838:	6174735f 	cmnvs	r4, pc, asr r3
 83c:	5f006574 	svcpl	0x00006574
 840:	7366626c 	cmnvc	r6, #108, 4	; 0xc0000006
 844:	00657a69 	rsbeq	r7, r5, r9, ror #20
 848:	4f495047 	svcmi	0x00495047
 84c:	4e55465f 	mrcmi	6, 2, r4, cr5, cr15, {2}
 850:	4e495f43 	cdpmi	15, 4, cr5, cr9, cr3, {2}
 854:	00545550 	subseq	r5, r4, r0, asr r5
 858:	72626d5f 	rsbvc	r6, r2, #6080	; 0x17c0
 85c:	63776f74 	cmnvs	r7, #116, 30	; 0x1d0
 860:	6174735f 	cmnvs	r4, pc, asr r3
 864:	5f006574 	svcpl	0x00006574
 868:	6f746377 	svcvs	0x00746377
 86c:	735f626d 	cmpvc	pc, #-805306362	; 0xd0000006
 870:	65746174 	ldrbvs	r6, [r4, #-372]!	; 0x174
 874:	745f5f00 	ldrbvc	r5, [pc], #-3840	; 87c <__code_start__-0x7784>
 878:	65735f6d 	ldrbvs	r5, [r3, #-3949]!	; 0xf6d
 87c:	74730063 	ldrbtvc	r0, [r3], #-99	; 0x63
 880:	5f007461 	svcpl	0x00007461
 884:	66756275 			; <UNDEFINED> instruction: 0x66756275
 888:	49504700 	ldmdbmi	r0, {r8, r9, sl, lr}^
 88c:	55465f4f 	strbpl	r5, [r6, #-3919]	; 0xf4f
 890:	415f434e 	cmpmi	pc, lr, asr #6
 894:	0031544c 	eorseq	r5, r1, ip, asr #8
 898:	7361625f 	cmnvc	r1, #-268435451	; 0xf0000005
 89c:	6e630065 	cdpvs	0, 6, cr0, cr3, cr5, {3}
 8a0:	5f006c74 	svcpl	0x00006c74
 8a4:	5f6d745f 	svcpl	0x006d745f
 8a8:	72756f68 	rsbsvc	r6, r5, #104, 30	; 0x1a0
 8ac:	735f5f00 	cmpvc	pc, #0, 30
 8b0:	6f5f0066 	svcvs	0x005f0066
 8b4:	78655f6e 	stmdavc	r5!, {r1, r2, r3, r5, r6, r8, r9, sl, fp, ip, lr}^
 8b8:	615f7469 	cmpvs	pc, r9, ror #8
 8bc:	00736772 	rsbseq	r6, r3, r2, ror r7
 8c0:	6f6f635f 	svcvs	0x006f635f
 8c4:	0065696b 	rsbeq	r6, r5, fp, ror #18
 8c8:	67735f5f 			; <UNDEFINED> instruction: 0x67735f5f
 8cc:	0065756c 	rsbeq	r7, r5, ip, ror #10
 8d0:	616c665f 	cmnvs	ip, pc, asr r6
 8d4:	5f007367 	svcpl	0x00007367
 8d8:	635f7369 	cmpvs	pc, #-1543503871	; 0xa4000001
 8dc:	5f006178 	svcpl	0x00006178
 8e0:	69647473 	stmdbvs	r4!, {r0, r1, r4, r5, r6, sl, ip, sp, lr}^
 8e4:	625f006e 	subsvs	r0, pc, #110	; 0x6e
 8e8:	69736b6c 	ldmdbvs	r3!, {r2, r3, r5, r6, r8, r9, fp, sp, lr}^
 8ec:	7500657a 	strvc	r6, [r0, #-1402]	; 0x57a
 8f0:	2e747261 	cdpcs	2, 7, cr7, cr4, cr1, {3}
 8f4:	75610063 	strbvc	r0, [r1, #-99]!	; 0x63
 8f8:	65705f78 	ldrbvs	r5, [r0, #-3960]!	; 0xf78
 8fc:	68706972 	ldmdavs	r0!, {r1, r4, r5, r6, r8, fp, sp, lr}^
 900:	635f0073 	cmpvs	pc, #115	; 0x73
 904:	75627476 	strbvc	r7, [r2, #-1142]!	; 0x476
 908:	682f0066 	stmdavs	pc!, {r1, r2, r5, r6}	; <UNPREDICTABLE>
 90c:	2f656d6f 	svccs	0x00656d6f
 910:	6c676e65 	stclvs	14, cr6, [r7], #-404	; 0xfffffe6c
 914:	632f7265 	teqvs	pc, #1342177286	; 0x50000006
 918:	7373616c 	cmnvc	r3, #108, 2
 91c:	3273632f 	rsbscc	r6, r3, #-1140850688	; 0xbc000000
 920:	786c3034 	stmdavc	ip!, {r2, r4, r5, ip, sp}^
 924:	7330322d 	teqvc	r0, #-805306366	; 0xd0000002
 928:	6c2f7270 	sfmvs	f7, 4, [pc], #-448	; 770 <__code_start__-0x7890>
 92c:	69706269 	ldmdbvs	r0!, {r0, r3, r5, r6, r9, sp, lr}^
 930:	6174732f 	cmnvs	r4, pc, lsr #6
 934:	702d6666 	eorvc	r6, sp, r6, ror #12
 938:	61766972 	cmnvs	r6, r2, ror r9
 93c:	5f006574 	svcpl	0x00006574
 940:	7273626d 	rsbsvc	r6, r3, #-805306362	; 0xd0000006
 944:	63776f74 	cmnvs	r7, #116, 30	; 0x1d0
 948:	74735f73 	ldrbtvc	r5, [r3], #-3955	; 0xf73
 94c:	00657461 	rsbeq	r7, r5, r1, ror #8
 950:	72626d5f 	rsbvc	r6, r2, #6080	; 0x17c0
 954:	5f6e656c 	svcpl	0x006e656c
 958:	74617473 	strbtvc	r7, [r1], #-1139	; 0x473
 95c:	665f0065 	ldrbvs	r0, [pc], -r5, rrx
 960:	6772616e 	ldrbvs	r6, [r2, -lr, ror #2]!
 964:	75610073 	strbvc	r0, [r1, #-115]!	; 0x73
 968:	6e655f78 	mcrvs	15, 3, r5, cr5, cr8, {3}
 96c:	656c6261 	strbvs	r6, [ip, #-609]!	; 0x261
 970:	665f0073 			; <UNDEFINED> instruction: 0x665f0073
 974:	5f00736e 	svcpl	0x0000736e
 978:	6e676973 	mcrvs	9, 3, r6, cr7, cr3, {3}
 97c:	72617500 	rsbvc	r7, r1, #0, 10
 980:	61635f74 	smcvs	13812	; 0x35f4
 984:	75705f6e 	ldrbvc	r5, [r0, #-3950]!	; 0xf6e
 988:	5f006374 	svcpl	0x00006374
 98c:	636f6c66 	cmnvs	pc, #26112	; 0x6600
 990:	00745f6b 	rsbseq	r5, r4, fp, ror #30
 994:	6474735f 	ldrbtvs	r7, [r4], #-863	; 0x35f
 998:	00727265 	rsbseq	r7, r2, r5, ror #4
 99c:	6769425f 			; <UNDEFINED> instruction: 0x6769425f
 9a0:	00746e69 	rsbseq	r6, r4, r9, ror #28
 9a4:	6d61675f 	stclvs	7, cr6, [r1, #-380]!	; 0xfffffe84
 9a8:	735f616d 	cmpvc	pc, #1073741851	; 0x4000001b
 9ac:	676e6769 	strbvs	r6, [lr, -r9, ror #14]!
 9b0:	5f006d61 	svcpl	0x00006d61
 9b4:	75736572 	ldrbvc	r6, [r3, #-1394]!	; 0x572
 9b8:	6b5f746c 	blvs	17ddb70 <__bss_end__+0x17d40f8>
 9bc:	745f5f00 	ldrbvc	r5, [pc], #-3840	; 9c4 <__code_start__-0x763c>
 9c0:	5f5f006d 	svcpl	0x005f006d
 9c4:	62686377 	rsbvs	r6, r8, #-603979775	; 0xdc000001
 9c8:	72617500 	rsbvc	r7, r1, #0, 10
 9cc:	65675f74 	strbvs	r5, [r7, #-3956]!	; 0xf74
 9d0:	5f006374 	svcpl	0x00006374
 9d4:	6f647473 	svcvs	0x00647473
 9d8:	5f007475 	svcpl	0x00007475
 9dc:	6c747663 	ldclvs	6, cr7, [r4], #-396	; 0xfffffe74
 9e0:	5f006e65 	svcpl	0x00006e65
 9e4:	656c6966 	strbvs	r6, [ip, #-2406]!	; 0x966
 9e8:	696e5f00 	stmdbvs	lr!, {r8, r9, sl, fp, ip, lr}^
 9ec:	0073626f 	rsbseq	r6, r3, pc, ror #4
 9f0:	6574615f 	ldrbvs	r6, [r4, #-351]!	; 0x15f
 9f4:	30746978 	rsbscc	r6, r4, r8, ror r9
 9f8:	69735f00 	ldmdbvs	r3!, {r8, r9, sl, fp, ip, lr}^
 9fc:	6c616e67 	stclvs	14, cr6, [r1], #-412	; 0xfffffe64
 a00:	6675625f 			; <UNDEFINED> instruction: 0x6675625f
 a04:	73615f00 	cmnvc	r1, #0, 30
 a08:	6d697463 	cfstrdvs	mvd7, [r9, #-396]!	; 0xfffffe74
 a0c:	75625f65 	strbvc	r5, [r2, #-3941]!	; 0xf65
 a10:	725f0066 	subsvc	r0, pc, #102	; 0x66
 a14:	6c757365 	ldclvs	3, cr7, [r5], #-404	; 0xfffffe6c
 a18:	5f5f0074 	svcpl	0x005f0074
 a1c:	00686377 	rsbeq	r6, r8, r7, ror r3
 a20:	4f495047 	svcmi	0x00495047
 a24:	4e55465f 	mrcmi	6, 2, r4, cr5, cr15, {2}
 a28:	4c415f43 	mcrrmi	15, 4, r5, r1, cr3
 a2c:	77003254 	smlsdvc	r0, r4, r2, r3
 a30:	5f746e69 	svcpl	0x00746e69
 a34:	6c5f0074 	mrrcvs	0, 7, r0, pc, cr4	; <UNPREDICTABLE>
 a38:	006b636f 	rsbeq	r6, fp, pc, ror #6
 a3c:	616c665f 	cmnvs	ip, pc, asr r6
 a40:	00327367 	eorseq	r7, r2, r7, ror #6
 a44:	6d745f5f 	ldclvs	15, cr5, [r4, #-380]!	; 0xfffffe84
 a48:	6165795f 	cmnvs	r5, pc, asr r9
 a4c:	6f5f0072 	svcvs	0x005f0072
 a50:	65736666 	ldrbvs	r6, [r3, #-1638]!	; 0x666
 a54:	70670074 	rsbvc	r0, r7, r4, ror r0
 a58:	735f6f69 	cmpvc	pc, #420	; 0x1a4
 a5c:	665f7465 	ldrbvs	r7, [pc], -r5, ror #8
 a60:	74636e75 	strbtvc	r6, [r3], #-3701	; 0xe75
 a64:	006e6f69 	rsbeq	r6, lr, r9, ror #30
 a68:	78656e5f 	stmdavc	r5!, {r0, r1, r2, r3, r4, r6, r9, sl, fp, sp, lr}^
 a6c:	5f006674 	svcpl	0x00006674
 a70:	5f6d745f 	svcpl	0x006d745f
 a74:	006e6f6d 	rsbeq	r6, lr, sp, ror #30
 a78:	6574615f 	ldrbvs	r6, [r4, #-351]!	; 0x15f
 a7c:	00746978 	rsbseq	r6, r4, r8, ror r9
 a80:	64735f5f 	ldrbtvs	r5, [r3], #-3935	; 0xf5f
 a84:	6e696469 	cdpvs	4, 6, cr6, cr9, cr9, {3}
 a88:	5f007469 	svcpl	0x00007469
 a8c:	5f66666f 	svcpl	0x0066666f
 a90:	61750074 	cmnvs	r5, r4, ror r0
 a94:	5f007472 	svcpl	0x00007472
 a98:	65657266 	strbvs	r7, [r5, #-614]!	; 0x266
 a9c:	7473696c 	ldrbtvc	r6, [r3], #-2412	; 0x96c
 aa0:	4f4c5f00 	svcmi	0x004c5f00
 aa4:	525f4b43 	subspl	r4, pc, #68608	; 0x10c00
 aa8:	52554345 	subspl	r4, r5, #335544321	; 0x14000001
 aac:	45564953 	ldrbmi	r4, [r6, #-2387]	; 0x953
 ab0:	5f00545f 	svcpl	0x0000545f
 ab4:	0077656e 	rsbseq	r6, r7, lr, ror #10
 ab8:	655f685f 	ldrbvs	r6, [pc, #-2143]	; 261 <__code_start__-0x7d9f>
 abc:	6f6e7272 	svcvs	0x006e7272
 ac0:	745f5f00 	ldrbvc	r5, [pc], #-3840	; ac8 <__code_start__-0x7538>
 ac4:	64795f6d 	ldrbtvs	r5, [r9], #-3949	; 0xf6d
 ac8:	5f007961 	svcpl	0x00007961
 acc:	7562735f 	strbvc	r7, [r2, #-863]!	; 0x35f
 ad0:	695f0066 	ldmdbvs	pc, {r1, r2, r5, r6}^	; <UNPREDICTABLE>
 ad4:	0073626f 	rsbseq	r6, r3, pc, ror #4
 ad8:	49465f5f 	stmdbmi	r6, {r0, r1, r2, r3, r4, r6, r8, r9, sl, fp, ip, lr}^
 adc:	5f00454c 	svcpl	0x0000454c
 ae0:	7473626d 	ldrbtvc	r6, [r3], #-621	; 0x26d
 ae4:	5f657461 	svcpl	0x00657461
 ae8:	5f5f0074 	svcpl	0x005f0074
 aec:	4c494673 	mcrrmi	6, 7, r4, r9, cr3
 af0:	6d5f0045 	ldclvs	0, cr0, [pc, #-276]	; 9e4 <__code_start__-0x761c>
 af4:	61747362 	cmnvs	r4, r2, ror #6
 af8:	5f006574 	svcpl	0x00006574
 afc:	646e6172 	strbtvs	r6, [lr], #-370	; 0x172
 b00:	78656e5f 	stmdavc	r5!, {r0, r1, r2, r3, r4, r6, r9, sl, fp, sp, lr}^
 b04:	6d5f0074 	ldclvs	0, cr0, [pc, #-464]	; 93c <__code_start__-0x76c4>
 b08:	6e656c62 	cdpvs	12, 6, cr6, cr5, cr2, {3}
 b0c:	6174735f 	cmnvs	r4, pc, asr r3
 b10:	5f006574 	svcpl	0x00006574
 b14:	00636e69 	rsbeq	r6, r3, r9, ror #28
 b18:	646e695f 	strbtvs	r6, [lr], #-2399	; 0x95f
 b1c:	75635f00 	strbvc	r5, [r3, #-3840]!	; 0xf00
 b20:	6e657272 	mcrvs	2, 3, r7, cr5, cr2, {3}
 b24:	6f6c5f74 	svcvs	0x006c5f74
 b28:	656c6163 	strbvs	r6, [ip, #-355]!	; 0x163
 b2c:	635f5f00 	cmpvs	pc, #0, 30
 b30:	6e61656c 	cdpvs	5, 6, cr6, cr1, cr12, {3}
 b34:	5f007075 	svcpl	0x00007075
 b38:	7778616d 	ldrbvc	r6, [r8, -sp, ror #2]!
 b3c:	5f007364 	svcpl	0x00007364
 b40:	6e656572 	mcrvs	5, 3, r6, cr5, cr2, {3}
 b44:	735f0074 	cmpvc	pc, #116	; 0x74
 b48:	00646565 	rsbeq	r6, r4, r5, ror #10
 b4c:	6f635f5f 	svcvs	0x00635f5f
 b50:	00746e75 	rsbseq	r6, r4, r5, ror lr
 b54:	61765f5f 	cmnvs	r6, pc, asr pc
 b58:	0065756c 	rsbeq	r7, r5, ip, ror #10
 b5c:	6565735f 	strbvs	r7, [r5, #-863]!	; 0x35f
 b60:	6162006b 	cmnvs	r2, fp, rrx
 b64:	5f006475 	svcpl	0x00006475
 b68:	736f7066 	cmnvc	pc, #102	; 0x66
 b6c:	5f00745f 	svcpl	0x0000745f
 b70:	5f6d745f 	svcpl	0x006d745f
 b74:	006e696d 	rsbeq	r6, lr, sp, ror #18
 b78:	61726373 	cmnvs	r2, r3, ror r3
 b7c:	00686374 	rsbeq	r6, r8, r4, ror r3
 b80:	6c756d5f 	ldclvs	13, cr6, [r5], #-380	; 0xfffffe84
 b84:	75700074 	ldrbvc	r0, [r0, #-116]!	; 0x74
 b88:	00323374 	eorseq	r3, r2, r4, ror r3
 b8c:	20554e47 	subscs	r4, r5, r7, asr #28
 b90:	20393943 	eorscs	r3, r9, r3, asr #18
 b94:	2e332e36 	mrccs	14, 1, r2, cr3, cr6, {1}
 b98:	30322031 	eorscc	r2, r2, r1, lsr r0
 b9c:	36303731 			; <UNDEFINED> instruction: 0x36303731
 ba0:	2d203032 	stccs	0, cr3, [r0, #-200]!	; 0xffffff38
 ba4:	7570636d 	ldrbvc	r6, [r0, #-877]!	; 0x36d
 ba8:	6d72613d 	ldfvse	f6, [r2, #-244]!	; 0xffffff0c
 bac:	36373131 			; <UNDEFINED> instruction: 0x36373131
 bb0:	2d667a6a 	vstmdbcs	r6!, {s15-s120}
 bb4:	6d2d2073 	stcvs	0, cr2, [sp, #-460]!	; 0xfffffe34
 bb8:	656e7574 	strbvs	r7, [lr, #-1396]!	; 0x574
 bbc:	6d72613d 	ldfvse	f6, [r2, #-244]!	; 0xffffff0c
 bc0:	36373131 			; <UNDEFINED> instruction: 0x36373131
 bc4:	2d667a6a 	vstmdbcs	r6!, {s15-s120}
 bc8:	672d2073 			; <UNDEFINED> instruction: 0x672d2073
 bcc:	20626467 	rsbcs	r6, r2, r7, ror #8
 bd0:	20674f2d 	rsbcs	r4, r7, sp, lsr #30
 bd4:	6474732d 	ldrbtvs	r7, [r4], #-813	; 0x32d
 bd8:	756e673d 	strbvc	r6, [lr, #-1853]!	; 0x73d
 bdc:	2d203939 	stccs	9, cr3, [r0, #-228]!	; 0xffffff1c
 be0:	65726666 	ldrbvs	r6, [r2, #-1638]!	; 0x666
 be4:	61747365 	cmnvs	r4, r5, ror #6
 be8:	6e69646e 	cdpvs	4, 6, cr6, cr9, cr14, {3}
 bec:	735f0067 	cmpvc	pc, #103	; 0x67
 bf0:	6f747274 	svcvs	0x00747274
 bf4:	616c5f6b 	cmnvs	ip, fp, ror #30
 bf8:	5f007473 	svcpl	0x00007473
 bfc:	79746e66 	ldmdbvc	r4!, {r1, r2, r5, r6, r9, sl, fp, sp, lr}^
 c00:	00736570 	rsbseq	r6, r3, r0, ror r5
 c04:	6464615f 	strbtvs	r6, [r4], #-351	; 0x15f
 c08:	555f5f00 	ldrbpl	r5, [pc, #-3840]	; fffffd10 <__bss_end__+0xffff6298>
 c0c:	676e6f4c 	strbvs	r6, [lr, -ip, asr #30]!
 c10:	65675f00 	strbvs	r5, [r7, #-3840]!	; 0xf00
 c14:	74616474 	strbtvc	r6, [r1], #-1140	; 0x474
 c18:	72655f65 	rsbvc	r5, r5, #404	; 0x194
 c1c:	675f0072 			; <UNDEFINED> instruction: 0x675f0072
 c20:	61626f6c 	cmnvs	r2, ip, ror #30
 c24:	6d695f6c 	stclvs	15, cr5, [r9, #-432]!	; 0xfffffe50
 c28:	65727570 	ldrbvs	r7, [r2, #-1392]!	; 0x570
 c2c:	7274705f 	rsbsvc	r7, r4, #95	; 0x5f
 c30:	75635f00 	strbvc	r5, [r3, #-3840]!	; 0xf00
 c34:	6e657272 	mcrvs	2, 3, r7, cr5, cr2, {3}
 c38:	61635f74 	smcvs	13812	; 0x35f4
 c3c:	6f676574 	svcvs	0x00676574
 c40:	5f007972 	svcpl	0x00007972
 c44:	73756e75 	cmnvc	r5, #1872	; 0x750
 c48:	725f6465 	subsvc	r6, pc, #1694498816	; 0x65000000
 c4c:	00646e61 	rsbeq	r6, r4, r1, ror #28
 c50:	7364775f 	cmnvc	r4, #24903680	; 0x17c0000
 c54:	745f5f00 	ldrbvc	r5, [pc], #-3840	; c5c <__code_start__-0x73a4>
 c58:	64775f6d 	ldrbtvs	r5, [r7], #-3949	; 0xf6d
 c5c:	5f007961 	svcpl	0x00007961
 c60:	65756c67 	ldrbvs	r6, [r5, #-3175]!	; 0xc67
 c64:	49504700 	ldmdbmi	r0, {r8, r9, sl, lr}^
 c68:	55465f4f 	strbpl	r5, [r6, #-3919]	; 0xf4f
 c6c:	4f5f434e 	svcmi	0x005f434e
 c70:	55505455 	ldrbpl	r5, [r0, #-1109]	; 0x455
 c74:	6e5f0054 	mrcvs	0, 2, r0, cr15, cr4, {2}
 c78:	6c6c616d 	stfvse	f6, [ip], #-436	; 0xfffffe4c
 c7c:	5f00636f 	svcpl	0x0000636f
 c80:	6134366c 	teqvs	r4, ip, ror #12
 c84:	6675625f 			; <UNDEFINED> instruction: 0x6675625f
 c88:	74656700 	strbtvc	r6, [r5], #-1792	; 0x700
 c8c:	75003233 	strvc	r3, [r0, #-563]	; 0x233
 c90:	5f747261 	svcpl	0x00747261
 c94:	5f6e6163 	svcpl	0x006e6163
 c98:	63746567 	cmnvs	r4, #432013312	; 0x19c00000
 c9c:	69735f00 	ldmdbvs	r3!, {r8, r9, sl, fp, ip, lr}^
 ca0:	75665f67 	strbvc	r5, [r6, #-3943]!	; 0xf67
 ca4:	6f00636e 	svcvs	0x0000636e
 ca8:	6e695f72 	mcrvs	15, 3, r5, cr9, cr2, {3}
 cac:	75003233 	strvc	r3, [r0, #-563]	; 0x233
 cb0:	5f747261 	svcpl	0x00747261
 cb4:	5f736168 	svcpl	0x00736168
 cb8:	61746164 	cmnvs	r4, r4, ror #2
 cbc:	49504700 	ldmdbmi	r0, {r8, r9, sl, lr}^
 cc0:	55465f4f 	strbpl	r5, [r6, #-3919]	; 0xf4f
 cc4:	415f434e 	cmpmi	pc, lr, asr #6
 cc8:	0030544c 	eorseq	r5, r0, ip, asr #8
 ccc:	75626e5f 	strbvc	r6, [r2, #-3679]!	; 0xe5f
 cd0:	755f0066 	ldrbvc	r0, [pc, #-102]	; c72 <__code_start__-0x738e>
 cd4:	6573756e 	ldrbvs	r7, [r3, #-1390]!	; 0x56e
 cd8:	50470064 	subpl	r0, r7, r4, rrx
 cdc:	465f4f49 	ldrbmi	r4, [pc], -r9, asr #30
 ce0:	5f434e55 	svcpl	0x00434e55
 ce4:	33544c41 	cmpcc	r4, #16640	; 0x4100
 ce8:	49504700 	ldmdbmi	r0, {r8, r9, sl, lr}^
 cec:	55465f4f 	strbpl	r5, [r6, #-3919]	; 0xf4f
 cf0:	415f434e 	cmpmi	pc, lr, asr #6
 cf4:	0034544c 	eorseq	r5, r4, ip, asr #8
 cf8:	4f495047 	svcmi	0x00495047
 cfc:	4e55465f 	mrcmi	6, 2, r4, cr5, cr15, {2}
 d00:	4c415f43 	mcrrmi	15, 4, r5, r1, cr3
 d04:	5f003554 	svcpl	0x00003554
 d08:	5f6d745f 	svcpl	0x006d745f
 d0c:	73647369 	cmnvc	r4, #-1543503871	; 0xa4000001
 d10:	6c5f0074 	mrrcvs	0, 7, r0, pc, cr4	; <UNPREDICTABLE>
 d14:	6c61636f 	stclvs	3, cr6, [r1], #-444	; 0xfffffe44
 d18:	656d6974 	strbvs	r6, [sp, #-2420]!	; 0x974
 d1c:	6675625f 			; <UNDEFINED> instruction: 0x6675625f
 d20:	6c635f00 	stclvs	15, cr5, [r3], #-0
 d24:	0065736f 	rsbeq	r7, r5, pc, ror #6
 d28:	3834725f 	ldmdacc	r4!, {r0, r1, r2, r3, r4, r6, r9, ip, sp, lr}
 d2c:	626d5f00 	rsbvs	r5, sp, #0, 30
 d30:	63776f74 	cmnvs	r7, #116, 30	; 0x1d0
 d34:	6174735f 	cmnvs	r4, pc, asr r3
 d38:	5f006574 	svcpl	0x00006574
 d3c:	00733570 	rsbseq	r3, r3, r0, ror r5
 d40:	6d745f5f 	ldclvs	15, cr5, [r4, #-380]!	; 0xfffffe84
 d44:	61646d5f 	cmnvs	r4, pc, asr sp
 d48:	70670079 	rsbvc	r0, r7, r9, ror r0
 d4c:	735f6f69 	cmpvc	pc, #420	; 0x1a4
 d50:	6f5f7465 	svcvs	0x005f7465
 d54:	62006666 	andvs	r6, r0, #106954752	; 0x6600000
 d58:	006b6e61 	rsbeq	r6, fp, r1, ror #28
 d5c:	6f697067 	svcvs	0x00697067
 d60:	6700632e 	strvs	r6, [r0, -lr, lsr #6]
 d64:	5f6f6970 	svcpl	0x006f6970
 d68:	64616572 	strbtvs	r6, [r1], #-1394	; 0x572
 d6c:	69706700 	ldmdbvs	r0!, {r8, r9, sl, sp, lr}^
 d70:	65735f6f 	ldrbvs	r5, [r3, #-3951]!	; 0xf6f
 d74:	756f5f74 	strbvc	r5, [pc, #-3956]!	; fffffe08 <__bss_end__+0xffff6390>
 d78:	74757074 	ldrbtvc	r7, [r5], #-116	; 0x74
 d7c:	69706700 	ldmdbvs	r0!, {r8, r9, sl, sp, lr}^
 d80:	72775f6f 	rsbsvc	r5, r7, #444	; 0x1bc
 d84:	00657469 	rsbeq	r7, r5, r9, ror #8
 d88:	6f697067 	svcvs	0x00697067
 d8c:	7465735f 	strbtvc	r7, [r5], #-863	; 0x35f
 d90:	70670030 	rsbvc	r0, r7, r0, lsr r0
 d94:	6c5f6f69 	mrrcvs	15, 6, r6, pc, cr9	; <UNPREDICTABLE>
 d98:	00307665 	eorseq	r7, r0, r5, ror #12
 d9c:	6f697067 	svcvs	0x00697067
 da0:	7465735f 	strbtvc	r7, [r5], #-863	; 0x35f
 da4:	706e695f 	rsbvc	r6, lr, pc, asr r9
 da8:	67007475 	smlsdxvs	r0, r5, r4, r7
 dac:	5f6f6970 	svcpl	0x006f6970
 db0:	5f746573 	svcpl	0x00746573
 db4:	67006e6f 	strvs	r6, [r0, -pc, ror #28]
 db8:	5f6f6970 	svcpl	0x006f6970
 dbc:	636e7566 	cmnvs	lr, #427819008	; 0x19800000
 dc0:	6700745f 	smlsdvs	r0, pc, r4, r7	; <UNPREDICTABLE>
 dc4:	5f6f6970 	svcpl	0x006f6970
 dc8:	30726c63 	rsbscc	r6, r2, r3, ror #24
	...

Disassembly of section .debug_frame:

00000000 <.debug_frame>:
   0:	0000000c 	andeq	r0, r0, ip
   4:	ffffffff 			; <UNDEFINED> instruction: 0xffffffff
   8:	7c020001 	stcvc	0, cr0, [r2], {1}
   c:	000d0c0e 	andeq	r0, sp, lr, lsl #24
  10:	00000014 	andeq	r0, r0, r4, lsl r0
  14:	00000000 	andeq	r0, r0, r0
  18:	00008010 	andeq	r8, r0, r0, lsl r0
  1c:	000000a4 	andeq	r0, r0, r4, lsr #1
  20:	8e040e42 	cdphi	14, 0, cr0, cr4, cr2, {2}
  24:	100e4201 	andne	r4, lr, r1, lsl #4
  28:	00000014 	andeq	r0, r0, r4, lsl r0
  2c:	00000000 	andeq	r0, r0, r0
  30:	000080b4 	strheq	r8, [r0], -r4
  34:	00000068 	andeq	r0, r0, r8, rrx
  38:	83080e42 	movwhi	r0, #36418	; 0x8e42
  3c:	00018e02 	andeq	r8, r1, r2, lsl #28
  40:	0000000c 	andeq	r0, r0, ip
  44:	ffffffff 			; <UNDEFINED> instruction: 0xffffffff
  48:	7c020001 	stcvc	0, cr0, [r2], {1}
  4c:	000d0c0e 	andeq	r0, sp, lr, lsl #24
  50:	00000014 	andeq	r0, r0, r4, lsl r0
  54:	00000040 	andeq	r0, r0, r0, asr #32
  58:	0000811c 	andeq	r8, r0, ip, lsl r1
  5c:	000000b0 	strheq	r0, [r0], -r0	; <UNPREDICTABLE>
  60:	8e040e42 	cdphi	14, 0, cr0, cr4, cr2, {2}
  64:	100e4201 	andne	r4, lr, r1, lsl #4
  68:	00000018 	andeq	r0, r0, r8, lsl r0
  6c:	00000040 	andeq	r0, r0, r0, asr #32
  70:	000081cc 	andeq	r8, r0, ip, asr #3
  74:	0000015c 	andeq	r0, r0, ip, asr r1
  78:	840c0e42 	strhi	r0, [ip], #-3650	; 0xe42
  7c:	8e028503 	cfsh32hi	mvfx8, mvfx2, #3
  80:	180e4201 	stmdane	lr, {r0, r9, lr}
  84:	00000014 	andeq	r0, r0, r4, lsl r0
  88:	00000040 	andeq	r0, r0, r0, asr #32
  8c:	00008328 	andeq	r8, r0, r8, lsr #6
  90:	0000003c 	andeq	r0, r0, ip, lsr r0
  94:	83080e42 	movwhi	r0, #36418	; 0x8e42
  98:	00018e02 	andeq	r8, r1, r2, lsl #28
  9c:	0000000c 	andeq	r0, r0, ip
  a0:	00000040 	andeq	r0, r0, r0, asr #32
  a4:	00008364 	andeq	r8, r0, r4, ror #6
  a8:	00000034 	andeq	r0, r0, r4, lsr r0
  ac:	00000018 	andeq	r0, r0, r8, lsl r0
  b0:	00000040 	andeq	r0, r0, r0, asr #32
  b4:	00008398 	muleq	r0, r8, r3
  b8:	000000c4 	andeq	r0, r0, r4, asr #1
  bc:	84080e42 	strhi	r0, [r8], #-3650	; 0xe42
  c0:	42018e02 	andmi	r8, r1, #2, 28
  c4:	0000100e 	andeq	r1, r0, lr
  c8:	0000000c 	andeq	r0, r0, ip
  cc:	00000040 	andeq	r0, r0, r0, asr #32
  d0:	0000845c 	andeq	r8, r0, ip, asr r4
  d4:	00000004 	andeq	r0, r0, r4
  d8:	0000000c 	andeq	r0, r0, ip
  dc:	ffffffff 			; <UNDEFINED> instruction: 0xffffffff
  e0:	7c020001 	stcvc	0, cr0, [r2], {1}
  e4:	000d0c0e 	andeq	r0, sp, lr, lsl #24
  e8:	00000024 	andeq	r0, r0, r4, lsr #32
  ec:	000000d8 	ldrdeq	r0, [r0], -r8
  f0:	00008550 	andeq	r8, r0, r0, asr r5
  f4:	00000058 	andeq	r0, r0, r8, asr r0
  f8:	80100e42 	andshi	r0, r0, r2, asr #28
  fc:	82038104 	andhi	r8, r3, #4, 2
 100:	42018302 	andmi	r8, r1, #134217728	; 0x8000000
 104:	07841c0e 	streq	r1, [r4, lr, lsl #24]
 108:	058e0685 	streq	r0, [lr, #1669]	; 0x685
 10c:	00280e42 	eoreq	r0, r8, r2, asr #28
 110:	0000000c 	andeq	r0, r0, ip
 114:	ffffffff 			; <UNDEFINED> instruction: 0xffffffff
 118:	7c020001 	stcvc	0, cr0, [r2], {1}
 11c:	000d0c0e 	andeq	r0, sp, lr, lsl #24
 120:	00000014 	andeq	r0, r0, r4, lsl r0
 124:	00000110 	andeq	r0, r0, r0, lsl r1
 128:	000085a8 	andeq	r8, r0, r8, lsr #11
 12c:	00000014 	andeq	r0, r0, r4, lsl r0
 130:	84080e42 	strhi	r0, [r8], #-3650	; 0xe42
 134:	00018e02 	andeq	r8, r1, r2, lsl #28
 138:	0000000c 	andeq	r0, r0, ip
 13c:	00000110 	andeq	r0, r0, r0, lsl r1
 140:	000085bc 			; <UNDEFINED> instruction: 0x000085bc
 144:	00000018 	andeq	r0, r0, r8, lsl r0
 148:	0000000c 	andeq	r0, r0, ip
 14c:	00000110 	andeq	r0, r0, r0, lsl r1
 150:	000085d4 	ldrdeq	r8, [r0], -r4
 154:	00000010 	andeq	r0, r0, r0, lsl r0
 158:	0000000c 	andeq	r0, r0, ip
 15c:	ffffffff 			; <UNDEFINED> instruction: 0xffffffff
 160:	7c020001 	stcvc	0, cr0, [r2], {1}
 164:	000d0c0e 	andeq	r0, sp, lr, lsl #24
 168:	00000018 	andeq	r0, r0, r8, lsl r0
 16c:	00000158 	andeq	r0, r0, r8, asr r1
 170:	000085e4 	andeq	r8, r0, r4, ror #11
 174:	00000034 	andeq	r0, r0, r4, lsr r0
 178:	83100e42 	tsthi	r0, #1056	; 0x420
 17c:	85038404 	strhi	r8, [r3, #-1028]	; 0x404
 180:	00018e02 	andeq	r8, r1, r2, lsl #28
 184:	0000000c 	andeq	r0, r0, ip
 188:	ffffffff 			; <UNDEFINED> instruction: 0xffffffff
 18c:	7c020001 	stcvc	0, cr0, [r2], {1}
 190:	000d0c0e 	andeq	r0, sp, lr, lsl #24
 194:	0000000c 	andeq	r0, r0, ip
 198:	00000184 	andeq	r0, r0, r4, lsl #3
 19c:	00008618 	andeq	r8, r0, r8, lsl r6
 1a0:	00000014 	andeq	r0, r0, r4, lsl r0
 1a4:	0000000c 	andeq	r0, r0, ip
 1a8:	00000184 	andeq	r0, r0, r4, lsl #3
 1ac:	0000862c 	andeq	r8, r0, ip, lsr #12
 1b0:	0000002c 	andeq	r0, r0, ip, lsr #32
 1b4:	0000000c 	andeq	r0, r0, ip
 1b8:	00000184 	andeq	r0, r0, r4, lsl #3
 1bc:	00008658 	andeq	r8, r0, r8, asr r6
 1c0:	00000040 	andeq	r0, r0, r0, asr #32
 1c4:	00000020 	andeq	r0, r0, r0, lsr #32
 1c8:	00000184 	andeq	r0, r0, r4, lsl #3
 1cc:	00008698 	muleq	r0, r8, r6
 1d0:	000001bc 			; <UNDEFINED> instruction: 0x000001bc
 1d4:	84180e42 	ldrhi	r0, [r8], #-3650	; 0xe42
 1d8:	86058506 	strhi	r8, [r5], -r6, lsl #10
 1dc:	88038704 	stmdahi	r3, {r2, r8, r9, sl, pc}
 1e0:	42018e02 	andmi	r8, r1, #2, 28
 1e4:	0000600e 	andeq	r6, r0, lr
 1e8:	00000014 	andeq	r0, r0, r4, lsl r0
 1ec:	00000184 	andeq	r0, r0, r4, lsl #3
 1f0:	00008854 	andeq	r8, r0, r4, asr r8
 1f4:	00000068 	andeq	r0, r0, r8, rrx
 1f8:	8e040e42 	cdphi	14, 0, cr0, cr4, cr2, {2}
 1fc:	100e4201 	andne	r4, lr, r1, lsl #4
 200:	00000028 	andeq	r0, r0, r8, lsr #32
 204:	00000184 	andeq	r0, r0, r4, lsl #3
 208:	000088bc 			; <UNDEFINED> instruction: 0x000088bc
 20c:	000002d4 	ldrdeq	r0, [r0], -r4
 210:	84240e42 	strthi	r0, [r4], #-3650	; 0xe42
 214:	86088509 	strhi	r8, [r8], -r9, lsl #10
 218:	88068707 	stmdahi	r6, {r0, r1, r2, r8, r9, sl, pc}
 21c:	8a048905 	bhi	122638 <__bss_end__+0x118bc0>
 220:	8e028b03 	vmlahi.f64	d8, d2, d3
 224:	b80e4201 	stmdalt	lr, {r0, r9, lr}
 228:	00000001 	andeq	r0, r0, r1
 22c:	0000000c 	andeq	r0, r0, ip
 230:	ffffffff 			; <UNDEFINED> instruction: 0xffffffff
 234:	7c020001 	stcvc	0, cr0, [r2], {1}
 238:	000d0c0e 	andeq	r0, sp, lr, lsl #24
 23c:	00000014 	andeq	r0, r0, r4, lsl r0
 240:	0000022c 	andeq	r0, r0, ip, lsr #4
 244:	00008b90 	muleq	r0, r0, fp
 248:	0000002c 	andeq	r0, r0, ip, lsr #32
 24c:	83080e42 	movwhi	r0, #36418	; 0x8e42
 250:	00018e02 	andeq	r8, r1, r2, lsl #28
 254:	0000000c 	andeq	r0, r0, ip
 258:	ffffffff 			; <UNDEFINED> instruction: 0xffffffff
 25c:	7c020001 	stcvc	0, cr0, [r2], {1}
 260:	000d0c0e 	andeq	r0, sp, lr, lsl #24
 264:	00000014 	andeq	r0, r0, r4, lsl r0
 268:	00000254 	andeq	r0, r0, r4, asr r2
 26c:	00008bbc 			; <UNDEFINED> instruction: 0x00008bbc
 270:	00000038 	andeq	r0, r0, r8, lsr r0
 274:	83080e42 	movwhi	r0, #36418	; 0x8e42
 278:	00018e02 	andeq	r8, r1, r2, lsl #28
 27c:	0000000c 	andeq	r0, r0, ip
 280:	ffffffff 			; <UNDEFINED> instruction: 0xffffffff
 284:	7c020001 	stcvc	0, cr0, [r2], {1}
 288:	000d0c0e 	andeq	r0, sp, lr, lsl #24
 28c:	00000014 	andeq	r0, r0, r4, lsl r0
 290:	0000027c 	andeq	r0, r0, ip, ror r2
 294:	00008bf4 	strdeq	r8, [r0], -r4
 298:	00000044 	andeq	r0, r0, r4, asr #32
 29c:	8e040e42 	cdphi	14, 0, cr0, cr4, cr2, {2}
 2a0:	100e4201 	andne	r4, lr, r1, lsl #4
 2a4:	0000000c 	andeq	r0, r0, ip
 2a8:	ffffffff 			; <UNDEFINED> instruction: 0xffffffff
 2ac:	7c020001 	stcvc	0, cr0, [r2], {1}
 2b0:	000d0c0e 	andeq	r0, sp, lr, lsl #24
 2b4:	00000014 	andeq	r0, r0, r4, lsl r0
 2b8:	000002a4 	andeq	r0, r0, r4, lsr #5
 2bc:	00008c38 	andeq	r8, r0, r8, lsr ip
 2c0:	00000044 	andeq	r0, r0, r4, asr #32
 2c4:	8e040e42 	cdphi	14, 0, cr0, cr4, cr2, {2}
 2c8:	100e4201 	andne	r4, lr, r1, lsl #4
 2cc:	0000000c 	andeq	r0, r0, ip
 2d0:	ffffffff 			; <UNDEFINED> instruction: 0xffffffff
 2d4:	7c020001 	stcvc	0, cr0, [r2], {1}
 2d8:	000d0c0e 	andeq	r0, sp, lr, lsl #24
 2dc:	00000014 	andeq	r0, r0, r4, lsl r0
 2e0:	000002cc 	andeq	r0, r0, ip, asr #5
 2e4:	00008c7c 	andeq	r8, r0, ip, ror ip
 2e8:	00000044 	andeq	r0, r0, r4, asr #32
 2ec:	8e040e42 	cdphi	14, 0, cr0, cr4, cr2, {2}
 2f0:	100e4201 	andne	r4, lr, r1, lsl #4
 2f4:	0000000c 	andeq	r0, r0, ip
 2f8:	ffffffff 			; <UNDEFINED> instruction: 0xffffffff
 2fc:	7c020001 	stcvc	0, cr0, [r2], {1}
 300:	000d0c0e 	andeq	r0, sp, lr, lsl #24
 304:	00000014 	andeq	r0, r0, r4, lsl r0
 308:	000002f4 	strdeq	r0, [r0], -r4
 30c:	00008cc0 	andeq	r8, r0, r0, asr #25
 310:	00000044 	andeq	r0, r0, r4, asr #32
 314:	8e040e42 	cdphi	14, 0, cr0, cr4, cr2, {2}
 318:	100e4201 	andne	r4, lr, r1, lsl #4
 31c:	0000000c 	andeq	r0, r0, ip
 320:	ffffffff 			; <UNDEFINED> instruction: 0xffffffff
 324:	7c020001 	stcvc	0, cr0, [r2], {1}
 328:	000d0c0e 	andeq	r0, sp, lr, lsl #24
 32c:	0000000c 	andeq	r0, r0, ip
 330:	0000031c 	andeq	r0, r0, ip, lsl r3
 334:	00008d04 	andeq	r8, r0, r4, lsl #26
 338:	00000004 	andeq	r0, r0, r4
 33c:	0000000c 	andeq	r0, r0, ip
 340:	0000031c 	andeq	r0, r0, ip, lsl r3
 344:	00008d08 	andeq	r8, r0, r8, lsl #26
 348:	00000004 	andeq	r0, r0, r4
 34c:	0000000c 	andeq	r0, r0, ip
 350:	ffffffff 			; <UNDEFINED> instruction: 0xffffffff
 354:	7c020001 	stcvc	0, cr0, [r2], {1}
 358:	000d0c0e 	andeq	r0, sp, lr, lsl #24
 35c:	00000014 	andeq	r0, r0, r4, lsl r0
 360:	0000034c 	andeq	r0, r0, ip, asr #6
 364:	00008d0c 	andeq	r8, r0, ip, lsl #26
 368:	0000006c 	andeq	r0, r0, ip, rrx
 36c:	83080e42 	movwhi	r0, #36418	; 0x8e42
 370:	00018e02 	andeq	r8, r1, r2, lsl #28
 374:	0000000c 	andeq	r0, r0, ip
 378:	ffffffff 			; <UNDEFINED> instruction: 0xffffffff
 37c:	7c020001 	stcvc	0, cr0, [r2], {1}
 380:	000d0c0e 	andeq	r0, sp, lr, lsl #24
 384:	0000000c 	andeq	r0, r0, ip
 388:	00000374 	andeq	r0, r0, r4, ror r3
 38c:	00008d78 	andeq	r8, r0, r8, ror sp
 390:	00000018 	andeq	r0, r0, r8, lsl r0
 394:	0000000c 	andeq	r0, r0, ip
 398:	00000374 	andeq	r0, r0, r4, ror r3
 39c:	00008d90 	muleq	r0, r0, sp
 3a0:	00000014 	andeq	r0, r0, r4, lsl r0
 3a4:	00000014 	andeq	r0, r0, r4, lsl r0
 3a8:	00000374 	andeq	r0, r0, r4, ror r3
 3ac:	00008da4 	andeq	r8, r0, r4, lsr #27
 3b0:	00000048 	andeq	r0, r0, r8, asr #32
 3b4:	83080e42 	movwhi	r0, #36418	; 0x8e42
 3b8:	00018e02 	andeq	r8, r1, r2, lsl #28
 3bc:	0000000c 	andeq	r0, r0, ip
 3c0:	ffffffff 			; <UNDEFINED> instruction: 0xffffffff
 3c4:	7c020001 	stcvc	0, cr0, [r2], {1}
 3c8:	000d0c0e 	andeq	r0, sp, lr, lsl #24
 3cc:	0000000c 	andeq	r0, r0, ip
 3d0:	000003bc 			; <UNDEFINED> instruction: 0x000003bc
 3d4:	00008dec 	andeq	r8, r0, ip, ror #27
 3d8:	0000001c 	andeq	r0, r0, ip, lsl r0
 3dc:	00000014 	andeq	r0, r0, r4, lsl r0
 3e0:	000003bc 			; <UNDEFINED> instruction: 0x000003bc
 3e4:	00008e08 	andeq	r8, r0, r8, lsl #28
 3e8:	00000014 	andeq	r0, r0, r4, lsl r0
 3ec:	83080e42 	movwhi	r0, #36418	; 0x8e42
 3f0:	00018e02 	andeq	r8, r1, r2, lsl #28
 3f4:	00000014 	andeq	r0, r0, r4, lsl r0
 3f8:	000003bc 			; <UNDEFINED> instruction: 0x000003bc
 3fc:	00008e1c 	andeq	r8, r0, ip, lsl lr
 400:	0000001c 	andeq	r0, r0, ip, lsl r0
 404:	84080e42 	strhi	r0, [r8], #-3650	; 0xe42
 408:	00018e02 	andeq	r8, r1, r2, lsl #28
 40c:	00000018 	andeq	r0, r0, r8, lsl r0
 410:	000003bc 			; <UNDEFINED> instruction: 0x000003bc
 414:	00008e38 	andeq	r8, r0, r8, lsr lr
 418:	00000024 	andeq	r0, r0, r4, lsr #32
 41c:	83100e42 	tsthi	r0, #1056	; 0x420
 420:	85038404 	strhi	r8, [r3, #-1028]	; 0x404
 424:	00018e02 	andeq	r8, r1, r2, lsl #28
 428:	00000014 	andeq	r0, r0, r4, lsl r0
 42c:	000003bc 			; <UNDEFINED> instruction: 0x000003bc
 430:	00008e5c 	andeq	r8, r0, ip, asr lr
 434:	00000014 	andeq	r0, r0, r4, lsl r0
 438:	83080e42 	movwhi	r0, #36418	; 0x8e42
 43c:	00018e02 	andeq	r8, r1, r2, lsl #28
 440:	00000014 	andeq	r0, r0, r4, lsl r0
 444:	000003bc 			; <UNDEFINED> instruction: 0x000003bc
 448:	00008e70 	andeq	r8, r0, r0, ror lr
 44c:	00000014 	andeq	r0, r0, r4, lsl r0
 450:	83080e42 	movwhi	r0, #36418	; 0x8e42
 454:	00018e02 	andeq	r8, r1, r2, lsl #28
 458:	0000000c 	andeq	r0, r0, ip
 45c:	ffffffff 			; <UNDEFINED> instruction: 0xffffffff
 460:	7c020001 	stcvc	0, cr0, [r2], {1}
 464:	000d0c0e 	andeq	r0, sp, lr, lsl #24
 468:	00000018 	andeq	r0, r0, r8, lsl r0
 46c:	00000458 	andeq	r0, r0, r8, asr r4
 470:	00008eec 	andeq	r8, r0, ip, ror #29
 474:	00000020 	andeq	r0, r0, r0, lsr #32
 478:	84100e42 	ldrhi	r0, [r0], #-3650	; 0xe42
 47c:	86038504 	strhi	r8, [r3], -r4, lsl #10
 480:	00018e02 	andeq	r8, r1, r2, lsl #28
 484:	00000014 	andeq	r0, r0, r4, lsl r0
 488:	00000458 	andeq	r0, r0, r8, asr r4
 48c:	00008f0c 	andeq	r8, r0, ip, lsl #30
 490:	000000b0 	strheq	r0, [r0], -r0	; <UNPREDICTABLE>
 494:	84080e42 	strhi	r0, [r8], #-3650	; 0xe42
 498:	00018e02 	andeq	r8, r1, r2, lsl #28
 49c:	00000014 	andeq	r0, r0, r4, lsl r0
 4a0:	00000458 	andeq	r0, r0, r8, asr r4
 4a4:	00008fbc 			; <UNDEFINED> instruction: 0x00008fbc
 4a8:	00000018 	andeq	r0, r0, r8, lsl r0
 4ac:	84080e42 	strhi	r0, [r8], #-3650	; 0xe42
 4b0:	00018e02 	andeq	r8, r1, r2, lsl #28
 4b4:	00000014 	andeq	r0, r0, r4, lsl r0
 4b8:	00000458 	andeq	r0, r0, r8, asr r4
 4bc:	00008fd4 	ldrdeq	r8, [r0], -r4
 4c0:	00000020 	andeq	r0, r0, r0, lsr #32
 4c4:	84080e42 	strhi	r0, [r8], #-3650	; 0xe42
 4c8:	00018e02 	andeq	r8, r1, r2, lsl #28
 4cc:	00000014 	andeq	r0, r0, r4, lsl r0
 4d0:	00000458 	andeq	r0, r0, r8, asr r4
 4d4:	00008ff4 	strdeq	r8, [r0], -r4
 4d8:	00000030 	andeq	r0, r0, r0, lsr r0
 4dc:	84080e42 	strhi	r0, [r8], #-3650	; 0xe42
 4e0:	00018e02 	andeq	r8, r1, r2, lsl #28
 4e4:	00000014 	andeq	r0, r0, r4, lsl r0
 4e8:	00000458 	andeq	r0, r0, r8, asr r4
 4ec:	00009024 	andeq	r9, r0, r4, lsr #32
 4f0:	00000030 	andeq	r0, r0, r0, lsr r0
 4f4:	84080e42 	strhi	r0, [r8], #-3650	; 0xe42
 4f8:	00018e02 	andeq	r8, r1, r2, lsl #28
 4fc:	00000014 	andeq	r0, r0, r4, lsl r0
 500:	00000458 	andeq	r0, r0, r8, asr r4
 504:	00009054 	andeq	r9, r0, r4, asr r0
 508:	00000010 	andeq	r0, r0, r0, lsl r0
 50c:	84080e42 	strhi	r0, [r8], #-3650	; 0xe42
 510:	00018e02 	andeq	r8, r1, r2, lsl #28
 514:	0000000c 	andeq	r0, r0, ip
 518:	ffffffff 			; <UNDEFINED> instruction: 0xffffffff
 51c:	7c020001 	stcvc	0, cr0, [r2], {1}
 520:	000d0c0e 	andeq	r0, sp, lr, lsl #24
 524:	00000018 	andeq	r0, r0, r8, lsl r0
 528:	00000514 	andeq	r0, r0, r4, lsl r5
 52c:	00009064 	andeq	r9, r0, r4, rrx
 530:	00000068 	andeq	r0, r0, r8, rrx
 534:	84100e4a 	ldrhi	r0, [r0], #-3658	; 0xe4a
 538:	86038504 	strhi	r8, [r3], -r4, lsl #10
 53c:	00018e02 	andeq	r8, r1, r2, lsl #28
 540:	00000014 	andeq	r0, r0, r4, lsl r0
 544:	00000514 	andeq	r0, r0, r4, lsl r5
 548:	000090cc 	andeq	r9, r0, ip, asr #1
 54c:	00000010 	andeq	r0, r0, r0, lsl r0
 550:	84080e42 	strhi	r0, [r8], #-3650	; 0xe42
 554:	00018e02 	andeq	r8, r1, r2, lsl #28
 558:	00000014 	andeq	r0, r0, r4, lsl r0
 55c:	00000514 	andeq	r0, r0, r4, lsl r5
 560:	000090dc 	ldrdeq	r9, [r0], -ip
 564:	00000024 	andeq	r0, r0, r4, lsr #32
 568:	84080e46 	strhi	r0, [r8], #-3654	; 0xe46
 56c:	00018e02 	andeq	r8, r1, r2, lsl #28
 570:	00000014 	andeq	r0, r0, r4, lsl r0
 574:	00000514 	andeq	r0, r0, r4, lsl r5
 578:	00009100 	andeq	r9, r0, r0, lsl #2
 57c:	00000024 	andeq	r0, r0, r4, lsr #32
 580:	84080e46 	strhi	r0, [r8], #-3654	; 0xe46
 584:	00018e02 	andeq	r8, r1, r2, lsl #28
 588:	00000014 	andeq	r0, r0, r4, lsl r0
 58c:	00000514 	andeq	r0, r0, r4, lsl r5
 590:	00009124 	andeq	r9, r0, r4, lsr #2
 594:	00000010 	andeq	r0, r0, r0, lsl r0
 598:	84080e42 	strhi	r0, [r8], #-3650	; 0xe42
 59c:	00018e02 	andeq	r8, r1, r2, lsl #28
 5a0:	00000014 	andeq	r0, r0, r4, lsl r0
 5a4:	00000514 	andeq	r0, r0, r4, lsl r5
 5a8:	00009134 	andeq	r9, r0, r4, lsr r1
 5ac:	0000001c 	andeq	r0, r0, ip, lsl r0
 5b0:	84080e42 	strhi	r0, [r8], #-3650	; 0xe42
 5b4:	00018e02 	andeq	r8, r1, r2, lsl #28
 5b8:	00000018 	andeq	r0, r0, r8, lsl r0
 5bc:	00000514 	andeq	r0, r0, r4, lsl r5
 5c0:	00009150 	andeq	r9, r0, r0, asr r1
 5c4:	00000034 	andeq	r0, r0, r4, lsr r0
 5c8:	84080e46 	strhi	r0, [r8], #-3654	; 0xe46
 5cc:	4e018e02 	cdpmi	14, 0, cr8, cr1, cr2, {0}
 5d0:	cec4000e 	cdpgt	0, 12, cr0, cr4, cr14, {0}

Disassembly of section .debug_ranges:

00000000 <.debug_ranges>:
   0:	00008d78 	andeq	r8, r0, r8, ror sp
   4:	00008dec 	andeq	r8, r0, ip, ror #27
	...
