
fp-example.elf:     file format elf32-littlearm


Disassembly of section .text:

00008000 <_start>:
    8000:	e3a0d302 	mov	sp, #134217728	; 0x8000000
    8004:	e3a0b000 	mov	fp, #0
    8008:	eb000656 	bl	9968 <_cstart>
    800c:	eb00067d 	bl	9a08 <rpi_reboot>

00008010 <notmain>:
    8010:	e92d41f0 	push	{r4, r5, r6, r7, r8, lr}
    8014:	e24dd028 	sub	sp, sp, #40	; 0x28
    8018:	e59f0088 	ldr	r0, [pc, #136]	; 80a8 <notmain+0x98>
    801c:	e59f2088 	ldr	r2, [pc, #136]	; 80ac <notmain+0x9c>
    8020:	e59f3088 	ldr	r3, [pc, #136]	; 80b0 <notmain+0xa0>
    8024:	eb000485 	bl	9240 <printk>
    8028:	e28dc008 	add	ip, sp, #8
    802c:	e59f4080 	ldr	r4, [pc, #128]	; 80b4 <notmain+0xa4>
    8030:	e8b4000f 	ldm	r4!, {r0, r1, r2, r3}
    8034:	e8ac000f 	stmia	ip!, {r0, r1, r2, r3}
    8038:	e894000f 	ldm	r4, {r0, r1, r2, r3}
    803c:	e88c000f 	stm	ip, {r0, r1, r2, r3}
    8040:	e3a06000 	mov	r6, #0
    8044:	e59f806c 	ldr	r8, [pc, #108]	; 80b8 <notmain+0xa8>
    8048:	e59f706c 	ldr	r7, [pc, #108]	; 80bc <notmain+0xac>
    804c:	ea000011 	b	8098 <notmain+0x88>
    8050:	e28d2028 	add	r2, sp, #40	; 0x28
    8054:	e0823186 	add	r3, r2, r6, lsl #3
    8058:	e14342d0 	ldrd	r4, [r3, #-32]	; 0xffffffe0
    805c:	ec454b10 	vmov	d0, r4, r5
    8060:	eb000016 	bl	80c0 <cos>
    8064:	ed8d0b00 	vstr	d0, [sp]
    8068:	e1a00008 	mov	r0, r8
    806c:	e1a02004 	mov	r2, r4
    8070:	e1a03005 	mov	r3, r5
    8074:	eb000471 	bl	9240 <printk>
    8078:	ec454b10 	vmov	d0, r4, r5
    807c:	eb000435 	bl	9158 <sin>
    8080:	ed8d0b00 	vstr	d0, [sp]
    8084:	e1a00007 	mov	r0, r7
    8088:	e1a02004 	mov	r2, r4
    808c:	e1a03005 	mov	r3, r5
    8090:	eb00046a 	bl	9240 <printk>
    8094:	e2866001 	add	r6, r6, #1
    8098:	e3560003 	cmp	r6, #3
    809c:	daffffeb 	ble	8050 <notmain+0x40>
    80a0:	e28dd028 	add	sp, sp, #40	; 0x28
    80a4:	e8bd81f0 	pop	{r4, r5, r6, r7, r8, pc}
    80a8:	00009ef0 	strdeq	r9, [r0], -r0
    80ac:	c083126f 	addgt	r1, r3, pc, ror #4
    80b0:	400921ca 	andmi	r2, r9, sl, asr #3
    80b4:	00009ed0 	ldrdeq	r9, [r0], -r0
    80b8:	00009f0c 	andeq	r9, r0, ip, lsl #30
    80bc:	00009f1c 	andeq	r9, r0, ip, lsl pc

000080c0 <cos>:
    80c0:	e52de004 	push	{lr}		; (str lr, [sp, #-4]!)
    80c4:	e24dd014 	sub	sp, sp, #20
    80c8:	ec532b10 	vmov	r2, r3, d0
    80cc:	e3c33102 	bic	r3, r3, #-2147483648	; 0x80000000
    80d0:	e59f20d0 	ldr	r2, [pc, #208]	; 81a8 <cos+0xe8>
    80d4:	e1530002 	cmp	r3, r2
    80d8:	ca000009 	bgt	8104 <cos+0x44>
    80dc:	e59f20c8 	ldr	r2, [pc, #200]	; 81ac <cos+0xec>
    80e0:	e1530002 	cmp	r3, r2
    80e4:	ca000003 	bgt	80f8 <cos+0x38>
    80e8:	eefd7bc0 	vcvt.s32.f64	s15, d0
    80ec:	ee173a90 	vmov	r3, s15
    80f0:	e3530000 	cmp	r3, #0
    80f4:	0a000023 	beq	8188 <cos+0xc8>
    80f8:	ed9f1b26 	vldr	d1, [pc, #152]	; 8198 <cos+0xd8>
    80fc:	eb00002d 	bl	81b8 <__kernel_cos>
    8100:	ea000021 	b	818c <cos+0xcc>
    8104:	e59f20a4 	ldr	r2, [pc, #164]	; 81b0 <cos+0xf0>
    8108:	e1530002 	cmp	r3, r2
    810c:	ce300b40 	vsubgt.f64	d0, d0, d0
    8110:	ca00001d 	bgt	818c <cos+0xcc>
    8114:	e1a0000d 	mov	r0, sp
    8118:	eb00007c 	bl	8310 <__ieee754_rem_pio2>
    811c:	e2000003 	and	r0, r0, #3
    8120:	e3500001 	cmp	r0, #1
    8124:	0a000007 	beq	8148 <cos+0x88>
    8128:	e3500002 	cmp	r0, #2
    812c:	0a00000b 	beq	8160 <cos+0xa0>
    8130:	e3500000 	cmp	r0, #0
    8134:	1a00000e 	bne	8174 <cos+0xb4>
    8138:	ed9d0b00 	vldr	d0, [sp]
    813c:	ed9d1b02 	vldr	d1, [sp, #8]
    8140:	eb00001c 	bl	81b8 <__kernel_cos>
    8144:	ea000010 	b	818c <cos+0xcc>
    8148:	ed9d0b00 	vldr	d0, [sp]
    814c:	ed9d1b02 	vldr	d1, [sp, #8]
    8150:	e3a00001 	mov	r0, #1
    8154:	eb000043 	bl	8268 <__kernel_sin>
    8158:	eeb10b40 	vneg.f64	d0, d0
    815c:	ea00000a 	b	818c <cos+0xcc>
    8160:	ed9d0b00 	vldr	d0, [sp]
    8164:	ed9d1b02 	vldr	d1, [sp, #8]
    8168:	eb000012 	bl	81b8 <__kernel_cos>
    816c:	eeb10b40 	vneg.f64	d0, d0
    8170:	ea000005 	b	818c <cos+0xcc>
    8174:	ed9d0b00 	vldr	d0, [sp]
    8178:	ed9d1b02 	vldr	d1, [sp, #8]
    817c:	e3a00001 	mov	r0, #1
    8180:	eb000038 	bl	8268 <__kernel_sin>
    8184:	ea000000 	b	818c <cos+0xcc>
    8188:	ed9f0b04 	vldr	d0, [pc, #16]	; 81a0 <cos+0xe0>
    818c:	e28dd014 	add	sp, sp, #20
    8190:	e49df004 	pop	{pc}		; (ldr pc, [sp], #4)
    8194:	e320f000 	nop	{0}
	...
    81a4:	3ff00000 	svccc	0x00f00000	; IMB
    81a8:	3fe921fb 	svccc	0x00e921fb
    81ac:	3e46a09d 	mcrcc	0, 2, sl, cr6, cr13, {4}
    81b0:	7fefffff 	svcvc	0x00efffff
    81b4:	e320f000 	nop	{0}

000081b8 <__kernel_cos>:
    81b8:	ee207b00 	vmul.f64	d7, d0, d0
    81bc:	ee276b07 	vmul.f64	d6, d7, d7
    81c0:	ed9f4b18 	vldr	d4, [pc, #96]	; 8228 <__kernel_cos+0x70>
    81c4:	ed9f5b19 	vldr	d5, [pc, #100]	; 8230 <__kernel_cos+0x78>
    81c8:	ee174b05 	vnmls.f64	d4, d7, d5
    81cc:	ed9f5b19 	vldr	d5, [pc, #100]	; 8238 <__kernel_cos+0x80>
    81d0:	ee045b07 	vmla.f64	d5, d4, d7
    81d4:	ee266b06 	vmul.f64	d6, d6, d6
    81d8:	ed9f4b18 	vldr	d4, [pc, #96]	; 8240 <__kernel_cos+0x88>
    81dc:	ed9f3b19 	vldr	d3, [pc, #100]	; 8248 <__kernel_cos+0x90>
    81e0:	ee074b03 	vmla.f64	d4, d7, d3
    81e4:	ed9f3b19 	vldr	d3, [pc, #100]	; 8250 <__kernel_cos+0x98>
    81e8:	ee143b07 	vnmls.f64	d3, d4, d7
    81ec:	ee263b03 	vmul.f64	d3, d6, d3
    81f0:	ee053b07 	vmla.f64	d3, d5, d7
    81f4:	ed9f5b17 	vldr	d5, [pc, #92]	; 8258 <__kernel_cos+0xa0>
    81f8:	ee275b05 	vmul.f64	d5, d7, d5
    81fc:	ed9f4b17 	vldr	d4, [pc, #92]	; 8260 <__kernel_cos+0xa8>
    8200:	ee346b45 	vsub.f64	d6, d4, d5
    8204:	ee344b46 	vsub.f64	d4, d4, d6
    8208:	ee345b45 	vsub.f64	d5, d4, d5
    820c:	ee201b01 	vmul.f64	d1, d0, d1
    8210:	eeb00b41 	vmov.f64	d0, d1
    8214:	ee170b03 	vnmls.f64	d0, d7, d3
    8218:	ee350b00 	vadd.f64	d0, d5, d0
    821c:	ee300b06 	vadd.f64	d0, d0, d6
    8220:	e12fff1e 	bx	lr
    8224:	e320f000 	nop	{0}
    8228:	16c15177 			; <UNDEFINED> instruction: 0x16c15177
    822c:	3f56c16c 	svccc	0x0056c16c
    8230:	19cb1590 	stmibne	fp, {r4, r7, r8, sl, ip}^
    8234:	3efa01a0 	cdpcc	1, 15, cr0, cr10, cr0, {5}
    8238:	5555554c 	ldrbpl	r5, [r5, #-1356]	; 0x54c
    823c:	3fa55555 	svccc	0x00a55555
    8240:	bdb4b1c4 	ldfltd	f3, [r4, #784]!	; 0x310
    8244:	3e21ee9e 	mcrcc	14, 1, lr, cr1, cr14, {4}
    8248:	be8838d4 	mcrlt	8, 4, r3, cr8, cr4, {6}
    824c:	bda8fae9 	stclt	10, cr15, [r8, #932]!	; 0x3a4
    8250:	809c52ad 	addshi	r5, ip, sp, lsr #5
    8254:	3e927e4f 	cdpcc	14, 9, cr7, cr2, cr15, {2}
    8258:	00000000 	andeq	r0, r0, r0
    825c:	3fe00000 	svccc	0x00e00000
    8260:	00000000 	andeq	r0, r0, r0
    8264:	3ff00000 	svccc	0x00f00000	; IMB

00008268 <__kernel_sin>:
    8268:	ee207b00 	vmul.f64	d7, d0, d0
    826c:	ee274b07 	vmul.f64	d4, d7, d7
    8270:	ed9f6b18 	vldr	d6, [pc, #96]	; 82d8 <__kernel_sin+0x70>
    8274:	ed9f5b19 	vldr	d5, [pc, #100]	; 82e0 <__kernel_sin+0x78>
    8278:	ee176b05 	vnmls.f64	d6, d7, d5
    827c:	ed9f5b19 	vldr	d5, [pc, #100]	; 82e8 <__kernel_sin+0x80>
    8280:	ee065b07 	vmla.f64	d5, d6, d7
    8284:	ee274b04 	vmul.f64	d4, d7, d4
    8288:	ed9f6b18 	vldr	d6, [pc, #96]	; 82f0 <__kernel_sin+0x88>
    828c:	ed9f3b19 	vldr	d3, [pc, #100]	; 82f8 <__kernel_sin+0x90>
    8290:	ee176b03 	vnmls.f64	d6, d7, d3
    8294:	ee045b06 	vmla.f64	d5, d4, d6
    8298:	ee276b00 	vmul.f64	d6, d7, d0
    829c:	e3500000 	cmp	r0, #0
    82a0:	1a000004 	bne	82b8 <__kernel_sin+0x50>
    82a4:	ed9f4b15 	vldr	d4, [pc, #84]	; 8300 <__kernel_sin+0x98>
    82a8:	eeb03b44 	vmov.f64	d3, d4
    82ac:	ee173b05 	vnmls.f64	d3, d7, d5
    82b0:	ee030b06 	vmla.f64	d0, d3, d6
    82b4:	e12fff1e 	bx	lr
    82b8:	ee265b05 	vmul.f64	d5, d6, d5
    82bc:	ed9f4b11 	vldr	d4, [pc, #68]	; 8308 <__kernel_sin+0xa0>
    82c0:	ee115b04 	vnmls.f64	d5, d1, d4
    82c4:	ee151b07 	vnmls.f64	d1, d5, d7
    82c8:	ed9f7b0c 	vldr	d7, [pc, #48]	; 8300 <__kernel_sin+0x98>
    82cc:	ee061b07 	vmla.f64	d1, d6, d7
    82d0:	ee300b41 	vsub.f64	d0, d0, d1
    82d4:	e12fff1e 	bx	lr
    82d8:	19c161d5 	stmibne	r1, {r0, r2, r4, r6, r7, r8, sp, lr}^
    82dc:	3f2a01a0 	svccc	0x002a01a0
    82e0:	57b1fe7d 			; <UNDEFINED> instruction: 0x57b1fe7d
    82e4:	3ec71de3 	cdpcc	13, 12, cr1, cr7, cr3, {7}
    82e8:	1110f8a6 	tstne	r0, r6, lsr #17
    82ec:	3f811111 	svccc	0x00811111
    82f0:	8a2b9ceb 	bhi	aef6a4 <__bss_end__+0xae50f4>
    82f4:	3e5ae5e6 	cdpcc	5, 5, cr14, cr10, cr6, {7}
    82f8:	5acfd57c 	bpl	ff3fd8f0 <__bss_end__+0xff3f3340>
    82fc:	3de5d93a 	stclcc	9, cr13, [r5, #232]!	; 0xe8
    8300:	55555549 	ldrbpl	r5, [r5, #-1353]	; 0x549
    8304:	3fc55555 	svccc	0x00c55555
    8308:	00000000 	andeq	r0, r0, r0
    830c:	3fe00000 	svccc	0x00e00000

00008310 <__ieee754_rem_pio2>:
    8310:	e92d4370 	push	{r4, r5, r6, r8, r9, lr}
    8314:	e24dd030 	sub	sp, sp, #48	; 0x30
    8318:	e1a06000 	mov	r6, r0
    831c:	ec554b10 	vmov	r4, r5, d0
    8320:	e3c53102 	bic	r3, r5, #-2147483648	; 0x80000000
    8324:	e59f23f4 	ldr	r2, [pc, #1012]	; 8720 <__ieee754_rem_pio2+0x410>
    8328:	e1530002 	cmp	r3, r2
    832c:	ca000033 	bgt	8400 <__ieee754_rem_pio2+0xf0>
    8330:	e3c514ff 	bic	r1, r5, #-16777216	; 0xff000000
    8334:	e3c1160f 	bic	r1, r1, #15728640	; 0xf00000
    8338:	e59f23e4 	ldr	r2, [pc, #996]	; 8724 <__ieee754_rem_pio2+0x414>
    833c:	e1510002 	cmp	r1, r2
    8340:	0a000069 	beq	84ec <__ieee754_rem_pio2+0x1dc>
    8344:	e59f23dc 	ldr	r2, [pc, #988]	; 8728 <__ieee754_rem_pio2+0x418>
    8348:	e1530002 	cmp	r3, r2
    834c:	ca000015 	bgt	83a8 <__ieee754_rem_pio2+0x98>
    8350:	e3550000 	cmp	r5, #0
    8354:	da000009 	ble	8380 <__ieee754_rem_pio2+0x70>
    8358:	ed9f6bd0 	vldr	d6, [pc, #832]	; 86a0 <__ieee754_rem_pio2+0x390>
    835c:	ee300b46 	vsub.f64	d0, d0, d6
    8360:	ed9f7bd0 	vldr	d7, [pc, #832]	; 86a8 <__ieee754_rem_pio2+0x398>
    8364:	ee306b47 	vsub.f64	d6, d0, d7
    8368:	ed806b00 	vstr	d6, [r0]
    836c:	ee300b46 	vsub.f64	d0, d0, d6
    8370:	ee307b47 	vsub.f64	d7, d0, d7
    8374:	ed807b02 	vstr	d7, [r0, #8]
    8378:	e3a00001 	mov	r0, #1
    837c:	ea0000c5 	b	8698 <__ieee754_rem_pio2+0x388>
    8380:	ed9f7bc6 	vldr	d7, [pc, #792]	; 86a0 <__ieee754_rem_pio2+0x390>
    8384:	ee300b07 	vadd.f64	d0, d0, d7
    8388:	ed9f7bc6 	vldr	d7, [pc, #792]	; 86a8 <__ieee754_rem_pio2+0x398>
    838c:	ee306b07 	vadd.f64	d6, d0, d7
    8390:	ed806b00 	vstr	d6, [r0]
    8394:	ee306b46 	vsub.f64	d6, d0, d6
    8398:	ee367b07 	vadd.f64	d7, d6, d7
    839c:	ed807b02 	vstr	d7, [r0, #8]
    83a0:	e3e00000 	mvn	r0, #0
    83a4:	ea0000bb 	b	8698 <__ieee754_rem_pio2+0x388>
    83a8:	e3550000 	cmp	r5, #0
    83ac:	da000009 	ble	83d8 <__ieee754_rem_pio2+0xc8>
    83b0:	ed9f6bbe 	vldr	d6, [pc, #760]	; 86b0 <__ieee754_rem_pio2+0x3a0>
    83b4:	ee300b46 	vsub.f64	d0, d0, d6
    83b8:	ed9f7bbe 	vldr	d7, [pc, #760]	; 86b8 <__ieee754_rem_pio2+0x3a8>
    83bc:	ee306b47 	vsub.f64	d6, d0, d7
    83c0:	ed806b00 	vstr	d6, [r0]
    83c4:	ee300b46 	vsub.f64	d0, d0, d6
    83c8:	ee307b47 	vsub.f64	d7, d0, d7
    83cc:	ed807b02 	vstr	d7, [r0, #8]
    83d0:	e3a00002 	mov	r0, #2
    83d4:	ea0000af 	b	8698 <__ieee754_rem_pio2+0x388>
    83d8:	ed9f7bb4 	vldr	d7, [pc, #720]	; 86b0 <__ieee754_rem_pio2+0x3a0>
    83dc:	ee300b07 	vadd.f64	d0, d0, d7
    83e0:	ed9f7bb4 	vldr	d7, [pc, #720]	; 86b8 <__ieee754_rem_pio2+0x3a8>
    83e4:	ee306b07 	vadd.f64	d6, d0, d7
    83e8:	ed806b00 	vstr	d6, [r0]
    83ec:	ee306b46 	vsub.f64	d6, d0, d6
    83f0:	ee367b07 	vadd.f64	d7, d6, d7
    83f4:	ed807b02 	vstr	d7, [r0, #8]
    83f8:	e3e00001 	mvn	r0, #1
    83fc:	ea0000a5 	b	8698 <__ieee754_rem_pio2+0x388>
    8400:	e59f2324 	ldr	r2, [pc, #804]	; 872c <__ieee754_rem_pio2+0x41c>
    8404:	e1530002 	cmp	r3, r2
    8408:	ca000034 	bgt	84e0 <__ieee754_rem_pio2+0x1d0>
    840c:	e59f231c 	ldr	r2, [pc, #796]	; 8730 <__ieee754_rem_pio2+0x420>
    8410:	e1530002 	cmp	r3, r2
    8414:	ca000018 	bgt	847c <__ieee754_rem_pio2+0x16c>
    8418:	e59f2314 	ldr	r2, [pc, #788]	; 8734 <__ieee754_rem_pio2+0x424>
    841c:	e1530002 	cmp	r3, r2
    8420:	0a000031 	beq	84ec <__ieee754_rem_pio2+0x1dc>
    8424:	e3550000 	cmp	r5, #0
    8428:	da000009 	ble	8454 <__ieee754_rem_pio2+0x144>
    842c:	ed9f6ba3 	vldr	d6, [pc, #652]	; 86c0 <__ieee754_rem_pio2+0x3b0>
    8430:	ee300b46 	vsub.f64	d0, d0, d6
    8434:	ed9f7ba3 	vldr	d7, [pc, #652]	; 86c8 <__ieee754_rem_pio2+0x3b8>
    8438:	ee306b47 	vsub.f64	d6, d0, d7
    843c:	ed806b00 	vstr	d6, [r0]
    8440:	ee300b46 	vsub.f64	d0, d0, d6
    8444:	ee307b47 	vsub.f64	d7, d0, d7
    8448:	ed807b02 	vstr	d7, [r0, #8]
    844c:	e3a00003 	mov	r0, #3
    8450:	ea000090 	b	8698 <__ieee754_rem_pio2+0x388>
    8454:	ed9f7b99 	vldr	d7, [pc, #612]	; 86c0 <__ieee754_rem_pio2+0x3b0>
    8458:	ee300b07 	vadd.f64	d0, d0, d7
    845c:	ed9f7b99 	vldr	d7, [pc, #612]	; 86c8 <__ieee754_rem_pio2+0x3b8>
    8460:	ee306b07 	vadd.f64	d6, d0, d7
    8464:	ed806b00 	vstr	d6, [r0]
    8468:	ee306b46 	vsub.f64	d6, d0, d6
    846c:	ee367b07 	vadd.f64	d7, d6, d7
    8470:	ed807b02 	vstr	d7, [r0, #8]
    8474:	e3e00002 	mvn	r0, #2
    8478:	ea000086 	b	8698 <__ieee754_rem_pio2+0x388>
    847c:	e59f22b4 	ldr	r2, [pc, #692]	; 8738 <__ieee754_rem_pio2+0x428>
    8480:	e1530002 	cmp	r3, r2
    8484:	0a000018 	beq	84ec <__ieee754_rem_pio2+0x1dc>
    8488:	e3550000 	cmp	r5, #0
    848c:	da000009 	ble	84b8 <__ieee754_rem_pio2+0x1a8>
    8490:	ed9f6b8e 	vldr	d6, [pc, #568]	; 86d0 <__ieee754_rem_pio2+0x3c0>
    8494:	ee300b46 	vsub.f64	d0, d0, d6
    8498:	ed9f7b8e 	vldr	d7, [pc, #568]	; 86d8 <__ieee754_rem_pio2+0x3c8>
    849c:	ee306b47 	vsub.f64	d6, d0, d7
    84a0:	ed806b00 	vstr	d6, [r0]
    84a4:	ee300b46 	vsub.f64	d0, d0, d6
    84a8:	ee307b47 	vsub.f64	d7, d0, d7
    84ac:	ed807b02 	vstr	d7, [r0, #8]
    84b0:	e3a00004 	mov	r0, #4
    84b4:	ea000077 	b	8698 <__ieee754_rem_pio2+0x388>
    84b8:	ed9f7b84 	vldr	d7, [pc, #528]	; 86d0 <__ieee754_rem_pio2+0x3c0>
    84bc:	ee300b07 	vadd.f64	d0, d0, d7
    84c0:	ed9f7b84 	vldr	d7, [pc, #528]	; 86d8 <__ieee754_rem_pio2+0x3c8>
    84c4:	ee306b07 	vadd.f64	d6, d0, d7
    84c8:	ed806b00 	vstr	d6, [r0]
    84cc:	ee306b46 	vsub.f64	d6, d0, d6
    84d0:	ee367b07 	vadd.f64	d7, d6, d7
    84d4:	ed807b02 	vstr	d7, [r0, #8]
    84d8:	e3e00003 	mvn	r0, #3
    84dc:	ea00006d 	b	8698 <__ieee754_rem_pio2+0x388>
    84e0:	e59f2254 	ldr	r2, [pc, #596]	; 873c <__ieee754_rem_pio2+0x42c>
    84e4:	e1530002 	cmp	r3, r2
    84e8:	ca000030 	bgt	85b0 <__ieee754_rem_pio2+0x2a0>
    84ec:	ed9f7b7b 	vldr	d7, [pc, #492]	; 86e0 <__ieee754_rem_pio2+0x3d0>
    84f0:	ed9f6b7c 	vldr	d6, [pc, #496]	; 86e8 <__ieee754_rem_pio2+0x3d8>
    84f4:	eeb05b47 	vmov.f64	d5, d7
    84f8:	ee005b06 	vmla.f64	d5, d0, d6
    84fc:	ee357b47 	vsub.f64	d7, d5, d7
    8500:	eefd5bc7 	vcvt.s32.f64	s11, d7
    8504:	ee150a90 	vmov	r0, s11
    8508:	ed9f6b64 	vldr	d6, [pc, #400]	; 86a0 <__ieee754_rem_pio2+0x390>
    850c:	ee070b46 	vmls.f64	d0, d7, d6
    8510:	ed9f6b64 	vldr	d6, [pc, #400]	; 86a8 <__ieee754_rem_pio2+0x398>
    8514:	ee276b06 	vmul.f64	d6, d7, d6
    8518:	e1a01a43 	asr	r1, r3, #20
    851c:	ee305b46 	vsub.f64	d5, d0, d6
    8520:	ed865b00 	vstr	d5, [r6]
    8524:	ec532b15 	vmov	r2, r3, d5
    8528:	e1a03083 	lsl	r3, r3, #1
    852c:	e0413aa3 	sub	r3, r1, r3, lsr #21
    8530:	e3530010 	cmp	r3, #16
    8534:	da000018 	ble	859c <__ieee754_rem_pio2+0x28c>
    8538:	ed9f6b6c 	vldr	d6, [pc, #432]	; 86f0 <__ieee754_rem_pio2+0x3e0>
    853c:	ee276b06 	vmul.f64	d6, d7, d6
    8540:	ee305b46 	vsub.f64	d5, d0, d6
    8544:	ee300b45 	vsub.f64	d0, d0, d5
    8548:	ee306b46 	vsub.f64	d6, d0, d6
    854c:	ed9f4b69 	vldr	d4, [pc, #420]	; 86f8 <__ieee754_rem_pio2+0x3e8>
    8550:	ee176b04 	vnmls.f64	d6, d7, d4
    8554:	ee354b46 	vsub.f64	d4, d5, d6
    8558:	ed864b00 	vstr	d4, [r6]
    855c:	ec532b14 	vmov	r2, r3, d4
    8560:	e1a03083 	lsl	r3, r3, #1
    8564:	e0411aa3 	sub	r1, r1, r3, lsr #21
    8568:	e3510031 	cmp	r1, #49	; 0x31
    856c:	da000009 	ble	8598 <__ieee754_rem_pio2+0x288>
    8570:	ed9f6b62 	vldr	d6, [pc, #392]	; 8700 <__ieee754_rem_pio2+0x3f0>
    8574:	ee276b06 	vmul.f64	d6, d7, d6
    8578:	ee350b46 	vsub.f64	d0, d5, d6
    857c:	ee355b40 	vsub.f64	d5, d5, d0
    8580:	ee356b46 	vsub.f64	d6, d5, d6
    8584:	ed9f5b5f 	vldr	d5, [pc, #380]	; 8708 <__ieee754_rem_pio2+0x3f8>
    8588:	ee176b05 	vnmls.f64	d6, d7, d5
    858c:	ee307b46 	vsub.f64	d7, d0, d6
    8590:	ed867b00 	vstr	d7, [r6]
    8594:	ea000000 	b	859c <__ieee754_rem_pio2+0x28c>
    8598:	eeb00b45 	vmov.f64	d0, d5
    859c:	ed967b00 	vldr	d7, [r6]
    85a0:	ee300b47 	vsub.f64	d0, d0, d7
    85a4:	ee306b46 	vsub.f64	d6, d0, d6
    85a8:	ed866b02 	vstr	d6, [r6, #8]
    85ac:	ea000039 	b	8698 <__ieee754_rem_pio2+0x388>
    85b0:	e59f2188 	ldr	r2, [pc, #392]	; 8740 <__ieee754_rem_pio2+0x430>
    85b4:	e1530002 	cmp	r3, r2
    85b8:	da000004 	ble	85d0 <__ieee754_rem_pio2+0x2c0>
    85bc:	ee300b40 	vsub.f64	d0, d0, d0
    85c0:	ed800b02 	vstr	d0, [r0, #8]
    85c4:	ed800b00 	vstr	d0, [r0]
    85c8:	e3a00000 	mov	r0, #0
    85cc:	ea000031 	b	8698 <__ieee754_rem_pio2+0x388>
    85d0:	e1a02a43 	asr	r2, r3, #20
    85d4:	e2422e41 	sub	r2, r2, #1040	; 0x410
    85d8:	e2422006 	sub	r2, r2, #6
    85dc:	e0431a02 	sub	r1, r3, r2, lsl #20
    85e0:	e1a00004 	mov	r0, r4
    85e4:	ec410b17 	vmov	d7, r0, r1
    85e8:	e3a03000 	mov	r3, #0
    85ec:	ed9f5b47 	vldr	d5, [pc, #284]	; 8710 <__ieee754_rem_pio2+0x400>
    85f0:	ea000007 	b	8614 <__ieee754_rem_pio2+0x304>
    85f4:	eebd6bc7 	vcvt.s32.f64	s12, d7
    85f8:	eeb86bc6 	vcvt.f64.s32	d6, s12
    85fc:	e28d0030 	add	r0, sp, #48	; 0x30
    8600:	e0801183 	add	r1, r0, r3, lsl #3
    8604:	ed016b06 	vstr	d6, [r1, #-24]	; 0xffffffe8
    8608:	ee377b46 	vsub.f64	d7, d7, d6
    860c:	ee277b05 	vmul.f64	d7, d7, d5
    8610:	e2833001 	add	r3, r3, #1
    8614:	e3530001 	cmp	r3, #1
    8618:	dafffff5 	ble	85f4 <__ieee754_rem_pio2+0x2e4>
    861c:	ed8d7b0a 	vstr	d7, [sp, #40]	; 0x28
    8620:	e3a03003 	mov	r3, #3
    8624:	ed9f6b3b 	vldr	d6, [pc, #236]	; 8718 <__ieee754_rem_pio2+0x408>
    8628:	ea000000 	b	8630 <__ieee754_rem_pio2+0x320>
    862c:	e1a03001 	mov	r3, r1
    8630:	e2431001 	sub	r1, r3, #1
    8634:	e28dc030 	add	ip, sp, #48	; 0x30
    8638:	e08c0181 	add	r0, ip, r1, lsl #3
    863c:	ed107b06 	vldr	d7, [r0, #-24]	; 0xffffffe8
    8640:	eeb47b46 	vcmp.f64	d7, d6
    8644:	eef1fa10 	vmrs	APSR_nzcv, fpscr
    8648:	0afffff7 	beq	862c <__ieee754_rem_pio2+0x31c>
    864c:	e3a01001 	mov	r1, #1
    8650:	e58d1000 	str	r1, [sp]
    8654:	e28d0018 	add	r0, sp, #24
    8658:	e28d1008 	add	r1, sp, #8
    865c:	eb000039 	bl	8748 <__kernel_rem_pio2>
    8660:	e3550000 	cmp	r5, #0
    8664:	aa000007 	bge	8688 <__ieee754_rem_pio2+0x378>
    8668:	ed9d7b02 	vldr	d7, [sp, #8]
    866c:	eeb17b47 	vneg.f64	d7, d7
    8670:	ed867b00 	vstr	d7, [r6]
    8674:	ed9d7b04 	vldr	d7, [sp, #16]
    8678:	eeb17b47 	vneg.f64	d7, d7
    867c:	ed867b02 	vstr	d7, [r6, #8]
    8680:	e2600000 	rsb	r0, r0, #0
    8684:	ea000003 	b	8698 <__ieee754_rem_pio2+0x388>
    8688:	e1cd20d8 	ldrd	r2, [sp, #8]
    868c:	e1c620f0 	strd	r2, [r6]
    8690:	e1cd21d0 	ldrd	r2, [sp, #16]
    8694:	e1c620f8 	strd	r2, [r6, #8]
    8698:	e28dd030 	add	sp, sp, #48	; 0x30
    869c:	e8bd8370 	pop	{r4, r5, r6, r8, r9, pc}
    86a0:	54400000 	strbpl	r0, [r0], #-0
    86a4:	3ff921fb 	svccc	0x00f921fb
    86a8:	1a626331 	bne	18a1374 <__bss_end__+0x1896dc4>
    86ac:	3dd0b461 	cfldrdcc	mvd11, [r0, #388]	; 0x184
    86b0:	54400000 	strbpl	r0, [r0], #-0
    86b4:	400921fb 	strdmi	r2, [r9], -fp
    86b8:	1a626331 	bne	18a1384 <__bss_end__+0x1896dd4>
    86bc:	3de0b461 	cfstrdcc	mvd11, [r0, #388]!	; 0x184
    86c0:	7f300000 	svcvc	0x00300000
    86c4:	4012d97c 	andsmi	sp, r2, ip, ror r9
    86c8:	a79394ca 	ldrge	r9, [r3, sl, asr #9]
    86cc:	3de90e91 	stclcc	14, cr0, [r9, #580]!	; 0x244
    86d0:	54400000 	strbpl	r0, [r0], #-0
    86d4:	401921fb 			; <UNDEFINED> instruction: 0x401921fb
    86d8:	1a626331 	bne	18a13a4 <__bss_end__+0x1896df4>
    86dc:	3df0b461 	cfldrdcc	mvd11, [r0, #388]!	; 0x184
    86e0:	00000000 	andeq	r0, r0, r0
    86e4:	43380000 	teqmi	r8, #0
    86e8:	6dc9c883 	stclvs	8, cr12, [r9, #524]	; 0x20c
    86ec:	3fe45f30 	svccc	0x00e45f30
    86f0:	1a600000 	bne	18086f8 <__bss_end__+0x17fe148>
    86f4:	3dd0b461 	cfldrdcc	mvd11, [r0, #388]	; 0x184
    86f8:	2e037073 	mcrcs	0, 0, r7, cr3, cr3, {3}
    86fc:	3ba3198a 	blcc	fe8ced2c <__bss_end__+0xfe8c477c>
    8700:	2e000000 	cdpcs	0, 0, cr0, cr0, cr0, {0}
    8704:	3ba3198a 	blcc	fe8ced34 <__bss_end__+0xfe8c4784>
    8708:	252049c1 	strcs	r4, [r0, #-2497]!	; 0x9c1
    870c:	397b839a 	ldmdbcc	fp!, {r1, r3, r4, r7, r8, r9, pc}^
    8710:	00000000 	andeq	r0, r0, r0
    8714:	41700000 	cmnmi	r0, r0
	...
    8720:	400f6a7a 	andmi	r6, pc, sl, ror sl	; <UNPREDICTABLE>
    8724:	000921fb 	strdeq	r2, [r9], -fp
    8728:	4002d97c 	andmi	sp, r2, ip, ror r9
    872c:	401c463b 	andsmi	r4, ip, fp, lsr r6
    8730:	4015fdbc 			; <UNDEFINED> instruction: 0x4015fdbc
    8734:	4012d97c 	andsmi	sp, r2, ip, ror r9
    8738:	401921fb 			; <UNDEFINED> instruction: 0x401921fb
    873c:	413921fa 			; <UNDEFINED> instruction: 0x413921fa
    8740:	7fefffff 	svcvc	0x00efffff
    8744:	e320f000 	nop	{0}

00008748 <__kernel_rem_pio2>:
    8748:	e92d4ff0 	push	{r4, r5, r6, r7, r8, r9, sl, fp, lr}
    874c:	ed2d8b10 	vpush	{d8-d15}
    8750:	e24ddf8f 	sub	sp, sp, #572	; 0x23c
    8754:	e1a05000 	mov	r5, r0
    8758:	e1a0b001 	mov	fp, r1
    875c:	e59f14b8 	ldr	r1, [pc, #1208]	; 8c1c <__kernel_rem_pio2+0x4d4>
    8760:	e59d42a0 	ldr	r4, [sp, #672]	; 0x2a0
    8764:	e7916104 	ldr	r6, [r1, r4, lsl #2]
    8768:	e2434001 	sub	r4, r3, #1
    876c:	e2423003 	sub	r3, r2, #3
    8770:	e59f84a0 	ldr	r8, [pc, #1184]	; 8c18 <__kernel_rem_pio2+0x4d0>
    8774:	e0c87398 	smull	r7, r8, r8, r3
    8778:	e1a03fc3 	asr	r3, r3, #31
    877c:	e0738148 	rsbs	r8, r3, r8, asr #2
    8780:	43a08000 	movmi	r8, #0
    8784:	e1e03008 	mvn	r3, r8
    8788:	e0833083 	add	r3, r3, r3, lsl #1
    878c:	e1a03183 	lsl	r3, r3, #3
    8790:	e0839002 	add	r9, r3, r2
    8794:	e0640008 	rsb	r0, r4, r8
    8798:	e084e006 	add	lr, r4, r6
    879c:	e3a01000 	mov	r1, #0
    87a0:	e3a02000 	mov	r2, #0
    87a4:	e3a03000 	mov	r3, #0
    87a8:	e59f746c 	ldr	r7, [pc, #1132]	; 8c1c <__kernel_rem_pio2+0x4d4>
    87ac:	ea00000a 	b	87dc <__kernel_rem_pio2+0x94>
    87b0:	e3500000 	cmp	r0, #0
    87b4:	a087c100 	addge	ip, r7, r0, lsl #2
    87b8:	ad9c7a04 	vldrge	s14, [ip, #16]
    87bc:	aeb87bc7 	vcvtge.f64.s32	d7, s14
    87c0:	aa000000 	bge	87c8 <__kernel_rem_pio2+0x80>
    87c4:	ec432b17 	vmov	d7, r2, r3
    87c8:	e28daf8e 	add	sl, sp, #568	; 0x238
    87cc:	e08ac181 	add	ip, sl, r1, lsl #3
    87d0:	ed0c7b3c 	vstr	d7, [ip, #-240]	; 0xffffff10
    87d4:	e2811001 	add	r1, r1, #1
    87d8:	e2800001 	add	r0, r0, #1
    87dc:	e151000e 	cmp	r1, lr
    87e0:	dafffff2 	ble	87b0 <__kernel_rem_pio2+0x68>
    87e4:	e3a0e000 	mov	lr, #0
    87e8:	e3a02000 	mov	r2, #0
    87ec:	e3a03000 	mov	r3, #0
    87f0:	e1a0700e 	mov	r7, lr
    87f4:	ea000011 	b	8840 <__kernel_rem_pio2+0xf8>
    87f8:	e0850181 	add	r0, r5, r1, lsl #3
    87fc:	ed905b00 	vldr	d5, [r0]
    8800:	e061000c 	rsb	r0, r1, ip
    8804:	e28daf8e 	add	sl, sp, #568	; 0x238
    8808:	e08a0180 	add	r0, sl, r0, lsl #3
    880c:	ed106b3c 	vldr	d6, [r0, #-240]	; 0xffffff10
    8810:	ee057b06 	vmla.f64	d7, d5, d6
    8814:	e2811001 	add	r1, r1, #1
    8818:	ea000002 	b	8828 <__kernel_rem_pio2+0xe0>
    881c:	ec432b17 	vmov	d7, r2, r3
    8820:	e1a01007 	mov	r1, r7
    8824:	e084c00e 	add	ip, r4, lr
    8828:	e1510004 	cmp	r1, r4
    882c:	dafffff1 	ble	87f8 <__kernel_rem_pio2+0xb0>
    8830:	e28dcf8e 	add	ip, sp, #568	; 0x238
    8834:	e08c118e 	add	r1, ip, lr, lsl #3
    8838:	ed017b8c 	vstr	d7, [r1, #-560]	; 0xfffffdd0
    883c:	e28ee001 	add	lr, lr, #1
    8840:	e15e0006 	cmp	lr, r6
    8844:	dafffff4 	ble	881c <__kernel_rem_pio2+0xd4>
    8848:	e1a07006 	mov	r7, r6
    884c:	ed9f9be3 	vldr	d9, [pc, #908]	; 8be0 <__kernel_rem_pio2+0x498>
    8850:	ed9f8be4 	vldr	d8, [pc, #912]	; 8be8 <__kernel_rem_pio2+0x4a0>
    8854:	ed9fcbe5 	vldr	d12, [pc, #916]	; 8bf0 <__kernel_rem_pio2+0x4a8>
    8858:	ed9fbbe6 	vldr	d11, [pc, #920]	; 8bf8 <__kernel_rem_pio2+0x4b0>
    885c:	ed9febe7 	vldr	d14, [pc, #924]	; 8c00 <__kernel_rem_pio2+0x4b8>
    8860:	ed9fdbe8 	vldr	d13, [pc, #928]	; 8c08 <__kernel_rem_pio2+0x4c0>
    8864:	e28def8e 	add	lr, sp, #568	; 0x238
    8868:	e08e3187 	add	r3, lr, r7, lsl #3
    886c:	ed130b8c 	vldr	d0, [r3, #-560]	; 0xfffffdd0
    8870:	e1a03007 	mov	r3, r7
    8874:	e3a02000 	mov	r2, #0
    8878:	ea00000c 	b	88b0 <__kernel_rem_pio2+0x168>
    887c:	ee207b09 	vmul.f64	d7, d0, d9
    8880:	eebd7bc7 	vcvt.s32.f64	s14, d7
    8884:	eeb87bc7 	vcvt.f64.s32	d7, s14
    8888:	ee070b48 	vmls.f64	d0, d7, d8
    888c:	eebd0bc0 	vcvt.s32.f64	s0, d0
    8890:	e28d0f8e 	add	r0, sp, #568	; 0x238
    8894:	e0801102 	add	r1, r0, r2, lsl #2
    8898:	ed010a14 	vstr	s0, [r1, #-80]	; 0xffffffb0
    889c:	e2433001 	sub	r3, r3, #1
    88a0:	e0801183 	add	r1, r0, r3, lsl #3
    88a4:	ed110b8c 	vldr	d0, [r1, #-560]	; 0xfffffdd0
    88a8:	ee300b07 	vadd.f64	d0, d0, d7
    88ac:	e2822001 	add	r2, r2, #1
    88b0:	e3530000 	cmp	r3, #0
    88b4:	cafffff0 	bgt	887c <__kernel_rem_pio2+0x134>
    88b8:	e1a00009 	mov	r0, r9
    88bc:	eb000173 	bl	8e90 <scalbn>
    88c0:	eeb0ab40 	vmov.f64	d10, d0
    88c4:	ee200b0c 	vmul.f64	d0, d0, d12
    88c8:	eb0001c6 	bl	8fe8 <floor>
    88cc:	ee00ab4b 	vmls.f64	d10, d0, d11
    88d0:	eebdfbca 	vcvt.s32.f64	s30, d10
    88d4:	eeb87bcf 	vcvt.f64.s32	d7, s30
    88d8:	ee3aab47 	vsub.f64	d10, d10, d7
    88dc:	e3590000 	cmp	r9, #0
    88e0:	da00000d 	ble	891c <__kernel_rem_pio2+0x1d4>
    88e4:	e2472001 	sub	r2, r7, #1
    88e8:	e28d1f8e 	add	r1, sp, #568	; 0x238
    88ec:	e0812102 	add	r2, r1, r2, lsl #2
    88f0:	e5120050 	ldr	r0, [r2, #-80]	; 0x50
    88f4:	e2691018 	rsb	r1, r9, #24
    88f8:	e1a03150 	asr	r3, r0, r1
    88fc:	ee1faa10 	vmov	sl, s30
    8900:	e08aa003 	add	sl, sl, r3
    8904:	ee0faa10 	vmov	s30, sl
    8908:	e0403113 	sub	r3, r0, r3, lsl r1
    890c:	e5023050 	str	r3, [r2, #-80]	; 0x50
    8910:	e269a017 	rsb	sl, r9, #23
    8914:	e1a0aa53 	asr	sl, r3, sl
    8918:	ea00000a 	b	8948 <__kernel_rem_pio2+0x200>
    891c:	e3590000 	cmp	r9, #0
    8920:	1a000004 	bne	8938 <__kernel_rem_pio2+0x1f0>
    8924:	e28dcf8e 	add	ip, sp, #568	; 0x238
    8928:	e08c3107 	add	r3, ip, r7, lsl #2
    892c:	e513a054 	ldr	sl, [r3, #-84]	; 0x54
    8930:	e1a0abca 	asr	sl, sl, #23
    8934:	ea000003 	b	8948 <__kernel_rem_pio2+0x200>
    8938:	eeb4abce 	vcmpe.f64	d10, d14
    893c:	eef1fa10 	vmrs	APSR_nzcv, fpscr
    8940:	b3a0a000 	movlt	sl, #0
    8944:	a3a0a002 	movge	sl, #2
    8948:	e35a0000 	cmp	sl, #0
    894c:	da00003a 	ble	8a3c <__kernel_rem_pio2+0x2f4>
    8950:	ee1fea10 	vmov	lr, s30
    8954:	e28ee001 	add	lr, lr, #1
    8958:	ee0fea10 	vmov	s30, lr
    895c:	e3a03000 	mov	r3, #0
    8960:	e1a01003 	mov	r1, r3
    8964:	e3e004ff 	mvn	r0, #-16777216	; 0xff000000
    8968:	e3a0c001 	mov	ip, #1
    896c:	e58d4004 	str	r4, [sp, #4]
    8970:	ea00000f 	b	89b4 <__kernel_rem_pio2+0x26c>
    8974:	e28d4f8e 	add	r4, sp, #568	; 0x238
    8978:	e0842103 	add	r2, r4, r3, lsl #2
    897c:	e5122050 	ldr	r2, [r2, #-80]	; 0x50
    8980:	e3510000 	cmp	r1, #0
    8984:	1a000005 	bne	89a0 <__kernel_rem_pio2+0x258>
    8988:	e3520000 	cmp	r2, #0
    898c:	12622401 	rsbne	r2, r2, #16777216	; 0x1000000
    8990:	10841103 	addne	r1, r4, r3, lsl #2
    8994:	15012050 	strne	r2, [r1, #-80]	; 0x50
    8998:	11a0100c 	movne	r1, ip
    899c:	ea000003 	b	89b0 <__kernel_rem_pio2+0x268>
    89a0:	e0622000 	rsb	r2, r2, r0
    89a4:	e28d4f8e 	add	r4, sp, #568	; 0x238
    89a8:	e084e103 	add	lr, r4, r3, lsl #2
    89ac:	e50e2050 	str	r2, [lr, #-80]	; 0x50
    89b0:	e2833001 	add	r3, r3, #1
    89b4:	e1530007 	cmp	r3, r7
    89b8:	baffffed 	blt	8974 <__kernel_rem_pio2+0x22c>
    89bc:	e59d4004 	ldr	r4, [sp, #4]
    89c0:	e3590000 	cmp	r9, #0
    89c4:	da000013 	ble	8a18 <__kernel_rem_pio2+0x2d0>
    89c8:	e3590001 	cmp	r9, #1
    89cc:	0a000002 	beq	89dc <__kernel_rem_pio2+0x294>
    89d0:	e3590002 	cmp	r9, #2
    89d4:	0a000008 	beq	89fc <__kernel_rem_pio2+0x2b4>
    89d8:	ea00000e 	b	8a18 <__kernel_rem_pio2+0x2d0>
    89dc:	e2473001 	sub	r3, r7, #1
    89e0:	e28dcf8e 	add	ip, sp, #568	; 0x238
    89e4:	e08c3103 	add	r3, ip, r3, lsl #2
    89e8:	e5132050 	ldr	r2, [r3, #-80]	; 0x50
    89ec:	e3c224ff 	bic	r2, r2, #-16777216	; 0xff000000
    89f0:	e3c22502 	bic	r2, r2, #8388608	; 0x800000
    89f4:	e5032050 	str	r2, [r3, #-80]	; 0x50
    89f8:	ea000006 	b	8a18 <__kernel_rem_pio2+0x2d0>
    89fc:	e2473001 	sub	r3, r7, #1
    8a00:	e28def8e 	add	lr, sp, #568	; 0x238
    8a04:	e08e3103 	add	r3, lr, r3, lsl #2
    8a08:	e5132050 	ldr	r2, [r3, #-80]	; 0x50
    8a0c:	e3c224ff 	bic	r2, r2, #-16777216	; 0xff000000
    8a10:	e3c22503 	bic	r2, r2, #12582912	; 0xc00000
    8a14:	e5032050 	str	r2, [r3, #-80]	; 0x50
    8a18:	e35a0002 	cmp	sl, #2
    8a1c:	1a000006 	bne	8a3c <__kernel_rem_pio2+0x2f4>
    8a20:	ee3dab4a 	vsub.f64	d10, d13, d10
    8a24:	e3510000 	cmp	r1, #0
    8a28:	0a000003 	beq	8a3c <__kernel_rem_pio2+0x2f4>
    8a2c:	eeb00b4d 	vmov.f64	d0, d13
    8a30:	e1a00009 	mov	r0, r9
    8a34:	eb000115 	bl	8e90 <scalbn>
    8a38:	ee3aab40 	vsub.f64	d10, d10, d0
    8a3c:	eeb5ab40 	vcmp.f64	d10, #0.0
    8a40:	eef1fa10 	vmrs	APSR_nzcv, fpscr
    8a44:	1a000037 	bne	8b28 <__kernel_rem_pio2+0x3e0>
    8a48:	e2473001 	sub	r3, r7, #1
    8a4c:	e3a0c000 	mov	ip, #0
    8a50:	ea000004 	b	8a68 <__kernel_rem_pio2+0x320>
    8a54:	e28d0f8e 	add	r0, sp, #568	; 0x238
    8a58:	e0802103 	add	r2, r0, r3, lsl #2
    8a5c:	e5122050 	ldr	r2, [r2, #-80]	; 0x50
    8a60:	e18cc002 	orr	ip, ip, r2
    8a64:	e2433001 	sub	r3, r3, #1
    8a68:	e1530006 	cmp	r3, r6
    8a6c:	aafffff8 	bge	8a54 <__kernel_rem_pio2+0x30c>
    8a70:	e35c0000 	cmp	ip, #0
    8a74:	0a000002 	beq	8a84 <__kernel_rem_pio2+0x33c>
    8a78:	ea00002a 	b	8b28 <__kernel_rem_pio2+0x3e0>
    8a7c:	e28ee001 	add	lr, lr, #1
    8a80:	ea000000 	b	8a88 <__kernel_rem_pio2+0x340>
    8a84:	e3a0e001 	mov	lr, #1
    8a88:	e06e3006 	rsb	r3, lr, r6
    8a8c:	e28d1f8e 	add	r1, sp, #568	; 0x238
    8a90:	e0813103 	add	r3, r1, r3, lsl #2
    8a94:	e5133050 	ldr	r3, [r3, #-80]	; 0x50
    8a98:	e3530000 	cmp	r3, #0
    8a9c:	0afffff6 	beq	8a7c <__kernel_rem_pio2+0x334>
    8aa0:	e2870001 	add	r0, r7, #1
    8aa4:	e087e00e 	add	lr, r7, lr
    8aa8:	e59fa16c 	ldr	sl, [pc, #364]	; 8c1c <__kernel_rem_pio2+0x4d4>
    8aac:	ed9f4b57 	vldr	d4, [pc, #348]	; 8c10 <__kernel_rem_pio2+0x4c8>
    8ab0:	ea000018 	b	8b18 <__kernel_rem_pio2+0x3d0>
    8ab4:	e0841000 	add	r1, r4, r0
    8ab8:	e0883000 	add	r3, r8, r0
    8abc:	e08a3103 	add	r3, sl, r3, lsl #2
    8ac0:	ed937a04 	vldr	s14, [r3, #16]
    8ac4:	eeb87bc7 	vcvt.f64.s32	d7, s14
    8ac8:	e28d2f8e 	add	r2, sp, #568	; 0x238
    8acc:	e0823181 	add	r3, r2, r1, lsl #3
    8ad0:	ed037b3c 	vstr	d7, [r3, #-240]	; 0xffffff10
    8ad4:	e1a0300c 	mov	r3, ip
    8ad8:	eeb07b44 	vmov.f64	d7, d4
    8adc:	ea000007 	b	8b00 <__kernel_rem_pio2+0x3b8>
    8ae0:	e0852183 	add	r2, r5, r3, lsl #3
    8ae4:	ed925b00 	vldr	d5, [r2]
    8ae8:	e0632001 	rsb	r2, r3, r1
    8aec:	e28d7f8e 	add	r7, sp, #568	; 0x238
    8af0:	e0872182 	add	r2, r7, r2, lsl #3
    8af4:	ed126b3c 	vldr	d6, [r2, #-240]	; 0xffffff10
    8af8:	ee057b06 	vmla.f64	d7, d5, d6
    8afc:	e2833001 	add	r3, r3, #1
    8b00:	e1530004 	cmp	r3, r4
    8b04:	dafffff5 	ble	8ae0 <__kernel_rem_pio2+0x398>
    8b08:	e28d1f8e 	add	r1, sp, #568	; 0x238
    8b0c:	e0813180 	add	r3, r1, r0, lsl #3
    8b10:	ed037b8c 	vstr	d7, [r3, #-560]	; 0xfffffdd0
    8b14:	e2800001 	add	r0, r0, #1
    8b18:	e1a0700e 	mov	r7, lr
    8b1c:	e15e0000 	cmp	lr, r0
    8b20:	aaffffe3 	bge	8ab4 <__kernel_rem_pio2+0x36c>
    8b24:	eaffff4e 	b	8864 <__kernel_rem_pio2+0x11c>
    8b28:	eeb5ab40 	vcmp.f64	d10, #0.0
    8b2c:	eef1fa10 	vmrs	APSR_nzcv, fpscr
    8b30:	1a00000a 	bne	8b60 <__kernel_rem_pio2+0x418>
    8b34:	e2477001 	sub	r7, r7, #1
    8b38:	e2499018 	sub	r9, r9, #24
    8b3c:	ea000001 	b	8b48 <__kernel_rem_pio2+0x400>
    8b40:	e2477001 	sub	r7, r7, #1
    8b44:	e2499018 	sub	r9, r9, #24
    8b48:	e28d2f8e 	add	r2, sp, #568	; 0x238
    8b4c:	e0823107 	add	r3, r2, r7, lsl #2
    8b50:	e5133050 	ldr	r3, [r3, #-80]	; 0x50
    8b54:	e3530000 	cmp	r3, #0
    8b58:	0afffff8 	beq	8b40 <__kernel_rem_pio2+0x3f8>
    8b5c:	ea000019 	b	8bc8 <__kernel_rem_pio2+0x480>
    8b60:	eeb00b4a 	vmov.f64	d0, d10
    8b64:	e2690000 	rsb	r0, r9, #0
    8b68:	eb0000c8 	bl	8e90 <scalbn>
    8b6c:	ed9f7b1d 	vldr	d7, [pc, #116]	; 8be8 <__kernel_rem_pio2+0x4a0>
    8b70:	eeb40bc7 	vcmpe.f64	d0, d7
    8b74:	eef1fa10 	vmrs	APSR_nzcv, fpscr
    8b78:	ba00000e 	blt	8bb8 <__kernel_rem_pio2+0x470>
    8b7c:	ed9f7b17 	vldr	d7, [pc, #92]	; 8be0 <__kernel_rem_pio2+0x498>
    8b80:	ee207b07 	vmul.f64	d7, d0, d7
    8b84:	eefd5bc7 	vcvt.s32.f64	s11, d7
    8b88:	eeb86be5 	vcvt.f64.s32	d6, s11
    8b8c:	ed9f7b15 	vldr	d7, [pc, #84]	; 8be8 <__kernel_rem_pio2+0x4a0>
    8b90:	ee060b47 	vmls.f64	d0, d6, d7
    8b94:	eebd0bc0 	vcvt.s32.f64	s0, d0
    8b98:	e28d4f8e 	add	r4, sp, #568	; 0x238
    8b9c:	e0843107 	add	r3, r4, r7, lsl #2
    8ba0:	ed030a14 	vstr	s0, [r3, #-80]	; 0xffffffb0
    8ba4:	e2877001 	add	r7, r7, #1
    8ba8:	e2899018 	add	r9, r9, #24
    8bac:	e0843107 	add	r3, r4, r7, lsl #2
    8bb0:	ed435a14 	vstr	s11, [r3, #-80]	; 0xffffffb0
    8bb4:	ea000003 	b	8bc8 <__kernel_rem_pio2+0x480>
    8bb8:	eebd0bc0 	vcvt.s32.f64	s0, d0
    8bbc:	e28d5f8e 	add	r5, sp, #568	; 0x238
    8bc0:	e0853107 	add	r3, r5, r7, lsl #2
    8bc4:	ed030a14 	vstr	s0, [r3, #-80]	; 0xffffffb0
    8bc8:	ed9f0b0e 	vldr	d0, [pc, #56]	; 8c08 <__kernel_rem_pio2+0x4c0>
    8bcc:	e1a00009 	mov	r0, r9
    8bd0:	eb0000ae 	bl	8e90 <scalbn>
    8bd4:	e1a03007 	mov	r3, r7
    8bd8:	ed9f6b00 	vldr	d6, [pc]	; 8be0 <__kernel_rem_pio2+0x498>
    8bdc:	ea000018 	b	8c44 <__kernel_rem_pio2+0x4fc>
    8be0:	00000000 	andeq	r0, r0, r0
    8be4:	3e700000 	cdpcc	0, 7, cr0, cr0, cr0, {0}
    8be8:	00000000 	andeq	r0, r0, r0
    8bec:	41700000 	cmnmi	r0, r0
    8bf0:	00000000 	andeq	r0, r0, r0
    8bf4:	3fc00000 	svccc	0x00c00000
    8bf8:	00000000 	andeq	r0, r0, r0
    8bfc:	40200000 	eormi	r0, r0, r0
    8c00:	00000000 	andeq	r0, r0, r0
    8c04:	3fe00000 	svccc	0x00e00000
    8c08:	00000000 	andeq	r0, r0, r0
    8c0c:	3ff00000 	svccc	0x00f00000	; IMB
	...
    8c18:	2aaaaaab 	bcs	feab36cc <__bss_end__+0xfeaa911c>
    8c1c:	00009f30 	andeq	r9, r0, r0, lsr pc
    8c20:	e28dcf8e 	add	ip, sp, #568	; 0x238
    8c24:	e08c2103 	add	r2, ip, r3, lsl #2
    8c28:	ed127a14 	vldr	s14, [r2, #-80]	; 0xffffffb0
    8c2c:	eeb87bc7 	vcvt.f64.s32	d7, s14
    8c30:	ee277b00 	vmul.f64	d7, d7, d0
    8c34:	e08c2183 	add	r2, ip, r3, lsl #3
    8c38:	ed027b8c 	vstr	d7, [r2, #-560]	; 0xfffffdd0
    8c3c:	ee200b06 	vmul.f64	d0, d0, d6
    8c40:	e2433001 	sub	r3, r3, #1
    8c44:	e3530000 	cmp	r3, #0
    8c48:	aafffff4 	bge	8c20 <__kernel_rem_pio2+0x4d8>
    8c4c:	e1a01007 	mov	r1, r7
    8c50:	e3a08000 	mov	r8, #0
    8c54:	e3a09000 	mov	r9, #0
    8c58:	e3a04000 	mov	r4, #0
    8c5c:	e51fc048 	ldr	ip, [pc, #-72]	; 8c1c <__kernel_rem_pio2+0x4d4>
    8c60:	ea000014 	b	8cb8 <__kernel_rem_pio2+0x570>
    8c64:	e08c2183 	add	r2, ip, r3, lsl #3
    8c68:	ed925b46 	vldr	d5, [r2, #280]	; 0x118
    8c6c:	e0812003 	add	r2, r1, r3
    8c70:	e28d5f8e 	add	r5, sp, #568	; 0x238
    8c74:	e0852182 	add	r2, r5, r2, lsl #3
    8c78:	ed126b8c 	vldr	d6, [r2, #-560]	; 0xfffffdd0
    8c7c:	ee057b06 	vmla.f64	d7, d5, d6
    8c80:	e2833001 	add	r3, r3, #1
    8c84:	ea000002 	b	8c94 <__kernel_rem_pio2+0x54c>
    8c88:	ec498b17 	vmov	d7, r8, r9
    8c8c:	e1a03004 	mov	r3, r4
    8c90:	e0610007 	rsb	r0, r1, r7
    8c94:	e1530006 	cmp	r3, r6
    8c98:	ca000001 	bgt	8ca4 <__kernel_rem_pio2+0x55c>
    8c9c:	e1500003 	cmp	r0, r3
    8ca0:	aaffffef 	bge	8c64 <__kernel_rem_pio2+0x51c>
    8ca4:	e0613007 	rsb	r3, r1, r7
    8ca8:	e28d0f8e 	add	r0, sp, #568	; 0x238
    8cac:	e0803183 	add	r3, r0, r3, lsl #3
    8cb0:	ed037b64 	vstr	d7, [r3, #-400]	; 0xfffffe70
    8cb4:	e2411001 	sub	r1, r1, #1
    8cb8:	e3510000 	cmp	r1, #0
    8cbc:	aafffff1 	bge	8c88 <__kernel_rem_pio2+0x540>
    8cc0:	e59d42a0 	ldr	r4, [sp, #672]	; 0x2a0
    8cc4:	e3540003 	cmp	r4, #3
    8cc8:	979ff104 	ldrls	pc, [pc, r4, lsl #2]
    8ccc:	ea000067 	b	8e70 <__kernel_rem_pio2+0x728>
    8cd0:	00008cf8 	strdeq	r8, [r0], -r8	; <UNPREDICTABLE>
    8cd4:	00008d2c 	andeq	r8, r0, ip, lsr #26
    8cd8:	00008d2c 	andeq	r8, r0, ip, lsr #26
    8cdc:	00008dc0 	andeq	r8, r0, r0, asr #27
    8ce0:	e28d5f8e 	add	r5, sp, #568	; 0x238
    8ce4:	e0853187 	add	r3, r5, r7, lsl #3
    8ce8:	ed136b64 	vldr	d6, [r3, #-400]	; 0xfffffe70
    8cec:	ee377b06 	vadd.f64	d7, d7, d6
    8cf0:	e2477001 	sub	r7, r7, #1
    8cf4:	ea000000 	b	8cfc <__kernel_rem_pio2+0x5b4>
    8cf8:	ed9f7b62 	vldr	d7, [pc, #392]	; 8e88 <__kernel_rem_pio2+0x740>
    8cfc:	e3570000 	cmp	r7, #0
    8d00:	aafffff6 	bge	8ce0 <__kernel_rem_pio2+0x598>
    8d04:	e35a0000 	cmp	sl, #0
    8d08:	1eb17b47 	vnegne.f64	d7, d7
    8d0c:	ed8b7b00 	vstr	d7, [fp]
    8d10:	ea000056 	b	8e70 <__kernel_rem_pio2+0x728>
    8d14:	e28dcf8e 	add	ip, sp, #568	; 0x238
    8d18:	e08c2183 	add	r2, ip, r3, lsl #3
    8d1c:	ed126b64 	vldr	d6, [r2, #-400]	; 0xfffffe70
    8d20:	ee377b06 	vadd.f64	d7, d7, d6
    8d24:	e2433001 	sub	r3, r3, #1
    8d28:	ea000001 	b	8d34 <__kernel_rem_pio2+0x5ec>
    8d2c:	e1a03007 	mov	r3, r7
    8d30:	ed9f7b54 	vldr	d7, [pc, #336]	; 8e88 <__kernel_rem_pio2+0x740>
    8d34:	e3530000 	cmp	r3, #0
    8d38:	aafffff5 	bge	8d14 <__kernel_rem_pio2+0x5cc>
    8d3c:	e35a0000 	cmp	sl, #0
    8d40:	1eb16b47 	vnegne.f64	d6, d7
    8d44:	1a000000 	bne	8d4c <__kernel_rem_pio2+0x604>
    8d48:	eeb06b47 	vmov.f64	d6, d7
    8d4c:	ed8b6b00 	vstr	d6, [fp]
    8d50:	ed9d6b2a 	vldr	d6, [sp, #168]	; 0xa8
    8d54:	ee367b47 	vsub.f64	d7, d6, d7
    8d58:	e3a03001 	mov	r3, #1
    8d5c:	ea000004 	b	8d74 <__kernel_rem_pio2+0x62c>
    8d60:	e28d0f8e 	add	r0, sp, #568	; 0x238
    8d64:	e0802183 	add	r2, r0, r3, lsl #3
    8d68:	ed126b64 	vldr	d6, [r2, #-400]	; 0xfffffe70
    8d6c:	ee377b06 	vadd.f64	d7, d7, d6
    8d70:	e2833001 	add	r3, r3, #1
    8d74:	e1530007 	cmp	r3, r7
    8d78:	dafffff8 	ble	8d60 <__kernel_rem_pio2+0x618>
    8d7c:	e35a0000 	cmp	sl, #0
    8d80:	1eb17b47 	vnegne.f64	d7, d7
    8d84:	ed8b7b02 	vstr	d7, [fp, #8]
    8d88:	ea000038 	b	8e70 <__kernel_rem_pio2+0x728>
    8d8c:	e2432001 	sub	r2, r3, #1
    8d90:	e28d4f8e 	add	r4, sp, #568	; 0x238
    8d94:	e0841182 	add	r1, r4, r2, lsl #3
    8d98:	ed115b64 	vldr	d5, [r1, #-400]	; 0xfffffe70
    8d9c:	e0843183 	add	r3, r4, r3, lsl #3
    8da0:	ed136b64 	vldr	d6, [r3, #-400]	; 0xfffffe70
    8da4:	ee357b06 	vadd.f64	d7, d5, d6
    8da8:	ee355b47 	vsub.f64	d5, d5, d7
    8dac:	ee366b05 	vadd.f64	d6, d6, d5
    8db0:	ed036b64 	vstr	d6, [r3, #-400]	; 0xfffffe70
    8db4:	ed017b64 	vstr	d7, [r1, #-400]	; 0xfffffe70
    8db8:	e1a03002 	mov	r3, r2
    8dbc:	ea000000 	b	8dc4 <__kernel_rem_pio2+0x67c>
    8dc0:	e1a03007 	mov	r3, r7
    8dc4:	e3530000 	cmp	r3, #0
    8dc8:	caffffef 	bgt	8d8c <__kernel_rem_pio2+0x644>
    8dcc:	e1a03007 	mov	r3, r7
    8dd0:	ea00000b 	b	8e04 <__kernel_rem_pio2+0x6bc>
    8dd4:	e2432001 	sub	r2, r3, #1
    8dd8:	e28d5f8e 	add	r5, sp, #568	; 0x238
    8ddc:	e0851182 	add	r1, r5, r2, lsl #3
    8de0:	ed115b64 	vldr	d5, [r1, #-400]	; 0xfffffe70
    8de4:	e0853183 	add	r3, r5, r3, lsl #3
    8de8:	ed136b64 	vldr	d6, [r3, #-400]	; 0xfffffe70
    8dec:	ee357b06 	vadd.f64	d7, d5, d6
    8df0:	ee355b47 	vsub.f64	d5, d5, d7
    8df4:	ee366b05 	vadd.f64	d6, d6, d5
    8df8:	ed036b64 	vstr	d6, [r3, #-400]	; 0xfffffe70
    8dfc:	ed017b64 	vstr	d7, [r1, #-400]	; 0xfffffe70
    8e00:	e1a03002 	mov	r3, r2
    8e04:	e3530001 	cmp	r3, #1
    8e08:	cafffff1 	bgt	8dd4 <__kernel_rem_pio2+0x68c>
    8e0c:	ed9f7b1d 	vldr	d7, [pc, #116]	; 8e88 <__kernel_rem_pio2+0x740>
    8e10:	ea000004 	b	8e28 <__kernel_rem_pio2+0x6e0>
    8e14:	e28dcf8e 	add	ip, sp, #568	; 0x238
    8e18:	e08c3187 	add	r3, ip, r7, lsl #3
    8e1c:	ed136b64 	vldr	d6, [r3, #-400]	; 0xfffffe70
    8e20:	ee377b06 	vadd.f64	d7, d7, d6
    8e24:	e2477001 	sub	r7, r7, #1
    8e28:	e3570001 	cmp	r7, #1
    8e2c:	cafffff8 	bgt	8e14 <__kernel_rem_pio2+0x6cc>
    8e30:	e35a0000 	cmp	sl, #0
    8e34:	1a000005 	bne	8e50 <__kernel_rem_pio2+0x708>
    8e38:	e1cd2ad8 	ldrd	r2, [sp, #168]	; 0xa8
    8e3c:	e1cb20f0 	strd	r2, [fp]
    8e40:	e1cd2bd0 	ldrd	r2, [sp, #176]	; 0xb0
    8e44:	e1cb20f8 	strd	r2, [fp, #8]
    8e48:	ed8b7b04 	vstr	d7, [fp, #16]
    8e4c:	ea000007 	b	8e70 <__kernel_rem_pio2+0x728>
    8e50:	ed9d6b2a 	vldr	d6, [sp, #168]	; 0xa8
    8e54:	eeb16b46 	vneg.f64	d6, d6
    8e58:	ed8b6b00 	vstr	d6, [fp]
    8e5c:	ed9d6b2c 	vldr	d6, [sp, #176]	; 0xb0
    8e60:	eeb16b46 	vneg.f64	d6, d6
    8e64:	ed8b6b02 	vstr	d6, [fp, #8]
    8e68:	eeb17b47 	vneg.f64	d7, d7
    8e6c:	ed8b7b04 	vstr	d7, [fp, #16]
    8e70:	ee1f1a10 	vmov	r1, s30
    8e74:	e2010007 	and	r0, r1, #7
    8e78:	e28ddf8f 	add	sp, sp, #572	; 0x23c
    8e7c:	ecbd8b10 	vpop	{d8-d15}
    8e80:	e8bd8ff0 	pop	{r4, r5, r6, r7, r8, r9, sl, fp, pc}
    8e84:	e320f000 	nop	{0}
	...

00008e90 <scalbn>:
    8e90:	e92d4008 	push	{r3, lr}
    8e94:	ed2d8b02 	vpush	{d8}
    8e98:	eeb01b40 	vmov.f64	d1, d0
    8e9c:	ec532b10 	vmov	r2, r3, d0
    8ea0:	e1a0c003 	mov	ip, r3
    8ea4:	e3c31102 	bic	r1, r3, #-2147483648	; 0x80000000
    8ea8:	e1a01a21 	lsr	r1, r1, #20
    8eac:	e1a01a01 	lsl	r1, r1, #20
    8eb0:	e1b01a41 	asrs	r1, r1, #20
    8eb4:	1a000010 	bne	8efc <scalbn+0x6c>
    8eb8:	e3c33102 	bic	r3, r3, #-2147483648	; 0x80000000
    8ebc:	e1933002 	orrs	r3, r3, r2
    8ec0:	0a00003a 	beq	8fb0 <scalbn+0x120>
    8ec4:	ed9f7b3b 	vldr	d7, [pc, #236]	; 8fb8 <scalbn+0x128>
    8ec8:	ee201b07 	vmul.f64	d1, d0, d7
    8ecc:	ec532b11 	vmov	r2, r3, d1
    8ed0:	e1a0c003 	mov	ip, r3
    8ed4:	e3c31102 	bic	r1, r3, #-2147483648	; 0x80000000
    8ed8:	e1a01a21 	lsr	r1, r1, #20
    8edc:	e1a01a01 	lsl	r1, r1, #20
    8ee0:	e1a01a41 	asr	r1, r1, #20
    8ee4:	e2411036 	sub	r1, r1, #54	; 0x36
    8ee8:	e59f30e8 	ldr	r3, [pc, #232]	; 8fd8 <scalbn+0x148>
    8eec:	e1500003 	cmp	r0, r3
    8ef0:	bd9f0b32 	vldrlt	d0, [pc, #200]	; 8fc0 <scalbn+0x130>
    8ef4:	be210b00 	vmullt.f64	d0, d1, d0
    8ef8:	ba00002c 	blt	8fb0 <scalbn+0x120>
    8efc:	e59f30d8 	ldr	r3, [pc, #216]	; 8fdc <scalbn+0x14c>
    8f00:	e1510003 	cmp	r1, r3
    8f04:	0e310b01 	vaddeq.f64	d0, d1, d1
    8f08:	0a000028 	beq	8fb0 <scalbn+0x120>
    8f0c:	e0811000 	add	r1, r1, r0
    8f10:	e59f30c8 	ldr	r3, [pc, #200]	; 8fe0 <scalbn+0x150>
    8f14:	e1510003 	cmp	r1, r3
    8f18:	da000004 	ble	8f30 <scalbn+0xa0>
    8f1c:	ed9f8b29 	vldr	d8, [pc, #164]	; 8fc8 <scalbn+0x138>
    8f20:	eeb00b48 	vmov.f64	d0, d8
    8f24:	eb000081 	bl	9130 <copysign>
    8f28:	ee200b08 	vmul.f64	d0, d0, d8
    8f2c:	ea00001f 	b	8fb0 <scalbn+0x120>
    8f30:	e3510000 	cmp	r1, #0
    8f34:	da000005 	ble	8f50 <scalbn+0xc0>
    8f38:	ec532b11 	vmov	r2, r3, d1
    8f3c:	e3ccc47f 	bic	ip, ip, #2130706432	; 0x7f000000
    8f40:	e3ccc60f 	bic	ip, ip, #15728640	; 0xf00000
    8f44:	e18c3a01 	orr	r3, ip, r1, lsl #20
    8f48:	ec432b10 	vmov	d0, r2, r3
    8f4c:	ea000017 	b	8fb0 <scalbn+0x120>
    8f50:	e3710035 	cmn	r1, #53	; 0x35
    8f54:	aa00000c 	bge	8f8c <scalbn+0xfc>
    8f58:	e59f3084 	ldr	r3, [pc, #132]	; 8fe4 <scalbn+0x154>
    8f5c:	e1500003 	cmp	r0, r3
    8f60:	da000004 	ble	8f78 <scalbn+0xe8>
    8f64:	ed9f8b17 	vldr	d8, [pc, #92]	; 8fc8 <scalbn+0x138>
    8f68:	eeb00b48 	vmov.f64	d0, d8
    8f6c:	eb00006f 	bl	9130 <copysign>
    8f70:	ee200b08 	vmul.f64	d0, d0, d8
    8f74:	ea00000d 	b	8fb0 <scalbn+0x120>
    8f78:	ed9f8b10 	vldr	d8, [pc, #64]	; 8fc0 <scalbn+0x130>
    8f7c:	eeb00b48 	vmov.f64	d0, d8
    8f80:	eb00006a 	bl	9130 <copysign>
    8f84:	ee200b08 	vmul.f64	d0, d0, d8
    8f88:	ea000008 	b	8fb0 <scalbn+0x120>
    8f8c:	e2811036 	add	r1, r1, #54	; 0x36
    8f90:	ec532b11 	vmov	r2, r3, d1
    8f94:	e3ccc47f 	bic	ip, ip, #2130706432	; 0x7f000000
    8f98:	e3ccc60f 	bic	ip, ip, #15728640	; 0xf00000
    8f9c:	e18c3a01 	orr	r3, ip, r1, lsl #20
    8fa0:	ec432b10 	vmov	d0, r2, r3
    8fa4:	ed9f7b09 	vldr	d7, [pc, #36]	; 8fd0 <scalbn+0x140>
    8fa8:	ee200b07 	vmul.f64	d0, d0, d7
    8fac:	eaffffff 	b	8fb0 <scalbn+0x120>
    8fb0:	ecbd8b02 	vpop	{d8}
    8fb4:	e8bd8008 	pop	{r3, pc}
    8fb8:	00000000 	andeq	r0, r0, r0
    8fbc:	43500000 	cmpmi	r0, #0
    8fc0:	c2f8f359 	rscsgt	pc, r8, #1677721601	; 0x64000001
    8fc4:	01a56e1f 			; <UNDEFINED> instruction: 0x01a56e1f
    8fc8:	8800759c 	stmdahi	r0, {r2, r3, r4, r7, r8, sl, ip, sp, lr}
    8fcc:	7e37e43c 	mrcvc	4, 1, lr, cr7, cr12, {1}
    8fd0:	00000000 	andeq	r0, r0, r0
    8fd4:	3c900000 	ldccc	0, cr0, [r0], {0}
    8fd8:	ffff3cb0 			; <UNDEFINED> instruction: 0xffff3cb0
    8fdc:	000007ff 	strdeq	r0, [r0], -pc	; <UNPREDICTABLE>
    8fe0:	000007fe 	strdeq	r0, [r0], -lr
    8fe4:	0000c350 	andeq	ip, r0, r0, asr r3

00008fe8 <floor>:
    8fe8:	e92d0070 	push	{r4, r5, r6}
    8fec:	ec532b10 	vmov	r2, r3, d0
    8ff0:	e1a04003 	mov	r4, r3
    8ff4:	ee10ca10 	vmov	ip, s0
    8ff8:	e1a00083 	lsl	r0, r3, #1
    8ffc:	e1a00aa0 	lsr	r0, r0, #21
    9000:	e2401fff 	sub	r1, r0, #1020	; 0x3fc
    9004:	e2411003 	sub	r1, r1, #3
    9008:	e3510013 	cmp	r1, #19
    900c:	ca00001c 	bgt	9084 <floor+0x9c>
    9010:	e3510000 	cmp	r1, #0
    9014:	aa00000a 	bge	9044 <floor+0x5c>
    9018:	ed9f7b40 	vldr	d7, [pc, #256]	; 9120 <floor+0x138>
    901c:	ee300b07 	vadd.f64	d0, d0, d7
    9020:	eeb50bc0 	vcmpe.f64	d0, #0.0
    9024:	eef1fa10 	vmrs	APSR_nzcv, fpscr
    9028:	da000037 	ble	910c <floor+0x124>
    902c:	e3530000 	cmp	r3, #0
    9030:	aa000030 	bge	90f8 <floor+0x110>
    9034:	e3c33102 	bic	r3, r3, #-2147483648	; 0x80000000
    9038:	e1933002 	orrs	r3, r3, r2
    903c:	1a000030 	bne	9104 <floor+0x11c>
    9040:	ea000031 	b	910c <floor+0x124>
    9044:	e59f00dc 	ldr	r0, [pc, #220]	; 9128 <floor+0x140>
    9048:	e1a00150 	asr	r0, r0, r1
    904c:	e0005003 	and	r5, r0, r3
    9050:	e1955002 	orrs	r5, r5, r2
    9054:	0a00002f 	beq	9118 <floor+0x130>
    9058:	ed9f7b30 	vldr	d7, [pc, #192]	; 9120 <floor+0x138>
    905c:	ee300b07 	vadd.f64	d0, d0, d7
    9060:	eeb50bc0 	vcmpe.f64	d0, #0.0
    9064:	eef1fa10 	vmrs	APSR_nzcv, fpscr
    9068:	da000027 	ble	910c <floor+0x124>
    906c:	e3530000 	cmp	r3, #0
    9070:	b3a04601 	movlt	r4, #1048576	; 0x100000
    9074:	b0834154 	addlt	r4, r3, r4, asr r1
    9078:	e1c44000 	bic	r4, r4, r0
    907c:	e3a0c000 	mov	ip, #0
    9080:	ea000021 	b	910c <floor+0x124>
    9084:	e3510033 	cmp	r1, #51	; 0x33
    9088:	da000002 	ble	9098 <floor+0xb0>
    908c:	e3510b01 	cmp	r1, #1024	; 0x400
    9090:	0e300b00 	vaddeq.f64	d0, d0, d0
    9094:	ea00001f 	b	9118 <floor+0x130>
    9098:	e2405e41 	sub	r5, r0, #1040	; 0x410
    909c:	e2455003 	sub	r5, r5, #3
    90a0:	e3e06000 	mvn	r6, #0
    90a4:	e1a05536 	lsr	r5, r6, r5
    90a8:	e1150002 	tst	r5, r2
    90ac:	0a000019 	beq	9118 <floor+0x130>
    90b0:	ed9f7b1a 	vldr	d7, [pc, #104]	; 9120 <floor+0x138>
    90b4:	ee300b07 	vadd.f64	d0, d0, d7
    90b8:	eeb50bc0 	vcmpe.f64	d0, #0.0
    90bc:	eef1fa10 	vmrs	APSR_nzcv, fpscr
    90c0:	da000011 	ble	910c <floor+0x124>
    90c4:	e3530000 	cmp	r3, #0
    90c8:	aa000008 	bge	90f0 <floor+0x108>
    90cc:	e3510014 	cmp	r1, #20
    90d0:	02834001 	addeq	r4, r3, #1
    90d4:	0a000005 	beq	90f0 <floor+0x108>
    90d8:	e2600e43 	rsb	r0, r0, #1072	; 0x430
    90dc:	e2800003 	add	r0, r0, #3
    90e0:	e3a0c001 	mov	ip, #1
    90e4:	e082c01c 	add	ip, r2, ip, lsl r0
    90e8:	e152000c 	cmp	r2, ip
    90ec:	82834001 	addhi	r4, r3, #1
    90f0:	e1ccc005 	bic	ip, ip, r5
    90f4:	ea000004 	b	910c <floor+0x124>
    90f8:	e3a0c000 	mov	ip, #0
    90fc:	e1a0400c 	mov	r4, ip
    9100:	ea000001 	b	910c <floor+0x124>
    9104:	e3a0c000 	mov	ip, #0
    9108:	e59f401c 	ldr	r4, [pc, #28]	; 912c <floor+0x144>
    910c:	e1a03004 	mov	r3, r4
    9110:	e1a0200c 	mov	r2, ip
    9114:	ec432b10 	vmov	d0, r2, r3
    9118:	e8bd0070 	pop	{r4, r5, r6}
    911c:	e12fff1e 	bx	lr
    9120:	8800759c 	stmdahi	r0, {r2, r3, r4, r7, r8, sl, ip, sp, lr}
    9124:	7e37e43c 	mrcvc	4, 1, lr, cr7, cr12, {1}
    9128:	000fffff 	strdeq	pc, [pc], -pc	; <UNPREDICTABLE>
    912c:	bff00000 	svclt	0x00f00000	; IMB

00009130 <copysign>:
    9130:	e92d0030 	push	{r4, r5}
    9134:	ec554b10 	vmov	r4, r5, d0
    9138:	ec510b11 	vmov	r0, r1, d1
    913c:	ec532b10 	vmov	r2, r3, d0
    9140:	e3c50102 	bic	r0, r5, #-2147483648	; 0x80000000
    9144:	e2011102 	and	r1, r1, #-2147483648	; 0x80000000
    9148:	e1803001 	orr	r3, r0, r1
    914c:	ec432b10 	vmov	d0, r2, r3
    9150:	e8bd0030 	pop	{r4, r5}
    9154:	e12fff1e 	bx	lr

00009158 <sin>:
    9158:	e52de004 	push	{lr}		; (str lr, [sp, #-4]!)
    915c:	e24dd014 	sub	sp, sp, #20
    9160:	ec532b10 	vmov	r2, r3, d0
    9164:	e3c33102 	bic	r3, r3, #-2147483648	; 0x80000000
    9168:	e59f20c0 	ldr	r2, [pc, #192]	; 9230 <sin+0xd8>
    916c:	e1530002 	cmp	r3, r2
    9170:	ca00000a 	bgt	91a0 <sin+0x48>
    9174:	e59f20b8 	ldr	r2, [pc, #184]	; 9234 <sin+0xdc>
    9178:	e1530002 	cmp	r3, r2
    917c:	ca000003 	bgt	9190 <sin+0x38>
    9180:	eefd7bc0 	vcvt.s32.f64	s15, d0
    9184:	ee173a90 	vmov	r3, s15
    9188:	e3530000 	cmp	r3, #0
    918c:	0a000023 	beq	9220 <sin+0xc8>
    9190:	ed9f1b24 	vldr	d1, [pc, #144]	; 9228 <sin+0xd0>
    9194:	e3a00000 	mov	r0, #0
    9198:	ebfffc32 	bl	8268 <__kernel_sin>
    919c:	ea00001f 	b	9220 <sin+0xc8>
    91a0:	e59f2090 	ldr	r2, [pc, #144]	; 9238 <sin+0xe0>
    91a4:	e1530002 	cmp	r3, r2
    91a8:	ce300b40 	vsubgt.f64	d0, d0, d0
    91ac:	ca00001b 	bgt	9220 <sin+0xc8>
    91b0:	e1a0000d 	mov	r0, sp
    91b4:	ebfffc55 	bl	8310 <__ieee754_rem_pio2>
    91b8:	e2000003 	and	r0, r0, #3
    91bc:	e3500001 	cmp	r0, #1
    91c0:	0a000008 	beq	91e8 <sin+0x90>
    91c4:	e3500002 	cmp	r0, #2
    91c8:	0a00000a 	beq	91f8 <sin+0xa0>
    91cc:	e3500000 	cmp	r0, #0
    91d0:	1a00000e 	bne	9210 <sin+0xb8>
    91d4:	ed9d0b00 	vldr	d0, [sp]
    91d8:	ed9d1b02 	vldr	d1, [sp, #8]
    91dc:	e3a00001 	mov	r0, #1
    91e0:	ebfffc20 	bl	8268 <__kernel_sin>
    91e4:	ea00000d 	b	9220 <sin+0xc8>
    91e8:	ed9d0b00 	vldr	d0, [sp]
    91ec:	ed9d1b02 	vldr	d1, [sp, #8]
    91f0:	ebfffbf0 	bl	81b8 <__kernel_cos>
    91f4:	ea000009 	b	9220 <sin+0xc8>
    91f8:	ed9d0b00 	vldr	d0, [sp]
    91fc:	ed9d1b02 	vldr	d1, [sp, #8]
    9200:	e3a00001 	mov	r0, #1
    9204:	ebfffc17 	bl	8268 <__kernel_sin>
    9208:	eeb10b40 	vneg.f64	d0, d0
    920c:	ea000003 	b	9220 <sin+0xc8>
    9210:	ed9d0b00 	vldr	d0, [sp]
    9214:	ed9d1b02 	vldr	d1, [sp, #8]
    9218:	ebfffbe6 	bl	81b8 <__kernel_cos>
    921c:	eeb10b40 	vneg.f64	d0, d0
    9220:	e28dd014 	add	sp, sp, #20
    9224:	e49df004 	pop	{pc}		; (ldr pc, [sp], #4)
	...
    9230:	3fe921fb 	svccc	0x00e921fb
    9234:	3e4fffff 	mcrcc	15, 2, pc, cr15, cr15, {7}	; <UNPREDICTABLE>
    9238:	7fefffff 	svcvc	0x00efffff
    923c:	e320f000 	nop	{0}

00009240 <printk>:
    9240:	e92d000f 	push	{r0, r1, r2, r3}
    9244:	e92d4030 	push	{r4, r5, lr}
    9248:	e24dd00c 	sub	sp, sp, #12
    924c:	e28d301c 	add	r3, sp, #28
    9250:	e58d3004 	str	r3, [sp, #4]
    9254:	e59f4034 	ldr	r4, [pc, #52]	; 9290 <printk+0x50>
    9258:	e1a00004 	mov	r0, r4
    925c:	e3a01b01 	mov	r1, #1024	; 0x400
    9260:	e59d2018 	ldr	r2, [sp, #24]
    9264:	eb000113 	bl	96b8 <va_printk>
    9268:	e1a05000 	mov	r5, r0
    926c:	e59f3020 	ldr	r3, [pc, #32]	; 9294 <printk+0x54>
    9270:	e5933000 	ldr	r3, [r3]
    9274:	e1a00004 	mov	r0, r4
    9278:	e12fff33 	blx	r3
    927c:	e1a00005 	mov	r0, r5
    9280:	e28dd00c 	add	sp, sp, #12
    9284:	e8bd4030 	pop	{r4, r5, lr}
    9288:	e28dd010 	add	sp, sp, #16
    928c:	e12fff1e 	bx	lr
    9290:	0000a1b0 			; <UNDEFINED> instruction: 0x0000a1b0
    9294:	00009ec8 	andeq	r9, r0, r8, asr #29

00009298 <internal_putk>:
    9298:	e92d4038 	push	{r3, r4, r5, lr}
    929c:	e1a04000 	mov	r4, r0
    92a0:	e59f5020 	ldr	r5, [pc, #32]	; 92c8 <internal_putk+0x30>
    92a4:	ea000002 	b	92b4 <internal_putk+0x1c>
    92a8:	e5953000 	ldr	r3, [r5]
    92ac:	e12fff33 	blx	r3
    92b0:	e2844001 	add	r4, r4, #1
    92b4:	e5d40000 	ldrb	r0, [r4]
    92b8:	e3500000 	cmp	r0, #0
    92bc:	1afffff9 	bne	92a8 <internal_putk+0x10>
    92c0:	e3a00001 	mov	r0, #1
    92c4:	e8bd8038 	pop	{r3, r4, r5, pc}
    92c8:	00009ecc 	andeq	r9, r0, ip, asr #29
    92cc:	00000000 	andeq	r0, r0, r0

000092d0 <isdigit>:
    92d0:	e2400030 	sub	r0, r0, #48	; 0x30
    92d4:	e3500009 	cmp	r0, #9
    92d8:	83a00000 	movhi	r0, #0
    92dc:	93a00001 	movls	r0, #1
    92e0:	e12fff1e 	bx	lr

000092e4 <pad>:
    92e4:	e0611000 	rsb	r1, r1, r0
    92e8:	e3a03020 	mov	r3, #32
    92ec:	ea000002 	b	92fc <pad+0x18>
    92f0:	e5c03000 	strb	r3, [r0]
    92f4:	e2811001 	add	r1, r1, #1
    92f8:	e2800001 	add	r0, r0, #1
    92fc:	e1510002 	cmp	r1, r2
    9300:	bafffffa 	blt	92f0 <pad+0xc>
    9304:	e3a03000 	mov	r3, #0
    9308:	e5c03000 	strb	r3, [r0]
    930c:	e12fff1e 	bx	lr

00009310 <reverse>:
    9310:	e063c002 	rsb	ip, r3, r2
    9314:	e28cc001 	add	ip, ip, #1
    9318:	e15c0001 	cmp	ip, r1
    931c:	c061100c 	rsbgt	r1, r1, ip
    9320:	c0833001 	addgt	r3, r3, r1
    9324:	e2422001 	sub	r2, r2, #1
    9328:	e1a01000 	mov	r1, r0
    932c:	ea000002 	b	933c <reverse+0x2c>
    9330:	e452c001 	ldrb	ip, [r2], #-1
    9334:	e5c1c000 	strb	ip, [r1]
    9338:	e2811001 	add	r1, r1, #1
    933c:	e1520003 	cmp	r2, r3
    9340:	2afffffa 	bcs	9330 <reverse+0x20>
    9344:	e3a03000 	mov	r3, #0
    9348:	e5c13000 	strb	r3, [r1]
    934c:	e12fff1e 	bx	lr

00009350 <trunc>:
    9350:	eebd0bc0 	vcvt.s32.f64	s0, d0
    9354:	ee100a10 	vmov	r0, s0
    9358:	e12fff1e 	bx	lr

0000935c <fp_get_frac>:
    935c:	e92d4008 	push	{r3, lr}
    9360:	eeb50bc0 	vcmpe.f64	d0, #0.0
    9364:	eef1fa10 	vmrs	APSR_nzcv, fpscr
    9368:	4eb10b40 	vnegmi.f64	d0, d0
    936c:	ed9f7b09 	vldr	d7, [pc, #36]	; 9398 <fp_get_frac+0x3c>
    9370:	ee200b07 	vmul.f64	d0, d0, d7
    9374:	ebfffff5 	bl	9350 <trunc>
    9378:	e59f3020 	ldr	r3, [pc, #32]	; 93a0 <fp_get_frac+0x44>
    937c:	e0c32093 	smull	r2, r3, r3, r0
    9380:	e1a02fc0 	asr	r2, r0, #31
    9384:	e0623643 	rsb	r3, r2, r3, asr #12
    9388:	e59f2014 	ldr	r2, [pc, #20]	; 93a4 <fp_get_frac+0x48>
    938c:	e0030392 	mul	r3, r2, r3
    9390:	e0630000 	rsb	r0, r3, r0
    9394:	e8bd8008 	pop	{r3, pc}
    9398:	00000000 	andeq	r0, r0, r0
    939c:	40c38800 	sbcmi	r8, r3, r0, lsl #16
    93a0:	68db8bad 	ldmvs	fp, {r0, r2, r3, r5, r7, r8, r9, fp, pc}^
    93a4:	00002710 	andeq	r2, r0, r0, lsl r7

000093a8 <fp_get_integral>:
    93a8:	e92d4008 	push	{r3, lr}
    93ac:	ebffffe7 	bl	9350 <trunc>
    93b0:	e8bd8008 	pop	{r3, pc}

000093b4 <emit>:
    93b4:	e92d41f0 	push	{r4, r5, r6, r7, r8, lr}
    93b8:	e24dd040 	sub	sp, sp, #64	; 0x40
    93bc:	e1a05001 	mov	r5, r1
    93c0:	e1a04002 	mov	r4, r2
    93c4:	e59d2058 	ldr	r2, [sp, #88]	; 0x58
    93c8:	e1520004 	cmp	r2, r4
    93cc:	c2442001 	subgt	r2, r4, #1
    93d0:	e1a0c003 	mov	ip, r3
    93d4:	e2400002 	sub	r0, r0, #2
    93d8:	e350000e 	cmp	r0, #14
    93dc:	979ff100 	ldrls	pc, [pc, r0, lsl #2]
    93e0:	ea000048 	b	9508 <emit+0x154>
    93e4:	000094e0 	andeq	r9, r0, r0, ror #9
    93e8:	00009508 	andeq	r9, r0, r8, lsl #10
    93ec:	00009508 	andeq	r9, r0, r8, lsl #10
    93f0:	00009508 	andeq	r9, r0, r8, lsl #10
    93f4:	00009508 	andeq	r9, r0, r8, lsl #10
    93f8:	00009508 	andeq	r9, r0, r8, lsl #10
    93fc:	000094d4 	ldrdeq	r9, [r0], -r4
    9400:	00009508 	andeq	r9, r0, r8, lsl #10
    9404:	00009420 	andeq	r9, r0, r0, lsr #8
    9408:	00009508 	andeq	r9, r0, r8, lsl #10
    940c:	00009508 	andeq	r9, r0, r8, lsl #10
    9410:	00009508 	andeq	r9, r0, r8, lsl #10
    9414:	00009508 	andeq	r9, r0, r8, lsl #10
    9418:	00009508 	andeq	r9, r0, r8, lsl #10
    941c:	00009494 	muleq	r0, r4, r4
    9420:	e59d105c 	ldr	r1, [sp, #92]	; 0x5c
    9424:	e2911000 	adds	r1, r1, #0
    9428:	13a01001 	movne	r1, #1
    942c:	e0111fa3 	ands	r1, r1, r3, lsr #31
    9430:	1263c000 	rsbne	ip, r3, #0
    9434:	13a08001 	movne	r8, #1
    9438:	03a08000 	moveq	r8, #0
    943c:	e1a0100d 	mov	r1, sp
    9440:	e59f7100 	ldr	r7, [pc, #256]	; 9548 <emit+0x194>
    9444:	e59f6100 	ldr	r6, [pc, #256]	; 954c <emit+0x198>
    9448:	ea000000 	b	9450 <emit+0x9c>
    944c:	e1a01000 	mov	r1, r0
    9450:	e2810001 	add	r0, r1, #1
    9454:	e083ec97 	umull	lr, r3, r7, ip
    9458:	e1a031a3 	lsr	r3, r3, #3
    945c:	e1a0e003 	mov	lr, r3
    9460:	e0833103 	add	r3, r3, r3, lsl #2
    9464:	e1a03083 	lsl	r3, r3, #1
    9468:	e063300c 	rsb	r3, r3, ip
    946c:	e7d63003 	ldrb	r3, [r6, r3]
    9470:	e5c13000 	strb	r3, [r1]
    9474:	e1a0c00e 	mov	ip, lr
    9478:	e35e0000 	cmp	lr, #0
    947c:	1afffff2 	bne	944c <emit+0x98>
    9480:	e3580000 	cmp	r8, #0
    9484:	12810002 	addne	r0, r1, #2
    9488:	13a0302d 	movne	r3, #45	; 0x2d
    948c:	15c13001 	strbne	r3, [r1, #1]
    9490:	ea000023 	b	9524 <emit+0x170>
    9494:	e1a0300d 	mov	r3, sp
    9498:	e59fe0b0 	ldr	lr, [pc, #176]	; 9550 <emit+0x19c>
    949c:	ea000000 	b	94a4 <emit+0xf0>
    94a0:	e1a03000 	mov	r3, r0
    94a4:	e2830001 	add	r0, r3, #1
    94a8:	e20c100f 	and	r1, ip, #15
    94ac:	e7de1001 	ldrb	r1, [lr, r1]
    94b0:	e5c31000 	strb	r1, [r3]
    94b4:	e1b0c22c 	lsrs	ip, ip, #4
    94b8:	1afffff8 	bne	94a0 <emit+0xec>
    94bc:	e3a01078 	mov	r1, #120	; 0x78
    94c0:	e5c31001 	strb	r1, [r3, #1]
    94c4:	e2830003 	add	r0, r3, #3
    94c8:	e3a01030 	mov	r1, #48	; 0x30
    94cc:	e5c31002 	strb	r1, [r3, #2]
    94d0:	ea000013 	b	9524 <emit+0x170>
    94d4:	e5cd3000 	strb	r3, [sp]
    94d8:	e28d0001 	add	r0, sp, #1
    94dc:	ea000010 	b	9524 <emit+0x170>
    94e0:	e1a0300d 	mov	r3, sp
    94e4:	e59fe068 	ldr	lr, [pc, #104]	; 9554 <emit+0x1a0>
    94e8:	e2830001 	add	r0, r3, #1
    94ec:	e20c1001 	and	r1, ip, #1
    94f0:	e7de1001 	ldrb	r1, [lr, r1]
    94f4:	e5c31000 	strb	r1, [r3]
    94f8:	e1a03000 	mov	r3, r0
    94fc:	e1b0c0ac 	lsrs	ip, ip, #1
    9500:	1afffff8 	bne	94e8 <emit+0x134>
    9504:	ea000006 	b	9524 <emit+0x170>
    9508:	eb0001aa 	bl	9bb8 <rpi_reset_putc>
    950c:	e59f0044 	ldr	r0, [pc, #68]	; 9558 <emit+0x1a4>
    9510:	e59f1044 	ldr	r1, [pc, #68]	; 955c <emit+0x1a8>
    9514:	e59f2044 	ldr	r2, [pc, #68]	; 9560 <emit+0x1ac>
    9518:	e3a03077 	mov	r3, #119	; 0x77
    951c:	ebffff47 	bl	9240 <printk>
    9520:	eb000106 	bl	9940 <clean_reboot>
    9524:	e1a0100d 	mov	r1, sp
    9528:	ebffff6d 	bl	92e4 <pad>
    952c:	e1a02000 	mov	r2, r0
    9530:	e1a00005 	mov	r0, r5
    9534:	e1a01004 	mov	r1, r4
    9538:	e1a0300d 	mov	r3, sp
    953c:	ebffff73 	bl	9310 <reverse>
    9540:	e28dd040 	add	sp, sp, #64	; 0x40
    9544:	e8bd81f0 	pop	{r4, r5, r6, r7, r8, pc}
    9548:	cccccccd 	stclgt	12, cr12, [ip], {205}	; 0xcd
    954c:	0000a0d4 	ldrdeq	sl, [r0], -r4
    9550:	0000a0e0 	andeq	sl, r0, r0, ror #1
    9554:	0000a0f4 	strdeq	sl, [r0], -r4
    9558:	0000a0ac 	andeq	sl, r0, ip, lsr #1
    955c:	0000a0c0 	andeq	sl, r0, r0, asr #1
    9560:	0000a088 	andeq	sl, r0, r8, lsl #1

00009564 <rpi_set_output>:
    9564:	e92d4008 	push	{r3, lr}
    9568:	e3500000 	cmp	r0, #0
    956c:	1a000006 	bne	958c <rpi_set_output+0x28>
    9570:	eb000190 	bl	9bb8 <rpi_reset_putc>
    9574:	e59f0028 	ldr	r0, [pc, #40]	; 95a4 <rpi_set_output+0x40>
    9578:	e59f1028 	ldr	r1, [pc, #40]	; 95a8 <rpi_set_output+0x44>
    957c:	e59f2028 	ldr	r2, [pc, #40]	; 95ac <rpi_set_output+0x48>
    9580:	e3a03020 	mov	r3, #32
    9584:	ebffff2d 	bl	9240 <printk>
    9588:	eb0000ec 	bl	9940 <clean_reboot>
    958c:	e59f301c 	ldr	r3, [pc, #28]	; 95b0 <rpi_set_output+0x4c>
    9590:	e5830000 	str	r0, [r3]
    9594:	e3510000 	cmp	r1, #0
    9598:	159f3014 	ldrne	r3, [pc, #20]	; 95b4 <rpi_set_output+0x50>
    959c:	15831000 	strne	r1, [r3]
    95a0:	e8bd8008 	pop	{r3, pc}
    95a4:	0000a0f8 	strdeq	sl, [r0], -r8
    95a8:	0000a0c0 	andeq	sl, r0, r0, asr #1
    95ac:	0000a090 	muleq	r0, r0, r0
    95b0:	00009ecc 	andeq	r9, r0, ip, asr #29
    95b4:	00009ec8 	andeq	r9, r0, r8, asr #29

000095b8 <__emit_float>:
    95b8:	e92d41f0 	push	{r4, r5, r6, r7, r8, lr}
    95bc:	ed2d8b02 	vpush	{d8}
    95c0:	e24dd088 	sub	sp, sp, #136	; 0x88
    95c4:	e1a06000 	mov	r6, r0
    95c8:	eeb08b40 	vmov.f64	d8, d0
    95cc:	e1a08001 	mov	r8, r1
    95d0:	eeb50bc0 	vcmpe.f64	d0, #0.0
    95d4:	eef1fa10 	vmrs	APSR_nzcv, fpscr
    95d8:	5a000004 	bpl	95f0 <__emit_float+0x38>
    95dc:	e2804001 	add	r4, r0, #1
    95e0:	e3a0302d 	mov	r3, #45	; 0x2d
    95e4:	e5c03000 	strb	r3, [r0]
    95e8:	eeb18b40 	vneg.f64	d8, d0
    95ec:	ea000000 	b	95f4 <__emit_float+0x3c>
    95f0:	e1a04000 	mov	r4, r0
    95f4:	e3a05000 	mov	r5, #0
    95f8:	e5c45000 	strb	r5, [r4]
    95fc:	eeb00b48 	vmov.f64	d0, d8
    9600:	ebffff55 	bl	935c <fp_get_frac>
    9604:	e1a07000 	mov	r7, r0
    9608:	eeb00b48 	vmov.f64	d0, d8
    960c:	ebffff65 	bl	93a8 <fp_get_integral>
    9610:	e1a03000 	mov	r3, r0
    9614:	e58d8000 	str	r8, [sp]
    9618:	e3a02001 	mov	r2, #1
    961c:	e58d2004 	str	r2, [sp, #4]
    9620:	e3a0000a 	mov	r0, #10
    9624:	e28d1008 	add	r1, sp, #8
    9628:	e3a02080 	mov	r2, #128	; 0x80
    962c:	ebffff60 	bl	93b4 <emit>
    9630:	e1a00004 	mov	r0, r4
    9634:	e28d1008 	add	r1, sp, #8
    9638:	eb000168 	bl	9be0 <strcat>
    963c:	e1a00004 	mov	r0, r4
    9640:	e59f106c 	ldr	r1, [pc, #108]	; 96b4 <__emit_float+0xfc>
    9644:	eb000165 	bl	9be0 <strcat>
    9648:	e3a03004 	mov	r3, #4
    964c:	e58d3000 	str	r3, [sp]
    9650:	e58d5004 	str	r5, [sp, #4]
    9654:	e3a0000a 	mov	r0, #10
    9658:	e28d1008 	add	r1, sp, #8
    965c:	e3a02080 	mov	r2, #128	; 0x80
    9660:	e1a03007 	mov	r3, r7
    9664:	ebffff52 	bl	93b4 <emit>
    9668:	e1a03005 	mov	r3, r5
    966c:	e3a01030 	mov	r1, #48	; 0x30
    9670:	ea000006 	b	9690 <__emit_float+0xd8>
    9674:	e28d0088 	add	r0, sp, #136	; 0x88
    9678:	e0802003 	add	r2, r0, r3
    967c:	e5522080 	ldrb	r2, [r2, #-128]	; 0x80
    9680:	e3520020 	cmp	r2, #32
    9684:	00802003 	addeq	r2, r0, r3
    9688:	05421080 	strbeq	r1, [r2, #-128]	; 0x80
    968c:	e2833001 	add	r3, r3, #1
    9690:	e3530003 	cmp	r3, #3
    9694:	9afffff6 	bls	9674 <__emit_float+0xbc>
    9698:	e1a00004 	mov	r0, r4
    969c:	e28d1008 	add	r1, sp, #8
    96a0:	eb00014e 	bl	9be0 <strcat>
    96a4:	e1a00006 	mov	r0, r6
    96a8:	e28dd088 	add	sp, sp, #136	; 0x88
    96ac:	ecbd8b02 	vpop	{d8}
    96b0:	e8bd81f0 	pop	{r4, r5, r6, r7, r8, pc}
    96b4:	0000a110 	andeq	sl, r0, r0, lsl r1

000096b8 <va_printk>:
    96b8:	e92d4ff0 	push	{r4, r5, r6, r7, r8, r9, sl, fp, lr}
    96bc:	e24dd08c 	sub	sp, sp, #140	; 0x8c
    96c0:	e1a0b000 	mov	fp, r0
    96c4:	e1a09003 	mov	r9, r3
    96c8:	e2411001 	sub	r1, r1, #1
    96cc:	e0808001 	add	r8, r0, r1
    96d0:	e3a03000 	mov	r3, #0
    96d4:	e5c03000 	strb	r3, [r0]
    96d8:	e1a04000 	mov	r4, r0
    96dc:	e1a0a003 	mov	sl, r3
    96e0:	ea000087 	b	9904 <va_printk+0x24c>
    96e4:	e3530025 	cmp	r3, #37	; 0x25
    96e8:	12822001 	addne	r2, r2, #1
    96ec:	15c43000 	strbne	r3, [r4]
    96f0:	12844001 	addne	r4, r4, #1
    96f4:	1a000082 	bne	9904 <va_printk+0x24c>
    96f8:	e5d21001 	ldrb	r1, [r2, #1]
    96fc:	e3510025 	cmp	r1, #37	; 0x25
    9700:	05c43000 	strbeq	r3, [r4]
    9704:	02822002 	addeq	r2, r2, #2
    9708:	02844001 	addeq	r4, r4, #1
    970c:	0a00007c 	beq	9904 <va_printk+0x24c>
    9710:	e2826001 	add	r6, r2, #1
    9714:	e1a0700a 	mov	r7, sl
    9718:	ea000004 	b	9730 <va_printk+0x78>
    971c:	e0877107 	add	r7, r7, r7, lsl #2
    9720:	e1a07087 	lsl	r7, r7, #1
    9724:	e0877005 	add	r7, r7, r5
    9728:	e2477030 	sub	r7, r7, #48	; 0x30
    972c:	e2866001 	add	r6, r6, #1
    9730:	e5d65000 	ldrb	r5, [r6]
    9734:	e1a00005 	mov	r0, r5
    9738:	ebfffee4 	bl	92d0 <isdigit>
    973c:	e3500000 	cmp	r0, #0
    9740:	1afffff5 	bne	971c <va_printk+0x64>
    9744:	e357001f 	cmp	r7, #31
    9748:	9a000006 	bls	9768 <va_printk+0xb0>
    974c:	eb000119 	bl	9bb8 <rpi_reset_putc>
    9750:	e59f01d8 	ldr	r0, [pc, #472]	; 9930 <va_printk+0x278>
    9754:	e59f11d8 	ldr	r1, [pc, #472]	; 9934 <va_printk+0x27c>
    9758:	e59f21d8 	ldr	r2, [pc, #472]	; 9938 <va_printk+0x280>
    975c:	e3a03094 	mov	r3, #148	; 0x94
    9760:	ebfffeb6 	bl	9240 <printk>
    9764:	eb000075 	bl	9940 <clean_reboot>
    9768:	e2455062 	sub	r5, r5, #98	; 0x62
    976c:	e3550016 	cmp	r5, #22
    9770:	979ff105 	ldrls	pc, [pc, r5, lsl #2]
    9774:	ea00004f 	b	98b8 <va_printk+0x200>
    9778:	00009864 	andeq	r9, r0, r4, ror #16
    977c:	00009894 	muleq	r0, r4, r8
    9780:	000097f4 	strdeq	r9, [r0], -r4
    9784:	000098b8 			; <UNDEFINED> instruction: 0x000098b8
    9788:	000097d4 	ldrdeq	r9, [r0], -r4
    978c:	000098b8 			; <UNDEFINED> instruction: 0x000098b8
    9790:	000098b8 			; <UNDEFINED> instruction: 0x000098b8
    9794:	000098b8 			; <UNDEFINED> instruction: 0x000098b8
    9798:	000098b8 			; <UNDEFINED> instruction: 0x000098b8
    979c:	000098b8 			; <UNDEFINED> instruction: 0x000098b8
    97a0:	000098b8 			; <UNDEFINED> instruction: 0x000098b8
    97a4:	000098b8 			; <UNDEFINED> instruction: 0x000098b8
    97a8:	000098b8 			; <UNDEFINED> instruction: 0x000098b8
    97ac:	000098b8 			; <UNDEFINED> instruction: 0x000098b8
    97b0:	00009840 	andeq	r9, r0, r0, asr #16
    97b4:	000098b8 			; <UNDEFINED> instruction: 0x000098b8
    97b8:	000098b8 			; <UNDEFINED> instruction: 0x000098b8
    97bc:	00009888 	andeq	r9, r0, r8, lsl #17
    97c0:	000098b8 			; <UNDEFINED> instruction: 0x000098b8
    97c4:	0000981c 	andeq	r9, r0, ip, lsl r8
    97c8:	000098b8 			; <UNDEFINED> instruction: 0x000098b8
    97cc:	000098b8 			; <UNDEFINED> instruction: 0x000098b8
    97d0:	00009840 	andeq	r9, r0, r0, asr #16
    97d4:	e2893007 	add	r3, r9, #7
    97d8:	e3c33007 	bic	r3, r3, #7
    97dc:	e2839008 	add	r9, r3, #8
    97e0:	e28d0008 	add	r0, sp, #8
    97e4:	ed930b00 	vldr	d0, [r3]
    97e8:	e1a01007 	mov	r1, r7
    97ec:	ebffff71 	bl	95b8 <__emit_float>
    97f0:	ea000039 	b	98dc <va_printk+0x224>
    97f4:	e5993000 	ldr	r3, [r9]
    97f8:	e2899004 	add	r9, r9, #4
    97fc:	e58d7000 	str	r7, [sp]
    9800:	e3a02001 	mov	r2, #1
    9804:	e58d2004 	str	r2, [sp, #4]
    9808:	e3a0000a 	mov	r0, #10
    980c:	e28d1008 	add	r1, sp, #8
    9810:	e3a02080 	mov	r2, #128	; 0x80
    9814:	ebfffee6 	bl	93b4 <emit>
    9818:	ea00002f 	b	98dc <va_printk+0x224>
    981c:	e5993000 	ldr	r3, [r9]
    9820:	e2899004 	add	r9, r9, #4
    9824:	e58d7000 	str	r7, [sp]
    9828:	e58da004 	str	sl, [sp, #4]
    982c:	e3a0000a 	mov	r0, #10
    9830:	e28d1008 	add	r1, sp, #8
    9834:	e3a02080 	mov	r2, #128	; 0x80
    9838:	ebfffedd 	bl	93b4 <emit>
    983c:	ea000026 	b	98dc <va_printk+0x224>
    9840:	e5993000 	ldr	r3, [r9]
    9844:	e2899004 	add	r9, r9, #4
    9848:	e58d7000 	str	r7, [sp]
    984c:	e58da004 	str	sl, [sp, #4]
    9850:	e3a00010 	mov	r0, #16
    9854:	e28d1008 	add	r1, sp, #8
    9858:	e3a02080 	mov	r2, #128	; 0x80
    985c:	ebfffed4 	bl	93b4 <emit>
    9860:	ea00001d 	b	98dc <va_printk+0x224>
    9864:	e5993000 	ldr	r3, [r9]
    9868:	e2899004 	add	r9, r9, #4
    986c:	e58d7000 	str	r7, [sp]
    9870:	e58da004 	str	sl, [sp, #4]
    9874:	e3a00002 	mov	r0, #2
    9878:	e28d1008 	add	r1, sp, #8
    987c:	e3a02080 	mov	r2, #128	; 0x80
    9880:	ebfffecb 	bl	93b4 <emit>
    9884:	ea000014 	b	98dc <va_printk+0x224>
    9888:	e5990000 	ldr	r0, [r9]
    988c:	e2899004 	add	r9, r9, #4
    9890:	ea000011 	b	98dc <va_printk+0x224>
    9894:	e5993000 	ldr	r3, [r9]
    9898:	e2899004 	add	r9, r9, #4
    989c:	e58d7000 	str	r7, [sp]
    98a0:	e58da004 	str	sl, [sp, #4]
    98a4:	e3a00008 	mov	r0, #8
    98a8:	e08d1000 	add	r1, sp, r0
    98ac:	e3a02080 	mov	r2, #128	; 0x80
    98b0:	ebfffebf 	bl	93b4 <emit>
    98b4:	ea000008 	b	98dc <va_printk+0x224>
    98b8:	eb0000be 	bl	9bb8 <rpi_reset_putc>
    98bc:	e5d63000 	ldrb	r3, [r6]
    98c0:	e58d3000 	str	r3, [sp]
    98c4:	e59f0070 	ldr	r0, [pc, #112]	; 993c <va_printk+0x284>
    98c8:	e59f1064 	ldr	r1, [pc, #100]	; 9934 <va_printk+0x27c>
    98cc:	e59f2064 	ldr	r2, [pc, #100]	; 9938 <va_printk+0x280>
    98d0:	e3a030bb 	mov	r3, #187	; 0xbb
    98d4:	ebfffe59 	bl	9240 <printk>
    98d8:	eb000018 	bl	9940 <clean_reboot>
    98dc:	e2862001 	add	r2, r6, #1
    98e0:	ea000002 	b	98f0 <va_printk+0x238>
    98e4:	e2800001 	add	r0, r0, #1
    98e8:	e5c43000 	strb	r3, [r4]
    98ec:	e2844001 	add	r4, r4, #1
    98f0:	e1540008 	cmp	r4, r8
    98f4:	2a000002 	bcs	9904 <va_printk+0x24c>
    98f8:	e5d03000 	ldrb	r3, [r0]
    98fc:	e3530000 	cmp	r3, #0
    9900:	1afffff7 	bne	98e4 <va_printk+0x22c>
    9904:	e5d23000 	ldrb	r3, [r2]
    9908:	e3530000 	cmp	r3, #0
    990c:	0a000001 	beq	9918 <va_printk+0x260>
    9910:	e1540008 	cmp	r4, r8
    9914:	3affff72 	bcc	96e4 <va_printk+0x2c>
    9918:	e2840001 	add	r0, r4, #1
    991c:	e3a03000 	mov	r3, #0
    9920:	e5c43000 	strb	r3, [r4]
    9924:	e06b0000 	rsb	r0, fp, r0
    9928:	e28dd08c 	add	sp, sp, #140	; 0x8c
    992c:	e8bd8ff0 	pop	{r4, r5, r6, r7, r8, r9, sl, fp, pc}
    9930:	0000a114 	andeq	sl, r0, r4, lsl r1
    9934:	0000a0c0 	andeq	sl, r0, r0, asr #1
    9938:	0000a0a0 	andeq	sl, r0, r0, lsr #1
    993c:	0000a130 	andeq	sl, r0, r0, lsr r1

00009940 <clean_reboot>:
    9940:	e92d4008 	push	{r3, lr}
    9944:	e59f3014 	ldr	r3, [pc, #20]	; 9960 <clean_reboot+0x20>
    9948:	e5933000 	ldr	r3, [r3]
    994c:	e59f0010 	ldr	r0, [pc, #16]	; 9964 <clean_reboot+0x24>
    9950:	e12fff33 	blx	r3
    9954:	e3a00064 	mov	r0, #100	; 0x64
    9958:	eb000054 	bl	9ab0 <delay_ms>
    995c:	eb000029 	bl	9a08 <rpi_reboot>
    9960:	00009ec8 	andeq	r9, r0, r8, asr #29
    9964:	0000a168 	andeq	sl, r0, r8, ror #2

00009968 <_cstart>:
    9968:	e92d4008 	push	{r3, lr}
    996c:	e59f3050 	ldr	r3, [pc, #80]	; 99c4 <_cstart+0x5c>
    9970:	e59f2050 	ldr	r2, [pc, #80]	; 99c8 <_cstart+0x60>
    9974:	e3a01000 	mov	r1, #0
    9978:	ea000001 	b	9984 <_cstart+0x1c>
    997c:	e5831000 	str	r1, [r3]
    9980:	e2833004 	add	r3, r3, #4
    9984:	e1530002 	cmp	r3, r2
    9988:	3afffffb 	bcc	997c <_cstart+0x14>
    998c:	eb000051 	bl	9ad8 <enable_fpu>
    9990:	e59f3034 	ldr	r3, [pc, #52]	; 99cc <_cstart+0x64>
    9994:	e5933000 	ldr	r3, [r3]
    9998:	e3530000 	cmp	r3, #0
    999c:	1a000006 	bne	99bc <_cstart+0x54>
    99a0:	eb000084 	bl	9bb8 <rpi_reset_putc>
    99a4:	e59f0024 	ldr	r0, [pc, #36]	; 99d0 <_cstart+0x68>
    99a8:	e59f1024 	ldr	r1, [pc, #36]	; 99d4 <_cstart+0x6c>
    99ac:	e59f2024 	ldr	r2, [pc, #36]	; 99d8 <_cstart+0x70>
    99b0:	e3a0301a 	mov	r3, #26
    99b4:	ebfffe21 	bl	9240 <printk>
    99b8:	ebffffe0 	bl	9940 <clean_reboot>
    99bc:	ebfff993 	bl	8010 <notmain>
    99c0:	ebffffde 	bl	9940 <clean_reboot>
    99c4:	0000a1b0 			; <UNDEFINED> instruction: 0x0000a1b0
    99c8:	0000a5b0 			; <UNDEFINED> instruction: 0x0000a5b0
    99cc:	00009b54 	andeq	r9, r0, r4, asr fp
    99d0:	0000a17c 	andeq	sl, r0, ip, ror r1
    99d4:	0000a19c 	muleq	r0, ip, r1
    99d8:	0000a174 	andeq	sl, r0, r4, ror r1

000099dc <at_user_level>:
    99dc:	e10f0000 	mrs	r0, CPSR
    99e0:	e200001f 	and	r0, r0, #31
    99e4:	e3500010 	cmp	r0, #16
    99e8:	13a00000 	movne	r0, #0
    99ec:	03a00001 	moveq	r0, #1
    99f0:	e12fff1e 	bx	lr

000099f4 <set_user_level>:
    99f4:	e10f3000 	mrs	r3, CPSR
    99f8:	e3c3301f 	bic	r3, r3, #31
    99fc:	e3833010 	orr	r3, r3, #16
    9a00:	e129f003 	msr	CPSR_fc, r3
    9a04:	e12fff1e 	bx	lr

00009a08 <rpi_reboot>:
    9a08:	e92d4008 	push	{r3, lr}
    9a0c:	ebfffff2 	bl	99dc <at_user_level>
    9a10:	e3500000 	cmp	r0, #0
    9a14:	0a000000 	beq	9a1c <rpi_reboot+0x14>
    9a18:	ebfffff5 	bl	99f4 <set_user_level>
    9a1c:	e3a0001e 	mov	r0, #30
    9a20:	eb000022 	bl	9ab0 <delay_ms>
    9a24:	e59f0014 	ldr	r0, [pc, #20]	; 9a40 <rpi_reboot+0x38>
    9a28:	e59f1014 	ldr	r1, [pc, #20]	; 9a44 <rpi_reboot+0x3c>
    9a2c:	eb00004b 	bl	9b60 <PUT32>
    9a30:	e59f0010 	ldr	r0, [pc, #16]	; 9a48 <rpi_reboot+0x40>
    9a34:	e59f1010 	ldr	r1, [pc, #16]	; 9a4c <rpi_reboot+0x44>
    9a38:	eb000048 	bl	9b60 <PUT32>
    9a3c:	eafffffe 	b	9a3c <rpi_reboot+0x34>
    9a40:	20100024 	andscs	r0, r0, r4, lsr #32
    9a44:	5a000001 	bpl	9a50 <delay_cycles>
    9a48:	2010001c 	andscs	r0, r0, ip, lsl r0
    9a4c:	5a000020 	bpl	9ad4 <delay_sec+0x10>

00009a50 <delay_cycles>:
    9a50:	ea000001 	b	9a5c <delay_cycles+0xc>
    9a54:	e2811000 	add	r1, r1, #0
    9a58:	e1a00003 	mov	r0, r3
    9a5c:	e2403001 	sub	r3, r0, #1
    9a60:	e3500000 	cmp	r0, #0
    9a64:	1afffffa 	bne	9a54 <delay_cycles+0x4>
    9a68:	e12fff1e 	bx	lr

00009a6c <timer_get_usec_raw>:
    9a6c:	e92d4008 	push	{r3, lr}
    9a70:	e59f0004 	ldr	r0, [pc, #4]	; 9a7c <timer_get_usec_raw+0x10>
    9a74:	eb000045 	bl	9b90 <GET32>
    9a78:	e8bd8008 	pop	{r3, pc}
    9a7c:	20003004 	andcs	r3, r0, r4

00009a80 <timer_get_usec>:
    9a80:	e92d4008 	push	{r3, lr}
    9a84:	ebfffff8 	bl	9a6c <timer_get_usec_raw>
    9a88:	e8bd8008 	pop	{r3, pc}

00009a8c <delay_us>:
    9a8c:	e92d4038 	push	{r3, r4, r5, lr}
    9a90:	e1a05000 	mov	r5, r0
    9a94:	ebfffff9 	bl	9a80 <timer_get_usec>
    9a98:	e1a04000 	mov	r4, r0
    9a9c:	ebfffff7 	bl	9a80 <timer_get_usec>
    9aa0:	e0640000 	rsb	r0, r4, r0
    9aa4:	e1500005 	cmp	r0, r5
    9aa8:	3afffffb 	bcc	9a9c <delay_us+0x10>
    9aac:	e8bd8038 	pop	{r3, r4, r5, pc}

00009ab0 <delay_ms>:
    9ab0:	e92d4008 	push	{r3, lr}
    9ab4:	e3a03ffa 	mov	r3, #1000	; 0x3e8
    9ab8:	e0000093 	mul	r0, r3, r0
    9abc:	ebfffff2 	bl	9a8c <delay_us>
    9ac0:	e8bd8008 	pop	{r3, pc}

00009ac4 <delay_sec>:
    9ac4:	e92d4008 	push	{r3, lr}
    9ac8:	e3a03ffa 	mov	r3, #1000	; 0x3e8
    9acc:	e0000093 	mul	r0, r3, r0
    9ad0:	ebfffff6 	bl	9ab0 <delay_ms>
    9ad4:	e8bd8008 	pop	{r3, pc}

00009ad8 <enable_fpu>:
    9ad8:	ee110f50 	mrc	15, 0, r0, cr1, cr0, {2}
    9adc:	e3800603 	orr	r0, r0, #3145728	; 0x300000
    9ae0:	e3800503 	orr	r0, r0, #12582912	; 0xc00000
    9ae4:	ee010f50 	mcr	15, 0, r0, cr1, cr0, {2}
    9ae8:	e3a00101 	mov	r0, #1073741824	; 0x40000000
    9aec:	eee80a10 	vmsr	fpexc, r0
    9af0:	e3a000db 	mov	r0, #219	; 0xdb
    9af4:	e121f000 	msr	CPSR_c, r0
    9af8:	e3a0d601 	mov	sp, #1048576	; 0x100000
    9afc:	e3a000d3 	mov	r0, #211	; 0xd3
    9b00:	e121f000 	msr	CPSR_c, r0
    9b04:	e12fff1e 	bx	lr

00009b08 <m4add>:
    9b08:	ee000a10 	vmov	s0, r0
    9b0c:	ee001a90 	vmov	s1, r1
    9b10:	ee012a10 	vmov	s2, r2
    9b14:	ee013a90 	vmov	s3, r3
    9b18:	ee302a20 	vadd.f32	s4, s0, s1
    9b1c:	ee712a21 	vadd.f32	s5, s2, s3
    9b20:	ee120a90 	vmov	r0, s5
    9b24:	e12fff1e 	bx	lr

00009b28 <m4add2>:
    9b28:	ee000a10 	vmov	s0, r0
    9b2c:	ee001a90 	vmov	s1, r1
    9b30:	ee012a10 	vmov	s2, r2
    9b34:	ee013a90 	vmov	s3, r3
    9b38:	ee302a20 	vadd.f32	s4, s0, s1
    9b3c:	ee712a21 	vadd.f32	s5, s2, s3
    9b40:	ee120a10 	vmov	r0, s4
    9b44:	e12fff1e 	bx	lr

00009b48 <m4vmov>:
    9b48:	ee020a10 	vmov	s4, r0
    9b4c:	ee020a90 	vmov	s5, r0
    9b50:	e12fff1e 	bx	lr

00009b54 <fp_is_enabled>:
    9b54:	00000001 	andeq	r0, r0, r1

00009b58 <put32>:
    9b58:	e5801000 	str	r1, [r0]
    9b5c:	e12fff1e 	bx	lr

00009b60 <PUT32>:
    9b60:	e5801000 	str	r1, [r0]
    9b64:	e12fff1e 	bx	lr

00009b68 <put16>:
    9b68:	e1c010b0 	strh	r1, [r0]
    9b6c:	e12fff1e 	bx	lr

00009b70 <PUT16>:
    9b70:	e1c010b0 	strh	r1, [r0]
    9b74:	e12fff1e 	bx	lr

00009b78 <put8>:
    9b78:	e5c01000 	strb	r1, [r0]
    9b7c:	e12fff1e 	bx	lr

00009b80 <PUT8>:
    9b80:	e5c01000 	strb	r1, [r0]
    9b84:	e12fff1e 	bx	lr

00009b88 <get32>:
    9b88:	e5900000 	ldr	r0, [r0]
    9b8c:	e12fff1e 	bx	lr

00009b90 <GET32>:
    9b90:	e5900000 	ldr	r0, [r0]
    9b94:	e12fff1e 	bx	lr

00009b98 <GETPC>:
    9b98:	e1a0000e 	mov	r0, lr
    9b9c:	e12fff1e 	bx	lr

00009ba0 <dummy>:
    9ba0:	e12fff1e 	bx	lr

00009ba4 <internal_putchar>:
    9ba4:	e92d4010 	push	{r4, lr}
    9ba8:	e1a04000 	mov	r4, r0
    9bac:	eb000067 	bl	9d50 <uart_putc>
    9bb0:	e1a00004 	mov	r0, r4
    9bb4:	e8bd8010 	pop	{r4, pc}

00009bb8 <rpi_reset_putc>:
    9bb8:	e59f2008 	ldr	r2, [pc, #8]	; 9bc8 <rpi_reset_putc+0x10>
    9bbc:	e59f3008 	ldr	r3, [pc, #8]	; 9bcc <rpi_reset_putc+0x14>
    9bc0:	e5832000 	str	r2, [r3]
    9bc4:	e12fff1e 	bx	lr
    9bc8:	00009ba4 	andeq	r9, r0, r4, lsr #23
    9bcc:	00009ecc 	andeq	r9, r0, ip, asr #29

00009bd0 <rpi_set_putc>:
    9bd0:	e59f3004 	ldr	r3, [pc, #4]	; 9bdc <rpi_set_putc+0xc>
    9bd4:	e5830000 	str	r0, [r3]
    9bd8:	e12fff1e 	bx	lr
    9bdc:	00009ecc 	andeq	r9, r0, ip, asr #29

00009be0 <strcat>:
    9be0:	e1a03000 	mov	r3, r0
    9be4:	ea000000 	b	9bec <strcat+0xc>
    9be8:	e1a0300c 	mov	r3, ip
    9bec:	e283c001 	add	ip, r3, #1
    9bf0:	e5d32000 	ldrb	r2, [r3]
    9bf4:	e3520000 	cmp	r2, #0
    9bf8:	1afffffa 	bne	9be8 <strcat+0x8>
    9bfc:	e2433001 	sub	r3, r3, #1
    9c00:	e5d12000 	ldrb	r2, [r1]
    9c04:	e5e32001 	strb	r2, [r3, #1]!
    9c08:	e2811001 	add	r1, r1, #1
    9c0c:	e3520000 	cmp	r2, #0
    9c10:	1afffffa 	bne	9c00 <strcat+0x20>
    9c14:	e12fff1e 	bx	lr

00009c18 <or_in32>:
    9c18:	e92d4070 	push	{r4, r5, r6, lr}
    9c1c:	e1a04000 	mov	r4, r0
    9c20:	e1a05001 	mov	r5, r1
    9c24:	ebffffd7 	bl	9b88 <get32>
    9c28:	e1801005 	orr	r1, r0, r5
    9c2c:	e1a00004 	mov	r0, r4
    9c30:	ebffffc8 	bl	9b58 <put32>
    9c34:	e8bd8070 	pop	{r4, r5, r6, pc}

00009c38 <uart_init>:
    9c38:	e92d4010 	push	{r4, lr}
    9c3c:	e3a01002 	mov	r1, #2
    9c40:	e3a0000e 	mov	r0, #14
    9c44:	eb000051 	bl	9d90 <gpio_set_function>
    9c48:	e3a01002 	mov	r1, #2
    9c4c:	e3a0000f 	mov	r0, #15
    9c50:	eb00004e 	bl	9d90 <gpio_set_function>
    9c54:	eb000095 	bl	9eb0 <dev_barrier>
    9c58:	e3a01001 	mov	r1, #1
    9c5c:	e59f0064 	ldr	r0, [pc, #100]	; 9cc8 <uart_init+0x90>
    9c60:	ebffffec 	bl	9c18 <or_in32>
    9c64:	eb000091 	bl	9eb0 <dev_barrier>
    9c68:	e59f405c 	ldr	r4, [pc, #92]	; 9ccc <uart_init+0x94>
    9c6c:	e3a01000 	mov	r1, #0
    9c70:	e1a00004 	mov	r0, r4
    9c74:	ebffffb7 	bl	9b58 <put32>
    9c78:	e3a01000 	mov	r1, #0
    9c7c:	e59f004c 	ldr	r0, [pc, #76]	; 9cd0 <uart_init+0x98>
    9c80:	ebffffb4 	bl	9b58 <put32>
    9c84:	e3a01003 	mov	r1, #3
    9c88:	e59f0044 	ldr	r0, [pc, #68]	; 9cd4 <uart_init+0x9c>
    9c8c:	ebffffb1 	bl	9b58 <put32>
    9c90:	e3a01000 	mov	r1, #0
    9c94:	e59f003c 	ldr	r0, [pc, #60]	; 9cd8 <uart_init+0xa0>
    9c98:	ebffffae 	bl	9b58 <put32>
    9c9c:	e3a010c7 	mov	r1, #199	; 0xc7
    9ca0:	e59f0034 	ldr	r0, [pc, #52]	; 9cdc <uart_init+0xa4>
    9ca4:	ebffffab 	bl	9b58 <put32>
    9ca8:	e59f1030 	ldr	r1, [pc, #48]	; 9ce0 <uart_init+0xa8>
    9cac:	e59f0030 	ldr	r0, [pc, #48]	; 9ce4 <uart_init+0xac>
    9cb0:	ebffffa8 	bl	9b58 <put32>
    9cb4:	e3a01003 	mov	r1, #3
    9cb8:	e1a00004 	mov	r0, r4
    9cbc:	ebffffa5 	bl	9b58 <put32>
    9cc0:	eb00007a 	bl	9eb0 <dev_barrier>
    9cc4:	e8bd8010 	pop	{r4, pc}
    9cc8:	20215004 	eorcs	r5, r1, r4
    9ccc:	20215060 	eorcs	r5, r1, r0, rrx
    9cd0:	20215044 	eorcs	r5, r1, r4, asr #32
    9cd4:	2021504c 	eorcs	r5, r1, ip, asr #32
    9cd8:	20215050 	eorcs	r5, r1, r0, asr r0
    9cdc:	20215048 	eorcs	r5, r1, r8, asr #32
    9ce0:	0000010e 	andeq	r0, r0, lr, lsl #2
    9ce4:	20215068 	eorcs	r5, r1, r8, rrx

00009ce8 <uart_can_getc>:
    9ce8:	e92d4010 	push	{r4, lr}
    9cec:	e59f0008 	ldr	r0, [pc, #8]	; 9cfc <uart_can_getc+0x14>
    9cf0:	ebffffa4 	bl	9b88 <get32>
    9cf4:	e2000001 	and	r0, r0, #1
    9cf8:	e8bd8010 	pop	{r4, pc}
    9cfc:	20215064 	eorcs	r5, r1, r4, rrx

00009d00 <uart_can_putc>:
    9d00:	e92d4010 	push	{r4, lr}
    9d04:	e59f0010 	ldr	r0, [pc, #16]	; 9d1c <uart_can_putc+0x1c>
    9d08:	ebffff9e 	bl	9b88 <get32>
    9d0c:	e3100002 	tst	r0, #2
    9d10:	13a00001 	movne	r0, #1
    9d14:	03a00000 	moveq	r0, #0
    9d18:	e8bd8010 	pop	{r4, pc}
    9d1c:	20215064 	eorcs	r5, r1, r4, rrx

00009d20 <uart_getc>:
    9d20:	e92d4010 	push	{r4, lr}
    9d24:	eb000061 	bl	9eb0 <dev_barrier>
    9d28:	ebffffee 	bl	9ce8 <uart_can_getc>
    9d2c:	e3500000 	cmp	r0, #0
    9d30:	0afffffc 	beq	9d28 <uart_getc+0x8>
    9d34:	e59f0010 	ldr	r0, [pc, #16]	; 9d4c <uart_getc+0x2c>
    9d38:	ebffff92 	bl	9b88 <get32>
    9d3c:	e6ef4070 	uxtb	r4, r0
    9d40:	eb00005a 	bl	9eb0 <dev_barrier>
    9d44:	e1a00004 	mov	r0, r4
    9d48:	e8bd8010 	pop	{r4, pc}
    9d4c:	20215040 	eorcs	r5, r1, r0, asr #32

00009d50 <uart_putc>:
    9d50:	e92d4010 	push	{r4, lr}
    9d54:	e1a04000 	mov	r4, r0
    9d58:	eb000054 	bl	9eb0 <dev_barrier>
    9d5c:	ebffffe7 	bl	9d00 <uart_can_putc>
    9d60:	e3500000 	cmp	r0, #0
    9d64:	0afffffc 	beq	9d5c <uart_putc+0xc>
    9d68:	e6ef1074 	uxtb	r1, r4
    9d6c:	e59f0008 	ldr	r0, [pc, #8]	; 9d7c <uart_putc+0x2c>
    9d70:	ebffff78 	bl	9b58 <put32>
    9d74:	eb00004d 	bl	9eb0 <dev_barrier>
    9d78:	e8bd8010 	pop	{r4, pc}
    9d7c:	20215040 	eorcs	r5, r1, r0, asr #32

00009d80 <uart_has_data>:
    9d80:	e92d4010 	push	{r4, lr}
    9d84:	eb000049 	bl	9eb0 <dev_barrier>
    9d88:	ebffffd6 	bl	9ce8 <uart_can_getc>
    9d8c:	e8bd8010 	pop	{r4, pc}

00009d90 <gpio_set_function>:
    9d90:	e350001f 	cmp	r0, #31
    9d94:	812fff1e 	bxhi	lr
    9d98:	e3d13007 	bics	r3, r1, #7
    9d9c:	112fff1e 	bxne	lr
    9da0:	e92d4070 	push	{r4, r5, r6, lr}
    9da4:	e1a05001 	mov	r5, r1
    9da8:	e59f3044 	ldr	r3, [pc, #68]	; 9df4 <gpio_set_function+0x64>
    9dac:	e0832093 	umull	r2, r3, r3, r0
    9db0:	e1a031a3 	lsr	r3, r3, #3
    9db4:	e1a06003 	mov	r6, r3
    9db8:	e0833103 	add	r3, r3, r3, lsl #2
    9dbc:	e1a02083 	lsl	r2, r3, #1
    9dc0:	e0403002 	sub	r3, r0, r2
    9dc4:	e0834083 	add	r4, r3, r3, lsl #1
    9dc8:	e2866302 	add	r6, r6, #134217728	; 0x8000000
    9dcc:	e2866702 	add	r6, r6, #524288	; 0x80000
    9dd0:	e1a06106 	lsl	r6, r6, #2
    9dd4:	e1a00006 	mov	r0, r6
    9dd8:	ebffff6c 	bl	9b90 <GET32>
    9ddc:	e3a01007 	mov	r1, #7
    9de0:	e1c01411 	bic	r1, r0, r1, lsl r4
    9de4:	e1811415 	orr	r1, r1, r5, lsl r4
    9de8:	e1a00006 	mov	r0, r6
    9dec:	ebffff5b 	bl	9b60 <PUT32>
    9df0:	e8bd8070 	pop	{r4, r5, r6, pc}
    9df4:	cccccccd 	stclgt	12, cr12, [ip], {205}	; 0xcd

00009df8 <gpio_set_output>:
    9df8:	e92d4010 	push	{r4, lr}
    9dfc:	e3a01001 	mov	r1, #1
    9e00:	ebffffe2 	bl	9d90 <gpio_set_function>
    9e04:	e8bd8010 	pop	{r4, pc}

00009e08 <gpio_set_on>:
    9e08:	e350001f 	cmp	r0, #31
    9e0c:	812fff1e 	bxhi	lr
    9e10:	e92d4010 	push	{r4, lr}
    9e14:	e3a01001 	mov	r1, #1
    9e18:	e1a01011 	lsl	r1, r1, r0
    9e1c:	e59f0004 	ldr	r0, [pc, #4]	; 9e28 <gpio_set_on+0x20>
    9e20:	ebffff4e 	bl	9b60 <PUT32>
    9e24:	e8bd8010 	pop	{r4, pc}
    9e28:	2020001c 	eorcs	r0, r0, ip, lsl r0

00009e2c <gpio_set_off>:
    9e2c:	e350001f 	cmp	r0, #31
    9e30:	812fff1e 	bxhi	lr
    9e34:	e92d4010 	push	{r4, lr}
    9e38:	e3a01001 	mov	r1, #1
    9e3c:	e1a01011 	lsl	r1, r1, r0
    9e40:	e59f0004 	ldr	r0, [pc, #4]	; 9e4c <gpio_set_off+0x20>
    9e44:	ebffff45 	bl	9b60 <PUT32>
    9e48:	e8bd8010 	pop	{r4, pc}
    9e4c:	20200028 	eorcs	r0, r0, r8, lsr #32

00009e50 <gpio_set_input>:
    9e50:	e92d4010 	push	{r4, lr}
    9e54:	e3a01000 	mov	r1, #0
    9e58:	ebffffcc 	bl	9d90 <gpio_set_function>
    9e5c:	e8bd8010 	pop	{r4, pc}

00009e60 <gpio_write>:
    9e60:	e92d4010 	push	{r4, lr}
    9e64:	e3510000 	cmp	r1, #0
    9e68:	1a000001 	bne	9e74 <gpio_write+0x14>
    9e6c:	ebffffee 	bl	9e2c <gpio_set_off>
    9e70:	e8bd8010 	pop	{r4, pc}
    9e74:	ebffffe3 	bl	9e08 <gpio_set_on>
    9e78:	e8bd8010 	pop	{r4, pc}

00009e7c <gpio_read>:
    9e7c:	e350001f 	cmp	r0, #31
    9e80:	8a000007 	bhi	9ea4 <gpio_read+0x28>
    9e84:	e92d4010 	push	{r4, lr}
    9e88:	e200401f 	and	r4, r0, #31
    9e8c:	e59f3018 	ldr	r3, [pc, #24]	; 9eac <gpio_read+0x30>
    9e90:	e08302a0 	add	r0, r3, r0, lsr #5
    9e94:	ebffff3d 	bl	9b90 <GET32>
    9e98:	e1a00430 	lsr	r0, r0, r4
    9e9c:	e2000001 	and	r0, r0, #1
    9ea0:	e8bd8010 	pop	{r4, pc}
    9ea4:	e3e00000 	mvn	r0, #0
    9ea8:	e12fff1e 	bx	lr
    9eac:	20200034 	eorcs	r0, r0, r4, lsr r0

00009eb0 <dev_barrier>:
    9eb0:	ea000002 	b	9ec0 <dsb>

00009eb4 <dmb>:
    9eb4:	e3a00000 	mov	r0, #0
    9eb8:	ee070fba 	mcr	15, 0, r0, cr7, cr10, {5}
    9ebc:	e12fff1e 	bx	lr

00009ec0 <dsb>:
    9ec0:	ee070f9a 	mcr	15, 0, r0, cr7, cr10, {4}
    9ec4:	e12fff1e 	bx	lr

Disassembly of section .data:

00009ec8 <putk>:
    9ec8:	00009298 	muleq	r0, r8, r2

00009ecc <rpi_putchar>:
    9ecc:	00009ba4 	andeq	r9, r0, r4, lsr #23

Disassembly of section .rodata:

00009ed0 <init_jk-0x60>:
    9ed0:	54442d18 	strbpl	r2, [r4], #-3352	; 0xd18
    9ed4:	400921fb 	strdmi	r2, [r9], -fp
	...
    9ee0:	54442d18 	strbpl	r2, [r4], #-3352	; 0xd18
    9ee4:	3ff921fb 	svccc	0x00f921fb
    9ee8:	7f3321d2 	svcvc	0x003321d2
    9eec:	4012d97c 	andsmi	sp, r2, ip, ror r9
    9ef0:	6c6c6568 	cfstr64vs	mvdx6, [ip], #-416	; 0xfffffe60
    9ef4:	7266206f 	rsbvc	r2, r6, #111	; 0x6f
    9ef8:	70206d6f 	eorvc	r6, r0, pc, ror #26
    9efc:	66253d69 	strtvs	r3, [r5], -r9, ror #26
    9f00:	6f6c6620 	svcvs	0x006c6620
    9f04:	21217461 	teqcs	r1, r1, ror #8
    9f08:	0000000a 	andeq	r0, r0, sl
    9f0c:	28534f43 	ldmdacs	r3, {r0, r1, r6, r8, r9, sl, fp, lr}^
    9f10:	20296625 	eorcs	r6, r9, r5, lsr #12
    9f14:	6625203d 			; <UNDEFINED> instruction: 0x6625203d
    9f18:	0000000a 	andeq	r0, r0, sl
    9f1c:	286e6973 	stmdacs	lr!, {r0, r1, r4, r5, r6, r8, fp, sp, lr}^
    9f20:	20296625 	eorcs	r6, r9, r5, lsr #12
    9f24:	6625203d 			; <UNDEFINED> instruction: 0x6625203d
    9f28:	0000000a 	andeq	r0, r0, sl
    9f2c:	00000000 	andeq	r0, r0, r0

00009f30 <init_jk>:
    9f30:	00000003 	andeq	r0, r0, r3
    9f34:	00000004 	andeq	r0, r0, r4
    9f38:	00000004 	andeq	r0, r0, r4
    9f3c:	00000006 	andeq	r0, r0, r6

00009f40 <ipio2>:
    9f40:	00a2f983 	adceq	pc, r2, r3, lsl #19
    9f44:	006e4e44 	rsbeq	r4, lr, r4, asr #28
    9f48:	001529fc 			; <UNDEFINED> instruction: 0x001529fc
    9f4c:	002757d1 	ldrdeq	r5, [r7], -r1	; <UNPREDICTABLE>
    9f50:	00f534dd 	ldrsbteq	r3, [r5], #77	; 0x4d
    9f54:	00c0db62 	sbceq	sp, r0, r2, ror #22
    9f58:	0095993c 	addseq	r9, r5, ip, lsr r9
    9f5c:	00439041 	subeq	r9, r3, r1, asr #32
    9f60:	00fe5163 	rscseq	r5, lr, r3, ror #2
    9f64:	00abdebb 	strhteq	sp, [fp], fp
    9f68:	00c561b7 	strheq	r6, [r5], #23
    9f6c:	00246e3a 	eoreq	r6, r4, sl, lsr lr
    9f70:	00424dd2 	ldrdeq	r4, [r2], #-210	; 0xffffff2e
    9f74:	00e00649 	rsceq	r0, r0, r9, asr #12
    9f78:	002eea09 	eoreq	lr, lr, r9, lsl #20
    9f7c:	00d1921c 	sbcseq	r9, r1, ip, lsl r2
    9f80:	00fe1deb 	rscseq	r1, lr, fp, ror #27
    9f84:	001cb129 	andseq	fp, ip, r9, lsr #2
    9f88:	00a73ee8 	adceq	r3, r7, r8, ror #29
    9f8c:	008235f5 	strdeq	r3, [r2], r5
    9f90:	002ebb44 	eoreq	fp, lr, r4, asr #22
    9f94:	0084e99c 	umulleq	lr, r4, ip, r9
    9f98:	007026b4 	ldrhteq	r2, [r0], #-100	; 0xffffff9c
    9f9c:	005f7e41 	subseq	r7, pc, r1, asr #28
    9fa0:	003991d6 	ldrsbteq	r9, [r9], -r6
    9fa4:	00398353 	eorseq	r8, r9, r3, asr r3
    9fa8:	0039f49c 	mlaseq	r9, ip, r4, pc	; <UNPREDICTABLE>
    9fac:	00845f8b 	addeq	r5, r4, fp, lsl #31
    9fb0:	00bdf928 	adcseq	pc, sp, r8, lsr #18
    9fb4:	003b1ff8 	ldrshteq	r1, [fp], -r8
    9fb8:	0097ffde 			; <UNDEFINED> instruction: 0x0097ffde
    9fbc:	0005980f 	andeq	r9, r5, pc, lsl #16
    9fc0:	00ef2f11 	rsceq	r2, pc, r1, lsl pc	; <UNPREDICTABLE>
    9fc4:	008b5a0a 	addeq	r5, fp, sl, lsl #20
    9fc8:	006d1f6d 	rsbeq	r1, sp, sp, ror #30
    9fcc:	00367ecf 	eorseq	r7, r6, pc, asr #29
    9fd0:	0027cb09 	eoreq	ip, r7, r9, lsl #22
    9fd4:	00b74f46 	adcseq	r4, r7, r6, asr #30
    9fd8:	003f669e 	mlaseq	pc, lr, r6, r6	; <UNPREDICTABLE>
    9fdc:	005fea2d 	subseq	lr, pc, sp, lsr #20
    9fe0:	007527ba 	ldrhteq	r2, [r5], #-122	; 0xffffff86
    9fe4:	00c7ebe5 	sbceq	lr, r7, r5, ror #23
    9fe8:	00f17b3d 	rscseq	r7, r1, sp, lsr fp
    9fec:	000739f7 	strdeq	r3, [r7], -r7
    9ff0:	008a5292 	umulleq	r5, sl, r2, r2
    9ff4:	00ea6bfb 	strdeq	r6, [sl], #187	; 0xbb	; <UNPREDICTABLE>
    9ff8:	005fb11f 	subseq	fp, pc, pc, lsl r1	; <UNPREDICTABLE>
    9ffc:	008d5d08 	addeq	r5, sp, r8, lsl #26
    a000:	00560330 	subseq	r0, r6, r0, lsr r3
    a004:	0046fc7b 	subeq	pc, r6, fp, ror ip	; <UNPREDICTABLE>
    a008:	006babf0 	strdeq	sl, [fp], #-176	; 0xffffff50	; <UNPREDICTABLE>
    a00c:	00cfbc20 	sbceq	fp, pc, r0, lsr #24
    a010:	009af436 	addseq	pc, sl, r6, lsr r4	; <UNPREDICTABLE>
    a014:	001da9e3 	andseq	sl, sp, r3, ror #19
    a018:	0091615e 	addseq	r6, r1, lr, asr r1
    a01c:	00e61b08 	rsceq	r1, r6, r8, lsl #22
    a020:	00659985 	rsbeq	r9, r5, r5, lsl #19
    a024:	005f14a0 	subseq	r1, pc, r0, lsr #9
    a028:	0068408d 	rsbeq	r4, r8, sp, lsl #1
    a02c:	00ffd880 	rscseq	sp, pc, r0, lsl #17
    a030:	004d7327 	subeq	r7, sp, r7, lsr #6
    a034:	00310606 	eorseq	r0, r1, r6, lsl #12
    a038:	001556ca 	andseq	r5, r5, sl, asr #13
    a03c:	0073a8c9 	rsbseq	sl, r3, r9, asr #17
    a040:	0060e27b 	rsbeq	lr, r0, fp, ror r2
    a044:	00c08c6b 	sbceq	r8, r0, fp, ror #24

0000a048 <PIo2>:
    a048:	40000000 	andmi	r0, r0, r0
    a04c:	3ff921fb 	svccc	0x00f921fb
    a050:	00000000 	andeq	r0, r0, r0
    a054:	3e74442d 	cdpcc	4, 7, cr4, cr4, cr13, {1}
    a058:	80000000 	andhi	r0, r0, r0
    a05c:	3cf84698 	ldclcc	6, cr4, [r8], #608	; 0x260
    a060:	60000000 	andvs	r0, r0, r0
    a064:	3b78cc51 	blcc	1e3d1b0 <__bss_end__+0x1e32c00>
    a068:	80000000 	andhi	r0, r0, r0
    a06c:	39f01b83 	ldmibcc	r0!, {r0, r1, r7, r8, r9, fp, ip}^
    a070:	40000000 	andmi	r0, r0, r0
    a074:	387a2520 	ldmdacc	sl!, {r5, r8, sl, sp}^
    a078:	80000000 	andhi	r0, r0, r0
    a07c:	36e38222 	strbtcc	r8, [r3], r2, lsr #4
    a080:	00000000 	andeq	r0, r0, r0
    a084:	3569f31d 	strbcc	pc, [r9, #-797]!	; 0x31d	; <UNPREDICTABLE>

0000a088 <__FUNCTION__.4237>:
    a088:	74696d65 	strbtvc	r6, [r9], #-3429	; 0xd65
    a08c:	00000000 	andeq	r0, r0, r0

0000a090 <__FUNCTION__.4185>:
    a090:	5f697072 	svcpl	0x00697072
    a094:	5f746573 	svcpl	0x00746573
    a098:	7074756f 	rsbsvc	r7, r4, pc, ror #10
    a09c:	00007475 	andeq	r7, r0, r5, ror r4

0000a0a0 <__FUNCTION__.4259>:
    a0a0:	705f6176 	subsvc	r6, pc, r6, ror r1	; <UNPREDICTABLE>
    a0a4:	746e6972 	strbtvc	r6, [lr], #-2418	; 0x972
    a0a8:	0000006b 	andeq	r0, r0, fp, rrx
    a0ac:	494e4150 	stmdbmi	lr, {r4, r6, r8, lr}^
    a0b0:	73253a43 	teqvc	r5, #274432	; 0x43000
    a0b4:	3a73253a 	bcc	1cd35a4 <__bss_end__+0x1cc8ff4>
    a0b8:	303a6425 	eorscc	r6, sl, r5, lsr #8
    a0bc:	0000000a 	andeq	r0, r0, sl
    a0c0:	6362696c 	cmnvs	r2, #108, 18	; 0x1b0000
    a0c4:	2d61762f 	stclcs	6, cr7, [r1, #-188]!	; 0xffffff44
    a0c8:	6e697270 	mcrvs	2, 3, r7, cr9, cr0, {3}
    a0cc:	632e6b74 	teqvs	lr, #116, 22	; 0x1d000
    a0d0:	00000000 	andeq	r0, r0, r0
    a0d4:	33323130 	teqcc	r2, #48, 2
    a0d8:	37363534 			; <UNDEFINED> instruction: 0x37363534
    a0dc:	00003938 	andeq	r3, r0, r8, lsr r9
    a0e0:	33323130 	teqcc	r2, #48, 2
    a0e4:	37363534 			; <UNDEFINED> instruction: 0x37363534
    a0e8:	62613938 	rsbvs	r3, r1, #56, 18	; 0xe0000
    a0ec:	66656463 	strbtvs	r6, [r5], -r3, ror #8
    a0f0:	00000000 	andeq	r0, r0, r0
    a0f4:	00003130 	andeq	r3, r0, r0, lsr r1
    a0f8:	494e4150 	stmdbmi	lr, {r4, r6, r8, lr}^
    a0fc:	73253a43 	teqvc	r5, #274432	; 0x43000
    a100:	3a73253a 	bcc	1cd35f0 <__bss_end__+0x1cc9040>
    a104:	703a6425 	eorsvc	r6, sl, r5, lsr #8
    a108:	5f637475 	svcpl	0x00637475
    a10c:	000a7066 	andeq	r7, sl, r6, rrx
    a110:	0000002e 	andeq	r0, r0, lr, lsr #32
    a114:	494e4150 	stmdbmi	lr, {r4, r6, r8, lr}^
    a118:	73253a43 	teqvc	r5, #274432	; 0x43000
    a11c:	3a73253a 	bcc	1cd360c <__bss_end__+0x1cc905c>
    a120:	773a6425 	ldrvc	r6, [sl, -r5, lsr #8]!
    a124:	68746469 	ldmdavs	r4!, {r0, r3, r5, r6, sl, sp, lr}^
    a128:	33203c20 	teqcc	r0, #32, 24	; 0x2000
    a12c:	00000a32 	andeq	r0, r0, r2, lsr sl
    a130:	494e4150 	stmdbmi	lr, {r4, r6, r8, lr}^
    a134:	73253a43 	teqvc	r5, #274432	; 0x43000
    a138:	3a73253a 	bcc	1cd3628 <__bss_end__+0x1cc9078>
    a13c:	703a6425 	eorsvc	r6, sl, r5, lsr #8
    a140:	746e6972 	strbtvc	r6, [lr], #-2418	; 0x972
    a144:	6e203a6b 	vnmulvs.f32	s6, s0, s23
    a148:	6820746f 	stmdavs	r0!, {r0, r1, r2, r3, r5, r6, sl, ip, sp, lr}
    a14c:	6c646e61 	stclvs	14, cr6, [r4], #-388	; 0xfffffe7c
    a150:	20676e69 	rsbcs	r6, r7, r9, ror #28
    a154:	63657073 	cmnvs	r5, #115	; 0x73
    a158:	65696669 	strbvs	r6, [r9, #-1641]!	; 0x669
    a15c:	25272072 	strcs	r2, [r7, #-114]!	; 0x72
    a160:	0a0a2763 	beq	293ef4 <__bss_end__+0x289944>
    a164:	00000000 	andeq	r0, r0, r0
    a168:	454e4f44 	strbmi	r4, [lr, #-3908]	; 0xf44
    a16c:	0a212121 	beq	8525f8 <__bss_end__+0x848048>
    a170:	00000000 	andeq	r0, r0, r0

0000a174 <__FUNCTION__.4287>:
    a174:	7473635f 	ldrbtvc	r6, [r3], #-863	; 0x35f
    a178:	00747261 	rsbseq	r7, r4, r1, ror #4
    a17c:	494e4150 	stmdbmi	lr, {r4, r6, r8, lr}^
    a180:	73253a43 	teqvc	r5, #274432	; 0x43000
    a184:	3a73253a 	bcc	1cd3674 <__bss_end__+0x1cc90c4>
    a188:	663a6425 	ldrtvs	r6, [sl], -r5, lsr #8
    a18c:	73695f70 	cmnvc	r9, #112, 30	; 0x1c0
    a190:	616e655f 	cmnvs	lr, pc, asr r5
    a194:	64656c62 	strbtvs	r6, [r5], #-3170	; 0xc62
    a198:	0000000a 	andeq	r0, r0, sl
    a19c:	66617473 			; <UNDEFINED> instruction: 0x66617473
    a1a0:	72732d66 	rsbsvc	r2, r3, #6528	; 0x1980
    a1a4:	73632f63 	cmnvc	r3, #396	; 0x18c
    a1a8:	74726174 	ldrbtvc	r6, [r2], #-372	; 0x174
    a1ac:	0000632e 	andeq	r6, r0, lr, lsr #6

Disassembly of section .bss:

0000a1b0 <__bss_start__>:
	...

Disassembly of section .ARM.attributes:

00000000 <.ARM.attributes>:
   0:	00003041 	andeq	r3, r0, r1, asr #32
   4:	61656100 	cmnvs	r5, r0, lsl #2
   8:	01006962 	tsteq	r0, r2, ror #18
   c:	00000026 	andeq	r0, r0, r6, lsr #32
  10:	4b5a3605 	blmi	168d82c <__bss_end__+0x168327c>
  14:	08070600 	stmdaeq	r7, {r9, sl}
  18:	0a010901 	beq	42424 <__bss_end__+0x37e74>
  1c:	14041202 	strne	r1, [r4], #-514	; 0x202
  20:	17011501 	strne	r1, [r1, -r1, lsl #10]
  24:	1a011803 	bne	46038 <__bss_end__+0x3ba88>
  28:	1c031b01 	stcne	11, cr1, [r3], {1}
  2c:	44012201 	strmi	r2, [r1], #-513	; 0x201
  30:	Address 0x0000000000000030 is out of bounds.


Disassembly of section .comment:

00000000 <.comment>:
   0:	3a434347 	bcc	10d0d24 <__bss_end__+0x10c6774>
   4:	4e472820 	cdpmi	8, 4, cr2, cr7, cr0, {1}
   8:	34202955 	strtcc	r2, [r0], #-2389	; 0x955
   c:	332e382e 	teqcc	lr, #3014656	; 0x2e0000
  10:	43434700 	movtmi	r4, #14080	; 0x3700
  14:	3128203a 	teqcc	r8, sl, lsr r0
  18:	2e363a35 	mrccs	10, 1, r3, cr6, cr5, {1}
  1c:	2b312e33 	blcs	c4b8f0 <__bss_end__+0xc41340>
  20:	326e7673 	rsbcc	r7, lr, #120586240	; 0x7300000
  24:	33303335 	teqcc	r0, #-738197504	; 0xd4000000
  28:	62312d39 	eorsvs	r2, r1, #3648	; 0xe40
  2c:	646c6975 	strbtvs	r6, [ip], #-2421	; 0x975
  30:	36202931 			; <UNDEFINED> instruction: 0x36202931
  34:	312e332e 	teqcc	lr, lr, lsr #6
  38:	31303220 	teqcc	r0, r0, lsr #4
  3c:	32363037 	eorscc	r3, r6, #55	; 0x37
  40:	Address 0x0000000000000040 is out of bounds.


Disassembly of section .debug_info:

00000000 <.debug_info>:
       0:	000001a0 	andeq	r0, r0, r0, lsr #3
       4:	00000004 	andeq	r0, r0, r4
       8:	01040000 	mrseq	r0, (UNDEF: 4)
       c:	00000040 	andeq	r0, r0, r0, asr #32
      10:	00000e01 	andeq	r0, r0, r1, lsl #28
      14:	0000e300 	andeq	lr, r0, r0, lsl #6
      18:	00801000 	addeq	r1, r0, r0
      1c:	0000b000 	andeq	fp, r0, r0
      20:	00000000 	andeq	r0, r0, r0
      24:	04080200 	streq	r0, [r8], #-512	; 0x200
      28:	000000dc 	ldrdeq	r0, [r0], -ip
      2c:	69050403 	stmdbvs	r5, {r0, r1, sl}
      30:	0200746e 	andeq	r7, r0, #1845493760	; 0x6e000000
      34:	00250704 	eoreq	r0, r5, r4, lsl #14
      38:	01020000 	mrseq	r0, (UNDEF: 2)
      3c:	00003406 	andeq	r3, r0, r6, lsl #8
      40:	05020200 	streq	r0, [r2, #-512]	; 0x200
      44:	000000b2 	strheq	r0, [r0], -r2
      48:	05050402 	streq	r0, [r5, #-1026]	; 0x402
      4c:	02000000 	andeq	r0, r0, #0
      50:	00000508 	andeq	r0, r0, r8, lsl #10
      54:	01020000 	mrseq	r0, (UNDEF: 2)
      58:	00003208 	andeq	r3, r0, r8, lsl #4
      5c:	07020200 	streq	r0, [r2, -r0, lsl #4]
      60:	000000c4 	andeq	r0, r0, r4, asr #1
      64:	20070402 	andcs	r0, r7, r2, lsl #8
      68:	02000000 	andeq	r0, r0, #0
      6c:	001b0708 	andseq	r0, fp, r8, lsl #14
      70:	04020000 	streq	r0, [r2], #-0
      74:	00014807 	andeq	r4, r1, r7, lsl #16
      78:	08010200 	stmdaeq	r1, {r9}
      7c:	0000003b 	andeq	r0, r0, fp, lsr r0
      80:	00860404 	addeq	r0, r6, r4, lsl #8
      84:	79050000 	stmdbvc	r5, {}	; <UNPREDICTABLE>
      88:	02000000 	andeq	r0, r0, #0
      8c:	01420404 	cmpeq	r2, r4, lsl #8
      90:	08020000 	stmdaeq	r2, {}	; <UNPREDICTABLE>
      94:	0000d704 	andeq	sp, r0, r4, lsl #14
      98:	00bc0600 	adcseq	r0, ip, r0, lsl #12
      9c:	06010000 	streq	r0, [r1], -r0
      a0:	00008010 	andeq	r8, r0, r0, lsl r0
      a4:	000000b0 	strheq	r0, [r0], -r0	; <UNPREDICTABLE>
      a8:	01579c01 	cmpeq	r7, r1, lsl #24
      ac:	78070000 	stmdavc	r7, {}	; <UNPREDICTABLE>
      b0:	25070100 	strcs	r0, [r7, #-256]	; 0x100
      b4:	08000000 	stmdaeq	r0, {}	; <UNPREDICTABLE>
      b8:	c083126f 	addgt	r1, r3, pc, ror #4
      bc:	400921ca 	andmi	r2, r9, sl, asr #3
      c0:	01007608 	tsteq	r0, r8, lsl #12
      c4:	0001570a 	andeq	r5, r1, sl, lsl #14
      c8:	48910200 	ldmmi	r1, {r9}
      cc:	00804009 	addeq	r4, r0, r9
      d0:	00006000 	andeq	r6, r0, r0
      d4:	00014300 	andeq	r4, r1, r0, lsl #6
      d8:	00690a00 	rsbeq	r0, r9, r0, lsl #20
      dc:	002c0b01 	eoreq	r0, ip, r1, lsl #22
      e0:	00000000 	andeq	r0, r0, r0
      e4:	640b0000 	strvs	r0, [fp], #-0
      e8:	67000080 	strvs	r0, [r0, -r0, lsl #1]
      ec:	02000001 	andeq	r0, r0, #1
      f0:	0c000001 	stceq	0, cr0, [r0], {1}
      f4:	93409008 	movtls	r9, #8
      f8:	93419004 	movtls	r9, #4100	; 0x1004
      fc:	04f50304 	ldrbteq	r0, [r5], #772	; 0x304
     100:	780b0025 	stmdavc	fp, {r0, r2, r5}
     104:	7c000080 	stcvc	0, cr0, [r0], {128}	; 0x80
     108:	16000001 	strne	r0, [r0], -r1
     10c:	0c000001 	stceq	0, cr0, [r0], {1}
     110:	78025001 	stmdavc	r2, {r0, ip, lr}
     114:	800b0000 	andhi	r0, fp, r0
     118:	92000080 	andls	r0, r0, #128	; 0x80
     11c:	32000001 	andcc	r0, r0, #1
     120:	0c000001 	stceq	0, cr0, [r0], {1}
     124:	93409008 	movtls	r9, #8
     128:	93419004 	movtls	r9, #4100	; 0x1004
     12c:	04f50304 	ldrbteq	r0, [r5], #772	; 0x304
     130:	940d0025 	strls	r0, [sp], #-37	; 0x25
     134:	7c000080 	stcvc	0, cr0, [r0], {128}	; 0x80
     138:	0c000001 	stceq	0, cr0, [r0], {1}
     13c:	77025001 	strvc	r5, [r2, -r1]
     140:	0d000000 	stceq	0, cr0, [r0, #-0]
     144:	00008028 	andeq	r8, r0, r8, lsr #32
     148:	0000017c 	andeq	r0, r0, ip, ror r1
     14c:	0550010c 	ldrbeq	r0, [r0, #-268]	; 0x10c
     150:	009ef003 	addseq	pc, lr, r3
     154:	0e000000 	cdpeq	0, 0, cr0, cr0, cr0, {0}
     158:	00000025 	andeq	r0, r0, r5, lsr #32
     15c:	00000167 	andeq	r0, r0, r7, ror #2
     160:	0000720f 	andeq	r7, r0, pc, lsl #4
     164:	10000300 	andne	r0, r0, r0, lsl #6
     168:	00736f63 	rsbseq	r6, r3, r3, ror #30
     16c:	00257002 	eoreq	r7, r5, r2
     170:	017c0000 	cmneq	ip, r0
     174:	25110000 	ldrcs	r0, [r1, #-0]
     178:	00000000 	andeq	r0, r0, r0
     17c:	00035c12 	andeq	r5, r3, r2, lsl ip
     180:	2c290300 	stccs	3, cr0, [r9], #-0
     184:	92000000 	andls	r0, r0, #0
     188:	11000001 	tstne	r0, r1
     18c:	00000080 	andeq	r0, r0, r0, lsl #1
     190:	73140013 	tstvc	r4, #19
     194:	02006e69 	andeq	r6, r0, #1680	; 0x690
     198:	00002571 	andeq	r2, r0, r1, ror r5
     19c:	00251100 	eoreq	r1, r5, r0, lsl #2
     1a0:	00000000 	andeq	r0, r0, r0
     1a4:	00000275 	andeq	r0, r0, r5, ror r2
     1a8:	010b0004 	tsteq	fp, r4
     1ac:	01040000 	mrseq	r0, (UNDEF: 4)
     1b0:	00000040 	andeq	r0, r0, r0, asr #32
     1b4:	0001ff01 	andeq	pc, r1, r1, lsl #30
     1b8:	00015e00 	andeq	r5, r1, r0, lsl #28
     1bc:	0080c000 	addeq	ip, r0, r0
     1c0:	0000f400 	andeq	pc, r0, r0, lsl #8
     1c4:	0000fc00 	andeq	pc, r0, r0, lsl #24
     1c8:	04080200 	streq	r0, [r8], #-512	; 0x200
     1cc:	000000dc 	ldrdeq	r0, [r0], -ip
     1d0:	48070402 	stmdami	r7, {r1, sl}
     1d4:	02000001 	andeq	r0, r0, #1
     1d8:	00320801 	eorseq	r0, r2, r1, lsl #16
     1dc:	04020000 	streq	r0, [r2], #-0
     1e0:	00014204 	andeq	r4, r1, r4, lsl #4
     1e4:	06010200 	streq	r0, [r1], -r0, lsl #4
     1e8:	00000034 	andeq	r0, r0, r4, lsr r0
     1ec:	b2050202 	andlt	r0, r5, #536870912	; 0x20000000
     1f0:	03000000 	movweq	r0, #0
     1f4:	000001e4 	andeq	r0, r0, r4, ror #3
     1f8:	005a2802 	subseq	r2, sl, r2, lsl #16
     1fc:	04020000 	streq	r0, [r2], #-0
     200:	00000505 	andeq	r0, r0, r5, lsl #10
     204:	05080200 	streq	r0, [r8, #-512]	; 0x200
     208:	00000000 	andeq	r0, r0, r0
     20c:	c4070202 	strgt	r0, [r7], #-514	; 0x202
     210:	03000000 	movweq	r0, #0
     214:	000001ec 	andeq	r0, r0, ip, ror #3
     218:	007a3402 	rsbseq	r3, sl, r2, lsl #8
     21c:	04020000 	streq	r0, [r2], #-0
     220:	00002007 	andeq	r2, r0, r7
     224:	01c00300 	biceq	r0, r0, r0, lsl #6
     228:	37020000 	strcc	r0, [r2, -r0]
     22c:	0000008c 	andeq	r0, r0, ip, lsl #1
     230:	1b070802 	blne	1c2240 <__bss_end__+0x1b7c90>
     234:	04000000 	streq	r0, [r0], #-0
     238:	6e690504 	cdpvs	5, 6, cr0, cr9, cr4, {0}
     23c:	04020074 	streq	r0, [r2], #-116	; 0x74
     240:	00002507 	andeq	r2, r0, r7, lsl #10
     244:	01e20300 	mvneq	r0, r0, lsl #6
     248:	09030000 	stmdbeq	r3, {}	; <UNPREDICTABLE>
     24c:	0000006f 	andeq	r0, r0, pc, rrx
     250:	0001f503 	andeq	pc, r1, r3, lsl #10
     254:	810a0300 	mrshi	r0, (UNDEF: 58)
     258:	02000000 	andeq	r0, r0, #0
     25c:	00d70408 	sbcseq	r0, r7, r8, lsl #8
     260:	08050000 	stmdaeq	r5, {}	; <UNPREDICTABLE>
     264:	00df4404 	sbcseq	r4, pc, r4, lsl #8
     268:	6c060000 	stcvs	0, cr0, [r6], {-0}
     26c:	04007773 	streq	r7, [r0], #-1907	; 0x773
     270:	0000a146 	andeq	sl, r0, r6, asr #2
     274:	6d060000 	stcvs	0, cr0, [r6, #-0]
     278:	04007773 	streq	r7, [r0], #-1907	; 0x773
     27c:	0000a147 	andeq	sl, r0, r7, asr #2
     280:	05000400 	streq	r0, [r0, #-1024]	; 0x400
     284:	f2490408 	vshl.s8	d16, d8, d9
     288:	06000000 	streq	r0, [r0], -r0
     28c:	4b040077 	blmi	100470 <__bss_end__+0xf5ec0>
     290:	000000ac 	andeq	r0, r0, ip, lsr #1
     294:	08070000 	stmdaeq	r7, {}	; <UNPREDICTABLE>
     298:	011c4104 	tsteq	ip, r4, lsl #2
     29c:	22080000 	andcs	r0, r8, #0
     2a0:	0400000a 	streq	r0, [r0], #-10
     2a4:	00002543 	andeq	r2, r0, r3, asr #10
     2a8:	01dc0800 	bicseq	r0, ip, r0, lsl #16
     2ac:	48040000 	stmdami	r4, {}	; <UNPREDICTABLE>
     2b0:	000000be 	strheq	r0, [r0], -lr
     2b4:	0001db08 	andeq	sp, r1, r8, lsl #22
     2b8:	df4c0400 	svcle	0x004c0400
     2bc:	00000000 	andeq	r0, r0, r0
     2c0:	0001a903 	andeq	sl, r1, r3, lsl #18
     2c4:	f24d0400 	vshl.s8	d16, d0, d13
     2c8:	09000000 	stmdbeq	r0, {}	; <UNPREDICTABLE>
     2cc:	00736f63 	rsbseq	r6, r3, r3, ror #30
     2d0:	00253701 	eoreq	r3, r5, r1, lsl #14
     2d4:	80c00000 	sbchi	r0, r0, r0
     2d8:	00f40000 	rscseq	r0, r4, r0
     2dc:	9c010000 	stcls	0, cr0, [r1], {-0}
     2e0:	00000210 	andeq	r0, r0, r0, lsl r2
     2e4:	0100780a 	tsteq	r0, sl, lsl #16
     2e8:	00002537 	andeq	r2, r0, r7, lsr r5
     2ec:	00001f00 	andeq	r1, r0, r0, lsl #30
     2f0:	00790b00 	rsbseq	r0, r9, r0, lsl #22
     2f4:	02103901 	andseq	r3, r0, #16384	; 0x4000
     2f8:	91020000 	mrsls	r0, (UNDEF: 2)
     2fc:	007a0c68 	rsbseq	r0, sl, r8, ror #24
     300:	00253901 	eoreq	r3, r5, r1, lsl #18
     304:	00080000 	andeq	r0, r8, r0
     308:	00000000 	andeq	r0, r0, r0
     30c:	0d000000 	stceq	0, cr0, [r0, #-0]
     310:	3a01006e 	bcc	404d0 <__bss_end__+0x35f20>
     314:	0000004f 	andeq	r0, r0, pc, asr #32
     318:	000000af 	andeq	r0, r0, pc, lsr #1
     31c:	0078690d 	rsbseq	r6, r8, sp, lsl #18
     320:	004f3a01 	subeq	r3, pc, r1, lsl #20
     324:	00c20000 	sbceq	r0, r2, r0
     328:	c80e0000 	stmdagt	lr, {}	; <UNPREDICTABLE>
     32c:	04000080 	streq	r0, [r0], #-128	; 0x80
     330:	a3000000 	movwge	r0, #0
     334:	0f000001 	svceq	0x00000001
     338:	000001d6 	ldrdeq	r0, [r0], -r6
     33c:	011c3d01 	tsteq	ip, r1, lsl #26
     340:	00e00000 	rsceq	r0, r0, r0
     344:	10000000 	andne	r0, r0, r0
     348:	00008100 	andeq	r8, r0, r0, lsl #2
     34c:	00000220 	andeq	r0, r0, r0, lsr #4
     350:	000001c7 	andeq	r0, r0, r7, asr #3
     354:	42900811 	addsmi	r0, r0, #1114112	; 0x110000
     358:	43900493 	orrsmi	r0, r0, #-1828716544	; 0x93000000
     35c:	f40b0493 	vst3.32	{d0-d2}, [fp :64], r3
     360:	00000825 	andeq	r0, r0, r5, lsr #16
     364:	00000000 	andeq	r0, r0, r0
     368:	10000000 	andne	r0, r0, r0
     36c:	0000811c 	andeq	r8, r0, ip, lsl r1
     370:	0000023b 	andeq	r0, r0, fp, lsr r2
     374:	000001db 	ldrdeq	r0, [r0], -fp
     378:	02500111 	subseq	r0, r0, #1073741828	; 0x40000004
     37c:	1200007d 	andne	r0, r0, #125	; 0x7d
     380:	00008144 	andeq	r8, r0, r4, asr #2
     384:	00000220 	andeq	r0, r0, r0, lsr #4
     388:	00815810 	addeq	r5, r1, r0, lsl r8
     38c:	00025c00 	andeq	r5, r2, r0, lsl #24
     390:	0001f700 	andeq	pc, r1, r0, lsl #14
     394:	50011100 	andpl	r1, r1, r0, lsl #2
     398:	12003101 	andne	r3, r0, #1073741824	; 0x40000000
     39c:	0000816c 	andeq	r8, r0, ip, ror #2
     3a0:	00000220 	andeq	r0, r0, r0, lsr #4
     3a4:	00818413 	addeq	r8, r1, r3, lsl r4
     3a8:	00025c00 	andeq	r5, r2, r0, lsl #24
     3ac:	50011100 	andpl	r1, r1, r0, lsl #2
     3b0:	00003101 	andeq	r3, r0, r1, lsl #2
     3b4:	00002514 	andeq	r2, r0, r4, lsl r5
     3b8:	00022000 	andeq	r2, r2, r0
     3bc:	002c1500 	eoreq	r1, ip, r0, lsl #10
     3c0:	00010000 	andeq	r0, r1, r0
     3c4:	0001c916 	andeq	ip, r1, r6, lsl r9
     3c8:	01470400 	cmpeq	r7, r0, lsl #8
     3cc:	00000025 	andeq	r0, r0, r5, lsr #32
     3d0:	0000023b 	andeq	r0, r0, fp, lsr r2
     3d4:	00002517 	andeq	r2, r0, r7, lsl r5
     3d8:	00251700 	eoreq	r1, r5, r0, lsl #14
     3dc:	16000000 	strne	r0, [r0], -r0
     3e0:	00000207 	andeq	r0, r0, r7, lsl #4
     3e4:	93014504 	movwls	r4, #5380	; 0x1504
     3e8:	56000000 	strpl	r0, [r0], -r0
     3ec:	17000002 	strne	r0, [r0, -r2]
     3f0:	00000025 	andeq	r0, r0, r5, lsr #32
     3f4:	00025617 	andeq	r5, r2, r7, lsl r6
     3f8:	04180000 	ldreq	r0, [r8], #-0
     3fc:	00000025 	andeq	r0, r0, r5, lsr #32
     400:	00015119 	andeq	r5, r1, r9, lsl r1
     404:	01460400 	cmpeq	r6, r0, lsl #8
     408:	00000025 	andeq	r0, r0, r5, lsr #32
     40c:	00002517 	andeq	r2, r0, r7, lsl r5
     410:	00251700 	eoreq	r1, r5, r0, lsl #14
     414:	93170000 	tstls	r7, #0
     418:	00000000 	andeq	r0, r0, r0
     41c:	00018200 	andeq	r8, r1, r0, lsl #4
     420:	63000400 	movwvs	r0, #1024	; 0x400
     424:	04000002 	streq	r0, [r0], #-2
     428:	00004001 	andeq	r4, r0, r1
     42c:	021a0100 	andseq	r0, sl, #0, 2
     430:	015e0000 	cmpeq	lr, r0
     434:	81b80000 			; <UNDEFINED> instruction: 0x81b80000
     438:	00b00000 	adcseq	r0, r0, r0
     43c:	01d20000 	bicseq	r0, r2, r0
     440:	08020000 	stmdaeq	r2, {}	; <UNPREDICTABLE>
     444:	0000dc04 	andeq	sp, r0, r4, lsl #24
     448:	07040200 	streq	r0, [r4, -r0, lsl #4]
     44c:	00000148 	andeq	r0, r0, r8, asr #2
     450:	32080102 	andcc	r0, r8, #-2147483648	; 0x80000000
     454:	02000000 	andeq	r0, r0, #0
     458:	01420404 	cmpeq	r2, r4, lsl #8
     45c:	01020000 	mrseq	r0, (UNDEF: 2)
     460:	00003406 	andeq	r3, r0, r6, lsl #8
     464:	05020200 	streq	r0, [r2, #-512]	; 0x200
     468:	000000b2 	strheq	r0, [r0], -r2
     46c:	05050402 	streq	r0, [r5, #-1026]	; 0x402
     470:	02000000 	andeq	r0, r0, #0
     474:	00000508 	andeq	r0, r0, r8, lsl #10
     478:	02020000 	andeq	r0, r2, #0
     47c:	0000c407 	andeq	ip, r0, r7, lsl #8
     480:	07040200 	streq	r0, [r4, -r0, lsl #4]
     484:	00000020 	andeq	r0, r0, r0, lsr #32
     488:	1b070802 	blne	1c2498 <__bss_end__+0x1b7ee8>
     48c:	03000000 	movweq	r0, #0
     490:	6e690504 	cdpvs	5, 6, cr0, cr9, cr4, {0}
     494:	04020074 	streq	r0, [r2], #-116	; 0x74
     498:	00002507 	andeq	r2, r0, r7, lsl #10
     49c:	04080200 	streq	r0, [r8], #-512	; 0x200
     4a0:	000000d7 	ldrdeq	r0, [r0], -r7
     4a4:	0001c904 	andeq	ip, r1, r4, lsl #18
     4a8:	25460100 	strbcs	r0, [r6, #-256]	; 0x100
     4ac:	b8000000 	stmdalt	r0, {}	; <UNPREDICTABLE>
     4b0:	b0000081 	andlt	r0, r0, r1, lsl #1
     4b4:	01000000 	mrseq	r0, (UNDEF: 0)
     4b8:	0000fa9c 	muleq	r0, ip, sl
     4bc:	00780500 	rsbseq	r0, r8, r0, lsl #10
     4c0:	00254601 	eoreq	r4, r5, r1, lsl #12
     4c4:	00f80000 	rscseq	r0, r8, r0
     4c8:	79050000 	stmdbvc	r5, {}	; <UNPREDICTABLE>
     4cc:	25460100 	strbcs	r0, [r6, #-256]	; 0x100
     4d0:	22000000 	andcs	r0, r0, #0
     4d4:	06000001 	streq	r0, [r0], -r1
     4d8:	01007a68 	tsteq	r0, r8, ror #20
     4dc:	00002548 	andeq	r2, r0, r8, asr #10
     4e0:	00014c00 	andeq	r4, r1, r0, lsl #24
     4e4:	007a0700 	rsbseq	r0, sl, r0, lsl #14
     4e8:	00254801 	eoreq	r4, r5, r1, lsl #16
     4ec:	90080000 	andls	r0, r8, r0
     4f0:	9004934e 	andls	r9, r4, lr, asr #6
     4f4:	0704934f 	streq	r9, [r4, -pc, asr #6]
     4f8:	48010072 	stmdami	r1, {r1, r4, r5, r6}
     4fc:	00000025 	andeq	r0, r0, r5, lsr #32
     500:	93469008 	movtls	r9, #24584	; 0x6008
     504:	93479004 	movtls	r9, #28676	; 0x7004
     508:	00770604 	rsbseq	r0, r7, r4, lsl #12
     50c:	00254801 	eoreq	r4, r5, r1, lsl #16
     510:	01800000 	orreq	r0, r0, r0
     514:	08000000 	stmdaeq	r0, {}	; <UNPREDICTABLE>
     518:	00656e6f 	rsbeq	r6, r5, pc, ror #28
     51c:	010e3d01 	tsteq	lr, r1, lsl #26
     520:	00080000 	andeq	r0, r8, r0
     524:	00000000 	andeq	r0, r0, r0
     528:	093ff000 	ldmdbeq	pc!, {ip, sp, lr, pc}	; <UNPREDICTABLE>
     52c:	00000025 	andeq	r0, r0, r5, lsr #32
     530:	00314308 	eorseq	r4, r1, r8, lsl #6
     534:	010e3e01 	tsteq	lr, r1, lsl #28
     538:	4c080000 	stcmi	0, cr0, [r8], {-0}
     53c:	55555555 	ldrbpl	r5, [r5, #-1365]	; 0x555
     540:	083fa555 	ldmdaeq	pc!, {r0, r2, r4, r6, r8, sl, sp, pc}	; <UNPREDICTABLE>
     544:	01003243 	tsteq	r0, r3, asr #4
     548:	00010e3f 	andeq	r0, r1, pc, lsr lr
     54c:	51770800 	cmnpl	r7, r0, lsl #16
     550:	c16c16c1 	cmngt	ip, r1, asr #13
     554:	4308bf56 	movwmi	fp, #36694	; 0x8f56
     558:	40010033 	andmi	r0, r1, r3, lsr r0
     55c:	0000010e 	andeq	r0, r0, lr, lsl #2
     560:	cb159008 	blgt	564588 <__bss_end__+0x559fd8>
     564:	fa01a019 	blx	685d0 <__bss_end__+0x5e020>
     568:	3443083e 	strbcc	r0, [r3], #-2110	; 0x83e
     56c:	0e410100 	dvfeqs	f0, f1, f0
     570:	08000001 	stmdaeq	r0, {r0}
     574:	809c52ad 	addshi	r5, ip, sp, lsr #5
     578:	be927e4f 	cdplt	14, 9, cr7, cr2, cr15, {2}
     57c:	00354308 	eorseq	r4, r5, r8, lsl #6
     580:	010e4201 	tsteq	lr, r1, lsl #4
     584:	c4080000 	strgt	r0, [r8], #-0
     588:	9ebdb4b1 	mrcls	4, 5, fp, cr13, cr1, {5}
     58c:	083e21ee 	ldmdaeq	lr!, {r1, r2, r3, r5, r6, r7, r8, sp}
     590:	01003643 	tsteq	r0, r3, asr #12
     594:	00010e43 	andeq	r0, r1, r3, asr #28
     598:	38d40800 	ldmcc	r4, {fp}^
     59c:	fae9be88 	blx	ffa6ffc4 <__bss_end__+0xffa65a14>
     5a0:	8800bda8 	stmdahi	r0, {r3, r5, r7, r8, sl, fp, ip, sp, pc}
     5a4:	04000001 	streq	r0, [r0], #-1
     5a8:	0002ec00 	andeq	lr, r2, r0, lsl #24
     5ac:	40010400 	andmi	r0, r1, r0, lsl #8
     5b0:	01000000 	mrseq	r0, (UNDEF: 0)
     5b4:	00000222 	andeq	r0, r0, r2, lsr #4
     5b8:	0000015e 	andeq	r0, r0, lr, asr r1
     5bc:	00008268 	andeq	r8, r0, r8, ror #4
     5c0:	000000a8 	andeq	r0, r0, r8, lsr #1
     5c4:	00000212 	andeq	r0, r0, r2, lsl r2
     5c8:	dc040802 	stcle	8, cr0, [r4], {2}
     5cc:	02000000 	andeq	r0, r0, #0
     5d0:	01480704 	cmpeq	r8, r4, lsl #14
     5d4:	01020000 	mrseq	r0, (UNDEF: 2)
     5d8:	00003208 	andeq	r3, r0, r8, lsl #4
     5dc:	04040200 	streq	r0, [r4], #-512	; 0x200
     5e0:	00000142 	andeq	r0, r0, r2, asr #2
     5e4:	34060102 	strcc	r0, [r6], #-258	; 0x102
     5e8:	02000000 	andeq	r0, r0, #0
     5ec:	00b20502 	adcseq	r0, r2, r2, lsl #10
     5f0:	04020000 	streq	r0, [r2], #-0
     5f4:	00000505 	andeq	r0, r0, r5, lsl #10
     5f8:	05080200 	streq	r0, [r8, #-512]	; 0x200
     5fc:	00000000 	andeq	r0, r0, r0
     600:	c4070202 	strgt	r0, [r7], #-514	; 0x202
     604:	02000000 	andeq	r0, r0, #0
     608:	00200704 	eoreq	r0, r0, r4, lsl #14
     60c:	08020000 	stmdaeq	r2, {}	; <UNPREDICTABLE>
     610:	00001b07 	andeq	r1, r0, r7, lsl #22
     614:	05040300 	streq	r0, [r4, #-768]	; 0x300
     618:	00746e69 	rsbseq	r6, r4, r9, ror #28
     61c:	25070402 	strcs	r0, [r7, #-1026]	; 0x402
     620:	02000000 	andeq	r0, r0, #0
     624:	00d70408 	sbcseq	r0, r7, r8, lsl #8
     628:	51040000 	mrspl	r0, (UNDEF: 4)
     62c:	01000001 	tsteq	r0, r1
     630:	0000253d 	andeq	r2, r0, sp, lsr r5
     634:	00826800 	addeq	r6, r2, r0, lsl #16
     638:	0000a800 	andeq	sl, r0, r0, lsl #16
     63c:	009c0100 	addseq	r0, ip, r0, lsl #2
     640:	05000001 	streq	r0, [r0, #-1]
     644:	3d010078 	stccc	0, cr0, [r1, #-480]	; 0xfffffe20
     648:	00000025 	andeq	r0, r0, r5, lsr #32
     64c:	000001be 			; <UNDEFINED> instruction: 0x000001be
     650:	01007905 	tsteq	r0, r5, lsl #18
     654:	0000253d 	andeq	r2, r0, sp, lsr r5
     658:	00020a00 	andeq	r0, r2, r0, lsl #20
     65c:	79690600 	stmdbvc	r9!, {r9, sl}^
     660:	723d0100 	eorsvc	r0, sp, #0, 2
     664:	01000000 	mrseq	r0, (UNDEF: 0)
     668:	007a0750 	rsbseq	r0, sl, r0, asr r7
     66c:	00253f01 	eoreq	r3, r5, r1, lsl #30
     670:	02340000 	eorseq	r0, r4, #0
     674:	72070000 	andvc	r0, r7, #0
     678:	253f0100 	ldrcs	r0, [pc, #-256]!	; 580 <_start-0x7a80>
     67c:	76000000 	strvc	r0, [r0], -r0
     680:	08000002 	stmdaeq	r0, {r1}
     684:	3f010076 	svccc	0x00010076
     688:	00000025 	andeq	r0, r0, r5, lsr #32
     68c:	934c9008 	movtls	r9, #49160	; 0xc008
     690:	934d9004 	movtls	r9, #53252	; 0xd004
     694:	00770704 	rsbseq	r0, r7, r4, lsl #14
     698:	00253f01 	eoreq	r3, r5, r1, lsl #30
     69c:	04280000 	strteq	r0, [r8], #-0
     6a0:	09000000 	stmdbeq	r0, {}	; <UNPREDICTABLE>
     6a4:	0000022a 	andeq	r0, r0, sl, lsr #4
     6a8:	01143401 	tsteq	r4, r1, lsl #8
     6ac:	00080000 	andeq	r0, r8, r0
     6b0:	00000000 	andeq	r0, r0, r0
     6b4:	0a3fe000 	beq	ff86bc <__bss_end__+0xfee10c>
     6b8:	00000025 	andeq	r0, r0, r5, lsr #32
     6bc:	0031530b 	eorseq	r5, r1, fp, lsl #6
     6c0:	01143501 	tsteq	r4, r1, lsl #10
     6c4:	49080000 	stmdbmi	r8, {}	; <UNPREDICTABLE>
     6c8:	55555555 	ldrbpl	r5, [r5, #-1365]	; 0x555
     6cc:	0bbfc555 	bleq	feff1c28 <__bss_end__+0xfefe7678>
     6d0:	01003253 	tsteq	r0, r3, asr r2
     6d4:	00011436 	andeq	r1, r1, r6, lsr r4
     6d8:	f8a60800 			; <UNDEFINED> instruction: 0xf8a60800
     6dc:	11111110 	tstne	r1, r0, lsl r1
     6e0:	530b3f81 	movwpl	r3, #49025	; 0xbf81
     6e4:	37010033 	smladxcc	r1, r3, r0, r0
     6e8:	00000114 	andeq	r0, r0, r4, lsl r1
     6ec:	c161d508 	cmngt	r1, r8, lsl #10
     6f0:	2a01a019 	bcs	6875c <__bss_end__+0x5e1ac>
     6f4:	34530bbf 	ldrbcc	r0, [r3], #-3007	; 0xbbf
     6f8:	14380100 	ldrtne	r0, [r8], #-256	; 0x100
     6fc:	08000001 	stmdaeq	r0, {r0}
     700:	57b1fe7d 			; <UNDEFINED> instruction: 0x57b1fe7d
     704:	3ec71de3 	cdpcc	13, 12, cr1, cr7, cr3, {7}
     708:	0035530b 	eorseq	r5, r5, fp, lsl #6
     70c:	01143901 	tsteq	r4, r1, lsl #18
     710:	eb080000 	bl	200718 <__bss_end__+0x1f6168>
     714:	e68a2b9c 	pkhbt	r2, sl, ip, lsl #23
     718:	0bbe5ae5 	bleq	fef972b4 <__bss_end__+0xfef8cd04>
     71c:	01003653 	tsteq	r0, r3, asr r6
     720:	0001143a 	andeq	r1, r1, sl, lsr r4
     724:	d57c0800 	ldrble	r0, [ip, #-2048]!	; 0x800
     728:	d93a5acf 	ldmdble	sl!, {r0, r1, r2, r3, r6, r7, r9, fp, ip, lr}
     72c:	dc003de5 	stcle	13, cr3, [r0], {229}	; 0xe5
     730:	04000003 	streq	r0, [r0], #-3
     734:	00039300 	andeq	r9, r3, r0, lsl #6
     738:	40010400 	andmi	r0, r1, r0, lsl #8
     73c:	01000000 	mrseq	r0, (UNDEF: 0)
     740:	00000265 	andeq	r0, r0, r5, ror #4
     744:	0000015e 	andeq	r0, r0, lr, asr r1
     748:	00008310 	andeq	r8, r0, r0, lsl r3
     74c:	00000434 	andeq	r0, r0, r4, lsr r4
     750:	00000258 	andeq	r0, r0, r8, asr r2
     754:	dc040802 	stcle	8, cr0, [r4], {2}
     758:	02000000 	andeq	r0, r0, #0
     75c:	01480704 	cmpeq	r8, r4, lsl #14
     760:	01020000 	mrseq	r0, (UNDEF: 2)
     764:	00003208 	andeq	r3, r0, r8, lsl #4
     768:	04040200 	streq	r0, [r4], #-512	; 0x200
     76c:	00000142 	andeq	r0, r0, r2, asr #2
     770:	34060102 	strcc	r0, [r6], #-258	; 0x102
     774:	02000000 	andeq	r0, r0, #0
     778:	00b20502 	adcseq	r0, r2, r2, lsl #10
     77c:	e4030000 	str	r0, [r3], #-0
     780:	02000001 	andeq	r0, r0, #1
     784:	00005a28 	andeq	r5, r0, r8, lsr #20
     788:	05040200 	streq	r0, [r4, #-512]	; 0x200
     78c:	00000005 	andeq	r0, r0, r5
     790:	00050802 	andeq	r0, r5, r2, lsl #16
     794:	02000000 	andeq	r0, r0, #0
     798:	00c40702 	sbceq	r0, r4, r2, lsl #14
     79c:	ec030000 	stc	0, cr0, [r3], {-0}
     7a0:	02000001 	andeq	r0, r0, #1
     7a4:	00007a34 	andeq	r7, r0, r4, lsr sl
     7a8:	07040200 	streq	r0, [r4, -r0, lsl #4]
     7ac:	00000020 	andeq	r0, r0, r0, lsr #32
     7b0:	0001c003 	andeq	ip, r1, r3
     7b4:	8c370200 	lfmhi	f0, 4, [r7], #-0
     7b8:	02000000 	andeq	r0, r0, #0
     7bc:	001b0708 	andseq	r0, fp, r8, lsl #14
     7c0:	04040000 	streq	r0, [r4], #-0
     7c4:	746e6905 	strbtvc	r6, [lr], #-2309	; 0x905
     7c8:	07040200 	streq	r0, [r4, -r0, lsl #4]
     7cc:	00000025 	andeq	r0, r0, r5, lsr #32
     7d0:	0001e203 	andeq	lr, r1, r3, lsl #4
     7d4:	6f090300 	svcvs	0x00090300
     7d8:	03000000 	movweq	r0, #0
     7dc:	000001f5 	strdeq	r0, [r0], -r5
     7e0:	00810a03 	addeq	r0, r1, r3, lsl #20
     7e4:	08020000 	stmdaeq	r2, {}	; <UNPREDICTABLE>
     7e8:	0000d704 	andeq	sp, r0, r4, lsl #14
     7ec:	04080500 	streq	r0, [r8], #-1280	; 0x500
     7f0:	0000df44 	andeq	sp, r0, r4, asr #30
     7f4:	736c0600 	cmnvc	ip, #0, 12
     7f8:	46040077 			; <UNDEFINED> instruction: 0x46040077
     7fc:	000000a1 	andeq	r0, r0, r1, lsr #1
     800:	736d0600 	cmnvc	sp, #0, 12
     804:	47040077 	smlsdxmi	r4, r7, r0, r0
     808:	000000a1 	andeq	r0, r0, r1, lsr #1
     80c:	08050004 	stmdaeq	r5, {r2}
     810:	00f24904 	rscseq	r4, r2, r4, lsl #18
     814:	77060000 	strvc	r0, [r6, -r0]
     818:	ac4b0400 	cfstrdge	mvd0, [fp], {-0}
     81c:	00000000 	andeq	r0, r0, r0
     820:	04080700 	streq	r0, [r8], #-1792	; 0x700
     824:	00011c41 	andeq	r1, r1, r1, asr #24
     828:	0a220800 	beq	882830 <__bss_end__+0x878280>
     82c:	43040000 	movwmi	r0, #16384	; 0x4000
     830:	00000025 	andeq	r0, r0, r5, lsr #32
     834:	0001dc08 	andeq	sp, r1, r8, lsl #24
     838:	be480400 	cdplt	4, 4, cr0, cr8, cr0, {0}
     83c:	08000000 	stmdaeq	r0, {}	; <UNPREDICTABLE>
     840:	000001db 	ldrdeq	r0, [r0], -fp
     844:	00df4c04 	sbcseq	r4, pc, r4, lsl #24
     848:	03000000 	movweq	r0, #0
     84c:	000001a9 	andeq	r0, r0, r9, lsr #3
     850:	00f24d04 	rscseq	r4, r2, r4, lsl #26
     854:	07090000 	streq	r0, [r9, -r0]
     858:	01000002 	tsteq	r0, r2
     85c:	00009334 	andeq	r9, r0, r4, lsr r3
     860:	00831000 	addeq	r1, r3, r0
     864:	00043400 	andeq	r3, r4, r0, lsl #8
     868:	da9c0100 	ble	fe700c70 <__bss_end__+0xfe6f66c0>
     86c:	0a000002 	beq	87c <_start-0x7784>
     870:	34010078 	strcc	r0, [r1], #-120	; 0x78
     874:	00000025 	andeq	r0, r0, r5, lsr #32
     878:	00000490 	muleq	r0, r0, r4
     87c:	0100790a 	tsteq	r0, sl, lsl #18
     880:	0002da34 	andeq	sp, r2, r4, lsr sl
     884:	0004ca00 	andeq	ip, r4, r0, lsl #20
     888:	007a0b00 	rsbseq	r0, sl, r0, lsl #22
     88c:	00253601 	eoreq	r3, r5, r1, lsl #12
     890:	05d20000 	ldrbeq	r0, [r2]
     894:	770b0000 	strvc	r0, [fp, -r0]
     898:	25360100 	ldrcs	r0, [r6, #-256]!	; 0x100
     89c:	12000000 	andne	r0, r0, #0
     8a0:	0b000007 	bleq	8c4 <_start-0x773c>
     8a4:	36010074 			; <UNDEFINED> instruction: 0x36010074
     8a8:	00000025 	andeq	r0, r0, r5, lsr #32
     8ac:	000007f0 	strdeq	r0, [r0], -r0	; <UNPREDICTABLE>
     8b0:	0100720b 	tsteq	r0, fp, lsl #4
     8b4:	00002536 	andeq	r2, r0, r6, lsr r5
     8b8:	0008fc00 	andeq	pc, r8, r0, lsl #24
     8bc:	6e660b00 	vmulvs.f64	d16, d6, d0
     8c0:	25360100 	ldrcs	r0, [r6, #-256]!	; 0x100
     8c4:	5e000000 	cdppl	0, 0, cr0, cr0, cr0, {0}
     8c8:	0c000009 	stceq	0, cr0, [r0], {9}
     8cc:	01007874 	tsteq	r0, r4, ror r8
     8d0:	0002e037 	andeq	lr, r2, r7, lsr r0
     8d4:	50910200 	addspl	r0, r1, r0, lsl #4
     8d8:	0079740c 	rsbseq	r7, r9, ip, lsl #8
     8dc:	02f03701 	rscseq	r3, r0, #262144	; 0x40000
     8e0:	91020000 	mrsls	r0, (UNDEF: 2)
     8e4:	30650b40 	rsbcc	r0, r5, r0, asr #22
     8e8:	4f380100 	svcmi	0x00380100
     8ec:	00000000 	andeq	r0, r0, r0
     8f0:	0b00000a 	bleq	920 <_start-0x76e0>
     8f4:	38010069 	stmdacc	r1, {r0, r3, r5, r6}
     8f8:	0000004f 	andeq	r0, r0, pc, asr #32
     8fc:	00000a2c 	andeq	r0, r0, ip, lsr #20
     900:	01006a0b 	tsteq	r0, fp, lsl #20
     904:	00004f38 	andeq	r4, r0, r8, lsr pc
     908:	000a7b00 	andeq	r7, sl, r0, lsl #22
     90c:	786e0b00 	stmdavc	lr!, {r8, r9, fp}^
     910:	4f380100 	svcmi	0x00380100
     914:	a3000000 	movwge	r0, #0
     918:	0b00000a 	bleq	948 <_start-0x76b8>
     91c:	3801006e 	stmdacc	r1, {r1, r2, r3, r5, r6}
     920:	0000004f 	andeq	r0, r0, pc, asr #32
     924:	00000ac2 	andeq	r0, r0, r2, asr #21
     928:	0078690b 	rsbseq	r6, r8, fp, lsl #18
     92c:	004f3801 	subeq	r3, pc, r1, lsl #16
     930:	0af90000 	beq	ffe40938 <__bss_end__+0xffe36388>
     934:	680b0000 	stmdavs	fp, {}	; <UNPREDICTABLE>
     938:	38010078 	stmdacc	r1, {r3, r4, r5, r6}
     93c:	0000004f 	andeq	r0, r0, pc, asr #32
     940:	00000b3d 	andeq	r0, r0, sp, lsr fp
     944:	776f6c0b 	strbvc	r6, [pc, -fp, lsl #24]!
     948:	a1390100 	teqge	r9, r0, lsl #2
     94c:	50000000 	andpl	r0, r0, r0
     950:	0d00000b 	stceq	0, cr0, [r0, #-44]	; 0xffffffd4
     954:	00000244 	andeq	r0, r0, r4, asr #4
     958:	84ec7e01 	strbthi	r7, [ip], #3585	; 0xe01
     95c:	1c0e0000 	stcne	0, cr0, [lr], {-0}
     960:	04000083 	streq	r0, [r0], #-131	; 0x83
     964:	4c000000 	stcmi	0, cr0, [r0], {-0}
     968:	0f000002 	svceq	0x00000002
     96c:	000001d6 	ldrdeq	r0, [r0], -r6
     970:	011c3b01 	tsteq	ip, r1, lsl #22
     974:	0b630000 	bleq	18c097c <__bss_end__+0x18b63cc>
     978:	0e000000 	cdpeq	0, 0, cr0, cr0, cr0, {0}
     97c:	00008518 	andeq	r8, r0, r8, lsl r5
     980:	00000084 	andeq	r0, r0, r4, lsl #1
     984:	0000029f 	muleq	r0, pc, r2	; <UNPREDICTABLE>
     988:	00023f0f 	andeq	r3, r2, pc, lsl #30
     98c:	a18a0100 	orrge	r0, sl, r0, lsl #2
     990:	7b000000 	blvc	998 <_start-0x7668>
     994:	0e00000b 	cdpeq	0, 0, cr0, cr0, cr11, {0}
     998:	00008524 	andeq	r8, r0, r4, lsr #10
     99c:	00000004 	andeq	r0, r0, r4
     9a0:	00000285 	andeq	r0, r0, r5, lsl #5
     9a4:	0001d60f 	andeq	sp, r1, pc, lsl #12
     9a8:	1c8d0100 	stfnes	f0, [sp], {0}
     9ac:	8e000001 	cdphi	0, 0, cr0, cr0, cr1, {0}
     9b0:	0000000b 	andeq	r0, r0, fp
     9b4:	00855c10 	addeq	r5, r5, r0, lsl ip
     9b8:	00000400 	andeq	r0, r0, r0, lsl #8
     9bc:	01d60f00 	bicseq	r0, r6, r0, lsl #30
     9c0:	95010000 	strls	r0, [r1, #-0]
     9c4:	0000011c 	andeq	r0, r0, ip, lsl r1
     9c8:	00000bc6 	andeq	r0, r0, r6, asr #23
     9cc:	dc0e0000 	stcle	0, cr0, [lr], {-0}
     9d0:	0c000085 	stceq	0, cr0, [r0], {133}	; 0x85
     9d4:	bc000000 	stclt	0, cr0, [r0], {-0}
     9d8:	0f000002 	svceq	0x00000002
     9dc:	00000295 	muleq	r0, r5, r2
     9e0:	011cac01 	tsteq	ip, r1, lsl #24
     9e4:	0bee0000 	bleq	ffb809ec <__bss_end__+0xffb7643c>
     9e8:	11000000 	mrsne	r0, (UNDEF: 0)
     9ec:	00008660 	andeq	r8, r0, r0, ror #12
     9f0:	000003b9 			; <UNDEFINED> instruction: 0x000003b9
     9f4:	03510112 	cmpeq	r1, #-2147483644	; 0x80000004
     9f8:	127fb891 	rsbsne	fp, pc, #9502720	; 0x910000
     9fc:	91025001 	tstls	r2, r1
     a00:	7d021248 	sfmvc	f1, 4, [r2, #-288]	; 0xfffffee0
     a04:	00310100 	eorseq	r0, r1, r0, lsl #2
     a08:	25041300 	strcs	r1, [r4, #-768]	; 0x300
     a0c:	14000000 	strne	r0, [r0], #-0
     a10:	00000025 	andeq	r0, r0, r5, lsr #32
     a14:	000002f0 	strdeq	r0, [r0], -r0	; <UNPREDICTABLE>
     a18:	00002c15 	andeq	r2, r0, r5, lsl ip
     a1c:	14000200 	strne	r0, [r0], #-512	; 0x200
     a20:	00000025 	andeq	r0, r0, r5, lsr #32
     a24:	00000300 	andeq	r0, r0, r0, lsl #6
     a28:	00002c15 	andeq	r2, r0, r5, lsl ip
     a2c:	16000100 	strne	r0, [r0], -r0, lsl #2
     a30:	0000029a 	muleq	r0, sl, r2
     a34:	03142901 	tsteq	r4, #16384	; 0x4000
     a38:	00080000 	andeq	r0, r8, r0
     a3c:	00000000 	andeq	r0, r0, r0
     a40:	17000000 	strne	r0, [r0, -r0]
     a44:	00000025 	andeq	r0, r0, r5, lsr #32
     a48:	00027216 	andeq	r7, r2, r6, lsl r2
     a4c:	142a0100 	strtne	r0, [sl], #-256	; 0x100
     a50:	08000003 	stmdaeq	r0, {r0, r1}
     a54:	00000000 	andeq	r0, r0, r0
     a58:	41700000 	cmnmi	r0, r0
     a5c:	00027816 	andeq	r7, r2, r6, lsl r8
     a60:	142b0100 	strtne	r0, [fp], #-256	; 0x100
     a64:	08000003 	stmdaeq	r0, {r0, r1}
     a68:	6dc9c883 	stclvs	8, cr12, [r9, #524]	; 0x20c
     a6c:	3fe45f30 	svccc	0x00e45f30
     a70:	00028016 	andeq	r8, r2, r6, lsl r0
     a74:	142c0100 	strtne	r0, [ip], #-256	; 0x100
     a78:	08000003 	stmdaeq	r0, {r0, r1}
     a7c:	54400000 	strbpl	r0, [r0], #-0
     a80:	3ff921fb 	svccc	0x00f921fb
     a84:	00022f16 	andeq	r2, r2, r6, lsl pc
     a88:	142d0100 	strtne	r0, [sp], #-256	; 0x100
     a8c:	08000003 	stmdaeq	r0, {r0, r1}
     a90:	1a626331 	bne	189975c <__bss_end__+0x188f1ac>
     a94:	3dd0b461 	cfldrdcc	mvd11, [r0, #388]	; 0x184
     a98:	00028716 	andeq	r8, r2, r6, lsl r7
     a9c:	142e0100 	strtne	r0, [lr], #-256	; 0x100
     aa0:	08000003 	stmdaeq	r0, {r0, r1}
     aa4:	1a600000 	bne	1800aac <__bss_end__+0x17f64fc>
     aa8:	3dd0b461 	cfldrdcc	mvd11, [r0, #388]	; 0x184
     aac:	00023716 	andeq	r3, r2, r6, lsl r7
     ab0:	142f0100 	strtne	r0, [pc], #-256	; ab8 <_start-0x7548>
     ab4:	08000003 	stmdaeq	r0, {r0, r1}
     ab8:	2e037073 	mcrcs	0, 0, r7, cr3, cr3, {3}
     abc:	3ba3198a 	blcc	fe8c70ec <__bss_end__+0xfe8bcb3c>
     ac0:	00028e16 	andeq	r8, r2, r6, lsl lr
     ac4:	14300100 	ldrtne	r0, [r0], #-256	; 0x100
     ac8:	08000003 	stmdaeq	r0, {r0, r1}
     acc:	2e000000 	cdpcs	0, 0, cr0, cr0, cr0, {0}
     ad0:	3ba3198a 	blcc	fe8c7100 <__bss_end__+0xfe8bcb50>
     ad4:	00025d16 	andeq	r5, r2, r6, lsl sp
     ad8:	14310100 	ldrtne	r0, [r1], #-256	; 0x100
     adc:	08000003 	stmdaeq	r0, {r0, r1}
     ae0:	252049c1 	strcs	r4, [r0, #-2497]!	; 0x9c1
     ae4:	397b839a 	ldmdbcc	fp!, {r1, r3, r4, r7, r8, r9, pc}^
     ae8:	00024b18 	andeq	r4, r2, r8, lsl fp
     aec:	013f0400 	teqeq	pc, r0, lsl #8
     af0:	00000093 	muleq	r0, r3, r0
     af4:	0002da19 	andeq	sp, r2, r9, lsl sl
     af8:	02da1900 	sbcseq	r1, sl, #0, 18
     afc:	93190000 	tstls	r9, #0
     b00:	19000000 	stmdbne	r0, {}	; <UNPREDICTABLE>
     b04:	00000093 	muleq	r0, r3, r0
     b08:	00009319 	andeq	r9, r0, r9, lsl r3
     b0c:	ca000000 	bgt	b14 <_start-0x74ec>
     b10:	04000003 	streq	r0, [r0], #-3
     b14:	0004db00 	andeq	sp, r4, r0, lsl #22
     b18:	40010400 	andmi	r0, r1, r0, lsl #8
     b1c:	01000000 	mrseq	r0, (UNDEF: 0)
     b20:	000002be 			; <UNDEFINED> instruction: 0x000002be
     b24:	0000015e 	andeq	r0, r0, lr, asr r1
     b28:	00008748 	andeq	r8, r0, r8, asr #14
     b2c:	00000748 	andeq	r0, r0, r8, asr #14
     b30:	00000395 	muleq	r0, r5, r3
     b34:	dc040802 	stcle	8, cr0, [r4], {2}
     b38:	02000000 	andeq	r0, r0, #0
     b3c:	01480704 	cmpeq	r8, r4, lsl #14
     b40:	01020000 	mrseq	r0, (UNDEF: 2)
     b44:	00003208 	andeq	r3, r0, r8, lsl #4
     b48:	04040200 	streq	r0, [r4], #-512	; 0x200
     b4c:	00000142 	andeq	r0, r0, r2, asr #2
     b50:	34060102 	strcc	r0, [r6], #-258	; 0x102
     b54:	02000000 	andeq	r0, r0, #0
     b58:	00b20502 	adcseq	r0, r2, r2, lsl #10
     b5c:	e4030000 	str	r0, [r3], #-0
     b60:	02000001 	andeq	r0, r0, #1
     b64:	00005a28 	andeq	r5, r0, r8, lsr #20
     b68:	05040200 	streq	r0, [r4, #-512]	; 0x200
     b6c:	00000005 	andeq	r0, r0, r5
     b70:	00050802 	andeq	r0, r5, r2, lsl #16
     b74:	02000000 	andeq	r0, r0, #0
     b78:	00c40702 	sbceq	r0, r4, r2, lsl #14
     b7c:	04020000 	streq	r0, [r2], #-0
     b80:	00002007 	andeq	r2, r0, r7
     b84:	07080200 	streq	r0, [r8, -r0, lsl #4]
     b88:	0000001b 	andeq	r0, r0, fp, lsl r0
     b8c:	69050404 	stmdbvs	r5, {r2, sl}
     b90:	0200746e 	andeq	r7, r0, #1845493760	; 0x6e000000
     b94:	00250704 	eoreq	r0, r5, r4, lsl #14
     b98:	08020000 	stmdaeq	r2, {}	; <UNPREDICTABLE>
     b9c:	0000d704 	andeq	sp, r0, r4, lsl #14
     ba0:	024b0500 	subeq	r0, fp, #0, 10
     ba4:	26010000 	strcs	r0, [r1], -r0
     ba8:	00007d01 	andeq	r7, r0, r1, lsl #26
     bac:	00874800 	addeq	r4, r7, r0, lsl #16
     bb0:	00074800 	andeq	r4, r7, r0, lsl #16
     bb4:	af9c0100 	svcge	0x009c0100
     bb8:	06000002 	streq	r0, [r0], -r2
     bbc:	26010078 			; <UNDEFINED> instruction: 0x26010078
     bc0:	0002af01 	andeq	sl, r2, r1, lsl #30
     bc4:	000c2600 	andeq	r2, ip, r0, lsl #12
     bc8:	00790600 	rsbseq	r0, r9, r0, lsl #12
     bcc:	af012601 	svcge	0x00012601
     bd0:	52000002 	andpl	r0, r0, #2
     bd4:	0600000c 	streq	r0, [r0], -ip
     bd8:	01003065 	tsteq	r0, r5, rrx
     bdc:	007d0126 	rsbseq	r0, sp, r6, lsr #2
     be0:	0c7e0000 	ldcleq	0, cr0, [lr], #-0
     be4:	6e060000 	cdpvs	0, 0, cr0, cr6, cr0, {0}
     be8:	26010078 			; <UNDEFINED> instruction: 0x26010078
     bec:	00007d01 	andeq	r7, r0, r1, lsl #26
     bf0:	000c9f00 	andeq	r9, ip, r0, lsl #30
     bf4:	02e30700 	rsceq	r0, r3, #0, 14
     bf8:	26010000 	strcs	r0, [r1], -r0
     bfc:	00007d01 	andeq	r7, r0, r1, lsl #26
     c00:	00910200 	addseq	r0, r1, r0, lsl #4
     c04:	007a6a08 	rsbseq	r6, sl, r8, lsl #20
     c08:	4f012801 	svcmi	0x00012801
     c0c:	cd000000 	stcgt	0, cr0, [r0, #-0]
     c10:	0800000c 	stmdaeq	r0, {r2, r3}
     c14:	0100786a 	tsteq	r0, sl, ror #16
     c18:	004f0128 	subeq	r0, pc, r8, lsr #2
     c1c:	0d010000 	stceq	0, cr0, [r1, #-0]
     c20:	6a080000 	bvs	200c28 <__bss_end__+0x1f6678>
     c24:	28010076 	stmdacs	r1, {r1, r2, r4, r5, r6}
     c28:	00004f01 	andeq	r4, r0, r1, lsl #30
     c2c:	000d2400 	andeq	r2, sp, r0, lsl #8
     c30:	706a0800 	rsbvc	r0, sl, r0, lsl #16
     c34:	01280100 	teqeq	r8, r0, lsl #2
     c38:	0000004f 	andeq	r0, r0, pc, asr #32
     c3c:	00000d49 	andeq	r0, r0, r9, asr #26
     c40:	006b6a08 	rsbeq	r6, fp, r8, lsl #20
     c44:	4f012801 	svcmi	0x00012801
     c48:	49000000 	stmdbmi	r0, {}	; <UNPREDICTABLE>
     c4c:	0900000d 	stmdbeq	r0, {r0, r2, r3}
     c50:	000002d8 	ldrdeq	r0, [r0], -r8
     c54:	4f012801 	svcmi	0x00012801
     c58:	71000000 	mrsvc	r0, (UNDEF: 0)
     c5c:	0800000d 	stmdaeq	r0, {r0, r2, r3}
     c60:	2801006e 	stmdacs	r1, {r1, r2, r3, r5, r6}
     c64:	00004f01 	andeq	r4, r0, r1, lsl #30
     c68:	000da700 	andeq	sl, sp, r0, lsl #14
     c6c:	71690a00 	cmnvc	r9, r0, lsl #20
     c70:	01280100 	teqeq	r8, r0, lsl #2
     c74:	000002b5 			; <UNDEFINED> instruction: 0x000002b5
     c78:	7ec89103 	acsvce	f1, f3
     c7c:	01006908 	tsteq	r0, r8, lsl #18
     c80:	004f0128 	subeq	r0, pc, r8, lsr #2
     c84:	0de90000 	stcleq	0, cr0, [r9]
     c88:	6a080000 	bvs	200c90 <__bss_end__+0x1f66e0>
     c8c:	01280100 	teqeq	r8, r0, lsl #2
     c90:	0000004f 	andeq	r0, r0, pc, asr #32
     c94:	00000f69 	andeq	r0, r0, r9, ror #30
     c98:	01006b08 	tsteq	r0, r8, lsl #22
     c9c:	004f0128 	subeq	r0, pc, r8, lsr #2
     ca0:	10390000 	eorsne	r0, r9, r0
     ca4:	6d080000 	stcvs	0, cr0, [r8, #-0]
     ca8:	01280100 	teqeq	r8, r0, lsl #2
     cac:	0000004f 	andeq	r0, r0, pc, asr #32
     cb0:	0000106d 	andeq	r1, r0, sp, rrx
     cb4:	00307108 	eorseq	r7, r0, r8, lsl #2
     cb8:	4f012801 	svcmi	0x00012801
     cbc:	c0000000 	andgt	r0, r0, r0
     cc0:	08000010 	stmdaeq	r0, {r4}
     cc4:	01006869 	tsteq	r0, r9, ror #16
     cc8:	004f0128 	subeq	r0, pc, r8, lsr #2
     ccc:	10d30000 	sbcsne	r0, r3, r0
     cd0:	7a080000 	bvc	200cd8 <__bss_end__+0x1f6728>
     cd4:	01290100 	teqeq	r9, r0, lsl #2
     cd8:	00000025 	andeq	r0, r0, r5, lsr #32
     cdc:	0000112b 	andeq	r1, r0, fp, lsr #2
     ce0:	00776608 	rsbseq	r6, r7, r8, lsl #12
     ce4:	25012901 	strcs	r2, [r1, #-2305]	; 0x901
     ce8:	9f000000 	svcls	0x00000000
     cec:	0a000011 	beq	d38 <_start-0x72c8>
     cf0:	29010066 	stmdbcs	r1, {r1, r2, r5, r6}
     cf4:	0002c501 	andeq	ip, r2, r1, lsl #10
     cf8:	a8910300 	ldmge	r1, {r8, r9}
     cfc:	71660a7d 	smcvc	24749	; 0x60ad
     d00:	01290100 	teqeq	r9, r0, lsl #2
     d04:	000002c5 	andeq	r0, r0, r5, asr #5
     d08:	7c889103 	stfvcd	f1, [r8], {3}
     d0c:	0100710a 	tsteq	r0, sl, lsl #2
     d10:	02c50129 	sbceq	r0, r5, #1073741834	; 0x4000000a
     d14:	91030000 	mrsls	r0, (UNDEF: 3)
     d18:	a50b7ae8 	strge	r7, [fp, #-2792]	; 0xae8
     d1c:	01000002 	tsteq	r0, r2
     d20:	8864013f 	stmdahi	r4!, {r0, r1, r2, r3, r4, r5, r8}^
     d24:	c00c0000 	andgt	r0, ip, r0
     d28:	a1000088 	smlabbge	r0, r8, r0, r0
     d2c:	2b000003 	blcs	d40 <_start-0x72c0>
     d30:	0d000002 	stceq	0, cr0, [r0, #-8]
     d34:	79025001 	stmdbvc	r2, {r0, ip, lr}
     d38:	cc0c0000 	stcgt	0, cr0, [ip], {-0}
     d3c:	bc000088 	stclt	0, cr0, [r0], {136}	; 0x88
     d40:	4b000003 	blmi	d54 <_start-0x72ac>
     d44:	0d000002 	stceq	0, cr0, [r0, #-8]
     d48:	93409008 	movtls	r9, #8
     d4c:	93419004 	movtls	r9, #4100	; 0x1004
     d50:	54f50704 	ldrbtpl	r0, [r5], #1796	; 0x704
     d54:	2558f525 	ldrbcs	pc, [r8, #-1317]	; 0x525	; <UNPREDICTABLE>
     d58:	380c001e 	stmdacc	ip, {r1, r2, r3, r4}
     d5c:	a100008a 	smlabbge	r0, sl, r0, r0
     d60:	6d000003 	stcvs	0, cr0, [r0, #-12]
     d64:	0d000002 	stceq	0, cr0, [r0, #-8]
     d68:	79025001 	stmdbvc	r2, {r0, ip, lr}
     d6c:	90080d00 	andls	r0, r8, r0, lsl #26
     d70:	90049340 	andls	r9, r4, r0, asr #6
     d74:	03049341 	movweq	r9, #17217	; 0x4341
     d78:	00255af5 	strdeq	r5, [r5], -r5	; <UNPREDICTABLE>
     d7c:	008b6c0c 	addeq	r6, fp, ip, lsl #24
     d80:	0003a100 	andeq	sl, r3, r0, lsl #2
     d84:	00029000 	andeq	r9, r2, r0
     d88:	50010d00 	andpl	r0, r1, r0, lsl #26
     d8c:	1f007903 	svcne	0x00007903
     d90:	4090080d 	addsmi	r0, r0, sp, lsl #16
     d94:	41900493 			; <UNDEFINED> instruction: 0x41900493
     d98:	f5030493 			; <UNDEFINED> instruction: 0xf5030493
     d9c:	0e002554 	cfrshl32eq	mvfx0, mvfx4, r2
     da0:	00008bd4 	ldrdeq	r8, [r0], -r4
     da4:	000003a1 	andeq	r0, r0, r1, lsr #7
     da8:	0250010d 	subseq	r0, r0, #1073741827	; 0x40000003
     dac:	080d0079 	stmdaeq	sp, {r0, r3, r4, r5, r6}
     db0:	04934090 	ldreq	r4, [r3], #144	; 0x90
     db4:	04934190 	ldreq	r4, [r3], #400	; 0x190
     db8:	255af503 	ldrbcs	pc, [sl, #-1283]	; 0x503	; <UNPREDICTABLE>
     dbc:	040f0000 	streq	r0, [pc], #-0	; dc4 <_start-0x723c>
     dc0:	00000025 	andeq	r0, r0, r5, lsr #32
     dc4:	00004f10 	andeq	r4, r0, r0, lsl pc
     dc8:	0002c500 	andeq	ip, r2, r0, lsl #10
     dcc:	002c1100 	eoreq	r1, ip, r0, lsl #2
     dd0:	00130000 	andseq	r0, r3, r0
     dd4:	00002510 	andeq	r2, r0, r0, lsl r5
     dd8:	0002d500 	andeq	sp, r2, r0, lsl #10
     ddc:	002c1100 	eoreq	r1, ip, r0, lsl #2
     de0:	00130000 	andseq	r0, r3, r0
     de4:	00007d10 	andeq	r7, r0, r0, lsl sp
     de8:	0002e500 	andeq	lr, r2, r0, lsl #10
     dec:	002c1100 	eoreq	r1, ip, r0, lsl #2
     df0:	00030000 	andeq	r0, r3, r0
     df4:	0002af12 	andeq	sl, r2, r2, lsl pc
     df8:	f6890100 			; <UNDEFINED> instruction: 0xf6890100
     dfc:	05000002 	streq	r0, [r0, #-2]
     e00:	009f3003 	addseq	r3, pc, r3
     e04:	02d51300 	sbcseq	r1, r5, #0, 6
     e08:	4f100000 	svcmi	0x00100000
     e0c:	0b000000 	bleq	e14 <_start-0x71ec>
     e10:	11000003 	tstne	r0, r3
     e14:	0000002c 	andeq	r0, r0, ip, lsr #32
     e18:	d2120041 	andsle	r0, r2, #65	; 0x41
     e1c:	01000002 	tsteq	r0, r2
     e20:	00031c97 	muleq	r3, r7, ip
     e24:	40030500 	andmi	r0, r3, r0, lsl #10
     e28:	1300009f 	movwne	r0, #159	; 0x9f
     e2c:	000002fb 	strdeq	r0, [r0], -fp
     e30:	00002510 	andeq	r2, r0, r0, lsl r5
     e34:	00033100 	andeq	r3, r3, r0, lsl #2
     e38:	002c1100 	eoreq	r1, ip, r0, lsl #2
     e3c:	00070000 	andeq	r0, r7, r0
     e40:	0002de14 	andeq	sp, r2, r4, lsl lr
     e44:	01140100 	tsteq	r4, r0, lsl #2
     e48:	00000343 	andeq	r0, r0, r3, asr #6
     e4c:	a0480305 	subge	r0, r8, r5, lsl #6
     e50:	21130000 	tstcs	r3, r0
     e54:	15000003 	strne	r0, [r0, #-3]
     e58:	0000029a 	muleq	r0, sl, r2
     e5c:	5d012001 	stcpl	0, cr2, [r1, #-4]
     e60:	08000003 	stmdaeq	r0, {r0, r1}
	...
     e6c:	00002513 	andeq	r2, r0, r3, lsl r5
     e70:	6e6f1600 	cdpvs	6, 6, cr1, cr15, cr0, {0}
     e74:	21010065 	tstcs	r1, r5, rrx
     e78:	00035d01 	andeq	r5, r3, r1, lsl #26
     e7c:	00000800 	andeq	r0, r0, r0, lsl #16
     e80:	00000000 	andeq	r0, r0, r0
     e84:	72153ff0 	andsvc	r3, r5, #240, 30	; 0x3c0
     e88:	01000002 	tsteq	r0, r2
     e8c:	035d0122 	cmpeq	sp, #-2147483640	; 0x80000008
     e90:	00080000 	andeq	r0, r8, r0
     e94:	00000000 	andeq	r0, r0, r0
     e98:	15417000 	strbne	r7, [r1, #-0]
     e9c:	000002b7 			; <UNDEFINED> instruction: 0x000002b7
     ea0:	5d012301 	stcpl	3, cr2, [r1, #-4]
     ea4:	08000003 	stmdaeq	r0, {r0, r1}
     ea8:	00000000 	andeq	r0, r0, r0
     eac:	3e700000 	cdpcc	0, 7, cr0, cr0, cr0, {0}
     eb0:	0002cb17 	andeq	ip, r2, r7, lsl fp
     eb4:	01320300 	teqeq	r2, r0, lsl #6
     eb8:	00000025 	andeq	r0, r0, r5, lsr #32
     ebc:	000003bc 			; <UNDEFINED> instruction: 0x000003bc
     ec0:	00002518 	andeq	r2, r0, r8, lsl r5
     ec4:	007d1800 	rsbseq	r1, sp, r0, lsl #16
     ec8:	19000000 	stmdbne	r0, {}	; <UNPREDICTABLE>
     ecc:	0000029f 	muleq	r0, pc, r2	; <UNPREDICTABLE>
     ed0:	0025fe03 	eoreq	pc, r5, r3, lsl #28
     ed4:	25180000 	ldrcs	r0, [r8, #-0]
     ed8:	00000000 	andeq	r0, r0, r0
     edc:	0002b100 	andeq	fp, r2, r0, lsl #2
     ee0:	37000400 	strcc	r0, [r0, -r0, lsl #8]
     ee4:	04000006 	streq	r0, [r0], #-6
     ee8:	00004001 	andeq	r4, r0, r1
     eec:	02e80100 	rsceq	r0, r8, #0, 2
     ef0:	015e0000 	cmpeq	lr, r0
     ef4:	8e900000 	cdphi	0, 9, cr0, cr0, cr0, {0}
     ef8:	01580000 	cmpeq	r8, r0
     efc:	06600000 	strbteq	r0, [r0], -r0
     f00:	08020000 	stmdaeq	r2, {}	; <UNPREDICTABLE>
     f04:	0000dc04 	andeq	sp, r0, r4, lsl #24
     f08:	07040200 	streq	r0, [r4, -r0, lsl #4]
     f0c:	00000148 	andeq	r0, r0, r8, asr #2
     f10:	32080102 	andcc	r0, r8, #-2147483648	; 0x80000000
     f14:	02000000 	andeq	r0, r0, #0
     f18:	01420404 	cmpeq	r2, r4, lsl #8
     f1c:	01020000 	mrseq	r0, (UNDEF: 2)
     f20:	00003406 	andeq	r3, r0, r6, lsl #8
     f24:	05020200 	streq	r0, [r2, #-512]	; 0x200
     f28:	000000b2 	strheq	r0, [r0], -r2
     f2c:	0001e403 	andeq	lr, r1, r3, lsl #8
     f30:	5a280200 	bpl	a01738 <__bss_end__+0x9f7188>
     f34:	02000000 	andeq	r0, r0, #0
     f38:	00050504 	andeq	r0, r5, r4, lsl #10
     f3c:	08020000 	stmdaeq	r2, {}	; <UNPREDICTABLE>
     f40:	00000005 	andeq	r0, r0, r5
     f44:	07020200 	streq	r0, [r2, -r0, lsl #4]
     f48:	000000c4 	andeq	r0, r0, r4, asr #1
     f4c:	0001ec03 	andeq	lr, r1, r3, lsl #24
     f50:	7a340200 	bvc	d01758 <__bss_end__+0xcf71a8>
     f54:	02000000 	andeq	r0, r0, #0
     f58:	00200704 	eoreq	r0, r0, r4, lsl #14
     f5c:	c0030000 	andgt	r0, r3, r0
     f60:	02000001 	andeq	r0, r0, #1
     f64:	00008c37 	andeq	r8, r0, r7, lsr ip
     f68:	07080200 	streq	r0, [r8, -r0, lsl #4]
     f6c:	0000001b 	andeq	r0, r0, fp, lsl r0
     f70:	69050404 	stmdbvs	r5, {r2, sl}
     f74:	0200746e 	andeq	r7, r0, #1845493760	; 0x6e000000
     f78:	00250704 	eoreq	r0, r5, r4, lsl #14
     f7c:	e2030000 	and	r0, r3, #0
     f80:	03000001 	movweq	r0, #1
     f84:	00006f09 	andeq	r6, r0, r9, lsl #30
     f88:	01f50300 	mvnseq	r0, r0, lsl #6
     f8c:	0a030000 	beq	c0f94 <__bss_end__+0xb69e4>
     f90:	00000081 	andeq	r0, r0, r1, lsl #1
     f94:	d7040802 	strle	r0, [r4, -r2, lsl #16]
     f98:	05000000 	streq	r0, [r0, #-0]
     f9c:	df440408 	svcle	0x00440408
     fa0:	06000000 	streq	r0, [r0], -r0
     fa4:	0077736c 	rsbseq	r7, r7, ip, ror #6
     fa8:	00a14604 	adceq	r4, r1, r4, lsl #12
     fac:	06000000 	streq	r0, [r0], -r0
     fb0:	0077736d 	rsbseq	r7, r7, sp, ror #6
     fb4:	00a14704 	adceq	r4, r1, r4, lsl #14
     fb8:	00040000 	andeq	r0, r4, r0
     fbc:	49040805 	stmdbmi	r4, {r0, r2, fp}
     fc0:	000000f2 	strdeq	r0, [r0], -r2
     fc4:	04007706 	streq	r7, [r0], #-1798	; 0x706
     fc8:	0000ac4b 	andeq	sl, r0, fp, asr #24
     fcc:	07000000 	streq	r0, [r0, -r0]
     fd0:	1c410408 	cfstrdne	mvd0, [r1], {8}
     fd4:	08000001 	stmdaeq	r0, {r0}
     fd8:	00000a22 	andeq	r0, r0, r2, lsr #20
     fdc:	00254304 	eoreq	r4, r5, r4, lsl #6
     fe0:	dc080000 	stcle	0, cr0, [r8], {-0}
     fe4:	04000001 	streq	r0, [r0], #-1
     fe8:	0000be48 	andeq	fp, r0, r8, asr #28
     fec:	01db0800 	bicseq	r0, fp, r0, lsl #16
     ff0:	4c040000 	stcmi	0, cr0, [r4], {-0}
     ff4:	000000df 	ldrdeq	r0, [r0], -pc	; <UNPREDICTABLE>
     ff8:	01a90300 			; <UNDEFINED> instruction: 0x01a90300
     ffc:	4d040000 	stcmi	0, cr0, [r4, #-0]
    1000:	000000f2 	strdeq	r0, [r0], -r2
    1004:	0002cb09 	andeq	ip, r2, r9, lsl #22
    1008:	25210100 	strcs	r0, [r1, #-256]!	; 0x100
    100c:	90000000 	andls	r0, r0, r0
    1010:	5800008e 	stmdapl	r0, {r1, r2, r3, r7}
    1014:	01000001 	tsteq	r0, r1
    1018:	0002489c 	muleq	r2, ip, r8
    101c:	00780a00 	rsbseq	r0, r8, r0, lsl #20
    1020:	00252101 	eoreq	r2, r5, r1, lsl #2
    1024:	12c90000 	sbcne	r0, r9, #0
    1028:	6e0a0000 	cdpvs	0, 0, cr0, cr10, cr0, {0}
    102c:	93210100 	teqls	r1, #0, 2
    1030:	79000000 	stmdbvc	r0, {}	; <UNPREDICTABLE>
    1034:	0b000013 	bleq	1088 <_start-0x6f78>
    1038:	2201006b 	andcs	r0, r1, #107	; 0x6b
    103c:	0000004f 	andeq	r0, r0, pc, asr #32
    1040:	000013e5 	andeq	r1, r0, r5, ror #7
    1044:	0078680b 	rsbseq	r6, r8, fp, lsl #16
    1048:	004f2201 	subeq	r2, pc, r1, lsl #4
    104c:	14330000 	ldrtne	r0, [r3], #-0
    1050:	6c0b0000 	stcvs	0, cr0, [fp], {-0}
    1054:	22010078 	andcs	r0, r1, #120	; 0x78
    1058:	0000004f 	andeq	r0, r0, pc, asr #32
    105c:	00001488 	andeq	r1, r0, r8, lsl #9
    1060:	008e9c0c 	addeq	r9, lr, ip, lsl #24
    1064:	00000800 	andeq	r0, r0, r0, lsl #16
    1068:	0001a000 	andeq	sl, r1, r0
    106c:	030e0d00 	movweq	r0, #60672	; 0xed00
    1070:	23010000 	movwcs	r0, #4096	; 0x1000
    1074:	0000011c 	andeq	r0, r0, ip, lsl r1
    1078:	0000149b 	muleq	r0, fp, r4
    107c:	8ecc0c00 	cdphi	12, 12, cr0, cr12, cr0, {0}
    1080:	00080000 	andeq	r0, r8, r0
    1084:	01bd0000 			; <UNDEFINED> instruction: 0x01bd0000
    1088:	d60d0000 	strle	r0, [sp], -r0
    108c:	01000001 	tsteq	r0, r1
    1090:	00011c28 	andeq	r1, r1, r8, lsr #24
    1094:	00151300 	andseq	r1, r5, r0, lsl #6
    1098:	380c0000 	stmdacc	ip, {}	; <UNPREDICTABLE>
    109c:	1400008f 	strne	r0, [r0], #-143	; 0x8f
    10a0:	da000000 	ble	10a8 <_start-0x6f58>
    10a4:	0d000001 	stceq	0, cr0, [r0, #-4]
    10a8:	00000309 	andeq	r0, r0, r9, lsl #6
    10ac:	011c3001 	tsteq	ip, r1
    10b0:	157b0000 	ldrbne	r0, [fp, #-0]!
    10b4:	0c000000 	stceq	0, cr0, [r0], {-0}
    10b8:	00008f90 	muleq	r0, r0, pc	; <UNPREDICTABLE>
    10bc:	00000014 	andeq	r0, r0, r4, lsl r0
    10c0:	000001f7 	strdeq	r0, [r0], -r7
    10c4:	0003090d 	andeq	r0, r3, sp, lsl #18
    10c8:	1c370100 	ldfnes	f0, [r7], #-0
    10cc:	a3000001 	movwge	r0, #1
    10d0:	00000015 	andeq	r0, r0, r5, lsl r0
    10d4:	008f280e 	addeq	r2, pc, lr, lsl #16
    10d8:	00029d00 	andeq	r9, r2, r0, lsl #26
    10dc:	00021300 	andeq	r1, r2, r0, lsl #6
    10e0:	90080f00 	andls	r0, r8, r0, lsl #30
    10e4:	90049340 	andls	r9, r4, r0, asr #6
    10e8:	03049341 	movweq	r9, #17217	; 0x4341
    10ec:	002550f5 	strdeq	r5, [r5], -r5	; <UNPREDICTABLE>
    10f0:	008f700e 	addeq	r7, pc, lr
    10f4:	00029d00 	andeq	r9, r2, r0, lsl #26
    10f8:	00022f00 	andeq	r2, r2, r0, lsl #30
    10fc:	90080f00 	andls	r0, r8, r0, lsl #30
    1100:	90049340 	andls	r9, r4, r0, asr #6
    1104:	03049341 	movweq	r9, #17217	; 0x4341
    1108:	002550f5 	strdeq	r5, [r5], -r5	; <UNPREDICTABLE>
    110c:	008f8410 	addeq	r8, pc, r0, lsl r4	; <UNPREDICTABLE>
    1110:	00029d00 	andeq	r9, r2, r0, lsl #26
    1114:	90080f00 	andls	r0, r8, r0, lsl #30
    1118:	90049340 	andls	r9, r4, r0, asr #6
    111c:	03049341 	movweq	r9, #17217	; 0x4341
    1120:	002550f5 	strdeq	r5, [r5], -r5	; <UNPREDICTABLE>
    1124:	02fa1100 	rscseq	r1, sl, #0, 2
    1128:	1c010000 	stcne	0, cr0, [r1], {-0}
    112c:	0000025c 	andeq	r0, r0, ip, asr r2
    1130:	00000008 	andeq	r0, r0, r8
    1134:	50000000 	andpl	r0, r0, r0
    1138:	00251243 	eoreq	r1, r5, r3, asr #4
    113c:	f3110000 	vhadd.u16	d0, d1, d0
    1140:	01000002 	tsteq	r0, r2
    1144:	00025c1d 	andeq	r5, r2, sp, lsl ip
    1148:	00000800 	andeq	r0, r0, r0, lsl #16
    114c:	00000000 	andeq	r0, r0, r0
    1150:	18113c90 	ldmdane	r1, {r4, r7, sl, fp, ip, sp}
    1154:	01000003 	tsteq	r0, r3
    1158:	00025c1e 	andeq	r5, r2, lr, lsl ip
    115c:	759c0800 	ldrvc	r0, [ip, #2048]	; 0x800
    1160:	e43c8800 	ldrt	r8, [ip], #-2048	; 0x800
    1164:	13117e37 	tstne	r1, #880	; 0x370
    1168:	01000003 	tsteq	r0, r3
    116c:	00025c1f 	andeq	r5, r2, pc, lsl ip
    1170:	f3590800 	vsub.i16	d16, d9, d0
    1174:	6e1fc2f8 	mrcvs	2, 0, ip, cr15, cr8, {7}
    1178:	001301a5 	andseq	r0, r3, r5, lsr #3
    117c:	05000003 	streq	r0, [r0, #-3]
    1180:	0025012b 	eoreq	r0, r5, fp, lsr #2
    1184:	25140000 	ldrcs	r0, [r4, #-0]
    1188:	14000000 	strne	r0, [r0], #-0
    118c:	00000025 	andeq	r0, r0, r5, lsr #32
    1190:	01dc0000 	bicseq	r0, ip, r0
    1194:	00040000 	andeq	r0, r4, r0
    1198:	0000074c 	andeq	r0, r0, ip, asr #14
    119c:	00400104 	subeq	r0, r0, r4, lsl #2
    11a0:	1d010000 	stcne	0, cr0, [r1, #-0]
    11a4:	5e000003 	cdppl	0, 0, cr0, cr0, cr3, {0}
    11a8:	e8000001 	stmda	r0, {r0}
    11ac:	4800008f 	stmdami	r0, {r0, r1, r2, r3, r7}
    11b0:	af000001 	svcge	0x00000001
    11b4:	02000007 	andeq	r0, r0, #7
    11b8:	00dc0408 	sbcseq	r0, ip, r8, lsl #8
    11bc:	04020000 	streq	r0, [r2], #-0
    11c0:	00014807 	andeq	r4, r1, r7, lsl #16
    11c4:	08010200 	stmdaeq	r1, {r9}
    11c8:	00000032 	andeq	r0, r0, r2, lsr r0
    11cc:	42040402 	andmi	r0, r4, #33554432	; 0x2000000
    11d0:	02000001 	andeq	r0, r0, #1
    11d4:	00340601 	eorseq	r0, r4, r1, lsl #12
    11d8:	02020000 	andeq	r0, r2, #0
    11dc:	0000b205 	andeq	fp, r0, r5, lsl #4
    11e0:	01e40300 	mvneq	r0, r0, lsl #6
    11e4:	28020000 	stmdacs	r2, {}	; <UNPREDICTABLE>
    11e8:	0000005a 	andeq	r0, r0, sl, asr r0
    11ec:	05050402 	streq	r0, [r5, #-1026]	; 0x402
    11f0:	02000000 	andeq	r0, r0, #0
    11f4:	00000508 	andeq	r0, r0, r8, lsl #10
    11f8:	02020000 	andeq	r0, r2, #0
    11fc:	0000c407 	andeq	ip, r0, r7, lsl #8
    1200:	01ec0300 	mvneq	r0, r0, lsl #6
    1204:	34020000 	strcc	r0, [r2], #-0
    1208:	0000007a 	andeq	r0, r0, sl, ror r0
    120c:	20070402 	andcs	r0, r7, r2, lsl #8
    1210:	03000000 	movweq	r0, #0
    1214:	000001c0 	andeq	r0, r0, r0, asr #3
    1218:	008c3702 	addeq	r3, ip, r2, lsl #14
    121c:	08020000 	stmdaeq	r2, {}	; <UNPREDICTABLE>
    1220:	00001b07 	andeq	r1, r0, r7, lsl #22
    1224:	05040400 	streq	r0, [r4, #-1024]	; 0x400
    1228:	00746e69 	rsbseq	r6, r4, r9, ror #28
    122c:	25070402 	strcs	r0, [r7, #-1026]	; 0x402
    1230:	03000000 	movweq	r0, #0
    1234:	000001e2 	andeq	r0, r0, r2, ror #3
    1238:	006f0903 	rsbeq	r0, pc, r3, lsl #18
    123c:	f5030000 			; <UNDEFINED> instruction: 0xf5030000
    1240:	03000001 	movweq	r0, #1
    1244:	0000810a 	andeq	r8, r0, sl, lsl #2
    1248:	04080200 	streq	r0, [r8], #-512	; 0x200
    124c:	000000d7 	ldrdeq	r0, [r0], -r7
    1250:	44040805 	strmi	r0, [r4], #-2053	; 0x805
    1254:	000000df 	ldrdeq	r0, [r0], -pc	; <UNPREDICTABLE>
    1258:	77736c06 	ldrbvc	r6, [r3, -r6, lsl #24]!
    125c:	a1460400 	cmpge	r6, r0, lsl #8
    1260:	00000000 	andeq	r0, r0, r0
    1264:	77736d06 	ldrbvc	r6, [r3, -r6, lsl #26]!
    1268:	a1470400 	cmpge	r7, r0, lsl #8
    126c:	04000000 	streq	r0, [r0], #-0
    1270:	04080500 	streq	r0, [r8], #-1280	; 0x500
    1274:	0000f249 	andeq	pc, r0, r9, asr #4
    1278:	00770600 	rsbseq	r0, r7, r0, lsl #12
    127c:	00ac4b04 	adceq	r4, ip, r4, lsl #22
    1280:	00000000 	andeq	r0, r0, r0
    1284:	41040807 	tstmi	r4, r7, lsl #16
    1288:	0000011c 	andeq	r0, r0, ip, lsl r1
    128c:	000a2208 	andeq	r2, sl, r8, lsl #4
    1290:	25430400 	strbcs	r0, [r3, #-1024]	; 0x400
    1294:	08000000 	stmdaeq	r0, {}	; <UNPREDICTABLE>
    1298:	000001dc 	ldrdeq	r0, [r0], -ip
    129c:	00be4804 	adcseq	r4, lr, r4, lsl #16
    12a0:	db080000 	blle	2012a8 <__bss_end__+0x1f6cf8>
    12a4:	04000001 	streq	r0, [r0], #-1
    12a8:	0000df4c 	andeq	sp, r0, ip, asr #30
    12ac:	a9030000 	stmdbge	r3, {}	; <UNPREDICTABLE>
    12b0:	04000001 	streq	r0, [r0], #-1
    12b4:	0000f24d 	andeq	pc, r0, sp, asr #4
    12b8:	029f0900 	addseq	r0, pc, #0, 18
    12bc:	21010000 	mrscs	r0, (UNDEF: 1)
    12c0:	00000025 	andeq	r0, r0, r5, lsr #32
    12c4:	00008fe8 	andeq	r8, r0, r8, ror #31
    12c8:	00000148 	andeq	r0, r0, r8, asr #2
    12cc:	01c69c01 	biceq	r9, r6, r1, lsl #24
    12d0:	780a0000 	stmdavc	sl, {}	; <UNPREDICTABLE>
    12d4:	25210100 	strcs	r0, [r1, #-256]!	; 0x100
    12d8:	bb000000 	bllt	12e0 <_start-0x6d20>
    12dc:	0b000015 	bleq	1338 <_start-0x6cc8>
    12e0:	01003069 	tsteq	r0, r9, rrx
    12e4:	00004f23 	andeq	r4, r0, r3, lsr #30
    12e8:	0015f500 	andseq	pc, r5, r0, lsl #10
    12ec:	31690b00 	cmncc	r9, r0, lsl #22
    12f0:	4f230100 	svcmi	0x00230100
    12f4:	55000000 	strpl	r0, [r0, #-0]
    12f8:	0c000016 	stceq	0, cr0, [r0], {22}
    12fc:	0100306a 	tsteq	r0, sl, rrx
    1300:	00004f23 	andeq	r4, r0, r3, lsr #30
    1304:	0b510100 	bleq	144170c <__bss_end__+0x143715c>
    1308:	24010069 	strcs	r0, [r1], #-105	; 0x69
    130c:	000000a1 	andeq	r0, r0, r1, lsr #1
    1310:	000016a0 	andeq	r1, r0, r0, lsr #13
    1314:	01006a0b 	tsteq	r0, fp, lsl #20
    1318:	0000a124 	andeq	sl, r0, r4, lsr #2
    131c:	0016be00 	andseq	fp, r6, r0, lsl #28
    1320:	8fec0d00 	svchi	0x00ec0d00
    1324:	000c0000 	andeq	r0, ip, r0
    1328:	01ac0000 			; <UNDEFINED> instruction: 0x01ac0000
    132c:	0e0e0000 	cdpeq	0, 0, cr0, cr14, cr0, {0}
    1330:	01000003 	tsteq	r0, r3
    1334:	00011c25 	andeq	r1, r1, r5, lsr #24
    1338:	0016d100 	andseq	sp, r6, r0, lsl #2
    133c:	0c0f0000 	stceq	0, cr0, [pc], {-0}
    1340:	0c000091 	stceq	0, cr0, [r0], {145}	; 0x91
    1344:	0e000000 	cdpeq	0, 0, cr0, cr0, cr0, {0}
    1348:	00000295 	muleq	r0, r5, r2
    134c:	011c4801 	tsteq	ip, r1, lsl #16
    1350:	16f90000 	ldrbtne	r0, [r9], r0
    1354:	00000000 	andeq	r0, r0, r0
    1358:	00031810 	andeq	r1, r3, r0, lsl r8
    135c:	da1e0100 	ble	781764 <__bss_end__+0x7771b4>
    1360:	08000001 	stmdaeq	r0, {r0}
    1364:	8800759c 	stmdahi	r0, {r2, r3, r4, r7, r8, sl, ip, sp, lr}
    1368:	7e37e43c 	mrcvc	4, 1, lr, cr7, cr12, {1}
    136c:	00002511 	andeq	r2, r0, r1, lsl r5
    1370:	01bd0000 			; <UNDEFINED> instruction: 0x01bd0000
    1374:	00040000 	andeq	r0, r4, r0
    1378:	0000083b 	andeq	r0, r0, fp, lsr r8
    137c:	00400104 	subeq	r0, r0, r4, lsl #2
    1380:	27010000 	strcs	r0, [r1, -r0]
    1384:	5e000003 	cdppl	0, 0, cr0, cr0, cr3, {0}
    1388:	30000001 	andcc	r0, r0, r1
    138c:	28000091 	stmdacs	r0, {r0, r4, r7}
    1390:	a7000000 	strge	r0, [r0, -r0]
    1394:	02000008 	andeq	r0, r0, #8
    1398:	01480704 	cmpeq	r8, r4, lsl #14
    139c:	01020000 	mrseq	r0, (UNDEF: 2)
    13a0:	00003208 	andeq	r3, r0, r8, lsl #4
    13a4:	04080200 	streq	r0, [r8], #-512	; 0x200
    13a8:	000000dc 	ldrdeq	r0, [r0], -ip
    13ac:	42040402 	andmi	r0, r4, #33554432	; 0x2000000
    13b0:	02000001 	andeq	r0, r0, #1
    13b4:	00340601 	eorseq	r0, r4, r1, lsl #12
    13b8:	02020000 	andeq	r0, r2, #0
    13bc:	0000b205 	andeq	fp, r0, r5, lsl #4
    13c0:	05040200 	streq	r0, [r4, #-512]	; 0x200
    13c4:	00000005 	andeq	r0, r0, r5
    13c8:	00050802 	andeq	r0, r5, r2, lsl #16
    13cc:	02000000 	andeq	r0, r0, #0
    13d0:	00c40702 	sbceq	r0, r4, r2, lsl #14
    13d4:	ec030000 	stc	0, cr0, [r3], {-0}
    13d8:	02000001 	andeq	r0, r0, #1
    13dc:	00006f34 	andeq	r6, r0, r4, lsr pc
    13e0:	07040200 	streq	r0, [r4, -r0, lsl #4]
    13e4:	00000020 	andeq	r0, r0, r0, lsr #32
    13e8:	0001c003 	andeq	ip, r1, r3
    13ec:	81370200 	teqhi	r7, r0, lsl #4
    13f0:	02000000 	andeq	r0, r0, #0
    13f4:	001b0708 	andseq	r0, fp, r8, lsl #14
    13f8:	04040000 	streq	r0, [r4], #-0
    13fc:	746e6905 	strbtvc	r6, [lr], #-2309	; 0x905
    1400:	07040200 	streq	r0, [r4, -r0, lsl #4]
    1404:	00000025 	andeq	r0, r0, r5, lsr #32
    1408:	0001e203 	andeq	lr, r1, r3, lsl #4
    140c:	64090300 	strvs	r0, [r9], #-768	; 0x300
    1410:	03000000 	movweq	r0, #0
    1414:	000001f5 	strdeq	r0, [r0], -r5
    1418:	00760a03 	rsbseq	r0, r6, r3, lsl #20
    141c:	08020000 	stmdaeq	r2, {}	; <UNPREDICTABLE>
    1420:	0000d704 	andeq	sp, r0, r4, lsl #14
    1424:	04080500 	streq	r0, [r8], #-1280	; 0x500
    1428:	0000d444 	andeq	sp, r0, r4, asr #8
    142c:	736c0600 	cmnvc	ip, #0, 12
    1430:	46040077 			; <UNDEFINED> instruction: 0x46040077
    1434:	00000096 	muleq	r0, r6, r0
    1438:	736d0600 	cmnvc	sp, #0, 12
    143c:	47040077 	smlsdxmi	r4, r7, r0, r0
    1440:	00000096 	muleq	r0, r6, r0
    1444:	08050004 	stmdaeq	r5, {r2}
    1448:	00e74904 	rsceq	r4, r7, r4, lsl #18
    144c:	77060000 	strvc	r0, [r6, -r0]
    1450:	a14b0400 	cmpge	fp, r0, lsl #8
    1454:	00000000 	andeq	r0, r0, r0
    1458:	04080700 	streq	r0, [r8], #-1792	; 0x700
    145c:	00011141 	andeq	r1, r1, r1, asr #2
    1460:	0a220800 	beq	883468 <__bss_end__+0x878eb8>
    1464:	43040000 	movwmi	r0, #16384	; 0x4000
    1468:	00000033 	andeq	r0, r0, r3, lsr r0
    146c:	0001dc08 	andeq	sp, r1, r8, lsl #24
    1470:	b3480400 	movtlt	r0, #33792	; 0x8400
    1474:	08000000 	stmdaeq	r0, {}	; <UNPREDICTABLE>
    1478:	000001db 	ldrdeq	r0, [r0], -fp
    147c:	00d44c04 	sbcseq	r4, r4, r4, lsl #24
    1480:	03000000 	movweq	r0, #0
    1484:	000001a9 	andeq	r0, r0, r9, lsr #3
    1488:	00e74d04 	rsceq	r4, r7, r4, lsl #26
    148c:	00090000 	andeq	r0, r9, r0
    1490:	01000003 	tsteq	r0, r3
    1494:	0000331b 	andeq	r3, r0, fp, lsl r3
    1498:	00913000 	addseq	r3, r1, r0
    149c:	00002800 	andeq	r2, r0, r0, lsl #16
    14a0:	0a9c0100 	beq	fe7018a8 <__bss_end__+0xfe6f72f8>
    14a4:	1b010078 	blne	4168c <__bss_end__+0x370dc>
    14a8:	00000033 	andeq	r0, r0, r3, lsr r0
    14ac:	00001711 	andeq	r1, r0, r1, lsl r7
    14b0:	0100790b 	tsteq	r0, fp, lsl #18
    14b4:	0000331b 	andeq	r3, r0, fp, lsl r3
    14b8:	42900800 	addsmi	r0, r0, #0, 16
    14bc:	43900493 	orrsmi	r0, r0, #-1828716544	; 0x93000000
    14c0:	680c0493 	stmdavs	ip, {r0, r1, r4, r7, sl}
    14c4:	1d010078 	stcne	0, cr0, [r1, #-480]	; 0xfffffe20
    14c8:	00000096 	muleq	r0, r6, r0
    14cc:	0000173b 	andeq	r1, r0, fp, lsr r7
    14d0:	0079680c 	rsbseq	r6, r9, ip, lsl #16
    14d4:	00961d01 	addseq	r1, r6, r1, lsl #26
    14d8:	174e0000 	strbne	r0, [lr, -r0]
    14dc:	340d0000 	strcc	r0, [sp], #-0
    14e0:	04000091 	streq	r0, [r0], #-145	; 0x91
    14e4:	89000000 	stmdbhi	r0, {}	; <UNPREDICTABLE>
    14e8:	0e000001 	cdpeq	0, 0, cr0, cr0, cr1, {0}
    14ec:	000001d6 	ldrdeq	r0, [r0], -r6
    14f0:	01111e01 	tsteq	r1, r1, lsl #28
    14f4:	17610000 	strbne	r0, [r1, -r0]!
    14f8:	0d000000 	stceq	0, cr0, [r0, #-0]
    14fc:	00009138 	andeq	r9, r0, r8, lsr r1
    1500:	00000004 	andeq	r0, r0, r4
    1504:	000001a6 	andeq	r0, r0, r6, lsr #3
    1508:	0001d60e 	andeq	sp, r1, lr, lsl #12
    150c:	111f0100 	tstne	pc, r0, lsl #2
    1510:	79000001 	stmdbvc	r0, {r0}
    1514:	00000017 	andeq	r0, r0, r7, lsl r0
    1518:	00913c0f 	addseq	r3, r1, pc, lsl #24
    151c:	00001400 	andeq	r1, r0, r0, lsl #8
    1520:	03090e00 	movweq	r0, #40448	; 0x9e00
    1524:	20010000 	andcs	r0, r1, r0
    1528:	00000111 	andeq	r0, r0, r1, lsl r1
    152c:	00001791 	muleq	r0, r1, r7
    1530:	7e000000 	cdpvc	0, 0, cr0, cr0, cr0, {0}
    1534:	04000002 	streq	r0, [r0], #-2
    1538:	00091200 	andeq	r1, r9, r0, lsl #4
    153c:	40010400 	andmi	r0, r1, r0, lsl #8
    1540:	01000000 	mrseq	r0, (UNDEF: 0)
    1544:	00000334 	andeq	r0, r0, r4, lsr r3
    1548:	0000015e 	andeq	r0, r0, lr, asr r1
    154c:	00009158 	andeq	r9, r0, r8, asr r1
    1550:	000000e4 	andeq	r0, r0, r4, ror #1
    1554:	0000096c 	andeq	r0, r0, ip, ror #18
    1558:	dc040802 	stcle	8, cr0, [r4], {2}
    155c:	02000000 	andeq	r0, r0, #0
    1560:	01480704 	cmpeq	r8, r4, lsl #14
    1564:	01020000 	mrseq	r0, (UNDEF: 2)
    1568:	00003208 	andeq	r3, r0, r8, lsl #4
    156c:	04040200 	streq	r0, [r4], #-512	; 0x200
    1570:	00000142 	andeq	r0, r0, r2, asr #2
    1574:	34060102 	strcc	r0, [r6], #-258	; 0x102
    1578:	02000000 	andeq	r0, r0, #0
    157c:	00b20502 	adcseq	r0, r2, r2, lsl #10
    1580:	e4030000 	str	r0, [r3], #-0
    1584:	02000001 	andeq	r0, r0, #1
    1588:	00005a28 	andeq	r5, r0, r8, lsr #20
    158c:	05040200 	streq	r0, [r4, #-512]	; 0x200
    1590:	00000005 	andeq	r0, r0, r5
    1594:	00050802 	andeq	r0, r5, r2, lsl #16
    1598:	02000000 	andeq	r0, r0, #0
    159c:	00c40702 	sbceq	r0, r4, r2, lsl #14
    15a0:	ec030000 	stc	0, cr0, [r3], {-0}
    15a4:	02000001 	andeq	r0, r0, #1
    15a8:	00007a34 	andeq	r7, r0, r4, lsr sl
    15ac:	07040200 	streq	r0, [r4, -r0, lsl #4]
    15b0:	00000020 	andeq	r0, r0, r0, lsr #32
    15b4:	0001c003 	andeq	ip, r1, r3
    15b8:	8c370200 	lfmhi	f0, 4, [r7], #-0
    15bc:	02000000 	andeq	r0, r0, #0
    15c0:	001b0708 	andseq	r0, fp, r8, lsl #14
    15c4:	04040000 	streq	r0, [r4], #-0
    15c8:	746e6905 	strbtvc	r6, [lr], #-2309	; 0x905
    15cc:	07040200 	streq	r0, [r4, -r0, lsl #4]
    15d0:	00000025 	andeq	r0, r0, r5, lsr #32
    15d4:	0001e203 	andeq	lr, r1, r3, lsl #4
    15d8:	6f090300 	svcvs	0x00090300
    15dc:	03000000 	movweq	r0, #0
    15e0:	000001f5 	strdeq	r0, [r0], -r5
    15e4:	00810a03 	addeq	r0, r1, r3, lsl #20
    15e8:	08020000 	stmdaeq	r2, {}	; <UNPREDICTABLE>
    15ec:	0000d704 	andeq	sp, r0, r4, lsl #14
    15f0:	04080500 	streq	r0, [r8], #-1280	; 0x500
    15f4:	0000df44 	andeq	sp, r0, r4, asr #30
    15f8:	736c0600 	cmnvc	ip, #0, 12
    15fc:	46040077 			; <UNDEFINED> instruction: 0x46040077
    1600:	000000a1 	andeq	r0, r0, r1, lsr #1
    1604:	736d0600 	cmnvc	sp, #0, 12
    1608:	47040077 	smlsdxmi	r4, r7, r0, r0
    160c:	000000a1 	andeq	r0, r0, r1, lsr #1
    1610:	08050004 	stmdaeq	r5, {r2}
    1614:	00f24904 	rscseq	r4, r2, r4, lsl #18
    1618:	77060000 	strvc	r0, [r6, -r0]
    161c:	ac4b0400 	cfstrdge	mvd0, [fp], {-0}
    1620:	00000000 	andeq	r0, r0, r0
    1624:	04080700 	streq	r0, [r8], #-1792	; 0x700
    1628:	00011c41 	andeq	r1, r1, r1, asr #24
    162c:	0a220800 	beq	883634 <__bss_end__+0x879084>
    1630:	43040000 	movwmi	r0, #16384	; 0x4000
    1634:	00000025 	andeq	r0, r0, r5, lsr #32
    1638:	0001dc08 	andeq	sp, r1, r8, lsl #24
    163c:	be480400 	cdplt	4, 4, cr0, cr8, cr0, {0}
    1640:	08000000 	stmdaeq	r0, {}	; <UNPREDICTABLE>
    1644:	000001db 	ldrdeq	r0, [r0], -fp
    1648:	00df4c04 	sbcseq	r4, pc, r4, lsl #24
    164c:	03000000 	movweq	r0, #0
    1650:	000001a9 	andeq	r0, r0, r9, lsr #3
    1654:	00f24d04 	rscseq	r4, r2, r4, lsl #26
    1658:	73090000 	movwvc	r0, #36864	; 0x9000
    165c:	01006e69 	tsteq	r0, r9, ror #28
    1660:	00002537 	andeq	r2, r0, r7, lsr r5
    1664:	00915800 	addseq	r5, r1, r0, lsl #16
    1668:	0000e400 	andeq	lr, r0, r0, lsl #8
    166c:	199c0100 	ldmibne	ip, {r8}
    1670:	0a000002 	beq	1680 <_start-0x6980>
    1674:	37010078 	smlsdxcc	r1, r8, r0, r0
    1678:	00000025 	andeq	r0, r0, r5, lsr #32
    167c:	000017a9 	andeq	r1, r0, r9, lsr #15
    1680:	0100790b 	tsteq	r0, fp, lsl #18
    1684:	00021939 	andeq	r1, r2, r9, lsr r9
    1688:	68910200 	ldmvs	r1, {r9}
    168c:	01007a0c 	tsteq	r0, ip, lsl #20
    1690:	00002539 	andeq	r2, r0, r9, lsr r5
    1694:	00000800 	andeq	r0, r0, r0, lsl #16
    1698:	00000000 	andeq	r0, r0, r0
    169c:	6e0d0000 	cdpvs	0, 0, cr0, cr13, cr0, {0}
    16a0:	4f3a0100 	svcmi	0x003a0100
    16a4:	17000000 	strne	r0, [r0, -r0]
    16a8:	0d000018 	stceq	0, cr0, [r0, #-96]	; 0xffffffa0
    16ac:	01007869 	tsteq	r0, r9, ror #16
    16b0:	00004f3a 	andeq	r4, r0, sl, lsr pc
    16b4:	00182a00 	andseq	r2, r8, r0, lsl #20
    16b8:	91600e00 	cmnls	r0, r0, lsl #28
    16bc:	00040000 	andeq	r0, r4, r0
    16c0:	01a30000 			; <UNDEFINED> instruction: 0x01a30000
    16c4:	d60f0000 	strle	r0, [pc], -r0
    16c8:	01000001 	tsteq	r0, r1
    16cc:	00011c3d 	andeq	r1, r1, sp, lsr ip
    16d0:	00184800 	andseq	r4, r8, r0, lsl #16
    16d4:	9c100000 	ldcls	0, cr0, [r0], {-0}
    16d8:	29000091 	stmdbcs	r0, {r0, r4, r7}
    16dc:	cc000002 	stcgt	0, cr0, [r0], {2}
    16e0:	11000001 	tstne	r0, r1
    16e4:	30015001 	andcc	r5, r1, r1
    16e8:	42900811 	addsmi	r0, r0, #1114112	; 0x110000
    16ec:	43900493 	orrsmi	r0, r0, #-1828716544	; 0x93000000
    16f0:	f40b0493 	vst3.32	{d0-d2}, [fp :64], r3
    16f4:	00000825 	andeq	r0, r0, r5, lsr #16
    16f8:	00000000 	andeq	r0, r0, r0
    16fc:	10000000 	andne	r0, r0, r0
    1700:	000091b8 			; <UNDEFINED> instruction: 0x000091b8
    1704:	00000249 	andeq	r0, r0, r9, asr #4
    1708:	000001e0 	andeq	r0, r0, r0, ror #3
    170c:	02500111 	subseq	r0, r0, #1073741828	; 0x40000004
    1710:	1000007d 	andne	r0, r0, sp, ror r0
    1714:	000091e4 	andeq	r9, r0, r4, ror #3
    1718:	00000229 	andeq	r0, r0, r9, lsr #4
    171c:	000001f3 	strdeq	r0, [r0], -r3
    1720:	01500111 	cmpeq	r0, r1, lsl r1
    1724:	f4120031 			; <UNDEFINED> instruction: 0xf4120031
    1728:	6a000091 	bvs	1974 <_start-0x668c>
    172c:	10000002 	andne	r0, r0, r2
    1730:	00009208 	andeq	r9, r0, r8, lsl #4
    1734:	00000229 	andeq	r0, r0, r9, lsr #4
    1738:	0000020f 	andeq	r0, r0, pc, lsl #4
    173c:	01500111 	cmpeq	r0, r1, lsl r1
    1740:	1c120031 	ldcne	0, cr0, [r2], {49}	; 0x31
    1744:	6a000092 	bvs	1994 <_start-0x666c>
    1748:	00000002 	andeq	r0, r0, r2
    174c:	00002513 	andeq	r2, r0, r3, lsl r5
    1750:	00022900 	andeq	r2, r2, r0, lsl #18
    1754:	002c1400 	eoreq	r1, ip, r0, lsl #8
    1758:	00010000 	andeq	r0, r1, r0
    175c:	00015115 	andeq	r5, r1, r5, lsl r1
    1760:	01460400 	cmpeq	r6, r0, lsl #8
    1764:	00000025 	andeq	r0, r0, r5, lsr #32
    1768:	00000249 	andeq	r0, r0, r9, asr #4
    176c:	00002516 	andeq	r2, r0, r6, lsl r5
    1770:	00251600 	eoreq	r1, r5, r0, lsl #12
    1774:	93160000 	tstls	r6, #0
    1778:	00000000 	andeq	r0, r0, r0
    177c:	00020715 	andeq	r0, r2, r5, lsl r7
    1780:	01450400 	cmpeq	r5, r0, lsl #8
    1784:	00000093 	muleq	r0, r3, r0
    1788:	00000264 	andeq	r0, r0, r4, ror #4
    178c:	00002516 	andeq	r2, r0, r6, lsl r5
    1790:	02641600 	rsbeq	r1, r4, #0, 12
    1794:	17000000 	strne	r0, [r0, -r0]
    1798:	00002504 	andeq	r2, r0, r4, lsl #10
    179c:	01c91800 	biceq	r1, r9, r0, lsl #16
    17a0:	47040000 	strmi	r0, [r4, -r0]
    17a4:	00002501 	andeq	r2, r0, r1, lsl #10
    17a8:	00251600 	eoreq	r1, r5, r0, lsl #12
    17ac:	25160000 	ldrcs	r0, [r6, #-0]
    17b0:	00000000 	andeq	r0, r0, r0
    17b4:	00019100 	andeq	r9, r1, r0, lsl #2
    17b8:	5f000400 	svcpl	0x00000400
    17bc:	0400000a 	streq	r0, [r0], #-10
    17c0:	00004001 	andeq	r4, r0, r1
    17c4:	034b0100 	movteq	r0, #45312	; 0xb100
    17c8:	036d0000 	cmneq	sp, #0
    17cc:	92400000 	subls	r0, r0, #0
    17d0:	00580000 	subseq	r0, r8, r0
    17d4:	0a3d0000 	beq	f417dc <__bss_end__+0xf3722c>
    17d8:	3c020000 	stccc	0, cr0, [r2], {-0}
    17dc:	02000003 	andeq	r0, r0, #3
    17e0:	00003028 	andeq	r3, r0, r8, lsr #32
    17e4:	03630300 	cmneq	r3, #0, 6
    17e8:	03040000 	movweq	r0, #16384	; 0x4000
    17ec:	00004700 	andeq	r4, r0, r0, lsl #14
    17f0:	03b30400 			; <UNDEFINED> instruction: 0x03b30400
    17f4:	00470000 	subeq	r0, r7, r0
    17f8:	00000000 	andeq	r0, r0, r0
    17fc:	65020405 	strvs	r0, [r2, #-1029]	; 0x405
    1800:	02000003 	andeq	r0, r0, #3
    1804:	00002562 	andeq	r2, r0, r2, ror #10
    1808:	05040600 	streq	r0, [r4, #-1536]	; 0x600
    180c:	00746e69 	rsbseq	r6, r4, r9, ror #28
    1810:	25070407 	strcs	r0, [r7, #-1031]	; 0x407
    1814:	07000000 	streq	r0, [r0, -r0]
    1818:	00340601 	eorseq	r0, r4, r1, lsl #12
    181c:	02070000 	andeq	r0, r7, #0
    1820:	0000b205 	andeq	fp, r0, r5, lsl #4
    1824:	05040700 	streq	r0, [r4, #-1792]	; 0x700
    1828:	00000005 	andeq	r0, r0, r5
    182c:	00050807 	andeq	r0, r5, r7, lsl #16
    1830:	07000000 	streq	r0, [r0, -r0]
    1834:	00320801 	eorseq	r0, r2, r1, lsl #16
    1838:	02070000 	andeq	r0, r7, #0
    183c:	0000c407 	andeq	ip, r0, r7, lsl #8
    1840:	07040700 	streq	r0, [r4, -r0, lsl #14]
    1844:	00000020 	andeq	r0, r0, r0, lsr #32
    1848:	1b070807 	blne	1c386c <__bss_end__+0x1b92bc>
    184c:	07000000 	streq	r0, [r0, -r0]
    1850:	01480704 	cmpeq	r8, r4, lsl #14
    1854:	04080000 	streq	r0, [r8], #-0
    1858:	000000a7 	andeq	r0, r0, r7, lsr #1
    185c:	3b080107 	blcc	201c80 <__bss_end__+0x1f76d0>
    1860:	08000000 	stmdaeq	r0, {}	; <UNPREDICTABLE>
    1864:	0000b404 	andeq	fp, r0, r4, lsl #8
    1868:	00a70900 	adceq	r0, r7, r0, lsl #18
    186c:	5c0a0000 	stcpl	0, cr0, [sl], {-0}
    1870:	01000003 	tsteq	r0, r3
    1874:	00005406 	andeq	r5, r0, r6, lsl #8
    1878:	00924000 	addseq	r4, r2, r0
    187c:	00005800 	andeq	r5, r0, r0, lsl #16
    1880:	439c0100 	orrsmi	r0, ip, #0, 2
    1884:	0b000001 	bleq	1890 <_start-0x6770>
    1888:	00746d66 	rsbseq	r6, r4, r6, ror #26
    188c:	00ae0601 	adceq	r0, lr, r1, lsl #12
    1890:	91020000 	mrsls	r0, (UNDEF: 2)
    1894:	620d0c70 	andvs	r0, sp, #112, 24	; 0x7000
    1898:	01006675 	tsteq	r0, r5, ror r6
    189c:	00014308 	andeq	r4, r1, r8, lsl #6
    18a0:	b0030500 	andlt	r0, r3, r0, lsl #10
    18a4:	0e0000a1 	cdpeq	0, 0, cr0, cr0, cr1, {5}
    18a8:	0000077b 	andeq	r0, r0, fp, ror r7
    18ac:	00490901 	subeq	r0, r9, r1, lsl #18
    18b0:	91020000 	mrsls	r0, (UNDEF: 2)
    18b4:	7a730f5c 	bvc	1cc562c <__bss_end__+0x1cbb07c>
    18b8:	540c0100 	strpl	r0, [ip], #-256	; 0x100
    18bc:	60000000 	andvs	r0, r0, r0
    18c0:	10000018 	andne	r0, r0, r8, lsl r0
    18c4:	00009268 	andeq	r9, r0, r8, ror #4
    18c8:	00000174 	andeq	r0, r0, r4, ror r1
    18cc:	00000136 	andeq	r0, r0, r6, lsr r1
    18d0:	02530111 	subseq	r0, r3, #1073741828	; 0x40000004
    18d4:	01114c91 			; <UNDEFINED> instruction: 0x01114c91
    18d8:	48910352 	ldmmi	r1, {r1, r4, r6, r8, r9}
    18dc:	51011106 	tstpl	r1, r6, lsl #2
    18e0:	04000a03 	streq	r0, [r0], #-2563	; 0xa03
    18e4:	02500111 	subseq	r0, r0, #1073741828	; 0x40000004
    18e8:	12000074 	andne	r0, r0, #116	; 0x74
    18ec:	0000927c 	andeq	r9, r0, ip, ror r2
    18f0:	02500111 	subseq	r0, r0, #1073741828	; 0x40000004
    18f4:	00000074 	andeq	r0, r0, r4, ror r0
    18f8:	0000a713 	andeq	sl, r0, r3, lsl r7
    18fc:	00015400 	andeq	r5, r1, r0, lsl #8
    1900:	009a1400 	addseq	r1, sl, r0, lsl #8
    1904:	03ff0000 	mvnseq	r0, #0
    1908:	00541500 	subseq	r1, r4, r0, lsl #10
    190c:	01630000 	cmneq	r3, r0
    1910:	ae160000 	cdpge	0, 1, cr0, cr6, cr0, {0}
    1914:	00000000 	andeq	r0, r0, r0
    1918:	0003cd17 	andeq	ip, r3, r7, lsl sp
    191c:	6e220400 	cdpvs	4, 2, cr0, cr2, cr0, {0}
    1920:	08000001 	stmdaeq	r0, {r0}
    1924:	00015404 	andeq	r5, r1, r4, lsl #8
    1928:	03591800 	cmpeq	r9, #0, 16
    192c:	02050000 	andeq	r0, r5, #0
    1930:	00000054 	andeq	r0, r0, r4, asr r0
    1934:	0000a116 	andeq	sl, r0, r6, lsl r1
    1938:	00541600 	subseq	r1, r4, r0, lsl #12
    193c:	ae160000 	cdpge	0, 1, cr0, cr6, cr0, {0}
    1940:	16000000 	strne	r0, [r0], -r0
    1944:	00000049 	andeq	r0, r0, r9, asr #32
    1948:	00ee0000 	rsceq	r0, lr, r0
    194c:	00040000 	andeq	r0, r4, r0
    1950:	00000b90 	muleq	r0, r0, fp
    1954:	00400104 	subeq	r0, r0, r4, lsl #2
    1958:	b8010000 	stmdalt	r1, {}	; <UNPREDICTABLE>
    195c:	6d000003 	stcvs	0, cr0, [r0, #-12]
    1960:	98000003 	stmdals	r0, {r0, r1}
    1964:	34000092 	strcc	r0, [r0], #-146	; 0x92
    1968:	4d000000 	stcmi	0, cr0, [r0, #-0]
    196c:	0200000b 	andeq	r0, r0, #11
    1970:	6e690504 	cdpvs	5, 6, cr0, cr9, cr4, {0}
    1974:	04030074 	streq	r0, [r3], #-116	; 0x74
    1978:	00002507 	andeq	r2, r0, r7, lsl #10
    197c:	06010300 	streq	r0, [r1], -r0, lsl #6
    1980:	00000034 	andeq	r0, r0, r4, lsr r0
    1984:	b2050203 	andlt	r0, r5, #805306368	; 0x30000000
    1988:	03000000 	movweq	r0, #0
    198c:	00050504 	andeq	r0, r5, r4, lsl #10
    1990:	08030000 	stmdaeq	r3, {}	; <UNPREDICTABLE>
    1994:	00000005 	andeq	r0, r0, r5
    1998:	08010300 	stmdaeq	r1, {r8, r9}
    199c:	00000032 	andeq	r0, r0, r2, lsr r0
    19a0:	c4070203 	strgt	r0, [r7], #-515	; 0x203
    19a4:	03000000 	movweq	r0, #0
    19a8:	00200704 	eoreq	r0, r0, r4, lsl #14
    19ac:	08030000 	stmdaeq	r3, {}	; <UNPREDICTABLE>
    19b0:	00001b07 	andeq	r1, r0, r7, lsl #22
    19b4:	07040300 	streq	r0, [r4, -r0, lsl #6]
    19b8:	00000148 	andeq	r0, r0, r8, asr #2
    19bc:	3b080103 	blcc	201dd0 <__bss_end__+0x1f7820>
    19c0:	04000000 	streq	r0, [r0], #-0
    19c4:	00007f04 	andeq	r7, r0, r4, lsl #30
    19c8:	00720500 	rsbseq	r0, r2, r0, lsl #10
    19cc:	c4060000 	strgt	r0, [r6], #-0
    19d0:	01000003 	tsteq	r0, r3
    19d4:	00002504 	andeq	r2, r0, r4, lsl #10
    19d8:	00929800 	addseq	r9, r2, r0, lsl #16
    19dc:	00003400 	andeq	r3, r0, r0, lsl #8
    19e0:	ab9c0100 	blge	fe701de8 <__bss_end__+0xfe6f7838>
    19e4:	07000000 	streq	r0, [r0, -r0]
    19e8:	04010070 	streq	r0, [r1], #-112	; 0x70
    19ec:	00000079 	andeq	r0, r0, r9, ror r0
    19f0:	00001889 	andeq	r1, r0, r9, lsl #17
    19f4:	00250800 	eoreq	r0, r5, r0, lsl #16
    19f8:	00ba0000 	adcseq	r0, sl, r0
    19fc:	25090000 	strcs	r0, [r9, #-0]
    1a00:	00000000 	andeq	r0, r0, r0
    1a04:	0003d20a 	andeq	sp, r3, sl, lsl #4
    1a08:	c51d0200 	ldrgt	r0, [sp, #-512]	; 0x200
    1a0c:	04000000 	streq	r0, [r0], #-0
    1a10:	0000ab04 	andeq	sl, r0, r4, lsl #22
    1a14:	00250800 	eoreq	r0, r5, r0, lsl #16
    1a18:	00da0000 	sbcseq	r0, sl, r0
    1a1c:	79090000 	stmdbvc	r9, {}	; <UNPREDICTABLE>
    1a20:	00000000 	andeq	r0, r0, r0
    1a24:	0003cd0b 	andeq	ip, r3, fp, lsl #26
    1a28:	eb0c0100 	bl	301e30 <__bss_end__+0x2f7880>
    1a2c:	05000000 	streq	r0, [r0, #-0]
    1a30:	009ec803 	addseq	ip, lr, r3, lsl #16
    1a34:	cb040400 	blgt	102a3c <__bss_end__+0xf848c>
    1a38:	00000000 	andeq	r0, r0, r0
    1a3c:	000008b9 			; <UNDEFINED> instruction: 0x000008b9
    1a40:	0c290004 	stceq	0, cr0, [r9], #-16
    1a44:	01040000 	mrseq	r0, (UNDEF: 4)
    1a48:	00000040 	andeq	r0, r0, r0, asr #32
    1a4c:	00044201 	andeq	r4, r4, r1, lsl #4
    1a50:	00036d00 	andeq	r6, r3, r0, lsl #26
    1a54:	0092d000 	addseq	sp, r2, r0
    1a58:	00067000 	andeq	r7, r6, r0
    1a5c:	000bf100 	andeq	pc, fp, r0, lsl #2
    1a60:	04080200 	streq	r0, [r8], #-512	; 0x200
    1a64:	000000dc 	ldrdeq	r0, [r0], -ip
    1a68:	69050403 	stmdbvs	r5, {r0, r1, sl}
    1a6c:	0200746e 	andeq	r7, r0, #1845493760	; 0x6e000000
    1a70:	00250704 	eoreq	r0, r5, r4, lsl #14
    1a74:	01020000 	mrseq	r0, (UNDEF: 2)
    1a78:	00003406 	andeq	r3, r0, r6, lsl #8
    1a7c:	05020200 	streq	r0, [r2, #-512]	; 0x200
    1a80:	000000b2 	strheq	r0, [r0], -r2
    1a84:	05050402 	streq	r0, [r5, #-1026]	; 0x402
    1a88:	02000000 	andeq	r0, r0, #0
    1a8c:	00000508 	andeq	r0, r0, r8, lsl #10
    1a90:	01020000 	mrseq	r0, (UNDEF: 2)
    1a94:	00003208 	andeq	r3, r0, r8, lsl #4
    1a98:	07020200 	streq	r0, [r2, -r0, lsl #4]
    1a9c:	000000c4 	andeq	r0, r0, r4, asr #1
    1aa0:	20070402 	andcs	r0, r7, r2, lsl #8
    1aa4:	02000000 	andeq	r0, r0, #0
    1aa8:	001b0708 	andseq	r0, fp, r8, lsl #14
    1aac:	04020000 	streq	r0, [r2], #-0
    1ab0:	00014807 	andeq	r4, r1, r7, lsl #16
    1ab4:	05040400 	streq	r0, [r4, #-1024]	; 0x400
    1ab8:	00008104 	andeq	r8, r0, r4, lsl #2
    1abc:	08010200 	stmdaeq	r1, {r9}
    1ac0:	0000003b 	andeq	r0, r0, fp, lsr r0
    1ac4:	008e0405 	addeq	r0, lr, r5, lsl #8
    1ac8:	81060000 	mrshi	r0, (UNDEF: 6)
    1acc:	07000000 	streq	r0, [r0, -r0]
    1ad0:	0000033c 	andeq	r0, r0, ip, lsr r3
    1ad4:	009e2802 	addseq	r2, lr, r2, lsl #16
    1ad8:	63080000 	movwvs	r0, #32768	; 0x8000
    1adc:	04000003 	streq	r0, [r0], #-3
    1ae0:	00b50004 	adcseq	r0, r5, r4
    1ae4:	b3090000 	movwlt	r0, #36864	; 0x9000
    1ae8:	79000003 	stmdbvc	r0, {r0, r1}
    1aec:	00000000 	andeq	r0, r0, r0
    1af0:	03650700 	cmneq	r5, #0, 14
    1af4:	62020000 	andvs	r0, r2, #0
    1af8:	00000093 	muleq	r0, r3, r0
    1afc:	0004100a 	andeq	r1, r4, sl
    1b00:	2c270100 	stfcss	f0, [r7], #-0
    1b04:	d0000000 	andle	r0, r0, r0
    1b08:	14000092 	strne	r0, [r0], #-146	; 0x92
    1b0c:	01000000 	mrseq	r0, (UNDEF: 0)
    1b10:	0000e79c 	muleq	r0, ip, r7
    1b14:	00630b00 	rsbeq	r0, r3, r0, lsl #22
    1b18:	002c2701 	eoreq	r2, ip, r1, lsl #14
    1b1c:	18a70000 	stmiane	r7!, {}	; <UNPREDICTABLE>
    1b20:	0c000000 	stceq	0, cr0, [r0], {-0}
    1b24:	00646170 	rsbeq	r6, r4, r0, ror r1
    1b28:	007b2e01 	rsbseq	r2, fp, r1, lsl #28
    1b2c:	92e40000 	rscls	r0, r4, #0
    1b30:	002c0000 	eoreq	r0, ip, r0
    1b34:	9c010000 	stcls	0, cr0, [r1], {-0}
    1b38:	00000137 	andeq	r0, r0, r7, lsr r1
    1b3c:	0100700b 	tsteq	r0, fp
    1b40:	00007b2e 	andeq	r7, r0, lr, lsr #22
    1b44:	0018d500 	andseq	sp, r8, r0, lsl #10
    1b48:	07590d00 	ldrbeq	r0, [r9, -r0, lsl #26]
    1b4c:	2e010000 	cdpcs	0, 0, cr0, cr1, cr0, {0}
    1b50:	0000007b 	andeq	r0, r0, fp, ror r0
    1b54:	00001900 	andeq	r1, r0, r0, lsl #18
    1b58:	0004750e 	andeq	r7, r4, lr, lsl #10
    1b5c:	2c2e0100 	stfcss	f0, [lr], #-0
    1b60:	01000000 	mrseq	r0, (UNDEF: 0)
    1b64:	656c0f52 	strbvs	r0, [ip, #-3922]!	; 0xf52
    1b68:	2f01006e 	svccs	0x0001006e
    1b6c:	0000002c 	andeq	r0, r0, ip, lsr #32
    1b70:	0a005101 	beq	15f7c <__bss_end__+0xb9cc>
    1b74:	00000401 	andeq	r0, r0, r1, lsl #8
    1b78:	007b3701 	rsbseq	r3, fp, r1, lsl #14
    1b7c:	93100000 	tstls	r0, #0
    1b80:	00400000 	subeq	r0, r0, r0
    1b84:	9c010000 	stcls	0, cr0, [r1], {-0}
    1b88:	000001a3 	andeq	r0, r0, r3, lsr #3
    1b8c:	7473640b 	ldrbtvc	r6, [r3], #-1035	; 0x40b
    1b90:	7b370100 	blvc	dc1f98 <__bss_end__+0xdb79e8>
    1b94:	21000000 	mrscs	r0, (UNDEF: 0)
    1b98:	0b000019 	bleq	1c04 <_start-0x63fc>
    1b9c:	3701006e 	strcc	r0, [r1, -lr, rrx]
    1ba0:	0000002c 	andeq	r0, r0, ip, lsr #32
    1ba4:	00001959 	andeq	r1, r0, r9, asr r9
    1ba8:	0100700b 	tsteq	r0, fp
    1bac:	00007b37 	andeq	r7, r0, r7, lsr fp
    1bb0:	00197a00 	andseq	r7, r9, r0, lsl #20
    1bb4:	050a0d00 	streq	r0, [sl, #-3328]	; 0xd00
    1bb8:	37010000 	strcc	r0, [r1, -r0]
    1bbc:	0000007b 	andeq	r0, r0, fp, ror r0
    1bc0:	000019b0 			; <UNDEFINED> instruction: 0x000019b0
    1bc4:	6e656c10 	mcrvs	12, 3, r6, cr5, cr0, {0}
    1bc8:	2c390100 	ldfcss	f0, [r9], #-0
    1bcc:	ce000000 	cdpgt	0, 0, cr0, cr0, cr0, {0}
    1bd0:	0f000019 	svceq	0x00000019
    1bd4:	3d010073 	stccc	0, cr0, [r1, #-460]	; 0xfffffe34
    1bd8:	0000007b 	andeq	r0, r0, fp, ror r0
    1bdc:	0a005001 	beq	15be8 <__bss_end__+0xb638>
    1be0:	00000453 	andeq	r0, r0, r3, asr r4
    1be4:	0048cc01 	subeq	ip, r8, r1, lsl #24
    1be8:	93500000 	cmpls	r0, #0
    1bec:	000c0000 	andeq	r0, ip, r0
    1bf0:	9c010000 	stcls	0, cr0, [r1], {-0}
    1bf4:	000001ca 	andeq	r0, r0, sl, asr #3
    1bf8:	0100640b 	tsteq	r0, fp, lsl #8
    1bfc:	000025cc 	andeq	r2, r0, ip, asr #11
    1c00:	0019f500 	andseq	pc, r9, r0, lsl #10
    1c04:	180a0000 	stmdane	sl, {}	; <UNPREDICTABLE>
    1c08:	01000004 	tsteq	r0, r4
    1c0c:	000033d0 	ldrdeq	r3, [r0], -r0
    1c10:	00935c00 	addseq	r5, r3, r0, lsl #24
    1c14:	00004c00 	andeq	r4, r0, r0, lsl #24
    1c18:	fa9c0100 	blx	fe702020 <__bss_end__+0xfe6f7a70>
    1c1c:	0b000001 	bleq	1c28 <_start-0x63d8>
    1c20:	d0010064 	andle	r0, r1, r4, rrx
    1c24:	00000025 	andeq	r0, r0, r5, lsr #32
    1c28:	00001a1f 	andeq	r1, r0, pc, lsl sl
    1c2c:	00937811 	addseq	r7, r3, r1, lsl r8
    1c30:	0001a300 	andeq	sl, r1, r0, lsl #6
    1c34:	eb0a0000 	bl	281c3c <__bss_end__+0x27768c>
    1c38:	01000003 	tsteq	r0, r3
    1c3c:	000048d7 	ldrdeq	r4, [r0], -r7
    1c40:	0093a800 	addseq	sl, r3, r0, lsl #16
    1c44:	00000c00 	andeq	r0, r0, r0, lsl #24
    1c48:	3b9c0100 	blcc	fe702050 <__bss_end__+0xfe6f7aa0>
    1c4c:	0b000002 	bleq	1c5c <_start-0x63a4>
    1c50:	d7010064 	strle	r0, [r1, -r4, rrx]
    1c54:	00000025 	andeq	r0, r0, r5, lsr #32
    1c58:	00001a4b 	andeq	r1, r0, fp, asr #20
    1c5c:	0093b012 	addseq	fp, r3, r2, lsl r0
    1c60:	0001a300 	andeq	sl, r1, r0, lsl #6
    1c64:	90081300 	andls	r1, r8, r0, lsl #6
    1c68:	90049340 	andls	r9, r4, r0, asr #6
    1c6c:	05049341 	streq	r9, [r4, #-833]	; 0x341
    1c70:	40f503f3 	ldrshtmi	r0, [r5], #51	; 0x33
    1c74:	0a000025 	beq	1d10 <_start-0x62f0>
    1c78:	0000049b 	muleq	r0, fp, r4
    1c7c:	007b4701 	rsbseq	r4, fp, r1, lsl #14
    1c80:	93b40000 			; <UNDEFINED> instruction: 0x93b40000
    1c84:	01b00000 	movseq	r0, r0
    1c88:	9c010000 	stcls	0, cr0, [r1], {-0}
    1c8c:	00000372 	andeq	r0, r0, r2, ror r3
    1c90:	0007590d 	andeq	r5, r7, sp, lsl #18
    1c94:	33470100 	movtcc	r0, #28928	; 0x7100
    1c98:	75000000 	strvc	r0, [r0, #-0]
    1c9c:	0b00001a 	bleq	1d0c <_start-0x62f4>
    1ca0:	00747364 	rsbseq	r7, r4, r4, ror #6
    1ca4:	007b4701 	rsbseq	r4, fp, r1, lsl #14
    1ca8:	1aa30000 	bne	fe8c1cb0 <__bss_end__+0xfe8b7700>
    1cac:	6e0b0000 	cdpvs	0, 0, cr0, cr11, cr0, {0}
    1cb0:	2c470100 	stfcse	f0, [r7], {-0}
    1cb4:	11000000 	mrsne	r0, (UNDEF: 0)
    1cb8:	0b00001b 	bleq	1d2c <_start-0x62d4>
    1cbc:	006c6176 	rsbeq	r6, ip, r6, ror r1
    1cc0:	002c4701 	eoreq	r4, ip, r1, lsl #14
    1cc4:	1b3d0000 	blne	f41ccc <__bss_end__+0xf3771c>
    1cc8:	750d0000 	strvc	r0, [sp, #-0]
    1ccc:	01000004 	tsteq	r0, r4
    1cd0:	00002c47 	andeq	r2, r0, r7, asr #24
    1cd4:	001bbc00 	andseq	fp, fp, r0, lsl #24
    1cd8:	04390e00 	ldrteq	r0, [r9], #-3584	; 0xe00
    1cdc:	47010000 	strmi	r0, [r1, -r0]
    1ce0:	0000002c 	andeq	r0, r0, ip, lsr #32
    1ce4:	0f049102 	svceq	0x00049102
    1ce8:	00667562 	rsbeq	r7, r6, r2, ror #10
    1cec:	03724c01 	cmneq	r2, #256	; 0x100
    1cf0:	91030000 	mrsls	r0, (UNDEF: 3)
    1cf4:	70107fa8 	andsvc	r7, r0, r8, lsr #31
    1cf8:	7b4c0100 	blvc	1302100 <__bss_end__+0x12f7b50>
    1cfc:	e6000000 	str	r0, [r0], -r0
    1d00:	1000001b 	andne	r0, r0, fp, lsl r0
    1d04:	4d010075 	stcmi	0, cr0, [r1, #-468]	; 0xfffffe2c
    1d08:	00000033 	andeq	r0, r0, r3, lsr r0
    1d0c:	00001cae 	andeq	r1, r0, lr, lsr #25
    1d10:	00042414 	andeq	r2, r4, r4, lsl r4
    1d14:	00039200 	andeq	r9, r3, r0, lsl #4
    1d18:	88030500 	stmdahi	r3, {r8, sl}
    1d1c:	150000a0 	strne	r0, [r0, #-160]	; 0xa0
    1d20:	00009420 	andeq	r9, r0, r0, lsr #8
    1d24:	00000074 	andeq	r0, r0, r4, ror r0
    1d28:	00000300 	andeq	r0, r0, r0, lsl #6
    1d2c:	0003fb16 	andeq	pc, r3, r6, lsl fp	; <UNPREDICTABLE>
    1d30:	33520100 	cmpcc	r2, #0, 2
    1d34:	71000000 	mrsvc	r0, (UNDEF: 0)
    1d38:	0000001d 	andeq	r0, r0, sp, lsl r0
    1d3c:	00950c11 	addseq	r0, r5, r1, lsl ip
    1d40:	00088200 	andeq	r8, r8, r0, lsl #4
    1d44:	95201700 	strls	r1, [r0, #-1792]!	; 0x700
    1d48:	08890000 	stmeq	r9, {}	; <UNPREDICTABLE>
    1d4c:	03380000 	teqeq	r8, #0
    1d50:	01130000 	tsteq	r3, r0
    1d54:	77080253 	smlsdvc	r8, r3, r2, r0
    1d58:	05520113 	ldrbeq	r0, [r2, #-275]	; 0x113
    1d5c:	00a08803 	adceq	r8, r0, r3, lsl #16
    1d60:	51011300 	mrspl	r1, SP_irq
    1d64:	a0c00305 	sbcge	r0, r0, r5, lsl #6
    1d68:	01130000 	tsteq	r3, r0
    1d6c:	ac030550 	cfstr32ge	mvfx0, [r3], {80}	; 0x50
    1d70:	000000a0 	andeq	r0, r0, r0, lsr #1
    1d74:	00952411 	addseq	r2, r5, r1, lsl r4
    1d78:	00089f00 	andeq	r9, r8, r0, lsl #30
    1d7c:	952c1700 	strls	r1, [ip, #-1792]!	; 0x700
    1d80:	00e70000 	rsceq	r0, r7, r0
    1d84:	03550000 	cmpeq	r5, #0
    1d88:	01130000 	tsteq	r3, r0
    1d8c:	007d0251 	rsbseq	r0, sp, r1, asr r2
    1d90:	95401200 	strbls	r1, [r0, #-512]	; 0x200
    1d94:	01370000 	teqeq	r7, r0
    1d98:	01130000 	tsteq	r3, r0
    1d9c:	007d0253 	rsbseq	r0, sp, r3, asr r2
    1da0:	02510113 	subseq	r0, r1, #-1073741820	; 0xc0000004
    1da4:	01130074 	tsteq	r3, r4, ror r0
    1da8:	00750250 	rsbseq	r0, r5, r0, asr r2
    1dac:	81180000 	tsthi	r8, r0
    1db0:	82000000 	andhi	r0, r0, #0
    1db4:	19000003 	stmdbne	r0, {r0, r1}
    1db8:	00000072 	andeq	r0, r0, r2, ror r0
    1dbc:	8118003f 	tsthi	r8, pc, lsr r0
    1dc0:	92000000 	andls	r0, r0, #0
    1dc4:	19000003 	stmdbne	r0, {r0, r1}
    1dc8:	00000072 	andeq	r0, r0, r2, ror r0
    1dcc:	82060004 	andhi	r0, r6, #4
    1dd0:	1a000003 	bne	1de4 <_start-0x621c>
    1dd4:	00000466 	andeq	r0, r0, r6, ror #8
    1dd8:	95641f01 	strbls	r1, [r4, #-3841]!	; 0xf01
    1ddc:	00540000 	subseq	r0, r4, r0
    1de0:	9c010000 	stcls	0, cr0, [r1], {-0}
    1de4:	0000041b 	andeq	r0, r0, fp, lsl r4
    1de8:	0004840d 	andeq	r8, r4, sp, lsl #8
    1dec:	2a1f0100 	bcs	7c21f4 <__bss_end__+0x7b7c44>
    1df0:	9d000004 	stcls	0, cr0, [r0, #-16]
    1df4:	0d00001d 	stceq	0, cr0, [r0, #-116]	; 0xffffff8c
    1df8:	00000431 	andeq	r0, r0, r1, lsr r4
    1dfc:	043f1f01 	ldrteq	r1, [pc], #-3841	; 1e04 <_start-0x61fc>
    1e00:	1dc90000 	stclne	0, cr0, [r9]
    1e04:	24140000 	ldrcs	r0, [r4], #-0
    1e08:	55000004 	strpl	r0, [r0, #-4]
    1e0c:	05000004 	streq	r0, [r0, #-4]
    1e10:	00a09003 	adceq	r9, r0, r3
    1e14:	95741100 	ldrbls	r1, [r4, #-256]!	; 0x100
    1e18:	08820000 	stmeq	r2, {}	; <UNPREDICTABLE>
    1e1c:	88170000 	ldmdahi	r7, {}	; <UNPREDICTABLE>
    1e20:	89000095 	stmdbhi	r0, {r0, r2, r4, r7}
    1e24:	11000008 	tstne	r0, r8
    1e28:	13000004 	movwne	r0, #4
    1e2c:	08025301 	stmdaeq	r2, {r0, r8, r9, ip, lr}
    1e30:	52011320 	andpl	r1, r1, #32, 6	; 0x80000000
    1e34:	a0900305 	addsge	r0, r0, r5, lsl #6
    1e38:	01130000 	tsteq	r3, r0
    1e3c:	c0030551 	andgt	r0, r3, r1, asr r5
    1e40:	130000a0 	movwne	r0, #160	; 0xa0
    1e44:	03055001 	movweq	r5, #20481	; 0x5001
    1e48:	0000a0f8 	strdeq	sl, [r0], -r8
    1e4c:	958c1100 	strls	r1, [ip, #256]	; 0x100
    1e50:	089f0000 	ldmeq	pc, {}	; <UNPREDICTABLE>
    1e54:	1b000000 	blne	1e5c <_start-0x61a4>
    1e58:	0000002c 	andeq	r0, r0, ip, lsr #32
    1e5c:	0000042a 	andeq	r0, r0, sl, lsr #8
    1e60:	00002c1c 	andeq	r2, r0, ip, lsl ip
    1e64:	04050000 	streq	r0, [r5], #-0
    1e68:	0000041b 	andeq	r0, r0, fp, lsl r4
    1e6c:	00002c1b 	andeq	r2, r0, fp, lsl ip
    1e70:	00043f00 	andeq	r3, r4, r0, lsl #30
    1e74:	00881c00 	addeq	r1, r8, r0, lsl #24
    1e78:	05000000 	streq	r0, [r0, #-0]
    1e7c:	00043004 	andeq	r3, r4, r4
    1e80:	00811800 	addeq	r1, r1, r0, lsl #16
    1e84:	04550000 	ldrbeq	r0, [r5], #-0
    1e88:	72190000 	andsvc	r0, r9, #0
    1e8c:	0e000000 	cdpeq	0, 0, cr0, cr0, cr0, {0}
    1e90:	04450600 	strbeq	r0, [r5], #-1536	; 0x600
    1e94:	de1d0000 	cdple	0, 1, cr0, cr13, cr0, {0}
    1e98:	01000003 	tsteq	r0, r3
    1e9c:	00007bdc 	ldrdeq	r7, [r0], -ip
    1ea0:	0095b800 	addseq	fp, r5, r0, lsl #16
    1ea4:	00010000 	andeq	r0, r1, r0
    1ea8:	e79c0100 	ldr	r0, [ip, r0, lsl #2]
    1eac:	0b000005 	bleq	1ec8 <_start-0x6138>
    1eb0:	006d756e 	rsbeq	r7, sp, lr, ror #10
    1eb4:	007bdc01 	rsbseq	sp, fp, r1, lsl #24
    1eb8:	1df50000 	ldclne	0, cr0, [r5]
    1ebc:	640b0000 	strvs	r0, [fp], #-0
    1ec0:	25dc0100 	ldrbcs	r0, [ip, #256]	; 0x100
    1ec4:	1e000000 	cdpne	0, 0, cr0, cr0, cr0, {0}
    1ec8:	0d00001e 	stceq	0, cr0, [r0, #-120]	; 0xffffff88
    1ecc:	00000475 	andeq	r0, r0, r5, ror r4
    1ed0:	0033dc01 	eorseq	sp, r3, r1, lsl #24
    1ed4:	1e6e0000 	cdpne	0, 6, cr0, cr14, cr0, {0}
    1ed8:	70100000 	andsvc	r0, r0, r0
    1edc:	7bdd0100 	blvc	ff7422e4 <__bss_end__+0xff737d34>
    1ee0:	9a000000 	bls	1ee8 <_start-0x6118>
    1ee4:	1600001e 			; <UNDEFINED> instruction: 0x1600001e
    1ee8:	0000041f 	andeq	r0, r0, pc, lsl r4
    1eec:	0033e501 	eorseq	lr, r3, r1, lsl #10
    1ef0:	1ece0000 	cdpne	0, 12, cr0, cr14, cr0, {0}
    1ef4:	f2160000 	vhadd.s16	d0, d6, d0
    1ef8:	01000003 	tsteq	r0, r3
    1efc:	00002ce6 	andeq	r2, r0, r6, ror #25
    1f00:	001eec00 	andseq	lr, lr, r0, lsl #24
    1f04:	6d740f00 	ldclvs	15, cr0, [r4, #-0]
    1f08:	e8010070 	stmda	r1, {r4, r5, r6}
    1f0c:	000005e7 	andeq	r0, r0, r7, ror #11
    1f10:	7ee09103 	urdvcs	f1, f3
    1f14:	00047b1e 	andeq	r7, r4, lr, lsl fp
    1f18:	f7ee0100 			; <UNDEFINED> instruction: 0xf7ee0100
    1f1c:	04000005 	streq	r0, [r0], #-5
    1f20:	00966815 	addseq	r6, r6, r5, lsl r8
    1f24:	00003000 	andeq	r3, r0, r0
    1f28:	0004ff00 	andeq	pc, r4, r0, lsl #30
    1f2c:	00691000 	rsbeq	r1, r9, r0
    1f30:	002cf201 	eoreq	pc, ip, r1, lsl #4
    1f34:	1f0a0000 	svcne	0x000a0000
    1f38:	17000000 	strne	r0, [r0, -r0]
    1f3c:	00009604 	andeq	r9, r0, r4, lsl #12
    1f40:	000001ca 	andeq	r0, r0, sl, asr #3
    1f44:	0000051b 	andeq	r0, r0, fp, lsl r5
    1f48:	40900813 	addsmi	r0, r0, r3, lsl r8
    1f4c:	41900493 			; <UNDEFINED> instruction: 0x41900493
    1f50:	f5030493 			; <UNDEFINED> instruction: 0xf5030493
    1f54:	17002550 	smlsdne	r0, r0, r5, r2
    1f58:	00009610 	andeq	r9, r0, r0, lsl r6
    1f5c:	000001fa 	strdeq	r0, [r0], -sl
    1f60:	00000537 	andeq	r0, r0, r7, lsr r5
    1f64:	40900813 	addsmi	r0, r0, r3, lsl r8
    1f68:	41900493 			; <UNDEFINED> instruction: 0x41900493
    1f6c:	f5030493 			; <UNDEFINED> instruction: 0xf5030493
    1f70:	17002550 	smlsdne	r0, r0, r5, r2
    1f74:	00009630 	andeq	r9, r0, r0, lsr r6
    1f78:	0000023b 	andeq	r0, r0, fp, lsr r2
    1f7c:	00000564 	andeq	r0, r0, r4, ror #10
    1f80:	02520113 	subseq	r0, r2, #-1073741820	; 0xc0000004
    1f84:	01138008 	tsteq	r3, r8
    1f88:	d8910351 	ldmle	r1, {r0, r4, r6, r8, r9}
    1f8c:	5001137e 	andpl	r1, r1, lr, ror r3
    1f90:	02133a01 	andseq	r3, r3, #4096	; 0x1000
    1f94:	3101047d 	tstcc	r1, sp, ror r4
    1f98:	007d0213 	rsbseq	r0, sp, r3, lsl r2
    1f9c:	00007802 	andeq	r7, r0, r2, lsl #16
    1fa0:	00963c17 	addseq	r3, r6, r7, lsl ip
    1fa4:	0008a600 	andeq	sl, r8, r0, lsl #12
    1fa8:	00057f00 	andeq	r7, r5, r0, lsl #30
    1fac:	51011300 	mrspl	r1, SP_irq
    1fb0:	7ed89103 	atnvce	f1, f3
    1fb4:	02500113 	subseq	r0, r0, #-1073741820	; 0xc0000004
    1fb8:	17000074 	smlsdxne	r0, r4, r0, r0
    1fbc:	00009648 	andeq	r9, r0, r8, asr #12
    1fc0:	000008a6 	andeq	r0, r0, r6, lsr #17
    1fc4:	0000059c 	muleq	r0, ip, r5
    1fc8:	05510113 	ldrbeq	r0, [r1, #-275]	; 0x113
    1fcc:	00a11003 	adceq	r1, r1, r3
    1fd0:	50011300 	andpl	r1, r1, r0, lsl #6
    1fd4:	00007402 	andeq	r7, r0, r2, lsl #8
    1fd8:	00966817 	addseq	r6, r6, r7, lsl r8
    1fdc:	00023b00 	andeq	r3, r2, r0, lsl #22
    1fe0:	0005cf00 	andeq	ip, r5, r0, lsl #30
    1fe4:	53011300 	movwpl	r1, #4864	; 0x1300
    1fe8:	13007702 	movwne	r7, #1794	; 0x702
    1fec:	08025201 	stmdaeq	r2, {r0, r9, ip, lr}
    1ff0:	51011380 	smlabbpl	r1, r0, r3, r1
    1ff4:	7ed89103 	atnvce	f1, f3
    1ff8:	01500113 	cmpeq	r0, r3, lsl r1
    1ffc:	7d02133a 	stcvc	3, cr1, [r2, #-232]	; 0xffffff18
    2000:	00750204 	rsbseq	r0, r5, r4, lsl #4
    2004:	007d0213 	rsbseq	r0, sp, r3, lsl r2
    2008:	12003401 	andne	r3, r0, #16777216	; 0x1000000
    200c:	000096a4 	andeq	r9, r0, r4, lsr #13
    2010:	000008a6 	andeq	r0, r0, r6, lsr #17
    2014:	03510113 	cmpeq	r1, #-1073741820	; 0xc0000004
    2018:	137ed891 	cmnne	lr, #9502720	; 0x910000
    201c:	74025001 	strvc	r5, [r2], #-1
    2020:	18000000 	stmdane	r0, {}	; <UNPREDICTABLE>
    2024:	00000081 	andeq	r0, r0, r1, lsl #1
    2028:	000005f7 	strdeq	r0, [r0], -r7
    202c:	00007219 	andeq	r7, r0, r9, lsl r2
    2030:	06007f00 	streq	r7, [r0], -r0, lsl #30
    2034:	00000033 	andeq	r0, r0, r3, lsr r0
    2038:	0003591d 	andeq	r5, r3, sp, lsl r9
    203c:	2c7f0100 	ldfcse	f0, [pc], #-0	; 2044 <_start-0x5fbc>
    2040:	b8000000 	stmdalt	r0, {}	; <UNPREDICTABLE>
    2044:	88000096 	stmdahi	r0, {r1, r2, r4, r7}
    2048:	01000002 	tsteq	r0, r2
    204c:	0008579c 	muleq	r8, ip, r7
    2050:	75620b00 	strbvc	r0, [r2, #-2816]!	; 0xb00
    2054:	7f010066 	svcvc	0x00010066
    2058:	0000007b 	andeq	r0, r0, fp, ror r0
    205c:	00001f29 	andeq	r1, r0, r9, lsr #30
    2060:	01006e0b 	tsteq	r0, fp, lsl #28
    2064:	00002c7f 	andeq	r2, r0, pc, ror ip
    2068:	001f5500 	andseq	r5, pc, r0, lsl #10
    206c:	6d660b00 	vstmdbvs	r6!, {d16-d15}
    2070:	7f010074 	svcvc	0x00010074
    2074:	00000088 	andeq	r0, r0, r8, lsl #1
    2078:	00001f83 	andeq	r1, r0, r3, lsl #31
    207c:	00077b0d 	andeq	r7, r7, sp, lsl #22
    2080:	b57f0100 	ldrblt	r0, [pc, #-256]!	; 1f88 <_start-0x6078>
    2084:	b7000000 	strlt	r0, [r0, -r0]
    2088:	1000001f 	andne	r0, r0, pc, lsl r0
    208c:	80010070 	andhi	r0, r1, r0, ror r0
    2090:	0000007b 	andeq	r0, r0, fp, ror r0
    2094:	00001fd5 	ldrdeq	r1, [r0], -r5
    2098:	01006510 	tsteq	r0, r0, lsl r5
    209c:	00007b80 	andeq	r7, r0, r0, lsl #23
    20a0:	00205300 	eoreq	r5, r0, r0, lsl #6
    20a4:	04241400 	strteq	r1, [r4], #-1024	; 0x400
    20a8:	08670000 	stmdaeq	r7!, {}^	; <UNPREDICTABLE>
    20ac:	03050000 	movweq	r0, #20480	; 0x5000
    20b0:	0000a0a0 	andeq	sl, r0, r0, lsr #1
    20b4:	0000001f 	andeq	r0, r0, pc, lsl r0
    20b8:	00731000 	rsbseq	r1, r3, r0
    20bc:	007b8d01 	rsbseq	r8, fp, r1, lsl #26
    20c0:	207a0000 	rsbscs	r0, sl, r0
    20c4:	6e0f0000 	cdpvs	0, 0, cr0, cr15, cr0, {0}
    20c8:	01006d75 	tsteq	r0, r5, ror sp
    20cc:	0005e78d 	andeq	lr, r5, sp, lsl #15
    20d0:	d8910300 	ldmle	r1, {r8, r9}
    20d4:	0475167e 	ldrbteq	r1, [r5], #-1662	; 0x67e
    20d8:	8e010000 	cdphi	0, 0, cr0, cr1, cr0, {0}
    20dc:	00000033 	andeq	r0, r0, r3, lsr r0
    20e0:	000020da 	ldrdeq	r2, [r0], -sl
    20e4:	0097d415 	addseq	sp, r7, r5, lsl r4
    20e8:	00002000 	andeq	r2, r0, r0
    20ec:	0006da00 	andeq	sp, r6, r0, lsl #20
    20f0:	00641000 	rsbeq	r1, r4, r0
    20f4:	0025a101 	eoreq	sl, r5, r1, lsl #2
    20f8:	21040000 	mrscs	r0, (UNDEF: 4)
    20fc:	f0120000 			; <UNDEFINED> instruction: 0xf0120000
    2100:	5a000097 	bpl	2364 <_start-0x5c9c>
    2104:	13000004 	movwne	r0, #4
    2108:	77025101 	strvc	r5, [r2, -r1, lsl #2]
    210c:	50011300 	andpl	r1, r1, r0, lsl #6
    2110:	7ed09103 	atnvcs	f1, f3
    2114:	3c170000 	ldccc	0, cr0, [r7], {-0}
    2118:	c0000097 	mulgt	r0, r7, r0
    211c:	ee000000 	cdp	0, 0, cr0, cr0, cr0, {0}
    2120:	13000006 	movwne	r0, #6
    2124:	75025001 	strvc	r5, [r2, #-1]
    2128:	50110000 	andspl	r0, r1, r0
    212c:	82000097 	andhi	r0, r0, #151	; 0x97
    2130:	17000008 	strne	r0, [r0, -r8]
    2134:	00009764 	andeq	r9, r0, r4, ror #14
    2138:	00000889 	andeq	r0, r0, r9, lsl #17
    213c:	00000726 	andeq	r0, r0, r6, lsr #14
    2140:	02530113 	subseq	r0, r3, #-1073741820	; 0xc0000004
    2144:	01139408 	tsteq	r3, r8, lsl #8
    2148:	a0030552 	andge	r0, r3, r2, asr r5
    214c:	130000a0 	movwne	r0, #160	; 0xa0
    2150:	03055101 	movweq	r5, #20737	; 0x5101
    2154:	0000a0c0 	andeq	sl, r0, r0, asr #1
    2158:	05500113 	ldrbeq	r0, [r0, #-275]	; 0x113
    215c:	00a11403 	adceq	r1, r1, r3, lsl #8
    2160:	68110000 	ldmdavs	r1, {}	; <UNPREDICTABLE>
    2164:	9f000097 	svcls	0x00000097
    2168:	17000008 	strne	r0, [r0, -r8]
    216c:	00009818 	andeq	r9, r0, r8, lsl r8
    2170:	0000023b 	andeq	r0, r0, fp, lsr r2
    2174:	0000075c 	andeq	r0, r0, ip, asr r7
    2178:	02520113 	subseq	r0, r2, #-1073741820	; 0xc0000004
    217c:	01138008 	tsteq	r3, r8
    2180:	d0910351 	addsle	r0, r1, r1, asr r3
    2184:	5001137e 	andpl	r1, r1, lr, ror r3
    2188:	02133a01 	andseq	r3, r3, #4096	; 0x1000
    218c:	3101047d 	tstcc	r1, sp, ror r4
    2190:	007d0213 	rsbseq	r0, sp, r3, lsl r2
    2194:	00007702 	andeq	r7, r0, r2, lsl #14
    2198:	00983c17 	addseq	r3, r8, r7, lsl ip
    219c:	00023b00 	andeq	r3, r2, r0, lsl #22
    21a0:	00078a00 	andeq	r8, r7, r0, lsl #20
    21a4:	52011300 	andpl	r1, r1, #0, 6
    21a8:	13800802 	orrne	r0, r0, #131072	; 0x20000
    21ac:	91035101 	tstls	r3, r1, lsl #2
    21b0:	01137ed0 			; <UNDEFINED> instruction: 0x01137ed0
    21b4:	133a0150 	teqne	sl, #80, 2
    21b8:	02047d02 	andeq	r7, r4, #2, 26	; 0x80
    21bc:	0213007a 	andseq	r0, r3, #122	; 0x7a
    21c0:	7702007d 	smlsdxvc	r2, sp, r0, r0
    21c4:	60170000 	andsvs	r0, r7, r0
    21c8:	3b000098 	blcc	2430 <_start-0x5bd0>
    21cc:	b8000002 	stmdalt	r0, {r1}
    21d0:	13000007 	movwne	r0, #7
    21d4:	08025201 	stmdaeq	r2, {r0, r9, ip, lr}
    21d8:	51011380 	smlabbpl	r1, r0, r3, r1
    21dc:	7ed09103 	atnvcs	f1, f3
    21e0:	01500113 	cmpeq	r0, r3, lsl r1
    21e4:	7d021340 	stcvc	3, cr1, [r2, #-256]	; 0xffffff00
    21e8:	007a0204 	rsbseq	r0, sl, r4, lsl #4
    21ec:	007d0213 	rsbseq	r0, sp, r3, lsl r2
    21f0:	00007702 	andeq	r7, r0, r2, lsl #14
    21f4:	00988417 	addseq	r8, r8, r7, lsl r4
    21f8:	00023b00 	andeq	r3, r2, r0, lsl #22
    21fc:	0007e600 	andeq	lr, r7, r0, lsl #12
    2200:	52011300 	andpl	r1, r1, #0, 6
    2204:	13800802 	orrne	r0, r0, #131072	; 0x20000
    2208:	91035101 	tstls	r3, r1, lsl #2
    220c:	01137ed0 			; <UNDEFINED> instruction: 0x01137ed0
    2210:	13320150 	teqne	r2, #80, 2
    2214:	02047d02 	andeq	r7, r4, #2, 26	; 0x80
    2218:	0213007a 	andseq	r0, r3, #122	; 0x7a
    221c:	7702007d 	smlsdxvc	r2, sp, r0, r0
    2220:	b4170000 	ldrlt	r0, [r7], #-0
    2224:	3b000098 	blcc	248c <_start-0x5b74>
    2228:	14000002 	strne	r0, [r0], #-2
    222c:	13000008 	movwne	r0, #8
    2230:	08025201 	stmdaeq	r2, {r0, r9, ip, lr}
    2234:	51011380 	smlabbpl	r1, r0, r3, r1
    2238:	7ed09103 	atnvcs	f1, f3
    223c:	01500113 	cmpeq	r0, r3, lsl r1
    2240:	7d021338 	stcvc	3, cr1, [r2, #-224]	; 0xffffff20
    2244:	007a0204 	rsbseq	r0, sl, r4, lsl #4
    2248:	007d0213 	rsbseq	r0, sp, r3, lsl r2
    224c:	00007702 	andeq	r7, r0, r2, lsl #14
    2250:	0098bc11 	addseq	fp, r8, r1, lsl ip
    2254:	00088200 	andeq	r8, r8, r0, lsl #4
    2258:	98d81700 	ldmls	r8, {r8, r9, sl, ip}^
    225c:	08890000 	stmeq	r9, {}	; <UNPREDICTABLE>
    2260:	084c0000 	stmdaeq	ip, {}^	; <UNPREDICTABLE>
    2264:	01130000 	tsteq	r3, r0
    2268:	bb080253 	bllt	202bbc <__bss_end__+0x1f860c>
    226c:	05520113 	ldrbeq	r0, [r2, #-275]	; 0x113
    2270:	00a0a003 	adceq	sl, r0, r3
    2274:	51011300 	mrspl	r1, SP_irq
    2278:	a0c00305 	sbcge	r0, r0, r5, lsl #6
    227c:	01130000 	tsteq	r3, r0
    2280:	30030550 	andcc	r0, r3, r0, asr r5
    2284:	000000a1 	andeq	r0, r0, r1, lsr #1
    2288:	0098dc11 	addseq	sp, r8, r1, lsl ip
    228c:	00089f00 	andeq	r9, r8, r0, lsl #30
    2290:	18000000 	stmdane	r0, {}	; <UNPREDICTABLE>
    2294:	00000081 	andeq	r0, r0, r1, lsl #1
    2298:	00000867 	andeq	r0, r0, r7, ror #16
    229c:	00007219 	andeq	r7, r0, r9, lsl r2
    22a0:	06000900 	streq	r0, [r0], -r0, lsl #18
    22a4:	00000857 	andeq	r0, r0, r7, asr r8
    22a8:	0003d220 	andeq	sp, r3, r0, lsr #4
    22ac:	2a1d0300 	bcs	742eb4 <__bss_end__+0x738904>
    22b0:	20000004 	andcs	r0, r0, r4
    22b4:	000003cd 	andeq	r0, r0, sp, asr #7
    22b8:	043f2203 	ldrteq	r2, [pc], #-515	; 22c0 <_start-0x5d40>
    22bc:	8c210000 	stchi	0, cr0, [r1], #-0
    22c0:	03000004 	movweq	r0, #4
    22c4:	035c221e 	cmpeq	ip, #-536870911	; 0xe0000001
    22c8:	29030000 	stmdbcs	r3, {}	; <UNPREDICTABLE>
    22cc:	0000002c 	andeq	r0, r0, ip, lsr #32
    22d0:	0000089f 	muleq	r0, pc, r8	; <UNPREDICTABLE>
    22d4:	0000881c 	andeq	r8, r0, ip, lsl r8
    22d8:	21002300 	mrscs	r2, LR_irq
    22dc:	00000459 	andeq	r0, r0, r9, asr r4
    22e0:	09246503 	stmdbeq	r4!, {r0, r1, r8, sl, sp, lr}
    22e4:	05000004 	streq	r0, [r0, #-4]
    22e8:	00007b1c 	andeq	r7, r0, ip, lsl fp
    22ec:	007b1c00 	rsbseq	r1, fp, r0, lsl #24
    22f0:	881c0000 	ldmdahi	ip, {}	; <UNPREDICTABLE>
    22f4:	00000000 	andeq	r0, r0, r0
    22f8:	0000ff00 	andeq	pc, r0, r0, lsl #30
    22fc:	27000400 	strcs	r0, [r0, -r0, lsl #8]
    2300:	0400000e 	streq	r0, [r0], #-14
    2304:	00004001 	andeq	r4, r0, r1
    2308:	04a00100 	strteq	r0, [r0], #256	; 0x100
    230c:	036d0000 	cmneq	sp, #0
    2310:	99400000 	stmdbls	r0, {}^	; <UNPREDICTABLE>
    2314:	00280000 	eoreq	r0, r8, r0
    2318:	0e600000 	cdpeq	0, 6, cr0, cr0, cr0, {0}
    231c:	04020000 	streq	r0, [r2], #-0
    2320:	746e6905 	strbtvc	r6, [lr], #-2309	; 0x905
    2324:	07040300 	streq	r0, [r4, -r0, lsl #6]
    2328:	00000025 	andeq	r0, r0, r5, lsr #32
    232c:	34060103 	strcc	r0, [r6], #-259	; 0x103
    2330:	03000000 	movweq	r0, #0
    2334:	00b20502 	adcseq	r0, r2, r2, lsl #10
    2338:	04030000 	streq	r0, [r3], #-0
    233c:	00000505 	andeq	r0, r0, r5, lsl #10
    2340:	05080300 	streq	r0, [r8, #-768]	; 0x300
    2344:	00000000 	andeq	r0, r0, r0
    2348:	32080103 	andcc	r0, r8, #-1073741824	; 0xc0000000
    234c:	03000000 	movweq	r0, #0
    2350:	00c40702 	sbceq	r0, r4, r2, lsl #14
    2354:	04030000 	streq	r0, [r3], #-0
    2358:	00002007 	andeq	r2, r0, r7
    235c:	07080300 	streq	r0, [r8, -r0, lsl #6]
    2360:	0000001b 	andeq	r0, r0, fp, lsl r0
    2364:	48070403 	stmdami	r7, {r0, r1, sl}
    2368:	03000001 	movweq	r0, #1
    236c:	003b0801 	eorseq	r0, fp, r1, lsl #16
    2370:	04040000 	streq	r0, [r4], #-0
    2374:	0000007f 	andeq	r0, r0, pc, ror r0
    2378:	00007205 	andeq	r7, r0, r5, lsl #4
    237c:	04590600 	ldrbeq	r0, [r9], #-1536	; 0x600
    2380:	04010000 	streq	r0, [r1], #-0
    2384:	00009940 	andeq	r9, r0, r0, asr #18
    2388:	00000028 	andeq	r0, r0, r8, lsr #32
    238c:	00ca9c01 	sbceq	r9, sl, r1, lsl #24
    2390:	54070000 	strpl	r0, [r7], #-0
    2394:	ac000099 	stcge	0, cr0, [r0], {153}	; 0x99
    2398:	08000000 	stmdaeq	r0, {}	; <UNPREDICTABLE>
    239c:	03055001 	movweq	r5, #20481	; 0x5001
    23a0:	0000a168 	andeq	sl, r0, r8, ror #2
    23a4:	995c0900 	ldmdbls	ip, {r8, fp}^
    23a8:	00ea0000 	rsceq	r0, sl, r0
    23ac:	00c00000 	sbceq	r0, r0, r0
    23b0:	01080000 	mrseq	r0, (UNDEF: 8)
    23b4:	64080250 	strvs	r0, [r8], #-592	; 0x250
    23b8:	99600a00 	stmdbls	r0!, {r9, fp}^
    23bc:	00fb0000 	rscseq	r0, fp, r0
    23c0:	0b000000 	bleq	23c8 <_start-0x5c38>
    23c4:	00000025 	andeq	r0, r0, r5, lsr #32
    23c8:	000000d9 	ldrdeq	r0, [r0], -r9
    23cc:	0000790c 	andeq	r7, r0, ip, lsl #18
    23d0:	cd0d0000 	stcgt	0, cr0, [sp, #-0]
    23d4:	02000003 	andeq	r0, r0, #3
    23d8:	0000e422 	andeq	lr, r0, r2, lsr #8
    23dc:	ca040400 	bgt	1033e4 <__bss_end__+0xf8e34>
    23e0:	0e000000 	cdpeq	0, 0, cr0, cr0, cr0, {0}
    23e4:	000004c4 	andeq	r0, r0, r4, asr #9
    23e8:	00fb4f02 	rscseq	r4, fp, r2, lsl #30
    23ec:	2c0c0000 	stccs	0, cr0, [ip], {-0}
    23f0:	00000000 	andeq	r0, r0, r0
    23f4:	0004b90f 	andeq	fp, r4, pc, lsl #18
    23f8:	00620200 	rsbeq	r0, r2, r0, lsl #4
    23fc:	000001b8 			; <UNDEFINED> instruction: 0x000001b8
    2400:	0ef10004 	cdpeq	0, 15, cr0, cr1, cr4, {0}
    2404:	01040000 	mrseq	r0, (UNDEF: 4)
    2408:	00000040 	andeq	r0, r0, r0, asr #32
    240c:	00051001 	andeq	r1, r5, r1
    2410:	00036d00 	andeq	r6, r3, r0, lsl #26
    2414:	00996800 	addseq	r6, r9, r0, lsl #16
    2418:	00007400 	andeq	r7, r0, r0, lsl #8
    241c:	000f0000 	andeq	r0, pc, r0
    2420:	05040200 	streq	r0, [r4, #-512]	; 0x200
    2424:	00746e69 	rsbseq	r6, r4, r9, ror #28
    2428:	25070403 	strcs	r0, [r7, #-1027]	; 0x403
    242c:	03000000 	movweq	r0, #0
    2430:	00340601 	eorseq	r0, r4, r1, lsl #12
    2434:	02030000 	andeq	r0, r3, #0
    2438:	0000b205 	andeq	fp, r0, r5, lsl #4
    243c:	05040300 	streq	r0, [r4, #-768]	; 0x300
    2440:	00000005 	andeq	r0, r0, r5
    2444:	00050803 	andeq	r0, r5, r3, lsl #16
    2448:	03000000 	movweq	r0, #0
    244c:	00320801 	eorseq	r0, r2, r1, lsl #16
    2450:	02030000 	andeq	r0, r3, #0
    2454:	0000c407 	andeq	ip, r0, r7, lsl #8
    2458:	07040300 	streq	r0, [r4, -r0, lsl #6]
    245c:	00000020 	andeq	r0, r0, r0, lsr #32
    2460:	1b070803 	blne	1c4474 <__bss_end__+0x1b9ec4>
    2464:	03000000 	movweq	r0, #0
    2468:	01480704 	cmpeq	r8, r4, lsl #14
    246c:	01030000 	mrseq	r0, (UNDEF: 3)
    2470:	00003b08 	andeq	r3, r0, r8, lsl #22
    2474:	7f040400 	svcvc	0x00040400
    2478:	05000000 	streq	r0, [r0, #-0]
    247c:	00000072 	andeq	r0, r0, r2, ror r0
    2480:	00007206 	andeq	r7, r0, r6, lsl #4
    2484:	00009400 	andeq	r9, r0, r0, lsl #8
    2488:	006b0700 	rsbeq	r0, fp, r0, lsl #14
    248c:	00070000 	andeq	r0, r7, r0
    2490:	00050808 	andeq	r0, r5, r8, lsl #16
    2494:	680d0100 	stmdavs	sp, {r8}
    2498:	74000099 	strvc	r0, [r0], #-153	; 0x99
    249c:	01000000 	mrseq	r0, (UNDEF: 0)
    24a0:	00015d9c 	muleq	r1, ip, sp
    24a4:	04cd0900 	strbeq	r0, [sp], #2304	; 0x900
    24a8:	0e010000 	cdpeq	0, 0, cr0, cr1, cr0, {0}
    24ac:	00000025 	andeq	r0, r0, r5, lsr #32
    24b0:	0004db09 	andeq	sp, r4, r9, lsl #22
    24b4:	250e0100 	strcs	r0, [lr, #-256]	; 0x100
    24b8:	0a000000 	beq	24c0 <_start-0x5b40>
    24bc:	000000bc 	strheq	r0, [r0], -ip
    24c0:	620b0f01 	andvs	r0, fp, #1, 30
    24c4:	01007373 	tsteq	r0, r3, ror r3
    24c8:	00015d11 	andeq	r5, r1, r1, lsl sp
    24cc:	00211800 	eoreq	r1, r1, r0, lsl #16
    24d0:	05000c00 	streq	r0, [r0, #-3072]	; 0xc00
    24d4:	12010000 	andne	r0, r1, #0
    24d8:	0000015d 	andeq	r0, r0, sp, asr r1
    24dc:	0004e70a 	andeq	lr, r4, sl, lsl #14
    24e0:	09060200 	stmdbeq	r6, {r9}
    24e4:	000004f2 	strdeq	r0, [r0], -r2
    24e8:	002c0902 	eoreq	r0, ip, r2, lsl #18
    24ec:	240d0000 	strcs	r0, [sp], #-0
    24f0:	63000004 	movwvs	r0, #4
    24f4:	05000001 	streq	r0, [r0, #-1]
    24f8:	00a17403 	adceq	r7, r1, r3, lsl #8
    24fc:	99900e00 	ldmibls	r0, {r9, sl, fp}
    2500:	01890000 	orreq	r0, r9, r0
    2504:	a40e0000 	strge	r0, [lr], #-0
    2508:	90000099 	mulls	r0, r9, r0
    250c:	0f000001 	svceq	0x00000001
    2510:	000099b8 			; <UNDEFINED> instruction: 0x000099b8
    2514:	00000197 	muleq	r0, r7, r1
    2518:	00000141 	andeq	r0, r0, r1, asr #2
    251c:	01530110 	cmpeq	r3, r0, lsl r1
    2520:	5201104a 	andpl	r1, r1, #74	; 0x4a
    2524:	a1740305 	cmnge	r4, r5, lsl #6
    2528:	01100000 	tsteq	r0, r0
    252c:	9c030551 	cfstr32ls	mvfx0, [r3], {81}	; 0x51
    2530:	100000a1 	andne	r0, r0, r1, lsr #1
    2534:	03055001 	movweq	r5, #20481	; 0x5001
    2538:	0000a17c 	andeq	sl, r0, ip, ror r1
    253c:	99bc0e00 	ldmibls	ip!, {r9, sl, fp}
    2540:	01ad0000 			; <UNDEFINED> instruction: 0x01ad0000
    2544:	c00e0000 	andgt	r0, lr, r0
    2548:	b4000099 	strlt	r0, [r0], #-153	; 0x99
    254c:	0e000001 	cdpeq	0, 0, cr0, cr0, cr1, {0}
    2550:	000099c4 	andeq	r9, r0, r4, asr #19
    2554:	000001ad 	andeq	r0, r0, sp, lsr #3
    2558:	25040400 	strcs	r0, [r4, #-1024]	; 0x400
    255c:	05000000 	streq	r0, [r0, #-0]
    2560:	00000084 	andeq	r0, r0, r4, lsl #1
    2564:	0004cd09 	andeq	ip, r4, r9, lsl #26
    2568:	250e0100 	strcs	r0, [lr, #-256]	; 0x100
    256c:	09000000 	stmdbeq	r0, {}	; <UNPREDICTABLE>
    2570:	000004db 	ldrdeq	r0, [r0], -fp
    2574:	00250e01 	eoreq	r0, r5, r1, lsl #28
    2578:	f2090000 	vhadd.s8	d0, d9, d0
    257c:	02000004 	andeq	r0, r0, #4
    2580:	00002c09 	andeq	r2, r0, r9, lsl #24
    2584:	04e70a00 	strbteq	r0, [r7], #2560	; 0xa00
    2588:	06020000 	streq	r0, [r2], -r0
    258c:	00048c0a 	andeq	r8, r4, sl, lsl #24
    2590:	111e0300 	tstne	lr, r0, lsl #6
    2594:	0000035c 	andeq	r0, r0, ip, asr r3
    2598:	00252903 	eoreq	r2, r5, r3, lsl #18
    259c:	01ad0000 			; <UNDEFINED> instruction: 0x01ad0000
    25a0:	79120000 	ldmdbvc	r2, {}	; <UNPREDICTABLE>
    25a4:	13000000 	movwne	r0, #0
    25a8:	04590a00 	ldrbeq	r0, [r9], #-2560	; 0xa00
    25ac:	65030000 	strvs	r0, [r3, #-0]
    25b0:	0000bc0a 	andeq	fp, r0, sl, lsl #24
    25b4:	00d70300 	sbcseq	r0, r7, r0, lsl #6
    25b8:	000001ad 	andeq	r0, r0, sp, lsr #3
    25bc:	0fe50004 	svceq	0x00e50004
    25c0:	01040000 	mrseq	r0, (UNDEF: 4)
    25c4:	00000040 	andeq	r0, r0, r0, asr #32
    25c8:	00053101 	andeq	r3, r5, r1, lsl #2
    25cc:	00036d00 	andeq	r6, r3, r0, lsl #26
    25d0:	00001800 	andeq	r1, r0, r0, lsl #16
    25d4:	00000000 	andeq	r0, r0, r0
    25d8:	000fbc00 	andeq	fp, pc, r0, lsl #24
    25dc:	05040200 	streq	r0, [r4, #-512]	; 0x200
    25e0:	00746e69 	rsbseq	r6, r4, r9, ror #28
    25e4:	25070403 	strcs	r0, [r7, #-1027]	; 0x403
    25e8:	03000000 	movweq	r0, #0
    25ec:	00340601 	eorseq	r0, r4, r1, lsl #12
    25f0:	02030000 	andeq	r0, r3, #0
    25f4:	0000b205 	andeq	fp, r0, r5, lsl #4
    25f8:	05040300 	streq	r0, [r4, #-768]	; 0x300
    25fc:	00000005 	andeq	r0, r0, r5
    2600:	00050803 	andeq	r0, r5, r3, lsl #16
    2604:	03000000 	movweq	r0, #0
    2608:	00320801 	eorseq	r0, r2, r1, lsl #16
    260c:	02030000 	andeq	r0, r3, #0
    2610:	0000c407 	andeq	ip, r0, r7, lsl #8
    2614:	07040300 	streq	r0, [r4, -r0, lsl #6]
    2618:	00000020 	andeq	r0, r0, r0, lsr #32
    261c:	1b070803 	blne	1c4630 <__bss_end__+0x1ba080>
    2620:	03000000 	movweq	r0, #0
    2624:	01480704 	cmpeq	r8, r4, lsl #14
    2628:	01030000 	mrseq	r0, (UNDEF: 3)
    262c:	00003b08 	andeq	r3, r0, r8, lsl #22
    2630:	05230400 	streq	r0, [r3, #-1024]!	; 0x400
    2634:	0e010000 	cdpeq	0, 0, cr0, cr1, cr0, {0}
    2638:	00000025 	andeq	r0, r0, r5, lsr #32
    263c:	000099dc 	ldrdeq	r9, [r0], -ip
    2640:	00000018 	andeq	r0, r0, r8, lsl r0
    2644:	00a29c01 	adceq	r9, r2, r1, lsl #24
    2648:	8e050000 	cdphi	0, 0, cr0, cr5, cr0, {0}
    264c:	01000005 	tsteq	r0, r5
    2650:	00002c0f 	andeq	r2, r0, pc, lsl #24
    2654:	00213800 	eoreq	r3, r1, r0, lsl #16
    2658:	65060000 	strvs	r0, [r6, #-0]
    265c:	01000005 	tsteq	r0, r5
    2660:	0099f417 	addseq	pc, r9, r7, lsl r4	; <UNPREDICTABLE>
    2664:	00001400 	andeq	r1, r0, r0, lsl #8
    2668:	c79c0100 	ldrgt	r0, [ip, r0, lsl #2]
    266c:	05000000 	streq	r0, [r0, #-0]
    2670:	0000058e 	andeq	r0, r0, lr, lsl #11
    2674:	002c1801 	eoreq	r1, ip, r1, lsl #16
    2678:	21570000 	cmpcs	r7, r0
    267c:	06000000 	streq	r0, [r0], -r0
    2680:	000004b9 			; <UNDEFINED> instruction: 0x000004b9
    2684:	9a081f01 	bls	20a290 <__bss_end__+0x1ffce0>
    2688:	00480000 	subeq	r0, r8, r0
    268c:	9c010000 	stcls	0, cr0, [r1], {-0}
    2690:	00000177 	andeq	r0, r0, r7, ror r1
    2694:	00058607 	andeq	r8, r5, r7, lsl #12
    2698:	772a0100 	strvc	r0, [sl, -r0, lsl #2]!
    269c:	1c000001 	stcne	0, cr0, [r0], {1}
    26a0:	07201000 	streq	r1, [r0, -r0]!
    26a4:	0000055d 	andeq	r0, r0, sp, asr r5
    26a8:	01772b01 	cmneq	r7, r1, lsl #22
    26ac:	00240000 	eoreq	r0, r4, r0
    26b0:	7a072010 	bvc	1ca6f8 <__bss_end__+0x1c0148>
    26b4:	01000005 	tsteq	r0, r5
    26b8:	0001772c 	andeq	r7, r1, ip, lsr #14
    26bc:	00000000 	andeq	r0, r0, r0
    26c0:	0544085a 	strbeq	r0, [r4, #-2138]	; 0x85a
    26c4:	2d010000 	stccs	0, cr0, [r1, #-0]
    26c8:	00000177 	andeq	r0, r0, r7, ror r1
    26cc:	9a100920 	bls	404b54 <__bss_end__+0x3fa5a4>
    26d0:	00790000 	rsbseq	r0, r9, r0
    26d4:	1c090000 	stcne	0, cr0, [r9], {-0}
    26d8:	a200009a 	andge	r0, r0, #154	; 0x9a
    26dc:	0a000000 	beq	26e4 <_start-0x591c>
    26e0:	00009a24 	andeq	r9, r0, r4, lsr #20
    26e4:	0000018d 	andeq	r0, r0, sp, lsl #3
    26e8:	0000013a 	andeq	r0, r0, sl, lsr r1
    26ec:	0150010b 	cmpeq	r0, fp, lsl #2
    26f0:	300a004e 	andcc	r0, sl, lr, asr #32
    26f4:	9e00009a 	mcrls	0, 0, r0, cr0, cr10, {4}
    26f8:	5a000001 	bpl	2704 <_start-0x58fc>
    26fc:	0b000001 	bleq	2708 <_start-0x58f8>
    2700:	0c055101 	stfeqs	f5, [r5], {1}
    2704:	5a000001 	bpl	2710 <_start-0x58f0>
    2708:	0550010b 	ldrbeq	r0, [r0, #-267]	; 0x10b
    270c:	1000240c 	andne	r2, r0, ip, lsl #8
    2710:	3c0c0020 	stccc	0, cr0, [ip], {32}
    2714:	9e00009a 	mcrls	0, 0, r0, cr0, cr10, {4}
    2718:	0b000001 	bleq	2724 <_start-0x58dc>
    271c:	0c055101 	stfeqs	f5, [r5], {1}
    2720:	5a000020 	bpl	27a8 <_start-0x5858>
    2724:	0550010b 	ldrbeq	r0, [r0, #-267]	; 0x10b
    2728:	10001c0c 	andne	r1, r0, ip, lsl #24
    272c:	0d000020 	stceq	0, cr0, [r0, #-128]	; 0xffffff80
    2730:	00000025 	andeq	r0, r0, r5, lsr #32
    2734:	00052608 	andeq	r2, r5, r8, lsl #12
    2738:	880d0100 	stmdahi	sp, {r8}
    273c:	10000001 	andne	r0, r0, r1
    2740:	00002c0d 	andeq	r2, r0, sp, lsl #24
    2744:	04c40e00 	strbeq	r0, [r4], #3584	; 0xe00
    2748:	4f020000 	svcmi	0x00020000
    274c:	0000019e 	muleq	r0, lr, r1
    2750:	00002c0f 	andeq	r2, r0, pc, lsl #24
    2754:	74100000 	ldrvc	r0, [r0], #-0
    2758:	02000005 	andeq	r0, r0, #5
    275c:	002c0f9b 	mlaeq	ip, fp, pc, r0	; <UNPREDICTABLE>
    2760:	2c0f0000 	stccs	0, cr0, [pc], {-0}
    2764:	00000000 	andeq	r0, r0, r0
    2768:	0001d800 	andeq	sp, r1, r0, lsl #16
    276c:	d3000400 	movwle	r0, #1024	; 0x400
    2770:	04000010 	streq	r0, [r0], #-16
    2774:	00004001 	andeq	r4, r0, r1
    2778:	05b00100 	ldreq	r0, [r0, #256]!	; 0x100
    277c:	036d0000 	cmneq	sp, #0
    2780:	9a500000 	bls	1402788 <__bss_end__+0x13f81d8>
    2784:	00880000 	addeq	r0, r8, r0
    2788:	10620000 	rsbne	r0, r2, r0
    278c:	04020000 	streq	r0, [r2], #-0
    2790:	746e6905 	strbtvc	r6, [lr], #-2309	; 0x905
    2794:	07040300 	streq	r0, [r4, -r0, lsl #6]
    2798:	00000025 	andeq	r0, r0, r5, lsr #32
    279c:	34060103 	strcc	r0, [r6], #-259	; 0x103
    27a0:	03000000 	movweq	r0, #0
    27a4:	00b20502 	adcseq	r0, r2, r2, lsl #10
    27a8:	04030000 	streq	r0, [r3], #-0
    27ac:	00000505 	andeq	r0, r0, r5, lsl #10
    27b0:	05080300 	streq	r0, [r8, #-768]	; 0x300
    27b4:	00000000 	andeq	r0, r0, r0
    27b8:	32080103 	andcc	r0, r8, #-1073741824	; 0xc0000000
    27bc:	03000000 	movweq	r0, #0
    27c0:	00c40702 	sbceq	r0, r4, r2, lsl #14
    27c4:	04030000 	streq	r0, [r3], #-0
    27c8:	00002007 	andeq	r2, r0, r7
    27cc:	07080300 	streq	r0, [r8, -r0, lsl #6]
    27d0:	0000001b 	andeq	r0, r0, fp, lsl r0
    27d4:	48070403 	stmdami	r7, {r0, r1, sl}
    27d8:	03000001 	movweq	r0, #1
    27dc:	003b0801 	eorseq	r0, fp, r1, lsl #16
    27e0:	ce040000 	cdpgt	0, 0, cr0, cr4, cr0, {0}
    27e4:	01000005 	tsteq	r0, r5
    27e8:	009a5005 	addseq	r5, sl, r5
    27ec:	00001c00 	andeq	r1, r0, r0, lsl #24
    27f0:	9e9c0100 	fmllse	f0, f4, f0
    27f4:	05000000 	streq	r0, [r0, #-0]
    27f8:	000005c8 	andeq	r0, r0, r8, asr #11
    27fc:	002c0501 	eoreq	r0, ip, r1, lsl #10
    2800:	21810000 	orrcs	r0, r1, r0
    2804:	06000000 	streq	r0, [r0], -r0
    2808:	00000593 	muleq	r0, r3, r5
    280c:	002c1101 	eoreq	r1, ip, r1, lsl #2
    2810:	9a6c0000 	bls	1b02818 <__bss_end__+0x1af8268>
    2814:	00140000 	andseq	r0, r4, r0
    2818:	9c010000 	stcls	0, cr0, [r1], {-0}
    281c:	000000cb 	andeq	r0, r0, fp, asr #1
    2820:	009a7807 	addseq	r7, sl, r7, lsl #16
    2824:	0001ca00 	andeq	ip, r1, r0, lsl #20
    2828:	50010800 	andpl	r0, r1, r0, lsl #16
    282c:	30040c05 	andcc	r0, r4, r5, lsl #24
    2830:	00002000 	andeq	r2, r0, r0
    2834:	0005e406 	andeq	lr, r5, r6, lsl #8
    2838:	2c160100 	ldfcss	f0, [r6], {-0}
    283c:	80000000 	andhi	r0, r0, r0
    2840:	0c00009a 	stceq	0, cr0, [r0], {154}	; 0x9a
    2844:	01000000 	mrseq	r0, (UNDEF: 0)
    2848:	0000f99c 	muleq	r0, ip, r9
    284c:	00750900 	rsbseq	r0, r5, r0, lsl #18
    2850:	002c1a01 	eoreq	r1, ip, r1, lsl #20
    2854:	50010000 	andpl	r0, r1, r0
    2858:	009a880a 	addseq	r8, sl, sl, lsl #16
    285c:	00009e00 	andeq	r9, r0, r0, lsl #28
    2860:	db040000 	blle	102868 <__bss_end__+0xf82b8>
    2864:	01000005 	tsteq	r0, r5
    2868:	009a8c1f 	addseq	r8, sl, pc, lsl ip
    286c:	00002400 	andeq	r2, r0, r0, lsl #8
    2870:	579c0100 	ldrpl	r0, [ip, r0, lsl #2]
    2874:	0b000001 	bleq	2880 <_start-0x5780>
    2878:	01007375 	tsteq	r0, r5, ror r3
    287c:	00002c1f 	andeq	r2, r0, pc, lsl ip
    2880:	0021b500 	eoreq	fp, r1, r0, lsl #10
    2884:	62720900 	rsbsvs	r0, r2, #0, 18
    2888:	2c200100 	stfcss	f0, [r0], #-0
    288c:	01000000 	mrseq	r0, (UNDEF: 0)
    2890:	9a9c0c54 	bls	fe7059e8 <__bss_end__+0xfe6fb438>
    2894:	00100000 	andseq	r0, r0, r0
    2898:	014d0000 	mrseq	r0, (UNDEF: 77)
    289c:	720d0000 	andvc	r0, sp, #0
    28a0:	22010061 	andcs	r0, r1, #97	; 0x61
    28a4:	0000002c 	andeq	r0, r0, ip, lsr #32
    28a8:	000021d3 	ldrdeq	r2, [r0], -r3
    28ac:	009aa00a 	addseq	sl, sl, sl
    28b0:	0000cb00 	andeq	ip, r0, r0, lsl #22
    28b4:	980a0000 	stmdals	sl, {}	; <UNPREDICTABLE>
    28b8:	cb00009a 	blgt	2b28 <_start-0x54d8>
    28bc:	00000000 	andeq	r0, r0, r0
    28c0:	0004c404 	andeq	ip, r4, r4, lsl #8
    28c4:	b0280100 	eorlt	r0, r8, r0, lsl #2
    28c8:	1400009a 	strne	r0, [r0], #-154	; 0x9a
    28cc:	01000000 	mrseq	r0, (UNDEF: 0)
    28d0:	0001909c 	muleq	r1, ip, r0
    28d4:	736d0b00 	cmnvc	sp, #0, 22
    28d8:	2c280100 	stfcss	f0, [r8], #-0
    28dc:	e6000000 	str	r0, [r0], -r0
    28e0:	07000021 	streq	r0, [r0, -r1, lsr #32]
    28e4:	00009ac0 	andeq	r9, r0, r0, asr #21
    28e8:	000000f9 	strdeq	r0, [r0], -r9
    28ec:	07500108 	ldrbeq	r0, [r0, -r8, lsl #2]
    28f0:	0a5001f3 	beq	14030c4 <__bss_end__+0x13f8b14>
    28f4:	001e03e8 	andseq	r0, lr, r8, ror #7
    28f8:	05a60400 	streq	r0, [r6, #1024]!	; 0x400
    28fc:	2b010000 	blcs	42904 <__bss_end__+0x38354>
    2900:	00009ac4 	andeq	r9, r0, r4, asr #21
    2904:	00000014 	andeq	r0, r0, r4, lsl r0
    2908:	01ca9c01 	biceq	r9, sl, r1, lsl #24
    290c:	730b0000 	movwvc	r0, #45056	; 0xb000
    2910:	01006365 	tsteq	r0, r5, ror #6
    2914:	00002c2b 	andeq	r2, r0, fp, lsr #24
    2918:	00220700 	eoreq	r0, r2, r0, lsl #14
    291c:	9ad40700 	bls	ff504524 <__bss_end__+0xff4f9f74>
    2920:	01570000 	cmpeq	r7, r0
    2924:	01080000 	mrseq	r0, (UNDEF: 8)
    2928:	01f30750 	mvnseq	r0, r0, asr r7
    292c:	03e80a50 	mvneq	r0, #80, 20	; 0x50000
    2930:	0e00001e 	mcreq	0, 0, r0, cr0, cr14, {0}
    2934:	000005c2 	andeq	r0, r0, r2, asr #11
    2938:	002ca702 	eoreq	sl, ip, r2, lsl #14
    293c:	2c0f0000 	stccs	0, cr0, [pc], {-0}
    2940:	00000000 	andeq	r0, r0, r0
    2944:	00011300 	andeq	r1, r1, r0, lsl #6
    2948:	b6000400 	strlt	r0, [r0], -r0, lsl #8
    294c:	04000011 	streq	r0, [r0], #-17
    2950:	00004001 	andeq	r4, r0, r1
    2954:	060e0100 	streq	r0, [lr], -r0, lsl #2
    2958:	036d0000 	cmneq	sp, #0
    295c:	9ba40000 	blls	fe902964 <__bss_end__+0xfe8f83b4>
    2960:	003c0000 	eorseq	r0, ip, r0
    2964:	11120000 	tstne	r2, r0
    2968:	04020000 	streq	r0, [r2], #-0
    296c:	746e6905 	strbtvc	r6, [lr], #-2309	; 0x905
    2970:	07040300 	streq	r0, [r4, -r0, lsl #6]
    2974:	00000025 	andeq	r0, r0, r5, lsr #32
    2978:	34060103 	strcc	r0, [r6], #-259	; 0x103
    297c:	03000000 	movweq	r0, #0
    2980:	00b20502 	adcseq	r0, r2, r2, lsl #10
    2984:	04030000 	streq	r0, [r3], #-0
    2988:	00000505 	andeq	r0, r0, r5, lsl #10
    298c:	05080300 	streq	r0, [r8, #-768]	; 0x300
    2990:	00000000 	andeq	r0, r0, r0
    2994:	32080103 	andcc	r0, r8, #-1073741824	; 0xc0000000
    2998:	03000000 	movweq	r0, #0
    299c:	00c40702 	sbceq	r0, r4, r2, lsl #14
    29a0:	04030000 	streq	r0, [r3], #-0
    29a4:	00002007 	andeq	r2, r0, r7
    29a8:	07080300 	streq	r0, [r8, -r0, lsl #6]
    29ac:	0000001b 	andeq	r0, r0, fp, lsl r0
    29b0:	48070403 	stmdami	r7, {r0, r1, sl}
    29b4:	03000001 	movweq	r0, #1
    29b8:	003b0801 	eorseq	r0, fp, r1, lsl #16
    29bc:	fd040000 	stc2	0, cr0, [r4, #-0]
    29c0:	01000005 	tsteq	r0, r5
    29c4:	00002503 	andeq	r2, r0, r3, lsl #10
    29c8:	009ba400 	addseq	sl, fp, r0, lsl #8
    29cc:	00001400 	andeq	r1, r0, r0, lsl #8
    29d0:	b09c0100 	addslt	r0, ip, r0, lsl #2
    29d4:	05000000 	streq	r0, [r0, #-0]
    29d8:	03010063 	movweq	r0, #4195	; 0x1063
    29dc:	00000025 	andeq	r0, r0, r5, lsr #32
    29e0:	00002228 	andeq	r2, r0, r8, lsr #4
    29e4:	009bb006 	addseq	fp, fp, r6
    29e8:	00010900 	andeq	r0, r1, r0, lsl #18
    29ec:	50010700 	andpl	r0, r1, r0, lsl #14
    29f0:	00007402 	andeq	r7, r0, r2, lsl #8
    29f4:	048c0800 	streq	r0, [ip], #2048	; 0x800
    29f8:	08010000 	stmdaeq	r1, {}	; <UNPREDICTABLE>
    29fc:	00009bb8 			; <UNDEFINED> instruction: 0x00009bb8
    2a00:	00000018 	andeq	r0, r0, r8, lsl r0
    2a04:	1d099c01 	stcne	12, cr9, [r9, #-4]
    2a08:	01000006 	tsteq	r0, r6
    2a0c:	009bd00b 	addseq	sp, fp, fp
    2a10:	00001000 	andeq	r1, r0, r0
    2a14:	e39c0100 	orrs	r0, ip, #0, 2
    2a18:	0a000000 	beq	2a20 <_start-0x55e0>
    2a1c:	01007066 	tsteq	r0, r6, rrx
    2a20:	0000f20b 	andeq	pc, r0, fp, lsl #4
    2a24:	00500100 	subseq	r0, r0, r0, lsl #2
    2a28:	0000250b 	andeq	r2, r0, fp, lsl #10
    2a2c:	0000f200 	andeq	pc, r0, r0, lsl #4
    2a30:	00250c00 	eoreq	r0, r5, r0, lsl #24
    2a34:	0d000000 	stceq	0, cr0, [r0, #-0]
    2a38:	0000e304 	andeq	lr, r0, r4, lsl #6
    2a3c:	03d20e00 	bicseq	r0, r2, #0, 28
    2a40:	06010000 	streq	r0, [r1], -r0
    2a44:	000000f2 	strdeq	r0, [r0], -r2
    2a48:	9ecc0305 	cdpls	3, 12, cr0, cr12, cr5, {0}
    2a4c:	f30f0000 	vhadd.u8	d0, d15, d0
    2a50:	02000005 	andeq	r0, r0, #5
    2a54:	002c0c3c 	eoreq	r0, ip, ip, lsr ip
    2a58:	00000000 	andeq	r0, r0, r0
    2a5c:	000000e2 	andeq	r0, r0, r2, ror #1
    2a60:	129e0004 	addsne	r0, lr, #4
    2a64:	01040000 	mrseq	r0, (UNDEF: 4)
    2a68:	00000040 	andeq	r0, r0, r0, asr #32
    2a6c:	00062f01 	andeq	r2, r6, r1, lsl #30
    2a70:	00036d00 	andeq	r6, r3, r0, lsl #26
    2a74:	009be000 	addseq	lr, fp, r0
    2a78:	00003800 	andeq	r3, r0, r0, lsl #16
    2a7c:	0011aa00 	andseq	sl, r1, r0, lsl #20
    2a80:	06010200 	streq	r0, [r1], -r0, lsl #4
    2a84:	00000034 	andeq	r0, r0, r4, lsr r0
    2a88:	32080102 	andcc	r0, r8, #-2147483648	; 0x80000000
    2a8c:	02000000 	andeq	r0, r0, #0
    2a90:	00b20502 	adcseq	r0, r2, r2, lsl #10
    2a94:	02020000 	andeq	r0, r2, #0
    2a98:	0000c407 	andeq	ip, r0, r7, lsl #8
    2a9c:	05040300 	streq	r0, [r4, #-768]	; 0x300
    2aa0:	00746e69 	rsbseq	r6, r4, r9, ror #28
    2aa4:	25070402 	strcs	r0, [r7, #-1026]	; 0x402
    2aa8:	02000000 	andeq	r0, r0, #0
    2aac:	00000508 	andeq	r0, r0, r8, lsl #10
    2ab0:	08020000 	stmdaeq	r2, {}	; <UNPREDICTABLE>
    2ab4:	00001b07 	andeq	r1, r0, r7, lsl #22
    2ab8:	05040200 	streq	r0, [r4, #-512]	; 0x200
    2abc:	00000005 	andeq	r0, r0, r5
    2ac0:	48070402 	stmdami	r7, {r1, sl}
    2ac4:	02000001 	andeq	r0, r0, #1
    2ac8:	00200704 	eoreq	r0, r0, r4, lsl #14
    2acc:	04040000 	streq	r0, [r4], #-0
    2ad0:	00000078 	andeq	r0, r0, r8, ror r0
    2ad4:	3b080102 	blcc	202ee4 <__bss_end__+0x1f8934>
    2ad8:	04000000 	streq	r0, [r0], #-0
    2adc:	00008504 	andeq	r8, r0, r4, lsl #10
    2ae0:	00780500 	rsbseq	r0, r8, r0, lsl #10
    2ae4:	09060000 	stmdbeq	r6, {}	; <UNPREDICTABLE>
    2ae8:	02000004 	andeq	r0, r0, #4
    2aec:	0000721c 	andeq	r7, r0, ip, lsl r2
    2af0:	009be000 	addseq	lr, fp, r0
    2af4:	00003800 	andeq	r3, r0, r0, lsl #16
    2af8:	079c0100 	ldreq	r0, [ip, r0, lsl #2]
    2afc:	0000062a 	andeq	r0, r0, sl, lsr #12
    2b00:	00720401 	rsbseq	r0, r2, r1, lsl #8
    2b04:	50010000 	andpl	r0, r1, r0
    2b08:	63727308 	cmnvs	r2, #8, 6	; 0x20000000
    2b0c:	7f040100 	svcvc	0x00040100
    2b10:	46000000 	strmi	r0, [r0], -r0
    2b14:	09000022 	stmdbeq	r0, {r1, r5}
    2b18:	01003173 	tsteq	r0, r3, ror r1
    2b1c:	00007205 	andeq	r7, r0, r5, lsl #4
    2b20:	00226700 	eoreq	r6, r2, r0, lsl #14
    2b24:	32730900 	rsbscc	r0, r3, #0, 18
    2b28:	7f060100 	svcvc	0x00060100
    2b2c:	b3000000 	movwlt	r0, #0
    2b30:	09000022 	stmdbeq	r0, {r1, r5}
    2b34:	07010063 	streq	r0, [r1, -r3, rrx]
    2b38:	00000078 	andeq	r0, r0, r8, ror r0
    2b3c:	000022de 	ldrdeq	r2, [r0], -lr
    2b40:	0cc50000 	stcleq	0, cr0, [r5], {0}
    2b44:	00040000 	andeq	r0, r4, r0
    2b48:	0000131f 	andeq	r1, r0, pc, lsl r3
    2b4c:	06db0104 	ldrbeq	r0, [fp], r4, lsl #2
    2b50:	af0c0000 	svcge	0x000c0000
    2b54:	ca000007 	bgt	2b78 <_start-0x5488>
    2b58:	18000007 	stmdane	r0, {r0, r1, r2}
    2b5c:	7800009c 	stmdavc	r0, {r2, r3, r4, r7}
    2b60:	58000001 	stmdapl	r0, {r0}
    2b64:	02000012 	andeq	r0, r0, #18
    2b68:	6e690504 	cdpvs	5, 6, cr0, cr9, cr4, {0}
    2b6c:	04030074 	streq	r0, [r3], #-116	; 0x74
    2b70:	00002507 	andeq	r2, r0, r7, lsl #10
    2b74:	002c0400 	eoreq	r0, ip, r0, lsl #8
    2b78:	01030000 	mrseq	r0, (UNDEF: 3)
    2b7c:	00003406 	andeq	r3, r0, r6, lsl #8
    2b80:	05020300 	streq	r0, [r2, #-768]	; 0x300
    2b84:	000000b2 	strheq	r0, [r0], -r2
    2b88:	05050403 	streq	r0, [r5, #-1027]	; 0x403
    2b8c:	03000000 	movweq	r0, #0
    2b90:	00000508 	andeq	r0, r0, r8, lsl #10
    2b94:	01030000 	mrseq	r0, (UNDEF: 3)
    2b98:	00003208 	andeq	r3, r0, r8, lsl #4
    2b9c:	07020300 	streq	r0, [r2, -r0, lsl #6]
    2ba0:	000000c4 	andeq	r0, r0, r4, asr #1
    2ba4:	20070403 	andcs	r0, r7, r3, lsl #8
    2ba8:	03000000 	movweq	r0, #0
    2bac:	001b0708 	andseq	r0, fp, r8, lsl #14
    2bb0:	6d050000 	stcvs	0, cr0, [r5, #-0]
    2bb4:	02000009 	andeq	r0, r0, #9
    2bb8:	00002507 	andeq	r2, r0, r7, lsl #10
    2bbc:	09570500 	ldmdbeq	r7, {r8, sl}^
    2bc0:	2c030000 	stccs	0, cr0, [r3], {-0}
    2bc4:	00000046 	andeq	r0, r0, r6, asr #32
    2bc8:	000a3305 	andeq	r3, sl, r5, lsl #6
    2bcc:	46720300 	ldrbtmi	r0, [r2], -r0, lsl #6
    2bd0:	06000000 	streq	r0, [r0], -r0
    2bd4:	000008fb 	strdeq	r0, [r0], -fp
    2bd8:	2c016504 	cfstr32cs	mvfx6, [r1], {4}
    2bdc:	07000000 	streq	r0, [r0, -r0]
    2be0:	bca60304 	stclt	3, cr0, [r6], #16
    2be4:	08000000 	stmdaeq	r0, {}	; <UNPREDICTABLE>
    2be8:	000008e6 	andeq	r0, r0, r6, ror #17
    2bec:	0091a803 	addseq	sl, r1, r3, lsl #16
    2bf0:	82080000 	andhi	r0, r8, #0
    2bf4:	03000008 	movweq	r0, #8
    2bf8:	0000bca9 	andeq	fp, r0, r9, lsr #25
    2bfc:	54090000 	strpl	r0, [r9], #-0
    2c00:	cc000000 	stcgt	0, cr0, [r0], {-0}
    2c04:	0a000000 	beq	2c0c <_start-0x53f4>
    2c08:	000000cc 	andeq	r0, r0, ip, asr #1
    2c0c:	04030003 	streq	r0, [r3], #-3
    2c10:	00014807 	andeq	r4, r1, r7, lsl #16
    2c14:	03080b00 	movweq	r0, #35584	; 0x8b00
    2c18:	0000f4a3 	andeq	pc, r0, r3, lsr #9
    2c1c:	0a180c00 	beq	605c24 <__bss_end__+0x5fb674>
    2c20:	a5030000 	strge	r0, [r3, #-0]
    2c24:	00000025 	andeq	r0, r0, r5, lsr #32
    2c28:	0a200c00 	beq	805c30 <__bss_end__+0x7fb680>
    2c2c:	aa030000 	bge	c2c34 <__bss_end__+0xb8684>
    2c30:	0000009d 	muleq	r0, sp, r0
    2c34:	ab050004 	blge	142c4c <__bss_end__+0x13869c>
    2c38:	03000009 	movweq	r0, #9
    2c3c:	0000d3ab 	andeq	sp, r0, fp, lsr #7
    2c40:	084b0500 	stmdaeq	fp, {r8, sl}^
    2c44:	af030000 	svcge	0x00030000
    2c48:	00000070 	andeq	r0, r0, r0, ror r0
    2c4c:	040e040d 	streq	r0, [lr], #-1037	; 0x40d
    2c50:	00000112 	andeq	r0, r0, r2, lsl r1
    2c54:	3b080103 	blcc	203068 <__bss_end__+0x1f8ab8>
    2c58:	0f000000 	svceq	0x00000000
    2c5c:	00000112 	andeq	r0, r0, r2, lsl r1
    2c60:	000a7305 	andeq	r7, sl, r5, lsl #6
    2c64:	62160500 	andsvs	r0, r6, #0, 10
    2c68:	10000000 	andne	r0, r0, r0
    2c6c:	0000085c 	andeq	r0, r0, ip, asr r8
    2c70:	7c2d0518 	cfstr32vc	mvfx0, [sp], #-96	; 0xffffffa0
    2c74:	0c000001 	stceq	0, cr0, [r0], {1}
    2c78:	000009cc 	andeq	r0, r0, ip, asr #19
    2c7c:	017c2f05 	cmneq	ip, r5, lsl #30
    2c80:	11000000 	mrsne	r0, (UNDEF: 0)
    2c84:	05006b5f 	streq	r6, [r0, #-2911]	; 0xb5f
    2c88:	00002530 	andeq	r2, r0, r0, lsr r5
    2c8c:	030c0400 	movweq	r0, #50176	; 0xc400
    2c90:	0500000a 	streq	r0, [r0, #-10]
    2c94:	00002530 	andeq	r2, r0, r0, lsr r5
    2c98:	370c0800 	strcc	r0, [ip, -r0, lsl #16]
    2c9c:	05000008 	streq	r0, [r0, #-8]
    2ca0:	00002530 	andeq	r2, r0, r0, lsr r5
    2ca4:	ba0c0c00 	blt	305cac <__bss_end__+0x2fb6fc>
    2ca8:	0500000a 	streq	r0, [r0, #-10]
    2cac:	00002530 	andeq	r2, r0, r0, lsr r5
    2cb0:	5f111000 	svcpl	0x00111000
    2cb4:	31050078 	tstcc	r5, r8, ror r0
    2cb8:	00000182 	andeq	r0, r0, r2, lsl #3
    2cbc:	040e0014 	streq	r0, [lr], #-20
    2cc0:	00000129 	andeq	r0, r0, r9, lsr #2
    2cc4:	00011e09 	andeq	r1, r1, r9, lsl #28
    2cc8:	00019200 	andeq	r9, r1, r0, lsl #4
    2ccc:	00cc0a00 	sbceq	r0, ip, r0, lsl #20
    2cd0:	00000000 	andeq	r0, r0, r0
    2cd4:	00087d10 	andeq	r7, r8, r0, lsl sp
    2cd8:	35052400 	strcc	r2, [r5, #-1024]	; 0x400
    2cdc:	0000020b 	andeq	r0, r0, fp, lsl #4
    2ce0:	0006c70c 	andeq	ip, r6, ip, lsl #14
    2ce4:	25370500 	ldrcs	r0, [r7, #-1280]!	; 0x500
    2ce8:	00000000 	andeq	r0, r0, r0
    2cec:	000a3b0c 	andeq	r3, sl, ip, lsl #22
    2cf0:	25380500 	ldrcs	r0, [r8, #-1280]!	; 0x500
    2cf4:	04000000 	streq	r0, [r0], #-0
    2cf8:	0007630c 	andeq	r6, r7, ip, lsl #6
    2cfc:	25390500 	ldrcs	r0, [r9, #-1280]!	; 0x500
    2d00:	08000000 	stmdaeq	r0, {}	; <UNPREDICTABLE>
    2d04:	000bb90c 	andeq	fp, fp, ip, lsl #18
    2d08:	253a0500 	ldrcs	r0, [sl, #-1280]!	; 0x500
    2d0c:	0c000000 	stceq	0, cr0, [r0], {-0}
    2d10:	00093b0c 	andeq	r3, r9, ip, lsl #22
    2d14:	253b0500 	ldrcs	r0, [fp, #-1280]!	; 0x500
    2d18:	10000000 	andne	r0, r0, r0
    2d1c:	0009100c 	andeq	r1, r9, ip
    2d20:	253c0500 	ldrcs	r0, [ip, #-1280]!	; 0x500
    2d24:	14000000 	strne	r0, [r0], #-0
    2d28:	000abf0c 	andeq	fp, sl, ip, lsl #30
    2d2c:	253d0500 	ldrcs	r0, [sp, #-1280]!	; 0x500
    2d30:	18000000 	stmdane	r0, {}	; <UNPREDICTABLE>
    2d34:	00098d0c 	andeq	r8, r9, ip, lsl #26
    2d38:	253e0500 	ldrcs	r0, [lr, #-1280]!	; 0x500
    2d3c:	1c000000 	stcne	0, cr0, [r0], {-0}
    2d40:	000b800c 	andeq	r8, fp, ip
    2d44:	253f0500 	ldrcs	r0, [pc, #-1280]!	; 284c <_start-0x57b4>
    2d48:	20000000 	andcs	r0, r0, r0
    2d4c:	07721200 	ldrbeq	r1, [r2, -r0, lsl #4]!
    2d50:	01080000 	mrseq	r0, (UNDEF: 8)
    2d54:	024b4805 	subeq	r4, fp, #327680	; 0x50000
    2d58:	1e0c0000 	cdpne	0, 0, cr0, cr12, cr0, {0}
    2d5c:	05000008 	streq	r0, [r0, #-8]
    2d60:	00024b49 	andeq	r4, r2, r9, asr #22
    2d64:	3d0c0000 	stccc	0, cr0, [ip, #-0]
    2d68:	05000006 	streq	r0, [r0, #-6]
    2d6c:	00024b4a 	andeq	r4, r2, sl, asr #22
    2d70:	65138000 	ldrvs	r8, [r3, #-0]
    2d74:	0500000a 	streq	r0, [r0, #-10]
    2d78:	00011e4c 	andeq	r1, r1, ip, asr #28
    2d7c:	13010000 	movwne	r0, #4096	; 0x1000
    2d80:	00000797 	muleq	r0, r7, r7
    2d84:	011e4f05 	tsteq	lr, r5, lsl #30
    2d88:	01040000 	mrseq	r0, (UNDEF: 4)
    2d8c:	010a0900 	tsteq	sl, r0, lsl #18
    2d90:	025b0000 	subseq	r0, fp, #0
    2d94:	cc0a0000 	stcgt	0, cr0, [sl], {-0}
    2d98:	1f000000 	svcne	0x00000000
    2d9c:	09441200 	stmdbeq	r4, {r9, ip}^
    2da0:	01900000 	orrseq	r0, r0, r0
    2da4:	02995b05 	addseq	r5, r9, #5120	; 0x1400
    2da8:	cc0c0000 	stcgt	0, cr0, [ip], {-0}
    2dac:	05000009 	streq	r0, [r0, #-9]
    2db0:	0002995c 	andeq	r9, r2, ip, asr r9
    2db4:	e40c0000 	str	r0, [ip], #-0
    2db8:	05000009 	streq	r0, [r0, #-9]
    2dbc:	0000255d 	andeq	r2, r0, sp, asr r5
    2dc0:	320c0400 	andcc	r0, ip, #0, 8
    2dc4:	05000008 	streq	r0, [r0, #-8]
    2dc8:	00029f5f 	andeq	r9, r2, pc, asr pc
    2dcc:	720c0800 	andvc	r0, ip, #0, 16
    2dd0:	05000007 	streq	r0, [r0, #-7]
    2dd4:	00020b60 	andeq	r0, r2, r0, ror #22
    2dd8:	0e008800 	cdpeq	8, 0, cr8, cr0, cr0, {0}
    2ddc:	00025b04 	andeq	r5, r2, r4, lsl #22
    2de0:	02af0900 	adceq	r0, pc, #0, 18
    2de4:	02af0000 	adceq	r0, pc, #0
    2de8:	cc0a0000 	stcgt	0, cr0, [sl], {-0}
    2dec:	1f000000 	svcne	0x00000000
    2df0:	b5040e00 	strlt	r0, [r4, #-3584]	; 0xe00
    2df4:	14000002 	strne	r0, [r0], #-2
    2df8:	00099710 	andeq	r9, r9, r0, lsl r7
    2dfc:	73050800 	movwvc	r0, #22528	; 0x5800
    2e00:	000002db 	ldrdeq	r0, [r0], -fp
    2e04:	0007580c 	andeq	r5, r7, ip, lsl #16
    2e08:	db740500 	blle	1d04210 <__bss_end__+0x1cf9c60>
    2e0c:	00000002 	andeq	r0, r0, r2
    2e10:	0006490c 	andeq	r4, r6, ip, lsl #18
    2e14:	25750500 	ldrbcs	r0, [r5, #-1280]!	; 0x500
    2e18:	04000000 	streq	r0, [r0], #-0
    2e1c:	54040e00 	strpl	r0, [r4], #-3584	; 0xe00
    2e20:	10000000 	andne	r0, r0, r0
    2e24:	000009b6 			; <UNDEFINED> instruction: 0x000009b6
    2e28:	0bb30568 	bleq	fecc43d0 <__bss_end__+0xfecb9e20>
    2e2c:	11000004 	tstne	r0, r4
    2e30:	0500705f 	streq	r7, [r0, #-95]	; 0x5f
    2e34:	0002dbb4 			; <UNDEFINED> instruction: 0x0002dbb4
    2e38:	5f110000 	svcpl	0x00110000
    2e3c:	b5050072 	strlt	r0, [r5, #-114]	; 0x72
    2e40:	00000025 	andeq	r0, r0, r5, lsr #32
    2e44:	775f1104 	ldrbvc	r1, [pc, -r4, lsl #2]
    2e48:	25b60500 	ldrcs	r0, [r6, #1280]!	; 0x500
    2e4c:	08000000 	stmdaeq	r0, {}	; <UNPREDICTABLE>
    2e50:	0007900c 	andeq	r9, r7, ip
    2e54:	3fb70500 	svccc	0x00b70500
    2e58:	0c000000 	stceq	0, cr0, [r0], {-0}
    2e5c:	0008a30c 	andeq	sl, r8, ip, lsl #6
    2e60:	3fb80500 	svccc	0x00b80500
    2e64:	0e000000 	cdpeq	0, 0, cr0, cr0, cr0, {0}
    2e68:	66625f11 	uqadd16vs	r5, r2, r1
    2e6c:	b6b90500 	ldrtlt	r0, [r9], r0, lsl #10
    2e70:	10000002 	andne	r0, r0, r2
    2e74:	00068c0c 	andeq	r8, r6, ip, lsl #24
    2e78:	25ba0500 	ldrcs	r0, [sl, #1280]!	; 0x500
    2e7c:	18000000 	stmdane	r0, {}	; <UNPREDICTABLE>
    2e80:	0007800c 	andeq	r8, r7, ip
    2e84:	0ac10500 	beq	ff04428c <__bss_end__+0xff039cdc>
    2e88:	1c000001 	stcne	0, cr0, [r0], {1}
    2e8c:	000be00c 	andeq	lr, fp, ip
    2e90:	66c30500 	strbvs	r0, [r3], r0, lsl #10
    2e94:	20000005 	andcs	r0, r0, r5
    2e98:	000bfa0c 	andeq	pc, fp, ip, lsl #20
    2e9c:	90c50500 	sbcls	r0, r5, r0, lsl #10
    2ea0:	24000005 	strcs	r0, [r0], #-5
    2ea4:	000a280c 	andeq	r2, sl, ip, lsl #16
    2ea8:	b4c80500 	strblt	r0, [r8], #1280	; 0x500
    2eac:	28000005 	stmdacs	r0, {r0, r2}
    2eb0:	000b9a0c 	andeq	r9, fp, ip, lsl #20
    2eb4:	cec90500 	cdpgt	5, 12, cr0, cr9, cr0, {0}
    2eb8:	2c000005 	stccs	0, cr0, [r0], {5}
    2ebc:	62755f11 	rsbsvs	r5, r5, #17, 30	; 0x44
    2ec0:	b6cc0500 	strblt	r0, [ip], r0, lsl #10
    2ec4:	30000002 	andcc	r0, r0, r2
    2ec8:	70755f11 	rsbsvc	r5, r5, r1, lsl pc
    2ecc:	dbcd0500 	blle	ff3442d4 <__bss_end__+0xff339d24>
    2ed0:	38000002 	stmdacc	r0, {r1}
    2ed4:	72755f11 	rsbsvc	r5, r5, #17, 30	; 0x44
    2ed8:	25ce0500 	strbcs	r0, [lr, #1280]	; 0x500
    2edc:	3c000000 	stccc	0, cr0, [r0], {-0}
    2ee0:	0006d50c 	andeq	sp, r6, ip, lsl #10
    2ee4:	d4d10500 	ldrble	r0, [r1], #1280	; 0x500
    2ee8:	40000005 	andmi	r0, r0, r5
    2eec:	000b450c 	andeq	r4, fp, ip, lsl #10
    2ef0:	e4d20500 	ldrb	r0, [r2], #1280	; 0x500
    2ef4:	43000005 	movwmi	r0, #5
    2ef8:	626c5f11 	rsbvs	r5, ip, #17, 30	; 0x44
    2efc:	b6d50500 	ldrblt	r0, [r5], r0, lsl #10
    2f00:	44000002 	strmi	r0, [r0], #-2
    2f04:	0007a60c 	andeq	sl, r7, ip, lsl #12
    2f08:	25d80500 	ldrbcs	r0, [r8, #1280]	; 0x500
    2f0c:	4c000000 	stcmi	0, cr0, [r0], {-0}
    2f10:	00091a0c 	andeq	r1, r9, ip, lsl #20
    2f14:	7bd90500 	blvc	ff64431c <__bss_end__+0xff639d6c>
    2f18:	50000000 	andpl	r0, r0, r0
    2f1c:	000b300c 	andeq	r3, fp, ip
    2f20:	29dc0500 	ldmibcs	ip, {r8, sl}^
    2f24:	54000004 	strpl	r0, [r0], #-4
    2f28:	0009020c 	andeq	r0, r9, ip, lsl #4
    2f2c:	ffe00500 			; <UNDEFINED> instruction: 0xffe00500
    2f30:	58000000 	stmdapl	r0, {}	; <UNPREDICTABLE>
    2f34:	0009be0c 	andeq	fp, r9, ip, lsl #28
    2f38:	f4e20500 	vld2.16	{d16[0],d17[0]}, [r2], r0
    2f3c:	5c000000 	stcpl	0, cr0, [r0], {-0}
    2f40:	0009080c 	andeq	r0, r9, ip, lsl #16
    2f44:	25e30500 	strbcs	r0, [r3, #1280]!	; 0x500
    2f48:	64000000 	strvs	r0, [r0], #-0
    2f4c:	00251500 	eoreq	r1, r5, r0, lsl #10
    2f50:	04290000 	strteq	r0, [r9], #-0
    2f54:	29160000 	ldmdbcs	r6, {}	; <UNPREDICTABLE>
    2f58:	16000004 	strne	r0, [r0], -r4
    2f5c:	0000010a 	andeq	r0, r0, sl, lsl #2
    2f60:	00010c16 	andeq	r0, r1, r6, lsl ip
    2f64:	00251600 	eoreq	r1, r5, r0, lsl #12
    2f68:	0e000000 	cdpeq	0, 0, cr0, cr0, cr0, {0}
    2f6c:	00043404 	andeq	r3, r4, r4, lsl #8
    2f70:	04290f00 	strteq	r0, [r9], #-3840	; 0xf00
    2f74:	0b170000 	bleq	5c2f7c <__bss_end__+0x5b89cc>
    2f78:	2800000a 	stmdacs	r0, {r1, r3}
    2f7c:	02380504 	eorseq	r0, r8, #4, 10	; 0x1000000
    2f80:	00000566 	andeq	r0, r0, r6, ror #10
    2f84:	00098618 	andeq	r8, r9, r8, lsl r6
    2f88:	023a0500 	eorseq	r0, sl, #0, 10
    2f8c:	00000025 	andeq	r0, r0, r5, lsr #32
    2f90:	079f1800 	ldreq	r1, [pc, r0, lsl #16]
    2f94:	3f050000 	svccc	0x00050000
    2f98:	00063b02 	andeq	r3, r6, r2, lsl #22
    2f9c:	93180400 	tstls	r8, #0, 8
    2fa0:	05000008 	streq	r0, [r0, #-8]
    2fa4:	063b023f 			; <UNDEFINED> instruction: 0x063b023f
    2fa8:	18080000 	stmdane	r8, {}	; <UNPREDICTABLE>
    2fac:	00000854 	andeq	r0, r0, r4, asr r8
    2fb0:	3b023f05 	blcc	92bcc <__bss_end__+0x8861c>
    2fb4:	0c000006 	stceq	0, cr0, [r0], {6}
    2fb8:	0009df18 	andeq	sp, r9, r8, lsl pc
    2fbc:	02410500 	subeq	r0, r1, #0, 10
    2fc0:	00000025 	andeq	r0, r0, r5, lsr #32
    2fc4:	06571810 			; <UNDEFINED> instruction: 0x06571810
    2fc8:	42050000 	andmi	r0, r5, #0
    2fcc:	00081d02 	andeq	r1, r8, r2, lsl #26
    2fd0:	9b181400 	blls	607fd8 <__bss_end__+0x5fda28>
    2fd4:	0500000a 	streq	r0, [r0, #-10]
    2fd8:	00250244 	eoreq	r0, r5, r4, asr #4
    2fdc:	18300000 	ldmdane	r0!, {}	; <UNPREDICTABLE>
    2fe0:	000009e9 	andeq	r0, r0, r9, ror #19
    2fe4:	8a024505 	bhi	94400 <__bss_end__+0x89e50>
    2fe8:	34000005 	strcc	r0, [r0], #-5
    2fec:	00094c18 	andeq	r4, r9, r8, lsl ip
    2ff0:	02470500 	subeq	r0, r7, #0, 10
    2ff4:	00000025 	andeq	r0, r0, r5, lsr #32
    2ff8:	09f91838 	ldmibeq	r9!, {r3, r4, r5, fp, ip}^
    2ffc:	49050000 	stmdbmi	r5, {}	; <UNPREDICTABLE>
    3000:	00083802 	andeq	r3, r8, r2, lsl #16
    3004:	de183c00 	cdple	12, 1, cr3, cr8, cr0, {0}
    3008:	05000008 	streq	r0, [r0, #-8]
    300c:	017c024c 	cmneq	ip, ip, asr #4
    3010:	18400000 	stmdane	r0, {}^	; <UNPREDICTABLE>
    3014:	00000873 	andeq	r0, r0, r3, ror r8
    3018:	25024d05 	strcs	r4, [r2, #-3333]	; 0xd05
    301c:	44000000 	strmi	r0, [r0], #-0
    3020:	000bb418 	andeq	fp, fp, r8, lsl r4
    3024:	024e0500 	subeq	r0, lr, #0, 10
    3028:	0000017c 	andeq	r0, r0, ip, ror r1
    302c:	09631848 	stmdbeq	r3!, {r3, r6, fp, ip}^
    3030:	4f050000 	svcmi	0x00050000
    3034:	00083e02 	andeq	r3, r8, r2, lsl #28
    3038:	9b184c00 	blls	616040 <__bss_end__+0x60ba90>
    303c:	05000008 	streq	r0, [r0, #-8]
    3040:	00250252 	eoreq	r0, r5, r2, asr r2
    3044:	18500000 	ldmdane	r0, {}^	; <UNPREDICTABLE>
    3048:	000007c2 	andeq	r0, r0, r2, asr #15
    304c:	0c025305 	stceq	3, cr5, [r2], {5}
    3050:	54000001 	strpl	r0, [r0], #-1
    3054:	00097f18 	andeq	r7, r9, r8, lsl pc
    3058:	02760500 	rsbseq	r0, r6, #0, 10
    305c:	000007fb 	strdeq	r0, [r0], -fp
    3060:	09441958 	stmdbeq	r4, {r3, r4, r6, r8, fp, ip}^
    3064:	7a050000 	bvc	14306c <__bss_end__+0x138abc>
    3068:	00029902 	andeq	r9, r2, r2, lsl #18
    306c:	19014800 	stmdbne	r1, {fp, lr}
    3070:	000008b0 			; <UNDEFINED> instruction: 0x000008b0
    3074:	5b027b05 	blpl	a1c90 <__bss_end__+0x976e0>
    3078:	4c000002 	stcmi	0, cr0, [r0], {2}
    307c:	0b161901 	bleq	589488 <__bss_end__+0x57eed8>
    3080:	7f050000 	svcvc	0x00050000
    3084:	00084f02 	andeq	r4, r8, r2, lsl #30
    3088:	1902dc00 	stmdbne	r2, {sl, fp, ip, lr, pc}
    308c:	00000788 	andeq	r0, r0, r8, lsl #15
    3090:	00028405 	andeq	r8, r2, r5, lsl #8
    3094:	e0000006 	and	r0, r0, r6
    3098:	076d1902 	strbeq	r1, [sp, -r2, lsl #18]!
    309c:	85050000 	strhi	r0, [r5, #-0]
    30a0:	00085b02 	andeq	r5, r8, r2, lsl #22
    30a4:	0002ec00 	andeq	lr, r2, r0, lsl #24
    30a8:	040b040e 	streq	r0, [fp], #-1038	; 0x40e
    30ac:	25150000 	ldrcs	r0, [r5, #-0]
    30b0:	8a000000 	bhi	30b8 <_start-0x4f48>
    30b4:	16000005 	strne	r0, [r0], -r5
    30b8:	00000429 	andeq	r0, r0, r9, lsr #8
    30bc:	00010a16 	andeq	r0, r1, r6, lsl sl
    30c0:	058a1600 	streq	r1, [sl, #1536]	; 0x600
    30c4:	25160000 	ldrcs	r0, [r6, #-0]
    30c8:	00000000 	andeq	r0, r0, r0
    30cc:	0119040e 	tsteq	r9, lr, lsl #8
    30d0:	040e0000 	streq	r0, [lr], #-0
    30d4:	0000056c 	andeq	r0, r0, ip, ror #10
    30d8:	00008615 	andeq	r8, r0, r5, lsl r6
    30dc:	0005b400 	andeq	fp, r5, r0, lsl #8
    30e0:	04291600 	strteq	r1, [r9], #-1536	; 0x600
    30e4:	0a160000 	beq	5830ec <__bss_end__+0x578b3c>
    30e8:	16000001 	strne	r0, [r0], -r1
    30ec:	00000086 	andeq	r0, r0, r6, lsl #1
    30f0:	00002516 	andeq	r2, r0, r6, lsl r5
    30f4:	040e0000 	streq	r0, [lr], #-0
    30f8:	00000596 	muleq	r0, r6, r5
    30fc:	00002515 	andeq	r2, r0, r5, lsl r5
    3100:	0005ce00 	andeq	ip, r5, r0, lsl #28
    3104:	04291600 	strteq	r1, [r9], #-1536	; 0x600
    3108:	0a160000 	beq	583110 <__bss_end__+0x578b60>
    310c:	00000001 	andeq	r0, r0, r1
    3110:	05ba040e 	ldreq	r0, [sl, #1038]!	; 0x40e
    3114:	54090000 	strpl	r0, [r9], #-0
    3118:	e4000000 	str	r0, [r0], #-0
    311c:	0a000005 	beq	3138 <_start-0x4ec8>
    3120:	000000cc 	andeq	r0, r0, ip, asr #1
    3124:	54090002 	strpl	r0, [r9], #-2
    3128:	f4000000 	vst4.8	{d0-d3}, [r0], r0
    312c:	0a000005 	beq	3148 <_start-0x4eb8>
    3130:	000000cc 	andeq	r0, r0, ip, asr #1
    3134:	a4060000 	strge	r0, [r6], #-0
    3138:	05000009 	streq	r0, [r0, #-9]
    313c:	02e1011d 	rsceq	r0, r1, #1073741831	; 0x40000007
    3140:	c91a0000 	ldmdbgt	sl, {}	; <UNPREDICTABLE>
    3144:	0c00000a 	stceq	0, cr0, [r0], {10}
    3148:	35012105 	strcc	r2, [r1, #-261]	; 0x105
    314c:	18000006 	stmdane	r0, {r1, r2}
    3150:	000009cc 	andeq	r0, r0, ip, asr #19
    3154:	35012305 	strcc	r2, [r1, #-773]	; 0x305
    3158:	00000006 	andeq	r0, r0, r6
    315c:	0008a918 	andeq	sl, r8, r8, lsl r9
    3160:	01240500 	teqeq	r4, r0, lsl #10
    3164:	00000025 	andeq	r0, r0, r5, lsr #32
    3168:	099e1804 	ldmibeq	lr, {r2, fp, ip}
    316c:	25050000 	strcs	r0, [r5, #-0]
    3170:	00063b01 	andeq	r3, r6, r1, lsl #22
    3174:	0e000800 	cdpeq	8, 0, cr0, cr0, cr0, {0}
    3178:	00060004 	andeq	r0, r6, r4
    317c:	f4040e00 			; <UNDEFINED> instruction: 0xf4040e00
    3180:	1a000005 	bne	319c <_start-0x4e64>
    3184:	0000064f 	andeq	r0, r0, pc, asr #12
    3188:	013d050e 	teqeq	sp, lr, lsl #10
    318c:	00000676 	andeq	r0, r0, r6, ror r6
    3190:	000a1218 	andeq	r1, sl, r8, lsl r2
    3194:	013e0500 	teqeq	lr, r0, lsl #10
    3198:	00000676 	andeq	r0, r0, r6, ror r6
    319c:	0a4c1800 	beq	13091a4 <__bss_end__+0x12febf4>
    31a0:	3f050000 	svccc	0x00050000
    31a4:	00067601 	andeq	r7, r6, r1, lsl #12
    31a8:	6e180600 	cfmsub32vs	mvax0, mvfx0, mvfx8, mvfx0
    31ac:	0500000a 	streq	r0, [r0, #-10]
    31b0:	005b0140 	subseq	r0, fp, r0, asr #2
    31b4:	000c0000 	andeq	r0, ip, r0
    31b8:	00005b09 	andeq	r5, r0, r9, lsl #22
    31bc:	00068600 	andeq	r8, r6, r0, lsl #12
    31c0:	00cc0a00 	sbceq	r0, ip, r0, lsl #20
    31c4:	00020000 	andeq	r0, r2, r0
    31c8:	5705d01b 	smladpl	r5, fp, r0, sp
    31cc:	00078702 	andeq	r8, r7, r2, lsl #14
    31d0:	0aad1800 	beq	feb491d8 <__bss_end__+0xfeb3ec28>
    31d4:	59050000 	stmdbpl	r5, {}	; <UNPREDICTABLE>
    31d8:	00002c02 	andeq	r2, r0, r2, lsl #24
    31dc:	58180000 	ldmdapl	r8, {}	; <UNPREDICTABLE>
    31e0:	0500000a 	streq	r0, [r0, #-10]
    31e4:	010c025a 	tsteq	ip, sl, asr r2
    31e8:	18040000 	stmdane	r4, {}	; <UNPREDICTABLE>
    31ec:	000008c5 	andeq	r0, r0, r5, asr #17
    31f0:	87025b05 	strhi	r5, [r2, -r5, lsl #22]
    31f4:	08000007 	stmdaeq	r0, {r0, r1, r2}
    31f8:	000b8b18 	andeq	r8, fp, r8, lsl fp
    31fc:	025c0500 	subseq	r0, ip, #0, 10
    3200:	00000192 	muleq	r0, r2, r1
    3204:	08641824 	stmdaeq	r4!, {r2, r5, fp, ip}^
    3208:	5d050000 	stcpl	0, cr0, [r5, #-0]
    320c:	00002502 	andeq	r2, r0, r2, lsl #10
    3210:	c7184800 	ldrgt	r4, [r8, -r0, lsl #16]
    3214:	05000009 	streq	r0, [r0, #-9]
    3218:	0069025e 	rsbeq	r0, r9, lr, asr r2
    321c:	18500000 	ldmdane	r0, {}^	; <UNPREDICTABLE>
    3220:	00000ba1 	andeq	r0, r0, r1, lsr #23
    3224:	41025f05 	tstmi	r2, r5, lsl #30
    3228:	58000006 	stmdapl	r0, {r1, r2}
    322c:	0009d218 	andeq	sp, r9, r8, lsl r2
    3230:	02600500 	rsbeq	r0, r0, #0, 10
    3234:	000000f4 	strdeq	r0, [r0], -r4
    3238:	0ba61868 	bleq	fe9893e0 <__bss_end__+0xfe97ee30>
    323c:	61050000 	mrsvs	r0, (UNDEF: 5)
    3240:	0000f402 	andeq	pc, r0, r2, lsl #8
    3244:	b9187000 	ldmdblt	r8, {ip, sp, lr}
    3248:	05000006 	streq	r0, [r0, #-6]
    324c:	00f40262 	rscseq	r0, r4, r2, ror #4
    3250:	18780000 	ldmdane	r8!, {}^	; <UNPREDICTABLE>
    3254:	00000ae9 	andeq	r0, r0, r9, ror #21
    3258:	97026305 	strls	r6, [r2, -r5, lsl #6]
    325c:	80000007 	andhi	r0, r0, r7
    3260:	0008b918 	andeq	fp, r8, r8, lsl r9
    3264:	02640500 	rsbeq	r0, r4, #0, 10
    3268:	000007a7 	andeq	r0, r0, r7, lsr #15
    326c:	0a7b1888 	beq	1ec9494 <__bss_end__+0x1ebeee4>
    3270:	65050000 	strvs	r0, [r5, #-0]
    3274:	00002502 	andeq	r2, r0, r2, lsl #10
    3278:	1018a000 	andsne	sl, r8, r0
    327c:	05000008 	streq	r0, [r0, #-8]
    3280:	00f40266 	rscseq	r0, r4, r6, ror #4
    3284:	18a40000 	stmiane	r4!, {}	; <UNPREDICTABLE>
    3288:	000006aa 	andeq	r0, r0, sl, lsr #13
    328c:	f4026705 	vst1.8	{d6}, [r2], r5
    3290:	ac000000 	stcge	0, cr0, [r0], {-0}
    3294:	0007ff18 	andeq	pc, r7, r8, lsl pc	; <UNPREDICTABLE>
    3298:	02680500 	rsbeq	r0, r8, #0, 10
    329c:	000000f4 	strdeq	r0, [r0], -r4
    32a0:	066c18b4 			; <UNDEFINED> instruction: 0x066c18b4
    32a4:	69050000 	stmdbvs	r5, {}	; <UNPREDICTABLE>
    32a8:	0000f402 	andeq	pc, r0, r2, lsl #8
    32ac:	7b18bc00 	blvc	6322b4 <__bss_end__+0x627d04>
    32b0:	05000006 	streq	r0, [r0, #-6]
    32b4:	00f4026a 	rscseq	r0, r4, sl, ror #4
    32b8:	18c40000 	stmiane	r4, {}^	; <UNPREDICTABLE>
    32bc:	00000984 	andeq	r0, r0, r4, lsl #19
    32c0:	25026b05 	strcs	r6, [r2, #-2821]	; 0xb05
    32c4:	cc000000 	stcgt	0, cr0, [r0], {-0}
    32c8:	01120900 	tsteq	r2, r0, lsl #18
    32cc:	07970000 	ldreq	r0, [r7, r0]
    32d0:	cc0a0000 	stcgt	0, cr0, [sl], {-0}
    32d4:	19000000 	stmdbne	r0, {}	; <UNPREDICTABLE>
    32d8:	01120900 	tsteq	r2, r0, lsl #18
    32dc:	07a70000 	streq	r0, [r7, r0]!
    32e0:	cc0a0000 	stcgt	0, cr0, [sl], {-0}
    32e4:	07000000 	streq	r0, [r0, -r0]
    32e8:	01120900 	tsteq	r2, r0, lsl #18
    32ec:	07b70000 	ldreq	r0, [r7, r0]!
    32f0:	cc0a0000 	stcgt	0, cr0, [sl], {-0}
    32f4:	17000000 	strne	r0, [r0, -r0]
    32f8:	05f01b00 	ldrbeq	r1, [r0, #2816]!	; 0xb00
    32fc:	07db0270 			; <UNDEFINED> instruction: 0x07db0270
    3300:	34180000 	ldrcc	r0, [r8], #-0
    3304:	05000009 	streq	r0, [r0, #-9]
    3308:	07db0273 			; <UNDEFINED> instruction: 0x07db0273
    330c:	18000000 	stmdane	r0, {}	; <UNPREDICTABLE>
    3310:	00000ae0 	andeq	r0, r0, r0, ror #21
    3314:	eb027405 	bl	a0330 <__bss_end__+0x95d80>
    3318:	78000007 	stmdavc	r0, {r0, r1, r2}
    331c:	02db0900 	sbcseq	r0, fp, #0, 18
    3320:	07eb0000 	strbeq	r0, [fp, r0]!
    3324:	cc0a0000 	stcgt	0, cr0, [sl], {-0}
    3328:	1d000000 	stcne	0, cr0, [r0, #-0]
    332c:	002c0900 	eoreq	r0, ip, r0, lsl #18
    3330:	07fb0000 	ldrbeq	r0, [fp, r0]!
    3334:	cc0a0000 	stcgt	0, cr0, [sl], {-0}
    3338:	1d000000 	stcne	0, cr0, [r0, #-0]
    333c:	05f01c00 	ldrbeq	r1, [r0, #3072]!	; 0xc00
    3340:	081d0255 	ldmdaeq	sp, {r0, r2, r4, r6, r9}
    3344:	0b1d0000 	bleq	74334c <__bss_end__+0x738d9c>
    3348:	0500000a 	streq	r0, [r0, #-10]
    334c:	0686026c 	streq	r0, [r6], ip, ror #4
    3350:	4b1d0000 	blmi	743358 <__bss_end__+0x738da8>
    3354:	0500000b 	streq	r0, [r0, #-11]
    3358:	07b70275 			; <UNDEFINED> instruction: 0x07b70275
    335c:	09000000 	stmdbeq	r0, {}	; <UNPREDICTABLE>
    3360:	00000112 	andeq	r0, r0, r2, lsl r1
    3364:	0000082d 	andeq	r0, r0, sp, lsr #16
    3368:	0000cc0a 	andeq	ip, r0, sl, lsl #24
    336c:	1e001800 	cdpne	8, 0, cr1, cr0, cr0, {0}
    3370:	00000838 	andeq	r0, r0, r8, lsr r8
    3374:	00042916 	andeq	r2, r4, r6, lsl r9
    3378:	040e0000 	streq	r0, [lr], #-0
    337c:	0000082d 	andeq	r0, r0, sp, lsr #16
    3380:	017c040e 	cmneq	ip, lr, lsl #8
    3384:	4f1e0000 	svcmi	0x001e0000
    3388:	16000008 	strne	r0, [r0], -r8
    338c:	00000025 	andeq	r0, r0, r5, lsr #32
    3390:	55040e00 	strpl	r0, [r4, #-3584]	; 0xe00
    3394:	0e000008 	cdpeq	0, 0, cr0, cr0, cr8, {0}
    3398:	00084404 	andeq	r4, r8, r4, lsl #8
    339c:	05f40900 	ldrbeq	r0, [r4, #2304]!	; 0x900
    33a0:	086b0000 	stmdaeq	fp!, {}^	; <UNPREDICTABLE>
    33a4:	cc0a0000 	stcgt	0, cr0, [sl], {-0}
    33a8:	02000000 	andeq	r0, r0, #0
    33ac:	0a8f1f00 	beq	fe3cafb4 <__bss_end__+0xfe3c0a04>
    33b0:	fd050000 	stc2	0, cr0, [r5, #-0]
    33b4:	00042902 	andeq	r2, r4, r2, lsl #18
    33b8:	0a881f00 	beq	fe20afc0 <__bss_end__+0xfe200a10>
    33bc:	fe050000 	cdp2	0, 0, cr0, cr5, cr0, {0}
    33c0:	00042f02 	andeq	r2, r4, r2, lsl #30
    33c4:	00251500 	eoreq	r1, r5, r0, lsl #10
    33c8:	08920000 	ldmeq	r2, {}	; <UNPREDICTABLE>
    33cc:	25160000 	ldrcs	r0, [r6, #-0]
    33d0:	00000000 	andeq	r0, r0, r0
    33d4:	0003d220 	andeq	sp, r3, r0, lsr #4
    33d8:	9d1d0600 	ldcls	6, cr0, [sp, #-0]
    33dc:	0e000008 	cdpeq	0, 0, cr0, cr0, cr8, {0}
    33e0:	00088304 	andeq	r8, r8, r4, lsl #6
    33e4:	00251500 	eoreq	r1, r5, r0, lsl #10
    33e8:	08b20000 	ldmeq	r2!, {}	; <UNPREDICTABLE>
    33ec:	8a160000 	bhi	5833f4 <__bss_end__+0x578e44>
    33f0:	00000005 	andeq	r0, r0, r5
    33f4:	0003cd20 	andeq	ip, r3, r0, lsr #26
    33f8:	bd220600 	stclt	6, cr0, [r2, #-0]
    33fc:	0e000008 	cdpeq	0, 0, cr0, cr0, cr8, {0}
    3400:	0008a304 	andeq	sl, r8, r4, lsl #6
    3404:	54012100 	strpl	r2, [r1], #-256	; 0x100
    3408:	08000000 	stmdaeq	r0, {}	; <UNPREDICTABLE>
    340c:	0009000c 	andeq	r0, r9, ip
    3410:	069a2200 	ldreq	r2, [sl], r0, lsl #4
    3414:	22000000 	andcs	r0, r0, #0
    3418:	00000acf 	andeq	r0, r0, pc, asr #21
    341c:	0b362201 	bleq	d8bc28 <__bss_end__+0xd81678>
    3420:	22040000 	andcs	r0, r4, #0
    3424:	00000af9 	strdeq	r0, [r0], -r9
    3428:	08ec2205 	stmiaeq	ip!, {r0, r2, r9, sp}^
    342c:	22060000 	andcs	r0, r6, #0
    3430:	00000b53 	andeq	r0, r0, r3, asr fp
    3434:	0b622207 	bleq	188bc58 <__bss_end__+0x18816a8>
    3438:	22030000 	andcs	r0, r3, #0
    343c:	00000b71 	andeq	r0, r0, r1, ror fp
    3440:	b6100002 	ldrlt	r0, [r0], -r2
    3444:	2c000007 	stccs	0, cr0, [r0], {7}
    3448:	09900607 	ldmibeq	r0, {r0, r1, r2, r9, sl}
    344c:	69110000 	ldmdbvs	r1, {}	; <UNPREDICTABLE>
    3450:	0907006f 	stmdbeq	r7, {r0, r1, r2, r3, r5, r6}
    3454:	00000033 	andeq	r0, r0, r3, lsr r0
    3458:	65691100 	strbvs	r1, [r9, #-256]!	; 0x100
    345c:	0a070072 	beq	1c362c <__bss_end__+0x1b907c>
    3460:	00000033 	andeq	r0, r0, r3, lsr r0
    3464:	69691104 	stmdbvs	r9!, {r2, r8, ip}^
    3468:	11070072 	tstne	r7, r2, ror r0
    346c:	00000033 	andeq	r0, r0, r3, lsr r0
    3470:	636c1108 	cmnvs	ip, #8, 2
    3474:	13070072 	movwne	r0, #28786	; 0x7072
    3478:	00000033 	andeq	r0, r0, r3, lsr r0
    347c:	636d110c 	cmnvs	sp, #12, 2
    3480:	14070072 	strne	r0, [r7], #-114	; 0x72
    3484:	00000033 	andeq	r0, r0, r3, lsr r0
    3488:	736c1110 	cmnvc	ip, #16, 2
    348c:	15070072 	strne	r0, [r7, #-114]	; 0x72
    3490:	00000033 	andeq	r0, r0, r3, lsr r0
    3494:	736d1114 	cmnvc	sp, #20, 2
    3498:	16070072 			; <UNDEFINED> instruction: 0x16070072
    349c:	00000033 	andeq	r0, r0, r3, lsr r0
    34a0:	0a440c18 	beq	1106508 <__bss_end__+0x10fbf58>
    34a4:	17070000 	strne	r0, [r7, -r0]
    34a8:	00000033 	andeq	r0, r0, r3, lsr r0
    34ac:	075e0c1c 	smmlaeq	lr, ip, ip, r0
    34b0:	1b070000 	blne	1c34b8 <__bss_end__+0x1b8f08>
    34b4:	00000033 	andeq	r0, r0, r3, lsr r0
    34b8:	06d00c20 	ldrbeq	r0, [r0], r0, lsr #24
    34bc:	1d070000 	stcne	0, cr0, [r7, #-0]
    34c0:	00000033 	andeq	r0, r0, r3, lsr r0
    34c4:	0a2e0c24 	beq	b8655c <__bss_end__+0xb7bfac>
    34c8:	1e070000 	cdpne	0, 0, cr0, cr7, cr0, {0}
    34cc:	00000033 	andeq	r0, r0, r3, lsr r0
    34d0:	26230028 	strtcs	r0, [r3], -r8, lsr #32
    34d4:	01000008 	tsteq	r0, r8
    34d8:	0009a507 	andeq	sl, r9, r7, lsl #10
    34dc:	21500400 	cmpcs	r0, r0, lsl #8
    34e0:	33040e20 	movwcc	r0, #20000	; 0x4e20
    34e4:	0f000000 	svceq	0x00000000
    34e8:	0000099f 	muleq	r0, pc, r9	; <UNPREDICTABLE>
    34ec:	00095e23 	andeq	r5, r9, r3, lsr #28
    34f0:	bf280100 	svclt	0x00280100
    34f4:	40000009 	andmi	r0, r0, r9
    34f8:	0e202150 	mcreq	1, 1, r2, cr0, cr0, {2}
    34fc:	00090004 	andeq	r0, r9, r4
    3500:	09b90f00 	ldmibeq	r9!, {r8, r9, sl, fp}
    3504:	28240000 	stmdacs	r4!, {}	; <UNPREDICTABLE>
    3508:	0100000b 	tsteq	r0, fp
    350c:	000025a7 	andeq	r2, r0, r7, lsr #11
    3510:	009d8000 	addseq	r8, sp, r0
    3514:	00001000 	andeq	r1, r0, r0
    3518:	f09c0100 			; <UNDEFINED> instruction: 0xf09c0100
    351c:	25000009 	strcs	r0, [r0, #-9]
    3520:	00009d88 	andeq	r9, r0, r8, lsl #27
    3524:	00000c9c 	muleq	r0, ip, ip
    3528:	009d8c25 	addseq	r8, sp, r5, lsr #24
    352c:	000ad200 	andeq	sp, sl, r0, lsl #4
    3530:	f3260000 	vhadd.u32	d0, d6, d0
    3534:	01000005 	tsteq	r0, r5
    3538:	009d509f 	umullseq	r5, sp, pc, r0	; <UNPREDICTABLE>
    353c:	00003000 	andeq	r3, r0, r0
    3540:	4e9c0100 	fmlmie	f0, f4, f0
    3544:	2700000a 	strcs	r0, [r0, -sl]
    3548:	9f010063 	svcls	0x00010063
    354c:	0000002c 	andeq	r0, r0, ip, lsr #32
    3550:	00002315 	andeq	r2, r0, r5, lsl r3
    3554:	009d5c25 	addseq	r5, sp, r5, lsr #24
    3558:	000c9c00 	andeq	r9, ip, r0, lsl #24
    355c:	9d602500 	cfstr64ls	mvdx2, [r0, #-0]
    3560:	0aa50000 	beq	fe943568 <__bss_end__+0xfe938fb8>
    3564:	74280000 	strtvc	r0, [r8], #-0
    3568:	a700009d 			; <UNDEFINED> instruction: 0xa700009d
    356c:	4400000c 	strmi	r0, [r0], #-12
    3570:	2900000a 	stmdbcs	r0, {r1, r3}
    3574:	0c055001 	stceq	0, cr5, [r5], {1}
    3578:	20215040 	eorcs	r5, r1, r0, asr #32
    357c:	05510129 	ldrbeq	r0, [r1, #-297]	; 0x129
    3580:	ff080074 			; <UNDEFINED> instruction: 0xff080074
    3584:	7825001a 	stmdavc	r5!, {r1, r3, r4}
    3588:	9c00009d 	stcls	0, cr0, [r0], {157}	; 0x9d
    358c:	0000000c 	andeq	r0, r0, ip
    3590:	00088924 	andeq	r8, r8, r4, lsr #18
    3594:	25970100 	ldrcs	r0, [r7, #256]	; 0x100
    3598:	20000000 	andcs	r0, r0, r0
    359c:	3000009d 	mulcc	r0, sp, r0
    35a0:	01000000 	mrseq	r0, (UNDEF: 0)
    35a4:	000aa59c 	muleq	sl, ip, r5
    35a8:	00632a00 	rsbeq	r2, r3, r0, lsl #20
    35ac:	00259b01 	eoreq	r9, r5, r1, lsl #22
    35b0:	54010000 	strpl	r0, [r1], #-0
    35b4:	009d2825 	addseq	r2, sp, r5, lsr #16
    35b8:	000c9c00 	andeq	r9, ip, r0, lsl #24
    35bc:	9d2c2500 	cfstr32ls	mvfx2, [ip, #-0]
    35c0:	0ad20000 	beq	ff4835c8 <__bss_end__+0xff479018>
    35c4:	3c280000 	stccc	0, cr0, [r8], #-0
    35c8:	b200009d 	andlt	r0, r0, #157	; 0x9d
    35cc:	9b00000c 	blls	3604 <_start-0x49fc>
    35d0:	2900000a 	stmdbcs	r0, {r1, r3}
    35d4:	0c055001 	stceq	0, cr5, [r5], {1}
    35d8:	20215040 	eorcs	r5, r1, r0, asr #32
    35dc:	9d442500 	cfstr64ls	mvdx2, [r4, #-0]
    35e0:	0c9c0000 	ldceq	0, cr0, [ip], {0}
    35e4:	24000000 	strcs	r0, [r0], #-0
    35e8:	0000083d 	andeq	r0, r0, sp, lsr r8
    35ec:	00258801 	eoreq	r8, r5, r1, lsl #16
    35f0:	9d000000 	stcls	0, cr0, [r0, #-0]
    35f4:	00200000 	eoreq	r0, r0, r0
    35f8:	9c010000 	stcls	0, cr0, [r1], {-0}
    35fc:	00000ad2 	ldrdeq	r0, [r0], -r2
    3600:	009d0c2b 	addseq	r0, sp, fp, lsr #24
    3604:	000cb200 	andeq	fp, ip, r0, lsl #4
    3608:	50012900 	andpl	r2, r1, r0, lsl #18
    360c:	50640c05 	rsbpl	r0, r4, r5, lsl #24
    3610:	00002021 	andeq	r2, r0, r1, lsr #32
    3614:	000b0824 	andeq	r0, fp, r4, lsr #16
    3618:	257f0100 	ldrbcs	r0, [pc, #-256]!	; 3520 <_start-0x4ae0>
    361c:	e8000000 	stmda	r0, {}	; <UNPREDICTABLE>
    3620:	1800009c 	stmdane	r0, {r2, r3, r4, r7}
    3624:	01000000 	mrseq	r0, (UNDEF: 0)
    3628:	000aff9c 	muleq	sl, ip, pc	; <UNPREDICTABLE>
    362c:	9cf42b00 	vldmials	r4!, {d18-d17}
    3630:	0cb20000 	ldceq	0, cr0, [r2]
    3634:	01290000 	teqeq	r9, r0
    3638:	640c0550 	strvs	r0, [ip], #-1360	; 0x550
    363c:	00202150 	eoreq	r2, r0, r0, asr r1
    3640:	06622600 	strbteq	r2, [r2], -r0, lsl #12
    3644:	3a010000 	bcc	4364c <__bss_end__+0x3909c>
    3648:	00009c38 	andeq	r9, r0, r8, lsr ip
    364c:	000000b0 	strheq	r0, [r0], -r0	; <UNPREDICTABLE>
    3650:	0c3d9c01 	ldceq	12, cr9, [sp], #-4
    3654:	48280000 	stmdami	r8!, {}	; <UNPREDICTABLE>
    3658:	bd00009c 	stclt	0, cr0, [r0, #-624]	; 0xfffffd90
    365c:	2c00000c 	stccs	0, cr0, [r0], {12}
    3660:	2900000b 	stmdbcs	r0, {r0, r1, r3}
    3664:	3e015001 	cdpcc	0, 0, cr5, cr1, cr1, {0}
    3668:	01510129 	cmpeq	r1, r9, lsr #2
    366c:	54280032 	strtpl	r0, [r8], #-50	; 0x32
    3670:	bd00009c 	stclt	0, cr0, [r0, #-624]	; 0xfffffd90
    3674:	4400000c 	strmi	r0, [r0], #-12
    3678:	2900000b 	stmdbcs	r0, {r0, r1, r3}
    367c:	3f015001 	svccc	0x00015001
    3680:	01510129 	cmpeq	r1, r9, lsr #2
    3684:	58250032 	stmdapl	r5!, {r1, r4, r5}
    3688:	9c00009c 	stcls	0, cr0, [r0], {156}	; 0x9c
    368c:	2800000c 	stmdacs	r0, {r2, r3}
    3690:	00009c64 	andeq	r9, r0, r4, ror #24
    3694:	00000c3d 	andeq	r0, r0, sp, lsr ip
    3698:	00000b69 	andeq	r0, r0, r9, ror #22
    369c:	05500129 	ldrbeq	r0, [r0, #-297]	; 0x129
    36a0:	2150040c 	cmpcs	r0, ip, lsl #8
    36a4:	51012920 	tstpl	r1, r0, lsr #18
    36a8:	25003101 	strcs	r3, [r0, #-257]	; 0x101
    36ac:	00009c68 	andeq	r9, r0, r8, ror #24
    36b0:	00000c9c 	muleq	r0, ip, ip
    36b4:	009c7828 	addseq	r7, ip, r8, lsr #16
    36b8:	000ca700 	andeq	sl, ip, r0, lsl #14
    36bc:	000b8b00 	andeq	r8, fp, r0, lsl #22
    36c0:	50012900 	andpl	r2, r1, r0, lsl #18
    36c4:	29007402 	stmdbcs	r0, {r1, sl, ip, sp, lr}
    36c8:	30015101 	andcc	r5, r1, r1, lsl #2
    36cc:	9c842800 	stcls	8, cr2, [r4], {0}
    36d0:	0ca70000 	stceq	0, cr0, [r7]
    36d4:	0ba70000 	bleq	fe9c36dc <__bss_end__+0xfe9b912c>
    36d8:	01290000 	teqeq	r9, r0
    36dc:	440c0550 	strmi	r0, [ip], #-1360	; 0x550
    36e0:	29202150 	stmdbcs	r0!, {r4, r6, r8, sp}
    36e4:	30015101 	andcc	r5, r1, r1, lsl #2
    36e8:	9c902800 	ldcls	8, cr2, [r0], {0}
    36ec:	0ca70000 	stceq	0, cr0, [r7]
    36f0:	0bc30000 	bleq	ff0c36f8 <__bss_end__+0xff0b9148>
    36f4:	01290000 	teqeq	r9, r0
    36f8:	4c0c0550 	cfstr32mi	mvfx0, [ip], {80}	; 0x50
    36fc:	29202150 	stmdbcs	r0!, {r4, r6, r8, sp}
    3700:	33015101 	movwcc	r5, #4353	; 0x1101
    3704:	9c9c2800 	ldcls	8, cr2, [ip], {0}
    3708:	0ca70000 	stceq	0, cr0, [r7]
    370c:	0bdf0000 	bleq	ff7c3714 <__bss_end__+0xff7b9164>
    3710:	01290000 	teqeq	r9, r0
    3714:	500c0550 	andpl	r0, ip, r0, asr r5
    3718:	29202150 	stmdbcs	r0!, {r4, r6, r8, sp}
    371c:	30015101 	andcc	r5, r1, r1, lsl #2
    3720:	9ca82800 	stcls	8, cr2, [r8]
    3724:	0ca70000 	stceq	0, cr0, [r7]
    3728:	0bfc0000 	bleq	fff03730 <__bss_end__+0xffef9180>
    372c:	01290000 	teqeq	r9, r0
    3730:	480c0550 	stmdami	ip, {r4, r6, r8, sl}
    3734:	29202150 	stmdbcs	r0!, {r4, r6, r8, sp}
    3738:	08025101 	stmdaeq	r2, {r0, r8, ip, lr}
    373c:	b42800c7 	strtlt	r0, [r8], #-199	; 0xc7
    3740:	a700009c 			; <UNDEFINED> instruction: 0xa700009c
    3744:	1a00000c 	bne	377c <_start-0x4884>
    3748:	2900000c 	stmdbcs	r0, {r2, r3}
    374c:	0c055001 	stceq	0, cr5, [r5], {1}
    3750:	20215068 	eorcs	r5, r1, r8, rrx
    3754:	03510129 	cmpeq	r1, #1073741834	; 0x4000000a
    3758:	00010e0a 	andeq	r0, r1, sl, lsl #28
    375c:	009cc028 	addseq	ip, ip, r8, lsr #32
    3760:	000ca700 	andeq	sl, ip, r0, lsl #14
    3764:	000c3300 	andeq	r3, ip, r0, lsl #6
    3768:	50012900 	andpl	r2, r1, r0, lsl #18
    376c:	29007402 	stmdbcs	r0, {r1, sl, ip, sp, lr}
    3770:	33015101 	movwcc	r5, #4353	; 0x1101
    3774:	9cc42500 	cfstr64ls	mvdx2, [r4], {0}
    3778:	0c9c0000 	ldceq	0, cr0, [ip], {0}
    377c:	2c000000 	stccs	0, cr0, [r0], {-0}
    3780:	00000b20 	andeq	r0, r0, r0, lsr #22
    3784:	9c182d01 	ldcls	13, cr2, [r8], {1}
    3788:	00200000 	eoreq	r0, r0, r0
    378c:	9c010000 	stcls	0, cr0, [r1], {-0}
    3790:	00000c95 	muleq	r0, r5, ip
    3794:	0006952d 	andeq	r9, r6, sp, lsr #10
    3798:	952d0100 	strls	r0, [sp, #-256]!	; 0x100
    379c:	3300000c 	movwcc	r0, #12
    37a0:	27000023 	strcs	r0, [r0, -r3, lsr #32]
    37a4:	006c6176 	rsbeq	r6, ip, r6, ror r1
    37a8:	002c2d01 	eoreq	r2, ip, r1, lsl #26
    37ac:	23510000 	cmpcs	r1, #0
    37b0:	28280000 	stmdacs	r8!, {}	; <UNPREDICTABLE>
    37b4:	b200009c 	andlt	r0, r0, #156	; 0x9c
    37b8:	8400000c 	strhi	r0, [r0], #-12
    37bc:	2900000c 	stmdbcs	r0, {r2, r3}
    37c0:	74025001 	strvc	r5, [r2], #-1
    37c4:	342b0000 	strtcc	r0, [fp], #-0
    37c8:	a700009c 			; <UNDEFINED> instruction: 0xa700009c
    37cc:	2900000c 	stmdbcs	r0, {r2, r3}
    37d0:	74025001 	strvc	r5, [r2], #-1
    37d4:	0e000000 	cdpeq	0, 0, cr0, cr0, cr0, {0}
    37d8:	000c9b04 	andeq	r9, ip, r4, lsl #22
    37dc:	d22f2e00 	eorle	r2, pc, #0, 28
    37e0:	d2000008 	andle	r0, r0, #8
    37e4:	06000008 	streq	r0, [r0], -r8
    37e8:	0a522f89 	beq	148f614 <__bss_end__+0x1485064>
    37ec:	0a520000 	beq	14837f4 <__bss_end__+0x1479244>
    37f0:	9c060000 	stcls	0, cr0, [r6], {-0}
    37f4:	000af32f 	andeq	pc, sl, pc, lsr #6
    37f8:	000af300 	andeq	pc, sl, r0, lsl #6
    37fc:	2fa80600 	svccs	0x00a80600
    3800:	00000922 	andeq	r0, r0, r2, lsr #18
    3804:	00000922 	andeq	r0, r0, r2, lsr #18
    3808:	70001908 	andvc	r1, r0, r8, lsl #18
    380c:	0400000b 	streq	r0, [r0], #-11
    3810:	00159300 	andseq	r9, r5, r0, lsl #6
    3814:	db010400 	blle	4481c <__bss_end__+0x3a26c>
    3818:	0c000006 	stceq	0, cr0, [r0], {6}
    381c:	00000bd5 	ldrdeq	r0, [r0], -r5
    3820:	000007ca 	andeq	r0, r0, sl, asr #15
    3824:	00009d90 	muleq	r0, r0, sp
    3828:	00000120 	andeq	r0, r0, r0, lsr #2
    382c:	000013a4 	andeq	r1, r0, r4, lsr #7
    3830:	69050402 	stmdbvs	r5, {r1, sl}
    3834:	0300746e 	movweq	r7, #1134	; 0x46e
    3838:	00250704 	eoreq	r0, r5, r4, lsl #14
    383c:	2c040000 	stccs	0, cr0, [r4], {-0}
    3840:	03000000 	movweq	r0, #0
    3844:	00340601 	eorseq	r0, r4, r1, lsl #12
    3848:	02030000 	andeq	r0, r3, #0
    384c:	0000b205 	andeq	fp, r0, r5, lsl #4
    3850:	05040300 	streq	r0, [r4, #-768]	; 0x300
    3854:	00000005 	andeq	r0, r0, r5
    3858:	00050803 	andeq	r0, r5, r3, lsl #16
    385c:	03000000 	movweq	r0, #0
    3860:	00320801 	eorseq	r0, r2, r1, lsl #16
    3864:	02030000 	andeq	r0, r3, #0
    3868:	0000c407 	andeq	ip, r0, r7, lsl #8
    386c:	07040300 	streq	r0, [r4, -r0, lsl #6]
    3870:	00000020 	andeq	r0, r0, r0, lsr #32
    3874:	1b070803 	blne	1c5888 <__bss_end__+0x1bb2d8>
    3878:	05000000 	streq	r0, [r0, #-0]
    387c:	0000096d 	andeq	r0, r0, sp, ror #18
    3880:	00250702 	eoreq	r0, r5, r2, lsl #14
    3884:	57050000 	strpl	r0, [r5, -r0]
    3888:	03000009 	movweq	r0, #9
    388c:	0000462c 	andeq	r4, r0, ip, lsr #12
    3890:	0a330500 	beq	cc4c98 <__bss_end__+0xcba6e8>
    3894:	72030000 	andvc	r0, r3, #0
    3898:	00000046 	andeq	r0, r0, r6, asr #32
    389c:	0008fb06 	andeq	pc, r8, r6, lsl #22
    38a0:	01650400 	cmneq	r5, r0, lsl #8
    38a4:	0000002c 	andeq	r0, r0, ip, lsr #32
    38a8:	a6030407 	strge	r0, [r3], -r7, lsl #8
    38ac:	000000bc 	strheq	r0, [r0], -ip
    38b0:	0008e608 	andeq	lr, r8, r8, lsl #12
    38b4:	91a80300 			; <UNDEFINED> instruction: 0x91a80300
    38b8:	08000000 	stmdaeq	r0, {}	; <UNPREDICTABLE>
    38bc:	00000882 	andeq	r0, r0, r2, lsl #17
    38c0:	00bca903 	adcseq	sl, ip, r3, lsl #18
    38c4:	09000000 	stmdbeq	r0, {}	; <UNPREDICTABLE>
    38c8:	00000054 	andeq	r0, r0, r4, asr r0
    38cc:	000000cc 	andeq	r0, r0, ip, asr #1
    38d0:	0000cc0a 	andeq	ip, r0, sl, lsl #24
    38d4:	03000300 	movweq	r0, #768	; 0x300
    38d8:	01480704 	cmpeq	r8, r4, lsl #14
    38dc:	080b0000 	stmdaeq	fp, {}	; <UNPREDICTABLE>
    38e0:	00f4a303 	rscseq	sl, r4, r3, lsl #6
    38e4:	180c0000 	stmdane	ip, {}	; <UNPREDICTABLE>
    38e8:	0300000a 	movweq	r0, #10
    38ec:	000025a5 	andeq	r2, r0, r5, lsr #11
    38f0:	200c0000 	andcs	r0, ip, r0
    38f4:	0300000a 	movweq	r0, #10
    38f8:	00009daa 	andeq	r9, r0, sl, lsr #27
    38fc:	05000400 	streq	r0, [r0, #-1024]	; 0x400
    3900:	000009ab 	andeq	r0, r0, fp, lsr #19
    3904:	00d3ab03 	sbcseq	sl, r3, r3, lsl #22
    3908:	4b050000 	blmi	143910 <__bss_end__+0x139360>
    390c:	03000008 	movweq	r0, #8
    3910:	000070af 	andeq	r7, r0, pc, lsr #1
    3914:	0e040d00 	cdpeq	13, 0, cr0, cr4, cr0, {0}
    3918:	00011204 	andeq	r1, r1, r4, lsl #4
    391c:	08010300 	stmdaeq	r1, {r8, r9}
    3920:	0000003b 	andeq	r0, r0, fp, lsr r0
    3924:	00011204 	andeq	r1, r1, r4, lsl #4
    3928:	0a730500 	beq	1cc4d30 <__bss_end__+0x1cba780>
    392c:	16050000 	strne	r0, [r5], -r0
    3930:	00000062 	andeq	r0, r0, r2, rrx
    3934:	00085c0f 	andeq	r5, r8, pc, lsl #24
    3938:	2d051800 	stccs	8, cr1, [r5, #-0]
    393c:	0000017c 	andeq	r0, r0, ip, ror r1
    3940:	0009cc0c 	andeq	ip, r9, ip, lsl #24
    3944:	7c2f0500 	cfstr32vc	mvfx0, [pc], #-0	; 394c <_start-0x46b4>
    3948:	00000001 	andeq	r0, r0, r1
    394c:	006b5f10 	rsbeq	r5, fp, r0, lsl pc
    3950:	00253005 	eoreq	r3, r5, r5
    3954:	0c040000 	stceq	0, cr0, [r4], {-0}
    3958:	00000a03 	andeq	r0, r0, r3, lsl #20
    395c:	00253005 	eoreq	r3, r5, r5
    3960:	0c080000 	stceq	0, cr0, [r8], {-0}
    3964:	00000837 	andeq	r0, r0, r7, lsr r8
    3968:	00253005 	eoreq	r3, r5, r5
    396c:	0c0c0000 	stceq	0, cr0, [ip], {-0}
    3970:	00000aba 			; <UNDEFINED> instruction: 0x00000aba
    3974:	00253005 	eoreq	r3, r5, r5
    3978:	10100000 	andsne	r0, r0, r0
    397c:	0500785f 	streq	r7, [r0, #-2143]	; 0x85f
    3980:	00018231 	andeq	r8, r1, r1, lsr r2
    3984:	0e001400 	cfcpyseq	mvf1, mvf0
    3988:	00012904 	andeq	r2, r1, r4, lsl #18
    398c:	011e0900 	tsteq	lr, r0, lsl #18
    3990:	01920000 	orrseq	r0, r2, r0
    3994:	cc0a0000 	stcgt	0, cr0, [sl], {-0}
    3998:	00000000 	andeq	r0, r0, r0
    399c:	087d0f00 	ldmdaeq	sp!, {r8, r9, sl, fp}^
    39a0:	05240000 	streq	r0, [r4, #-0]!
    39a4:	00020b35 	andeq	r0, r2, r5, lsr fp
    39a8:	06c70c00 	strbeq	r0, [r7], r0, lsl #24
    39ac:	37050000 	strcc	r0, [r5, -r0]
    39b0:	00000025 	andeq	r0, r0, r5, lsr #32
    39b4:	0a3b0c00 	beq	ec69bc <__bss_end__+0xebc40c>
    39b8:	38050000 	stmdacc	r5, {}	; <UNPREDICTABLE>
    39bc:	00000025 	andeq	r0, r0, r5, lsr #32
    39c0:	07630c04 	strbeq	r0, [r3, -r4, lsl #24]!
    39c4:	39050000 	stmdbcc	r5, {}	; <UNPREDICTABLE>
    39c8:	00000025 	andeq	r0, r0, r5, lsr #32
    39cc:	0bb90c08 	bleq	fee469f4 <__bss_end__+0xfee3c444>
    39d0:	3a050000 	bcc	1439d8 <__bss_end__+0x139428>
    39d4:	00000025 	andeq	r0, r0, r5, lsr #32
    39d8:	093b0c0c 	ldmdbeq	fp!, {r2, r3, sl, fp}
    39dc:	3b050000 	blcc	1439e4 <__bss_end__+0x139434>
    39e0:	00000025 	andeq	r0, r0, r5, lsr #32
    39e4:	09100c10 	ldmdbeq	r0, {r4, sl, fp}
    39e8:	3c050000 	stccc	0, cr0, [r5], {-0}
    39ec:	00000025 	andeq	r0, r0, r5, lsr #32
    39f0:	0abf0c14 	beq	fefc6a48 <__bss_end__+0xfefbc498>
    39f4:	3d050000 	stccc	0, cr0, [r5, #-0]
    39f8:	00000025 	andeq	r0, r0, r5, lsr #32
    39fc:	098d0c18 	stmibeq	sp, {r3, r4, sl, fp}
    3a00:	3e050000 	cdpcc	0, 0, cr0, cr5, cr0, {0}
    3a04:	00000025 	andeq	r0, r0, r5, lsr #32
    3a08:	0b800c1c 	bleq	fe006a80 <__bss_end__+0xfdffc4d0>
    3a0c:	3f050000 	svccc	0x00050000
    3a10:	00000025 	andeq	r0, r0, r5, lsr #32
    3a14:	72110020 	andsvc	r0, r1, #32
    3a18:	08000007 	stmdaeq	r0, {r0, r1, r2}
    3a1c:	4b480501 	blmi	1204e28 <__bss_end__+0x11fa878>
    3a20:	0c000002 	stceq	0, cr0, [r0], {2}
    3a24:	0000081e 	andeq	r0, r0, lr, lsl r8
    3a28:	024b4905 	subeq	r4, fp, #81920	; 0x14000
    3a2c:	0c000000 	stceq	0, cr0, [r0], {-0}
    3a30:	0000063d 	andeq	r0, r0, sp, lsr r6
    3a34:	024b4a05 	subeq	r4, fp, #20480	; 0x5000
    3a38:	12800000 	addne	r0, r0, #0
    3a3c:	00000a65 	andeq	r0, r0, r5, ror #20
    3a40:	011e4c05 	tsteq	lr, r5, lsl #24
    3a44:	01000000 	mrseq	r0, (UNDEF: 0)
    3a48:	00079712 	andeq	r9, r7, r2, lsl r7
    3a4c:	1e4f0500 	cdpne	5, 4, cr0, cr15, cr0, {0}
    3a50:	04000001 	streq	r0, [r0], #-1
    3a54:	0a090001 	beq	243a60 <__bss_end__+0x2394b0>
    3a58:	5b000001 	blpl	3a64 <_start-0x459c>
    3a5c:	0a000002 	beq	3a6c <_start-0x4594>
    3a60:	000000cc 	andeq	r0, r0, ip, asr #1
    3a64:	4411001f 	ldrmi	r0, [r1], #-31
    3a68:	90000009 	andls	r0, r0, r9
    3a6c:	995b0501 	ldmdbls	fp, {r0, r8, sl}^
    3a70:	0c000002 	stceq	0, cr0, [r0], {2}
    3a74:	000009cc 	andeq	r0, r0, ip, asr #19
    3a78:	02995c05 	addseq	r5, r9, #1280	; 0x500
    3a7c:	0c000000 	stceq	0, cr0, [r0], {-0}
    3a80:	000009e4 	andeq	r0, r0, r4, ror #19
    3a84:	00255d05 	eoreq	r5, r5, r5, lsl #26
    3a88:	0c040000 	stceq	0, cr0, [r4], {-0}
    3a8c:	00000832 	andeq	r0, r0, r2, lsr r8
    3a90:	029f5f05 	addseq	r5, pc, #5, 30
    3a94:	0c080000 	stceq	0, cr0, [r8], {-0}
    3a98:	00000772 	andeq	r0, r0, r2, ror r7
    3a9c:	020b6005 	andeq	r6, fp, #5
    3aa0:	00880000 	addeq	r0, r8, r0
    3aa4:	025b040e 	subseq	r0, fp, #234881024	; 0xe000000
    3aa8:	af090000 	svcge	0x00090000
    3aac:	af000002 	svcge	0x00000002
    3ab0:	0a000002 	beq	3ac0 <_start-0x4540>
    3ab4:	000000cc 	andeq	r0, r0, ip, asr #1
    3ab8:	040e001f 	streq	r0, [lr], #-31
    3abc:	000002b5 			; <UNDEFINED> instruction: 0x000002b5
    3ac0:	09970f13 	ldmibeq	r7, {r0, r1, r4, r8, r9, sl, fp}
    3ac4:	05080000 	streq	r0, [r8, #-0]
    3ac8:	0002db73 	andeq	sp, r2, r3, ror fp
    3acc:	07580c00 	ldrbeq	r0, [r8, -r0, lsl #24]
    3ad0:	74050000 	strvc	r0, [r5], #-0
    3ad4:	000002db 	ldrdeq	r0, [r0], -fp
    3ad8:	06490c00 	strbeq	r0, [r9], -r0, lsl #24
    3adc:	75050000 	strvc	r0, [r5, #-0]
    3ae0:	00000025 	andeq	r0, r0, r5, lsr #32
    3ae4:	040e0004 	streq	r0, [lr], #-4
    3ae8:	00000054 	andeq	r0, r0, r4, asr r0
    3aec:	0009b60f 	andeq	fp, r9, pc, lsl #12
    3af0:	b3056800 	movwlt	r6, #22528	; 0x5800
    3af4:	0000040b 	andeq	r0, r0, fp, lsl #8
    3af8:	00705f10 	rsbseq	r5, r0, r0, lsl pc
    3afc:	02dbb405 	sbcseq	fp, fp, #83886080	; 0x5000000
    3b00:	10000000 	andne	r0, r0, r0
    3b04:	0500725f 	streq	r7, [r0, #-607]	; 0x25f
    3b08:	000025b5 			; <UNDEFINED> instruction: 0x000025b5
    3b0c:	5f100400 	svcpl	0x00100400
    3b10:	b6050077 			; <UNDEFINED> instruction: 0xb6050077
    3b14:	00000025 	andeq	r0, r0, r5, lsr #32
    3b18:	07900c08 	ldreq	r0, [r0, r8, lsl #24]
    3b1c:	b7050000 	strlt	r0, [r5, -r0]
    3b20:	0000003f 	andeq	r0, r0, pc, lsr r0
    3b24:	08a30c0c 	stmiaeq	r3!, {r2, r3, sl, fp}
    3b28:	b8050000 	stmdalt	r5, {}	; <UNPREDICTABLE>
    3b2c:	0000003f 	andeq	r0, r0, pc, lsr r0
    3b30:	625f100e 	subsvs	r1, pc, #14
    3b34:	b9050066 	stmdblt	r5, {r1, r2, r5, r6}
    3b38:	000002b6 			; <UNDEFINED> instruction: 0x000002b6
    3b3c:	068c0c10 	pkhbteq	r0, ip, r0, lsl #24
    3b40:	ba050000 	blt	143b48 <__bss_end__+0x139598>
    3b44:	00000025 	andeq	r0, r0, r5, lsr #32
    3b48:	07800c18 	usada8eq	r0, r8, ip, r0
    3b4c:	c1050000 	mrsgt	r0, (UNDEF: 5)
    3b50:	0000010a 	andeq	r0, r0, sl, lsl #2
    3b54:	0be00c1c 	bleq	ff806bcc <__bss_end__+0xff7fc61c>
    3b58:	c3050000 	movwgt	r0, #20480	; 0x5000
    3b5c:	00000566 	andeq	r0, r0, r6, ror #10
    3b60:	0bfa0c20 	bleq	ffe86be8 <__bss_end__+0xffe7c638>
    3b64:	c5050000 	strgt	r0, [r5, #-0]
    3b68:	00000590 	muleq	r0, r0, r5
    3b6c:	0a280c24 	beq	a06c04 <__bss_end__+0x9fc654>
    3b70:	c8050000 	stmdagt	r5, {}	; <UNPREDICTABLE>
    3b74:	000005b4 			; <UNDEFINED> instruction: 0x000005b4
    3b78:	0b9a0c28 	bleq	fe686c20 <__bss_end__+0xfe67c670>
    3b7c:	c9050000 	stmdbgt	r5, {}	; <UNPREDICTABLE>
    3b80:	000005ce 	andeq	r0, r0, lr, asr #11
    3b84:	755f102c 	ldrbvc	r1, [pc, #-44]	; 3b60 <_start-0x44a0>
    3b88:	cc050062 	stcgt	0, cr0, [r5], {98}	; 0x62
    3b8c:	000002b6 			; <UNDEFINED> instruction: 0x000002b6
    3b90:	755f1030 	ldrbvc	r1, [pc, #-48]	; 3b68 <_start-0x4498>
    3b94:	cd050070 	stcgt	0, cr0, [r5, #-448]	; 0xfffffe40
    3b98:	000002db 	ldrdeq	r0, [r0], -fp
    3b9c:	755f1038 	ldrbvc	r1, [pc, #-56]	; 3b6c <_start-0x4494>
    3ba0:	ce050072 	mcrgt	0, 0, r0, cr5, cr2, {3}
    3ba4:	00000025 	andeq	r0, r0, r5, lsr #32
    3ba8:	06d50c3c 			; <UNDEFINED> instruction: 0x06d50c3c
    3bac:	d1050000 	mrsle	r0, (UNDEF: 5)
    3bb0:	000005d4 	ldrdeq	r0, [r0], -r4
    3bb4:	0b450c40 	bleq	1146cbc <__bss_end__+0x113c70c>
    3bb8:	d2050000 	andle	r0, r5, #0
    3bbc:	000005e4 	andeq	r0, r0, r4, ror #11
    3bc0:	6c5f1043 	mrrcvs	0, 4, r1, pc, cr3	; <UNPREDICTABLE>
    3bc4:	d5050062 	strle	r0, [r5, #-98]	; 0x62
    3bc8:	000002b6 			; <UNDEFINED> instruction: 0x000002b6
    3bcc:	07a60c44 	streq	r0, [r6, r4, asr #24]!
    3bd0:	d8050000 	stmdale	r5, {}	; <UNPREDICTABLE>
    3bd4:	00000025 	andeq	r0, r0, r5, lsr #32
    3bd8:	091a0c4c 	ldmdbeq	sl, {r2, r3, r6, sl, fp}
    3bdc:	d9050000 	stmdble	r5, {}	; <UNPREDICTABLE>
    3be0:	0000007b 	andeq	r0, r0, fp, ror r0
    3be4:	0b300c50 	bleq	c06d2c <__bss_end__+0xbfc77c>
    3be8:	dc050000 	stcle	0, cr0, [r5], {-0}
    3bec:	00000429 	andeq	r0, r0, r9, lsr #8
    3bf0:	09020c54 	stmdbeq	r2, {r2, r4, r6, sl, fp}
    3bf4:	e0050000 	and	r0, r5, r0
    3bf8:	000000ff 	strdeq	r0, [r0], -pc	; <UNPREDICTABLE>
    3bfc:	09be0c58 	ldmibeq	lr!, {r3, r4, r6, sl, fp}
    3c00:	e2050000 	and	r0, r5, #0
    3c04:	000000f4 	strdeq	r0, [r0], -r4
    3c08:	09080c5c 	stmdbeq	r8, {r2, r3, r4, r6, sl, fp}
    3c0c:	e3050000 	movw	r0, #20480	; 0x5000
    3c10:	00000025 	andeq	r0, r0, r5, lsr #32
    3c14:	25140064 	ldrcs	r0, [r4, #-100]	; 0x64
    3c18:	29000000 	stmdbcs	r0, {}	; <UNPREDICTABLE>
    3c1c:	15000004 	strne	r0, [r0, #-4]
    3c20:	00000429 	andeq	r0, r0, r9, lsr #8
    3c24:	00010a15 	andeq	r0, r1, r5, lsl sl
    3c28:	010c1500 	tsteq	ip, r0, lsl #10
    3c2c:	25150000 	ldrcs	r0, [r5, #-0]
    3c30:	00000000 	andeq	r0, r0, r0
    3c34:	0434040e 	ldrteq	r0, [r4], #-1038	; 0x40e
    3c38:	29040000 	stmdbcs	r4, {}	; <UNPREDICTABLE>
    3c3c:	16000004 	strne	r0, [r0], -r4
    3c40:	00000a0b 	andeq	r0, r0, fp, lsl #20
    3c44:	38050428 	stmdacc	r5, {r3, r5, sl}
    3c48:	00056602 	andeq	r6, r5, r2, lsl #12
    3c4c:	09861700 	stmibeq	r6, {r8, r9, sl, ip}
    3c50:	3a050000 	bcc	143c58 <__bss_end__+0x1396a8>
    3c54:	00002502 	andeq	r2, r0, r2, lsl #10
    3c58:	9f170000 	svcls	0x00170000
    3c5c:	05000007 	streq	r0, [r0, #-7]
    3c60:	063b023f 			; <UNDEFINED> instruction: 0x063b023f
    3c64:	17040000 	strne	r0, [r4, -r0]
    3c68:	00000893 	muleq	r0, r3, r8
    3c6c:	3b023f05 	blcc	93888 <__bss_end__+0x892d8>
    3c70:	08000006 	stmdaeq	r0, {r1, r2}
    3c74:	00085417 	andeq	r5, r8, r7, lsl r4
    3c78:	023f0500 	eorseq	r0, pc, #0, 10
    3c7c:	0000063b 	andeq	r0, r0, fp, lsr r6
    3c80:	09df170c 	ldmibeq	pc, {r2, r3, r8, r9, sl, ip}^	; <UNPREDICTABLE>
    3c84:	41050000 	mrsmi	r0, (UNDEF: 5)
    3c88:	00002502 	andeq	r2, r0, r2, lsl #10
    3c8c:	57171000 	ldrpl	r1, [r7, -r0]
    3c90:	05000006 	streq	r0, [r0, #-6]
    3c94:	081d0242 	ldmdaeq	sp, {r1, r6, r9}
    3c98:	17140000 	ldrne	r0, [r4, -r0]
    3c9c:	00000a9b 	muleq	r0, fp, sl
    3ca0:	25024405 	strcs	r4, [r2, #-1029]	; 0x405
    3ca4:	30000000 	andcc	r0, r0, r0
    3ca8:	0009e917 	andeq	lr, r9, r7, lsl r9
    3cac:	02450500 	subeq	r0, r5, #0, 10
    3cb0:	0000058a 	andeq	r0, r0, sl, lsl #11
    3cb4:	094c1734 	stmdbeq	ip, {r2, r4, r5, r8, r9, sl, ip}^
    3cb8:	47050000 	strmi	r0, [r5, -r0]
    3cbc:	00002502 	andeq	r2, r0, r2, lsl #10
    3cc0:	f9173800 			; <UNDEFINED> instruction: 0xf9173800
    3cc4:	05000009 	streq	r0, [r0, #-9]
    3cc8:	08380249 	ldmdaeq	r8!, {r0, r3, r6, r9}
    3ccc:	173c0000 	ldrne	r0, [ip, -r0]!
    3cd0:	000008de 	ldrdeq	r0, [r0], -lr
    3cd4:	7c024c05 	stcvc	12, cr4, [r2], {5}
    3cd8:	40000001 	andmi	r0, r0, r1
    3cdc:	00087317 	andeq	r7, r8, r7, lsl r3
    3ce0:	024d0500 	subeq	r0, sp, #0, 10
    3ce4:	00000025 	andeq	r0, r0, r5, lsr #32
    3ce8:	0bb41744 	bleq	fed09a00 <__bss_end__+0xfecff450>
    3cec:	4e050000 	cdpmi	0, 0, cr0, cr5, cr0, {0}
    3cf0:	00017c02 	andeq	r7, r1, r2, lsl #24
    3cf4:	63174800 	tstvs	r7, #0, 16
    3cf8:	05000009 	streq	r0, [r0, #-9]
    3cfc:	083e024f 	ldmdaeq	lr!, {r0, r1, r2, r3, r6, r9}
    3d00:	174c0000 	strbne	r0, [ip, -r0]
    3d04:	0000089b 	muleq	r0, fp, r8
    3d08:	25025205 	strcs	r5, [r2, #-517]	; 0x205
    3d0c:	50000000 	andpl	r0, r0, r0
    3d10:	0007c217 	andeq	ip, r7, r7, lsl r2
    3d14:	02530500 	subseq	r0, r3, #0, 10
    3d18:	0000010c 	andeq	r0, r0, ip, lsl #2
    3d1c:	097f1754 	ldmdbeq	pc!, {r2, r4, r6, r8, r9, sl, ip}^	; <UNPREDICTABLE>
    3d20:	76050000 	strvc	r0, [r5], -r0
    3d24:	0007fb02 	andeq	pc, r7, r2, lsl #22
    3d28:	44185800 	ldrmi	r5, [r8], #-2048	; 0x800
    3d2c:	05000009 	streq	r0, [r0, #-9]
    3d30:	0299027a 	addseq	r0, r9, #-1610612729	; 0xa0000007
    3d34:	01480000 	mrseq	r0, (UNDEF: 72)
    3d38:	0008b018 	andeq	fp, r8, r8, lsl r0
    3d3c:	027b0500 	rsbseq	r0, fp, #0, 10
    3d40:	0000025b 	andeq	r0, r0, fp, asr r2
    3d44:	1618014c 	ldrne	r0, [r8], -ip, asr #2
    3d48:	0500000b 	streq	r0, [r0, #-11]
    3d4c:	084f027f 	stmdaeq	pc, {r0, r1, r2, r3, r4, r5, r6, r9}^	; <UNPREDICTABLE>
    3d50:	02dc0000 	sbcseq	r0, ip, #0
    3d54:	00078818 	andeq	r8, r7, r8, lsl r8
    3d58:	02840500 	addeq	r0, r4, #0, 10
    3d5c:	00000600 	andeq	r0, r0, r0, lsl #12
    3d60:	6d1802e0 	lfmvs	f0, 4, [r8, #-896]	; 0xfffffc80
    3d64:	05000007 	streq	r0, [r0, #-7]
    3d68:	085b0285 	ldmdaeq	fp, {r0, r2, r7, r9}^
    3d6c:	02ec0000 	rsceq	r0, ip, #0
    3d70:	0b040e00 	bleq	107578 <__bss_end__+0xfcfc8>
    3d74:	14000004 	strne	r0, [r0], #-4
    3d78:	00000025 	andeq	r0, r0, r5, lsr #32
    3d7c:	0000058a 	andeq	r0, r0, sl, lsl #11
    3d80:	00042915 	andeq	r2, r4, r5, lsl r9
    3d84:	010a1500 	tsteq	sl, r0, lsl #10
    3d88:	8a150000 	bhi	543d90 <__bss_end__+0x5397e0>
    3d8c:	15000005 	strne	r0, [r0, #-5]
    3d90:	00000025 	andeq	r0, r0, r5, lsr #32
    3d94:	19040e00 	stmdbne	r4, {r9, sl, fp}
    3d98:	0e000001 	cdpeq	0, 0, cr0, cr0, cr1, {0}
    3d9c:	00056c04 	andeq	r6, r5, r4, lsl #24
    3da0:	00861400 	addeq	r1, r6, r0, lsl #8
    3da4:	05b40000 	ldreq	r0, [r4, #0]!
    3da8:	29150000 	ldmdbcs	r5, {}	; <UNPREDICTABLE>
    3dac:	15000004 	strne	r0, [r0, #-4]
    3db0:	0000010a 	andeq	r0, r0, sl, lsl #2
    3db4:	00008615 	andeq	r8, r0, r5, lsl r6
    3db8:	00251500 	eoreq	r1, r5, r0, lsl #10
    3dbc:	0e000000 	cdpeq	0, 0, cr0, cr0, cr0, {0}
    3dc0:	00059604 	andeq	r9, r5, r4, lsl #12
    3dc4:	00251400 	eoreq	r1, r5, r0, lsl #8
    3dc8:	05ce0000 	strbeq	r0, [lr]
    3dcc:	29150000 	ldmdbcs	r5, {}	; <UNPREDICTABLE>
    3dd0:	15000004 	strne	r0, [r0, #-4]
    3dd4:	0000010a 	andeq	r0, r0, sl, lsl #2
    3dd8:	ba040e00 	blt	1075e0 <__bss_end__+0xfd030>
    3ddc:	09000005 	stmdbeq	r0, {r0, r2}
    3de0:	00000054 	andeq	r0, r0, r4, asr r0
    3de4:	000005e4 	andeq	r0, r0, r4, ror #11
    3de8:	0000cc0a 	andeq	ip, r0, sl, lsl #24
    3dec:	09000200 	stmdbeq	r0, {r9}
    3df0:	00000054 	andeq	r0, r0, r4, asr r0
    3df4:	000005f4 	strdeq	r0, [r0], -r4
    3df8:	0000cc0a 	andeq	ip, r0, sl, lsl #24
    3dfc:	06000000 	streq	r0, [r0], -r0
    3e00:	000009a4 	andeq	r0, r0, r4, lsr #19
    3e04:	e1011d05 	tst	r1, r5, lsl #26
    3e08:	19000002 	stmdbne	r0, {r1}
    3e0c:	00000ac9 	andeq	r0, r0, r9, asr #21
    3e10:	0121050c 	teqeq	r1, ip, lsl #10
    3e14:	00000635 	andeq	r0, r0, r5, lsr r6
    3e18:	0009cc17 	andeq	ip, r9, r7, lsl ip
    3e1c:	01230500 	teqeq	r3, r0, lsl #10
    3e20:	00000635 	andeq	r0, r0, r5, lsr r6
    3e24:	08a91700 	stmiaeq	r9!, {r8, r9, sl, ip}
    3e28:	24050000 	strcs	r0, [r5], #-0
    3e2c:	00002501 	andeq	r2, r0, r1, lsl #10
    3e30:	9e170400 	cfmulsls	mvf0, mvf7, mvf0
    3e34:	05000009 	streq	r0, [r0, #-9]
    3e38:	063b0125 	ldrteq	r0, [fp], -r5, lsr #2
    3e3c:	00080000 	andeq	r0, r8, r0
    3e40:	0600040e 	streq	r0, [r0], -lr, lsl #8
    3e44:	040e0000 	streq	r0, [lr], #-0
    3e48:	000005f4 	strdeq	r0, [r0], -r4
    3e4c:	00064f19 	andeq	r4, r6, r9, lsl pc
    3e50:	3d050e00 	stccc	14, cr0, [r5, #-0]
    3e54:	00067601 	andeq	r7, r6, r1, lsl #12
    3e58:	0a121700 	beq	489a60 <__bss_end__+0x47f4b0>
    3e5c:	3e050000 	cdpcc	0, 0, cr0, cr5, cr0, {0}
    3e60:	00067601 	andeq	r7, r6, r1, lsl #12
    3e64:	4c170000 	ldcmi	0, cr0, [r7], {-0}
    3e68:	0500000a 	streq	r0, [r0, #-10]
    3e6c:	0676013f 			; <UNDEFINED> instruction: 0x0676013f
    3e70:	17060000 	strne	r0, [r6, -r0]
    3e74:	00000a6e 	andeq	r0, r0, lr, ror #20
    3e78:	5b014005 	blpl	53e94 <__bss_end__+0x498e4>
    3e7c:	0c000000 	stceq	0, cr0, [r0], {-0}
    3e80:	005b0900 	subseq	r0, fp, r0, lsl #18
    3e84:	06860000 	streq	r0, [r6], r0
    3e88:	cc0a0000 	stcgt	0, cr0, [sl], {-0}
    3e8c:	02000000 	andeq	r0, r0, #0
    3e90:	05d01a00 	ldrbeq	r1, [r0, #2560]	; 0xa00
    3e94:	07870257 			; <UNDEFINED> instruction: 0x07870257
    3e98:	ad170000 	ldcge	0, cr0, [r7, #-0]
    3e9c:	0500000a 	streq	r0, [r0, #-10]
    3ea0:	002c0259 	eoreq	r0, ip, r9, asr r2
    3ea4:	17000000 	strne	r0, [r0, -r0]
    3ea8:	00000a58 	andeq	r0, r0, r8, asr sl
    3eac:	0c025a05 	stceq	10, cr5, [r2], {5}
    3eb0:	04000001 	streq	r0, [r0], #-1
    3eb4:	0008c517 	andeq	ip, r8, r7, lsl r5
    3eb8:	025b0500 	subseq	r0, fp, #0, 10
    3ebc:	00000787 	andeq	r0, r0, r7, lsl #15
    3ec0:	0b8b1708 	bleq	fe2c9ae8 <__bss_end__+0xfe2bf538>
    3ec4:	5c050000 	stcpl	0, cr0, [r5], {-0}
    3ec8:	00019202 	andeq	r9, r1, r2, lsl #4
    3ecc:	64172400 	ldrvs	r2, [r7], #-1024	; 0x400
    3ed0:	05000008 	streq	r0, [r0, #-8]
    3ed4:	0025025d 	eoreq	r0, r5, sp, asr r2
    3ed8:	17480000 	strbne	r0, [r8, -r0]
    3edc:	000009c7 	andeq	r0, r0, r7, asr #19
    3ee0:	69025e05 	stmdbvs	r2, {r0, r2, r9, sl, fp, ip, lr}
    3ee4:	50000000 	andpl	r0, r0, r0
    3ee8:	000ba117 	andeq	sl, fp, r7, lsl r1
    3eec:	025f0500 	subseq	r0, pc, #0, 10
    3ef0:	00000641 	andeq	r0, r0, r1, asr #12
    3ef4:	09d21758 	ldmibeq	r2, {r3, r4, r6, r8, r9, sl, ip}^
    3ef8:	60050000 	andvs	r0, r5, r0
    3efc:	0000f402 	andeq	pc, r0, r2, lsl #8
    3f00:	a6176800 	ldrge	r6, [r7], -r0, lsl #16
    3f04:	0500000b 	streq	r0, [r0, #-11]
    3f08:	00f40261 	rscseq	r0, r4, r1, ror #4
    3f0c:	17700000 	ldrbne	r0, [r0, -r0]!
    3f10:	000006b9 			; <UNDEFINED> instruction: 0x000006b9
    3f14:	f4026205 	vst1.8	{d6-d9}, [r2], r5
    3f18:	78000000 	stmdavc	r0, {}	; <UNPREDICTABLE>
    3f1c:	000ae917 	andeq	lr, sl, r7, lsl r9
    3f20:	02630500 	rsbeq	r0, r3, #0, 10
    3f24:	00000797 	muleq	r0, r7, r7
    3f28:	08b91780 	ldmeq	r9!, {r7, r8, r9, sl, ip}
    3f2c:	64050000 	strvs	r0, [r5], #-0
    3f30:	0007a702 	andeq	sl, r7, r2, lsl #14
    3f34:	7b178800 	blvc	5e5f3c <__bss_end__+0x5db98c>
    3f38:	0500000a 	streq	r0, [r0, #-10]
    3f3c:	00250265 	eoreq	r0, r5, r5, ror #4
    3f40:	17a00000 	strne	r0, [r0, r0]!
    3f44:	00000810 	andeq	r0, r0, r0, lsl r8
    3f48:	f4026605 	vst1.8	{d6-d8}, [r2], r5
    3f4c:	a4000000 	strge	r0, [r0], #-0
    3f50:	0006aa17 	andeq	sl, r6, r7, lsl sl
    3f54:	02670500 	rsbeq	r0, r7, #0, 10
    3f58:	000000f4 	strdeq	r0, [r0], -r4
    3f5c:	07ff17ac 	ldrbeq	r1, [pc, ip, lsr #15]!
    3f60:	68050000 	stmdavs	r5, {}	; <UNPREDICTABLE>
    3f64:	0000f402 	andeq	pc, r0, r2, lsl #8
    3f68:	6c17b400 	cfldrsvs	mvf11, [r7], {-0}
    3f6c:	05000006 	streq	r0, [r0, #-6]
    3f70:	00f40269 	rscseq	r0, r4, r9, ror #4
    3f74:	17bc0000 	ldrne	r0, [ip, r0]!
    3f78:	0000067b 	andeq	r0, r0, fp, ror r6
    3f7c:	f4026a05 	vst1.8	{d6-d7}, [r2], r5
    3f80:	c4000000 	strgt	r0, [r0], #-0
    3f84:	00098417 	andeq	r8, r9, r7, lsl r4
    3f88:	026b0500 	rsbeq	r0, fp, #0, 10
    3f8c:	00000025 	andeq	r0, r0, r5, lsr #32
    3f90:	120900cc 	andne	r0, r9, #204	; 0xcc
    3f94:	97000001 	strls	r0, [r0, -r1]
    3f98:	0a000007 	beq	3fbc <_start-0x4044>
    3f9c:	000000cc 	andeq	r0, r0, ip, asr #1
    3fa0:	12090019 	andne	r0, r9, #25
    3fa4:	a7000001 	strge	r0, [r0, -r1]
    3fa8:	0a000007 	beq	3fcc <_start-0x4034>
    3fac:	000000cc 	andeq	r0, r0, ip, asr #1
    3fb0:	12090007 	andne	r0, r9, #7
    3fb4:	b7000001 	strlt	r0, [r0, -r1]
    3fb8:	0a000007 	beq	3fdc <_start-0x4024>
    3fbc:	000000cc 	andeq	r0, r0, ip, asr #1
    3fc0:	f01a0017 			; <UNDEFINED> instruction: 0xf01a0017
    3fc4:	db027005 	blle	9ffe0 <__bss_end__+0x95a30>
    3fc8:	17000007 	strne	r0, [r0, -r7]
    3fcc:	00000934 	andeq	r0, r0, r4, lsr r9
    3fd0:	db027305 	blle	a0bec <__bss_end__+0x9663c>
    3fd4:	00000007 	andeq	r0, r0, r7
    3fd8:	000ae017 	andeq	lr, sl, r7, lsl r0
    3fdc:	02740500 	rsbseq	r0, r4, #0, 10
    3fe0:	000007eb 	andeq	r0, r0, fp, ror #15
    3fe4:	db090078 	blle	2441cc <__bss_end__+0x239c1c>
    3fe8:	eb000002 	bl	3ff8 <_start-0x4008>
    3fec:	0a000007 	beq	4010 <_start-0x3ff0>
    3ff0:	000000cc 	andeq	r0, r0, ip, asr #1
    3ff4:	2c09001d 	stccs	0, cr0, [r9], {29}
    3ff8:	fb000000 	blx	4002 <_start-0x3ffe>
    3ffc:	0a000007 	beq	4020 <_start-0x3fe0>
    4000:	000000cc 	andeq	r0, r0, ip, asr #1
    4004:	f01b001d 			; <UNDEFINED> instruction: 0xf01b001d
    4008:	1d025505 	cfstr32ne	mvfx5, [r2, #-20]	; 0xffffffec
    400c:	1c000008 	stcne	0, cr0, [r0], {8}
    4010:	00000a0b 	andeq	r0, r0, fp, lsl #20
    4014:	86026c05 	strhi	r6, [r2], -r5, lsl #24
    4018:	1c000006 	stcne	0, cr0, [r0], {6}
    401c:	00000b4b 	andeq	r0, r0, fp, asr #22
    4020:	b7027505 	strlt	r7, [r2, -r5, lsl #10]
    4024:	00000007 	andeq	r0, r0, r7
    4028:	00011209 	andeq	r1, r1, r9, lsl #4
    402c:	00082d00 	andeq	r2, r8, r0, lsl #26
    4030:	00cc0a00 	sbceq	r0, ip, r0, lsl #20
    4034:	00180000 	andseq	r0, r8, r0
    4038:	0008381d 	andeq	r3, r8, sp, lsl r8
    403c:	04291500 	strteq	r1, [r9], #-1280	; 0x500
    4040:	0e000000 	cdpeq	0, 0, cr0, cr0, cr0, {0}
    4044:	00082d04 	andeq	r2, r8, r4, lsl #26
    4048:	7c040e00 	stcvc	14, cr0, [r4], {-0}
    404c:	1d000001 	stcne	0, cr0, [r0, #-4]
    4050:	0000084f 	andeq	r0, r0, pc, asr #16
    4054:	00002515 	andeq	r2, r0, r5, lsl r5
    4058:	040e0000 	streq	r0, [lr], #-0
    405c:	00000855 	andeq	r0, r0, r5, asr r8
    4060:	0844040e 	stmdaeq	r4, {r1, r2, r3, sl}^
    4064:	f4090000 	vst4.8	{d0-d3}, [r9], r0
    4068:	6b000005 	blvs	4084 <_start-0x3f7c>
    406c:	0a000008 	beq	4094 <_start-0x3f6c>
    4070:	000000cc 	andeq	r0, r0, ip, asr #1
    4074:	8f1e0002 	svchi	0x001e0002
    4078:	0500000a 	streq	r0, [r0, #-10]
    407c:	042902fd 	strteq	r0, [r9], #-765	; 0x2fd
    4080:	881e0000 	ldmdahi	lr, {}	; <UNPREDICTABLE>
    4084:	0500000a 	streq	r0, [r0, #-10]
    4088:	042f02fe 	strteq	r0, [pc], #-766	; 4090 <_start-0x3f70>
    408c:	25140000 	ldrcs	r0, [r4, #-0]
    4090:	92000000 	andls	r0, r0, #0
    4094:	15000008 	strne	r0, [r0, #-8]
    4098:	00000025 	andeq	r0, r0, r5, lsr #32
    409c:	03d21f00 	bicseq	r1, r2, #0, 30
    40a0:	1d060000 	stcne	0, cr0, [r6, #-0]
    40a4:	0000089d 	muleq	r0, sp, r8
    40a8:	0883040e 	stmeq	r3, {r1, r2, r3, sl}
    40ac:	25140000 	ldrcs	r0, [r4, #-0]
    40b0:	b2000000 	andlt	r0, r0, #0
    40b4:	15000008 	strne	r0, [r0, #-8]
    40b8:	0000058a 	andeq	r0, r0, sl, lsl #11
    40bc:	03cd1f00 	biceq	r1, sp, #0, 30
    40c0:	22060000 	andcs	r0, r6, #0
    40c4:	000008bd 			; <UNDEFINED> instruction: 0x000008bd
    40c8:	08a3040e 	stmiaeq	r3!, {r1, r2, r3, sl}
    40cc:	01200000 	teqeq	r0, r0
    40d0:	00000054 	andeq	r0, r0, r4, asr r0
    40d4:	09000c07 	stmdbeq	r0, {r0, r1, r2, sl, fp}
    40d8:	9a210000 	bls	8440e0 <__bss_end__+0x839b30>
    40dc:	00000006 	andeq	r0, r0, r6
    40e0:	000acf21 	andeq	ip, sl, r1, lsr #30
    40e4:	36210100 	strtcc	r0, [r1], -r0, lsl #2
    40e8:	0400000b 	streq	r0, [r0], #-11
    40ec:	000af921 	andeq	pc, sl, r1, lsr #18
    40f0:	ec210500 	cfstr32	mvfx0, [r1], #-0
    40f4:	06000008 	streq	r0, [r0], -r8
    40f8:	000b5321 	andeq	r5, fp, r1, lsr #6
    40fc:	62210700 	eorvs	r0, r1, #0, 14
    4100:	0300000b 	movweq	r0, #11
    4104:	000b7121 	andeq	r7, fp, r1, lsr #2
    4108:	05000200 	streq	r0, [r0, #-512]	; 0x200
    410c:	00000c30 	andeq	r0, r0, r0, lsr ip
    4110:	08c31507 	stmiaeq	r3, {r0, r1, r2, r8, sl, ip}^
    4114:	01220000 	teqeq	r2, r0
    4118:	0100000c 	tsteq	r0, ip
    411c:	0000331d 	andeq	r3, r0, sp, lsl r3
    4120:	20001c00 	andcs	r1, r0, r0, lsl #24
    4124:	0c3c2220 	lfmeq	f2, 4, [ip], #-128	; 0xffffff80
    4128:	1e010000 	cdpne	0, 0, cr0, cr1, cr0, {0}
    412c:	00000033 	andeq	r0, r0, r3, lsr r0
    4130:	20200028 	eorcs	r0, r0, r8, lsr #32
    4134:	000c0b22 	andeq	r0, ip, r2, lsr #22
    4138:	331f0100 	tstcc	pc, #0, 2
    413c:	34000000 	strcc	r0, [r0], #-0
    4140:	23202000 	teqcs	r0, #0
    4144:	00000bdc 	ldrdeq	r0, [r0], -ip
    4148:	00255601 	eoreq	r5, r5, r1, lsl #12
    414c:	9e7c0000 	cdpls	0, 7, cr0, cr12, cr0, {0}
    4150:	00340000 	eorseq	r0, r4, r0
    4154:	9c010000 	stcls	0, cr0, [r1], {-0}
    4158:	00000998 	muleq	r0, r8, r9
    415c:	6e697024 	cdpvs	0, 6, cr7, cr9, cr4, {1}
    4160:	2c560100 	ldfcse	f0, [r6], {-0}
    4164:	6f000000 	svcvs	0x00000000
    4168:	25000023 	strcs	r0, [r0, #-35]	; 0x23
    416c:	00000bd0 	ldrdeq	r0, [r0], -r0	; <UNPREDICTABLE>
    4170:	002c5901 	eoreq	r5, ip, r1, lsl #18
    4174:	23a90000 			; <UNDEFINED> instruction: 0x23a90000
    4178:	6f260000 	svcvs	0x00260000
    417c:	01006666 	tsteq	r0, r6, ror #12
    4180:	00002c5a 	andeq	r2, r0, sl, asr ip
    4184:	0023e700 	eoreq	lr, r3, r0, lsl #14
    4188:	9e982700 	cdpls	7, 9, cr2, cr8, cr0, {0}
    418c:	0b5d0000 	bleq	1744194 <__bss_end__+0x1739be4>
    4190:	01280000 	teqeq	r8, r0
    4194:	01f30b50 	mvnseq	r0, r0, asr fp
    4198:	23253550 	teqcs	r5, #80, 10	; 0x14000000
    419c:	818080b4 	strhhi	r8, [r0, r4]
    41a0:	29000002 	stmdbcs	r0, {r1}
    41a4:	00000bf6 	strdeq	r0, [r0], -r6
    41a8:	9e604f01 	cdpls	15, 6, cr4, cr0, cr1, {0}
    41ac:	001c0000 	andseq	r0, ip, r0
    41b0:	9c010000 	stcls	0, cr0, [r1], {-0}
    41b4:	000009e8 	andeq	r0, r0, r8, ror #19
    41b8:	6e697024 	cdpvs	0, 6, cr7, cr9, cr4, {1}
    41bc:	2c4f0100 	stfcse	f0, [pc], {-0}
    41c0:	fa000000 	blx	41c8 <_start-0x3e38>
    41c4:	24000023 	strcs	r0, [r0], #-35	; 0x23
    41c8:	4f010076 	svcmi	0x00010076
    41cc:	0000002c 	andeq	r0, r0, ip, lsr #32
    41d0:	00002434 	andeq	r2, r0, r4, lsr r4
    41d4:	009e702a 	addseq	r7, lr, sl, lsr #32
    41d8:	000a2300 	andeq	r2, sl, r0, lsl #6
    41dc:	0009de00 	andeq	sp, r9, r0, lsl #28
    41e0:	50012800 	andpl	r2, r1, r0, lsl #16
    41e4:	5001f303 	andpl	pc, r1, r3, lsl #6
    41e8:	9e782b00 	vaddls.f64	d18, d8, d0
    41ec:	0a640000 	beq	19041f4 <__bss_end__+0x18f9c44>
    41f0:	29000000 	stmdbcs	r0, {}	; <UNPREDICTABLE>
    41f4:	00000c15 	andeq	r0, r0, r5, lsl ip
    41f8:	9e504a01 	vnmlsls.f32	s9, s0, s2
    41fc:	00100000 	andseq	r0, r0, r0
    4200:	9c010000 	stcls	0, cr0, [r1], {-0}
    4204:	00000a23 	andeq	r0, r0, r3, lsr #20
    4208:	6e697024 	cdpvs	0, 6, cr7, cr9, cr4, {1}
    420c:	2c4a0100 	stfcse	f0, [sl], {-0}
    4210:	6e000000 	cdpvs	0, 0, cr0, cr0, cr0, {0}
    4214:	27000024 	strcs	r0, [r0, -r4, lsr #32]
    4218:	00009e5c 	andeq	r9, r0, ip, asr lr
    421c:	00000ae0 	andeq	r0, r0, r0, ror #21
    4220:	03500128 	cmpeq	r0, #40, 2
    4224:	285001f3 	ldmdacs	r0, {r0, r1, r4, r5, r6, r7, r8}^
    4228:	30015101 	andcc	r5, r1, r1, lsl #2
    422c:	c3290000 	teqgt	r9, #0
    4230:	0100000b 	tsteq	r0, fp
    4234:	009e2c43 	addseq	r2, lr, r3, asr #24
    4238:	00002400 	andeq	r2, r0, r0, lsl #8
    423c:	649c0100 	ldrvs	r0, [ip], #256	; 0x100
    4240:	2400000a 	strcs	r0, [r0], #-10
    4244:	006e6970 	rsbeq	r6, lr, r0, ror r9
    4248:	002c4301 	eoreq	r4, ip, r1, lsl #6
    424c:	248f0000 	strcs	r0, [pc], #0	; 4254 <_start-0x3dac>
    4250:	48270000 	stmdami	r7!, {}	; <UNPREDICTABLE>
    4254:	6800009e 	stmdavs	r0, {r1, r2, r3, r4, r7}
    4258:	2800000b 	stmdacs	r0, {r0, r1, r3}
    425c:	0c055001 	stceq	0, cr5, [r5], {1}
    4260:	20200028 	eorcs	r0, r0, r8, lsr #32
    4264:	05510128 	ldrbeq	r0, [r1, #-296]	; 0x128
    4268:	5001f331 	andpl	pc, r1, r1, lsr r3	; <UNPREDICTABLE>
    426c:	29000024 	stmdbcs	r0, {r2, r5}
    4270:	00000c24 	andeq	r0, r0, r4, lsr #24
    4274:	9e083c01 	cdpls	12, 0, cr3, cr8, cr1, {0}
    4278:	00240000 	eoreq	r0, r4, r0
    427c:	9c010000 	stcls	0, cr0, [r1], {-0}
    4280:	00000aa5 	andeq	r0, r0, r5, lsr #21
    4284:	6e697024 	cdpvs	0, 6, cr7, cr9, cr4, {1}
    4288:	2c3c0100 	ldfcss	f0, [ip], #-0
    428c:	b0000000 	andlt	r0, r0, r0
    4290:	27000024 	strcs	r0, [r0, -r4, lsr #32]
    4294:	00009e24 	andeq	r9, r0, r4, lsr #28
    4298:	00000b68 	andeq	r0, r0, r8, ror #22
    429c:	05500128 	ldrbeq	r0, [r0, #-296]	; 0x128
    42a0:	20001c0c 	andcs	r1, r0, ip, lsl #24
    42a4:	51012820 	tstpl	r1, r0, lsr #16
    42a8:	01f33105 	mvnseq	r3, r5, lsl #2
    42ac:	00002450 	andeq	r2, r0, r0, asr r4
    42b0:	000be629 	andeq	lr, fp, r9, lsr #12
    42b4:	f8370100 			; <UNDEFINED> instruction: 0xf8370100
    42b8:	1000009d 	mulne	r0, sp, r0
    42bc:	01000000 	mrseq	r0, (UNDEF: 0)
    42c0:	000ae09c 	muleq	sl, ip, r0
    42c4:	69702400 	ldmdbvs	r0!, {sl, sp}^
    42c8:	3701006e 	strcc	r0, [r1, -lr, rrx]
    42cc:	0000002c 	andeq	r0, r0, ip, lsr #32
    42d0:	000024d1 	ldrdeq	r2, [r0], -r1
    42d4:	009e0427 	addseq	r0, lr, r7, lsr #8
    42d8:	000ae000 	andeq	lr, sl, r0
    42dc:	50012800 	andpl	r2, r1, r0, lsl #16
    42e0:	5001f303 	andpl	pc, r1, r3, lsl #6
    42e4:	01510128 	cmpeq	r1, r8, lsr #2
    42e8:	29000031 	stmdbcs	r0, {r0, r4, r5}
    42ec:	00000922 	andeq	r0, r0, r2, lsr #18
    42f0:	9d902801 	ldcls	8, cr2, [r0, #4]
    42f4:	00680000 	rsbeq	r0, r8, r0
    42f8:	9c010000 	stcls	0, cr0, [r1], {-0}
    42fc:	00000b5d 	andeq	r0, r0, sp, asr fp
    4300:	6e697024 	cdpvs	0, 6, cr7, cr9, cr4, {1}
    4304:	2c280100 	stfcss	f0, [r8], #-0
    4308:	f2000000 	vhadd.s8	d0, d0, d0
    430c:	2c000024 	stccs	0, cr0, [r0], {36}	; 0x24
    4310:	00000b1b 	andeq	r0, r0, fp, lsl fp
    4314:	09002801 	stmdbeq	r0, {r0, fp, sp}
    4318:	25130000 	ldrcs	r0, [r3, #-0]
    431c:	6f2d0000 	svcvs	0x002d0000
    4320:	01006666 	tsteq	r0, r6, ror #12
    4324:	00002c2d 	andeq	r2, r0, sp, lsr #24
    4328:	2d540100 	ldfcse	f0, [r4, #-0]
    432c:	2f010067 	svccs	0x00010067
    4330:	0000002c 	andeq	r0, r0, ip, lsr #32
    4334:	76265601 	strtvc	r5, [r6], -r1, lsl #12
    4338:	2c310100 	ldfcss	f0, [r1], #-0
    433c:	34000000 	strcc	r0, [r0], #-0
    4340:	2a000025 	bcs	43dc <_start-0x3c24>
    4344:	00009ddc 	ldrdeq	r9, [r0], -ip
    4348:	00000b5d 	andeq	r0, r0, sp, asr fp
    434c:	00000b4c 	andeq	r0, r0, ip, asr #22
    4350:	02500128 	subseq	r0, r0, #40, 2
    4354:	27000076 	smlsdxcs	r0, r6, r0, r0
    4358:	00009df0 	strdeq	r9, [r0], -r0
    435c:	00000b68 	andeq	r0, r0, r8, ror #22
    4360:	02500128 	subseq	r0, r0, #40, 2
    4364:	00000076 	andeq	r0, r0, r6, ror r0
    4368:	0005c22e 	andeq	ip, r5, lr, lsr #4
    436c:	0005c200 	andeq	ip, r5, r0, lsl #4
    4370:	2ea70600 	cdpcs	6, 10, cr0, cr7, cr0, {0}
    4374:	00000574 	andeq	r0, r0, r4, ror r5
    4378:	00000574 	andeq	r0, r0, r4, ror r5
    437c:	Address 0x000000000000437c is out of bounds.


Disassembly of section .debug_abbrev:

00000000 <.debug_abbrev>:
       0:	25011101 	strcs	r1, [r1, #-257]	; 0x101
       4:	030b130e 	movweq	r1, #45838	; 0xb30e
       8:	110e1b0e 	tstne	lr, lr, lsl #22
       c:	10061201 	andne	r1, r6, r1, lsl #4
      10:	02000017 	andeq	r0, r0, #23
      14:	0b0b0024 	bleq	2c00ac <__bss_end__+0x2b5afc>
      18:	0e030b3e 	vmoveq.16	d3[0], r0
      1c:	24030000 	strcs	r0, [r3], #-0
      20:	3e0b0b00 	vmlacc.f64	d0, d11, d0
      24:	0008030b 	andeq	r0, r8, fp, lsl #6
      28:	000f0400 	andeq	r0, pc, r0, lsl #8
      2c:	13490b0b 	movtne	r0, #39691	; 0x9b0b
      30:	26050000 	strcs	r0, [r5], -r0
      34:	00134900 	andseq	r4, r3, r0, lsl #18
      38:	012e0600 	teqeq	lr, r0, lsl #12
      3c:	0e03193f 	mcreq	9, 0, r1, cr3, cr15, {1}
      40:	0b3b0b3a 	bleq	ec2d30 <__bss_end__+0xeb8780>
      44:	01111927 	tsteq	r1, r7, lsr #18
      48:	18400612 	stmdane	r0, {r1, r4, r9, sl}^
      4c:	01194297 			; <UNDEFINED> instruction: 0x01194297
      50:	07000013 	smladeq	r0, r3, r0, r0
      54:	08030034 	stmdaeq	r3, {r2, r4, r5}
      58:	0b3b0b3a 	bleq	ec2d48 <__bss_end__+0xeb8798>
      5c:	0a1c1349 	beq	704d88 <__bss_end__+0x6fa7d8>
      60:	34080000 	strcc	r0, [r8], #-0
      64:	3a080300 	bcc	200c6c <__bss_end__+0x1f66bc>
      68:	490b3b0b 	stmdbmi	fp, {r0, r1, r3, r8, r9, fp, ip, sp}
      6c:	00180213 	andseq	r0, r8, r3, lsl r2
      70:	010b0900 	tsteq	fp, r0, lsl #18
      74:	06120111 			; <UNDEFINED> instruction: 0x06120111
      78:	00001301 	andeq	r1, r0, r1, lsl #6
      7c:	0300340a 	movweq	r3, #1034	; 0x40a
      80:	3b0b3a08 	blcc	2ce8a8 <__bss_end__+0x2c42f8>
      84:	0213490b 	andseq	r4, r3, #180224	; 0x2c000
      88:	0b000017 	bleq	ec <_start-0x7f14>
      8c:	01018289 	smlabbeq	r1, r9, r2, r8
      90:	13310111 	teqne	r1, #1073741828	; 0x40000004
      94:	00001301 	andeq	r1, r0, r1, lsl #6
      98:	01828a0c 	orreq	r8, r2, ip, lsl #20
      9c:	91180200 	tstls	r8, r0, lsl #4
      a0:	00001842 	andeq	r1, r0, r2, asr #16
      a4:	0182890d 	orreq	r8, r2, sp, lsl #18
      a8:	31011101 	tstcc	r1, r1, lsl #2
      ac:	0e000013 	mcreq	0, 0, r0, cr0, cr3, {0}
      b0:	13490101 	movtne	r0, #37121	; 0x9101
      b4:	00001301 	andeq	r1, r0, r1, lsl #6
      b8:	4900210f 	stmdbmi	r0, {r0, r1, r2, r3, r8, sp}
      bc:	000b2f13 	andeq	r2, fp, r3, lsl pc
      c0:	012e1000 	teqeq	lr, r0
      c4:	0803193f 	stmdaeq	r3, {r0, r1, r2, r3, r4, r5, r8, fp, ip}
      c8:	0b3b0b3a 	bleq	ec2db8 <__bss_end__+0xeb8808>
      cc:	13491927 	movtne	r1, #39207	; 0x9927
      d0:	1301193c 	movwne	r1, #6460	; 0x193c
      d4:	05110000 	ldreq	r0, [r1, #-0]
      d8:	00134900 	andseq	r4, r3, r0, lsl #18
      dc:	012e1200 	teqeq	lr, r0, lsl #4
      e0:	0e03193f 	mcreq	9, 0, r1, cr3, cr15, {1}
      e4:	0b3b0b3a 	bleq	ec2dd4 <__bss_end__+0xeb8824>
      e8:	13491927 	movtne	r1, #39207	; 0x9927
      ec:	1301193c 	movwne	r1, #6460	; 0x193c
      f0:	18130000 	ldmdane	r3, {}	; <UNPREDICTABLE>
      f4:	14000000 	strne	r0, [r0], #-0
      f8:	193f012e 	ldmdbne	pc!, {r1, r2, r3, r5, r8}	; <UNPREDICTABLE>
      fc:	0b3a0803 	bleq	e82110 <__bss_end__+0xe77b60>
     100:	19270b3b 	stmdbne	r7!, {r0, r1, r3, r4, r5, r8, r9, fp}
     104:	193c1349 	ldmdbne	ip!, {r0, r3, r6, r8, r9, ip}
     108:	01000000 	mrseq	r0, (UNDEF: 0)
     10c:	0e250111 	mcreq	1, 1, r0, cr5, cr1, {0}
     110:	0e030b13 	vmoveq.32	d3[0], r0
     114:	01110e1b 	tsteq	r1, fp, lsl lr
     118:	17100612 			; <UNDEFINED> instruction: 0x17100612
     11c:	24020000 	strcs	r0, [r2], #-0
     120:	3e0b0b00 	vmlacc.f64	d0, d11, d0
     124:	000e030b 	andeq	r0, lr, fp, lsl #6
     128:	00160300 	andseq	r0, r6, r0, lsl #6
     12c:	0b3a0e03 	bleq	e83940 <__bss_end__+0xe79390>
     130:	13490b3b 	movtne	r0, #39739	; 0x9b3b
     134:	24040000 	strcs	r0, [r4], #-0
     138:	3e0b0b00 	vmlacc.f64	d0, d11, d0
     13c:	0008030b 	andeq	r0, r8, fp, lsl #6
     140:	01130500 	tsteq	r3, r0, lsl #10
     144:	0b3a0b0b 	bleq	e82d78 <__bss_end__+0xe787c8>
     148:	13010b3b 	movwne	r0, #6971	; 0x1b3b
     14c:	0d060000 	stceq	0, cr0, [r6, #-0]
     150:	3a080300 	bcc	200d58 <__bss_end__+0x1f67a8>
     154:	490b3b0b 	stmdbmi	fp, {r0, r1, r3, r8, r9, fp, ip, sp}
     158:	000b3813 	andeq	r3, fp, r3, lsl r8
     15c:	01170700 	tsteq	r7, r0, lsl #14
     160:	0b3a0b0b 	bleq	e82d94 <__bss_end__+0xe787e4>
     164:	13010b3b 	movwne	r0, #6971	; 0x1b3b
     168:	0d080000 	stceq	0, cr0, [r8, #-0]
     16c:	3a0e0300 	bcc	380d74 <__bss_end__+0x3767c4>
     170:	490b3b0b 	stmdbmi	fp, {r0, r1, r3, r8, r9, fp, ip, sp}
     174:	09000013 	stmdbeq	r0, {r0, r1, r4}
     178:	193f012e 	ldmdbne	pc!, {r1, r2, r3, r5, r8}	; <UNPREDICTABLE>
     17c:	0b3a0803 	bleq	e82190 <__bss_end__+0xe77be0>
     180:	19270b3b 	stmdbne	r7!, {r0, r1, r3, r4, r5, r8, r9, fp}
     184:	01111349 	tsteq	r1, r9, asr #6
     188:	18400612 	stmdane	r0, {r1, r4, r9, sl}^
     18c:	01194297 			; <UNDEFINED> instruction: 0x01194297
     190:	0a000013 	beq	1e4 <_start-0x7e1c>
     194:	08030005 	stmdaeq	r3, {r0, r2}
     198:	0b3b0b3a 	bleq	ec2e88 <__bss_end__+0xeb88d8>
     19c:	17021349 	strne	r1, [r2, -r9, asr #6]
     1a0:	340b0000 	strcc	r0, [fp], #-0
     1a4:	3a080300 	bcc	200dac <__bss_end__+0x1f67fc>
     1a8:	490b3b0b 	stmdbmi	fp, {r0, r1, r3, r8, r9, fp, ip, sp}
     1ac:	00180213 	andseq	r0, r8, r3, lsl r2
     1b0:	00340c00 	eorseq	r0, r4, r0, lsl #24
     1b4:	0b3a0803 	bleq	e821c8 <__bss_end__+0xe77c18>
     1b8:	13490b3b 	movtne	r0, #39739	; 0x9b3b
     1bc:	00000a1c 	andeq	r0, r0, ip, lsl sl
     1c0:	0300340d 	movweq	r3, #1037	; 0x40d
     1c4:	3b0b3a08 	blcc	2ce9ec <__bss_end__+0x2c443c>
     1c8:	0213490b 	andseq	r4, r3, #180224	; 0x2c000
     1cc:	0e000017 	mcreq	0, 0, r0, cr0, cr7, {0}
     1d0:	0111010b 	tsteq	r1, fp, lsl #2
     1d4:	13010612 	movwne	r0, #5650	; 0x1612
     1d8:	340f0000 	strcc	r0, [pc], #-0	; 1e0 <_start-0x7e20>
     1dc:	3a0e0300 	bcc	380de4 <__bss_end__+0x376834>
     1e0:	490b3b0b 	stmdbmi	fp, {r0, r1, r3, r8, r9, fp, ip, sp}
     1e4:	00170213 	andseq	r0, r7, r3, lsl r2
     1e8:	82891000 	addhi	r1, r9, #0
     1ec:	01110101 	tsteq	r1, r1, lsl #2
     1f0:	13011331 	movwne	r1, #4913	; 0x1331
     1f4:	8a110000 	bhi	4401fc <__bss_end__+0x435c4c>
     1f8:	02000182 	andeq	r0, r0, #-2147483616	; 0x80000020
     1fc:	18429118 	stmdane	r2, {r3, r4, r8, ip, pc}^
     200:	89120000 	ldmdbhi	r2, {}	; <UNPREDICTABLE>
     204:	11000182 	smlabbne	r0, r2, r1, r0
     208:	00133101 	andseq	r3, r3, r1, lsl #2
     20c:	82891300 	addhi	r1, r9, #0, 6
     210:	01110101 	tsteq	r1, r1, lsl #2
     214:	00001331 	andeq	r1, r0, r1, lsr r3
     218:	49010114 	stmdbmi	r1, {r2, r4, r8}
     21c:	00130113 	andseq	r0, r3, r3, lsl r1
     220:	00211500 	eoreq	r1, r1, r0, lsl #10
     224:	0b2f1349 	bleq	bc4f50 <__bss_end__+0xbba9a0>
     228:	2e160000 	cdpcs	0, 1, cr0, cr6, cr0, {0}
     22c:	03193f01 	tsteq	r9, #1, 30
     230:	3b0b3a0e 	blcc	2cea70 <__bss_end__+0x2c44c0>
     234:	49192705 	ldmdbmi	r9, {r0, r2, r8, r9, sl, sp}
     238:	01193c13 	tsteq	r9, r3, lsl ip
     23c:	17000013 	smladne	r0, r3, r0, r0
     240:	13490005 	movtne	r0, #36869	; 0x9005
     244:	0f180000 	svceq	0x00180000
     248:	490b0b00 	stmdbmi	fp, {r8, r9, fp}
     24c:	19000013 	stmdbne	r0, {r0, r1, r4}
     250:	193f012e 	ldmdbne	pc!, {r1, r2, r3, r5, r8}	; <UNPREDICTABLE>
     254:	0b3a0e03 	bleq	e83a68 <__bss_end__+0xe794b8>
     258:	1927053b 	stmdbne	r7!, {r0, r1, r3, r4, r5, r8, sl}
     25c:	193c1349 	ldmdbne	ip!, {r0, r3, r6, r8, r9, ip}
     260:	01000000 	mrseq	r0, (UNDEF: 0)
     264:	0e250111 	mcreq	1, 1, r0, cr5, cr1, {0}
     268:	0e030b13 	vmoveq.32	d3[0], r0
     26c:	01110e1b 	tsteq	r1, fp, lsl lr
     270:	17100612 			; <UNDEFINED> instruction: 0x17100612
     274:	24020000 	strcs	r0, [r2], #-0
     278:	3e0b0b00 	vmlacc.f64	d0, d11, d0
     27c:	000e030b 	andeq	r0, lr, fp, lsl #6
     280:	00240300 	eoreq	r0, r4, r0, lsl #6
     284:	0b3e0b0b 	bleq	f82eb8 <__bss_end__+0xf78908>
     288:	00000803 	andeq	r0, r0, r3, lsl #16
     28c:	3f012e04 	svccc	0x00012e04
     290:	3a0e0319 	bcc	380efc <__bss_end__+0x37694c>
     294:	270b3b0b 	strcs	r3, [fp, -fp, lsl #22]
     298:	11134919 	tstne	r3, r9, lsl r9
     29c:	40061201 	andmi	r1, r6, r1, lsl #4
     2a0:	19429718 	stmdbne	r2, {r3, r4, r8, r9, sl, ip, pc}^
     2a4:	00001301 	andeq	r1, r0, r1, lsl #6
     2a8:	03000505 	movweq	r0, #1285	; 0x505
     2ac:	3b0b3a08 	blcc	2cead4 <__bss_end__+0x2c4524>
     2b0:	0213490b 	andseq	r4, r3, #180224	; 0x2c000
     2b4:	06000017 			; <UNDEFINED> instruction: 0x06000017
     2b8:	08030034 	stmdaeq	r3, {r2, r4, r5}
     2bc:	0b3b0b3a 	bleq	ec2fac <__bss_end__+0xeb89fc>
     2c0:	17021349 	strne	r1, [r2, -r9, asr #6]
     2c4:	34070000 	strcc	r0, [r7], #-0
     2c8:	3a080300 	bcc	200ed0 <__bss_end__+0x1f6920>
     2cc:	490b3b0b 	stmdbmi	fp, {r0, r1, r3, r8, r9, fp, ip, sp}
     2d0:	00180213 	andseq	r0, r8, r3, lsl r2
     2d4:	00340800 	eorseq	r0, r4, r0, lsl #16
     2d8:	0b3a0803 	bleq	e822ec <__bss_end__+0xe77d3c>
     2dc:	13490b3b 	movtne	r0, #39739	; 0x9b3b
     2e0:	00000a1c 	andeq	r0, r0, ip, lsl sl
     2e4:	49002609 	stmdbmi	r0, {r0, r3, r9, sl, sp}
     2e8:	00000013 	andeq	r0, r0, r3, lsl r0
     2ec:	25011101 	strcs	r1, [r1, #-257]	; 0x101
     2f0:	030b130e 	movweq	r1, #45838	; 0xb30e
     2f4:	110e1b0e 	tstne	lr, lr, lsl #22
     2f8:	10061201 	andne	r1, r6, r1, lsl #4
     2fc:	02000017 	andeq	r0, r0, #23
     300:	0b0b0024 	bleq	2c0398 <__bss_end__+0x2b5de8>
     304:	0e030b3e 	vmoveq.16	d3[0], r0
     308:	24030000 	strcs	r0, [r3], #-0
     30c:	3e0b0b00 	vmlacc.f64	d0, d11, d0
     310:	0008030b 	andeq	r0, r8, fp, lsl #6
     314:	012e0400 	teqeq	lr, r0, lsl #8
     318:	0e03193f 	mcreq	9, 0, r1, cr3, cr15, {1}
     31c:	0b3b0b3a 	bleq	ec300c <__bss_end__+0xeb8a5c>
     320:	13491927 	movtne	r1, #39207	; 0x9927
     324:	06120111 			; <UNDEFINED> instruction: 0x06120111
     328:	42971840 	addsmi	r1, r7, #64, 16	; 0x400000
     32c:	00130119 	andseq	r0, r3, r9, lsl r1
     330:	00050500 	andeq	r0, r5, r0, lsl #10
     334:	0b3a0803 	bleq	e82348 <__bss_end__+0xe77d98>
     338:	13490b3b 	movtne	r0, #39739	; 0x9b3b
     33c:	00001702 	andeq	r1, r0, r2, lsl #14
     340:	03000506 	movweq	r0, #1286	; 0x506
     344:	3b0b3a08 	blcc	2ceb6c <__bss_end__+0x2c45bc>
     348:	0213490b 	andseq	r4, r3, #180224	; 0x2c000
     34c:	07000018 	smladeq	r0, r8, r0, r0
     350:	08030034 	stmdaeq	r3, {r2, r4, r5}
     354:	0b3b0b3a 	bleq	ec3044 <__bss_end__+0xeb8a94>
     358:	17021349 	strne	r1, [r2, -r9, asr #6]
     35c:	34080000 	strcc	r0, [r8], #-0
     360:	3a080300 	bcc	200f68 <__bss_end__+0x1f69b8>
     364:	490b3b0b 	stmdbmi	fp, {r0, r1, r3, r8, r9, fp, ip, sp}
     368:	00180213 	andseq	r0, r8, r3, lsl r2
     36c:	00340900 	eorseq	r0, r4, r0, lsl #18
     370:	0b3a0e03 	bleq	e83b84 <__bss_end__+0xe795d4>
     374:	13490b3b 	movtne	r0, #39739	; 0x9b3b
     378:	00000a1c 	andeq	r0, r0, ip, lsl sl
     37c:	4900260a 	stmdbmi	r0, {r1, r3, r9, sl, sp}
     380:	0b000013 	bleq	3d4 <_start-0x7c2c>
     384:	08030034 	stmdaeq	r3, {r2, r4, r5}
     388:	0b3b0b3a 	bleq	ec3078 <__bss_end__+0xeb8ac8>
     38c:	0a1c1349 	beq	7050b8 <__bss_end__+0x6fab08>
     390:	01000000 	mrseq	r0, (UNDEF: 0)
     394:	0e250111 	mcreq	1, 1, r0, cr5, cr1, {0}
     398:	0e030b13 	vmoveq.32	d3[0], r0
     39c:	01110e1b 	tsteq	r1, fp, lsl lr
     3a0:	17100612 			; <UNDEFINED> instruction: 0x17100612
     3a4:	24020000 	strcs	r0, [r2], #-0
     3a8:	3e0b0b00 	vmlacc.f64	d0, d11, d0
     3ac:	000e030b 	andeq	r0, lr, fp, lsl #6
     3b0:	00160300 	andseq	r0, r6, r0, lsl #6
     3b4:	0b3a0e03 	bleq	e83bc8 <__bss_end__+0xe79618>
     3b8:	13490b3b 	movtne	r0, #39739	; 0x9b3b
     3bc:	24040000 	strcs	r0, [r4], #-0
     3c0:	3e0b0b00 	vmlacc.f64	d0, d11, d0
     3c4:	0008030b 	andeq	r0, r8, fp, lsl #6
     3c8:	01130500 	tsteq	r3, r0, lsl #10
     3cc:	0b3a0b0b 	bleq	e83000 <__bss_end__+0xe78a50>
     3d0:	13010b3b 	movwne	r0, #6971	; 0x1b3b
     3d4:	0d060000 	stceq	0, cr0, [r6, #-0]
     3d8:	3a080300 	bcc	200fe0 <__bss_end__+0x1f6a30>
     3dc:	490b3b0b 	stmdbmi	fp, {r0, r1, r3, r8, r9, fp, ip, sp}
     3e0:	000b3813 	andeq	r3, fp, r3, lsl r8
     3e4:	01170700 	tsteq	r7, r0, lsl #14
     3e8:	0b3a0b0b 	bleq	e8301c <__bss_end__+0xe78a6c>
     3ec:	13010b3b 	movwne	r0, #6971	; 0x1b3b
     3f0:	0d080000 	stceq	0, cr0, [r8, #-0]
     3f4:	3a0e0300 	bcc	380ffc <__bss_end__+0x376a4c>
     3f8:	490b3b0b 	stmdbmi	fp, {r0, r1, r3, r8, r9, fp, ip, sp}
     3fc:	09000013 	stmdbeq	r0, {r0, r1, r4}
     400:	193f012e 	ldmdbne	pc!, {r1, r2, r3, r5, r8}	; <UNPREDICTABLE>
     404:	0b3a0e03 	bleq	e83c18 <__bss_end__+0xe79668>
     408:	19270b3b 	stmdbne	r7!, {r0, r1, r3, r4, r5, r8, r9, fp}
     40c:	01111349 	tsteq	r1, r9, asr #6
     410:	18400612 	stmdane	r0, {r1, r4, r9, sl}^
     414:	01194297 			; <UNDEFINED> instruction: 0x01194297
     418:	0a000013 	beq	46c <_start-0x7b94>
     41c:	08030005 	stmdaeq	r3, {r0, r2}
     420:	0b3b0b3a 	bleq	ec3110 <__bss_end__+0xeb8b60>
     424:	17021349 	strne	r1, [r2, -r9, asr #6]
     428:	340b0000 	strcc	r0, [fp], #-0
     42c:	3a080300 	bcc	201034 <__bss_end__+0x1f6a84>
     430:	490b3b0b 	stmdbmi	fp, {r0, r1, r3, r8, r9, fp, ip, sp}
     434:	00170213 	andseq	r0, r7, r3, lsl r2
     438:	00340c00 	eorseq	r0, r4, r0, lsl #24
     43c:	0b3a0803 	bleq	e82450 <__bss_end__+0xe77ea0>
     440:	13490b3b 	movtne	r0, #39739	; 0x9b3b
     444:	00001802 	andeq	r1, r0, r2, lsl #16
     448:	03000a0d 	movweq	r0, #2573	; 0xa0d
     44c:	3b0b3a0e 	blcc	2cec8c <__bss_end__+0x2c46dc>
     450:	0001110b 	andeq	r1, r1, fp, lsl #2
     454:	010b0e00 	tsteq	fp, r0, lsl #28
     458:	06120111 			; <UNDEFINED> instruction: 0x06120111
     45c:	00001301 	andeq	r1, r0, r1, lsl #6
     460:	0300340f 	movweq	r3, #1039	; 0x40f
     464:	3b0b3a0e 	blcc	2ceca4 <__bss_end__+0x2c46f4>
     468:	0213490b 	andseq	r4, r3, #180224	; 0x2c000
     46c:	10000017 	andne	r0, r0, r7, lsl r0
     470:	0111010b 	tsteq	r1, fp, lsl #2
     474:	00000612 	andeq	r0, r0, r2, lsl r6
     478:	01828911 	orreq	r8, r2, r1, lsl r9
     47c:	31011101 	tstcc	r1, r1, lsl #2
     480:	12000013 	andne	r0, r0, #19
     484:	0001828a 	andeq	r8, r1, sl, lsl #5
     488:	42911802 	addsmi	r1, r1, #131072	; 0x20000
     48c:	13000018 	movwne	r0, #24
     490:	0b0b000f 	bleq	2c04d4 <__bss_end__+0x2b5f24>
     494:	00001349 	andeq	r1, r0, r9, asr #6
     498:	49010114 	stmdbmi	r1, {r2, r4, r8}
     49c:	00130113 	andseq	r0, r3, r3, lsl r1
     4a0:	00211500 	eoreq	r1, r1, r0, lsl #10
     4a4:	0b2f1349 	bleq	bc51d0 <__bss_end__+0xbbac20>
     4a8:	34160000 	ldrcc	r0, [r6], #-0
     4ac:	3a0e0300 	bcc	3810b4 <__bss_end__+0x376b04>
     4b0:	490b3b0b 	stmdbmi	fp, {r0, r1, r3, r8, r9, fp, ip, sp}
     4b4:	000a1c13 	andeq	r1, sl, r3, lsl ip
     4b8:	00261700 	eoreq	r1, r6, r0, lsl #14
     4bc:	00001349 	andeq	r1, r0, r9, asr #6
     4c0:	3f012e18 	svccc	0x00012e18
     4c4:	3a0e0319 	bcc	381130 <__bss_end__+0x376b80>
     4c8:	27053b0b 	strcs	r3, [r5, -fp, lsl #22]
     4cc:	3c134919 	ldccc	9, cr4, [r3], {25}
     4d0:	19000019 	stmdbne	r0, {r0, r3, r4}
     4d4:	13490005 	movtne	r0, #36869	; 0x9005
     4d8:	01000000 	mrseq	r0, (UNDEF: 0)
     4dc:	0e250111 	mcreq	1, 1, r0, cr5, cr1, {0}
     4e0:	0e030b13 	vmoveq.32	d3[0], r0
     4e4:	01110e1b 	tsteq	r1, fp, lsl lr
     4e8:	17100612 			; <UNDEFINED> instruction: 0x17100612
     4ec:	24020000 	strcs	r0, [r2], #-0
     4f0:	3e0b0b00 	vmlacc.f64	d0, d11, d0
     4f4:	000e030b 	andeq	r0, lr, fp, lsl #6
     4f8:	00160300 	andseq	r0, r6, r0, lsl #6
     4fc:	0b3a0e03 	bleq	e83d10 <__bss_end__+0xe79760>
     500:	13490b3b 	movtne	r0, #39739	; 0x9b3b
     504:	24040000 	strcs	r0, [r4], #-0
     508:	3e0b0b00 	vmlacc.f64	d0, d11, d0
     50c:	0008030b 	andeq	r0, r8, fp, lsl #6
     510:	012e0500 	teqeq	lr, r0, lsl #10
     514:	0e03193f 	mcreq	9, 0, r1, cr3, cr15, {1}
     518:	053b0b3a 	ldreq	r0, [fp, #-2874]!	; 0xb3a
     51c:	13491927 	movtne	r1, #39207	; 0x9927
     520:	06120111 			; <UNDEFINED> instruction: 0x06120111
     524:	42971840 	addsmi	r1, r7, #64, 16	; 0x400000
     528:	00130119 	andseq	r0, r3, r9, lsl r1
     52c:	00050600 	andeq	r0, r5, r0, lsl #12
     530:	0b3a0803 	bleq	e82544 <__bss_end__+0xe77f94>
     534:	1349053b 	movtne	r0, #38203	; 0x953b
     538:	00001702 	andeq	r1, r0, r2, lsl #14
     53c:	03000507 	movweq	r0, #1287	; 0x507
     540:	3b0b3a0e 	blcc	2ced80 <__bss_end__+0x2c47d0>
     544:	02134905 	andseq	r4, r3, #81920	; 0x14000
     548:	08000018 	stmdaeq	r0, {r3, r4}
     54c:	08030034 	stmdaeq	r3, {r2, r4, r5}
     550:	053b0b3a 	ldreq	r0, [fp, #-2874]!	; 0xb3a
     554:	17021349 	strne	r1, [r2, -r9, asr #6]
     558:	34090000 	strcc	r0, [r9], #-0
     55c:	3a0e0300 	bcc	381164 <__bss_end__+0x376bb4>
     560:	49053b0b 	stmdbmi	r5, {r0, r1, r3, r8, r9, fp, ip, sp}
     564:	00170213 	andseq	r0, r7, r3, lsl r2
     568:	00340a00 	eorseq	r0, r4, r0, lsl #20
     56c:	0b3a0803 	bleq	e82580 <__bss_end__+0xe77fd0>
     570:	1349053b 	movtne	r0, #38203	; 0x953b
     574:	00001802 	andeq	r1, r0, r2, lsl #16
     578:	03000a0b 	movweq	r0, #2571	; 0xa0b
     57c:	3b0b3a0e 	blcc	2cedbc <__bss_end__+0x2c480c>
     580:	00011105 	andeq	r1, r1, r5, lsl #2
     584:	82890c00 	addhi	r0, r9, #0, 24
     588:	01110101 	tsteq	r1, r1, lsl #2
     58c:	13011331 	movwne	r1, #4913	; 0x1331
     590:	8a0d0000 	bhi	340598 <__bss_end__+0x335fe8>
     594:	02000182 	andeq	r0, r0, #-2147483616	; 0x80000020
     598:	18429118 	stmdane	r2, {r3, r4, r8, ip, pc}^
     59c:	890e0000 	stmdbhi	lr, {}	; <UNPREDICTABLE>
     5a0:	11010182 	smlabbne	r1, r2, r1, r0
     5a4:	00133101 	andseq	r3, r3, r1, lsl #2
     5a8:	000f0f00 	andeq	r0, pc, r0, lsl #30
     5ac:	13490b0b 	movtne	r0, #39691	; 0x9b0b
     5b0:	01100000 	tsteq	r0, r0
     5b4:	01134901 	tsteq	r3, r1, lsl #18
     5b8:	11000013 	tstne	r0, r3, lsl r0
     5bc:	13490021 	movtne	r0, #36897	; 0x9021
     5c0:	00000b2f 	andeq	r0, r0, pc, lsr #22
     5c4:	03003412 	movweq	r3, #1042	; 0x412
     5c8:	3b0b3a0e 	blcc	2cee08 <__bss_end__+0x2c4858>
     5cc:	0213490b 	andseq	r4, r3, #180224	; 0x2c000
     5d0:	13000018 	movwne	r0, #24
     5d4:	13490026 	movtne	r0, #36902	; 0x9026
     5d8:	34140000 	ldrcc	r0, [r4], #-0
     5dc:	3a0e0300 	bcc	3811e4 <__bss_end__+0x376c34>
     5e0:	49053b0b 	stmdbmi	r5, {r0, r1, r3, r8, r9, fp, ip, sp}
     5e4:	00180213 	andseq	r0, r8, r3, lsl r2
     5e8:	00341500 	eorseq	r1, r4, r0, lsl #10
     5ec:	0b3a0e03 	bleq	e83e00 <__bss_end__+0xe79850>
     5f0:	1349053b 	movtne	r0, #38203	; 0x953b
     5f4:	00000a1c 	andeq	r0, r0, ip, lsl sl
     5f8:	03003416 	movweq	r3, #1046	; 0x416
     5fc:	3b0b3a08 	blcc	2cee24 <__bss_end__+0x2c4874>
     600:	1c134905 	ldcne	9, cr4, [r3], {5}
     604:	1700000a 	strne	r0, [r0, -sl]
     608:	193f012e 	ldmdbne	pc!, {r1, r2, r3, r5, r8}	; <UNPREDICTABLE>
     60c:	0b3a0e03 	bleq	e83e20 <__bss_end__+0xe79870>
     610:	1927053b 	stmdbne	r7!, {r0, r1, r3, r4, r5, r8, sl}
     614:	193c1349 	ldmdbne	ip!, {r0, r3, r6, r8, r9, ip}
     618:	00001301 	andeq	r1, r0, r1, lsl #6
     61c:	49000518 	stmdbmi	r0, {r3, r4, r8, sl}
     620:	19000013 	stmdbne	r0, {r0, r1, r4}
     624:	193f012e 	ldmdbne	pc!, {r1, r2, r3, r5, r8}	; <UNPREDICTABLE>
     628:	0b3a0e03 	bleq	e83e3c <__bss_end__+0xe7988c>
     62c:	19270b3b 	stmdbne	r7!, {r0, r1, r3, r4, r5, r8, r9, fp}
     630:	193c1349 	ldmdbne	ip!, {r0, r3, r6, r8, r9, ip}
     634:	01000000 	mrseq	r0, (UNDEF: 0)
     638:	0e250111 	mcreq	1, 1, r0, cr5, cr1, {0}
     63c:	0e030b13 	vmoveq.32	d3[0], r0
     640:	01110e1b 	tsteq	r1, fp, lsl lr
     644:	17100612 			; <UNDEFINED> instruction: 0x17100612
     648:	24020000 	strcs	r0, [r2], #-0
     64c:	3e0b0b00 	vmlacc.f64	d0, d11, d0
     650:	000e030b 	andeq	r0, lr, fp, lsl #6
     654:	00160300 	andseq	r0, r6, r0, lsl #6
     658:	0b3a0e03 	bleq	e83e6c <__bss_end__+0xe798bc>
     65c:	13490b3b 	movtne	r0, #39739	; 0x9b3b
     660:	24040000 	strcs	r0, [r4], #-0
     664:	3e0b0b00 	vmlacc.f64	d0, d11, d0
     668:	0008030b 	andeq	r0, r8, fp, lsl #6
     66c:	01130500 	tsteq	r3, r0, lsl #10
     670:	0b3a0b0b 	bleq	e832a4 <__bss_end__+0xe78cf4>
     674:	13010b3b 	movwne	r0, #6971	; 0x1b3b
     678:	0d060000 	stceq	0, cr0, [r6, #-0]
     67c:	3a080300 	bcc	201284 <__bss_end__+0x1f6cd4>
     680:	490b3b0b 	stmdbmi	fp, {r0, r1, r3, r8, r9, fp, ip, sp}
     684:	000b3813 	andeq	r3, fp, r3, lsl r8
     688:	01170700 	tsteq	r7, r0, lsl #14
     68c:	0b3a0b0b 	bleq	e832c0 <__bss_end__+0xe78d10>
     690:	13010b3b 	movwne	r0, #6971	; 0x1b3b
     694:	0d080000 	stceq	0, cr0, [r8, #-0]
     698:	3a0e0300 	bcc	3812a0 <__bss_end__+0x376cf0>
     69c:	490b3b0b 	stmdbmi	fp, {r0, r1, r3, r8, r9, fp, ip, sp}
     6a0:	09000013 	stmdbeq	r0, {r0, r1, r4}
     6a4:	193f012e 	ldmdbne	pc!, {r1, r2, r3, r5, r8}	; <UNPREDICTABLE>
     6a8:	0b3a0e03 	bleq	e83ebc <__bss_end__+0xe7990c>
     6ac:	19270b3b 	stmdbne	r7!, {r0, r1, r3, r4, r5, r8, r9, fp}
     6b0:	01111349 	tsteq	r1, r9, asr #6
     6b4:	18400612 	stmdane	r0, {r1, r4, r9, sl}^
     6b8:	01194297 			; <UNDEFINED> instruction: 0x01194297
     6bc:	0a000013 	beq	710 <_start-0x78f0>
     6c0:	08030005 	stmdaeq	r3, {r0, r2}
     6c4:	0b3b0b3a 	bleq	ec33b4 <__bss_end__+0xeb8e04>
     6c8:	17021349 	strne	r1, [r2, -r9, asr #6]
     6cc:	340b0000 	strcc	r0, [fp], #-0
     6d0:	3a080300 	bcc	2012d8 <__bss_end__+0x1f6d28>
     6d4:	490b3b0b 	stmdbmi	fp, {r0, r1, r3, r8, r9, fp, ip, sp}
     6d8:	00170213 	andseq	r0, r7, r3, lsl r2
     6dc:	010b0c00 	tsteq	fp, r0, lsl #24
     6e0:	06120111 			; <UNDEFINED> instruction: 0x06120111
     6e4:	00001301 	andeq	r1, r0, r1, lsl #6
     6e8:	0300340d 	movweq	r3, #1037	; 0x40d
     6ec:	3b0b3a0e 	blcc	2cef2c <__bss_end__+0x2c497c>
     6f0:	0213490b 	andseq	r4, r3, #180224	; 0x2c000
     6f4:	0e000017 	mcreq	0, 0, r0, cr0, cr7, {0}
     6f8:	01018289 	smlabbeq	r1, r9, r2, r8
     6fc:	13310111 	teqne	r1, #1073741828	; 0x40000004
     700:	00001301 	andeq	r1, r0, r1, lsl #6
     704:	01828a0f 	orreq	r8, r2, pc, lsl #20
     708:	91180200 	tstls	r8, r0, lsl #4
     70c:	00001842 	andeq	r1, r0, r2, asr #16
     710:	01828910 	orreq	r8, r2, r0, lsl r9
     714:	31011101 	tstcc	r1, r1, lsl #2
     718:	11000013 	tstne	r0, r3, lsl r0
     71c:	0e030034 	mcreq	0, 0, r0, cr3, cr4, {1}
     720:	0b3b0b3a 	bleq	ec3410 <__bss_end__+0xeb8e60>
     724:	0a1c1349 	beq	705450 <__bss_end__+0x6faea0>
     728:	26120000 	ldrcs	r0, [r2], -r0
     72c:	00134900 	andseq	r4, r3, r0, lsl #18
     730:	012e1300 	teqeq	lr, r0, lsl #6
     734:	0e03193f 	mcreq	9, 0, r1, cr3, cr15, {1}
     738:	053b0b3a 	ldreq	r0, [fp, #-2874]!	; 0xb3a
     73c:	13491927 	movtne	r1, #39207	; 0x9927
     740:	0000193c 	andeq	r1, r0, ip, lsr r9
     744:	49000514 	stmdbmi	r0, {r2, r4, r8, sl}
     748:	00000013 	andeq	r0, r0, r3, lsl r0
     74c:	25011101 	strcs	r1, [r1, #-257]	; 0x101
     750:	030b130e 	movweq	r1, #45838	; 0xb30e
     754:	110e1b0e 	tstne	lr, lr, lsl #22
     758:	10061201 	andne	r1, r6, r1, lsl #4
     75c:	02000017 	andeq	r0, r0, #23
     760:	0b0b0024 	bleq	2c07f8 <__bss_end__+0x2b6248>
     764:	0e030b3e 	vmoveq.16	d3[0], r0
     768:	16030000 	strne	r0, [r3], -r0
     76c:	3a0e0300 	bcc	381374 <__bss_end__+0x376dc4>
     770:	490b3b0b 	stmdbmi	fp, {r0, r1, r3, r8, r9, fp, ip, sp}
     774:	04000013 	streq	r0, [r0], #-19
     778:	0b0b0024 	bleq	2c0810 <__bss_end__+0x2b6260>
     77c:	08030b3e 	stmdaeq	r3, {r1, r2, r3, r4, r5, r8, r9, fp}
     780:	13050000 	movwne	r0, #20480	; 0x5000
     784:	3a0b0b01 	bcc	2c3390 <__bss_end__+0x2b8de0>
     788:	010b3b0b 	tsteq	fp, fp, lsl #22
     78c:	06000013 			; <UNDEFINED> instruction: 0x06000013
     790:	0803000d 	stmdaeq	r3, {r0, r2, r3}
     794:	0b3b0b3a 	bleq	ec3484 <__bss_end__+0xeb8ed4>
     798:	0b381349 	bleq	e054c4 <__bss_end__+0xdfaf14>
     79c:	17070000 	strne	r0, [r7, -r0]
     7a0:	3a0b0b01 	bcc	2c33ac <__bss_end__+0x2b8dfc>
     7a4:	010b3b0b 	tsteq	fp, fp, lsl #22
     7a8:	08000013 	stmdaeq	r0, {r0, r1, r4}
     7ac:	0e03000d 	cdpeq	0, 0, cr0, cr3, cr13, {0}
     7b0:	0b3b0b3a 	bleq	ec34a0 <__bss_end__+0xeb8ef0>
     7b4:	00001349 	andeq	r1, r0, r9, asr #6
     7b8:	3f012e09 	svccc	0x00012e09
     7bc:	3a0e0319 	bcc	381428 <__bss_end__+0x376e78>
     7c0:	270b3b0b 	strcs	r3, [fp, -fp, lsl #22]
     7c4:	11134919 	tstne	r3, r9, lsl r9
     7c8:	40061201 	andmi	r1, r6, r1, lsl #4
     7cc:	19429718 	stmdbne	r2, {r3, r4, r8, r9, sl, ip, pc}^
     7d0:	00001301 	andeq	r1, r0, r1, lsl #6
     7d4:	0300050a 	movweq	r0, #1290	; 0x50a
     7d8:	3b0b3a08 	blcc	2cf000 <__bss_end__+0x2c4a50>
     7dc:	0213490b 	andseq	r4, r3, #180224	; 0x2c000
     7e0:	0b000017 	bleq	844 <_start-0x77bc>
     7e4:	08030034 	stmdaeq	r3, {r2, r4, r5}
     7e8:	0b3b0b3a 	bleq	ec34d8 <__bss_end__+0xeb8f28>
     7ec:	17021349 	strne	r1, [r2, -r9, asr #6]
     7f0:	340c0000 	strcc	r0, [ip], #-0
     7f4:	3a080300 	bcc	2013fc <__bss_end__+0x1f6e4c>
     7f8:	490b3b0b 	stmdbmi	fp, {r0, r1, r3, r8, r9, fp, ip, sp}
     7fc:	00180213 	andseq	r0, r8, r3, lsl r2
     800:	010b0d00 	tsteq	fp, r0, lsl #26
     804:	06120111 			; <UNDEFINED> instruction: 0x06120111
     808:	00001301 	andeq	r1, r0, r1, lsl #6
     80c:	0300340e 	movweq	r3, #1038	; 0x40e
     810:	3b0b3a0e 	blcc	2cf050 <__bss_end__+0x2c4aa0>
     814:	0213490b 	andseq	r4, r3, #180224	; 0x2c000
     818:	0f000017 	svceq	0x00000017
     81c:	0111010b 	tsteq	r1, fp, lsl #2
     820:	00000612 	andeq	r0, r0, r2, lsl r6
     824:	03003410 	movweq	r3, #1040	; 0x410
     828:	3b0b3a0e 	blcc	2cf068 <__bss_end__+0x2c4ab8>
     82c:	1c13490b 	ldcne	9, cr4, [r3], {11}
     830:	1100000a 	tstne	r0, sl
     834:	13490026 	movtne	r0, #36902	; 0x9026
     838:	01000000 	mrseq	r0, (UNDEF: 0)
     83c:	0e250111 	mcreq	1, 1, r0, cr5, cr1, {0}
     840:	0e030b13 	vmoveq.32	d3[0], r0
     844:	01110e1b 	tsteq	r1, fp, lsl lr
     848:	17100612 			; <UNDEFINED> instruction: 0x17100612
     84c:	24020000 	strcs	r0, [r2], #-0
     850:	3e0b0b00 	vmlacc.f64	d0, d11, d0
     854:	000e030b 	andeq	r0, lr, fp, lsl #6
     858:	00160300 	andseq	r0, r6, r0, lsl #6
     85c:	0b3a0e03 	bleq	e84070 <__bss_end__+0xe79ac0>
     860:	13490b3b 	movtne	r0, #39739	; 0x9b3b
     864:	24040000 	strcs	r0, [r4], #-0
     868:	3e0b0b00 	vmlacc.f64	d0, d11, d0
     86c:	0008030b 	andeq	r0, r8, fp, lsl #6
     870:	01130500 	tsteq	r3, r0, lsl #10
     874:	0b3a0b0b 	bleq	e834a8 <__bss_end__+0xe78ef8>
     878:	13010b3b 	movwne	r0, #6971	; 0x1b3b
     87c:	0d060000 	stceq	0, cr0, [r6, #-0]
     880:	3a080300 	bcc	201488 <__bss_end__+0x1f6ed8>
     884:	490b3b0b 	stmdbmi	fp, {r0, r1, r3, r8, r9, fp, ip, sp}
     888:	000b3813 	andeq	r3, fp, r3, lsl r8
     88c:	01170700 	tsteq	r7, r0, lsl #14
     890:	0b3a0b0b 	bleq	e834c4 <__bss_end__+0xe78f14>
     894:	13010b3b 	movwne	r0, #6971	; 0x1b3b
     898:	0d080000 	stceq	0, cr0, [r8, #-0]
     89c:	3a0e0300 	bcc	3814a4 <__bss_end__+0x376ef4>
     8a0:	490b3b0b 	stmdbmi	fp, {r0, r1, r3, r8, r9, fp, ip, sp}
     8a4:	09000013 	stmdbeq	r0, {r0, r1, r4}
     8a8:	193f012e 	ldmdbne	pc!, {r1, r2, r3, r5, r8}	; <UNPREDICTABLE>
     8ac:	0b3a0e03 	bleq	e840c0 <__bss_end__+0xe79b10>
     8b0:	19270b3b 	stmdbne	r7!, {r0, r1, r3, r4, r5, r8, r9, fp}
     8b4:	01111349 	tsteq	r1, r9, asr #6
     8b8:	18400612 	stmdane	r0, {r1, r4, r9, sl}^
     8bc:	00194297 	mulseq	r9, r7, r2
     8c0:	00050a00 	andeq	r0, r5, r0, lsl #20
     8c4:	0b3a0803 	bleq	e828d8 <__bss_end__+0xe78328>
     8c8:	13490b3b 	movtne	r0, #39739	; 0x9b3b
     8cc:	00001702 	andeq	r1, r0, r2, lsl #14
     8d0:	0300050b 	movweq	r0, #1291	; 0x50b
     8d4:	3b0b3a08 	blcc	2cf0fc <__bss_end__+0x2c4b4c>
     8d8:	0213490b 	andseq	r4, r3, #180224	; 0x2c000
     8dc:	0c000018 	stceq	0, cr0, [r0], {24}
     8e0:	08030034 	stmdaeq	r3, {r2, r4, r5}
     8e4:	0b3b0b3a 	bleq	ec35d4 <__bss_end__+0xeb9024>
     8e8:	17021349 	strne	r1, [r2, -r9, asr #6]
     8ec:	0b0d0000 	bleq	3408f4 <__bss_end__+0x336344>
     8f0:	12011101 	andne	r1, r1, #1073741824	; 0x40000000
     8f4:	00130106 	andseq	r0, r3, r6, lsl #2
     8f8:	00340e00 	eorseq	r0, r4, r0, lsl #28
     8fc:	0b3a0e03 	bleq	e84110 <__bss_end__+0xe79b60>
     900:	13490b3b 	movtne	r0, #39739	; 0x9b3b
     904:	00001702 	andeq	r1, r0, r2, lsl #14
     908:	11010b0f 	tstne	r1, pc, lsl #22
     90c:	00061201 	andeq	r1, r6, r1, lsl #4
     910:	11010000 	mrsne	r0, (UNDEF: 1)
     914:	130e2501 	movwne	r2, #58625	; 0xe501
     918:	1b0e030b 	blne	38154c <__bss_end__+0x376f9c>
     91c:	1201110e 	andne	r1, r1, #-2147483645	; 0x80000003
     920:	00171006 	andseq	r1, r7, r6
     924:	00240200 	eoreq	r0, r4, r0, lsl #4
     928:	0b3e0b0b 	bleq	f8355c <__bss_end__+0xf78fac>
     92c:	00000e03 	andeq	r0, r0, r3, lsl #28
     930:	03001603 	movweq	r1, #1539	; 0x603
     934:	3b0b3a0e 	blcc	2cf174 <__bss_end__+0x2c4bc4>
     938:	0013490b 	andseq	r4, r3, fp, lsl #18
     93c:	00240400 	eoreq	r0, r4, r0, lsl #8
     940:	0b3e0b0b 	bleq	f83574 <__bss_end__+0xf78fc4>
     944:	00000803 	andeq	r0, r0, r3, lsl #16
     948:	0b011305 	bleq	45564 <__bss_end__+0x3afb4>
     94c:	3b0b3a0b 	blcc	2cf180 <__bss_end__+0x2c4bd0>
     950:	0013010b 	andseq	r0, r3, fp, lsl #2
     954:	000d0600 	andeq	r0, sp, r0, lsl #12
     958:	0b3a0803 	bleq	e8296c <__bss_end__+0xe783bc>
     95c:	13490b3b 	movtne	r0, #39739	; 0x9b3b
     960:	00000b38 	andeq	r0, r0, r8, lsr fp
     964:	0b011707 	bleq	46588 <__bss_end__+0x3bfd8>
     968:	3b0b3a0b 	blcc	2cf19c <__bss_end__+0x2c4bec>
     96c:	0013010b 	andseq	r0, r3, fp, lsl #2
     970:	000d0800 	andeq	r0, sp, r0, lsl #16
     974:	0b3a0e03 	bleq	e84188 <__bss_end__+0xe79bd8>
     978:	13490b3b 	movtne	r0, #39739	; 0x9b3b
     97c:	2e090000 	cdpcs	0, 0, cr0, cr9, cr0, {0}
     980:	03193f01 	tsteq	r9, #1, 30
     984:	3b0b3a08 	blcc	2cf1ac <__bss_end__+0x2c4bfc>
     988:	4919270b 	ldmdbmi	r9, {r0, r1, r3, r8, r9, sl, sp}
     98c:	12011113 	andne	r1, r1, #-1073741820	; 0xc0000004
     990:	97184006 	ldrls	r4, [r8, -r6]
     994:	13011942 	movwne	r1, #6466	; 0x1942
     998:	050a0000 	streq	r0, [sl, #-0]
     99c:	3a080300 	bcc	2015a4 <__bss_end__+0x1f6ff4>
     9a0:	490b3b0b 	stmdbmi	fp, {r0, r1, r3, r8, r9, fp, ip, sp}
     9a4:	00170213 	andseq	r0, r7, r3, lsl r2
     9a8:	00340b00 	eorseq	r0, r4, r0, lsl #22
     9ac:	0b3a0803 	bleq	e829c0 <__bss_end__+0xe78410>
     9b0:	13490b3b 	movtne	r0, #39739	; 0x9b3b
     9b4:	00001802 	andeq	r1, r0, r2, lsl #16
     9b8:	0300340c 	movweq	r3, #1036	; 0x40c
     9bc:	3b0b3a08 	blcc	2cf1e4 <__bss_end__+0x2c4c34>
     9c0:	1c13490b 	ldcne	9, cr4, [r3], {11}
     9c4:	0d00000a 	stceq	0, cr0, [r0, #-40]	; 0xffffffd8
     9c8:	08030034 	stmdaeq	r3, {r2, r4, r5}
     9cc:	0b3b0b3a 	bleq	ec36bc <__bss_end__+0xeb910c>
     9d0:	17021349 	strne	r1, [r2, -r9, asr #6]
     9d4:	0b0e0000 	bleq	3809dc <__bss_end__+0x37642c>
     9d8:	12011101 	andne	r1, r1, #1073741824	; 0x40000000
     9dc:	00130106 	andseq	r0, r3, r6, lsl #2
     9e0:	00340f00 	eorseq	r0, r4, r0, lsl #30
     9e4:	0b3a0e03 	bleq	e841f8 <__bss_end__+0xe79c48>
     9e8:	13490b3b 	movtne	r0, #39739	; 0x9b3b
     9ec:	00001702 	andeq	r1, r0, r2, lsl #14
     9f0:	01828910 	orreq	r8, r2, r0, lsl r9
     9f4:	31011101 	tstcc	r1, r1, lsl #2
     9f8:	00130113 	andseq	r0, r3, r3, lsl r1
     9fc:	828a1100 	addhi	r1, sl, #0, 2
     a00:	18020001 	stmdane	r2, {r0}
     a04:	00184291 	mulseq	r8, r1, r2
     a08:	82891200 	addhi	r1, r9, #0, 4
     a0c:	01110001 	tsteq	r1, r1
     a10:	00001331 	andeq	r1, r0, r1, lsr r3
     a14:	49010113 	stmdbmi	r1, {r0, r1, r4, r8}
     a18:	00130113 	andseq	r0, r3, r3, lsl r1
     a1c:	00211400 	eoreq	r1, r1, r0, lsl #8
     a20:	0b2f1349 	bleq	bc574c <__bss_end__+0xbbb19c>
     a24:	2e150000 	cdpcs	0, 1, cr0, cr5, cr0, {0}
     a28:	03193f01 	tsteq	r9, #1, 30
     a2c:	3b0b3a0e 	blcc	2cf26c <__bss_end__+0x2c4cbc>
     a30:	49192705 	ldmdbmi	r9, {r0, r2, r8, r9, sl, sp}
     a34:	01193c13 	tsteq	r9, r3, lsl ip
     a38:	16000013 			; <UNDEFINED> instruction: 0x16000013
     a3c:	13490005 	movtne	r0, #36869	; 0x9005
     a40:	0f170000 	svceq	0x00170000
     a44:	490b0b00 	stmdbmi	fp, {r8, r9, fp}
     a48:	18000013 	stmdane	r0, {r0, r1, r4}
     a4c:	193f012e 	ldmdbne	pc!, {r1, r2, r3, r5, r8}	; <UNPREDICTABLE>
     a50:	0b3a0e03 	bleq	e84264 <__bss_end__+0xe79cb4>
     a54:	1927053b 	stmdbne	r7!, {r0, r1, r3, r4, r5, r8, sl}
     a58:	193c1349 	ldmdbne	ip!, {r0, r3, r6, r8, r9, ip}
     a5c:	01000000 	mrseq	r0, (UNDEF: 0)
     a60:	0e250111 	mcreq	1, 1, r0, cr5, cr1, {0}
     a64:	0e030b13 	vmoveq.32	d3[0], r0
     a68:	01110e1b 	tsteq	r1, fp, lsl lr
     a6c:	17100612 			; <UNDEFINED> instruction: 0x17100612
     a70:	16020000 	strne	r0, [r2], -r0
     a74:	3a0e0300 	bcc	38167c <__bss_end__+0x3770cc>
     a78:	490b3b0b 	stmdbmi	fp, {r0, r1, r3, r8, r9, fp, ip, sp}
     a7c:	03000013 	movweq	r0, #19
     a80:	0e030113 	mcreq	1, 0, r0, cr3, cr3, {0}
     a84:	0b3a0b0b 	bleq	e836b8 <__bss_end__+0xe79108>
     a88:	13010b3b 	movwne	r0, #6971	; 0x1b3b
     a8c:	0d040000 	stceq	0, cr0, [r4, #-0]
     a90:	490e0300 	stmdbmi	lr, {r8, r9}
     a94:	340b3813 	strcc	r3, [fp], #-2067	; 0x813
     a98:	05000019 	streq	r0, [r0, #-25]
     a9c:	0b0b000f 	bleq	2c0ae0 <__bss_end__+0x2b6530>
     aa0:	24060000 	strcs	r0, [r6], #-0
     aa4:	3e0b0b00 	vmlacc.f64	d0, d11, d0
     aa8:	0008030b 	andeq	r0, r8, fp, lsl #6
     aac:	00240700 	eoreq	r0, r4, r0, lsl #14
     ab0:	0b3e0b0b 	bleq	f836e4 <__bss_end__+0xf79134>
     ab4:	00000e03 	andeq	r0, r0, r3, lsl #28
     ab8:	0b000f08 	bleq	46e0 <_start-0x3920>
     abc:	0013490b 	andseq	r4, r3, fp, lsl #18
     ac0:	00260900 	eoreq	r0, r6, r0, lsl #18
     ac4:	00001349 	andeq	r1, r0, r9, asr #6
     ac8:	3f012e0a 	svccc	0x00012e0a
     acc:	3a0e0319 	bcc	381738 <__bss_end__+0x377188>
     ad0:	270b3b0b 	strcs	r3, [fp, -fp, lsl #22]
     ad4:	11134919 	tstne	r3, r9, lsl r9
     ad8:	40061201 	andmi	r1, r6, r1, lsl #4
     adc:	19429718 	stmdbne	r2, {r3, r4, r8, r9, sl, ip, pc}^
     ae0:	00001301 	andeq	r1, r0, r1, lsl #6
     ae4:	0300050b 	movweq	r0, #1291	; 0x50b
     ae8:	3b0b3a08 	blcc	2cf310 <__bss_end__+0x2c4d60>
     aec:	0213490b 	andseq	r4, r3, #180224	; 0x2c000
     af0:	0c000018 	stceq	0, cr0, [r0], {24}
     af4:	00000018 	andeq	r0, r0, r8, lsl r0
     af8:	0300340d 	movweq	r3, #1037	; 0x40d
     afc:	3b0b3a08 	blcc	2cf324 <__bss_end__+0x2c4d74>
     b00:	0213490b 	andseq	r4, r3, #180224	; 0x2c000
     b04:	0e000018 	mcreq	0, 0, r0, cr0, cr8, {0}
     b08:	0e030034 	mcreq	0, 0, r0, cr3, cr4, {1}
     b0c:	0b3b0b3a 	bleq	ec37fc <__bss_end__+0xeb924c>
     b10:	18021349 	stmdane	r2, {r0, r3, r6, r8, r9, ip}
     b14:	340f0000 	strcc	r0, [pc], #-0	; b1c <_start-0x74e4>
     b18:	3a080300 	bcc	201720 <__bss_end__+0x1f7170>
     b1c:	490b3b0b 	stmdbmi	fp, {r0, r1, r3, r8, r9, fp, ip, sp}
     b20:	00170213 	andseq	r0, r7, r3, lsl r2
     b24:	82891000 	addhi	r1, r9, #0
     b28:	01110101 	tsteq	r1, r1, lsl #2
     b2c:	13011331 	movwne	r1, #4913	; 0x1331
     b30:	8a110000 	bhi	440b38 <__bss_end__+0x436588>
     b34:	02000182 	andeq	r0, r0, #-2147483616	; 0x80000020
     b38:	18429118 	stmdane	r2, {r3, r4, r8, ip, pc}^
     b3c:	89120000 	ldmdbhi	r2, {}	; <UNPREDICTABLE>
     b40:	11010182 	smlabbne	r1, r2, r1, r0
     b44:	13000001 	movwne	r0, #1
     b48:	13490101 	movtne	r0, #37121	; 0x9101
     b4c:	00001301 	andeq	r1, r0, r1, lsl #6
     b50:	49002114 	stmdbmi	r0, {r2, r4, r8, sp}
     b54:	00052f13 	andeq	r2, r5, r3, lsl pc
     b58:	01151500 	tsteq	r5, r0, lsl #10
     b5c:	13491927 	movtne	r1, #39207	; 0x9927
     b60:	00001301 	andeq	r1, r0, r1, lsl #6
     b64:	49000516 	stmdbmi	r0, {r1, r2, r4, r8, sl}
     b68:	17000013 	smladne	r0, r3, r0, r0
     b6c:	0e030034 	mcreq	0, 0, r0, cr3, cr4, {1}
     b70:	0b3b0b3a 	bleq	ec3860 <__bss_end__+0xeb92b0>
     b74:	193f1349 	ldmdbne	pc!, {r0, r3, r6, r8, r9, ip}	; <UNPREDICTABLE>
     b78:	0000193c 	andeq	r1, r0, ip, lsr r9
     b7c:	3f012e18 	svccc	0x00012e18
     b80:	3a0e0319 	bcc	3817ec <__bss_end__+0x37723c>
     b84:	270b3b0b 	strcs	r3, [fp, -fp, lsl #22]
     b88:	3c134919 	ldccc	9, cr4, [r3], {25}
     b8c:	00000019 	andeq	r0, r0, r9, lsl r0
     b90:	25011101 	strcs	r1, [r1, #-257]	; 0x101
     b94:	030b130e 	movweq	r1, #45838	; 0xb30e
     b98:	110e1b0e 	tstne	lr, lr, lsl #22
     b9c:	10061201 	andne	r1, r6, r1, lsl #4
     ba0:	02000017 	andeq	r0, r0, #23
     ba4:	0b0b0024 	bleq	2c0c3c <__bss_end__+0x2b668c>
     ba8:	08030b3e 	stmdaeq	r3, {r1, r2, r3, r4, r5, r8, r9, fp}
     bac:	24030000 	strcs	r0, [r3], #-0
     bb0:	3e0b0b00 	vmlacc.f64	d0, d11, d0
     bb4:	000e030b 	andeq	r0, lr, fp, lsl #6
     bb8:	000f0400 	andeq	r0, pc, r0, lsl #8
     bbc:	13490b0b 	movtne	r0, #39691	; 0x9b0b
     bc0:	26050000 	strcs	r0, [r5], -r0
     bc4:	00134900 	andseq	r4, r3, r0, lsl #18
     bc8:	012e0600 	teqeq	lr, r0, lsl #12
     bcc:	0e03193f 	mcreq	9, 0, r1, cr3, cr15, {1}
     bd0:	0b3b0b3a 	bleq	ec38c0 <__bss_end__+0xeb9310>
     bd4:	13491927 	movtne	r1, #39207	; 0x9927
     bd8:	06120111 			; <UNDEFINED> instruction: 0x06120111
     bdc:	42961840 	addsmi	r1, r6, #64, 16	; 0x400000
     be0:	00130119 	andseq	r0, r3, r9, lsl r1
     be4:	00050700 	andeq	r0, r5, r0, lsl #14
     be8:	0b3a0803 	bleq	e82bfc <__bss_end__+0xe7864c>
     bec:	13490b3b 	movtne	r0, #39739	; 0x9b3b
     bf0:	00001702 	andeq	r1, r0, r2, lsl #14
     bf4:	27011508 	strcs	r1, [r1, -r8, lsl #10]
     bf8:	01134919 	tsteq	r3, r9, lsl r9
     bfc:	09000013 	stmdbeq	r0, {r0, r1, r4}
     c00:	13490005 	movtne	r0, #36869	; 0x9005
     c04:	340a0000 	strcc	r0, [sl], #-0
     c08:	3a0e0300 	bcc	381810 <__bss_end__+0x377260>
     c0c:	490b3b0b 	stmdbmi	fp, {r0, r1, r3, r8, r9, fp, ip, sp}
     c10:	3c193f13 	ldccc	15, cr3, [r9], {19}
     c14:	0b000019 	bleq	c80 <_start-0x7380>
     c18:	0e030034 	mcreq	0, 0, r0, cr3, cr4, {1}
     c1c:	0b3b0b3a 	bleq	ec390c <__bss_end__+0xeb935c>
     c20:	193f1349 	ldmdbne	pc!, {r0, r3, r6, r8, r9, ip}	; <UNPREDICTABLE>
     c24:	00001802 	andeq	r1, r0, r2, lsl #16
     c28:	01110100 	tsteq	r1, r0, lsl #2
     c2c:	0b130e25 	bleq	4c44c8 <__bss_end__+0x4b9f18>
     c30:	0e1b0e03 	cdpeq	14, 1, cr0, cr11, cr3, {0}
     c34:	06120111 			; <UNDEFINED> instruction: 0x06120111
     c38:	00001710 	andeq	r1, r0, r0, lsl r7
     c3c:	0b002402 	bleq	9c4c <uart_init+0x14>
     c40:	030b3e0b 	movweq	r3, #48651	; 0xbe0b
     c44:	0300000e 	movweq	r0, #14
     c48:	0b0b0024 	bleq	2c0ce0 <__bss_end__+0x2b6730>
     c4c:	08030b3e 	stmdaeq	r3, {r1, r2, r3, r4, r5, r8, r9, fp}
     c50:	0f040000 	svceq	0x00040000
     c54:	000b0b00 	andeq	r0, fp, r0, lsl #22
     c58:	000f0500 	andeq	r0, pc, r0, lsl #10
     c5c:	13490b0b 	movtne	r0, #39691	; 0x9b0b
     c60:	26060000 	strcs	r0, [r6], -r0
     c64:	00134900 	andseq	r4, r3, r0, lsl #18
     c68:	00160700 	andseq	r0, r6, r0, lsl #14
     c6c:	0b3a0e03 	bleq	e84480 <__bss_end__+0xe79ed0>
     c70:	13490b3b 	movtne	r0, #39739	; 0x9b3b
     c74:	13080000 	movwne	r0, #32768	; 0x8000
     c78:	0b0e0301 	bleq	381884 <__bss_end__+0x3772d4>
     c7c:	3b0b3a0b 	blcc	2cf4b0 <__bss_end__+0x2c4f00>
     c80:	0013010b 	andseq	r0, r3, fp, lsl #2
     c84:	000d0900 	andeq	r0, sp, r0, lsl #18
     c88:	13490e03 	movtne	r0, #40451	; 0x9e03
     c8c:	19340b38 	ldmdbne	r4!, {r3, r4, r5, r8, r9, fp}
     c90:	2e0a0000 	cdpcs	0, 0, cr0, cr10, cr0, {0}
     c94:	3a0e0301 	bcc	3818a0 <__bss_end__+0x3772f0>
     c98:	270b3b0b 	strcs	r3, [fp, -fp, lsl #22]
     c9c:	11134919 	tstne	r3, r9, lsl r9
     ca0:	40061201 	andmi	r1, r6, r1, lsl #4
     ca4:	19429718 	stmdbne	r2, {r3, r4, r8, r9, sl, ip, pc}^
     ca8:	00001301 	andeq	r1, r0, r1, lsl #6
     cac:	0300050b 	movweq	r0, #1291	; 0x50b
     cb0:	3b0b3a08 	blcc	2cf4d8 <__bss_end__+0x2c4f28>
     cb4:	0213490b 	andseq	r4, r3, #180224	; 0x2c000
     cb8:	0c000017 	stceq	0, cr0, [r0], {23}
     cbc:	0803012e 	stmdaeq	r3, {r1, r2, r3, r5, r8}
     cc0:	0b3b0b3a 	bleq	ec39b0 <__bss_end__+0xeb9400>
     cc4:	13491927 	movtne	r1, #39207	; 0x9927
     cc8:	06120111 			; <UNDEFINED> instruction: 0x06120111
     ccc:	42971840 	addsmi	r1, r7, #64, 16	; 0x400000
     cd0:	00130119 	andseq	r0, r3, r9, lsl r1
     cd4:	00050d00 	andeq	r0, r5, r0, lsl #26
     cd8:	0b3a0e03 	bleq	e844ec <__bss_end__+0xe79f3c>
     cdc:	13490b3b 	movtne	r0, #39739	; 0x9b3b
     ce0:	00001702 	andeq	r1, r0, r2, lsl #14
     ce4:	0300050e 	movweq	r0, #1294	; 0x50e
     ce8:	3b0b3a0e 	blcc	2cf528 <__bss_end__+0x2c4f78>
     cec:	0213490b 	andseq	r4, r3, #180224	; 0x2c000
     cf0:	0f000018 	svceq	0x00000018
     cf4:	08030034 	stmdaeq	r3, {r2, r4, r5}
     cf8:	0b3b0b3a 	bleq	ec39e8 <__bss_end__+0xeb9438>
     cfc:	18021349 	stmdane	r2, {r0, r3, r6, r8, r9, ip}
     d00:	34100000 	ldrcc	r0, [r0], #-0
     d04:	3a080300 	bcc	20190c <__bss_end__+0x1f735c>
     d08:	490b3b0b 	stmdbmi	fp, {r0, r1, r3, r8, r9, fp, ip, sp}
     d0c:	00170213 	andseq	r0, r7, r3, lsl r2
     d10:	82891100 	addhi	r1, r9, #0, 2
     d14:	01110001 	tsteq	r1, r1
     d18:	00001331 	andeq	r1, r0, r1, lsr r3
     d1c:	01828912 	orreq	r8, r2, r2, lsl r9
     d20:	31011101 	tstcc	r1, r1, lsl #2
     d24:	13000013 	movwne	r0, #19
     d28:	0001828a 	andeq	r8, r1, sl, lsl #5
     d2c:	42911802 	addsmi	r1, r1, #131072	; 0x20000
     d30:	14000018 	strne	r0, [r0], #-24
     d34:	0e030034 	mcreq	0, 0, r0, cr3, cr4, {1}
     d38:	19341349 	ldmdbne	r4!, {r0, r3, r6, r8, r9, ip}
     d3c:	00001802 	andeq	r1, r0, r2, lsl #16
     d40:	11010b15 	tstne	r1, r5, lsl fp
     d44:	01061201 	tsteq	r6, r1, lsl #4
     d48:	16000013 			; <UNDEFINED> instruction: 0x16000013
     d4c:	0e030034 	mcreq	0, 0, r0, cr3, cr4, {1}
     d50:	0b3b0b3a 	bleq	ec3a40 <__bss_end__+0xeb9490>
     d54:	17021349 	strne	r1, [r2, -r9, asr #6]
     d58:	89170000 	ldmdbhi	r7, {}	; <UNPREDICTABLE>
     d5c:	11010182 	smlabbne	r1, r2, r1, r0
     d60:	01133101 	tsteq	r3, r1, lsl #2
     d64:	18000013 	stmdane	r0, {r0, r1, r4}
     d68:	13490101 	movtne	r0, #37121	; 0x9101
     d6c:	00001301 	andeq	r1, r0, r1, lsl #6
     d70:	49002119 	stmdbmi	r0, {r0, r3, r4, r8, sp}
     d74:	000b2f13 	andeq	r2, fp, r3, lsl pc
     d78:	012e1a00 	teqeq	lr, r0, lsl #20
     d7c:	0e03193f 	mcreq	9, 0, r1, cr3, cr15, {1}
     d80:	0b3b0b3a 	bleq	ec3a70 <__bss_end__+0xeb94c0>
     d84:	01111927 	tsteq	r1, r7, lsr #18
     d88:	18400612 	stmdane	r0, {r1, r4, r9, sl}^
     d8c:	01194297 			; <UNDEFINED> instruction: 0x01194297
     d90:	1b000013 	blne	de4 <_start-0x721c>
     d94:	19270115 	stmdbne	r7!, {r0, r2, r4, r8}
     d98:	13011349 	movwne	r1, #4937	; 0x1349
     d9c:	051c0000 	ldreq	r0, [ip, #-0]
     da0:	00134900 	andseq	r4, r3, r0, lsl #18
     da4:	012e1d00 	teqeq	lr, r0, lsl #26
     da8:	0e03193f 	mcreq	9, 0, r1, cr3, cr15, {1}
     dac:	0b3b0b3a 	bleq	ec3a9c <__bss_end__+0xeb94ec>
     db0:	13491927 	movtne	r1, #39207	; 0x9927
     db4:	06120111 			; <UNDEFINED> instruction: 0x06120111
     db8:	42971840 	addsmi	r1, r7, #64, 16	; 0x400000
     dbc:	00130119 	andseq	r0, r3, r9, lsl r1
     dc0:	00341e00 	eorseq	r1, r4, r0, lsl #28
     dc4:	0b3a0e03 	bleq	e845d8 <__bss_end__+0xe7a028>
     dc8:	13490b3b 	movtne	r0, #39739	; 0x9b3b
     dcc:	00000b1c 	andeq	r0, r0, ip, lsl fp
     dd0:	55010b1f 	strpl	r0, [r1, #-2847]	; 0xb1f
     dd4:	20000017 	andcs	r0, r0, r7, lsl r0
     dd8:	0e030034 	mcreq	0, 0, r0, cr3, cr4, {1}
     ddc:	0b3b0b3a 	bleq	ec3acc <__bss_end__+0xeb951c>
     de0:	193f1349 	ldmdbne	pc!, {r0, r3, r6, r8, r9, ip}	; <UNPREDICTABLE>
     de4:	0000193c 	andeq	r1, r0, ip, lsr r9
     de8:	3f002e21 	svccc	0x00002e21
     dec:	3a0e0319 	bcc	381a58 <__bss_end__+0x3774a8>
     df0:	270b3b0b 	strcs	r3, [fp, -fp, lsl #22]
     df4:	00193c19 	andseq	r3, r9, r9, lsl ip
     df8:	012e2200 	teqeq	lr, r0, lsl #4
     dfc:	0e03193f 	mcreq	9, 0, r1, cr3, cr15, {1}
     e00:	0b3b0b3a 	bleq	ec3af0 <__bss_end__+0xeb9540>
     e04:	13491927 	movtne	r1, #39207	; 0x9927
     e08:	1301193c 	movwne	r1, #6460	; 0x193c
     e0c:	18230000 	stmdane	r3!, {}	; <UNPREDICTABLE>
     e10:	24000000 	strcs	r0, [r0], #-0
     e14:	193f012e 	ldmdbne	pc!, {r1, r2, r3, r5, r8}	; <UNPREDICTABLE>
     e18:	0b3a0e03 	bleq	e8462c <__bss_end__+0xe7a07c>
     e1c:	19270b3b 	stmdbne	r7!, {r0, r1, r3, r4, r5, r8, r9, fp}
     e20:	193c1349 	ldmdbne	ip!, {r0, r3, r6, r8, r9, ip}
     e24:	01000000 	mrseq	r0, (UNDEF: 0)
     e28:	0e250111 	mcreq	1, 1, r0, cr5, cr1, {0}
     e2c:	0e030b13 	vmoveq.32	d3[0], r0
     e30:	01110e1b 	tsteq	r1, fp, lsl lr
     e34:	17100612 			; <UNDEFINED> instruction: 0x17100612
     e38:	24020000 	strcs	r0, [r2], #-0
     e3c:	3e0b0b00 	vmlacc.f64	d0, d11, d0
     e40:	0008030b 	andeq	r0, r8, fp, lsl #6
     e44:	00240300 	eoreq	r0, r4, r0, lsl #6
     e48:	0b3e0b0b 	bleq	f83a7c <__bss_end__+0xf794cc>
     e4c:	00000e03 	andeq	r0, r0, r3, lsl #28
     e50:	0b000f04 	bleq	4a68 <_start-0x3598>
     e54:	0013490b 	andseq	r4, r3, fp, lsl #18
     e58:	00260500 	eoreq	r0, r6, r0, lsl #10
     e5c:	00001349 	andeq	r1, r0, r9, asr #6
     e60:	3f012e06 	svccc	0x00012e06
     e64:	3a0e0319 	bcc	381ad0 <__bss_end__+0x377520>
     e68:	270b3b0b 	strcs	r3, [fp, -fp, lsl #22]
     e6c:	12011119 	andne	r1, r1, #1073741830	; 0x40000006
     e70:	97184006 	ldrls	r4, [r8, -r6]
     e74:	13011942 	movwne	r1, #6466	; 0x1942
     e78:	89070000 	stmdbhi	r7, {}	; <UNPREDICTABLE>
     e7c:	11010182 	smlabbne	r1, r2, r1, r0
     e80:	00130101 	andseq	r0, r3, r1, lsl #2
     e84:	828a0800 	addhi	r0, sl, #0, 16
     e88:	18020001 	stmdane	r2, {r0}
     e8c:	00184291 	mulseq	r8, r1, r2
     e90:	82890900 	addhi	r0, r9, #0, 18
     e94:	01110101 	tsteq	r1, r1, lsl #2
     e98:	13011331 	movwne	r1, #4913	; 0x1331
     e9c:	890a0000 	stmdbhi	sl, {}	; <UNPREDICTABLE>
     ea0:	11000182 	smlabbne	r0, r2, r1, r0
     ea4:	00133101 	andseq	r3, r3, r1, lsl #2
     ea8:	01150b00 	tsteq	r5, r0, lsl #22
     eac:	13491927 	movtne	r1, #39207	; 0x9927
     eb0:	00001301 	andeq	r1, r0, r1, lsl #6
     eb4:	4900050c 	stmdbmi	r0, {r2, r3, r8, sl}
     eb8:	0d000013 	stceq	0, cr0, [r0, #-76]	; 0xffffffb4
     ebc:	0e030034 	mcreq	0, 0, r0, cr3, cr4, {1}
     ec0:	0b3b0b3a 	bleq	ec3bb0 <__bss_end__+0xeb9600>
     ec4:	193f1349 	ldmdbne	pc!, {r0, r3, r6, r8, r9, ip}	; <UNPREDICTABLE>
     ec8:	0000193c 	andeq	r1, r0, ip, lsr r9
     ecc:	3f012e0e 	svccc	0x00012e0e
     ed0:	3a0e0319 	bcc	381b3c <__bss_end__+0x37758c>
     ed4:	270b3b0b 	strcs	r3, [fp, -fp, lsl #22]
     ed8:	01193c19 	tsteq	r9, r9, lsl ip
     edc:	0f000013 	svceq	0x00000013
     ee0:	193f002e 	ldmdbne	pc!, {r1, r2, r3, r5}	; <UNPREDICTABLE>
     ee4:	0b3a0e03 	bleq	e846f8 <__bss_end__+0xe7a148>
     ee8:	19270b3b 	stmdbne	r7!, {r0, r1, r3, r4, r5, r8, r9, fp}
     eec:	0000193c 	andeq	r1, r0, ip, lsr r9
     ef0:	01110100 	tsteq	r1, r0, lsl #2
     ef4:	0b130e25 	bleq	4c4790 <__bss_end__+0x4ba1e0>
     ef8:	0e1b0e03 	cdpeq	14, 1, cr0, cr11, cr3, {0}
     efc:	06120111 			; <UNDEFINED> instruction: 0x06120111
     f00:	00001710 	andeq	r1, r0, r0, lsl r7
     f04:	0b002402 	bleq	9f14 <rpi_putchar+0x48>
     f08:	030b3e0b 	movweq	r3, #48651	; 0xbe0b
     f0c:	03000008 	movweq	r0, #8
     f10:	0b0b0024 	bleq	2c0fa8 <__bss_end__+0x2b69f8>
     f14:	0e030b3e 	vmoveq.16	d3[0], r0
     f18:	0f040000 	svceq	0x00040000
     f1c:	490b0b00 	stmdbmi	fp, {r8, r9, fp}
     f20:	05000013 	streq	r0, [r0, #-19]
     f24:	13490026 	movtne	r0, #36902	; 0x9026
     f28:	01060000 	mrseq	r0, (UNDEF: 6)
     f2c:	01134901 	tsteq	r3, r1, lsl #18
     f30:	07000013 	smladeq	r0, r3, r0, r0
     f34:	13490021 	movtne	r0, #36897	; 0x9021
     f38:	00000b2f 	andeq	r0, r0, pc, lsr #22
     f3c:	3f012e08 	svccc	0x00012e08
     f40:	3a0e0319 	bcc	381bac <__bss_end__+0x3775fc>
     f44:	110b3b0b 	tstne	fp, fp, lsl #22
     f48:	40061201 	andmi	r1, r6, r1, lsl #4
     f4c:	19429718 	stmdbne	r2, {r3, r4, r8, r9, sl, ip, pc}^
     f50:	00001301 	andeq	r1, r0, r1, lsl #6
     f54:	03003409 	movweq	r3, #1033	; 0x409
     f58:	3b0b3a0e 	blcc	2cf798 <__bss_end__+0x2c51e8>
     f5c:	3f13490b 	svccc	0x0013490b
     f60:	00193c19 	andseq	r3, r9, r9, lsl ip
     f64:	002e0a00 	eoreq	r0, lr, r0, lsl #20
     f68:	0e03193f 	mcreq	9, 0, r1, cr3, cr15, {1}
     f6c:	0b3b0b3a 	bleq	ec3c5c <__bss_end__+0xeb96ac>
     f70:	193c1927 	ldmdbne	ip!, {r0, r1, r2, r5, r8, fp, ip}
     f74:	340b0000 	strcc	r0, [fp], #-0
     f78:	3a080300 	bcc	201b80 <__bss_end__+0x1f75d0>
     f7c:	490b3b0b 	stmdbmi	fp, {r0, r1, r3, r8, r9, fp, ip, sp}
     f80:	00170213 	andseq	r0, r7, r3, lsl r2
     f84:	00340c00 	eorseq	r0, r4, r0, lsl #24
     f88:	0b3a0e03 	bleq	e8479c <__bss_end__+0xe7a1ec>
     f8c:	13490b3b 	movtne	r0, #39739	; 0x9b3b
     f90:	340d0000 	strcc	r0, [sp], #-0
     f94:	490e0300 	stmdbmi	lr, {r8, r9}
     f98:	02193413 	andseq	r3, r9, #318767104	; 0x13000000
     f9c:	0e000018 	mcreq	0, 0, r0, cr0, cr8, {0}
     fa0:	00018289 	andeq	r8, r1, r9, lsl #5
     fa4:	13310111 	teqne	r1, #1073741828	; 0x40000004
     fa8:	890f0000 	stmdbhi	pc, {}	; <UNPREDICTABLE>
     fac:	11010182 	smlabbne	r1, r2, r1, r0
     fb0:	01133101 	tsteq	r3, r1, lsl #2
     fb4:	10000013 	andne	r0, r0, r3, lsl r0
     fb8:	0001828a 	andeq	r8, r1, sl, lsl #5
     fbc:	42911802 	addsmi	r1, r1, #131072	; 0x20000
     fc0:	11000018 	tstne	r0, r8, lsl r0
     fc4:	193f012e 	ldmdbne	pc!, {r1, r2, r3, r5, r8}	; <UNPREDICTABLE>
     fc8:	0b3a0e03 	bleq	e847dc <__bss_end__+0xe7a22c>
     fcc:	19270b3b 	stmdbne	r7!, {r0, r1, r3, r4, r5, r8, r9, fp}
     fd0:	193c1349 	ldmdbne	ip!, {r0, r3, r6, r8, r9, ip}
     fd4:	00001301 	andeq	r1, r0, r1, lsl #6
     fd8:	49000512 	stmdbmi	r0, {r1, r4, r8, sl}
     fdc:	13000013 	movwne	r0, #19
     fe0:	00000018 	andeq	r0, r0, r8, lsl r0
     fe4:	01110100 	tsteq	r1, r0, lsl #2
     fe8:	0b130e25 	bleq	4c4884 <__bss_end__+0x4ba2d4>
     fec:	0e1b0e03 	cdpeq	14, 1, cr0, cr11, cr3, {0}
     ff0:	01111755 	tsteq	r1, r5, asr r7
     ff4:	00001710 	andeq	r1, r0, r0, lsl r7
     ff8:	0b002402 	bleq	a008 <ipio2+0xc8>
     ffc:	030b3e0b 	movweq	r3, #48651	; 0xbe0b
    1000:	03000008 	movweq	r0, #8
    1004:	0b0b0024 	bleq	2c109c <__bss_end__+0x2b6aec>
    1008:	0e030b3e 	vmoveq.16	d3[0], r0
    100c:	2e040000 	cdpcs	0, 0, cr0, cr4, cr0, {0}
    1010:	03193f01 	tsteq	r9, #1, 30
    1014:	3b0b3a0e 	blcc	2cf854 <__bss_end__+0x2c52a4>
    1018:	4919270b 	ldmdbmi	r9, {r0, r1, r3, r8, r9, sl, sp}
    101c:	12011113 	andne	r1, r1, #-1073741820	; 0xc0000004
    1020:	97184006 	ldrls	r4, [r8, -r6]
    1024:	13011942 	movwne	r1, #6466	; 0x1942
    1028:	34050000 	strcc	r0, [r5], #-0
    102c:	3a0e0300 	bcc	381c34 <__bss_end__+0x377684>
    1030:	490b3b0b 	stmdbmi	fp, {r0, r1, r3, r8, r9, fp, ip, sp}
    1034:	00170213 	andseq	r0, r7, r3, lsl r2
    1038:	012e0600 	teqeq	lr, r0, lsl #12
    103c:	0e03193f 	mcreq	9, 0, r1, cr3, cr15, {1}
    1040:	0b3b0b3a 	bleq	ec3d30 <__bss_end__+0xeb9780>
    1044:	01111927 	tsteq	r1, r7, lsr #18
    1048:	18400612 	stmdane	r0, {r1, r4, r9, sl}^
    104c:	01194297 			; <UNDEFINED> instruction: 0x01194297
    1050:	07000013 	smladeq	r0, r3, r0, r0
    1054:	0e030034 	mcreq	0, 0, r0, cr3, cr4, {1}
    1058:	0b3b0b3a 	bleq	ec3d48 <__bss_end__+0xeb9798>
    105c:	061c1349 	ldreq	r1, [ip], -r9, asr #6
    1060:	34080000 	strcc	r0, [r8], #-0
    1064:	3a0e0300 	bcc	381c6c <__bss_end__+0x3776bc>
    1068:	490b3b0b 	stmdbmi	fp, {r0, r1, r3, r8, r9, fp, ip, sp}
    106c:	000b1c13 	andeq	r1, fp, r3, lsl ip
    1070:	82890900 	addhi	r0, r9, #0, 18
    1074:	01110001 	tsteq	r1, r1
    1078:	00001331 	andeq	r1, r0, r1, lsr r3
    107c:	0182890a 	orreq	r8, r2, sl, lsl #18
    1080:	31011101 	tstcc	r1, r1, lsl #2
    1084:	00130113 	andseq	r0, r3, r3, lsl r1
    1088:	828a0b00 	addhi	r0, sl, #0, 22
    108c:	18020001 	stmdane	r2, {r0}
    1090:	00184291 	mulseq	r8, r1, r2
    1094:	82890c00 	addhi	r0, r9, #0, 24
    1098:	01110101 	tsteq	r1, r1, lsl #2
    109c:	00001331 	andeq	r1, r0, r1, lsr r3
    10a0:	4900260d 	stmdbmi	r0, {r0, r2, r3, r9, sl, sp}
    10a4:	0e000013 	mcreq	0, 0, r0, cr0, cr3, {0}
    10a8:	193f012e 	ldmdbne	pc!, {r1, r2, r3, r5, r8}	; <UNPREDICTABLE>
    10ac:	0b3a0e03 	bleq	e848c0 <__bss_end__+0xe7a310>
    10b0:	19270b3b 	stmdbne	r7!, {r0, r1, r3, r4, r5, r8, r9, fp}
    10b4:	1301193c 	movwne	r1, #6460	; 0x193c
    10b8:	050f0000 	streq	r0, [pc, #-0]	; 10c0 <_start-0x6f40>
    10bc:	00134900 	andseq	r4, r3, r0, lsl #18
    10c0:	012e1000 	teqeq	lr, r0
    10c4:	0e03193f 	mcreq	9, 0, r1, cr3, cr15, {1}
    10c8:	0b3b0b3a 	bleq	ec3db8 <__bss_end__+0xeb9808>
    10cc:	193c1927 	ldmdbne	ip!, {r0, r1, r2, r5, r8, fp, ip}
    10d0:	01000000 	mrseq	r0, (UNDEF: 0)
    10d4:	0e250111 	mcreq	1, 1, r0, cr5, cr1, {0}
    10d8:	0e030b13 	vmoveq.32	d3[0], r0
    10dc:	01110e1b 	tsteq	r1, fp, lsl lr
    10e0:	17100612 			; <UNDEFINED> instruction: 0x17100612
    10e4:	24020000 	strcs	r0, [r2], #-0
    10e8:	3e0b0b00 	vmlacc.f64	d0, d11, d0
    10ec:	0008030b 	andeq	r0, r8, fp, lsl #6
    10f0:	00240300 	eoreq	r0, r4, r0, lsl #6
    10f4:	0b3e0b0b 	bleq	f83d28 <__bss_end__+0xf79778>
    10f8:	00000e03 	andeq	r0, r0, r3, lsl #28
    10fc:	3f012e04 	svccc	0x00012e04
    1100:	3a0e0319 	bcc	381d6c <__bss_end__+0x3777bc>
    1104:	270b3b0b 	strcs	r3, [fp, -fp, lsl #22]
    1108:	12011119 	andne	r1, r1, #1073741830	; 0x40000006
    110c:	97184006 	ldrls	r4, [r8, -r6]
    1110:	13011942 	movwne	r1, #6466	; 0x1942
    1114:	05050000 	streq	r0, [r5, #-0]
    1118:	3a0e0300 	bcc	381d20 <__bss_end__+0x377770>
    111c:	490b3b0b 	stmdbmi	fp, {r0, r1, r3, r8, r9, fp, ip, sp}
    1120:	00170213 	andseq	r0, r7, r3, lsl r2
    1124:	012e0600 	teqeq	lr, r0, lsl #12
    1128:	0e03193f 	mcreq	9, 0, r1, cr3, cr15, {1}
    112c:	0b3b0b3a 	bleq	ec3e1c <__bss_end__+0xeb986c>
    1130:	13491927 	movtne	r1, #39207	; 0x9927
    1134:	06120111 			; <UNDEFINED> instruction: 0x06120111
    1138:	42971840 	addsmi	r1, r7, #64, 16	; 0x400000
    113c:	00130119 	andseq	r0, r3, r9, lsl r1
    1140:	82890700 	addhi	r0, r9, #0, 14
    1144:	01110101 	tsteq	r1, r1, lsl #2
    1148:	00001331 	andeq	r1, r0, r1, lsr r3
    114c:	01828a08 	orreq	r8, r2, r8, lsl #20
    1150:	91180200 	tstls	r8, r0, lsl #4
    1154:	00001842 	andeq	r1, r0, r2, asr #16
    1158:	03003409 	movweq	r3, #1033	; 0x409
    115c:	3b0b3a08 	blcc	2cf984 <__bss_end__+0x2c53d4>
    1160:	0213490b 	andseq	r4, r3, #180224	; 0x2c000
    1164:	0a000018 	beq	11cc <_start-0x6e34>
    1168:	00018289 	andeq	r8, r1, r9, lsl #5
    116c:	13310111 	teqne	r1, #1073741828	; 0x40000004
    1170:	050b0000 	streq	r0, [fp, #-0]
    1174:	3a080300 	bcc	201d7c <__bss_end__+0x1f77cc>
    1178:	490b3b0b 	stmdbmi	fp, {r0, r1, r3, r8, r9, fp, ip, sp}
    117c:	00170213 	andseq	r0, r7, r3, lsl r2
    1180:	010b0c00 	tsteq	fp, r0, lsl #24
    1184:	06120111 			; <UNDEFINED> instruction: 0x06120111
    1188:	00001301 	andeq	r1, r0, r1, lsl #6
    118c:	0300340d 	movweq	r3, #1037	; 0x40d
    1190:	3b0b3a08 	blcc	2cf9b8 <__bss_end__+0x2c5408>
    1194:	0213490b 	andseq	r4, r3, #180224	; 0x2c000
    1198:	0e000017 	mcreq	0, 0, r0, cr0, cr7, {0}
    119c:	193f012e 	ldmdbne	pc!, {r1, r2, r3, r5, r8}	; <UNPREDICTABLE>
    11a0:	0b3a0e03 	bleq	e849b4 <__bss_end__+0xe7a404>
    11a4:	19270b3b 	stmdbne	r7!, {r0, r1, r3, r4, r5, r8, r9, fp}
    11a8:	193c1349 	ldmdbne	ip!, {r0, r3, r6, r8, r9, ip}
    11ac:	050f0000 	streq	r0, [pc, #-0]	; 11b4 <_start-0x6e4c>
    11b0:	00134900 	andseq	r4, r3, r0, lsl #18
    11b4:	11010000 	mrsne	r0, (UNDEF: 1)
    11b8:	130e2501 	movwne	r2, #58625	; 0xe501
    11bc:	1b0e030b 	blne	381df0 <__bss_end__+0x377840>
    11c0:	1201110e 	andne	r1, r1, #-2147483645	; 0x80000003
    11c4:	00171006 	andseq	r1, r7, r6
    11c8:	00240200 	eoreq	r0, r4, r0, lsl #4
    11cc:	0b3e0b0b 	bleq	f83e00 <__bss_end__+0xf79850>
    11d0:	00000803 	andeq	r0, r0, r3, lsl #16
    11d4:	0b002403 	bleq	a1e8 <__bss_start__+0x38>
    11d8:	030b3e0b 	movweq	r3, #48651	; 0xbe0b
    11dc:	0400000e 	streq	r0, [r0], #-14
    11e0:	0e03012e 	adfeqsp	f0, f3, #0.5
    11e4:	0b3b0b3a 	bleq	ec3ed4 <__bss_end__+0xeb9924>
    11e8:	13491927 	movtne	r1, #39207	; 0x9927
    11ec:	06120111 			; <UNDEFINED> instruction: 0x06120111
    11f0:	42971840 	addsmi	r1, r7, #64, 16	; 0x400000
    11f4:	00130119 	andseq	r0, r3, r9, lsl r1
    11f8:	00050500 	andeq	r0, r5, r0, lsl #10
    11fc:	0b3a0803 	bleq	e83210 <__bss_end__+0xe78c60>
    1200:	13490b3b 	movtne	r0, #39739	; 0x9b3b
    1204:	00001702 	andeq	r1, r0, r2, lsl #14
    1208:	01828906 	orreq	r8, r2, r6, lsl #18
    120c:	31011101 	tstcc	r1, r1, lsl #2
    1210:	07000013 	smladeq	r0, r3, r0, r0
    1214:	0001828a 	andeq	r8, r1, sl, lsl #5
    1218:	42911802 	addsmi	r1, r1, #131072	; 0x20000
    121c:	08000018 	stmdaeq	r0, {r3, r4}
    1220:	193f002e 	ldmdbne	pc!, {r1, r2, r3, r5}	; <UNPREDICTABLE>
    1224:	0b3a0e03 	bleq	e84a38 <__bss_end__+0xe7a488>
    1228:	19270b3b 	stmdbne	r7!, {r0, r1, r3, r4, r5, r8, r9, fp}
    122c:	06120111 			; <UNDEFINED> instruction: 0x06120111
    1230:	42971840 	addsmi	r1, r7, #64, 16	; 0x400000
    1234:	09000019 	stmdbeq	r0, {r0, r3, r4}
    1238:	193f012e 	ldmdbne	pc!, {r1, r2, r3, r5, r8}	; <UNPREDICTABLE>
    123c:	0b3a0e03 	bleq	e84a50 <__bss_end__+0xe7a4a0>
    1240:	19270b3b 	stmdbne	r7!, {r0, r1, r3, r4, r5, r8, r9, fp}
    1244:	06120111 			; <UNDEFINED> instruction: 0x06120111
    1248:	42971840 	addsmi	r1, r7, #64, 16	; 0x400000
    124c:	00130119 	andseq	r0, r3, r9, lsl r1
    1250:	00050a00 	andeq	r0, r5, r0, lsl #20
    1254:	0b3a0803 	bleq	e83268 <__bss_end__+0xe78cb8>
    1258:	13490b3b 	movtne	r0, #39739	; 0x9b3b
    125c:	00001802 	andeq	r1, r0, r2, lsl #16
    1260:	2701150b 	strcs	r1, [r1, -fp, lsl #10]
    1264:	01134919 	tsteq	r3, r9, lsl r9
    1268:	0c000013 	stceq	0, cr0, [r0], {19}
    126c:	13490005 	movtne	r0, #36869	; 0x9005
    1270:	0f0d0000 	svceq	0x000d0000
    1274:	490b0b00 	stmdbmi	fp, {r8, r9, fp}
    1278:	0e000013 	mcreq	0, 0, r0, cr0, cr3, {0}
    127c:	0e030034 	mcreq	0, 0, r0, cr3, cr4, {1}
    1280:	0b3b0b3a 	bleq	ec3f70 <__bss_end__+0xeb99c0>
    1284:	193f1349 	ldmdbne	pc!, {r0, r3, r6, r8, r9, ip}	; <UNPREDICTABLE>
    1288:	00001802 	andeq	r1, r0, r2, lsl #16
    128c:	3f012e0f 	svccc	0x00012e0f
    1290:	3a0e0319 	bcc	381efc <__bss_end__+0x37794c>
    1294:	270b3b0b 	strcs	r3, [fp, -fp, lsl #22]
    1298:	00193c19 	andseq	r3, r9, r9, lsl ip
    129c:	11010000 	mrsne	r0, (UNDEF: 1)
    12a0:	130e2501 	movwne	r2, #58625	; 0xe501
    12a4:	1b0e030b 	blne	381ed8 <__bss_end__+0x377928>
    12a8:	1201110e 	andne	r1, r1, #-2147483645	; 0x80000003
    12ac:	00171006 	andseq	r1, r7, r6
    12b0:	00240200 	eoreq	r0, r4, r0, lsl #4
    12b4:	0b3e0b0b 	bleq	f83ee8 <__bss_end__+0xf79938>
    12b8:	00000e03 	andeq	r0, r0, r3, lsl #28
    12bc:	0b002403 	bleq	a2d0 <__bss_start__+0x120>
    12c0:	030b3e0b 	movweq	r3, #48651	; 0xbe0b
    12c4:	04000008 	streq	r0, [r0], #-8
    12c8:	0b0b000f 	bleq	2c130c <__bss_end__+0x2b6d5c>
    12cc:	00001349 	andeq	r1, r0, r9, asr #6
    12d0:	49002605 	stmdbmi	r0, {r0, r2, r9, sl, sp}
    12d4:	06000013 			; <UNDEFINED> instruction: 0x06000013
    12d8:	193f012e 	ldmdbne	pc!, {r1, r2, r3, r5, r8}	; <UNPREDICTABLE>
    12dc:	0b3a0e03 	bleq	e84af0 <__bss_end__+0xe7a540>
    12e0:	19270b3b 	stmdbne	r7!, {r0, r1, r3, r4, r5, r8, r9, fp}
    12e4:	01111349 	tsteq	r1, r9, asr #6
    12e8:	18400612 	stmdane	r0, {r1, r4, r9, sl}^
    12ec:	00194297 	mulseq	r9, r7, r2
    12f0:	00050700 	andeq	r0, r5, r0, lsl #14
    12f4:	0b3a0e03 	bleq	e84b08 <__bss_end__+0xe7a558>
    12f8:	13490b3b 	movtne	r0, #39739	; 0x9b3b
    12fc:	00001802 	andeq	r1, r0, r2, lsl #16
    1300:	03000508 	movweq	r0, #1288	; 0x508
    1304:	3b0b3a08 	blcc	2cfb2c <__bss_end__+0x2c557c>
    1308:	0213490b 	andseq	r4, r3, #180224	; 0x2c000
    130c:	09000017 	stmdbeq	r0, {r0, r1, r2, r4}
    1310:	08030034 	stmdaeq	r3, {r2, r4, r5}
    1314:	0b3b0b3a 	bleq	ec4004 <__bss_end__+0xeb9a54>
    1318:	17021349 	strne	r1, [r2, -r9, asr #6]
    131c:	01000000 	mrseq	r0, (UNDEF: 0)
    1320:	0e250111 	mcreq	1, 1, r0, cr5, cr1, {0}
    1324:	0e030b13 	vmoveq.32	d3[0], r0
    1328:	01110e1b 	tsteq	r1, fp, lsl lr
    132c:	17100612 			; <UNDEFINED> instruction: 0x17100612
    1330:	24020000 	strcs	r0, [r2], #-0
    1334:	3e0b0b00 	vmlacc.f64	d0, d11, d0
    1338:	0008030b 	andeq	r0, r8, fp, lsl #6
    133c:	00240300 	eoreq	r0, r4, r0, lsl #6
    1340:	0b3e0b0b 	bleq	f83f74 <__bss_end__+0xf799c4>
    1344:	00000e03 	andeq	r0, r0, r3, lsl #28
    1348:	49003504 	stmdbmi	r0, {r2, r8, sl, ip, sp}
    134c:	05000013 	streq	r0, [r0, #-19]
    1350:	0e030016 	mcreq	0, 0, r0, cr3, cr6, {0}
    1354:	0b3b0b3a 	bleq	ec4044 <__bss_end__+0xeb9a94>
    1358:	00001349 	andeq	r1, r0, r9, asr #6
    135c:	03001606 	movweq	r1, #1542	; 0x606
    1360:	3b0b3a0e 	blcc	2cfba0 <__bss_end__+0x2c55f0>
    1364:	00134905 	andseq	r4, r3, r5, lsl #18
    1368:	01170700 	tsteq	r7, r0, lsl #14
    136c:	0b3a0b0b 	bleq	e83fa0 <__bss_end__+0xe799f0>
    1370:	13010b3b 	movwne	r0, #6971	; 0x1b3b
    1374:	0d080000 	stceq	0, cr0, [r8, #-0]
    1378:	3a0e0300 	bcc	381f80 <__bss_end__+0x3779d0>
    137c:	490b3b0b 	stmdbmi	fp, {r0, r1, r3, r8, r9, fp, ip, sp}
    1380:	09000013 	stmdbeq	r0, {r0, r1, r4}
    1384:	13490101 	movtne	r0, #37121	; 0x9101
    1388:	00001301 	andeq	r1, r0, r1, lsl #6
    138c:	4900210a 	stmdbmi	r0, {r1, r3, r8, sp}
    1390:	000b2f13 	andeq	r2, fp, r3, lsl pc
    1394:	01130b00 	tsteq	r3, r0, lsl #22
    1398:	0b3a0b0b 	bleq	e83fcc <__bss_end__+0xe79a1c>
    139c:	13010b3b 	movwne	r0, #6971	; 0x1b3b
    13a0:	0d0c0000 	stceq	0, cr0, [ip, #-0]
    13a4:	3a0e0300 	bcc	381fac <__bss_end__+0x3779fc>
    13a8:	490b3b0b 	stmdbmi	fp, {r0, r1, r3, r8, r9, fp, ip, sp}
    13ac:	000b3813 	andeq	r3, fp, r3, lsl r8
    13b0:	000f0d00 	andeq	r0, pc, r0, lsl #26
    13b4:	00000b0b 	andeq	r0, r0, fp, lsl #22
    13b8:	0b000f0e 	bleq	4ff8 <_start-0x3008>
    13bc:	0013490b 	andseq	r4, r3, fp, lsl #18
    13c0:	00260f00 	eoreq	r0, r6, r0, lsl #30
    13c4:	00001349 	andeq	r1, r0, r9, asr #6
    13c8:	03011310 	movweq	r1, #4880	; 0x1310
    13cc:	3a0b0b0e 	bcc	2c400c <__bss_end__+0x2b9a5c>
    13d0:	010b3b0b 	tsteq	fp, fp, lsl #22
    13d4:	11000013 	tstne	r0, r3, lsl r0
    13d8:	0803000d 	stmdaeq	r3, {r0, r2, r3}
    13dc:	0b3b0b3a 	bleq	ec40cc <__bss_end__+0xeb9b1c>
    13e0:	0b381349 	bleq	e0610c <__bss_end__+0xdfbb5c>
    13e4:	13120000 	tstne	r2, #0
    13e8:	0b0e0301 	bleq	381ff4 <__bss_end__+0x377a44>
    13ec:	3b0b3a05 	blcc	2cfc08 <__bss_end__+0x2c5658>
    13f0:	0013010b 	andseq	r0, r3, fp, lsl #2
    13f4:	000d1300 	andeq	r1, sp, r0, lsl #6
    13f8:	0b3a0e03 	bleq	e84c0c <__bss_end__+0xe7a65c>
    13fc:	13490b3b 	movtne	r0, #39739	; 0x9b3b
    1400:	00000538 	andeq	r0, r0, r8, lsr r5
    1404:	27001514 	smladcs	r0, r4, r5, r1
    1408:	15000019 	strne	r0, [r0, #-25]
    140c:	19270115 	stmdbne	r7!, {r0, r2, r4, r8}
    1410:	13011349 	movwne	r1, #4937	; 0x1349
    1414:	05160000 	ldreq	r0, [r6, #-0]
    1418:	00134900 	andseq	r4, r3, r0, lsl #18
    141c:	01131700 	tsteq	r3, r0, lsl #14
    1420:	050b0e03 	streq	r0, [fp, #-3587]	; 0xe03
    1424:	053b0b3a 	ldreq	r0, [fp, #-2874]!	; 0xb3a
    1428:	00001301 	andeq	r1, r0, r1, lsl #6
    142c:	03000d18 	movweq	r0, #3352	; 0xd18
    1430:	3b0b3a0e 	blcc	2cfc70 <__bss_end__+0x2c56c0>
    1434:	38134905 	ldmdacc	r3, {r0, r2, r8, fp, lr}
    1438:	1900000b 	stmdbne	r0, {r0, r1, r3}
    143c:	0e03000d 	cdpeq	0, 0, cr0, cr3, cr13, {0}
    1440:	053b0b3a 	ldreq	r0, [fp, #-2874]!	; 0xb3a
    1444:	05381349 	ldreq	r1, [r8, #-841]!	; 0x349
    1448:	131a0000 	tstne	sl, #0
    144c:	0b0e0301 	bleq	382058 <__bss_end__+0x377aa8>
    1450:	3b0b3a0b 	blcc	2cfc84 <__bss_end__+0x2c56d4>
    1454:	00130105 	andseq	r0, r3, r5, lsl #2
    1458:	01131b00 	tsteq	r3, r0, lsl #22
    145c:	0b3a0b0b 	bleq	e84090 <__bss_end__+0xe79ae0>
    1460:	1301053b 	movwne	r0, #5435	; 0x153b
    1464:	171c0000 	ldrne	r0, [ip, -r0]
    1468:	3a0b0b01 	bcc	2c4074 <__bss_end__+0x2b9ac4>
    146c:	01053b0b 	tsteq	r5, fp, lsl #22
    1470:	1d000013 	stcne	0, cr0, [r0, #-76]	; 0xffffffb4
    1474:	0e03000d 	cdpeq	0, 0, cr0, cr3, cr13, {0}
    1478:	053b0b3a 	ldreq	r0, [fp, #-2874]!	; 0xb3a
    147c:	00001349 	andeq	r1, r0, r9, asr #6
    1480:	2701151e 	smladcs	r1, lr, r5, r1
    1484:	00130119 	andseq	r0, r3, r9, lsl r1
    1488:	00341f00 	eorseq	r1, r4, r0, lsl #30
    148c:	0b3a0e03 	bleq	e84ca0 <__bss_end__+0xe7a6f0>
    1490:	1349053b 	movtne	r0, #38203	; 0x953b
    1494:	193c193f 	ldmdbne	ip!, {r0, r1, r2, r3, r4, r5, r8, fp, ip}
    1498:	34200000 	strtcc	r0, [r0], #-0
    149c:	3a0e0300 	bcc	3820a4 <__bss_end__+0x377af4>
    14a0:	490b3b0b 	stmdbmi	fp, {r0, r1, r3, r8, r9, fp, ip, sp}
    14a4:	3c193f13 	ldccc	15, cr3, [r9], {19}
    14a8:	21000019 	tstcs	r0, r9, lsl r0
    14ac:	0b0b0104 	bleq	2c18c4 <__bss_end__+0x2b7314>
    14b0:	0b3a1349 	bleq	e861dc <__bss_end__+0xe7bc2c>
    14b4:	13010b3b 	movwne	r0, #6971	; 0x1b3b
    14b8:	28220000 	stmdacs	r2!, {}	; <UNPREDICTABLE>
    14bc:	1c0e0300 	stcne	3, cr0, [lr], {-0}
    14c0:	2300000b 	movwcs	r0, #11
    14c4:	0e030034 	mcreq	0, 0, r0, cr3, cr4, {1}
    14c8:	0b3b0b3a 	bleq	ec41b8 <__bss_end__+0xeb9c08>
    14cc:	061c1349 	ldreq	r1, [ip], -r9, asr #6
    14d0:	2e240000 	cdpcs	0, 2, cr0, cr4, cr0, {0}
    14d4:	03193f01 	tsteq	r9, #1, 30
    14d8:	3b0b3a0e 	blcc	2cfd18 <__bss_end__+0x2c5768>
    14dc:	4919270b 	ldmdbmi	r9, {r0, r1, r3, r8, r9, sl, sp}
    14e0:	12011113 	andne	r1, r1, #-1073741820	; 0xc0000004
    14e4:	97184006 	ldrls	r4, [r8, -r6]
    14e8:	13011942 	movwne	r1, #6466	; 0x1942
    14ec:	89250000 	stmdbhi	r5!, {}	; <UNPREDICTABLE>
    14f0:	11000182 	smlabbne	r0, r2, r1, r0
    14f4:	00133101 	andseq	r3, r3, r1, lsl #2
    14f8:	012e2600 	teqeq	lr, r0, lsl #12
    14fc:	0e03193f 	mcreq	9, 0, r1, cr3, cr15, {1}
    1500:	0b3b0b3a 	bleq	ec41f0 <__bss_end__+0xeb9c40>
    1504:	01111927 	tsteq	r1, r7, lsr #18
    1508:	18400612 	stmdane	r0, {r1, r4, r9, sl}^
    150c:	01194297 			; <UNDEFINED> instruction: 0x01194297
    1510:	27000013 	smladcs	r0, r3, r0, r0
    1514:	08030005 	stmdaeq	r3, {r0, r2}
    1518:	0b3b0b3a 	bleq	ec4208 <__bss_end__+0xeb9c58>
    151c:	17021349 	strne	r1, [r2, -r9, asr #6]
    1520:	89280000 	stmdbhi	r8!, {}	; <UNPREDICTABLE>
    1524:	11010182 	smlabbne	r1, r2, r1, r0
    1528:	01133101 	tsteq	r3, r1, lsl #2
    152c:	29000013 	stmdbcs	r0, {r0, r1, r4}
    1530:	0001828a 	andeq	r8, r1, sl, lsl #5
    1534:	42911802 	addsmi	r1, r1, #131072	; 0x20000
    1538:	2a000018 	bcs	15a0 <_start-0x6a60>
    153c:	08030034 	stmdaeq	r3, {r2, r4, r5}
    1540:	0b3b0b3a 	bleq	ec4230 <__bss_end__+0xeb9c80>
    1544:	18021349 	stmdane	r2, {r0, r3, r6, r8, r9, ip}
    1548:	892b0000 	stmdbhi	fp!, {}	; <UNPREDICTABLE>
    154c:	11010182 	smlabbne	r1, r2, r1, r0
    1550:	00133101 	andseq	r3, r3, r1, lsl #2
    1554:	012e2c00 	teqeq	lr, r0, lsl #24
    1558:	0b3a0e03 	bleq	e84d6c <__bss_end__+0xe7a7bc>
    155c:	19270b3b 	stmdbne	r7!, {r0, r1, r3, r4, r5, r8, r9, fp}
    1560:	06120111 			; <UNDEFINED> instruction: 0x06120111
    1564:	42971840 	addsmi	r1, r7, #64, 16	; 0x400000
    1568:	00130119 	andseq	r0, r3, r9, lsl r1
    156c:	00052d00 	andeq	r2, r5, r0, lsl #26
    1570:	0b3a0e03 	bleq	e84d84 <__bss_end__+0xe7a7d4>
    1574:	13490b3b 	movtne	r0, #39739	; 0x9b3b
    1578:	00001702 	andeq	r1, r0, r2, lsl #14
    157c:	0000352e 	andeq	r3, r0, lr, lsr #10
    1580:	002e2f00 	eoreq	r2, lr, r0, lsl #30
    1584:	193c193f 	ldmdbne	ip!, {r0, r1, r2, r3, r4, r5, r8, fp, ip}
    1588:	0e030e6e 	cdpeq	14, 0, cr0, cr3, cr14, {3}
    158c:	0b3b0b3a 	bleq	ec427c <__bss_end__+0xeb9ccc>
    1590:	01000000 	mrseq	r0, (UNDEF: 0)
    1594:	0e250111 	mcreq	1, 1, r0, cr5, cr1, {0}
    1598:	0e030b13 	vmoveq.32	d3[0], r0
    159c:	01110e1b 	tsteq	r1, fp, lsl lr
    15a0:	17100612 			; <UNDEFINED> instruction: 0x17100612
    15a4:	24020000 	strcs	r0, [r2], #-0
    15a8:	3e0b0b00 	vmlacc.f64	d0, d11, d0
    15ac:	0008030b 	andeq	r0, r8, fp, lsl #6
    15b0:	00240300 	eoreq	r0, r4, r0, lsl #6
    15b4:	0b3e0b0b 	bleq	f841e8 <__bss_end__+0xf79c38>
    15b8:	00000e03 	andeq	r0, r0, r3, lsl #28
    15bc:	49002604 	stmdbmi	r0, {r2, r9, sl, sp}
    15c0:	05000013 	streq	r0, [r0, #-19]
    15c4:	0e030016 	mcreq	0, 0, r0, cr3, cr6, {0}
    15c8:	0b3b0b3a 	bleq	ec42b8 <__bss_end__+0xeb9d08>
    15cc:	00001349 	andeq	r1, r0, r9, asr #6
    15d0:	03001606 	movweq	r1, #1542	; 0x606
    15d4:	3b0b3a0e 	blcc	2cfe14 <__bss_end__+0x2c5864>
    15d8:	00134905 	andseq	r4, r3, r5, lsl #18
    15dc:	01170700 	tsteq	r7, r0, lsl #14
    15e0:	0b3a0b0b 	bleq	e84214 <__bss_end__+0xe79c64>
    15e4:	13010b3b 	movwne	r0, #6971	; 0x1b3b
    15e8:	0d080000 	stceq	0, cr0, [r8, #-0]
    15ec:	3a0e0300 	bcc	3821f4 <__bss_end__+0x377c44>
    15f0:	490b3b0b 	stmdbmi	fp, {r0, r1, r3, r8, r9, fp, ip, sp}
    15f4:	09000013 	stmdbeq	r0, {r0, r1, r4}
    15f8:	13490101 	movtne	r0, #37121	; 0x9101
    15fc:	00001301 	andeq	r1, r0, r1, lsl #6
    1600:	4900210a 	stmdbmi	r0, {r1, r3, r8, sp}
    1604:	000b2f13 	andeq	r2, fp, r3, lsl pc
    1608:	01130b00 	tsteq	r3, r0, lsl #22
    160c:	0b3a0b0b 	bleq	e84240 <__bss_end__+0xe79c90>
    1610:	13010b3b 	movwne	r0, #6971	; 0x1b3b
    1614:	0d0c0000 	stceq	0, cr0, [ip, #-0]
    1618:	3a0e0300 	bcc	382220 <__bss_end__+0x377c70>
    161c:	490b3b0b 	stmdbmi	fp, {r0, r1, r3, r8, r9, fp, ip, sp}
    1620:	000b3813 	andeq	r3, fp, r3, lsl r8
    1624:	000f0d00 	andeq	r0, pc, r0, lsl #26
    1628:	00000b0b 	andeq	r0, r0, fp, lsl #22
    162c:	0b000f0e 	bleq	526c <_start-0x2d94>
    1630:	0013490b 	andseq	r4, r3, fp, lsl #18
    1634:	01130f00 	tsteq	r3, r0, lsl #30
    1638:	0b0b0e03 	bleq	2c4e4c <__bss_end__+0x2ba89c>
    163c:	0b3b0b3a 	bleq	ec432c <__bss_end__+0xeb9d7c>
    1640:	00001301 	andeq	r1, r0, r1, lsl #6
    1644:	03000d10 	movweq	r0, #3344	; 0xd10
    1648:	3b0b3a08 	blcc	2cfe70 <__bss_end__+0x2c58c0>
    164c:	3813490b 	ldmdacc	r3, {r0, r1, r3, r8, fp, lr}
    1650:	1100000b 	tstne	r0, fp
    1654:	0e030113 	mcreq	1, 0, r0, cr3, cr3, {0}
    1658:	0b3a050b 	bleq	e82a8c <__bss_end__+0xe784dc>
    165c:	13010b3b 	movwne	r0, #6971	; 0x1b3b
    1660:	0d120000 	ldceq	0, cr0, [r2, #-0]
    1664:	3a0e0300 	bcc	38226c <__bss_end__+0x377cbc>
    1668:	490b3b0b 	stmdbmi	fp, {r0, r1, r3, r8, r9, fp, ip, sp}
    166c:	00053813 	andeq	r3, r5, r3, lsl r8
    1670:	00151300 	andseq	r1, r5, r0, lsl #6
    1674:	00001927 	andeq	r1, r0, r7, lsr #18
    1678:	27011514 	smladcs	r1, r4, r5, r1
    167c:	01134919 	tsteq	r3, r9, lsl r9
    1680:	15000013 	strne	r0, [r0, #-19]
    1684:	13490005 	movtne	r0, #36869	; 0x9005
    1688:	13160000 	tstne	r6, #0
    168c:	0b0e0301 	bleq	382298 <__bss_end__+0x377ce8>
    1690:	3b0b3a05 	blcc	2cfeac <__bss_end__+0x2c58fc>
    1694:	00130105 	andseq	r0, r3, r5, lsl #2
    1698:	000d1700 	andeq	r1, sp, r0, lsl #14
    169c:	0b3a0e03 	bleq	e84eb0 <__bss_end__+0xe7a900>
    16a0:	1349053b 	movtne	r0, #38203	; 0x953b
    16a4:	00000b38 	andeq	r0, r0, r8, lsr fp
    16a8:	03000d18 	movweq	r0, #3352	; 0xd18
    16ac:	3b0b3a0e 	blcc	2cfeec <__bss_end__+0x2c593c>
    16b0:	38134905 	ldmdacc	r3, {r0, r2, r8, fp, lr}
    16b4:	19000005 	stmdbne	r0, {r0, r2}
    16b8:	0e030113 	mcreq	1, 0, r0, cr3, cr3, {0}
    16bc:	0b3a0b0b 	bleq	e842f0 <__bss_end__+0xe79d40>
    16c0:	1301053b 	movwne	r0, #5435	; 0x153b
    16c4:	131a0000 	tstne	sl, #0
    16c8:	3a0b0b01 	bcc	2c42d4 <__bss_end__+0x2b9d24>
    16cc:	01053b0b 	tsteq	r5, fp, lsl #22
    16d0:	1b000013 	blne	1724 <_start-0x68dc>
    16d4:	0b0b0117 	bleq	2c1b38 <__bss_end__+0x2b7588>
    16d8:	053b0b3a 	ldreq	r0, [fp, #-2874]!	; 0xb3a
    16dc:	00001301 	andeq	r1, r0, r1, lsl #6
    16e0:	03000d1c 	movweq	r0, #3356	; 0xd1c
    16e4:	3b0b3a0e 	blcc	2cff24 <__bss_end__+0x2c5974>
    16e8:	00134905 	andseq	r4, r3, r5, lsl #18
    16ec:	01151d00 	tsteq	r5, r0, lsl #26
    16f0:	13011927 	movwne	r1, #6439	; 0x1927
    16f4:	341e0000 	ldrcc	r0, [lr], #-0
    16f8:	3a0e0300 	bcc	382300 <__bss_end__+0x377d50>
    16fc:	49053b0b 	stmdbmi	r5, {r0, r1, r3, r8, r9, fp, ip, sp}
    1700:	3c193f13 	ldccc	15, cr3, [r9], {19}
    1704:	1f000019 	svcne	0x00000019
    1708:	0e030034 	mcreq	0, 0, r0, cr3, cr4, {1}
    170c:	0b3b0b3a 	bleq	ec43fc <__bss_end__+0xeb9e4c>
    1710:	193f1349 	ldmdbne	pc!, {r0, r3, r6, r8, r9, ip}	; <UNPREDICTABLE>
    1714:	0000193c 	andeq	r1, r0, ip, lsr r9
    1718:	0b010420 	bleq	427a0 <__bss_end__+0x381f0>
    171c:	3a13490b 	bcc	4d3b50 <__bss_end__+0x4c95a0>
    1720:	010b3b0b 	tsteq	fp, fp, lsl #22
    1724:	21000013 	tstcs	r0, r3, lsl r0
    1728:	0e030028 	cdpeq	0, 0, cr0, cr3, cr8, {1}
    172c:	00000b1c 	andeq	r0, r0, ip, lsl fp
    1730:	03003422 	movweq	r3, #1058	; 0x422
    1734:	3b0b3a0e 	blcc	2cff74 <__bss_end__+0x2c59c4>
    1738:	1c13490b 	ldcne	9, cr4, [r3], {11}
    173c:	23000006 	movwcs	r0, #6
    1740:	193f012e 	ldmdbne	pc!, {r1, r2, r3, r5, r8}	; <UNPREDICTABLE>
    1744:	0b3a0e03 	bleq	e84f58 <__bss_end__+0xe7a9a8>
    1748:	19270b3b 	stmdbne	r7!, {r0, r1, r3, r4, r5, r8, r9, fp}
    174c:	01111349 	tsteq	r1, r9, asr #6
    1750:	18400612 	stmdane	r0, {r1, r4, r9, sl}^
    1754:	01194297 			; <UNDEFINED> instruction: 0x01194297
    1758:	24000013 	strcs	r0, [r0], #-19
    175c:	08030005 	stmdaeq	r3, {r0, r2}
    1760:	0b3b0b3a 	bleq	ec4450 <__bss_end__+0xeb9ea0>
    1764:	17021349 	strne	r1, [r2, -r9, asr #6]
    1768:	34250000 	strtcc	r0, [r5], #-0
    176c:	3a0e0300 	bcc	382374 <__bss_end__+0x377dc4>
    1770:	490b3b0b 	stmdbmi	fp, {r0, r1, r3, r8, r9, fp, ip, sp}
    1774:	00170213 	andseq	r0, r7, r3, lsl r2
    1778:	00342600 	eorseq	r2, r4, r0, lsl #12
    177c:	0b3a0803 	bleq	e83790 <__bss_end__+0xe791e0>
    1780:	13490b3b 	movtne	r0, #39739	; 0x9b3b
    1784:	00001702 	andeq	r1, r0, r2, lsl #14
    1788:	01828927 	orreq	r8, r2, r7, lsr #18
    178c:	31011101 	tstcc	r1, r1, lsl #2
    1790:	28000013 	stmdacs	r0, {r0, r1, r4}
    1794:	0001828a 	andeq	r8, r1, sl, lsl #5
    1798:	42911802 	addsmi	r1, r1, #131072	; 0x20000
    179c:	29000018 	stmdbcs	r0, {r3, r4}
    17a0:	193f012e 	ldmdbne	pc!, {r1, r2, r3, r5, r8}	; <UNPREDICTABLE>
    17a4:	0b3a0e03 	bleq	e84fb8 <__bss_end__+0xe7aa08>
    17a8:	19270b3b 	stmdbne	r7!, {r0, r1, r3, r4, r5, r8, r9, fp}
    17ac:	06120111 			; <UNDEFINED> instruction: 0x06120111
    17b0:	42971840 	addsmi	r1, r7, #64, 16	; 0x400000
    17b4:	00130119 	andseq	r0, r3, r9, lsl r1
    17b8:	82892a00 	addhi	r2, r9, #0, 20
    17bc:	01110101 	tsteq	r1, r1, lsl #2
    17c0:	13011331 	movwne	r1, #4913	; 0x1331
    17c4:	892b0000 	stmdbhi	fp!, {}	; <UNPREDICTABLE>
    17c8:	11000182 	smlabbne	r0, r2, r1, r0
    17cc:	00133101 	andseq	r3, r3, r1, lsl #2
    17d0:	00052c00 	andeq	r2, r5, r0, lsl #24
    17d4:	0b3a0e03 	bleq	e84fe8 <__bss_end__+0xe7aa38>
    17d8:	13490b3b 	movtne	r0, #39739	; 0x9b3b
    17dc:	00001702 	andeq	r1, r0, r2, lsl #14
    17e0:	0300342d 	movweq	r3, #1069	; 0x42d
    17e4:	3b0b3a08 	blcc	2d000c <__bss_end__+0x2c5a5c>
    17e8:	0213490b 	andseq	r4, r3, #180224	; 0x2c000
    17ec:	2e000018 	mcrcs	0, 0, r0, cr0, cr8, {0}
    17f0:	193f002e 	ldmdbne	pc!, {r1, r2, r3, r5}	; <UNPREDICTABLE>
    17f4:	0e6e193c 	mcreq	9, 3, r1, cr14, cr12, {1}
    17f8:	0b3a0e03 	bleq	e8500c <__bss_end__+0xe7aa5c>
    17fc:	00000b3b 	andeq	r0, r0, fp, lsr fp
	...

Disassembly of section .debug_loc:

00000000 <.debug_loc>:
       0:	00000030 	andeq	r0, r0, r0, lsr r0
       4:	00000040 	andeq	r0, r0, r0, asr #32
       8:	9f300002 	svcls	0x00300002
       c:	00000040 	andeq	r0, r0, r0, asr #32
      10:	00000098 	muleq	r0, r8, r0
      14:	00560001 	subseq	r0, r6, r1
	...
      20:	3f000000 	svccc	0x00000000
      24:	08000000 	stmdaeq	r0, {}	; <UNPREDICTABLE>
      28:	93409000 	movtls	r9, #0
      2c:	93419004 	movtls	r9, #4100	; 0x1004
      30:	00003f04 	andeq	r3, r0, r4, lsl #30
      34:	00004400 	andeq	r4, r0, r0, lsl #8
      38:	f3000600 	vmax.u8	d0, d0, d0
      3c:	2540f503 	strbcs	pc, [r0, #-1283]	; 0x503	; <UNPREDICTABLE>
      40:	0000449f 	muleq	r0, pc, r4	; <UNPREDICTABLE>
      44:	00005000 	andeq	r5, r0, r0
      48:	90000800 	andls	r0, r0, r0, lsl #16
      4c:	90049340 	andls	r9, r4, r0, asr #6
      50:	50049341 	andpl	r9, r4, r1, asr #6
      54:	54000000 	strpl	r0, [r0], #-0
      58:	06000000 	streq	r0, [r0], -r0
      5c:	f503f300 			; <UNDEFINED> instruction: 0xf503f300
      60:	549f2540 	ldrpl	r2, [pc], #1344	; 68 <_start-0x7f98>
      64:	5b000000 	blpl	6c <_start-0x7f94>
      68:	08000000 	stmdaeq	r0, {}	; <UNPREDICTABLE>
      6c:	93409000 	movtls	r9, #0
      70:	93419004 	movtls	r9, #4100	; 0x1004
      74:	00005b04 	andeq	r5, r0, r4, lsl #22
      78:	0000c800 	andeq	ip, r0, r0, lsl #16
      7c:	f3000600 	vmax.u8	d0, d0, d0
      80:	2540f503 	strbcs	pc, [r0, #-1283]	; 0x503	; <UNPREDICTABLE>
      84:	0000c89f 	muleq	r0, pc, r8	; <UNPREDICTABLE>
      88:	0000cc00 	andeq	ip, r0, r0, lsl #24
      8c:	90000800 	andls	r0, r0, r0, lsl #16
      90:	90049340 	andls	r9, r4, r0, asr #6
      94:	cc049341 	stcgt	3, cr9, [r4], {65}	; 0x41
      98:	f4000000 	vst4.8	{d0-d3}, [r0], r0
      9c:	06000000 	streq	r0, [r0], -r0
      a0:	f503f300 			; <UNDEFINED> instruction: 0xf503f300
      a4:	009f2540 	addseq	r2, pc, r0, asr #10
      a8:	00000000 	andeq	r0, r0, r0
      ac:	5c000000 	stcpl	0, cr0, [r0], {-0}
      b0:	60000000 	andvs	r0, r0, r0
      b4:	01000000 	mrseq	r0, (UNDEF: 0)
      b8:	00005000 	andeq	r5, r0, r0
      bc:	00000000 	andeq	r0, r0, r0
      c0:	000c0000 	andeq	r0, ip, r0
      c4:	00300000 	eorseq	r0, r0, r0
      c8:	00010000 	andeq	r0, r1, r0
      cc:	00004453 	andeq	r4, r0, r3, asr r4
      d0:	00005b00 	andeq	r5, r0, r0, lsl #22
      d4:	53000100 	movwpl	r0, #256	; 0x100
	...
      e0:	0000000c 	andeq	r0, r0, ip
      e4:	00000014 	andeq	r0, r0, r4, lsl r0
      e8:	93520006 	cmpls	r2, #6
      ec:	04935304 	ldreq	r5, [r3], #772	; 0x304
	...
      fc:	0000005c 	andeq	r0, r0, ip, asr r0
     100:	40900008 	addsmi	r0, r0, r8
     104:	41900493 			; <UNDEFINED> instruction: 0x41900493
     108:	005c0493 			; <UNDEFINED> instruction: 0x005c0493
     10c:	00b00000 	adcseq	r0, r0, r0
     110:	00060000 	andeq	r0, r6, r0
     114:	40f503f3 	ldrshtmi	r0, [r5], #51	; 0x33
     118:	00009f25 	andeq	r9, r0, r5, lsr #30
	...
     124:	00580000 	subseq	r0, r8, r0
     128:	00080000 	andeq	r0, r8, r0
     12c:	04934290 	ldreq	r4, [r3], #656	; 0x290
     130:	04934390 	ldreq	r4, [r3], #912	; 0x390
     134:	00000058 	andeq	r0, r0, r8, asr r0
     138:	000000b0 	strheq	r0, [r0], -r0	; <UNPREDICTABLE>
     13c:	03f30006 	mvnseq	r0, #6
     140:	9f2542f5 	svcls	0x002542f5
	...
     14c:	00000044 	andeq	r0, r0, r4, asr #32
     150:	00000054 	andeq	r0, r0, r4, asr r0
     154:	4a900008 	bmi	fe40017c <__bss_end__+0xfe3f5bcc>
     158:	4b900493 	blmi	fe4013ac <__bss_end__+0xfe3f6dfc>
     15c:	00540493 			; <UNDEFINED> instruction: 0x00540493
     160:	00b00000 	adcseq	r0, r0, r0
     164:	00100000 	andseq	r0, r0, r0
     168:	f4254ef5 			; <UNDEFINED> instruction: 0xf4254ef5
     16c:	00000825 	andeq	r0, r0, r5, lsr #16
     170:	00000000 	andeq	r0, r0, r0
     174:	9f1e3fe0 	svcls	0x001e3fe0
	...
     180:	00000008 	andeq	r0, r0, r8
     184:	00000020 	andeq	r0, r0, r0, lsr #32
     188:	4c900008 	ldcmi	0, cr0, [r0], {8}
     18c:	4d900493 	cfldrsmi	mvf0, [r0, #588]	; 0x24c
     190:	00200493 	mlaeq	r0, r3, r4, r0
     194:	004c0000 	subeq	r0, ip, r0
     198:	00080000 	andeq	r0, r8, r0
     19c:	f5254ef5 			; <UNDEFINED> instruction: 0xf5254ef5
     1a0:	9f1e254e 	svcls	0x001e254e
     1a4:	0000004c 	andeq	r0, r0, ip, asr #32
     1a8:	000000b0 	strheq	r0, [r0], -r0	; <UNPREDICTABLE>
     1ac:	4c900008 	ldcmi	0, cr0, [r0], {8}
     1b0:	4d900493 	cfldrsmi	mvf0, [r0, #588]	; 0x24c
     1b4:	00000493 	muleq	r0, r3, r4
	...
     1c0:	004c0000 	subeq	r0, ip, r0
     1c4:	00080000 	andeq	r0, r8, r0
     1c8:	04934090 	ldreq	r4, [r3], #144	; 0x90
     1cc:	04934190 	ldreq	r4, [r3], #400	; 0x190
     1d0:	0000004c 	andeq	r0, r0, ip, asr #32
     1d4:	00000050 	andeq	r0, r0, r0, asr r0
     1d8:	03f30006 	mvnseq	r0, #6
     1dc:	9f2540f5 	svcls	0x002540f5
     1e0:	00000050 	andeq	r0, r0, r0, asr r0
     1e4:	0000006c 	andeq	r0, r0, ip, rrx
     1e8:	40900008 	addsmi	r0, r0, r8
     1ec:	41900493 			; <UNDEFINED> instruction: 0x41900493
     1f0:	006c0493 	mlseq	ip, r3, r4, r0
     1f4:	00a80000 	adceq	r0, r8, r0
     1f8:	00060000 	andeq	r0, r6, r0
     1fc:	40f503f3 	ldrshtmi	r0, [r5], #51	; 0x33
     200:	00009f25 	andeq	r9, r0, r5, lsr #30
	...
     20c:	00600000 	rsbeq	r0, r0, r0
     210:	00080000 	andeq	r0, r8, r0
     214:	04934290 	ldreq	r4, [r3], #656	; 0x290
     218:	04934390 	ldreq	r4, [r3], #912	; 0x390
     21c:	00000060 	andeq	r0, r0, r0, rrx
     220:	000000a8 	andeq	r0, r0, r8, lsr #1
     224:	03f30006 	mvnseq	r0, #6
     228:	9f2542f5 	svcls	0x002542f5
	...
     234:	00000004 	andeq	r0, r0, r4
     238:	00000064 	andeq	r0, r0, r4, rrx
     23c:	4e900008 	cdpmi	0, 9, cr0, cr0, cr8, {0}
     240:	4f900493 	svcmi	0x00900493
     244:	00640493 	mlseq	r4, r3, r4, r0
     248:	006c0000 	rsbeq	r0, ip, r0
     24c:	00080000 	andeq	r0, r8, r0
     250:	f52540f5 			; <UNDEFINED> instruction: 0xf52540f5
     254:	9f1e2540 	svcls	0x001e2540
     258:	0000006c 	andeq	r0, r0, ip, rrx
     25c:	000000a8 	andeq	r0, r0, r8, lsr #1
     260:	03f3000c 	mvnseq	r0, #12
     264:	f32540f5 	vqadd.u32	q2, <illegal reg q10.5>, <illegal reg q10.5>
     268:	2540f503 	strbcs	pc, [r0, #-1283]	; 0x503	; <UNPREDICTABLE>
     26c:	00009f1e 	andeq	r9, r0, lr, lsl pc
     270:	00000000 	andeq	r0, r0, r0
     274:	00300000 	eorseq	r0, r0, r0
     278:	00540000 	subseq	r0, r4, r0
     27c:	00080000 	andeq	r0, r8, r0
     280:	04934a90 	ldreq	r4, [r3], #2704	; 0xa90
     284:	04934b90 	ldreq	r4, [r3], #2960	; 0xb90
     288:	00000054 	andeq	r0, r0, r4, asr r0
     28c:	00000058 	andeq	r0, r0, r8, asr r0
     290:	4ef50044 	cdpmi	0, 15, cr0, cr5, cr4, {2}
     294:	2546f525 	strbcs	pc, [r6, #-1317]	; 0x525	; <UNPREDICTABLE>
     298:	0825f41e 	stmdaeq	r5!, {r1, r2, r3, r4, sl, ip, sp, lr, pc}
     29c:	8a2b9ceb 	bhi	ae7650 <__bss_end__+0xadd0a0>
     2a0:	3e5ae5e6 	cdpcc	5, 5, cr14, cr10, cr6, {7}
     2a4:	2548f51c 	strbcs	pc, [r8, #-1308]	; 0x51c	; <UNPREDICTABLE>
     2a8:	254ef51e 	strbcs	pc, [lr, #-1310]	; 0x51e	; <UNPREDICTABLE>
     2ac:	7d0825f4 	cfstr32vc	mvfx2, [r8, #-976]	; 0xfffffc30
     2b0:	e357b1fe 	cmp	r7, #-2147483585	; 0x8000003f
     2b4:	1e3ec71d 	mrcne	7, 1, ip, cr14, cr13, {0}
     2b8:	d50825f4 	strle	r2, [r8, #-1524]	; 0x5f4
     2bc:	a019c161 	andsge	ip, r9, r1, ror #2
     2c0:	1c3f2a01 	ldcne	10, cr2, [pc], #-4	; 2c4 <_start-0x7d3c>
     2c4:	1e254ef5 	mcrne	14, 1, r4, cr5, cr5, {7}
     2c8:	a60825f4 			; <UNDEFINED> instruction: 0xa60825f4
     2cc:	111110f8 	ldrshne	r1, [r1, -r8]
     2d0:	223f8111 	eorscs	r8, pc, #1073741828	; 0x40000004
     2d4:	00589f22 	subseq	r9, r8, r2, lsr #30
     2d8:	00640000 	rsbeq	r0, r4, r0
     2dc:	004c0000 	subeq	r0, ip, r0
     2e0:	f5254ef5 			; <UNDEFINED> instruction: 0xf5254ef5
     2e4:	f51e254e 			; <UNDEFINED> instruction: 0xf51e254e
     2e8:	f51e254e 			; <UNDEFINED> instruction: 0xf51e254e
     2ec:	46f5254e 	ldrbtmi	r2, [r5], lr, asr #10
     2f0:	25f41e25 	ldrbcs	r1, [r4, #3621]!	; 0xe25
     2f4:	2b9ceb08 	blcs	fe73af1c <__bss_end__+0xfe73096c>
     2f8:	5ae5e68a 	bpl	ff979d28 <__bss_end__+0xff96f778>
     2fc:	f51e1c3e 			; <UNDEFINED> instruction: 0xf51e1c3e
     300:	25f4254e 	ldrbcs	r2, [r4, #1358]!	; 0x54e
     304:	b1fe7d08 	mvnslt	r7, r8, lsl #26
     308:	c71de357 			; <UNDEFINED> instruction: 0xc71de357
     30c:	25f41e3e 	ldrbcs	r1, [r4, #3646]!	; 0xe3e
     310:	c161d508 	cmngt	r1, r8, lsl #10
     314:	2a01a019 	bcs	68380 <__bss_end__+0x5ddd0>
     318:	4ef51c3f 	mrcmi	12, 7, r1, cr5, cr15, {1}
     31c:	25f41e25 	ldrbcs	r1, [r4, #3621]!	; 0xe25
     320:	10f8a608 	rscsne	sl, r8, r8, lsl #12
     324:	81111111 	tsthi	r1, r1, lsl r1
     328:	9f22223f 	svcls	0x0022223f
     32c:	00000064 	andeq	r0, r0, r4, rrx
     330:	0000006c 	andeq	r0, r0, ip, rrx
     334:	40f50064 	rscsmi	r0, r5, r4, rrx
     338:	2540f525 	strbcs	pc, [r0, #-1317]	; 0x525	; <UNPREDICTABLE>
     33c:	2540f51e 	strbcs	pc, [r0, #-1310]	; 0x51e	; <UNPREDICTABLE>
     340:	1e2540f5 	mcrne	0, 1, r4, cr5, cr5, {7}
     344:	f52540f5 			; <UNDEFINED> instruction: 0xf52540f5
     348:	1e1e2540 	cfmac32ne	mvfx2, mvfx14, mvfx0
     34c:	2540f51e 	strbcs	pc, [r0, #-1310]	; 0x51e	; <UNPREDICTABLE>
     350:	1e2540f5 	mcrne	0, 1, r4, cr5, cr5, {7}
     354:	1e2546f5 	mcrne	6, 1, r4, cr5, cr5, {7}
     358:	eb0825f4 	bl	209b30 <__bss_end__+0x1ff580>
     35c:	e68a2b9c 	pkhbt	r2, sl, ip, lsl #23
     360:	1c3e5ae5 	ldcne	10, cr5, [lr], #-916	; 0xfffffc6c
     364:	2540f51e 	strbcs	pc, [r0, #-1310]	; 0x51e	; <UNPREDICTABLE>
     368:	1e2540f5 	mcrne	0, 1, r4, cr5, cr5, {7}
     36c:	f52540f5 			; <UNDEFINED> instruction: 0xf52540f5
     370:	f41e2540 			; <UNDEFINED> instruction: 0xf41e2540
     374:	fe7d0825 	cdp2	8, 7, cr0, cr13, cr5, {1}
     378:	1de357b1 	stclne	7, cr5, [r3, #708]!	; 0x2c4
     37c:	f41e3ec7 			; <UNDEFINED> instruction: 0xf41e3ec7
     380:	61d50825 	bicsvs	r0, r5, r5, lsr #16
     384:	01a019c1 	asreq	r1, r1, #19
     388:	1e1c3f2a 	cdpne	15, 1, cr3, cr12, cr10, {1}
     38c:	a60825f4 			; <UNDEFINED> instruction: 0xa60825f4
     390:	111110f8 	ldrshne	r1, [r1, -r8]
     394:	223f8111 	eorscs	r8, pc, #1073741828	; 0x40000004
     398:	006c9f22 	rsbeq	r9, ip, r2, lsr #30
     39c:	00a80000 	adceq	r0, r8, r0
     3a0:	007c0000 	rsbseq	r0, ip, r0
     3a4:	40f503f3 	ldrshtmi	r0, [r5], #51	; 0x33
     3a8:	f503f325 			; <UNDEFINED> instruction: 0xf503f325
     3ac:	f31e2540 	vrshl.u16	q1, q0, q7
     3b0:	2540f503 	strbcs	pc, [r0, #-1283]	; 0x503	; <UNPREDICTABLE>
     3b4:	40f503f3 	ldrshtmi	r0, [r5], #51	; 0x33
     3b8:	03f31e25 	mvnseq	r1, #592	; 0x250
     3bc:	f32540f5 	vqadd.u32	q2, <illegal reg q10.5>, <illegal reg q10.5>
     3c0:	2540f503 	strbcs	pc, [r0, #-1283]	; 0x503	; <UNPREDICTABLE>
     3c4:	f31e1e1e 	vacge.f<illegal width 64>	d1, d14, d14
     3c8:	2540f503 	strbcs	pc, [r0, #-1283]	; 0x503	; <UNPREDICTABLE>
     3cc:	40f503f3 	ldrshtmi	r0, [r5], #51	; 0x33
     3d0:	46f51e25 	ldrbtmi	r1, [r5], r5, lsr #28
     3d4:	25f41e25 	ldrbcs	r1, [r4, #3621]!	; 0xe25
     3d8:	2b9ceb08 	blcs	fe73b000 <__bss_end__+0xfe730a50>
     3dc:	5ae5e68a 	bpl	ff979e0c <__bss_end__+0xff96f85c>
     3e0:	f31e1c3e 			; <UNDEFINED> instruction: 0xf31e1c3e
     3e4:	2540f503 	strbcs	pc, [r0, #-1283]	; 0x503	; <UNPREDICTABLE>
     3e8:	40f503f3 	ldrshtmi	r0, [r5], #51	; 0x33
     3ec:	03f31e25 	mvnseq	r1, #592	; 0x250
     3f0:	f32540f5 	vqadd.u32	q2, <illegal reg q10.5>, <illegal reg q10.5>
     3f4:	2540f503 	strbcs	pc, [r0, #-1283]	; 0x503	; <UNPREDICTABLE>
     3f8:	0825f41e 	stmdaeq	r5!, {r1, r2, r3, r4, sl, ip, sp, lr, pc}
     3fc:	57b1fe7d 			; <UNDEFINED> instruction: 0x57b1fe7d
     400:	3ec71de3 	cdpcc	13, 12, cr1, cr7, cr3, {7}
     404:	0825f41e 	stmdaeq	r5!, {r1, r2, r3, r4, sl, ip, sp, lr, pc}
     408:	19c161d5 	stmibne	r1, {r0, r2, r4, r6, r7, r8, sp, lr}^
     40c:	3f2a01a0 	svccc	0x002a01a0
     410:	25f41e1c 	ldrbcs	r1, [r4, #3612]!	; 0xe1c
     414:	10f8a608 	rscsne	sl, r8, r8, lsl #12
     418:	81111111 	tsthi	r1, r1, lsl r1
     41c:	9f22223f 	svcls	0x0022223f
	...
     428:	00000008 	andeq	r0, r0, r8
     42c:	00000020 	andeq	r0, r0, r0, lsr #32
     430:	48900008 	ldmmi	r0, {r3}
     434:	49900493 	ldmibmi	r0, {r0, r1, r4, r7, sl}
     438:	00200493 	mlaeq	r0, r3, r4, r0
     43c:	00640000 	rsbeq	r0, r4, r0
     440:	00080000 	andeq	r0, r8, r0
     444:	f5254ef5 			; <UNDEFINED> instruction: 0xf5254ef5
     448:	9f1e254e 	svcls	0x001e254e
     44c:	00000064 	andeq	r0, r0, r4, rrx
     450:	0000006c 	andeq	r0, r0, ip, rrx
     454:	40f50010 	rscsmi	r0, r5, r0, lsl r0
     458:	2540f525 	strbcs	pc, [r0, #-1317]	; 0x525	; <UNPREDICTABLE>
     45c:	2540f51e 	strbcs	pc, [r0, #-1310]	; 0x51e	; <UNPREDICTABLE>
     460:	1e2540f5 	mcrne	0, 1, r4, cr5, cr5, {7}
     464:	006c9f1e 	rsbeq	r9, ip, lr, lsl pc
     468:	00a80000 	adceq	r0, r8, r0
     46c:	00180000 	andseq	r0, r8, r0
     470:	40f503f3 	ldrshtmi	r0, [r5], #51	; 0x33
     474:	f503f325 			; <UNDEFINED> instruction: 0xf503f325
     478:	f31e2540 	vrshl.u16	q1, q0, q7
     47c:	2540f503 	strbcs	pc, [r0, #-1283]	; 0x503	; <UNPREDICTABLE>
     480:	40f503f3 	ldrshtmi	r0, [r5], #51	; 0x33
     484:	9f1e1e25 	svcls	0x001e1e25
	...
     494:	00000050 	andeq	r0, r0, r0, asr r0
     498:	40900008 	addsmi	r0, r0, r8
     49c:	41900493 			; <UNDEFINED> instruction: 0x41900493
     4a0:	00500493 			; <UNDEFINED> instruction: 0x00500493
     4a4:	03900000 	orrseq	r0, r0, #0
     4a8:	00060000 	andeq	r0, r6, r0
     4ac:	55049354 	strpl	r9, [r4, #-852]	; 0x354
     4b0:	03900493 	orrseq	r0, r0, #-1828716544	; 0x93000000
     4b4:	04340000 	ldrteq	r0, [r4], #-0
     4b8:	00060000 	andeq	r0, r6, r0
     4bc:	40f503f3 	ldrshtmi	r0, [r5], #51	; 0x33
     4c0:	00009f25 	andeq	r9, r0, r5, lsr #30
	...
     4cc:	006c0000 	rsbeq	r0, ip, r0
     4d0:	00010000 	andeq	r0, r1, r0
     4d4:	00006c50 	andeq	r6, r0, r0, asr ip
     4d8:	00007000 	andeq	r7, r0, r0
     4dc:	56000100 	strpl	r0, [r0], -r0, lsl #2
     4e0:	00000070 	andeq	r0, r0, r0, ror r0
     4e4:	00000094 	muleq	r0, r4, r0
     4e8:	94500001 	ldrbls	r0, [r0], #-1
     4ec:	98000000 	stmdals	r0, {}	; <UNPREDICTABLE>
     4f0:	01000000 	mrseq	r0, (UNDEF: 0)
     4f4:	00985600 	addseq	r5, r8, r0, lsl #12
     4f8:	00c40000 	sbceq	r0, r4, r0
     4fc:	00010000 	andeq	r0, r1, r0
     500:	0000c450 	andeq	ip, r0, r0, asr r4
     504:	0000c800 	andeq	ip, r0, r0, lsl #16
     508:	56000100 	strpl	r0, [r0], -r0, lsl #2
     50c:	000000c8 	andeq	r0, r0, r8, asr #1
     510:	000000ec 	andeq	r0, r0, ip, ror #1
     514:	ec500001 	mrrc	0, 0, r0, r0, cr1	; <UNPREDICTABLE>
     518:	f0000000 			; <UNDEFINED> instruction: 0xf0000000
     51c:	01000000 	mrseq	r0, (UNDEF: 0)
     520:	00f05600 	rscseq	r5, r0, r0, lsl #12
     524:	01400000 	mrseq	r0, (UNDEF: 64)
     528:	00010000 	andeq	r0, r1, r0
     52c:	00014050 	andeq	r4, r1, r0, asr r0
     530:	00014400 	andeq	r4, r1, r0, lsl #8
     534:	56000100 	strpl	r0, [r0], -r0, lsl #2
     538:	00000144 	andeq	r0, r0, r4, asr #2
     53c:	00000168 	andeq	r0, r0, r8, ror #2
     540:	68500001 	ldmdavs	r0, {r0}^
     544:	6c000001 	stcvs	0, cr0, [r0], {1}
     548:	01000001 	tsteq	r0, r1
     54c:	016c5600 	cmneq	ip, r0, lsl #12
     550:	01a40000 			; <UNDEFINED> instruction: 0x01a40000
     554:	00010000 	andeq	r0, r1, r0
     558:	0001a450 	andeq	sl, r1, r0, asr r4
     55c:	0001a800 	andeq	sl, r1, r0, lsl #16
     560:	56000100 	strpl	r0, [r0], -r0, lsl #2
     564:	000001a8 	andeq	r0, r0, r8, lsr #3
     568:	000001cc 	andeq	r0, r0, ip, asr #3
     56c:	cc500001 	mrrcgt	0, 0, r0, r0, cr1	; <UNPREDICTABLE>
     570:	d0000001 	andle	r0, r0, r1
     574:	01000001 	tsteq	r0, r1
     578:	01d05600 	bicseq	r5, r0, r0, lsl #12
     57c:	01f80000 	mvnseq	r0, r0
     580:	00010000 	andeq	r0, r1, r0
     584:	0001f850 	andeq	pc, r1, r0, asr r8	; <UNPREDICTABLE>
     588:	0002a000 	andeq	sl, r2, r0
     58c:	56000100 	strpl	r0, [r0], -r0, lsl #2
     590:	000002a0 	andeq	r0, r0, r0, lsr #5
     594:	000002bc 			; <UNDEFINED> instruction: 0x000002bc
     598:	bc500001 	mrrclt	0, 0, r0, r0, cr1	; <UNPREDICTABLE>
     59c:	c0000002 	andgt	r0, r0, r2
     5a0:	01000002 	tsteq	r0, r2
     5a4:	02c05600 	sbceq	r5, r0, #0, 12
     5a8:	02d40000 	sbcseq	r0, r4, #0
     5ac:	00010000 	andeq	r0, r1, r0
     5b0:	0002d450 	andeq	sp, r2, r0, asr r4
     5b4:	00039000 	andeq	r9, r3, r0
     5b8:	56000100 	strpl	r0, [r0], -r0, lsl #2
     5bc:	00000390 	muleq	r0, r0, r3
     5c0:	00000434 	andeq	r0, r0, r4, lsr r4
     5c4:	01f30004 	mvnseq	r0, r4
     5c8:	00009f50 	andeq	r9, r0, r0, asr pc
     5cc:	00000000 	andeq	r0, r0, r0
     5d0:	00500000 	subseq	r0, r0, r0
     5d4:	00600000 	rsbeq	r0, r0, r0
     5d8:	00080000 	andeq	r0, r8, r0
     5dc:	04934090 	ldreq	r4, [r3], #144	; 0x90
     5e0:	04934190 	ldreq	r4, [r3], #400	; 0x190
     5e4:	00000060 	andeq	r0, r0, r0, rrx
     5e8:	00000070 	andeq	r0, r0, r0, ror r0
     5ec:	04f50010 	ldrbteq	r0, [r5], #16
     5f0:	0825f425 	stmdaeq	r5!, {r0, r2, r5, sl, ip, sp, lr, pc}
     5f4:	54400000 	strbpl	r0, [r0], #-0
     5f8:	3ff921fb 	svccc	0x00f921fb
     5fc:	00789f1c 	rsbseq	r9, r8, ip, lsl pc
     600:	00980000 	addseq	r0, r8, r0
     604:	00080000 	andeq	r0, r8, r0
     608:	04934090 	ldreq	r4, [r3], #144	; 0x90
     60c:	04934190 	ldreq	r4, [r3], #400	; 0x190
     610:	000000a8 	andeq	r0, r0, r8, lsr #1
     614:	000000b8 	strheq	r0, [r0], -r8
     618:	40900008 	addsmi	r0, r0, r8
     61c:	41900493 			; <UNDEFINED> instruction: 0x41900493
     620:	00b80493 	umlalseq	r0, r8, r3, r4
     624:	00c80000 	sbceq	r0, r8, r0
     628:	00100000 	andseq	r0, r0, r0
     62c:	f42504f5 	vld3.<illegal width 64>	{d0-d2}, [r5 :256], r5
     630:	00000825 	andeq	r0, r0, r5, lsr #16
     634:	21fb5440 	mvnscs	r5, r0, asr #8
     638:	9f1c4009 	svcls	0x001c4009
     63c:	000000d0 	ldrdeq	r0, [r0], -r0	; <UNPREDICTABLE>
     640:	000000f0 	strdeq	r0, [r0], -r0	; <UNPREDICTABLE>
     644:	40900008 	addsmi	r0, r0, r8
     648:	41900493 			; <UNDEFINED> instruction: 0x41900493
     64c:	01240493 			; <UNDEFINED> instruction: 0x01240493
     650:	01340000 	teqeq	r4, r0
     654:	00080000 	andeq	r0, r8, r0
     658:	04934090 	ldreq	r4, [r3], #144	; 0x90
     65c:	04934190 	ldreq	r4, [r3], #400	; 0x190
     660:	00000134 	andeq	r0, r0, r4, lsr r1
     664:	00000144 	andeq	r0, r0, r4, asr #2
     668:	04f50010 	ldrbteq	r0, [r5], #16
     66c:	0825f425 	stmdaeq	r5!, {r0, r2, r5, sl, ip, sp, lr, pc}
     670:	7f300000 	svcvc	0x00300000
     674:	4012d97c 	andsmi	sp, r2, ip, ror r9
     678:	014c9f1c 	cmpeq	ip, ip, lsl pc
     67c:	016c0000 	cmneq	ip, r0
     680:	00080000 	andeq	r0, r8, r0
     684:	04934090 	ldreq	r4, [r3], #144	; 0x90
     688:	04934190 	ldreq	r4, [r3], #400	; 0x190
     68c:	00000188 	andeq	r0, r0, r8, lsl #3
     690:	00000198 	muleq	r0, r8, r1
     694:	40900008 	addsmi	r0, r0, r8
     698:	41900493 			; <UNDEFINED> instruction: 0x41900493
     69c:	01980493 			; <UNDEFINED> instruction: 0x01980493
     6a0:	01a80000 			; <UNDEFINED> instruction: 0x01a80000
     6a4:	00100000 	andseq	r0, r0, r0
     6a8:	f42504f5 	vld3.<illegal width 64>	{d0-d2}, [r5 :256], r5
     6ac:	00000825 	andeq	r0, r0, r5, lsr #16
     6b0:	21fb5440 	mvnscs	r5, r0, asr #8
     6b4:	9f1c4019 	svcls	0x001c4019
     6b8:	000001b0 			; <UNDEFINED> instruction: 0x000001b0
     6bc:	000001d0 	ldrdeq	r0, [r0], -r0	; <UNPREDICTABLE>
     6c0:	40900008 	addsmi	r0, r0, r8
     6c4:	41900493 			; <UNDEFINED> instruction: 0x41900493
     6c8:	02d80493 	sbcseq	r0, r8, #-1828716544	; 0x93000000
     6cc:	02e40000 	rsceq	r0, r4, #0
     6d0:	00060000 	andeq	r0, r6, r0
     6d4:	51049350 	tstpl	r4, r0, asr r3
     6d8:	02e40493 	rsceq	r0, r4, #-1828716544	; 0x93000000
     6dc:	02fc0000 	rscseq	r0, ip, #0
     6e0:	00080000 	andeq	r0, r8, r0
     6e4:	04934e90 	ldreq	r4, [r3], #3728	; 0xe90
     6e8:	04934f90 	ldreq	r4, [r3], #3984	; 0xf90
     6ec:	00000300 	andeq	r0, r0, r0, lsl #6
     6f0:	0000031c 	andeq	r0, r0, ip, lsl r3
     6f4:	4e900008 	cdpmi	0, 9, cr0, cr0, cr8, {0}
     6f8:	4f900493 	svcmi	0x00900493
     6fc:	031c0493 	tsteq	ip, #-1828716544	; 0x93000000
     700:	034f0000 	movteq	r0, #61440	; 0xf000
     704:	00020000 	andeq	r0, r2, r0
     708:	00005891 	muleq	r0, r1, r8
     70c:	00000000 	andeq	r0, r0, r0
     710:	02080000 	andeq	r0, r8, #0
     714:	022c0000 	eoreq	r0, ip, #0
     718:	00080000 	andeq	r0, r8, r0
     71c:	04934c90 	ldreq	r4, [r3], #3216	; 0xc90
     720:	04934d90 	ldreq	r4, [r3], #3472	; 0xd90
     724:	0000022c 	andeq	r0, r0, ip, lsr #4
     728:	00000230 	andeq	r0, r0, r0, lsr r2
     72c:	4ef50010 	mrcmi	0, 7, r0, cr5, cr0, {0}
     730:	0825f425 	stmdaeq	r5!, {r0, r2, r5, sl, ip, sp, lr, pc}
     734:	1a626331 	bne	1899400 <__bss_end__+0x188ee50>
     738:	3dd0b461 	cfldrdcc	mvd11, [r0, #388]	; 0x184
     73c:	02309f1e 	eorseq	r9, r0, #30, 30	; 0x78
     740:	023c0000 	eorseq	r0, ip, #0
     744:	00080000 	andeq	r0, r8, r0
     748:	04934c90 	ldreq	r4, [r3], #3216	; 0xc90
     74c:	04934d90 	ldreq	r4, [r3], #3472	; 0xd90
     750:	0000023c 	andeq	r0, r0, ip, lsr r2
     754:	00000244 	andeq	r0, r0, r4, asr #4
     758:	4ef50010 	mrcmi	0, 7, r0, cr5, cr0, {0}
     75c:	0825f425 	stmdaeq	r5!, {r0, r2, r5, sl, ip, sp, lr, pc}
     760:	1a600000 	bne	1800768 <__bss_end__+0x17f61b8>
     764:	3dd0b461 	cfldrdcc	mvd11, [r0, #388]	; 0x184
     768:	02449f1e 	subeq	r9, r4, #30, 30	; 0x78
     76c:	02640000 	rsbeq	r0, r4, #0
     770:	00080000 	andeq	r0, r8, r0
     774:	04934c90 	ldreq	r4, [r3], #3216	; 0xc90
     778:	04934d90 	ldreq	r4, [r3], #3472	; 0xd90
     77c:	00000264 	andeq	r0, r0, r4, ror #4
     780:	00000268 	andeq	r0, r0, r8, ror #4
     784:	4ef50024 	cdpmi	0, 15, cr0, cr5, cr4, {1}
     788:	0825f425 	stmdaeq	r5!, {r0, r2, r5, sl, ip, sp, lr, pc}
     78c:	2e037073 	mcrcs	0, 0, r7, cr3, cr3, {3}
     790:	3ba3198a 	blcc	fe8c6dc0 <__bss_end__+0xfe8bc810>
     794:	2540f51e 	strbcs	pc, [r0, #-1310]	; 0x51e	; <UNPREDICTABLE>
     798:	f4254ef5 			; <UNDEFINED> instruction: 0xf4254ef5
     79c:	00000825 	andeq	r0, r0, r5, lsr #16
     7a0:	b4611a60 	strbtlt	r1, [r1], #-2656	; 0xa60
     7a4:	1c1e3dd0 	ldcne	13, cr3, [lr], {208}	; 0xd0
     7a8:	02689f1c 	rsbeq	r9, r8, #28, 30	; 0x70
     7ac:	02740000 	rsbseq	r0, r4, #0
     7b0:	00080000 	andeq	r0, r8, r0
     7b4:	04934c90 	ldreq	r4, [r3], #3216	; 0xc90
     7b8:	04934d90 	ldreq	r4, [r3], #3472	; 0xd90
     7bc:	00000274 	andeq	r0, r0, r4, ror r2
     7c0:	0000027c 	andeq	r0, r0, ip, ror r2
     7c4:	4ef50010 	mrcmi	0, 7, r0, cr5, cr0, {0}
     7c8:	0825f425 	stmdaeq	r5!, {r0, r2, r5, sl, ip, sp, lr, pc}
     7cc:	2e000000 	cdpcs	0, 0, cr0, cr0, cr0, {0}
     7d0:	3ba3198a 	blcc	fe8c6e00 <__bss_end__+0xfe8bc850>
     7d4:	027c9f1e 	rsbseq	r9, ip, #30, 30	; 0x78
     7d8:	02980000 	addseq	r0, r8, #0
     7dc:	00080000 	andeq	r0, r8, r0
     7e0:	04934c90 	ldreq	r4, [r3], #3216	; 0xc90
     7e4:	04934d90 	ldreq	r4, [r3], #3472	; 0xd90
	...
     7f0:	00000228 	andeq	r0, r0, r8, lsr #4
     7f4:	00000238 	andeq	r0, r0, r8, lsr r2
     7f8:	40900008 	addsmi	r0, r0, r8
     7fc:	41900493 			; <UNDEFINED> instruction: 0x41900493
     800:	02380493 	eorseq	r0, r8, #-1828716544	; 0x93000000
     804:	02600000 	rsbeq	r0, r0, #0
     808:	00140000 	andseq	r0, r4, r0
     80c:	f52504f5 			; <UNDEFINED> instruction: 0xf52504f5
     810:	25f4254e 	ldrbcs	r2, [r4, #1358]!	; 0x54e
     814:	40000008 	andmi	r0, r0, r8
     818:	f921fb54 			; <UNDEFINED> instruction: 0xf921fb54
     81c:	9f1c1e3f 	svcls	0x001c1e3f
     820:	00000260 	andeq	r0, r0, r0, ror #4
     824:	00000270 	andeq	r0, r0, r0, ror r2
     828:	4a900008 	bmi	fe400850 <__bss_end__+0xfe3f62a0>
     82c:	4b900493 	blmi	fe401a80 <__bss_end__+0xfe3f74d0>
     830:	02700493 	rsbseq	r0, r0, #-1828716544	; 0x93000000
     834:	02800000 	addeq	r0, r0, #0
     838:	00240000 	eoreq	r0, r4, r0
     83c:	f52504f5 			; <UNDEFINED> instruction: 0xf52504f5
     840:	25f4254e 	ldrbcs	r2, [r4, #1358]!	; 0x54e
     844:	40000008 	andmi	r0, r0, r8
     848:	f921fb54 			; <UNDEFINED> instruction: 0xf921fb54
     84c:	f51c1e3f 			; <UNDEFINED> instruction: 0xf51c1e3f
     850:	25f4254e 	ldrbcs	r2, [r4, #1358]!	; 0x54e
     854:	60000008 	andvs	r0, r0, r8
     858:	d0b4611a 	adcsle	r6, r4, sl, lsl r1
     85c:	9f1c1e3d 	svcls	0x001c1e3d
     860:	00000280 	andeq	r0, r0, r0, lsl #5
     864:	00000288 	andeq	r0, r0, r8, lsl #5
     868:	04f5006c 	ldrbteq	r0, [r5], #108	; 0x6c
     86c:	2504f525 	strcs	pc, [r4, #-1317]	; 0x525
     870:	830825f4 	movwhi	r2, #34292	; 0x85f4
     874:	306dc9c8 	rsbcc	ip, sp, r8, asr #19
     878:	1e3fe45f 	mrcne	4, 1, lr, cr15, cr15, {2}
     87c:	000825f4 	strdeq	r2, [r8], -r4
     880:	00000000 	andeq	r0, r0, r0
     884:	22433800 	subcs	r3, r3, #0, 16
     888:	000825f4 	strdeq	r2, [r8], -r4
     88c:	00000000 	andeq	r0, r0, r0
     890:	1c433800 	mcrrne	8, 0, r3, r3, cr0
     894:	000825f4 	strdeq	r2, [r8], -r4
     898:	fb544000 	blx	15108a2 <__bss_end__+0x15062f2>
     89c:	1e3ff921 	cdpne	9, 3, cr15, cr15, cr1, {1}
     8a0:	2504f51c 	strcs	pc, [r4, #-1308]	; 0x51c
     8a4:	830825f4 	movwhi	r2, #34292	; 0x85f4
     8a8:	306dc9c8 	rsbcc	ip, sp, r8, asr #19
     8ac:	1e3fe45f 	mrcne	4, 1, lr, cr15, cr15, {2}
     8b0:	000825f4 	strdeq	r2, [r8], -r4
     8b4:	00000000 	andeq	r0, r0, r0
     8b8:	22433800 	subcs	r3, r3, #0, 16
     8bc:	000825f4 	strdeq	r2, [r8], -r4
     8c0:	00000000 	andeq	r0, r0, r0
     8c4:	1c433800 	mcrrne	8, 0, r3, r3, cr0
     8c8:	000825f4 	strdeq	r2, [r8], -r4
     8cc:	611a6000 	tstvs	sl, r0
     8d0:	1e3dd0b4 	mrcne	0, 1, sp, cr13, cr4, {5}
     8d4:	02889f1c 	addeq	r9, r8, #28, 30	; 0x70
     8d8:	028c0000 	addeq	r0, ip, #0
     8dc:	00140000 	andseq	r0, r4, r0
     8e0:	f52504f5 			; <UNDEFINED> instruction: 0xf52504f5
     8e4:	25f4254e 	ldrbcs	r2, [r4, #1358]!	; 0x54e
     8e8:	40000008 	andmi	r0, r0, r8
     8ec:	f921fb54 			; <UNDEFINED> instruction: 0xf921fb54
     8f0:	9f1c1e3f 	svcls	0x001c1e3f
	...
     8fc:	00000200 	andeq	r0, r0, r0, lsl #4
     900:	00000234 	andeq	r0, r0, r4, lsr r2
     904:	40900008 	addsmi	r0, r0, r8
     908:	41900493 			; <UNDEFINED> instruction: 0x41900493
     90c:	02340493 	eorseq	r0, r4, #-1828716544	; 0x93000000
     910:	026c0000 	rsbeq	r0, ip, #0
     914:	00080000 	andeq	r0, r8, r0
     918:	04934a90 	ldreq	r4, [r3], #2704	; 0xa90
     91c:	04934b90 	ldreq	r4, [r3], #2960	; 0xb90
     920:	0000026c 	andeq	r0, r0, ip, ror #4
     924:	00000288 	andeq	r0, r0, r8, lsl #5
     928:	40900008 	addsmi	r0, r0, r8
     92c:	41900493 			; <UNDEFINED> instruction: 0x41900493
     930:	02880493 	addeq	r0, r8, #-1828716544	; 0x93000000
     934:	028c0000 	addeq	r0, ip, #0
     938:	00080000 	andeq	r0, r8, r0
     93c:	04934a90 	ldreq	r4, [r3], #2704	; 0xa90
     940:	04934b90 	ldreq	r4, [r3], #2960	; 0xb90
     944:	0000028c 	andeq	r0, r0, ip, lsl #5
     948:	00000294 	muleq	r0, r4, r2
     94c:	40900008 	addsmi	r0, r0, r8
     950:	41900493 			; <UNDEFINED> instruction: 0x41900493
     954:	00000493 	muleq	r0, r3, r4
     958:	00000000 	andeq	r0, r0, r0
     95c:	01ec0000 	mvneq	r0, r0
     960:	01f00000 	mvnseq	r0, r0
     964:	00080000 	andeq	r0, r8, r0
     968:	04934a90 	ldreq	r4, [r3], #2704	; 0xa90
     96c:	04934b90 	ldreq	r4, [r3], #2960	; 0xb90
     970:	000001f0 	strdeq	r0, [r0], -r0	; <UNPREDICTABLE>
     974:	00000280 	andeq	r0, r0, r0, lsl #5
     978:	4e900008 	cdpmi	0, 9, cr0, cr0, cr8, {0}
     97c:	4f900493 	svcmi	0x00900493
     980:	02800493 	addeq	r0, r0, #-1828716544	; 0x93000000
     984:	02880000 	addeq	r0, r8, #0
     988:	00280000 	eoreq	r0, r8, r0
     98c:	f42504f5 	vld3.<illegal width 64>	{d0-d2}, [r5 :256], r5
     990:	c8830825 	stmgt	r3, {r0, r2, r5, fp}
     994:	5f306dc9 	svcpl	0x00306dc9
     998:	f41e3fe4 			; <UNDEFINED> instruction: 0xf41e3fe4
     99c:	00000825 	andeq	r0, r0, r5, lsr #16
     9a0:	00000000 	andeq	r0, r0, r0
     9a4:	f4224338 	vld2.8	{d4-d7}, [r2 :256], r8
     9a8:	00000825 	andeq	r0, r0, r5, lsr #16
     9ac:	00000000 	andeq	r0, r0, r0
     9b0:	9f1c4338 	svcls	0x001c4338
     9b4:	00000288 	andeq	r0, r0, r8, lsl #5
     9b8:	0000028c 	andeq	r0, r0, ip, lsl #5
     9bc:	4e900008 	cdpmi	0, 9, cr0, cr0, cr8, {0}
     9c0:	4f900493 	svcmi	0x00900493
     9c4:	028c0493 	addeq	r0, ip, #-1828716544	; 0x93000000
     9c8:	02a00000 	adceq	r0, r0, #0
     9cc:	00280000 	eoreq	r0, r8, r0
     9d0:	f42504f5 	vld3.<illegal width 64>	{d0-d2}, [r5 :256], r5
     9d4:	c8830825 	stmgt	r3, {r0, r2, r5, fp}
     9d8:	5f306dc9 	svcpl	0x00306dc9
     9dc:	f41e3fe4 			; <UNDEFINED> instruction: 0xf41e3fe4
     9e0:	00000825 	andeq	r0, r0, r5, lsr #16
     9e4:	00000000 	andeq	r0, r0, r0
     9e8:	f4224338 	vld2.8	{d4-d7}, [r2 :256], r8
     9ec:	00000825 	andeq	r0, r0, r5, lsr #16
     9f0:	00000000 	andeq	r0, r0, r0
     9f4:	9f1c4338 	svcls	0x001c4338
	...
     a00:	000002cc 	andeq	r0, r0, ip, asr #5
     a04:	0000034f 	andeq	r0, r0, pc, asr #6
     a08:	4f520001 	svcmi	0x00520001
     a0c:	88000003 	stmdahi	r0, {r0, r1}
     a10:	0f000003 	svceq	0x00000003
     a14:	0c007500 	cfstr32eq	mvfx7, [r0], {-0}
     a18:	7fffffff 	svcvc	0x00ffffff
     a1c:	0a26441a 	beq	991a8c <__bss_end__+0x9874dc>
     a20:	9f1c0416 	svcls	0x001c0416
	...
     a2c:	00000220 	andeq	r0, r0, r0, lsr #4
     a30:	00000254 	andeq	r0, r0, r4, asr r2
     a34:	54530001 	ldrbpl	r0, [r3], #-1
     a38:	58000002 	stmdapl	r0, {r1}
     a3c:	10000002 	andne	r0, r0, r2
     a40:	75007100 	strvc	r7, [r0, #-256]	; 0x100
     a44:	ffff0c00 			; <UNDEFINED> instruction: 0xffff0c00
     a48:	311a7fff 			; <UNDEFINED> instruction: 0x311a7fff
     a4c:	1c254524 	cfstr32ne	mvfx4, [r5], #-144	; 0xffffff70
     a50:	0002589f 	muleq	r2, pc, r8	; <UNPREDICTABLE>
     a54:	00028c00 	andeq	r8, r2, r0, lsl #24
     a58:	51000100 	mrspl	r0, (UNDEF: 16)
     a5c:	000002d8 	ldrdeq	r0, [r0], -r8
     a60:	000002e4 	andeq	r0, r0, r4, ror #5
     a64:	9f300002 	svcls	0x00300002
     a68:	000002e4 	andeq	r0, r0, r4, ror #5
     a6c:	00000314 	andeq	r0, r0, r4, lsl r3
     a70:	00530001 	subseq	r0, r3, r1
     a74:	00000000 	andeq	r0, r0, r0
     a78:	0c000000 	stceq	0, cr0, [r0], {-0}
     a7c:	58000002 	stmdapl	r0, {r1}
     a80:	01000002 	tsteq	r0, r2
     a84:	02585100 	subseq	r5, r8, #0, 2
     a88:	02a00000 	adceq	r0, r0, #0
     a8c:	000b0000 	andeq	r0, fp, r0
     a90:	ff0c0075 			; <UNDEFINED> instruction: 0xff0c0075
     a94:	1a7fffff 	bne	2000a98 <__bss_end__+0x1ff64e8>
     a98:	009f2644 	addseq	r2, pc, r4, asr #12
     a9c:	00000000 	andeq	r0, r0, r0
     aa0:	10000000 	andne	r0, r0, r0
     aa4:	1c000003 	stcne	0, cr0, [r0], {3}
     aa8:	02000003 	andeq	r0, r0, #3
     aac:	1c9f3300 	ldcne	3, cr3, [pc], {0}
     ab0:	4f000003 	svcmi	0x00000003
     ab4:	01000003 	tsteq	r0, r3
     ab8:	00005300 	andeq	r5, r0, r0, lsl #6
     abc:	00000000 	andeq	r0, r0, r0
     ac0:	01f80000 	mvnseq	r0, r0
     ac4:	02a00000 	adceq	r0, r0, #0
     ac8:	00010000 	andeq	r0, r1, r0
     acc:	00035050 	andeq	r5, r3, r0, asr r0
     ad0:	00037400 	andeq	r7, r3, r0, lsl #8
     ad4:	50000100 	andpl	r0, r0, r0, lsl #2
     ad8:	00000374 	andeq	r0, r0, r4, ror r3
     adc:	00000378 	andeq	r0, r0, r8, ror r3
     ae0:	00700004 	rsbseq	r0, r0, r4
     ae4:	03789f1f 	cmneq	r8, #31, 30	; 0x7c
     ae8:	03880000 	orreq	r0, r8, #0
     aec:	00010000 	andeq	r0, r1, r0
     af0:	00000050 	andeq	r0, r0, r0, asr r0
     af4:	00000000 	andeq	r0, r0, r0
     af8:	00001400 	andeq	r1, r0, r0, lsl #8
     afc:	00021c00 	andeq	r1, r2, r0, lsl #24
     b00:	53000100 	movwpl	r0, #256	; 0x100
     b04:	0000021c 	andeq	r0, r0, ip, lsl r2
     b08:	000002a0 	andeq	r0, r0, r0, lsr #5
     b0c:	00750009 	rsbseq	r0, r5, r9
     b10:	ffffff0c 			; <UNDEFINED> instruction: 0xffffff0c
     b14:	a09f1a7f 	addsge	r1, pc, pc, ror sl	; <UNPREDICTABLE>
     b18:	dc000002 	stcle	0, cr0, [r0], {2}
     b1c:	01000002 	tsteq	r0, r2
     b20:	02dc5300 	sbcseq	r5, ip, #0, 6
     b24:	03900000 	orrseq	r0, r0, #0
     b28:	00090000 	andeq	r0, r9, r0
     b2c:	ff0c0075 			; <UNDEFINED> instruction: 0xff0c0075
     b30:	1a7fffff 	bne	2000b34 <__bss_end__+0x1ff6584>
     b34:	0000009f 	muleq	r0, pc, r0	; <UNPREDICTABLE>
     b38:	00000000 	andeq	r0, r0, r0
     b3c:	00001000 	andeq	r1, r0, r0
     b40:	00039000 	andeq	r9, r3, r0
     b44:	55000100 	strpl	r0, [r0, #-256]	; 0x100
	...
     b50:	000002c0 	andeq	r0, r0, r0, asr #5
     b54:	00000388 	andeq	r0, r0, r8, lsl #7
     b58:	00540001 	subseq	r0, r4, r1
     b5c:	00000000 	andeq	r0, r0, r0
     b60:	10000000 	andne	r0, r0, r0
     b64:	90000000 	andls	r0, r0, r0
     b68:	06000003 	streq	r0, [r0], -r3
     b6c:	04935400 	ldreq	r5, [r3], #1024	; 0x400
     b70:	00049355 	andeq	r9, r4, r5, asr r3
     b74:	00000000 	andeq	r0, r0, r0
     b78:	18000000 	stmdane	r0, {}	; <UNPREDICTABLE>
     b7c:	8c000002 	stchi	0, cr0, [r0], {2}
     b80:	01000002 	tsteq	r0, r2
     b84:	00005300 	andeq	r5, r0, r0, lsl #6
     b88:	00000000 	andeq	r0, r0, r0
     b8c:	02180000 	andseq	r0, r8, #0
     b90:	02500000 	subseq	r0, r0, #0
     b94:	00060000 	andeq	r0, r6, r0
     b98:	53049352 	movwpl	r9, #17234	; 0x4352
     b9c:	028c0493 	addeq	r0, ip, #-1828716544	; 0x93000000
     ba0:	02a00000 	adceq	r0, r0, #0
     ba4:	00060000 	andeq	r0, r6, r0
     ba8:	53049352 	movwpl	r9, #17234	; 0x4352
     bac:	03880493 	orreq	r0, r8, #-1828716544	; 0x93000000
     bb0:	04340000 	ldrteq	r0, [r4], #-0
     bb4:	00060000 	andeq	r0, r6, r0
     bb8:	53049352 	movwpl	r9, #17234	; 0x4352
     bbc:	00000493 	muleq	r0, r3, r4
     bc0:	00000000 	andeq	r0, r0, r0
     bc4:	02500000 	subseq	r0, r0, #0
     bc8:	02a00000 	adceq	r0, r0, #0
     bcc:	00060000 	andeq	r0, r6, r0
     bd0:	53049352 	movwpl	r9, #17234	; 0x4352
     bd4:	03880493 	orreq	r0, r8, #-1828716544	; 0x93000000
     bd8:	04340000 	ldrteq	r0, [r4], #-0
     bdc:	00060000 	andeq	r0, r6, r0
     be0:	53049352 	movwpl	r9, #17234	; 0x4352
     be4:	00000493 	muleq	r0, r3, r4
     be8:	00000000 	andeq	r0, r0, r0
     bec:	02d40000 	sbcseq	r0, r4, #0
     bf0:	02f00000 	rscseq	r0, r0, #0
     bf4:	00060000 	andeq	r0, r6, r0
     bf8:	51049350 	tstpl	r4, r0, asr r3
     bfc:	03040493 	movweq	r0, #17555	; 0x4493
     c00:	031c0000 	tsteq	ip, #0
     c04:	00060000 	andeq	r0, r6, r0
     c08:	51049350 	tstpl	r4, r0, asr r3
     c0c:	03200493 	teqeq	r0, #-1828716544	; 0x93000000
     c10:	032c0000 	teqeq	ip, #0
     c14:	00060000 	andeq	r0, r6, r0
     c18:	51049350 	tstpl	r4, r0, asr r3
     c1c:	00000493 	muleq	r0, r3, r4
	...
     c28:	00500000 	subseq	r0, r0, r0
     c2c:	00010000 	andeq	r0, r1, r0
     c30:	00005050 	andeq	r5, r0, r0, asr r0
     c34:	00047800 	andeq	r7, r4, r0, lsl #16
     c38:	55000100 	strpl	r0, [r0, #-256]	; 0x100
     c3c:	00000478 	andeq	r0, r0, r8, ror r4
     c40:	00000748 	andeq	r0, r0, r8, asr #14
     c44:	01f30004 	mvnseq	r0, r4
     c48:	00009f50 	andeq	r9, r0, r0, asr pc
	...
     c54:	00180000 	andseq	r0, r8, r0
     c58:	00010000 	andeq	r0, r1, r0
     c5c:	00001851 	andeq	r1, r0, r1, asr r8
     c60:	00073c00 	andeq	r3, r7, r0, lsl #24
     c64:	5b000100 	blpl	106c <_start-0x6f94>
     c68:	0000073c 	andeq	r0, r0, ip, lsr r7
     c6c:	00000748 	andeq	r0, r0, r8, asr #14
     c70:	01f30004 	mvnseq	r0, r4
     c74:	00009f51 	andeq	r9, r0, r1, asr pc
	...
     c80:	005c0000 	subseq	r0, ip, r0
     c84:	00010000 	andeq	r0, r1, r0
     c88:	00005c52 	andeq	r5, r0, r2, asr ip
     c8c:	00074800 	andeq	r4, r7, r0, lsl #16
     c90:	f3000400 	vshl.u8	d0, d0, d0
     c94:	009f5201 	addseq	r5, pc, r1, lsl #4
	...
     ca0:	28000000 	stmdacs	r0, {}	; <UNPREDICTABLE>
     ca4:	01000000 	mrseq	r0, (UNDEF: 0)
     ca8:	00285300 	eoreq	r5, r8, r0, lsl #6
     cac:	011c0000 	tsteq	ip, r0
     cb0:	00030000 	andeq	r0, r3, r0
     cb4:	1c9f0174 	ldfnes	f0, [pc], {116}	; 0x74
     cb8:	48000001 	stmdami	r0, {r0}
     cbc:	04000007 	streq	r0, [r0], #-7
     cc0:	5301f300 	movwpl	pc, #4864	; 0x1300	; <UNPREDICTABLE>
     cc4:	0000009f 	muleq	r0, pc, r0	; <UNPREDICTABLE>
     cc8:	00000000 	andeq	r0, r0, r0
     ccc:	00011c00 	andeq	r1, r1, r0, lsl #24
     cd0:	00036c00 	andeq	r6, r3, r0, lsl #24
     cd4:	57000100 	strpl	r0, [r0, -r0, lsl #2]
     cd8:	000003e0 	andeq	r0, r0, r0, ror #7
     cdc:	00000598 	muleq	r0, r8, r5
     ce0:	b0570001 	subslt	r0, r7, r1
     ce4:	b4000005 	strlt	r0, [r0], #-5
     ce8:	01000005 	tsteq	r0, r5
     cec:	05cc5700 	strbeq	r5, [ip, #1792]	; 0x700
     cf0:	06cc0000 	strbeq	r0, [ip], r0
     cf4:	00010000 	andeq	r0, r1, r0
     cf8:	00000057 	andeq	r0, r0, r7, asr r0
     cfc:	00000000 	andeq	r0, r0, r0
     d00:	00002400 	andeq	r2, r0, r0, lsl #8
     d04:	00011c00 	andeq	r1, r1, r0, lsl #24
     d08:	54000100 	strpl	r0, [r0], #-256	; 0x100
     d0c:	0000011c 	andeq	r0, r0, ip, lsl r1
     d10:	00000748 	andeq	r0, r0, r8, asr #14
     d14:	01f30006 	mvnseq	r0, r6
     d18:	9f1c3153 	svcls	0x001c3153
	...
     d24:	00000034 	andeq	r0, r0, r4, lsr r0
     d28:	00000038 	andeq	r0, r0, r8, lsr r0
     d2c:	00780008 	rsbseq	r0, r8, r8
     d30:	00732632 	rsbseq	r2, r3, r2, lsr r6
     d34:	00389f1c 	eorseq	r9, r8, ip, lsl pc
     d38:	050c0000 	streq	r0, [ip, #-0]
     d3c:	00010000 	andeq	r0, r1, r0
     d40:	00000058 	andeq	r0, r0, r8, asr r0
     d44:	00000000 	andeq	r0, r0, r0
     d48:	00002000 	andeq	r2, r0, r0
     d4c:	00073c00 	andeq	r3, r7, r0, lsl #24
     d50:	56000100 	strpl	r0, [r0], -r0, lsl #2
     d54:	0000073c 	andeq	r0, r0, ip, lsr r7
     d58:	00000748 	andeq	r0, r0, r8, asr #14
     d5c:	007d000b 	rsbseq	r0, sp, fp
     d60:	03243206 	teqeq	r4, #1610612736	; 0x60000000
     d64:	00009f30 	andeq	r9, r0, r0, lsr pc
     d68:	00000022 	andeq	r0, r0, r2, lsr #32
     d6c:	00000000 	andeq	r0, r0, r0
     d70:	00021400 	andeq	r1, r2, r0, lsl #8
     d74:	00022c00 	andeq	r2, r2, r0, lsl #24
     d78:	30000200 	andcc	r0, r0, r0, lsl #4
     d7c:	00022c9f 	muleq	r2, pc, ip	; <UNPREDICTABLE>
     d80:	00024400 	andeq	r4, r2, r0, lsl #8
     d84:	51000100 	mrspl	r0, (UNDEF: 16)
     d88:	00000244 	andeq	r0, r0, r4, asr #4
     d8c:	00000258 	andeq	r0, r0, r8, asr r2
     d90:	9f310002 	svcls	0x00310002
     d94:	00000258 	andeq	r0, r0, r8, asr r2
     d98:	000002ef 	andeq	r0, r0, pc, ror #5
     d9c:	00510001 	subseq	r0, r1, r1
     da0:	00000000 	andeq	r0, r0, r0
     da4:	8c000000 	stchi	0, cr0, [r0], {-0}
     da8:	c0000001 	andgt	r0, r0, r1
     dac:	02000001 	andeq	r0, r0, #1
     db0:	c05e9000 	subsgt	r9, lr, r0
     db4:	cc000001 	stcgt	0, cr0, [r0], {1}
     db8:	01000001 	tsteq	r0, r1
     dbc:	01cc5a00 	biceq	r5, ip, r0, lsl #20
     dc0:	02140000 	andseq	r0, r4, #0
     dc4:	00020000 	andeq	r0, r2, r0
     dc8:	02145e90 	andseq	r5, r4, #144, 28	; 0x900
     dcc:	022c0000 	eoreq	r0, ip, #0
     dd0:	00010000 	andeq	r0, r1, r0
     dd4:	00022c5e 	andeq	r2, r2, lr, asr ip
     dd8:	0002f400 	andeq	pc, r2, r0, lsl #8
     ddc:	90000200 	andls	r0, r0, r0, lsl #4
     de0:	0000005e 	andeq	r0, r0, lr, asr r0
     de4:	00000000 	andeq	r0, r0, r0
     de8:	00005400 	andeq	r5, r0, r0, lsl #8
     dec:	00006800 	andeq	r6, r0, r0, lsl #16
     df0:	30000200 	andcc	r0, r0, r0, lsl #4
     df4:	0000689f 	muleq	r0, pc, r8	; <UNPREDICTABLE>
     df8:	0000b000 	andeq	fp, r0, r0
     dfc:	51000100 	mrspl	r0, (UNDEF: 16)
     e00:	000000b0 	strheq	r0, [r0], -r0	; <UNPREDICTABLE>
     e04:	0000011c 	andeq	r0, r0, ip, lsl r1
     e08:	1c5e0001 	mrrcne	0, 0, r0, lr, cr1
     e0c:	34000001 	strcc	r0, [r0], #-1
     e10:	02000001 	andeq	r0, r0, #1
     e14:	349f3000 	ldrcc	r3, [pc], #0	; e1c <_start-0x71e4>
     e18:	77000001 	strvc	r0, [r0, -r1]
     e1c:	01000001 	tsteq	r0, r1
     e20:	01b45200 			; <UNDEFINED> instruction: 0x01b45200
     e24:	01c40000 	biceq	r0, r4, r0
     e28:	00010000 	andeq	r0, r1, r0
     e2c:	0001c453 	andeq	ip, r1, r3, asr r4
     e30:	0001d400 	andeq	sp, r1, r0, lsl #8
     e34:	70000600 	andvc	r0, r0, r0, lsl #12
     e38:	26007100 	strcs	r7, [r0], -r0, lsl #2
     e3c:	0002149f 	muleq	r2, pc, r4	; <UNPREDICTABLE>
     e40:	00022c00 	andeq	r2, r2, r0, lsl #24
     e44:	30000200 	andcc	r0, r0, r0, lsl #4
     e48:	00022c9f 	muleq	r2, pc, ip	; <UNPREDICTABLE>
     e4c:	00029800 	andeq	r9, r2, r0, lsl #16
     e50:	53000100 	movwpl	r0, #256	; 0x100
     e54:	000002b4 			; <UNDEFINED> instruction: 0x000002b4
     e58:	000002b8 			; <UNDEFINED> instruction: 0x000002b8
     e5c:	04530001 	ldrbeq	r0, [r3], #-1
     e60:	34000003 	strcc	r0, [r0], #-3
     e64:	01000003 	tsteq	r0, r3
     e68:	033c5300 	teqeq	ip, #0, 6
     e6c:	03400000 	movteq	r0, #0
     e70:	00010000 	andeq	r0, r1, r0
     e74:	00035c53 	andeq	r5, r3, r3, asr ip
     e78:	0003e000 	andeq	lr, r3, r0
     e7c:	50000100 	andpl	r0, r0, r0, lsl #2
     e80:	0000048c 	andeq	r0, r0, ip, lsl #9
     e84:	000004d8 	ldrdeq	r0, [r0], -r8
     e88:	d8570001 	ldmdale	r7, {r0}^
     e8c:	1c000004 	stcne	0, cr0, [r0], {4}
     e90:	01000005 	tsteq	r0, r5
     e94:	051c5300 	ldreq	r5, [ip, #-768]	; 0x300
     e98:	05980000 	ldreq	r0, [r8]
     e9c:	00010000 	andeq	r0, r1, r0
     ea0:	00059851 	andeq	r9, r5, r1, asr r8
     ea4:	0005b000 	andeq	fp, r5, r0
     ea8:	57000100 	strpl	r0, [r0, -r0, lsl #2]
     eac:	000005b0 			; <UNDEFINED> instruction: 0x000005b0
     eb0:	000005b4 			; <UNDEFINED> instruction: 0x000005b4
     eb4:	b4510001 	ldrblt	r0, [r1], #-1
     eb8:	cc000005 	stcgt	0, cr0, [r0], {5}
     ebc:	01000005 	tsteq	r0, r5
     ec0:	05cc5700 	strbeq	r5, [ip, #1792]	; 0x700
     ec4:	05e40000 	strbeq	r0, [r4, #0]!
     ec8:	00010000 	andeq	r0, r1, r0
     ecc:	0005e453 	andeq	lr, r5, r3, asr r4
     ed0:	0005ec00 	andeq	lr, r5, r0, lsl #24
     ed4:	51000100 	mrspl	r0, (UNDEF: 16)
     ed8:	000005ec 	andeq	r0, r0, ip, ror #11
     edc:	00000610 	andeq	r0, r0, r0, lsl r6
     ee0:	10530001 	subsne	r0, r3, r1
     ee4:	18000006 	stmdane	r0, {r1, r2}
     ee8:	02000006 	andeq	r0, r0, #6
     eec:	189f3100 	ldmne	pc, {r8, ip, sp}	; <UNPREDICTABLE>
     ef0:	58000006 	stmdapl	r0, {r1, r2}
     ef4:	01000006 	tsteq	r0, r6
     ef8:	06585300 	ldrbeq	r5, [r8], -r0, lsl #6
     efc:	06700000 	ldrbteq	r0, [r0], -r0
     f00:	00030000 	andeq	r0, r3, r0
     f04:	709f0172 	addsvc	r0, pc, r2, ror r1	; <UNPREDICTABLE>
     f08:	78000006 	stmdavc	r0, {r1, r2}
     f0c:	01000006 	tsteq	r0, r6
     f10:	06785200 	ldrbteq	r5, [r8], -r0, lsl #4
     f14:	067c0000 	ldrbteq	r0, [ip], -r0
     f18:	00010000 	andeq	r0, r1, r0
     f1c:	00067c51 	andeq	r7, r6, r1, asr ip
     f20:	00068800 	andeq	r8, r6, r0, lsl #16
     f24:	53000100 	movwpl	r0, #256	; 0x100
     f28:	0000068c 	andeq	r0, r0, ip, lsl #13
     f2c:	000006a0 	andeq	r0, r0, r0, lsr #13
     f30:	a0530001 	subsge	r0, r3, r1
     f34:	b8000006 	stmdalt	r0, {r1, r2}
     f38:	03000006 	movweq	r0, #6
     f3c:	9f017200 	svcls	0x00017200
     f40:	000006b8 			; <UNDEFINED> instruction: 0x000006b8
     f44:	000006bc 			; <UNDEFINED> instruction: 0x000006bc
     f48:	bc520001 	mrrclt	0, 0, r0, r2, cr1
     f4c:	cc000006 	stcgt	0, cr0, [r0], {6}
     f50:	01000006 	tsteq	r0, r6
     f54:	06cc5300 	strbeq	r5, [ip], r0, lsl #6
     f58:	07280000 	streq	r0, [r8, -r0]!
     f5c:	00010000 	andeq	r0, r1, r0
     f60:	00000057 	andeq	r0, r0, r7, asr r0
     f64:	00000000 	andeq	r0, r0, r0
     f68:	00005000 	andeq	r5, r0, r0
     f6c:	0000b000 	andeq	fp, r0, r0
     f70:	50000100 	andpl	r0, r0, r0, lsl #2
     f74:	000000b0 	strheq	r0, [r0], -r0	; <UNPREDICTABLE>
     f78:	000000d4 	ldrdeq	r0, [r0], -r4
     f7c:	e0510001 	subs	r0, r1, r1
     f80:	f0000000 			; <UNDEFINED> instruction: 0xf0000000
     f84:	01000000 	mrseq	r0, (UNDEF: 0)
     f88:	011c5100 	tsteq	ip, r0, lsl #2
     f8c:	01340000 	teqeq	r4, r0
     f90:	00010000 	andeq	r0, r1, r0
     f94:	00013457 	andeq	r3, r1, r7, asr r4
     f98:	00015800 	andeq	r5, r1, r0, lsl #16
     f9c:	53000100 	movwpl	r0, #256	; 0x100
     fa0:	00000158 	andeq	r0, r0, r8, asr r1
     fa4:	00000168 	andeq	r0, r0, r8, ror #2
     fa8:	01730003 	cmneq	r3, r3
     fac:	0001689f 	muleq	r1, pc, r8	; <UNPREDICTABLE>
     fb0:	00017700 	andeq	r7, r1, r0, lsl #14
     fb4:	53000100 	movwpl	r0, #256	; 0x100
     fb8:	00000238 	andeq	r0, r0, r8, lsr r2
     fbc:	00000248 	andeq	r0, r0, r8, asr #4
     fc0:	48520001 	ldmdami	r2, {r0}^
     fc4:	4c000002 	stcmi	0, cr0, [r0], {2}
     fc8:	0a000002 	beq	fd8 <_start-0x7028>
     fcc:	32007300 	andcc	r7, r0, #0, 6
     fd0:	22007424 	andcs	r7, r0, #36, 8	; 0x24000000
     fd4:	4c1c5008 	ldcmi	0, cr5, [ip], {8}
     fd8:	50000002 	andpl	r0, r0, r2
     fdc:	03000002 	movweq	r0, #2
     fe0:	7fb07100 	svcvc	0x00b07100
     fe4:	00000258 	andeq	r0, r0, r8, asr r2
     fe8:	0000025c 	andeq	r0, r0, ip, asr r2
     fec:	5c520001 	mrrcpl	0, 0, r0, r2, cr1
     ff0:	68000002 	stmdavs	r0, {r1}
     ff4:	0a000002 	beq	1004 <_start-0x6ffc>
     ff8:	32007300 	andcc	r7, r0, #0, 6
     ffc:	22007424 	andcs	r7, r0, #36, 8	; 0x24000000
    1000:	001c5008 	andseq	r5, ip, r8
    1004:	0c000003 	stceq	0, cr0, [r0], {3}
    1008:	02000003 	andeq	r0, r0, #3
    100c:	0c9f3000 	ldceq	0, cr3, [pc], {0}
    1010:	6c000003 	stcvs	0, cr0, [r0], {3}
    1014:	01000003 	tsteq	r0, r3
    1018:	038c5c00 	orreq	r5, ip, #0, 24
    101c:	03980000 	orrseq	r0, r8, #0
    1020:	00020000 	andeq	r0, r2, r0
    1024:	03989f30 	orrseq	r9, r8, #48, 30	; 0xc0
    1028:	03c80000 	biceq	r0, r8, #0
    102c:	00010000 	andeq	r0, r1, r0
    1030:	00000053 	andeq	r0, r0, r3, asr r0
    1034:	00000000 	andeq	r0, r0, r0
    1038:	00033400 	andeq	r3, r3, r0, lsl #8
    103c:	00033c00 	andeq	r3, r3, r0, lsl #24
    1040:	5e000100 	adfpls	f0, f0, f0
    1044:	00000340 	andeq	r0, r0, r0, asr #6
    1048:	00000360 	andeq	r0, r0, r0, ror #6
    104c:	1c5e0001 	mrrcne	0, 0, r0, lr, cr1
    1050:	40000005 	andmi	r0, r0, r5
    1054:	01000005 	tsteq	r0, r5
    1058:	054c5300 	strbeq	r5, [ip, #-768]	; 0x300
    105c:	05600000 	strbeq	r0, [r0, #-0]!
    1060:	00010000 	andeq	r0, r1, r0
    1064:	00000053 	andeq	r0, r0, r3, asr r0
    1068:	00000000 	andeq	r0, r0, r0
    106c:	00005400 	andeq	r5, r0, r0, lsl #8
    1070:	0000a000 	andeq	sl, r0, r0
    1074:	5e000100 	adfpls	f0, f0, f0
    1078:	000000a0 	andeq	r0, r0, r0, lsr #1
    107c:	0000011c 	andeq	r0, r0, ip, lsl r1
    1080:	00740006 	rsbseq	r0, r4, r6
    1084:	9f220076 	svcls	0x00220076
    1088:	0000011c 	andeq	r0, r0, ip, lsl r1
    108c:	0000073c 	andeq	r0, r0, ip, lsr r7
    1090:	01f30009 	mvnseq	r0, r9
    1094:	22007653 	andcs	r7, r0, #87031808	; 0x5300000
    1098:	3c9f1c31 	ldccc	12, cr1, [pc], {49}	; 0x31
    109c:	48000007 	stmdami	r0, {r0, r1, r2}
    10a0:	13000007 	movwne	r0, #7
    10a4:	5301f300 	movwpl	pc, #4864	; 0x1300	; <UNPREDICTABLE>
    10a8:	3206007d 	andcc	r0, r6, #125	; 0x7d
    10ac:	9f300324 	svcls	0x00300324
    10b0:	06220000 	strteq	r0, [r2], -r0
    10b4:	9f1c3122 	svcls	0x001c3122
	...
    10c0:	0000004c 	andeq	r0, r0, ip, asr #32
    10c4:	00000510 	andeq	r0, r0, r0, lsl r5
    10c8:	00590001 	subseq	r0, r9, r1
    10cc:	00000000 	andeq	r0, r0, r0
    10d0:	94000000 	strls	r0, [r0], #-0
    10d4:	d0000001 	andle	r0, r0, r1
    10d8:	02000001 	andeq	r0, r0, #1
    10dc:	d09f3000 	addsle	r3, pc, r0
    10e0:	d4000001 	strle	r0, [r0], #-1
    10e4:	01000001 	tsteq	r0, r1
    10e8:	01d45a00 	bicseq	r5, r4, r0, lsl #20
    10ec:	01ec0000 	mvneq	r0, r0
    10f0:	00020000 	andeq	r0, r2, r0
    10f4:	01ec9f30 	mvneq	r9, r0, lsr pc
    10f8:	01f00000 	mvnseq	r0, r0
    10fc:	00010000 	andeq	r0, r1, r0
    1100:	0001f05a 	andeq	pc, r1, sl, asr r0	; <UNPREDICTABLE>
    1104:	00020000 	andeq	r0, r2, r0
    1108:	30000200 	andcc	r0, r0, r0, lsl #4
    110c:	0002009f 	muleq	r2, pc, r0	; <UNPREDICTABLE>
    1110:	00036400 	andeq	r6, r3, r0, lsl #8
    1114:	5a000100 	bpl	151c <_start-0x6ae4>
    1118:	000003e0 	andeq	r0, r0, r0, ror #7
    111c:	0000073c 	andeq	r0, r0, ip, lsr r7
    1120:	005a0001 	subseq	r0, sl, r1
    1124:	00000000 	andeq	r0, r0, r0
    1128:	28000000 	stmdacs	r0, {}	; <UNPREDICTABLE>
    112c:	44000001 	strmi	r0, [r0], #-1
    1130:	08000001 	stmdaeq	r0, {r0}
    1134:	93409000 	movtls	r9, #0
    1138:	93419004 	movtls	r9, #4100	; 0x1004
    113c:	00016404 	andeq	r6, r1, r4, lsl #8
    1140:	00017700 	andeq	r7, r1, r0, lsl #14
    1144:	90000800 	andls	r0, r0, r0, lsl #16
    1148:	90049340 	andls	r9, r4, r0, asr #6
    114c:	7c049341 	stcvc	3, cr9, [r4], {65}	; 0x41
    1150:	80000001 	andhi	r0, r0, r1
    1154:	08000001 	stmdaeq	r0, {r0}
    1158:	93409000 	movtls	r9, #0
    115c:	93419004 	movtls	r9, #4100	; 0x1004
    1160:	00018004 	andeq	r8, r1, r4
    1164:	00042400 	andeq	r2, r4, r0, lsl #8
    1168:	90000800 	andls	r0, r0, r0, lsl #16
    116c:	90049354 	andls	r9, r4, r4, asr r3
    1170:	24049355 	strcs	r9, [r4], #-853	; 0x355
    1174:	4c000004 	stcmi	0, cr0, [r0], {4}
    1178:	08000004 	stmdaeq	r0, {r2}
    117c:	93409000 	movtls	r9, #0
    1180:	93419004 	movtls	r9, #4100	; 0x1004
    1184:	00047004 	andeq	r7, r4, r4
    1188:	00047400 	andeq	r7, r4, r0, lsl #8
    118c:	90000800 	andls	r0, r0, r0, lsl #16
    1190:	90049340 	andls	r9, r4, r0, asr #6
    1194:	00049341 	andeq	r9, r4, r1, asr #6
    1198:	00000000 	andeq	r0, r0, r0
    119c:	b0000000 	andlt	r0, r0, r0
    11a0:	d4000000 	strle	r0, [r0], #-0
    11a4:	08000000 	stmdaeq	r0, {}	; <UNPREDICTABLE>
    11a8:	934e9000 	movtls	r9, #57344	; 0xe000
    11ac:	934f9004 	movtls	r9, #61444	; 0xf004
    11b0:	0000e004 	andeq	lr, r0, r4
    11b4:	0000f800 	andeq	pc, r0, r0, lsl #16
    11b8:	90000800 	andls	r0, r0, r0, lsl #16
    11bc:	9004934e 	andls	r9, r4, lr, asr #6
    11c0:	4004934f 	andmi	r9, r4, pc, asr #6
    11c4:	68000001 	stmdavs	r0, {r0}
    11c8:	08000001 	stmdaeq	r0, {r0}
    11cc:	934e9000 	movtls	r9, #57344	; 0xe000
    11d0:	934f9004 	movtls	r9, #61444	; 0xf004
    11d4:	00038c04 	andeq	r8, r3, r4, lsl #24
    11d8:	00039800 	andeq	r9, r3, r0, lsl #16
    11dc:	9e000a00 	vmlals.f32	s0, s0, s0
    11e0:	00000008 	andeq	r0, r0, r8
    11e4:	00000000 	andeq	r0, r0, r0
    11e8:	00039800 	andeq	r9, r3, r0, lsl #16
    11ec:	0003d000 	andeq	sp, r3, r0
    11f0:	90000800 	andls	r0, r0, r0, lsl #16
    11f4:	9004934e 	andls	r9, r4, lr, asr #6
    11f8:	4404934f 	strmi	r9, [r4], #-847	; 0x34f
    11fc:	70000004 	andvc	r0, r0, r4
    1200:	08000004 	stmdaeq	r0, {r2}
    1204:	934c9000 	movtls	r9, #49152	; 0xc000
    1208:	934d9004 	movtls	r9, #53252	; 0xd004
    120c:	00048c04 	andeq	r8, r4, r4, lsl #24
    1210:	00051c00 	andeq	r1, r5, r0, lsl #24
    1214:	90000800 	andls	r0, r0, r0, lsl #16
    1218:	90049340 	andls	r9, r4, r0, asr #6
    121c:	1c049341 	stcne	3, cr9, [r4], {65}	; 0x41
    1220:	40000005 	andmi	r0, r0, r5
    1224:	08000005 	stmdaeq	r0, {r0, r2}
    1228:	934e9000 	movtls	r9, #57344	; 0xe000
    122c:	934f9004 	movtls	r9, #61444	; 0xf004
    1230:	00054c04 	andeq	r4, r5, r4, lsl #24
    1234:	00057000 	andeq	r7, r5, r0
    1238:	90000800 	andls	r0, r0, r0, lsl #16
    123c:	9004934e 	andls	r9, r4, lr, asr #6
    1240:	9804934f 	stmdals	r4, {r0, r1, r2, r3, r6, r8, r9, ip, pc}
    1244:	b0000005 	andlt	r0, r0, r5
    1248:	08000005 	stmdaeq	r0, {r0, r2}
    124c:	934e9000 	movtls	r9, #57344	; 0xe000
    1250:	934f9004 	movtls	r9, #61444	; 0xf004
    1254:	0005b404 	andeq	fp, r5, r4, lsl #8
    1258:	0005c400 	andeq	ip, r5, r0, lsl #8
    125c:	90000800 	andls	r0, r0, r0, lsl #16
    1260:	9004934e 	andls	r9, r4, lr, asr #6
    1264:	cc04934f 	stcgt	3, cr9, [r4], {79}	; 0x4f
    1268:	e4000005 	str	r0, [r0], #-5
    126c:	08000005 	stmdaeq	r0, {r0, r2}
    1270:	934e9000 	movtls	r9, #57344	; 0xe000
    1274:	934f9004 	movtls	r9, #61444	; 0xf004
    1278:	0005ec04 	andeq	lr, r5, r4, lsl #24
    127c:	00063c00 	andeq	r3, r6, r0, lsl #24
    1280:	90000800 	andls	r0, r0, r0, lsl #16
    1284:	9004934e 	andls	r9, r4, lr, asr #6
    1288:	6004934f 	andvs	r9, r4, pc, asr #6
    128c:	78000006 	stmdavc	r0, {r1, r2}
    1290:	08000006 	stmdaeq	r0, {r1, r2}
    1294:	934e9000 	movtls	r9, #57344	; 0xe000
    1298:	934f9004 	movtls	r9, #61444	; 0xf004
    129c:	0006a804 	andeq	sl, r6, r4, lsl #16
    12a0:	0006bc00 	andeq	fp, r6, r0, lsl #24
    12a4:	90000800 	andls	r0, r0, r0, lsl #16
    12a8:	9004934e 	andls	r9, r4, lr, asr #6
    12ac:	cc04934f 	stcgt	3, cr9, [r4], {79}	; 0x4f
    12b0:	24000006 	strcs	r0, [r0], #-6
    12b4:	08000007 	stmdaeq	r0, {r0, r1, r2}
    12b8:	934e9000 	movtls	r9, #57344	; 0xe000
    12bc:	934f9004 	movtls	r9, #61444	; 0xf004
    12c0:	00000004 	andeq	r0, r0, r4
	...
    12cc:	00003c00 	andeq	r3, r0, r0, lsl #24
    12d0:	90000800 	andls	r0, r0, r0, lsl #16
    12d4:	90049340 	andls	r9, r4, r0, asr #6
    12d8:	3c049341 	stccc	3, cr9, [r4], {65}	; 0x41
    12dc:	6c000000 	stcvs	0, cr0, [r0], {-0}
    12e0:	08000000 	stmdaeq	r0, {}	; <UNPREDICTABLE>
    12e4:	93429000 	movtls	r9, #8192	; 0x2000
    12e8:	93439004 	movtls	r9, #12292	; 0x3004
    12ec:	00006c04 	andeq	r6, r0, r4, lsl #24
    12f0:	00009700 	andeq	r9, r0, r0, lsl #14
    12f4:	52000600 	andpl	r0, r0, #0, 12
    12f8:	93530493 	cmpls	r3, #-1828716544	; 0x93000000
    12fc:	0000a004 	andeq	sl, r0, r4
    1300:	0000ac00 	andeq	sl, r0, r0, lsl #24
    1304:	52000600 	andpl	r0, r0, #0, 12
    1308:	93530493 	cmpls	r3, #-1828716544	; 0x93000000
    130c:	0000ac04 	andeq	sl, r0, r4, lsl #24
    1310:	0000bc00 	andeq	fp, r0, r0, lsl #24
    1314:	90000800 	andls	r0, r0, r0, lsl #16
    1318:	90049342 	andls	r9, r4, r2, asr #6
    131c:	c0049343 	andgt	r9, r4, r3, asr #6
    1320:	df000000 	svcle	0x00000000
    1324:	06000000 	streq	r0, [r0], -r0
    1328:	04935200 	ldreq	r5, [r3], #512	; 0x200
    132c:	e8049353 	stmda	r4, {r0, r1, r4, r6, r8, r9, ip, pc}
    1330:	f3000000 	vhadd.u8	d0, d0, d0
    1334:	06000000 	streq	r0, [r0], -r0
    1338:	04935200 	ldreq	r5, [r3], #512	; 0x200
    133c:	fc049353 	stc2	3, cr9, [r4], {83}	; 0x53
    1340:	04000000 	streq	r0, [r0], #-0
    1344:	06000001 	streq	r0, [r0], -r1
    1348:	04935200 	ldreq	r5, [r3], #512	; 0x200
    134c:	04049353 	streq	r9, [r4], #-851	; 0x353
    1350:	14000001 	strne	r0, [r0], #-1
    1354:	08000001 	stmdaeq	r0, {r0}
    1358:	93429000 	movtls	r9, #8192	; 0x2000
    135c:	93439004 	movtls	r9, #12292	; 0x3004
    1360:	00011404 	andeq	r1, r1, r4, lsl #8
    1364:	00012000 	andeq	r2, r1, r0
    1368:	52000600 	andpl	r0, r0, #0, 12
    136c:	93530493 	cmpls	r3, #-1828716544	; 0x93000000
    1370:	00000004 	andeq	r0, r0, r4
	...
    137c:	00009700 	andeq	r9, r0, r0, lsl #14
    1380:	50000100 	andpl	r0, r0, r0, lsl #2
    1384:	00000097 	muleq	r0, r7, r0
    1388:	000000a0 	andeq	r0, r0, r0, lsr #1
    138c:	01f30004 	mvnseq	r0, r4
    1390:	00a09f50 	adceq	r9, r0, r0, asr pc
    1394:	00df0000 	sbcseq	r0, pc, r0
    1398:	00010000 	andeq	r0, r1, r0
    139c:	0000df50 	andeq	sp, r0, r0, asr pc
    13a0:	0000e800 	andeq	lr, r0, r0, lsl #16
    13a4:	f3000400 	vshl.u8	d0, d0, d0
    13a8:	e89f5001 	ldm	pc, {r0, ip, lr}	; <UNPREDICTABLE>
    13ac:	f3000000 	vhadd.u8	d0, d0, d0
    13b0:	01000000 	mrseq	r0, (UNDEF: 0)
    13b4:	00f35000 	rscseq	r5, r3, r0
    13b8:	00fc0000 	rscseq	r0, ip, r0
    13bc:	00040000 	andeq	r0, r4, r0
    13c0:	9f5001f3 	svcls	0x005001f3
    13c4:	000000fc 	strdeq	r0, [r0], -ip
    13c8:	00000120 	andeq	r0, r0, r0, lsr #2
    13cc:	20500001 	subscs	r0, r0, r1
    13d0:	58000001 	stmdapl	r0, {r0}
    13d4:	04000001 	streq	r0, [r0], #-1
    13d8:	5001f300 	andpl	pc, r1, r0, lsl #6
    13dc:	0000009f 	muleq	r0, pc, r0	; <UNPREDICTABLE>
    13e0:	00000000 	andeq	r0, r0, r0
    13e4:	00002000 	andeq	r2, r0, r0
    13e8:	00002400 	andeq	r2, r0, r0, lsl #8
    13ec:	71000500 	tstvc	r0, r0, lsl #10
    13f0:	9f264400 	svcls	0x00264400
    13f4:	00000024 	andeq	r0, r0, r4, lsr #32
    13f8:	00000048 	andeq	r0, r0, r8, asr #32
    13fc:	58510001 	ldmdapl	r1, {r0}^
    1400:	97000000 	strls	r0, [r0, -r0]
    1404:	01000000 	mrseq	r0, (UNDEF: 0)
    1408:	00a05100 	adceq	r5, r0, r0, lsl #2
    140c:	00df0000 	sbcseq	r0, pc, r0
    1410:	00010000 	andeq	r0, r1, r0
    1414:	0000e851 	andeq	lr, r0, r1, asr r8
    1418:	0000f300 	andeq	pc, r0, r0, lsl #6
    141c:	51000100 	mrspl	r0, (UNDEF: 16)
    1420:	000000fc 	strdeq	r0, [r0], -ip
    1424:	00000120 	andeq	r0, r0, r0, lsr #2
    1428:	00510001 	subseq	r0, r1, r1
    142c:	00000000 	andeq	r0, r0, r0
    1430:	14000000 	strne	r0, [r0], #-0
    1434:	40000000 	andmi	r0, r0, r0
    1438:	01000000 	mrseq	r0, (UNDEF: 0)
    143c:	00445300 	subeq	r5, r4, r0, lsl #6
    1440:	006c0000 	rsbeq	r0, ip, r0
    1444:	00010000 	andeq	r0, r1, r0
    1448:	00006c53 	andeq	r6, r0, r3, asr ip
    144c:	00009700 	andeq	r9, r0, r0, lsl #14
    1450:	5c000100 	stfpls	f0, [r0], {-0}
    1454:	000000a0 	andeq	r0, r0, r0, lsr #1
    1458:	000000b0 	strheq	r0, [r0], -r0	; <UNPREDICTABLE>
    145c:	c05c0001 	subsgt	r0, ip, r1
    1460:	df000000 	svcle	0x00000000
    1464:	01000000 	mrseq	r0, (UNDEF: 0)
    1468:	00e85c00 	rsceq	r5, r8, r0, lsl #24
    146c:	00f30000 	rscseq	r0, r3, r0
    1470:	00010000 	andeq	r0, r1, r0
    1474:	0000fc5c 	andeq	pc, r0, ip, asr ip	; <UNPREDICTABLE>
    1478:	00010800 	andeq	r0, r1, r0, lsl #16
    147c:	5c000100 	stfpls	f0, [r0], {-0}
	...
    1488:	00000014 	andeq	r0, r0, r4, lsl r0
    148c:	00000040 	andeq	r0, r0, r0, asr #32
    1490:	00520001 	subseq	r0, r2, r1
    1494:	00000000 	andeq	r0, r0, r0
    1498:	14000000 	strne	r0, [r0], #-0
    149c:	40000000 	andmi	r0, r0, r0
    14a0:	06000000 	streq	r0, [r0], -r0
    14a4:	04935200 	ldreq	r5, [r3], #512	; 0x200
    14a8:	6c049353 	stcvs	3, cr9, [r4], {83}	; 0x53
    14ac:	97000000 	strls	r0, [r0, -r0]
    14b0:	06000000 	streq	r0, [r0], -r0
    14b4:	04935200 	ldreq	r5, [r3], #512	; 0x200
    14b8:	a0049353 	andge	r9, r4, r3, asr r3
    14bc:	ac000000 	stcge	0, cr0, [r0], {-0}
    14c0:	06000000 	streq	r0, [r0], -r0
    14c4:	04935200 	ldreq	r5, [r3], #512	; 0x200
    14c8:	c0049353 	andgt	r9, r4, r3, asr r3
    14cc:	df000000 	svcle	0x00000000
    14d0:	06000000 	streq	r0, [r0], -r0
    14d4:	04935200 	ldreq	r5, [r3], #512	; 0x200
    14d8:	e8049353 	stmda	r4, {r0, r1, r4, r6, r8, r9, ip, pc}
    14dc:	f3000000 	vhadd.u8	d0, d0, d0
    14e0:	06000000 	streq	r0, [r0], -r0
    14e4:	04935200 	ldreq	r5, [r3], #512	; 0x200
    14e8:	fc049353 	stc2	3, cr9, [r4], {83}	; 0x53
    14ec:	04000000 	streq	r0, [r0], #-0
    14f0:	06000001 	streq	r0, [r0], -r1
    14f4:	04935200 	ldreq	r5, [r3], #512	; 0x200
    14f8:	20049353 	andcs	r9, r4, r3, asr r3
    14fc:	58000001 	stmdapl	r0, {r0}
    1500:	06000001 	streq	r0, [r0], -r1
    1504:	04935200 	ldreq	r5, [r3], #512	; 0x200
    1508:	00049353 	andeq	r9, r4, r3, asr r3
    150c:	00000000 	andeq	r0, r0, r0
    1510:	44000000 	strmi	r0, [r0], #-0
    1514:	97000000 	strls	r0, [r0, -r0]
    1518:	06000000 	streq	r0, [r0], -r0
    151c:	04935200 	ldreq	r5, [r3], #512	; 0x200
    1520:	a0049353 	andge	r9, r4, r3, asr r3
    1524:	ac000000 	stcge	0, cr0, [r0], {-0}
    1528:	06000000 	streq	r0, [r0], -r0
    152c:	04935200 	ldreq	r5, [r3], #512	; 0x200
    1530:	c0049353 	andgt	r9, r4, r3, asr r3
    1534:	df000000 	svcle	0x00000000
    1538:	06000000 	streq	r0, [r0], -r0
    153c:	04935200 	ldreq	r5, [r3], #512	; 0x200
    1540:	e8049353 	stmda	r4, {r0, r1, r4, r6, r8, r9, ip, pc}
    1544:	f3000000 	vhadd.u8	d0, d0, d0
    1548:	06000000 	streq	r0, [r0], -r0
    154c:	04935200 	ldreq	r5, [r3], #512	; 0x200
    1550:	fc049353 	stc2	3, cr9, [r4], {83}	; 0x53
    1554:	04000000 	streq	r0, [r0], #-0
    1558:	06000001 	streq	r0, [r0], -r1
    155c:	04935200 	ldreq	r5, [r3], #512	; 0x200
    1560:	20049353 	andcs	r9, r4, r3, asr r3
    1564:	58000001 	stmdapl	r0, {r0}
    1568:	06000001 	streq	r0, [r0], -r1
    156c:	04935200 	ldreq	r5, [r3], #512	; 0x200
    1570:	00049353 	andeq	r9, r4, r3, asr r3
    1574:	00000000 	andeq	r0, r0, r0
    1578:	b8000000 	stmdalt	r0, {}	; <UNPREDICTABLE>
    157c:	c0000000 	andgt	r0, r0, r0
    1580:	06000000 	streq	r0, [r0], -r0
    1584:	04935200 	ldreq	r5, [r3], #512	; 0x200
    1588:	20049353 	andcs	r9, r4, r3, asr r3
    158c:	58000001 	stmdapl	r0, {r0}
    1590:	06000001 	streq	r0, [r0], -r1
    1594:	04935200 	ldreq	r5, [r3], #512	; 0x200
    1598:	00049353 	andeq	r9, r4, r3, asr r3
    159c:	00000000 	andeq	r0, r0, r0
    15a0:	10000000 	andne	r0, r0, r0
    15a4:	58000001 	stmdapl	r0, {r0}
    15a8:	06000001 	streq	r0, [r0], -r1
    15ac:	04935200 	ldreq	r5, [r3], #512	; 0x200
    15b0:	00049353 	andeq	r9, r4, r3, asr r3
	...
    15bc:	38000000 	stmdacc	r0, {}	; <UNPREDICTABLE>
    15c0:	08000000 	stmdaeq	r0, {}	; <UNPREDICTABLE>
    15c4:	93409000 	movtls	r9, #0
    15c8:	93419004 	movtls	r9, #4100	; 0x1004
    15cc:	00003804 	andeq	r3, r0, r4, lsl #16
    15d0:	00012c00 	andeq	r2, r1, r0, lsl #24
    15d4:	52000600 	andpl	r0, r0, #0, 12
    15d8:	93530493 	cmpls	r3, #-1828716544	; 0x93000000
    15dc:	00012c04 	andeq	r2, r1, r4, lsl #24
    15e0:	00013000 	andeq	r3, r1, r0
    15e4:	f3000600 	vmax.u8	d0, d0, d0
    15e8:	2540f503 	strbcs	pc, [r0, #-1283]	; 0x503	; <UNPREDICTABLE>
    15ec:	0000009f 	muleq	r0, pc, r0	; <UNPREDICTABLE>
    15f0:	00000000 	andeq	r0, r0, r0
    15f4:	00000c00 	andeq	r0, r0, r0, lsl #24
    15f8:	00009000 	andeq	r9, r0, r0
    15fc:	53000100 	movwpl	r0, #256	; 0x100
    1600:	00000090 	muleq	r0, r0, r0
    1604:	0000009c 	muleq	r0, ip, r0
    1608:	9c540001 	mrrcls	0, 0, r0, r4, cr1
    160c:	ec000000 	stc	0, cr0, [r0], {-0}
    1610:	01000000 	mrseq	r0, (UNDEF: 0)
    1614:	00ec5300 	rsceq	r5, ip, r0, lsl #6
    1618:	00f00000 	rscseq	r0, r0, r0
    161c:	00010000 	andeq	r0, r1, r0
    1620:	0000f054 	andeq	pc, r0, r4, asr r0	; <UNPREDICTABLE>
    1624:	00010800 	andeq	r0, r1, r0, lsl #16
    1628:	53000100 	movwpl	r0, #256	; 0x100
    162c:	00000108 	andeq	r0, r0, r8, lsl #2
    1630:	00000110 	andeq	r0, r0, r0, lsl r1
    1634:	10540001 	subsne	r0, r4, r1
    1638:	24000001 	strcs	r0, [r0], #-1
    163c:	01000001 	tsteq	r0, r1
    1640:	01245300 	teqeq	r4, r0, lsl #6
    1644:	01300000 	teqeq	r0, r0
    1648:	00010000 	andeq	r0, r1, r0
    164c:	00000054 	andeq	r0, r0, r4, asr r0
    1650:	00000000 	andeq	r0, r0, r0
    1654:	00001000 	andeq	r1, r0, r0
    1658:	00009400 	andeq	r9, r0, r0, lsl #8
    165c:	52000100 	andpl	r0, r0, #0, 2
    1660:	00000094 	muleq	r0, r4, r0
    1664:	0000009c 	muleq	r0, ip, r0
    1668:	9f300002 	svcls	0x00300002
    166c:	0000009c 	muleq	r0, ip, r0
    1670:	00000108 	andeq	r0, r0, r8, lsl #2
    1674:	08520001 	ldmdaeq	r2, {r0}^
    1678:	10000001 	andne	r0, r0, r1
    167c:	01000001 	tsteq	r0, r1
    1680:	01105c00 	tsteq	r0, r0, lsl #24
    1684:	01240000 	teqeq	r4, r0
    1688:	00010000 	andeq	r0, r1, r0
    168c:	00012452 	andeq	r2, r1, r2, asr r4
    1690:	00013000 	andeq	r3, r1, r0
    1694:	5c000100 	stfpls	f0, [r0], {-0}
	...
    16a0:	00000064 	andeq	r0, r0, r4, rrx
    16a4:	0000009c 	muleq	r0, ip, r0
    16a8:	c0500001 	subsgt	r0, r0, r1
    16ac:	10000000 	andne	r0, r0, r0
    16b0:	01000001 	tsteq	r0, r1
    16b4:	00005500 	andeq	r5, r0, r0, lsl #10
    16b8:	00000000 	andeq	r0, r0, r0
    16bc:	01000000 	mrseq	r0, (UNDEF: 0)
    16c0:	01080000 	mrseq	r0, (UNDEF: 8)
    16c4:	00010000 	andeq	r0, r1, r0
    16c8:	0000005c 	andeq	r0, r0, ip, asr r0
    16cc:	00000000 	andeq	r0, r0, r0
    16d0:	00000c00 	andeq	r0, r0, r0, lsl #24
    16d4:	00012c00 	andeq	r2, r1, r0, lsl #24
    16d8:	52000600 	andpl	r0, r0, #0, 12
    16dc:	93530493 	cmpls	r3, #-1828716544	; 0x93000000
    16e0:	00013004 	andeq	r3, r1, r4
    16e4:	00014800 	andeq	r4, r1, r0, lsl #16
    16e8:	52000600 	andpl	r0, r0, #0, 12
    16ec:	93530493 	cmpls	r3, #-1828716544	; 0x93000000
    16f0:	00000004 	andeq	r0, r0, r4
    16f4:	00000000 	andeq	r0, r0, r0
    16f8:	00012c00 	andeq	r2, r1, r0, lsl #24
    16fc:	00014800 	andeq	r4, r1, r0, lsl #16
    1700:	52000600 	andpl	r0, r0, #0, 12
    1704:	93530493 	cmpls	r3, #-1828716544	; 0x93000000
    1708:	00000004 	andeq	r0, r0, r4
	...
    1714:	00002000 	andeq	r2, r0, r0
    1718:	90000800 	andls	r0, r0, r0, lsl #16
    171c:	90049340 	andls	r9, r4, r0, asr #6
    1720:	20049341 	andcs	r9, r4, r1, asr #6
    1724:	28000000 	stmdacs	r0, {}	; <UNPREDICTABLE>
    1728:	06000000 	streq	r0, [r0], -r0
    172c:	04935200 	ldreq	r5, [r3], #512	; 0x200
    1730:	00049353 	andeq	r9, r4, r3, asr r3
    1734:	00000000 	andeq	r0, r0, r0
    1738:	08000000 	stmdaeq	r0, {}	; <UNPREDICTABLE>
    173c:	24000000 	strcs	r0, [r0], #-0
    1740:	01000000 	mrseq	r0, (UNDEF: 0)
    1744:	00005500 	andeq	r5, r0, r0, lsl #10
    1748:	00000000 	andeq	r0, r0, r0
    174c:	000c0000 	andeq	r0, ip, r0
    1750:	00140000 	andseq	r0, r4, r0
    1754:	00010000 	andeq	r0, r1, r0
    1758:	00000051 	andeq	r0, r0, r1, asr r0
    175c:	00000000 	andeq	r0, r0, r0
    1760:	00000800 	andeq	r0, r0, r0, lsl #16
    1764:	00002400 	andeq	r2, r0, r0, lsl #8
    1768:	54000600 	strpl	r0, [r0], #-1536	; 0x600
    176c:	93550493 	cmpls	r5, #-1828716544	; 0x93000000
    1770:	00000004 	andeq	r0, r0, r4
    1774:	00000000 	andeq	r0, r0, r0
    1778:	00000c00 	andeq	r0, r0, r0, lsl #24
    177c:	00001400 	andeq	r1, r0, r0, lsl #8
    1780:	50000600 	andpl	r0, r0, r0, lsl #12
    1784:	93510493 	cmpls	r1, #-1828716544	; 0x93000000
    1788:	00000004 	andeq	r0, r0, r4
    178c:	00000000 	andeq	r0, r0, r0
    1790:	00001c00 	andeq	r1, r0, r0, lsl #24
    1794:	00002800 	andeq	r2, r0, r0, lsl #16
    1798:	52000600 	andpl	r0, r0, #0, 12
    179c:	93530493 	cmpls	r3, #-1828716544	; 0x93000000
    17a0:	00000004 	andeq	r0, r0, r4
	...
    17ac:	00004300 	andeq	r4, r0, r0, lsl #6
    17b0:	90000800 	andls	r0, r0, r0, lsl #16
    17b4:	90049340 	andls	r9, r4, r0, asr #6
    17b8:	43049341 	movwmi	r9, #17217	; 0x4341
    17bc:	48000000 	stmdami	r0, {}	; <UNPREDICTABLE>
    17c0:	06000000 	streq	r0, [r0], -r0
    17c4:	f503f300 			; <UNDEFINED> instruction: 0xf503f300
    17c8:	489f2540 	ldmmi	pc, {r6, r8, sl, sp}	; <UNPREDICTABLE>
    17cc:	54000000 	strpl	r0, [r0], #-0
    17d0:	08000000 	stmdaeq	r0, {}	; <UNPREDICTABLE>
    17d4:	93409000 	movtls	r9, #0
    17d8:	93419004 	movtls	r9, #4100	; 0x1004
    17dc:	00005404 	andeq	r5, r0, r4, lsl #8
    17e0:	00005800 	andeq	r5, r0, r0, lsl #16
    17e4:	f3000600 	vmax.u8	d0, d0, d0
    17e8:	2540f503 	strbcs	pc, [r0, #-1283]	; 0x503	; <UNPREDICTABLE>
    17ec:	0000589f 	muleq	r0, pc, r8	; <UNPREDICTABLE>
    17f0:	00005f00 	andeq	r5, r0, r0, lsl #30
    17f4:	90000800 	andls	r0, r0, r0, lsl #16
    17f8:	90049340 	andls	r9, r4, r0, asr #6
    17fc:	5f049341 	svcpl	0x00049341
    1800:	e4000000 	str	r0, [r0], #-0
    1804:	06000000 	streq	r0, [r0], -r0
    1808:	f503f300 			; <UNDEFINED> instruction: 0xf503f300
    180c:	009f2540 	addseq	r2, pc, r0, asr #10
    1810:	00000000 	andeq	r0, r0, r0
    1814:	60000000 	andvs	r0, r0, r0
    1818:	64000000 	strvs	r0, [r0], #-0
    181c:	01000000 	mrseq	r0, (UNDEF: 0)
    1820:	00005000 	andeq	r5, r0, r0
    1824:	00000000 	andeq	r0, r0, r0
    1828:	000c0000 	andeq	r0, ip, r0
    182c:	00300000 	eorseq	r0, r0, r0
    1830:	00010000 	andeq	r0, r1, r0
    1834:	00004853 	andeq	r4, r0, r3, asr r8
    1838:	00005f00 	andeq	r5, r0, r0, lsl #30
    183c:	53000100 	movwpl	r0, #256	; 0x100
	...
    1848:	0000000c 	andeq	r0, r0, ip
    184c:	00000014 	andeq	r0, r0, r4, lsl r0
    1850:	93520006 	cmpls	r2, #6
    1854:	04935304 	ldreq	r5, [r3], #772	; 0x304
	...
    1860:	0000002c 	andeq	r0, r0, ip, lsr #32
    1864:	00000038 	andeq	r0, r0, r8, lsr r0
    1868:	38500001 	ldmdacc	r0, {r0}^
    186c:	48000000 	stmdami	r0, {}	; <UNPREDICTABLE>
    1870:	01000000 	mrseq	r0, (UNDEF: 0)
    1874:	00485500 	subeq	r5, r8, r0, lsl #10
    1878:	00580000 	subseq	r0, r8, r0
    187c:	00010000 	andeq	r0, r1, r0
    1880:	00000050 	andeq	r0, r0, r0, asr r0
	...
    188c:	00001000 	andeq	r1, r0, r0
    1890:	50000100 	andpl	r0, r0, r0, lsl #2
    1894:	00000010 	andeq	r0, r0, r0, lsl r0
    1898:	00000034 	andeq	r0, r0, r4, lsr r0
    189c:	00540001 	subseq	r0, r4, r1
	...
    18a8:	04000000 	streq	r0, [r0], #-0
    18ac:	01000000 	mrseq	r0, (UNDEF: 0)
    18b0:	00045000 	andeq	r5, r4, r0
    18b4:	000c0000 	andeq	r0, ip, r0
    18b8:	00030000 	andeq	r0, r3, r0
    18bc:	0c9f3070 	ldceq	0, cr3, [pc], {112}	; 0x70
    18c0:	14000000 	strne	r0, [r0], #-0
    18c4:	04000000 	streq	r0, [r0], #-0
    18c8:	5001f300 	andpl	pc, r1, r0, lsl #6
    18cc:	0000009f 	muleq	r0, pc, r0	; <UNPREDICTABLE>
    18d0:	00000000 	andeq	r0, r0, r0
    18d4:	00001400 	andeq	r1, r0, r0, lsl #8
    18d8:	00002000 	andeq	r2, r0, r0
    18dc:	50000100 	andpl	r0, r0, r0, lsl #2
    18e0:	00000020 	andeq	r0, r0, r0, lsr #32
    18e4:	0000002c 	andeq	r0, r0, ip, lsr #32
    18e8:	01700003 	cmneq	r0, r3
    18ec:	00002c9f 	muleq	r0, pc, ip	; <UNPREDICTABLE>
    18f0:	00004000 	andeq	r4, r0, r0
    18f4:	50000100 	andpl	r0, r0, r0, lsl #2
	...
    1900:	00000014 	andeq	r0, r0, r4, lsl r0
    1904:	00000018 	andeq	r0, r0, r8, lsl r0
    1908:	18510001 	ldmdane	r1, {r0}^
    190c:	40000000 	andmi	r0, r0, r0
    1910:	04000000 	streq	r0, [r0], #-0
    1914:	5101f300 	mrspl	pc, SP_irq	; <UNPREDICTABLE>
    1918:	0000009f 	muleq	r0, pc, r0	; <UNPREDICTABLE>
    191c:	00000000 	andeq	r0, r0, r0
    1920:	00004000 	andeq	r4, r0, r0
    1924:	00006000 	andeq	r6, r0, r0
    1928:	50000100 	andpl	r0, r0, r0, lsl #2
    192c:	00000060 	andeq	r0, r0, r0, rrx
    1930:	0000006c 	andeq	r0, r0, ip, rrx
    1934:	01710003 	cmneq	r1, r3
    1938:	00006c9f 	muleq	r0, pc, ip	; <UNPREDICTABLE>
    193c:	00007400 	andeq	r7, r0, r0, lsl #8
    1940:	51000100 	mrspl	r0, (UNDEF: 16)
    1944:	00000074 	andeq	r0, r0, r4, ror r0
    1948:	00000080 	andeq	r0, r0, r0, lsl #1
    194c:	01710003 	cmneq	r1, r3
    1950:	0000009f 	muleq	r0, pc, r0	; <UNPREDICTABLE>
    1954:	00000000 	andeq	r0, r0, r0
    1958:	00004000 	andeq	r4, r0, r0
    195c:	00005000 	andeq	r5, r0, r0
    1960:	51000100 	mrspl	r0, (UNDEF: 16)
    1964:	00000050 	andeq	r0, r0, r0, asr r0
    1968:	00000080 	andeq	r0, r0, r0, lsl #1
    196c:	01f30004 	mvnseq	r0, r4
    1970:	00009f51 	andeq	r9, r0, r1, asr pc
    1974:	00000000 	andeq	r0, r0, r0
    1978:	00400000 	subeq	r0, r0, r0
    197c:	00580000 	subseq	r0, r8, r0
    1980:	00010000 	andeq	r0, r1, r0
    1984:	00005852 	andeq	r5, r0, r2, asr r8
    1988:	00006400 	andeq	r6, r0, r0, lsl #8
    198c:	52000100 	andpl	r0, r0, #0, 2
    1990:	00000064 	andeq	r0, r0, r4, rrx
    1994:	00000068 	andeq	r0, r0, r8, rrx
    1998:	01720003 	cmneq	r2, r3
    199c:	0000689f 	muleq	r0, pc, r8	; <UNPREDICTABLE>
    19a0:	00008000 	andeq	r8, r0, r0
    19a4:	52000100 	andpl	r0, r0, #0, 2
	...
    19b0:	00000040 	andeq	r0, r0, r0, asr #32
    19b4:	00000054 	andeq	r0, r0, r4, asr r0
    19b8:	54530001 	ldrbpl	r0, [r3], #-1
    19bc:	78000000 	stmdavc	r0, {}	; <UNPREDICTABLE>
    19c0:	01000000 	mrseq	r0, (UNDEF: 0)
    19c4:	00005300 	andeq	r5, r0, r0, lsl #6
    19c8:	00000000 	andeq	r0, r0, r0
    19cc:	00480000 	subeq	r0, r8, r0
    19d0:	00600000 	rsbeq	r0, r0, r0
    19d4:	00010000 	andeq	r0, r1, r0
    19d8:	0000605c 	andeq	r6, r0, ip, asr r0
    19dc:	00008000 	andeq	r8, r0, r0
    19e0:	f3000a00 	vpmax.u8	d0, d0, d0
    19e4:	01f35201 	mvnseq	r5, r1, lsl #4
    19e8:	01231c53 	teqeq	r3, r3, asr ip
    19ec:	0000009f 	muleq	r0, pc, r0	; <UNPREDICTABLE>
    19f0:	00000000 	andeq	r0, r0, r0
    19f4:	00008000 	andeq	r8, r0, r0
    19f8:	00008400 	andeq	r8, r0, r0, lsl #8
    19fc:	90000800 	andls	r0, r0, r0, lsl #16
    1a00:	90049340 	andls	r9, r4, r0, asr #6
    1a04:	84049341 	strhi	r9, [r4], #-833	; 0x341
    1a08:	8c000000 	stchi	0, cr0, [r0], {-0}
    1a0c:	06000000 	streq	r0, [r0], -r0
    1a10:	f503f300 			; <UNDEFINED> instruction: 0xf503f300
    1a14:	009f2540 	addseq	r2, pc, r0, asr #10
    1a18:	00000000 	andeq	r0, r0, r0
    1a1c:	8c000000 	stchi	0, cr0, [r0], {-0}
    1a20:	9c000000 	stcls	0, cr0, [r0], {-0}
    1a24:	08000000 	stmdaeq	r0, {}	; <UNPREDICTABLE>
    1a28:	93409000 	movtls	r9, #0
    1a2c:	93419004 	movtls	r9, #4100	; 0x1004
    1a30:	00009c04 	andeq	r9, r0, r4, lsl #24
    1a34:	0000a400 	andeq	sl, r0, r0, lsl #8
    1a38:	90000800 	andls	r0, r0, r0, lsl #16
    1a3c:	90049340 	andls	r9, r4, r0, asr #6
    1a40:	00049341 	andeq	r9, r4, r1, asr #6
    1a44:	00000000 	andeq	r0, r0, r0
    1a48:	d8000000 	stmdale	r0, {}	; <UNPREDICTABLE>
    1a4c:	df000000 	svcle	0x00000000
    1a50:	08000000 	stmdaeq	r0, {}	; <UNPREDICTABLE>
    1a54:	93409000 	movtls	r9, #0
    1a58:	93419004 	movtls	r9, #4100	; 0x1004
    1a5c:	0000df04 	andeq	sp, r0, r4, lsl #30
    1a60:	0000e400 	andeq	lr, r0, r0, lsl #8
    1a64:	f3000600 	vmax.u8	d0, d0, d0
    1a68:	2540f503 	strbcs	pc, [r0, #-1283]	; 0x503	; <UNPREDICTABLE>
    1a6c:	0000009f 	muleq	r0, pc, r0	; <UNPREDICTABLE>
    1a70:	00000000 	andeq	r0, r0, r0
    1a74:	0000e400 	andeq	lr, r0, r0, lsl #8
    1a78:	00010800 	andeq	r0, r1, r0, lsl #16
    1a7c:	50000100 	andpl	r0, r0, r0, lsl #2
    1a80:	00000108 	andeq	r0, r0, r8, lsl #2
    1a84:	0000017c 	andeq	r0, r0, ip, ror r1
    1a88:	02700003 	rsbseq	r0, r0, #3
    1a8c:	00017c9f 	muleq	r1, pc, ip	; <UNPREDICTABLE>
    1a90:	00029400 	andeq	r9, r2, r0, lsl #8
    1a94:	f3000400 	vshl.u8	d0, d0, d0
    1a98:	009f5001 	addseq	r5, pc, r1
    1a9c:	00000000 	andeq	r0, r0, r0
    1aa0:	e4000000 	str	r0, [r0], #-0
    1aa4:	54000000 	strpl	r0, [r0], #-0
    1aa8:	01000001 	tsteq	r0, r1
    1aac:	01545100 	cmpeq	r4, r0, lsl #2
    1ab0:	01c40000 	biceq	r0, r4, r0
    1ab4:	00010000 	andeq	r0, r1, r0
    1ab8:	0001c455 	andeq	ip, r1, r5, asr r4
    1abc:	0001d000 	andeq	sp, r1, r0
    1ac0:	51000100 	mrspl	r0, (UNDEF: 16)
    1ac4:	000001d0 	ldrdeq	r0, [r0], -r0	; <UNPREDICTABLE>
    1ac8:	00000204 	andeq	r0, r0, r4, lsl #4
    1acc:	04550001 	ldrbeq	r0, [r5], #-1
    1ad0:	18000002 	stmdane	r0, {r1}
    1ad4:	01000002 	tsteq	r0, r2
    1ad8:	02185100 	andseq	r5, r8, #0, 2
    1adc:	02380000 	eorseq	r0, r8, #0
    1ae0:	00010000 	andeq	r0, r1, r0
    1ae4:	00023855 	andeq	r3, r2, r5, asr r8
    1ae8:	00023b00 	andeq	r3, r2, r0, lsl #22
    1aec:	51000100 	mrspl	r0, (UNDEF: 16)
    1af0:	0000023b 	andeq	r0, r0, fp, lsr r2
    1af4:	00000278 	andeq	r0, r0, r8, ror r2
    1af8:	78550001 	ldmdavc	r5, {r0}^
    1afc:	94000002 	strls	r0, [r0], #-2
    1b00:	04000002 	streq	r0, [r0], #-2
    1b04:	5101f300 	mrspl	pc, SP_irq	; <UNPREDICTABLE>
    1b08:	0000009f 	muleq	r0, pc, r0	; <UNPREDICTABLE>
    1b0c:	00000000 	andeq	r0, r0, r0
    1b10:	0000e400 	andeq	lr, r0, r0, lsl #8
    1b14:	0000f800 	andeq	pc, r0, r0, lsl #16
    1b18:	52000100 	andpl	r0, r0, #0, 2
    1b1c:	000000f8 	strdeq	r0, [r0], -r8
    1b20:	00000278 	andeq	r0, r0, r8, ror r2
    1b24:	78540001 	ldmdavc	r4, {r0}^
    1b28:	94000002 	strls	r0, [r0], #-2
    1b2c:	04000002 	streq	r0, [r0], #-2
    1b30:	5201f300 	andpl	pc, r1, #0, 6
    1b34:	0000009f 	muleq	r0, pc, r0	; <UNPREDICTABLE>
    1b38:	00000000 	andeq	r0, r0, r0
    1b3c:	0000e400 	andeq	lr, r0, r0, lsl #8
    1b40:	00016400 	andeq	r6, r1, r0, lsl #8
    1b44:	53000100 	movwpl	r0, #256	; 0x100
    1b48:	00000168 	andeq	r0, r0, r8, ror #2
    1b4c:	0000016c 	andeq	r0, r0, ip, ror #2
    1b50:	c4530001 	ldrbgt	r0, [r3], #-1
    1b54:	c8000001 	stmdagt	r0, {r0}
    1b58:	01000001 	tsteq	r0, r1
    1b5c:	01c85300 	biceq	r5, r8, r0, lsl #6
    1b60:	01d00000 	bicseq	r0, r0, r0
    1b64:	00010000 	andeq	r0, r1, r0
    1b68:	0001d05c 	andeq	sp, r1, ip, asr r0
    1b6c:	00020400 	andeq	r0, r2, r0, lsl #8
    1b70:	f3000400 	vshl.u8	d0, d0, d0
    1b74:	049f5301 	ldreq	r5, [pc], #769	; 1b7c <_start-0x6484>
    1b78:	14000002 	strne	r0, [r0], #-2
    1b7c:	01000002 	tsteq	r0, r2
    1b80:	02145300 	andseq	r5, r4, #0, 6
    1b84:	02180000 	andseq	r0, r8, #0
    1b88:	00010000 	andeq	r0, r1, r0
    1b8c:	0002185c 	andeq	r1, r2, ip, asr r8
    1b90:	00023800 	andeq	r3, r2, r0, lsl #16
    1b94:	f3000400 	vshl.u8	d0, d0, d0
    1b98:	389f5301 	ldmcc	pc, {r0, r8, r9, ip, lr}	; <UNPREDICTABLE>
    1b9c:	3b000002 	blcc	1bac <_start-0x6454>
    1ba0:	01000002 	tsteq	r0, r2
    1ba4:	023b5300 	eorseq	r5, fp, #0, 6
    1ba8:	02540000 	subseq	r0, r4, #0
    1bac:	00040000 	andeq	r0, r4, r0
    1bb0:	9f5301f3 	svcls	0x005301f3
	...
    1bbc:	000000e4 	andeq	r0, r0, r4, ror #1
    1bc0:	00000100 	andeq	r0, r0, r0, lsl #2
    1bc4:	00910002 	addseq	r0, r1, r2
    1bc8:	00000100 	andeq	r0, r0, r0, lsl #2
    1bcc:	0000023b 	andeq	r0, r0, fp, lsr r2
    1bd0:	54520001 	ldrbpl	r0, [r2], #-1
    1bd4:	5b000002 	blpl	1be4 <_start-0x641c>
    1bd8:	01000002 	tsteq	r0, r2
    1bdc:	00005200 	andeq	r5, r0, r0, lsl #4
    1be0:	00000000 	andeq	r0, r0, r0
    1be4:	01000000 	mrseq	r0, (UNDEF: 0)
    1be8:	017c0000 	cmneq	ip, r0
    1bec:	00010000 	andeq	r0, r1, r0
    1bf0:	00017c5d 	andeq	r7, r1, sp, asr ip
    1bf4:	00018000 	andeq	r8, r1, r0
    1bf8:	50000100 	andpl	r0, r0, r0, lsl #2
    1bfc:	00000180 	andeq	r0, r0, r0, lsl #3
    1c00:	00000184 	andeq	r0, r0, r4, lsl #3
    1c04:	84510001 	ldrbhi	r0, [r1], #-1
    1c08:	c4000001 	strgt	r0, [r0], #-1
    1c0c:	01000001 	tsteq	r0, r1
    1c10:	01c45000 	biceq	r5, r4, r0
    1c14:	01d00000 	bicseq	r0, r0, r0
    1c18:	00010000 	andeq	r0, r1, r0
    1c1c:	0001d05d 	andeq	sp, r1, sp, asr r0
    1c20:	0001d400 	andeq	sp, r1, r0, lsl #8
    1c24:	50000100 	andpl	r0, r0, r0, lsl #2
    1c28:	000001d4 	ldrdeq	r0, [r0], -r4
    1c2c:	000001d8 	ldrdeq	r0, [r0], -r8
    1c30:	d8530001 	ldmdale	r3, {r0}^
    1c34:	ec000001 	stc	0, cr0, [r0], {1}
    1c38:	01000001 	tsteq	r0, r1
    1c3c:	01ec5000 	mvneq	r5, r0
    1c40:	01f80000 	mvnseq	r0, r0
    1c44:	00030000 	andeq	r0, r3, r0
    1c48:	f89f0170 			; <UNDEFINED> instruction: 0xf89f0170
    1c4c:	04000001 	streq	r0, [r0], #-1
    1c50:	01000002 	tsteq	r0, r2
    1c54:	02045000 	andeq	r5, r4, #0
    1c58:	020c0000 	andeq	r0, ip, #0
    1c5c:	00040000 	andeq	r0, r4, r0
    1c60:	9f7fa191 	svcls	0x007fa191
    1c64:	0000020c 	andeq	r0, r0, ip, lsl #4
    1c68:	00000210 	andeq	r0, r0, r0, lsl r2
    1c6c:	10500001 	subsne	r0, r0, r1
    1c70:	18000002 	stmdane	r0, {r1}
    1c74:	01000002 	tsteq	r0, r2
    1c78:	02185d00 	andseq	r5, r8, #0, 26
    1c7c:	021c0000 	andseq	r0, ip, #0
    1c80:	00010000 	andeq	r0, r1, r0
    1c84:	00021c53 	andeq	r1, r2, r3, asr ip
    1c88:	00023800 	andeq	r3, r2, r0, lsl #16
    1c8c:	50000100 	andpl	r0, r0, r0, lsl #2
    1c90:	00000238 	andeq	r0, r0, r8, lsr r2
    1c94:	00000254 	andeq	r0, r0, r4, asr r2
    1c98:	545d0001 	ldrbpl	r0, [sp], #-1
    1c9c:	5b000002 	blpl	1cac <_start-0x6354>
    1ca0:	01000002 	tsteq	r0, r2
    1ca4:	00005000 	andeq	r5, r0, r0
    1ca8:	00000000 	andeq	r0, r0, r0
    1cac:	01040000 	mrseq	r0, (UNDEF: 4)
    1cb0:	01500000 	cmpeq	r0, r0
    1cb4:	00010000 	andeq	r0, r1, r0
    1cb8:	0001505c 	andeq	r5, r1, ip, asr r0
    1cbc:	00016400 	andeq	r6, r1, r0, lsl #8
    1cc0:	53000100 	movwpl	r0, #256	; 0x100
    1cc4:	00000164 	andeq	r0, r0, r4, ror #2
    1cc8:	00000168 	andeq	r0, r0, r8, ror #2
    1ccc:	685c0001 	ldmdavs	ip, {r0}^
    1cd0:	6c000001 	stcvs	0, cr0, [r0], {1}
    1cd4:	01000001 	tsteq	r0, r1
    1cd8:	016c5300 	cmneq	ip, r0, lsl #6
    1cdc:	01c40000 	biceq	r0, r4, r0
    1ce0:	00010000 	andeq	r0, r1, r0
    1ce4:	0001c45c 	andeq	ip, r1, ip, asr r4
    1ce8:	0001c800 	andeq	ip, r1, r0, lsl #16
    1cec:	53000100 	movwpl	r0, #256	; 0x100
    1cf0:	000001c8 	andeq	r0, r0, r8, asr #3
    1cf4:	000001e4 	andeq	r0, r0, r4, ror #3
    1cf8:	e45c0001 	ldrb	r0, [ip], #-1
    1cfc:	e8000001 	stmda	r0, {r0}
    1d00:	05000001 	streq	r0, [r0, #-1]
    1d04:	34007c00 	strcc	r7, [r0], #-3072	; 0xc00
    1d08:	01e89f25 	mvneq	r9, r5, lsr #30
    1d0c:	02040000 	andeq	r0, r4, #0
    1d10:	00010000 	andeq	r0, r1, r0
    1d14:	0002045c 	andeq	r0, r2, ip, asr r4
    1d18:	00021400 	andeq	r1, r2, r0, lsl #8
    1d1c:	53000100 	movwpl	r0, #256	; 0x100
    1d20:	00000214 	andeq	r0, r0, r4, lsl r2
    1d24:	00000228 	andeq	r0, r0, r8, lsr #4
    1d28:	285c0001 	ldmdacs	ip, {r0}^
    1d2c:	30000002 	andcc	r0, r0, r2
    1d30:	05000002 	streq	r0, [r0, #-2]
    1d34:	31007c00 	tstcc	r0, r0, lsl #24
    1d38:	02309f25 	eorseq	r9, r0, #37, 30	; 0x94
    1d3c:	02380000 	eorseq	r0, r8, #0
    1d40:	00010000 	andeq	r0, r1, r0
    1d44:	0002385c 	andeq	r3, r2, ip, asr r8
    1d48:	00023b00 	andeq	r3, r2, r0, lsl #22
    1d4c:	53000100 	movwpl	r0, #256	; 0x100
    1d50:	0000023b 	andeq	r0, r0, fp, lsr r2
    1d54:	00000254 	andeq	r0, r0, r4, asr r2
    1d58:	01f30004 	mvnseq	r0, r4
    1d5c:	02549f53 	subseq	r9, r4, #332	; 0x14c
    1d60:	025b0000 	subseq	r0, fp, #0
    1d64:	00010000 	andeq	r0, r1, r0
    1d68:	0000005c 	andeq	r0, r0, ip, asr r0
    1d6c:	00000000 	andeq	r0, r0, r0
    1d70:	00015000 	andeq	r5, r1, r0
    1d74:	00016000 	andeq	r6, r1, r0
    1d78:	30000200 	andcc	r0, r0, r0, lsl #4
    1d7c:	0001609f 	muleq	r1, pc, r0	; <UNPREDICTABLE>
    1d80:	00016800 	andeq	r6, r1, r0, lsl #16
    1d84:	31000200 	mrscc	r0, R8_usr
    1d88:	0001689f 	muleq	r1, pc, r8	; <UNPREDICTABLE>
    1d8c:	00016c00 	andeq	r6, r1, r0, lsl #24
    1d90:	30000200 	andcc	r0, r0, r0, lsl #4
    1d94:	0000009f 	muleq	r0, pc, r0	; <UNPREDICTABLE>
    1d98:	00000000 	andeq	r0, r0, r0
    1d9c:	00029400 	andeq	r9, r2, r0, lsl #8
    1da0:	0002a300 	andeq	sl, r2, r0, lsl #6
    1da4:	50000100 	andpl	r0, r0, r0, lsl #2
    1da8:	000002a3 	andeq	r0, r0, r3, lsr #5
    1dac:	000002bc 			; <UNDEFINED> instruction: 0x000002bc
    1db0:	01f30004 	mvnseq	r0, r4
    1db4:	02bc9f50 	adcseq	r9, ip, #80, 30	; 0x140
    1db8:	02e80000 	rsceq	r0, r8, #0
    1dbc:	00010000 	andeq	r0, r1, r0
    1dc0:	00000050 	andeq	r0, r0, r0, asr r0
    1dc4:	00000000 	andeq	r0, r0, r0
    1dc8:	00029400 	andeq	r9, r2, r0, lsl #8
    1dcc:	0002a300 	andeq	sl, r2, r0, lsl #6
    1dd0:	51000100 	mrspl	r0, (UNDEF: 16)
    1dd4:	000002a3 	andeq	r0, r0, r3, lsr #5
    1dd8:	000002bc 			; <UNDEFINED> instruction: 0x000002bc
    1ddc:	01f30004 	mvnseq	r0, r4
    1de0:	02bc9f51 	adcseq	r9, ip, #324	; 0x144
    1de4:	02e80000 	rsceq	r0, r8, #0
    1de8:	00010000 	andeq	r0, r1, r0
    1dec:	00000051 	andeq	r0, r0, r1, asr r0
    1df0:	00000000 	andeq	r0, r0, r0
    1df4:	0002e800 	andeq	lr, r2, r0, lsl #16
    1df8:	00033300 	andeq	r3, r3, r0, lsl #6
    1dfc:	50000100 	andpl	r0, r0, r0, lsl #2
    1e00:	00000333 	andeq	r0, r0, r3, lsr r3
    1e04:	000003e4 	andeq	r0, r0, r4, ror #7
    1e08:	e4560001 	ldrb	r0, [r6], #-1
    1e0c:	e8000003 	stmda	r0, {r0, r1}
    1e10:	01000003 	tsteq	r0, r3
    1e14:	00005000 	andeq	r5, r0, r0
    1e18:	00000000 	andeq	r0, r0, r0
    1e1c:	02e80000 	rsceq	r0, r8, #0
    1e20:	031c0000 	tsteq	ip, #0
    1e24:	00080000 	andeq	r0, r8, r0
    1e28:	04934090 	ldreq	r4, [r3], #144	; 0x90
    1e2c:	04934190 	ldreq	r4, [r3], #400	; 0x190
    1e30:	0000031c 	andeq	r0, r0, ip, lsl r3
    1e34:	00000320 	andeq	r0, r0, r0, lsr #6
    1e38:	50900008 	addspl	r0, r0, r8
    1e3c:	51900493 			; <UNDEFINED> instruction: 0x51900493
    1e40:	03200493 	teqeq	r0, #-1828716544	; 0x93000000
    1e44:	03240000 	teqeq	r4, #0
    1e48:	00080000 	andeq	r0, r8, r0
    1e4c:	04934090 	ldreq	r4, [r3], #144	; 0x90
    1e50:	04934190 	ldreq	r4, [r3], #400	; 0x190
    1e54:	00000324 	andeq	r0, r0, r4, lsr #6
    1e58:	000003e0 	andeq	r0, r0, r0, ror #7
    1e5c:	50900008 	addspl	r0, r0, r8
    1e60:	51900493 			; <UNDEFINED> instruction: 0x51900493
    1e64:	00000493 	muleq	r0, r3, r4
    1e68:	00000000 	andeq	r0, r0, r0
    1e6c:	02e80000 	rsceq	r0, r8, #0
    1e70:	03330000 	teqeq	r3, #0
    1e74:	00010000 	andeq	r0, r1, r0
    1e78:	00033351 	andeq	r3, r3, r1, asr r3
    1e7c:	0003e400 	andeq	lr, r3, r0, lsl #8
    1e80:	58000100 	stmdapl	r0, {r8}
    1e84:	000003e4 	andeq	r0, r0, r4, ror #7
    1e88:	000003e8 	andeq	r0, r0, r8, ror #7
    1e8c:	01f30004 	mvnseq	r0, r4
    1e90:	00009f51 	andeq	r9, r0, r1, asr pc
    1e94:	00000000 	andeq	r0, r0, r0
    1e98:	03000000 	movweq	r0, #0
    1e9c:	03100000 	tsteq	r0, #0
    1ea0:	00010000 	andeq	r0, r1, r0
    1ea4:	00031050 	andeq	r1, r3, r0, asr r0
    1ea8:	00032000 	andeq	r2, r3, r0
    1eac:	54000100 	strpl	r0, [r0], #-256	; 0x100
    1eb0:	00000320 	andeq	r0, r0, r0, lsr #6
    1eb4:	00000324 	andeq	r0, r0, r4, lsr #6
    1eb8:	24500001 	ldrbcs	r0, [r0], #-1
    1ebc:	e4000003 	str	r0, [r0], #-3
    1ec0:	01000003 	tsteq	r0, r3
    1ec4:	00005400 	andeq	r5, r0, r0, lsl #8
    1ec8:	00000000 	andeq	r0, r0, r0
    1ecc:	03380000 	teqeq	r8, #0
    1ed0:	033f0000 	teqeq	pc, #0
    1ed4:	00010000 	andeq	r0, r1, r0
    1ed8:	00033f50 	andeq	r3, r3, r0, asr pc
    1edc:	0003e400 	andeq	lr, r3, r0, lsl #8
    1ee0:	57000100 	strpl	r0, [r0, -r0, lsl #2]
	...
    1eec:	00000344 	andeq	r0, r0, r4, asr #6
    1ef0:	00000354 	andeq	r0, r0, r4, asr r3
    1ef4:	54500001 	ldrbpl	r0, [r0], #-1
    1ef8:	5f000003 	svcpl	0x00000003
    1efc:	01000003 	tsteq	r0, r3
    1f00:	00005300 	andeq	r5, r0, r0, lsl #6
    1f04:	00000000 	andeq	r0, r0, r0
    1f08:	03980000 	orrseq	r0, r8, #0
    1f0c:	03a40000 			; <UNDEFINED> instruction: 0x03a40000
    1f10:	00020000 	andeq	r0, r2, r0
    1f14:	03a49f30 			; <UNDEFINED> instruction: 0x03a49f30
    1f18:	03d30000 	bicseq	r0, r3, #0
    1f1c:	00010000 	andeq	r0, r1, r0
    1f20:	00000053 	andeq	r0, r0, r3, asr r0
    1f24:	00000000 	andeq	r0, r0, r0
    1f28:	0003e800 	andeq	lr, r3, r0, lsl #16
    1f2c:	00041400 	andeq	r1, r4, r0, lsl #8
    1f30:	50000100 	andpl	r0, r0, r0, lsl #2
    1f34:	00000414 	andeq	r0, r0, r4, lsl r4
    1f38:	00000660 	andeq	r0, r0, r0, ror #12
    1f3c:	605b0001 	subsvs	r0, fp, r1
    1f40:	70000006 	andvc	r0, r0, r6
    1f44:	04000006 	streq	r0, [r0], #-6
    1f48:	5001f300 	andpl	pc, r1, r0, lsl #6
    1f4c:	0000009f 	muleq	r0, pc, r0	; <UNPREDICTABLE>
    1f50:	00000000 	andeq	r0, r0, r0
    1f54:	0003e800 	andeq	lr, r3, r0, lsl #16
    1f58:	0003fc00 	andeq	pc, r3, r0, lsl #24
    1f5c:	51000100 	mrspl	r0, (UNDEF: 16)
    1f60:	000003fc 	strdeq	r0, [r0], -ip
    1f64:	00000414 	andeq	r0, r0, r4, lsl r4
    1f68:	01710003 	cmneq	r1, r3
    1f6c:	0004149f 	muleq	r4, pc, r4	; <UNPREDICTABLE>
    1f70:	00067000 	andeq	r7, r6, r0
    1f74:	f3000400 	vshl.u8	d0, d0, d0
    1f78:	009f5101 	addseq	r5, pc, r1, lsl #2
    1f7c:	00000000 	andeq	r0, r0, r0
    1f80:	e8000000 	stmda	r0, {}	; <UNPREDICTABLE>
    1f84:	1c000003 	stcne	0, cr0, [r0], {3}
    1f88:	01000004 	tsteq	r0, r4
    1f8c:	041c5200 	ldreq	r5, [ip], #-512	; 0x200
    1f90:	04440000 	strbeq	r0, [r4], #-0
    1f94:	00010000 	andeq	r0, r1, r0
    1f98:	00044452 	andeq	r4, r4, r2, asr r4
    1f9c:	00061000 	andeq	r1, r6, r0
    1fa0:	56000100 	strpl	r0, [r0], -r0, lsl #2
    1fa4:	00000610 	andeq	r0, r0, r0, lsl r6
    1fa8:	00000670 	andeq	r0, r0, r0, ror r6
    1fac:	00520001 	subseq	r0, r2, r1
    1fb0:	00000000 	andeq	r0, r0, r0
    1fb4:	e8000000 	stmda	r0, {}	; <UNPREDICTABLE>
    1fb8:	04000003 	streq	r0, [r0], #-3
    1fbc:	01000004 	tsteq	r0, r4
    1fc0:	05045300 	streq	r5, [r4, #-768]	; 0x300
    1fc4:	05100000 	ldreq	r0, [r0, #-0]
    1fc8:	00010000 	andeq	r0, r1, r0
    1fcc:	00000059 	andeq	r0, r0, r9, asr r0
    1fd0:	00000000 	andeq	r0, r0, r0
    1fd4:	0003f800 	andeq	pc, r3, r0, lsl #16
    1fd8:	00041400 	andeq	r1, r4, r0, lsl #8
    1fdc:	50000100 	andpl	r0, r0, r0, lsl #2
    1fe0:	00000414 	andeq	r0, r0, r4, lsl r4
    1fe4:	00000418 	andeq	r0, r0, r8, lsl r4
    1fe8:	18540001 	ldmdane	r4, {r0}^
    1fec:	24000004 	strcs	r0, [r0], #-4
    1ff0:	03000004 	movweq	r0, #4
    1ff4:	9f017400 	svcls	0x00017400
    1ff8:	00000424 	andeq	r0, r0, r4, lsr #8
    1ffc:	00000430 	andeq	r0, r0, r0, lsr r4
    2000:	30540001 	subscc	r0, r4, r1
    2004:	3c000004 	stccc	0, cr0, [r0], {4}
    2008:	03000004 	movweq	r0, #4
    200c:	9f017400 	svcls	0x00017400
    2010:	0000043c 	andeq	r0, r0, ip, lsr r4
    2014:	00000614 	andeq	r0, r0, r4, lsl r6
    2018:	14540001 	ldrbne	r0, [r4], #-1
    201c:	20000006 	andcs	r0, r0, r6
    2020:	03000006 	movweq	r0, #6
    2024:	9f017400 	svcls	0x00017400
    2028:	00000620 	andeq	r0, r0, r0, lsr #12
    202c:	0000064c 	andeq	r0, r0, ip, asr #12
    2030:	4c540001 	mrrcmi	0, 0, r0, r4, cr1
    2034:	58000006 	stmdapl	r0, {r1, r2}
    2038:	01000006 	tsteq	r0, r6
    203c:	06585000 	ldrbeq	r5, [r8], -r0
    2040:	06600000 	strbteq	r0, [r0], -r0
    2044:	00030000 	andeq	r0, r3, r0
    2048:	009f0174 	addseq	r0, pc, r4, ror r1	; <UNPREDICTABLE>
	...
    2054:	60000004 	andvs	r0, r0, r4
    2058:	01000006 	tsteq	r0, r6
    205c:	06605800 	strbteq	r5, [r0], -r0, lsl #16
    2060:	06700000 	ldrbteq	r0, [r0], -r0
    2064:	000a0000 	andeq	r0, sl, r0
    2068:	f35101f3 	vbsl	q8, <illegal reg q8.5>, <illegal reg q9.5>
    206c:	31225001 	teqcc	r2, r1
    2070:	00009f1c 	andeq	r9, r0, ip, lsl pc
    2074:	00000000 	andeq	r0, r0, r0
    2078:	05200000 	streq	r0, [r0, #-0]!
    207c:	05240000 	streq	r0, [r4, #-0]!
    2080:	00010000 	andeq	r0, r1, r0
    2084:	00054850 	andeq	r4, r5, r0, asr r8
    2088:	00054c00 	andeq	r4, r5, r0, lsl #24
    208c:	50000100 	andpl	r0, r0, r0, lsl #2
    2090:	0000056c 	andeq	r0, r0, ip, ror #10
    2094:	00000570 	andeq	r0, r0, r0, ror r5
    2098:	90500001 	subsls	r0, r0, r1
    209c:	94000005 	strls	r0, [r0], #-5
    20a0:	01000005 	tsteq	r0, r5
    20a4:	05b45000 	ldreq	r5, [r4, #0]!
    20a8:	05b80000 	ldreq	r0, [r8, #0]!
    20ac:	00010000 	andeq	r0, r1, r0
    20b0:	0005c050 	andeq	ip, r5, r0, asr r0
    20b4:	0005c400 	andeq	ip, r5, r0, lsl #8
    20b8:	50000100 	andpl	r0, r0, r0, lsl #2
    20bc:	000005e4 	andeq	r0, r0, r4, ror #11
    20c0:	000005e8 	andeq	r0, r0, r8, ror #11
    20c4:	0c500001 	mrrceq	0, 0, r0, r0, cr1	; <UNPREDICTABLE>
    20c8:	34000006 	strcc	r0, [r0], #-6
    20cc:	01000006 	tsteq	r0, r6
    20d0:	00005000 	andeq	r5, r0, r0
    20d4:	00000000 	andeq	r0, r0, r0
    20d8:	04440000 	strbeq	r0, [r4], #-0
    20dc:	044c0000 	strbeq	r0, [ip], #-0
    20e0:	00020000 	andeq	r0, r2, r0
    20e4:	044c9f30 	strbeq	r9, [ip], #-3888	; 0xf30
    20e8:	04500000 	ldrbeq	r0, [r0], #-0
    20ec:	00010000 	andeq	r0, r1, r0
    20f0:	00045c57 	andeq	r5, r4, r7, asr ip
    20f4:	00063400 	andeq	r3, r6, r0, lsl #8
    20f8:	57000100 	strpl	r0, [r0, -r0, lsl #2]
	...
    2104:	00000510 	andeq	r0, r0, r0, lsl r5
    2108:	0000051f 	andeq	r0, r0, pc, lsl r5
    210c:	00730002 	rsbseq	r0, r3, r2
	...
    2118:	00000014 	andeq	r0, r0, r4, lsl r0
    211c:	0000001c 	andeq	r0, r0, ip, lsl r0
    2120:	04730003 	ldrbteq	r0, [r3], #-3
    2124:	00001c9f 	muleq	r0, pc, ip	; <UNPREDICTABLE>
    2128:	00002700 	andeq	r2, r0, r0, lsl #14
    212c:	53000100 	movwpl	r0, #256	; 0x100
	...
    2138:	000099dc 	ldrdeq	r9, [r0], -ip
    213c:	000099e0 	andeq	r9, r0, r0, ror #19
    2140:	9f300002 	svcls	0x00300002
    2144:	000099e0 	andeq	r9, r0, r0, ror #19
    2148:	000099e4 	andeq	r9, r0, r4, ror #19
    214c:	00500001 	subseq	r0, r0, r1
    2150:	00000000 	andeq	r0, r0, r0
    2154:	f4000000 	vst4.8	{d0-d3}, [r0], r0
    2158:	f8000099 			; <UNDEFINED> instruction: 0xf8000099
    215c:	02000099 	andeq	r0, r0, #153	; 0x99
    2160:	f89f3000 			; <UNDEFINED> instruction: 0xf89f3000
    2164:	fc000099 	stc2	0, cr0, [r0], {153}	; 0x99
    2168:	01000099 	swpeq	r0, r9, [r0]	; <UNPREDICTABLE>
    216c:	9a005300 	bls	16d74 <__bss_end__+0xc7c4>
    2170:	9a080000 	bls	202178 <__bss_end__+0x1f7bc8>
    2174:	00010000 	andeq	r0, r1, r0
    2178:	00000053 	andeq	r0, r0, r3, asr r0
	...
    2184:	00000400 	andeq	r0, r0, r0, lsl #8
    2188:	50000100 	andpl	r0, r0, r0, lsl #2
    218c:	00000004 	andeq	r0, r0, r4
    2190:	0000000c 	andeq	r0, r0, ip
    2194:	0c530001 	mrrceq	0, 0, r0, r3, cr1
    2198:	10000000 	andne	r0, r0, r0
    219c:	01000000 	mrseq	r0, (UNDEF: 0)
    21a0:	00105000 	andseq	r5, r0, r0
    21a4:	001c0000 	andseq	r0, ip, r0
    21a8:	00010000 	andeq	r0, r1, r0
    21ac:	00000053 	andeq	r0, r0, r3, asr r0
    21b0:	00000000 	andeq	r0, r0, r0
    21b4:	00003c00 	andeq	r3, r0, r0, lsl #24
    21b8:	00004700 	andeq	r4, r0, r0, lsl #14
    21bc:	50000100 	andpl	r0, r0, r0, lsl #2
    21c0:	00000047 	andeq	r0, r0, r7, asr #32
    21c4:	00000060 	andeq	r0, r0, r0, rrx
    21c8:	00550001 	subseq	r0, r5, r1
    21cc:	00000000 	andeq	r0, r0, r0
    21d0:	50000000 	andpl	r0, r0, r0
    21d4:	54000000 	strpl	r0, [r0], #-0
    21d8:	01000000 	mrseq	r0, (UNDEF: 0)
    21dc:	00005000 	andeq	r5, r0, r0
    21e0:	00000000 	andeq	r0, r0, r0
    21e4:	00600000 	rsbeq	r0, r0, r0
    21e8:	006c0000 	rsbeq	r0, ip, r0
    21ec:	00010000 	andeq	r0, r1, r0
    21f0:	00006c50 	andeq	r6, r0, r0, asr ip
    21f4:	00007400 	andeq	r7, r0, r0, lsl #8
    21f8:	f3000400 	vshl.u8	d0, d0, d0
    21fc:	009f5001 	addseq	r5, pc, r1
    2200:	00000000 	andeq	r0, r0, r0
    2204:	74000000 	strvc	r0, [r0], #-0
    2208:	80000000 	andhi	r0, r0, r0
    220c:	01000000 	mrseq	r0, (UNDEF: 0)
    2210:	00805000 	addeq	r5, r0, r0
    2214:	00880000 	addeq	r0, r8, r0
    2218:	00040000 	andeq	r0, r4, r0
    221c:	9f5001f3 	svcls	0x005001f3
	...
    222c:	0000000b 	andeq	r0, r0, fp
    2230:	0b500001 	bleq	140223c <__bss_end__+0x13f7c8c>
    2234:	14000000 	strne	r0, [r0], #-0
    2238:	01000000 	mrseq	r0, (UNDEF: 0)
    223c:	00005400 	andeq	r5, r0, r0, lsl #8
	...
    2248:	00200000 	eoreq	r0, r0, r0
    224c:	00010000 	andeq	r0, r1, r0
    2250:	00002051 	andeq	r2, r0, r1, asr r0
    2254:	00003800 	andeq	r3, r0, r0, lsl #16
    2258:	f3000400 	vshl.u8	d0, d0, d0
    225c:	009f5101 	addseq	r5, pc, r1, lsl #2
	...
    2268:	08000000 	stmdaeq	r0, {}	; <UNPREDICTABLE>
    226c:	01000000 	mrseq	r0, (UNDEF: 0)
    2270:	00085000 	andeq	r5, r8, r0
    2274:	000c0000 	andeq	r0, ip, r0
    2278:	00010000 	andeq	r0, r1, r0
    227c:	00000c5c 	andeq	r0, r0, ip, asr ip
    2280:	00001000 	andeq	r1, r0, r0
    2284:	53000100 	movwpl	r0, #256	; 0x100
    2288:	00000010 	andeq	r0, r0, r0, lsl r0
    228c:	00000020 	andeq	r0, r0, r0, lsr #32
    2290:	205c0001 	subscs	r0, ip, r1
    2294:	28000000 	stmdacs	r0, {}	; <UNPREDICTABLE>
    2298:	01000000 	mrseq	r0, (UNDEF: 0)
    229c:	00285300 	eoreq	r5, r8, r0, lsl #6
    22a0:	00380000 	eorseq	r0, r8, r0
    22a4:	00030000 	andeq	r0, r3, r0
    22a8:	009f7f73 	addseq	r7, pc, r3, ror pc	; <UNPREDICTABLE>
	...
    22b4:	20000000 	andcs	r0, r0, r0
    22b8:	01000000 	mrseq	r0, (UNDEF: 0)
    22bc:	00205100 	eoreq	r5, r0, r0, lsl #2
    22c0:	002c0000 	eoreq	r0, ip, r0
    22c4:	00030000 	andeq	r0, r3, r0
    22c8:	2c9f0171 	ldfcss	f0, [pc], {113}	; 0x71
    22cc:	38000000 	stmdacc	r0, {}	; <UNPREDICTABLE>
    22d0:	01000000 	mrseq	r0, (UNDEF: 0)
    22d4:	00005100 	andeq	r5, r0, r0, lsl #2
    22d8:	00000000 	andeq	r0, r0, r0
    22dc:	00080000 	andeq	r0, r8, r0
    22e0:	000c0000 	andeq	r0, ip, r0
    22e4:	00020000 	andeq	r0, r2, r0
    22e8:	00140073 	andseq	r0, r4, r3, ror r0
    22ec:	00200000 	eoreq	r0, r0, r0
    22f0:	00020000 	andeq	r0, r2, r0
    22f4:	00240073 	eoreq	r0, r4, r3, ror r0
    22f8:	00280000 	eoreq	r0, r8, r0
    22fc:	00020000 	andeq	r0, r2, r0
    2300:	00280071 	eoreq	r0, r8, r1, ror r0
    2304:	00380000 	eorseq	r0, r8, r0
    2308:	00010000 	andeq	r0, r1, r0
    230c:	00000052 	andeq	r0, r0, r2, asr r0
    2310:	00000000 	andeq	r0, r0, r0
    2314:	00013800 	andeq	r3, r1, r0, lsl #16
    2318:	00014300 	andeq	r4, r1, r0, lsl #6
    231c:	50000100 	andpl	r0, r0, r0, lsl #2
    2320:	00000143 	andeq	r0, r0, r3, asr #2
    2324:	00000168 	andeq	r0, r0, r8, ror #2
    2328:	00540001 	subseq	r0, r4, r1
	...
    2334:	0f000000 	svceq	0x00000000
    2338:	01000000 	mrseq	r0, (UNDEF: 0)
    233c:	000f5000 	andeq	r5, pc, r0
    2340:	00200000 	eoreq	r0, r0, r0
    2344:	00010000 	andeq	r0, r1, r0
    2348:	00000054 	andeq	r0, r0, r4, asr r0
	...
    2354:	00000f00 	andeq	r0, r0, r0, lsl #30
    2358:	51000100 	mrspl	r0, (UNDEF: 16)
    235c:	0000000f 	andeq	r0, r0, pc
    2360:	00000020 	andeq	r0, r0, r0, lsr #32
    2364:	00550001 	subseq	r0, r5, r1
    2368:	00000000 	andeq	r0, r0, r0
    236c:	ec000000 	stc	0, cr0, [r0], {-0}
    2370:	04000000 	streq	r0, [r0], #-0
    2374:	01000001 	tsteq	r0, r1
    2378:	01045000 	mrseq	r5, (UNDEF: 4)
    237c:	01140000 	tsteq	r4, r0
    2380:	00040000 	andeq	r0, r4, r0
    2384:	9f5001f3 	svcls	0x005001f3
    2388:	00000114 	andeq	r0, r0, r4, lsl r1
    238c:	00000118 	andeq	r0, r0, r8, lsl r1
    2390:	18500001 	ldmdane	r0, {r0}^
    2394:	20000001 	andcs	r0, r0, r1
    2398:	04000001 	streq	r0, [r0], #-1
    239c:	5001f300 	andpl	pc, r1, r0, lsl #6
    23a0:	0000009f 	muleq	r0, pc, r0	; <UNPREDICTABLE>
    23a4:	00000000 	andeq	r0, r0, r0
    23a8:	0000f800 	andeq	pc, r0, r0, lsl #16
    23ac:	00010400 	andeq	r0, r1, r0, lsl #8
    23b0:	70000b00 	andvc	r0, r0, r0, lsl #22
    23b4:	23253500 	teqcs	r5, #0, 10
    23b8:	818080b4 	strhhi	r8, [r0, r4]
    23bc:	01049f02 	tsteq	r4, r2, lsl #30
    23c0:	01070000 	mrseq	r0, (UNDEF: 7)
    23c4:	00010000 	andeq	r0, r1, r0
    23c8:	00010750 	andeq	r0, r1, r0, asr r7
    23cc:	00011400 	andeq	r1, r1, r0, lsl #8
    23d0:	f3000c00 			; <UNDEFINED> instruction: 0xf3000c00
    23d4:	25355001 	ldrcs	r5, [r5, #-1]!
    23d8:	8080b423 	addhi	fp, r0, r3, lsr #8
    23dc:	009f0281 	addseq	r0, pc, r1, lsl #5
    23e0:	00000000 	andeq	r0, r0, r0
    23e4:	fc000000 	stc2	0, cr0, [r0], {-0}
    23e8:	14000000 	strne	r0, [r0], #-0
    23ec:	01000001 	tsteq	r0, r1
    23f0:	00005400 	andeq	r5, r0, r0, lsl #8
    23f4:	00000000 	andeq	r0, r0, r0
    23f8:	00d00000 	sbcseq	r0, r0, r0
    23fc:	00df0000 	sbcseq	r0, pc, r0
    2400:	00010000 	andeq	r0, r1, r0
    2404:	0000df50 	andeq	sp, r0, r0, asr pc
    2408:	0000e400 	andeq	lr, r0, r0, lsl #8
    240c:	f3000400 	vshl.u8	d0, d0, d0
    2410:	e49f5001 	ldr	r5, [pc], #1	; 2418 <_start-0x5be8>
    2414:	e7000000 	str	r0, [r0, -r0]
    2418:	01000000 	mrseq	r0, (UNDEF: 0)
    241c:	00e75000 	rsceq	r5, r7, r0
    2420:	00ec0000 	rsceq	r0, ip, r0
    2424:	00040000 	andeq	r0, r4, r0
    2428:	9f5001f3 	svcls	0x005001f3
	...
    2434:	000000d0 	ldrdeq	r0, [r0], -r0	; <UNPREDICTABLE>
    2438:	000000df 	ldrdeq	r0, [r0], -pc	; <UNPREDICTABLE>
    243c:	df510001 	svcle	0x00510001
    2440:	e4000000 	str	r0, [r0], #-0
    2444:	04000000 	streq	r0, [r0], #-0
    2448:	5101f300 	mrspl	pc, SP_irq	; <UNPREDICTABLE>
    244c:	0000e49f 	muleq	r0, pc, r4	; <UNPREDICTABLE>
    2450:	0000e700 	andeq	lr, r0, r0, lsl #14
    2454:	51000100 	mrspl	r0, (UNDEF: 16)
    2458:	000000e7 	andeq	r0, r0, r7, ror #1
    245c:	000000ec 	andeq	r0, r0, ip, ror #1
    2460:	01f30004 	mvnseq	r0, r4
    2464:	00009f51 	andeq	r9, r0, r1, asr pc
    2468:	00000000 	andeq	r0, r0, r0
    246c:	00c00000 	sbceq	r0, r0, r0
    2470:	00cb0000 	sbceq	r0, fp, r0
    2474:	00010000 	andeq	r0, r1, r0
    2478:	0000cb50 	andeq	ip, r0, r0, asr fp
    247c:	0000d000 	andeq	sp, r0, r0
    2480:	f3000400 	vshl.u8	d0, d0, d0
    2484:	009f5001 	addseq	r5, pc, r1
    2488:	00000000 	andeq	r0, r0, r0
    248c:	9c000000 	stcls	0, cr0, [r0], {-0}
    2490:	b4000000 	strlt	r0, [r0], #-0
    2494:	01000000 	mrseq	r0, (UNDEF: 0)
    2498:	00b45000 	adcseq	r5, r4, r0
    249c:	00c00000 	sbceq	r0, r0, r0
    24a0:	00040000 	andeq	r0, r4, r0
    24a4:	9f5001f3 	svcls	0x005001f3
	...
    24b0:	00000078 	andeq	r0, r0, r8, ror r0
    24b4:	00000090 	muleq	r0, r0, r0
    24b8:	90500001 	subsls	r0, r0, r1
    24bc:	9c000000 	stcls	0, cr0, [r0], {-0}
    24c0:	04000000 	streq	r0, [r0], #-0
    24c4:	5001f300 	andpl	pc, r1, r0, lsl #6
    24c8:	0000009f 	muleq	r0, pc, r0	; <UNPREDICTABLE>
    24cc:	00000000 	andeq	r0, r0, r0
    24d0:	00006800 	andeq	r6, r0, r0, lsl #16
    24d4:	00007300 	andeq	r7, r0, r0, lsl #6
    24d8:	50000100 	andpl	r0, r0, r0, lsl #2
    24dc:	00000073 	andeq	r0, r0, r3, ror r0
    24e0:	00000078 	andeq	r0, r0, r8, ror r0
    24e4:	01f30004 	mvnseq	r0, r4
    24e8:	00009f50 	andeq	r9, r0, r0, asr pc
	...
    24f4:	00480000 	subeq	r0, r8, r0
    24f8:	00010000 	andeq	r0, r1, r0
    24fc:	00004850 	andeq	r4, r0, r0, asr r8
    2500:	00006800 	andeq	r6, r0, r0, lsl #16
    2504:	f3000400 	vshl.u8	d0, d0, d0
    2508:	009f5001 	addseq	r5, pc, r1
	...
    2514:	4b000000 	blmi	251c <_start-0x5ae4>
    2518:	01000000 	mrseq	r0, (UNDEF: 0)
    251c:	004b5100 	subeq	r5, fp, r0, lsl #2
    2520:	00680000 	rsbeq	r0, r8, r0
    2524:	00040000 	andeq	r0, r4, r0
    2528:	9f5101f3 	svcls	0x005101f3
	...
    2534:	0000004c 	andeq	r0, r0, ip, asr #32
    2538:	00000054 	andeq	r0, r0, r4, asr r0
    253c:	54500001 	ldrbpl	r0, [r0], #-1
    2540:	58000000 	stmdapl	r0, {}	; <UNPREDICTABLE>
    2544:	09000000 	stmdbeq	r0, {}	; <UNPREDICTABLE>
    2548:	74007500 	strvc	r7, [r0], #-1280	; 0x500
    254c:	00712400 	rsbseq	r2, r1, r0, lsl #8
    2550:	00589f21 	subseq	r9, r8, r1, lsr #30
    2554:	005f0000 	subseq	r0, pc, r0
    2558:	00010000 	andeq	r0, r1, r0
    255c:	00000051 	andeq	r0, r0, r1, asr r0
    2560:	00000000 	andeq	r0, r0, r0
	...

Disassembly of section .debug_aranges:

00000000 <.debug_aranges>:
   0:	0000001c 	andeq	r0, r0, ip, lsl r0
   4:	00000002 	andeq	r0, r0, r2
   8:	00040000 	andeq	r0, r4, r0
   c:	00000000 	andeq	r0, r0, r0
  10:	00008010 	andeq	r8, r0, r0, lsl r0
  14:	000000b0 	strheq	r0, [r0], -r0	; <UNPREDICTABLE>
	...
  20:	0000001c 	andeq	r0, r0, ip, lsl r0
  24:	01a40002 			; <UNDEFINED> instruction: 0x01a40002
  28:	00040000 	andeq	r0, r4, r0
  2c:	00000000 	andeq	r0, r0, r0
  30:	000080c0 	andeq	r8, r0, r0, asr #1
  34:	000000f4 	strdeq	r0, [r0], -r4
	...
  40:	0000001c 	andeq	r0, r0, ip, lsl r0
  44:	041d0002 	ldreq	r0, [sp], #-2
  48:	00040000 	andeq	r0, r4, r0
  4c:	00000000 	andeq	r0, r0, r0
  50:	000081b8 			; <UNDEFINED> instruction: 0x000081b8
  54:	000000b0 	strheq	r0, [r0], -r0	; <UNPREDICTABLE>
	...
  60:	0000001c 	andeq	r0, r0, ip, lsl r0
  64:	05a30002 	streq	r0, [r3, #2]!
  68:	00040000 	andeq	r0, r4, r0
  6c:	00000000 	andeq	r0, r0, r0
  70:	00008268 	andeq	r8, r0, r8, ror #4
  74:	000000a8 	andeq	r0, r0, r8, lsr #1
	...
  80:	0000001c 	andeq	r0, r0, ip, lsl r0
  84:	072f0002 	streq	r0, [pc, -r2]!
  88:	00040000 	andeq	r0, r4, r0
  8c:	00000000 	andeq	r0, r0, r0
  90:	00008310 	andeq	r8, r0, r0, lsl r3
  94:	00000434 	andeq	r0, r0, r4, lsr r4
	...
  a0:	0000001c 	andeq	r0, r0, ip, lsl r0
  a4:	0b0f0002 	bleq	3c00b4 <__bss_end__+0x3b5b04>
  a8:	00040000 	andeq	r0, r4, r0
  ac:	00000000 	andeq	r0, r0, r0
  b0:	00008748 	andeq	r8, r0, r8, asr #14
  b4:	00000748 	andeq	r0, r0, r8, asr #14
	...
  c0:	0000001c 	andeq	r0, r0, ip, lsl r0
  c4:	0edd0002 	cdpeq	0, 13, cr0, cr13, cr2, {0}
  c8:	00040000 	andeq	r0, r4, r0
  cc:	00000000 	andeq	r0, r0, r0
  d0:	00008e90 	muleq	r0, r0, lr
  d4:	00000158 	andeq	r0, r0, r8, asr r1
	...
  e0:	0000001c 	andeq	r0, r0, ip, lsl r0
  e4:	11920002 	orrsne	r0, r2, r2
  e8:	00040000 	andeq	r0, r4, r0
  ec:	00000000 	andeq	r0, r0, r0
  f0:	00008fe8 	andeq	r8, r0, r8, ror #31
  f4:	00000148 	andeq	r0, r0, r8, asr #2
	...
 100:	0000001c 	andeq	r0, r0, ip, lsl r0
 104:	13720002 	cmnne	r2, #2
 108:	00040000 	andeq	r0, r4, r0
 10c:	00000000 	andeq	r0, r0, r0
 110:	00009130 	andeq	r9, r0, r0, lsr r1
 114:	00000028 	andeq	r0, r0, r8, lsr #32
	...
 120:	0000001c 	andeq	r0, r0, ip, lsl r0
 124:	15330002 	ldrne	r0, [r3, #-2]!
 128:	00040000 	andeq	r0, r4, r0
 12c:	00000000 	andeq	r0, r0, r0
 130:	00009158 	andeq	r9, r0, r8, asr r1
 134:	000000e4 	andeq	r0, r0, r4, ror #1
	...
 140:	0000001c 	andeq	r0, r0, ip, lsl r0
 144:	17b50002 	ldrne	r0, [r5, r2]!
 148:	00040000 	andeq	r0, r4, r0
 14c:	00000000 	andeq	r0, r0, r0
 150:	00009240 	andeq	r9, r0, r0, asr #4
 154:	00000058 	andeq	r0, r0, r8, asr r0
	...
 160:	0000001c 	andeq	r0, r0, ip, lsl r0
 164:	194a0002 	stmdbne	sl, {r1}^
 168:	00040000 	andeq	r0, r4, r0
 16c:	00000000 	andeq	r0, r0, r0
 170:	00009298 	muleq	r0, r8, r2
 174:	00000034 	andeq	r0, r0, r4, lsr r0
	...
 180:	0000001c 	andeq	r0, r0, ip, lsl r0
 184:	1a3c0002 	bne	f00194 <__bss_end__+0xef5be4>
 188:	00040000 	andeq	r0, r4, r0
 18c:	00000000 	andeq	r0, r0, r0
 190:	000092d0 	ldrdeq	r9, [r0], -r0
 194:	00000670 	andeq	r0, r0, r0, ror r6
	...
 1a0:	0000001c 	andeq	r0, r0, ip, lsl r0
 1a4:	22f90002 	rscscs	r0, r9, #2
 1a8:	00040000 	andeq	r0, r4, r0
 1ac:	00000000 	andeq	r0, r0, r0
 1b0:	00009940 	andeq	r9, r0, r0, asr #18
 1b4:	00000028 	andeq	r0, r0, r8, lsr #32
	...
 1c0:	0000001c 	andeq	r0, r0, ip, lsl r0
 1c4:	23fc0002 	mvnscs	r0, #2
 1c8:	00040000 	andeq	r0, r4, r0
 1cc:	00000000 	andeq	r0, r0, r0
 1d0:	00009968 	andeq	r9, r0, r8, ror #18
 1d4:	00000074 	andeq	r0, r0, r4, ror r0
	...
 1e0:	0000001c 	andeq	r0, r0, ip, lsl r0
 1e4:	25b80002 	ldrcs	r0, [r8, #2]!
 1e8:	00040000 	andeq	r0, r4, r0
 1ec:	00000000 	andeq	r0, r0, r0
 1f0:	000099dc 	ldrdeq	r9, [r0], -ip
 1f4:	00000074 	andeq	r0, r0, r4, ror r0
	...
 200:	0000001c 	andeq	r0, r0, ip, lsl r0
 204:	27690002 	strbcs	r0, [r9, -r2]!
 208:	00040000 	andeq	r0, r4, r0
 20c:	00000000 	andeq	r0, r0, r0
 210:	00009a50 	andeq	r9, r0, r0, asr sl
 214:	00000088 	andeq	r0, r0, r8, lsl #1
	...
 220:	0000001c 	andeq	r0, r0, ip, lsl r0
 224:	29450002 	stmdbcs	r5, {r1}^
 228:	00040000 	andeq	r0, r4, r0
 22c:	00000000 	andeq	r0, r0, r0
 230:	00009ba4 	andeq	r9, r0, r4, lsr #23
 234:	0000003c 	andeq	r0, r0, ip, lsr r0
	...
 240:	0000001c 	andeq	r0, r0, ip, lsl r0
 244:	2a5c0002 	bcs	1700254 <__bss_end__+0x16f5ca4>
 248:	00040000 	andeq	r0, r4, r0
 24c:	00000000 	andeq	r0, r0, r0
 250:	00009be0 	andeq	r9, r0, r0, ror #23
 254:	00000038 	andeq	r0, r0, r8, lsr r0
	...
 260:	0000001c 	andeq	r0, r0, ip, lsl r0
 264:	2b420002 	blcs	1080274 <__bss_end__+0x1075cc4>
 268:	00040000 	andeq	r0, r4, r0
 26c:	00000000 	andeq	r0, r0, r0
 270:	00009c18 	andeq	r9, r0, r8, lsl ip
 274:	00000178 	andeq	r0, r0, r8, ror r1
	...
 280:	0000001c 	andeq	r0, r0, ip, lsl r0
 284:	380b0002 	stmdacc	fp, {r1}
 288:	00040000 	andeq	r0, r4, r0
 28c:	00000000 	andeq	r0, r0, r0
 290:	00009d90 	muleq	r0, r0, sp
 294:	00000120 	andeq	r0, r0, r0, lsr #2
	...

Disassembly of section .debug_line:

00000000 <.debug_line>:
       0:	000000f8 	strdeq	r0, [r0], -r8
       4:	00c70002 	sbceq	r0, r7, r2
       8:	01020000 	mrseq	r0, (UNDEF: 2)
       c:	000d0efb 	strdeq	r0, [sp], -fp
      10:	01010101 	tsteq	r1, r1, lsl #2
      14:	01000000 	mrseq	r0, (UNDEF: 0)
      18:	2f010000 	svccs	0x00010000
      1c:	2f727375 	svccs	0x00727375
      20:	61636f6c 	cmnvs	r3, ip, ror #30
      24:	65432f6c 	strbvs	r2, [r3, #-3948]	; 0xf6c
      28:	72616c6c 	rsbvc	r6, r1, #108, 24	; 0x6c00
      2c:	6d72612f 	ldfvse	f6, [r2, #-188]!	; 0xffffff44
      30:	6e6f6e2d 	cdpvs	14, 6, cr6, cr15, cr13, {1}
      34:	61652d65 	cmnvs	r5, r5, ror #26
      38:	342f6962 	strtcc	r6, [pc], #-2402	; 40 <_start-0x7fc0>
      3c:	332e382e 	teqcc	lr, #3014656	; 0x2e0000
      40:	3173632d 	cmncc	r3, sp, lsr #6
      44:	2f653037 	svccs	0x00653037
      48:	2d6d7261 	sfmcs	f7, 2, [sp, #-388]!	; 0xfffffe7c
      4c:	656e6f6e 	strbvs	r6, [lr, #-3950]!	; 0xf6e
      50:	6261652d 	rsbvs	r6, r1, #188743680	; 0xb400000
      54:	6e692f69 	cdpvs	15, 6, cr2, cr9, cr9, {3}
      58:	64756c63 	ldrbtvs	r6, [r5], #-3171	; 0xc63
      5c:	552f0065 	strpl	r0, [pc, #-101]!	; ffffffff <__bss_end__+0xffff5a4f>
      60:	73726573 	cmnvc	r2, #482344960	; 0x1cc00000
      64:	6972622f 	ldmdbvs	r2!, {r0, r1, r2, r3, r5, r9, sp, lr}^
      68:	756a6e61 	strbvc	r6, [sl, #-3681]!	; 0xe61
      6c:	65442f6e 	strbvs	r2, [r4, #-3950]	; 0xf6e
      70:	6f746b73 	svcvs	0x00746b73
      74:	63732f70 	cmnvs	r3, #112, 30	; 0x1c0
      78:	6c6f6f68 	stclvs	15, cr6, [pc], #-416	; fffffee0 <__bss_end__+0xffff5930>
      7c:	7270532f 	rsbsvc	r5, r0, #-1140850688	; 0xbc000000
      80:	31676e69 	cmncc	r7, r9, ror #28
      84:	2f303239 	svccs	0x00303239
      88:	34325343 	ldrtcc	r5, [r2], #-835	; 0x343
      8c:	2f584c30 	svccs	0x00584c30
      90:	34327363 	ldrtcc	r7, [r2], #-867	; 0x363
      94:	2d786c30 	ldclcs	12, cr6, [r8, #-192]!	; 0xffffff40
      98:	70733032 	rsbsvc	r3, r3, r2, lsr r0
      9c:	696c2f72 	stmdbvs	ip!, {r1, r4, r5, r6, r8, r9, sl, fp, sp}^
      a0:	2f697062 	svccs	0x00697062
      a4:	6c636e69 	stclvs	14, cr6, [r3], #-420	; 0xfffffe5c
      a8:	00656475 	rsbeq	r6, r5, r5, ror r4
      ac:	2d706600 	ldclcs	6, cr6, [r0, #-0]
      b0:	6d617865 	stclvs	8, cr7, [r1, #-404]!	; 0xfffffe6c
      b4:	2e656c70 	mcrcs	12, 3, r6, cr5, cr0, {3}
      b8:	00000063 	andeq	r0, r0, r3, rrx
      bc:	74616d00 	strbtvc	r6, [r1], #-3328	; 0xd00
      c0:	00682e68 	rsbeq	r2, r8, r8, ror #28
      c4:	72000001 	andvc	r0, r0, #1
      c8:	682e6970 	stmdavs	lr!, {r4, r5, r6, r8, fp, sp, lr}
      cc:	00000200 	andeq	r0, r0, r0, lsl #4
      d0:	02050000 	andeq	r0, r5, #0
      d4:	00008010 	andeq	r8, r0, r0, lsl r0
      d8:	bb844c17 	bllt	fe11313c <__bss_end__+0xfe108b8c>
      dc:	002c2f2f 	eoreq	r2, ip, pc, lsr #30
      e0:	2f020402 	svccs	0x00020402
      e4:	02040200 	andeq	r0, r4, #0, 4
      e8:	02003d08 	andeq	r3, r0, #8, 26	; 0x200
      ec:	00d40204 	sbcseq	r0, r4, r4, lsl #4
      f0:	06010402 	streq	r0, [r1], -r2, lsl #8
      f4:	024f062e 	subeq	r0, pc, #48234496	; 0x2e00000
      f8:	01010010 	tsteq	r1, r0, lsl r0
      fc:	000000d2 	ldrdeq	r0, [r0], -r2
     100:	00a30002 	adceq	r0, r3, r2
     104:	01020000 	mrseq	r0, (UNDEF: 2)
     108:	000d0efb 	strdeq	r0, [sp], -fp
     10c:	01010101 	tsteq	r1, r1, lsl #2
     110:	01000000 	mrseq	r0, (UNDEF: 0)
     114:	2f010000 	svccs	0x00010000
     118:	2f727375 	svccs	0x00727375
     11c:	61636f6c 	cmnvs	r3, ip, ror #30
     120:	65432f6c 	strbvs	r2, [r3, #-3948]	; 0xf6c
     124:	72616c6c 	rsbvc	r6, r1, #108, 24	; 0x6c00
     128:	6d72612f 	ldfvse	f6, [r2, #-188]!	; 0xffffff44
     12c:	6e6f6e2d 	cdpvs	14, 6, cr6, cr15, cr13, {1}
     130:	61652d65 	cmnvs	r5, r5, ror #26
     134:	342f6962 	strtcc	r6, [pc], #-2402	; 13c <_start-0x7ec4>
     138:	332e382e 	teqcc	lr, #3014656	; 0x2e0000
     13c:	3173632d 	cmncc	r3, sp, lsr #6
     140:	2f653037 	svccs	0x00653037
     144:	2f62696c 	svccs	0x0062696c
     148:	2f636367 	svccs	0x00636367
     14c:	2d6d7261 	sfmcs	f7, 2, [sp, #-388]!	; 0xfffffe7c
     150:	656e6f6e 	strbvs	r6, [lr, #-3950]!	; 0xf6e
     154:	6261652d 	rsbvs	r6, r1, #188743680	; 0xb400000
     158:	2e342f69 	cdpcs	15, 3, cr2, cr4, cr9, {3}
     15c:	2f332e38 	svccs	0x00332e38
     160:	6c636e69 	stclvs	14, cr6, [r3], #-420	; 0xfffffe5c
     164:	00656475 	rsbeq	r6, r5, r5, ror r4
     168:	635f7300 	cmpvs	pc, #0, 6
     16c:	632e736f 	teqvs	lr, #-1140850687	; 0xbc000001
     170:	00000000 	andeq	r0, r0, r0
     174:	69647473 	stmdbvs	r4!, {r0, r1, r4, r5, r6, sl, ip, sp, lr}^
     178:	672d746e 	strvs	r7, [sp, -lr, ror #8]!
     17c:	682e6363 	stmdavs	lr!, {r0, r1, r5, r6, r8, r9, sp, lr}
     180:	00000100 	andeq	r0, r0, r0, lsl #2
     184:	65707974 	ldrbvs	r7, [r0, #-2420]!	; 0x974
     188:	6f632d73 	svcvs	0x00632d73
     18c:	7461706d 	strbtvc	r7, [r1], #-109	; 0x6d
     190:	0000682e 	andeq	r6, r0, lr, lsr #16
     194:	616d0000 	cmnvs	sp, r0
     198:	705f6874 	subsvc	r6, pc, r4, ror r8	; <UNPREDICTABLE>
     19c:	61766972 	cmnvs	r6, r2, ror r9
     1a0:	682e6574 	stmdavs	lr!, {r2, r4, r5, r6, r8, sl, sp, lr}
     1a4:	00000000 	andeq	r0, r0, r0
     1a8:	02050000 	andeq	r0, r5, #0
     1ac:	000080c0 	andeq	r8, r0, r0, asr #1
     1b0:	4f013703 	svcmi	0x00013703
     1b4:	67672f31 			; <UNDEFINED> instruction: 0x67672f31
     1b8:	02006a83 	andeq	r6, r0, #536576	; 0x83000
     1bc:	4a060104 	bmi	1805d4 <__bss_end__+0x176024>
     1c0:	d74b4e06 	strble	r4, [fp, -r6, lsl #28]
     1c4:	03a0bb83 	moveq	fp, #134144	; 0x20c00
     1c8:	12039e71 	andne	r9, r3, #1808	; 0x710
     1cc:	0014022e 	andseq	r0, r4, lr, lsr #4
     1d0:	003c0101 	eorseq	r0, ip, r1, lsl #2
     1d4:	00020000 	andeq	r0, r2, r0
     1d8:	0000001e 	andeq	r0, r0, lr, lsl r0
     1dc:	0efb0102 	cdpeq	1, 15, cr0, cr11, cr2, {0}
     1e0:	0101000d 	tsteq	r1, sp
     1e4:	00000101 	andeq	r0, r0, r1, lsl #2
     1e8:	00000100 	andeq	r0, r0, r0, lsl #2
     1ec:	5f6b0001 	svcpl	0x006b0001
     1f0:	2e736f63 	cdpcs	15, 7, cr6, cr3, cr3, {3}
     1f4:	00000063 	andeq	r0, r0, r3, rrx
     1f8:	05000000 	streq	r0, [r0, #-0]
     1fc:	0081b802 	addeq	fp, r1, r2, lsl #16
     200:	00c60300 	sbceq	r0, r6, r0, lsl #6
     204:	2f2f1501 	svccs	0x002f1501
     208:	4b4b9108 	blmi	12e4630 <__bss_end__+0x12da080>
     20c:	002602bb 	strhteq	r0, [r6], -fp
     210:	00420101 	subeq	r0, r2, r1, lsl #2
     214:	00020000 	andeq	r0, r2, r0
     218:	0000001e 	andeq	r0, r0, lr, lsl r0
     21c:	0efb0102 	cdpeq	1, 15, cr0, cr11, cr2, {0}
     220:	0101000d 	tsteq	r1, sp
     224:	00000101 	andeq	r0, r0, r1, lsl #2
     228:	00000100 	andeq	r0, r0, r0, lsl #2
     22c:	5f6b0001 	svcpl	0x006b0001
     230:	2e6e6973 	mcrcs	9, 3, r6, cr14, cr3, {3}
     234:	00000063 	andeq	r0, r0, r3, rrx
     238:	05000000 	streq	r0, [r0, #-0]
     23c:	00826802 	addeq	r6, r2, r2, lsl #16
     240:	013d0300 	teqeq	sp, r0, lsl #6
     244:	082f2f15 	stmdaeq	pc!, {r0, r2, r4, r8, r9, sl, fp, sp}	; <UNPREDICTABLE>
     248:	02002f3d 	andeq	r2, r0, #61, 30	; 0xf4
     24c:	4a060104 	bmi	180664 <__bss_end__+0x1760b4>
     250:	02d79f06 	sbcseq	r9, r7, #6, 30
     254:	0101001e 	tsteq	r1, lr, lsl r0
     258:	00000139 	andeq	r0, r0, r9, lsr r1
     25c:	00a80002 	adceq	r0, r8, r2
     260:	01020000 	mrseq	r0, (UNDEF: 2)
     264:	000d0efb 	strdeq	r0, [sp], -fp
     268:	01010101 	tsteq	r1, r1, lsl #2
     26c:	01000000 	mrseq	r0, (UNDEF: 0)
     270:	2f010000 	svccs	0x00010000
     274:	2f727375 	svccs	0x00727375
     278:	61636f6c 	cmnvs	r3, ip, ror #30
     27c:	65432f6c 	strbvs	r2, [r3, #-3948]	; 0xf6c
     280:	72616c6c 	rsbvc	r6, r1, #108, 24	; 0x6c00
     284:	6d72612f 	ldfvse	f6, [r2, #-188]!	; 0xffffff44
     288:	6e6f6e2d 	cdpvs	14, 6, cr6, cr15, cr13, {1}
     28c:	61652d65 	cmnvs	r5, r5, ror #26
     290:	342f6962 	strtcc	r6, [pc], #-2402	; 298 <_start-0x7d68>
     294:	332e382e 	teqcc	lr, #3014656	; 0x2e0000
     298:	3173632d 	cmncc	r3, sp, lsr #6
     29c:	2f653037 	svccs	0x00653037
     2a0:	2f62696c 	svccs	0x0062696c
     2a4:	2f636367 	svccs	0x00636367
     2a8:	2d6d7261 	sfmcs	f7, 2, [sp, #-388]!	; 0xfffffe7c
     2ac:	656e6f6e 	strbvs	r6, [lr, #-3950]!	; 0xf6e
     2b0:	6261652d 	rsbvs	r6, r1, #188743680	; 0xb400000
     2b4:	2e342f69 	cdpcs	15, 3, cr2, cr4, cr9, {3}
     2b8:	2f332e38 	svccs	0x00332e38
     2bc:	6c636e69 	stclvs	14, cr6, [r3], #-420	; 0xfffffe5c
     2c0:	00656475 	rsbeq	r6, r5, r5, ror r4
     2c4:	725f6500 	subsvc	r6, pc, #0, 10
     2c8:	705f6d65 	subsvc	r6, pc, r5, ror #26
     2cc:	2e326f69 	cdpcs	15, 3, cr6, cr2, cr9, {3}
     2d0:	00000063 	andeq	r0, r0, r3, rrx
     2d4:	64747300 	ldrbtvs	r7, [r4], #-768	; 0x300
     2d8:	2d746e69 	ldclcs	14, cr6, [r4, #-420]!	; 0xfffffe5c
     2dc:	2e636367 	cdpcs	3, 6, cr6, cr3, cr7, {3}
     2e0:	00010068 	andeq	r0, r1, r8, rrx
     2e4:	70797400 	rsbsvc	r7, r9, r0, lsl #8
     2e8:	632d7365 	teqvs	sp, #-1811939327	; 0x94000001
     2ec:	61706d6f 	cmnvs	r0, pc, ror #26
     2f0:	00682e74 	rsbeq	r2, r8, r4, ror lr
     2f4:	6d000000 	stcvs	0, cr0, [r0, #-0]
     2f8:	5f687461 	svcpl	0x00687461
     2fc:	76697270 			; <UNDEFINED> instruction: 0x76697270
     300:	2e657461 	cdpcs	4, 6, cr7, cr5, cr1, {3}
     304:	00000068 	andeq	r0, r0, r8, rrx
     308:	05000000 	streq	r0, [r0, #-0]
     30c:	00831002 	addeq	r1, r3, r2
     310:	01340300 	teqeq	r4, r0, lsl #6
     314:	67332f6c 	ldrvs	r2, [r3, -ip, ror #30]!
     318:	4b4b67a0 	blmi	12da1a0 <__bss_end__+0x12cfbf0>
     31c:	4b4c6767 	blmi	131a0c0 <__bss_end__+0x130fb10>
     320:	4b4d6767 	blmi	135a0c4 <__bss_end__+0x134fb14>
     324:	4c67674b 	stclmi	7, cr6, [r7], #-300	; 0xfffffed4
     328:	4e67674b 	cdpmi	7, 6, cr6, cr7, cr11, {2}
     32c:	4b686767 	blmi	1a1a0d0 <__bss_end__+0x1a0fb20>
     330:	4c67674b 	stclmi	7, cr6, [r7], #-300	; 0xfffffed4
     334:	4d67674b 	stclmi	7, cr6, [r7, #-300]!	; 0xfffffed4
     338:	674b4b68 	strbvs	r4, [fp, -r8, ror #22]
     33c:	674b4c67 	strbvs	r4, [fp, -r7, ror #24]
     340:	83694e67 	cmnhi	r9, #1648	; 0x670
     344:	4d4b4c32 	stclmi	12, cr4, [fp, #-200]	; 0xffffff38
     348:	4b2f4b2f 	blmi	bd300c <__bss_end__+0xbc8a5c>
     34c:	832f4b4c 	teqhi	pc, #76, 22	; 0x13000
     350:	4c4b2f4b 	mcrrmi	15, 4, r2, fp, cr11
     354:	03832f4b 	orreq	r2, r3, #300	; 0x12c
     358:	0e036676 	mcreq	6, 0, r6, cr3, cr6, {3}
     35c:	6733832e 	ldrvs	r8, [r3, -lr, lsr #6]!
     360:	306767a2 	rsbcc	r6, r7, r2, lsr #15
     364:	0402002c 	streq	r0, [r2], #-44	; 0x2c
     368:	02002f02 	andeq	r2, r0, #2, 30
     36c:	009f0204 	addseq	r0, pc, r4, lsl #4
     370:	48020402 	stmdami	r2, {r1, sl}
     374:	01040200 	mrseq	r0, R12_usr
     378:	4e062e06 	cdpmi	14, 0, cr2, cr6, cr6, {0}
     37c:	02002f2f 	andeq	r2, r0, #47, 30	; 0xbc
     380:	66060104 	strvs	r0, [r6], -r4, lsl #2
     384:	009fd706 	addseq	sp, pc, r6, lsl #14
     388:	06010402 	streq	r0, [r1], -r2, lsl #8
     38c:	83f3064a 	mvnshi	r0, #77594624	; 0x4a00000
     390:	01005602 	tsteq	r0, r2, lsl #12
     394:	0002c701 	andeq	ip, r2, r1, lsl #14
     398:	ea000200 	b	ba0 <_start-0x7460>
     39c:	02000000 	andeq	r0, r0, #0
     3a0:	0d0efb01 	vstreq	d15, [lr, #-4]
     3a4:	01010100 	mrseq	r0, (UNDEF: 17)
     3a8:	00000001 	andeq	r0, r0, r1
     3ac:	01000001 	tsteq	r0, r1
     3b0:	7273752f 	rsbsvc	r7, r3, #197132288	; 0xbc00000
     3b4:	636f6c2f 	cmnvs	pc, #12032	; 0x2f00
     3b8:	432f6c61 	teqmi	pc, #24832	; 0x6100
     3bc:	616c6c65 	cmnvs	ip, r5, ror #24
     3c0:	72612f72 	rsbvc	r2, r1, #456	; 0x1c8
     3c4:	6f6e2d6d 	svcvs	0x006e2d6d
     3c8:	652d656e 	strvs	r6, [sp, #-1390]!	; 0x56e
     3cc:	2f696261 	svccs	0x00696261
     3d0:	2e382e34 	mrccs	14, 1, r2, cr8, cr4, {1}
     3d4:	73632d33 	cmnvc	r3, #3264	; 0xcc0
     3d8:	65303731 	ldrvs	r3, [r0, #-1841]!	; 0x731
     3dc:	62696c2f 	rsbvs	r6, r9, #12032	; 0x2f00
     3e0:	6363672f 	cmnvs	r3, #12320768	; 0xbc0000
     3e4:	6d72612f 	ldfvse	f6, [r2, #-188]!	; 0xffffff44
     3e8:	6e6f6e2d 	cdpvs	14, 6, cr6, cr15, cr13, {1}
     3ec:	61652d65 	cmnvs	r5, r5, ror #26
     3f0:	342f6962 	strtcc	r6, [pc], #-2402	; 3f8 <_start-0x7c08>
     3f4:	332e382e 	teqcc	lr, #3014656	; 0x2e0000
     3f8:	636e692f 	cmnvs	lr, #770048	; 0xbc000
     3fc:	6564756c 	strbvs	r7, [r4, #-1388]!	; 0x56c
     400:	73552f00 	cmpvc	r5, #0, 30
     404:	2f737265 	svccs	0x00737265
     408:	61697262 	cmnvs	r9, r2, ror #4
     40c:	6e756a6e 	vsubvs.f32	s13, s10, s29
     410:	7365442f 	cmnvc	r5, #788529152	; 0x2f000000
     414:	706f746b 	rsbvc	r7, pc, fp, ror #8
     418:	6863732f 	stmdavs	r3!, {r0, r1, r2, r3, r5, r8, r9, ip, sp, lr}^
     41c:	2f6c6f6f 	svccs	0x006c6f6f
     420:	69727053 	ldmdbvs	r2!, {r0, r1, r4, r6, ip, sp, lr}^
     424:	3931676e 	ldmdbcc	r1!, {r1, r2, r3, r5, r6, r8, r9, sl, sp, lr}
     428:	432f3032 	teqmi	pc, #50	; 0x32
     42c:	30343253 	eorscc	r3, r4, r3, asr r2
     430:	632f584c 	teqvs	pc, #76, 16	; 0x4c0000
     434:	30343273 	eorscc	r3, r4, r3, ror r2
     438:	322d786c 	eorcc	r7, sp, #108, 16	; 0x6c0000
     43c:	72707330 	rsbsvc	r7, r0, #48, 6	; 0xc0000000
     440:	62696c2f 	rsbvs	r6, r9, #12032	; 0x2f00
     444:	6c2f6970 	stcvs	9, cr6, [pc], #-448	; 28c <_start-0x7d74>
     448:	2f6d6269 	svccs	0x006d6269
     44c:	6c636e69 	stclvs	14, cr6, [r3], #-420	; 0xfffffe5c
     450:	00656475 	rsbeq	r6, r5, r5, ror r4
     454:	725f6b00 	subsvc	r6, pc, #0, 22
     458:	705f6d65 	subsvc	r6, pc, r5, ror #26
     45c:	2e326f69 	cdpcs	15, 3, cr6, cr2, cr9, {3}
     460:	00000063 	andeq	r0, r0, r3, rrx
     464:	64747300 	ldrbtvs	r7, [r4], #-768	; 0x300
     468:	2d746e69 	ldclcs	14, cr6, [r4, #-420]!	; 0xfffffe5c
     46c:	2e636367 	cdpcs	3, 6, cr6, cr3, cr7, {3}
     470:	00010068 	andeq	r0, r1, r8, rrx
     474:	65706f00 	ldrbvs	r6, [r0, #-3840]!	; 0xf00
     478:	62696c6e 	rsbvs	r6, r9, #28160	; 0x6e00
     47c:	616d5f6d 	cmnvs	sp, sp, ror #30
     480:	682e6874 	stmdavs	lr!, {r2, r4, r5, r6, fp, sp, lr}
     484:	00000200 	andeq	r0, r0, r0, lsl #4
     488:	02050000 	andeq	r0, r5, #0
     48c:	00008748 	andeq	r8, r0, r8, asr #14
     490:	0102a603 	tsteq	r2, r3, lsl #12
     494:	bb2f6aa3 	bllt	bdaf28 <__bss_end__+0xbd0978>
     498:	02004b85 	andeq	r4, r0, #136192	; 0x21400
     49c:	9e060204 	cdpls	2, 0, cr0, cr6, cr4, {0}
     4a0:	01040200 	mrseq	r0, R12_usr
     4a4:	0200822e 	andeq	r8, r0, #-536870910	; 0xe0000002
     4a8:	002e0304 	eoreq	r0, lr, r4, lsl #6
     4ac:	9e010402 	cdpls	4, 0, cr0, cr1, cr2, {0}
     4b0:	02040200 	andeq	r0, r4, #0, 4
     4b4:	0806da06 	stmdaeq	r6, {r1, r2, r9, fp, ip, lr, pc}
     4b8:	04020058 	streq	r0, [r2], #-88	; 0x58
     4bc:	4b062e01 	blmi	18bcc8 <__bss_end__+0x181718>
     4c0:	04020064 	streq	r0, [r2], #-100	; 0x64
     4c4:	062e0601 	strteq	r0, [lr], -r1, lsl #12
     4c8:	2f660903 	svccs	0x00660903
     4cc:	4a0a0334 	bmi	2811a4 <__bss_end__+0x276bf4>
     4d0:	032e1503 	teqeq	lr, #12582912	; 0xc00000
     4d4:	02002e59 	andeq	r2, r0, #1424	; 0x590
     4d8:	00bb0204 	adcseq	r0, fp, r4, lsl #4
     4dc:	67020402 	strvs	r0, [r2, -r2, lsl #8]
     4e0:	02040200 	andeq	r0, r4, #0, 4
     4e4:	0402009f 	streq	r0, [r2], #-159	; 0x9f
     4e8:	02007f02 	andeq	r7, r0, #2, 30
     4ec:	2e060104 	adfcss	f0, f6, f4
     4f0:	67675106 	strbvs	r5, [r7, -r6, lsl #2]!
     4f4:	084b4c2f 	stmdaeq	fp, {r0, r1, r2, r3, r5, sl, fp, lr}^
     4f8:	00684b21 	rsbeq	r4, r8, r1, lsr #22
     4fc:	06010402 	streq	r0, [r1], -r2, lsl #8
     500:	039f064a 	orrseq	r0, pc, #77594624	; 0x4a00000
     504:	30354a79 	eorscc	r4, r5, r9, ror sl
     508:	352d674b 	strcc	r6, [sp, #-1867]!	; 0x74b
     50c:	672f462c 	strvs	r4, [pc, -ip, lsr #12]!
     510:	03a02f4b 	moveq	r2, #300	; 0x12c
     514:	0200827a 	andeq	r8, r0, #-1610612729	; 0xa0000007
     518:	2e060104 	adfcss	f0, f6, f4
     51c:	a04b6e06 	subge	r6, fp, r6, lsl #28
     520:	2f4bd9f4 	svccs	0x004bd9f4
     524:	01040200 	mrseq	r0, R12_usr
     528:	87064a06 	strhi	r4, [r6, -r6, lsl #20]
     52c:	002f2d68 	eoreq	r2, pc, r8, ror #26
     530:	06020402 	streq	r0, [r2], -r2, lsl #8
     534:	0402002e 	streq	r0, [r2], #-46	; 0x2e
     538:	4b069e01 	blmi	1a7d44 <__bss_end__+0x19d794>
     53c:	02040200 	andeq	r0, r4, #0, 4
     540:	04020067 	streq	r0, [r2], #-103	; 0x67
     544:	06660601 	strbteq	r0, [r6], -r1, lsl #12
     548:	2c2f4bbc 	stccs	11, cr4, [pc], #-752	; 260 <_start-0x7da0>
     54c:	0200f32f 	andeq	pc, r0, #-1140850688	; 0xbc000000
     550:	66060204 	strvs	r0, [r6], -r4, lsl #4
     554:	01040200 	mrseq	r0, R12_usr
     558:	634b06f2 	movtvs	r0, #46834	; 0xb6f2
     55c:	01040200 	mrseq	r0, R12_usr
     560:	03062e06 	movweq	r2, #28166	; 0x6e06
     564:	4b67820b 	blmi	19e0d98 <__bss_end__+0x19d67e8>
     568:	02040200 	andeq	r0, r4, #0, 4
     56c:	02002e06 	andeq	r2, r0, #6, 28	; 0x60
     570:	064a0104 	strbeq	r0, [sl], -r4, lsl #2
     574:	838367bc 	orrhi	r6, r3, #188, 14	; 0x2f00000
     578:	86674bbb 			; <UNDEFINED> instruction: 0x86674bbb
     57c:	002d2f67 	eoreq	r2, sp, r7, ror #30
     580:	02020402 	andeq	r0, r2, #33554432	; 0x2000000
     584:	02001322 	andeq	r1, r0, #-2013265920	; 0x88000000
     588:	00f10204 	rscseq	r0, r1, r4, lsl #4
     58c:	06010402 	streq	r0, [r1], -r2, lsl #8
     590:	00c0062e 	sbceq	r0, r0, lr, lsr #12
     594:	06010402 	streq	r0, [r1], -r2, lsl #8
     598:	0058084a 	subseq	r0, r8, sl, asr #16
     59c:	2e010402 	cdpcs	4, 0, cr0, cr1, cr2, {0}
     5a0:	02040200 	andeq	r0, r4, #0, 4
     5a4:	804b064a 	subhi	r0, fp, sl, asr #12
     5a8:	01040200 	mrseq	r0, R12_usr
     5ac:	50062e06 	andpl	r2, r6, r6, lsl #28
     5b0:	02040200 	andeq	r0, r4, #0, 4
     5b4:	0200b7f5 	andeq	fp, r0, #64225280	; 0x3d40000
     5b8:	4b310104 	blmi	c409d0 <__bss_end__+0xc36420>
     5bc:	01040200 	mrseq	r0, R12_usr
     5c0:	02002e06 	andeq	r2, r0, #6, 28	; 0x60
     5c4:	002e0304 	eoreq	r0, lr, r4, lsl #6
     5c8:	06030402 	streq	r0, [r3], -r2, lsl #8
     5cc:	0402002f 	streq	r0, [r2], #-47	; 0x2f
     5d0:	77033202 	strvc	r3, [r3, -r2, lsl #4]
     5d4:	040200ba 	streq	r0, [r2], #-186	; 0xba
     5d8:	4a090301 	bmi	2411e4 <__bss_end__+0x236c34>
     5dc:	0402004c 	streq	r0, [r2], #-76	; 0x4c
     5e0:	4a2e0601 	bmi	b81dec <__bss_end__+0xb7783c>
     5e4:	03040200 	movweq	r0, #16896	; 0x4200
     5e8:	0402002e 	streq	r0, [r2], #-46	; 0x2e
     5ec:	002f0603 	eoreq	r0, pc, r3, lsl #12
     5f0:	4b030402 	blmi	c1600 <__bss_end__+0xb7050>
     5f4:	02040200 	andeq	r0, r4, #0, 4
     5f8:	02004a06 	andeq	r4, r0, #24576	; 0x6000
     5fc:	069e0104 	ldreq	r0, [lr], r4, lsl #2
     600:	0402004b 	streq	r0, [r2], #-75	; 0x4b
     604:	002e0601 	eoreq	r0, lr, r1, lsl #12
     608:	2e030402 	cdpcs	4, 0, cr0, cr3, cr2, {0}
     60c:	03040200 	movweq	r0, #16896	; 0x4200
     610:	02002f06 	andeq	r2, r0, #6, 30
     614:	00310204 	eorseq	r0, r1, r4, lsl #4
     618:	d7020402 	strle	r0, [r2, -r2, lsl #8]
     61c:	02040200 	andeq	r0, r4, #0, 4
     620:	04020067 	streq	r0, [r2], #-103	; 0x67
     624:	6f032b02 	svcvs	0x00032b02
     628:	0402004a 	streq	r0, [r2], #-74	; 0x4a
     62c:	2e110301 	cdpcs	3, 1, cr0, cr1, cr1, {0}
     630:	02040200 	andeq	r0, r4, #0, 4
     634:	04020088 	streq	r0, [r2], #-136	; 0x88
     638:	0200d702 	andeq	sp, r0, #524288	; 0x80000
     63c:	00670204 	rsbeq	r0, r7, r4, lsl #4
     640:	2b020402 	blcs	81650 <__bss_end__+0x770a0>
     644:	01040200 	mrseq	r0, R12_usr
     648:	02002e06 	andeq	r2, r0, #6, 28	; 0x60
     64c:	87060204 	strhi	r0, [r6, -r4, lsl #4]
     650:	01040200 	mrseq	r0, R12_usr
     654:	4b069e06 	blmi	1a7e74 <__bss_end__+0x19d8c4>
     658:	02f6bc4b 	rscseq	fp, r6, #19200	; 0x4b00
     65c:	01010010 	tsteq	r1, r0, lsl r0
     660:	0000014b 	andeq	r0, r0, fp, asr #2
     664:	010c0002 	tsteq	ip, r2
     668:	01020000 	mrseq	r0, (UNDEF: 2)
     66c:	000d0efb 	strdeq	r0, [sp], -fp
     670:	01010101 	tsteq	r1, r1, lsl #2
     674:	01000000 	mrseq	r0, (UNDEF: 0)
     678:	2f010000 	svccs	0x00010000
     67c:	2f727375 	svccs	0x00727375
     680:	61636f6c 	cmnvs	r3, ip, ror #30
     684:	65432f6c 	strbvs	r2, [r3, #-3948]	; 0xf6c
     688:	72616c6c 	rsbvc	r6, r1, #108, 24	; 0x6c00
     68c:	6d72612f 	ldfvse	f6, [r2, #-188]!	; 0xffffff44
     690:	6e6f6e2d 	cdpvs	14, 6, cr6, cr15, cr13, {1}
     694:	61652d65 	cmnvs	r5, r5, ror #26
     698:	342f6962 	strtcc	r6, [pc], #-2402	; 6a0 <_start-0x7960>
     69c:	332e382e 	teqcc	lr, #3014656	; 0x2e0000
     6a0:	3173632d 	cmncc	r3, sp, lsr #6
     6a4:	2f653037 	svccs	0x00653037
     6a8:	2f62696c 	svccs	0x0062696c
     6ac:	2f636367 	svccs	0x00636367
     6b0:	2d6d7261 	sfmcs	f7, 2, [sp, #-388]!	; 0xfffffe7c
     6b4:	656e6f6e 	strbvs	r6, [lr, #-3950]!	; 0xf6e
     6b8:	6261652d 	rsbvs	r6, r1, #188743680	; 0xb400000
     6bc:	2e342f69 	cdpcs	15, 3, cr2, cr4, cr9, {3}
     6c0:	2f332e38 	svccs	0x00332e38
     6c4:	6c636e69 	stclvs	14, cr6, [r3], #-420	; 0xfffffe5c
     6c8:	00656475 	rsbeq	r6, r5, r5, ror r4
     6cc:	6573552f 	ldrbvs	r5, [r3, #-1327]!	; 0x52f
     6d0:	622f7372 	eorvs	r7, pc, #-939524095	; 0xc8000001
     6d4:	6e616972 	mcrvs	9, 3, r6, cr1, cr2, {3}
     6d8:	2f6e756a 	svccs	0x006e756a
     6dc:	6b736544 	blvs	1cd9bf4 <__bss_end__+0x1ccf644>
     6e0:	2f706f74 	svccs	0x00706f74
     6e4:	6f686373 	svcvs	0x00686373
     6e8:	532f6c6f 	teqpl	pc, #28416	; 0x6f00
     6ec:	6e697270 	mcrvs	2, 3, r7, cr9, cr0, {3}
     6f0:	32393167 	eorscc	r3, r9, #-1073741799	; 0xc0000019
     6f4:	53432f30 	movtpl	r2, #16176	; 0x3f30
     6f8:	4c303432 	cfldrsmi	mvf3, [r0], #-200	; 0xffffff38
     6fc:	73632f58 	cmnvc	r3, #88, 30	; 0x160
     700:	6c303432 	cfldrsvs	mvf3, [r0], #-200	; 0xffffff38
     704:	30322d78 	eorscc	r2, r2, r8, ror sp
     708:	2f727073 	svccs	0x00727073
     70c:	7062696c 	rsbvc	r6, r2, ip, ror #18
     710:	696c2f69 	stmdbvs	ip!, {r0, r3, r5, r6, r8, r9, sl, fp, sp}^
     714:	692f6d62 	stmdbvs	pc!, {r1, r5, r6, r8, sl, fp, sp, lr}	; <UNPREDICTABLE>
     718:	756c636e 	strbvc	r6, [ip, #-878]!	; 0x36e
     71c:	00006564 	andeq	r6, r0, r4, ror #10
     720:	63735f73 	cmnvs	r3, #460	; 0x1cc
     724:	6e626c61 	cdpvs	12, 6, cr6, cr2, cr1, {3}
     728:	0000632e 	andeq	r6, r0, lr, lsr #6
     72c:	74730000 	ldrbtvc	r0, [r3], #-0
     730:	746e6964 	strbtvc	r6, [lr], #-2404	; 0x964
     734:	6363672d 	cmnvs	r3, #11796480	; 0xb40000
     738:	0100682e 	tsteq	r0, lr, lsr #16
     73c:	79740000 	ldmdbvc	r4!, {}^	; <UNPREDICTABLE>
     740:	2d736570 	cfldr64cs	mvdx6, [r3, #-448]!	; 0xfffffe40
     744:	706d6f63 	rsbvc	r6, sp, r3, ror #30
     748:	682e7461 	stmdavs	lr!, {r0, r5, r6, sl, ip, sp, lr}
     74c:	00000000 	andeq	r0, r0, r0
     750:	6874616d 	ldmdavs	r4!, {r0, r2, r3, r5, r6, r8, sp, lr}^
     754:	6972705f 	ldmdbvs	r2!, {r0, r1, r2, r3, r4, r6, ip, sp, lr}^
     758:	65746176 	ldrbvs	r6, [r4, #-374]!	; 0x176
     75c:	0000682e 	andeq	r6, r0, lr, lsr #16
     760:	706f0000 	rsbvc	r0, pc, r0
     764:	696c6e65 	stmdbvs	ip!, {r0, r2, r5, r6, r9, sl, fp, sp, lr}^
     768:	6d5f6d62 	ldclvs	13, cr6, [pc, #-392]	; 5e8 <_start-0x7a18>
     76c:	2e687461 	cdpcs	4, 6, cr7, cr8, cr1, {3}
     770:	00020068 	andeq	r0, r2, r8, rrx
     774:	05000000 	streq	r0, [r0, #-0]
     778:	008e9002 	addeq	r9, lr, r2
     77c:	01200300 	teqeq	r0, r0, lsl #6
     780:	4b674b68 	blmi	19d3528 <__bss_end__+0x19c8f78>
     784:	9f4b4b67 	svcls	0x004b4b67
     788:	01040200 	mrseq	r0, R12_usr
     78c:	68064a06 	stmdavs	r6, {r1, r2, r9, fp, lr}
     790:	01040200 	mrseq	r0, R12_usr
     794:	4b064a06 	blmi	192fb4 <__bss_end__+0x188a04>
     798:	0402002f 	streq	r0, [r2], #-47	; 0x2f
     79c:	06660601 	strbteq	r0, [r6], -r1, lsl #12
     7a0:	4bbb4b9f 	blmi	feed3624 <__bss_end__+0xfeec9074>
     7a4:	2fa09f67 	svccs	0x00a09f67
     7a8:	1c02679f 	stcne	7, cr6, [r2], {159}	; 0x9f
     7ac:	f4010100 	vst4.8	{d0,d2,d4,d6}, [r1], r0
     7b0:	02000000 	andeq	r0, r0, #0
     7b4:	0000a500 	andeq	sl, r0, r0, lsl #10
     7b8:	fb010200 	blx	40fc2 <__bss_end__+0x36a12>
     7bc:	01000d0e 	tsteq	r0, lr, lsl #26
     7c0:	00010101 	andeq	r0, r1, r1, lsl #2
     7c4:	00010000 	andeq	r0, r1, r0
     7c8:	752f0100 	strvc	r0, [pc, #-256]!	; 6d0 <_start-0x7930>
     7cc:	6c2f7273 	sfmvs	f7, 4, [pc], #-460	; 608 <_start-0x79f8>
     7d0:	6c61636f 	stclvs	3, cr6, [r1], #-444	; 0xfffffe44
     7d4:	6c65432f 	stclvs	3, cr4, [r5], #-188	; 0xffffff44
     7d8:	2f72616c 	svccs	0x0072616c
     7dc:	2d6d7261 	sfmcs	f7, 2, [sp, #-388]!	; 0xfffffe7c
     7e0:	656e6f6e 	strbvs	r6, [lr, #-3950]!	; 0xf6e
     7e4:	6261652d 	rsbvs	r6, r1, #188743680	; 0xb400000
     7e8:	2e342f69 	cdpcs	15, 3, cr2, cr4, cr9, {3}
     7ec:	2d332e38 	ldccs	14, cr2, [r3, #-224]!	; 0xffffff20
     7f0:	37317363 	ldrcc	r7, [r1, -r3, ror #6]!
     7f4:	6c2f6530 	cfstr32vs	mvfx6, [pc], #-192	; 73c <_start-0x78c4>
     7f8:	672f6269 	strvs	r6, [pc, -r9, ror #4]!
     7fc:	612f6363 	teqvs	pc, r3, ror #6
     800:	6e2d6d72 	mcrvs	13, 1, r6, cr13, cr2, {3}
     804:	2d656e6f 	stclcs	14, cr6, [r5, #-444]!	; 0xfffffe44
     808:	69626165 	stmdbvs	r2!, {r0, r2, r5, r6, r8, sp, lr}^
     80c:	382e342f 	stmdacc	lr!, {r0, r1, r2, r3, r5, sl, ip, sp}
     810:	692f332e 	stmdbvs	pc!, {r1, r2, r3, r5, r8, r9, ip, sp}	; <UNPREDICTABLE>
     814:	756c636e 	strbvc	r6, [ip, #-878]!	; 0x36e
     818:	00006564 	andeq	r6, r0, r4, ror #10
     81c:	6c665f73 	stclvs	15, cr5, [r6], #-460	; 0xfffffe34
     820:	2e726f6f 	cdpcs	15, 7, cr6, cr2, cr15, {3}
     824:	00000063 	andeq	r0, r0, r3, rrx
     828:	64747300 	ldrbtvs	r7, [r4], #-768	; 0x300
     82c:	2d746e69 	ldclcs	14, cr6, [r4, #-420]!	; 0xfffffe5c
     830:	2e636367 	cdpcs	3, 6, cr6, cr3, cr7, {3}
     834:	00010068 	andeq	r0, r1, r8, rrx
     838:	70797400 	rsbsvc	r7, r9, r0, lsl #8
     83c:	632d7365 	teqvs	sp, #-1811939327	; 0x94000001
     840:	61706d6f 	cmnvs	r0, pc, ror #26
     844:	00682e74 	rsbeq	r2, r8, r4, ror lr
     848:	6d000000 	stcvs	0, cr0, [r0, #-0]
     84c:	5f687461 	svcpl	0x00687461
     850:	76697270 			; <UNDEFINED> instruction: 0x76697270
     854:	2e657461 	cdpcs	4, 6, cr7, cr5, cr1, {3}
     858:	00000068 	andeq	r0, r0, r8, rrx
     85c:	05000000 	streq	r0, [r0, #-0]
     860:	008fe802 	addeq	lr, pc, r2, lsl #16
     864:	01210300 	teqeq	r1, r0, lsl #6
     868:	4b836731 	blmi	fe0da534 <__bss_end__+0xfe0cff84>
     86c:	864b9f4b 	strbhi	r9, [fp], -fp, asr #30
     870:	009f674b 	addseq	r6, pc, fp, asr #14
     874:	06010402 	streq	r0, [r1], -r2, lsl #8
     878:	694b062e 	stmdbvs	fp, {r1, r2, r3, r5, r9, sl}^
     87c:	0402004b 	streq	r0, [r2], #-75	; 0x4b
     880:	062e0601 	strteq	r0, [lr], -r1, lsl #12
     884:	9f4b834d 	svcls	0x004b834d
     888:	0402004b 	streq	r0, [r2], #-75	; 0x4b
     88c:	062e0601 	strteq	r0, [lr], -r1, lsl #12
     890:	0200834c 	andeq	r8, r0, #76, 6	; 0x30000001
     894:	2e060104 	adfcss	f0, f6, f4
     898:	65033206 	strvs	r3, [r3, #-518]	; 0x206
     89c:	1c03684a 	stcne	8, cr6, [r3], {74}	; 0x4a
     8a0:	0c02684a 	stceq	8, cr6, [r2], {74}	; 0x4a
     8a4:	c1010100 	mrsgt	r0, (UNDEF: 17)
     8a8:	02000000 	andeq	r0, r0, #0
     8ac:	0000a800 	andeq	sl, r0, r0, lsl #16
     8b0:	fb010200 	blx	410ba <__bss_end__+0x36b0a>
     8b4:	01000d0e 	tsteq	r0, lr, lsl #26
     8b8:	00010101 	andeq	r0, r1, r1, lsl #2
     8bc:	00010000 	andeq	r0, r1, r0
     8c0:	752f0100 	strvc	r0, [pc, #-256]!	; 7c8 <_start-0x7838>
     8c4:	6c2f7273 	sfmvs	f7, 4, [pc], #-460	; 700 <_start-0x7900>
     8c8:	6c61636f 	stclvs	3, cr6, [r1], #-444	; 0xfffffe44
     8cc:	6c65432f 	stclvs	3, cr4, [r5], #-188	; 0xffffff44
     8d0:	2f72616c 	svccs	0x0072616c
     8d4:	2d6d7261 	sfmcs	f7, 2, [sp, #-388]!	; 0xfffffe7c
     8d8:	656e6f6e 	strbvs	r6, [lr, #-3950]!	; 0xf6e
     8dc:	6261652d 	rsbvs	r6, r1, #188743680	; 0xb400000
     8e0:	2e342f69 	cdpcs	15, 3, cr2, cr4, cr9, {3}
     8e4:	2d332e38 	ldccs	14, cr2, [r3, #-224]!	; 0xffffff20
     8e8:	37317363 	ldrcc	r7, [r1, -r3, ror #6]!
     8ec:	6c2f6530 	cfstr32vs	mvfx6, [pc], #-192	; 834 <_start-0x77cc>
     8f0:	672f6269 	strvs	r6, [pc, -r9, ror #4]!
     8f4:	612f6363 	teqvs	pc, r3, ror #6
     8f8:	6e2d6d72 	mcrvs	13, 1, r6, cr13, cr2, {3}
     8fc:	2d656e6f 	stclcs	14, cr6, [r5, #-444]!	; 0xfffffe44
     900:	69626165 	stmdbvs	r2!, {r0, r2, r5, r6, r8, sp, lr}^
     904:	382e342f 	stmdacc	lr!, {r0, r1, r2, r3, r5, sl, ip, sp}
     908:	692f332e 	stmdbvs	pc!, {r1, r2, r3, r5, r8, r9, ip, sp}	; <UNPREDICTABLE>
     90c:	756c636e 	strbvc	r6, [ip, #-878]!	; 0x36e
     910:	00006564 	andeq	r6, r0, r4, ror #10
     914:	6f635f73 	svcvs	0x00635f73
     918:	69737970 	ldmdbvs	r3!, {r4, r5, r6, r8, fp, ip, sp, lr}^
     91c:	632e6e67 	teqvs	lr, #1648	; 0x670
     920:	00000000 	andeq	r0, r0, r0
     924:	69647473 	stmdbvs	r4!, {r0, r1, r4, r5, r6, sl, ip, sp, lr}^
     928:	672d746e 	strvs	r7, [sp, -lr, ror #8]!
     92c:	682e6363 	stmdavs	lr!, {r0, r1, r5, r6, r8, r9, sp, lr}
     930:	00000100 	andeq	r0, r0, r0, lsl #2
     934:	65707974 	ldrbvs	r7, [r0, #-2420]!	; 0x974
     938:	6f632d73 	svcvs	0x00632d73
     93c:	7461706d 	strbtvc	r7, [r1], #-109	; 0x6d
     940:	0000682e 	andeq	r6, r0, lr, lsr #16
     944:	616d0000 	cmnvs	sp, r0
     948:	705f6874 	subsvc	r6, pc, r4, ror r8	; <UNPREDICTABLE>
     94c:	61766972 	cmnvs	r6, r2, ror r9
     950:	682e6574 	stmdavs	lr!, {r2, r4, r5, r6, r8, sl, sp, lr}
     954:	00000000 	andeq	r0, r0, r0
     958:	02050000 	andeq	r0, r5, #0
     95c:	00009130 	andeq	r9, r0, r0, lsr r1
     960:	30011b03 	andcc	r1, r1, r3, lsl #22
     964:	02a02f2f 	adceq	r2, r0, #47, 30	; 0xbc
     968:	01010004 	tsteq	r1, r4
     96c:	000000cd 	andeq	r0, r0, sp, asr #1
     970:	00a30002 	adceq	r0, r3, r2
     974:	01020000 	mrseq	r0, (UNDEF: 2)
     978:	000d0efb 	strdeq	r0, [sp], -fp
     97c:	01010101 	tsteq	r1, r1, lsl #2
     980:	01000000 	mrseq	r0, (UNDEF: 0)
     984:	2f010000 	svccs	0x00010000
     988:	2f727375 	svccs	0x00727375
     98c:	61636f6c 	cmnvs	r3, ip, ror #30
     990:	65432f6c 	strbvs	r2, [r3, #-3948]	; 0xf6c
     994:	72616c6c 	rsbvc	r6, r1, #108, 24	; 0x6c00
     998:	6d72612f 	ldfvse	f6, [r2, #-188]!	; 0xffffff44
     99c:	6e6f6e2d 	cdpvs	14, 6, cr6, cr15, cr13, {1}
     9a0:	61652d65 	cmnvs	r5, r5, ror #26
     9a4:	342f6962 	strtcc	r6, [pc], #-2402	; 9ac <_start-0x7654>
     9a8:	332e382e 	teqcc	lr, #3014656	; 0x2e0000
     9ac:	3173632d 	cmncc	r3, sp, lsr #6
     9b0:	2f653037 	svccs	0x00653037
     9b4:	2f62696c 	svccs	0x0062696c
     9b8:	2f636367 	svccs	0x00636367
     9bc:	2d6d7261 	sfmcs	f7, 2, [sp, #-388]!	; 0xfffffe7c
     9c0:	656e6f6e 	strbvs	r6, [lr, #-3950]!	; 0xf6e
     9c4:	6261652d 	rsbvs	r6, r1, #188743680	; 0xb400000
     9c8:	2e342f69 	cdpcs	15, 3, cr2, cr4, cr9, {3}
     9cc:	2f332e38 	svccs	0x00332e38
     9d0:	6c636e69 	stclvs	14, cr6, [r3], #-420	; 0xfffffe5c
     9d4:	00656475 	rsbeq	r6, r5, r5, ror r4
     9d8:	735f7300 	cmpvc	pc, #0, 6
     9dc:	632e6e69 	teqvs	lr, #1680	; 0x690
     9e0:	00000000 	andeq	r0, r0, r0
     9e4:	69647473 	stmdbvs	r4!, {r0, r1, r4, r5, r6, sl, ip, sp, lr}^
     9e8:	672d746e 	strvs	r7, [sp, -lr, ror #8]!
     9ec:	682e6363 	stmdavs	lr!, {r0, r1, r5, r6, r8, r9, sp, lr}
     9f0:	00000100 	andeq	r0, r0, r0, lsl #2
     9f4:	65707974 	ldrbvs	r7, [r0, #-2420]!	; 0x974
     9f8:	6f632d73 	svcvs	0x00632d73
     9fc:	7461706d 	strbtvc	r7, [r1], #-109	; 0x6d
     a00:	0000682e 	andeq	r6, r0, lr, lsr #16
     a04:	616d0000 	cmnvs	sp, r0
     a08:	705f6874 	subsvc	r6, pc, r4, ror r8	; <UNPREDICTABLE>
     a0c:	61766972 	cmnvs	r6, r2, ror r9
     a10:	682e6574 	stmdavs	lr!, {r2, r4, r5, r6, r8, sl, sp, lr}
     a14:	00000000 	andeq	r0, r0, r0
     a18:	02050000 	andeq	r0, r5, #0
     a1c:	00009158 	andeq	r9, r0, r8, asr r1
     a20:	4f013703 	svcmi	0x00013703
     a24:	67672f31 			; <UNDEFINED> instruction: 0x67672f31
     a28:	02008683 	andeq	r8, r0, #137363456	; 0x8300000
     a2c:	4a060104 	bmi	180e44 <__bss_end__+0x176894>
     a30:	d74b4e06 	strble	r4, [fp, -r6, lsl #28]
     a34:	85bc839f 	ldrhi	r8, [ip, #927]!	; 0x39f
     a38:	01000e02 	tsteq	r0, r2, lsl #28
     a3c:	00010c01 	andeq	r0, r1, r1, lsl #24
     a40:	f5000200 			; <UNDEFINED> instruction: 0xf5000200
     a44:	02000000 	andeq	r0, r0, #0
     a48:	0d0efb01 	vstreq	d15, [lr, #-4]
     a4c:	01010100 	mrseq	r0, (UNDEF: 17)
     a50:	00000001 	andeq	r0, r0, r1
     a54:	01000001 	tsteq	r0, r1
     a58:	6362696c 	cmnvs	r2, #108, 18	; 0x1b0000
     a5c:	73752f00 	cmnvc	r5, #0, 30
     a60:	6f6c2f72 	svcvs	0x006c2f72
     a64:	2f6c6163 	svccs	0x006c6163
     a68:	6c6c6543 	cfstr64vs	mvdx6, [ip], #-268	; 0xfffffef4
     a6c:	612f7261 	teqvs	pc, r1, ror #4
     a70:	6e2d6d72 	mcrvs	13, 1, r6, cr13, cr2, {3}
     a74:	2d656e6f 	stclcs	14, cr6, [r5, #-444]!	; 0xfffffe44
     a78:	69626165 	stmdbvs	r2!, {r0, r2, r5, r6, r8, sp, lr}^
     a7c:	382e342f 	stmdacc	lr!, {r0, r1, r2, r3, r5, sl, ip, sp}
     a80:	632d332e 	teqvs	sp, #-1207959552	; 0xb8000000
     a84:	30373173 	eorscc	r3, r7, r3, ror r1
     a88:	696c2f65 	stmdbvs	ip!, {r0, r2, r5, r6, r8, r9, sl, fp, sp}^
     a8c:	63672f62 	cmnvs	r7, #392	; 0x188
     a90:	72612f63 	rsbvc	r2, r1, #396	; 0x18c
     a94:	6f6e2d6d 	svcvs	0x006e2d6d
     a98:	652d656e 	strvs	r6, [sp, #-1390]!	; 0x56e
     a9c:	2f696261 	svccs	0x00696261
     aa0:	2e382e34 	mrccs	14, 1, r2, cr8, cr4, {1}
     aa4:	6e692f33 	mcrvs	15, 3, r2, cr9, cr3, {1}
     aa8:	64756c63 	ldrbtvs	r6, [r5], #-3171	; 0xc63
     aac:	552f0065 	strpl	r0, [pc, #-101]!	; a4f <_start-0x75b1>
     ab0:	73726573 	cmnvc	r2, #482344960	; 0x1cc00000
     ab4:	6972622f 	ldmdbvs	r2!, {r0, r1, r2, r3, r5, r9, sp, lr}^
     ab8:	756a6e61 	strbvc	r6, [sl, #-3681]!	; 0xe61
     abc:	65442f6e 	strbvs	r2, [r4, #-3950]	; 0xf6e
     ac0:	6f746b73 	svcvs	0x00746b73
     ac4:	63732f70 	cmnvs	r3, #112, 30	; 0x1c0
     ac8:	6c6f6f68 	stclvs	15, cr6, [pc], #-416	; 930 <_start-0x76d0>
     acc:	7270532f 	rsbsvc	r5, r0, #-1140850688	; 0xbc000000
     ad0:	31676e69 	cmncc	r7, r9, ror #28
     ad4:	2f303239 	svccs	0x00303239
     ad8:	34325343 	ldrtcc	r5, [r2], #-835	; 0x343
     adc:	2f584c30 	svccs	0x00584c30
     ae0:	34327363 	ldrtcc	r7, [r2], #-867	; 0x363
     ae4:	2d786c30 	ldclcs	12, cr6, [r8, #-192]!	; 0xffffff40
     ae8:	70733032 	rsbsvc	r3, r3, r2, lsr r0
     aec:	696c2f72 	stmdbvs	ip!, {r1, r4, r5, r6, r8, r9, sl, fp, sp}^
     af0:	2f697062 	svccs	0x00697062
     af4:	6c636e69 	stclvs	14, cr6, [r3], #-420	; 0xfffffe5c
     af8:	00656475 	rsbeq	r6, r5, r5, ror r4
     afc:	69727000 	ldmdbvs	r2!, {ip, sp, lr}^
     b00:	2e6b746e 	cdpcs	4, 6, cr7, cr11, cr14, {3}
     b04:	00010063 	andeq	r0, r1, r3, rrx
     b08:	64747300 	ldrbtvs	r7, [r4], #-768	; 0x300
     b0c:	2e677261 	cdpcs	2, 6, cr7, cr7, cr1, {3}
     b10:	00020068 	andeq	r0, r2, r8, rrx
     b14:	75623c00 	strbvc	r3, [r2, #-3072]!	; 0xc00
     b18:	2d746c69 	ldclcs	12, cr6, [r4, #-420]!	; 0xfffffe5c
     b1c:	003e6e69 	eorseq	r6, lr, r9, ror #28
     b20:	72000000 	andvc	r0, r0, #0
     b24:	682e6970 	stmdavs	lr!, {r4, r5, r6, r8, fp, sp, lr}
     b28:	00000300 	andeq	r0, r0, r0, lsl #6
     b2c:	702d6176 	eorvc	r6, sp, r6, ror r1
     b30:	746e6972 	strbtvc	r6, [lr], #-2418	; 0x972
     b34:	00682e6b 	rsbeq	r2, r8, fp, ror #28
     b38:	00000001 	andeq	r0, r0, r1
     b3c:	40020500 	andmi	r0, r2, r0, lsl #10
     b40:	17000092 			; <UNDEFINED> instruction: 0x17000092
     b44:	89bf4b6b 	ldmibhi	pc!, {r0, r1, r3, r5, r6, r8, r9, fp, lr}	; <UNPREDICTABLE>
     b48:	01000e02 	tsteq	r0, r2, lsl #28
     b4c:	0000a001 	andeq	sl, r0, r1
     b50:	79000200 	stmdbvc	r0, {r9}
     b54:	02000000 	andeq	r0, r0, #0
     b58:	0d0efb01 	vstreq	d15, [lr, #-4]
     b5c:	01010100 	mrseq	r0, (UNDEF: 17)
     b60:	00000001 	andeq	r0, r0, r1
     b64:	01000001 	tsteq	r0, r1
     b68:	6362696c 	cmnvs	r2, #108, 18	; 0x1b0000
     b6c:	73552f00 	cmpvc	r5, #0, 30
     b70:	2f737265 	svccs	0x00737265
     b74:	61697262 	cmnvs	r9, r2, ror #4
     b78:	6e756a6e 	vsubvs.f32	s13, s10, s29
     b7c:	7365442f 	cmnvc	r5, #788529152	; 0x2f000000
     b80:	706f746b 	rsbvc	r7, pc, fp, ror #8
     b84:	6863732f 	stmdavs	r3!, {r0, r1, r2, r3, r5, r8, r9, ip, sp, lr}^
     b88:	2f6c6f6f 	svccs	0x006c6f6f
     b8c:	69727053 	ldmdbvs	r2!, {r0, r1, r4, r6, ip, sp, lr}^
     b90:	3931676e 	ldmdbcc	r1!, {r1, r2, r3, r5, r6, r8, r9, sl, sp, lr}
     b94:	432f3032 	teqmi	pc, #50	; 0x32
     b98:	30343253 	eorscc	r3, r4, r3, asr r2
     b9c:	632f584c 	teqvs	pc, #76, 16	; 0x4c0000
     ba0:	30343273 	eorscc	r3, r4, r3, ror r2
     ba4:	322d786c 	eorcc	r7, sp, #108, 16	; 0x6c0000
     ba8:	72707330 	rsbsvc	r7, r0, #48, 6	; 0xc0000000
     bac:	62696c2f 	rsbvs	r6, r9, #12032	; 0x2f00
     bb0:	692f6970 	stmdbvs	pc!, {r4, r5, r6, r8, fp, sp, lr}	; <UNPREDICTABLE>
     bb4:	756c636e 	strbvc	r6, [ip, #-878]!	; 0x36e
     bb8:	00006564 	andeq	r6, r0, r4, ror #10
     bbc:	6b747570 	blvs	1d1e184 <__bss_end__+0x1d13bd4>
     bc0:	0100632e 	tsteq	r0, lr, lsr #6
     bc4:	70720000 	rsbsvc	r0, r2, r0
     bc8:	00682e69 	rsbeq	r2, r8, r9, ror #28
     bcc:	00000002 	andeq	r0, r0, r2
     bd0:	98020500 	stmdals	r2, {r8, sl}
     bd4:	15000092 	strne	r0, [r0, #-146]	; 0x92
     bd8:	02002d4c 	andeq	r2, r0, #76, 26	; 0x1300
     bdc:	002f0204 	eoreq	r0, pc, r4, lsl #4
     be0:	49020402 	stmdbmi	r2, {r1, sl}
     be4:	01040200 	mrseq	r0, R12_usr
     be8:	6b062e06 	blvs	18c408 <__bss_end__+0x181e58>
     bec:	01000602 	tsteq	r0, r2, lsl #12
     bf0:	00026b01 	andeq	r6, r2, r1, lsl #22
     bf4:	38000200 	stmdacc	r0, {r9}
     bf8:	02000001 	andeq	r0, r0, #1
     bfc:	0d0efb01 	vstreq	d15, [lr, #-4]
     c00:	01010100 	mrseq	r0, (UNDEF: 17)
     c04:	00000001 	andeq	r0, r0, r1
     c08:	01000001 	tsteq	r0, r1
     c0c:	6362696c 	cmnvs	r2, #108, 18	; 0x1b0000
     c10:	73752f00 	cmnvc	r5, #0, 30
     c14:	6f6c2f72 	svcvs	0x006c2f72
     c18:	2f6c6163 	svccs	0x006c6163
     c1c:	6c6c6543 	cfstr64vs	mvdx6, [ip], #-268	; 0xfffffef4
     c20:	612f7261 	teqvs	pc, r1, ror #4
     c24:	6e2d6d72 	mcrvs	13, 1, r6, cr13, cr2, {3}
     c28:	2d656e6f 	stclcs	14, cr6, [r5, #-444]!	; 0xfffffe44
     c2c:	69626165 	stmdbvs	r2!, {r0, r2, r5, r6, r8, sp, lr}^
     c30:	382e342f 	stmdacc	lr!, {r0, r1, r2, r3, r5, sl, ip, sp}
     c34:	632d332e 	teqvs	sp, #-1207959552	; 0xb8000000
     c38:	30373173 	eorscc	r3, r7, r3, ror r1
     c3c:	696c2f65 	stmdbvs	ip!, {r0, r2, r5, r6, r8, r9, sl, fp, sp}^
     c40:	63672f62 	cmnvs	r7, #392	; 0x188
     c44:	72612f63 	rsbvc	r2, r1, #396	; 0x18c
     c48:	6f6e2d6d 	svcvs	0x006e2d6d
     c4c:	652d656e 	strvs	r6, [sp, #-1390]!	; 0x56e
     c50:	2f696261 	svccs	0x00696261
     c54:	2e382e34 	mrccs	14, 1, r2, cr8, cr4, {1}
     c58:	6e692f33 	mcrvs	15, 3, r2, cr9, cr3, {1}
     c5c:	64756c63 	ldrbtvs	r6, [r5], #-3171	; 0xc63
     c60:	552f0065 	strpl	r0, [pc, #-101]!	; c03 <_start-0x73fd>
     c64:	73726573 	cmnvc	r2, #482344960	; 0x1cc00000
     c68:	6972622f 	ldmdbvs	r2!, {r0, r1, r2, r3, r5, r9, sp, lr}^
     c6c:	756a6e61 	strbvc	r6, [sl, #-3681]!	; 0xe61
     c70:	65442f6e 	strbvs	r2, [r4, #-3950]	; 0xf6e
     c74:	6f746b73 	svcvs	0x00746b73
     c78:	63732f70 	cmnvs	r3, #112, 30	; 0x1c0
     c7c:	6c6f6f68 	stclvs	15, cr6, [pc], #-416	; ae4 <_start-0x751c>
     c80:	7270532f 	rsbsvc	r5, r0, #-1140850688	; 0xbc000000
     c84:	31676e69 	cmncc	r7, r9, ror #28
     c88:	2f303239 	svccs	0x00303239
     c8c:	34325343 	ldrtcc	r5, [r2], #-835	; 0x343
     c90:	2f584c30 	svccs	0x00584c30
     c94:	34327363 	ldrtcc	r7, [r2], #-867	; 0x363
     c98:	2d786c30 	ldclcs	12, cr6, [r8, #-192]!	; 0xffffff40
     c9c:	70733032 	rsbsvc	r3, r3, r2, lsr r0
     ca0:	696c2f72 	stmdbvs	ip!, {r1, r4, r5, r6, r8, r9, sl, fp, sp}^
     ca4:	2f697062 	svccs	0x00697062
     ca8:	6c636e69 	stclvs	14, cr6, [r3], #-420	; 0xfffffe5c
     cac:	00656475 	rsbeq	r6, r5, r5, ror r4
     cb0:	7273752f 	rsbsvc	r7, r3, #197132288	; 0xbc00000
     cb4:	636f6c2f 	cmnvs	pc, #12032	; 0x2f00
     cb8:	432f6c61 	teqmi	pc, #24832	; 0x6100
     cbc:	616c6c65 	cmnvs	ip, r5, ror #24
     cc0:	72612f72 	rsbvc	r2, r1, #456	; 0x1c8
     cc4:	6f6e2d6d 	svcvs	0x006e2d6d
     cc8:	652d656e 	strvs	r6, [sp, #-1390]!	; 0x56e
     ccc:	2f696261 	svccs	0x00696261
     cd0:	2e382e34 	mrccs	14, 1, r2, cr8, cr4, {1}
     cd4:	73632d33 	cmnvc	r3, #3264	; 0xcc0
     cd8:	65303731 	ldrvs	r3, [r0, #-1841]!	; 0x731
     cdc:	6d72612f 	ldfvse	f6, [r2, #-188]!	; 0xffffff44
     ce0:	6e6f6e2d 	cdpvs	14, 6, cr6, cr15, cr13, {1}
     ce4:	61652d65 	cmnvs	r5, r5, ror #26
     ce8:	692f6962 	stmdbvs	pc!, {r1, r5, r6, r8, fp, sp, lr}	; <UNPREDICTABLE>
     cec:	756c636e 	strbvc	r6, [ip, #-878]!	; 0x36e
     cf0:	00006564 	andeq	r6, r0, r4, ror #10
     cf4:	702d6176 	eorvc	r6, sp, r6, ror r1
     cf8:	746e6972 	strbtvc	r6, [lr], #-2418	; 0x972
     cfc:	00632e6b 	rsbeq	r2, r3, fp, ror #28
     d00:	73000001 	movwvc	r0, #1
     d04:	72616474 	rsbvc	r6, r1, #116, 8	; 0x74000000
     d08:	00682e67 	rsbeq	r2, r8, r7, ror #28
     d0c:	72000002 	andvc	r0, r0, #2
     d10:	682e6970 	stmdavs	lr!, {r4, r5, r6, r8, fp, sp, lr}
     d14:	00000300 	andeq	r0, r0, r0, lsl #6
     d18:	6975623c 	ldmdbvs	r5!, {r2, r3, r4, r5, r9, sp, lr}^
     d1c:	692d746c 	pushvs	{r2, r3, r5, r6, sl, ip, sp, lr}
     d20:	00003e6e 	andeq	r3, r0, lr, ror #28
     d24:	74730000 	ldrbtvc	r0, [r3], #-0
     d28:	676e6972 			; <UNDEFINED> instruction: 0x676e6972
     d2c:	0400682e 	streq	r6, [r0], #-2094	; 0x82e
     d30:	00000000 	andeq	r0, r0, r0
     d34:	92d00205 	sbcsls	r0, r0, #1342177280	; 0x50000000
     d38:	26030000 	strcs	r0, [r3], -r0
     d3c:	13a50101 			; <UNDEFINED> instruction: 0x13a50101
     d40:	02002d31 	andeq	r2, r0, #3136	; 0xc40
     d44:	002f0204 	eoreq	r0, pc, r4, lsl #4
     d48:	2d020402 	cfstrscs	mvf0, [r2, #-8]
     d4c:	02040200 	andeq	r0, r4, #0, 4
     d50:	0402002f 	streq	r0, [r2], #-47	; 0x2f
     d54:	4c4c2d01 	mcrrmi	13, 0, r2, ip, cr1
     d58:	2f4b1430 	svccs	0x004b1430
     d5c:	0402004f 	streq	r0, [r2], #-79	; 0x4f
     d60:	02006702 	andeq	r6, r0, #524288	; 0x80000
     d64:	4c650104 	stfmie	f0, [r5], #-16
     d68:	0187034d 	orreq	r0, r7, sp, asr #6
     d6c:	2f68142e 	svccs	0x0068142e
     d70:	2108314b 	tstcs	r8, fp, asr #2
     d74:	032f2fbb 	teqeq	pc, #748	; 0x2ec
     d78:	a02e7eee 	eorge	r7, lr, lr, ror #29
     d7c:	0230312f 	eorseq	r3, r0, #-1073741813	; 0xc000000b
     d80:	2d841626 	stccs	6, cr1, [r4, #152]	; 0x98
     d84:	0402002c 	streq	r0, [r2], #-44	; 0x2c
     d88:	02003001 	andeq	r3, r0, #1
     d8c:	06330104 	ldrteq	r0, [r3], -r4, lsl #2
     d90:	04020066 	streq	r0, [r2], #-102	; 0x66
     d94:	02002e01 	andeq	r2, r0, #1, 28
     d98:	08060104 	stmdaeq	r6, {r2, r8}
     d9c:	032f6721 	teqeq	pc, #8650752	; 0x840000
     da0:	13038273 	movwne	r8, #12915	; 0x3273
     da4:	0402002e 	streq	r0, [r2], #-46	; 0x2e
     da8:	00660601 	rsbeq	r0, r6, r1, lsl #12
     dac:	06010402 	streq	r0, [r1], -r2, lsl #8
     db0:	674b4b83 	strbvs	r4, [fp, -r3, lsl #23]
     db4:	65034b31 	strvs	r4, [r3, #-2865]	; 0xb31
     db8:	2e23032e 	cdpcs	3, 2, cr0, cr3, cr14, {1}
     dbc:	01040200 	mrseq	r0, R12_usr
     dc0:	02002e06 	andeq	r2, r0, #6, 28	; 0x60
     dc4:	9f060104 	svcls	0x00060104
     dc8:	01040200 	mrseq	r0, R12_usr
     dcc:	03d7d96a 	bicseq	sp, r7, #1736704	; 0x1a8000
     dd0:	20087fa4 	andcs	r7, r8, r4, lsr #31
     dd4:	0402002f 	streq	r0, [r2], #-47	; 0x2f
     dd8:	064a0601 	strbeq	r0, [sl], -r1, lsl #12
     ddc:	032f4bd7 	teqeq	pc, #220160	; 0x35c00
     de0:	bdf201b9 	ldflte	f0, [r2, #740]!	; 0x2e4
     de4:	34466767 	strbcc	r6, [r6], #-1895	; 0x767
     de8:	d769674c 	strble	r6, [r9, -ip, asr #14]!
     dec:	30f56968 	rscscc	r6, r5, r8, ror #18
     df0:	48832f2c 	stmmi	r3, {r2, r3, r5, r8, r9, sl, fp, sp}
     df4:	01040200 	mrseq	r0, R12_usr
     df8:	4d062e06 	stcmi	14, cr2, [r6, #-24]	; 0xffffffe8
     dfc:	7f880368 	svcvc	0x00880368
     e00:	484c839e 	stmdami	ip, {r1, r2, r3, r4, r7, r8, r9, pc}^
     e04:	032e0e03 	teqeq	lr, #3, 28	; 0x30
     e08:	2f2f2e75 	svccs	0x002f2e75
     e0c:	2d2f4b84 	vstmdbcs	pc!, {d4-d5}
     e10:	2f30314d 	svccs	0x0030314d
     e14:	04020083 	streq	r0, [r2], #-131	; 0x83
     e18:	00a22c01 	adceq	r2, r2, r1, lsl #24
     e1c:	06010402 	streq	r0, [r1], -r2, lsl #8
     e20:	03d8064a 	bicseq	r0, r8, #77594624	; 0x4a00000
     e24:	0136020b 	teqeq	r6, fp, lsl #4
     e28:	08328467 	ldmdaeq	r2!, {r0, r1, r2, r5, r6, sl, pc}
     e2c:	31f33021 	mvnscc	r3, r1, lsr #32
     e30:	30f330f3 	ldrshtcc	r3, [r3], #3
     e34:	30f3304b 	rscscc	r3, r3, fp, asr #32
     e38:	2f312308 	svccs	0x00312308
     e3c:	01040200 	mrseq	r0, R12_usr
     e40:	04020065 	streq	r0, [r2], #-101	; 0x65
     e44:	004a0602 	subeq	r0, sl, r2, lsl #12
     e48:	06010402 	streq	r0, [r1], -r2, lsl #8
     e4c:	00664203 	rsbeq	r4, r6, r3, lsl #4
     e50:	06020402 	streq	r0, [r2], -r2, lsl #8
     e54:	c2030666 	andgt	r0, r3, #106954752	; 0x6600000
     e58:	02684a00 	rsbeq	r4, r8, #0, 20
     e5c:	0101000e 	tsteq	r1, lr
     e60:	0000009c 	muleq	r0, ip, r0
     e64:	00860002 	addeq	r0, r6, r2
     e68:	01020000 	mrseq	r0, (UNDEF: 2)
     e6c:	000d0efb 	strdeq	r0, [sp], -fp
     e70:	01010101 	tsteq	r1, r1, lsl #2
     e74:	01000000 	mrseq	r0, (UNDEF: 0)
     e78:	73010000 	movwvc	r0, #4096	; 0x1000
     e7c:	66666174 			; <UNDEFINED> instruction: 0x66666174
     e80:	6372732d 	cmnvs	r2, #-1275068416	; 0xb4000000
     e84:	73552f00 	cmpvc	r5, #0, 30
     e88:	2f737265 	svccs	0x00737265
     e8c:	61697262 	cmnvs	r9, r2, ror #4
     e90:	6e756a6e 	vsubvs.f32	s13, s10, s29
     e94:	7365442f 	cmnvc	r5, #788529152	; 0x2f000000
     e98:	706f746b 	rsbvc	r7, pc, fp, ror #8
     e9c:	6863732f 	stmdavs	r3!, {r0, r1, r2, r3, r5, r8, r9, ip, sp, lr}^
     ea0:	2f6c6f6f 	svccs	0x006c6f6f
     ea4:	69727053 	ldmdbvs	r2!, {r0, r1, r4, r6, ip, sp, lr}^
     ea8:	3931676e 	ldmdbcc	r1!, {r1, r2, r3, r5, r6, r8, r9, sl, sp, lr}
     eac:	432f3032 	teqmi	pc, #50	; 0x32
     eb0:	30343253 	eorscc	r3, r4, r3, asr r2
     eb4:	632f584c 	teqvs	pc, #76, 16	; 0x4c0000
     eb8:	30343273 	eorscc	r3, r4, r3, ror r2
     ebc:	322d786c 	eorcc	r7, sp, #108, 16	; 0x6c0000
     ec0:	72707330 	rsbsvc	r7, r0, #48, 6	; 0xc0000000
     ec4:	62696c2f 	rsbvs	r6, r9, #12032	; 0x2f00
     ec8:	692f6970 	stmdbvs	pc!, {r4, r5, r6, r8, fp, sp, lr}	; <UNPREDICTABLE>
     ecc:	756c636e 	strbvc	r6, [ip, #-878]!	; 0x36e
     ed0:	00006564 	andeq	r6, r0, r4, ror #10
     ed4:	61656c63 	cmnvs	r5, r3, ror #24
     ed8:	65722d6e 	ldrbvs	r2, [r2, #-3438]!	; 0xd6e
     edc:	746f6f62 	strbtvc	r6, [pc], #-3938	; ee4 <_start-0x711c>
     ee0:	0100632e 	tsteq	r0, lr, lsr #6
     ee4:	70720000 	rsbsvc	r0, r2, r0
     ee8:	00682e69 	rsbeq	r2, r8, r9, ror #28
     eec:	00000002 	andeq	r0, r0, r2
     ef0:	40020500 	andmi	r0, r2, r0, lsl #10
     ef4:	15000099 	strne	r0, [r0, #-153]	; 0x99
     ef8:	024b832f 	subeq	r8, fp, #-1140850688	; 0xbc000000
     efc:	01010006 	tsteq	r1, r6
     f00:	000000b8 	strheq	r0, [r0], -r8
     f04:	008c0002 	addeq	r0, ip, r2
     f08:	01020000 	mrseq	r0, (UNDEF: 2)
     f0c:	000d0efb 	strdeq	r0, [sp], -fp
     f10:	01010101 	tsteq	r1, r1, lsl #2
     f14:	01000000 	mrseq	r0, (UNDEF: 0)
     f18:	73010000 	movwvc	r0, #4096	; 0x1000
     f1c:	66666174 			; <UNDEFINED> instruction: 0x66666174
     f20:	6372732d 	cmnvs	r2, #-1275068416	; 0xb4000000
     f24:	73552f00 	cmpvc	r5, #0, 30
     f28:	2f737265 	svccs	0x00737265
     f2c:	61697262 	cmnvs	r9, r2, ror #4
     f30:	6e756a6e 	vsubvs.f32	s13, s10, s29
     f34:	7365442f 	cmnvc	r5, #788529152	; 0x2f000000
     f38:	706f746b 	rsbvc	r7, pc, fp, ror #8
     f3c:	6863732f 	stmdavs	r3!, {r0, r1, r2, r3, r5, r8, r9, ip, sp, lr}^
     f40:	2f6c6f6f 	svccs	0x006c6f6f
     f44:	69727053 	ldmdbvs	r2!, {r0, r1, r4, r6, ip, sp, lr}^
     f48:	3931676e 	ldmdbcc	r1!, {r1, r2, r3, r5, r6, r8, r9, sl, sp, lr}
     f4c:	432f3032 	teqmi	pc, #50	; 0x32
     f50:	30343253 	eorscc	r3, r4, r3, asr r2
     f54:	632f584c 	teqvs	pc, #76, 16	; 0x4c0000
     f58:	30343273 	eorscc	r3, r4, r3, ror r2
     f5c:	322d786c 	eorcc	r7, sp, #108, 16	; 0x6c0000
     f60:	72707330 	rsbsvc	r7, r0, #48, 6	; 0xc0000000
     f64:	62696c2f 	rsbvs	r6, r9, #12032	; 0x2f00
     f68:	692f6970 	stmdbvs	pc!, {r4, r5, r6, r8, fp, sp, lr}	; <UNPREDICTABLE>
     f6c:	756c636e 	strbvc	r6, [ip, #-878]!	; 0x36e
     f70:	00006564 	andeq	r6, r0, r4, ror #10
     f74:	61747363 	cmnvs	r4, r3, ror #6
     f78:	632e7472 	teqvs	lr, #1912602624	; 0x72000000
     f7c:	00000100 	andeq	r0, r0, r0, lsl #2
     f80:	2d697072 	stclcs	0, cr7, [r9, #-456]!	; 0xfffffe38
     f84:	682e7066 	stmdavs	lr!, {r1, r2, r5, r6, ip, sp, lr}
     f88:	00000200 	andeq	r0, r0, r0, lsl #4
     f8c:	2e697072 	mcrcs	0, 3, r7, cr9, cr2, {3}
     f90:	00020068 	andeq	r0, r2, r8, rrx
     f94:	05000000 	streq	r0, [r0, #-0]
     f98:	00996802 	addseq	r6, r9, r2, lsl #16
     f9c:	010c0300 	mrseq	r0, LR_mon
     fa0:	2d2f3132 	stfcss	f3, [pc, #-200]!	; ee0 <_start-0x7120>
     fa4:	0402002f 	streq	r0, [r2], #-47	; 0x2f
     fa8:	2f4f4901 	svccs	0x004f4901
     fac:	01040200 	mrseq	r0, R12_usr
     fb0:	03068206 	movweq	r8, #25094	; 0x6206
     fb4:	022fd60f 	eoreq	sp, pc, #15728640	; 0xf00000
     fb8:	0101000e 	tsteq	r1, lr
     fbc:	000000a2 	andeq	r0, r0, r2, lsr #1
     fc0:	00800002 	addeq	r0, r0, r2
     fc4:	01020000 	mrseq	r0, (UNDEF: 2)
     fc8:	000d0efb 	strdeq	r0, [sp], -fp
     fcc:	01010101 	tsteq	r1, r1, lsl #2
     fd0:	01000000 	mrseq	r0, (UNDEF: 0)
     fd4:	73010000 	movwvc	r0, #4096	; 0x1000
     fd8:	66666174 			; <UNDEFINED> instruction: 0x66666174
     fdc:	6372732d 	cmnvs	r2, #-1275068416	; 0xb4000000
     fe0:	73552f00 	cmpvc	r5, #0, 30
     fe4:	2f737265 	svccs	0x00737265
     fe8:	61697262 	cmnvs	r9, r2, ror #4
     fec:	6e756a6e 	vsubvs.f32	s13, s10, s29
     ff0:	7365442f 	cmnvc	r5, #788529152	; 0x2f000000
     ff4:	706f746b 	rsbvc	r7, pc, fp, ror #8
     ff8:	6863732f 	stmdavs	r3!, {r0, r1, r2, r3, r5, r8, r9, ip, sp, lr}^
     ffc:	2f6c6f6f 	svccs	0x006c6f6f
    1000:	69727053 	ldmdbvs	r2!, {r0, r1, r4, r6, ip, sp, lr}^
    1004:	3931676e 	ldmdbcc	r1!, {r1, r2, r3, r5, r6, r8, r9, sl, sp, lr}
    1008:	432f3032 	teqmi	pc, #50	; 0x32
    100c:	30343253 	eorscc	r3, r4, r3, asr r2
    1010:	632f584c 	teqvs	pc, #76, 16	; 0x4c0000
    1014:	30343273 	eorscc	r3, r4, r3, ror r2
    1018:	322d786c 	eorcc	r7, sp, #108, 16	; 0x6c0000
    101c:	72707330 	rsbsvc	r7, r0, #48, 6	; 0xc0000000
    1020:	62696c2f 	rsbvs	r6, r9, #12032	; 0x2f00
    1024:	692f6970 	stmdbvs	pc!, {r4, r5, r6, r8, fp, sp, lr}	; <UNPREDICTABLE>
    1028:	756c636e 	strbvc	r6, [ip, #-878]!	; 0x36e
    102c:	00006564 	andeq	r6, r0, r4, ror #10
    1030:	6f626572 	svcvs	0x00626572
    1034:	632e746f 	teqvs	lr, #1862270976	; 0x6f000000
    1038:	00000100 	andeq	r0, r0, r0, lsl #2
    103c:	2e697072 	mcrcs	0, 3, r7, cr9, cr2, {3}
    1040:	00020068 	andeq	r0, r2, r8, rrx
    1044:	05000000 	streq	r0, [r0, #-0]
    1048:	0099dc02 	addseq	sp, r9, r2, lsl #24
    104c:	010d0300 	mrseq	r0, SP_mon
    1050:	852f3114 	strhi	r3, [pc, #-276]!	; f44 <_start-0x70bc>
    1054:	4d4b2f15 	stclmi	15, cr2, [fp, #-84]	; 0xffffffac
    1058:	5235672f 	eorspl	r6, r5, #12320768	; 0xbc0000
    105c:	00100267 	andseq	r0, r0, r7, ror #4
    1060:	00ac0101 	adceq	r0, ip, r1, lsl #2
    1064:	00020000 	andeq	r0, r2, r0
    1068:	0000007f 	andeq	r0, r0, pc, ror r0
    106c:	0efb0102 	cdpeq	1, 15, cr0, cr11, cr2, {0}
    1070:	0101000d 	tsteq	r1, sp
    1074:	00000101 	andeq	r0, r0, r1, lsl #2
    1078:	00000100 	andeq	r0, r0, r0, lsl #2
    107c:	61747301 	cmnvs	r4, r1, lsl #6
    1080:	732d6666 	teqvc	sp, #106954752	; 0x6600000
    1084:	2f006372 	svccs	0x00006372
    1088:	72657355 	rsbvc	r7, r5, #1409286145	; 0x54000001
    108c:	72622f73 	rsbvc	r2, r2, #460	; 0x1cc
    1090:	6a6e6169 	bvs	1b9963c <__bss_end__+0x1b8f08c>
    1094:	442f6e75 	strtmi	r6, [pc], #-3701	; 109c <_start-0x6f64>
    1098:	746b7365 	strbtvc	r7, [fp], #-869	; 0x365
    109c:	732f706f 	teqvc	pc, #111	; 0x6f
    10a0:	6f6f6863 	svcvs	0x006f6863
    10a4:	70532f6c 	subsvc	r2, r3, ip, ror #30
    10a8:	676e6972 			; <UNDEFINED> instruction: 0x676e6972
    10ac:	30323931 	eorscc	r3, r2, r1, lsr r9
    10b0:	3253432f 	subscc	r4, r3, #-1140850688	; 0xbc000000
    10b4:	584c3034 	stmdapl	ip, {r2, r4, r5, ip, sp}^
    10b8:	3273632f 	rsbscc	r6, r3, #-1140850688	; 0xbc000000
    10bc:	786c3034 	stmdavc	ip!, {r2, r4, r5, ip, sp}^
    10c0:	7330322d 	teqvc	r0, #-805306366	; 0xd0000002
    10c4:	6c2f7270 	sfmvs	f7, 4, [pc], #-448	; f0c <_start-0x70f4>
    10c8:	69706269 	ldmdbvs	r0!, {r0, r3, r5, r6, r9, sp, lr}^
    10cc:	636e692f 	cmnvs	lr, #770048	; 0xbc000
    10d0:	6564756c 	strbvs	r7, [r4, #-1388]!	; 0x56c
    10d4:	69740000 	ldmdbvs	r4!, {}^	; <UNPREDICTABLE>
    10d8:	2e72656d 	cdpcs	5, 7, cr6, cr2, cr13, {3}
    10dc:	00010063 	andeq	r0, r1, r3, rrx
    10e0:	69707200 	ldmdbvs	r0!, {r9, ip, sp, lr}^
    10e4:	0200682e 	andeq	r6, r0, #3014656	; 0x2e0000
    10e8:	00000000 	andeq	r0, r0, r0
    10ec:	9a500205 	bls	1401908 <__bss_end__+0x13f7358>
    10f0:	14160000 	ldrne	r0, [r6], #-0
    10f4:	02002d2f 	andeq	r2, r0, #3008	; 0xbc0
    10f8:	2e060104 	adfcss	f0, f6, f4
    10fc:	2f316d06 	svccs	0x00316d06
    1100:	31324d4b 	teqcc	r2, fp, asr #26
    1104:	2f4c4b30 	svccs	0x004c4b30
    1108:	842f2f6a 	strthi	r2, [pc], #-3946	; 1110 <_start-0x6ef0>
    110c:	0008022f 	andeq	r0, r8, pc, lsr #4
    1110:	00940101 	addseq	r0, r4, r1, lsl #2
    1114:	00020000 	andeq	r0, r2, r0
    1118:	0000007c 	andeq	r0, r0, ip, ror r0
    111c:	0efb0102 	cdpeq	1, 15, cr0, cr11, cr2, {0}
    1120:	0101000d 	tsteq	r1, sp
    1124:	00000101 	andeq	r0, r0, r1, lsl #2
    1128:	00000100 	andeq	r0, r0, r0, lsl #2
    112c:	62696c01 	rsbvs	r6, r9, #256	; 0x100
    1130:	552f0063 	strpl	r0, [pc, #-99]!	; 10d5 <_start-0x6f2b>
    1134:	73726573 	cmnvc	r2, #482344960	; 0x1cc00000
    1138:	6972622f 	ldmdbvs	r2!, {r0, r1, r2, r3, r5, r9, sp, lr}^
    113c:	756a6e61 	strbvc	r6, [sl, #-3681]!	; 0xe61
    1140:	65442f6e 	strbvs	r2, [r4, #-3950]	; 0xf6e
    1144:	6f746b73 	svcvs	0x00746b73
    1148:	63732f70 	cmnvs	r3, #112, 30	; 0x1c0
    114c:	6c6f6f68 	stclvs	15, cr6, [pc], #-416	; fb4 <_start-0x704c>
    1150:	7270532f 	rsbsvc	r5, r0, #-1140850688	; 0xbc000000
    1154:	31676e69 	cmncc	r7, r9, ror #28
    1158:	2f303239 	svccs	0x00303239
    115c:	34325343 	ldrtcc	r5, [r2], #-835	; 0x343
    1160:	2f584c30 	svccs	0x00584c30
    1164:	34327363 	ldrtcc	r7, [r2], #-867	; 0x363
    1168:	2d786c30 	ldclcs	12, cr6, [r8, #-192]!	; 0xffffff40
    116c:	70733032 	rsbsvc	r3, r3, r2, lsr r0
    1170:	696c2f72 	stmdbvs	ip!, {r1, r4, r5, r6, r8, r9, sl, fp, sp}^
    1174:	2f697062 	svccs	0x00697062
    1178:	6c636e69 	stclvs	14, cr6, [r3], #-420	; 0xfffffe5c
    117c:	00656475 	rsbeq	r6, r5, r5, ror r4
    1180:	74757000 	ldrbtvc	r7, [r5], #-0
    1184:	72616863 	rsbvc	r6, r1, #6488064	; 0x630000
    1188:	0100632e 	tsteq	r0, lr, lsr #6
    118c:	70720000 	rsbsvc	r0, r2, r0
    1190:	00682e69 	rsbeq	r2, r8, r9, ror #28
    1194:	00000002 	andeq	r0, r0, r2
    1198:	a4020500 	strge	r0, [r2], #-1280	; 0x500
    119c:	1400009b 	strne	r0, [r0], #-155	; 0x9b
    11a0:	bc136b4a 	ldclt	11, cr6, [r3], {74}	; 0x4a
    11a4:	00080213 	andeq	r0, r8, r3, lsl r2
    11a8:	00aa0101 	adceq	r0, sl, r1, lsl #2
    11ac:	00020000 	andeq	r0, r2, r0
    11b0:	00000073 	andeq	r0, r0, r3, ror r0
    11b4:	0efb0102 	cdpeq	1, 15, cr0, cr11, cr2, {0}
    11b8:	0101000d 	tsteq	r1, sp
    11bc:	00000101 	andeq	r0, r0, r1, lsl #2
    11c0:	00000100 	andeq	r0, r0, r0, lsl #2
    11c4:	62696c01 	rsbvs	r6, r9, #256	; 0x100
    11c8:	752f0063 	strvc	r0, [pc, #-99]!	; 116d <_start-0x6e93>
    11cc:	6c2f7273 	sfmvs	f7, 4, [pc], #-460	; 1008 <_start-0x6ff8>
    11d0:	6c61636f 	stclvs	3, cr6, [r1], #-444	; 0xfffffe44
    11d4:	6c65432f 	stclvs	3, cr4, [r5], #-188	; 0xffffff44
    11d8:	2f72616c 	svccs	0x0072616c
    11dc:	2d6d7261 	sfmcs	f7, 2, [sp, #-388]!	; 0xfffffe7c
    11e0:	656e6f6e 	strbvs	r6, [lr, #-3950]!	; 0xf6e
    11e4:	6261652d 	rsbvs	r6, r1, #188743680	; 0xb400000
    11e8:	2e342f69 	cdpcs	15, 3, cr2, cr4, cr9, {3}
    11ec:	2d332e38 	ldccs	14, cr2, [r3, #-224]!	; 0xffffff20
    11f0:	37317363 	ldrcc	r7, [r1, -r3, ror #6]!
    11f4:	612f6530 	teqvs	pc, r0, lsr r5	; <UNPREDICTABLE>
    11f8:	6e2d6d72 	mcrvs	13, 1, r6, cr13, cr2, {3}
    11fc:	2d656e6f 	stclcs	14, cr6, [r5, #-444]!	; 0xfffffe44
    1200:	69626165 	stmdbvs	r2!, {r0, r2, r5, r6, r8, sp, lr}^
    1204:	636e692f 	cmnvs	lr, #770048	; 0xbc000
    1208:	6564756c 	strbvs	r7, [r4, #-1388]!	; 0x56c
    120c:	74730000 	ldrbtvc	r0, [r3], #-0
    1210:	74616372 	strbtvc	r6, [r1], #-882	; 0x372
    1214:	0100632e 	tsteq	r0, lr, lsr #6
    1218:	74730000 	ldrbtvc	r0, [r3], #-0
    121c:	676e6972 			; <UNDEFINED> instruction: 0x676e6972
    1220:	0200682e 	andeq	r6, r0, #3014656	; 0x2e0000
    1224:	00000000 	andeq	r0, r0, r0
    1228:	9be00205 	blls	ff801a44 <__bss_end__+0xff7f7494>
    122c:	13150000 	tstne	r5, #0
    1230:	04020050 	streq	r0, [r2], #-80	; 0x50
    1234:	002e0601 	eoreq	r0, lr, r1, lsl #12
    1238:	06010402 	streq	r0, [r1], -r2, lsl #8
    123c:	02004e4b 	andeq	r4, r0, #1200	; 0x4b0
    1240:	00300104 	eorseq	r0, r0, r4, lsl #2
    1244:	2f010402 	svccs	0x00010402
    1248:	01040200 	mrseq	r0, R12_usr
    124c:	0402002d 	streq	r0, [r2], #-45	; 0x2d
    1250:	024c3001 	subeq	r3, ip, #1
    1254:	01010002 	tsteq	r1, r2
    1258:	00000148 	andeq	r0, r0, r8, asr #2
    125c:	01020002 	tsteq	r2, r2
    1260:	01020000 	mrseq	r0, (UNDEF: 2)
    1264:	000d0efb 	strdeq	r0, [sp], -fp
    1268:	01010101 	tsteq	r1, r1, lsl #2
    126c:	01000000 	mrseq	r0, (UNDEF: 0)
    1270:	2f010000 	svccs	0x00010000
    1274:	2f727375 	svccs	0x00727375
    1278:	6c636e69 	stclvs	14, cr6, [r3], #-420	; 0xfffffe5c
    127c:	2f656475 	svccs	0x00656475
    1280:	6c77656e 	cfldr64vs	mvdx6, [r7], #-440	; 0xfffffe48
    1284:	732f6269 	teqvc	pc, #-1879048186	; 0x90000006
    1288:	2f007379 	svccs	0x00007379
    128c:	2f727375 	svccs	0x00727375
    1290:	2f62696c 	svccs	0x0062696c
    1294:	2f636367 	svccs	0x00636367
    1298:	2d6d7261 	sfmcs	f7, 2, [sp, #-388]!	; 0xfffffe7c
    129c:	656e6f6e 	strbvs	r6, [lr, #-3950]!	; 0xf6e
    12a0:	6261652d 	rsbvs	r6, r1, #188743680	; 0xb400000
    12a4:	2e362f69 	cdpcs	15, 3, cr2, cr6, cr9, {3}
    12a8:	2f312e33 	svccs	0x00312e33
    12ac:	6c636e69 	stclvs	14, cr6, [r3], #-420	; 0xfffffe5c
    12b0:	00656475 	rsbeq	r6, r5, r5, ror r4
    12b4:	6d6f682f 	stclvs	8, cr6, [pc, #-188]!	; 1200 <_start-0x6e00>
    12b8:	6e652f65 	cdpvs	15, 6, cr2, cr5, cr5, {3}
    12bc:	72656c67 	rsbvc	r6, r5, #26368	; 0x6700
    12c0:	616c632f 	cmnvs	ip, pc, lsr #6
    12c4:	632f7373 	teqvs	pc, #-872415231	; 0xcc000001
    12c8:	30343273 	eorscc	r3, r4, r3, ror r2
    12cc:	322d786c 	eorcc	r7, sp, #108, 16	; 0x6c0000
    12d0:	72707330 	rsbsvc	r7, r0, #48, 6	; 0xc0000000
    12d4:	696c2f2f 	stmdbvs	ip!, {r0, r1, r2, r3, r5, r8, r9, sl, fp, sp}^
    12d8:	00697062 	rsbeq	r7, r9, r2, rrx
    12dc:	6d6f682f 	stclvs	8, cr6, [pc, #-188]!	; 1228 <_start-0x6dd8>
    12e0:	6e652f65 	cdpvs	15, 6, cr2, cr5, cr5, {3}
    12e4:	72656c67 	rsbvc	r6, r5, #26368	; 0x6700
    12e8:	616c632f 	cmnvs	ip, pc, lsr #6
    12ec:	632f7373 	teqvs	pc, #-872415231	; 0xcc000001
    12f0:	30343273 	eorscc	r3, r4, r3, ror r2
    12f4:	322d786c 	eorcc	r7, sp, #108, 16	; 0x6c0000
    12f8:	72707330 	rsbsvc	r7, r0, #48, 6	; 0xc0000000
    12fc:	696c2f2f 	stmdbvs	ip!, {r0, r1, r2, r3, r5, r8, r9, sl, fp, sp}^
    1300:	2f697062 	svccs	0x00697062
    1304:	66617473 			; <UNDEFINED> instruction: 0x66617473
    1308:	72732d66 	rsbsvc	r2, r3, #6528	; 0x1980
    130c:	75000063 	strvc	r0, [r0, #-99]	; 0x63
    1310:	2e747261 	cdpcs	2, 7, cr7, cr4, cr1, {3}
    1314:	00000063 	andeq	r0, r0, r3, rrx
    1318:	636f6c00 	cmnvs	pc, #0, 24
    131c:	00682e6b 	rsbeq	r2, r8, fp, ror #28
    1320:	5f000001 	svcpl	0x00000001
    1324:	65707974 	ldrbvs	r7, [r0, #-2420]!	; 0x974
    1328:	00682e73 	rsbeq	r2, r8, r3, ror lr
    132c:	73000001 	movwvc	r0, #1
    1330:	65646474 	strbvs	r6, [r4, #-1140]!	; 0x474
    1334:	00682e66 	rsbeq	r2, r8, r6, ror #28
    1338:	72000002 	andvc	r0, r0, #2
    133c:	746e6565 	strbtvc	r6, [lr], #-1381	; 0x565
    1340:	0100682e 	tsteq	r0, lr, lsr #16
    1344:	70720000 	rsbsvc	r0, r2, r0
    1348:	00682e69 	rsbeq	r2, r8, r9, ror #28
    134c:	75000003 	strvc	r0, [r0, #-3]
    1350:	2e747261 	cdpcs	2, 7, cr7, cr4, cr1, {3}
    1354:	00040068 	andeq	r0, r4, r8, rrx
    1358:	69706700 	ldmdbvs	r0!, {r8, r9, sl, sp, lr}^
    135c:	00682e6f 	rsbeq	r2, r8, pc, ror #28
    1360:	00000004 	andeq	r0, r0, r4
    1364:	18020500 	stmdane	r2, {r8, sl}
    1368:	0300009c 	movweq	r0, #156	; 0x9c
    136c:	0367012c 	cmneq	r7, #44, 2
    1370:	67359e0c 	ldrvs	r9, [r5, -ip, lsl #28]!
    1374:	03683568 	cmneq	r8, #104, 10	; 0x1a000000
    1378:	6b852e0c 	blvs	fe14cbb0 <__bss_end__+0xfe142600>
    137c:	0c036969 	stceq	9, cr6, [r3], {105}	; 0x69
    1380:	08676b66 	stmdaeq	r7!, {r1, r2, r5, r6, r8, r9, fp, sp, lr}^
    1384:	4b683442 	blmi	1a0e494 <__bss_end__+0x1a03ee4>
    1388:	2f876836 	svccs	0x00876836
    138c:	01040200 	mrseq	r0, R12_usr
    1390:	3067682f 	rsbcc	r6, r7, pc, lsr #16
    1394:	02004b67 	andeq	r4, r0, #105472	; 0x19c00
    1398:	682f0104 	stmdavs	pc!, {r2, r8}	; <UNPREDICTABLE>
    139c:	022e6967 	eoreq	r6, lr, #1687552	; 0x19c000
    13a0:	01010006 	tsteq	r1, r6
    13a4:	0000012b 	andeq	r0, r0, fp, lsr #2
    13a8:	00f80002 	rscseq	r0, r8, r2
    13ac:	01020000 	mrseq	r0, (UNDEF: 2)
    13b0:	000d0efb 	strdeq	r0, [sp], -fp
    13b4:	01010101 	tsteq	r1, r1, lsl #2
    13b8:	01000000 	mrseq	r0, (UNDEF: 0)
    13bc:	2f010000 	svccs	0x00010000
    13c0:	2f727375 	svccs	0x00727375
    13c4:	6c636e69 	stclvs	14, cr6, [r3], #-420	; 0xfffffe5c
    13c8:	2f656475 	svccs	0x00656475
    13cc:	6c77656e 	cfldr64vs	mvdx6, [r7], #-440	; 0xfffffe48
    13d0:	732f6269 	teqvc	pc, #-1879048186	; 0x90000006
    13d4:	2f007379 	svccs	0x00007379
    13d8:	2f727375 	svccs	0x00727375
    13dc:	2f62696c 	svccs	0x0062696c
    13e0:	2f636367 	svccs	0x00636367
    13e4:	2d6d7261 	sfmcs	f7, 2, [sp, #-388]!	; 0xfffffe7c
    13e8:	656e6f6e 	strbvs	r6, [lr, #-3950]!	; 0xf6e
    13ec:	6261652d 	rsbvs	r6, r1, #188743680	; 0xb400000
    13f0:	2e362f69 	cdpcs	15, 3, cr2, cr6, cr9, {3}
    13f4:	2f312e33 	svccs	0x00312e33
    13f8:	6c636e69 	stclvs	14, cr6, [r3], #-420	; 0xfffffe5c
    13fc:	00656475 	rsbeq	r6, r5, r5, ror r4
    1400:	6d6f682f 	stclvs	8, cr6, [pc, #-188]!	; 134c <_start-0x6cb4>
    1404:	6e652f65 	cdpvs	15, 6, cr2, cr5, cr5, {3}
    1408:	72656c67 	rsbvc	r6, r5, #26368	; 0x6700
    140c:	616c632f 	cmnvs	ip, pc, lsr #6
    1410:	632f7373 	teqvs	pc, #-872415231	; 0xcc000001
    1414:	30343273 	eorscc	r3, r4, r3, ror r2
    1418:	322d786c 	eorcc	r7, sp, #108, 16	; 0x6c0000
    141c:	72707330 	rsbsvc	r7, r0, #48, 6	; 0xc0000000
    1420:	696c2f2f 	stmdbvs	ip!, {r0, r1, r2, r3, r5, r8, r9, sl, fp, sp}^
    1424:	00697062 	rsbeq	r7, r9, r2, rrx
    1428:	6d6f682f 	stclvs	8, cr6, [pc, #-188]!	; 1374 <_start-0x6c8c>
    142c:	6e652f65 	cdpvs	15, 6, cr2, cr5, cr5, {3}
    1430:	72656c67 	rsbvc	r6, r5, #26368	; 0x6700
    1434:	616c632f 	cmnvs	ip, pc, lsr #6
    1438:	632f7373 	teqvs	pc, #-872415231	; 0xcc000001
    143c:	30343273 	eorscc	r3, r4, r3, ror r2
    1440:	322d786c 	eorcc	r7, sp, #108, 16	; 0x6c0000
    1444:	72707330 	rsbsvc	r7, r0, #48, 6	; 0xc0000000
    1448:	696c2f2f 	stmdbvs	ip!, {r0, r1, r2, r3, r5, r8, r9, sl, fp, sp}^
    144c:	2f697062 	svccs	0x00697062
    1450:	66617473 			; <UNDEFINED> instruction: 0x66617473
    1454:	72732d66 	rsbsvc	r2, r3, #6528	; 0x1980
    1458:	67000063 	strvs	r0, [r0, -r3, rrx]
    145c:	2e6f6970 	mcrcs	9, 3, r6, cr15, cr0, {3}
    1460:	00000063 	andeq	r0, r0, r3, rrx
    1464:	636f6c00 	cmnvs	pc, #0, 24
    1468:	00682e6b 	rsbeq	r2, r8, fp, ror #28
    146c:	5f000001 	svcpl	0x00000001
    1470:	65707974 	ldrbvs	r7, [r0, #-2420]!	; 0x974
    1474:	00682e73 	rsbeq	r2, r8, r3, ror lr
    1478:	73000001 	movwvc	r0, #1
    147c:	65646474 	strbvs	r6, [r4, #-1140]!	; 0x474
    1480:	00682e66 	rsbeq	r2, r8, r6, ror #28
    1484:	72000002 	andvc	r0, r0, #2
    1488:	746e6565 	strbtvc	r6, [lr], #-1381	; 0x565
    148c:	0100682e 	tsteq	r0, lr, lsr #16
    1490:	70720000 	rsbsvc	r0, r2, r0
    1494:	00682e69 	rsbeq	r2, r8, r9, ror #28
    1498:	67000003 	strvs	r0, [r0, -r3]
    149c:	2e6f6970 	mcrcs	9, 3, r6, cr15, cr0, {3}
    14a0:	00040068 	andeq	r0, r4, r8, rrx
    14a4:	05000000 	streq	r0, [r0, #-0]
    14a8:	009d9002 	addseq	r9, sp, r2
    14ac:	01270300 	teqeq	r7, r0, lsl #6
    14b0:	4f474c13 	svcmi	0x00474c13
    14b4:	4c4b68f4 	mcrrmi	8, 15, r6, fp, cr4
    14b8:	136a2fa1 	cmnne	sl, #644	; 0x284
    14bc:	13be3149 			; <UNDEFINED> instruction: 0x13be3149
    14c0:	2fbe3149 	svccs	0x00be3149
    14c4:	484d2f6a 	stmdami	sp, {r1, r3, r5, r6, r8, r9, sl, fp, sp}^
    14c8:	3249134f 	subcc	r1, r9, #1006632961	; 0x3c000001
    14cc:	0602b72f 	streq	fp, [r2], -pc, lsr #14
    14d0:	Address 0x00000000000014d0 is out of bounds.


Disassembly of section .debug_str:

00000000 <.debug_str>:
   0:	676e6f6c 	strbvs	r6, [lr, -ip, ror #30]!
   4:	6e6f6c20 	cdpvs	12, 6, cr6, cr15, cr0, {1}
   8:	6e692067 	cdpvs	0, 6, cr2, cr9, cr7, {3}
   c:	70660074 	rsbvc	r0, r6, r4, ror r0
  10:	6178652d 	cmnvs	r8, sp, lsr #10
  14:	656c706d 	strbvs	r7, [ip, #-109]!	; 0x6d
  18:	6c00632e 	stcvs	3, cr6, [r0], {46}	; 0x2e
  1c:	20676e6f 	rsbcs	r6, r7, pc, ror #28
  20:	676e6f6c 	strbvs	r6, [lr, -ip, ror #30]!
  24:	736e7520 	cmnvc	lr, #32, 10	; 0x8000000
  28:	656e6769 	strbvs	r6, [lr, #-1897]!	; 0x769
  2c:	6e692064 	cdpvs	0, 6, cr2, cr9, cr4, {3}
  30:	6e750074 	mrcvs	0, 3, r0, cr5, cr4, {3}
  34:	6e676973 	mcrvs	9, 3, r6, cr7, cr3, {3}
  38:	63206465 	teqvs	r0, #1694498816	; 0x65000000
  3c:	00726168 	rsbseq	r6, r2, r8, ror #2
  40:	20554e47 	subscs	r4, r5, r7, asr #28
  44:	2e342043 	cdpcs	0, 3, cr2, cr4, cr3, {2}
  48:	20332e38 	eorscs	r2, r3, r8, lsr lr
  4c:	70636d2d 	rsbvc	r6, r3, sp, lsr #26
  50:	72613d75 	rsbvc	r3, r1, #7488	; 0x1d40
  54:	3731316d 	ldrcc	r3, [r1, -sp, ror #2]!
  58:	667a6a36 			; <UNDEFINED> instruction: 0x667a6a36
  5c:	2d20732d 	stccs	3, cr7, [r0, #-180]!	; 0xffffff4c
  60:	6e75746d 	cdpvs	4, 7, cr7, cr5, cr13, {3}
  64:	72613d65 	rsbvc	r3, r1, #6464	; 0x1940
  68:	3731316d 	ldrcc	r3, [r1, -sp, ror #2]!
  6c:	667a6a36 			; <UNDEFINED> instruction: 0x667a6a36
  70:	2d20732d 	stccs	3, cr7, [r0, #-180]!	; 0xffffff4c
  74:	6f6c666d 	svcvs	0x006c666d
  78:	612d7461 	teqvs	sp, r1, ror #8
  7c:	683d6962 	ldmdavs	sp!, {r1, r5, r6, r8, fp, sp, lr}
  80:	20647261 	rsbcs	r7, r4, r1, ror #4
  84:	70666d2d 	rsbvc	r6, r6, sp, lsr #26
  88:	66763d75 			; <UNDEFINED> instruction: 0x66763d75
  8c:	672d2070 			; <UNDEFINED> instruction: 0x672d2070
  90:	20626467 	rsbcs	r6, r2, r7, ror #8
  94:	20674f2d 	rsbcs	r4, r7, sp, lsr #30
  98:	6474732d 	ldrbtvs	r7, [r4], #-813	; 0x32d
  9c:	756e673d 	strbvc	r6, [lr, #-1853]!	; 0x73d
  a0:	2d203939 	stccs	9, cr3, [r0, #-228]!	; 0xffffff1c
  a4:	65726666 	ldrbvs	r6, [r2, #-1638]!	; 0x666
  a8:	61747365 	cmnvs	r4, r5, ror #6
  ac:	6e69646e 	cdpvs	4, 6, cr6, cr9, cr14, {3}
  b0:	68730067 	ldmdavs	r3!, {r0, r1, r2, r5, r6}^
  b4:	2074726f 	rsbscs	r7, r4, pc, ror #4
  b8:	00746e69 	rsbseq	r6, r4, r9, ror #28
  bc:	6d746f6e 	ldclvs	15, cr6, [r4, #-440]!	; 0xfffffe48
  c0:	006e6961 	rsbeq	r6, lr, r1, ror #18
  c4:	726f6873 	rsbvc	r6, pc, #7536640	; 0x730000
  c8:	6e752074 	mrcvs	0, 3, r2, cr5, cr4, {3}
  cc:	6e676973 	mcrvs	9, 3, r6, cr7, cr3, {3}
  d0:	69206465 	stmdbvs	r0!, {r0, r2, r5, r6, sl, sp, lr}
  d4:	6c00746e 	cfstrsvs	mvf7, [r0], {110}	; 0x6e
  d8:	20676e6f 	rsbcs	r6, r7, pc, ror #28
  dc:	62756f64 	rsbsvs	r6, r5, #100, 30	; 0x190
  e0:	2f00656c 	svccs	0x0000656c
  e4:	72657355 	rsbvc	r7, r5, #1409286145	; 0x54000001
  e8:	72622f73 	rsbvc	r2, r2, #460	; 0x1cc
  ec:	6a6e6169 	bvs	1b98698 <__bss_end__+0x1b8e0e8>
  f0:	442f6e75 	strtmi	r6, [pc], #-3701	; f8 <_start-0x7f08>
  f4:	746b7365 	strbtvc	r7, [fp], #-869	; 0x365
  f8:	732f706f 	teqvc	pc, #111	; 0x6f
  fc:	6f6f6863 	svcvs	0x006f6863
 100:	70532f6c 	subsvc	r2, r3, ip, ror #30
 104:	676e6972 			; <UNDEFINED> instruction: 0x676e6972
 108:	30323931 	eorscc	r3, r2, r1, lsr r9
 10c:	3253432f 	subscc	r4, r3, #-1140850688	; 0xbc000000
 110:	584c3034 	stmdapl	ip, {r2, r4, r5, ip, sp}^
 114:	3273632f 	rsbscc	r6, r3, #-1140850688	; 0xbc000000
 118:	786c3034 	stmdavc	ip!, {r2, r4, r5, ip, sp}^
 11c:	7330322d 	teqvc	r0, #-805306366	; 0xd0000002
 120:	6c2f7270 	sfmvs	f7, 4, [pc], #-448	; ffffff68 <__bss_end__+0xffff59b8>
 124:	2f736261 	svccs	0x00736261
 128:	6d2d3031 	stcvs	0, cr3, [sp, #-196]!	; 0xffffff3c
 12c:	68636d65 	stmdavs	r3!, {r0, r2, r5, r6, r8, sl, fp, sp, lr}^
 130:	2d6b6365 	stclcs	3, cr6, [fp, #-404]!	; 0xfffffe6c
 134:	74617473 	strbtvc	r7, [r1], #-1139	; 0x473
 138:	6178652f 	cmnvs	r8, pc, lsr #10
 13c:	656c706d 	strbvs	r7, [ip, #-109]!	; 0x6d
 140:	6c662f73 	stclvs	15, cr2, [r6], #-460	; 0xfffffe34
 144:	0074616f 	rsbseq	r6, r4, pc, ror #2
 148:	657a6973 	ldrbvs	r6, [sl, #-2419]!	; 0x973
 14c:	65707974 	ldrbvs	r7, [r0, #-2420]!	; 0x974
 150:	6b5f5f00 	blvs	17d7d58 <__bss_end__+0x17cd7a8>
 154:	656e7265 	strbvs	r7, [lr, #-613]!	; 0x265
 158:	69735f6c 	ldmdbvs	r3!, {r2, r3, r5, r6, r8, r9, sl, fp, ip, lr}^
 15c:	552f006e 	strpl	r0, [pc, #-110]!	; f6 <_start-0x7f0a>
 160:	73726573 	cmnvc	r2, #482344960	; 0x1cc00000
 164:	6972622f 	ldmdbvs	r2!, {r0, r1, r2, r3, r5, r9, sp, lr}^
 168:	756a6e61 	strbvc	r6, [sl, #-3681]!	; 0xe61
 16c:	65442f6e 	strbvs	r2, [r4, #-3950]	; 0xf6e
 170:	6f746b73 	svcvs	0x00746b73
 174:	63732f70 	cmnvs	r3, #112, 30	; 0x1c0
 178:	6c6f6f68 	stclvs	15, cr6, [pc], #-416	; ffffffe0 <__bss_end__+0xffff5a30>
 17c:	7270532f 	rsbsvc	r5, r0, #-1140850688	; 0xbc000000
 180:	31676e69 	cmncc	r7, r9, ror #28
 184:	2f303239 	svccs	0x00303239
 188:	34325343 	ldrtcc	r5, [r2], #-835	; 0x343
 18c:	2f584c30 	svccs	0x00584c30
 190:	34327363 	ldrtcc	r7, [r2], #-867	; 0x363
 194:	2d786c30 	ldclcs	12, cr6, [r8, #-192]!	; 0xffffff40
 198:	70733032 	rsbsvc	r3, r3, r2, lsr r0
 19c:	696c2f72 	stmdbvs	ip!, {r1, r4, r5, r6, r8, r9, sl, fp, sp}^
 1a0:	2f697062 	svccs	0x00697062
 1a4:	6d62696c 	stclvs	9, cr6, [r2, #-432]!	; 0xfffffe50
 1a8:	65656900 	strbvs	r6, [r5, #-2304]!	; 0x900
 1ac:	6f645f65 	svcvs	0x00645f65
 1b0:	656c6275 	strbvs	r6, [ip, #-629]!	; 0x275
 1b4:	6168735f 	cmnvs	r8, pc, asr r3
 1b8:	745f6570 	ldrbvc	r6, [pc], #-1392	; 1c0 <_start-0x7e40>
 1bc:	00657079 	rsbeq	r7, r5, r9, ror r0
 1c0:	746e6975 	strbtvc	r6, [lr], #-2421	; 0x975
 1c4:	745f3436 	ldrbvc	r3, [pc], #-1078	; 1cc <_start-0x7e34>
 1c8:	6b5f5f00 	blvs	17d7dd0 <__bss_end__+0x17cd820>
 1cc:	656e7265 	strbvs	r7, [lr, #-613]!	; 0x265
 1d0:	6f635f6c 	svcvs	0x00635f6c
 1d4:	68670073 	stmdavs	r7!, {r0, r1, r4, r5, r6}^
 1d8:	7800755f 	stmdavc	r0, {r0, r1, r2, r3, r4, r6, r8, sl, ip, sp, lr}
 1dc:	74726170 	ldrbtvc	r6, [r2], #-368	; 0x170
 1e0:	5f750073 	svcpl	0x00750073
 1e4:	33746e69 	cmncc	r4, #1680	; 0x690
 1e8:	00745f32 	rsbseq	r5, r4, r2, lsr pc
 1ec:	746e6975 	strbtvc	r6, [lr], #-2421	; 0x975
 1f0:	745f3233 	ldrbvc	r3, [pc], #-563	; 1f8 <_start-0x7e08>
 1f4:	695f7500 	ldmdbvs	pc, {r8, sl, ip, sp, lr}^	; <UNPREDICTABLE>
 1f8:	3436746e 	ldrtcc	r7, [r6], #-1134	; 0x46e
 1fc:	7300745f 	movwvc	r7, #1119	; 0x45f
 200:	736f635f 	cmnvc	pc, #2080374785	; 0x7c000001
 204:	5f00632e 	svcpl	0x0000632e
 208:	6565695f 	strbvs	r6, [r5, #-2399]!	; 0x95f
 20c:	34353765 	ldrtcc	r3, [r5], #-1893	; 0x765
 210:	6d65725f 	sfmvs	f7, 2, [r5, #-380]!	; 0xfffffe84
 214:	6f69705f 	svcvs	0x0069705f
 218:	5f6b0032 	svcpl	0x006b0032
 21c:	2e736f63 	cdpcs	15, 7, cr6, cr3, cr3, {3}
 220:	5f6b0063 	svcpl	0x006b0063
 224:	2e6e6973 	mcrcs	9, 3, r6, cr14, cr3, {3}
 228:	61680063 	cmnvs	r8, r3, rrx
 22c:	7000666c 	andvc	r6, r0, ip, ror #12
 230:	5f326f69 	svcpl	0x00326f69
 234:	70007431 	andvc	r7, r0, r1, lsr r4
 238:	5f326f69 	svcpl	0x00326f69
 23c:	68007432 	stmdavs	r0, {r1, r4, r5, sl, ip, sp, lr}
 240:	00686769 	rsbeq	r6, r8, r9, ror #14
 244:	6964656d 	stmdbvs	r4!, {r0, r2, r3, r5, r6, r8, sl, sp, lr}^
 248:	5f006d75 	svcpl	0x00006d75
 24c:	72656b5f 	rsbvc	r6, r5, #97280	; 0x17c00
 250:	5f6c656e 	svcpl	0x006c656e
 254:	5f6d6572 	svcpl	0x006d6572
 258:	326f6970 	rsbcc	r6, pc, #112, 18	; 0x1c0000
 25c:	6f697000 	svcvs	0x00697000
 260:	74335f32 	ldrtvc	r5, [r3], #-3890	; 0xf32
 264:	725f6500 	subsvc	r6, pc, #0, 10
 268:	705f6d65 	subsvc	r6, pc, r5, ror #26
 26c:	2e326f69 	cdpcs	15, 3, cr6, cr2, cr9, {3}
 270:	77740063 	ldrbvc	r0, [r4, -r3, rrx]!
 274:	0034326f 	eorseq	r3, r4, pc, ror #4
 278:	70766e69 	rsbsvc	r6, r6, r9, ror #28
 27c:	00326f69 	eorseq	r6, r2, r9, ror #30
 280:	326f6970 	rsbcc	r6, pc, #112, 18	; 0x1c0000
 284:	7000315f 	andvc	r3, r0, pc, asr r1
 288:	5f326f69 	svcpl	0x00326f69
 28c:	69700032 	ldmdbvs	r0!, {r1, r4, r5}^
 290:	335f326f 	cmpcc	pc, #-268435450	; 0xf0000006
 294:	5f776900 	svcpl	0x00776900
 298:	657a0075 	ldrbvs	r0, [sl, #-117]!	; 0x75
 29c:	66006f72 			; <UNDEFINED> instruction: 0x66006f72
 2a0:	726f6f6c 	rsbvc	r6, pc, #108, 30	; 0x1b0
 2a4:	63657200 	cmnvs	r5, #0, 4
 2a8:	75706d6f 	ldrbvc	r6, [r0, #-3439]!	; 0xd6f
 2ac:	69006574 	stmdbvs	r0, {r2, r4, r5, r6, r8, sl, sp, lr}
 2b0:	5f74696e 	svcpl	0x0074696e
 2b4:	74006b6a 	strvc	r6, [r0], #-2922	; 0xb6a
 2b8:	326e6f77 	rsbcc	r6, lr, #476	; 0x1dc
 2bc:	5f6b0034 	svcpl	0x006b0034
 2c0:	5f6d6572 	svcpl	0x006d6572
 2c4:	326f6970 	rsbcc	r6, pc, #112, 18	; 0x1c0000
 2c8:	7300632e 	movwvc	r6, #814	; 0x32e
 2cc:	626c6163 	rsbvs	r6, ip, #-1073741800	; 0xc0000018
 2d0:	7069006e 	rsbvc	r0, r9, lr, rrx
 2d4:	00326f69 	eorseq	r6, r2, r9, ror #30
 2d8:	72726163 	rsbsvc	r6, r2, #-1073741800	; 0xc0000018
 2dc:	49500079 	ldmdbmi	r0, {r0, r3, r4, r5, r6}^
 2e0:	7000326f 	andvc	r3, r0, pc, ror #4
 2e4:	00636572 	rsbeq	r6, r3, r2, ror r5
 2e8:	63735f73 	cmnvs	r3, #460	; 0x1cc
 2ec:	6e626c61 	cdpvs	12, 6, cr6, cr2, cr1, {3}
 2f0:	7400632e 	strvc	r6, [r0], #-814	; 0x32e
 2f4:	356d6f77 	strbcc	r6, [sp, #-3959]!	; 0xf77
 2f8:	77740034 			; <UNDEFINED> instruction: 0x77740034
 2fc:	0034356f 	eorseq	r3, r4, pc, ror #10
 300:	79706f63 	ldmdbvc	r0!, {r0, r1, r5, r6, r8, r9, sl, fp, sp, lr}^
 304:	6e676973 	mcrvs	9, 3, r6, cr7, cr3, {3}
 308:	5f687300 	svcpl	0x00687300
 30c:	77650075 			; <UNDEFINED> instruction: 0x77650075
 310:	7400755f 	strvc	r7, [r0], #-1375	; 0x55f
 314:	00796e69 	rsbseq	r6, r9, r9, ror #28
 318:	65677568 	strbvs	r7, [r7, #-1384]!	; 0x568
 31c:	665f7300 	ldrbvs	r7, [pc], -r0, lsl #6
 320:	726f6f6c 	rsbvc	r6, pc, #108, 30	; 0x1b0
 324:	7300632e 	movwvc	r6, #814	; 0x32e
 328:	706f635f 	rsbvc	r6, pc, pc, asr r3	; <UNPREDICTABLE>
 32c:	67697379 			; <UNDEFINED> instruction: 0x67697379
 330:	00632e6e 	rsbeq	r2, r3, lr, ror #28
 334:	69735f73 	ldmdbvs	r3!, {r0, r1, r4, r5, r6, r8, r9, sl, fp, ip, lr}^
 338:	00632e6e 	rsbeq	r2, r3, lr, ror #28
 33c:	6e675f5f 	mcrvs	15, 3, r5, cr7, cr15, {2}
 340:	765f6375 			; <UNDEFINED> instruction: 0x765f6375
 344:	696c5f61 	stmdbvs	ip!, {r0, r5, r6, r8, r9, sl, fp, ip, lr}^
 348:	6c007473 	cfstrsvs	mvf7, [r0], {115}	; 0x73
 34c:	2f636269 	svccs	0x00636269
 350:	6e697270 	mcrvs	2, 3, r7, cr9, cr0, {3}
 354:	632e6b74 	teqvs	lr, #116, 22	; 0x1d000
 358:	5f617600 	svcpl	0x00617600
 35c:	6e697270 	mcrvs	2, 3, r7, cr9, cr0, {3}
 360:	5f006b74 	svcpl	0x00006b74
 364:	5f61765f 	svcpl	0x0061765f
 368:	7473696c 	ldrbtvc	r6, [r3], #-2412	; 0x96c
 36c:	73552f00 	cmpvc	r5, #0, 30
 370:	2f737265 	svccs	0x00737265
 374:	61697262 	cmnvs	r9, r2, ror #4
 378:	6e756a6e 	vsubvs.f32	s13, s10, s29
 37c:	7365442f 	cmnvc	r5, #788529152	; 0x2f000000
 380:	706f746b 	rsbvc	r7, pc, fp, ror #8
 384:	6863732f 	stmdavs	r3!, {r0, r1, r2, r3, r5, r8, r9, ip, sp, lr}^
 388:	2f6c6f6f 	svccs	0x006c6f6f
 38c:	69727053 	ldmdbvs	r2!, {r0, r1, r4, r6, ip, sp, lr}^
 390:	3931676e 	ldmdbcc	r1!, {r1, r2, r3, r5, r6, r8, r9, sl, sp, lr}
 394:	432f3032 	teqmi	pc, #50	; 0x32
 398:	30343253 	eorscc	r3, r4, r3, asr r2
 39c:	632f584c 	teqvs	pc, #76, 16	; 0x4c0000
 3a0:	30343273 	eorscc	r3, r4, r3, ror r2
 3a4:	322d786c 	eorcc	r7, sp, #108, 16	; 0x6c0000
 3a8:	72707330 	rsbsvc	r7, r0, #48, 6	; 0xc0000000
 3ac:	62696c2f 	rsbvs	r6, r9, #12032	; 0x2f00
 3b0:	5f006970 	svcpl	0x00006970
 3b4:	0070615f 	rsbseq	r6, r0, pc, asr r1
 3b8:	6362696c 	cmnvs	r2, #108, 18	; 0x1b0000
 3bc:	7475702f 	ldrbtvc	r7, [r5], #-47	; 0x2f
 3c0:	00632e6b 	rsbeq	r2, r3, fp, ror #28
 3c4:	65746e69 	ldrbvs	r6, [r4, #-3689]!	; 0xe69
 3c8:	6c616e72 	stclvs	14, cr6, [r1], #-456	; 0xfffffe38
 3cc:	7475705f 	ldrbtvc	r7, [r5], #-95	; 0x5f
 3d0:	7072006b 	rsbsvc	r0, r2, fp, rrx
 3d4:	75705f69 	ldrbvc	r5, [r0, #-3945]!	; 0xf69
 3d8:	61686374 	smcvs	34356	; 0x8634
 3dc:	5f5f0072 	svcpl	0x005f0072
 3e0:	74696d65 	strbtvc	r6, [r9], #-3429	; 0xd65
 3e4:	6f6c665f 	svcvs	0x006c665f
 3e8:	66007461 	strvs	r7, [r0], -r1, ror #8
 3ec:	65675f70 	strbvs	r5, [r7, #-3952]!	; 0xf70
 3f0:	6e695f74 	mcrvs	15, 3, r5, cr9, cr4, {3}
 3f4:	72676574 	rsbvc	r6, r7, #116, 10	; 0x1d000000
 3f8:	6e006c61 	cdpvs	12, 0, cr6, cr0, cr1, {3}
 3fc:	705f6765 	subsvc	r6, pc, r5, ror #14
 400:	76657200 	strbtvc	r7, [r5], -r0, lsl #4
 404:	65737265 	ldrbvs	r7, [r3, #-613]!	; 0x265
 408:	72747300 	rsbsvc	r7, r4, #0, 6
 40c:	00746163 	rsbseq	r6, r4, r3, ror #2
 410:	69647369 	stmdbvs	r4!, {r0, r3, r5, r6, r8, r9, ip, sp, lr}^
 414:	00746967 	rsbseq	r6, r4, r7, ror #18
 418:	675f7066 	ldrbvs	r7, [pc, -r6, rrx]
 41c:	665f7465 	ldrbvs	r7, [pc], -r5, ror #8
 420:	00636172 	rsbeq	r6, r3, r2, ror r1
 424:	55465f5f 	strbpl	r5, [r6, #-3935]	; 0xf5f
 428:	4954434e 	ldmdbmi	r4, {r1, r2, r3, r6, r8, r9, lr}^
 42c:	5f5f4e4f 	svcpl	0x005f4e4f
 430:	74757000 	ldrbtvc	r7, [r5], #-0
 434:	70665f73 	rsbvc	r5, r6, r3, ror pc
 438:	67697300 	strbvs	r7, [r9, -r0, lsl #6]!
 43c:	5f64656e 	svcpl	0x0064656e
 440:	696c0070 	stmdbvs	ip!, {r4, r5, r6}^
 444:	762f6362 	strtvc	r6, [pc], -r2, ror #6
 448:	72702d61 	rsbsvc	r2, r0, #6208	; 0x1840
 44c:	6b746e69 	blvs	1d1bdf8 <__bss_end__+0x1d11848>
 450:	7400632e 	strvc	r6, [r0], #-814	; 0x32e
 454:	636e7572 	cmnvs	lr, #478150656	; 0x1c800000
 458:	656c6300 	strbvs	r6, [ip, #-768]!	; 0x300
 45c:	725f6e61 	subsvc	r6, pc, #1552	; 0x610
 460:	6f6f6265 	svcvs	0x006f6265
 464:	70720074 	rsbsvc	r0, r2, r4, ror r0
 468:	65735f69 	ldrbvs	r5, [r3, #-3945]!	; 0xf69
 46c:	756f5f74 	strbvc	r5, [pc, #-3956]!	; fffff500 <__bss_end__+0xffff4f50>
 470:	74757074 	ldrbtvc	r7, [r5], #-116	; 0x74
 474:	64697700 	strbtvs	r7, [r9], #-1792	; 0x700
 478:	66006874 			; <UNDEFINED> instruction: 0x66006874
 47c:	5f636172 	svcpl	0x00636172
 480:	006e656c 	rsbeq	r6, lr, ip, ror #10
 484:	63747570 	cmnvs	r4, #112, 10	; 0x1c000000
 488:	0070665f 	rsbseq	r6, r0, pc, asr r6
 48c:	5f697072 	svcpl	0x00697072
 490:	65736572 	ldrbvs	r6, [r3, #-1394]!	; 0x572
 494:	75705f74 	ldrbvc	r5, [r0, #-3956]!	; 0xf74
 498:	65006374 	strvs	r6, [r0, #-884]	; 0x374
 49c:	0074696d 	rsbseq	r6, r4, sp, ror #18
 4a0:	66617473 			; <UNDEFINED> instruction: 0x66617473
 4a4:	72732d66 	rsbsvc	r2, r3, #6528	; 0x1980
 4a8:	6c632f63 	stclvs	15, cr2, [r3], #-396	; 0xfffffe74
 4ac:	2d6e6165 	stfcse	f6, [lr, #-404]!	; 0xfffffe6c
 4b0:	6f626572 	svcvs	0x00626572
 4b4:	632e746f 	teqvs	lr, #1862270976	; 0x6f000000
 4b8:	69707200 	ldmdbvs	r0!, {r9, ip, sp, lr}^
 4bc:	6265725f 	rsbvs	r7, r5, #-268435451	; 0xf0000005
 4c0:	00746f6f 	rsbseq	r6, r4, pc, ror #30
 4c4:	616c6564 	cmnvs	ip, r4, ror #10
 4c8:	736d5f79 	cmnvc	sp, #484	; 0x1e4
 4cc:	625f5f00 	subsvs	r5, pc, #0, 30
 4d0:	735f7373 	cmpvc	pc, #-872415231	; 0xcc000001
 4d4:	74726174 	ldrbtvc	r6, [r2], #-372	; 0x174
 4d8:	5f005f5f 	svcpl	0x00005f5f
 4dc:	7373625f 	cmnvc	r3, #-268435451	; 0xf0000005
 4e0:	646e655f 	strbtvs	r6, [lr], #-1375	; 0x55f
 4e4:	65005f5f 	strvs	r5, [r0, #-3935]	; 0xf5f
 4e8:	6c62616e 	stfvse	f6, [r2], #-440	; 0xfffffe48
 4ec:	70665f65 	rsbvc	r5, r6, r5, ror #30
 4f0:	70660075 	rsbvc	r0, r6, r5, ror r0
 4f4:	5f73695f 	svcpl	0x0073695f
 4f8:	62616e65 	rsbvs	r6, r1, #1616	; 0x650
 4fc:	0064656c 	rsbeq	r6, r4, ip, ror #10
 500:	5f737362 	svcpl	0x00737362
 504:	00646e65 	rsbeq	r6, r4, r5, ror #28
 508:	7473635f 	ldrbtvc	r6, [r3], #-863	; 0x35f
 50c:	00747261 	rsbseq	r7, r4, r1, ror #4
 510:	66617473 			; <UNDEFINED> instruction: 0x66617473
 514:	72732d66 	rsbsvc	r2, r3, #6528	; 0x1980
 518:	73632f63 	cmnvc	r3, #396	; 0x18c
 51c:	74726174 	ldrbtvc	r6, [r2], #-372	; 0x174
 520:	6100632e 	tstvs	r0, lr, lsr #6
 524:	73755f74 	cmnvc	r5, #116, 30	; 0x1d0
 528:	6c5f7265 	lfmvs	f7, 2, [pc], {101}	; 0x65
 52c:	6c657665 	stclvs	6, cr7, [r5], #-404	; 0xfffffe6c
 530:	61747300 	cmnvs	r4, r0, lsl #6
 534:	732d6666 	teqvc	sp, #106954752	; 0x6600000
 538:	722f6372 	eorvc	r6, pc, #-939524095	; 0xc8000001
 53c:	6f6f6265 	svcvs	0x006f6265
 540:	00632e74 	rsbeq	r2, r3, r4, ror lr
 544:	525f4d50 	subspl	r4, pc, #80, 26	; 0x1400
 548:	5f435453 	svcpl	0x00435453
 54c:	46435257 			; <UNDEFINED> instruction: 0x46435257
 550:	55465f47 	strbpl	r5, [r6, #-3911]	; 0xf47
 554:	525f4c4c 	subspl	r4, pc, #76, 24	; 0x4c00
 558:	54455345 	strbpl	r5, [r5], #-837	; 0x345
 55c:	5f4d5000 	svcpl	0x004d5000
 560:	474f4457 	smlsldmi	r4, pc, r7, r4	; <UNPREDICTABLE>
 564:	74657300 	strbtvc	r7, [r5], #-768	; 0x300
 568:	6573755f 	ldrbvs	r7, [r3, #-1375]!	; 0x55f
 56c:	656c5f72 	strbvs	r5, [ip, #-3954]!	; 0xf72
 570:	006c6576 	rsbeq	r6, ip, r6, ror r5
 574:	33545550 	cmpcc	r4, #80, 10	; 0x14000000
 578:	4d500032 	ldclmi	0, cr0, [r0, #-200]	; 0xffffff38
 57c:	5341505f 	movtpl	r5, #4191	; 0x105f
 580:	524f5753 	subpl	r5, pc, #21757952	; 0x14c0000
 584:	4d500044 	ldclmi	0, cr0, [r0, #-272]	; 0xfffffef0
 588:	5453525f 	ldrbpl	r5, [r3], #-607	; 0x25f
 58c:	70630043 	rsbvc	r0, r3, r3, asr #32
 590:	74007273 	strvc	r7, [r0], #-627	; 0x273
 594:	72656d69 	rsbvc	r6, r5, #6720	; 0x1a40
 598:	7465675f 	strbtvc	r6, [r5], #-1887	; 0x75f
 59c:	6573755f 	ldrbvs	r7, [r3, #-1375]!	; 0x55f
 5a0:	61725f63 	cmnvs	r2, r3, ror #30
 5a4:	65640077 	strbvs	r0, [r4, #-119]!	; 0x77
 5a8:	5f79616c 	svcpl	0x0079616c
 5ac:	00636573 	rsbeq	r6, r3, r3, ror r5
 5b0:	66617473 			; <UNDEFINED> instruction: 0x66617473
 5b4:	72732d66 	rsbsvc	r2, r3, #6528	; 0x1980
 5b8:	69742f63 	ldmdbvs	r4!, {r0, r1, r5, r6, r8, r9, sl, fp, sp}^
 5bc:	2e72656d 	cdpcs	5, 7, cr6, cr2, cr13, {3}
 5c0:	45470063 	strbmi	r0, [r7, #-99]	; 0x63
 5c4:	00323354 	eorseq	r3, r2, r4, asr r3
 5c8:	6b636974 	blvs	18daba0 <__bss_end__+0x18d05f0>
 5cc:	65640073 	strbvs	r0, [r4, #-115]!	; 0x73
 5d0:	5f79616c 	svcpl	0x0079616c
 5d4:	6c637963 	stclvs	9, cr7, [r3], #-396	; 0xfffffe74
 5d8:	64007365 	strvs	r7, [r0], #-869	; 0x365
 5dc:	79616c65 	stmdbvc	r1!, {r0, r2, r5, r6, sl, fp, sp, lr}^
 5e0:	0073755f 	rsbseq	r7, r3, pc, asr r5
 5e4:	656d6974 	strbvs	r6, [sp, #-2420]!	; 0x974
 5e8:	65675f72 	strbvs	r5, [r7, #-3954]!	; 0xf72
 5ec:	73755f74 	cmnvc	r5, #116, 30	; 0x1d0
 5f0:	75006365 	strvc	r6, [r0, #-869]	; 0x365
 5f4:	5f747261 	svcpl	0x00747261
 5f8:	63747570 	cmnvs	r4, #112, 10	; 0x1c000000
 5fc:	746e6900 	strbtvc	r6, [lr], #-2304	; 0x900
 600:	616e7265 	cmnvs	lr, r5, ror #4
 604:	75705f6c 	ldrbvc	r5, [r0, #-3948]!	; 0xf6c
 608:	61686374 	smcvs	34356	; 0x8634
 60c:	696c0072 	stmdbvs	ip!, {r1, r4, r5, r6}^
 610:	702f6362 	eorvc	r6, pc, r2, ror #6
 614:	68637475 	stmdavs	r3!, {r0, r2, r4, r5, r6, sl, ip, sp, lr}^
 618:	632e7261 	teqvs	lr, #268435462	; 0x10000006
 61c:	69707200 	ldmdbvs	r0!, {r9, ip, sp, lr}^
 620:	7465735f 	strbtvc	r7, [r5], #-863	; 0x35f
 624:	7475705f 	ldrbtvc	r7, [r5], #-95	; 0x5f
 628:	65640063 	strbvs	r0, [r4, #-99]!	; 0x63
 62c:	6c007473 	cfstrsvs	mvf7, [r0], {115}	; 0x73
 630:	2f636269 	svccs	0x00636269
 634:	63727473 	cmnvs	r2, #1929379840	; 0x73000000
 638:	632e7461 	teqvs	lr, #1627389952	; 0x61000000
 63c:	73645f00 	cmnvc	r4, #0, 30
 640:	61685f6f 	cmnvs	r8, pc, ror #30
 644:	656c646e 	strbvs	r6, [ip, #-1134]!	; 0x46e
 648:	69735f00 	ldmdbvs	r3!, {r8, r9, sl, fp, ip, lr}^
 64c:	5f00657a 	svcpl	0x0000657a
 650:	646e6172 	strbtvs	r6, [lr], #-370	; 0x172
 654:	5f003834 	svcpl	0x00003834
 658:	72656d65 	rsbvc	r6, r5, #6464	; 0x1940
 65c:	636e6567 	cmnvs	lr, #432013312	; 0x19c00000
 660:	61750079 	cmnvs	r5, r9, ror r0
 664:	695f7472 	ldmdbvs	pc, {r1, r4, r5, r6, sl, ip, sp, lr}^	; <UNPREDICTABLE>
 668:	0074696e 	rsbseq	r6, r4, lr, ror #18
 66c:	7263775f 	rsbvc	r7, r3, #24903680	; 0x17c0000
 670:	626d6f74 	rsbvs	r6, sp, #116, 30	; 0x1d0
 674:	6174735f 	cmnvs	r4, pc, asr r3
 678:	5f006574 	svcpl	0x00006574
 67c:	72736377 	rsbsvc	r6, r3, #-603979775	; 0xdc000001
 680:	626d6f74 	rsbvs	r6, sp, #116, 30	; 0x1d0
 684:	74735f73 	ldrbtvc	r5, [r3], #-3955	; 0xf73
 688:	00657461 	rsbeq	r7, r5, r1, ror #8
 68c:	66626c5f 			; <UNDEFINED> instruction: 0x66626c5f
 690:	657a6973 	ldrbvs	r6, [sl, #-2419]!	; 0x973
 694:	64646100 	strbtvs	r6, [r4], #-256	; 0x100
 698:	50470072 	subpl	r0, r7, r2, ror r0
 69c:	465f4f49 	ldrbmi	r4, [pc], -r9, asr #30
 6a0:	5f434e55 	svcpl	0x00434e55
 6a4:	55504e49 	ldrbpl	r4, [r0, #-3657]	; 0xe49
 6a8:	6d5f0054 	ldclvs	0, cr0, [pc, #-336]	; 560 <_start-0x7aa0>
 6ac:	6f747262 	svcvs	0x00747262
 6b0:	735f6377 	cmpvc	pc, #-603979775	; 0xdc000001
 6b4:	65746174 	ldrbvs	r6, [r4, #-372]!	; 0x174
 6b8:	63775f00 	cmnvs	r7, #0, 30
 6bc:	626d6f74 	rsbvs	r6, sp, #116, 30	; 0x1d0
 6c0:	6174735f 	cmnvs	r4, pc, asr r3
 6c4:	5f006574 	svcpl	0x00006574
 6c8:	5f6d745f 	svcpl	0x006d745f
 6cc:	00636573 	rsbeq	r6, r3, r3, ror r5
 6d0:	74617473 	strbtvc	r7, [r1], #-1139	; 0x473
 6d4:	62755f00 	rsbsvs	r5, r5, #0, 30
 6d8:	47006675 	smlsdxmi	r0, r5, r6, r6
 6dc:	4320554e 	teqmi	r0, #327155712	; 0x13800000
 6e0:	36203939 			; <UNDEFINED> instruction: 0x36203939
 6e4:	312e332e 	teqcc	lr, lr, lsr #6
 6e8:	31303220 	teqcc	r0, r0, lsr #4
 6ec:	32363037 	eorscc	r3, r6, #55	; 0x37
 6f0:	6d2d2030 	stcvs	0, cr2, [sp, #-192]!	; 0xffffff40
 6f4:	3d757063 	ldclcc	0, cr7, [r5, #-396]!	; 0xfffffe74
 6f8:	316d7261 	cmncc	sp, r1, ror #4
 6fc:	6a363731 	bvs	d8e3c8 <__bss_end__+0xd83e18>
 700:	732d667a 	teqvc	sp, #127926272	; 0x7a00000
 704:	746d2d20 	strbtvc	r2, [sp], #-3360	; 0xd20
 708:	3d656e75 	stclcc	14, cr6, [r5, #-468]!	; 0xfffffe2c
 70c:	316d7261 	cmncc	sp, r1, ror #4
 710:	6a363731 	bvs	d8e3dc <__bss_end__+0xd83e2c>
 714:	732d667a 	teqvc	sp, #127926272	; 0x7a00000
 718:	666d2d20 	strbtvs	r2, [sp], -r0, lsr #26
 71c:	74616f6c 	strbtvc	r6, [r1], #-3948	; 0xf6c
 720:	6962612d 	stmdbvs	r2!, {r0, r2, r3, r5, r8, sp, lr}^
 724:	7261683d 	rsbvc	r6, r1, #3997696	; 0x3d0000
 728:	6d2d2064 	stcvs	0, cr2, [sp, #-400]!	; 0xfffffe70
 72c:	3d757066 	ldclcc	0, cr7, [r5, #-408]!	; 0xfffffe68
 730:	20706676 	rsbscs	r6, r0, r6, ror r6
 734:	6467672d 	strbtvs	r6, [r7], #-1837	; 0x72d
 738:	4f2d2062 	svcmi	0x002d2062
 73c:	732d2067 	teqvc	sp, #103	; 0x67
 740:	673d6474 			; <UNDEFINED> instruction: 0x673d6474
 744:	3939756e 	ldmdbcc	r9!, {r1, r2, r3, r5, r6, r8, sl, ip, sp, lr}
 748:	66662d20 	strbtvs	r2, [r6], -r0, lsr #26
 74c:	73656572 	cmnvc	r5, #478150656	; 0x1c800000
 750:	646e6174 	strbtvs	r6, [lr], #-372	; 0x174
 754:	00676e69 	rsbeq	r6, r7, r9, ror #28
 758:	7361625f 	cmnvc	r1, #-268435451	; 0xf0000005
 75c:	6e630065 	cdpvs	0, 6, cr0, cr3, cr5, {3}
 760:	5f006c74 	svcpl	0x00006c74
 764:	5f6d745f 	svcpl	0x006d745f
 768:	72756f68 	rsbsvc	r6, r5, #104, 30	; 0x1a0
 76c:	735f5f00 	cmpvc	pc, #0, 30
 770:	6f5f0066 	svcvs	0x005f0066
 774:	78655f6e 	stmdavc	r5!, {r1, r2, r3, r5, r6, r8, r9, sl, fp, ip, lr}^
 778:	615f7469 	cmpvs	pc, r9, ror #8
 77c:	00736772 	rsbseq	r6, r3, r2, ror r7
 780:	6f6f635f 	svcvs	0x006f635f
 784:	0065696b 	rsbeq	r6, r5, fp, ror #18
 788:	67735f5f 			; <UNDEFINED> instruction: 0x67735f5f
 78c:	0065756c 	rsbeq	r7, r5, ip, ror #10
 790:	616c665f 	cmnvs	ip, pc, asr r6
 794:	5f007367 	svcpl	0x00007367
 798:	635f7369 	cmpvs	pc, #-1543503871	; 0xa4000001
 79c:	5f006178 	svcpl	0x00006178
 7a0:	69647473 	stmdbvs	r4!, {r0, r1, r4, r5, r6, sl, ip, sp, lr}^
 7a4:	625f006e 	subsvs	r0, pc, #110	; 0x6e
 7a8:	69736b6c 	ldmdbvs	r3!, {r2, r3, r5, r6, r8, r9, fp, sp, lr}^
 7ac:	7500657a 	strvc	r6, [r0, #-1402]	; 0x57a
 7b0:	2e747261 	cdpcs	2, 7, cr7, cr4, cr1, {3}
 7b4:	75610063 	strbvc	r0, [r1, #-99]!	; 0x63
 7b8:	65705f78 	ldrbvs	r5, [r0, #-3960]!	; 0xf78
 7bc:	68706972 	ldmdavs	r0!, {r1, r4, r5, r6, r8, fp, sp, lr}^
 7c0:	635f0073 	cmpvs	pc, #115	; 0x73
 7c4:	75627476 	strbvc	r7, [r2, #-1142]!	; 0x476
 7c8:	682f0066 	stmdavs	pc!, {r1, r2, r5, r6}	; <UNPREDICTABLE>
 7cc:	2f656d6f 	svccs	0x00656d6f
 7d0:	6c676e65 	stclvs	14, cr6, [r7], #-404	; 0xfffffe6c
 7d4:	632f7265 	teqvs	pc, #1342177286	; 0x50000006
 7d8:	7373616c 	cmnvc	r3, #108, 2
 7dc:	3273632f 	rsbscc	r6, r3, #-1140850688	; 0xbc000000
 7e0:	786c3034 	stmdavc	ip!, {r2, r4, r5, ip, sp}^
 7e4:	7330322d 	teqvc	r0, #-805306366	; 0xd0000002
 7e8:	6c2f7270 	sfmvs	f7, 4, [pc], #-448	; 630 <_start-0x79d0>
 7ec:	69706269 	ldmdbvs	r0!, {r0, r3, r5, r6, r9, sp, lr}^
 7f0:	6174732f 	cmnvs	r4, pc, lsr #6
 7f4:	702d6666 	eorvc	r6, sp, r6, ror #12
 7f8:	61766972 	cmnvs	r6, r2, ror r9
 7fc:	5f006574 	svcpl	0x00006574
 800:	7273626d 	rsbsvc	r6, r3, #-805306362	; 0xd0000006
 804:	63776f74 	cmnvs	r7, #116, 30	; 0x1d0
 808:	74735f73 	ldrbtvc	r5, [r3], #-3955	; 0xf73
 80c:	00657461 	rsbeq	r7, r5, r1, ror #8
 810:	72626d5f 	rsbvc	r6, r2, #6080	; 0x17c0
 814:	5f6e656c 	svcpl	0x006e656c
 818:	74617473 	strbtvc	r7, [r1], #-1139	; 0x473
 81c:	665f0065 	ldrbvs	r0, [pc], -r5, rrx
 820:	6772616e 	ldrbvs	r6, [r2, -lr, ror #2]!
 824:	75610073 	strbvc	r0, [r1, #-115]!	; 0x73
 828:	6e655f78 	mcrvs	15, 3, r5, cr5, cr8, {3}
 82c:	656c6261 	strbvs	r6, [ip, #-609]!	; 0x261
 830:	665f0073 			; <UNDEFINED> instruction: 0x665f0073
 834:	5f00736e 	svcpl	0x0000736e
 838:	6e676973 	mcrvs	9, 3, r6, cr7, cr3, {3}
 83c:	72617500 	rsbvc	r7, r1, #0, 10
 840:	61635f74 	smcvs	13812	; 0x35f4
 844:	75705f6e 	ldrbvc	r5, [r0, #-3950]!	; 0xf6e
 848:	5f006374 	svcpl	0x00006374
 84c:	636f6c66 	cmnvs	pc, #26112	; 0x6600
 850:	00745f6b 	rsbseq	r5, r4, fp, ror #30
 854:	6474735f 	ldrbtvs	r7, [r4], #-863	; 0x35f
 858:	00727265 	rsbseq	r7, r2, r5, ror #4
 85c:	6769425f 			; <UNDEFINED> instruction: 0x6769425f
 860:	00746e69 	rsbseq	r6, r4, r9, ror #28
 864:	6d61675f 	stclvs	7, cr6, [r1, #-380]!	; 0xfffffe84
 868:	735f616d 	cmpvc	pc, #1073741851	; 0x4000001b
 86c:	676e6769 	strbvs	r6, [lr, -r9, ror #14]!
 870:	5f006d61 	svcpl	0x00006d61
 874:	75736572 	ldrbvc	r6, [r3, #-1394]!	; 0x572
 878:	6b5f746c 	blvs	17dda30 <__bss_end__+0x17d3480>
 87c:	745f5f00 	ldrbvc	r5, [pc], #-3840	; 884 <_start-0x777c>
 880:	5f5f006d 	svcpl	0x005f006d
 884:	62686377 	rsbvs	r6, r8, #-603979775	; 0xdc000001
 888:	72617500 	rsbvc	r7, r1, #0, 10
 88c:	65675f74 	strbvs	r5, [r7, #-3956]!	; 0xf74
 890:	5f006374 	svcpl	0x00006374
 894:	6f647473 	svcvs	0x00647473
 898:	5f007475 	svcpl	0x00007475
 89c:	6c747663 	ldclvs	6, cr7, [r4], #-396	; 0xfffffe74
 8a0:	5f006e65 	svcpl	0x00006e65
 8a4:	656c6966 	strbvs	r6, [ip, #-2406]!	; 0x966
 8a8:	696e5f00 	stmdbvs	lr!, {r8, r9, sl, fp, ip, lr}^
 8ac:	0073626f 	rsbseq	r6, r3, pc, ror #4
 8b0:	6574615f 	ldrbvs	r6, [r4, #-351]!	; 0x15f
 8b4:	30746978 	rsbscc	r6, r4, r8, ror r9
 8b8:	69735f00 	ldmdbvs	r3!, {r8, r9, sl, fp, ip, lr}^
 8bc:	6c616e67 	stclvs	14, cr6, [r1], #-412	; 0xfffffe64
 8c0:	6675625f 			; <UNDEFINED> instruction: 0x6675625f
 8c4:	73615f00 	cmnvc	r1, #0, 30
 8c8:	6d697463 	cfstrdvs	mvd7, [r9, #-396]!	; 0xfffffe74
 8cc:	75625f65 	strbvc	r5, [r2, #-3941]!	; 0xf65
 8d0:	65640066 	strbvs	r0, [r4, #-102]!	; 0x66
 8d4:	61625f76 	smcvs	9718	; 0x25f6
 8d8:	65697272 	strbvs	r7, [r9, #-626]!	; 0x272
 8dc:	725f0072 	subsvc	r0, pc, #114	; 0x72
 8e0:	6c757365 	ldclvs	3, cr7, [r5], #-404	; 0xfffffe6c
 8e4:	5f5f0074 	svcpl	0x005f0074
 8e8:	00686377 	rsbeq	r6, r8, r7, ror r3
 8ec:	4f495047 	svcmi	0x00495047
 8f0:	4e55465f 	mrcmi	6, 2, r4, cr5, cr15, {2}
 8f4:	4c415f43 	mcrrmi	15, 4, r5, r1, cr3
 8f8:	77003254 	smlsdvc	r0, r4, r2, r3
 8fc:	5f746e69 	svcpl	0x00746e69
 900:	6c5f0074 	mrrcvs	0, 7, r0, pc, cr4	; <UNPREDICTABLE>
 904:	006b636f 	rsbeq	r6, fp, pc, ror #6
 908:	616c665f 	cmnvs	ip, pc, asr r6
 90c:	00327367 	eorseq	r7, r2, r7, ror #6
 910:	6d745f5f 	ldclvs	15, cr5, [r4, #-380]!	; 0xfffffe84
 914:	6165795f 	cmnvs	r5, pc, asr r9
 918:	6f5f0072 	svcvs	0x005f0072
 91c:	65736666 	ldrbvs	r6, [r3, #-1638]!	; 0x666
 920:	70670074 	rsbvc	r0, r7, r4, ror r0
 924:	735f6f69 	cmpvc	pc, #420	; 0x1a4
 928:	665f7465 	ldrbvs	r7, [pc], -r5, ror #8
 92c:	74636e75 	strbtvc	r6, [r3], #-3701	; 0xe75
 930:	006e6f69 	rsbeq	r6, lr, r9, ror #30
 934:	78656e5f 	stmdavc	r5!, {r0, r1, r2, r3, r4, r6, r9, sl, fp, sp, lr}^
 938:	5f006674 	svcpl	0x00006674
 93c:	5f6d745f 	svcpl	0x006d745f
 940:	006e6f6d 	rsbeq	r6, lr, sp, ror #30
 944:	6574615f 	ldrbvs	r6, [r4, #-351]!	; 0x15f
 948:	00746978 	rsbseq	r6, r4, r8, ror r9
 94c:	64735f5f 	ldrbtvs	r5, [r3], #-3935	; 0xf5f
 950:	6e696469 	cdpvs	4, 6, cr6, cr9, cr9, {3}
 954:	5f007469 	svcpl	0x00007469
 958:	5f66666f 	svcpl	0x0066666f
 95c:	61750074 	cmnvs	r5, r4, ror r0
 960:	5f007472 	svcpl	0x00007472
 964:	65657266 	strbvs	r7, [r5, #-614]!	; 0x266
 968:	7473696c 	ldrbtvc	r6, [r3], #-2412	; 0x96c
 96c:	4f4c5f00 	svcmi	0x004c5f00
 970:	525f4b43 	subspl	r4, pc, #68608	; 0x10c00
 974:	52554345 	subspl	r4, r5, #335544321	; 0x14000001
 978:	45564953 	ldrbmi	r4, [r6, #-2387]	; 0x953
 97c:	5f00545f 	svcpl	0x0000545f
 980:	0077656e 	rsbseq	r6, r7, lr, ror #10
 984:	655f685f 	ldrbvs	r6, [pc, #-2143]	; 12d <_start-0x7ed3>
 988:	6f6e7272 	svcvs	0x006e7272
 98c:	745f5f00 	ldrbvc	r5, [pc], #-3840	; 994 <_start-0x766c>
 990:	64795f6d 	ldrbtvs	r5, [r9], #-3949	; 0xf6d
 994:	5f007961 	svcpl	0x00007961
 998:	7562735f 	strbvc	r7, [r2, #-863]!	; 0x35f
 99c:	695f0066 	ldmdbvs	pc, {r1, r2, r5, r6}^	; <UNPREDICTABLE>
 9a0:	0073626f 	rsbseq	r6, r3, pc, ror #4
 9a4:	49465f5f 	stmdbmi	r6, {r0, r1, r2, r3, r4, r6, r8, r9, sl, fp, ip, lr}^
 9a8:	5f00454c 	svcpl	0x0000454c
 9ac:	7473626d 	ldrbtvc	r6, [r3], #-621	; 0x26d
 9b0:	5f657461 	svcpl	0x00657461
 9b4:	5f5f0074 	svcpl	0x005f0074
 9b8:	4c494673 	mcrrmi	6, 7, r4, r9, cr3
 9bc:	6d5f0045 	ldclvs	0, cr0, [pc, #-276]	; 8b0 <_start-0x7750>
 9c0:	61747362 	cmnvs	r4, r2, ror #6
 9c4:	5f006574 	svcpl	0x00006574
 9c8:	646e6172 	strbtvs	r6, [lr], #-370	; 0x172
 9cc:	78656e5f 	stmdavc	r5!, {r0, r1, r2, r3, r4, r6, r9, sl, fp, sp, lr}^
 9d0:	6d5f0074 	ldclvs	0, cr0, [pc, #-464]	; 808 <_start-0x77f8>
 9d4:	6e656c62 	cdpvs	12, 6, cr6, cr5, cr2, {3}
 9d8:	6174735f 	cmnvs	r4, pc, asr r3
 9dc:	5f006574 	svcpl	0x00006574
 9e0:	00636e69 	rsbeq	r6, r3, r9, ror #28
 9e4:	646e695f 	strbtvs	r6, [lr], #-2399	; 0x95f
 9e8:	75635f00 	strbvc	r5, [r3, #-3840]!	; 0xf00
 9ec:	6e657272 	mcrvs	2, 3, r7, cr5, cr2, {3}
 9f0:	6f6c5f74 	svcvs	0x006c5f74
 9f4:	656c6163 	strbvs	r6, [ip, #-355]!	; 0x163
 9f8:	635f5f00 	cmpvs	pc, #0, 30
 9fc:	6e61656c 	cdpvs	5, 6, cr6, cr1, cr12, {3}
 a00:	5f007075 	svcpl	0x00007075
 a04:	7778616d 	ldrbvc	r6, [r8, -sp, ror #2]!
 a08:	5f007364 	svcpl	0x00007364
 a0c:	6e656572 	mcrvs	5, 3, r6, cr5, cr2, {3}
 a10:	735f0074 	cmpvc	pc, #116	; 0x74
 a14:	00646565 	rsbeq	r6, r4, r5, ror #10
 a18:	6f635f5f 	svcvs	0x00635f5f
 a1c:	00746e75 	rsbseq	r6, r4, r5, ror lr
 a20:	61765f5f 	cmnvs	r6, pc, asr pc
 a24:	0065756c 	rsbeq	r7, r5, ip, ror #10
 a28:	6565735f 	strbvs	r7, [r5, #-863]!	; 0x35f
 a2c:	6162006b 	cmnvs	r2, fp, rrx
 a30:	5f006475 	svcpl	0x00006475
 a34:	736f7066 	cmnvc	pc, #102	; 0x66
 a38:	5f00745f 	svcpl	0x0000745f
 a3c:	5f6d745f 	svcpl	0x006d745f
 a40:	006e696d 	rsbeq	r6, lr, sp, ror #18
 a44:	61726373 	cmnvs	r2, r3, ror r3
 a48:	00686374 	rsbeq	r6, r8, r4, ror r3
 a4c:	6c756d5f 	ldclvs	13, cr6, [r5], #-380	; 0xfffffe84
 a50:	75700074 	ldrbvc	r0, [r0, #-116]!	; 0x74
 a54:	00323374 	eorseq	r3, r2, r4, ror r3
 a58:	7274735f 	rsbsvc	r7, r4, #2080374785	; 0x7c000001
 a5c:	5f6b6f74 	svcpl	0x006b6f74
 a60:	7473616c 	ldrbtvc	r6, [r3], #-364	; 0x16c
 a64:	6e665f00 	cdpvs	15, 6, cr5, cr6, cr0, {0}
 a68:	65707974 	ldrbvs	r7, [r0, #-2420]!	; 0x974
 a6c:	615f0073 	cmpvs	pc, r3, ror r0	; <UNPREDICTABLE>
 a70:	5f006464 	svcpl	0x00006464
 a74:	6f4c555f 	svcvs	0x004c555f
 a78:	5f00676e 	svcpl	0x0000676e
 a7c:	64746567 	ldrbtvs	r6, [r4], #-1383	; 0x567
 a80:	5f657461 	svcpl	0x00657461
 a84:	00727265 	rsbseq	r7, r2, r5, ror #4
 a88:	6f6c675f 	svcvs	0x006c675f
 a8c:	5f6c6162 	svcpl	0x006c6162
 a90:	75706d69 	ldrbvc	r6, [r0, #-3433]!	; 0xd69
 a94:	705f6572 	subsvc	r6, pc, r2, ror r5	; <UNPREDICTABLE>
 a98:	5f007274 	svcpl	0x00007274
 a9c:	72727563 	rsbsvc	r7, r2, #415236096	; 0x18c00000
 aa0:	5f746e65 	svcpl	0x00746e65
 aa4:	65746163 	ldrbvs	r6, [r4, #-355]!	; 0x163
 aa8:	79726f67 	ldmdbvc	r2!, {r0, r1, r2, r5, r6, r8, r9, sl, fp, sp, lr}^
 aac:	6e755f00 	cdpvs	15, 7, cr5, cr5, cr0, {0}
 ab0:	64657375 	strbtvs	r7, [r5], #-885	; 0x375
 ab4:	6e61725f 	mcrvs	2, 3, r7, cr1, cr15, {2}
 ab8:	775f0064 	ldrbvc	r0, [pc, -r4, rrx]
 abc:	5f007364 	svcpl	0x00007364
 ac0:	5f6d745f 	svcpl	0x006d745f
 ac4:	79616477 	stmdbvc	r1!, {r0, r1, r2, r4, r5, r6, sl, sp, lr}^
 ac8:	6c675f00 	stclvs	15, cr5, [r7], #-0
 acc:	47006575 	smlsdxmi	r0, r5, r5, r6
 ad0:	5f4f4950 	svcpl	0x004f4950
 ad4:	434e5546 	movtmi	r5, #58694	; 0xe546
 ad8:	54554f5f 	ldrbpl	r4, [r5], #-3935	; 0xf5f
 adc:	00545550 	subseq	r5, r4, r0, asr r5
 ae0:	616d6e5f 	cmnvs	sp, pc, asr lr
 ae4:	636f6c6c 	cmnvs	pc, #108, 24	; 0x6c00
 ae8:	366c5f00 	strbtcc	r5, [ip], -r0, lsl #30
 aec:	625f6134 	subsvs	r6, pc, #52, 2
 af0:	67006675 	smlsdxvs	r0, r5, r6, r6
 af4:	32337465 	eorscc	r7, r3, #1694498816	; 0x65000000
 af8:	49504700 	ldmdbmi	r0, {r8, r9, sl, lr}^
 afc:	55465f4f 	strbpl	r5, [r6, #-3919]	; 0xf4f
 b00:	415f434e 	cmpmi	pc, lr, asr #6
 b04:	0031544c 	eorseq	r5, r1, ip, asr #8
 b08:	74726175 	ldrbtvc	r6, [r2], #-373	; 0x175
 b0c:	6e61635f 	mcrvs	3, 3, r6, cr1, cr15, {2}
 b10:	7465675f 	strbtvc	r6, [r5], #-1887	; 0x75f
 b14:	735f0063 	cmpvc	pc, #99	; 0x63
 b18:	665f6769 	ldrbvs	r6, [pc], -r9, ror #14
 b1c:	00636e75 	rsbeq	r6, r3, r5, ror lr
 b20:	695f726f 	ldmdbvs	pc, {r0, r1, r2, r3, r5, r6, r9, ip, sp, lr}^	; <UNPREDICTABLE>
 b24:	0032336e 	eorseq	r3, r2, lr, ror #6
 b28:	74726175 	ldrbtvc	r6, [r2], #-373	; 0x175
 b2c:	7361685f 	cmnvc	r1, #6225920	; 0x5f0000
 b30:	7461645f 	strbtvc	r6, [r1], #-1119	; 0x45f
 b34:	50470061 	subpl	r0, r7, r1, rrx
 b38:	465f4f49 	ldrbmi	r4, [pc], -r9, asr #30
 b3c:	5f434e55 	svcpl	0x00434e55
 b40:	30544c41 	subscc	r4, r4, r1, asr #24
 b44:	626e5f00 	rsbvs	r5, lr, #0, 30
 b48:	5f006675 	svcpl	0x00006675
 b4c:	73756e75 	cmnvc	r5, #1872	; 0x750
 b50:	47006465 	strmi	r6, [r0, -r5, ror #8]
 b54:	5f4f4950 	svcpl	0x004f4950
 b58:	434e5546 	movtmi	r5, #58694	; 0xe546
 b5c:	544c415f 	strbpl	r4, [ip], #-351	; 0x15f
 b60:	50470033 	subpl	r0, r7, r3, lsr r0
 b64:	465f4f49 	ldrbmi	r4, [pc], -r9, asr #30
 b68:	5f434e55 	svcpl	0x00434e55
 b6c:	34544c41 	ldrbcc	r4, [r4], #-3137	; 0xc41
 b70:	49504700 	ldmdbmi	r0, {r8, r9, sl, lr}^
 b74:	55465f4f 	strbpl	r5, [r6, #-3919]	; 0xf4f
 b78:	415f434e 	cmpmi	pc, lr, asr #6
 b7c:	0035544c 	eorseq	r5, r5, ip, asr #8
 b80:	6d745f5f 	ldclvs	15, cr5, [r4, #-380]!	; 0xfffffe84
 b84:	6473695f 	ldrbtvs	r6, [r3], #-2399	; 0x95f
 b88:	5f007473 	svcpl	0x00007473
 b8c:	61636f6c 	cmnvs	r3, ip, ror #30
 b90:	6d69746c 	cfstrdvs	mvd7, [r9, #-432]!	; 0xfffffe50
 b94:	75625f65 	strbvc	r5, [r2, #-3941]!	; 0xf65
 b98:	635f0066 	cmpvs	pc, #102	; 0x66
 b9c:	65736f6c 	ldrbvs	r6, [r3, #-3948]!	; 0xf6c
 ba0:	34725f00 	ldrbtcc	r5, [r2], #-3840	; 0xf00
 ba4:	6d5f0038 	ldclvs	0, cr0, [pc, #-224]	; acc <_start-0x7534>
 ba8:	776f7462 	strbvc	r7, [pc, -r2, ror #8]!
 bac:	74735f63 	ldrbtvc	r5, [r3], #-3939	; 0xf63
 bb0:	00657461 	rsbeq	r7, r5, r1, ror #8
 bb4:	7335705f 	teqvc	r5, #95	; 0x5f
 bb8:	745f5f00 	ldrbvc	r5, [pc], #-3840	; bc0 <_start-0x7440>
 bbc:	646d5f6d 	strbtvs	r5, [sp], #-3949	; 0xf6d
 bc0:	67007961 	strvs	r7, [r0, -r1, ror #18]
 bc4:	5f6f6970 	svcpl	0x006f6970
 bc8:	5f746573 	svcpl	0x00746573
 bcc:	0066666f 	rsbeq	r6, r6, pc, ror #12
 bd0:	6b6e6162 	blvs	1b99160 <__bss_end__+0x1b8ebb0>
 bd4:	69706700 	ldmdbvs	r0!, {r8, r9, sl, sp, lr}^
 bd8:	00632e6f 	rsbeq	r2, r3, pc, ror #28
 bdc:	6f697067 	svcvs	0x00697067
 be0:	6165725f 	cmnvs	r5, pc, asr r2
 be4:	70670064 	rsbvc	r0, r7, r4, rrx
 be8:	735f6f69 	cmpvc	pc, #420	; 0x1a4
 bec:	6f5f7465 	svcvs	0x005f7465
 bf0:	75707475 	ldrbvc	r7, [r0, #-1141]!	; 0x475
 bf4:	70670074 	rsbvc	r0, r7, r4, ror r0
 bf8:	775f6f69 	ldrbvc	r6, [pc, -r9, ror #30]
 bfc:	65746972 	ldrbvs	r6, [r4, #-2418]!	; 0x972
 c00:	69706700 	ldmdbvs	r0!, {r8, r9, sl, sp, lr}^
 c04:	65735f6f 	ldrbvs	r5, [r3, #-3951]!	; 0xf6f
 c08:	67003074 	smlsdxvs	r0, r4, r0, r3
 c0c:	5f6f6970 	svcpl	0x006f6970
 c10:	3076656c 	rsbscc	r6, r6, ip, ror #10
 c14:	69706700 	ldmdbvs	r0!, {r8, r9, sl, sp, lr}^
 c18:	65735f6f 	ldrbvs	r5, [r3, #-3951]!	; 0xf6f
 c1c:	6e695f74 	mcrvs	15, 3, r5, cr9, cr4, {3}
 c20:	00747570 	rsbseq	r7, r4, r0, ror r5
 c24:	6f697067 	svcvs	0x00697067
 c28:	7465735f 	strbtvc	r7, [r5], #-863	; 0x35f
 c2c:	006e6f5f 	rsbeq	r6, lr, pc, asr pc
 c30:	6f697067 	svcvs	0x00697067
 c34:	6e75665f 	mrcvs	6, 3, r6, cr5, cr15, {2}
 c38:	00745f63 	rsbseq	r5, r4, r3, ror #30
 c3c:	6f697067 	svcvs	0x00697067
 c40:	726c635f 	rsbvc	r6, ip, #2080374785	; 0x7c000001
 c44:	Address 0x0000000000000c44 is out of bounds.


Disassembly of section .debug_frame:

00000000 <.debug_frame>:
   0:	0000000c 	andeq	r0, r0, ip
   4:	ffffffff 			; <UNDEFINED> instruction: 0xffffffff
   8:	7c020001 	stcvc	0, cr0, [r2], {1}
   c:	000d0c0e 	andeq	r0, sp, lr, lsl #24
  10:	00000020 	andeq	r0, r0, r0, lsr #32
  14:	00000000 	andeq	r0, r0, r0
  18:	00008010 	andeq	r8, r0, r0, lsl r0
  1c:	000000b0 	strheq	r0, [r0], -r0	; <UNPREDICTABLE>
  20:	84180e42 	ldrhi	r0, [r8], #-3650	; 0xe42
  24:	86058506 	strhi	r8, [r5], -r6, lsl #10
  28:	88038704 	stmdahi	r3, {r2, r8, r9, sl, pc}
  2c:	42018e02 	andmi	r8, r1, #2, 28
  30:	0000400e 	andeq	r4, r0, lr
  34:	0000000c 	andeq	r0, r0, ip
  38:	ffffffff 			; <UNDEFINED> instruction: 0xffffffff
  3c:	7c020001 	stcvc	0, cr0, [r2], {1}
  40:	000d0c0e 	andeq	r0, sp, lr, lsl #24
  44:	00000014 	andeq	r0, r0, r4, lsl r0
  48:	00000034 	andeq	r0, r0, r4, lsr r0
  4c:	000080c0 	andeq	r8, r0, r0, asr #1
  50:	000000f4 	strdeq	r0, [r0], -r4
  54:	8e040e42 	cdphi	14, 0, cr0, cr4, cr2, {2}
  58:	180e4201 	stmdane	lr, {r0, r9, lr}
  5c:	0000000c 	andeq	r0, r0, ip
  60:	ffffffff 			; <UNDEFINED> instruction: 0xffffffff
  64:	7c020001 	stcvc	0, cr0, [r2], {1}
  68:	000d0c0e 	andeq	r0, sp, lr, lsl #24
  6c:	0000000c 	andeq	r0, r0, ip
  70:	0000005c 	andeq	r0, r0, ip, asr r0
  74:	000081b8 			; <UNDEFINED> instruction: 0x000081b8
  78:	000000b0 	strheq	r0, [r0], -r0	; <UNPREDICTABLE>
  7c:	0000000c 	andeq	r0, r0, ip
  80:	ffffffff 			; <UNDEFINED> instruction: 0xffffffff
  84:	7c020001 	stcvc	0, cr0, [r2], {1}
  88:	000d0c0e 	andeq	r0, sp, lr, lsl #24
  8c:	0000000c 	andeq	r0, r0, ip
  90:	0000007c 	andeq	r0, r0, ip, ror r0
  94:	00008268 	andeq	r8, r0, r8, ror #4
  98:	000000a8 	andeq	r0, r0, r8, lsr #1
  9c:	0000000c 	andeq	r0, r0, ip
  a0:	ffffffff 			; <UNDEFINED> instruction: 0xffffffff
  a4:	7c020001 	stcvc	0, cr0, [r2], {1}
  a8:	000d0c0e 	andeq	r0, sp, lr, lsl #24
  ac:	00000020 	andeq	r0, r0, r0, lsr #32
  b0:	0000009c 	muleq	r0, ip, r0
  b4:	00008310 	andeq	r8, r0, r0, lsl r3
  b8:	00000434 	andeq	r0, r0, r4, lsr r4
  bc:	84180e42 	ldrhi	r0, [r8], #-3650	; 0xe42
  c0:	86058506 	strhi	r8, [r5], -r6, lsl #10
  c4:	89038804 	stmdbhi	r3, {r2, fp, pc}
  c8:	42018e02 	andmi	r8, r1, #2, 28
  cc:	0000480e 	andeq	r4, r0, lr, lsl #16
  d0:	0000000c 	andeq	r0, r0, ip
  d4:	ffffffff 			; <UNDEFINED> instruction: 0xffffffff
  d8:	7c020001 	stcvc	0, cr0, [r2], {1}
  dc:	000d0c0e 	andeq	r0, sp, lr, lsl #24
  e0:	00000040 	andeq	r0, r0, r0, asr #32
  e4:	000000d0 	ldrdeq	r0, [r0], -r0	; <UNPREDICTABLE>
  e8:	00008748 	andeq	r8, r0, r8, asr #14
  ec:	00000748 	andeq	r0, r0, r8, asr #14
  f0:	84240e42 	strthi	r0, [r4], #-3650	; 0xe42
  f4:	86088509 	strhi	r8, [r8], -r9, lsl #10
  f8:	88068707 	stmdahi	r6, {r0, r1, r2, r8, r9, sl, pc}
  fc:	8a048905 	bhi	122518 <__bss_end__+0x117f68>
 100:	8e028b03 	vmlahi.f64	d8, d2, d3
 104:	640e4201 	strvs	r4, [lr], #-513	; 0x201
 108:	05195005 	ldreq	r5, [r9, #-5]
 10c:	54051752 	strpl	r1, [r5], #-1874	; 0x752
 110:	13560515 	cmpne	r6, #88080384	; 0x5400000
 114:	05115805 	ldreq	r5, [r1, #-2053]	; 0x805
 118:	5c050f5a 	stcpl	15, cr0, [r5], {90}	; 0x5a
 11c:	0b5e050d 	bleq	1781558 <__bss_end__+0x1776fa8>
 120:	05a00e42 	streq	r0, [r0, #3650]!	; 0xe42
 124:	0000000c 	andeq	r0, r0, ip
 128:	ffffffff 			; <UNDEFINED> instruction: 0xffffffff
 12c:	7c020001 	stcvc	0, cr0, [r2], {1}
 130:	000d0c0e 	andeq	r0, sp, lr, lsl #24
 134:	0000001c 	andeq	r0, r0, ip, lsl r0
 138:	00000124 	andeq	r0, r0, r4, lsr #2
 13c:	00008e90 	muleq	r0, r0, lr
 140:	00000158 	andeq	r0, r0, r8, asr r1
 144:	83080e42 	movwhi	r0, #36418	; 0x8e42
 148:	42018e02 	andmi	r8, r1, #2, 28
 14c:	5005100e 	andpl	r1, r5, lr
 150:	00000004 	andeq	r0, r0, r4
 154:	0000000c 	andeq	r0, r0, ip
 158:	ffffffff 			; <UNDEFINED> instruction: 0xffffffff
 15c:	7c020001 	stcvc	0, cr0, [r2], {1}
 160:	000d0c0e 	andeq	r0, sp, lr, lsl #24
 164:	00000018 	andeq	r0, r0, r8, lsl r0
 168:	00000154 	andeq	r0, r0, r4, asr r1
 16c:	00008fe8 	andeq	r8, r0, r8, ror #31
 170:	00000148 	andeq	r0, r0, r8, asr #2
 174:	840c0e42 	strhi	r0, [ip], #-3650	; 0xe42
 178:	86028503 	strhi	r8, [r2], -r3, lsl #10
 17c:	00000001 	andeq	r0, r0, r1
 180:	0000000c 	andeq	r0, r0, ip
 184:	ffffffff 			; <UNDEFINED> instruction: 0xffffffff
 188:	7c020001 	stcvc	0, cr0, [r2], {1}
 18c:	000d0c0e 	andeq	r0, sp, lr, lsl #24
 190:	00000014 	andeq	r0, r0, r4, lsl r0
 194:	00000180 	andeq	r0, r0, r0, lsl #3
 198:	00009130 	andeq	r9, r0, r0, lsr r1
 19c:	00000028 	andeq	r0, r0, r8, lsr #32
 1a0:	84080e42 	strhi	r0, [r8], #-3650	; 0xe42
 1a4:	00018502 	andeq	r8, r1, r2, lsl #10
 1a8:	0000000c 	andeq	r0, r0, ip
 1ac:	ffffffff 			; <UNDEFINED> instruction: 0xffffffff
 1b0:	7c020001 	stcvc	0, cr0, [r2], {1}
 1b4:	000d0c0e 	andeq	r0, sp, lr, lsl #24
 1b8:	00000014 	andeq	r0, r0, r4, lsl r0
 1bc:	000001a8 	andeq	r0, r0, r8, lsr #3
 1c0:	00009158 	andeq	r9, r0, r8, asr r1
 1c4:	000000e4 	andeq	r0, r0, r4, ror #1
 1c8:	8e040e42 	cdphi	14, 0, cr0, cr4, cr2, {2}
 1cc:	180e4201 	stmdane	lr, {r0, r9, lr}
 1d0:	0000000c 	andeq	r0, r0, ip
 1d4:	ffffffff 			; <UNDEFINED> instruction: 0xffffffff
 1d8:	7c020001 	stcvc	0, cr0, [r2], {1}
 1dc:	000d0c0e 	andeq	r0, sp, lr, lsl #24
 1e0:	00000024 	andeq	r0, r0, r4, lsr #32
 1e4:	000001d0 	ldrdeq	r0, [r0], -r0	; <UNPREDICTABLE>
 1e8:	00009240 	andeq	r9, r0, r0, asr #4
 1ec:	00000058 	andeq	r0, r0, r8, asr r0
 1f0:	80100e42 	andshi	r0, r0, r2, asr #28
 1f4:	82038104 	andhi	r8, r3, #4, 2
 1f8:	42018302 	andmi	r8, r1, #134217728	; 0x8000000
 1fc:	07841c0e 	streq	r1, [r4, lr, lsl #24]
 200:	058e0685 	streq	r0, [lr, #1669]	; 0x685
 204:	00280e42 	eoreq	r0, r8, r2, asr #28
 208:	0000000c 	andeq	r0, r0, ip
 20c:	ffffffff 			; <UNDEFINED> instruction: 0xffffffff
 210:	7c020001 	stcvc	0, cr0, [r2], {1}
 214:	000d0c0e 	andeq	r0, sp, lr, lsl #24
 218:	00000018 	andeq	r0, r0, r8, lsl r0
 21c:	00000208 	andeq	r0, r0, r8, lsl #4
 220:	00009298 	muleq	r0, r8, r2
 224:	00000034 	andeq	r0, r0, r4, lsr r0
 228:	83100e42 	tsthi	r0, #1056	; 0x420
 22c:	85038404 	strhi	r8, [r3, #-1028]	; 0x404
 230:	00018e02 	andeq	r8, r1, r2, lsl #28
 234:	0000000c 	andeq	r0, r0, ip
 238:	ffffffff 			; <UNDEFINED> instruction: 0xffffffff
 23c:	7c020001 	stcvc	0, cr0, [r2], {1}
 240:	000d0c0e 	andeq	r0, sp, lr, lsl #24
 244:	0000000c 	andeq	r0, r0, ip
 248:	00000234 	andeq	r0, r0, r4, lsr r2
 24c:	000092d0 	ldrdeq	r9, [r0], -r0
 250:	00000014 	andeq	r0, r0, r4, lsl r0
 254:	0000000c 	andeq	r0, r0, ip
 258:	00000234 	andeq	r0, r0, r4, lsr r2
 25c:	000092e4 	andeq	r9, r0, r4, ror #5
 260:	0000002c 	andeq	r0, r0, ip, lsr #32
 264:	0000000c 	andeq	r0, r0, ip
 268:	00000234 	andeq	r0, r0, r4, lsr r2
 26c:	00009310 	andeq	r9, r0, r0, lsl r3
 270:	00000040 	andeq	r0, r0, r0, asr #32
 274:	0000000c 	andeq	r0, r0, ip
 278:	00000234 	andeq	r0, r0, r4, lsr r2
 27c:	00009350 	andeq	r9, r0, r0, asr r3
 280:	0000000c 	andeq	r0, r0, ip
 284:	00000014 	andeq	r0, r0, r4, lsl r0
 288:	00000234 	andeq	r0, r0, r4, lsr r2
 28c:	0000935c 	andeq	r9, r0, ip, asr r3
 290:	0000004c 	andeq	r0, r0, ip, asr #32
 294:	83080e42 	movwhi	r0, #36418	; 0x8e42
 298:	00018e02 	andeq	r8, r1, r2, lsl #28
 29c:	00000014 	andeq	r0, r0, r4, lsl r0
 2a0:	00000234 	andeq	r0, r0, r4, lsr r2
 2a4:	000093a8 	andeq	r9, r0, r8, lsr #7
 2a8:	0000000c 	andeq	r0, r0, ip
 2ac:	83080e42 	movwhi	r0, #36418	; 0x8e42
 2b0:	00018e02 	andeq	r8, r1, r2, lsl #28
 2b4:	00000020 	andeq	r0, r0, r0, lsr #32
 2b8:	00000234 	andeq	r0, r0, r4, lsr r2
 2bc:	000093b4 			; <UNDEFINED> instruction: 0x000093b4
 2c0:	000001b0 			; <UNDEFINED> instruction: 0x000001b0
 2c4:	84180e42 	ldrhi	r0, [r8], #-3650	; 0xe42
 2c8:	86058506 	strhi	r8, [r5], -r6, lsl #10
 2cc:	88038704 	stmdahi	r3, {r2, r8, r9, sl, pc}
 2d0:	42018e02 	andmi	r8, r1, #2, 28
 2d4:	0000580e 	andeq	r5, r0, lr, lsl #16
 2d8:	00000014 	andeq	r0, r0, r4, lsl r0
 2dc:	00000234 	andeq	r0, r0, r4, lsr r2
 2e0:	00009564 	andeq	r9, r0, r4, ror #10
 2e4:	00000054 	andeq	r0, r0, r4, asr r0
 2e8:	83080e42 	movwhi	r0, #36418	; 0x8e42
 2ec:	00018e02 	andeq	r8, r1, r2, lsl #28
 2f0:	00000028 	andeq	r0, r0, r8, lsr #32
 2f4:	00000234 	andeq	r0, r0, r4, lsr r2
 2f8:	000095b8 			; <UNDEFINED> instruction: 0x000095b8
 2fc:	00000100 	andeq	r0, r0, r0, lsl #2
 300:	84180e42 	ldrhi	r0, [r8], #-3650	; 0xe42
 304:	86058506 	strhi	r8, [r5], -r6, lsl #10
 308:	88038704 	stmdahi	r3, {r2, r8, r9, sl, pc}
 30c:	42018e02 	andmi	r8, r1, #2, 28
 310:	5005200e 	andpl	r2, r5, lr
 314:	a80e4208 	stmdage	lr, {r3, r9, lr}
 318:	00000001 	andeq	r0, r0, r1
 31c:	00000028 	andeq	r0, r0, r8, lsr #32
 320:	00000234 	andeq	r0, r0, r4, lsr r2
 324:	000096b8 			; <UNDEFINED> instruction: 0x000096b8
 328:	00000288 	andeq	r0, r0, r8, lsl #5
 32c:	84240e42 	strthi	r0, [r4], #-3650	; 0xe42
 330:	86088509 	strhi	r8, [r8], -r9, lsl #10
 334:	88068707 	stmdahi	r6, {r0, r1, r2, r8, r9, sl, pc}
 338:	8a048905 	bhi	122754 <__bss_end__+0x1181a4>
 33c:	8e028b03 	vmlahi.f64	d8, d2, d3
 340:	b00e4201 	andlt	r4, lr, r1, lsl #4
 344:	00000001 	andeq	r0, r0, r1
 348:	0000000c 	andeq	r0, r0, ip
 34c:	ffffffff 			; <UNDEFINED> instruction: 0xffffffff
 350:	7c020001 	stcvc	0, cr0, [r2], {1}
 354:	000d0c0e 	andeq	r0, sp, lr, lsl #24
 358:	00000014 	andeq	r0, r0, r4, lsl r0
 35c:	00000348 	andeq	r0, r0, r8, asr #6
 360:	00009940 	andeq	r9, r0, r0, asr #18
 364:	00000028 	andeq	r0, r0, r8, lsr #32
 368:	83080e42 	movwhi	r0, #36418	; 0x8e42
 36c:	00018e02 	andeq	r8, r1, r2, lsl #28
 370:	0000000c 	andeq	r0, r0, ip
 374:	ffffffff 			; <UNDEFINED> instruction: 0xffffffff
 378:	7c020001 	stcvc	0, cr0, [r2], {1}
 37c:	000d0c0e 	andeq	r0, sp, lr, lsl #24
 380:	00000014 	andeq	r0, r0, r4, lsl r0
 384:	00000370 	andeq	r0, r0, r0, ror r3
 388:	00009968 	andeq	r9, r0, r8, ror #18
 38c:	00000074 	andeq	r0, r0, r4, ror r0
 390:	83080e42 	movwhi	r0, #36418	; 0x8e42
 394:	00018e02 	andeq	r8, r1, r2, lsl #28
 398:	0000000c 	andeq	r0, r0, ip
 39c:	ffffffff 			; <UNDEFINED> instruction: 0xffffffff
 3a0:	7c020001 	stcvc	0, cr0, [r2], {1}
 3a4:	000d0c0e 	andeq	r0, sp, lr, lsl #24
 3a8:	0000000c 	andeq	r0, r0, ip
 3ac:	00000398 	muleq	r0, r8, r3
 3b0:	000099dc 	ldrdeq	r9, [r0], -ip
 3b4:	00000018 	andeq	r0, r0, r8, lsl r0
 3b8:	0000000c 	andeq	r0, r0, ip
 3bc:	00000398 	muleq	r0, r8, r3
 3c0:	000099f4 	strdeq	r9, [r0], -r4
 3c4:	00000014 	andeq	r0, r0, r4, lsl r0
 3c8:	00000014 	andeq	r0, r0, r4, lsl r0
 3cc:	00000398 	muleq	r0, r8, r3
 3d0:	00009a08 	andeq	r9, r0, r8, lsl #20
 3d4:	00000048 	andeq	r0, r0, r8, asr #32
 3d8:	83080e42 	movwhi	r0, #36418	; 0x8e42
 3dc:	00018e02 	andeq	r8, r1, r2, lsl #28
 3e0:	0000000c 	andeq	r0, r0, ip
 3e4:	ffffffff 			; <UNDEFINED> instruction: 0xffffffff
 3e8:	7c020001 	stcvc	0, cr0, [r2], {1}
 3ec:	000d0c0e 	andeq	r0, sp, lr, lsl #24
 3f0:	0000000c 	andeq	r0, r0, ip
 3f4:	000003e0 	andeq	r0, r0, r0, ror #7
 3f8:	00009a50 	andeq	r9, r0, r0, asr sl
 3fc:	0000001c 	andeq	r0, r0, ip, lsl r0
 400:	00000014 	andeq	r0, r0, r4, lsl r0
 404:	000003e0 	andeq	r0, r0, r0, ror #7
 408:	00009a6c 	andeq	r9, r0, ip, ror #20
 40c:	00000014 	andeq	r0, r0, r4, lsl r0
 410:	83080e42 	movwhi	r0, #36418	; 0x8e42
 414:	00018e02 	andeq	r8, r1, r2, lsl #28
 418:	00000014 	andeq	r0, r0, r4, lsl r0
 41c:	000003e0 	andeq	r0, r0, r0, ror #7
 420:	00009a80 	andeq	r9, r0, r0, lsl #21
 424:	0000000c 	andeq	r0, r0, ip
 428:	83080e42 	movwhi	r0, #36418	; 0x8e42
 42c:	00018e02 	andeq	r8, r1, r2, lsl #28
 430:	00000018 	andeq	r0, r0, r8, lsl r0
 434:	000003e0 	andeq	r0, r0, r0, ror #7
 438:	00009a8c 	andeq	r9, r0, ip, lsl #21
 43c:	00000024 	andeq	r0, r0, r4, lsr #32
 440:	83100e42 	tsthi	r0, #1056	; 0x420
 444:	85038404 	strhi	r8, [r3, #-1028]	; 0x404
 448:	00018e02 	andeq	r8, r1, r2, lsl #28
 44c:	00000014 	andeq	r0, r0, r4, lsl r0
 450:	000003e0 	andeq	r0, r0, r0, ror #7
 454:	00009ab0 			; <UNDEFINED> instruction: 0x00009ab0
 458:	00000014 	andeq	r0, r0, r4, lsl r0
 45c:	83080e42 	movwhi	r0, #36418	; 0x8e42
 460:	00018e02 	andeq	r8, r1, r2, lsl #28
 464:	00000014 	andeq	r0, r0, r4, lsl r0
 468:	000003e0 	andeq	r0, r0, r0, ror #7
 46c:	00009ac4 	andeq	r9, r0, r4, asr #21
 470:	00000014 	andeq	r0, r0, r4, lsl r0
 474:	83080e42 	movwhi	r0, #36418	; 0x8e42
 478:	00018e02 	andeq	r8, r1, r2, lsl #28
 47c:	0000000c 	andeq	r0, r0, ip
 480:	ffffffff 			; <UNDEFINED> instruction: 0xffffffff
 484:	7c020001 	stcvc	0, cr0, [r2], {1}
 488:	000d0c0e 	andeq	r0, sp, lr, lsl #24
 48c:	00000014 	andeq	r0, r0, r4, lsl r0
 490:	0000047c 	andeq	r0, r0, ip, ror r4
 494:	00009ba4 	andeq	r9, r0, r4, lsr #23
 498:	00000014 	andeq	r0, r0, r4, lsl r0
 49c:	84080e42 	strhi	r0, [r8], #-3650	; 0xe42
 4a0:	00018e02 	andeq	r8, r1, r2, lsl #28
 4a4:	0000000c 	andeq	r0, r0, ip
 4a8:	0000047c 	andeq	r0, r0, ip, ror r4
 4ac:	00009bb8 			; <UNDEFINED> instruction: 0x00009bb8
 4b0:	00000018 	andeq	r0, r0, r8, lsl r0
 4b4:	0000000c 	andeq	r0, r0, ip
 4b8:	0000047c 	andeq	r0, r0, ip, ror r4
 4bc:	00009bd0 	ldrdeq	r9, [r0], -r0
 4c0:	00000010 	andeq	r0, r0, r0, lsl r0
 4c4:	0000000c 	andeq	r0, r0, ip
 4c8:	ffffffff 			; <UNDEFINED> instruction: 0xffffffff
 4cc:	7c020001 	stcvc	0, cr0, [r2], {1}
 4d0:	000d0c0e 	andeq	r0, sp, lr, lsl #24
 4d4:	0000000c 	andeq	r0, r0, ip
 4d8:	000004c4 	andeq	r0, r0, r4, asr #9
 4dc:	00009be0 	andeq	r9, r0, r0, ror #23
 4e0:	00000038 	andeq	r0, r0, r8, lsr r0
 4e4:	0000000c 	andeq	r0, r0, ip
 4e8:	ffffffff 			; <UNDEFINED> instruction: 0xffffffff
 4ec:	7c020001 	stcvc	0, cr0, [r2], {1}
 4f0:	000d0c0e 	andeq	r0, sp, lr, lsl #24
 4f4:	00000018 	andeq	r0, r0, r8, lsl r0
 4f8:	000004e4 	andeq	r0, r0, r4, ror #9
 4fc:	00009c18 	andeq	r9, r0, r8, lsl ip
 500:	00000020 	andeq	r0, r0, r0, lsr #32
 504:	84100e42 	ldrhi	r0, [r0], #-3650	; 0xe42
 508:	86038504 	strhi	r8, [r3], -r4, lsl #10
 50c:	00018e02 	andeq	r8, r1, r2, lsl #28
 510:	00000014 	andeq	r0, r0, r4, lsl r0
 514:	000004e4 	andeq	r0, r0, r4, ror #9
 518:	00009c38 	andeq	r9, r0, r8, lsr ip
 51c:	000000b0 	strheq	r0, [r0], -r0	; <UNPREDICTABLE>
 520:	84080e42 	strhi	r0, [r8], #-3650	; 0xe42
 524:	00018e02 	andeq	r8, r1, r2, lsl #28
 528:	00000014 	andeq	r0, r0, r4, lsl r0
 52c:	000004e4 	andeq	r0, r0, r4, ror #9
 530:	00009ce8 	andeq	r9, r0, r8, ror #25
 534:	00000018 	andeq	r0, r0, r8, lsl r0
 538:	84080e42 	strhi	r0, [r8], #-3650	; 0xe42
 53c:	00018e02 	andeq	r8, r1, r2, lsl #28
 540:	00000014 	andeq	r0, r0, r4, lsl r0
 544:	000004e4 	andeq	r0, r0, r4, ror #9
 548:	00009d00 	andeq	r9, r0, r0, lsl #26
 54c:	00000020 	andeq	r0, r0, r0, lsr #32
 550:	84080e42 	strhi	r0, [r8], #-3650	; 0xe42
 554:	00018e02 	andeq	r8, r1, r2, lsl #28
 558:	00000014 	andeq	r0, r0, r4, lsl r0
 55c:	000004e4 	andeq	r0, r0, r4, ror #9
 560:	00009d20 	andeq	r9, r0, r0, lsr #26
 564:	00000030 	andeq	r0, r0, r0, lsr r0
 568:	84080e42 	strhi	r0, [r8], #-3650	; 0xe42
 56c:	00018e02 	andeq	r8, r1, r2, lsl #28
 570:	00000014 	andeq	r0, r0, r4, lsl r0
 574:	000004e4 	andeq	r0, r0, r4, ror #9
 578:	00009d50 	andeq	r9, r0, r0, asr sp
 57c:	00000030 	andeq	r0, r0, r0, lsr r0
 580:	84080e42 	strhi	r0, [r8], #-3650	; 0xe42
 584:	00018e02 	andeq	r8, r1, r2, lsl #28
 588:	00000014 	andeq	r0, r0, r4, lsl r0
 58c:	000004e4 	andeq	r0, r0, r4, ror #9
 590:	00009d80 	andeq	r9, r0, r0, lsl #27
 594:	00000010 	andeq	r0, r0, r0, lsl r0
 598:	84080e42 	strhi	r0, [r8], #-3650	; 0xe42
 59c:	00018e02 	andeq	r8, r1, r2, lsl #28
 5a0:	0000000c 	andeq	r0, r0, ip
 5a4:	ffffffff 			; <UNDEFINED> instruction: 0xffffffff
 5a8:	7c020001 	stcvc	0, cr0, [r2], {1}
 5ac:	000d0c0e 	andeq	r0, sp, lr, lsl #24
 5b0:	00000018 	andeq	r0, r0, r8, lsl r0
 5b4:	000005a0 	andeq	r0, r0, r0, lsr #11
 5b8:	00009d90 	muleq	r0, r0, sp
 5bc:	00000068 	andeq	r0, r0, r8, rrx
 5c0:	84100e4a 	ldrhi	r0, [r0], #-3658	; 0xe4a
 5c4:	86038504 	strhi	r8, [r3], -r4, lsl #10
 5c8:	00018e02 	andeq	r8, r1, r2, lsl #28
 5cc:	00000014 	andeq	r0, r0, r4, lsl r0
 5d0:	000005a0 	andeq	r0, r0, r0, lsr #11
 5d4:	00009df8 	strdeq	r9, [r0], -r8
 5d8:	00000010 	andeq	r0, r0, r0, lsl r0
 5dc:	84080e42 	strhi	r0, [r8], #-3650	; 0xe42
 5e0:	00018e02 	andeq	r8, r1, r2, lsl #28
 5e4:	00000014 	andeq	r0, r0, r4, lsl r0
 5e8:	000005a0 	andeq	r0, r0, r0, lsr #11
 5ec:	00009e08 	andeq	r9, r0, r8, lsl #28
 5f0:	00000024 	andeq	r0, r0, r4, lsr #32
 5f4:	84080e46 	strhi	r0, [r8], #-3654	; 0xe46
 5f8:	00018e02 	andeq	r8, r1, r2, lsl #28
 5fc:	00000014 	andeq	r0, r0, r4, lsl r0
 600:	000005a0 	andeq	r0, r0, r0, lsr #11
 604:	00009e2c 	andeq	r9, r0, ip, lsr #28
 608:	00000024 	andeq	r0, r0, r4, lsr #32
 60c:	84080e46 	strhi	r0, [r8], #-3654	; 0xe46
 610:	00018e02 	andeq	r8, r1, r2, lsl #28
 614:	00000014 	andeq	r0, r0, r4, lsl r0
 618:	000005a0 	andeq	r0, r0, r0, lsr #11
 61c:	00009e50 	andeq	r9, r0, r0, asr lr
 620:	00000010 	andeq	r0, r0, r0, lsl r0
 624:	84080e42 	strhi	r0, [r8], #-3650	; 0xe42
 628:	00018e02 	andeq	r8, r1, r2, lsl #28
 62c:	00000014 	andeq	r0, r0, r4, lsl r0
 630:	000005a0 	andeq	r0, r0, r0, lsr #11
 634:	00009e60 	andeq	r9, r0, r0, ror #28
 638:	0000001c 	andeq	r0, r0, ip, lsl r0
 63c:	84080e42 	strhi	r0, [r8], #-3650	; 0xe42
 640:	00018e02 	andeq	r8, r1, r2, lsl #28
 644:	00000018 	andeq	r0, r0, r8, lsl r0
 648:	000005a0 	andeq	r0, r0, r0, lsr #11
 64c:	00009e7c 	andeq	r9, r0, ip, ror lr
 650:	00000034 	andeq	r0, r0, r4, lsr r0
 654:	84080e46 	strhi	r0, [r8], #-3654	; 0xe46
 658:	4e018e02 	cdpmi	14, 0, cr8, cr1, cr2, {0}
 65c:	cec4000e 	cdpgt	0, 12, cr0, cr4, cr14, {0}

Disassembly of section .debug_ranges:

00000000 <.debug_ranges>:
   0:	0000040c 	andeq	r0, r0, ip, lsl #8
   4:	00000410 	andeq	r0, r0, r0, lsl r4
   8:	00000440 	andeq	r0, r0, r0, asr #8
   c:	00000634 	andeq	r0, r0, r4, lsr r6
	...
  18:	000099dc 	ldrdeq	r9, [r0], -ip
  1c:	00009a50 	andeq	r9, r0, r0, asr sl
	...
