
scope.elf:     file format elf32-littlearm


Disassembly of section .text:

00008000 <_start>:
    8000:	e3a0d302 	mov	sp, #134217728	; 0x8000000
    8004:	e3a0b000 	mov	fp, #0
    8008:	eb00050d 	bl	9444 <_cstart>
    800c:	eb000524 	bl	94a4 <rpi_reboot>

00008010 <sw_uart_put8.constprop.4>:
    8010:	e92d0070 	push	{r4, r5, r6}
    8014:	ee1f3f3c 	mrc	15, 0, r3, cr15, cr12, {1}
    8018:	e59f1280 	ldr	r1, [pc, #640]	; 82a0 <sw_uart_put8.constprop.4+0x290>
    801c:	e3a04001 	mov	r4, #1
    8020:	e5915000 	ldr	r5, [r1]
    8024:	e59f6278 	ldr	r6, [pc, #632]	; 82a4 <sw_uart_put8.constprop.4+0x294>
    8028:	e1a04514 	lsl	r4, r4, r5
    802c:	e5962034 	ldr	r2, [r6, #52]	; 0x34
    8030:	e59fc26c 	ldr	ip, [pc, #620]	; 82a4 <sw_uart_put8.constprop.4+0x294>
    8034:	e0042002 	and	r2, r4, r2
    8038:	e1b02532 	lsrs	r2, r2, r5
    803c:	0afffffa 	beq	802c <sw_uart_put8.constprop.4+0x1c>
    8040:	e59c2028 	ldr	r2, [ip, #40]	; 0x28
    8044:	e591500c 	ldr	r5, [r1, #12]
    8048:	e1824004 	orr	r4, r2, r4
    804c:	e58c4028 	str	r4, [ip, #40]	; 0x28
    8050:	ee1f2f3c 	mrc	15, 0, r2, cr15, cr12, {1}
    8054:	e0632002 	rsb	r2, r3, r2
    8058:	e1520005 	cmp	r2, r5
    805c:	3afffffb 	bcc	8050 <sw_uart_put8.constprop.4+0x40>
    8060:	e59fc23c 	ldr	ip, [pc, #572]	; 82a4 <sw_uart_put8.constprop.4+0x294>
    8064:	e3100080 	tst	r0, #128	; 0x80
    8068:	e5912000 	ldr	r2, [r1]
    806c:	159c401c 	ldrne	r4, [ip, #28]
    8070:	059c4028 	ldreq	r4, [ip, #40]	; 0x28
    8074:	e3a05001 	mov	r5, #1
    8078:	11842215 	orrne	r2, r4, r5, lsl r2
    807c:	01842215 	orreq	r2, r4, r5, lsl r2
    8080:	158c201c 	strne	r2, [ip, #28]
    8084:	058c2028 	streq	r2, [ip, #40]	; 0x28
    8088:	e591c00c 	ldr	ip, [r1, #12]
    808c:	e1a0c08c 	lsl	ip, ip, #1
    8090:	ee1f2f3c 	mrc	15, 0, r2, cr15, cr12, {1}
    8094:	e0632002 	rsb	r2, r3, r2
    8098:	e152000c 	cmp	r2, ip
    809c:	3afffffb 	bcc	8090 <sw_uart_put8.constprop.4+0x80>
    80a0:	e59fc1fc 	ldr	ip, [pc, #508]	; 82a4 <sw_uart_put8.constprop.4+0x294>
    80a4:	e3100040 	tst	r0, #64	; 0x40
    80a8:	e5912000 	ldr	r2, [r1]
    80ac:	159c401c 	ldrne	r4, [ip, #28]
    80b0:	059c4028 	ldreq	r4, [ip, #40]	; 0x28
    80b4:	e3a05001 	mov	r5, #1
    80b8:	11842215 	orrne	r2, r4, r5, lsl r2
    80bc:	01842215 	orreq	r2, r4, r5, lsl r2
    80c0:	158c201c 	strne	r2, [ip, #28]
    80c4:	058c2028 	streq	r2, [ip, #40]	; 0x28
    80c8:	e591c00c 	ldr	ip, [r1, #12]
    80cc:	e08cc08c 	add	ip, ip, ip, lsl #1
    80d0:	ee1f2f3c 	mrc	15, 0, r2, cr15, cr12, {1}
    80d4:	e0632002 	rsb	r2, r3, r2
    80d8:	e152000c 	cmp	r2, ip
    80dc:	3afffffb 	bcc	80d0 <sw_uart_put8.constprop.4+0xc0>
    80e0:	e59fc1bc 	ldr	ip, [pc, #444]	; 82a4 <sw_uart_put8.constprop.4+0x294>
    80e4:	e3100020 	tst	r0, #32
    80e8:	e5912000 	ldr	r2, [r1]
    80ec:	159c401c 	ldrne	r4, [ip, #28]
    80f0:	059c4028 	ldreq	r4, [ip, #40]	; 0x28
    80f4:	e3a05001 	mov	r5, #1
    80f8:	11842215 	orrne	r2, r4, r5, lsl r2
    80fc:	01842215 	orreq	r2, r4, r5, lsl r2
    8100:	158c201c 	strne	r2, [ip, #28]
    8104:	058c2028 	streq	r2, [ip, #40]	; 0x28
    8108:	e591c00c 	ldr	ip, [r1, #12]
    810c:	e1a0c10c 	lsl	ip, ip, #2
    8110:	ee1f2f3c 	mrc	15, 0, r2, cr15, cr12, {1}
    8114:	e0632002 	rsb	r2, r3, r2
    8118:	e152000c 	cmp	r2, ip
    811c:	3afffffb 	bcc	8110 <sw_uart_put8.constprop.4+0x100>
    8120:	e59fc17c 	ldr	ip, [pc, #380]	; 82a4 <sw_uart_put8.constprop.4+0x294>
    8124:	e3100010 	tst	r0, #16
    8128:	e5912000 	ldr	r2, [r1]
    812c:	159c401c 	ldrne	r4, [ip, #28]
    8130:	059c4028 	ldreq	r4, [ip, #40]	; 0x28
    8134:	e3a05001 	mov	r5, #1
    8138:	11842215 	orrne	r2, r4, r5, lsl r2
    813c:	01842215 	orreq	r2, r4, r5, lsl r2
    8140:	158c201c 	strne	r2, [ip, #28]
    8144:	058c2028 	streq	r2, [ip, #40]	; 0x28
    8148:	e591c00c 	ldr	ip, [r1, #12]
    814c:	e08cc10c 	add	ip, ip, ip, lsl #2
    8150:	ee1f2f3c 	mrc	15, 0, r2, cr15, cr12, {1}
    8154:	e0632002 	rsb	r2, r3, r2
    8158:	e152000c 	cmp	r2, ip
    815c:	3afffffb 	bcc	8150 <sw_uart_put8.constprop.4+0x140>
    8160:	e59fc13c 	ldr	ip, [pc, #316]	; 82a4 <sw_uart_put8.constprop.4+0x294>
    8164:	e3100008 	tst	r0, #8
    8168:	e5912000 	ldr	r2, [r1]
    816c:	159c401c 	ldrne	r4, [ip, #28]
    8170:	059c4028 	ldreq	r4, [ip, #40]	; 0x28
    8174:	e3a05001 	mov	r5, #1
    8178:	11842215 	orrne	r2, r4, r5, lsl r2
    817c:	01842215 	orreq	r2, r4, r5, lsl r2
    8180:	158c201c 	strne	r2, [ip, #28]
    8184:	058c2028 	streq	r2, [ip, #40]	; 0x28
    8188:	e591c00c 	ldr	ip, [r1, #12]
    818c:	e08cc08c 	add	ip, ip, ip, lsl #1
    8190:	e1a0c08c 	lsl	ip, ip, #1
    8194:	ee1f2f3c 	mrc	15, 0, r2, cr15, cr12, {1}
    8198:	e0632002 	rsb	r2, r3, r2
    819c:	e152000c 	cmp	r2, ip
    81a0:	3afffffb 	bcc	8194 <sw_uart_put8.constprop.4+0x184>
    81a4:	e59fc0f8 	ldr	ip, [pc, #248]	; 82a4 <sw_uart_put8.constprop.4+0x294>
    81a8:	e3100004 	tst	r0, #4
    81ac:	e5912000 	ldr	r2, [r1]
    81b0:	159c401c 	ldrne	r4, [ip, #28]
    81b4:	059c4028 	ldreq	r4, [ip, #40]	; 0x28
    81b8:	e3a05001 	mov	r5, #1
    81bc:	11842215 	orrne	r2, r4, r5, lsl r2
    81c0:	01842215 	orreq	r2, r4, r5, lsl r2
    81c4:	158c201c 	strne	r2, [ip, #28]
    81c8:	058c2028 	streq	r2, [ip, #40]	; 0x28
    81cc:	e591c00c 	ldr	ip, [r1, #12]
    81d0:	e06cc18c 	rsb	ip, ip, ip, lsl #3
    81d4:	ee1f2f3c 	mrc	15, 0, r2, cr15, cr12, {1}
    81d8:	e0632002 	rsb	r2, r3, r2
    81dc:	e152000c 	cmp	r2, ip
    81e0:	3afffffb 	bcc	81d4 <sw_uart_put8.constprop.4+0x1c4>
    81e4:	e59fc0b8 	ldr	ip, [pc, #184]	; 82a4 <sw_uart_put8.constprop.4+0x294>
    81e8:	e3100002 	tst	r0, #2
    81ec:	e5912000 	ldr	r2, [r1]
    81f0:	159c401c 	ldrne	r4, [ip, #28]
    81f4:	059c4028 	ldreq	r4, [ip, #40]	; 0x28
    81f8:	e3a05001 	mov	r5, #1
    81fc:	11842215 	orrne	r2, r4, r5, lsl r2
    8200:	01842215 	orreq	r2, r4, r5, lsl r2
    8204:	158c201c 	strne	r2, [ip, #28]
    8208:	058c2028 	streq	r2, [ip, #40]	; 0x28
    820c:	e591c00c 	ldr	ip, [r1, #12]
    8210:	e1a0c18c 	lsl	ip, ip, #3
    8214:	ee1f2f3c 	mrc	15, 0, r2, cr15, cr12, {1}
    8218:	e0632002 	rsb	r2, r3, r2
    821c:	e152000c 	cmp	r2, ip
    8220:	3afffffb 	bcc	8214 <sw_uart_put8.constprop.4+0x204>
    8224:	e3100001 	tst	r0, #1
    8228:	e59f0074 	ldr	r0, [pc, #116]	; 82a4 <sw_uart_put8.constprop.4+0x294>
    822c:	e5912000 	ldr	r2, [r1]
    8230:	1590c01c 	ldrne	ip, [r0, #28]
    8234:	0590c028 	ldreq	ip, [r0, #40]	; 0x28
    8238:	e3a04001 	mov	r4, #1
    823c:	118c2214 	orrne	r2, ip, r4, lsl r2
    8240:	018c2214 	orreq	r2, ip, r4, lsl r2
    8244:	1580201c 	strne	r2, [r0, #28]
    8248:	05802028 	streq	r2, [r0, #40]	; 0x28
    824c:	e591000c 	ldr	r0, [r1, #12]
    8250:	e0800180 	add	r0, r0, r0, lsl #3
    8254:	ee1f2f3c 	mrc	15, 0, r2, cr15, cr12, {1}
    8258:	e0632002 	rsb	r2, r3, r2
    825c:	e1520000 	cmp	r2, r0
    8260:	3afffffb 	bcc	8254 <sw_uart_put8.constprop.4+0x244>
    8264:	e59f2038 	ldr	r2, [pc, #56]	; 82a4 <sw_uart_put8.constprop.4+0x294>
    8268:	e5910000 	ldr	r0, [r1]
    826c:	e592c01c 	ldr	ip, [r2, #28]
    8270:	e591100c 	ldr	r1, [r1, #12]
    8274:	e3a04001 	mov	r4, #1
    8278:	e18c0014 	orr	r0, ip, r4, lsl r0
    827c:	e0811101 	add	r1, r1, r1, lsl #2
    8280:	e1a01411 	lsl	r1, r1, r4
    8284:	e582001c 	str	r0, [r2, #28]
    8288:	ee1f2f3c 	mrc	15, 0, r2, cr15, cr12, {1}
    828c:	e0632002 	rsb	r2, r3, r2
    8290:	e1520001 	cmp	r2, r1
    8294:	3afffffb 	bcc	8288 <sw_uart_put8.constprop.4+0x278>
    8298:	e8bd0070 	pop	{r4, r5, r6}
    829c:	e12fff1e 	bx	lr
    82a0:	00009ed0 	ldrdeq	r9, [r0], -r0
    82a4:	20200000 	eorcs	r0, r0, r0

000082a8 <cycles_per_sec>:
    82a8:	e3500001 	cmp	r0, #1
    82ac:	e92d4010 	push	{r4, lr}
    82b0:	8a000006 	bhi	82d0 <cycles_per_sec+0x28>
    82b4:	ee1f4f3c 	mrc	15, 0, r4, cr15, cr12, {1}
    82b8:	e3a03ffa 	mov	r3, #1000	; 0x3e8
    82bc:	e0000093 	mul	r0, r3, r0
    82c0:	eb0004a1 	bl	954c <delay_ms>
    82c4:	ee1f0f3c 	mrc	15, 0, r0, cr15, cr12, {1}
    82c8:	e0640000 	rsb	r0, r4, r0
    82cc:	e8bd8010 	pop	{r4, pc}
    82d0:	eb0002f4 	bl	8ea8 <rpi_reset_putc>
    82d4:	e59f1010 	ldr	r1, [pc, #16]	; 82ec <cycles_per_sec+0x44>
    82d8:	e59f2010 	ldr	r2, [pc, #16]	; 82f0 <cycles_per_sec+0x48>
    82dc:	e3a03040 	mov	r3, #64	; 0x40
    82e0:	e59f000c 	ldr	r0, [pc, #12]	; 82f4 <cycles_per_sec+0x4c>
    82e4:	eb0002d4 	bl	8e3c <printk>
    82e8:	eb00044b 	bl	941c <clean_reboot>
    82ec:	00009da8 	andeq	r9, r0, r8, lsr #27
    82f0:	00009d68 	andeq	r9, r0, r8, ror #26
    82f4:	00009d78 	andeq	r9, r0, r8, ror sp

000082f8 <sw_uart_get8>:
    82f8:	e5901004 	ldr	r1, [r0, #4]
    82fc:	e3a0c001 	mov	ip, #1
    8300:	e1a0c11c 	lsl	ip, ip, r1
    8304:	e92d00f0 	push	{r4, r5, r6, r7}
    8308:	e590400c 	ldr	r4, [r0, #12]
    830c:	e59f21a4 	ldr	r2, [pc, #420]	; 84b8 <sw_uart_get8+0x1c0>
    8310:	e1a050a4 	lsr	r5, r4, #1
    8314:	e5923034 	ldr	r3, [r2, #52]	; 0x34
    8318:	e00c3003 	and	r3, ip, r3
    831c:	e1b03133 	lsrs	r3, r3, r1
    8320:	1afffffb 	bne	8314 <sw_uart_get8+0x1c>
    8324:	ee1f3f3c 	mrc	15, 0, r3, cr15, cr12, {1}
    8328:	ee1f2f3c 	mrc	15, 0, r2, cr15, cr12, {1}
    832c:	e0632002 	rsb	r2, r3, r2
    8330:	e1550002 	cmp	r5, r2
    8334:	8afffffb 	bhi	8328 <sw_uart_get8+0x30>
    8338:	e0855004 	add	r5, r5, r4
    833c:	ee1f2f3c 	mrc	15, 0, r2, cr15, cr12, {1}
    8340:	e0632002 	rsb	r2, r3, r2
    8344:	e1520005 	cmp	r2, r5
    8348:	3afffffb 	bcc	833c <sw_uart_get8+0x44>
    834c:	e59f2164 	ldr	r2, [pc, #356]	; 84b8 <sw_uart_get8+0x1c0>
    8350:	e0855004 	add	r5, r5, r4
    8354:	e5927034 	ldr	r7, [r2, #52]	; 0x34
    8358:	e007700c 	and	r7, r7, ip
    835c:	e1a07137 	lsr	r7, r7, r1
    8360:	e2077001 	and	r7, r7, #1
    8364:	ee1f2f3c 	mrc	15, 0, r2, cr15, cr12, {1}
    8368:	e0632002 	rsb	r2, r3, r2
    836c:	e1520005 	cmp	r2, r5
    8370:	3afffffb 	bcc	8364 <sw_uart_get8+0x6c>
    8374:	e59f213c 	ldr	r2, [pc, #316]	; 84b8 <sw_uart_get8+0x1c0>
    8378:	e0855004 	add	r5, r5, r4
    837c:	e5920034 	ldr	r0, [r2, #52]	; 0x34
    8380:	e000000c 	and	r0, r0, ip
    8384:	e1a00130 	lsr	r0, r0, r1
    8388:	e2000001 	and	r0, r0, #1
    838c:	e1a00080 	lsl	r0, r0, #1
    8390:	ee1f2f3c 	mrc	15, 0, r2, cr15, cr12, {1}
    8394:	e0632002 	rsb	r2, r3, r2
    8398:	e1520005 	cmp	r2, r5
    839c:	3afffffb 	bcc	8390 <sw_uart_get8+0x98>
    83a0:	e59f2110 	ldr	r2, [pc, #272]	; 84b8 <sw_uart_get8+0x1c0>
    83a4:	e0855004 	add	r5, r5, r4
    83a8:	e5926034 	ldr	r6, [r2, #52]	; 0x34
    83ac:	e006600c 	and	r6, r6, ip
    83b0:	e1a06136 	lsr	r6, r6, r1
    83b4:	e2066001 	and	r6, r6, #1
    83b8:	e1806106 	orr	r6, r0, r6, lsl #2
    83bc:	e1866007 	orr	r6, r6, r7
    83c0:	ee1f2f3c 	mrc	15, 0, r2, cr15, cr12, {1}
    83c4:	e0632002 	rsb	r2, r3, r2
    83c8:	e1520005 	cmp	r2, r5
    83cc:	3afffffb 	bcc	83c0 <sw_uart_get8+0xc8>
    83d0:	e59f20e0 	ldr	r2, [pc, #224]	; 84b8 <sw_uart_get8+0x1c0>
    83d4:	e0855004 	add	r5, r5, r4
    83d8:	e5920034 	ldr	r0, [r2, #52]	; 0x34
    83dc:	e000000c 	and	r0, r0, ip
    83e0:	e1a00130 	lsr	r0, r0, r1
    83e4:	e2000001 	and	r0, r0, #1
    83e8:	e1860180 	orr	r0, r6, r0, lsl #3
    83ec:	ee1f2f3c 	mrc	15, 0, r2, cr15, cr12, {1}
    83f0:	e0632002 	rsb	r2, r3, r2
    83f4:	e1520005 	cmp	r2, r5
    83f8:	3afffffb 	bcc	83ec <sw_uart_get8+0xf4>
    83fc:	e59f20b4 	ldr	r2, [pc, #180]	; 84b8 <sw_uart_get8+0x1c0>
    8400:	e0855004 	add	r5, r5, r4
    8404:	e5927034 	ldr	r7, [r2, #52]	; 0x34
    8408:	e007700c 	and	r7, r7, ip
    840c:	e1a07137 	lsr	r7, r7, r1
    8410:	e2077001 	and	r7, r7, #1
    8414:	e1807207 	orr	r7, r0, r7, lsl #4
    8418:	ee1f2f3c 	mrc	15, 0, r2, cr15, cr12, {1}
    841c:	e0632002 	rsb	r2, r3, r2
    8420:	e1520005 	cmp	r2, r5
    8424:	3afffffb 	bcc	8418 <sw_uart_get8+0x120>
    8428:	e59f2088 	ldr	r2, [pc, #136]	; 84b8 <sw_uart_get8+0x1c0>
    842c:	e0855004 	add	r5, r5, r4
    8430:	e5926034 	ldr	r6, [r2, #52]	; 0x34
    8434:	e006600c 	and	r6, r6, ip
    8438:	e1a06136 	lsr	r6, r6, r1
    843c:	e2066001 	and	r6, r6, #1
    8440:	e1876286 	orr	r6, r7, r6, lsl #5
    8444:	ee1f2f3c 	mrc	15, 0, r2, cr15, cr12, {1}
    8448:	e0632002 	rsb	r2, r3, r2
    844c:	e1520005 	cmp	r2, r5
    8450:	3afffffb 	bcc	8444 <sw_uart_get8+0x14c>
    8454:	e59f205c 	ldr	r2, [pc, #92]	; 84b8 <sw_uart_get8+0x1c0>
    8458:	e0855004 	add	r5, r5, r4
    845c:	e5920034 	ldr	r0, [r2, #52]	; 0x34
    8460:	e000000c 	and	r0, r0, ip
    8464:	e1a00130 	lsr	r0, r0, r1
    8468:	e2000001 	and	r0, r0, #1
    846c:	e1860300 	orr	r0, r6, r0, lsl #6
    8470:	ee1f2f3c 	mrc	15, 0, r2, cr15, cr12, {1}
    8474:	e0632002 	rsb	r2, r3, r2
    8478:	e1520005 	cmp	r2, r5
    847c:	3afffffb 	bcc	8470 <sw_uart_get8+0x178>
    8480:	e59f2030 	ldr	r2, [pc, #48]	; 84b8 <sw_uart_get8+0x1c0>
    8484:	e0854004 	add	r4, r5, r4
    8488:	e5922034 	ldr	r2, [r2, #52]	; 0x34
    848c:	e002c00c 	and	ip, r2, ip
    8490:	e1a0113c 	lsr	r1, ip, r1
    8494:	e1a01381 	lsl	r1, r1, #7
    8498:	e6ef1071 	uxtb	r1, r1
    849c:	e1800001 	orr	r0, r0, r1
    84a0:	ee1f2f3c 	mrc	15, 0, r2, cr15, cr12, {1}
    84a4:	e0632002 	rsb	r2, r3, r2
    84a8:	e1520004 	cmp	r2, r4
    84ac:	3afffffb 	bcc	84a0 <sw_uart_get8+0x1a8>
    84b0:	e8bd00f0 	pop	{r4, r5, r6, r7}
    84b4:	e12fff1e 	bx	lr
    84b8:	20200000 	eorcs	r0, r0, r0

000084bc <sw_uart_put8>:
    84bc:	e92d0070 	push	{r4, r5, r6}
    84c0:	ee1f3f3c 	mrc	15, 0, r3, cr15, cr12, {1}
    84c4:	e5905000 	ldr	r5, [r0]
    84c8:	e3a04001 	mov	r4, #1
    84cc:	e1a04514 	lsl	r4, r4, r5
    84d0:	e59f6270 	ldr	r6, [pc, #624]	; 8748 <sw_uart_put8+0x28c>
    84d4:	e5962034 	ldr	r2, [r6, #52]	; 0x34
    84d8:	e59fc268 	ldr	ip, [pc, #616]	; 8748 <sw_uart_put8+0x28c>
    84dc:	e0042002 	and	r2, r4, r2
    84e0:	e1b02532 	lsrs	r2, r2, r5
    84e4:	0afffffa 	beq	84d4 <sw_uart_put8+0x18>
    84e8:	e59c2028 	ldr	r2, [ip, #40]	; 0x28
    84ec:	e1824004 	orr	r4, r2, r4
    84f0:	e58c4028 	str	r4, [ip, #40]	; 0x28
    84f4:	e590c00c 	ldr	ip, [r0, #12]
    84f8:	ee1f2f3c 	mrc	15, 0, r2, cr15, cr12, {1}
    84fc:	e0632002 	rsb	r2, r3, r2
    8500:	e152000c 	cmp	r2, ip
    8504:	3afffffb 	bcc	84f8 <sw_uart_put8+0x3c>
    8508:	e59fc238 	ldr	ip, [pc, #568]	; 8748 <sw_uart_put8+0x28c>
    850c:	e3110080 	tst	r1, #128	; 0x80
    8510:	e5902000 	ldr	r2, [r0]
    8514:	159c401c 	ldrne	r4, [ip, #28]
    8518:	059c4028 	ldreq	r4, [ip, #40]	; 0x28
    851c:	e3a05001 	mov	r5, #1
    8520:	11842215 	orrne	r2, r4, r5, lsl r2
    8524:	01842215 	orreq	r2, r4, r5, lsl r2
    8528:	158c201c 	strne	r2, [ip, #28]
    852c:	058c2028 	streq	r2, [ip, #40]	; 0x28
    8530:	e590c00c 	ldr	ip, [r0, #12]
    8534:	e1a0c08c 	lsl	ip, ip, #1
    8538:	ee1f2f3c 	mrc	15, 0, r2, cr15, cr12, {1}
    853c:	e0632002 	rsb	r2, r3, r2
    8540:	e152000c 	cmp	r2, ip
    8544:	3afffffb 	bcc	8538 <sw_uart_put8+0x7c>
    8548:	e59fc1f8 	ldr	ip, [pc, #504]	; 8748 <sw_uart_put8+0x28c>
    854c:	e3110040 	tst	r1, #64	; 0x40
    8550:	e5902000 	ldr	r2, [r0]
    8554:	159c401c 	ldrne	r4, [ip, #28]
    8558:	059c4028 	ldreq	r4, [ip, #40]	; 0x28
    855c:	e3a05001 	mov	r5, #1
    8560:	11842215 	orrne	r2, r4, r5, lsl r2
    8564:	01842215 	orreq	r2, r4, r5, lsl r2
    8568:	158c201c 	strne	r2, [ip, #28]
    856c:	058c2028 	streq	r2, [ip, #40]	; 0x28
    8570:	e590c00c 	ldr	ip, [r0, #12]
    8574:	e08cc08c 	add	ip, ip, ip, lsl #1
    8578:	ee1f2f3c 	mrc	15, 0, r2, cr15, cr12, {1}
    857c:	e0632002 	rsb	r2, r3, r2
    8580:	e152000c 	cmp	r2, ip
    8584:	3afffffb 	bcc	8578 <sw_uart_put8+0xbc>
    8588:	e59fc1b8 	ldr	ip, [pc, #440]	; 8748 <sw_uart_put8+0x28c>
    858c:	e3110020 	tst	r1, #32
    8590:	e5902000 	ldr	r2, [r0]
    8594:	159c401c 	ldrne	r4, [ip, #28]
    8598:	059c4028 	ldreq	r4, [ip, #40]	; 0x28
    859c:	e3a05001 	mov	r5, #1
    85a0:	11842215 	orrne	r2, r4, r5, lsl r2
    85a4:	01842215 	orreq	r2, r4, r5, lsl r2
    85a8:	158c201c 	strne	r2, [ip, #28]
    85ac:	058c2028 	streq	r2, [ip, #40]	; 0x28
    85b0:	e590c00c 	ldr	ip, [r0, #12]
    85b4:	e1a0c10c 	lsl	ip, ip, #2
    85b8:	ee1f2f3c 	mrc	15, 0, r2, cr15, cr12, {1}
    85bc:	e0632002 	rsb	r2, r3, r2
    85c0:	e152000c 	cmp	r2, ip
    85c4:	3afffffb 	bcc	85b8 <sw_uart_put8+0xfc>
    85c8:	e59fc178 	ldr	ip, [pc, #376]	; 8748 <sw_uart_put8+0x28c>
    85cc:	e3110010 	tst	r1, #16
    85d0:	e5902000 	ldr	r2, [r0]
    85d4:	159c401c 	ldrne	r4, [ip, #28]
    85d8:	059c4028 	ldreq	r4, [ip, #40]	; 0x28
    85dc:	e3a05001 	mov	r5, #1
    85e0:	11842215 	orrne	r2, r4, r5, lsl r2
    85e4:	01842215 	orreq	r2, r4, r5, lsl r2
    85e8:	158c201c 	strne	r2, [ip, #28]
    85ec:	058c2028 	streq	r2, [ip, #40]	; 0x28
    85f0:	e590c00c 	ldr	ip, [r0, #12]
    85f4:	e08cc10c 	add	ip, ip, ip, lsl #2
    85f8:	ee1f2f3c 	mrc	15, 0, r2, cr15, cr12, {1}
    85fc:	e0632002 	rsb	r2, r3, r2
    8600:	e152000c 	cmp	r2, ip
    8604:	3afffffb 	bcc	85f8 <sw_uart_put8+0x13c>
    8608:	e59fc138 	ldr	ip, [pc, #312]	; 8748 <sw_uart_put8+0x28c>
    860c:	e3110008 	tst	r1, #8
    8610:	e5902000 	ldr	r2, [r0]
    8614:	159c401c 	ldrne	r4, [ip, #28]
    8618:	059c4028 	ldreq	r4, [ip, #40]	; 0x28
    861c:	e3a05001 	mov	r5, #1
    8620:	11842215 	orrne	r2, r4, r5, lsl r2
    8624:	01842215 	orreq	r2, r4, r5, lsl r2
    8628:	158c201c 	strne	r2, [ip, #28]
    862c:	058c2028 	streq	r2, [ip, #40]	; 0x28
    8630:	e590c00c 	ldr	ip, [r0, #12]
    8634:	e08cc08c 	add	ip, ip, ip, lsl #1
    8638:	e1a0c08c 	lsl	ip, ip, #1
    863c:	ee1f2f3c 	mrc	15, 0, r2, cr15, cr12, {1}
    8640:	e0632002 	rsb	r2, r3, r2
    8644:	e152000c 	cmp	r2, ip
    8648:	3afffffb 	bcc	863c <sw_uart_put8+0x180>
    864c:	e59fc0f4 	ldr	ip, [pc, #244]	; 8748 <sw_uart_put8+0x28c>
    8650:	e3110004 	tst	r1, #4
    8654:	e5902000 	ldr	r2, [r0]
    8658:	159c401c 	ldrne	r4, [ip, #28]
    865c:	059c4028 	ldreq	r4, [ip, #40]	; 0x28
    8660:	e3a05001 	mov	r5, #1
    8664:	11842215 	orrne	r2, r4, r5, lsl r2
    8668:	01842215 	orreq	r2, r4, r5, lsl r2
    866c:	158c201c 	strne	r2, [ip, #28]
    8670:	058c2028 	streq	r2, [ip, #40]	; 0x28
    8674:	e590c00c 	ldr	ip, [r0, #12]
    8678:	e06cc18c 	rsb	ip, ip, ip, lsl #3
    867c:	ee1f2f3c 	mrc	15, 0, r2, cr15, cr12, {1}
    8680:	e0632002 	rsb	r2, r3, r2
    8684:	e152000c 	cmp	r2, ip
    8688:	3afffffb 	bcc	867c <sw_uart_put8+0x1c0>
    868c:	e59fc0b4 	ldr	ip, [pc, #180]	; 8748 <sw_uart_put8+0x28c>
    8690:	e3110002 	tst	r1, #2
    8694:	e5902000 	ldr	r2, [r0]
    8698:	159c401c 	ldrne	r4, [ip, #28]
    869c:	059c4028 	ldreq	r4, [ip, #40]	; 0x28
    86a0:	e3a05001 	mov	r5, #1
    86a4:	11842215 	orrne	r2, r4, r5, lsl r2
    86a8:	01842215 	orreq	r2, r4, r5, lsl r2
    86ac:	158c201c 	strne	r2, [ip, #28]
    86b0:	058c2028 	streq	r2, [ip, #40]	; 0x28
    86b4:	e590c00c 	ldr	ip, [r0, #12]
    86b8:	e1a0c18c 	lsl	ip, ip, #3
    86bc:	ee1f2f3c 	mrc	15, 0, r2, cr15, cr12, {1}
    86c0:	e0632002 	rsb	r2, r3, r2
    86c4:	e152000c 	cmp	r2, ip
    86c8:	3afffffb 	bcc	86bc <sw_uart_put8+0x200>
    86cc:	e3110001 	tst	r1, #1
    86d0:	e59f1070 	ldr	r1, [pc, #112]	; 8748 <sw_uart_put8+0x28c>
    86d4:	e5902000 	ldr	r2, [r0]
    86d8:	1591c01c 	ldrne	ip, [r1, #28]
    86dc:	0591c028 	ldreq	ip, [r1, #40]	; 0x28
    86e0:	e3a04001 	mov	r4, #1
    86e4:	118c2214 	orrne	r2, ip, r4, lsl r2
    86e8:	018c2214 	orreq	r2, ip, r4, lsl r2
    86ec:	1581201c 	strne	r2, [r1, #28]
    86f0:	05812028 	streq	r2, [r1, #40]	; 0x28
    86f4:	e590100c 	ldr	r1, [r0, #12]
    86f8:	e0811181 	add	r1, r1, r1, lsl #3
    86fc:	ee1f2f3c 	mrc	15, 0, r2, cr15, cr12, {1}
    8700:	e0632002 	rsb	r2, r3, r2
    8704:	e1520001 	cmp	r2, r1
    8708:	3afffffb 	bcc	86fc <sw_uart_put8+0x240>
    870c:	e59f2034 	ldr	r2, [pc, #52]	; 8748 <sw_uart_put8+0x28c>
    8710:	e5901000 	ldr	r1, [r0]
    8714:	e592c01c 	ldr	ip, [r2, #28]
    8718:	e3a04001 	mov	r4, #1
    871c:	e18c1114 	orr	r1, ip, r4, lsl r1
    8720:	e582101c 	str	r1, [r2, #28]
    8724:	e590100c 	ldr	r1, [r0, #12]
    8728:	e0811101 	add	r1, r1, r1, lsl #2
    872c:	e1a01411 	lsl	r1, r1, r4
    8730:	ee1f2f3c 	mrc	15, 0, r2, cr15, cr12, {1}
    8734:	e0632002 	rsb	r2, r3, r2
    8738:	e1520001 	cmp	r2, r1
    873c:	3afffffb 	bcc	8730 <sw_uart_put8+0x274>
    8740:	e8bd0070 	pop	{r4, r5, r6}
    8744:	e12fff1e 	bx	lr
    8748:	20200000 	eorcs	r0, r0, r0

0000874c <notmain>:
    874c:	e92d4ff0 	push	{r4, r5, r6, r7, r8, r9, sl, fp, lr}
    8750:	e3a03015 	mov	r3, #21
    8754:	e59f26cc 	ldr	r2, [pc, #1740]	; 8e28 <notmain+0x6dc>
    8758:	e59f96cc 	ldr	r9, [pc, #1740]	; 8e2c <notmain+0x6e0>
    875c:	e3a01ae1 	mov	r1, #921600	; 0xe1000
    8760:	e1a00003 	mov	r0, r3
    8764:	e24dd024 	sub	sp, sp, #36	; 0x24
    8768:	e3a04014 	mov	r4, #20
    876c:	e8890018 	stm	r9, {r3, r4}
    8770:	e5891008 	str	r1, [r9, #8]
    8774:	e589200c 	str	r2, [r9, #12]
    8778:	eb00037d 	bl	9574 <gpio_set_output>
    877c:	e1a00004 	mov	r0, r4
    8780:	eb0003cc 	bl	96b8 <gpio_set_input>
    8784:	eb00031c 	bl	93fc <enable_cache>
    8788:	e3a03001 	mov	r3, #1
    878c:	ee0f3f1c 	mcr	15, 0, r3, cr15, cr12, {0}
    8790:	e59f0698 	ldr	r0, [pc, #1688]	; 8e30 <notmain+0x6e4>
    8794:	eb0001a8 	bl	8e3c <printk>
    8798:	e59f3694 	ldr	r3, [pc, #1684]	; 8e34 <notmain+0x6e8>
    879c:	e59fa694 	ldr	sl, [pc, #1684]	; 8e38 <notmain+0x6ec>
    87a0:	e593201c 	ldr	r2, [r3, #28]
    87a4:	e58da014 	str	sl, [sp, #20]
    87a8:	e3822602 	orr	r2, r2, #2097152	; 0x200000
    87ac:	e1a04003 	mov	r4, r3
    87b0:	e583201c 	str	r2, [r3, #28]
    87b4:	e59fb670 	ldr	fp, [pc, #1648]	; 8e2c <notmain+0x6e0>
    87b8:	e3a0c001 	mov	ip, #1
    87bc:	e59b2004 	ldr	r2, [fp, #4]
    87c0:	e59ba00c 	ldr	sl, [fp, #12]
    87c4:	e1a0121c 	lsl	r1, ip, r2
    87c8:	e1a07c3a 	lsr	r7, sl, ip
    87cc:	e5943034 	ldr	r3, [r4, #52]	; 0x34
    87d0:	e0013003 	and	r3, r1, r3
    87d4:	e1b03233 	lsrs	r3, r3, r2
    87d8:	1afffffb 	bne	87cc <notmain+0x80>
    87dc:	ee1f3f3c 	mrc	15, 0, r3, cr15, cr12, {1}
    87e0:	ee1f0f3c 	mrc	15, 0, r0, cr15, cr12, {1}
    87e4:	e0630000 	rsb	r0, r3, r0
    87e8:	e1570000 	cmp	r7, r0
    87ec:	8afffffb 	bhi	87e0 <notmain+0x94>
    87f0:	e087800a 	add	r8, r7, sl
    87f4:	ee1f0f3c 	mrc	15, 0, r0, cr15, cr12, {1}
    87f8:	e0630000 	rsb	r0, r3, r0
    87fc:	e1500008 	cmp	r0, r8
    8800:	3afffffb 	bcc	87f4 <notmain+0xa8>
    8804:	e5940034 	ldr	r0, [r4, #52]	; 0x34
    8808:	e088600a 	add	r6, r8, sl
    880c:	e0000001 	and	r0, r0, r1
    8810:	e1a00230 	lsr	r0, r0, r2
    8814:	e2000001 	and	r0, r0, #1
    8818:	ee1fcf3c 	mrc	15, 0, ip, cr15, cr12, {1}
    881c:	e063c00c 	rsb	ip, r3, ip
    8820:	e15c0006 	cmp	ip, r6
    8824:	3afffffb 	bcc	8818 <notmain+0xcc>
    8828:	e594b034 	ldr	fp, [r4, #52]	; 0x34
    882c:	e086500a 	add	r5, r6, sl
    8830:	e00bb001 	and	fp, fp, r1
    8834:	e1a0b23b 	lsr	fp, fp, r2
    8838:	e20bb001 	and	fp, fp, #1
    883c:	e1a0b08b 	lsl	fp, fp, #1
    8840:	ee1fcf3c 	mrc	15, 0, ip, cr15, cr12, {1}
    8844:	e063c00c 	rsb	ip, r3, ip
    8848:	e15c0005 	cmp	ip, r5
    884c:	3afffffb 	bcc	8840 <notmain+0xf4>
    8850:	e5949034 	ldr	r9, [r4, #52]	; 0x34
    8854:	e085e00a 	add	lr, r5, sl
    8858:	e0099001 	and	r9, r9, r1
    885c:	e1a09239 	lsr	r9, r9, r2
    8860:	e2099001 	and	r9, r9, #1
    8864:	e18bb109 	orr	fp, fp, r9, lsl #2
    8868:	e18b9000 	orr	r9, fp, r0
    886c:	ee1f0f3c 	mrc	15, 0, r0, cr15, cr12, {1}
    8870:	e0630000 	rsb	r0, r3, r0
    8874:	e150000e 	cmp	r0, lr
    8878:	3afffffb 	bcc	886c <notmain+0x120>
    887c:	e594b034 	ldr	fp, [r4, #52]	; 0x34
    8880:	e08ec00a 	add	ip, lr, sl
    8884:	e00bb001 	and	fp, fp, r1
    8888:	e1a0b23b 	lsr	fp, fp, r2
    888c:	e20bb001 	and	fp, fp, #1
    8890:	e189b18b 	orr	fp, r9, fp, lsl #3
    8894:	ee1f0f3c 	mrc	15, 0, r0, cr15, cr12, {1}
    8898:	e0630000 	rsb	r0, r3, r0
    889c:	e150000c 	cmp	r0, ip
    88a0:	3afffffb 	bcc	8894 <notmain+0x148>
    88a4:	e5940034 	ldr	r0, [r4, #52]	; 0x34
    88a8:	e08c900a 	add	r9, ip, sl
    88ac:	e0000001 	and	r0, r0, r1
    88b0:	e1a00230 	lsr	r0, r0, r2
    88b4:	e2000001 	and	r0, r0, #1
    88b8:	e18b0200 	orr	r0, fp, r0, lsl #4
    88bc:	e58d9008 	str	r9, [sp, #8]
    88c0:	e1a0b009 	mov	fp, r9
    88c4:	ee1f9f3c 	mrc	15, 0, r9, cr15, cr12, {1}
    88c8:	e0639009 	rsb	r9, r3, r9
    88cc:	e159000b 	cmp	r9, fp
    88d0:	3afffffb 	bcc	88c4 <notmain+0x178>
    88d4:	e5949034 	ldr	r9, [r4, #52]	; 0x34
    88d8:	e59db008 	ldr	fp, [sp, #8]
    88dc:	e0099001 	and	r9, r9, r1
    88e0:	e1a09239 	lsr	r9, r9, r2
    88e4:	e08bb00a 	add	fp, fp, sl
    88e8:	e2099001 	and	r9, r9, #1
    88ec:	e58db004 	str	fp, [sp, #4]
    88f0:	e1809289 	orr	r9, r0, r9, lsl #5
    88f4:	ee1f0f3c 	mrc	15, 0, r0, cr15, cr12, {1}
    88f8:	e0630000 	rsb	r0, r3, r0
    88fc:	e15b0000 	cmp	fp, r0
    8900:	8afffffb 	bhi	88f4 <notmain+0x1a8>
    8904:	e5940034 	ldr	r0, [r4, #52]	; 0x34
    8908:	e59db004 	ldr	fp, [sp, #4]
    890c:	e58d000c 	str	r0, [sp, #12]
    8910:	e08b000a 	add	r0, fp, sl
    8914:	e59db00c 	ldr	fp, [sp, #12]
    8918:	e00bb001 	and	fp, fp, r1
    891c:	e1a0b23b 	lsr	fp, fp, r2
    8920:	e20bb001 	and	fp, fp, #1
    8924:	e189930b 	orr	r9, r9, fp, lsl #6
    8928:	e58d9010 	str	r9, [sp, #16]
    892c:	e1a0b009 	mov	fp, r9
    8930:	ee1f9f3c 	mrc	15, 0, r9, cr15, cr12, {1}
    8934:	e0639009 	rsb	r9, r3, r9
    8938:	e1590000 	cmp	r9, r0
    893c:	3afffffb 	bcc	8930 <notmain+0x1e4>
    8940:	e5949034 	ldr	r9, [r4, #52]	; 0x34
    8944:	e080a00a 	add	sl, r0, sl
    8948:	e0099001 	and	r9, r9, r1
    894c:	e1a09239 	lsr	r9, r9, r2
    8950:	e1a09389 	lsl	r9, r9, #7
    8954:	e6ef9079 	uxtb	r9, r9
    8958:	e58db010 	str	fp, [sp, #16]
    895c:	e58da00c 	str	sl, [sp, #12]
    8960:	e18bb009 	orr	fp, fp, r9
    8964:	ee1f9f3c 	mrc	15, 0, r9, cr15, cr12, {1}
    8968:	e0639009 	rsb	r9, r3, r9
    896c:	e159000a 	cmp	r9, sl
    8970:	3afffffb 	bcc	8964 <notmain+0x218>
    8974:	e1a0bc0b 	lsl	fp, fp, #24
    8978:	e58db018 	str	fp, [sp, #24]
    897c:	e5943034 	ldr	r3, [r4, #52]	; 0x34
    8980:	e0033001 	and	r3, r3, r1
    8984:	e1b03233 	lsrs	r3, r3, r2
    8988:	1afffffb 	bne	897c <notmain+0x230>
    898c:	ee1f3f3c 	mrc	15, 0, r3, cr15, cr12, {1}
    8990:	ee1f9f3c 	mrc	15, 0, r9, cr15, cr12, {1}
    8994:	e0639009 	rsb	r9, r3, r9
    8998:	e1570009 	cmp	r7, r9
    899c:	8afffffb 	bhi	8990 <notmain+0x244>
    89a0:	ee1f9f3c 	mrc	15, 0, r9, cr15, cr12, {1}
    89a4:	e0639009 	rsb	r9, r3, r9
    89a8:	e1590008 	cmp	r9, r8
    89ac:	3afffffb 	bcc	89a0 <notmain+0x254>
    89b0:	e594b034 	ldr	fp, [r4, #52]	; 0x34
    89b4:	e00bb001 	and	fp, fp, r1
    89b8:	e1a0b23b 	lsr	fp, fp, r2
    89bc:	e20bb001 	and	fp, fp, #1
    89c0:	e58db010 	str	fp, [sp, #16]
    89c4:	ee1f9f3c 	mrc	15, 0, r9, cr15, cr12, {1}
    89c8:	e0639009 	rsb	r9, r3, r9
    89cc:	e1590006 	cmp	r9, r6
    89d0:	3afffffb 	bcc	89c4 <notmain+0x278>
    89d4:	e594a034 	ldr	sl, [r4, #52]	; 0x34
    89d8:	e00aa001 	and	sl, sl, r1
    89dc:	e1a0a23a 	lsr	sl, sl, r2
    89e0:	e20aa001 	and	sl, sl, #1
    89e4:	e1a0a08a 	lsl	sl, sl, #1
    89e8:	ee1f9f3c 	mrc	15, 0, r9, cr15, cr12, {1}
    89ec:	e0639009 	rsb	r9, r3, r9
    89f0:	e1590005 	cmp	r9, r5
    89f4:	3afffffb 	bcc	89e8 <notmain+0x29c>
    89f8:	e594b034 	ldr	fp, [r4, #52]	; 0x34
    89fc:	e59d9010 	ldr	r9, [sp, #16]
    8a00:	e00bb001 	and	fp, fp, r1
    8a04:	e1a0b23b 	lsr	fp, fp, r2
    8a08:	e20bb001 	and	fp, fp, #1
    8a0c:	e18ab10b 	orr	fp, sl, fp, lsl #2
    8a10:	e18bb009 	orr	fp, fp, r9
    8a14:	ee1f9f3c 	mrc	15, 0, r9, cr15, cr12, {1}
    8a18:	e0639009 	rsb	r9, r3, r9
    8a1c:	e159000e 	cmp	r9, lr
    8a20:	3afffffb 	bcc	8a14 <notmain+0x2c8>
    8a24:	e594a034 	ldr	sl, [r4, #52]	; 0x34
    8a28:	e00aa001 	and	sl, sl, r1
    8a2c:	e1a0a23a 	lsr	sl, sl, r2
    8a30:	e20aa001 	and	sl, sl, #1
    8a34:	e18ba18a 	orr	sl, fp, sl, lsl #3
    8a38:	ee1f9f3c 	mrc	15, 0, r9, cr15, cr12, {1}
    8a3c:	e0639009 	rsb	r9, r3, r9
    8a40:	e159000c 	cmp	r9, ip
    8a44:	3afffffb 	bcc	8a38 <notmain+0x2ec>
    8a48:	e594b034 	ldr	fp, [r4, #52]	; 0x34
    8a4c:	e00bb001 	and	fp, fp, r1
    8a50:	e1a0b23b 	lsr	fp, fp, r2
    8a54:	e20bb001 	and	fp, fp, #1
    8a58:	e18ab20b 	orr	fp, sl, fp, lsl #4
    8a5c:	e59da008 	ldr	sl, [sp, #8]
    8a60:	ee1f9f3c 	mrc	15, 0, r9, cr15, cr12, {1}
    8a64:	e0639009 	rsb	r9, r3, r9
    8a68:	e159000a 	cmp	r9, sl
    8a6c:	3afffffb 	bcc	8a60 <notmain+0x314>
    8a70:	e594a034 	ldr	sl, [r4, #52]	; 0x34
    8a74:	e00aa001 	and	sl, sl, r1
    8a78:	e1a0a23a 	lsr	sl, sl, r2
    8a7c:	e20aa001 	and	sl, sl, #1
    8a80:	e18ba28a 	orr	sl, fp, sl, lsl #5
    8a84:	e59db004 	ldr	fp, [sp, #4]
    8a88:	ee1f9f3c 	mrc	15, 0, r9, cr15, cr12, {1}
    8a8c:	e0639009 	rsb	r9, r3, r9
    8a90:	e15b0009 	cmp	fp, r9
    8a94:	8afffffb 	bhi	8a88 <notmain+0x33c>
    8a98:	e594b034 	ldr	fp, [r4, #52]	; 0x34
    8a9c:	e00bb001 	and	fp, fp, r1
    8aa0:	e1a0b23b 	lsr	fp, fp, r2
    8aa4:	e20bb001 	and	fp, fp, #1
    8aa8:	e18ab30b 	orr	fp, sl, fp, lsl #6
    8aac:	ee1f9f3c 	mrc	15, 0, r9, cr15, cr12, {1}
    8ab0:	e0639009 	rsb	r9, r3, r9
    8ab4:	e1590000 	cmp	r9, r0
    8ab8:	3afffffb 	bcc	8aac <notmain+0x360>
    8abc:	e594a034 	ldr	sl, [r4, #52]	; 0x34
    8ac0:	e00aa001 	and	sl, sl, r1
    8ac4:	e1a0a23a 	lsr	sl, sl, r2
    8ac8:	e1a0a38a 	lsl	sl, sl, #7
    8acc:	e6efa07a 	uxtb	sl, sl
    8ad0:	e18ba00a 	orr	sl, fp, sl
    8ad4:	e59db00c 	ldr	fp, [sp, #12]
    8ad8:	ee1f9f3c 	mrc	15, 0, r9, cr15, cr12, {1}
    8adc:	e0639009 	rsb	r9, r3, r9
    8ae0:	e159000b 	cmp	r9, fp
    8ae4:	3afffffb 	bcc	8ad8 <notmain+0x38c>
    8ae8:	e1a0a80a 	lsl	sl, sl, #16
    8aec:	e58da010 	str	sl, [sp, #16]
    8af0:	e5943034 	ldr	r3, [r4, #52]	; 0x34
    8af4:	e0033001 	and	r3, r3, r1
    8af8:	e1b03233 	lsrs	r3, r3, r2
    8afc:	1afffffb 	bne	8af0 <notmain+0x3a4>
    8b00:	ee1f3f3c 	mrc	15, 0, r3, cr15, cr12, {1}
    8b04:	ee1f9f3c 	mrc	15, 0, r9, cr15, cr12, {1}
    8b08:	e0639009 	rsb	r9, r3, r9
    8b0c:	e1570009 	cmp	r7, r9
    8b10:	8afffffb 	bhi	8b04 <notmain+0x3b8>
    8b14:	ee1f9f3c 	mrc	15, 0, r9, cr15, cr12, {1}
    8b18:	e0639009 	rsb	r9, r3, r9
    8b1c:	e1590008 	cmp	r9, r8
    8b20:	3afffffb 	bcc	8b14 <notmain+0x3c8>
    8b24:	e594b034 	ldr	fp, [r4, #52]	; 0x34
    8b28:	e00bb001 	and	fp, fp, r1
    8b2c:	e1a0b23b 	lsr	fp, fp, r2
    8b30:	e20bb001 	and	fp, fp, #1
    8b34:	e58db01c 	str	fp, [sp, #28]
    8b38:	ee1f9f3c 	mrc	15, 0, r9, cr15, cr12, {1}
    8b3c:	e0639009 	rsb	r9, r3, r9
    8b40:	e1590006 	cmp	r9, r6
    8b44:	3afffffb 	bcc	8b38 <notmain+0x3ec>
    8b48:	e594a034 	ldr	sl, [r4, #52]	; 0x34
    8b4c:	e001a00a 	and	sl, r1, sl
    8b50:	e1a0a23a 	lsr	sl, sl, r2
    8b54:	e20aa001 	and	sl, sl, #1
    8b58:	e1a0a08a 	lsl	sl, sl, #1
    8b5c:	ee1f9f3c 	mrc	15, 0, r9, cr15, cr12, {1}
    8b60:	e0639009 	rsb	r9, r3, r9
    8b64:	e1590005 	cmp	r9, r5
    8b68:	3afffffb 	bcc	8b5c <notmain+0x410>
    8b6c:	e594b034 	ldr	fp, [r4, #52]	; 0x34
    8b70:	e001b00b 	and	fp, r1, fp
    8b74:	e1a0b23b 	lsr	fp, fp, r2
    8b78:	e20bb001 	and	fp, fp, #1
    8b7c:	e18ab10b 	orr	fp, sl, fp, lsl #2
    8b80:	e59da01c 	ldr	sl, [sp, #28]
    8b84:	e18bb00a 	orr	fp, fp, sl
    8b88:	ee1f9f3c 	mrc	15, 0, r9, cr15, cr12, {1}
    8b8c:	e0639009 	rsb	r9, r3, r9
    8b90:	e15e0009 	cmp	lr, r9
    8b94:	8afffffb 	bhi	8b88 <notmain+0x43c>
    8b98:	e594a034 	ldr	sl, [r4, #52]	; 0x34
    8b9c:	e001a00a 	and	sl, r1, sl
    8ba0:	e1a0a23a 	lsr	sl, sl, r2
    8ba4:	e20aa001 	and	sl, sl, #1
    8ba8:	e18ba18a 	orr	sl, fp, sl, lsl #3
    8bac:	ee1f9f3c 	mrc	15, 0, r9, cr15, cr12, {1}
    8bb0:	e0639009 	rsb	r9, r3, r9
    8bb4:	e15c0009 	cmp	ip, r9
    8bb8:	8afffffb 	bhi	8bac <notmain+0x460>
    8bbc:	e594b034 	ldr	fp, [r4, #52]	; 0x34
    8bc0:	e001b00b 	and	fp, r1, fp
    8bc4:	e1a0b23b 	lsr	fp, fp, r2
    8bc8:	e20bb001 	and	fp, fp, #1
    8bcc:	e18ab20b 	orr	fp, sl, fp, lsl #4
    8bd0:	e59da008 	ldr	sl, [sp, #8]
    8bd4:	ee1f9f3c 	mrc	15, 0, r9, cr15, cr12, {1}
    8bd8:	e0639009 	rsb	r9, r3, r9
    8bdc:	e159000a 	cmp	r9, sl
    8be0:	3afffffb 	bcc	8bd4 <notmain+0x488>
    8be4:	e594a034 	ldr	sl, [r4, #52]	; 0x34
    8be8:	e001a00a 	and	sl, r1, sl
    8bec:	e1a0a23a 	lsr	sl, sl, r2
    8bf0:	e20aa001 	and	sl, sl, #1
    8bf4:	e18ba28a 	orr	sl, fp, sl, lsl #5
    8bf8:	e59db004 	ldr	fp, [sp, #4]
    8bfc:	ee1f9f3c 	mrc	15, 0, r9, cr15, cr12, {1}
    8c00:	e0639009 	rsb	r9, r3, r9
    8c04:	e15b0009 	cmp	fp, r9
    8c08:	8afffffb 	bhi	8bfc <notmain+0x4b0>
    8c0c:	e594b034 	ldr	fp, [r4, #52]	; 0x34
    8c10:	e001b00b 	and	fp, r1, fp
    8c14:	e1a0b23b 	lsr	fp, fp, r2
    8c18:	e20bb001 	and	fp, fp, #1
    8c1c:	e18ab30b 	orr	fp, sl, fp, lsl #6
    8c20:	ee1f9f3c 	mrc	15, 0, r9, cr15, cr12, {1}
    8c24:	e0639009 	rsb	r9, r3, r9
    8c28:	e1590000 	cmp	r9, r0
    8c2c:	3afffffb 	bcc	8c20 <notmain+0x4d4>
    8c30:	e594a034 	ldr	sl, [r4, #52]	; 0x34
    8c34:	e001a00a 	and	sl, r1, sl
    8c38:	e1a0a23a 	lsr	sl, sl, r2
    8c3c:	e1a0a38a 	lsl	sl, sl, #7
    8c40:	e6efa07a 	uxtb	sl, sl
    8c44:	e18ba00a 	orr	sl, fp, sl
    8c48:	e59db00c 	ldr	fp, [sp, #12]
    8c4c:	ee1f9f3c 	mrc	15, 0, r9, cr15, cr12, {1}
    8c50:	e0639009 	rsb	r9, r3, r9
    8c54:	e159000b 	cmp	r9, fp
    8c58:	3afffffb 	bcc	8c4c <notmain+0x500>
    8c5c:	e1a0b40a 	lsl	fp, sl, #8
    8c60:	e5943034 	ldr	r3, [r4, #52]	; 0x34
    8c64:	e0013003 	and	r3, r1, r3
    8c68:	e1b03233 	lsrs	r3, r3, r2
    8c6c:	1afffffb 	bne	8c60 <notmain+0x514>
    8c70:	ee1f3f3c 	mrc	15, 0, r3, cr15, cr12, {1}
    8c74:	ee1f9f3c 	mrc	15, 0, r9, cr15, cr12, {1}
    8c78:	e0639009 	rsb	r9, r3, r9
    8c7c:	e1570009 	cmp	r7, r9
    8c80:	8afffffb 	bhi	8c74 <notmain+0x528>
    8c84:	ee1f7f3c 	mrc	15, 0, r7, cr15, cr12, {1}
    8c88:	e0637007 	rsb	r7, r3, r7
    8c8c:	e1570008 	cmp	r7, r8
    8c90:	3afffffb 	bcc	8c84 <notmain+0x538>
    8c94:	e5947034 	ldr	r7, [r4, #52]	; 0x34
    8c98:	e0017007 	and	r7, r1, r7
    8c9c:	e1a07237 	lsr	r7, r7, r2
    8ca0:	e2077001 	and	r7, r7, #1
    8ca4:	ee1f8f3c 	mrc	15, 0, r8, cr15, cr12, {1}
    8ca8:	e0638008 	rsb	r8, r3, r8
    8cac:	e1560008 	cmp	r6, r8
    8cb0:	8afffffb 	bhi	8ca4 <notmain+0x558>
    8cb4:	e5946034 	ldr	r6, [r4, #52]	; 0x34
    8cb8:	e0016006 	and	r6, r1, r6
    8cbc:	e1a06236 	lsr	r6, r6, r2
    8cc0:	e2066001 	and	r6, r6, #1
    8cc4:	e1a06086 	lsl	r6, r6, #1
    8cc8:	ee1f8f3c 	mrc	15, 0, r8, cr15, cr12, {1}
    8ccc:	e0638008 	rsb	r8, r3, r8
    8cd0:	e1550008 	cmp	r5, r8
    8cd4:	8afffffb 	bhi	8cc8 <notmain+0x57c>
    8cd8:	e5945034 	ldr	r5, [r4, #52]	; 0x34
    8cdc:	e0015005 	and	r5, r1, r5
    8ce0:	e1a05235 	lsr	r5, r5, r2
    8ce4:	e2055001 	and	r5, r5, #1
    8ce8:	e1a05105 	lsl	r5, r5, #2
    8cec:	ee1f8f3c 	mrc	15, 0, r8, cr15, cr12, {1}
    8cf0:	e0638008 	rsb	r8, r3, r8
    8cf4:	e15e0008 	cmp	lr, r8
    8cf8:	8afffffb 	bhi	8cec <notmain+0x5a0>
    8cfc:	e594e034 	ldr	lr, [r4, #52]	; 0x34
    8d00:	e001e00e 	and	lr, r1, lr
    8d04:	e1a0e23e 	lsr	lr, lr, r2
    8d08:	e20ee001 	and	lr, lr, #1
    8d0c:	e1a0e18e 	lsl	lr, lr, #3
    8d10:	ee1f8f3c 	mrc	15, 0, r8, cr15, cr12, {1}
    8d14:	e0638008 	rsb	r8, r3, r8
    8d18:	e15c0008 	cmp	ip, r8
    8d1c:	8afffffb 	bhi	8d10 <notmain+0x5c4>
    8d20:	e5948034 	ldr	r8, [r4, #52]	; 0x34
    8d24:	e59d9008 	ldr	r9, [sp, #8]
    8d28:	e0018008 	and	r8, r1, r8
    8d2c:	e1a08238 	lsr	r8, r8, r2
    8d30:	e2088001 	and	r8, r8, #1
    8d34:	e1a08208 	lsl	r8, r8, #4
    8d38:	ee1fcf3c 	mrc	15, 0, ip, cr15, cr12, {1}
    8d3c:	e063c00c 	rsb	ip, r3, ip
    8d40:	e159000c 	cmp	r9, ip
    8d44:	8afffffb 	bhi	8d38 <notmain+0x5ec>
    8d48:	e5949034 	ldr	r9, [r4, #52]	; 0x34
    8d4c:	e59da004 	ldr	sl, [sp, #4]
    8d50:	e0019009 	and	r9, r1, r9
    8d54:	e1a09239 	lsr	r9, r9, r2
    8d58:	e2099001 	and	r9, r9, #1
    8d5c:	e1a09289 	lsl	r9, r9, #5
    8d60:	ee1fcf3c 	mrc	15, 0, ip, cr15, cr12, {1}
    8d64:	e063c00c 	rsb	ip, r3, ip
    8d68:	e15a000c 	cmp	sl, ip
    8d6c:	8afffffb 	bhi	8d60 <notmain+0x614>
    8d70:	e594a034 	ldr	sl, [r4, #52]	; 0x34
    8d74:	e001a00a 	and	sl, r1, sl
    8d78:	e1a0a23a 	lsr	sl, sl, r2
    8d7c:	e20aa001 	and	sl, sl, #1
    8d80:	e1a0a30a 	lsl	sl, sl, #6
    8d84:	ee1fcf3c 	mrc	15, 0, ip, cr15, cr12, {1}
    8d88:	e063c00c 	rsb	ip, r3, ip
    8d8c:	e150000c 	cmp	r0, ip
    8d90:	8afffffb 	bhi	8d84 <notmain+0x638>
    8d94:	e5940034 	ldr	r0, [r4, #52]	; 0x34
    8d98:	e0011000 	and	r1, r1, r0
    8d9c:	e1a02231 	lsr	r2, r1, r2
    8da0:	e59d000c 	ldr	r0, [sp, #12]
    8da4:	e1a02382 	lsl	r2, r2, #7
    8da8:	e6ef2072 	uxtb	r2, r2
    8dac:	ee1f1f3c 	mrc	15, 0, r1, cr15, cr12, {1}
    8db0:	e0631001 	rsb	r1, r3, r1
    8db4:	e1500001 	cmp	r0, r1
    8db8:	8afffffb 	bhi	8dac <notmain+0x660>
    8dbc:	e1866005 	orr	r6, r6, r5
    8dc0:	e1867007 	orr	r7, r6, r7
    8dc4:	e187e00e 	orr	lr, r7, lr
    8dc8:	e18e8008 	orr	r8, lr, r8
    8dcc:	e1889009 	orr	r9, r8, r9
    8dd0:	e59dc018 	ldr	ip, [sp, #24]
    8dd4:	e189a00a 	orr	sl, r9, sl
    8dd8:	e18aa002 	orr	sl, sl, r2
    8ddc:	e59d0010 	ldr	r0, [sp, #16]
    8de0:	e18aa00c 	orr	sl, sl, ip
    8de4:	e18aa000 	orr	sl, sl, r0
    8de8:	e18ab00b 	orr	fp, sl, fp
    8dec:	e1a00c2b 	lsr	r0, fp, #24
    8df0:	ebfffc86 	bl	8010 <sw_uart_put8.constprop.4>
    8df4:	e20b08ff 	and	r0, fp, #16711680	; 0xff0000
    8df8:	e1a00820 	lsr	r0, r0, #16
    8dfc:	ebfffc83 	bl	8010 <sw_uart_put8.constprop.4>
    8e00:	e20b0cff 	and	r0, fp, #65280	; 0xff00
    8e04:	e1a00420 	lsr	r0, r0, #8
    8e08:	ebfffc80 	bl	8010 <sw_uart_put8.constprop.4>
    8e0c:	e6ef007b 	uxtb	r0, fp
    8e10:	ebfffc7e 	bl	8010 <sw_uart_put8.constprop.4>
    8e14:	e59d1014 	ldr	r1, [sp, #20]
    8e18:	e2511001 	subs	r1, r1, #1
    8e1c:	e58d1014 	str	r1, [sp, #20]
    8e20:	1afffe63 	bne	87b4 <notmain+0x68>
    8e24:	eb00017c 	bl	941c <clean_reboot>
    8e28:	000002f7 	strdeq	r0, [r0], -r7
    8e2c:	00009ed0 	ldrdeq	r9, [r0], -r0
    8e30:	00009db0 			; <UNDEFINED> instruction: 0x00009db0
    8e34:	20200000 	eorcs	r0, r0, r0
    8e38:	00001001 	andeq	r1, r0, r1

00008e3c <printk>:
    8e3c:	e92d000f 	push	{r0, r1, r2, r3}
    8e40:	e92d4030 	push	{r4, r5, lr}
    8e44:	e24dd00c 	sub	sp, sp, #12
    8e48:	e28d301c 	add	r3, sp, #28
    8e4c:	e58d3004 	str	r3, [sp, #4]
    8e50:	e59f4034 	ldr	r4, [pc, #52]	; 8e8c <printk+0x50>
    8e54:	e1a00004 	mov	r0, r4
    8e58:	e3a01b01 	mov	r1, #1024	; 0x400
    8e5c:	e59d2018 	ldr	r2, [sp, #24]
    8e60:	eb0000c3 	bl	9174 <va_printk>
    8e64:	e1a05000 	mov	r5, r0
    8e68:	e59f3020 	ldr	r3, [pc, #32]	; 8e90 <printk+0x54>
    8e6c:	e5933000 	ldr	r3, [r3]
    8e70:	e1a00004 	mov	r0, r4
    8e74:	e12fff33 	blx	r3
    8e78:	e1a00005 	mov	r0, r5
    8e7c:	e28dd00c 	add	sp, sp, #12
    8e80:	e8bd4030 	pop	{r4, r5, lr}
    8e84:	e28dd010 	add	sp, sp, #16
    8e88:	e12fff1e 	bx	lr
    8e8c:	00009ee0 	andeq	r9, r0, r0, ror #29
    8e90:	00009cd0 	ldrdeq	r9, [r0], -r0

00008e94 <internal_putchar>:
    8e94:	e92d4010 	push	{r4, lr}
    8e98:	e1a04000 	mov	r4, r0
    8e9c:	eb00035b 	bl	9c10 <uart_putc>
    8ea0:	e1a00004 	mov	r0, r4
    8ea4:	e8bd8010 	pop	{r4, pc}

00008ea8 <rpi_reset_putc>:
    8ea8:	e59f2008 	ldr	r2, [pc, #8]	; 8eb8 <rpi_reset_putc+0x10>
    8eac:	e59f3008 	ldr	r3, [pc, #8]	; 8ebc <rpi_reset_putc+0x14>
    8eb0:	e5832000 	str	r2, [r3]
    8eb4:	e12fff1e 	bx	lr
    8eb8:	00008e94 	muleq	r0, r4, lr
    8ebc:	00009ccc 	andeq	r9, r0, ip, asr #25

00008ec0 <rpi_set_putc>:
    8ec0:	e59f3004 	ldr	r3, [pc, #4]	; 8ecc <rpi_set_putc+0xc>
    8ec4:	e5830000 	str	r0, [r3]
    8ec8:	e12fff1e 	bx	lr
    8ecc:	00009ccc 	andeq	r9, r0, ip, asr #25

00008ed0 <internal_putk>:
    8ed0:	e92d4038 	push	{r3, r4, r5, lr}
    8ed4:	e1a04000 	mov	r4, r0
    8ed8:	e59f5020 	ldr	r5, [pc, #32]	; 8f00 <internal_putk+0x30>
    8edc:	ea000002 	b	8eec <internal_putk+0x1c>
    8ee0:	e5953000 	ldr	r3, [r5]
    8ee4:	e12fff33 	blx	r3
    8ee8:	e2844001 	add	r4, r4, #1
    8eec:	e5d40000 	ldrb	r0, [r4]
    8ef0:	e3500000 	cmp	r0, #0
    8ef4:	1afffff9 	bne	8ee0 <internal_putk+0x10>
    8ef8:	e3a00001 	mov	r0, #1
    8efc:	e8bd8038 	pop	{r3, r4, r5, pc}
    8f00:	00009ccc 	andeq	r9, r0, ip, asr #25

00008f04 <isdigit>:
    8f04:	e2400030 	sub	r0, r0, #48	; 0x30
    8f08:	e3500009 	cmp	r0, #9
    8f0c:	83a00000 	movhi	r0, #0
    8f10:	93a00001 	movls	r0, #1
    8f14:	e12fff1e 	bx	lr

00008f18 <pad>:
    8f18:	e0611000 	rsb	r1, r1, r0
    8f1c:	e3a03020 	mov	r3, #32
    8f20:	ea000002 	b	8f30 <pad+0x18>
    8f24:	e5c03000 	strb	r3, [r0]
    8f28:	e2811001 	add	r1, r1, #1
    8f2c:	e2800001 	add	r0, r0, #1
    8f30:	e1510002 	cmp	r1, r2
    8f34:	bafffffa 	blt	8f24 <pad+0xc>
    8f38:	e3a03000 	mov	r3, #0
    8f3c:	e5c03000 	strb	r3, [r0]
    8f40:	e12fff1e 	bx	lr

00008f44 <reverse>:
    8f44:	e063c002 	rsb	ip, r3, r2
    8f48:	e28cc001 	add	ip, ip, #1
    8f4c:	e15c0001 	cmp	ip, r1
    8f50:	c061100c 	rsbgt	r1, r1, ip
    8f54:	c0833001 	addgt	r3, r3, r1
    8f58:	e2422001 	sub	r2, r2, #1
    8f5c:	e1a01000 	mov	r1, r0
    8f60:	ea000002 	b	8f70 <reverse+0x2c>
    8f64:	e452c001 	ldrb	ip, [r2], #-1
    8f68:	e5c1c000 	strb	ip, [r1]
    8f6c:	e2811001 	add	r1, r1, #1
    8f70:	e1520003 	cmp	r2, r3
    8f74:	2afffffa 	bcs	8f64 <reverse+0x20>
    8f78:	e3a03000 	mov	r3, #0
    8f7c:	e5c13000 	strb	r3, [r1]
    8f80:	e12fff1e 	bx	lr

00008f84 <emit>:
    8f84:	e92d41f0 	push	{r4, r5, r6, r7, r8, lr}
    8f88:	e24dd040 	sub	sp, sp, #64	; 0x40
    8f8c:	e1a05001 	mov	r5, r1
    8f90:	e1a04002 	mov	r4, r2
    8f94:	e59d2058 	ldr	r2, [sp, #88]	; 0x58
    8f98:	e1520004 	cmp	r2, r4
    8f9c:	c2442001 	subgt	r2, r4, #1
    8fa0:	e1a0c003 	mov	ip, r3
    8fa4:	e2400002 	sub	r0, r0, #2
    8fa8:	e350000e 	cmp	r0, #14
    8fac:	979ff100 	ldrls	pc, [pc, r0, lsl #2]
    8fb0:	ea000042 	b	90c0 <emit+0x13c>
    8fb4:	00009098 	muleq	r0, r8, r0
    8fb8:	000090c0 	andeq	r9, r0, r0, asr #1
    8fbc:	000090c0 	andeq	r9, r0, r0, asr #1
    8fc0:	000090c0 	andeq	r9, r0, r0, asr #1
    8fc4:	000090c0 	andeq	r9, r0, r0, asr #1
    8fc8:	000090c0 	andeq	r9, r0, r0, asr #1
    8fcc:	0000908c 	andeq	r9, r0, ip, lsl #1
    8fd0:	000090c0 	andeq	r9, r0, r0, asr #1
    8fd4:	00008ff0 	strdeq	r8, [r0], -r0
    8fd8:	000090c0 	andeq	r9, r0, r0, asr #1
    8fdc:	000090c0 	andeq	r9, r0, r0, asr #1
    8fe0:	000090c0 	andeq	r9, r0, r0, asr #1
    8fe4:	000090c0 	andeq	r9, r0, r0, asr #1
    8fe8:	000090c0 	andeq	r9, r0, r0, asr #1
    8fec:	00009064 	andeq	r9, r0, r4, rrx
    8ff0:	e59d105c 	ldr	r1, [sp, #92]	; 0x5c
    8ff4:	e2911000 	adds	r1, r1, #0
    8ff8:	13a01001 	movne	r1, #1
    8ffc:	e0111fa3 	ands	r1, r1, r3, lsr #31
    9000:	1263c000 	rsbne	ip, r3, #0
    9004:	13a08001 	movne	r8, #1
    9008:	03a08000 	moveq	r8, #0
    900c:	e1a0100d 	mov	r1, sp
    9010:	e59f70ec 	ldr	r7, [pc, #236]	; 9104 <emit+0x180>
    9014:	e59f60ec 	ldr	r6, [pc, #236]	; 9108 <emit+0x184>
    9018:	ea000000 	b	9020 <emit+0x9c>
    901c:	e1a01003 	mov	r1, r3
    9020:	e2813001 	add	r3, r1, #1
    9024:	e08e0c97 	umull	r0, lr, r7, ip
    9028:	e1a0e1ae 	lsr	lr, lr, #3
    902c:	e1a0000e 	mov	r0, lr
    9030:	e08ee10e 	add	lr, lr, lr, lsl #2
    9034:	e1a0e08e 	lsl	lr, lr, #1
    9038:	e06ee00c 	rsb	lr, lr, ip
    903c:	e7d6c00e 	ldrb	ip, [r6, lr]
    9040:	e5c1c000 	strb	ip, [r1]
    9044:	e1a0c000 	mov	ip, r0
    9048:	e3500000 	cmp	r0, #0
    904c:	1afffff2 	bne	901c <emit+0x98>
    9050:	e3580000 	cmp	r8, #0
    9054:	12813002 	addne	r3, r1, #2
    9058:	13a0002d 	movne	r0, #45	; 0x2d
    905c:	15c10001 	strbne	r0, [r1, #1]
    9060:	ea00001d 	b	90dc <emit+0x158>
    9064:	e1a0e00d 	mov	lr, sp
    9068:	e59f009c 	ldr	r0, [pc, #156]	; 910c <emit+0x188>
    906c:	e28e3001 	add	r3, lr, #1
    9070:	e20c100f 	and	r1, ip, #15
    9074:	e7d01001 	ldrb	r1, [r0, r1]
    9078:	e5ce1000 	strb	r1, [lr]
    907c:	e1a0e003 	mov	lr, r3
    9080:	e1b0c22c 	lsrs	ip, ip, #4
    9084:	1afffff8 	bne	906c <emit+0xe8>
    9088:	ea000013 	b	90dc <emit+0x158>
    908c:	e5cd3000 	strb	r3, [sp]
    9090:	e28d3001 	add	r3, sp, #1
    9094:	ea000010 	b	90dc <emit+0x158>
    9098:	e1a0e00d 	mov	lr, sp
    909c:	e59f006c 	ldr	r0, [pc, #108]	; 9110 <emit+0x18c>
    90a0:	e28e3001 	add	r3, lr, #1
    90a4:	e20c1001 	and	r1, ip, #1
    90a8:	e7d01001 	ldrb	r1, [r0, r1]
    90ac:	e5ce1000 	strb	r1, [lr]
    90b0:	e1a0e003 	mov	lr, r3
    90b4:	e1b0c0ac 	lsrs	ip, ip, #1
    90b8:	1afffff8 	bne	90a0 <emit+0x11c>
    90bc:	ea000006 	b	90dc <emit+0x158>
    90c0:	ebffff78 	bl	8ea8 <rpi_reset_putc>
    90c4:	e59f0048 	ldr	r0, [pc, #72]	; 9114 <emit+0x190>
    90c8:	e59f1048 	ldr	r1, [pc, #72]	; 9118 <emit+0x194>
    90cc:	e59f2048 	ldr	r2, [pc, #72]	; 911c <emit+0x198>
    90d0:	e3a03075 	mov	r3, #117	; 0x75
    90d4:	ebffff58 	bl	8e3c <printk>
    90d8:	eb0000cf 	bl	941c <clean_reboot>
    90dc:	e1a00003 	mov	r0, r3
    90e0:	e1a0100d 	mov	r1, sp
    90e4:	ebffff8b 	bl	8f18 <pad>
    90e8:	e1a02000 	mov	r2, r0
    90ec:	e1a00005 	mov	r0, r5
    90f0:	e1a01004 	mov	r1, r4
    90f4:	e1a0300d 	mov	r3, sp
    90f8:	ebffff91 	bl	8f44 <reverse>
    90fc:	e28dd040 	add	sp, sp, #64	; 0x40
    9100:	e8bd81f0 	pop	{r4, r5, r6, r7, r8, pc}
    9104:	cccccccd 	stclgt	12, cr12, [ip], {205}	; 0xcd
    9108:	00009e0c 	andeq	r9, r0, ip, lsl #28
    910c:	00009e18 	andeq	r9, r0, r8, lsl lr
    9110:	00009e2c 	andeq	r9, r0, ip, lsr #28
    9114:	00009de4 	andeq	r9, r0, r4, ror #27
    9118:	00009df8 	strdeq	r9, [r0], -r8
    911c:	00009dc0 	andeq	r9, r0, r0, asr #27

00009120 <rpi_set_output>:
    9120:	e92d4008 	push	{r3, lr}
    9124:	e3500000 	cmp	r0, #0
    9128:	1a000006 	bne	9148 <rpi_set_output+0x28>
    912c:	ebffff5d 	bl	8ea8 <rpi_reset_putc>
    9130:	e59f0028 	ldr	r0, [pc, #40]	; 9160 <rpi_set_output+0x40>
    9134:	e59f1028 	ldr	r1, [pc, #40]	; 9164 <rpi_set_output+0x44>
    9138:	e59f2028 	ldr	r2, [pc, #40]	; 9168 <rpi_set_output+0x48>
    913c:	e3a03020 	mov	r3, #32
    9140:	ebffff3d 	bl	8e3c <printk>
    9144:	eb0000b4 	bl	941c <clean_reboot>
    9148:	e59f301c 	ldr	r3, [pc, #28]	; 916c <rpi_set_output+0x4c>
    914c:	e5830000 	str	r0, [r3]
    9150:	e3510000 	cmp	r1, #0
    9154:	159f3014 	ldrne	r3, [pc, #20]	; 9170 <rpi_set_output+0x50>
    9158:	15831000 	strne	r1, [r3]
    915c:	e8bd8008 	pop	{r3, pc}
    9160:	00009e30 	andeq	r9, r0, r0, lsr lr
    9164:	00009df8 	strdeq	r9, [r0], -r8
    9168:	00009dc8 	andeq	r9, r0, r8, asr #27
    916c:	00009ccc 	andeq	r9, r0, ip, asr #25
    9170:	00009cd0 	ldrdeq	r9, [r0], -r0

00009174 <va_printk>:
    9174:	e92d4ff0 	push	{r4, r5, r6, r7, r8, r9, sl, fp, lr}
    9178:	e24dd08c 	sub	sp, sp, #140	; 0x8c
    917c:	e1a0a000 	mov	sl, r0
    9180:	e1a09003 	mov	r9, r3
    9184:	e2411001 	sub	r1, r1, #1
    9188:	e0808001 	add	r8, r0, r1
    918c:	e3a03000 	mov	r3, #0
    9190:	e5c03000 	strb	r3, [r0]
    9194:	e1a04000 	mov	r4, r0
    9198:	e1a0b003 	mov	fp, r3
    919c:	ea000086 	b	93bc <va_printk+0x248>
    91a0:	e3530025 	cmp	r3, #37	; 0x25
    91a4:	12822001 	addne	r2, r2, #1
    91a8:	15c43000 	strbne	r3, [r4]
    91ac:	12844001 	addne	r4, r4, #1
    91b0:	1a000081 	bne	93bc <va_printk+0x248>
    91b4:	e5d21001 	ldrb	r1, [r2, #1]
    91b8:	e3510025 	cmp	r1, #37	; 0x25
    91bc:	05c43000 	strbeq	r3, [r4]
    91c0:	02822002 	addeq	r2, r2, #2
    91c4:	02844001 	addeq	r4, r4, #1
    91c8:	0a00007b 	beq	93bc <va_printk+0x248>
    91cc:	e2826001 	add	r6, r2, #1
    91d0:	e1a0700b 	mov	r7, fp
    91d4:	ea000004 	b	91ec <va_printk+0x78>
    91d8:	e0877107 	add	r7, r7, r7, lsl #2
    91dc:	e1a07087 	lsl	r7, r7, #1
    91e0:	e0877005 	add	r7, r7, r5
    91e4:	e2477030 	sub	r7, r7, #48	; 0x30
    91e8:	e2866001 	add	r6, r6, #1
    91ec:	e5d65000 	ldrb	r5, [r6]
    91f0:	e1a00005 	mov	r0, r5
    91f4:	ebffff42 	bl	8f04 <isdigit>
    91f8:	e3500000 	cmp	r0, #0
    91fc:	1afffff5 	bne	91d8 <va_printk+0x64>
    9200:	e357001f 	cmp	r7, #31
    9204:	9a000006 	bls	9224 <va_printk+0xb0>
    9208:	ebffff26 	bl	8ea8 <rpi_reset_putc>
    920c:	e59f01d4 	ldr	r0, [pc, #468]	; 93e8 <va_printk+0x274>
    9210:	e59f11d4 	ldr	r1, [pc, #468]	; 93ec <va_printk+0x278>
    9214:	e59f21d4 	ldr	r2, [pc, #468]	; 93f0 <va_printk+0x27c>
    9218:	e3a03092 	mov	r3, #146	; 0x92
    921c:	ebffff06 	bl	8e3c <printk>
    9220:	eb00007d 	bl	941c <clean_reboot>
    9224:	e2455062 	sub	r5, r5, #98	; 0x62
    9228:	e3550016 	cmp	r5, #22
    922c:	979ff105 	ldrls	pc, [pc, r5, lsl #2]
    9230:	ea00004e 	b	9370 <va_printk+0x1fc>
    9234:	0000931c 	andeq	r9, r0, ip, lsl r3
    9238:	0000934c 	andeq	r9, r0, ip, asr #6
    923c:	000092ac 	andeq	r9, r0, ip, lsr #5
    9240:	00009370 	andeq	r9, r0, r0, ror r3
    9244:	00009290 	muleq	r0, r0, r2
    9248:	00009370 	andeq	r9, r0, r0, ror r3
    924c:	00009370 	andeq	r9, r0, r0, ror r3
    9250:	00009370 	andeq	r9, r0, r0, ror r3
    9254:	00009370 	andeq	r9, r0, r0, ror r3
    9258:	00009370 	andeq	r9, r0, r0, ror r3
    925c:	00009370 	andeq	r9, r0, r0, ror r3
    9260:	00009370 	andeq	r9, r0, r0, ror r3
    9264:	00009370 	andeq	r9, r0, r0, ror r3
    9268:	00009370 	andeq	r9, r0, r0, ror r3
    926c:	000092f8 	strdeq	r9, [r0], -r8
    9270:	00009370 	andeq	r9, r0, r0, ror r3
    9274:	00009370 	andeq	r9, r0, r0, ror r3
    9278:	00009340 	andeq	r9, r0, r0, asr #6
    927c:	00009370 	andeq	r9, r0, r0, ror r3
    9280:	000092d4 	ldrdeq	r9, [r0], -r4
    9284:	00009370 	andeq	r9, r0, r0, ror r3
    9288:	00009370 	andeq	r9, r0, r0, ror r3
    928c:	000092f8 	strdeq	r9, [r0], -r8
    9290:	ebffff04 	bl	8ea8 <rpi_reset_putc>
    9294:	e59f0158 	ldr	r0, [pc, #344]	; 93f4 <va_printk+0x280>
    9298:	e59f114c 	ldr	r1, [pc, #332]	; 93ec <va_printk+0x278>
    929c:	e59f214c 	ldr	r2, [pc, #332]	; 93f0 <va_printk+0x27c>
    92a0:	e3a03098 	mov	r3, #152	; 0x98
    92a4:	ebfffee4 	bl	8e3c <printk>
    92a8:	eb00005b 	bl	941c <clean_reboot>
    92ac:	e5993000 	ldr	r3, [r9]
    92b0:	e2899004 	add	r9, r9, #4
    92b4:	e58d7000 	str	r7, [sp]
    92b8:	e3a02001 	mov	r2, #1
    92bc:	e58d2004 	str	r2, [sp, #4]
    92c0:	e3a0000a 	mov	r0, #10
    92c4:	e28d1008 	add	r1, sp, #8
    92c8:	e3a02080 	mov	r2, #128	; 0x80
    92cc:	ebffff2c 	bl	8f84 <emit>
    92d0:	ea00002f 	b	9394 <va_printk+0x220>
    92d4:	e5993000 	ldr	r3, [r9]
    92d8:	e2899004 	add	r9, r9, #4
    92dc:	e58d7000 	str	r7, [sp]
    92e0:	e58db004 	str	fp, [sp, #4]
    92e4:	e3a0000a 	mov	r0, #10
    92e8:	e28d1008 	add	r1, sp, #8
    92ec:	e3a02080 	mov	r2, #128	; 0x80
    92f0:	ebffff23 	bl	8f84 <emit>
    92f4:	ea000026 	b	9394 <va_printk+0x220>
    92f8:	e5993000 	ldr	r3, [r9]
    92fc:	e2899004 	add	r9, r9, #4
    9300:	e58d7000 	str	r7, [sp]
    9304:	e58db004 	str	fp, [sp, #4]
    9308:	e3a00010 	mov	r0, #16
    930c:	e28d1008 	add	r1, sp, #8
    9310:	e3a02080 	mov	r2, #128	; 0x80
    9314:	ebffff1a 	bl	8f84 <emit>
    9318:	ea00001d 	b	9394 <va_printk+0x220>
    931c:	e5993000 	ldr	r3, [r9]
    9320:	e2899004 	add	r9, r9, #4
    9324:	e58d7000 	str	r7, [sp]
    9328:	e58db004 	str	fp, [sp, #4]
    932c:	e3a00002 	mov	r0, #2
    9330:	e28d1008 	add	r1, sp, #8
    9334:	e3a02080 	mov	r2, #128	; 0x80
    9338:	ebffff11 	bl	8f84 <emit>
    933c:	ea000014 	b	9394 <va_printk+0x220>
    9340:	e5990000 	ldr	r0, [r9]
    9344:	e2899004 	add	r9, r9, #4
    9348:	ea000011 	b	9394 <va_printk+0x220>
    934c:	e5993000 	ldr	r3, [r9]
    9350:	e2899004 	add	r9, r9, #4
    9354:	e58d7000 	str	r7, [sp]
    9358:	e58db004 	str	fp, [sp, #4]
    935c:	e3a00008 	mov	r0, #8
    9360:	e08d1000 	add	r1, sp, r0
    9364:	e3a02080 	mov	r2, #128	; 0x80
    9368:	ebffff05 	bl	8f84 <emit>
    936c:	ea000008 	b	9394 <va_printk+0x220>
    9370:	ebfffecc 	bl	8ea8 <rpi_reset_putc>
    9374:	e5d63000 	ldrb	r3, [r6]
    9378:	e58d3000 	str	r3, [sp]
    937c:	e59f0074 	ldr	r0, [pc, #116]	; 93f8 <va_printk+0x284>
    9380:	e59f1064 	ldr	r1, [pc, #100]	; 93ec <va_printk+0x278>
    9384:	e59f2064 	ldr	r2, [pc, #100]	; 93f0 <va_printk+0x27c>
    9388:	e3a030b9 	mov	r3, #185	; 0xb9
    938c:	ebfffeaa 	bl	8e3c <printk>
    9390:	eb000021 	bl	941c <clean_reboot>
    9394:	e2862001 	add	r2, r6, #1
    9398:	ea000002 	b	93a8 <va_printk+0x234>
    939c:	e2800001 	add	r0, r0, #1
    93a0:	e5c43000 	strb	r3, [r4]
    93a4:	e2844001 	add	r4, r4, #1
    93a8:	e1540008 	cmp	r4, r8
    93ac:	2a000002 	bcs	93bc <va_printk+0x248>
    93b0:	e5d03000 	ldrb	r3, [r0]
    93b4:	e3530000 	cmp	r3, #0
    93b8:	1afffff7 	bne	939c <va_printk+0x228>
    93bc:	e5d23000 	ldrb	r3, [r2]
    93c0:	e3530000 	cmp	r3, #0
    93c4:	0a000001 	beq	93d0 <va_printk+0x25c>
    93c8:	e1540008 	cmp	r4, r8
    93cc:	3affff73 	bcc	91a0 <va_printk+0x2c>
    93d0:	e2840001 	add	r0, r4, #1
    93d4:	e3a03000 	mov	r3, #0
    93d8:	e5c43000 	strb	r3, [r4]
    93dc:	e06a0000 	rsb	r0, sl, r0
    93e0:	e28dd08c 	add	sp, sp, #140	; 0x8c
    93e4:	e8bd8ff0 	pop	{r4, r5, r6, r7, r8, r9, sl, fp, pc}
    93e8:	00009e48 	andeq	r9, r0, r8, asr #28
    93ec:	00009df8 	strdeq	r9, [r0], -r8
    93f0:	00009dd8 	ldrdeq	r9, [r0], -r8
    93f4:	00009e64 	andeq	r9, r0, r4, ror #28
    93f8:	00009e8c 	andeq	r9, r0, ip, lsl #29

000093fc <enable_cache>:
    93fc:	ee113f10 	mrc	15, 0, r3, cr1, cr0, {0}
    9400:	e3833b06 	orr	r3, r3, #6144	; 0x1800
    9404:	ee013f10 	mcr	15, 0, r3, cr1, cr0, {0}
    9408:	e12fff1e 	bx	lr

0000940c <disable_cache>:
    940c:	ee113f10 	mrc	15, 0, r3, cr1, cr0, {0}
    9410:	e3c33b06 	bic	r3, r3, #6144	; 0x1800
    9414:	ee013f10 	mcr	15, 0, r3, cr1, cr0, {0}
    9418:	e12fff1e 	bx	lr

0000941c <clean_reboot>:
    941c:	e92d4008 	push	{r3, lr}
    9420:	e59f3014 	ldr	r3, [pc, #20]	; 943c <clean_reboot+0x20>
    9424:	e5933000 	ldr	r3, [r3]
    9428:	e59f0010 	ldr	r0, [pc, #16]	; 9440 <clean_reboot+0x24>
    942c:	e12fff33 	blx	r3
    9430:	e3a00064 	mov	r0, #100	; 0x64
    9434:	eb000044 	bl	954c <delay_ms>
    9438:	eb000019 	bl	94a4 <rpi_reboot>
    943c:	00009cd0 	ldrdeq	r9, [r0], -r0
    9440:	00009ec4 	andeq	r9, r0, r4, asr #29

00009444 <_cstart>:
    9444:	e92d4008 	push	{r3, lr}
    9448:	e59f3020 	ldr	r3, [pc, #32]	; 9470 <_cstart+0x2c>
    944c:	e59f2020 	ldr	r2, [pc, #32]	; 9474 <_cstart+0x30>
    9450:	e3a01000 	mov	r1, #0
    9454:	ea000001 	b	9460 <_cstart+0x1c>
    9458:	e5831000 	str	r1, [r3]
    945c:	e2833004 	add	r3, r3, #4
    9460:	e1530002 	cmp	r3, r2
    9464:	3afffffb 	bcc	9458 <_cstart+0x14>
    9468:	ebfffcb7 	bl	874c <notmain>
    946c:	eb00000c 	bl	94a4 <rpi_reboot>
    9470:	00009ed0 	ldrdeq	r9, [r0], -r0
    9474:	0000a2e0 	andeq	sl, r0, r0, ror #5

00009478 <at_user_level>:
    9478:	e10f0000 	mrs	r0, CPSR
    947c:	e200001f 	and	r0, r0, #31
    9480:	e3500010 	cmp	r0, #16
    9484:	13a00000 	movne	r0, #0
    9488:	03a00001 	moveq	r0, #1
    948c:	e12fff1e 	bx	lr

00009490 <set_user_level>:
    9490:	e10f3000 	mrs	r3, CPSR
    9494:	e3c3301f 	bic	r3, r3, #31
    9498:	e3833010 	orr	r3, r3, #16
    949c:	e129f003 	msr	CPSR_fc, r3
    94a0:	e12fff1e 	bx	lr

000094a4 <rpi_reboot>:
    94a4:	e92d4008 	push	{r3, lr}
    94a8:	ebfffff2 	bl	9478 <at_user_level>
    94ac:	e3500000 	cmp	r0, #0
    94b0:	0a000000 	beq	94b8 <rpi_reboot+0x14>
    94b4:	ebfffff5 	bl	9490 <set_user_level>
    94b8:	e3a0001e 	mov	r0, #30
    94bc:	eb000022 	bl	954c <delay_ms>
    94c0:	e59f0014 	ldr	r0, [pc, #20]	; 94dc <rpi_reboot+0x38>
    94c4:	e59f1014 	ldr	r1, [pc, #20]	; 94e0 <rpi_reboot+0x3c>
    94c8:	eb0001ee 	bl	9c88 <PUT32>
    94cc:	e59f0010 	ldr	r0, [pc, #16]	; 94e4 <rpi_reboot+0x40>
    94d0:	e59f1010 	ldr	r1, [pc, #16]	; 94e8 <rpi_reboot+0x44>
    94d4:	eb0001eb 	bl	9c88 <PUT32>
    94d8:	eafffffe 	b	94d8 <rpi_reboot+0x34>
    94dc:	20100024 	andscs	r0, r0, r4, lsr #32
    94e0:	5a000001 	bpl	94ec <delay_cycles>
    94e4:	2010001c 	andscs	r0, r0, ip, lsl r0
    94e8:	5a000020 	bpl	9570 <delay_sec+0x10>

000094ec <delay_cycles>:
    94ec:	ea000001 	b	94f8 <delay_cycles+0xc>
    94f0:	e2811000 	add	r1, r1, #0
    94f4:	e1a00003 	mov	r0, r3
    94f8:	e2403001 	sub	r3, r0, #1
    94fc:	e3500000 	cmp	r0, #0
    9500:	1afffffa 	bne	94f0 <delay_cycles+0x4>
    9504:	e12fff1e 	bx	lr

00009508 <timer_get_usec_raw>:
    9508:	e92d4008 	push	{r3, lr}
    950c:	e59f0004 	ldr	r0, [pc, #4]	; 9518 <timer_get_usec_raw+0x10>
    9510:	eb0001e8 	bl	9cb8 <GET32>
    9514:	e8bd8008 	pop	{r3, pc}
    9518:	20003004 	andcs	r3, r0, r4

0000951c <timer_get_usec>:
    951c:	e92d4008 	push	{r3, lr}
    9520:	ebfffff8 	bl	9508 <timer_get_usec_raw>
    9524:	e8bd8008 	pop	{r3, pc}

00009528 <delay_us>:
    9528:	e92d4038 	push	{r3, r4, r5, lr}
    952c:	e1a05000 	mov	r5, r0
    9530:	ebfffff9 	bl	951c <timer_get_usec>
    9534:	e1a04000 	mov	r4, r0
    9538:	ebfffff7 	bl	951c <timer_get_usec>
    953c:	e0640000 	rsb	r0, r4, r0
    9540:	e1500005 	cmp	r0, r5
    9544:	3afffffb 	bcc	9538 <delay_us+0x10>
    9548:	e8bd8038 	pop	{r3, r4, r5, pc}

0000954c <delay_ms>:
    954c:	e92d4008 	push	{r3, lr}
    9550:	e3a03ffa 	mov	r3, #1000	; 0x3e8
    9554:	e0000093 	mul	r0, r3, r0
    9558:	ebfffff2 	bl	9528 <delay_us>
    955c:	e8bd8008 	pop	{r3, pc}

00009560 <delay_sec>:
    9560:	e92d4008 	push	{r3, lr}
    9564:	e3a03ffa 	mov	r3, #1000	; 0x3e8
    9568:	e0000093 	mul	r0, r3, r0
    956c:	ebfffff6 	bl	954c <delay_ms>
    9570:	e8bd8008 	pop	{r3, pc}

00009574 <gpio_set_output>:
    9574:	e92d4038 	push	{r3, r4, r5, lr}
    9578:	e1a04000 	mov	r4, r0
    957c:	e350001f 	cmp	r0, #31
    9580:	88bd8038 	pophi	{r3, r4, r5, pc}
    9584:	e59f30b4 	ldr	r3, [pc, #180]	; 9640 <gpio_set_output+0xcc>
    9588:	e0832093 	umull	r2, r3, r3, r0
    958c:	e1a031a3 	lsr	r3, r3, #3
    9590:	e3530005 	cmp	r3, #5
    9594:	979ff103 	ldrls	pc, [pc, r3, lsl #2]
    9598:	ea000017 	b	95fc <gpio_set_output+0x88>
    959c:	000095b4 			; <UNDEFINED> instruction: 0x000095b4
    95a0:	000095c0 	andeq	r9, r0, r0, asr #11
    95a4:	000095cc 	andeq	r9, r0, ip, asr #11
    95a8:	000095d8 	ldrdeq	r9, [r0], -r8
    95ac:	000095e4 	andeq	r9, r0, r4, ror #11
    95b0:	000095f0 	strdeq	r9, [r0], -r0
    95b4:	e59f3088 	ldr	r3, [pc, #136]	; 9644 <gpio_set_output+0xd0>
    95b8:	e5935000 	ldr	r5, [r3]
    95bc:	ea00000f 	b	9600 <gpio_set_output+0x8c>
    95c0:	e59f307c 	ldr	r3, [pc, #124]	; 9644 <gpio_set_output+0xd0>
    95c4:	e5935004 	ldr	r5, [r3, #4]
    95c8:	ea00000c 	b	9600 <gpio_set_output+0x8c>
    95cc:	e59f3070 	ldr	r3, [pc, #112]	; 9644 <gpio_set_output+0xd0>
    95d0:	e5935008 	ldr	r5, [r3, #8]
    95d4:	ea000009 	b	9600 <gpio_set_output+0x8c>
    95d8:	e59f3064 	ldr	r3, [pc, #100]	; 9644 <gpio_set_output+0xd0>
    95dc:	e593500c 	ldr	r5, [r3, #12]
    95e0:	ea000006 	b	9600 <gpio_set_output+0x8c>
    95e4:	e59f3058 	ldr	r3, [pc, #88]	; 9644 <gpio_set_output+0xd0>
    95e8:	e5935010 	ldr	r5, [r3, #16]
    95ec:	ea000003 	b	9600 <gpio_set_output+0x8c>
    95f0:	e59f304c 	ldr	r3, [pc, #76]	; 9644 <gpio_set_output+0xd0>
    95f4:	e5935014 	ldr	r5, [r3, #20]
    95f8:	ea000000 	b	9600 <gpio_set_output+0x8c>
    95fc:	e3a05000 	mov	r5, #0
    9600:	e1a00005 	mov	r0, r5
    9604:	eb0001a9 	bl	9cb0 <get32>
    9608:	e59f1030 	ldr	r1, [pc, #48]	; 9640 <gpio_set_output+0xcc>
    960c:	e0813491 	umull	r3, r1, r1, r4
    9610:	e1a011a1 	lsr	r1, r1, #3
    9614:	e0811101 	add	r1, r1, r1, lsl #2
    9618:	e1a01081 	lsl	r1, r1, #1
    961c:	e0611004 	rsb	r1, r1, r4
    9620:	e0811081 	add	r1, r1, r1, lsl #1
    9624:	e3a03007 	mov	r3, #7
    9628:	e1c03113 	bic	r3, r0, r3, lsl r1
    962c:	e1a00005 	mov	r0, r5
    9630:	e3a02001 	mov	r2, #1
    9634:	e1831112 	orr	r1, r3, r2, lsl r1
    9638:	eb000190 	bl	9c80 <put32>
    963c:	e8bd8038 	pop	{r3, r4, r5, pc}
    9640:	cccccccd 	stclgt	12, cr12, [ip], {205}	; 0xcd
    9644:	00009cd4 	ldrdeq	r9, [r0], -r4

00009648 <gpio_set_on>:
    9648:	e92d4008 	push	{r3, lr}
    964c:	e350001f 	cmp	r0, #31
    9650:	88bd8008 	pophi	{r3, pc}
    9654:	959f3020 	ldrls	r3, [pc, #32]	; 967c <gpio_set_on+0x34>
    9658:	95932018 	ldrls	r2, [r3, #24]
    965c:	859f3018 	ldrhi	r3, [pc, #24]	; 967c <gpio_set_on+0x34>
    9660:	8593201c 	ldrhi	r2, [r3, #28]
    9664:	e200301f 	and	r3, r0, #31
    9668:	e1a00002 	mov	r0, r2
    966c:	e3a01001 	mov	r1, #1
    9670:	e1a01311 	lsl	r1, r1, r3
    9674:	eb000181 	bl	9c80 <put32>
    9678:	e8bd8008 	pop	{r3, pc}
    967c:	00009cd4 	ldrdeq	r9, [r0], -r4

00009680 <gpio_set_off>:
    9680:	e92d4008 	push	{r3, lr}
    9684:	e350001f 	cmp	r0, #31
    9688:	88bd8008 	pophi	{r3, pc}
    968c:	959f3020 	ldrls	r3, [pc, #32]	; 96b4 <gpio_set_off+0x34>
    9690:	95932020 	ldrls	r2, [r3, #32]
    9694:	859f3018 	ldrhi	r3, [pc, #24]	; 96b4 <gpio_set_off+0x34>
    9698:	85932024 	ldrhi	r2, [r3, #36]	; 0x24
    969c:	e200301f 	and	r3, r0, #31
    96a0:	e1a00002 	mov	r0, r2
    96a4:	e3a01001 	mov	r1, #1
    96a8:	e1a01311 	lsl	r1, r1, r3
    96ac:	eb000173 	bl	9c80 <put32>
    96b0:	e8bd8008 	pop	{r3, pc}
    96b4:	00009cd4 	ldrdeq	r9, [r0], -r4

000096b8 <gpio_set_input>:
    96b8:	e92d4038 	push	{r3, r4, r5, lr}
    96bc:	e1a04000 	mov	r4, r0
    96c0:	e350001f 	cmp	r0, #31
    96c4:	88bd8038 	pophi	{r3, r4, r5, pc}
    96c8:	e59f30ac 	ldr	r3, [pc, #172]	; 977c <gpio_set_input+0xc4>
    96cc:	e0832093 	umull	r2, r3, r3, r0
    96d0:	e1a031a3 	lsr	r3, r3, #3
    96d4:	e3530005 	cmp	r3, #5
    96d8:	979ff103 	ldrls	pc, [pc, r3, lsl #2]
    96dc:	ea000017 	b	9740 <gpio_set_input+0x88>
    96e0:	000096f8 	strdeq	r9, [r0], -r8
    96e4:	00009704 	andeq	r9, r0, r4, lsl #14
    96e8:	00009710 	andeq	r9, r0, r0, lsl r7
    96ec:	0000971c 	andeq	r9, r0, ip, lsl r7
    96f0:	00009728 	andeq	r9, r0, r8, lsr #14
    96f4:	00009734 	andeq	r9, r0, r4, lsr r7
    96f8:	e59f3080 	ldr	r3, [pc, #128]	; 9780 <gpio_set_input+0xc8>
    96fc:	e5935000 	ldr	r5, [r3]
    9700:	ea00000f 	b	9744 <gpio_set_input+0x8c>
    9704:	e59f3074 	ldr	r3, [pc, #116]	; 9780 <gpio_set_input+0xc8>
    9708:	e5935004 	ldr	r5, [r3, #4]
    970c:	ea00000c 	b	9744 <gpio_set_input+0x8c>
    9710:	e59f3068 	ldr	r3, [pc, #104]	; 9780 <gpio_set_input+0xc8>
    9714:	e5935008 	ldr	r5, [r3, #8]
    9718:	ea000009 	b	9744 <gpio_set_input+0x8c>
    971c:	e59f305c 	ldr	r3, [pc, #92]	; 9780 <gpio_set_input+0xc8>
    9720:	e593500c 	ldr	r5, [r3, #12]
    9724:	ea000006 	b	9744 <gpio_set_input+0x8c>
    9728:	e59f3050 	ldr	r3, [pc, #80]	; 9780 <gpio_set_input+0xc8>
    972c:	e5935010 	ldr	r5, [r3, #16]
    9730:	ea000003 	b	9744 <gpio_set_input+0x8c>
    9734:	e59f3044 	ldr	r3, [pc, #68]	; 9780 <gpio_set_input+0xc8>
    9738:	e5935014 	ldr	r5, [r3, #20]
    973c:	ea000000 	b	9744 <gpio_set_input+0x8c>
    9740:	e3a05000 	mov	r5, #0
    9744:	e1a00005 	mov	r0, r5
    9748:	eb000158 	bl	9cb0 <get32>
    974c:	e59f1028 	ldr	r1, [pc, #40]	; 977c <gpio_set_input+0xc4>
    9750:	e0813491 	umull	r3, r1, r1, r4
    9754:	e1a011a1 	lsr	r1, r1, #3
    9758:	e0811101 	add	r1, r1, r1, lsl #2
    975c:	e1a01081 	lsl	r1, r1, #1
    9760:	e0611004 	rsb	r1, r1, r4
    9764:	e0811081 	add	r1, r1, r1, lsl #1
    9768:	e3a03007 	mov	r3, #7
    976c:	e1c01113 	bic	r1, r0, r3, lsl r1
    9770:	e1a00005 	mov	r0, r5
    9774:	eb000141 	bl	9c80 <put32>
    9778:	e8bd8038 	pop	{r3, r4, r5, pc}
    977c:	cccccccd 	stclgt	12, cr12, [ip], {205}	; 0xcd
    9780:	00009cd4 	ldrdeq	r9, [r0], -r4

00009784 <gpio_read>:
    9784:	e92d4010 	push	{r4, lr}
    9788:	e1a04000 	mov	r4, r0
    978c:	e350001f 	cmp	r0, #31
    9790:	8a00000b 	bhi	97c4 <gpio_read+0x40>
    9794:	8a000003 	bhi	97a8 <gpio_read+0x24>
    9798:	e59f302c 	ldr	r3, [pc, #44]	; 97cc <gpio_read+0x48>
    979c:	e5930028 	ldr	r0, [r3, #40]	; 0x28
    97a0:	eb000142 	bl	9cb0 <get32>
    97a4:	ea000002 	b	97b4 <gpio_read+0x30>
    97a8:	e59f301c 	ldr	r3, [pc, #28]	; 97cc <gpio_read+0x48>
    97ac:	e593002c 	ldr	r0, [r3, #44]	; 0x2c
    97b0:	eb00013e 	bl	9cb0 <get32>
    97b4:	e204401f 	and	r4, r4, #31
    97b8:	e3a03001 	mov	r3, #1
    97bc:	e0000413 	and	r0, r0, r3, lsl r4
    97c0:	e8bd8010 	pop	{r4, pc}
    97c4:	e3e00000 	mvn	r0, #0
    97c8:	e8bd8010 	pop	{r4, pc}
    97cc:	00009cd4 	ldrdeq	r9, [r0], -r4

000097d0 <gpio_write>:
    97d0:	e92d4008 	push	{r3, lr}
    97d4:	e350001f 	cmp	r0, #31
    97d8:	88bd8008 	pophi	{r3, pc}
    97dc:	e3510000 	cmp	r1, #0
    97e0:	0a000001 	beq	97ec <gpio_write+0x1c>
    97e4:	ebffff97 	bl	9648 <gpio_set_on>
    97e8:	e8bd8008 	pop	{r3, pc}
    97ec:	ebffffa3 	bl	9680 <gpio_set_off>
    97f0:	e8bd8008 	pop	{r3, pc}

000097f4 <gpio_set_function>:
    97f4:	e92d4070 	push	{r4, r5, r6, lr}
    97f8:	e1a04000 	mov	r4, r0
    97fc:	e1a05001 	mov	r5, r1
    9800:	e3510007 	cmp	r1, #7
    9804:	9350001f 	cmpls	r0, #31
    9808:	88bd8070 	pophi	{r4, r5, r6, pc}
    980c:	e59f30b0 	ldr	r3, [pc, #176]	; 98c4 <gpio_set_function+0xd0>
    9810:	e0832093 	umull	r2, r3, r3, r0
    9814:	e1a031a3 	lsr	r3, r3, #3
    9818:	e3530005 	cmp	r3, #5
    981c:	979ff103 	ldrls	pc, [pc, r3, lsl #2]
    9820:	ea000017 	b	9884 <gpio_set_function+0x90>
    9824:	0000983c 	andeq	r9, r0, ip, lsr r8
    9828:	00009848 	andeq	r9, r0, r8, asr #16
    982c:	00009854 	andeq	r9, r0, r4, asr r8
    9830:	00009860 	andeq	r9, r0, r0, ror #16
    9834:	0000986c 	andeq	r9, r0, ip, ror #16
    9838:	00009878 	andeq	r9, r0, r8, ror r8
    983c:	e59f3084 	ldr	r3, [pc, #132]	; 98c8 <gpio_set_function+0xd4>
    9840:	e5936000 	ldr	r6, [r3]
    9844:	ea00000f 	b	9888 <gpio_set_function+0x94>
    9848:	e59f3078 	ldr	r3, [pc, #120]	; 98c8 <gpio_set_function+0xd4>
    984c:	e5936004 	ldr	r6, [r3, #4]
    9850:	ea00000c 	b	9888 <gpio_set_function+0x94>
    9854:	e59f306c 	ldr	r3, [pc, #108]	; 98c8 <gpio_set_function+0xd4>
    9858:	e5936008 	ldr	r6, [r3, #8]
    985c:	ea000009 	b	9888 <gpio_set_function+0x94>
    9860:	e59f3060 	ldr	r3, [pc, #96]	; 98c8 <gpio_set_function+0xd4>
    9864:	e593600c 	ldr	r6, [r3, #12]
    9868:	ea000006 	b	9888 <gpio_set_function+0x94>
    986c:	e59f3054 	ldr	r3, [pc, #84]	; 98c8 <gpio_set_function+0xd4>
    9870:	e5936010 	ldr	r6, [r3, #16]
    9874:	ea000003 	b	9888 <gpio_set_function+0x94>
    9878:	e59f3048 	ldr	r3, [pc, #72]	; 98c8 <gpio_set_function+0xd4>
    987c:	e5936014 	ldr	r6, [r3, #20]
    9880:	ea000000 	b	9888 <gpio_set_function+0x94>
    9884:	e3a06000 	mov	r6, #0
    9888:	e1a00006 	mov	r0, r6
    988c:	eb000107 	bl	9cb0 <get32>
    9890:	e59f302c 	ldr	r3, [pc, #44]	; 98c4 <gpio_set_function+0xd0>
    9894:	e0832493 	umull	r2, r3, r3, r4
    9898:	e1a031a3 	lsr	r3, r3, #3
    989c:	e0833103 	add	r3, r3, r3, lsl #2
    98a0:	e1a03083 	lsl	r3, r3, #1
    98a4:	e0633004 	rsb	r3, r3, r4
    98a8:	e0833083 	add	r3, r3, r3, lsl #1
    98ac:	e3a01007 	mov	r1, #7
    98b0:	e1c01311 	bic	r1, r0, r1, lsl r3
    98b4:	e1a00006 	mov	r0, r6
    98b8:	e1811315 	orr	r1, r1, r5, lsl r3
    98bc:	eb0000ef 	bl	9c80 <put32>
    98c0:	e8bd8070 	pop	{r4, r5, r6, pc}
    98c4:	cccccccd 	stclgt	12, cr12, [ip], {205}	; 0xcd
    98c8:	00009cd4 	ldrdeq	r9, [r0], -r4

000098cc <gpio_toggle>:
    98cc:	e92d4008 	push	{r3, lr}
    98d0:	e350001f 	cmp	r0, #31
    98d4:	88bd8008 	pophi	{r3, pc}
    98d8:	959f3020 	ldrls	r3, [pc, #32]	; 9900 <gpio_toggle+0x34>
    98dc:	95932018 	ldrls	r2, [r3, #24]
    98e0:	859f3018 	ldrhi	r3, [pc, #24]	; 9900 <gpio_toggle+0x34>
    98e4:	8593201c 	ldrhi	r2, [r3, #28]
    98e8:	e200301f 	and	r3, r0, #31
    98ec:	e1a00002 	mov	r0, r2
    98f0:	e3a01001 	mov	r1, #1
    98f4:	e1a01311 	lsl	r1, r1, r3
    98f8:	eb0000e0 	bl	9c80 <put32>
    98fc:	e8bd8008 	pop	{r3, pc}
    9900:	00009cd4 	ldrdeq	r9, [r0], -r4

00009904 <is_gpio_int>:
    9904:	e92d4008 	push	{r3, lr}
    9908:	e59f301c 	ldr	r3, [pc, #28]	; 992c <is_gpio_int+0x28>
    990c:	e5930030 	ldr	r0, [r3, #48]	; 0x30
    9910:	eb0000e6 	bl	9cb0 <get32>
    9914:	e3500000 	cmp	r0, #0
    9918:	0a000001 	beq	9924 <is_gpio_int+0x20>
    991c:	e3a00001 	mov	r0, #1
    9920:	e8bd8008 	pop	{r3, pc}
    9924:	e3a00000 	mov	r0, #0
    9928:	e8bd8008 	pop	{r3, pc}
    992c:	00009cd4 	ldrdeq	r9, [r0], -r4

00009930 <gpio_int_rising_edge>:
    9930:	e92d4038 	push	{r3, r4, r5, lr}
    9934:	e1a04000 	mov	r4, r0
    9938:	e350001f 	cmp	r0, #31
    993c:	88bd8038 	pophi	{r3, r4, r5, pc}
    9940:	eb0000c8 	bl	9c68 <dev_barrier>
    9944:	e354001f 	cmp	r4, #31
    9948:	8a000007 	bhi	996c <gpio_int_rising_edge+0x3c>
    994c:	e59f505c 	ldr	r5, [pc, #92]	; 99b0 <gpio_int_rising_edge+0x80>
    9950:	e5950034 	ldr	r0, [r5, #52]	; 0x34
    9954:	eb0000d5 	bl	9cb0 <get32>
    9958:	e3a01001 	mov	r1, #1
    995c:	e1801411 	orr	r1, r0, r1, lsl r4
    9960:	e5950034 	ldr	r0, [r5, #52]	; 0x34
    9964:	eb0000c5 	bl	9c80 <put32>
    9968:	ea000007 	b	998c <gpio_int_rising_edge+0x5c>
    996c:	e59f503c 	ldr	r5, [pc, #60]	; 99b0 <gpio_int_rising_edge+0x80>
    9970:	e5950038 	ldr	r0, [r5, #56]	; 0x38
    9974:	eb0000cd 	bl	9cb0 <get32>
    9978:	e204401f 	and	r4, r4, #31
    997c:	e3a01001 	mov	r1, #1
    9980:	e1801411 	orr	r1, r0, r1, lsl r4
    9984:	e5950038 	ldr	r0, [r5, #56]	; 0x38
    9988:	eb0000bc 	bl	9c80 <put32>
    998c:	eb0000b5 	bl	9c68 <dev_barrier>
    9990:	e59f4018 	ldr	r4, [pc, #24]	; 99b0 <gpio_int_rising_edge+0x80>
    9994:	e594003c 	ldr	r0, [r4, #60]	; 0x3c
    9998:	eb0000c4 	bl	9cb0 <get32>
    999c:	e3801802 	orr	r1, r0, #131072	; 0x20000
    99a0:	e594003c 	ldr	r0, [r4, #60]	; 0x3c
    99a4:	eb0000b5 	bl	9c80 <put32>
    99a8:	eb0000ae 	bl	9c68 <dev_barrier>
    99ac:	e8bd8038 	pop	{r3, r4, r5, pc}
    99b0:	00009cd4 	ldrdeq	r9, [r0], -r4

000099b4 <gpio_int_falling_edge>:
    99b4:	e92d4038 	push	{r3, r4, r5, lr}
    99b8:	e1a04000 	mov	r4, r0
    99bc:	e350001f 	cmp	r0, #31
    99c0:	88bd8038 	pophi	{r3, r4, r5, pc}
    99c4:	eb0000a7 	bl	9c68 <dev_barrier>
    99c8:	e354001f 	cmp	r4, #31
    99cc:	8a000007 	bhi	99f0 <gpio_int_falling_edge+0x3c>
    99d0:	e59f505c 	ldr	r5, [pc, #92]	; 9a34 <gpio_int_falling_edge+0x80>
    99d4:	e5950040 	ldr	r0, [r5, #64]	; 0x40
    99d8:	eb0000b4 	bl	9cb0 <get32>
    99dc:	e3a01001 	mov	r1, #1
    99e0:	e1801411 	orr	r1, r0, r1, lsl r4
    99e4:	e5950040 	ldr	r0, [r5, #64]	; 0x40
    99e8:	eb0000a4 	bl	9c80 <put32>
    99ec:	ea000007 	b	9a10 <gpio_int_falling_edge+0x5c>
    99f0:	e59f503c 	ldr	r5, [pc, #60]	; 9a34 <gpio_int_falling_edge+0x80>
    99f4:	e5950044 	ldr	r0, [r5, #68]	; 0x44
    99f8:	eb0000ac 	bl	9cb0 <get32>
    99fc:	e204401f 	and	r4, r4, #31
    9a00:	e3a01001 	mov	r1, #1
    9a04:	e1801411 	orr	r1, r0, r1, lsl r4
    9a08:	e5950044 	ldr	r0, [r5, #68]	; 0x44
    9a0c:	eb00009b 	bl	9c80 <put32>
    9a10:	eb000094 	bl	9c68 <dev_barrier>
    9a14:	e59f4018 	ldr	r4, [pc, #24]	; 9a34 <gpio_int_falling_edge+0x80>
    9a18:	e594003c 	ldr	r0, [r4, #60]	; 0x3c
    9a1c:	eb0000a3 	bl	9cb0 <get32>
    9a20:	e3801601 	orr	r1, r0, #1048576	; 0x100000
    9a24:	e594003c 	ldr	r0, [r4, #60]	; 0x3c
    9a28:	eb000094 	bl	9c80 <put32>
    9a2c:	eb00008d 	bl	9c68 <dev_barrier>
    9a30:	e8bd8038 	pop	{r3, r4, r5, pc}
    9a34:	00009cd4 	ldrdeq	r9, [r0], -r4

00009a38 <gpio_event_detected>:
    9a38:	e92d4010 	push	{r4, lr}
    9a3c:	e1a04000 	mov	r4, r0
    9a40:	e350001f 	cmp	r0, #31
    9a44:	8a000019 	bhi	9ab0 <gpio_event_detected+0x78>
    9a48:	eb000086 	bl	9c68 <dev_barrier>
    9a4c:	e354001f 	cmp	r4, #31
    9a50:	8a000008 	bhi	9a78 <gpio_event_detected+0x40>
    9a54:	e59f305c 	ldr	r3, [pc, #92]	; 9ab8 <gpio_event_detected+0x80>
    9a58:	e5930048 	ldr	r0, [r3, #72]	; 0x48
    9a5c:	eb000093 	bl	9cb0 <get32>
    9a60:	e3a03001 	mov	r3, #1
    9a64:	e0103413 	ands	r3, r0, r3, lsl r4
    9a68:	0a00000d 	beq	9aa4 <gpio_event_detected+0x6c>
    9a6c:	eb00007d 	bl	9c68 <dev_barrier>
    9a70:	e3a00001 	mov	r0, #1
    9a74:	e8bd8010 	pop	{r4, pc}
    9a78:	e59f3038 	ldr	r3, [pc, #56]	; 9ab8 <gpio_event_detected+0x80>
    9a7c:	e593004c 	ldr	r0, [r3, #76]	; 0x4c
    9a80:	eb00008a 	bl	9cb0 <get32>
    9a84:	e3a03001 	mov	r3, #1
    9a88:	e0004413 	and	r4, r0, r3, lsl r4
    9a8c:	eb000075 	bl	9c68 <dev_barrier>
    9a90:	e3540000 	cmp	r4, #0
    9a94:	0a000002 	beq	9aa4 <gpio_event_detected+0x6c>
    9a98:	eb000072 	bl	9c68 <dev_barrier>
    9a9c:	e3a00001 	mov	r0, #1
    9aa0:	e8bd8010 	pop	{r4, pc}
    9aa4:	eb00006f 	bl	9c68 <dev_barrier>
    9aa8:	e3a00000 	mov	r0, #0
    9aac:	e8bd8010 	pop	{r4, pc}
    9ab0:	e3e00000 	mvn	r0, #0
    9ab4:	e8bd8010 	pop	{r4, pc}
    9ab8:	00009cd4 	ldrdeq	r9, [r0], -r4

00009abc <gpio_event_clear>:
    9abc:	e92d4010 	push	{r4, lr}
    9ac0:	e1a04000 	mov	r4, r0
    9ac4:	e350001f 	cmp	r0, #31
    9ac8:	88bd8010 	pophi	{r4, pc}
    9acc:	eb000065 	bl	9c68 <dev_barrier>
    9ad0:	e354001f 	cmp	r4, #31
    9ad4:	8a000005 	bhi	9af0 <gpio_event_clear+0x34>
    9ad8:	e59f3030 	ldr	r3, [pc, #48]	; 9b10 <gpio_event_clear+0x54>
    9adc:	e5930048 	ldr	r0, [r3, #72]	; 0x48
    9ae0:	e3a01001 	mov	r1, #1
    9ae4:	e1a01411 	lsl	r1, r1, r4
    9ae8:	eb000064 	bl	9c80 <put32>
    9aec:	ea000005 	b	9b08 <gpio_event_clear+0x4c>
    9af0:	e204401f 	and	r4, r4, #31
    9af4:	e59f3014 	ldr	r3, [pc, #20]	; 9b10 <gpio_event_clear+0x54>
    9af8:	e593004c 	ldr	r0, [r3, #76]	; 0x4c
    9afc:	e3a01001 	mov	r1, #1
    9b00:	e1a01411 	lsl	r1, r1, r4
    9b04:	eb00005d 	bl	9c80 <put32>
    9b08:	eb000056 	bl	9c68 <dev_barrier>
    9b0c:	e8bd8010 	pop	{r4, pc}
    9b10:	00009cd4 	ldrdeq	r9, [r0], -r4

00009b14 <uart_init>:
    9b14:	e92d4038 	push	{r3, r4, r5, lr}
    9b18:	eb000052 	bl	9c68 <dev_barrier>
    9b1c:	e3a0000e 	mov	r0, #14
    9b20:	e3a01002 	mov	r1, #2
    9b24:	ebffff32 	bl	97f4 <gpio_set_function>
    9b28:	e3a0000f 	mov	r0, #15
    9b2c:	e3a01002 	mov	r1, #2
    9b30:	ebffff2f 	bl	97f4 <gpio_set_function>
    9b34:	eb00004b 	bl	9c68 <dev_barrier>
    9b38:	e59f4068 	ldr	r4, [pc, #104]	; 9ba8 <uart_init+0x94>
    9b3c:	e5945000 	ldr	r5, [r4]
    9b40:	e1a00005 	mov	r0, r5
    9b44:	eb000059 	bl	9cb0 <get32>
    9b48:	e3801001 	orr	r1, r0, #1
    9b4c:	e1a00005 	mov	r0, r5
    9b50:	eb00004a 	bl	9c80 <put32>
    9b54:	eb000043 	bl	9c68 <dev_barrier>
    9b58:	e5940004 	ldr	r0, [r4, #4]
    9b5c:	e3a01000 	mov	r1, #0
    9b60:	eb000046 	bl	9c80 <put32>
    9b64:	e5940008 	ldr	r0, [r4, #8]
    9b68:	e3a01000 	mov	r1, #0
    9b6c:	eb000043 	bl	9c80 <put32>
    9b70:	e594000c 	ldr	r0, [r4, #12]
    9b74:	e3a01006 	mov	r1, #6
    9b78:	eb000040 	bl	9c80 <put32>
    9b7c:	e5940010 	ldr	r0, [r4, #16]
    9b80:	e3a01003 	mov	r1, #3
    9b84:	eb00003d 	bl	9c80 <put32>
    9b88:	e5940014 	ldr	r0, [r4, #20]
    9b8c:	e59f1018 	ldr	r1, [pc, #24]	; 9bac <uart_init+0x98>
    9b90:	eb00003a 	bl	9c80 <put32>
    9b94:	e5940004 	ldr	r0, [r4, #4]
    9b98:	e3a01003 	mov	r1, #3
    9b9c:	eb000037 	bl	9c80 <put32>
    9ba0:	eb000030 	bl	9c68 <dev_barrier>
    9ba4:	e8bd8038 	pop	{r3, r4, r5, pc}
    9ba8:	00009d34 	andeq	r9, r0, r4, lsr sp
    9bac:	0000010e 	andeq	r0, r0, lr, lsl #2

00009bb0 <uart_can_getc>:
    9bb0:	e92d4008 	push	{r3, lr}
    9bb4:	e59f300c 	ldr	r3, [pc, #12]	; 9bc8 <uart_can_getc+0x18>
    9bb8:	e5930018 	ldr	r0, [r3, #24]
    9bbc:	eb00003b 	bl	9cb0 <get32>
    9bc0:	e2000001 	and	r0, r0, #1
    9bc4:	e8bd8008 	pop	{r3, pc}
    9bc8:	00009d34 	andeq	r9, r0, r4, lsr sp

00009bcc <uart_getc>:
    9bcc:	e92d4008 	push	{r3, lr}
    9bd0:	ebfffff6 	bl	9bb0 <uart_can_getc>
    9bd4:	e3500000 	cmp	r0, #0
    9bd8:	0afffffc 	beq	9bd0 <uart_getc+0x4>
    9bdc:	e59f300c 	ldr	r3, [pc, #12]	; 9bf0 <uart_getc+0x24>
    9be0:	e593001c 	ldr	r0, [r3, #28]
    9be4:	eb000031 	bl	9cb0 <get32>
    9be8:	e6ef0070 	uxtb	r0, r0
    9bec:	e8bd8008 	pop	{r3, pc}
    9bf0:	00009d34 	andeq	r9, r0, r4, lsr sp

00009bf4 <uart_can_putc>:
    9bf4:	e92d4008 	push	{r3, lr}
    9bf8:	e59f300c 	ldr	r3, [pc, #12]	; 9c0c <uart_can_putc+0x18>
    9bfc:	e5930018 	ldr	r0, [r3, #24]
    9c00:	eb00002a 	bl	9cb0 <get32>
    9c04:	e2000020 	and	r0, r0, #32
    9c08:	e8bd8008 	pop	{r3, pc}
    9c0c:	00009d34 	andeq	r9, r0, r4, lsr sp

00009c10 <uart_putc>:
    9c10:	e92d4010 	push	{r4, lr}
    9c14:	e1a04000 	mov	r4, r0
    9c18:	ebfffff5 	bl	9bf4 <uart_can_putc>
    9c1c:	e3500000 	cmp	r0, #0
    9c20:	0afffffc 	beq	9c18 <uart_putc+0x8>
    9c24:	e59f300c 	ldr	r3, [pc, #12]	; 9c38 <uart_putc+0x28>
    9c28:	e593001c 	ldr	r0, [r3, #28]
    9c2c:	e1a01004 	mov	r1, r4
    9c30:	eb000012 	bl	9c80 <put32>
    9c34:	e8bd8010 	pop	{r4, pc}
    9c38:	00009d34 	andeq	r9, r0, r4, lsr sp

00009c3c <uart_has_data>:
    9c3c:	e92d4008 	push	{r3, lr}
    9c40:	ebffffda 	bl	9bb0 <uart_can_getc>
    9c44:	e8bd8008 	pop	{r3, pc}

00009c48 <uart_getc_async>:
    9c48:	e92d4008 	push	{r3, lr}
    9c4c:	ebfffffa 	bl	9c3c <uart_has_data>
    9c50:	e3500000 	cmp	r0, #0
    9c54:	0a000001 	beq	9c60 <uart_getc_async+0x18>
    9c58:	ebffffdb 	bl	9bcc <uart_getc>
    9c5c:	e8bd8008 	pop	{r3, pc}
    9c60:	e3e00000 	mvn	r0, #0
    9c64:	e8bd8008 	pop	{r3, pc}

00009c68 <dev_barrier>:
    9c68:	ea000002 	b	9c78 <dsb>

00009c6c <dmb>:
    9c6c:	e3a00000 	mov	r0, #0
    9c70:	ee070fba 	mcr	15, 0, r0, cr7, cr10, {5}
    9c74:	e12fff1e 	bx	lr

00009c78 <dsb>:
    9c78:	ee070f9a 	mcr	15, 0, r0, cr7, cr10, {4}
    9c7c:	e12fff1e 	bx	lr

00009c80 <put32>:
    9c80:	e5801000 	str	r1, [r0]
    9c84:	e12fff1e 	bx	lr

00009c88 <PUT32>:
    9c88:	e5801000 	str	r1, [r0]
    9c8c:	e12fff1e 	bx	lr

00009c90 <put16>:
    9c90:	e1c010b0 	strh	r1, [r0]
    9c94:	e12fff1e 	bx	lr

00009c98 <PUT16>:
    9c98:	e1c010b0 	strh	r1, [r0]
    9c9c:	e12fff1e 	bx	lr

00009ca0 <put8>:
    9ca0:	e5c01000 	strb	r1, [r0]
    9ca4:	e12fff1e 	bx	lr

00009ca8 <PUT8>:
    9ca8:	e5c01000 	strb	r1, [r0]
    9cac:	e12fff1e 	bx	lr

00009cb0 <get32>:
    9cb0:	e5900000 	ldr	r0, [r0]
    9cb4:	e12fff1e 	bx	lr

00009cb8 <GET32>:
    9cb8:	e5900000 	ldr	r0, [r0]
    9cbc:	e12fff1e 	bx	lr

00009cc0 <GETPC>:
    9cc0:	e1a0000e 	mov	r0, lr
    9cc4:	e12fff1e 	bx	lr

00009cc8 <dummy>:
    9cc8:	e12fff1e 	bx	lr

Disassembly of section .data:

00009ccc <rpi_putchar>:
    9ccc:	00008e94 	muleq	r0, r4, lr

00009cd0 <putk>:
    9cd0:	00008ed0 	ldrdeq	r8, [r0], -r0

00009cd4 <GPFSEL0>:
    9cd4:	20200000 	eorcs	r0, r0, r0

00009cd8 <GPFSEL1>:
    9cd8:	20200004 	eorcs	r0, r0, r4

00009cdc <GPFSEL2>:
    9cdc:	20200008 	eorcs	r0, r0, r8

00009ce0 <GPFSEL3>:
    9ce0:	2020000c 	eorcs	r0, r0, ip

00009ce4 <GPFSEL4>:
    9ce4:	20200010 	eorcs	r0, r0, r0, lsl r0

00009ce8 <GPFSEL5>:
    9ce8:	20200014 	eorcs	r0, r0, r4, lsl r0

00009cec <GPSET0>:
    9cec:	2020001c 	eorcs	r0, r0, ip, lsl r0

00009cf0 <GPSET1>:
    9cf0:	20200020 	eorcs	r0, r0, r0, lsr #32

00009cf4 <GPCLR0>:
    9cf4:	20200028 	eorcs	r0, r0, r8, lsr #32

00009cf8 <GPCLR1>:
    9cf8:	2020002c 	eorcs	r0, r0, ip, lsr #32

00009cfc <GPLEV0>:
    9cfc:	20200034 	eorcs	r0, r0, r4, lsr r0

00009d00 <GPLEV1>:
    9d00:	20200038 	eorcs	r0, r0, r8, lsr r0

00009d04 <IRQ_PENDING_2>:
    9d04:	2000b208 	andcs	fp, r0, r8, lsl #4

00009d08 <GPREN0>:
    9d08:	2020004c 	eorcs	r0, r0, ip, asr #32

00009d0c <GPREN1>:
    9d0c:	20200050 	eorcs	r0, r0, r0, asr r0

00009d10 <ENABLE_IRQS_2>:
    9d10:	2000b214 	andcs	fp, r0, r4, lsl r2

00009d14 <GPFEN0>:
    9d14:	20200058 	eorcs	r0, r0, r8, asr r0

00009d18 <GPFEN1>:
    9d18:	2020005c 	eorcs	r0, r0, ip, asr r0

00009d1c <GPEDS0>:
    9d1c:	20200040 	eorcs	r0, r0, r0, asr #32

00009d20 <GPEDS1>:
    9d20:	20200044 	eorcs	r0, r0, r4, asr #32

00009d24 <IRQ_PENDING_1>:
    9d24:	2000b204 	andcs	fp, r0, r4, lsl #4

00009d28 <gpio_clr0>:
    9d28:	20200028 	eorcs	r0, r0, r8, lsr #32

00009d2c <gpio_set0>:
    9d2c:	2020001c 	eorcs	r0, r0, ip, lsl r0

00009d30 <gpio_fsel0>:
    9d30:	20200000 	eorcs	r0, r0, r0

00009d34 <AUX_ENABLES>:
    9d34:	20215004 	eorcs	r5, r1, r4

00009d38 <AUX_MU_CNTL_REG>:
    9d38:	20215060 	eorcs	r5, r1, r0, rrx

00009d3c <AUX_MU_IER_REG>:
    9d3c:	20215044 	eorcs	r5, r1, r4, asr #32

00009d40 <AUX_MU_IIR_REG>:
    9d40:	20215048 	eorcs	r5, r1, r8, asr #32

00009d44 <AUX_MU_LCR_REG>:
    9d44:	2021504c 	eorcs	r5, r1, ip, asr #32

00009d48 <AUX_MU_BAUD_REG>:
    9d48:	20215068 	eorcs	r5, r1, r8, rrx

00009d4c <AUX_MU_LSR_REG>:
    9d4c:	20215054 	eorcs	r5, r1, r4, asr r0

00009d50 <AUX_MU_IO_REG>:
    9d50:	20215040 	eorcs	r5, r1, r0, asr #32

00009d54 <AUX_MU_STAT_REG>:
    9d54:	20215064 	eorcs	r5, r1, r4, rrx

00009d58 <AUX_MU_SCRATCH>:
    9d58:	2021505c 	eorcs	r5, r1, ip, asr r0

00009d5c <AUX_MU_MSR_REG>:
    9d5c:	20215058 	eorcs	r5, r1, r8, asr r0

00009d60 <AUX_MU_MCR_REG>:
    9d60:	20215050 	eorcs	r5, r1, r0, asr r0

00009d64 <AUX_IRQ>:
    9d64:	20215000 	eorcs	r5, r1, r0

Disassembly of section .rodata:

00009d68 <__FUNCTION__.4247>:
    9d68:	6c637963 	stclvs	9, cr7, [r3], #-396	; 0xfffffe74
    9d6c:	705f7365 	subsvc	r7, pc, r5, ror #6
    9d70:	735f7265 	cmpvc	pc, #1342177286	; 0x50000006
    9d74:	00006365 	andeq	r6, r0, r5, ror #6
    9d78:	4f525245 	svcmi	0x00525245
    9d7c:	73253a52 	teqvc	r5, #335872	; 0x52000
    9d80:	3a73253a 	bcc	1cd3270 <__bss_end__+0x1cc8f90>
    9d84:	203a6425 	eorscs	r6, sl, r5, lsr #8
    9d88:	534c4146 	movtpl	r4, #49478	; 0xc146
    9d8c:	733c2845 	teqvc	ip, #4521984	; 0x450000
    9d90:	32203c20 	eorcc	r3, r0, #32, 24	; 0x2000
    9d94:	203a293e 	eorscs	r2, sl, lr, lsr r9
    9d98:	6c6c6977 	stclvs	9, cr6, [ip], #-476	; 0xfffffe24
    9d9c:	65766f20 	ldrbvs	r6, [r6, #-3872]!	; 0xf20
    9da0:	6f6c6672 	svcvs	0x006c6672
    9da4:	00000a77 	andeq	r0, r0, r7, ror sl
    9da8:	706f6373 	rsbvc	r6, pc, r3, ror r3	; <UNPREDICTABLE>
    9dac:	00632e65 	rsbeq	r2, r3, r5, ror #28
    9db0:	61206d61 	teqvs	r0, r1, ror #26
    9db4:	696c6320 	stmdbvs	ip!, {r5, r8, r9, sp, lr}^
    9db8:	20746e65 	rsbscs	r6, r4, r5, ror #28
    9dbc:	0000000a 	andeq	r0, r0, sl

00009dc0 <__FUNCTION__.4271>:
    9dc0:	74696d65 	strbtvc	r6, [r9], #-3429	; 0xd65
    9dc4:	00000000 	andeq	r0, r0, r0

00009dc8 <__FUNCTION__.4219>:
    9dc8:	5f697072 	svcpl	0x00697072
    9dcc:	5f746573 	svcpl	0x00746573
    9dd0:	7074756f 	rsbsvc	r7, r4, pc, ror #10
    9dd4:	00007475 	andeq	r7, r0, r5, ror r4

00009dd8 <__FUNCTION__.4293>:
    9dd8:	705f6176 	subsvc	r6, pc, r6, ror r1	; <UNPREDICTABLE>
    9ddc:	746e6972 	strbtvc	r6, [lr], #-2418	; 0x972
    9de0:	0000006b 	andeq	r0, r0, fp, rrx
    9de4:	494e4150 	stmdbmi	lr, {r4, r6, r8, lr}^
    9de8:	73253a43 	teqvc	r5, #274432	; 0x43000
    9dec:	3a73253a 	bcc	1cd32dc <__bss_end__+0x1cc8ffc>
    9df0:	303a6425 	eorscc	r6, sl, r5, lsr #8
    9df4:	0000000a 	andeq	r0, r0, sl
    9df8:	6362696c 	cmnvs	r2, #108, 18	; 0x1b0000
    9dfc:	2d61762f 	stclcs	6, cr7, [r1, #-188]!	; 0xffffff44
    9e00:	6e697270 	mcrvs	2, 3, r7, cr9, cr0, {3}
    9e04:	632e6b74 	teqvs	lr, #116, 22	; 0x1d000
    9e08:	00000000 	andeq	r0, r0, r0
    9e0c:	33323130 	teqcc	r2, #48, 2
    9e10:	37363534 			; <UNDEFINED> instruction: 0x37363534
    9e14:	00003938 	andeq	r3, r0, r8, lsr r9
    9e18:	33323130 	teqcc	r2, #48, 2
    9e1c:	37363534 			; <UNDEFINED> instruction: 0x37363534
    9e20:	62613938 	rsbvs	r3, r1, #56, 18	; 0xe0000
    9e24:	66656463 	strbtvs	r6, [r5], -r3, ror #8
    9e28:	00000000 	andeq	r0, r0, r0
    9e2c:	00003130 	andeq	r3, r0, r0, lsr r1
    9e30:	494e4150 	stmdbmi	lr, {r4, r6, r8, lr}^
    9e34:	73253a43 	teqvc	r5, #274432	; 0x43000
    9e38:	3a73253a 	bcc	1cd3328 <__bss_end__+0x1cc9048>
    9e3c:	703a6425 	eorsvc	r6, sl, r5, lsr #8
    9e40:	5f637475 	svcpl	0x00637475
    9e44:	000a7066 	andeq	r7, sl, r6, rrx
    9e48:	494e4150 	stmdbmi	lr, {r4, r6, r8, lr}^
    9e4c:	73253a43 	teqvc	r5, #274432	; 0x43000
    9e50:	3a73253a 	bcc	1cd3340 <__bss_end__+0x1cc9060>
    9e54:	773a6425 	ldrvc	r6, [sl, -r5, lsr #8]!
    9e58:	68746469 	ldmdavs	r4!, {r0, r3, r5, r6, sl, sp, lr}^
    9e5c:	33203c20 	teqcc	r0, #32, 24	; 0x2000
    9e60:	00000a32 	andeq	r0, r0, r2, lsr sl
    9e64:	494e4150 	stmdbmi	lr, {r4, r6, r8, lr}^
    9e68:	73253a43 	teqvc	r5, #274432	; 0x43000
    9e6c:	3a73253a 	bcc	1cd335c <__bss_end__+0x1cc907c>
    9e70:	663a6425 	ldrtvs	r6, [sl], -r5, lsr #8
    9e74:	74616f6c 	strbtvc	r6, [r1], #-3948	; 0xf6c
    9e78:	746f6e20 	strbtvc	r6, [pc], #-3616	; 9e80 <__FUNCTION__.4293+0xa8>
    9e7c:	616e6520 	cmnvs	lr, r0, lsr #10
    9e80:	64656c62 	strbtvs	r6, [r5], #-3170	; 0xc62
    9e84:	0a212121 	beq	852310 <__bss_end__+0x848030>
    9e88:	00000000 	andeq	r0, r0, r0
    9e8c:	494e4150 	stmdbmi	lr, {r4, r6, r8, lr}^
    9e90:	73253a43 	teqvc	r5, #274432	; 0x43000
    9e94:	3a73253a 	bcc	1cd3384 <__bss_end__+0x1cc90a4>
    9e98:	703a6425 	eorsvc	r6, sl, r5, lsr #8
    9e9c:	746e6972 	strbtvc	r6, [lr], #-2418	; 0x972
    9ea0:	6e203a6b 	vnmulvs.f32	s6, s0, s23
    9ea4:	6820746f 	stmdavs	r0!, {r0, r1, r2, r3, r5, r6, sl, ip, sp, lr}
    9ea8:	6c646e61 	stclvs	14, cr6, [r4], #-388	; 0xfffffe7c
    9eac:	20676e69 	rsbcs	r6, r7, r9, ror #28
    9eb0:	63657073 	cmnvs	r5, #115	; 0x73
    9eb4:	65696669 	strbvs	r6, [r9, #-1641]!	; 0x669
    9eb8:	25272072 	strcs	r2, [r7, #-114]!	; 0x72
    9ebc:	0a0a2763 	beq	293c50 <__bss_end__+0x289970>
    9ec0:	00000000 	andeq	r0, r0, r0
    9ec4:	454e4f44 	strbmi	r4, [lr, #-3908]	; 0xf44
    9ec8:	0a212121 	beq	852354 <__bss_end__+0x848074>
    9ecc:	00000000 	andeq	r0, r0, r0

Disassembly of section .bss:

00009ed0 <__bss_start__>:
	...

00009ee0 <buf.4219>:
	...

Disassembly of section .ARM.attributes:

00000000 <.ARM.attributes>:
   0:	00002a41 	andeq	r2, r0, r1, asr #20
   4:	61656100 	cmnvs	r5, r0, lsl #2
   8:	01006962 	tsteq	r0, r2, ror #18
   c:	00000020 	andeq	r0, r0, r0, lsr #32
  10:	4b5a3605 	blmi	168d82c <__bss_end__+0x168354c>
  14:	08070600 	stmdaeq	r7, {r9, sl}
  18:	12010901 	andne	r0, r1, #16384	; 0x4000
  1c:	15011404 	strne	r1, [r1, #-1028]	; 0x404
  20:	18031701 	stmdane	r3, {r0, r8, r9, sl, ip}
  24:	22011a01 	andcs	r1, r1, #4096	; 0x1000
  28:	Address 0x0000000000000028 is out of bounds.


Disassembly of section .comment:

00000000 <.comment>:
   0:	3a434347 	bcc	10d0d24 <__bss_end__+0x10c6a44>
   4:	4e472820 	cdpmi	8, 4, cr2, cr7, cr0, {1}
   8:	34202955 	strtcc	r2, [r0], #-2389	; 0x955
   c:	332e382e 	teqcc	lr, #3014656	; 0x2e0000
	...

Disassembly of section .debug_info:

00000000 <.debug_info>:
       0:	00001730 	andeq	r1, r0, r0, lsr r7
       4:	00000004 	andeq	r0, r0, r4
       8:	01040000 	mrseq	r0, (UNDEF: 4)
       c:	000000ad 	andeq	r0, r0, sp, lsr #1
      10:	00029501 	andeq	r9, r2, r1, lsl #10
      14:	00023000 	andeq	r3, r2, r0
      18:	00801000 	addeq	r1, r0, r0
      1c:	000e2c00 	andeq	r2, lr, r0, lsl #24
      20:	00000000 	andeq	r0, r0, r0
      24:	05040200 	streq	r0, [r4, #-512]	; 0x200
      28:	00746e69 	rsbseq	r6, r4, r9, ror #28
      2c:	3e070403 	cdpcc	4, 0, cr0, cr7, cr3, {0}
      30:	03000000 	movweq	r0, #0
      34:	01b40601 			; <UNDEFINED> instruction: 0x01b40601
      38:	02030000 	andeq	r0, r3, #0
      3c:	0001c005 	andeq	ip, r1, r5
      40:	05040300 	streq	r0, [r4, #-768]	; 0x300
      44:	00000061 	andeq	r0, r0, r1, rrx
      48:	5c050803 	stcpl	8, cr0, [r5], {3}
      4c:	04000000 	streq	r0, [r0], #-0
      50:	00000228 	andeq	r0, r0, r8, lsr #4
      54:	005a2e02 	subseq	r2, sl, r2, lsl #28
      58:	01030000 	mrseq	r0, (UNDEF: 3)
      5c:	0001b208 	andeq	fp, r1, r8, lsl #4
      60:	07020300 	streq	r0, [r2, -r0, lsl #6]
      64:	00000160 	andeq	r0, r0, r0, ror #2
      68:	39070403 	stmdbcc	r7, {r0, r1, sl}
      6c:	03000000 	movweq	r0, #0
      70:	00340708 	eorseq	r0, r4, r8, lsl #14
      74:	04030000 	streq	r0, [r3], #-0
      78:	00019207 	andeq	r9, r1, r7, lsl #4
      7c:	08010300 	stmdaeq	r1, {r8, r9}
      80:	000001bb 			; <UNDEFINED> instruction: 0x000001bb
      84:	008a0405 	addeq	r0, sl, r5, lsl #8
      88:	7d060000 	stcvc	0, cr0, [r6, #-0]
      8c:	07000000 	streq	r0, [r0, -r0]
      90:	c61a0110 			; <UNDEFINED> instruction: 0xc61a0110
      94:	08000000 	stmdaeq	r0, {}	; <UNPREDICTABLE>
      98:	01007874 	tsteq	r0, r4, ror r8
      9c:	0000251b 	andeq	r2, r0, fp, lsl r5
      a0:	72080000 	andvc	r0, r8, #0
      a4:	1b010078 	blne	4028c <__bss_end__+0x35fac>
      a8:	00000025 	andeq	r0, r0, r5, lsr #32
      ac:	01e20904 	mvneq	r0, r4, lsl #18
      b0:	1c010000 	stcne	0, cr0, [r1], {-0}
      b4:	0000002c 	andeq	r0, r0, ip, lsr #32
      b8:	02870908 	addeq	r0, r7, #8, 18	; 0x20000
      bc:	1d010000 	stcne	0, cr0, [r1, #-0]
      c0:	0000002c 	andeq	r0, r0, ip, lsr #32
      c4:	a504000c 	strge	r0, [r4, #-12]
      c8:	01000001 	tsteq	r0, r1
      cc:	00008f1e 	andeq	r8, r0, lr, lsl pc
      d0:	004b0a00 	subeq	r0, fp, r0, lsl #20
      d4:	27010000 	strcs	r0, [r1, -r0]
      d8:	0000e903 	andeq	lr, r0, r3, lsl #18
      dc:	69700b00 	ldmdbvs	r0!, {r8, r9, fp}^
      e0:	2701006e 	strcs	r0, [r1, -lr, rrx]
      e4:	0000002c 	andeq	r0, r0, ip, lsr #32
      e8:	009b0a00 	addseq	r0, fp, r0, lsl #20
      ec:	2c010000 	stccs	0, cr0, [r1], {-0}
      f0:	00010103 	andeq	r0, r1, r3, lsl #2
      f4:	69700b00 	ldmdbvs	r0!, {r8, r9, fp}^
      f8:	2c01006e 	stccs	0, cr0, [r1], {110}	; 0x6e
      fc:	0000002c 	andeq	r0, r0, ip, lsr #32
     100:	00190a00 	andseq	r0, r9, r0, lsl #20
     104:	31010000 	mrscc	r0, (UNDEF: 1)
     108:	00012203 	andeq	r2, r1, r3, lsl #4
     10c:	69700b00 	ldmdbvs	r0!, {r8, r9, fp}^
     110:	3101006e 	tstcc	r1, lr, rrx
     114:	0000002c 	andeq	r0, r0, ip, lsr #32
     118:	0100760b 	tsteq	r0, fp, lsl #12
     11c:	00002c31 	andeq	r2, r0, r1, lsr ip
     120:	800a0000 	andhi	r0, sl, r0
     124:	01000002 	tsteq	r0, r2
     128:	01620195 			; <UNDEFINED> instruction: 0x01620195
     12c:	740b0000 	strvc	r0, [fp], #-0
     130:	95010078 	strls	r0, [r1, #-120]	; 0x78
     134:	0000002c 	andeq	r0, r0, ip, lsr #32
     138:	0078720b 	rsbseq	r7, r8, fp, lsl #4
     13c:	002c9501 	eoreq	r9, ip, r1, lsl #10
     140:	6e0b0000 	cdpvs	0, 0, cr0, cr11, cr0, {0}
     144:	2c950100 	ldfcss	f0, [r5], {0}
     148:	0c000000 	stceq	0, cr0, [r0], {-0}
     14c:	00000148 	andeq	r0, r0, r8, asr #2
     150:	002c9901 	eoreq	r9, ip, r1, lsl #18
     154:	0e0d0000 	cdpeq	0, 0, cr0, cr13, cr0, {0}
     158:	9a010069 	bls	40304 <__bss_end__+0x36024>
     15c:	00000025 	andeq	r0, r0, r5, lsr #32
     160:	040f0000 	streq	r0, [pc], #-0	; 168 <_start-0x7e98>
     164:	01000001 	tsteq	r0, r1
     168:	02500177 	subseq	r0, r0, #-1073741795	; 0xc000001d
     16c:	a0100000 	andsge	r0, r0, r0
     170:	01000001 	tsteq	r0, r1
     174:	00025077 	andeq	r5, r2, r7, ror r0
     178:	07901000 	ldreq	r1, [r0, r0]
     17c:	77010000 	strvc	r0, [r1, -r0]
     180:	0000004f 	andeq	r0, r0, pc, asr #32
     184:	0100690e 	tsteq	r0, lr, lsl #18
     188:	00002c78 	andeq	r2, r0, r8, ror ip
     18c:	04ad0c00 	strteq	r0, [sp], #3072	; 0xc00
     190:	79010000 	stmdbvc	r1, {}	; <UNPREDICTABLE>
     194:	0000002c 	andeq	r0, r0, ip, lsr #32
     198:	0001a911 	andeq	sl, r1, r1, lsl r9
     19c:	019b0c00 	orrseq	r0, fp, r0, lsl #24
     1a0:	79010000 	stmdbvc	r1, {}	; <UNPREDICTABLE>
     1a4:	0000002c 	andeq	r0, r0, ip, lsr #32
     1a8:	01ba1100 			; <UNDEFINED> instruction: 0x01ba1100
     1ac:	9b0c0000 	blls	3001b4 <__bss_end__+0x2f5ed4>
     1b0:	01000001 	tsteq	r0, r1
     1b4:	00002c80 	andeq	r2, r0, r0, lsl #25
     1b8:	cb110000 	blgt	4401c0 <__bss_end__+0x435ee0>
     1bc:	0c000001 	stceq	0, cr0, [r0], {1}
     1c0:	0000019b 	muleq	r0, fp, r1
     1c4:	002c8201 	eoreq	r8, ip, r1, lsl #4
     1c8:	11000000 	mrsne	r0, (UNDEF: 0)
     1cc:	000001dc 	ldrdeq	r0, [r0], -ip
     1d0:	00019b0c 	andeq	r9, r1, ip, lsl #22
     1d4:	2c840100 	stfcss	f0, [r4], {0}
     1d8:	00000000 	andeq	r0, r0, r0
     1dc:	0001ed11 	andeq	lr, r1, r1, lsl sp
     1e0:	019b0c00 	orrseq	r0, fp, r0, lsl #24
     1e4:	86010000 	strhi	r0, [r1], -r0
     1e8:	0000002c 	andeq	r0, r0, ip, lsr #32
     1ec:	01fe1100 	mvnseq	r1, r0, lsl #2
     1f0:	9b0c0000 	blls	3001f8 <__bss_end__+0x2f5f18>
     1f4:	01000001 	tsteq	r0, r1
     1f8:	00002c88 	andeq	r2, r0, r8, lsl #25
     1fc:	0f110000 	svceq	0x00110000
     200:	0c000002 	stceq	0, cr0, [r0], {2}
     204:	0000019b 	muleq	r0, fp, r1
     208:	002c8a01 	eoreq	r8, ip, r1, lsl #20
     20c:	11000000 	mrsne	r0, (UNDEF: 0)
     210:	00000220 	andeq	r0, r0, r0, lsr #4
     214:	00019b0c 	andeq	r9, r1, ip, lsl #22
     218:	2c8c0100 	stfcss	f0, [ip], {0}
     21c:	00000000 	andeq	r0, r0, r0
     220:	00023111 	andeq	r3, r2, r1, lsl r1
     224:	019b0c00 	orrseq	r0, fp, r0, lsl #24
     228:	8e010000 	cdphi	0, 0, cr0, cr1, cr0, {0}
     22c:	0000002c 	andeq	r0, r0, ip, lsr #32
     230:	02421100 	subeq	r1, r2, #0, 2
     234:	9b0c0000 	blls	30023c <__bss_end__+0x2f5f5c>
     238:	01000001 	tsteq	r0, r1
     23c:	00002c90 	muleq	r0, r0, ip
     240:	0c0d0000 	stceq	0, cr0, [sp], {-0}
     244:	0000019b 	muleq	r0, fp, r1
     248:	002c9201 	eoreq	r9, ip, r1, lsl #4
     24c:	00000000 	andeq	r0, r0, r0
     250:	00c60405 	sbceq	r0, r6, r5, lsl #8
     254:	6a120000 	bvs	48025c <__bss_end__+0x475f7c>
     258:	01000000 	mrseq	r0, (UNDEF: 0)
     25c:	00002c4d 	andeq	r2, r0, sp, asr #24
     260:	03530100 	cmpeq	r3, #0, 2
     264:	a0100000 	andsge	r0, r0, r0
     268:	01000001 	tsteq	r0, r1
     26c:	0002504d 	andeq	r5, r2, sp, asr #32
     270:	03140c00 	tsteq	r4, #0, 24
     274:	4f010000 	svcmi	0x00010000
     278:	0000002c 	andeq	r0, r0, ip, lsr #32
     27c:	0100690e 	tsteq	r0, lr, lsl #18
     280:	00002c50 	andeq	r2, r0, r0, asr ip
     284:	00290c00 	eoreq	r0, r9, r0, lsl #24
     288:	51010000 	mrspl	r0, (UNDEF: 1)
     28c:	0000002c 	andeq	r0, r0, ip, lsr #32
     290:	0004ad0c 	andeq	sl, r4, ip, lsl #26
     294:	2c550100 	ldfcse	f0, [r5], {-0}
     298:	11000000 	mrsne	r0, (UNDEF: 0)
     29c:	000002ac 	andeq	r0, r0, ip, lsr #5
     2a0:	00019b0c 	andeq	r9, r1, ip, lsl #22
     2a4:	2c550100 	ldfcse	f0, [r5], {-0}
     2a8:	00000000 	andeq	r0, r0, r0
     2ac:	0002bd11 	andeq	fp, r2, r1, lsl sp
     2b0:	019b0c00 	orrseq	r0, fp, r0, lsl #24
     2b4:	56010000 	strpl	r0, [r1], -r0
     2b8:	0000002c 	andeq	r0, r0, ip, lsr #32
     2bc:	02ce1100 	sbceq	r1, lr, #0, 2
     2c0:	9b0c0000 	blls	3002c8 <__bss_end__+0x2f5fe8>
     2c4:	01000001 	tsteq	r0, r1
     2c8:	00002c58 	andeq	r2, r0, r8, asr ip
     2cc:	df110000 	svcle	0x00110000
     2d0:	0c000002 	stceq	0, cr0, [r0], {2}
     2d4:	0000019b 	muleq	r0, fp, r1
     2d8:	002c5a01 	eoreq	r5, ip, r1, lsl #20
     2dc:	11000000 	mrsne	r0, (UNDEF: 0)
     2e0:	000002f0 	strdeq	r0, [r0], -r0	; <UNPREDICTABLE>
     2e4:	00019b0c 	andeq	r9, r1, ip, lsl #22
     2e8:	2c5c0100 	ldfcse	f0, [ip], {-0}
     2ec:	00000000 	andeq	r0, r0, r0
     2f0:	00030111 	andeq	r0, r3, r1, lsl r1
     2f4:	019b0c00 	orrseq	r0, fp, r0, lsl #24
     2f8:	5e010000 	cdppl	0, 0, cr0, cr1, cr0, {0}
     2fc:	0000002c 	andeq	r0, r0, ip, lsr #32
     300:	03121100 	tsteq	r2, #0, 2
     304:	9b0c0000 	blls	30030c <__bss_end__+0x2f602c>
     308:	01000001 	tsteq	r0, r1
     30c:	00002c60 	andeq	r2, r0, r0, ror #24
     310:	23110000 	tstcs	r1, #0
     314:	0c000003 	stceq	0, cr0, [r0], {3}
     318:	0000019b 	muleq	r0, fp, r1
     31c:	002c6201 	eoreq	r6, ip, r1, lsl #4
     320:	11000000 	mrsne	r0, (UNDEF: 0)
     324:	00000334 	andeq	r0, r0, r4, lsr r3
     328:	00019b0c 	andeq	r9, r1, ip, lsl #22
     32c:	2c640100 	stfcse	f0, [r4], #-0
     330:	00000000 	andeq	r0, r0, r0
     334:	00034511 	andeq	r4, r3, r1, lsl r5
     338:	019b0c00 	orrseq	r0, fp, r0, lsl #24
     33c:	66010000 	strvs	r0, [r1], -r0
     340:	0000002c 	andeq	r0, r0, ip, lsr #32
     344:	9b0c0d00 	blls	30374c <__bss_end__+0x2f946c>
     348:	01000001 	tsteq	r0, r1
     34c:	00002c68 	andeq	r2, r0, r8, ror #24
     350:	13000000 	movwne	r0, #0
     354:	00000162 	andeq	r0, r0, r2, ror #2
     358:	00008010 	andeq	r8, r0, r0, lsl r0
     35c:	00000298 	muleq	r0, r8, r2
     360:	08529c01 	ldmdaeq	r2, {r0, sl, fp, ip, pc}^
     364:	79140000 	ldmdbvc	r4, {}	; <UNPREDICTABLE>
     368:	00000001 	andeq	r0, r0, r1
     36c:	15000000 	strne	r0, [r0, #-0]
     370:	00000184 	andeq	r0, r0, r4, lsl #3
     374:	018d1601 	orreq	r1, sp, r1, lsl #12
     378:	53010000 	movwpl	r0, #4096	; 0x1000
     37c:	00016e17 	andeq	r6, r1, r7, lsl lr
     380:	d0030600 	andle	r0, r3, r0, lsl #12
     384:	9f00009e 	svcls	0x0000009e
     388:	00801418 	addeq	r1, r0, r8, lsl r4
     38c:	00001000 	andeq	r1, r0, r0
     390:	00039d00 	andeq	r9, r3, r0, lsl #26
     394:	019d1600 	orrseq	r1, sp, r0, lsl #12
     398:	53010000 	movwpl	r0, #4096	; 0x1000
     39c:	00e91900 	rsceq	r1, r9, r0, lsl #18
     3a0:	80400000 	subhi	r0, r0, r0
     3a4:	00100000 	andseq	r0, r0, r0
     3a8:	7f010000 	svcvc	0x00010000
     3ac:	000003ba 			; <UNDEFINED> instruction: 0x000003ba
     3b0:	0000f514 	andeq	pc, r0, r4, lsl r5	; <UNPREDICTABLE>
     3b4:	00002100 	andeq	r2, r0, r0, lsl #2
     3b8:	50180000 	andspl	r0, r8, r0
     3bc:	04000080 	streq	r0, [r0], #-128	; 0x80
     3c0:	d1000000 	mrsle	r0, (UNDEF: 0)
     3c4:	1a000003 	bne	3d8 <_start-0x7c28>
     3c8:	000001ae 	andeq	r0, r0, lr, lsr #3
     3cc:	00000043 	andeq	r0, r0, r3, asr #32
     3d0:	01011b00 	tsteq	r1, r0, lsl #22
     3d4:	80600000 	rsbhi	r0, r0, r0
     3d8:	00000000 	andeq	r0, r0, r0
     3dc:	81010000 	mrshi	r0, (UNDEF: 1)
     3e0:	00000445 	andeq	r0, r0, r5, asr #8
     3e4:	00011814 	andeq	r1, r1, r4, lsl r8
     3e8:	00005600 	andeq	r5, r0, r0, lsl #12
     3ec:	010d1400 	tsteq	sp, r0, lsl #8
     3f0:	00710000 	rsbseq	r0, r1, r0
     3f4:	181c0000 	ldmdane	ip, {}	; <UNPREDICTABLE>
     3f8:	2b000000 	blcs	400 <_start-0x7c00>
     3fc:	14000004 	strne	r0, [r0], #-4
     400:	00000118 	andeq	r0, r0, r8, lsl r1
     404:	00000093 	muleq	r0, r3, r0
     408:	00010d14 	andeq	r0, r1, r4, lsl sp
     40c:	00007100 	andeq	r7, r0, r0, lsl #2
     410:	00d11d00 	sbcseq	r1, r1, r0, lsl #26
     414:	80600000 	rsbhi	r0, r0, r0
     418:	00180000 	andseq	r0, r8, r0
     41c:	34010000 	strcc	r0, [r1], #-0
     420:	0000dd14 	andeq	sp, r0, r4, lsl sp
     424:	00007100 	andeq	r7, r0, r0, lsl #2
     428:	1d000000 	stcne	0, cr0, [r0, #-0]
     42c:	000000e9 	andeq	r0, r0, r9, ror #1
     430:	00008070 	andeq	r8, r0, r0, ror r0
     434:	00000040 	andeq	r0, r0, r0, asr #32
     438:	f5143601 			; <UNDEFINED> instruction: 0xf5143601
     43c:	71000000 	mrsvc	r0, (UNDEF: 0)
     440:	00000000 	andeq	r0, r0, r0
     444:	80901800 	addshi	r1, r0, r0, lsl #16
     448:	00040000 	andeq	r0, r4, r0
     44c:	045c0000 	ldrbeq	r0, [ip], #-0
     450:	bf1a0000 	svclt	0x001a0000
     454:	1c000001 	stcne	0, cr0, [r0], {1}
     458:	00000001 	andeq	r0, r0, r1
     45c:	0001011b 	andeq	r0, r1, fp, lsl r1
     460:	0080a000 	addeq	sl, r0, r0
     464:	00006000 	andeq	r6, r0, r0
     468:	d0830100 	addle	r0, r3, r0, lsl #2
     46c:	14000004 	strne	r0, [r0], #-4
     470:	00000118 	andeq	r0, r0, r8, lsl r1
     474:	0000012f 	andeq	r0, r0, pc, lsr #2
     478:	00010d14 	andeq	r0, r1, r4, lsl sp
     47c:	00014a00 	andeq	r4, r1, r0, lsl #20
     480:	00781c00 	rsbseq	r1, r8, r0, lsl #24
     484:	04b60000 	ldrteq	r0, [r6], #0
     488:	18140000 	ldmdane	r4, {}	; <UNPREDICTABLE>
     48c:	6c000001 	stcvs	0, cr0, [r0], {1}
     490:	14000001 	strne	r0, [r0], #-1
     494:	0000010d 	andeq	r0, r0, sp, lsl #2
     498:	0000014a 	andeq	r0, r0, sl, asr #2
     49c:	0000d11d 	andeq	sp, r0, sp, lsl r1
     4a0:	0080a000 	addeq	sl, r0, r0
     4a4:	00007800 	andeq	r7, r0, r0, lsl #16
     4a8:	14340100 	ldrtne	r0, [r4], #-256	; 0x100
     4ac:	000000dd 	ldrdeq	r0, [r0], -sp
     4b0:	0000014a 	andeq	r0, r0, sl, asr #2
     4b4:	e91d0000 	ldmdb	sp, {}	; <UNPREDICTABLE>
     4b8:	b0000000 	andlt	r0, r0, r0
     4bc:	a0000080 	andge	r0, r0, r0, lsl #1
     4c0:	01000000 	mrseq	r0, (UNDEF: 0)
     4c4:	00f51436 	rscseq	r1, r5, r6, lsr r4
     4c8:	014a0000 	mrseq	r0, (UNDEF: 74)
     4cc:	00000000 	andeq	r0, r0, r0
     4d0:	0080d018 	addeq	sp, r0, r8, lsl r0
     4d4:	00000400 	andeq	r0, r0, r0, lsl #8
     4d8:	0004e700 	andeq	lr, r4, r0, lsl #14
     4dc:	01d01a00 	bicseq	r1, r0, r0, lsl #20
     4e0:	01e20000 	mvneq	r0, r0
     4e4:	1b000000 	blne	4ec <_start-0x7b14>
     4e8:	00000101 	andeq	r0, r0, r1, lsl #2
     4ec:	000080e0 	andeq	r8, r0, r0, ror #1
     4f0:	000000c0 	andeq	r0, r0, r0, asr #1
     4f4:	055b8501 	ldrbeq	r8, [fp, #-1281]	; 0x501
     4f8:	18140000 	ldmdane	r4, {}	; <UNPREDICTABLE>
     4fc:	f5000001 			; <UNDEFINED> instruction: 0xf5000001
     500:	14000001 	strne	r0, [r0], #-1
     504:	0000010d 	andeq	r0, r0, sp, lsl #2
     508:	00000210 	andeq	r0, r0, r0, lsl r2
     50c:	0000d81c 	andeq	sp, r0, ip, lsl r8
     510:	00054100 	andeq	r4, r5, r0, lsl #2
     514:	01181400 	tsteq	r8, r0, lsl #8
     518:	02320000 	eorseq	r0, r2, #0
     51c:	0d140000 	ldceq	0, cr0, [r4, #-0]
     520:	10000001 	andne	r0, r0, r1
     524:	1d000002 	stcne	0, cr0, [r0, #-8]
     528:	000000d1 	ldrdeq	r0, [r0], -r1
     52c:	000080e0 	andeq	r8, r0, r0, ror #1
     530:	000000d8 	ldrdeq	r0, [r0], -r8
     534:	dd143401 	cfldrsle	mvf3, [r4, #-4]
     538:	10000000 	andne	r0, r0, r0
     53c:	00000002 	andeq	r0, r0, r2
     540:	00e91d00 	rsceq	r1, r9, r0, lsl #26
     544:	80f00000 	rscshi	r0, r0, r0
     548:	01000000 	mrseq	r0, (UNDEF: 0)
     54c:	36010000 	strcc	r0, [r1], -r0
     550:	0000f514 	andeq	pc, r0, r4, lsl r5	; <UNPREDICTABLE>
     554:	00021000 	andeq	r1, r2, r0
     558:	18000000 	stmdane	r0, {}	; <UNPREDICTABLE>
     55c:	00008110 	andeq	r8, r0, r0, lsl r1
     560:	00000004 	andeq	r0, r0, r4
     564:	00000572 	andeq	r0, r0, r2, ror r5
     568:	0001e11a 	andeq	lr, r1, sl, lsl r1
     56c:	00029500 	andeq	r9, r2, r0, lsl #10
     570:	011b0000 	tsteq	fp, r0
     574:	20000001 	andcs	r0, r0, r1
     578:	20000081 	andcs	r0, r0, r1, lsl #1
     57c:	01000001 	tsteq	r0, r1
     580:	0005e687 	andeq	lr, r5, r7, lsl #13
     584:	01181400 	tsteq	r8, r0, lsl #8
     588:	02a80000 	adceq	r0, r8, #0
     58c:	0d140000 	ldceq	0, cr0, [r4, #-0]
     590:	c2000001 	andgt	r0, r0, #1
     594:	1c000002 	stcne	0, cr0, [r0], {2}
     598:	00000138 	andeq	r0, r0, r8, lsr r1
     59c:	000005cc 	andeq	r0, r0, ip, asr #11
     5a0:	00011814 	andeq	r1, r1, r4, lsl r8
     5a4:	0002e400 	andeq	lr, r2, r0, lsl #8
     5a8:	010d1400 	tsteq	sp, r0, lsl #8
     5ac:	02c20000 	sbceq	r0, r2, #0
     5b0:	d11d0000 	tstle	sp, r0
     5b4:	20000000 	andcs	r0, r0, r0
     5b8:	38000081 	stmdacc	r0, {r0, r7}
     5bc:	01000001 	tsteq	r0, r1
     5c0:	00dd1434 	sbcseq	r1, sp, r4, lsr r4
     5c4:	02c20000 	sbceq	r0, r2, #0
     5c8:	00000000 	andeq	r0, r0, r0
     5cc:	0000e91d 	andeq	lr, r0, sp, lsl r9
     5d0:	00813000 	addeq	r3, r1, r0
     5d4:	00016000 	andeq	r6, r1, r0
     5d8:	14360100 	ldrtne	r0, [r6], #-256	; 0x100
     5dc:	000000f5 	strdeq	r0, [r0], -r5
     5e0:	000002c2 	andeq	r0, r0, r2, asr #5
     5e4:	50180000 	andspl	r0, r8, r0
     5e8:	04000081 	streq	r0, [r0], #-129	; 0x81
     5ec:	fd000000 	stc2	0, cr0, [r0, #-0]
     5f0:	1a000005 	bne	60c <_start-0x79f4>
     5f4:	000001f2 	strdeq	r0, [r0], -r2
     5f8:	00000334 	andeq	r0, r0, r4, lsr r3
     5fc:	01011b00 	tsteq	r1, r0, lsl #22
     600:	81600000 	cmnhi	r0, r0
     604:	01800000 	orreq	r0, r0, r0
     608:	89010000 	stmdbhi	r1, {}	; <UNPREDICTABLE>
     60c:	00000671 	andeq	r0, r0, r1, ror r6
     610:	00011814 	andeq	r1, r1, r4, lsl r8
     614:	00034700 	andeq	r4, r3, r0, lsl #14
     618:	010d1400 	tsteq	sp, r0, lsl #8
     61c:	03610000 	cmneq	r1, #0
     620:	981c0000 	ldmdals	ip, {}	; <UNPREDICTABLE>
     624:	57000001 	strpl	r0, [r0, -r1]
     628:	14000006 	strne	r0, [r0], #-6
     62c:	00000118 	andeq	r0, r0, r8, lsl r1
     630:	00000383 	andeq	r0, r0, r3, lsl #7
     634:	00010d14 	andeq	r0, r1, r4, lsl sp
     638:	00036100 	andeq	r6, r3, r0, lsl #2
     63c:	00d11d00 	sbcseq	r1, r1, r0, lsl #26
     640:	81600000 	cmnhi	r0, r0
     644:	01980000 	orrseq	r0, r8, r0
     648:	34010000 	strcc	r0, [r1], #-0
     64c:	0000dd14 	andeq	sp, r0, r4, lsl sp
     650:	00036100 	andeq	r6, r3, r0, lsl #2
     654:	1d000000 	stcne	0, cr0, [r0, #-0]
     658:	000000e9 	andeq	r0, r0, r9, ror #1
     65c:	00008170 	andeq	r8, r0, r0, ror r1
     660:	000001c0 	andeq	r0, r0, r0, asr #3
     664:	f5143601 			; <UNDEFINED> instruction: 0xf5143601
     668:	61000000 	mrsvs	r0, (UNDEF: 0)
     66c:	00000003 	andeq	r0, r0, r3
     670:	81941800 	orrshi	r1, r4, r0, lsl #16
     674:	00040000 	andeq	r0, r4, r0
     678:	06880000 	streq	r0, [r8], r0
     67c:	031a0000 	tsteq	sl, #0
     680:	c1000002 	tstgt	r0, r2
     684:	00000003 	andeq	r0, r0, r3
     688:	0001011b 	andeq	r0, r1, fp, lsl r1
     68c:	0081a400 	addeq	sl, r1, r0, lsl #8
     690:	0001e000 	andeq	lr, r1, r0
     694:	fc8b0100 	stc2	1, cr0, [fp], {0}
     698:	14000006 	strne	r0, [r0], #-6
     69c:	00000118 	andeq	r0, r0, r8, lsl r1
     6a0:	000003d4 	ldrdeq	r0, [r0], -r4
     6a4:	00010d14 	andeq	r0, r1, r4, lsl sp
     6a8:	0003ee00 	andeq	lr, r3, r0, lsl #28
     6ac:	01f81c00 	mvnseq	r1, r0, lsl #24
     6b0:	06e20000 	strbteq	r0, [r2], r0
     6b4:	18140000 	ldmdane	r4, {}	; <UNPREDICTABLE>
     6b8:	10000001 	andne	r0, r0, r1
     6bc:	14000004 	strne	r0, [r0], #-4
     6c0:	0000010d 	andeq	r0, r0, sp, lsl #2
     6c4:	000003ee 	andeq	r0, r0, lr, ror #7
     6c8:	0000d11d 	andeq	sp, r0, sp, lsl r1
     6cc:	0081a400 	addeq	sl, r1, r0, lsl #8
     6d0:	0001f800 	andeq	pc, r1, r0, lsl #16
     6d4:	14340100 	ldrtne	r0, [r4], #-256	; 0x100
     6d8:	000000dd 	ldrdeq	r0, [r0], -sp
     6dc:	000003ee 	andeq	r0, r0, lr, ror #7
     6e0:	e91d0000 	ldmdb	sp, {}	; <UNPREDICTABLE>
     6e4:	b4000000 	strlt	r0, [r0], #-0
     6e8:	20000081 	andcs	r0, r0, r1, lsl #1
     6ec:	01000002 	tsteq	r0, r2
     6f0:	00f51436 	rscseq	r1, r5, r6, lsr r4
     6f4:	03ee0000 	mvneq	r0, #0
     6f8:	00000000 	andeq	r0, r0, r0
     6fc:	0081d418 	addeq	sp, r1, r8, lsl r4
     700:	00000400 	andeq	r0, r0, r0, lsl #8
     704:	00071300 	andeq	r1, r7, r0, lsl #6
     708:	02141a00 	andseq	r1, r4, #0, 20
     70c:	043c0000 	ldrteq	r0, [ip], #-0
     710:	1b000000 	blne	718 <_start-0x78e8>
     714:	00000101 	andeq	r0, r0, r1, lsl #2
     718:	000081e4 	andeq	r8, r0, r4, ror #3
     71c:	00000240 	andeq	r0, r0, r0, asr #4
     720:	07878d01 	streq	r8, [r7, r1, lsl #26]
     724:	18140000 	ldmdane	r4, {}	; <UNPREDICTABLE>
     728:	4f000001 	svcmi	0x00000001
     72c:	14000004 	strne	r0, [r0], #-4
     730:	0000010d 	andeq	r0, r0, sp, lsl #2
     734:	00000469 	andeq	r0, r0, r9, ror #8
     738:	0002581c 	andeq	r5, r2, ip, lsl r8
     73c:	00076d00 	andeq	r6, r7, r0, lsl #26
     740:	01181400 	tsteq	r8, r0, lsl #8
     744:	044f0000 	strbeq	r0, [pc], #-0	; 74c <_start-0x78b4>
     748:	0d140000 	ldceq	0, cr0, [r4, #-0]
     74c:	69000001 	stmdbvs	r0, {r0}
     750:	1d000004 	stcne	0, cr0, [r0, #-16]
     754:	000000d1 	ldrdeq	r0, [r0], -r1
     758:	000081e4 	andeq	r8, r0, r4, ror #3
     75c:	00000258 	andeq	r0, r0, r8, asr r2
     760:	dd143401 	cfldrsle	mvf3, [r4, #-4]
     764:	69000000 	stmdbvs	r0, {}	; <UNPREDICTABLE>
     768:	00000004 	andeq	r0, r0, r4
     76c:	00e91d00 	rsceq	r1, r9, r0, lsl #26
     770:	81f40000 	mvnshi	r0, r0
     774:	02800000 	addeq	r0, r0, #0
     778:	36010000 	strcc	r0, [r1], -r0
     77c:	0000f514 	andeq	pc, r0, r4, lsl r5	; <UNPREDICTABLE>
     780:	00046900 	andeq	r6, r4, r0, lsl #18
     784:	18000000 	stmdane	r0, {}	; <UNPREDICTABLE>
     788:	00008214 	andeq	r8, r0, r4, lsl r2
     78c:	00000004 	andeq	r0, r0, r4
     790:	0000079e 	muleq	r0, lr, r7
     794:	0002251a 	andeq	r2, r2, sl, lsl r5
     798:	00048b00 	andeq	r8, r4, r0, lsl #22
     79c:	011b0000 	tsteq	fp, r0
     7a0:	24000001 	strcs	r0, [r0], #-1
     7a4:	a0000082 	andge	r0, r0, r2, lsl #1
     7a8:	01000002 	tsteq	r0, r2
     7ac:	00080a8f 	andeq	r0, r8, pc, lsl #21
     7b0:	01181e00 	tsteq	r8, r0, lsl #28
     7b4:	0d140000 	ldceq	0, cr0, [r4, #-0]
     7b8:	9e000001 	cdpls	0, 0, cr0, cr0, cr1, {0}
     7bc:	1c000004 	stcne	0, cr0, [r0], {4}
     7c0:	000002b8 			; <UNDEFINED> instruction: 0x000002b8
     7c4:	000007f0 	strdeq	r0, [r0], -r0	; <UNPREDICTABLE>
     7c8:	0001181e 	andeq	r1, r1, lr, lsl r8
     7cc:	010d1400 	tsteq	sp, r0, lsl #8
     7d0:	049e0000 	ldreq	r0, [lr], #0
     7d4:	d11d0000 	tstle	sp, r0
     7d8:	28000000 	stmdacs	r0, {}	; <UNPREDICTABLE>
     7dc:	b8000082 	stmdalt	r0, {r1, r7}
     7e0:	01000002 	tsteq	r0, r2
     7e4:	00dd1434 	sbcseq	r1, sp, r4, lsr r4
     7e8:	049e0000 	ldreq	r0, [lr], #0
     7ec:	00000000 	andeq	r0, r0, r0
     7f0:	0000e91d 	andeq	lr, r0, sp, lsl r9
     7f4:	00823400 	addeq	r3, r2, r0, lsl #8
     7f8:	0002e000 	andeq	lr, r2, r0
     7fc:	14360100 	ldrtne	r0, [r6], #-256	; 0x100
     800:	000000f5 	strdeq	r0, [r0], -r5
     804:	0000049e 	muleq	r0, lr, r4
     808:	54180000 	ldrpl	r0, [r8], #-0
     80c:	04000082 	streq	r0, [r0], #-130	; 0x82
     810:	21000000 	mrscs	r0, (UNDEF: 0)
     814:	1a000008 	bne	83c <_start-0x77c4>
     818:	00000236 	andeq	r0, r0, r6, lsr r2
     81c:	000004c0 	andeq	r0, r0, r0, asr #9
     820:	00d11900 	sbcseq	r1, r1, r0, lsl #18
     824:	82640000 	rsbhi	r0, r4, #0
     828:	00240000 	eoreq	r0, r4, r0
     82c:	91010000 	mrsls	r0, (UNDEF: 1)
     830:	0000083e 	andeq	r0, r0, lr, lsr r8
     834:	0000dd14 	andeq	sp, r0, r4, lsl sp
     838:	0004d300 	andeq	sp, r4, r0, lsl #6
     83c:	881f0000 	ldmdahi	pc, {}	; <UNPREDICTABLE>
     840:	04000082 	streq	r0, [r0], #-130	; 0x82
     844:	1a000000 	bne	84c <_start-0x77b4>
     848:	00000243 	andeq	r0, r0, r3, asr #4
     84c:	000004ea 	andeq	r0, r0, sl, ror #9
     850:	d3200000 	teqle	r0, #0
     854:	01000001 	tsteq	r0, r1
     858:	00002c3f 	andeq	r2, r0, pc, lsr ip
     85c:	0082a800 	addeq	sl, r2, r0, lsl #16
     860:	00005000 	andeq	r5, r0, r0
     864:	329c0100 	addscc	r0, ip, #0, 2
     868:	21000009 	tstcs	r0, r9
     86c:	3f010073 	svccc	0x00010073
     870:	0000002c 	andeq	r0, r0, ip, lsr #32
     874:	000004fd 	strdeq	r0, [r0], -sp
     878:	00015322 	andeq	r5, r1, r2, lsr #6
     87c:	00094200 	andeq	r4, r9, r0, lsl #4
     880:	68030500 	stmdavs	r3, {r8, sl}
     884:	0c00009d 	stceq	0, cr0, [r0], {157}	; 0x9d
     888:	000001f1 	strdeq	r0, [r0], -r1
     88c:	002c4101 	eoreq	r4, ip, r1, lsl #2
     890:	06230000 	strteq	r0, [r3], -r0
     894:	01000002 	tsteq	r0, r2
     898:	00002c43 	andeq	r2, r0, r3, asr #24
     89c:	00053700 	andeq	r3, r5, r0, lsl #14
     8a0:	82b41800 	adcshi	r1, r4, #0, 16
     8a4:	00040000 	andeq	r0, r4, r0
     8a8:	08ba0000 	ldmeq	sl!, {}	; <UNPREDICTABLE>
     8ac:	9b0c0000 	blls	3008b4 <__bss_end__+0x2f65d4>
     8b0:	01000001 	tsteq	r0, r1
     8b4:	00002c41 	andeq	r2, r0, r1, asr #24
     8b8:	c4180000 	ldrgt	r0, [r8], #-0
     8bc:	04000082 	streq	r0, [r0], #-130	; 0x82
     8c0:	d7000000 	strle	r0, [r0, -r0]
     8c4:	23000008 	movwcs	r0, #8
     8c8:	0000019b 	muleq	r0, fp, r1
     8cc:	002c4301 	eoreq	r4, ip, r1, lsl #6
     8d0:	05370000 	ldreq	r0, [r7, #-0]!
     8d4:	24000000 	strcs	r0, [r0], #-0
     8d8:	000082c4 	andeq	r8, r0, r4, asr #5
     8dc:	000016d5 	ldrdeq	r1, [r0], -r5
     8e0:	000008f0 	strdeq	r0, [r0], -r0	; <UNPREDICTABLE>
     8e4:	07500125 	ldrbeq	r0, [r0, -r5, lsr #2]
     8e8:	0a5001f3 	beq	14010bc <__bss_end__+0x13f6ddc>
     8ec:	001e03e8 	andseq	r0, lr, r8, ror #7
     8f0:	0082d426 	addeq	sp, r2, r6, lsr #8
     8f4:	0016e600 	andseq	lr, r6, r0, lsl #12
     8f8:	82e82400 	rschi	r2, r8, #0, 8
     8fc:	16ed0000 	strbtne	r0, [sp], r0
     900:	09280000 	stmdbeq	r8!, {}	; <UNPREDICTABLE>
     904:	01250000 	teqeq	r5, r0
     908:	40080253 	andmi	r0, r8, r3, asr r2
     90c:	05520125 	ldrbeq	r0, [r2, #-293]	; 0x125
     910:	009d6803 	addseq	r6, sp, r3, lsl #16
     914:	51012500 	tstpl	r1, r0, lsl #10
     918:	9da80305 	stcls	3, cr0, [r8, #20]!
     91c:	01250000 	teqeq	r5, r0
     920:	78030550 	stmdavc	r3, {r4, r6, r8, sl}
     924:	0000009d 	muleq	r0, sp, r0
     928:	0082ec26 	addeq	lr, r2, r6, lsr #24
     92c:	00170300 	andseq	r0, r7, r0, lsl #6
     930:	7d270000 	stcvc	0, cr0, [r7, #-0]
     934:	42000000 	andmi	r0, r0, #0
     938:	28000009 	stmdacs	r0, {r0, r3}
     93c:	00000076 	andeq	r0, r0, r6, ror r0
     940:	3206000e 	andcc	r0, r6, #14
     944:	13000009 	movwne	r0, #9
     948:	00000256 	andeq	r0, r0, r6, asr r2
     94c:	000082f8 	strdeq	r8, [r0], -r8	; <UNPREDICTABLE>
     950:	000001c4 	andeq	r0, r0, r4, asr #3
     954:	0a7a9c01 	beq	1ea7960 <__bss_end__+0x1e9d680>
     958:	66140000 	ldrvs	r0, [r4], -r0
     95c:	4a000002 	bmi	96c <_start-0x7694>
     960:	1a000005 	bne	97c <_start-0x7684>
     964:	00000271 	andeq	r0, r0, r1, ror r2
     968:	0000056b 	andeq	r0, r0, fp, ror #10
     96c:	00027c15 	andeq	r7, r2, r5, lsl ip
     970:	851a0100 	ldrhi	r0, [sl, #-256]	; 0x100
     974:	d1000002 	tstle	r0, r2
     978:	16000005 	strne	r0, [r0], -r5
     97c:	00000290 	muleq	r0, r0, r2
     980:	24185301 	ldrcs	r5, [r8], #-769	; 0x301
     984:	04000083 	streq	r0, [r0], #-131	; 0x83
     988:	97000000 	strls	r0, [r0, -r0]
     98c:	16000009 	strne	r0, [r0], -r9
     990:	000002a0 	andeq	r0, r0, r0, lsr #5
     994:	18005301 	stmdane	r0, {r0, r8, r9, ip, lr}
     998:	00008328 	andeq	r8, r0, r8, lsr #6
     99c:	00000004 	andeq	r0, r0, r4
     9a0:	000009ae 	andeq	r0, r0, lr, lsr #19
     9a4:	0002b11a 	andeq	fp, r2, sl, lsl r1
     9a8:	00060600 	andeq	r0, r6, r0, lsl #12
     9ac:	3c180000 	ldccc	0, cr0, [r8], {-0}
     9b0:	04000083 	streq	r0, [r0], #-131	; 0x83
     9b4:	c5000000 	strgt	r0, [r0, #-0]
     9b8:	1a000009 	bne	9e4 <_start-0x761c>
     9bc:	000002c2 	andeq	r0, r0, r2, asr #5
     9c0:	00000619 	andeq	r0, r0, r9, lsl r6
     9c4:	83641800 	cmnhi	r4, #0, 16
     9c8:	00040000 	andeq	r0, r4, r0
     9cc:	09dc0000 	ldmibeq	ip, {}^	; <UNPREDICTABLE>
     9d0:	d31a0000 	tstle	sl, #0
     9d4:	2c000002 	stccs	0, cr0, [r0], {2}
     9d8:	00000006 	andeq	r0, r0, r6
     9dc:	00839018 	addeq	r9, r3, r8, lsl r0
     9e0:	00000400 	andeq	r0, r0, r0, lsl #8
     9e4:	0009f300 	andeq	pc, r9, r0, lsl #6
     9e8:	02e41a00 	rsceq	r1, r4, #0, 20
     9ec:	063f0000 	ldrteq	r0, [pc], -r0
     9f0:	18000000 	stmdane	r0, {}	; <UNPREDICTABLE>
     9f4:	000083c0 	andeq	r8, r0, r0, asr #7
     9f8:	00000004 	andeq	r0, r0, r4
     9fc:	00000a0a 	andeq	r0, r0, sl, lsl #20
     a00:	0002f51a 	andeq	pc, r2, sl, lsl r5	; <UNPREDICTABLE>
     a04:	00065200 	andeq	r5, r6, r0, lsl #4
     a08:	ec180000 	ldc	0, cr0, [r8], {-0}
     a0c:	04000083 	streq	r0, [r0], #-131	; 0x83
     a10:	21000000 	mrscs	r0, (UNDEF: 0)
     a14:	1a00000a 	bne	a44 <_start-0x75bc>
     a18:	00000306 	andeq	r0, r0, r6, lsl #6
     a1c:	00000665 	andeq	r0, r0, r5, ror #12
     a20:	84181800 	ldrhi	r1, [r8], #-2048	; 0x800
     a24:	00040000 	andeq	r0, r4, r0
     a28:	0a380000 	beq	e00a30 <__bss_end__+0xdf6750>
     a2c:	171a0000 	ldrne	r0, [sl, -r0]
     a30:	78000003 	stmdavc	r0, {r0, r1}
     a34:	00000006 	andeq	r0, r0, r6
     a38:	00844418 	addeq	r4, r4, r8, lsl r4
     a3c:	00000400 	andeq	r0, r0, r0, lsl #8
     a40:	000a4f00 	andeq	r4, sl, r0, lsl #30
     a44:	03281a00 	teqeq	r8, #0, 20
     a48:	068b0000 	streq	r0, [fp], r0
     a4c:	18000000 	stmdane	r0, {}	; <UNPREDICTABLE>
     a50:	00008470 	andeq	r8, r0, r0, ror r4
     a54:	00000004 	andeq	r0, r0, r4
     a58:	00000a66 	andeq	r0, r0, r6, ror #20
     a5c:	0003391a 	andeq	r3, r3, sl, lsl r9
     a60:	00069e00 	andeq	r9, r6, r0, lsl #28
     a64:	a01f0000 	andsge	r0, pc, r0
     a68:	04000084 	streq	r0, [r0], #-132	; 0x84
     a6c:	1a000000 	bne	a74 <_start-0x758c>
     a70:	00000346 	andeq	r0, r0, r6, asr #6
     a74:	000006b1 			; <UNDEFINED> instruction: 0x000006b1
     a78:	62130000 	andsvs	r0, r3, #0
     a7c:	bc000001 	stclt	0, cr0, [r0], {1}
     a80:	90000084 	andls	r0, r0, r4, lsl #1
     a84:	01000002 	tsteq	r0, r2
     a88:	000f749c 	muleq	pc, ip, r4	; <UNPREDICTABLE>
     a8c:	016e1700 	cmneq	lr, r0, lsl #14
     a90:	50010000 	andpl	r0, r1, r0
     a94:	00017914 	andeq	r7, r1, r4, lsl r9
     a98:	0006c400 	andeq	ip, r6, r0, lsl #8
     a9c:	01841500 	orreq	r1, r4, r0, lsl #10
     aa0:	16010000 	strne	r0, [r1], -r0
     aa4:	0000018d 	andeq	r0, r0, sp, lsl #3
     aa8:	c0185301 	andsgt	r5, r8, r1, lsl #6
     aac:	10000084 	andne	r0, r0, r4, lsl #1
     ab0:	bf000000 	svclt	0x00000000
     ab4:	1600000a 	strne	r0, [r0], -sl
     ab8:	0000019d 	muleq	r0, sp, r1
     abc:	19005301 	stmdbne	r0, {r0, r8, r9, ip, lr}
     ac0:	000000e9 	andeq	r0, r0, r9, ror #1
     ac4:	000084e8 	andeq	r8, r0, r8, ror #9
     ac8:	00000010 	andeq	r0, r0, r0, lsl r0
     acc:	0adc7f01 	beq	ff7206d8 <__bss_end__+0xff7163f8>
     ad0:	f5140000 			; <UNDEFINED> instruction: 0xf5140000
     ad4:	e5000000 	str	r0, [r0, #-0]
     ad8:	00000006 	andeq	r0, r0, r6
     adc:	0084f818 	addeq	pc, r4, r8, lsl r8	; <UNPREDICTABLE>
     ae0:	00000400 	andeq	r0, r0, r0, lsl #8
     ae4:	000af300 	andeq	pc, sl, r0, lsl #6
     ae8:	01ae1a00 			; <UNDEFINED> instruction: 0x01ae1a00
     aec:	06f80000 	ldrbteq	r0, [r8], r0
     af0:	1b000000 	blne	af8 <_start-0x7508>
     af4:	00000101 	andeq	r0, r0, r1, lsl #2
     af8:	00008508 	andeq	r8, r0, r8, lsl #10
     afc:	00000300 	andeq	r0, r0, r0, lsl #6
     b00:	0b678101 	bleq	19e0f0c <__bss_end__+0x19d6c2c>
     b04:	18140000 	ldmdane	r4, {}	; <UNPREDICTABLE>
     b08:	0b000001 	bleq	b14 <_start-0x74ec>
     b0c:	14000007 	strne	r0, [r0], #-7
     b10:	0000010d 	andeq	r0, r0, sp, lsl #2
     b14:	00000726 	andeq	r0, r0, r6, lsr #14
     b18:	0003181c 	andeq	r1, r3, ip, lsl r8
     b1c:	000b4d00 	andeq	r4, fp, r0, lsl #26
     b20:	01181400 	tsteq	r8, r0, lsl #8
     b24:	07450000 	strbeq	r0, [r5, -r0]
     b28:	0d140000 	ldceq	0, cr0, [r4, #-0]
     b2c:	26000001 	strcs	r0, [r0], -r1
     b30:	1d000007 	stcne	0, cr0, [r0, #-28]	; 0xffffffe4
     b34:	000000d1 	ldrdeq	r0, [r0], -r1
     b38:	00008508 	andeq	r8, r0, r8, lsl #10
     b3c:	00000318 	andeq	r0, r0, r8, lsl r3
     b40:	dd143401 	cfldrsle	mvf3, [r4, #-4]
     b44:	26000000 	strcs	r0, [r0], -r0
     b48:	00000007 	andeq	r0, r0, r7
     b4c:	00e91d00 	rsceq	r1, r9, r0, lsl #26
     b50:	85180000 	ldrhi	r0, [r8, #-0]
     b54:	03400000 	movteq	r0, #0
     b58:	36010000 	strcc	r0, [r1], -r0
     b5c:	0000f514 	andeq	pc, r0, r4, lsl r5	; <UNPREDICTABLE>
     b60:	00072600 	andeq	r2, r7, r0, lsl #12
     b64:	18000000 	stmdane	r0, {}	; <UNPREDICTABLE>
     b68:	00008538 	andeq	r8, r0, r8, lsr r5
     b6c:	00000004 	andeq	r0, r0, r4
     b70:	00000b7e 	andeq	r0, r0, lr, ror fp
     b74:	0001bf1a 	andeq	fp, r1, sl, lsl pc
     b78:	0007ce00 	andeq	ip, r7, r0, lsl #28
     b7c:	011b0000 	tsteq	fp, r0
     b80:	48000001 	stmdami	r0, {r0}
     b84:	60000085 	andvs	r0, r0, r5, lsl #1
     b88:	01000003 	tsteq	r0, r3
     b8c:	000bf283 	andeq	pc, fp, r3, lsl #5
     b90:	01181400 	tsteq	r8, r0, lsl #8
     b94:	07e10000 	strbeq	r0, [r1, r0]!
     b98:	0d140000 	ldceq	0, cr0, [r4, #-0]
     b9c:	fc000001 	stc2	0, cr0, [r0], {1}
     ba0:	1c000007 	stcne	0, cr0, [r0], {7}
     ba4:	00000378 	andeq	r0, r0, r8, ror r3
     ba8:	00000bd8 	ldrdeq	r0, [r0], -r8
     bac:	00011814 	andeq	r1, r1, r4, lsl r8
     bb0:	00081b00 	andeq	r1, r8, r0, lsl #22
     bb4:	010d1400 	tsteq	sp, r0, lsl #8
     bb8:	07fc0000 	ldrbeq	r0, [ip, r0]!
     bbc:	d11d0000 	tstle	sp, r0
     bc0:	48000000 	stmdami	r0, {}	; <UNPREDICTABLE>
     bc4:	78000085 	stmdavc	r0, {r0, r2, r7}
     bc8:	01000003 	tsteq	r0, r3
     bcc:	00dd1434 	sbcseq	r1, sp, r4, lsr r4
     bd0:	07fc0000 	ldrbeq	r0, [ip, r0]!
     bd4:	00000000 	andeq	r0, r0, r0
     bd8:	0000e91d 	andeq	lr, r0, sp, lsl r9
     bdc:	00855800 	addeq	r5, r5, r0, lsl #16
     be0:	0003a000 	andeq	sl, r3, r0
     be4:	14360100 	ldrtne	r0, [r6], #-256	; 0x100
     be8:	000000f5 	strdeq	r0, [r0], -r5
     bec:	000007fc 	strdeq	r0, [r0], -ip
     bf0:	78180000 	ldmdavc	r8, {}	; <UNPREDICTABLE>
     bf4:	04000085 	streq	r0, [r0], #-133	; 0x85
     bf8:	09000000 	stmdbeq	r0, {}	; <UNPREDICTABLE>
     bfc:	1a00000c 	bne	c34 <_start-0x73cc>
     c00:	000001d0 	ldrdeq	r0, [r0], -r0	; <UNPREDICTABLE>
     c04:	00000891 	muleq	r0, r1, r8
     c08:	01011b00 	tsteq	r1, r0, lsl #22
     c0c:	85880000 	strhi	r0, [r8]
     c10:	03c00000 	biceq	r0, r0, #0
     c14:	85010000 	strhi	r0, [r1, #-0]
     c18:	00000c7d 	andeq	r0, r0, sp, ror ip
     c1c:	00011814 	andeq	r1, r1, r4, lsl r8
     c20:	0008a400 	andeq	sl, r8, r0, lsl #8
     c24:	010d1400 	tsteq	sp, r0, lsl #8
     c28:	08bf0000 	ldmeq	pc!, {}	; <UNPREDICTABLE>
     c2c:	d81c0000 	ldmdale	ip, {}	; <UNPREDICTABLE>
     c30:	63000003 	movwvs	r0, #3
     c34:	1400000c 	strne	r0, [r0], #-12
     c38:	00000118 	andeq	r0, r0, r8, lsl r1
     c3c:	000008de 	ldrdeq	r0, [r0], -lr
     c40:	00010d14 	andeq	r0, r1, r4, lsl sp
     c44:	0008bf00 	andeq	fp, r8, r0, lsl #30
     c48:	00d11d00 	sbcseq	r1, r1, r0, lsl #26
     c4c:	85880000 	strhi	r0, [r8]
     c50:	03d80000 	bicseq	r0, r8, #0
     c54:	34010000 	strcc	r0, [r1], #-0
     c58:	0000dd14 	andeq	sp, r0, r4, lsl sp
     c5c:	0008bf00 	andeq	fp, r8, r0, lsl #30
     c60:	1d000000 	stcne	0, cr0, [r0, #-0]
     c64:	000000e9 	andeq	r0, r0, r9, ror #1
     c68:	00008598 	muleq	r0, r8, r5
     c6c:	00000400 	andeq	r0, r0, r0, lsl #8
     c70:	f5143601 			; <UNDEFINED> instruction: 0xf5143601
     c74:	bf000000 	svclt	0x00000000
     c78:	00000008 	andeq	r0, r0, r8
     c7c:	85b81800 	ldrhi	r1, [r8, #2048]!	; 0x800
     c80:	00040000 	andeq	r0, r4, r0
     c84:	0c940000 	ldceq	0, cr0, [r4], {0}
     c88:	e11a0000 	tst	sl, r0
     c8c:	41000001 	tstmi	r0, r1
     c90:	00000009 	andeq	r0, r0, r9
     c94:	0001011b 	andeq	r0, r1, fp, lsl r1
     c98:	0085c800 	addeq	ip, r5, r0, lsl #16
     c9c:	00042000 	andeq	r2, r4, r0
     ca0:	08870100 	stmeq	r7, {r8}
     ca4:	1400000d 	strne	r0, [r0], #-13
     ca8:	00000118 	andeq	r0, r0, r8, lsl r1
     cac:	00000954 	andeq	r0, r0, r4, asr r9
     cb0:	00010d14 	andeq	r0, r1, r4, lsl sp
     cb4:	00096e00 	andeq	r6, r9, r0, lsl #28
     cb8:	04381c00 	ldrteq	r1, [r8], #-3072	; 0xc00
     cbc:	0cee0000 	stcleq	0, cr0, [lr]
     cc0:	18140000 	ldmdane	r4, {}	; <UNPREDICTABLE>
     cc4:	8d000001 	stchi	0, cr0, [r0, #-4]
     cc8:	14000009 	strne	r0, [r0], #-9
     ccc:	0000010d 	andeq	r0, r0, sp, lsl #2
     cd0:	0000096e 	andeq	r0, r0, lr, ror #18
     cd4:	0000d11d 	andeq	sp, r0, sp, lsl r1
     cd8:	0085c800 	addeq	ip, r5, r0, lsl #16
     cdc:	00043800 	andeq	r3, r4, r0, lsl #16
     ce0:	14340100 	ldrtne	r0, [r4], #-256	; 0x100
     ce4:	000000dd 	ldrdeq	r0, [r0], -sp
     ce8:	0000096e 	andeq	r0, r0, lr, ror #18
     cec:	e91d0000 	ldmdb	sp, {}	; <UNPREDICTABLE>
     cf0:	d8000000 	stmdale	r0, {}	; <UNPREDICTABLE>
     cf4:	60000085 	andvs	r0, r0, r5, lsl #1
     cf8:	01000004 	tsteq	r0, r4
     cfc:	00f51436 	rscseq	r1, r5, r6, lsr r4
     d00:	096e0000 	stmdbeq	lr!, {}^	; <UNPREDICTABLE>
     d04:	00000000 	andeq	r0, r0, r0
     d08:	0085f818 	addeq	pc, r5, r8, lsl r8	; <UNPREDICTABLE>
     d0c:	00000400 	andeq	r0, r0, r0, lsl #8
     d10:	000d1f00 	andeq	r1, sp, r0, lsl #30
     d14:	01f21a00 	mvnseq	r1, r0, lsl #20
     d18:	09dd0000 	ldmibeq	sp, {}^	; <UNPREDICTABLE>
     d1c:	1b000000 	blne	d24 <_start-0x72dc>
     d20:	00000101 	andeq	r0, r0, r1, lsl #2
     d24:	00008608 	andeq	r8, r0, r8, lsl #12
     d28:	00000480 	andeq	r0, r0, r0, lsl #9
     d2c:	0d938901 	ldceq	9, cr8, [r3, #4]
     d30:	18140000 	ldmdane	r4, {}	; <UNPREDICTABLE>
     d34:	f0000001 			; <UNDEFINED> instruction: 0xf0000001
     d38:	14000009 	strne	r0, [r0], #-9
     d3c:	0000010d 	andeq	r0, r0, sp, lsl #2
     d40:	00000a0a 	andeq	r0, r0, sl, lsl #20
     d44:	0004981c 	andeq	r9, r4, ip, lsl r8
     d48:	000d7900 	andeq	r7, sp, r0, lsl #18
     d4c:	01181400 	tsteq	r8, r0, lsl #8
     d50:	0a290000 	beq	a40d58 <__bss_end__+0xa36a78>
     d54:	0d140000 	ldceq	0, cr0, [r4, #-0]
     d58:	0a000001 	beq	d64 <_start-0x729c>
     d5c:	1d00000a 	stcne	0, cr0, [r0, #-40]	; 0xffffffd8
     d60:	000000d1 	ldrdeq	r0, [r0], -r1
     d64:	00008608 	andeq	r8, r0, r8, lsl #12
     d68:	00000498 	muleq	r0, r8, r4
     d6c:	dd143401 	cfldrsle	mvf3, [r4, #-4]
     d70:	0a000000 	beq	d78 <_start-0x7288>
     d74:	0000000a 	andeq	r0, r0, sl
     d78:	00e91d00 	rsceq	r1, r9, r0, lsl #26
     d7c:	86180000 	ldrhi	r0, [r8], -r0
     d80:	04c00000 	strbeq	r0, [r0], #0
     d84:	36010000 	strcc	r0, [r1], -r0
     d88:	0000f514 	andeq	pc, r0, r4, lsl r5	; <UNPREDICTABLE>
     d8c:	000a0a00 	andeq	r0, sl, r0, lsl #20
     d90:	18000000 	stmdane	r0, {}	; <UNPREDICTABLE>
     d94:	0000863c 	andeq	r8, r0, ip, lsr r6
     d98:	00000004 	andeq	r0, r0, r4
     d9c:	00000daa 	andeq	r0, r0, sl, lsr #27
     da0:	0002031a 	andeq	r0, r2, sl, lsl r3
     da4:	000a6700 	andeq	r6, sl, r0, lsl #14
     da8:	011b0000 	tsteq	fp, r0
     dac:	4c000001 	stcmi	0, cr0, [r0], {1}
     db0:	e0000086 	and	r0, r0, r6, lsl #1
     db4:	01000004 	tsteq	r0, r4
     db8:	000e1e8b 	andeq	r1, lr, fp, lsl #29
     dbc:	01181400 	tsteq	r8, r0, lsl #8
     dc0:	0a7a0000 	beq	1e80dc8 <__bss_end__+0x1e76ae8>
     dc4:	0d140000 	ldceq	0, cr0, [r4, #-0]
     dc8:	94000001 	strls	r0, [r0], #-1
     dcc:	1c00000a 	stcne	0, cr0, [r0], {10}
     dd0:	000004f8 	strdeq	r0, [r0], -r8
     dd4:	00000e04 	andeq	r0, r0, r4, lsl #28
     dd8:	00011814 	andeq	r1, r1, r4, lsl r8
     ddc:	000ab300 	andeq	fp, sl, r0, lsl #6
     de0:	010d1400 	tsteq	sp, r0, lsl #8
     de4:	0a940000 	beq	fe500dec <__bss_end__+0xfe4f6b0c>
     de8:	d11d0000 	tstle	sp, r0
     dec:	4c000000 	stcmi	0, cr0, [r0], {-0}
     df0:	f8000086 			; <UNDEFINED> instruction: 0xf8000086
     df4:	01000004 	tsteq	r0, r4
     df8:	00dd1434 	sbcseq	r1, sp, r4, lsr r4
     dfc:	0a940000 	beq	fe500e04 <__bss_end__+0xfe4f6b24>
     e00:	00000000 	andeq	r0, r0, r0
     e04:	0000e91d 	andeq	lr, r0, sp, lsl r9
     e08:	00865c00 	addeq	r5, r6, r0, lsl #24
     e0c:	00052000 	andeq	r2, r5, r0
     e10:	14360100 	ldrtne	r0, [r6], #-256	; 0x100
     e14:	000000f5 	strdeq	r0, [r0], -r5
     e18:	00000a94 	muleq	r0, r4, sl
     e1c:	7c180000 	ldcvc	0, cr0, [r8], {-0}
     e20:	04000086 	streq	r0, [r0], #-134	; 0x86
     e24:	35000000 	strcc	r0, [r0, #-0]
     e28:	1a00000e 	bne	e68 <_start-0x7198>
     e2c:	00000214 	andeq	r0, r0, r4, lsl r2
     e30:	00000adf 	ldrdeq	r0, [r0], -pc	; <UNPREDICTABLE>
     e34:	01011b00 	tsteq	r1, r0, lsl #22
     e38:	868c0000 	strhi	r0, [ip], r0
     e3c:	05400000 	strbeq	r0, [r0, #-0]
     e40:	8d010000 	stchi	0, cr0, [r1, #-0]
     e44:	00000ea9 	andeq	r0, r0, r9, lsr #29
     e48:	00011814 	andeq	r1, r1, r4, lsl r8
     e4c:	000af200 	andeq	pc, sl, r0, lsl #4
     e50:	010d1400 	tsteq	sp, r0, lsl #8
     e54:	0b0c0000 	bleq	300e5c <__bss_end__+0x2f6b7c>
     e58:	581c0000 	ldmdapl	ip, {}	; <UNPREDICTABLE>
     e5c:	8f000005 	svchi	0x00000005
     e60:	1400000e 	strne	r0, [r0], #-14
     e64:	00000118 	andeq	r0, r0, r8, lsl r1
     e68:	00000af2 	strdeq	r0, [r0], -r2
     e6c:	00010d14 	andeq	r0, r1, r4, lsl sp
     e70:	000b0c00 	andeq	r0, fp, r0, lsl #24
     e74:	00d11d00 	sbcseq	r1, r1, r0, lsl #26
     e78:	868c0000 	strhi	r0, [ip], r0
     e7c:	05580000 	ldrbeq	r0, [r8, #-0]
     e80:	34010000 	strcc	r0, [r1], #-0
     e84:	0000dd14 	andeq	sp, r0, r4, lsl sp
     e88:	000b0c00 	andeq	r0, fp, r0, lsl #24
     e8c:	1d000000 	stcne	0, cr0, [r0, #-0]
     e90:	000000e9 	andeq	r0, r0, r9, ror #1
     e94:	0000869c 	muleq	r0, ip, r6
     e98:	00000580 	andeq	r0, r0, r0, lsl #11
     e9c:	f5143601 			; <UNDEFINED> instruction: 0xf5143601
     ea0:	0c000000 	stceq	0, cr0, [r0], {-0}
     ea4:	0000000b 	andeq	r0, r0, fp
     ea8:	86bc1800 	ldrthi	r1, [ip], r0, lsl #16
     eac:	00040000 	andeq	r0, r4, r0
     eb0:	0ec00000 	cdpeq	0, 12, cr0, cr0, cr0, {0}
     eb4:	251a0000 	ldrcs	r0, [sl, #-0]
     eb8:	2b000002 	blcs	ec8 <_start-0x7138>
     ebc:	0000000b 	andeq	r0, r0, fp
     ec0:	0001011b 	andeq	r0, r1, fp, lsl r1
     ec4:	0086cc00 	addeq	ip, r6, r0, lsl #24
     ec8:	0005a000 	andeq	sl, r5, r0
     ecc:	2c8f0100 	stfcss	f0, [pc], {0}
     ed0:	1e00000f 	cdpne	0, 0, cr0, cr0, cr15, {0}
     ed4:	00000118 	andeq	r0, r0, r8, lsl r1
     ed8:	00010d14 	andeq	r0, r1, r4, lsl sp
     edc:	000b3e00 	andeq	r3, fp, r0, lsl #28
     ee0:	05b81c00 	ldreq	r1, [r8, #3072]!	; 0xc00
     ee4:	0f120000 	svceq	0x00120000
     ee8:	181e0000 	ldmdane	lr, {}	; <UNPREDICTABLE>
     eec:	14000001 	strne	r0, [r0], #-1
     ef0:	0000010d 	andeq	r0, r0, sp, lsl #2
     ef4:	00000b3e 	andeq	r0, r0, lr, lsr fp
     ef8:	0000d11d 	andeq	sp, r0, sp, lsl r1
     efc:	0086d000 	addeq	sp, r6, r0
     f00:	0005b800 	andeq	fp, r5, r0, lsl #16
     f04:	14340100 	ldrtne	r0, [r4], #-256	; 0x100
     f08:	000000dd 	ldrdeq	r0, [r0], -sp
     f0c:	00000b3e 	andeq	r0, r0, lr, lsr fp
     f10:	e91d0000 	ldmdb	sp, {}	; <UNPREDICTABLE>
     f14:	dc000000 	stcle	0, cr0, [r0], {-0}
     f18:	e0000086 	and	r0, r0, r6, lsl #1
     f1c:	01000005 	tsteq	r0, r5
     f20:	00f51436 	rscseq	r1, r5, r6, lsr r4
     f24:	0b3e0000 	bleq	f80f2c <__bss_end__+0xf76c4c>
     f28:	00000000 	andeq	r0, r0, r0
     f2c:	0086fc18 	addeq	pc, r6, r8, lsl ip	; <UNPREDICTABLE>
     f30:	00000400 	andeq	r0, r0, r0, lsl #8
     f34:	000f4300 	andeq	r4, pc, r0, lsl #6
     f38:	02361a00 	eorseq	r1, r6, #0, 20
     f3c:	0b5d0000 	bleq	1740f44 <__bss_end__+0x1736c64>
     f40:	19000000 	stmdbne	r0, {}	; <UNPREDICTABLE>
     f44:	000000d1 	ldrdeq	r0, [r0], -r1
     f48:	0000870c 	andeq	r8, r0, ip, lsl #14
     f4c:	00000024 	andeq	r0, r0, r4, lsr #32
     f50:	0f609101 	svceq	0x00609101
     f54:	dd140000 	ldcle	0, cr0, [r4, #-0]
     f58:	70000000 	andvc	r0, r0, r0
     f5c:	0000000b 	andeq	r0, r0, fp
     f60:	0087301f 	addeq	r3, r7, pc, lsl r0
     f64:	00000400 	andeq	r0, r0, r0, lsl #8
     f68:	02431a00 	subeq	r1, r3, #0, 20
     f6c:	0b840000 	bleq	fe100f74 <__bss_end__+0xfe0f6c94>
     f70:	00000000 	andeq	r0, r0, r0
     f74:	00009329 	andeq	r9, r0, r9, lsr #6
     f78:	4caa0100 	stfmis	f0, [sl]
     f7c:	f0000087 			; <UNDEFINED> instruction: 0xf0000087
     f80:	01000006 	tsteq	r0, r6
     f84:	0015cb9c 	mulseq	r5, ip, fp
     f88:	78722a00 	ldmdavc	r2!, {r9, fp, sp}^
     f8c:	25ab0100 	strcs	r0, [fp, #256]!	; 0x100
     f90:	14000000 	strne	r0, [r0], #-0
     f94:	0078742a 	rsbseq	r7, r8, sl, lsr #8
     f98:	0025ac01 	eoreq	sl, r5, r1, lsl #24
     f9c:	18150000 	ldmdane	r5, {}	; <UNPREDICTABLE>
     fa0:	00008788 	andeq	r8, r0, r8, lsl #15
     fa4:	00000008 	andeq	r0, r0, r8
     fa8:	00000fb8 			; <UNDEFINED> instruction: 0x00000fb8
     fac:	006e692a 	rsbeq	r6, lr, sl, lsr #18
     fb0:	002cb101 	eoreq	fp, ip, r1, lsl #2
     fb4:	00010000 	andeq	r0, r1, r0
     fb8:	00012219 	andeq	r2, r1, r9, lsl r2
     fbc:	00879000 	addeq	r9, r7, r0
     fc0:	00069400 	andeq	r9, r6, r0, lsl #8
     fc4:	91b30100 			; <UNDEFINED> instruction: 0x91b30100
     fc8:	2b000015 	blcs	1024 <_start-0x6fdc>
     fcc:	0000012e 	andeq	r0, r0, lr, lsr #2
     fd0:	01382b15 	teqeq	r8, r5, lsl fp
     fd4:	2c140000 	ldccs	0, cr0, [r4], {-0}
     fd8:	00000142 	andeq	r0, r0, r2, asr #2
     fdc:	901f1000 	andsls	r1, pc, r0
     fe0:	94000087 	strls	r0, [r0], #-135	; 0x87
     fe4:	1a000006 	bne	1004 <_start-0x6ffc>
     fe8:	0000014b 	andeq	r0, r0, fp, asr #2
     fec:	00000b97 	muleq	r0, r7, fp
     ff0:	0000d11b 	andeq	sp, r0, fp, lsl r1
     ff4:	00879800 	addeq	r9, r7, r0, lsl #16
     ff8:	00060000 	andeq	r0, r6, r0
     ffc:	0a970100 	beq	fe5c1404 <__bss_end__+0xfe5b7124>
    1000:	2b000010 	blcs	1048 <_start-0x6fb8>
    1004:	000000dd 	ldrdeq	r0, [r0], -sp
    1008:	181c0015 	ldmdane	ip, {r0, r2, r4}
    100c:	7c000006 	stcvc	0, cr0, [r0], {6}
    1010:	2d000015 	stccs	0, cr0, [r0, #-84]	; 0xffffffac
    1014:	00000157 	andeq	r0, r0, r7, asr r1
    1018:	0002561b 	andeq	r5, r2, fp, lsl r6
    101c:	0087ac00 	addeq	sl, r7, r0, lsl #24
    1020:	00063000 	andeq	r3, r6, r0
    1024:	589b0100 	ldmpl	fp, {r8}
    1028:	17000011 	smladne	r0, r1, r0, r0
    102c:	00000266 	andeq	r0, r0, r6, ror #4
    1030:	9ed00306 	cdpls	3, 13, cr0, cr0, cr6, {0}
    1034:	2e9f0000 	cdpcs	0, 9, cr0, cr15, cr0, {0}
    1038:	00000630 	andeq	r0, r0, r0, lsr r6
    103c:	0002711a 	andeq	r7, r2, sl, lsl r1
    1040:	000bf900 	andeq	pc, fp, r0, lsl #18
    1044:	027c1500 	rsbseq	r1, ip, #0, 10
    1048:	1a010000 	bne	41050 <__bss_end__+0x36d70>
    104c:	00000285 	andeq	r0, r0, r5, lsl #5
    1050:	00000c6a 	andeq	r0, r0, sl, ror #24
    1054:	0002901a 	andeq	r9, r2, sl, lsl r0
    1058:	000c9000 	andeq	r9, ip, r0
    105c:	87dc1800 	ldrbhi	r1, [ip, r0, lsl #16]
    1060:	00040000 	andeq	r0, r4, r0
    1064:	10740000 	rsbsne	r0, r4, r0
    1068:	a01a0000 	andsge	r0, sl, r0
    106c:	90000002 	andls	r0, r0, r2
    1070:	0000000c 	andeq	r0, r0, ip
    1074:	0087e018 	addeq	lr, r7, r8, lsl r0
    1078:	00000400 	andeq	r0, r0, r0, lsl #8
    107c:	00108b00 	andseq	r8, r0, r0, lsl #22
    1080:	02b11a00 	adcseq	r1, r1, #0, 20
    1084:	0ca30000 	stceq	0, cr0, [r3]
    1088:	18000000 	stmdane	r0, {}	; <UNPREDICTABLE>
    108c:	000087f4 	strdeq	r8, [r0], -r4
    1090:	00000004 	andeq	r0, r0, r4
    1094:	000010a2 	andeq	r1, r0, r2, lsr #1
    1098:	0002c21a 	andeq	ip, r2, sl, lsl r2
    109c:	000cb600 	andeq	fp, ip, r0, lsl #12
    10a0:	18180000 	ldmdane	r8, {}	; <UNPREDICTABLE>
    10a4:	04000088 	streq	r0, [r0], #-136	; 0x88
    10a8:	b9000000 	stmdblt	r0, {}	; <UNPREDICTABLE>
    10ac:	1a000010 	bne	10f4 <_start-0x6f0c>
    10b0:	000002d3 	ldrdeq	r0, [r0], -r3
    10b4:	00000cc9 	andeq	r0, r0, r9, asr #25
    10b8:	88401800 	stmdahi	r0, {fp, ip}^
    10bc:	00040000 	andeq	r0, r4, r0
    10c0:	10d00000 	sbcsne	r0, r0, r0
    10c4:	e41a0000 	ldr	r0, [sl], #-0
    10c8:	dc000002 	stcle	0, cr0, [r0], {2}
    10cc:	0000000c 	andeq	r0, r0, ip
    10d0:	00886c18 	addeq	r6, r8, r8, lsl ip
    10d4:	00000400 	andeq	r0, r0, r0, lsl #8
    10d8:	0010e700 	andseq	lr, r0, r0, lsl #14
    10dc:	02f51a00 	rscseq	r1, r5, #0, 20
    10e0:	0cef0000 	stcleq	0, cr0, [pc]	; 10e8 <_start-0x6f18>
    10e4:	18000000 	stmdane	r0, {}	; <UNPREDICTABLE>
    10e8:	00008894 	muleq	r0, r4, r8
    10ec:	00000004 	andeq	r0, r0, r4
    10f0:	000010fe 	strdeq	r1, [r0], -lr
    10f4:	0003061a 	andeq	r0, r3, sl, lsl r6
    10f8:	000d0200 	andeq	r0, sp, r0, lsl #4
    10fc:	c4180000 	ldrgt	r0, [r8], #-0
    1100:	04000088 	streq	r0, [r0], #-136	; 0x88
    1104:	15000000 	strne	r0, [r0, #-0]
    1108:	1a000011 	bne	1154 <_start-0x6eac>
    110c:	00000317 	andeq	r0, r0, r7, lsl r3
    1110:	00000d15 	andeq	r0, r0, r5, lsl sp
    1114:	88f41800 	ldmhi	r4!, {fp, ip}^
    1118:	00040000 	andeq	r0, r4, r0
    111c:	112c0000 	teqne	ip, r0
    1120:	281a0000 	ldmdacs	sl, {}	; <UNPREDICTABLE>
    1124:	28000003 	stmdacs	r0, {r0, r1}
    1128:	0000000d 	andeq	r0, r0, sp
    112c:	00893018 	addeq	r3, r9, r8, lsl r0
    1130:	00000400 	andeq	r0, r0, r0, lsl #8
    1134:	00114300 	andseq	r4, r1, r0, lsl #6
    1138:	03391a00 	teqeq	r9, #0, 20
    113c:	0d3b0000 	ldceq	0, cr0, [fp, #-0]
    1140:	1f000000 	svcne	0x00000000
    1144:	00008964 	andeq	r8, r0, r4, ror #18
    1148:	00000004 	andeq	r0, r0, r4
    114c:	0003461a 	andeq	r4, r3, sl, lsl r6
    1150:	000d4e00 	andeq	r4, sp, r0, lsl #28
    1154:	00000000 	andeq	r0, r0, r0
    1158:	00025619 	andeq	r5, r2, r9, lsl r6
    115c:	00897c00 	addeq	r7, r9, r0, lsl #24
    1160:	00016c00 	andeq	r6, r1, r0, lsl #24
    1164:	9c9c0100 	ldflss	f0, [ip], {0}
    1168:	17000012 	smladne	r0, r2, r0, r0
    116c:	00000266 	andeq	r0, r0, r6, ror #4
    1170:	9ed00306 	cdpls	3, 13, cr0, cr0, cr6, {0}
    1174:	1f9f0000 	svcne	0x009f0000
    1178:	0000897c 	andeq	r8, r0, ip, ror r9
    117c:	0000016c 	andeq	r0, r0, ip, ror #2
    1180:	0002711a 	andeq	r7, r2, sl, lsl r1
    1184:	000d6100 	andeq	r6, sp, r0, lsl #2
    1188:	027c1500 	rsbseq	r1, ip, #0, 10
    118c:	1a010000 	bne	41194 <__bss_end__+0x36eb4>
    1190:	00000285 	andeq	r0, r0, r5, lsl #5
    1194:	00000dd3 	ldrdeq	r0, [r0], -r3
    1198:	0002901a 	andeq	r9, r2, sl, lsl r0
    119c:	000df900 	andeq	pc, sp, r0, lsl #18
    11a0:	898c1800 	stmibhi	ip, {fp, ip}
    11a4:	00040000 	andeq	r0, r4, r0
    11a8:	11b80000 			; <UNDEFINED> instruction: 0x11b80000
    11ac:	a01a0000 	andsge	r0, sl, r0
    11b0:	f9000002 			; <UNDEFINED> instruction: 0xf9000002
    11b4:	0000000d 	andeq	r0, r0, sp
    11b8:	00899018 	addeq	r9, r9, r8, lsl r0
    11bc:	00000400 	andeq	r0, r0, r0, lsl #8
    11c0:	0011cf00 	andseq	ip, r1, r0, lsl #30
    11c4:	02b11a00 	adcseq	r1, r1, #0, 20
    11c8:	0e0c0000 	cdpeq	0, 0, cr0, cr12, cr0, {0}
    11cc:	18000000 	stmdane	r0, {}	; <UNPREDICTABLE>
    11d0:	000089a0 	andeq	r8, r0, r0, lsr #19
    11d4:	00000004 	andeq	r0, r0, r4
    11d8:	000011e6 	andeq	r1, r0, r6, ror #3
    11dc:	0002c21a 	andeq	ip, r2, sl, lsl r2
    11e0:	000e1f00 	andeq	r1, lr, r0, lsl #30
    11e4:	c4180000 	ldrgt	r0, [r8], #-0
    11e8:	04000089 	streq	r0, [r0], #-137	; 0x89
    11ec:	fd000000 	stc2	0, cr0, [r0, #-0]
    11f0:	1a000011 	bne	123c <_start-0x6dc4>
    11f4:	000002d3 	ldrdeq	r0, [r0], -r3
    11f8:	00000e32 	andeq	r0, r0, r2, lsr lr
    11fc:	89e81800 	stmibhi	r8!, {fp, ip}^
    1200:	00040000 	andeq	r0, r4, r0
    1204:	12140000 	andsne	r0, r4, #0
    1208:	e41a0000 	ldr	r0, [sl], #-0
    120c:	45000002 	strmi	r0, [r0, #-2]
    1210:	0000000e 	andeq	r0, r0, lr
    1214:	008a1418 	addeq	r1, sl, r8, lsl r4
    1218:	00000400 	andeq	r0, r0, r0, lsl #8
    121c:	00122b00 	andseq	r2, r2, r0, lsl #22
    1220:	02f51a00 	rscseq	r1, r5, #0, 20
    1224:	0e580000 	cdpeq	0, 5, cr0, cr8, cr0, {0}
    1228:	18000000 	stmdane	r0, {}	; <UNPREDICTABLE>
    122c:	00008a38 	andeq	r8, r0, r8, lsr sl
    1230:	00000004 	andeq	r0, r0, r4
    1234:	00001242 	andeq	r1, r0, r2, asr #4
    1238:	0003061a 	andeq	r0, r3, sl, lsl r6
    123c:	000e6b00 	andeq	r6, lr, r0, lsl #22
    1240:	60180000 	andsvs	r0, r8, r0
    1244:	0400008a 	streq	r0, [r0], #-138	; 0x8a
    1248:	59000000 	stmdbpl	r0, {}	; <UNPREDICTABLE>
    124c:	1a000012 	bne	129c <_start-0x6d64>
    1250:	00000317 	andeq	r0, r0, r7, lsl r3
    1254:	00000e7e 	andeq	r0, r0, lr, ror lr
    1258:	8a881800 	bhi	fe207260 <__bss_end__+0xfe1fcf80>
    125c:	00040000 	andeq	r0, r4, r0
    1260:	12700000 	rsbsne	r0, r0, #0
    1264:	281a0000 	ldmdacs	sl, {}	; <UNPREDICTABLE>
    1268:	91000003 	tstls	r0, r3
    126c:	0000000e 	andeq	r0, r0, lr
    1270:	008aac18 	addeq	sl, sl, r8, lsl ip
    1274:	00000400 	andeq	r0, r0, r0, lsl #8
    1278:	00128700 	andseq	r8, r2, r0, lsl #14
    127c:	03391a00 	teqeq	r9, #0, 20
    1280:	0ea40000 	cdpeq	0, 10, cr0, cr4, cr0, {0}
    1284:	1f000000 	svcne	0x00000000
    1288:	00008ad8 	ldrdeq	r8, [r0], -r8	; <UNPREDICTABLE>
    128c:	00000004 	andeq	r0, r0, r4
    1290:	0003461a 	andeq	r4, r3, sl, lsl r6
    1294:	000eb700 	andeq	fp, lr, r0, lsl #14
    1298:	00000000 	andeq	r0, r0, r0
    129c:	00025619 	andeq	r5, r2, r9, lsl r6
    12a0:	008af000 	addeq	pc, sl, r0
    12a4:	00016c00 	andeq	r6, r1, r0, lsl #24
    12a8:	e09d0100 	adds	r0, sp, r0, lsl #2
    12ac:	17000013 	smladne	r0, r3, r0, r0
    12b0:	00000266 	andeq	r0, r0, r6, ror #4
    12b4:	9ed00306 	cdpls	3, 13, cr0, cr0, cr6, {0}
    12b8:	1f9f0000 	svcne	0x009f0000
    12bc:	00008af0 	strdeq	r8, [r0], -r0
    12c0:	0000016c 	andeq	r0, r0, ip, ror #2
    12c4:	0002711a 	andeq	r7, r2, sl, lsl r1
    12c8:	000eca00 	andeq	ip, lr, r0, lsl #20
    12cc:	027c1500 	rsbseq	r1, ip, #0, 10
    12d0:	1a010000 	bne	412d8 <__bss_end__+0x36ff8>
    12d4:	00000285 	andeq	r0, r0, r5, lsl #5
    12d8:	00000f3c 	andeq	r0, r0, ip, lsr pc
    12dc:	0002901a 	andeq	r9, r2, sl, lsl r0
    12e0:	000f6200 	andeq	r6, pc, r0, lsl #4
    12e4:	8b001800 	blhi	72ec <_start-0xd14>
    12e8:	00040000 	andeq	r0, r4, r0
    12ec:	12fc0000 	rscsne	r0, ip, #0
    12f0:	a01a0000 	andsge	r0, sl, r0
    12f4:	62000002 	andvs	r0, r0, #2
    12f8:	0000000f 	andeq	r0, r0, pc
    12fc:	008b0418 	addeq	r0, fp, r8, lsl r4
    1300:	00000400 	andeq	r0, r0, r0, lsl #8
    1304:	00131300 	andseq	r1, r3, r0, lsl #6
    1308:	02b11a00 	adcseq	r1, r1, #0, 20
    130c:	0f750000 	svceq	0x00750000
    1310:	18000000 	stmdane	r0, {}	; <UNPREDICTABLE>
    1314:	00008b14 	andeq	r8, r0, r4, lsl fp
    1318:	00000004 	andeq	r0, r0, r4
    131c:	0000132a 	andeq	r1, r0, sl, lsr #6
    1320:	0002c21a 	andeq	ip, r2, sl, lsl r2
    1324:	000f8800 	andeq	r8, pc, r0, lsl #16
    1328:	38180000 	ldmdacc	r8, {}	; <UNPREDICTABLE>
    132c:	0400008b 	streq	r0, [r0], #-139	; 0x8b
    1330:	41000000 	mrsmi	r0, (UNDEF: 0)
    1334:	1a000013 	bne	1388 <_start-0x6c78>
    1338:	000002d3 	ldrdeq	r0, [r0], -r3
    133c:	00000f9b 	muleq	r0, fp, pc	; <UNPREDICTABLE>
    1340:	8b5c1800 	blhi	1707348 <__bss_end__+0x16fd068>
    1344:	00040000 	andeq	r0, r4, r0
    1348:	13580000 	cmpne	r8, #0
    134c:	e41a0000 	ldr	r0, [sl], #-0
    1350:	ae000002 	cdpge	0, 0, cr0, cr0, cr2, {0}
    1354:	0000000f 	andeq	r0, r0, pc
    1358:	008b8818 	addeq	r8, fp, r8, lsl r8
    135c:	00000400 	andeq	r0, r0, r0, lsl #8
    1360:	00136f00 	andseq	r6, r3, r0, lsl #30
    1364:	02f51a00 	rscseq	r1, r5, #0, 20
    1368:	0fc10000 	svceq	0x00c10000
    136c:	18000000 	stmdane	r0, {}	; <UNPREDICTABLE>
    1370:	00008bac 	andeq	r8, r0, ip, lsr #23
    1374:	00000004 	andeq	r0, r0, r4
    1378:	00001386 	andeq	r1, r0, r6, lsl #7
    137c:	0003061a 	andeq	r0, r3, sl, lsl r6
    1380:	000fd400 	andeq	sp, pc, r0, lsl #8
    1384:	d4180000 	ldrle	r0, [r8], #-0
    1388:	0400008b 	streq	r0, [r0], #-139	; 0x8b
    138c:	9d000000 	stcls	0, cr0, [r0, #-0]
    1390:	1a000013 	bne	13e4 <_start-0x6c1c>
    1394:	00000317 	andeq	r0, r0, r7, lsl r3
    1398:	00000fe7 	andeq	r0, r0, r7, ror #31
    139c:	8bfc1800 	blhi	fff073a4 <__bss_end__+0xffefd0c4>
    13a0:	00040000 	andeq	r0, r4, r0
    13a4:	13b40000 			; <UNDEFINED> instruction: 0x13b40000
    13a8:	281a0000 	ldmdacs	sl, {}	; <UNPREDICTABLE>
    13ac:	fa000003 	blx	13c0 <_start-0x6c40>
    13b0:	0000000f 	andeq	r0, r0, pc
    13b4:	008c2018 	addeq	r2, ip, r8, lsl r0
    13b8:	00000400 	andeq	r0, r0, r0, lsl #8
    13bc:	0013cb00 	andseq	ip, r3, r0, lsl #22
    13c0:	03391a00 	teqeq	r9, #0, 20
    13c4:	100d0000 	andne	r0, sp, r0
    13c8:	1f000000 	svcne	0x00000000
    13cc:	00008c4c 	andeq	r8, r0, ip, asr #24
    13d0:	00000004 	andeq	r0, r0, r4
    13d4:	0003461a 	andeq	r4, r3, sl, lsl r6
    13d8:	00102000 	andseq	r2, r0, r0
    13dc:	00000000 	andeq	r0, r0, r0
    13e0:	0002561b 	andeq	r5, r2, fp, lsl r6
    13e4:	008c6000 	addeq	r6, ip, r0
    13e8:	00064800 	andeq	r4, r6, r0, lsl #16
    13ec:	209e0100 	addscs	r0, lr, r0, lsl #2
    13f0:	17000015 	smladne	r0, r5, r0, r0
    13f4:	00000266 	andeq	r0, r0, r6, ror #4
    13f8:	9ed00306 	cdpls	3, 13, cr0, cr0, cr6, {0}
    13fc:	2e9f0000 	cdpcs	0, 9, cr0, cr15, cr0, {0}
    1400:	00000648 	andeq	r0, r0, r8, asr #12
    1404:	0002711a 	andeq	r7, r2, sl, lsl r1
    1408:	00103300 	andseq	r3, r0, r0, lsl #6
    140c:	027c1500 	rsbseq	r1, ip, #0, 10
    1410:	1a010000 	bne	41418 <__bss_end__+0x37138>
    1414:	00000285 	andeq	r0, r0, r5, lsl #5
    1418:	00001101 	andeq	r1, r0, r1, lsl #2
    141c:	0002901a 	andeq	r9, r2, sl, lsl r0
    1420:	00112700 	andseq	r2, r1, r0, lsl #14
    1424:	8c701800 	ldclhi	8, cr1, [r0], #-0
    1428:	00040000 	andeq	r0, r4, r0
    142c:	143c0000 	ldrtne	r0, [ip], #-0
    1430:	a01a0000 	andsge	r0, sl, r0
    1434:	27000002 	strcs	r0, [r0, -r2]
    1438:	00000011 	andeq	r0, r0, r1, lsl r0
    143c:	008c7418 	addeq	r7, ip, r8, lsl r4
    1440:	00000400 	andeq	r0, r0, r0, lsl #8
    1444:	00145300 	andseq	r5, r4, r0, lsl #6
    1448:	02b11a00 	adcseq	r1, r1, #0, 20
    144c:	113a0000 	teqne	sl, r0
    1450:	18000000 	stmdane	r0, {}	; <UNPREDICTABLE>
    1454:	00008c84 	andeq	r8, r0, r4, lsl #25
    1458:	00000004 	andeq	r0, r0, r4
    145c:	0000146a 	andeq	r1, r0, sl, ror #8
    1460:	0002c21a 	andeq	ip, r2, sl, lsl r2
    1464:	00114d00 	andseq	r4, r1, r0, lsl #26
    1468:	a4180000 	ldrge	r0, [r8], #-0
    146c:	0400008c 	streq	r0, [r0], #-140	; 0x8c
    1470:	81000000 	mrshi	r0, (UNDEF: 0)
    1474:	1a000014 	bne	14cc <_start-0x6b34>
    1478:	000002d3 	ldrdeq	r0, [r0], -r3
    147c:	00001160 	andeq	r1, r0, r0, ror #2
    1480:	8cc81800 	stclhi	8, cr1, [r8], {0}
    1484:	00040000 	andeq	r0, r4, r0
    1488:	14980000 	ldrne	r0, [r8], #0
    148c:	e41a0000 	ldr	r0, [sl], #-0
    1490:	73000002 	movwvc	r0, #2
    1494:	00000011 	andeq	r0, r0, r1, lsl r0
    1498:	008cec18 	addeq	lr, ip, r8, lsl ip
    149c:	00000400 	andeq	r0, r0, r0, lsl #8
    14a0:	0014af00 	andseq	sl, r4, r0, lsl #30
    14a4:	02f51a00 	rscseq	r1, r5, #0, 20
    14a8:	11860000 	orrne	r0, r6, r0
    14ac:	18000000 	stmdane	r0, {}	; <UNPREDICTABLE>
    14b0:	00008d10 	andeq	r8, r0, r0, lsl sp
    14b4:	00000004 	andeq	r0, r0, r4
    14b8:	000014c6 	andeq	r1, r0, r6, asr #9
    14bc:	0003061a 	andeq	r0, r3, sl, lsl r6
    14c0:	00119900 	andseq	r9, r1, r0, lsl #18
    14c4:	38180000 	ldmdacc	r8, {}	; <UNPREDICTABLE>
    14c8:	0400008d 	streq	r0, [r0], #-141	; 0x8d
    14cc:	dd000000 	stcle	0, cr0, [r0, #-0]
    14d0:	1a000014 	bne	1528 <_start-0x6ad8>
    14d4:	00000317 	andeq	r0, r0, r7, lsl r3
    14d8:	000011ac 	andeq	r1, r0, ip, lsr #3
    14dc:	8d601800 	stclhi	8, cr1, [r0, #-0]
    14e0:	00040000 	andeq	r0, r4, r0
    14e4:	14f40000 	ldrbtne	r0, [r4], #0
    14e8:	281a0000 	ldmdacs	sl, {}	; <UNPREDICTABLE>
    14ec:	bf000003 	svclt	0x00000003
    14f0:	00000011 	andeq	r0, r0, r1, lsl r0
    14f4:	008d8418 	addeq	r8, sp, r8, lsl r4
    14f8:	00000400 	andeq	r0, r0, r0, lsl #8
    14fc:	00150b00 	andseq	r0, r5, r0, lsl #22
    1500:	03391a00 	teqeq	r9, #0, 20
    1504:	11d20000 	bicsne	r0, r2, r0
    1508:	1f000000 	svcne	0x00000000
    150c:	00008dac 	andeq	r8, r0, ip, lsr #27
    1510:	00000004 	andeq	r0, r0, r4
    1514:	0003461a 	andeq	r4, r3, sl, lsl r6
    1518:	0011e500 	andseq	lr, r1, r0, lsl #10
    151c:	00000000 	andeq	r0, r0, r0
    1520:	008df424 	addeq	pc, sp, r4, lsr #8
    1524:	00035300 	andeq	r5, r3, r0, lsl #6
    1528:	00153600 	andseq	r3, r5, r0, lsl #12
    152c:	50012500 	andpl	r2, r1, r0, lsl #10
    1530:	48007b04 	stmdami	r0, {r2, r8, r9, fp, ip, sp, lr}
    1534:	00240025 	eoreq	r0, r4, r5, lsr #32
    1538:	5300008e 	movwpl	r0, #142	; 0x8e
    153c:	51000003 	tstpl	r0, r3
    1540:	25000015 	strcs	r0, [r0, #-21]
    1544:	7b095001 	blvc	255550 <__bss_end__+0x24b270>
    1548:	40ff0800 	rscsmi	r0, pc, r0, lsl #16
    154c:	25401a24 	strbcs	r1, [r0, #-2596]	; 0xa24
    1550:	8e0c2400 	cfcpyshi	mvf2, mvf12
    1554:	03530000 	cmpeq	r3, #0
    1558:	156b0000 	strbne	r0, [fp, #-0]!
    155c:	01250000 	teqeq	r5, r0
    1560:	007b0850 	rsbseq	r0, fp, r0, asr r8
    1564:	1aff000a 	bne	fffc1594 <__bss_end__+0xfffb72b4>
    1568:	2f002538 	svccs	0x00002538
    156c:	00008e14 	andeq	r8, r0, r4, lsl lr
    1570:	00000353 	andeq	r0, r0, r3, asr r3
    1574:	02500125 	subseq	r0, r0, #1073741833	; 0x40000009
    1578:	0000007b 	andeq	r0, r0, fp, ror r0
    157c:	0087982f 	addeq	r9, r7, pc, lsr #16
    1580:	0016ed00 	andseq	lr, r6, r0, lsl #26
    1584:	50012500 	andpl	r2, r1, r0, lsl #10
    1588:	9db00305 	ldcls	3, cr0, [r0, #20]!
    158c:	00000000 	andeq	r0, r0, r0
    1590:	877c2400 	ldrbhi	r2, [ip, -r0, lsl #8]!
    1594:	170a0000 	strne	r0, [sl, -r0]
    1598:	15a40000 	strne	r0, [r4, #0]!
    159c:	01250000 	teqeq	r5, r0
    15a0:	00450150 	subeq	r0, r5, r0, asr r1
    15a4:	00878424 	addeq	r8, r7, r4, lsr #8
    15a8:	00171b00 	andseq	r1, r7, r0, lsl #22
    15ac:	0015b800 	andseq	fp, r5, r0, lsl #16
    15b0:	50012500 	andpl	r2, r1, r0, lsl #10
    15b4:	00007402 	andeq	r7, r0, r2, lsl #8
    15b8:	00878826 	addeq	r8, r7, r6, lsr #16
    15bc:	00172c00 	andseq	r2, r7, r0, lsl #24
    15c0:	8e282600 	cfmadda32hi	mvax0, mvax2, mvfx8, mvfx0
    15c4:	17030000 	strne	r0, [r3, -r0]
    15c8:	30000000 	andcc	r0, r0, r0
    15cc:	00000173 	andeq	r0, r0, r3, ror r1
    15d0:	15da0601 	ldrbne	r0, [sl, #1537]	; 0x601
    15d4:	00000000 	andeq	r0, r0, r0
    15d8:	04052020 	streq	r2, [r5], #-32
    15dc:	000015e0 	andeq	r1, r0, r0, ror #11
    15e0:	00002c31 	andeq	r2, r0, r1, lsr ip
    15e4:	01e73000 	mvneq	r3, r0
    15e8:	07010000 	streq	r0, [r1, -r0]
    15ec:	000015da 	ldrdeq	r1, [r0], -sl
    15f0:	2020001c 	eorcs	r0, r0, ip, lsl r0
    15f4:	00000830 	andeq	r0, r0, r0, lsr r8
    15f8:	da080100 	ble	201a00 <__bss_end__+0x1f7720>
    15fc:	28000015 	stmdacs	r0, {r0, r2, r4}
    1600:	30202000 	eorcc	r2, r0, r0
    1604:	00000120 	andeq	r0, r0, r0, lsr #2
    1608:	15da0a01 	ldrbne	r0, [sl, #2561]	; 0xa01
    160c:	00000000 	andeq	r0, r0, r0
    1610:	28302020 	ldmdacs	r0!, {r5, sp}
    1614:	01000001 	tsteq	r0, r1
    1618:	0015da0b 	andseq	sp, r5, fp, lsl #20
    161c:	20000400 	andcs	r0, r0, r0, lsl #8
    1620:	00003020 	andeq	r3, r0, r0, lsr #32
    1624:	0c010000 	stceq	0, cr0, [r1], {-0}
    1628:	000015da 	ldrdeq	r1, [r0], -sl
    162c:	20200008 	eorcs	r0, r0, r8
    1630:	00013030 	andeq	r3, r1, r0, lsr r0
    1634:	da0d0100 	ble	341a3c <__bss_end__+0x33775c>
    1638:	0c000015 	stceq	0, cr0, [r0], {21}
    163c:	30202000 	eorcc	r2, r0, r0
    1640:	00000138 	andeq	r0, r0, r8, lsr r1
    1644:	15da0e01 	ldrbne	r0, [sl, #3585]	; 0xe01
    1648:	00100000 	andseq	r0, r0, r0
    164c:	40302020 	eorsmi	r2, r0, r0, lsr #32
    1650:	01000001 	tsteq	r0, r1
    1654:	0015da0f 	andseq	sp, r5, pc, lsl #20
    1658:	20001400 	andcs	r1, r0, r0, lsl #8
    165c:	00773020 	rsbseq	r3, r7, r0, lsr #32
    1660:	11010000 	mrsne	r0, (UNDEF: 1)
    1664:	0000166c 	andeq	r1, r0, ip, ror #12
    1668:	2020001c 	eorcs	r0, r0, ip, lsl r0
    166c:	0015da06 	andseq	sp, r5, r6, lsl #20
    1670:	007e3000 	rsbseq	r3, lr, r0
    1674:	12010000 	andne	r0, r1, #0
    1678:	000015da 	ldrdeq	r1, [r0], -sl
    167c:	20200020 	eorcs	r0, r0, r0, lsr #32
    1680:	00001230 	andeq	r1, r0, r0, lsr r2
    1684:	8f140100 	svchi	0x00140100
    1688:	28000016 	stmdacs	r0, {r1, r2, r4}
    168c:	06202000 	strteq	r2, [r0], -r0
    1690:	000015da 	ldrdeq	r1, [r0], -sl
    1694:	00017e30 	andeq	r7, r1, r0, lsr lr
    1698:	da150100 	ble	541aa0 <__bss_end__+0x5377c0>
    169c:	2c000015 	stccs	0, cr0, [r0], {21}
    16a0:	30202000 	eorcc	r2, r0, r0
    16a4:	00000085 	andeq	r0, r0, r5, lsl #1
    16a8:	16b21701 	ldrtne	r1, [r2], r1, lsl #14
    16ac:	00340000 	eorseq	r0, r4, r0
    16b0:	da062020 	ble	189738 <__bss_end__+0x17f458>
    16b4:	30000015 	andcc	r0, r0, r5, lsl r0
    16b8:	0000008c 	andeq	r0, r0, ip, lsl #1
    16bc:	15da1801 	ldrbne	r1, [sl, #2049]	; 0x801
    16c0:	00380000 	eorseq	r0, r8, r0
    16c4:	75322020 	ldrvc	r2, [r2, #-32]!
    16c8:	c6200100 	strtgt	r0, [r0], -r0, lsl #2
    16cc:	05000000 	streq	r0, [r0, #-0]
    16d0:	009ed003 	addseq	sp, lr, r3
    16d4:	01ca3300 	biceq	r3, sl, r0, lsl #6
    16d8:	50030000 	andpl	r0, r3, r0
    16dc:	000016e6 	andeq	r1, r0, r6, ror #13
    16e0:	00002c34 	andeq	r2, r0, r4, lsr ip
    16e4:	11350000 	teqne	r5, r0
    16e8:	03000001 	movweq	r0, #1
    16ec:	0314361e 	tsteq	r4, #31457280	; 0x1e00000
    16f0:	29030000 	stmdbcs	r3, {}	; <UNPREDICTABLE>
    16f4:	00000025 	andeq	r0, r0, r5, lsr #32
    16f8:	00001703 	andeq	r1, r0, r3, lsl #14
    16fc:	00008434 	andeq	r8, r0, r4, lsr r4
    1700:	35003700 	strcc	r3, [r0, #-1792]	; 0x700
    1704:	00000185 	andeq	r0, r0, r5, lsl #3
    1708:	0b336603 	bleq	cdaf1c <__bss_end__+0xcd0c3c>
    170c:	04000002 	streq	r0, [r0], #-2
    1710:	00171b1d 	andseq	r1, r7, sp, lsl fp
    1714:	002c3400 	eoreq	r3, ip, r0, lsl #8
    1718:	33000000 	movwcc	r0, #0
    171c:	000001f7 	strdeq	r0, [r0], -r7
    1720:	172c1c04 	strne	r1, [ip, -r4, lsl #24]!
    1724:	2c340000 	ldccs	0, cr0, [r4], #-0
    1728:	00000000 	andeq	r0, r0, r0
    172c:	00021b35 	andeq	r1, r2, r5, lsr fp
    1730:	008e0300 	addeq	r0, lr, r0, lsl #6
    1734:	00000191 	muleq	r0, r1, r1
    1738:	02ba0004 	adcseq	r0, sl, #4
    173c:	01040000 	mrseq	r0, (UNDEF: 4)
    1740:	000002ba 			; <UNDEFINED> instruction: 0x000002ba
    1744:	0002ac01 	andeq	sl, r2, r1, lsl #24
    1748:	00032500 	andeq	r2, r3, r0, lsl #10
    174c:	008e3c00 	addeq	r3, lr, r0, lsl #24
    1750:	00005800 	andeq	r5, r0, r0, lsl #16
    1754:	00041700 	andeq	r1, r4, r0, lsl #14
    1758:	029d0200 	addseq	r0, sp, #0, 4
    175c:	28020000 	stmdacs	r2, {}	; <UNPREDICTABLE>
    1760:	00000030 	andeq	r0, r0, r0, lsr r0
    1764:	00031b03 	andeq	r1, r3, r3, lsl #22
    1768:	00030400 	andeq	r0, r3, r0, lsl #8
    176c:	00000047 	andeq	r0, r0, r7, asr #32
    1770:	00036e04 	andeq	r6, r3, r4, lsl #28
    1774:	00004700 	andeq	r4, r0, r0, lsl #14
    1778:	05000000 	streq	r0, [r0, #-0]
    177c:	031d0204 	tsteq	sp, #4, 4	; 0x40000000
    1780:	62020000 	andvs	r0, r2, #0
    1784:	00000025 	andeq	r0, r0, r5, lsr #32
    1788:	69050406 	stmdbvs	r5, {r1, r2, sl}
    178c:	0700746e 	streq	r7, [r0, -lr, ror #8]
    1790:	003e0704 	eorseq	r0, lr, r4, lsl #14
    1794:	01070000 	mrseq	r0, (UNDEF: 7)
    1798:	0001b406 	andeq	fp, r1, r6, lsl #8
    179c:	05020700 	streq	r0, [r2, #-1792]	; 0x700
    17a0:	000001c0 	andeq	r0, r0, r0, asr #3
    17a4:	61050407 	tstvs	r5, r7, lsl #8
    17a8:	07000000 	streq	r0, [r0, -r0]
    17ac:	005c0508 	subseq	r0, ip, r8, lsl #10
    17b0:	01070000 	mrseq	r0, (UNDEF: 7)
    17b4:	0001b208 	andeq	fp, r1, r8, lsl #4
    17b8:	07020700 	streq	r0, [r2, -r0, lsl #14]
    17bc:	00000160 	andeq	r0, r0, r0, ror #2
    17c0:	39070407 	stmdbcc	r7, {r0, r1, r2, sl}
    17c4:	07000000 	streq	r0, [r0, -r0]
    17c8:	00340708 	eorseq	r0, r4, r8, lsl #14
    17cc:	04070000 	streq	r0, [r7], #-0
    17d0:	00019207 	andeq	r9, r1, r7, lsl #4
    17d4:	a7040800 	strge	r0, [r4, -r0, lsl #16]
    17d8:	07000000 	streq	r0, [r0, -r0]
    17dc:	01bb0801 			; <UNDEFINED> instruction: 0x01bb0801
    17e0:	04080000 	streq	r0, [r8], #-0
    17e4:	000000b4 	strheq	r0, [r0], -r4
    17e8:	0000a709 	andeq	sl, r0, r9, lsl #14
    17ec:	03140a00 	tsteq	r4, #0, 20
    17f0:	06010000 	streq	r0, [r1], -r0
    17f4:	00000054 	andeq	r0, r0, r4, asr r0
    17f8:	00008e3c 	andeq	r8, r0, ip, lsr lr
    17fc:	00000058 	andeq	r0, r0, r8, asr r0
    1800:	01439c01 	cmpeq	r3, r1, lsl #24
    1804:	660b0000 	strvs	r0, [fp], -r0
    1808:	0100746d 	tsteq	r0, sp, ror #8
    180c:	0000ae06 	andeq	sl, r0, r6, lsl #28
    1810:	70910200 	addsvc	r0, r1, r0, lsl #4
    1814:	75620d0c 	strbvc	r0, [r2, #-3340]!	; 0xd0c
    1818:	08010066 	stmdaeq	r1, {r1, r2, r5, r6}
    181c:	00000143 	andeq	r0, r0, r3, asr #2
    1820:	9ee00305 	cdpls	3, 14, cr0, cr0, cr5, {0}
    1824:	690e0000 	stmdbvs	lr, {}	; <UNPREDICTABLE>
    1828:	01000003 	tsteq	r0, r3
    182c:	00004909 	andeq	r4, r0, r9, lsl #18
    1830:	5c910200 	lfmpl	f0, 4, [r1], {0}
    1834:	007a730f 	rsbseq	r7, sl, pc, lsl #6
    1838:	00540c01 	subseq	r0, r4, r1, lsl #24
    183c:	11f80000 	mvnsne	r0, r0
    1840:	64100000 	ldrvs	r0, [r0], #-0
    1844:	7400008e 	strvc	r0, [r0], #-142	; 0x8e
    1848:	36000001 	strcc	r0, [r0], -r1
    184c:	11000001 	tstne	r0, r1
    1850:	91025301 	tstls	r2, r1, lsl #6
    1854:	5201114c 	andpl	r1, r1, #76, 2
    1858:	06489103 	strbeq	r9, [r8], -r3, lsl #2
    185c:	03510111 	cmpeq	r1, #1073741828	; 0x40000004
    1860:	1104000a 	tstne	r4, sl
    1864:	74025001 	strvc	r5, [r2], #-1
    1868:	78120000 	ldmdavc	r2, {}	; <UNPREDICTABLE>
    186c:	1100008e 	smlabbne	r0, lr, r0, r0
    1870:	74025001 	strvc	r5, [r2], #-1
    1874:	13000000 	movwne	r0, #0
    1878:	000000a7 	andeq	r0, r0, r7, lsr #1
    187c:	00000154 	andeq	r0, r0, r4, asr r1
    1880:	00009a14 	andeq	r9, r0, r4, lsl sl
    1884:	0003ff00 	andeq	pc, r3, r0, lsl #30
    1888:	00005415 	andeq	r5, r0, r5, lsl r4
    188c:	00016300 	andeq	r6, r1, r0, lsl #6
    1890:	00ae1600 	adceq	r1, lr, r0, lsl #12
    1894:	17000000 	strne	r0, [r0, -r0]
    1898:	000003cb 	andeq	r0, r0, fp, asr #7
    189c:	016e2204 	cmneq	lr, r4, lsl #4
    18a0:	04080000 	streq	r0, [r8], #-0
    18a4:	00000154 	andeq	r0, r0, r4, asr r1
    18a8:	00031118 	andeq	r1, r3, r8, lsl r1
    18ac:	54020500 	strpl	r0, [r2], #-1280	; 0x500
    18b0:	16000000 	strne	r0, [r0], -r0
    18b4:	000000a1 	andeq	r0, r0, r1, lsr #1
    18b8:	00005416 	andeq	r5, r0, r6, lsl r4
    18bc:	00ae1600 	adceq	r1, lr, r0, lsl #12
    18c0:	49160000 	ldmdbmi	r6, {}	; <UNPREDICTABLE>
    18c4:	00000000 	andeq	r0, r0, r0
    18c8:	00011300 	andeq	r1, r1, r0, lsl #6
    18cc:	eb000400 	bl	28d4 <_start-0x572c>
    18d0:	04000003 	streq	r0, [r0], #-3
    18d4:	0002ba01 	andeq	fp, r2, r1, lsl #20
    18d8:	039a0100 	orrseq	r0, sl, #0, 2
    18dc:	03250000 	teqeq	r5, #0
    18e0:	8e940000 	cdphi	0, 9, cr0, cr4, cr0, {0}
    18e4:	003c0000 	eorseq	r0, ip, r0
    18e8:	051d0000 	ldreq	r0, [sp, #-0]
    18ec:	04020000 	streq	r0, [r2], #-0
    18f0:	746e6905 	strbtvc	r6, [lr], #-2309	; 0x905
    18f4:	07040300 	streq	r0, [r4, -r0, lsl #6]
    18f8:	0000003e 	andeq	r0, r0, lr, lsr r0
    18fc:	b4060103 	strlt	r0, [r6], #-259	; 0x103
    1900:	03000001 	movweq	r0, #1
    1904:	01c00502 	biceq	r0, r0, r2, lsl #10
    1908:	04030000 	streq	r0, [r3], #-0
    190c:	00006105 	andeq	r6, r0, r5, lsl #2
    1910:	05080300 	streq	r0, [r8, #-768]	; 0x300
    1914:	0000005c 	andeq	r0, r0, ip, asr r0
    1918:	b2080103 	andlt	r0, r8, #-1073741824	; 0xc0000000
    191c:	03000001 	movweq	r0, #1
    1920:	01600702 	cmneq	r0, r2, lsl #14
    1924:	04030000 	streq	r0, [r3], #-0
    1928:	00003907 	andeq	r3, r0, r7, lsl #18
    192c:	07080300 	streq	r0, [r8, -r0, lsl #6]
    1930:	00000034 	andeq	r0, r0, r4, lsr r0
    1934:	92070403 	andls	r0, r7, #50331648	; 0x3000000
    1938:	03000001 	movweq	r0, #1
    193c:	01bb0801 			; <UNDEFINED> instruction: 0x01bb0801
    1940:	7d040000 	stcvc	0, cr0, [r4, #-0]
    1944:	01000003 	tsteq	r0, r3
    1948:	00002503 	andeq	r2, r0, r3, lsl #10
    194c:	008e9400 	addeq	r9, lr, r0, lsl #8
    1950:	00001400 	andeq	r1, r0, r0, lsl #8
    1954:	b09c0100 	addslt	r0, ip, r0, lsl #2
    1958:	05000000 	streq	r0, [r0, #-0]
    195c:	03010063 	movweq	r0, #4195	; 0x1063
    1960:	00000025 	andeq	r0, r0, r5, lsr #32
    1964:	00001221 	andeq	r1, r0, r1, lsr #4
    1968:	008ea006 	addeq	sl, lr, r6
    196c:	00010900 	andeq	r0, r1, r0, lsl #18
    1970:	50010700 	andpl	r0, r1, r0, lsl #14
    1974:	00007402 	andeq	r7, r0, r2, lsl #8
    1978:	01110800 	tsteq	r1, r0, lsl #16
    197c:	08010000 	stmdaeq	r1, {}	; <UNPREDICTABLE>
    1980:	00008ea8 	andeq	r8, r0, r8, lsr #29
    1984:	00000018 	andeq	r0, r0, r8, lsl r0
    1988:	a9099c01 	stmdbge	r9, {r0, sl, fp, ip, pc}
    198c:	01000003 	tsteq	r0, r3
    1990:	008ec00b 	addeq	ip, lr, fp
    1994:	00001000 	andeq	r1, r0, r0
    1998:	e39c0100 	orrs	r0, ip, #0, 2
    199c:	0a000000 	beq	19a4 <_start-0x665c>
    19a0:	01007066 	tsteq	r0, r6, rrx
    19a4:	0000f20b 	andeq	pc, r0, fp, lsl #4
    19a8:	00500100 	subseq	r0, r0, r0, lsl #2
    19ac:	0000250b 	andeq	r2, r0, fp, lsl #10
    19b0:	0000f200 	andeq	pc, r0, r0, lsl #4
    19b4:	00250c00 	eoreq	r0, r5, r0, lsl #24
    19b8:	0d000000 	stceq	0, cr0, [r0, #-0]
    19bc:	0000e304 	andeq	lr, r0, r4, lsl #6
    19c0:	038e0e00 	orreq	r0, lr, #0, 28
    19c4:	06010000 	streq	r0, [r1], -r0
    19c8:	000000f2 	strdeq	r0, [r0], -r2
    19cc:	9ccc0305 	stclls	3, cr0, [ip], {5}
    19d0:	730f0000 	movwvc	r0, #61440	; 0xf000
    19d4:	02000003 	andeq	r0, r0, #3
    19d8:	002c0c3c 	eoreq	r0, ip, ip, lsr ip
    19dc:	00000000 	andeq	r0, r0, r0
    19e0:	000000ee 	andeq	r0, r0, lr, ror #1
    19e4:	04d30004 	ldrbeq	r0, [r3], #4
    19e8:	01040000 	mrseq	r0, (UNDEF: 4)
    19ec:	000002ba 			; <UNDEFINED> instruction: 0x000002ba
    19f0:	0003b601 	andeq	fp, r3, r1, lsl #12
    19f4:	00032500 	andeq	r2, r3, r0, lsl #10
    19f8:	008ed000 	addeq	sp, lr, r0
    19fc:	00003400 	andeq	r3, r0, r0, lsl #8
    1a00:	0005ab00 	andeq	sl, r5, r0, lsl #22
    1a04:	05040200 	streq	r0, [r4, #-512]	; 0x200
    1a08:	00746e69 	rsbseq	r6, r4, r9, ror #28
    1a0c:	3e070403 	cdpcc	4, 0, cr0, cr7, cr3, {0}
    1a10:	03000000 	movweq	r0, #0
    1a14:	01b40601 			; <UNDEFINED> instruction: 0x01b40601
    1a18:	02030000 	andeq	r0, r3, #0
    1a1c:	0001c005 	andeq	ip, r1, r5
    1a20:	05040300 	streq	r0, [r4, #-768]	; 0x300
    1a24:	00000061 	andeq	r0, r0, r1, rrx
    1a28:	5c050803 	stcpl	8, cr0, [r5], {3}
    1a2c:	03000000 	movweq	r0, #0
    1a30:	01b20801 			; <UNDEFINED> instruction: 0x01b20801
    1a34:	02030000 	andeq	r0, r3, #0
    1a38:	00016007 	andeq	r6, r1, r7
    1a3c:	07040300 	streq	r0, [r4, -r0, lsl #6]
    1a40:	00000039 	andeq	r0, r0, r9, lsr r0
    1a44:	34070803 	strcc	r0, [r7], #-2051	; 0x803
    1a48:	03000000 	movweq	r0, #0
    1a4c:	01920704 	orrseq	r0, r2, r4, lsl #14
    1a50:	01030000 	mrseq	r0, (UNDEF: 3)
    1a54:	0001bb08 	andeq	fp, r1, r8, lsl #22
    1a58:	7f040400 	svcvc	0x00040400
    1a5c:	05000000 	streq	r0, [r0, #-0]
    1a60:	00000072 	andeq	r0, r0, r2, ror r0
    1a64:	0003c206 	andeq	ip, r3, r6, lsl #4
    1a68:	25040100 	strcs	r0, [r4, #-256]	; 0x100
    1a6c:	d0000000 	andle	r0, r0, r0
    1a70:	3400008e 	strcc	r0, [r0], #-142	; 0x8e
    1a74:	01000000 	mrseq	r0, (UNDEF: 0)
    1a78:	0000ab9c 	muleq	r0, ip, fp
    1a7c:	00700700 	rsbseq	r0, r0, r0, lsl #14
    1a80:	00790401 	rsbseq	r0, r9, r1, lsl #8
    1a84:	123f0000 	eorsne	r0, pc, #0
    1a88:	08000000 	stmdaeq	r0, {}	; <UNPREDICTABLE>
    1a8c:	00000025 	andeq	r0, r0, r5, lsr #32
    1a90:	000000ba 	strheq	r0, [r0], -sl
    1a94:	00002509 	andeq	r2, r0, r9, lsl #10
    1a98:	8e0a0000 	cdphi	0, 0, cr0, cr10, cr0, {0}
    1a9c:	02000003 	andeq	r0, r0, #3
    1aa0:	0000c51d 	andeq	ip, r0, sp, lsl r5
    1aa4:	ab040400 	blge	102aac <__bss_end__+0xf87cc>
    1aa8:	08000000 	stmdaeq	r0, {}	; <UNPREDICTABLE>
    1aac:	00000025 	andeq	r0, r0, r5, lsr #32
    1ab0:	000000da 	ldrdeq	r0, [r0], -sl
    1ab4:	00007909 	andeq	r7, r0, r9, lsl #18
    1ab8:	cb0b0000 	blgt	2c1ac0 <__bss_end__+0x2b77e0>
    1abc:	01000003 	tsteq	r0, r3
    1ac0:	0000eb0c 	andeq	lr, r0, ip, lsl #22
    1ac4:	d0030500 	andle	r0, r3, r0, lsl #10
    1ac8:	0400009c 	streq	r0, [r0], #-156	; 0x9c
    1acc:	0000cb04 	andeq	ip, r0, r4, lsl #22
    1ad0:	06810000 	streq	r0, [r1], r0
    1ad4:	00040000 	andeq	r0, r4, r0
    1ad8:	0000056c 	andeq	r0, r0, ip, ror #10
    1adc:	02ba0104 	adcseq	r0, sl, #4, 2
    1ae0:	fc010000 	stc2	0, cr0, [r1], {-0}
    1ae4:	25000003 	strcs	r0, [r0, #-3]
    1ae8:	04000003 	streq	r0, [r0], #-3
    1aec:	f800008f 			; <UNDEFINED> instruction: 0xf800008f
    1af0:	45000004 	strmi	r0, [r0, #-4]
    1af4:	02000006 	andeq	r0, r0, #6
    1af8:	6e690504 	cdpvs	5, 6, cr0, cr9, cr4, {0}
    1afc:	04030074 	streq	r0, [r3], #-116	; 0x74
    1b00:	00003e07 	andeq	r3, r0, r7, lsl #28
    1b04:	06010300 	streq	r0, [r1], -r0, lsl #6
    1b08:	000001b4 			; <UNDEFINED> instruction: 0x000001b4
    1b0c:	c0050203 	andgt	r0, r5, r3, lsl #4
    1b10:	03000001 	movweq	r0, #1
    1b14:	00610504 	rsbeq	r0, r1, r4, lsl #10
    1b18:	08030000 	stmdaeq	r3, {}	; <UNPREDICTABLE>
    1b1c:	00005c05 	andeq	r5, r0, r5, lsl #24
    1b20:	08010300 	stmdaeq	r1, {r8, r9}
    1b24:	000001b2 			; <UNDEFINED> instruction: 0x000001b2
    1b28:	60070203 	andvs	r0, r7, r3, lsl #4
    1b2c:	03000001 	movweq	r0, #1
    1b30:	00390704 	eorseq	r0, r9, r4, lsl #14
    1b34:	08030000 	stmdaeq	r3, {}	; <UNPREDICTABLE>
    1b38:	00003407 	andeq	r3, r0, r7, lsl #8
    1b3c:	07040300 	streq	r0, [r4, -r0, lsl #6]
    1b40:	00000192 	muleq	r0, r2, r1
    1b44:	04050404 	streq	r0, [r5], #-1028	; 0x404
    1b48:	0000007a 	andeq	r0, r0, sl, ror r0
    1b4c:	bb080103 	bllt	201f60 <__bss_end__+0x1f7c80>
    1b50:	05000001 	streq	r0, [r0, #-1]
    1b54:	00008704 	andeq	r8, r0, r4, lsl #14
    1b58:	007a0600 	rsbseq	r0, sl, r0, lsl #12
    1b5c:	9d070000 	stcls	0, cr0, [r7, #-0]
    1b60:	02000002 	andeq	r0, r0, #2
    1b64:	00009728 	andeq	r9, r0, r8, lsr #14
    1b68:	031b0800 	tsteq	fp, #0, 16
    1b6c:	04040000 	streq	r0, [r4], #-0
    1b70:	0000ae00 	andeq	sl, r0, r0, lsl #28
    1b74:	036e0900 	cmneq	lr, #0, 18
    1b78:	00720000 	rsbseq	r0, r2, r0
    1b7c:	00000000 	andeq	r0, r0, r0
    1b80:	00031d07 	andeq	r1, r3, r7, lsl #26
    1b84:	8c620200 	sfmhi	f0, 2, [r2], #-0
    1b88:	0a000000 	beq	1b90 <_start-0x6470>
    1b8c:	000003de 	ldrdeq	r0, [r0], -lr
    1b90:	00252701 	eoreq	r2, r5, r1, lsl #14
    1b94:	8f040000 	svchi	0x00040000
    1b98:	00140000 	andseq	r0, r4, r0
    1b9c:	9c010000 	stcls	0, cr0, [r1], {-0}
    1ba0:	000000e0 	andeq	r0, r0, r0, ror #1
    1ba4:	0100630b 	tsteq	r0, fp, lsl #6
    1ba8:	00002527 	andeq	r2, r0, r7, lsr #10
    1bac:	00125d00 	andseq	r5, r2, r0, lsl #26
    1bb0:	700c0000 	andvc	r0, ip, r0
    1bb4:	01006461 	tsteq	r0, r1, ror #8
    1bb8:	0000742e 	andeq	r7, r0, lr, lsr #8
    1bbc:	008f1800 	addeq	r1, pc, r0, lsl #16
    1bc0:	00002c00 	andeq	r2, r0, r0, lsl #24
    1bc4:	309c0100 	addscc	r0, ip, r0, lsl #2
    1bc8:	0b000001 	bleq	1bd4 <_start-0x642c>
    1bcc:	2e010070 	mcrcs	0, 0, r0, cr1, cr0, {3}
    1bd0:	00000074 	andeq	r0, r0, r4, ror r0
    1bd4:	0000128b 	andeq	r1, r0, fp, lsl #5
    1bd8:	0003ee0d 	andeq	lr, r3, sp, lsl #28
    1bdc:	742e0100 	strtvc	r0, [lr], #-256	; 0x100
    1be0:	b6000000 	strlt	r0, [r0], -r0
    1be4:	0e000012 	mcreq	0, 0, r0, cr0, cr2, {0}
    1be8:	0000041c 	andeq	r0, r0, ip, lsl r4
    1bec:	00252e01 	eoreq	r2, r5, r1, lsl #28
    1bf0:	52010000 	andpl	r0, r1, #0
    1bf4:	6e656c0f 	cdpvs	12, 6, cr6, cr5, cr15, {0}
    1bf8:	252f0100 	strcs	r0, [pc, #-256]!	; 1b00 <_start-0x6500>
    1bfc:	01000000 	mrseq	r0, (UNDEF: 0)
    1c00:	d60a0051 			; <UNDEFINED> instruction: 0xd60a0051
    1c04:	01000003 	tsteq	r0, r3
    1c08:	00007437 	andeq	r7, r0, r7, lsr r4
    1c0c:	008f4400 	addeq	r4, pc, r0, lsl #8
    1c10:	00004000 	andeq	r4, r0, r0
    1c14:	9c9c0100 	ldflss	f0, [ip], {0}
    1c18:	0b000001 	bleq	1c24 <_start-0x63dc>
    1c1c:	00747364 	rsbseq	r7, r4, r4, ror #6
    1c20:	00743701 	rsbseq	r3, r4, r1, lsl #14
    1c24:	12d70000 	sbcsne	r0, r7, #0
    1c28:	6e0b0000 	cdpvs	0, 0, cr0, cr11, cr0, {0}
    1c2c:	25370100 	ldrcs	r0, [r7, #-256]!	; 0x100
    1c30:	0f000000 	svceq	0x00000000
    1c34:	0b000013 	bleq	1c88 <_start-0x6378>
    1c38:	37010070 	smlsdxcc	r1, r0, r0, r0
    1c3c:	00000074 	andeq	r0, r0, r4, ror r0
    1c40:	00001330 	andeq	r1, r0, r0, lsr r3
    1c44:	0004ad0d 	andeq	sl, r4, sp, lsl #26
    1c48:	74370100 	ldrtvc	r0, [r7], #-256	; 0x100
    1c4c:	66000000 	strvs	r0, [r0], -r0
    1c50:	10000013 	andne	r0, r0, r3, lsl r0
    1c54:	006e656c 	rsbeq	r6, lr, ip, ror #10
    1c58:	00253901 	eoreq	r3, r5, r1, lsl #18
    1c5c:	13840000 	orrne	r0, r4, #0
    1c60:	730f0000 	movwvc	r0, #61440	; 0xf000
    1c64:	743d0100 	ldrtvc	r0, [sp], #-256	; 0x100
    1c68:	01000000 	mrseq	r0, (UNDEF: 0)
    1c6c:	2a0a0050 	bcs	281db4 <__bss_end__+0x277ad4>
    1c70:	01000004 	tsteq	r0, r4
    1c74:	00007447 	andeq	r7, r0, r7, asr #8
    1c78:	008f8400 	addeq	r8, pc, r0, lsl #8
    1c7c:	00019c00 	andeq	r9, r1, r0, lsl #24
    1c80:	d39c0100 	orrsle	r0, ip, #0, 2
    1c84:	0d000002 	stceq	0, cr0, [r0, #-8]
    1c88:	000003ee 	andeq	r0, r0, lr, ror #7
    1c8c:	002c4701 	eoreq	r4, ip, r1, lsl #14
    1c90:	13ab0000 			; <UNDEFINED> instruction: 0x13ab0000
    1c94:	640b0000 	strvs	r0, [fp], #-0
    1c98:	01007473 	tsteq	r0, r3, ror r4
    1c9c:	00007447 	andeq	r7, r0, r7, asr #8
    1ca0:	0013d900 	andseq	sp, r3, r0, lsl #18
    1ca4:	006e0b00 	rsbeq	r0, lr, r0, lsl #22
    1ca8:	00254701 	eoreq	r4, r5, r1, lsl #14
    1cac:	14470000 	strbne	r0, [r7], #-0
    1cb0:	760b0000 	strvc	r0, [fp], -r0
    1cb4:	01006c61 	tsteq	r0, r1, ror #24
    1cb8:	00002547 	andeq	r2, r0, r7, asr #10
    1cbc:	00147300 	andseq	r7, r4, r0, lsl #6
    1cc0:	041c0d00 	ldreq	r0, [ip], #-3328	; 0xd00
    1cc4:	47010000 	strmi	r0, [r1, -r0]
    1cc8:	00000025 	andeq	r0, r0, r5, lsr #32
    1ccc:	000014f2 	strdeq	r1, [r0], -r2
    1cd0:	0003f30e 	andeq	pc, r3, lr, lsl #6
    1cd4:	25470100 	strbcs	r0, [r7, #-256]	; 0x100
    1cd8:	02000000 	andeq	r0, r0, #0
    1cdc:	620f0491 	andvs	r0, pc, #-1862270976	; 0x91000000
    1ce0:	01006675 	tsteq	r0, r5, ror r6
    1ce4:	0002d34c 	andeq	sp, r2, ip, asr #6
    1ce8:	a8910300 	ldmge	r1, {r8, r9}
    1cec:	0070107f 	rsbseq	r1, r0, pc, ror r0
    1cf0:	00744c01 	rsbseq	r4, r4, r1, lsl #24
    1cf4:	151c0000 	ldrne	r0, [ip, #-0]
    1cf8:	75100000 	ldrvc	r0, [r0, #-0]
    1cfc:	2c4d0100 	stfcse	f0, [sp], {-0}
    1d00:	c1000000 	mrsgt	r0, (UNDEF: 0)
    1d04:	11000015 	tstne	r0, r5, lsl r0
    1d08:	00000153 	andeq	r0, r0, r3, asr r1
    1d0c:	000002f3 	strdeq	r0, [r0], -r3
    1d10:	9dc00305 	stclls	3, cr0, [r0, #20]
    1d14:	f0120000 			; <UNDEFINED> instruction: 0xf0120000
    1d18:	7400008f 	strvc	r0, [r0], #-143	; 0x8f
    1d1c:	61000000 	mrsvs	r0, (UNDEF: 0)
    1d20:	13000002 	movwne	r0, #2
    1d24:	000003d0 	ldrdeq	r0, [r0], -r0	; <UNPREDICTABLE>
    1d28:	002c5201 	eoreq	r5, ip, r1, lsl #4
    1d2c:	16c60000 	strbne	r0, [r6], r0
    1d30:	14000000 	strne	r0, [r0], #-0
    1d34:	000090c4 	andeq	r9, r0, r4, asr #1
    1d38:	00000660 	andeq	r0, r0, r0, ror #12
    1d3c:	0090d815 	addseq	sp, r0, r5, lsl r8
    1d40:	00066700 	andeq	r6, r6, r0, lsl #14
    1d44:	00029900 	andeq	r9, r2, r0, lsl #18
    1d48:	53011600 	movwpl	r1, #5632	; 0x1600
    1d4c:	16750802 	ldrbtne	r0, [r5], -r2, lsl #16
    1d50:	03055201 	movweq	r5, #20993	; 0x5201
    1d54:	00009dc0 	andeq	r9, r0, r0, asr #27
    1d58:	05510116 	ldrbeq	r0, [r1, #-278]	; 0x116
    1d5c:	009df803 	addseq	pc, sp, r3, lsl #16
    1d60:	50011600 	andpl	r1, r1, r0, lsl #12
    1d64:	9de40305 	stclls	3, cr0, [r4, #20]!
    1d68:	14000000 	strne	r0, [r0], #-0
    1d6c:	000090dc 	ldrdeq	r9, [r0], -ip
    1d70:	0000067d 	andeq	r0, r0, sp, ror r6
    1d74:	0090e815 	addseq	lr, r0, r5, lsl r8
    1d78:	0000e000 	andeq	lr, r0, r0
    1d7c:	0002b600 	andeq	fp, r2, r0, lsl #12
    1d80:	51011600 	tstpl	r1, r0, lsl #12
    1d84:	00007d02 	andeq	r7, r0, r2, lsl #26
    1d88:	0090fc17 	addseq	pc, r0, r7, lsl ip	; <UNPREDICTABLE>
    1d8c:	00013000 	andeq	r3, r1, r0
    1d90:	53011600 	movwpl	r1, #5632	; 0x1600
    1d94:	16007d02 	strne	r7, [r0], -r2, lsl #26
    1d98:	74025101 	strvc	r5, [r2], #-257	; 0x101
    1d9c:	50011600 	andpl	r1, r1, r0, lsl #12
    1da0:	00007502 	andeq	r7, r0, r2, lsl #10
    1da4:	007a1800 	rsbseq	r1, sl, r0, lsl #16
    1da8:	02e30000 	rsceq	r0, r3, #0
    1dac:	6b190000 	blvs	641db4 <__bss_end__+0x637ad4>
    1db0:	3f000000 	svccc	0x00000000
    1db4:	007a1800 	rsbseq	r1, sl, r0, lsl #16
    1db8:	02f30000 	rscseq	r0, r3, #0
    1dbc:	6b190000 	blvs	641dc4 <__bss_end__+0x637ae4>
    1dc0:	04000000 	streq	r0, [r0], #-0
    1dc4:	02e30600 	rsceq	r0, r3, #0, 12
    1dc8:	0d1a0000 	ldceq	0, cr0, [sl, #-0]
    1dcc:	01000004 	tsteq	r0, r4
    1dd0:	0091201f 	addseq	r2, r1, pc, lsl r0
    1dd4:	00005400 	andeq	r5, r0, r0, lsl #8
    1dd8:	7c9c0100 	ldfvcs	f0, [ip], {0}
    1ddc:	0d000003 	stceq	0, cr0, [r0, #-12]
    1de0:	00000422 	andeq	r0, r0, r2, lsr #8
    1de4:	038b1f01 	orreq	r1, fp, #1, 30
    1de8:	16f20000 	ldrbtne	r0, [r2], r0
    1dec:	e60d0000 	str	r0, [sp], -r0
    1df0:	01000003 	tsteq	r0, r3
    1df4:	0003a01f 	andeq	sl, r3, pc, lsl r0
    1df8:	00171e00 	andseq	r1, r7, r0, lsl #28
    1dfc:	01531100 	cmpeq	r3, r0, lsl #2
    1e00:	03b60000 			; <UNDEFINED> instruction: 0x03b60000
    1e04:	03050000 	movweq	r0, #20480	; 0x5000
    1e08:	00009dc8 	andeq	r9, r0, r8, asr #27
    1e0c:	00913014 	addseq	r3, r1, r4, lsl r0
    1e10:	00066000 	andeq	r6, r6, r0
    1e14:	91441500 	cmpls	r4, r0, lsl #10
    1e18:	06670000 	strbteq	r0, [r7], -r0
    1e1c:	03720000 	cmneq	r2, #0
    1e20:	01160000 	tsteq	r6, r0
    1e24:	20080253 	andcs	r0, r8, r3, asr r2
    1e28:	05520116 	ldrbeq	r0, [r2, #-278]	; 0x116
    1e2c:	009dc803 	addseq	ip, sp, r3, lsl #16
    1e30:	51011600 	tstpl	r1, r0, lsl #12
    1e34:	9df80305 	ldclls	3, cr0, [r8, #20]!
    1e38:	01160000 	tsteq	r6, r0
    1e3c:	30030550 	andcc	r0, r3, r0, asr r5
    1e40:	0000009e 	muleq	r0, lr, r0
    1e44:	00914814 	addseq	r4, r1, r4, lsl r8
    1e48:	00067d00 	andeq	r7, r6, r0, lsl #26
    1e4c:	251b0000 	ldrcs	r0, [fp, #-0]
    1e50:	8b000000 	blhi	1e58 <_start-0x61a8>
    1e54:	1c000003 	stcne	0, cr0, [r0], {3}
    1e58:	00000025 	andeq	r0, r0, r5, lsr #32
    1e5c:	7c040500 	cfstr32vc	mvfx0, [r4], {-0}
    1e60:	1b000003 	blne	1e74 <_start-0x618c>
    1e64:	00000025 	andeq	r0, r0, r5, lsr #32
    1e68:	000003a0 	andeq	r0, r0, r0, lsr #7
    1e6c:	0000811c 	andeq	r8, r0, ip, lsl r1
    1e70:	04050000 	streq	r0, [r5], #-0
    1e74:	00000391 	muleq	r0, r1, r3
    1e78:	00007a18 	andeq	r7, r0, r8, lsl sl
    1e7c:	0003b600 	andeq	fp, r3, r0, lsl #12
    1e80:	006b1900 	rsbeq	r1, fp, r0, lsl #18
    1e84:	000e0000 	andeq	r0, lr, r0
    1e88:	0003a606 	andeq	sl, r3, r6, lsl #12
    1e8c:	03111d00 	tsteq	r1, #0, 26
    1e90:	7d010000 	stcvc	0, cr0, [r1, #-0]
    1e94:	00000025 	andeq	r0, r0, r5, lsr #32
    1e98:	00009174 	andeq	r9, r0, r4, ror r1
    1e9c:	00000288 	andeq	r0, r0, r8, lsl #5
    1ea0:	06259c01 	strteq	r9, [r5], -r1, lsl #24
    1ea4:	620b0000 	andvs	r0, fp, #0
    1ea8:	01006675 	tsteq	r0, r5, ror r6
    1eac:	0000747d 	andeq	r7, r0, sp, ror r4
    1eb0:	00174a00 	andseq	r4, r7, r0, lsl #20
    1eb4:	006e0b00 	rsbeq	r0, lr, r0, lsl #22
    1eb8:	00257d01 	eoreq	r7, r5, r1, lsl #26
    1ebc:	17760000 	ldrbne	r0, [r6, -r0]!
    1ec0:	660b0000 	strvs	r0, [fp], -r0
    1ec4:	0100746d 	tsteq	r0, sp, ror #8
    1ec8:	0000817d 	andeq	r8, r0, sp, ror r1
    1ecc:	0017a400 	andseq	sl, r7, r0, lsl #8
    1ed0:	03690d00 	cmneq	r9, #0, 26
    1ed4:	7d010000 	stcvc	0, cr0, [r1, #-0]
    1ed8:	000000ae 	andeq	r0, r0, lr, lsr #1
    1edc:	000017d8 	ldrdeq	r1, [r0], -r8
    1ee0:	01007010 	tsteq	r0, r0, lsl r0
    1ee4:	0000747e 	andeq	r7, r0, lr, ror r4
    1ee8:	0017eb00 	andseq	lr, r7, r0, lsl #22
    1eec:	00651000 	rsbeq	r1, r5, r0
    1ef0:	00747e01 	rsbseq	r7, r4, r1, lsl #28
    1ef4:	18690000 	stmdane	r9!, {}^	; <UNPREDICTABLE>
    1ef8:	53110000 	tstpl	r1, #0
    1efc:	35000001 	strcc	r0, [r0, #-1]
    1f00:	05000006 	streq	r0, [r0, #-6]
    1f04:	009dd803 	addseq	sp, sp, r3, lsl #16
    1f08:	06601e00 	strbteq	r1, [r0], -r0, lsl #28
    1f0c:	73100000 	tstvc	r0, #0
    1f10:	748b0100 	strvc	r0, [fp], #256	; 0x100
    1f14:	90000000 	andls	r0, r0, r0
    1f18:	0f000018 	svceq	0x00000018
    1f1c:	006d756e 	rsbeq	r7, sp, lr, ror #10
    1f20:	063a8b01 	ldrteq	r8, [sl], -r1, lsl #22
    1f24:	91030000 	mrsls	r0, (UNDEF: 3)
    1f28:	1c137ed8 	ldcne	14, cr7, [r3], {216}	; 0xd8
    1f2c:	01000004 	tsteq	r0, r4
    1f30:	00002c8c 	andeq	r2, r0, ip, lsl #25
    1f34:	0018e500 	andseq	lr, r8, r0, lsl #10
    1f38:	91f81500 	mvnsls	r1, r0, lsl #10
    1f3c:	00b90000 	adcseq	r0, r9, r0
    1f40:	047b0000 	ldrbteq	r0, [fp], #-0
    1f44:	01160000 	tsteq	r6, r0
    1f48:	00750250 	rsbseq	r0, r5, r0, asr r2
    1f4c:	920c1400 	andls	r1, ip, #0, 8
    1f50:	06600000 	strbteq	r0, [r0], -r0
    1f54:	20150000 	andscs	r0, r5, r0
    1f58:	67000092 			; <UNDEFINED> instruction: 0x67000092
    1f5c:	b3000006 	movwlt	r0, #6
    1f60:	16000004 	strne	r0, [r0], -r4
    1f64:	08025301 	stmdaeq	r2, {r0, r8, r9, ip, lr}
    1f68:	52011692 	andpl	r1, r1, #153092096	; 0x9200000
    1f6c:	9dd80305 	ldclls	3, cr0, [r8, #20]
    1f70:	01160000 	tsteq	r6, r0
    1f74:	f8030551 			; <UNDEFINED> instruction: 0xf8030551
    1f78:	1600009d 			; <UNDEFINED> instruction: 0x1600009d
    1f7c:	03055001 	movweq	r5, #20481	; 0x5001
    1f80:	00009e48 	andeq	r9, r0, r8, asr #28
    1f84:	92241400 	eorls	r1, r4, #0, 8
    1f88:	067d0000 	ldrbteq	r0, [sp], -r0
    1f8c:	94140000 	ldrls	r0, [r4], #-0
    1f90:	60000092 	mulvs	r0, r2, r0
    1f94:	15000006 	strne	r0, [r0, #-6]
    1f98:	000092a8 	andeq	r9, r0, r8, lsr #5
    1f9c:	00000667 	andeq	r0, r0, r7, ror #12
    1fa0:	000004f4 	strdeq	r0, [r0], -r4
    1fa4:	02530116 	subseq	r0, r3, #-2147483643	; 0x80000005
    1fa8:	01169808 	tsteq	r6, r8, lsl #16
    1fac:	d8030552 	stmdale	r3, {r1, r4, r6, r8, sl}
    1fb0:	1600009d 			; <UNDEFINED> instruction: 0x1600009d
    1fb4:	03055101 	movweq	r5, #20737	; 0x5101
    1fb8:	00009df8 	strdeq	r9, [r0], -r8
    1fbc:	05500116 	ldrbeq	r0, [r0, #-278]	; 0x116
    1fc0:	009e6403 	addseq	r6, lr, r3, lsl #8
    1fc4:	ac140000 	ldcge	0, cr0, [r4], {-0}
    1fc8:	7d000092 	stcvc	0, cr0, [r0, #-584]	; 0xfffffdb8
    1fcc:	15000006 	strne	r0, [r0, #-6]
    1fd0:	000092d0 	ldrdeq	r9, [r0], -r0
    1fd4:	0000019c 	muleq	r0, ip, r1
    1fd8:	0000052a 	andeq	r0, r0, sl, lsr #10
    1fdc:	02520116 	subseq	r0, r2, #-2147483643	; 0x80000005
    1fe0:	01168008 	tsteq	r6, r8
    1fe4:	d0910351 	addsle	r0, r1, r1, asr r3
    1fe8:	5001167e 	andpl	r1, r1, lr, ror r6
    1fec:	02163a01 	andseq	r3, r6, #4096	; 0x1000
    1ff0:	3101047d 	tstcc	r1, sp, ror r4
    1ff4:	007d0216 	rsbseq	r0, sp, r6, lsl r2
    1ff8:	00007702 	andeq	r7, r0, r2, lsl #14
    1ffc:	0092f415 	addseq	pc, r2, r5, lsl r4	; <UNPREDICTABLE>
    2000:	00019c00 	andeq	r9, r1, r0, lsl #24
    2004:	00055800 	andeq	r5, r5, r0, lsl #16
    2008:	52011600 	andpl	r1, r1, #0, 12
    200c:	16800802 	strne	r0, [r0], r2, lsl #16
    2010:	91035101 	tstls	r3, r1, lsl #2
    2014:	01167ed0 			; <UNDEFINED> instruction: 0x01167ed0
    2018:	163a0150 			; <UNDEFINED> instruction: 0x163a0150
    201c:	02047d02 	andeq	r7, r4, #2, 26	; 0x80
    2020:	0216007b 	andseq	r0, r6, #123	; 0x7b
    2024:	7702007d 	smlsdxvc	r2, sp, r0, r0
    2028:	18150000 	ldmdane	r5, {}	; <UNPREDICTABLE>
    202c:	9c000093 	stcls	0, cr0, [r0], {147}	; 0x93
    2030:	86000001 	strhi	r0, [r0], -r1
    2034:	16000005 	strne	r0, [r0], -r5
    2038:	08025201 	stmdaeq	r2, {r0, r9, ip, lr}
    203c:	51011680 	smlabbpl	r1, r0, r6, r1
    2040:	7ed09103 	atnvcs	f1, f3
    2044:	01500116 	cmpeq	r0, r6, lsl r1
    2048:	7d021640 	stcvc	6, cr1, [r2, #-256]	; 0xffffff00
    204c:	007b0204 	rsbseq	r0, fp, r4, lsl #4
    2050:	007d0216 	rsbseq	r0, sp, r6, lsl r2
    2054:	00007702 	andeq	r7, r0, r2, lsl #14
    2058:	00933c15 	addseq	r3, r3, r5, lsl ip
    205c:	00019c00 	andeq	r9, r1, r0, lsl #24
    2060:	0005b400 	andeq	fp, r5, r0, lsl #8
    2064:	52011600 	andpl	r1, r1, #0, 12
    2068:	16800802 	strne	r0, [r0], r2, lsl #16
    206c:	91035101 	tstls	r3, r1, lsl #2
    2070:	01167ed0 			; <UNDEFINED> instruction: 0x01167ed0
    2074:	16320150 			; <UNDEFINED> instruction: 0x16320150
    2078:	02047d02 	andeq	r7, r4, #2, 26	; 0x80
    207c:	0216007b 	andseq	r0, r6, #123	; 0x7b
    2080:	7702007d 	smlsdxvc	r2, sp, r0, r0
    2084:	6c150000 	ldcvs	0, cr0, [r5], {-0}
    2088:	9c000093 	stcls	0, cr0, [r0], {147}	; 0x93
    208c:	e2000001 	and	r0, r0, #1
    2090:	16000005 	strne	r0, [r0], -r5
    2094:	08025201 	stmdaeq	r2, {r0, r9, ip, lr}
    2098:	51011680 	smlabbpl	r1, r0, r6, r1
    209c:	7ed09103 	atnvcs	f1, f3
    20a0:	01500116 	cmpeq	r0, r6, lsl r1
    20a4:	7d021638 	stcvc	6, cr1, [r2, #-224]	; 0xffffff20
    20a8:	007b0204 	rsbseq	r0, fp, r4, lsl #4
    20ac:	007d0216 	rsbseq	r0, sp, r6, lsl r2
    20b0:	00007702 	andeq	r7, r0, r2, lsl #14
    20b4:	00937414 	addseq	r7, r3, r4, lsl r4
    20b8:	00066000 	andeq	r6, r6, r0
    20bc:	93901500 	orrsls	r1, r0, #0, 10
    20c0:	06670000 	strbteq	r0, [r7], -r0
    20c4:	061a0000 	ldreq	r0, [sl], -r0
    20c8:	01160000 	tsteq	r6, r0
    20cc:	b9080253 	stmdblt	r8, {r0, r1, r4, r6, r9}
    20d0:	05520116 	ldrbeq	r0, [r2, #-278]	; 0x116
    20d4:	009dd803 	addseq	sp, sp, r3, lsl #16
    20d8:	51011600 	tstpl	r1, r0, lsl #12
    20dc:	9df80305 	ldclls	3, cr0, [r8, #20]!
    20e0:	01160000 	tsteq	r6, r0
    20e4:	8c030550 	cfstr32hi	mvfx0, [r3], {80}	; 0x50
    20e8:	0000009e 	muleq	r0, lr, r0
    20ec:	00939414 	addseq	r9, r3, r4, lsl r4
    20f0:	00067d00 	andeq	r7, r6, r0, lsl #26
    20f4:	18000000 	stmdane	r0, {}	; <UNPREDICTABLE>
    20f8:	0000007a 	andeq	r0, r0, sl, ror r0
    20fc:	00000635 	andeq	r0, r0, r5, lsr r6
    2100:	00006b19 	andeq	r6, r0, r9, lsl fp
    2104:	06000900 	streq	r0, [r0], -r0, lsl #18
    2108:	00000625 	andeq	r0, r0, r5, lsr #12
    210c:	00007a18 	andeq	r7, r0, r8, lsl sl
    2110:	00064a00 	andeq	r4, r6, r0, lsl #20
    2114:	006b1900 	rsbeq	r1, fp, r0, lsl #18
    2118:	007f0000 	rsbseq	r0, pc, r0
    211c:	00038e1f 	andeq	r8, r3, pc, lsl lr
    2120:	8b1d0300 	blhi	742d28 <__bss_end__+0x738a48>
    2124:	1f000003 	svcne	0x00000003
    2128:	000003cb 	andeq	r0, r0, fp, asr #7
    212c:	03a02203 	moveq	r2, #805306368	; 0x30000000
    2130:	11200000 	teqne	r0, r0
    2134:	03000001 	movweq	r0, #1
    2138:	0314211e 	tsteq	r4, #-2147483641	; 0x80000007
    213c:	29030000 	stmdbcs	r3, {}	; <UNPREDICTABLE>
    2140:	00000025 	andeq	r0, r0, r5, lsr #32
    2144:	0000067d 	andeq	r0, r0, sp, ror r6
    2148:	0000811c 	andeq	r8, r0, ip, lsl r1
    214c:	20002200 	andcs	r2, r0, r0, lsl #4
    2150:	00000185 	andeq	r0, r0, r5, lsl #3
    2154:	b8006603 	stmdalt	r0, {r0, r1, r9, sl, sp, lr}
    2158:	04000000 	streq	r0, [r0], #-0
    215c:	00074800 	andeq	r4, r7, r0, lsl #16
    2160:	ba010400 	blt	43168 <__bss_end__+0x38e88>
    2164:	01000002 	tsteq	r0, r2
    2168:	0000043d 	andeq	r0, r0, sp, lsr r4
    216c:	00000325 	andeq	r0, r0, r5, lsr #6
    2170:	000093fc 	strdeq	r9, [r0], -ip
    2174:	00000020 	andeq	r0, r0, r0, lsr #32
    2178:	00000827 	andeq	r0, r0, r7, lsr #16
    217c:	69050402 	stmdbvs	r5, {r1, sl}
    2180:	0300746e 	movweq	r7, #1134	; 0x46e
    2184:	003e0704 	eorseq	r0, lr, r4, lsl #14
    2188:	01030000 	mrseq	r0, (UNDEF: 3)
    218c:	0001b406 	andeq	fp, r1, r6, lsl #8
    2190:	05020300 	streq	r0, [r2, #-768]	; 0x300
    2194:	000001c0 	andeq	r0, r0, r0, asr #3
    2198:	61050403 	tstvs	r5, r3, lsl #8
    219c:	03000000 	movweq	r0, #0
    21a0:	005c0508 	subseq	r0, ip, r8, lsl #10
    21a4:	01030000 	mrseq	r0, (UNDEF: 3)
    21a8:	0001b208 	andeq	fp, r1, r8, lsl #4
    21ac:	07020300 	streq	r0, [r2, -r0, lsl #6]
    21b0:	00000160 	andeq	r0, r0, r0, ror #2
    21b4:	39070403 	stmdbcc	r7, {r0, r1, sl}
    21b8:	03000000 	movweq	r0, #0
    21bc:	00340708 	eorseq	r0, r4, r8, lsl #14
    21c0:	04030000 	streq	r0, [r3], #-0
    21c4:	00019207 	andeq	r9, r1, r7, lsl #4
    21c8:	08010300 	stmdaeq	r1, {r8, r9}
    21cc:	000001bb 			; <UNDEFINED> instruction: 0x000001bb
    21d0:	00021b04 	andeq	r1, r2, r4, lsl #22
    21d4:	fc030100 	stc2	1, cr0, [r3], {-0}
    21d8:	10000093 	mulne	r0, r3, r0
    21dc:	01000000 	mrseq	r0, (UNDEF: 0)
    21e0:	00009c9c 	muleq	r0, ip, ip
    21e4:	00720500 	rsbseq	r0, r2, r0, lsl #10
    21e8:	002c0401 	eoreq	r0, ip, r1, lsl #8
    21ec:	190f0000 	stmdbne	pc, {}	; <UNPREDICTABLE>
    21f0:	06000000 	streq	r0, [r0], -r0
    21f4:	0000042f 	andeq	r0, r0, pc, lsr #8
    21f8:	940c0c01 	strls	r0, [ip], #-3073	; 0xc01
    21fc:	00100000 	andseq	r0, r0, r0
    2200:	9c010000 	stcls	0, cr0, [r1], {-0}
    2204:	01007205 	tsteq	r0, r5, lsl #4
    2208:	00002c0d 	andeq	r2, r0, sp, lsl #24
    220c:	00193300 	andseq	r3, r9, r0, lsl #6
    2210:	ff000000 			; <UNDEFINED> instruction: 0xff000000
    2214:	04000000 	streq	r0, [r0], #-0
    2218:	0007b300 	andeq	fp, r7, r0, lsl #6
    221c:	ba010400 	blt	43224 <__bss_end__+0x38f44>
    2220:	01000002 	tsteq	r0, r2
    2224:	0000045b 	andeq	r0, r0, fp, asr r4
    2228:	00000325 	andeq	r0, r0, r5, lsr #6
    222c:	0000941c 	andeq	r9, r0, ip, lsl r4
    2230:	00000028 	andeq	r0, r0, r8, lsr #32
    2234:	0000086e 	andeq	r0, r0, lr, ror #16
    2238:	69050402 	stmdbvs	r5, {r1, sl}
    223c:	0300746e 	movweq	r7, #1134	; 0x46e
    2240:	003e0704 	eorseq	r0, lr, r4, lsl #14
    2244:	01030000 	mrseq	r0, (UNDEF: 3)
    2248:	0001b406 	andeq	fp, r1, r6, lsl #8
    224c:	05020300 	streq	r0, [r2, #-768]	; 0x300
    2250:	000001c0 	andeq	r0, r0, r0, asr #3
    2254:	61050403 	tstvs	r5, r3, lsl #8
    2258:	03000000 	movweq	r0, #0
    225c:	005c0508 	subseq	r0, ip, r8, lsl #10
    2260:	01030000 	mrseq	r0, (UNDEF: 3)
    2264:	0001b208 	andeq	fp, r1, r8, lsl #4
    2268:	07020300 	streq	r0, [r2, -r0, lsl #6]
    226c:	00000160 	andeq	r0, r0, r0, ror #2
    2270:	39070403 	stmdbcc	r7, {r0, r1, sl}
    2274:	03000000 	movweq	r0, #0
    2278:	00340708 	eorseq	r0, r4, r8, lsl #14
    227c:	04030000 	streq	r0, [r3], #-0
    2280:	00019207 	andeq	r9, r1, r7, lsl #4
    2284:	08010300 	stmdaeq	r1, {r8, r9}
    2288:	000001bb 			; <UNDEFINED> instruction: 0x000001bb
    228c:	007f0404 	rsbseq	r0, pc, r4, lsl #8
    2290:	72050000 	andvc	r0, r5, #0
    2294:	06000000 	streq	r0, [r0], -r0
    2298:	00000185 	andeq	r0, r0, r5, lsl #3
    229c:	941c0401 	ldrls	r0, [ip], #-1025	; 0x401
    22a0:	00280000 	eoreq	r0, r8, r0
    22a4:	9c010000 	stcls	0, cr0, [r1], {-0}
    22a8:	000000ca 	andeq	r0, r0, sl, asr #1
    22ac:	00943007 	addseq	r3, r4, r7
    22b0:	0000ac00 	andeq	sl, r0, r0, lsl #24
    22b4:	50010800 	andpl	r0, r1, r0, lsl #16
    22b8:	9ec40305 	cdpls	3, 12, cr0, cr4, cr5, {0}
    22bc:	09000000 	stmdbeq	r0, {}	; <UNPREDICTABLE>
    22c0:	00009438 	andeq	r9, r0, r8, lsr r4
    22c4:	000000ea 	andeq	r0, r0, sl, ror #1
    22c8:	000000c0 	andeq	r0, r0, r0, asr #1
    22cc:	02500108 	subseq	r0, r0, #8, 2
    22d0:	0a006408 	beq	1b2f8 <__bss_end__+0x11018>
    22d4:	0000943c 	andeq	r9, r0, ip, lsr r4
    22d8:	000000fb 	strdeq	r0, [r0], -fp
    22dc:	00250b00 	eoreq	r0, r5, r0, lsl #22
    22e0:	00d90000 	sbcseq	r0, r9, r0
    22e4:	790c0000 	stmdbvc	ip, {}	; <UNPREDICTABLE>
    22e8:	00000000 	andeq	r0, r0, r0
    22ec:	0003cb0d 	andeq	ip, r3, sp, lsl #22
    22f0:	e4220200 	strt	r0, [r2], #-512	; 0x200
    22f4:	04000000 	streq	r0, [r0], #-0
    22f8:	0000ca04 	andeq	ip, r0, r4, lsl #20
    22fc:	01ca0e00 	biceq	r0, sl, r0, lsl #28
    2300:	50020000 	andpl	r0, r2, r0
    2304:	000000fb 	strdeq	r0, [r0], -fp
    2308:	00002c0c 	andeq	r2, r0, ip, lsl #24
    230c:	500f0000 	andpl	r0, pc, r0
    2310:	02000004 	andeq	r0, r0, #4
    2314:	00ff0063 	rscseq	r0, pc, r3, rrx
    2318:	00040000 	andeq	r0, r4, r0
    231c:	0000087d 	andeq	r0, r0, sp, ror r8
    2320:	02ba0104 	adcseq	r0, sl, #4, 2
    2324:	75010000 	strvc	r0, [r1, #-0]
    2328:	25000004 	strcs	r0, [r0, #-4]
    232c:	44000003 	strmi	r0, [r0], #-3
    2330:	34000094 	strcc	r0, [r0], #-148	; 0x94
    2334:	05000000 	streq	r0, [r0, #-0]
    2338:	02000009 	andeq	r0, r0, #9
    233c:	6e690504 	cdpvs	5, 6, cr0, cr9, cr4, {0}
    2340:	04030074 	streq	r0, [r3], #-116	; 0x74
    2344:	00003e07 	andeq	r3, r0, r7, lsl #28
    2348:	06010300 	streq	r0, [r1], -r0, lsl #6
    234c:	000001b4 			; <UNDEFINED> instruction: 0x000001b4
    2350:	c0050203 	andgt	r0, r5, r3, lsl #4
    2354:	03000001 	movweq	r0, #1
    2358:	00610504 	rsbeq	r0, r1, r4, lsl #10
    235c:	08030000 	stmdaeq	r3, {}	; <UNPREDICTABLE>
    2360:	00005c05 	andeq	r5, r0, r5, lsl #24
    2364:	08010300 	stmdaeq	r1, {r8, r9}
    2368:	000001b2 			; <UNDEFINED> instruction: 0x000001b2
    236c:	60070203 	andvs	r0, r7, r3, lsl #4
    2370:	03000001 	movweq	r0, #1
    2374:	00390704 	eorseq	r0, r9, r4, lsl #14
    2378:	08030000 	stmdaeq	r3, {}	; <UNPREDICTABLE>
    237c:	00003407 	andeq	r3, r0, r7, lsl #8
    2380:	07040300 	streq	r0, [r4, -r0, lsl #6]
    2384:	00000192 	muleq	r0, r2, r1
    2388:	bb080103 	bllt	20279c <__bss_end__+0x1f84bc>
    238c:	04000001 	streq	r0, [r0], #-1
    2390:	000004ab 	andeq	r0, r0, fp, lsr #9
    2394:	94440d01 	strbls	r0, [r4], #-3329	; 0xd01
    2398:	00340000 	eorseq	r0, r4, r0
    239c:	9c010000 	stcls	0, cr0, [r1], {-0}
    23a0:	000000d8 	ldrdeq	r0, [r0], -r8
    23a4:	00048905 	andeq	r8, r4, r5, lsl #18
    23a8:	250e0100 	strcs	r0, [lr, #-256]	; 0x100
    23ac:	05000000 	streq	r0, [r0, #-0]
    23b0:	00000497 	muleq	r0, r7, r4
    23b4:	00250e01 	eoreq	r0, r5, r1, lsl #28
    23b8:	93060000 	movwls	r0, #24576	; 0x6000
    23bc:	01000000 	mrseq	r0, (UNDEF: 0)
    23c0:	7362070f 	cmnvc	r2, #3932160	; 0x3c0000
    23c4:	11010073 	tstne	r1, r3, ror r0
    23c8:	000000d8 	ldrdeq	r0, [r0], -r8
    23cc:	00001957 	andeq	r1, r0, r7, asr r9
    23d0:	0004a308 	andeq	sl, r4, r8, lsl #6
    23d4:	d8120100 	ldmdale	r2, {r8}
    23d8:	09000000 	stmdbeq	r0, {}	; <UNPREDICTABLE>
    23dc:	0000946c 	andeq	r9, r0, ip, ror #8
    23e0:	000000f4 	strdeq	r0, [r0], -r4
    23e4:	00947009 	addseq	r7, r4, r9
    23e8:	0000fb00 	andeq	pc, r0, r0, lsl #22
    23ec:	040a0000 	streq	r0, [sl], #-0
    23f0:	00000025 	andeq	r0, r0, r5, lsr #32
    23f4:	00048905 	andeq	r8, r4, r5, lsl #18
    23f8:	250e0100 	strcs	r0, [lr, #-256]	; 0x100
    23fc:	05000000 	streq	r0, [r0, #-0]
    2400:	00000497 	muleq	r0, r7, r4
    2404:	00250e01 	eoreq	r0, r5, r1, lsl #28
    2408:	93060000 	movwls	r0, #24576	; 0x6000
    240c:	02000000 	andeq	r0, r0, #0
    2410:	045006d8 	ldrbeq	r0, [r0], #-1752	; 0x6d8
    2414:	63020000 	movwvs	r0, #8192	; 0x2000
    2418:	0001ad00 	andeq	sl, r1, r0, lsl #26
    241c:	11000400 	tstne	r0, r0, lsl #8
    2420:	04000009 	streq	r0, [r0], #-9
    2424:	0002ba01 	andeq	fp, r2, r1, lsl #20
    2428:	04cd0100 	strbeq	r0, [sp], #256	; 0x100
    242c:	03250000 	teqeq	r5, #0
    2430:	06780000 	ldrbteq	r0, [r8], -r0
    2434:	00000000 	andeq	r0, r0, r0
    2438:	09a30000 	stmibeq	r3!, {}	; <UNPREDICTABLE>
    243c:	04020000 	streq	r0, [r2], #-0
    2440:	746e6905 	strbtvc	r6, [lr], #-2309	; 0x905
    2444:	07040300 	streq	r0, [r4, -r0, lsl #6]
    2448:	0000003e 	andeq	r0, r0, lr, lsr r0
    244c:	b4060103 	strlt	r0, [r6], #-259	; 0x103
    2450:	03000001 	movweq	r0, #1
    2454:	01c00502 	biceq	r0, r0, r2, lsl #10
    2458:	04030000 	streq	r0, [r3], #-0
    245c:	00006105 	andeq	r6, r0, r5, lsl #2
    2460:	05080300 	streq	r0, [r8, #-768]	; 0x300
    2464:	0000005c 	andeq	r0, r0, ip, asr r0
    2468:	b2080103 	andlt	r0, r8, #-1073741824	; 0xc0000000
    246c:	03000001 	movweq	r0, #1
    2470:	01600702 	cmneq	r0, r2, lsl #14
    2474:	04030000 	streq	r0, [r3], #-0
    2478:	00003907 	andeq	r3, r0, r7, lsl #18
    247c:	07080300 	streq	r0, [r8, -r0, lsl #6]
    2480:	00000034 	andeq	r0, r0, r4, lsr r0
    2484:	92070403 	andls	r0, r7, #50331648	; 0x3000000
    2488:	03000001 	movweq	r0, #1
    248c:	01bb0801 			; <UNDEFINED> instruction: 0x01bb0801
    2490:	b3040000 	movwlt	r0, #16384	; 0x4000
    2494:	01000004 	tsteq	r0, r4
    2498:	0000250e 	andeq	r2, r0, lr, lsl #10
    249c:	00947800 	addseq	r7, r4, r0, lsl #16
    24a0:	00001800 	andeq	r1, r0, r0, lsl #16
    24a4:	a29c0100 	addsge	r0, ip, #0, 2
    24a8:	05000000 	streq	r0, [r0, #-0]
    24ac:	0000051f 	andeq	r0, r0, pc, lsl r5
    24b0:	002c0f01 	eoreq	r0, ip, r1, lsl #30
    24b4:	19770000 	ldmdbne	r7!, {}^	; <UNPREDICTABLE>
    24b8:	06000000 	streq	r0, [r0], -r0
    24bc:	00000502 	andeq	r0, r0, r2, lsl #10
    24c0:	94901701 	ldrls	r1, [r0], #1793	; 0x701
    24c4:	00140000 	andseq	r0, r4, r0
    24c8:	9c010000 	stcls	0, cr0, [r1], {-0}
    24cc:	000000c7 	andeq	r0, r0, r7, asr #1
    24d0:	00051f05 	andeq	r1, r5, r5, lsl #30
    24d4:	2c180100 	ldfcss	f0, [r8], {-0}
    24d8:	96000000 	strls	r0, [r0], -r0
    24dc:	00000019 	andeq	r0, r0, r9, lsl r0
    24e0:	00045006 	andeq	r5, r4, r6
    24e4:	a41f0100 	ldrge	r0, [pc], #-256	; 24ec <_start-0x5b14>
    24e8:	48000094 	stmdami	r0, {r2, r4, r7}
    24ec:	01000000 	mrseq	r0, (UNDEF: 0)
    24f0:	0001779c 	muleq	r1, ip, r7
    24f4:	05170700 	ldreq	r0, [r7, #-1792]	; 0x700
    24f8:	2a010000 	bcs	42500 <__bss_end__+0x38220>
    24fc:	00000177 	andeq	r0, r0, r7, ror r1
    2500:	2010001c 	andscs	r0, r0, ip, lsl r0
    2504:	0004fa07 	andeq	pc, r4, r7, lsl #20
    2508:	772b0100 	strvc	r0, [fp, -r0, lsl #2]!
    250c:	24000001 	strcs	r0, [r0], #-1
    2510:	07201000 	streq	r1, [r0, -r0]!
    2514:	000004c1 	andeq	r0, r0, r1, asr #9
    2518:	01772c01 	cmneq	r7, r1, lsl #24
    251c:	00000000 	andeq	r0, r0, r0
    2520:	e1085a00 	tst	r8, r0, lsl #20
    2524:	01000004 	tsteq	r0, r4
    2528:	0001772d 	andeq	r7, r1, sp, lsr #14
    252c:	ac092000 	stcge	0, cr2, [r9], {-0}
    2530:	79000094 	stmdbvc	r0, {r2, r4, r7}
    2534:	09000000 	stmdbeq	r0, {}	; <UNPREDICTABLE>
    2538:	000094b8 			; <UNDEFINED> instruction: 0x000094b8
    253c:	000000a2 	andeq	r0, r0, r2, lsr #1
    2540:	0094c00a 	addseq	ip, r4, sl
    2544:	00018d00 	andeq	r8, r1, r0, lsl #26
    2548:	00013a00 	andeq	r3, r1, r0, lsl #20
    254c:	50010b00 	andpl	r0, r1, r0, lsl #22
    2550:	0a004e01 	beq	15d5c <__bss_end__+0xba7c>
    2554:	000094cc 	andeq	r9, r0, ip, asr #9
    2558:	0000019e 	muleq	r0, lr, r1
    255c:	0000015a 	andeq	r0, r0, sl, asr r1
    2560:	0551010b 	ldrbeq	r0, [r1, #-267]	; 0x10b
    2564:	0000010c 	andeq	r0, r0, ip, lsl #2
    2568:	50010b5a 	andpl	r0, r1, sl, asr fp
    256c:	00240c05 	eoreq	r0, r4, r5, lsl #24
    2570:	0c002010 	stceq	0, cr2, [r0], {16}
    2574:	000094d8 	ldrdeq	r9, [r0], -r8
    2578:	0000019e 	muleq	r0, lr, r1
    257c:	0551010b 	ldrbeq	r0, [r1, #-267]	; 0x10b
    2580:	0000200c 	andeq	r2, r0, ip
    2584:	50010b5a 	andpl	r0, r1, sl, asr fp
    2588:	001c0c05 	andseq	r0, ip, r5, lsl #24
    258c:	00002010 	andeq	r2, r0, r0, lsl r0
    2590:	0000250d 	andeq	r2, r0, sp, lsl #10
    2594:	04b60800 	ldrteq	r0, [r6], #2048	; 0x800
    2598:	0d010000 	stceq	0, cr0, [r1, #-0]
    259c:	00000188 	andeq	r0, r0, r8, lsl #3
    25a0:	002c0d10 	eoreq	r0, ip, r0, lsl sp
    25a4:	ca0e0000 	bgt	3825ac <__bss_end__+0x3782cc>
    25a8:	02000001 	andeq	r0, r0, #1
    25ac:	00019e50 	andeq	r9, r1, r0, asr lr
    25b0:	002c0f00 	eoreq	r0, ip, r0, lsl #30
    25b4:	10000000 	andne	r0, r0, r0
    25b8:	00000511 	andeq	r0, r0, r1, lsl r5
    25bc:	2c0f9c02 	stccs	12, cr9, [pc], {2}
    25c0:	0f000000 	svceq	0x00000000
    25c4:	0000002c 	andeq	r0, r0, ip, lsr #32
    25c8:	01d80000 	bicseq	r0, r8, r0
    25cc:	00040000 	andeq	r0, r4, r0
    25d0:	000009ff 	strdeq	r0, [r0], -pc	; <UNPREDICTABLE>
    25d4:	02ba0104 	adcseq	r0, sl, #4, 2
    25d8:	41010000 	mrsmi	r0, (UNDEF: 1)
    25dc:	25000005 	strcs	r0, [r0, #-5]
    25e0:	ec000003 	stc	0, cr0, [r0], {3}
    25e4:	88000094 	stmdahi	r0, {r2, r4, r7}
    25e8:	40000000 	andmi	r0, r0, r0
    25ec:	0200000a 	andeq	r0, r0, #10
    25f0:	6e690504 	cdpvs	5, 6, cr0, cr9, cr4, {0}
    25f4:	04030074 	streq	r0, [r3], #-116	; 0x74
    25f8:	00003e07 	andeq	r3, r0, r7, lsl #28
    25fc:	06010300 	streq	r0, [r1], -r0, lsl #6
    2600:	000001b4 			; <UNDEFINED> instruction: 0x000001b4
    2604:	c0050203 	andgt	r0, r5, r3, lsl #4
    2608:	03000001 	movweq	r0, #1
    260c:	00610504 	rsbeq	r0, r1, r4, lsl #10
    2610:	08030000 	stmdaeq	r3, {}	; <UNPREDICTABLE>
    2614:	00005c05 	andeq	r5, r0, r5, lsl #24
    2618:	08010300 	stmdaeq	r1, {r8, r9}
    261c:	000001b2 			; <UNDEFINED> instruction: 0x000001b2
    2620:	60070203 	andvs	r0, r7, r3, lsl #4
    2624:	03000001 	movweq	r0, #1
    2628:	00390704 	eorseq	r0, r9, r4, lsl #14
    262c:	08030000 	stmdaeq	r3, {}	; <UNPREDICTABLE>
    2630:	00003407 	andeq	r3, r0, r7, lsl #8
    2634:	07040300 	streq	r0, [r4, -r0, lsl #6]
    2638:	00000192 	muleq	r0, r2, r1
    263c:	bb080103 	bllt	202a50 <__bss_end__+0x1f8770>
    2640:	04000001 	streq	r0, [r0], #-1
    2644:	00000560 	andeq	r0, r0, r0, ror #10
    2648:	94ec0501 	strbtls	r0, [ip], #1281	; 0x501
    264c:	001c0000 	andseq	r0, ip, r0
    2650:	9c010000 	stcls	0, cr0, [r1], {-0}
    2654:	0000009e 	muleq	r0, lr, r0
    2658:	00055a05 	andeq	r5, r5, r5, lsl #20
    265c:	2c050100 	stfcss	f0, [r5], {-0}
    2660:	c0000000 	andgt	r0, r0, r0
    2664:	00000019 	andeq	r0, r0, r9, lsl r0
    2668:	00052406 	andeq	r2, r5, r6, lsl #8
    266c:	2c110100 	ldfcss	f0, [r1], {-0}
    2670:	08000000 	stmdaeq	r0, {}	; <UNPREDICTABLE>
    2674:	14000095 	strne	r0, [r0], #-149	; 0x95
    2678:	01000000 	mrseq	r0, (UNDEF: 0)
    267c:	0000cb9c 	muleq	r0, ip, fp
    2680:	95140700 	ldrls	r0, [r4, #-1792]	; 0x700
    2684:	01ca0000 	biceq	r0, sl, r0
    2688:	01080000 	mrseq	r0, (UNDEF: 8)
    268c:	040c0550 	streq	r0, [ip], #-1360	; 0x550
    2690:	00200030 	eoreq	r0, r0, r0, lsr r0
    2694:	05760600 	ldrbeq	r0, [r6, #-1536]!	; 0x600
    2698:	16010000 	strne	r0, [r1], -r0
    269c:	0000002c 	andeq	r0, r0, ip, lsr #32
    26a0:	0000951c 	andeq	r9, r0, ip, lsl r5
    26a4:	0000000c 	andeq	r0, r0, ip
    26a8:	00f99c01 	rscseq	r9, r9, r1, lsl #24
    26ac:	75090000 	strvc	r0, [r9, #-0]
    26b0:	2c1a0100 	ldfcss	f0, [sl], {-0}
    26b4:	01000000 	mrseq	r0, (UNDEF: 0)
    26b8:	95240a50 	strls	r0, [r4, #-2640]!	; 0xa50
    26bc:	009e0000 	addseq	r0, lr, r0
    26c0:	04000000 	streq	r0, [r0], #-0
    26c4:	0000056d 	andeq	r0, r0, sp, ror #10
    26c8:	95281f01 	strls	r1, [r8, #-3841]!	; 0xf01
    26cc:	00240000 	eoreq	r0, r4, r0
    26d0:	9c010000 	stcls	0, cr0, [r1], {-0}
    26d4:	00000157 	andeq	r0, r0, r7, asr r1
    26d8:	0073750b 	rsbseq	r7, r3, fp, lsl #10
    26dc:	002c1f01 	eoreq	r1, ip, r1, lsl #30
    26e0:	19f40000 	ldmibne	r4!, {}^	; <UNPREDICTABLE>
    26e4:	72090000 	andvc	r0, r9, #0
    26e8:	20010062 	andcs	r0, r1, r2, rrx
    26ec:	0000002c 	andeq	r0, r0, ip, lsr #32
    26f0:	380c5401 	stmdacc	ip, {r0, sl, ip, lr}
    26f4:	10000095 	mulne	r0, r5, r0
    26f8:	4d000000 	stcmi	0, cr0, [r0, #-0]
    26fc:	0d000001 	stceq	0, cr0, [r0, #-4]
    2700:	01006172 	tsteq	r0, r2, ror r1
    2704:	00002c22 	andeq	r2, r0, r2, lsr #24
    2708:	001a1200 	andseq	r1, sl, r0, lsl #4
    270c:	953c0a00 	ldrls	r0, [ip, #-2560]!	; 0xa00
    2710:	00cb0000 	sbceq	r0, fp, r0
    2714:	0a000000 	beq	271c <_start-0x58e4>
    2718:	00009534 	andeq	r9, r0, r4, lsr r5
    271c:	000000cb 	andeq	r0, r0, fp, asr #1
    2720:	01ca0400 	biceq	r0, sl, r0, lsl #8
    2724:	28010000 	stmdacs	r1, {}	; <UNPREDICTABLE>
    2728:	0000954c 	andeq	r9, r0, ip, asr #10
    272c:	00000014 	andeq	r0, r0, r4, lsl r0
    2730:	01909c01 	orrseq	r9, r0, r1, lsl #24
    2734:	6d0b0000 	stcvs	0, cr0, [fp, #-0]
    2738:	28010073 	stmdacs	r1, {r0, r1, r4, r5, r6}
    273c:	0000002c 	andeq	r0, r0, ip, lsr #32
    2740:	00001a25 	andeq	r1, r0, r5, lsr #20
    2744:	00955c07 	addseq	r5, r5, r7, lsl #24
    2748:	0000f900 	andeq	pc, r0, r0, lsl #18
    274c:	50010800 	andpl	r0, r1, r0, lsl #16
    2750:	5001f307 	andpl	pc, r1, r7, lsl #6
    2754:	1e03e80a 	cdpne	8, 0, cr14, cr3, cr10, {0}
    2758:	37040000 	strcc	r0, [r4, -r0]
    275c:	01000005 	tsteq	r0, r5
    2760:	0095602b 	addseq	r6, r5, fp, lsr #32
    2764:	00001400 	andeq	r1, r0, r0, lsl #8
    2768:	ca9c0100 	bgt	fe702b70 <__bss_end__+0xfe6f8890>
    276c:	0b000001 	bleq	2778 <_start-0x5888>
    2770:	00636573 	rsbeq	r6, r3, r3, ror r5
    2774:	002c2b01 	eoreq	r2, ip, r1, lsl #22
    2778:	1a460000 	bne	1182780 <__bss_end__+0x11784a0>
    277c:	70070000 	andvc	r0, r7, r0
    2780:	57000095 			; <UNDEFINED> instruction: 0x57000095
    2784:	08000001 	stmdaeq	r0, {r0}
    2788:	f3075001 	vhadd.u8	d5, d7, d1
    278c:	e80a5001 	stmda	sl, {r0, ip, lr}
    2790:	00001e03 	andeq	r1, r0, r3, lsl #28
    2794:	0005540e 	andeq	r5, r5, lr, lsl #8
    2798:	2ca80200 	sfmcs	f0, 4, [r8]
    279c:	0f000000 	svceq	0x00000000
    27a0:	0000002c 	andeq	r0, r0, ip, lsr #32
    27a4:	08820000 	stmeq	r2, {}	; <UNPREDICTABLE>
    27a8:	00040000 	andeq	r0, r4, r0
    27ac:	00000ae2 	andeq	r0, r0, r2, ror #21
    27b0:	02ba0104 	adcseq	r0, sl, #4, 2
    27b4:	c9010000 	stmdbgt	r1, {}	; <UNPREDICTABLE>
    27b8:	25000005 	strcs	r0, [r0, #-5]
    27bc:	74000003 	strvc	r0, [r0], #-3
    27c0:	a0000095 	mulge	r0, r5, r0
    27c4:	e7000005 	str	r0, [r0, -r5]
    27c8:	0200000a 	andeq	r0, r0, #10
    27cc:	00340708 	eorseq	r0, r4, r8, lsl #14
    27d0:	04020000 	streq	r0, [r2], #-0
    27d4:	00003e07 	andeq	r3, r0, r7, lsl #28
    27d8:	06010200 	streq	r0, [r1], -r0, lsl #4
    27dc:	000001b4 			; <UNDEFINED> instruction: 0x000001b4
    27e0:	c0050202 	andgt	r0, r5, r2, lsl #4
    27e4:	02000001 	andeq	r0, r0, #1
    27e8:	00610504 	rsbeq	r0, r1, r4, lsl #10
    27ec:	08020000 	stmdaeq	r2, {}	; <UNPREDICTABLE>
    27f0:	00005c05 	andeq	r5, r0, r5, lsl #24
    27f4:	08010200 	stmdaeq	r1, {r9}
    27f8:	000001b2 			; <UNDEFINED> instruction: 0x000001b2
    27fc:	60070202 	andvs	r0, r7, r2, lsl #4
    2800:	02000001 	andeq	r0, r0, #1
    2804:	00390704 	eorseq	r0, r9, r4, lsl #14
    2808:	04030000 	streq	r0, [r3], #-0
    280c:	746e6905 	strbtvc	r6, [lr], #-2309	; 0x905
    2810:	07040200 	streq	r0, [r4, -r0, lsl #4]
    2814:	00000192 	muleq	r0, r2, r1
    2818:	bb080102 	bllt	202c28 <__bss_end__+0x1f8948>
    281c:	04000001 	streq	r0, [r0], #-1
    2820:	b20c0201 	andlt	r0, ip, #268435456	; 0x10000000
    2824:	05000000 	streq	r0, [r0, #-0]
    2828:	000005b9 			; <UNDEFINED> instruction: 0x000005b9
    282c:	069f0500 	ldreq	r0, [pc], r0, lsl #10
    2830:	05010000 	streq	r0, [r1, #-0]
    2834:	000006d8 	ldrdeq	r0, [r0], -r8
    2838:	06e70504 	strbteq	r0, [r7], r4, lsl #10
    283c:	05050000 	streq	r0, [r5, #-0]
    2840:	000006f6 	strdeq	r0, [r0], -r6
    2844:	07050506 	streq	r0, [r5, -r6, lsl #10]
    2848:	05070000 	streq	r0, [r7, #-0]
    284c:	00000714 	andeq	r0, r0, r4, lsl r7
    2850:	07230503 	streq	r0, [r3, -r3, lsl #10]!
    2854:	00020000 	andeq	r0, r2, r0
    2858:	0006cc06 	andeq	ip, r6, r6, lsl #24
    285c:	79150200 	ldmdbvc	r5, {r9}
    2860:	07000000 	streq	r0, [r0, -r0]
    2864:	0000020b 	andeq	r0, r0, fp, lsl #4
    2868:	95743f01 	ldrbls	r3, [r4, #-3841]!	; 0xf01
    286c:	00d40000 	sbcseq	r0, r4, r0
    2870:	9c010000 	stcls	0, cr0, [r1], {-0}
    2874:	00000133 	andeq	r0, r0, r3, lsr r1
    2878:	6e697008 	cdpvs	0, 6, cr7, cr9, cr8, {0}
    287c:	2c3f0100 	ldfcss	f0, [pc], #-0	; 2884 <_start-0x577c>
    2880:	67000000 	strvs	r0, [r0, -r0]
    2884:	0900001a 	stmdbeq	r0, {r1, r3, r4}
    2888:	000005e9 	andeq	r0, r0, r9, ror #11
    288c:	01334701 	teqeq	r3, r1, lsl #14
    2890:	1a850000 	bne	fe142898 <__bss_end__+0xfe1385b8>
    2894:	32090000 	andcc	r0, r9, #0
    2898:	01000007 	tsteq	r0, r7
    289c:	00002c49 	andeq	r2, r0, r9, asr #24
    28a0:	001ada00 	andseq	sp, sl, r0, lsl #20
    28a4:	066a0900 	strbteq	r0, [sl], -r0, lsl #18
    28a8:	57010000 	strpl	r0, [r1, -r0]
    28ac:	0000002c 	andeq	r0, r0, ip, lsr #32
    28b0:	00001ca6 	andeq	r1, r0, r6, lsr #25
    28b4:	0096080a 	addseq	r0, r6, sl, lsl #16
    28b8:	00084100 	andeq	r4, r8, r0, lsl #2
    28bc:	00012200 	andeq	r2, r1, r0, lsl #4
    28c0:	50010b00 	andpl	r0, r1, r0, lsl #22
    28c4:	00007502 	andeq	r7, r0, r2, lsl #10
    28c8:	00963c0c 	addseq	r3, r6, ip, lsl #24
    28cc:	00086200 	andeq	r6, r8, r0, lsl #4
    28d0:	50010b00 	andpl	r0, r1, r0, lsl #22
    28d4:	00007502 	andeq	r7, r0, r2, lsl #10
    28d8:	39040d00 	stmdbcc	r4, {r8, sl, fp}
    28dc:	0e000001 	cdpeq	0, 0, cr0, cr0, cr1, {0}
    28e0:	0000002c 	andeq	r0, r0, ip, lsr #32
    28e4:	00005007 	andeq	r5, r0, r7
    28e8:	48600100 	stmdami	r0!, {r8}^
    28ec:	38000096 	stmdacc	r0, {r1, r2, r4, r7}
    28f0:	01000000 	mrseq	r0, (UNDEF: 0)
    28f4:	0001969c 	muleq	r1, ip, r6
    28f8:	69700800 	ldmdbvs	r0!, {fp}^
    28fc:	6001006e 	andvs	r0, r1, lr, rrx
    2900:	0000002c 	andeq	r0, r0, ip, lsr #32
    2904:	00001cd6 	ldrdeq	r1, [r0], -r6
    2908:	0005e909 	andeq	lr, r5, r9, lsl #18
    290c:	33670100 	cmncc	r7, #0, 2
    2910:	f7000001 			; <UNDEFINED> instruction: 0xf7000001
    2914:	0900001c 	stmdbeq	r0, {r2, r3, r4}
    2918:	0000066a 	andeq	r0, r0, sl, ror #12
    291c:	002c6801 	eoreq	r6, ip, r1, lsl #16
    2920:	1d2d0000 	stcne	0, cr0, [sp, #-0]
    2924:	780c0000 	stmdavc	ip, {}	; <UNPREDICTABLE>
    2928:	62000096 	andvs	r0, r0, #150	; 0x96
    292c:	0b000008 	bleq	2954 <_start-0x56ac>
    2930:	31075101 	tstcc	r7, r1, lsl #2
    2934:	4f5001f3 	svcmi	0x005001f3
    2938:	0000241a 	andeq	r2, r0, sl, lsl r4
    293c:	0000a007 	andeq	sl, r0, r7
    2940:	807b0100 	rsbshi	r0, fp, r0, lsl #2
    2944:	38000096 	stmdacc	r0, {r1, r2, r4, r7}
    2948:	01000000 	mrseq	r0, (UNDEF: 0)
    294c:	0001ee9c 	muleq	r1, ip, lr
    2950:	69700800 	ldmdbvs	r0!, {fp}^
    2954:	7b01006e 	blvc	42b14 <__bss_end__+0x38834>
    2958:	0000002c 	andeq	r0, r0, ip, lsr #32
    295c:	00001d6d 	andeq	r1, r0, sp, ror #26
    2960:	0005e909 	andeq	lr, r5, r9, lsl #18
    2964:	33810100 	orrcc	r0, r1, #0, 2
    2968:	8e000001 	cdphi	0, 0, cr0, cr0, cr1, {0}
    296c:	0900001d 	stmdbeq	r0, {r0, r2, r3, r4}
    2970:	0000066a 	andeq	r0, r0, sl, ror #12
    2974:	002c8201 	eoreq	r8, ip, r1, lsl #4
    2978:	1dc40000 	stclne	0, cr0, [r4]
    297c:	b00c0000 	andlt	r0, ip, r0
    2980:	62000096 	andvs	r0, r0, #150	; 0x96
    2984:	0b000008 	bleq	29ac <_start-0x5654>
    2988:	31075101 	tstcc	r7, r1, lsl #2
    298c:	4f5001f3 	svcmi	0x005001f3
    2990:	0000241a 	andeq	r2, r0, sl, lsl r4
    2994:	0001f707 	andeq	pc, r1, r7, lsl #14
    2998:	b8950100 	ldmlt	r5, {r8}
    299c:	cc000096 	stcgt	0, cr0, [r0], {150}	; 0x96
    29a0:	01000000 	mrseq	r0, (UNDEF: 0)
    29a4:	0002649c 	muleq	r2, ip, r4
    29a8:	69700800 	ldmdbvs	r0!, {fp}^
    29ac:	9501006e 	strls	r0, [r1, #-110]	; 0x6e
    29b0:	0000002c 	andeq	r0, r0, ip, lsr #32
    29b4:	00001e04 	andeq	r1, r0, r4, lsl #28
    29b8:	0005e909 	andeq	lr, r5, r9, lsl #18
    29bc:	339b0100 	orrscc	r0, fp, #0, 2
    29c0:	22000001 	andcs	r0, r0, #1
    29c4:	0900001e 	stmdbeq	r0, {r1, r2, r3, r4}
    29c8:	00000732 	andeq	r0, r0, r2, lsr r7
    29cc:	002c9d01 	eoreq	r9, ip, r1, lsl #26
    29d0:	1e770000 	cdpne	0, 7, cr0, cr7, cr0, {0}
    29d4:	6a090000 	bvs	2429dc <__bss_end__+0x2386fc>
    29d8:	01000006 	tsteq	r0, r6
    29dc:	00002cab 	andeq	r2, r0, fp, lsr #25
    29e0:	00204300 	eoreq	r4, r0, r0, lsl #6
    29e4:	974c0a00 	strbls	r0, [ip, -r0, lsl #20]
    29e8:	08410000 	stmdaeq	r1, {}^	; <UNPREDICTABLE>
    29ec:	02530000 	subseq	r0, r3, #0
    29f0:	010b0000 	mrseq	r0, (UNDEF: 11)
    29f4:	00750250 	rsbseq	r0, r5, r0, asr r2
    29f8:	97780c00 	ldrbls	r0, [r8, -r0, lsl #24]!
    29fc:	08620000 	stmdaeq	r2!, {}^	; <UNPREDICTABLE>
    2a00:	010b0000 	mrseq	r0, (UNDEF: 11)
    2a04:	00750250 	rsbseq	r0, r5, r0, asr r2
    2a08:	fe0f0000 	cdp2	0, 0, cr0, cr15, cr0, {0}
    2a0c:	01000005 	tsteq	r0, r5
    2a10:	000064b2 			; <UNDEFINED> instruction: 0x000064b2
    2a14:	00978400 	addseq	r8, r7, r0, lsl #8
    2a18:	00004c00 	andeq	r4, r0, r0, lsl #24
    2a1c:	ac9c0100 	ldfges	f0, [ip], {0}
    2a20:	08000002 	stmdaeq	r0, {r1}
    2a24:	006e6970 	rsbeq	r6, lr, r0, ror r9
    2a28:	002cb201 	eoreq	fp, ip, r1, lsl #4
    2a2c:	20610000 	rsbcs	r0, r1, r0
    2a30:	76100000 	ldrvc	r0, [r0], -r0
    2a34:	2cb80100 	ldfcss	f0, [r8]
    2a38:	b9000000 	stmdblt	r0, {}	; <UNPREDICTABLE>
    2a3c:	11000020 	tstne	r0, r0, lsr #32
    2a40:	000097a4 	andeq	r9, r0, r4, lsr #15
    2a44:	00000841 	andeq	r0, r0, r1, asr #16
    2a48:	0097b411 	addseq	fp, r7, r1, lsl r4
    2a4c:	00084100 	andeq	r4, r8, r0, lsl #2
    2a50:	1e070000 	cdpne	0, 0, cr0, cr7, cr0, {0}
    2a54:	01000000 	mrseq	r0, (UNDEF: 0)
    2a58:	0097d0c4 	addseq	sp, r7, r4, asr #1
    2a5c:	00002400 	andeq	r2, r0, r0, lsl #8
    2a60:	fc9c0100 	ldc2	1, cr0, [ip], {0}
    2a64:	08000002 	stmdaeq	r0, {r1}
    2a68:	006e6970 	rsbeq	r6, lr, r0, ror r9
    2a6c:	002cc401 	eoreq	ip, ip, r1, lsl #8
    2a70:	20ef0000 	rsccs	r0, pc, r0
    2a74:	76080000 	strvc	r0, [r8], -r0
    2a78:	2cc40100 	stfcse	f0, [r4], {0}
    2a7c:	29000000 	stmdbcs	r0, {}	; <UNPREDICTABLE>
    2a80:	0a000021 	beq	2b0c <_start-0x54f4>
    2a84:	000097e8 	andeq	r9, r0, r8, ror #15
    2a88:	0000013e 	andeq	r0, r0, lr, lsr r1
    2a8c:	000002f2 	strdeq	r0, [r0], -r2
    2a90:	0350010b 	cmpeq	r0, #-1073741822	; 0xc0000002
    2a94:	005001f3 	ldrsheq	r0, [r0], #-19	; 0xffffffed
    2a98:	0097f011 	addseq	pc, r7, r1, lsl r0	; <UNPREDICTABLE>
    2a9c:	00019600 	andeq	r9, r1, r0, lsl #12
    2aa0:	1d070000 	stcne	0, cr0, [r7, #-0]
    2aa4:	01000006 	tsteq	r0, r6
    2aa8:	0097f4d0 			; <UNDEFINED> instruction: 0x0097f4d0
    2aac:	0000d800 	andeq	sp, r0, r0, lsl #16
    2ab0:	819c0100 	orrshi	r0, ip, r0, lsl #2
    2ab4:	08000003 	stmdaeq	r0, {r0, r1}
    2ab8:	006e6970 	rsbeq	r6, lr, r0, ror r9
    2abc:	002cd001 	eoreq	sp, ip, r1
    2ac0:	21630000 	cmncs	r3, r0
    2ac4:	72120000 	andsvc	r0, r2, #0
    2ac8:	01000006 	tsteq	r0, r6
    2acc:	0000b2d0 	ldrdeq	fp, [r0], -r0
    2ad0:	00218100 	eoreq	r8, r1, r0, lsl #2
    2ad4:	05e90900 	strbeq	r0, [r9, #2304]!	; 0x900
    2ad8:	d8010000 	stmdale	r1, {}	; <UNPREDICTABLE>
    2adc:	00000133 	andeq	r0, r0, r3, lsr r1
    2ae0:	000021a2 	andeq	r2, r0, r2, lsr #3
    2ae4:	00073209 	andeq	r3, r7, r9, lsl #4
    2ae8:	2cd90100 	ldfcse	f0, [r9], {0}
    2aec:	f7000000 			; <UNDEFINED> instruction: 0xf7000000
    2af0:	09000021 	stmdbeq	r0, {r0, r5}
    2af4:	0000066a 	andeq	r0, r0, sl, ror #12
    2af8:	002ce701 	eoreq	lr, ip, r1, lsl #14
    2afc:	23c30000 	biccs	r0, r3, #0
    2b00:	900a0000 	andls	r0, sl, r0
    2b04:	41000098 	swpmi	r0, r8, [r0]	; <UNPREDICTABLE>
    2b08:	70000008 	andvc	r0, r0, r8
    2b0c:	0b000003 	bleq	2b20 <_start-0x54e0>
    2b10:	76025001 	strvc	r5, [r2], -r1
    2b14:	c00c0000 	andgt	r0, ip, r0
    2b18:	62000098 	andvs	r0, r0, #152	; 0x98
    2b1c:	0b000008 	bleq	2b44 <_start-0x54bc>
    2b20:	76025001 	strvc	r5, [r2], -r1
    2b24:	07000000 	streq	r0, [r0, -r0]
    2b28:	00000677 	andeq	r0, r0, r7, ror r6
    2b2c:	98ccf001 	stmials	ip, {r0, ip, sp, lr, pc}^
    2b30:	00380000 	eorseq	r0, r8, r0
    2b34:	9c010000 	stcls	0, cr0, [r1], {-0}
    2b38:	000003d9 	ldrdeq	r0, [r0], -r9
    2b3c:	6e697008 	cdpvs	0, 6, cr7, cr9, cr8, {0}
    2b40:	2cf00100 	ldfcse	f0, [r0]
    2b44:	f4000000 	vst4.8	{d0-d3}, [r0], r0
    2b48:	09000023 	stmdbeq	r0, {r0, r1, r5}
    2b4c:	000005e9 	andeq	r0, r0, r9, ror #11
    2b50:	0133f601 	teqeq	r3, r1, lsl #12
    2b54:	24150000 	ldrcs	r0, [r5], #-0
    2b58:	6a090000 	bvs	242b60 <__bss_end__+0x238880>
    2b5c:	01000006 	tsteq	r0, r6
    2b60:	00002cf7 	strdeq	r2, [r0], -r7
    2b64:	00244b00 	eoreq	r4, r4, r0, lsl #22
    2b68:	98fc0c00 	ldmls	ip!, {sl, fp}^
    2b6c:	08620000 	stmdaeq	r2!, {}^	; <UNPREDICTABLE>
    2b70:	010b0000 	mrseq	r0, (UNDEF: 11)
    2b74:	f3310751 	vaba.u<illegal width 64>	q0, <illegal reg q0.5>, <illegal reg q0.5>
    2b78:	1a4f5001 	bne	13d6b84 <__bss_end__+0x13cc8a4>
    2b7c:	13000024 	movwne	r0, #36	; 0x24
    2b80:	000005ad 	andeq	r0, r0, sp, lsr #11
    2b84:	64011e01 	strvs	r1, [r1], #-3585	; 0xe01
    2b88:	04000000 	streq	r0, [r0], #-0
    2b8c:	2c000099 	stccs	0, cr0, [r0], {153}	; 0x99
    2b90:	01000000 	mrseq	r0, (UNDEF: 0)
    2b94:	00040d9c 	muleq	r4, ip, sp
    2b98:	05b01400 	ldreq	r1, [r0, #1024]!	; 0x400
    2b9c:	1e010000 	cdpne	0, 0, cr0, cr1, cr0, {0}
    2ba0:	00002c01 	andeq	r2, r0, r1, lsl #24
    2ba4:	00248b00 	eoreq	r8, r4, r0, lsl #22
    2ba8:	99141100 	ldmdbls	r4, {r8, ip}
    2bac:	08410000 	stmdaeq	r1, {}^	; <UNPREDICTABLE>
    2bb0:	15000000 	strne	r0, [r0, #-0]
    2bb4:	00000608 	andeq	r0, r0, r8, lsl #12
    2bb8:	30012d01 	andcc	r2, r1, r1, lsl #26
    2bbc:	84000099 	strhi	r0, [r0], #-153	; 0x99
    2bc0:	01000000 	mrseq	r0, (UNDEF: 0)
    2bc4:	0004d19c 	muleq	r4, ip, r1
    2bc8:	69701600 	ldmdbvs	r0!, {r9, sl, ip}^
    2bcc:	2d01006e 	stccs	0, cr0, [r1, #-440]	; 0xfffffe48
    2bd0:	00002c01 	andeq	r2, r0, r1, lsl #24
    2bd4:	0024ac00 	eoreq	sl, r4, r0, lsl #24
    2bd8:	05d71700 	ldrbeq	r1, [r7, #1792]	; 0x700
    2bdc:	3f010000 	svccc	0x00010000
    2be0:	00002c01 	andeq	r2, r0, r1, lsl #24
    2be4:	0024d800 	eoreq	sp, r4, r0, lsl #16
    2be8:	994c1800 	stmdbls	ip, {fp, ip}^
    2bec:	001c0000 	andseq	r0, ip, r0
    2bf0:	04730000 	ldrbteq	r0, [r3], #-0
    2bf4:	6a170000 	bvs	5c2bfc <__bss_end__+0x5b891c>
    2bf8:	01000006 	tsteq	r0, r6
    2bfc:	002c0136 	eoreq	r0, ip, r6, lsr r1
    2c00:	24f60000 	ldrbtcs	r0, [r6], #0
    2c04:	58110000 	ldmdapl	r1, {}	; <UNPREDICTABLE>
    2c08:	41000099 	swpmi	r0, r9, [r0]	; <UNPREDICTABLE>
    2c0c:	11000008 	tstne	r0, r8
    2c10:	00009968 	andeq	r9, r0, r8, ror #18
    2c14:	00000862 	andeq	r0, r0, r2, ror #16
    2c18:	996c1800 	stmdbls	ip!, {fp, ip}^
    2c1c:	00200000 	eoreq	r0, r0, r0
    2c20:	04a30000 	strteq	r0, [r3], #0
    2c24:	6a170000 	bvs	5c2c2c <__bss_end__+0x5b894c>
    2c28:	01000006 	tsteq	r0, r6
    2c2c:	002c013a 	eoreq	r0, ip, sl, lsr r1
    2c30:	25140000 	ldrcs	r0, [r4, #-0]
    2c34:	78110000 	ldmdavc	r1, {}	; <UNPREDICTABLE>
    2c38:	41000099 	swpmi	r0, r9, [r0]	; <UNPREDICTABLE>
    2c3c:	11000008 	tstne	r0, r8
    2c40:	0000998c 	andeq	r9, r0, ip, lsl #19
    2c44:	00000862 	andeq	r0, r0, r2, ror #16
    2c48:	99441100 	stmdbls	r4, {r8, ip}^
    2c4c:	087e0000 	ldmdaeq	lr!, {}^	; <UNPREDICTABLE>
    2c50:	90110000 	andsls	r0, r1, r0
    2c54:	7e000099 	mcrvc	0, 0, r0, cr0, cr9, {4}
    2c58:	11000008 	tstne	r0, r8
    2c5c:	0000999c 	muleq	r0, ip, r9
    2c60:	00000841 	andeq	r0, r0, r1, asr #16
    2c64:	0099a811 	addseq	sl, r9, r1, lsl r8
    2c68:	00086200 	andeq	r6, r8, r0, lsl #4
    2c6c:	99ac1100 	stmibls	ip!, {r8, ip}
    2c70:	087e0000 	ldmdaeq	lr!, {}^	; <UNPREDICTABLE>
    2c74:	15000000 	strne	r0, [r0, #-0]
    2c78:	000006b6 			; <UNDEFINED> instruction: 0x000006b6
    2c7c:	b4014a01 	strlt	r4, [r1], #-2561	; 0xa01
    2c80:	84000099 	strhi	r0, [r0], #-153	; 0x99
    2c84:	01000000 	mrseq	r0, (UNDEF: 0)
    2c88:	0005959c 	muleq	r5, ip, r5
    2c8c:	69701600 	ldmdbvs	r0!, {r9, sl, ip}^
    2c90:	4a01006e 	bmi	42e50 <__bss_end__+0x38b70>
    2c94:	00002c01 	andeq	r2, r0, r1, lsl #24
    2c98:	00253200 	eoreq	r3, r5, r0, lsl #4
    2c9c:	05d71700 	ldrbeq	r1, [r7, #1792]	; 0x700
    2ca0:	5b010000 	blpl	42ca8 <__bss_end__+0x389c8>
    2ca4:	00002c01 	andeq	r2, r0, r1, lsl #24
    2ca8:	00255e00 	eoreq	r5, r5, r0, lsl #28
    2cac:	99d01800 	ldmibls	r0, {fp, ip}^
    2cb0:	001c0000 	andseq	r0, ip, r0
    2cb4:	05370000 	ldreq	r0, [r7, #-0]!
    2cb8:	6a170000 	bvs	5c2cc0 <__bss_end__+0x5b89e0>
    2cbc:	01000006 	tsteq	r0, r6
    2cc0:	002c0152 	eoreq	r0, ip, r2, asr r1
    2cc4:	257c0000 	ldrbcs	r0, [ip, #-0]!
    2cc8:	dc110000 	ldcle	0, cr0, [r1], {-0}
    2ccc:	41000099 	swpmi	r0, r9, [r0]	; <UNPREDICTABLE>
    2cd0:	11000008 	tstne	r0, r8
    2cd4:	000099ec 	andeq	r9, r0, ip, ror #19
    2cd8:	00000862 	andeq	r0, r0, r2, ror #16
    2cdc:	99f01800 	ldmibls	r0!, {fp, ip}^
    2ce0:	00200000 	eoreq	r0, r0, r0
    2ce4:	05670000 	strbeq	r0, [r7, #-0]!
    2ce8:	6a170000 	bvs	5c2cf0 <__bss_end__+0x5b8a10>
    2cec:	01000006 	tsteq	r0, r6
    2cf0:	002c0156 	eoreq	r0, ip, r6, asr r1
    2cf4:	259a0000 	ldrcs	r0, [sl]
    2cf8:	fc110000 	ldc2	0, cr0, [r1], {-0}
    2cfc:	41000099 	swpmi	r0, r9, [r0]	; <UNPREDICTABLE>
    2d00:	11000008 	tstne	r0, r8
    2d04:	00009a10 	andeq	r9, r0, r0, lsl sl
    2d08:	00000862 	andeq	r0, r0, r2, ror #16
    2d0c:	99c81100 	stmibls	r8, {r8, ip}^
    2d10:	087e0000 	ldmdaeq	lr!, {}^	; <UNPREDICTABLE>
    2d14:	14110000 	ldrne	r0, [r1], #-0
    2d18:	7e00009a 	mcrvc	0, 0, r0, cr0, cr10, {4}
    2d1c:	11000008 	tstne	r0, r8
    2d20:	00009a20 	andeq	r9, r0, r0, lsr #20
    2d24:	00000841 	andeq	r0, r0, r1, asr #16
    2d28:	009a2c11 	addseq	r2, sl, r1, lsl ip
    2d2c:	00086200 	andeq	r6, r8, r0, lsl #4
    2d30:	9a301100 	bls	c07138 <__bss_end__+0xbfce58>
    2d34:	087e0000 	ldmdaeq	lr!, {}^	; <UNPREDICTABLE>
    2d38:	13000000 	movwne	r0, #0
    2d3c:	00000585 	andeq	r0, r0, r5, lsl #11
    2d40:	64016501 	strvs	r6, [r1], #-1281	; 0x501
    2d44:	38000000 	stmdacc	r0, {}	; <UNPREDICTABLE>
    2d48:	8400009a 	strhi	r0, [r0], #-154	; 0x9a
    2d4c:	01000000 	mrseq	r0, (UNDEF: 0)
    2d50:	00063b9c 	muleq	r6, ip, fp
    2d54:	69701600 	ldmdbvs	r0!, {r9, sl, ip}^
    2d58:	6501006e 	strvs	r0, [r1, #-110]	; 0x6e
    2d5c:	00002c01 	andeq	r2, r0, r1, lsl #24
    2d60:	0025b800 	eoreq	fp, r5, r0, lsl #16
    2d64:	9a541800 	bls	1508d6c <__bss_end__+0x14fea8c>
    2d68:	00240000 	eoreq	r0, r4, r0
    2d6c:	05ef0000 	strbeq	r0, [pc, #0]!	; 2d74 <_start-0x528c>
    2d70:	e0170000 	ands	r0, r7, r0
    2d74:	01000005 	tsteq	r0, r5
    2d78:	002c016c 	eoreq	r0, ip, ip, ror #2
    2d7c:	25fa0000 	ldrbcs	r0, [sl, #0]!
    2d80:	60110000 	andsvs	r0, r1, r0
    2d84:	4100009a 	swpmi	r0, sl, [r0]	; <UNPREDICTABLE>
    2d88:	11000008 	tstne	r0, r8
    2d8c:	00009a70 	andeq	r9, r0, r0, ror sl
    2d90:	0000087e 	andeq	r0, r0, lr, ror r8
    2d94:	9a781800 	bls	1e08d9c <__bss_end__+0x1dfeabc>
    2d98:	002c0000 	eoreq	r0, ip, r0
    2d9c:	06280000 	strteq	r0, [r8], -r0
    2da0:	e0170000 	ands	r0, r7, r0
    2da4:	01000005 	tsteq	r0, r5
    2da8:	002c016f 	eoreq	r0, ip, pc, ror #2
    2dac:	26140000 	ldrcs	r0, [r4], -r0
    2db0:	84110000 	ldrhi	r0, [r1], #-0
    2db4:	4100009a 	swpmi	r0, sl, [r0]	; <UNPREDICTABLE>
    2db8:	11000008 	tstne	r0, r8
    2dbc:	00009a90 	muleq	r0, r0, sl
    2dc0:	0000087e 	andeq	r0, r0, lr, ror r8
    2dc4:	009a9c11 	addseq	r9, sl, r1, lsl ip
    2dc8:	00087e00 	andeq	r7, r8, r0, lsl #28
    2dcc:	4c110000 	ldcmi	0, cr0, [r1], {-0}
    2dd0:	7e00009a 	mcrvc	0, 0, r0, cr0, cr10, {4}
    2dd4:	11000008 	tstne	r0, r8
    2dd8:	00009aa8 	andeq	r9, r0, r8, lsr #21
    2ddc:	0000087e 	andeq	r0, r0, lr, ror r8
    2de0:	063d1500 	ldrteq	r1, [sp], -r0, lsl #10
    2de4:	78010000 	stmdavc	r1, {}	; <UNPREDICTABLE>
    2de8:	009abc01 	addseq	fp, sl, r1, lsl #24
    2dec:	00005800 	andeq	r5, r0, r0, lsl #16
    2df0:	a09c0100 	addsge	r0, ip, r0, lsl #2
    2df4:	16000006 	strne	r0, [r0], -r6
    2df8:	006e6970 	rsbeq	r6, lr, r0, ror r9
    2dfc:	2c017801 	stccs	8, cr7, [r1], {1}
    2e00:	27000000 	strcs	r0, [r0, -r0]
    2e04:	11000026 	tstne	r0, r6, lsr #32
    2e08:	00009ad0 	ldrdeq	r9, [r0], -r0
    2e0c:	0000087e 	andeq	r0, r0, lr, ror r8
    2e10:	009aec0a 	addseq	lr, sl, sl, lsl #24
    2e14:	00086200 	andeq	r6, r8, r0, lsl #4
    2e18:	00068000 	andeq	r8, r6, r0
    2e1c:	51010b00 	tstpl	r1, r0, lsl #22
    2e20:	00743104 	rsbseq	r3, r4, r4, lsl #2
    2e24:	080a0024 	stmdaeq	sl, {r2, r5}
    2e28:	6200009b 	andvs	r0, r0, #155	; 0x9b
    2e2c:	96000008 	strls	r0, [r0], -r8
    2e30:	0b000006 	bleq	2e50 <_start-0x51b0>
    2e34:	31045101 	tstcc	r4, r1, lsl #2
    2e38:	00240074 	eoreq	r0, r4, r4, ror r0
    2e3c:	009b0c11 	addseq	r0, fp, r1, lsl ip
    2e40:	00087e00 	andeq	r7, r8, r0, lsl #28
    2e44:	73190000 	tstvc	r9, #0
    2e48:	01000001 	tsteq	r0, r1
    2e4c:	00013328 	andeq	r3, r1, r8, lsr #6
    2e50:	30030500 	andcc	r0, r3, r0, lsl #10
    2e54:	1900009d 	stmdbne	r0, {r0, r2, r3, r4, r7}
    2e58:	000001e7 	andeq	r0, r0, r7, ror #3
    2e5c:	01332901 	teqeq	r3, r1, lsl #18
    2e60:	03050000 	movweq	r0, #20480	; 0x5000
    2e64:	00009d2c 	andeq	r9, r0, ip, lsr #26
    2e68:	00000819 	andeq	r0, r0, r9, lsl r8
    2e6c:	332a0100 	teqcc	sl, #0, 2
    2e70:	05000001 	streq	r0, [r0, #-1]
    2e74:	009d2803 	addseq	r2, sp, r3, lsl #16
    2e78:	01201900 	teqeq	r0, r0, lsl #18
    2e7c:	2c010000 	stccs	0, cr0, [r1], {-0}
    2e80:	00000133 	andeq	r0, r0, r3, lsr r1
    2e84:	9cd40305 	ldclls	3, cr0, [r4], {5}
    2e88:	28190000 	ldmdacs	r9, {}	; <UNPREDICTABLE>
    2e8c:	01000001 	tsteq	r0, r1
    2e90:	0001332d 	andeq	r3, r1, sp, lsr #6
    2e94:	d8030500 	stmdale	r3, {r8, sl}
    2e98:	1900009c 	stmdbne	r0, {r2, r3, r4, r7}
    2e9c:	00000000 	andeq	r0, r0, r0
    2ea0:	01332e01 	teqeq	r3, r1, lsl #28
    2ea4:	03050000 	movweq	r0, #20480	; 0x5000
    2ea8:	00009cdc 	ldrdeq	r9, [r0], -ip
    2eac:	00013019 	andeq	r3, r1, r9, lsl r0
    2eb0:	332f0100 	teqcc	pc, #0, 2
    2eb4:	05000001 	streq	r0, [r0, #-1]
    2eb8:	009ce003 	addseq	lr, ip, r3
    2ebc:	01381900 	teqeq	r8, r0, lsl #18
    2ec0:	30010000 	andcc	r0, r1, r0
    2ec4:	00000133 	andeq	r0, r0, r3, lsr r1
    2ec8:	9ce40305 	stclls	3, cr0, [r4], #20
    2ecc:	40190000 	andsmi	r0, r9, r0
    2ed0:	01000001 	tsteq	r0, r1
    2ed4:	00013331 	andeq	r3, r1, r1, lsr r3
    2ed8:	e8030500 	stmda	r3, {r8, sl}
    2edc:	1900009c 	stmdbne	r0, {r2, r3, r4, r7}
    2ee0:	00000077 	andeq	r0, r0, r7, ror r0
    2ee4:	01333301 	teqeq	r3, r1, lsl #6
    2ee8:	03050000 	movweq	r0, #20480	; 0x5000
    2eec:	00009cec 	andeq	r9, r0, ip, ror #25
    2ef0:	00007e19 	andeq	r7, r0, r9, lsl lr
    2ef4:	33340100 	teqcc	r4, #0, 2
    2ef8:	05000001 	streq	r0, [r0, #-1]
    2efc:	009cf003 	addseq	pc, ip, r3
    2f00:	00121900 	andseq	r1, r2, r0, lsl #18
    2f04:	36010000 	strcc	r0, [r1], -r0
    2f08:	00000133 	andeq	r0, r0, r3, lsr r1
    2f0c:	9cf40305 	ldclls	3, cr0, [r4], #20
    2f10:	7e190000 	cdpvc	0, 1, cr0, cr9, cr0, {0}
    2f14:	01000001 	tsteq	r0, r1
    2f18:	00013337 	andeq	r3, r1, r7, lsr r3
    2f1c:	f8030500 			; <UNDEFINED> instruction: 0xf8030500
    2f20:	1900009c 	stmdbne	r0, {r2, r3, r4, r7}
    2f24:	00000085 	andeq	r0, r0, r5, lsl #1
    2f28:	01333901 	teqeq	r3, r1, lsl #18
    2f2c:	03050000 	movweq	r0, #20480	; 0x5000
    2f30:	00009cfc 	strdeq	r9, [r0], -ip
    2f34:	00008c19 	andeq	r8, r0, r9, lsl ip
    2f38:	333a0100 	teqcc	sl, #0, 2
    2f3c:	05000001 	streq	r0, [r0, #-1]
    2f40:	009d0003 	addseq	r0, sp, r3
    2f44:	064e1a00 	strbeq	r1, [lr], -r0, lsl #20
    2f48:	09010000 	stmdbeq	r1, {}	; <UNPREDICTABLE>
    2f4c:	00013301 	andeq	r3, r1, r1, lsl #6
    2f50:	24030500 	strcs	r0, [r3], #-1280	; 0x500
    2f54:	1a00009d 	bne	31d0 <_start-0x4e30>
    2f58:	0000065c 	andeq	r0, r0, ip, asr r6
    2f5c:	33010a01 	movwcc	r0, #6657	; 0x1a01
    2f60:	05000001 	streq	r0, [r0, #-1]
    2f64:	009d0403 	addseq	r0, sp, r3, lsl #8
    2f68:	06831a00 	streq	r1, [r3], r0, lsl #20
    2f6c:	0c010000 	stceq	0, cr0, [r1], {-0}
    2f70:	00013301 	andeq	r3, r1, r1, lsl #6
    2f74:	1c030500 	cfstr32ne	mvfx0, [r3], {-0}
    2f78:	1a00009d 	bne	31f4 <_start-0x4e0c>
    2f7c:	0000068a 	andeq	r0, r0, sl, lsl #13
    2f80:	33010d01 	movwcc	r0, #7425	; 0x1d01
    2f84:	05000001 	streq	r0, [r0, #-1]
    2f88:	009d2003 	addseq	r2, sp, r3
    2f8c:	062f1a00 	strteq	r1, [pc], -r0, lsl #20
    2f90:	0f010000 	svceq	0x00010000
    2f94:	00013301 	andeq	r3, r1, r1, lsl #6
    2f98:	08030500 	stmdaeq	r3, {r8, sl}
    2f9c:	1a00009d 	bne	3218 <_start-0x4de8>
    2fa0:	00000636 	andeq	r0, r0, r6, lsr r6
    2fa4:	33011001 	movwcc	r1, #4097	; 0x1001
    2fa8:	05000001 	streq	r0, [r0, #-1]
    2fac:	009d0c03 	addseq	r0, sp, r3, lsl #24
    2fb0:	06911a00 	ldreq	r1, [r1], r0, lsl #20
    2fb4:	12010000 	andne	r0, r1, #0
    2fb8:	00013301 	andeq	r3, r1, r1, lsl #6
    2fbc:	14030500 	strne	r0, [r3], #-1280	; 0x500
    2fc0:	1a00009d 	bne	323c <_start-0x4dc4>
    2fc4:	00000698 	muleq	r0, r8, r6
    2fc8:	33011301 	movwcc	r1, #4865	; 0x1301
    2fcc:	05000001 	streq	r0, [r0, #-1]
    2fd0:	009d1803 	addseq	r1, sp, r3, lsl #16
    2fd4:	059f1a00 	ldreq	r1, [pc, #2560]	; 39dc <_start-0x4624>
    2fd8:	15010000 	strne	r0, [r1, #-0]
    2fdc:	00013301 	andeq	r3, r1, r1, lsl #6
    2fe0:	10030500 	andne	r0, r3, r0, lsl #10
    2fe4:	1b00009d 	blne	3260 <_start-0x4da0>
    2fe8:	000006b0 			; <UNDEFINED> instruction: 0x000006b0
    2fec:	002c2001 	eoreq	r2, ip, r1
    2ff0:	08560000 	ldmdaeq	r6, {}^	; <UNPREDICTABLE>
    2ff4:	561c0000 	ldrpl	r0, [ip], -r0
    2ff8:	00000008 	andeq	r0, r0, r8
    2ffc:	085c040d 	ldmdaeq	ip, {r0, r2, r3, sl}^
    3000:	611d0000 	tstvs	sp, r0
    3004:	1e000008 	cdpne	0, 0, cr0, cr0, cr8, {0}
    3008:	0005991f 	andeq	r9, r5, pc, lsl r9
    300c:	781e0100 	ldmdavc	lr, {r8}
    3010:	1c000008 	stcne	0, cr0, [r0], {8}
    3014:	00000878 	andeq	r0, r0, r8, ror r8
    3018:	00002c1c 	andeq	r2, r0, ip, lsl ip
    301c:	040d0000 	streq	r0, [sp], #-0
    3020:	00000861 	andeq	r0, r0, r1, ror #16
    3024:	0005f220 	andeq	pc, r5, r0, lsr #4
    3028:	008a0300 	addeq	r0, sl, r0, lsl #6
    302c:	000003ff 	strdeq	r0, [r0], -pc	; <UNPREDICTABLE>
    3030:	0cbc0004 	ldceq	0, cr0, [ip], #16
    3034:	01040000 	mrseq	r0, (UNDEF: 4)
    3038:	000002ba 			; <UNDEFINED> instruction: 0x000002ba
    303c:	00081801 	andeq	r1, r8, r1, lsl #16
    3040:	00032500 	andeq	r2, r3, r0, lsl #10
    3044:	009b1400 	addseq	r1, fp, r0, lsl #8
    3048:	00015400 	andeq	r5, r1, r0, lsl #8
    304c:	000c6a00 	andeq	r6, ip, r0, lsl #20
    3050:	05040200 	streq	r0, [r4, #-512]	; 0x200
    3054:	00746e69 	rsbseq	r6, r4, r9, ror #28
    3058:	3e070403 	cdpcc	4, 0, cr0, cr7, cr3, {0}
    305c:	03000000 	movweq	r0, #0
    3060:	01b40601 			; <UNDEFINED> instruction: 0x01b40601
    3064:	02030000 	andeq	r0, r3, #0
    3068:	0001c005 	andeq	ip, r1, r5
    306c:	05040300 	streq	r0, [r4, #-768]	; 0x300
    3070:	00000061 	andeq	r0, r0, r1, rrx
    3074:	5c050803 	stcpl	8, cr0, [r5], {3}
    3078:	03000000 	movweq	r0, #0
    307c:	01b20801 			; <UNDEFINED> instruction: 0x01b20801
    3080:	02030000 	andeq	r0, r3, #0
    3084:	00016007 	andeq	r6, r1, r7
    3088:	07040300 	streq	r0, [r4, -r0, lsl #6]
    308c:	00000039 	andeq	r0, r0, r9, lsr r0
    3090:	34070803 	strcc	r0, [r7], #-2051	; 0x803
    3094:	03000000 	movweq	r0, #0
    3098:	01920704 	orrseq	r0, r2, r4, lsl #14
    309c:	01030000 	mrseq	r0, (UNDEF: 3)
    30a0:	0001bb08 	andeq	fp, r1, r8, lsl #22
    30a4:	02010400 	andeq	r0, r1, #0, 8
    30a8:	0000b20c 	andeq	fp, r0, ip, lsl #4
    30ac:	05b90500 	ldreq	r0, [r9, #1280]!	; 0x500
    30b0:	05000000 	streq	r0, [r0, #-0]
    30b4:	0000069f 	muleq	r0, pc, r6	; <UNPREDICTABLE>
    30b8:	06d80501 	ldrbeq	r0, [r8], r1, lsl #10
    30bc:	05040000 	streq	r0, [r4, #-0]
    30c0:	000006e7 	andeq	r0, r0, r7, ror #13
    30c4:	06f60505 	ldrbteq	r0, [r6], r5, lsl #10
    30c8:	05060000 	streq	r0, [r6, #-0]
    30cc:	00000705 	andeq	r0, r0, r5, lsl #14
    30d0:	07140507 	ldreq	r0, [r4, -r7, lsl #10]
    30d4:	05030000 	streq	r0, [r3, #-0]
    30d8:	00000723 	andeq	r0, r0, r3, lsr #14
    30dc:	cc060002 	stcgt	0, cr0, [r6], {2}
    30e0:	02000006 	andeq	r0, r0, #6
    30e4:	00007915 	andeq	r7, r0, r5, lsl r9
    30e8:	07950700 	ldreq	r0, [r5, r0, lsl #14]
    30ec:	37010000 	strcc	r0, [r1, -r0]
    30f0:	00009b14 	andeq	r9, r0, r4, lsl fp
    30f4:	0000009c 	muleq	r0, ip, r0
    30f8:	01c39c01 	biceq	r9, r3, r1, lsl #24
    30fc:	1c080000 	stcne	0, cr0, [r8], {-0}
    3100:	a800009b 	stmdage	r0, {r0, r1, r3, r4, r7}
    3104:	09000003 	stmdbeq	r0, {r0, r1}
    3108:	00009b28 	andeq	r9, r0, r8, lsr #22
    310c:	000003af 	andeq	r0, r0, pc, lsr #7
    3110:	000000f3 	strdeq	r0, [r0], -r3
    3114:	0151010a 	cmpeq	r1, sl, lsl #2
    3118:	50010a32 	andpl	r0, r1, r2, lsr sl
    311c:	09003e01 	stmdbeq	r0, {r0, r9, sl, fp, ip, sp}
    3120:	00009b34 	andeq	r9, r0, r4, lsr fp
    3124:	000003af 	andeq	r0, r0, pc, lsr #7
    3128:	0000010b 	andeq	r0, r0, fp, lsl #2
    312c:	0151010a 	cmpeq	r1, sl, lsl #2
    3130:	50010a32 	andpl	r0, r1, r2, lsr sl
    3134:	08003f01 	stmdaeq	r0, {r0, r8, r9, sl, fp, ip, sp}
    3138:	00009b38 	andeq	r9, r0, r8, lsr fp
    313c:	000003a8 	andeq	r0, r0, r8, lsr #7
    3140:	009b4809 	addseq	r4, fp, r9, lsl #16
    3144:	0003c500 	andeq	ip, r3, r0, lsl #10
    3148:	00012800 	andeq	r2, r1, r0, lsl #16
    314c:	50010a00 	andpl	r0, r1, r0, lsl #20
    3150:	00007502 	andeq	r7, r0, r2, lsl #10
    3154:	009b5409 	addseq	r5, fp, r9, lsl #8
    3158:	0003e600 	andeq	lr, r3, r0, lsl #12
    315c:	00013c00 	andeq	r3, r1, r0, lsl #24
    3160:	50010a00 	andpl	r0, r1, r0, lsl #20
    3164:	00007502 	andeq	r7, r0, r2, lsl #10
    3168:	009b5808 	addseq	r5, fp, r8, lsl #16
    316c:	0003a800 	andeq	sl, r3, r0, lsl #16
    3170:	9b640900 	blls	1905578 <__bss_end__+0x18fb298>
    3174:	03e60000 	mvneq	r0, #0
    3178:	01580000 	cmpeq	r8, r0
    317c:	010a0000 	mrseq	r0, (UNDEF: 10)
    3180:	00300151 	eorseq	r0, r0, r1, asr r1
    3184:	009b7009 	addseq	r7, fp, r9
    3188:	0003e600 	andeq	lr, r3, r0, lsl #12
    318c:	00016b00 	andeq	r6, r1, r0, lsl #22
    3190:	51010a00 	tstpl	r1, r0, lsl #20
    3194:	09003001 	stmdbeq	r0, {r0, ip, sp}
    3198:	00009b7c 	andeq	r9, r0, ip, ror fp
    319c:	000003e6 	andeq	r0, r0, r6, ror #7
    31a0:	0000017e 	andeq	r0, r0, lr, ror r1
    31a4:	0151010a 	cmpeq	r1, sl, lsl #2
    31a8:	88090036 	stmdahi	r9, {r1, r2, r4, r5}
    31ac:	e600009b 			; <UNDEFINED> instruction: 0xe600009b
    31b0:	91000003 	tstls	r0, r3
    31b4:	0a000001 	beq	31c0 <_start-0x4e40>
    31b8:	33015101 	movwcc	r5, #4353	; 0x1101
    31bc:	9b940900 	blls	fe5055c4 <__bss_end__+0xfe4fb2e4>
    31c0:	03e60000 	mvneq	r0, #0
    31c4:	01a60000 			; <UNDEFINED> instruction: 0x01a60000
    31c8:	010a0000 	mrseq	r0, (UNDEF: 10)
    31cc:	0e0a0351 	mcreq	3, 0, r0, cr10, cr1, {2}
    31d0:	a0090001 	andge	r0, r9, r1
    31d4:	e600009b 			; <UNDEFINED> instruction: 0xe600009b
    31d8:	b9000003 	stmdblt	r0, {r0, r1}
    31dc:	0a000001 	beq	31e8 <_start-0x4e18>
    31e0:	33015101 	movwcc	r5, #4353	; 0x1101
    31e4:	9ba40800 	blls	fe9051ec <__bss_end__+0xfe8faf0c>
    31e8:	03a80000 			; <UNDEFINED> instruction: 0x03a80000
    31ec:	0b000000 	bleq	31f4 <_start-0x4e0c>
    31f0:	00000769 	andeq	r0, r0, r9, ror #14
    31f4:	00255701 	eoreq	r5, r5, r1, lsl #14
    31f8:	9bb00000 	blls	fec03200 <__bss_end__+0xfebf8f20>
    31fc:	001c0000 	andseq	r0, ip, r0
    3200:	9c010000 	stcls	0, cr0, [r1], {-0}
    3204:	000001e6 	andeq	r0, r0, r6, ror #3
    3208:	009bc008 	addseq	ip, fp, r8
    320c:	0003c500 	andeq	ip, r3, r0, lsl #10
    3210:	ae0b0000 	cdpge	0, 0, cr0, cr11, cr0, {0}
    3214:	01000007 	tsteq	r0, r7
    3218:	0000255d 	andeq	r2, r0, sp, asr r5
    321c:	009bcc00 	addseq	ip, fp, r0, lsl #24
    3220:	00002800 	andeq	r2, r0, r0, lsl #16
    3224:	129c0100 	addsne	r0, ip, #0, 2
    3228:	08000002 	stmdaeq	r0, {r1}
    322c:	00009bd4 	ldrdeq	r9, [r0], -r4
    3230:	000001c3 	andeq	r0, r0, r3, asr #3
    3234:	009be808 	addseq	lr, fp, r8, lsl #16
    3238:	0003c500 	andeq	ip, r3, r0, lsl #10
    323c:	c70b0000 	strgt	r0, [fp, -r0]
    3240:	01000007 	tsteq	r0, r7
    3244:	00002564 	andeq	r2, r0, r4, ror #10
    3248:	009bf400 	addseq	pc, fp, r0, lsl #8
    324c:	00001c00 	andeq	r1, r0, r0, lsl #24
    3250:	359c0100 	ldrcc	r0, [ip, #256]	; 0x100
    3254:	08000002 	stmdaeq	r0, {r1}
    3258:	00009c04 	andeq	r9, r0, r4, lsl #24
    325c:	000003c5 	andeq	r0, r0, r5, asr #7
    3260:	03730700 	cmneq	r3, #0, 14
    3264:	6a010000 	bvs	4326c <__bss_end__+0x38f8c>
    3268:	00009c10 	andeq	r9, r0, r0, lsl ip
    326c:	0000002c 	andeq	r0, r0, ip, lsr #32
    3270:	02719c01 	rsbseq	r9, r1, #256	; 0x100
    3274:	630c0000 	movwvs	r0, #49152	; 0xc000
    3278:	2c6a0100 	stfcse	f0, [sl], #-0
    327c:	53000000 	movwpl	r0, #0
    3280:	08000026 	stmdaeq	r0, {r1, r2, r5}
    3284:	00009c1c 	andeq	r9, r0, ip, lsl ip
    3288:	00000212 	andeq	r0, r0, r2, lsl r2
    328c:	009c340d 	addseq	r3, ip, sp, lsl #8
    3290:	0003e600 	andeq	lr, r3, r0, lsl #12
    3294:	51010a00 	tstpl	r1, r0, lsl #20
    3298:	00007402 	andeq	r7, r0, r2, lsl #8
    329c:	07870b00 	streq	r0, [r7, r0, lsl #22]
    32a0:	74010000 	strvc	r0, [r1], #-0
    32a4:	00000025 	andeq	r0, r0, r5, lsr #32
    32a8:	00009c3c 	andeq	r9, r0, ip, lsr ip
    32ac:	0000000c 	andeq	r0, r0, ip
    32b0:	02949c01 	addseq	r9, r4, #256	; 0x100
    32b4:	44080000 	strmi	r0, [r8], #-0
    32b8:	c300009c 	movwgt	r0, #156	; 0x9c
    32bc:	00000001 	andeq	r0, r0, r1
    32c0:	0008440b 	andeq	r4, r8, fp, lsl #8
    32c4:	25780100 	ldrbcs	r0, [r8, #-256]!	; 0x100
    32c8:	48000000 	stmdami	r0, {}	; <UNPREDICTABLE>
    32cc:	2000009c 	mulcs	r0, ip, r0
    32d0:	01000000 	mrseq	r0, (UNDEF: 0)
    32d4:	0002c09c 	muleq	r2, ip, r0
    32d8:	9c500800 	mrrcls	8, 0, r0, r0, cr0	; <UNPREDICTABLE>
    32dc:	02710000 	rsbseq	r0, r1, #0
    32e0:	5c080000 	stcpl	0, cr0, [r8], {-0}
    32e4:	e600009c 			; <UNDEFINED> instruction: 0xe600009c
    32e8:	00000001 	andeq	r0, r0, r1
    32ec:	0007e10e 	andeq	lr, r7, lr, lsl #2
    32f0:	d1160100 	tstle	r6, r0, lsl #2
    32f4:	05000002 	streq	r0, [r0, #-2]
    32f8:	009d6403 	addseq	r6, sp, r3, lsl #8
    32fc:	d7040f00 	strle	r0, [r4, -r0, lsl #30]
    3300:	10000002 	andne	r0, r0, r2
    3304:	0000002c 	andeq	r0, r0, ip, lsr #32
    3308:	0007d50e 	andeq	sp, r7, lr, lsl #10
    330c:	d1170100 	tstle	r7, r0, lsl #2
    3310:	05000002 	streq	r0, [r0, #-2]
    3314:	009d3403 	addseq	r3, sp, r3, lsl #8
    3318:	074c0e00 	strbeq	r0, [ip, -r0, lsl #28]
    331c:	1a010000 	bne	43324 <__bss_end__+0x39044>
    3320:	000002d1 	ldrdeq	r0, [r0], -r1
    3324:	9d500305 	ldclls	3, cr0, [r0, #-20]	; 0xffffffec
    3328:	9f0e0000 	svcls	0x000e0000
    332c:	01000007 	tsteq	r0, r7
    3330:	0002d11b 	andeq	sp, r2, fp, lsl r1
    3334:	3c030500 	cfstr32cc	mvfx0, [r3], {-0}
    3338:	0e00009d 	mcreq	0, 0, r0, cr0, cr13, {4}
    333c:	000007b8 			; <UNDEFINED> instruction: 0x000007b8
    3340:	02d11c01 	sbcseq	r1, r1, #256	; 0x100
    3344:	03050000 	movweq	r0, #20480	; 0x5000
    3348:	00009d40 	andeq	r9, r0, r0, asr #26
    334c:	0008260e 	andeq	r2, r8, lr, lsl #12
    3350:	d11d0100 	tstle	sp, r0, lsl #2
    3354:	05000002 	streq	r0, [r0, #-2]
    3358:	009d4403 	addseq	r4, sp, r3, lsl #8
    335c:	073d0e00 	ldreq	r0, [sp, -r0, lsl #28]!
    3360:	1e010000 	cdpne	0, 0, cr0, cr1, cr0, {0}
    3364:	000002d1 	ldrdeq	r0, [r0], -r1
    3368:	9d600305 	stclls	3, cr0, [r0, #-20]!	; 0xffffffec
    336c:	350e0000 	strcc	r0, [lr, #-0]
    3370:	01000008 	tsteq	r0, r8
    3374:	0002d11f 	andeq	sp, r2, pc, lsl r1
    3378:	4c030500 	cfstr32mi	mvfx0, [r3], {-0}
    337c:	0e00009d 	mcreq	0, 0, r0, cr0, cr13, {4}
    3380:	0000075a 	andeq	r0, r0, sl, asr r7
    3384:	02d12001 	sbcseq	r2, r1, #1
    3388:	03050000 	movweq	r0, #20480	; 0x5000
    338c:	00009d5c 	andeq	r9, r0, ip, asr sp
    3390:	0008090e 	andeq	r0, r8, lr, lsl #18
    3394:	d1210100 	teqle	r1, r0, lsl #2
    3398:	05000002 	streq	r0, [r0, #-2]
    339c:	009d5803 	addseq	r5, sp, r3, lsl #16
    33a0:	07770e00 	ldrbeq	r0, [r7, -r0, lsl #28]!
    33a4:	22010000 	andcs	r0, r1, #0
    33a8:	000002d1 	ldrdeq	r0, [r0], -r1
    33ac:	9d380305 	ldcls	3, cr0, [r8, #-20]!	; 0xffffffec
    33b0:	f90e0000 			; <UNDEFINED> instruction: 0xf90e0000
    33b4:	01000007 	tsteq	r0, r7
    33b8:	0002d123 	andeq	sp, r2, r3, lsr #2
    33bc:	54030500 	strpl	r0, [r3], #-1280	; 0x500
    33c0:	0e00009d 	mcreq	0, 0, r0, cr0, cr13, {4}
    33c4:	000007e9 	andeq	r0, r0, r9, ror #15
    33c8:	02d12401 	sbcseq	r2, r1, #16777216	; 0x1000000
    33cc:	03050000 	movweq	r0, #20480	; 0x5000
    33d0:	00009d48 	andeq	r9, r0, r8, asr #26
    33d4:	0005f211 	andeq	pc, r5, r1, lsl r2	; <UNPREDICTABLE>
    33d8:	128a0300 	addne	r0, sl, #0, 6
    33dc:	0000061d 	andeq	r0, r0, sp, lsl r6
    33e0:	03c51902 	biceq	r1, r5, #32768	; 0x8000
    33e4:	2c130000 	ldccs	0, cr0, [r3], {-0}
    33e8:	13000000 	movwne	r0, #0
    33ec:	000000b2 	strheq	r0, [r0], -r2
    33f0:	06b01400 	ldrteq	r1, [r0], r0, lsl #8
    33f4:	a9030000 	stmdbge	r3, {}	; <UNPREDICTABLE>
    33f8:	0000002c 	andeq	r0, r0, ip, lsr #32
    33fc:	000003da 	ldrdeq	r0, [r0], -sl
    3400:	0003da13 	andeq	sp, r3, r3, lsl sl
    3404:	040f0000 	streq	r0, [pc], #-0	; 340c <_start-0x4bf4>
    3408:	000003e0 	andeq	r0, r0, r0, ror #7
    340c:	0003e515 	andeq	lr, r3, r5, lsl r5
    3410:	99121600 	ldmdbls	r2, {r9, sl, ip}
    3414:	03000005 	movweq	r0, #5
    3418:	0003fc9d 	muleq	r3, sp, ip
    341c:	03fc1300 	mvnseq	r1, #0, 6
    3420:	2c130000 	ldccs	0, cr0, [r3], {-0}
    3424:	00000000 	andeq	r0, r0, r0
    3428:	03e5040f 	mvneq	r0, #251658240	; 0xf000000
    342c:	Address 0x000000000000342c is out of bounds.


Disassembly of section .debug_abbrev:

00000000 <.debug_abbrev>:
   0:	25011101 	strcs	r1, [r1, #-257]	; 0x101
   4:	030b130e 	movweq	r1, #45838	; 0xb30e
   8:	110e1b0e 	tstne	lr, lr, lsl #22
   c:	10061201 	andne	r1, r6, r1, lsl #4
  10:	02000017 	andeq	r0, r0, #23
  14:	0b0b0024 	bleq	2c00ac <__bss_end__+0x2b5dcc>
  18:	08030b3e 	stmdaeq	r3, {r1, r2, r3, r4, r5, r8, r9, fp}
  1c:	24030000 	strcs	r0, [r3], #-0
  20:	3e0b0b00 	vmlacc.f64	d0, d11, d0
  24:	000e030b 	andeq	r0, lr, fp, lsl #6
  28:	00160400 	andseq	r0, r6, r0, lsl #8
  2c:	0b3a0e03 	bleq	e83840 <__bss_end__+0xe79560>
  30:	13490b3b 	movtne	r0, #39739	; 0x9b3b
  34:	0f050000 	svceq	0x00050000
  38:	490b0b00 	stmdbmi	fp, {r8, r9, fp}
  3c:	06000013 			; <UNDEFINED> instruction: 0x06000013
  40:	13490026 	movtne	r0, #36902	; 0x9026
  44:	13070000 	movwne	r0, #28672	; 0x7000
  48:	3a0b0b01 	bcc	2c2c54 <__bss_end__+0x2b8974>
  4c:	010b3b0b 	tsteq	fp, fp, lsl #22
  50:	08000013 	stmdaeq	r0, {r0, r1, r4}
  54:	0803000d 	stmdaeq	r3, {r0, r2, r3}
  58:	0b3b0b3a 	bleq	ec2d48 <__bss_end__+0xeb8a68>
  5c:	0b381349 	bleq	e04d88 <__bss_end__+0xdfaaa8>
  60:	0d090000 	stceq	0, cr0, [r9, #-0]
  64:	3a0e0300 	bcc	380c6c <__bss_end__+0x37698c>
  68:	490b3b0b 	stmdbmi	fp, {r0, r1, r3, r8, r9, fp, ip, sp}
  6c:	000b3813 	andeq	r3, fp, r3, lsl r8
  70:	012e0a00 	teqeq	lr, r0, lsl #20
  74:	0b3a0e03 	bleq	e83888 <__bss_end__+0xe795a8>
  78:	19270b3b 	stmdbne	r7!, {r0, r1, r3, r4, r5, r8, r9, fp}
  7c:	13010b20 	movwne	r0, #6944	; 0x1b20
  80:	050b0000 	streq	r0, [fp, #-0]
  84:	3a080300 	bcc	200c8c <__bss_end__+0x1f69ac>
  88:	490b3b0b 	stmdbmi	fp, {r0, r1, r3, r8, r9, fp, ip, sp}
  8c:	0c000013 	stceq	0, cr0, [r0], {19}
  90:	0e030034 	mcreq	0, 0, r0, cr3, cr4, {1}
  94:	0b3b0b3a 	bleq	ec2d84 <__bss_end__+0xeb8aa4>
  98:	00001349 	andeq	r1, r0, r9, asr #6
  9c:	00010b0d 	andeq	r0, r1, sp, lsl #22
  a0:	00340e00 	eorseq	r0, r4, r0, lsl #28
  a4:	0b3a0803 	bleq	e820b8 <__bss_end__+0xe77dd8>
  a8:	13490b3b 	movtne	r0, #39739	; 0x9b3b
  ac:	2e0f0000 	cdpcs	0, 0, cr0, cr15, cr0, {0}
  b0:	03193f01 	tsteq	r9, #1, 30
  b4:	3b0b3a0e 	blcc	2ce8f4 <__bss_end__+0x2c4614>
  b8:	2019270b 	andscs	r2, r9, fp, lsl #14
  bc:	0013010b 	andseq	r0, r3, fp, lsl #2
  c0:	00051000 	andeq	r1, r5, r0
  c4:	0b3a0e03 	bleq	e838d8 <__bss_end__+0xe795f8>
  c8:	13490b3b 	movtne	r0, #39739	; 0x9b3b
  cc:	0b110000 	bleq	4400d4 <__bss_end__+0x435df4>
  d0:	00130101 	andseq	r0, r3, r1, lsl #2
  d4:	012e1200 	teqeq	lr, r0, lsl #4
  d8:	0e03193f 	mcreq	9, 0, r1, cr3, cr15, {1}
  dc:	0b3b0b3a 	bleq	ec2dcc <__bss_end__+0xeb8aec>
  e0:	13491927 	movtne	r1, #39207	; 0x9927
  e4:	13010b20 	movwne	r0, #6944	; 0x1b20
  e8:	2e130000 	cdpcs	0, 1, cr0, cr3, cr0, {0}
  ec:	11133101 	tstne	r3, r1, lsl #2
  f0:	40061201 	andmi	r1, r6, r1, lsl #4
  f4:	19429718 	stmdbne	r2, {r3, r4, r8, r9, sl, ip, pc}^
  f8:	00001301 	andeq	r1, r0, r1, lsl #6
  fc:	31000514 	tstcc	r0, r4, lsl r5
 100:	00170213 	andseq	r0, r7, r3, lsl r2
 104:	00341500 	eorseq	r1, r4, r0, lsl #10
 108:	0b1c1331 	bleq	704dd4 <__bss_end__+0x6faaf4>
 10c:	34160000 	ldrcc	r0, [r6], #-0
 110:	02133100 	andseq	r3, r3, #0, 2
 114:	17000018 	smladne	r0, r8, r0, r0
 118:	13310005 	teqne	r1, #5
 11c:	00001802 	andeq	r1, r0, r2, lsl #16
 120:	11010b18 	tstne	r1, r8, lsl fp
 124:	01061201 	tsteq	r6, r1, lsl #4
 128:	19000013 	stmdbne	r0, {r0, r1, r4}
 12c:	1331011d 	teqne	r1, #1073741831	; 0x40000007
 130:	06120111 			; <UNDEFINED> instruction: 0x06120111
 134:	0b590b58 	bleq	1642e9c <__bss_end__+0x1638bbc>
 138:	00001301 	andeq	r1, r0, r1, lsl #6
 13c:	3100341a 	tstcc	r0, sl, lsl r4
 140:	00170213 	andseq	r0, r7, r3, lsl r2
 144:	011d1b00 	tsteq	sp, r0, lsl #22
 148:	01521331 	cmpeq	r2, r1, lsr r3
 14c:	0b581755 	bleq	1605ea8 <__bss_end__+0x15fbbc8>
 150:	13010b59 	movwne	r0, #7001	; 0x1b59
 154:	0b1c0000 	bleq	70015c <__bss_end__+0x6f5e7c>
 158:	01175501 	tsteq	r7, r1, lsl #10
 15c:	1d000013 	stcne	0, cr0, [r0, #-76]	; 0xffffffb4
 160:	1331011d 	teqne	r1, #1073741831	; 0x40000007
 164:	17550152 			; <UNDEFINED> instruction: 0x17550152
 168:	0b590b58 	bleq	1642ed0 <__bss_end__+0x1638bf0>
 16c:	051e0000 	ldreq	r0, [lr, #-0]
 170:	00133100 	andseq	r3, r3, r0, lsl #2
 174:	010b1f00 	tsteq	fp, r0, lsl #30
 178:	06120111 			; <UNDEFINED> instruction: 0x06120111
 17c:	2e200000 	cdpcs	0, 2, cr0, cr0, cr0, {0}
 180:	03193f01 	tsteq	r9, #1, 30
 184:	3b0b3a0e 	blcc	2ce9c4 <__bss_end__+0x2c46e4>
 188:	4919270b 	ldmdbmi	r9, {r0, r1, r3, r8, r9, sl, sp}
 18c:	12011113 	andne	r1, r1, #-1073741820	; 0xc0000004
 190:	97184006 	ldrls	r4, [r8, -r6]
 194:	13011942 	movwne	r1, #6466	; 0x1942
 198:	05210000 	streq	r0, [r1, #-0]!
 19c:	3a080300 	bcc	200da4 <__bss_end__+0x1f6ac4>
 1a0:	490b3b0b 	stmdbmi	fp, {r0, r1, r3, r8, r9, fp, ip, sp}
 1a4:	00170213 	andseq	r0, r7, r3, lsl r2
 1a8:	00342200 	eorseq	r2, r4, r0, lsl #4
 1ac:	13490e03 	movtne	r0, #40451	; 0x9e03
 1b0:	18021934 	stmdane	r2, {r2, r4, r5, r8, fp, ip}
 1b4:	34230000 	strtcc	r0, [r3], #-0
 1b8:	3a0e0300 	bcc	380dc0 <__bss_end__+0x376ae0>
 1bc:	490b3b0b 	stmdbmi	fp, {r0, r1, r3, r8, r9, fp, ip, sp}
 1c0:	00170213 	andseq	r0, r7, r3, lsl r2
 1c4:	82892400 	addhi	r2, r9, #0, 8
 1c8:	01110101 	tsteq	r1, r1, lsl #2
 1cc:	13011331 	movwne	r1, #4913	; 0x1331
 1d0:	8a250000 	bhi	9401d8 <__bss_end__+0x935ef8>
 1d4:	02000182 	andeq	r0, r0, #-2147483616	; 0x80000020
 1d8:	18429118 	stmdane	r2, {r3, r4, r8, ip, pc}^
 1dc:	89260000 	stmdbhi	r6!, {}	; <UNPREDICTABLE>
 1e0:	11000182 	smlabbne	r0, r2, r1, r0
 1e4:	00133101 	andseq	r3, r3, r1, lsl #2
 1e8:	01012700 	tsteq	r1, r0, lsl #14
 1ec:	13011349 	movwne	r1, #4937	; 0x1349
 1f0:	21280000 	teqcs	r8, r0
 1f4:	2f134900 	svccs	0x00134900
 1f8:	2900000b 	stmdbcs	r0, {r0, r1, r3}
 1fc:	193f012e 	ldmdbne	pc!, {r1, r2, r3, r5, r8}	; <UNPREDICTABLE>
 200:	0b3a0e03 	bleq	e83a14 <__bss_end__+0xe79734>
 204:	19270b3b 	stmdbne	r7!, {r0, r1, r3, r4, r5, r8, r9, fp}
 208:	06120111 			; <UNDEFINED> instruction: 0x06120111
 20c:	42971840 	addsmi	r1, r7, #64, 16	; 0x400000
 210:	00130119 	andseq	r0, r3, r9, lsl r1
 214:	00342a00 	eorseq	r2, r4, r0, lsl #20
 218:	0b3a0803 	bleq	e8222c <__bss_end__+0xe77f4c>
 21c:	13490b3b 	movtne	r0, #39739	; 0x9b3b
 220:	00000b1c 	andeq	r0, r0, ip, lsl fp
 224:	3100052b 	tstcc	r0, fp, lsr #10
 228:	000b1c13 	andeq	r1, fp, r3, lsl ip
 22c:	00052c00 	andeq	r2, r5, r0, lsl #24
 230:	051c1331 	ldreq	r1, [ip, #-817]	; 0x331
 234:	342d0000 	strtcc	r0, [sp], #-0
 238:	00133100 	andseq	r3, r3, r0, lsl #2
 23c:	010b2e00 	tsteq	fp, r0, lsl #28
 240:	00001755 	andeq	r1, r0, r5, asr r7
 244:	0182892f 	orreq	r8, r2, pc, lsr #18
 248:	31011101 	tstcc	r1, r1, lsl #2
 24c:	30000013 	andcc	r0, r0, r3, lsl r0
 250:	0e030034 	mcreq	0, 0, r0, cr3, cr4, {1}
 254:	0b3b0b3a 	bleq	ec2f44 <__bss_end__+0xeb8c64>
 258:	061c1349 	ldreq	r1, [ip], -r9, asr #6
 25c:	35310000 	ldrcc	r0, [r1, #-0]!
 260:	00134900 	andseq	r4, r3, r0, lsl #18
 264:	00343200 	eorseq	r3, r4, r0, lsl #4
 268:	0b3a0803 	bleq	e8227c <__bss_end__+0xe77f9c>
 26c:	13490b3b 	movtne	r0, #39739	; 0x9b3b
 270:	00001802 	andeq	r1, r0, r2, lsl #16
 274:	3f012e33 	svccc	0x00012e33
 278:	3a0e0319 	bcc	380ee4 <__bss_end__+0x376c04>
 27c:	270b3b0b 	strcs	r3, [fp, -fp, lsl #22]
 280:	01193c19 	tsteq	r9, r9, lsl ip
 284:	34000013 	strcc	r0, [r0], #-19
 288:	13490005 	movtne	r0, #36869	; 0x9005
 28c:	2e350000 	cdpcs	0, 3, cr0, cr5, cr0, {0}
 290:	03193f00 	tsteq	r9, #0, 30
 294:	3b0b3a0e 	blcc	2cead4 <__bss_end__+0x2c47f4>
 298:	3c19270b 	ldccc	7, cr2, [r9], {11}
 29c:	36000019 			; <UNDEFINED> instruction: 0x36000019
 2a0:	193f012e 	ldmdbne	pc!, {r1, r2, r3, r5, r8}	; <UNPREDICTABLE>
 2a4:	0b3a0e03 	bleq	e83ab8 <__bss_end__+0xe797d8>
 2a8:	19270b3b 	stmdbne	r7!, {r0, r1, r3, r4, r5, r8, r9, fp}
 2ac:	193c1349 	ldmdbne	ip!, {r0, r3, r6, r8, r9, ip}
 2b0:	00001301 	andeq	r1, r0, r1, lsl #6
 2b4:	00001837 	andeq	r1, r0, r7, lsr r8
 2b8:	11010000 	mrsne	r0, (UNDEF: 1)
 2bc:	130e2501 	movwne	r2, #58625	; 0xe501
 2c0:	1b0e030b 	blne	380ef4 <__bss_end__+0x376c14>
 2c4:	1201110e 	andne	r1, r1, #-2147483645	; 0x80000003
 2c8:	00171006 	andseq	r1, r7, r6
 2cc:	00160200 	andseq	r0, r6, r0, lsl #4
 2d0:	0b3a0e03 	bleq	e83ae4 <__bss_end__+0xe79804>
 2d4:	13490b3b 	movtne	r0, #39739	; 0x9b3b
 2d8:	13030000 	movwne	r0, #12288	; 0x3000
 2dc:	0b0e0301 	bleq	380ee8 <__bss_end__+0x376c08>
 2e0:	3b0b3a0b 	blcc	2ceb14 <__bss_end__+0x2c4834>
 2e4:	0013010b 	andseq	r0, r3, fp, lsl #2
 2e8:	000d0400 	andeq	r0, sp, r0, lsl #8
 2ec:	13490e03 	movtne	r0, #40451	; 0x9e03
 2f0:	19340b38 	ldmdbne	r4!, {r3, r4, r5, r8, r9, fp}
 2f4:	0f050000 	svceq	0x00050000
 2f8:	000b0b00 	andeq	r0, fp, r0, lsl #22
 2fc:	00240600 	eoreq	r0, r4, r0, lsl #12
 300:	0b3e0b0b 	bleq	f82f34 <__bss_end__+0xf78c54>
 304:	00000803 	andeq	r0, r0, r3, lsl #16
 308:	0b002407 	bleq	932c <va_printk+0x1b8>
 30c:	030b3e0b 	movweq	r3, #48651	; 0xbe0b
 310:	0800000e 	stmdaeq	r0, {r1, r2, r3}
 314:	0b0b000f 	bleq	2c0358 <__bss_end__+0x2b6078>
 318:	00001349 	andeq	r1, r0, r9, asr #6
 31c:	49002609 	stmdbmi	r0, {r0, r3, r9, sl, sp}
 320:	0a000013 	beq	374 <_start-0x7c8c>
 324:	193f012e 	ldmdbne	pc!, {r1, r2, r3, r5, r8}	; <UNPREDICTABLE>
 328:	0b3a0e03 	bleq	e83b3c <__bss_end__+0xe7985c>
 32c:	19270b3b 	stmdbne	r7!, {r0, r1, r3, r4, r5, r8, r9, fp}
 330:	01111349 	tsteq	r1, r9, asr #6
 334:	18400612 	stmdane	r0, {r1, r4, r9, sl}^
 338:	01194297 			; <UNDEFINED> instruction: 0x01194297
 33c:	0b000013 	bleq	390 <_start-0x7c70>
 340:	08030005 	stmdaeq	r3, {r0, r2}
 344:	0b3b0b3a 	bleq	ec3034 <__bss_end__+0xeb8d54>
 348:	18021349 	stmdane	r2, {r0, r3, r6, r8, r9, ip}
 34c:	180c0000 	stmdane	ip, {}	; <UNPREDICTABLE>
 350:	0d000000 	stceq	0, cr0, [r0, #-0]
 354:	08030034 	stmdaeq	r3, {r2, r4, r5}
 358:	0b3b0b3a 	bleq	ec3048 <__bss_end__+0xeb8d68>
 35c:	18021349 	stmdane	r2, {r0, r3, r6, r8, r9, ip}
 360:	340e0000 	strcc	r0, [lr], #-0
 364:	3a0e0300 	bcc	380f6c <__bss_end__+0x376c8c>
 368:	490b3b0b 	stmdbmi	fp, {r0, r1, r3, r8, r9, fp, ip, sp}
 36c:	00180213 	andseq	r0, r8, r3, lsl r2
 370:	00340f00 	eorseq	r0, r4, r0, lsl #30
 374:	0b3a0803 	bleq	e82388 <__bss_end__+0xe780a8>
 378:	13490b3b 	movtne	r0, #39739	; 0x9b3b
 37c:	00001702 	andeq	r1, r0, r2, lsl #14
 380:	01828910 	orreq	r8, r2, r0, lsl r9
 384:	31011101 	tstcc	r1, r1, lsl #2
 388:	00130113 	andseq	r0, r3, r3, lsl r1
 38c:	828a1100 	addhi	r1, sl, #0, 2
 390:	18020001 	stmdane	r2, {r0}
 394:	00184291 	mulseq	r8, r1, r2
 398:	82891200 	addhi	r1, r9, #0, 4
 39c:	01110101 	tsteq	r1, r1, lsl #2
 3a0:	01130000 	tsteq	r3, r0
 3a4:	01134901 	tsteq	r3, r1, lsl #18
 3a8:	14000013 	strne	r0, [r0], #-19
 3ac:	13490021 	movtne	r0, #36897	; 0x9021
 3b0:	0000052f 	andeq	r0, r0, pc, lsr #10
 3b4:	27011515 	smladcs	r1, r5, r5, r1
 3b8:	01134919 	tsteq	r3, r9, lsl r9
 3bc:	16000013 			; <UNDEFINED> instruction: 0x16000013
 3c0:	13490005 	movtne	r0, #36869	; 0x9005
 3c4:	34170000 	ldrcc	r0, [r7], #-0
 3c8:	3a0e0300 	bcc	380fd0 <__bss_end__+0x376cf0>
 3cc:	490b3b0b 	stmdbmi	fp, {r0, r1, r3, r8, r9, fp, ip, sp}
 3d0:	3c193f13 	ldccc	15, cr3, [r9], {19}
 3d4:	18000019 	stmdane	r0, {r0, r3, r4}
 3d8:	193f012e 	ldmdbne	pc!, {r1, r2, r3, r5, r8}	; <UNPREDICTABLE>
 3dc:	0b3a0e03 	bleq	e83bf0 <__bss_end__+0xe79910>
 3e0:	19270b3b 	stmdbne	r7!, {r0, r1, r3, r4, r5, r8, r9, fp}
 3e4:	193c1349 	ldmdbne	ip!, {r0, r3, r6, r8, r9, ip}
 3e8:	01000000 	mrseq	r0, (UNDEF: 0)
 3ec:	0e250111 	mcreq	1, 1, r0, cr5, cr1, {0}
 3f0:	0e030b13 	vmoveq.32	d3[0], r0
 3f4:	01110e1b 	tsteq	r1, fp, lsl lr
 3f8:	17100612 			; <UNDEFINED> instruction: 0x17100612
 3fc:	24020000 	strcs	r0, [r2], #-0
 400:	3e0b0b00 	vmlacc.f64	d0, d11, d0
 404:	0008030b 	andeq	r0, r8, fp, lsl #6
 408:	00240300 	eoreq	r0, r4, r0, lsl #6
 40c:	0b3e0b0b 	bleq	f83040 <__bss_end__+0xf78d60>
 410:	00000e03 	andeq	r0, r0, r3, lsl #28
 414:	03012e04 	movweq	r2, #7684	; 0x1e04
 418:	3b0b3a0e 	blcc	2cec58 <__bss_end__+0x2c4978>
 41c:	4919270b 	ldmdbmi	r9, {r0, r1, r3, r8, r9, sl, sp}
 420:	12011113 	andne	r1, r1, #-1073741820	; 0xc0000004
 424:	97184006 	ldrls	r4, [r8, -r6]
 428:	13011942 	movwne	r1, #6466	; 0x1942
 42c:	05050000 	streq	r0, [r5, #-0]
 430:	3a080300 	bcc	201038 <__bss_end__+0x1f6d58>
 434:	490b3b0b 	stmdbmi	fp, {r0, r1, r3, r8, r9, fp, ip, sp}
 438:	00170213 	andseq	r0, r7, r3, lsl r2
 43c:	82890600 	addhi	r0, r9, #0, 12
 440:	01110101 	tsteq	r1, r1, lsl #2
 444:	00001331 	andeq	r1, r0, r1, lsr r3
 448:	01828a07 	orreq	r8, r2, r7, lsl #20
 44c:	91180200 	tstls	r8, r0, lsl #4
 450:	00001842 	andeq	r1, r0, r2, asr #16
 454:	3f002e08 	svccc	0x00002e08
 458:	3a0e0319 	bcc	3810c4 <__bss_end__+0x376de4>
 45c:	270b3b0b 	strcs	r3, [fp, -fp, lsl #22]
 460:	12011119 	andne	r1, r1, #1073741830	; 0x40000006
 464:	97184006 	ldrls	r4, [r8, -r6]
 468:	00001942 	andeq	r1, r0, r2, asr #18
 46c:	3f012e09 	svccc	0x00012e09
 470:	3a0e0319 	bcc	3810dc <__bss_end__+0x376dfc>
 474:	270b3b0b 	strcs	r3, [fp, -fp, lsl #22]
 478:	12011119 	andne	r1, r1, #1073741830	; 0x40000006
 47c:	97184006 	ldrls	r4, [r8, -r6]
 480:	13011942 	movwne	r1, #6466	; 0x1942
 484:	050a0000 	streq	r0, [sl, #-0]
 488:	3a080300 	bcc	201090 <__bss_end__+0x1f6db0>
 48c:	490b3b0b 	stmdbmi	fp, {r0, r1, r3, r8, r9, fp, ip, sp}
 490:	00180213 	andseq	r0, r8, r3, lsl r2
 494:	01150b00 	tsteq	r5, r0, lsl #22
 498:	13491927 	movtne	r1, #39207	; 0x9927
 49c:	00001301 	andeq	r1, r0, r1, lsl #6
 4a0:	4900050c 	stmdbmi	r0, {r2, r3, r8, sl}
 4a4:	0d000013 	stceq	0, cr0, [r0, #-76]	; 0xffffffb4
 4a8:	0b0b000f 	bleq	2c04ec <__bss_end__+0x2b620c>
 4ac:	00001349 	andeq	r1, r0, r9, asr #6
 4b0:	0300340e 	movweq	r3, #1038	; 0x40e
 4b4:	3b0b3a0e 	blcc	2cecf4 <__bss_end__+0x2c4a14>
 4b8:	3f13490b 	svccc	0x0013490b
 4bc:	00180219 	andseq	r0, r8, r9, lsl r2
 4c0:	012e0f00 	teqeq	lr, r0, lsl #30
 4c4:	0e03193f 	mcreq	9, 0, r1, cr3, cr15, {1}
 4c8:	0b3b0b3a 	bleq	ec31b8 <__bss_end__+0xeb8ed8>
 4cc:	193c1927 	ldmdbne	ip!, {r0, r1, r2, r5, r8, fp, ip}
 4d0:	01000000 	mrseq	r0, (UNDEF: 0)
 4d4:	0e250111 	mcreq	1, 1, r0, cr5, cr1, {0}
 4d8:	0e030b13 	vmoveq.32	d3[0], r0
 4dc:	01110e1b 	tsteq	r1, fp, lsl lr
 4e0:	17100612 			; <UNDEFINED> instruction: 0x17100612
 4e4:	24020000 	strcs	r0, [r2], #-0
 4e8:	3e0b0b00 	vmlacc.f64	d0, d11, d0
 4ec:	0008030b 	andeq	r0, r8, fp, lsl #6
 4f0:	00240300 	eoreq	r0, r4, r0, lsl #6
 4f4:	0b3e0b0b 	bleq	f83128 <__bss_end__+0xf78e48>
 4f8:	00000e03 	andeq	r0, r0, r3, lsl #28
 4fc:	0b000f04 	bleq	4114 <_start-0x3eec>
 500:	0013490b 	andseq	r4, r3, fp, lsl #18
 504:	00260500 	eoreq	r0, r6, r0, lsl #10
 508:	00001349 	andeq	r1, r0, r9, asr #6
 50c:	3f012e06 	svccc	0x00012e06
 510:	3a0e0319 	bcc	38117c <__bss_end__+0x376e9c>
 514:	270b3b0b 	strcs	r3, [fp, -fp, lsl #22]
 518:	11134919 	tstne	r3, r9, lsl r9
 51c:	40061201 	andmi	r1, r6, r1, lsl #4
 520:	19429618 	stmdbne	r2, {r3, r4, r9, sl, ip, pc}^
 524:	00001301 	andeq	r1, r0, r1, lsl #6
 528:	03000507 	movweq	r0, #1287	; 0x507
 52c:	3b0b3a08 	blcc	2ced54 <__bss_end__+0x2c4a74>
 530:	0213490b 	andseq	r4, r3, #180224	; 0x2c000
 534:	08000017 	stmdaeq	r0, {r0, r1, r2, r4}
 538:	19270115 	stmdbne	r7!, {r0, r2, r4, r8}
 53c:	13011349 	movwne	r1, #4937	; 0x1349
 540:	05090000 	streq	r0, [r9, #-0]
 544:	00134900 	andseq	r4, r3, r0, lsl #18
 548:	00340a00 	eorseq	r0, r4, r0, lsl #20
 54c:	0b3a0e03 	bleq	e83d60 <__bss_end__+0xe79a80>
 550:	13490b3b 	movtne	r0, #39739	; 0x9b3b
 554:	193c193f 	ldmdbne	ip!, {r0, r1, r2, r3, r4, r5, r8, fp, ip}
 558:	340b0000 	strcc	r0, [fp], #-0
 55c:	3a0e0300 	bcc	381164 <__bss_end__+0x376e84>
 560:	490b3b0b 	stmdbmi	fp, {r0, r1, r3, r8, r9, fp, ip, sp}
 564:	02193f13 	andseq	r3, r9, #19, 30	; 0x4c
 568:	00000018 	andeq	r0, r0, r8, lsl r0
 56c:	25011101 	strcs	r1, [r1, #-257]	; 0x101
 570:	030b130e 	movweq	r1, #45838	; 0xb30e
 574:	110e1b0e 	tstne	lr, lr, lsl #22
 578:	10061201 	andne	r1, r6, r1, lsl #4
 57c:	02000017 	andeq	r0, r0, #23
 580:	0b0b0024 	bleq	2c0618 <__bss_end__+0x2b6338>
 584:	08030b3e 	stmdaeq	r3, {r1, r2, r3, r4, r5, r8, r9, fp}
 588:	24030000 	strcs	r0, [r3], #-0
 58c:	3e0b0b00 	vmlacc.f64	d0, d11, d0
 590:	000e030b 	andeq	r0, lr, fp, lsl #6
 594:	000f0400 	andeq	r0, pc, r0, lsl #8
 598:	00000b0b 	andeq	r0, r0, fp, lsl #22
 59c:	0b000f05 	bleq	41b8 <_start-0x3e48>
 5a0:	0013490b 	andseq	r4, r3, fp, lsl #18
 5a4:	00260600 	eoreq	r0, r6, r0, lsl #12
 5a8:	00001349 	andeq	r1, r0, r9, asr #6
 5ac:	03001607 	movweq	r1, #1543	; 0x607
 5b0:	3b0b3a0e 	blcc	2cedf0 <__bss_end__+0x2c4b10>
 5b4:	0013490b 	andseq	r4, r3, fp, lsl #18
 5b8:	01130800 	tsteq	r3, r0, lsl #16
 5bc:	0b0b0e03 	bleq	2c3dd0 <__bss_end__+0x2b9af0>
 5c0:	0b3b0b3a 	bleq	ec32b0 <__bss_end__+0xeb8fd0>
 5c4:	00001301 	andeq	r1, r0, r1, lsl #6
 5c8:	03000d09 	movweq	r0, #3337	; 0xd09
 5cc:	3813490e 	ldmdacc	r3, {r1, r2, r3, r8, fp, lr}
 5d0:	0019340b 	andseq	r3, r9, fp, lsl #8
 5d4:	012e0a00 	teqeq	lr, r0, lsl #20
 5d8:	0b3a0e03 	bleq	e83dec <__bss_end__+0xe79b0c>
 5dc:	19270b3b 	stmdbne	r7!, {r0, r1, r3, r4, r5, r8, r9, fp}
 5e0:	01111349 	tsteq	r1, r9, asr #6
 5e4:	18400612 	stmdane	r0, {r1, r4, r9, sl}^
 5e8:	01194297 			; <UNDEFINED> instruction: 0x01194297
 5ec:	0b000013 	bleq	640 <_start-0x79c0>
 5f0:	08030005 	stmdaeq	r3, {r0, r2}
 5f4:	0b3b0b3a 	bleq	ec32e4 <__bss_end__+0xeb9004>
 5f8:	17021349 	strne	r1, [r2, -r9, asr #6]
 5fc:	2e0c0000 	cdpcs	0, 0, cr0, cr12, cr0, {0}
 600:	3a080301 	bcc	20120c <__bss_end__+0x1f6f2c>
 604:	270b3b0b 	strcs	r3, [fp, -fp, lsl #22]
 608:	11134919 	tstne	r3, r9, lsl r9
 60c:	40061201 	andmi	r1, r6, r1, lsl #4
 610:	19429718 	stmdbne	r2, {r3, r4, r8, r9, sl, ip, pc}^
 614:	00001301 	andeq	r1, r0, r1, lsl #6
 618:	0300050d 	movweq	r0, #1293	; 0x50d
 61c:	3b0b3a0e 	blcc	2cee5c <__bss_end__+0x2c4b7c>
 620:	0213490b 	andseq	r4, r3, #180224	; 0x2c000
 624:	0e000017 	mcreq	0, 0, r0, cr0, cr7, {0}
 628:	0e030005 	cdpeq	0, 0, cr0, cr3, cr5, {0}
 62c:	0b3b0b3a 	bleq	ec331c <__bss_end__+0xeb903c>
 630:	18021349 	stmdane	r2, {r0, r3, r6, r8, r9, ip}
 634:	340f0000 	strcc	r0, [pc], #-0	; 63c <_start-0x79c4>
 638:	3a080300 	bcc	201240 <__bss_end__+0x1f6f60>
 63c:	490b3b0b 	stmdbmi	fp, {r0, r1, r3, r8, r9, fp, ip, sp}
 640:	00180213 	andseq	r0, r8, r3, lsl r2
 644:	00341000 	eorseq	r1, r4, r0
 648:	0b3a0803 	bleq	e8265c <__bss_end__+0xe7837c>
 64c:	13490b3b 	movtne	r0, #39739	; 0x9b3b
 650:	00001702 	andeq	r1, r0, r2, lsl #14
 654:	03003411 	movweq	r3, #1041	; 0x411
 658:	3413490e 	ldrcc	r4, [r3], #-2318	; 0x90e
 65c:	00180219 	andseq	r0, r8, r9, lsl r2
 660:	010b1200 	mrseq	r1, R11_fiq
 664:	06120111 			; <UNDEFINED> instruction: 0x06120111
 668:	00001301 	andeq	r1, r0, r1, lsl #6
 66c:	03003413 	movweq	r3, #1043	; 0x413
 670:	3b0b3a0e 	blcc	2ceeb0 <__bss_end__+0x2c4bd0>
 674:	0213490b 	andseq	r4, r3, #180224	; 0x2c000
 678:	14000017 	strne	r0, [r0], #-23
 67c:	00018289 	andeq	r8, r1, r9, lsl #5
 680:	13310111 	teqne	r1, #1073741828	; 0x40000004
 684:	89150000 	ldmdbhi	r5, {}	; <UNPREDICTABLE>
 688:	11010182 	smlabbne	r1, r2, r1, r0
 68c:	01133101 	tsteq	r3, r1, lsl #2
 690:	16000013 			; <UNDEFINED> instruction: 0x16000013
 694:	0001828a 	andeq	r8, r1, sl, lsl #5
 698:	42911802 	addsmi	r1, r1, #131072	; 0x20000
 69c:	17000018 	smladne	r0, r8, r0, r0
 6a0:	01018289 	smlabbeq	r1, r9, r2, r8
 6a4:	13310111 	teqne	r1, #1073741828	; 0x40000004
 6a8:	01180000 	tsteq	r8, r0
 6ac:	01134901 	tsteq	r3, r1, lsl #18
 6b0:	19000013 	stmdbne	r0, {r0, r1, r4}
 6b4:	13490021 	movtne	r0, #36897	; 0x9021
 6b8:	00000b2f 	andeq	r0, r0, pc, lsr #22
 6bc:	3f012e1a 	svccc	0x00012e1a
 6c0:	3a0e0319 	bcc	38132c <__bss_end__+0x37704c>
 6c4:	270b3b0b 	strcs	r3, [fp, -fp, lsl #22]
 6c8:	12011119 	andne	r1, r1, #1073741830	; 0x40000006
 6cc:	97184006 	ldrls	r4, [r8, -r6]
 6d0:	13011942 	movwne	r1, #6466	; 0x1942
 6d4:	151b0000 	ldrne	r0, [fp, #-0]
 6d8:	49192701 	ldmdbmi	r9, {r0, r8, r9, sl, sp}
 6dc:	00130113 	andseq	r0, r3, r3, lsl r1
 6e0:	00051c00 	andeq	r1, r5, r0, lsl #24
 6e4:	00001349 	andeq	r1, r0, r9, asr #6
 6e8:	3f012e1d 	svccc	0x00012e1d
 6ec:	3a0e0319 	bcc	381358 <__bss_end__+0x377078>
 6f0:	270b3b0b 	strcs	r3, [fp, -fp, lsl #22]
 6f4:	11134919 	tstne	r3, r9, lsl r9
 6f8:	40061201 	andmi	r1, r6, r1, lsl #4
 6fc:	19429718 	stmdbne	r2, {r3, r4, r8, r9, sl, ip, pc}^
 700:	00001301 	andeq	r1, r0, r1, lsl #6
 704:	55010b1e 	strpl	r0, [r1, #-2846]	; 0xb1e
 708:	1f000017 	svcne	0x00000017
 70c:	0e030034 	mcreq	0, 0, r0, cr3, cr4, {1}
 710:	0b3b0b3a 	bleq	ec3400 <__bss_end__+0xeb9120>
 714:	193f1349 	ldmdbne	pc!, {r0, r3, r6, r8, r9, ip}	; <UNPREDICTABLE>
 718:	0000193c 	andeq	r1, r0, ip, lsr r9
 71c:	3f002e20 	svccc	0x00002e20
 720:	3a0e0319 	bcc	38138c <__bss_end__+0x3770ac>
 724:	270b3b0b 	strcs	r3, [fp, -fp, lsl #22]
 728:	00193c19 	andseq	r3, r9, r9, lsl ip
 72c:	012e2100 	teqeq	lr, r0, lsl #2
 730:	0e03193f 	mcreq	9, 0, r1, cr3, cr15, {1}
 734:	0b3b0b3a 	bleq	ec3424 <__bss_end__+0xeb9144>
 738:	13491927 	movtne	r1, #39207	; 0x9927
 73c:	1301193c 	movwne	r1, #6460	; 0x193c
 740:	18220000 	stmdane	r2!, {}	; <UNPREDICTABLE>
 744:	00000000 	andeq	r0, r0, r0
 748:	25011101 	strcs	r1, [r1, #-257]	; 0x101
 74c:	030b130e 	movweq	r1, #45838	; 0xb30e
 750:	110e1b0e 	tstne	lr, lr, lsl #22
 754:	10061201 	andne	r1, r6, r1, lsl #4
 758:	02000017 	andeq	r0, r0, #23
 75c:	0b0b0024 	bleq	2c07f4 <__bss_end__+0x2b6514>
 760:	08030b3e 	stmdaeq	r3, {r1, r2, r3, r4, r5, r8, r9, fp}
 764:	24030000 	strcs	r0, [r3], #-0
 768:	3e0b0b00 	vmlacc.f64	d0, d11, d0
 76c:	000e030b 	andeq	r0, lr, fp, lsl #6
 770:	012e0400 	teqeq	lr, r0, lsl #8
 774:	0e03193f 	mcreq	9, 0, r1, cr3, cr15, {1}
 778:	0b3b0b3a 	bleq	ec3468 <__bss_end__+0xeb9188>
 77c:	01111927 	tsteq	r1, r7, lsr #18
 780:	18400612 	stmdane	r0, {r1, r4, r9, sl}^
 784:	01194297 			; <UNDEFINED> instruction: 0x01194297
 788:	05000013 	streq	r0, [r0, #-19]
 78c:	08030034 	stmdaeq	r3, {r2, r4, r5}
 790:	0b3b0b3a 	bleq	ec3480 <__bss_end__+0xeb91a0>
 794:	17021349 	strne	r1, [r2, -r9, asr #6]
 798:	2e060000 	cdpcs	0, 0, cr0, cr6, cr0, {0}
 79c:	03193f01 	tsteq	r9, #1, 30
 7a0:	3b0b3a0e 	blcc	2cefe0 <__bss_end__+0x2c4d00>
 7a4:	1119270b 	tstne	r9, fp, lsl #14
 7a8:	40061201 	andmi	r1, r6, r1, lsl #4
 7ac:	19429718 	stmdbne	r2, {r3, r4, r8, r9, sl, ip, pc}^
 7b0:	01000000 	mrseq	r0, (UNDEF: 0)
 7b4:	0e250111 	mcreq	1, 1, r0, cr5, cr1, {0}
 7b8:	0e030b13 	vmoveq.32	d3[0], r0
 7bc:	01110e1b 	tsteq	r1, fp, lsl lr
 7c0:	17100612 			; <UNDEFINED> instruction: 0x17100612
 7c4:	24020000 	strcs	r0, [r2], #-0
 7c8:	3e0b0b00 	vmlacc.f64	d0, d11, d0
 7cc:	0008030b 	andeq	r0, r8, fp, lsl #6
 7d0:	00240300 	eoreq	r0, r4, r0, lsl #6
 7d4:	0b3e0b0b 	bleq	f83408 <__bss_end__+0xf79128>
 7d8:	00000e03 	andeq	r0, r0, r3, lsl #28
 7dc:	0b000f04 	bleq	43f4 <_start-0x3c0c>
 7e0:	0013490b 	andseq	r4, r3, fp, lsl #18
 7e4:	00260500 	eoreq	r0, r6, r0, lsl #10
 7e8:	00001349 	andeq	r1, r0, r9, asr #6
 7ec:	3f012e06 	svccc	0x00012e06
 7f0:	3a0e0319 	bcc	38145c <__bss_end__+0x37717c>
 7f4:	270b3b0b 	strcs	r3, [fp, -fp, lsl #22]
 7f8:	12011119 	andne	r1, r1, #1073741830	; 0x40000006
 7fc:	97184006 	ldrls	r4, [r8, -r6]
 800:	13011942 	movwne	r1, #6466	; 0x1942
 804:	89070000 	stmdbhi	r7, {}	; <UNPREDICTABLE>
 808:	11010182 	smlabbne	r1, r2, r1, r0
 80c:	00130101 	andseq	r0, r3, r1, lsl #2
 810:	828a0800 	addhi	r0, sl, #0, 16
 814:	18020001 	stmdane	r2, {r0}
 818:	00184291 	mulseq	r8, r1, r2
 81c:	82890900 	addhi	r0, r9, #0, 18
 820:	01110101 	tsteq	r1, r1, lsl #2
 824:	13011331 	movwne	r1, #4913	; 0x1331
 828:	890a0000 	stmdbhi	sl, {}	; <UNPREDICTABLE>
 82c:	11000182 	smlabbne	r0, r2, r1, r0
 830:	00133101 	andseq	r3, r3, r1, lsl #2
 834:	01150b00 	tsteq	r5, r0, lsl #22
 838:	13491927 	movtne	r1, #39207	; 0x9927
 83c:	00001301 	andeq	r1, r0, r1, lsl #6
 840:	4900050c 	stmdbmi	r0, {r2, r3, r8, sl}
 844:	0d000013 	stceq	0, cr0, [r0, #-76]	; 0xffffffb4
 848:	0e030034 	mcreq	0, 0, r0, cr3, cr4, {1}
 84c:	0b3b0b3a 	bleq	ec353c <__bss_end__+0xeb925c>
 850:	193f1349 	ldmdbne	pc!, {r0, r3, r6, r8, r9, ip}	; <UNPREDICTABLE>
 854:	0000193c 	andeq	r1, r0, ip, lsr r9
 858:	3f012e0e 	svccc	0x00012e0e
 85c:	3a0e0319 	bcc	3814c8 <__bss_end__+0x3771e8>
 860:	270b3b0b 	strcs	r3, [fp, -fp, lsl #22]
 864:	01193c19 	tsteq	r9, r9, lsl ip
 868:	0f000013 	svceq	0x00000013
 86c:	193f002e 	ldmdbne	pc!, {r1, r2, r3, r5}	; <UNPREDICTABLE>
 870:	0b3a0e03 	bleq	e84084 <__bss_end__+0xe79da4>
 874:	19270b3b 	stmdbne	r7!, {r0, r1, r3, r4, r5, r8, r9, fp}
 878:	0000193c 	andeq	r1, r0, ip, lsr r9
 87c:	01110100 	tsteq	r1, r0, lsl #2
 880:	0b130e25 	bleq	4c411c <__bss_end__+0x4b9e3c>
 884:	0e1b0e03 	cdpeq	14, 1, cr0, cr11, cr3, {0}
 888:	06120111 			; <UNDEFINED> instruction: 0x06120111
 88c:	00001710 	andeq	r1, r0, r0, lsl r7
 890:	0b002402 	bleq	98a0 <gpio_set_function+0xac>
 894:	030b3e0b 	movweq	r3, #48651	; 0xbe0b
 898:	03000008 	movweq	r0, #8
 89c:	0b0b0024 	bleq	2c0934 <__bss_end__+0x2b6654>
 8a0:	0e030b3e 	vmoveq.16	d3[0], r0
 8a4:	2e040000 	cdpcs	0, 0, cr0, cr4, cr0, {0}
 8a8:	03193f01 	tsteq	r9, #1, 30
 8ac:	3b0b3a0e 	blcc	2cf0ec <__bss_end__+0x2c4e0c>
 8b0:	1201110b 	andne	r1, r1, #-1073741822	; 0xc0000002
 8b4:	97184006 	ldrls	r4, [r8, -r6]
 8b8:	13011942 	movwne	r1, #6466	; 0x1942
 8bc:	34050000 	strcc	r0, [r5], #-0
 8c0:	3a0e0300 	bcc	3814c8 <__bss_end__+0x3771e8>
 8c4:	490b3b0b 	stmdbmi	fp, {r0, r1, r3, r8, r9, fp, ip, sp}
 8c8:	3c193f13 	ldccc	15, cr3, [r9], {19}
 8cc:	06000019 			; <UNDEFINED> instruction: 0x06000019
 8d0:	193f002e 	ldmdbne	pc!, {r1, r2, r3, r5}	; <UNPREDICTABLE>
 8d4:	0b3a0e03 	bleq	e840e8 <__bss_end__+0xe79e08>
 8d8:	19270b3b 	stmdbne	r7!, {r0, r1, r3, r4, r5, r8, r9, fp}
 8dc:	0000193c 	andeq	r1, r0, ip, lsr r9
 8e0:	03003407 	movweq	r3, #1031	; 0x407
 8e4:	3b0b3a08 	blcc	2cf10c <__bss_end__+0x2c4e2c>
 8e8:	0213490b 	andseq	r4, r3, #180224	; 0x2c000
 8ec:	08000017 	stmdaeq	r0, {r0, r1, r2, r4}
 8f0:	0e030034 	mcreq	0, 0, r0, cr3, cr4, {1}
 8f4:	0b3b0b3a 	bleq	ec35e4 <__bss_end__+0xeb9304>
 8f8:	00001349 	andeq	r1, r0, r9, asr #6
 8fc:	01828909 	orreq	r8, r2, r9, lsl #18
 900:	31011100 	mrscc	r1, (UNDEF: 17)
 904:	0a000013 	beq	958 <_start-0x76a8>
 908:	0b0b000f 	bleq	2c094c <__bss_end__+0x2b666c>
 90c:	00001349 	andeq	r1, r0, r9, asr #6
 910:	01110100 	tsteq	r1, r0, lsl #2
 914:	0b130e25 	bleq	4c41b0 <__bss_end__+0x4b9ed0>
 918:	0e1b0e03 	cdpeq	14, 1, cr0, cr11, cr3, {0}
 91c:	01111755 	tsteq	r1, r5, asr r7
 920:	00001710 	andeq	r1, r0, r0, lsl r7
 924:	0b002402 	bleq	9934 <gpio_int_rising_edge+0x4>
 928:	030b3e0b 	movweq	r3, #48651	; 0xbe0b
 92c:	03000008 	movweq	r0, #8
 930:	0b0b0024 	bleq	2c09c8 <__bss_end__+0x2b66e8>
 934:	0e030b3e 	vmoveq.16	d3[0], r0
 938:	2e040000 	cdpcs	0, 0, cr0, cr4, cr0, {0}
 93c:	03193f01 	tsteq	r9, #1, 30
 940:	3b0b3a0e 	blcc	2cf180 <__bss_end__+0x2c4ea0>
 944:	4919270b 	ldmdbmi	r9, {r0, r1, r3, r8, r9, sl, sp}
 948:	12011113 	andne	r1, r1, #-1073741820	; 0xc0000004
 94c:	97184006 	ldrls	r4, [r8, -r6]
 950:	13011942 	movwne	r1, #6466	; 0x1942
 954:	34050000 	strcc	r0, [r5], #-0
 958:	3a0e0300 	bcc	381560 <__bss_end__+0x377280>
 95c:	490b3b0b 	stmdbmi	fp, {r0, r1, r3, r8, r9, fp, ip, sp}
 960:	00170213 	andseq	r0, r7, r3, lsl r2
 964:	012e0600 	teqeq	lr, r0, lsl #12
 968:	0e03193f 	mcreq	9, 0, r1, cr3, cr15, {1}
 96c:	0b3b0b3a 	bleq	ec365c <__bss_end__+0xeb937c>
 970:	01111927 	tsteq	r1, r7, lsr #18
 974:	18400612 	stmdane	r0, {r1, r4, r9, sl}^
 978:	01194297 			; <UNDEFINED> instruction: 0x01194297
 97c:	07000013 	smladeq	r0, r3, r0, r0
 980:	0e030034 	mcreq	0, 0, r0, cr3, cr4, {1}
 984:	0b3b0b3a 	bleq	ec3674 <__bss_end__+0xeb9394>
 988:	061c1349 	ldreq	r1, [ip], -r9, asr #6
 98c:	34080000 	strcc	r0, [r8], #-0
 990:	3a0e0300 	bcc	381598 <__bss_end__+0x3772b8>
 994:	490b3b0b 	stmdbmi	fp, {r0, r1, r3, r8, r9, fp, ip, sp}
 998:	000b1c13 	andeq	r1, fp, r3, lsl ip
 99c:	82890900 	addhi	r0, r9, #0, 18
 9a0:	01110001 	tsteq	r1, r1
 9a4:	00001331 	andeq	r1, r0, r1, lsr r3
 9a8:	0182890a 	orreq	r8, r2, sl, lsl #18
 9ac:	31011101 	tstcc	r1, r1, lsl #2
 9b0:	00130113 	andseq	r0, r3, r3, lsl r1
 9b4:	828a0b00 	addhi	r0, sl, #0, 22
 9b8:	18020001 	stmdane	r2, {r0}
 9bc:	00184291 	mulseq	r8, r1, r2
 9c0:	82890c00 	addhi	r0, r9, #0, 24
 9c4:	01110101 	tsteq	r1, r1, lsl #2
 9c8:	00001331 	andeq	r1, r0, r1, lsr r3
 9cc:	4900260d 	stmdbmi	r0, {r0, r2, r3, r9, sl, sp}
 9d0:	0e000013 	mcreq	0, 0, r0, cr0, cr3, {0}
 9d4:	193f012e 	ldmdbne	pc!, {r1, r2, r3, r5, r8}	; <UNPREDICTABLE>
 9d8:	0b3a0e03 	bleq	e841ec <__bss_end__+0xe79f0c>
 9dc:	19270b3b 	stmdbne	r7!, {r0, r1, r3, r4, r5, r8, r9, fp}
 9e0:	1301193c 	movwne	r1, #6460	; 0x193c
 9e4:	050f0000 	streq	r0, [pc, #-0]	; 9ec <_start-0x7614>
 9e8:	00134900 	andseq	r4, r3, r0, lsl #18
 9ec:	012e1000 	teqeq	lr, r0
 9f0:	0e03193f 	mcreq	9, 0, r1, cr3, cr15, {1}
 9f4:	0b3b0b3a 	bleq	ec36e4 <__bss_end__+0xeb9404>
 9f8:	193c1927 	ldmdbne	ip!, {r0, r1, r2, r5, r8, fp, ip}
 9fc:	01000000 	mrseq	r0, (UNDEF: 0)
 a00:	0e250111 	mcreq	1, 1, r0, cr5, cr1, {0}
 a04:	0e030b13 	vmoveq.32	d3[0], r0
 a08:	01110e1b 	tsteq	r1, fp, lsl lr
 a0c:	17100612 			; <UNDEFINED> instruction: 0x17100612
 a10:	24020000 	strcs	r0, [r2], #-0
 a14:	3e0b0b00 	vmlacc.f64	d0, d11, d0
 a18:	0008030b 	andeq	r0, r8, fp, lsl #6
 a1c:	00240300 	eoreq	r0, r4, r0, lsl #6
 a20:	0b3e0b0b 	bleq	f83654 <__bss_end__+0xf79374>
 a24:	00000e03 	andeq	r0, r0, r3, lsl #28
 a28:	3f012e04 	svccc	0x00012e04
 a2c:	3a0e0319 	bcc	381698 <__bss_end__+0x3773b8>
 a30:	270b3b0b 	strcs	r3, [fp, -fp, lsl #22]
 a34:	12011119 	andne	r1, r1, #1073741830	; 0x40000006
 a38:	97184006 	ldrls	r4, [r8, -r6]
 a3c:	13011942 	movwne	r1, #6466	; 0x1942
 a40:	05050000 	streq	r0, [r5, #-0]
 a44:	3a0e0300 	bcc	38164c <__bss_end__+0x37736c>
 a48:	490b3b0b 	stmdbmi	fp, {r0, r1, r3, r8, r9, fp, ip, sp}
 a4c:	00170213 	andseq	r0, r7, r3, lsl r2
 a50:	012e0600 	teqeq	lr, r0, lsl #12
 a54:	0e03193f 	mcreq	9, 0, r1, cr3, cr15, {1}
 a58:	0b3b0b3a 	bleq	ec3748 <__bss_end__+0xeb9468>
 a5c:	13491927 	movtne	r1, #39207	; 0x9927
 a60:	06120111 			; <UNDEFINED> instruction: 0x06120111
 a64:	42971840 	addsmi	r1, r7, #64, 16	; 0x400000
 a68:	00130119 	andseq	r0, r3, r9, lsl r1
 a6c:	82890700 	addhi	r0, r9, #0, 14
 a70:	01110101 	tsteq	r1, r1, lsl #2
 a74:	00001331 	andeq	r1, r0, r1, lsr r3
 a78:	01828a08 	orreq	r8, r2, r8, lsl #20
 a7c:	91180200 	tstls	r8, r0, lsl #4
 a80:	00001842 	andeq	r1, r0, r2, asr #16
 a84:	03003409 	movweq	r3, #1033	; 0x409
 a88:	3b0b3a08 	blcc	2cf2b0 <__bss_end__+0x2c4fd0>
 a8c:	0213490b 	andseq	r4, r3, #180224	; 0x2c000
 a90:	0a000018 	beq	af8 <_start-0x7508>
 a94:	00018289 	andeq	r8, r1, r9, lsl #5
 a98:	13310111 	teqne	r1, #1073741828	; 0x40000004
 a9c:	050b0000 	streq	r0, [fp, #-0]
 aa0:	3a080300 	bcc	2016a8 <__bss_end__+0x1f73c8>
 aa4:	490b3b0b 	stmdbmi	fp, {r0, r1, r3, r8, r9, fp, ip, sp}
 aa8:	00170213 	andseq	r0, r7, r3, lsl r2
 aac:	010b0c00 	tsteq	fp, r0, lsl #24
 ab0:	06120111 			; <UNDEFINED> instruction: 0x06120111
 ab4:	00001301 	andeq	r1, r0, r1, lsl #6
 ab8:	0300340d 	movweq	r3, #1037	; 0x40d
 abc:	3b0b3a08 	blcc	2cf2e4 <__bss_end__+0x2c5004>
 ac0:	0213490b 	andseq	r4, r3, #180224	; 0x2c000
 ac4:	0e000017 	mcreq	0, 0, r0, cr0, cr7, {0}
 ac8:	193f012e 	ldmdbne	pc!, {r1, r2, r3, r5, r8}	; <UNPREDICTABLE>
 acc:	0b3a0e03 	bleq	e842e0 <__bss_end__+0xe7a000>
 ad0:	19270b3b 	stmdbne	r7!, {r0, r1, r3, r4, r5, r8, r9, fp}
 ad4:	193c1349 	ldmdbne	ip!, {r0, r3, r6, r8, r9, ip}
 ad8:	050f0000 	streq	r0, [pc, #-0]	; ae0 <_start-0x7520>
 adc:	00134900 	andseq	r4, r3, r0, lsl #18
 ae0:	11010000 	mrsne	r0, (UNDEF: 1)
 ae4:	130e2501 	movwne	r2, #58625	; 0xe501
 ae8:	1b0e030b 	blne	38171c <__bss_end__+0x37743c>
 aec:	1201110e 	andne	r1, r1, #-2147483645	; 0x80000003
 af0:	00171006 	andseq	r1, r7, r6
 af4:	00240200 	eoreq	r0, r4, r0, lsl #4
 af8:	0b3e0b0b 	bleq	f8372c <__bss_end__+0xf7944c>
 afc:	00000e03 	andeq	r0, r0, r3, lsl #28
 b00:	0b002403 	bleq	9b14 <uart_init>
 b04:	030b3e0b 	movweq	r3, #48651	; 0xbe0b
 b08:	04000008 	streq	r0, [r0], #-8
 b0c:	0b0b0104 	bleq	2c0f24 <__bss_end__+0x2b6c44>
 b10:	0b3b0b3a 	bleq	ec3800 <__bss_end__+0xeb9520>
 b14:	00001301 	andeq	r1, r0, r1, lsl #6
 b18:	03002805 	movweq	r2, #2053	; 0x805
 b1c:	000d1c0e 	andeq	r1, sp, lr, lsl #24
 b20:	00160600 	andseq	r0, r6, r0, lsl #12
 b24:	0b3a0e03 	bleq	e84338 <__bss_end__+0xe7a058>
 b28:	13490b3b 	movtne	r0, #39739	; 0x9b3b
 b2c:	2e070000 	cdpcs	0, 0, cr0, cr7, cr0, {0}
 b30:	03193f01 	tsteq	r9, #1, 30
 b34:	3b0b3a0e 	blcc	2cf374 <__bss_end__+0x2c5094>
 b38:	1119270b 	tstne	r9, fp, lsl #14
 b3c:	40061201 	andmi	r1, r6, r1, lsl #4
 b40:	19429718 	stmdbne	r2, {r3, r4, r8, r9, sl, ip, pc}^
 b44:	00001301 	andeq	r1, r0, r1, lsl #6
 b48:	03000508 	movweq	r0, #1288	; 0x508
 b4c:	3b0b3a08 	blcc	2cf374 <__bss_end__+0x2c5094>
 b50:	0213490b 	andseq	r4, r3, #180224	; 0x2c000
 b54:	09000017 	stmdbeq	r0, {r0, r1, r2, r4}
 b58:	0e030034 	mcreq	0, 0, r0, cr3, cr4, {1}
 b5c:	0b3b0b3a 	bleq	ec384c <__bss_end__+0xeb956c>
 b60:	17021349 	strne	r1, [r2, -r9, asr #6]
 b64:	890a0000 	stmdbhi	sl, {}	; <UNPREDICTABLE>
 b68:	11010182 	smlabbne	r1, r2, r1, r0
 b6c:	01133101 	tsteq	r3, r1, lsl #2
 b70:	0b000013 	bleq	bc4 <_start-0x743c>
 b74:	0001828a 	andeq	r8, r1, sl, lsl #5
 b78:	42911802 	addsmi	r1, r1, #131072	; 0x20000
 b7c:	0c000018 	stceq	0, cr0, [r0], {24}
 b80:	01018289 	smlabbeq	r1, r9, r2, r8
 b84:	13310111 	teqne	r1, #1073741828	; 0x40000004
 b88:	0f0d0000 	svceq	0x000d0000
 b8c:	490b0b00 	stmdbmi	fp, {r8, r9, fp}
 b90:	0e000013 	mcreq	0, 0, r0, cr0, cr3, {0}
 b94:	13490035 	movtne	r0, #36917	; 0x9035
 b98:	2e0f0000 	cdpcs	0, 0, cr0, cr15, cr0, {0}
 b9c:	03193f01 	tsteq	r9, #1, 30
 ba0:	3b0b3a0e 	blcc	2cf3e0 <__bss_end__+0x2c5100>
 ba4:	4919270b 	ldmdbmi	r9, {r0, r1, r3, r8, r9, sl, sp}
 ba8:	12011113 	andne	r1, r1, #-1073741820	; 0xc0000004
 bac:	97184006 	ldrls	r4, [r8, -r6]
 bb0:	13011942 	movwne	r1, #6466	; 0x1942
 bb4:	34100000 	ldrcc	r0, [r0], #-0
 bb8:	3a080300 	bcc	2017c0 <__bss_end__+0x1f74e0>
 bbc:	490b3b0b 	stmdbmi	fp, {r0, r1, r3, r8, r9, fp, ip, sp}
 bc0:	00170213 	andseq	r0, r7, r3, lsl r2
 bc4:	82891100 	addhi	r1, r9, #0, 2
 bc8:	01110001 	tsteq	r1, r1
 bcc:	00001331 	andeq	r1, r0, r1, lsr r3
 bd0:	03000512 	movweq	r0, #1298	; 0x512
 bd4:	3b0b3a0e 	blcc	2cf414 <__bss_end__+0x2c5134>
 bd8:	0213490b 	andseq	r4, r3, #180224	; 0x2c000
 bdc:	13000017 	movwne	r0, #23
 be0:	193f012e 	ldmdbne	pc!, {r1, r2, r3, r5, r8}	; <UNPREDICTABLE>
 be4:	0b3a0e03 	bleq	e843f8 <__bss_end__+0xe7a118>
 be8:	1927053b 	stmdbne	r7!, {r0, r1, r3, r4, r5, r8, sl}
 bec:	01111349 	tsteq	r1, r9, asr #6
 bf0:	18400612 	stmdane	r0, {r1, r4, r9, sl}^
 bf4:	01194297 			; <UNDEFINED> instruction: 0x01194297
 bf8:	14000013 	strne	r0, [r0], #-19
 bfc:	0e030005 	cdpeq	0, 0, cr0, cr3, cr5, {0}
 c00:	053b0b3a 	ldreq	r0, [fp, #-2874]!	; 0xb3a
 c04:	17021349 	strne	r1, [r2, -r9, asr #6]
 c08:	2e150000 	cdpcs	0, 1, cr0, cr5, cr0, {0}
 c0c:	03193f01 	tsteq	r9, #1, 30
 c10:	3b0b3a0e 	blcc	2cf450 <__bss_end__+0x2c5170>
 c14:	11192705 	tstne	r9, r5, lsl #14
 c18:	40061201 	andmi	r1, r6, r1, lsl #4
 c1c:	19429718 	stmdbne	r2, {r3, r4, r8, r9, sl, ip, pc}^
 c20:	00001301 	andeq	r1, r0, r1, lsl #6
 c24:	03000516 	movweq	r0, #1302	; 0x516
 c28:	3b0b3a08 	blcc	2cf450 <__bss_end__+0x2c5170>
 c2c:	02134905 	andseq	r4, r3, #81920	; 0x14000
 c30:	17000017 	smladne	r0, r7, r0, r0
 c34:	0e030034 	mcreq	0, 0, r0, cr3, cr4, {1}
 c38:	053b0b3a 	ldreq	r0, [fp, #-2874]!	; 0xb3a
 c3c:	17021349 	strne	r1, [r2, -r9, asr #6]
 c40:	0b180000 	bleq	600c48 <__bss_end__+0x5f6968>
 c44:	12011101 	andne	r1, r1, #1073741824	; 0x40000000
 c48:	00130106 	andseq	r0, r3, r6, lsl #2
 c4c:	00341900 	eorseq	r1, r4, r0, lsl #18
 c50:	0b3a0e03 	bleq	e84464 <__bss_end__+0xe7a184>
 c54:	13490b3b 	movtne	r0, #39739	; 0x9b3b
 c58:	1802193f 	stmdane	r2, {r0, r1, r2, r3, r4, r5, r8, fp, ip}
 c5c:	341a0000 	ldrcc	r0, [sl], #-0
 c60:	3a0e0300 	bcc	381868 <__bss_end__+0x377588>
 c64:	49053b0b 	stmdbmi	r5, {r0, r1, r3, r8, r9, fp, ip, sp}
 c68:	02193f13 	andseq	r3, r9, #19, 30	; 0x4c
 c6c:	1b000018 	blne	cd4 <_start-0x732c>
 c70:	193f012e 	ldmdbne	pc!, {r1, r2, r3, r5, r8}	; <UNPREDICTABLE>
 c74:	0b3a0e03 	bleq	e84488 <__bss_end__+0xe7a1a8>
 c78:	19270b3b 	stmdbne	r7!, {r0, r1, r3, r4, r5, r8, r9, fp}
 c7c:	193c1349 	ldmdbne	ip!, {r0, r3, r6, r8, r9, ip}
 c80:	00001301 	andeq	r1, r0, r1, lsl #6
 c84:	4900051c 	stmdbmi	r0, {r2, r3, r4, r8, sl}
 c88:	1d000013 	stcne	0, cr0, [r0, #-76]	; 0xffffffb4
 c8c:	13490026 	movtne	r0, #36902	; 0x9026
 c90:	351e0000 	ldrcc	r0, [lr, #-0]
 c94:	1f000000 	svcne	0x00000000
 c98:	193f012e 	ldmdbne	pc!, {r1, r2, r3, r5, r8}	; <UNPREDICTABLE>
 c9c:	0b3a0e03 	bleq	e844b0 <__bss_end__+0xe7a1d0>
 ca0:	19270b3b 	stmdbne	r7!, {r0, r1, r3, r4, r5, r8, r9, fp}
 ca4:	1301193c 	movwne	r1, #6460	; 0x193c
 ca8:	2e200000 	cdpcs	0, 2, cr0, cr0, cr0, {0}
 cac:	03193f00 	tsteq	r9, #0, 30
 cb0:	3b0b3a0e 	blcc	2cf4f0 <__bss_end__+0x2c5210>
 cb4:	3c19270b 	ldccc	7, cr2, [r9], {11}
 cb8:	00000019 	andeq	r0, r0, r9, lsl r0
 cbc:	25011101 	strcs	r1, [r1, #-257]	; 0x101
 cc0:	030b130e 	movweq	r1, #45838	; 0xb30e
 cc4:	110e1b0e 	tstne	lr, lr, lsl #22
 cc8:	10061201 	andne	r1, r6, r1, lsl #4
 ccc:	02000017 	andeq	r0, r0, #23
 cd0:	0b0b0024 	bleq	2c0d68 <__bss_end__+0x2b6a88>
 cd4:	08030b3e 	stmdaeq	r3, {r1, r2, r3, r4, r5, r8, r9, fp}
 cd8:	24030000 	strcs	r0, [r3], #-0
 cdc:	3e0b0b00 	vmlacc.f64	d0, d11, d0
 ce0:	000e030b 	andeq	r0, lr, fp, lsl #6
 ce4:	01040400 	tsteq	r4, r0, lsl #8
 ce8:	0b3a0b0b 	bleq	e8391c <__bss_end__+0xe7963c>
 cec:	13010b3b 	movwne	r0, #6971	; 0x1b3b
 cf0:	28050000 	stmdacs	r5, {}	; <UNPREDICTABLE>
 cf4:	1c0e0300 	stcne	3, cr0, [lr], {-0}
 cf8:	0600000d 	streq	r0, [r0], -sp
 cfc:	0e030016 	mcreq	0, 0, r0, cr3, cr6, {0}
 d00:	0b3b0b3a 	bleq	ec39f0 <__bss_end__+0xeb9710>
 d04:	00001349 	andeq	r1, r0, r9, asr #6
 d08:	3f012e07 	svccc	0x00012e07
 d0c:	3a0e0319 	bcc	381978 <__bss_end__+0x377698>
 d10:	270b3b0b 	strcs	r3, [fp, -fp, lsl #22]
 d14:	12011119 	andne	r1, r1, #1073741830	; 0x40000006
 d18:	97184006 	ldrls	r4, [r8, -r6]
 d1c:	13011942 	movwne	r1, #6466	; 0x1942
 d20:	89080000 	stmdbhi	r8, {}	; <UNPREDICTABLE>
 d24:	11000182 	smlabbne	r0, r2, r1, r0
 d28:	00133101 	andseq	r3, r3, r1, lsl #2
 d2c:	82890900 	addhi	r0, r9, #0, 18
 d30:	01110101 	tsteq	r1, r1, lsl #2
 d34:	13011331 	movwne	r1, #4913	; 0x1331
 d38:	8a0a0000 	bhi	280d40 <__bss_end__+0x276a60>
 d3c:	02000182 	andeq	r0, r0, #-2147483616	; 0x80000020
 d40:	18429118 	stmdane	r2, {r3, r4, r8, ip, pc}^
 d44:	2e0b0000 	cdpcs	0, 0, cr0, cr11, cr0, {0}
 d48:	03193f01 	tsteq	r9, #1, 30
 d4c:	3b0b3a0e 	blcc	2cf58c <__bss_end__+0x2c52ac>
 d50:	4919270b 	ldmdbmi	r9, {r0, r1, r3, r8, r9, sl, sp}
 d54:	12011113 	andne	r1, r1, #-1073741820	; 0xc0000004
 d58:	97184006 	ldrls	r4, [r8, -r6]
 d5c:	13011942 	movwne	r1, #6466	; 0x1942
 d60:	050c0000 	streq	r0, [ip, #-0]
 d64:	3a080300 	bcc	20196c <__bss_end__+0x1f768c>
 d68:	490b3b0b 	stmdbmi	fp, {r0, r1, r3, r8, r9, fp, ip, sp}
 d6c:	00170213 	andseq	r0, r7, r3, lsl r2
 d70:	82890d00 	addhi	r0, r9, #0, 26
 d74:	01110101 	tsteq	r1, r1, lsl #2
 d78:	00001331 	andeq	r1, r0, r1, lsr r3
 d7c:	0300340e 	movweq	r3, #1038	; 0x40e
 d80:	3b0b3a0e 	blcc	2cf5c0 <__bss_end__+0x2c52e0>
 d84:	3f13490b 	svccc	0x0013490b
 d88:	00180219 	andseq	r0, r8, r9, lsl r2
 d8c:	000f0f00 	andeq	r0, pc, r0, lsl #30
 d90:	13490b0b 	movtne	r0, #39691	; 0x9b0b
 d94:	35100000 	ldrcc	r0, [r0, #-0]
 d98:	00134900 	andseq	r4, r3, r0, lsl #18
 d9c:	002e1100 	eoreq	r1, lr, r0, lsl #2
 da0:	0e03193f 	mcreq	9, 0, r1, cr3, cr15, {1}
 da4:	0b3b0b3a 	bleq	ec3a94 <__bss_end__+0xeb97b4>
 da8:	193c1927 	ldmdbne	ip!, {r0, r1, r2, r5, r8, fp, ip}
 dac:	2e120000 	cdpcs	0, 1, cr0, cr2, cr0, {0}
 db0:	03193f01 	tsteq	r9, #1, 30
 db4:	3b0b3a0e 	blcc	2cf5f4 <__bss_end__+0x2c5314>
 db8:	3c19270b 	ldccc	7, cr2, [r9], {11}
 dbc:	00130119 	andseq	r0, r3, r9, lsl r1
 dc0:	00051300 	andeq	r1, r5, r0, lsl #6
 dc4:	00001349 	andeq	r1, r0, r9, asr #6
 dc8:	3f012e14 	svccc	0x00012e14
 dcc:	3a0e0319 	bcc	381a38 <__bss_end__+0x377758>
 dd0:	270b3b0b 	strcs	r3, [fp, -fp, lsl #22]
 dd4:	3c134919 	ldccc	9, cr4, [r3], {25}
 dd8:	00130119 	andseq	r0, r3, r9, lsl r1
 ddc:	00261500 	eoreq	r1, r6, r0, lsl #10
 de0:	00001349 	andeq	r1, r0, r9, asr #6
 de4:	00003516 	andeq	r3, r0, r6, lsl r5
	...

Disassembly of section .debug_loc:

00000000 <.debug_loc>:
       0:	00000000 	andeq	r0, r0, r0
       4:	0000021c 	andeq	r0, r0, ip, lsl r2
       8:	1c500001 	mrrcne	0, 0, r0, r0, cr1	; <UNPREDICTABLE>
       c:	98000002 	stmdals	r0, {r1}
      10:	04000002 	streq	r0, [r0], #-2
      14:	5001f300 	andpl	pc, r1, r0, lsl #6
      18:	0000009f 	muleq	r0, pc, r0	; <UNPREDICTABLE>
      1c:	00000000 	andeq	r0, r0, r0
      20:	00003000 	andeq	r3, r0, r0
      24:	00003800 	andeq	r3, r0, r0, lsl #16
      28:	55000100 	strpl	r0, [r0, #-256]	; 0x100
      2c:	00000038 	andeq	r0, r0, r8, lsr r0
      30:	00000040 	andeq	r0, r0, r0, asr #32
      34:	d0030005 	andle	r0, r3, r5
      38:	0000009e 	muleq	r0, lr, r0
      3c:	00000000 	andeq	r0, r0, r0
      40:	44000000 	strmi	r0, [r0], #-0
      44:	48000000 	stmdami	r0, {}	; <UNPREDICTABLE>
      48:	01000000 	mrseq	r0, (UNDEF: 0)
      4c:	00005200 	andeq	r5, r0, r0, lsl #4
      50:	00000000 	andeq	r0, r0, r0
      54:	005c0000 	subseq	r0, ip, r0
      58:	021c0000 	andseq	r0, ip, #0
      5c:	00090000 	andeq	r0, r9, r0
      60:	80090070 	andhi	r0, r9, r0, ror r0
      64:	1aff081a 	bne	fffc20d4 <__bss_end__+0xfffb7df4>
      68:	0000009f 	muleq	r0, pc, r0	; <UNPREDICTABLE>
      6c:	00000000 	andeq	r0, r0, r0
      70:	00005c00 	andeq	r5, r0, r0, lsl #24
      74:	00006c00 	andeq	r6, r0, r0, lsl #24
      78:	52000100 	andpl	r0, r0, #0, 2
      7c:	0000006c 	andeq	r0, r0, ip, rrx
      80:	00000278 	andeq	r0, r0, r8, ror r2
      84:	d0030005 	andle	r0, r3, r5
      88:	0000009e 	muleq	r0, lr, r0
      8c:	00000000 	andeq	r0, r0, r0
      90:	5c000000 	stcpl	0, cr0, [r0], {-0}
      94:	9c000000 	stcls	0, cr0, [r0], {-0}
      98:	09000000 	stmdbeq	r0, {}	; <UNPREDICTABLE>
      9c:	09007000 	stmdbeq	r0, {ip, sp, lr}
      a0:	ff081a80 			; <UNDEFINED> instruction: 0xff081a80
      a4:	009c9f1a 	addseq	r9, ip, sl, lsl pc
      a8:	00dc0000 	sbcseq	r0, ip, r0
      ac:	00090000 	andeq	r0, r9, r0
      b0:	40080070 	andmi	r0, r8, r0, ror r0
      b4:	1aff081a 	bne	fffc2124 <__bss_end__+0xfffb7e44>
      b8:	0000dc9f 	muleq	r0, pc, ip	; <UNPREDICTABLE>
      bc:	00011c00 	andeq	r1, r1, r0, lsl #24
      c0:	70000900 	andvc	r0, r0, r0, lsl #18
      c4:	1a200800 	bne	8020cc <__bss_end__+0x7f7dec>
      c8:	9f1aff08 	svcls	0x001aff08
      cc:	0000011c 	andeq	r0, r0, ip, lsl r1
      d0:	0000015c 	andeq	r0, r0, ip, asr r1
      d4:	00700008 	rsbseq	r0, r0, r8
      d8:	ff081a40 			; <UNDEFINED> instruction: 0xff081a40
      dc:	015c9f1a 	cmpeq	ip, sl, lsl pc
      e0:	01a00000 	moveq	r0, r0
      e4:	00080000 	andeq	r0, r8, r0
      e8:	1a380070 	bne	e002b0 <__bss_end__+0xdf5fd0>
      ec:	9f1aff08 	svcls	0x001aff08
      f0:	000001a0 	andeq	r0, r0, r0, lsr #3
      f4:	000001e0 	andeq	r0, r0, r0, ror #3
      f8:	00700008 	rsbseq	r0, r0, r8
      fc:	ff081a34 			; <UNDEFINED> instruction: 0xff081a34
     100:	01e09f1a 	mvneq	r9, sl, lsl pc
     104:	021c0000 	andseq	r0, ip, #0
     108:	00080000 	andeq	r0, r8, r0
     10c:	1a320070 	bne	c802d4 <__bss_end__+0xc75ff4>
     110:	9f1aff08 	svcls	0x001aff08
	...
     11c:	00000084 	andeq	r0, r0, r4, lsl #1
     120:	00000088 	andeq	r0, r0, r8, lsl #1
     124:	00520001 	subseq	r0, r2, r1
     128:	00000000 	andeq	r0, r0, r0
     12c:	9c000000 	stcls	0, cr0, [r0], {-0}
     130:	1c000000 	stcne	0, cr0, [r0], {-0}
     134:	09000002 	stmdbeq	r0, {r1}
     138:	08007000 	stmdaeq	r0, {ip, sp, lr}
     13c:	ff081a40 			; <UNDEFINED> instruction: 0xff081a40
     140:	00009f1a 	andeq	r9, r0, sl, lsl pc
     144:	00000000 	andeq	r0, r0, r0
     148:	009c0000 	addseq	r0, ip, r0
     14c:	00ac0000 	adceq	r0, ip, r0
     150:	00010000 	andeq	r0, r1, r0
     154:	0000ac52 	andeq	sl, r0, r2, asr ip
     158:	00027800 	andeq	r7, r2, r0, lsl #16
     15c:	03000500 	movweq	r0, #1280	; 0x500
     160:	00009ed0 	ldrdeq	r9, [r0], -r0
	...
     16c:	0000009c 	muleq	r0, ip, r0
     170:	000000dc 	ldrdeq	r0, [r0], -ip
     174:	00700009 	rsbseq	r0, r0, r9
     178:	081a4008 	ldmdaeq	sl, {r3, lr}
     17c:	dc9f1aff 	vldmiale	pc, {s2-s256}
     180:	1c000000 	stcne	0, cr0, [r0], {-0}
     184:	09000001 	stmdbeq	r0, {r0}
     188:	08007000 	stmdaeq	r0, {ip, sp, lr}
     18c:	ff081a20 			; <UNDEFINED> instruction: 0xff081a20
     190:	011c9f1a 	tsteq	ip, sl, lsl pc
     194:	015c0000 	cmpeq	ip, r0
     198:	00080000 	andeq	r0, r8, r0
     19c:	1a400070 	bne	1000364 <__bss_end__+0xff6084>
     1a0:	9f1aff08 	svcls	0x001aff08
     1a4:	0000015c 	andeq	r0, r0, ip, asr r1
     1a8:	000001a0 	andeq	r0, r0, r0, lsr #3
     1ac:	00700008 	rsbseq	r0, r0, r8
     1b0:	ff081a38 			; <UNDEFINED> instruction: 0xff081a38
     1b4:	01a09f1a 	lsleq	r9, sl, pc
     1b8:	01e00000 	mvneq	r0, r0
     1bc:	00080000 	andeq	r0, r8, r0
     1c0:	1a340070 	bne	d00388 <__bss_end__+0xcf60a8>
     1c4:	9f1aff08 	svcls	0x001aff08
     1c8:	000001e0 	andeq	r0, r0, r0, ror #3
     1cc:	0000021c 	andeq	r0, r0, ip, lsl r2
     1d0:	00700008 	rsbseq	r0, r0, r8
     1d4:	ff081a32 			; <UNDEFINED> instruction: 0xff081a32
     1d8:	00009f1a 	andeq	r9, r0, sl, lsl pc
     1dc:	00000000 	andeq	r0, r0, r0
     1e0:	00c40000 	sbceq	r0, r4, r0
     1e4:	00c80000 	sbceq	r0, r8, r0
     1e8:	00010000 	andeq	r0, r1, r0
     1ec:	00000052 	andeq	r0, r0, r2, asr r0
     1f0:	00000000 	andeq	r0, r0, r0
     1f4:	0000dc00 	andeq	sp, r0, r0, lsl #24
     1f8:	00021c00 	andeq	r1, r2, r0, lsl #24
     1fc:	70000900 	andvc	r0, r0, r0, lsl #18
     200:	1a200800 	bne	802208 <__bss_end__+0x7f7f28>
     204:	9f1aff08 	svcls	0x001aff08
	...
     210:	000000dc 	ldrdeq	r0, [r0], -ip
     214:	000000ec 	andeq	r0, r0, ip, ror #1
     218:	ec520001 	mrrc	0, 0, r0, r2, cr1
     21c:	78000000 	stmdavc	r0, {}	; <UNPREDICTABLE>
     220:	05000002 	streq	r0, [r0, #-2]
     224:	9ed00300 	cdpls	3, 13, cr0, cr0, cr0, {0}
	...
     230:	00dc0000 	sbcseq	r0, ip, r0
     234:	011c0000 	tsteq	ip, r0
     238:	00090000 	andeq	r0, r9, r0
     23c:	20080070 	andcs	r0, r8, r0, ror r0
     240:	1aff081a 	bne	fffc22b0 <__bss_end__+0xfffb7fd0>
     244:	00011c9f 	muleq	r1, pc, ip	; <UNPREDICTABLE>
     248:	00015c00 	andeq	r5, r1, r0, lsl #24
     24c:	70000800 	andvc	r0, r0, r0, lsl #16
     250:	081a4000 	ldmdaeq	sl, {lr}
     254:	5c9f1aff 	vldmiapl	pc, {s2-s256}
     258:	a0000001 	andge	r0, r0, r1
     25c:	08000001 	stmdaeq	r0, {r0}
     260:	38007000 	stmdacc	r0, {ip, sp, lr}
     264:	1aff081a 	bne	fffc22d4 <__bss_end__+0xfffb7ff4>
     268:	0001a09f 	muleq	r1, pc, r0	; <UNPREDICTABLE>
     26c:	0001e000 	andeq	lr, r1, r0
     270:	70000800 	andvc	r0, r0, r0, lsl #16
     274:	081a3400 	ldmdaeq	sl, {sl, ip, sp}
     278:	e09f1aff 			; <UNDEFINED> instruction: 0xe09f1aff
     27c:	1c000001 	stcne	0, cr0, [r0], {1}
     280:	08000002 	stmdaeq	r0, {r1}
     284:	32007000 	andcc	r7, r0, #0
     288:	1aff081a 	bne	fffc22f8 <__bss_end__+0xfffb8018>
     28c:	0000009f 	muleq	r0, pc, r0	; <UNPREDICTABLE>
     290:	00000000 	andeq	r0, r0, r0
     294:	00010400 	andeq	r0, r1, r0, lsl #8
     298:	00010800 	andeq	r0, r1, r0, lsl #16
     29c:	52000100 	andpl	r0, r0, #0, 2
	...
     2a8:	0000011c 	andeq	r0, r0, ip, lsl r1
     2ac:	0000021c 	andeq	r0, r0, ip, lsl r2
     2b0:	00700008 	rsbseq	r0, r0, r8
     2b4:	ff081a40 			; <UNDEFINED> instruction: 0xff081a40
     2b8:	00009f1a 	andeq	r9, r0, sl, lsl pc
     2bc:	00000000 	andeq	r0, r0, r0
     2c0:	011c0000 	tsteq	ip, r0
     2c4:	012c0000 	teqeq	ip, r0
     2c8:	00010000 	andeq	r0, r1, r0
     2cc:	00012c52 	andeq	r2, r1, r2, asr ip
     2d0:	00027800 	andeq	r7, r2, r0, lsl #16
     2d4:	03000500 	movweq	r0, #1280	; 0x500
     2d8:	00009ed0 	ldrdeq	r9, [r0], -r0
	...
     2e4:	0000011c 	andeq	r0, r0, ip, lsl r1
     2e8:	0000015c 	andeq	r0, r0, ip, asr r1
     2ec:	00700008 	rsbseq	r0, r0, r8
     2f0:	ff081a40 			; <UNDEFINED> instruction: 0xff081a40
     2f4:	015c9f1a 	cmpeq	ip, sl, lsl pc
     2f8:	01a00000 	moveq	r0, r0
     2fc:	00080000 	andeq	r0, r8, r0
     300:	1a380070 	bne	e004c8 <__bss_end__+0xdf61e8>
     304:	9f1aff08 	svcls	0x001aff08
     308:	000001a0 	andeq	r0, r0, r0, lsr #3
     30c:	000001e0 	andeq	r0, r0, r0, ror #3
     310:	00700008 	rsbseq	r0, r0, r8
     314:	ff081a34 			; <UNDEFINED> instruction: 0xff081a34
     318:	01e09f1a 	mvneq	r9, sl, lsl pc
     31c:	021c0000 	andseq	r0, ip, #0
     320:	00080000 	andeq	r0, r8, r0
     324:	1a320070 	bne	c804ec <__bss_end__+0xc7620c>
     328:	9f1aff08 	svcls	0x001aff08
	...
     334:	00000144 	andeq	r0, r0, r4, asr #2
     338:	00000148 	andeq	r0, r0, r8, asr #2
     33c:	00520001 	subseq	r0, r2, r1
     340:	00000000 	andeq	r0, r0, r0
     344:	5c000000 	stcpl	0, cr0, [r0], {-0}
     348:	1c000001 	stcne	0, cr0, [r0], {1}
     34c:	08000002 	stmdaeq	r0, {r1}
     350:	38007000 	stmdacc	r0, {ip, sp, lr}
     354:	1aff081a 	bne	fffc23c4 <__bss_end__+0xfffb80e4>
     358:	0000009f 	muleq	r0, pc, r0	; <UNPREDICTABLE>
     35c:	00000000 	andeq	r0, r0, r0
     360:	00015c00 	andeq	r5, r1, r0, lsl #24
     364:	00016c00 	andeq	r6, r1, r0, lsl #24
     368:	52000100 	andpl	r0, r0, #0, 2
     36c:	0000016c 	andeq	r0, r0, ip, ror #2
     370:	00000278 	andeq	r0, r0, r8, ror r2
     374:	d0030005 	andle	r0, r3, r5
     378:	0000009e 	muleq	r0, lr, r0
     37c:	00000000 	andeq	r0, r0, r0
     380:	5c000000 	stcpl	0, cr0, [r0], {-0}
     384:	a0000001 	andge	r0, r0, r1
     388:	08000001 	stmdaeq	r0, {r0}
     38c:	38007000 	stmdacc	r0, {ip, sp, lr}
     390:	1aff081a 	bne	fffc2400 <__bss_end__+0xfffb8120>
     394:	0001a09f 	muleq	r1, pc, r0	; <UNPREDICTABLE>
     398:	0001e000 	andeq	lr, r1, r0
     39c:	70000800 	andvc	r0, r0, r0, lsl #16
     3a0:	081a3400 	ldmdaeq	sl, {sl, ip, sp}
     3a4:	e09f1aff 			; <UNDEFINED> instruction: 0xe09f1aff
     3a8:	1c000001 	stcne	0, cr0, [r0], {1}
     3ac:	08000002 	stmdaeq	r0, {r1}
     3b0:	32007000 	andcc	r7, r0, #0
     3b4:	1aff081a 	bne	fffc2424 <__bss_end__+0xfffb8144>
     3b8:	0000009f 	muleq	r0, pc, r0	; <UNPREDICTABLE>
     3bc:	00000000 	andeq	r0, r0, r0
     3c0:	00018800 	andeq	r8, r1, r0, lsl #16
     3c4:	00018c00 	andeq	r8, r1, r0, lsl #24
     3c8:	52000100 	andpl	r0, r0, #0, 2
	...
     3d4:	000001a0 	andeq	r0, r0, r0, lsr #3
     3d8:	0000021c 	andeq	r0, r0, ip, lsl r2
     3dc:	00700008 	rsbseq	r0, r0, r8
     3e0:	ff081a34 			; <UNDEFINED> instruction: 0xff081a34
     3e4:	00009f1a 	andeq	r9, r0, sl, lsl pc
     3e8:	00000000 	andeq	r0, r0, r0
     3ec:	01a00000 	moveq	r0, r0
     3f0:	01b00000 	movseq	r0, r0
     3f4:	00010000 	andeq	r0, r1, r0
     3f8:	0001b052 	andeq	fp, r1, r2, asr r0
     3fc:	00027800 	andeq	r7, r2, r0, lsl #16
     400:	03000500 	movweq	r0, #1280	; 0x500
     404:	00009ed0 	ldrdeq	r9, [r0], -r0
	...
     410:	000001a0 	andeq	r0, r0, r0, lsr #3
     414:	000001e0 	andeq	r0, r0, r0, ror #3
     418:	00700008 	rsbseq	r0, r0, r8
     41c:	ff081a34 			; <UNDEFINED> instruction: 0xff081a34
     420:	01e09f1a 	mvneq	r9, sl, lsl pc
     424:	021c0000 	andseq	r0, ip, #0
     428:	00080000 	andeq	r0, r8, r0
     42c:	1a320070 	bne	c805f4 <__bss_end__+0xc76314>
     430:	9f1aff08 	svcls	0x001aff08
	...
     43c:	000001c8 	andeq	r0, r0, r8, asr #3
     440:	000001cc 	andeq	r0, r0, ip, asr #3
     444:	00520001 	subseq	r0, r2, r1
     448:	00000000 	andeq	r0, r0, r0
     44c:	e0000000 	and	r0, r0, r0
     450:	1c000001 	stcne	0, cr0, [r0], {1}
     454:	08000002 	stmdaeq	r0, {r1}
     458:	32007000 	andcc	r7, r0, #0
     45c:	1aff081a 	bne	fffc24cc <__bss_end__+0xfffb81ec>
     460:	0000009f 	muleq	r0, pc, r0	; <UNPREDICTABLE>
     464:	00000000 	andeq	r0, r0, r0
     468:	0001e000 	andeq	lr, r1, r0
     46c:	0001f000 	andeq	pc, r1, r0
     470:	52000100 	andpl	r0, r0, #0, 2
     474:	000001f0 	strdeq	r0, [r0], -r0	; <UNPREDICTABLE>
     478:	00000278 	andeq	r0, r0, r8, ror r2
     47c:	d0030005 	andle	r0, r3, r5
     480:	0000009e 	muleq	r0, lr, r0
     484:	00000000 	andeq	r0, r0, r0
     488:	08000000 	stmdaeq	r0, {}	; <UNPREDICTABLE>
     48c:	0c000002 	stceq	0, cr0, [r0], {2}
     490:	01000002 	tsteq	r0, r2
     494:	00005200 	andeq	r5, r0, r0, lsl #4
     498:	00000000 	andeq	r0, r0, r0
     49c:	02200000 	eoreq	r0, r0, #0
     4a0:	02300000 	eorseq	r0, r0, #0
     4a4:	00010000 	andeq	r0, r1, r0
     4a8:	00023052 	andeq	r3, r2, r2, asr r0
     4ac:	00027800 	andeq	r7, r2, r0, lsl #16
     4b0:	03000500 	movweq	r0, #1280	; 0x500
     4b4:	00009ed0 	ldrdeq	r9, [r0], -r0
	...
     4c0:	00000248 	andeq	r0, r0, r8, asr #4
     4c4:	0000024c 	andeq	r0, r0, ip, asr #4
     4c8:	00520001 	subseq	r0, r2, r1
     4cc:	00000000 	andeq	r0, r0, r0
     4d0:	54000000 	strpl	r0, [r0], #-0
     4d4:	78000002 	stmdavc	r0, {r1}
     4d8:	05000002 	streq	r0, [r0, #-2]
     4dc:	9ed00300 	cdpls	3, 13, cr0, cr0, cr0, {0}
	...
     4e8:	027c0000 	rsbseq	r0, ip, #0
     4ec:	02800000 	addeq	r0, r0, #0
     4f0:	00010000 	andeq	r0, r1, r0
     4f4:	00000052 	andeq	r0, r0, r2, asr r0
     4f8:	00000000 	andeq	r0, r0, r0
     4fc:	00029800 	andeq	r9, r2, r0, lsl #16
     500:	0002b000 	andeq	fp, r2, r0
     504:	50000100 	andpl	r0, r0, r0, lsl #2
     508:	000002b0 			; <UNDEFINED> instruction: 0x000002b0
     50c:	000002c0 	andeq	r0, r0, r0, asr #5
     510:	01f30004 	mvnseq	r0, r4
     514:	02c09f50 	sbceq	r9, r0, #80, 30	; 0x140
     518:	02c30000 	sbceq	r0, r3, #0
     51c:	00010000 	andeq	r0, r1, r0
     520:	0002c350 	andeq	ip, r2, r0, asr r3
     524:	0002e800 	andeq	lr, r2, r0, lsl #16
     528:	f3000400 	vshl.u8	d0, d0, d0
     52c:	009f5001 	addseq	r5, pc, r1
     530:	00000000 	andeq	r0, r0, r0
     534:	b8000000 	stmdalt	r0, {}	; <UNPREDICTABLE>
     538:	bc000002 	stclt	0, cr0, [r0], {2}
     53c:	01000002 	tsteq	r0, r2
     540:	00005000 	andeq	r5, r0, r0
     544:	00000000 	andeq	r0, r0, r0
     548:	02e80000 	rsceq	r0, r8, #0
     54c:	03700000 	cmneq	r0, #0
     550:	00010000 	andeq	r0, r1, r0
     554:	00037050 	andeq	r7, r3, r0, asr r0
     558:	0004ac00 	andeq	sl, r4, r0, lsl #24
     55c:	f3000400 	vshl.u8	d0, d0, d0
     560:	009f5001 	addseq	r5, pc, r1
     564:	00000000 	andeq	r0, r0, r0
     568:	e8000000 	stmda	r0, {}	; <UNPREDICTABLE>
     56c:	54000002 	strpl	r0, [r0], #-2
     570:	02000003 	andeq	r0, r0, #3
     574:	549f3000 	ldrpl	r3, [pc], #0	; 57c <_start-0x7a84>
     578:	80000003 	andhi	r0, r0, r3
     57c:	01000003 	tsteq	r0, r3
     580:	03805700 	orreq	r5, r0, #0, 14
     584:	03b00000 	movseq	r0, #0
     588:	00060000 	andeq	r0, r6, r0
     58c:	00700077 	rsbseq	r0, r0, r7, ror r0
     590:	03b09f21 	movseq	r9, #33, 30	; 0x84
     594:	03dc0000 	bicseq	r0, ip, #0
     598:	00010000 	andeq	r0, r1, r0
     59c:	0003dc56 	andeq	sp, r3, r6, asr ip
     5a0:	00040800 	andeq	r0, r4, r0, lsl #16
     5a4:	50000100 	andpl	r0, r0, r0, lsl #2
     5a8:	00000408 	andeq	r0, r0, r8, lsl #8
     5ac:	00000434 	andeq	r0, r0, r4, lsr r4
     5b0:	34570001 	ldrbcc	r0, [r7], #-1
     5b4:	60000004 	andvs	r0, r0, r4
     5b8:	01000004 	tsteq	r0, r4
     5bc:	04605600 	strbteq	r5, [r0], #-1536	; 0x600
     5c0:	04ac0000 	strteq	r0, [ip], #0
     5c4:	00010000 	andeq	r0, r1, r0
     5c8:	00000050 	andeq	r0, r0, r0, asr r0
     5cc:	00000000 	andeq	r0, r0, r0
     5d0:	00030400 	andeq	r0, r3, r0, lsl #8
     5d4:	00032c00 	andeq	r2, r3, r0, lsl #24
     5d8:	55000100 	strpl	r0, [r0, #-256]	; 0x100
     5dc:	0000032c 	andeq	r0, r0, ip, lsr #6
     5e0:	00000478 	andeq	r0, r0, r8, ror r4
     5e4:	00740005 	rsbseq	r0, r4, r5
     5e8:	789f2531 	ldmvc	pc, {r0, r4, r5, r8, sl, sp}	; <UNPREDICTABLE>
     5ec:	ac000004 	stcge	0, cr0, [r0], {4}
     5f0:	09000004 	stmdbeq	r0, {r2}
     5f4:	5001f300 	andpl	pc, r1, r0, lsl #6
     5f8:	31060c23 	tstcc	r6, r3, lsr #24
     5fc:	00009f25 	andeq	r9, r0, r5, lsr #30
     600:	00000000 	andeq	r0, r0, r0
     604:	031c0000 	tsteq	ip, #0
     608:	03200000 	teqeq	r0, #0
     60c:	00010000 	andeq	r0, r1, r0
     610:	00000052 	andeq	r0, r0, r2, asr r0
     614:	00000000 	andeq	r0, r0, r0
     618:	00033000 	andeq	r3, r3, r0
     61c:	00033400 	andeq	r3, r3, r0, lsl #8
     620:	52000100 	andpl	r0, r0, #0, 2
	...
     62c:	00000358 	andeq	r0, r0, r8, asr r3
     630:	0000035c 	andeq	r0, r0, ip, asr r3
     634:	00520001 	subseq	r0, r2, r1
     638:	00000000 	andeq	r0, r0, r0
     63c:	84000000 	strhi	r0, [r0], #-0
     640:	88000003 	stmdahi	r0, {r0, r1}
     644:	01000003 	tsteq	r0, r3
     648:	00005200 	andeq	r5, r0, r0, lsl #4
     64c:	00000000 	andeq	r0, r0, r0
     650:	03b40000 			; <UNDEFINED> instruction: 0x03b40000
     654:	03b80000 			; <UNDEFINED> instruction: 0x03b80000
     658:	00010000 	andeq	r0, r1, r0
     65c:	00000052 	andeq	r0, r0, r2, asr r0
     660:	00000000 	andeq	r0, r0, r0
     664:	0003e000 	andeq	lr, r3, r0
     668:	0003e400 	andeq	lr, r3, r0, lsl #8
     66c:	52000100 	andpl	r0, r0, #0, 2
	...
     678:	0000040c 	andeq	r0, r0, ip, lsl #8
     67c:	00000410 	andeq	r0, r0, r0, lsl r4
     680:	00520001 	subseq	r0, r2, r1
     684:	00000000 	andeq	r0, r0, r0
     688:	38000000 	stmdacc	r0, {}	; <UNPREDICTABLE>
     68c:	3c000004 	stccc	0, cr0, [r0], {4}
     690:	01000004 	tsteq	r0, r4
     694:	00005200 	andeq	r5, r0, r0, lsl #4
     698:	00000000 	andeq	r0, r0, r0
     69c:	04640000 	strbteq	r0, [r4], #-0
     6a0:	04680000 	strbteq	r0, [r8], #-0
     6a4:	00010000 	andeq	r0, r1, r0
     6a8:	00000052 	andeq	r0, r0, r2, asr r0
     6ac:	00000000 	andeq	r0, r0, r0
     6b0:	00049400 	andeq	r9, r4, r0, lsl #8
     6b4:	00049800 	andeq	r9, r4, r0, lsl #16
     6b8:	52000100 	andpl	r0, r0, #0, 2
	...
     6c4:	000004ac 	andeq	r0, r0, ip, lsr #9
     6c8:	000006c4 	andeq	r0, r0, r4, asr #13
     6cc:	c4510001 	ldrbgt	r0, [r1], #-1
     6d0:	3c000006 	stccc	0, cr0, [r0], {6}
     6d4:	04000007 	streq	r0, [r0], #-7
     6d8:	5101f300 	mrspl	pc, SP_irq	; <UNPREDICTABLE>
     6dc:	0000009f 	muleq	r0, pc, r0	; <UNPREDICTABLE>
     6e0:	00000000 	andeq	r0, r0, r0
     6e4:	0004d800 	andeq	sp, r4, r0, lsl #16
     6e8:	00051000 	andeq	r1, r5, r0
     6ec:	55000100 	strpl	r0, [r0, #-256]	; 0x100
	...
     6f8:	000004ec 	andeq	r0, r0, ip, ror #9
     6fc:	000004f0 	strdeq	r0, [r0], -r0	; <UNPREDICTABLE>
     700:	00520001 	subseq	r0, r2, r1
     704:	00000000 	andeq	r0, r0, r0
     708:	04000000 	streq	r0, [r0], #-0
     70c:	c4000005 	strgt	r0, [r0], #-5
     710:	09000006 	stmdbeq	r0, {r1, r2}
     714:	09007100 	stmdbeq	r0, {r8, ip, sp, lr}
     718:	ff081a80 			; <UNDEFINED> instruction: 0xff081a80
     71c:	00009f1a 	andeq	r9, r0, sl, lsl pc
     720:	00000000 	andeq	r0, r0, r0
     724:	05040000 	streq	r0, [r4, #-0]
     728:	05140000 	ldreq	r0, [r4, #-0]
     72c:	00010000 	andeq	r0, r1, r0
     730:	00051452 	andeq	r1, r5, r2, asr r4
     734:	00071400 	andeq	r1, r7, r0, lsl #8
     738:	70000200 	andvc	r0, r0, r0, lsl #4
	...
     744:	00050400 	andeq	r0, r5, r0, lsl #8
     748:	00054400 	andeq	r4, r5, r0, lsl #8
     74c:	71000900 	tstvc	r0, r0, lsl #18
     750:	1a800900 	bne	fe002b58 <__bss_end__+0xfdff8878>
     754:	9f1aff08 	svcls	0x001aff08
     758:	00000544 	andeq	r0, r0, r4, asr #10
     75c:	00000584 	andeq	r0, r0, r4, lsl #11
     760:	00710009 	rsbseq	r0, r1, r9
     764:	081a4008 	ldmdaeq	sl, {r3, lr}
     768:	849f1aff 	ldrhi	r1, [pc], #2815	; 770 <_start-0x7890>
     76c:	c4000005 	strgt	r0, [r0], #-5
     770:	09000005 	stmdbeq	r0, {r0, r2}
     774:	08007100 	stmdaeq	r0, {r8, ip, sp, lr}
     778:	ff081a20 			; <UNDEFINED> instruction: 0xff081a20
     77c:	05c49f1a 	strbeq	r9, [r4, #3866]	; 0xf1a
     780:	06040000 	streq	r0, [r4], -r0
     784:	00080000 	andeq	r0, r8, r0
     788:	1a400071 	bne	1000954 <__bss_end__+0xff6674>
     78c:	9f1aff08 	svcls	0x001aff08
     790:	00000604 	andeq	r0, r0, r4, lsl #12
     794:	00000648 	andeq	r0, r0, r8, asr #12
     798:	00710008 	rsbseq	r0, r1, r8
     79c:	ff081a38 			; <UNDEFINED> instruction: 0xff081a38
     7a0:	06489f1a 			; <UNDEFINED> instruction: 0x06489f1a
     7a4:	06880000 	streq	r0, [r8], r0
     7a8:	00080000 	andeq	r0, r8, r0
     7ac:	1a340071 	bne	d00978 <__bss_end__+0xcf6698>
     7b0:	9f1aff08 	svcls	0x001aff08
     7b4:	00000688 	andeq	r0, r0, r8, lsl #13
     7b8:	000006c4 	andeq	r0, r0, r4, asr #13
     7bc:	00710008 	rsbseq	r0, r1, r8
     7c0:	ff081a32 			; <UNDEFINED> instruction: 0xff081a32
     7c4:	00009f1a 	andeq	r9, r0, sl, lsl pc
     7c8:	00000000 	andeq	r0, r0, r0
     7cc:	052c0000 	streq	r0, [ip, #-0]!
     7d0:	05300000 	ldreq	r0, [r0, #-0]!
     7d4:	00010000 	andeq	r0, r1, r0
     7d8:	00000052 	andeq	r0, r0, r2, asr r0
     7dc:	00000000 	andeq	r0, r0, r0
     7e0:	00054400 	andeq	r4, r5, r0, lsl #8
     7e4:	0006c400 	andeq	ip, r6, r0, lsl #8
     7e8:	71000900 	tstvc	r0, r0, lsl #18
     7ec:	1a400800 	bne	10027f4 <__bss_end__+0xff8514>
     7f0:	9f1aff08 	svcls	0x001aff08
	...
     7fc:	00000544 	andeq	r0, r0, r4, asr #10
     800:	00000554 	andeq	r0, r0, r4, asr r5
     804:	54520001 	ldrbpl	r0, [r2], #-1
     808:	14000005 	strne	r0, [r0], #-5
     80c:	02000007 	andeq	r0, r0, #7
     810:	00007000 	andeq	r7, r0, r0
     814:	00000000 	andeq	r0, r0, r0
     818:	44000000 	strmi	r0, [r0], #-0
     81c:	84000005 	strhi	r0, [r0], #-5
     820:	09000005 	stmdbeq	r0, {r0, r2}
     824:	08007100 	stmdaeq	r0, {r8, ip, sp, lr}
     828:	ff081a40 			; <UNDEFINED> instruction: 0xff081a40
     82c:	05849f1a 	streq	r9, [r4, #3866]	; 0xf1a
     830:	05c40000 	strbeq	r0, [r4]
     834:	00090000 	andeq	r0, r9, r0
     838:	20080071 	andcs	r0, r8, r1, ror r0
     83c:	1aff081a 	bne	fffc28ac <__bss_end__+0xfffb85cc>
     840:	0005c49f 	muleq	r5, pc, r4	; <UNPREDICTABLE>
     844:	00060400 	andeq	r0, r6, r0, lsl #8
     848:	71000800 	tstvc	r0, r0, lsl #16
     84c:	081a4000 	ldmdaeq	sl, {lr}
     850:	049f1aff 	ldreq	r1, [pc], #2815	; 858 <_start-0x77a8>
     854:	48000006 	stmdami	r0, {r1, r2}
     858:	08000006 	stmdaeq	r0, {r1, r2}
     85c:	38007100 	stmdacc	r0, {r8, ip, sp, lr}
     860:	1aff081a 	bne	fffc28d0 <__bss_end__+0xfffb85f0>
     864:	0006489f 	muleq	r6, pc, r8	; <UNPREDICTABLE>
     868:	00068800 	andeq	r8, r6, r0, lsl #16
     86c:	71000800 	tstvc	r0, r0, lsl #16
     870:	081a3400 	ldmdaeq	sl, {sl, ip, sp}
     874:	889f1aff 	ldmhi	pc, {r0, r1, r2, r3, r4, r5, r6, r7, r9, fp, ip}	; <UNPREDICTABLE>
     878:	c4000006 	strgt	r0, [r0], #-6
     87c:	08000006 	stmdaeq	r0, {r1, r2}
     880:	32007100 	andcc	r7, r0, #0, 2
     884:	1aff081a 	bne	fffc28f4 <__bss_end__+0xfffb8614>
     888:	0000009f 	muleq	r0, pc, r0	; <UNPREDICTABLE>
     88c:	00000000 	andeq	r0, r0, r0
     890:	00056c00 	andeq	r6, r5, r0, lsl #24
     894:	00057000 	andeq	r7, r5, r0
     898:	52000100 	andpl	r0, r0, #0, 2
	...
     8a4:	00000584 	andeq	r0, r0, r4, lsl #11
     8a8:	000006c4 	andeq	r0, r0, r4, asr #13
     8ac:	00710009 	rsbseq	r0, r1, r9
     8b0:	081a2008 	ldmdaeq	sl, {r3, sp}
     8b4:	009f1aff 			; <UNDEFINED> instruction: 0x009f1aff
     8b8:	00000000 	andeq	r0, r0, r0
     8bc:	84000000 	strhi	r0, [r0], #-0
     8c0:	94000005 	strls	r0, [r0], #-5
     8c4:	01000005 	tsteq	r0, r5
     8c8:	05945200 	ldreq	r5, [r4, #512]	; 0x200
     8cc:	07140000 	ldreq	r0, [r4, -r0]
     8d0:	00020000 	andeq	r0, r2, r0
     8d4:	00000070 	andeq	r0, r0, r0, ror r0
     8d8:	00000000 	andeq	r0, r0, r0
     8dc:	05840000 	streq	r0, [r4]
     8e0:	05c40000 	strbeq	r0, [r4]
     8e4:	00090000 	andeq	r0, r9, r0
     8e8:	20080071 	andcs	r0, r8, r1, ror r0
     8ec:	1aff081a 	bne	fffc295c <__bss_end__+0xfffb867c>
     8f0:	0005c49f 	muleq	r5, pc, r4	; <UNPREDICTABLE>
     8f4:	00060400 	andeq	r0, r6, r0, lsl #8
     8f8:	71000800 	tstvc	r0, r0, lsl #16
     8fc:	081a4000 	ldmdaeq	sl, {lr}
     900:	049f1aff 	ldreq	r1, [pc], #2815	; 908 <_start-0x76f8>
     904:	48000006 	stmdami	r0, {r1, r2}
     908:	08000006 	stmdaeq	r0, {r1, r2}
     90c:	38007100 	stmdacc	r0, {r8, ip, sp, lr}
     910:	1aff081a 	bne	fffc2980 <__bss_end__+0xfffb86a0>
     914:	0006489f 	muleq	r6, pc, r8	; <UNPREDICTABLE>
     918:	00068800 	andeq	r8, r6, r0, lsl #16
     91c:	71000800 	tstvc	r0, r0, lsl #16
     920:	081a3400 	ldmdaeq	sl, {sl, ip, sp}
     924:	889f1aff 	ldmhi	pc, {r0, r1, r2, r3, r4, r5, r6, r7, r9, fp, ip}	; <UNPREDICTABLE>
     928:	c4000006 	strgt	r0, [r0], #-6
     92c:	08000006 	stmdaeq	r0, {r1, r2}
     930:	32007100 	andcc	r7, r0, #0, 2
     934:	1aff081a 	bne	fffc29a4 <__bss_end__+0xfffb86c4>
     938:	0000009f 	muleq	r0, pc, r0	; <UNPREDICTABLE>
     93c:	00000000 	andeq	r0, r0, r0
     940:	0005ac00 	andeq	sl, r5, r0, lsl #24
     944:	0005b000 	andeq	fp, r5, r0
     948:	52000100 	andpl	r0, r0, #0, 2
	...
     954:	000005c4 	andeq	r0, r0, r4, asr #11
     958:	000006c4 	andeq	r0, r0, r4, asr #13
     95c:	00710008 	rsbseq	r0, r1, r8
     960:	ff081a40 			; <UNDEFINED> instruction: 0xff081a40
     964:	00009f1a 	andeq	r9, r0, sl, lsl pc
     968:	00000000 	andeq	r0, r0, r0
     96c:	05c40000 	strbeq	r0, [r4]
     970:	05d40000 	ldrbeq	r0, [r4]
     974:	00010000 	andeq	r0, r1, r0
     978:	0005d452 	andeq	sp, r5, r2, asr r4
     97c:	00071400 	andeq	r1, r7, r0, lsl #8
     980:	70000200 	andvc	r0, r0, r0, lsl #4
	...
     98c:	0005c400 	andeq	ip, r5, r0, lsl #8
     990:	00060400 	andeq	r0, r6, r0, lsl #8
     994:	71000800 	tstvc	r0, r0, lsl #16
     998:	081a4000 	ldmdaeq	sl, {lr}
     99c:	049f1aff 	ldreq	r1, [pc], #2815	; 9a4 <_start-0x765c>
     9a0:	48000006 	stmdami	r0, {r1, r2}
     9a4:	08000006 	stmdaeq	r0, {r1, r2}
     9a8:	38007100 	stmdacc	r0, {r8, ip, sp, lr}
     9ac:	1aff081a 	bne	fffc2a1c <__bss_end__+0xfffb873c>
     9b0:	0006489f 	muleq	r6, pc, r8	; <UNPREDICTABLE>
     9b4:	00068800 	andeq	r8, r6, r0, lsl #16
     9b8:	71000800 	tstvc	r0, r0, lsl #16
     9bc:	081a3400 	ldmdaeq	sl, {sl, ip, sp}
     9c0:	889f1aff 	ldmhi	pc, {r0, r1, r2, r3, r4, r5, r6, r7, r9, fp, ip}	; <UNPREDICTABLE>
     9c4:	c4000006 	strgt	r0, [r0], #-6
     9c8:	08000006 	stmdaeq	r0, {r1, r2}
     9cc:	32007100 	andcc	r7, r0, #0, 2
     9d0:	1aff081a 	bne	fffc2a40 <__bss_end__+0xfffb8760>
     9d4:	0000009f 	muleq	r0, pc, r0	; <UNPREDICTABLE>
     9d8:	00000000 	andeq	r0, r0, r0
     9dc:	0005ec00 	andeq	lr, r5, r0, lsl #24
     9e0:	0005f000 	andeq	pc, r5, r0
     9e4:	52000100 	andpl	r0, r0, #0, 2
	...
     9f0:	00000604 	andeq	r0, r0, r4, lsl #12
     9f4:	000006c4 	andeq	r0, r0, r4, asr #13
     9f8:	00710008 	rsbseq	r0, r1, r8
     9fc:	ff081a38 			; <UNDEFINED> instruction: 0xff081a38
     a00:	00009f1a 	andeq	r9, r0, sl, lsl pc
     a04:	00000000 	andeq	r0, r0, r0
     a08:	06040000 	streq	r0, [r4], -r0
     a0c:	06140000 	ldreq	r0, [r4], -r0
     a10:	00010000 	andeq	r0, r1, r0
     a14:	00061452 	andeq	r1, r6, r2, asr r4
     a18:	00071400 	andeq	r1, r7, r0, lsl #8
     a1c:	70000200 	andvc	r0, r0, r0, lsl #4
	...
     a28:	00060400 	andeq	r0, r6, r0, lsl #8
     a2c:	00064800 	andeq	r4, r6, r0, lsl #16
     a30:	71000800 	tstvc	r0, r0, lsl #16
     a34:	081a3800 	ldmdaeq	sl, {fp, ip, sp}
     a38:	489f1aff 	ldmmi	pc, {r0, r1, r2, r3, r4, r5, r6, r7, r9, fp, ip}	; <UNPREDICTABLE>
     a3c:	88000006 	stmdahi	r0, {r1, r2}
     a40:	08000006 	stmdaeq	r0, {r1, r2}
     a44:	34007100 	strcc	r7, [r0], #-256	; 0x100
     a48:	1aff081a 	bne	fffc2ab8 <__bss_end__+0xfffb87d8>
     a4c:	0006889f 	muleq	r6, pc, r8	; <UNPREDICTABLE>
     a50:	0006c400 	andeq	ip, r6, r0, lsl #8
     a54:	71000800 	tstvc	r0, r0, lsl #16
     a58:	081a3200 	ldmdaeq	sl, {r9, ip, sp}
     a5c:	009f1aff 			; <UNDEFINED> instruction: 0x009f1aff
     a60:	00000000 	andeq	r0, r0, r0
     a64:	30000000 	andcc	r0, r0, r0
     a68:	34000006 	strcc	r0, [r0], #-6
     a6c:	01000006 	tsteq	r0, r6
     a70:	00005200 	andeq	r5, r0, r0, lsl #4
     a74:	00000000 	andeq	r0, r0, r0
     a78:	06480000 	strbeq	r0, [r8], -r0
     a7c:	06c40000 	strbeq	r0, [r4], r0
     a80:	00080000 	andeq	r0, r8, r0
     a84:	1a340071 	bne	d00c50 <__bss_end__+0xcf6970>
     a88:	9f1aff08 	svcls	0x001aff08
	...
     a94:	00000648 	andeq	r0, r0, r8, asr #12
     a98:	00000658 	andeq	r0, r0, r8, asr r6
     a9c:	58520001 	ldmdapl	r2, {r0}^
     aa0:	14000006 	strne	r0, [r0], #-6
     aa4:	02000007 	andeq	r0, r0, #7
     aa8:	00007000 	andeq	r7, r0, r0
     aac:	00000000 	andeq	r0, r0, r0
     ab0:	48000000 	stmdami	r0, {}	; <UNPREDICTABLE>
     ab4:	88000006 	stmdahi	r0, {r1, r2}
     ab8:	08000006 	stmdaeq	r0, {r1, r2}
     abc:	34007100 	strcc	r7, [r0], #-256	; 0x100
     ac0:	1aff081a 	bne	fffc2b30 <__bss_end__+0xfffb8850>
     ac4:	0006889f 	muleq	r6, pc, r8	; <UNPREDICTABLE>
     ac8:	0006c400 	andeq	ip, r6, r0, lsl #8
     acc:	71000800 	tstvc	r0, r0, lsl #16
     ad0:	081a3200 	ldmdaeq	sl, {r9, ip, sp}
     ad4:	009f1aff 			; <UNDEFINED> instruction: 0x009f1aff
     ad8:	00000000 	andeq	r0, r0, r0
     adc:	70000000 	andvc	r0, r0, r0
     ae0:	74000006 	strvc	r0, [r0], #-6
     ae4:	01000006 	tsteq	r0, r6
     ae8:	00005200 	andeq	r5, r0, r0, lsl #4
     aec:	00000000 	andeq	r0, r0, r0
     af0:	06880000 	streq	r0, [r8], r0
     af4:	06c40000 	strbeq	r0, [r4], r0
     af8:	00080000 	andeq	r0, r8, r0
     afc:	1a320071 	bne	c80cc8 <__bss_end__+0xc769e8>
     b00:	9f1aff08 	svcls	0x001aff08
	...
     b0c:	00000688 	andeq	r0, r0, r8, lsl #13
     b10:	00000698 	muleq	r0, r8, r6
     b14:	98520001 	ldmdals	r2, {r0}^
     b18:	14000006 	strne	r0, [r0], #-6
     b1c:	02000007 	andeq	r0, r0, #7
     b20:	00007000 	andeq	r7, r0, r0
     b24:	00000000 	andeq	r0, r0, r0
     b28:	b0000000 	andlt	r0, r0, r0
     b2c:	b4000006 	strlt	r0, [r0], #-6
     b30:	01000006 	tsteq	r0, r6
     b34:	00005200 	andeq	r5, r0, r0, lsl #4
     b38:	00000000 	andeq	r0, r0, r0
     b3c:	06c80000 	strbeq	r0, [r8], r0
     b40:	06d80000 	ldrbeq	r0, [r8], r0
     b44:	00010000 	andeq	r0, r1, r0
     b48:	0006d852 	andeq	sp, r6, r2, asr r8
     b4c:	00071400 	andeq	r1, r7, r0, lsl #8
     b50:	70000200 	andvc	r0, r0, r0, lsl #4
	...
     b5c:	0006f000 	andeq	pc, r6, r0
     b60:	0006f400 	andeq	pc, r6, r0, lsl #8
     b64:	52000100 	andpl	r0, r0, #0, 2
	...
     b70:	000006fc 	strdeq	r0, [r0], -ip
     b74:	00000714 	andeq	r0, r0, r4, lsl r7
     b78:	00700002 	rsbseq	r0, r0, r2
	...
     b84:	00000724 	andeq	r0, r0, r4, lsr #14
     b88:	00000728 	andeq	r0, r0, r8, lsr #14
     b8c:	00520001 	subseq	r0, r2, r1
     b90:	00000000 	andeq	r0, r0, r0
     b94:	6c000000 	stcvs	0, cr0, [r0], {-0}
     b98:	a4000009 	strge	r0, [r0], #-9
     b9c:	01000009 	tsteq	r0, r9
     ba0:	09a45b00 	stmibeq	r4!, {r8, r9, fp, ip, lr}
     ba4:	0ae00000 	beq	ff800bac <__bss_end__+0xff7f68cc>
     ba8:	00020000 	andeq	r0, r2, r0
     bac:	0ae04891 	beq	ff812df8 <__bss_end__+0xff808b18>
     bb0:	0b3c0000 	bleq	f00bb8 <__bss_end__+0xef68d8>
     bb4:	00070000 	andeq	r0, r7, r0
     bb8:	7a064891 	bvc	192e04 <__bss_end__+0x188b24>
     bbc:	3c9f2100 	ldfccs	f2, [pc], {0}
     bc0:	5000000b 	andpl	r0, r0, fp
     bc4:	0800000c 	stmdaeq	r0, {r2, r3}
     bc8:	06489100 	strbeq	r9, [r8], -r0, lsl #2
     bcc:	21064091 	swpcs	r4, r1, [r6]
     bd0:	000c509f 	muleq	ip, pc, r0	; <UNPREDICTABLE>
     bd4:	000ddc00 	andeq	sp, sp, r0, lsl #24
     bd8:	91000b00 	tstls	r0, r0, lsl #22
     bdc:	40910648 	addsmi	r0, r1, r8, asr #12
     be0:	007b2106 	rsbseq	r2, fp, r6, lsl #2
     be4:	0ddc9f21 	ldcleq	15, cr9, [ip, #132]	; 0x84
     be8:	0e2c0000 	cdpeq	0, 2, cr0, cr12, cr0, {0}
     bec:	00010000 	andeq	r0, r1, r0
     bf0:	0000005b 	andeq	r0, r0, fp, asr r0
     bf4:	00000000 	andeq	r0, r0, r0
     bf8:	0007a400 	andeq	sl, r7, r0, lsl #8
     bfc:	00080800 	andeq	r0, r8, r0, lsl #16
     c00:	30000200 	andcc	r0, r0, r0, lsl #4
     c04:	0008089f 	muleq	r8, pc, r8	; <UNPREDICTABLE>
     c08:	00083000 	andeq	r3, r8, r0
     c0c:	50000100 	andpl	r0, r0, r0, lsl #2
     c10:	00000830 	andeq	r0, r0, r0, lsr r8
     c14:	00000858 	andeq	r0, r0, r8, asr r8
     c18:	00700006 	rsbseq	r0, r0, r6
     c1c:	9f21007b 	svcls	0x0021007b
     c20:	0000085c 	andeq	r0, r0, ip, asr r8
     c24:	00000884 	andeq	r0, r0, r4, lsl #17
     c28:	84590001 	ldrbhi	r0, [r9], #-1
     c2c:	ac000008 	stcge	0, cr0, [r0], {8}
     c30:	01000008 	tsteq	r0, r8
     c34:	08ac5b00 	stmiaeq	ip!, {r8, r9, fp, ip, lr}
     c38:	08e40000 	stmiaeq	r4!, {}^	; <UNPREDICTABLE>
     c3c:	00010000 	andeq	r0, r1, r0
     c40:	0008e450 	andeq	lr, r8, r0, asr r4
     c44:	00091800 	andeq	r1, r9, r0, lsl #16
     c48:	59000100 	stmdbpl	r0, {r8}
     c4c:	0000091c 	andeq	r0, r0, ip, lsl r9
     c50:	00000920 	andeq	r0, r0, r0, lsr #18
     c54:	20590001 	subscs	r0, r9, r1
     c58:	68000009 	stmdavs	r0, {r0, r3}
     c5c:	01000009 	tsteq	r0, r9
     c60:	00005b00 	andeq	r5, r0, r0, lsl #22
     c64:	00000000 	andeq	r0, r0, r0
     c68:	07bc0000 	ldreq	r0, [ip, r0]!
     c6c:	0c740000 	ldcleq	0, cr0, [r4], #-0
     c70:	00010000 	andeq	r0, r1, r0
     c74:	000c7457 	andeq	r7, ip, r7, asr r4
     c78:	000de300 	andeq	lr, sp, r0, lsl #6
     c7c:	03000900 	movweq	r0, #2304	; 0x900
     c80:	00009edc 	ldrdeq	r9, [r0], -ip
     c84:	9f253106 	svcls	0x00253106
	...
     c90:	000007d0 	ldrdeq	r0, [r0], -r0	; <UNPREDICTABLE>
     c94:	0000096c 	andeq	r0, r0, ip, ror #18
     c98:	00530001 	subseq	r0, r3, r1
     c9c:	00000000 	andeq	r0, r0, r0
     ca0:	d4000000 	strle	r0, [r0], #-0
     ca4:	d8000007 	stmdale	r0, {r0, r1, r2}
     ca8:	01000007 	tsteq	r0, r7
     cac:	00005000 	andeq	r5, r0, r0
     cb0:	00000000 	andeq	r0, r0, r0
     cb4:	07e80000 	strbeq	r0, [r8, r0]!
     cb8:	07ec0000 	strbeq	r0, [ip, r0]!
     cbc:	00010000 	andeq	r0, r1, r0
     cc0:	00000050 	andeq	r0, r0, r0, asr r0
     cc4:	00000000 	andeq	r0, r0, r0
     cc8:	00080c00 	andeq	r0, r8, r0, lsl #24
     ccc:	00081000 	andeq	r1, r8, r0
     cd0:	5c000100 	stfpls	f0, [r0], {-0}
	...
     cdc:	00000834 	andeq	r0, r0, r4, lsr r8
     ce0:	00000838 	andeq	r0, r0, r8, lsr r8
     ce4:	005c0001 	subseq	r0, ip, r1
     ce8:	00000000 	andeq	r0, r0, r0
     cec:	60000000 	andvs	r0, r0, r0
     cf0:	64000008 	strvs	r0, [r0], #-8
     cf4:	01000008 	tsteq	r0, r8
     cf8:	00005000 	andeq	r5, r0, r0
     cfc:	00000000 	andeq	r0, r0, r0
     d00:	08880000 	stmeq	r8, {}	; <UNPREDICTABLE>
     d04:	088c0000 	stmeq	ip, {}	; <UNPREDICTABLE>
     d08:	00010000 	andeq	r0, r1, r0
     d0c:	00000050 	andeq	r0, r0, r0, asr r0
     d10:	00000000 	andeq	r0, r0, r0
     d14:	0008b800 	andeq	fp, r8, r0, lsl #16
     d18:	0008bc00 	andeq	fp, r8, r0, lsl #24
     d1c:	59000100 	stmdbpl	r0, {r8}
	...
     d28:	000008e8 	andeq	r0, r0, r8, ror #17
     d2c:	000008ec 	andeq	r0, r0, ip, ror #17
     d30:	00500001 	subseq	r0, r0, r1
     d34:	00000000 	andeq	r0, r0, r0
     d38:	24000000 	strcs	r0, [r0], #-0
     d3c:	28000009 	stmdacs	r0, {r0, r3}
     d40:	01000009 	tsteq	r0, r9
     d44:	00005900 	andeq	r5, r0, r0, lsl #18
     d48:	00000000 	andeq	r0, r0, r0
     d4c:	09580000 	ldmdbeq	r8, {}^	; <UNPREDICTABLE>
     d50:	095c0000 	ldmdbeq	ip, {}^	; <UNPREDICTABLE>
     d54:	00010000 	andeq	r0, r1, r0
     d58:	00000059 	andeq	r0, r0, r9, asr r0
     d5c:	00000000 	andeq	r0, r0, r0
     d60:	00096c00 	andeq	r6, r9, r0, lsl #24
     d64:	0009b400 	andeq	fp, r9, r0, lsl #8
     d68:	30000200 	andcc	r0, r0, r0, lsl #4
     d6c:	0009b49f 	muleq	r9, pc, r4	; <UNPREDICTABLE>
     d70:	0009d800 	andeq	sp, r9, r0, lsl #16
     d74:	5b000100 	blpl	117c <_start-0x6e84>
     d78:	000009d8 	ldrdeq	r0, [r0], -r8
     d7c:	00000a04 	andeq	r0, r0, r4, lsl #20
     d80:	40910007 	addsmi	r0, r1, r7
     d84:	21007a06 	tstcs	r0, r6, lsl #20
     d88:	000a049f 	muleq	sl, pc, r4	; <UNPREDICTABLE>
     d8c:	000a2800 	andeq	r2, sl, r0, lsl #16
     d90:	5b000100 	blpl	1198 <_start-0x6e68>
     d94:	00000a28 	andeq	r0, r0, r8, lsr #20
     d98:	00000a4c 	andeq	r0, r0, ip, asr #20
     d9c:	4c5a0001 	mrrcmi	0, 0, r0, sl, cr1
     da0:	7400000a 	strvc	r0, [r0], #-10
     da4:	0100000a 	tsteq	r0, sl
     da8:	0a745b00 	beq	1d179b0 <__bss_end__+0x1d0d6d0>
     dac:	0a9c0000 	beq	fe700db4 <__bss_end__+0xfe6f6ad4>
     db0:	00010000 	andeq	r0, r1, r0
     db4:	000a9c5a 	andeq	r9, sl, sl, asr ip
     db8:	000ac400 	andeq	ip, sl, r0, lsl #8
     dbc:	5b000100 	blpl	11c4 <_start-0x6e3c>
     dc0:	00000ac4 	andeq	r0, r0, r4, asr #21
     dc4:	00000adc 	ldrdeq	r0, [r0], -ip
     dc8:	005a0001 	subseq	r0, sl, r1
     dcc:	00000000 	andeq	r0, r0, r0
     dd0:	6c000000 	stcvs	0, cr0, [r0], {-0}
     dd4:	74000009 	strvc	r0, [r0], #-9
     dd8:	0100000c 	tsteq	r0, ip
     ddc:	0c745700 	ldcleq	7, cr5, [r4], #-0
     de0:	0de30000 	stcleq	0, cr0, [r3]
     de4:	00090000 	andeq	r0, r9, r0
     de8:	009edc03 	addseq	sp, lr, r3, lsl #24
     dec:	25310600 	ldrcs	r0, [r1, #-1536]!	; 0x600
     df0:	0000009f 	muleq	r0, pc, r0	; <UNPREDICTABLE>
     df4:	00000000 	andeq	r0, r0, r0
     df8:	00098000 	andeq	r8, r9, r0
     dfc:	000ae000 	andeq	lr, sl, r0
     e00:	53000100 	movwpl	r0, #256	; 0x100
	...
     e0c:	00000984 	andeq	r0, r0, r4, lsl #19
     e10:	00000988 	andeq	r0, r0, r8, lsl #19
     e14:	00590001 	subseq	r0, r9, r1
     e18:	00000000 	andeq	r0, r0, r0
     e1c:	94000000 	strls	r0, [r0], #-0
     e20:	98000009 	stmdals	r0, {r0, r3}
     e24:	01000009 	tsteq	r0, r9
     e28:	00005900 	andeq	r5, r0, r0, lsl #18
     e2c:	00000000 	andeq	r0, r0, r0
     e30:	09b80000 	ldmibeq	r8!, {}	; <UNPREDICTABLE>
     e34:	09bc0000 	ldmibeq	ip!, {}	; <UNPREDICTABLE>
     e38:	00010000 	andeq	r0, r1, r0
     e3c:	00000059 	andeq	r0, r0, r9, asr r0
     e40:	00000000 	andeq	r0, r0, r0
     e44:	0009dc00 	andeq	sp, r9, r0, lsl #24
     e48:	0009e000 	andeq	lr, r9, r0
     e4c:	59000100 	stmdbpl	r0, {r8}
	...
     e58:	00000a08 	andeq	r0, r0, r8, lsl #20
     e5c:	00000a0c 	andeq	r0, r0, ip, lsl #20
     e60:	00590001 	subseq	r0, r9, r1
     e64:	00000000 	andeq	r0, r0, r0
     e68:	2c000000 	stccs	0, cr0, [r0], {-0}
     e6c:	3000000a 	andcc	r0, r0, sl
     e70:	0100000a 	tsteq	r0, sl
     e74:	00005900 	andeq	r5, r0, r0, lsl #18
     e78:	00000000 	andeq	r0, r0, r0
     e7c:	0a540000 	beq	1500e84 <__bss_end__+0x14f6ba4>
     e80:	0a580000 	beq	1600e88 <__bss_end__+0x15f6ba8>
     e84:	00010000 	andeq	r0, r1, r0
     e88:	00000059 	andeq	r0, r0, r9, asr r0
     e8c:	00000000 	andeq	r0, r0, r0
     e90:	000a7c00 	andeq	r7, sl, r0, lsl #24
     e94:	000a8000 	andeq	r8, sl, r0
     e98:	59000100 	stmdbpl	r0, {r8}
	...
     ea4:	00000aa0 	andeq	r0, r0, r0, lsr #21
     ea8:	00000aa4 	andeq	r0, r0, r4, lsr #21
     eac:	00590001 	subseq	r0, r9, r1
     eb0:	00000000 	andeq	r0, r0, r0
     eb4:	cc000000 	stcgt	0, cr0, [r0], {-0}
     eb8:	d000000a 	andle	r0, r0, sl
     ebc:	0100000a 	tsteq	r0, sl
     ec0:	00005900 	andeq	r5, r0, r0, lsl #18
     ec4:	00000000 	andeq	r0, r0, r0
     ec8:	0ae00000 	beq	ff800ed0 <__bss_end__+0xff7f6bf0>
     ecc:	0b280000 	bleq	a00ed4 <__bss_end__+0x9f6bf4>
     ed0:	00020000 	andeq	r0, r2, r0
     ed4:	0b289f30 	bleq	a28b9c <__bss_end__+0xa1e8bc>
     ed8:	0b4c0000 	bleq	1300ee0 <__bss_end__+0x12f6c00>
     edc:	00010000 	andeq	r0, r1, r0
     ee0:	000b4c5b 	andeq	r4, fp, fp, asr ip
     ee4:	000b7400 	andeq	r7, fp, r0, lsl #8
     ee8:	91000700 	tstls	r0, r0, lsl #14
     eec:	007a064c 	rsbseq	r0, sl, ip, asr #12
     ef0:	0b789f21 	bleq	1e28b7c <__bss_end__+0x1e1e89c>
     ef4:	0b9c0000 	bleq	fe700efc <__bss_end__+0xfe6f6c1c>
     ef8:	00010000 	andeq	r0, r1, r0
     efc:	000b9c5b 	andeq	r9, fp, fp, asr ip
     f00:	000bc000 	andeq	ip, fp, r0
     f04:	5a000100 	bpl	130c <_start-0x6cf4>
     f08:	00000bc0 	andeq	r0, r0, r0, asr #23
     f0c:	00000be8 	andeq	r0, r0, r8, ror #23
     f10:	e85b0001 	ldmda	fp, {r0}^
     f14:	1000000b 	andne	r0, r0, fp
     f18:	0100000c 	tsteq	r0, ip
     f1c:	0c105a00 	ldceq	10, cr5, [r0], {-0}
     f20:	0c380000 	ldceq	0, cr0, [r8], #-0
     f24:	00010000 	andeq	r0, r1, r0
     f28:	000c385b 	andeq	r3, ip, fp, asr r8
     f2c:	000d4000 	andeq	r4, sp, r0
     f30:	5a000100 	bpl	1338 <_start-0x6cc8>
	...
     f3c:	00000ae0 	andeq	r0, r0, r0, ror #21
     f40:	00000c74 	andeq	r0, r0, r4, ror ip
     f44:	74570001 	ldrbvc	r0, [r7], #-1
     f48:	e300000c 	movw	r0, #12
     f4c:	0900000d 	stmdbeq	r0, {r0, r2, r3}
     f50:	9edc0300 	cdpls	3, 13, cr0, cr12, cr0, {0}
     f54:	31060000 	mrscc	r0, (UNDEF: 6)
     f58:	00009f25 	andeq	r9, r0, r5, lsr #30
     f5c:	00000000 	andeq	r0, r0, r0
     f60:	0af40000 	beq	ffd00f68 <__bss_end__+0xffcf6c88>
     f64:	0c500000 	mraeq	r0, r0, acc0
     f68:	00010000 	andeq	r0, r1, r0
     f6c:	00000053 	andeq	r0, r0, r3, asr r0
     f70:	00000000 	andeq	r0, r0, r0
     f74:	000af800 	andeq	pc, sl, r0, lsl #16
     f78:	000afc00 	andeq	pc, sl, r0, lsl #24
     f7c:	59000100 	stmdbpl	r0, {r8}
	...
     f88:	00000b08 	andeq	r0, r0, r8, lsl #22
     f8c:	00000b0c 	andeq	r0, r0, ip, lsl #22
     f90:	00590001 	subseq	r0, r9, r1
     f94:	00000000 	andeq	r0, r0, r0
     f98:	2c000000 	stccs	0, cr0, [r0], {-0}
     f9c:	3000000b 	andcc	r0, r0, fp
     fa0:	0100000b 	tsteq	r0, fp
     fa4:	00005900 	andeq	r5, r0, r0, lsl #18
     fa8:	00000000 	andeq	r0, r0, r0
     fac:	0b500000 	bleq	1400fb4 <__bss_end__+0x13f6cd4>
     fb0:	0b540000 	bleq	1500fb8 <__bss_end__+0x14f6cd8>
     fb4:	00010000 	andeq	r0, r1, r0
     fb8:	00000059 	andeq	r0, r0, r9, asr r0
     fbc:	00000000 	andeq	r0, r0, r0
     fc0:	000b7c00 	andeq	r7, fp, r0, lsl #24
     fc4:	000b8000 	andeq	r8, fp, r0
     fc8:	59000100 	stmdbpl	r0, {r8}
	...
     fd4:	00000ba0 	andeq	r0, r0, r0, lsr #23
     fd8:	00000ba4 	andeq	r0, r0, r4, lsr #23
     fdc:	00590001 	subseq	r0, r9, r1
     fe0:	00000000 	andeq	r0, r0, r0
     fe4:	c8000000 	stmdagt	r0, {}	; <UNPREDICTABLE>
     fe8:	cc00000b 	stcgt	0, cr0, [r0], {11}
     fec:	0100000b 	tsteq	r0, fp
     ff0:	00005900 	andeq	r5, r0, r0, lsl #18
     ff4:	00000000 	andeq	r0, r0, r0
     ff8:	0bf00000 	bleq	ffc01000 <__bss_end__+0xffbf6d20>
     ffc:	0bf40000 	bleq	ffd01004 <__bss_end__+0xffcf6d24>
    1000:	00010000 	andeq	r0, r1, r0
    1004:	00000059 	andeq	r0, r0, r9, asr r0
    1008:	00000000 	andeq	r0, r0, r0
    100c:	000c1400 	andeq	r1, ip, r0, lsl #8
    1010:	000c1800 	andeq	r1, ip, r0, lsl #16
    1014:	59000100 	stmdbpl	r0, {r8}
	...
    1020:	00000c40 	andeq	r0, r0, r0, asr #24
    1024:	00000c44 	andeq	r0, r0, r4, asr #24
    1028:	00590001 	subseq	r0, r9, r1
    102c:	00000000 	andeq	r0, r0, r0
    1030:	50000000 	andpl	r0, r0, r0
    1034:	9400000c 	strls	r0, [r0], #-12
    1038:	0200000c 	andeq	r0, r0, #12
    103c:	949f3000 	ldrls	r3, [pc], #0	; 1044 <_start-0x6fbc>
    1040:	b800000c 	stmdalt	r0, {r2, r3}
    1044:	0100000c 	tsteq	r0, ip
    1048:	0cb85700 	ldceq	7, cr5, [r8]
    104c:	0cdc0000 	ldcleq	0, cr0, [ip], {0}
    1050:	00060000 	andeq	r0, r6, r0
    1054:	00760077 	rsbseq	r0, r6, r7, ror r0
    1058:	0cdc9f21 	ldcleq	15, cr9, [ip], {33}	; 0x21
    105c:	0d000000 	stceq	0, cr0, [r0, #-0]
    1060:	00090000 	andeq	r0, r9, r0
    1064:	00760077 	rsbseq	r0, r6, r7, ror r0
    1068:	21007521 	tstcs	r0, r1, lsr #10
    106c:	000d009f 	muleq	sp, pc, r0	; <UNPREDICTABLE>
    1070:	000d2800 	andeq	r2, sp, r0, lsl #16
    1074:	77000c00 	strvc	r0, [r0, -r0, lsl #24]
    1078:	21007600 	tstcs	r0, r0, lsl #12
    107c:	7e210075 	mcrvc	0, 1, r0, cr1, cr5, {3}
    1080:	289f2100 	ldmcs	pc, {r8, sp}	; <UNPREDICTABLE>
    1084:	5000000d 	andpl	r0, r0, sp
    1088:	0f00000d 	svceq	0x0000000d
    108c:	76007700 	strvc	r7, [r0], -r0, lsl #14
    1090:	00752100 	rsbseq	r2, r5, r0, lsl #2
    1094:	21007e21 	tstcs	r0, r1, lsr #28
    1098:	9f210078 	svcls	0x00210078
    109c:	00000d50 	andeq	r0, r0, r0, asr sp
    10a0:	00000d74 	andeq	r0, r0, r4, ror sp
    10a4:	00770012 	rsbseq	r0, r7, r2, lsl r0
    10a8:	75210076 	strvc	r0, [r1, #-118]!	; 0x76
    10ac:	007e2100 	rsbseq	r2, lr, r0, lsl #2
    10b0:	21007821 	tstcs	r0, r1, lsr #16
    10b4:	9f210079 	svcls	0x00210079
    10b8:	00000d74 	andeq	r0, r0, r4, ror sp
    10bc:	00000d9c 	muleq	r0, ip, sp
    10c0:	00770015 	rsbseq	r0, r7, r5, lsl r0
    10c4:	75210076 	strvc	r0, [r1, #-118]!	; 0x76
    10c8:	007e2100 	rsbseq	r2, lr, r0, lsl #2
    10cc:	21007821 	tstcs	r0, r1, lsr #16
    10d0:	7a210079 	bvc	8412bc <__bss_end__+0x836fdc>
    10d4:	9c9f2100 	ldflss	f2, [pc], {0}
    10d8:	b000000d 	andlt	r0, r0, sp
    10dc:	1800000d 	stmdane	r0, {r0, r2, r3}
    10e0:	76007700 	strvc	r7, [r0], -r0, lsl #14
    10e4:	00752100 	rsbseq	r2, r5, r0, lsl #2
    10e8:	21007e21 	tstcs	r0, r1, lsr #28
    10ec:	79210078 	stmdbvc	r1!, {r3, r4, r5, r6}
    10f0:	007a2100 	rsbseq	r2, sl, r0, lsl #2
    10f4:	21007221 	tstcs	r0, r1, lsr #4
    10f8:	0000009f 	muleq	r0, pc, r0	; <UNPREDICTABLE>
    10fc:	00000000 	andeq	r0, r0, r0
    1100:	000c5000 	andeq	r5, ip, r0
    1104:	000c7400 	andeq	r7, ip, r0, lsl #8
    1108:	57000100 	strpl	r0, [r0, -r0, lsl #2]
    110c:	00000c74 	andeq	r0, r0, r4, ror ip
    1110:	00000de3 	andeq	r0, r0, r3, ror #27
    1114:	dc030009 	stcle	0, cr0, [r3], {9}
    1118:	0600009e 			; <UNDEFINED> instruction: 0x0600009e
    111c:	009f2531 	addseq	r2, pc, r1, lsr r5	; <UNPREDICTABLE>
    1120:	00000000 	andeq	r0, r0, r0
    1124:	64000000 	strvs	r0, [r0], #-0
    1128:	e300000c 	movw	r0, #12
    112c:	0100000d 	tsteq	r0, sp
    1130:	00005300 	andeq	r5, r0, r0, lsl #6
    1134:	00000000 	andeq	r0, r0, r0
    1138:	0c680000 	stcleq	0, cr0, [r8], #-0
    113c:	0c6c0000 	stcleq	0, cr0, [ip], #-0
    1140:	00010000 	andeq	r0, r1, r0
    1144:	00000059 	andeq	r0, r0, r9, asr r0
    1148:	00000000 	andeq	r0, r0, r0
    114c:	000c7800 	andeq	r7, ip, r0, lsl #16
    1150:	000c7c00 	andeq	r7, ip, r0, lsl #24
    1154:	57000100 	strpl	r0, [r0, -r0, lsl #2]
	...
    1160:	00000c98 	muleq	r0, r8, ip
    1164:	00000c9c 	muleq	r0, ip, ip
    1168:	00580001 	subseq	r0, r8, r1
    116c:	00000000 	andeq	r0, r0, r0
    1170:	bc000000 	stclt	0, cr0, [r0], {-0}
    1174:	c000000c 	andgt	r0, r0, ip
    1178:	0100000c 	tsteq	r0, ip
    117c:	00005800 	andeq	r5, r0, r0, lsl #16
    1180:	00000000 	andeq	r0, r0, r0
    1184:	0ce00000 	stcleq	0, cr0, [r0]
    1188:	0ce40000 	stcleq	0, cr0, [r4]
    118c:	00010000 	andeq	r0, r1, r0
    1190:	00000058 	andeq	r0, r0, r8, asr r0
    1194:	00000000 	andeq	r0, r0, r0
    1198:	000d0400 	andeq	r0, sp, r0, lsl #8
    119c:	000d0800 	andeq	r0, sp, r0, lsl #16
    11a0:	58000100 	stmdapl	r0, {r8}
	...
    11ac:	00000d2c 	andeq	r0, r0, ip, lsr #26
    11b0:	00000d30 	andeq	r0, r0, r0, lsr sp
    11b4:	005c0001 	subseq	r0, ip, r1
    11b8:	00000000 	andeq	r0, r0, r0
    11bc:	54000000 	strpl	r0, [r0], #-0
    11c0:	5800000d 	stmdapl	r0, {r0, r2, r3}
    11c4:	0100000d 	tsteq	r0, sp
    11c8:	00005c00 	andeq	r5, r0, r0, lsl #24
    11cc:	00000000 	andeq	r0, r0, r0
    11d0:	0d780000 	ldcleq	0, cr0, [r8, #-0]
    11d4:	0d7c0000 	ldcleq	0, cr0, [ip, #-0]
    11d8:	00010000 	andeq	r0, r1, r0
    11dc:	0000005c 	andeq	r0, r0, ip, asr r0
    11e0:	00000000 	andeq	r0, r0, r0
    11e4:	000da000 	andeq	sl, sp, r0
    11e8:	000da400 	andeq	sl, sp, r0, lsl #8
    11ec:	51000100 	mrspl	r0, (UNDEF: 16)
	...
    11f8:	0000002c 	andeq	r0, r0, ip, lsr #32
    11fc:	00000038 	andeq	r0, r0, r8, lsr r0
    1200:	38500001 	ldmdacc	r0, {r0}^
    1204:	48000000 	stmdami	r0, {}	; <UNPREDICTABLE>
    1208:	01000000 	mrseq	r0, (UNDEF: 0)
    120c:	00485500 	subeq	r5, r8, r0, lsl #10
    1210:	00580000 	subseq	r0, r8, r0
    1214:	00010000 	andeq	r0, r1, r0
    1218:	00000050 	andeq	r0, r0, r0, asr r0
	...
    1224:	00000b00 	andeq	r0, r0, r0, lsl #22
    1228:	50000100 	andpl	r0, r0, r0, lsl #2
    122c:	0000000b 	andeq	r0, r0, fp
    1230:	00000014 	andeq	r0, r0, r4, lsl r0
    1234:	00540001 	subseq	r0, r4, r1
	...
    1240:	10000000 	andne	r0, r0, r0
    1244:	01000000 	mrseq	r0, (UNDEF: 0)
    1248:	00105000 	andseq	r5, r0, r0
    124c:	00340000 	eorseq	r0, r4, r0
    1250:	00010000 	andeq	r0, r1, r0
    1254:	00000054 	andeq	r0, r0, r4, asr r0
	...
    1260:	00000400 	andeq	r0, r0, r0, lsl #8
    1264:	50000100 	andpl	r0, r0, r0, lsl #2
    1268:	00000004 	andeq	r0, r0, r4
    126c:	0000000c 	andeq	r0, r0, ip
    1270:	30700003 	rsbscc	r0, r0, r3
    1274:	00000c9f 	muleq	r0, pc, ip	; <UNPREDICTABLE>
    1278:	00001400 	andeq	r1, r0, r0, lsl #8
    127c:	f3000400 	vshl.u8	d0, d0, d0
    1280:	009f5001 	addseq	r5, pc, r1
    1284:	00000000 	andeq	r0, r0, r0
    1288:	14000000 	strne	r0, [r0], #-0
    128c:	20000000 	andcs	r0, r0, r0
    1290:	01000000 	mrseq	r0, (UNDEF: 0)
    1294:	00205000 	eoreq	r5, r0, r0
    1298:	002c0000 	eoreq	r0, ip, r0
    129c:	00030000 	andeq	r0, r3, r0
    12a0:	2c9f0170 	ldfcss	f0, [pc], {112}	; 0x70
    12a4:	40000000 	andmi	r0, r0, r0
    12a8:	01000000 	mrseq	r0, (UNDEF: 0)
    12ac:	00005000 	andeq	r5, r0, r0
    12b0:	00000000 	andeq	r0, r0, r0
    12b4:	00140000 	andseq	r0, r4, r0
    12b8:	00180000 	andseq	r0, r8, r0
    12bc:	00010000 	andeq	r0, r1, r0
    12c0:	00001851 	andeq	r1, r0, r1, asr r8
    12c4:	00004000 	andeq	r4, r0, r0
    12c8:	f3000400 	vshl.u8	d0, d0, d0
    12cc:	009f5101 	addseq	r5, pc, r1, lsl #2
    12d0:	00000000 	andeq	r0, r0, r0
    12d4:	40000000 	andmi	r0, r0, r0
    12d8:	60000000 	andvs	r0, r0, r0
    12dc:	01000000 	mrseq	r0, (UNDEF: 0)
    12e0:	00605000 	rsbeq	r5, r0, r0
    12e4:	006c0000 	rsbeq	r0, ip, r0
    12e8:	00030000 	andeq	r0, r3, r0
    12ec:	6c9f0171 	ldfvss	f0, [pc], {113}	; 0x71
    12f0:	74000000 	strvc	r0, [r0], #-0
    12f4:	01000000 	mrseq	r0, (UNDEF: 0)
    12f8:	00745100 	rsbseq	r5, r4, r0, lsl #2
    12fc:	00800000 	addeq	r0, r0, r0
    1300:	00030000 	andeq	r0, r3, r0
    1304:	009f0171 	addseq	r0, pc, r1, ror r1	; <UNPREDICTABLE>
    1308:	00000000 	andeq	r0, r0, r0
    130c:	40000000 	andmi	r0, r0, r0
    1310:	50000000 	andpl	r0, r0, r0
    1314:	01000000 	mrseq	r0, (UNDEF: 0)
    1318:	00505100 	subseq	r5, r0, r0, lsl #2
    131c:	00800000 	addeq	r0, r0, r0
    1320:	00040000 	andeq	r0, r4, r0
    1324:	9f5101f3 	svcls	0x005101f3
	...
    1330:	00000040 	andeq	r0, r0, r0, asr #32
    1334:	00000058 	andeq	r0, r0, r8, asr r0
    1338:	58520001 	ldmdapl	r2, {r0}^
    133c:	64000000 	strvs	r0, [r0], #-0
    1340:	01000000 	mrseq	r0, (UNDEF: 0)
    1344:	00645200 	rsbeq	r5, r4, r0, lsl #4
    1348:	00680000 	rsbeq	r0, r8, r0
    134c:	00030000 	andeq	r0, r3, r0
    1350:	689f0172 	ldmvs	pc, {r1, r4, r5, r6, r8}	; <UNPREDICTABLE>
    1354:	80000000 	andhi	r0, r0, r0
    1358:	01000000 	mrseq	r0, (UNDEF: 0)
    135c:	00005200 	andeq	r5, r0, r0, lsl #4
    1360:	00000000 	andeq	r0, r0, r0
    1364:	00400000 	subeq	r0, r0, r0
    1368:	00540000 	subseq	r0, r4, r0
    136c:	00010000 	andeq	r0, r1, r0
    1370:	00005453 	andeq	r5, r0, r3, asr r4
    1374:	00007800 	andeq	r7, r0, r0, lsl #16
    1378:	53000100 	movwpl	r0, #256	; 0x100
	...
    1384:	00000048 	andeq	r0, r0, r8, asr #32
    1388:	00000060 	andeq	r0, r0, r0, rrx
    138c:	605c0001 	subsvs	r0, ip, r1
    1390:	80000000 	andhi	r0, r0, r0
    1394:	0a000000 	beq	139c <_start-0x6c64>
    1398:	5201f300 	andpl	pc, r1, #0, 6
    139c:	1c5301f3 	ldfnee	f0, [r3], {243}	; 0xf3
    13a0:	009f0123 	addseq	r0, pc, r3, lsr #2
    13a4:	00000000 	andeq	r0, r0, r0
    13a8:	80000000 	andhi	r0, r0, r0
    13ac:	a4000000 	strge	r0, [r0], #-0
    13b0:	01000000 	mrseq	r0, (UNDEF: 0)
    13b4:	00a45000 	adceq	r5, r4, r0
    13b8:	01180000 	tsteq	r8, r0
    13bc:	00030000 	andeq	r0, r3, r0
    13c0:	189f0270 	ldmne	pc, {r4, r5, r6, r9}	; <UNPREDICTABLE>
    13c4:	1c000001 	stcne	0, cr0, [r0], {1}
    13c8:	04000002 	streq	r0, [r0], #-2
    13cc:	5001f300 	andpl	pc, r1, r0, lsl #6
    13d0:	0000009f 	muleq	r0, pc, r0	; <UNPREDICTABLE>
    13d4:	00000000 	andeq	r0, r0, r0
    13d8:	00008000 	andeq	r8, r0, r0
    13dc:	0000f000 	andeq	pc, r0, r0
    13e0:	51000100 	mrspl	r0, (UNDEF: 16)
    13e4:	000000f0 	strdeq	r0, [r0], -r0	; <UNPREDICTABLE>
    13e8:	00000160 	andeq	r0, r0, r0, ror #2
    13ec:	60550001 	subsvs	r0, r5, r1
    13f0:	68000001 	stmdavs	r0, {r0}
    13f4:	01000001 	tsteq	r0, r1
    13f8:	01685100 	cmneq	r8, r0, lsl #2
    13fc:	01880000 	orreq	r0, r8, r0
    1400:	00010000 	andeq	r0, r1, r0
    1404:	00018855 	andeq	r8, r1, r5, asr r8
    1408:	00019c00 	andeq	r9, r1, r0, lsl #24
    140c:	51000100 	mrspl	r0, (UNDEF: 16)
    1410:	0000019c 	muleq	r0, ip, r1
    1414:	000001bc 			; <UNDEFINED> instruction: 0x000001bc
    1418:	bc550001 	mrrclt	0, 0, r0, r5, cr1
    141c:	bf000001 	svclt	0x00000001
    1420:	01000001 	tsteq	r0, r1
    1424:	01bf5100 			; <UNDEFINED> instruction: 0x01bf5100
    1428:	02000000 	andeq	r0, r0, #0
    142c:	00010000 	andeq	r0, r1, r0
    1430:	00020055 	andeq	r0, r2, r5, asr r0
    1434:	00021c00 	andeq	r1, r2, r0, lsl #24
    1438:	f3000400 	vshl.u8	d0, d0, d0
    143c:	009f5101 	addseq	r5, pc, r1, lsl #2
    1440:	00000000 	andeq	r0, r0, r0
    1444:	80000000 	andhi	r0, r0, r0
    1448:	94000000 	strls	r0, [r0], #-0
    144c:	01000000 	mrseq	r0, (UNDEF: 0)
    1450:	00945200 	addseq	r5, r4, r0, lsl #4
    1454:	02000000 	andeq	r0, r0, #0
    1458:	00010000 	andeq	r0, r1, r0
    145c:	00020054 	andeq	r0, r2, r4, asr r0
    1460:	00021c00 	andeq	r1, r2, r0, lsl #24
    1464:	f3000400 	vshl.u8	d0, d0, d0
    1468:	009f5201 	addseq	r5, pc, r1, lsl #4
    146c:	00000000 	andeq	r0, r0, r0
    1470:	80000000 	andhi	r0, r0, r0
    1474:	00000000 	andeq	r0, r0, r0
    1478:	01000001 	tsteq	r0, r1
    147c:	01045300 	mrseq	r5, LR_abt
    1480:	01080000 	mrseq	r0, (UNDEF: 8)
    1484:	00010000 	andeq	r0, r1, r0
    1488:	00016053 	andeq	r6, r1, r3, asr r0
    148c:	00016800 	andeq	r6, r1, r0, lsl #16
    1490:	53000100 	movwpl	r0, #256	; 0x100
    1494:	00000168 	andeq	r0, r0, r8, ror #2
    1498:	00000188 	andeq	r0, r0, r8, lsl #3
    149c:	01f30004 	mvnseq	r0, r4
    14a0:	01889f53 	orreq	r9, r8, r3, asr pc
    14a4:	01900000 	orrseq	r0, r0, r0
    14a8:	00010000 	andeq	r0, r1, r0
    14ac:	00019053 	andeq	r9, r1, r3, asr r0
    14b0:	00019400 	andeq	r9, r1, r0, lsl #8
    14b4:	5c000100 	stfpls	f0, [r0], {-0}
    14b8:	00000194 	muleq	r0, r4, r1
    14bc:	0000019c 	muleq	r0, ip, r1
    14c0:	9c530001 	mrrcls	0, 0, r0, r3, cr1
    14c4:	bc000001 	stclt	0, cr0, [r0], {1}
    14c8:	04000001 	streq	r0, [r0], #-1
    14cc:	5301f300 	movwpl	pc, #4864	; 0x1300	; <UNPREDICTABLE>
    14d0:	0001bc9f 	muleq	r1, pc, ip	; <UNPREDICTABLE>
    14d4:	0001bf00 	andeq	fp, r1, r0, lsl #30
    14d8:	53000100 	movwpl	r0, #256	; 0x100
    14dc:	000001bf 			; <UNDEFINED> instruction: 0x000001bf
    14e0:	000001d8 	ldrdeq	r0, [r0], -r8
    14e4:	01f30004 	mvnseq	r0, r4
    14e8:	00009f53 	andeq	r9, r0, r3, asr pc
    14ec:	00000000 	andeq	r0, r0, r0
    14f0:	00800000 	addeq	r0, r0, r0
    14f4:	009c0000 	addseq	r0, ip, r0
    14f8:	00020000 	andeq	r0, r2, r0
    14fc:	009c0091 	umullseq	r0, ip, r1, r0
    1500:	01bf0000 			; <UNDEFINED> instruction: 0x01bf0000
    1504:	00010000 	andeq	r0, r1, r0
    1508:	0001d852 	andeq	sp, r1, r2, asr r8
    150c:	0001e300 	andeq	lr, r1, r0, lsl #6
    1510:	52000100 	andpl	r0, r0, #0, 2
	...
    151c:	0000009c 	muleq	r0, ip, r0
    1520:	00000118 	andeq	r0, r0, r8, lsl r1
    1524:	185d0001 	ldmdane	sp, {r0}^
    1528:	1c000001 	stcne	0, cr0, [r0], {1}
    152c:	01000001 	tsteq	r0, r1
    1530:	011c5300 	tsteq	ip, r0, lsl #6
    1534:	01200000 	teqeq	r0, r0
    1538:	00010000 	andeq	r0, r1, r0
    153c:	00012051 	andeq	r2, r1, r1, asr r0
    1540:	00016000 	andeq	r6, r1, r0
    1544:	53000100 	movwpl	r0, #256	; 0x100
    1548:	00000160 	andeq	r0, r0, r0, ror #2
    154c:	00000168 	andeq	r0, r0, r8, ror #2
    1550:	685d0001 	ldmdavs	sp, {r0}^
    1554:	6c000001 	stcvs	0, cr0, [r0], {1}
    1558:	01000001 	tsteq	r0, r1
    155c:	016c5e00 	cmneq	ip, r0, lsl #28
    1560:	01880000 	orreq	r0, r8, r0
    1564:	00010000 	andeq	r0, r1, r0
    1568:	00018853 	andeq	r8, r1, r3, asr r8
    156c:	00019000 	andeq	r9, r1, r0
    1570:	91000400 	tstls	r0, r0, lsl #8
    1574:	909f7fa1 	addsls	r7, pc, r1, lsr #31
    1578:	94000001 	strls	r0, [r0], #-1
    157c:	01000001 	tsteq	r0, r1
    1580:	01945300 	orrseq	r5, r4, r0, lsl #6
    1584:	019c0000 	orrseq	r0, ip, r0
    1588:	00010000 	andeq	r0, r1, r0
    158c:	00019c5d 	andeq	r9, r1, sp, asr ip
    1590:	0001a000 	andeq	sl, r1, r0
    1594:	5e000100 	adfpls	f0, f0, f0
    1598:	000001a0 	andeq	r0, r0, r0, lsr #3
    159c:	000001bc 			; <UNDEFINED> instruction: 0x000001bc
    15a0:	bc530001 	mrrclt	0, 0, r0, r3, cr1
    15a4:	d8000001 	stmdale	r0, {r0}
    15a8:	01000001 	tsteq	r0, r1
    15ac:	01d85d00 	bicseq	r5, r8, r0, lsl #26
    15b0:	01e30000 	mvneq	r0, r0
    15b4:	00010000 	andeq	r0, r1, r0
    15b8:	00000053 	andeq	r0, r0, r3, asr r0
    15bc:	00000000 	andeq	r0, r0, r0
    15c0:	0000a000 	andeq	sl, r0, r0
    15c4:	0000ec00 	andeq	lr, r0, r0, lsl #24
    15c8:	5c000100 	stfpls	f0, [r0], {-0}
    15cc:	000000ec 	andeq	r0, r0, ip, ror #1
    15d0:	00000100 	andeq	r0, r0, r0, lsl #2
    15d4:	00530001 	subseq	r0, r3, r1
    15d8:	04000001 	streq	r0, [r0], #-1
    15dc:	01000001 	tsteq	r0, r1
    15e0:	01045c00 	tsteq	r4, r0, lsl #24
    15e4:	01080000 	mrseq	r0, (UNDEF: 8)
    15e8:	00010000 	andeq	r0, r1, r0
    15ec:	00010853 	andeq	r0, r1, r3, asr r8
    15f0:	00011800 	andeq	r1, r1, r0, lsl #16
    15f4:	5c000100 	stfpls	f0, [r0], {-0}
    15f8:	00000118 	andeq	r0, r0, r8, lsl r1
    15fc:	0000011c 	andeq	r0, r0, ip, lsl r1
    1600:	1c500001 	mrrcne	0, 0, r0, r0, cr1	; <UNPREDICTABLE>
    1604:	3c000001 	stccc	0, cr0, [r0], {1}
    1608:	01000001 	tsteq	r0, r1
    160c:	01445c00 	cmpeq	r4, r0, lsl #24
    1610:	01580000 	cmpeq	r8, r0
    1614:	00010000 	andeq	r0, r1, r0
    1618:	00015850 	andeq	r5, r1, r0, asr r8
    161c:	00016000 	andeq	r6, r1, r0
    1620:	5c000100 	stfpls	f0, [r0], {-0}
    1624:	00000160 	andeq	r0, r0, r0, ror #2
    1628:	00000168 	andeq	r0, r0, r8, ror #2
    162c:	68530001 	ldmdavs	r3, {r0}^
    1630:	78000001 	stmdavc	r0, {r0}
    1634:	01000001 	tsteq	r0, r1
    1638:	01785c00 	cmneq	r8, r0, lsl #24
    163c:	01800000 	orreq	r0, r0, r0
    1640:	00050000 	andeq	r0, r5, r0
    1644:	2534007c 	ldrcs	r0, [r4, #-124]!	; 0x7c
    1648:	0001809f 	muleq	r1, pc, r0	; <UNPREDICTABLE>
    164c:	00018800 	andeq	r8, r1, r0, lsl #16
    1650:	5c000100 	stfpls	f0, [r0], {-0}
    1654:	00000188 	andeq	r0, r0, r8, lsl #3
    1658:	00000190 	muleq	r0, r0, r1
    165c:	90530001 	subsls	r0, r3, r1
    1660:	94000001 	strls	r0, [r0], #-1
    1664:	01000001 	tsteq	r0, r1
    1668:	01945c00 	orrseq	r5, r4, r0, lsl #24
    166c:	019c0000 	orrseq	r0, ip, r0
    1670:	00010000 	andeq	r0, r1, r0
    1674:	00019c53 	andeq	r9, r1, r3, asr ip
    1678:	0001ac00 	andeq	sl, r1, r0, lsl #24
    167c:	5c000100 	stfpls	f0, [r0], {-0}
    1680:	000001ac 	andeq	r0, r0, ip, lsr #3
    1684:	000001b4 			; <UNDEFINED> instruction: 0x000001b4
    1688:	007c0005 	rsbseq	r0, ip, r5
    168c:	b49f2531 	ldrlt	r2, [pc], #1329	; 1694 <_start-0x696c>
    1690:	bc000001 	stclt	0, cr0, [r0], {1}
    1694:	01000001 	tsteq	r0, r1
    1698:	01bc5c00 			; <UNDEFINED> instruction: 0x01bc5c00
    169c:	01bf0000 			; <UNDEFINED> instruction: 0x01bf0000
    16a0:	00010000 	andeq	r0, r1, r0
    16a4:	0001bf53 	andeq	fp, r1, r3, asr pc
    16a8:	0001d800 	andeq	sp, r1, r0, lsl #16
    16ac:	f3000400 	vshl.u8	d0, d0, d0
    16b0:	d89f5301 	ldmle	pc, {r0, r8, r9, ip, lr}	; <UNPREDICTABLE>
    16b4:	e3000001 	movw	r0, #1
    16b8:	01000001 	tsteq	r0, r1
    16bc:	00005c00 	andeq	r5, r0, r0, lsl #24
    16c0:	00000000 	andeq	r0, r0, r0
    16c4:	00ec0000 	rsceq	r0, ip, r0
    16c8:	00fc0000 	rscseq	r0, ip, r0
    16cc:	00020000 	andeq	r0, r2, r0
    16d0:	00fc9f30 	rscseq	r9, ip, r0, lsr pc
    16d4:	01040000 	mrseq	r0, (UNDEF: 4)
    16d8:	00020000 	andeq	r0, r2, r0
    16dc:	01049f31 	tsteq	r4, r1, lsr pc
    16e0:	01080000 	mrseq	r0, (UNDEF: 8)
    16e4:	00020000 	andeq	r0, r2, r0
    16e8:	00009f30 	andeq	r9, r0, r0, lsr pc
    16ec:	00000000 	andeq	r0, r0, r0
    16f0:	021c0000 	andseq	r0, ip, #0
    16f4:	022b0000 	eoreq	r0, fp, #0
    16f8:	00010000 	andeq	r0, r1, r0
    16fc:	00022b50 	andeq	r2, r2, r0, asr fp
    1700:	00024400 	andeq	r4, r2, r0, lsl #8
    1704:	f3000400 	vshl.u8	d0, d0, d0
    1708:	449f5001 	ldrmi	r5, [pc], #1	; 1710 <_start-0x68f0>
    170c:	70000002 	andvc	r0, r0, r2
    1710:	01000002 	tsteq	r0, r2
    1714:	00005000 	andeq	r5, r0, r0
    1718:	00000000 	andeq	r0, r0, r0
    171c:	021c0000 	andseq	r0, ip, #0
    1720:	022b0000 	eoreq	r0, fp, #0
    1724:	00010000 	andeq	r0, r1, r0
    1728:	00022b51 	andeq	r2, r2, r1, asr fp
    172c:	00024400 	andeq	r4, r2, r0, lsl #8
    1730:	f3000400 	vshl.u8	d0, d0, d0
    1734:	449f5101 	ldrmi	r5, [pc], #257	; 173c <_start-0x68c4>
    1738:	70000002 	andvc	r0, r0, r2
    173c:	01000002 	tsteq	r0, r2
    1740:	00005100 	andeq	r5, r0, r0, lsl #2
    1744:	00000000 	andeq	r0, r0, r0
    1748:	02700000 	rsbseq	r0, r0, #0
    174c:	029c0000 	addseq	r0, ip, #0
    1750:	00010000 	andeq	r0, r1, r0
    1754:	00029c50 	andeq	r9, r2, r0, asr ip
    1758:	0004e400 	andeq	lr, r4, r0, lsl #8
    175c:	5a000100 	bpl	1b64 <_start-0x649c>
    1760:	000004e4 	andeq	r0, r0, r4, ror #9
    1764:	000004f8 	strdeq	r0, [r0], -r8
    1768:	01f30004 	mvnseq	r0, r4
    176c:	00009f50 	andeq	r9, r0, r0, asr pc
    1770:	00000000 	andeq	r0, r0, r0
    1774:	02700000 	rsbseq	r0, r0, #0
    1778:	02840000 	addeq	r0, r4, #0
    177c:	00010000 	andeq	r0, r1, r0
    1780:	00028451 	andeq	r8, r2, r1, asr r4
    1784:	00029c00 	andeq	r9, r2, r0, lsl #24
    1788:	71000300 	mrsvc	r0, LR_irq
    178c:	029c9f01 	addseq	r9, ip, #1, 30
    1790:	04f80000 	ldrbteq	r0, [r8], #0
    1794:	00040000 	andeq	r0, r4, r0
    1798:	9f5101f3 	svcls	0x005101f3
	...
    17a4:	00000270 	andeq	r0, r0, r0, ror r2
    17a8:	000002a4 	andeq	r0, r0, r4, lsr #5
    17ac:	a4520001 	ldrbge	r0, [r2], #-1
    17b0:	cc000002 	stcgt	0, cr0, [r0], {2}
    17b4:	01000002 	tsteq	r0, r2
    17b8:	02cc5200 	sbceq	r5, ip, #0, 4
    17bc:	04940000 	ldreq	r0, [r4], #0
    17c0:	00010000 	andeq	r0, r1, r0
    17c4:	00049456 	andeq	r9, r4, r6, asr r4
    17c8:	0004f800 	andeq	pc, r4, r0, lsl #16
    17cc:	52000100 	andpl	r0, r0, #0, 2
	...
    17d8:	00000270 	andeq	r0, r0, r0, ror r2
    17dc:	0000028c 	andeq	r0, r0, ip, lsl #5
    17e0:	00530001 	subseq	r0, r3, r1
    17e4:	00000000 	andeq	r0, r0, r0
    17e8:	80000000 	andhi	r0, r0, r0
    17ec:	9c000002 	stcls	0, cr0, [r0], {2}
    17f0:	01000002 	tsteq	r0, r2
    17f4:	029c5000 	addseq	r5, ip, #0
    17f8:	02a00000 	adceq	r0, r0, #0
    17fc:	00010000 	andeq	r0, r1, r0
    1800:	0002a054 	andeq	sl, r2, r4, asr r0
    1804:	0002ac00 	andeq	sl, r2, r0, lsl #24
    1808:	74000300 	strvc	r0, [r0], #-768	; 0x300
    180c:	02ac9f01 	adceq	r9, ip, #1, 30
    1810:	02b80000 	adcseq	r0, r8, #0
    1814:	00010000 	andeq	r0, r1, r0
    1818:	0002b854 	andeq	fp, r2, r4, asr r8
    181c:	0002c400 	andeq	ip, r2, r0, lsl #8
    1820:	74000300 	strvc	r0, [r0], #-768	; 0x300
    1824:	02c49f01 	sbceq	r9, r4, #1, 30
    1828:	04980000 	ldreq	r0, [r8], #0
    182c:	00010000 	andeq	r0, r1, r0
    1830:	00049854 	andeq	r9, r4, r4, asr r8
    1834:	0004a400 	andeq	sl, r4, r0, lsl #8
    1838:	74000300 	strvc	r0, [r0], #-768	; 0x300
    183c:	04a49f01 	strteq	r9, [r4], #3841	; 0xf01
    1840:	04d00000 	ldrbeq	r0, [r0], #0
    1844:	00010000 	andeq	r0, r1, r0
    1848:	0004d054 	andeq	sp, r4, r4, asr r0
    184c:	0004dc00 	andeq	sp, r4, r0, lsl #24
    1850:	50000100 	andpl	r0, r0, r0, lsl #2
    1854:	000004dc 	ldrdeq	r0, [r0], -ip
    1858:	000004e4 	andeq	r0, r0, r4, ror #9
    185c:	01740003 	cmneq	r4, r3
    1860:	0000009f 	muleq	r0, pc, r0	; <UNPREDICTABLE>
    1864:	00000000 	andeq	r0, r0, r0
    1868:	00028800 	andeq	r8, r2, r0, lsl #16
    186c:	0004e400 	andeq	lr, r4, r0, lsl #8
    1870:	58000100 	stmdapl	r0, {r8}
    1874:	000004e4 	andeq	r0, r0, r4, ror #9
    1878:	000004f8 	strdeq	r0, [r0], -r8
    187c:	01f3000a 	mvnseq	r0, sl
    1880:	5001f351 	andpl	pc, r1, r1, asr r3	; <UNPREDICTABLE>
    1884:	9f1c3122 	svcls	0x001c3122
	...
    1890:	000003cc 	andeq	r0, r0, ip, asr #7
    1894:	000003d0 	ldrdeq	r0, [r0], -r0	; <UNPREDICTABLE>
    1898:	f0500001 			; <UNDEFINED> instruction: 0xf0500001
    189c:	f4000003 	vst4.8	{d0-d3}, [r0], r3
    18a0:	01000003 	tsteq	r0, r3
    18a4:	04145000 	ldreq	r5, [r4], #-0
    18a8:	04180000 	ldreq	r0, [r8], #-0
    18ac:	00010000 	andeq	r0, r1, r0
    18b0:	00043850 	andeq	r3, r4, r0, asr r8
    18b4:	00043c00 	andeq	r3, r4, r0, lsl #24
    18b8:	50000100 	andpl	r0, r0, r0, lsl #2
    18bc:	00000444 	andeq	r0, r0, r4, asr #8
    18c0:	00000448 	andeq	r0, r0, r8, asr #8
    18c4:	68500001 	ldmdavs	r0, {r0}^
    18c8:	6c000004 	stcvs	0, cr0, [r0], {4}
    18cc:	01000004 	tsteq	r0, r4
    18d0:	04905000 	ldreq	r5, [r0], #0
    18d4:	04b80000 	ldrteq	r0, [r8], #0
    18d8:	00010000 	andeq	r0, r1, r0
    18dc:	00000050 	andeq	r0, r0, r0, asr r0
    18e0:	00000000 	andeq	r0, r0, r0
    18e4:	0002cc00 	andeq	ip, r2, r0, lsl #24
    18e8:	0002d400 	andeq	sp, r2, r0, lsl #8
    18ec:	30000200 	andcc	r0, r0, r0, lsl #4
    18f0:	0002d49f 	muleq	r2, pc, r4	; <UNPREDICTABLE>
    18f4:	0002d800 	andeq	sp, r2, r0, lsl #16
    18f8:	57000100 	strpl	r0, [r0, -r0, lsl #2]
    18fc:	000002e4 	andeq	r0, r0, r4, ror #5
    1900:	000004b8 			; <UNDEFINED> instruction: 0x000004b8
    1904:	00570001 	subseq	r0, r7, r1
    1908:	00000000 	andeq	r0, r0, r0
    190c:	04000000 	streq	r0, [r0], #-0
    1910:	08000000 	stmdaeq	r0, {}	; <UNPREDICTABLE>
    1914:	07000000 	streq	r0, [r0, -r0]
    1918:	0a007300 	beq	1e520 <__bss_end__+0x14240>
    191c:	9f211000 	svcls	0x00211000
    1920:	00000008 	andeq	r0, r0, r8
    1924:	00000010 	andeq	r0, r0, r0, lsl r0
    1928:	00530001 	subseq	r0, r3, r1
    192c:	00000000 	andeq	r0, r0, r0
    1930:	14000000 	strne	r0, [r0], #-0
    1934:	18000000 	stmdane	r0, {}	; <UNPREDICTABLE>
    1938:	07000000 	streq	r0, [r0, -r0]
    193c:	0b007300 	bleq	1e544 <__bss_end__+0x14264>
    1940:	9f1aefff 	svcls	0x001aefff
    1944:	00000018 	andeq	r0, r0, r8, lsl r0
    1948:	00000020 	andeq	r0, r0, r0, lsr #32
    194c:	00530001 	subseq	r0, r3, r1
    1950:	00000000 	andeq	r0, r0, r0
    1954:	14000000 	strne	r0, [r0], #-0
    1958:	1c000000 	stcne	0, cr0, [r0], {-0}
    195c:	03000000 	movweq	r0, #0
    1960:	9f047300 	svcls	0x00047300
    1964:	0000001c 	andeq	r0, r0, ip, lsl r0
    1968:	00000027 	andeq	r0, r0, r7, lsr #32
    196c:	00530001 	subseq	r0, r3, r1
    1970:	00000000 	andeq	r0, r0, r0
    1974:	78000000 	stmdavc	r0, {}	; <UNPREDICTABLE>
    1978:	7c000094 	stcvc	0, cr0, [r0], {148}	; 0x94
    197c:	02000094 	andeq	r0, r0, #148	; 0x94
    1980:	7c9f3000 	ldcvc	0, cr3, [pc], {0}
    1984:	80000094 	mulhi	r0, r4, r0
    1988:	01000094 	swpeq	r0, r4, [r0]	; <UNPREDICTABLE>
    198c:	00005000 	andeq	r5, r0, r0
    1990:	00000000 	andeq	r0, r0, r0
    1994:	94900000 	ldrls	r0, [r0], #0
    1998:	94940000 	ldrls	r0, [r4], #0
    199c:	00020000 	andeq	r0, r2, r0
    19a0:	94949f30 	ldrls	r9, [r4], #3888	; 0xf30
    19a4:	94980000 	ldrls	r0, [r8], #0
    19a8:	00010000 	andeq	r0, r1, r0
    19ac:	00949c53 	addseq	r9, r4, r3, asr ip
    19b0:	0094a400 	addseq	sl, r4, r0, lsl #8
    19b4:	53000100 	movwpl	r0, #256	; 0x100
	...
    19c4:	00000004 	andeq	r0, r0, r4
    19c8:	04500001 	ldrbeq	r0, [r0], #-1
    19cc:	0c000000 	stceq	0, cr0, [r0], {-0}
    19d0:	01000000 	mrseq	r0, (UNDEF: 0)
    19d4:	000c5300 	andeq	r5, ip, r0, lsl #6
    19d8:	00100000 	andseq	r0, r0, r0
    19dc:	00010000 	andeq	r0, r1, r0
    19e0:	00001050 	andeq	r1, r0, r0, asr r0
    19e4:	00001c00 	andeq	r1, r0, r0, lsl #24
    19e8:	53000100 	movwpl	r0, #256	; 0x100
	...
    19f4:	0000003c 	andeq	r0, r0, ip, lsr r0
    19f8:	00000047 	andeq	r0, r0, r7, asr #32
    19fc:	47500001 	ldrbmi	r0, [r0, -r1]
    1a00:	60000000 	andvs	r0, r0, r0
    1a04:	01000000 	mrseq	r0, (UNDEF: 0)
    1a08:	00005500 	andeq	r5, r0, r0, lsl #10
    1a0c:	00000000 	andeq	r0, r0, r0
    1a10:	00500000 	subseq	r0, r0, r0
    1a14:	00540000 	subseq	r0, r4, r0
    1a18:	00010000 	andeq	r0, r1, r0
    1a1c:	00000050 	andeq	r0, r0, r0, asr r0
    1a20:	00000000 	andeq	r0, r0, r0
    1a24:	00006000 	andeq	r6, r0, r0
    1a28:	00006c00 	andeq	r6, r0, r0, lsl #24
    1a2c:	50000100 	andpl	r0, r0, r0, lsl #2
    1a30:	0000006c 	andeq	r0, r0, ip, rrx
    1a34:	00000074 	andeq	r0, r0, r4, ror r0
    1a38:	01f30004 	mvnseq	r0, r4
    1a3c:	00009f50 	andeq	r9, r0, r0, asr pc
    1a40:	00000000 	andeq	r0, r0, r0
    1a44:	00740000 	rsbseq	r0, r4, r0
    1a48:	00800000 	addeq	r0, r0, r0
    1a4c:	00010000 	andeq	r0, r1, r0
    1a50:	00008050 	andeq	r8, r0, r0, asr r0
    1a54:	00008800 	andeq	r8, r0, r0, lsl #16
    1a58:	f3000400 	vshl.u8	d0, d0, d0
    1a5c:	009f5001 	addseq	r5, pc, r1
	...
    1a68:	90000000 	andls	r0, r0, r0
    1a6c:	01000000 	mrseq	r0, (UNDEF: 0)
    1a70:	00905000 	addseq	r5, r0, r0
    1a74:	00d40000 	sbcseq	r0, r4, r0
    1a78:	00010000 	andeq	r0, r1, r0
    1a7c:	00000054 	andeq	r0, r0, r4, asr r0
    1a80:	00000000 	andeq	r0, r0, r0
    1a84:	00004800 	andeq	r4, r0, r0, lsl #16
    1a88:	00004c00 	andeq	r4, r0, r0, lsl #24
    1a8c:	55000100 	strpl	r0, [r0, #-256]	; 0x100
    1a90:	00000054 	andeq	r0, r0, r4, asr r0
    1a94:	00000058 	andeq	r0, r0, r8, asr r0
    1a98:	60550001 	subsvs	r0, r5, r1
    1a9c:	64000000 	strvs	r0, [r0], #-0
    1aa0:	01000000 	mrseq	r0, (UNDEF: 0)
    1aa4:	006c5500 	rsbeq	r5, ip, r0, lsl #10
    1aa8:	00700000 	rsbseq	r0, r0, r0
    1aac:	00010000 	andeq	r0, r1, r0
    1ab0:	00007855 	andeq	r7, r0, r5, asr r8
    1ab4:	00007c00 	andeq	r7, r0, r0, lsl #24
    1ab8:	55000100 	strpl	r0, [r0, #-256]	; 0x100
    1abc:	00000084 	andeq	r0, r0, r4, lsl #1
    1ac0:	00000088 	andeq	r0, r0, r8, lsl #1
    1ac4:	8c550001 	mrrchi	0, 0, r0, r5, cr1
    1ac8:	d4000000 	strle	r0, [r0], #-0
    1acc:	01000000 	mrseq	r0, (UNDEF: 0)
    1ad0:	00005500 	andeq	r5, r0, r0, lsl #10
    1ad4:	00000000 	andeq	r0, r0, r0
    1ad8:	001c0000 	andseq	r0, ip, r0
    1adc:	00440000 	subeq	r0, r4, r0
    1ae0:	00010000 	andeq	r0, r1, r0
    1ae4:	00004453 	andeq	r4, r0, r3, asr r4
    1ae8:	00004c00 	andeq	r4, r0, r0, lsl #24
    1aec:	70001c00 	andvc	r1, r0, r0, lsl #24
    1af0:	f72cf700 			; <UNDEFINED> instruction: 0xf72cf700
    1af4:	0825f425 	stmdaeq	r5!, {r0, r2, r5, sl, ip, sp, lr, pc}
    1af8:	cccccccd 	stclgt	12, cr12, [ip], {205}	; 0xcd
    1afc:	00000000 	andeq	r0, r0, r0
    1b00:	f720081e 			; <UNDEFINED> instruction: 0xf720081e
    1b04:	2cf72525 	cfldr64cs	mvdx2, [r7], #148	; 0x94
    1b08:	4c9f2533 	cfldr32mi	mvfx2, [pc], {51}	; 0x33
    1b0c:	50000000 	andpl	r0, r0, r0
    1b10:	01000000 	mrseq	r0, (UNDEF: 0)
    1b14:	00505300 	subseq	r5, r0, r0, lsl #6
    1b18:	00580000 	subseq	r0, r8, r0
    1b1c:	001c0000 	andseq	r0, ip, r0
    1b20:	2cf70070 	ldclcs	0, cr0, [r7], #448	; 0x1c0
    1b24:	25f425f7 	ldrbcs	r2, [r4, #1527]!	; 0x5f7
    1b28:	cccccd08 	stclgt	13, cr12, [ip], {8}
    1b2c:	000000cc 	andeq	r0, r0, ip, asr #1
    1b30:	20081e00 	andcs	r1, r8, r0, lsl #28
    1b34:	f72525f7 			; <UNDEFINED> instruction: 0xf72525f7
    1b38:	9f25332c 	svcls	0x0025332c
    1b3c:	00000058 	andeq	r0, r0, r8, asr r0
    1b40:	0000005c 	andeq	r0, r0, ip, asr r0
    1b44:	5c530001 	mrrcpl	0, 0, r0, r3, cr1
    1b48:	64000000 	strvs	r0, [r0], #-0
    1b4c:	1c000000 	stcne	0, cr0, [r0], {-0}
    1b50:	f7007000 			; <UNDEFINED> instruction: 0xf7007000
    1b54:	f425f72c 	vld1.8	{d15}, [r5 :128], ip
    1b58:	cccd0825 	stclgt	8, cr0, [sp], {37}	; 0x25
    1b5c:	0000cccc 	andeq	ip, r0, ip, asr #25
    1b60:	081e0000 	ldmdaeq	lr, {}	; <UNPREDICTABLE>
    1b64:	2525f720 	strcs	pc, [r5, #-1824]!	; 0x720
    1b68:	25332cf7 	ldrcs	r2, [r3, #-3319]!	; 0xcf7
    1b6c:	0000649f 	muleq	r0, pc, r4	; <UNPREDICTABLE>
    1b70:	00006800 	andeq	r6, r0, r0, lsl #16
    1b74:	53000100 	movwpl	r0, #256	; 0x100
    1b78:	00000068 	andeq	r0, r0, r8, rrx
    1b7c:	00000070 	andeq	r0, r0, r0, ror r0
    1b80:	0070001c 	rsbseq	r0, r0, ip, lsl r0
    1b84:	25f72cf7 	ldrbcs	r2, [r7, #3319]!	; 0xcf7
    1b88:	cd0825f4 	cfstr32gt	mvfx2, [r8, #-976]	; 0xfffffc30
    1b8c:	00cccccc 	sbceq	ip, ip, ip, asr #25
    1b90:	1e000000 	cdpne	0, 0, cr0, cr0, cr0, {0}
    1b94:	25f72008 	ldrbcs	r2, [r7, #8]!
    1b98:	332cf725 	msrcc	CPSR_fs, #9699328	; 0x940000
    1b9c:	00709f25 	rsbseq	r9, r0, r5, lsr #30
    1ba0:	00740000 	rsbseq	r0, r4, r0
    1ba4:	00010000 	andeq	r0, r1, r0
    1ba8:	00007453 	andeq	r7, r0, r3, asr r4
    1bac:	00007c00 	andeq	r7, r0, r0, lsl #24
    1bb0:	70001c00 	andvc	r1, r0, r0, lsl #24
    1bb4:	f72cf700 			; <UNDEFINED> instruction: 0xf72cf700
    1bb8:	0825f425 	stmdaeq	r5!, {r0, r2, r5, sl, ip, sp, lr, pc}
    1bbc:	cccccccd 	stclgt	12, cr12, [ip], {205}	; 0xcd
    1bc0:	00000000 	andeq	r0, r0, r0
    1bc4:	f720081e 			; <UNDEFINED> instruction: 0xf720081e
    1bc8:	2cf72525 	cfldr64cs	mvdx2, [r7], #148	; 0x94
    1bcc:	7c9f2533 	cfldr32vc	mvfx2, [pc], {51}	; 0x33
    1bd0:	80000000 	andhi	r0, r0, r0
    1bd4:	01000000 	mrseq	r0, (UNDEF: 0)
    1bd8:	00805300 	addeq	r5, r0, r0, lsl #6
    1bdc:	00880000 	addeq	r0, r8, r0
    1be0:	001c0000 	andseq	r0, ip, r0
    1be4:	2cf70070 	ldclcs	0, cr0, [r7], #448	; 0x1c0
    1be8:	25f425f7 	ldrbcs	r2, [r4, #1527]!	; 0x5f7
    1bec:	cccccd08 	stclgt	13, cr12, [ip], {8}
    1bf0:	000000cc 	andeq	r0, r0, ip, asr #1
    1bf4:	20081e00 	andcs	r1, r8, r0, lsl #28
    1bf8:	f72525f7 			; <UNDEFINED> instruction: 0xf72525f7
    1bfc:	9f25332c 	svcls	0x0025332c
    1c00:	00000088 	andeq	r0, r0, r8, lsl #1
    1c04:	0000008c 	andeq	r0, r0, ip, lsl #1
    1c08:	8c530001 	mrrchi	0, 0, r0, r3, cr1
    1c0c:	90000000 	andls	r0, r0, r0
    1c10:	1c000000 	stcne	0, cr0, [r0], {-0}
    1c14:	f7007000 			; <UNDEFINED> instruction: 0xf7007000
    1c18:	f425f72c 	vld1.8	{d15}, [r5 :128], ip
    1c1c:	cccd0825 	stclgt	8, cr0, [sp], {37}	; 0x25
    1c20:	0000cccc 	andeq	ip, r0, ip, asr #25
    1c24:	081e0000 	ldmdaeq	lr, {}	; <UNPREDICTABLE>
    1c28:	2525f720 	strcs	pc, [r5, #-1824]!	; 0x720
    1c2c:	25332cf7 	ldrcs	r2, [r3, #-3319]!	; 0xcf7
    1c30:	0000909f 	muleq	r0, pc, r0	; <UNPREDICTABLE>
    1c34:	00009800 	andeq	r9, r0, r0, lsl #16
    1c38:	74001c00 	strvc	r1, [r0], #-3072	; 0xc00
    1c3c:	f72cf700 			; <UNDEFINED> instruction: 0xf72cf700
    1c40:	0825f425 	stmdaeq	r5!, {r0, r2, r5, sl, ip, sp, lr, pc}
    1c44:	cccccccd 	stclgt	12, cr12, [ip], {205}	; 0xcd
    1c48:	00000000 	andeq	r0, r0, r0
    1c4c:	f720081e 			; <UNDEFINED> instruction: 0xf720081e
    1c50:	2cf72525 	cfldr64cs	mvdx2, [r7], #148	; 0x94
    1c54:	989f2533 	ldmls	pc, {r0, r1, r4, r5, r8, sl, sp}	; <UNPREDICTABLE>
    1c58:	9c000000 	stcls	0, cr0, [r0], {-0}
    1c5c:	17000000 	strne	r0, [r0, -r0]
    1c60:	f7007400 			; <UNDEFINED> instruction: 0xf7007400
    1c64:	7125f72c 	msrvc	SP_abt, ip
    1c68:	f72cf700 			; <UNDEFINED> instruction: 0xf72cf700
    1c6c:	20081e25 	andcs	r1, r8, r5, lsr #28
    1c70:	f72525f7 			; <UNDEFINED> instruction: 0xf72525f7
    1c74:	9f25332c 	svcls	0x0025332c
    1c78:	0000009c 	muleq	r0, ip, r0
    1c7c:	000000d4 	ldrdeq	r0, [r0], -r4
    1c80:	0074001c 	rsbseq	r0, r4, ip, lsl r0
    1c84:	25f72cf7 	ldrbcs	r2, [r7, #3319]!	; 0xcf7
    1c88:	cd0825f4 	cfstr32gt	mvfx2, [r8, #-976]	; 0xfffffc30
    1c8c:	00cccccc 	sbceq	ip, ip, ip, asr #25
    1c90:	1e000000 	cdpne	0, 0, cr0, cr0, cr0, {0}
    1c94:	25f72008 	ldrbcs	r2, [r7, #8]!
    1c98:	332cf725 	msrcc	CPSR_fs, #9699328	; 0x940000
    1c9c:	00009f25 	andeq	r9, r0, r5, lsr #30
    1ca0:	00000000 	andeq	r0, r0, r0
    1ca4:	00940000 	addseq	r0, r4, r0
    1ca8:	00b80000 	adcseq	r0, r8, r0
    1cac:	00010000 	andeq	r0, r1, r0
    1cb0:	0000b850 	andeq	fp, r0, r0, asr r8
    1cb4:	0000c400 	andeq	ip, r0, r0, lsl #8
    1cb8:	31000800 	tstcc	r0, r0, lsl #16
    1cbc:	73240071 	teqvc	r4, #113	; 0x71
    1cc0:	c49f2100 	ldrgt	r2, [pc], #256	; 1cc8 <_start-0x6338>
    1cc4:	c7000000 	strgt	r0, [r0, -r0]
    1cc8:	01000000 	mrseq	r0, (UNDEF: 0)
    1ccc:	00005100 	andeq	r5, r0, r0, lsl #2
    1cd0:	00000000 	andeq	r0, r0, r0
    1cd4:	00d40000 	sbcseq	r0, r4, r0
    1cd8:	00f80000 	rscseq	r0, r8, r0
    1cdc:	00010000 	andeq	r0, r1, r0
    1ce0:	0000f850 	andeq	pc, r0, r0, asr r8	; <UNPREDICTABLE>
    1ce4:	00010c00 	andeq	r0, r1, r0, lsl #24
    1ce8:	f3000400 	vshl.u8	d0, d0, d0
    1cec:	009f5001 	addseq	r5, pc, r1
    1cf0:	00000000 	andeq	r0, r0, r0
    1cf4:	e0000000 	and	r0, r0, r0
    1cf8:	e8000000 	stmda	r0, {}	; <UNPREDICTABLE>
    1cfc:	02000000 	andeq	r0, r0, #0
    1d00:	e89f3000 	ldm	pc, {ip, sp}	; <UNPREDICTABLE>
    1d04:	e8000000 	stmda	r0, {}	; <UNPREDICTABLE>
    1d08:	01000000 	mrseq	r0, (UNDEF: 0)
    1d0c:	00e85200 	rsceq	r5, r8, r0, lsl #4
    1d10:	00f00000 	rscseq	r0, r0, r0
    1d14:	00020000 	andeq	r0, r2, r0
    1d18:	00f09f30 	rscseq	r9, r0, r0, lsr pc
    1d1c:	01030000 	mrseq	r0, (UNDEF: 3)
    1d20:	00010000 	andeq	r0, r1, r0
    1d24:	00000052 	andeq	r0, r0, r2, asr r0
    1d28:	00000000 	andeq	r0, r0, r0
    1d2c:	0000e000 	andeq	lr, r0, r0
    1d30:	0000f400 	andeq	pc, r0, r0, lsl #8
    1d34:	30000200 	andcc	r0, r0, r0, lsl #4
    1d38:	0000f49f 	muleq	r0, pc, r4	; <UNPREDICTABLE>
    1d3c:	00010000 	andeq	r0, r1, r0
    1d40:	31000500 	tstcc	r0, r0, lsl #10
    1d44:	9f240073 	svcls	0x00240073
    1d48:	00000100 	andeq	r0, r0, r0, lsl #2
    1d4c:	00000103 	andeq	r0, r0, r3, lsl #2
    1d50:	03510001 	cmpeq	r1, #1
    1d54:	0c000001 	stceq	0, cr0, [r0], {1}
    1d58:	08000001 	stmdaeq	r0, {r0}
    1d5c:	01f33100 	mvnseq	r3, r0, lsl #2
    1d60:	241a4f50 	ldrcs	r4, [sl], #-3920	; 0xf50
    1d64:	0000009f 	muleq	r0, pc, r0	; <UNPREDICTABLE>
    1d68:	00000000 	andeq	r0, r0, r0
    1d6c:	00010c00 	andeq	r0, r1, r0, lsl #24
    1d70:	00013000 	andeq	r3, r1, r0
    1d74:	50000100 	andpl	r0, r0, r0, lsl #2
    1d78:	00000130 	andeq	r0, r0, r0, lsr r1
    1d7c:	00000144 	andeq	r0, r0, r4, asr #2
    1d80:	01f30004 	mvnseq	r0, r4
    1d84:	00009f50 	andeq	r9, r0, r0, asr pc
    1d88:	00000000 	andeq	r0, r0, r0
    1d8c:	01180000 	tsteq	r8, r0
    1d90:	01200000 	teqeq	r0, r0
    1d94:	00020000 	andeq	r0, r2, r0
    1d98:	01209f30 	teqeq	r0, r0, lsr pc
    1d9c:	01200000 	teqeq	r0, r0
    1da0:	00010000 	andeq	r0, r1, r0
    1da4:	00012052 	andeq	r2, r1, r2, asr r0
    1da8:	00012800 	andeq	r2, r1, r0, lsl #16
    1dac:	30000200 	andcc	r0, r0, r0, lsl #4
    1db0:	0001289f 	muleq	r1, pc, r8	; <UNPREDICTABLE>
    1db4:	00013b00 	andeq	r3, r1, r0, lsl #22
    1db8:	52000100 	andpl	r0, r0, #0, 2
	...
    1dc4:	00000118 	andeq	r0, r0, r8, lsl r1
    1dc8:	0000012c 	andeq	r0, r0, ip, lsr #2
    1dcc:	9f300002 	svcls	0x00300002
    1dd0:	0000012c 	andeq	r0, r0, ip, lsr #2
    1dd4:	00000138 	andeq	r0, r0, r8, lsr r1
    1dd8:	73310005 	teqvc	r1, #5
    1ddc:	389f2400 	ldmcc	pc, {sl, sp}	; <UNPREDICTABLE>
    1de0:	3b000001 	blcc	1dec <_start-0x6214>
    1de4:	01000001 	tsteq	r0, r1
    1de8:	013b5100 	teqeq	fp, r0, lsl #2
    1dec:	01440000 	mrseq	r0, (UNDEF: 68)
    1df0:	00080000 	andeq	r0, r8, r0
    1df4:	5001f331 	andpl	pc, r1, r1, lsr r3	; <UNPREDICTABLE>
    1df8:	9f241a4f 	svcls	0x00241a4f
	...
    1e04:	00000144 	andeq	r0, r0, r4, asr #2
    1e08:	000001d4 	ldrdeq	r0, [r0], -r4
    1e0c:	d4500001 	ldrble	r0, [r0], #-1
    1e10:	10000001 	andne	r0, r0, r1
    1e14:	01000002 	tsteq	r0, r2
    1e18:	00005400 	andeq	r5, r0, r0, lsl #8
    1e1c:	00000000 	andeq	r0, r0, r0
    1e20:	018c0000 	orreq	r0, ip, r0
    1e24:	01900000 	orrseq	r0, r0, r0
    1e28:	00010000 	andeq	r0, r1, r0
    1e2c:	00019855 	andeq	r9, r1, r5, asr r8
    1e30:	00019c00 	andeq	r9, r1, r0, lsl #24
    1e34:	55000100 	strpl	r0, [r0, #-256]	; 0x100
    1e38:	000001a4 	andeq	r0, r0, r4, lsr #3
    1e3c:	000001a8 	andeq	r0, r0, r8, lsr #3
    1e40:	b0550001 	subslt	r0, r5, r1
    1e44:	b4000001 	strlt	r0, [r0], #-1
    1e48:	01000001 	tsteq	r0, r1
    1e4c:	01bc5500 			; <UNDEFINED> instruction: 0x01bc5500
    1e50:	01c00000 	biceq	r0, r0, r0
    1e54:	00010000 	andeq	r0, r1, r0
    1e58:	0001c855 	andeq	ip, r1, r5, asr r8
    1e5c:	0001cc00 	andeq	ip, r1, r0, lsl #24
    1e60:	55000100 	strpl	r0, [r0, #-256]	; 0x100
    1e64:	000001d0 	ldrdeq	r0, [r0], -r0	; <UNPREDICTABLE>
    1e68:	00000210 	andeq	r0, r0, r0, lsl r2
    1e6c:	00550001 	subseq	r0, r5, r1
    1e70:	00000000 	andeq	r0, r0, r0
    1e74:	60000000 	andvs	r0, r0, r0
    1e78:	88000001 	stmdahi	r0, {r0}
    1e7c:	01000001 	tsteq	r0, r1
    1e80:	01885300 	orreq	r5, r8, r0, lsl #6
    1e84:	01900000 	orrseq	r0, r0, r0
    1e88:	001c0000 	andseq	r0, ip, r0
    1e8c:	2cf70070 	ldclcs	0, cr0, [r7], #448	; 0x1c0
    1e90:	25f425f7 	ldrbcs	r2, [r4, #1527]!	; 0x5f7
    1e94:	cccccd08 	stclgt	13, cr12, [ip], {8}
    1e98:	000000cc 	andeq	r0, r0, ip, asr #1
    1e9c:	20081e00 	andcs	r1, r8, r0, lsl #28
    1ea0:	f72525f7 			; <UNDEFINED> instruction: 0xf72525f7
    1ea4:	9f25332c 	svcls	0x0025332c
    1ea8:	00000190 	muleq	r0, r0, r1
    1eac:	00000194 	muleq	r0, r4, r1
    1eb0:	94530001 	ldrbls	r0, [r3], #-1
    1eb4:	9c000001 	stcls	0, cr0, [r0], {1}
    1eb8:	1c000001 	stcne	0, cr0, [r0], {1}
    1ebc:	f7007000 			; <UNDEFINED> instruction: 0xf7007000
    1ec0:	f425f72c 	vld1.8	{d15}, [r5 :128], ip
    1ec4:	cccd0825 	stclgt	8, cr0, [sp], {37}	; 0x25
    1ec8:	0000cccc 	andeq	ip, r0, ip, asr #25
    1ecc:	081e0000 	ldmdaeq	lr, {}	; <UNPREDICTABLE>
    1ed0:	2525f720 	strcs	pc, [r5, #-1824]!	; 0x720
    1ed4:	25332cf7 	ldrcs	r2, [r3, #-3319]!	; 0xcf7
    1ed8:	00019c9f 	muleq	r1, pc, ip	; <UNPREDICTABLE>
    1edc:	0001a000 	andeq	sl, r1, r0
    1ee0:	53000100 	movwpl	r0, #256	; 0x100
    1ee4:	000001a0 	andeq	r0, r0, r0, lsr #3
    1ee8:	000001a8 	andeq	r0, r0, r8, lsr #3
    1eec:	0070001c 	rsbseq	r0, r0, ip, lsl r0
    1ef0:	25f72cf7 	ldrbcs	r2, [r7, #3319]!	; 0xcf7
    1ef4:	cd0825f4 	cfstr32gt	mvfx2, [r8, #-976]	; 0xfffffc30
    1ef8:	00cccccc 	sbceq	ip, ip, ip, asr #25
    1efc:	1e000000 	cdpne	0, 0, cr0, cr0, cr0, {0}
    1f00:	25f72008 	ldrbcs	r2, [r7, #8]!
    1f04:	332cf725 	msrcc	CPSR_fs, #9699328	; 0x940000
    1f08:	01a89f25 			; <UNDEFINED> instruction: 0x01a89f25
    1f0c:	01ac0000 			; <UNDEFINED> instruction: 0x01ac0000
    1f10:	00010000 	andeq	r0, r1, r0
    1f14:	0001ac53 	andeq	sl, r1, r3, asr ip
    1f18:	0001b400 	andeq	fp, r1, r0, lsl #8
    1f1c:	70001c00 	andvc	r1, r0, r0, lsl #24
    1f20:	f72cf700 			; <UNDEFINED> instruction: 0xf72cf700
    1f24:	0825f425 	stmdaeq	r5!, {r0, r2, r5, sl, ip, sp, lr, pc}
    1f28:	cccccccd 	stclgt	12, cr12, [ip], {205}	; 0xcd
    1f2c:	00000000 	andeq	r0, r0, r0
    1f30:	f720081e 			; <UNDEFINED> instruction: 0xf720081e
    1f34:	2cf72525 	cfldr64cs	mvdx2, [r7], #148	; 0x94
    1f38:	b49f2533 	ldrlt	r2, [pc], #1331	; 1f40 <_start-0x60c0>
    1f3c:	b8000001 	stmdalt	r0, {r0}
    1f40:	01000001 	tsteq	r0, r1
    1f44:	01b85300 			; <UNDEFINED> instruction: 0x01b85300
    1f48:	01c00000 	biceq	r0, r0, r0
    1f4c:	001c0000 	andseq	r0, ip, r0
    1f50:	2cf70070 	ldclcs	0, cr0, [r7], #448	; 0x1c0
    1f54:	25f425f7 	ldrbcs	r2, [r4, #1527]!	; 0x5f7
    1f58:	cccccd08 	stclgt	13, cr12, [ip], {8}
    1f5c:	000000cc 	andeq	r0, r0, ip, asr #1
    1f60:	20081e00 	andcs	r1, r8, r0, lsl #28
    1f64:	f72525f7 			; <UNDEFINED> instruction: 0xf72525f7
    1f68:	9f25332c 	svcls	0x0025332c
    1f6c:	000001c0 	andeq	r0, r0, r0, asr #3
    1f70:	000001c4 	andeq	r0, r0, r4, asr #3
    1f74:	c4530001 	ldrbgt	r0, [r3], #-1
    1f78:	cc000001 	stcgt	0, cr0, [r0], {1}
    1f7c:	1c000001 	stcne	0, cr0, [r0], {1}
    1f80:	f7007000 			; <UNDEFINED> instruction: 0xf7007000
    1f84:	f425f72c 	vld1.8	{d15}, [r5 :128], ip
    1f88:	cccd0825 	stclgt	8, cr0, [sp], {37}	; 0x25
    1f8c:	0000cccc 	andeq	ip, r0, ip, asr #25
    1f90:	081e0000 	ldmdaeq	lr, {}	; <UNPREDICTABLE>
    1f94:	2525f720 	strcs	pc, [r5, #-1824]!	; 0x720
    1f98:	25332cf7 	ldrcs	r2, [r3, #-3319]!	; 0xcf7
    1f9c:	0001cc9f 	muleq	r1, pc, ip	; <UNPREDICTABLE>
    1fa0:	0001d000 	andeq	sp, r1, r0
    1fa4:	53000100 	movwpl	r0, #256	; 0x100
    1fa8:	000001d0 	ldrdeq	r0, [r0], -r0	; <UNPREDICTABLE>
    1fac:	000001d4 	ldrdeq	r0, [r0], -r4
    1fb0:	0070001c 	rsbseq	r0, r0, ip, lsl r0
    1fb4:	25f72cf7 	ldrbcs	r2, [r7, #3319]!	; 0xcf7
    1fb8:	cd0825f4 	cfstr32gt	mvfx2, [r8, #-976]	; 0xfffffc30
    1fbc:	00cccccc 	sbceq	ip, ip, ip, asr #25
    1fc0:	1e000000 	cdpne	0, 0, cr0, cr0, cr0, {0}
    1fc4:	25f72008 	ldrbcs	r2, [r7, #8]!
    1fc8:	332cf725 	msrcc	CPSR_fs, #9699328	; 0x940000
    1fcc:	01d49f25 	bicseq	r9, r4, r5, lsr #30
    1fd0:	01dc0000 	bicseq	r0, ip, r0
    1fd4:	001c0000 	andseq	r0, ip, r0
    1fd8:	2cf70074 	ldclcs	0, cr0, [r7], #464	; 0x1d0
    1fdc:	25f425f7 	ldrbcs	r2, [r4, #1527]!	; 0x5f7
    1fe0:	cccccd08 	stclgt	13, cr12, [ip], {8}
    1fe4:	000000cc 	andeq	r0, r0, ip, asr #1
    1fe8:	20081e00 	andcs	r1, r8, r0, lsl #28
    1fec:	f72525f7 			; <UNDEFINED> instruction: 0xf72525f7
    1ff0:	9f25332c 	svcls	0x0025332c
    1ff4:	000001dc 	ldrdeq	r0, [r0], -ip
    1ff8:	000001e0 	andeq	r0, r0, r0, ror #3
    1ffc:	00740017 	rsbseq	r0, r4, r7, lsl r0
    2000:	25f72cf7 	ldrbcs	r2, [r7, #3319]!	; 0xcf7
    2004:	2cf70071 	ldclcs	0, cr0, [r7], #452	; 0x1c4
    2008:	081e25f7 	ldmdaeq	lr, {r0, r1, r2, r4, r5, r6, r7, r8, sl, sp}
    200c:	2525f720 	strcs	pc, [r5, #-1824]!	; 0x720
    2010:	25332cf7 	ldrcs	r2, [r3, #-3319]!	; 0xcf7
    2014:	0001e09f 	muleq	r1, pc, r0	; <UNPREDICTABLE>
    2018:	00021000 	andeq	r1, r2, r0
    201c:	74001c00 	strvc	r1, [r0], #-3072	; 0xc00
    2020:	f72cf700 			; <UNDEFINED> instruction: 0xf72cf700
    2024:	0825f425 	stmdaeq	r5!, {r0, r2, r5, sl, ip, sp, lr, pc}
    2028:	cccccccd 	stclgt	12, cr12, [ip], {205}	; 0xcd
    202c:	00000000 	andeq	r0, r0, r0
    2030:	f720081e 			; <UNDEFINED> instruction: 0xf720081e
    2034:	2cf72525 	cfldr64cs	mvdx2, [r7], #148	; 0x94
    2038:	009f2533 	addseq	r2, pc, r3, lsr r5	; <UNPREDICTABLE>
    203c:	00000000 	andeq	r0, r0, r0
    2040:	d8000000 	stmdale	r0, {}	; <UNPREDICTABLE>
    2044:	fc000001 	stc2	0, cr0, [r0], {1}
    2048:	01000001 	tsteq	r0, r1
    204c:	01fc5000 	mvnseq	r5, r0
    2050:	02030000 	andeq	r0, r3, #0
    2054:	00010000 	andeq	r0, r1, r0
    2058:	00000051 	andeq	r0, r0, r1, asr r0
    205c:	00000000 	andeq	r0, r0, r0
    2060:	00021000 	andeq	r1, r2, r0
    2064:	00022c00 	andeq	r2, r2, r0, lsl #24
    2068:	50000100 	andpl	r0, r0, r0, lsl #2
    206c:	0000022c 	andeq	r0, r0, ip, lsr #4
    2070:	00000234 	andeq	r0, r0, r4, lsr r2
    2074:	34540001 	ldrbcc	r0, [r4], #-1
    2078:	3c000002 	stccc	0, cr0, [r0], {2}
    207c:	01000002 	tsteq	r0, r2
    2080:	023c5000 	eorseq	r5, ip, #0
    2084:	02440000 	subeq	r0, r4, #0
    2088:	00010000 	andeq	r0, r1, r0
    208c:	00024454 	andeq	r4, r2, r4, asr r4
    2090:	00025000 	andeq	r5, r2, r0
    2094:	f3000400 	vshl.u8	d0, d0, d0
    2098:	509f5001 	addspl	r5, pc, r1
    209c:	54000002 	strpl	r0, [r0], #-2
    20a0:	01000002 	tsteq	r0, r2
    20a4:	02545000 	subseq	r5, r4, #0
    20a8:	025c0000 	subseq	r0, ip, #0
    20ac:	00010000 	andeq	r0, r1, r0
    20b0:	00000054 	andeq	r0, r0, r4, asr r0
    20b4:	00000000 	andeq	r0, r0, r0
    20b8:	00022000 	andeq	r2, r2, r0
    20bc:	00023000 	andeq	r3, r2, r0
    20c0:	30000200 	andcc	r0, r0, r0, lsl #4
    20c4:	0002309f 	muleq	r2, pc, r0	; <UNPREDICTABLE>
    20c8:	00023400 	andeq	r3, r2, r0, lsl #8
    20cc:	50000100 	andpl	r0, r0, r0, lsl #2
    20d0:	00000234 	andeq	r0, r0, r4, lsr r2
    20d4:	00000240 	andeq	r0, r0, r0, asr #4
    20d8:	9f300002 	svcls	0x00300002
    20dc:	00000240 	andeq	r0, r0, r0, asr #4
    20e0:	0000024c 	andeq	r0, r0, ip, asr #4
    20e4:	00500001 	subseq	r0, r0, r1
    20e8:	00000000 	andeq	r0, r0, r0
    20ec:	5c000000 	stcpl	0, cr0, [r0], {-0}
    20f0:	73000002 	movwvc	r0, #2
    20f4:	01000002 	tsteq	r0, r2
    20f8:	02735000 	rsbseq	r5, r3, #0
    20fc:	02780000 	rsbseq	r0, r8, #0
    2100:	00040000 	andeq	r0, r4, r0
    2104:	9f5001f3 	svcls	0x005001f3
    2108:	00000278 	andeq	r0, r0, r8, ror r2
    210c:	0000027b 	andeq	r0, r0, fp, ror r2
    2110:	7b500001 	blvc	140211c <__bss_end__+0x13f7e3c>
    2114:	80000002 	andhi	r0, r0, r2
    2118:	04000002 	streq	r0, [r0], #-2
    211c:	5001f300 	andpl	pc, r1, r0, lsl #6
    2120:	0000009f 	muleq	r0, pc, r0	; <UNPREDICTABLE>
    2124:	00000000 	andeq	r0, r0, r0
    2128:	00025c00 	andeq	r5, r2, r0, lsl #24
    212c:	00027300 	andeq	r7, r2, r0, lsl #6
    2130:	51000100 	mrspl	r0, (UNDEF: 16)
    2134:	00000273 	andeq	r0, r0, r3, ror r2
    2138:	00000278 	andeq	r0, r0, r8, ror r2
    213c:	01f30004 	mvnseq	r0, r4
    2140:	02789f51 	rsbseq	r9, r8, #324	; 0x144
    2144:	027b0000 	rsbseq	r0, fp, #0
    2148:	00010000 	andeq	r0, r1, r0
    214c:	00027b51 	andeq	r7, r2, r1, asr fp
    2150:	00028000 	andeq	r8, r2, r0
    2154:	f3000400 	vshl.u8	d0, d0, d0
    2158:	009f5101 	addseq	r5, pc, r1, lsl #2
    215c:	00000000 	andeq	r0, r0, r0
    2160:	80000000 	andhi	r0, r0, r0
    2164:	18000002 	stmdane	r0, {r1}
    2168:	01000003 	tsteq	r0, r3
    216c:	03185000 	tsteq	r8, #0
    2170:	03580000 	cmpeq	r8, #0
    2174:	00010000 	andeq	r0, r1, r0
    2178:	00000054 	andeq	r0, r0, r4, asr r0
    217c:	00000000 	andeq	r0, r0, r0
    2180:	00028000 	andeq	r8, r2, r0
    2184:	00031b00 	andeq	r1, r3, r0, lsl #22
    2188:	51000100 	mrspl	r0, (UNDEF: 16)
    218c:	0000031b 	andeq	r0, r0, fp, lsl r3
    2190:	00000358 	andeq	r0, r0, r8, asr r3
    2194:	01f30004 	mvnseq	r0, r4
    2198:	00009f51 	andeq	r9, r0, r1, asr pc
    219c:	00000000 	andeq	r0, r0, r0
    21a0:	02d00000 	sbcseq	r0, r0, #0
    21a4:	02d40000 	sbcseq	r0, r4, #0
    21a8:	00010000 	andeq	r0, r1, r0
    21ac:	0002dc56 	andeq	sp, r2, r6, asr ip
    21b0:	0002e000 	andeq	lr, r2, r0
    21b4:	56000100 	strpl	r0, [r0], -r0, lsl #2
    21b8:	000002e8 	andeq	r0, r0, r8, ror #5
    21bc:	000002ec 	andeq	r0, r0, ip, ror #5
    21c0:	f4560001 			; <UNDEFINED> instruction: 0xf4560001
    21c4:	f8000002 			; <UNDEFINED> instruction: 0xf8000002
    21c8:	01000002 	tsteq	r0, r2
    21cc:	03005600 	movweq	r5, #1536	; 0x600
    21d0:	03040000 	movweq	r0, #16384	; 0x4000
    21d4:	00010000 	andeq	r0, r1, r0
    21d8:	00030c56 	andeq	r0, r3, r6, asr ip
    21dc:	00031000 	andeq	r1, r3, r0
    21e0:	56000100 	strpl	r0, [r0], -r0, lsl #2
    21e4:	00000314 	andeq	r0, r0, r4, lsl r3
    21e8:	00000358 	andeq	r0, r0, r8, asr r3
    21ec:	00560001 	subseq	r0, r6, r1
    21f0:	00000000 	andeq	r0, r0, r0
    21f4:	a4000000 	strge	r0, [r0], #-0
    21f8:	cc000002 	stcgt	0, cr0, [r0], {2}
    21fc:	01000002 	tsteq	r0, r2
    2200:	02cc5300 	sbceq	r5, ip, #0, 6
    2204:	02d40000 	sbcseq	r0, r4, #0
    2208:	001c0000 	andseq	r0, ip, r0
    220c:	2cf70070 	ldclcs	0, cr0, [r7], #448	; 0x1c0
    2210:	25f425f7 	ldrbcs	r2, [r4, #1527]!	; 0x5f7
    2214:	cccccd08 	stclgt	13, cr12, [ip], {8}
    2218:	000000cc 	andeq	r0, r0, ip, asr #1
    221c:	20081e00 	andcs	r1, r8, r0, lsl #28
    2220:	f72525f7 			; <UNDEFINED> instruction: 0xf72525f7
    2224:	9f25332c 	svcls	0x0025332c
    2228:	000002d4 	ldrdeq	r0, [r0], -r4
    222c:	000002d8 	ldrdeq	r0, [r0], -r8
    2230:	d8530001 	ldmdale	r3, {r0}^
    2234:	e0000002 	and	r0, r0, r2
    2238:	1c000002 	stcne	0, cr0, [r0], {2}
    223c:	f7007000 			; <UNDEFINED> instruction: 0xf7007000
    2240:	f425f72c 	vld1.8	{d15}, [r5 :128], ip
    2244:	cccd0825 	stclgt	8, cr0, [sp], {37}	; 0x25
    2248:	0000cccc 	andeq	ip, r0, ip, asr #25
    224c:	081e0000 	ldmdaeq	lr, {}	; <UNPREDICTABLE>
    2250:	2525f720 	strcs	pc, [r5, #-1824]!	; 0x720
    2254:	25332cf7 	ldrcs	r2, [r3, #-3319]!	; 0xcf7
    2258:	0002e09f 	muleq	r2, pc, r0	; <UNPREDICTABLE>
    225c:	0002e400 	andeq	lr, r2, r0, lsl #8
    2260:	53000100 	movwpl	r0, #256	; 0x100
    2264:	000002e4 	andeq	r0, r0, r4, ror #5
    2268:	000002ec 	andeq	r0, r0, ip, ror #5
    226c:	0070001c 	rsbseq	r0, r0, ip, lsl r0
    2270:	25f72cf7 	ldrbcs	r2, [r7, #3319]!	; 0xcf7
    2274:	cd0825f4 	cfstr32gt	mvfx2, [r8, #-976]	; 0xfffffc30
    2278:	00cccccc 	sbceq	ip, ip, ip, asr #25
    227c:	1e000000 	cdpne	0, 0, cr0, cr0, cr0, {0}
    2280:	25f72008 	ldrbcs	r2, [r7, #8]!
    2284:	332cf725 	msrcc	CPSR_fs, #9699328	; 0x940000
    2288:	02ec9f25 	rsceq	r9, ip, #37, 30	; 0x94
    228c:	02f00000 	rscseq	r0, r0, #0
    2290:	00010000 	andeq	r0, r1, r0
    2294:	0002f053 	andeq	pc, r2, r3, asr r0	; <UNPREDICTABLE>
    2298:	0002f800 	andeq	pc, r2, r0, lsl #16
    229c:	70001c00 	andvc	r1, r0, r0, lsl #24
    22a0:	f72cf700 			; <UNDEFINED> instruction: 0xf72cf700
    22a4:	0825f425 	stmdaeq	r5!, {r0, r2, r5, sl, ip, sp, lr, pc}
    22a8:	cccccccd 	stclgt	12, cr12, [ip], {205}	; 0xcd
    22ac:	00000000 	andeq	r0, r0, r0
    22b0:	f720081e 			; <UNDEFINED> instruction: 0xf720081e
    22b4:	2cf72525 	cfldr64cs	mvdx2, [r7], #148	; 0x94
    22b8:	f89f2533 			; <UNDEFINED> instruction: 0xf89f2533
    22bc:	fc000002 	stc2	0, cr0, [r0], {2}
    22c0:	01000002 	tsteq	r0, r2
    22c4:	02fc5300 	rscseq	r5, ip, #0, 6
    22c8:	03040000 	movweq	r0, #16384	; 0x4000
    22cc:	001c0000 	andseq	r0, ip, r0
    22d0:	2cf70070 	ldclcs	0, cr0, [r7], #448	; 0x1c0
    22d4:	25f425f7 	ldrbcs	r2, [r4, #1527]!	; 0x5f7
    22d8:	cccccd08 	stclgt	13, cr12, [ip], {8}
    22dc:	000000cc 	andeq	r0, r0, ip, asr #1
    22e0:	20081e00 	andcs	r1, r8, r0, lsl #28
    22e4:	f72525f7 			; <UNDEFINED> instruction: 0xf72525f7
    22e8:	9f25332c 	svcls	0x0025332c
    22ec:	00000304 	andeq	r0, r0, r4, lsl #6
    22f0:	00000308 	andeq	r0, r0, r8, lsl #6
    22f4:	08530001 	ldmdaeq	r3, {r0}^
    22f8:	10000003 	andne	r0, r0, r3
    22fc:	1c000003 	stcne	0, cr0, [r0], {3}
    2300:	f7007000 			; <UNDEFINED> instruction: 0xf7007000
    2304:	f425f72c 	vld1.8	{d15}, [r5 :128], ip
    2308:	cccd0825 	stclgt	8, cr0, [sp], {37}	; 0x25
    230c:	0000cccc 	andeq	ip, r0, ip, asr #25
    2310:	081e0000 	ldmdaeq	lr, {}	; <UNPREDICTABLE>
    2314:	2525f720 	strcs	pc, [r5, #-1824]!	; 0x720
    2318:	25332cf7 	ldrcs	r2, [r3, #-3319]!	; 0xcf7
    231c:	0003109f 	muleq	r3, pc, r0	; <UNPREDICTABLE>
    2320:	00031400 	andeq	r1, r3, r0, lsl #8
    2324:	53000100 	movwpl	r0, #256	; 0x100
    2328:	00000314 	andeq	r0, r0, r4, lsl r3
    232c:	00000318 	andeq	r0, r0, r8, lsl r3
    2330:	0070001c 	rsbseq	r0, r0, ip, lsl r0
    2334:	25f72cf7 	ldrbcs	r2, [r7, #3319]!	; 0xcf7
    2338:	cd0825f4 	cfstr32gt	mvfx2, [r8, #-976]	; 0xfffffc30
    233c:	00cccccc 	sbceq	ip, ip, ip, asr #25
    2340:	1e000000 	cdpne	0, 0, cr0, cr0, cr0, {0}
    2344:	25f72008 	ldrbcs	r2, [r7, #8]!
    2348:	332cf725 	msrcc	CPSR_fs, #9699328	; 0x940000
    234c:	03189f25 	tsteq	r8, #37, 30	; 0x94
    2350:	03200000 	teqeq	r0, #0
    2354:	001c0000 	andseq	r0, ip, r0
    2358:	2cf70074 	ldclcs	0, cr0, [r7], #464	; 0x1d0
    235c:	25f425f7 	ldrbcs	r2, [r4, #1527]!	; 0x5f7
    2360:	cccccd08 	stclgt	13, cr12, [ip], {8}
    2364:	000000cc 	andeq	r0, r0, ip, asr #1
    2368:	20081e00 	andcs	r1, r8, r0, lsl #28
    236c:	f72525f7 			; <UNDEFINED> instruction: 0xf72525f7
    2370:	9f25332c 	svcls	0x0025332c
    2374:	00000320 	andeq	r0, r0, r0, lsr #6
    2378:	00000324 	andeq	r0, r0, r4, lsr #6
    237c:	00740017 	rsbseq	r0, r4, r7, lsl r0
    2380:	25f72cf7 	ldrbcs	r2, [r7, #3319]!	; 0xcf7
    2384:	2cf70073 	ldclcs	0, cr0, [r7], #460	; 0x1cc
    2388:	081e25f7 	ldmdaeq	lr, {r0, r1, r2, r4, r5, r6, r7, r8, sl, sp}
    238c:	2525f720 	strcs	pc, [r5, #-1824]!	; 0x720
    2390:	25332cf7 	ldrcs	r2, [r3, #-3319]!	; 0xcf7
    2394:	0003249f 	muleq	r3, pc, r4	; <UNPREDICTABLE>
    2398:	00035800 	andeq	r5, r3, r0, lsl #16
    239c:	74001c00 	strvc	r1, [r0], #-3072	; 0xc00
    23a0:	f72cf700 			; <UNDEFINED> instruction: 0xf72cf700
    23a4:	0825f425 	stmdaeq	r5!, {r0, r2, r5, sl, ip, sp, lr, pc}
    23a8:	cccccccd 	stclgt	12, cr12, [ip], {205}	; 0xcd
    23ac:	00000000 	andeq	r0, r0, r0
    23b0:	f720081e 			; <UNDEFINED> instruction: 0xf720081e
    23b4:	2cf72525 	cfldr64cs	mvdx2, [r7], #148	; 0x94
    23b8:	009f2533 	addseq	r2, pc, r3, lsr r5	; <UNPREDICTABLE>
    23bc:	00000000 	andeq	r0, r0, r0
    23c0:	1c000000 	stcne	0, cr0, [r0], {-0}
    23c4:	40000003 	andmi	r0, r0, r3
    23c8:	01000003 	tsteq	r0, r3
    23cc:	03405000 	movteq	r5, #0
    23d0:	03480000 	movteq	r0, #32768	; 0x8000
    23d4:	00090000 	andeq	r0, r9, r0
    23d8:	00730075 	rsbseq	r0, r3, r5, ror r0
    23dc:	21007124 	tstcs	r0, r4, lsr #2
    23e0:	0003489f 	muleq	r3, pc, r8	; <UNPREDICTABLE>
    23e4:	00034b00 	andeq	r4, r3, r0, lsl #22
    23e8:	51000100 	mrspl	r0, (UNDEF: 16)
	...
    23f4:	00000358 	andeq	r0, r0, r8, asr r3
    23f8:	0000037c 	andeq	r0, r0, ip, ror r3
    23fc:	7c500001 	mrrcvc	0, 0, r0, r0, cr1	; <UNPREDICTABLE>
    2400:	90000003 	andls	r0, r0, r3
    2404:	04000003 	streq	r0, [r0], #-3
    2408:	5001f300 	andpl	pc, r1, r0, lsl #6
    240c:	0000009f 	muleq	r0, pc, r0	; <UNPREDICTABLE>
    2410:	00000000 	andeq	r0, r0, r0
    2414:	00036400 	andeq	r6, r3, r0, lsl #8
    2418:	00036c00 	andeq	r6, r3, r0, lsl #24
    241c:	30000200 	andcc	r0, r0, r0, lsl #4
    2420:	00036c9f 	muleq	r3, pc, ip	; <UNPREDICTABLE>
    2424:	00036c00 	andeq	r6, r3, r0, lsl #24
    2428:	52000100 	andpl	r0, r0, #0, 2
    242c:	0000036c 	andeq	r0, r0, ip, ror #6
    2430:	00000374 	andeq	r0, r0, r4, ror r3
    2434:	9f300002 	svcls	0x00300002
    2438:	00000374 	andeq	r0, r0, r4, ror r3
    243c:	00000387 	andeq	r0, r0, r7, lsl #7
    2440:	00520001 	subseq	r0, r2, r1
    2444:	00000000 	andeq	r0, r0, r0
    2448:	64000000 	strvs	r0, [r0], #-0
    244c:	78000003 	stmdavc	r0, {r0, r1}
    2450:	02000003 	andeq	r0, r0, #3
    2454:	789f3000 	ldmvc	pc, {ip, sp}	; <UNPREDICTABLE>
    2458:	84000003 	strhi	r0, [r0], #-3
    245c:	05000003 	streq	r0, [r0, #-3]
    2460:	00733100 	rsbseq	r3, r3, r0, lsl #2
    2464:	03849f24 	orreq	r9, r4, #36, 30	; 0x90
    2468:	03870000 	orreq	r0, r7, #0
    246c:	00010000 	andeq	r0, r1, r0
    2470:	00038751 	andeq	r8, r3, r1, asr r7
    2474:	00039000 	andeq	r9, r3, r0
    2478:	31000800 	tstcc	r0, r0, lsl #16
    247c:	4f5001f3 	svcmi	0x005001f3
    2480:	009f241a 	addseq	r2, pc, sl, lsl r4	; <UNPREDICTABLE>
    2484:	00000000 	andeq	r0, r0, r0
    2488:	90000000 	andls	r0, r0, r0
    248c:	9c000003 	stcls	0, cr0, [r0], {3}
    2490:	01000003 	tsteq	r0, r3
    2494:	039c5000 	orrseq	r5, ip, #0
    2498:	03bc0000 			; <UNDEFINED> instruction: 0x03bc0000
    249c:	00040000 	andeq	r0, r4, r0
    24a0:	9f5001f3 	svcls	0x005001f3
	...
    24ac:	000003bc 			; <UNDEFINED> instruction: 0x000003bc
    24b0:	000003cf 	andeq	r0, r0, pc, asr #7
    24b4:	cf500001 	svcgt	0x00500001
    24b8:	08000003 	stmdaeq	r0, {r0, r1}
    24bc:	01000004 	tsteq	r0, r4
    24c0:	04085400 	streq	r5, [r8], #-1024	; 0x400
    24c4:	04400000 	strbeq	r0, [r0], #-0
    24c8:	00040000 	andeq	r0, r4, r0
    24cc:	9f5001f3 	svcls	0x005001f3
	...
    24d8:	00000428 	andeq	r0, r0, r8, lsr #8
    24dc:	0000042c 	andeq	r0, r0, ip, lsr #8
    24e0:	2c500001 	mrrccs	0, 0, r0, r0, cr1	; <UNPREDICTABLE>
    24e4:	33000004 	movwcc	r0, #4
    24e8:	01000004 	tsteq	r0, r4
    24ec:	00005100 	andeq	r5, r0, r0, lsl #2
    24f0:	00000000 	andeq	r0, r0, r0
    24f4:	03e40000 	mvneq	r0, #0
    24f8:	03ec0000 	mvneq	r0, #0
    24fc:	00010000 	andeq	r0, r1, r0
    2500:	0003ec50 	andeq	lr, r3, r0, asr ip
    2504:	0003f300 	andeq	pc, r3, r0, lsl #6
    2508:	51000100 	mrspl	r0, (UNDEF: 16)
	...
    2514:	00000404 	andeq	r0, r0, r4, lsl #8
    2518:	00000410 	andeq	r0, r0, r0, lsl r4
    251c:	10500001 	subsne	r0, r0, r1
    2520:	17000004 	strne	r0, [r0, -r4]
    2524:	01000004 	tsteq	r0, r4
    2528:	00005100 	andeq	r5, r0, r0, lsl #2
    252c:	00000000 	andeq	r0, r0, r0
    2530:	04400000 	strbeq	r0, [r0], #-0
    2534:	04530000 	ldrbeq	r0, [r3], #-0
    2538:	00010000 	andeq	r0, r1, r0
    253c:	00045350 	andeq	r5, r4, r0, asr r3
    2540:	00048c00 	andeq	r8, r4, r0, lsl #24
    2544:	54000100 	strpl	r0, [r0], #-256	; 0x100
    2548:	0000048c 	andeq	r0, r0, ip, lsl #9
    254c:	000004c4 	andeq	r0, r0, r4, asr #9
    2550:	01f30004 	mvnseq	r0, r4
    2554:	00009f50 	andeq	r9, r0, r0, asr pc
    2558:	00000000 	andeq	r0, r0, r0
    255c:	04ac0000 	strteq	r0, [ip], #0
    2560:	04b00000 	ldrteq	r0, [r0], #0
    2564:	00010000 	andeq	r0, r1, r0
    2568:	0004b050 	andeq	fp, r4, r0, asr r0
    256c:	0004b700 	andeq	fp, r4, r0, lsl #14
    2570:	51000100 	mrspl	r0, (UNDEF: 16)
	...
    257c:	00000468 	andeq	r0, r0, r8, ror #8
    2580:	00000470 	andeq	r0, r0, r0, ror r4
    2584:	70500001 	subsvc	r0, r0, r1
    2588:	77000004 	strvc	r0, [r0, -r4]
    258c:	01000004 	tsteq	r0, r4
    2590:	00005100 	andeq	r5, r0, r0, lsl #2
    2594:	00000000 	andeq	r0, r0, r0
    2598:	04880000 	streq	r0, [r8], #0
    259c:	04940000 	ldreq	r0, [r4], #0
    25a0:	00010000 	andeq	r0, r1, r0
    25a4:	00049450 	andeq	r9, r4, r0, asr r4
    25a8:	00049b00 	andeq	r9, r4, r0, lsl #22
    25ac:	51000100 	mrspl	r0, (UNDEF: 16)
	...
    25b8:	000004c4 	andeq	r0, r0, r4, asr #9
    25bc:	000004d7 	ldrdeq	r0, [r0], -r7
    25c0:	d7500001 	ldrble	r0, [r0, -r1]
    25c4:	18000004 	stmdane	r0, {r2}
    25c8:	01000005 	tsteq	r0, r5
    25cc:	05185400 	ldreq	r5, [r8, #-1024]	; 0x400
    25d0:	053c0000 	ldreq	r0, [ip, #-0]!
    25d4:	00040000 	andeq	r0, r4, r0
    25d8:	9f5001f3 	svcls	0x005001f3
    25dc:	0000053c 	andeq	r0, r0, ip, lsr r5
    25e0:	00000540 	andeq	r0, r0, r0, asr #10
    25e4:	40500001 	subsmi	r0, r0, r1
    25e8:	48000005 	stmdami	r0, {r0, r2}
    25ec:	01000005 	tsteq	r0, r5
    25f0:	00005400 	andeq	r5, r0, r0, lsl #8
    25f4:	00000000 	andeq	r0, r0, r0
    25f8:	04ec0000 	strbteq	r0, [ip], #0
    25fc:	04fb0000 	ldrbteq	r0, [fp], #0
    2600:	00080000 	andeq	r0, r8, r0
    2604:	24007431 	strcs	r7, [r0], #-1073	; 0x431
    2608:	9f1a0070 	svcls	0x001a0070
	...
    2614:	00000518 	andeq	r0, r0, r8, lsl r5
    2618:	00000530 	andeq	r0, r0, r0, lsr r5
    261c:	00540001 	subseq	r0, r4, r1
    2620:	00000000 	andeq	r0, r0, r0
    2624:	48000000 	stmdami	r0, {}	; <UNPREDICTABLE>
    2628:	5b000005 	blpl	2644 <_start-0x59bc>
    262c:	01000005 	tsteq	r0, r5
    2630:	055b5000 	ldrbeq	r5, [fp, #-0]
    2634:	05800000 	streq	r0, [r0]
    2638:	00010000 	andeq	r0, r1, r0
    263c:	00058054 	andeq	r8, r5, r4, asr r0
    2640:	0005a000 	andeq	sl, r5, r0
    2644:	f3000400 	vshl.u8	d0, d0, d0
    2648:	009f5001 	addseq	r5, pc, r1
    264c:	00000000 	andeq	r0, r0, r0
    2650:	fc000000 	stc2	0, cr0, [r0], {-0}
    2654:	04000000 	streq	r0, [r0], #-0
    2658:	01000001 	tsteq	r0, r1
    265c:	01045000 	mrseq	r5, (UNDEF: 4)
    2660:	01280000 	teqeq	r8, r0
    2664:	00010000 	andeq	r0, r1, r0
    2668:	00000054 	andeq	r0, r0, r4, asr r0
    266c:	00000000 	andeq	r0, r0, r0
	...

Disassembly of section .debug_aranges:

00000000 <.debug_aranges>:
   0:	0000001c 	andeq	r0, r0, ip, lsl r0
   4:	00000002 	andeq	r0, r0, r2
   8:	00040000 	andeq	r0, r4, r0
   c:	00000000 	andeq	r0, r0, r0
  10:	00008010 	andeq	r8, r0, r0, lsl r0
  14:	00000e2c 	andeq	r0, r0, ip, lsr #28
	...
  20:	0000001c 	andeq	r0, r0, ip, lsl r0
  24:	17340002 	ldrne	r0, [r4, -r2]!
  28:	00040000 	andeq	r0, r4, r0
  2c:	00000000 	andeq	r0, r0, r0
  30:	00008e3c 	andeq	r8, r0, ip, lsr lr
  34:	00000058 	andeq	r0, r0, r8, asr r0
	...
  40:	0000001c 	andeq	r0, r0, ip, lsl r0
  44:	18c90002 	stmiane	r9, {r1}^
  48:	00040000 	andeq	r0, r4, r0
  4c:	00000000 	andeq	r0, r0, r0
  50:	00008e94 	muleq	r0, r4, lr
  54:	0000003c 	andeq	r0, r0, ip, lsr r0
	...
  60:	0000001c 	andeq	r0, r0, ip, lsl r0
  64:	19e00002 	stmibne	r0!, {r1}^
  68:	00040000 	andeq	r0, r4, r0
  6c:	00000000 	andeq	r0, r0, r0
  70:	00008ed0 	ldrdeq	r8, [r0], -r0
  74:	00000034 	andeq	r0, r0, r4, lsr r0
	...
  80:	0000001c 	andeq	r0, r0, ip, lsl r0
  84:	1ad20002 	bne	ff480094 <__bss_end__+0xff475db4>
  88:	00040000 	andeq	r0, r4, r0
  8c:	00000000 	andeq	r0, r0, r0
  90:	00008f04 	andeq	r8, r0, r4, lsl #30
  94:	000004f8 	strdeq	r0, [r0], -r8
	...
  a0:	0000001c 	andeq	r0, r0, ip, lsl r0
  a4:	21570002 	cmpcs	r7, r2
  a8:	00040000 	andeq	r0, r4, r0
  ac:	00000000 	andeq	r0, r0, r0
  b0:	000093fc 	strdeq	r9, [r0], -ip
  b4:	00000020 	andeq	r0, r0, r0, lsr #32
	...
  c0:	0000001c 	andeq	r0, r0, ip, lsl r0
  c4:	22130002 	andscs	r0, r3, #2
  c8:	00040000 	andeq	r0, r4, r0
  cc:	00000000 	andeq	r0, r0, r0
  d0:	0000941c 	andeq	r9, r0, ip, lsl r4
  d4:	00000028 	andeq	r0, r0, r8, lsr #32
	...
  e0:	0000001c 	andeq	r0, r0, ip, lsl r0
  e4:	23160002 	tstcs	r6, #2
  e8:	00040000 	andeq	r0, r4, r0
  ec:	00000000 	andeq	r0, r0, r0
  f0:	00009444 	andeq	r9, r0, r4, asr #8
  f4:	00000034 	andeq	r0, r0, r4, lsr r0
	...
 100:	0000001c 	andeq	r0, r0, ip, lsl r0
 104:	24190002 	ldrcs	r0, [r9], #-2
 108:	00040000 	andeq	r0, r4, r0
 10c:	00000000 	andeq	r0, r0, r0
 110:	00009478 	andeq	r9, r0, r8, ror r4
 114:	00000074 	andeq	r0, r0, r4, ror r0
	...
 120:	0000001c 	andeq	r0, r0, ip, lsl r0
 124:	25ca0002 	strbcs	r0, [sl, #2]
 128:	00040000 	andeq	r0, r4, r0
 12c:	00000000 	andeq	r0, r0, r0
 130:	000094ec 	andeq	r9, r0, ip, ror #9
 134:	00000088 	andeq	r0, r0, r8, lsl #1
	...
 140:	0000001c 	andeq	r0, r0, ip, lsl r0
 144:	27a60002 	strcs	r0, [r6, r2]!
 148:	00040000 	andeq	r0, r4, r0
 14c:	00000000 	andeq	r0, r0, r0
 150:	00009574 	andeq	r9, r0, r4, ror r5
 154:	000005a0 	andeq	r0, r0, r0, lsr #11
	...
 160:	0000001c 	andeq	r0, r0, ip, lsl r0
 164:	302c0002 	eorcc	r0, ip, r2
 168:	00040000 	andeq	r0, r4, r0
 16c:	00000000 	andeq	r0, r0, r0
 170:	00009b14 	andeq	r9, r0, r4, lsl fp
 174:	00000154 	andeq	r0, r0, r4, asr r1
	...

Disassembly of section .debug_ranges:

00000000 <.debug_ranges>:
   0:	00000050 	andeq	r0, r0, r0, asr r0
   4:	00000058 	andeq	r0, r0, r8, asr r0
   8:	0000005c 	andeq	r0, r0, ip, asr r0
   c:	00000080 	andeq	r0, r0, r0, lsl #1
	...
  18:	00000050 	andeq	r0, r0, r0, asr r0
  1c:	00000054 	andeq	r0, r0, r4, asr r0
  20:	0000005c 	andeq	r0, r0, ip, asr r0
  24:	00000060 	andeq	r0, r0, r0, rrx
  28:	00000064 	andeq	r0, r0, r4, rrx
  2c:	0000006c 	andeq	r0, r0, ip, rrx
  30:	00000070 	andeq	r0, r0, r0, ror r0
  34:	00000074 	andeq	r0, r0, r4, ror r0
	...
  40:	00000060 	andeq	r0, r0, r0, rrx
  44:	00000064 	andeq	r0, r0, r4, rrx
  48:	0000006c 	andeq	r0, r0, ip, rrx
  4c:	00000070 	andeq	r0, r0, r0, ror r0
  50:	00000074 	andeq	r0, r0, r4, ror r0
  54:	00000080 	andeq	r0, r0, r0, lsl #1
	...
  60:	00000090 	muleq	r0, r0, r0
  64:	00000098 	muleq	r0, r8, r0
  68:	0000009c 	muleq	r0, ip, r0
  6c:	000000c0 	andeq	r0, r0, r0, asr #1
	...
  78:	00000090 	muleq	r0, r0, r0
  7c:	00000094 	muleq	r0, r4, r0
  80:	0000009c 	muleq	r0, ip, r0
  84:	000000a0 	andeq	r0, r0, r0, lsr #1
  88:	000000a4 	andeq	r0, r0, r4, lsr #1
  8c:	000000ac 	andeq	r0, r0, ip, lsr #1
  90:	000000b0 	strheq	r0, [r0], -r0	; <UNPREDICTABLE>
  94:	000000b4 	strheq	r0, [r0], -r4
	...
  a0:	000000a0 	andeq	r0, r0, r0, lsr #1
  a4:	000000a4 	andeq	r0, r0, r4, lsr #1
  a8:	000000ac 	andeq	r0, r0, ip, lsr #1
  ac:	000000b0 	strheq	r0, [r0], -r0	; <UNPREDICTABLE>
  b0:	000000b4 	strheq	r0, [r0], -r4
  b4:	000000c0 	andeq	r0, r0, r0, asr #1
	...
  c0:	000000d0 	ldrdeq	r0, [r0], -r0	; <UNPREDICTABLE>
  c4:	000000d8 	ldrdeq	r0, [r0], -r8
  c8:	000000dc 	ldrdeq	r0, [r0], -ip
  cc:	00000100 	andeq	r0, r0, r0, lsl #2
	...
  d8:	000000d0 	ldrdeq	r0, [r0], -r0	; <UNPREDICTABLE>
  dc:	000000d4 	ldrdeq	r0, [r0], -r4
  e0:	000000dc 	ldrdeq	r0, [r0], -ip
  e4:	000000e0 	andeq	r0, r0, r0, ror #1
  e8:	000000e4 	andeq	r0, r0, r4, ror #1
  ec:	000000ec 	andeq	r0, r0, ip, ror #1
  f0:	000000f0 	strdeq	r0, [r0], -r0	; <UNPREDICTABLE>
  f4:	000000f4 	strdeq	r0, [r0], -r4
	...
 100:	000000e0 	andeq	r0, r0, r0, ror #1
 104:	000000e4 	andeq	r0, r0, r4, ror #1
 108:	000000ec 	andeq	r0, r0, ip, ror #1
 10c:	000000f0 	strdeq	r0, [r0], -r0	; <UNPREDICTABLE>
 110:	000000f4 	strdeq	r0, [r0], -r4
 114:	00000100 	andeq	r0, r0, r0, lsl #2
	...
 120:	00000110 	andeq	r0, r0, r0, lsl r1
 124:	00000118 	andeq	r0, r0, r8, lsl r1
 128:	0000011c 	andeq	r0, r0, ip, lsl r1
 12c:	00000140 	andeq	r0, r0, r0, asr #2
	...
 138:	00000110 	andeq	r0, r0, r0, lsl r1
 13c:	00000114 	andeq	r0, r0, r4, lsl r1
 140:	0000011c 	andeq	r0, r0, ip, lsl r1
 144:	00000120 	andeq	r0, r0, r0, lsr #2
 148:	00000124 	andeq	r0, r0, r4, lsr #2
 14c:	0000012c 	andeq	r0, r0, ip, lsr #2
 150:	00000130 	andeq	r0, r0, r0, lsr r1
 154:	00000134 	andeq	r0, r0, r4, lsr r1
	...
 160:	00000120 	andeq	r0, r0, r0, lsr #2
 164:	00000124 	andeq	r0, r0, r4, lsr #2
 168:	0000012c 	andeq	r0, r0, ip, lsr #2
 16c:	00000130 	andeq	r0, r0, r0, lsr r1
 170:	00000134 	andeq	r0, r0, r4, lsr r1
 174:	00000140 	andeq	r0, r0, r0, asr #2
	...
 180:	00000150 	andeq	r0, r0, r0, asr r1
 184:	00000158 	andeq	r0, r0, r8, asr r1
 188:	0000015c 	andeq	r0, r0, ip, asr r1
 18c:	00000184 	andeq	r0, r0, r4, lsl #3
	...
 198:	00000150 	andeq	r0, r0, r0, asr r1
 19c:	00000154 	andeq	r0, r0, r4, asr r1
 1a0:	0000015c 	andeq	r0, r0, ip, asr r1
 1a4:	00000160 	andeq	r0, r0, r0, ror #2
 1a8:	00000164 	andeq	r0, r0, r4, ror #2
 1ac:	0000016c 	andeq	r0, r0, ip, ror #2
 1b0:	00000170 	andeq	r0, r0, r0, ror r1
 1b4:	00000174 	andeq	r0, r0, r4, ror r1
	...
 1c0:	00000160 	andeq	r0, r0, r0, ror #2
 1c4:	00000164 	andeq	r0, r0, r4, ror #2
 1c8:	0000016c 	andeq	r0, r0, ip, ror #2
 1cc:	00000170 	andeq	r0, r0, r0, ror r1
 1d0:	00000174 	andeq	r0, r0, r4, ror r1
 1d4:	00000184 	andeq	r0, r0, r4, lsl #3
	...
 1e0:	00000194 	muleq	r0, r4, r1
 1e4:	0000019c 	muleq	r0, ip, r1
 1e8:	000001a0 	andeq	r0, r0, r0, lsr #3
 1ec:	000001c4 	andeq	r0, r0, r4, asr #3
	...
 1f8:	00000194 	muleq	r0, r4, r1
 1fc:	00000198 	muleq	r0, r8, r1
 200:	000001a0 	andeq	r0, r0, r0, lsr #3
 204:	000001a4 	andeq	r0, r0, r4, lsr #3
 208:	000001a8 	andeq	r0, r0, r8, lsr #3
 20c:	000001b0 			; <UNDEFINED> instruction: 0x000001b0
 210:	000001b4 			; <UNDEFINED> instruction: 0x000001b4
 214:	000001b8 			; <UNDEFINED> instruction: 0x000001b8
	...
 220:	000001a4 	andeq	r0, r0, r4, lsr #3
 224:	000001a8 	andeq	r0, r0, r8, lsr #3
 228:	000001b0 			; <UNDEFINED> instruction: 0x000001b0
 22c:	000001b4 			; <UNDEFINED> instruction: 0x000001b4
 230:	000001b8 			; <UNDEFINED> instruction: 0x000001b8
 234:	000001c4 	andeq	r0, r0, r4, asr #3
	...
 240:	000001d4 	ldrdeq	r0, [r0], -r4
 244:	000001dc 	ldrdeq	r0, [r0], -ip
 248:	000001e0 	andeq	r0, r0, r0, ror #3
 24c:	00000204 	andeq	r0, r0, r4, lsl #4
	...
 258:	000001d4 	ldrdeq	r0, [r0], -r4
 25c:	000001d8 	ldrdeq	r0, [r0], -r8
 260:	000001e0 	andeq	r0, r0, r0, ror #3
 264:	000001e4 	andeq	r0, r0, r4, ror #3
 268:	000001e8 	andeq	r0, r0, r8, ror #3
 26c:	000001f0 	strdeq	r0, [r0], -r0	; <UNPREDICTABLE>
 270:	000001f4 	strdeq	r0, [r0], -r4
 274:	000001f8 	strdeq	r0, [r0], -r8
	...
 280:	000001e4 	andeq	r0, r0, r4, ror #3
 284:	000001e8 	andeq	r0, r0, r8, ror #3
 288:	000001f0 	strdeq	r0, [r0], -r0	; <UNPREDICTABLE>
 28c:	000001f4 	strdeq	r0, [r0], -r4
 290:	000001f8 	strdeq	r0, [r0], -r8
 294:	00000204 	andeq	r0, r0, r4, lsl #4
	...
 2a0:	00000214 	andeq	r0, r0, r4, lsl r2
 2a4:	0000021c 	andeq	r0, r0, ip, lsl r2
 2a8:	00000220 	andeq	r0, r0, r0, lsr #4
 2ac:	00000244 	andeq	r0, r0, r4, asr #4
	...
 2b8:	00000218 	andeq	r0, r0, r8, lsl r2
 2bc:	0000021c 	andeq	r0, r0, ip, lsl r2
 2c0:	00000220 	andeq	r0, r0, r0, lsr #4
 2c4:	00000224 	andeq	r0, r0, r4, lsr #4
 2c8:	00000228 	andeq	r0, r0, r8, lsr #4
 2cc:	00000230 	andeq	r0, r0, r0, lsr r2
 2d0:	00000234 	andeq	r0, r0, r4, lsr r2
 2d4:	00000238 	andeq	r0, r0, r8, lsr r2
	...
 2e0:	00000224 	andeq	r0, r0, r4, lsr #4
 2e4:	00000228 	andeq	r0, r0, r8, lsr #4
 2e8:	00000230 	andeq	r0, r0, r0, lsr r2
 2ec:	00000234 	andeq	r0, r0, r4, lsr r2
 2f0:	00000238 	andeq	r0, r0, r8, lsr r2
 2f4:	00000244 	andeq	r0, r0, r4, asr #4
	...
 300:	000004f8 	strdeq	r0, [r0], -r8
 304:	00000500 	andeq	r0, r0, r0, lsl #10
 308:	00000504 	andeq	r0, r0, r4, lsl #10
 30c:	00000528 	andeq	r0, r0, r8, lsr #10
	...
 318:	000004f8 	strdeq	r0, [r0], -r8
 31c:	000004fc 	strdeq	r0, [r0], -ip
 320:	00000504 	andeq	r0, r0, r4, lsl #10
 324:	00000508 	andeq	r0, r0, r8, lsl #10
 328:	0000050c 	andeq	r0, r0, ip, lsl #10
 32c:	00000514 	andeq	r0, r0, r4, lsl r5
 330:	00000518 	andeq	r0, r0, r8, lsl r5
 334:	0000051c 	andeq	r0, r0, ip, lsl r5
	...
 340:	00000508 	andeq	r0, r0, r8, lsl #10
 344:	0000050c 	andeq	r0, r0, ip, lsl #10
 348:	00000514 	andeq	r0, r0, r4, lsl r5
 34c:	00000518 	andeq	r0, r0, r8, lsl r5
 350:	0000051c 	andeq	r0, r0, ip, lsl r5
 354:	00000528 	andeq	r0, r0, r8, lsr #10
	...
 360:	00000538 	andeq	r0, r0, r8, lsr r5
 364:	00000540 	andeq	r0, r0, r0, asr #10
 368:	00000544 	andeq	r0, r0, r4, asr #10
 36c:	00000568 	andeq	r0, r0, r8, ror #10
	...
 378:	00000538 	andeq	r0, r0, r8, lsr r5
 37c:	0000053c 	andeq	r0, r0, ip, lsr r5
 380:	00000544 	andeq	r0, r0, r4, asr #10
 384:	00000548 	andeq	r0, r0, r8, asr #10
 388:	0000054c 	andeq	r0, r0, ip, asr #10
 38c:	00000554 	andeq	r0, r0, r4, asr r5
 390:	00000558 	andeq	r0, r0, r8, asr r5
 394:	0000055c 	andeq	r0, r0, ip, asr r5
	...
 3a0:	00000548 	andeq	r0, r0, r8, asr #10
 3a4:	0000054c 	andeq	r0, r0, ip, asr #10
 3a8:	00000554 	andeq	r0, r0, r4, asr r5
 3ac:	00000558 	andeq	r0, r0, r8, asr r5
 3b0:	0000055c 	andeq	r0, r0, ip, asr r5
 3b4:	00000568 	andeq	r0, r0, r8, ror #10
	...
 3c0:	00000578 	andeq	r0, r0, r8, ror r5
 3c4:	00000580 	andeq	r0, r0, r0, lsl #11
 3c8:	00000584 	andeq	r0, r0, r4, lsl #11
 3cc:	000005a8 	andeq	r0, r0, r8, lsr #11
	...
 3d8:	00000578 	andeq	r0, r0, r8, ror r5
 3dc:	0000057c 	andeq	r0, r0, ip, ror r5
 3e0:	00000584 	andeq	r0, r0, r4, lsl #11
 3e4:	00000588 	andeq	r0, r0, r8, lsl #11
 3e8:	0000058c 	andeq	r0, r0, ip, lsl #11
 3ec:	00000594 	muleq	r0, r4, r5
 3f0:	00000598 	muleq	r0, r8, r5
 3f4:	0000059c 	muleq	r0, ip, r5
	...
 400:	00000588 	andeq	r0, r0, r8, lsl #11
 404:	0000058c 	andeq	r0, r0, ip, lsl #11
 408:	00000594 	muleq	r0, r4, r5
 40c:	00000598 	muleq	r0, r8, r5
 410:	0000059c 	muleq	r0, ip, r5
 414:	000005a8 	andeq	r0, r0, r8, lsr #11
	...
 420:	000005b8 			; <UNDEFINED> instruction: 0x000005b8
 424:	000005c0 	andeq	r0, r0, r0, asr #11
 428:	000005c4 	andeq	r0, r0, r4, asr #11
 42c:	000005e8 	andeq	r0, r0, r8, ror #11
	...
 438:	000005b8 			; <UNDEFINED> instruction: 0x000005b8
 43c:	000005bc 			; <UNDEFINED> instruction: 0x000005bc
 440:	000005c4 	andeq	r0, r0, r4, asr #11
 444:	000005c8 	andeq	r0, r0, r8, asr #11
 448:	000005cc 	andeq	r0, r0, ip, asr #11
 44c:	000005d4 	ldrdeq	r0, [r0], -r4
 450:	000005d8 	ldrdeq	r0, [r0], -r8
 454:	000005dc 	ldrdeq	r0, [r0], -ip
	...
 460:	000005c8 	andeq	r0, r0, r8, asr #11
 464:	000005cc 	andeq	r0, r0, ip, asr #11
 468:	000005d4 	ldrdeq	r0, [r0], -r4
 46c:	000005d8 	ldrdeq	r0, [r0], -r8
 470:	000005dc 	ldrdeq	r0, [r0], -ip
 474:	000005e8 	andeq	r0, r0, r8, ror #11
	...
 480:	000005f8 	strdeq	r0, [r0], -r8
 484:	00000600 	andeq	r0, r0, r0, lsl #12
 488:	00000604 	andeq	r0, r0, r4, lsl #12
 48c:	0000062c 	andeq	r0, r0, ip, lsr #12
	...
 498:	000005f8 	strdeq	r0, [r0], -r8
 49c:	000005fc 	strdeq	r0, [r0], -ip
 4a0:	00000604 	andeq	r0, r0, r4, lsl #12
 4a4:	00000608 	andeq	r0, r0, r8, lsl #12
 4a8:	0000060c 	andeq	r0, r0, ip, lsl #12
 4ac:	00000614 	andeq	r0, r0, r4, lsl r6
 4b0:	00000618 	andeq	r0, r0, r8, lsl r6
 4b4:	0000061c 	andeq	r0, r0, ip, lsl r6
	...
 4c0:	00000608 	andeq	r0, r0, r8, lsl #12
 4c4:	0000060c 	andeq	r0, r0, ip, lsl #12
 4c8:	00000614 	andeq	r0, r0, r4, lsl r6
 4cc:	00000618 	andeq	r0, r0, r8, lsl r6
 4d0:	0000061c 	andeq	r0, r0, ip, lsl r6
 4d4:	0000062c 	andeq	r0, r0, ip, lsr #12
	...
 4e0:	0000063c 	andeq	r0, r0, ip, lsr r6
 4e4:	00000644 	andeq	r0, r0, r4, asr #12
 4e8:	00000648 	andeq	r0, r0, r8, asr #12
 4ec:	0000066c 	andeq	r0, r0, ip, ror #12
	...
 4f8:	0000063c 	andeq	r0, r0, ip, lsr r6
 4fc:	00000640 	andeq	r0, r0, r0, asr #12
 500:	00000648 	andeq	r0, r0, r8, asr #12
 504:	0000064c 	andeq	r0, r0, ip, asr #12
 508:	00000650 	andeq	r0, r0, r0, asr r6
 50c:	00000658 	andeq	r0, r0, r8, asr r6
 510:	0000065c 	andeq	r0, r0, ip, asr r6
 514:	00000660 	andeq	r0, r0, r0, ror #12
	...
 520:	0000064c 	andeq	r0, r0, ip, asr #12
 524:	00000650 	andeq	r0, r0, r0, asr r6
 528:	00000658 	andeq	r0, r0, r8, asr r6
 52c:	0000065c 	andeq	r0, r0, ip, asr r6
 530:	00000660 	andeq	r0, r0, r0, ror #12
 534:	0000066c 	andeq	r0, r0, ip, ror #12
	...
 540:	0000067c 	andeq	r0, r0, ip, ror r6
 544:	00000684 	andeq	r0, r0, r4, lsl #13
 548:	00000688 	andeq	r0, r0, r8, lsl #13
 54c:	000006ac 	andeq	r0, r0, ip, lsr #13
	...
 558:	0000067c 	andeq	r0, r0, ip, ror r6
 55c:	00000680 	andeq	r0, r0, r0, lsl #13
 560:	00000688 	andeq	r0, r0, r8, lsl #13
 564:	0000068c 	andeq	r0, r0, ip, lsl #13
 568:	00000690 	muleq	r0, r0, r6
 56c:	00000698 	muleq	r0, r8, r6
 570:	0000069c 	muleq	r0, ip, r6
 574:	000006a0 	andeq	r0, r0, r0, lsr #13
	...
 580:	0000068c 	andeq	r0, r0, ip, lsl #13
 584:	00000690 	muleq	r0, r0, r6
 588:	00000698 	muleq	r0, r8, r6
 58c:	0000069c 	muleq	r0, ip, r6
 590:	000006a0 	andeq	r0, r0, r0, lsr #13
 594:	000006ac 	andeq	r0, r0, ip, lsr #13
	...
 5a0:	000006bc 			; <UNDEFINED> instruction: 0x000006bc
 5a4:	000006c4 	andeq	r0, r0, r4, asr #13
 5a8:	000006c8 	andeq	r0, r0, r8, asr #13
 5ac:	000006ec 	andeq	r0, r0, ip, ror #13
	...
 5b8:	000006c0 	andeq	r0, r0, r0, asr #13
 5bc:	000006c4 	andeq	r0, r0, r4, asr #13
 5c0:	000006c8 	andeq	r0, r0, r8, asr #13
 5c4:	000006cc 	andeq	r0, r0, ip, asr #13
 5c8:	000006d0 	ldrdeq	r0, [r0], -r0	; <UNPREDICTABLE>
 5cc:	000006d8 	ldrdeq	r0, [r0], -r8
 5d0:	000006dc 	ldrdeq	r0, [r0], -ip
 5d4:	000006e0 	andeq	r0, r0, r0, ror #13
	...
 5e0:	000006cc 	andeq	r0, r0, ip, asr #13
 5e4:	000006d0 	ldrdeq	r0, [r0], -r0	; <UNPREDICTABLE>
 5e8:	000006d8 	ldrdeq	r0, [r0], -r8
 5ec:	000006dc 	ldrdeq	r0, [r0], -ip
 5f0:	000006e0 	andeq	r0, r0, r0, ror #13
 5f4:	000006ec 	andeq	r0, r0, ip, ror #13
	...
 600:	00000788 	andeq	r0, r0, r8, lsl #15
 604:	0000079c 	muleq	r0, ip, r7
 608:	000007a0 	andeq	r0, r0, r0, lsr #15
 60c:	000007b0 			; <UNDEFINED> instruction: 0x000007b0
	...
 618:	0000079c 	muleq	r0, ip, r7
 61c:	000007a0 	andeq	r0, r0, r0, lsr #15
 620:	000007b0 			; <UNDEFINED> instruction: 0x000007b0
 624:	00000e14 	andeq	r0, r0, r4, lsl lr
	...
 630:	0000079c 	muleq	r0, ip, r7
 634:	000007a0 	andeq	r0, r0, r0, lsr #15
 638:	000007b0 			; <UNDEFINED> instruction: 0x000007b0
 63c:	00000964 	andeq	r0, r0, r4, ror #18
	...
 648:	00000c50 	andeq	r0, r0, r0, asr ip
 64c:	00000dac 	andeq	r0, r0, ip, lsr #27
 650:	00000db4 			; <UNDEFINED> instruction: 0x00000db4
 654:	00000dd8 	ldrdeq	r0, [r0], -r8
	...
 660:	00000294 	muleq	r0, r4, r2
 664:	00000298 	muleq	r0, r8, r2
 668:	000002c8 	andeq	r0, r0, r8, asr #5
 66c:	000004b8 			; <UNDEFINED> instruction: 0x000004b8
	...
 678:	00009478 	andeq	r9, r0, r8, ror r4
 67c:	000094ec 	andeq	r9, r0, ip, ror #9
	...

Disassembly of section .debug_line:

00000000 <.debug_line>:
   0:	00000413 	andeq	r0, r0, r3, lsl r4
   4:	01250002 	teqeq	r5, r2
   8:	01020000 	mrseq	r0, (UNDEF: 2)
   c:	000d0efb 	strdeq	r0, [sp], -fp
  10:	01010101 	tsteq	r1, r1, lsl #2
  14:	01000000 	mrseq	r0, (UNDEF: 0)
  18:	2f010000 	svccs	0x00010000
  1c:	2f727375 	svccs	0x00727375
  20:	61636f6c 	cmnvs	r3, ip, ror #30
  24:	65432f6c 	strbvs	r2, [r3, #-3948]	; 0xf6c
  28:	72616c6c 	rsbvc	r6, r1, #108, 24	; 0x6c00
  2c:	6d72612f 	ldfvse	f6, [r2, #-188]!	; 0xffffff44
  30:	6e6f6e2d 	cdpvs	14, 6, cr6, cr15, cr13, {1}
  34:	61652d65 	cmnvs	r5, r5, ror #26
  38:	342f6962 	strtcc	r6, [pc], #-2402	; 40 <_start-0x7fc0>
  3c:	332e382e 	teqcc	lr, #3014656	; 0x2e0000
  40:	3173632d 	cmncc	r3, sp, lsr #6
  44:	2f653037 	svccs	0x00653037
  48:	2f62696c 	svccs	0x0062696c
  4c:	2f636367 	svccs	0x00636367
  50:	2d6d7261 	sfmcs	f7, 2, [sp, #-388]!	; 0xfffffe7c
  54:	656e6f6e 	strbvs	r6, [lr, #-3950]!	; 0xf6e
  58:	6261652d 	rsbvs	r6, r1, #188743680	; 0xb400000
  5c:	2e342f69 	cdpcs	15, 3, cr2, cr4, cr9, {3}
  60:	2f332e38 	svccs	0x00332e38
  64:	6c636e69 	stclvs	14, cr6, [r3], #-420	; 0xfffffe5c
  68:	00656475 	rsbeq	r6, r5, r5, ror r4
  6c:	6573552f 	ldrbvs	r5, [r3, #-1327]!	; 0x52f
  70:	622f7372 	eorvs	r7, pc, #-939524095	; 0xc8000001
  74:	6e616972 	mcrvs	9, 3, r6, cr1, cr2, {3}
  78:	2f6e756a 	svccs	0x006e756a
  7c:	6b736544 	blvs	1cd9594 <__bss_end__+0x1ccf2b4>
  80:	2f706f74 	svccs	0x00706f74
  84:	6f686373 	svcvs	0x00686373
  88:	572f6c6f 	strpl	r6, [pc, -pc, ror #24]!
  8c:	65746e69 	ldrbvs	r6, [r4, #-3689]!	; 0xe69
  90:	32393172 	eorscc	r3, r9, #-2147483620	; 0x8000001c
  94:	53432f30 	movtpl	r2, #16176	; 0x3f30
  98:	45303431 	ldrmi	r3, [r0, #-1073]!	; 0x431
  9c:	3173632f 	cmncc	r3, pc, lsr #6
  a0:	2d653034 	stclcs	0, cr3, [r5, #-208]!	; 0xffffff30
  a4:	69773032 	ldmdbvs	r7!, {r1, r4, r5, ip, sp}^
  a8:	696c2f6e 	stmdbvs	ip!, {r1, r2, r3, r5, r6, r8, r9, sl, fp, sp}^
  ac:	00697062 	rsbeq	r7, r9, r2, rrx
  b0:	6573552f 	ldrbvs	r5, [r3, #-1327]!	; 0x52f
  b4:	622f7372 	eorvs	r7, pc, #-939524095	; 0xc8000001
  b8:	6e616972 	mcrvs	9, 3, r6, cr1, cr2, {3}
  bc:	2f6e756a 	svccs	0x006e756a
  c0:	6b736544 	blvs	1cd95d8 <__bss_end__+0x1ccf2f8>
  c4:	2f706f74 	svccs	0x00706f74
  c8:	6f686373 	svcvs	0x00686373
  cc:	572f6c6f 	strpl	r6, [pc, -pc, ror #24]!
  d0:	65746e69 	ldrbvs	r6, [r4, #-3689]!	; 0xe69
  d4:	32393172 	eorscc	r3, r9, #-2147483620	; 0x8000001c
  d8:	53432f30 	movtpl	r2, #16176	; 0x3f30
  dc:	45303431 	ldrmi	r3, [r0, #-1073]!	; 0x431
  e0:	3173632f 	cmncc	r3, pc, lsr #6
  e4:	2d653034 	stclcs	0, cr3, [r5, #-208]!	; 0xffffff30
  e8:	69773032 	ldmdbvs	r7!, {r1, r4, r5, ip, sp}^
  ec:	696c2f6e 	stmdbvs	ip!, {r1, r2, r3, r5, r6, r8, r9, sl, fp, sp}^
  f0:	2f697062 	svccs	0x00697062
  f4:	34317363 	ldrtcc	r7, [r1], #-867	; 0x363
  f8:	732d6530 	teqvc	sp, #48, 10	; 0xc000000
  fc:	00006372 	andeq	r6, r0, r2, ror r3
 100:	706f6373 	rsbvc	r6, pc, r3, ror r3	; <UNPREDICTABLE>
 104:	00632e65 	rsbeq	r2, r3, r5, ror #28
 108:	73000000 	movwvc	r0, #0
 10c:	6e696474 	mcrvs	4, 3, r6, cr9, cr4, {3}
 110:	63672d74 	cmnvs	r7, #116, 26	; 0x1d00
 114:	00682e63 	rsbeq	r2, r8, r3, ror #28
 118:	72000001 	andvc	r0, r0, #1
 11c:	682e6970 	stmdavs	lr!, {r4, r5, r6, r8, fp, sp, lr}
 120:	00000200 	andeq	r0, r0, r0, lsl #4
 124:	6f697067 	svcvs	0x00697067
 128:	0300682e 	movweq	r6, #2094	; 0x82e
 12c:	00000000 	andeq	r0, r0, r0
 130:	80100205 	andshi	r0, r0, r5, lsl #4
 134:	f6030000 			; <UNDEFINED> instruction: 0xf6030000
 138:	84300100 	ldrthi	r0, [r0], #-256	; 0x100
 13c:	d67fb203 	ldrbtle	fp, [pc], -r3, lsl #4
 140:	8200d303 	andhi	sp, r0, #201326592	; 0xc000000
 144:	827fa803 	rsbshi	sl, pc, #196608	; 0x30000
 148:	032e0b03 	teqeq	lr, #3072	; 0xc00
 14c:	032e00ce 	teqeq	lr, #206	; 0xce
 150:	332e7fa7 	teqcc	lr, #668	; 0x29c
 154:	33294f29 	teqcc	r9, #41, 30	; 0xa4
 158:	6600d503 	strvs	sp, [r0], -r3, lsl #10
 15c:	827fa603 	rsbshi	sl, pc, #3145728	; 0x300000
 160:	032e0b03 	teqeq	lr, #3072	; 0xc00
 164:	032e00d0 	teqeq	lr, #208	; 0xd0
 168:	332e7fa5 	teqcc	lr, #660	; 0x294
 16c:	33294f29 	teqcc	r9, #41, 30	; 0xa4
 170:	6600d703 	strvs	sp, [r0], -r3, lsl #14
 174:	827fa403 	rsbshi	sl, pc, #50331648	; 0x3000000
 178:	032e0b03 	teqeq	lr, #3072	; 0xc00
 17c:	032e00d2 	teqeq	lr, #210	; 0xd2
 180:	332e7fa3 	teqcc	lr, #652	; 0x28c
 184:	33294f29 	teqcc	r9, #41, 30	; 0xa4
 188:	6600d903 	strvs	sp, [r0], -r3, lsl #18
 18c:	827fa203 	rsbshi	sl, pc, #805306368	; 0x30000000
 190:	032e0b03 	teqeq	lr, #3072	; 0xc00
 194:	032e00d4 	teqeq	lr, #212	; 0xd4
 198:	332e7fa1 	teqcc	lr, #644	; 0x284
 19c:	33294f29 	teqcc	r9, #41, 30	; 0xa4
 1a0:	6600db03 	strvs	sp, [r0], -r3, lsl #22
 1a4:	827fa003 	rsbshi	sl, pc, #3
 1a8:	032e0b03 	teqeq	lr, #3072	; 0xc00
 1ac:	032e00d6 	teqeq	lr, #214	; 0xd6
 1b0:	332e7f9f 	teqcc	lr, #636	; 0x27c
 1b4:	33294f29 	teqcc	r9, #41, 30	; 0xa4
 1b8:	8200dd03 	andhi	sp, r0, #3, 26	; 0xc0
 1bc:	827f9e03 	rsbshi	r9, pc, #3, 28	; 0x30
 1c0:	032e0b03 	teqeq	lr, #3072	; 0xc00
 1c4:	032e00d8 	teqeq	lr, #216	; 0xd8
 1c8:	332e7f9d 	teqcc	lr, #628	; 0x274
 1cc:	33294f29 	teqcc	r9, #41, 30	; 0xa4
 1d0:	6600df03 	strvs	sp, [r0], -r3, lsl #30
 1d4:	827f9c03 	rsbshi	r9, pc, #768	; 0x300
 1d8:	032e0b03 	teqeq	lr, #3072	; 0xc00
 1dc:	032e00da 	teqeq	lr, #218	; 0xda
 1e0:	332e7f9b 	teqcc	lr, #620	; 0x26c
 1e4:	33294f29 	teqcc	r9, #41, 30	; 0xa4
 1e8:	6600e103 	strvs	lr, [r0], -r3, lsl #2
 1ec:	827fa503 	rsbshi	sl, pc, #12582912	; 0xc00000
 1f0:	032e7503 	teqeq	lr, #12582912	; 0xc00000
 1f4:	032e00e7 	teqeq	lr, #231	; 0xe7
 1f8:	332e7f99 	teqcc	lr, #612	; 0x264
 1fc:	33294f29 	teqcc	r9, #41, 30	; 0xa4
 200:	6600e303 	strvs	lr, [r0], -r3, lsl #6
 204:	827f9803 	rsbshi	r9, pc, #196608	; 0x30000
 208:	0800ea03 	stmdaeq	r0, {r0, r1, r9, fp, sp, lr, pc}
 20c:	ac038320 	stcge	3, cr8, [r3], {32}
 210:	2d13827f 	lfmcs	f0, 1, [r3, #-508]	; 0xfffffe04
 214:	672f2f2f 	strvs	r2, [pc, -pc, lsr #30]!
 218:	04020030 	streq	r0, [r2], #-48	; 0x30
 21c:	0d034501 	cfstr32eq	mvfx4, [r3, #-4]
 220:	2f863c08 	svccs	0x00863c08
 224:	0402002d 	streq	r0, [r2], #-45	; 0x2d
 228:	00852f01 	addeq	r2, r5, r1, lsl #30
 22c:	2f010402 	svccs	0x00010402
 230:	01040200 	mrseq	r0, R12_usr
 234:	020083a0 	andeq	r8, r0, #160, 6	; 0x80000002
 238:	83bb0104 			; <UNDEFINED> instruction: 0x83bb0104
 23c:	01040200 	mrseq	r0, R12_usr
 240:	30b883d7 	ldrsbtcc	r8, [r8], r7
 244:	01040200 	mrseq	r0, R12_usr
 248:	0200832f 	andeq	r8, r0, #-1140850688	; 0xbc000000
 24c:	83d70104 	bicshi	r0, r7, #4, 2
 250:	01040200 	mrseq	r0, R12_usr
 254:	020083d7 	andeq	r8, r0, #1543503875	; 0x5c000003
 258:	83d70104 	bicshi	r0, r7, #4, 2
 25c:	01040200 	mrseq	r0, R12_usr
 260:	020083d7 	andeq	r8, r0, #1543503875	; 0x5c000003
 264:	03f30104 	mvnseq	r0, #4, 2
 268:	3069820c 	rsbcc	r8, r9, ip, lsl #4
 26c:	04020084 	streq	r0, [r2], #-132	; 0x84
 270:	062e0601 	strteq	r0, [lr], -r1, lsl #12
 274:	9e7fb203 	cdpls	2, 7, cr11, cr15, cr3, {0}
 278:	01040200 	mrseq	r0, R12_usr
 27c:	8200d303 	andhi	sp, r0, #201326592	; 0xc000000
 280:	827fa803 	rsbshi	sl, pc, #196608	; 0x30000
 284:	032e0b03 	teqeq	lr, #3072	; 0xc00
 288:	032e00ce 	teqeq	lr, #206	; 0xce
 28c:	332e7fa7 	teqcc	lr, #668	; 0x29c
 290:	33294f29 	teqcc	r9, #41, 30	; 0xa4
 294:	01040200 	mrseq	r0, R12_usr
 298:	6600d503 	strvs	sp, [r0], -r3, lsl #10
 29c:	827fa603 	rsbshi	sl, pc, #3145728	; 0x300000
 2a0:	032e0b03 	teqeq	lr, #3072	; 0xc00
 2a4:	032e00d0 	teqeq	lr, #208	; 0xd0
 2a8:	332e7fa5 	teqcc	lr, #660	; 0x294
 2ac:	33294f29 	teqcc	r9, #41, 30	; 0xa4
 2b0:	01040200 	mrseq	r0, R12_usr
 2b4:	6600d703 	strvs	sp, [r0], -r3, lsl #14
 2b8:	827fa403 	rsbshi	sl, pc, #50331648	; 0x3000000
 2bc:	032e0b03 	teqeq	lr, #3072	; 0xc00
 2c0:	032e00d2 	teqeq	lr, #210	; 0xd2
 2c4:	332e7fa3 	teqcc	lr, #652	; 0x28c
 2c8:	33294f29 	teqcc	r9, #41, 30	; 0xa4
 2cc:	01040200 	mrseq	r0, R12_usr
 2d0:	6600d903 	strvs	sp, [r0], -r3, lsl #18
 2d4:	827fa203 	rsbshi	sl, pc, #805306368	; 0x30000000
 2d8:	032e0b03 	teqeq	lr, #3072	; 0xc00
 2dc:	032e00d4 	teqeq	lr, #212	; 0xd4
 2e0:	332e7fa1 	teqcc	lr, #644	; 0x284
 2e4:	33294f29 	teqcc	r9, #41, 30	; 0xa4
 2e8:	01040200 	mrseq	r0, R12_usr
 2ec:	6600db03 	strvs	sp, [r0], -r3, lsl #22
 2f0:	827fa003 	rsbshi	sl, pc, #3
 2f4:	032e0b03 	teqeq	lr, #3072	; 0xc00
 2f8:	032e00d6 	teqeq	lr, #214	; 0xd6
 2fc:	332e7f9f 	teqcc	lr, #636	; 0x27c
 300:	33294f29 	teqcc	r9, #41, 30	; 0xa4
 304:	01040200 	mrseq	r0, R12_usr
 308:	8200dd03 	andhi	sp, r0, #3, 26	; 0xc0
 30c:	827f9e03 	rsbshi	r9, pc, #3, 28	; 0x30
 310:	032e0b03 	teqeq	lr, #3072	; 0xc00
 314:	032e00d8 	teqeq	lr, #216	; 0xd8
 318:	332e7f9d 	teqcc	lr, #628	; 0x274
 31c:	33294f29 	teqcc	r9, #41, 30	; 0xa4
 320:	01040200 	mrseq	r0, R12_usr
 324:	6600df03 	strvs	sp, [r0], -r3, lsl #30
 328:	827f9c03 	rsbshi	r9, pc, #768	; 0x300
 32c:	032e0b03 	teqeq	lr, #3072	; 0xc00
 330:	032e00da 	teqeq	lr, #218	; 0xda
 334:	332e7f9b 	teqcc	lr, #620	; 0x26c
 338:	33294f29 	teqcc	r9, #41, 30	; 0xa4
 33c:	01040200 	mrseq	r0, R12_usr
 340:	6600e103 	strvs	lr, [r0], -r3, lsl #2
 344:	827fa503 	rsbshi	sl, pc, #12582912	; 0xc00000
 348:	032e7503 	teqeq	lr, #12582912	; 0xc00000
 34c:	032e00e7 	teqeq	lr, #231	; 0xe7
 350:	332e7f99 	teqcc	lr, #612	; 0x264
 354:	33294f29 	teqcc	r9, #41, 30	; 0xa4
 358:	01040200 	mrseq	r0, R12_usr
 35c:	6600e303 	strvs	lr, [r0], -r3, lsl #6
 360:	827f9803 	rsbshi	r9, pc, #196608	; 0x30000
 364:	01040200 	mrseq	r0, R12_usr
 368:	0800ea03 	stmdaeq	r0, {r0, r1, r9, fp, sp, lr, pc}
 36c:	17038320 	strne	r8, [r3, -r0, lsr #6]
 370:	2a833166 	bcs	fe0cc910 <__bss_end__+0xfe0c2630>
 374:	4b2f8331 	blmi	be1040 <__bss_end__+0xbd6d60>
 378:	4a65032f 	bmi	194103c <__bss_end__+0x1936d5c>
 37c:	4a7f9203 	bmi	1fe4b90 <__bss_end__+0x1fda8b0>
 380:	039e2a03 	orrseq	r2, lr, #12288	; 0x3000
 384:	29032e56 	stmdbcs	r3, {r1, r2, r4, r6, r9, sl, fp, sp}
 388:	2f856782 	svccs	0x00856782
 38c:	839f83a0 	orrshi	r8, pc, #160, 6	; 0x80000002
 390:	309c83bb 			; <UNDEFINED> instruction: 0x309c83bb
 394:	83bb832f 			; <UNDEFINED> instruction: 0x83bb832f
 398:	83f383f3 	mvnshi	r8, #-872415229	; 0xcc000003
 39c:	08835908 	stmeq	r3, {r3, r8, fp, ip, lr}
 3a0:	82330321 	eorshi	r0, r3, #-2080374784	; 0x84000000
 3a4:	4a7fb703 	bmi	1fedfb8 <__bss_end__+0x1fe3cd8>
 3a8:	83842f85 	orrhi	r2, r4, #532	; 0x214
 3ac:	839f839f 	orrshi	r8, pc, #2080374786	; 0x7c000002
 3b0:	832f309c 	teqhi	pc, #156	; 0x9c
 3b4:	83bb839f 			; <UNDEFINED> instruction: 0x83bb839f
 3b8:	839f83bb 	orrshi	r8, pc, #-335544318	; 0xec000002
 3bc:	823403d7 	eorshi	r0, r4, #1543503875	; 0x5c000003
 3c0:	4a7fb603 	bmi	1fedbd4 <__bss_end__+0x1fe38f4>
 3c4:	83842f85 	orrhi	r2, r4, #532	; 0x214
 3c8:	839f839f 	orrshi	r8, pc, #2080374786	; 0x7c000002
 3cc:	834b3080 	movthi	r3, #45184	; 0xb080
 3d0:	83bb839f 			; <UNDEFINED> instruction: 0x83bb839f
 3d4:	839f83bb 	orrshi	r8, pc, #-335544318	; 0xec000002
 3d8:	823503d7 	eorshi	r0, r5, #1543503875	; 0x5c000003
 3dc:	2e7fb503 	cdpcs	5, 7, cr11, cr15, cr3, {0}
 3e0:	83842f85 	orrhi	r2, r4, #532	; 0x214
 3e4:	839f8383 	orrshi	r8, pc, #201326594	; 0xc000002
 3e8:	839f839f 	orrshi	r8, pc, #2080374786	; 0x7c000002
 3ec:	83bb83bb 			; <UNDEFINED> instruction: 0x83bb83bb
 3f0:	03bb839f 			; <UNDEFINED> instruction: 0x03bb839f
 3f4:	032f8234 	teqeq	pc, #52, 4	; 0x40000003
 3f8:	2c2c2e4a 	stccs	14, cr2, [ip], #-296	; 0xfffffed8
 3fc:	322e7a03 	eorcc	r7, lr, #12288	; 0x3000
 400:	2c302a2c 	ldccs	10, cr2, [r0], #-176	; 0xffffff50
 404:	2e00c303 	cdpcs	3, 0, cr12, cr0, cr3, {0}
 408:	68684c30 	stmdavs	r8!, {r4, r5, sl, fp, lr}^
 40c:	034a7403 	movteq	r7, #41987	; 0xa403
 410:	0c02821b 	sfmeq	f0, 1, [r2], {27}
 414:	02010100 	andeq	r0, r1, #0, 2
 418:	02000001 	andeq	r0, r0, #1
 41c:	0000eb00 	andeq	lr, r0, r0, lsl #22
 420:	fb010200 	blx	40c2a <__bss_end__+0x3694a>
 424:	01000d0e 	tsteq	r0, lr, lsl #26
 428:	00010101 	andeq	r0, r1, r1, lsl #2
 42c:	00010000 	andeq	r0, r1, r0
 430:	696c0100 	stmdbvs	ip!, {r8}^
 434:	2f006362 	svccs	0x00006362
 438:	2f727375 	svccs	0x00727375
 43c:	61636f6c 	cmnvs	r3, ip, ror #30
 440:	65432f6c 	strbvs	r2, [r3, #-3948]	; 0xf6c
 444:	72616c6c 	rsbvc	r6, r1, #108, 24	; 0x6c00
 448:	6d72612f 	ldfvse	f6, [r2, #-188]!	; 0xffffff44
 44c:	6e6f6e2d 	cdpvs	14, 6, cr6, cr15, cr13, {1}
 450:	61652d65 	cmnvs	r5, r5, ror #26
 454:	342f6962 	strtcc	r6, [pc], #-2402	; 45c <_start-0x7ba4>
 458:	332e382e 	teqcc	lr, #3014656	; 0x2e0000
 45c:	3173632d 	cmncc	r3, sp, lsr #6
 460:	2f653037 	svccs	0x00653037
 464:	2f62696c 	svccs	0x0062696c
 468:	2f636367 	svccs	0x00636367
 46c:	2d6d7261 	sfmcs	f7, 2, [sp, #-388]!	; 0xfffffe7c
 470:	656e6f6e 	strbvs	r6, [lr, #-3950]!	; 0xf6e
 474:	6261652d 	rsbvs	r6, r1, #188743680	; 0xb400000
 478:	2e342f69 	cdpcs	15, 3, cr2, cr4, cr9, {3}
 47c:	2f332e38 	svccs	0x00332e38
 480:	6c636e69 	stclvs	14, cr6, [r3], #-420	; 0xfffffe5c
 484:	00656475 	rsbeq	r6, r5, r5, ror r4
 488:	6573552f 	ldrbvs	r5, [r3, #-1327]!	; 0x52f
 48c:	622f7372 	eorvs	r7, pc, #-939524095	; 0xc8000001
 490:	6e616972 	mcrvs	9, 3, r6, cr1, cr2, {3}
 494:	2f6e756a 	svccs	0x006e756a
 498:	6b736544 	blvs	1cd99b0 <__bss_end__+0x1ccf6d0>
 49c:	2f706f74 	svccs	0x00706f74
 4a0:	6f686373 	svcvs	0x00686373
 4a4:	572f6c6f 	strpl	r6, [pc, -pc, ror #24]!
 4a8:	65746e69 	ldrbvs	r6, [r4, #-3689]!	; 0xe69
 4ac:	32393172 	eorscc	r3, r9, #-2147483620	; 0x8000001c
 4b0:	53432f30 	movtpl	r2, #16176	; 0x3f30
 4b4:	45303431 	ldrmi	r3, [r0, #-1073]!	; 0x431
 4b8:	3173632f 	cmncc	r3, pc, lsr #6
 4bc:	2d653034 	stclcs	0, cr3, [r5, #-208]!	; 0xffffff30
 4c0:	69773032 	ldmdbvs	r7!, {r1, r4, r5, ip, sp}^
 4c4:	696c2f6e 	stmdbvs	ip!, {r1, r2, r3, r5, r6, r8, r9, sl, fp, sp}^
 4c8:	00697062 	rsbeq	r7, r9, r2, rrx
 4cc:	69727000 	ldmdbvs	r2!, {ip, sp, lr}^
 4d0:	2e6b746e 	cdpcs	4, 6, cr7, cr11, cr14, {3}
 4d4:	00010063 	andeq	r0, r1, r3, rrx
 4d8:	64747300 	ldrbtvs	r7, [r4], #-768	; 0x300
 4dc:	2e677261 	cdpcs	2, 6, cr7, cr7, cr1, {3}
 4e0:	00020068 	andeq	r0, r2, r8, rrx
 4e4:	75623c00 	strbvc	r3, [r2, #-3072]!	; 0xc00
 4e8:	2d746c69 	ldclcs	12, cr6, [r4, #-420]!	; 0xfffffe5c
 4ec:	003e6e69 	eorseq	r6, lr, r9, ror #28
 4f0:	72000000 	andvc	r0, r0, #0
 4f4:	682e6970 	stmdavs	lr!, {r4, r5, r6, r8, fp, sp, lr}
 4f8:	00000300 	andeq	r0, r0, r0, lsl #6
 4fc:	702d6176 	eorvc	r6, sp, r6, ror r1
 500:	746e6972 	strbtvc	r6, [lr], #-2418	; 0x972
 504:	00682e6b 	rsbeq	r2, r8, fp, ror #28
 508:	00000001 	andeq	r0, r0, r1
 50c:	3c020500 	cfstr32cc	mvfx0, [r2], {-0}
 510:	1700008e 	strne	r0, [r0, -lr, lsl #1]
 514:	89bf4b6b 	ldmibhi	pc!, {r0, r1, r3, r5, r6, r8, r9, fp, lr}	; <UNPREDICTABLE>
 518:	01000e02 	tsteq	r0, r2, lsl #28
 51c:	00008a01 	andeq	r8, r0, r1, lsl #20
 520:	72000200 	andvc	r0, r0, #0, 4
 524:	02000000 	andeq	r0, r0, #0
 528:	0d0efb01 	vstreq	d15, [lr, #-4]
 52c:	01010100 	mrseq	r0, (UNDEF: 17)
 530:	00000001 	andeq	r0, r0, r1
 534:	01000001 	tsteq	r0, r1
 538:	6362696c 	cmnvs	r2, #108, 18	; 0x1b0000
 53c:	73552f00 	cmpvc	r5, #0, 30
 540:	2f737265 	svccs	0x00737265
 544:	61697262 	cmnvs	r9, r2, ror #4
 548:	6e756a6e 	vsubvs.f32	s13, s10, s29
 54c:	7365442f 	cmnvc	r5, #788529152	; 0x2f000000
 550:	706f746b 	rsbvc	r7, pc, fp, ror #8
 554:	6863732f 	stmdavs	r3!, {r0, r1, r2, r3, r5, r8, r9, ip, sp, lr}^
 558:	2f6c6f6f 	svccs	0x006c6f6f
 55c:	746e6957 	strbtvc	r6, [lr], #-2391	; 0x957
 560:	39317265 	ldmdbcc	r1!, {r0, r2, r5, r6, r9, ip, sp, lr}
 564:	432f3032 	teqmi	pc, #50	; 0x32
 568:	30343153 	eorscc	r3, r4, r3, asr r1
 56c:	73632f45 	cmnvc	r3, #276	; 0x114
 570:	65303431 	ldrvs	r3, [r0, #-1073]!	; 0x431
 574:	7730322d 	ldrvc	r3, [r0, -sp, lsr #4]!
 578:	6c2f6e69 	stcvs	14, cr6, [pc], #-420	; 3dc <_start-0x7c24>
 57c:	69706269 	ldmdbvs	r0!, {r0, r3, r5, r6, r9, sp, lr}^
 580:	75700000 	ldrbvc	r0, [r0, #-0]!
 584:	61686374 	smcvs	34356	; 0x8634
 588:	00632e72 	rsbeq	r2, r3, r2, ror lr
 58c:	72000001 	andvc	r0, r0, #1
 590:	682e6970 	stmdavs	lr!, {r4, r5, r6, r8, fp, sp, lr}
 594:	00000200 	andeq	r0, r0, r0, lsl #4
 598:	02050000 	andeq	r0, r5, #0
 59c:	00008e94 	muleq	r0, r4, lr
 5a0:	136b4a14 	cmnne	fp, #20, 20	; 0x14000
 5a4:	080213bc 	stmdaeq	r2, {r2, r3, r4, r5, r7, r8, r9, ip}
 5a8:	96010100 	strls	r0, [r1], -r0, lsl #2
 5ac:	02000000 	andeq	r0, r0, #0
 5b0:	00006f00 	andeq	r6, r0, r0, lsl #30
 5b4:	fb010200 	blx	40dbe <__bss_end__+0x36ade>
 5b8:	01000d0e 	tsteq	r0, lr, lsl #26
 5bc:	00010101 	andeq	r0, r1, r1, lsl #2
 5c0:	00010000 	andeq	r0, r1, r0
 5c4:	696c0100 	stmdbvs	ip!, {r8}^
 5c8:	2f006362 	svccs	0x00006362
 5cc:	72657355 	rsbvc	r7, r5, #1409286145	; 0x54000001
 5d0:	72622f73 	rsbvc	r2, r2, #460	; 0x1cc
 5d4:	6a6e6169 	bvs	1b98b80 <__bss_end__+0x1b8e8a0>
 5d8:	442f6e75 	strtmi	r6, [pc], #-3701	; 5e0 <_start-0x7a20>
 5dc:	746b7365 	strbtvc	r7, [fp], #-869	; 0x365
 5e0:	732f706f 	teqvc	pc, #111	; 0x6f
 5e4:	6f6f6863 	svcvs	0x006f6863
 5e8:	69572f6c 	ldmdbvs	r7, {r2, r3, r5, r6, r8, r9, sl, fp, sp}^
 5ec:	7265746e 	rsbvc	r7, r5, #1845493760	; 0x6e000000
 5f0:	30323931 	eorscc	r3, r2, r1, lsr r9
 5f4:	3153432f 	cmpcc	r3, pc, lsr #6
 5f8:	2f453034 	svccs	0x00453034
 5fc:	34317363 	ldrtcc	r7, [r1], #-867	; 0x363
 600:	322d6530 	eorcc	r6, sp, #48, 10	; 0xc000000
 604:	6e697730 	mcrvs	7, 3, r7, cr9, cr0, {1}
 608:	62696c2f 	rsbvs	r6, r9, #12032	; 0x2f00
 60c:	00006970 	andeq	r6, r0, r0, ror r9
 610:	6b747570 	blvs	1d1dbd8 <__bss_end__+0x1d138f8>
 614:	0100632e 	tsteq	r0, lr, lsr #6
 618:	70720000 	rsbsvc	r0, r2, r0
 61c:	00682e69 	rsbeq	r2, r8, r9, ror #28
 620:	00000002 	andeq	r0, r0, r2
 624:	d0020500 	andle	r0, r2, r0, lsl #10
 628:	1500008e 	strne	r0, [r0, #-142]	; 0x8e
 62c:	02002d4c 	andeq	r2, r0, #76, 26	; 0x1300
 630:	002f0204 	eoreq	r0, pc, r4, lsl #4
 634:	49020402 	stmdbmi	r2, {r1, sl}
 638:	01040200 	mrseq	r0, R12_usr
 63c:	6b062e06 	blvs	18be5c <__bss_end__+0x181b7c>
 640:	01000602 	tsteq	r0, r2, lsl #12
 644:	0001de01 	andeq	sp, r1, r1, lsl #28
 648:	df000200 	svcle	0x00000200
 64c:	02000000 	andeq	r0, r0, #0
 650:	0d0efb01 	vstreq	d15, [lr, #-4]
 654:	01010100 	mrseq	r0, (UNDEF: 17)
 658:	00000001 	andeq	r0, r0, r1
 65c:	01000001 	tsteq	r0, r1
 660:	6362696c 	cmnvs	r2, #108, 18	; 0x1b0000
 664:	73752f00 	cmnvc	r5, #0, 30
 668:	6f6c2f72 	svcvs	0x006c2f72
 66c:	2f6c6163 	svccs	0x006c6163
 670:	6c6c6543 	cfstr64vs	mvdx6, [ip], #-268	; 0xfffffef4
 674:	612f7261 	teqvs	pc, r1, ror #4
 678:	6e2d6d72 	mcrvs	13, 1, r6, cr13, cr2, {3}
 67c:	2d656e6f 	stclcs	14, cr6, [r5, #-444]!	; 0xfffffe44
 680:	69626165 	stmdbvs	r2!, {r0, r2, r5, r6, r8, sp, lr}^
 684:	382e342f 	stmdacc	lr!, {r0, r1, r2, r3, r5, sl, ip, sp}
 688:	632d332e 	teqvs	sp, #-1207959552	; 0xb8000000
 68c:	30373173 	eorscc	r3, r7, r3, ror r1
 690:	696c2f65 	stmdbvs	ip!, {r0, r2, r5, r6, r8, r9, sl, fp, sp}^
 694:	63672f62 	cmnvs	r7, #392	; 0x188
 698:	72612f63 	rsbvc	r2, r1, #396	; 0x18c
 69c:	6f6e2d6d 	svcvs	0x006e2d6d
 6a0:	652d656e 	strvs	r6, [sp, #-1390]!	; 0x56e
 6a4:	2f696261 	svccs	0x00696261
 6a8:	2e382e34 	mrccs	14, 1, r2, cr8, cr4, {1}
 6ac:	6e692f33 	mcrvs	15, 3, r2, cr9, cr3, {1}
 6b0:	64756c63 	ldrbtvs	r6, [r5], #-3171	; 0xc63
 6b4:	552f0065 	strpl	r0, [pc, #-101]!	; 657 <_start-0x79a9>
 6b8:	73726573 	cmnvc	r2, #482344960	; 0x1cc00000
 6bc:	6972622f 	ldmdbvs	r2!, {r0, r1, r2, r3, r5, r9, sp, lr}^
 6c0:	756a6e61 	strbvc	r6, [sl, #-3681]!	; 0xe61
 6c4:	65442f6e 	strbvs	r2, [r4, #-3950]	; 0xf6e
 6c8:	6f746b73 	svcvs	0x00746b73
 6cc:	63732f70 	cmnvs	r3, #112, 30	; 0x1c0
 6d0:	6c6f6f68 	stclvs	15, cr6, [pc], #-416	; 538 <_start-0x7ac8>
 6d4:	6e69572f 	cdpvs	7, 6, cr5, cr9, cr15, {1}
 6d8:	31726574 	cmncc	r2, r4, ror r5
 6dc:	2f303239 	svccs	0x00303239
 6e0:	34315343 	ldrtcc	r5, [r1], #-835	; 0x343
 6e4:	632f4530 	teqvs	pc, #48, 10	; 0xc000000
 6e8:	30343173 	eorscc	r3, r4, r3, ror r1
 6ec:	30322d65 	eorscc	r2, r2, r5, ror #26
 6f0:	2f6e6977 	svccs	0x006e6977
 6f4:	7062696c 	rsbvc	r6, r2, ip, ror #18
 6f8:	76000069 	strvc	r0, [r0], -r9, rrx
 6fc:	72702d61 	rsbsvc	r2, r0, #6208	; 0x1840
 700:	6b746e69 	blvs	1d1c0ac <__bss_end__+0x1d11dcc>
 704:	0100632e 	tsteq	r0, lr, lsr #6
 708:	74730000 	ldrbtvc	r0, [r3], #-0
 70c:	67726164 	ldrbvs	r6, [r2, -r4, ror #2]!
 710:	0200682e 	andeq	r6, r0, #3014656	; 0x2e0000
 714:	70720000 	rsbsvc	r0, r2, r0
 718:	00682e69 	rsbeq	r2, r8, r9, ror #28
 71c:	3c000003 	stccc	0, cr0, [r0], {3}
 720:	6c697562 	cfstr64vs	mvdx7, [r9], #-392	; 0xfffffe78
 724:	6e692d74 	mcrvs	13, 3, r2, cr9, cr4, {3}
 728:	0000003e 	andeq	r0, r0, lr, lsr r0
 72c:	05000000 	streq	r0, [r0, #-0]
 730:	008f0402 	addeq	r0, pc, r2, lsl #8
 734:	01260300 	teqeq	r6, r0, lsl #6
 738:	3113a501 	tstcc	r3, r1, lsl #10
 73c:	0402002d 	streq	r0, [r2], #-45	; 0x2d
 740:	02002f02 	andeq	r2, r0, #2, 30
 744:	002d0204 	eoreq	r0, sp, r4, lsl #4
 748:	2f020402 	svccs	0x00020402
 74c:	01040200 	mrseq	r0, R12_usr
 750:	304c4c2d 	subcc	r4, ip, sp, lsr #24
 754:	4f2f4b14 	svcmi	0x002f4b14
 758:	02040200 	andeq	r0, r4, #0, 4
 75c:	04020067 	streq	r0, [r2], #-103	; 0x67
 760:	4d4c6501 	cfstr64mi	mvdx6, [ip, #-4]
 764:	312fa030 	teqcc	pc, r0, lsr r0	; <UNPREDICTABLE>
 768:	16260230 			; <UNDEFINED> instruction: 0x16260230
 76c:	002c2d84 	eoreq	r2, ip, r4, lsl #27
 770:	30010402 	andcc	r0, r1, r2, lsl #8
 774:	01040200 	mrseq	r0, R12_usr
 778:	00660633 	rsbeq	r0, r6, r3, lsr r6
 77c:	2e010402 	cdpcs	4, 0, cr0, cr1, cr2, {0}
 780:	01040200 	mrseq	r0, R12_usr
 784:	67210806 	strvs	r0, [r1, -r6, lsl #16]!
 788:	8273032f 	rsbshi	r0, r3, #-1140850688	; 0xbc000000
 78c:	002e1303 	eoreq	r1, lr, r3, lsl #6
 790:	06010402 	streq	r0, [r1], -r2, lsl #8
 794:	0402002e 	streq	r0, [r2], #-46	; 0x2e
 798:	6a9f0601 	bvs	fe7c1fa4 <__bss_end__+0xfe7b7cc4>
 79c:	2e67034b 	cdpcs	3, 6, cr0, cr7, cr11, {2}
 7a0:	002e2103 	eoreq	r2, lr, r3, lsl #2
 7a4:	06010402 	streq	r0, [r1], -r2, lsl #8
 7a8:	0402002e 	streq	r0, [r2], #-46	; 0x2e
 7ac:	009f0601 	addseq	r0, pc, r1, lsl #12
 7b0:	6a010402 	bvs	417c0 <__bss_end__+0x374e0>
 7b4:	a603f3d9 			; <UNDEFINED> instruction: 0xa603f3d9
 7b8:	2f20087f 	svccs	0x0020087f
 7bc:	01040200 	mrseq	r0, R12_usr
 7c0:	d7064a06 	strle	r4, [r6, -r6, lsl #20]
 7c4:	da032f4b 	ble	cc4f8 <__bss_end__+0xc2218>
 7c8:	4c83f200 	sfmmi	f7, 1, [r3], {0}
 7cc:	2e0e0348 	cdpcs	3, 0, cr0, cr14, cr8, {2}
 7d0:	2f2e7503 	svccs	0x002e7503
 7d4:	2f4b842f 	svccs	0x004b842f
 7d8:	30314d2d 	eorscc	r4, r1, sp, lsr #26
 7dc:	0200832f 	andeq	r8, r0, #-1140850688	; 0xbc000000
 7e0:	a22c0104 	eorge	r0, ip, #4, 2
 7e4:	01040200 	mrseq	r0, R12_usr
 7e8:	d8064a06 	stmdale	r6, {r1, r2, r9, fp, lr}
 7ec:	03163602 	tsteq	r6, #2097152	; 0x200000
 7f0:	2108d60e 	tstcs	r8, lr, lsl #12
 7f4:	f331f330 	vcge.u<illegal width 64>	d15, d1, d16
 7f8:	4b30f330 	blmi	c3d4c0 <__bss_end__+0xc331e0>
 7fc:	0830f330 	ldmdaeq	r0!, {r4, r5, r8, r9, ip, sp, lr, pc}
 800:	002f3123 	eoreq	r3, pc, r3, lsr #2
 804:	65010402 	strvs	r0, [r1, #-1026]	; 0x402
 808:	02040200 	andeq	r0, r4, #0, 4
 80c:	02004a06 	andeq	r4, r0, #24576	; 0x6000
 810:	03060104 	movweq	r0, #24836	; 0x6104
 814:	02006642 	andeq	r6, r0, #69206016	; 0x4200000
 818:	66060204 	strvs	r0, [r6], -r4, lsl #4
 81c:	00c20306 	sbceq	r0, r2, r6, lsl #6
 820:	1002684a 	andne	r6, r2, sl, asr #16
 824:	43010100 	movwmi	r0, #4352	; 0x1100
 828:	02000000 	andeq	r0, r0, #0
 82c:	00002900 	andeq	r2, r0, r0, lsl #18
 830:	fb010200 	blx	4103a <__bss_end__+0x36d5a>
 834:	01000d0e 	tsteq	r0, lr, lsl #26
 838:	00010101 	andeq	r0, r1, r1, lsl #2
 83c:	00010000 	andeq	r0, r1, r0
 840:	73630100 	cmnvc	r3, #0, 2
 844:	65303431 	ldrvs	r3, [r0, #-1073]!	; 0x431
 848:	6372732d 	cmnvs	r2, #-1275068416	; 0xb4000000
 84c:	61630000 	cmnvs	r3, r0
 850:	2e656863 	cdpcs	8, 6, cr6, cr5, cr3, {3}
 854:	00010063 	andeq	r0, r1, r3, rrx
 858:	05000000 	streq	r0, [r0, #-0]
 85c:	0093fc02 	addseq	pc, r3, r2, lsl #24
 860:	30141400 	andscc	r1, r4, r0, lsl #8
 864:	31144e2f 	tstcc	r4, pc, lsr #28
 868:	0004022f 	andeq	r0, r4, pc, lsr #4
 86c:	00930101 	addseq	r0, r3, r1, lsl #2
 870:	00020000 	andeq	r0, r2, r0
 874:	0000007d 	andeq	r0, r0, sp, ror r0
 878:	0efb0102 	cdpeq	1, 15, cr0, cr11, cr2, {0}
 87c:	0101000d 	tsteq	r1, sp
 880:	00000101 	andeq	r0, r0, r1, lsl #2
 884:	00000100 	andeq	r0, r0, r0, lsl #2
 888:	31736301 	cmncc	r3, r1, lsl #6
 88c:	2d653034 	stclcs	0, cr3, [r5, #-208]!	; 0xffffff30
 890:	00637273 	rsbeq	r7, r3, r3, ror r2
 894:	6573552f 	ldrbvs	r5, [r3, #-1327]!	; 0x52f
 898:	622f7372 	eorvs	r7, pc, #-939524095	; 0xc8000001
 89c:	6e616972 	mcrvs	9, 3, r6, cr1, cr2, {3}
 8a0:	2f6e756a 	svccs	0x006e756a
 8a4:	6b736544 	blvs	1cd9dbc <__bss_end__+0x1ccfadc>
 8a8:	2f706f74 	svccs	0x00706f74
 8ac:	6f686373 	svcvs	0x00686373
 8b0:	572f6c6f 	strpl	r6, [pc, -pc, ror #24]!
 8b4:	65746e69 	ldrbvs	r6, [r4, #-3689]!	; 0xe69
 8b8:	32393172 	eorscc	r3, r9, #-2147483620	; 0x8000001c
 8bc:	53432f30 	movtpl	r2, #16176	; 0x3f30
 8c0:	45303431 	ldrmi	r3, [r0, #-1073]!	; 0x431
 8c4:	3173632f 	cmncc	r3, pc, lsr #6
 8c8:	2d653034 	stclcs	0, cr3, [r5, #-208]!	; 0xffffff30
 8cc:	69773032 	ldmdbvs	r7!, {r1, r4, r5, ip, sp}^
 8d0:	696c2f6e 	stmdbvs	ip!, {r1, r2, r3, r5, r6, r8, r9, sl, fp, sp}^
 8d4:	00697062 	rsbeq	r7, r9, r2, rrx
 8d8:	656c6300 	strbvs	r6, [ip, #-768]!	; 0x300
 8dc:	722d6e61 	eorvc	r6, sp, #1552	; 0x610
 8e0:	6f6f6265 	svcvs	0x006f6265
 8e4:	00632e74 	rsbeq	r2, r3, r4, ror lr
 8e8:	72000001 	andvc	r0, r0, #1
 8ec:	682e6970 	stmdavs	lr!, {r4, r5, r6, r8, fp, sp, lr}
 8f0:	00000200 	andeq	r0, r0, r0, lsl #4
 8f4:	02050000 	andeq	r0, r5, #0
 8f8:	0000941c 	andeq	r9, r0, ip, lsl r4
 8fc:	4b832f15 	blmi	fe0cc558 <__bss_end__+0xfe0c2278>
 900:	01000602 	tsteq	r0, r2, lsl #12
 904:	00009a01 	andeq	r9, r0, r1, lsl #20
 908:	77000200 	strvc	r0, [r0, -r0, lsl #4]
 90c:	02000000 	andeq	r0, r0, #0
 910:	0d0efb01 	vstreq	d15, [lr, #-4]
 914:	01010100 	mrseq	r0, (UNDEF: 17)
 918:	00000001 	andeq	r0, r0, r1
 91c:	01000001 	tsteq	r0, r1
 920:	34317363 	ldrtcc	r7, [r1], #-867	; 0x363
 924:	732d6530 	teqvc	sp, #48, 10	; 0xc000000
 928:	2f006372 	svccs	0x00006372
 92c:	72657355 	rsbvc	r7, r5, #1409286145	; 0x54000001
 930:	72622f73 	rsbvc	r2, r2, #460	; 0x1cc
 934:	6a6e6169 	bvs	1b98ee0 <__bss_end__+0x1b8ec00>
 938:	442f6e75 	strtmi	r6, [pc], #-3701	; 940 <_start-0x76c0>
 93c:	746b7365 	strbtvc	r7, [fp], #-869	; 0x365
 940:	732f706f 	teqvc	pc, #111	; 0x6f
 944:	6f6f6863 	svcvs	0x006f6863
 948:	69572f6c 	ldmdbvs	r7, {r2, r3, r5, r6, r8, r9, sl, fp, sp}^
 94c:	7265746e 	rsbvc	r7, r5, #1845493760	; 0x6e000000
 950:	30323931 	eorscc	r3, r2, r1, lsr r9
 954:	3153432f 	cmpcc	r3, pc, lsr #6
 958:	2f453034 	svccs	0x00453034
 95c:	34317363 	ldrtcc	r7, [r1], #-867	; 0x363
 960:	322d6530 	eorcc	r6, sp, #48, 10	; 0xc000000
 964:	6e697730 	mcrvs	7, 3, r7, cr9, cr0, {1}
 968:	62696c2f 	rsbvs	r6, r9, #12032	; 0x2f00
 96c:	00006970 	andeq	r6, r0, r0, ror r9
 970:	61747363 	cmnvs	r4, r3, ror #6
 974:	632e7472 	teqvs	lr, #1912602624	; 0x72000000
 978:	00000100 	andeq	r0, r0, r0, lsl #2
 97c:	2e697072 	mcrcs	0, 3, r7, cr9, cr2, {3}
 980:	00020068 	andeq	r0, r2, r8, rrx
 984:	05000000 	streq	r0, [r0, #-0]
 988:	00944402 	addseq	r4, r4, r2, lsl #8
 98c:	010c0300 	mrseq	r0, LR_mon
 990:	2d2f3132 	stfcss	f3, [pc, #-200]!	; 8d0 <_start-0x7730>
 994:	0402002f 	streq	r0, [r2], #-47	; 0x2f
 998:	0f034901 	svceq	0x00034901
 99c:	06022f4a 	streq	r2, [r2], -sl, asr #30
 9a0:	99010100 	stmdbls	r1, {r8}
 9a4:	02000000 	andeq	r0, r0, #0
 9a8:	00007700 	andeq	r7, r0, r0, lsl #14
 9ac:	fb010200 	blx	411b6 <__bss_end__+0x36ed6>
 9b0:	01000d0e 	tsteq	r0, lr, lsl #26
 9b4:	00010101 	andeq	r0, r1, r1, lsl #2
 9b8:	00010000 	andeq	r0, r1, r0
 9bc:	73630100 	cmnvc	r3, #0, 2
 9c0:	65303431 	ldrvs	r3, [r0, #-1073]!	; 0x431
 9c4:	6372732d 	cmnvs	r2, #-1275068416	; 0xb4000000
 9c8:	73552f00 	cmpvc	r5, #0, 30
 9cc:	2f737265 	svccs	0x00737265
 9d0:	61697262 	cmnvs	r9, r2, ror #4
 9d4:	6e756a6e 	vsubvs.f32	s13, s10, s29
 9d8:	7365442f 	cmnvc	r5, #788529152	; 0x2f000000
 9dc:	706f746b 	rsbvc	r7, pc, fp, ror #8
 9e0:	6863732f 	stmdavs	r3!, {r0, r1, r2, r3, r5, r8, r9, ip, sp, lr}^
 9e4:	2f6c6f6f 	svccs	0x006c6f6f
 9e8:	746e6957 	strbtvc	r6, [lr], #-2391	; 0x957
 9ec:	39317265 	ldmdbcc	r1!, {r0, r2, r5, r6, r9, ip, sp, lr}
 9f0:	432f3032 	teqmi	pc, #50	; 0x32
 9f4:	30343153 	eorscc	r3, r4, r3, asr r1
 9f8:	73632f45 	cmnvc	r3, #276	; 0x114
 9fc:	65303431 	ldrvs	r3, [r0, #-1073]!	; 0x431
 a00:	7730322d 	ldrvc	r3, [r0, -sp, lsr #4]!
 a04:	6c2f6e69 	stcvs	14, cr6, [pc], #-420	; 868 <_start-0x7798>
 a08:	69706269 	ldmdbvs	r0!, {r0, r3, r5, r6, r9, sp, lr}^
 a0c:	65720000 	ldrbvs	r0, [r2, #-0]!
 a10:	746f6f62 	strbtvc	r6, [pc], #-3938	; a18 <_start-0x75e8>
 a14:	0100632e 	tsteq	r0, lr, lsr #6
 a18:	70720000 	rsbsvc	r0, r2, r0
 a1c:	00682e69 	rsbeq	r2, r8, r9, ror #28
 a20:	00000002 	andeq	r0, r0, r2
 a24:	78020500 	stmdavc	r2, {r8, sl}
 a28:	03000094 	movweq	r0, #148	; 0x94
 a2c:	3114010d 	tstcc	r4, sp, lsl #2
 a30:	2f15852f 	svccs	0x0015852f
 a34:	672f4d4b 	strvs	r4, [pc, -fp, asr #26]!
 a38:	02675235 	rsbeq	r5, r7, #1342177283	; 0x50000003
 a3c:	01010010 	tsteq	r1, r0, lsl r0
 a40:	000000a3 	andeq	r0, r0, r3, lsr #1
 a44:	00760002 	rsbseq	r0, r6, r2
 a48:	01020000 	mrseq	r0, (UNDEF: 2)
 a4c:	000d0efb 	strdeq	r0, [sp], -fp
 a50:	01010101 	tsteq	r1, r1, lsl #2
 a54:	01000000 	mrseq	r0, (UNDEF: 0)
 a58:	63010000 	movwvs	r0, #4096	; 0x1000
 a5c:	30343173 	eorscc	r3, r4, r3, ror r1
 a60:	72732d65 	rsbsvc	r2, r3, #6464	; 0x1940
 a64:	552f0063 	strpl	r0, [pc, #-99]!	; a09 <_start-0x75f7>
 a68:	73726573 	cmnvc	r2, #482344960	; 0x1cc00000
 a6c:	6972622f 	ldmdbvs	r2!, {r0, r1, r2, r3, r5, r9, sp, lr}^
 a70:	756a6e61 	strbvc	r6, [sl, #-3681]!	; 0xe61
 a74:	65442f6e 	strbvs	r2, [r4, #-3950]	; 0xf6e
 a78:	6f746b73 	svcvs	0x00746b73
 a7c:	63732f70 	cmnvs	r3, #112, 30	; 0x1c0
 a80:	6c6f6f68 	stclvs	15, cr6, [pc], #-416	; 8e8 <_start-0x7718>
 a84:	6e69572f 	cdpvs	7, 6, cr5, cr9, cr15, {1}
 a88:	31726574 	cmncc	r2, r4, ror r5
 a8c:	2f303239 	svccs	0x00303239
 a90:	34315343 	ldrtcc	r5, [r1], #-835	; 0x343
 a94:	632f4530 	teqvs	pc, #48, 10	; 0xc000000
 a98:	30343173 	eorscc	r3, r4, r3, ror r1
 a9c:	30322d65 	eorscc	r2, r2, r5, ror #26
 aa0:	2f6e6977 	svccs	0x006e6977
 aa4:	7062696c 	rsbvc	r6, r2, ip, ror #18
 aa8:	74000069 	strvc	r0, [r0], #-105	; 0x69
 aac:	72656d69 	rsbvc	r6, r5, #6720	; 0x1a40
 ab0:	0100632e 	tsteq	r0, lr, lsr #6
 ab4:	70720000 	rsbsvc	r0, r2, r0
 ab8:	00682e69 	rsbeq	r2, r8, r9, ror #28
 abc:	00000002 	andeq	r0, r0, r2
 ac0:	ec020500 	cfstr32	mvfx0, [r2], {-0}
 ac4:	16000094 			; <UNDEFINED> instruction: 0x16000094
 ac8:	002d2f14 	eoreq	r2, sp, r4, lsl pc
 acc:	06010402 	streq	r0, [r1], -r2, lsl #8
 ad0:	316d062e 	cmncc	sp, lr, lsr #12
 ad4:	324d4b2f 	subcc	r4, sp, #48128	; 0xbc00
 ad8:	4c4b3031 	mcrrmi	0, 3, r3, fp, cr1
 adc:	2f2f6a2f 	svccs	0x002f6a2f
 ae0:	08022f84 	stmdaeq	r2, {r2, r7, r8, r9, sl, fp, sp}
 ae4:	7f010100 	svcvc	0x00010100
 ae8:	02000001 	andeq	r0, r0, #1
 aec:	0000ca00 	andeq	ip, r0, r0, lsl #20
 af0:	fb010200 	blx	412fa <__bss_end__+0x3701a>
 af4:	01000d0e 	tsteq	r0, lr, lsl #26
 af8:	00010101 	andeq	r0, r1, r1, lsl #2
 afc:	00010000 	andeq	r0, r1, r0
 b00:	796d0100 	stmdbvc	sp!, {r8}^
 b04:	6372732d 	cmnvs	r2, #-1275068416	; 0xb4000000
 b08:	73552f00 	cmpvc	r5, #0, 30
 b0c:	2f737265 	svccs	0x00737265
 b10:	61697262 	cmnvs	r9, r2, ror #4
 b14:	6e756a6e 	vsubvs.f32	s13, s10, s29
 b18:	7365442f 	cmnvc	r5, #788529152	; 0x2f000000
 b1c:	706f746b 	rsbvc	r7, pc, fp, ror #8
 b20:	6863732f 	stmdavs	r3!, {r0, r1, r2, r3, r5, r8, r9, ip, sp, lr}^
 b24:	2f6c6f6f 	svccs	0x006c6f6f
 b28:	746e6957 	strbtvc	r6, [lr], #-2391	; 0x957
 b2c:	39317265 	ldmdbcc	r1!, {r0, r2, r5, r6, r9, ip, sp, lr}
 b30:	432f3032 	teqmi	pc, #50	; 0x32
 b34:	30343153 	eorscc	r3, r4, r3, asr r1
 b38:	73632f45 	cmnvc	r3, #276	; 0x114
 b3c:	65303431 	ldrvs	r3, [r0, #-1073]!	; 0x431
 b40:	7730322d 	ldrvc	r3, [r0, -sp, lsr #4]!
 b44:	6c2f6e69 	stcvs	14, cr6, [pc], #-420	; 9a8 <_start-0x7658>
 b48:	69706269 	ldmdbvs	r0!, {r0, r3, r5, r6, r9, sp, lr}^
 b4c:	3173632f 	cmncc	r3, pc, lsr #6
 b50:	2d653034 	stclcs	0, cr3, [r5, #-208]!	; 0xffffff30
 b54:	00637273 	rsbeq	r7, r3, r3, ror r2
 b58:	6573552f 	ldrbvs	r5, [r3, #-1327]!	; 0x52f
 b5c:	622f7372 	eorvs	r7, pc, #-939524095	; 0xc8000001
 b60:	6e616972 	mcrvs	9, 3, r6, cr1, cr2, {3}
 b64:	2f6e756a 	svccs	0x006e756a
 b68:	6b736544 	blvs	1cda080 <__bss_end__+0x1ccfda0>
 b6c:	2f706f74 	svccs	0x00706f74
 b70:	6f686373 	svcvs	0x00686373
 b74:	572f6c6f 	strpl	r6, [pc, -pc, ror #24]!
 b78:	65746e69 	ldrbvs	r6, [r4, #-3689]!	; 0xe69
 b7c:	32393172 	eorscc	r3, r9, #-2147483620	; 0x8000001c
 b80:	53432f30 	movtpl	r2, #16176	; 0x3f30
 b84:	45303431 	ldrmi	r3, [r0, #-1073]!	; 0x431
 b88:	3173632f 	cmncc	r3, pc, lsr #6
 b8c:	2d653034 	stclcs	0, cr3, [r5, #-208]!	; 0xffffff30
 b90:	69773032 	ldmdbvs	r7!, {r1, r4, r5, ip, sp}^
 b94:	696c2f6e 	stmdbvs	ip!, {r1, r2, r3, r5, r6, r8, r9, sl, fp, sp}^
 b98:	00697062 	rsbeq	r7, r9, r2, rrx
 b9c:	69706700 	ldmdbvs	r0!, {r8, r9, sl, sp, lr}^
 ba0:	00632e6f 	rsbeq	r2, r3, pc, ror #28
 ba4:	67000001 	strvs	r0, [r0, -r1]
 ba8:	2e6f6970 	mcrcs	9, 3, r6, cr15, cr0, {3}
 bac:	00020068 	andeq	r0, r2, r8, rrx
 bb0:	69707200 	ldmdbvs	r0!, {r9, ip, sp, lr}^
 bb4:	0300682e 	movweq	r6, #2094	; 0x82e
 bb8:	00000000 	andeq	r0, r0, r0
 bbc:	95740205 	ldrbls	r0, [r4, #-517]!	; 0x205
 bc0:	3e030000 	cdpcc	0, 0, cr0, cr3, cr0, {0}
 bc4:	69504e01 	ldmdbvs	r0, {r0, r9, sl, fp, lr}^
 bc8:	67672108 	strbvs	r2, [r7, -r8, lsl #2]!
 bcc:	67676767 	strbvs	r6, [r7, -r7, ror #14]!
 bd0:	22084b32 	andcs	r4, r8, #51200	; 0xc800
 bd4:	135131dc 	cmpne	r1, #220, 2	; 0x37
 bd8:	be30504e 	cdplt	0, 3, cr5, cr0, cr14, {2}
 bdc:	4d135031 	ldcmi	0, cr5, [r3, #-196]	; 0xffffff3c
 be0:	4cc0304f 	stclmi	0, cr3, [r0], {79}	; 0x4f
 be4:	21086950 	tstcs	r8, r0, asr r9
 be8:	67676767 	strbvs	r6, [r7, -r7, ror #14]!
 bec:	4b326767 	blmi	c9a990 <__bss_end__+0xc906b0>
 bf0:	4ca32108 	stfmis	f2, [r3], #32
 bf4:	69842f50 	stmibvs	r4, {r4, r6, r8, r9, sl, fp, sp}
 bf8:	03827503 	orreq	r7, r2, #12582912	; 0xc00000
 bfc:	304d2e0c 	subcc	r2, sp, ip, lsl #28
 c00:	4d4c4b4e 	vstrmi	d20, [ip, #-312]	; 0xfffffec8
 c04:	08696b6a 	stmdaeq	r9!, {r1, r3, r5, r6, r8, r9, fp, sp, lr}^
 c08:	67676721 	strbvs	r6, [r7, -r1, lsr #14]!
 c0c:	32676767 	rsbcc	r6, r7, #27000832	; 0x19c0000
 c10:	c022084b 	eorgt	r0, r2, fp, asr #16
 c14:	4e135130 	mrcmi	1, 0, r5, cr3, cr0, {1}
 c18:	18033050 	stmdane	r3, {r4, r6, ip, sp}
 c1c:	4c9f31ba 	ldfmis	f3, [pc], {186}	; 0xba
 c20:	4e4d522f 	cdpmi	2, 4, cr5, cr13, cr15, {1}
 c24:	4b674b2f 	blmi	19d38e8 <__bss_end__+0x19c9608>
 c28:	4c676768 	stclmi	7, cr6, [r7], #-416	; 0xfffffe60
 c2c:	4b2f672f 	blmi	bda8f0 <__bss_end__+0xbd0610>
 c30:	2f4e4c6e 	svccs	0x004e4c6e
 c34:	684b674b 	stmdavs	fp, {r0, r1, r3, r6, r8, r9, sl, sp, lr}^
 c38:	2f4c6767 	svccs	0x004c6767
 c3c:	6d4b2f67 	stclvs	15, cr2, [fp, #-412]	; 0xfffffe64
 c40:	4b2f4e4b 	blmi	bd4574 <__bss_end__+0xbca294>
 c44:	04020067 	streq	r0, [r2], #-103	; 0x67
 c48:	06660601 	strbteq	r0, [r6], -r1, lsl #12
 c4c:	002f9f68 	eoreq	r9, pc, r8, ror #30
 c50:	06010402 	streq	r0, [r1], -r2, lsl #8
 c54:	2f68064a 	svccs	0x0068064a
 c58:	034a7303 	movteq	r7, #41731	; 0xa303
 c5c:	4c4d2e0e 	mcrrmi	14, 0, r2, sp, cr14
 c60:	bc4b2f4e 	mcrrlt	15, 4, r2, fp, cr14
 c64:	000602bc 			; <UNDEFINED> instruction: 0x000602bc
 c68:	01010101 	tsteq	r1, r1, lsl #2
 c6c:	00020000 	andeq	r0, r2, r0
 c70:	000000ca 	andeq	r0, r0, sl, asr #1
 c74:	0efb0102 	cdpeq	1, 15, cr0, cr11, cr2, {0}
 c78:	0101000d 	tsteq	r1, sp
 c7c:	00000101 	andeq	r0, r0, r1, lsl #2
 c80:	00000100 	andeq	r0, r0, r0, lsl #2
 c84:	2d796d01 	ldclcs	13, cr6, [r9, #-4]!
 c88:	00637273 	rsbeq	r7, r3, r3, ror r2
 c8c:	6573552f 	ldrbvs	r5, [r3, #-1327]!	; 0x52f
 c90:	622f7372 	eorvs	r7, pc, #-939524095	; 0xc8000001
 c94:	6e616972 	mcrvs	9, 3, r6, cr1, cr2, {3}
 c98:	2f6e756a 	svccs	0x006e756a
 c9c:	6b736544 	blvs	1cda1b4 <__bss_end__+0x1ccfed4>
 ca0:	2f706f74 	svccs	0x00706f74
 ca4:	6f686373 	svcvs	0x00686373
 ca8:	572f6c6f 	strpl	r6, [pc, -pc, ror #24]!
 cac:	65746e69 	ldrbvs	r6, [r4, #-3689]!	; 0xe69
 cb0:	32393172 	eorscc	r3, r9, #-2147483620	; 0x8000001c
 cb4:	53432f30 	movtpl	r2, #16176	; 0x3f30
 cb8:	45303431 	ldrmi	r3, [r0, #-1073]!	; 0x431
 cbc:	3173632f 	cmncc	r3, pc, lsr #6
 cc0:	2d653034 	stclcs	0, cr3, [r5, #-208]!	; 0xffffff30
 cc4:	69773032 	ldmdbvs	r7!, {r1, r4, r5, ip, sp}^
 cc8:	696c2f6e 	stmdbvs	ip!, {r1, r2, r3, r5, r6, r8, r9, sl, fp, sp}^
 ccc:	2f697062 	svccs	0x00697062
 cd0:	34317363 	ldrtcc	r7, [r1], #-867	; 0x363
 cd4:	732d6530 	teqvc	sp, #48, 10	; 0xc000000
 cd8:	2f006372 	svccs	0x00006372
 cdc:	72657355 	rsbvc	r7, r5, #1409286145	; 0x54000001
 ce0:	72622f73 	rsbvc	r2, r2, #460	; 0x1cc
 ce4:	6a6e6169 	bvs	1b99290 <__bss_end__+0x1b8efb0>
 ce8:	442f6e75 	strtmi	r6, [pc], #-3701	; cf0 <_start-0x7310>
 cec:	746b7365 	strbtvc	r7, [fp], #-869	; 0x365
 cf0:	732f706f 	teqvc	pc, #111	; 0x6f
 cf4:	6f6f6863 	svcvs	0x006f6863
 cf8:	69572f6c 	ldmdbvs	r7, {r2, r3, r5, r6, r8, r9, sl, fp, sp}^
 cfc:	7265746e 	rsbvc	r7, r5, #1845493760	; 0x6e000000
 d00:	30323931 	eorscc	r3, r2, r1, lsr r9
 d04:	3153432f 	cmpcc	r3, pc, lsr #6
 d08:	2f453034 	svccs	0x00453034
 d0c:	34317363 	ldrtcc	r7, [r1], #-867	; 0x363
 d10:	322d6530 	eorcc	r6, sp, #48, 10	; 0xc000000
 d14:	6e697730 	mcrvs	7, 3, r7, cr9, cr0, {1}
 d18:	62696c2f 	rsbvs	r6, r9, #12032	; 0x2f00
 d1c:	00006970 	andeq	r6, r0, r0, ror r9
 d20:	74726175 	ldrbtvc	r6, [r2], #-373	; 0x175
 d24:	0100632e 	tsteq	r0, lr, lsr #6
 d28:	70670000 	rsbvc	r0, r7, r0
 d2c:	682e6f69 	stmdavs	lr!, {r0, r3, r5, r6, r8, r9, sl, fp, sp, lr}
 d30:	00000200 	andeq	r0, r0, r0, lsl #4
 d34:	2e697072 	mcrcs	0, 3, r7, cr9, cr2, {3}
 d38:	00030068 	andeq	r0, r3, r8, rrx
 d3c:	05000000 	streq	r0, [r0, #-0]
 d40:	009b1402 	addseq	r1, fp, r2, lsl #8
 d44:	01360300 	teqeq	r6, r0, lsl #6
 d48:	6d673330 	stclvs	3, cr3, [r7, #-192]!	; 0xffffff40
 d4c:	6730d830 			; <UNDEFINED> instruction: 0x6730d830
 d50:	67676767 	strbvs	r6, [r7, -r7, ror #14]!
 d54:	672f8668 	strvs	r8, [pc, -r8, ror #12]!
 d58:	6767306a 	strbvs	r3, [r7, -sl, rrx]!
 d5c:	6a672f69 	bvs	19ccb08 <__bss_end__+0x19c2828>
 d60:	2fc1674c 	svccs	0x00c1674c
 d64:	682f302f 	stmdavs	pc!, {r0, r1, r2, r3, r5, ip, sp}	; <UNPREDICTABLE>
 d68:	02023049 	andeq	r3, r2, #73	; 0x49
 d6c:	Address 0x0000000000000d6c is out of bounds.


Disassembly of section .debug_str:

00000000 <.debug_str>:
   0:	53465047 	movtpl	r5, #24647	; 0x6047
   4:	00324c45 	eorseq	r4, r2, r5, asr #24
   8:	6f697067 	svcvs	0x00697067
   c:	726c635f 	rsbvc	r6, ip, #2080374785	; 0x7c000001
  10:	50470030 	subpl	r0, r7, r0, lsr r0
  14:	30524c43 	subscc	r4, r2, r3, asr #24
  18:	73616600 	cmnvc	r1, #0, 12
  1c:	70675f74 	rsbvc	r5, r7, r4, ror pc
  20:	775f6f69 	ldrbvc	r6, [pc, -r9, ror #30]
  24:	65746972 	ldrbvs	r6, [r4, #-2418]!	; 0x972
  28:	6c616800 	stclvs	8, cr6, [r1], #-0
  2c:	65645f66 	strbvs	r5, [r4, #-3942]!	; 0xf66
  30:	0079616c 	rsbseq	r6, r9, ip, ror #2
  34:	676e6f6c 	strbvs	r6, [lr, -ip, ror #30]!
  38:	6e6f6c20 	cdpvs	12, 6, cr6, cr15, cr0, {1}
  3c:	6e752067 	cdpvs	0, 7, cr2, cr5, cr7, {3}
  40:	6e676973 	mcrvs	9, 3, r6, cr7, cr3, {3}
  44:	69206465 	stmdbvs	r0!, {r0, r2, r5, r6, sl, sp, lr}
  48:	6600746e 	strvs	r7, [r0], -lr, ror #8
  4c:	5f747361 	svcpl	0x00747361
  50:	6f697067 	svcvs	0x00697067
  54:	7465735f 	strbtvc	r7, [r5], #-863	; 0x35f
  58:	006e6f5f 	rsbeq	r6, lr, pc, asr pc
  5c:	676e6f6c 	strbvs	r6, [lr, -ip, ror #30]!
  60:	6e6f6c20 	cdpvs	12, 6, cr6, cr15, cr0, {1}
  64:	6e692067 	cdpvs	0, 6, cr2, cr9, cr7, {3}
  68:	77730074 			; <UNDEFINED> instruction: 0x77730074
  6c:	7261755f 	rsbvc	r7, r1, #398458880	; 0x17c00000
  70:	65675f74 	strbvs	r5, [r7, #-3956]!	; 0xf74
  74:	47003874 	smlsdxmi	r0, r4, r8, r3
  78:	54455350 	strbpl	r5, [r5], #-848	; 0x350
  7c:	50470030 	subpl	r0, r7, r0, lsr r0
  80:	31544553 	cmpcc	r4, r3, asr r5
  84:	4c504700 	mrrcmi	7, 0, r4, r0, cr0
  88:	00305645 	eorseq	r5, r0, r5, asr #12
  8c:	454c5047 	strbmi	r5, [ip, #-71]	; 0x47
  90:	6e003156 	mcrvs	1, 0, r3, cr0, cr6, {2}
  94:	616d746f 	cmnvs	sp, pc, ror #8
  98:	66006e69 	strvs	r6, [r0], -r9, ror #28
  9c:	5f747361 	svcpl	0x00747361
  a0:	6f697067 	svcvs	0x00697067
  a4:	7465735f 	strbtvc	r7, [r5], #-863	; 0x35f
  a8:	66666f5f 	uqsaxvs	r6, r6, pc	; <UNPREDICTABLE>
  ac:	554e4700 	strbpl	r4, [lr, #-1792]	; 0x700
  b0:	34204320 	strtcc	r4, [r0], #-800	; 0x320
  b4:	332e382e 	teqcc	lr, #3014656	; 0x2e0000
  b8:	636d2d20 	cmnvs	sp, #32, 26	; 0x800
  bc:	613d7570 	teqvs	sp, r0, ror r5
  c0:	31316d72 	teqcc	r1, r2, ror sp
  c4:	7a6a3637 	bvc	1a8d9a8 <__bss_end__+0x1a836c8>
  c8:	20732d66 	rsbscs	r2, r3, r6, ror #26
  cc:	75746d2d 	ldrbvc	r6, [r4, #-3373]!	; 0xd2d
  d0:	613d656e 	teqvs	sp, lr, ror #10
  d4:	31316d72 	teqcc	r1, r2, ror sp
  d8:	7a6a3637 	bvc	1a8d9bc <__bss_end__+0x1a836dc>
  dc:	20732d66 	rsbscs	r2, r3, r6, ror #26
  e0:	6467672d 	strbtvs	r6, [r7], #-1837	; 0x72d
  e4:	4f2d2062 	svcmi	0x002d2062
  e8:	732d2033 	teqvc	sp, #51	; 0x33
  ec:	673d6474 			; <UNDEFINED> instruction: 0x673d6474
  f0:	3939756e 	ldmdbcc	r9!, {r1, r2, r3, r5, r6, r8, sl, ip, sp, lr}
  f4:	66662d20 	strbtvs	r2, [r6], -r0, lsr #26
  f8:	73656572 	cmnvc	r5, #478150656	; 0x1c800000
  fc:	646e6174 	strbtvs	r6, [lr], #-372	; 0x174
 100:	00676e69 	rsbeq	r6, r7, r9, ror #28
 104:	755f7773 	ldrbvc	r7, [pc, #-1907]	; fffff999 <__bss_end__+0xffff56b9>
 108:	5f747261 	svcpl	0x00747261
 10c:	38747570 	ldmdacc	r4!, {r4, r5, r6, r8, sl, ip, sp, lr}^
 110:	69707200 	ldmdbvs	r0!, {r9, ip, sp, lr}^
 114:	7365725f 	cmnvc	r5, #-268435451	; 0xf0000005
 118:	705f7465 	subsvc	r7, pc, r5, ror #8
 11c:	00637475 	rsbeq	r7, r3, r5, ror r4
 120:	53465047 	movtpl	r5, #24647	; 0x6047
 124:	00304c45 	eorseq	r4, r0, r5, asr #24
 128:	53465047 	movtpl	r5, #24647	; 0x6047
 12c:	00314c45 	eorseq	r4, r1, r5, asr #24
 130:	53465047 	movtpl	r5, #24647	; 0x6047
 134:	00334c45 	eorseq	r4, r3, r5, asr #24
 138:	53465047 	movtpl	r5, #24647	; 0x6047
 13c:	00344c45 	eorseq	r4, r4, r5, asr #24
 140:	53465047 	movtpl	r5, #24647	; 0x6047
 144:	00354c45 	eorseq	r4, r5, r5, asr #24
 148:	72727563 	rsbsvc	r7, r2, #415236096	; 0x18c00000
 14c:	6c61765f 	stclvs	6, cr7, [r1], #-380	; 0xfffffe84
 150:	5f006575 	svcpl	0x00006575
 154:	4e55465f 	mrcmi	6, 2, r4, cr5, cr15, {2}
 158:	4f495443 	svcmi	0x00495443
 15c:	005f5f4e 	subseq	r5, pc, lr, asr #30
 160:	726f6873 	rsbvc	r6, pc, #7536640	; 0x730000
 164:	6e752074 	mrcvs	0, 3, r2, cr5, cr4, {3}
 168:	6e676973 	mcrvs	9, 3, r6, cr7, cr3, {3}
 16c:	69206465 	stmdbvs	r0!, {r0, r2, r5, r6, sl, sp, lr}
 170:	6700746e 	strvs	r7, [r0, -lr, ror #8]
 174:	5f6f6970 	svcpl	0x006f6970
 178:	6c657366 	stclvs	3, cr7, [r5], #-408	; 0xfffffe68
 17c:	50470030 	subpl	r0, r7, r0, lsr r0
 180:	31524c43 	cmpcc	r2, r3, asr #24
 184:	656c6300 	strbvs	r6, [ip, #-768]!	; 0x300
 188:	725f6e61 	subsvc	r6, pc, #1552	; 0x610
 18c:	6f6f6265 	svcvs	0x006f6265
 190:	69730074 	ldmdbvs	r3!, {r2, r4, r5, r6}^
 194:	7974657a 	ldmdbvc	r4!, {r1, r3, r4, r5, r6, r8, sl, sp, lr}^
 198:	5f006570 	svcpl	0x00006570
 19c:	0074756f 	rsbseq	r7, r4, pc, ror #10
 1a0:	74726175 	ldrbtvc	r6, [r2], #-373	; 0x175
 1a4:	5f796d00 	svcpl	0x00796d00
 1a8:	755f7773 	ldrbvc	r7, [pc, #-1907]	; fffffa3d <__bss_end__+0xffff575d>
 1ac:	5f747261 	svcpl	0x00747261
 1b0:	6e750074 	mrcvs	0, 3, r0, cr5, cr4, {3}
 1b4:	6e676973 	mcrvs	9, 3, r6, cr7, cr3, {3}
 1b8:	63206465 	teqvs	r0, #1694498816	; 0x65000000
 1bc:	00726168 	rsbseq	r6, r2, r8, ror #2
 1c0:	726f6873 	rsbvc	r6, pc, #7536640	; 0x730000
 1c4:	6e692074 	mcrvs	0, 3, r2, cr9, cr4, {3}
 1c8:	65640074 	strbvs	r0, [r4, #-116]!	; 0x74
 1cc:	5f79616c 	svcpl	0x0079616c
 1d0:	6300736d 	movwvs	r7, #877	; 0x36d
 1d4:	656c6379 	strbvs	r6, [ip, #-889]!	; 0x379
 1d8:	65705f73 	ldrbvs	r5, [r0, #-3955]!	; 0xf73
 1dc:	65735f72 	ldrbvs	r5, [r3, #-3954]!	; 0xf72
 1e0:	61620063 	cmnvs	r2, r3, rrx
 1e4:	67006475 	smlsdxvs	r0, r5, r4, r6
 1e8:	5f6f6970 	svcpl	0x006f6970
 1ec:	30746573 	rsbscc	r6, r4, r3, ror r5
 1f0:	72696600 	rsbvc	r6, r9, #0, 12
 1f4:	67007473 	smlsdxvs	r0, r3, r4, r7
 1f8:	5f6f6970 	svcpl	0x006f6970
 1fc:	5f746573 	svcpl	0x00746573
 200:	75706e69 	ldrbvc	r6, [r0, #-3689]!	; 0xe69
 204:	616c0074 	smcvs	49156	; 0xc004
 208:	67007473 	smlsdxvs	r0, r3, r4, r7
 20c:	5f6f6970 	svcpl	0x006f6970
 210:	5f746573 	svcpl	0x00746573
 214:	7074756f 	rsbsvc	r7, r4, pc, ror #10
 218:	65007475 	strvs	r7, [r0, #-1141]	; 0x475
 21c:	6c62616e 	stfvse	f6, [r2], #-440	; 0xfffffe48
 220:	61635f65 	cmnvs	r3, r5, ror #30
 224:	00656863 	rsbeq	r6, r5, r3, ror #16
 228:	746e6975 	strbtvc	r6, [lr], #-2421	; 0x975
 22c:	00745f38 	rsbseq	r5, r4, r8, lsr pc
 230:	6573552f 	ldrbvs	r5, [r3, #-1327]!	; 0x52f
 234:	622f7372 	eorvs	r7, pc, #-939524095	; 0xc8000001
 238:	6e616972 	mcrvs	9, 3, r6, cr1, cr2, {3}
 23c:	2f6e756a 	svccs	0x006e756a
 240:	6b736544 	blvs	1cd9758 <__bss_end__+0x1ccf478>
 244:	2f706f74 	svccs	0x00706f74
 248:	6f686373 	svcvs	0x00686373
 24c:	532f6c6f 	teqpl	pc, #28416	; 0x6f00
 250:	6e697270 	mcrvs	2, 3, r7, cr9, cr0, {3}
 254:	32393167 	eorscc	r3, r9, #-1073741799	; 0xc0000019
 258:	53432f30 	movtpl	r2, #16176	; 0x3f30
 25c:	4c303432 	cfldrsmi	mvf3, [r0], #-200	; 0xffffff38
 260:	73632f58 	cmnvc	r3, #88, 30	; 0x160
 264:	6c303432 	cfldrsvs	mvf3, [r0], #-200	; 0xffffff38
 268:	30322d78 	eorscc	r2, r2, r8, ror sp
 26c:	2f727073 	svccs	0x00727073
 270:	7362616c 	cmnvc	r2, #108, 2
 274:	752d342f 	strvc	r3, [sp, #-1071]!	; 0x42f
 278:	2d747261 	lfmcs	f7, 2, [r4, #-388]!	; 0xfffffe7c
 27c:	2f316e38 	svccs	0x00316e38
 280:	65696c63 	strbvs	r6, [r9, #-3171]!	; 0xc63
 284:	6300746e 	movwvs	r7, #1134	; 0x46e
 288:	656c6379 	strbvs	r6, [ip, #-889]!	; 0x379
 28c:	7265705f 	rsbvc	r7, r5, #95	; 0x5f
 290:	7469625f 	strbtvc	r6, [r9], #-607	; 0x25f
 294:	6f637300 	svcvs	0x00637300
 298:	632e6570 	teqvs	lr, #112, 10	; 0x1c000000
 29c:	675f5f00 	ldrbvs	r5, [pc, -r0, lsl #30]
 2a0:	5f63756e 	svcpl	0x0063756e
 2a4:	6c5f6176 	ldfvse	f6, [pc], {118}	; 0x76
 2a8:	00747369 	rsbseq	r7, r4, r9, ror #6
 2ac:	6362696c 	cmnvs	r2, #108, 18	; 0x1b0000
 2b0:	6972702f 	ldmdbvs	r2!, {r0, r1, r2, r3, r5, ip, sp, lr}^
 2b4:	2e6b746e 	cdpcs	4, 6, cr7, cr11, cr14, {3}
 2b8:	4e470063 	cdpmi	0, 4, cr0, cr7, cr3, {3}
 2bc:	20432055 	subcs	r2, r3, r5, asr r0
 2c0:	2e382e34 	mrccs	14, 1, r2, cr8, cr4, {1}
 2c4:	6d2d2033 	stcvs	0, cr2, [sp, #-204]!	; 0xffffff34
 2c8:	3d757063 	ldclcc	0, cr7, [r5, #-396]!	; 0xfffffe74
 2cc:	316d7261 	cmncc	sp, r1, ror #4
 2d0:	6a363731 	bvs	d8df9c <__bss_end__+0xd83cbc>
 2d4:	732d667a 	teqvc	sp, #127926272	; 0x7a00000
 2d8:	746d2d20 	strbtvc	r2, [sp], #-3360	; 0xd20
 2dc:	3d656e75 	stclcc	14, cr6, [r5, #-468]!	; 0xfffffe2c
 2e0:	316d7261 	cmncc	sp, r1, ror #4
 2e4:	6a363731 	bvs	d8dfb0 <__bss_end__+0xd83cd0>
 2e8:	732d667a 	teqvc	sp, #127926272	; 0x7a00000
 2ec:	67672d20 	strbvs	r2, [r7, -r0, lsr #26]!
 2f0:	2d206264 	sfmcs	f6, 4, [r0, #-400]!	; 0xfffffe70
 2f4:	2d20674f 	stccs	7, cr6, [r0, #-316]!	; 0xfffffec4
 2f8:	3d647473 	cfstrdcc	mvd7, [r4, #-460]!	; 0xfffffe34
 2fc:	39756e67 	ldmdbcc	r5!, {r0, r1, r2, r5, r6, r9, sl, fp, sp, lr}^
 300:	662d2039 			; <UNDEFINED> instruction: 0x662d2039
 304:	65657266 	strbvs	r7, [r5, #-614]!	; 0x266
 308:	6e617473 	mcrvs	4, 3, r7, cr1, cr3, {3}
 30c:	676e6964 	strbvs	r6, [lr, -r4, ror #18]!
 310:	5f617600 	svcpl	0x00617600
 314:	6e697270 	mcrvs	2, 3, r7, cr9, cr0, {3}
 318:	5f006b74 	svcpl	0x00006b74
 31c:	5f61765f 	svcpl	0x0061765f
 320:	7473696c 	ldrbtvc	r6, [r3], #-2412	; 0x96c
 324:	73552f00 	cmpvc	r5, #0, 30
 328:	2f737265 	svccs	0x00737265
 32c:	61697262 	cmnvs	r9, r2, ror #4
 330:	6e756a6e 	vsubvs.f32	s13, s10, s29
 334:	7365442f 	cmnvc	r5, #788529152	; 0x2f000000
 338:	706f746b 	rsbvc	r7, pc, fp, ror #8
 33c:	6863732f 	stmdavs	r3!, {r0, r1, r2, r3, r5, r8, r9, ip, sp, lr}^
 340:	2f6c6f6f 	svccs	0x006c6f6f
 344:	746e6957 	strbtvc	r6, [lr], #-2391	; 0x957
 348:	39317265 	ldmdbcc	r1!, {r0, r2, r5, r6, r9, ip, sp, lr}
 34c:	432f3032 	teqmi	pc, #50	; 0x32
 350:	30343153 	eorscc	r3, r4, r3, asr r1
 354:	73632f45 	cmnvc	r3, #276	; 0x114
 358:	65303431 	ldrvs	r3, [r0, #-1073]!	; 0x431
 35c:	7730322d 	ldrvc	r3, [r0, -sp, lsr #4]!
 360:	6c2f6e69 	stcvs	14, cr6, [pc], #-420	; 1c4 <_start-0x7e3c>
 364:	69706269 	ldmdbvs	r0!, {r0, r3, r5, r6, r9, sp, lr}^
 368:	67726100 	ldrbvs	r6, [r2, -r0, lsl #2]!
 36c:	5f5f0073 	svcpl	0x005f0073
 370:	75007061 	strvc	r7, [r0, #-97]	; 0x61
 374:	5f747261 	svcpl	0x00747261
 378:	63747570 	cmnvs	r4, #112, 10	; 0x1c000000
 37c:	746e6900 	strbtvc	r6, [lr], #-2304	; 0x900
 380:	616e7265 	cmnvs	lr, r5, ror #4
 384:	75705f6c 	ldrbvc	r5, [r0, #-3948]!	; 0xf6c
 388:	61686374 	smcvs	34356	; 0x8634
 38c:	70720072 	rsbsvc	r0, r2, r2, ror r0
 390:	75705f69 	ldrbvc	r5, [r0, #-3945]!	; 0xf69
 394:	61686374 	smcvs	34356	; 0x8634
 398:	696c0072 	stmdbvs	ip!, {r1, r4, r5, r6}^
 39c:	702f6362 	eorvc	r6, pc, r2, ror #6
 3a0:	68637475 	stmdavs	r3!, {r0, r2, r4, r5, r6, sl, ip, sp, lr}^
 3a4:	632e7261 	teqvs	lr, #268435462	; 0x10000006
 3a8:	69707200 	ldmdbvs	r0!, {r9, ip, sp, lr}^
 3ac:	7465735f 	strbtvc	r7, [r5], #-863	; 0x35f
 3b0:	7475705f 	ldrbtvc	r7, [r5], #-95	; 0x5f
 3b4:	696c0063 	stmdbvs	ip!, {r0, r1, r5, r6}^
 3b8:	702f6362 	eorvc	r6, pc, r2, ror #6
 3bc:	2e6b7475 	mcrcs	4, 3, r7, cr11, cr5, {3}
 3c0:	6e690063 	cdpvs	0, 6, cr0, cr9, cr3, {3}
 3c4:	6e726574 	mrcvs	5, 3, r6, cr2, cr4, {3}
 3c8:	705f6c61 	subsvc	r6, pc, r1, ror #24
 3cc:	006b7475 	rsbeq	r7, fp, r5, ror r4
 3d0:	5f67656e 	svcpl	0x0067656e
 3d4:	65720070 	ldrbvs	r0, [r2, #-112]!	; 0x70
 3d8:	73726576 	cmnvc	r2, #494927872	; 0x1d800000
 3dc:	73690065 	cmnvc	r9, #101	; 0x65
 3e0:	69676964 	stmdbvs	r7!, {r2, r5, r6, r8, fp, sp, lr}^
 3e4:	75700074 	ldrbvc	r0, [r0, #-116]!	; 0x74
 3e8:	665f7374 			; <UNDEFINED> instruction: 0x665f7374
 3ec:	61620070 	smcvs	8192	; 0x2000
 3f0:	73006573 	movwvc	r6, #1395	; 0x573
 3f4:	656e6769 	strbvs	r6, [lr, #-1897]!	; 0x769
 3f8:	00705f64 	rsbseq	r5, r0, r4, ror #30
 3fc:	6362696c 	cmnvs	r2, #108, 18	; 0x1b0000
 400:	2d61762f 	stclcs	6, cr7, [r1, #-188]!	; 0xffffff44
 404:	6e697270 	mcrvs	2, 3, r7, cr9, cr0, {3}
 408:	632e6b74 	teqvs	lr, #116, 22	; 0x1d000
 40c:	69707200 	ldmdbvs	r0!, {r9, ip, sp, lr}^
 410:	7465735f 	strbtvc	r7, [r5], #-863	; 0x35f
 414:	74756f5f 	ldrbtvc	r6, [r5], #-3935	; 0xf5f
 418:	00747570 	rsbseq	r7, r4, r0, ror r5
 41c:	74646977 	strbtvc	r6, [r4], #-2423	; 0x977
 420:	75700068 	ldrbvc	r0, [r0, #-104]!	; 0x68
 424:	665f6374 			; <UNDEFINED> instruction: 0x665f6374
 428:	6d650070 	stclvs	0, cr0, [r5, #-448]!	; 0xfffffe40
 42c:	64007469 	strvs	r7, [r0], #-1129	; 0x469
 430:	62617369 	rsbvs	r7, r1, #-1543503871	; 0xa4000001
 434:	635f656c 	cmpvs	pc, #108, 10	; 0x1b000000
 438:	65686361 	strbvs	r6, [r8, #-865]!	; 0x361
 43c:	31736300 	cmncc	r3, r0, lsl #6
 440:	2d653034 	stclcs	0, cr3, [r5, #-208]!	; 0xffffff30
 444:	2f637273 	svccs	0x00637273
 448:	68636163 	stmdavs	r3!, {r0, r1, r5, r6, r8, sp, lr}^
 44c:	00632e65 	rsbeq	r2, r3, r5, ror #28
 450:	5f697072 	svcpl	0x00697072
 454:	6f626572 	svcvs	0x00626572
 458:	6300746f 	movwvs	r7, #1135	; 0x46f
 45c:	30343173 	eorscc	r3, r4, r3, ror r1
 460:	72732d65 	rsbsvc	r2, r3, #6464	; 0x1940
 464:	6c632f63 	stclvs	15, cr2, [r3], #-396	; 0xfffffe74
 468:	2d6e6165 	stfcse	f6, [lr, #-404]!	; 0xfffffe6c
 46c:	6f626572 	svcvs	0x00626572
 470:	632e746f 	teqvs	lr, #1862270976	; 0x6f000000
 474:	31736300 	cmncc	r3, r0, lsl #6
 478:	2d653034 	stclcs	0, cr3, [r5, #-208]!	; 0xffffff30
 47c:	2f637273 	svccs	0x00637273
 480:	61747363 	cmnvs	r4, r3, ror #6
 484:	632e7472 	teqvs	lr, #1912602624	; 0x72000000
 488:	625f5f00 	subsvs	r5, pc, #0, 30
 48c:	735f7373 	cmpvc	pc, #-872415231	; 0xcc000001
 490:	74726174 	ldrbtvc	r6, [r2], #-372	; 0x174
 494:	5f005f5f 	svcpl	0x00005f5f
 498:	7373625f 	cmnvc	r3, #-268435451	; 0xf0000005
 49c:	646e655f 	strbtvs	r6, [lr], #-1375	; 0x55f
 4a0:	62005f5f 	andvs	r5, r0, #380	; 0x17c
 4a4:	655f7373 	ldrbvs	r7, [pc, #-883]	; 139 <_start-0x7ec7>
 4a8:	5f00646e 	svcpl	0x0000646e
 4ac:	61747363 	cmnvs	r4, r3, ror #6
 4b0:	61007472 	tstvs	r0, r2, ror r4
 4b4:	73755f74 	cmnvc	r5, #116, 30	; 0x1d0
 4b8:	6c5f7265 	lfmvs	f7, 2, [pc], {101}	; 0x65
 4bc:	6c657665 	stclvs	6, cr7, [r5], #-404	; 0xfffffe6c
 4c0:	5f4d5000 	svcpl	0x004d5000
 4c4:	53534150 	cmppl	r3, #80, 2
 4c8:	44524f57 	ldrbmi	r4, [r2], #-3927	; 0xf57
 4cc:	31736300 	cmncc	r3, r0, lsl #6
 4d0:	2d653034 	stclcs	0, cr3, [r5, #-208]!	; 0xffffff30
 4d4:	2f637273 	svccs	0x00637273
 4d8:	6f626572 	svcvs	0x00626572
 4dc:	632e746f 	teqvs	lr, #1862270976	; 0x6f000000
 4e0:	5f4d5000 	svcpl	0x004d5000
 4e4:	43545352 	cmpmi	r4, #1207959553	; 0x48000001
 4e8:	4352575f 	cmpmi	r2, #24903680	; 0x17c0000
 4ec:	465f4746 	ldrbmi	r4, [pc], -r6, asr #14
 4f0:	5f4c4c55 	svcpl	0x004c4c55
 4f4:	45534552 	ldrbmi	r4, [r3, #-1362]	; 0x552
 4f8:	4d500054 	ldclmi	0, cr0, [r0, #-336]	; 0xfffffeb0
 4fc:	4f44575f 	svcmi	0x0044575f
 500:	65730047 	ldrbvs	r0, [r3, #-71]!	; 0x47
 504:	73755f74 	cmnvc	r5, #116, 30	; 0x1d0
 508:	6c5f7265 	lfmvs	f7, 2, [pc], {101}	; 0x65
 50c:	6c657665 	stclvs	6, cr7, [r5], #-404	; 0xfffffe6c
 510:	54555000 	ldrbpl	r5, [r5], #-0
 514:	50003233 	andpl	r3, r0, r3, lsr r2
 518:	53525f4d 	cmppl	r2, #308	; 0x134
 51c:	63004354 	movwvs	r4, #852	; 0x354
 520:	00727370 	rsbseq	r7, r2, r0, ror r3
 524:	656d6974 	strbvs	r6, [sp, #-2420]!	; 0x974
 528:	65675f72 	strbvs	r5, [r7, #-3954]!	; 0xf72
 52c:	73755f74 	cmnvc	r5, #116, 30	; 0x1d0
 530:	725f6365 	subsvc	r6, pc, #-1811939327	; 0x94000001
 534:	64007761 	strvs	r7, [r0], #-1889	; 0x761
 538:	79616c65 	stmdbvc	r1!, {r0, r2, r5, r6, sl, fp, sp, lr}^
 53c:	6365735f 	cmnvs	r5, #2080374785	; 0x7c000001
 540:	31736300 	cmncc	r3, r0, lsl #6
 544:	2d653034 	stclcs	0, cr3, [r5, #-208]!	; 0xffffff30
 548:	2f637273 	svccs	0x00637273
 54c:	656d6974 	strbvs	r6, [sp, #-2420]!	; 0x974
 550:	00632e72 	rsbeq	r2, r3, r2, ror lr
 554:	33544547 	cmpcc	r4, #297795584	; 0x11c00000
 558:	69740032 	ldmdbvs	r4!, {r1, r4, r5}^
 55c:	00736b63 	rsbseq	r6, r3, r3, ror #22
 560:	616c6564 	cmnvs	ip, r4, ror #10
 564:	79635f79 	stmdbvc	r3!, {r0, r3, r4, r5, r6, r8, r9, sl, fp, ip, lr}^
 568:	73656c63 	cmnvc	r5, #25344	; 0x6300
 56c:	6c656400 	cfstrdvs	mvd6, [r5], #-0
 570:	755f7961 	ldrbvc	r7, [pc, #-2401]	; fffffc17 <__bss_end__+0xffff5937>
 574:	69740073 	ldmdbvs	r4!, {r0, r1, r4, r5, r6}^
 578:	5f72656d 	svcpl	0x0072656d
 57c:	5f746567 	svcpl	0x00746567
 580:	63657375 	cmnvs	r5, #-738197503	; 0xd4000001
 584:	69706700 	ldmdbvs	r0!, {r8, r9, sl, sp, lr}^
 588:	76655f6f 	strbtvc	r5, [r5], -pc, ror #30
 58c:	5f746e65 	svcpl	0x00746e65
 590:	65746564 	ldrbvs	r6, [r4, #-1380]!	; 0x564
 594:	64657463 	strbtvs	r7, [r5], #-1123	; 0x463
 598:	74757000 	ldrbtvc	r7, [r5], #-0
 59c:	45003233 	strmi	r3, [r0, #-563]	; 0x233
 5a0:	4c42414e 	stfmie	f4, [r2], {78}	; 0x4e
 5a4:	52495f45 	subpl	r5, r9, #276	; 0x114
 5a8:	325f5351 	subscc	r5, pc, #1140850689	; 0x44000001
 5ac:	5f736900 	svcpl	0x00736900
 5b0:	6f697067 	svcvs	0x00697067
 5b4:	746e695f 	strbtvc	r6, [lr], #-2399	; 0x95f
 5b8:	49504700 	ldmdbmi	r0, {r8, r9, sl, lr}^
 5bc:	55465f4f 	strbpl	r5, [r6, #-3919]	; 0xf4f
 5c0:	495f434e 	ldmdbmi	pc, {r1, r2, r3, r6, r8, r9, lr}^	; <UNPREDICTABLE>
 5c4:	5455504e 	ldrbpl	r5, [r5], #-78	; 0x4e
 5c8:	2d796d00 	ldclcs	13, cr6, [r9, #-0]
 5cc:	2f637273 	svccs	0x00637273
 5d0:	6f697067 	svcvs	0x00697067
 5d4:	6900632e 	stmdbvs	r0, {r1, r2, r3, r5, r8, r9, sp, lr}
 5d8:	6d5f746e 	cfldrdvs	mvd7, [pc, #-440]	; 428 <_start-0x7bd8>
 5dc:	006b7361 	rsbeq	r7, fp, r1, ror #6
 5e0:	5f676572 	svcpl	0x00676572
 5e4:	74617473 	strbtvc	r7, [r1], #-1139	; 0x473
 5e8:	69706700 	ldmdbvs	r0!, {r8, r9, sl, sp, lr}^
 5ec:	65725f6f 	ldrbvs	r5, [r2, #-3951]!	; 0xf6f
 5f0:	65640067 	strbvs	r0, [r4, #-103]!	; 0x67
 5f4:	61625f76 	smcvs	9718	; 0x25f6
 5f8:	65697272 	strbvs	r7, [r9, #-626]!	; 0x272
 5fc:	70670072 	rsbvc	r0, r7, r2, ror r0
 600:	725f6f69 	subsvc	r6, pc, #420	; 0x1a4
 604:	00646165 	rsbeq	r6, r4, r5, ror #2
 608:	6f697067 	svcvs	0x00697067
 60c:	746e695f 	strbtvc	r6, [lr], #-2399	; 0x95f
 610:	7369725f 	cmnvc	r9, #-268435451	; 0xf0000005
 614:	5f676e69 	svcpl	0x00676e69
 618:	65676465 	strbvs	r6, [r7, #-1125]!	; 0x465
 61c:	69706700 	ldmdbvs	r0!, {r8, r9, sl, sp, lr}^
 620:	65735f6f 	ldrbvs	r5, [r3, #-3951]!	; 0xf6f
 624:	75665f74 	strbvc	r5, [r6, #-3956]!	; 0xf74
 628:	6974636e 	ldmdbvs	r4!, {r1, r2, r3, r5, r6, r8, r9, sp, lr}^
 62c:	47006e6f 	strmi	r6, [r0, -pc, ror #28]
 630:	4e455250 	mcrmi	2, 2, r5, cr5, cr0, {2}
 634:	50470030 	subpl	r0, r7, r0, lsr r0
 638:	314e4552 	cmpcc	lr, r2, asr r5
 63c:	69706700 	ldmdbvs	r0!, {r8, r9, sl, sp, lr}^
 640:	76655f6f 	strbtvc	r5, [r5], -pc, ror #30
 644:	5f746e65 	svcpl	0x00746e65
 648:	61656c63 	cmnvs	r5, r3, ror #24
 64c:	52490072 	subpl	r0, r9, #114	; 0x72
 650:	45505f51 	ldrbmi	r5, [r0, #-3921]	; 0xf51
 654:	4e49444e 	cdpmi	4, 4, cr4, cr9, cr14, {2}
 658:	00315f47 	eorseq	r5, r1, r7, asr #30
 65c:	5f515249 	svcpl	0x00515249
 660:	444e4550 	strbmi	r4, [lr], #-1360	; 0x550
 664:	5f474e49 	svcpl	0x00474e49
 668:	69620032 	stmdbvs	r2!, {r1, r4, r5}^
 66c:	73616d74 	cmnvc	r1, #116, 26	; 0x1d00
 670:	7566006b 	strbvc	r0, [r6, #-107]!	; 0x6b
 674:	6700636e 	strvs	r6, [r0, -lr, ror #6]
 678:	5f6f6970 	svcpl	0x006f6970
 67c:	67676f74 			; <UNDEFINED> instruction: 0x67676f74
 680:	4700656c 	strmi	r6, [r0, -ip, ror #10]
 684:	53444550 	movtpl	r4, #17744	; 0x4550
 688:	50470030 	subpl	r0, r7, r0, lsr r0
 68c:	31534445 	cmpcc	r3, r5, asr #8
 690:	46504700 	ldrbmi	r4, [r0], -r0, lsl #14
 694:	00304e45 	eorseq	r4, r0, r5, asr #28
 698:	45465047 	strbmi	r5, [r6, #-71]	; 0x47
 69c:	4700314e 	strmi	r3, [r0, -lr, asr #2]
 6a0:	5f4f4950 	svcpl	0x004f4950
 6a4:	434e5546 	movtmi	r5, #58694	; 0xe546
 6a8:	54554f5f 	ldrbpl	r4, [r5], #-3935	; 0xf5f
 6ac:	00545550 	subseq	r5, r4, r0, asr r5
 6b0:	33746567 	cmncc	r4, #432013312	; 0x19c00000
 6b4:	70670032 	rsbvc	r0, r7, r2, lsr r0
 6b8:	695f6f69 	ldmdbvs	pc, {r0, r3, r5, r6, r8, r9, sl, fp, sp, lr}^	; <UNPREDICTABLE>
 6bc:	665f746e 	ldrbvs	r7, [pc], -lr, ror #8
 6c0:	696c6c61 	stmdbvs	ip!, {r0, r5, r6, sl, fp, sp, lr}^
 6c4:	655f676e 	ldrbvs	r6, [pc, #-1902]	; ffffff5e <__bss_end__+0xffff5c7e>
 6c8:	00656764 	rsbeq	r6, r5, r4, ror #14
 6cc:	6f697067 	svcvs	0x00697067
 6d0:	6e75665f 	mrcvs	6, 3, r6, cr5, cr15, {2}
 6d4:	00745f63 	rsbseq	r5, r4, r3, ror #30
 6d8:	4f495047 	svcmi	0x00495047
 6dc:	4e55465f 	mrcmi	6, 2, r4, cr5, cr15, {2}
 6e0:	4c415f43 	mcrrmi	15, 4, r5, r1, cr3
 6e4:	47003054 	smlsdmi	r0, r4, r0, r3
 6e8:	5f4f4950 	svcpl	0x004f4950
 6ec:	434e5546 	movtmi	r5, #58694	; 0xe546
 6f0:	544c415f 	strbpl	r4, [ip], #-351	; 0x15f
 6f4:	50470031 	subpl	r0, r7, r1, lsr r0
 6f8:	465f4f49 	ldrbmi	r4, [pc], -r9, asr #30
 6fc:	5f434e55 	svcpl	0x00434e55
 700:	32544c41 	subscc	r4, r4, #16640	; 0x4100
 704:	49504700 	ldmdbmi	r0, {r8, r9, sl, lr}^
 708:	55465f4f 	strbpl	r5, [r6, #-3919]	; 0xf4f
 70c:	415f434e 	cmpmi	pc, lr, asr #6
 710:	0033544c 	eorseq	r5, r3, ip, asr #8
 714:	4f495047 	svcmi	0x00495047
 718:	4e55465f 	mrcmi	6, 2, r4, cr5, cr15, {2}
 71c:	4c415f43 	mcrrmi	15, 4, r5, r1, cr3
 720:	47003454 	smlsdmi	r0, r4, r4, r3
 724:	5f4f4950 	svcpl	0x004f4950
 728:	434e5546 	movtmi	r5, #58694	; 0xe546
 72c:	544c415f 	strbpl	r4, [ip], #-351	; 0x15f
 730:	65720035 	ldrbvs	r0, [r2, #-53]!	; 0x35
 734:	65735f67 	ldrbvs	r5, [r3, #-3943]!	; 0xf67
 738:	7463656c 	strbtvc	r6, [r3], #-1388	; 0x56c
 73c:	58554100 	ldmdapl	r5, {r8, lr}^
 740:	5f554d5f 	svcpl	0x00554d5f
 744:	5f52434d 	svcpl	0x0052434d
 748:	00474552 	subeq	r4, r7, r2, asr r5
 74c:	5f585541 	svcpl	0x00585541
 750:	495f554d 	ldmdbmi	pc, {r0, r2, r3, r6, r8, sl, ip, lr}^	; <UNPREDICTABLE>
 754:	45525f4f 	ldrbmi	r5, [r2, #-3919]	; 0xf4f
 758:	55410047 	strbpl	r0, [r1, #-71]	; 0x47
 75c:	554d5f58 	strbpl	r5, [sp, #-3928]	; 0xf58
 760:	52534d5f 	subspl	r4, r3, #6080	; 0x17c0
 764:	4745525f 	smlsldmi	r5, r5, pc, r2	; <UNPREDICTABLE>
 768:	72617500 	rsbvc	r7, r1, #0, 10
 76c:	61635f74 	smcvs	13812	; 0x35f4
 770:	65675f6e 	strbvs	r5, [r7, #-3950]!	; 0xf6e
 774:	41006374 	tstmi	r0, r4, ror r3
 778:	4d5f5855 	ldclmi	8, cr5, [pc, #-340]	; 62c <_start-0x79d4>
 77c:	4e435f55 	mcrmi	15, 2, r5, cr3, cr5, {2}
 780:	525f4c54 	subspl	r4, pc, #84, 24	; 0x5400
 784:	75004745 	strvc	r4, [r0, #-1861]	; 0x745
 788:	5f747261 	svcpl	0x00747261
 78c:	5f736168 	svcpl	0x00736168
 790:	61746164 	cmnvs	r4, r4, ror #2
 794:	72617500 	rsbvc	r7, r1, #0, 10
 798:	6e695f74 	mcrvs	15, 3, r5, cr9, cr4, {3}
 79c:	41007469 	tstmi	r0, r9, ror #8
 7a0:	4d5f5855 	ldclmi	8, cr5, [pc, #-340]	; 654 <_start-0x79ac>
 7a4:	45495f55 	strbmi	r5, [r9, #-3925]	; 0xf55
 7a8:	45525f52 	ldrbmi	r5, [r2, #-3922]	; 0xf52
 7ac:	61750047 	cmnvs	r5, r7, asr #32
 7b0:	675f7472 			; <UNDEFINED> instruction: 0x675f7472
 7b4:	00637465 	rsbeq	r7, r3, r5, ror #8
 7b8:	5f585541 	svcpl	0x00585541
 7bc:	495f554d 	ldmdbmi	pc, {r0, r2, r3, r6, r8, sl, ip, lr}^	; <UNPREDICTABLE>
 7c0:	525f5249 	subspl	r5, pc, #-1879048188	; 0x90000004
 7c4:	75004745 	strvc	r4, [r0, #-1861]	; 0x745
 7c8:	5f747261 	svcpl	0x00747261
 7cc:	5f6e6163 	svcpl	0x006e6163
 7d0:	63747570 	cmnvs	r4, #112, 10	; 0x1c000000
 7d4:	58554100 	ldmdapl	r5, {r8, lr}^
 7d8:	414e455f 	cmpmi	lr, pc, asr r5
 7dc:	53454c42 	movtpl	r4, #23618	; 0x5c42
 7e0:	58554100 	ldmdapl	r5, {r8, lr}^
 7e4:	5152495f 	cmppl	r2, pc, asr r9
 7e8:	58554100 	ldmdapl	r5, {r8, lr}^
 7ec:	5f554d5f 	svcpl	0x00554d5f
 7f0:	44554142 	ldrbmi	r4, [r5], #-322	; 0x142
 7f4:	4745525f 	smlsldmi	r5, r5, pc, r2	; <UNPREDICTABLE>
 7f8:	58554100 	ldmdapl	r5, {r8, lr}^
 7fc:	5f554d5f 	svcpl	0x00554d5f
 800:	54415453 	strbpl	r5, [r1], #-1107	; 0x453
 804:	4745525f 	smlsldmi	r5, r5, pc, r2	; <UNPREDICTABLE>
 808:	58554100 	ldmdapl	r5, {r8, lr}^
 80c:	5f554d5f 	svcpl	0x00554d5f
 810:	41524353 	cmpmi	r2, r3, asr r3
 814:	00484354 	subeq	r4, r8, r4, asr r3
 818:	732d796d 	teqvc	sp, #1785856	; 0x1b4000
 81c:	752f6372 	strvc	r6, [pc, #-882]!	; 4b2 <_start-0x7b4e>
 820:	2e747261 	cdpcs	2, 7, cr7, cr4, cr1, {3}
 824:	55410063 	strbpl	r0, [r1, #-99]	; 0x63
 828:	554d5f58 	strbpl	r5, [sp, #-3928]	; 0xf58
 82c:	52434c5f 	subpl	r4, r3, #24320	; 0x5f00
 830:	4745525f 	smlsldmi	r5, r5, pc, r2	; <UNPREDICTABLE>
 834:	58554100 	ldmdapl	r5, {r8, lr}^
 838:	5f554d5f 	svcpl	0x00554d5f
 83c:	5f52534c 	svcpl	0x0052534c
 840:	00474552 	subeq	r4, r7, r2, asr r5
 844:	74726175 	ldrbtvc	r6, [r2], #-373	; 0x175
 848:	7465675f 	strbtvc	r6, [r5], #-1887	; 0x75f
 84c:	73615f63 	cmnvc	r1, #396	; 0x18c
 850:	00636e79 	rsbeq	r6, r3, r9, ror lr

Disassembly of section .debug_frame:

00000000 <.debug_frame>:
   0:	0000000c 	andeq	r0, r0, ip
   4:	ffffffff 			; <UNDEFINED> instruction: 0xffffffff
   8:	7c020001 	stcvc	0, cr0, [r2], {1}
   c:	000d0c0e 	andeq	r0, sp, lr, lsl #24
  10:	00000018 	andeq	r0, r0, r8, lsl r0
  14:	00000000 	andeq	r0, r0, r0
  18:	00008010 	andeq	r8, r0, r0, lsl r0
  1c:	00000298 	muleq	r0, r8, r2
  20:	840c0e42 	strhi	r0, [ip], #-3650	; 0xe42
  24:	86028503 	strhi	r8, [r2], -r3, lsl #10
  28:	00000001 	andeq	r0, r0, r1
  2c:	00000014 	andeq	r0, r0, r4, lsl r0
  30:	00000000 	andeq	r0, r0, r0
  34:	000082a8 	andeq	r8, r0, r8, lsr #5
  38:	00000050 	andeq	r0, r0, r0, asr r0
  3c:	84080e44 	strhi	r0, [r8], #-3652	; 0xe44
  40:	00018e02 	andeq	r8, r1, r2, lsl #28
  44:	00000018 	andeq	r0, r0, r8, lsl r0
  48:	00000000 	andeq	r0, r0, r0
  4c:	000082f8 	strdeq	r8, [r0], -r8	; <UNPREDICTABLE>
  50:	000001c4 	andeq	r0, r0, r4, asr #3
  54:	84100e48 	ldrhi	r0, [r0], #-3656	; 0xe48
  58:	86038504 	strhi	r8, [r3], -r4, lsl #10
  5c:	00018702 	andeq	r8, r1, r2, lsl #14
  60:	00000018 	andeq	r0, r0, r8, lsl r0
  64:	00000000 	andeq	r0, r0, r0
  68:	000084bc 			; <UNDEFINED> instruction: 0x000084bc
  6c:	00000290 	muleq	r0, r0, r2
  70:	840c0e42 	strhi	r0, [ip], #-3650	; 0xe42
  74:	86028503 	strhi	r8, [r2], -r3, lsl #10
  78:	00000001 	andeq	r0, r0, r1
  7c:	00000024 	andeq	r0, r0, r4, lsr #32
  80:	00000000 	andeq	r0, r0, r0
  84:	0000874c 	andeq	r8, r0, ip, asr #14
  88:	000006f0 	strdeq	r0, [r0], -r0	; <UNPREDICTABLE>
  8c:	84240e42 	strthi	r0, [r4], #-3650	; 0xe42
  90:	86088509 	strhi	r8, [r8], -r9, lsl #10
  94:	88068707 	stmdahi	r6, {r0, r1, r2, r8, r9, sl, pc}
  98:	8a048905 	bhi	1224b4 <__bss_end__+0x1181d4>
  9c:	8e028b03 	vmlahi.f64	d8, d2, d3
  a0:	480e4c01 	stmdami	lr, {r0, sl, fp, lr}
  a4:	0000000c 	andeq	r0, r0, ip
  a8:	ffffffff 			; <UNDEFINED> instruction: 0xffffffff
  ac:	7c020001 	stcvc	0, cr0, [r2], {1}
  b0:	000d0c0e 	andeq	r0, sp, lr, lsl #24
  b4:	00000024 	andeq	r0, r0, r4, lsr #32
  b8:	000000a4 	andeq	r0, r0, r4, lsr #1
  bc:	00008e3c 	andeq	r8, r0, ip, lsr lr
  c0:	00000058 	andeq	r0, r0, r8, asr r0
  c4:	80100e42 	andshi	r0, r0, r2, asr #28
  c8:	82038104 	andhi	r8, r3, #4, 2
  cc:	42018302 	andmi	r8, r1, #134217728	; 0x8000000
  d0:	07841c0e 	streq	r1, [r4, lr, lsl #24]
  d4:	058e0685 	streq	r0, [lr, #1669]	; 0x685
  d8:	00280e42 	eoreq	r0, r8, r2, asr #28
  dc:	0000000c 	andeq	r0, r0, ip
  e0:	ffffffff 			; <UNDEFINED> instruction: 0xffffffff
  e4:	7c020001 	stcvc	0, cr0, [r2], {1}
  e8:	000d0c0e 	andeq	r0, sp, lr, lsl #24
  ec:	00000014 	andeq	r0, r0, r4, lsl r0
  f0:	000000dc 	ldrdeq	r0, [r0], -ip
  f4:	00008e94 	muleq	r0, r4, lr
  f8:	00000014 	andeq	r0, r0, r4, lsl r0
  fc:	84080e42 	strhi	r0, [r8], #-3650	; 0xe42
 100:	00018e02 	andeq	r8, r1, r2, lsl #28
 104:	0000000c 	andeq	r0, r0, ip
 108:	000000dc 	ldrdeq	r0, [r0], -ip
 10c:	00008ea8 	andeq	r8, r0, r8, lsr #29
 110:	00000018 	andeq	r0, r0, r8, lsl r0
 114:	0000000c 	andeq	r0, r0, ip
 118:	000000dc 	ldrdeq	r0, [r0], -ip
 11c:	00008ec0 	andeq	r8, r0, r0, asr #29
 120:	00000010 	andeq	r0, r0, r0, lsl r0
 124:	0000000c 	andeq	r0, r0, ip
 128:	ffffffff 			; <UNDEFINED> instruction: 0xffffffff
 12c:	7c020001 	stcvc	0, cr0, [r2], {1}
 130:	000d0c0e 	andeq	r0, sp, lr, lsl #24
 134:	00000018 	andeq	r0, r0, r8, lsl r0
 138:	00000124 	andeq	r0, r0, r4, lsr #2
 13c:	00008ed0 	ldrdeq	r8, [r0], -r0
 140:	00000034 	andeq	r0, r0, r4, lsr r0
 144:	83100e42 	tsthi	r0, #1056	; 0x420
 148:	85038404 	strhi	r8, [r3, #-1028]	; 0x404
 14c:	00018e02 	andeq	r8, r1, r2, lsl #28
 150:	0000000c 	andeq	r0, r0, ip
 154:	ffffffff 			; <UNDEFINED> instruction: 0xffffffff
 158:	7c020001 	stcvc	0, cr0, [r2], {1}
 15c:	000d0c0e 	andeq	r0, sp, lr, lsl #24
 160:	0000000c 	andeq	r0, r0, ip
 164:	00000150 	andeq	r0, r0, r0, asr r1
 168:	00008f04 	andeq	r8, r0, r4, lsl #30
 16c:	00000014 	andeq	r0, r0, r4, lsl r0
 170:	0000000c 	andeq	r0, r0, ip
 174:	00000150 	andeq	r0, r0, r0, asr r1
 178:	00008f18 	andeq	r8, r0, r8, lsl pc
 17c:	0000002c 	andeq	r0, r0, ip, lsr #32
 180:	0000000c 	andeq	r0, r0, ip
 184:	00000150 	andeq	r0, r0, r0, asr r1
 188:	00008f44 	andeq	r8, r0, r4, asr #30
 18c:	00000040 	andeq	r0, r0, r0, asr #32
 190:	00000020 	andeq	r0, r0, r0, lsr #32
 194:	00000150 	andeq	r0, r0, r0, asr r1
 198:	00008f84 	andeq	r8, r0, r4, lsl #31
 19c:	0000019c 	muleq	r0, ip, r1
 1a0:	84180e42 	ldrhi	r0, [r8], #-3650	; 0xe42
 1a4:	86058506 	strhi	r8, [r5], -r6, lsl #10
 1a8:	88038704 	stmdahi	r3, {r2, r8, r9, sl, pc}
 1ac:	42018e02 	andmi	r8, r1, #2, 28
 1b0:	0000580e 	andeq	r5, r0, lr, lsl #16
 1b4:	00000014 	andeq	r0, r0, r4, lsl r0
 1b8:	00000150 	andeq	r0, r0, r0, asr r1
 1bc:	00009120 	andeq	r9, r0, r0, lsr #2
 1c0:	00000054 	andeq	r0, r0, r4, asr r0
 1c4:	83080e42 	movwhi	r0, #36418	; 0x8e42
 1c8:	00018e02 	andeq	r8, r1, r2, lsl #28
 1cc:	00000028 	andeq	r0, r0, r8, lsr #32
 1d0:	00000150 	andeq	r0, r0, r0, asr r1
 1d4:	00009174 	andeq	r9, r0, r4, ror r1
 1d8:	00000288 	andeq	r0, r0, r8, lsl #5
 1dc:	84240e42 	strthi	r0, [r4], #-3650	; 0xe42
 1e0:	86088509 	strhi	r8, [r8], -r9, lsl #10
 1e4:	88068707 	stmdahi	r6, {r0, r1, r2, r8, r9, sl, pc}
 1e8:	8a048905 	bhi	122604 <__bss_end__+0x118324>
 1ec:	8e028b03 	vmlahi.f64	d8, d2, d3
 1f0:	b00e4201 	andlt	r4, lr, r1, lsl #4
 1f4:	00000001 	andeq	r0, r0, r1
 1f8:	0000000c 	andeq	r0, r0, ip
 1fc:	ffffffff 			; <UNDEFINED> instruction: 0xffffffff
 200:	7c020001 	stcvc	0, cr0, [r2], {1}
 204:	000d0c0e 	andeq	r0, sp, lr, lsl #24
 208:	0000000c 	andeq	r0, r0, ip
 20c:	000001f8 	strdeq	r0, [r0], -r8
 210:	000093fc 	strdeq	r9, [r0], -ip
 214:	00000010 	andeq	r0, r0, r0, lsl r0
 218:	0000000c 	andeq	r0, r0, ip
 21c:	000001f8 	strdeq	r0, [r0], -r8
 220:	0000940c 	andeq	r9, r0, ip, lsl #8
 224:	00000010 	andeq	r0, r0, r0, lsl r0
 228:	0000000c 	andeq	r0, r0, ip
 22c:	ffffffff 			; <UNDEFINED> instruction: 0xffffffff
 230:	7c020001 	stcvc	0, cr0, [r2], {1}
 234:	000d0c0e 	andeq	r0, sp, lr, lsl #24
 238:	00000014 	andeq	r0, r0, r4, lsl r0
 23c:	00000228 	andeq	r0, r0, r8, lsr #4
 240:	0000941c 	andeq	r9, r0, ip, lsl r4
 244:	00000028 	andeq	r0, r0, r8, lsr #32
 248:	83080e42 	movwhi	r0, #36418	; 0x8e42
 24c:	00018e02 	andeq	r8, r1, r2, lsl #28
 250:	0000000c 	andeq	r0, r0, ip
 254:	ffffffff 			; <UNDEFINED> instruction: 0xffffffff
 258:	7c020001 	stcvc	0, cr0, [r2], {1}
 25c:	000d0c0e 	andeq	r0, sp, lr, lsl #24
 260:	00000014 	andeq	r0, r0, r4, lsl r0
 264:	00000250 	andeq	r0, r0, r0, asr r2
 268:	00009444 	andeq	r9, r0, r4, asr #8
 26c:	00000034 	andeq	r0, r0, r4, lsr r0
 270:	83080e42 	movwhi	r0, #36418	; 0x8e42
 274:	00018e02 	andeq	r8, r1, r2, lsl #28
 278:	0000000c 	andeq	r0, r0, ip
 27c:	ffffffff 			; <UNDEFINED> instruction: 0xffffffff
 280:	7c020001 	stcvc	0, cr0, [r2], {1}
 284:	000d0c0e 	andeq	r0, sp, lr, lsl #24
 288:	0000000c 	andeq	r0, r0, ip
 28c:	00000278 	andeq	r0, r0, r8, ror r2
 290:	00009478 	andeq	r9, r0, r8, ror r4
 294:	00000018 	andeq	r0, r0, r8, lsl r0
 298:	0000000c 	andeq	r0, r0, ip
 29c:	00000278 	andeq	r0, r0, r8, ror r2
 2a0:	00009490 	muleq	r0, r0, r4
 2a4:	00000014 	andeq	r0, r0, r4, lsl r0
 2a8:	00000014 	andeq	r0, r0, r4, lsl r0
 2ac:	00000278 	andeq	r0, r0, r8, ror r2
 2b0:	000094a4 	andeq	r9, r0, r4, lsr #9
 2b4:	00000048 	andeq	r0, r0, r8, asr #32
 2b8:	83080e42 	movwhi	r0, #36418	; 0x8e42
 2bc:	00018e02 	andeq	r8, r1, r2, lsl #28
 2c0:	0000000c 	andeq	r0, r0, ip
 2c4:	ffffffff 			; <UNDEFINED> instruction: 0xffffffff
 2c8:	7c020001 	stcvc	0, cr0, [r2], {1}
 2cc:	000d0c0e 	andeq	r0, sp, lr, lsl #24
 2d0:	0000000c 	andeq	r0, r0, ip
 2d4:	000002c0 	andeq	r0, r0, r0, asr #5
 2d8:	000094ec 	andeq	r9, r0, ip, ror #9
 2dc:	0000001c 	andeq	r0, r0, ip, lsl r0
 2e0:	00000014 	andeq	r0, r0, r4, lsl r0
 2e4:	000002c0 	andeq	r0, r0, r0, asr #5
 2e8:	00009508 	andeq	r9, r0, r8, lsl #10
 2ec:	00000014 	andeq	r0, r0, r4, lsl r0
 2f0:	83080e42 	movwhi	r0, #36418	; 0x8e42
 2f4:	00018e02 	andeq	r8, r1, r2, lsl #28
 2f8:	00000014 	andeq	r0, r0, r4, lsl r0
 2fc:	000002c0 	andeq	r0, r0, r0, asr #5
 300:	0000951c 	andeq	r9, r0, ip, lsl r5
 304:	0000000c 	andeq	r0, r0, ip
 308:	83080e42 	movwhi	r0, #36418	; 0x8e42
 30c:	00018e02 	andeq	r8, r1, r2, lsl #28
 310:	00000018 	andeq	r0, r0, r8, lsl r0
 314:	000002c0 	andeq	r0, r0, r0, asr #5
 318:	00009528 	andeq	r9, r0, r8, lsr #10
 31c:	00000024 	andeq	r0, r0, r4, lsr #32
 320:	83100e42 	tsthi	r0, #1056	; 0x420
 324:	85038404 	strhi	r8, [r3, #-1028]	; 0x404
 328:	00018e02 	andeq	r8, r1, r2, lsl #28
 32c:	00000014 	andeq	r0, r0, r4, lsl r0
 330:	000002c0 	andeq	r0, r0, r0, asr #5
 334:	0000954c 	andeq	r9, r0, ip, asr #10
 338:	00000014 	andeq	r0, r0, r4, lsl r0
 33c:	83080e42 	movwhi	r0, #36418	; 0x8e42
 340:	00018e02 	andeq	r8, r1, r2, lsl #28
 344:	00000014 	andeq	r0, r0, r4, lsl r0
 348:	000002c0 	andeq	r0, r0, r0, asr #5
 34c:	00009560 	andeq	r9, r0, r0, ror #10
 350:	00000014 	andeq	r0, r0, r4, lsl r0
 354:	83080e42 	movwhi	r0, #36418	; 0x8e42
 358:	00018e02 	andeq	r8, r1, r2, lsl #28
 35c:	0000000c 	andeq	r0, r0, ip
 360:	ffffffff 			; <UNDEFINED> instruction: 0xffffffff
 364:	7c020001 	stcvc	0, cr0, [r2], {1}
 368:	000d0c0e 	andeq	r0, sp, lr, lsl #24
 36c:	00000018 	andeq	r0, r0, r8, lsl r0
 370:	0000035c 	andeq	r0, r0, ip, asr r3
 374:	00009574 	andeq	r9, r0, r4, ror r5
 378:	000000d4 	ldrdeq	r0, [r0], -r4
 37c:	83100e42 	tsthi	r0, #1056	; 0x420
 380:	85038404 	strhi	r8, [r3, #-1028]	; 0x404
 384:	00018e02 	andeq	r8, r1, r2, lsl #28
 388:	00000014 	andeq	r0, r0, r4, lsl r0
 38c:	0000035c 	andeq	r0, r0, ip, asr r3
 390:	00009648 	andeq	r9, r0, r8, asr #12
 394:	00000038 	andeq	r0, r0, r8, lsr r0
 398:	83080e42 	movwhi	r0, #36418	; 0x8e42
 39c:	00018e02 	andeq	r8, r1, r2, lsl #28
 3a0:	00000014 	andeq	r0, r0, r4, lsl r0
 3a4:	0000035c 	andeq	r0, r0, ip, asr r3
 3a8:	00009680 	andeq	r9, r0, r0, lsl #13
 3ac:	00000038 	andeq	r0, r0, r8, lsr r0
 3b0:	83080e42 	movwhi	r0, #36418	; 0x8e42
 3b4:	00018e02 	andeq	r8, r1, r2, lsl #28
 3b8:	00000018 	andeq	r0, r0, r8, lsl r0
 3bc:	0000035c 	andeq	r0, r0, ip, asr r3
 3c0:	000096b8 			; <UNDEFINED> instruction: 0x000096b8
 3c4:	000000cc 	andeq	r0, r0, ip, asr #1
 3c8:	83100e42 	tsthi	r0, #1056	; 0x420
 3cc:	85038404 	strhi	r8, [r3, #-1028]	; 0x404
 3d0:	00018e02 	andeq	r8, r1, r2, lsl #28
 3d4:	00000014 	andeq	r0, r0, r4, lsl r0
 3d8:	0000035c 	andeq	r0, r0, ip, asr r3
 3dc:	00009784 	andeq	r9, r0, r4, lsl #15
 3e0:	0000004c 	andeq	r0, r0, ip, asr #32
 3e4:	84080e42 	strhi	r0, [r8], #-3650	; 0xe42
 3e8:	00018e02 	andeq	r8, r1, r2, lsl #28
 3ec:	00000014 	andeq	r0, r0, r4, lsl r0
 3f0:	0000035c 	andeq	r0, r0, ip, asr r3
 3f4:	000097d0 	ldrdeq	r9, [r0], -r0
 3f8:	00000024 	andeq	r0, r0, r4, lsr #32
 3fc:	83080e42 	movwhi	r0, #36418	; 0x8e42
 400:	00018e02 	andeq	r8, r1, r2, lsl #28
 404:	00000018 	andeq	r0, r0, r8, lsl r0
 408:	0000035c 	andeq	r0, r0, ip, asr r3
 40c:	000097f4 	strdeq	r9, [r0], -r4
 410:	000000d8 	ldrdeq	r0, [r0], -r8
 414:	84100e42 	ldrhi	r0, [r0], #-3650	; 0xe42
 418:	86038504 	strhi	r8, [r3], -r4, lsl #10
 41c:	00018e02 	andeq	r8, r1, r2, lsl #28
 420:	00000014 	andeq	r0, r0, r4, lsl r0
 424:	0000035c 	andeq	r0, r0, ip, asr r3
 428:	000098cc 	andeq	r9, r0, ip, asr #17
 42c:	00000038 	andeq	r0, r0, r8, lsr r0
 430:	83080e42 	movwhi	r0, #36418	; 0x8e42
 434:	00018e02 	andeq	r8, r1, r2, lsl #28
 438:	00000014 	andeq	r0, r0, r4, lsl r0
 43c:	0000035c 	andeq	r0, r0, ip, asr r3
 440:	00009904 	andeq	r9, r0, r4, lsl #18
 444:	0000002c 	andeq	r0, r0, ip, lsr #32
 448:	83080e42 	movwhi	r0, #36418	; 0x8e42
 44c:	00018e02 	andeq	r8, r1, r2, lsl #28
 450:	00000018 	andeq	r0, r0, r8, lsl r0
 454:	0000035c 	andeq	r0, r0, ip, asr r3
 458:	00009930 	andeq	r9, r0, r0, lsr r9
 45c:	00000084 	andeq	r0, r0, r4, lsl #1
 460:	83100e42 	tsthi	r0, #1056	; 0x420
 464:	85038404 	strhi	r8, [r3, #-1028]	; 0x404
 468:	00018e02 	andeq	r8, r1, r2, lsl #28
 46c:	00000018 	andeq	r0, r0, r8, lsl r0
 470:	0000035c 	andeq	r0, r0, ip, asr r3
 474:	000099b4 			; <UNDEFINED> instruction: 0x000099b4
 478:	00000084 	andeq	r0, r0, r4, lsl #1
 47c:	83100e42 	tsthi	r0, #1056	; 0x420
 480:	85038404 	strhi	r8, [r3, #-1028]	; 0x404
 484:	00018e02 	andeq	r8, r1, r2, lsl #28
 488:	00000014 	andeq	r0, r0, r4, lsl r0
 48c:	0000035c 	andeq	r0, r0, ip, asr r3
 490:	00009a38 	andeq	r9, r0, r8, lsr sl
 494:	00000084 	andeq	r0, r0, r4, lsl #1
 498:	84080e42 	strhi	r0, [r8], #-3650	; 0xe42
 49c:	00018e02 	andeq	r8, r1, r2, lsl #28
 4a0:	00000014 	andeq	r0, r0, r4, lsl r0
 4a4:	0000035c 	andeq	r0, r0, ip, asr r3
 4a8:	00009abc 			; <UNDEFINED> instruction: 0x00009abc
 4ac:	00000058 	andeq	r0, r0, r8, asr r0
 4b0:	84080e42 	strhi	r0, [r8], #-3650	; 0xe42
 4b4:	00018e02 	andeq	r8, r1, r2, lsl #28
 4b8:	0000000c 	andeq	r0, r0, ip
 4bc:	ffffffff 			; <UNDEFINED> instruction: 0xffffffff
 4c0:	7c020001 	stcvc	0, cr0, [r2], {1}
 4c4:	000d0c0e 	andeq	r0, sp, lr, lsl #24
 4c8:	00000018 	andeq	r0, r0, r8, lsl r0
 4cc:	000004b8 			; <UNDEFINED> instruction: 0x000004b8
 4d0:	00009b14 	andeq	r9, r0, r4, lsl fp
 4d4:	0000009c 	muleq	r0, ip, r0
 4d8:	83100e42 	tsthi	r0, #1056	; 0x420
 4dc:	85038404 	strhi	r8, [r3, #-1028]	; 0x404
 4e0:	00018e02 	andeq	r8, r1, r2, lsl #28
 4e4:	00000014 	andeq	r0, r0, r4, lsl r0
 4e8:	000004b8 			; <UNDEFINED> instruction: 0x000004b8
 4ec:	00009bb0 			; <UNDEFINED> instruction: 0x00009bb0
 4f0:	0000001c 	andeq	r0, r0, ip, lsl r0
 4f4:	83080e42 	movwhi	r0, #36418	; 0x8e42
 4f8:	00018e02 	andeq	r8, r1, r2, lsl #28
 4fc:	00000014 	andeq	r0, r0, r4, lsl r0
 500:	000004b8 			; <UNDEFINED> instruction: 0x000004b8
 504:	00009bcc 	andeq	r9, r0, ip, asr #23
 508:	00000028 	andeq	r0, r0, r8, lsr #32
 50c:	83080e42 	movwhi	r0, #36418	; 0x8e42
 510:	00018e02 	andeq	r8, r1, r2, lsl #28
 514:	00000014 	andeq	r0, r0, r4, lsl r0
 518:	000004b8 			; <UNDEFINED> instruction: 0x000004b8
 51c:	00009bf4 	strdeq	r9, [r0], -r4
 520:	0000001c 	andeq	r0, r0, ip, lsl r0
 524:	83080e42 	movwhi	r0, #36418	; 0x8e42
 528:	00018e02 	andeq	r8, r1, r2, lsl #28
 52c:	00000014 	andeq	r0, r0, r4, lsl r0
 530:	000004b8 			; <UNDEFINED> instruction: 0x000004b8
 534:	00009c10 	andeq	r9, r0, r0, lsl ip
 538:	0000002c 	andeq	r0, r0, ip, lsr #32
 53c:	84080e42 	strhi	r0, [r8], #-3650	; 0xe42
 540:	00018e02 	andeq	r8, r1, r2, lsl #28
 544:	00000014 	andeq	r0, r0, r4, lsl r0
 548:	000004b8 			; <UNDEFINED> instruction: 0x000004b8
 54c:	00009c3c 	andeq	r9, r0, ip, lsr ip
 550:	0000000c 	andeq	r0, r0, ip
 554:	83080e42 	movwhi	r0, #36418	; 0x8e42
 558:	00018e02 	andeq	r8, r1, r2, lsl #28
 55c:	00000014 	andeq	r0, r0, r4, lsl r0
 560:	000004b8 			; <UNDEFINED> instruction: 0x000004b8
 564:	00009c48 	andeq	r9, r0, r8, asr #24
 568:	00000020 	andeq	r0, r0, r0, lsr #32
 56c:	83080e42 	movwhi	r0, #36418	; 0x8e42
 570:	00018e02 	andeq	r8, r1, r2, lsl #28
