
2-logic-analyzer.elf:     file format elf32-littlearm


Disassembly of section .text:

00008000 <_start>:
    8000:	e3a0d302 	mov	sp, #134217728	; 0x8000000
    8004:	e3a0b000 	mov	fp, #0
    8008:	eb00045d 	bl	9184 <_cstart>
    800c:	eb00048b 	bl	9240 <rpi_reboot>

00008010 <cycles_per_sec>:
    8010:	e92d4010 	push	{r4, lr}
    8014:	e3500001 	cmp	r0, #1
    8018:	9a000006 	bls	8038 <cycles_per_sec+0x28>
    801c:	eb0002de 	bl	8b9c <rpi_reset_putc>
    8020:	e59f002c 	ldr	r0, [pc, #44]	; 8054 <cycles_per_sec+0x44>
    8024:	e59f102c 	ldr	r1, [pc, #44]	; 8058 <cycles_per_sec+0x48>
    8028:	e59f202c 	ldr	r2, [pc, #44]	; 805c <cycles_per_sec+0x4c>
    802c:	e3a03042 	mov	r3, #66	; 0x42
    8030:	eb0002be 	bl	8b30 <printk>
    8034:	eb000440 	bl	913c <clean_reboot>
    8038:	ee1f4f3c 	mrc	15, 0, r4, cr15, cr12, {1}
    803c:	e3a03ffa 	mov	r3, #1000	; 0x3e8
    8040:	e0000093 	mul	r0, r3, r0
    8044:	eb0004a7 	bl	92e8 <delay_ms>
    8048:	ee1f0f3c 	mrc	15, 0, r0, cr15, cr12, {1}
    804c:	e0640000 	rsb	r0, r4, r0
    8050:	e8bd8010 	pop	{r4, pc}
    8054:	0000a494 	muleq	r0, r4, r4
    8058:	0000a4c4 	andeq	sl, r0, r4, asr #9
    805c:	0000a484 	andeq	sl, r0, r4, lsl #9

00008060 <test_gen>:
    8060:	e52d4004 	push	{r4}		; (str r4, [sp, #-4]!)
    8064:	ee1f3f3c 	mrc	15, 0, r3, cr15, cr12, {1}
    8068:	e59f2250 	ldr	r2, [pc, #592]	; 82c0 <test_gen+0x260>
    806c:	e592c028 	ldr	ip, [r2, #40]	; 0x28
    8070:	e3a04001 	mov	r4, #1
    8074:	e1a00014 	lsl	r0, r4, r0
    8078:	e18cc000 	orr	ip, ip, r0
    807c:	e582c028 	str	ip, [r2, #40]	; 0x28
    8080:	e59fc23c 	ldr	ip, [pc, #572]	; 82c4 <test_gen+0x264>
    8084:	ee1f2f3c 	mrc	15, 0, r2, cr15, cr12, {1}
    8088:	e0632002 	rsb	r2, r3, r2
    808c:	e152000c 	cmp	r2, ip
    8090:	9afffffb 	bls	8084 <test_gen+0x24>
    8094:	e3110080 	tst	r1, #128	; 0x80
    8098:	0a000004 	beq	80b0 <test_gen+0x50>
    809c:	e59f221c 	ldr	r2, [pc, #540]	; 82c0 <test_gen+0x260>
    80a0:	e592c01c 	ldr	ip, [r2, #28]
    80a4:	e180c00c 	orr	ip, r0, ip
    80a8:	e582c01c 	str	ip, [r2, #28]
    80ac:	ea000003 	b	80c0 <test_gen+0x60>
    80b0:	e59f2208 	ldr	r2, [pc, #520]	; 82c0 <test_gen+0x260>
    80b4:	e592c028 	ldr	ip, [r2, #40]	; 0x28
    80b8:	e180c00c 	orr	ip, r0, ip
    80bc:	e582c028 	str	ip, [r2, #40]	; 0x28
    80c0:	e59fc200 	ldr	ip, [pc, #512]	; 82c8 <test_gen+0x268>
    80c4:	ee1f2f3c 	mrc	15, 0, r2, cr15, cr12, {1}
    80c8:	e0632002 	rsb	r2, r3, r2
    80cc:	e152000c 	cmp	r2, ip
    80d0:	9afffffb 	bls	80c4 <test_gen+0x64>
    80d4:	e3110040 	tst	r1, #64	; 0x40
    80d8:	0a000004 	beq	80f0 <test_gen+0x90>
    80dc:	e59f21dc 	ldr	r2, [pc, #476]	; 82c0 <test_gen+0x260>
    80e0:	e592c01c 	ldr	ip, [r2, #28]
    80e4:	e180c00c 	orr	ip, r0, ip
    80e8:	e582c01c 	str	ip, [r2, #28]
    80ec:	ea000003 	b	8100 <test_gen+0xa0>
    80f0:	e59f21c8 	ldr	r2, [pc, #456]	; 82c0 <test_gen+0x260>
    80f4:	e592c028 	ldr	ip, [r2, #40]	; 0x28
    80f8:	e180c00c 	orr	ip, r0, ip
    80fc:	e582c028 	str	ip, [r2, #40]	; 0x28
    8100:	e59fc1c4 	ldr	ip, [pc, #452]	; 82cc <test_gen+0x26c>
    8104:	ee1f2f3c 	mrc	15, 0, r2, cr15, cr12, {1}
    8108:	e0632002 	rsb	r2, r3, r2
    810c:	e152000c 	cmp	r2, ip
    8110:	9afffffb 	bls	8104 <test_gen+0xa4>
    8114:	e3110020 	tst	r1, #32
    8118:	0a000004 	beq	8130 <test_gen+0xd0>
    811c:	e59f219c 	ldr	r2, [pc, #412]	; 82c0 <test_gen+0x260>
    8120:	e592c01c 	ldr	ip, [r2, #28]
    8124:	e180c00c 	orr	ip, r0, ip
    8128:	e582c01c 	str	ip, [r2, #28]
    812c:	ea000003 	b	8140 <test_gen+0xe0>
    8130:	e59f2188 	ldr	r2, [pc, #392]	; 82c0 <test_gen+0x260>
    8134:	e592c028 	ldr	ip, [r2, #40]	; 0x28
    8138:	e180c00c 	orr	ip, r0, ip
    813c:	e582c028 	str	ip, [r2, #40]	; 0x28
    8140:	e59fc188 	ldr	ip, [pc, #392]	; 82d0 <test_gen+0x270>
    8144:	ee1f2f3c 	mrc	15, 0, r2, cr15, cr12, {1}
    8148:	e0632002 	rsb	r2, r3, r2
    814c:	e152000c 	cmp	r2, ip
    8150:	9afffffb 	bls	8144 <test_gen+0xe4>
    8154:	e3110010 	tst	r1, #16
    8158:	0a000004 	beq	8170 <test_gen+0x110>
    815c:	e59f215c 	ldr	r2, [pc, #348]	; 82c0 <test_gen+0x260>
    8160:	e592c01c 	ldr	ip, [r2, #28]
    8164:	e180c00c 	orr	ip, r0, ip
    8168:	e582c01c 	str	ip, [r2, #28]
    816c:	ea000003 	b	8180 <test_gen+0x120>
    8170:	e59f2148 	ldr	r2, [pc, #328]	; 82c0 <test_gen+0x260>
    8174:	e592c028 	ldr	ip, [r2, #40]	; 0x28
    8178:	e180c00c 	orr	ip, r0, ip
    817c:	e582c028 	str	ip, [r2, #40]	; 0x28
    8180:	e59fc14c 	ldr	ip, [pc, #332]	; 82d4 <test_gen+0x274>
    8184:	ee1f2f3c 	mrc	15, 0, r2, cr15, cr12, {1}
    8188:	e0632002 	rsb	r2, r3, r2
    818c:	e152000c 	cmp	r2, ip
    8190:	9afffffb 	bls	8184 <test_gen+0x124>
    8194:	e3110008 	tst	r1, #8
    8198:	0a000004 	beq	81b0 <test_gen+0x150>
    819c:	e59f211c 	ldr	r2, [pc, #284]	; 82c0 <test_gen+0x260>
    81a0:	e592c01c 	ldr	ip, [r2, #28]
    81a4:	e180c00c 	orr	ip, r0, ip
    81a8:	e582c01c 	str	ip, [r2, #28]
    81ac:	ea000003 	b	81c0 <test_gen+0x160>
    81b0:	e59f2108 	ldr	r2, [pc, #264]	; 82c0 <test_gen+0x260>
    81b4:	e592c028 	ldr	ip, [r2, #40]	; 0x28
    81b8:	e180c00c 	orr	ip, r0, ip
    81bc:	e582c028 	str	ip, [r2, #40]	; 0x28
    81c0:	e59fc110 	ldr	ip, [pc, #272]	; 82d8 <test_gen+0x278>
    81c4:	ee1f2f3c 	mrc	15, 0, r2, cr15, cr12, {1}
    81c8:	e0632002 	rsb	r2, r3, r2
    81cc:	e152000c 	cmp	r2, ip
    81d0:	9afffffb 	bls	81c4 <test_gen+0x164>
    81d4:	e3110004 	tst	r1, #4
    81d8:	0a000004 	beq	81f0 <test_gen+0x190>
    81dc:	e59f20dc 	ldr	r2, [pc, #220]	; 82c0 <test_gen+0x260>
    81e0:	e592c01c 	ldr	ip, [r2, #28]
    81e4:	e180c00c 	orr	ip, r0, ip
    81e8:	e582c01c 	str	ip, [r2, #28]
    81ec:	ea000003 	b	8200 <test_gen+0x1a0>
    81f0:	e59f20c8 	ldr	r2, [pc, #200]	; 82c0 <test_gen+0x260>
    81f4:	e592c028 	ldr	ip, [r2, #40]	; 0x28
    81f8:	e180c00c 	orr	ip, r0, ip
    81fc:	e582c028 	str	ip, [r2, #40]	; 0x28
    8200:	e59fc0d4 	ldr	ip, [pc, #212]	; 82dc <test_gen+0x27c>
    8204:	ee1f2f3c 	mrc	15, 0, r2, cr15, cr12, {1}
    8208:	e0632002 	rsb	r2, r3, r2
    820c:	e152000c 	cmp	r2, ip
    8210:	9afffffb 	bls	8204 <test_gen+0x1a4>
    8214:	e3110002 	tst	r1, #2
    8218:	0a000004 	beq	8230 <test_gen+0x1d0>
    821c:	e59f209c 	ldr	r2, [pc, #156]	; 82c0 <test_gen+0x260>
    8220:	e592c01c 	ldr	ip, [r2, #28]
    8224:	e180c00c 	orr	ip, r0, ip
    8228:	e582c01c 	str	ip, [r2, #28]
    822c:	ea000003 	b	8240 <test_gen+0x1e0>
    8230:	e59f2088 	ldr	r2, [pc, #136]	; 82c0 <test_gen+0x260>
    8234:	e592c028 	ldr	ip, [r2, #40]	; 0x28
    8238:	e180c00c 	orr	ip, r0, ip
    823c:	e582c028 	str	ip, [r2, #40]	; 0x28
    8240:	e59fc098 	ldr	ip, [pc, #152]	; 82e0 <test_gen+0x280>
    8244:	ee1f2f3c 	mrc	15, 0, r2, cr15, cr12, {1}
    8248:	e0632002 	rsb	r2, r3, r2
    824c:	e152000c 	cmp	r2, ip
    8250:	9afffffb 	bls	8244 <test_gen+0x1e4>
    8254:	e3110001 	tst	r1, #1
    8258:	0a000004 	beq	8270 <test_gen+0x210>
    825c:	e59f205c 	ldr	r2, [pc, #92]	; 82c0 <test_gen+0x260>
    8260:	e592101c 	ldr	r1, [r2, #28]
    8264:	e1801001 	orr	r1, r0, r1
    8268:	e582101c 	str	r1, [r2, #28]
    826c:	ea000003 	b	8280 <test_gen+0x220>
    8270:	e59f2048 	ldr	r2, [pc, #72]	; 82c0 <test_gen+0x260>
    8274:	e5921028 	ldr	r1, [r2, #40]	; 0x28
    8278:	e1801001 	orr	r1, r0, r1
    827c:	e5821028 	str	r1, [r2, #40]	; 0x28
    8280:	e59f105c 	ldr	r1, [pc, #92]	; 82e4 <test_gen+0x284>
    8284:	ee1f2f3c 	mrc	15, 0, r2, cr15, cr12, {1}
    8288:	e0632002 	rsb	r2, r3, r2
    828c:	e1520001 	cmp	r2, r1
    8290:	9afffffb 	bls	8284 <test_gen+0x224>
    8294:	e59f2024 	ldr	r2, [pc, #36]	; 82c0 <test_gen+0x260>
    8298:	e592101c 	ldr	r1, [r2, #28]
    829c:	e1800001 	orr	r0, r0, r1
    82a0:	e582001c 	str	r0, [r2, #28]
    82a4:	e59f103c 	ldr	r1, [pc, #60]	; 82e8 <test_gen+0x288>
    82a8:	ee1f2f3c 	mrc	15, 0, r2, cr15, cr12, {1}
    82ac:	e0632002 	rsb	r2, r3, r2
    82b0:	e1520001 	cmp	r2, r1
    82b4:	9afffffb 	bls	82a8 <test_gen+0x248>
    82b8:	e49d4004 	pop	{r4}		; (ldr r4, [sp], #4)
    82bc:	e12fff1e 	bx	lr
    82c0:	20200000 	eorcs	r0, r0, r0
    82c4:	000017bb 			; <UNDEFINED> instruction: 0x000017bb
    82c8:	00002f77 	andeq	r2, r0, r7, ror pc
    82cc:	00004733 	andeq	r4, r0, r3, lsr r7
    82d0:	00005eef 	andeq	r5, r0, pc, ror #29
    82d4:	000076ab 	andeq	r7, r0, fp, lsr #13
    82d8:	00008e67 	andeq	r8, r0, r7, ror #28
    82dc:	0000a623 	andeq	sl, r0, r3, lsr #12
    82e0:	0000bddf 	ldrdeq	fp, [r0], -pc	; <UNPREDICTABLE>
    82e4:	0000d59b 	muleq	r0, fp, r5
    82e8:	0000ed57 	andeq	lr, r0, r7, asr sp

000082ec <client>:
    82ec:	e92d41f0 	push	{r4, r5, r6, r7, r8, lr}
    82f0:	e1a06000 	mov	r6, r0
    82f4:	e1a05002 	mov	r5, r2
    82f8:	e59f00a4 	ldr	r0, [pc, #164]	; 83a4 <client+0xb8>
    82fc:	eb00020b 	bl	8b30 <printk>
    8300:	eb00079d 	bl	a17c <system_enable_interrupts>
    8304:	e59f309c 	ldr	r3, [pc, #156]	; 83a8 <client+0xbc>
    8308:	e593201c 	ldr	r2, [r3, #28]
    830c:	e3a01001 	mov	r1, #1
    8310:	e1822611 	orr	r2, r2, r1, lsl r6
    8314:	e583201c 	str	r2, [r3, #28]
    8318:	e59f408c 	ldr	r4, [pc, #140]	; 83ac <client+0xc0>
    831c:	e59f708c 	ldr	r7, [pc, #140]	; 83b0 <client+0xc4>
    8320:	e3a08000 	mov	r8, #0
    8324:	ea00001a 	b	8394 <client+0xa8>
    8328:	e5943000 	ldr	r3, [r4]
    832c:	e3530000 	cmp	r3, #0
    8330:	0a000017 	beq	8394 <client+0xa8>
    8334:	e5941004 	ldr	r1, [r4, #4]
    8338:	e1a00006 	mov	r0, r6
    833c:	e1a01c21 	lsr	r1, r1, #24
    8340:	e1a02007 	mov	r2, r7
    8344:	ebffff45 	bl	8060 <test_gen>
    8348:	e5941004 	ldr	r1, [r4, #4]
    834c:	e20118ff 	and	r1, r1, #16711680	; 0xff0000
    8350:	e1a00006 	mov	r0, r6
    8354:	e1a01821 	lsr	r1, r1, #16
    8358:	e1a02007 	mov	r2, r7
    835c:	ebffff3f 	bl	8060 <test_gen>
    8360:	e5941004 	ldr	r1, [r4, #4]
    8364:	e2011cff 	and	r1, r1, #65280	; 0xff00
    8368:	e1a00006 	mov	r0, r6
    836c:	e1a01421 	lsr	r1, r1, #8
    8370:	e1a02007 	mov	r2, r7
    8374:	ebffff39 	bl	8060 <test_gen>
    8378:	e5941004 	ldr	r1, [r4, #4]
    837c:	e1a00006 	mov	r0, r6
    8380:	e6ef1071 	uxtb	r1, r1
    8384:	e1a02007 	mov	r2, r7
    8388:	ebffff34 	bl	8060 <test_gen>
    838c:	e5848000 	str	r8, [r4]
    8390:	eb000779 	bl	a17c <system_enable_interrupts>
    8394:	e5943004 	ldr	r3, [r4, #4]
    8398:	e1530005 	cmp	r3, r5
    839c:	9affffe1 	bls	8328 <client+0x3c>
    83a0:	e8bd81f0 	pop	{r4, r5, r6, r7, r8, pc}
    83a4:	0000a4d8 	ldrdeq	sl, [r0], -r8
    83a8:	20200000 	eorcs	r0, r0, r0
    83ac:	0000a8ec 	andeq	sl, r0, ip, ror #17
    83b0:	000017bc 			; <UNDEFINED> instruction: 0x000017bc

000083b4 <interrupt_vector>:
    83b4:	e92d4008 	push	{r3, lr}
    83b8:	ee1f3f3c 	mrc	15, 0, r3, cr15, cr12, {1}
    83bc:	e59f16f8 	ldr	r1, [pc, #1784]	; 8abc <interrupt_vector+0x708>
    83c0:	e5912034 	ldr	r2, [r1, #52]	; 0x34
    83c4:	e3120601 	tst	r2, #1048576	; 0x100000
    83c8:	1afffffc 	bne	83c0 <interrupt_vector+0xc>
    83cc:	e59f16ec 	ldr	r1, [pc, #1772]	; 8ac0 <interrupt_vector+0x70c>
    83d0:	ee1f2f3c 	mrc	15, 0, r2, cr15, cr12, {1}
    83d4:	e0632002 	rsb	r2, r3, r2
    83d8:	e1520001 	cmp	r2, r1
    83dc:	9afffffb 	bls	83d0 <interrupt_vector+0x1c>
    83e0:	e59f16dc 	ldr	r1, [pc, #1756]	; 8ac4 <interrupt_vector+0x710>
    83e4:	ee1f2f3c 	mrc	15, 0, r2, cr15, cr12, {1}
    83e8:	e0632002 	rsb	r2, r3, r2
    83ec:	e1520001 	cmp	r2, r1
    83f0:	9afffffb 	bls	83e4 <interrupt_vector+0x30>
    83f4:	e59f26c0 	ldr	r2, [pc, #1728]	; 8abc <interrupt_vector+0x708>
    83f8:	e592c034 	ldr	ip, [r2, #52]	; 0x34
    83fc:	e20cc601 	and	ip, ip, #1048576	; 0x100000
    8400:	e29cc000 	adds	ip, ip, #0
    8404:	13a0c001 	movne	ip, #1
    8408:	e59f16b8 	ldr	r1, [pc, #1720]	; 8ac8 <interrupt_vector+0x714>
    840c:	ee1f2f3c 	mrc	15, 0, r2, cr15, cr12, {1}
    8410:	e0632002 	rsb	r2, r3, r2
    8414:	e1520001 	cmp	r2, r1
    8418:	9afffffb 	bls	840c <interrupt_vector+0x58>
    841c:	e59f2698 	ldr	r2, [pc, #1688]	; 8abc <interrupt_vector+0x708>
    8420:	e5922034 	ldr	r2, [r2, #52]	; 0x34
    8424:	e2022601 	and	r2, r2, #1048576	; 0x100000
    8428:	e3520000 	cmp	r2, #0
    842c:	13a02002 	movne	r2, #2
    8430:	03a02000 	moveq	r2, #0
    8434:	e18cc002 	orr	ip, ip, r2
    8438:	e59f168c 	ldr	r1, [pc, #1676]	; 8acc <interrupt_vector+0x718>
    843c:	ee1f2f3c 	mrc	15, 0, r2, cr15, cr12, {1}
    8440:	e0632002 	rsb	r2, r3, r2
    8444:	e1520001 	cmp	r2, r1
    8448:	9afffffb 	bls	843c <interrupt_vector+0x88>
    844c:	e59f2668 	ldr	r2, [pc, #1640]	; 8abc <interrupt_vector+0x708>
    8450:	e5922034 	ldr	r2, [r2, #52]	; 0x34
    8454:	e2022601 	and	r2, r2, #1048576	; 0x100000
    8458:	e3520000 	cmp	r2, #0
    845c:	13a02004 	movne	r2, #4
    8460:	03a02000 	moveq	r2, #0
    8464:	e18cc002 	orr	ip, ip, r2
    8468:	e59f1660 	ldr	r1, [pc, #1632]	; 8ad0 <interrupt_vector+0x71c>
    846c:	ee1f2f3c 	mrc	15, 0, r2, cr15, cr12, {1}
    8470:	e0632002 	rsb	r2, r3, r2
    8474:	e1520001 	cmp	r2, r1
    8478:	9afffffb 	bls	846c <interrupt_vector+0xb8>
    847c:	e59f2638 	ldr	r2, [pc, #1592]	; 8abc <interrupt_vector+0x708>
    8480:	e5922034 	ldr	r2, [r2, #52]	; 0x34
    8484:	e2022601 	and	r2, r2, #1048576	; 0x100000
    8488:	e3520000 	cmp	r2, #0
    848c:	13a02008 	movne	r2, #8
    8490:	03a02000 	moveq	r2, #0
    8494:	e18cc002 	orr	ip, ip, r2
    8498:	e59f1634 	ldr	r1, [pc, #1588]	; 8ad4 <interrupt_vector+0x720>
    849c:	ee1f2f3c 	mrc	15, 0, r2, cr15, cr12, {1}
    84a0:	e0632002 	rsb	r2, r3, r2
    84a4:	e1520001 	cmp	r2, r1
    84a8:	9afffffb 	bls	849c <interrupt_vector+0xe8>
    84ac:	e59f2608 	ldr	r2, [pc, #1544]	; 8abc <interrupt_vector+0x708>
    84b0:	e5922034 	ldr	r2, [r2, #52]	; 0x34
    84b4:	e2022601 	and	r2, r2, #1048576	; 0x100000
    84b8:	e3520000 	cmp	r2, #0
    84bc:	13a02010 	movne	r2, #16
    84c0:	03a02000 	moveq	r2, #0
    84c4:	e18cc002 	orr	ip, ip, r2
    84c8:	e59f1608 	ldr	r1, [pc, #1544]	; 8ad8 <interrupt_vector+0x724>
    84cc:	ee1f2f3c 	mrc	15, 0, r2, cr15, cr12, {1}
    84d0:	e0632002 	rsb	r2, r3, r2
    84d4:	e1520001 	cmp	r2, r1
    84d8:	9afffffb 	bls	84cc <interrupt_vector+0x118>
    84dc:	e59f25d8 	ldr	r2, [pc, #1496]	; 8abc <interrupt_vector+0x708>
    84e0:	e5922034 	ldr	r2, [r2, #52]	; 0x34
    84e4:	e2022601 	and	r2, r2, #1048576	; 0x100000
    84e8:	e3520000 	cmp	r2, #0
    84ec:	13a02020 	movne	r2, #32
    84f0:	03a02000 	moveq	r2, #0
    84f4:	e18cc002 	orr	ip, ip, r2
    84f8:	e59f15dc 	ldr	r1, [pc, #1500]	; 8adc <interrupt_vector+0x728>
    84fc:	ee1f2f3c 	mrc	15, 0, r2, cr15, cr12, {1}
    8500:	e0632002 	rsb	r2, r3, r2
    8504:	e1520001 	cmp	r2, r1
    8508:	9afffffb 	bls	84fc <interrupt_vector+0x148>
    850c:	e59f25a8 	ldr	r2, [pc, #1448]	; 8abc <interrupt_vector+0x708>
    8510:	e5922034 	ldr	r2, [r2, #52]	; 0x34
    8514:	e2022601 	and	r2, r2, #1048576	; 0x100000
    8518:	e3520000 	cmp	r2, #0
    851c:	13a02040 	movne	r2, #64	; 0x40
    8520:	03a02000 	moveq	r2, #0
    8524:	e18cc002 	orr	ip, ip, r2
    8528:	e59f15b0 	ldr	r1, [pc, #1456]	; 8ae0 <interrupt_vector+0x72c>
    852c:	ee1f2f3c 	mrc	15, 0, r2, cr15, cr12, {1}
    8530:	e0632002 	rsb	r2, r3, r2
    8534:	e1520001 	cmp	r2, r1
    8538:	9afffffb 	bls	852c <interrupt_vector+0x178>
    853c:	e59f2578 	ldr	r2, [pc, #1400]	; 8abc <interrupt_vector+0x708>
    8540:	e5920034 	ldr	r0, [r2, #52]	; 0x34
    8544:	e2000601 	and	r0, r0, #1048576	; 0x100000
    8548:	e1a00a20 	lsr	r0, r0, #20
    854c:	e18c0380 	orr	r0, ip, r0, lsl #7
    8550:	e59f158c 	ldr	r1, [pc, #1420]	; 8ae4 <interrupt_vector+0x730>
    8554:	ee1f2f3c 	mrc	15, 0, r2, cr15, cr12, {1}
    8558:	e0632002 	rsb	r2, r3, r2
    855c:	e1520001 	cmp	r2, r1
    8560:	9afffffb 	bls	8554 <interrupt_vector+0x1a0>
    8564:	e1a02c00 	lsl	r2, r0, #24
    8568:	e59f3578 	ldr	r3, [pc, #1400]	; 8ae8 <interrupt_vector+0x734>
    856c:	e5832004 	str	r2, [r3, #4]
    8570:	ee1f3f3c 	mrc	15, 0, r3, cr15, cr12, {1}
    8574:	e59f1540 	ldr	r1, [pc, #1344]	; 8abc <interrupt_vector+0x708>
    8578:	e5912034 	ldr	r2, [r1, #52]	; 0x34
    857c:	e3120601 	tst	r2, #1048576	; 0x100000
    8580:	1afffffc 	bne	8578 <interrupt_vector+0x1c4>
    8584:	e59f1534 	ldr	r1, [pc, #1332]	; 8ac0 <interrupt_vector+0x70c>
    8588:	ee1f2f3c 	mrc	15, 0, r2, cr15, cr12, {1}
    858c:	e0632002 	rsb	r2, r3, r2
    8590:	e1520001 	cmp	r2, r1
    8594:	9afffffb 	bls	8588 <interrupt_vector+0x1d4>
    8598:	e59f1524 	ldr	r1, [pc, #1316]	; 8ac4 <interrupt_vector+0x710>
    859c:	ee1f2f3c 	mrc	15, 0, r2, cr15, cr12, {1}
    85a0:	e0632002 	rsb	r2, r3, r2
    85a4:	e1520001 	cmp	r2, r1
    85a8:	9afffffb 	bls	859c <interrupt_vector+0x1e8>
    85ac:	e59f2508 	ldr	r2, [pc, #1288]	; 8abc <interrupt_vector+0x708>
    85b0:	e592c034 	ldr	ip, [r2, #52]	; 0x34
    85b4:	e20cc601 	and	ip, ip, #1048576	; 0x100000
    85b8:	e29cc000 	adds	ip, ip, #0
    85bc:	13a0c001 	movne	ip, #1
    85c0:	e59f1500 	ldr	r1, [pc, #1280]	; 8ac8 <interrupt_vector+0x714>
    85c4:	ee1f2f3c 	mrc	15, 0, r2, cr15, cr12, {1}
    85c8:	e0632002 	rsb	r2, r3, r2
    85cc:	e1520001 	cmp	r2, r1
    85d0:	9afffffb 	bls	85c4 <interrupt_vector+0x210>
    85d4:	e59f24e0 	ldr	r2, [pc, #1248]	; 8abc <interrupt_vector+0x708>
    85d8:	e5922034 	ldr	r2, [r2, #52]	; 0x34
    85dc:	e2022601 	and	r2, r2, #1048576	; 0x100000
    85e0:	e3520000 	cmp	r2, #0
    85e4:	13a02002 	movne	r2, #2
    85e8:	03a02000 	moveq	r2, #0
    85ec:	e18cc002 	orr	ip, ip, r2
    85f0:	e59f14d4 	ldr	r1, [pc, #1236]	; 8acc <interrupt_vector+0x718>
    85f4:	ee1f2f3c 	mrc	15, 0, r2, cr15, cr12, {1}
    85f8:	e0632002 	rsb	r2, r3, r2
    85fc:	e1520001 	cmp	r2, r1
    8600:	9afffffb 	bls	85f4 <interrupt_vector+0x240>
    8604:	e59f24b0 	ldr	r2, [pc, #1200]	; 8abc <interrupt_vector+0x708>
    8608:	e5922034 	ldr	r2, [r2, #52]	; 0x34
    860c:	e2022601 	and	r2, r2, #1048576	; 0x100000
    8610:	e3520000 	cmp	r2, #0
    8614:	13a02004 	movne	r2, #4
    8618:	03a02000 	moveq	r2, #0
    861c:	e18cc002 	orr	ip, ip, r2
    8620:	e59f14a8 	ldr	r1, [pc, #1192]	; 8ad0 <interrupt_vector+0x71c>
    8624:	ee1f2f3c 	mrc	15, 0, r2, cr15, cr12, {1}
    8628:	e0632002 	rsb	r2, r3, r2
    862c:	e1520001 	cmp	r2, r1
    8630:	9afffffb 	bls	8624 <interrupt_vector+0x270>
    8634:	e59f2480 	ldr	r2, [pc, #1152]	; 8abc <interrupt_vector+0x708>
    8638:	e5922034 	ldr	r2, [r2, #52]	; 0x34
    863c:	e2022601 	and	r2, r2, #1048576	; 0x100000
    8640:	e3520000 	cmp	r2, #0
    8644:	13a02008 	movne	r2, #8
    8648:	03a02000 	moveq	r2, #0
    864c:	e18cc002 	orr	ip, ip, r2
    8650:	e59f147c 	ldr	r1, [pc, #1148]	; 8ad4 <interrupt_vector+0x720>
    8654:	ee1f2f3c 	mrc	15, 0, r2, cr15, cr12, {1}
    8658:	e0632002 	rsb	r2, r3, r2
    865c:	e1520001 	cmp	r2, r1
    8660:	9afffffb 	bls	8654 <interrupt_vector+0x2a0>
    8664:	e59f2450 	ldr	r2, [pc, #1104]	; 8abc <interrupt_vector+0x708>
    8668:	e5922034 	ldr	r2, [r2, #52]	; 0x34
    866c:	e2022601 	and	r2, r2, #1048576	; 0x100000
    8670:	e3520000 	cmp	r2, #0
    8674:	13a02010 	movne	r2, #16
    8678:	03a02000 	moveq	r2, #0
    867c:	e18cc002 	orr	ip, ip, r2
    8680:	e59f1450 	ldr	r1, [pc, #1104]	; 8ad8 <interrupt_vector+0x724>
    8684:	ee1f2f3c 	mrc	15, 0, r2, cr15, cr12, {1}
    8688:	e0632002 	rsb	r2, r3, r2
    868c:	e1520001 	cmp	r2, r1
    8690:	9afffffb 	bls	8684 <interrupt_vector+0x2d0>
    8694:	e59f2420 	ldr	r2, [pc, #1056]	; 8abc <interrupt_vector+0x708>
    8698:	e5922034 	ldr	r2, [r2, #52]	; 0x34
    869c:	e2022601 	and	r2, r2, #1048576	; 0x100000
    86a0:	e3520000 	cmp	r2, #0
    86a4:	13a02020 	movne	r2, #32
    86a8:	03a02000 	moveq	r2, #0
    86ac:	e18cc002 	orr	ip, ip, r2
    86b0:	e59f1424 	ldr	r1, [pc, #1060]	; 8adc <interrupt_vector+0x728>
    86b4:	ee1f2f3c 	mrc	15, 0, r2, cr15, cr12, {1}
    86b8:	e0632002 	rsb	r2, r3, r2
    86bc:	e1520001 	cmp	r2, r1
    86c0:	9afffffb 	bls	86b4 <interrupt_vector+0x300>
    86c4:	e59f23f0 	ldr	r2, [pc, #1008]	; 8abc <interrupt_vector+0x708>
    86c8:	e5922034 	ldr	r2, [r2, #52]	; 0x34
    86cc:	e2022601 	and	r2, r2, #1048576	; 0x100000
    86d0:	e3520000 	cmp	r2, #0
    86d4:	13a02040 	movne	r2, #64	; 0x40
    86d8:	03a02000 	moveq	r2, #0
    86dc:	e18cc002 	orr	ip, ip, r2
    86e0:	e59f13f8 	ldr	r1, [pc, #1016]	; 8ae0 <interrupt_vector+0x72c>
    86e4:	ee1f2f3c 	mrc	15, 0, r2, cr15, cr12, {1}
    86e8:	e0632002 	rsb	r2, r3, r2
    86ec:	e1520001 	cmp	r2, r1
    86f0:	9afffffb 	bls	86e4 <interrupt_vector+0x330>
    86f4:	e59f23c0 	ldr	r2, [pc, #960]	; 8abc <interrupt_vector+0x708>
    86f8:	e5920034 	ldr	r0, [r2, #52]	; 0x34
    86fc:	e2000601 	and	r0, r0, #1048576	; 0x100000
    8700:	e1a00a20 	lsr	r0, r0, #20
    8704:	e18c0380 	orr	r0, ip, r0, lsl #7
    8708:	e59f13d4 	ldr	r1, [pc, #980]	; 8ae4 <interrupt_vector+0x730>
    870c:	ee1f2f3c 	mrc	15, 0, r2, cr15, cr12, {1}
    8710:	e0632002 	rsb	r2, r3, r2
    8714:	e1520001 	cmp	r2, r1
    8718:	9afffffb 	bls	870c <interrupt_vector+0x358>
    871c:	e59f33c4 	ldr	r3, [pc, #964]	; 8ae8 <interrupt_vector+0x734>
    8720:	e5931004 	ldr	r1, [r3, #4]
    8724:	e1812800 	orr	r2, r1, r0, lsl #16
    8728:	e5832004 	str	r2, [r3, #4]
    872c:	ee1f3f3c 	mrc	15, 0, r3, cr15, cr12, {1}
    8730:	e59f1384 	ldr	r1, [pc, #900]	; 8abc <interrupt_vector+0x708>
    8734:	e5912034 	ldr	r2, [r1, #52]	; 0x34
    8738:	e3120601 	tst	r2, #1048576	; 0x100000
    873c:	1afffffc 	bne	8734 <interrupt_vector+0x380>
    8740:	e59f1378 	ldr	r1, [pc, #888]	; 8ac0 <interrupt_vector+0x70c>
    8744:	ee1f2f3c 	mrc	15, 0, r2, cr15, cr12, {1}
    8748:	e0632002 	rsb	r2, r3, r2
    874c:	e1520001 	cmp	r2, r1
    8750:	9afffffb 	bls	8744 <interrupt_vector+0x390>
    8754:	e59f1368 	ldr	r1, [pc, #872]	; 8ac4 <interrupt_vector+0x710>
    8758:	ee1f2f3c 	mrc	15, 0, r2, cr15, cr12, {1}
    875c:	e0632002 	rsb	r2, r3, r2
    8760:	e1520001 	cmp	r2, r1
    8764:	9afffffb 	bls	8758 <interrupt_vector+0x3a4>
    8768:	e59f234c 	ldr	r2, [pc, #844]	; 8abc <interrupt_vector+0x708>
    876c:	e592c034 	ldr	ip, [r2, #52]	; 0x34
    8770:	e20cc601 	and	ip, ip, #1048576	; 0x100000
    8774:	e29cc000 	adds	ip, ip, #0
    8778:	13a0c001 	movne	ip, #1
    877c:	e59f1344 	ldr	r1, [pc, #836]	; 8ac8 <interrupt_vector+0x714>
    8780:	ee1f2f3c 	mrc	15, 0, r2, cr15, cr12, {1}
    8784:	e0632002 	rsb	r2, r3, r2
    8788:	e1520001 	cmp	r2, r1
    878c:	9afffffb 	bls	8780 <interrupt_vector+0x3cc>
    8790:	e59f2324 	ldr	r2, [pc, #804]	; 8abc <interrupt_vector+0x708>
    8794:	e5922034 	ldr	r2, [r2, #52]	; 0x34
    8798:	e2022601 	and	r2, r2, #1048576	; 0x100000
    879c:	e3520000 	cmp	r2, #0
    87a0:	13a02002 	movne	r2, #2
    87a4:	03a02000 	moveq	r2, #0
    87a8:	e18cc002 	orr	ip, ip, r2
    87ac:	e59f1318 	ldr	r1, [pc, #792]	; 8acc <interrupt_vector+0x718>
    87b0:	ee1f2f3c 	mrc	15, 0, r2, cr15, cr12, {1}
    87b4:	e0632002 	rsb	r2, r3, r2
    87b8:	e1520001 	cmp	r2, r1
    87bc:	9afffffb 	bls	87b0 <interrupt_vector+0x3fc>
    87c0:	e59f22f4 	ldr	r2, [pc, #756]	; 8abc <interrupt_vector+0x708>
    87c4:	e5922034 	ldr	r2, [r2, #52]	; 0x34
    87c8:	e2022601 	and	r2, r2, #1048576	; 0x100000
    87cc:	e3520000 	cmp	r2, #0
    87d0:	13a02004 	movne	r2, #4
    87d4:	03a02000 	moveq	r2, #0
    87d8:	e18cc002 	orr	ip, ip, r2
    87dc:	e59f12ec 	ldr	r1, [pc, #748]	; 8ad0 <interrupt_vector+0x71c>
    87e0:	ee1f2f3c 	mrc	15, 0, r2, cr15, cr12, {1}
    87e4:	e0632002 	rsb	r2, r3, r2
    87e8:	e1520001 	cmp	r2, r1
    87ec:	9afffffb 	bls	87e0 <interrupt_vector+0x42c>
    87f0:	e59f22c4 	ldr	r2, [pc, #708]	; 8abc <interrupt_vector+0x708>
    87f4:	e5922034 	ldr	r2, [r2, #52]	; 0x34
    87f8:	e2022601 	and	r2, r2, #1048576	; 0x100000
    87fc:	e3520000 	cmp	r2, #0
    8800:	13a02008 	movne	r2, #8
    8804:	03a02000 	moveq	r2, #0
    8808:	e18cc002 	orr	ip, ip, r2
    880c:	e59f12c0 	ldr	r1, [pc, #704]	; 8ad4 <interrupt_vector+0x720>
    8810:	ee1f2f3c 	mrc	15, 0, r2, cr15, cr12, {1}
    8814:	e0632002 	rsb	r2, r3, r2
    8818:	e1520001 	cmp	r2, r1
    881c:	9afffffb 	bls	8810 <interrupt_vector+0x45c>
    8820:	e59f2294 	ldr	r2, [pc, #660]	; 8abc <interrupt_vector+0x708>
    8824:	e5922034 	ldr	r2, [r2, #52]	; 0x34
    8828:	e2022601 	and	r2, r2, #1048576	; 0x100000
    882c:	e3520000 	cmp	r2, #0
    8830:	13a02010 	movne	r2, #16
    8834:	03a02000 	moveq	r2, #0
    8838:	e18cc002 	orr	ip, ip, r2
    883c:	e59f1294 	ldr	r1, [pc, #660]	; 8ad8 <interrupt_vector+0x724>
    8840:	ee1f2f3c 	mrc	15, 0, r2, cr15, cr12, {1}
    8844:	e0632002 	rsb	r2, r3, r2
    8848:	e1520001 	cmp	r2, r1
    884c:	9afffffb 	bls	8840 <interrupt_vector+0x48c>
    8850:	e59f2264 	ldr	r2, [pc, #612]	; 8abc <interrupt_vector+0x708>
    8854:	e5922034 	ldr	r2, [r2, #52]	; 0x34
    8858:	e2022601 	and	r2, r2, #1048576	; 0x100000
    885c:	e3520000 	cmp	r2, #0
    8860:	13a02020 	movne	r2, #32
    8864:	03a02000 	moveq	r2, #0
    8868:	e18cc002 	orr	ip, ip, r2
    886c:	e59f1268 	ldr	r1, [pc, #616]	; 8adc <interrupt_vector+0x728>
    8870:	ee1f2f3c 	mrc	15, 0, r2, cr15, cr12, {1}
    8874:	e0632002 	rsb	r2, r3, r2
    8878:	e1520001 	cmp	r2, r1
    887c:	9afffffb 	bls	8870 <interrupt_vector+0x4bc>
    8880:	e59f2234 	ldr	r2, [pc, #564]	; 8abc <interrupt_vector+0x708>
    8884:	e5922034 	ldr	r2, [r2, #52]	; 0x34
    8888:	e2022601 	and	r2, r2, #1048576	; 0x100000
    888c:	e3520000 	cmp	r2, #0
    8890:	13a02040 	movne	r2, #64	; 0x40
    8894:	03a02000 	moveq	r2, #0
    8898:	e18cc002 	orr	ip, ip, r2
    889c:	e59f123c 	ldr	r1, [pc, #572]	; 8ae0 <interrupt_vector+0x72c>
    88a0:	ee1f2f3c 	mrc	15, 0, r2, cr15, cr12, {1}
    88a4:	e0632002 	rsb	r2, r3, r2
    88a8:	e1520001 	cmp	r2, r1
    88ac:	9afffffb 	bls	88a0 <interrupt_vector+0x4ec>
    88b0:	e59f2204 	ldr	r2, [pc, #516]	; 8abc <interrupt_vector+0x708>
    88b4:	e5920034 	ldr	r0, [r2, #52]	; 0x34
    88b8:	e2000601 	and	r0, r0, #1048576	; 0x100000
    88bc:	e1a00a20 	lsr	r0, r0, #20
    88c0:	e18c0380 	orr	r0, ip, r0, lsl #7
    88c4:	e59f1218 	ldr	r1, [pc, #536]	; 8ae4 <interrupt_vector+0x730>
    88c8:	ee1f2f3c 	mrc	15, 0, r2, cr15, cr12, {1}
    88cc:	e0632002 	rsb	r2, r3, r2
    88d0:	e1520001 	cmp	r2, r1
    88d4:	9afffffb 	bls	88c8 <interrupt_vector+0x514>
    88d8:	e59f3208 	ldr	r3, [pc, #520]	; 8ae8 <interrupt_vector+0x734>
    88dc:	e5931004 	ldr	r1, [r3, #4]
    88e0:	e1812400 	orr	r2, r1, r0, lsl #8
    88e4:	e5832004 	str	r2, [r3, #4]
    88e8:	ee1f3f3c 	mrc	15, 0, r3, cr15, cr12, {1}
    88ec:	e59f11c8 	ldr	r1, [pc, #456]	; 8abc <interrupt_vector+0x708>
    88f0:	e5912034 	ldr	r2, [r1, #52]	; 0x34
    88f4:	e3120601 	tst	r2, #1048576	; 0x100000
    88f8:	1afffffc 	bne	88f0 <interrupt_vector+0x53c>
    88fc:	e59f11bc 	ldr	r1, [pc, #444]	; 8ac0 <interrupt_vector+0x70c>
    8900:	ee1f2f3c 	mrc	15, 0, r2, cr15, cr12, {1}
    8904:	e0632002 	rsb	r2, r3, r2
    8908:	e1520001 	cmp	r2, r1
    890c:	9afffffb 	bls	8900 <interrupt_vector+0x54c>
    8910:	e59f11ac 	ldr	r1, [pc, #428]	; 8ac4 <interrupt_vector+0x710>
    8914:	ee1f2f3c 	mrc	15, 0, r2, cr15, cr12, {1}
    8918:	e0632002 	rsb	r2, r3, r2
    891c:	e1520001 	cmp	r2, r1
    8920:	9afffffb 	bls	8914 <interrupt_vector+0x560>
    8924:	e59f2190 	ldr	r2, [pc, #400]	; 8abc <interrupt_vector+0x708>
    8928:	e592c034 	ldr	ip, [r2, #52]	; 0x34
    892c:	e20cc601 	and	ip, ip, #1048576	; 0x100000
    8930:	e29cc000 	adds	ip, ip, #0
    8934:	13a0c001 	movne	ip, #1
    8938:	e59f1188 	ldr	r1, [pc, #392]	; 8ac8 <interrupt_vector+0x714>
    893c:	ee1f2f3c 	mrc	15, 0, r2, cr15, cr12, {1}
    8940:	e0632002 	rsb	r2, r3, r2
    8944:	e1520001 	cmp	r2, r1
    8948:	9afffffb 	bls	893c <interrupt_vector+0x588>
    894c:	e59f2168 	ldr	r2, [pc, #360]	; 8abc <interrupt_vector+0x708>
    8950:	e5922034 	ldr	r2, [r2, #52]	; 0x34
    8954:	e2022601 	and	r2, r2, #1048576	; 0x100000
    8958:	e3520000 	cmp	r2, #0
    895c:	13a02002 	movne	r2, #2
    8960:	03a02000 	moveq	r2, #0
    8964:	e18cc002 	orr	ip, ip, r2
    8968:	e59f115c 	ldr	r1, [pc, #348]	; 8acc <interrupt_vector+0x718>
    896c:	ee1f2f3c 	mrc	15, 0, r2, cr15, cr12, {1}
    8970:	e0632002 	rsb	r2, r3, r2
    8974:	e1520001 	cmp	r2, r1
    8978:	9afffffb 	bls	896c <interrupt_vector+0x5b8>
    897c:	e59f2138 	ldr	r2, [pc, #312]	; 8abc <interrupt_vector+0x708>
    8980:	e5922034 	ldr	r2, [r2, #52]	; 0x34
    8984:	e2022601 	and	r2, r2, #1048576	; 0x100000
    8988:	e3520000 	cmp	r2, #0
    898c:	13a02004 	movne	r2, #4
    8990:	03a02000 	moveq	r2, #0
    8994:	e18cc002 	orr	ip, ip, r2
    8998:	e59f1130 	ldr	r1, [pc, #304]	; 8ad0 <interrupt_vector+0x71c>
    899c:	ee1f2f3c 	mrc	15, 0, r2, cr15, cr12, {1}
    89a0:	e0632002 	rsb	r2, r3, r2
    89a4:	e1520001 	cmp	r2, r1
    89a8:	9afffffb 	bls	899c <interrupt_vector+0x5e8>
    89ac:	e59f2108 	ldr	r2, [pc, #264]	; 8abc <interrupt_vector+0x708>
    89b0:	e5922034 	ldr	r2, [r2, #52]	; 0x34
    89b4:	e2022601 	and	r2, r2, #1048576	; 0x100000
    89b8:	e3520000 	cmp	r2, #0
    89bc:	13a02008 	movne	r2, #8
    89c0:	03a02000 	moveq	r2, #0
    89c4:	e18cc002 	orr	ip, ip, r2
    89c8:	e59f1104 	ldr	r1, [pc, #260]	; 8ad4 <interrupt_vector+0x720>
    89cc:	ee1f2f3c 	mrc	15, 0, r2, cr15, cr12, {1}
    89d0:	e0632002 	rsb	r2, r3, r2
    89d4:	e1520001 	cmp	r2, r1
    89d8:	9afffffb 	bls	89cc <interrupt_vector+0x618>
    89dc:	e59f20d8 	ldr	r2, [pc, #216]	; 8abc <interrupt_vector+0x708>
    89e0:	e5922034 	ldr	r2, [r2, #52]	; 0x34
    89e4:	e2022601 	and	r2, r2, #1048576	; 0x100000
    89e8:	e3520000 	cmp	r2, #0
    89ec:	13a02010 	movne	r2, #16
    89f0:	03a02000 	moveq	r2, #0
    89f4:	e18cc002 	orr	ip, ip, r2
    89f8:	e59f10d8 	ldr	r1, [pc, #216]	; 8ad8 <interrupt_vector+0x724>
    89fc:	ee1f2f3c 	mrc	15, 0, r2, cr15, cr12, {1}
    8a00:	e0632002 	rsb	r2, r3, r2
    8a04:	e1520001 	cmp	r2, r1
    8a08:	9afffffb 	bls	89fc <interrupt_vector+0x648>
    8a0c:	e59f20a8 	ldr	r2, [pc, #168]	; 8abc <interrupt_vector+0x708>
    8a10:	e5922034 	ldr	r2, [r2, #52]	; 0x34
    8a14:	e2022601 	and	r2, r2, #1048576	; 0x100000
    8a18:	e3520000 	cmp	r2, #0
    8a1c:	13a02020 	movne	r2, #32
    8a20:	03a02000 	moveq	r2, #0
    8a24:	e18cc002 	orr	ip, ip, r2
    8a28:	e59f10ac 	ldr	r1, [pc, #172]	; 8adc <interrupt_vector+0x728>
    8a2c:	ee1f2f3c 	mrc	15, 0, r2, cr15, cr12, {1}
    8a30:	e0632002 	rsb	r2, r3, r2
    8a34:	e1520001 	cmp	r2, r1
    8a38:	9afffffb 	bls	8a2c <interrupt_vector+0x678>
    8a3c:	e59f2078 	ldr	r2, [pc, #120]	; 8abc <interrupt_vector+0x708>
    8a40:	e5922034 	ldr	r2, [r2, #52]	; 0x34
    8a44:	e2022601 	and	r2, r2, #1048576	; 0x100000
    8a48:	e3520000 	cmp	r2, #0
    8a4c:	13a02040 	movne	r2, #64	; 0x40
    8a50:	03a02000 	moveq	r2, #0
    8a54:	e18cc002 	orr	ip, ip, r2
    8a58:	e59f1080 	ldr	r1, [pc, #128]	; 8ae0 <interrupt_vector+0x72c>
    8a5c:	ee1f2f3c 	mrc	15, 0, r2, cr15, cr12, {1}
    8a60:	e0632002 	rsb	r2, r3, r2
    8a64:	e1520001 	cmp	r2, r1
    8a68:	9afffffb 	bls	8a5c <interrupt_vector+0x6a8>
    8a6c:	e59f2048 	ldr	r2, [pc, #72]	; 8abc <interrupt_vector+0x708>
    8a70:	e5920034 	ldr	r0, [r2, #52]	; 0x34
    8a74:	e2000601 	and	r0, r0, #1048576	; 0x100000
    8a78:	e1a00a20 	lsr	r0, r0, #20
    8a7c:	e18c0380 	orr	r0, ip, r0, lsl #7
    8a80:	e59f105c 	ldr	r1, [pc, #92]	; 8ae4 <interrupt_vector+0x730>
    8a84:	ee1f2f3c 	mrc	15, 0, r2, cr15, cr12, {1}
    8a88:	e0632002 	rsb	r2, r3, r2
    8a8c:	e1520001 	cmp	r2, r1
    8a90:	9afffffb 	bls	8a84 <interrupt_vector+0x6d0>
    8a94:	e59f304c 	ldr	r3, [pc, #76]	; 8ae8 <interrupt_vector+0x734>
    8a98:	e5932004 	ldr	r2, [r3, #4]
    8a9c:	e1822000 	orr	r2, r2, r0
    8aa0:	e5832004 	str	r2, [r3, #4]
    8aa4:	e3a02001 	mov	r2, #1
    8aa8:	e5832000 	str	r2, [r3]
    8aac:	eb0005b6 	bl	a18c <system_disable_interrupts>
    8ab0:	e3a00014 	mov	r0, #20
    8ab4:	eb000367 	bl	9858 <gpio_event_clear>
    8ab8:	e8bd8008 	pop	{r3, pc}
    8abc:	20200000 	eorcs	r0, r0, r0
    8ac0:	00000bdd 	ldrdeq	r0, [r0], -sp
    8ac4:	00002399 	muleq	r0, r9, r3
    8ac8:	00003b55 	andeq	r3, r0, r5, asr fp
    8acc:	00005311 	andeq	r5, r0, r1, lsl r3
    8ad0:	00006acd 	andeq	r6, r0, sp, asr #21
    8ad4:	00008289 	andeq	r8, r0, r9, lsl #5
    8ad8:	00009a45 	andeq	r9, r0, r5, asr #20
    8adc:	0000b201 	andeq	fp, r0, r1, lsl #4
    8ae0:	0000c9bd 			; <UNDEFINED> instruction: 0x0000c9bd
    8ae4:	0000e179 	andeq	lr, r0, r9, ror r1
    8ae8:	0000a8ec 	andeq	sl, r0, ip, ror #17

00008aec <notmain>:
    8aec:	e92d4008 	push	{r3, lr}
    8af0:	eb000508 	bl	9f18 <uart_init>
    8af4:	eb00055c 	bl	a06c <int_init>
    8af8:	e3a00015 	mov	r0, #21
    8afc:	eb000203 	bl	9310 <gpio_set_output>
    8b00:	e3a00014 	mov	r0, #20
    8b04:	eb000252 	bl	9454 <gpio_set_input>
    8b08:	e3a00014 	mov	r0, #20
    8b0c:	eb00030f 	bl	9750 <gpio_int_falling_edge>
    8b10:	eb000181 	bl	911c <enable_cache>
    8b14:	e3a03001 	mov	r3, #1
    8b18:	ee0f3f1c 	mcr	15, 0, r3, cr15, cr12, {0}
    8b1c:	e3a00015 	mov	r0, #21
    8b20:	e3a01014 	mov	r1, #20
    8b24:	e3a02a01 	mov	r2, #4096	; 0x1000
    8b28:	ebfffdef 	bl	82ec <client>
    8b2c:	eb000182 	bl	913c <clean_reboot>

00008b30 <printk>:
    8b30:	e92d000f 	push	{r0, r1, r2, r3}
    8b34:	e92d4030 	push	{r4, r5, lr}
    8b38:	e24dd00c 	sub	sp, sp, #12
    8b3c:	e28d301c 	add	r3, sp, #28
    8b40:	e58d3004 	str	r3, [sp, #4]
    8b44:	e59f4034 	ldr	r4, [pc, #52]	; 8b80 <printk+0x50>
    8b48:	e1a00004 	mov	r0, r4
    8b4c:	e3a01b01 	mov	r1, #1024	; 0x400
    8b50:	e59d2018 	ldr	r2, [sp, #24]
    8b54:	eb0000cb 	bl	8e88 <va_printk>
    8b58:	e1a05000 	mov	r5, r0
    8b5c:	e59f3020 	ldr	r3, [pc, #32]	; 8b84 <printk+0x54>
    8b60:	e5933000 	ldr	r3, [r3]
    8b64:	e1a00004 	mov	r0, r4
    8b68:	e12fff33 	blx	r3
    8b6c:	e1a00005 	mov	r0, r5
    8b70:	e28dd00c 	add	sp, sp, #12
    8b74:	e8bd4030 	pop	{r4, r5, lr}
    8b78:	e28dd010 	add	sp, sp, #16
    8b7c:	e12fff1e 	bx	lr
    8b80:	0000a904 	andeq	sl, r0, r4, lsl #18
    8b84:	0000a3ec 	andeq	sl, r0, ip, ror #7

00008b88 <internal_putchar>:
    8b88:	e92d4010 	push	{r4, lr}
    8b8c:	e1a04000 	mov	r4, r0
    8b90:	eb00051f 	bl	a014 <uart_putc>
    8b94:	e1a00004 	mov	r0, r4
    8b98:	e8bd8010 	pop	{r4, pc}

00008b9c <rpi_reset_putc>:
    8b9c:	e59f2008 	ldr	r2, [pc, #8]	; 8bac <rpi_reset_putc+0x10>
    8ba0:	e59f3008 	ldr	r3, [pc, #8]	; 8bb0 <rpi_reset_putc+0x14>
    8ba4:	e5832000 	str	r2, [r3]
    8ba8:	e12fff1e 	bx	lr
    8bac:	00008b88 	andeq	r8, r0, r8, lsl #23
    8bb0:	0000a3e8 	andeq	sl, r0, r8, ror #7

00008bb4 <rpi_set_putc>:
    8bb4:	e59f3004 	ldr	r3, [pc, #4]	; 8bc0 <rpi_set_putc+0xc>
    8bb8:	e5830000 	str	r0, [r3]
    8bbc:	e12fff1e 	bx	lr
    8bc0:	0000a3e8 	andeq	sl, r0, r8, ror #7

00008bc4 <internal_putk>:
    8bc4:	e92d4038 	push	{r3, r4, r5, lr}
    8bc8:	e1a04000 	mov	r4, r0
    8bcc:	e59f5020 	ldr	r5, [pc, #32]	; 8bf4 <internal_putk+0x30>
    8bd0:	ea000002 	b	8be0 <internal_putk+0x1c>
    8bd4:	e5953000 	ldr	r3, [r5]
    8bd8:	e12fff33 	blx	r3
    8bdc:	e2844001 	add	r4, r4, #1
    8be0:	e5d40000 	ldrb	r0, [r4]
    8be4:	e3500000 	cmp	r0, #0
    8be8:	1afffff9 	bne	8bd4 <internal_putk+0x10>
    8bec:	e3a00001 	mov	r0, #1
    8bf0:	e8bd8038 	pop	{r3, r4, r5, pc}
    8bf4:	0000a3e8 	andeq	sl, r0, r8, ror #7

00008bf8 <isdigit>:
    8bf8:	e2400030 	sub	r0, r0, #48	; 0x30
    8bfc:	e3500009 	cmp	r0, #9
    8c00:	83a00000 	movhi	r0, #0
    8c04:	93a00001 	movls	r0, #1
    8c08:	e12fff1e 	bx	lr

00008c0c <pad>:
    8c0c:	e0611000 	rsb	r1, r1, r0
    8c10:	e3a03020 	mov	r3, #32
    8c14:	ea000002 	b	8c24 <pad+0x18>
    8c18:	e5c03000 	strb	r3, [r0]
    8c1c:	e2811001 	add	r1, r1, #1
    8c20:	e2800001 	add	r0, r0, #1
    8c24:	e1510002 	cmp	r1, r2
    8c28:	bafffffa 	blt	8c18 <pad+0xc>
    8c2c:	e3a03000 	mov	r3, #0
    8c30:	e5c03000 	strb	r3, [r0]
    8c34:	e12fff1e 	bx	lr

00008c38 <reverse>:
    8c38:	e063c002 	rsb	ip, r3, r2
    8c3c:	e28cc001 	add	ip, ip, #1
    8c40:	e15c0001 	cmp	ip, r1
    8c44:	c061100c 	rsbgt	r1, r1, ip
    8c48:	c0833001 	addgt	r3, r3, r1
    8c4c:	e2422001 	sub	r2, r2, #1
    8c50:	e1a01000 	mov	r1, r0
    8c54:	ea000002 	b	8c64 <reverse+0x2c>
    8c58:	e452c001 	ldrb	ip, [r2], #-1
    8c5c:	e5c1c000 	strb	ip, [r1]
    8c60:	e2811001 	add	r1, r1, #1
    8c64:	e1520003 	cmp	r2, r3
    8c68:	2afffffa 	bcs	8c58 <reverse+0x20>
    8c6c:	e3a03000 	mov	r3, #0
    8c70:	e5c13000 	strb	r3, [r1]
    8c74:	e12fff1e 	bx	lr

00008c78 <emit>:
    8c78:	e92d41f0 	push	{r4, r5, r6, r7, r8, lr}
    8c7c:	e24dd048 	sub	sp, sp, #72	; 0x48
    8c80:	e1a05001 	mov	r5, r1
    8c84:	e1a04002 	mov	r4, r2
    8c88:	e59d2060 	ldr	r2, [sp, #96]	; 0x60
    8c8c:	e1520004 	cmp	r2, r4
    8c90:	c2442001 	subgt	r2, r4, #1
    8c94:	e1a0c003 	mov	ip, r3
    8c98:	e2400002 	sub	r0, r0, #2
    8c9c:	e350000e 	cmp	r0, #14
    8ca0:	979ff100 	ldrls	pc, [pc, r0, lsl #2]
    8ca4:	ea000042 	b	8db4 <emit+0x13c>
    8ca8:	00008d8c 	andeq	r8, r0, ip, lsl #27
    8cac:	00008db4 			; <UNDEFINED> instruction: 0x00008db4
    8cb0:	00008db4 			; <UNDEFINED> instruction: 0x00008db4
    8cb4:	00008db4 			; <UNDEFINED> instruction: 0x00008db4
    8cb8:	00008db4 			; <UNDEFINED> instruction: 0x00008db4
    8cbc:	00008db4 			; <UNDEFINED> instruction: 0x00008db4
    8cc0:	00008d80 	andeq	r8, r0, r0, lsl #27
    8cc4:	00008db4 			; <UNDEFINED> instruction: 0x00008db4
    8cc8:	00008ce4 	andeq	r8, r0, r4, ror #25
    8ccc:	00008db4 			; <UNDEFINED> instruction: 0x00008db4
    8cd0:	00008db4 			; <UNDEFINED> instruction: 0x00008db4
    8cd4:	00008db4 			; <UNDEFINED> instruction: 0x00008db4
    8cd8:	00008db4 			; <UNDEFINED> instruction: 0x00008db4
    8cdc:	00008db4 			; <UNDEFINED> instruction: 0x00008db4
    8ce0:	00008d58 	andeq	r8, r0, r8, asr sp
    8ce4:	e59d1064 	ldr	r1, [sp, #100]	; 0x64
    8ce8:	e2911000 	adds	r1, r1, #0
    8cec:	13a01001 	movne	r1, #1
    8cf0:	e0111fa3 	ands	r1, r1, r3, lsr #31
    8cf4:	1263c000 	rsbne	ip, r3, #0
    8cf8:	13a08001 	movne	r8, #1
    8cfc:	03a08000 	moveq	r8, #0
    8d00:	e28d1008 	add	r1, sp, #8
    8d04:	e59f70f4 	ldr	r7, [pc, #244]	; 8e00 <emit+0x188>
    8d08:	e59f60f4 	ldr	r6, [pc, #244]	; 8e04 <emit+0x18c>
    8d0c:	ea000000 	b	8d14 <emit+0x9c>
    8d10:	e1a01003 	mov	r1, r3
    8d14:	e2813001 	add	r3, r1, #1
    8d18:	e08e0c97 	umull	r0, lr, r7, ip
    8d1c:	e1a0e1ae 	lsr	lr, lr, #3
    8d20:	e1a0000e 	mov	r0, lr
    8d24:	e08ee10e 	add	lr, lr, lr, lsl #2
    8d28:	e1a0e08e 	lsl	lr, lr, #1
    8d2c:	e06ee00c 	rsb	lr, lr, ip
    8d30:	e7d6c00e 	ldrb	ip, [r6, lr]
    8d34:	e5c1c000 	strb	ip, [r1]
    8d38:	e1a0c000 	mov	ip, r0
    8d3c:	e3500000 	cmp	r0, #0
    8d40:	1afffff2 	bne	8d10 <emit+0x98>
    8d44:	e3580000 	cmp	r8, #0
    8d48:	12813002 	addne	r3, r1, #2
    8d4c:	13a0002d 	movne	r0, #45	; 0x2d
    8d50:	15c10001 	strbne	r0, [r1, #1]
    8d54:	ea00001f 	b	8dd8 <emit+0x160>
    8d58:	e28de008 	add	lr, sp, #8
    8d5c:	e59f00a4 	ldr	r0, [pc, #164]	; 8e08 <emit+0x190>
    8d60:	e28e3001 	add	r3, lr, #1
    8d64:	e20c100f 	and	r1, ip, #15
    8d68:	e7d01001 	ldrb	r1, [r0, r1]
    8d6c:	e5ce1000 	strb	r1, [lr]
    8d70:	e1a0e003 	mov	lr, r3
    8d74:	e1b0c22c 	lsrs	ip, ip, #4
    8d78:	1afffff8 	bne	8d60 <emit+0xe8>
    8d7c:	ea000015 	b	8dd8 <emit+0x160>
    8d80:	e5cd3008 	strb	r3, [sp, #8]
    8d84:	e28d3009 	add	r3, sp, #9
    8d88:	ea000012 	b	8dd8 <emit+0x160>
    8d8c:	e28de008 	add	lr, sp, #8
    8d90:	e59f0074 	ldr	r0, [pc, #116]	; 8e0c <emit+0x194>
    8d94:	e28e3001 	add	r3, lr, #1
    8d98:	e20c1001 	and	r1, ip, #1
    8d9c:	e7d01001 	ldrb	r1, [r0, r1]
    8da0:	e5ce1000 	strb	r1, [lr]
    8da4:	e1a0e003 	mov	lr, r3
    8da8:	e1b0c0ac 	lsrs	ip, ip, #1
    8dac:	1afffff8 	bne	8d94 <emit+0x11c>
    8db0:	ea000008 	b	8dd8 <emit+0x160>
    8db4:	ebffff78 	bl	8b9c <rpi_reset_putc>
    8db8:	e59f3050 	ldr	r3, [pc, #80]	; 8e10 <emit+0x198>
    8dbc:	e58d3000 	str	r3, [sp]
    8dc0:	e59f004c 	ldr	r0, [pc, #76]	; 8e14 <emit+0x19c>
    8dc4:	e59f104c 	ldr	r1, [pc, #76]	; 8e18 <emit+0x1a0>
    8dc8:	e59f204c 	ldr	r2, [pc, #76]	; 8e1c <emit+0x1a4>
    8dcc:	e3a03075 	mov	r3, #117	; 0x75
    8dd0:	ebffff56 	bl	8b30 <printk>
    8dd4:	eb0000d8 	bl	913c <clean_reboot>
    8dd8:	e1a00003 	mov	r0, r3
    8ddc:	e28d1008 	add	r1, sp, #8
    8de0:	ebffff89 	bl	8c0c <pad>
    8de4:	e1a02000 	mov	r2, r0
    8de8:	e1a00005 	mov	r0, r5
    8dec:	e1a01004 	mov	r1, r4
    8df0:	e28d3008 	add	r3, sp, #8
    8df4:	ebffff8f 	bl	8c38 <reverse>
    8df8:	e28dd048 	add	sp, sp, #72	; 0x48
    8dfc:	e8bd81f0 	pop	{r4, r5, r6, r7, r8, pc}
    8e00:	cccccccd 	stclgt	12, cr12, [ip], {205}	; 0xcd
    8e04:	0000a538 	andeq	sl, r0, r8, lsr r5
    8e08:	0000a544 	andeq	sl, r0, r4, asr #10
    8e0c:	0000a558 	andeq	sl, r0, r8, asr r5
    8e10:	0000a534 	andeq	sl, r0, r4, lsr r5
    8e14:	0000a50c 	andeq	sl, r0, ip, lsl #10
    8e18:	0000a520 	andeq	sl, r0, r0, lsr #10
    8e1c:	0000a4e8 	andeq	sl, r0, r8, ror #9

00008e20 <rpi_set_output>:
    8e20:	e52de004 	push	{lr}		; (str lr, [sp, #-4]!)
    8e24:	e24dd00c 	sub	sp, sp, #12
    8e28:	e3500000 	cmp	r0, #0
    8e2c:	1a000008 	bne	8e54 <rpi_set_output+0x34>
    8e30:	ebffff59 	bl	8b9c <rpi_reset_putc>
    8e34:	e59f3034 	ldr	r3, [pc, #52]	; 8e70 <rpi_set_output+0x50>
    8e38:	e58d3000 	str	r3, [sp]
    8e3c:	e59f0030 	ldr	r0, [pc, #48]	; 8e74 <rpi_set_output+0x54>
    8e40:	e59f1030 	ldr	r1, [pc, #48]	; 8e78 <rpi_set_output+0x58>
    8e44:	e59f2030 	ldr	r2, [pc, #48]	; 8e7c <rpi_set_output+0x5c>
    8e48:	e3a03020 	mov	r3, #32
    8e4c:	ebffff37 	bl	8b30 <printk>
    8e50:	eb0000b9 	bl	913c <clean_reboot>
    8e54:	e59f3024 	ldr	r3, [pc, #36]	; 8e80 <rpi_set_output+0x60>
    8e58:	e5830000 	str	r0, [r3]
    8e5c:	e3510000 	cmp	r1, #0
    8e60:	159f301c 	ldrne	r3, [pc, #28]	; 8e84 <rpi_set_output+0x64>
    8e64:	15831000 	strne	r1, [r3]
    8e68:	e28dd00c 	add	sp, sp, #12
    8e6c:	e49df004 	pop	{pc}		; (ldr pc, [sp], #4)
    8e70:	0000a55c 	andeq	sl, r0, ip, asr r5
    8e74:	0000a50c 	andeq	sl, r0, ip, lsl #10
    8e78:	0000a520 	andeq	sl, r0, r0, lsr #10
    8e7c:	0000a4f0 	strdeq	sl, [r0], -r0
    8e80:	0000a3e8 	andeq	sl, r0, r8, ror #7
    8e84:	0000a3ec 	andeq	sl, r0, ip, ror #7

00008e88 <va_printk>:
    8e88:	e92d4ff0 	push	{r4, r5, r6, r7, r8, r9, sl, fp, lr}
    8e8c:	e24dd08c 	sub	sp, sp, #140	; 0x8c
    8e90:	e1a0a000 	mov	sl, r0
    8e94:	e1a09003 	mov	r9, r3
    8e98:	e2411001 	sub	r1, r1, #1
    8e9c:	e0808001 	add	r8, r0, r1
    8ea0:	e3a03000 	mov	r3, #0
    8ea4:	e5c03000 	strb	r3, [r0]
    8ea8:	e1a04000 	mov	r4, r0
    8eac:	e1a0b003 	mov	fp, r3
    8eb0:	ea000088 	b	90d8 <va_printk+0x250>
    8eb4:	e3530025 	cmp	r3, #37	; 0x25
    8eb8:	12822001 	addne	r2, r2, #1
    8ebc:	15c43000 	strbne	r3, [r4]
    8ec0:	12844001 	addne	r4, r4, #1
    8ec4:	1a000083 	bne	90d8 <va_printk+0x250>
    8ec8:	e5d21001 	ldrb	r1, [r2, #1]
    8ecc:	e3510025 	cmp	r1, #37	; 0x25
    8ed0:	05c43000 	strbeq	r3, [r4]
    8ed4:	02822002 	addeq	r2, r2, #2
    8ed8:	02844001 	addeq	r4, r4, #1
    8edc:	0a00007d 	beq	90d8 <va_printk+0x250>
    8ee0:	e2826001 	add	r6, r2, #1
    8ee4:	e1a0700b 	mov	r7, fp
    8ee8:	ea000004 	b	8f00 <va_printk+0x78>
    8eec:	e0877107 	add	r7, r7, r7, lsl #2
    8ef0:	e1a07087 	lsl	r7, r7, #1
    8ef4:	e0877005 	add	r7, r7, r5
    8ef8:	e2477030 	sub	r7, r7, #48	; 0x30
    8efc:	e2866001 	add	r6, r6, #1
    8f00:	e5d65000 	ldrb	r5, [r6]
    8f04:	e1a00005 	mov	r0, r5
    8f08:	ebffff3a 	bl	8bf8 <isdigit>
    8f0c:	e3500000 	cmp	r0, #0
    8f10:	1afffff5 	bne	8eec <va_printk+0x64>
    8f14:	e357001f 	cmp	r7, #31
    8f18:	9a000008 	bls	8f40 <va_printk+0xb8>
    8f1c:	ebffff1e 	bl	8b9c <rpi_reset_putc>
    8f20:	e59f31dc 	ldr	r3, [pc, #476]	; 9104 <va_printk+0x27c>
    8f24:	e58d3000 	str	r3, [sp]
    8f28:	e59f01d8 	ldr	r0, [pc, #472]	; 9108 <va_printk+0x280>
    8f2c:	e59f11d8 	ldr	r1, [pc, #472]	; 910c <va_printk+0x284>
    8f30:	e59f21d8 	ldr	r2, [pc, #472]	; 9110 <va_printk+0x288>
    8f34:	e3a03092 	mov	r3, #146	; 0x92
    8f38:	ebfffefc 	bl	8b30 <printk>
    8f3c:	eb00007e 	bl	913c <clean_reboot>
    8f40:	e2455062 	sub	r5, r5, #98	; 0x62
    8f44:	e3550016 	cmp	r5, #22
    8f48:	979ff105 	ldrls	pc, [pc, r5, lsl #2]
    8f4c:	ea00004e 	b	908c <va_printk+0x204>
    8f50:	00009038 	andeq	r9, r0, r8, lsr r0
    8f54:	00009068 	andeq	r9, r0, r8, rrx
    8f58:	00008fc8 	andeq	r8, r0, r8, asr #31
    8f5c:	0000908c 	andeq	r9, r0, ip, lsl #1
    8f60:	00008fac 	andeq	r8, r0, ip, lsr #31
    8f64:	0000908c 	andeq	r9, r0, ip, lsl #1
    8f68:	0000908c 	andeq	r9, r0, ip, lsl #1
    8f6c:	0000908c 	andeq	r9, r0, ip, lsl #1
    8f70:	0000908c 	andeq	r9, r0, ip, lsl #1
    8f74:	0000908c 	andeq	r9, r0, ip, lsl #1
    8f78:	0000908c 	andeq	r9, r0, ip, lsl #1
    8f7c:	0000908c 	andeq	r9, r0, ip, lsl #1
    8f80:	0000908c 	andeq	r9, r0, ip, lsl #1
    8f84:	0000908c 	andeq	r9, r0, ip, lsl #1
    8f88:	00009014 	andeq	r9, r0, r4, lsl r0
    8f8c:	0000908c 	andeq	r9, r0, ip, lsl #1
    8f90:	0000908c 	andeq	r9, r0, ip, lsl #1
    8f94:	0000905c 	andeq	r9, r0, ip, asr r0
    8f98:	0000908c 	andeq	r9, r0, ip, lsl #1
    8f9c:	00008ff0 	strdeq	r8, [r0], -r0
    8fa0:	0000908c 	andeq	r9, r0, ip, lsl #1
    8fa4:	0000908c 	andeq	r9, r0, ip, lsl #1
    8fa8:	00009014 	andeq	r9, r0, r4, lsl r0
    8fac:	ebfffefa 	bl	8b9c <rpi_reset_putc>
    8fb0:	e59f015c 	ldr	r0, [pc, #348]	; 9114 <va_printk+0x28c>
    8fb4:	e59f1150 	ldr	r1, [pc, #336]	; 910c <va_printk+0x284>
    8fb8:	e59f2150 	ldr	r2, [pc, #336]	; 9110 <va_printk+0x288>
    8fbc:	e3a03098 	mov	r3, #152	; 0x98
    8fc0:	ebfffeda 	bl	8b30 <printk>
    8fc4:	eb00005c 	bl	913c <clean_reboot>
    8fc8:	e5993000 	ldr	r3, [r9]
    8fcc:	e2899004 	add	r9, r9, #4
    8fd0:	e58d7000 	str	r7, [sp]
    8fd4:	e3a02001 	mov	r2, #1
    8fd8:	e58d2004 	str	r2, [sp, #4]
    8fdc:	e3a0000a 	mov	r0, #10
    8fe0:	e28d1008 	add	r1, sp, #8
    8fe4:	e3a02080 	mov	r2, #128	; 0x80
    8fe8:	ebffff22 	bl	8c78 <emit>
    8fec:	ea00002f 	b	90b0 <va_printk+0x228>
    8ff0:	e5993000 	ldr	r3, [r9]
    8ff4:	e2899004 	add	r9, r9, #4
    8ff8:	e58d7000 	str	r7, [sp]
    8ffc:	e58db004 	str	fp, [sp, #4]
    9000:	e3a0000a 	mov	r0, #10
    9004:	e28d1008 	add	r1, sp, #8
    9008:	e3a02080 	mov	r2, #128	; 0x80
    900c:	ebffff19 	bl	8c78 <emit>
    9010:	ea000026 	b	90b0 <va_printk+0x228>
    9014:	e5993000 	ldr	r3, [r9]
    9018:	e2899004 	add	r9, r9, #4
    901c:	e58d7000 	str	r7, [sp]
    9020:	e58db004 	str	fp, [sp, #4]
    9024:	e3a00010 	mov	r0, #16
    9028:	e28d1008 	add	r1, sp, #8
    902c:	e3a02080 	mov	r2, #128	; 0x80
    9030:	ebffff10 	bl	8c78 <emit>
    9034:	ea00001d 	b	90b0 <va_printk+0x228>
    9038:	e5993000 	ldr	r3, [r9]
    903c:	e2899004 	add	r9, r9, #4
    9040:	e58d7000 	str	r7, [sp]
    9044:	e58db004 	str	fp, [sp, #4]
    9048:	e3a00002 	mov	r0, #2
    904c:	e28d1008 	add	r1, sp, #8
    9050:	e3a02080 	mov	r2, #128	; 0x80
    9054:	ebffff07 	bl	8c78 <emit>
    9058:	ea000014 	b	90b0 <va_printk+0x228>
    905c:	e5990000 	ldr	r0, [r9]
    9060:	e2899004 	add	r9, r9, #4
    9064:	ea000011 	b	90b0 <va_printk+0x228>
    9068:	e5993000 	ldr	r3, [r9]
    906c:	e2899004 	add	r9, r9, #4
    9070:	e58d7000 	str	r7, [sp]
    9074:	e58db004 	str	fp, [sp, #4]
    9078:	e3a00008 	mov	r0, #8
    907c:	e08d1000 	add	r1, sp, r0
    9080:	e3a02080 	mov	r2, #128	; 0x80
    9084:	ebfffefb 	bl	8c78 <emit>
    9088:	ea000008 	b	90b0 <va_printk+0x228>
    908c:	ebfffec2 	bl	8b9c <rpi_reset_putc>
    9090:	e5d63000 	ldrb	r3, [r6]
    9094:	e58d3000 	str	r3, [sp]
    9098:	e59f0078 	ldr	r0, [pc, #120]	; 9118 <va_printk+0x290>
    909c:	e59f1068 	ldr	r1, [pc, #104]	; 910c <va_printk+0x284>
    90a0:	e59f2068 	ldr	r2, [pc, #104]	; 9110 <va_printk+0x288>
    90a4:	e3a030b9 	mov	r3, #185	; 0xb9
    90a8:	ebfffea0 	bl	8b30 <printk>
    90ac:	eb000022 	bl	913c <clean_reboot>
    90b0:	e2862001 	add	r2, r6, #1
    90b4:	ea000002 	b	90c4 <va_printk+0x23c>
    90b8:	e2800001 	add	r0, r0, #1
    90bc:	e5c43000 	strb	r3, [r4]
    90c0:	e2844001 	add	r4, r4, #1
    90c4:	e1540008 	cmp	r4, r8
    90c8:	2a000002 	bcs	90d8 <va_printk+0x250>
    90cc:	e5d03000 	ldrb	r3, [r0]
    90d0:	e3530000 	cmp	r3, #0
    90d4:	1afffff7 	bne	90b8 <va_printk+0x230>
    90d8:	e5d23000 	ldrb	r3, [r2]
    90dc:	e3530000 	cmp	r3, #0
    90e0:	0a000001 	beq	90ec <va_printk+0x264>
    90e4:	e1540008 	cmp	r4, r8
    90e8:	3affff71 	bcc	8eb4 <va_printk+0x2c>
    90ec:	e2840001 	add	r0, r4, #1
    90f0:	e3a03000 	mov	r3, #0
    90f4:	e5c43000 	strb	r3, [r4]
    90f8:	e06a0000 	rsb	r0, sl, r0
    90fc:	e28dd08c 	add	sp, sp, #140	; 0x8c
    9100:	e8bd8ff0 	pop	{r4, r5, r6, r7, r8, r9, sl, fp, pc}
    9104:	0000a564 	andeq	sl, r0, r4, ror #10
    9108:	0000a50c 	andeq	sl, r0, ip, lsl #10
    910c:	0000a520 	andeq	sl, r0, r0, lsr #10
    9110:	0000a500 	andeq	sl, r0, r0, lsl #10
    9114:	0000a570 	andeq	sl, r0, r0, ror r5
    9118:	0000a598 	muleq	r0, r8, r5

0000911c <enable_cache>:
    911c:	ee113f10 	mrc	15, 0, r3, cr1, cr0, {0}
    9120:	e3833b06 	orr	r3, r3, #6144	; 0x1800
    9124:	ee013f10 	mcr	15, 0, r3, cr1, cr0, {0}
    9128:	e12fff1e 	bx	lr

0000912c <disable_cache>:
    912c:	ee113f10 	mrc	15, 0, r3, cr1, cr0, {0}
    9130:	e3c33b06 	bic	r3, r3, #6144	; 0x1800
    9134:	ee013f10 	mcr	15, 0, r3, cr1, cr0, {0}
    9138:	e12fff1e 	bx	lr

0000913c <clean_reboot>:
    913c:	e92d4008 	push	{r3, lr}
    9140:	e59f3014 	ldr	r3, [pc, #20]	; 915c <clean_reboot+0x20>
    9144:	e5933000 	ldr	r3, [r3]
    9148:	e59f0010 	ldr	r0, [pc, #16]	; 9160 <clean_reboot+0x24>
    914c:	e12fff33 	blx	r3
    9150:	e3a00064 	mov	r0, #100	; 0x64
    9154:	eb000063 	bl	92e8 <delay_ms>
    9158:	eb000038 	bl	9240 <rpi_reboot>
    915c:	0000a3ec 	andeq	sl, r0, ip, ror #7
    9160:	0000a5d0 	ldrdeq	sl, [r0], -r0

00009164 <internal_sw_putchar>:
    9164:	e92d4010 	push	{r4, lr}
    9168:	e1a04000 	mov	r4, r0
    916c:	e59f000c 	ldr	r0, [pc, #12]	; 9180 <internal_sw_putchar+0x1c>
    9170:	e6ef1074 	uxtb	r1, r4
    9174:	eb0001cd 	bl	98b0 <sw_uart_putc>
    9178:	e1a00004 	mov	r0, r4
    917c:	e8bd8010 	pop	{r4, pc}
    9180:	0000ad04 	andeq	sl, r0, r4, lsl #26

00009184 <_cstart>:
    9184:	e92d4008 	push	{r3, lr}
    9188:	e59f3068 	ldr	r3, [pc, #104]	; 91f8 <_cstart+0x74>
    918c:	e59f2068 	ldr	r2, [pc, #104]	; 91fc <_cstart+0x78>
    9190:	e3a01000 	mov	r1, #0
    9194:	ea000001 	b	91a0 <_cstart+0x1c>
    9198:	e5831000 	str	r1, [r3]
    919c:	e2833004 	add	r3, r3, #4
    91a0:	e1530002 	cmp	r3, r2
    91a4:	3afffffb 	bcc	9198 <_cstart+0x14>
    91a8:	eb000438 	bl	a290 <cb_get_block>
    91ac:	e3500000 	cmp	r0, #0
    91b0:	0a00000e 	beq	91f0 <_cstart+0x6c>
    91b4:	e5d02004 	ldrb	r2, [r0, #4]
    91b8:	e3520002 	cmp	r2, #2
    91bc:	1a00000b 	bne	91f0 <_cstart+0x6c>
    91c0:	e59f1038 	ldr	r1, [pc, #56]	; 9200 <_cstart+0x7c>
    91c4:	e59f2038 	ldr	r2, [pc, #56]	; 9204 <_cstart+0x80>
    91c8:	e5821000 	str	r1, [r2]
    91cc:	e59fc034 	ldr	ip, [pc, #52]	; 9208 <_cstart+0x84>
    91d0:	e2803008 	add	r3, r0, #8
    91d4:	e8930007 	ldm	r3, {r0, r1, r2}
    91d8:	e88c0007 	stm	ip, {r0, r1, r2}
    91dc:	e1a0000c 	mov	r0, ip
    91e0:	e59f1024 	ldr	r1, [pc, #36]	; 920c <_cstart+0x88>
    91e4:	eb000314 	bl	9e3c <sw_uart_printk>
    91e8:	e59f0020 	ldr	r0, [pc, #32]	; 9210 <_cstart+0x8c>
    91ec:	ebfffe4f 	bl	8b30 <printk>
    91f0:	ebfffe3d 	bl	8aec <notmain>
    91f4:	eb000011 	bl	9240 <rpi_reboot>
    91f8:	0000a8ec 	andeq	sl, r0, ip, ror #17
    91fc:	0000ad18 	andeq	sl, r0, r8, lsl sp
    9200:	00009164 	andeq	r9, r0, r4, ror #2
    9204:	0000a3e8 	andeq	sl, r0, r8, ror #7
    9208:	0000ad04 	andeq	sl, r0, r4, lsl #26
    920c:	0000a5dc 	ldrdeq	sl, [r0], -ip
    9210:	0000a600 	andeq	sl, r0, r0, lsl #12

00009214 <at_user_level>:
    9214:	e10f0000 	mrs	r0, CPSR
    9218:	e200001f 	and	r0, r0, #31
    921c:	e3500010 	cmp	r0, #16
    9220:	13a00000 	movne	r0, #0
    9224:	03a00001 	moveq	r0, #1
    9228:	e12fff1e 	bx	lr

0000922c <set_user_level>:
    922c:	e10f3000 	mrs	r3, CPSR
    9230:	e3c3301f 	bic	r3, r3, #31
    9234:	e3833010 	orr	r3, r3, #16
    9238:	e129f003 	msr	CPSR_fc, r3
    923c:	e12fff1e 	bx	lr

00009240 <rpi_reboot>:
    9240:	e92d4008 	push	{r3, lr}
    9244:	ebfffff2 	bl	9214 <at_user_level>
    9248:	e3500000 	cmp	r0, #0
    924c:	0a000000 	beq	9254 <rpi_reboot+0x14>
    9250:	ebfffff5 	bl	922c <set_user_level>
    9254:	e3a0001e 	mov	r0, #30
    9258:	eb000022 	bl	92e8 <delay_ms>
    925c:	e59f0014 	ldr	r0, [pc, #20]	; 9278 <rpi_reboot+0x38>
    9260:	e59f1014 	ldr	r1, [pc, #20]	; 927c <rpi_reboot+0x3c>
    9264:	eb0003b3 	bl	a138 <PUT32>
    9268:	e59f0010 	ldr	r0, [pc, #16]	; 9280 <rpi_reboot+0x40>
    926c:	e59f1010 	ldr	r1, [pc, #16]	; 9284 <rpi_reboot+0x44>
    9270:	eb0003b0 	bl	a138 <PUT32>
    9274:	eafffffe 	b	9274 <rpi_reboot+0x34>
    9278:	20100024 	andscs	r0, r0, r4, lsr #32
    927c:	5a000001 	bpl	9288 <delay_cycles>
    9280:	2010001c 	andscs	r0, r0, ip, lsl r0
    9284:	5a000020 	bpl	930c <delay_sec+0x10>

00009288 <delay_cycles>:
    9288:	ea000001 	b	9294 <delay_cycles+0xc>
    928c:	e2811000 	add	r1, r1, #0
    9290:	e1a00003 	mov	r0, r3
    9294:	e2403001 	sub	r3, r0, #1
    9298:	e3500000 	cmp	r0, #0
    929c:	1afffffa 	bne	928c <delay_cycles+0x4>
    92a0:	e12fff1e 	bx	lr

000092a4 <timer_get_usec_raw>:
    92a4:	e92d4008 	push	{r3, lr}
    92a8:	e59f0004 	ldr	r0, [pc, #4]	; 92b4 <timer_get_usec_raw+0x10>
    92ac:	eb0003ad 	bl	a168 <GET32>
    92b0:	e8bd8008 	pop	{r3, pc}
    92b4:	20003004 	andcs	r3, r0, r4

000092b8 <timer_get_usec>:
    92b8:	e92d4008 	push	{r3, lr}
    92bc:	ebfffff8 	bl	92a4 <timer_get_usec_raw>
    92c0:	e8bd8008 	pop	{r3, pc}

000092c4 <delay_us>:
    92c4:	e92d4038 	push	{r3, r4, r5, lr}
    92c8:	e1a05000 	mov	r5, r0
    92cc:	ebfffff9 	bl	92b8 <timer_get_usec>
    92d0:	e1a04000 	mov	r4, r0
    92d4:	ebfffff7 	bl	92b8 <timer_get_usec>
    92d8:	e0640000 	rsb	r0, r4, r0
    92dc:	e1500005 	cmp	r0, r5
    92e0:	3afffffb 	bcc	92d4 <delay_us+0x10>
    92e4:	e8bd8038 	pop	{r3, r4, r5, pc}

000092e8 <delay_ms>:
    92e8:	e92d4008 	push	{r3, lr}
    92ec:	e3a03ffa 	mov	r3, #1000	; 0x3e8
    92f0:	e0000093 	mul	r0, r3, r0
    92f4:	ebfffff2 	bl	92c4 <delay_us>
    92f8:	e8bd8008 	pop	{r3, pc}

000092fc <delay_sec>:
    92fc:	e92d4008 	push	{r3, lr}
    9300:	e3a03ffa 	mov	r3, #1000	; 0x3e8
    9304:	e0000093 	mul	r0, r3, r0
    9308:	ebfffff6 	bl	92e8 <delay_ms>
    930c:	e8bd8008 	pop	{r3, pc}

00009310 <gpio_set_output>:
    9310:	e92d4038 	push	{r3, r4, r5, lr}
    9314:	e1a04000 	mov	r4, r0
    9318:	e350001f 	cmp	r0, #31
    931c:	88bd8038 	pophi	{r3, r4, r5, pc}
    9320:	e59f30b4 	ldr	r3, [pc, #180]	; 93dc <gpio_set_output+0xcc>
    9324:	e0832093 	umull	r2, r3, r3, r0
    9328:	e1a031a3 	lsr	r3, r3, #3
    932c:	e3530005 	cmp	r3, #5
    9330:	979ff103 	ldrls	pc, [pc, r3, lsl #2]
    9334:	ea000017 	b	9398 <gpio_set_output+0x88>
    9338:	00009350 	andeq	r9, r0, r0, asr r3
    933c:	0000935c 	andeq	r9, r0, ip, asr r3
    9340:	00009368 	andeq	r9, r0, r8, ror #6
    9344:	00009374 	andeq	r9, r0, r4, ror r3
    9348:	00009380 	andeq	r9, r0, r0, lsl #7
    934c:	0000938c 	andeq	r9, r0, ip, lsl #7
    9350:	e59f3088 	ldr	r3, [pc, #136]	; 93e0 <gpio_set_output+0xd0>
    9354:	e5935000 	ldr	r5, [r3]
    9358:	ea00000f 	b	939c <gpio_set_output+0x8c>
    935c:	e59f307c 	ldr	r3, [pc, #124]	; 93e0 <gpio_set_output+0xd0>
    9360:	e5935004 	ldr	r5, [r3, #4]
    9364:	ea00000c 	b	939c <gpio_set_output+0x8c>
    9368:	e59f3070 	ldr	r3, [pc, #112]	; 93e0 <gpio_set_output+0xd0>
    936c:	e5935008 	ldr	r5, [r3, #8]
    9370:	ea000009 	b	939c <gpio_set_output+0x8c>
    9374:	e59f3064 	ldr	r3, [pc, #100]	; 93e0 <gpio_set_output+0xd0>
    9378:	e593500c 	ldr	r5, [r3, #12]
    937c:	ea000006 	b	939c <gpio_set_output+0x8c>
    9380:	e59f3058 	ldr	r3, [pc, #88]	; 93e0 <gpio_set_output+0xd0>
    9384:	e5935010 	ldr	r5, [r3, #16]
    9388:	ea000003 	b	939c <gpio_set_output+0x8c>
    938c:	e59f304c 	ldr	r3, [pc, #76]	; 93e0 <gpio_set_output+0xd0>
    9390:	e5935014 	ldr	r5, [r3, #20]
    9394:	ea000000 	b	939c <gpio_set_output+0x8c>
    9398:	e3a05000 	mov	r5, #0
    939c:	e1a00005 	mov	r0, r5
    93a0:	eb00036e 	bl	a160 <get32>
    93a4:	e59f1030 	ldr	r1, [pc, #48]	; 93dc <gpio_set_output+0xcc>
    93a8:	e0813491 	umull	r3, r1, r1, r4
    93ac:	e1a011a1 	lsr	r1, r1, #3
    93b0:	e0811101 	add	r1, r1, r1, lsl #2
    93b4:	e1a01081 	lsl	r1, r1, #1
    93b8:	e0611004 	rsb	r1, r1, r4
    93bc:	e0811081 	add	r1, r1, r1, lsl #1
    93c0:	e3a03007 	mov	r3, #7
    93c4:	e1c03113 	bic	r3, r0, r3, lsl r1
    93c8:	e1a00005 	mov	r0, r5
    93cc:	e3a02001 	mov	r2, #1
    93d0:	e1831112 	orr	r1, r3, r2, lsl r1
    93d4:	eb000355 	bl	a130 <put32>
    93d8:	e8bd8038 	pop	{r3, r4, r5, pc}
    93dc:	cccccccd 	stclgt	12, cr12, [ip], {205}	; 0xcd
    93e0:	0000a3f0 	strdeq	sl, [r0], -r0

000093e4 <gpio_set_on>:
    93e4:	e92d4008 	push	{r3, lr}
    93e8:	e350001f 	cmp	r0, #31
    93ec:	88bd8008 	pophi	{r3, pc}
    93f0:	959f3020 	ldrls	r3, [pc, #32]	; 9418 <gpio_set_on+0x34>
    93f4:	95932018 	ldrls	r2, [r3, #24]
    93f8:	859f3018 	ldrhi	r3, [pc, #24]	; 9418 <gpio_set_on+0x34>
    93fc:	8593201c 	ldrhi	r2, [r3, #28]
    9400:	e200301f 	and	r3, r0, #31
    9404:	e1a00002 	mov	r0, r2
    9408:	e3a01001 	mov	r1, #1
    940c:	e1a01311 	lsl	r1, r1, r3
    9410:	eb000346 	bl	a130 <put32>
    9414:	e8bd8008 	pop	{r3, pc}
    9418:	0000a3f0 	strdeq	sl, [r0], -r0

0000941c <gpio_set_off>:
    941c:	e92d4008 	push	{r3, lr}
    9420:	e350001f 	cmp	r0, #31
    9424:	88bd8008 	pophi	{r3, pc}
    9428:	959f3020 	ldrls	r3, [pc, #32]	; 9450 <gpio_set_off+0x34>
    942c:	95932020 	ldrls	r2, [r3, #32]
    9430:	859f3018 	ldrhi	r3, [pc, #24]	; 9450 <gpio_set_off+0x34>
    9434:	85932024 	ldrhi	r2, [r3, #36]	; 0x24
    9438:	e200301f 	and	r3, r0, #31
    943c:	e1a00002 	mov	r0, r2
    9440:	e3a01001 	mov	r1, #1
    9444:	e1a01311 	lsl	r1, r1, r3
    9448:	eb000338 	bl	a130 <put32>
    944c:	e8bd8008 	pop	{r3, pc}
    9450:	0000a3f0 	strdeq	sl, [r0], -r0

00009454 <gpio_set_input>:
    9454:	e92d4038 	push	{r3, r4, r5, lr}
    9458:	e1a04000 	mov	r4, r0
    945c:	e350001f 	cmp	r0, #31
    9460:	88bd8038 	pophi	{r3, r4, r5, pc}
    9464:	e59f30ac 	ldr	r3, [pc, #172]	; 9518 <gpio_set_input+0xc4>
    9468:	e0832093 	umull	r2, r3, r3, r0
    946c:	e1a031a3 	lsr	r3, r3, #3
    9470:	e3530005 	cmp	r3, #5
    9474:	979ff103 	ldrls	pc, [pc, r3, lsl #2]
    9478:	ea000017 	b	94dc <gpio_set_input+0x88>
    947c:	00009494 	muleq	r0, r4, r4
    9480:	000094a0 	andeq	r9, r0, r0, lsr #9
    9484:	000094ac 	andeq	r9, r0, ip, lsr #9
    9488:	000094b8 			; <UNDEFINED> instruction: 0x000094b8
    948c:	000094c4 	andeq	r9, r0, r4, asr #9
    9490:	000094d0 	ldrdeq	r9, [r0], -r0
    9494:	e59f3080 	ldr	r3, [pc, #128]	; 951c <gpio_set_input+0xc8>
    9498:	e5935000 	ldr	r5, [r3]
    949c:	ea00000f 	b	94e0 <gpio_set_input+0x8c>
    94a0:	e59f3074 	ldr	r3, [pc, #116]	; 951c <gpio_set_input+0xc8>
    94a4:	e5935004 	ldr	r5, [r3, #4]
    94a8:	ea00000c 	b	94e0 <gpio_set_input+0x8c>
    94ac:	e59f3068 	ldr	r3, [pc, #104]	; 951c <gpio_set_input+0xc8>
    94b0:	e5935008 	ldr	r5, [r3, #8]
    94b4:	ea000009 	b	94e0 <gpio_set_input+0x8c>
    94b8:	e59f305c 	ldr	r3, [pc, #92]	; 951c <gpio_set_input+0xc8>
    94bc:	e593500c 	ldr	r5, [r3, #12]
    94c0:	ea000006 	b	94e0 <gpio_set_input+0x8c>
    94c4:	e59f3050 	ldr	r3, [pc, #80]	; 951c <gpio_set_input+0xc8>
    94c8:	e5935010 	ldr	r5, [r3, #16]
    94cc:	ea000003 	b	94e0 <gpio_set_input+0x8c>
    94d0:	e59f3044 	ldr	r3, [pc, #68]	; 951c <gpio_set_input+0xc8>
    94d4:	e5935014 	ldr	r5, [r3, #20]
    94d8:	ea000000 	b	94e0 <gpio_set_input+0x8c>
    94dc:	e3a05000 	mov	r5, #0
    94e0:	e1a00005 	mov	r0, r5
    94e4:	eb00031d 	bl	a160 <get32>
    94e8:	e59f1028 	ldr	r1, [pc, #40]	; 9518 <gpio_set_input+0xc4>
    94ec:	e0813491 	umull	r3, r1, r1, r4
    94f0:	e1a011a1 	lsr	r1, r1, #3
    94f4:	e0811101 	add	r1, r1, r1, lsl #2
    94f8:	e1a01081 	lsl	r1, r1, #1
    94fc:	e0611004 	rsb	r1, r1, r4
    9500:	e0811081 	add	r1, r1, r1, lsl #1
    9504:	e3a03007 	mov	r3, #7
    9508:	e1c01113 	bic	r1, r0, r3, lsl r1
    950c:	e1a00005 	mov	r0, r5
    9510:	eb000306 	bl	a130 <put32>
    9514:	e8bd8038 	pop	{r3, r4, r5, pc}
    9518:	cccccccd 	stclgt	12, cr12, [ip], {205}	; 0xcd
    951c:	0000a3f0 	strdeq	sl, [r0], -r0

00009520 <gpio_read>:
    9520:	e92d4010 	push	{r4, lr}
    9524:	e1a04000 	mov	r4, r0
    9528:	e350001f 	cmp	r0, #31
    952c:	8a00000b 	bhi	9560 <gpio_read+0x40>
    9530:	8a000003 	bhi	9544 <gpio_read+0x24>
    9534:	e59f302c 	ldr	r3, [pc, #44]	; 9568 <gpio_read+0x48>
    9538:	e5930028 	ldr	r0, [r3, #40]	; 0x28
    953c:	eb000307 	bl	a160 <get32>
    9540:	ea000002 	b	9550 <gpio_read+0x30>
    9544:	e59f301c 	ldr	r3, [pc, #28]	; 9568 <gpio_read+0x48>
    9548:	e593002c 	ldr	r0, [r3, #44]	; 0x2c
    954c:	eb000303 	bl	a160 <get32>
    9550:	e204401f 	and	r4, r4, #31
    9554:	e3a03001 	mov	r3, #1
    9558:	e0000413 	and	r0, r0, r3, lsl r4
    955c:	e8bd8010 	pop	{r4, pc}
    9560:	e3e00000 	mvn	r0, #0
    9564:	e8bd8010 	pop	{r4, pc}
    9568:	0000a3f0 	strdeq	sl, [r0], -r0

0000956c <gpio_write>:
    956c:	e92d4008 	push	{r3, lr}
    9570:	e350001f 	cmp	r0, #31
    9574:	88bd8008 	pophi	{r3, pc}
    9578:	e3510000 	cmp	r1, #0
    957c:	0a000001 	beq	9588 <gpio_write+0x1c>
    9580:	ebffff97 	bl	93e4 <gpio_set_on>
    9584:	e8bd8008 	pop	{r3, pc}
    9588:	ebffffa3 	bl	941c <gpio_set_off>
    958c:	e8bd8008 	pop	{r3, pc}

00009590 <gpio_set_function>:
    9590:	e92d4070 	push	{r4, r5, r6, lr}
    9594:	e1a04000 	mov	r4, r0
    9598:	e1a05001 	mov	r5, r1
    959c:	e3510007 	cmp	r1, #7
    95a0:	9350001f 	cmpls	r0, #31
    95a4:	88bd8070 	pophi	{r4, r5, r6, pc}
    95a8:	e59f30b0 	ldr	r3, [pc, #176]	; 9660 <gpio_set_function+0xd0>
    95ac:	e0832093 	umull	r2, r3, r3, r0
    95b0:	e1a031a3 	lsr	r3, r3, #3
    95b4:	e3530005 	cmp	r3, #5
    95b8:	979ff103 	ldrls	pc, [pc, r3, lsl #2]
    95bc:	ea000017 	b	9620 <gpio_set_function+0x90>
    95c0:	000095d8 	ldrdeq	r9, [r0], -r8
    95c4:	000095e4 	andeq	r9, r0, r4, ror #11
    95c8:	000095f0 	strdeq	r9, [r0], -r0
    95cc:	000095fc 	strdeq	r9, [r0], -ip
    95d0:	00009608 	andeq	r9, r0, r8, lsl #12
    95d4:	00009614 	andeq	r9, r0, r4, lsl r6
    95d8:	e59f3084 	ldr	r3, [pc, #132]	; 9664 <gpio_set_function+0xd4>
    95dc:	e5936000 	ldr	r6, [r3]
    95e0:	ea00000f 	b	9624 <gpio_set_function+0x94>
    95e4:	e59f3078 	ldr	r3, [pc, #120]	; 9664 <gpio_set_function+0xd4>
    95e8:	e5936004 	ldr	r6, [r3, #4]
    95ec:	ea00000c 	b	9624 <gpio_set_function+0x94>
    95f0:	e59f306c 	ldr	r3, [pc, #108]	; 9664 <gpio_set_function+0xd4>
    95f4:	e5936008 	ldr	r6, [r3, #8]
    95f8:	ea000009 	b	9624 <gpio_set_function+0x94>
    95fc:	e59f3060 	ldr	r3, [pc, #96]	; 9664 <gpio_set_function+0xd4>
    9600:	e593600c 	ldr	r6, [r3, #12]
    9604:	ea000006 	b	9624 <gpio_set_function+0x94>
    9608:	e59f3054 	ldr	r3, [pc, #84]	; 9664 <gpio_set_function+0xd4>
    960c:	e5936010 	ldr	r6, [r3, #16]
    9610:	ea000003 	b	9624 <gpio_set_function+0x94>
    9614:	e59f3048 	ldr	r3, [pc, #72]	; 9664 <gpio_set_function+0xd4>
    9618:	e5936014 	ldr	r6, [r3, #20]
    961c:	ea000000 	b	9624 <gpio_set_function+0x94>
    9620:	e3a06000 	mov	r6, #0
    9624:	e1a00006 	mov	r0, r6
    9628:	eb0002cc 	bl	a160 <get32>
    962c:	e59f302c 	ldr	r3, [pc, #44]	; 9660 <gpio_set_function+0xd0>
    9630:	e0832493 	umull	r2, r3, r3, r4
    9634:	e1a031a3 	lsr	r3, r3, #3
    9638:	e0833103 	add	r3, r3, r3, lsl #2
    963c:	e1a03083 	lsl	r3, r3, #1
    9640:	e0633004 	rsb	r3, r3, r4
    9644:	e0833083 	add	r3, r3, r3, lsl #1
    9648:	e3a01007 	mov	r1, #7
    964c:	e1c01311 	bic	r1, r0, r1, lsl r3
    9650:	e1a00006 	mov	r0, r6
    9654:	e1811315 	orr	r1, r1, r5, lsl r3
    9658:	eb0002b4 	bl	a130 <put32>
    965c:	e8bd8070 	pop	{r4, r5, r6, pc}
    9660:	cccccccd 	stclgt	12, cr12, [ip], {205}	; 0xcd
    9664:	0000a3f0 	strdeq	sl, [r0], -r0

00009668 <gpio_toggle>:
    9668:	e92d4008 	push	{r3, lr}
    966c:	e350001f 	cmp	r0, #31
    9670:	88bd8008 	pophi	{r3, pc}
    9674:	959f3020 	ldrls	r3, [pc, #32]	; 969c <gpio_toggle+0x34>
    9678:	95932018 	ldrls	r2, [r3, #24]
    967c:	859f3018 	ldrhi	r3, [pc, #24]	; 969c <gpio_toggle+0x34>
    9680:	8593201c 	ldrhi	r2, [r3, #28]
    9684:	e200301f 	and	r3, r0, #31
    9688:	e1a00002 	mov	r0, r2
    968c:	e3a01001 	mov	r1, #1
    9690:	e1a01311 	lsl	r1, r1, r3
    9694:	eb0002a5 	bl	a130 <put32>
    9698:	e8bd8008 	pop	{r3, pc}
    969c:	0000a3f0 	strdeq	sl, [r0], -r0

000096a0 <is_gpio_int>:
    96a0:	e92d4008 	push	{r3, lr}
    96a4:	e59f301c 	ldr	r3, [pc, #28]	; 96c8 <is_gpio_int+0x28>
    96a8:	e5930030 	ldr	r0, [r3, #48]	; 0x30
    96ac:	eb0002ab 	bl	a160 <get32>
    96b0:	e3500000 	cmp	r0, #0
    96b4:	0a000001 	beq	96c0 <is_gpio_int+0x20>
    96b8:	e3a00001 	mov	r0, #1
    96bc:	e8bd8008 	pop	{r3, pc}
    96c0:	e3a00000 	mov	r0, #0
    96c4:	e8bd8008 	pop	{r3, pc}
    96c8:	0000a3f0 	strdeq	sl, [r0], -r0

000096cc <gpio_int_rising_edge>:
    96cc:	e92d4038 	push	{r3, r4, r5, lr}
    96d0:	e1a04000 	mov	r4, r0
    96d4:	e350001f 	cmp	r0, #31
    96d8:	88bd8038 	pophi	{r3, r4, r5, pc}
    96dc:	eb00028d 	bl	a118 <dev_barrier>
    96e0:	e354001f 	cmp	r4, #31
    96e4:	8a000007 	bhi	9708 <gpio_int_rising_edge+0x3c>
    96e8:	e59f505c 	ldr	r5, [pc, #92]	; 974c <gpio_int_rising_edge+0x80>
    96ec:	e5950034 	ldr	r0, [r5, #52]	; 0x34
    96f0:	eb00029a 	bl	a160 <get32>
    96f4:	e3a01001 	mov	r1, #1
    96f8:	e1801411 	orr	r1, r0, r1, lsl r4
    96fc:	e5950034 	ldr	r0, [r5, #52]	; 0x34
    9700:	eb00028a 	bl	a130 <put32>
    9704:	ea000007 	b	9728 <gpio_int_rising_edge+0x5c>
    9708:	e59f503c 	ldr	r5, [pc, #60]	; 974c <gpio_int_rising_edge+0x80>
    970c:	e5950038 	ldr	r0, [r5, #56]	; 0x38
    9710:	eb000292 	bl	a160 <get32>
    9714:	e204401f 	and	r4, r4, #31
    9718:	e3a01001 	mov	r1, #1
    971c:	e1801411 	orr	r1, r0, r1, lsl r4
    9720:	e5950038 	ldr	r0, [r5, #56]	; 0x38
    9724:	eb000281 	bl	a130 <put32>
    9728:	eb00027a 	bl	a118 <dev_barrier>
    972c:	e59f4018 	ldr	r4, [pc, #24]	; 974c <gpio_int_rising_edge+0x80>
    9730:	e594003c 	ldr	r0, [r4, #60]	; 0x3c
    9734:	eb000289 	bl	a160 <get32>
    9738:	e3801802 	orr	r1, r0, #131072	; 0x20000
    973c:	e594003c 	ldr	r0, [r4, #60]	; 0x3c
    9740:	eb00027a 	bl	a130 <put32>
    9744:	eb000273 	bl	a118 <dev_barrier>
    9748:	e8bd8038 	pop	{r3, r4, r5, pc}
    974c:	0000a3f0 	strdeq	sl, [r0], -r0

00009750 <gpio_int_falling_edge>:
    9750:	e92d4038 	push	{r3, r4, r5, lr}
    9754:	e1a04000 	mov	r4, r0
    9758:	e350001f 	cmp	r0, #31
    975c:	88bd8038 	pophi	{r3, r4, r5, pc}
    9760:	eb00026c 	bl	a118 <dev_barrier>
    9764:	e354001f 	cmp	r4, #31
    9768:	8a000007 	bhi	978c <gpio_int_falling_edge+0x3c>
    976c:	e59f505c 	ldr	r5, [pc, #92]	; 97d0 <gpio_int_falling_edge+0x80>
    9770:	e5950040 	ldr	r0, [r5, #64]	; 0x40
    9774:	eb000279 	bl	a160 <get32>
    9778:	e3a01001 	mov	r1, #1
    977c:	e1801411 	orr	r1, r0, r1, lsl r4
    9780:	e5950040 	ldr	r0, [r5, #64]	; 0x40
    9784:	eb000269 	bl	a130 <put32>
    9788:	ea000007 	b	97ac <gpio_int_falling_edge+0x5c>
    978c:	e59f503c 	ldr	r5, [pc, #60]	; 97d0 <gpio_int_falling_edge+0x80>
    9790:	e5950044 	ldr	r0, [r5, #68]	; 0x44
    9794:	eb000271 	bl	a160 <get32>
    9798:	e204401f 	and	r4, r4, #31
    979c:	e3a01001 	mov	r1, #1
    97a0:	e1801411 	orr	r1, r0, r1, lsl r4
    97a4:	e5950044 	ldr	r0, [r5, #68]	; 0x44
    97a8:	eb000260 	bl	a130 <put32>
    97ac:	eb000259 	bl	a118 <dev_barrier>
    97b0:	e59f4018 	ldr	r4, [pc, #24]	; 97d0 <gpio_int_falling_edge+0x80>
    97b4:	e594003c 	ldr	r0, [r4, #60]	; 0x3c
    97b8:	eb000268 	bl	a160 <get32>
    97bc:	e3801601 	orr	r1, r0, #1048576	; 0x100000
    97c0:	e594003c 	ldr	r0, [r4, #60]	; 0x3c
    97c4:	eb000259 	bl	a130 <put32>
    97c8:	eb000252 	bl	a118 <dev_barrier>
    97cc:	e8bd8038 	pop	{r3, r4, r5, pc}
    97d0:	0000a3f0 	strdeq	sl, [r0], -r0

000097d4 <gpio_event_detected>:
    97d4:	e92d4010 	push	{r4, lr}
    97d8:	e1a04000 	mov	r4, r0
    97dc:	e350001f 	cmp	r0, #31
    97e0:	8a000019 	bhi	984c <gpio_event_detected+0x78>
    97e4:	eb00024b 	bl	a118 <dev_barrier>
    97e8:	e354001f 	cmp	r4, #31
    97ec:	8a000008 	bhi	9814 <gpio_event_detected+0x40>
    97f0:	e59f305c 	ldr	r3, [pc, #92]	; 9854 <gpio_event_detected+0x80>
    97f4:	e5930048 	ldr	r0, [r3, #72]	; 0x48
    97f8:	eb000258 	bl	a160 <get32>
    97fc:	e3a03001 	mov	r3, #1
    9800:	e0103413 	ands	r3, r0, r3, lsl r4
    9804:	0a00000d 	beq	9840 <gpio_event_detected+0x6c>
    9808:	eb000242 	bl	a118 <dev_barrier>
    980c:	e3a00001 	mov	r0, #1
    9810:	e8bd8010 	pop	{r4, pc}
    9814:	e59f3038 	ldr	r3, [pc, #56]	; 9854 <gpio_event_detected+0x80>
    9818:	e593004c 	ldr	r0, [r3, #76]	; 0x4c
    981c:	eb00024f 	bl	a160 <get32>
    9820:	e3a03001 	mov	r3, #1
    9824:	e0004413 	and	r4, r0, r3, lsl r4
    9828:	eb00023a 	bl	a118 <dev_barrier>
    982c:	e3540000 	cmp	r4, #0
    9830:	0a000002 	beq	9840 <gpio_event_detected+0x6c>
    9834:	eb000237 	bl	a118 <dev_barrier>
    9838:	e3a00001 	mov	r0, #1
    983c:	e8bd8010 	pop	{r4, pc}
    9840:	eb000234 	bl	a118 <dev_barrier>
    9844:	e3a00000 	mov	r0, #0
    9848:	e8bd8010 	pop	{r4, pc}
    984c:	e3e00000 	mvn	r0, #0
    9850:	e8bd8010 	pop	{r4, pc}
    9854:	0000a3f0 	strdeq	sl, [r0], -r0

00009858 <gpio_event_clear>:
    9858:	e92d4010 	push	{r4, lr}
    985c:	e1a04000 	mov	r4, r0
    9860:	e350001f 	cmp	r0, #31
    9864:	88bd8010 	pophi	{r4, pc}
    9868:	eb00022a 	bl	a118 <dev_barrier>
    986c:	e354001f 	cmp	r4, #31
    9870:	8a000005 	bhi	988c <gpio_event_clear+0x34>
    9874:	e59f3030 	ldr	r3, [pc, #48]	; 98ac <gpio_event_clear+0x54>
    9878:	e5930048 	ldr	r0, [r3, #72]	; 0x48
    987c:	e3a01001 	mov	r1, #1
    9880:	e1a01411 	lsl	r1, r1, r4
    9884:	eb000229 	bl	a130 <put32>
    9888:	ea000005 	b	98a4 <gpio_event_clear+0x4c>
    988c:	e204401f 	and	r4, r4, #31
    9890:	e59f3014 	ldr	r3, [pc, #20]	; 98ac <gpio_event_clear+0x54>
    9894:	e593004c 	ldr	r0, [r3, #76]	; 0x4c
    9898:	e3a01001 	mov	r1, #1
    989c:	e1a01411 	lsl	r1, r1, r4
    98a0:	eb000222 	bl	a130 <put32>
    98a4:	eb00021b 	bl	a118 <dev_barrier>
    98a8:	e8bd8010 	pop	{r4, pc}
    98ac:	0000a3f0 	strdeq	sl, [r0], -r0

000098b0 <sw_uart_putc>:
    98b0:	e92d41f0 	push	{r4, r5, r6, r7, r8, lr}
    98b4:	e1a07001 	mov	r7, r1
    98b8:	e5d06000 	ldrb	r6, [r0]
    98bc:	e5905008 	ldr	r5, [r0, #8]
    98c0:	ee1f4f3c 	mrc	15, 0, r4, cr15, cr12, {1}
    98c4:	e1a00006 	mov	r0, r6
    98c8:	e3a01000 	mov	r1, #0
    98cc:	ebffff26 	bl	956c <gpio_write>
    98d0:	ee1f3f3c 	mrc	15, 0, r3, cr15, cr12, {1}
    98d4:	e0643003 	rsb	r3, r4, r3
    98d8:	e1550003 	cmp	r5, r3
    98dc:	8afffffb 	bhi	98d0 <sw_uart_putc+0x20>
    98e0:	e1a08085 	lsl	r8, r5, #1
    98e4:	e1a00006 	mov	r0, r6
    98e8:	e2071001 	and	r1, r7, #1
    98ec:	ebffff1e 	bl	956c <gpio_write>
    98f0:	ee1f3f3c 	mrc	15, 0, r3, cr15, cr12, {1}
    98f4:	e0643003 	rsb	r3, r4, r3
    98f8:	e1580003 	cmp	r8, r3
    98fc:	8afffffb 	bhi	98f0 <sw_uart_putc+0x40>
    9900:	e0888005 	add	r8, r8, r5
    9904:	e1a00006 	mov	r0, r6
    9908:	e2071002 	and	r1, r7, #2
    990c:	ebffff16 	bl	956c <gpio_write>
    9910:	ee1f3f3c 	mrc	15, 0, r3, cr15, cr12, {1}
    9914:	e0643003 	rsb	r3, r4, r3
    9918:	e1580003 	cmp	r8, r3
    991c:	8afffffb 	bhi	9910 <sw_uart_putc+0x60>
    9920:	e0888005 	add	r8, r8, r5
    9924:	e1a00006 	mov	r0, r6
    9928:	e2071004 	and	r1, r7, #4
    992c:	ebffff0e 	bl	956c <gpio_write>
    9930:	ee1f3f3c 	mrc	15, 0, r3, cr15, cr12, {1}
    9934:	e0643003 	rsb	r3, r4, r3
    9938:	e1580003 	cmp	r8, r3
    993c:	8afffffb 	bhi	9930 <sw_uart_putc+0x80>
    9940:	e0888005 	add	r8, r8, r5
    9944:	e1a00006 	mov	r0, r6
    9948:	e2071008 	and	r1, r7, #8
    994c:	ebffff06 	bl	956c <gpio_write>
    9950:	ee1f3f3c 	mrc	15, 0, r3, cr15, cr12, {1}
    9954:	e0643003 	rsb	r3, r4, r3
    9958:	e1580003 	cmp	r8, r3
    995c:	8afffffb 	bhi	9950 <sw_uart_putc+0xa0>
    9960:	e0888005 	add	r8, r8, r5
    9964:	e1a00006 	mov	r0, r6
    9968:	e2071010 	and	r1, r7, #16
    996c:	ebfffefe 	bl	956c <gpio_write>
    9970:	ee1f3f3c 	mrc	15, 0, r3, cr15, cr12, {1}
    9974:	e0643003 	rsb	r3, r4, r3
    9978:	e1580003 	cmp	r8, r3
    997c:	8afffffb 	bhi	9970 <sw_uart_putc+0xc0>
    9980:	e0888005 	add	r8, r8, r5
    9984:	e1a00006 	mov	r0, r6
    9988:	e2071020 	and	r1, r7, #32
    998c:	ebfffef6 	bl	956c <gpio_write>
    9990:	ee1f3f3c 	mrc	15, 0, r3, cr15, cr12, {1}
    9994:	e0643003 	rsb	r3, r4, r3
    9998:	e1580003 	cmp	r8, r3
    999c:	8afffffb 	bhi	9990 <sw_uart_putc+0xe0>
    99a0:	e0888005 	add	r8, r8, r5
    99a4:	e1a00006 	mov	r0, r6
    99a8:	e2071040 	and	r1, r7, #64	; 0x40
    99ac:	ebfffeee 	bl	956c <gpio_write>
    99b0:	ee1f3f3c 	mrc	15, 0, r3, cr15, cr12, {1}
    99b4:	e0643003 	rsb	r3, r4, r3
    99b8:	e1580003 	cmp	r8, r3
    99bc:	8afffffb 	bhi	99b0 <sw_uart_putc+0x100>
    99c0:	e0888005 	add	r8, r8, r5
    99c4:	e1a00006 	mov	r0, r6
    99c8:	e2071080 	and	r1, r7, #128	; 0x80
    99cc:	ebfffee6 	bl	956c <gpio_write>
    99d0:	ee1f3f3c 	mrc	15, 0, r3, cr15, cr12, {1}
    99d4:	e0643003 	rsb	r3, r4, r3
    99d8:	e1580003 	cmp	r8, r3
    99dc:	8afffffb 	bhi	99d0 <sw_uart_putc+0x120>
    99e0:	e0885005 	add	r5, r8, r5
    99e4:	e1a00006 	mov	r0, r6
    99e8:	e3a01001 	mov	r1, #1
    99ec:	ebfffede 	bl	956c <gpio_write>
    99f0:	ee1f3f3c 	mrc	15, 0, r3, cr15, cr12, {1}
    99f4:	e0643003 	rsb	r3, r4, r3
    99f8:	e1550003 	cmp	r5, r3
    99fc:	8afffffb 	bhi	99f0 <sw_uart_putc+0x140>
    9a00:	e8bd81f0 	pop	{r4, r5, r6, r7, r8, pc}

00009a04 <sw_uart_getc_timeout>:
    9a04:	e92d43f8 	push	{r3, r4, r5, r6, r7, r8, r9, lr}
    9a08:	e1a09000 	mov	r9, r0
    9a0c:	e5d07001 	ldrb	r7, [r0, #1]
    9a10:	e1a05007 	mov	r5, r7
    9a14:	e1a06001 	mov	r6, r1
    9a18:	ebfffe21 	bl	92a4 <timer_get_usec_raw>
    9a1c:	e1a04000 	mov	r4, r0
    9a20:	e1a00005 	mov	r0, r5
    9a24:	ebfffebd 	bl	9520 <gpio_read>
    9a28:	e3500000 	cmp	r0, #0
    9a2c:	0a000005 	beq	9a48 <sw_uart_getc_timeout+0x44>
    9a30:	ebfffe1b 	bl	92a4 <timer_get_usec_raw>
    9a34:	e0640000 	rsb	r0, r4, r0
    9a38:	e1560000 	cmp	r6, r0
    9a3c:	2afffff7 	bcs	9a20 <sw_uart_getc_timeout+0x1c>
    9a40:	e3a03000 	mov	r3, #0
    9a44:	ea000000 	b	9a4c <sw_uart_getc_timeout+0x48>
    9a48:	e3a03001 	mov	r3, #1
    9a4c:	e3530000 	cmp	r3, #0
    9a50:	0a000059 	beq	9bbc <sw_uart_getc_timeout+0x1b8>
    9a54:	ee1f8f3c 	mrc	15, 0, r8, cr15, cr12, {1}
    9a58:	e5994008 	ldr	r4, [r9, #8]
    9a5c:	e08420a4 	add	r2, r4, r4, lsr #1
    9a60:	ee1f3f3c 	mrc	15, 0, r3, cr15, cr12, {1}
    9a64:	e0683003 	rsb	r3, r8, r3
    9a68:	e1520003 	cmp	r2, r3
    9a6c:	8afffffb 	bhi	9a60 <sw_uart_getc_timeout+0x5c>
    9a70:	e0888004 	add	r8, r8, r4
    9a74:	e1a00007 	mov	r0, r7
    9a78:	ebfffea8 	bl	9520 <gpio_read>
    9a7c:	e1a09750 	asr	r9, r0, r7
    9a80:	ee1f3f3c 	mrc	15, 0, r3, cr15, cr12, {1}
    9a84:	e0683003 	rsb	r3, r8, r3
    9a88:	e1540003 	cmp	r4, r3
    9a8c:	8afffffb 	bhi	9a80 <sw_uart_getc_timeout+0x7c>
    9a90:	e0888004 	add	r8, r8, r4
    9a94:	e1a00007 	mov	r0, r7
    9a98:	ebfffea0 	bl	9520 <gpio_read>
    9a9c:	e1a00750 	asr	r0, r0, r7
    9aa0:	e1899080 	orr	r9, r9, r0, lsl #1
    9aa4:	ee1f3f3c 	mrc	15, 0, r3, cr15, cr12, {1}
    9aa8:	e0683003 	rsb	r3, r8, r3
    9aac:	e1540003 	cmp	r4, r3
    9ab0:	8afffffb 	bhi	9aa4 <sw_uart_getc_timeout+0xa0>
    9ab4:	e0888004 	add	r8, r8, r4
    9ab8:	e1a00007 	mov	r0, r7
    9abc:	ebfffe97 	bl	9520 <gpio_read>
    9ac0:	e1a00750 	asr	r0, r0, r7
    9ac4:	e1899100 	orr	r9, r9, r0, lsl #2
    9ac8:	ee1f3f3c 	mrc	15, 0, r3, cr15, cr12, {1}
    9acc:	e0683003 	rsb	r3, r8, r3
    9ad0:	e1540003 	cmp	r4, r3
    9ad4:	8afffffb 	bhi	9ac8 <sw_uart_getc_timeout+0xc4>
    9ad8:	e0888004 	add	r8, r8, r4
    9adc:	e1a00007 	mov	r0, r7
    9ae0:	ebfffe8e 	bl	9520 <gpio_read>
    9ae4:	e1a00750 	asr	r0, r0, r7
    9ae8:	e1899180 	orr	r9, r9, r0, lsl #3
    9aec:	ee1f3f3c 	mrc	15, 0, r3, cr15, cr12, {1}
    9af0:	e0683003 	rsb	r3, r8, r3
    9af4:	e1540003 	cmp	r4, r3
    9af8:	8afffffb 	bhi	9aec <sw_uart_getc_timeout+0xe8>
    9afc:	e0888004 	add	r8, r8, r4
    9b00:	e1a00007 	mov	r0, r7
    9b04:	ebfffe85 	bl	9520 <gpio_read>
    9b08:	e1a00750 	asr	r0, r0, r7
    9b0c:	e1899200 	orr	r9, r9, r0, lsl #4
    9b10:	ee1f3f3c 	mrc	15, 0, r3, cr15, cr12, {1}
    9b14:	e0683003 	rsb	r3, r8, r3
    9b18:	e1540003 	cmp	r4, r3
    9b1c:	8afffffb 	bhi	9b10 <sw_uart_getc_timeout+0x10c>
    9b20:	e0888004 	add	r8, r8, r4
    9b24:	e1a00007 	mov	r0, r7
    9b28:	ebfffe7c 	bl	9520 <gpio_read>
    9b2c:	e1a00750 	asr	r0, r0, r7
    9b30:	e1899280 	orr	r9, r9, r0, lsl #5
    9b34:	ee1f3f3c 	mrc	15, 0, r3, cr15, cr12, {1}
    9b38:	e0683003 	rsb	r3, r8, r3
    9b3c:	e1540003 	cmp	r4, r3
    9b40:	8afffffb 	bhi	9b34 <sw_uart_getc_timeout+0x130>
    9b44:	e0888004 	add	r8, r8, r4
    9b48:	e1a00007 	mov	r0, r7
    9b4c:	ebfffe73 	bl	9520 <gpio_read>
    9b50:	e1a00750 	asr	r0, r0, r7
    9b54:	e1899300 	orr	r9, r9, r0, lsl #6
    9b58:	ee1f3f3c 	mrc	15, 0, r3, cr15, cr12, {1}
    9b5c:	e0683003 	rsb	r3, r8, r3
    9b60:	e1540003 	cmp	r4, r3
    9b64:	8afffffb 	bhi	9b58 <sw_uart_getc_timeout+0x154>
    9b68:	e1a00007 	mov	r0, r7
    9b6c:	ebfffe6b 	bl	9520 <gpio_read>
    9b70:	e1a00750 	asr	r0, r0, r7
    9b74:	e1899380 	orr	r9, r9, r0, lsl #7
    9b78:	ebfffdc9 	bl	92a4 <timer_get_usec_raw>
    9b7c:	e1a04000 	mov	r4, r0
    9b80:	e1a00005 	mov	r0, r5
    9b84:	ebfffe65 	bl	9520 <gpio_read>
    9b88:	e3500000 	cmp	r0, #0
    9b8c:	0a000005 	beq	9ba8 <sw_uart_getc_timeout+0x1a4>
    9b90:	ebfffdc3 	bl	92a4 <timer_get_usec_raw>
    9b94:	e0640000 	rsb	r0, r4, r0
    9b98:	e1560000 	cmp	r6, r0
    9b9c:	2afffff7 	bcs	9b80 <sw_uart_getc_timeout+0x17c>
    9ba0:	e3a03000 	mov	r3, #0
    9ba4:	ea000000 	b	9bac <sw_uart_getc_timeout+0x1a8>
    9ba8:	e3a03001 	mov	r3, #1
    9bac:	e3530000 	cmp	r3, #0
    9bb0:	0a000003 	beq	9bc4 <sw_uart_getc_timeout+0x1c0>
    9bb4:	e1a00009 	mov	r0, r9
    9bb8:	e8bd83f8 	pop	{r3, r4, r5, r6, r7, r8, r9, pc}
    9bbc:	e3e00000 	mvn	r0, #0
    9bc0:	e8bd83f8 	pop	{r3, r4, r5, r6, r7, r8, r9, pc}
    9bc4:	e3e00000 	mvn	r0, #0
    9bc8:	e8bd83f8 	pop	{r3, r4, r5, r6, r7, r8, r9, pc}

00009bcc <sw_uart_gets_until>:
    9bcc:	e92d47f0 	push	{r4, r5, r6, r7, r8, r9, sl, lr}
    9bd0:	e24dd008 	sub	sp, sp, #8
    9bd4:	e1a08000 	mov	r8, r0
    9bd8:	e1a06001 	mov	r6, r1
    9bdc:	e1a09003 	mov	r9, r3
    9be0:	e59da028 	ldr	sl, [sp, #40]	; 0x28
    9be4:	e3520000 	cmp	r2, #0
    9be8:	1a000008 	bne	9c10 <sw_uart_gets_until+0x44>
    9bec:	ebfffbea 	bl	8b9c <rpi_reset_putc>
    9bf0:	e59f3068 	ldr	r3, [pc, #104]	; 9c60 <sw_uart_gets_until+0x94>
    9bf4:	e58d3000 	str	r3, [sp]
    9bf8:	e59f0064 	ldr	r0, [pc, #100]	; 9c64 <sw_uart_gets_until+0x98>
    9bfc:	e59f1064 	ldr	r1, [pc, #100]	; 9c68 <sw_uart_gets_until+0x9c>
    9c00:	e59f2064 	ldr	r2, [pc, #100]	; 9c6c <sw_uart_gets_until+0xa0>
    9c04:	e3a0306d 	mov	r3, #109	; 0x6d
    9c08:	ebfffbc8 	bl	8b30 <printk>
    9c0c:	ebfffd4a 	bl	913c <clean_reboot>
    9c10:	e3a04000 	mov	r4, #0
    9c14:	e5c14000 	strb	r4, [r1]
    9c18:	e2427001 	sub	r7, r2, #1
    9c1c:	ea000007 	b	9c40 <sw_uart_gets_until+0x74>
    9c20:	e1a00008 	mov	r0, r8
    9c24:	e1a0100a 	mov	r1, sl
    9c28:	ebffff75 	bl	9a04 <sw_uart_getc_timeout>
    9c2c:	e6ef0070 	uxtb	r0, r0
    9c30:	e1500009 	cmp	r0, r9
    9c34:	0a000004 	beq	9c4c <sw_uart_gets_until+0x80>
    9c38:	e7c60005 	strb	r0, [r6, r5]
    9c3c:	e2844001 	add	r4, r4, #1
    9c40:	e1a05004 	mov	r5, r4
    9c44:	e1540007 	cmp	r4, r7
    9c48:	3afffff4 	bcc	9c20 <sw_uart_gets_until+0x54>
    9c4c:	e3a03000 	mov	r3, #0
    9c50:	e7c63005 	strb	r3, [r6, r5]
    9c54:	e1a00004 	mov	r0, r4
    9c58:	e28dd008 	add	sp, sp, #8
    9c5c:	e8bd87f0 	pop	{r4, r5, r6, r7, r8, r9, sl, pc}
    9c60:	0000a698 	muleq	r0, r8, r6
    9c64:	0000a50c 	andeq	sl, r0, ip, lsl #10
    9c68:	0000a684 	andeq	sl, r0, r4, lsl #13
    9c6c:	0000a60c 	andeq	sl, r0, ip, lsl #12

00009c70 <sw_uart_gets_timeout>:
    9c70:	e92d41f0 	push	{r4, r5, r6, r7, r8, lr}
    9c74:	e24dd008 	sub	sp, sp, #8
    9c78:	e1a07000 	mov	r7, r0
    9c7c:	e1a05001 	mov	r5, r1
    9c80:	e1a08003 	mov	r8, r3
    9c84:	e3520000 	cmp	r2, #0
    9c88:	1a000008 	bne	9cb0 <sw_uart_gets_timeout+0x40>
    9c8c:	ebfffbc2 	bl	8b9c <rpi_reset_putc>
    9c90:	e59f3058 	ldr	r3, [pc, #88]	; 9cf0 <sw_uart_gets_timeout+0x80>
    9c94:	e58d3000 	str	r3, [sp]
    9c98:	e59f0054 	ldr	r0, [pc, #84]	; 9cf4 <sw_uart_gets_timeout+0x84>
    9c9c:	e59f1054 	ldr	r1, [pc, #84]	; 9cf8 <sw_uart_gets_timeout+0x88>
    9ca0:	e59f2054 	ldr	r2, [pc, #84]	; 9cfc <sw_uart_gets_timeout+0x8c>
    9ca4:	e3a03083 	mov	r3, #131	; 0x83
    9ca8:	ebfffba0 	bl	8b30 <printk>
    9cac:	ebfffd22 	bl	913c <clean_reboot>
    9cb0:	e3a04000 	mov	r4, #0
    9cb4:	e5c14000 	strb	r4, [r1]
    9cb8:	e2426001 	sub	r6, r2, #1
    9cbc:	ea000004 	b	9cd4 <sw_uart_gets_timeout+0x64>
    9cc0:	e1a00007 	mov	r0, r7
    9cc4:	e1a01008 	mov	r1, r8
    9cc8:	ebffff4d 	bl	9a04 <sw_uart_getc_timeout>
    9ccc:	e7c50004 	strb	r0, [r5, r4]
    9cd0:	e2844001 	add	r4, r4, #1
    9cd4:	e1540006 	cmp	r4, r6
    9cd8:	3afffff8 	bcc	9cc0 <sw_uart_gets_timeout+0x50>
    9cdc:	e3a03000 	mov	r3, #0
    9ce0:	e7c53004 	strb	r3, [r5, r4]
    9ce4:	e1a00004 	mov	r0, r4
    9ce8:	e28dd008 	add	sp, sp, #8
    9cec:	e8bd81f0 	pop	{r4, r5, r6, r7, r8, pc}
    9cf0:	0000a698 	muleq	r0, r8, r6
    9cf4:	0000a50c 	andeq	sl, r0, ip, lsl #10
    9cf8:	0000a684 	andeq	sl, r0, r4, lsl #13
    9cfc:	0000a620 	andeq	sl, r0, r0, lsr #12

00009d00 <sw_uart_init_helper>:
    9d00:	e92d41f0 	push	{r4, r5, r6, r7, r8, lr}
    9d04:	e24dd008 	sub	sp, sp, #8
    9d08:	e1a04000 	mov	r4, r0
    9d0c:	e1a06001 	mov	r6, r1
    9d10:	e1a08002 	mov	r8, r2
    9d14:	e1a05003 	mov	r5, r3
    9d18:	e59d7020 	ldr	r7, [sp, #32]
    9d1c:	e1a00001 	mov	r0, r1
    9d20:	ebfffd7a 	bl	9310 <gpio_set_output>
    9d24:	e1a00008 	mov	r0, r8
    9d28:	ebfffdc9 	bl	9454 <gpio_set_input>
    9d2c:	e3a03001 	mov	r3, #1
    9d30:	ee0f3f1c 	mcr	15, 0, r3, cr15, cr12, {0}
    9d34:	e1a00006 	mov	r0, r6
    9d38:	e3a01001 	mov	r1, #1
    9d3c:	ebfffe0a 	bl	956c <gpio_write>
    9d40:	e0020795 	mul	r2, r5, r7
    9d44:	e59f3074 	ldr	r3, [pc, #116]	; 9dc0 <sw_uart_init_helper+0xc0>
    9d48:	e0653003 	rsb	r3, r5, r3
    9d4c:	e1530002 	cmp	r3, r2
    9d50:	8a000005 	bhi	9d6c <sw_uart_init_helper+0x6c>
    9d54:	e59f3064 	ldr	r3, [pc, #100]	; 9dc0 <sw_uart_init_helper+0xc0>
    9d58:	e0853003 	add	r3, r5, r3
    9d5c:	e1530002 	cmp	r3, r2
    9d60:	2a000003 	bcs	9d74 <sw_uart_init_helper+0x74>
    9d64:	e3a03000 	mov	r3, #0
    9d68:	ea000002 	b	9d78 <sw_uart_init_helper+0x78>
    9d6c:	e3a03000 	mov	r3, #0
    9d70:	ea000000 	b	9d78 <sw_uart_init_helper+0x78>
    9d74:	e3a03001 	mov	r3, #1
    9d78:	e3530000 	cmp	r3, #0
    9d7c:	1a000008 	bne	9da4 <sw_uart_init_helper+0xa4>
    9d80:	ebfffb85 	bl	8b9c <rpi_reset_putc>
    9d84:	e59f3038 	ldr	r3, [pc, #56]	; 9dc4 <sw_uart_init_helper+0xc4>
    9d88:	e58d3000 	str	r3, [sp]
    9d8c:	e59f0034 	ldr	r0, [pc, #52]	; 9dc8 <sw_uart_init_helper+0xc8>
    9d90:	e59f1034 	ldr	r1, [pc, #52]	; 9dcc <sw_uart_init_helper+0xcc>
    9d94:	e59f2034 	ldr	r2, [pc, #52]	; 9dd0 <sw_uart_init_helper+0xd0>
    9d98:	e3a0309d 	mov	r3, #157	; 0x9d
    9d9c:	ebfffb63 	bl	8b30 <printk>
    9da0:	ebfffce5 	bl	913c <clean_reboot>
    9da4:	e5c46000 	strb	r6, [r4]
    9da8:	e5c48001 	strb	r8, [r4, #1]
    9dac:	e5845004 	str	r5, [r4, #4]
    9db0:	e5847008 	str	r7, [r4, #8]
    9db4:	e1a00004 	mov	r0, r4
    9db8:	e28dd008 	add	sp, sp, #8
    9dbc:	e8bd81f0 	pop	{r4, r5, r6, r7, r8, pc}
    9dc0:	29b92700 	ldmibcs	r9!, {r8, r9, sl, sp}
    9dc4:	0000a6a4 	andeq	sl, r0, r4, lsr #13
    9dc8:	0000a50c 	andeq	sl, r0, ip, lsl #10
    9dcc:	0000a684 	andeq	sl, r0, r4, lsl #13
    9dd0:	0000a638 	andeq	sl, r0, r8, lsr r6

00009dd4 <sw_uart_getc>:
    9dd4:	e92d4008 	push	{r3, lr}
    9dd8:	e3e01000 	mvn	r1, #0
    9ddc:	ebffff08 	bl	9a04 <sw_uart_getc_timeout>
    9de0:	e3500000 	cmp	r0, #0
    9de4:	a8bd8008 	popge	{r3, pc}
    9de8:	ebfffb6b 	bl	8b9c <rpi_reset_putc>
    9dec:	e59f0010 	ldr	r0, [pc, #16]	; 9e04 <sw_uart_getc+0x30>
    9df0:	e59f1010 	ldr	r1, [pc, #16]	; 9e08 <sw_uart_getc+0x34>
    9df4:	e59f2010 	ldr	r2, [pc, #16]	; 9e0c <sw_uart_getc+0x38>
    9df8:	e3a030ac 	mov	r3, #172	; 0xac
    9dfc:	ebfffb4b 	bl	8b30 <printk>
    9e00:	ebfffccd 	bl	913c <clean_reboot>
    9e04:	0000a6d8 	ldrdeq	sl, [r0], -r8
    9e08:	0000a684 	andeq	sl, r0, r4, lsl #13
    9e0c:	0000a64c 	andeq	sl, r0, ip, asr #12

00009e10 <sw_uart_putk>:
    9e10:	e92d4038 	push	{r3, r4, r5, lr}
    9e14:	e1a05000 	mov	r5, r0
    9e18:	e1a04001 	mov	r4, r1
    9e1c:	ea000002 	b	9e2c <sw_uart_putk+0x1c>
    9e20:	e1a00005 	mov	r0, r5
    9e24:	ebfffea1 	bl	98b0 <sw_uart_putc>
    9e28:	e2844001 	add	r4, r4, #1
    9e2c:	e5d41000 	ldrb	r1, [r4]
    9e30:	e3510000 	cmp	r1, #0
    9e34:	1afffff9 	bne	9e20 <sw_uart_putk+0x10>
    9e38:	e8bd8038 	pop	{r3, r4, r5, pc}

00009e3c <sw_uart_printk>:
    9e3c:	e92d000e 	push	{r1, r2, r3}
    9e40:	e92d4030 	push	{r4, r5, lr}
    9e44:	e24ddf76 	sub	sp, sp, #472	; 0x1d8
    9e48:	e1a05000 	mov	r5, r0
    9e4c:	e28d3f7a 	add	r3, sp, #488	; 0x1e8
    9e50:	e58d3008 	str	r3, [sp, #8]
    9e54:	e28d000c 	add	r0, sp, #12
    9e58:	e3a01f73 	mov	r1, #460	; 0x1cc
    9e5c:	e59d21e4 	ldr	r2, [sp, #484]	; 0x1e4
    9e60:	ebfffc08 	bl	8e88 <va_printk>
    9e64:	e1a04000 	mov	r4, r0
    9e68:	e59f3048 	ldr	r3, [pc, #72]	; 9eb8 <sw_uart_printk+0x7c>
    9e6c:	e1500003 	cmp	r0, r3
    9e70:	9a000008 	bls	9e98 <sw_uart_printk+0x5c>
    9e74:	ebfffb48 	bl	8b9c <rpi_reset_putc>
    9e78:	e59f303c 	ldr	r3, [pc, #60]	; 9ebc <sw_uart_printk+0x80>
    9e7c:	e58d3000 	str	r3, [sp]
    9e80:	e59f0038 	ldr	r0, [pc, #56]	; 9ec0 <sw_uart_printk+0x84>
    9e84:	e59f1038 	ldr	r1, [pc, #56]	; 9ec4 <sw_uart_printk+0x88>
    9e88:	e59f2038 	ldr	r2, [pc, #56]	; 9ec8 <sw_uart_printk+0x8c>
    9e8c:	e3a030c0 	mov	r3, #192	; 0xc0
    9e90:	ebfffb26 	bl	8b30 <printk>
    9e94:	ebfffca8 	bl	913c <clean_reboot>
    9e98:	e1a00005 	mov	r0, r5
    9e9c:	e28d100c 	add	r1, sp, #12
    9ea0:	ebffffda 	bl	9e10 <sw_uart_putk>
    9ea4:	e1a00004 	mov	r0, r4
    9ea8:	e28ddf76 	add	sp, sp, #472	; 0x1d8
    9eac:	e8bd4030 	pop	{r4, r5, lr}
    9eb0:	e28dd00c 	add	sp, sp, #12
    9eb4:	e12fff1e 	bx	lr
    9eb8:	000001ca 	andeq	r0, r0, sl, asr #3
    9ebc:	0000a710 	andeq	sl, r0, r0, lsl r7
    9ec0:	0000a50c 	andeq	sl, r0, ip, lsl #10
    9ec4:	0000a684 	andeq	sl, r0, r4, lsl #13
    9ec8:	0000a65c 	andeq	sl, r0, ip, asr r6

00009ecc <sw_uart_gets_until_blk>:
    9ecc:	e52de004 	push	{lr}		; (str lr, [sp, #-4]!)
    9ed0:	e24dd00c 	sub	sp, sp, #12
    9ed4:	e3e0c000 	mvn	ip, #0
    9ed8:	e58dc000 	str	ip, [sp]
    9edc:	ebffff3a 	bl	9bcc <sw_uart_gets_until>
    9ee0:	e3500000 	cmp	r0, #0
    9ee4:	aa000006 	bge	9f04 <sw_uart_gets_until_blk+0x38>
    9ee8:	ebfffb2b 	bl	8b9c <rpi_reset_putc>
    9eec:	e59f0018 	ldr	r0, [pc, #24]	; 9f0c <sw_uart_gets_until_blk+0x40>
    9ef0:	e59f1018 	ldr	r1, [pc, #24]	; 9f10 <sw_uart_gets_until_blk+0x44>
    9ef4:	e59f2018 	ldr	r2, [pc, #24]	; 9f14 <sw_uart_gets_until_blk+0x48>
    9ef8:	e3a030c8 	mov	r3, #200	; 0xc8
    9efc:	ebfffb0b 	bl	8b30 <printk>
    9f00:	ebfffc8d 	bl	913c <clean_reboot>
    9f04:	e28dd00c 	add	sp, sp, #12
    9f08:	e49df004 	pop	{pc}		; (ldr pc, [sp], #4)
    9f0c:	0000a6d8 	ldrdeq	sl, [r0], -r8
    9f10:	0000a684 	andeq	sl, r0, r4, lsl #13
    9f14:	0000a66c 	andeq	sl, r0, ip, ror #12

00009f18 <uart_init>:
    9f18:	e92d4038 	push	{r3, r4, r5, lr}
    9f1c:	eb00007d 	bl	a118 <dev_barrier>
    9f20:	e3a0000e 	mov	r0, #14
    9f24:	e3a01002 	mov	r1, #2
    9f28:	ebfffd98 	bl	9590 <gpio_set_function>
    9f2c:	e3a0000f 	mov	r0, #15
    9f30:	e3a01002 	mov	r1, #2
    9f34:	ebfffd95 	bl	9590 <gpio_set_function>
    9f38:	eb000076 	bl	a118 <dev_barrier>
    9f3c:	e59f4068 	ldr	r4, [pc, #104]	; 9fac <uart_init+0x94>
    9f40:	e5945000 	ldr	r5, [r4]
    9f44:	e1a00005 	mov	r0, r5
    9f48:	eb000084 	bl	a160 <get32>
    9f4c:	e3801001 	orr	r1, r0, #1
    9f50:	e1a00005 	mov	r0, r5
    9f54:	eb000075 	bl	a130 <put32>
    9f58:	eb00006e 	bl	a118 <dev_barrier>
    9f5c:	e5940004 	ldr	r0, [r4, #4]
    9f60:	e3a01000 	mov	r1, #0
    9f64:	eb000071 	bl	a130 <put32>
    9f68:	e5940008 	ldr	r0, [r4, #8]
    9f6c:	e3a01000 	mov	r1, #0
    9f70:	eb00006e 	bl	a130 <put32>
    9f74:	e594000c 	ldr	r0, [r4, #12]
    9f78:	e3a01006 	mov	r1, #6
    9f7c:	eb00006b 	bl	a130 <put32>
    9f80:	e5940010 	ldr	r0, [r4, #16]
    9f84:	e3a01003 	mov	r1, #3
    9f88:	eb000068 	bl	a130 <put32>
    9f8c:	e5940014 	ldr	r0, [r4, #20]
    9f90:	e59f1018 	ldr	r1, [pc, #24]	; 9fb0 <uart_init+0x98>
    9f94:	eb000065 	bl	a130 <put32>
    9f98:	e5940004 	ldr	r0, [r4, #4]
    9f9c:	e3a01003 	mov	r1, #3
    9fa0:	eb000062 	bl	a130 <put32>
    9fa4:	eb00005b 	bl	a118 <dev_barrier>
    9fa8:	e8bd8038 	pop	{r3, r4, r5, pc}
    9fac:	0000a450 	andeq	sl, r0, r0, asr r4
    9fb0:	0000010e 	andeq	r0, r0, lr, lsl #2

00009fb4 <uart_can_getc>:
    9fb4:	e92d4008 	push	{r3, lr}
    9fb8:	e59f300c 	ldr	r3, [pc, #12]	; 9fcc <uart_can_getc+0x18>
    9fbc:	e5930018 	ldr	r0, [r3, #24]
    9fc0:	eb000066 	bl	a160 <get32>
    9fc4:	e2000001 	and	r0, r0, #1
    9fc8:	e8bd8008 	pop	{r3, pc}
    9fcc:	0000a450 	andeq	sl, r0, r0, asr r4

00009fd0 <uart_getc>:
    9fd0:	e92d4008 	push	{r3, lr}
    9fd4:	ebfffff6 	bl	9fb4 <uart_can_getc>
    9fd8:	e3500000 	cmp	r0, #0
    9fdc:	0afffffc 	beq	9fd4 <uart_getc+0x4>
    9fe0:	e59f300c 	ldr	r3, [pc, #12]	; 9ff4 <uart_getc+0x24>
    9fe4:	e593001c 	ldr	r0, [r3, #28]
    9fe8:	eb00005c 	bl	a160 <get32>
    9fec:	e6ef0070 	uxtb	r0, r0
    9ff0:	e8bd8008 	pop	{r3, pc}
    9ff4:	0000a450 	andeq	sl, r0, r0, asr r4

00009ff8 <uart_can_putc>:
    9ff8:	e92d4008 	push	{r3, lr}
    9ffc:	e59f300c 	ldr	r3, [pc, #12]	; a010 <uart_can_putc+0x18>
    a000:	e5930018 	ldr	r0, [r3, #24]
    a004:	eb000055 	bl	a160 <get32>
    a008:	e2000020 	and	r0, r0, #32
    a00c:	e8bd8008 	pop	{r3, pc}
    a010:	0000a450 	andeq	sl, r0, r0, asr r4

0000a014 <uart_putc>:
    a014:	e92d4010 	push	{r4, lr}
    a018:	e1a04000 	mov	r4, r0
    a01c:	ebfffff5 	bl	9ff8 <uart_can_putc>
    a020:	e3500000 	cmp	r0, #0
    a024:	0afffffc 	beq	a01c <uart_putc+0x8>
    a028:	e59f300c 	ldr	r3, [pc, #12]	; a03c <uart_putc+0x28>
    a02c:	e593001c 	ldr	r0, [r3, #28]
    a030:	e1a01004 	mov	r1, r4
    a034:	eb00003d 	bl	a130 <put32>
    a038:	e8bd8010 	pop	{r4, pc}
    a03c:	0000a450 	andeq	sl, r0, r0, asr r4

0000a040 <uart_has_data>:
    a040:	e92d4008 	push	{r3, lr}
    a044:	ebffffda 	bl	9fb4 <uart_can_getc>
    a048:	e8bd8008 	pop	{r3, pc}

0000a04c <uart_getc_async>:
    a04c:	e92d4008 	push	{r3, lr}
    a050:	ebfffffa 	bl	a040 <uart_has_data>
    a054:	e3500000 	cmp	r0, #0
    a058:	0a000001 	beq	a064 <uart_getc_async+0x18>
    a05c:	ebffffdb 	bl	9fd0 <uart_getc>
    a060:	e8bd8008 	pop	{r3, pc}
    a064:	e3e00000 	mvn	r0, #0
    a068:	e8bd8008 	pop	{r3, pc}

0000a06c <int_init>:
    a06c:	e92d4008 	push	{r3, lr}
    a070:	e59f004c 	ldr	r0, [pc, #76]	; a0c4 <int_init+0x58>
    a074:	e3e01000 	mvn	r1, #0
    a078:	eb00002e 	bl	a138 <PUT32>
    a07c:	e59f0044 	ldr	r0, [pc, #68]	; a0c8 <int_init+0x5c>
    a080:	e3e01000 	mvn	r1, #0
    a084:	eb00002b 	bl	a138 <PUT32>
    a088:	eb000022 	bl	a118 <dev_barrier>
    a08c:	e59f3038 	ldr	r3, [pc, #56]	; a0cc <int_init+0x60>
    a090:	e59f0038 	ldr	r0, [pc, #56]	; a0d0 <int_init+0x64>
    a094:	e0630000 	rsb	r0, r3, r0
    a098:	e1a00140 	asr	r0, r0, #2
    a09c:	e3a03000 	mov	r3, #0
    a0a0:	e59fc024 	ldr	ip, [pc, #36]	; a0cc <int_init+0x60>
    a0a4:	ea000003 	b	a0b8 <int_init+0x4c>
    a0a8:	e1a02103 	lsl	r2, r3, #2
    a0ac:	e79c1103 	ldr	r1, [ip, r3, lsl #2]
    a0b0:	e5821000 	str	r1, [r2]
    a0b4:	e2833001 	add	r3, r3, #1
    a0b8:	e1530000 	cmp	r3, r0
    a0bc:	3afffff9 	bcc	a0a8 <int_init+0x3c>
    a0c0:	e8bd8008 	pop	{r3, pc}
    a0c4:	2000b21c 	andcs	fp, r0, ip, lsl r2
    a0c8:	2000b220 	andcs	fp, r0, r0, lsr #4
    a0cc:	0000a19c 	muleq	r0, ip, r1
    a0d0:	0000a1ec 	andeq	sl, r0, ip, ror #3

0000a0d4 <fast_interrupt_vector>:
    a0d4:	e52de004 	push	{lr}		; (str lr, [sp, #-4]!)
    a0d8:	e24dd00c 	sub	sp, sp, #12
    a0dc:	e1a04000 	mov	r4, r0
    a0e0:	ebfffaad 	bl	8b9c <rpi_reset_putc>
    a0e4:	e59f301c 	ldr	r3, [pc, #28]	; a108 <fast_interrupt_vector+0x34>
    a0e8:	e58d3000 	str	r3, [sp]
    a0ec:	e58d4004 	str	r4, [sp, #4]
    a0f0:	e59f0014 	ldr	r0, [pc, #20]	; a10c <fast_interrupt_vector+0x38>
    a0f4:	e59f1014 	ldr	r1, [pc, #20]	; a110 <fast_interrupt_vector+0x3c>
    a0f8:	e59f2014 	ldr	r2, [pc, #20]	; a114 <fast_interrupt_vector+0x40>
    a0fc:	e3a0302f 	mov	r3, #47	; 0x2f
    a100:	ebfffa8a 	bl	8b30 <printk>
    a104:	ebfffc0c 	bl	913c <clean_reboot>
    a108:	0000a798 	muleq	r0, r8, r7
    a10c:	0000a73c 	andeq	sl, r0, ip, lsr r7
    a110:	0000a778 	andeq	sl, r0, r8, ror r7
    a114:	0000a724 	andeq	sl, r0, r4, lsr #14

0000a118 <dev_barrier>:
    a118:	ea000002 	b	a128 <dsb>

0000a11c <dmb>:
    a11c:	e3a00000 	mov	r0, #0
    a120:	ee070fba 	mcr	15, 0, r0, cr7, cr10, {5}
    a124:	e12fff1e 	bx	lr

0000a128 <dsb>:
    a128:	ee070f9a 	mcr	15, 0, r0, cr7, cr10, {4}
    a12c:	e12fff1e 	bx	lr

0000a130 <put32>:
    a130:	e5801000 	str	r1, [r0]
    a134:	e12fff1e 	bx	lr

0000a138 <PUT32>:
    a138:	e5801000 	str	r1, [r0]
    a13c:	e12fff1e 	bx	lr

0000a140 <put16>:
    a140:	e1c010b0 	strh	r1, [r0]
    a144:	e12fff1e 	bx	lr

0000a148 <PUT16>:
    a148:	e1c010b0 	strh	r1, [r0]
    a14c:	e12fff1e 	bx	lr

0000a150 <put8>:
    a150:	e5c01000 	strb	r1, [r0]
    a154:	e12fff1e 	bx	lr

0000a158 <PUT8>:
    a158:	e5c01000 	strb	r1, [r0]
    a15c:	e12fff1e 	bx	lr

0000a160 <get32>:
    a160:	e5900000 	ldr	r0, [r0]
    a164:	e12fff1e 	bx	lr

0000a168 <GET32>:
    a168:	e5900000 	ldr	r0, [r0]
    a16c:	e12fff1e 	bx	lr

0000a170 <GETPC>:
    a170:	e1a0000e 	mov	r0, lr
    a174:	e12fff1e 	bx	lr

0000a178 <dummy>:
    a178:	e12fff1e 	bx	lr

0000a17c <system_enable_interrupts>:
    a17c:	e10f0000 	mrs	r0, CPSR
    a180:	e3c00080 	bic	r0, r0, #128	; 0x80
    a184:	e121f000 	msr	CPSR_c, r0
    a188:	e12fff1e 	bx	lr

0000a18c <system_disable_interrupts>:
    a18c:	e10f0000 	mrs	r0, CPSR
    a190:	e3800080 	orr	r0, r0, #128	; 0x80
    a194:	e121f000 	msr	CPSR_c, r0
    a198:	e12fff1e 	bx	lr

0000a19c <_interrupt_table>:
    a19c:	e59ff030 	ldr	pc, [pc, #48]	; a1d4 <_reset_asm>
    a1a0:	e59ff030 	ldr	pc, [pc, #48]	; a1d8 <_undefined_instruction_asm>
    a1a4:	e59ff030 	ldr	pc, [pc, #48]	; a1dc <_software_interrupt_asm>
    a1a8:	e59ff030 	ldr	pc, [pc, #48]	; a1e0 <_prefetch_abort_asm>
    a1ac:	e59ff030 	ldr	pc, [pc, #48]	; a1e4 <_data_abort_asm>
    a1b0:	e59ff01c 	ldr	pc, [pc, #28]	; a1d4 <_reset_asm>
    a1b4:	e59ff02c 	ldr	pc, [pc, #44]	; a1e8 <_interrupt_asm>

0000a1b8 <fast_interrupt_asm>:
    a1b8:	e24ee004 	sub	lr, lr, #4
    a1bc:	e52de004 	push	{lr}		; (str lr, [sp, #-4]!)
    a1c0:	e92d1fff 	push	{r0, r1, r2, r3, r4, r5, r6, r7, r8, r9, sl, fp, ip}
    a1c4:	e1a0000e 	mov	r0, lr
    a1c8:	ebffffc1 	bl	a0d4 <fast_interrupt_vector>
    a1cc:	e8bd1fff 	pop	{r0, r1, r2, r3, r4, r5, r6, r7, r8, r9, sl, fp, ip}
    a1d0:	e8fd8000 	ldm	sp!, {pc}^

0000a1d4 <_reset_asm>:
    a1d4:	0000a234 	andeq	sl, r0, r4, lsr r2

0000a1d8 <_undefined_instruction_asm>:
    a1d8:	0000a23c 	andeq	sl, r0, ip, lsr r2

0000a1dc <_software_interrupt_asm>:
    a1dc:	0000a208 	andeq	sl, r0, r8, lsl #4

0000a1e0 <_prefetch_abort_asm>:
    a1e0:	0000a244 	andeq	sl, r0, r4, asr #4

0000a1e4 <_data_abort_asm>:
    a1e4:	0000a24c 	andeq	sl, r0, ip, asr #4

0000a1e8 <_interrupt_asm>:
    a1e8:	0000a1ec 	andeq	sl, r0, ip, ror #3

0000a1ec <_interrupt_table_end>:
    a1ec:	e3a0d409 	mov	sp, #150994944	; 0x9000000
    a1f0:	e24ee004 	sub	lr, lr, #4
    a1f4:	e92d5fff 	push	{r0, r1, r2, r3, r4, r5, r6, r7, r8, r9, sl, fp, ip, lr}
    a1f8:	e1a0000e 	mov	r0, lr
    a1fc:	ebfff86c 	bl	83b4 <interrupt_vector>
    a200:	e8bd5fff 	pop	{r0, r1, r2, r3, r4, r5, r6, r7, r8, r9, sl, fp, ip, lr}
    a204:	e1b0f00e 	movs	pc, lr

0000a208 <software_interrupt_asm>:
    a208:	e52de004 	push	{lr}		; (str lr, [sp, #-4]!)
    a20c:	e92d1ffe 	push	{r1, r2, r3, r4, r5, r6, r7, r8, r9, sl, fp, ip}
    a210:	e24ee004 	sub	lr, lr, #4
    a214:	e1a0200e 	mov	r2, lr
    a218:	e1a01000 	mov	r1, r0
    a21c:	e1a0000e 	mov	r0, lr
    a220:	eb000003 	bl	a234 <reset_asm>
    a224:	e8bd1ffe 	pop	{r1, r2, r3, r4, r5, r6, r7, r8, r9, sl, fp, ip}
    a228:	e49de004 	pop	{lr}		; (ldr lr, [sp], #4)
    a22c:	e8fd8000 	ldm	sp!, {pc}^
    a230:	e1b0f00e 	movs	pc, lr

0000a234 <reset_asm>:
    a234:	e24ee004 	sub	lr, lr, #4
    a238:	eb000040 	bl	a340 <reset_vector>

0000a23c <undefined_instruction_asm>:
    a23c:	e24ee004 	sub	lr, lr, #4
    a240:	eb00004f 	bl	a384 <undefined_instruction_vector>

0000a244 <prefetch_abort_asm>:
    a244:	e24ee004 	sub	lr, lr, #4
    a248:	eb00002b 	bl	a2fc <prefetch_abort_vector>

0000a24c <data_abort_asm>:
    a24c:	e3a0d409 	mov	sp, #150994944	; 0x9000000
    a250:	e24ee008 	sub	lr, lr, #8
    a254:	e92d5fff 	push	{r0, r1, r2, r3, r4, r5, r6, r7, r8, r9, sl, fp, ip, lr}
    a258:	e1a0000e 	mov	r0, lr
    a25c:	eb000015 	bl	a2b8 <data_abort_vector>
    a260:	e8bd5fff 	pop	{r0, r1, r2, r3, r4, r5, r6, r7, r8, r9, sl, fp, ip, lr}
    a264:	e1b0f00e 	movs	pc, lr

0000a268 <cb_new>:
    a268:	e92d4008 	push	{r3, lr}
    a26c:	e3a00409 	mov	r0, #150994944	; 0x9000000
    a270:	e3a01000 	mov	r1, #0
    a274:	e3a02004 	mov	r2, #4
    a278:	eb000052 	bl	a3c8 <memset>
    a27c:	e3a00409 	mov	r0, #150994944	; 0x9000000
    a280:	e59f3004 	ldr	r3, [pc, #4]	; a28c <cb_new+0x24>
    a284:	e5803000 	str	r3, [r0]
    a288:	e8bd8008 	pop	{r3, pc}
    a28c:	12345678 	eorsne	r5, r4, #120, 12	; 0x7800000

0000a290 <cb_get_block>:
    a290:	e3a03409 	mov	r3, #150994944	; 0x9000000
    a294:	e5932000 	ldr	r2, [r3]
    a298:	e59f3014 	ldr	r3, [pc, #20]	; a2b4 <cb_get_block+0x24>
    a29c:	e1520003 	cmp	r2, r3
    a2a0:	0a000001 	beq	a2ac <cb_get_block+0x1c>
    a2a4:	e3a00000 	mov	r0, #0
    a2a8:	e12fff1e 	bx	lr
    a2ac:	e3a00409 	mov	r0, #150994944	; 0x9000000
    a2b0:	e12fff1e 	bx	lr
    a2b4:	12345678 	eorsne	r5, r4, #120, 12	; 0x7800000

0000a2b8 <data_abort_vector>:
    a2b8:	e52de004 	push	{lr}		; (str lr, [sp, #-4]!)
    a2bc:	e24dd00c 	sub	sp, sp, #12
    a2c0:	e1a04000 	mov	r4, r0
    a2c4:	ebfffa34 	bl	8b9c <rpi_reset_putc>
    a2c8:	e59f301c 	ldr	r3, [pc, #28]	; a2ec <data_abort_vector+0x34>
    a2cc:	e58d3000 	str	r3, [sp]
    a2d0:	e58d4004 	str	r4, [sp, #4]
    a2d4:	e59f0014 	ldr	r0, [pc, #20]	; a2f0 <data_abort_vector+0x38>
    a2d8:	e59f1014 	ldr	r1, [pc, #20]	; a2f4 <data_abort_vector+0x3c>
    a2dc:	e59f2014 	ldr	r2, [pc, #20]	; a2f8 <data_abort_vector+0x40>
    a2e0:	e3a03002 	mov	r3, #2
    a2e4:	ebfffa11 	bl	8b30 <printk>
    a2e8:	ebfffb93 	bl	913c <clean_reboot>
    a2ec:	0000a7e4 	andeq	sl, r0, r4, ror #15
    a2f0:	0000a73c 	andeq	sl, r0, ip, lsr r7
    a2f4:	0000a7b4 			; <UNDEFINED> instruction: 0x0000a7b4
    a2f8:	0000a7a0 	andeq	sl, r0, r0, lsr #15

0000a2fc <prefetch_abort_vector>:
    a2fc:	e52de004 	push	{lr}		; (str lr, [sp, #-4]!)
    a300:	e24dd00c 	sub	sp, sp, #12
    a304:	e1a04000 	mov	r4, r0
    a308:	ebfffa23 	bl	8b9c <rpi_reset_putc>
    a30c:	e59f301c 	ldr	r3, [pc, #28]	; a330 <prefetch_abort_vector+0x34>
    a310:	e58d3000 	str	r3, [sp]
    a314:	e58d4004 	str	r4, [sp, #4]
    a318:	e59f0014 	ldr	r0, [pc, #20]	; a334 <prefetch_abort_vector+0x38>
    a31c:	e59f1014 	ldr	r1, [pc, #20]	; a338 <prefetch_abort_vector+0x3c>
    a320:	e59f2014 	ldr	r2, [pc, #20]	; a33c <prefetch_abort_vector+0x40>
    a324:	e3a03002 	mov	r3, #2
    a328:	ebfffa00 	bl	8b30 <printk>
    a32c:	ebfffb82 	bl	913c <clean_reboot>
    a330:	0000a834 	andeq	sl, r0, r4, lsr r8
    a334:	0000a73c 	andeq	sl, r0, ip, lsr r7
    a338:	0000a808 	andeq	sl, r0, r8, lsl #16
    a33c:	0000a7f0 	strdeq	sl, [r0], -r0

0000a340 <reset_vector>:
    a340:	e52de004 	push	{lr}		; (str lr, [sp, #-4]!)
    a344:	e24dd00c 	sub	sp, sp, #12
    a348:	e1a04000 	mov	r4, r0
    a34c:	ebfffa12 	bl	8b9c <rpi_reset_putc>
    a350:	e59f301c 	ldr	r3, [pc, #28]	; a374 <reset_vector+0x34>
    a354:	e58d3000 	str	r3, [sp]
    a358:	e58d4004 	str	r4, [sp, #4]
    a35c:	e59f0014 	ldr	r0, [pc, #20]	; a378 <reset_vector+0x38>
    a360:	e59f1014 	ldr	r1, [pc, #20]	; a37c <reset_vector+0x3c>
    a364:	e59f2014 	ldr	r2, [pc, #20]	; a380 <reset_vector+0x40>
    a368:	e3a03002 	mov	r3, #2
    a36c:	ebfff9ef 	bl	8b30 <printk>
    a370:	ebfffb71 	bl	913c <clean_reboot>
    a374:	0000a880 	andeq	sl, r0, r0, lsl #17
    a378:	0000a73c 	andeq	sl, r0, ip, lsr r7
    a37c:	0000a854 	andeq	sl, r0, r4, asr r8
    a380:	0000a844 	andeq	sl, r0, r4, asr #16

0000a384 <undefined_instruction_vector>:
    a384:	e52de004 	push	{lr}		; (str lr, [sp, #-4]!)
    a388:	e24dd00c 	sub	sp, sp, #12
    a38c:	e1a04000 	mov	r4, r0
    a390:	ebfffa01 	bl	8b9c <rpi_reset_putc>
    a394:	e59f301c 	ldr	r3, [pc, #28]	; a3b8 <undefined_instruction_vector+0x34>
    a398:	e58d3000 	str	r3, [sp]
    a39c:	e58d4004 	str	r4, [sp, #4]
    a3a0:	e59f0014 	ldr	r0, [pc, #20]	; a3bc <undefined_instruction_vector+0x38>
    a3a4:	e59f1014 	ldr	r1, [pc, #20]	; a3c0 <undefined_instruction_vector+0x3c>
    a3a8:	e59f2014 	ldr	r2, [pc, #20]	; a3c4 <undefined_instruction_vector+0x40>
    a3ac:	e3a03002 	mov	r3, #2
    a3b0:	ebfff9de 	bl	8b30 <printk>
    a3b4:	ebfffb60 	bl	913c <clean_reboot>
    a3b8:	0000a8dc 	ldrdeq	sl, [r0], -ip
    a3bc:	0000a73c 	andeq	sl, r0, ip, lsr r7
    a3c0:	0000a8a8 	andeq	sl, r0, r8, lsr #17
    a3c4:	0000a888 	andeq	sl, r0, r8, lsl #17

0000a3c8 <memset>:
    a3c8:	e0802002 	add	r2, r0, r2
    a3cc:	e1a03000 	mov	r3, r0
    a3d0:	ea000001 	b	a3dc <memset+0x14>
    a3d4:	e5c31000 	strb	r1, [r3]
    a3d8:	e2833001 	add	r3, r3, #1
    a3dc:	e1530002 	cmp	r3, r2
    a3e0:	3afffffb 	bcc	a3d4 <memset+0xc>
    a3e4:	e12fff1e 	bx	lr

Disassembly of section .data:

0000a3e8 <rpi_putchar>:
    a3e8:	00008b88 	andeq	r8, r0, r8, lsl #23

0000a3ec <putk>:
    a3ec:	00008bc4 	andeq	r8, r0, r4, asr #23

0000a3f0 <GPFSEL0>:
    a3f0:	20200000 	eorcs	r0, r0, r0

0000a3f4 <GPFSEL1>:
    a3f4:	20200004 	eorcs	r0, r0, r4

0000a3f8 <GPFSEL2>:
    a3f8:	20200008 	eorcs	r0, r0, r8

0000a3fc <GPFSEL3>:
    a3fc:	2020000c 	eorcs	r0, r0, ip

0000a400 <GPFSEL4>:
    a400:	20200010 	eorcs	r0, r0, r0, lsl r0

0000a404 <GPFSEL5>:
    a404:	20200014 	eorcs	r0, r0, r4, lsl r0

0000a408 <GPSET0>:
    a408:	2020001c 	eorcs	r0, r0, ip, lsl r0

0000a40c <GPSET1>:
    a40c:	20200020 	eorcs	r0, r0, r0, lsr #32

0000a410 <GPCLR0>:
    a410:	20200028 	eorcs	r0, r0, r8, lsr #32

0000a414 <GPCLR1>:
    a414:	2020002c 	eorcs	r0, r0, ip, lsr #32

0000a418 <GPLEV0>:
    a418:	20200034 	eorcs	r0, r0, r4, lsr r0

0000a41c <GPLEV1>:
    a41c:	20200038 	eorcs	r0, r0, r8, lsr r0

0000a420 <IRQ_PENDING_2>:
    a420:	2000b208 	andcs	fp, r0, r8, lsl #4

0000a424 <GPREN0>:
    a424:	2020004c 	eorcs	r0, r0, ip, asr #32

0000a428 <GPREN1>:
    a428:	20200050 	eorcs	r0, r0, r0, asr r0

0000a42c <ENABLE_IRQS_2>:
    a42c:	2000b214 	andcs	fp, r0, r4, lsl r2

0000a430 <GPFEN0>:
    a430:	20200058 	eorcs	r0, r0, r8, asr r0

0000a434 <GPFEN1>:
    a434:	2020005c 	eorcs	r0, r0, ip, asr r0

0000a438 <GPEDS0>:
    a438:	20200040 	eorcs	r0, r0, r0, asr #32

0000a43c <GPEDS1>:
    a43c:	20200044 	eorcs	r0, r0, r4, asr #32

0000a440 <IRQ_PENDING_1>:
    a440:	2000b204 	andcs	fp, r0, r4, lsl #4

0000a444 <gpio_clr0>:
    a444:	20200028 	eorcs	r0, r0, r8, lsr #32

0000a448 <gpio_set0>:
    a448:	2020001c 	eorcs	r0, r0, ip, lsl r0

0000a44c <gpio_fsel0>:
    a44c:	20200000 	eorcs	r0, r0, r0

0000a450 <AUX_ENABLES>:
    a450:	20215004 	eorcs	r5, r1, r4

0000a454 <AUX_MU_CNTL_REG>:
    a454:	20215060 	eorcs	r5, r1, r0, rrx

0000a458 <AUX_MU_IER_REG>:
    a458:	20215044 	eorcs	r5, r1, r4, asr #32

0000a45c <AUX_MU_IIR_REG>:
    a45c:	20215048 	eorcs	r5, r1, r8, asr #32

0000a460 <AUX_MU_LCR_REG>:
    a460:	2021504c 	eorcs	r5, r1, ip, asr #32

0000a464 <AUX_MU_BAUD_REG>:
    a464:	20215068 	eorcs	r5, r1, r8, rrx

0000a468 <AUX_MU_LSR_REG>:
    a468:	20215054 	eorcs	r5, r1, r4, asr r0

0000a46c <AUX_MU_IO_REG>:
    a46c:	20215040 	eorcs	r5, r1, r0, asr #32

0000a470 <AUX_MU_STAT_REG>:
    a470:	20215064 	eorcs	r5, r1, r4, rrx

0000a474 <AUX_MU_SCRATCH>:
    a474:	2021505c 	eorcs	r5, r1, ip, asr r0

0000a478 <AUX_MU_MSR_REG>:
    a478:	20215058 	eorcs	r5, r1, r8, asr r0

0000a47c <AUX_MU_MCR_REG>:
    a47c:	20215050 	eorcs	r5, r1, r0, asr r0

0000a480 <AUX_IRQ>:
    a480:	20215000 	eorcs	r5, r1, r0

Disassembly of section .rodata:

0000a484 <__FUNCTION__.4465>:
    a484:	6c637963 	stclvs	9, cr7, [r3], #-396	; 0xfffffe74
    a488:	705f7365 	subsvc	r7, pc, r5, ror #6
    a48c:	735f7265 	cmpvc	pc, #1342177286	; 0x50000006
    a490:	00006365 	andeq	r6, r0, r5, ror #6
    a494:	4f525245 	svcmi	0x00525245
    a498:	73253a52 	teqvc	r5, #335872	; 0x52000
    a49c:	3a73253a 	bcc	1cd398c <__bss_end__+0x1cc8c74>
    a4a0:	203a6425 	eorscs	r6, sl, r5, lsr #8
    a4a4:	534c4146 	movtpl	r4, #49478	; 0xc146
    a4a8:	733c2845 	teqvc	ip, #4521984	; 0x450000
    a4ac:	32203c20 	eorcc	r3, r0, #32, 24	; 0x2000
    a4b0:	203a293e 	eorscs	r2, sl, lr, lsr r9
    a4b4:	6c6c6977 	stclvs	9, cr6, [ip], #-476	; 0xfffffe24
    a4b8:	65766f20 	ldrbvs	r6, [r6, #-3872]!	; 0xf20
    a4bc:	6f6c6672 	svcvs	0x006c6672
    a4c0:	00000a77 	andeq	r0, r0, r7, ror sl
    a4c4:	6f6c2d32 	svcvs	0x006c2d32
    a4c8:	2d636967 	stclcs	9, cr6, [r3, #-412]!	; 0xfffffe64
    a4cc:	6c616e61 	stclvs	14, cr6, [r1], #-388	; 0xfffffe7c
    a4d0:	72657a79 	rsbvc	r7, r5, #495616	; 0x79000
    a4d4:	0000632e 	andeq	r6, r0, lr, lsr #6
    a4d8:	61206d61 	teqvs	r0, r1, ror #26
    a4dc:	696c6320 	stmdbvs	ip!, {r5, r8, r9, sp, lr}^
    a4e0:	20746e65 	rsbscs	r6, r4, r5, ror #28
    a4e4:	0000000a 	andeq	r0, r0, sl

0000a4e8 <__FUNCTION__.4265>:
    a4e8:	74696d65 	strbtvc	r6, [r9], #-3429	; 0xd65
    a4ec:	00000000 	andeq	r0, r0, r0

0000a4f0 <__FUNCTION__.4213>:
    a4f0:	5f697072 	svcpl	0x00697072
    a4f4:	5f746573 	svcpl	0x00746573
    a4f8:	7074756f 	rsbsvc	r7, r4, pc, ror #10
    a4fc:	00007475 	andeq	r7, r0, r5, ror r4

0000a500 <__FUNCTION__.4287>:
    a500:	705f6176 	subsvc	r6, pc, r6, ror r1	; <UNPREDICTABLE>
    a504:	746e6972 	strbtvc	r6, [lr], #-2418	; 0x972
    a508:	0000006b 	andeq	r0, r0, fp, rrx
    a50c:	494e4150 	stmdbmi	lr, {r4, r6, r8, lr}^
    a510:	73253a43 	teqvc	r5, #274432	; 0x43000
    a514:	3a73253a 	bcc	1cd3a04 <__bss_end__+0x1cc8cec>
    a518:	253a6425 	ldrcs	r6, [sl, #-1061]!	; 0x425
    a51c:	00000a73 	andeq	r0, r0, r3, ror sl
    a520:	6362696c 	cmnvs	r2, #108, 18	; 0x1b0000
    a524:	2d61762f 	stclcs	6, cr7, [r1, #-188]!	; 0xffffff44
    a528:	6e697270 	mcrvs	2, 3, r7, cr9, cr0, {3}
    a52c:	632e6b74 	teqvs	lr, #116, 22	; 0x1d000
    a530:	00000000 	andeq	r0, r0, r0
    a534:	00000030 	andeq	r0, r0, r0, lsr r0
    a538:	33323130 	teqcc	r2, #48, 2
    a53c:	37363534 			; <UNDEFINED> instruction: 0x37363534
    a540:	00003938 	andeq	r3, r0, r8, lsr r9
    a544:	33323130 	teqcc	r2, #48, 2
    a548:	37363534 			; <UNDEFINED> instruction: 0x37363534
    a54c:	62613938 	rsbvs	r3, r1, #56, 18	; 0xe0000
    a550:	66656463 	strbtvs	r6, [r5], -r3, ror #8
    a554:	00000000 	andeq	r0, r0, r0
    a558:	00003130 	andeq	r3, r0, r0, lsr r1
    a55c:	63747570 	cmnvs	r4, #112, 10	; 0x1c000000
    a560:	0070665f 	rsbseq	r6, r0, pc, asr r6
    a564:	74646977 	strbtvc	r6, [r4], #-2423	; 0x977
    a568:	203c2068 	eorscs	r2, ip, r8, rrx
    a56c:	00003233 	andeq	r3, r0, r3, lsr r2
    a570:	494e4150 	stmdbmi	lr, {r4, r6, r8, lr}^
    a574:	73253a43 	teqvc	r5, #274432	; 0x43000
    a578:	3a73253a 	bcc	1cd3a68 <__bss_end__+0x1cc8d50>
    a57c:	663a6425 	ldrtvs	r6, [sl], -r5, lsr #8
    a580:	74616f6c 	strbtvc	r6, [r1], #-3948	; 0xf6c
    a584:	746f6e20 	strbtvc	r6, [pc], #-3616	; a58c <__FUNCTION__.4287+0x8c>
    a588:	616e6520 	cmnvs	lr, r0, lsr #10
    a58c:	64656c62 	strbtvs	r6, [r5], #-3170	; 0xc62
    a590:	0a212121 	beq	852a1c <__bss_end__+0x847d04>
    a594:	00000000 	andeq	r0, r0, r0
    a598:	494e4150 	stmdbmi	lr, {r4, r6, r8, lr}^
    a59c:	73253a43 	teqvc	r5, #274432	; 0x43000
    a5a0:	3a73253a 	bcc	1cd3a90 <__bss_end__+0x1cc8d78>
    a5a4:	703a6425 	eorsvc	r6, sl, r5, lsr #8
    a5a8:	746e6972 	strbtvc	r6, [lr], #-2418	; 0x972
    a5ac:	6e203a6b 	vnmulvs.f32	s6, s0, s23
    a5b0:	6820746f 	stmdavs	r0!, {r0, r1, r2, r3, r5, r6, sl, ip, sp, lr}
    a5b4:	6c646e61 	stclvs	14, cr6, [r4], #-388	; 0xfffffe7c
    a5b8:	20676e69 	rsbcs	r6, r7, r9, ror #28
    a5bc:	63657073 	cmnvs	r5, #115	; 0x73
    a5c0:	65696669 	strbvs	r6, [r9, #-1641]!	; 0x669
    a5c4:	25272072 	strcs	r2, [r7, #-114]!	; 0x72
    a5c8:	0a0a2763 	beq	29435c <__bss_end__+0x289644>
    a5cc:	00000000 	andeq	r0, r0, r0
    a5d0:	454e4f44 	strbmi	r4, [lr, #-3908]	; 0xf44
    a5d4:	0a212121 	beq	852a60 <__bss_end__+0x847d48>
    a5d8:	00000000 	andeq	r0, r0, r0
    a5dc:	756f6261 	strbvc	r6, [pc, #-609]!	; a383 <reset_vector+0x43>
    a5e0:	6f742074 	svcvs	0x00742074
    a5e4:	69727020 	ldmdbvs	r2!, {r5, ip, sp, lr}^
    a5e8:	6f20746e 	svcvs	0x0020746e
    a5ec:	6572206e 	ldrbvs	r2, [r2, #-110]!	; 0x6e
    a5f0:	616c7567 	cmnvs	ip, r7, ror #10
    a5f4:	72702072 	rsbsvc	r2, r0, #114	; 0x72
    a5f8:	66746e69 	ldrbtvs	r6, [r4], -r9, ror #28
    a5fc:	0000000a 	andeq	r0, r0, sl
    a600:	63637573 	cmnvs	r3, #482344960	; 0x1cc00000
    a604:	21737365 	cmncs	r3, r5, ror #6
    a608:	0000000a 	andeq	r0, r0, sl

0000a60c <__FUNCTION__.4314>:
    a60c:	755f7773 	ldrbvc	r7, [pc, #-1907]	; 9ea1 <sw_uart_printk+0x65>
    a610:	5f747261 	svcpl	0x00747261
    a614:	73746567 	cmnvc	r4, #432013312	; 0x19c00000
    a618:	746e755f 	strbtvc	r7, [lr], #-1375	; 0x55f
    a61c:	00006c69 	andeq	r6, r0, r9, ror #24

0000a620 <__FUNCTION__.4326>:
    a620:	755f7773 	ldrbvc	r7, [pc, #-1907]	; 9eb5 <sw_uart_printk+0x79>
    a624:	5f747261 	svcpl	0x00747261
    a628:	73746567 	cmnvc	r4, #432013312	; 0x19c00000
    a62c:	6d69745f 	cfstrdvs	mvd7, [r9, #-380]!	; 0xfffffe84
    a630:	74756f65 	ldrbtvc	r6, [r5], #-3941	; 0xf65
    a634:	00000000 	andeq	r0, r0, r0

0000a638 <__FUNCTION__.4340>:
    a638:	755f7773 	ldrbvc	r7, [pc, #-1907]	; 9ecd <sw_uart_gets_until_blk+0x1>
    a63c:	5f747261 	svcpl	0x00747261
    a640:	74696e69 	strbtvc	r6, [r9], #-3689	; 0xe69
    a644:	6c65685f 	stclvs	8, cr6, [r5], #-380	; 0xfffffe84
    a648:	00726570 	rsbseq	r6, r2, r0, ror r5

0000a64c <__FUNCTION__.4346>:
    a64c:	755f7773 	ldrbvc	r7, [pc, #-1907]	; 9ee1 <sw_uart_gets_until_blk+0x15>
    a650:	5f747261 	svcpl	0x00747261
    a654:	63746567 	cmnvs	r4, #432013312	; 0x19c00000
    a658:	00000000 	andeq	r0, r0, r0

0000a65c <__FUNCTION__.4368>:
    a65c:	755f7773 	ldrbvc	r7, [pc, #-1907]	; 9ef1 <sw_uart_gets_until_blk+0x25>
    a660:	5f747261 	svcpl	0x00747261
    a664:	6e697270 	mcrvs	2, 3, r7, cr9, cr0, {3}
    a668:	00006b74 	andeq	r6, r0, r4, ror fp

0000a66c <__FUNCTION__.4376>:
    a66c:	755f7773 	ldrbvc	r7, [pc, #-1907]	; 9f01 <sw_uart_gets_until_blk+0x35>
    a670:	5f747261 	svcpl	0x00747261
    a674:	73746567 	cmnvc	r4, #432013312	; 0x19c00000
    a678:	746e755f 	strbtvc	r7, [lr], #-1375	; 0x55f
    a67c:	625f6c69 	subsvs	r6, pc, #26880	; 0x6900
    a680:	00006b6c 	andeq	r6, r0, ip, ror #22
    a684:	732d796d 	teqvc	sp, #1785856	; 0x1b4000
    a688:	732f6372 	teqvc	pc, #-939524095	; 0xc8000001
    a68c:	61752d77 	cmnvs	r5, r7, ror sp
    a690:	632e7472 	teqvs	lr, #1912602624	; 0x72000000
    a694:	00000000 	andeq	r0, r0, r0
    a698:	7479626e 	ldrbtvc	r6, [r9], #-622	; 0x26e
    a69c:	303e7365 	eorscc	r7, lr, r5, ror #6
    a6a0:	00000000 	andeq	r0, r0, r0
    a6a4:	7a686d28 	bvc	1a25b4c <__bss_end__+0x1a1ae34>
    a6a8:	62202d20 	eorvs	r2, r0, #32, 26	; 0x800
    a6ac:	29647561 	stmdbcs	r4!, {r0, r5, r6, r8, sl, ip, sp, lr}^
    a6b0:	203d3c20 	eorscs	r3, sp, r0, lsr #24
    a6b4:	69726564 	ldmdbvs	r2!, {r2, r5, r6, r8, sl, sp, lr}^
    a6b8:	20646576 	rsbcs	r6, r4, r6, ror r5
    a6bc:	64202626 	strtvs	r2, [r0], #-1574	; 0x626
    a6c0:	76697265 	strbtvc	r7, [r9], -r5, ror #4
    a6c4:	3c206465 	cfstrscc	mvf6, [r0], #-404	; 0xfffffe6c
    a6c8:	6d28203d 	stcvs	0, cr2, [r8, #-244]!	; 0xffffff0c
    a6cc:	2b207a68 	blcs	829074 <__bss_end__+0x81e35c>
    a6d0:	75616220 	strbvc	r6, [r1, #-544]!	; 0x220
    a6d4:	00002964 	andeq	r2, r0, r4, ror #18
    a6d8:	494e4150 	stmdbmi	lr, {r4, r6, r8, lr}^
    a6dc:	73253a43 	teqvc	r5, #274432	; 0x43000
    a6e0:	3a73253a 	bcc	1cd3bd0 <__bss_end__+0x1cc8eb8>
    a6e4:	693a6425 	ldmdbvs	sl!, {r0, r2, r5, sl, sp, lr}
    a6e8:	736f706d 	cmnvc	pc, #109	; 0x6d
    a6ec:	6c626973 	stclvs	9, cr6, [r2], #-460	; 0xfffffe34
    a6f0:	68203a65 	stmdavs	r0!, {r0, r2, r5, r6, r9, fp, ip, sp}
    a6f4:	20657661 	rsbcs	r7, r5, r1, ror #12
    a6f8:	69206e61 	stmdbvs	r0!, {r0, r5, r6, r9, sl, fp, sp, lr}
    a6fc:	6e69666e 	cdpvs	6, 6, cr6, cr9, cr14, {3}
    a700:	20657469 	rsbcs	r7, r5, r9, ror #8
    a704:	656d6974 	strbvs	r6, [sp, #-2420]!	; 0x974
    a708:	2174756f 	cmncs	r4, pc, ror #10
    a70c:	00000a0a 	andeq	r0, r0, sl, lsl #20
    a710:	3c207a73 	stccc	10, cr7, [r0], #-460	; 0xfffffe34
    a714:	7a697320 	bvc	1a6739c <__bss_end__+0x1a5c684>
    a718:	20666f65 	rsbcs	r6, r6, r5, ror #30
    a71c:	2d667562 	cfstr64cs	mvdx7, [r6, #-392]!	; 0xfffffe78
    a720:	00000031 	andeq	r0, r0, r1, lsr r0

0000a724 <__FUNCTION__.4255>:
    a724:	74736166 	ldrbtvc	r6, [r3], #-358	; 0x166
    a728:	746e695f 	strbtvc	r6, [lr], #-2399	; 0x95f
    a72c:	75727265 	ldrbvc	r7, [r2, #-613]!	; 0x265
    a730:	765f7470 			; <UNDEFINED> instruction: 0x765f7470
    a734:	6f746365 	svcvs	0x00746365
    a738:	00000072 	andeq	r0, r0, r2, ror r0
    a73c:	494e4150 	stmdbmi	lr, {r4, r6, r8, lr}^
    a740:	73253a43 	teqvc	r5, #274432	; 0x43000
    a744:	3a73253a 	bcc	1cd3c34 <__bss_end__+0x1cc8f1c>
    a748:	453a6425 	ldrmi	r6, [sl, #-1061]!	; 0x425
    a74c:	524f5252 	subpl	r5, pc, #536870917	; 0x20000005
    a750:	6e75203a 	mrcvs	0, 3, r2, cr5, cr10, {1}
    a754:	646e6168 	strbtvs	r6, [lr], #-360	; 0x168
    a758:	2064656c 	rsbcs	r6, r4, ip, ror #10
    a75c:	65637865 	strbvs	r7, [r3, #-2149]!	; 0x865
    a760:	6f697470 	svcvs	0x00697470
    a764:	253c206e 	ldrcs	r2, [ip, #-110]!	; 0x6e
    a768:	61203e73 	teqvs	r0, r3, ror lr
    a76c:	43502074 	cmpmi	r0, #116	; 0x74
    a770:	0a78253d 	beq	1e13c6c <__bss_end__+0x1e08f54>
    a774:	0000000a 	andeq	r0, r0, sl
    a778:	34317363 	ldrtcc	r7, [r1], #-867	; 0x363
    a77c:	692d6530 	pushvs	{r4, r5, r8, sl, sp, lr}
    a780:	7265746e 	rsbvc	r7, r5, #1845493760	; 0x6e000000
    a784:	74707572 	ldrbtvc	r7, [r0], #-1394	; 0x572
    a788:	746e692f 	strbtvc	r6, [lr], #-2351	; 0x92f
    a78c:	75727265 	ldrbvc	r7, [r2, #-613]!	; 0x265
    a790:	2d737470 	cfldrdcs	mvd7, [r3, #-448]!	; 0xfffffe40
    a794:	00632e63 	rsbeq	r2, r3, r3, ror #28
    a798:	74736166 	ldrbtvc	r6, [r3], #-358	; 0x166
    a79c:	00000000 	andeq	r0, r0, r0

0000a7a0 <__FUNCTION__.4241>:
    a7a0:	61746164 	cmnvs	r4, r4, ror #2
    a7a4:	6f62615f 	svcvs	0x0062615f
    a7a8:	765f7472 			; <UNDEFINED> instruction: 0x765f7472
    a7ac:	6f746365 	svcvs	0x00746365
    a7b0:	00000072 	andeq	r0, r0, r2, ror r0
    a7b4:	34317363 	ldrtcc	r7, [r1], #-867	; 0x363
    a7b8:	692d6530 	pushvs	{r4, r5, r8, sl, sp, lr}
    a7bc:	7265746e 	rsbvc	r7, r5, #1845493760	; 0x6e000000
    a7c0:	74707572 	ldrbtvc	r7, [r0], #-1394	; 0x572
    a7c4:	6665642f 	strbtvs	r6, [r5], -pc, lsr #8
    a7c8:	746c7561 	strbtvc	r7, [ip], #-1377	; 0x561
    a7cc:	6e61682d 	cdpvs	8, 6, cr6, cr1, cr13, {1}
    a7d0:	72656c64 	rsbvc	r6, r5, #100, 24	; 0x6400
    a7d4:	7461642d 	strbtvc	r6, [r1], #-1069	; 0x42d
    a7d8:	62612d61 	rsbvs	r2, r1, #6208	; 0x1840
    a7dc:	2e74726f 	cdpcs	2, 7, cr7, cr4, cr15, {3}
    a7e0:	00000063 	andeq	r0, r0, r3, rrx
    a7e4:	61746164 	cmnvs	r4, r4, ror #2
    a7e8:	6f626120 	svcvs	0x00626120
    a7ec:	00007472 	andeq	r7, r0, r2, ror r4

0000a7f0 <__FUNCTION__.4241>:
    a7f0:	66657270 			; <UNDEFINED> instruction: 0x66657270
    a7f4:	68637465 	stmdavs	r3!, {r0, r2, r5, r6, sl, ip, sp, lr}^
    a7f8:	6f62615f 	svcvs	0x0062615f
    a7fc:	765f7472 			; <UNDEFINED> instruction: 0x765f7472
    a800:	6f746365 	svcvs	0x00746365
    a804:	00000072 	andeq	r0, r0, r2, ror r0
    a808:	34317363 	ldrtcc	r7, [r1], #-867	; 0x363
    a80c:	692d6530 	pushvs	{r4, r5, r8, sl, sp, lr}
    a810:	7265746e 	rsbvc	r7, r5, #1845493760	; 0x6e000000
    a814:	74707572 	ldrbtvc	r7, [r0], #-1394	; 0x572
    a818:	6665642f 	strbtvs	r6, [r5], -pc, lsr #8
    a81c:	746c7561 	strbtvc	r7, [ip], #-1377	; 0x561
    a820:	6e61682d 	cdpvs	8, 6, cr6, cr1, cr13, {1}
    a824:	72656c64 	rsbvc	r6, r5, #100, 24	; 0x6400
    a828:	6572702d 	ldrbvs	r7, [r2, #-45]!	; 0x2d
    a82c:	63746566 	cmnvs	r4, #427819008	; 0x19800000
    a830:	00632e68 	rsbeq	r2, r3, r8, ror #28
    a834:	66657270 			; <UNDEFINED> instruction: 0x66657270
    a838:	68637465 	stmdavs	r3!, {r0, r2, r5, r6, sl, ip, sp, lr}^
    a83c:	6f626120 	svcvs	0x00626120
    a840:	00007472 	andeq	r7, r0, r2, ror r4

0000a844 <__FUNCTION__.4241>:
    a844:	65736572 	ldrbvs	r6, [r3, #-1394]!	; 0x572
    a848:	65765f74 	ldrbvs	r5, [r6, #-3956]!	; 0xf74
    a84c:	726f7463 	rsbvc	r7, pc, #1660944384	; 0x63000000
    a850:	00000000 	andeq	r0, r0, r0
    a854:	34317363 	ldrtcc	r7, [r1], #-867	; 0x363
    a858:	692d6530 	pushvs	{r4, r5, r8, sl, sp, lr}
    a85c:	7265746e 	rsbvc	r7, r5, #1845493760	; 0x6e000000
    a860:	74707572 	ldrbtvc	r7, [r0], #-1394	; 0x572
    a864:	6665642f 	strbtvs	r6, [r5], -pc, lsr #8
    a868:	746c7561 	strbtvc	r7, [ip], #-1377	; 0x561
    a86c:	6e61682d 	cdpvs	8, 6, cr6, cr1, cr13, {1}
    a870:	72656c64 	rsbvc	r6, r5, #100, 24	; 0x6400
    a874:	7365722d 	cmnvc	r5, #-805306366	; 0xd0000002
    a878:	632e7465 	teqvs	lr, #1694498816	; 0x65000000
    a87c:	00000000 	andeq	r0, r0, r0
    a880:	65736572 	ldrbvs	r6, [r3, #-1394]!	; 0x572
    a884:	00000074 	andeq	r0, r0, r4, ror r0

0000a888 <__FUNCTION__.4241>:
    a888:	65646e75 	strbvs	r6, [r4, #-3701]!	; 0xe75
    a88c:	656e6966 	strbvs	r6, [lr, #-2406]!	; 0x966
    a890:	6e695f64 	cdpvs	15, 6, cr5, cr9, cr4, {3}
    a894:	75727473 	ldrbvc	r7, [r2, #-1139]!	; 0x473
    a898:	6f697463 	svcvs	0x00697463
    a89c:	65765f6e 	ldrbvs	r5, [r6, #-3950]!	; 0xf6e
    a8a0:	726f7463 	rsbvc	r7, pc, #1660944384	; 0x63000000
    a8a4:	00000000 	andeq	r0, r0, r0
    a8a8:	34317363 	ldrtcc	r7, [r1], #-867	; 0x363
    a8ac:	692d6530 	pushvs	{r4, r5, r8, sl, sp, lr}
    a8b0:	7265746e 	rsbvc	r7, r5, #1845493760	; 0x6e000000
    a8b4:	74707572 	ldrbtvc	r7, [r0], #-1394	; 0x572
    a8b8:	6665642f 	strbtvs	r6, [r5], -pc, lsr #8
    a8bc:	746c7561 	strbtvc	r7, [ip], #-1377	; 0x561
    a8c0:	6e61682d 	cdpvs	8, 6, cr6, cr1, cr13, {1}
    a8c4:	72656c64 	rsbvc	r6, r5, #100, 24	; 0x6400
    a8c8:	646e752d 	strbtvs	r7, [lr], #-1325	; 0x52d
    a8cc:	6e696665 	cdpvs	6, 6, cr6, cr9, cr5, {3}
    a8d0:	692d6465 	pushvs	{r0, r2, r5, r6, sl, sp, lr}
    a8d4:	2e74736e 	cdpcs	3, 7, cr7, cr4, cr14, {3}
    a8d8:	00000063 	andeq	r0, r0, r3, rrx
    a8dc:	65646e75 	strbvs	r6, [r4, #-3701]!	; 0xe75
    a8e0:	656e6966 	strbvs	r6, [lr, #-2406]!	; 0x966
    a8e4:	6e692064 	cdpvs	0, 6, cr2, cr9, cr4, {3}
    a8e8:	00007473 	andeq	r7, r0, r3, ror r4

Disassembly of section .bss:

0000a8ec <__bss_start__>:
    a8ec:	00000000 	andeq	r0, r0, r0

0000a8f0 <curr_value>:
    a8f0:	00000000 	andeq	r0, r0, r0

0000a8f4 <cycle_counter>:
    a8f4:	00000000 	andeq	r0, r0, r0

0000a8f8 <nevents>:
    a8f8:	00000000 	andeq	r0, r0, r0

0000a8fc <n_falling_edge>:
    a8fc:	00000000 	andeq	r0, r0, r0

0000a900 <n_rising_edge>:
    a900:	00000000 	andeq	r0, r0, r0

0000a904 <buf.4213>:
	...

0000ad04 <console_uart>:
	...

0000ad10 <rpi_arm_timer_t>:
	...

Disassembly of section .ARM.attributes:

00000000 <.ARM.attributes>:
   0:	00002a41 	andeq	r2, r0, r1, asr #20
   4:	61656100 	cmnvs	r5, r0, lsl #2
   8:	01006962 	tsteq	r0, r2, ror #18
   c:	00000020 	andeq	r0, r0, r0, lsr #32
  10:	4b5a3605 	blmi	168d82c <__bss_end__+0x1682b14>
  14:	08070600 	stmdaeq	r7, {r9, sl}
  18:	12010901 	andne	r0, r1, #16384	; 0x4000
  1c:	15011404 	strne	r1, [r1, #-1028]	; 0x404
  20:	18031701 	stmdane	r3, {r0, r8, r9, sl, ip}
  24:	22011a01 	andcs	r1, r1, #4096	; 0x1000
  28:	Address 0x0000000000000028 is out of bounds.


Disassembly of section .comment:

00000000 <.comment>:
   0:	3a434347 	bcc	10d0d24 <__bss_end__+0x10c600c>
   4:	4e472820 	cdpmi	8, 4, cr2, cr7, cr0, {1}
   8:	34202955 	strtcc	r2, [r0], #-2389	; 0x955
   c:	332e382e 	teqcc	lr, #3014656	; 0x2e0000
	...

Disassembly of section .debug_info:

00000000 <.debug_info>:
       0:	000010bc 	strheq	r1, [r0], -ip
       4:	00000004 	andeq	r0, r0, r4
       8:	01040000 	mrseq	r0, (UNDEF: 4)
       c:	000002a7 	andeq	r0, r0, r7, lsr #5
      10:	00031c01 	andeq	r1, r3, r1, lsl #24
      14:	0001ec00 	andeq	lr, r1, r0, lsl #24
      18:	00801000 	addeq	r1, r0, r0
      1c:	000b2000 	andeq	r2, fp, r0
      20:	00000000 	andeq	r0, r0, r0
      24:	05040200 	streq	r0, [r4, #-512]	; 0x200
      28:	00746e69 	rsbseq	r6, r4, r9, ror #28
      2c:	44070403 	strmi	r0, [r7], #-1027	; 0x403
      30:	03000000 	movweq	r0, #0
      34:	024e0601 	subeq	r0, lr, #1048576	; 0x100000
      38:	02030000 	andeq	r0, r3, #0
      3c:	00026705 	andeq	r6, r2, r5, lsl #14
      40:	05040300 	streq	r0, [r4, #-768]	; 0x300
      44:	00000067 	andeq	r0, r0, r7, rrx
      48:	62050803 	andvs	r0, r5, #196608	; 0x30000
      4c:	04000000 	streq	r0, [r0], #-0
      50:	00000394 	muleq	r0, r4, r3
      54:	005a2e06 	subseq	r2, sl, r6, lsl #28
      58:	01030000 	mrseq	r0, (UNDEF: 3)
      5c:	00024c08 	andeq	r4, r2, r8, lsl #24
      60:	07020300 	streq	r0, [r2, -r0, lsl #6]
      64:	0000015b 	andeq	r0, r0, fp, asr r1
      68:	3f070403 	svccc	0x00070403
      6c:	03000000 	movweq	r0, #0
      70:	003a0708 	eorseq	r0, sl, r8, lsl #14
      74:	04030000 	streq	r0, [r3], #-0
      78:	00019207 	andeq	r9, r1, r7, lsl #4
      7c:	08010300 	stmdaeq	r1, {r8, r9}
      80:	00000255 	andeq	r0, r0, r5, asr r2
      84:	008a0405 	addeq	r0, sl, r5, lsl #8
      88:	7d060000 	stcvc	0, cr0, [r6, #-0]
      8c:	07000000 	streq	r0, [r0, -r0]
      90:	fc330204 	ldc2	2, cr0, [r3], #-16
      94:	08000000 	stmdaeq	r0, {}	; <UNPREDICTABLE>
      98:	000000a7 	andeq	r0, r0, r7, lsr #1
      9c:	8082e880 	addhi	lr, r2, r0, lsl #17
      a0:	00980802 	addseq	r0, r8, r2, lsl #16
      a4:	e8800000 	stm	r0, {}	; <UNPREDICTABLE>
      a8:	08028082 	stmdaeq	r2, {r1, r7, pc}
      ac:	00000344 	andeq	r0, r0, r4, asr #6
      b0:	8082e884 	addhi	lr, r2, r4, lsl #17
      b4:	007f0802 	rsbseq	r0, pc, r2, lsl #16
      b8:	e8880000 	stm	r8, {}	; <UNPREDICTABLE>
      bc:	08028082 	stmdaeq	r2, {r1, r7, pc}
      c0:	00000354 	andeq	r0, r0, r4, asr r3
      c4:	8082e88c 	addhi	lr, r2, ip, lsl #17
      c8:	001f0802 	andseq	r0, pc, r2, lsl #16
      cc:	e8900000 	ldm	r0, {}	; <UNPREDICTABLE>
      d0:	08028082 	stmdaeq	r2, {r1, r7, pc}
      d4:	000000e7 	andeq	r0, r0, r7, ror #1
      d8:	8082e894 	umullhi	lr, r2, r4, r8
      dc:	019b0802 	orrseq	r0, fp, r2, lsl #16
      e0:	e8980000 	ldm	r8, {}	; <UNPREDICTABLE>
      e4:	08028082 	stmdaeq	r2, {r1, r7, pc}
      e8:	0000032f 	andeq	r0, r0, pc, lsr #6
      ec:	8082e89c 	umullhi	lr, r2, ip, r8
      f0:	03d60802 	bicseq	r0, r6, #131072	; 0x20000
      f4:	e8a00000 	stmia	r0!, {}	; <UNPREDICTABLE>
      f8:	00028082 	andeq	r8, r2, r2, lsl #1
      fc:	00002c09 	andeq	r2, r0, r9, lsl #24
     100:	00510a00 	subseq	r0, r1, r0, lsl #20
     104:	29010000 	stmdbcs	r1, {}	; <UNPREDICTABLE>
     108:	00011903 	andeq	r1, r1, r3, lsl #18
     10c:	69700b00 	ldmdbvs	r0!, {r8, r9, fp}^
     110:	2901006e 	stmdbcs	r1, {r1, r2, r3, r5, r6}
     114:	0000002c 	andeq	r0, r0, ip, lsr #32
     118:	00d50a00 	sbcseq	r0, r5, r0, lsl #20
     11c:	2e010000 	cdpcs	0, 0, cr0, cr1, cr0, {0}
     120:	00013103 	andeq	r3, r1, r3, lsl #2
     124:	69700b00 	ldmdbvs	r0!, {r8, r9, fp}^
     128:	2e01006e 	cdpcs	0, 0, cr0, cr1, cr14, {3}
     12c:	0000002c 	andeq	r0, r0, ip, lsr #32
     130:	000f0a00 	andeq	r0, pc, r0, lsl #20
     134:	33010000 	movwcc	r0, #4096	; 0x1000
     138:	00015203 	andeq	r5, r1, r3, lsl #4
     13c:	69700b00 	ldmdbvs	r0!, {r8, r9, fp}^
     140:	3301006e 	movwcc	r0, #4206	; 0x106e
     144:	0000002c 	andeq	r0, r0, ip, lsr #32
     148:	0100760b 	tsteq	r0, fp, lsl #12
     14c:	00002c33 	andeq	r2, r0, r3, lsr ip
     150:	7a0c0000 	bvc	300158 <__bss_end__+0x2f5440>
     154:	01000002 	tsteq	r0, r2
     158:	00002c41 	andeq	r2, r0, r1, asr #24
     15c:	00801000 	addeq	r1, r0, r0
     160:	00005000 	andeq	r5, r0, r0
     164:	2e9c0100 	fmlcse	f0, f4, f0
     168:	0d000002 	stceq	0, cr0, [r0, #-8]
     16c:	41010073 	tstmi	r1, r3, ror r0
     170:	0000002c 	andeq	r0, r0, ip, lsr #32
     174:	00000000 	andeq	r0, r0, r0
     178:	00014e0e 	andeq	r4, r1, lr, lsl #28
     17c:	00023e00 	andeq	r3, r2, r0, lsl #28
     180:	84030500 	strhi	r0, [r3], #-1280	; 0x500
     184:	0f0000a4 	svceq	0x000000a4
     188:	00000293 	muleq	r0, r3, r2
     18c:	002c4301 	eoreq	r4, ip, r1, lsl #6
     190:	6e100000 	cdpvs	0, 1, cr0, cr0, cr0, {0}
     194:	01000001 	tsteq	r0, r1
     198:	00002c45 	andeq	r2, r0, r5, asr #24
     19c:	00003a00 	andeq	r3, r0, r0, lsl #20
     1a0:	80381100 	eorshi	r1, r8, r0, lsl #2
     1a4:	00040000 	andeq	r0, r4, r0
     1a8:	01ba0000 			; <UNDEFINED> instruction: 0x01ba0000
     1ac:	c30f0000 	movwgt	r0, #61440	; 0xf000
     1b0:	01000001 	tsteq	r0, r1
     1b4:	00002c43 	andeq	r2, r0, r3, asr #24
     1b8:	48110000 	ldmdami	r1, {}	; <UNPREDICTABLE>
     1bc:	04000080 	streq	r0, [r0], #-128	; 0x80
     1c0:	d7000000 	strle	r0, [r0, -r0]
     1c4:	10000001 	andne	r0, r0, r1
     1c8:	000001c3 	andeq	r0, r0, r3, asr #3
     1cc:	002c4501 	eoreq	r4, ip, r1, lsl #10
     1d0:	003a0000 	eorseq	r0, sl, r0
     1d4:	12000000 	andne	r0, r0, #0
     1d8:	00008020 	andeq	r8, r0, r0, lsr #32
     1dc:	00001023 	andeq	r1, r0, r3, lsr #32
     1e0:	00803413 	addeq	r3, r0, r3, lsl r4
     1e4:	00102a00 	andseq	r2, r0, r0, lsl #20
     1e8:	00020f00 	andeq	r0, r2, r0, lsl #30
     1ec:	53011400 	movwpl	r1, #5120	; 0x1400
     1f0:	14420802 	strbne	r0, [r2], #-2050	; 0x802
     1f4:	03055201 	movweq	r5, #20993	; 0x5201
     1f8:	0000a484 	andeq	sl, r0, r4, lsl #9
     1fc:	05510114 	ldrbeq	r0, [r1, #-276]	; 0x114
     200:	00a4c403 	adceq	ip, r4, r3, lsl #8
     204:	50011400 	andpl	r1, r1, r0, lsl #8
     208:	a4940305 	ldrge	r0, [r4], #773	; 0x305
     20c:	12000000 	andne	r0, r0, #0
     210:	00008038 	andeq	r8, r0, r8, lsr r0
     214:	00001040 	andeq	r1, r0, r0, asr #32
     218:	00804815 	addeq	r4, r0, r5, lsl r8
     21c:	00104700 	andseq	r4, r0, r0, lsl #14
     220:	50011400 	andpl	r1, r1, r0, lsl #8
     224:	5001f307 	andpl	pc, r1, r7, lsl #6
     228:	1e03e80a 	cdpne	8, 0, cr14, cr3, cr10, {0}
     22c:	7d160000 	ldcvc	0, cr0, [r6, #-0]
     230:	3e000000 	cdpcc	0, 0, cr0, cr0, cr0, {0}
     234:	17000002 	strne	r0, [r0, -r2]
     238:	00000076 	andeq	r0, r0, r6, ror r0
     23c:	2e06000e 	cdpcs	0, 0, cr0, cr6, cr14, {0}
     240:	18000002 	stmdane	r0, {r1}
     244:	000000c4 	andeq	r0, r0, r4, asr #1
     248:	80607601 	rsbhi	r7, r0, r1, lsl #12
     24c:	028c0000 	addeq	r0, ip, #0
     250:	9c010000 	stcls	0, cr0, [r1], {-0}
     254:	000006f9 	strdeq	r0, [r0], -r9
     258:	6e69700d 	cdpvs	0, 6, cr7, cr9, cr13, {0}
     25c:	2c760100 	ldfcse	f0, [r6], #-0
     260:	4d000000 	stcmi	0, cr0, [r0, #-0]
     264:	19000000 	stmdbne	r0, {}	; <UNPREDICTABLE>
     268:	00000a27 	andeq	r0, r0, r7, lsr #20
     26c:	004f7601 	subeq	r7, pc, r1, lsl #12
     270:	006e0000 	rsbeq	r0, lr, r0
     274:	78190000 	ldmdavc	r9, {}	; <UNPREDICTABLE>
     278:	01000000 	mrseq	r0, (UNDEF: 0)
     27c:	00002c76 	andeq	r2, r0, r6, ror ip
     280:	0000a800 	andeq	sl, r0, r0, lsl #16
     284:	00691a00 	rsbeq	r1, r9, r0, lsl #20
     288:	002c7701 	eoreq	r7, ip, r1, lsl #14
     28c:	1b010000 	blne	40294 <__bss_end__+0x3557c>
     290:	000005f7 	strdeq	r0, [r0], -r7
     294:	002c7801 	eoreq	r7, ip, r1, lsl #16
     298:	53010000 	movwpl	r0, #4096	; 0x1000
     29c:	00806411 	addeq	r6, r0, r1, lsl r4
     2a0:	00000400 	andeq	r0, r0, r0, lsl #8
     2a4:	0002b700 	andeq	fp, r2, r0, lsl #14
     2a8:	01c31b00 	biceq	r1, r3, r0, lsl #22
     2ac:	78010000 	stmdavc	r1, {}	; <UNPREDICTABLE>
     2b0:	0000002c 	andeq	r0, r0, ip, lsr #32
     2b4:	1c005301 	stcne	3, cr5, [r0], {1}
     2b8:	00000119 	andeq	r0, r0, r9, lsl r1
     2bc:	00008068 	andeq	r8, r0, r8, rrx
     2c0:	00000018 	andeq	r0, r0, r8, lsl r0
     2c4:	02d47a01 	sbcseq	r7, r4, #4096	; 0x1000
     2c8:	251d0000 	ldrcs	r0, [sp, #-0]
     2cc:	c9000001 	stmdbgt	r0, {r0}
     2d0:	00000000 	andeq	r0, r0, r0
     2d4:	00808411 	addeq	r8, r0, r1, lsl r4
     2d8:	00000400 	andeq	r0, r0, r0, lsl #8
     2dc:	0002f100 	andeq	pc, r2, r0, lsl #2
     2e0:	01c31000 	biceq	r1, r3, r0
     2e4:	7b010000 	blvc	402ec <__bss_end__+0x355d4>
     2e8:	0000002c 	andeq	r0, r0, ip, lsr #32
     2ec:	000000ea 	andeq	r0, r0, sl, ror #1
     2f0:	01311c00 	teqeq	r1, r0, lsl #24
     2f4:	80940000 	addshi	r0, r4, r0
     2f8:	002c0000 	eoreq	r0, ip, r0
     2fc:	7c010000 	stcvc	0, cr0, [r1], {-0}
     300:	0000034e 	andeq	r0, r0, lr, asr #6
     304:	0001481d 	andeq	r4, r1, sp, lsl r8
     308:	0000fd00 	andeq	pc, r0, r0, lsl #26
     30c:	013d1e00 	teqeq	sp, r0, lsl #28
     310:	f3040000 	vhadd.u8	d0, d4, d0
     314:	1c9f5001 	ldcne	0, cr5, [pc], {1}
     318:	00000101 	andeq	r0, r0, r1, lsl #2
     31c:	0000809c 	muleq	r0, ip, r0
     320:	00000014 	andeq	r0, r0, r4, lsl r0
     324:	03343601 	teqeq	r4, #1048576	; 0x100000
     328:	0d1d0000 	ldceq	0, cr0, [sp, #-0]
     32c:	2b000001 	blcs	338 <_start-0x7cc8>
     330:	00000001 	andeq	r0, r0, r1
     334:	0001191f 	andeq	r1, r1, pc, lsl r9
     338:	0080b000 	addeq	fp, r0, r0
     33c:	00001000 	andeq	r1, r0, r0
     340:	1d380100 	ldfnes	f0, [r8, #-0]
     344:	00000125 	andeq	r0, r0, r5, lsr #2
     348:	00000141 	andeq	r0, r0, r1, asr #2
     34c:	c4110000 	ldrgt	r0, [r1], #-0
     350:	04000080 	streq	r0, [r0], #-128	; 0x80
     354:	6b000000 	blvs	35c <_start-0x7ca4>
     358:	10000003 	andne	r0, r0, r3
     35c:	000001c3 	andeq	r0, r0, r3, asr #3
     360:	002c7d01 	eoreq	r7, ip, r1, lsl #26
     364:	01570000 	cmpeq	r7, r0
     368:	1c000000 	stcne	0, cr0, [r0], {-0}
     36c:	00000131 	andeq	r0, r0, r1, lsr r1
     370:	000080d4 	ldrdeq	r8, [r0], -r4
     374:	0000002c 	andeq	r0, r0, ip, lsr #32
     378:	03c87e01 	biceq	r7, r8, #1, 28
     37c:	481d0000 	ldmdami	sp, {}	; <UNPREDICTABLE>
     380:	6a000001 	bvs	38c <_start-0x7c74>
     384:	1e000001 	cdpne	0, 0, cr0, cr0, cr1, {0}
     388:	0000013d 	andeq	r0, r0, sp, lsr r1
     38c:	5001f304 	andpl	pc, r1, r4, lsl #6
     390:	01011c9f 			; <UNDEFINED> instruction: 0x01011c9f
     394:	80dc0000 	sbcshi	r0, ip, r0
     398:	00140000 	andseq	r0, r4, r0
     39c:	36010000 	strcc	r0, [r1], -r0
     3a0:	000003ae 	andeq	r0, r0, lr, lsr #7
     3a4:	00010d1d 	andeq	r0, r1, sp, lsl sp
     3a8:	00019800 	andeq	r9, r1, r0, lsl #16
     3ac:	191f0000 	ldmdbne	pc, {}	; <UNPREDICTABLE>
     3b0:	f0000001 			; <UNDEFINED> instruction: 0xf0000001
     3b4:	10000080 	andne	r0, r0, r0, lsl #1
     3b8:	01000000 	mrseq	r0, (UNDEF: 0)
     3bc:	01251d38 	teqeq	r5, r8, lsr sp
     3c0:	01ae0000 			; <UNDEFINED> instruction: 0x01ae0000
     3c4:	00000000 	andeq	r0, r0, r0
     3c8:	00810411 	addeq	r0, r1, r1, lsl r4
     3cc:	00000400 	andeq	r0, r0, r0, lsl #8
     3d0:	0003e500 	andeq	lr, r3, r0, lsl #10
     3d4:	01c31000 	biceq	r1, r3, r0
     3d8:	7f010000 	svcvc	0x00010000
     3dc:	0000002c 	andeq	r0, r0, ip, lsr #32
     3e0:	000001c4 	andeq	r0, r0, r4, asr #3
     3e4:	01311c00 	teqeq	r1, r0, lsl #24
     3e8:	81140000 	tsthi	r4, r0
     3ec:	002c0000 	eoreq	r0, ip, r0
     3f0:	80010000 	andhi	r0, r1, r0
     3f4:	00000442 	andeq	r0, r0, r2, asr #8
     3f8:	0001481d 	andeq	r4, r1, sp, lsl r8
     3fc:	0001d700 	andeq	sp, r1, r0, lsl #14
     400:	013d1e00 	teqeq	sp, r0, lsl #28
     404:	f3040000 	vhadd.u8	d0, d4, d0
     408:	1c9f5001 	ldcne	0, cr5, [pc], {1}
     40c:	00000101 	andeq	r0, r0, r1, lsl #2
     410:	0000811c 	andeq	r8, r0, ip, lsl r1
     414:	00000014 	andeq	r0, r0, r4, lsl r0
     418:	04283601 	strteq	r3, [r8], #-1537	; 0x601
     41c:	0d1d0000 	ldceq	0, cr0, [sp, #-0]
     420:	05000001 	streq	r0, [r0, #-1]
     424:	00000002 	andeq	r0, r0, r2
     428:	0001191f 	andeq	r1, r1, pc, lsl r9
     42c:	00813000 	addeq	r3, r1, r0
     430:	00001000 	andeq	r1, r0, r0
     434:	1d380100 	ldfnes	f0, [r8, #-0]
     438:	00000125 	andeq	r0, r0, r5, lsr #2
     43c:	0000021b 	andeq	r0, r0, fp, lsl r2
     440:	44110000 	ldrmi	r0, [r1], #-0
     444:	04000081 	streq	r0, [r0], #-129	; 0x81
     448:	5f000000 	svcpl	0x00000000
     44c:	10000004 	andne	r0, r0, r4
     450:	000001c3 	andeq	r0, r0, r3, asr #3
     454:	002c8101 	eoreq	r8, ip, r1, lsl #2
     458:	02310000 	eorseq	r0, r1, #0
     45c:	1c000000 	stcne	0, cr0, [r0], {-0}
     460:	00000131 	andeq	r0, r0, r1, lsr r1
     464:	00008154 	andeq	r8, r0, r4, asr r1
     468:	0000002c 	andeq	r0, r0, ip, lsr #32
     46c:	04bc8201 	ldrteq	r8, [ip], #513	; 0x201
     470:	481d0000 	ldmdami	sp, {}	; <UNPREDICTABLE>
     474:	44000001 	strmi	r0, [r0], #-1
     478:	1e000002 	cdpne	0, 0, cr0, cr0, cr2, {0}
     47c:	0000013d 	andeq	r0, r0, sp, lsr r1
     480:	5001f304 	andpl	pc, r1, r4, lsl #6
     484:	01011c9f 			; <UNDEFINED> instruction: 0x01011c9f
     488:	815c0000 	cmphi	ip, r0
     48c:	00140000 	andseq	r0, r4, r0
     490:	36010000 	strcc	r0, [r1], -r0
     494:	000004a2 	andeq	r0, r0, r2, lsr #9
     498:	00010d1d 	andeq	r0, r1, sp, lsl sp
     49c:	00027000 	andeq	r7, r2, r0
     4a0:	191f0000 	ldmdbne	pc, {}	; <UNPREDICTABLE>
     4a4:	70000001 	andvc	r0, r0, r1
     4a8:	10000081 	andne	r0, r0, r1, lsl #1
     4ac:	01000000 	mrseq	r0, (UNDEF: 0)
     4b0:	01251d38 	teqeq	r5, r8, lsr sp
     4b4:	02860000 	addeq	r0, r6, #0
     4b8:	00000000 	andeq	r0, r0, r0
     4bc:	00818411 	addeq	r8, r1, r1, lsl r4
     4c0:	00000400 	andeq	r0, r0, r0, lsl #8
     4c4:	0004d900 	andeq	sp, r4, r0, lsl #18
     4c8:	01c31000 	biceq	r1, r3, r0
     4cc:	83010000 	movwhi	r0, #4096	; 0x1000
     4d0:	0000002c 	andeq	r0, r0, ip, lsr #32
     4d4:	0000029c 	muleq	r0, ip, r2
     4d8:	01311c00 	teqeq	r1, r0, lsl #24
     4dc:	81940000 	orrshi	r0, r4, r0
     4e0:	002c0000 	eoreq	r0, ip, r0
     4e4:	84010000 	strhi	r0, [r1], #-0
     4e8:	00000536 	andeq	r0, r0, r6, lsr r5
     4ec:	0001481d 	andeq	r4, r1, sp, lsl r8
     4f0:	0002af00 	andeq	sl, r2, r0, lsl #30
     4f4:	013d1e00 	teqeq	sp, r0, lsl #28
     4f8:	f3040000 	vhadd.u8	d0, d4, d0
     4fc:	1c9f5001 	ldcne	0, cr5, [pc], {1}
     500:	00000101 	andeq	r0, r0, r1, lsl #2
     504:	0000819c 	muleq	r0, ip, r1
     508:	00000014 	andeq	r0, r0, r4, lsl r0
     50c:	051c3601 	ldreq	r3, [ip, #-1537]	; 0x601
     510:	0d1d0000 	ldceq	0, cr0, [sp, #-0]
     514:	db000001 	blle	520 <_start-0x7ae0>
     518:	00000002 	andeq	r0, r0, r2
     51c:	0001191f 	andeq	r1, r1, pc, lsl r9
     520:	0081b000 	addeq	fp, r1, r0
     524:	00001000 	andeq	r1, r0, r0
     528:	1d380100 	ldfnes	f0, [r8, #-0]
     52c:	00000125 	andeq	r0, r0, r5, lsr #2
     530:	000002f1 	strdeq	r0, [r0], -r1
     534:	c4110000 	ldrgt	r0, [r1], #-0
     538:	04000081 	streq	r0, [r0], #-129	; 0x81
     53c:	53000000 	movwpl	r0, #0
     540:	10000005 	andne	r0, r0, r5
     544:	000001c3 	andeq	r0, r0, r3, asr #3
     548:	002c8501 	eoreq	r8, ip, r1, lsl #10
     54c:	03070000 	movweq	r0, #28672	; 0x7000
     550:	1c000000 	stcne	0, cr0, [r0], {-0}
     554:	00000131 	andeq	r0, r0, r1, lsr r1
     558:	000081d4 	ldrdeq	r8, [r0], -r4
     55c:	0000002c 	andeq	r0, r0, ip, lsr #32
     560:	05b08601 	ldreq	r8, [r0, #1537]!	; 0x601
     564:	481d0000 	ldmdami	sp, {}	; <UNPREDICTABLE>
     568:	1a000001 	bne	574 <_start-0x7a8c>
     56c:	1e000003 	cdpne	0, 0, cr0, cr0, cr3, {0}
     570:	0000013d 	andeq	r0, r0, sp, lsr r1
     574:	5001f304 	andpl	pc, r1, r4, lsl #6
     578:	01011c9f 			; <UNDEFINED> instruction: 0x01011c9f
     57c:	81dc0000 	bicshi	r0, ip, r0
     580:	00140000 	andseq	r0, r4, r0
     584:	36010000 	strcc	r0, [r1], -r0
     588:	00000596 	muleq	r0, r6, r5
     58c:	00010d1d 	andeq	r0, r1, sp, lsl sp
     590:	00034600 	andeq	r4, r3, r0, lsl #12
     594:	191f0000 	ldmdbne	pc, {}	; <UNPREDICTABLE>
     598:	f0000001 			; <UNDEFINED> instruction: 0xf0000001
     59c:	10000081 	andne	r0, r0, r1, lsl #1
     5a0:	01000000 	mrseq	r0, (UNDEF: 0)
     5a4:	01251d38 	teqeq	r5, r8, lsr sp
     5a8:	035c0000 	cmpeq	ip, #0
     5ac:	00000000 	andeq	r0, r0, r0
     5b0:	00820411 	addeq	r0, r2, r1, lsl r4
     5b4:	00000400 	andeq	r0, r0, r0, lsl #8
     5b8:	0005cd00 	andeq	ip, r5, r0, lsl #26
     5bc:	01c31000 	biceq	r1, r3, r0
     5c0:	87010000 	strhi	r0, [r1, -r0]
     5c4:	0000002c 	andeq	r0, r0, ip, lsr #32
     5c8:	00000372 	andeq	r0, r0, r2, ror r3
     5cc:	01311c00 	teqeq	r1, r0, lsl #24
     5d0:	82140000 	andshi	r0, r4, #0
     5d4:	002c0000 	eoreq	r0, ip, r0
     5d8:	88010000 	stmdahi	r1, {}	; <UNPREDICTABLE>
     5dc:	0000062a 	andeq	r0, r0, sl, lsr #12
     5e0:	0001481d 	andeq	r4, r1, sp, lsl r8
     5e4:	00038500 	andeq	r8, r3, r0, lsl #10
     5e8:	013d1e00 	teqeq	sp, r0, lsl #28
     5ec:	f3040000 	vhadd.u8	d0, d4, d0
     5f0:	1c9f5001 	ldcne	0, cr5, [pc], {1}
     5f4:	00000101 	andeq	r0, r0, r1, lsl #2
     5f8:	0000821c 	andeq	r8, r0, ip, lsl r2
     5fc:	00000014 	andeq	r0, r0, r4, lsl r0
     600:	06103601 	ldreq	r3, [r0], -r1, lsl #12
     604:	0d1d0000 	ldceq	0, cr0, [sp, #-0]
     608:	b1000001 	tstlt	r0, r1
     60c:	00000003 	andeq	r0, r0, r3
     610:	0001191f 	andeq	r1, r1, pc, lsl r9
     614:	00823000 	addeq	r3, r2, r0
     618:	00001000 	andeq	r1, r0, r0
     61c:	1d380100 	ldfnes	f0, [r8, #-0]
     620:	00000125 	andeq	r0, r0, r5, lsr #2
     624:	000003c7 	andeq	r0, r0, r7, asr #7
     628:	44110000 	ldrmi	r0, [r1], #-0
     62c:	04000082 	streq	r0, [r0], #-130	; 0x82
     630:	47000000 	strmi	r0, [r0, -r0]
     634:	10000006 	andne	r0, r0, r6
     638:	000001c3 	andeq	r0, r0, r3, asr #3
     63c:	002c8901 	eoreq	r8, ip, r1, lsl #18
     640:	03dd0000 	bicseq	r0, sp, #0
     644:	1c000000 	stcne	0, cr0, [r0], {-0}
     648:	00000131 	andeq	r0, r0, r1, lsr r1
     64c:	00008254 	andeq	r8, r0, r4, asr r2
     650:	0000002c 	andeq	r0, r0, ip, lsr #32
     654:	06a48a01 	strteq	r8, [r4], r1, lsl #20
     658:	481d0000 	ldmdami	sp, {}	; <UNPREDICTABLE>
     65c:	f0000001 			; <UNDEFINED> instruction: 0xf0000001
     660:	1e000003 	cdpne	0, 0, cr0, cr0, cr3, {0}
     664:	0000013d 	andeq	r0, r0, sp, lsr r1
     668:	5001f304 	andpl	pc, r1, r4, lsl #6
     66c:	01011c9f 			; <UNDEFINED> instruction: 0x01011c9f
     670:	825c0000 	subshi	r0, ip, #0
     674:	00140000 	andseq	r0, r4, r0
     678:	36010000 	strcc	r0, [r1], -r0
     67c:	0000068a 	andeq	r0, r0, sl, lsl #13
     680:	00010d1d 	andeq	r0, r1, sp, lsl sp
     684:	00041c00 	andeq	r1, r4, r0, lsl #24
     688:	191f0000 	ldmdbne	pc, {}	; <UNPREDICTABLE>
     68c:	70000001 	andvc	r0, r0, r1
     690:	10000082 	andne	r0, r0, r2, lsl #1
     694:	01000000 	mrseq	r0, (UNDEF: 0)
     698:	01251d38 	teqeq	r5, r8, lsr sp
     69c:	04320000 	ldrteq	r0, [r2], #-0
     6a0:	00000000 	andeq	r0, r0, r0
     6a4:	00828411 	addeq	r8, r2, r1, lsl r4
     6a8:	00000400 	andeq	r0, r0, r0, lsl #8
     6ac:	0006c100 	andeq	ip, r6, r0, lsl #2
     6b0:	01c31000 	biceq	r1, r3, r0
     6b4:	8b010000 	blhi	406bc <__bss_end__+0x359a4>
     6b8:	0000002c 	andeq	r0, r0, ip, lsr #32
     6bc:	00000448 	andeq	r0, r0, r8, asr #8
     6c0:	01011c00 	tsteq	r1, r0, lsl #24
     6c4:	82940000 	addshi	r0, r4, #0
     6c8:	00100000 	andseq	r0, r0, r0
     6cc:	8c010000 	stchi	0, cr0, [r1], {-0}
     6d0:	000006df 	ldrdeq	r0, [r0], -pc	; <UNPREDICTABLE>
     6d4:	00010d1e 	andeq	r0, r1, lr, lsl sp
     6d8:	01f30400 	mvnseq	r0, r0, lsl #8
     6dc:	20009f50 	andcs	r9, r0, r0, asr pc
     6e0:	000082a8 	andeq	r8, r0, r8, lsr #5
     6e4:	00000004 	andeq	r0, r0, r4
     6e8:	0001c310 	andeq	ip, r1, r0, lsl r3
     6ec:	2c8d0100 	stfcss	f0, [sp], {0}
     6f0:	5b000000 	blpl	6f8 <_start-0x7908>
     6f4:	00000004 	andeq	r0, r0, r4
     6f8:	02452100 	subeq	r2, r5, #0, 2
     6fc:	92010000 	andls	r0, r1, #0
     700:	000082ec 	andeq	r8, r0, ip, ror #5
     704:	000000c8 	andeq	r0, r0, r8, asr #1
     708:	07e49c01 	strbeq	r9, [r4, r1, lsl #24]!
     70c:	740d0000 	strvc	r0, [sp], #-0
     710:	92010078 	andls	r0, r1, #120	; 0x78
     714:	0000002c 	andeq	r0, r0, ip, lsr #32
     718:	0000046e 	andeq	r0, r0, lr, ror #8
     71c:	0078720d 	rsbseq	r7, r8, sp, lsl #4
     720:	002c9201 	eoreq	r9, ip, r1, lsl #4
     724:	048c0000 	streq	r0, [ip], #0
     728:	6e0d0000 	cdpvs	0, 0, cr0, cr13, cr0, {0}
     72c:	2c920100 	ldfcss	f0, [r2], {0}
     730:	ad000000 	stcge	0, cr0, [r0, #-0]
     734:	1c000004 	stcne	0, cr0, [r0], {4}
     738:	00000101 	andeq	r0, r0, r1, lsl #2
     73c:	00008304 	andeq	r8, r0, r4, lsl #6
     740:	00000014 	andeq	r0, r0, r4, lsl r0
     744:	07529501 	ldrbeq	r9, [r2, -r1, lsl #10]
     748:	0d1e0000 	ldceq	0, cr0, [lr, #-0]
     74c:	01000001 	tsteq	r0, r1
     750:	00130056 	andseq	r0, r3, r6, asr r0
     754:	2a000083 	bcs	968 <_start-0x7698>
     758:	69000010 	stmdbvs	r0, {r4}
     75c:	14000007 	strne	r0, [r0], #-7
     760:	03055001 	movweq	r5, #20481	; 0x5001
     764:	0000a4d8 	ldrdeq	sl, [r0], -r8
     768:	83041200 	movwhi	r1, #16896	; 0x4200
     76c:	10580000 	subsne	r0, r8, r0
     770:	48130000 	ldmdami	r3, {}	; <UNPREDICTABLE>
     774:	43000083 	movwmi	r0, #131	; 0x83
     778:	8c000002 	stchi	0, cr0, [r0], {2}
     77c:	14000007 	strne	r0, [r0], #-7
     780:	77025201 	strvc	r5, [r2, -r1, lsl #4]
     784:	50011400 	andpl	r1, r1, r0, lsl #8
     788:	00007602 	andeq	r7, r0, r2, lsl #12
     78c:	00836013 	addeq	r6, r3, r3, lsl r0
     790:	00024300 	andeq	r4, r2, r0, lsl #6
     794:	0007a600 	andeq	sl, r7, r0, lsl #12
     798:	52011400 	andpl	r1, r1, #0, 8
     79c:	14007702 	strne	r7, [r0], #-1794	; 0x702
     7a0:	76025001 	strvc	r5, [r2], -r1
     7a4:	78130000 	ldmdavc	r3, {}	; <UNPREDICTABLE>
     7a8:	43000083 	movwmi	r0, #131	; 0x83
     7ac:	c0000002 	andgt	r0, r0, r2
     7b0:	14000007 	strne	r0, [r0], #-7
     7b4:	77025201 	strvc	r5, [r2, -r1, lsl #4]
     7b8:	50011400 	andpl	r1, r1, r0, lsl #8
     7bc:	00007602 	andeq	r7, r0, r2, lsl #12
     7c0:	00838c13 	addeq	r8, r3, r3, lsl ip
     7c4:	00024300 	andeq	r4, r2, r0, lsl #6
     7c8:	0007da00 	andeq	sp, r7, r0, lsl #20
     7cc:	52011400 	andpl	r1, r1, #0, 8
     7d0:	14007702 	strne	r7, [r0], #-1794	; 0x702
     7d4:	76025001 	strvc	r5, [r2], -r1
     7d8:	94120000 	ldrls	r0, [r2], #-0
     7dc:	58000083 	stmdapl	r0, {r0, r1, r7}
     7e0:	00000010 	andeq	r0, r0, r0, lsl r0
     7e4:	00025a22 	andeq	r5, r2, r2, lsr #20
     7e8:	2c490100 	stfcse	f0, [r9], {-0}
     7ec:	03000000 	movweq	r0, #0
     7f0:	000008d6 	ldrdeq	r0, [r0], -r6
     7f4:	6e69700b 	cdpvs	0, 6, cr7, cr9, cr11, {0}
     7f8:	2c490100 	stfcse	f0, [r9], {-0}
     7fc:	0f000000 	svceq	0x00000000
     800:	00000413 	andeq	r0, r0, r3, lsl r4
     804:	002c4b01 	eoreq	r4, ip, r1, lsl #22
     808:	69230000 	stmdbvs	r3!, {}	; <UNPREDICTABLE>
     80c:	2c4c0100 	stfcse	f0, [ip], {-0}
     810:	0f000000 	svceq	0x00000000
     814:	000005f7 	strdeq	r0, [r0], -r7
     818:	002c5001 	eoreq	r5, ip, r1
     81c:	2f240000 	svccs	0x00240000
     820:	0f000008 	svceq	0x00000008
     824:	000001c3 	andeq	r0, r0, r3, asr #3
     828:	002c5001 	eoreq	r5, ip, r1
     82c:	24000000 	strcs	r0, [r0], #-0
     830:	00000840 	andeq	r0, r0, r0, asr #16
     834:	0001c30f 	andeq	ip, r1, pc, lsl #6
     838:	2c540100 	ldfcse	f0, [r4], {-0}
     83c:	00000000 	andeq	r0, r0, r0
     840:	00085124 	andeq	r5, r8, r4, lsr #2
     844:	01c30f00 	biceq	r0, r3, r0, lsl #30
     848:	56010000 	strpl	r0, [r1], -r0
     84c:	0000002c 	andeq	r0, r0, ip, lsr #32
     850:	08622400 	stmdaeq	r2!, {sl, sp}^
     854:	c30f0000 	movwgt	r0, #61440	; 0xf000
     858:	01000001 	tsteq	r0, r1
     85c:	00002c58 	andeq	r2, r0, r8, asr ip
     860:	73240000 	teqvc	r4, #0
     864:	0f000008 	svceq	0x00000008
     868:	000001c3 	andeq	r0, r0, r3, asr #3
     86c:	002c5a01 	eoreq	r5, ip, r1, lsl #20
     870:	24000000 	strcs	r0, [r0], #-0
     874:	00000884 	andeq	r0, r0, r4, lsl #17
     878:	0001c30f 	andeq	ip, r1, pc, lsl #6
     87c:	2c5c0100 	ldfcse	f0, [ip], {-0}
     880:	00000000 	andeq	r0, r0, r0
     884:	00089524 	andeq	r9, r8, r4, lsr #10
     888:	01c30f00 	biceq	r0, r3, r0, lsl #30
     88c:	5e010000 	cdppl	0, 0, cr0, cr1, cr0, {0}
     890:	0000002c 	andeq	r0, r0, ip, lsr #32
     894:	08a62400 	stmiaeq	r6!, {sl, sp}
     898:	c30f0000 	movwgt	r0, #61440	; 0xf000
     89c:	01000001 	tsteq	r0, r1
     8a0:	00002c60 	andeq	r2, r0, r0, ror #24
     8a4:	b7240000 	strlt	r0, [r4, -r0]!
     8a8:	0f000008 	svceq	0x00000008
     8ac:	000001c3 	andeq	r0, r0, r3, asr #3
     8b0:	002c6201 	eoreq	r6, ip, r1, lsl #4
     8b4:	24000000 	strcs	r0, [r0], #-0
     8b8:	000008c8 	andeq	r0, r0, r8, asr #17
     8bc:	0001c30f 	andeq	ip, r1, pc, lsl #6
     8c0:	2c640100 	stfcse	f0, [r4], #-0
     8c4:	00000000 	andeq	r0, r0, r0
     8c8:	01c30f25 	biceq	r0, r3, r5, lsr #30
     8cc:	66010000 	strvs	r0, [r1], -r0
     8d0:	0000002c 	andeq	r0, r0, ip, lsr #32
     8d4:	b6180000 	ldrlt	r0, [r8], -r0
     8d8:	0100000b 	tsteq	r0, fp
     8dc:	0083b4ae 	addeq	fp, r3, lr, lsr #9
     8e0:	00073800 	andeq	r3, r7, r0, lsl #16
     8e4:	e69c0100 	ldr	r0, [ip], r0, lsl #2
     8e8:	0d00000d 	stceq	0, cr0, [r0, #-52]	; 0xffffffcc
     8ec:	01006370 	tsteq	r0, r0, ror r3
     8f0:	00002cae 	andeq	r2, r0, lr, lsr #25
     8f4:	0004cb00 	andeq	ip, r4, r0, lsl #22
     8f8:	07e41c00 	strbeq	r1, [r4, r0, lsl #24]!
     8fc:	83b80000 			; <UNDEFINED> instruction: 0x83b80000
     900:	01ac0000 			; <UNDEFINED> instruction: 0x01ac0000
     904:	b8010000 	stmdalt	r1, {}	; <UNPREDICTABLE>
     908:	00000a2e 	andeq	r0, r0, lr, lsr #20
     90c:	0007f426 	andeq	pc, r7, r6, lsr #8
     910:	b8201400 	stmdalt	r0!, {sl, ip}
     914:	ac000083 	stcge	0, cr0, [r0], {131}	; 0x83
     918:	27000001 	strcs	r0, [r0, -r1]
     91c:	000007ff 	strdeq	r0, [r0], -pc	; <UNPREDICTABLE>
     920:	000004ec 	andeq	r0, r0, ip, ror #9
     924:	00080a28 	andeq	r0, r8, r8, lsr #20
     928:	13270100 	teqne	r7, #0, 2
     92c:	16000008 	strne	r0, [r0], -r8
     930:	11000005 	tstne	r0, r5
     934:	000083b8 			; <UNDEFINED> instruction: 0x000083b8
     938:	00000004 	andeq	r0, r0, r4
     93c:	0000094a 	andeq	r0, r0, sl, asr #18
     940:	00082327 	andeq	r2, r8, r7, lsr #6
     944:	00051600 	andeq	r1, r5, r0, lsl #12
     948:	d0110000 	andsle	r0, r1, r0
     94c:	04000083 	streq	r0, [r0], #-131	; 0x83
     950:	61000000 	mrsvs	r0, (UNDEF: 0)
     954:	27000009 	strcs	r0, [r0, -r9]
     958:	00000834 	andeq	r0, r0, r4, lsr r8
     95c:	00000529 	andeq	r0, r0, r9, lsr #10
     960:	83e41100 	mvnhi	r1, #0, 2
     964:	00040000 	andeq	r0, r4, r0
     968:	09780000 	ldmdbeq	r8!, {}^	; <UNPREDICTABLE>
     96c:	45270000 	strmi	r0, [r7, #-0]!
     970:	3c000008 	stccc	0, cr0, [r0], {8}
     974:	00000005 	andeq	r0, r0, r5
     978:	00840c11 	addeq	r0, r4, r1, lsl ip
     97c:	00000400 	andeq	r0, r0, r0, lsl #8
     980:	00098f00 	andeq	r8, r9, r0, lsl #30
     984:	08562700 	ldmdaeq	r6, {r8, r9, sl, sp}^
     988:	054f0000 	strbeq	r0, [pc, #-0]	; 990 <_start-0x7670>
     98c:	11000000 	mrsne	r0, (UNDEF: 0)
     990:	0000843c 	andeq	r8, r0, ip, lsr r4
     994:	00000004 	andeq	r0, r0, r4
     998:	000009a6 	andeq	r0, r0, r6, lsr #19
     99c:	00086727 	andeq	r6, r8, r7, lsr #14
     9a0:	00056200 	andeq	r6, r5, r0, lsl #4
     9a4:	6c110000 	ldcvs	0, cr0, [r1], {-0}
     9a8:	04000084 	streq	r0, [r0], #-132	; 0x84
     9ac:	bd000000 	stclt	0, cr0, [r0, #-0]
     9b0:	27000009 	strcs	r0, [r0, -r9]
     9b4:	00000878 	andeq	r0, r0, r8, ror r8
     9b8:	00000575 	andeq	r0, r0, r5, ror r5
     9bc:	849c1100 	ldrhi	r1, [ip], #256	; 0x100
     9c0:	00040000 	andeq	r0, r4, r0
     9c4:	09d40000 	ldmibeq	r4, {}^	; <UNPREDICTABLE>
     9c8:	89270000 	stmdbhi	r7!, {}	; <UNPREDICTABLE>
     9cc:	88000008 	stmdahi	r0, {r3}
     9d0:	00000005 	andeq	r0, r0, r5
     9d4:	0084cc11 	addeq	ip, r4, r1, lsl ip
     9d8:	00000400 	andeq	r0, r0, r0, lsl #8
     9dc:	0009eb00 	andeq	lr, r9, r0, lsl #22
     9e0:	089a2700 	ldmeq	sl, {r8, r9, sl, sp}
     9e4:	059b0000 	ldreq	r0, [fp]
     9e8:	11000000 	mrsne	r0, (UNDEF: 0)
     9ec:	000084fc 	strdeq	r8, [r0], -ip
     9f0:	00000004 	andeq	r0, r0, r4
     9f4:	00000a02 	andeq	r0, r0, r2, lsl #20
     9f8:	0008ab27 	andeq	sl, r8, r7, lsr #22
     9fc:	0005ae00 	andeq	sl, r5, r0, lsl #28
     a00:	2c110000 	ldccs	0, cr0, [r1], {-0}
     a04:	04000085 	streq	r0, [r0], #-133	; 0x85
     a08:	19000000 	stmdbne	r0, {}	; <UNPREDICTABLE>
     a0c:	2700000a 	strcs	r0, [r0, -sl]
     a10:	000008bc 			; <UNDEFINED> instruction: 0x000008bc
     a14:	000005c1 	andeq	r0, r0, r1, asr #11
     a18:	85542000 	ldrbhi	r2, [r4, #-0]
     a1c:	00040000 	andeq	r0, r4, r0
     a20:	c9270000 	stmdbgt	r7!, {}	; <UNPREDICTABLE>
     a24:	d4000008 	strle	r0, [r0], #-8
     a28:	00000005 	andeq	r0, r0, r5
     a2c:	e41c0000 	ldr	r0, [ip], #-0
     a30:	70000007 	andvc	r0, r0, r7
     a34:	ac000085 	stcge	0, cr0, [r0], {133}	; 0x85
     a38:	01000001 	tsteq	r0, r1
     a3c:	000b63b9 			; <UNDEFINED> instruction: 0x000b63b9
     a40:	07f42600 	ldrbeq	r2, [r4, r0, lsl #12]!
     a44:	20140000 	andscs	r0, r4, r0
     a48:	00008570 	andeq	r8, r0, r0, ror r5
     a4c:	000001ac 	andeq	r0, r0, ip, lsr #3
     a50:	0007ff27 	andeq	pc, r7, r7, lsr #30
     a54:	0005e700 	andeq	lr, r5, r0, lsl #14
     a58:	080a2800 	stmdaeq	sl, {fp, sp}
     a5c:	27010000 	strcs	r0, [r1, -r0]
     a60:	00000813 	andeq	r0, r0, r3, lsl r8
     a64:	00000611 	andeq	r0, r0, r1, lsl r6
     a68:	00857011 	addeq	r7, r5, r1, lsl r0
     a6c:	00000400 	andeq	r0, r0, r0, lsl #8
     a70:	000a7f00 	andeq	r7, sl, r0, lsl #30
     a74:	08232700 	stmdaeq	r3!, {r8, r9, sl, sp}
     a78:	06110000 	ldreq	r0, [r1], -r0
     a7c:	11000000 	mrsne	r0, (UNDEF: 0)
     a80:	00008588 	andeq	r8, r0, r8, lsl #11
     a84:	00000004 	andeq	r0, r0, r4
     a88:	00000a96 	muleq	r0, r6, sl
     a8c:	00083427 	andeq	r3, r8, r7, lsr #8
     a90:	00062400 	andeq	r2, r6, r0, lsl #8
     a94:	9c110000 	ldcls	0, cr0, [r1], {-0}
     a98:	04000085 	streq	r0, [r0], #-133	; 0x85
     a9c:	ad000000 	stcge	0, cr0, [r0, #-0]
     aa0:	2700000a 	strcs	r0, [r0, -sl]
     aa4:	00000845 	andeq	r0, r0, r5, asr #16
     aa8:	00000637 	andeq	r0, r0, r7, lsr r6
     aac:	85c41100 	strbhi	r1, [r4, #256]	; 0x100
     ab0:	00040000 	andeq	r0, r4, r0
     ab4:	0ac40000 	beq	ff100abc <__bss_end__+0xff0f5da4>
     ab8:	56270000 	strtpl	r0, [r7], -r0
     abc:	4a000008 	bmi	ae4 <_start-0x751c>
     ac0:	00000006 	andeq	r0, r0, r6
     ac4:	0085f411 	addeq	pc, r5, r1, lsl r4	; <UNPREDICTABLE>
     ac8:	00000400 	andeq	r0, r0, r0, lsl #8
     acc:	000adb00 	andeq	sp, sl, r0, lsl #22
     ad0:	08672700 	stmdaeq	r7!, {r8, r9, sl, sp}^
     ad4:	065d0000 	ldrbeq	r0, [sp], -r0
     ad8:	11000000 	mrsne	r0, (UNDEF: 0)
     adc:	00008624 	andeq	r8, r0, r4, lsr #12
     ae0:	00000004 	andeq	r0, r0, r4
     ae4:	00000af2 	strdeq	r0, [r0], -r2
     ae8:	00087827 	andeq	r7, r8, r7, lsr #16
     aec:	00067000 	andeq	r7, r6, r0
     af0:	54110000 	ldrpl	r0, [r1], #-0
     af4:	04000086 	streq	r0, [r0], #-134	; 0x86
     af8:	09000000 	stmdbeq	r0, {}	; <UNPREDICTABLE>
     afc:	2700000b 	strcs	r0, [r0, -fp]
     b00:	00000889 	andeq	r0, r0, r9, lsl #17
     b04:	00000683 	andeq	r0, r0, r3, lsl #13
     b08:	86841100 	strhi	r1, [r4], r0, lsl #2
     b0c:	00040000 	andeq	r0, r4, r0
     b10:	0b200000 	bleq	800b18 <__bss_end__+0x7f5e00>
     b14:	9a270000 	bls	9c0b1c <__bss_end__+0x9b5e04>
     b18:	96000008 	strls	r0, [r0], -r8
     b1c:	00000006 	andeq	r0, r0, r6
     b20:	0086b411 	addeq	fp, r6, r1, lsl r4
     b24:	00000400 	andeq	r0, r0, r0, lsl #8
     b28:	000b3700 	andeq	r3, fp, r0, lsl #14
     b2c:	08ab2700 	stmiaeq	fp!, {r8, r9, sl, sp}
     b30:	06a90000 	strteq	r0, [r9], r0
     b34:	11000000 	mrsne	r0, (UNDEF: 0)
     b38:	000086e4 	andeq	r8, r0, r4, ror #13
     b3c:	00000004 	andeq	r0, r0, r4
     b40:	00000b4e 	andeq	r0, r0, lr, asr #22
     b44:	0008bc27 	andeq	fp, r8, r7, lsr #24
     b48:	0006bc00 	andeq	fp, r6, r0, lsl #24
     b4c:	0c200000 	stceq	0, cr0, [r0], #-0
     b50:	04000087 	streq	r0, [r0], #-135	; 0x87
     b54:	27000000 	strcs	r0, [r0, -r0]
     b58:	000008c9 	andeq	r0, r0, r9, asr #17
     b5c:	000006cf 	andeq	r0, r0, pc, asr #13
     b60:	1c000000 	stcne	0, cr0, [r0], {-0}
     b64:	000007e4 	andeq	r0, r0, r4, ror #15
     b68:	0000872c 	andeq	r8, r0, ip, lsr #14
     b6c:	000001ac 	andeq	r0, r0, ip, lsr #3
     b70:	0c98ba01 	vldmiaeq	r8, {s22}
     b74:	f4260000 	vld4.8	{d0-d3}, [r6], r0
     b78:	14000007 	strne	r0, [r0], #-7
     b7c:	00872c20 	addeq	r2, r7, r0, lsr #24
     b80:	0001ac00 	andeq	sl, r1, r0, lsl #24
     b84:	07ff2700 	ldrbeq	r2, [pc, r0, lsl #14]!
     b88:	06e20000 	strbteq	r0, [r2], r0
     b8c:	0a280000 	beq	a00b94 <__bss_end__+0x9f5e7c>
     b90:	01000008 	tsteq	r0, r8
     b94:	00081327 	andeq	r1, r8, r7, lsr #6
     b98:	00070c00 	andeq	r0, r7, r0, lsl #24
     b9c:	872c1100 	strhi	r1, [ip, -r0, lsl #2]!
     ba0:	00040000 	andeq	r0, r4, r0
     ba4:	0bb40000 	bleq	fed00bac <__bss_end__+0xfecf5e94>
     ba8:	23270000 	teqcs	r7, #0
     bac:	0c000008 	stceq	0, cr0, [r0], {8}
     bb0:	00000007 	andeq	r0, r0, r7
     bb4:	00874411 	addeq	r4, r7, r1, lsl r4
     bb8:	00000400 	andeq	r0, r0, r0, lsl #8
     bbc:	000bcb00 	andeq	ip, fp, r0, lsl #22
     bc0:	08342700 	ldmdaeq	r4!, {r8, r9, sl, sp}
     bc4:	071f0000 	ldreq	r0, [pc, -r0]
     bc8:	11000000 	mrsne	r0, (UNDEF: 0)
     bcc:	00008758 	andeq	r8, r0, r8, asr r7
     bd0:	00000004 	andeq	r0, r0, r4
     bd4:	00000be2 	andeq	r0, r0, r2, ror #23
     bd8:	00084527 	andeq	r4, r8, r7, lsr #10
     bdc:	00073200 	andeq	r3, r7, r0, lsl #4
     be0:	80110000 	andshi	r0, r1, r0
     be4:	04000087 	streq	r0, [r0], #-135	; 0x87
     be8:	f9000000 			; <UNDEFINED> instruction: 0xf9000000
     bec:	2700000b 	strcs	r0, [r0, -fp]
     bf0:	00000856 	andeq	r0, r0, r6, asr r8
     bf4:	00000745 	andeq	r0, r0, r5, asr #14
     bf8:	87b01100 	ldrhi	r1, [r0, r0, lsl #2]!
     bfc:	00040000 	andeq	r0, r4, r0
     c00:	0c100000 	ldceq	0, cr0, [r0], {-0}
     c04:	67270000 	strvs	r0, [r7, -r0]!
     c08:	58000008 	stmdapl	r0, {r3}
     c0c:	00000007 	andeq	r0, r0, r7
     c10:	0087e011 	addeq	lr, r7, r1, lsl r0
     c14:	00000400 	andeq	r0, r0, r0, lsl #8
     c18:	000c2700 	andeq	r2, ip, r0, lsl #14
     c1c:	08782700 	ldmdaeq	r8!, {r8, r9, sl, sp}^
     c20:	076b0000 	strbeq	r0, [fp, -r0]!
     c24:	11000000 	mrsne	r0, (UNDEF: 0)
     c28:	00008810 	andeq	r8, r0, r0, lsl r8
     c2c:	00000004 	andeq	r0, r0, r4
     c30:	00000c3e 	andeq	r0, r0, lr, lsr ip
     c34:	00088927 	andeq	r8, r8, r7, lsr #18
     c38:	00077e00 	andeq	r7, r7, r0, lsl #28
     c3c:	40110000 	andsmi	r0, r1, r0
     c40:	04000088 	streq	r0, [r0], #-136	; 0x88
     c44:	55000000 	strpl	r0, [r0, #-0]
     c48:	2700000c 	strcs	r0, [r0, -ip]
     c4c:	0000089a 	muleq	r0, sl, r8
     c50:	00000791 	muleq	r0, r1, r7
     c54:	88701100 	ldmdahi	r0!, {r8, ip}^
     c58:	00040000 	andeq	r0, r4, r0
     c5c:	0c6c0000 	stcleq	0, cr0, [ip], #-0
     c60:	ab270000 	blge	9c0c68 <__bss_end__+0x9b5f50>
     c64:	a4000008 	strge	r0, [r0], #-8
     c68:	00000007 	andeq	r0, r0, r7
     c6c:	0088a011 	addeq	sl, r8, r1, lsl r0
     c70:	00000400 	andeq	r0, r0, r0, lsl #8
     c74:	000c8300 	andeq	r8, ip, r0, lsl #6
     c78:	08bc2700 	ldmeq	ip!, {r8, r9, sl, sp}
     c7c:	07b70000 	ldreq	r0, [r7, r0]!
     c80:	20000000 	andcs	r0, r0, r0
     c84:	000088c8 	andeq	r8, r0, r8, asr #17
     c88:	00000004 	andeq	r0, r0, r4
     c8c:	0008c927 	andeq	ip, r8, r7, lsr #18
     c90:	0007ca00 	andeq	ip, r7, r0, lsl #20
     c94:	00000000 	andeq	r0, r0, r0
     c98:	0007e41c 	andeq	lr, r7, ip, lsl r4
     c9c:	0088e800 	addeq	lr, r8, r0, lsl #16
     ca0:	0001ac00 	andeq	sl, r1, r0, lsl #24
     ca4:	cdbb0100 	ldfgts	f0, [fp]
     ca8:	2600000d 	strcs	r0, [r0], -sp
     cac:	000007f4 	strdeq	r0, [r0], -r4
     cb0:	88e82014 	stmiahi	r8!, {r2, r4, sp}^
     cb4:	01ac0000 			; <UNDEFINED> instruction: 0x01ac0000
     cb8:	ff270000 			; <UNDEFINED> instruction: 0xff270000
     cbc:	dd000007 	stcle	0, cr0, [r0, #-28]	; 0xffffffe4
     cc0:	28000007 	stmdacs	r0, {r0, r1, r2}
     cc4:	0000080a 	andeq	r0, r0, sl, lsl #16
     cc8:	08132701 	ldmdaeq	r3, {r0, r8, r9, sl, sp}
     ccc:	08070000 	stmdaeq	r7, {}	; <UNPREDICTABLE>
     cd0:	e8110000 	ldmda	r1, {}	; <UNPREDICTABLE>
     cd4:	04000088 	streq	r0, [r0], #-136	; 0x88
     cd8:	e9000000 	stmdb	r0, {}	; <UNPREDICTABLE>
     cdc:	2700000c 	strcs	r0, [r0, -ip]
     ce0:	00000823 	andeq	r0, r0, r3, lsr #16
     ce4:	00000807 	andeq	r0, r0, r7, lsl #16
     ce8:	89001100 	stmdbhi	r0, {r8, ip}
     cec:	00040000 	andeq	r0, r4, r0
     cf0:	0d000000 	stceq	0, cr0, [r0, #-0]
     cf4:	34270000 	strtcc	r0, [r7], #-0
     cf8:	1a000008 	bne	d20 <_start-0x72e0>
     cfc:	00000008 	andeq	r0, r0, r8
     d00:	00891411 	addeq	r1, r9, r1, lsl r4
     d04:	00000400 	andeq	r0, r0, r0, lsl #8
     d08:	000d1700 	andeq	r1, sp, r0, lsl #14
     d0c:	08452700 	stmdaeq	r5, {r8, r9, sl, sp}^
     d10:	082d0000 	stmdaeq	sp!, {}	; <UNPREDICTABLE>
     d14:	11000000 	mrsne	r0, (UNDEF: 0)
     d18:	0000893c 	andeq	r8, r0, ip, lsr r9
     d1c:	00000004 	andeq	r0, r0, r4
     d20:	00000d2e 	andeq	r0, r0, lr, lsr #26
     d24:	00085627 	andeq	r5, r8, r7, lsr #12
     d28:	00084000 	andeq	r4, r8, r0
     d2c:	6c110000 	ldcvs	0, cr0, [r1], {-0}
     d30:	04000089 	streq	r0, [r0], #-137	; 0x89
     d34:	45000000 	strmi	r0, [r0, #-0]
     d38:	2700000d 	strcs	r0, [r0, -sp]
     d3c:	00000867 	andeq	r0, r0, r7, ror #16
     d40:	00000853 	andeq	r0, r0, r3, asr r8
     d44:	899c1100 	ldmibhi	ip, {r8, ip}
     d48:	00040000 	andeq	r0, r4, r0
     d4c:	0d5c0000 	ldcleq	0, cr0, [ip, #-0]
     d50:	78270000 	stmdavc	r7!, {}	; <UNPREDICTABLE>
     d54:	66000008 	strvs	r0, [r0], -r8
     d58:	00000008 	andeq	r0, r0, r8
     d5c:	0089cc11 	addeq	ip, r9, r1, lsl ip
     d60:	00000400 	andeq	r0, r0, r0, lsl #8
     d64:	000d7300 	andeq	r7, sp, r0, lsl #6
     d68:	08892700 	stmeq	r9, {r8, r9, sl, sp}
     d6c:	08790000 	ldmdaeq	r9!, {}^	; <UNPREDICTABLE>
     d70:	11000000 	mrsne	r0, (UNDEF: 0)
     d74:	000089fc 	strdeq	r8, [r0], -ip
     d78:	00000004 	andeq	r0, r0, r4
     d7c:	00000d8a 	andeq	r0, r0, sl, lsl #27
     d80:	00089a27 	andeq	r9, r8, r7, lsr #20
     d84:	00088c00 	andeq	r8, r8, r0, lsl #24
     d88:	2c110000 	ldccs	0, cr0, [r1], {-0}
     d8c:	0400008a 	streq	r0, [r0], #-138	; 0x8a
     d90:	a1000000 	mrsge	r0, (UNDEF: 0)
     d94:	2700000d 	strcs	r0, [r0, -sp]
     d98:	000008ab 	andeq	r0, r0, fp, lsr #17
     d9c:	0000089f 	muleq	r0, pc, r8	; <UNPREDICTABLE>
     da0:	8a5c1100 	bhi	17051a8 <__bss_end__+0x16fa490>
     da4:	00040000 	andeq	r0, r4, r0
     da8:	0db80000 	ldceq	0, cr0, [r8]
     dac:	bc270000 	stclt	0, cr0, [r7], #-0
     db0:	b2000008 	andlt	r0, r0, #8
     db4:	00000008 	andeq	r0, r0, r8
     db8:	008a8420 	addeq	r8, sl, r0, lsr #8
     dbc:	00000400 	andeq	r0, r0, r0, lsl #8
     dc0:	08c92700 	stmiaeq	r9, {r8, r9, sl, sp}^
     dc4:	08c50000 	stmiaeq	r5, {}^	; <UNPREDICTABLE>
     dc8:	00000000 	andeq	r0, r0, r0
     dcc:	8ab01200 	bhi	fec055d4 <__bss_end__+0xfebfa8bc>
     dd0:	105f0000 	subsne	r0, pc, r0
     dd4:	b8150000 	ldmdalt	r5, {}	; <UNPREDICTABLE>
     dd8:	6600008a 	strvs	r0, [r0], -sl, lsl #1
     ddc:	14000010 	strne	r0, [r0], #-16
     de0:	44015001 	strmi	r5, [r1], #-1
     de4:	cd180000 	ldcgt	0, cr0, [r8, #-0]
     de8:	01000000 	mrseq	r0, (UNDEF: 0)
     dec:	008aecc4 	addeq	lr, sl, r4, asr #25
     df0:	00004400 	andeq	r4, r0, r0, lsl #8
     df4:	919c0100 	orrsls	r0, ip, r0, lsl #2
     df8:	1100000e 	tstne	r0, lr
     dfc:	00008b14 	andeq	r8, r0, r4, lsl fp
     e00:	00000008 	andeq	r0, r0, r8
     e04:	00000e14 	andeq	r0, r0, r4, lsl lr
     e08:	006e691a 	rsbeq	r6, lr, sl, lsl r9
     e0c:	002cce01 	eoreq	ip, ip, r1, lsl #28
     e10:	00010000 	andeq	r0, r1, r0
     e14:	008af412 	addeq	pc, sl, r2, lsl r4	; <UNPREDICTABLE>
     e18:	00107700 	andseq	r7, r0, r0, lsl #14
     e1c:	8af81200 	bhi	ffe05624 <__bss_end__+0xffdfa90c>
     e20:	107e0000 	rsbsne	r0, lr, r0
     e24:	00130000 	andseq	r0, r3, r0
     e28:	8500008b 	strhi	r0, [r0, #-139]	; 0x8b
     e2c:	39000010 	stmdbcc	r0, {r4}
     e30:	1400000e 	strne	r0, [r0], #-14
     e34:	45015001 	strmi	r5, [r1, #-1]
     e38:	8b081300 	blhi	205a40 <__bss_end__+0x1fad28>
     e3c:	10960000 	addsne	r0, r6, r0
     e40:	0e4c0000 	cdpeq	0, 4, cr0, cr12, cr0, {0}
     e44:	01140000 	tsteq	r4, r0
     e48:	00440150 	subeq	r0, r4, r0, asr r1
     e4c:	008b1013 	addeq	r1, fp, r3, lsl r0
     e50:	0010a700 	andseq	sl, r0, r0, lsl #14
     e54:	000e5f00 	andeq	r5, lr, r0, lsl #30
     e58:	50011400 	andpl	r1, r1, r0, lsl #8
     e5c:	12004401 	andne	r4, r0, #16777216	; 0x1000000
     e60:	00008b14 	andeq	r8, r0, r4, lsl fp
     e64:	000010b8 	strheq	r1, [r0], -r8
     e68:	008b2c13 	addeq	r2, fp, r3, lsl ip
     e6c:	0006f900 	andeq	pc, r6, r0, lsl #18
     e70:	000e8700 	andeq	r8, lr, r0, lsl #14
     e74:	52011400 	andpl	r1, r1, #0, 8
     e78:	10000a03 	andne	r0, r0, r3, lsl #20
     e7c:	01510114 	cmpeq	r1, r4, lsl r1
     e80:	50011444 	andpl	r1, r1, r4, asr #8
     e84:	12004501 	andne	r4, r0, #4194304	; 0x400000
     e88:	00008b30 	andeq	r8, r0, r0, lsr fp
     e8c:	00001040 	andeq	r1, r0, r0, asr #32
     e90:	01732900 	cmneq	r3, r0, lsl #18
     e94:	0f010000 	svceq	0x00010000
     e98:	00000ea0 	andeq	r0, r0, r0, lsr #29
     e9c:	20200000 	eorcs	r0, r0, r0
     ea0:	00fc0405 	rscseq	r0, ip, r5, lsl #8
     ea4:	89290000 	stmdbhi	r9!, {}	; <UNPREDICTABLE>
     ea8:	01000002 	tsteq	r0, r2
     eac:	000ea010 	andeq	sl, lr, r0, lsl r0
     eb0:	20001c00 	andcs	r1, r0, r0, lsl #24
     eb4:	03b22920 			; <UNDEFINED> instruction: 0x03b22920
     eb8:	11010000 	mrsne	r0, (UNDEF: 1)
     ebc:	00000ea0 	andeq	r0, r0, r0, lsr #29
     ec0:	20200028 	eorcs	r0, r0, r8, lsr #32
     ec4:	00010a29 	andeq	r0, r1, r9, lsr #20
     ec8:	a0130100 	andsge	r0, r3, r0, lsl #2
     ecc:	0000000e 	andeq	r0, r0, lr
     ed0:	29202000 	stmdbcs	r0!, {sp}
     ed4:	00000112 	andeq	r0, r0, r2, lsl r1
     ed8:	0ea01401 	cdpeq	4, 10, cr1, cr0, cr1, {0}
     edc:	00040000 	andeq	r0, r4, r0
     ee0:	00292020 	eoreq	r2, r9, r0, lsr #32
     ee4:	01000000 	mrseq	r0, (UNDEF: 0)
     ee8:	000ea015 	andeq	sl, lr, r5, lsl r0
     eec:	20000800 	andcs	r0, r0, r0, lsl #16
     ef0:	011a2920 	tsteq	sl, r0, lsr #18
     ef4:	16010000 	strne	r0, [r1], -r0
     ef8:	00000ea0 	andeq	r0, r0, r0, lsr #29
     efc:	2020000c 	eorcs	r0, r0, ip
     f00:	00012229 	andeq	r2, r1, r9, lsr #4
     f04:	a0170100 	andsge	r0, r7, r0, lsl #2
     f08:	1000000e 	andne	r0, r0, lr
     f0c:	29202000 	stmdbcs	r0!, {sp}
     f10:	0000012a 	andeq	r0, r0, sl, lsr #2
     f14:	0ea01801 	cdpeq	8, 10, cr1, cr0, cr1, {0}
     f18:	00140000 	andseq	r0, r4, r0
     f1c:	60292020 	eorvs	r2, r9, r0, lsr #32
     f20:	01000002 	tsteq	r0, r2
     f24:	000f2d1a 	andeq	r2, pc, sl, lsl sp	; <UNPREDICTABLE>
     f28:	20001c00 	andcs	r1, r0, r0, lsl #24
     f2c:	0ea00620 	cdpeq	6, 10, cr0, cr0, cr0, {1}
     f30:	91290000 	teqls	r9, r0
     f34:	01000000 	mrseq	r0, (UNDEF: 0)
     f38:	000ea01b 	andeq	sl, lr, fp, lsl r0
     f3c:	20002000 	andcs	r2, r0, r0
     f40:	00082920 	andeq	r2, r8, r0, lsr #18
     f44:	1d010000 	stcne	0, cr0, [r1, #-0]
     f48:	00000f50 	andeq	r0, r0, r0, asr pc
     f4c:	20200028 	eorcs	r0, r0, r8, lsr #32
     f50:	000ea006 	andeq	sl, lr, r6
     f54:	017e2900 	cmneq	lr, r0, lsl #18
     f58:	1e010000 	cdpne	0, 0, cr0, cr1, cr0, {0}
     f5c:	00000ea0 	andeq	r0, r0, r0, lsr #29
     f60:	2020002c 	eorcs	r0, r0, ip, lsr #32
     f64:	0000b629 	andeq	fp, r0, r9, lsr #12
     f68:	73200100 	teqvc	r0, #0, 2
     f6c:	3400000f 	strcc	r0, [r0], #-15
     f70:	06202000 	strteq	r2, [r0], -r0
     f74:	00000ea0 	andeq	r0, r0, r0, lsr #29
     f78:	0000bd29 	andeq	fp, r0, r9, lsr #26
     f7c:	a0210100 	eorge	r0, r1, r0, lsl #2
     f80:	3800000e 	stmdacc	r0, {r1, r2, r3}
     f84:	1a202000 	bne	808f8c <__bss_end__+0x7fe274>
     f88:	01007872 	tsteq	r0, r2, ror r8
     f8c:	000f9223 	andeq	r9, pc, r3, lsr #4
     f90:	25061400 	strcs	r1, [r6, #-1024]	; 0x400
     f94:	1a000000 	bne	f9c <_start-0x7064>
     f98:	01007874 	tsteq	r0, r4, ror r8
     f9c:	000fa224 	andeq	sl, pc, r4, lsr #4
     fa0:	25061500 	strcs	r1, [r6, #-1280]	; 0x500
     fa4:	1b000000 	blne	fac <_start-0x7054>
     fa8:	00000070 	andeq	r0, r0, r0, ror r0
     fac:	00fcab01 	rscseq	sl, ip, r1, lsl #22
     fb0:	03050000 	movweq	r0, #20480	; 0x5000
     fb4:	0000a8f8 	strdeq	sl, [r0], -r8
     fb8:	0001ac1b 	andeq	sl, r1, fp, lsl ip
     fbc:	c9ac0100 	stmibgt	ip!, {r8}
     fc0:	0500000f 	streq	r0, [r0, #-15]
     fc4:	00a8f403 	adceq	pc, r8, r3, lsl #8
     fc8:	00250900 	eoreq	r0, r5, r0, lsl #18
     fcc:	842a0000 	strthi	r0, [sl], #-0
     fd0:	02000003 	andeq	r0, r0, #3
     fd4:	00008f80 	andeq	r8, r0, r0, lsl #31
     fd8:	10030500 	andne	r0, r3, r0, lsl #10
     fdc:	2a0000ad 	bcs	1298 <_start-0x6d68>
     fe0:	00000299 	muleq	r0, r9, r2
     fe4:	0fc92501 	svceq	0x00c92501
     fe8:	03050000 	movweq	r0, #20480	; 0x5000
     fec:	0000a900 	andeq	sl, r0, r0, lsl #18
     ff0:	00030d2a 	andeq	r0, r3, sl, lsr #26
     ff4:	c9260100 	stmdbgt	r6!, {r8}
     ff8:	0500000f 	streq	r0, [r0, #-15]
     ffc:	00a8fc03 	adceq	pc, r8, r3, lsl #24
    1000:	01322a00 	teqeq	r2, r0, lsl #20
    1004:	90010000 	andls	r0, r1, r0
    1008:	000000fc 	strdeq	r0, [r0], -ip
    100c:	a8f00305 	ldmge	r0!, {r0, r2, r8, r9}^
    1010:	e12a0000 	teq	sl, r0
    1014:	01000001 	tsteq	r0, r1
    1018:	0000fc91 	muleq	r0, r1, ip
    101c:	ec030500 	cfstr32	mvfx0, [r3], {-0}
    1020:	2b0000a8 	blcs	12c8 <_start-0x6d38>
    1024:	000000fb 	strdeq	r0, [r0], -fp
    1028:	132c1e03 	teqne	ip, #3, 28	; 0x30
    102c:	03000004 	movweq	r0, #4
    1030:	00002529 	andeq	r2, r0, r9, lsr #10
    1034:	00104000 	andseq	r4, r0, r0
    1038:	00842d00 	addeq	r2, r4, r0, lsl #26
    103c:	002e0000 	eoreq	r0, lr, r0
    1040:	0001852b 	andeq	r8, r1, fp, lsr #10
    1044:	2f660300 	svccs	0x00660300
    1048:	00000271 	andeq	r0, r0, r1, ror r2
    104c:	10585003 	subsne	r5, r8, r3
    1050:	2c2d0000 	stccs	0, cr0, [sp], #-0
    1054:	00000000 	andeq	r0, r0, r0
    1058:	0001c82b 	andeq	ip, r1, fp, lsr #16
    105c:	2b310400 	blcs	c42064 <__bss_end__+0xc3734c>
    1060:	000003bc 			; <UNDEFINED> instruction: 0x000003bc
    1064:	3d2f3204 	sfmcc	f3, 4, [pc, #-16]!	; 105c <_start-0x6fa4>
    1068:	05000001 	streq	r0, [r0, #-1]
    106c:	00107750 	andseq	r7, r0, r0, asr r7
    1070:	002c2d00 	eoreq	r2, ip, r0, lsl #26
    1074:	2b000000 	blcs	107c <_start-0x6f84>
    1078:	00000030 	andeq	r0, r0, r0, lsr r0
    107c:	ba2b3a03 	blt	acf890 <__bss_end__+0xac4b78>
    1080:	04000001 	streq	r0, [r0], #-1
    1084:	03672f33 	cmneq	r7, #51, 30	; 0xcc
    1088:	1d050000 	stcne	0, cr0, [r5, #-0]
    108c:	00001096 	muleq	r0, r6, r0
    1090:	00002c2d 	andeq	r2, r0, sp, lsr #24
    1094:	fe2f0000 	cdp2	0, 2, cr0, cr15, cr0, {0}
    1098:	05000002 	streq	r0, [r0, #-2]
    109c:	0010a71c 	andseq	sl, r0, ip, lsl r7
    10a0:	002c2d00 	eoreq	r2, ip, r0, lsl #26
    10a4:	2f000000 	svccs	0x00000000
    10a8:	0000039c 	muleq	r0, ip, r3
    10ac:	10b84805 	adcsne	r4, r8, r5, lsl #16
    10b0:	2c2d0000 	stccs	0, cr0, [sp], #-0
    10b4:	00000000 	andeq	r0, r0, r0
    10b8:	0003772b 	andeq	r7, r3, fp, lsr #14
    10bc:	008e0300 	addeq	r0, lr, r0, lsl #6
    10c0:	00000191 	muleq	r0, r1, r1
    10c4:	02680004 	rsbeq	r0, r8, #4
    10c8:	01040000 	mrseq	r0, (UNDEF: 4)
    10cc:	000002a7 	andeq	r0, r0, r7, lsr #5
    10d0:	00040201 	andeq	r0, r4, r1, lsl #4
    10d4:	00042400 	andeq	r2, r4, r0, lsl #8
    10d8:	008b3000 	addeq	r3, fp, r0
    10dc:	00005800 	andeq	r5, r0, r0, lsl #16
    10e0:	00031000 	andeq	r1, r3, r0
    10e4:	03f30200 	mvnseq	r0, #0, 4
    10e8:	28020000 	stmdacs	r2, {}	; <UNPREDICTABLE>
    10ec:	00000030 	andeq	r0, r0, r0, lsr r0
    10f0:	00041a03 	andeq	r1, r4, r3, lsl #20
    10f4:	00030400 	andeq	r0, r3, r0, lsl #8
    10f8:	00000047 	andeq	r0, r0, r7, asr #32
    10fc:	00046d04 	andeq	r6, r4, r4, lsl #26
    1100:	00004700 	andeq	r4, r0, r0, lsl #14
    1104:	05000000 	streq	r0, [r0, #-0]
    1108:	041c0204 	ldreq	r0, [ip], #-516	; 0x204
    110c:	62020000 	andvs	r0, r2, #0
    1110:	00000025 	andeq	r0, r0, r5, lsr #32
    1114:	69050406 	stmdbvs	r5, {r1, r2, sl}
    1118:	0700746e 	streq	r7, [r0, -lr, ror #8]
    111c:	00440704 	subeq	r0, r4, r4, lsl #14
    1120:	01070000 	mrseq	r0, (UNDEF: 7)
    1124:	00024e06 	andeq	r4, r2, r6, lsl #28
    1128:	05020700 	streq	r0, [r2, #-1792]	; 0x700
    112c:	00000267 	andeq	r0, r0, r7, ror #4
    1130:	67050407 	strvs	r0, [r5, -r7, lsl #8]
    1134:	07000000 	streq	r0, [r0, -r0]
    1138:	00620508 	rsbeq	r0, r2, r8, lsl #10
    113c:	01070000 	mrseq	r0, (UNDEF: 7)
    1140:	00024c08 	andeq	r4, r2, r8, lsl #24
    1144:	07020700 	streq	r0, [r2, -r0, lsl #14]
    1148:	0000015b 	andeq	r0, r0, fp, asr r1
    114c:	3f070407 	svccc	0x00070407
    1150:	07000000 	streq	r0, [r0, -r0]
    1154:	003a0708 	eorseq	r0, sl, r8, lsl #14
    1158:	04070000 	streq	r0, [r7], #-0
    115c:	00019207 	andeq	r9, r1, r7, lsl #4
    1160:	a7040800 	strge	r0, [r4, -r0, lsl #16]
    1164:	07000000 	streq	r0, [r0, -r0]
    1168:	02550801 	subseq	r0, r5, #65536	; 0x10000
    116c:	04080000 	streq	r0, [r8], #-0
    1170:	000000b4 	strheq	r0, [r0], -r4
    1174:	0000a709 	andeq	sl, r0, r9, lsl #14
    1178:	04130a00 	ldreq	r0, [r3], #-2560	; 0xa00
    117c:	06010000 	streq	r0, [r1], -r0
    1180:	00000054 	andeq	r0, r0, r4, asr r0
    1184:	00008b30 	andeq	r8, r0, r0, lsr fp
    1188:	00000058 	andeq	r0, r0, r8, asr r0
    118c:	01439c01 	cmpeq	r3, r1, lsl #24
    1190:	660b0000 	strvs	r0, [fp], -r0
    1194:	0100746d 	tsteq	r0, sp, ror #8
    1198:	0000ae06 	andeq	sl, r0, r6, lsl #28
    119c:	70910200 	addsvc	r0, r1, r0, lsl #4
    11a0:	75620d0c 	strbvc	r0, [r2, #-3340]!	; 0xd0c
    11a4:	08010066 	stmdaeq	r1, {r1, r2, r5, r6}
    11a8:	00000143 	andeq	r0, r0, r3, asr #2
    11ac:	a9040305 	stmdbge	r4, {r0, r2, r8, r9}
    11b0:	680e0000 	stmdavs	lr, {}	; <UNPREDICTABLE>
    11b4:	01000004 	tsteq	r0, r4
    11b8:	00004909 	andeq	r4, r0, r9, lsl #18
    11bc:	5c910200 	lfmpl	f0, 4, [r1], {0}
    11c0:	007a730f 	rsbseq	r7, sl, pc, lsl #6
    11c4:	00540c01 	subseq	r0, r4, r1, lsl #24
    11c8:	08d80000 	ldmeq	r8, {}^	; <UNPREDICTABLE>
    11cc:	58100000 	ldmdapl	r0, {}	; <UNPREDICTABLE>
    11d0:	7400008b 	strvc	r0, [r0], #-139	; 0x8b
    11d4:	36000001 	strcc	r0, [r0], -r1
    11d8:	11000001 	tstne	r0, r1
    11dc:	91025301 	tstls	r2, r1, lsl #6
    11e0:	5201114c 	andpl	r1, r1, #76, 2
    11e4:	06489103 	strbeq	r9, [r8], -r3, lsl #2
    11e8:	03510111 	cmpeq	r1, #1073741828	; 0x40000004
    11ec:	1104000a 	tstne	r4, sl
    11f0:	74025001 	strvc	r5, [r2], #-1
    11f4:	6c120000 	ldcvs	0, cr0, [r2], {-0}
    11f8:	1100008b 	smlabbne	r0, fp, r0, r0
    11fc:	74025001 	strvc	r5, [r2], #-1
    1200:	13000000 	movwne	r0, #0
    1204:	000000a7 	andeq	r0, r0, r7, lsr #1
    1208:	00000154 	andeq	r0, r0, r4, asr r1
    120c:	00009a14 	andeq	r9, r0, r4, lsl sl
    1210:	0003ff00 	andeq	pc, r3, r0, lsl #30
    1214:	00005415 	andeq	r5, r0, r5, lsl r4
    1218:	00016300 	andeq	r6, r1, r0, lsl #6
    121c:	00ae1600 	adceq	r1, lr, r0, lsl #12
    1220:	17000000 	strne	r0, [r0, -r0]
    1224:	000004c0 	andeq	r0, r0, r0, asr #9
    1228:	016e2204 	cmneq	lr, r4, lsl #4
    122c:	04080000 	streq	r0, [r8], #-0
    1230:	00000154 	andeq	r0, r0, r4, asr r1
    1234:	00041018 	andeq	r1, r4, r8, lsl r0
    1238:	54020500 	strpl	r0, [r2], #-1280	; 0x500
    123c:	16000000 	strne	r0, [r0], -r0
    1240:	000000a1 	andeq	r0, r0, r1, lsr #1
    1244:	00005416 	andeq	r5, r0, r6, lsl r4
    1248:	00ae1600 	adceq	r1, lr, r0, lsl #12
    124c:	49160000 	ldmdbmi	r6, {}	; <UNPREDICTABLE>
    1250:	00000000 	andeq	r0, r0, r0
    1254:	00011300 	andeq	r1, r1, r0, lsl #6
    1258:	99000400 	stmdbls	r0, {sl}
    125c:	04000003 	streq	r0, [r0], #-3
    1260:	0002a701 	andeq	sl, r2, r1, lsl #14
    1264:	048f0100 	streq	r0, [pc], #256	; 126c <_start-0x6d94>
    1268:	04240000 	strteq	r0, [r4], #-0
    126c:	8b880000 	blhi	fe201274 <__bss_end__+0xfe1f655c>
    1270:	003c0000 	eorseq	r0, ip, r0
    1274:	04160000 	ldreq	r0, [r6], #-0
    1278:	04020000 	streq	r0, [r2], #-0
    127c:	746e6905 	strbtvc	r6, [lr], #-2309	; 0x905
    1280:	07040300 	streq	r0, [r4, -r0, lsl #6]
    1284:	00000044 	andeq	r0, r0, r4, asr #32
    1288:	4e060103 	adfmis	f0, f6, f3
    128c:	03000002 	movweq	r0, #2
    1290:	02670502 	rsbeq	r0, r7, #8388608	; 0x800000
    1294:	04030000 	streq	r0, [r3], #-0
    1298:	00006705 	andeq	r6, r0, r5, lsl #14
    129c:	05080300 	streq	r0, [r8, #-768]	; 0x300
    12a0:	00000062 	andeq	r0, r0, r2, rrx
    12a4:	4c080103 	stfmis	f0, [r8], {3}
    12a8:	03000002 	movweq	r0, #2
    12ac:	015b0702 	cmpeq	fp, r2, lsl #14
    12b0:	04030000 	streq	r0, [r3], #-0
    12b4:	00003f07 	andeq	r3, r0, r7, lsl #30
    12b8:	07080300 	streq	r0, [r8, -r0, lsl #6]
    12bc:	0000003a 	andeq	r0, r0, sl, lsr r0
    12c0:	92070403 	andls	r0, r7, #50331648	; 0x3000000
    12c4:	03000001 	movweq	r0, #1
    12c8:	02550801 	subseq	r0, r5, #65536	; 0x10000
    12cc:	72040000 	andvc	r0, r4, #0
    12d0:	01000004 	tsteq	r0, r4
    12d4:	00002503 	andeq	r2, r0, r3, lsl #10
    12d8:	008b8800 	addeq	r8, fp, r0, lsl #16
    12dc:	00001400 	andeq	r1, r0, r0, lsl #8
    12e0:	b09c0100 	addslt	r0, ip, r0, lsl #2
    12e4:	05000000 	streq	r0, [r0, #-0]
    12e8:	03010063 	movweq	r0, #4195	; 0x1063
    12ec:	00000025 	andeq	r0, r0, r5, lsr #32
    12f0:	00000901 	andeq	r0, r0, r1, lsl #18
    12f4:	008b9406 	addeq	r9, fp, r6, lsl #8
    12f8:	00010900 	andeq	r0, r1, r0, lsl #18
    12fc:	50010700 	andpl	r0, r1, r0, lsl #14
    1300:	00007402 	andeq	r7, r0, r2, lsl #8
    1304:	00fb0800 	rscseq	r0, fp, r0, lsl #16
    1308:	08010000 	stmdaeq	r1, {}	; <UNPREDICTABLE>
    130c:	00008b9c 	muleq	r0, ip, fp
    1310:	00000018 	andeq	r0, r0, r8, lsl r0
    1314:	9e099c01 	cdpls	12, 0, cr9, cr9, cr1, {0}
    1318:	01000004 	tsteq	r0, r4
    131c:	008bb40b 	addeq	fp, fp, fp, lsl #8
    1320:	00001000 	andeq	r1, r0, r0
    1324:	e39c0100 	orrs	r0, ip, #0, 2
    1328:	0a000000 	beq	1330 <_start-0x6cd0>
    132c:	01007066 	tsteq	r0, r6, rrx
    1330:	0000f20b 	andeq	pc, r0, fp, lsl #4
    1334:	00500100 	subseq	r0, r0, r0, lsl #2
    1338:	0000250b 	andeq	r2, r0, fp, lsl #10
    133c:	0000f200 	andeq	pc, r0, r0, lsl #4
    1340:	00250c00 	eoreq	r0, r5, r0, lsl #24
    1344:	0d000000 	stceq	0, cr0, [r0, #-0]
    1348:	0000e304 	andeq	lr, r0, r4, lsl #6
    134c:	04830e00 	streq	r0, [r3], #3584	; 0xe00
    1350:	06010000 	streq	r0, [r1], -r0
    1354:	000000f2 	strdeq	r0, [r0], -r2
    1358:	a3e80305 	mvnge	r0, #335544320	; 0x14000000
    135c:	0b0f0000 	bleq	3c1364 <__bss_end__+0x3b664c>
    1360:	02000006 	andeq	r0, r0, #6
    1364:	002c0c3c 	eoreq	r0, ip, ip, lsr ip
    1368:	00000000 	andeq	r0, r0, r0
    136c:	000000ee 	andeq	r0, r0, lr, ror #1
    1370:	04810004 	streq	r0, [r1], #4
    1374:	01040000 	mrseq	r0, (UNDEF: 4)
    1378:	000002a7 	andeq	r0, r0, r7, lsr #5
    137c:	0004ab01 	andeq	sl, r4, r1, lsl #22
    1380:	00042400 	andeq	r2, r4, r0, lsl #8
    1384:	008bc400 	addeq	ip, fp, r0, lsl #8
    1388:	00003400 	andeq	r3, r0, r0, lsl #8
    138c:	0004a400 	andeq	sl, r4, r0, lsl #8
    1390:	05040200 	streq	r0, [r4, #-512]	; 0x200
    1394:	00746e69 	rsbseq	r6, r4, r9, ror #28
    1398:	44070403 	strmi	r0, [r7], #-1027	; 0x403
    139c:	03000000 	movweq	r0, #0
    13a0:	024e0601 	subeq	r0, lr, #1048576	; 0x100000
    13a4:	02030000 	andeq	r0, r3, #0
    13a8:	00026705 	andeq	r6, r2, r5, lsl #14
    13ac:	05040300 	streq	r0, [r4, #-768]	; 0x300
    13b0:	00000067 	andeq	r0, r0, r7, rrx
    13b4:	62050803 	andvs	r0, r5, #196608	; 0x30000
    13b8:	03000000 	movweq	r0, #0
    13bc:	024c0801 	subeq	r0, ip, #65536	; 0x10000
    13c0:	02030000 	andeq	r0, r3, #0
    13c4:	00015b07 	andeq	r5, r1, r7, lsl #22
    13c8:	07040300 	streq	r0, [r4, -r0, lsl #6]
    13cc:	0000003f 	andeq	r0, r0, pc, lsr r0
    13d0:	3a070803 	bcc	1c33e4 <__bss_end__+0x1b86cc>
    13d4:	03000000 	movweq	r0, #0
    13d8:	01920704 	orrseq	r0, r2, r4, lsl #14
    13dc:	01030000 	mrseq	r0, (UNDEF: 3)
    13e0:	00025508 	andeq	r5, r2, r8, lsl #10
    13e4:	7f040400 	svcvc	0x00040400
    13e8:	05000000 	streq	r0, [r0, #-0]
    13ec:	00000072 	andeq	r0, r0, r2, ror r0
    13f0:	0004b706 	andeq	fp, r4, r6, lsl #14
    13f4:	25040100 	strcs	r0, [r4, #-256]	; 0x100
    13f8:	c4000000 	strgt	r0, [r0], #-0
    13fc:	3400008b 	strcc	r0, [r0], #-139	; 0x8b
    1400:	01000000 	mrseq	r0, (UNDEF: 0)
    1404:	0000ab9c 	muleq	r0, ip, fp
    1408:	00700700 	rsbseq	r0, r0, r0, lsl #14
    140c:	00790401 	rsbseq	r0, r9, r1, lsl #8
    1410:	091f0000 	ldmdbeq	pc, {}	; <UNPREDICTABLE>
    1414:	08000000 	stmdaeq	r0, {}	; <UNPREDICTABLE>
    1418:	00000025 	andeq	r0, r0, r5, lsr #32
    141c:	000000ba 	strheq	r0, [r0], -sl
    1420:	00002509 	andeq	r2, r0, r9, lsl #10
    1424:	830a0000 	movwhi	r0, #40960	; 0xa000
    1428:	02000004 	andeq	r0, r0, #4
    142c:	0000c51d 	andeq	ip, r0, sp, lsl r5
    1430:	ab040400 	blge	102438 <__bss_end__+0xf7720>
    1434:	08000000 	stmdaeq	r0, {}	; <UNPREDICTABLE>
    1438:	00000025 	andeq	r0, r0, r5, lsr #32
    143c:	000000da 	ldrdeq	r0, [r0], -sl
    1440:	00007909 	andeq	r7, r0, r9, lsl #18
    1444:	c00b0000 	andgt	r0, fp, r0
    1448:	01000004 	tsteq	r0, r4
    144c:	0000eb0c 	andeq	lr, r0, ip, lsl #22
    1450:	ec030500 	cfstr32	mvfx0, [r3], {-0}
    1454:	040000a3 	streq	r0, [r0], #-163	; 0xa3
    1458:	0000cb04 	andeq	ip, r0, r4, lsl #22
    145c:	06a10000 	strteq	r0, [r1], r0
    1460:	00040000 	andeq	r0, r4, r0
    1464:	0000051a 	andeq	r0, r0, sl, lsl r5
    1468:	02a70104 	adceq	r0, r7, #4, 2
    146c:	f1010000 	setend	le
    1470:	24000004 	strcs	r0, [r0], #-4
    1474:	f8000004 			; <UNDEFINED> instruction: 0xf8000004
    1478:	2400008b 	strcs	r0, [r0], #-139	; 0x8b
    147c:	3e000005 	cdpcc	0, 0, cr0, cr0, cr5, {0}
    1480:	02000005 	andeq	r0, r0, #5
    1484:	6e690504 	cdpvs	5, 6, cr0, cr9, cr4, {0}
    1488:	04030074 	streq	r0, [r3], #-116	; 0x74
    148c:	00004407 	andeq	r4, r0, r7, lsl #8
    1490:	06010300 	streq	r0, [r1], -r0, lsl #6
    1494:	0000024e 	andeq	r0, r0, lr, asr #4
    1498:	67050203 	strvs	r0, [r5, -r3, lsl #4]
    149c:	03000002 	movweq	r0, #2
    14a0:	00670504 	rsbeq	r0, r7, r4, lsl #10
    14a4:	08030000 	stmdaeq	r3, {}	; <UNPREDICTABLE>
    14a8:	00006205 	andeq	r6, r0, r5, lsl #4
    14ac:	08010300 	stmdaeq	r1, {r8, r9}
    14b0:	0000024c 	andeq	r0, r0, ip, asr #4
    14b4:	5b070203 	blpl	1c1cc8 <__bss_end__+0x1b6fb0>
    14b8:	03000001 	movweq	r0, #1
    14bc:	003f0704 	eorseq	r0, pc, r4, lsl #14
    14c0:	08030000 	stmdaeq	r3, {}	; <UNPREDICTABLE>
    14c4:	00003a07 	andeq	r3, r0, r7, lsl #20
    14c8:	07040300 	streq	r0, [r4, -r0, lsl #6]
    14cc:	00000192 	muleq	r0, r2, r1
    14d0:	04050404 	streq	r0, [r5], #-1028	; 0x404
    14d4:	0000007a 	andeq	r0, r0, sl, ror r0
    14d8:	55080103 	strpl	r0, [r8, #-259]	; 0x103
    14dc:	05000002 	streq	r0, [r0, #-2]
    14e0:	00008704 	andeq	r8, r0, r4, lsl #14
    14e4:	007a0600 	rsbseq	r0, sl, r0, lsl #12
    14e8:	f3070000 	vhadd.u8	d0, d7, d0
    14ec:	02000003 	andeq	r0, r0, #3
    14f0:	00009728 	andeq	r9, r0, r8, lsr #14
    14f4:	041a0800 	ldreq	r0, [sl], #-2048	; 0x800
    14f8:	04040000 	streq	r0, [r4], #-0
    14fc:	0000ae00 	andeq	sl, r0, r0, lsl #28
    1500:	046d0900 	strbteq	r0, [sp], #-2304	; 0x900
    1504:	00720000 	rsbseq	r0, r2, r0
    1508:	00000000 	andeq	r0, r0, r0
    150c:	00041c07 	andeq	r1, r4, r7, lsl #24
    1510:	8c620200 	sfmhi	f0, 2, [r2], #-0
    1514:	0a000000 	beq	151c <_start-0x6ae4>
    1518:	000004d3 	ldrdeq	r0, [r0], -r3
    151c:	00252701 	eoreq	r2, r5, r1, lsl #14
    1520:	8bf80000 	blhi	ffe01528 <__bss_end__+0xffdf6810>
    1524:	00140000 	andseq	r0, r4, r0
    1528:	9c010000 	stcls	0, cr0, [r1], {-0}
    152c:	000000e0 	andeq	r0, r0, r0, ror #1
    1530:	0100630b 	tsteq	r0, fp, lsl #6
    1534:	00002527 	andeq	r2, r0, r7, lsr #10
    1538:	00093d00 	andeq	r3, r9, r0, lsl #26
    153c:	700c0000 	andvc	r0, ip, r0
    1540:	01006461 	tsteq	r0, r1, ror #8
    1544:	0000742e 	andeq	r7, r0, lr, lsr #8
    1548:	008c0c00 	addeq	r0, ip, r0, lsl #24
    154c:	00002c00 	andeq	r2, r0, r0, lsl #24
    1550:	309c0100 	addscc	r0, ip, r0, lsl #2
    1554:	0b000001 	bleq	1560 <_start-0x6aa0>
    1558:	2e010070 	mcrcs	0, 0, r0, cr1, cr0, {3}
    155c:	00000074 	andeq	r0, r0, r4, ror r0
    1560:	0000096b 	andeq	r0, r0, fp, ror #18
    1564:	0004e30d 	andeq	lr, r4, sp, lsl #6
    1568:	742e0100 	strtvc	r0, [lr], #-256	; 0x100
    156c:	96000000 	strls	r0, [r0], -r0
    1570:	0e000009 	cdpeq	0, 0, cr0, cr0, cr9, {0}
    1574:	00000511 	andeq	r0, r0, r1, lsl r5
    1578:	00252e01 	eoreq	r2, r5, r1, lsl #28
    157c:	52010000 	andpl	r0, r1, #0
    1580:	6e656c0f 	cdpvs	12, 6, cr6, cr5, cr15, {0}
    1584:	252f0100 	strcs	r0, [pc, #-256]!	; 148c <_start-0x6b74>
    1588:	01000000 	mrseq	r0, (UNDEF: 0)
    158c:	cb0a0051 	blgt	2816d8 <__bss_end__+0x2769c0>
    1590:	01000004 	tsteq	r0, r4
    1594:	00007437 	andeq	r7, r0, r7, lsr r4
    1598:	008c3800 	addeq	r3, ip, r0, lsl #16
    159c:	00004000 	andeq	r4, r0, r0
    15a0:	9c9c0100 	ldflss	f0, [ip], {0}
    15a4:	0b000001 	bleq	15b0 <_start-0x6a50>
    15a8:	00747364 	rsbseq	r7, r4, r4, ror #6
    15ac:	00743701 	rsbseq	r3, r4, r1, lsl #14
    15b0:	09b70000 	ldmibeq	r7!, {}	; <UNPREDICTABLE>
    15b4:	6e0b0000 	cdpvs	0, 0, cr0, cr11, cr0, {0}
    15b8:	25370100 	ldrcs	r0, [r7, #-256]!	; 0x100
    15bc:	ef000000 	svc	0x00000000
    15c0:	0b000009 	bleq	15ec <_start-0x6a14>
    15c4:	37010070 	smlsdxcc	r1, r0, r0, r0
    15c8:	00000074 	andeq	r0, r0, r4, ror r0
    15cc:	00000a10 	andeq	r0, r0, r0, lsl sl
    15d0:	0005f70d 	andeq	pc, r5, sp, lsl #14
    15d4:	74370100 	ldrtvc	r0, [r7], #-256	; 0x100
    15d8:	46000000 	strmi	r0, [r0], -r0
    15dc:	1000000a 	andne	r0, r0, sl
    15e0:	006e656c 	rsbeq	r6, lr, ip, ror #10
    15e4:	00253901 	eoreq	r3, r5, r1, lsl #18
    15e8:	0a640000 	beq	19015f0 <__bss_end__+0x18f68d8>
    15ec:	730f0000 	movwvc	r0, #61440	; 0xf000
    15f0:	743d0100 	ldrtvc	r0, [sp], #-256	; 0x100
    15f4:	01000000 	mrseq	r0, (UNDEF: 0)
    15f8:	1f0a0050 	svcne	0x000a0050
    15fc:	01000005 	tsteq	r0, r5
    1600:	00007447 	andeq	r7, r0, r7, asr #8
    1604:	008c7800 	addeq	r7, ip, r0, lsl #16
    1608:	0001a800 	andeq	sl, r1, r0, lsl #16
    160c:	df9c0100 	svcle	0x009c0100
    1610:	0d000002 	stceq	0, cr0, [r0, #-8]
    1614:	000004e3 	andeq	r0, r0, r3, ror #9
    1618:	002c4701 	eoreq	r4, ip, r1, lsl #14
    161c:	0a8b0000 	beq	fe2c1624 <__bss_end__+0xfe2b690c>
    1620:	640b0000 	strvs	r0, [fp], #-0
    1624:	01007473 	tsteq	r0, r3, ror r4
    1628:	00007447 	andeq	r7, r0, r7, asr #8
    162c:	000ab900 	andeq	fp, sl, r0, lsl #18
    1630:	006e0b00 	rsbeq	r0, lr, r0, lsl #22
    1634:	00254701 	eoreq	r4, r5, r1, lsl #14
    1638:	0b270000 	bleq	9c1640 <__bss_end__+0x9b6928>
    163c:	760b0000 	strvc	r0, [fp], -r0
    1640:	01006c61 	tsteq	r0, r1, ror #24
    1644:	00002547 	andeq	r2, r0, r7, asr #10
    1648:	000b5300 	andeq	r5, fp, r0, lsl #6
    164c:	05110d00 	ldreq	r0, [r1, #-3328]	; 0xd00
    1650:	47010000 	strmi	r0, [r1, -r0]
    1654:	00000025 	andeq	r0, r0, r5, lsr #32
    1658:	00000bd2 	ldrdeq	r0, [r0], -r2
    165c:	0004e80e 	andeq	lr, r4, lr, lsl #16
    1660:	25470100 	strbcs	r0, [r7, #-256]	; 0x100
    1664:	02000000 	andeq	r0, r0, #0
    1668:	620f0491 	andvs	r0, pc, #-1862270976	; 0x91000000
    166c:	01006675 	tsteq	r0, r5, ror r6
    1670:	0002df4c 	andeq	sp, r2, ip, asr #30
    1674:	a8910300 	ldmge	r1, {r8, r9}
    1678:	0070107f 	rsbseq	r1, r0, pc, ror r0
    167c:	00744c01 	rsbseq	r4, r4, r1, lsl #24
    1680:	0bfc0000 	bleq	fff01688 <__bss_end__+0xffef6970>
    1684:	75100000 	ldrvc	r0, [r0, #-0]
    1688:	2c4d0100 	stfcse	f0, [sp], {-0}
    168c:	b8000000 	stmdalt	r0, {}	; <UNPREDICTABLE>
    1690:	1100000c 	tstne	r0, ip
    1694:	0000014e 	andeq	r0, r0, lr, asr #2
    1698:	000002ff 	strdeq	r0, [r0], -pc	; <UNPREDICTABLE>
    169c:	a4e80305 	strbtge	r0, [r8], #773	; 0x305
    16a0:	e4120000 	ldr	r0, [r2], #-0
    16a4:	7400008c 	strvc	r0, [r0], #-140	; 0x8c
    16a8:	61000000 	mrsvs	r0, (UNDEF: 0)
    16ac:	13000002 	movwne	r0, #2
    16b0:	000004c5 	andeq	r0, r0, r5, asr #9
    16b4:	002c5201 	eoreq	r5, ip, r1, lsl #4
    16b8:	0dbd0000 	ldceq	0, cr0, [sp]
    16bc:	14000000 	strne	r0, [r0], #-0
    16c0:	00008db8 			; <UNDEFINED> instruction: 0x00008db8
    16c4:	00000680 	andeq	r0, r0, r0, lsl #13
    16c8:	008dd415 	addeq	sp, sp, r5, lsl r4
    16cc:	00068700 	andeq	r8, r6, r0, lsl #14
    16d0:	0002a300 	andeq	sl, r2, r0, lsl #6
    16d4:	53011600 	movwpl	r1, #5632	; 0x1600
    16d8:	16750802 	ldrbtne	r0, [r5], -r2, lsl #16
    16dc:	03055201 	movweq	r5, #20993	; 0x5201
    16e0:	0000a4e8 	andeq	sl, r0, r8, ror #9
    16e4:	05510116 	ldrbeq	r0, [r1, #-278]	; 0x116
    16e8:	00a52003 	adceq	r2, r5, r3
    16ec:	50011600 	andpl	r1, r1, r0, lsl #12
    16f0:	a50c0305 	strge	r0, [ip, #-773]	; 0x305
    16f4:	02160000 	andseq	r0, r6, #0
    16f8:	0305007d 	movweq	r0, #20605	; 0x507d
    16fc:	0000a534 	andeq	sl, r0, r4, lsr r5
    1700:	8dd81400 	cfldrdhi	mvd1, [r8]
    1704:	069d0000 	ldreq	r0, [sp], r0
    1708:	e4150000 	ldr	r0, [r5], #-0
    170c:	e000008d 	and	r0, r0, sp, lsl #1
    1710:	c1000000 	mrsgt	r0, (UNDEF: 0)
    1714:	16000002 	strne	r0, [r0], -r2
    1718:	91035101 	tstls	r3, r1, lsl #2
    171c:	17007fa0 	strne	r7, [r0, -r0, lsr #31]
    1720:	00008df8 	strdeq	r8, [r0], -r8	; <UNPREDICTABLE>
    1724:	00000130 	andeq	r0, r0, r0, lsr r1
    1728:	03530116 	cmpeq	r3, #-2147483643	; 0x80000005
    172c:	167fa091 			; <UNDEFINED> instruction: 0x167fa091
    1730:	74025101 	strvc	r5, [r2], #-257	; 0x101
    1734:	50011600 	andpl	r1, r1, r0, lsl #12
    1738:	00007502 	andeq	r7, r0, r2, lsl #10
    173c:	007a1800 	rsbseq	r1, sl, r0, lsl #16
    1740:	02ef0000 	rsceq	r0, pc, #0
    1744:	6b190000 	blvs	64174c <__bss_end__+0x636a34>
    1748:	3f000000 	svccc	0x00000000
    174c:	007a1800 	rsbseq	r1, sl, r0, lsl #16
    1750:	02ff0000 	rscseq	r0, pc, #0
    1754:	6b190000 	blvs	64175c <__bss_end__+0x636a44>
    1758:	04000000 	streq	r0, [r0], #-0
    175c:	02ef0600 	rsceq	r0, pc, #0, 12
    1760:	021a0000 	andseq	r0, sl, #0
    1764:	01000005 	tsteq	r0, r5
    1768:	008e201f 	addeq	r2, lr, pc, lsl r0
    176c:	00006800 	andeq	r6, r0, r0, lsl #16
    1770:	929c0100 	addsls	r0, ip, #0, 2
    1774:	0d000003 	stceq	0, cr0, [r0, #-12]
    1778:	00000517 	andeq	r0, r0, r7, lsl r5
    177c:	03a11f01 			; <UNDEFINED> instruction: 0x03a11f01
    1780:	0de90000 	stcleq	0, cr0, [r9]
    1784:	db0d0000 	blle	34178c <__bss_end__+0x336a74>
    1788:	01000004 	tsteq	r0, r4
    178c:	0003b61f 	andeq	fp, r3, pc, lsl r6
    1790:	000e1500 	andeq	r1, lr, r0, lsl #10
    1794:	014e1100 	mrseq	r1, (UNDEF: 94)
    1798:	03cc0000 	biceq	r0, ip, #0
    179c:	03050000 	movweq	r0, #20480	; 0x5000
    17a0:	0000a4f0 	strdeq	sl, [r0], -r0
    17a4:	008e3414 	addeq	r3, lr, r4, lsl r4
    17a8:	00068000 	andeq	r8, r6, r0
    17ac:	8e501500 	cdphi	5, 5, cr1, cr0, cr0, {0}
    17b0:	06870000 	streq	r0, [r7], r0
    17b4:	03880000 	orreq	r0, r8, #0
    17b8:	01160000 	tsteq	r6, r0
    17bc:	20080253 	andcs	r0, r8, r3, asr r2
    17c0:	05520116 	ldrbeq	r0, [r2, #-278]	; 0x116
    17c4:	00a4f003 	adceq	pc, r4, r3
    17c8:	51011600 	tstpl	r1, r0, lsl #12
    17cc:	a5200305 	strge	r0, [r0, #-773]!	; 0x305
    17d0:	01160000 	tsteq	r6, r0
    17d4:	0c030550 	cfstr32eq	mvfx0, [r3], {80}	; 0x50
    17d8:	160000a5 	strne	r0, [r0], -r5, lsr #1
    17dc:	05007d02 	streq	r7, [r0, #-3330]	; 0xd02
    17e0:	00a55c03 	adceq	r5, r5, r3, lsl #24
    17e4:	54140000 	ldrpl	r0, [r4], #-0
    17e8:	9d00008e 	stcls	0, cr0, [r0, #-568]	; 0xfffffdc8
    17ec:	00000006 	andeq	r0, r0, r6
    17f0:	0000251b 	andeq	r2, r0, fp, lsl r5
    17f4:	0003a100 	andeq	sl, r3, r0, lsl #2
    17f8:	00251c00 	eoreq	r1, r5, r0, lsl #24
    17fc:	05000000 	streq	r0, [r0, #-0]
    1800:	00039204 	andeq	r9, r3, r4, lsl #4
    1804:	00251b00 	eoreq	r1, r5, r0, lsl #22
    1808:	03b60000 			; <UNDEFINED> instruction: 0x03b60000
    180c:	811c0000 	tsthi	ip, r0
    1810:	00000000 	andeq	r0, r0, r0
    1814:	03a70405 			; <UNDEFINED> instruction: 0x03a70405
    1818:	7a180000 	bvc	601820 <__bss_end__+0x5f6b08>
    181c:	cc000000 	stcgt	0, cr0, [r0], {-0}
    1820:	19000003 	stmdbne	r0, {r0, r1}
    1824:	0000006b 	andeq	r0, r0, fp, rrx
    1828:	bc06000e 	stclt	0, cr0, [r6], {14}
    182c:	1d000003 	stcne	0, cr0, [r0, #-12]
    1830:	00000410 	andeq	r0, r0, r0, lsl r4
    1834:	00257d01 	eoreq	r7, r5, r1, lsl #26
    1838:	8e880000 	cdphi	0, 8, cr0, cr8, cr0, {0}
    183c:	02940000 	addseq	r0, r4, #0
    1840:	9c010000 	stcls	0, cr0, [r1], {-0}
    1844:	00000645 	andeq	r0, r0, r5, asr #12
    1848:	6675620b 	ldrbtvs	r6, [r5], -fp, lsl #4
    184c:	747d0100 	ldrbtvc	r0, [sp], #-256	; 0x100
    1850:	41000000 	mrsmi	r0, (UNDEF: 0)
    1854:	0b00000e 	bleq	1894 <_start-0x676c>
    1858:	7d01006e 	stcvc	0, cr0, [r1, #-440]	; 0xfffffe48
    185c:	00000025 	andeq	r0, r0, r5, lsr #32
    1860:	00000e6d 	andeq	r0, r0, sp, ror #28
    1864:	746d660b 	strbtvc	r6, [sp], #-1547	; 0x60b
    1868:	817d0100 	cmnhi	sp, r0, lsl #2
    186c:	9b000000 	blls	1874 <_start-0x678c>
    1870:	0d00000e 	stceq	0, cr0, [r0, #-56]	; 0xffffffc8
    1874:	00000468 	andeq	r0, r0, r8, ror #8
    1878:	00ae7d01 	adceq	r7, lr, r1, lsl #26
    187c:	0ecf0000 	cdpeq	0, 12, cr0, cr15, cr0, {0}
    1880:	70100000 	andsvc	r0, r0, r0
    1884:	747e0100 	ldrbtvc	r0, [lr], #-256	; 0x100
    1888:	e2000000 	and	r0, r0, #0
    188c:	1000000e 	andne	r0, r0, lr
    1890:	7e010065 	cdpvc	0, 0, cr0, cr1, cr5, {3}
    1894:	00000074 	andeq	r0, r0, r4, ror r0
    1898:	00000f60 	andeq	r0, r0, r0, ror #30
    189c:	00014e11 	andeq	r4, r1, r1, lsl lr
    18a0:	00065500 	andeq	r5, r6, r0, lsl #10
    18a4:	00030500 	andeq	r0, r3, r0, lsl #10
    18a8:	1e0000a5 	cdpne	0, 0, cr0, cr0, cr5, {5}
    18ac:	00000000 	andeq	r0, r0, r0
    18b0:	01007310 	tsteq	r0, r0, lsl r3
    18b4:	0000748b 	andeq	r7, r0, fp, lsl #9
    18b8:	000f8700 	andeq	r8, pc, r0, lsl #14
    18bc:	756e0f00 	strbvc	r0, [lr, #-3840]!	; 0xf00
    18c0:	8b01006d 	blhi	41a7c <__bss_end__+0x36d64>
    18c4:	0000065a 	andeq	r0, r0, sl, asr r6
    18c8:	7ed89103 	atnvce	f1, f3
    18cc:	00051113 	andeq	r1, r5, r3, lsl r1
    18d0:	2c8c0100 	stfcss	f0, [ip], {0}
    18d4:	dc000000 	stcle	0, cr0, [r0], {-0}
    18d8:	1500000f 	strne	r0, [r0, #-15]
    18dc:	00008f0c 	andeq	r8, r0, ip, lsl #30
    18e0:	000000b9 	strheq	r0, [r0], -r9
    18e4:	00000491 	muleq	r0, r1, r4
    18e8:	02500116 	subseq	r0, r0, #-2147483643	; 0x80000005
    18ec:	14000075 	strne	r0, [r0], #-117	; 0x75
    18f0:	00008f20 	andeq	r8, r0, r0, lsr #30
    18f4:	00000680 	andeq	r0, r0, r0, lsl #13
    18f8:	008f3c15 	addeq	r3, pc, r5, lsl ip	; <UNPREDICTABLE>
    18fc:	00068700 	andeq	r8, r6, r0, lsl #14
    1900:	0004d300 	andeq	sp, r4, r0, lsl #6
    1904:	53011600 	movwpl	r1, #5632	; 0x1600
    1908:	16920802 	ldrne	r0, [r2], r2, lsl #16
    190c:	03055201 	movweq	r5, #20993	; 0x5201
    1910:	0000a500 	andeq	sl, r0, r0, lsl #10
    1914:	05510116 	ldrbeq	r0, [r1, #-278]	; 0x116
    1918:	00a52003 	adceq	r2, r5, r3
    191c:	50011600 	andpl	r1, r1, r0, lsl #12
    1920:	a50c0305 	strge	r0, [ip, #-773]	; 0x305
    1924:	02160000 	andseq	r0, r6, #0
    1928:	0305007d 	movweq	r0, #20605	; 0x507d
    192c:	0000a564 	andeq	sl, r0, r4, ror #10
    1930:	8f401400 	svchi	0x00401400
    1934:	069d0000 	ldreq	r0, [sp], r0
    1938:	b0140000 	andslt	r0, r4, r0
    193c:	8000008f 	andhi	r0, r0, pc, lsl #1
    1940:	15000006 	strne	r0, [r0, #-6]
    1944:	00008fc4 	andeq	r8, r0, r4, asr #31
    1948:	00000687 	andeq	r0, r0, r7, lsl #13
    194c:	00000514 	andeq	r0, r0, r4, lsl r5
    1950:	02530116 	subseq	r0, r3, #-2147483643	; 0x80000005
    1954:	01169808 	tsteq	r6, r8, lsl #16
    1958:	00030552 	andeq	r0, r3, r2, asr r5
    195c:	160000a5 	strne	r0, [r0], -r5, lsr #1
    1960:	03055101 	movweq	r5, #20737	; 0x5101
    1964:	0000a520 	andeq	sl, r0, r0, lsr #10
    1968:	05500116 	ldrbeq	r0, [r0, #-278]	; 0x116
    196c:	00a57003 	adceq	r7, r5, r3
    1970:	c8140000 	ldmdagt	r4, {}	; <UNPREDICTABLE>
    1974:	9d00008f 	stcls	0, cr0, [r0, #-572]	; 0xfffffdc4
    1978:	15000006 	strne	r0, [r0, #-6]
    197c:	00008fec 	andeq	r8, r0, ip, ror #31
    1980:	0000019c 	muleq	r0, ip, r1
    1984:	0000054a 	andeq	r0, r0, sl, asr #10
    1988:	02520116 	subseq	r0, r2, #-2147483643	; 0x80000005
    198c:	01168008 	tsteq	r6, r8
    1990:	d0910351 	addsle	r0, r1, r1, asr r3
    1994:	5001167e 	andpl	r1, r1, lr, ror r6
    1998:	02163a01 	andseq	r3, r6, #4096	; 0x1000
    199c:	3101047d 	tstcc	r1, sp, ror r4
    19a0:	007d0216 	rsbseq	r0, sp, r6, lsl r2
    19a4:	00007702 	andeq	r7, r0, r2, lsl #14
    19a8:	00901015 	addseq	r1, r0, r5, lsl r0
    19ac:	00019c00 	andeq	r9, r1, r0, lsl #24
    19b0:	00057800 	andeq	r7, r5, r0, lsl #16
    19b4:	52011600 	andpl	r1, r1, #0, 12
    19b8:	16800802 	strne	r0, [r0], r2, lsl #16
    19bc:	91035101 	tstls	r3, r1, lsl #2
    19c0:	01167ed0 			; <UNDEFINED> instruction: 0x01167ed0
    19c4:	163a0150 			; <UNDEFINED> instruction: 0x163a0150
    19c8:	02047d02 	andeq	r7, r4, #2, 26	; 0x80
    19cc:	0216007b 	andseq	r0, r6, #123	; 0x7b
    19d0:	7702007d 	smlsdxvc	r2, sp, r0, r0
    19d4:	34150000 	ldrcc	r0, [r5], #-0
    19d8:	9c000090 	stcls	0, cr0, [r0], {144}	; 0x90
    19dc:	a6000001 	strge	r0, [r0], -r1
    19e0:	16000005 	strne	r0, [r0], -r5
    19e4:	08025201 	stmdaeq	r2, {r0, r9, ip, lr}
    19e8:	51011680 	smlabbpl	r1, r0, r6, r1
    19ec:	7ed09103 	atnvcs	f1, f3
    19f0:	01500116 	cmpeq	r0, r6, lsl r1
    19f4:	7d021640 	stcvc	6, cr1, [r2, #-256]	; 0xffffff00
    19f8:	007b0204 	rsbseq	r0, fp, r4, lsl #4
    19fc:	007d0216 	rsbseq	r0, sp, r6, lsl r2
    1a00:	00007702 	andeq	r7, r0, r2, lsl #14
    1a04:	00905815 	addseq	r5, r0, r5, lsl r8
    1a08:	00019c00 	andeq	r9, r1, r0, lsl #24
    1a0c:	0005d400 	andeq	sp, r5, r0, lsl #8
    1a10:	52011600 	andpl	r1, r1, #0, 12
    1a14:	16800802 	strne	r0, [r0], r2, lsl #16
    1a18:	91035101 	tstls	r3, r1, lsl #2
    1a1c:	01167ed0 			; <UNDEFINED> instruction: 0x01167ed0
    1a20:	16320150 			; <UNDEFINED> instruction: 0x16320150
    1a24:	02047d02 	andeq	r7, r4, #2, 26	; 0x80
    1a28:	0216007b 	andseq	r0, r6, #123	; 0x7b
    1a2c:	7702007d 	smlsdxvc	r2, sp, r0, r0
    1a30:	88150000 	ldmdahi	r5, {}	; <UNPREDICTABLE>
    1a34:	9c000090 	stcls	0, cr0, [r0], {144}	; 0x90
    1a38:	02000001 	andeq	r0, r0, #1
    1a3c:	16000006 	strne	r0, [r0], -r6
    1a40:	08025201 	stmdaeq	r2, {r0, r9, ip, lr}
    1a44:	51011680 	smlabbpl	r1, r0, r6, r1
    1a48:	7ed09103 	atnvcs	f1, f3
    1a4c:	01500116 	cmpeq	r0, r6, lsl r1
    1a50:	7d021638 	stcvc	6, cr1, [r2, #-224]	; 0xffffff20
    1a54:	007b0204 	rsbseq	r0, fp, r4, lsl #4
    1a58:	007d0216 	rsbseq	r0, sp, r6, lsl r2
    1a5c:	00007702 	andeq	r7, r0, r2, lsl #14
    1a60:	00909014 	addseq	r9, r0, r4, lsl r0
    1a64:	00068000 	andeq	r8, r6, r0
    1a68:	90ac1500 	adcls	r1, ip, r0, lsl #10
    1a6c:	06870000 	streq	r0, [r7], r0
    1a70:	063a0000 	ldrteq	r0, [sl], -r0
    1a74:	01160000 	tsteq	r6, r0
    1a78:	b9080253 	stmdblt	r8, {r0, r1, r4, r6, r9}
    1a7c:	05520116 	ldrbeq	r0, [r2, #-278]	; 0x116
    1a80:	00a50003 	adceq	r0, r5, r3
    1a84:	51011600 	tstpl	r1, r0, lsl #12
    1a88:	a5200305 	strge	r0, [r0, #-773]!	; 0x305
    1a8c:	01160000 	tsteq	r6, r0
    1a90:	98030550 	stmdals	r3, {r4, r6, r8, sl}
    1a94:	000000a5 	andeq	r0, r0, r5, lsr #1
    1a98:	0090b014 	addseq	fp, r0, r4, lsl r0
    1a9c:	00069d00 	andeq	r9, r6, r0, lsl #26
    1aa0:	18000000 	stmdane	r0, {}	; <UNPREDICTABLE>
    1aa4:	0000007a 	andeq	r0, r0, sl, ror r0
    1aa8:	00000655 	andeq	r0, r0, r5, asr r6
    1aac:	00006b19 	andeq	r6, r0, r9, lsl fp
    1ab0:	06000900 	streq	r0, [r0], -r0, lsl #18
    1ab4:	00000645 	andeq	r0, r0, r5, asr #12
    1ab8:	00007a18 	andeq	r7, r0, r8, lsl sl
    1abc:	00066a00 	andeq	r6, r6, r0, lsl #20
    1ac0:	006b1900 	rsbeq	r1, fp, r0, lsl #18
    1ac4:	007f0000 	rsbseq	r0, pc, r0
    1ac8:	0004831f 	andeq	r8, r4, pc, lsl r3
    1acc:	a11d0300 	tstge	sp, r0, lsl #6
    1ad0:	1f000003 	svcne	0x00000003
    1ad4:	000004c0 	andeq	r0, r0, r0, asr #9
    1ad8:	03b62203 			; <UNDEFINED> instruction: 0x03b62203
    1adc:	fb200000 	blx	801ae6 <__bss_end__+0x7f6dce>
    1ae0:	03000000 	movweq	r0, #0
    1ae4:	0413211e 	ldreq	r2, [r3], #-286	; 0x11e
    1ae8:	29030000 	stmdbcs	r3, {}	; <UNPREDICTABLE>
    1aec:	00000025 	andeq	r0, r0, r5, lsr #32
    1af0:	0000069d 	muleq	r0, sp, r6
    1af4:	0000811c 	andeq	r8, r0, ip, lsl r1
    1af8:	20002200 	andcs	r2, r0, r0, lsl #4
    1afc:	00000185 	andeq	r0, r0, r5, lsl #3
    1b00:	b8006603 	stmdalt	r0, {r0, r1, r9, sl, sp, lr}
    1b04:	04000000 	streq	r0, [r0], #-0
    1b08:	0006f600 	andeq	pc, r6, r0, lsl #12
    1b0c:	a7010400 	strge	r0, [r1, -r0, lsl #8]
    1b10:	01000002 	tsteq	r0, r2
    1b14:	00000532 	andeq	r0, r0, r2, lsr r5
    1b18:	00000424 	andeq	r0, r0, r4, lsr #8
    1b1c:	0000911c 	andeq	r9, r0, ip, lsl r1
    1b20:	00000020 	andeq	r0, r0, r0, lsr #32
    1b24:	00000724 	andeq	r0, r0, r4, lsr #14
    1b28:	69050402 	stmdbvs	r5, {r1, sl}
    1b2c:	0300746e 	movweq	r7, #1134	; 0x46e
    1b30:	00440704 	subeq	r0, r4, r4, lsl #14
    1b34:	01030000 	mrseq	r0, (UNDEF: 3)
    1b38:	00024e06 	andeq	r4, r2, r6, lsl #28
    1b3c:	05020300 	streq	r0, [r2, #-768]	; 0x300
    1b40:	00000267 	andeq	r0, r0, r7, ror #4
    1b44:	67050403 	strvs	r0, [r5, -r3, lsl #8]
    1b48:	03000000 	movweq	r0, #0
    1b4c:	00620508 	rsbeq	r0, r2, r8, lsl #10
    1b50:	01030000 	mrseq	r0, (UNDEF: 3)
    1b54:	00024c08 	andeq	r4, r2, r8, lsl #24
    1b58:	07020300 	streq	r0, [r2, -r0, lsl #6]
    1b5c:	0000015b 	andeq	r0, r0, fp, asr r1
    1b60:	3f070403 	svccc	0x00070403
    1b64:	03000000 	movweq	r0, #0
    1b68:	003a0708 	eorseq	r0, sl, r8, lsl #14
    1b6c:	04030000 	streq	r0, [r3], #-0
    1b70:	00019207 	andeq	r9, r1, r7, lsl #4
    1b74:	08010300 	stmdaeq	r1, {r8, r9}
    1b78:	00000255 	andeq	r0, r0, r5, asr r2
    1b7c:	00037704 	andeq	r7, r3, r4, lsl #14
    1b80:	1c030100 	stfnes	f0, [r3], {-0}
    1b84:	10000091 	mulne	r0, r1, r0
    1b88:	01000000 	mrseq	r0, (UNDEF: 0)
    1b8c:	00009c9c 	muleq	r0, ip, ip
    1b90:	00720500 	rsbseq	r0, r2, r0, lsl #10
    1b94:	002c0401 	eoreq	r0, ip, r1, lsl #8
    1b98:	10060000 	andne	r0, r6, r0
    1b9c:	06000000 	streq	r0, [r0], -r0
    1ba0:	00000524 	andeq	r0, r0, r4, lsr #10
    1ba4:	912c0c01 	teqls	ip, r1, lsl #24
    1ba8:	00100000 	andseq	r0, r0, r0
    1bac:	9c010000 	stcls	0, cr0, [r1], {-0}
    1bb0:	01007205 	tsteq	r0, r5, lsl #4
    1bb4:	00002c0d 	andeq	r2, r0, sp, lsl #24
    1bb8:	00102a00 	andseq	r2, r0, r0, lsl #20
    1bbc:	ff000000 			; <UNDEFINED> instruction: 0xff000000
    1bc0:	04000000 	streq	r0, [r0], #-0
    1bc4:	00076100 	andeq	r6, r7, r0, lsl #2
    1bc8:	a7010400 	strge	r0, [r1, -r0, lsl #8]
    1bcc:	01000002 	tsteq	r0, r2
    1bd0:	00000550 	andeq	r0, r0, r0, asr r5
    1bd4:	00000424 	andeq	r0, r0, r4, lsr #8
    1bd8:	0000913c 	andeq	r9, r0, ip, lsr r1
    1bdc:	00000028 	andeq	r0, r0, r8, lsr #32
    1be0:	0000076b 	andeq	r0, r0, fp, ror #14
    1be4:	69050402 	stmdbvs	r5, {r1, sl}
    1be8:	0300746e 	movweq	r7, #1134	; 0x46e
    1bec:	00440704 	subeq	r0, r4, r4, lsl #14
    1bf0:	01030000 	mrseq	r0, (UNDEF: 3)
    1bf4:	00024e06 	andeq	r4, r2, r6, lsl #28
    1bf8:	05020300 	streq	r0, [r2, #-768]	; 0x300
    1bfc:	00000267 	andeq	r0, r0, r7, ror #4
    1c00:	67050403 	strvs	r0, [r5, -r3, lsl #8]
    1c04:	03000000 	movweq	r0, #0
    1c08:	00620508 	rsbeq	r0, r2, r8, lsl #10
    1c0c:	01030000 	mrseq	r0, (UNDEF: 3)
    1c10:	00024c08 	andeq	r4, r2, r8, lsl #24
    1c14:	07020300 	streq	r0, [r2, -r0, lsl #6]
    1c18:	0000015b 	andeq	r0, r0, fp, asr r1
    1c1c:	3f070403 	svccc	0x00070403
    1c20:	03000000 	movweq	r0, #0
    1c24:	003a0708 	eorseq	r0, sl, r8, lsl #14
    1c28:	04030000 	streq	r0, [r3], #-0
    1c2c:	00019207 	andeq	r9, r1, r7, lsl #4
    1c30:	08010300 	stmdaeq	r1, {r8, r9}
    1c34:	00000255 	andeq	r0, r0, r5, asr r2
    1c38:	007f0404 	rsbseq	r0, pc, r4, lsl #8
    1c3c:	72050000 	andvc	r0, r5, #0
    1c40:	06000000 	streq	r0, [r0], -r0
    1c44:	00000185 	andeq	r0, r0, r5, lsl #3
    1c48:	913c0401 	teqls	ip, r1, lsl #8
    1c4c:	00280000 	eoreq	r0, r8, r0
    1c50:	9c010000 	stcls	0, cr0, [r1], {-0}
    1c54:	000000ca 	andeq	r0, r0, sl, asr #1
    1c58:	00915007 	addseq	r5, r1, r7
    1c5c:	0000ac00 	andeq	sl, r0, r0, lsl #24
    1c60:	50010800 	andpl	r0, r1, r0, lsl #16
    1c64:	a5d00305 	ldrbge	r0, [r0, #773]	; 0x305
    1c68:	09000000 	stmdbeq	r0, {}	; <UNPREDICTABLE>
    1c6c:	00009158 	andeq	r9, r0, r8, asr r1
    1c70:	000000ea 	andeq	r0, r0, sl, ror #1
    1c74:	000000c0 	andeq	r0, r0, r0, asr #1
    1c78:	02500108 	subseq	r0, r0, #8, 2
    1c7c:	0a006408 	beq	1aca4 <__bss_end__+0xff8c>
    1c80:	0000915c 	andeq	r9, r0, ip, asr r1
    1c84:	000000fb 	strdeq	r0, [r0], -fp
    1c88:	00250b00 	eoreq	r0, r5, r0, lsl #22
    1c8c:	00d90000 	sbcseq	r0, r9, r0
    1c90:	790c0000 	stmdbvc	ip, {}	; <UNPREDICTABLE>
    1c94:	00000000 	andeq	r0, r0, r0
    1c98:	0004c00d 	andeq	ip, r4, sp
    1c9c:	e4220200 	strt	r0, [r2], #-512	; 0x200
    1ca0:	04000000 	streq	r0, [r0], #-0
    1ca4:	0000ca04 	andeq	ip, r0, r4, lsl #20
    1ca8:	02710e00 	rsbseq	r0, r1, #0, 28
    1cac:	50020000 	andpl	r0, r2, r0
    1cb0:	000000fb 	strdeq	r0, [r0], -fp
    1cb4:	00002c0c 	andeq	r2, r0, ip, lsl #24
    1cb8:	450f0000 	strmi	r0, [pc, #-0]	; 1cc0 <_start-0x6340>
    1cbc:	02000005 	andeq	r0, r0, #5
    1cc0:	02dd0063 	sbcseq	r0, sp, #99	; 0x63
    1cc4:	00040000 	andeq	r0, r4, r0
    1cc8:	0000082b 	andeq	r0, r0, fp, lsr #16
    1ccc:	02a70104 	adceq	r0, r7, #4, 2
    1cd0:	44010000 	strmi	r0, [r1], #-0
    1cd4:	24000006 	strcs	r0, [r0], #-6
    1cd8:	64000004 	strvs	r0, [r0], #-4
    1cdc:	b0000091 	mullt	r0, r1, r0
    1ce0:	02000000 	andeq	r0, r0, #0
    1ce4:	02000008 	andeq	r0, r0, #8
    1ce8:	6e690504 	cdpvs	5, 6, cr0, cr9, cr4, {0}
    1cec:	04030074 	streq	r0, [r3], #-116	; 0x74
    1cf0:	00004407 	andeq	r4, r0, r7, lsl #8
    1cf4:	06010300 	streq	r0, [r1], -r0, lsl #6
    1cf8:	0000024e 	andeq	r0, r0, lr, asr #4
    1cfc:	67050203 	strvs	r0, [r5, -r3, lsl #4]
    1d00:	03000002 	movweq	r0, #2
    1d04:	00670504 	rsbeq	r0, r7, r4, lsl #10
    1d08:	08030000 	stmdaeq	r3, {}	; <UNPREDICTABLE>
    1d0c:	00006205 	andeq	r6, r0, r5, lsl #4
    1d10:	03940400 	orrseq	r0, r4, #0, 8
    1d14:	2e020000 	cdpcs	0, 0, cr0, cr2, cr0, {0}
    1d18:	0000005a 	andeq	r0, r0, sl, asr r0
    1d1c:	4c080103 	stfmis	f0, [r8], {3}
    1d20:	03000002 	movweq	r0, #2
    1d24:	015b0702 	cmpeq	fp, r2, lsl #14
    1d28:	64040000 	strvs	r0, [r4], #-0
    1d2c:	02000006 	andeq	r0, r0, #6
    1d30:	00007334 	andeq	r7, r0, r4, lsr r3
    1d34:	07040300 	streq	r0, [r4, -r0, lsl #6]
    1d38:	0000003f 	andeq	r0, r0, pc, lsr r0
    1d3c:	3a070803 	bcc	1c3d50 <__bss_end__+0x1b9038>
    1d40:	03000000 	movweq	r0, #0
    1d44:	01920704 	orrseq	r0, r2, r4, lsl #14
    1d48:	01030000 	mrseq	r0, (UNDEF: 3)
    1d4c:	00025508 	andeq	r5, r2, r8, lsl #10
    1d50:	95040500 	strls	r0, [r4, #-1280]	; 0x500
    1d54:	06000000 	streq	r0, [r0], -r0
    1d58:	00000088 	andeq	r0, r0, r8, lsl #1
    1d5c:	0e030c07 	cdpeq	12, 0, cr0, cr3, cr7, {0}
    1d60:	000000d1 	ldrdeq	r0, [r0], -r1
    1d64:	00787408 	rsbseq	r7, r8, r8, lsl #8
    1d68:	004f0f03 	subeq	r0, pc, r3, lsl #30
    1d6c:	08000000 	stmdaeq	r0, {}	; <UNPREDICTABLE>
    1d70:	03007872 	movweq	r7, #2162	; 0x872
    1d74:	00004f0f 	andeq	r4, r0, pc, lsl #30
    1d78:	e3090100 	movw	r0, #37120	; 0x9100
    1d7c:	03000005 	movweq	r0, #5
    1d80:	00006810 	andeq	r6, r0, r0, lsl r8
    1d84:	94090400 	strls	r0, [r9], #-1024	; 0x400
    1d88:	03000005 	movweq	r0, #5
    1d8c:	00006811 	andeq	r6, r0, r1, lsl r8
    1d90:	04000800 	streq	r0, [r0], #-2048	; 0x800
    1d94:	000005cc 	andeq	r0, r0, ip, asr #11
    1d98:	009a1203 	addseq	r1, sl, r3, lsl #4
    1d9c:	010a0000 	mrseq	r0, (UNDEF: 10)
    1da0:	00f71004 	rscseq	r1, r7, r4
    1da4:	e80b0000 	stmda	fp, {}	; <UNPREDICTABLE>
    1da8:	01000005 	tsteq	r0, r5
    1dac:	0005d60b 	andeq	sp, r5, fp, lsl #12
    1db0:	be0b0200 	cdplt	2, 0, cr0, cr11, cr0, {0}
    1db4:	03000005 	movweq	r0, #5
    1db8:	05fd0400 	ldrbeq	r0, [sp, #1024]!	; 0x400
    1dbc:	10040000 	andne	r0, r4, r0
    1dc0:	000000dc 	ldrdeq	r0, [r0], -ip
    1dc4:	14041407 	strne	r1, [r4], #-1031	; 0x407
    1dc8:	0000012f 	andeq	r0, r0, pc, lsr #2
    1dcc:	00066d09 	andeq	r6, r6, r9, lsl #26
    1dd0:	2c150400 	cfldrscs	mvf0, [r5], {-0}
    1dd4:	00000000 	andeq	r0, r0, r0
    1dd8:	00065809 	andeq	r5, r6, r9, lsl #16
    1ddc:	f7180400 			; <UNDEFINED> instruction: 0xf7180400
    1de0:	04000000 	streq	r0, [r0], #-0
    1de4:	00062309 	andeq	r2, r6, r9, lsl #6
    1de8:	d11b0400 	tstle	fp, r0, lsl #8
    1dec:	08000000 	stmdaeq	r0, {}	; <UNPREDICTABLE>
    1df0:	06150400 	ldreq	r0, [r5], -r0, lsl #8
    1df4:	20040000 	andcs	r0, r4, r0
    1df8:	00000102 	andeq	r0, r0, r2, lsl #2
    1dfc:	00056a0c 	andeq	r6, r5, ip, lsl #20
    1e00:	25060100 	strcs	r0, [r6, #-256]	; 0x100
    1e04:	64000000 	strvs	r0, [r0], #-0
    1e08:	20000091 	mulcs	r0, r1, r0
    1e0c:	01000000 	mrseq	r0, (UNDEF: 0)
    1e10:	00017a9c 	muleq	r1, ip, sl
    1e14:	00630d00 	rsbeq	r0, r3, r0, lsl #26
    1e18:	00250601 	eoreq	r0, r5, r1, lsl #12
    1e1c:	104e0000 	subne	r0, lr, r0
    1e20:	780e0000 	stmdavc	lr, {}	; <UNPREDICTABLE>
    1e24:	7a000091 	bvc	2070 <_start-0x5f90>
    1e28:	0f000002 	svceq	0x00000002
    1e2c:	74025101 	strvc	r5, [r2], #-257	; 0x101
    1e30:	50010f00 	andpl	r0, r1, r0, lsl #30
    1e34:	ad040305 	stcge	3, cr0, [r4, #-20]	; 0xffffffec
    1e38:	00000000 	andeq	r0, r0, r0
    1e3c:	0005f510 	andeq	pc, r5, r0, lsl r5	; <UNPREDICTABLE>
    1e40:	840b0100 	strhi	r0, [fp], #-256	; 0x100
    1e44:	90000091 	mulls	r0, r1, r0
    1e48:	01000000 	mrseq	r0, (UNDEF: 0)
    1e4c:	0002279c 	muleq	r2, ip, r7
    1e50:	057e1100 	ldrbeq	r1, [lr, #-256]!	; 0x100
    1e54:	0c010000 	stceq	0, cr0, [r1], {-0}
    1e58:	00000025 	andeq	r0, r0, r5, lsr #32
    1e5c:	00063811 	andeq	r3, r6, r1, lsl r8
    1e60:	250c0100 	strcs	r0, [ip, #-256]	; 0x100
    1e64:	12000000 	andne	r0, r0, #0
    1e68:	000000cd 	andeq	r0, r0, sp, asr #1
    1e6c:	62130d01 	andsvs	r0, r3, #1, 26	; 0x40
    1e70:	01007373 	tsteq	r0, r3, ror r3
    1e74:	0002270f 	andeq	r2, r2, pc, lsl #14
    1e78:	00106c00 	andseq	r6, r0, r0, lsl #24
    1e7c:	058c1400 	streq	r1, [ip, #1024]	; 0x400
    1e80:	10010000 	andne	r0, r1, r0
    1e84:	00000227 	andeq	r0, r0, r7, lsr #4
    1e88:	00626313 	rsbeq	r6, r2, r3, lsl r3
    1e8c:	022d1701 	eoreq	r1, sp, #262144	; 0x40000
    1e90:	108c0000 	addne	r0, ip, r0
    1e94:	ac150000 	ldcge	0, cr0, [r5], {-0}
    1e98:	96000091 			; <UNDEFINED> instruction: 0x96000091
    1e9c:	16000002 	strne	r0, [r0], -r2
    1ea0:	000091e8 	andeq	r9, r0, r8, ror #3
    1ea4:	000002a1 	andeq	r0, r0, r1, lsr #5
    1ea8:	000001fd 	strdeq	r0, [r0], -sp
    1eac:	0551010f 	ldrbeq	r0, [r1, #-271]	; 0x10f
    1eb0:	00a5dc03 	adceq	sp, r5, r3, lsl #24
    1eb4:	50010f00 	andpl	r0, r1, r0, lsl #30
    1eb8:	ad040305 	stcge	3, cr0, [r4, #-20]	; 0xffffffec
    1ebc:	16000000 	strne	r0, [r0], -r0
    1ec0:	000091f0 	strdeq	r9, [r0], -r0
    1ec4:	000002bc 			; <UNDEFINED> instruction: 0x000002bc
    1ec8:	00000214 	andeq	r0, r0, r4, lsl r2
    1ecc:	0550010f 	ldrbeq	r0, [r0, #-271]	; 0x10f
    1ed0:	00a60003 	adceq	r0, r6, r3
    1ed4:	f4150000 			; <UNDEFINED> instruction: 0xf4150000
    1ed8:	d2000091 	andle	r0, r0, #145	; 0x91
    1edc:	15000002 	strne	r0, [r0, #-2]
    1ee0:	000091f8 	strdeq	r9, [r0], -r8
    1ee4:	000002d9 	ldrdeq	r0, [r0], -r9
    1ee8:	25040500 	strcs	r0, [r4, #-1280]	; 0x500
    1eec:	05000000 	streq	r0, [r0, #-0]
    1ef0:	00012f04 	andeq	r2, r1, r4, lsl #30
    1ef4:	05a21700 	streq	r1, [r2, #1792]!	; 0x700
    1ef8:	05010000 	streq	r0, [r1, #-0]
    1efc:	000000d1 	ldrdeq	r0, [r0], -r1
    1f00:	ad040305 	stcge	3, cr0, [r4, #-20]	; 0xffffffec
    1f04:	25180000 	ldrcs	r0, [r8, #-0]
    1f08:	53000000 	movwpl	r0, #0
    1f0c:	19000002 	stmdbne	r0, {r1}
    1f10:	00000025 	andeq	r0, r0, r5, lsr #32
    1f14:	04831100 	streq	r1, [r3], #256	; 0x100
    1f18:	1d050000 	stcne	0, cr0, [r5, #-0]
    1f1c:	0000025e 	andeq	r0, r0, lr, asr r2
    1f20:	02440405 	subeq	r0, r4, #83886080	; 0x5000000
    1f24:	7e110000 	cdpvc	0, 1, cr0, cr1, cr0, {0}
    1f28:	01000005 	tsteq	r0, r5
    1f2c:	0000250c 	andeq	r2, r0, ip, lsl #10
    1f30:	06381100 	ldrteq	r1, [r8], -r0, lsl #2
    1f34:	0c010000 	stceq	0, cr0, [r1], {-0}
    1f38:	00000025 	andeq	r0, r0, r5, lsr #32
    1f3c:	0006081a 	andeq	r0, r6, sl, lsl r8
    1f40:	90440300 	subls	r0, r4, r0, lsl #6
    1f44:	19000002 	stmdbne	r0, {r1}
    1f48:	00000290 	muleq	r0, r0, r2
    1f4c:	00005a19 	andeq	r5, r0, r9, lsl sl
    1f50:	04050000 	streq	r0, [r5], #-0
    1f54:	000000d1 	ldrdeq	r0, [r0], -r1
    1f58:	00062b1b 	andeq	r2, r6, fp, lsl fp
    1f5c:	2d2a0400 	cfstrscs	mvf0, [sl, #-0]
    1f60:	1c000002 	stcne	0, cr0, [r0], {2}
    1f64:	000005af 	andeq	r0, r0, pc, lsr #11
    1f68:	00251503 	eoreq	r1, r5, r3, lsl #10
    1f6c:	02bc0000 	adcseq	r0, ip, #0
    1f70:	90190000 	andsls	r0, r9, r0
    1f74:	19000002 	stmdbne	r0, {r1}
    1f78:	0000008f 	andeq	r0, r0, pc, lsl #1
    1f7c:	131c001d 	tstne	ip, #29
    1f80:	05000004 	streq	r0, [r0, #-4]
    1f84:	00002529 	andeq	r2, r0, r9, lsr #10
    1f88:	0002d200 	andeq	sp, r2, r0, lsl #4
    1f8c:	008f1900 	addeq	r1, pc, r0, lsl #18
    1f90:	001d0000 	andseq	r0, sp, r0
    1f94:	0000cd12 	andeq	ip, r0, r2, lsl sp
    1f98:	12d10500 	sbcsne	r0, r1, #0, 10
    1f9c:	00000545 	andeq	r0, r0, r5, asr #10
    1fa0:	ad006305 	stcge	3, cr6, [r0, #-20]	; 0xffffffec
    1fa4:	04000001 	streq	r0, [r0], #-1
    1fa8:	0009c200 	andeq	ip, r9, r0, lsl #4
    1fac:	a7010400 	strge	r0, [r1, -r0, lsl #8]
    1fb0:	01000002 	tsteq	r0, r2
    1fb4:	0000068d 	andeq	r0, r0, sp, lsl #13
    1fb8:	00000424 	andeq	r0, r0, r4, lsr #8
    1fbc:	00000018 	andeq	r0, r0, r8, lsl r0
    1fc0:	00000000 	andeq	r0, r0, r0
    1fc4:	00000927 	andeq	r0, r0, r7, lsr #18
    1fc8:	69050402 	stmdbvs	r5, {r1, sl}
    1fcc:	0300746e 	movweq	r7, #1134	; 0x46e
    1fd0:	00440704 	subeq	r0, r4, r4, lsl #14
    1fd4:	01030000 	mrseq	r0, (UNDEF: 3)
    1fd8:	00024e06 	andeq	r4, r2, r6, lsl #28
    1fdc:	05020300 	streq	r0, [r2, #-768]	; 0x300
    1fe0:	00000267 	andeq	r0, r0, r7, ror #4
    1fe4:	67050403 	strvs	r0, [r5, -r3, lsl #8]
    1fe8:	03000000 	movweq	r0, #0
    1fec:	00620508 	rsbeq	r0, r2, r8, lsl #10
    1ff0:	01030000 	mrseq	r0, (UNDEF: 3)
    1ff4:	00024c08 	andeq	r4, r2, r8, lsl #24
    1ff8:	07020300 	streq	r0, [r2, -r0, lsl #6]
    1ffc:	0000015b 	andeq	r0, r0, fp, asr r1
    2000:	3f070403 	svccc	0x00070403
    2004:	03000000 	movweq	r0, #0
    2008:	003a0708 	eorseq	r0, sl, r8, lsl #14
    200c:	04030000 	streq	r0, [r3], #-0
    2010:	00019207 	andeq	r9, r1, r7, lsl #4
    2014:	08010300 	stmdaeq	r1, {r8, r9}
    2018:	00000255 	andeq	r0, r0, r5, asr r2
    201c:	00067304 	andeq	r7, r6, r4, lsl #6
    2020:	250e0100 	strcs	r0, [lr, #-256]	; 0x100
    2024:	14000000 	strne	r0, [r0], #-0
    2028:	18000092 	stmdane	r0, {r1, r4, r7}
    202c:	01000000 	mrseq	r0, (UNDEF: 0)
    2030:	0000a29c 	muleq	r0, ip, r2
    2034:	06df0500 	ldrbeq	r0, [pc], r0, lsl #10
    2038:	0f010000 	svceq	0x00010000
    203c:	0000002c 	andeq	r0, r0, ip, lsr #32
    2040:	000010ac 	andeq	r1, r0, ip, lsr #1
    2044:	06c20600 	strbeq	r0, [r2], r0, lsl #12
    2048:	17010000 	strne	r0, [r1, -r0]
    204c:	0000922c 	andeq	r9, r0, ip, lsr #4
    2050:	00000014 	andeq	r0, r0, r4, lsl r0
    2054:	00c79c01 	sbceq	r9, r7, r1, lsl #24
    2058:	df050000 	svcle	0x00050000
    205c:	01000006 	tsteq	r0, r6
    2060:	00002c18 	andeq	r2, r0, r8, lsl ip
    2064:	0010cb00 	andseq	ip, r0, r0, lsl #22
    2068:	45060000 	strmi	r0, [r6, #-0]
    206c:	01000005 	tsteq	r0, r5
    2070:	0092401f 	addseq	r4, r2, pc, lsl r0
    2074:	00004800 	andeq	r4, r0, r0, lsl #16
    2078:	779c0100 	ldrvc	r0, [ip, r0, lsl #2]
    207c:	07000001 	streq	r0, [r0, -r1]
    2080:	000006d7 	ldrdeq	r0, [r0], -r7
    2084:	01772a01 	cmneq	r7, r1, lsl #20
    2088:	001c0000 	andseq	r0, ip, r0
    208c:	ba072010 	blt	1ca0d4 <__bss_end__+0x1bf3bc>
    2090:	01000006 	tsteq	r0, r6
    2094:	0001772b 	andeq	r7, r1, fp, lsr #14
    2098:	10002400 	andne	r2, r0, r0, lsl #8
    209c:	06810720 	streq	r0, [r1], r0, lsr #14
    20a0:	2c010000 	stccs	0, cr0, [r1], {-0}
    20a4:	00000177 	andeq	r0, r0, r7, ror r1
    20a8:	5a000000 	bpl	20b0 <_start-0x5f50>
    20ac:	0006a108 	andeq	sl, r6, r8, lsl #2
    20b0:	772d0100 	strvc	r0, [sp, -r0, lsl #2]!
    20b4:	20000001 	andcs	r0, r0, r1
    20b8:	00924809 	addseq	r4, r2, r9, lsl #16
    20bc:	00007900 	andeq	r7, r0, r0, lsl #18
    20c0:	92540900 	subsls	r0, r4, #0, 18
    20c4:	00a20000 	adceq	r0, r2, r0
    20c8:	5c0a0000 	stcpl	0, cr0, [sl], {-0}
    20cc:	8d000092 	stchi	0, cr0, [r0, #-584]	; 0xfffffdb8
    20d0:	3a000001 	bcc	20dc <_start-0x5f24>
    20d4:	0b000001 	bleq	20e0 <_start-0x5f20>
    20d8:	4e015001 	cdpmi	0, 0, cr5, cr1, cr1, {0}
    20dc:	92680a00 	rsbls	r0, r8, #0, 20
    20e0:	019e0000 	orrseq	r0, lr, r0
    20e4:	015a0000 	cmpeq	sl, r0
    20e8:	010b0000 	mrseq	r0, (UNDEF: 11)
    20ec:	010c0551 	tsteq	ip, r1, asr r5
    20f0:	0b5a0000 	bleq	16820f8 <__bss_end__+0x16773e0>
    20f4:	0c055001 	stceq	0, cr5, [r5], {1}
    20f8:	20100024 	andscs	r0, r0, r4, lsr #32
    20fc:	92740c00 	rsbsls	r0, r4, #0, 24
    2100:	019e0000 	orrseq	r0, lr, r0
    2104:	010b0000 	mrseq	r0, (UNDEF: 11)
    2108:	200c0551 	andcs	r0, ip, r1, asr r5
    210c:	0b5a0000 	bleq	1682114 <__bss_end__+0x16773fc>
    2110:	0c055001 	stceq	0, cr5, [r5], {1}
    2114:	2010001c 	andscs	r0, r0, ip, lsl r0
    2118:	250d0000 	strcs	r0, [sp, #-0]
    211c:	08000000 	stmdaeq	r0, {}	; <UNPREDICTABLE>
    2120:	00000676 	andeq	r0, r0, r6, ror r6
    2124:	01880d01 	orreq	r0, r8, r1, lsl #26
    2128:	0d100000 	ldceq	0, cr0, [r0, #-0]
    212c:	0000002c 	andeq	r0, r0, ip, lsr #32
    2130:	0002710e 	andeq	r7, r2, lr, lsl #2
    2134:	9e500200 	cdpls	2, 5, cr0, cr0, cr0, {0}
    2138:	0f000001 	svceq	0x00000001
    213c:	0000002c 	andeq	r0, r0, ip, lsr #32
    2140:	06d11000 	ldrbeq	r1, [r1], r0
    2144:	9c020000 	stcls	0, cr0, [r2], {-0}
    2148:	00002c0f 	andeq	r2, r0, pc, lsl #24
    214c:	002c0f00 	eoreq	r0, ip, r0, lsl #30
    2150:	00000000 	andeq	r0, r0, r0
    2154:	000001d8 	ldrdeq	r0, [r0], -r8
    2158:	0ab00004 	beq	fec02170 <__bss_end__+0xfebf7458>
    215c:	01040000 	mrseq	r0, (UNDEF: 4)
    2160:	000002a7 	andeq	r0, r0, r7, lsr #5
    2164:	00070101 	andeq	r0, r7, r1, lsl #2
    2168:	00042400 	andeq	r2, r4, r0, lsl #8
    216c:	00928800 	addseq	r8, r2, r0, lsl #16
    2170:	00008800 	andeq	r8, r0, r0, lsl #16
    2174:	0009c400 	andeq	ip, r9, r0, lsl #8
    2178:	05040200 	streq	r0, [r4, #-512]	; 0x200
    217c:	00746e69 	rsbseq	r6, r4, r9, ror #28
    2180:	44070403 	strmi	r0, [r7], #-1027	; 0x403
    2184:	03000000 	movweq	r0, #0
    2188:	024e0601 	subeq	r0, lr, #1048576	; 0x100000
    218c:	02030000 	andeq	r0, r3, #0
    2190:	00026705 	andeq	r6, r2, r5, lsl #14
    2194:	05040300 	streq	r0, [r4, #-768]	; 0x300
    2198:	00000067 	andeq	r0, r0, r7, rrx
    219c:	62050803 	andvs	r0, r5, #196608	; 0x30000
    21a0:	03000000 	movweq	r0, #0
    21a4:	024c0801 	subeq	r0, ip, #65536	; 0x10000
    21a8:	02030000 	andeq	r0, r3, #0
    21ac:	00015b07 	andeq	r5, r1, r7, lsl #22
    21b0:	07040300 	streq	r0, [r4, -r0, lsl #6]
    21b4:	0000003f 	andeq	r0, r0, pc, lsr r0
    21b8:	3a070803 	bcc	1c41cc <__bss_end__+0x1b94b4>
    21bc:	03000000 	movweq	r0, #0
    21c0:	01920704 	orrseq	r0, r2, r4, lsl #14
    21c4:	01030000 	mrseq	r0, (UNDEF: 3)
    21c8:	00025508 	andeq	r5, r2, r8, lsl #10
    21cc:	07200400 	streq	r0, [r0, -r0, lsl #8]!
    21d0:	05010000 	streq	r0, [r1, #-0]
    21d4:	00009288 	andeq	r9, r0, r8, lsl #5
    21d8:	0000001c 	andeq	r0, r0, ip, lsl r0
    21dc:	009e9c01 	addseq	r9, lr, r1, lsl #24
    21e0:	1a050000 	bne	1421e8 <__bss_end__+0x1374d0>
    21e4:	01000007 	tsteq	r0, r7
    21e8:	00002c05 	andeq	r2, r0, r5, lsl #24
    21ec:	0010f500 	andseq	pc, r0, r0, lsl #10
    21f0:	e4060000 	str	r0, [r6], #-0
    21f4:	01000006 	tsteq	r0, r6
    21f8:	00002c0b 	andeq	r2, r0, fp, lsl #24
    21fc:	0092a400 	addseq	sl, r2, r0, lsl #8
    2200:	00001400 	andeq	r1, r0, r0, lsl #8
    2204:	cb9c0100 	blgt	fe70260c <__bss_end__+0xfe6f78f4>
    2208:	07000000 	streq	r0, [r0, -r0]
    220c:	000092b0 			; <UNDEFINED> instruction: 0x000092b0
    2210:	000001ca 	andeq	r0, r0, sl, asr #3
    2214:	05500108 	ldrbeq	r0, [r0, #-264]	; 0x108
    2218:	0030040c 	eorseq	r0, r0, ip, lsl #8
    221c:	06000020 	streq	r0, [r0], -r0, lsr #32
    2220:	00000736 	andeq	r0, r0, r6, lsr r7
    2224:	002c1001 	eoreq	r1, ip, r1
    2228:	92b80000 	adcsls	r0, r8, #0
    222c:	000c0000 	andeq	r0, ip, r0
    2230:	9c010000 	stcls	0, cr0, [r1], {-0}
    2234:	000000f9 	strdeq	r0, [r0], -r9
    2238:	01007509 	tsteq	r0, r9, lsl #10
    223c:	00002c14 	andeq	r2, r0, r4, lsl ip
    2240:	0a500100 	beq	1402648 <__bss_end__+0x13f7930>
    2244:	000092c0 	andeq	r9, r0, r0, asr #5
    2248:	0000009e 	muleq	r0, lr, r0
    224c:	072d0400 	streq	r0, [sp, -r0, lsl #8]!
    2250:	19010000 	stmdbne	r1, {}	; <UNPREDICTABLE>
    2254:	000092c4 	andeq	r9, r0, r4, asr #5
    2258:	00000024 	andeq	r0, r0, r4, lsr #32
    225c:	01579c01 	cmpeq	r7, r1, lsl #24
    2260:	750b0000 	strvc	r0, [fp, #-0]
    2264:	19010073 	stmdbne	r1, {r0, r1, r4, r5, r6}
    2268:	0000002c 	andeq	r0, r0, ip, lsr #32
    226c:	00001129 	andeq	r1, r0, r9, lsr #2
    2270:	00627209 	rsbeq	r7, r2, r9, lsl #4
    2274:	002c1a01 	eoreq	r1, ip, r1, lsl #20
    2278:	54010000 	strpl	r0, [r1], #-0
    227c:	0092d40c 	addseq	sp, r2, ip, lsl #8
    2280:	00001000 	andeq	r1, r0, r0
    2284:	00014d00 	andeq	r4, r1, r0, lsl #26
    2288:	61720d00 	cmnvs	r2, r0, lsl #26
    228c:	2c1c0100 	ldfcss	f0, [ip], {-0}
    2290:	47000000 	strmi	r0, [r0, -r0]
    2294:	0a000011 	beq	22e0 <_start-0x5d20>
    2298:	000092d8 	ldrdeq	r9, [r0], -r8
    229c:	000000cb 	andeq	r0, r0, fp, asr #1
    22a0:	92d00a00 	sbcsls	r0, r0, #0, 20
    22a4:	00cb0000 	sbceq	r0, fp, r0
    22a8:	04000000 	streq	r0, [r0], #-0
    22ac:	00000271 	andeq	r0, r0, r1, ror r2
    22b0:	92e82201 	rscls	r2, r8, #268435456	; 0x10000000
    22b4:	00140000 	andseq	r0, r4, r0
    22b8:	9c010000 	stcls	0, cr0, [r1], {-0}
    22bc:	00000190 	muleq	r0, r0, r1
    22c0:	00736d0b 	rsbseq	r6, r3, fp, lsl #26
    22c4:	002c2201 	eoreq	r2, ip, r1, lsl #4
    22c8:	115a0000 	cmpne	sl, r0
    22cc:	f8070000 			; <UNDEFINED> instruction: 0xf8070000
    22d0:	f9000092 			; <UNDEFINED> instruction: 0xf9000092
    22d4:	08000000 	stmdaeq	r0, {}	; <UNPREDICTABLE>
    22d8:	f3075001 	vhadd.u8	d5, d7, d1
    22dc:	e80a5001 	stmda	sl, {r0, ip, lr}
    22e0:	00001e03 	andeq	r1, r0, r3, lsl #28
    22e4:	0006f704 	andeq	pc, r6, r4, lsl #14
    22e8:	fc250100 	stc2	1, cr0, [r5], #-0
    22ec:	14000092 	strne	r0, [r0], #-146	; 0x92
    22f0:	01000000 	mrseq	r0, (UNDEF: 0)
    22f4:	0001ca9c 	muleq	r1, ip, sl
    22f8:	65730b00 	ldrbvs	r0, [r3, #-2816]!	; 0xb00
    22fc:	25010063 	strcs	r0, [r1, #-99]	; 0x63
    2300:	0000002c 	andeq	r0, r0, ip, lsr #32
    2304:	0000117b 	andeq	r1, r0, fp, ror r1
    2308:	00930c07 	addseq	r0, r3, r7, lsl #24
    230c:	00015700 	andeq	r5, r1, r0, lsl #14
    2310:	50010800 	andpl	r0, r1, r0, lsl #16
    2314:	5001f307 	andpl	pc, r1, r7, lsl #6
    2318:	1e03e80a 	cdpne	8, 0, cr14, cr3, cr10, {0}
    231c:	140e0000 	strne	r0, [lr], #-0
    2320:	02000007 	andeq	r0, r0, #7
    2324:	00002ca8 	andeq	r2, r0, r8, lsr #25
    2328:	002c0f00 	eoreq	r0, ip, r0, lsl #30
    232c:	00000000 	andeq	r0, r0, r0
    2330:	00000882 	andeq	r0, r0, r2, lsl #17
    2334:	0b930004 	bleq	fe4c234c <__bss_end__+0xfe4b7634>
    2338:	01040000 	mrseq	r0, (UNDEF: 4)
    233c:	000002a7 	andeq	r0, r0, r7, lsr #5
    2340:	00078901 	andeq	r8, r7, r1, lsl #18
    2344:	00042400 	andeq	r2, r4, r0, lsl #8
    2348:	00931000 	addseq	r1, r3, r0
    234c:	0005a000 	andeq	sl, r5, r0
    2350:	000a6b00 	andeq	r6, sl, r0, lsl #22
    2354:	07080200 	streq	r0, [r8, -r0, lsl #4]
    2358:	0000003a 	andeq	r0, r0, sl, lsr r0
    235c:	44070402 	strmi	r0, [r7], #-1026	; 0x402
    2360:	02000000 	andeq	r0, r0, #0
    2364:	024e0601 	subeq	r0, lr, #1048576	; 0x100000
    2368:	02020000 	andeq	r0, r2, #0
    236c:	00026705 	andeq	r6, r2, r5, lsl #14
    2370:	05040200 	streq	r0, [r4, #-512]	; 0x200
    2374:	00000067 	andeq	r0, r0, r7, rrx
    2378:	62050802 	andvs	r0, r5, #131072	; 0x20000
    237c:	02000000 	andeq	r0, r0, #0
    2380:	024c0801 	subeq	r0, ip, #65536	; 0x10000
    2384:	02020000 	andeq	r0, r2, #0
    2388:	00015b07 	andeq	r5, r1, r7, lsl #22
    238c:	07040200 	streq	r0, [r4, -r0, lsl #4]
    2390:	0000003f 	andeq	r0, r0, pc, lsr r0
    2394:	69050403 	stmdbvs	r5, {r0, r1, sl}
    2398:	0200746e 	andeq	r7, r0, #1845493760	; 0x6e000000
    239c:	01920704 	orrseq	r0, r2, r4, lsl #14
    23a0:	01020000 	mrseq	r0, (UNDEF: 2)
    23a4:	00025508 	andeq	r5, r2, r8, lsl #10
    23a8:	02010400 	andeq	r0, r1, #0, 8
    23ac:	0000b20c 	andeq	fp, r0, ip, lsl #4
    23b0:	07790500 	ldrbeq	r0, [r9, -r0, lsl #10]!
    23b4:	05000000 	streq	r0, [r0, #-0]
    23b8:	0000084e 	andeq	r0, r0, lr, asr #16
    23bc:	08710501 	ldmdaeq	r1!, {r0, r8, sl}^
    23c0:	05040000 	streq	r0, [r4, #-0]
    23c4:	00000880 	andeq	r0, r0, r0, lsl #17
    23c8:	088f0505 	stmeq	pc, {r0, r2, r8, sl}	; <UNPREDICTABLE>
    23cc:	05060000 	streq	r0, [r6, #-0]
    23d0:	0000089e 	muleq	r0, lr, r8
    23d4:	08ad0507 	stmiaeq	sp!, {r0, r1, r2, r8, sl}
    23d8:	05030000 	streq	r0, [r3, #-0]
    23dc:	000008bc 			; <UNDEFINED> instruction: 0x000008bc
    23e0:	65060002 	strvs	r0, [r6, #-2]
    23e4:	02000008 	andeq	r0, r0, #8
    23e8:	00007915 	andeq	r7, r0, r5, lsl r9
    23ec:	03670700 	cmneq	r7, #0, 14
    23f0:	3f010000 	svccc	0x00010000
    23f4:	00009310 	andeq	r9, r0, r0, lsl r3
    23f8:	000000d4 	ldrdeq	r0, [r0], -r4
    23fc:	01339c01 	teqeq	r3, r1, lsl #24
    2400:	70080000 	andvc	r0, r8, r0
    2404:	01006e69 	tsteq	r0, r9, ror #28
    2408:	00002c3f 	andeq	r2, r0, pc, lsr ip
    240c:	00119c00 	andseq	r9, r1, r0, lsl #24
    2410:	07a90900 	streq	r0, [r9, r0, lsl #18]!
    2414:	47010000 	strmi	r0, [r1, -r0]
    2418:	00000133 	andeq	r0, r0, r3, lsr r1
    241c:	000011ba 			; <UNDEFINED> instruction: 0x000011ba
    2420:	0008cb09 	andeq	ip, r8, r9, lsl #22
    2424:	2c490100 	stfcse	f0, [r9], {-0}
    2428:	0f000000 	svceq	0x00000000
    242c:	09000012 	stmdbeq	r0, {r1, r4}
    2430:	00000819 	andeq	r0, r0, r9, lsl r8
    2434:	002c5701 	eoreq	r5, ip, r1, lsl #14
    2438:	13db0000 	bicsne	r0, fp, #0
    243c:	a40a0000 	strge	r0, [sl], #-0
    2440:	41000093 	swpmi	r0, r3, [r0]	; <UNPREDICTABLE>
    2444:	22000008 	andcs	r0, r0, #8
    2448:	0b000001 	bleq	2454 <_start-0x5bac>
    244c:	75025001 	strvc	r5, [r2, #-1]
    2450:	d80c0000 	stmdale	ip, {}	; <UNPREDICTABLE>
    2454:	62000093 	andvs	r0, r0, #147	; 0x93
    2458:	0b000008 	bleq	2480 <_start-0x5b80>
    245c:	75025001 	strvc	r5, [r2, #-1]
    2460:	0d000000 	stceq	0, cr0, [r0, #-0]
    2464:	00013904 	andeq	r3, r1, r4, lsl #18
    2468:	002c0e00 	eoreq	r0, ip, r0, lsl #28
    246c:	56070000 	strpl	r0, [r7], -r0
    2470:	01000000 	mrseq	r0, (UNDEF: 0)
    2474:	0093e460 	addseq	lr, r3, r0, ror #8
    2478:	00003800 	andeq	r3, r0, r0, lsl #16
    247c:	969c0100 	ldrls	r0, [ip], r0, lsl #2
    2480:	08000001 	stmdaeq	r0, {r0}
    2484:	006e6970 	rsbeq	r6, lr, r0, ror r9
    2488:	002c6001 	eoreq	r6, ip, r1
    248c:	140b0000 	strne	r0, [fp], #-0
    2490:	a9090000 	stmdbge	r9, {}	; <UNPREDICTABLE>
    2494:	01000007 	tsteq	r0, r7
    2498:	00013367 	andeq	r3, r1, r7, ror #6
    249c:	00142c00 	andseq	r2, r4, r0, lsl #24
    24a0:	08190900 	ldmdaeq	r9, {r8, fp}
    24a4:	68010000 	stmdavs	r1, {}	; <UNPREDICTABLE>
    24a8:	0000002c 	andeq	r0, r0, ip, lsr #32
    24ac:	00001462 	andeq	r1, r0, r2, ror #8
    24b0:	0094140c 	addseq	r1, r4, ip, lsl #8
    24b4:	00086200 	andeq	r6, r8, r0, lsl #4
    24b8:	51010b00 	tstpl	r1, r0, lsl #22
    24bc:	01f33107 	mvnseq	r3, r7, lsl #2
    24c0:	241a4f50 	ldrcs	r4, [sl], #-3920	; 0xf50
    24c4:	da070000 	ble	1c24cc <__bss_end__+0x1b77b4>
    24c8:	01000000 	mrseq	r0, (UNDEF: 0)
    24cc:	00941c7b 	addseq	r1, r4, fp, ror ip
    24d0:	00003800 	andeq	r3, r0, r0, lsl #16
    24d4:	ee9c0100 	fmle	f0, f4, f0
    24d8:	08000001 	stmdaeq	r0, {r0}
    24dc:	006e6970 	rsbeq	r6, lr, r0, ror r9
    24e0:	002c7b01 	eoreq	r7, ip, r1, lsl #22
    24e4:	14a20000 	strtne	r0, [r2], #0
    24e8:	a9090000 	stmdbge	r9, {}	; <UNPREDICTABLE>
    24ec:	01000007 	tsteq	r0, r7
    24f0:	00013381 	andeq	r3, r1, r1, lsl #7
    24f4:	0014c300 	andseq	ip, r4, r0, lsl #6
    24f8:	08190900 	ldmdaeq	r9, {r8, fp}
    24fc:	82010000 	andhi	r0, r1, #0
    2500:	0000002c 	andeq	r0, r0, ip, lsr #32
    2504:	000014f9 	strdeq	r1, [r0], -r9
    2508:	00944c0c 	addseq	r4, r4, ip, lsl #24
    250c:	00086200 	andeq	r6, r8, r0, lsl #4
    2510:	51010b00 	tstpl	r1, r0, lsl #22
    2514:	01f33107 	mvnseq	r3, r7, lsl #2
    2518:	241a4f50 	ldrcs	r4, [sl], #-3920	; 0xf50
    251c:	fe070000 	cdp2	0, 0, cr0, cr7, cr0, {0}
    2520:	01000002 	tsteq	r0, r2
    2524:	00945495 	umullseq	r5, r4, r5, r4
    2528:	0000cc00 	andeq	ip, r0, r0, lsl #24
    252c:	649c0100 	ldrvs	r0, [ip], #256	; 0x100
    2530:	08000002 	stmdaeq	r0, {r1}
    2534:	006e6970 	rsbeq	r6, lr, r0, ror r9
    2538:	002c9501 	eoreq	r9, ip, r1, lsl #10
    253c:	15390000 	ldrne	r0, [r9, #-0]!
    2540:	a9090000 	stmdbge	r9, {}	; <UNPREDICTABLE>
    2544:	01000007 	tsteq	r0, r7
    2548:	0001339b 	muleq	r1, fp, r3
    254c:	00155700 	andseq	r5, r5, r0, lsl #14
    2550:	08cb0900 	stmiaeq	fp, {r8, fp}^
    2554:	9d010000 	stcls	0, cr0, [r1, #-0]
    2558:	0000002c 	andeq	r0, r0, ip, lsr #32
    255c:	000015ac 	andeq	r1, r0, ip, lsr #11
    2560:	00081909 	andeq	r1, r8, r9, lsl #18
    2564:	2cab0100 	stfcss	f0, [fp]
    2568:	78000000 	stmdavc	r0, {}	; <UNPREDICTABLE>
    256c:	0a000017 	beq	25d0 <_start-0x5a30>
    2570:	000094e8 	andeq	r9, r0, r8, ror #9
    2574:	00000841 	andeq	r0, r0, r1, asr #16
    2578:	00000253 	andeq	r0, r0, r3, asr r2
    257c:	0250010b 	subseq	r0, r0, #-1073741822	; 0xc0000002
    2580:	0c000075 	stceq	0, cr0, [r0], {117}	; 0x75
    2584:	00009514 	andeq	r9, r0, r4, lsl r5
    2588:	00000862 	andeq	r0, r0, r2, ror #16
    258c:	0250010b 	subseq	r0, r0, #-1073741822	; 0xc0000002
    2590:	00000075 	andeq	r0, r0, r5, ror r0
    2594:	0007be0f 	andeq	fp, r7, pc, lsl #28
    2598:	64b30100 	ldrtvs	r0, [r3], #256	; 0x100
    259c:	20000000 	andcs	r0, r0, r0
    25a0:	4c000095 	stcmi	0, cr0, [r0], {149}	; 0x95
    25a4:	01000000 	mrseq	r0, (UNDEF: 0)
    25a8:	0002ac9c 	muleq	r2, ip, ip
    25ac:	69700800 	ldmdbvs	r0!, {fp}^
    25b0:	b301006e 	movwlt	r0, #4206	; 0x106e
    25b4:	0000002c 	andeq	r0, r0, ip, lsr #32
    25b8:	00001796 	muleq	r0, r6, r7
    25bc:	01007610 	tsteq	r0, r0, lsl r6
    25c0:	00002cb9 			; <UNDEFINED> instruction: 0x00002cb9
    25c4:	0017ee00 	andseq	lr, r7, r0, lsl #28
    25c8:	95401100 	strbls	r1, [r0, #-256]	; 0x100
    25cc:	08410000 	stmdaeq	r1, {}^	; <UNPREDICTABLE>
    25d0:	50110000 	andspl	r0, r1, r0
    25d4:	41000095 	swpmi	r0, r5, [r0]	; <UNPREDICTABLE>
    25d8:	00000008 	andeq	r0, r0, r8
    25dc:	00001407 	andeq	r1, r0, r7, lsl #8
    25e0:	6cc50100 	stfvse	f0, [r5], {0}
    25e4:	24000095 	strcs	r0, [r0], #-149	; 0x95
    25e8:	01000000 	mrseq	r0, (UNDEF: 0)
    25ec:	0002fc9c 	muleq	r2, ip, ip
    25f0:	69700800 	ldmdbvs	r0!, {fp}^
    25f4:	c501006e 	strgt	r0, [r1, #-110]	; 0x6e
    25f8:	0000002c 	andeq	r0, r0, ip, lsr #32
    25fc:	00001824 	andeq	r1, r0, r4, lsr #16
    2600:	01007608 	tsteq	r0, r8, lsl #12
    2604:	00002cc5 	andeq	r2, r0, r5, asr #25
    2608:	00185e00 	andseq	r5, r8, r0, lsl #28
    260c:	95840a00 	strls	r0, [r4, #2560]	; 0xa00
    2610:	013e0000 	teqeq	lr, r0
    2614:	02f20000 	rscseq	r0, r2, #0
    2618:	010b0000 	mrseq	r0, (UNDEF: 11)
    261c:	01f30350 	mvnseq	r0, r0, asr r3
    2620:	8c110050 	ldchi	0, cr0, [r1], {80}	; 0x50
    2624:	96000095 			; <UNDEFINED> instruction: 0x96000095
    2628:	00000001 	andeq	r0, r0, r1
    262c:	0007dd07 	andeq	sp, r7, r7, lsl #26
    2630:	90d10100 	sbcsls	r0, r1, r0, lsl #2
    2634:	d8000095 	stmdale	r0, {r0, r2, r4, r7}
    2638:	01000000 	mrseq	r0, (UNDEF: 0)
    263c:	0003819c 	muleq	r3, ip, r1
    2640:	69700800 	ldmdbvs	r0!, {fp}^
    2644:	d101006e 	tstle	r1, lr, rrx
    2648:	0000002c 	andeq	r0, r0, ip, lsr #32
    264c:	00001898 	muleq	r0, r8, r8
    2650:	00082112 	andeq	r2, r8, r2, lsl r1
    2654:	b2d10100 	sbcslt	r0, r1, #0, 2
    2658:	b6000000 	strlt	r0, [r0], -r0
    265c:	09000018 	stmdbeq	r0, {r3, r4}
    2660:	000007a9 	andeq	r0, r0, r9, lsr #15
    2664:	0133d901 	teqeq	r3, r1, lsl #18
    2668:	18d70000 	ldmne	r7, {}^	; <UNPREDICTABLE>
    266c:	cb090000 	blgt	242674 <__bss_end__+0x23795c>
    2670:	01000008 	tsteq	r0, r8
    2674:	00002cda 	ldrdeq	r2, [r0], -sl
    2678:	00192c00 	andseq	r2, r9, r0, lsl #24
    267c:	08190900 	ldmdaeq	r9, {r8, fp}
    2680:	e8010000 	stmda	r1, {}	; <UNPREDICTABLE>
    2684:	0000002c 	andeq	r0, r0, ip, lsr #32
    2688:	00001af8 	strdeq	r1, [r0], -r8
    268c:	00962c0a 	addseq	r2, r6, sl, lsl #24
    2690:	00084100 	andeq	r4, r8, r0, lsl #2
    2694:	00037000 	andeq	r7, r3, r0
    2698:	50010b00 	andpl	r0, r1, r0, lsl #22
    269c:	00007602 	andeq	r7, r0, r2, lsl #12
    26a0:	00965c0c 	addseq	r5, r6, ip, lsl #24
    26a4:	00086200 	andeq	r6, r8, r0, lsl #4
    26a8:	50010b00 	andpl	r0, r1, r0, lsl #22
    26ac:	00007602 	andeq	r7, r0, r2, lsl #12
    26b0:	08260700 	stmdaeq	r6!, {r8, r9, sl}
    26b4:	f1010000 	setend	le
    26b8:	00009668 	andeq	r9, r0, r8, ror #12
    26bc:	00000038 	andeq	r0, r0, r8, lsr r0
    26c0:	03d99c01 	bicseq	r9, r9, #256	; 0x100
    26c4:	70080000 	andvc	r0, r8, r0
    26c8:	01006e69 	tsteq	r0, r9, ror #28
    26cc:	00002cf1 	strdeq	r2, [r0], -r1
    26d0:	001b2900 	andseq	r2, fp, r0, lsl #18
    26d4:	07a90900 	streq	r0, [r9, r0, lsl #18]!
    26d8:	f7010000 			; <UNDEFINED> instruction: 0xf7010000
    26dc:	00000133 	andeq	r0, r0, r3, lsr r1
    26e0:	00001b4a 	andeq	r1, r0, sl, asr #22
    26e4:	00081909 	andeq	r1, r8, r9, lsl #18
    26e8:	2cf80100 	ldfcse	f0, [r8]
    26ec:	80000000 	andhi	r0, r0, r0
    26f0:	0c00001b 	stceq	0, cr0, [r0], {27}
    26f4:	00009698 	muleq	r0, r8, r6
    26f8:	00000862 	andeq	r0, r0, r2, ror #16
    26fc:	0751010b 	ldrbeq	r0, [r1, -fp, lsl #2]
    2700:	5001f331 	andpl	pc, r1, r1, lsr r3	; <UNPREDICTABLE>
    2704:	00241a4f 	eoreq	r1, r4, pc, asr #20
    2708:	076d1300 	strbeq	r1, [sp, -r0, lsl #6]!
    270c:	1f010000 	svcne	0x00010000
    2710:	00006401 	andeq	r6, r0, r1, lsl #8
    2714:	0096a000 	addseq	sl, r6, r0
    2718:	00002c00 	andeq	r2, r0, r0, lsl #24
    271c:	0d9c0100 	ldfeqs	f0, [ip]
    2720:	14000004 	strne	r0, [r0], #-4
    2724:	00000770 	andeq	r0, r0, r0, ror r7
    2728:	2c011f01 	stccs	15, cr1, [r1], {1}
    272c:	c0000000 	andgt	r0, r0, r0
    2730:	1100001b 	tstne	r0, fp, lsl r0
    2734:	000096b0 			; <UNDEFINED> instruction: 0x000096b0
    2738:	00000841 	andeq	r0, r0, r1, asr #16
    273c:	07c81500 	strbeq	r1, [r8, r0, lsl #10]
    2740:	2e010000 	cdpcs	0, 0, cr0, cr1, cr0, {0}
    2744:	0096cc01 	addseq	ip, r6, r1, lsl #24
    2748:	00008400 	andeq	r8, r0, r0, lsl #8
    274c:	d19c0100 	orrsle	r0, ip, r0, lsl #2
    2750:	16000004 	strne	r0, [r0], -r4
    2754:	006e6970 	rsbeq	r6, lr, r0, ror r9
    2758:	2c012e01 	stccs	14, cr2, [r1], {1}
    275c:	e1000000 	mrs	r0, (UNDEF: 0)
    2760:	1700001b 	smladne	r0, fp, r0, r0
    2764:	00000797 	muleq	r0, r7, r7
    2768:	2c014001 	stccs	0, cr4, [r1], {1}
    276c:	0d000000 	stceq	0, cr0, [r0, #-0]
    2770:	1800001c 	stmdane	r0, {r2, r3, r4}
    2774:	000096e8 	andeq	r9, r0, r8, ror #13
    2778:	0000001c 	andeq	r0, r0, ip, lsl r0
    277c:	00000473 	andeq	r0, r0, r3, ror r4
    2780:	00081917 	andeq	r1, r8, r7, lsl r9
    2784:	01370100 	teqeq	r7, r0, lsl #2
    2788:	0000002c 	andeq	r0, r0, ip, lsr #32
    278c:	00001c2b 	andeq	r1, r0, fp, lsr #24
    2790:	0096f411 	addseq	pc, r6, r1, lsl r4	; <UNPREDICTABLE>
    2794:	00084100 	andeq	r4, r8, r0, lsl #2
    2798:	97041100 	strls	r1, [r4, -r0, lsl #2]
    279c:	08620000 	stmdaeq	r2!, {}^	; <UNPREDICTABLE>
    27a0:	18000000 	stmdane	r0, {}	; <UNPREDICTABLE>
    27a4:	00009708 	andeq	r9, r0, r8, lsl #14
    27a8:	00000020 	andeq	r0, r0, r0, lsr #32
    27ac:	000004a3 	andeq	r0, r0, r3, lsr #9
    27b0:	00081917 	andeq	r1, r8, r7, lsl r9
    27b4:	013b0100 	teqeq	fp, r0, lsl #2
    27b8:	0000002c 	andeq	r0, r0, ip, lsr #32
    27bc:	00001c49 	andeq	r1, r0, r9, asr #24
    27c0:	00971411 	addseq	r1, r7, r1, lsl r4
    27c4:	00084100 	andeq	r4, r8, r0, lsl #2
    27c8:	97281100 	strls	r1, [r8, -r0, lsl #2]!
    27cc:	08620000 	stmdaeq	r2!, {}^	; <UNPREDICTABLE>
    27d0:	11000000 	mrsne	r0, (UNDEF: 0)
    27d4:	000096e0 	andeq	r9, r0, r0, ror #13
    27d8:	0000087e 	andeq	r0, r0, lr, ror r8
    27dc:	00972c11 	addseq	r2, r7, r1, lsl ip
    27e0:	00087e00 	andeq	r7, r8, r0, lsl #28
    27e4:	97381100 	ldrls	r1, [r8, -r0, lsl #2]!
    27e8:	08410000 	stmdaeq	r1, {}^	; <UNPREDICTABLE>
    27ec:	44110000 	ldrmi	r0, [r1], #-0
    27f0:	62000097 	andvs	r0, r0, #151	; 0x97
    27f4:	11000008 	tstne	r0, r8
    27f8:	00009748 	andeq	r9, r0, r8, asr #14
    27fc:	0000087e 	andeq	r0, r0, lr, ror r8
    2800:	039c1500 	orrseq	r1, ip, #0, 10
    2804:	4b010000 	blmi	4280c <__bss_end__+0x37af4>
    2808:	00975001 	addseq	r5, r7, r1
    280c:	00008400 	andeq	r8, r0, r0, lsl #8
    2810:	959c0100 	ldrls	r0, [ip, #256]	; 0x100
    2814:	16000005 	strne	r0, [r0], -r5
    2818:	006e6970 	rsbeq	r6, lr, r0, ror r9
    281c:	2c014b01 	stccs	11, cr4, [r1], {1}
    2820:	67000000 	strvs	r0, [r0, -r0]
    2824:	1700001c 	smladne	r0, ip, r0, r0
    2828:	00000797 	muleq	r0, r7, r7
    282c:	2c015c01 	stccs	12, cr5, [r1], {1}
    2830:	93000000 	movwls	r0, #0
    2834:	1800001c 	stmdane	r0, {r2, r3, r4}
    2838:	0000976c 	andeq	r9, r0, ip, ror #14
    283c:	0000001c 	andeq	r0, r0, ip, lsl r0
    2840:	00000537 	andeq	r0, r0, r7, lsr r5
    2844:	00081917 	andeq	r1, r8, r7, lsl r9
    2848:	01530100 	cmpeq	r3, r0, lsl #2
    284c:	0000002c 	andeq	r0, r0, ip, lsr #32
    2850:	00001cb1 			; <UNDEFINED> instruction: 0x00001cb1
    2854:	00977811 	addseq	r7, r7, r1, lsl r8
    2858:	00084100 	andeq	r4, r8, r0, lsl #2
    285c:	97881100 	strls	r1, [r8, r0, lsl #2]
    2860:	08620000 	stmdaeq	r2!, {}^	; <UNPREDICTABLE>
    2864:	18000000 	stmdane	r0, {}	; <UNPREDICTABLE>
    2868:	0000978c 	andeq	r9, r0, ip, lsl #15
    286c:	00000020 	andeq	r0, r0, r0, lsr #32
    2870:	00000567 	andeq	r0, r0, r7, ror #10
    2874:	00081917 	andeq	r1, r8, r7, lsl r9
    2878:	01570100 	cmpeq	r7, r0, lsl #2
    287c:	0000002c 	andeq	r0, r0, ip, lsr #32
    2880:	00001ccf 	andeq	r1, r0, pc, asr #25
    2884:	00979811 	addseq	r9, r7, r1, lsl r8
    2888:	00084100 	andeq	r4, r8, r0, lsl #2
    288c:	97ac1100 	strls	r1, [ip, r0, lsl #2]!
    2890:	08620000 	stmdaeq	r2!, {}^	; <UNPREDICTABLE>
    2894:	11000000 	mrsne	r0, (UNDEF: 0)
    2898:	00009764 	andeq	r9, r0, r4, ror #14
    289c:	0000087e 	andeq	r0, r0, lr, ror r8
    28a0:	0097b011 	addseq	fp, r7, r1, lsl r0
    28a4:	00087e00 	andeq	r7, r8, r0, lsl #28
    28a8:	97bc1100 	ldrls	r1, [ip, r0, lsl #2]!
    28ac:	08410000 	stmdaeq	r1, {}^	; <UNPREDICTABLE>
    28b0:	c8110000 	ldmdagt	r1, {}	; <UNPREDICTABLE>
    28b4:	62000097 	andvs	r0, r0, #151	; 0x97
    28b8:	11000008 	tstne	r0, r8
    28bc:	000097cc 	andeq	r9, r0, ip, asr #15
    28c0:	0000087e 	andeq	r0, r0, lr, ror r8
    28c4:	07451300 	strbeq	r1, [r5, -r0, lsl #6]
    28c8:	66010000 	strvs	r0, [r1], -r0
    28cc:	00006401 	andeq	r6, r0, r1, lsl #8
    28d0:	0097d400 	addseq	sp, r7, r0, lsl #8
    28d4:	00008400 	andeq	r8, r0, r0, lsl #8
    28d8:	3b9c0100 	blcc	fe702ce0 <__bss_end__+0xfe6f7fc8>
    28dc:	16000006 	strne	r0, [r0], -r6
    28e0:	006e6970 	rsbeq	r6, lr, r0, ror r9
    28e4:	2c016601 	stccs	6, cr6, [r1], {1}
    28e8:	ed000000 	stc	0, cr0, [r0, #-0]
    28ec:	1800001c 	stmdane	r0, {r2, r3, r4}
    28f0:	000097f0 	strdeq	r9, [r0], -r0
    28f4:	00000024 	andeq	r0, r0, r4, lsr #32
    28f8:	000005ef 	andeq	r0, r0, pc, ror #11
    28fc:	0007a017 	andeq	sl, r7, r7, lsl r0
    2900:	016d0100 	cmneq	sp, r0, lsl #2
    2904:	0000002c 	andeq	r0, r0, ip, lsr #32
    2908:	00001d2f 	andeq	r1, r0, pc, lsr #26
    290c:	0097fc11 	addseq	pc, r7, r1, lsl ip	; <UNPREDICTABLE>
    2910:	00084100 	andeq	r4, r8, r0, lsl #2
    2914:	980c1100 	stmdals	ip, {r8, ip}
    2918:	087e0000 	ldmdaeq	lr!, {}^	; <UNPREDICTABLE>
    291c:	18000000 	stmdane	r0, {}	; <UNPREDICTABLE>
    2920:	00009814 	andeq	r9, r0, r4, lsl r8
    2924:	0000002c 	andeq	r0, r0, ip, lsr #32
    2928:	00000628 	andeq	r0, r0, r8, lsr #12
    292c:	0007a017 	andeq	sl, r7, r7, lsl r0
    2930:	01700100 	cmneq	r0, r0, lsl #2
    2934:	0000002c 	andeq	r0, r0, ip, lsr #32
    2938:	00001d49 	andeq	r1, r0, r9, asr #26
    293c:	00982011 	addseq	r2, r8, r1, lsl r0
    2940:	00084100 	andeq	r4, r8, r0, lsl #2
    2944:	982c1100 	stmdals	ip!, {r8, ip}
    2948:	087e0000 	ldmdaeq	lr!, {}^	; <UNPREDICTABLE>
    294c:	38110000 	ldmdacc	r1, {}	; <UNPREDICTABLE>
    2950:	7e000098 	mcrvc	0, 0, r0, cr0, cr8, {4}
    2954:	00000008 	andeq	r0, r0, r8
    2958:	0097e811 	addseq	lr, r7, r1, lsl r8
    295c:	00087e00 	andeq	r7, r8, r0, lsl #28
    2960:	98441100 	stmdals	r4, {r8, ip}^
    2964:	087e0000 	ldmdaeq	lr!, {}^	; <UNPREDICTABLE>
    2968:	15000000 	strne	r0, [r0, #-0]
    296c:	0000013d 	andeq	r0, r0, sp, lsr r1
    2970:	58017901 	stmdapl	r1, {r0, r8, fp, ip, sp, lr}
    2974:	58000098 	stmdapl	r0, {r3, r4, r7}
    2978:	01000000 	mrseq	r0, (UNDEF: 0)
    297c:	0006a09c 	muleq	r6, ip, r0
    2980:	69701600 	ldmdbvs	r0!, {r9, sl, ip}^
    2984:	7901006e 	stmdbvc	r1, {r1, r2, r3, r5, r6}
    2988:	00002c01 	andeq	r2, r0, r1, lsl #24
    298c:	001d5c00 	andseq	r5, sp, r0, lsl #24
    2990:	986c1100 	stmdals	ip!, {r8, ip}^
    2994:	087e0000 	ldmdaeq	lr!, {}^	; <UNPREDICTABLE>
    2998:	880a0000 	stmdahi	sl, {}	; <UNPREDICTABLE>
    299c:	62000098 	andvs	r0, r0, #152	; 0x98
    29a0:	80000008 	andhi	r0, r0, r8
    29a4:	0b000006 	bleq	29c4 <_start-0x563c>
    29a8:	31045101 	tstcc	r4, r1, lsl #2
    29ac:	00240074 	eoreq	r0, r4, r4, ror r0
    29b0:	0098a40a 	addseq	sl, r8, sl, lsl #8
    29b4:	00086200 	andeq	r6, r8, r0, lsl #4
    29b8:	00069600 	andeq	r9, r6, r0, lsl #12
    29bc:	51010b00 	tstpl	r1, r0, lsl #22
    29c0:	00743104 	rsbseq	r3, r4, r4, lsl #2
    29c4:	a8110024 	ldmdage	r1, {r2, r5}
    29c8:	7e000098 	mcrvc	0, 0, r0, cr0, cr8, {4}
    29cc:	00000008 	andeq	r0, r0, r8
    29d0:	00017319 	andeq	r7, r1, r9, lsl r3
    29d4:	33280100 	teqcc	r8, #0, 2
    29d8:	05000001 	streq	r0, [r0, #-1]
    29dc:	00a44c03 	adceq	r4, r4, r3, lsl #24
    29e0:	02891900 	addeq	r1, r9, #0, 18
    29e4:	29010000 	stmdbcs	r1, {}	; <UNPREDICTABLE>
    29e8:	00000133 	andeq	r0, r0, r3, lsr r1
    29ec:	a4480305 	strbge	r0, [r8], #-773	; 0x305
    29f0:	b2190000 	andslt	r0, r9, #0
    29f4:	01000003 	tsteq	r0, r3
    29f8:	0001332a 	andeq	r3, r1, sl, lsr #6
    29fc:	44030500 	strmi	r0, [r3], #-1280	; 0x500
    2a00:	190000a4 	stmdbne	r0, {r2, r5, r7}
    2a04:	0000010a 	andeq	r0, r0, sl, lsl #2
    2a08:	01332c01 	teqeq	r3, r1, lsl #24
    2a0c:	03050000 	movweq	r0, #20480	; 0x5000
    2a10:	0000a3f0 	strdeq	sl, [r0], -r0
    2a14:	00011219 	andeq	r1, r1, r9, lsl r2
    2a18:	332d0100 	teqcc	sp, #0, 2
    2a1c:	05000001 	streq	r0, [r0, #-1]
    2a20:	00a3f403 	adceq	pc, r3, r3, lsl #8
    2a24:	00001900 	andeq	r1, r0, r0, lsl #18
    2a28:	2e010000 	cdpcs	0, 0, cr0, cr1, cr0, {0}
    2a2c:	00000133 	andeq	r0, r0, r3, lsr r1
    2a30:	a3f80305 	mvnsge	r0, #335544320	; 0x14000000
    2a34:	1a190000 	bne	642a3c <__bss_end__+0x637d24>
    2a38:	01000001 	tsteq	r0, r1
    2a3c:	0001332f 	andeq	r3, r1, pc, lsr #6
    2a40:	fc030500 	stc2	5, cr0, [r3], {-0}
    2a44:	190000a3 	stmdbne	r0, {r0, r1, r5, r7}
    2a48:	00000122 	andeq	r0, r0, r2, lsr #2
    2a4c:	01333001 	teqeq	r3, r1
    2a50:	03050000 	movweq	r0, #20480	; 0x5000
    2a54:	0000a400 	andeq	sl, r0, r0, lsl #8
    2a58:	00012a19 	andeq	r2, r1, r9, lsl sl
    2a5c:	33310100 	teqcc	r1, #0, 2
    2a60:	05000001 	streq	r0, [r0, #-1]
    2a64:	00a40403 	adceq	r0, r4, r3, lsl #8
    2a68:	02601900 	rsbeq	r1, r0, #0, 18
    2a6c:	33010000 	movwcc	r0, #4096	; 0x1000
    2a70:	00000133 	andeq	r0, r0, r3, lsr r1
    2a74:	a4080305 	strge	r0, [r8], #-773	; 0x305
    2a78:	91190000 	tstls	r9, r0
    2a7c:	01000000 	mrseq	r0, (UNDEF: 0)
    2a80:	00013334 	andeq	r3, r1, r4, lsr r3
    2a84:	0c030500 	cfstr32eq	mvfx0, [r3], {-0}
    2a88:	190000a4 	stmdbne	r0, {r2, r5, r7}
    2a8c:	00000008 	andeq	r0, r0, r8
    2a90:	01333601 	teqeq	r3, r1, lsl #12
    2a94:	03050000 	movweq	r0, #20480	; 0x5000
    2a98:	0000a410 	andeq	sl, r0, r0, lsl r4
    2a9c:	00017e19 	andeq	r7, r1, r9, lsl lr
    2aa0:	33370100 	teqcc	r7, #0, 2
    2aa4:	05000001 	streq	r0, [r0, #-1]
    2aa8:	00a41403 	adceq	r1, r4, r3, lsl #8
    2aac:	00b61900 	adcseq	r1, r6, r0, lsl #18
    2ab0:	39010000 	stmdbcc	r1, {}	; <UNPREDICTABLE>
    2ab4:	00000133 	andeq	r0, r0, r3, lsr r1
    2ab8:	a4180305 	ldrge	r0, [r8], #-773	; 0x305
    2abc:	bd190000 	ldclt	0, cr0, [r9, #-0]
    2ac0:	01000000 	mrseq	r0, (UNDEF: 0)
    2ac4:	0001333a 	andeq	r3, r1, sl, lsr r3
    2ac8:	1c030500 	cfstr32ne	mvfx0, [r3], {-0}
    2acc:	1a0000a4 	bne	2d64 <_start-0x529c>
    2ad0:	000007fd 	strdeq	r0, [r0], -sp
    2ad4:	33010a01 	movwcc	r0, #6657	; 0x1a01
    2ad8:	05000001 	streq	r0, [r0, #-1]
    2adc:	00a44003 	adceq	r4, r4, r3
    2ae0:	080b1a00 	stmdaeq	fp, {r9, fp, ip}
    2ae4:	0b010000 	bleq	42aec <__bss_end__+0x37dd4>
    2ae8:	00013301 	andeq	r3, r1, r1, lsl #6
    2aec:	20030500 	andcs	r0, r3, r0, lsl #10
    2af0:	1a0000a4 	bne	2d88 <_start-0x5278>
    2af4:	00000832 	andeq	r0, r0, r2, lsr r8
    2af8:	33010d01 	movwcc	r0, #7425	; 0x1d01
    2afc:	05000001 	streq	r0, [r0, #-1]
    2b00:	00a43803 	adceq	r3, r4, r3, lsl #16
    2b04:	08391a00 	ldmdaeq	r9!, {r9, fp, ip}
    2b08:	0e010000 	cdpeq	0, 0, cr0, cr1, cr0, {0}
    2b0c:	00013301 	andeq	r3, r1, r1, lsl #6
    2b10:	3c030500 	cfstr32cc	mvfx0, [r3], {-0}
    2b14:	1a0000a4 	bne	2dac <_start-0x5254>
    2b18:	000007ef 	andeq	r0, r0, pc, ror #15
    2b1c:	33011001 	movwcc	r1, #4097	; 0x1001
    2b20:	05000001 	streq	r0, [r0, #-1]
    2b24:	00a42403 	adceq	r2, r4, r3, lsl #8
    2b28:	07f61a00 	ldrbeq	r1, [r6, r0, lsl #20]!
    2b2c:	11010000 	mrsne	r0, (UNDEF: 1)
    2b30:	00013301 	andeq	r3, r1, r1, lsl #6
    2b34:	28030500 	stmdacs	r3, {r8, sl}
    2b38:	1a0000a4 	bne	2dd0 <_start-0x5230>
    2b3c:	00000840 	andeq	r0, r0, r0, asr #16
    2b40:	33011301 	movwcc	r1, #4865	; 0x1301
    2b44:	05000001 	streq	r0, [r0, #-1]
    2b48:	00a43003 	adceq	r3, r4, r3
    2b4c:	08471a00 	stmdaeq	r7, {r9, fp, ip}^
    2b50:	14010000 	strne	r0, [r1], #-0
    2b54:	00013301 	andeq	r3, r1, r1, lsl #6
    2b58:	34030500 	strcc	r0, [r3], #-1280	; 0x500
    2b5c:	1a0000a4 	bne	2df4 <_start-0x520c>
    2b60:	0000075f 	andeq	r0, r0, pc, asr r7
    2b64:	33011601 	movwcc	r1, #5633	; 0x1601
    2b68:	05000001 	streq	r0, [r0, #-1]
    2b6c:	00a42c03 	adceq	r2, r4, r3, lsl #24
    2b70:	085f1b00 	ldmdaeq	pc, {r8, r9, fp, ip}^	; <UNPREDICTABLE>
    2b74:	20010000 	andcs	r0, r1, r0
    2b78:	0000002c 	andeq	r0, r0, ip, lsr #32
    2b7c:	00000856 	andeq	r0, r0, r6, asr r8
    2b80:	0008561c 	andeq	r5, r8, ip, lsl r6
    2b84:	040d0000 	streq	r0, [sp], #-0
    2b88:	0000085c 	andeq	r0, r0, ip, asr r8
    2b8c:	0008611d 	andeq	r6, r8, sp, lsl r1
    2b90:	591f1e00 	ldmdbpl	pc, {r9, sl, fp, ip}	; <UNPREDICTABLE>
    2b94:	01000007 	tsteq	r0, r7
    2b98:	0008781e 	andeq	r7, r8, lr, lsl r8
    2b9c:	08781c00 	ldmdaeq	r8!, {sl, fp, ip}^
    2ba0:	2c1c0000 	ldccs	0, cr0, [ip], {-0}
    2ba4:	00000000 	andeq	r0, r0, r0
    2ba8:	0861040d 	stmdaeq	r1!, {r0, r2, r3, sl}^
    2bac:	b2200000 	eorlt	r0, r0, #0
    2bb0:	03000007 	movweq	r0, #7
    2bb4:	11f2008a 	mvnsne	r0, sl, lsl #1
    2bb8:	00040000 	andeq	r0, r4, r0
    2bbc:	00000d6d 	andeq	r0, r0, sp, ror #26
    2bc0:	02a70104 	adceq	r0, r7, #4, 2
    2bc4:	6b010000 	blvs	42bcc <__bss_end__+0x37eb4>
    2bc8:	24000009 	strcs	r0, [r0], #-9
    2bcc:	b0000004 	andlt	r0, r0, r4
    2bd0:	68000098 	stmdavs	r0, {r3, r4, r7}
    2bd4:	ee000006 	cdp	0, 0, cr0, cr0, cr6, {0}
    2bd8:	0200000b 	andeq	r0, r0, #11
    2bdc:	6e690504 	cdpvs	5, 6, cr0, cr9, cr4, {0}
    2be0:	04030074 	streq	r0, [r3], #-116	; 0x74
    2be4:	00004407 	andeq	r4, r0, r7, lsl #8
    2be8:	06010300 	streq	r0, [r1], -r0, lsl #6
    2bec:	0000024e 	andeq	r0, r0, lr, asr #4
    2bf0:	67050203 	strvs	r0, [r5, -r3, lsl #4]
    2bf4:	03000002 	movweq	r0, #2
    2bf8:	00670504 	rsbeq	r0, r7, r4, lsl #10
    2bfc:	08030000 	stmdaeq	r3, {}	; <UNPREDICTABLE>
    2c00:	00006205 	andeq	r6, r0, r5, lsl #4
    2c04:	03940400 	orrseq	r0, r4, #0, 8
    2c08:	2e030000 	cdpcs	0, 0, cr0, cr3, cr0, {0}
    2c0c:	0000005a 	andeq	r0, r0, sl, asr r0
    2c10:	4c080103 	stfmis	f0, [r8], {3}
    2c14:	03000002 	movweq	r0, #2
    2c18:	015b0702 	cmpeq	fp, r2, lsl #14
    2c1c:	64040000 	strvs	r0, [r4], #-0
    2c20:	03000006 	movweq	r0, #6
    2c24:	00007334 	andeq	r7, r0, r4, lsr r3
    2c28:	07040300 	streq	r0, [r4, -r0, lsl #6]
    2c2c:	0000003f 	andeq	r0, r0, pc, lsr r0
    2c30:	3a070803 	bcc	1c4c44 <__bss_end__+0x1b9f2c>
    2c34:	03000000 	movweq	r0, #0
    2c38:	01920704 	orrseq	r0, r2, r4, lsl #14
    2c3c:	04050000 	streq	r0, [r5], #-0
    2c40:	00900406 	addseq	r0, r0, r6, lsl #8
    2c44:	01030000 	mrseq	r0, (UNDEF: 3)
    2c48:	00025508 	andeq	r5, r2, r8, lsl #10
    2c4c:	9d040600 	stcls	6, cr0, [r4, #-0]
    2c50:	07000000 	streq	r0, [r0, -r0]
    2c54:	00000090 	muleq	r0, r0, r0
    2c58:	0e040c08 	cdpeq	12, 0, cr0, cr4, cr8, {0}
    2c5c:	000000d9 	ldrdeq	r0, [r0], -r9
    2c60:	00787409 	rsbseq	r7, r8, r9, lsl #8
    2c64:	004f0f04 	subeq	r0, pc, r4, lsl #30
    2c68:	09000000 	stmdbeq	r0, {}	; <UNPREDICTABLE>
    2c6c:	04007872 	streq	r7, [r0], #-2162	; 0x872
    2c70:	00004f0f 	andeq	r4, r0, pc, lsl #30
    2c74:	e30a0100 	movw	r0, #41216	; 0xa100
    2c78:	04000005 	streq	r0, [r0], #-5
    2c7c:	00006810 	andeq	r6, r0, r0, lsl r8
    2c80:	940a0400 	strls	r0, [sl], #-1024	; 0x400
    2c84:	04000005 	streq	r0, [r0], #-5
    2c88:	00006811 	andeq	r6, r0, r1, lsl r8
    2c8c:	04000800 	streq	r0, [r0], #-2048	; 0x800
    2c90:	000005cc 	andeq	r0, r0, ip, asr #11
    2c94:	00a21204 	adceq	r1, r2, r4, lsl #4
    2c98:	f3040000 	vhadd.u8	d0, d4, d0
    2c9c:	05000003 	streq	r0, [r0, #-3]
    2ca0:	0000ef28 	andeq	lr, r0, r8, lsr #30
    2ca4:	041a0b00 	ldreq	r0, [sl], #-2816	; 0xb00
    2ca8:	09040000 	stmdbeq	r4, {}	; <UNPREDICTABLE>
    2cac:	00010600 	andeq	r0, r1, r0, lsl #12
    2cb0:	046d0c00 	strbteq	r0, [sp], #-3072	; 0xc00
    2cb4:	00880000 	addeq	r0, r8, r0
    2cb8:	00000000 	andeq	r0, r0, r0
    2cbc:	00041c04 	andeq	r1, r4, r4, lsl #24
    2cc0:	e4620500 	strbt	r0, [r2], #-1280	; 0x500
    2cc4:	0d000000 	stceq	0, cr0, [r0, #-0]
    2cc8:	0000092f 	andeq	r0, r0, pc, lsr #18
    2ccc:	3f030902 	svccc	0x00030902
    2cd0:	0e000001 	cdpeq	0, 0, cr0, cr0, cr1, {0}
    2cd4:	000005f7 	strdeq	r0, [r0], -r7
    2cd8:	002c0902 	eoreq	r0, ip, r2, lsl #18
    2cdc:	6e0f0000 	cdpvs	0, 0, cr0, cr15, cr0, {0}
    2ce0:	2c090200 	sfmcs	f0, 4, [r9], {-0}
    2ce4:	10000000 	andne	r0, r0, r0
    2ce8:	0001c311 	andeq	ip, r1, r1, lsl r3
    2cec:	2c0c0200 	sfmcs	f0, 4, [ip], {-0}
    2cf0:	00000000 	andeq	r0, r0, r0
    2cf4:	08e20d00 	stmiaeq	r2!, {r8, sl, fp}^
    2cf8:	17020000 	strne	r0, [r2, -r0]
    2cfc:	00017603 	andeq	r7, r1, r3, lsl #12
    2d00:	69700f00 	ldmdbvs	r0!, {r8, r9, sl, fp}^
    2d04:	1702006e 	strne	r0, [r2, -lr, rrx]
    2d08:	0000002c 	andeq	r0, r0, ip, lsr #32
    2d0c:	0200760f 	andeq	r7, r0, #15728640	; 0xf00000
    2d10:	00002c17 	andeq	r2, r0, r7, lsl ip
    2d14:	05f70e00 	ldrbeq	r0, [r7, #3584]!	; 0xe00
    2d18:	17020000 	strne	r0, [r2, -r0]
    2d1c:	0000002c 	andeq	r0, r0, ip, lsr #32
    2d20:	0009350e 	andeq	r3, r9, lr, lsl #10
    2d24:	2c170200 	lfmcs	f0, 4, [r7], {-0}
    2d28:	00000000 	andeq	r0, r0, r0
    2d2c:	00060812 	andeq	r0, r6, r2, lsl r8
    2d30:	b0090100 	andlt	r0, r9, r0, lsl #2
    2d34:	54000098 	strpl	r0, [r0], #-152	; 0x98
    2d38:	01000001 	tsteq	r0, r1
    2d3c:	0007229c 	muleq	r7, ip, r2
    2d40:	05aa1300 	streq	r1, [sl, #768]!	; 0x300
    2d44:	09010000 	stmdbeq	r1, {}	; <UNPREDICTABLE>
    2d48:	00000722 	andeq	r0, r0, r2, lsr #14
    2d4c:	00001d88 	andeq	r1, r0, r8, lsl #27
    2d50:	01006314 	tsteq	r0, r4, lsl r3
    2d54:	00005a09 	andeq	r5, r0, r9, lsl #20
    2d58:	001da900 	andseq	sl, sp, r0, lsl #18
    2d5c:	78741500 	ldmdavc	r4!, {r8, sl, ip}^
    2d60:	250b0100 	strcs	r0, [fp, #-256]	; 0x100
    2d64:	06000000 	streq	r0, [r0], -r0
    2d68:	ff080076 			; <UNDEFINED> instruction: 0xff080076
    2d6c:	6e169f1a 	mrcvs	15, 0, r9, cr6, cr10, {0}
    2d70:	680c0100 	stmdavs	ip, {r8}
    2d74:	ca000000 	bgt	2d7c <_start-0x5284>
    2d78:	1600001d 			; <UNDEFINED> instruction: 0x1600001d
    2d7c:	0d010075 	stceq	0, cr0, [r1, #-468]	; 0xfffffe2c
    2d80:	00000068 	andeq	r0, r0, r8, rrx
    2d84:	00001ddd 	ldrdeq	r1, [r0], -sp
    2d88:	01007315 	tsteq	r0, r5, lsl r3
    2d8c:	0000680e 	andeq	r6, r0, lr, lsl #16
    2d90:	17540100 	ldrbne	r0, [r4, -r0, lsl #2]
    2d94:	000098c0 	andeq	r9, r0, r0, asr #17
    2d98:	00000004 	andeq	r0, r0, r4
    2d9c:	000001f8 	strdeq	r0, [r0], -r8
    2da0:	0001c318 	andeq	ip, r1, r8, lsl r3
    2da4:	2c0e0100 	stfcss	f0, [lr], {-0}
    2da8:	01000000 	mrseq	r0, (UNDEF: 0)
    2dac:	3f190054 	svccc	0x00190054
    2db0:	c4000001 	strgt	r0, [r0], #-1
    2db4:	1c000098 	stcne	0, cr0, [r0], {152}	; 0x98
    2db8:	01000000 	mrseq	r0, (UNDEF: 0)
    2dbc:	00027511 	andeq	r7, r2, r1, lsl r5
    2dc0:	016a1a00 	cmneq	sl, r0, lsl #20
    2dc4:	1e060000 	cdpne	0, 0, cr0, cr6, cr0, {0}
    2dc8:	5f1b0000 	svcpl	0x001b0000
    2dcc:	01000001 	tsteq	r0, r1
    2dd0:	01561c54 	cmpeq	r6, r4, asr ip
    2dd4:	1b000000 	blne	2ddc <_start-0x5224>
    2dd8:	0000014b 	andeq	r0, r0, fp, asr #2
    2ddc:	11195601 	tstne	r9, r1, lsl #12
    2de0:	d0000001 	andle	r0, r0, r1
    2de4:	10000098 	mulne	r0, r8, r0
    2de8:	02000000 	andeq	r0, r0, #0
    2dec:	00025f1a 	andeq	r5, r2, sl, lsl pc
    2df0:	01281a00 	teqeq	r8, r0, lsl #20
    2df4:	1e190000 	cdpne	0, 1, cr0, cr9, cr0, {0}
    2df8:	1d1b0000 	ldcne	0, cr0, [fp, #-0]
    2dfc:	01000001 	tsteq	r0, r1
    2e00:	98d01d54 	ldmls	r0, {r2, r4, r6, r8, sl, fp, ip}^
    2e04:	00040000 	andeq	r0, r4, r0
    2e08:	321e0000 	andscc	r0, lr, #0
    2e0c:	2c000001 	stccs	0, cr0, [r0], {1}
    2e10:	0000001e 	andeq	r0, r0, lr, lsl r0
    2e14:	98d01f00 	ldmls	r0, {r8, r9, sl, fp, ip}^
    2e18:	11590000 	cmpne	r9, r0
    2e1c:	01200000 	teqeq	r0, r0
    2e20:	20300151 	eorscs	r0, r0, r1, asr r1
    2e24:	76025001 	strvc	r5, [r2], -r1
    2e28:	19000000 	stmdbne	r0, {}	; <UNPREDICTABLE>
    2e2c:	0000013f 	andeq	r0, r0, pc, lsr r1
    2e30:	000098e4 	andeq	r9, r0, r4, ror #17
    2e34:	0000001c 	andeq	r0, r0, ip, lsl r0
    2e38:	02f81301 	rscseq	r1, r8, #67108864	; 0x4000000
    2e3c:	6a1a0000 	bvs	682e44 <__bss_end__+0x67812c>
    2e40:	3f000001 	svccc	0x00000001
    2e44:	1b00001e 	blne	2ec4 <_start-0x513c>
    2e48:	0000015f 	andeq	r0, r0, pc, asr r1
    2e4c:	561a5401 	ldrpl	r5, [sl], -r1, lsl #8
    2e50:	61000001 	tstvs	r0, r1
    2e54:	1b00001e 	blne	2ed4 <_start-0x512c>
    2e58:	0000014b 	andeq	r0, r0, fp, asr #2
    2e5c:	11195601 	tstne	r9, r1, lsl #12
    2e60:	f0000001 			; <UNDEFINED> instruction: 0xf0000001
    2e64:	10000098 	mulne	r0, r8, r0
    2e68:	02000000 	andeq	r0, r0, #0
    2e6c:	0002df1a 	andeq	sp, r2, sl, lsl pc
    2e70:	01281a00 	teqeq	r8, r0, lsl #20
    2e74:	1e920000 	cdpne	0, 9, cr0, cr2, cr0, {0}
    2e78:	1d1b0000 	ldcne	0, cr0, [fp, #-0]
    2e7c:	01000001 	tsteq	r0, r1
    2e80:	98f01d54 	ldmls	r0!, {r2, r4, r6, r8, sl, fp, ip}^
    2e84:	00040000 	andeq	r0, r4, r0
    2e88:	321e0000 	andscc	r0, lr, #0
    2e8c:	b4000001 	strlt	r0, [r0], #-1
    2e90:	0000001e 	andeq	r0, r0, lr, lsl r0
    2e94:	98f01f00 	ldmls	r0!, {r8, r9, sl, fp, ip}^
    2e98:	11590000 	cmpne	r9, r0
    2e9c:	01200000 	teqeq	r0, r0
    2ea0:	00770451 	rsbseq	r0, r7, r1, asr r4
    2ea4:	01201a31 	teqeq	r0, r1, lsr sl
    2ea8:	00760250 	rsbseq	r0, r6, r0, asr r2
    2eac:	3f190000 	svccc	0x00190000
    2eb0:	04000001 	streq	r0, [r0], #-1
    2eb4:	1c000099 	stcne	0, cr0, [r0], {153}	; 0x99
    2eb8:	01000000 	mrseq	r0, (UNDEF: 0)
    2ebc:	00038015 	andeq	r8, r3, r5, lsl r0
    2ec0:	016a1a00 	cmneq	sl, r0, lsl #20
    2ec4:	1ec70000 	cdpne	0, 12, cr0, cr7, cr0, {0}
    2ec8:	5f1b0000 	svcpl	0x001b0000
    2ecc:	01000001 	tsteq	r0, r1
    2ed0:	01561b54 	cmpeq	r6, r4, asr fp
    2ed4:	77080000 	strvc	r0, [r8, -r0]
    2ed8:	081a3200 	ldmdaeq	sl, {r9, ip, sp}
    2edc:	1b9f1aff 	blne	fe7c9ae0 <__bss_end__+0xfe7bedc8>
    2ee0:	0000014b 	andeq	r0, r0, fp, asr #2
    2ee4:	11195601 	tstne	r9, r1, lsl #12
    2ee8:	10000001 	andne	r0, r0, r1
    2eec:	10000099 	mulne	r0, r9, r0
    2ef0:	02000000 	andeq	r0, r0, #0
    2ef4:	0003671a 	andeq	r6, r3, sl, lsl r7
    2ef8:	01281a00 	teqeq	r8, r0, lsl #20
    2efc:	1eec0000 	cdpne	0, 14, cr0, cr12, cr0, {0}
    2f00:	1d1b0000 	ldcne	0, cr0, [fp, #-0]
    2f04:	01000001 	tsteq	r0, r1
    2f08:	99101d54 	ldmdbls	r0, {r2, r4, r6, r8, sl, fp, ip}
    2f0c:	00040000 	andeq	r0, r4, r0
    2f10:	321e0000 	andscc	r0, lr, #0
    2f14:	11000001 	tstne	r0, r1
    2f18:	0000001f 	andeq	r0, r0, pc, lsl r0
    2f1c:	99101f00 	ldmdbls	r0, {r8, r9, sl, fp, ip}
    2f20:	11590000 	cmpne	r9, r0
    2f24:	01200000 	teqeq	r0, r0
    2f28:	00770451 	rsbseq	r0, r7, r1, asr r4
    2f2c:	01201a32 	teqeq	r0, r2, lsr sl
    2f30:	00760250 	rsbseq	r0, r6, r0, asr r2
    2f34:	3f190000 	svccc	0x00190000
    2f38:	24000001 	strcs	r0, [r0], #-1
    2f3c:	1c000099 	stcne	0, cr0, [r0], {153}	; 0x99
    2f40:	01000000 	mrseq	r0, (UNDEF: 0)
    2f44:	00040817 	andeq	r0, r4, r7, lsl r8
    2f48:	016a1a00 	cmneq	sl, r0, lsl #20
    2f4c:	1f240000 	svcne	0x00240000
    2f50:	5f1b0000 	svcpl	0x001b0000
    2f54:	01000001 	tsteq	r0, r1
    2f58:	01561b54 	cmpeq	r6, r4, asr fp
    2f5c:	77080000 	strvc	r0, [r8, -r0]
    2f60:	081a3400 	ldmdaeq	sl, {sl, ip, sp}
    2f64:	1b9f1aff 	blne	fe7c9b68 <__bss_end__+0xfe7bee50>
    2f68:	0000014b 	andeq	r0, r0, fp, asr #2
    2f6c:	11195601 	tstne	r9, r1, lsl #12
    2f70:	30000001 	andcc	r0, r0, r1
    2f74:	10000099 	mulne	r0, r9, r0
    2f78:	02000000 	andeq	r0, r0, #0
    2f7c:	0003ef1a 	andeq	lr, r3, sl, lsl pc
    2f80:	01281a00 	teqeq	r8, r0, lsl #20
    2f84:	1f460000 	svcne	0x00460000
    2f88:	1d1b0000 	ldcne	0, cr0, [fp, #-0]
    2f8c:	01000001 	tsteq	r0, r1
    2f90:	99301d54 	ldmdbls	r0!, {r2, r4, r6, r8, sl, fp, ip}
    2f94:	00040000 	andeq	r0, r4, r0
    2f98:	321e0000 	andscc	r0, lr, #0
    2f9c:	68000001 	stmdavs	r0, {r0}
    2fa0:	0000001f 	andeq	r0, r0, pc, lsl r0
    2fa4:	99301f00 	ldmdbls	r0!, {r8, r9, sl, fp, ip}
    2fa8:	11590000 	cmpne	r9, r0
    2fac:	01200000 	teqeq	r0, r0
    2fb0:	00770451 	rsbseq	r0, r7, r1, asr r4
    2fb4:	01201a34 	teqeq	r0, r4, lsr sl
    2fb8:	00760250 	rsbseq	r0, r6, r0, asr r2
    2fbc:	3f190000 	svccc	0x00190000
    2fc0:	44000001 	strmi	r0, [r0], #-1
    2fc4:	1c000099 	stcne	0, cr0, [r0], {153}	; 0x99
    2fc8:	01000000 	mrseq	r0, (UNDEF: 0)
    2fcc:	00049019 	andeq	r9, r4, r9, lsl r0
    2fd0:	016a1a00 	cmneq	sl, r0, lsl #20
    2fd4:	1f7b0000 	svcne	0x007b0000
    2fd8:	5f1b0000 	svcpl	0x001b0000
    2fdc:	01000001 	tsteq	r0, r1
    2fe0:	01561b54 	cmpeq	r6, r4, asr fp
    2fe4:	77080000 	strvc	r0, [r8, -r0]
    2fe8:	081a3800 	ldmdaeq	sl, {fp, ip, sp}
    2fec:	1b9f1aff 	blne	fe7c9bf0 <__bss_end__+0xfe7beed8>
    2ff0:	0000014b 	andeq	r0, r0, fp, asr #2
    2ff4:	11195601 	tstne	r9, r1, lsl #12
    2ff8:	50000001 	andpl	r0, r0, r1
    2ffc:	10000099 	mulne	r0, r9, r0
    3000:	02000000 	andeq	r0, r0, #0
    3004:	0004771a 	andeq	r7, r4, sl, lsl r7
    3008:	01281a00 	teqeq	r8, r0, lsl #20
    300c:	1fa00000 	svcne	0x00a00000
    3010:	1d1b0000 	ldcne	0, cr0, [fp, #-0]
    3014:	01000001 	tsteq	r0, r1
    3018:	99501d54 	ldmdbls	r0, {r2, r4, r6, r8, sl, fp, ip}^
    301c:	00040000 	andeq	r0, r4, r0
    3020:	321e0000 	andscc	r0, lr, #0
    3024:	c5000001 	strgt	r0, [r0, #-1]
    3028:	0000001f 	andeq	r0, r0, pc, lsl r0
    302c:	99501f00 	ldmdbls	r0, {r8, r9, sl, fp, ip}^
    3030:	11590000 	cmpne	r9, r0
    3034:	01200000 	teqeq	r0, r0
    3038:	00770451 	rsbseq	r0, r7, r1, asr r4
    303c:	01201a38 	teqeq	r0, r8, lsr sl
    3040:	00760250 	rsbseq	r0, r6, r0, asr r2
    3044:	3f190000 	svccc	0x00190000
    3048:	64000001 	strvs	r0, [r0], #-1
    304c:	1c000099 	stcne	0, cr0, [r0], {153}	; 0x99
    3050:	01000000 	mrseq	r0, (UNDEF: 0)
    3054:	0005181b 	andeq	r1, r5, fp, lsl r8
    3058:	016a1a00 	cmneq	sl, r0, lsl #20
    305c:	1fd80000 	svcne	0x00d80000
    3060:	5f1b0000 	svcpl	0x001b0000
    3064:	01000001 	tsteq	r0, r1
    3068:	01561b54 	cmpeq	r6, r4, asr fp
    306c:	77080000 	strvc	r0, [r8, -r0]
    3070:	081a4000 	ldmdaeq	sl, {lr}
    3074:	1b9f1aff 	blne	fe7c9c78 <__bss_end__+0xfe7bef60>
    3078:	0000014b 	andeq	r0, r0, fp, asr #2
    307c:	11195601 	tstne	r9, r1, lsl #12
    3080:	70000001 	andvc	r0, r0, r1
    3084:	10000099 	mulne	r0, r9, r0
    3088:	02000000 	andeq	r0, r0, #0
    308c:	0004ff1a 	andeq	pc, r4, sl, lsl pc	; <UNPREDICTABLE>
    3090:	01281a00 	teqeq	r8, r0, lsl #20
    3094:	1fff0000 	svcne	0x00ff0000
    3098:	1d1b0000 	ldcne	0, cr0, [fp, #-0]
    309c:	01000001 	tsteq	r0, r1
    30a0:	99701d54 	ldmdbls	r0!, {r2, r4, r6, r8, sl, fp, ip}^
    30a4:	00040000 	andeq	r0, r4, r0
    30a8:	321e0000 	andscc	r0, lr, #0
    30ac:	26000001 	strcs	r0, [r0], -r1
    30b0:	00000020 	andeq	r0, r0, r0, lsr #32
    30b4:	99701f00 	ldmdbls	r0!, {r8, r9, sl, fp, ip}^
    30b8:	11590000 	cmpne	r9, r0
    30bc:	01200000 	teqeq	r0, r0
    30c0:	00770451 	rsbseq	r0, r7, r1, asr r4
    30c4:	01201a40 	teqeq	r0, r0, asr #20
    30c8:	00760250 	rsbseq	r0, r6, r0, asr r2
    30cc:	3f190000 	svccc	0x00190000
    30d0:	84000001 	strhi	r0, [r0], #-1
    30d4:	1c000099 	stcne	0, cr0, [r0], {153}	; 0x99
    30d8:	01000000 	mrseq	r0, (UNDEF: 0)
    30dc:	0005a21d 	andeq	sl, r5, sp, lsl r2
    30e0:	016a1a00 	cmneq	sl, r0, lsl #20
    30e4:	20390000 	eorscs	r0, r9, r0
    30e8:	5f1b0000 	svcpl	0x001b0000
    30ec:	01000001 	tsteq	r0, r1
    30f0:	01561b54 	cmpeq	r6, r4, asr fp
    30f4:	77090000 	strvc	r0, [r9, -r0]
    30f8:	1a200800 	bne	805100 <__bss_end__+0x7fa3e8>
    30fc:	9f1aff08 	svcls	0x001aff08
    3100:	00014b1b 	andeq	r4, r1, fp, lsl fp
    3104:	19560100 	ldmdbne	r6, {r8}^
    3108:	00000111 	andeq	r0, r0, r1, lsl r1
    310c:	00009990 	muleq	r0, r0, r9
    3110:	00000010 	andeq	r0, r0, r0, lsl r0
    3114:	05881a02 	streq	r1, [r8, #2562]	; 0xa02
    3118:	281a0000 	ldmdacs	sl, {}	; <UNPREDICTABLE>
    311c:	63000001 	movwvs	r0, #1
    3120:	1b000020 	blne	31a8 <_start-0x4e58>
    3124:	0000011d 	andeq	r0, r0, sp, lsl r1
    3128:	901d5401 	andsls	r5, sp, r1, lsl #8
    312c:	04000099 	streq	r0, [r0], #-153	; 0x99
    3130:	1e000000 	cdpne	0, 0, cr0, cr0, cr0, {0}
    3134:	00000132 	andeq	r0, r0, r2, lsr r1
    3138:	0000208d 	andeq	r2, r0, sp, lsl #1
    313c:	901f0000 	andsls	r0, pc, r0
    3140:	59000099 	stmdbpl	r0, {r0, r3, r4, r7}
    3144:	20000011 	andcs	r0, r0, r1, lsl r0
    3148:	77055101 	strvc	r5, [r5, -r1, lsl #2]
    314c:	1a200800 	bne	805154 <__bss_end__+0x7fa43c>
    3150:	02500120 	subseq	r0, r0, #32, 2
    3154:	00000076 	andeq	r0, r0, r6, ror r0
    3158:	00013f19 	andeq	r3, r1, r9, lsl pc
    315c:	0099a400 	addseq	sl, r9, r0, lsl #8
    3160:	00001c00 	andeq	r1, r0, r0, lsl #24
    3164:	2c1f0100 	ldfcss	f0, [pc], {-0}
    3168:	1a000006 	bne	3188 <_start-0x4e78>
    316c:	0000016a 	andeq	r0, r0, sl, ror #2
    3170:	000020a0 	andeq	r2, r0, r0, lsr #1
    3174:	00015f1b 	andeq	r5, r1, fp, lsl pc
    3178:	1b540100 	blne	1503580 <__bss_end__+0x14f8868>
    317c:	00000156 	andeq	r0, r0, r6, asr r1
    3180:	08007709 	stmdaeq	r0, {r0, r3, r8, r9, sl, ip, sp, lr}
    3184:	ff081a40 			; <UNDEFINED> instruction: 0xff081a40
    3188:	4b1b9f1a 	blmi	6eadf8 <__bss_end__+0x6e00e0>
    318c:	01000001 	tsteq	r0, r1
    3190:	01111956 	tsteq	r1, r6, asr r9
    3194:	99b00000 	ldmibls	r0!, {}	; <UNPREDICTABLE>
    3198:	00100000 	andseq	r0, r0, r0
    319c:	1a020000 	bne	831a4 <__bss_end__+0x7848c>
    31a0:	00000612 	andeq	r0, r0, r2, lsl r6
    31a4:	0001281a 	andeq	r2, r1, sl, lsl r8
    31a8:	0020c200 	eoreq	ip, r0, r0, lsl #4
    31ac:	011d1b00 	tsteq	sp, r0, lsl #22
    31b0:	54010000 	strpl	r0, [r1], #-0
    31b4:	0099b01d 	addseq	fp, r9, sp, lsl r0
    31b8:	00000400 	andeq	r0, r0, r0, lsl #8
    31bc:	01321e00 	teqeq	r2, r0, lsl #28
    31c0:	20e40000 	rsccs	r0, r4, r0
    31c4:	00000000 	andeq	r0, r0, r0
    31c8:	0099b01f 	addseq	fp, r9, pc, lsl r0
    31cc:	00115900 	andseq	r5, r1, r0, lsl #18
    31d0:	51012000 	mrspl	r2, (UNDEF: 1)
    31d4:	08007705 	stmdaeq	r0, {r0, r2, r8, r9, sl, ip, sp, lr}
    31d8:	01201a40 	teqeq	r0, r0, asr #20
    31dc:	00760250 	rsbseq	r0, r6, r0, asr r2
    31e0:	3f190000 	svccc	0x00190000
    31e4:	c4000001 	strgt	r0, [r0], #-1
    31e8:	1c000099 	stcne	0, cr0, [r0], {153}	; 0x99
    31ec:	01000000 	mrseq	r0, (UNDEF: 0)
    31f0:	0006ac21 	andeq	sl, r6, r1, lsr #24
    31f4:	016a1b00 	cmneq	sl, r0, lsl #22
    31f8:	58010000 	stmdapl	r1, {}	; <UNPREDICTABLE>
    31fc:	00015f1b 	andeq	r5, r1, fp, lsl pc
    3200:	1a540100 	bne	1503608 <__bss_end__+0x14f88f0>
    3204:	00000156 	andeq	r0, r0, r6, asr r1
    3208:	000020f7 	strdeq	r2, [r0], -r7
    320c:	00014b1b 	andeq	r4, r1, fp, lsl fp
    3210:	19560100 	ldmdbne	r6, {r8}^
    3214:	00000111 	andeq	r0, r0, r1, lsl r1
    3218:	000099d0 	ldrdeq	r9, [r0], -r0
    321c:	00000010 	andeq	r0, r0, r0, lsl r0
    3220:	06921a02 	ldreq	r1, [r2], r2, lsl #20
    3224:	281b0000 	ldmdacs	fp, {}	; <UNPREDICTABLE>
    3228:	01000001 	tsteq	r0, r1
    322c:	011d1b58 	tsteq	sp, r8, asr fp
    3230:	54010000 	strpl	r0, [r1], #-0
    3234:	0099d01d 	addseq	sp, r9, sp, lsl r0
    3238:	00000400 	andeq	r0, r0, r0, lsl #8
    323c:	01321e00 	teqeq	r2, r0, lsl #28
    3240:	212a0000 	teqcs	sl, r0
    3244:	00000000 	andeq	r0, r0, r0
    3248:	0099d01f 	addseq	sp, r9, pc, lsl r0
    324c:	00115900 	andseq	r5, r1, r0, lsl #18
    3250:	51012000 	mrspl	r2, (UNDEF: 1)
    3254:	08007705 	stmdaeq	r0, {r0, r2, r8, r9, sl, ip, sp, lr}
    3258:	01201a80 	smlawbeq	r0, r0, sl, r1
    325c:	00760250 	rsbseq	r0, r6, r0, asr r2
    3260:	3f210000 	svccc	0x00210000
    3264:	e4000001 	str	r0, [r0], #-1
    3268:	1c000099 	stcne	0, cr0, [r0], {153}	; 0x99
    326c:	01000000 	mrseq	r0, (UNDEF: 0)
    3270:	016a1b23 	cmneq	sl, r3, lsr #22
    3274:	55010000 	strpl	r0, [r1, #-0]
    3278:	00015f1b 	andeq	r5, r1, fp, lsl pc
    327c:	1c540100 	ldfnee	f0, [r4], {-0}
    3280:	00000156 	andeq	r0, r0, r6, asr r1
    3284:	014b1b01 	cmpeq	fp, r1, lsl #22
    3288:	56010000 	strpl	r0, [r1], -r0
    328c:	00011119 	andeq	r1, r1, r9, lsl r1
    3290:	0099f000 	addseq	pc, r9, r0
    3294:	00001000 	andeq	r1, r0, r0
    3298:	0b1a0200 	bleq	683aa0 <__bss_end__+0x678d88>
    329c:	1b000007 	blne	32c0 <_start-0x4d40>
    32a0:	00000128 	andeq	r0, r0, r8, lsr #2
    32a4:	1d1b5501 	cfldr32ne	mvfx5, [fp, #-4]
    32a8:	01000001 	tsteq	r0, r1
    32ac:	99f01d54 	ldmibls	r0!, {r2, r4, r6, r8, sl, fp, ip}^
    32b0:	00040000 	andeq	r0, r4, r0
    32b4:	321e0000 	andscc	r0, lr, #0
    32b8:	3d000001 	stccc	0, cr0, [r0, #-4]
    32bc:	00000021 	andeq	r0, r0, r1, lsr #32
    32c0:	99f01f00 	ldmibls	r0!, {r8, r9, sl, fp, ip}^
    32c4:	11590000 	cmpne	r9, r0
    32c8:	01200000 	teqeq	r0, r0
    32cc:	20310151 	eorscs	r0, r1, r1, asr r1
    32d0:	76025001 	strvc	r5, [r2], -r1
    32d4:	00000000 	andeq	r0, r0, r0
    32d8:	00d90406 	sbcseq	r0, r9, r6, lsl #8
    32dc:	c4220000 	strtgt	r0, [r2], #-0
    32e0:	01000009 	tsteq	r0, r9
    32e4:	00002527 	andeq	r2, r0, r7, lsr #10
    32e8:	07620300 	strbeq	r0, [r2, -r0, lsl #6]!
    32ec:	720f0000 	andvc	r0, pc, #0
    32f0:	27010078 	smlsdxcs	r1, r8, r0, r0
    32f4:	00000025 	andeq	r0, r0, r5, lsr #32
    32f8:	0100760f 	tsteq	r0, pc, lsl #12
    32fc:	00002527 	andeq	r2, r0, r7, lsr #10
    3300:	09510e00 	ldmdbeq	r1, {r9, sl, fp}^
    3304:	27010000 	strcs	r0, [r1, -r0]
    3308:	0000002c 	andeq	r0, r0, ip, lsr #32
    330c:	0005f711 	andeq	pc, r5, r1, lsl r7	; <UNPREDICTABLE>
    3310:	2c280100 	stfcss	f0, [r8], #-0
    3314:	00000000 	andeq	r0, r0, r0
    3318:	0008f223 	andeq	pc, r8, r3, lsr #4
    331c:	25340100 	ldrcs	r0, [r4, #-256]!	; 0x100
    3320:	04000000 	streq	r0, [r0], #-0
    3324:	c800009a 	stmdagt	r0, {r1, r3, r4, r7}
    3328:	01000001 	tsteq	r0, r1
    332c:	000b1e9c 	muleq	fp, ip, lr
    3330:	05aa1300 	streq	r1, [sl, #768]!	; 0x300
    3334:	34010000 	strcc	r0, [r1], #-0
    3338:	00000722 	andeq	r0, r0, r2, lsr #14
    333c:	00002150 	andeq	r2, r0, r0, asr r1
    3340:	00095113 	andeq	r5, r9, r3, lsl r1
    3344:	25340100 	ldrcs	r0, [r4, #-256]!	; 0x100
    3348:	95000000 	strls	r0, [r0, #-0]
    334c:	15000021 	strne	r0, [r0, #-33]	; 0x21
    3350:	01007872 	tsteq	r0, r2, ror r8
    3354:	00002535 	andeq	r2, r0, r5, lsr r5
    3358:	16550100 	ldrbne	r0, [r5], -r0, lsl #2
    335c:	3c010073 	stccc	0, cr0, [r1], {115}	; 0x73
    3360:	0000002c 	andeq	r0, r0, ip, lsr #32
    3364:	000021b3 			; <UNDEFINED> instruction: 0x000021b3
    3368:	01007516 	tsteq	r0, r6, lsl r5
    336c:	0000683f 	andeq	r6, r0, pc, lsr r8
    3370:	0021c600 	eoreq	ip, r1, r0, lsl #12
    3374:	006e1600 	rsbeq	r1, lr, r0, lsl #12
    3378:	002c4001 	eoreq	r4, ip, r1
    337c:	21d90000 	bicscs	r0, r9, r0
    3380:	63160000 	tstvs	r6, #0
    3384:	2c410100 	stfcse	f0, [r1], {-0}
    3388:	f0000000 			; <UNDEFINED> instruction: 0xf0000000
    338c:	19000021 	stmdbne	r0, {r0, r5}
    3390:	00000728 	andeq	r0, r0, r8, lsr #14
    3394:	00009a18 	andeq	r9, r0, r8, lsl sl
    3398:	00000034 	andeq	r0, r0, r4, lsr r0
    339c:	083c3801 	ldmdaeq	ip!, {r0, fp, ip, sp}
    33a0:	4b1a0000 	blmi	6833a8 <__bss_end__+0x678690>
    33a4:	1a000007 	bne	33c8 <_start-0x4c38>
    33a8:	1c000022 	stcne	0, cr0, [r0], {34}	; 0x22
    33ac:	00000742 	andeq	r0, r0, r2, asr #14
    33b0:	07381b00 	ldreq	r1, [r8, -r0, lsl #22]!
    33b4:	55010000 	strpl	r0, [r1, #-0]
    33b8:	009a181d 	addseq	r1, sl, sp, lsl r8
    33bc:	00003400 	andeq	r3, r0, r0, lsl #8
    33c0:	07561e00 	ldrbeq	r1, [r6, -r0, lsl #28]
    33c4:	22380000 	eorscs	r0, r8, #0
    33c8:	1c240000 	stcne	0, cr0, [r4], #-0
    33cc:	6f00009a 	svcvs	0x0000009a
    33d0:	25000011 	strcs	r0, [r0, #-17]
    33d4:	00009a28 	andeq	r9, r0, r8, lsr #20
    33d8:	0000117a 	andeq	r1, r0, sl, ror r1
    33dc:	00000831 	andeq	r0, r0, r1, lsr r8
    33e0:	02500120 	subseq	r0, r0, #32, 2
    33e4:	24000075 	strcs	r0, [r0], #-117	; 0x75
    33e8:	00009a34 	andeq	r9, r0, r4, lsr sl
    33ec:	0000116f 	andeq	r1, r0, pc, ror #2
    33f0:	54170000 	ldrpl	r0, [r7], #-0
    33f4:	0400009a 	streq	r0, [r0], #-154	; 0x9a
    33f8:	59000000 	stmdbpl	r0, {}	; <UNPREDICTABLE>
    33fc:	26000008 	strcs	r0, [r0], -r8
    3400:	000001c3 	andeq	r0, r0, r3, asr #3
    3404:	002c3c01 	eoreq	r3, ip, r1, lsl #24
    3408:	22560000 	subscs	r0, r6, #0
    340c:	19000000 	stmdbne	r0, {}	; <UNPREDICTABLE>
    3410:	00000111 	andeq	r0, r0, r1, lsl r1
    3414:	00009a60 	andeq	r9, r0, r0, ror #20
    3418:	00000010 	andeq	r0, r0, r0, lsl r0
    341c:	08924401 	ldmeq	r2, {r0, sl, lr}
    3420:	281a0000 	ldmdacs	sl, {}	; <UNPREDICTABLE>
    3424:	69000001 	stmdbvs	r0, {r0}
    3428:	1a000022 	bne	34b8 <_start-0x4b48>
    342c:	0000011d 	andeq	r0, r0, sp, lsl r1
    3430:	0000228e 	andeq	r2, r0, lr, lsl #5
    3434:	009a601d 	addseq	r6, sl, sp, lsl r0
    3438:	00000400 	andeq	r0, r0, r0, lsl #8
    343c:	01321e00 	teqeq	r2, r0, lsl #28
    3440:	22a10000 	adccs	r0, r1, #0
    3444:	00000000 	andeq	r0, r0, r0
    3448:	00011119 	andeq	r1, r1, r9, lsl r1
    344c:	009a8000 	addseq	r8, sl, r0
    3450:	00001000 	andeq	r1, r0, r0
    3454:	cb480100 	blgt	120385c <__bss_end__+0x11f8b44>
    3458:	1a000008 	bne	3480 <_start-0x4b80>
    345c:	00000128 	andeq	r0, r0, r8, lsr #2
    3460:	000022b4 			; <UNDEFINED> instruction: 0x000022b4
    3464:	00011d1a 	andeq	r1, r1, sl, lsl sp
    3468:	0022c700 	eoreq	ip, r2, r0, lsl #14
    346c:	9a801d00 	bls	fe00a874 <__bss_end__+0xfdfffb5c>
    3470:	00040000 	andeq	r0, r4, r0
    3474:	321e0000 	andscc	r0, lr, #0
    3478:	da000001 	ble	3484 <_start-0x4b7c>
    347c:	00000022 	andeq	r0, r0, r2, lsr #32
    3480:	01111900 	tsteq	r1, r0, lsl #18
    3484:	9aa40000 	bls	fe90348c <__bss_end__+0xfe8f8774>
    3488:	00100000 	andseq	r0, r0, r0
    348c:	4b010000 	blmi	43494 <__bss_end__+0x3877c>
    3490:	00000904 	andeq	r0, r0, r4, lsl #18
    3494:	0001281a 	andeq	r2, r1, sl, lsl r8
    3498:	0022ed00 	eoreq	lr, r2, r0, lsl #26
    349c:	011d1a00 	tsteq	sp, r0, lsl #20
    34a0:	23000000 	movwcs	r0, #0
    34a4:	a41d0000 	ldrge	r0, [sp], #-0
    34a8:	0400009a 	streq	r0, [r0], #-154	; 0x9a
    34ac:	1e000000 	cdpne	0, 0, cr0, cr0, cr0, {0}
    34b0:	00000132 	andeq	r0, r0, r2, lsr r1
    34b4:	00002313 	andeq	r2, r0, r3, lsl r3
    34b8:	11190000 	tstne	r9, r0
    34bc:	c8000001 	stmdagt	r0, {r0}
    34c0:	1000009a 	mulne	r0, sl, r0
    34c4:	01000000 	mrseq	r0, (UNDEF: 0)
    34c8:	00093d4e 	andeq	r3, r9, lr, asr #26
    34cc:	01281a00 	teqeq	r8, r0, lsl #20
    34d0:	23260000 	teqcs	r6, #0
    34d4:	1d1a0000 	ldcne	0, cr0, [sl, #-0]
    34d8:	39000001 	stmdbcc	r0, {r0}
    34dc:	1d000023 	stcne	0, cr0, [r0, #-140]	; 0xffffff74
    34e0:	00009ac8 	andeq	r9, r0, r8, asr #21
    34e4:	00000004 	andeq	r0, r0, r4
    34e8:	0001321e 	andeq	r3, r1, lr, lsl r2
    34ec:	00234c00 	eoreq	r4, r3, r0, lsl #24
    34f0:	19000000 	stmdbne	r0, {}	; <UNPREDICTABLE>
    34f4:	00000111 	andeq	r0, r0, r1, lsl r1
    34f8:	00009aec 	andeq	r9, r0, ip, ror #21
    34fc:	00000010 	andeq	r0, r0, r0, lsl r0
    3500:	09765101 	ldmdbeq	r6!, {r0, r8, ip, lr}^
    3504:	281a0000 	ldmdacs	sl, {}	; <UNPREDICTABLE>
    3508:	5f000001 	svcpl	0x00000001
    350c:	1a000023 	bne	35a0 <_start-0x4a60>
    3510:	0000011d 	andeq	r0, r0, sp, lsl r1
    3514:	00002372 	andeq	r2, r0, r2, ror r3
    3518:	009aec1d 	addseq	lr, sl, sp, lsl ip
    351c:	00000400 	andeq	r0, r0, r0, lsl #8
    3520:	01321e00 	teqeq	r2, r0, lsl #28
    3524:	23850000 	orrcs	r0, r5, #0
    3528:	00000000 	andeq	r0, r0, r0
    352c:	00011119 	andeq	r1, r1, r9, lsl r1
    3530:	009b1000 	addseq	r1, fp, r0
    3534:	00001000 	andeq	r1, r0, r0
    3538:	af540100 	svcge	0x00540100
    353c:	1a000009 	bne	3568 <_start-0x4a98>
    3540:	00000128 	andeq	r0, r0, r8, lsr #2
    3544:	00002398 	muleq	r0, r8, r3
    3548:	00011d1a 	andeq	r1, r1, sl, lsl sp
    354c:	0023ab00 	eoreq	sl, r3, r0, lsl #22
    3550:	9b101d00 	blls	40a958 <__bss_end__+0x3ffc40>
    3554:	00040000 	andeq	r0, r4, r0
    3558:	321e0000 	andscc	r0, lr, #0
    355c:	be000001 	cdplt	0, 0, cr0, cr0, cr1, {0}
    3560:	00000023 	andeq	r0, r0, r3, lsr #32
    3564:	01111900 	tsteq	r1, r0, lsl #18
    3568:	9b340000 	blls	d03570 <__bss_end__+0xcf8858>
    356c:	00100000 	andseq	r0, r0, r0
    3570:	57010000 	strpl	r0, [r1, -r0]
    3574:	000009e8 	andeq	r0, r0, r8, ror #19
    3578:	0001281a 	andeq	r2, r1, sl, lsl r8
    357c:	0023d100 	eoreq	sp, r3, r0, lsl #2
    3580:	011d1a00 	tsteq	sp, r0, lsl #20
    3584:	23e40000 	mvncs	r0, #0
    3588:	341d0000 	ldrcc	r0, [sp], #-0
    358c:	0400009b 	streq	r0, [r0], #-155	; 0x9b
    3590:	1e000000 	cdpne	0, 0, cr0, cr0, cr0, {0}
    3594:	00000132 	andeq	r0, r0, r2, lsr r1
    3598:	000023f7 	strdeq	r2, [r0], -r7
    359c:	11190000 	tstne	r9, r0
    35a0:	58000001 	stmdapl	r0, {r0}
    35a4:	1000009b 	mulne	r0, fp, r0
    35a8:	01000000 	mrseq	r0, (UNDEF: 0)
    35ac:	000a1d5a 	andeq	r1, sl, sl, asr sp
    35b0:	01281a00 	teqeq	r8, r0, lsl #20
    35b4:	240a0000 	strcs	r0, [sl], #-0
    35b8:	1d270000 	stcne	0, cr0, [r7, #-0]
    35bc:	1d000001 	stcne	0, cr0, [r0, #-4]
    35c0:	00009b58 	andeq	r9, r0, r8, asr fp
    35c4:	00000004 	andeq	r0, r0, r4
    35c8:	0001321e 	andeq	r3, r1, lr, lsl r2
    35cc:	00241d00 	eoreq	r1, r4, r0, lsl #26
    35d0:	19000000 	stmdbne	r0, {}	; <UNPREDICTABLE>
    35d4:	00000728 	andeq	r0, r0, r8, lsr #14
    35d8:	00009b78 	andeq	r9, r0, r8, ror fp
    35dc:	00000034 	andeq	r0, r0, r4, lsr r0
    35e0:	0a816101 	beq	fe05b9ec <__bss_end__+0xfe050cd4>
    35e4:	4b270000 	blmi	9c35ec <__bss_end__+0x9b88d4>
    35e8:	1a000007 	bne	360c <_start-0x49f4>
    35ec:	00000742 	andeq	r0, r0, r2, asr #14
    35f0:	00002430 	andeq	r2, r0, r0, lsr r4
    35f4:	0007381a 	andeq	r3, r7, sl, lsl r8
    35f8:	00245000 	eoreq	r5, r4, r0
    35fc:	9b781d00 	blls	1e0aa04 <__bss_end__+0x1dffcec>
    3600:	00340000 	eorseq	r0, r4, r0
    3604:	561e0000 	ldrpl	r0, [lr], -r0
    3608:	6e000007 	cdpvs	0, 0, cr0, cr0, cr7, {0}
    360c:	24000024 	strcs	r0, [r0], #-36	; 0x24
    3610:	00009b7c 	andeq	r9, r0, ip, ror fp
    3614:	0000116f 	andeq	r1, r0, pc, ror #2
    3618:	009b8825 	addseq	r8, fp, r5, lsr #16
    361c:	00117a00 	andseq	r7, r1, r0, lsl #20
    3620:	000a7600 	andeq	r7, sl, r0, lsl #12
    3624:	50012000 	andpl	r2, r1, r0
    3628:	00007502 	andeq	r7, r0, r2, lsl #10
    362c:	009b9424 	addseq	r9, fp, r4, lsr #8
    3630:	00116f00 	andseq	r6, r1, r0, lsl #30
    3634:	25000000 	strcs	r0, [r0, #-0]
    3638:	00009a7c 	andeq	r9, r0, ip, ror sl
    363c:	0000117a 	andeq	r1, r0, sl, ror r1
    3640:	00000a95 	muleq	r0, r5, sl
    3644:	02500120 	subseq	r0, r0, #32, 2
    3648:	25000075 	strcs	r0, [r0, #-117]	; 0x75
    364c:	00009a9c 	muleq	r0, ip, sl
    3650:	0000117a 	andeq	r1, r0, sl, ror r1
    3654:	00000aa9 	andeq	r0, r0, r9, lsr #21
    3658:	02500120 	subseq	r0, r0, #32, 2
    365c:	25000075 	strcs	r0, [r0, #-117]	; 0x75
    3660:	00009ac0 	andeq	r9, r0, r0, asr #21
    3664:	0000117a 	andeq	r1, r0, sl, ror r1
    3668:	00000abd 			; <UNDEFINED> instruction: 0x00000abd
    366c:	02500120 	subseq	r0, r0, #32, 2
    3670:	25000075 	strcs	r0, [r0, #-117]	; 0x75
    3674:	00009ae4 	andeq	r9, r0, r4, ror #21
    3678:	0000117a 	andeq	r1, r0, sl, ror r1
    367c:	00000ad1 	ldrdeq	r0, [r0], -r1
    3680:	02500120 	subseq	r0, r0, #32, 2
    3684:	25000075 	strcs	r0, [r0, #-117]	; 0x75
    3688:	00009b08 	andeq	r9, r0, r8, lsl #22
    368c:	0000117a 	andeq	r1, r0, sl, ror r1
    3690:	00000ae5 	andeq	r0, r0, r5, ror #21
    3694:	02500120 	subseq	r0, r0, #32, 2
    3698:	25000075 	strcs	r0, [r0, #-117]	; 0x75
    369c:	00009b2c 	andeq	r9, r0, ip, lsr #22
    36a0:	0000117a 	andeq	r1, r0, sl, ror r1
    36a4:	00000af9 	strdeq	r0, [r0], -r9
    36a8:	02500120 	subseq	r0, r0, #32, 2
    36ac:	25000075 	strcs	r0, [r0, #-117]	; 0x75
    36b0:	00009b50 	andeq	r9, r0, r0, asr fp
    36b4:	0000117a 	andeq	r1, r0, sl, ror r1
    36b8:	00000b0d 	andeq	r0, r0, sp, lsl #22
    36bc:	02500120 	subseq	r0, r0, #32, 2
    36c0:	1f000075 	svcne	0x00000075
    36c4:	00009b70 	andeq	r9, r0, r0, ror fp
    36c8:	0000117a 	andeq	r1, r0, sl, ror r1
    36cc:	02500120 	subseq	r0, r0, #32, 2
    36d0:	00000075 	andeq	r0, r0, r5, ror r0
    36d4:	00090723 	andeq	r0, r9, r3, lsr #14
    36d8:	256c0100 	strbcs	r0, [ip, #-256]!	; 0x100
    36dc:	cc000000 	stcgt	0, cr0, [r0], {-0}
    36e0:	a400009b 	strge	r0, [r0], #-155	; 0x9b
    36e4:	01000000 	mrseq	r0, (UNDEF: 0)
    36e8:	000c0c9c 	muleq	ip, ip, ip
    36ec:	00751400 	rsbseq	r1, r5, r0, lsl #8
    36f0:	07226c01 	streq	r6, [r2, -r1, lsl #24]!
    36f4:	248c0000 	strcs	r0, [ip], #0
    36f8:	62140000 	andsvs	r0, r4, #0
    36fc:	01006675 	tsteq	r0, r5, ror r6
    3700:	000c0c6c 	andeq	r0, ip, ip, ror #24
    3704:	0024ce00 	eoreq	ip, r4, r0, lsl #28
    3708:	09991300 	ldmibeq	r9, {r8, r9, ip}
    370c:	6c010000 	stcvs	0, cr0, [r1], {-0}
    3710:	00000068 	andeq	r0, r0, r8, rrx
    3714:	00002510 	andeq	r2, r0, r0, lsl r5
    3718:	646e6514 	strbtvs	r6, [lr], #-1300	; 0x514
    371c:	4f6c0100 	svcmi	0x006c0100
    3720:	57000000 	strpl	r0, [r0, -r0]
    3724:	28000025 	stmdacs	r0, {r0, r2, r5}
    3728:	000009a0 	andeq	r0, r0, r0, lsr #19
    372c:	00686c01 	rsbeq	r6, r8, r1, lsl #24
    3730:	91020000 	mrsls	r0, (UNDEF: 2)
    3734:	014e2900 	cmpeq	lr, r0, lsl #18
    3738:	0c220000 	stceq	0, cr0, [r2], #-0
    373c:	03050000 	movweq	r0, #20480	; 0x5000
    3740:	0000a60c 	andeq	sl, r0, ip, lsl #12
    3744:	01006916 	tsteq	r0, r6, lsl r9
    3748:	00002570 	andeq	r2, r0, r0, ror r5
    374c:	00259100 	eoreq	r9, r5, r0, lsl #2
    3750:	097c2600 	ldmdbeq	ip!, {r9, sl, sp}^
    3754:	71010000 	mrsvc	r0, (UNDEF: 1)
    3758:	0000004f 	andeq	r0, r0, pc, asr #32
    375c:	000025bb 			; <UNDEFINED> instruction: 0x000025bb
    3760:	009bf024 	addseq	pc, fp, r4, lsr #32
    3764:	00118f00 	andseq	r8, r1, r0, lsl #30
    3768:	9c0c2500 	cfstr32ls	mvfx2, [ip], {-0}
    376c:	11960000 	orrsne	r0, r6, r0
    3770:	0bec0000 	bleq	ffb03778 <__bss_end__+0xffaf8a60>
    3774:	01200000 	teqeq	r0, r0
    3778:	6d080253 	sfmvs	f0, 4, [r8, #-332]	; 0xfffffeb4
    377c:	05520120 	ldrbeq	r0, [r2, #-288]	; 0x120
    3780:	00a60c03 	adceq	r0, r6, r3, lsl #24
    3784:	51012000 	mrspl	r2, (UNDEF: 1)
    3788:	a6840305 	strge	r0, [r4], r5, lsl #6
    378c:	01200000 	teqeq	r0, r0
    3790:	0c030550 	cfstr32eq	mvfx0, [r3], {80}	; 0x50
    3794:	200000a5 	andcs	r0, r0, r5, lsr #1
    3798:	05007d02 	streq	r7, [r0, #-3330]	; 0xd02
    379c:	00a69803 	adceq	r9, r6, r3, lsl #16
    37a0:	10240000 	eorne	r0, r4, r0
    37a4:	ac00009c 	stcge	0, cr0, [r0], {156}	; 0x9c
    37a8:	1f000011 	svcne	0x00000011
    37ac:	00009c2c 	andeq	r9, r0, ip, lsr #24
    37b0:	00000762 	andeq	r0, r0, r2, ror #14
    37b4:	02510120 	subseq	r0, r1, #32, 2
    37b8:	0120007a 	teqeq	r0, sl, ror r0
    37bc:	00780250 	rsbseq	r0, r8, r0, asr r2
    37c0:	04060000 	streq	r0, [r6], #-0
    37c4:	0000004f 	andeq	r0, r0, pc, asr #32
    37c8:	0000902a 	andeq	r9, r0, sl, lsr #32
    37cc:	000c2200 	andeq	r2, ip, r0, lsl #4
    37d0:	00812b00 	addeq	r2, r1, r0, lsl #22
    37d4:	00120000 	andseq	r0, r2, r0
    37d8:	000c1207 	andeq	r1, ip, r7, lsl #4
    37dc:	09842300 	stmibeq	r4, {r8, r9, sp}
    37e0:	80010000 	andhi	r0, r1, r0
    37e4:	00000025 	andeq	r0, r0, r5, lsr #32
    37e8:	00009c70 	andeq	r9, r0, r0, ror ip
    37ec:	00000090 	muleq	r0, r0, r0
    37f0:	0cf89c01 	ldcleq	12, cr9, [r8], #4
    37f4:	75140000 	ldrvc	r0, [r4, #-0]
    37f8:	22800100 	addcs	r0, r0, #0, 2
    37fc:	ce000007 	cdpgt	0, 0, cr0, cr0, cr7, {0}
    3800:	14000025 	strne	r0, [r0], #-37	; 0x25
    3804:	00667562 	rsbeq	r7, r6, r2, ror #10
    3808:	0c0c8001 	stceq	0, cr8, [ip], {1}
    380c:	26100000 	ldrcs	r0, [r0], -r0
    3810:	99130000 	ldmdbls	r3, {}	; <UNPREDICTABLE>
    3814:	01000009 	tsteq	r0, r9
    3818:	00006881 	andeq	r6, r0, r1, lsl #17
    381c:	00265200 	eoreq	r5, r6, r0, lsl #4
    3820:	09a01300 	stmibeq	r0!, {r8, r9, ip}
    3824:	81010000 	mrshi	r0, (UNDEF: 1)
    3828:	00000068 	andeq	r0, r0, r8, rrx
    382c:	00002699 	muleq	r0, r9, r6
    3830:	00014e29 	andeq	r4, r1, r9, lsr #28
    3834:	000d0800 	andeq	r0, sp, r0, lsl #16
    3838:	20030500 	andcs	r0, r3, r0, lsl #10
    383c:	160000a6 	strne	r0, [r0], -r6, lsr #1
    3840:	86010069 	strhi	r0, [r1], -r9, rrx
    3844:	00000025 	andeq	r0, r0, r5, lsr #32
    3848:	000026db 	ldrdeq	r2, [r0], -fp
    384c:	009c9024 	addseq	r9, ip, r4, lsr #32
    3850:	00118f00 	andseq	r8, r1, r0, lsl #30
    3854:	9cac2500 	cfstr32ls	mvfx2, [ip]
    3858:	11960000 	orrsne	r0, r6, r0
    385c:	0cd80000 	ldcleq	0, cr0, [r8], {0}
    3860:	01200000 	teqeq	r0, r0
    3864:	83080253 	movwhi	r0, #33363	; 0x8253
    3868:	05520120 	ldrbeq	r0, [r2, #-288]	; 0x120
    386c:	00a62003 	adceq	r2, r6, r3
    3870:	51012000 	mrspl	r2, (UNDEF: 1)
    3874:	a6840305 	strge	r0, [r4], r5, lsl #6
    3878:	01200000 	teqeq	r0, r0
    387c:	0c030550 	cfstr32eq	mvfx0, [r3], {80}	; 0x50
    3880:	200000a5 	andcs	r0, r0, r5, lsr #1
    3884:	05007d02 	streq	r7, [r0, #-3330]	; 0xd02
    3888:	00a69803 	adceq	r9, r6, r3, lsl #16
    388c:	b0240000 	eorlt	r0, r4, r0
    3890:	ac00009c 	stcge	0, cr0, [r0], {156}	; 0x9c
    3894:	1f000011 	svcne	0x00000011
    3898:	00009ccc 	andeq	r9, r0, ip, asr #25
    389c:	00000762 	andeq	r0, r0, r2, ror #14
    38a0:	02510120 	subseq	r0, r1, #32, 2
    38a4:	01200078 	teqeq	r0, r8, ror r0
    38a8:	00770250 	rsbseq	r0, r7, r0, asr r2
    38ac:	902a0000 	eorls	r0, sl, r0
    38b0:	08000000 	stmdaeq	r0, {}	; <UNPREDICTABLE>
    38b4:	2b00000d 	blcs	38f0 <_start-0x4710>
    38b8:	00000081 	andeq	r0, r0, r1, lsl #1
    38bc:	f8070014 			; <UNDEFINED> instruction: 0xf8070014
    38c0:	2300000c 	movwcs	r0, #12
    38c4:	0000093d 	andeq	r0, r0, sp, lsr r9
    38c8:	00d99301 	sbcseq	r9, r9, r1, lsl #6
    38cc:	9d000000 	stcls	0, cr0, [r0, #-0]
    38d0:	00d40000 	sbcseq	r0, r4, r0
    38d4:	9c010000 	stcls	0, cr0, [r1], {-0}
    38d8:	00000e32 	andeq	r0, r0, r2, lsr lr
    38dc:	00787414 	rsbseq	r7, r8, r4, lsl r4
    38e0:	004f9301 	subeq	r9, pc, r1, lsl #6
    38e4:	27050000 	strcs	r0, [r5, -r0]
    38e8:	72140000 	andsvc	r0, r4, #0
    38ec:	93010078 	movwls	r0, #4216	; 0x1078
    38f0:	0000004f 	andeq	r0, r0, pc, asr #32
    38f4:	00002726 	andeq	r2, r0, r6, lsr #14
    38f8:	0005e313 	andeq	lr, r5, r3, lsl r3
    38fc:	68930100 	ldmvs	r3, {r8}
    3900:	47000000 	strmi	r0, [r0, -r0]
    3904:	28000027 	stmdacs	r0, {r0, r1, r2, r5}
    3908:	000008d6 	ldrdeq	r0, [r0], -r6
    390c:	00689301 	rsbeq	r9, r8, r1, lsl #6
    3910:	91020000 	mrsls	r0, (UNDEF: 2)
    3914:	686d2c00 	stmdavs	sp!, {sl, fp, sp}^
    3918:	9b01007a 	blls	43b08 <__bss_end__+0x38df0>
    391c:	0000002c 	andeq	r0, r0, ip, lsr #32
    3920:	29b92700 	ldmibcs	r9!, {r8, r9, sl, sp}
    3924:	00092726 	andeq	r2, r9, r6, lsr #14
    3928:	2c9c0100 	ldfcss	f0, [ip], {0}
    392c:	71000000 	mrsvc	r0, (UNDEF: 0)
    3930:	29000027 	stmdbcs	r0, {r0, r1, r2, r5}
    3934:	0000014e 	andeq	r0, r0, lr, asr #2
    3938:	00000e42 	andeq	r0, r0, r2, asr #28
    393c:	a6380305 	ldrtge	r0, [r8], -r5, lsl #6
    3940:	2c170000 	ldccs	0, cr0, [r7], {-0}
    3944:	0800009d 	stmdaeq	r0, {r0, r2, r3, r4, r7}
    3948:	a5000000 	strge	r0, [r0, #-0]
    394c:	2d00000d 	stccs	0, cr0, [r0, #-52]	; 0xffffffcc
    3950:	01006e69 	tsteq	r0, r9, ror #28
    3954:	00002c97 	muleq	r0, r7, ip
    3958:	25000100 	strcs	r0, [r0, #-256]	; 0x100
    395c:	00009d24 	andeq	r9, r0, r4, lsr #26
    3960:	000011b3 			; <UNDEFINED> instruction: 0x000011b3
    3964:	00000db9 			; <UNDEFINED> instruction: 0x00000db9
    3968:	02500120 	subseq	r0, r0, #32, 2
    396c:	25000076 	strcs	r0, [r0, #-118]	; 0x76
    3970:	00009d2c 	andeq	r9, r0, ip, lsr #26
    3974:	000011c4 	andeq	r1, r0, r4, asr #3
    3978:	00000dcd 	andeq	r0, r0, sp, asr #27
    397c:	02500120 	subseq	r0, r0, #32, 2
    3980:	25000078 	strcs	r0, [r0, #-120]	; 0x78
    3984:	00009d40 	andeq	r9, r0, r0, asr #26
    3988:	00001159 	andeq	r1, r0, r9, asr r1
    398c:	00000de6 	andeq	r0, r0, r6, ror #27
    3990:	01510120 	cmpeq	r1, r0, lsr #2
    3994:	50012031 	andpl	r2, r1, r1, lsr r0
    3998:	00007602 	andeq	r7, r0, r2, lsl #12
    399c:	009d8424 	addseq	r8, sp, r4, lsr #8
    39a0:	00118f00 	andseq	r8, r1, r0, lsl #30
    39a4:	9da02500 	cfstr32ls	mvfx2, [r0]
    39a8:	11960000 	orrsne	r0, r6, r0
    39ac:	0e280000 	cdpeq	0, 2, cr0, cr8, cr0, {0}
    39b0:	01200000 	teqeq	r0, r0
    39b4:	9d080253 	sfmls	f0, 4, [r8, #-332]	; 0xfffffeb4
    39b8:	05520120 	ldrbeq	r0, [r2, #-288]	; 0x120
    39bc:	00a63803 	adceq	r3, r6, r3, lsl #16
    39c0:	51012000 	mrspl	r2, (UNDEF: 1)
    39c4:	a6840305 	strge	r0, [r4], r5, lsl #6
    39c8:	01200000 	teqeq	r0, r0
    39cc:	0c030550 	cfstr32eq	mvfx0, [r3], {80}	; 0x50
    39d0:	200000a5 	andcs	r0, r0, r5, lsr #1
    39d4:	05007d02 	streq	r7, [r0, #-3330]	; 0xd02
    39d8:	00a6a403 	adceq	sl, r6, r3, lsl #8
    39dc:	a4240000 	strtge	r0, [r4], #-0
    39e0:	ac00009d 	stcge	0, cr0, [r0], {157}	; 0x9d
    39e4:	00000011 	andeq	r0, r0, r1, lsl r0
    39e8:	0000902a 	andeq	r9, r0, sl, lsr #32
    39ec:	000e4200 	andeq	r4, lr, r0, lsl #4
    39f0:	00812b00 	addeq	r2, r1, r0, lsl #22
    39f4:	00130000 	andseq	r0, r3, r0
    39f8:	000e3207 	andeq	r3, lr, r7, lsl #4
    39fc:	091a2300 	ldmdbeq	sl, {r8, r9, sp}
    3a00:	a9010000 	stmdbge	r1, {}	; <UNPREDICTABLE>
    3a04:	00000025 	andeq	r0, r0, r5, lsr #32
    3a08:	00009dd4 	ldrdeq	r9, [r0], -r4
    3a0c:	0000003c 	andeq	r0, r0, ip, lsr r0
    3a10:	0eea9c01 	cdpeq	12, 14, cr9, cr10, cr1, {0}
    3a14:	aa130000 	bge	4c3a1c <__bss_end__+0x4b8d04>
    3a18:	01000005 	tsteq	r0, r5
    3a1c:	000722a9 	andeq	r2, r7, r9, lsr #5
    3a20:	00279f00 	eoreq	r9, r7, r0, lsl #30
    3a24:	65721600 	ldrbvs	r1, [r2, #-1536]!	; 0x600
    3a28:	aa010073 	bge	43bfc <__bss_end__+0x38ee4>
    3a2c:	00000025 	andeq	r0, r0, r5, lsr #32
    3a30:	000027c0 	andeq	r2, r0, r0, asr #15
    3a34:	00014e29 	andeq	r4, r1, r9, lsr #28
    3a38:	000efa00 	andeq	pc, lr, r0, lsl #20
    3a3c:	4c030500 	cfstr32mi	mvfx0, [r3], {-0}
    3a40:	250000a6 	strcs	r0, [r0, #-166]	; 0xa6
    3a44:	00009de0 	andeq	r9, r0, r0, ror #27
    3a48:	00000762 	andeq	r0, r0, r2, ror #14
    3a4c:	00000ea8 	andeq	r0, r0, r8, lsr #29
    3a50:	02510120 	subseq	r0, r1, #32, 2
    3a54:	0120ff09 	msreq	LR_irq, r9
    3a58:	01f30350 	mvnseq	r0, r0, asr r3
    3a5c:	ec240050 	stc	0, cr0, [r4], #-320	; 0xfffffec0
    3a60:	8f00009d 	svchi	0x0000009d
    3a64:	25000011 	strcs	r0, [r0, #-17]
    3a68:	00009e00 	andeq	r9, r0, r0, lsl #28
    3a6c:	00001196 	muleq	r0, r6, r1
    3a70:	00000ee0 	andeq	r0, r0, r0, ror #29
    3a74:	02530120 	subseq	r0, r3, #32, 2
    3a78:	0120ac08 	teqeq	r0, r8, lsl #24
    3a7c:	4c030552 	cfstr32mi	mvfx0, [r3], {82}	; 0x52
    3a80:	200000a6 	andcs	r0, r0, r6, lsr #1
    3a84:	03055101 	movweq	r5, #20737	; 0x5101
    3a88:	0000a684 	andeq	sl, r0, r4, lsl #13
    3a8c:	05500120 	ldrbeq	r0, [r0, #-288]	; 0x120
    3a90:	00a6d803 	adceq	sp, r6, r3, lsl #16
    3a94:	04240000 	strteq	r0, [r4], #-0
    3a98:	ac00009e 	stcge	0, cr0, [r0], {158}	; 0x9e
    3a9c:	00000011 	andeq	r0, r0, r1, lsl r0
    3aa0:	0000902a 	andeq	r9, r0, sl, lsr #32
    3aa4:	000efa00 	andeq	pc, lr, r0, lsl #20
    3aa8:	00812b00 	addeq	r2, r1, r0, lsl #22
    3aac:	000c0000 	andeq	r0, ip, r0
    3ab0:	000eea07 	andeq	lr, lr, r7, lsl #20
    3ab4:	095e1200 	ldmdbeq	lr, {r9, ip}^
    3ab8:	b0010000 	andlt	r0, r1, r0
    3abc:	00009e10 	andeq	r9, r0, r0, lsl lr
    3ac0:	0000002c 	andeq	r0, r0, ip, lsr #32
    3ac4:	0f439c01 	svceq	0x00439c01
    3ac8:	aa130000 	bge	4c3ad0 <__bss_end__+0x4b8db8>
    3acc:	01000005 	tsteq	r0, r5
    3ad0:	000722b0 			; <UNDEFINED> instruction: 0x000722b0
    3ad4:	0027d300 	eoreq	sp, r7, r0, lsl #6
    3ad8:	736d1400 	cmnvc	sp, #0, 8
    3adc:	b0010067 	andlt	r0, r1, r7, rrx
    3ae0:	00000097 	muleq	r0, r7, r0
    3ae4:	000027f1 	strdeq	r2, [r0], -r1
    3ae8:	009e281f 	addseq	r2, lr, pc, lsl r8
    3aec:	00017600 	andeq	r7, r1, r0, lsl #12
    3af0:	50012000 	andpl	r2, r1, r0
    3af4:	00007502 	andeq	r7, r0, r2, lsl #10
    3af8:	05af2300 	streq	r2, [pc, #768]!	; 3e00 <_start-0x4200>
    3afc:	b9010000 	stmdblt	r1, {}	; <UNPREDICTABLE>
    3b00:	00000025 	andeq	r0, r0, r5, lsr #32
    3b04:	00009e3c 	andeq	r9, r0, ip, lsr lr
    3b08:	00000090 	muleq	r0, r0, r0
    3b0c:	10419c01 	subne	r9, r1, r1, lsl #24
    3b10:	aa130000 	bge	4c3b18 <__bss_end__+0x4b8e00>
    3b14:	01000005 	tsteq	r0, r5
    3b18:	000722b9 			; <UNDEFINED> instruction: 0x000722b9
    3b1c:	00280f00 	eoreq	r0, r8, r0, lsl #30
    3b20:	6d662e00 	stclvs	14, cr2, [r6, #-0]
    3b24:	b9010074 	stmdblt	r1, {r2, r4, r5, r6}
    3b28:	00000097 	muleq	r0, r7, r0
    3b2c:	2f749102 	svccs	0x00749102
    3b30:	66756215 			; <UNDEFINED> instruction: 0x66756215
    3b34:	41ba0100 			; <UNDEFINED> instruction: 0x41ba0100
    3b38:	03000010 	movweq	r0, #16
    3b3c:	187c9c91 	ldmdane	ip!, {r0, r4, r7, sl, fp, ip, pc}^
    3b40:	00000468 	andeq	r0, r0, r8, ror #8
    3b44:	0106bc01 	tsteq	r6, r1, lsl #24
    3b48:	91030000 	mrsls	r0, (UNDEF: 3)
    3b4c:	73167c98 	tstvc	r6, #152, 24	; 0x9800
    3b50:	be01007a 	mcrlt	0, 0, r0, cr1, cr10, {3}
    3b54:	00000025 	andeq	r0, r0, r5, lsr #32
    3b58:	0000283b 	andeq	r2, r0, fp, lsr r8
    3b5c:	00014e29 	andeq	r4, r1, r9, lsr #28
    3b60:	00106200 	andseq	r6, r0, r0, lsl #4
    3b64:	5c030500 	cfstr32pl	mvfx0, [r3], {-0}
    3b68:	250000a6 	strcs	r0, [r0, #-166]	; 0xa6
    3b6c:	00009e64 	andeq	r9, r0, r4, ror #28
    3b70:	000011d5 	ldrdeq	r1, [r0], -r5
    3b74:	00000fde 	ldrdeq	r0, [r0], -lr
    3b78:	02530120 	subseq	r0, r3, #32, 2
    3b7c:	01205891 			; <UNDEFINED> instruction: 0x01205891
    3b80:	54910352 	ldrpl	r0, [r1], #850	; 0x352
    3b84:	51012006 	tstpl	r1, r6
    3b88:	01cc0a03 	biceq	r0, ip, r3, lsl #20
    3b8c:	03500120 	cmpeq	r0, #32, 2
    3b90:	007bfc91 			; <UNDEFINED> instruction: 0x007bfc91
    3b94:	009e7824 	addseq	r7, lr, r4, lsr #16
    3b98:	00118f00 	andseq	r8, r1, r0, lsl #30
    3b9c:	9e942500 	cdpls	5, 9, cr2, cr4, cr0, {0}
    3ba0:	11960000 	orrsne	r0, r6, r0
    3ba4:	10200000 	eorne	r0, r0, r0
    3ba8:	01200000 	teqeq	r0, r0
    3bac:	c0080253 	andgt	r0, r8, r3, asr r2
    3bb0:	05520120 	ldrbeq	r0, [r2, #-288]	; 0x120
    3bb4:	00a65c03 	adceq	r5, r6, r3, lsl #24
    3bb8:	51012000 	mrspl	r2, (UNDEF: 1)
    3bbc:	a6840305 	strge	r0, [r4], r5, lsl #6
    3bc0:	01200000 	teqeq	r0, r0
    3bc4:	0c030550 	cfstr32eq	mvfx0, [r3], {80}	; 0x50
    3bc8:	200000a5 	andcs	r0, r0, r5, lsr #1
    3bcc:	05007d02 	streq	r7, [r0, #-3330]	; 0xd02
    3bd0:	00a71003 	adceq	r1, r7, r3
    3bd4:	98240000 	stmdals	r4!, {}	; <UNPREDICTABLE>
    3bd8:	ac00009e 	stcge	0, cr0, [r0], {158}	; 0x9e
    3bdc:	1f000011 	svcne	0x00000011
    3be0:	00009ea4 	andeq	r9, r0, r4, lsr #29
    3be4:	00000eff 	strdeq	r0, [r0], -pc	; <UNPREDICTABLE>
    3be8:	03510120 	cmpeq	r1, #32, 2
    3bec:	207bfc91 			; <UNDEFINED> instruction: 0x207bfc91
    3bf0:	75025001 	strvc	r5, [r2, #-1]
    3bf4:	2a000000 	bcs	3bfc <_start-0x4404>
    3bf8:	00000090 	muleq	r0, r0, r0
    3bfc:	00001052 	andeq	r1, r0, r2, asr r0
    3c00:	00008130 	andeq	r8, r0, r0, lsr r1
    3c04:	0001cb00 	andeq	ip, r1, r0, lsl #22
    3c08:	0000902a 	andeq	r9, r0, sl, lsr #32
    3c0c:	00106200 	andseq	r6, r0, r0, lsl #4
    3c10:	00812b00 	addeq	r2, r1, r0, lsl #22
    3c14:	000e0000 	andeq	r0, lr, r0
    3c18:	00105207 	andseq	r5, r0, r7, lsl #4
    3c1c:	09ad2300 	stmibeq	sp!, {r8, r9, sp}
    3c20:	c5010000 	strgt	r0, [r1, #-0]
    3c24:	00000025 	andeq	r0, r0, r5, lsr #32
    3c28:	00009ecc 	andeq	r9, r0, ip, asr #29
    3c2c:	0000004c 	andeq	r0, r0, ip, asr #32
    3c30:	11449c01 	cmpne	r4, r1, lsl #24
    3c34:	75140000 	ldrvc	r0, [r4, #-0]
    3c38:	22c50100 	sbccs	r0, r5, #0, 2
    3c3c:	7a000007 	bvc	3c60 <_start-0x43a0>
    3c40:	14000028 	strne	r0, [r0], #-40	; 0x28
    3c44:	00667562 	rsbeq	r7, r6, r2, ror #10
    3c48:	0c0cc501 	cfstr32eq	mvfx12, [ip], {1}
    3c4c:	289b0000 	ldmcs	fp, {}	; <UNPREDICTABLE>
    3c50:	99130000 	ldmdbls	r3, {}	; <UNPREDICTABLE>
    3c54:	01000009 	tsteq	r0, r9
    3c58:	000068c5 	andeq	r6, r0, r5, asr #17
    3c5c:	0028bc00 	eoreq	fp, r8, r0, lsl #24
    3c60:	6e651400 	cdpvs	4, 6, cr1, cr5, cr0, {0}
    3c64:	c5010064 	strgt	r0, [r1, #-100]	; 0x64
    3c68:	0000004f 	andeq	r0, r0, pc, asr #32
    3c6c:	000028dd 	ldrdeq	r2, [r0], -sp
    3c70:	73657216 	cmnvc	r5, #1610612737	; 0x60000001
    3c74:	25c60100 	strbcs	r0, [r6, #256]	; 0x100
    3c78:	fe000000 	cdp2	0, 0, cr0, cr0, cr0, {0}
    3c7c:	29000028 	stmdbcs	r0, {r3, r5}
    3c80:	0000014e 	andeq	r0, r0, lr, asr #2
    3c84:	00001154 	andeq	r1, r0, r4, asr r1
    3c88:	a66c0305 	strbtge	r0, [ip], -r5, lsl #6
    3c8c:	e0250000 	eor	r0, r5, r0
    3c90:	1e00009e 	mcrne	0, 0, r0, cr0, cr14, {4}
    3c94:	0200000b 	andeq	r0, r0, #11
    3c98:	20000011 	andcs	r0, r0, r1, lsl r0
    3c9c:	f3035201 	vhsub.u8	d5, d3, d1
    3ca0:	01205201 	teqeq	r0, r1, lsl #4
    3ca4:	01f30351 	mvnseq	r0, r1, asr r3
    3ca8:	50012051 	andpl	r2, r1, r1, asr r0
    3cac:	5001f303 	andpl	pc, r1, r3, lsl #6
    3cb0:	007d0220 	rsbseq	r0, sp, r0, lsr #4
    3cb4:	00ff0902 	rscseq	r0, pc, r2, lsl #18
    3cb8:	009eec24 	addseq	lr, lr, r4, lsr #24
    3cbc:	00118f00 	andseq	r8, r1, r0, lsl #30
    3cc0:	9f002500 	svcls	0x00002500
    3cc4:	11960000 	orrsne	r0, r6, r0
    3cc8:	113a0000 	teqne	sl, r0
    3ccc:	01200000 	teqeq	r0, r0
    3cd0:	c8080253 	stmdagt	r8, {r0, r1, r4, r6, r9}
    3cd4:	05520120 	ldrbeq	r0, [r2, #-288]	; 0x120
    3cd8:	00a66c03 	adceq	r6, r6, r3, lsl #24
    3cdc:	51012000 	mrspl	r2, (UNDEF: 1)
    3ce0:	a6840305 	strge	r0, [r4], r5, lsl #6
    3ce4:	01200000 	teqeq	r0, r0
    3ce8:	d8030550 	stmdale	r3, {r4, r6, r8, sl}
    3cec:	000000a6 	andeq	r0, r0, r6, lsr #1
    3cf0:	009f0424 	addseq	r0, pc, r4, lsr #8
    3cf4:	0011ac00 	andseq	sl, r1, r0, lsl #24
    3cf8:	902a0000 	eorls	r0, sl, r0
    3cfc:	54000000 	strpl	r0, [r0], #-0
    3d00:	2b000011 	blcs	3d4c <_start-0x42b4>
    3d04:	00000081 	andeq	r0, r0, r1, lsl #1
    3d08:	44070016 	strmi	r0, [r7], #-22
    3d0c:	31000011 	tstcc	r0, r1, lsl r0
    3d10:	00000014 	andeq	r0, r0, r4, lsl r0
    3d14:	116f2106 	cmnne	pc, r6, lsl #2
    3d18:	2c320000 	ldccs	0, cr0, [r2], #-0
    3d1c:	32000000 	andcc	r0, r0, #0
    3d20:	0000002c 	andeq	r0, r0, ip, lsr #32
    3d24:	06e43300 	strbteq	r3, [r4], r0, lsl #6
    3d28:	57070000 	strpl	r0, [r7, -r0]
    3d2c:	0000002c 	andeq	r0, r0, ip, lsr #32
    3d30:	0007be34 	andeq	fp, r7, r4, lsr lr
    3d34:	25240600 	strcs	r0, [r4, #-1536]!	; 0x600
    3d38:	8f000000 	svchi	0x00000000
    3d3c:	32000011 	andcc	r0, r0, #17
    3d40:	0000002c 	andeq	r0, r0, ip, lsr #32
    3d44:	00fb3500 	rscseq	r3, fp, r0, lsl #10
    3d48:	1e070000 	cdpne	0, 0, cr0, cr7, cr0, {0}
    3d4c:	00041334 	andeq	r1, r4, r4, lsr r3
    3d50:	25290700 	strcs	r0, [r9, #-1792]!	; 0x700
    3d54:	ac000000 	stcge	0, cr0, [r0], {-0}
    3d58:	32000011 	andcc	r0, r0, #17
    3d5c:	00000097 	muleq	r0, r7, r0
    3d60:	8535002f 	ldrhi	r0, [r5, #-47]!	; 0x2f
    3d64:	07000001 	streq	r0, [r0, -r1]
    3d68:	03673166 	cmneq	r7, #-2147483623	; 0x80000019
    3d6c:	1d060000 	stcne	0, cr0, [r6, #-0]
    3d70:	000011c4 	andeq	r1, r0, r4, asr #3
    3d74:	00002c32 	andeq	r2, r0, r2, lsr ip
    3d78:	fe310000 	cdp2	0, 3, cr0, cr1, cr0, {0}
    3d7c:	06000002 	streq	r0, [r0], -r2
    3d80:	0011d51c 	andseq	sp, r1, ip, lsl r5
    3d84:	002c3200 	eoreq	r3, ip, r0, lsl #4
    3d88:	36000000 	strcc	r0, [r0], -r0
    3d8c:	00000410 	andeq	r0, r0, r0, lsl r4
    3d90:	00250208 	eoreq	r0, r5, r8, lsl #4
    3d94:	8a320000 	bhi	c83d9c <__bss_end__+0xc79084>
    3d98:	32000000 	andcc	r0, r0, #0
    3d9c:	00000025 	andeq	r0, r0, r5, lsr #32
    3da0:	00009732 	andeq	r9, r0, r2, lsr r7
    3da4:	01063200 	mrseq	r3, LR_usr
    3da8:	00000000 	andeq	r0, r0, r0
    3dac:	000003ff 	strdeq	r0, [r0], -pc	; <UNPREDICTABLE>
    3db0:	103f0004 	eorsne	r0, pc, r4
    3db4:	01040000 	mrseq	r0, (UNDEF: 4)
    3db8:	000002a7 	andeq	r0, r0, r7, lsr #5
    3dbc:	000a9b01 	andeq	r9, sl, r1, lsl #22
    3dc0:	00042400 	andeq	r2, r4, r0, lsl #8
    3dc4:	009f1800 	addseq	r1, pc, r0, lsl #16
    3dc8:	00015400 	andeq	r5, r1, r0, lsl #8
    3dcc:	000f3b00 	andeq	r3, pc, r0, lsl #22
    3dd0:	05040200 	streq	r0, [r4, #-512]	; 0x200
    3dd4:	00746e69 	rsbseq	r6, r4, r9, ror #28
    3dd8:	44070403 	strmi	r0, [r7], #-1027	; 0x403
    3ddc:	03000000 	movweq	r0, #0
    3de0:	024e0601 	subeq	r0, lr, #1048576	; 0x100000
    3de4:	02030000 	andeq	r0, r3, #0
    3de8:	00026705 	andeq	r6, r2, r5, lsl #14
    3dec:	05040300 	streq	r0, [r4, #-768]	; 0x300
    3df0:	00000067 	andeq	r0, r0, r7, rrx
    3df4:	62050803 	andvs	r0, r5, #196608	; 0x30000
    3df8:	03000000 	movweq	r0, #0
    3dfc:	024c0801 	subeq	r0, ip, #65536	; 0x10000
    3e00:	02030000 	andeq	r0, r3, #0
    3e04:	00015b07 	andeq	r5, r1, r7, lsl #22
    3e08:	07040300 	streq	r0, [r4, -r0, lsl #6]
    3e0c:	0000003f 	andeq	r0, r0, pc, lsr r0
    3e10:	3a070803 	bcc	1c5e24 <__bss_end__+0x1bb10c>
    3e14:	03000000 	movweq	r0, #0
    3e18:	01920704 	orrseq	r0, r2, r4, lsl #14
    3e1c:	01030000 	mrseq	r0, (UNDEF: 3)
    3e20:	00025508 	andeq	r5, r2, r8, lsl #10
    3e24:	02010400 	andeq	r0, r1, #0, 8
    3e28:	0000b20c 	andeq	fp, r0, ip, lsl #4
    3e2c:	07790500 	ldrbeq	r0, [r9, -r0, lsl #10]!
    3e30:	05000000 	streq	r0, [r0, #-0]
    3e34:	0000084e 	andeq	r0, r0, lr, asr #16
    3e38:	08710501 	ldmdaeq	r1!, {r0, r8, sl}^
    3e3c:	05040000 	streq	r0, [r4, #-0]
    3e40:	00000880 	andeq	r0, r0, r0, lsl #17
    3e44:	088f0505 	stmeq	pc, {r0, r2, r8, sl}	; <UNPREDICTABLE>
    3e48:	05060000 	streq	r0, [r6, #-0]
    3e4c:	0000089e 	muleq	r0, lr, r8
    3e50:	08ad0507 	stmiaeq	sp!, {r0, r1, r2, r8, sl}
    3e54:	05030000 	streq	r0, [r3, #-0]
    3e58:	000008bc 			; <UNDEFINED> instruction: 0x000008bc
    3e5c:	65060002 	strvs	r0, [r6, #-2]
    3e60:	02000008 	andeq	r0, r0, #8
    3e64:	00007915 	andeq	r7, r0, r5, lsl r9
    3e68:	00300700 	eorseq	r0, r0, r0, lsl #14
    3e6c:	37010000 	strcc	r0, [r1, -r0]
    3e70:	00009f18 	andeq	r9, r0, r8, lsl pc
    3e74:	0000009c 	muleq	r0, ip, r0
    3e78:	01c39c01 	biceq	r9, r3, r1, lsl #24
    3e7c:	20080000 	andcs	r0, r8, r0
    3e80:	a800009f 	stmdage	r0, {r0, r1, r2, r3, r4, r7}
    3e84:	09000003 	stmdbeq	r0, {r0, r1}
    3e88:	00009f2c 	andeq	r9, r0, ip, lsr #30
    3e8c:	000003af 	andeq	r0, r0, pc, lsr #7
    3e90:	000000f3 	strdeq	r0, [r0], -r3
    3e94:	0151010a 	cmpeq	r1, sl, lsl #2
    3e98:	50010a32 	andpl	r0, r1, r2, lsr sl
    3e9c:	09003e01 	stmdbeq	r0, {r0, r9, sl, fp, ip, sp}
    3ea0:	00009f38 	andeq	r9, r0, r8, lsr pc
    3ea4:	000003af 	andeq	r0, r0, pc, lsr #7
    3ea8:	0000010b 	andeq	r0, r0, fp, lsl #2
    3eac:	0151010a 	cmpeq	r1, sl, lsl #2
    3eb0:	50010a32 	andpl	r0, r1, r2, lsr sl
    3eb4:	08003f01 	stmdaeq	r0, {r0, r8, r9, sl, fp, ip, sp}
    3eb8:	00009f3c 	andeq	r9, r0, ip, lsr pc
    3ebc:	000003a8 	andeq	r0, r0, r8, lsr #7
    3ec0:	009f4c09 	addseq	r4, pc, r9, lsl #24
    3ec4:	0003c500 	andeq	ip, r3, r0, lsl #10
    3ec8:	00012800 	andeq	r2, r1, r0, lsl #16
    3ecc:	50010a00 	andpl	r0, r1, r0, lsl #20
    3ed0:	00007502 	andeq	r7, r0, r2, lsl #10
    3ed4:	009f5809 	addseq	r5, pc, r9, lsl #16
    3ed8:	0003e600 	andeq	lr, r3, r0, lsl #12
    3edc:	00013c00 	andeq	r3, r1, r0, lsl #24
    3ee0:	50010a00 	andpl	r0, r1, r0, lsl #20
    3ee4:	00007502 	andeq	r7, r0, r2, lsl #10
    3ee8:	009f5c08 	addseq	r5, pc, r8, lsl #24
    3eec:	0003a800 	andeq	sl, r3, r0, lsl #16
    3ef0:	9f680900 	svcls	0x00680900
    3ef4:	03e60000 	mvneq	r0, #0
    3ef8:	01580000 	cmpeq	r8, r0
    3efc:	010a0000 	mrseq	r0, (UNDEF: 10)
    3f00:	00300151 	eorseq	r0, r0, r1, asr r1
    3f04:	009f7409 	addseq	r7, pc, r9, lsl #8
    3f08:	0003e600 	andeq	lr, r3, r0, lsl #12
    3f0c:	00016b00 	andeq	r6, r1, r0, lsl #22
    3f10:	51010a00 	tstpl	r1, r0, lsl #20
    3f14:	09003001 	stmdbeq	r0, {r0, ip, sp}
    3f18:	00009f80 	andeq	r9, r0, r0, lsl #31
    3f1c:	000003e6 	andeq	r0, r0, r6, ror #7
    3f20:	0000017e 	andeq	r0, r0, lr, ror r1
    3f24:	0151010a 	cmpeq	r1, sl, lsl #2
    3f28:	8c090036 	stchi	0, cr0, [r9], {54}	; 0x36
    3f2c:	e600009f 			; <UNDEFINED> instruction: 0xe600009f
    3f30:	91000003 	tstls	r0, r3
    3f34:	0a000001 	beq	3f40 <_start-0x40c0>
    3f38:	33015101 	movwcc	r5, #4353	; 0x1101
    3f3c:	9f980900 	svcls	0x00980900
    3f40:	03e60000 	mvneq	r0, #0
    3f44:	01a60000 			; <UNDEFINED> instruction: 0x01a60000
    3f48:	010a0000 	mrseq	r0, (UNDEF: 10)
    3f4c:	0e0a0351 	mcreq	3, 0, r0, cr10, cr1, {2}
    3f50:	a4090001 	strge	r0, [r9], #-1
    3f54:	e600009f 			; <UNDEFINED> instruction: 0xe600009f
    3f58:	b9000003 	stmdblt	r0, {r0, r1}
    3f5c:	0a000001 	beq	3f68 <_start-0x4098>
    3f60:	33015101 	movwcc	r5, #4353	; 0x1101
    3f64:	9fa80800 	svcls	0x00a80800
    3f68:	03a80000 			; <UNDEFINED> instruction: 0x03a80000
    3f6c:	0b000000 	bleq	3f74 <_start-0x408c>
    3f70:	00000a00 	andeq	r0, r0, r0, lsl #20
    3f74:	00255701 	eoreq	r5, r5, r1, lsl #14
    3f78:	9fb40000 	svcls	0x00b40000
    3f7c:	001c0000 	andseq	r0, ip, r0
    3f80:	9c010000 	stcls	0, cr0, [r1], {-0}
    3f84:	000001e6 	andeq	r0, r0, r6, ror #3
    3f88:	009fc408 	addseq	ip, pc, r8, lsl #8
    3f8c:	0003c500 	andeq	ip, r3, r0, lsl #10
    3f90:	1d0b0000 	stcne	0, cr0, [fp, #-0]
    3f94:	01000009 	tsteq	r0, r9
    3f98:	0000255d 	andeq	r2, r0, sp, asr r5
    3f9c:	009fd000 	addseq	sp, pc, r0
    3fa0:	00002800 	andeq	r2, r0, r0, lsl #16
    3fa4:	129c0100 	addsne	r0, ip, #0, 2
    3fa8:	08000002 	stmdaeq	r0, {r1}
    3fac:	00009fd8 	ldrdeq	r9, [r0], -r8
    3fb0:	000001c3 	andeq	r0, r0, r3, asr #3
    3fb4:	009fec08 	addseq	lr, pc, r8, lsl #24
    3fb8:	0003c500 	andeq	ip, r3, r0, lsl #10
    3fbc:	4a0b0000 	bmi	2c3fc4 <__bss_end__+0x2b92ac>
    3fc0:	0100000a 	tsteq	r0, sl
    3fc4:	00002564 	andeq	r2, r0, r4, ror #10
    3fc8:	009ff800 	addseq	pc, pc, r0, lsl #16
    3fcc:	00001c00 	andeq	r1, r0, r0, lsl #24
    3fd0:	359c0100 	ldrcc	r0, [ip, #256]	; 0x100
    3fd4:	08000002 	stmdaeq	r0, {r1}
    3fd8:	0000a008 	andeq	sl, r0, r8
    3fdc:	000003c5 	andeq	r0, r0, r5, asr #7
    3fe0:	060b0700 	streq	r0, [fp], -r0, lsl #14
    3fe4:	6a010000 	bvs	43fec <__bss_end__+0x392d4>
    3fe8:	0000a014 	andeq	sl, r0, r4, lsl r0
    3fec:	0000002c 	andeq	r0, r0, ip, lsr #32
    3ff0:	02719c01 	rsbseq	r9, r1, #256	; 0x100
    3ff4:	630c0000 	movwvs	r0, #49152	; 0xc000
    3ff8:	2c6a0100 	stfcse	f0, [sl], #-0
    3ffc:	1c000000 	stcne	0, cr0, [r0], {-0}
    4000:	08000029 	stmdaeq	r0, {r0, r3, r5}
    4004:	0000a020 	andeq	sl, r0, r0, lsr #32
    4008:	00000212 	andeq	r0, r0, r2, lsl r2
    400c:	00a0380d 	adceq	r3, r0, sp, lsl #16
    4010:	0003e600 	andeq	lr, r3, r0, lsl #12
    4014:	51010a00 	tstpl	r1, r0, lsl #20
    4018:	00007402 	andeq	r7, r0, r2, lsl #8
    401c:	0a1e0b00 	beq	786c24 <__bss_end__+0x77bf0c>
    4020:	74010000 	strvc	r0, [r1], #-0
    4024:	00000025 	andeq	r0, r0, r5, lsr #32
    4028:	0000a040 	andeq	sl, r0, r0, asr #32
    402c:	0000000c 	andeq	r0, r0, ip
    4030:	02949c01 	addseq	r9, r4, #256	; 0x100
    4034:	48080000 	stmdami	r8, {}	; <UNPREDICTABLE>
    4038:	c30000a0 	movwgt	r0, #160	; 0xa0
    403c:	00000001 	andeq	r0, r0, r1
    4040:	000ac70b 	andeq	ip, sl, fp, lsl #14
    4044:	25780100 	ldrbcs	r0, [r8, #-256]!	; 0x100
    4048:	4c000000 	stcmi	0, cr0, [r0], {-0}
    404c:	200000a0 	andcs	r0, r0, r0, lsr #1
    4050:	01000000 	mrseq	r0, (UNDEF: 0)
    4054:	0002c09c 	muleq	r2, ip, r0
    4058:	a0540800 	subsge	r0, r4, r0, lsl #16
    405c:	02710000 	rsbseq	r0, r1, #0
    4060:	60080000 	andvs	r0, r8, r0
    4064:	e60000a0 	str	r0, [r0], -r0, lsr #1
    4068:	00000001 	andeq	r0, r0, r1
    406c:	000a640e 	andeq	r6, sl, lr, lsl #8
    4070:	d1160100 	tstle	r6, r0, lsl #2
    4074:	05000002 	streq	r0, [r0, #-2]
    4078:	00a48003 	adceq	r8, r4, r3
    407c:	d7040f00 	strle	r0, [r4, -r0, lsl #30]
    4080:	10000002 	andne	r0, r0, r2
    4084:	0000002c 	andeq	r0, r0, ip, lsr #32
    4088:	000a580e 	andeq	r5, sl, lr, lsl #16
    408c:	d1170100 	tstle	r7, r0, lsl #2
    4090:	05000002 	streq	r0, [r0, #-2]
    4094:	00a45003 	adceq	r5, r4, r3
    4098:	09e30e00 	stmibeq	r3!, {r9, sl, fp}^
    409c:	1a010000 	bne	440a4 <__bss_end__+0x3938c>
    40a0:	000002d1 	ldrdeq	r0, [r0], -r1
    40a4:	a46c0305 	strbtge	r0, [ip], #-773	; 0x305
    40a8:	2c0e0000 	stccs	0, cr0, [lr], {-0}
    40ac:	0100000a 	tsteq	r0, sl
    40b0:	0002d11b 	andeq	sp, r2, fp, lsl r1
    40b4:	58030500 	stmdapl	r3, {r8, sl}
    40b8:	0e0000a4 	cdpeq	0, 0, cr0, cr0, cr4, {5}
    40bc:	00000a3b 	andeq	r0, r0, fp, lsr sl
    40c0:	02d11c01 	sbcseq	r1, r1, #256	; 0x100
    40c4:	03050000 	movweq	r0, #20480	; 0x5000
    40c8:	0000a45c 	andeq	sl, r0, ip, asr r4
    40cc:	000aa90e 	andeq	sl, sl, lr, lsl #18
    40d0:	d11d0100 	tstle	sp, r0, lsl #2
    40d4:	05000002 	streq	r0, [r0, #-2]
    40d8:	00a46003 	adceq	r6, r4, r3
    40dc:	09d40e00 	ldmibeq	r4, {r9, sl, fp}^
    40e0:	1e010000 	cdpne	0, 0, cr0, cr1, cr0, {0}
    40e4:	000002d1 	ldrdeq	r0, [r0], -r1
    40e8:	a47c0305 	ldrbtge	r0, [ip], #-773	; 0x305
    40ec:	b80e0000 	stmdalt	lr, {}	; <UNPREDICTABLE>
    40f0:	0100000a 	tsteq	r0, sl
    40f4:	0002d11f 	andeq	sp, r2, pc, lsl r1
    40f8:	68030500 	stmdavs	r3, {r8, sl}
    40fc:	0e0000a4 	cdpeq	0, 0, cr0, cr0, cr4, {5}
    4100:	000009f1 	strdeq	r0, [r0], -r1
    4104:	02d12001 	sbcseq	r2, r1, #1
    4108:	03050000 	movweq	r0, #20480	; 0x5000
    410c:	0000a478 	andeq	sl, r0, r8, ror r4
    4110:	000a8c0e 	andeq	r8, sl, lr, lsl #24
    4114:	d1210100 	teqle	r1, r0, lsl #2
    4118:	05000002 	streq	r0, [r0, #-2]
    411c:	00a47403 	adceq	r7, r4, r3, lsl #8
    4120:	0a0e0e00 	beq	387928 <__bss_end__+0x37cc10>
    4124:	22010000 	andcs	r0, r1, #0
    4128:	000002d1 	ldrdeq	r0, [r0], -r1
    412c:	a4540305 	ldrbge	r0, [r4], #-773	; 0x305
    4130:	7c0e0000 	stcvc	0, cr0, [lr], {-0}
    4134:	0100000a 	tsteq	r0, sl
    4138:	0002d123 	andeq	sp, r2, r3, lsr #2
    413c:	70030500 	andvc	r0, r3, r0, lsl #10
    4140:	0e0000a4 	cdpeq	0, 0, cr0, cr0, cr4, {5}
    4144:	00000a6c 	andeq	r0, r0, ip, ror #20
    4148:	02d12401 	sbcseq	r2, r1, #16777216	; 0x1000000
    414c:	03050000 	movweq	r0, #20480	; 0x5000
    4150:	0000a464 	andeq	sl, r0, r4, ror #8
    4154:	0007b211 	andeq	fp, r7, r1, lsl r2
    4158:	128a0300 	addne	r0, sl, #0, 6
    415c:	000007dd 	ldrdeq	r0, [r0], -sp
    4160:	03c51902 	biceq	r1, r5, #32768	; 0x8000
    4164:	2c130000 	ldccs	0, cr0, [r3], {-0}
    4168:	13000000 	movwne	r0, #0
    416c:	000000b2 	strheq	r0, [r0], -r2
    4170:	085f1400 	ldmdaeq	pc, {sl, ip}^	; <UNPREDICTABLE>
    4174:	a9030000 	stmdbge	r3, {}	; <UNPREDICTABLE>
    4178:	0000002c 	andeq	r0, r0, ip, lsr #32
    417c:	000003da 	ldrdeq	r0, [r0], -sl
    4180:	0003da13 	andeq	sp, r3, r3, lsl sl
    4184:	040f0000 	streq	r0, [pc], #-0	; 418c <_start-0x3e74>
    4188:	000003e0 	andeq	r0, r0, r0, ror #7
    418c:	0003e515 	andeq	lr, r3, r5, lsl r5
    4190:	59121600 	ldmdbpl	r2, {r9, sl, ip}
    4194:	03000007 	movweq	r0, #7
    4198:	0003fc9d 	muleq	r3, sp, ip
    419c:	03fc1300 	mvnseq	r1, #0, 6
    41a0:	2c130000 	ldccs	0, cr0, [r3], {-0}
    41a4:	00000000 	andeq	r0, r0, r0
    41a8:	03e5040f 	mvneq	r0, #251658240	; 0xf000000
    41ac:	9b000000 	blls	41b4 <_start-0x3e4c>
    41b0:	04000002 	streq	r0, [r0], #-2
    41b4:	00116d00 	andseq	r6, r1, r0, lsl #26
    41b8:	a7010400 	strge	r0, [r1, -r0, lsl #8]
    41bc:	01000002 	tsteq	r0, r2
    41c0:	00000b6a 	andeq	r0, r0, sl, ror #22
    41c4:	00000424 	andeq	r0, r0, r4, lsr #8
    41c8:	0000a06c 	andeq	sl, r0, ip, rrx
    41cc:	000000ac 	andeq	r0, r0, ip, lsr #1
    41d0:	00001040 	andeq	r1, r0, r0, asr #32
    41d4:	69050402 	stmdbvs	r5, {r1, sl}
    41d8:	0300746e 	movweq	r7, #1134	; 0x46e
    41dc:	00440704 	subeq	r0, r4, r4, lsl #14
    41e0:	01030000 	mrseq	r0, (UNDEF: 3)
    41e4:	00024e06 	andeq	r4, r2, r6, lsl #28
    41e8:	05020300 	streq	r0, [r2, #-768]	; 0x300
    41ec:	00000267 	andeq	r0, r0, r7, ror #4
    41f0:	67050403 	strvs	r0, [r5, -r3, lsl #8]
    41f4:	03000000 	movweq	r0, #0
    41f8:	00620508 	rsbeq	r0, r2, r8, lsl #10
    41fc:	01030000 	mrseq	r0, (UNDEF: 3)
    4200:	00024c08 	andeq	r4, r2, r8, lsl #24
    4204:	07020300 	streq	r0, [r2, -r0, lsl #6]
    4208:	0000015b 	andeq	r0, r0, fp, asr r1
    420c:	3f070403 	svccc	0x00070403
    4210:	03000000 	movweq	r0, #0
    4214:	003a0708 	eorseq	r0, sl, r8, lsl #14
    4218:	04030000 	streq	r0, [r3], #-0
    421c:	00019207 	andeq	r9, r1, r7, lsl #4
    4220:	08010300 	stmdaeq	r1, {r8, r9}
    4224:	00000255 	andeq	r0, r0, r5, asr r2
    4228:	007f0404 	rsbseq	r0, pc, r4, lsl #8
    422c:	72050000 	andvc	r0, r5, #0
    4230:	06000000 	streq	r0, [r0], -r0
    4234:	fb140304 	blx	504e4e <__bss_end__+0x4fa136>
    4238:	07000000 	streq	r0, [r0, -r0]
    423c:	00000b8a 	andeq	r0, r0, sl, lsl #23
    4240:	8082e480 	addhi	lr, r2, r0, lsl #9
    4244:	0b150702 	bleq	545e54 <__bss_end__+0x53b13c>
    4248:	e4800000 	str	r0, [r0], #0
    424c:	07028082 	streq	r8, [r2, -r2, lsl #1]
    4250:	00000bc7 	andeq	r0, r0, r7, asr #23
    4254:	8082e484 	addhi	lr, r2, r4, lsl #9
    4258:	0ad70702 	beq	ff5c5e68 <__bss_end__+0xff5bb150>
    425c:	e4880000 	str	r0, [r8], #0
    4260:	07028082 	streq	r8, [r2, -r2, lsl #1]
    4264:	00000af8 	strdeq	r0, [r0], -r8
    4268:	8082e48c 	addhi	lr, r2, ip, lsl #9
    426c:	0b390702 	bleq	e45e7c <__bss_end__+0xe3b164>
    4270:	e4900000 	ldr	r0, [r0], #0
    4274:	07028082 	streq	r8, [r2, -r2, lsl #1]
    4278:	00000b47 	andeq	r0, r0, r7, asr #22
    427c:	8082e494 	umullhi	lr, r2, r4, r4
    4280:	0b270702 	bleq	9c5e90 <__bss_end__+0x9bb178>
    4284:	e4980000 	ldr	r0, [r8], #0
    4288:	07028082 	streq	r8, [r2, -r2, lsl #1]
    428c:	00000b93 	muleq	r0, r3, fp
    4290:	8082e49c 	umullhi	lr, r2, ip, r4
    4294:	0ba20702 	bleq	fe885ea4 <__bss_end__+0xfe87b18c>
    4298:	e4a00000 	strt	r0, [r0], #0
    429c:	07028082 	streq	r8, [r2, -r2, lsl #1]
    42a0:	00000ae5 	andeq	r0, r0, r5, ror #21
    42a4:	8082e4a4 	addhi	lr, r2, r4, lsr #9
    42a8:	ba080002 	blt	2042b8 <__bss_end__+0x1f95a0>
    42ac:	01000001 	tsteq	r0, r1
    42b0:	00a06c1b 	adceq	r6, r0, fp, lsl ip
    42b4:	00006800 	andeq	r6, r0, r0, lsl #16
    42b8:	a79c0100 	ldrge	r0, [ip, r0, lsl #2]
    42bc:	09000001 	stmdbeq	r0, {r0}
    42c0:	00000b04 	andeq	r0, r0, r4, lsl #22
    42c4:	002c2301 	eoreq	r2, ip, r1, lsl #6
    42c8:	55090000 	strpl	r0, [r9, #-0]
    42cc:	0100000b 	tsteq	r0, fp
    42d0:	00002c24 	andeq	r2, r0, r4, lsr #24
    42d4:	73640a00 	cmnvc	r4, #0, 20
    42d8:	27010074 	smlsdxcs	r1, r4, r0, r0
    42dc:	000001a7 	andeq	r0, r0, r7, lsr #3
    42e0:	72730b00 	rsbsvc	r0, r3, #0, 22
    42e4:	28010063 	stmdacs	r1, {r0, r1, r5, r6}
    42e8:	000001a7 	andeq	r0, r0, r7, lsr #3
    42ec:	01006e0c 	tsteq	r0, ip, lsl #28
    42f0:	00002c29 	andeq	r2, r0, r9, lsr #24
    42f4:	0d500100 	ldfeqe	f0, [r0, #-0]
    42f8:	0000a09c 	muleq	r0, ip, r0
    42fc:	00000024 	andeq	r0, r0, r4, lsr #32
    4300:	00000163 	andeq	r0, r0, r3, ror #2
    4304:	0100690e 	tsteq	r0, lr, lsl #18
    4308:	0000252a 	andeq	r2, r0, sl, lsr #10
    430c:	00293a00 	eoreq	r3, r9, r0, lsl #20
    4310:	7c0f0000 	stcvc	0, cr0, [pc], {-0}
    4314:	5d0000a0 	stcpl	0, cr0, [r0, #-640]	; 0xfffffd80
    4318:	80000002 	andhi	r0, r0, r2
    431c:	10000001 	andne	r0, r0, r1
    4320:	09025101 	stmdbeq	r2, {r0, r8, ip, lr}
    4324:	500110ff 	strdpl	r1, [r1], -pc	; <UNPREDICTABLE>
    4328:	b21c0c05 	andslt	r0, ip, #1280	; 0x500
    432c:	0f002000 	svceq	0x00002000
    4330:	0000a088 	andeq	sl, r0, r8, lsl #1
    4334:	0000025d 	andeq	r0, r0, sp, asr r2
    4338:	0000019d 	muleq	r0, sp, r1
    433c:	02510110 	subseq	r0, r1, #16, 2
    4340:	0110ff09 	tsteq	r0, r9, lsl #30
    4344:	200c0550 	andcs	r0, ip, r0, asr r5
    4348:	002000b2 	strhteq	r0, [r0], -r2
    434c:	00a08c11 	adceq	r8, r0, r1, lsl ip
    4350:	00027300 	andeq	r7, r2, r0, lsl #6
    4354:	04040000 	streq	r0, [r4], #-0
    4358:	0000002c 	andeq	r0, r0, ip, lsr #32
    435c:	000bb108 	andeq	fp, fp, r8, lsl #2
    4360:	d42e0100 	strtle	r0, [lr], #-256	; 0x100
    4364:	440000a0 	strmi	r0, [r0], #-160	; 0xa0
    4368:	01000000 	mrseq	r0, (UNDEF: 0)
    436c:	0002329c 	muleq	r2, ip, r2
    4370:	63701200 	cmnvs	r0, #0, 4
    4374:	2c2e0100 	stfcss	f0, [lr], #-0
    4378:	59000000 	stmdbpl	r0, {}	; <UNPREDICTABLE>
    437c:	13000029 	movwne	r0, #41	; 0x29
    4380:	0000014e 	andeq	r0, r0, lr, asr #2
    4384:	00000242 	andeq	r0, r0, r2, asr #4
    4388:	a7240305 	strge	r0, [r4, -r5, lsl #6]!
    438c:	e4110000 	ldr	r0, [r1], #-0
    4390:	7a0000a0 	bvc	4618 <_start-0x39e8>
    4394:	0f000002 	svceq	0x00000002
    4398:	0000a104 	andeq	sl, r0, r4, lsl #2
    439c:	00000281 	andeq	r0, r0, r1, lsl #5
    43a0:	00000228 	andeq	r0, r0, r8, lsr #4
    43a4:	02530110 	subseq	r0, r3, #16, 2
    43a8:	01102f08 	tsteq	r0, r8, lsl #30
    43ac:	24030552 	strcs	r0, [r3], #-1362	; 0x552
    43b0:	100000a7 	andne	r0, r0, r7, lsr #1
    43b4:	03055101 	movweq	r5, #20737	; 0x5101
    43b8:	0000a778 	andeq	sl, r0, r8, ror r7
    43bc:	05500110 	ldrbeq	r0, [r0, #-272]	; 0x110
    43c0:	00a73c03 	adceq	r3, r7, r3, lsl #24
    43c4:	7d021000 	stcvc	0, cr1, [r2, #-0]
    43c8:	00740204 	rsbseq	r0, r4, r4, lsl #4
    43cc:	007d0210 	rsbseq	r0, sp, r0, lsl r2
    43d0:	a7980305 	ldrge	r0, [r8, r5, lsl #6]
    43d4:	11000000 	mrsne	r0, (UNDEF: 0)
    43d8:	0000a108 	andeq	sl, r0, r8, lsl #2
    43dc:	00000297 	muleq	r0, r7, r2
    43e0:	00721400 	rsbseq	r1, r2, r0, lsl #8
    43e4:	02420000 	subeq	r0, r2, #0
    43e8:	6b150000 	blvs	5443f0 <__bss_end__+0x5396d8>
    43ec:	15000000 	strne	r0, [r0, #-0]
    43f0:	02320500 	eorseq	r0, r2, #0, 10
    43f4:	04090000 	streq	r0, [r9], #-0
    43f8:	0100000b 	tsteq	r0, fp
    43fc:	00002c23 	andeq	r2, r0, r3, lsr #24
    4400:	0b550900 	bleq	1546808 <__bss_end__+0x153baf0>
    4404:	24010000 	strcs	r0, [r1], #-0
    4408:	0000002c 	andeq	r0, r0, ip, lsr #32
    440c:	0006d116 	andeq	sp, r6, r6, lsl r1
    4410:	739c0200 	orrsvc	r0, ip, #0, 4
    4414:	17000002 	strne	r0, [r0, -r2]
    4418:	0000002c 	andeq	r0, r0, ip, lsr #32
    441c:	00002c17 	andeq	r2, r0, r7, lsl ip
    4420:	b2180000 	andslt	r0, r8, #0
    4424:	02000007 	andeq	r0, r0, #7
    4428:	00fb188a 	rscseq	r1, fp, sl, lsl #17
    442c:	1e020000 	cdpne	0, 0, cr0, cr2, cr0, {0}
    4430:	00041319 	andeq	r1, r4, r9, lsl r3
    4434:	25290200 	strcs	r0, [r9, #-512]!	; 0x200
    4438:	97000000 	strls	r0, [r0, -r0]
    443c:	17000002 	strne	r0, [r0, -r2]
    4440:	00000079 	andeq	r0, r0, r9, ror r0
    4444:	8518001a 	ldrhi	r0, [r8, #-26]
    4448:	02000001 	andeq	r0, r0, #1
    444c:	01c30066 	biceq	r0, r3, r6, rrx
    4450:	00040000 	andeq	r0, r4, r0
    4454:	000012c4 	andeq	r1, r0, r4, asr #5
    4458:	02a70104 	adceq	r0, r7, #4, 2
    445c:	ea010000 	b	44464 <__bss_end__+0x3974c>
    4460:	2400000b 	strcs	r0, [r0], #-11
    4464:	68000004 	stmdavs	r0, {r2}
    4468:	500000a2 	andpl	r0, r0, r2, lsr #1
    446c:	0d000000 	stceq	0, cr0, [r0, #-0]
    4470:	02000011 	andeq	r0, r0, #17
    4474:	6e690504 	cdpvs	5, 6, cr0, cr9, cr4, {0}
    4478:	d5030074 	strle	r0, [r3, #-116]	; 0x74
    447c:	0200000b 	andeq	r0, r0, #11
    4480:	000037d4 	ldrdeq	r3, [r0], -r4
    4484:	07040400 	streq	r0, [r4, -r0, lsl #8]
    4488:	00000044 	andeq	r0, r0, r4, asr #32
    448c:	4e060104 	adfmis	f0, f6, f4
    4490:	04000002 	streq	r0, [r0], #-2
    4494:	02670502 	rsbeq	r0, r7, #8388608	; 0x800000
    4498:	04040000 	streq	r0, [r4], #-0
    449c:	00006705 	andeq	r6, r0, r5, lsl #14
    44a0:	05080400 	streq	r0, [r8, #-1024]	; 0x400
    44a4:	00000062 	andeq	r0, r0, r2, rrx
    44a8:	00039403 	andeq	r9, r3, r3, lsl #8
    44ac:	652e0300 	strvs	r0, [lr, #-768]!	; 0x300
    44b0:	04000000 	streq	r0, [r0], #-0
    44b4:	024c0801 	subeq	r0, ip, #65536	; 0x10000
    44b8:	02040000 	andeq	r0, r4, #0
    44bc:	00015b07 	andeq	r5, r1, r7, lsl #22
    44c0:	06640300 	strbteq	r0, [r4], -r0, lsl #6
    44c4:	34030000 	strcc	r0, [r3], #-0
    44c8:	0000007e 	andeq	r0, r0, lr, ror r0
    44cc:	3f070404 	svccc	0x00070404
    44d0:	04000000 	streq	r0, [r0], #-0
    44d4:	003a0708 	eorseq	r0, sl, r8, lsl #14
    44d8:	04040000 	streq	r0, [r4], #-0
    44dc:	00019207 	andeq	r9, r1, r7, lsl #4
    44e0:	04040500 	streq	r0, [r4], #-1280	; 0x500
    44e4:	02550801 	subseq	r0, r5, #65536	; 0x10000
    44e8:	0c060000 	stceq	0, cr0, [r6], {-0}
    44ec:	00d30e04 	sbcseq	r0, r3, r4, lsl #28
    44f0:	74070000 	strvc	r0, [r7], #-0
    44f4:	0f040078 	svceq	0x00040078
    44f8:	0000005a 	andeq	r0, r0, sl, asr r0
    44fc:	78720700 	ldmdavc	r2!, {r8, r9, sl}^
    4500:	5a0f0400 	bpl	3c5508 <__bss_end__+0x3ba7f0>
    4504:	01000000 	mrseq	r0, (UNDEF: 0)
    4508:	0005e308 	andeq	lr, r5, r8, lsl #6
    450c:	73100400 	tstvc	r0, #0, 8
    4510:	04000000 	streq	r0, [r0], #-0
    4514:	00059408 	andeq	r9, r5, r8, lsl #8
    4518:	73110400 	tstvc	r1, #0, 8
    451c:	08000000 	stmdaeq	r0, {}	; <UNPREDICTABLE>
    4520:	05cc0300 	strbeq	r0, [ip, #768]	; 0x300
    4524:	12040000 	andne	r0, r4, #0
    4528:	0000009c 	muleq	r0, ip, r0
    452c:	10050109 	andne	r0, r5, r9, lsl #2
    4530:	000000f9 	strdeq	r0, [r0], -r9
    4534:	0005e80a 	andeq	lr, r5, sl, lsl #16
    4538:	d60a0100 	strle	r0, [sl], -r0, lsl #2
    453c:	02000005 	andeq	r0, r0, #5
    4540:	0005be0a 	andeq	fp, r5, sl, lsl #28
    4544:	03000300 	movweq	r0, #768	; 0x300
    4548:	000005fd 	strdeq	r0, [r0], -sp
    454c:	00de1005 	sbcseq	r1, lr, r5
    4550:	14060000 	strne	r0, [r6], #-0
    4554:	01311405 	teqeq	r1, r5, lsl #8
    4558:	6d080000 	stcvs	0, cr0, [r8, #-0]
    455c:	05000006 	streq	r0, [r0, #-6]
    4560:	00003715 	andeq	r3, r0, r5, lsl r7
    4564:	58080000 	stmdapl	r8, {}	; <UNPREDICTABLE>
    4568:	05000006 	streq	r0, [r0, #-6]
    456c:	0000f918 	andeq	pc, r0, r8, lsl r9	; <UNPREDICTABLE>
    4570:	23080400 	movwcs	r0, #33792	; 0x8400
    4574:	05000006 	streq	r0, [r0, #-6]
    4578:	0000d31b 	andeq	sp, r0, fp, lsl r3
    457c:	03000800 	movweq	r0, #2048	; 0x800
    4580:	00000615 	andeq	r0, r0, r5, lsl r6
    4584:	01042005 	tsteq	r4, r5
    4588:	e30b0000 	movw	r0, #45056	; 0xb000
    458c:	0100000b 	tsteq	r0, fp
    4590:	00017e05 	andeq	r7, r1, r5, lsl #28
    4594:	00a26800 	adceq	r6, r2, r0, lsl #16
    4598:	00002800 	andeq	r2, r0, r0, lsl #16
    459c:	7e9c0100 	fmlvce	f0, f4, f0
    45a0:	0c000001 	stceq	0, cr0, [r0], {1}
    45a4:	06010063 	streq	r0, [r1], -r3, rrx
    45a8:	0000017e 	andeq	r0, r0, lr, ror r1
    45ac:	09000000 	stmdbeq	r0, {}	; <UNPREDICTABLE>
    45b0:	00a27c0d 	adceq	r7, r2, sp, lsl #24
    45b4:	0001ab00 	andeq	sl, r1, r0, lsl #22
    45b8:	52010e00 	andpl	r0, r1, #0, 28
    45bc:	010e3401 	tsteq	lr, r1, lsl #8
    45c0:	0e300151 	mrceq	1, 1, r0, cr0, cr1, {2}
    45c4:	42035001 	andmi	r5, r3, #1
    45c8:	00002447 	andeq	r2, r0, r7, asr #8
    45cc:	0131040f 	teqeq	r1, pc, lsl #8
    45d0:	2b0b0000 	blcs	2c45d8 <__bss_end__+0x2b98c0>
    45d4:	01000006 	tsteq	r0, r6
    45d8:	00017e0c 	andeq	r7, r1, ip, lsl #28
    45dc:	00a29000 	adceq	r9, r2, r0
    45e0:	00002800 	andeq	r2, r0, r0, lsl #16
    45e4:	ab9c0100 	blge	fe7049ec <__bss_end__+0xfe6f9cd4>
    45e8:	0c000001 	stceq	0, cr0, [r0], {1}
    45ec:	0d010063 	stceq	0, cr0, [r1, #-396]	; 0xfffffe74
    45f0:	0000017e 	andeq	r0, r0, lr, ror r1
    45f4:	09000000 	stmdbeq	r0, {}	; <UNPREDICTABLE>
    45f8:	0bdc1000 	bleq	ff708600 <__bss_end__+0xff6fd8e8>
    45fc:	1b060000 	blne	184604 <__bss_end__+0x1798ec>
    4600:	00000093 	muleq	r0, r3, r0
    4604:	00009311 	andeq	r9, r0, r1, lsl r3
    4608:	00251100 	eoreq	r1, r5, r0, lsl #2
    460c:	2c110000 	ldccs	0, cr0, [r1], {-0}
    4610:	00000000 	andeq	r0, r0, r0
    4614:	00013e00 	andeq	r3, r1, r0, lsl #28
    4618:	a8000400 	stmdage	r0, {sl}
    461c:	04000013 	streq	r0, [r0], #-19
    4620:	0002a701 	andeq	sl, r2, r1, lsl #14
    4624:	0c050100 	stfeqs	f0, [r5], {-0}
    4628:	04240000 	strteq	r0, [r4], #-0
    462c:	a2b80000 	adcsge	r0, r8, #0
    4630:	00440000 	subeq	r0, r4, r0
    4634:	12390000 	eorsne	r0, r9, #0
    4638:	04020000 	streq	r0, [r2], #-0
    463c:	746e6905 	strbtvc	r6, [lr], #-2309	; 0x905
    4640:	07040300 	streq	r0, [r4, -r0, lsl #6]
    4644:	00000044 	andeq	r0, r0, r4, asr #32
    4648:	4e060103 	adfmis	f0, f6, f3
    464c:	03000002 	movweq	r0, #2
    4650:	02670502 	rsbeq	r0, r7, #8388608	; 0x800000
    4654:	04030000 	streq	r0, [r3], #-0
    4658:	00006705 	andeq	r6, r0, r5, lsl #14
    465c:	05080300 	streq	r0, [r8, #-768]	; 0x300
    4660:	00000062 	andeq	r0, r0, r2, rrx
    4664:	4c080103 	stfmis	f0, [r8], {3}
    4668:	03000002 	movweq	r0, #2
    466c:	015b0702 	cmpeq	fp, r2, lsl #14
    4670:	04030000 	streq	r0, [r3], #-0
    4674:	00003f07 	andeq	r3, r0, r7, lsl #30
    4678:	07080300 	streq	r0, [r8, -r0, lsl #6]
    467c:	0000003a 	andeq	r0, r0, sl, lsr r0
    4680:	92070403 	andls	r0, r7, #50331648	; 0x3000000
    4684:	03000001 	movweq	r0, #1
    4688:	02550801 	subseq	r0, r5, #65536	; 0x10000
    468c:	04040000 	streq	r0, [r4], #-0
    4690:	0000007f 	andeq	r0, r0, pc, ror r0
    4694:	00007205 	andeq	r7, r0, r5, lsl #4
    4698:	0c330600 	ldceq	6, cr0, [r3], #-0
    469c:	02010000 	andeq	r0, r1, #0
    46a0:	0000a2b8 			; <UNDEFINED> instruction: 0x0000a2b8
    46a4:	00000044 	andeq	r0, r0, r4, asr #32
    46a8:	01089c01 	tsteq	r8, r1, lsl #24
    46ac:	70070000 	andvc	r0, r7, r0
    46b0:	02010063 	andeq	r0, r1, #99	; 0x63
    46b4:	0000002c 	andeq	r0, r0, ip, lsr #32
    46b8:	00002977 	andeq	r2, r0, r7, ror r9
    46bc:	00014e08 	andeq	r4, r1, r8, lsl #28
    46c0:	00011800 	andeq	r1, r1, r0, lsl #16
    46c4:	a0030500 	andge	r0, r3, r0, lsl #10
    46c8:	090000a7 	stmdbeq	r0, {r0, r1, r2, r5, r7}
    46cc:	0000a2c8 	andeq	sl, r0, r8, asr #5
    46d0:	0000011d 	andeq	r0, r0, sp, lsl r1
    46d4:	00a2e80a 	adceq	lr, r2, sl, lsl #16
    46d8:	00012400 	andeq	r2, r1, r0, lsl #8
    46dc:	0000fe00 	andeq	pc, r0, r0, lsl #28
    46e0:	53010b00 	movwpl	r0, #6912	; 0x1b00
    46e4:	010b3201 	tsteq	fp, r1, lsl #4
    46e8:	a0030552 	andge	r0, r3, r2, asr r5
    46ec:	0b0000a7 	bleq	4990 <_start-0x3670>
    46f0:	03055101 	movweq	r5, #20737	; 0x5101
    46f4:	0000a7b4 			; <UNDEFINED> instruction: 0x0000a7b4
    46f8:	0550010b 	ldrbeq	r0, [r0, #-267]	; 0x10b
    46fc:	00a73c03 	adceq	r3, r7, r3, lsl #24
    4700:	7d020b00 	vstrvc	d0, [r2, #-0]
    4704:	00740204 	rsbseq	r0, r4, r4, lsl #4
    4708:	007d020b 	rsbseq	r0, sp, fp, lsl #4
    470c:	a7e40305 	strbge	r0, [r4, r5, lsl #6]!
    4710:	09000000 	stmdbeq	r0, {}	; <UNPREDICTABLE>
    4714:	0000a2ec 	andeq	sl, r0, ip, ror #5
    4718:	0000013a 	andeq	r0, r0, sl, lsr r1
    471c:	00720c00 	rsbseq	r0, r2, r0, lsl #24
    4720:	01180000 	tsteq	r8, r0
    4724:	6b0d0000 	blvs	34472c <__bss_end__+0x339a14>
    4728:	11000000 	mrsne	r0, (UNDEF: 0)
    472c:	01080500 	tsteq	r8, r0, lsl #10
    4730:	fb0e0000 	blx	38473a <__bss_end__+0x379a22>
    4734:	02000000 	andeq	r0, r0, #0
    4738:	04130f1e 	ldreq	r0, [r3], #-3870	; 0xf1e
    473c:	29020000 	stmdbcs	r2, {}	; <UNPREDICTABLE>
    4740:	00000025 	andeq	r0, r0, r5, lsr #32
    4744:	0000013a 	andeq	r0, r0, sl, lsr r1
    4748:	00007910 	andeq	r7, r0, r0, lsl r9
    474c:	0e001100 	adfeqs	f1, f0, f0
    4750:	00000185 	andeq	r0, r0, r5, lsl #3
    4754:	3e006602 	cfmadd32cc	mvax0, mvfx6, mvfx0, mvfx2
    4758:	04000001 	streq	r0, [r0], #-1
    475c:	00148000 	andseq	r8, r4, r0
    4760:	a7010400 	strge	r0, [r1, -r0, lsl #8]
    4764:	01000002 	tsteq	r0, r2
    4768:	00000c45 	andeq	r0, r0, r5, asr #24
    476c:	00000424 	andeq	r0, r0, r4, lsr #8
    4770:	0000a2fc 	strdeq	sl, [r0], -ip
    4774:	00000044 	andeq	r0, r0, r4, asr #32
    4778:	000012e2 	andeq	r1, r0, r2, ror #5
    477c:	69050402 	stmdbvs	r5, {r1, sl}
    4780:	0300746e 	movweq	r7, #1134	; 0x46e
    4784:	00440704 	subeq	r0, r4, r4, lsl #14
    4788:	01030000 	mrseq	r0, (UNDEF: 3)
    478c:	00024e06 	andeq	r4, r2, r6, lsl #28
    4790:	05020300 	streq	r0, [r2, #-768]	; 0x300
    4794:	00000267 	andeq	r0, r0, r7, ror #4
    4798:	67050403 	strvs	r0, [r5, -r3, lsl #8]
    479c:	03000000 	movweq	r0, #0
    47a0:	00620508 	rsbeq	r0, r2, r8, lsl #10
    47a4:	01030000 	mrseq	r0, (UNDEF: 3)
    47a8:	00024c08 	andeq	r4, r2, r8, lsl #24
    47ac:	07020300 	streq	r0, [r2, -r0, lsl #6]
    47b0:	0000015b 	andeq	r0, r0, fp, asr r1
    47b4:	3f070403 	svccc	0x00070403
    47b8:	03000000 	movweq	r0, #0
    47bc:	003a0708 	eorseq	r0, sl, r8, lsl #14
    47c0:	04030000 	streq	r0, [r3], #-0
    47c4:	00019207 	andeq	r9, r1, r7, lsl #4
    47c8:	08010300 	stmdaeq	r1, {r8, r9}
    47cc:	00000255 	andeq	r0, r0, r5, asr r2
    47d0:	007f0404 	rsbseq	r0, pc, r4, lsl #8
    47d4:	72050000 	andvc	r0, r5, #0
    47d8:	06000000 	streq	r0, [r0], -r0
    47dc:	00000c71 	andeq	r0, r0, r1, ror ip
    47e0:	a2fc0201 	rscsge	r0, ip, #268435456	; 0x10000000
    47e4:	00440000 	subeq	r0, r4, r0
    47e8:	9c010000 	stcls	0, cr0, [r1], {-0}
    47ec:	00000108 	andeq	r0, r0, r8, lsl #2
    47f0:	00637007 	rsbeq	r7, r3, r7
    47f4:	002c0201 	eoreq	r0, ip, r1, lsl #4
    47f8:	29950000 	ldmibcs	r5, {}	; <UNPREDICTABLE>
    47fc:	4e080000 	cdpmi	0, 0, cr0, cr8, cr0, {0}
    4800:	18000001 	stmdane	r0, {r0}
    4804:	05000001 	streq	r0, [r0, #-1]
    4808:	00a7f003 	adceq	pc, r7, r3
    480c:	a30c0900 	movwge	r0, #51456	; 0xc900
    4810:	011d0000 	tsteq	sp, r0
    4814:	2c0a0000 	stccs	0, cr0, [sl], {-0}
    4818:	240000a3 	strcs	r0, [r0], #-163	; 0xa3
    481c:	fe000001 	cdp2	0, 0, cr0, cr0, cr1, {0}
    4820:	0b000000 	bleq	4828 <_start-0x37d8>
    4824:	32015301 	andcc	r5, r1, #67108864	; 0x4000000
    4828:	0552010b 	ldrbeq	r0, [r2, #-267]	; 0x10b
    482c:	00a7f003 	adceq	pc, r7, r3
    4830:	51010b00 	tstpl	r1, r0, lsl #22
    4834:	a8080305 	stmdage	r8, {r0, r2, r8, r9}
    4838:	010b0000 	mrseq	r0, (UNDEF: 11)
    483c:	3c030550 	cfstr32cc	mvfx0, [r3], {80}	; 0x50
    4840:	0b0000a7 	bleq	4ae4 <_start-0x351c>
    4844:	02047d02 	andeq	r7, r4, #2, 26	; 0x80
    4848:	020b0074 	andeq	r0, fp, #116	; 0x74
    484c:	0305007d 	movweq	r0, #20605	; 0x507d
    4850:	0000a834 	andeq	sl, r0, r4, lsr r8
    4854:	a3300900 	teqge	r0, #0, 18
    4858:	013a0000 	teqeq	sl, r0
    485c:	0c000000 	stceq	0, cr0, [r0], {-0}
    4860:	00000072 	andeq	r0, r0, r2, ror r0
    4864:	00000118 	andeq	r0, r0, r8, lsl r1
    4868:	00006b0d 	andeq	r6, r0, sp, lsl #22
    486c:	05001500 	streq	r1, [r0, #-1280]	; 0x500
    4870:	00000108 	andeq	r0, r0, r8, lsl #2
    4874:	0000fb0e 	andeq	pc, r0, lr, lsl #22
    4878:	0f1e0200 	svceq	0x001e0200
    487c:	00000413 	andeq	r0, r0, r3, lsl r4
    4880:	00252902 	eoreq	r2, r5, r2, lsl #18
    4884:	013a0000 	teqeq	sl, r0
    4888:	79100000 	ldmdbvc	r0, {}	; <UNPREDICTABLE>
    488c:	11000000 	mrsne	r0, (UNDEF: 0)
    4890:	01850e00 	orreq	r0, r5, r0, lsl #28
    4894:	66020000 	strvs	r0, [r2], -r0
    4898:	00013e00 	andeq	r3, r1, r0, lsl #28
    489c:	58000400 	stmdapl	r0, {sl}
    48a0:	04000015 	streq	r0, [r0], #-21
    48a4:	0002a701 	andeq	sl, r2, r1, lsl #14
    48a8:	0c940100 	ldfeqs	f0, [r4], {0}
    48ac:	04240000 	strteq	r0, [r4], #-0
    48b0:	a3400000 	movtge	r0, #0
    48b4:	00440000 	subeq	r0, r4, r0
    48b8:	13890000 	orrne	r0, r9, #0
    48bc:	04020000 	streq	r0, [r2], #-0
    48c0:	746e6905 	strbtvc	r6, [lr], #-2309	; 0x905
    48c4:	07040300 	streq	r0, [r4, -r0, lsl #6]
    48c8:	00000044 	andeq	r0, r0, r4, asr #32
    48cc:	4e060103 	adfmis	f0, f6, f3
    48d0:	03000002 	movweq	r0, #2
    48d4:	02670502 	rsbeq	r0, r7, #8388608	; 0x800000
    48d8:	04030000 	streq	r0, [r3], #-0
    48dc:	00006705 	andeq	r6, r0, r5, lsl #14
    48e0:	05080300 	streq	r0, [r8, #-768]	; 0x300
    48e4:	00000062 	andeq	r0, r0, r2, rrx
    48e8:	4c080103 	stfmis	f0, [r8], {3}
    48ec:	03000002 	movweq	r0, #2
    48f0:	015b0702 	cmpeq	fp, r2, lsl #14
    48f4:	04030000 	streq	r0, [r3], #-0
    48f8:	00003f07 	andeq	r3, r0, r7, lsl #30
    48fc:	07080300 	streq	r0, [r8, -r0, lsl #6]
    4900:	0000003a 	andeq	r0, r0, sl, lsr r0
    4904:	92070403 	andls	r0, r7, #50331648	; 0x3000000
    4908:	03000001 	movweq	r0, #1
    490c:	02550801 	subseq	r0, r5, #65536	; 0x10000
    4910:	04040000 	streq	r0, [r4], #-0
    4914:	0000007f 	andeq	r0, r0, pc, ror r0
    4918:	00007205 	andeq	r7, r0, r5, lsl #4
    491c:	0c870600 	stceq	6, cr0, [r7], {0}
    4920:	02010000 	andeq	r0, r1, #0
    4924:	0000a340 	andeq	sl, r0, r0, asr #6
    4928:	00000044 	andeq	r0, r0, r4, asr #32
    492c:	01089c01 	tsteq	r8, r1, lsl #24
    4930:	70070000 	andvc	r0, r7, r0
    4934:	02010063 	andeq	r0, r1, #99	; 0x63
    4938:	0000002c 	andeq	r0, r0, ip, lsr #32
    493c:	000029b3 			; <UNDEFINED> instruction: 0x000029b3
    4940:	00014e08 	andeq	r4, r1, r8, lsl #28
    4944:	00011800 	andeq	r1, r1, r0, lsl #16
    4948:	44030500 	strmi	r0, [r3], #-1280	; 0x500
    494c:	090000a8 	stmdbeq	r0, {r3, r5, r7}
    4950:	0000a350 	andeq	sl, r0, r0, asr r3
    4954:	0000011d 	andeq	r0, r0, sp, lsl r1
    4958:	00a3700a 	adceq	r7, r3, sl
    495c:	00012400 	andeq	r2, r1, r0, lsl #8
    4960:	0000fe00 	andeq	pc, r0, r0, lsl #28
    4964:	53010b00 	movwpl	r0, #6912	; 0x1b00
    4968:	010b3201 	tsteq	fp, r1, lsl #4
    496c:	44030552 	strmi	r0, [r3], #-1362	; 0x552
    4970:	0b0000a8 	bleq	4c18 <_start-0x33e8>
    4974:	03055101 	movweq	r5, #20737	; 0x5101
    4978:	0000a854 	andeq	sl, r0, r4, asr r8
    497c:	0550010b 	ldrbeq	r0, [r0, #-267]	; 0x10b
    4980:	00a73c03 	adceq	r3, r7, r3, lsl #24
    4984:	7d020b00 	vstrvc	d0, [r2, #-0]
    4988:	00740204 	rsbseq	r0, r4, r4, lsl #4
    498c:	007d020b 	rsbseq	r0, sp, fp, lsl #4
    4990:	a8800305 	stmge	r0, {r0, r2, r8, r9}
    4994:	09000000 	stmdbeq	r0, {}	; <UNPREDICTABLE>
    4998:	0000a374 	andeq	sl, r0, r4, ror r3
    499c:	0000013a 	andeq	r0, r0, sl, lsr r1
    49a0:	00720c00 	rsbseq	r0, r2, r0, lsl #24
    49a4:	01180000 	tsteq	r8, r0
    49a8:	6b0d0000 	blvs	3449b0 <__bss_end__+0x339c98>
    49ac:	0c000000 	stceq	0, cr0, [r0], {-0}
    49b0:	01080500 	tsteq	r8, r0, lsl #10
    49b4:	fb0e0000 	blx	3849be <__bss_end__+0x379ca6>
    49b8:	02000000 	andeq	r0, r0, #0
    49bc:	04130f1e 	ldreq	r0, [r3], #-3870	; 0xf1e
    49c0:	29020000 	stmdbcs	r2, {}	; <UNPREDICTABLE>
    49c4:	00000025 	andeq	r0, r0, r5, lsr #32
    49c8:	0000013a 	andeq	r0, r0, sl, lsr r1
    49cc:	00007910 	andeq	r7, r0, r0, lsl r9
    49d0:	0e001100 	adfeqs	f1, f0, f0
    49d4:	00000185 	andeq	r0, r0, r5, lsl #3
    49d8:	3e006602 	cfmadd32cc	mvax0, mvfx6, mvfx0, mvfx2
    49dc:	04000001 	streq	r0, [r0], #-1
    49e0:	00163000 	andseq	r3, r6, r0
    49e4:	a7010400 	strge	r0, [r1, -r0, lsl #8]
    49e8:	01000002 	tsteq	r0, r2
    49ec:	00000cbd 			; <UNDEFINED> instruction: 0x00000cbd
    49f0:	00000424 	andeq	r0, r0, r4, lsr #8
    49f4:	0000a384 	andeq	sl, r0, r4, lsl #7
    49f8:	00000044 	andeq	r0, r0, r4, asr #32
    49fc:	0000142d 	andeq	r1, r0, sp, lsr #8
    4a00:	69050402 	stmdbvs	r5, {r1, sl}
    4a04:	0300746e 	movweq	r7, #1134	; 0x46e
    4a08:	00440704 	subeq	r0, r4, r4, lsl #14
    4a0c:	01030000 	mrseq	r0, (UNDEF: 3)
    4a10:	00024e06 	andeq	r4, r2, r6, lsl #28
    4a14:	05020300 	streq	r0, [r2, #-768]	; 0x300
    4a18:	00000267 	andeq	r0, r0, r7, ror #4
    4a1c:	67050403 	strvs	r0, [r5, -r3, lsl #8]
    4a20:	03000000 	movweq	r0, #0
    4a24:	00620508 	rsbeq	r0, r2, r8, lsl #10
    4a28:	01030000 	mrseq	r0, (UNDEF: 3)
    4a2c:	00024c08 	andeq	r4, r2, r8, lsl #24
    4a30:	07020300 	streq	r0, [r2, -r0, lsl #6]
    4a34:	0000015b 	andeq	r0, r0, fp, asr r1
    4a38:	3f070403 	svccc	0x00070403
    4a3c:	03000000 	movweq	r0, #0
    4a40:	003a0708 	eorseq	r0, sl, r8, lsl #14
    4a44:	04030000 	streq	r0, [r3], #-0
    4a48:	00019207 	andeq	r9, r1, r7, lsl #4
    4a4c:	08010300 	stmdaeq	r1, {r8, r9}
    4a50:	00000255 	andeq	r0, r0, r5, asr r2
    4a54:	007f0404 	rsbseq	r0, pc, r4, lsl #8
    4a58:	72050000 	andvc	r0, r5, #0
    4a5c:	06000000 	streq	r0, [r0], -r0
    4a60:	00000cef 	andeq	r0, r0, pc, ror #25
    4a64:	a3840201 	orrge	r0, r4, #268435456	; 0x10000000
    4a68:	00440000 	subeq	r0, r4, r0
    4a6c:	9c010000 	stcls	0, cr0, [r1], {-0}
    4a70:	00000108 	andeq	r0, r0, r8, lsl #2
    4a74:	00637007 	rsbeq	r7, r3, r7
    4a78:	002c0201 	eoreq	r0, ip, r1, lsl #4
    4a7c:	29d10000 	ldmibcs	r1, {}^	; <UNPREDICTABLE>
    4a80:	4e080000 	cdpmi	0, 0, cr0, cr8, cr0, {0}
    4a84:	18000001 	stmdane	r0, {r0}
    4a88:	05000001 	streq	r0, [r0, #-1]
    4a8c:	00a88803 	adceq	r8, r8, r3, lsl #16
    4a90:	a3940900 	orrsge	r0, r4, #0, 18
    4a94:	011d0000 	tsteq	sp, r0
    4a98:	b40a0000 	strlt	r0, [sl], #-0
    4a9c:	240000a3 	strcs	r0, [r0], #-163	; 0xa3
    4aa0:	fe000001 	cdp2	0, 0, cr0, cr0, cr1, {0}
    4aa4:	0b000000 	bleq	4aac <_start-0x3554>
    4aa8:	32015301 	andcc	r5, r1, #67108864	; 0x4000000
    4aac:	0552010b 	ldrbeq	r0, [r2, #-267]	; 0x10b
    4ab0:	00a88803 	adceq	r8, r8, r3, lsl #16
    4ab4:	51010b00 	tstpl	r1, r0, lsl #22
    4ab8:	a8a80305 	stmiage	r8!, {r0, r2, r8, r9}
    4abc:	010b0000 	mrseq	r0, (UNDEF: 11)
    4ac0:	3c030550 	cfstr32cc	mvfx0, [r3], {80}	; 0x50
    4ac4:	0b0000a7 	bleq	4d68 <_start-0x3298>
    4ac8:	02047d02 	andeq	r7, r4, #2, 26	; 0x80
    4acc:	020b0074 	andeq	r0, fp, #116	; 0x74
    4ad0:	0305007d 	movweq	r0, #20605	; 0x507d
    4ad4:	0000a8dc 	ldrdeq	sl, [r0], -ip
    4ad8:	a3b80900 			; <UNDEFINED> instruction: 0xa3b80900
    4adc:	013a0000 	teqeq	sl, r0
    4ae0:	0c000000 	stceq	0, cr0, [r0], {-0}
    4ae4:	00000072 	andeq	r0, r0, r2, ror r0
    4ae8:	00000118 	andeq	r0, r0, r8, lsl r1
    4aec:	00006b0d 	andeq	r6, r0, sp, lsl #22
    4af0:	05001c00 	streq	r1, [r0, #-3072]	; 0xc00
    4af4:	00000108 	andeq	r0, r0, r8, lsl #2
    4af8:	0000fb0e 	andeq	pc, r0, lr, lsl #22
    4afc:	0f1e0200 	svceq	0x001e0200
    4b00:	00000413 	andeq	r0, r0, r3, lsl r4
    4b04:	00252902 	eoreq	r2, r5, r2, lsl #18
    4b08:	013a0000 	teqeq	sl, r0
    4b0c:	79100000 	ldmdbvc	r0, {}	; <UNPREDICTABLE>
    4b10:	11000000 	mrsne	r0, (UNDEF: 0)
    4b14:	01850e00 	orreq	r0, r5, r0, lsl #28
    4b18:	66020000 	strvs	r0, [r2], -r0
    4b1c:	0000db00 	andeq	sp, r0, r0, lsl #22
    4b20:	08000400 	stmdaeq	r0, {sl}
    4b24:	04000017 	streq	r0, [r0], #-23
    4b28:	0002a701 	andeq	sl, r2, r1, lsl #14
    4b2c:	0d0c0100 	stfeqs	f0, [ip, #-0]
    4b30:	04240000 	strteq	r0, [r4], #-0
    4b34:	a3c80000 	bicge	r0, r8, #0
    4b38:	00200000 	eoreq	r0, r0, r0
    4b3c:	14da0000 	ldrbne	r0, [sl], #0
    4b40:	01020000 	mrseq	r0, (UNDEF: 2)
    4b44:	00024e06 	andeq	r4, r2, r6, lsl #28
    4b48:	08010200 	stmdaeq	r1, {r9}
    4b4c:	0000024c 	andeq	r0, r0, ip, asr #4
    4b50:	67050202 	strvs	r0, [r5, -r2, lsl #4]
    4b54:	02000002 	andeq	r0, r0, #2
    4b58:	015b0702 	cmpeq	fp, r2, lsl #14
    4b5c:	04030000 	streq	r0, [r3], #-0
    4b60:	746e6905 	strbtvc	r6, [lr], #-2309	; 0x905
    4b64:	07040200 	streq	r0, [r4, -r0, lsl #4]
    4b68:	00000044 	andeq	r0, r0, r4, asr #32
    4b6c:	62050802 	andvs	r0, r5, #131072	; 0x20000
    4b70:	02000000 	andeq	r0, r0, #0
    4b74:	003a0708 	eorseq	r0, sl, r8, lsl #14
    4b78:	04020000 	streq	r0, [r2], #-0
    4b7c:	00006705 	andeq	r6, r0, r5, lsl #14
    4b80:	07040200 	streq	r0, [r4, -r0, lsl #4]
    4b84:	00000192 	muleq	r0, r2, r1
    4b88:	04020404 	streq	r0, [r2], #-1028	; 0x404
    4b8c:	00003f07 	andeq	r3, r0, r7, lsl #30
    4b90:	7a040500 	bvc	105f98 <__bss_end__+0xfb280>
    4b94:	02000000 	andeq	r0, r0, #0
    4b98:	02550801 	subseq	r0, r5, #65536	; 0x10000
    4b9c:	d5060000 	strle	r0, [r6, #-0]
    4ba0:	0200000b 	andeq	r0, r0, #11
    4ba4:	000048d4 	ldrdeq	r4, [r0], -r4	; <UNPREDICTABLE>
    4ba8:	0bdc0700 	bleq	ff7067b0 <__bss_end__+0xff6fba98>
    4bac:	1b030000 	blne	c4bb4 <__bss_end__+0xb9e9c>
    4bb0:	0000006b 	andeq	r0, r0, fp, rrx
    4bb4:	0000a3c8 	andeq	sl, r0, r8, asr #7
    4bb8:	00000020 	andeq	r0, r0, r0, lsr #32
    4bbc:	5f089c01 	svcpl	0x00089c01
    4bc0:	03010070 	movweq	r0, #4208	; 0x1070
    4bc4:	0000006b 	andeq	r0, r0, fp, rrx
    4bc8:	63085001 	movwvs	r5, #32769	; 0x8001
    4bcc:	41030100 	mrsmi	r0, (UNDEF: 19)
    4bd0:	01000000 	mrseq	r0, (UNDEF: 0)
    4bd4:	006e0951 	rsbeq	r0, lr, r1, asr r9
    4bd8:	00810301 	addeq	r0, r1, r1, lsl #6
    4bdc:	29ef0000 	stmibcs	pc!, {}^	; <UNPREDICTABLE>
    4be0:	700a0000 	andvc	r0, sl, r0
    4be4:	74040100 	strvc	r0, [r4], #-256	; 0x100
    4be8:	10000000 	andne	r0, r0, r0
    4bec:	0b00002a 	bleq	4c9c <_start-0x3364>
    4bf0:	04010065 	streq	r0, [r1], #-101	; 0x65
    4bf4:	00000074 	andeq	r0, r0, r4, ror r0
    4bf8:	00005201 	andeq	r5, r0, r1, lsl #4

Disassembly of section .debug_abbrev:

00000000 <.debug_abbrev>:
       0:	25011101 	strcs	r1, [r1, #-257]	; 0x101
       4:	030b130e 	movweq	r1, #45838	; 0xb30e
       8:	110e1b0e 	tstne	lr, lr, lsl #22
       c:	10061201 	andne	r1, r6, r1, lsl #4
      10:	02000017 	andeq	r0, r0, #23
      14:	0b0b0024 	bleq	2c00ac <__bss_end__+0x2b5394>
      18:	08030b3e 	stmdaeq	r3, {r1, r2, r3, r4, r5, r8, r9, fp}
      1c:	24030000 	strcs	r0, [r3], #-0
      20:	3e0b0b00 	vmlacc.f64	d0, d11, d0
      24:	000e030b 	andeq	r0, lr, fp, lsl #6
      28:	00160400 	andseq	r0, r6, r0, lsl #8
      2c:	0b3a0e03 	bleq	e83840 <__bss_end__+0xe78b28>
      30:	13490b3b 	movtne	r0, #39739	; 0x9b3b
      34:	0f050000 	svceq	0x00050000
      38:	490b0b00 	stmdbmi	fp, {r8, r9, fp}
      3c:	06000013 			; <UNDEFINED> instruction: 0x06000013
      40:	13490026 	movtne	r0, #36902	; 0x9026
      44:	04070000 	streq	r0, [r7], #-0
      48:	3a0b0b01 	bcc	2c2c54 <__bss_end__+0x2b7f3c>
      4c:	010b3b0b 	tsteq	fp, fp, lsl #22
      50:	08000013 	stmdaeq	r0, {r0, r1, r4}
      54:	0e030028 	cdpeq	0, 0, cr0, cr3, cr8, {1}
      58:	00000d1c 	andeq	r0, r0, ip, lsl sp
      5c:	49003509 	stmdbmi	r0, {r0, r3, r8, sl, ip, sp}
      60:	0a000013 	beq	b4 <_start-0x7f4c>
      64:	0e03012e 	adfeqsp	f0, f3, #0.5
      68:	0b3b0b3a 	bleq	ec2d58 <__bss_end__+0xeb8040>
      6c:	0b201927 	bleq	806510 <__bss_end__+0x7fb7f8>
      70:	00001301 	andeq	r1, r0, r1, lsl #6
      74:	0300050b 	movweq	r0, #1291	; 0x50b
      78:	3b0b3a08 	blcc	2ce8a0 <__bss_end__+0x2c3b88>
      7c:	0013490b 	andseq	r4, r3, fp, lsl #18
      80:	012e0c00 	teqeq	lr, r0, lsl #24
      84:	0e03193f 	mcreq	9, 0, r1, cr3, cr15, {1}
      88:	0b3b0b3a 	bleq	ec2d78 <__bss_end__+0xeb8060>
      8c:	13491927 	movtne	r1, #39207	; 0x9927
      90:	06120111 			; <UNDEFINED> instruction: 0x06120111
      94:	42971840 	addsmi	r1, r7, #64, 16	; 0x400000
      98:	00130119 	andseq	r0, r3, r9, lsl r1
      9c:	00050d00 	andeq	r0, r5, r0, lsl #26
      a0:	0b3a0803 	bleq	e820b4 <__bss_end__+0xe7739c>
      a4:	13490b3b 	movtne	r0, #39739	; 0x9b3b
      a8:	00001702 	andeq	r1, r0, r2, lsl #14
      ac:	0300340e 	movweq	r3, #1038	; 0x40e
      b0:	3413490e 	ldrcc	r4, [r3], #-2318	; 0x90e
      b4:	00180219 	andseq	r0, r8, r9, lsl r2
      b8:	00340f00 	eorseq	r0, r4, r0, lsl #30
      bc:	0b3a0e03 	bleq	e838d0 <__bss_end__+0xe78bb8>
      c0:	13490b3b 	movtne	r0, #39739	; 0x9b3b
      c4:	34100000 	ldrcc	r0, [r0], #-0
      c8:	3a0e0300 	bcc	380cd0 <__bss_end__+0x375fb8>
      cc:	490b3b0b 	stmdbmi	fp, {r0, r1, r3, r8, r9, fp, ip, sp}
      d0:	00170213 	andseq	r0, r7, r3, lsl r2
      d4:	010b1100 	mrseq	r1, (UNDEF: 27)
      d8:	06120111 			; <UNDEFINED> instruction: 0x06120111
      dc:	00001301 	andeq	r1, r0, r1, lsl #6
      e0:	01828912 	orreq	r8, r2, r2, lsl r9
      e4:	31011100 	mrscc	r1, (UNDEF: 17)
      e8:	13000013 	movwne	r0, #19
      ec:	01018289 	smlabbeq	r1, r9, r2, r8
      f0:	13310111 	teqne	r1, #1073741828	; 0x40000004
      f4:	00001301 	andeq	r1, r0, r1, lsl #6
      f8:	01828a14 	orreq	r8, r2, r4, lsl sl
      fc:	91180200 	tstls	r8, r0, lsl #4
     100:	00001842 	andeq	r1, r0, r2, asr #16
     104:	01828915 	orreq	r8, r2, r5, lsl r9
     108:	31011101 	tstcc	r1, r1, lsl #2
     10c:	16000013 			; <UNDEFINED> instruction: 0x16000013
     110:	13490101 	movtne	r0, #37121	; 0x9101
     114:	00001301 	andeq	r1, r0, r1, lsl #6
     118:	49002117 	stmdbmi	r0, {r0, r1, r2, r4, r8, sp}
     11c:	000b2f13 	andeq	r2, fp, r3, lsl pc
     120:	012e1800 	teqeq	lr, r0, lsl #16
     124:	0e03193f 	mcreq	9, 0, r1, cr3, cr15, {1}
     128:	0b3b0b3a 	bleq	ec2e18 <__bss_end__+0xeb8100>
     12c:	01111927 	tsteq	r1, r7, lsr #18
     130:	18400612 	stmdane	r0, {r1, r4, r9, sl}^
     134:	01194297 			; <UNDEFINED> instruction: 0x01194297
     138:	19000013 	stmdbne	r0, {r0, r1, r4}
     13c:	0e030005 	cdpeq	0, 0, cr0, cr3, cr5, {0}
     140:	0b3b0b3a 	bleq	ec2e30 <__bss_end__+0xeb8118>
     144:	17021349 	strne	r1, [r2, -r9, asr #6]
     148:	341a0000 	ldrcc	r0, [sl], #-0
     14c:	3a080300 	bcc	200d54 <__bss_end__+0x1f603c>
     150:	490b3b0b 	stmdbmi	fp, {r0, r1, r3, r8, r9, fp, ip, sp}
     154:	000b1c13 	andeq	r1, fp, r3, lsl ip
     158:	00341b00 	eorseq	r1, r4, r0, lsl #22
     15c:	0b3a0e03 	bleq	e83970 <__bss_end__+0xe78c58>
     160:	13490b3b 	movtne	r0, #39739	; 0x9b3b
     164:	00001802 	andeq	r1, r0, r2, lsl #16
     168:	31011d1c 	tstcc	r1, ip, lsl sp
     16c:	12011113 	andne	r1, r1, #-1073741820	; 0xc0000004
     170:	590b5806 	stmdbpl	fp, {r1, r2, fp, ip, lr}
     174:	0013010b 	andseq	r0, r3, fp, lsl #2
     178:	00051d00 	andeq	r1, r5, r0, lsl #26
     17c:	17021331 	smladxne	r2, r1, r3, r1
     180:	051e0000 	ldreq	r0, [lr, #-0]
     184:	02133100 	andseq	r3, r3, #0, 2
     188:	1f000018 	svcne	0x00000018
     18c:	1331011d 	teqne	r1, #1073741831	; 0x40000007
     190:	06120111 			; <UNDEFINED> instruction: 0x06120111
     194:	0b590b58 	bleq	1642efc <__bss_end__+0x16381e4>
     198:	0b200000 	bleq	8001a0 <__bss_end__+0x7f5488>
     19c:	12011101 	andne	r1, r1, #1073741824	; 0x40000000
     1a0:	21000006 	tstcs	r0, r6
     1a4:	0e03012e 	adfeqsp	f0, f3, #0.5
     1a8:	0b3b0b3a 	bleq	ec2e98 <__bss_end__+0xeb8180>
     1ac:	01111927 	tsteq	r1, r7, lsr #18
     1b0:	18400612 	stmdane	r0, {r1, r4, r9, sl}^
     1b4:	01194297 			; <UNDEFINED> instruction: 0x01194297
     1b8:	22000013 	andcs	r0, r0, #19
     1bc:	0e03012e 	adfeqsp	f0, f3, #0.5
     1c0:	0b3b0b3a 	bleq	ec2eb0 <__bss_end__+0xeb8198>
     1c4:	13491927 	movtne	r1, #39207	; 0x9927
     1c8:	13010b20 	movwne	r0, #6944	; 0x1b20
     1cc:	34230000 	strtcc	r0, [r3], #-0
     1d0:	3a080300 	bcc	200dd8 <__bss_end__+0x1f60c0>
     1d4:	490b3b0b 	stmdbmi	fp, {r0, r1, r3, r8, r9, fp, ip, sp}
     1d8:	24000013 	strcs	r0, [r0], #-19
     1dc:	1301010b 	movwne	r0, #4363	; 0x110b
     1e0:	0b250000 	bleq	9401e8 <__bss_end__+0x9354d0>
     1e4:	26000001 	strcs	r0, [r0], -r1
     1e8:	13310005 	teqne	r1, #5
     1ec:	00000b1c 	andeq	r0, r0, ip, lsl fp
     1f0:	31003427 	tstcc	r0, r7, lsr #8
     1f4:	00170213 	andseq	r0, r7, r3, lsl r2
     1f8:	00342800 	eorseq	r2, r4, r0, lsl #16
     1fc:	0b1c1331 	bleq	704ec8 <__bss_end__+0x6fa1b0>
     200:	34290000 	strtcc	r0, [r9], #-0
     204:	3a0e0300 	bcc	380e0c <__bss_end__+0x3760f4>
     208:	490b3b0b 	stmdbmi	fp, {r0, r1, r3, r8, r9, fp, ip, sp}
     20c:	00061c13 	andeq	r1, r6, r3, lsl ip
     210:	00342a00 	eorseq	r2, r4, r0, lsl #20
     214:	0b3a0e03 	bleq	e83a28 <__bss_end__+0xe78d10>
     218:	13490b3b 	movtne	r0, #39739	; 0x9b3b
     21c:	1802193f 	stmdane	r2, {r0, r1, r2, r3, r4, r5, r8, fp, ip}
     220:	2e2b0000 	cdpcs	0, 2, cr0, cr11, cr0, {0}
     224:	03193f00 	tsteq	r9, #0, 30
     228:	3b0b3a0e 	blcc	2cea68 <__bss_end__+0x2c3d50>
     22c:	3c19270b 	ldccc	7, cr2, [r9], {11}
     230:	2c000019 	stccs	0, cr0, [r0], {25}
     234:	193f012e 	ldmdbne	pc!, {r1, r2, r3, r5, r8}	; <UNPREDICTABLE>
     238:	0b3a0e03 	bleq	e83a4c <__bss_end__+0xe78d34>
     23c:	19270b3b 	stmdbne	r7!, {r0, r1, r3, r4, r5, r8, r9, fp}
     240:	193c1349 	ldmdbne	ip!, {r0, r3, r6, r8, r9, ip}
     244:	00001301 	andeq	r1, r0, r1, lsl #6
     248:	4900052d 	stmdbmi	r0, {r0, r2, r3, r5, r8, sl}
     24c:	2e000013 	mcrcs	0, 0, r0, cr0, cr3, {0}
     250:	00000018 	andeq	r0, r0, r8, lsl r0
     254:	3f012e2f 	svccc	0x00012e2f
     258:	3a0e0319 	bcc	380ec4 <__bss_end__+0x3761ac>
     25c:	270b3b0b 	strcs	r3, [fp, -fp, lsl #22]
     260:	01193c19 	tsteq	r9, r9, lsl ip
     264:	00000013 	andeq	r0, r0, r3, lsl r0
     268:	25011101 	strcs	r1, [r1, #-257]	; 0x101
     26c:	030b130e 	movweq	r1, #45838	; 0xb30e
     270:	110e1b0e 	tstne	lr, lr, lsl #22
     274:	10061201 	andne	r1, r6, r1, lsl #4
     278:	02000017 	andeq	r0, r0, #23
     27c:	0e030016 	mcreq	0, 0, r0, cr3, cr6, {0}
     280:	0b3b0b3a 	bleq	ec2f70 <__bss_end__+0xeb8258>
     284:	00001349 	andeq	r1, r0, r9, asr #6
     288:	03011303 	movweq	r1, #4867	; 0x1303
     28c:	3a0b0b0e 	bcc	2c2ecc <__bss_end__+0x2b81b4>
     290:	010b3b0b 	tsteq	fp, fp, lsl #22
     294:	04000013 	streq	r0, [r0], #-19
     298:	0e03000d 	cdpeq	0, 0, cr0, cr3, cr13, {0}
     29c:	0b381349 	bleq	e04fc8 <__bss_end__+0xdfa2b0>
     2a0:	00001934 	andeq	r1, r0, r4, lsr r9
     2a4:	0b000f05 	bleq	3ec0 <_start-0x4140>
     2a8:	0600000b 	streq	r0, [r0], -fp
     2ac:	0b0b0024 	bleq	2c0344 <__bss_end__+0x2b562c>
     2b0:	08030b3e 	stmdaeq	r3, {r1, r2, r3, r4, r5, r8, r9, fp}
     2b4:	24070000 	strcs	r0, [r7], #-0
     2b8:	3e0b0b00 	vmlacc.f64	d0, d11, d0
     2bc:	000e030b 	andeq	r0, lr, fp, lsl #6
     2c0:	000f0800 	andeq	r0, pc, r0, lsl #16
     2c4:	13490b0b 	movtne	r0, #39691	; 0x9b0b
     2c8:	26090000 	strcs	r0, [r9], -r0
     2cc:	00134900 	andseq	r4, r3, r0, lsl #18
     2d0:	012e0a00 	teqeq	lr, r0, lsl #20
     2d4:	0e03193f 	mcreq	9, 0, r1, cr3, cr15, {1}
     2d8:	0b3b0b3a 	bleq	ec2fc8 <__bss_end__+0xeb82b0>
     2dc:	13491927 	movtne	r1, #39207	; 0x9927
     2e0:	06120111 			; <UNDEFINED> instruction: 0x06120111
     2e4:	42971840 	addsmi	r1, r7, #64, 16	; 0x400000
     2e8:	00130119 	andseq	r0, r3, r9, lsl r1
     2ec:	00050b00 	andeq	r0, r5, r0, lsl #22
     2f0:	0b3a0803 	bleq	e82304 <__bss_end__+0xe775ec>
     2f4:	13490b3b 	movtne	r0, #39739	; 0x9b3b
     2f8:	00001802 	andeq	r1, r0, r2, lsl #16
     2fc:	0000180c 	andeq	r1, r0, ip, lsl #16
     300:	00340d00 	eorseq	r0, r4, r0, lsl #26
     304:	0b3a0803 	bleq	e82318 <__bss_end__+0xe77600>
     308:	13490b3b 	movtne	r0, #39739	; 0x9b3b
     30c:	00001802 	andeq	r1, r0, r2, lsl #16
     310:	0300340e 	movweq	r3, #1038	; 0x40e
     314:	3b0b3a0e 	blcc	2ceb54 <__bss_end__+0x2c3e3c>
     318:	0213490b 	andseq	r4, r3, #180224	; 0x2c000
     31c:	0f000018 	svceq	0x00000018
     320:	08030034 	stmdaeq	r3, {r2, r4, r5}
     324:	0b3b0b3a 	bleq	ec3014 <__bss_end__+0xeb82fc>
     328:	17021349 	strne	r1, [r2, -r9, asr #6]
     32c:	89100000 	ldmdbhi	r0, {}	; <UNPREDICTABLE>
     330:	11010182 	smlabbne	r1, r2, r1, r0
     334:	01133101 	tsteq	r3, r1, lsl #2
     338:	11000013 	tstne	r0, r3, lsl r0
     33c:	0001828a 	andeq	r8, r1, sl, lsl #5
     340:	42911802 	addsmi	r1, r1, #131072	; 0x20000
     344:	12000018 	andne	r0, r0, #24
     348:	01018289 	smlabbeq	r1, r9, r2, r8
     34c:	00000111 	andeq	r0, r0, r1, lsl r1
     350:	49010113 	stmdbmi	r1, {r0, r1, r4, r8}
     354:	00130113 	andseq	r0, r3, r3, lsl r1
     358:	00211400 	eoreq	r1, r1, r0, lsl #8
     35c:	052f1349 	streq	r1, [pc, #-841]!	; 1b <_start-0x7fe5>
     360:	15150000 	ldrne	r0, [r5, #-0]
     364:	49192701 	ldmdbmi	r9, {r0, r8, r9, sl, sp}
     368:	00130113 	andseq	r0, r3, r3, lsl r1
     36c:	00051600 	andeq	r1, r5, r0, lsl #12
     370:	00001349 	andeq	r1, r0, r9, asr #6
     374:	03003417 	movweq	r3, #1047	; 0x417
     378:	3b0b3a0e 	blcc	2cebb8 <__bss_end__+0x2c3ea0>
     37c:	3f13490b 	svccc	0x0013490b
     380:	00193c19 	andseq	r3, r9, r9, lsl ip
     384:	012e1800 	teqeq	lr, r0, lsl #16
     388:	0e03193f 	mcreq	9, 0, r1, cr3, cr15, {1}
     38c:	0b3b0b3a 	bleq	ec307c <__bss_end__+0xeb8364>
     390:	13491927 	movtne	r1, #39207	; 0x9927
     394:	0000193c 	andeq	r1, r0, ip, lsr r9
     398:	01110100 	tsteq	r1, r0, lsl #2
     39c:	0b130e25 	bleq	4c3c38 <__bss_end__+0x4b8f20>
     3a0:	0e1b0e03 	cdpeq	14, 1, cr0, cr11, cr3, {0}
     3a4:	06120111 			; <UNDEFINED> instruction: 0x06120111
     3a8:	00001710 	andeq	r1, r0, r0, lsl r7
     3ac:	0b002402 	bleq	93bc <gpio_set_output+0xac>
     3b0:	030b3e0b 	movweq	r3, #48651	; 0xbe0b
     3b4:	03000008 	movweq	r0, #8
     3b8:	0b0b0024 	bleq	2c0450 <__bss_end__+0x2b5738>
     3bc:	0e030b3e 	vmoveq.16	d3[0], r0
     3c0:	2e040000 	cdpcs	0, 0, cr0, cr4, cr0, {0}
     3c4:	3a0e0301 	bcc	380fd0 <__bss_end__+0x3762b8>
     3c8:	270b3b0b 	strcs	r3, [fp, -fp, lsl #22]
     3cc:	11134919 	tstne	r3, r9, lsl r9
     3d0:	40061201 	andmi	r1, r6, r1, lsl #4
     3d4:	19429718 	stmdbne	r2, {r3, r4, r8, r9, sl, ip, pc}^
     3d8:	00001301 	andeq	r1, r0, r1, lsl #6
     3dc:	03000505 	movweq	r0, #1285	; 0x505
     3e0:	3b0b3a08 	blcc	2cec08 <__bss_end__+0x2c3ef0>
     3e4:	0213490b 	andseq	r4, r3, #180224	; 0x2c000
     3e8:	06000017 			; <UNDEFINED> instruction: 0x06000017
     3ec:	01018289 	smlabbeq	r1, r9, r2, r8
     3f0:	13310111 	teqne	r1, #1073741828	; 0x40000004
     3f4:	8a070000 	bhi	1c03fc <__bss_end__+0x1b56e4>
     3f8:	02000182 	andeq	r0, r0, #-2147483616	; 0x80000020
     3fc:	18429118 	stmdane	r2, {r3, r4, r8, ip, pc}^
     400:	2e080000 	cdpcs	0, 0, cr0, cr8, cr0, {0}
     404:	03193f00 	tsteq	r9, #0, 30
     408:	3b0b3a0e 	blcc	2cec48 <__bss_end__+0x2c3f30>
     40c:	1119270b 	tstne	r9, fp, lsl #14
     410:	40061201 	andmi	r1, r6, r1, lsl #4
     414:	19429718 	stmdbne	r2, {r3, r4, r8, r9, sl, ip, pc}^
     418:	2e090000 	cdpcs	0, 0, cr0, cr9, cr0, {0}
     41c:	03193f01 	tsteq	r9, #1, 30
     420:	3b0b3a0e 	blcc	2cec60 <__bss_end__+0x2c3f48>
     424:	1119270b 	tstne	r9, fp, lsl #14
     428:	40061201 	andmi	r1, r6, r1, lsl #4
     42c:	19429718 	stmdbne	r2, {r3, r4, r8, r9, sl, ip, pc}^
     430:	00001301 	andeq	r1, r0, r1, lsl #6
     434:	0300050a 	movweq	r0, #1290	; 0x50a
     438:	3b0b3a08 	blcc	2cec60 <__bss_end__+0x2c3f48>
     43c:	0213490b 	andseq	r4, r3, #180224	; 0x2c000
     440:	0b000018 	bleq	4a8 <_start-0x7b58>
     444:	19270115 	stmdbne	r7!, {r0, r2, r4, r8}
     448:	13011349 	movwne	r1, #4937	; 0x1349
     44c:	050c0000 	streq	r0, [ip, #-0]
     450:	00134900 	andseq	r4, r3, r0, lsl #18
     454:	000f0d00 	andeq	r0, pc, r0, lsl #26
     458:	13490b0b 	movtne	r0, #39691	; 0x9b0b
     45c:	340e0000 	strcc	r0, [lr], #-0
     460:	3a0e0300 	bcc	381068 <__bss_end__+0x376350>
     464:	490b3b0b 	stmdbmi	fp, {r0, r1, r3, r8, r9, fp, ip, sp}
     468:	02193f13 	andseq	r3, r9, #19, 30	; 0x4c
     46c:	0f000018 	svceq	0x00000018
     470:	193f012e 	ldmdbne	pc!, {r1, r2, r3, r5, r8}	; <UNPREDICTABLE>
     474:	0b3a0e03 	bleq	e83c88 <__bss_end__+0xe78f70>
     478:	19270b3b 	stmdbne	r7!, {r0, r1, r3, r4, r5, r8, r9, fp}
     47c:	0000193c 	andeq	r1, r0, ip, lsr r9
     480:	01110100 	tsteq	r1, r0, lsl #2
     484:	0b130e25 	bleq	4c3d20 <__bss_end__+0x4b9008>
     488:	0e1b0e03 	cdpeq	14, 1, cr0, cr11, cr3, {0}
     48c:	06120111 			; <UNDEFINED> instruction: 0x06120111
     490:	00001710 	andeq	r1, r0, r0, lsl r7
     494:	0b002402 	bleq	94a4 <gpio_set_input+0x50>
     498:	030b3e0b 	movweq	r3, #48651	; 0xbe0b
     49c:	03000008 	movweq	r0, #8
     4a0:	0b0b0024 	bleq	2c0538 <__bss_end__+0x2b5820>
     4a4:	0e030b3e 	vmoveq.16	d3[0], r0
     4a8:	0f040000 	svceq	0x00040000
     4ac:	490b0b00 	stmdbmi	fp, {r8, r9, fp}
     4b0:	05000013 	streq	r0, [r0, #-19]
     4b4:	13490026 	movtne	r0, #36902	; 0x9026
     4b8:	2e060000 	cdpcs	0, 0, cr0, cr6, cr0, {0}
     4bc:	03193f01 	tsteq	r9, #1, 30
     4c0:	3b0b3a0e 	blcc	2ced00 <__bss_end__+0x2c3fe8>
     4c4:	4919270b 	ldmdbmi	r9, {r0, r1, r3, r8, r9, sl, sp}
     4c8:	12011113 	andne	r1, r1, #-1073741820	; 0xc0000004
     4cc:	96184006 	ldrls	r4, [r8], -r6
     4d0:	13011942 	movwne	r1, #6466	; 0x1942
     4d4:	05070000 	streq	r0, [r7, #-0]
     4d8:	3a080300 	bcc	2010e0 <__bss_end__+0x1f63c8>
     4dc:	490b3b0b 	stmdbmi	fp, {r0, r1, r3, r8, r9, fp, ip, sp}
     4e0:	00170213 	andseq	r0, r7, r3, lsl r2
     4e4:	01150800 	tsteq	r5, r0, lsl #16
     4e8:	13491927 	movtne	r1, #39207	; 0x9927
     4ec:	00001301 	andeq	r1, r0, r1, lsl #6
     4f0:	49000509 	stmdbmi	r0, {r0, r3, r8, sl}
     4f4:	0a000013 	beq	548 <_start-0x7ab8>
     4f8:	0e030034 	mcreq	0, 0, r0, cr3, cr4, {1}
     4fc:	0b3b0b3a 	bleq	ec31ec <__bss_end__+0xeb84d4>
     500:	193f1349 	ldmdbne	pc!, {r0, r3, r6, r8, r9, ip}	; <UNPREDICTABLE>
     504:	0000193c 	andeq	r1, r0, ip, lsr r9
     508:	0300340b 	movweq	r3, #1035	; 0x40b
     50c:	3b0b3a0e 	blcc	2ced4c <__bss_end__+0x2c4034>
     510:	3f13490b 	svccc	0x0013490b
     514:	00180219 	andseq	r0, r8, r9, lsl r2
     518:	11010000 	mrsne	r0, (UNDEF: 1)
     51c:	130e2501 	movwne	r2, #58625	; 0xe501
     520:	1b0e030b 	blne	381154 <__bss_end__+0x37643c>
     524:	1201110e 	andne	r1, r1, #-2147483645	; 0x80000003
     528:	00171006 	andseq	r1, r7, r6
     52c:	00240200 	eoreq	r0, r4, r0, lsl #4
     530:	0b3e0b0b 	bleq	f83164 <__bss_end__+0xf7844c>
     534:	00000803 	andeq	r0, r0, r3, lsl #16
     538:	0b002403 	bleq	954c <gpio_read+0x2c>
     53c:	030b3e0b 	movweq	r3, #48651	; 0xbe0b
     540:	0400000e 	streq	r0, [r0], #-14
     544:	0b0b000f 	bleq	2c0588 <__bss_end__+0x2b5870>
     548:	0f050000 	svceq	0x00050000
     54c:	490b0b00 	stmdbmi	fp, {r8, r9, fp}
     550:	06000013 			; <UNDEFINED> instruction: 0x06000013
     554:	13490026 	movtne	r0, #36902	; 0x9026
     558:	16070000 	strne	r0, [r7], -r0
     55c:	3a0e0300 	bcc	381164 <__bss_end__+0x37644c>
     560:	490b3b0b 	stmdbmi	fp, {r0, r1, r3, r8, r9, fp, ip, sp}
     564:	08000013 	stmdaeq	r0, {r0, r1, r4}
     568:	0e030113 	mcreq	1, 0, r0, cr3, cr3, {0}
     56c:	0b3a0b0b 	bleq	e831a0 <__bss_end__+0xe78488>
     570:	13010b3b 	movwne	r0, #6971	; 0x1b3b
     574:	0d090000 	stceq	0, cr0, [r9, #-0]
     578:	490e0300 	stmdbmi	lr, {r8, r9}
     57c:	340b3813 	strcc	r3, [fp], #-2067	; 0x813
     580:	0a000019 	beq	5ec <_start-0x7a14>
     584:	0e03012e 	adfeqsp	f0, f3, #0.5
     588:	0b3b0b3a 	bleq	ec3278 <__bss_end__+0xeb8560>
     58c:	13491927 	movtne	r1, #39207	; 0x9927
     590:	06120111 			; <UNDEFINED> instruction: 0x06120111
     594:	42971840 	addsmi	r1, r7, #64, 16	; 0x400000
     598:	00130119 	andseq	r0, r3, r9, lsl r1
     59c:	00050b00 	andeq	r0, r5, r0, lsl #22
     5a0:	0b3a0803 	bleq	e825b4 <__bss_end__+0xe7789c>
     5a4:	13490b3b 	movtne	r0, #39739	; 0x9b3b
     5a8:	00001702 	andeq	r1, r0, r2, lsl #14
     5ac:	03012e0c 	movweq	r2, #7692	; 0x1e0c
     5b0:	3b0b3a08 	blcc	2cedd8 <__bss_end__+0x2c40c0>
     5b4:	4919270b 	ldmdbmi	r9, {r0, r1, r3, r8, r9, sl, sp}
     5b8:	12011113 	andne	r1, r1, #-1073741820	; 0xc0000004
     5bc:	97184006 	ldrls	r4, [r8, -r6]
     5c0:	13011942 	movwne	r1, #6466	; 0x1942
     5c4:	050d0000 	streq	r0, [sp, #-0]
     5c8:	3a0e0300 	bcc	3811d0 <__bss_end__+0x3764b8>
     5cc:	490b3b0b 	stmdbmi	fp, {r0, r1, r3, r8, r9, fp, ip, sp}
     5d0:	00170213 	andseq	r0, r7, r3, lsl r2
     5d4:	00050e00 	andeq	r0, r5, r0, lsl #28
     5d8:	0b3a0e03 	bleq	e83dec <__bss_end__+0xe790d4>
     5dc:	13490b3b 	movtne	r0, #39739	; 0x9b3b
     5e0:	00001802 	andeq	r1, r0, r2, lsl #16
     5e4:	0300340f 	movweq	r3, #1039	; 0x40f
     5e8:	3b0b3a08 	blcc	2cee10 <__bss_end__+0x2c40f8>
     5ec:	0213490b 	andseq	r4, r3, #180224	; 0x2c000
     5f0:	10000018 	andne	r0, r0, r8, lsl r0
     5f4:	08030034 	stmdaeq	r3, {r2, r4, r5}
     5f8:	0b3b0b3a 	bleq	ec32e8 <__bss_end__+0xeb85d0>
     5fc:	17021349 	strne	r1, [r2, -r9, asr #6]
     600:	34110000 	ldrcc	r0, [r1], #-0
     604:	490e0300 	stmdbmi	lr, {r8, r9}
     608:	02193413 	andseq	r3, r9, #318767104	; 0x13000000
     60c:	12000018 	andne	r0, r0, #24
     610:	0111010b 	tsteq	r1, fp, lsl #2
     614:	13010612 	movwne	r0, #5650	; 0x1612
     618:	34130000 	ldrcc	r0, [r3], #-0
     61c:	3a0e0300 	bcc	381224 <__bss_end__+0x37650c>
     620:	490b3b0b 	stmdbmi	fp, {r0, r1, r3, r8, r9, fp, ip, sp}
     624:	00170213 	andseq	r0, r7, r3, lsl r2
     628:	82891400 	addhi	r1, r9, #0, 8
     62c:	01110001 	tsteq	r1, r1
     630:	00001331 	andeq	r1, r0, r1, lsr r3
     634:	01828915 	orreq	r8, r2, r5, lsl r9
     638:	31011101 	tstcc	r1, r1, lsl #2
     63c:	00130113 	andseq	r0, r3, r3, lsl r1
     640:	828a1600 	addhi	r1, sl, #0, 12
     644:	18020001 	stmdane	r2, {r0}
     648:	00184291 	mulseq	r8, r1, r2
     64c:	82891700 	addhi	r1, r9, #0, 14
     650:	01110101 	tsteq	r1, r1, lsl #2
     654:	00001331 	andeq	r1, r0, r1, lsr r3
     658:	49010118 	stmdbmi	r1, {r3, r4, r8}
     65c:	00130113 	andseq	r0, r3, r3, lsl r1
     660:	00211900 	eoreq	r1, r1, r0, lsl #18
     664:	0b2f1349 	bleq	bc5390 <__bss_end__+0xbba678>
     668:	2e1a0000 	cdpcs	0, 1, cr0, cr10, cr0, {0}
     66c:	03193f01 	tsteq	r9, #1, 30
     670:	3b0b3a0e 	blcc	2ceeb0 <__bss_end__+0x2c4198>
     674:	1119270b 	tstne	r9, fp, lsl #14
     678:	40061201 	andmi	r1, r6, r1, lsl #4
     67c:	19429718 	stmdbne	r2, {r3, r4, r8, r9, sl, ip, pc}^
     680:	00001301 	andeq	r1, r0, r1, lsl #6
     684:	2701151b 	smladcs	r1, fp, r5, r1
     688:	01134919 	tsteq	r3, r9, lsl r9
     68c:	1c000013 	stcne	0, cr0, [r0], {19}
     690:	13490005 	movtne	r0, #36869	; 0x9005
     694:	2e1d0000 	cdpcs	0, 1, cr0, cr13, cr0, {0}
     698:	03193f01 	tsteq	r9, #1, 30
     69c:	3b0b3a0e 	blcc	2ceedc <__bss_end__+0x2c41c4>
     6a0:	4919270b 	ldmdbmi	r9, {r0, r1, r3, r8, r9, sl, sp}
     6a4:	12011113 	andne	r1, r1, #-1073741820	; 0xc0000004
     6a8:	97184006 	ldrls	r4, [r8, -r6]
     6ac:	13011942 	movwne	r1, #6466	; 0x1942
     6b0:	0b1e0000 	bleq	7806b8 <__bss_end__+0x7759a0>
     6b4:	00175501 	andseq	r5, r7, r1, lsl #10
     6b8:	00341f00 	eorseq	r1, r4, r0, lsl #30
     6bc:	0b3a0e03 	bleq	e83ed0 <__bss_end__+0xe791b8>
     6c0:	13490b3b 	movtne	r0, #39739	; 0x9b3b
     6c4:	193c193f 	ldmdbne	ip!, {r0, r1, r2, r3, r4, r5, r8, fp, ip}
     6c8:	2e200000 	cdpcs	0, 2, cr0, cr0, cr0, {0}
     6cc:	03193f00 	tsteq	r9, #0, 30
     6d0:	3b0b3a0e 	blcc	2cef10 <__bss_end__+0x2c41f8>
     6d4:	3c19270b 	ldccc	7, cr2, [r9], {11}
     6d8:	21000019 	tstcs	r0, r9, lsl r0
     6dc:	193f012e 	ldmdbne	pc!, {r1, r2, r3, r5, r8}	; <UNPREDICTABLE>
     6e0:	0b3a0e03 	bleq	e83ef4 <__bss_end__+0xe791dc>
     6e4:	19270b3b 	stmdbne	r7!, {r0, r1, r3, r4, r5, r8, r9, fp}
     6e8:	193c1349 	ldmdbne	ip!, {r0, r3, r6, r8, r9, ip}
     6ec:	00001301 	andeq	r1, r0, r1, lsl #6
     6f0:	00001822 	andeq	r1, r0, r2, lsr #16
     6f4:	11010000 	mrsne	r0, (UNDEF: 1)
     6f8:	130e2501 	movwne	r2, #58625	; 0xe501
     6fc:	1b0e030b 	blne	381330 <__bss_end__+0x376618>
     700:	1201110e 	andne	r1, r1, #-2147483645	; 0x80000003
     704:	00171006 	andseq	r1, r7, r6
     708:	00240200 	eoreq	r0, r4, r0, lsl #4
     70c:	0b3e0b0b 	bleq	f83340 <__bss_end__+0xf78628>
     710:	00000803 	andeq	r0, r0, r3, lsl #16
     714:	0b002403 	bleq	9728 <gpio_int_rising_edge+0x5c>
     718:	030b3e0b 	movweq	r3, #48651	; 0xbe0b
     71c:	0400000e 	streq	r0, [r0], #-14
     720:	193f012e 	ldmdbne	pc!, {r1, r2, r3, r5, r8}	; <UNPREDICTABLE>
     724:	0b3a0e03 	bleq	e83f38 <__bss_end__+0xe79220>
     728:	19270b3b 	stmdbne	r7!, {r0, r1, r3, r4, r5, r8, r9, fp}
     72c:	06120111 			; <UNDEFINED> instruction: 0x06120111
     730:	42971840 	addsmi	r1, r7, #64, 16	; 0x400000
     734:	00130119 	andseq	r0, r3, r9, lsl r1
     738:	00340500 	eorseq	r0, r4, r0, lsl #10
     73c:	0b3a0803 	bleq	e82750 <__bss_end__+0xe77a38>
     740:	13490b3b 	movtne	r0, #39739	; 0x9b3b
     744:	00001702 	andeq	r1, r0, r2, lsl #14
     748:	3f012e06 	svccc	0x00012e06
     74c:	3a0e0319 	bcc	3813b8 <__bss_end__+0x3766a0>
     750:	270b3b0b 	strcs	r3, [fp, -fp, lsl #22]
     754:	12011119 	andne	r1, r1, #1073741830	; 0x40000006
     758:	97184006 	ldrls	r4, [r8, -r6]
     75c:	00001942 	andeq	r1, r0, r2, asr #18
     760:	01110100 	tsteq	r1, r0, lsl #2
     764:	0b130e25 	bleq	4c4000 <__bss_end__+0x4b92e8>
     768:	0e1b0e03 	cdpeq	14, 1, cr0, cr11, cr3, {0}
     76c:	06120111 			; <UNDEFINED> instruction: 0x06120111
     770:	00001710 	andeq	r1, r0, r0, lsl r7
     774:	0b002402 	bleq	9784 <gpio_int_falling_edge+0x34>
     778:	030b3e0b 	movweq	r3, #48651	; 0xbe0b
     77c:	03000008 	movweq	r0, #8
     780:	0b0b0024 	bleq	2c0818 <__bss_end__+0x2b5b00>
     784:	0e030b3e 	vmoveq.16	d3[0], r0
     788:	0f040000 	svceq	0x00040000
     78c:	490b0b00 	stmdbmi	fp, {r8, r9, fp}
     790:	05000013 	streq	r0, [r0, #-19]
     794:	13490026 	movtne	r0, #36902	; 0x9026
     798:	2e060000 	cdpcs	0, 0, cr0, cr6, cr0, {0}
     79c:	03193f01 	tsteq	r9, #1, 30
     7a0:	3b0b3a0e 	blcc	2cefe0 <__bss_end__+0x2c42c8>
     7a4:	1119270b 	tstne	r9, fp, lsl #14
     7a8:	40061201 	andmi	r1, r6, r1, lsl #4
     7ac:	19429718 	stmdbne	r2, {r3, r4, r8, r9, sl, ip, pc}^
     7b0:	00001301 	andeq	r1, r0, r1, lsl #6
     7b4:	01828907 	orreq	r8, r2, r7, lsl #18
     7b8:	01011101 	tsteq	r1, r1, lsl #2
     7bc:	08000013 	stmdaeq	r0, {r0, r1, r4}
     7c0:	0001828a 	andeq	r8, r1, sl, lsl #5
     7c4:	42911802 	addsmi	r1, r1, #131072	; 0x20000
     7c8:	09000018 	stmdbeq	r0, {r3, r4}
     7cc:	01018289 	smlabbeq	r1, r9, r2, r8
     7d0:	13310111 	teqne	r1, #1073741828	; 0x40000004
     7d4:	00001301 	andeq	r1, r0, r1, lsl #6
     7d8:	0182890a 	orreq	r8, r2, sl, lsl #18
     7dc:	31011100 	mrscc	r1, (UNDEF: 17)
     7e0:	0b000013 	bleq	834 <_start-0x77cc>
     7e4:	19270115 	stmdbne	r7!, {r0, r2, r4, r8}
     7e8:	13011349 	movwne	r1, #4937	; 0x1349
     7ec:	050c0000 	streq	r0, [ip, #-0]
     7f0:	00134900 	andseq	r4, r3, r0, lsl #18
     7f4:	00340d00 	eorseq	r0, r4, r0, lsl #26
     7f8:	0b3a0e03 	bleq	e8400c <__bss_end__+0xe792f4>
     7fc:	13490b3b 	movtne	r0, #39739	; 0x9b3b
     800:	193c193f 	ldmdbne	ip!, {r0, r1, r2, r3, r4, r5, r8, fp, ip}
     804:	2e0e0000 	cdpcs	0, 0, cr0, cr14, cr0, {0}
     808:	03193f01 	tsteq	r9, #1, 30
     80c:	3b0b3a0e 	blcc	2cf04c <__bss_end__+0x2c4334>
     810:	3c19270b 	ldccc	7, cr2, [r9], {11}
     814:	00130119 	andseq	r0, r3, r9, lsl r1
     818:	002e0f00 	eoreq	r0, lr, r0, lsl #30
     81c:	0e03193f 	mcreq	9, 0, r1, cr3, cr15, {1}
     820:	0b3b0b3a 	bleq	ec3510 <__bss_end__+0xeb87f8>
     824:	193c1927 	ldmdbne	ip!, {r0, r1, r2, r5, r8, fp, ip}
     828:	01000000 	mrseq	r0, (UNDEF: 0)
     82c:	0e250111 	mcreq	1, 1, r0, cr5, cr1, {0}
     830:	0e030b13 	vmoveq.32	d3[0], r0
     834:	01110e1b 	tsteq	r1, fp, lsl lr
     838:	17100612 			; <UNDEFINED> instruction: 0x17100612
     83c:	24020000 	strcs	r0, [r2], #-0
     840:	3e0b0b00 	vmlacc.f64	d0, d11, d0
     844:	0008030b 	andeq	r0, r8, fp, lsl #6
     848:	00240300 	eoreq	r0, r4, r0, lsl #6
     84c:	0b3e0b0b 	bleq	f83480 <__bss_end__+0xf78768>
     850:	00000e03 	andeq	r0, r0, r3, lsl #28
     854:	03001604 	movweq	r1, #1540	; 0x604
     858:	3b0b3a0e 	blcc	2cf098 <__bss_end__+0x2c4380>
     85c:	0013490b 	andseq	r4, r3, fp, lsl #18
     860:	000f0500 	andeq	r0, pc, r0, lsl #10
     864:	13490b0b 	movtne	r0, #39691	; 0x9b0b
     868:	26060000 	strcs	r0, [r6], -r0
     86c:	00134900 	andseq	r4, r3, r0, lsl #18
     870:	01130700 	tsteq	r3, r0, lsl #14
     874:	0b3a0b0b 	bleq	e834a8 <__bss_end__+0xe78790>
     878:	13010b3b 	movwne	r0, #6971	; 0x1b3b
     87c:	0d080000 	stceq	0, cr0, [r8, #-0]
     880:	3a080300 	bcc	201488 <__bss_end__+0x1f6770>
     884:	490b3b0b 	stmdbmi	fp, {r0, r1, r3, r8, r9, fp, ip, sp}
     888:	000b3813 	andeq	r3, fp, r3, lsl r8
     88c:	000d0900 	andeq	r0, sp, r0, lsl #18
     890:	0b3a0e03 	bleq	e840a4 <__bss_end__+0xe7938c>
     894:	13490b3b 	movtne	r0, #39739	; 0x9b3b
     898:	00000b38 	andeq	r0, r0, r8, lsr fp
     89c:	0b01040a 	bleq	418cc <__bss_end__+0x36bb4>
     8a0:	3b0b3a0b 	blcc	2cf0d4 <__bss_end__+0x2c43bc>
     8a4:	0013010b 	andseq	r0, r3, fp, lsl #2
     8a8:	00280b00 	eoreq	r0, r8, r0, lsl #22
     8ac:	0d1c0e03 	ldceq	14, cr0, [ip, #-12]
     8b0:	2e0c0000 	cdpcs	0, 0, cr0, cr12, cr0, {0}
     8b4:	3a0e0301 	bcc	3814c0 <__bss_end__+0x3767a8>
     8b8:	270b3b0b 	strcs	r3, [fp, -fp, lsl #22]
     8bc:	11134919 	tstne	r3, r9, lsl r9
     8c0:	40061201 	andmi	r1, r6, r1, lsl #4
     8c4:	19429718 	stmdbne	r2, {r3, r4, r8, r9, sl, ip, pc}^
     8c8:	00001301 	andeq	r1, r0, r1, lsl #6
     8cc:	0300050d 	movweq	r0, #1293	; 0x50d
     8d0:	3b0b3a08 	blcc	2cf0f8 <__bss_end__+0x2c43e0>
     8d4:	0213490b 	andseq	r4, r3, #180224	; 0x2c000
     8d8:	0e000017 	mcreq	0, 0, r0, cr0, cr7, {0}
     8dc:	01018289 	smlabbeq	r1, r9, r2, r8
     8e0:	13310111 	teqne	r1, #1073741828	; 0x40000004
     8e4:	8a0f0000 	bhi	3c08ec <__bss_end__+0x3b5bd4>
     8e8:	02000182 	andeq	r0, r0, #-2147483616	; 0x80000020
     8ec:	18429118 	stmdane	r2, {r3, r4, r8, ip, pc}^
     8f0:	2e100000 	cdpcs	0, 1, cr0, cr0, cr0, {0}
     8f4:	03193f01 	tsteq	r9, #1, 30
     8f8:	3b0b3a0e 	blcc	2cf138 <__bss_end__+0x2c4420>
     8fc:	1201110b 	andne	r1, r1, #-1073741822	; 0xc0000002
     900:	97184006 	ldrls	r4, [r8, -r6]
     904:	13011942 	movwne	r1, #6466	; 0x1942
     908:	34110000 	ldrcc	r0, [r1], #-0
     90c:	3a0e0300 	bcc	381514 <__bss_end__+0x3767fc>
     910:	490b3b0b 	stmdbmi	fp, {r0, r1, r3, r8, r9, fp, ip, sp}
     914:	3c193f13 	ldccc	15, cr3, [r9], {19}
     918:	12000019 	andne	r0, r0, #25
     91c:	193f002e 	ldmdbne	pc!, {r1, r2, r3, r5}	; <UNPREDICTABLE>
     920:	0b3a0e03 	bleq	e84134 <__bss_end__+0xe7941c>
     924:	19270b3b 	stmdbne	r7!, {r0, r1, r3, r4, r5, r8, r9, fp}
     928:	0000193c 	andeq	r1, r0, ip, lsr r9
     92c:	03003413 	movweq	r3, #1043	; 0x413
     930:	3b0b3a08 	blcc	2cf158 <__bss_end__+0x2c4440>
     934:	0213490b 	andseq	r4, r3, #180224	; 0x2c000
     938:	14000017 	strne	r0, [r0], #-23
     93c:	0e030034 	mcreq	0, 0, r0, cr3, cr4, {1}
     940:	0b3b0b3a 	bleq	ec3630 <__bss_end__+0xeb8918>
     944:	00001349 	andeq	r1, r0, r9, asr #6
     948:	01828915 	orreq	r8, r2, r5, lsl r9
     94c:	31011100 	mrscc	r1, (UNDEF: 17)
     950:	16000013 			; <UNDEFINED> instruction: 0x16000013
     954:	01018289 	smlabbeq	r1, r9, r2, r8
     958:	13310111 	teqne	r1, #1073741828	; 0x40000004
     95c:	00001301 	andeq	r1, r0, r1, lsl #6
     960:	03003417 	movweq	r3, #1047	; 0x417
     964:	3b0b3a0e 	blcc	2cf1a4 <__bss_end__+0x2c448c>
     968:	0213490b 	andseq	r4, r3, #180224	; 0x2c000
     96c:	18000018 	stmdane	r0, {r3, r4}
     970:	19270115 	stmdbne	r7!, {r0, r2, r4, r8}
     974:	13011349 	movwne	r1, #4937	; 0x1349
     978:	05190000 	ldreq	r0, [r9, #-0]
     97c:	00134900 	andseq	r4, r3, r0, lsl #18
     980:	012e1a00 	teqeq	lr, r0, lsl #20
     984:	0e03193f 	mcreq	9, 0, r1, cr3, cr15, {1}
     988:	0b3b0b3a 	bleq	ec3678 <__bss_end__+0xeb8960>
     98c:	193c1927 	ldmdbne	ip!, {r0, r1, r2, r5, r8, fp, ip}
     990:	00001301 	andeq	r1, r0, r1, lsl #6
     994:	3f002e1b 	svccc	0x00002e1b
     998:	3a0e0319 	bcc	381604 <__bss_end__+0x3768ec>
     99c:	270b3b0b 	strcs	r3, [fp, -fp, lsl #22]
     9a0:	3c134919 	ldccc	9, cr4, [r3], {25}
     9a4:	1c000019 	stcne	0, cr0, [r0], {25}
     9a8:	193f012e 	ldmdbne	pc!, {r1, r2, r3, r5, r8}	; <UNPREDICTABLE>
     9ac:	0b3a0e03 	bleq	e841c0 <__bss_end__+0xe794a8>
     9b0:	19270b3b 	stmdbne	r7!, {r0, r1, r3, r4, r5, r8, r9, fp}
     9b4:	193c1349 	ldmdbne	ip!, {r0, r3, r6, r8, r9, ip}
     9b8:	00001301 	andeq	r1, r0, r1, lsl #6
     9bc:	0000181d 	andeq	r1, r0, sp, lsl r8
     9c0:	11010000 	mrsne	r0, (UNDEF: 1)
     9c4:	130e2501 	movwne	r2, #58625	; 0xe501
     9c8:	1b0e030b 	blne	3815fc <__bss_end__+0x3768e4>
     9cc:	1117550e 	tstne	r7, lr, lsl #10
     9d0:	00171001 	andseq	r1, r7, r1
     9d4:	00240200 	eoreq	r0, r4, r0, lsl #4
     9d8:	0b3e0b0b 	bleq	f8360c <__bss_end__+0xf788f4>
     9dc:	00000803 	andeq	r0, r0, r3, lsl #16
     9e0:	0b002403 	bleq	99f4 <sw_uart_putc+0x144>
     9e4:	030b3e0b 	movweq	r3, #48651	; 0xbe0b
     9e8:	0400000e 	streq	r0, [r0], #-14
     9ec:	193f012e 	ldmdbne	pc!, {r1, r2, r3, r5, r8}	; <UNPREDICTABLE>
     9f0:	0b3a0e03 	bleq	e84204 <__bss_end__+0xe794ec>
     9f4:	19270b3b 	stmdbne	r7!, {r0, r1, r3, r4, r5, r8, r9, fp}
     9f8:	01111349 	tsteq	r1, r9, asr #6
     9fc:	18400612 	stmdane	r0, {r1, r4, r9, sl}^
     a00:	01194297 			; <UNDEFINED> instruction: 0x01194297
     a04:	05000013 	streq	r0, [r0, #-19]
     a08:	0e030034 	mcreq	0, 0, r0, cr3, cr4, {1}
     a0c:	0b3b0b3a 	bleq	ec36fc <__bss_end__+0xeb89e4>
     a10:	17021349 	strne	r1, [r2, -r9, asr #6]
     a14:	2e060000 	cdpcs	0, 0, cr0, cr6, cr0, {0}
     a18:	03193f01 	tsteq	r9, #1, 30
     a1c:	3b0b3a0e 	blcc	2cf25c <__bss_end__+0x2c4544>
     a20:	1119270b 	tstne	r9, fp, lsl #14
     a24:	40061201 	andmi	r1, r6, r1, lsl #4
     a28:	19429718 	stmdbne	r2, {r3, r4, r8, r9, sl, ip, pc}^
     a2c:	00001301 	andeq	r1, r0, r1, lsl #6
     a30:	03003407 	movweq	r3, #1031	; 0x407
     a34:	3b0b3a0e 	blcc	2cf274 <__bss_end__+0x2c455c>
     a38:	1c13490b 	ldcne	9, cr4, [r3], {11}
     a3c:	08000006 	stmdaeq	r0, {r1, r2}
     a40:	0e030034 	mcreq	0, 0, r0, cr3, cr4, {1}
     a44:	0b3b0b3a 	bleq	ec3734 <__bss_end__+0xeb8a1c>
     a48:	0b1c1349 	bleq	705774 <__bss_end__+0x6faa5c>
     a4c:	89090000 	stmdbhi	r9, {}	; <UNPREDICTABLE>
     a50:	11000182 	smlabbne	r0, r2, r1, r0
     a54:	00133101 	andseq	r3, r3, r1, lsl #2
     a58:	82890a00 	addhi	r0, r9, #0, 20
     a5c:	01110101 	tsteq	r1, r1, lsl #2
     a60:	13011331 	movwne	r1, #4913	; 0x1331
     a64:	8a0b0000 	bhi	2c0a6c <__bss_end__+0x2b5d54>
     a68:	02000182 	andeq	r0, r0, #-2147483616	; 0x80000020
     a6c:	18429118 	stmdane	r2, {r3, r4, r8, ip, pc}^
     a70:	890c0000 	stmdbhi	ip, {}	; <UNPREDICTABLE>
     a74:	11010182 	smlabbne	r1, r2, r1, r0
     a78:	00133101 	andseq	r3, r3, r1, lsl #2
     a7c:	00260d00 	eoreq	r0, r6, r0, lsl #26
     a80:	00001349 	andeq	r1, r0, r9, asr #6
     a84:	3f012e0e 	svccc	0x00012e0e
     a88:	3a0e0319 	bcc	3816f4 <__bss_end__+0x3769dc>
     a8c:	270b3b0b 	strcs	r3, [fp, -fp, lsl #22]
     a90:	01193c19 	tsteq	r9, r9, lsl ip
     a94:	0f000013 	svceq	0x00000013
     a98:	13490005 	movtne	r0, #36869	; 0x9005
     a9c:	2e100000 	cdpcs	0, 1, cr0, cr0, cr0, {0}
     aa0:	03193f01 	tsteq	r9, #1, 30
     aa4:	3b0b3a0e 	blcc	2cf2e4 <__bss_end__+0x2c45cc>
     aa8:	3c19270b 	ldccc	7, cr2, [r9], {11}
     aac:	00000019 	andeq	r0, r0, r9, lsl r0
     ab0:	25011101 	strcs	r1, [r1, #-257]	; 0x101
     ab4:	030b130e 	movweq	r1, #45838	; 0xb30e
     ab8:	110e1b0e 	tstne	lr, lr, lsl #22
     abc:	10061201 	andne	r1, r6, r1, lsl #4
     ac0:	02000017 	andeq	r0, r0, #23
     ac4:	0b0b0024 	bleq	2c0b5c <__bss_end__+0x2b5e44>
     ac8:	08030b3e 	stmdaeq	r3, {r1, r2, r3, r4, r5, r8, r9, fp}
     acc:	24030000 	strcs	r0, [r3], #-0
     ad0:	3e0b0b00 	vmlacc.f64	d0, d11, d0
     ad4:	000e030b 	andeq	r0, lr, fp, lsl #6
     ad8:	012e0400 	teqeq	lr, r0, lsl #8
     adc:	0e03193f 	mcreq	9, 0, r1, cr3, cr15, {1}
     ae0:	0b3b0b3a 	bleq	ec37d0 <__bss_end__+0xeb8ab8>
     ae4:	01111927 	tsteq	r1, r7, lsr #18
     ae8:	18400612 	stmdane	r0, {r1, r4, r9, sl}^
     aec:	01194297 			; <UNDEFINED> instruction: 0x01194297
     af0:	05000013 	streq	r0, [r0, #-19]
     af4:	0e030005 	cdpeq	0, 0, cr0, cr3, cr5, {0}
     af8:	0b3b0b3a 	bleq	ec37e8 <__bss_end__+0xeb8ad0>
     afc:	17021349 	strne	r1, [r2, -r9, asr #6]
     b00:	2e060000 	cdpcs	0, 0, cr0, cr6, cr0, {0}
     b04:	03193f01 	tsteq	r9, #1, 30
     b08:	3b0b3a0e 	blcc	2cf348 <__bss_end__+0x2c4630>
     b0c:	4919270b 	ldmdbmi	r9, {r0, r1, r3, r8, r9, sl, sp}
     b10:	12011113 	andne	r1, r1, #-1073741820	; 0xc0000004
     b14:	97184006 	ldrls	r4, [r8, -r6]
     b18:	13011942 	movwne	r1, #6466	; 0x1942
     b1c:	89070000 	stmdbhi	r7, {}	; <UNPREDICTABLE>
     b20:	11010182 	smlabbne	r1, r2, r1, r0
     b24:	00133101 	andseq	r3, r3, r1, lsl #2
     b28:	828a0800 	addhi	r0, sl, #0, 16
     b2c:	18020001 	stmdane	r2, {r0}
     b30:	00184291 	mulseq	r8, r1, r2
     b34:	00340900 	eorseq	r0, r4, r0, lsl #18
     b38:	0b3a0803 	bleq	e82b4c <__bss_end__+0xe77e34>
     b3c:	13490b3b 	movtne	r0, #39739	; 0x9b3b
     b40:	00001802 	andeq	r1, r0, r2, lsl #16
     b44:	0182890a 	orreq	r8, r2, sl, lsl #18
     b48:	31011100 	mrscc	r1, (UNDEF: 17)
     b4c:	0b000013 	bleq	ba0 <_start-0x7460>
     b50:	08030005 	stmdaeq	r3, {r0, r2}
     b54:	0b3b0b3a 	bleq	ec3844 <__bss_end__+0xeb8b2c>
     b58:	17021349 	strne	r1, [r2, -r9, asr #6]
     b5c:	0b0c0000 	bleq	300b64 <__bss_end__+0x2f5e4c>
     b60:	12011101 	andne	r1, r1, #1073741824	; 0x40000000
     b64:	00130106 	andseq	r0, r3, r6, lsl #2
     b68:	00340d00 	eorseq	r0, r4, r0, lsl #26
     b6c:	0b3a0803 	bleq	e82b80 <__bss_end__+0xe77e68>
     b70:	13490b3b 	movtne	r0, #39739	; 0x9b3b
     b74:	00001702 	andeq	r1, r0, r2, lsl #14
     b78:	3f012e0e 	svccc	0x00012e0e
     b7c:	3a0e0319 	bcc	3817e8 <__bss_end__+0x376ad0>
     b80:	270b3b0b 	strcs	r3, [fp, -fp, lsl #22]
     b84:	3c134919 	ldccc	9, cr4, [r3], {25}
     b88:	0f000019 	svceq	0x00000019
     b8c:	13490005 	movtne	r0, #36869	; 0x9005
     b90:	01000000 	mrseq	r0, (UNDEF: 0)
     b94:	0e250111 	mcreq	1, 1, r0, cr5, cr1, {0}
     b98:	0e030b13 	vmoveq.32	d3[0], r0
     b9c:	01110e1b 	tsteq	r1, fp, lsl lr
     ba0:	17100612 			; <UNDEFINED> instruction: 0x17100612
     ba4:	24020000 	strcs	r0, [r2], #-0
     ba8:	3e0b0b00 	vmlacc.f64	d0, d11, d0
     bac:	000e030b 	andeq	r0, lr, fp, lsl #6
     bb0:	00240300 	eoreq	r0, r4, r0, lsl #6
     bb4:	0b3e0b0b 	bleq	f837e8 <__bss_end__+0xf78ad0>
     bb8:	00000803 	andeq	r0, r0, r3, lsl #16
     bbc:	0b010404 	bleq	41bd4 <__bss_end__+0x36ebc>
     bc0:	3b0b3a0b 	blcc	2cf3f4 <__bss_end__+0x2c46dc>
     bc4:	0013010b 	andseq	r0, r3, fp, lsl #2
     bc8:	00280500 	eoreq	r0, r8, r0, lsl #10
     bcc:	0d1c0e03 	ldceq	14, cr0, [ip, #-12]
     bd0:	16060000 	strne	r0, [r6], -r0
     bd4:	3a0e0300 	bcc	3817dc <__bss_end__+0x376ac4>
     bd8:	490b3b0b 	stmdbmi	fp, {r0, r1, r3, r8, r9, fp, ip, sp}
     bdc:	07000013 	smladeq	r0, r3, r0, r0
     be0:	193f012e 	ldmdbne	pc!, {r1, r2, r3, r5, r8}	; <UNPREDICTABLE>
     be4:	0b3a0e03 	bleq	e843f8 <__bss_end__+0xe796e0>
     be8:	19270b3b 	stmdbne	r7!, {r0, r1, r3, r4, r5, r8, r9, fp}
     bec:	06120111 			; <UNDEFINED> instruction: 0x06120111
     bf0:	42971840 	addsmi	r1, r7, #64, 16	; 0x400000
     bf4:	00130119 	andseq	r0, r3, r9, lsl r1
     bf8:	00050800 	andeq	r0, r5, r0, lsl #16
     bfc:	0b3a0803 	bleq	e82c10 <__bss_end__+0xe77ef8>
     c00:	13490b3b 	movtne	r0, #39739	; 0x9b3b
     c04:	00001702 	andeq	r1, r0, r2, lsl #14
     c08:	03003409 	movweq	r3, #1033	; 0x409
     c0c:	3b0b3a0e 	blcc	2cf44c <__bss_end__+0x2c4734>
     c10:	0213490b 	andseq	r4, r3, #180224	; 0x2c000
     c14:	0a000017 	beq	c78 <_start-0x7388>
     c18:	01018289 	smlabbeq	r1, r9, r2, r8
     c1c:	13310111 	teqne	r1, #1073741828	; 0x40000004
     c20:	00001301 	andeq	r1, r0, r1, lsl #6
     c24:	01828a0b 	orreq	r8, r2, fp, lsl #20
     c28:	91180200 	tstls	r8, r0, lsl #4
     c2c:	00001842 	andeq	r1, r0, r2, asr #16
     c30:	0182890c 	orreq	r8, r2, ip, lsl #18
     c34:	31011101 	tstcc	r1, r1, lsl #2
     c38:	0d000013 	stceq	0, cr0, [r0, #-76]	; 0xffffffb4
     c3c:	0b0b000f 	bleq	2c0c80 <__bss_end__+0x2b5f68>
     c40:	00001349 	andeq	r1, r0, r9, asr #6
     c44:	4900350e 	stmdbmi	r0, {r1, r2, r3, r8, sl, ip, sp}
     c48:	0f000013 	svceq	0x00000013
     c4c:	193f012e 	ldmdbne	pc!, {r1, r2, r3, r5, r8}	; <UNPREDICTABLE>
     c50:	0b3a0e03 	bleq	e84464 <__bss_end__+0xe7974c>
     c54:	19270b3b 	stmdbne	r7!, {r0, r1, r3, r4, r5, r8, r9, fp}
     c58:	01111349 	tsteq	r1, r9, asr #6
     c5c:	18400612 	stmdane	r0, {r1, r4, r9, sl}^
     c60:	01194297 			; <UNDEFINED> instruction: 0x01194297
     c64:	10000013 	andne	r0, r0, r3, lsl r0
     c68:	08030034 	stmdaeq	r3, {r2, r4, r5}
     c6c:	0b3b0b3a 	bleq	ec395c <__bss_end__+0xeb8c44>
     c70:	17021349 	strne	r1, [r2, -r9, asr #6]
     c74:	89110000 	ldmdbhi	r1, {}	; <UNPREDICTABLE>
     c78:	11000182 	smlabbne	r0, r2, r1, r0
     c7c:	00133101 	andseq	r3, r3, r1, lsl #2
     c80:	00051200 	andeq	r1, r5, r0, lsl #4
     c84:	0b3a0e03 	bleq	e84498 <__bss_end__+0xe79780>
     c88:	13490b3b 	movtne	r0, #39739	; 0x9b3b
     c8c:	00001702 	andeq	r1, r0, r2, lsl #14
     c90:	3f012e13 	svccc	0x00012e13
     c94:	3a0e0319 	bcc	381900 <__bss_end__+0x376be8>
     c98:	27053b0b 	strcs	r3, [r5, -fp, lsl #22]
     c9c:	11134919 	tstne	r3, r9, lsl r9
     ca0:	40061201 	andmi	r1, r6, r1, lsl #4
     ca4:	19429718 	stmdbne	r2, {r3, r4, r8, r9, sl, ip, pc}^
     ca8:	00001301 	andeq	r1, r0, r1, lsl #6
     cac:	03000514 	movweq	r0, #1300	; 0x514
     cb0:	3b0b3a0e 	blcc	2cf4f0 <__bss_end__+0x2c47d8>
     cb4:	02134905 	andseq	r4, r3, #81920	; 0x14000
     cb8:	15000017 	strne	r0, [r0, #-23]
     cbc:	193f012e 	ldmdbne	pc!, {r1, r2, r3, r5, r8}	; <UNPREDICTABLE>
     cc0:	0b3a0e03 	bleq	e844d4 <__bss_end__+0xe797bc>
     cc4:	1927053b 	stmdbne	r7!, {r0, r1, r3, r4, r5, r8, sl}
     cc8:	06120111 			; <UNDEFINED> instruction: 0x06120111
     ccc:	42971840 	addsmi	r1, r7, #64, 16	; 0x400000
     cd0:	00130119 	andseq	r0, r3, r9, lsl r1
     cd4:	00051600 	andeq	r1, r5, r0, lsl #12
     cd8:	0b3a0803 	bleq	e82cec <__bss_end__+0xe77fd4>
     cdc:	1349053b 	movtne	r0, #38203	; 0x953b
     ce0:	00001702 	andeq	r1, r0, r2, lsl #14
     ce4:	03003417 	movweq	r3, #1047	; 0x417
     ce8:	3b0b3a0e 	blcc	2cf528 <__bss_end__+0x2c4810>
     cec:	02134905 	andseq	r4, r3, #81920	; 0x14000
     cf0:	18000017 	stmdane	r0, {r0, r1, r2, r4}
     cf4:	0111010b 	tsteq	r1, fp, lsl #2
     cf8:	13010612 	movwne	r0, #5650	; 0x1612
     cfc:	34190000 	ldrcc	r0, [r9], #-0
     d00:	3a0e0300 	bcc	381908 <__bss_end__+0x376bf0>
     d04:	490b3b0b 	stmdbmi	fp, {r0, r1, r3, r8, r9, fp, ip, sp}
     d08:	02193f13 	andseq	r3, r9, #19, 30	; 0x4c
     d0c:	1a000018 	bne	d74 <_start-0x728c>
     d10:	0e030034 	mcreq	0, 0, r0, cr3, cr4, {1}
     d14:	053b0b3a 	ldreq	r0, [fp, #-2874]!	; 0xb3a
     d18:	193f1349 	ldmdbne	pc!, {r0, r3, r6, r8, r9, ip}	; <UNPREDICTABLE>
     d1c:	00001802 	andeq	r1, r0, r2, lsl #16
     d20:	3f012e1b 	svccc	0x00012e1b
     d24:	3a0e0319 	bcc	381990 <__bss_end__+0x376c78>
     d28:	270b3b0b 	strcs	r3, [fp, -fp, lsl #22]
     d2c:	3c134919 	ldccc	9, cr4, [r3], {25}
     d30:	00130119 	andseq	r0, r3, r9, lsl r1
     d34:	00051c00 	andeq	r1, r5, r0, lsl #24
     d38:	00001349 	andeq	r1, r0, r9, asr #6
     d3c:	4900261d 	stmdbmi	r0, {r0, r2, r3, r4, r9, sl, sp}
     d40:	1e000013 	mcrne	0, 0, r0, cr0, cr3, {0}
     d44:	00000035 	andeq	r0, r0, r5, lsr r0
     d48:	3f012e1f 	svccc	0x00012e1f
     d4c:	3a0e0319 	bcc	3819b8 <__bss_end__+0x376ca0>
     d50:	270b3b0b 	strcs	r3, [fp, -fp, lsl #22]
     d54:	01193c19 	tsteq	r9, r9, lsl ip
     d58:	20000013 	andcs	r0, r0, r3, lsl r0
     d5c:	193f002e 	ldmdbne	pc!, {r1, r2, r3, r5}	; <UNPREDICTABLE>
     d60:	0b3a0e03 	bleq	e84574 <__bss_end__+0xe7985c>
     d64:	19270b3b 	stmdbne	r7!, {r0, r1, r3, r4, r5, r8, r9, fp}
     d68:	0000193c 	andeq	r1, r0, ip, lsr r9
     d6c:	01110100 	tsteq	r1, r0, lsl #2
     d70:	0b130e25 	bleq	4c460c <__bss_end__+0x4b98f4>
     d74:	0e1b0e03 	cdpeq	14, 1, cr0, cr11, cr3, {0}
     d78:	06120111 			; <UNDEFINED> instruction: 0x06120111
     d7c:	00001710 	andeq	r1, r0, r0, lsl r7
     d80:	0b002402 	bleq	9d90 <sw_uart_init_helper+0x90>
     d84:	030b3e0b 	movweq	r3, #48651	; 0xbe0b
     d88:	03000008 	movweq	r0, #8
     d8c:	0b0b0024 	bleq	2c0e24 <__bss_end__+0x2b610c>
     d90:	0e030b3e 	vmoveq.16	d3[0], r0
     d94:	16040000 	strne	r0, [r4], -r0
     d98:	3a0e0300 	bcc	3819a0 <__bss_end__+0x376c88>
     d9c:	490b3b0b 	stmdbmi	fp, {r0, r1, r3, r8, r9, fp, ip, sp}
     da0:	05000013 	streq	r0, [r0, #-19]
     da4:	0b0b000f 	bleq	2c0de8 <__bss_end__+0x2b60d0>
     da8:	0f060000 	svceq	0x00060000
     dac:	490b0b00 	stmdbmi	fp, {r8, r9, fp}
     db0:	07000013 	smladeq	r0, r3, r0, r0
     db4:	13490026 	movtne	r0, #36902	; 0x9026
     db8:	13080000 	movwne	r0, #32768	; 0x8000
     dbc:	3a0b0b01 	bcc	2c39c8 <__bss_end__+0x2b8cb0>
     dc0:	010b3b0b 	tsteq	fp, fp, lsl #22
     dc4:	09000013 	stmdbeq	r0, {r0, r1, r4}
     dc8:	0803000d 	stmdaeq	r3, {r0, r2, r3}
     dcc:	0b3b0b3a 	bleq	ec3abc <__bss_end__+0xeb8da4>
     dd0:	0b381349 	bleq	e05afc <__bss_end__+0xdfade4>
     dd4:	0d0a0000 	stceq	0, cr0, [sl, #-0]
     dd8:	3a0e0300 	bcc	3819e0 <__bss_end__+0x376cc8>
     ddc:	490b3b0b 	stmdbmi	fp, {r0, r1, r3, r8, r9, fp, ip, sp}
     de0:	000b3813 	andeq	r3, fp, r3, lsl r8
     de4:	01130b00 	tsteq	r3, r0, lsl #22
     de8:	0b0b0e03 	bleq	2c45fc <__bss_end__+0x2b98e4>
     dec:	0b3b0b3a 	bleq	ec3adc <__bss_end__+0xeb8dc4>
     df0:	00001301 	andeq	r1, r0, r1, lsl #6
     df4:	03000d0c 	movweq	r0, #3340	; 0xd0c
     df8:	3813490e 	ldmdacc	r3, {r1, r2, r3, r8, fp, lr}
     dfc:	0019340b 	andseq	r3, r9, fp, lsl #8
     e00:	012e0d00 	teqeq	lr, r0, lsl #26
     e04:	0b3a0e03 	bleq	e84618 <__bss_end__+0xe79900>
     e08:	19270b3b 	stmdbne	r7!, {r0, r1, r3, r4, r5, r8, r9, fp}
     e0c:	13010b20 	movwne	r0, #6944	; 0x1b20
     e10:	050e0000 	streq	r0, [lr, #-0]
     e14:	3a0e0300 	bcc	381a1c <__bss_end__+0x376d04>
     e18:	490b3b0b 	stmdbmi	fp, {r0, r1, r3, r8, r9, fp, ip, sp}
     e1c:	0f000013 	svceq	0x00000013
     e20:	08030005 	stmdaeq	r3, {r0, r2}
     e24:	0b3b0b3a 	bleq	ec3b14 <__bss_end__+0xeb8dfc>
     e28:	00001349 	andeq	r1, r0, r9, asr #6
     e2c:	00010b10 	andeq	r0, r1, r0, lsl fp
     e30:	00341100 	eorseq	r1, r4, r0, lsl #2
     e34:	0b3a0e03 	bleq	e84648 <__bss_end__+0xe79930>
     e38:	13490b3b 	movtne	r0, #39739	; 0x9b3b
     e3c:	2e120000 	cdpcs	0, 1, cr0, cr2, cr0, {0}
     e40:	03193f01 	tsteq	r9, #1, 30
     e44:	3b0b3a0e 	blcc	2cf684 <__bss_end__+0x2c496c>
     e48:	1119270b 	tstne	r9, fp, lsl #14
     e4c:	40061201 	andmi	r1, r6, r1, lsl #4
     e50:	19429718 	stmdbne	r2, {r3, r4, r8, r9, sl, ip, pc}^
     e54:	00001301 	andeq	r1, r0, r1, lsl #6
     e58:	03000513 	movweq	r0, #1299	; 0x513
     e5c:	3b0b3a0e 	blcc	2cf69c <__bss_end__+0x2c4984>
     e60:	0213490b 	andseq	r4, r3, #180224	; 0x2c000
     e64:	14000017 	strne	r0, [r0], #-23
     e68:	08030005 	stmdaeq	r3, {r0, r2}
     e6c:	0b3b0b3a 	bleq	ec3b5c <__bss_end__+0xeb8e44>
     e70:	17021349 	strne	r1, [r2, -r9, asr #6]
     e74:	34150000 	ldrcc	r0, [r5], #-0
     e78:	3a080300 	bcc	201a80 <__bss_end__+0x1f6d68>
     e7c:	490b3b0b 	stmdbmi	fp, {r0, r1, r3, r8, r9, fp, ip, sp}
     e80:	00180213 	andseq	r0, r8, r3, lsl r2
     e84:	00341600 	eorseq	r1, r4, r0, lsl #12
     e88:	0b3a0803 	bleq	e82e9c <__bss_end__+0xe78184>
     e8c:	13490b3b 	movtne	r0, #39739	; 0x9b3b
     e90:	00001702 	andeq	r1, r0, r2, lsl #14
     e94:	11010b17 	tstne	r1, r7, lsl fp
     e98:	01061201 	tsteq	r6, r1, lsl #4
     e9c:	18000013 	stmdane	r0, {r0, r1, r4}
     ea0:	0e030034 	mcreq	0, 0, r0, cr3, cr4, {1}
     ea4:	0b3b0b3a 	bleq	ec3b94 <__bss_end__+0xeb8e7c>
     ea8:	18021349 	stmdane	r2, {r0, r3, r6, r8, r9, ip}
     eac:	1d190000 	ldcne	0, cr0, [r9, #-0]
     eb0:	11133101 	tstne	r3, r1, lsl #2
     eb4:	58061201 	stmdapl	r6, {r0, r9, ip}
     eb8:	010b590b 	tsteq	fp, fp, lsl #18
     ebc:	1a000013 	bne	f10 <_start-0x70f0>
     ec0:	13310005 	teqne	r1, #5
     ec4:	00001702 	andeq	r1, r0, r2, lsl #14
     ec8:	3100051b 	tstcc	r0, fp, lsl r5
     ecc:	00180213 	andseq	r0, r8, r3, lsl r2
     ed0:	00051c00 	andeq	r1, r5, r0, lsl #24
     ed4:	0b1c1331 	bleq	705ba0 <__bss_end__+0x6fae88>
     ed8:	0b1d0000 	bleq	740ee0 <__bss_end__+0x7361c8>
     edc:	12011101 	andne	r1, r1, #1073741824	; 0x40000000
     ee0:	1e000006 	cdpne	0, 0, cr0, cr0, cr6, {0}
     ee4:	13310034 	teqne	r1, #52	; 0x34
     ee8:	00001702 	andeq	r1, r0, r2, lsl #14
     eec:	0182891f 	orreq	r8, r2, pc, lsl r9
     ef0:	31011101 	tstcc	r1, r1, lsl #2
     ef4:	20000013 	andcs	r0, r0, r3, lsl r0
     ef8:	0001828a 	andeq	r8, r1, sl, lsl #5
     efc:	42911802 	addsmi	r1, r1, #131072	; 0x20000
     f00:	21000018 	tstcs	r0, r8, lsl r0
     f04:	1331011d 	teqne	r1, #1073741831	; 0x40000007
     f08:	06120111 			; <UNDEFINED> instruction: 0x06120111
     f0c:	0b590b58 	bleq	1643c74 <__bss_end__+0x1638f5c>
     f10:	2e220000 	cdpcs	0, 2, cr0, cr2, cr0, {0}
     f14:	3a0e0301 	bcc	381b20 <__bss_end__+0x376e08>
     f18:	270b3b0b 	strcs	r3, [fp, -fp, lsl #22]
     f1c:	20134919 	andscs	r4, r3, r9, lsl r9
     f20:	0013010b 	andseq	r0, r3, fp, lsl #2
     f24:	012e2300 	teqeq	lr, r0, lsl #6
     f28:	0e03193f 	mcreq	9, 0, r1, cr3, cr15, {1}
     f2c:	0b3b0b3a 	bleq	ec3c1c <__bss_end__+0xeb8f04>
     f30:	13491927 	movtne	r1, #39207	; 0x9927
     f34:	06120111 			; <UNDEFINED> instruction: 0x06120111
     f38:	42971840 	addsmi	r1, r7, #64, 16	; 0x400000
     f3c:	00130119 	andseq	r0, r3, r9, lsl r1
     f40:	82892400 	addhi	r2, r9, #0, 8
     f44:	01110001 	tsteq	r1, r1
     f48:	00001331 	andeq	r1, r0, r1, lsr r3
     f4c:	01828925 	orreq	r8, r2, r5, lsr #18
     f50:	31011101 	tstcc	r1, r1, lsl #2
     f54:	00130113 	andseq	r0, r3, r3, lsl r1
     f58:	00342600 	eorseq	r2, r4, r0, lsl #12
     f5c:	0b3a0e03 	bleq	e84770 <__bss_end__+0xe79a58>
     f60:	13490b3b 	movtne	r0, #39739	; 0x9b3b
     f64:	00001702 	andeq	r1, r0, r2, lsl #14
     f68:	31000527 	tstcc	r0, r7, lsr #10
     f6c:	28000013 	stmdacs	r0, {r0, r1, r4}
     f70:	0e030005 	cdpeq	0, 0, cr0, cr3, cr5, {0}
     f74:	0b3b0b3a 	bleq	ec3c64 <__bss_end__+0xeb8f4c>
     f78:	18021349 	stmdane	r2, {r0, r3, r6, r8, r9, ip}
     f7c:	34290000 	strtcc	r0, [r9], #-0
     f80:	490e0300 	stmdbmi	lr, {r8, r9}
     f84:	02193413 	andseq	r3, r9, #318767104	; 0x13000000
     f88:	2a000018 	bcs	ff0 <_start-0x7010>
     f8c:	13490101 	movtne	r0, #37121	; 0x9101
     f90:	00001301 	andeq	r1, r0, r1, lsl #6
     f94:	4900212b 	stmdbmi	r0, {r0, r1, r3, r5, r8, sp}
     f98:	000b2f13 	andeq	r2, fp, r3, lsl pc
     f9c:	00342c00 	eorseq	r2, r4, r0, lsl #24
     fa0:	0b3a0803 	bleq	e82fb4 <__bss_end__+0xe7829c>
     fa4:	13490b3b 	movtne	r0, #39739	; 0x9b3b
     fa8:	0000061c 	andeq	r0, r0, ip, lsl r6
     fac:	0300342d 	movweq	r3, #1069	; 0x42d
     fb0:	3b0b3a08 	blcc	2cf7d8 <__bss_end__+0x2c4ac0>
     fb4:	1c13490b 	ldcne	9, cr4, [r3], {11}
     fb8:	2e00000b 	cdpcs	0, 0, cr0, cr0, cr11, {0}
     fbc:	08030005 	stmdaeq	r3, {r0, r2}
     fc0:	0b3b0b3a 	bleq	ec3cb0 <__bss_end__+0xeb8f98>
     fc4:	18021349 	stmdane	r2, {r0, r3, r6, r8, r9, ip}
     fc8:	182f0000 	stmdane	pc!, {}	; <UNPREDICTABLE>
     fcc:	30000000 	andcc	r0, r0, r0
     fd0:	13490021 	movtne	r0, #36897	; 0x9021
     fd4:	0000052f 	andeq	r0, r0, pc, lsr #10
     fd8:	3f012e31 	svccc	0x00012e31
     fdc:	3a0e0319 	bcc	381c48 <__bss_end__+0x376f30>
     fe0:	270b3b0b 	strcs	r3, [fp, -fp, lsl #22]
     fe4:	01193c19 	tsteq	r9, r9, lsl ip
     fe8:	32000013 	andcc	r0, r0, #19
     fec:	13490005 	movtne	r0, #36869	; 0x9005
     ff0:	2e330000 	cdpcs	0, 3, cr0, cr3, cr0, {0}
     ff4:	03193f00 	tsteq	r9, #0, 30
     ff8:	3b0b3a0e 	blcc	2cf838 <__bss_end__+0x2c4b20>
     ffc:	4919270b 	ldmdbmi	r9, {r0, r1, r3, r8, r9, sl, sp}
    1000:	00193c13 	andseq	r3, r9, r3, lsl ip
    1004:	012e3400 	teqeq	lr, r0, lsl #8
    1008:	0e03193f 	mcreq	9, 0, r1, cr3, cr15, {1}
    100c:	0b3b0b3a 	bleq	ec3cfc <__bss_end__+0xeb8fe4>
    1010:	13491927 	movtne	r1, #39207	; 0x9927
    1014:	1301193c 	movwne	r1, #6460	; 0x193c
    1018:	2e350000 	cdpcs	0, 3, cr0, cr5, cr0, {0}
    101c:	03193f00 	tsteq	r9, #0, 30
    1020:	3b0b3a0e 	blcc	2cf860 <__bss_end__+0x2c4b48>
    1024:	3c19270b 	ldccc	7, cr2, [r9], {11}
    1028:	36000019 			; <UNDEFINED> instruction: 0x36000019
    102c:	193f012e 	ldmdbne	pc!, {r1, r2, r3, r5, r8}	; <UNPREDICTABLE>
    1030:	0b3a0e03 	bleq	e84844 <__bss_end__+0xe79b2c>
    1034:	19270b3b 	stmdbne	r7!, {r0, r1, r3, r4, r5, r8, r9, fp}
    1038:	193c1349 	ldmdbne	ip!, {r0, r3, r6, r8, r9, ip}
    103c:	01000000 	mrseq	r0, (UNDEF: 0)
    1040:	0e250111 	mcreq	1, 1, r0, cr5, cr1, {0}
    1044:	0e030b13 	vmoveq.32	d3[0], r0
    1048:	01110e1b 	tsteq	r1, fp, lsl lr
    104c:	17100612 			; <UNDEFINED> instruction: 0x17100612
    1050:	24020000 	strcs	r0, [r2], #-0
    1054:	3e0b0b00 	vmlacc.f64	d0, d11, d0
    1058:	0008030b 	andeq	r0, r8, fp, lsl #6
    105c:	00240300 	eoreq	r0, r4, r0, lsl #6
    1060:	0b3e0b0b 	bleq	f83c94 <__bss_end__+0xf78f7c>
    1064:	00000e03 	andeq	r0, r0, r3, lsl #28
    1068:	0b010404 	bleq	42080 <__bss_end__+0x37368>
    106c:	3b0b3a0b 	blcc	2cf8a0 <__bss_end__+0x2c4b88>
    1070:	0013010b 	andseq	r0, r3, fp, lsl #2
    1074:	00280500 	eoreq	r0, r8, r0, lsl #10
    1078:	0d1c0e03 	ldceq	14, cr0, [ip, #-12]
    107c:	16060000 	strne	r0, [r6], -r0
    1080:	3a0e0300 	bcc	381c88 <__bss_end__+0x376f70>
    1084:	490b3b0b 	stmdbmi	fp, {r0, r1, r3, r8, r9, fp, ip, sp}
    1088:	07000013 	smladeq	r0, r3, r0, r0
    108c:	193f012e 	ldmdbne	pc!, {r1, r2, r3, r5, r8}	; <UNPREDICTABLE>
    1090:	0b3a0e03 	bleq	e848a4 <__bss_end__+0xe79b8c>
    1094:	19270b3b 	stmdbne	r7!, {r0, r1, r3, r4, r5, r8, r9, fp}
    1098:	06120111 			; <UNDEFINED> instruction: 0x06120111
    109c:	42971840 	addsmi	r1, r7, #64, 16	; 0x400000
    10a0:	00130119 	andseq	r0, r3, r9, lsl r1
    10a4:	82890800 	addhi	r0, r9, #0, 16
    10a8:	01110001 	tsteq	r1, r1
    10ac:	00001331 	andeq	r1, r0, r1, lsr r3
    10b0:	01828909 	orreq	r8, r2, r9, lsl #18
    10b4:	31011101 	tstcc	r1, r1, lsl #2
    10b8:	00130113 	andseq	r0, r3, r3, lsl r1
    10bc:	828a0a00 	addhi	r0, sl, #0, 20
    10c0:	18020001 	stmdane	r2, {r0}
    10c4:	00184291 	mulseq	r8, r1, r2
    10c8:	012e0b00 	teqeq	lr, r0, lsl #22
    10cc:	0e03193f 	mcreq	9, 0, r1, cr3, cr15, {1}
    10d0:	0b3b0b3a 	bleq	ec3dc0 <__bss_end__+0xeb90a8>
    10d4:	13491927 	movtne	r1, #39207	; 0x9927
    10d8:	06120111 			; <UNDEFINED> instruction: 0x06120111
    10dc:	42971840 	addsmi	r1, r7, #64, 16	; 0x400000
    10e0:	00130119 	andseq	r0, r3, r9, lsl r1
    10e4:	00050c00 	andeq	r0, r5, r0, lsl #24
    10e8:	0b3a0803 	bleq	e830fc <__bss_end__+0xe783e4>
    10ec:	13490b3b 	movtne	r0, #39739	; 0x9b3b
    10f0:	00001702 	andeq	r1, r0, r2, lsl #14
    10f4:	0182890d 	orreq	r8, r2, sp, lsl #18
    10f8:	31011101 	tstcc	r1, r1, lsl #2
    10fc:	0e000013 	mcreq	0, 0, r0, cr0, cr3, {0}
    1100:	0e030034 	mcreq	0, 0, r0, cr3, cr4, {1}
    1104:	0b3b0b3a 	bleq	ec3df4 <__bss_end__+0xeb90dc>
    1108:	193f1349 	ldmdbne	pc!, {r0, r3, r6, r8, r9, ip}	; <UNPREDICTABLE>
    110c:	00001802 	andeq	r1, r0, r2, lsl #16
    1110:	0b000f0f 	bleq	4d54 <_start-0x32ac>
    1114:	0013490b 	andseq	r4, r3, fp, lsl #18
    1118:	00351000 	eorseq	r1, r5, r0
    111c:	00001349 	andeq	r1, r0, r9, asr #6
    1120:	3f002e11 	svccc	0x00002e11
    1124:	3a0e0319 	bcc	381d90 <__bss_end__+0x377078>
    1128:	270b3b0b 	strcs	r3, [fp, -fp, lsl #22]
    112c:	00193c19 	andseq	r3, r9, r9, lsl ip
    1130:	012e1200 	teqeq	lr, r0, lsl #4
    1134:	0e03193f 	mcreq	9, 0, r1, cr3, cr15, {1}
    1138:	0b3b0b3a 	bleq	ec3e28 <__bss_end__+0xeb9110>
    113c:	193c1927 	ldmdbne	ip!, {r0, r1, r2, r5, r8, fp, ip}
    1140:	00001301 	andeq	r1, r0, r1, lsl #6
    1144:	49000513 	stmdbmi	r0, {r0, r1, r4, r8, sl}
    1148:	14000013 	strne	r0, [r0], #-19
    114c:	193f012e 	ldmdbne	pc!, {r1, r2, r3, r5, r8}	; <UNPREDICTABLE>
    1150:	0b3a0e03 	bleq	e84964 <__bss_end__+0xe79c4c>
    1154:	19270b3b 	stmdbne	r7!, {r0, r1, r3, r4, r5, r8, r9, fp}
    1158:	193c1349 	ldmdbne	ip!, {r0, r3, r6, r8, r9, ip}
    115c:	00001301 	andeq	r1, r0, r1, lsl #6
    1160:	49002615 	stmdbmi	r0, {r0, r2, r4, r9, sl, sp}
    1164:	16000013 			; <UNDEFINED> instruction: 0x16000013
    1168:	00000035 	andeq	r0, r0, r5, lsr r0
    116c:	01110100 	tsteq	r1, r0, lsl #2
    1170:	0b130e25 	bleq	4c4a0c <__bss_end__+0x4b9cf4>
    1174:	0e1b0e03 	cdpeq	14, 1, cr0, cr11, cr3, {0}
    1178:	06120111 			; <UNDEFINED> instruction: 0x06120111
    117c:	00001710 	andeq	r1, r0, r0, lsl r7
    1180:	0b002402 	bleq	a190 <system_disable_interrupts+0x4>
    1184:	030b3e0b 	movweq	r3, #48651	; 0xbe0b
    1188:	03000008 	movweq	r0, #8
    118c:	0b0b0024 	bleq	2c1224 <__bss_end__+0x2b650c>
    1190:	0e030b3e 	vmoveq.16	d3[0], r0
    1194:	0f040000 	svceq	0x00040000
    1198:	490b0b00 	stmdbmi	fp, {r8, r9, fp}
    119c:	05000013 	streq	r0, [r0, #-19]
    11a0:	13490026 	movtne	r0, #36902	; 0x9026
    11a4:	04060000 	streq	r0, [r6], #-0
    11a8:	3a0b0b01 	bcc	2c3db4 <__bss_end__+0x2b909c>
    11ac:	010b3b0b 	tsteq	fp, fp, lsl #22
    11b0:	07000013 	smladeq	r0, r3, r0, r0
    11b4:	0e030028 	cdpeq	0, 0, cr0, cr3, cr8, {1}
    11b8:	00000d1c 	andeq	r0, r0, ip, lsl sp
    11bc:	3f012e08 	svccc	0x00012e08
    11c0:	3a0e0319 	bcc	381e2c <__bss_end__+0x377114>
    11c4:	270b3b0b 	strcs	r3, [fp, -fp, lsl #22]
    11c8:	12011119 	andne	r1, r1, #1073741830	; 0x40000006
    11cc:	97184006 	ldrls	r4, [r8, -r6]
    11d0:	13011942 	movwne	r1, #6466	; 0x1942
    11d4:	34090000 	strcc	r0, [r9], #-0
    11d8:	3a0e0300 	bcc	381de0 <__bss_end__+0x3770c8>
    11dc:	490b3b0b 	stmdbmi	fp, {r0, r1, r3, r8, r9, fp, ip, sp}
    11e0:	3c193f13 	ldccc	15, cr3, [r9], {19}
    11e4:	0a000019 	beq	1250 <_start-0x6db0>
    11e8:	08030034 	stmdaeq	r3, {r2, r4, r5}
    11ec:	0b3b0b3a 	bleq	ec3edc <__bss_end__+0xeb91c4>
    11f0:	0b1c1349 	bleq	705f1c <__bss_end__+0x6fb204>
    11f4:	340b0000 	strcc	r0, [fp], #-0
    11f8:	3a080300 	bcc	201e00 <__bss_end__+0x1f70e8>
    11fc:	490b3b0b 	stmdbmi	fp, {r0, r1, r3, r8, r9, fp, ip, sp}
    1200:	0c000013 	stceq	0, cr0, [r0], {19}
    1204:	08030034 	stmdaeq	r3, {r2, r4, r5}
    1208:	0b3b0b3a 	bleq	ec3ef8 <__bss_end__+0xeb91e0>
    120c:	18021349 	stmdane	r2, {r0, r3, r6, r8, r9, ip}
    1210:	0b0d0000 	bleq	341218 <__bss_end__+0x336500>
    1214:	12011101 	andne	r1, r1, #1073741824	; 0x40000000
    1218:	00130106 	andseq	r0, r3, r6, lsl #2
    121c:	00340e00 	eorseq	r0, r4, r0, lsl #28
    1220:	0b3a0803 	bleq	e83234 <__bss_end__+0xe7851c>
    1224:	13490b3b 	movtne	r0, #39739	; 0x9b3b
    1228:	00001702 	andeq	r1, r0, r2, lsl #14
    122c:	0182890f 	orreq	r8, r2, pc, lsl #18
    1230:	31011101 	tstcc	r1, r1, lsl #2
    1234:	00130113 	andseq	r0, r3, r3, lsl r1
    1238:	828a1000 	addhi	r1, sl, #0
    123c:	18020001 	stmdane	r2, {r0}
    1240:	00184291 	mulseq	r8, r1, r2
    1244:	82891100 	addhi	r1, r9, #0, 2
    1248:	01110001 	tsteq	r1, r1
    124c:	00001331 	andeq	r1, r0, r1, lsr r3
    1250:	03000512 	movweq	r0, #1298	; 0x512
    1254:	3b0b3a08 	blcc	2cfa7c <__bss_end__+0x2c4d64>
    1258:	0213490b 	andseq	r4, r3, #180224	; 0x2c000
    125c:	13000017 	movwne	r0, #23
    1260:	0e030034 	mcreq	0, 0, r0, cr3, cr4, {1}
    1264:	19341349 	ldmdbne	r4!, {r0, r3, r6, r8, r9, ip}
    1268:	00001802 	andeq	r1, r0, r2, lsl #16
    126c:	49010114 	stmdbmi	r1, {r2, r4, r8}
    1270:	00130113 	andseq	r0, r3, r3, lsl r1
    1274:	00211500 	eoreq	r1, r1, r0, lsl #10
    1278:	0b2f1349 	bleq	bc5fa4 <__bss_end__+0xbbb28c>
    127c:	2e160000 	cdpcs	0, 1, cr0, cr6, cr0, {0}
    1280:	03193f01 	tsteq	r9, #1, 30
    1284:	3b0b3a0e 	blcc	2cfac4 <__bss_end__+0x2c4dac>
    1288:	3c19270b 	ldccc	7, cr2, [r9], {11}
    128c:	00130119 	andseq	r0, r3, r9, lsl r1
    1290:	00051700 	andeq	r1, r5, r0, lsl #14
    1294:	00001349 	andeq	r1, r0, r9, asr #6
    1298:	3f002e18 	svccc	0x00002e18
    129c:	3a0e0319 	bcc	381f08 <__bss_end__+0x3771f0>
    12a0:	270b3b0b 	strcs	r3, [fp, -fp, lsl #22]
    12a4:	00193c19 	andseq	r3, r9, r9, lsl ip
    12a8:	012e1900 	teqeq	lr, r0, lsl #18
    12ac:	0e03193f 	mcreq	9, 0, r1, cr3, cr15, {1}
    12b0:	0b3b0b3a 	bleq	ec3fa0 <__bss_end__+0xeb9288>
    12b4:	13491927 	movtne	r1, #39207	; 0x9927
    12b8:	1301193c 	movwne	r1, #6460	; 0x193c
    12bc:	181a0000 	ldmdane	sl, {}	; <UNPREDICTABLE>
    12c0:	00000000 	andeq	r0, r0, r0
    12c4:	25011101 	strcs	r1, [r1, #-257]	; 0x101
    12c8:	030b130e 	movweq	r1, #45838	; 0xb30e
    12cc:	110e1b0e 	tstne	lr, lr, lsl #22
    12d0:	10061201 	andne	r1, r6, r1, lsl #4
    12d4:	02000017 	andeq	r0, r0, #23
    12d8:	0b0b0024 	bleq	2c1370 <__bss_end__+0x2b6658>
    12dc:	08030b3e 	stmdaeq	r3, {r1, r2, r3, r4, r5, r8, r9, fp}
    12e0:	16030000 	strne	r0, [r3], -r0
    12e4:	3a0e0300 	bcc	381eec <__bss_end__+0x3771d4>
    12e8:	490b3b0b 	stmdbmi	fp, {r0, r1, r3, r8, r9, fp, ip, sp}
    12ec:	04000013 	streq	r0, [r0], #-19
    12f0:	0b0b0024 	bleq	2c1388 <__bss_end__+0x2b6670>
    12f4:	0e030b3e 	vmoveq.16	d3[0], r0
    12f8:	0f050000 	svceq	0x00050000
    12fc:	000b0b00 	andeq	r0, fp, r0, lsl #22
    1300:	01130600 	tsteq	r3, r0, lsl #12
    1304:	0b3a0b0b 	bleq	e83f38 <__bss_end__+0xe79220>
    1308:	13010b3b 	movwne	r0, #6971	; 0x1b3b
    130c:	0d070000 	stceq	0, cr0, [r7, #-0]
    1310:	3a080300 	bcc	201f18 <__bss_end__+0x1f7200>
    1314:	490b3b0b 	stmdbmi	fp, {r0, r1, r3, r8, r9, fp, ip, sp}
    1318:	000b3813 	andeq	r3, fp, r3, lsl r8
    131c:	000d0800 	andeq	r0, sp, r0, lsl #16
    1320:	0b3a0e03 	bleq	e84b34 <__bss_end__+0xe79e1c>
    1324:	13490b3b 	movtne	r0, #39739	; 0x9b3b
    1328:	00000b38 	andeq	r0, r0, r8, lsr fp
    132c:	0b010409 	bleq	42358 <__bss_end__+0x37640>
    1330:	3b0b3a0b 	blcc	2cfb64 <__bss_end__+0x2c4e4c>
    1334:	0013010b 	andseq	r0, r3, fp, lsl #2
    1338:	00280a00 	eoreq	r0, r8, r0, lsl #20
    133c:	0d1c0e03 	ldceq	14, cr0, [ip, #-12]
    1340:	2e0b0000 	cdpcs	0, 0, cr0, cr11, cr0, {0}
    1344:	03193f01 	tsteq	r9, #1, 30
    1348:	3b0b3a0e 	blcc	2cfb88 <__bss_end__+0x2c4e70>
    134c:	4919270b 	ldmdbmi	r9, {r0, r1, r3, r8, r9, sl, sp}
    1350:	12011113 	andne	r1, r1, #-1073741820	; 0xc0000004
    1354:	97184006 	ldrls	r4, [r8, -r6]
    1358:	13011942 	movwne	r1, #6466	; 0x1942
    135c:	340c0000 	strcc	r0, [ip], #-0
    1360:	3a080300 	bcc	201f68 <__bss_end__+0x1f7250>
    1364:	490b3b0b 	stmdbmi	fp, {r0, r1, r3, r8, r9, fp, ip, sp}
    1368:	00061c13 	andeq	r1, r6, r3, lsl ip
    136c:	82890d00 	addhi	r0, r9, #0, 26
    1370:	01110101 	tsteq	r1, r1, lsl #2
    1374:	00001331 	andeq	r1, r0, r1, lsr r3
    1378:	01828a0e 	orreq	r8, r2, lr, lsl #20
    137c:	91180200 	tstls	r8, r0, lsl #4
    1380:	00001842 	andeq	r1, r0, r2, asr #16
    1384:	0b000f0f 	bleq	4fc8 <_start-0x3038>
    1388:	0013490b 	andseq	r4, r3, fp, lsl #18
    138c:	012e1000 	teqeq	lr, r0
    1390:	0e03193f 	mcreq	9, 0, r1, cr3, cr15, {1}
    1394:	0b3b0b3a 	bleq	ec4084 <__bss_end__+0xeb936c>
    1398:	13491927 	movtne	r1, #39207	; 0x9927
    139c:	0000193c 	andeq	r1, r0, ip, lsr r9
    13a0:	49000511 	stmdbmi	r0, {r0, r4, r8, sl}
    13a4:	00000013 	andeq	r0, r0, r3, lsl r0
    13a8:	25011101 	strcs	r1, [r1, #-257]	; 0x101
    13ac:	030b130e 	movweq	r1, #45838	; 0xb30e
    13b0:	110e1b0e 	tstne	lr, lr, lsl #22
    13b4:	10061201 	andne	r1, r6, r1, lsl #4
    13b8:	02000017 	andeq	r0, r0, #23
    13bc:	0b0b0024 	bleq	2c1454 <__bss_end__+0x2b673c>
    13c0:	08030b3e 	stmdaeq	r3, {r1, r2, r3, r4, r5, r8, r9, fp}
    13c4:	24030000 	strcs	r0, [r3], #-0
    13c8:	3e0b0b00 	vmlacc.f64	d0, d11, d0
    13cc:	000e030b 	andeq	r0, lr, fp, lsl #6
    13d0:	000f0400 	andeq	r0, pc, r0, lsl #8
    13d4:	13490b0b 	movtne	r0, #39691	; 0x9b0b
    13d8:	26050000 	strcs	r0, [r5], -r0
    13dc:	00134900 	andseq	r4, r3, r0, lsl #18
    13e0:	012e0600 	teqeq	lr, r0, lsl #12
    13e4:	0e03193f 	mcreq	9, 0, r1, cr3, cr15, {1}
    13e8:	0b3b0b3a 	bleq	ec40d8 <__bss_end__+0xeb93c0>
    13ec:	01111927 	tsteq	r1, r7, lsr #18
    13f0:	18400612 	stmdane	r0, {r1, r4, r9, sl}^
    13f4:	01194297 			; <UNDEFINED> instruction: 0x01194297
    13f8:	07000013 	smladeq	r0, r3, r0, r0
    13fc:	08030005 	stmdaeq	r3, {r0, r2}
    1400:	0b3b0b3a 	bleq	ec40f0 <__bss_end__+0xeb93d8>
    1404:	17021349 	strne	r1, [r2, -r9, asr #6]
    1408:	34080000 	strcc	r0, [r8], #-0
    140c:	490e0300 	stmdbmi	lr, {r8, r9}
    1410:	02193413 	andseq	r3, r9, #318767104	; 0x13000000
    1414:	09000018 	stmdbeq	r0, {r3, r4}
    1418:	00018289 	andeq	r8, r1, r9, lsl #5
    141c:	13310111 	teqne	r1, #1073741828	; 0x40000004
    1420:	890a0000 	stmdbhi	sl, {}	; <UNPREDICTABLE>
    1424:	11010182 	smlabbne	r1, r2, r1, r0
    1428:	01133101 	tsteq	r3, r1, lsl #2
    142c:	0b000013 	bleq	1480 <_start-0x6b80>
    1430:	0001828a 	andeq	r8, r1, sl, lsl #5
    1434:	42911802 	addsmi	r1, r1, #131072	; 0x20000
    1438:	0c000018 	stceq	0, cr0, [r0], {24}
    143c:	13490101 	movtne	r0, #37121	; 0x9101
    1440:	00001301 	andeq	r1, r0, r1, lsl #6
    1444:	4900210d 	stmdbmi	r0, {r0, r2, r3, r8, sp}
    1448:	000b2f13 	andeq	r2, fp, r3, lsl pc
    144c:	002e0e00 	eoreq	r0, lr, r0, lsl #28
    1450:	0e03193f 	mcreq	9, 0, r1, cr3, cr15, {1}
    1454:	0b3b0b3a 	bleq	ec4144 <__bss_end__+0xeb942c>
    1458:	193c1927 	ldmdbne	ip!, {r0, r1, r2, r5, r8, fp, ip}
    145c:	2e0f0000 	cdpcs	0, 0, cr0, cr15, cr0, {0}
    1460:	03193f01 	tsteq	r9, #1, 30
    1464:	3b0b3a0e 	blcc	2cfca4 <__bss_end__+0x2c4f8c>
    1468:	4919270b 	ldmdbmi	r9, {r0, r1, r3, r8, r9, sl, sp}
    146c:	01193c13 	tsteq	r9, r3, lsl ip
    1470:	10000013 	andne	r0, r0, r3, lsl r0
    1474:	13490005 	movtne	r0, #36869	; 0x9005
    1478:	18110000 	ldmdane	r1, {}	; <UNPREDICTABLE>
    147c:	00000000 	andeq	r0, r0, r0
    1480:	25011101 	strcs	r1, [r1, #-257]	; 0x101
    1484:	030b130e 	movweq	r1, #45838	; 0xb30e
    1488:	110e1b0e 	tstne	lr, lr, lsl #22
    148c:	10061201 	andne	r1, r6, r1, lsl #4
    1490:	02000017 	andeq	r0, r0, #23
    1494:	0b0b0024 	bleq	2c152c <__bss_end__+0x2b6814>
    1498:	08030b3e 	stmdaeq	r3, {r1, r2, r3, r4, r5, r8, r9, fp}
    149c:	24030000 	strcs	r0, [r3], #-0
    14a0:	3e0b0b00 	vmlacc.f64	d0, d11, d0
    14a4:	000e030b 	andeq	r0, lr, fp, lsl #6
    14a8:	000f0400 	andeq	r0, pc, r0, lsl #8
    14ac:	13490b0b 	movtne	r0, #39691	; 0x9b0b
    14b0:	26050000 	strcs	r0, [r5], -r0
    14b4:	00134900 	andseq	r4, r3, r0, lsl #18
    14b8:	012e0600 	teqeq	lr, r0, lsl #12
    14bc:	0e03193f 	mcreq	9, 0, r1, cr3, cr15, {1}
    14c0:	0b3b0b3a 	bleq	ec41b0 <__bss_end__+0xeb9498>
    14c4:	01111927 	tsteq	r1, r7, lsr #18
    14c8:	18400612 	stmdane	r0, {r1, r4, r9, sl}^
    14cc:	01194297 			; <UNDEFINED> instruction: 0x01194297
    14d0:	07000013 	smladeq	r0, r3, r0, r0
    14d4:	08030005 	stmdaeq	r3, {r0, r2}
    14d8:	0b3b0b3a 	bleq	ec41c8 <__bss_end__+0xeb94b0>
    14dc:	17021349 	strne	r1, [r2, -r9, asr #6]
    14e0:	34080000 	strcc	r0, [r8], #-0
    14e4:	490e0300 	stmdbmi	lr, {r8, r9}
    14e8:	02193413 	andseq	r3, r9, #318767104	; 0x13000000
    14ec:	09000018 	stmdbeq	r0, {r3, r4}
    14f0:	00018289 	andeq	r8, r1, r9, lsl #5
    14f4:	13310111 	teqne	r1, #1073741828	; 0x40000004
    14f8:	890a0000 	stmdbhi	sl, {}	; <UNPREDICTABLE>
    14fc:	11010182 	smlabbne	r1, r2, r1, r0
    1500:	01133101 	tsteq	r3, r1, lsl #2
    1504:	0b000013 	bleq	1558 <_start-0x6aa8>
    1508:	0001828a 	andeq	r8, r1, sl, lsl #5
    150c:	42911802 	addsmi	r1, r1, #131072	; 0x20000
    1510:	0c000018 	stceq	0, cr0, [r0], {24}
    1514:	13490101 	movtne	r0, #37121	; 0x9101
    1518:	00001301 	andeq	r1, r0, r1, lsl #6
    151c:	4900210d 	stmdbmi	r0, {r0, r2, r3, r8, sp}
    1520:	000b2f13 	andeq	r2, fp, r3, lsl pc
    1524:	002e0e00 	eoreq	r0, lr, r0, lsl #28
    1528:	0e03193f 	mcreq	9, 0, r1, cr3, cr15, {1}
    152c:	0b3b0b3a 	bleq	ec421c <__bss_end__+0xeb9504>
    1530:	193c1927 	ldmdbne	ip!, {r0, r1, r2, r5, r8, fp, ip}
    1534:	2e0f0000 	cdpcs	0, 0, cr0, cr15, cr0, {0}
    1538:	03193f01 	tsteq	r9, #1, 30
    153c:	3b0b3a0e 	blcc	2cfd7c <__bss_end__+0x2c5064>
    1540:	4919270b 	ldmdbmi	r9, {r0, r1, r3, r8, r9, sl, sp}
    1544:	01193c13 	tsteq	r9, r3, lsl ip
    1548:	10000013 	andne	r0, r0, r3, lsl r0
    154c:	13490005 	movtne	r0, #36869	; 0x9005
    1550:	18110000 	ldmdane	r1, {}	; <UNPREDICTABLE>
    1554:	00000000 	andeq	r0, r0, r0
    1558:	25011101 	strcs	r1, [r1, #-257]	; 0x101
    155c:	030b130e 	movweq	r1, #45838	; 0xb30e
    1560:	110e1b0e 	tstne	lr, lr, lsl #22
    1564:	10061201 	andne	r1, r6, r1, lsl #4
    1568:	02000017 	andeq	r0, r0, #23
    156c:	0b0b0024 	bleq	2c1604 <__bss_end__+0x2b68ec>
    1570:	08030b3e 	stmdaeq	r3, {r1, r2, r3, r4, r5, r8, r9, fp}
    1574:	24030000 	strcs	r0, [r3], #-0
    1578:	3e0b0b00 	vmlacc.f64	d0, d11, d0
    157c:	000e030b 	andeq	r0, lr, fp, lsl #6
    1580:	000f0400 	andeq	r0, pc, r0, lsl #8
    1584:	13490b0b 	movtne	r0, #39691	; 0x9b0b
    1588:	26050000 	strcs	r0, [r5], -r0
    158c:	00134900 	andseq	r4, r3, r0, lsl #18
    1590:	012e0600 	teqeq	lr, r0, lsl #12
    1594:	0e03193f 	mcreq	9, 0, r1, cr3, cr15, {1}
    1598:	0b3b0b3a 	bleq	ec4288 <__bss_end__+0xeb9570>
    159c:	01111927 	tsteq	r1, r7, lsr #18
    15a0:	18400612 	stmdane	r0, {r1, r4, r9, sl}^
    15a4:	01194297 			; <UNDEFINED> instruction: 0x01194297
    15a8:	07000013 	smladeq	r0, r3, r0, r0
    15ac:	08030005 	stmdaeq	r3, {r0, r2}
    15b0:	0b3b0b3a 	bleq	ec42a0 <__bss_end__+0xeb9588>
    15b4:	17021349 	strne	r1, [r2, -r9, asr #6]
    15b8:	34080000 	strcc	r0, [r8], #-0
    15bc:	490e0300 	stmdbmi	lr, {r8, r9}
    15c0:	02193413 	andseq	r3, r9, #318767104	; 0x13000000
    15c4:	09000018 	stmdbeq	r0, {r3, r4}
    15c8:	00018289 	andeq	r8, r1, r9, lsl #5
    15cc:	13310111 	teqne	r1, #1073741828	; 0x40000004
    15d0:	890a0000 	stmdbhi	sl, {}	; <UNPREDICTABLE>
    15d4:	11010182 	smlabbne	r1, r2, r1, r0
    15d8:	01133101 	tsteq	r3, r1, lsl #2
    15dc:	0b000013 	bleq	1630 <_start-0x69d0>
    15e0:	0001828a 	andeq	r8, r1, sl, lsl #5
    15e4:	42911802 	addsmi	r1, r1, #131072	; 0x20000
    15e8:	0c000018 	stceq	0, cr0, [r0], {24}
    15ec:	13490101 	movtne	r0, #37121	; 0x9101
    15f0:	00001301 	andeq	r1, r0, r1, lsl #6
    15f4:	4900210d 	stmdbmi	r0, {r0, r2, r3, r8, sp}
    15f8:	000b2f13 	andeq	r2, fp, r3, lsl pc
    15fc:	002e0e00 	eoreq	r0, lr, r0, lsl #28
    1600:	0e03193f 	mcreq	9, 0, r1, cr3, cr15, {1}
    1604:	0b3b0b3a 	bleq	ec42f4 <__bss_end__+0xeb95dc>
    1608:	193c1927 	ldmdbne	ip!, {r0, r1, r2, r5, r8, fp, ip}
    160c:	2e0f0000 	cdpcs	0, 0, cr0, cr15, cr0, {0}
    1610:	03193f01 	tsteq	r9, #1, 30
    1614:	3b0b3a0e 	blcc	2cfe54 <__bss_end__+0x2c513c>
    1618:	4919270b 	ldmdbmi	r9, {r0, r1, r3, r8, r9, sl, sp}
    161c:	01193c13 	tsteq	r9, r3, lsl ip
    1620:	10000013 	andne	r0, r0, r3, lsl r0
    1624:	13490005 	movtne	r0, #36869	; 0x9005
    1628:	18110000 	ldmdane	r1, {}	; <UNPREDICTABLE>
    162c:	00000000 	andeq	r0, r0, r0
    1630:	25011101 	strcs	r1, [r1, #-257]	; 0x101
    1634:	030b130e 	movweq	r1, #45838	; 0xb30e
    1638:	110e1b0e 	tstne	lr, lr, lsl #22
    163c:	10061201 	andne	r1, r6, r1, lsl #4
    1640:	02000017 	andeq	r0, r0, #23
    1644:	0b0b0024 	bleq	2c16dc <__bss_end__+0x2b69c4>
    1648:	08030b3e 	stmdaeq	r3, {r1, r2, r3, r4, r5, r8, r9, fp}
    164c:	24030000 	strcs	r0, [r3], #-0
    1650:	3e0b0b00 	vmlacc.f64	d0, d11, d0
    1654:	000e030b 	andeq	r0, lr, fp, lsl #6
    1658:	000f0400 	andeq	r0, pc, r0, lsl #8
    165c:	13490b0b 	movtne	r0, #39691	; 0x9b0b
    1660:	26050000 	strcs	r0, [r5], -r0
    1664:	00134900 	andseq	r4, r3, r0, lsl #18
    1668:	012e0600 	teqeq	lr, r0, lsl #12
    166c:	0e03193f 	mcreq	9, 0, r1, cr3, cr15, {1}
    1670:	0b3b0b3a 	bleq	ec4360 <__bss_end__+0xeb9648>
    1674:	01111927 	tsteq	r1, r7, lsr #18
    1678:	18400612 	stmdane	r0, {r1, r4, r9, sl}^
    167c:	01194297 			; <UNDEFINED> instruction: 0x01194297
    1680:	07000013 	smladeq	r0, r3, r0, r0
    1684:	08030005 	stmdaeq	r3, {r0, r2}
    1688:	0b3b0b3a 	bleq	ec4378 <__bss_end__+0xeb9660>
    168c:	17021349 	strne	r1, [r2, -r9, asr #6]
    1690:	34080000 	strcc	r0, [r8], #-0
    1694:	490e0300 	stmdbmi	lr, {r8, r9}
    1698:	02193413 	andseq	r3, r9, #318767104	; 0x13000000
    169c:	09000018 	stmdbeq	r0, {r3, r4}
    16a0:	00018289 	andeq	r8, r1, r9, lsl #5
    16a4:	13310111 	teqne	r1, #1073741828	; 0x40000004
    16a8:	890a0000 	stmdbhi	sl, {}	; <UNPREDICTABLE>
    16ac:	11010182 	smlabbne	r1, r2, r1, r0
    16b0:	01133101 	tsteq	r3, r1, lsl #2
    16b4:	0b000013 	bleq	1708 <_start-0x68f8>
    16b8:	0001828a 	andeq	r8, r1, sl, lsl #5
    16bc:	42911802 	addsmi	r1, r1, #131072	; 0x20000
    16c0:	0c000018 	stceq	0, cr0, [r0], {24}
    16c4:	13490101 	movtne	r0, #37121	; 0x9101
    16c8:	00001301 	andeq	r1, r0, r1, lsl #6
    16cc:	4900210d 	stmdbmi	r0, {r0, r2, r3, r8, sp}
    16d0:	000b2f13 	andeq	r2, fp, r3, lsl pc
    16d4:	002e0e00 	eoreq	r0, lr, r0, lsl #28
    16d8:	0e03193f 	mcreq	9, 0, r1, cr3, cr15, {1}
    16dc:	0b3b0b3a 	bleq	ec43cc <__bss_end__+0xeb96b4>
    16e0:	193c1927 	ldmdbne	ip!, {r0, r1, r2, r5, r8, fp, ip}
    16e4:	2e0f0000 	cdpcs	0, 0, cr0, cr15, cr0, {0}
    16e8:	03193f01 	tsteq	r9, #1, 30
    16ec:	3b0b3a0e 	blcc	2cff2c <__bss_end__+0x2c5214>
    16f0:	4919270b 	ldmdbmi	r9, {r0, r1, r3, r8, r9, sl, sp}
    16f4:	01193c13 	tsteq	r9, r3, lsl ip
    16f8:	10000013 	andne	r0, r0, r3, lsl r0
    16fc:	13490005 	movtne	r0, #36869	; 0x9005
    1700:	18110000 	ldmdane	r1, {}	; <UNPREDICTABLE>
    1704:	00000000 	andeq	r0, r0, r0
    1708:	25011101 	strcs	r1, [r1, #-257]	; 0x101
    170c:	030b130e 	movweq	r1, #45838	; 0xb30e
    1710:	110e1b0e 	tstne	lr, lr, lsl #22
    1714:	10061201 	andne	r1, r6, r1, lsl #4
    1718:	02000017 	andeq	r0, r0, #23
    171c:	0b0b0024 	bleq	2c17b4 <__bss_end__+0x2b6a9c>
    1720:	0e030b3e 	vmoveq.16	d3[0], r0
    1724:	24030000 	strcs	r0, [r3], #-0
    1728:	3e0b0b00 	vmlacc.f64	d0, d11, d0
    172c:	0008030b 	andeq	r0, r8, fp, lsl #6
    1730:	000f0400 	andeq	r0, pc, r0, lsl #8
    1734:	00000b0b 	andeq	r0, r0, fp, lsl #22
    1738:	0b000f05 	bleq	5354 <_start-0x2cac>
    173c:	0013490b 	andseq	r4, r3, fp, lsl #18
    1740:	00160600 	andseq	r0, r6, r0, lsl #12
    1744:	0b3a0e03 	bleq	e84f58 <__bss_end__+0xe7a240>
    1748:	13490b3b 	movtne	r0, #39739	; 0x9b3b
    174c:	2e070000 	cdpcs	0, 0, cr0, cr7, cr0, {0}
    1750:	03193f01 	tsteq	r9, #1, 30
    1754:	3b0b3a0e 	blcc	2cff94 <__bss_end__+0x2c527c>
    1758:	4919270b 	ldmdbmi	r9, {r0, r1, r3, r8, r9, sl, sp}
    175c:	12011113 	andne	r1, r1, #-1073741820	; 0xc0000004
    1760:	97184006 	ldrls	r4, [r8, -r6]
    1764:	00001942 	andeq	r1, r0, r2, asr #18
    1768:	03000508 	movweq	r0, #1288	; 0x508
    176c:	3b0b3a08 	blcc	2cff94 <__bss_end__+0x2c527c>
    1770:	0213490b 	andseq	r4, r3, #180224	; 0x2c000
    1774:	09000018 	stmdbeq	r0, {r3, r4}
    1778:	08030005 	stmdaeq	r3, {r0, r2}
    177c:	0b3b0b3a 	bleq	ec446c <__bss_end__+0xeb9754>
    1780:	17021349 	strne	r1, [r2, -r9, asr #6]
    1784:	340a0000 	strcc	r0, [sl], #-0
    1788:	3a080300 	bcc	202390 <__bss_end__+0x1f7678>
    178c:	490b3b0b 	stmdbmi	fp, {r0, r1, r3, r8, r9, fp, ip, sp}
    1790:	00170213 	andseq	r0, r7, r3, lsl r2
    1794:	00340b00 	eorseq	r0, r4, r0, lsl #22
    1798:	0b3a0803 	bleq	e837ac <__bss_end__+0xe78a94>
    179c:	13490b3b 	movtne	r0, #39739	; 0x9b3b
    17a0:	00001802 	andeq	r1, r0, r2, lsl #16
	...

Disassembly of section .debug_loc:

00000000 <.debug_loc>:
       0:	00000000 	andeq	r0, r0, r0
       4:	0000000f 	andeq	r0, r0, pc
       8:	0f500001 	svceq	0x00500001
       c:	28000000 	stmdacs	r0, {}	; <UNPREDICTABLE>
      10:	04000000 	streq	r0, [r0], #-0
      14:	5001f300 	andpl	pc, r1, r0, lsl #6
      18:	0000289f 	muleq	r0, pc, r8	; <UNPREDICTABLE>
      1c:	00003400 	andeq	r3, r0, r0, lsl #8
      20:	50000100 	andpl	r0, r0, r0, lsl #2
      24:	00000034 	andeq	r0, r0, r4, lsr r0
      28:	00000050 	andeq	r0, r0, r0, asr r0
      2c:	01f30004 	mvnseq	r0, r4
      30:	00009f50 	andeq	r9, r0, r0, asr pc
      34:	00000000 	andeq	r0, r0, r0
      38:	003c0000 	eorseq	r0, ip, r0
      3c:	00400000 	subeq	r0, r0, r0
      40:	00010000 	andeq	r0, r1, r0
      44:	00000050 	andeq	r0, r0, r0, asr r0
      48:	00000000 	andeq	r0, r0, r0
      4c:	00005000 	andeq	r5, r0, r0
      50:	00006800 	andeq	r6, r0, r0, lsl #16
      54:	50000100 	andpl	r0, r0, r0, lsl #2
      58:	00000068 	andeq	r0, r0, r8, rrx
      5c:	000002dc 	ldrdeq	r0, [r0], -ip
      60:	01f30004 	mvnseq	r0, r4
      64:	00009f50 	andeq	r9, r0, r0, asr pc
      68:	00000000 	andeq	r0, r0, r0
      6c:	00500000 	subseq	r0, r0, r0
      70:	02540000 	subseq	r0, r4, #0
      74:	00010000 	andeq	r0, r1, r0
      78:	00025451 	andeq	r5, r2, r1, asr r4
      7c:	00026000 	andeq	r6, r2, r0
      80:	f3000400 	vshl.u8	d0, d0, d0
      84:	609f5101 	addsvs	r5, pc, r1, lsl #2
      88:	68000002 	stmdavs	r0, {r1}
      8c:	01000002 	tsteq	r0, r2
      90:	02685100 	rsbeq	r5, r8, #0, 2
      94:	02dc0000 	sbcseq	r0, ip, #0
      98:	00040000 	andeq	r0, r4, r0
      9c:	9f5101f3 	svcls	0x005101f3
	...
      a8:	00000050 	andeq	r0, r0, r0, asr r0
      ac:	0000005c 	andeq	r0, r0, ip, asr r0
      b0:	5c520001 	mrrcpl	0, 0, r0, r2, cr1
      b4:	dc000000 	stcle	0, cr0, [r0], {-0}
      b8:	04000002 	streq	r0, [r0], #-2
      bc:	5201f300 	andpl	pc, r1, #0, 6
      c0:	0000009f 	muleq	r0, pc, r0	; <UNPREDICTABLE>
      c4:	00000000 	andeq	r0, r0, r0
      c8:	00005800 	andeq	r5, r0, r0, lsl #16
      cc:	00006800 	andeq	r6, r0, r0, lsl #16
      d0:	50000100 	andpl	r0, r0, r0, lsl #2
      d4:	00000068 	andeq	r0, r0, r8, rrx
      d8:	000002dc 	ldrdeq	r0, [r0], -ip
      dc:	01f30004 	mvnseq	r0, r4
      e0:	00009f50 	andeq	r9, r0, r0, asr pc
      e4:	00000000 	andeq	r0, r0, r0
      e8:	00780000 	rsbseq	r0, r8, r0
      ec:	007c0000 	rsbseq	r0, ip, r0
      f0:	00010000 	andeq	r0, r1, r0
      f4:	00000052 	andeq	r0, r0, r2, asr r0
      f8:	00000000 	andeq	r0, r0, r0
      fc:	00008400 	andeq	r8, r0, r0, lsl #8
     100:	00025400 	andeq	r5, r2, r0, lsl #8
     104:	71000900 	tstvc	r0, r0, lsl #18
     108:	1a800800 	bne	fe002110 <__bss_end__+0xfdff73f8>
     10c:	9f1aff08 	svcls	0x001aff08
     110:	00000260 	andeq	r0, r0, r0, ror #4
     114:	00000268 	andeq	r0, r0, r8, ror #4
     118:	00710009 	rsbseq	r0, r1, r9
     11c:	081a8008 	ldmdaeq	sl, {r3, pc}
     120:	009f1aff 			; <UNDEFINED> instruction: 0x009f1aff
     124:	00000000 	andeq	r0, r0, r0
     128:	8c000000 	stchi	0, cr0, [r0], {-0}
     12c:	a0000000 	andge	r0, r0, r0
     130:	04000000 	streq	r0, [r0], #-0
     134:	5001f300 	andpl	pc, r1, r0, lsl #6
     138:	0000009f 	muleq	r0, pc, r0	; <UNPREDICTABLE>
     13c:	00000000 	andeq	r0, r0, r0
     140:	0000a000 	andeq	sl, r0, r0
     144:	0000b000 	andeq	fp, r0, r0
     148:	f3000400 	vshl.u8	d0, d0, d0
     14c:	009f5001 	addseq	r5, pc, r1
     150:	00000000 	andeq	r0, r0, r0
     154:	b8000000 	stmdalt	r0, {}	; <UNPREDICTABLE>
     158:	bc000000 	stclt	0, cr0, [r0], {-0}
     15c:	01000000 	mrseq	r0, (UNDEF: 0)
     160:	00005200 	andeq	r5, r0, r0, lsl #4
     164:	00000000 	andeq	r0, r0, r0
     168:	00c40000 	sbceq	r0, r4, r0
     16c:	02540000 	subseq	r0, r4, #0
     170:	00090000 	andeq	r0, r9, r0
     174:	40080071 	andmi	r0, r8, r1, ror r0
     178:	1aff081a 	bne	fffc21e8 <__bss_end__+0xfffb74d0>
     17c:	0002609f 	muleq	r2, pc, r0	; <UNPREDICTABLE>
     180:	00026800 	andeq	r6, r2, r0, lsl #16
     184:	71000900 	tstvc	r0, r0, lsl #18
     188:	1a400800 	bne	1002190 <__bss_end__+0xff7478>
     18c:	9f1aff08 	svcls	0x001aff08
	...
     198:	000000cc 	andeq	r0, r0, ip, asr #1
     19c:	000000e0 	andeq	r0, r0, r0, ror #1
     1a0:	01f30004 	mvnseq	r0, r4
     1a4:	00009f50 	andeq	r9, r0, r0, asr pc
     1a8:	00000000 	andeq	r0, r0, r0
     1ac:	00e00000 	rsceq	r0, r0, r0
     1b0:	00f00000 	rscseq	r0, r0, r0
     1b4:	00040000 	andeq	r0, r4, r0
     1b8:	9f5001f3 	svcls	0x005001f3
	...
     1c4:	000000f8 	strdeq	r0, [r0], -r8
     1c8:	000000fc 	strdeq	r0, [r0], -ip
     1cc:	00520001 	subseq	r0, r2, r1
     1d0:	00000000 	andeq	r0, r0, r0
     1d4:	04000000 	streq	r0, [r0], #-0
     1d8:	54000001 	strpl	r0, [r0], #-1
     1dc:	09000002 	stmdbeq	r0, {r1}
     1e0:	08007100 	stmdaeq	r0, {r8, ip, sp, lr}
     1e4:	ff081a20 			; <UNDEFINED> instruction: 0xff081a20
     1e8:	02609f1a 	rsbeq	r9, r0, #26, 30	; 0x68
     1ec:	02680000 	rsbeq	r0, r8, #0
     1f0:	00090000 	andeq	r0, r9, r0
     1f4:	20080071 	andcs	r0, r8, r1, ror r0
     1f8:	1aff081a 	bne	fffc2268 <__bss_end__+0xfffb7550>
     1fc:	0000009f 	muleq	r0, pc, r0	; <UNPREDICTABLE>
     200:	00000000 	andeq	r0, r0, r0
     204:	00010c00 	andeq	r0, r1, r0, lsl #24
     208:	00012000 	andeq	r2, r1, r0
     20c:	f3000400 	vshl.u8	d0, d0, d0
     210:	009f5001 	addseq	r5, pc, r1
     214:	00000000 	andeq	r0, r0, r0
     218:	20000000 	andcs	r0, r0, r0
     21c:	30000001 	andcc	r0, r0, r1
     220:	04000001 	streq	r0, [r0], #-1
     224:	5001f300 	andpl	pc, r1, r0, lsl #6
     228:	0000009f 	muleq	r0, pc, r0	; <UNPREDICTABLE>
     22c:	00000000 	andeq	r0, r0, r0
     230:	00013800 	andeq	r3, r1, r0, lsl #16
     234:	00013c00 	andeq	r3, r1, r0, lsl #24
     238:	52000100 	andpl	r0, r0, #0, 2
	...
     244:	00000144 	andeq	r0, r0, r4, asr #2
     248:	00000254 	andeq	r0, r0, r4, asr r2
     24c:	00710008 	rsbseq	r0, r1, r8
     250:	ff081a40 			; <UNDEFINED> instruction: 0xff081a40
     254:	02609f1a 	rsbeq	r9, r0, #26, 30	; 0x68
     258:	02680000 	rsbeq	r0, r8, #0
     25c:	00080000 	andeq	r0, r8, r0
     260:	1a400071 	bne	100042c <__bss_end__+0xff5714>
     264:	9f1aff08 	svcls	0x001aff08
	...
     270:	0000014c 	andeq	r0, r0, ip, asr #2
     274:	00000160 	andeq	r0, r0, r0, ror #2
     278:	01f30004 	mvnseq	r0, r4
     27c:	00009f50 	andeq	r9, r0, r0, asr pc
     280:	00000000 	andeq	r0, r0, r0
     284:	01600000 	cmneq	r0, r0
     288:	01700000 	cmneq	r0, r0
     28c:	00040000 	andeq	r0, r4, r0
     290:	9f5001f3 	svcls	0x005001f3
	...
     29c:	00000178 	andeq	r0, r0, r8, ror r1
     2a0:	0000017c 	andeq	r0, r0, ip, ror r1
     2a4:	00520001 	subseq	r0, r2, r1
     2a8:	00000000 	andeq	r0, r0, r0
     2ac:	84000000 	strhi	r0, [r0], #-0
     2b0:	54000001 	strpl	r0, [r0], #-1
     2b4:	08000002 	stmdaeq	r0, {r1}
     2b8:	38007100 	stmdacc	r0, {r8, ip, sp, lr}
     2bc:	1aff081a 	bne	fffc232c <__bss_end__+0xfffb7614>
     2c0:	0002609f 	muleq	r2, pc, r0	; <UNPREDICTABLE>
     2c4:	00026800 	andeq	r6, r2, r0, lsl #16
     2c8:	71000800 	tstvc	r0, r0, lsl #16
     2cc:	081a3800 	ldmdaeq	sl, {fp, ip, sp}
     2d0:	009f1aff 			; <UNDEFINED> instruction: 0x009f1aff
     2d4:	00000000 	andeq	r0, r0, r0
     2d8:	8c000000 	stchi	0, cr0, [r0], {-0}
     2dc:	a0000001 	andge	r0, r0, r1
     2e0:	04000001 	streq	r0, [r0], #-1
     2e4:	5001f300 	andpl	pc, r1, r0, lsl #6
     2e8:	0000009f 	muleq	r0, pc, r0	; <UNPREDICTABLE>
     2ec:	00000000 	andeq	r0, r0, r0
     2f0:	0001a000 	andeq	sl, r1, r0
     2f4:	0001b000 	andeq	fp, r1, r0
     2f8:	f3000400 	vshl.u8	d0, d0, d0
     2fc:	009f5001 	addseq	r5, pc, r1
     300:	00000000 	andeq	r0, r0, r0
     304:	b8000000 	stmdalt	r0, {}	; <UNPREDICTABLE>
     308:	bc000001 	stclt	0, cr0, [r0], {1}
     30c:	01000001 	tsteq	r0, r1
     310:	00005200 	andeq	r5, r0, r0, lsl #4
     314:	00000000 	andeq	r0, r0, r0
     318:	01c40000 	biceq	r0, r4, r0
     31c:	02540000 	subseq	r0, r4, #0
     320:	00080000 	andeq	r0, r8, r0
     324:	1a340071 	bne	d004f0 <__bss_end__+0xcf57d8>
     328:	9f1aff08 	svcls	0x001aff08
     32c:	00000260 	andeq	r0, r0, r0, ror #4
     330:	00000268 	andeq	r0, r0, r8, ror #4
     334:	00710008 	rsbseq	r0, r1, r8
     338:	ff081a34 			; <UNDEFINED> instruction: 0xff081a34
     33c:	00009f1a 	andeq	r9, r0, sl, lsl pc
     340:	00000000 	andeq	r0, r0, r0
     344:	01cc0000 	biceq	r0, ip, r0
     348:	01e00000 	mvneq	r0, r0
     34c:	00040000 	andeq	r0, r4, r0
     350:	9f5001f3 	svcls	0x005001f3
	...
     35c:	000001e0 	andeq	r0, r0, r0, ror #3
     360:	000001f0 	strdeq	r0, [r0], -r0	; <UNPREDICTABLE>
     364:	01f30004 	mvnseq	r0, r4
     368:	00009f50 	andeq	r9, r0, r0, asr pc
     36c:	00000000 	andeq	r0, r0, r0
     370:	01f80000 	mvnseq	r0, r0
     374:	01fc0000 	mvnseq	r0, r0
     378:	00010000 	andeq	r0, r1, r0
     37c:	00000052 	andeq	r0, r0, r2, asr r0
     380:	00000000 	andeq	r0, r0, r0
     384:	00020400 	andeq	r0, r2, r0, lsl #8
     388:	00025400 	andeq	r5, r2, r0, lsl #8
     38c:	71000800 	tstvc	r0, r0, lsl #16
     390:	081a3200 	ldmdaeq	sl, {r9, ip, sp}
     394:	609f1aff 			; <UNDEFINED> instruction: 0x609f1aff
     398:	68000002 	stmdavs	r0, {r1}
     39c:	08000002 	stmdaeq	r0, {r1}
     3a0:	32007100 	andcc	r7, r0, #0, 2
     3a4:	1aff081a 	bne	fffc2414 <__bss_end__+0xfffb76fc>
     3a8:	0000009f 	muleq	r0, pc, r0	; <UNPREDICTABLE>
     3ac:	00000000 	andeq	r0, r0, r0
     3b0:	00020c00 	andeq	r0, r2, r0, lsl #24
     3b4:	00022000 	andeq	r2, r2, r0
     3b8:	f3000400 	vshl.u8	d0, d0, d0
     3bc:	009f5001 	addseq	r5, pc, r1
     3c0:	00000000 	andeq	r0, r0, r0
     3c4:	20000000 	andcs	r0, r0, r0
     3c8:	30000002 	andcc	r0, r0, r2
     3cc:	04000002 	streq	r0, [r0], #-2
     3d0:	5001f300 	andpl	pc, r1, r0, lsl #6
     3d4:	0000009f 	muleq	r0, pc, r0	; <UNPREDICTABLE>
     3d8:	00000000 	andeq	r0, r0, r0
     3dc:	00023800 	andeq	r3, r2, r0, lsl #16
     3e0:	00023c00 	andeq	r3, r2, r0, lsl #24
     3e4:	52000100 	andpl	r0, r0, #0, 2
	...
     3f0:	00000244 	andeq	r0, r0, r4, asr #4
     3f4:	00000254 	andeq	r0, r0, r4, asr r2
     3f8:	00710008 	rsbseq	r0, r1, r8
     3fc:	ff081a31 			; <UNDEFINED> instruction: 0xff081a31
     400:	02609f1a 	rsbeq	r9, r0, #26, 30	; 0x68
     404:	02680000 	rsbeq	r0, r8, #0
     408:	00080000 	andeq	r0, r8, r0
     40c:	1a310071 	bne	c405d8 <__bss_end__+0xc358c0>
     410:	9f1aff08 	svcls	0x001aff08
	...
     41c:	0000024c 	andeq	r0, r0, ip, asr #4
     420:	00000260 	andeq	r0, r0, r0, ror #4
     424:	01f30004 	mvnseq	r0, r4
     428:	00009f50 	andeq	r9, r0, r0, asr pc
     42c:	00000000 	andeq	r0, r0, r0
     430:	02600000 	rsbeq	r0, r0, #0
     434:	02700000 	rsbseq	r0, r0, #0
     438:	00040000 	andeq	r0, r4, r0
     43c:	9f5001f3 	svcls	0x005001f3
	...
     448:	00000278 	andeq	r0, r0, r8, ror r2
     44c:	0000027c 	andeq	r0, r0, ip, ror r2
     450:	00520001 	subseq	r0, r2, r1
     454:	00000000 	andeq	r0, r0, r0
     458:	9c000000 	stcls	0, cr0, [r0], {-0}
     45c:	a0000002 	andge	r0, r0, r2
     460:	01000002 	tsteq	r0, r2
     464:	00005200 	andeq	r5, r0, r0, lsl #4
     468:	00000000 	andeq	r0, r0, r0
     46c:	02dc0000 	sbcseq	r0, ip, #0
     470:	02ec0000 	rsceq	r0, ip, #0
     474:	00010000 	andeq	r0, r1, r0
     478:	0002ec50 	andeq	lr, r2, r0, asr ip
     47c:	0003a400 	andeq	sl, r3, r0, lsl #8
     480:	56000100 	strpl	r0, [r0], -r0, lsl #2
	...
     48c:	000002dc 	ldrdeq	r0, [r0], -ip
     490:	000002ef 	andeq	r0, r0, pc, ror #5
     494:	ef510001 	svc	0x00510001
     498:	a4000002 	strge	r0, [r0], #-2
     49c:	04000003 	streq	r0, [r0], #-3
     4a0:	5101f300 	mrspl	pc, SP_irq	; <UNPREDICTABLE>
     4a4:	0000009f 	muleq	r0, pc, r0	; <UNPREDICTABLE>
     4a8:	00000000 	andeq	r0, r0, r0
     4ac:	0002dc00 	andeq	sp, r2, r0, lsl #24
     4b0:	0002ef00 	andeq	lr, r2, r0, lsl #30
     4b4:	52000100 	andpl	r0, r0, #0, 2
     4b8:	000002ef 	andeq	r0, r0, pc, ror #5
     4bc:	000003a4 	andeq	r0, r0, r4, lsr #7
     4c0:	00550001 	subseq	r0, r5, r1
     4c4:	00000000 	andeq	r0, r0, r0
     4c8:	a4000000 	strge	r0, [r0], #-0
     4cc:	34000003 	strcc	r0, [r0], #-3
     4d0:	01000005 	tsteq	r0, r5
     4d4:	05345000 	ldreq	r5, [r4, #-0]!
     4d8:	0adc0000 	beq	ff7004e0 <__bss_end__+0xff6f57c8>
     4dc:	00040000 	andeq	r0, r4, r0
     4e0:	9f5001f3 	svcls	0x005001f3
	...
     4ec:	000003a8 	andeq	r0, r0, r8, lsr #7
     4f0:	000003f8 	strdeq	r0, [r0], -r8
     4f4:	9f300002 	svcls	0x00300002
     4f8:	000003f8 	strdeq	r0, [r0], -r8
     4fc:	00000540 	andeq	r0, r0, r0, asr #10
     500:	405c0001 	subsmi	r0, ip, r1
     504:	ec000005 	stc	0, cr0, [r0], {5}
     508:	01000006 	tsteq	r0, r6
     50c:	00005000 	andeq	r5, r0, r0
     510:	00000000 	andeq	r0, r0, r0
     514:	03ac0000 			; <UNDEFINED> instruction: 0x03ac0000
     518:	055c0000 	ldrbeq	r0, [ip, #-0]
     51c:	00010000 	andeq	r0, r1, r0
     520:	00000053 	andeq	r0, r0, r3, asr r0
     524:	00000000 	andeq	r0, r0, r0
     528:	0003c400 	andeq	ip, r3, r0, lsl #8
     52c:	0003c800 	andeq	ip, r3, r0, lsl #16
     530:	52000100 	andpl	r0, r0, #0, 2
	...
     53c:	000003d8 	ldrdeq	r0, [r0], -r8
     540:	000003dc 	ldrdeq	r0, [r0], -ip
     544:	00520001 	subseq	r0, r2, r1
	...
     550:	04000004 	streq	r0, [r0], #-4
     554:	01000004 	tsteq	r0, r4
     558:	00005200 	andeq	r5, r0, r0, lsl #4
     55c:	00000000 	andeq	r0, r0, r0
     560:	04300000 	ldrteq	r0, [r0], #-0
     564:	04340000 	ldrteq	r0, [r4], #-0
     568:	00010000 	andeq	r0, r1, r0
     56c:	00000052 	andeq	r0, r0, r2, asr r0
     570:	00000000 	andeq	r0, r0, r0
     574:	00046000 	andeq	r6, r4, r0
     578:	00046400 	andeq	r6, r4, r0, lsl #8
     57c:	52000100 	andpl	r0, r0, #0, 2
	...
     588:	00000490 	muleq	r0, r0, r4
     58c:	00000494 	muleq	r0, r4, r4
     590:	00520001 	subseq	r0, r2, r1
     594:	00000000 	andeq	r0, r0, r0
     598:	c0000000 	andgt	r0, r0, r0
     59c:	c4000004 	strgt	r0, [r0], #-4
     5a0:	01000004 	tsteq	r0, r4
     5a4:	00005200 	andeq	r5, r0, r0, lsl #4
     5a8:	00000000 	andeq	r0, r0, r0
     5ac:	04f00000 	ldrbteq	r0, [r0], #0
     5b0:	04f40000 	ldrbteq	r0, [r4], #0
     5b4:	00010000 	andeq	r0, r1, r0
     5b8:	00000052 	andeq	r0, r0, r2, asr r0
     5bc:	00000000 	andeq	r0, r0, r0
     5c0:	00052000 	andeq	r2, r5, r0
     5c4:	00052400 	andeq	r2, r5, r0, lsl #8
     5c8:	52000100 	andpl	r0, r0, #0, 2
	...
     5d4:	00000548 	andeq	r0, r0, r8, asr #10
     5d8:	0000054c 	andeq	r0, r0, ip, asr #10
     5dc:	00520001 	subseq	r0, r2, r1
     5e0:	00000000 	andeq	r0, r0, r0
     5e4:	60000000 	andvs	r0, r0, r0
     5e8:	b0000005 	andlt	r0, r0, r5
     5ec:	02000005 	andeq	r0, r0, #5
     5f0:	b09f3000 	addslt	r3, pc, r0
     5f4:	f8000005 			; <UNDEFINED> instruction: 0xf8000005
     5f8:	01000006 	tsteq	r0, r6
     5fc:	06f85c00 	ldrbteq	r5, [r8], r0, lsl #24
     600:	08a80000 	stmiaeq	r8!, {}	; <UNPREDICTABLE>
     604:	00010000 	andeq	r0, r1, r0
     608:	00000050 	andeq	r0, r0, r0, asr r0
     60c:	00000000 	andeq	r0, r0, r0
     610:	00056400 	andeq	r6, r5, r0, lsl #8
     614:	00071000 	andeq	r1, r7, r0
     618:	53000100 	movwpl	r0, #256	; 0x100
	...
     624:	0000057c 	andeq	r0, r0, ip, ror r5
     628:	00000580 	andeq	r0, r0, r0, lsl #11
     62c:	00520001 	subseq	r0, r2, r1
     630:	00000000 	andeq	r0, r0, r0
     634:	90000000 	andls	r0, r0, r0
     638:	94000005 	strls	r0, [r0], #-5
     63c:	01000005 	tsteq	r0, r5
     640:	00005200 	andeq	r5, r0, r0, lsl #4
     644:	00000000 	andeq	r0, r0, r0
     648:	05b80000 	ldreq	r0, [r8, #0]!
     64c:	05bc0000 	ldreq	r0, [ip, #0]!
     650:	00010000 	andeq	r0, r1, r0
     654:	00000052 	andeq	r0, r0, r2, asr r0
     658:	00000000 	andeq	r0, r0, r0
     65c:	0005e800 	andeq	lr, r5, r0, lsl #16
     660:	0005ec00 	andeq	lr, r5, r0, lsl #24
     664:	52000100 	andpl	r0, r0, #0, 2
	...
     670:	00000618 	andeq	r0, r0, r8, lsl r6
     674:	0000061c 	andeq	r0, r0, ip, lsl r6
     678:	00520001 	subseq	r0, r2, r1
     67c:	00000000 	andeq	r0, r0, r0
     680:	48000000 	stmdami	r0, {}	; <UNPREDICTABLE>
     684:	4c000006 	stcmi	0, cr0, [r0], {6}
     688:	01000006 	tsteq	r0, r6
     68c:	00005200 	andeq	r5, r0, r0, lsl #4
     690:	00000000 	andeq	r0, r0, r0
     694:	06780000 	ldrbteq	r0, [r8], -r0
     698:	067c0000 	ldrbteq	r0, [ip], -r0
     69c:	00010000 	andeq	r0, r1, r0
     6a0:	00000052 	andeq	r0, r0, r2, asr r0
     6a4:	00000000 	andeq	r0, r0, r0
     6a8:	0006a800 	andeq	sl, r6, r0, lsl #16
     6ac:	0006ac00 	andeq	sl, r6, r0, lsl #24
     6b0:	52000100 	andpl	r0, r0, #0, 2
	...
     6bc:	000006d8 	ldrdeq	r0, [r0], -r8
     6c0:	000006dc 	ldrdeq	r0, [r0], -ip
     6c4:	00520001 	subseq	r0, r2, r1
	...
     6d0:	04000007 	streq	r0, [r0], #-7
     6d4:	01000007 	tsteq	r0, r7
     6d8:	00005200 	andeq	r5, r0, r0, lsl #4
     6dc:	00000000 	andeq	r0, r0, r0
     6e0:	071c0000 	ldreq	r0, [ip, -r0]
     6e4:	076c0000 	strbeq	r0, [ip, -r0]!
     6e8:	00020000 	andeq	r0, r2, r0
     6ec:	076c9f30 			; <UNDEFINED> instruction: 0x076c9f30
     6f0:	08b40000 	ldmeq	r4!, {}	; <UNPREDICTABLE>
     6f4:	00010000 	andeq	r0, r1, r0
     6f8:	0008b45c 	andeq	fp, r8, ip, asr r4
     6fc:	000a6400 	andeq	r6, sl, r0, lsl #8
     700:	50000100 	andpl	r0, r0, r0, lsl #2
	...
     70c:	00000720 	andeq	r0, r0, r0, lsr #14
     710:	000008cc 	andeq	r0, r0, ip, asr #17
     714:	00530001 	subseq	r0, r3, r1
     718:	00000000 	andeq	r0, r0, r0
     71c:	38000000 	stmdacc	r0, {}	; <UNPREDICTABLE>
     720:	3c000007 	stccc	0, cr0, [r0], {7}
     724:	01000007 	tsteq	r0, r7
     728:	00005200 	andeq	r5, r0, r0, lsl #4
     72c:	00000000 	andeq	r0, r0, r0
     730:	074c0000 	strbeq	r0, [ip, -r0]
     734:	07500000 	ldrbeq	r0, [r0, -r0]
     738:	00010000 	andeq	r0, r1, r0
     73c:	00000052 	andeq	r0, r0, r2, asr r0
     740:	00000000 	andeq	r0, r0, r0
     744:	00077400 	andeq	r7, r7, r0, lsl #8
     748:	00077800 	andeq	r7, r7, r0, lsl #16
     74c:	52000100 	andpl	r0, r0, #0, 2
	...
     758:	000007a4 	andeq	r0, r0, r4, lsr #15
     75c:	000007a8 	andeq	r0, r0, r8, lsr #15
     760:	00520001 	subseq	r0, r2, r1
     764:	00000000 	andeq	r0, r0, r0
     768:	d4000000 	strle	r0, [r0], #-0
     76c:	d8000007 	stmdale	r0, {r0, r1, r2}
     770:	01000007 	tsteq	r0, r7
     774:	00005200 	andeq	r5, r0, r0, lsl #4
     778:	00000000 	andeq	r0, r0, r0
     77c:	08040000 	stmdaeq	r4, {}	; <UNPREDICTABLE>
     780:	08080000 	stmdaeq	r8, {}	; <UNPREDICTABLE>
     784:	00010000 	andeq	r0, r1, r0
     788:	00000052 	andeq	r0, r0, r2, asr r0
     78c:	00000000 	andeq	r0, r0, r0
     790:	00083400 	andeq	r3, r8, r0, lsl #8
     794:	00083800 	andeq	r3, r8, r0, lsl #16
     798:	52000100 	andpl	r0, r0, #0, 2
	...
     7a4:	00000864 	andeq	r0, r0, r4, ror #16
     7a8:	00000868 	andeq	r0, r0, r8, ror #16
     7ac:	00520001 	subseq	r0, r2, r1
     7b0:	00000000 	andeq	r0, r0, r0
     7b4:	94000000 	strls	r0, [r0], #-0
     7b8:	98000008 	stmdals	r0, {r3}
     7bc:	01000008 	tsteq	r0, r8
     7c0:	00005200 	andeq	r5, r0, r0, lsl #4
     7c4:	00000000 	andeq	r0, r0, r0
     7c8:	08bc0000 	ldmeq	ip!, {}	; <UNPREDICTABLE>
     7cc:	08c00000 	stmiaeq	r0, {}^	; <UNPREDICTABLE>
     7d0:	00010000 	andeq	r0, r1, r0
     7d4:	00000052 	andeq	r0, r0, r2, asr r0
     7d8:	00000000 	andeq	r0, r0, r0
     7dc:	0008d800 	andeq	sp, r8, r0, lsl #16
     7e0:	00092800 	andeq	r2, r9, r0, lsl #16
     7e4:	30000200 	andcc	r0, r0, r0, lsl #4
     7e8:	0009289f 	muleq	r9, pc, r8	; <UNPREDICTABLE>
     7ec:	000a7000 	andeq	r7, sl, r0
     7f0:	5c000100 	stfpls	f0, [r0], {-0}
     7f4:	00000a70 	andeq	r0, r0, r0, ror sl
     7f8:	00000a9f 	muleq	r0, pc, sl	; <UNPREDICTABLE>
     7fc:	00500001 	subseq	r0, r0, r1
     800:	00000000 	andeq	r0, r0, r0
     804:	dc000000 	stcle	0, cr0, [r0], {-0}
     808:	88000008 	stmdahi	r0, {r3}
     80c:	0100000a 	tsteq	r0, sl
     810:	00005300 	andeq	r5, r0, r0, lsl #6
     814:	00000000 	andeq	r0, r0, r0
     818:	08f40000 	ldmeq	r4!, {}^	; <UNPREDICTABLE>
     81c:	08f80000 	ldmeq	r8!, {}^	; <UNPREDICTABLE>
     820:	00010000 	andeq	r0, r1, r0
     824:	00000052 	andeq	r0, r0, r2, asr r0
     828:	00000000 	andeq	r0, r0, r0
     82c:	00090800 	andeq	r0, r9, r0, lsl #16
     830:	00090c00 	andeq	r0, r9, r0, lsl #24
     834:	52000100 	andpl	r0, r0, #0, 2
	...
     840:	00000930 	andeq	r0, r0, r0, lsr r9
     844:	00000934 	andeq	r0, r0, r4, lsr r9
     848:	00520001 	subseq	r0, r2, r1
     84c:	00000000 	andeq	r0, r0, r0
     850:	60000000 	andvs	r0, r0, r0
     854:	64000009 	strvs	r0, [r0], #-9
     858:	01000009 	tsteq	r0, r9
     85c:	00005200 	andeq	r5, r0, r0, lsl #4
     860:	00000000 	andeq	r0, r0, r0
     864:	09900000 	ldmibeq	r0, {}	; <UNPREDICTABLE>
     868:	09940000 	ldmibeq	r4, {}	; <UNPREDICTABLE>
     86c:	00010000 	andeq	r0, r1, r0
     870:	00000052 	andeq	r0, r0, r2, asr r0
     874:	00000000 	andeq	r0, r0, r0
     878:	0009c000 	andeq	ip, r9, r0
     87c:	0009c400 	andeq	ip, r9, r0, lsl #8
     880:	52000100 	andpl	r0, r0, #0, 2
	...
     88c:	000009f0 	strdeq	r0, [r0], -r0	; <UNPREDICTABLE>
     890:	000009f4 	strdeq	r0, [r0], -r4
     894:	00520001 	subseq	r0, r2, r1
     898:	00000000 	andeq	r0, r0, r0
     89c:	20000000 	andcs	r0, r0, r0
     8a0:	2400000a 	strcs	r0, [r0], #-10
     8a4:	0100000a 	tsteq	r0, sl
     8a8:	00005200 	andeq	r5, r0, r0, lsl #4
     8ac:	00000000 	andeq	r0, r0, r0
     8b0:	0a500000 	beq	14008b8 <__bss_end__+0x13f5ba0>
     8b4:	0a540000 	beq	15008bc <__bss_end__+0x14f5ba4>
     8b8:	00010000 	andeq	r0, r1, r0
     8bc:	00000052 	andeq	r0, r0, r2, asr r0
     8c0:	00000000 	andeq	r0, r0, r0
     8c4:	000a7800 	andeq	r7, sl, r0, lsl #16
     8c8:	000a7c00 	andeq	r7, sl, r0, lsl #24
     8cc:	52000100 	andpl	r0, r0, #0, 2
	...
     8d8:	0000002c 	andeq	r0, r0, ip, lsr #32
     8dc:	00000038 	andeq	r0, r0, r8, lsr r0
     8e0:	38500001 	ldmdacc	r0, {r0}^
     8e4:	48000000 	stmdami	r0, {}	; <UNPREDICTABLE>
     8e8:	01000000 	mrseq	r0, (UNDEF: 0)
     8ec:	00485500 	subeq	r5, r8, r0, lsl #10
     8f0:	00580000 	subseq	r0, r8, r0
     8f4:	00010000 	andeq	r0, r1, r0
     8f8:	00000050 	andeq	r0, r0, r0, asr r0
	...
     904:	00000b00 	andeq	r0, r0, r0, lsl #22
     908:	50000100 	andpl	r0, r0, r0, lsl #2
     90c:	0000000b 	andeq	r0, r0, fp
     910:	00000014 	andeq	r0, r0, r4, lsl r0
     914:	00540001 	subseq	r0, r4, r1
	...
     920:	10000000 	andne	r0, r0, r0
     924:	01000000 	mrseq	r0, (UNDEF: 0)
     928:	00105000 	andseq	r5, r0, r0
     92c:	00340000 	eorseq	r0, r4, r0
     930:	00010000 	andeq	r0, r1, r0
     934:	00000054 	andeq	r0, r0, r4, asr r0
	...
     940:	00000400 	andeq	r0, r0, r0, lsl #8
     944:	50000100 	andpl	r0, r0, r0, lsl #2
     948:	00000004 	andeq	r0, r0, r4
     94c:	0000000c 	andeq	r0, r0, ip
     950:	30700003 	rsbscc	r0, r0, r3
     954:	00000c9f 	muleq	r0, pc, ip	; <UNPREDICTABLE>
     958:	00001400 	andeq	r1, r0, r0, lsl #8
     95c:	f3000400 	vshl.u8	d0, d0, d0
     960:	009f5001 	addseq	r5, pc, r1
     964:	00000000 	andeq	r0, r0, r0
     968:	14000000 	strne	r0, [r0], #-0
     96c:	20000000 	andcs	r0, r0, r0
     970:	01000000 	mrseq	r0, (UNDEF: 0)
     974:	00205000 	eoreq	r5, r0, r0
     978:	002c0000 	eoreq	r0, ip, r0
     97c:	00030000 	andeq	r0, r3, r0
     980:	2c9f0170 	ldfcss	f0, [pc], {112}	; 0x70
     984:	40000000 	andmi	r0, r0, r0
     988:	01000000 	mrseq	r0, (UNDEF: 0)
     98c:	00005000 	andeq	r5, r0, r0
     990:	00000000 	andeq	r0, r0, r0
     994:	00140000 	andseq	r0, r4, r0
     998:	00180000 	andseq	r0, r8, r0
     99c:	00010000 	andeq	r0, r1, r0
     9a0:	00001851 	andeq	r1, r0, r1, asr r8
     9a4:	00004000 	andeq	r4, r0, r0
     9a8:	f3000400 	vshl.u8	d0, d0, d0
     9ac:	009f5101 	addseq	r5, pc, r1, lsl #2
     9b0:	00000000 	andeq	r0, r0, r0
     9b4:	40000000 	andmi	r0, r0, r0
     9b8:	60000000 	andvs	r0, r0, r0
     9bc:	01000000 	mrseq	r0, (UNDEF: 0)
     9c0:	00605000 	rsbeq	r5, r0, r0
     9c4:	006c0000 	rsbeq	r0, ip, r0
     9c8:	00030000 	andeq	r0, r3, r0
     9cc:	6c9f0171 	ldfvss	f0, [pc], {113}	; 0x71
     9d0:	74000000 	strvc	r0, [r0], #-0
     9d4:	01000000 	mrseq	r0, (UNDEF: 0)
     9d8:	00745100 	rsbseq	r5, r4, r0, lsl #2
     9dc:	00800000 	addeq	r0, r0, r0
     9e0:	00030000 	andeq	r0, r3, r0
     9e4:	009f0171 	addseq	r0, pc, r1, ror r1	; <UNPREDICTABLE>
     9e8:	00000000 	andeq	r0, r0, r0
     9ec:	40000000 	andmi	r0, r0, r0
     9f0:	50000000 	andpl	r0, r0, r0
     9f4:	01000000 	mrseq	r0, (UNDEF: 0)
     9f8:	00505100 	subseq	r5, r0, r0, lsl #2
     9fc:	00800000 	addeq	r0, r0, r0
     a00:	00040000 	andeq	r0, r4, r0
     a04:	9f5101f3 	svcls	0x005101f3
	...
     a10:	00000040 	andeq	r0, r0, r0, asr #32
     a14:	00000058 	andeq	r0, r0, r8, asr r0
     a18:	58520001 	ldmdapl	r2, {r0}^
     a1c:	64000000 	strvs	r0, [r0], #-0
     a20:	01000000 	mrseq	r0, (UNDEF: 0)
     a24:	00645200 	rsbeq	r5, r4, r0, lsl #4
     a28:	00680000 	rsbeq	r0, r8, r0
     a2c:	00030000 	andeq	r0, r3, r0
     a30:	689f0172 	ldmvs	pc, {r1, r4, r5, r6, r8}	; <UNPREDICTABLE>
     a34:	80000000 	andhi	r0, r0, r0
     a38:	01000000 	mrseq	r0, (UNDEF: 0)
     a3c:	00005200 	andeq	r5, r0, r0, lsl #4
     a40:	00000000 	andeq	r0, r0, r0
     a44:	00400000 	subeq	r0, r0, r0
     a48:	00540000 	subseq	r0, r4, r0
     a4c:	00010000 	andeq	r0, r1, r0
     a50:	00005453 	andeq	r5, r0, r3, asr r4
     a54:	00007800 	andeq	r7, r0, r0, lsl #16
     a58:	53000100 	movwpl	r0, #256	; 0x100
	...
     a64:	00000048 	andeq	r0, r0, r8, asr #32
     a68:	00000060 	andeq	r0, r0, r0, rrx
     a6c:	605c0001 	subsvs	r0, ip, r1
     a70:	80000000 	andhi	r0, r0, r0
     a74:	0a000000 	beq	a7c <_start-0x7584>
     a78:	5201f300 	andpl	pc, r1, #0, 6
     a7c:	1c5301f3 	ldfnee	f0, [r3], {243}	; 0xf3
     a80:	009f0123 	addseq	r0, pc, r3, lsr #2
     a84:	00000000 	andeq	r0, r0, r0
     a88:	80000000 	andhi	r0, r0, r0
     a8c:	a4000000 	strge	r0, [r0], #-0
     a90:	01000000 	mrseq	r0, (UNDEF: 0)
     a94:	00a45000 	adceq	r5, r4, r0
     a98:	01180000 	tsteq	r8, r0
     a9c:	00030000 	andeq	r0, r3, r0
     aa0:	189f0270 	ldmne	pc, {r4, r5, r6, r9}	; <UNPREDICTABLE>
     aa4:	28000001 	stmdacs	r0, {r0}
     aa8:	04000002 	streq	r0, [r0], #-2
     aac:	5001f300 	andpl	pc, r1, r0, lsl #6
     ab0:	0000009f 	muleq	r0, pc, r0	; <UNPREDICTABLE>
     ab4:	00000000 	andeq	r0, r0, r0
     ab8:	00008000 	andeq	r8, r0, r0
     abc:	0000f000 	andeq	pc, r0, r0
     ac0:	51000100 	mrspl	r0, (UNDEF: 16)
     ac4:	000000f0 	strdeq	r0, [r0], -r0	; <UNPREDICTABLE>
     ac8:	00000160 	andeq	r0, r0, r0, ror #2
     acc:	60550001 	subsvs	r0, r5, r1
     ad0:	68000001 	stmdavs	r0, {r0}
     ad4:	01000001 	tsteq	r0, r1
     ad8:	01685100 	cmneq	r8, r0, lsl #2
     adc:	01880000 	orreq	r0, r8, r0
     ae0:	00010000 	andeq	r0, r1, r0
     ae4:	00018855 	andeq	r8, r1, r5, asr r8
     ae8:	00019c00 	andeq	r9, r1, r0, lsl #24
     aec:	51000100 	mrspl	r0, (UNDEF: 16)
     af0:	0000019c 	muleq	r0, ip, r1
     af4:	000001bc 			; <UNDEFINED> instruction: 0x000001bc
     af8:	bc550001 	mrrclt	0, 0, r0, r5, cr1
     afc:	bf000001 	svclt	0x00000001
     b00:	01000001 	tsteq	r0, r1
     b04:	01bf5100 			; <UNDEFINED> instruction: 0x01bf5100
     b08:	02080000 	andeq	r0, r8, #0
     b0c:	00010000 	andeq	r0, r1, r0
     b10:	00020855 	andeq	r0, r2, r5, asr r8
     b14:	00022800 	andeq	r2, r2, r0, lsl #16
     b18:	f3000400 	vshl.u8	d0, d0, d0
     b1c:	009f5101 	addseq	r5, pc, r1, lsl #2
     b20:	00000000 	andeq	r0, r0, r0
     b24:	80000000 	andhi	r0, r0, r0
     b28:	94000000 	strls	r0, [r0], #-0
     b2c:	01000000 	mrseq	r0, (UNDEF: 0)
     b30:	00945200 	addseq	r5, r4, r0, lsl #4
     b34:	02080000 	andeq	r0, r8, #0
     b38:	00010000 	andeq	r0, r1, r0
     b3c:	00020854 	andeq	r0, r2, r4, asr r8
     b40:	00022800 	andeq	r2, r2, r0, lsl #16
     b44:	f3000400 	vshl.u8	d0, d0, d0
     b48:	009f5201 	addseq	r5, pc, r1, lsl #4
     b4c:	00000000 	andeq	r0, r0, r0
     b50:	80000000 	andhi	r0, r0, r0
     b54:	00000000 	andeq	r0, r0, r0
     b58:	01000001 	tsteq	r0, r1
     b5c:	01045300 	mrseq	r5, LR_abt
     b60:	01080000 	mrseq	r0, (UNDEF: 8)
     b64:	00010000 	andeq	r0, r1, r0
     b68:	00016053 	andeq	r6, r1, r3, asr r0
     b6c:	00016800 	andeq	r6, r1, r0, lsl #16
     b70:	53000100 	movwpl	r0, #256	; 0x100
     b74:	00000168 	andeq	r0, r0, r8, ror #2
     b78:	00000188 	andeq	r0, r0, r8, lsl #3
     b7c:	01f30004 	mvnseq	r0, r4
     b80:	01889f53 	orreq	r9, r8, r3, asr pc
     b84:	01900000 	orrseq	r0, r0, r0
     b88:	00010000 	andeq	r0, r1, r0
     b8c:	00019053 	andeq	r9, r1, r3, asr r0
     b90:	00019400 	andeq	r9, r1, r0, lsl #8
     b94:	5c000100 	stfpls	f0, [r0], {-0}
     b98:	00000194 	muleq	r0, r4, r1
     b9c:	0000019c 	muleq	r0, ip, r1
     ba0:	9c530001 	mrrcls	0, 0, r0, r3, cr1
     ba4:	bc000001 	stclt	0, cr0, [r0], {1}
     ba8:	04000001 	streq	r0, [r0], #-1
     bac:	5301f300 	movwpl	pc, #4864	; 0x1300	; <UNPREDICTABLE>
     bb0:	0001bc9f 	muleq	r1, pc, ip	; <UNPREDICTABLE>
     bb4:	0001bf00 	andeq	fp, r1, r0, lsl #30
     bb8:	53000100 	movwpl	r0, #256	; 0x100
     bbc:	000001bf 			; <UNDEFINED> instruction: 0x000001bf
     bc0:	000001e0 	andeq	r0, r0, r0, ror #3
     bc4:	01f30004 	mvnseq	r0, r4
     bc8:	00009f53 	andeq	r9, r0, r3, asr pc
     bcc:	00000000 	andeq	r0, r0, r0
     bd0:	00800000 	addeq	r0, r0, r0
     bd4:	009c0000 	addseq	r0, ip, r0
     bd8:	00020000 	andeq	r0, r2, r0
     bdc:	009c0091 	umullseq	r0, ip, r1, r0
     be0:	01bf0000 			; <UNDEFINED> instruction: 0x01bf0000
     be4:	00010000 	andeq	r0, r1, r0
     be8:	0001e052 	andeq	lr, r1, r2, asr r0
     bec:	0001eb00 	andeq	lr, r1, r0, lsl #22
     bf0:	52000100 	andpl	r0, r0, #0, 2
	...
     bfc:	0000009c 	muleq	r0, ip, r0
     c00:	0000010c 	andeq	r0, r0, ip, lsl #2
     c04:	a0910004 	addsge	r0, r1, r4
     c08:	010c9f7f 	tsteq	ip, pc, ror pc
     c0c:	01180000 	tsteq	r8, r0
     c10:	00010000 	andeq	r0, r1, r0
     c14:	00011851 	andeq	r1, r1, r1, asr r8
     c18:	00011c00 	andeq	r1, r1, r0, lsl #24
     c1c:	53000100 	movwpl	r0, #256	; 0x100
     c20:	0000011c 	andeq	r0, r0, ip, lsl r1
     c24:	00000120 	andeq	r0, r0, r0, lsr #2
     c28:	20510001 	subscs	r0, r1, r1
     c2c:	60000001 	andvs	r0, r0, r1
     c30:	01000001 	tsteq	r0, r1
     c34:	01605300 	cmneq	r0, r0, lsl #6
     c38:	01640000 	cmneq	r4, r0
     c3c:	00040000 	andeq	r0, r4, r0
     c40:	9f7fa091 	svcls	0x007fa091
     c44:	00000164 	andeq	r0, r0, r4, ror #2
     c48:	0000016c 	andeq	r0, r0, ip, ror #2
     c4c:	6c5e0001 	mrrcvs	0, 0, r0, lr, cr1
     c50:	88000001 	stmdahi	r0, {r0}
     c54:	01000001 	tsteq	r0, r1
     c58:	01885300 	orreq	r5, r8, r0, lsl #6
     c5c:	01900000 	orrseq	r0, r0, r0
     c60:	00040000 	andeq	r0, r4, r0
     c64:	9f7fa191 	svcls	0x007fa191
     c68:	00000190 	muleq	r0, r0, r1
     c6c:	00000194 	muleq	r0, r4, r1
     c70:	94530001 	ldrbls	r0, [r3], #-1
     c74:	98000001 	stmdals	r0, {r0}
     c78:	04000001 	streq	r0, [r0], #-1
     c7c:	7fa09100 	svcvc	0x00a09100
     c80:	0001989f 	muleq	r1, pc, r8	; <UNPREDICTABLE>
     c84:	0001a000 	andeq	sl, r1, r0
     c88:	5e000100 	adfpls	f0, f0, f0
     c8c:	000001a0 	andeq	r0, r0, r0, lsr #3
     c90:	000001bc 			; <UNDEFINED> instruction: 0x000001bc
     c94:	bc530001 	mrrclt	0, 0, r0, r3, cr1
     c98:	e0000001 	and	r0, r0, r1
     c9c:	04000001 	streq	r0, [r0], #-1
     ca0:	7fa09100 	svcvc	0x00a09100
     ca4:	0001e09f 	muleq	r1, pc, r0	; <UNPREDICTABLE>
     ca8:	0001eb00 	andeq	lr, r1, r0, lsl #22
     cac:	53000100 	movwpl	r0, #256	; 0x100
	...
     cb8:	000000a0 	andeq	r0, r0, r0, lsr #1
     cbc:	000000ec 	andeq	r0, r0, ip, ror #1
     cc0:	ec5c0001 	mrrc	0, 0, r0, ip, cr1
     cc4:	00000000 	andeq	r0, r0, r0
     cc8:	01000001 	tsteq	r0, r1
     ccc:	01005300 	mrseq	r5, LR_irq
     cd0:	01040000 	mrseq	r0, (UNDEF: 4)
     cd4:	00010000 	andeq	r0, r1, r0
     cd8:	0001045c 	andeq	r0, r1, ip, asr r4
     cdc:	00010800 	andeq	r0, r1, r0, lsl #16
     ce0:	53000100 	movwpl	r0, #256	; 0x100
     ce4:	00000108 	andeq	r0, r0, r8, lsl #2
     ce8:	00000118 	andeq	r0, r0, r8, lsl r1
     cec:	185c0001 	ldmdane	ip, {r0}^
     cf0:	1c000001 	stcne	0, cr0, [r0], {1}
     cf4:	01000001 	tsteq	r0, r1
     cf8:	011c5000 	tsteq	ip, r0
     cfc:	013c0000 	teqeq	ip, r0
     d00:	00010000 	andeq	r0, r1, r0
     d04:	0001445c 	andeq	r4, r1, ip, asr r4
     d08:	00015800 	andeq	r5, r1, r0, lsl #16
     d0c:	50000100 	andpl	r0, r0, r0, lsl #2
     d10:	00000158 	andeq	r0, r0, r8, asr r1
     d14:	00000160 	andeq	r0, r0, r0, ror #2
     d18:	605c0001 	subsvs	r0, ip, r1
     d1c:	68000001 	stmdavs	r0, {r0}
     d20:	01000001 	tsteq	r0, r1
     d24:	01685300 	cmneq	r8, r0, lsl #6
     d28:	01780000 	cmneq	r8, r0
     d2c:	00010000 	andeq	r0, r1, r0
     d30:	0001785c 	andeq	r7, r1, ip, asr r8
     d34:	00018000 	andeq	r8, r1, r0
     d38:	7c000500 	cfstr32vc	mvfx0, [r0], {-0}
     d3c:	9f253400 	svcls	0x00253400
     d40:	00000180 	andeq	r0, r0, r0, lsl #3
     d44:	00000188 	andeq	r0, r0, r8, lsl #3
     d48:	885c0001 	ldmdahi	ip, {r0}^
     d4c:	90000001 	andls	r0, r0, r1
     d50:	01000001 	tsteq	r0, r1
     d54:	01905300 	orrseq	r5, r0, r0, lsl #6
     d58:	01940000 	orrseq	r0, r4, r0
     d5c:	00010000 	andeq	r0, r1, r0
     d60:	0001945c 	andeq	r9, r1, ip, asr r4
     d64:	00019c00 	andeq	r9, r1, r0, lsl #24
     d68:	53000100 	movwpl	r0, #256	; 0x100
     d6c:	0000019c 	muleq	r0, ip, r1
     d70:	000001ac 	andeq	r0, r0, ip, lsr #3
     d74:	ac5c0001 	mrrcge	0, 0, r0, ip, cr1
     d78:	b4000001 	strlt	r0, [r0], #-1
     d7c:	05000001 	streq	r0, [r0, #-1]
     d80:	31007c00 	tstcc	r0, r0, lsl #24
     d84:	01b49f25 			; <UNDEFINED> instruction: 0x01b49f25
     d88:	01bc0000 			; <UNDEFINED> instruction: 0x01bc0000
     d8c:	00010000 	andeq	r0, r1, r0
     d90:	0001bc5c 	andeq	fp, r1, ip, asr ip
     d94:	0001bf00 	andeq	fp, r1, r0, lsl #30
     d98:	53000100 	movwpl	r0, #256	; 0x100
     d9c:	000001bf 			; <UNDEFINED> instruction: 0x000001bf
     da0:	000001e0 	andeq	r0, r0, r0, ror #3
     da4:	01f30004 	mvnseq	r0, r4
     da8:	01e09f53 	mvneq	r9, r3, asr pc
     dac:	01eb0000 	mvneq	r0, r0
     db0:	00010000 	andeq	r0, r1, r0
     db4:	0000005c 	andeq	r0, r0, ip, asr r0
     db8:	00000000 	andeq	r0, r0, r0
     dbc:	0000ec00 	andeq	lr, r0, r0, lsl #24
     dc0:	0000fc00 	andeq	pc, r0, r0, lsl #24
     dc4:	30000200 	andcc	r0, r0, r0, lsl #4
     dc8:	0000fc9f 	muleq	r0, pc, ip	; <UNPREDICTABLE>
     dcc:	00010400 	andeq	r0, r1, r0, lsl #8
     dd0:	31000200 	mrscc	r0, R8_usr
     dd4:	0001049f 	muleq	r1, pc, r4	; <UNPREDICTABLE>
     dd8:	00010800 	andeq	r0, r1, r0, lsl #16
     ddc:	30000200 	andcc	r0, r0, r0, lsl #4
     de0:	0000009f 	muleq	r0, pc, r0	; <UNPREDICTABLE>
     de4:	00000000 	andeq	r0, r0, r0
     de8:	00022800 	andeq	r2, r2, r0, lsl #16
     dec:	00023b00 	andeq	r3, r2, r0, lsl #22
     df0:	50000100 	andpl	r0, r0, r0, lsl #2
     df4:	0000023b 	andeq	r0, r0, fp, lsr r2
     df8:	0000025c 	andeq	r0, r0, ip, asr r2
     dfc:	01f30004 	mvnseq	r0, r4
     e00:	025c9f50 	subseq	r9, ip, #80, 30	; 0x140
     e04:	02900000 	addseq	r0, r0, #0
     e08:	00010000 	andeq	r0, r1, r0
     e0c:	00000050 	andeq	r0, r0, r0, asr r0
     e10:	00000000 	andeq	r0, r0, r0
     e14:	00022800 	andeq	r2, r2, r0, lsl #16
     e18:	00023b00 	andeq	r3, r2, r0, lsl #22
     e1c:	51000100 	mrspl	r0, (UNDEF: 16)
     e20:	0000023b 	andeq	r0, r0, fp, lsr r2
     e24:	0000025c 	andeq	r0, r0, ip, asr r2
     e28:	01f30004 	mvnseq	r0, r4
     e2c:	025c9f51 	subseq	r9, ip, #324	; 0x144
     e30:	02900000 	addseq	r0, r0, #0
     e34:	00010000 	andeq	r0, r1, r0
     e38:	00000051 	andeq	r0, r0, r1, asr r0
     e3c:	00000000 	andeq	r0, r0, r0
     e40:	00029000 	andeq	r9, r2, r0
     e44:	0002bc00 	andeq	fp, r2, r0, lsl #24
     e48:	50000100 	andpl	r0, r0, r0, lsl #2
     e4c:	000002bc 			; <UNDEFINED> instruction: 0x000002bc
     e50:	0000050c 	andeq	r0, r0, ip, lsl #10
     e54:	0c5a0001 	mrrceq	0, 0, r0, sl, cr1
     e58:	24000005 	strcs	r0, [r0], #-5
     e5c:	04000005 	streq	r0, [r0], #-5
     e60:	5001f300 	andpl	pc, r1, r0, lsl #6
     e64:	0000009f 	muleq	r0, pc, r0	; <UNPREDICTABLE>
     e68:	00000000 	andeq	r0, r0, r0
     e6c:	00029000 	andeq	r9, r2, r0
     e70:	0002a400 	andeq	sl, r2, r0, lsl #8
     e74:	51000100 	mrspl	r0, (UNDEF: 16)
     e78:	000002a4 	andeq	r0, r0, r4, lsr #5
     e7c:	000002bc 			; <UNDEFINED> instruction: 0x000002bc
     e80:	01710003 	cmneq	r1, r3
     e84:	0002bc9f 	muleq	r2, pc, ip	; <UNPREDICTABLE>
     e88:	00052400 	andeq	r2, r5, r0, lsl #8
     e8c:	f3000400 	vshl.u8	d0, d0, d0
     e90:	009f5101 	addseq	r5, pc, r1, lsl #2
     e94:	00000000 	andeq	r0, r0, r0
     e98:	90000000 	andls	r0, r0, r0
     e9c:	c4000002 	strgt	r0, [r0], #-2
     ea0:	01000002 	tsteq	r0, r2
     ea4:	02c45200 	sbceq	r5, r4, #0, 4
     ea8:	02ec0000 	rsceq	r0, ip, #0
     eac:	00010000 	andeq	r0, r1, r0
     eb0:	0002ec52 	andeq	lr, r2, r2, asr ip
     eb4:	0004bc00 	andeq	fp, r4, r0, lsl #24
     eb8:	56000100 	strpl	r0, [r0], -r0, lsl #2
     ebc:	000004bc 			; <UNDEFINED> instruction: 0x000004bc
     ec0:	00000524 	andeq	r0, r0, r4, lsr #10
     ec4:	00520001 	subseq	r0, r2, r1
     ec8:	00000000 	andeq	r0, r0, r0
     ecc:	90000000 	andls	r0, r0, r0
     ed0:	ac000002 	stcge	0, cr0, [r0], {2}
     ed4:	01000002 	tsteq	r0, r2
     ed8:	00005300 	andeq	r5, r0, r0, lsl #6
     edc:	00000000 	andeq	r0, r0, r0
     ee0:	02a00000 	adceq	r0, r0, #0
     ee4:	02bc0000 	adcseq	r0, ip, #0
     ee8:	00010000 	andeq	r0, r1, r0
     eec:	0002bc50 	andeq	fp, r2, r0, asr ip
     ef0:	0002c000 	andeq	ip, r2, r0
     ef4:	54000100 	strpl	r0, [r0], #-256	; 0x100
     ef8:	000002c0 	andeq	r0, r0, r0, asr #5
     efc:	000002cc 	andeq	r0, r0, ip, asr #5
     f00:	01740003 	cmneq	r4, r3
     f04:	0002cc9f 	muleq	r2, pc, ip	; <UNPREDICTABLE>
     f08:	0002d800 	andeq	sp, r2, r0, lsl #16
     f0c:	54000100 	strpl	r0, [r0], #-256	; 0x100
     f10:	000002d8 	ldrdeq	r0, [r0], -r8
     f14:	000002e4 	andeq	r0, r0, r4, ror #5
     f18:	01740003 	cmneq	r4, r3
     f1c:	0002e49f 	muleq	r2, pc, r4	; <UNPREDICTABLE>
     f20:	0004c000 	andeq	ip, r4, r0
     f24:	54000100 	strpl	r0, [r0], #-256	; 0x100
     f28:	000004c0 	andeq	r0, r0, r0, asr #9
     f2c:	000004cc 	andeq	r0, r0, ip, asr #9
     f30:	01740003 	cmneq	r4, r3
     f34:	0004cc9f 	muleq	r4, pc, ip	; <UNPREDICTABLE>
     f38:	0004f800 	andeq	pc, r4, r0, lsl #16
     f3c:	54000100 	strpl	r0, [r0], #-256	; 0x100
     f40:	000004f8 	strdeq	r0, [r0], -r8
     f44:	00000504 	andeq	r0, r0, r4, lsl #10
     f48:	04500001 	ldrbeq	r0, [r0], #-1
     f4c:	0c000005 	stceq	0, cr0, [r0], {5}
     f50:	03000005 	movweq	r0, #5
     f54:	9f017400 	svcls	0x00017400
	...
     f60:	000002a8 	andeq	r0, r0, r8, lsr #5
     f64:	0000050c 	andeq	r0, r0, ip, lsl #10
     f68:	0c580001 	mrrceq	0, 0, r0, r8, cr1
     f6c:	24000005 	strcs	r0, [r0], #-5
     f70:	0a000005 	beq	f8c <_start-0x7074>
     f74:	5101f300 	mrspl	pc, SP_irq	; <UNPREDICTABLE>
     f78:	225001f3 	subscs	r0, r0, #-1073741764	; 0xc000003c
     f7c:	009f1c31 	addseq	r1, pc, r1, lsr ip	; <UNPREDICTABLE>
     f80:	00000000 	andeq	r0, r0, r0
     f84:	f4000000 	vst4.8	{d0-d3}, [r0], r0
     f88:	f8000003 			; <UNDEFINED> instruction: 0xf8000003
     f8c:	01000003 	tsteq	r0, r3
     f90:	04185000 	ldreq	r5, [r8], #-0
     f94:	041c0000 	ldreq	r0, [ip], #-0
     f98:	00010000 	andeq	r0, r1, r0
     f9c:	00043c50 	andeq	r3, r4, r0, asr ip
     fa0:	00044000 	andeq	r4, r4, r0
     fa4:	50000100 	andpl	r0, r0, r0, lsl #2
     fa8:	00000460 	andeq	r0, r0, r0, ror #8
     fac:	00000464 	andeq	r0, r0, r4, ror #8
     fb0:	6c500001 	mrrcvs	0, 0, r0, r0, cr1	; <UNPREDICTABLE>
     fb4:	70000004 	andvc	r0, r0, r4
     fb8:	01000004 	tsteq	r0, r4
     fbc:	04905000 	ldreq	r5, [r0], #0
     fc0:	04940000 	ldreq	r0, [r4], #0
     fc4:	00010000 	andeq	r0, r1, r0
     fc8:	0004b850 	andeq	fp, r4, r0, asr r8
     fcc:	0004e000 	andeq	lr, r4, r0
     fd0:	50000100 	andpl	r0, r0, r0, lsl #2
	...
     fdc:	000002ec 	andeq	r0, r0, ip, ror #5
     fe0:	000002f4 	strdeq	r0, [r0], -r4
     fe4:	9f300002 	svcls	0x00300002
     fe8:	000002f4 	strdeq	r0, [r0], -r4
     fec:	000002f8 	strdeq	r0, [r0], -r8
     ff0:	04570001 	ldrbeq	r0, [r7], #-1
     ff4:	e0000003 	and	r0, r0, r3
     ff8:	01000004 	tsteq	r0, r4
     ffc:	00005700 	andeq	r5, r0, r0, lsl #14
    1000:	00000000 	andeq	r0, r0, r0
    1004:	00040000 	andeq	r0, r4, r0
    1008:	00080000 	andeq	r0, r8, r0
    100c:	00070000 	andeq	r0, r7, r0
    1010:	000a0073 	andeq	r0, sl, r3, ror r0
    1014:	089f2110 	ldmeq	pc, {r4, r8, sp}	; <UNPREDICTABLE>
    1018:	10000000 	andne	r0, r0, r0
    101c:	01000000 	mrseq	r0, (UNDEF: 0)
    1020:	00005300 	andeq	r5, r0, r0, lsl #6
    1024:	00000000 	andeq	r0, r0, r0
    1028:	00140000 	andseq	r0, r4, r0
    102c:	00180000 	andseq	r0, r8, r0
    1030:	00070000 	andeq	r0, r7, r0
    1034:	ff0b0073 			; <UNDEFINED> instruction: 0xff0b0073
    1038:	189f1aef 	ldmne	pc, {r0, r1, r2, r3, r5, r6, r7, r9, fp, ip}	; <UNPREDICTABLE>
    103c:	20000000 	andcs	r0, r0, r0
    1040:	01000000 	mrseq	r0, (UNDEF: 0)
    1044:	00005300 	andeq	r5, r0, r0, lsl #6
	...
    1050:	000c0000 	andeq	r0, ip, r0
    1054:	00010000 	andeq	r0, r1, r0
    1058:	00000c50 	andeq	r0, r0, r0, asr ip
    105c:	00002000 	andeq	r2, r0, r0
    1060:	54000100 	strpl	r0, [r0], #-256	; 0x100
	...
    106c:	00000034 	andeq	r0, r0, r4, lsr r0
    1070:	0000003c 	andeq	r0, r0, ip, lsr r0
    1074:	04730003 	ldrbteq	r0, [r3], #-3
    1078:	00003c9f 	muleq	r0, pc, ip	; <UNPREDICTABLE>
    107c:	00004700 	andeq	r4, r0, r0, lsl #14
    1080:	53000100 	movwpl	r0, #256	; 0x100
	...
    108c:	00000048 	andeq	r0, r0, r8, asr #32
    1090:	00000074 	andeq	r0, r0, r4, ror r0
    1094:	74500001 	ldrbvc	r0, [r0], #-1
    1098:	83000000 	movwhi	r0, #0
    109c:	03000000 	movweq	r0, #0
    10a0:	9f787300 	svcls	0x00787300
	...
    10ac:	00009214 	andeq	r9, r0, r4, lsl r2
    10b0:	00009218 	andeq	r9, r0, r8, lsl r2
    10b4:	9f300002 	svcls	0x00300002
    10b8:	00009218 	andeq	r9, r0, r8, lsl r2
    10bc:	0000921c 	andeq	r9, r0, ip, lsl r2
    10c0:	00500001 	subseq	r0, r0, r1
    10c4:	00000000 	andeq	r0, r0, r0
    10c8:	2c000000 	stccs	0, cr0, [r0], {-0}
    10cc:	30000092 	mulcc	r0, r2, r0
    10d0:	02000092 	andeq	r0, r0, #146	; 0x92
    10d4:	309f3000 	addscc	r3, pc, r0
    10d8:	34000092 	strcc	r0, [r0], #-146	; 0x92
    10dc:	01000092 	swpeq	r0, r2, [r0]	; <UNPREDICTABLE>
    10e0:	92385300 	eorsls	r5, r8, #0, 6
    10e4:	92400000 	subls	r0, r0, #0
    10e8:	00010000 	andeq	r0, r1, r0
    10ec:	00000053 	andeq	r0, r0, r3, asr r0
	...
    10f8:	00000400 	andeq	r0, r0, r0, lsl #8
    10fc:	50000100 	andpl	r0, r0, r0, lsl #2
    1100:	00000004 	andeq	r0, r0, r4
    1104:	0000000c 	andeq	r0, r0, ip
    1108:	0c530001 	mrrceq	0, 0, r0, r3, cr1
    110c:	10000000 	andne	r0, r0, r0
    1110:	01000000 	mrseq	r0, (UNDEF: 0)
    1114:	00105000 	andseq	r5, r0, r0
    1118:	001c0000 	andseq	r0, ip, r0
    111c:	00010000 	andeq	r0, r1, r0
    1120:	00000053 	andeq	r0, r0, r3, asr r0
    1124:	00000000 	andeq	r0, r0, r0
    1128:	00003c00 	andeq	r3, r0, r0, lsl #24
    112c:	00004700 	andeq	r4, r0, r0, lsl #14
    1130:	50000100 	andpl	r0, r0, r0, lsl #2
    1134:	00000047 	andeq	r0, r0, r7, asr #32
    1138:	00000060 	andeq	r0, r0, r0, rrx
    113c:	00550001 	subseq	r0, r5, r1
    1140:	00000000 	andeq	r0, r0, r0
    1144:	50000000 	andpl	r0, r0, r0
    1148:	54000000 	strpl	r0, [r0], #-0
    114c:	01000000 	mrseq	r0, (UNDEF: 0)
    1150:	00005000 	andeq	r5, r0, r0
    1154:	00000000 	andeq	r0, r0, r0
    1158:	00600000 	rsbeq	r0, r0, r0
    115c:	006c0000 	rsbeq	r0, ip, r0
    1160:	00010000 	andeq	r0, r1, r0
    1164:	00006c50 	andeq	r6, r0, r0, asr ip
    1168:	00007400 	andeq	r7, r0, r0, lsl #8
    116c:	f3000400 	vshl.u8	d0, d0, d0
    1170:	009f5001 	addseq	r5, pc, r1
    1174:	00000000 	andeq	r0, r0, r0
    1178:	74000000 	strvc	r0, [r0], #-0
    117c:	80000000 	andhi	r0, r0, r0
    1180:	01000000 	mrseq	r0, (UNDEF: 0)
    1184:	00805000 	addeq	r5, r0, r0
    1188:	00880000 	addeq	r0, r8, r0
    118c:	00040000 	andeq	r0, r4, r0
    1190:	9f5001f3 	svcls	0x005001f3
	...
    11a0:	00000090 	muleq	r0, r0, r0
    11a4:	90500001 	subsls	r0, r0, r1
    11a8:	d4000000 	strle	r0, [r0], #-0
    11ac:	01000000 	mrseq	r0, (UNDEF: 0)
    11b0:	00005400 	andeq	r5, r0, r0, lsl #8
    11b4:	00000000 	andeq	r0, r0, r0
    11b8:	00480000 	subeq	r0, r8, r0
    11bc:	004c0000 	subeq	r0, ip, r0
    11c0:	00010000 	andeq	r0, r1, r0
    11c4:	00005455 	andeq	r5, r0, r5, asr r4
    11c8:	00005800 	andeq	r5, r0, r0, lsl #16
    11cc:	55000100 	strpl	r0, [r0, #-256]	; 0x100
    11d0:	00000060 	andeq	r0, r0, r0, rrx
    11d4:	00000064 	andeq	r0, r0, r4, rrx
    11d8:	6c550001 	mrrcvs	0, 0, r0, r5, cr1
    11dc:	70000000 	andvc	r0, r0, r0
    11e0:	01000000 	mrseq	r0, (UNDEF: 0)
    11e4:	00785500 	rsbseq	r5, r8, r0, lsl #10
    11e8:	007c0000 	rsbseq	r0, ip, r0
    11ec:	00010000 	andeq	r0, r1, r0
    11f0:	00008455 	andeq	r8, r0, r5, asr r4
    11f4:	00008800 	andeq	r8, r0, r0, lsl #16
    11f8:	55000100 	strpl	r0, [r0, #-256]	; 0x100
    11fc:	0000008c 	andeq	r0, r0, ip, lsl #1
    1200:	000000d4 	ldrdeq	r0, [r0], -r4
    1204:	00550001 	subseq	r0, r5, r1
    1208:	00000000 	andeq	r0, r0, r0
    120c:	1c000000 	stcne	0, cr0, [r0], {-0}
    1210:	44000000 	strmi	r0, [r0], #-0
    1214:	01000000 	mrseq	r0, (UNDEF: 0)
    1218:	00445300 	subeq	r5, r4, r0, lsl #6
    121c:	004c0000 	subeq	r0, ip, r0
    1220:	001c0000 	andseq	r0, ip, r0
    1224:	2cf70070 	ldclcs	0, cr0, [r7], #448	; 0x1c0
    1228:	25f425f7 	ldrbcs	r2, [r4, #1527]!	; 0x5f7
    122c:	cccccd08 	stclgt	13, cr12, [ip], {8}
    1230:	000000cc 	andeq	r0, r0, ip, asr #1
    1234:	20081e00 	andcs	r1, r8, r0, lsl #28
    1238:	f72525f7 			; <UNDEFINED> instruction: 0xf72525f7
    123c:	9f25332c 	svcls	0x0025332c
    1240:	0000004c 	andeq	r0, r0, ip, asr #32
    1244:	00000050 	andeq	r0, r0, r0, asr r0
    1248:	50530001 	subspl	r0, r3, r1
    124c:	58000000 	stmdapl	r0, {}	; <UNPREDICTABLE>
    1250:	1c000000 	stcne	0, cr0, [r0], {-0}
    1254:	f7007000 			; <UNDEFINED> instruction: 0xf7007000
    1258:	f425f72c 	vld1.8	{d15}, [r5 :128], ip
    125c:	cccd0825 	stclgt	8, cr0, [sp], {37}	; 0x25
    1260:	0000cccc 	andeq	ip, r0, ip, asr #25
    1264:	081e0000 	ldmdaeq	lr, {}	; <UNPREDICTABLE>
    1268:	2525f720 	strcs	pc, [r5, #-1824]!	; 0x720
    126c:	25332cf7 	ldrcs	r2, [r3, #-3319]!	; 0xcf7
    1270:	0000589f 	muleq	r0, pc, r8	; <UNPREDICTABLE>
    1274:	00005c00 	andeq	r5, r0, r0, lsl #24
    1278:	53000100 	movwpl	r0, #256	; 0x100
    127c:	0000005c 	andeq	r0, r0, ip, asr r0
    1280:	00000064 	andeq	r0, r0, r4, rrx
    1284:	0070001c 	rsbseq	r0, r0, ip, lsl r0
    1288:	25f72cf7 	ldrbcs	r2, [r7, #3319]!	; 0xcf7
    128c:	cd0825f4 	cfstr32gt	mvfx2, [r8, #-976]	; 0xfffffc30
    1290:	00cccccc 	sbceq	ip, ip, ip, asr #25
    1294:	1e000000 	cdpne	0, 0, cr0, cr0, cr0, {0}
    1298:	25f72008 	ldrbcs	r2, [r7, #8]!
    129c:	332cf725 	msrcc	CPSR_fs, #9699328	; 0x940000
    12a0:	00649f25 	rsbeq	r9, r4, r5, lsr #30
    12a4:	00680000 	rsbeq	r0, r8, r0
    12a8:	00010000 	andeq	r0, r1, r0
    12ac:	00006853 	andeq	r6, r0, r3, asr r8
    12b0:	00007000 	andeq	r7, r0, r0
    12b4:	70001c00 	andvc	r1, r0, r0, lsl #24
    12b8:	f72cf700 			; <UNDEFINED> instruction: 0xf72cf700
    12bc:	0825f425 	stmdaeq	r5!, {r0, r2, r5, sl, ip, sp, lr, pc}
    12c0:	cccccccd 	stclgt	12, cr12, [ip], {205}	; 0xcd
    12c4:	00000000 	andeq	r0, r0, r0
    12c8:	f720081e 			; <UNDEFINED> instruction: 0xf720081e
    12cc:	2cf72525 	cfldr64cs	mvdx2, [r7], #148	; 0x94
    12d0:	709f2533 	addsvc	r2, pc, r3, lsr r5	; <UNPREDICTABLE>
    12d4:	74000000 	strvc	r0, [r0], #-0
    12d8:	01000000 	mrseq	r0, (UNDEF: 0)
    12dc:	00745300 	rsbseq	r5, r4, r0, lsl #6
    12e0:	007c0000 	rsbseq	r0, ip, r0
    12e4:	001c0000 	andseq	r0, ip, r0
    12e8:	2cf70070 	ldclcs	0, cr0, [r7], #448	; 0x1c0
    12ec:	25f425f7 	ldrbcs	r2, [r4, #1527]!	; 0x5f7
    12f0:	cccccd08 	stclgt	13, cr12, [ip], {8}
    12f4:	000000cc 	andeq	r0, r0, ip, asr #1
    12f8:	20081e00 	andcs	r1, r8, r0, lsl #28
    12fc:	f72525f7 			; <UNDEFINED> instruction: 0xf72525f7
    1300:	9f25332c 	svcls	0x0025332c
    1304:	0000007c 	andeq	r0, r0, ip, ror r0
    1308:	00000080 	andeq	r0, r0, r0, lsl #1
    130c:	80530001 	subshi	r0, r3, r1
    1310:	88000000 	stmdahi	r0, {}	; <UNPREDICTABLE>
    1314:	1c000000 	stcne	0, cr0, [r0], {-0}
    1318:	f7007000 			; <UNDEFINED> instruction: 0xf7007000
    131c:	f425f72c 	vld1.8	{d15}, [r5 :128], ip
    1320:	cccd0825 	stclgt	8, cr0, [sp], {37}	; 0x25
    1324:	0000cccc 	andeq	ip, r0, ip, asr #25
    1328:	081e0000 	ldmdaeq	lr, {}	; <UNPREDICTABLE>
    132c:	2525f720 	strcs	pc, [r5, #-1824]!	; 0x720
    1330:	25332cf7 	ldrcs	r2, [r3, #-3319]!	; 0xcf7
    1334:	0000889f 	muleq	r0, pc, r8	; <UNPREDICTABLE>
    1338:	00008c00 	andeq	r8, r0, r0, lsl #24
    133c:	53000100 	movwpl	r0, #256	; 0x100
    1340:	0000008c 	andeq	r0, r0, ip, lsl #1
    1344:	00000090 	muleq	r0, r0, r0
    1348:	0070001c 	rsbseq	r0, r0, ip, lsl r0
    134c:	25f72cf7 	ldrbcs	r2, [r7, #3319]!	; 0xcf7
    1350:	cd0825f4 	cfstr32gt	mvfx2, [r8, #-976]	; 0xfffffc30
    1354:	00cccccc 	sbceq	ip, ip, ip, asr #25
    1358:	1e000000 	cdpne	0, 0, cr0, cr0, cr0, {0}
    135c:	25f72008 	ldrbcs	r2, [r7, #8]!
    1360:	332cf725 	msrcc	CPSR_fs, #9699328	; 0x940000
    1364:	00909f25 	addseq	r9, r0, r5, lsr #30
    1368:	00980000 	addseq	r0, r8, r0
    136c:	001c0000 	andseq	r0, ip, r0
    1370:	2cf70074 	ldclcs	0, cr0, [r7], #464	; 0x1d0
    1374:	25f425f7 	ldrbcs	r2, [r4, #1527]!	; 0x5f7
    1378:	cccccd08 	stclgt	13, cr12, [ip], {8}
    137c:	000000cc 	andeq	r0, r0, ip, asr #1
    1380:	20081e00 	andcs	r1, r8, r0, lsl #28
    1384:	f72525f7 			; <UNDEFINED> instruction: 0xf72525f7
    1388:	9f25332c 	svcls	0x0025332c
    138c:	00000098 	muleq	r0, r8, r0
    1390:	0000009c 	muleq	r0, ip, r0
    1394:	00740017 	rsbseq	r0, r4, r7, lsl r0
    1398:	25f72cf7 	ldrbcs	r2, [r7, #3319]!	; 0xcf7
    139c:	2cf70071 	ldclcs	0, cr0, [r7], #452	; 0x1c4
    13a0:	081e25f7 	ldmdaeq	lr, {r0, r1, r2, r4, r5, r6, r7, r8, sl, sp}
    13a4:	2525f720 	strcs	pc, [r5, #-1824]!	; 0x720
    13a8:	25332cf7 	ldrcs	r2, [r3, #-3319]!	; 0xcf7
    13ac:	00009c9f 	muleq	r0, pc, ip	; <UNPREDICTABLE>
    13b0:	0000d400 	andeq	sp, r0, r0, lsl #8
    13b4:	74001c00 	strvc	r1, [r0], #-3072	; 0xc00
    13b8:	f72cf700 			; <UNDEFINED> instruction: 0xf72cf700
    13bc:	0825f425 	stmdaeq	r5!, {r0, r2, r5, sl, ip, sp, lr, pc}
    13c0:	cccccccd 	stclgt	12, cr12, [ip], {205}	; 0xcd
    13c4:	00000000 	andeq	r0, r0, r0
    13c8:	f720081e 			; <UNDEFINED> instruction: 0xf720081e
    13cc:	2cf72525 	cfldr64cs	mvdx2, [r7], #148	; 0x94
    13d0:	009f2533 	addseq	r2, pc, r3, lsr r5	; <UNPREDICTABLE>
    13d4:	00000000 	andeq	r0, r0, r0
    13d8:	94000000 	strls	r0, [r0], #-0
    13dc:	b8000000 	stmdalt	r0, {}	; <UNPREDICTABLE>
    13e0:	01000000 	mrseq	r0, (UNDEF: 0)
    13e4:	00b85000 	adcseq	r5, r8, r0
    13e8:	00c40000 	sbceq	r0, r4, r0
    13ec:	00080000 	andeq	r0, r8, r0
    13f0:	24007131 	strcs	r7, [r0], #-305	; 0x131
    13f4:	9f210073 	svcls	0x00210073
    13f8:	000000c4 	andeq	r0, r0, r4, asr #1
    13fc:	000000c7 	andeq	r0, r0, r7, asr #1
    1400:	00510001 	subseq	r0, r1, r1
    1404:	00000000 	andeq	r0, r0, r0
    1408:	d4000000 	strle	r0, [r0], #-0
    140c:	f8000000 			; <UNDEFINED> instruction: 0xf8000000
    1410:	01000000 	mrseq	r0, (UNDEF: 0)
    1414:	00f85000 	rscseq	r5, r8, r0
    1418:	010c0000 	mrseq	r0, (UNDEF: 12)
    141c:	00040000 	andeq	r0, r4, r0
    1420:	9f5001f3 	svcls	0x005001f3
	...
    142c:	000000e0 	andeq	r0, r0, r0, ror #1
    1430:	000000e8 	andeq	r0, r0, r8, ror #1
    1434:	9f300002 	svcls	0x00300002
    1438:	000000e8 	andeq	r0, r0, r8, ror #1
    143c:	000000e8 	andeq	r0, r0, r8, ror #1
    1440:	e8520001 	ldmda	r2, {r0}^
    1444:	f0000000 			; <UNDEFINED> instruction: 0xf0000000
    1448:	02000000 	andeq	r0, r0, #0
    144c:	f09f3000 			; <UNDEFINED> instruction: 0xf09f3000
    1450:	03000000 	movweq	r0, #0
    1454:	01000001 	tsteq	r0, r1
    1458:	00005200 	andeq	r5, r0, r0, lsl #4
    145c:	00000000 	andeq	r0, r0, r0
    1460:	00e00000 	rsceq	r0, r0, r0
    1464:	00f40000 	rscseq	r0, r4, r0
    1468:	00020000 	andeq	r0, r2, r0
    146c:	00f49f30 	rscseq	r9, r4, r0, lsr pc
    1470:	01000000 	mrseq	r0, (UNDEF: 0)
    1474:	00050000 	andeq	r0, r5, r0
    1478:	24007331 	strcs	r7, [r0], #-817	; 0x331
    147c:	0001009f 	muleq	r1, pc, r0	; <UNPREDICTABLE>
    1480:	00010300 	andeq	r0, r1, r0, lsl #6
    1484:	51000100 	mrspl	r0, (UNDEF: 16)
    1488:	00000103 	andeq	r0, r0, r3, lsl #2
    148c:	0000010c 	andeq	r0, r0, ip, lsl #2
    1490:	f3310008 	vhadd.u<illegal width 64>	d0, d1, d8
    1494:	1a4f5001 	bne	13d54a0 <__bss_end__+0x13ca788>
    1498:	00009f24 	andeq	r9, r0, r4, lsr #30
    149c:	00000000 	andeq	r0, r0, r0
    14a0:	010c0000 	mrseq	r0, (UNDEF: 12)
    14a4:	01300000 	teqeq	r0, r0
    14a8:	00010000 	andeq	r0, r1, r0
    14ac:	00013050 	andeq	r3, r1, r0, asr r0
    14b0:	00014400 	andeq	r4, r1, r0, lsl #8
    14b4:	f3000400 	vshl.u8	d0, d0, d0
    14b8:	009f5001 	addseq	r5, pc, r1
    14bc:	00000000 	andeq	r0, r0, r0
    14c0:	18000000 	stmdane	r0, {}	; <UNPREDICTABLE>
    14c4:	20000001 	andcs	r0, r0, r1
    14c8:	02000001 	andeq	r0, r0, #1
    14cc:	209f3000 	addscs	r3, pc, r0
    14d0:	20000001 	andcs	r0, r0, r1
    14d4:	01000001 	tsteq	r0, r1
    14d8:	01205200 	teqeq	r0, r0, lsl #4
    14dc:	01280000 	teqeq	r8, r0
    14e0:	00020000 	andeq	r0, r2, r0
    14e4:	01289f30 	teqeq	r8, r0, lsr pc
    14e8:	013b0000 	teqeq	fp, r0
    14ec:	00010000 	andeq	r0, r1, r0
    14f0:	00000052 	andeq	r0, r0, r2, asr r0
    14f4:	00000000 	andeq	r0, r0, r0
    14f8:	00011800 	andeq	r1, r1, r0, lsl #16
    14fc:	00012c00 	andeq	r2, r1, r0, lsl #24
    1500:	30000200 	andcc	r0, r0, r0, lsl #4
    1504:	00012c9f 	muleq	r1, pc, ip	; <UNPREDICTABLE>
    1508:	00013800 	andeq	r3, r1, r0, lsl #16
    150c:	31000500 	tstcc	r0, r0, lsl #10
    1510:	9f240073 	svcls	0x00240073
    1514:	00000138 	andeq	r0, r0, r8, lsr r1
    1518:	0000013b 	andeq	r0, r0, fp, lsr r1
    151c:	3b510001 	blcc	1441528 <__bss_end__+0x1436810>
    1520:	44000001 	strmi	r0, [r0], #-1
    1524:	08000001 	stmdaeq	r0, {r0}
    1528:	01f33100 	mvnseq	r3, r0, lsl #2
    152c:	241a4f50 	ldrcs	r4, [sl], #-3920	; 0xf50
    1530:	0000009f 	muleq	r0, pc, r0	; <UNPREDICTABLE>
    1534:	00000000 	andeq	r0, r0, r0
    1538:	00014400 	andeq	r4, r1, r0, lsl #8
    153c:	0001d400 	andeq	sp, r1, r0, lsl #8
    1540:	50000100 	andpl	r0, r0, r0, lsl #2
    1544:	000001d4 	ldrdeq	r0, [r0], -r4
    1548:	00000210 	andeq	r0, r0, r0, lsl r2
    154c:	00540001 	subseq	r0, r4, r1
    1550:	00000000 	andeq	r0, r0, r0
    1554:	8c000000 	stchi	0, cr0, [r0], {-0}
    1558:	90000001 	andls	r0, r0, r1
    155c:	01000001 	tsteq	r0, r1
    1560:	01985500 	orrseq	r5, r8, r0, lsl #10
    1564:	019c0000 	orrseq	r0, ip, r0
    1568:	00010000 	andeq	r0, r1, r0
    156c:	0001a455 	andeq	sl, r1, r5, asr r4
    1570:	0001a800 	andeq	sl, r1, r0, lsl #16
    1574:	55000100 	strpl	r0, [r0, #-256]	; 0x100
    1578:	000001b0 			; <UNDEFINED> instruction: 0x000001b0
    157c:	000001b4 			; <UNDEFINED> instruction: 0x000001b4
    1580:	bc550001 	mrrclt	0, 0, r0, r5, cr1
    1584:	c0000001 	andgt	r0, r0, r1
    1588:	01000001 	tsteq	r0, r1
    158c:	01c85500 	biceq	r5, r8, r0, lsl #10
    1590:	01cc0000 	biceq	r0, ip, r0
    1594:	00010000 	andeq	r0, r1, r0
    1598:	0001d055 	andeq	sp, r1, r5, asr r0
    159c:	00021000 	andeq	r1, r2, r0
    15a0:	55000100 	strpl	r0, [r0, #-256]	; 0x100
	...
    15ac:	00000160 	andeq	r0, r0, r0, ror #2
    15b0:	00000188 	andeq	r0, r0, r8, lsl #3
    15b4:	88530001 	ldmdahi	r3, {r0}^
    15b8:	90000001 	andls	r0, r0, r1
    15bc:	1c000001 	stcne	0, cr0, [r0], {1}
    15c0:	f7007000 			; <UNDEFINED> instruction: 0xf7007000
    15c4:	f425f72c 	vld1.8	{d15}, [r5 :128], ip
    15c8:	cccd0825 	stclgt	8, cr0, [sp], {37}	; 0x25
    15cc:	0000cccc 	andeq	ip, r0, ip, asr #25
    15d0:	081e0000 	ldmdaeq	lr, {}	; <UNPREDICTABLE>
    15d4:	2525f720 	strcs	pc, [r5, #-1824]!	; 0x720
    15d8:	25332cf7 	ldrcs	r2, [r3, #-3319]!	; 0xcf7
    15dc:	0001909f 	muleq	r1, pc, r0	; <UNPREDICTABLE>
    15e0:	00019400 	andeq	r9, r1, r0, lsl #8
    15e4:	53000100 	movwpl	r0, #256	; 0x100
    15e8:	00000194 	muleq	r0, r4, r1
    15ec:	0000019c 	muleq	r0, ip, r1
    15f0:	0070001c 	rsbseq	r0, r0, ip, lsl r0
    15f4:	25f72cf7 	ldrbcs	r2, [r7, #3319]!	; 0xcf7
    15f8:	cd0825f4 	cfstr32gt	mvfx2, [r8, #-976]	; 0xfffffc30
    15fc:	00cccccc 	sbceq	ip, ip, ip, asr #25
    1600:	1e000000 	cdpne	0, 0, cr0, cr0, cr0, {0}
    1604:	25f72008 	ldrbcs	r2, [r7, #8]!
    1608:	332cf725 	msrcc	CPSR_fs, #9699328	; 0x940000
    160c:	019c9f25 	orrseq	r9, ip, r5, lsr #30
    1610:	01a00000 	moveq	r0, r0
    1614:	00010000 	andeq	r0, r1, r0
    1618:	0001a053 	andeq	sl, r1, r3, asr r0
    161c:	0001a800 	andeq	sl, r1, r0, lsl #16
    1620:	70001c00 	andvc	r1, r0, r0, lsl #24
    1624:	f72cf700 			; <UNDEFINED> instruction: 0xf72cf700
    1628:	0825f425 	stmdaeq	r5!, {r0, r2, r5, sl, ip, sp, lr, pc}
    162c:	cccccccd 	stclgt	12, cr12, [ip], {205}	; 0xcd
    1630:	00000000 	andeq	r0, r0, r0
    1634:	f720081e 			; <UNDEFINED> instruction: 0xf720081e
    1638:	2cf72525 	cfldr64cs	mvdx2, [r7], #148	; 0x94
    163c:	a89f2533 	ldmge	pc, {r0, r1, r4, r5, r8, sl, sp}	; <UNPREDICTABLE>
    1640:	ac000001 	stcge	0, cr0, [r0], {1}
    1644:	01000001 	tsteq	r0, r1
    1648:	01ac5300 			; <UNDEFINED> instruction: 0x01ac5300
    164c:	01b40000 			; <UNDEFINED> instruction: 0x01b40000
    1650:	001c0000 	andseq	r0, ip, r0
    1654:	2cf70070 	ldclcs	0, cr0, [r7], #448	; 0x1c0
    1658:	25f425f7 	ldrbcs	r2, [r4, #1527]!	; 0x5f7
    165c:	cccccd08 	stclgt	13, cr12, [ip], {8}
    1660:	000000cc 	andeq	r0, r0, ip, asr #1
    1664:	20081e00 	andcs	r1, r8, r0, lsl #28
    1668:	f72525f7 			; <UNDEFINED> instruction: 0xf72525f7
    166c:	9f25332c 	svcls	0x0025332c
    1670:	000001b4 			; <UNDEFINED> instruction: 0x000001b4
    1674:	000001b8 			; <UNDEFINED> instruction: 0x000001b8
    1678:	b8530001 	ldmdalt	r3, {r0}^
    167c:	c0000001 	andgt	r0, r0, r1
    1680:	1c000001 	stcne	0, cr0, [r0], {1}
    1684:	f7007000 			; <UNDEFINED> instruction: 0xf7007000
    1688:	f425f72c 	vld1.8	{d15}, [r5 :128], ip
    168c:	cccd0825 	stclgt	8, cr0, [sp], {37}	; 0x25
    1690:	0000cccc 	andeq	ip, r0, ip, asr #25
    1694:	081e0000 	ldmdaeq	lr, {}	; <UNPREDICTABLE>
    1698:	2525f720 	strcs	pc, [r5, #-1824]!	; 0x720
    169c:	25332cf7 	ldrcs	r2, [r3, #-3319]!	; 0xcf7
    16a0:	0001c09f 	muleq	r1, pc, r0	; <UNPREDICTABLE>
    16a4:	0001c400 	andeq	ip, r1, r0, lsl #8
    16a8:	53000100 	movwpl	r0, #256	; 0x100
    16ac:	000001c4 	andeq	r0, r0, r4, asr #3
    16b0:	000001cc 	andeq	r0, r0, ip, asr #3
    16b4:	0070001c 	rsbseq	r0, r0, ip, lsl r0
    16b8:	25f72cf7 	ldrbcs	r2, [r7, #3319]!	; 0xcf7
    16bc:	cd0825f4 	cfstr32gt	mvfx2, [r8, #-976]	; 0xfffffc30
    16c0:	00cccccc 	sbceq	ip, ip, ip, asr #25
    16c4:	1e000000 	cdpne	0, 0, cr0, cr0, cr0, {0}
    16c8:	25f72008 	ldrbcs	r2, [r7, #8]!
    16cc:	332cf725 	msrcc	CPSR_fs, #9699328	; 0x940000
    16d0:	01cc9f25 	biceq	r9, ip, r5, lsr #30
    16d4:	01d00000 	bicseq	r0, r0, r0
    16d8:	00010000 	andeq	r0, r1, r0
    16dc:	0001d053 	andeq	sp, r1, r3, asr r0
    16e0:	0001d400 	andeq	sp, r1, r0, lsl #8
    16e4:	70001c00 	andvc	r1, r0, r0, lsl #24
    16e8:	f72cf700 			; <UNDEFINED> instruction: 0xf72cf700
    16ec:	0825f425 	stmdaeq	r5!, {r0, r2, r5, sl, ip, sp, lr, pc}
    16f0:	cccccccd 	stclgt	12, cr12, [ip], {205}	; 0xcd
    16f4:	00000000 	andeq	r0, r0, r0
    16f8:	f720081e 			; <UNDEFINED> instruction: 0xf720081e
    16fc:	2cf72525 	cfldr64cs	mvdx2, [r7], #148	; 0x94
    1700:	d49f2533 	ldrle	r2, [pc], #1331	; 1708 <_start-0x68f8>
    1704:	dc000001 	stcle	0, cr0, [r0], {1}
    1708:	1c000001 	stcne	0, cr0, [r0], {1}
    170c:	f7007400 			; <UNDEFINED> instruction: 0xf7007400
    1710:	f425f72c 	vld1.8	{d15}, [r5 :128], ip
    1714:	cccd0825 	stclgt	8, cr0, [sp], {37}	; 0x25
    1718:	0000cccc 	andeq	ip, r0, ip, asr #25
    171c:	081e0000 	ldmdaeq	lr, {}	; <UNPREDICTABLE>
    1720:	2525f720 	strcs	pc, [r5, #-1824]!	; 0x720
    1724:	25332cf7 	ldrcs	r2, [r3, #-3319]!	; 0xcf7
    1728:	0001dc9f 	muleq	r1, pc, ip	; <UNPREDICTABLE>
    172c:	0001e000 	andeq	lr, r1, r0
    1730:	74001700 	strvc	r1, [r0], #-1792	; 0x700
    1734:	f72cf700 			; <UNDEFINED> instruction: 0xf72cf700
    1738:	f7007125 			; <UNDEFINED> instruction: 0xf7007125
    173c:	1e25f72c 	cdpne	7, 2, cr15, cr5, cr12, {1}
    1740:	25f72008 	ldrbcs	r2, [r7, #8]!
    1744:	332cf725 	msrcc	CPSR_fs, #9699328	; 0x940000
    1748:	01e09f25 	mvneq	r9, r5, lsr #30
    174c:	02100000 	andseq	r0, r0, #0
    1750:	001c0000 	andseq	r0, ip, r0
    1754:	2cf70074 	ldclcs	0, cr0, [r7], #464	; 0x1d0
    1758:	25f425f7 	ldrbcs	r2, [r4, #1527]!	; 0x5f7
    175c:	cccccd08 	stclgt	13, cr12, [ip], {8}
    1760:	000000cc 	andeq	r0, r0, ip, asr #1
    1764:	20081e00 	andcs	r1, r8, r0, lsl #28
    1768:	f72525f7 			; <UNDEFINED> instruction: 0xf72525f7
    176c:	9f25332c 	svcls	0x0025332c
	...
    1778:	000001d8 	ldrdeq	r0, [r0], -r8
    177c:	000001fc 	strdeq	r0, [r0], -ip
    1780:	fc500001 	mrrc2	0, 0, r0, r0, cr1	; <UNPREDICTABLE>
    1784:	03000001 	movweq	r0, #1
    1788:	01000002 	tsteq	r0, r2
    178c:	00005100 	andeq	r5, r0, r0, lsl #2
    1790:	00000000 	andeq	r0, r0, r0
    1794:	02100000 	andseq	r0, r0, #0
    1798:	022c0000 	eoreq	r0, ip, #0
    179c:	00010000 	andeq	r0, r1, r0
    17a0:	00022c50 	andeq	r2, r2, r0, asr ip
    17a4:	00023400 	andeq	r3, r2, r0, lsl #8
    17a8:	54000100 	strpl	r0, [r0], #-256	; 0x100
    17ac:	00000234 	andeq	r0, r0, r4, lsr r2
    17b0:	0000023c 	andeq	r0, r0, ip, lsr r2
    17b4:	3c500001 	mrrccc	0, 0, r0, r0, cr1	; <UNPREDICTABLE>
    17b8:	44000002 	strmi	r0, [r0], #-2
    17bc:	01000002 	tsteq	r0, r2
    17c0:	02445400 	subeq	r5, r4, #0, 8
    17c4:	02500000 	subseq	r0, r0, #0
    17c8:	00040000 	andeq	r0, r4, r0
    17cc:	9f5001f3 	svcls	0x005001f3
    17d0:	00000250 	andeq	r0, r0, r0, asr r2
    17d4:	00000254 	andeq	r0, r0, r4, asr r2
    17d8:	54500001 	ldrbpl	r0, [r0], #-1
    17dc:	5c000002 	stcpl	0, cr0, [r0], {2}
    17e0:	01000002 	tsteq	r0, r2
    17e4:	00005400 	andeq	r5, r0, r0, lsl #8
    17e8:	00000000 	andeq	r0, r0, r0
    17ec:	02200000 	eoreq	r0, r0, #0
    17f0:	02300000 	eorseq	r0, r0, #0
    17f4:	00020000 	andeq	r0, r2, r0
    17f8:	02309f30 	eorseq	r9, r0, #48, 30	; 0xc0
    17fc:	02340000 	eorseq	r0, r4, #0
    1800:	00010000 	andeq	r0, r1, r0
    1804:	00023450 	andeq	r3, r2, r0, asr r4
    1808:	00024000 	andeq	r4, r2, r0
    180c:	30000200 	andcc	r0, r0, r0, lsl #4
    1810:	0002409f 	muleq	r2, pc, r0	; <UNPREDICTABLE>
    1814:	00024c00 	andeq	r4, r2, r0, lsl #24
    1818:	50000100 	andpl	r0, r0, r0, lsl #2
	...
    1824:	0000025c 	andeq	r0, r0, ip, asr r2
    1828:	00000273 	andeq	r0, r0, r3, ror r2
    182c:	73500001 	cmpvc	r0, #1
    1830:	78000002 	stmdavc	r0, {r1}
    1834:	04000002 	streq	r0, [r0], #-2
    1838:	5001f300 	andpl	pc, r1, r0, lsl #6
    183c:	0002789f 	muleq	r2, pc, r8	; <UNPREDICTABLE>
    1840:	00027b00 	andeq	r7, r2, r0, lsl #22
    1844:	50000100 	andpl	r0, r0, r0, lsl #2
    1848:	0000027b 	andeq	r0, r0, fp, ror r2
    184c:	00000280 	andeq	r0, r0, r0, lsl #5
    1850:	01f30004 	mvnseq	r0, r4
    1854:	00009f50 	andeq	r9, r0, r0, asr pc
    1858:	00000000 	andeq	r0, r0, r0
    185c:	025c0000 	subseq	r0, ip, #0
    1860:	02730000 	rsbseq	r0, r3, #0
    1864:	00010000 	andeq	r0, r1, r0
    1868:	00027351 	andeq	r7, r2, r1, asr r3
    186c:	00027800 	andeq	r7, r2, r0, lsl #16
    1870:	f3000400 	vshl.u8	d0, d0, d0
    1874:	789f5101 	ldmvc	pc, {r0, r8, ip, lr}	; <UNPREDICTABLE>
    1878:	7b000002 	blvc	1888 <_start-0x6778>
    187c:	01000002 	tsteq	r0, r2
    1880:	027b5100 	rsbseq	r5, fp, #0, 2
    1884:	02800000 	addeq	r0, r0, #0
    1888:	00040000 	andeq	r0, r4, r0
    188c:	9f5101f3 	svcls	0x005101f3
	...
    1898:	00000280 	andeq	r0, r0, r0, lsl #5
    189c:	00000318 	andeq	r0, r0, r8, lsl r3
    18a0:	18500001 	ldmdane	r0, {r0}^
    18a4:	58000003 	stmdapl	r0, {r0, r1}
    18a8:	01000003 	tsteq	r0, r3
    18ac:	00005400 	andeq	r5, r0, r0, lsl #8
    18b0:	00000000 	andeq	r0, r0, r0
    18b4:	02800000 	addeq	r0, r0, #0
    18b8:	031b0000 	tsteq	fp, #0
    18bc:	00010000 	andeq	r0, r1, r0
    18c0:	00031b51 	andeq	r1, r3, r1, asr fp
    18c4:	00035800 	andeq	r5, r3, r0, lsl #16
    18c8:	f3000400 	vshl.u8	d0, d0, d0
    18cc:	009f5101 	addseq	r5, pc, r1, lsl #2
    18d0:	00000000 	andeq	r0, r0, r0
    18d4:	d0000000 	andle	r0, r0, r0
    18d8:	d4000002 	strle	r0, [r0], #-2
    18dc:	01000002 	tsteq	r0, r2
    18e0:	02dc5600 	sbcseq	r5, ip, #0, 12
    18e4:	02e00000 	rsceq	r0, r0, #0
    18e8:	00010000 	andeq	r0, r1, r0
    18ec:	0002e856 	andeq	lr, r2, r6, asr r8
    18f0:	0002ec00 	andeq	lr, r2, r0, lsl #24
    18f4:	56000100 	strpl	r0, [r0], -r0, lsl #2
    18f8:	000002f4 	strdeq	r0, [r0], -r4
    18fc:	000002f8 	strdeq	r0, [r0], -r8
    1900:	00560001 	subseq	r0, r6, r1
    1904:	04000003 	streq	r0, [r0], #-3
    1908:	01000003 	tsteq	r0, r3
    190c:	030c5600 	movweq	r5, #50688	; 0xc600
    1910:	03100000 	tsteq	r0, #0
    1914:	00010000 	andeq	r0, r1, r0
    1918:	00031456 	andeq	r1, r3, r6, asr r4
    191c:	00035800 	andeq	r5, r3, r0, lsl #16
    1920:	56000100 	strpl	r0, [r0], -r0, lsl #2
	...
    192c:	000002a4 	andeq	r0, r0, r4, lsr #5
    1930:	000002cc 	andeq	r0, r0, ip, asr #5
    1934:	cc530001 	mrrcgt	0, 0, r0, r3, cr1
    1938:	d4000002 	strle	r0, [r0], #-2
    193c:	1c000002 	stcne	0, cr0, [r0], {2}
    1940:	f7007000 			; <UNDEFINED> instruction: 0xf7007000
    1944:	f425f72c 	vld1.8	{d15}, [r5 :128], ip
    1948:	cccd0825 	stclgt	8, cr0, [sp], {37}	; 0x25
    194c:	0000cccc 	andeq	ip, r0, ip, asr #25
    1950:	081e0000 	ldmdaeq	lr, {}	; <UNPREDICTABLE>
    1954:	2525f720 	strcs	pc, [r5, #-1824]!	; 0x720
    1958:	25332cf7 	ldrcs	r2, [r3, #-3319]!	; 0xcf7
    195c:	0002d49f 	muleq	r2, pc, r4	; <UNPREDICTABLE>
    1960:	0002d800 	andeq	sp, r2, r0, lsl #16
    1964:	53000100 	movwpl	r0, #256	; 0x100
    1968:	000002d8 	ldrdeq	r0, [r0], -r8
    196c:	000002e0 	andeq	r0, r0, r0, ror #5
    1970:	0070001c 	rsbseq	r0, r0, ip, lsl r0
    1974:	25f72cf7 	ldrbcs	r2, [r7, #3319]!	; 0xcf7
    1978:	cd0825f4 	cfstr32gt	mvfx2, [r8, #-976]	; 0xfffffc30
    197c:	00cccccc 	sbceq	ip, ip, ip, asr #25
    1980:	1e000000 	cdpne	0, 0, cr0, cr0, cr0, {0}
    1984:	25f72008 	ldrbcs	r2, [r7, #8]!
    1988:	332cf725 	msrcc	CPSR_fs, #9699328	; 0x940000
    198c:	02e09f25 	rsceq	r9, r0, #37, 30	; 0x94
    1990:	02e40000 	rsceq	r0, r4, #0
    1994:	00010000 	andeq	r0, r1, r0
    1998:	0002e453 	andeq	lr, r2, r3, asr r4
    199c:	0002ec00 	andeq	lr, r2, r0, lsl #24
    19a0:	70001c00 	andvc	r1, r0, r0, lsl #24
    19a4:	f72cf700 			; <UNDEFINED> instruction: 0xf72cf700
    19a8:	0825f425 	stmdaeq	r5!, {r0, r2, r5, sl, ip, sp, lr, pc}
    19ac:	cccccccd 	stclgt	12, cr12, [ip], {205}	; 0xcd
    19b0:	00000000 	andeq	r0, r0, r0
    19b4:	f720081e 			; <UNDEFINED> instruction: 0xf720081e
    19b8:	2cf72525 	cfldr64cs	mvdx2, [r7], #148	; 0x94
    19bc:	ec9f2533 	cfldr32	mvfx2, [pc], {51}	; 0x33
    19c0:	f0000002 			; <UNDEFINED> instruction: 0xf0000002
    19c4:	01000002 	tsteq	r0, r2
    19c8:	02f05300 	rscseq	r5, r0, #0, 6
    19cc:	02f80000 	rscseq	r0, r8, #0
    19d0:	001c0000 	andseq	r0, ip, r0
    19d4:	2cf70070 	ldclcs	0, cr0, [r7], #448	; 0x1c0
    19d8:	25f425f7 	ldrbcs	r2, [r4, #1527]!	; 0x5f7
    19dc:	cccccd08 	stclgt	13, cr12, [ip], {8}
    19e0:	000000cc 	andeq	r0, r0, ip, asr #1
    19e4:	20081e00 	andcs	r1, r8, r0, lsl #28
    19e8:	f72525f7 			; <UNDEFINED> instruction: 0xf72525f7
    19ec:	9f25332c 	svcls	0x0025332c
    19f0:	000002f8 	strdeq	r0, [r0], -r8
    19f4:	000002fc 	strdeq	r0, [r0], -ip
    19f8:	fc530001 	mrrc2	0, 0, r0, r3, cr1
    19fc:	04000002 	streq	r0, [r0], #-2
    1a00:	1c000003 	stcne	0, cr0, [r0], {3}
    1a04:	f7007000 			; <UNDEFINED> instruction: 0xf7007000
    1a08:	f425f72c 	vld1.8	{d15}, [r5 :128], ip
    1a0c:	cccd0825 	stclgt	8, cr0, [sp], {37}	; 0x25
    1a10:	0000cccc 	andeq	ip, r0, ip, asr #25
    1a14:	081e0000 	ldmdaeq	lr, {}	; <UNPREDICTABLE>
    1a18:	2525f720 	strcs	pc, [r5, #-1824]!	; 0x720
    1a1c:	25332cf7 	ldrcs	r2, [r3, #-3319]!	; 0xcf7
    1a20:	0003049f 	muleq	r3, pc, r4	; <UNPREDICTABLE>
    1a24:	00030800 	andeq	r0, r3, r0, lsl #16
    1a28:	53000100 	movwpl	r0, #256	; 0x100
    1a2c:	00000308 	andeq	r0, r0, r8, lsl #6
    1a30:	00000310 	andeq	r0, r0, r0, lsl r3
    1a34:	0070001c 	rsbseq	r0, r0, ip, lsl r0
    1a38:	25f72cf7 	ldrbcs	r2, [r7, #3319]!	; 0xcf7
    1a3c:	cd0825f4 	cfstr32gt	mvfx2, [r8, #-976]	; 0xfffffc30
    1a40:	00cccccc 	sbceq	ip, ip, ip, asr #25
    1a44:	1e000000 	cdpne	0, 0, cr0, cr0, cr0, {0}
    1a48:	25f72008 	ldrbcs	r2, [r7, #8]!
    1a4c:	332cf725 	msrcc	CPSR_fs, #9699328	; 0x940000
    1a50:	03109f25 	tsteq	r0, #37, 30	; 0x94
    1a54:	03140000 	tsteq	r4, #0
    1a58:	00010000 	andeq	r0, r1, r0
    1a5c:	00031453 	andeq	r1, r3, r3, asr r4
    1a60:	00031800 	andeq	r1, r3, r0, lsl #16
    1a64:	70001c00 	andvc	r1, r0, r0, lsl #24
    1a68:	f72cf700 			; <UNDEFINED> instruction: 0xf72cf700
    1a6c:	0825f425 	stmdaeq	r5!, {r0, r2, r5, sl, ip, sp, lr, pc}
    1a70:	cccccccd 	stclgt	12, cr12, [ip], {205}	; 0xcd
    1a74:	00000000 	andeq	r0, r0, r0
    1a78:	f720081e 			; <UNDEFINED> instruction: 0xf720081e
    1a7c:	2cf72525 	cfldr64cs	mvdx2, [r7], #148	; 0x94
    1a80:	189f2533 	ldmne	pc, {r0, r1, r4, r5, r8, sl, sp}	; <UNPREDICTABLE>
    1a84:	20000003 	andcs	r0, r0, r3
    1a88:	1c000003 	stcne	0, cr0, [r0], {3}
    1a8c:	f7007400 			; <UNDEFINED> instruction: 0xf7007400
    1a90:	f425f72c 	vld1.8	{d15}, [r5 :128], ip
    1a94:	cccd0825 	stclgt	8, cr0, [sp], {37}	; 0x25
    1a98:	0000cccc 	andeq	ip, r0, ip, asr #25
    1a9c:	081e0000 	ldmdaeq	lr, {}	; <UNPREDICTABLE>
    1aa0:	2525f720 	strcs	pc, [r5, #-1824]!	; 0x720
    1aa4:	25332cf7 	ldrcs	r2, [r3, #-3319]!	; 0xcf7
    1aa8:	0003209f 	muleq	r3, pc, r0	; <UNPREDICTABLE>
    1aac:	00032400 	andeq	r2, r3, r0, lsl #8
    1ab0:	74001700 	strvc	r1, [r0], #-1792	; 0x700
    1ab4:	f72cf700 			; <UNDEFINED> instruction: 0xf72cf700
    1ab8:	f7007325 			; <UNDEFINED> instruction: 0xf7007325
    1abc:	1e25f72c 	cdpne	7, 2, cr15, cr5, cr12, {1}
    1ac0:	25f72008 	ldrbcs	r2, [r7, #8]!
    1ac4:	332cf725 	msrcc	CPSR_fs, #9699328	; 0x940000
    1ac8:	03249f25 	teqeq	r4, #37, 30	; 0x94
    1acc:	03580000 	cmpeq	r8, #0
    1ad0:	001c0000 	andseq	r0, ip, r0
    1ad4:	2cf70074 	ldclcs	0, cr0, [r7], #464	; 0x1d0
    1ad8:	25f425f7 	ldrbcs	r2, [r4, #1527]!	; 0x5f7
    1adc:	cccccd08 	stclgt	13, cr12, [ip], {8}
    1ae0:	000000cc 	andeq	r0, r0, ip, asr #1
    1ae4:	20081e00 	andcs	r1, r8, r0, lsl #28
    1ae8:	f72525f7 			; <UNDEFINED> instruction: 0xf72525f7
    1aec:	9f25332c 	svcls	0x0025332c
	...
    1af8:	0000031c 	andeq	r0, r0, ip, lsl r3
    1afc:	00000340 	andeq	r0, r0, r0, asr #6
    1b00:	40500001 	subsmi	r0, r0, r1
    1b04:	48000003 	stmdami	r0, {r0, r1}
    1b08:	09000003 	stmdbeq	r0, {r0, r1}
    1b0c:	73007500 	movwvc	r7, #1280	; 0x500
    1b10:	00712400 	rsbseq	r2, r1, r0, lsl #8
    1b14:	03489f21 	movteq	r9, #36641	; 0x8f21
    1b18:	034b0000 	movteq	r0, #45056	; 0xb000
    1b1c:	00010000 	andeq	r0, r1, r0
    1b20:	00000051 	andeq	r0, r0, r1, asr r0
    1b24:	00000000 	andeq	r0, r0, r0
    1b28:	00035800 	andeq	r5, r3, r0, lsl #16
    1b2c:	00037c00 	andeq	r7, r3, r0, lsl #24
    1b30:	50000100 	andpl	r0, r0, r0, lsl #2
    1b34:	0000037c 	andeq	r0, r0, ip, ror r3
    1b38:	00000390 	muleq	r0, r0, r3
    1b3c:	01f30004 	mvnseq	r0, r4
    1b40:	00009f50 	andeq	r9, r0, r0, asr pc
    1b44:	00000000 	andeq	r0, r0, r0
    1b48:	03640000 	cmneq	r4, #0
    1b4c:	036c0000 	cmneq	ip, #0
    1b50:	00020000 	andeq	r0, r2, r0
    1b54:	036c9f30 	cmneq	ip, #48, 30	; 0xc0
    1b58:	036c0000 	cmneq	ip, #0
    1b5c:	00010000 	andeq	r0, r1, r0
    1b60:	00036c52 	andeq	r6, r3, r2, asr ip
    1b64:	00037400 	andeq	r7, r3, r0, lsl #8
    1b68:	30000200 	andcc	r0, r0, r0, lsl #4
    1b6c:	0003749f 	muleq	r3, pc, r4	; <UNPREDICTABLE>
    1b70:	00038700 	andeq	r8, r3, r0, lsl #14
    1b74:	52000100 	andpl	r0, r0, #0, 2
	...
    1b80:	00000364 	andeq	r0, r0, r4, ror #6
    1b84:	00000378 	andeq	r0, r0, r8, ror r3
    1b88:	9f300002 	svcls	0x00300002
    1b8c:	00000378 	andeq	r0, r0, r8, ror r3
    1b90:	00000384 	andeq	r0, r0, r4, lsl #7
    1b94:	73310005 	teqvc	r1, #5
    1b98:	849f2400 	ldrhi	r2, [pc], #1024	; 1ba0 <_start-0x6460>
    1b9c:	87000003 	strhi	r0, [r0, -r3]
    1ba0:	01000003 	tsteq	r0, r3
    1ba4:	03875100 	orreq	r5, r7, #0, 2
    1ba8:	03900000 	orrseq	r0, r0, #0
    1bac:	00080000 	andeq	r0, r8, r0
    1bb0:	5001f331 	andpl	pc, r1, r1, lsr r3	; <UNPREDICTABLE>
    1bb4:	9f241a4f 	svcls	0x00241a4f
	...
    1bc0:	00000390 	muleq	r0, r0, r3
    1bc4:	0000039c 	muleq	r0, ip, r3
    1bc8:	9c500001 	mrrcls	0, 0, r0, r0, cr1	; <UNPREDICTABLE>
    1bcc:	bc000003 	stclt	0, cr0, [r0], {3}
    1bd0:	04000003 	streq	r0, [r0], #-3
    1bd4:	5001f300 	andpl	pc, r1, r0, lsl #6
    1bd8:	0000009f 	muleq	r0, pc, r0	; <UNPREDICTABLE>
    1bdc:	00000000 	andeq	r0, r0, r0
    1be0:	0003bc00 	andeq	fp, r3, r0, lsl #24
    1be4:	0003cf00 	andeq	ip, r3, r0, lsl #30
    1be8:	50000100 	andpl	r0, r0, r0, lsl #2
    1bec:	000003cf 	andeq	r0, r0, pc, asr #7
    1bf0:	00000408 	andeq	r0, r0, r8, lsl #8
    1bf4:	08540001 	ldmdaeq	r4, {r0}^
    1bf8:	40000004 	andmi	r0, r0, r4
    1bfc:	04000004 	streq	r0, [r0], #-4
    1c00:	5001f300 	andpl	pc, r1, r0, lsl #6
    1c04:	0000009f 	muleq	r0, pc, r0	; <UNPREDICTABLE>
    1c08:	00000000 	andeq	r0, r0, r0
    1c0c:	00042800 	andeq	r2, r4, r0, lsl #16
    1c10:	00042c00 	andeq	r2, r4, r0, lsl #24
    1c14:	50000100 	andpl	r0, r0, r0, lsl #2
    1c18:	0000042c 	andeq	r0, r0, ip, lsr #8
    1c1c:	00000433 	andeq	r0, r0, r3, lsr r4
    1c20:	00510001 	subseq	r0, r1, r1
    1c24:	00000000 	andeq	r0, r0, r0
    1c28:	e4000000 	str	r0, [r0], #-0
    1c2c:	ec000003 	stc	0, cr0, [r0], {3}
    1c30:	01000003 	tsteq	r0, r3
    1c34:	03ec5000 	mvneq	r5, #0
    1c38:	03f30000 	mvnseq	r0, #0
    1c3c:	00010000 	andeq	r0, r1, r0
    1c40:	00000051 	andeq	r0, r0, r1, asr r0
    1c44:	00000000 	andeq	r0, r0, r0
    1c48:	00040400 	andeq	r0, r4, r0, lsl #8
    1c4c:	00041000 	andeq	r1, r4, r0
    1c50:	50000100 	andpl	r0, r0, r0, lsl #2
    1c54:	00000410 	andeq	r0, r0, r0, lsl r4
    1c58:	00000417 	andeq	r0, r0, r7, lsl r4
    1c5c:	00510001 	subseq	r0, r1, r1
    1c60:	00000000 	andeq	r0, r0, r0
    1c64:	40000000 	andmi	r0, r0, r0
    1c68:	53000004 	movwpl	r0, #4
    1c6c:	01000004 	tsteq	r0, r4
    1c70:	04535000 	ldrbeq	r5, [r3], #-0
    1c74:	048c0000 	streq	r0, [ip], #0
    1c78:	00010000 	andeq	r0, r1, r0
    1c7c:	00048c54 	andeq	r8, r4, r4, asr ip
    1c80:	0004c400 	andeq	ip, r4, r0, lsl #8
    1c84:	f3000400 	vshl.u8	d0, d0, d0
    1c88:	009f5001 	addseq	r5, pc, r1
    1c8c:	00000000 	andeq	r0, r0, r0
    1c90:	ac000000 	stcge	0, cr0, [r0], {-0}
    1c94:	b0000004 	andlt	r0, r0, r4
    1c98:	01000004 	tsteq	r0, r4
    1c9c:	04b05000 	ldrteq	r5, [r0], #0
    1ca0:	04b70000 	ldrteq	r0, [r7], #0
    1ca4:	00010000 	andeq	r0, r1, r0
    1ca8:	00000051 	andeq	r0, r0, r1, asr r0
    1cac:	00000000 	andeq	r0, r0, r0
    1cb0:	00046800 	andeq	r6, r4, r0, lsl #16
    1cb4:	00047000 	andeq	r7, r4, r0
    1cb8:	50000100 	andpl	r0, r0, r0, lsl #2
    1cbc:	00000470 	andeq	r0, r0, r0, ror r4
    1cc0:	00000477 	andeq	r0, r0, r7, ror r4
    1cc4:	00510001 	subseq	r0, r1, r1
    1cc8:	00000000 	andeq	r0, r0, r0
    1ccc:	88000000 	stmdahi	r0, {}	; <UNPREDICTABLE>
    1cd0:	94000004 	strls	r0, [r0], #-4
    1cd4:	01000004 	tsteq	r0, r4
    1cd8:	04945000 	ldreq	r5, [r4], #0
    1cdc:	049b0000 	ldreq	r0, [fp], #0
    1ce0:	00010000 	andeq	r0, r1, r0
    1ce4:	00000051 	andeq	r0, r0, r1, asr r0
    1ce8:	00000000 	andeq	r0, r0, r0
    1cec:	0004c400 	andeq	ip, r4, r0, lsl #8
    1cf0:	0004d700 	andeq	sp, r4, r0, lsl #14
    1cf4:	50000100 	andpl	r0, r0, r0, lsl #2
    1cf8:	000004d7 	ldrdeq	r0, [r0], -r7
    1cfc:	00000518 	andeq	r0, r0, r8, lsl r5
    1d00:	18540001 	ldmdane	r4, {r0}^
    1d04:	3c000005 	stccc	0, cr0, [r0], {5}
    1d08:	04000005 	streq	r0, [r0], #-5
    1d0c:	5001f300 	andpl	pc, r1, r0, lsl #6
    1d10:	00053c9f 	muleq	r5, pc, ip	; <UNPREDICTABLE>
    1d14:	00054000 	andeq	r4, r5, r0
    1d18:	50000100 	andpl	r0, r0, r0, lsl #2
    1d1c:	00000540 	andeq	r0, r0, r0, asr #10
    1d20:	00000548 	andeq	r0, r0, r8, asr #10
    1d24:	00540001 	subseq	r0, r4, r1
    1d28:	00000000 	andeq	r0, r0, r0
    1d2c:	ec000000 	stc	0, cr0, [r0], {-0}
    1d30:	fb000004 	blx	1d4a <_start-0x62b6>
    1d34:	08000004 	stmdaeq	r0, {r2}
    1d38:	00743100 	rsbseq	r3, r4, r0, lsl #2
    1d3c:	1a007024 	bne	1ddd4 <__bss_end__+0x130bc>
    1d40:	0000009f 	muleq	r0, pc, r0	; <UNPREDICTABLE>
    1d44:	00000000 	andeq	r0, r0, r0
    1d48:	00051800 	andeq	r1, r5, r0, lsl #16
    1d4c:	00053000 	andeq	r3, r5, r0
    1d50:	54000100 	strpl	r0, [r0], #-256	; 0x100
	...
    1d5c:	00000548 	andeq	r0, r0, r8, asr #10
    1d60:	0000055b 	andeq	r0, r0, fp, asr r5
    1d64:	5b500001 	blpl	1401d70 <__bss_end__+0x13f7058>
    1d68:	80000005 	andhi	r0, r0, r5
    1d6c:	01000005 	tsteq	r0, r5
    1d70:	05805400 	streq	r5, [r0, #1024]	; 0x400
    1d74:	05a00000 	streq	r0, [r0, #0]!
    1d78:	00040000 	andeq	r0, r4, r0
    1d7c:	9f5001f3 	svcls	0x005001f3
	...
    1d8c:	00000018 	andeq	r0, r0, r8, lsl r0
    1d90:	18500001 	ldmdane	r0, {r0}^
    1d94:	54000000 	strpl	r0, [r0], #-0
    1d98:	04000001 	streq	r0, [r0], #-1
    1d9c:	5001f300 	andpl	pc, r1, r0, lsl #6
    1da0:	0000009f 	muleq	r0, pc, r0	; <UNPREDICTABLE>
	...
    1dac:	00001c00 	andeq	r1, r0, r0, lsl #24
    1db0:	51000100 	mrspl	r0, (UNDEF: 16)
    1db4:	0000001c 	andeq	r0, r0, ip, lsl r0
    1db8:	00000154 	andeq	r0, r0, r4, asr r1
    1dbc:	01f30004 	mvnseq	r0, r4
    1dc0:	00009f51 	andeq	r9, r0, r1, asr pc
    1dc4:	00000000 	andeq	r0, r0, r0
    1dc8:	00100000 	andseq	r0, r0, r0
    1dcc:	01340000 	teqeq	r4, r0
    1dd0:	00010000 	andeq	r0, r1, r0
    1dd4:	00000055 	andeq	r0, r0, r5, asr r0
    1dd8:	00000000 	andeq	r0, r0, r0
    1ddc:	00001000 	andeq	r1, r0, r0
    1de0:	00003400 	andeq	r3, r0, r0, lsl #8
    1de4:	55000100 	strpl	r0, [r0, #-256]	; 0x100
    1de8:	00000034 	andeq	r0, r0, r4, lsr r0
    1dec:	00000134 	andeq	r0, r0, r4, lsr r1
    1df0:	34580001 	ldrbcc	r0, [r8], #-1
    1df4:	54000001 	strpl	r0, [r0], #-1
    1df8:	01000001 	tsteq	r0, r1
    1dfc:	00005500 	andeq	r5, r0, r0, lsl #10
    1e00:	00000000 	andeq	r0, r0, r0
    1e04:	00140000 	andseq	r0, r4, r0
    1e08:	01340000 	teqeq	r4, r0
    1e0c:	00010000 	andeq	r0, r1, r0
    1e10:	00000055 	andeq	r0, r0, r5, asr r0
    1e14:	00000000 	andeq	r0, r0, r0
    1e18:	00002000 	andeq	r2, r0, r0
    1e1c:	00013400 	andeq	r3, r1, r0, lsl #8
    1e20:	55000100 	strpl	r0, [r0, #-256]	; 0x100
	...
    1e2c:	00000024 	andeq	r0, r0, r4, lsr #32
    1e30:	00000028 	andeq	r0, r0, r8, lsr #32
    1e34:	00530001 	subseq	r0, r3, r1
    1e38:	00000000 	andeq	r0, r0, r0
    1e3c:	34000000 	strcc	r0, [r0], #-0
    1e40:	54000000 	strpl	r0, [r0], #-0
    1e44:	01000000 	mrseq	r0, (UNDEF: 0)
    1e48:	00545800 	subseq	r5, r4, r0, lsl #16
    1e4c:	01340000 	teqeq	r4, r0
    1e50:	00050000 	andeq	r0, r5, r0
    1e54:	24310075 	ldrtcs	r0, [r1], #-117	; 0x75
    1e58:	0000009f 	muleq	r0, pc, r0	; <UNPREDICTABLE>
    1e5c:	00000000 	andeq	r0, r0, r0
    1e60:	00003400 	andeq	r3, r0, r0, lsl #8
    1e64:	00003c00 	andeq	r3, r0, r0, lsl #24
    1e68:	77000500 	strvc	r0, [r0, -r0, lsl #10]
    1e6c:	9f1a3100 	svcls	0x001a3100
    1e70:	0000003c 	andeq	r0, r0, ip, lsr r0
    1e74:	0000003f 	andeq	r0, r0, pc, lsr r0
    1e78:	3f510001 	svccc	0x00510001
    1e7c:	54000000 	strpl	r0, [r0], #-0
    1e80:	05000001 	streq	r0, [r0, #-1]
    1e84:	31007700 	tstcc	r0, r0, lsl #14
    1e88:	00009f1a 	andeq	r9, r0, sl, lsl pc
    1e8c:	00000000 	andeq	r0, r0, r0
    1e90:	00400000 	subeq	r0, r0, r0
    1e94:	00540000 	subseq	r0, r4, r0
    1e98:	00010000 	andeq	r0, r1, r0
    1e9c:	00005458 	andeq	r5, r0, r8, asr r4
    1ea0:	00013400 	andeq	r3, r1, r0, lsl #8
    1ea4:	75000500 	strvc	r0, [r0, #-1280]	; 0x500
    1ea8:	9f243100 	svcls	0x00243100
	...
    1eb4:	00000044 	andeq	r0, r0, r4, asr #32
    1eb8:	00000048 	andeq	r0, r0, r8, asr #32
    1ebc:	00530001 	subseq	r0, r3, r1
    1ec0:	00000000 	andeq	r0, r0, r0
    1ec4:	54000000 	strpl	r0, [r0], #-0
    1ec8:	74000000 	strvc	r0, [r0], #-0
    1ecc:	01000000 	mrseq	r0, (UNDEF: 0)
    1ed0:	00745800 	rsbseq	r5, r4, r0, lsl #16
    1ed4:	01340000 	teqeq	r4, r0
    1ed8:	00080000 	andeq	r0, r8, r0
    1edc:	24310075 	ldrtcs	r0, [r1], #-117	; 0x75
    1ee0:	9f220075 	svcls	0x00220075
	...
    1eec:	00000060 	andeq	r0, r0, r0, rrx
    1ef0:	00000074 	andeq	r0, r0, r4, ror r0
    1ef4:	74580001 	ldrbvc	r0, [r8], #-1
    1ef8:	34000000 	strcc	r0, [r0], #-0
    1efc:	08000001 	stmdaeq	r0, {r0}
    1f00:	31007500 	tstcc	r0, r0, lsl #10
    1f04:	22007524 	andcs	r7, r0, #36, 10	; 0x9000000
    1f08:	0000009f 	muleq	r0, pc, r0	; <UNPREDICTABLE>
    1f0c:	00000000 	andeq	r0, r0, r0
    1f10:	00006400 	andeq	r6, r0, r0, lsl #8
    1f14:	00006800 	andeq	r6, r0, r0, lsl #16
    1f18:	53000100 	movwpl	r0, #256	; 0x100
	...
    1f24:	00000074 	andeq	r0, r0, r4, ror r0
    1f28:	00000094 	muleq	r0, r4, r0
    1f2c:	94580001 	ldrbls	r0, [r8], #-1
    1f30:	34000000 	strcc	r0, [r0], #-0
    1f34:	05000001 	streq	r0, [r0, #-1]
    1f38:	32007500 	andcc	r7, r0, #0, 10
    1f3c:	00009f24 	andeq	r9, r0, r4, lsr #30
    1f40:	00000000 	andeq	r0, r0, r0
    1f44:	00800000 	addeq	r0, r0, r0
    1f48:	00940000 	addseq	r0, r4, r0
    1f4c:	00010000 	andeq	r0, r1, r0
    1f50:	00009458 	andeq	r9, r0, r8, asr r4
    1f54:	00013400 	andeq	r3, r1, r0, lsl #8
    1f58:	75000500 	strvc	r0, [r0, #-1280]	; 0x500
    1f5c:	9f243200 	svcls	0x00243200
	...
    1f68:	00000084 	andeq	r0, r0, r4, lsl #1
    1f6c:	00000088 	andeq	r0, r0, r8, lsl #1
    1f70:	00530001 	subseq	r0, r3, r1
    1f74:	00000000 	andeq	r0, r0, r0
    1f78:	94000000 	strls	r0, [r0], #-0
    1f7c:	b4000000 	strlt	r0, [r0], #-0
    1f80:	01000000 	mrseq	r0, (UNDEF: 0)
    1f84:	00b45800 	adcseq	r5, r4, r0, lsl #16
    1f88:	01340000 	teqeq	r4, r0
    1f8c:	00080000 	andeq	r0, r8, r0
    1f90:	24320075 	ldrtcs	r0, [r2], #-117	; 0x75
    1f94:	9f220075 	svcls	0x00220075
	...
    1fa0:	000000a0 	andeq	r0, r0, r0, lsr #1
    1fa4:	000000b4 	strheq	r0, [r0], -r4
    1fa8:	b4580001 	ldrblt	r0, [r8], #-1
    1fac:	34000000 	strcc	r0, [r0], #-0
    1fb0:	08000001 	stmdaeq	r0, {r0}
    1fb4:	32007500 	andcc	r7, r0, #0, 10
    1fb8:	22007524 	andcs	r7, r0, #36, 10	; 0x9000000
    1fbc:	0000009f 	muleq	r0, pc, r0	; <UNPREDICTABLE>
    1fc0:	00000000 	andeq	r0, r0, r0
    1fc4:	0000a400 	andeq	sl, r0, r0, lsl #8
    1fc8:	0000a800 	andeq	sl, r0, r0, lsl #16
    1fcc:	53000100 	movwpl	r0, #256	; 0x100
	...
    1fd8:	000000b4 	strheq	r0, [r0], -r4
    1fdc:	000000d4 	ldrdeq	r0, [r0], -r4
    1fe0:	d4580001 	ldrble	r0, [r8], #-1
    1fe4:	34000000 	strcc	r0, [r0], #-0
    1fe8:	0a000001 	beq	1ff4 <_start-0x600c>
    1fec:	32007500 	andcc	r7, r0, #0, 10
    1ff0:	31007524 	tstcc	r0, r4, lsr #10
    1ff4:	009f2224 	addseq	r2, pc, r4, lsr #4
    1ff8:	00000000 	andeq	r0, r0, r0
    1ffc:	c0000000 	andgt	r0, r0, r0
    2000:	d4000000 	strle	r0, [r0], #-0
    2004:	01000000 	mrseq	r0, (UNDEF: 0)
    2008:	00d45800 	sbcseq	r5, r4, r0, lsl #16
    200c:	01340000 	teqeq	r4, r0
    2010:	000a0000 	andeq	r0, sl, r0
    2014:	24320075 	ldrtcs	r0, [r2], #-117	; 0x75
    2018:	24310075 	ldrtcs	r0, [r1], #-117	; 0x75
    201c:	00009f22 	andeq	r9, r0, r2, lsr #30
    2020:	00000000 	andeq	r0, r0, r0
    2024:	00c40000 	sbceq	r0, r4, r0
    2028:	00c80000 	sbceq	r0, r8, r0
    202c:	00010000 	andeq	r0, r1, r0
    2030:	00000053 	andeq	r0, r0, r3, asr r0
    2034:	00000000 	andeq	r0, r0, r0
    2038:	0000d400 	andeq	sp, r0, r0, lsl #8
    203c:	0000f400 	andeq	pc, r0, r0, lsl #8
    2040:	58000100 	stmdapl	r0, {r8}
    2044:	000000f4 	strdeq	r0, [r0], -r4
    2048:	00000134 	andeq	r0, r0, r4, lsr r1
    204c:	0075000d 	rsbseq	r0, r5, sp
    2050:	00752432 	rsbseq	r2, r5, r2, lsr r4
    2054:	75222431 	strvc	r2, [r2, #-1073]!	; 0x431
    2058:	009f2200 	addseq	r2, pc, r0, lsl #4
    205c:	00000000 	andeq	r0, r0, r0
    2060:	e0000000 	and	r0, r0, r0
    2064:	f4000000 	vst4.8	{d0-d3}, [r0], r0
    2068:	01000000 	mrseq	r0, (UNDEF: 0)
    206c:	00f45800 	rscseq	r5, r4, r0, lsl #16
    2070:	01340000 	teqeq	r4, r0
    2074:	000d0000 	andeq	r0, sp, r0
    2078:	24320075 	ldrtcs	r0, [r2], #-117	; 0x75
    207c:	24310075 	ldrtcs	r0, [r1], #-117	; 0x75
    2080:	22007522 	andcs	r7, r0, #142606336	; 0x8800000
    2084:	0000009f 	muleq	r0, pc, r0	; <UNPREDICTABLE>
    2088:	00000000 	andeq	r0, r0, r0
    208c:	0000e400 	andeq	lr, r0, r0, lsl #8
    2090:	0000e800 	andeq	lr, r0, r0, lsl #16
    2094:	53000100 	movwpl	r0, #256	; 0x100
	...
    20a0:	000000f4 	strdeq	r0, [r0], -r4
    20a4:	00000114 	andeq	r0, r0, r4, lsl r1
    20a8:	14580001 	ldrbne	r0, [r8], #-1
    20ac:	34000001 	strcc	r0, [r0], #-1
    20b0:	05000001 	streq	r0, [r0, #-1]
    20b4:	33007500 	movwcc	r7, #1280	; 0x500
    20b8:	00009f24 	andeq	r9, r0, r4, lsr #30
    20bc:	00000000 	andeq	r0, r0, r0
    20c0:	01000000 	mrseq	r0, (UNDEF: 0)
    20c4:	01140000 	tsteq	r4, r0
    20c8:	00010000 	andeq	r0, r1, r0
    20cc:	00011458 	andeq	r1, r1, r8, asr r4
    20d0:	00013400 	andeq	r3, r1, r0, lsl #8
    20d4:	75000500 	strvc	r0, [r0, #-1280]	; 0x500
    20d8:	9f243300 	svcls	0x00243300
	...
    20e4:	00000104 	andeq	r0, r0, r4, lsl #2
    20e8:	00000108 	andeq	r0, r0, r8, lsl #2
    20ec:	00530001 	subseq	r0, r3, r1
    20f0:	00000000 	andeq	r0, r0, r0
    20f4:	14000000 	strne	r0, [r0], #-0
    20f8:	1c000001 	stcne	0, cr0, [r0], {1}
    20fc:	06000001 	streq	r0, [r0], -r1
    2100:	08007700 	stmdaeq	r0, {r8, r9, sl, ip, sp, lr}
    2104:	1c9f1a80 	vldmiane	pc, {s2-s129}
    2108:	1f000001 	svcne	0x00000001
    210c:	01000001 	tsteq	r0, r1
    2110:	011f5100 	tsteq	pc, r0, lsl #2
    2114:	01540000 	cmpeq	r4, r0
    2118:	00060000 	andeq	r0, r6, r0
    211c:	80080077 	andhi	r0, r8, r7, ror r0
    2120:	00009f1a 	andeq	r9, r0, sl, lsl pc
    2124:	00000000 	andeq	r0, r0, r0
    2128:	01240000 	teqeq	r4, r0
    212c:	01280000 	teqeq	r8, r0
    2130:	00010000 	andeq	r0, r1, r0
    2134:	00000053 	andeq	r0, r0, r3, asr r0
    2138:	00000000 	andeq	r0, r0, r0
    213c:	00014400 	andeq	r4, r1, r0, lsl #8
    2140:	00014800 	andeq	r4, r1, r0, lsl #16
    2144:	53000100 	movwpl	r0, #256	; 0x100
	...
    2150:	00000154 	andeq	r0, r0, r4, asr r1
    2154:	0000016b 	andeq	r0, r0, fp, ror #2
    2158:	6b500001 	blvs	1402164 <__bss_end__+0x13f744c>
    215c:	d0000001 	andle	r0, r0, r1
    2160:	01000001 	tsteq	r0, r1
    2164:	01d05900 	bicseq	r5, r0, r0, lsl #18
    2168:	030c0000 	movweq	r0, #49152	; 0xc000
    216c:	00040000 	andeq	r0, r4, r0
    2170:	9f5001f3 	svcls	0x005001f3
    2174:	0000030c 	andeq	r0, r0, ip, lsl #6
    2178:	00000314 	andeq	r0, r0, r4, lsl r3
    217c:	14590001 	ldrbne	r0, [r9], #-1
    2180:	1c000003 	stcne	0, cr0, [r0], {3}
    2184:	04000003 	streq	r0, [r0], #-3
    2188:	5001f300 	andpl	pc, r1, r0, lsl #6
    218c:	0000009f 	muleq	r0, pc, r0	; <UNPREDICTABLE>
    2190:	00000000 	andeq	r0, r0, r0
    2194:	00015400 	andeq	r5, r1, r0, lsl #8
    2198:	00016b00 	andeq	r6, r1, r0, lsl #22
    219c:	51000100 	mrspl	r0, (UNDEF: 16)
    21a0:	0000016b 	andeq	r0, r0, fp, ror #2
    21a4:	0000031c 	andeq	r0, r0, ip, lsl r3
    21a8:	00560001 	subseq	r0, r6, r1
    21ac:	00000000 	andeq	r0, r0, r0
    21b0:	a8000000 	stmdage	r0, {}	; <UNPREDICTABLE>
    21b4:	98000001 	stmdals	r0, {r0}
    21b8:	01000002 	tsteq	r0, r2
    21bc:	00005800 	andeq	r5, r0, r0, lsl #16
    21c0:	00000000 	andeq	r0, r0, r0
    21c4:	01ac0000 			; <UNDEFINED> instruction: 0x01ac0000
    21c8:	02d00000 	sbcseq	r0, r0, #0
    21cc:	00010000 	andeq	r0, r1, r0
    21d0:	00000054 	andeq	r0, r0, r4, asr r0
    21d4:	00000000 	andeq	r0, r0, r0
    21d8:	0001ac00 	andeq	sl, r1, r0, lsl #24
    21dc:	0002d000 	andeq	sp, r2, r0
    21e0:	74000500 	strvc	r0, [r0], #-1280	; 0x500
    21e4:	9f253100 	svcls	0x00253100
	...
    21f0:	000001ac 	andeq	r0, r0, ip, lsr #3
    21f4:	000001d0 	ldrdeq	r0, [r0], -r0	; <UNPREDICTABLE>
    21f8:	9f300002 	svcls	0x00300002
    21fc:	000001d0 	ldrdeq	r0, [r0], -r0	; <UNPREDICTABLE>
    2200:	0000030c 	andeq	r0, r0, ip, lsl #6
    2204:	14590001 	ldrbne	r0, [r9], #-1
    2208:	1c000003 	stcne	0, cr0, [r0], {3}
    220c:	01000003 	tsteq	r0, r3
    2210:	00005900 	andeq	r5, r0, r0, lsl #18
    2214:	00000000 	andeq	r0, r0, r0
    2218:	01680000 	cmneq	r8, r0
    221c:	016b0000 	cmneq	fp, r0
    2220:	00010000 	andeq	r0, r1, r0
    2224:	00016b51 	andeq	r6, r1, r1, asr fp
    2228:	00031c00 	andeq	r1, r3, r0, lsl #24
    222c:	56000100 	strpl	r0, [r0], -r0, lsl #2
	...
    2238:	00000170 	andeq	r0, r0, r0, ror r1
    223c:	000001ac 	andeq	r0, r0, ip, lsr #3
    2240:	0c540001 	mrrceq	0, 0, r0, r4, cr1
    2244:	14000003 	strne	r0, [r0], #-3
    2248:	01000003 	tsteq	r0, r3
    224c:	00005400 	andeq	r5, r0, r0, lsl #8
    2250:	00000000 	andeq	r0, r0, r0
    2254:	01a80000 			; <UNDEFINED> instruction: 0x01a80000
    2258:	01c40000 	biceq	r0, r4, r0
    225c:	00010000 	andeq	r0, r1, r0
    2260:	00000058 	andeq	r0, r0, r8, asr r0
    2264:	00000000 	andeq	r0, r0, r0
    2268:	0001b000 	andeq	fp, r1, r0
    226c:	0001cb00 	andeq	ip, r1, r0, lsl #22
    2270:	52000100 	andpl	r0, r0, #0, 2
    2274:	000001cb 	andeq	r0, r0, fp, asr #3
    2278:	000002d0 	ldrdeq	r0, [r0], -r0	; <UNPREDICTABLE>
    227c:	00740008 	rsbseq	r0, r4, r8
    2280:	00742531 	rsbseq	r2, r4, r1, lsr r5
    2284:	00009f22 	andeq	r9, r0, r2, lsr #30
    2288:	00000000 	andeq	r0, r0, r0
    228c:	01b00000 	movseq	r0, r0
    2290:	01c40000 	biceq	r0, r4, r0
    2294:	00010000 	andeq	r0, r1, r0
    2298:	00000058 	andeq	r0, r0, r8, asr r0
    229c:	00000000 	andeq	r0, r0, r0
    22a0:	0001b400 	andeq	fp, r1, r0, lsl #8
    22a4:	0001b800 	andeq	fp, r1, r0, lsl #16
    22a8:	53000100 	movwpl	r0, #256	; 0x100
	...
    22b4:	000001d0 	ldrdeq	r0, [r0], -r0	; <UNPREDICTABLE>
    22b8:	000002d0 	ldrdeq	r0, [r0], -r0	; <UNPREDICTABLE>
    22bc:	00540001 	subseq	r0, r4, r1
    22c0:	00000000 	andeq	r0, r0, r0
    22c4:	d0000000 	andle	r0, r0, r0
    22c8:	e4000001 	str	r0, [r0], #-1
    22cc:	01000001 	tsteq	r0, r1
    22d0:	00005800 	andeq	r5, r0, r0, lsl #16
    22d4:	00000000 	andeq	r0, r0, r0
    22d8:	01d40000 	bicseq	r0, r4, r0
    22dc:	01d80000 	bicseq	r0, r8, r0
    22e0:	00010000 	andeq	r0, r1, r0
    22e4:	00000053 	andeq	r0, r0, r3, asr r0
    22e8:	00000000 	andeq	r0, r0, r0
    22ec:	0001f400 	andeq	pc, r1, r0, lsl #8
    22f0:	0002d000 	andeq	sp, r2, r0
    22f4:	54000100 	strpl	r0, [r0], #-256	; 0x100
	...
    2300:	000001f4 	strdeq	r0, [r0], -r4
    2304:	00000208 	andeq	r0, r0, r8, lsl #4
    2308:	00580001 	subseq	r0, r8, r1
    230c:	00000000 	andeq	r0, r0, r0
    2310:	f8000000 			; <UNDEFINED> instruction: 0xf8000000
    2314:	fc000001 	stc2	0, cr0, [r0], {1}
    2318:	01000001 	tsteq	r0, r1
    231c:	00005300 	andeq	r5, r0, r0, lsl #6
    2320:	00000000 	andeq	r0, r0, r0
    2324:	02180000 	andseq	r0, r8, #0
    2328:	02d00000 	sbcseq	r0, r0, #0
    232c:	00010000 	andeq	r0, r1, r0
    2330:	00000054 	andeq	r0, r0, r4, asr r0
    2334:	00000000 	andeq	r0, r0, r0
    2338:	00021800 	andeq	r1, r2, r0, lsl #16
    233c:	00022c00 	andeq	r2, r2, r0, lsl #24
    2340:	58000100 	stmdapl	r0, {r8}
	...
    234c:	0000021c 	andeq	r0, r0, ip, lsl r2
    2350:	00000220 	andeq	r0, r0, r0, lsr #4
    2354:	00530001 	subseq	r0, r3, r1
    2358:	00000000 	andeq	r0, r0, r0
    235c:	3c000000 	stccc	0, cr0, [r0], {-0}
    2360:	d0000002 	andle	r0, r0, r2
    2364:	01000002 	tsteq	r0, r2
    2368:	00005400 	andeq	r5, r0, r0, lsl #8
    236c:	00000000 	andeq	r0, r0, r0
    2370:	023c0000 	eorseq	r0, ip, #0
    2374:	02500000 	subseq	r0, r0, #0
    2378:	00010000 	andeq	r0, r1, r0
    237c:	00000058 	andeq	r0, r0, r8, asr r0
    2380:	00000000 	andeq	r0, r0, r0
    2384:	00024000 	andeq	r4, r2, r0
    2388:	00024400 	andeq	r4, r2, r0, lsl #8
    238c:	53000100 	movwpl	r0, #256	; 0x100
	...
    2398:	00000260 	andeq	r0, r0, r0, ror #4
    239c:	000002d0 	ldrdeq	r0, [r0], -r0	; <UNPREDICTABLE>
    23a0:	00540001 	subseq	r0, r4, r1
    23a4:	00000000 	andeq	r0, r0, r0
    23a8:	60000000 	andvs	r0, r0, r0
    23ac:	74000002 	strvc	r0, [r0], #-2
    23b0:	01000002 	tsteq	r0, r2
    23b4:	00005800 	andeq	r5, r0, r0, lsl #16
    23b8:	00000000 	andeq	r0, r0, r0
    23bc:	02640000 	rsbeq	r0, r4, #0
    23c0:	02680000 	rsbeq	r0, r8, #0
    23c4:	00010000 	andeq	r0, r1, r0
    23c8:	00000053 	andeq	r0, r0, r3, asr r0
    23cc:	00000000 	andeq	r0, r0, r0
    23d0:	00028400 	andeq	r8, r2, r0, lsl #8
    23d4:	0002d000 	andeq	sp, r2, r0
    23d8:	54000100 	strpl	r0, [r0], #-256	; 0x100
	...
    23e4:	00000284 	andeq	r0, r0, r4, lsl #5
    23e8:	00000298 	muleq	r0, r8, r2
    23ec:	00580001 	subseq	r0, r8, r1
    23f0:	00000000 	andeq	r0, r0, r0
    23f4:	88000000 	stmdahi	r0, {}	; <UNPREDICTABLE>
    23f8:	8c000002 	stchi	0, cr0, [r0], {2}
    23fc:	01000002 	tsteq	r0, r2
    2400:	00005300 	andeq	r5, r0, r0, lsl #6
    2404:	00000000 	andeq	r0, r0, r0
    2408:	02a80000 	adceq	r0, r8, #0
    240c:	02d00000 	sbcseq	r0, r0, #0
    2410:	00010000 	andeq	r0, r1, r0
    2414:	00000054 	andeq	r0, r0, r4, asr r0
    2418:	00000000 	andeq	r0, r0, r0
    241c:	0002ac00 	andeq	sl, r2, r0, lsl #24
    2420:	0002b000 	andeq	fp, r2, r0
    2424:	53000100 	movwpl	r0, #256	; 0x100
	...
    2430:	000002c8 	andeq	r0, r0, r8, asr #5
    2434:	0000030c 	andeq	r0, r0, ip, lsl #6
    2438:	9f300002 	svcls	0x00300002
    243c:	00000314 	andeq	r0, r0, r4, lsl r3
    2440:	0000031c 	andeq	r0, r0, ip, lsl r3
    2444:	9f300002 	svcls	0x00300002
	...
    2450:	000002c8 	andeq	r0, r0, r8, asr #5
    2454:	0000030c 	andeq	r0, r0, ip, lsl #6
    2458:	14550001 	ldrbne	r0, [r5], #-1
    245c:	1c000003 	stcne	0, cr0, [r0], {3}
    2460:	01000003 	tsteq	r0, r3
    2464:	00005500 	andeq	r5, r0, r0, lsl #10
    2468:	00000000 	andeq	r0, r0, r0
    246c:	02d00000 	sbcseq	r0, r0, #0
    2470:	030c0000 	movweq	r0, #49152	; 0xc000
    2474:	00010000 	andeq	r0, r1, r0
    2478:	00031454 	andeq	r1, r3, r4, asr r4
    247c:	00031c00 	andeq	r1, r3, r0, lsl #24
    2480:	54000100 	strpl	r0, [r0], #-256	; 0x100
	...
    248c:	0000031c 	andeq	r0, r0, ip, lsl r3
    2490:	0000033f 	andeq	r0, r0, pc, lsr r3
    2494:	3f500001 	svccc	0x00500001
    2498:	60000003 	andvs	r0, r0, r3
    249c:	01000003 	tsteq	r0, r3
    24a0:	03605800 	cmneq	r0, #0, 16
    24a4:	03700000 	cmneq	r0, #0
    24a8:	00010000 	andeq	r0, r1, r0
    24ac:	00037050 	andeq	r7, r3, r0, asr r0
    24b0:	0003b000 	andeq	fp, r3, r0
    24b4:	58000100 	stmdapl	r0, {r8}
    24b8:	000003b0 			; <UNDEFINED> instruction: 0x000003b0
    24bc:	000003c0 	andeq	r0, r0, r0, asr #7
    24c0:	01f30004 	mvnseq	r0, r4
    24c4:	00009f50 	andeq	r9, r0, r0, asr pc
    24c8:	00000000 	andeq	r0, r0, r0
    24cc:	031c0000 	tsteq	ip, #0
    24d0:	033f0000 	teqeq	pc, #0
    24d4:	00010000 	andeq	r0, r1, r0
    24d8:	00033f51 	andeq	r3, r3, r1, asr pc
    24dc:	00036000 	andeq	r6, r3, r0
    24e0:	56000100 	strpl	r0, [r0], -r0, lsl #2
    24e4:	00000360 	andeq	r0, r0, r0, ror #6
    24e8:	00000370 	andeq	r0, r0, r0, ror r3
    24ec:	70510001 	subsvc	r0, r1, r1
    24f0:	b0000003 	andlt	r0, r0, r3
    24f4:	01000003 	tsteq	r0, r3
    24f8:	03b05600 	movseq	r5, #0, 12
    24fc:	03c00000 	biceq	r0, r0, #0
    2500:	00040000 	andeq	r0, r4, r0
    2504:	9f5101f3 	svcls	0x005101f3
	...
    2510:	0000031c 	andeq	r0, r0, ip, lsl r3
    2514:	0000033f 	andeq	r0, r0, pc, lsr r3
    2518:	3f520001 	svccc	0x00520001
    251c:	60000003 	andvs	r0, r0, r3
    2520:	04000003 	streq	r0, [r0], #-3
    2524:	5201f300 	andpl	pc, r1, #0, 6
    2528:	0003609f 	muleq	r3, pc, r0	; <UNPREDICTABLE>
    252c:	00037000 	andeq	r7, r3, r0
    2530:	52000100 	andpl	r0, r0, #0, 2
    2534:	00000370 	andeq	r0, r0, r0, ror r3
    2538:	000003b0 			; <UNDEFINED> instruction: 0x000003b0
    253c:	01770003 	cmneq	r7, r3
    2540:	0003b09f 	muleq	r3, pc, r0	; <UNPREDICTABLE>
    2544:	0003c000 	andeq	ip, r3, r0
    2548:	f3000400 	vshl.u8	d0, d0, d0
    254c:	009f5201 	addseq	r5, pc, r1, lsl #4
    2550:	00000000 	andeq	r0, r0, r0
    2554:	1c000000 	stcne	0, cr0, [r0], {-0}
    2558:	3f000003 	svccc	0x00000003
    255c:	01000003 	tsteq	r0, r3
    2560:	033f5300 	teqeq	pc, #0, 6
    2564:	03600000 	cmneq	r0, #0
    2568:	00040000 	andeq	r0, r4, r0
    256c:	9f5301f3 	svcls	0x005301f3
    2570:	00000360 	andeq	r0, r0, r0, ror #6
    2574:	00000370 	andeq	r0, r0, r0, ror r3
    2578:	70530001 	subsvc	r0, r3, r1
    257c:	c0000003 	andgt	r0, r0, r3
    2580:	04000003 	streq	r0, [r0], #-3
    2584:	5301f300 	movwpl	pc, #4864	; 0x1300	; <UNPREDICTABLE>
    2588:	0000009f 	muleq	r0, pc, r0	; <UNPREDICTABLE>
    258c:	00000000 	andeq	r0, r0, r0
    2590:	00036800 	andeq	r6, r3, r0, lsl #16
    2594:	00037000 	andeq	r7, r3, r0
    2598:	30000200 	andcc	r0, r0, r0, lsl #4
    259c:	0003709f 	muleq	r3, pc, r0	; <UNPREDICTABLE>
    25a0:	0003b000 	andeq	fp, r3, r0
    25a4:	54000100 	strpl	r0, [r0], #-256	; 0x100
    25a8:	000003b0 			; <UNDEFINED> instruction: 0x000003b0
    25ac:	000003c0 	andeq	r0, r0, r0, asr #7
    25b0:	00500001 	subseq	r0, r0, r1
    25b4:	00000000 	andeq	r0, r0, r0
    25b8:	80000000 	andhi	r0, r0, r0
    25bc:	90000003 	andls	r0, r0, r3
    25c0:	01000003 	tsteq	r0, r3
    25c4:	00005000 	andeq	r5, r0, r0
    25c8:	00000000 	andeq	r0, r0, r0
    25cc:	03c00000 	biceq	r0, r0, #0
    25d0:	03df0000 	bicseq	r0, pc, #0
    25d4:	00010000 	andeq	r0, r1, r0
    25d8:	0003df50 	andeq	sp, r3, r0, asr pc
    25dc:	00040000 	andeq	r0, r4, r0
    25e0:	57000100 	strpl	r0, [r0, -r0, lsl #2]
    25e4:	00000400 	andeq	r0, r0, r0, lsl #8
    25e8:	00000410 	andeq	r0, r0, r0, lsl r4
    25ec:	10500001 	subsne	r0, r0, r1
    25f0:	40000004 	andmi	r0, r0, r4
    25f4:	01000004 	tsteq	r0, r4
    25f8:	04405700 	strbeq	r5, [r0], #-1792	; 0x700
    25fc:	04500000 	ldrbeq	r0, [r0], #-0
    2600:	00040000 	andeq	r0, r4, r0
    2604:	9f5001f3 	svcls	0x005001f3
	...
    2610:	000003c0 	andeq	r0, r0, r0, asr #7
    2614:	000003df 	ldrdeq	r0, [r0], -pc	; <UNPREDICTABLE>
    2618:	df510001 	svcle	0x00510001
    261c:	00000003 	andeq	r0, r0, r3
    2620:	01000004 	tsteq	r0, r4
    2624:	04005500 	streq	r5, [r0], #-1280	; 0x500
    2628:	04100000 	ldreq	r0, [r0], #-0
    262c:	00010000 	andeq	r0, r1, r0
    2630:	00041051 	andeq	r1, r4, r1, asr r0
    2634:	00044000 	andeq	r4, r4, r0
    2638:	55000100 	strpl	r0, [r0, #-256]	; 0x100
    263c:	00000440 	andeq	r0, r0, r0, asr #8
    2640:	00000450 	andeq	r0, r0, r0, asr r4
    2644:	01f30004 	mvnseq	r0, r4
    2648:	00009f51 	andeq	r9, r0, r1, asr pc
    264c:	00000000 	andeq	r0, r0, r0
    2650:	03c00000 	biceq	r0, r0, #0
    2654:	03df0000 	bicseq	r0, pc, #0
    2658:	00010000 	andeq	r0, r1, r0
    265c:	0003df52 	andeq	sp, r3, r2, asr pc
    2660:	00040000 	andeq	r0, r4, r0
    2664:	f3000400 	vshl.u8	d0, d0, d0
    2668:	009f5201 	addseq	r5, pc, r1, lsl #4
    266c:	10000004 	andne	r0, r0, r4
    2670:	01000004 	tsteq	r0, r4
    2674:	04105200 	ldreq	r5, [r0], #-512	; 0x200
    2678:	04400000 	strbeq	r0, [r0], #-0
    267c:	00030000 	andeq	r0, r3, r0
    2680:	409f0176 	addsmi	r0, pc, r6, ror r1	; <UNPREDICTABLE>
    2684:	50000004 	andpl	r0, r0, r4
    2688:	04000004 	streq	r0, [r0], #-4
    268c:	5201f300 	andpl	pc, r1, #0, 6
    2690:	0000009f 	muleq	r0, pc, r0	; <UNPREDICTABLE>
    2694:	00000000 	andeq	r0, r0, r0
    2698:	0003c000 	andeq	ip, r3, r0
    269c:	0003df00 	andeq	sp, r3, r0, lsl #30
    26a0:	53000100 	movwpl	r0, #256	; 0x100
    26a4:	000003df 	ldrdeq	r0, [r0], -pc	; <UNPREDICTABLE>
    26a8:	00000400 	andeq	r0, r0, r0, lsl #8
    26ac:	00580001 	subseq	r0, r8, r1
    26b0:	10000004 	andne	r0, r0, r4
    26b4:	01000004 	tsteq	r0, r4
    26b8:	04105300 	ldreq	r5, [r0], #-768	; 0x300
    26bc:	04400000 	strbeq	r0, [r0], #-0
    26c0:	00010000 	andeq	r0, r1, r0
    26c4:	00044058 	andeq	r4, r4, r8, asr r0
    26c8:	00045000 	andeq	r5, r4, r0
    26cc:	f3000400 	vshl.u8	d0, d0, d0
    26d0:	009f5301 	addseq	r5, pc, r1, lsl #6
    26d4:	00000000 	andeq	r0, r0, r0
    26d8:	08000000 	stmdaeq	r0, {}	; <UNPREDICTABLE>
    26dc:	10000004 	andne	r0, r0, r4
    26e0:	02000004 	andeq	r0, r0, #4
    26e4:	109f3000 	addsne	r3, pc, r0
    26e8:	40000004 	andmi	r0, r0, r4
    26ec:	01000004 	tsteq	r0, r4
    26f0:	04405400 	strbeq	r5, [r0], #-1024	; 0x400
    26f4:	04500000 	ldrbeq	r0, [r0], #-0
    26f8:	00010000 	andeq	r0, r1, r0
    26fc:	00000050 	andeq	r0, r0, r0, asr r0
    2700:	00000000 	andeq	r0, r0, r0
    2704:	00045000 	andeq	r5, r4, r0
    2708:	00047300 	andeq	r7, r4, r0, lsl #6
    270c:	51000100 	mrspl	r0, (UNDEF: 16)
    2710:	00000473 	andeq	r0, r0, r3, ror r4
    2714:	00000524 	andeq	r0, r0, r4, lsr #10
    2718:	01f30004 	mvnseq	r0, r4
    271c:	00009f51 	andeq	r9, r0, r1, asr pc
    2720:	00000000 	andeq	r0, r0, r0
    2724:	04500000 	ldrbeq	r0, [r0], #-0
    2728:	04730000 	ldrbteq	r0, [r3], #-0
    272c:	00010000 	andeq	r0, r1, r0
    2730:	00047352 	andeq	r7, r4, r2, asr r3
    2734:	00052400 	andeq	r2, r5, r0, lsl #8
    2738:	f3000400 	vshl.u8	d0, d0, d0
    273c:	009f5201 	addseq	r5, pc, r1, lsl #4
    2740:	00000000 	andeq	r0, r0, r0
    2744:	50000000 	andpl	r0, r0, r0
    2748:	73000004 	movwvc	r0, #4
    274c:	01000004 	tsteq	r0, r4
    2750:	04735300 	ldrbteq	r5, [r3], #-768	; 0x300
    2754:	05100000 	ldreq	r0, [r0, #-0]
    2758:	00010000 	andeq	r0, r1, r0
    275c:	00051055 	andeq	r1, r5, r5, asr r0
    2760:	00052400 	andeq	r2, r5, r0, lsl #8
    2764:	70000200 	andvc	r0, r0, r0, lsl #4
    2768:	00000004 	andeq	r0, r0, r4
    276c:	00000000 	andeq	r0, r0, r0
    2770:	00049400 	andeq	r9, r4, r0, lsl #8
    2774:	0004d300 	andeq	sp, r4, r0, lsl #6
    2778:	52000100 	andpl	r0, r0, #0, 2
    277c:	000004d3 	ldrdeq	r0, [r0], -r3
    2780:	000004f4 	strdeq	r0, [r0], -r4
    2784:	00750006 	rsbseq	r0, r5, r6
    2788:	9f1e0077 	svcls	0x001e0077
    278c:	000004f4 	strdeq	r0, [r0], -r4
    2790:	00000524 	andeq	r0, r0, r4, lsr #10
    2794:	00520001 	subseq	r0, r2, r1
    2798:	00000000 	andeq	r0, r0, r0
    279c:	24000000 	strcs	r0, [r0], #-0
    27a0:	2f000005 	svccs	0x00000005
    27a4:	01000005 	tsteq	r0, r5
    27a8:	052f5000 	streq	r5, [pc, #-0]!	; 27b0 <_start-0x5850>
    27ac:	05600000 	strbeq	r0, [r0, #-0]!
    27b0:	00040000 	andeq	r0, r4, r0
    27b4:	9f5001f3 	svcls	0x005001f3
	...
    27c0:	00000530 	andeq	r0, r0, r0, lsr r5
    27c4:	0000053b 	andeq	r0, r0, fp, lsr r5
    27c8:	00500001 	subseq	r0, r0, r1
    27cc:	00000000 	andeq	r0, r0, r0
    27d0:	60000000 	andvs	r0, r0, r0
    27d4:	70000005 	andvc	r0, r0, r5
    27d8:	01000005 	tsteq	r0, r5
    27dc:	05705000 	ldrbeq	r5, [r0, #-0]!
    27e0:	058c0000 	streq	r0, [ip]
    27e4:	00010000 	andeq	r0, r1, r0
    27e8:	00000055 	andeq	r0, r0, r5, asr r0
    27ec:	00000000 	andeq	r0, r0, r0
    27f0:	00056000 	andeq	r6, r5, r0
    27f4:	00057000 	andeq	r7, r5, r0
    27f8:	51000100 	mrspl	r0, (UNDEF: 16)
    27fc:	00000570 	andeq	r0, r0, r0, ror r5
    2800:	0000058c 	andeq	r0, r0, ip, lsl #11
    2804:	00540001 	subseq	r0, r4, r1
    2808:	00000000 	andeq	r0, r0, r0
    280c:	8c000000 	stchi	0, cr0, [r0], {-0}
    2810:	a8000005 	stmdage	r0, {r0, r2}
    2814:	01000005 	tsteq	r0, r5
    2818:	05a85000 	streq	r5, [r8, #0]!
    281c:	06000000 	streq	r0, [r0], -r0
    2820:	00010000 	andeq	r0, r1, r0
    2824:	00060055 	andeq	r0, r6, r5, asr r0
    2828:	00061c00 	andeq	r1, r6, r0, lsl #24
    282c:	f3000400 	vshl.u8	d0, d0, d0
    2830:	009f5001 	addseq	r5, pc, r1
    2834:	00000000 	andeq	r0, r0, r0
    2838:	b8000000 	stmdalt	r0, {}	; <UNPREDICTABLE>
    283c:	c7000005 	strgt	r0, [r0, -r5]
    2840:	01000005 	tsteq	r0, r5
    2844:	05c75000 	strbeq	r5, [r7]
    2848:	05e80000 	strbeq	r0, [r8, #0]!
    284c:	00010000 	andeq	r0, r1, r0
    2850:	0005e854 	andeq	lr, r5, r4, asr r8
    2854:	0005ec00 	andeq	lr, r5, r0, lsl #24
    2858:	50000100 	andpl	r0, r0, r0, lsl #2
    285c:	000005ec 	andeq	r0, r0, ip, ror #11
    2860:	00000600 	andeq	r0, r0, r0, lsl #12
    2864:	00540001 	subseq	r0, r4, r1
    2868:	1c000006 	stcne	0, cr0, [r0], {6}
    286c:	01000006 	tsteq	r0, r6
    2870:	00005000 	andeq	r5, r0, r0
    2874:	00000000 	andeq	r0, r0, r0
    2878:	061c0000 	ldreq	r0, [ip], -r0
    287c:	062f0000 	strteq	r0, [pc], -r0
    2880:	00010000 	andeq	r0, r1, r0
    2884:	00062f50 	andeq	r2, r6, r0, asr pc
    2888:	00066800 	andeq	r6, r6, r0, lsl #16
    288c:	f3000400 	vshl.u8	d0, d0, d0
    2890:	009f5001 	addseq	r5, pc, r1
    2894:	00000000 	andeq	r0, r0, r0
    2898:	1c000000 	stcne	0, cr0, [r0], {-0}
    289c:	2f000006 	svccs	0x00000006
    28a0:	01000006 	tsteq	r0, r6
    28a4:	062f5100 	strteq	r5, [pc], -r0, lsl #2
    28a8:	06680000 	strbteq	r0, [r8], -r0
    28ac:	00040000 	andeq	r0, r4, r0
    28b0:	9f5101f3 	svcls	0x005101f3
	...
    28bc:	0000061c 	andeq	r0, r0, ip, lsl r6
    28c0:	0000062f 	andeq	r0, r0, pc, lsr #12
    28c4:	2f520001 	svccs	0x00520001
    28c8:	68000006 	stmdavs	r0, {r1, r2}
    28cc:	04000006 	streq	r0, [r0], #-6
    28d0:	5201f300 	andpl	pc, r1, #0, 6
    28d4:	0000009f 	muleq	r0, pc, r0	; <UNPREDICTABLE>
    28d8:	00000000 	andeq	r0, r0, r0
    28dc:	00061c00 	andeq	r1, r6, r0, lsl #24
    28e0:	00062f00 	andeq	r2, r6, r0, lsl #30
    28e4:	53000100 	movwpl	r0, #256	; 0x100
    28e8:	0000062f 	andeq	r0, r0, pc, lsr #12
    28ec:	00000668 	andeq	r0, r0, r8, ror #12
    28f0:	01f30004 	mvnseq	r0, r4
    28f4:	00009f53 	andeq	r9, r0, r3, asr pc
    28f8:	00000000 	andeq	r0, r0, r0
    28fc:	06300000 	ldrteq	r0, [r0], -r0
    2900:	063b0000 	ldrteq	r0, [fp], -r0
    2904:	00010000 	andeq	r0, r1, r0
    2908:	00065450 	andeq	r5, r6, r0, asr r4
    290c:	00066800 	andeq	r6, r6, r0, lsl #16
    2910:	50000100 	andpl	r0, r0, r0, lsl #2
	...
    291c:	000000fc 	strdeq	r0, [r0], -ip
    2920:	00000104 	andeq	r0, r0, r4, lsl #2
    2924:	04500001 	ldrbeq	r0, [r0], #-1
    2928:	28000001 	stmdacs	r0, {r0}
    292c:	01000001 	tsteq	r0, r1
    2930:	00005400 	andeq	r5, r0, r0, lsl #8
    2934:	00000000 	andeq	r0, r0, r0
    2938:	00300000 	eorseq	r0, r0, r0
    293c:	003c0000 	eorseq	r0, ip, r0
    2940:	00020000 	andeq	r0, r2, r0
    2944:	003c9f30 	eorseq	r9, ip, r0, lsr pc
    2948:	00680000 	rsbeq	r0, r8, r0
    294c:	00010000 	andeq	r0, r1, r0
    2950:	00000053 	andeq	r0, r0, r3, asr r0
    2954:	00000000 	andeq	r0, r0, r0
    2958:	00006800 	andeq	r6, r0, r0, lsl #16
    295c:	00007700 	andeq	r7, r0, r0, lsl #14
    2960:	50000100 	andpl	r0, r0, r0, lsl #2
    2964:	00000077 	andeq	r0, r0, r7, ror r0
    2968:	000000ac 	andeq	r0, r0, ip, lsr #1
    296c:	00540001 	subseq	r0, r4, r1
	...
    2978:	0f000000 	svceq	0x00000000
    297c:	01000000 	mrseq	r0, (UNDEF: 0)
    2980:	000f5000 	andeq	r5, pc, r0
    2984:	00440000 	subeq	r0, r4, r0
    2988:	00010000 	andeq	r0, r1, r0
    298c:	00000054 	andeq	r0, r0, r4, asr r0
	...
    2998:	00000f00 	andeq	r0, r0, r0, lsl #30
    299c:	50000100 	andpl	r0, r0, r0, lsl #2
    29a0:	0000000f 	andeq	r0, r0, pc
    29a4:	00000044 	andeq	r0, r0, r4, asr #32
    29a8:	00540001 	subseq	r0, r4, r1
	...
    29b4:	0f000000 	svceq	0x00000000
    29b8:	01000000 	mrseq	r0, (UNDEF: 0)
    29bc:	000f5000 	andeq	r5, pc, r0
    29c0:	00440000 	subeq	r0, r4, r0
    29c4:	00010000 	andeq	r0, r1, r0
    29c8:	00000054 	andeq	r0, r0, r4, asr r0
	...
    29d4:	00000f00 	andeq	r0, r0, r0, lsl #30
    29d8:	50000100 	andpl	r0, r0, r0, lsl #2
    29dc:	0000000f 	andeq	r0, r0, pc
    29e0:	00000044 	andeq	r0, r0, r4, asr #32
    29e4:	00540001 	subseq	r0, r4, r1
	...
    29f0:	04000000 	streq	r0, [r0], #-0
    29f4:	01000000 	mrseq	r0, (UNDEF: 0)
    29f8:	00045200 	andeq	r5, r4, r0, lsl #4
    29fc:	00200000 	eoreq	r0, r0, r0
    2a00:	00040000 	andeq	r0, r4, r0
    2a04:	9f5201f3 	svcls	0x005201f3
	...
    2a14:	0000000c 	andeq	r0, r0, ip
    2a18:	0c500001 	mrrceq	0, 0, r0, r0, cr1	; <UNPREDICTABLE>
    2a1c:	14000000 	strne	r0, [r0], #-0
    2a20:	03000000 	movweq	r0, #0
    2a24:	9f017300 	svcls	0x00017300
    2a28:	00000014 	andeq	r0, r0, r4, lsl r0
    2a2c:	00000020 	andeq	r0, r0, r0, lsr #32
    2a30:	00530001 	subseq	r0, r3, r1
    2a34:	00000000 	andeq	r0, r0, r0
    2a38:	Address 0x0000000000002a38 is out of bounds.


Disassembly of section .debug_aranges:

00000000 <.debug_aranges>:
   0:	0000001c 	andeq	r0, r0, ip, lsl r0
   4:	00000002 	andeq	r0, r0, r2
   8:	00040000 	andeq	r0, r4, r0
   c:	00000000 	andeq	r0, r0, r0
  10:	00008010 	andeq	r8, r0, r0, lsl r0
  14:	00000b20 	andeq	r0, r0, r0, lsr #22
	...
  20:	0000001c 	andeq	r0, r0, ip, lsl r0
  24:	10c00002 	sbcne	r0, r0, r2
  28:	00040000 	andeq	r0, r4, r0
  2c:	00000000 	andeq	r0, r0, r0
  30:	00008b30 	andeq	r8, r0, r0, lsr fp
  34:	00000058 	andeq	r0, r0, r8, asr r0
	...
  40:	0000001c 	andeq	r0, r0, ip, lsl r0
  44:	12550002 	subsne	r0, r5, #2
  48:	00040000 	andeq	r0, r4, r0
  4c:	00000000 	andeq	r0, r0, r0
  50:	00008b88 	andeq	r8, r0, r8, lsl #23
  54:	0000003c 	andeq	r0, r0, ip, lsr r0
	...
  60:	0000001c 	andeq	r0, r0, ip, lsl r0
  64:	136c0002 	cmnne	ip, #2
  68:	00040000 	andeq	r0, r4, r0
  6c:	00000000 	andeq	r0, r0, r0
  70:	00008bc4 	andeq	r8, r0, r4, asr #23
  74:	00000034 	andeq	r0, r0, r4, lsr r0
	...
  80:	0000001c 	andeq	r0, r0, ip, lsl r0
  84:	145e0002 	ldrbne	r0, [lr], #-2
  88:	00040000 	andeq	r0, r4, r0
  8c:	00000000 	andeq	r0, r0, r0
  90:	00008bf8 	strdeq	r8, [r0], -r8	; <UNPREDICTABLE>
  94:	00000524 	andeq	r0, r0, r4, lsr #10
	...
  a0:	0000001c 	andeq	r0, r0, ip, lsl r0
  a4:	1b030002 	blne	c00b4 <__bss_end__+0xb539c>
  a8:	00040000 	andeq	r0, r4, r0
  ac:	00000000 	andeq	r0, r0, r0
  b0:	0000911c 	andeq	r9, r0, ip, lsl r1
  b4:	00000020 	andeq	r0, r0, r0, lsr #32
	...
  c0:	0000001c 	andeq	r0, r0, ip, lsl r0
  c4:	1bbf0002 	blne	fefc00d4 <__bss_end__+0xfefb53bc>
  c8:	00040000 	andeq	r0, r4, r0
  cc:	00000000 	andeq	r0, r0, r0
  d0:	0000913c 	andeq	r9, r0, ip, lsr r1
  d4:	00000028 	andeq	r0, r0, r8, lsr #32
	...
  e0:	0000001c 	andeq	r0, r0, ip, lsl r0
  e4:	1cc20002 	stclne	0, cr0, [r2], {2}
  e8:	00040000 	andeq	r0, r4, r0
  ec:	00000000 	andeq	r0, r0, r0
  f0:	00009164 	andeq	r9, r0, r4, ror #2
  f4:	000000b0 	strheq	r0, [r0], -r0	; <UNPREDICTABLE>
	...
 100:	0000001c 	andeq	r0, r0, ip, lsl r0
 104:	1fa30002 	svcne	0x00a30002
 108:	00040000 	andeq	r0, r4, r0
 10c:	00000000 	andeq	r0, r0, r0
 110:	00009214 	andeq	r9, r0, r4, lsl r2
 114:	00000074 	andeq	r0, r0, r4, ror r0
	...
 120:	0000001c 	andeq	r0, r0, ip, lsl r0
 124:	21540002 	cmpcs	r4, r2
 128:	00040000 	andeq	r0, r4, r0
 12c:	00000000 	andeq	r0, r0, r0
 130:	00009288 	andeq	r9, r0, r8, lsl #5
 134:	00000088 	andeq	r0, r0, r8, lsl #1
	...
 140:	0000001c 	andeq	r0, r0, ip, lsl r0
 144:	23300002 	teqcs	r0, #2
 148:	00040000 	andeq	r0, r4, r0
 14c:	00000000 	andeq	r0, r0, r0
 150:	00009310 	andeq	r9, r0, r0, lsl r3
 154:	000005a0 	andeq	r0, r0, r0, lsr #11
	...
 160:	0000001c 	andeq	r0, r0, ip, lsl r0
 164:	2bb60002 	blcs	fed80174 <__bss_end__+0xfed7545c>
 168:	00040000 	andeq	r0, r4, r0
 16c:	00000000 	andeq	r0, r0, r0
 170:	000098b0 			; <UNDEFINED> instruction: 0x000098b0
 174:	00000668 	andeq	r0, r0, r8, ror #12
	...
 180:	0000001c 	andeq	r0, r0, ip, lsl r0
 184:	3dac0002 	stccc	0, cr0, [ip, #8]!
 188:	00040000 	andeq	r0, r4, r0
 18c:	00000000 	andeq	r0, r0, r0
 190:	00009f18 	andeq	r9, r0, r8, lsl pc
 194:	00000154 	andeq	r0, r0, r4, asr r1
	...
 1a0:	0000001c 	andeq	r0, r0, ip, lsl r0
 1a4:	41af0002 			; <UNDEFINED> instruction: 0x41af0002
 1a8:	00040000 	andeq	r0, r4, r0
 1ac:	00000000 	andeq	r0, r0, r0
 1b0:	0000a06c 	andeq	sl, r0, ip, rrx
 1b4:	000000ac 	andeq	r0, r0, ip, lsr #1
	...
 1c0:	0000001c 	andeq	r0, r0, ip, lsl r0
 1c4:	444e0002 	strbmi	r0, [lr], #-2
 1c8:	00040000 	andeq	r0, r4, r0
 1cc:	00000000 	andeq	r0, r0, r0
 1d0:	0000a268 	andeq	sl, r0, r8, ror #4
 1d4:	00000050 	andeq	r0, r0, r0, asr r0
	...
 1e0:	0000001c 	andeq	r0, r0, ip, lsl r0
 1e4:	46150002 	ldrmi	r0, [r5], -r2
 1e8:	00040000 	andeq	r0, r4, r0
 1ec:	00000000 	andeq	r0, r0, r0
 1f0:	0000a2b8 			; <UNDEFINED> instruction: 0x0000a2b8
 1f4:	00000044 	andeq	r0, r0, r4, asr #32
	...
 200:	0000001c 	andeq	r0, r0, ip, lsl r0
 204:	47570002 	ldrbmi	r0, [r7, -r2]
 208:	00040000 	andeq	r0, r4, r0
 20c:	00000000 	andeq	r0, r0, r0
 210:	0000a2fc 	strdeq	sl, [r0], -ip
 214:	00000044 	andeq	r0, r0, r4, asr #32
	...
 220:	0000001c 	andeq	r0, r0, ip, lsl r0
 224:	48990002 	ldmmi	r9, {r1}
 228:	00040000 	andeq	r0, r4, r0
 22c:	00000000 	andeq	r0, r0, r0
 230:	0000a340 	andeq	sl, r0, r0, asr #6
 234:	00000044 	andeq	r0, r0, r4, asr #32
	...
 240:	0000001c 	andeq	r0, r0, ip, lsl r0
 244:	49db0002 	ldmibmi	fp, {r1}^
 248:	00040000 	andeq	r0, r4, r0
 24c:	00000000 	andeq	r0, r0, r0
 250:	0000a384 	andeq	sl, r0, r4, lsl #7
 254:	00000044 	andeq	r0, r0, r4, asr #32
	...
 260:	0000001c 	andeq	r0, r0, ip, lsl r0
 264:	4b1d0002 	blmi	740274 <__bss_end__+0x73555c>
 268:	00040000 	andeq	r0, r4, r0
 26c:	00000000 	andeq	r0, r0, r0
 270:	0000a3c8 	andeq	sl, r0, r8, asr #7
 274:	00000020 	andeq	r0, r0, r0, lsr #32
	...

Disassembly of section .debug_line:

00000000 <.debug_line>:
       0:	0000030c 	andeq	r0, r0, ip, lsl #6
       4:	01ab0002 			; <UNDEFINED> instruction: 0x01ab0002
       8:	01020000 	mrseq	r0, (UNDEF: 2)
       c:	000d0efb 	strdeq	r0, [sp], -fp
      10:	01010101 	tsteq	r1, r1, lsl #2
      14:	01000000 	mrseq	r0, (UNDEF: 0)
      18:	2f010000 	svccs	0x00010000
      1c:	72657355 	rsbvc	r7, r5, #1409286145	; 0x54000001
      20:	72622f73 	rsbvc	r2, r2, #460	; 0x1cc
      24:	6a6e6169 	bvs	1b985d0 <__bss_end__+0x1b8d8b8>
      28:	442f6e75 	strtmi	r6, [pc], #-3701	; 30 <_start-0x7fd0>
      2c:	746b7365 	strbtvc	r7, [fp], #-869	; 0x365
      30:	732f706f 	teqvc	pc, #111	; 0x6f
      34:	6f6f6863 	svcvs	0x006f6863
      38:	69572f6c 	ldmdbvs	r7, {r2, r3, r5, r6, r8, r9, sl, fp, sp}^
      3c:	7265746e 	rsbvc	r7, r5, #1845493760	; 0x6e000000
      40:	30323931 	eorscc	r3, r2, r1, lsr r9
      44:	3153432f 	cmpcc	r3, pc, lsr #6
      48:	2f453034 	svccs	0x00453034
      4c:	34317363 	ldrtcc	r7, [r1], #-867	; 0x363
      50:	322d6530 	eorcc	r6, sp, #48, 10	; 0xc000000
      54:	6e697730 	mcrvs	7, 3, r7, cr9, cr0, {1}
      58:	62696c2f 	rsbvs	r6, r9, #12032	; 0x2f00
      5c:	632f6970 	teqvs	pc, #112, 18	; 0x1c0000
      60:	30343173 	eorscc	r3, r4, r3, ror r1
      64:	6e692d65 	cdpvs	13, 6, cr2, cr9, cr5, {3}
      68:	72726574 	rsbsvc	r6, r2, #116, 10	; 0x1d000000
      6c:	00747075 	rsbseq	r7, r4, r5, ror r0
      70:	6573552f 	ldrbvs	r5, [r3, #-1327]!	; 0x52f
      74:	622f7372 	eorvs	r7, pc, #-939524095	; 0xc8000001
      78:	6e616972 	mcrvs	9, 3, r6, cr1, cr2, {3}
      7c:	2f6e756a 	svccs	0x006e756a
      80:	6b736544 	blvs	1cd9598 <__bss_end__+0x1cce880>
      84:	2f706f74 	svccs	0x00706f74
      88:	6f686373 	svcvs	0x00686373
      8c:	572f6c6f 	strpl	r6, [pc, -pc, ror #24]!
      90:	65746e69 	ldrbvs	r6, [r4, #-3689]!	; 0xe69
      94:	32393172 	eorscc	r3, r9, #-2147483620	; 0x8000001c
      98:	53432f30 	movtpl	r2, #16176	; 0x3f30
      9c:	45303431 	ldrmi	r3, [r0, #-1073]!	; 0x431
      a0:	3173632f 	cmncc	r3, pc, lsr #6
      a4:	2d653034 	stclcs	0, cr3, [r5, #-208]!	; 0xffffff30
      a8:	69773032 	ldmdbvs	r7!, {r1, r4, r5, ip, sp}^
      ac:	696c2f6e 	stmdbvs	ip!, {r1, r2, r3, r5, r6, r8, r9, sl, fp, sp}^
      b0:	00697062 	rsbeq	r7, r9, r2, rrx
      b4:	6573552f 	ldrbvs	r5, [r3, #-1327]!	; 0x52f
      b8:	622f7372 	eorvs	r7, pc, #-939524095	; 0xc8000001
      bc:	6e616972 	mcrvs	9, 3, r6, cr1, cr2, {3}
      c0:	2f6e756a 	svccs	0x006e756a
      c4:	6b736544 	blvs	1cd95dc <__bss_end__+0x1cce8c4>
      c8:	2f706f74 	svccs	0x00706f74
      cc:	6f686373 	svcvs	0x00686373
      d0:	572f6c6f 	strpl	r6, [pc, -pc, ror #24]!
      d4:	65746e69 	ldrbvs	r6, [r4, #-3689]!	; 0xe69
      d8:	32393172 	eorscc	r3, r9, #-2147483620	; 0x8000001c
      dc:	53432f30 	movtpl	r2, #16176	; 0x3f30
      e0:	45303431 	ldrmi	r3, [r0, #-1073]!	; 0x431
      e4:	3173632f 	cmncc	r3, pc, lsr #6
      e8:	2d653034 	stclcs	0, cr3, [r5, #-208]!	; 0xffffff30
      ec:	69773032 	ldmdbvs	r7!, {r1, r4, r5, ip, sp}^
      f0:	696c2f6e 	stmdbvs	ip!, {r1, r2, r3, r5, r6, r8, r9, sl, fp, sp}^
      f4:	2f697062 	svccs	0x00697062
      f8:	34317363 	ldrtcc	r7, [r1], #-867	; 0x363
      fc:	732d6530 	teqvc	sp, #48, 10	; 0xc000000
     100:	2f006372 	svccs	0x00006372
     104:	2f727375 	svccs	0x00727375
     108:	61636f6c 	cmnvs	r3, ip, ror #30
     10c:	65432f6c 	strbvs	r2, [r3, #-3948]	; 0xf6c
     110:	72616c6c 	rsbvc	r6, r1, #108, 24	; 0x6c00
     114:	6d72612f 	ldfvse	f6, [r2, #-188]!	; 0xffffff44
     118:	6e6f6e2d 	cdpvs	14, 6, cr6, cr15, cr13, {1}
     11c:	61652d65 	cmnvs	r5, r5, ror #26
     120:	342f6962 	strtcc	r6, [pc], #-2402	; 128 <_start-0x7ed8>
     124:	332e382e 	teqcc	lr, #3014656	; 0x2e0000
     128:	3173632d 	cmncc	r3, sp, lsr #6
     12c:	2f653037 	svccs	0x00653037
     130:	2f62696c 	svccs	0x0062696c
     134:	2f636367 	svccs	0x00636367
     138:	2d6d7261 	sfmcs	f7, 2, [sp, #-388]!	; 0xfffffe7c
     13c:	656e6f6e 	strbvs	r6, [lr, #-3950]!	; 0xf6e
     140:	6261652d 	rsbvs	r6, r1, #188743680	; 0xb400000
     144:	2e342f69 	cdpcs	15, 3, cr2, cr4, cr9, {3}
     148:	2f332e38 	svccs	0x00332e38
     14c:	6c636e69 	stclvs	14, cr6, [r3], #-420	; 0xfffffe5c
     150:	00656475 	rsbeq	r6, r5, r5, ror r4
     154:	6c2d3200 	sfmvs	f3, 4, [sp], #-0
     158:	6369676f 	cmnvs	r9, #29097984	; 0x1bc0000
     15c:	616e612d 	cmnvs	lr, sp, lsr #2
     160:	657a796c 	ldrbvs	r7, [sl, #-2412]!	; 0x96c
     164:	00632e72 	rsbeq	r2, r3, r2, ror lr
     168:	72000000 	andvc	r0, r0, #0
     16c:	612d6970 	teqvs	sp, r0, ror r9
     170:	69746d72 	ldmdbvs	r4!, {r1, r4, r5, r6, r8, sl, fp, sp, lr}^
     174:	2e72656d 	cdpcs	5, 7, cr6, cr2, cr13, {3}
     178:	00010068 	andeq	r0, r1, r8, rrx
     17c:	69707200 	ldmdbvs	r0!, {r9, ip, sp, lr}^
     180:	0200682e 	andeq	r6, r0, #3014656	; 0x2e0000
     184:	70720000 	rsbsvc	r0, r2, r0
     188:	6e692d69 	cdpvs	13, 6, cr2, cr9, cr9, {3}
     18c:	72726574 	rsbsvc	r6, r2, #116, 10	; 0x1d000000
     190:	73747075 	cmnvc	r4, #117	; 0x75
     194:	0100682e 	tsteq	r0, lr, lsr #16
     198:	70670000 	rsbvc	r0, r7, r0
     19c:	682e6f69 	stmdavs	lr!, {r0, r3, r5, r6, r8, r9, sl, fp, sp, lr}
     1a0:	00000300 	andeq	r0, r0, r0, lsl #6
     1a4:	69647473 	stmdbvs	r4!, {r0, r1, r4, r5, r6, sl, ip, sp, lr}^
     1a8:	672d746e 	strvs	r7, [sp, -lr, ror #8]!
     1ac:	682e6363 	stmdavs	lr!, {r0, r1, r5, r6, r8, r9, sp, lr}
     1b0:	00000400 	andeq	r0, r0, r0, lsl #8
     1b4:	02050000 	andeq	r0, r5, #0
     1b8:	00008010 	andeq	r8, r0, r0, lsl r0
     1bc:	0100c003 	tsteq	r0, r3
     1c0:	0402002f 	streq	r0, [r2], #-47	; 0x2f
     1c4:	064a0601 	strbeq	r0, [sl], -r1, lsl #12
     1c8:	30672fd7 	ldrdcc	r2, [r7], #-247	; 0xffffff09	; <UNPREDICTABLE>
     1cc:	309e2f03 	addscc	r2, lr, r3, lsl #30
     1d0:	2e7fb703 	cdpcs	7, 7, cr11, cr15, cr3, {0}
     1d4:	ba00cc03 	blt	331e8 <__bss_end__+0x284d0>
     1d8:	01040200 	mrseq	r0, R12_usr
     1dc:	03062e06 	movweq	r2, #28166	; 0x6e06
     1e0:	03827fba 	orreq	r7, r2, #744	; 0x2e8
     1e4:	00a34a75 	adceq	r4, r3, r5, ror sl
     1e8:	03010402 	movweq	r0, #5122	; 0x1402
     1ec:	038200ce 	orreq	r0, r2, #206	; 0xce
     1f0:	039e7fb8 	orrseq	r7, lr, #184, 30	; 0x2e0
     1f4:	00a34a75 	adceq	r4, r3, r5, ror sl
     1f8:	03010402 	movweq	r0, #5122	; 0x1402
     1fc:	038200d0 	orreq	r0, r2, #208	; 0xd0
     200:	039e7fb6 	orrseq	r7, lr, #728	; 0x2d8
     204:	00a34a75 	adceq	r4, r3, r5, ror sl
     208:	03010402 	movweq	r0, #5122	; 0x1402
     20c:	038200d2 	orreq	r0, r2, #210	; 0xd2
     210:	039e7fb4 	orrseq	r7, lr, #180, 30	; 0x2d0
     214:	00a34a75 	adceq	r4, r3, r5, ror sl
     218:	03010402 	movweq	r0, #5122	; 0x1402
     21c:	038200d4 	orreq	r0, r2, #212	; 0xd4
     220:	039e7fb2 	orrseq	r7, lr, #712	; 0x2c8
     224:	00a34a75 	adceq	r4, r3, r5, ror sl
     228:	03010402 	movweq	r0, #5122	; 0x1402
     22c:	038200d6 	orreq	r0, r2, #214	; 0xd6
     230:	039e7fb0 	orrseq	r7, lr, #176, 30	; 0x2c0
     234:	00a34a75 	adceq	r4, r3, r5, ror sl
     238:	03010402 	movweq	r0, #5122	; 0x1402
     23c:	038200d8 	orreq	r0, r2, #216	; 0xd8
     240:	039e7fae 	orrseq	r7, lr, #696	; 0x2b8
     244:	00a34a75 	adceq	r4, r3, r5, ror sl
     248:	03010402 	movweq	r0, #5122	; 0x1402
     24c:	038200da 	orreq	r0, r2, #218	; 0xda
     250:	039e7fac 	orrseq	r7, lr, #172, 30	; 0x2b0
     254:	00a34a75 	adceq	r4, r3, r5, ror sl
     258:	03010402 	movweq	r0, #5122	; 0x1402
     25c:	038200dc 	orreq	r0, r2, #220	; 0xdc
     260:	039e7f9f 	orrseq	r7, lr, #636	; 0x27c
     264:	008200e3 	addeq	r0, r2, r3, ror #1
     268:	06010402 	streq	r0, [r1], -r2, lsl #8
     26c:	0883062e 	stmeq	r3, {r1, r2, r3, r5, r9, sl}
     270:	034b6794 	movteq	r6, #46996	; 0xb794
     274:	032e7f96 	teqeq	lr, #600	; 0x258
     278:	339e00ed 	orrscc	r0, lr, #237	; 0xed
     27c:	4a750335 	bmi	1d40f58 <__bss_end__+0x1d36240>
     280:	bcbca06a 	ldclt	0, cr10, [ip], #424	; 0x1a8
     284:	02002f9f 	andeq	r2, r0, #636	; 0x27c
     288:	73030104 	movwvc	r0, #12548	; 0x3104
     28c:	6612032e 	ldrvs	r0, [r2], -lr, lsr #6
     290:	7fa203a3 	svcvc	0x00a203a3
     294:	a0852f2e 	addge	r2, r5, lr, lsr #30
     298:	d79f9f9f 			; <UNDEFINED> instruction: 0xd79f9f9f
     29c:	d79fd79f 			; <UNDEFINED> instruction: 0xd79fd79f
     2a0:	d79fd79f 			; <UNDEFINED> instruction: 0xd79fd79f
     2a4:	9f9fd79f 	svcls	0x009fd79f
     2a8:	9e00d203 	cdpls	2, 0, cr13, cr0, cr3, {0}
     2ac:	667f9803 	ldrbtvs	r9, [pc], -r3, lsl #16
     2b0:	9fa0852f 	svcls	0x00a0852f
     2b4:	9fd79f9f 	svcls	0x00d79f9f
     2b8:	9fd79fd7 	svcls	0x00d79fd7
     2bc:	9fd79fd7 	svcls	0x00d79fd7
     2c0:	039f9fd7 	orrseq	r9, pc, #860	; 0x35c
     2c4:	039e00d3 	orrseq	r0, lr, #211	; 0xd3
     2c8:	2f827f97 	svccs	0x00827f97
     2cc:	9f9fa085 	svcls	0x009fa085
     2d0:	d79fd79f 			; <UNDEFINED> instruction: 0xd79fd79f
     2d4:	d79fd79f 			; <UNDEFINED> instruction: 0xd79fd79f
     2d8:	d79fd79f 			; <UNDEFINED> instruction: 0xd79fd79f
     2dc:	d4039f9f 	strle	r9, [r3], #-3999	; 0xf9f
     2e0:	96039e00 	strls	r9, [r3], -r0, lsl #28
     2e4:	852f827f 	strhi	r8, [pc, #-639]!	; 6d <_start-0x7f93>
     2e8:	9f9f9fa0 	svcls	0x009f9fa0
     2ec:	9fd79fd7 	svcls	0x00d79fd7
     2f0:	9fd79fd7 	svcls	0x00d79fd7
     2f4:	9fd79fd7 	svcls	0x00d79fd7
     2f8:	00d5039f 	smullseq	r0, r5, pc, r3	; <UNPREDICTABLE>
     2fc:	314b839e 			; <UNDEFINED> instruction: 0x314b839e
     300:	2f2fcc08 	svccs	0x002fcc08
     304:	4c4c4b30 	vmovmi	d16, r4, ip
     308:	02874c2f 	addeq	r4, r7, #12032	; 0x2f00
     30c:	01010002 	tsteq	r1, r2
     310:	00000102 	andeq	r0, r0, r2, lsl #2
     314:	00eb0002 	rsceq	r0, fp, r2
     318:	01020000 	mrseq	r0, (UNDEF: 2)
     31c:	000d0efb 	strdeq	r0, [sp], -fp
     320:	01010101 	tsteq	r1, r1, lsl #2
     324:	01000000 	mrseq	r0, (UNDEF: 0)
     328:	6c010000 	stcvs	0, cr0, [r1], {-0}
     32c:	00636269 	rsbeq	r6, r3, r9, ror #4
     330:	7273752f 	rsbsvc	r7, r3, #197132288	; 0xbc00000
     334:	636f6c2f 	cmnvs	pc, #12032	; 0x2f00
     338:	432f6c61 	teqmi	pc, #24832	; 0x6100
     33c:	616c6c65 	cmnvs	ip, r5, ror #24
     340:	72612f72 	rsbvc	r2, r1, #456	; 0x1c8
     344:	6f6e2d6d 	svcvs	0x006e2d6d
     348:	652d656e 	strvs	r6, [sp, #-1390]!	; 0x56e
     34c:	2f696261 	svccs	0x00696261
     350:	2e382e34 	mrccs	14, 1, r2, cr8, cr4, {1}
     354:	73632d33 	cmnvc	r3, #3264	; 0xcc0
     358:	65303731 	ldrvs	r3, [r0, #-1841]!	; 0x731
     35c:	62696c2f 	rsbvs	r6, r9, #12032	; 0x2f00
     360:	6363672f 	cmnvs	r3, #12320768	; 0xbc0000
     364:	6d72612f 	ldfvse	f6, [r2, #-188]!	; 0xffffff44
     368:	6e6f6e2d 	cdpvs	14, 6, cr6, cr15, cr13, {1}
     36c:	61652d65 	cmnvs	r5, r5, ror #26
     370:	342f6962 	strtcc	r6, [pc], #-2402	; 378 <_start-0x7c88>
     374:	332e382e 	teqcc	lr, #3014656	; 0x2e0000
     378:	636e692f 	cmnvs	lr, #770048	; 0xbc000
     37c:	6564756c 	strbvs	r7, [r4, #-1388]!	; 0x56c
     380:	73552f00 	cmpvc	r5, #0, 30
     384:	2f737265 	svccs	0x00737265
     388:	61697262 	cmnvs	r9, r2, ror #4
     38c:	6e756a6e 	vsubvs.f32	s13, s10, s29
     390:	7365442f 	cmnvc	r5, #788529152	; 0x2f000000
     394:	706f746b 	rsbvc	r7, pc, fp, ror #8
     398:	6863732f 	stmdavs	r3!, {r0, r1, r2, r3, r5, r8, r9, ip, sp, lr}^
     39c:	2f6c6f6f 	svccs	0x006c6f6f
     3a0:	746e6957 	strbtvc	r6, [lr], #-2391	; 0x957
     3a4:	39317265 	ldmdbcc	r1!, {r0, r2, r5, r6, r9, ip, sp, lr}
     3a8:	432f3032 	teqmi	pc, #50	; 0x32
     3ac:	30343153 	eorscc	r3, r4, r3, asr r1
     3b0:	73632f45 	cmnvc	r3, #276	; 0x114
     3b4:	65303431 	ldrvs	r3, [r0, #-1073]!	; 0x431
     3b8:	7730322d 	ldrvc	r3, [r0, -sp, lsr #4]!
     3bc:	6c2f6e69 	stcvs	14, cr6, [pc], #-420	; 220 <_start-0x7de0>
     3c0:	69706269 	ldmdbvs	r0!, {r0, r3, r5, r6, r9, sp, lr}^
     3c4:	72700000 	rsbsvc	r0, r0, #0
     3c8:	6b746e69 	blvs	1d1bd74 <__bss_end__+0x1d1105c>
     3cc:	0100632e 	tsteq	r0, lr, lsr #6
     3d0:	74730000 	ldrbtvc	r0, [r3], #-0
     3d4:	67726164 	ldrbvs	r6, [r2, -r4, ror #2]!
     3d8:	0200682e 	andeq	r6, r0, #3014656	; 0x2e0000
     3dc:	623c0000 	eorsvs	r0, ip, #0
     3e0:	746c6975 	strbtvc	r6, [ip], #-2421	; 0x975
     3e4:	3e6e692d 	cdpcc	9, 6, cr6, cr14, cr13, {1}
     3e8:	00000000 	andeq	r0, r0, r0
     3ec:	2e697072 	mcrcs	0, 3, r7, cr9, cr2, {3}
     3f0:	00030068 	andeq	r0, r3, r8, rrx
     3f4:	2d617600 	stclcs	6, cr7, [r1, #-0]
     3f8:	6e697270 	mcrvs	2, 3, r7, cr9, cr0, {3}
     3fc:	682e6b74 	stmdavs	lr!, {r2, r4, r5, r6, r8, r9, fp, sp, lr}
     400:	00000100 	andeq	r0, r0, r0, lsl #2
     404:	02050000 	andeq	r0, r5, #0
     408:	00008b30 	andeq	r8, r0, r0, lsr fp
     40c:	bf4b6b17 	svclt	0x004b6b17
     410:	000e0289 	andeq	r0, lr, r9, lsl #5
     414:	008a0101 	addeq	r0, sl, r1, lsl #2
     418:	00020000 	andeq	r0, r2, r0
     41c:	00000072 	andeq	r0, r0, r2, ror r0
     420:	0efb0102 	cdpeq	1, 15, cr0, cr11, cr2, {0}
     424:	0101000d 	tsteq	r1, sp
     428:	00000101 	andeq	r0, r0, r1, lsl #2
     42c:	00000100 	andeq	r0, r0, r0, lsl #2
     430:	62696c01 	rsbvs	r6, r9, #256	; 0x100
     434:	552f0063 	strpl	r0, [pc, #-99]!	; 3d9 <_start-0x7c27>
     438:	73726573 	cmnvc	r2, #482344960	; 0x1cc00000
     43c:	6972622f 	ldmdbvs	r2!, {r0, r1, r2, r3, r5, r9, sp, lr}^
     440:	756a6e61 	strbvc	r6, [sl, #-3681]!	; 0xe61
     444:	65442f6e 	strbvs	r2, [r4, #-3950]	; 0xf6e
     448:	6f746b73 	svcvs	0x00746b73
     44c:	63732f70 	cmnvs	r3, #112, 30	; 0x1c0
     450:	6c6f6f68 	stclvs	15, cr6, [pc], #-416	; 2b8 <_start-0x7d48>
     454:	6e69572f 	cdpvs	7, 6, cr5, cr9, cr15, {1}
     458:	31726574 	cmncc	r2, r4, ror r5
     45c:	2f303239 	svccs	0x00303239
     460:	34315343 	ldrtcc	r5, [r1], #-835	; 0x343
     464:	632f4530 	teqvs	pc, #48, 10	; 0xc000000
     468:	30343173 	eorscc	r3, r4, r3, ror r1
     46c:	30322d65 	eorscc	r2, r2, r5, ror #26
     470:	2f6e6977 	svccs	0x006e6977
     474:	7062696c 	rsbvc	r6, r2, ip, ror #18
     478:	70000069 	andvc	r0, r0, r9, rrx
     47c:	68637475 	stmdavs	r3!, {r0, r2, r4, r5, r6, sl, ip, sp, lr}^
     480:	632e7261 	teqvs	lr, #268435462	; 0x10000006
     484:	00000100 	andeq	r0, r0, r0, lsl #2
     488:	2e697072 	mcrcs	0, 3, r7, cr9, cr2, {3}
     48c:	00020068 	andeq	r0, r2, r8, rrx
     490:	05000000 	streq	r0, [r0, #-0]
     494:	008b8802 	addeq	r8, fp, r2, lsl #16
     498:	6b4a1400 	blvs	12854a0 <__bss_end__+0x127a788>
     49c:	0213bc13 	andseq	fp, r3, #4864	; 0x1300
     4a0:	01010008 	tsteq	r1, r8
     4a4:	00000096 	muleq	r0, r6, r0
     4a8:	006f0002 	rsbeq	r0, pc, r2
     4ac:	01020000 	mrseq	r0, (UNDEF: 2)
     4b0:	000d0efb 	strdeq	r0, [sp], -fp
     4b4:	01010101 	tsteq	r1, r1, lsl #2
     4b8:	01000000 	mrseq	r0, (UNDEF: 0)
     4bc:	6c010000 	stcvs	0, cr0, [r1], {-0}
     4c0:	00636269 	rsbeq	r6, r3, r9, ror #4
     4c4:	6573552f 	ldrbvs	r5, [r3, #-1327]!	; 0x52f
     4c8:	622f7372 	eorvs	r7, pc, #-939524095	; 0xc8000001
     4cc:	6e616972 	mcrvs	9, 3, r6, cr1, cr2, {3}
     4d0:	2f6e756a 	svccs	0x006e756a
     4d4:	6b736544 	blvs	1cd99ec <__bss_end__+0x1ccecd4>
     4d8:	2f706f74 	svccs	0x00706f74
     4dc:	6f686373 	svcvs	0x00686373
     4e0:	572f6c6f 	strpl	r6, [pc, -pc, ror #24]!
     4e4:	65746e69 	ldrbvs	r6, [r4, #-3689]!	; 0xe69
     4e8:	32393172 	eorscc	r3, r9, #-2147483620	; 0x8000001c
     4ec:	53432f30 	movtpl	r2, #16176	; 0x3f30
     4f0:	45303431 	ldrmi	r3, [r0, #-1073]!	; 0x431
     4f4:	3173632f 	cmncc	r3, pc, lsr #6
     4f8:	2d653034 	stclcs	0, cr3, [r5, #-208]!	; 0xffffff30
     4fc:	69773032 	ldmdbvs	r7!, {r1, r4, r5, ip, sp}^
     500:	696c2f6e 	stmdbvs	ip!, {r1, r2, r3, r5, r6, r8, r9, sl, fp, sp}^
     504:	00697062 	rsbeq	r7, r9, r2, rrx
     508:	74757000 	ldrbtvc	r7, [r5], #-0
     50c:	00632e6b 	rsbeq	r2, r3, fp, ror #28
     510:	72000001 	andvc	r0, r0, #1
     514:	682e6970 	stmdavs	lr!, {r4, r5, r6, r8, fp, sp, lr}
     518:	00000200 	andeq	r0, r0, r0, lsl #4
     51c:	02050000 	andeq	r0, r5, #0
     520:	00008bc4 	andeq	r8, r0, r4, asr #23
     524:	002d4c15 	eoreq	r4, sp, r5, lsl ip
     528:	2f020402 	svccs	0x00020402
     52c:	02040200 	andeq	r0, r4, #0, 4
     530:	04020049 	streq	r0, [r2], #-73	; 0x49
     534:	062e0601 	strteq	r0, [lr], -r1, lsl #12
     538:	0006026b 	andeq	r0, r6, fp, ror #4
     53c:	01e20101 	mvneq	r0, r1, lsl #2
     540:	00020000 	andeq	r0, r2, r0
     544:	000000df 	ldrdeq	r0, [r0], -pc	; <UNPREDICTABLE>
     548:	0efb0102 	cdpeq	1, 15, cr0, cr11, cr2, {0}
     54c:	0101000d 	tsteq	r1, sp
     550:	00000101 	andeq	r0, r0, r1, lsl #2
     554:	00000100 	andeq	r0, r0, r0, lsl #2
     558:	62696c01 	rsbvs	r6, r9, #256	; 0x100
     55c:	752f0063 	strvc	r0, [pc, #-99]!	; 501 <_start-0x7aff>
     560:	6c2f7273 	sfmvs	f7, 4, [pc], #-460	; 39c <_start-0x7c64>
     564:	6c61636f 	stclvs	3, cr6, [r1], #-444	; 0xfffffe44
     568:	6c65432f 	stclvs	3, cr4, [r5], #-188	; 0xffffff44
     56c:	2f72616c 	svccs	0x0072616c
     570:	2d6d7261 	sfmcs	f7, 2, [sp, #-388]!	; 0xfffffe7c
     574:	656e6f6e 	strbvs	r6, [lr, #-3950]!	; 0xf6e
     578:	6261652d 	rsbvs	r6, r1, #188743680	; 0xb400000
     57c:	2e342f69 	cdpcs	15, 3, cr2, cr4, cr9, {3}
     580:	2d332e38 	ldccs	14, cr2, [r3, #-224]!	; 0xffffff20
     584:	37317363 	ldrcc	r7, [r1, -r3, ror #6]!
     588:	6c2f6530 	cfstr32vs	mvfx6, [pc], #-192	; 4d0 <_start-0x7b30>
     58c:	672f6269 	strvs	r6, [pc, -r9, ror #4]!
     590:	612f6363 	teqvs	pc, r3, ror #6
     594:	6e2d6d72 	mcrvs	13, 1, r6, cr13, cr2, {3}
     598:	2d656e6f 	stclcs	14, cr6, [r5, #-444]!	; 0xfffffe44
     59c:	69626165 	stmdbvs	r2!, {r0, r2, r5, r6, r8, sp, lr}^
     5a0:	382e342f 	stmdacc	lr!, {r0, r1, r2, r3, r5, sl, ip, sp}
     5a4:	692f332e 	stmdbvs	pc!, {r1, r2, r3, r5, r8, r9, ip, sp}	; <UNPREDICTABLE>
     5a8:	756c636e 	strbvc	r6, [ip, #-878]!	; 0x36e
     5ac:	2f006564 	svccs	0x00006564
     5b0:	72657355 	rsbvc	r7, r5, #1409286145	; 0x54000001
     5b4:	72622f73 	rsbvc	r2, r2, #460	; 0x1cc
     5b8:	6a6e6169 	bvs	1b98b64 <__bss_end__+0x1b8de4c>
     5bc:	442f6e75 	strtmi	r6, [pc], #-3701	; 5c4 <_start-0x7a3c>
     5c0:	746b7365 	strbtvc	r7, [fp], #-869	; 0x365
     5c4:	732f706f 	teqvc	pc, #111	; 0x6f
     5c8:	6f6f6863 	svcvs	0x006f6863
     5cc:	69572f6c 	ldmdbvs	r7, {r2, r3, r5, r6, r8, r9, sl, fp, sp}^
     5d0:	7265746e 	rsbvc	r7, r5, #1845493760	; 0x6e000000
     5d4:	30323931 	eorscc	r3, r2, r1, lsr r9
     5d8:	3153432f 	cmpcc	r3, pc, lsr #6
     5dc:	2f453034 	svccs	0x00453034
     5e0:	34317363 	ldrtcc	r7, [r1], #-867	; 0x363
     5e4:	322d6530 	eorcc	r6, sp, #48, 10	; 0xc000000
     5e8:	6e697730 	mcrvs	7, 3, r7, cr9, cr0, {1}
     5ec:	62696c2f 	rsbvs	r6, r9, #12032	; 0x2f00
     5f0:	00006970 	andeq	r6, r0, r0, ror r9
     5f4:	702d6176 	eorvc	r6, sp, r6, ror r1
     5f8:	746e6972 	strbtvc	r6, [lr], #-2418	; 0x972
     5fc:	00632e6b 	rsbeq	r2, r3, fp, ror #28
     600:	73000001 	movwvc	r0, #1
     604:	72616474 	rsbvc	r6, r1, #116, 8	; 0x74000000
     608:	00682e67 	rsbeq	r2, r8, r7, ror #28
     60c:	72000002 	andvc	r0, r0, #2
     610:	682e6970 	stmdavs	lr!, {r4, r5, r6, r8, fp, sp, lr}
     614:	00000300 	andeq	r0, r0, r0, lsl #6
     618:	6975623c 	ldmdbvs	r5!, {r2, r3, r4, r5, r9, sp, lr}^
     61c:	692d746c 	pushvs	{r2, r3, r5, r6, sl, ip, sp, lr}
     620:	00003e6e 	andeq	r3, r0, lr, ror #28
     624:	00000000 	andeq	r0, r0, r0
     628:	8bf80205 	blhi	ffe00e44 <__bss_end__+0xffdf612c>
     62c:	26030000 	strcs	r0, [r3], -r0
     630:	13a50101 			; <UNDEFINED> instruction: 0x13a50101
     634:	02002d31 	andeq	r2, r0, #3136	; 0xc40
     638:	002f0204 	eoreq	r0, pc, r4, lsl #4
     63c:	2d020402 	cfstrscs	mvf0, [r2, #-8]
     640:	02040200 	andeq	r0, r4, #0, 4
     644:	0402002f 	streq	r0, [r2], #-47	; 0x2f
     648:	4c4c2d01 	mcrrmi	13, 0, r2, ip, cr1
     64c:	2f4b1430 	svccs	0x004b1430
     650:	0402004f 	streq	r0, [r2], #-79	; 0x4f
     654:	02006702 	andeq	r6, r0, #524288	; 0x80000
     658:	4c650104 	stfmie	f0, [r5], #-16
     65c:	2fa0304d 	svccs	0x00a0304d
     660:	26023031 			; <UNDEFINED> instruction: 0x26023031
     664:	2c2d8416 	cfstrscs	mvf8, [sp], #-88	; 0xffffffa8
     668:	01040200 	mrseq	r0, R12_usr
     66c:	04020030 	streq	r0, [r2], #-48	; 0x30
     670:	66063301 	strvs	r3, [r6], -r1, lsl #6
     674:	01040200 	mrseq	r0, R12_usr
     678:	0402002e 	streq	r0, [r2], #-46	; 0x2e
     67c:	21080601 	tstcs	r8, r1, lsl #12
     680:	73032f67 	movwvc	r2, #16231	; 0x3f67
     684:	2e130382 	cdpcs	3, 1, cr0, cr3, cr2, {4}
     688:	01040200 	mrseq	r0, R12_usr
     68c:	02002e06 	andeq	r2, r0, #6, 28	; 0x60
     690:	9f060104 	svcls	0x00060104
     694:	67034b6a 	strvs	r4, [r3, -sl, ror #22]
     698:	2e21032e 	cdpcs	3, 2, cr0, cr1, cr14, {1}
     69c:	01040200 	mrseq	r0, R12_usr
     6a0:	02002e06 	andeq	r2, r0, #6, 28	; 0x60
     6a4:	9f060104 	svcls	0x00060104
     6a8:	01040200 	mrseq	r0, R12_usr
     6ac:	f323086a 	vsub.i32	q0, <illegal reg q1.5>, q13
     6b0:	087fa603 	ldmdaeq	pc!, {r0, r1, r9, sl, sp, pc}^	; <UNPREDICTABLE>
     6b4:	02004b3c 	andeq	r4, r0, #60, 22	; 0xf000
     6b8:	4a060104 	bmi	180ad0 <__bss_end__+0x175db8>
     6bc:	4b210806 	blmi	8426dc <__bss_end__+0x8379c4>
     6c0:	d9034b2f 	stmdble	r3, {r0, r1, r2, r3, r5, r8, r9, fp, lr}
     6c4:	4c83f200 	sfmmi	f7, 1, [r3], {0}
     6c8:	2e0e0348 	cdpcs	3, 0, cr0, cr14, cr8, {2}
     6cc:	2f2e7503 	svccs	0x002e7503
     6d0:	2f4b842f 	svccs	0x004b842f
     6d4:	30314d2d 	eorscc	r4, r1, sp, lsr #26
     6d8:	0200832f 	andeq	r8, r0, #-1140850688	; 0xbc000000
     6dc:	a22c0104 	eorge	r0, ip, #4, 2
     6e0:	01040200 	mrseq	r0, R12_usr
     6e4:	08064a06 	stmdaeq	r6, {r1, r2, r9, fp, lr}
     6e8:	16360222 	ldrtne	r0, [r6], -r2, lsr #4
     6ec:	08d60e03 	ldmeq	r6, {r0, r1, r9, sl, fp}^
     6f0:	31f33021 	mvnscc	r3, r1, lsr #32
     6f4:	30f330f3 	ldrshtcc	r3, [r3], #3
     6f8:	30f3304b 	rscscc	r3, r3, fp, asr #32
     6fc:	2f312308 	svccs	0x00312308
     700:	01040200 	mrseq	r0, R12_usr
     704:	04020065 	streq	r0, [r2], #-101	; 0x65
     708:	004a0602 	subeq	r0, sl, r2, lsl #12
     70c:	06010402 	streq	r0, [r1], -r2, lsl #8
     710:	00664203 	rsbeq	r4, r6, r3, lsl #4
     714:	06020402 	streq	r0, [r2], -r2, lsl #8
     718:	c2030666 	andgt	r0, r3, #106954752	; 0x6600000
     71c:	02684a00 	rsbeq	r4, r8, #0, 20
     720:	01010012 	tsteq	r1, r2, lsl r0
     724:	00000043 	andeq	r0, r0, r3, asr #32
     728:	00290002 	eoreq	r0, r9, r2
     72c:	01020000 	mrseq	r0, (UNDEF: 2)
     730:	000d0efb 	strdeq	r0, [sp], -fp
     734:	01010101 	tsteq	r1, r1, lsl #2
     738:	01000000 	mrseq	r0, (UNDEF: 0)
     73c:	63010000 	movwvs	r0, #4096	; 0x1000
     740:	30343173 	eorscc	r3, r4, r3, ror r1
     744:	72732d65 	rsbsvc	r2, r3, #6464	; 0x1940
     748:	63000063 	movwvs	r0, #99	; 0x63
     74c:	65686361 	strbvs	r6, [r8, #-865]!	; 0x361
     750:	0100632e 	tsteq	r0, lr, lsr #6
     754:	00000000 	andeq	r0, r0, r0
     758:	911c0205 	tstls	ip, r5, lsl #4
     75c:	14140000 	ldrne	r0, [r4], #-0
     760:	144e2f30 	strbne	r2, [lr], #-3888	; 0xf30
     764:	04022f31 	streq	r2, [r2], #-3889	; 0xf31
     768:	93010100 	movwls	r0, #4352	; 0x1100
     76c:	02000000 	andeq	r0, r0, #0
     770:	00007d00 	andeq	r7, r0, r0, lsl #26
     774:	fb010200 	blx	40f7e <__bss_end__+0x36266>
     778:	01000d0e 	tsteq	r0, lr, lsl #26
     77c:	00010101 	andeq	r0, r1, r1, lsl #2
     780:	00010000 	andeq	r0, r1, r0
     784:	73630100 	cmnvc	r3, #0, 2
     788:	65303431 	ldrvs	r3, [r0, #-1073]!	; 0x431
     78c:	6372732d 	cmnvs	r2, #-1275068416	; 0xb4000000
     790:	73552f00 	cmpvc	r5, #0, 30
     794:	2f737265 	svccs	0x00737265
     798:	61697262 	cmnvs	r9, r2, ror #4
     79c:	6e756a6e 	vsubvs.f32	s13, s10, s29
     7a0:	7365442f 	cmnvc	r5, #788529152	; 0x2f000000
     7a4:	706f746b 	rsbvc	r7, pc, fp, ror #8
     7a8:	6863732f 	stmdavs	r3!, {r0, r1, r2, r3, r5, r8, r9, ip, sp, lr}^
     7ac:	2f6c6f6f 	svccs	0x006c6f6f
     7b0:	746e6957 	strbtvc	r6, [lr], #-2391	; 0x957
     7b4:	39317265 	ldmdbcc	r1!, {r0, r2, r5, r6, r9, ip, sp, lr}
     7b8:	432f3032 	teqmi	pc, #50	; 0x32
     7bc:	30343153 	eorscc	r3, r4, r3, asr r1
     7c0:	73632f45 	cmnvc	r3, #276	; 0x114
     7c4:	65303431 	ldrvs	r3, [r0, #-1073]!	; 0x431
     7c8:	7730322d 	ldrvc	r3, [r0, -sp, lsr #4]!
     7cc:	6c2f6e69 	stcvs	14, cr6, [pc], #-420	; 630 <_start-0x79d0>
     7d0:	69706269 	ldmdbvs	r0!, {r0, r3, r5, r6, r9, sp, lr}^
     7d4:	6c630000 	stclvs	0, cr0, [r3], #-0
     7d8:	2d6e6165 	stfcse	f6, [lr, #-404]!	; 0xfffffe6c
     7dc:	6f626572 	svcvs	0x00626572
     7e0:	632e746f 	teqvs	lr, #1862270976	; 0x6f000000
     7e4:	00000100 	andeq	r0, r0, r0, lsl #2
     7e8:	2e697072 	mcrcs	0, 3, r7, cr9, cr2, {3}
     7ec:	00020068 	andeq	r0, r2, r8, rrx
     7f0:	05000000 	streq	r0, [r0, #-0]
     7f4:	00913c02 	addseq	r3, r1, r2, lsl #24
     7f8:	832f1500 	teqhi	pc, #0, 10
     7fc:	0006024b 	andeq	r0, r6, fp, asr #4
     800:	01210101 	teqeq	r1, r1, lsl #2
     804:	00020000 	andeq	r0, r2, r0
     808:	000000f8 	strdeq	r0, [r0], -r8
     80c:	0efb0102 	cdpeq	1, 15, cr0, cr11, cr2, {0}
     810:	0101000d 	tsteq	r1, sp
     814:	00000101 	andeq	r0, r0, r1, lsl #2
     818:	00000100 	andeq	r0, r0, r0, lsl #2
     81c:	31736301 	cmncc	r3, r1, lsl #6
     820:	2d653034 	stclcs	0, cr3, [r5, #-208]!	; 0xffffff30
     824:	00637273 	rsbeq	r7, r3, r3, ror r2
     828:	7273752f 	rsbsvc	r7, r3, #197132288	; 0xbc00000
     82c:	636f6c2f 	cmnvs	pc, #12032	; 0x2f00
     830:	432f6c61 	teqmi	pc, #24832	; 0x6100
     834:	616c6c65 	cmnvs	ip, r5, ror #24
     838:	72612f72 	rsbvc	r2, r1, #456	; 0x1c8
     83c:	6f6e2d6d 	svcvs	0x006e2d6d
     840:	652d656e 	strvs	r6, [sp, #-1390]!	; 0x56e
     844:	2f696261 	svccs	0x00696261
     848:	2e382e34 	mrccs	14, 1, r2, cr8, cr4, {1}
     84c:	73632d33 	cmnvc	r3, #3264	; 0xcc0
     850:	65303731 	ldrvs	r3, [r0, #-1841]!	; 0x731
     854:	62696c2f 	rsbvs	r6, r9, #12032	; 0x2f00
     858:	6363672f 	cmnvs	r3, #12320768	; 0xbc0000
     85c:	6d72612f 	ldfvse	f6, [r2, #-188]!	; 0xffffff44
     860:	6e6f6e2d 	cdpvs	14, 6, cr6, cr15, cr13, {1}
     864:	61652d65 	cmnvs	r5, r5, ror #26
     868:	342f6962 	strtcc	r6, [pc], #-2402	; 870 <_start-0x7790>
     86c:	332e382e 	teqcc	lr, #3014656	; 0x2e0000
     870:	636e692f 	cmnvs	lr, #770048	; 0xbc000
     874:	6564756c 	strbvs	r7, [r4, #-1388]!	; 0x56c
     878:	73552f00 	cmpvc	r5, #0, 30
     87c:	2f737265 	svccs	0x00737265
     880:	61697262 	cmnvs	r9, r2, ror #4
     884:	6e756a6e 	vsubvs.f32	s13, s10, s29
     888:	7365442f 	cmnvc	r5, #788529152	; 0x2f000000
     88c:	706f746b 	rsbvc	r7, pc, fp, ror #8
     890:	6863732f 	stmdavs	r3!, {r0, r1, r2, r3, r5, r8, r9, ip, sp, lr}^
     894:	2f6c6f6f 	svccs	0x006c6f6f
     898:	746e6957 	strbtvc	r6, [lr], #-2391	; 0x957
     89c:	39317265 	ldmdbcc	r1!, {r0, r2, r5, r6, r9, ip, sp, lr}
     8a0:	432f3032 	teqmi	pc, #50	; 0x32
     8a4:	30343153 	eorscc	r3, r4, r3, asr r1
     8a8:	73632f45 	cmnvc	r3, #276	; 0x114
     8ac:	65303431 	ldrvs	r3, [r0, #-1073]!	; 0x431
     8b0:	7730322d 	ldrvc	r3, [r0, -sp, lsr #4]!
     8b4:	6c2f6e69 	stcvs	14, cr6, [pc], #-420	; 718 <_start-0x78e8>
     8b8:	69706269 	ldmdbvs	r0!, {r0, r3, r5, r6, r9, sp, lr}^
     8bc:	73630000 	cmnvc	r3, #0
     8c0:	74726174 	ldrbtvc	r6, [r2], #-372	; 0x174
     8c4:	0100632e 	tsteq	r0, lr, lsr #6
     8c8:	74730000 	ldrbtvc	r0, [r3], #-0
     8cc:	746e6964 	strbtvc	r6, [lr], #-2404	; 0x964
     8d0:	6363672d 	cmnvs	r3, #11796480	; 0xb40000
     8d4:	0200682e 	andeq	r6, r0, #3014656	; 0x2e0000
     8d8:	77730000 	ldrbvc	r0, [r3, -r0]!
     8dc:	7261752d 	rsbvc	r7, r1, #188743680	; 0xb400000
     8e0:	00682e74 	rsbeq	r2, r8, r4, ror lr
     8e4:	63000001 	movwvs	r0, #1
     8e8:	72746e6f 	rsbsvc	r6, r4, #1776	; 0x6f0
     8ec:	622d6c6f 	eorvs	r6, sp, #28416	; 0x6f00
     8f0:	6b636f6c 	blvs	18dc6a8 <__bss_end__+0x18d1990>
     8f4:	0100682e 	tsteq	r0, lr, lsr #16
     8f8:	70720000 	rsbsvc	r0, r2, r0
     8fc:	00682e69 	rsbeq	r2, r8, r9, ror #28
     900:	00000003 	andeq	r0, r0, r3
     904:	64020500 	strvs	r0, [r2], #-1280	; 0x500
     908:	17000091 			; <UNDEFINED> instruction: 0x17000091
     90c:	3268684b 	rsbcc	r6, r8, #4915200	; 0x4b0000
     910:	2f2d2f31 	svccs	0x002d2f31
     914:	01040200 	mrseq	r0, R12_usr
     918:	4b2f4f49 	blmi	bd4644 <__bss_end__+0xbc992c>
     91c:	67836767 	strvs	r6, [r3, r7, ror #14]
     920:	10022f4e 	andne	r2, r2, lr, asr #30
     924:	99010100 	stmdbls	r1, {r8}
     928:	02000000 	andeq	r0, r0, #0
     92c:	00007700 	andeq	r7, r0, r0, lsl #14
     930:	fb010200 	blx	4113a <__bss_end__+0x36422>
     934:	01000d0e 	tsteq	r0, lr, lsl #26
     938:	00010101 	andeq	r0, r1, r1, lsl #2
     93c:	00010000 	andeq	r0, r1, r0
     940:	73630100 	cmnvc	r3, #0, 2
     944:	65303431 	ldrvs	r3, [r0, #-1073]!	; 0x431
     948:	6372732d 	cmnvs	r2, #-1275068416	; 0xb4000000
     94c:	73552f00 	cmpvc	r5, #0, 30
     950:	2f737265 	svccs	0x00737265
     954:	61697262 	cmnvs	r9, r2, ror #4
     958:	6e756a6e 	vsubvs.f32	s13, s10, s29
     95c:	7365442f 	cmnvc	r5, #788529152	; 0x2f000000
     960:	706f746b 	rsbvc	r7, pc, fp, ror #8
     964:	6863732f 	stmdavs	r3!, {r0, r1, r2, r3, r5, r8, r9, ip, sp, lr}^
     968:	2f6c6f6f 	svccs	0x006c6f6f
     96c:	746e6957 	strbtvc	r6, [lr], #-2391	; 0x957
     970:	39317265 	ldmdbcc	r1!, {r0, r2, r5, r6, r9, ip, sp, lr}
     974:	432f3032 	teqmi	pc, #50	; 0x32
     978:	30343153 	eorscc	r3, r4, r3, asr r1
     97c:	73632f45 	cmnvc	r3, #276	; 0x114
     980:	65303431 	ldrvs	r3, [r0, #-1073]!	; 0x431
     984:	7730322d 	ldrvc	r3, [r0, -sp, lsr #4]!
     988:	6c2f6e69 	stcvs	14, cr6, [pc], #-420	; 7ec <_start-0x7814>
     98c:	69706269 	ldmdbvs	r0!, {r0, r3, r5, r6, r9, sp, lr}^
     990:	65720000 	ldrbvs	r0, [r2, #-0]!
     994:	746f6f62 	strbtvc	r6, [pc], #-3938	; 99c <_start-0x7664>
     998:	0100632e 	tsteq	r0, lr, lsr #6
     99c:	70720000 	rsbsvc	r0, r2, r0
     9a0:	00682e69 	rsbeq	r2, r8, r9, ror #28
     9a4:	00000002 	andeq	r0, r0, r2
     9a8:	14020500 	strne	r0, [r2], #-1280	; 0x500
     9ac:	03000092 	movweq	r0, #146	; 0x92
     9b0:	3114010d 	tstcc	r4, sp, lsl #2
     9b4:	2f15852f 	svccs	0x0015852f
     9b8:	672f4d4b 	strvs	r4, [pc, -fp, asr #26]!
     9bc:	02675235 	rsbeq	r5, r7, #1342177283	; 0x50000003
     9c0:	01010010 	tsteq	r1, r0, lsl r0
     9c4:	000000a3 	andeq	r0, r0, r3, lsr #1
     9c8:	00760002 	rsbseq	r0, r6, r2
     9cc:	01020000 	mrseq	r0, (UNDEF: 2)
     9d0:	000d0efb 	strdeq	r0, [sp], -fp
     9d4:	01010101 	tsteq	r1, r1, lsl #2
     9d8:	01000000 	mrseq	r0, (UNDEF: 0)
     9dc:	63010000 	movwvs	r0, #4096	; 0x1000
     9e0:	30343173 	eorscc	r3, r4, r3, ror r1
     9e4:	72732d65 	rsbsvc	r2, r3, #6464	; 0x1940
     9e8:	552f0063 	strpl	r0, [pc, #-99]!	; 98d <_start-0x7673>
     9ec:	73726573 	cmnvc	r2, #482344960	; 0x1cc00000
     9f0:	6972622f 	ldmdbvs	r2!, {r0, r1, r2, r3, r5, r9, sp, lr}^
     9f4:	756a6e61 	strbvc	r6, [sl, #-3681]!	; 0xe61
     9f8:	65442f6e 	strbvs	r2, [r4, #-3950]	; 0xf6e
     9fc:	6f746b73 	svcvs	0x00746b73
     a00:	63732f70 	cmnvs	r3, #112, 30	; 0x1c0
     a04:	6c6f6f68 	stclvs	15, cr6, [pc], #-416	; 86c <_start-0x7794>
     a08:	6e69572f 	cdpvs	7, 6, cr5, cr9, cr15, {1}
     a0c:	31726574 	cmncc	r2, r4, ror r5
     a10:	2f303239 	svccs	0x00303239
     a14:	34315343 	ldrtcc	r5, [r1], #-835	; 0x343
     a18:	632f4530 	teqvs	pc, #48, 10	; 0xc000000
     a1c:	30343173 	eorscc	r3, r4, r3, ror r1
     a20:	30322d65 	eorscc	r2, r2, r5, ror #26
     a24:	2f6e6977 	svccs	0x006e6977
     a28:	7062696c 	rsbvc	r6, r2, ip, ror #18
     a2c:	74000069 	strvc	r0, [r0], #-105	; 0x69
     a30:	72656d69 	rsbvc	r6, r5, #6720	; 0x1a40
     a34:	0100632e 	tsteq	r0, lr, lsr #6
     a38:	70720000 	rsbsvc	r0, r2, r0
     a3c:	00682e69 	rsbeq	r2, r8, r9, ror #28
     a40:	00000002 	andeq	r0, r0, r2
     a44:	88020500 	stmdahi	r2, {r8, sl}
     a48:	16000092 			; <UNDEFINED> instruction: 0x16000092
     a4c:	002d2f13 	eoreq	r2, sp, r3, lsl pc
     a50:	06010402 	streq	r0, [r1], -r2, lsl #8
     a54:	3168062e 	cmncc	r8, lr, lsr #12
     a58:	324d4b2f 	subcc	r4, sp, #48128	; 0xbc00
     a5c:	4c4b3031 	mcrrmi	0, 3, r3, fp, cr1
     a60:	2f2f6a2f 	svccs	0x002f6a2f
     a64:	08022f84 	stmdaeq	r2, {r2, r7, r8, r9, sl, fp, sp}
     a68:	7f010100 	svcvc	0x00010100
     a6c:	02000001 	andeq	r0, r0, #1
     a70:	0000ca00 	andeq	ip, r0, r0, lsl #20
     a74:	fb010200 	blx	4127e <__bss_end__+0x36566>
     a78:	01000d0e 	tsteq	r0, lr, lsl #26
     a7c:	00010101 	andeq	r0, r1, r1, lsl #2
     a80:	00010000 	andeq	r0, r1, r0
     a84:	796d0100 	stmdbvc	sp!, {r8}^
     a88:	6372732d 	cmnvs	r2, #-1275068416	; 0xb4000000
     a8c:	73552f00 	cmpvc	r5, #0, 30
     a90:	2f737265 	svccs	0x00737265
     a94:	61697262 	cmnvs	r9, r2, ror #4
     a98:	6e756a6e 	vsubvs.f32	s13, s10, s29
     a9c:	7365442f 	cmnvc	r5, #788529152	; 0x2f000000
     aa0:	706f746b 	rsbvc	r7, pc, fp, ror #8
     aa4:	6863732f 	stmdavs	r3!, {r0, r1, r2, r3, r5, r8, r9, ip, sp, lr}^
     aa8:	2f6c6f6f 	svccs	0x006c6f6f
     aac:	746e6957 	strbtvc	r6, [lr], #-2391	; 0x957
     ab0:	39317265 	ldmdbcc	r1!, {r0, r2, r5, r6, r9, ip, sp, lr}
     ab4:	432f3032 	teqmi	pc, #50	; 0x32
     ab8:	30343153 	eorscc	r3, r4, r3, asr r1
     abc:	73632f45 	cmnvc	r3, #276	; 0x114
     ac0:	65303431 	ldrvs	r3, [r0, #-1073]!	; 0x431
     ac4:	7730322d 	ldrvc	r3, [r0, -sp, lsr #4]!
     ac8:	6c2f6e69 	stcvs	14, cr6, [pc], #-420	; 92c <_start-0x76d4>
     acc:	69706269 	ldmdbvs	r0!, {r0, r3, r5, r6, r9, sp, lr}^
     ad0:	3173632f 	cmncc	r3, pc, lsr #6
     ad4:	2d653034 	stclcs	0, cr3, [r5, #-208]!	; 0xffffff30
     ad8:	00637273 	rsbeq	r7, r3, r3, ror r2
     adc:	6573552f 	ldrbvs	r5, [r3, #-1327]!	; 0x52f
     ae0:	622f7372 	eorvs	r7, pc, #-939524095	; 0xc8000001
     ae4:	6e616972 	mcrvs	9, 3, r6, cr1, cr2, {3}
     ae8:	2f6e756a 	svccs	0x006e756a
     aec:	6b736544 	blvs	1cda004 <__bss_end__+0x1ccf2ec>
     af0:	2f706f74 	svccs	0x00706f74
     af4:	6f686373 	svcvs	0x00686373
     af8:	572f6c6f 	strpl	r6, [pc, -pc, ror #24]!
     afc:	65746e69 	ldrbvs	r6, [r4, #-3689]!	; 0xe69
     b00:	32393172 	eorscc	r3, r9, #-2147483620	; 0x8000001c
     b04:	53432f30 	movtpl	r2, #16176	; 0x3f30
     b08:	45303431 	ldrmi	r3, [r0, #-1073]!	; 0x431
     b0c:	3173632f 	cmncc	r3, pc, lsr #6
     b10:	2d653034 	stclcs	0, cr3, [r5, #-208]!	; 0xffffff30
     b14:	69773032 	ldmdbvs	r7!, {r1, r4, r5, ip, sp}^
     b18:	696c2f6e 	stmdbvs	ip!, {r1, r2, r3, r5, r6, r8, r9, sl, fp, sp}^
     b1c:	00697062 	rsbeq	r7, r9, r2, rrx
     b20:	69706700 	ldmdbvs	r0!, {r8, r9, sl, sp, lr}^
     b24:	00632e6f 	rsbeq	r2, r3, pc, ror #28
     b28:	67000001 	strvs	r0, [r0, -r1]
     b2c:	2e6f6970 	mcrcs	9, 3, r6, cr15, cr0, {3}
     b30:	00020068 	andeq	r0, r2, r8, rrx
     b34:	69707200 	ldmdbvs	r0!, {r9, ip, sp, lr}^
     b38:	0300682e 	movweq	r6, #2094	; 0x82e
     b3c:	00000000 	andeq	r0, r0, r0
     b40:	93100205 	tstls	r0, #1342177280	; 0x50000000
     b44:	3e030000 	cdpcc	0, 0, cr0, cr3, cr0, {0}
     b48:	69504e01 	ldmdbvs	r0, {r0, r9, sl, fp, lr}^
     b4c:	67672108 	strbvs	r2, [r7, -r8, lsl #2]!
     b50:	67676767 	strbvs	r6, [r7, -r7, ror #14]!
     b54:	22084b32 	andcs	r4, r8, #51200	; 0xc800
     b58:	135131dc 	cmpne	r1, #220, 2	; 0x37
     b5c:	be30504e 	cdplt	0, 3, cr5, cr0, cr14, {2}
     b60:	4d135031 	ldcmi	0, cr5, [r3, #-196]	; 0xffffff3c
     b64:	4cc0304f 	stclmi	0, cr3, [r0], {79}	; 0x4f
     b68:	21086950 	tstcs	r8, r0, asr r9
     b6c:	67676767 	strbvs	r6, [r7, -r7, ror #14]!
     b70:	4b326767 	blmi	c9a914 <__bss_end__+0xc8fbfc>
     b74:	4ca42108 	stfmis	f2, [r4], #32
     b78:	69842f50 	stmibvs	r4, {r4, r6, r8, r9, sl, fp, sp}
     b7c:	03827503 	orreq	r7, r2, #12582912	; 0xc00000
     b80:	304d2e0c 	subcc	r2, sp, ip, lsl #28
     b84:	4d4c4b4e 	vstrmi	d20, [ip, #-312]	; 0xfffffec8
     b88:	08696b6a 	stmdaeq	r9!, {r1, r3, r5, r6, r8, r9, fp, sp, lr}^
     b8c:	67676721 	strbvs	r6, [r7, -r1, lsr #14]!
     b90:	32676767 	rsbcc	r6, r7, #27000832	; 0x19c0000
     b94:	c022084b 	eorgt	r0, r2, fp, asr #16
     b98:	4e135130 	mrcmi	1, 0, r5, cr3, cr0, {1}
     b9c:	18033050 	stmdane	r3, {r4, r6, ip, sp}
     ba0:	4c9f31ba 	ldfmis	f3, [pc], {186}	; 0xba
     ba4:	4e4d522f 	cdpmi	2, 4, cr5, cr13, cr15, {1}
     ba8:	4b674b2f 	blmi	19d386c <__bss_end__+0x19c8b54>
     bac:	4c676768 	stclmi	7, cr6, [r7], #-416	; 0xfffffe60
     bb0:	4b2f672f 	blmi	bda874 <__bss_end__+0xbcfb5c>
     bb4:	2f4e4c6e 	svccs	0x004e4c6e
     bb8:	684b674b 	stmdavs	fp, {r0, r1, r3, r6, r8, r9, sl, sp, lr}^
     bbc:	2f4c6767 	svccs	0x004c6767
     bc0:	6d4b2f67 	stclvs	15, cr2, [fp, #-412]	; 0xfffffe64
     bc4:	4b2f4e4b 	blmi	bd44f8 <__bss_end__+0xbc97e0>
     bc8:	04020067 	streq	r0, [r2], #-103	; 0x67
     bcc:	06660601 	strbteq	r0, [r6], -r1, lsl #12
     bd0:	002f9f68 	eoreq	r9, pc, r8, ror #30
     bd4:	06010402 	streq	r0, [r1], -r2, lsl #8
     bd8:	2f68064a 	svccs	0x0068064a
     bdc:	034a7303 	movteq	r7, #41731	; 0xa303
     be0:	4c4d2e0e 	mcrrmi	14, 0, r2, sp, cr14
     be4:	bc4b2f4e 	mcrrlt	15, 4, r2, fp, cr14
     be8:	000602bc 			; <UNDEFINED> instruction: 0x000602bc
     bec:	03490101 	movteq	r0, #37121	; 0x9101
     bf0:	00020000 	andeq	r0, r2, r0
     bf4:	000001bd 			; <UNDEFINED> instruction: 0x000001bd
     bf8:	0efb0102 	cdpeq	1, 15, cr0, cr11, cr2, {0}
     bfc:	0101000d 	tsteq	r1, sp
     c00:	00000101 	andeq	r0, r0, r1, lsl #2
     c04:	00000100 	andeq	r0, r0, r0, lsl #2
     c08:	2d796d01 	ldclcs	13, cr6, [r9, #-4]!
     c0c:	00637273 	rsbeq	r7, r3, r3, ror r2
     c10:	6573552f 	ldrbvs	r5, [r3, #-1327]!	; 0x52f
     c14:	622f7372 	eorvs	r7, pc, #-939524095	; 0xc8000001
     c18:	6e616972 	mcrvs	9, 3, r6, cr1, cr2, {3}
     c1c:	2f6e756a 	svccs	0x006e756a
     c20:	6b736544 	blvs	1cda138 <__bss_end__+0x1ccf420>
     c24:	2f706f74 	svccs	0x00706f74
     c28:	6f686373 	svcvs	0x00686373
     c2c:	572f6c6f 	strpl	r6, [pc, -pc, ror #24]!
     c30:	65746e69 	ldrbvs	r6, [r4, #-3689]!	; 0xe69
     c34:	32393172 	eorscc	r3, r9, #-2147483620	; 0x8000001c
     c38:	53432f30 	movtpl	r2, #16176	; 0x3f30
     c3c:	45303431 	ldrmi	r3, [r0, #-1073]!	; 0x431
     c40:	3173632f 	cmncc	r3, pc, lsr #6
     c44:	2d653034 	stclcs	0, cr3, [r5, #-208]!	; 0xffffff30
     c48:	69773032 	ldmdbvs	r7!, {r1, r4, r5, ip, sp}^
     c4c:	696c2f6e 	stmdbvs	ip!, {r1, r2, r3, r5, r6, r8, r9, sl, fp, sp}^
     c50:	2f697062 	svccs	0x00697062
     c54:	34317363 	ldrtcc	r7, [r1], #-867	; 0x363
     c58:	732d6530 	teqvc	sp, #48, 10	; 0xc000000
     c5c:	2f006372 	svccs	0x00006372
     c60:	2f727375 	svccs	0x00727375
     c64:	61636f6c 	cmnvs	r3, ip, ror #30
     c68:	65432f6c 	strbvs	r2, [r3, #-3948]	; 0xf6c
     c6c:	72616c6c 	rsbvc	r6, r1, #108, 24	; 0x6c00
     c70:	6d72612f 	ldfvse	f6, [r2, #-188]!	; 0xffffff44
     c74:	6e6f6e2d 	cdpvs	14, 6, cr6, cr15, cr13, {1}
     c78:	61652d65 	cmnvs	r5, r5, ror #26
     c7c:	342f6962 	strtcc	r6, [pc], #-2402	; c84 <_start-0x737c>
     c80:	332e382e 	teqcc	lr, #3014656	; 0x2e0000
     c84:	3173632d 	cmncc	r3, sp, lsr #6
     c88:	2f653037 	svccs	0x00653037
     c8c:	2f62696c 	svccs	0x0062696c
     c90:	2f636367 	svccs	0x00636367
     c94:	2d6d7261 	sfmcs	f7, 2, [sp, #-388]!	; 0xfffffe7c
     c98:	656e6f6e 	strbvs	r6, [lr, #-3950]!	; 0xf6e
     c9c:	6261652d 	rsbvs	r6, r1, #188743680	; 0xb400000
     ca0:	2e342f69 	cdpcs	15, 3, cr2, cr4, cr9, {3}
     ca4:	2f332e38 	svccs	0x00332e38
     ca8:	6c636e69 	stclvs	14, cr6, [r3], #-420	; 0xfffffe5c
     cac:	00656475 	rsbeq	r6, r5, r5, ror r4
     cb0:	6573552f 	ldrbvs	r5, [r3, #-1327]!	; 0x52f
     cb4:	622f7372 	eorvs	r7, pc, #-939524095	; 0xc8000001
     cb8:	6e616972 	mcrvs	9, 3, r6, cr1, cr2, {3}
     cbc:	2f6e756a 	svccs	0x006e756a
     cc0:	6b736544 	blvs	1cda1d8 <__bss_end__+0x1ccf4c0>
     cc4:	2f706f74 	svccs	0x00706f74
     cc8:	6f686373 	svcvs	0x00686373
     ccc:	572f6c6f 	strpl	r6, [pc, -pc, ror #24]!
     cd0:	65746e69 	ldrbvs	r6, [r4, #-3689]!	; 0xe69
     cd4:	32393172 	eorscc	r3, r9, #-2147483620	; 0x8000001c
     cd8:	53432f30 	movtpl	r2, #16176	; 0x3f30
     cdc:	45303431 	ldrmi	r3, [r0, #-1073]!	; 0x431
     ce0:	3173632f 	cmncc	r3, pc, lsr #6
     ce4:	2d653034 	stclcs	0, cr3, [r5, #-208]!	; 0xffffff30
     ce8:	69773032 	ldmdbvs	r7!, {r1, r4, r5, ip, sp}^
     cec:	696c2f6e 	stmdbvs	ip!, {r1, r2, r3, r5, r6, r8, r9, sl, fp, sp}^
     cf0:	00697062 	rsbeq	r7, r9, r2, rrx
     cf4:	6573552f 	ldrbvs	r5, [r3, #-1327]!	; 0x52f
     cf8:	622f7372 	eorvs	r7, pc, #-939524095	; 0xc8000001
     cfc:	6e616972 	mcrvs	9, 3, r6, cr1, cr2, {3}
     d00:	2f6e756a 	svccs	0x006e756a
     d04:	6b736544 	blvs	1cda21c <__bss_end__+0x1ccf504>
     d08:	2f706f74 	svccs	0x00706f74
     d0c:	6f686373 	svcvs	0x00686373
     d10:	572f6c6f 	strpl	r6, [pc, -pc, ror #24]!
     d14:	65746e69 	ldrbvs	r6, [r4, #-3689]!	; 0xe69
     d18:	32393172 	eorscc	r3, r9, #-2147483620	; 0x8000001c
     d1c:	53432f30 	movtpl	r2, #16176	; 0x3f30
     d20:	45303431 	ldrmi	r3, [r0, #-1073]!	; 0x431
     d24:	3173632f 	cmncc	r3, pc, lsr #6
     d28:	2d653034 	stclcs	0, cr3, [r5, #-208]!	; 0xffffff30
     d2c:	69773032 	ldmdbvs	r7!, {r1, r4, r5, ip, sp}^
     d30:	696c2f6e 	stmdbvs	ip!, {r1, r2, r3, r5, r6, r8, r9, sl, fp, sp}^
     d34:	2f697062 	svccs	0x00697062
     d38:	6362696c 	cmnvs	r2, #108, 18	; 0x1b0000
     d3c:	77730000 	ldrbvc	r0, [r3, -r0]!
     d40:	7261752d 	rsbvc	r7, r1, #188743680	; 0xb400000
     d44:	00632e74 	rsbeq	r2, r3, r4, ror lr
     d48:	63000001 	movwvs	r0, #1
     d4c:	656c6379 	strbvs	r6, [ip, #-889]!	; 0x379
     d50:	6974752d 	ldmdbvs	r4!, {r0, r2, r3, r5, r8, sl, ip, sp, lr}^
     d54:	00682e6c 	rsbeq	r2, r8, ip, ror #28
     d58:	73000002 	movwvc	r0, #2
     d5c:	6e696474 	mcrvs	4, 3, r6, cr9, cr4, {3}
     d60:	63672d74 	cmnvs	r7, #116, 26	; 0x1d00
     d64:	00682e63 	rsbeq	r2, r8, r3, ror #28
     d68:	73000003 	movwvc	r0, #3
     d6c:	61752d77 	cmnvs	r5, r7, ror sp
     d70:	682e7472 	stmdavs	lr!, {r1, r4, r5, r6, sl, ip, sp, lr}
     d74:	00000200 	andeq	r0, r0, r0, lsl #4
     d78:	61647473 	smcvs	18243	; 0x4743
     d7c:	682e6772 	stmdavs	lr!, {r1, r4, r5, r6, r8, r9, sl, sp, lr}
     d80:	00000300 	andeq	r0, r0, r0, lsl #6
     d84:	6f697067 	svcvs	0x00697067
     d88:	0200682e 	andeq	r6, r0, #3014656	; 0x2e0000
     d8c:	70720000 	rsbsvc	r0, r2, r0
     d90:	00682e69 	rsbeq	r2, r8, r9, ror #28
     d94:	76000004 	strvc	r0, [r0], -r4
     d98:	72702d61 	rsbsvc	r2, r0, #6208	; 0x1840
     d9c:	6b746e69 	blvs	1d1c748 <__bss_end__+0x1d11a30>
     da0:	0500682e 	streq	r6, [r0, #-2094]	; 0x82e
     da4:	623c0000 	eorsvs	r0, ip, #0
     da8:	746c6975 	strbtvc	r6, [ip], #-2421	; 0x975
     dac:	3e6e692d 	cdpcc	9, 6, cr6, cr14, cr13, {1}
     db0:	00000000 	andeq	r0, r0, r0
     db4:	02050000 	andeq	r0, r5, #0
     db8:	000098b0 			; <UNDEFINED> instruction: 0x000098b0
     dbc:	302f4c1a 	eorcc	r4, pc, sl, lsl ip	; <UNPREDICTABLE>
     dc0:	0b030204 	bleq	c15d8 <__bss_end__+0xb68c0>
     dc4:	6673032e 	ldrbtvs	r0, [r3], -lr, lsr #6
     dc8:	04880104 	streq	r0, [r8], #260	; 0x104
     dcc:	73033502 	movwvc	r3, #13570	; 0x3502
     dd0:	8a010466 	bhi	41f70 <__bss_end__+0x37258>
     dd4:	03330204 	teqeq	r3, #4, 4	; 0x40000000
     dd8:	01046673 	tsteq	r4, r3, ror r6
     ddc:	04820a03 	streq	r0, [r2], #2563	; 0xa03
     de0:	73033102 	movwvc	r3, #12546	; 0x3102
     de4:	03010466 	movweq	r0, #5222	; 0x1466
     de8:	0204820c 	andeq	r8, r4, #12, 4	; 0xc0000000
     dec:	6673032f 	ldrbtvs	r0, [r3], -pc, lsr #6
     df0:	0e030104 	adfeqs	f0, f3, f4
     df4:	2d020482 	cfstrscs	mvf0, [r2, #-520]	; 0xfffffdf8
     df8:	04667303 	strbteq	r7, [r6], #-771	; 0x303
     dfc:	82100301 	andshi	r0, r0, #67108864	; 0x4000000
     e00:	032b0204 	teqeq	fp, #4, 4	; 0x40000000
     e04:	01046673 	tsteq	r4, r3, ror r6
     e08:	04821203 	streq	r1, [r2], #515	; 0x203
     e0c:	73032902 	movwvc	r2, #14594	; 0x3902
     e10:	03010466 	movweq	r0, #5222	; 0x1466
     e14:	02048214 	andeq	r8, r4, #20, 4	; 0x40000001
     e18:	032e7903 	teqeq	lr, #49152	; 0xc000
     e1c:	01046673 	tsteq	r4, r3, ror r6
     e20:	04821603 	streq	r1, [r2], #1539	; 0x603
     e24:	2e770302 	cdpcs	3, 7, cr0, cr7, cr2, {0}
     e28:	04667303 	strbteq	r7, [r6], #-771	; 0x303
     e2c:	82180301 	andshi	r0, r8, #67108864	; 0x4000000
     e30:	4b2e1003 	blmi	b84e44 <__bss_end__+0xb7a12c>
     e34:	2e70034d 	cdpcs	3, 7, cr0, cr0, cr13, {2}
     e38:	4883844c 	stmmi	r3, {r2, r3, r6, sl, pc}
     e3c:	4e2e0d03 	cdpmi	13, 2, cr0, cr14, cr3, {0}
     e40:	02043331 	andeq	r3, r4, #-1006632960	; 0xc4000000
     e44:	042e4803 	strteq	r4, [lr], #-2051	; 0x803
     e48:	823a0301 	eorshi	r0, sl, #67108864	; 0x4000000
     e4c:	0302042f 	movweq	r0, #9263	; 0x242f
     e50:	01046645 	tsteq	r4, r5, asr #12
     e54:	2f823d03 	svccs	0x00823d03
     e58:	42030204 	andmi	r0, r3, #4, 4	; 0x40000000
     e5c:	03010482 	movweq	r0, #5250	; 0x1482
     e60:	2f8200c0 	svccs	0x008200c0
     e64:	bf030204 	svclt	0x00030204
     e68:	0104827f 	tsteq	r4, pc, ror r2
     e6c:	8200c303 	andhi	ip, r0, #201326592	; 0xc000000
     e70:	0302042f 	movweq	r0, #9263	; 0x242f
     e74:	04827fbc 	streq	r7, [r2], #4028	; 0xfbc
     e78:	00c60301 	sbceq	r0, r6, r1, lsl #6
     e7c:	02042f82 	andeq	r2, r4, #520	; 0x208
     e80:	827fb903 	rsbshi	fp, pc, #49152	; 0xc000
     e84:	c9030104 	stmdbgt	r3, {r2, r8}
     e88:	042f8200 	strteq	r8, [pc], #-512	; e90 <_start-0x7170>
     e8c:	7fb60302 	svcvc	0x00b60302
     e90:	03010482 	movweq	r0, #5250	; 0x1482
     e94:	2f8200cc 	svccs	0x008200cc
     e98:	b3030204 	movwlt	r0, #12804	; 0x3204
     e9c:	0104827f 	tsteq	r4, pc, ror r2
     ea0:	8200d003 	andhi	sp, r0, #3
     ea4:	4c824c03 	stcmi	12, cr4, [r2], {3}
     ea8:	03488384 	movteq	r8, #33668	; 0x8384
     eac:	034e2e36 	movteq	r2, #60982	; 0xee36
     eb0:	29034a54 	stmdbcs	r3, {r2, r4, r6, r9, fp, lr}
     eb4:	bb34324a 	bllt	d0d7e4 <__bss_end__+0xd02acc>
     eb8:	01040200 	mrseq	r0, R12_usr
     ebc:	08064a06 	stmdaeq	r6, {r1, r2, r9, fp, lr}
     ec0:	bb4b4e21 	bllt	12d474c <__bss_end__+0x12c9a34>
     ec4:	0402002c 	streq	r0, [r2], #-44	; 0x2c
     ec8:	062e0601 	strteq	r0, [lr], -r1, lsl #12
     ecc:	a0dc4c6d 	sbcsge	r4, ip, sp, ror #24
     ed0:	01040200 	mrseq	r0, R12_usr
     ed4:	08064a06 	stmdaeq	r6, {r1, r2, r9, fp, lr}
     ed8:	02004d21 	andeq	r4, r0, #2112	; 0x840
     edc:	004b0204 	subeq	r0, fp, r4, lsl #4
     ee0:	81020402 	tsthi	r2, r2, lsl #8
     ee4:	01040200 	mrseq	r0, R12_usr
     ee8:	4d062e06 	stcmi	14, cr2, [r6, #-24]	; 0xffffffe8
     eec:	4bd8dd4c 	blmi	ff638424 <__bss_end__+0xff62d70c>
     ef0:	2f6a4b4b 	svccs	0x006a4b4b
     ef4:	01040200 	mrseq	r0, R12_usr
     ef8:	00828206 	addeq	r8, r2, r6, lsl #4
     efc:	9e040402 	cdpls	4, 0, cr0, cr4, cr2, {0}
     f00:	01040200 	mrseq	r0, R12_usr
     f04:	2308064a 	movwcs	r0, #34378	; 0x864a
     f08:	4b2ff588 	blmi	bfe530 <__bss_end__+0xbf3818>
     f0c:	6740084b 	strbvs	r0, [r0, -fp, asr #16]
     f10:	02040200 	andeq	r0, r4, #0, 4
     f14:	0402002f 	streq	r0, [r2], #-47	; 0x2f
     f18:	02004902 	andeq	r4, r0, #32768	; 0x8000
     f1c:	2e060104 	adfcss	f0, f6, f4
     f20:	86346806 	ldrthi	r6, [r4], -r6, lsl #16
     f24:	0200a04b 	andeq	sl, r0, #75	; 0x4b
     f28:	66060104 	strvs	r0, [r6], -r4, lsl #2
     f2c:	68210806 	stmdavs	r1!, {r1, r2, fp}
     f30:	674b3e08 	strbvs	r3, [fp, -r8, lsl #28]
     f34:	0a02d84b 	beq	b7068 <__bss_end__+0xac350>
     f38:	01010100 	mrseq	r0, (UNDEF: 17)
     f3c:	02000001 	andeq	r0, r0, #1
     f40:	0000ca00 	andeq	ip, r0, r0, lsl #20
     f44:	fb010200 	blx	4174e <__bss_end__+0x36a36>
     f48:	01000d0e 	tsteq	r0, lr, lsl #26
     f4c:	00010101 	andeq	r0, r1, r1, lsl #2
     f50:	00010000 	andeq	r0, r1, r0
     f54:	796d0100 	stmdbvc	sp!, {r8}^
     f58:	6372732d 	cmnvs	r2, #-1275068416	; 0xb4000000
     f5c:	73552f00 	cmpvc	r5, #0, 30
     f60:	2f737265 	svccs	0x00737265
     f64:	61697262 	cmnvs	r9, r2, ror #4
     f68:	6e756a6e 	vsubvs.f32	s13, s10, s29
     f6c:	7365442f 	cmnvc	r5, #788529152	; 0x2f000000
     f70:	706f746b 	rsbvc	r7, pc, fp, ror #8
     f74:	6863732f 	stmdavs	r3!, {r0, r1, r2, r3, r5, r8, r9, ip, sp, lr}^
     f78:	2f6c6f6f 	svccs	0x006c6f6f
     f7c:	746e6957 	strbtvc	r6, [lr], #-2391	; 0x957
     f80:	39317265 	ldmdbcc	r1!, {r0, r2, r5, r6, r9, ip, sp, lr}
     f84:	432f3032 	teqmi	pc, #50	; 0x32
     f88:	30343153 	eorscc	r3, r4, r3, asr r1
     f8c:	73632f45 	cmnvc	r3, #276	; 0x114
     f90:	65303431 	ldrvs	r3, [r0, #-1073]!	; 0x431
     f94:	7730322d 	ldrvc	r3, [r0, -sp, lsr #4]!
     f98:	6c2f6e69 	stcvs	14, cr6, [pc], #-420	; dfc <_start-0x7204>
     f9c:	69706269 	ldmdbvs	r0!, {r0, r3, r5, r6, r9, sp, lr}^
     fa0:	3173632f 	cmncc	r3, pc, lsr #6
     fa4:	2d653034 	stclcs	0, cr3, [r5, #-208]!	; 0xffffff30
     fa8:	00637273 	rsbeq	r7, r3, r3, ror r2
     fac:	6573552f 	ldrbvs	r5, [r3, #-1327]!	; 0x52f
     fb0:	622f7372 	eorvs	r7, pc, #-939524095	; 0xc8000001
     fb4:	6e616972 	mcrvs	9, 3, r6, cr1, cr2, {3}
     fb8:	2f6e756a 	svccs	0x006e756a
     fbc:	6b736544 	blvs	1cda4d4 <__bss_end__+0x1ccf7bc>
     fc0:	2f706f74 	svccs	0x00706f74
     fc4:	6f686373 	svcvs	0x00686373
     fc8:	572f6c6f 	strpl	r6, [pc, -pc, ror #24]!
     fcc:	65746e69 	ldrbvs	r6, [r4, #-3689]!	; 0xe69
     fd0:	32393172 	eorscc	r3, r9, #-2147483620	; 0x8000001c
     fd4:	53432f30 	movtpl	r2, #16176	; 0x3f30
     fd8:	45303431 	ldrmi	r3, [r0, #-1073]!	; 0x431
     fdc:	3173632f 	cmncc	r3, pc, lsr #6
     fe0:	2d653034 	stclcs	0, cr3, [r5, #-208]!	; 0xffffff30
     fe4:	69773032 	ldmdbvs	r7!, {r1, r4, r5, ip, sp}^
     fe8:	696c2f6e 	stmdbvs	ip!, {r1, r2, r3, r5, r6, r8, r9, sl, fp, sp}^
     fec:	00697062 	rsbeq	r7, r9, r2, rrx
     ff0:	72617500 	rsbvc	r7, r1, #0, 10
     ff4:	00632e74 	rsbeq	r2, r3, r4, ror lr
     ff8:	67000001 	strvs	r0, [r0, -r1]
     ffc:	2e6f6970 	mcrcs	9, 3, r6, cr15, cr0, {3}
    1000:	00020068 	andeq	r0, r2, r8, rrx
    1004:	69707200 	ldmdbvs	r0!, {r9, ip, sp, lr}^
    1008:	0300682e 	movweq	r6, #2094	; 0x82e
    100c:	00000000 	andeq	r0, r0, r0
    1010:	9f180205 	svcls	0x00180205
    1014:	36030000 	strcc	r0, [r3], -r0
    1018:	67333001 	ldrvs	r3, [r3, -r1]!
    101c:	30d8306d 	sbcscc	r3, r8, sp, rrx
    1020:	67676767 	strbvs	r6, [r7, -r7, ror #14]!
    1024:	2f866867 	svccs	0x00866867
    1028:	67306a67 	ldrvs	r6, [r0, -r7, ror #20]!
    102c:	672f6967 	strvs	r6, [pc, -r7, ror #18]!
    1030:	c1674c6a 	cmngt	r7, sl, ror #24
    1034:	2f302f2f 	svccs	0x00302f2f
    1038:	02304968 	eorseq	r4, r0, #104, 18	; 0x1a0000
    103c:	01010002 	tsteq	r1, r2
    1040:	000000c9 	andeq	r0, r0, r9, asr #1
    1044:	00970002 	addseq	r0, r7, r2
    1048:	01020000 	mrseq	r0, (UNDEF: 2)
    104c:	000d0efb 	strdeq	r0, [sp], -fp
    1050:	01010101 	tsteq	r1, r1, lsl #2
    1054:	01000000 	mrseq	r0, (UNDEF: 0)
    1058:	63010000 	movwvs	r0, #4096	; 0x1000
    105c:	30343173 	eorscc	r3, r4, r3, ror r1
    1060:	6e692d65 	cdpvs	13, 6, cr2, cr9, cr5, {3}
    1064:	72726574 	rsbsvc	r6, r2, #116, 10	; 0x1d000000
    1068:	00747075 	rsbseq	r7, r4, r5, ror r0
    106c:	6573552f 	ldrbvs	r5, [r3, #-1327]!	; 0x52f
    1070:	622f7372 	eorvs	r7, pc, #-939524095	; 0xc8000001
    1074:	6e616972 	mcrvs	9, 3, r6, cr1, cr2, {3}
    1078:	2f6e756a 	svccs	0x006e756a
    107c:	6b736544 	blvs	1cda594 <__bss_end__+0x1ccf87c>
    1080:	2f706f74 	svccs	0x00706f74
    1084:	6f686373 	svcvs	0x00686373
    1088:	572f6c6f 	strpl	r6, [pc, -pc, ror #24]!
    108c:	65746e69 	ldrbvs	r6, [r4, #-3689]!	; 0xe69
    1090:	32393172 	eorscc	r3, r9, #-2147483620	; 0x8000001c
    1094:	53432f30 	movtpl	r2, #16176	; 0x3f30
    1098:	45303431 	ldrmi	r3, [r0, #-1073]!	; 0x431
    109c:	3173632f 	cmncc	r3, pc, lsr #6
    10a0:	2d653034 	stclcs	0, cr3, [r5, #-208]!	; 0xffffff30
    10a4:	69773032 	ldmdbvs	r7!, {r1, r4, r5, ip, sp}^
    10a8:	696c2f6e 	stmdbvs	ip!, {r1, r2, r3, r5, r6, r8, r9, sl, fp, sp}^
    10ac:	00697062 	rsbeq	r7, r9, r2, rrx
    10b0:	746e6900 	strbtvc	r6, [lr], #-2304	; 0x900
    10b4:	75727265 	ldrbvc	r7, [r2, #-613]!	; 0x265
    10b8:	2d737470 	cfldrdcs	mvd7, [r3, #-448]!	; 0xfffffe40
    10bc:	00632e63 	rsbeq	r2, r3, r3, ror #28
    10c0:	72000001 	andvc	r0, r0, #1
    10c4:	682e6970 	stmdavs	lr!, {r4, r5, r6, r8, fp, sp, lr}
    10c8:	00000200 	andeq	r0, r0, r0, lsl #4
    10cc:	2d697072 	stclcs	0, cr7, [r9, #-456]!	; 0xfffffe38
    10d0:	65746e69 	ldrbvs	r6, [r4, #-3689]!	; 0xe69
    10d4:	70757272 	rsbsvc	r7, r5, r2, ror r2
    10d8:	682e7374 	stmdavs	lr!, {r2, r4, r5, r6, r8, r9, ip, sp, lr}
    10dc:	00000100 	andeq	r0, r0, r0, lsl #2
    10e0:	02050000 	andeq	r0, r5, #0
    10e4:	0000a06c 	andeq	sl, r0, ip, rrx
    10e8:	31011a03 	tstcc	r1, r3, lsl #20
    10ec:	09036767 	stmdbeq	r3, {r0, r1, r2, r5, r6, r8, r9, sl, sp, lr}
    10f0:	2d2f832e 	stccs	3, cr8, [pc, #-184]!	; 1040 <_start-0x6fc0>
    10f4:	02040200 	andeq	r0, r4, #0, 4
    10f8:	0402002f 	streq	r0, [r2], #-47	; 0x2f
    10fc:	02006502 	andeq	r6, r0, #8388608	; 0x800000
    1100:	2e060104 	adfcss	f0, f6, f4
    1104:	67a04c06 	strvs	r4, [r0, r6, lsl #24]!
    1108:	01001c02 	tsteq	r0, r2, lsl #24
    110c:	00012801 	andeq	r2, r1, r1, lsl #16
    1110:	0d000200 	sfmeq	f0, 4, [r0, #-0]
    1114:	02000001 	andeq	r0, r0, #1
    1118:	0d0efb01 	vstreq	d15, [lr, #-4]
    111c:	01010100 	mrseq	r0, (UNDEF: 17)
    1120:	00000001 	andeq	r0, r0, r1
    1124:	01000001 	tsteq	r0, r1
    1128:	34317363 	ldrtcc	r7, [r1], #-867	; 0x363
    112c:	732d6530 	teqvc	sp, #48, 10	; 0xc000000
    1130:	2f006372 	svccs	0x00006372
    1134:	2f727375 	svccs	0x00727375
    1138:	61636f6c 	cmnvs	r3, ip, ror #30
    113c:	65432f6c 	strbvs	r2, [r3, #-3948]	; 0xf6c
    1140:	72616c6c 	rsbvc	r6, r1, #108, 24	; 0x6c00
    1144:	6d72612f 	ldfvse	f6, [r2, #-188]!	; 0xffffff44
    1148:	6e6f6e2d 	cdpvs	14, 6, cr6, cr15, cr13, {1}
    114c:	61652d65 	cmnvs	r5, r5, ror #26
    1150:	342f6962 	strtcc	r6, [pc], #-2402	; 1158 <_start-0x6ea8>
    1154:	332e382e 	teqcc	lr, #3014656	; 0x2e0000
    1158:	3173632d 	cmncc	r3, sp, lsr #6
    115c:	2f653037 	svccs	0x00653037
    1160:	2f62696c 	svccs	0x0062696c
    1164:	2f636367 	svccs	0x00636367
    1168:	2d6d7261 	sfmcs	f7, 2, [sp, #-388]!	; 0xfffffe7c
    116c:	656e6f6e 	strbvs	r6, [lr, #-3950]!	; 0xf6e
    1170:	6261652d 	rsbvs	r6, r1, #188743680	; 0xb400000
    1174:	2e342f69 	cdpcs	15, 3, cr2, cr4, cr9, {3}
    1178:	2f332e38 	svccs	0x00332e38
    117c:	6c636e69 	stclvs	14, cr6, [r3], #-420	; 0xfffffe5c
    1180:	00656475 	rsbeq	r6, r5, r5, ror r4
    1184:	7273752f 	rsbsvc	r7, r3, #197132288	; 0xbc00000
    1188:	636f6c2f 	cmnvs	pc, #12032	; 0x2f00
    118c:	432f6c61 	teqmi	pc, #24832	; 0x6100
    1190:	616c6c65 	cmnvs	ip, r5, ror #24
    1194:	72612f72 	rsbvc	r2, r1, #456	; 0x1c8
    1198:	6f6e2d6d 	svcvs	0x006e2d6d
    119c:	652d656e 	strvs	r6, [sp, #-1390]!	; 0x56e
    11a0:	2f696261 	svccs	0x00696261
    11a4:	2e382e34 	mrccs	14, 1, r2, cr8, cr4, {1}
    11a8:	73632d33 	cmnvc	r3, #3264	; 0xcc0
    11ac:	65303731 	ldrvs	r3, [r0, #-1841]!	; 0x731
    11b0:	6d72612f 	ldfvse	f6, [r2, #-188]!	; 0xffffff44
    11b4:	6e6f6e2d 	cdpvs	14, 6, cr6, cr15, cr13, {1}
    11b8:	61652d65 	cmnvs	r5, r5, ror #26
    11bc:	692f6962 	stmdbvs	pc!, {r1, r5, r6, r8, fp, sp, lr}	; <UNPREDICTABLE>
    11c0:	756c636e 	strbvc	r6, [ip, #-878]!	; 0x36e
    11c4:	00006564 	andeq	r6, r0, r4, ror #10
    11c8:	746e6f63 	strbtvc	r6, [lr], #-3939	; 0xf63
    11cc:	2d6c6f72 	stclcs	15, cr6, [ip, #-456]!	; 0xfffffe38
    11d0:	636f6c62 	cmnvs	pc, #25088	; 0x6200
    11d4:	00632e6b 	rsbeq	r2, r3, fp, ror #28
    11d8:	73000001 	movwvc	r0, #1
    11dc:	65646474 	strbvs	r6, [r4, #-1140]!	; 0x474
    11e0:	00682e66 	rsbeq	r2, r8, r6, ror #28
    11e4:	73000002 	movwvc	r0, #2
    11e8:	6e696474 	mcrvs	4, 3, r6, cr9, cr4, {3}
    11ec:	63672d74 	cmnvs	r7, #116, 26	; 0x1d00
    11f0:	00682e63 	rsbeq	r2, r8, r3, ror #28
    11f4:	73000002 	movwvc	r0, #2
    11f8:	61752d77 	cmnvs	r5, r7, ror sp
    11fc:	682e7472 	stmdavs	lr!, {r1, r4, r5, r6, sl, ip, sp, lr}
    1200:	00000100 	andeq	r0, r0, r0, lsl #2
    1204:	746e6f63 	strbtvc	r6, [lr], #-3939	; 0xf63
    1208:	2d6c6f72 	stclcs	15, cr6, [ip, #-456]!	; 0xfffffe38
    120c:	636f6c62 	cmnvs	pc, #25088	; 0x6200
    1210:	00682e6b 	rsbeq	r2, r8, fp, ror #28
    1214:	73000001 	movwvc	r0, #1
    1218:	6e697274 	mcrvs	2, 3, r7, cr9, cr4, {3}
    121c:	00682e67 	rsbeq	r2, r8, r7, ror #28
    1220:	00000003 	andeq	r0, r0, r3
    1224:	68020500 	stmdavs	r2, {r8, sl}
    1228:	160000a2 	strne	r0, [r0], -r2, lsr #1
    122c:	4c688330 	stclmi	3, cr8, [r8], #-192	; 0xffffff40
    1230:	2f4b9f14 	svccs	0x004b9f14
    1234:	01000402 	tsteq	r0, r2, lsl #8
    1238:	0000a501 	andeq	sl, r0, r1, lsl #10
    123c:	91000200 	mrsls	r0, R8_usr
    1240:	02000000 	andeq	r0, r0, #0
    1244:	0d0efb01 	vstreq	d15, [lr, #-4]
    1248:	01010100 	mrseq	r0, (UNDEF: 17)
    124c:	00000001 	andeq	r0, r0, r1
    1250:	01000001 	tsteq	r0, r1
    1254:	34317363 	ldrtcc	r7, [r1], #-867	; 0x363
    1258:	692d6530 	pushvs	{r4, r5, r8, sl, sp, lr}
    125c:	7265746e 	rsbvc	r7, r5, #1845493760	; 0x6e000000
    1260:	74707572 	ldrbtvc	r7, [r0], #-1394	; 0x572
    1264:	73552f00 	cmpvc	r5, #0, 30
    1268:	2f737265 	svccs	0x00737265
    126c:	61697262 	cmnvs	r9, r2, ror #4
    1270:	6e756a6e 	vsubvs.f32	s13, s10, s29
    1274:	7365442f 	cmnvc	r5, #788529152	; 0x2f000000
    1278:	706f746b 	rsbvc	r7, pc, fp, ror #8
    127c:	6863732f 	stmdavs	r3!, {r0, r1, r2, r3, r5, r8, r9, ip, sp, lr}^
    1280:	2f6c6f6f 	svccs	0x006c6f6f
    1284:	746e6957 	strbtvc	r6, [lr], #-2391	; 0x957
    1288:	39317265 	ldmdbcc	r1!, {r0, r2, r5, r6, r9, ip, sp, lr}
    128c:	432f3032 	teqmi	pc, #50	; 0x32
    1290:	30343153 	eorscc	r3, r4, r3, asr r1
    1294:	73632f45 	cmnvc	r3, #276	; 0x114
    1298:	65303431 	ldrvs	r3, [r0, #-1073]!	; 0x431
    129c:	7730322d 	ldrvc	r3, [r0, -sp, lsr #4]!
    12a0:	6c2f6e69 	stcvs	14, cr6, [pc], #-420	; 1104 <_start-0x6efc>
    12a4:	69706269 	ldmdbvs	r0!, {r0, r3, r5, r6, r9, sp, lr}^
    12a8:	65640000 	strbvs	r0, [r4, #-0]!
    12ac:	6c756166 	ldfvse	f6, [r5], #-408	; 0xfffffe68
    12b0:	61682d74 	smcvs	33492	; 0x82d4
    12b4:	656c646e 	strbvs	r6, [ip, #-1134]!	; 0x46e
    12b8:	61642d72 	smcvs	17106	; 0x42d2
    12bc:	612d6174 	teqvs	sp, r4, ror r1
    12c0:	74726f62 	ldrbtvc	r6, [r2], #-3938	; 0xf62
    12c4:	0100632e 	tsteq	r0, lr, lsr #6
    12c8:	70720000 	rsbsvc	r0, r2, r0
    12cc:	00682e69 	rsbeq	r2, r8, r9, ror #28
    12d0:	00000002 	andeq	r0, r0, r2
    12d4:	b8020500 	stmdalt	r2, {r8, sl}
    12d8:	130000a2 	movwne	r0, #162	; 0xa2
    12dc:	001c0266 	andseq	r0, ip, r6, ror #4
    12e0:	00a30101 	adceq	r0, r3, r1, lsl #2
    12e4:	00020000 	andeq	r0, r2, r0
    12e8:	0000008f 	andeq	r0, r0, pc, lsl #1
    12ec:	0efb0102 	cdpeq	1, 15, cr0, cr11, cr2, {0}
    12f0:	0101000d 	tsteq	r1, sp
    12f4:	00000101 	andeq	r0, r0, r1, lsl #2
    12f8:	00000100 	andeq	r0, r0, r0, lsl #2
    12fc:	31736301 	cmncc	r3, r1, lsl #6
    1300:	2d653034 	stclcs	0, cr3, [r5, #-208]!	; 0xffffff30
    1304:	65746e69 	ldrbvs	r6, [r4, #-3689]!	; 0xe69
    1308:	70757272 	rsbsvc	r7, r5, r2, ror r2
    130c:	552f0074 	strpl	r0, [pc, #-116]!	; 12a0 <_start-0x6d60>
    1310:	73726573 	cmnvc	r2, #482344960	; 0x1cc00000
    1314:	6972622f 	ldmdbvs	r2!, {r0, r1, r2, r3, r5, r9, sp, lr}^
    1318:	756a6e61 	strbvc	r6, [sl, #-3681]!	; 0xe61
    131c:	65442f6e 	strbvs	r2, [r4, #-3950]	; 0xf6e
    1320:	6f746b73 	svcvs	0x00746b73
    1324:	63732f70 	cmnvs	r3, #112, 30	; 0x1c0
    1328:	6c6f6f68 	stclvs	15, cr6, [pc], #-416	; 1190 <_start-0x6e70>
    132c:	6e69572f 	cdpvs	7, 6, cr5, cr9, cr15, {1}
    1330:	31726574 	cmncc	r2, r4, ror r5
    1334:	2f303239 	svccs	0x00303239
    1338:	34315343 	ldrtcc	r5, [r1], #-835	; 0x343
    133c:	632f4530 	teqvs	pc, #48, 10	; 0xc000000
    1340:	30343173 	eorscc	r3, r4, r3, ror r1
    1344:	30322d65 	eorscc	r2, r2, r5, ror #26
    1348:	2f6e6977 	svccs	0x006e6977
    134c:	7062696c 	rsbvc	r6, r2, ip, ror #18
    1350:	64000069 	strvs	r0, [r0], #-105	; 0x69
    1354:	75616665 	strbvc	r6, [r1, #-1637]!	; 0x665
    1358:	682d746c 	stmdavs	sp!, {r2, r3, r5, r6, sl, ip, sp, lr}
    135c:	6c646e61 	stclvs	14, cr6, [r4], #-388	; 0xfffffe7c
    1360:	702d7265 	eorvc	r7, sp, r5, ror #4
    1364:	65666572 	strbvs	r6, [r6, #-1394]!	; 0x572
    1368:	2e686374 	mcrcs	3, 3, r6, cr8, cr4, {3}
    136c:	00010063 	andeq	r0, r1, r3, rrx
    1370:	69707200 	ldmdbvs	r0!, {r9, ip, sp, lr}^
    1374:	0200682e 	andeq	r6, r0, #3014656	; 0x2e0000
    1378:	00000000 	andeq	r0, r0, r0
    137c:	a2fc0205 	rscsge	r0, ip, #1342177280	; 0x50000000
    1380:	66130000 	ldrvs	r0, [r3], -r0
    1384:	01001c02 	tsteq	r0, r2, lsl #24
    1388:	0000a001 	andeq	sl, r0, r1
    138c:	8c000200 	sfmhi	f0, 4, [r0], {-0}
    1390:	02000000 	andeq	r0, r0, #0
    1394:	0d0efb01 	vstreq	d15, [lr, #-4]
    1398:	01010100 	mrseq	r0, (UNDEF: 17)
    139c:	00000001 	andeq	r0, r0, r1
    13a0:	01000001 	tsteq	r0, r1
    13a4:	34317363 	ldrtcc	r7, [r1], #-867	; 0x363
    13a8:	692d6530 	pushvs	{r4, r5, r8, sl, sp, lr}
    13ac:	7265746e 	rsbvc	r7, r5, #1845493760	; 0x6e000000
    13b0:	74707572 	ldrbtvc	r7, [r0], #-1394	; 0x572
    13b4:	73552f00 	cmpvc	r5, #0, 30
    13b8:	2f737265 	svccs	0x00737265
    13bc:	61697262 	cmnvs	r9, r2, ror #4
    13c0:	6e756a6e 	vsubvs.f32	s13, s10, s29
    13c4:	7365442f 	cmnvc	r5, #788529152	; 0x2f000000
    13c8:	706f746b 	rsbvc	r7, pc, fp, ror #8
    13cc:	6863732f 	stmdavs	r3!, {r0, r1, r2, r3, r5, r8, r9, ip, sp, lr}^
    13d0:	2f6c6f6f 	svccs	0x006c6f6f
    13d4:	746e6957 	strbtvc	r6, [lr], #-2391	; 0x957
    13d8:	39317265 	ldmdbcc	r1!, {r0, r2, r5, r6, r9, ip, sp, lr}
    13dc:	432f3032 	teqmi	pc, #50	; 0x32
    13e0:	30343153 	eorscc	r3, r4, r3, asr r1
    13e4:	73632f45 	cmnvc	r3, #276	; 0x114
    13e8:	65303431 	ldrvs	r3, [r0, #-1073]!	; 0x431
    13ec:	7730322d 	ldrvc	r3, [r0, -sp, lsr #4]!
    13f0:	6c2f6e69 	stcvs	14, cr6, [pc], #-420	; 1254 <_start-0x6dac>
    13f4:	69706269 	ldmdbvs	r0!, {r0, r3, r5, r6, r9, sp, lr}^
    13f8:	65640000 	strbvs	r0, [r4, #-0]!
    13fc:	6c756166 	ldfvse	f6, [r5], #-408	; 0xfffffe68
    1400:	61682d74 	smcvs	33492	; 0x82d4
    1404:	656c646e 	strbvs	r6, [ip, #-1134]!	; 0x46e
    1408:	65722d72 	ldrbvs	r2, [r2, #-3442]!	; 0xd72
    140c:	2e746573 	mrccs	5, 3, r6, cr4, cr3, {3}
    1410:	00010063 	andeq	r0, r1, r3, rrx
    1414:	69707200 	ldmdbvs	r0!, {r9, ip, sp, lr}^
    1418:	0200682e 	andeq	r6, r0, #3014656	; 0x2e0000
    141c:	00000000 	andeq	r0, r0, r0
    1420:	a3400205 	movtge	r0, #517	; 0x205
    1424:	66130000 	ldrvs	r0, [r3], -r0
    1428:	01001c02 	tsteq	r0, r2, lsl #24
    142c:	0000a901 	andeq	sl, r0, r1, lsl #18
    1430:	95000200 	strls	r0, [r0, #-512]	; 0x200
    1434:	02000000 	andeq	r0, r0, #0
    1438:	0d0efb01 	vstreq	d15, [lr, #-4]
    143c:	01010100 	mrseq	r0, (UNDEF: 17)
    1440:	00000001 	andeq	r0, r0, r1
    1444:	01000001 	tsteq	r0, r1
    1448:	34317363 	ldrtcc	r7, [r1], #-867	; 0x363
    144c:	692d6530 	pushvs	{r4, r5, r8, sl, sp, lr}
    1450:	7265746e 	rsbvc	r7, r5, #1845493760	; 0x6e000000
    1454:	74707572 	ldrbtvc	r7, [r0], #-1394	; 0x572
    1458:	73552f00 	cmpvc	r5, #0, 30
    145c:	2f737265 	svccs	0x00737265
    1460:	61697262 	cmnvs	r9, r2, ror #4
    1464:	6e756a6e 	vsubvs.f32	s13, s10, s29
    1468:	7365442f 	cmnvc	r5, #788529152	; 0x2f000000
    146c:	706f746b 	rsbvc	r7, pc, fp, ror #8
    1470:	6863732f 	stmdavs	r3!, {r0, r1, r2, r3, r5, r8, r9, ip, sp, lr}^
    1474:	2f6c6f6f 	svccs	0x006c6f6f
    1478:	746e6957 	strbtvc	r6, [lr], #-2391	; 0x957
    147c:	39317265 	ldmdbcc	r1!, {r0, r2, r5, r6, r9, ip, sp, lr}
    1480:	432f3032 	teqmi	pc, #50	; 0x32
    1484:	30343153 	eorscc	r3, r4, r3, asr r1
    1488:	73632f45 	cmnvc	r3, #276	; 0x114
    148c:	65303431 	ldrvs	r3, [r0, #-1073]!	; 0x431
    1490:	7730322d 	ldrvc	r3, [r0, -sp, lsr #4]!
    1494:	6c2f6e69 	stcvs	14, cr6, [pc], #-420	; 12f8 <_start-0x6d08>
    1498:	69706269 	ldmdbvs	r0!, {r0, r3, r5, r6, r9, sp, lr}^
    149c:	65640000 	strbvs	r0, [r4, #-0]!
    14a0:	6c756166 	ldfvse	f6, [r5], #-408	; 0xfffffe68
    14a4:	61682d74 	smcvs	33492	; 0x82d4
    14a8:	656c646e 	strbvs	r6, [ip, #-1134]!	; 0x46e
    14ac:	6e752d72 	mrcvs	13, 3, r2, cr5, cr2, {3}
    14b0:	69666564 	stmdbvs	r6!, {r2, r5, r6, r8, sl, sp, lr}^
    14b4:	2d64656e 	cfstr64cs	mvdx6, [r4, #-440]!	; 0xfffffe48
    14b8:	74736e69 	ldrbtvc	r6, [r3], #-3689	; 0xe69
    14bc:	0100632e 	tsteq	r0, lr, lsr #6
    14c0:	70720000 	rsbsvc	r0, r2, r0
    14c4:	00682e69 	rsbeq	r2, r8, r9, ror #28
    14c8:	00000002 	andeq	r0, r0, r2
    14cc:	84020500 	strhi	r0, [r2], #-1280	; 0x500
    14d0:	130000a3 	movwne	r0, #163	; 0xa3
    14d4:	001c0266 	andseq	r0, ip, r6, ror #4
    14d8:	00ec0101 	rsceq	r0, ip, r1, lsl #2
    14dc:	00020000 	andeq	r0, r2, r0
    14e0:	000000d0 	ldrdeq	r0, [r0], -r0	; <UNPREDICTABLE>
    14e4:	0efb0102 	cdpeq	1, 15, cr0, cr11, cr2, {0}
    14e8:	0101000d 	tsteq	r1, sp
    14ec:	00000101 	andeq	r0, r0, r1, lsl #2
    14f0:	00000100 	andeq	r0, r0, r0, lsl #2
    14f4:	62696c01 	rsbvs	r6, r9, #256	; 0x100
    14f8:	752f0063 	strvc	r0, [pc, #-99]!	; 149d <_start-0x6b63>
    14fc:	6c2f7273 	sfmvs	f7, 4, [pc], #-460	; 1338 <_start-0x6cc8>
    1500:	6c61636f 	stclvs	3, cr6, [r1], #-444	; 0xfffffe44
    1504:	6c65432f 	stclvs	3, cr4, [r5], #-188	; 0xffffff44
    1508:	2f72616c 	svccs	0x0072616c
    150c:	2d6d7261 	sfmcs	f7, 2, [sp, #-388]!	; 0xfffffe7c
    1510:	656e6f6e 	strbvs	r6, [lr, #-3950]!	; 0xf6e
    1514:	6261652d 	rsbvs	r6, r1, #188743680	; 0xb400000
    1518:	2e342f69 	cdpcs	15, 3, cr2, cr4, cr9, {3}
    151c:	2d332e38 	ldccs	14, cr2, [r3, #-224]!	; 0xffffff20
    1520:	37317363 	ldrcc	r7, [r1, -r3, ror #6]!
    1524:	6c2f6530 	cfstr32vs	mvfx6, [pc], #-192	; 146c <_start-0x6b94>
    1528:	672f6269 	strvs	r6, [pc, -r9, ror #4]!
    152c:	612f6363 	teqvs	pc, r3, ror #6
    1530:	6e2d6d72 	mcrvs	13, 1, r6, cr13, cr2, {3}
    1534:	2d656e6f 	stclcs	14, cr6, [r5, #-444]!	; 0xfffffe44
    1538:	69626165 	stmdbvs	r2!, {r0, r2, r5, r6, r8, sp, lr}^
    153c:	382e342f 	stmdacc	lr!, {r0, r1, r2, r3, r5, sl, ip, sp}
    1540:	692f332e 	stmdbvs	pc!, {r1, r2, r3, r5, r8, r9, ip, sp}	; <UNPREDICTABLE>
    1544:	756c636e 	strbvc	r6, [ip, #-878]!	; 0x36e
    1548:	2f006564 	svccs	0x00006564
    154c:	2f727375 	svccs	0x00727375
    1550:	61636f6c 	cmnvs	r3, ip, ror #30
    1554:	65432f6c 	strbvs	r2, [r3, #-3948]	; 0xf6c
    1558:	72616c6c 	rsbvc	r6, r1, #108, 24	; 0x6c00
    155c:	6d72612f 	ldfvse	f6, [r2, #-188]!	; 0xffffff44
    1560:	6e6f6e2d 	cdpvs	14, 6, cr6, cr15, cr13, {1}
    1564:	61652d65 	cmnvs	r5, r5, ror #26
    1568:	342f6962 	strtcc	r6, [pc], #-2402	; 1570 <_start-0x6a90>
    156c:	332e382e 	teqcc	lr, #3014656	; 0x2e0000
    1570:	3173632d 	cmncc	r3, sp, lsr #6
    1574:	2f653037 	svccs	0x00653037
    1578:	2d6d7261 	sfmcs	f7, 2, [sp, #-388]!	; 0xfffffe7c
    157c:	656e6f6e 	strbvs	r6, [lr, #-3950]!	; 0xf6e
    1580:	6261652d 	rsbvs	r6, r1, #188743680	; 0xb400000
    1584:	6e692f69 	cdpvs	15, 6, cr2, cr9, cr9, {3}
    1588:	64756c63 	ldrbtvs	r6, [r5], #-3171	; 0xc63
    158c:	6d000065 	stcvs	0, cr0, [r0, #-404]	; 0xfffffe6c
    1590:	65736d65 	ldrbvs	r6, [r3, #-3429]!	; 0xd65
    1594:	00632e74 	rsbeq	r2, r3, r4, ror lr
    1598:	73000001 	movwvc	r0, #1
    159c:	65646474 	strbvs	r6, [r4, #-1140]!	; 0x474
    15a0:	00682e66 	rsbeq	r2, r8, r6, ror #28
    15a4:	73000002 	movwvc	r0, #2
    15a8:	6e697274 	mcrvs	2, 3, r7, cr9, cr4, {3}
    15ac:	00682e67 	rsbeq	r2, r8, r7, ror #28
    15b0:	00000003 	andeq	r0, r0, r3
    15b4:	c8020500 	stmdagt	r2, {r8, sl}
    15b8:	140000a3 	strne	r0, [r0], #-163	; 0xa3
    15bc:	002f4c13 	eoreq	r4, pc, r3, lsl ip	; <UNPREDICTABLE>
    15c0:	49010402 	stmdbmi	r1, {r1, sl}
    15c4:	0002024d 	andeq	r0, r2, sp, asr #4
    15c8:	Address 0x00000000000015c8 is out of bounds.


Disassembly of section .debug_str:

00000000 <.debug_str>:
   0:	53465047 	movtpl	r5, #24647	; 0x6047
   4:	00324c45 	eorseq	r4, r2, r5, asr #24
   8:	4c435047 	mcrrmi	0, 4, r5, r3, cr7
   c:	66003052 			; <UNDEFINED> instruction: 0x66003052
  10:	5f747361 	svcpl	0x00747361
  14:	6f697067 	svcvs	0x00697067
  18:	6972775f 	ldmdbvs	r2!, {r0, r1, r2, r3, r4, r6, r8, r9, sl, ip, sp, lr}^
  1c:	61006574 	tstvs	r0, r4, ror r5
  20:	745f6d72 	ldrbvc	r6, [pc], #-3442	; 28 <_start-0x7fd8>
  24:	72656d69 	rsbvc	r6, r5, #6720	; 0x1a40
  28:	5741525f 	smlsldpl	r5, r1, pc, r2	; <UNPREDICTABLE>
  2c:	00515249 	subseq	r5, r1, r9, asr #4
  30:	74726175 	ldrbtvc	r6, [r2], #-373	; 0x175
  34:	696e695f 	stmdbvs	lr!, {r0, r1, r2, r3, r4, r6, r8, fp, sp, lr}^
  38:	6f6c0074 	svcvs	0x006c0074
  3c:	6c20676e 	stcvs	7, cr6, [r0], #-440	; 0xfffffe48
  40:	20676e6f 	rsbcs	r6, r7, pc, ror #28
  44:	69736e75 	ldmdbvs	r3!, {r0, r2, r4, r5, r6, r9, sl, fp, sp, lr}^
  48:	64656e67 	strbtvs	r6, [r5], #-3687	; 0xe67
  4c:	746e6920 	strbtvc	r6, [lr], #-2336	; 0x920
  50:	73616600 	cmnvc	r1, #0, 12
  54:	70675f74 	rsbvc	r5, r7, r4, ror pc
  58:	735f6f69 	cmpvc	pc, #420	; 0x1a4
  5c:	6f5f7465 	svcvs	0x005f7465
  60:	6f6c006e 	svcvs	0x006c006e
  64:	6c20676e 	stcvs	7, cr6, [r0], #-440	; 0xfffffe48
  68:	20676e6f 	rsbcs	r6, r7, pc, ror #28
  6c:	00746e69 	rsbseq	r6, r4, r9, ror #28
  70:	6576656e 	ldrbvs	r6, [r6, #-1390]!	; 0x56e
  74:	0073746e 	rsbseq	r7, r3, lr, ror #8
  78:	6379636e 	cmnvs	r9, #-1207959551	; 0xb8000001
  7c:	6100656c 	tstvs	r0, ip, ror #10
  80:	745f6d72 	ldrbvc	r6, [pc], #-3442	; 88 <_start-0x7f78>
  84:	72656d69 	rsbvc	r6, r5, #6720	; 0x1a40
  88:	6e6f435f 	mcrvs	3, 3, r4, cr15, cr15, {2}
  8c:	6c6f7274 	sfmvs	f7, 2, [pc], #-464	; fffffec4 <__bss_end__+0xffff51ac>
  90:	53504700 	cmppl	r0, #0, 14
  94:	00315445 	eorseq	r5, r1, r5, asr #8
  98:	5f6d7261 	svcpl	0x006d7261
  9c:	656d6974 	strbvs	r6, [sp, #-2420]!	; 0x974
  a0:	6f4c5f72 	svcvs	0x004c5f72
  a4:	61006461 	tstvs	r0, r1, ror #8
  a8:	745f6d72 	ldrbvc	r6, [pc], #-3442	; b0 <_start-0x7f50>
  ac:	72656d69 	rsbvc	r6, r5, #6720	; 0x1a40
  b0:	7361425f 	cmnvc	r1, #-268435451	; 0xf0000005
  b4:	50470065 	subpl	r0, r7, r5, rrx
  b8:	3056454c 	subscc	r4, r6, ip, asr #10
  bc:	4c504700 	mrrcmi	7, 0, r4, r0, cr0
  c0:	00315645 	eorseq	r5, r1, r5, asr #12
  c4:	74736574 	ldrbtvc	r6, [r3], #-1396	; 0x574
  c8:	6e65675f 	mcrvs	7, 3, r6, cr5, cr15, {2}
  cc:	746f6e00 	strbtvc	r6, [pc], #-3584	; d4 <_start-0x7f2c>
  d0:	6e69616d 	powvsez	f6, f1, #5.0
  d4:	73616600 	cmnvc	r1, #0, 12
  d8:	70675f74 	rsbvc	r5, r7, r4, ror pc
  dc:	735f6f69 	cmpvc	pc, #420	; 0x1a4
  e0:	6f5f7465 	svcvs	0x005f7465
  e4:	61006666 	tstvs	r0, r6, ror #12
  e8:	745f6d72 	ldrbvc	r6, [pc], #-3442	; f0 <_start-0x7f10>
  ec:	72656d69 	rsbvc	r6, r5, #6720	; 0x1a40
  f0:	73614d5f 	cmnvc	r1, #6080	; 0x17c0
  f4:	4964656b 	stmdbmi	r4!, {r0, r1, r3, r5, r6, r8, sl, sp, lr}^
  f8:	72005152 	andvc	r5, r0, #-2147483628	; 0x80000014
  fc:	725f6970 	subsvc	r6, pc, #112, 18	; 0x1c0000
 100:	74657365 	strbtvc	r7, [r5], #-869	; 0x365
 104:	7475705f 	ldrbtvc	r7, [r5], #-95	; 0x5f
 108:	50470063 	subpl	r0, r7, r3, rrx
 10c:	4c455346 	mcrrmi	3, 4, r5, r5, cr6
 110:	50470030 	subpl	r0, r7, r0, lsr r0
 114:	4c455346 	mcrrmi	3, 4, r5, r5, cr6
 118:	50470031 	subpl	r0, r7, r1, lsr r0
 11c:	4c455346 	mcrrmi	3, 4, r5, r5, cr6
 120:	50470033 	subpl	r0, r7, r3, lsr r0
 124:	4c455346 	mcrrmi	3, 4, r5, r5, cr6
 128:	50470034 	subpl	r0, r7, r4, lsr r0
 12c:	4c455346 	mcrrmi	3, 4, r5, r5, cr6
 130:	75630035 	strbvc	r0, [r3, #-53]!	; 0x35
 134:	765f7272 			; <UNDEFINED> instruction: 0x765f7272
 138:	65756c61 	ldrbvs	r6, [r5, #-3169]!	; 0xc61
 13c:	69706700 	ldmdbvs	r0!, {r8, r9, sl, sp, lr}^
 140:	76655f6f 	strbtvc	r5, [r5], -pc, ror #30
 144:	5f746e65 	svcpl	0x00746e65
 148:	61656c63 	cmnvs	r5, r3, ror #24
 14c:	5f5f0072 	svcpl	0x005f0072
 150:	434e5546 	movtmi	r5, #58694	; 0xe546
 154:	4e4f4954 	mcrmi	9, 2, r4, cr15, cr4, {2}
 158:	73005f5f 	movwvc	r5, #3935	; 0xf5f
 15c:	74726f68 	ldrbtvc	r6, [r2], #-3944	; 0xf68
 160:	736e7520 	cmnvc	lr, #32, 10	; 0x8000000
 164:	656e6769 	strbvs	r6, [lr, #-1897]!	; 0x769
 168:	6e692064 	cdpvs	0, 6, cr2, cr9, cr4, {3}
 16c:	616c0074 	smcvs	49156	; 0xc004
 170:	67007473 	smlsdxvs	r0, r3, r4, r7
 174:	5f6f6970 	svcpl	0x006f6970
 178:	6c657366 	stclvs	3, cr7, [r5], #-408	; 0xfffffe68
 17c:	50470030 	subpl	r0, r7, r0, lsr r0
 180:	31524c43 	cmpcc	r2, r3, asr #24
 184:	656c6300 	strbvs	r6, [ip, #-768]!	; 0x300
 188:	725f6e61 	subsvc	r6, pc, #1552	; 0x610
 18c:	6f6f6265 	svcvs	0x006f6265
 190:	69730074 	ldmdbvs	r3!, {r2, r4, r5, r6}^
 194:	7974657a 	ldmdbvc	r4!, {r1, r3, r4, r5, r6, r8, sl, sp, lr}^
 198:	61006570 	tstvs	r0, r0, ror r5
 19c:	745f6d72 	ldrbvc	r6, [pc], #-3442	; 1a4 <_start-0x7e5c>
 1a0:	72656d69 	rsbvc	r6, r5, #6720	; 0x1a40
 1a4:	6c65525f 	sfmvs	f5, 2, [r5], #-380	; 0xfffffe84
 1a8:	0064616f 	rsbeq	r6, r4, pc, ror #2
 1ac:	6c637963 	stclvs	9, cr7, [r3], #-396	; 0xfffffe74
 1b0:	6f635f65 	svcvs	0x00635f65
 1b4:	65746e75 	ldrbvs	r6, [r4, #-3701]!	; 0xe75
 1b8:	6e690072 	mcrvs	0, 3, r0, cr9, cr2, {3}
 1bc:	6e695f74 	mcrvs	15, 3, r5, cr9, cr4, {3}
 1c0:	5f007469 	svcpl	0x00007469
 1c4:	0074756f 	rsbseq	r7, r4, pc, ror #10
 1c8:	74737973 	ldrbtvc	r7, [r3], #-2419	; 0x973
 1cc:	655f6d65 	ldrbvs	r6, [pc, #-3429]	; fffff46f <__bss_end__+0xffff4757>
 1d0:	6c62616e 	stfvse	f6, [r2], #-440	; 0xfffffe48
 1d4:	6e695f65 	cdpvs	15, 6, cr5, cr9, cr5, {3}
 1d8:	72726574 	rsbsvc	r6, r2, #116, 10	; 0x1d000000
 1dc:	73747075 	cmnvc	r4, #117	; 0x75
 1e0:	5f736900 	svcpl	0x00736900
 1e4:	74697277 	strbtvc	r7, [r9], #-631	; 0x277
 1e8:	00676e69 	rsbeq	r6, r7, r9, ror #28
 1ec:	6573552f 	ldrbvs	r5, [r3, #-1327]!	; 0x52f
 1f0:	622f7372 	eorvs	r7, pc, #-939524095	; 0xc8000001
 1f4:	6e616972 	mcrvs	9, 3, r6, cr1, cr2, {3}
 1f8:	2f6e756a 	svccs	0x006e756a
 1fc:	6b736544 	blvs	1cd9714 <__bss_end__+0x1cce9fc>
 200:	2f706f74 	svccs	0x00706f74
 204:	6f686373 	svcvs	0x00686373
 208:	532f6c6f 	teqpl	pc, #28416	; 0x6f00
 20c:	6e697270 	mcrvs	2, 3, r7, cr9, cr0, {3}
 210:	32393167 	eorscc	r3, r9, #-1073741799	; 0xc0000019
 214:	53432f30 	movtpl	r2, #16176	; 0x3f30
 218:	4c303432 	cfldrsmi	mvf3, [r0], #-200	; 0xffffff38
 21c:	73632f58 	cmnvc	r3, #88, 30	; 0x160
 220:	6c303432 	cfldrsvs	mvf3, [r0], #-200	; 0xffffff38
 224:	30322d78 	eorscc	r2, r2, r8, ror sp
 228:	2f727073 	svccs	0x00727073
 22c:	7362616c 	cmnvc	r2, #108, 2
 230:	692d342f 	pushvs	{r0, r1, r2, r3, r5, sl, ip, sp}
 234:	7265746e 	rsbvc	r7, r5, #1845493760	; 0x6e000000
 238:	74707572 	ldrbtvc	r7, [r0], #-1394	; 0x572
 23c:	2d77732d 	ldclcs	3, cr7, [r7, #-180]!	; 0xffffff4c
 240:	74726175 	ldrbtvc	r6, [r2], #-373	; 0x175
 244:	696c632f 	stmdbvs	ip!, {r0, r1, r2, r3, r5, r8, r9, sp, lr}^
 248:	00746e65 	rsbseq	r6, r4, r5, ror #28
 24c:	69736e75 	ldmdbvs	r3!, {r0, r2, r4, r5, r6, r9, sl, fp, sp, lr}^
 250:	64656e67 	strbtvs	r6, [r5], #-3687	; 0xe67
 254:	61686320 	cmnvs	r8, r0, lsr #6
 258:	63730072 	cmnvs	r3, #114	; 0x72
 25c:	0065706f 	rsbeq	r7, r5, pc, rrx
 260:	45535047 	ldrbmi	r5, [r3, #-71]	; 0x47
 264:	73003054 	movwvc	r3, #84	; 0x54
 268:	74726f68 	ldrbtvc	r6, [r2], #-3944	; 0xf68
 26c:	746e6920 	strbtvc	r6, [lr], #-2336	; 0x920
 270:	6c656400 	cfstrdvs	mvd6, [r5], #-0
 274:	6d5f7961 	ldclvs	9, cr7, [pc, #-388]	; f8 <_start-0x7f08>
 278:	79630073 	stmdbvc	r3!, {r0, r1, r4, r5, r6}^
 27c:	73656c63 	cmnvc	r5, #25344	; 0x6300
 280:	7265705f 	rsbvc	r7, r5, #95	; 0x5f
 284:	6365735f 	cmnvs	r5, #2080374785	; 0x7c000001
 288:	69706700 	ldmdbvs	r0!, {r8, r9, sl, sp, lr}^
 28c:	65735f6f 	ldrbvs	r5, [r3, #-3951]!	; 0xf6f
 290:	66003074 			; <UNDEFINED> instruction: 0x66003074
 294:	74737269 	ldrbtvc	r7, [r3], #-617	; 0x269
 298:	725f6e00 	subsvc	r6, pc, #0, 28
 29c:	6e697369 	cdpvs	3, 6, cr7, cr9, cr9, {3}
 2a0:	64655f67 	strbtvs	r5, [r5], #-3943	; 0xf67
 2a4:	47006567 	strmi	r6, [r0, -r7, ror #10]
 2a8:	4320554e 	teqmi	r0, #327155712	; 0x13800000
 2ac:	382e3420 	stmdacc	lr!, {r5, sl, ip, sp}
 2b0:	2d20332e 	stccs	3, cr3, [r0, #-184]!	; 0xffffff48
 2b4:	7570636d 	ldrbvc	r6, [r0, #-877]!	; 0x36d
 2b8:	6d72613d 	ldfvse	f6, [r2, #-244]!	; 0xffffff0c
 2bc:	36373131 			; <UNDEFINED> instruction: 0x36373131
 2c0:	2d667a6a 	vstmdbcs	r6!, {s15-s120}
 2c4:	6d2d2073 	stcvs	0, cr2, [sp, #-460]!	; 0xfffffe34
 2c8:	656e7574 	strbvs	r7, [lr, #-1396]!	; 0x574
 2cc:	6d72613d 	ldfvse	f6, [r2, #-244]!	; 0xffffff0c
 2d0:	36373131 			; <UNDEFINED> instruction: 0x36373131
 2d4:	2d667a6a 	vstmdbcs	r6!, {s15-s120}
 2d8:	672d2073 			; <UNDEFINED> instruction: 0x672d2073
 2dc:	20626467 	rsbcs	r6, r2, r7, ror #8
 2e0:	20674f2d 	rsbcs	r4, r7, sp, lsr #30
 2e4:	6474732d 	ldrbtvs	r7, [r4], #-813	; 0x32d
 2e8:	756e673d 	strbvc	r6, [lr, #-1853]!	; 0x73d
 2ec:	2d203939 	stccs	9, cr3, [r0, #-228]!	; 0xffffff1c
 2f0:	65726666 	ldrbvs	r6, [r2, #-1638]!	; 0x666
 2f4:	61747365 	cmnvs	r4, r5, ror #6
 2f8:	6e69646e 	cdpvs	4, 6, cr6, cr9, cr14, {3}
 2fc:	70670067 	rsbvc	r0, r7, r7, rrx
 300:	735f6f69 	cmpvc	pc, #420	; 0x1a4
 304:	695f7465 	ldmdbvs	pc, {r0, r2, r5, r6, sl, ip, sp, lr}^	; <UNPREDICTABLE>
 308:	7475706e 	ldrbtvc	r7, [r5], #-110	; 0x6e
 30c:	665f6e00 	ldrbvs	r6, [pc], -r0, lsl #28
 310:	696c6c61 	stmdbvs	ip!, {r0, r5, r6, sl, fp, sp, lr}^
 314:	655f676e 	ldrbvs	r6, [pc, #-1902]	; fffffbae <__bss_end__+0xffff4e96>
 318:	00656764 	rsbeq	r6, r5, r4, ror #14
 31c:	6f6c2d32 	svcvs	0x006c2d32
 320:	2d636967 	stclcs	9, cr6, [r3, #-412]!	; 0xfffffe64
 324:	6c616e61 	stclvs	14, cr6, [r1], #-388	; 0xfffffe7c
 328:	72657a79 	rsbvc	r7, r5, #495616	; 0x79000
 32c:	6100632e 	tstvs	r0, lr, lsr #6
 330:	745f6d72 	ldrbvc	r6, [pc], #-3442	; 338 <_start-0x7cc8>
 334:	72656d69 	rsbvc	r6, r5, #6720	; 0x1a40
 338:	6572505f 	ldrbvs	r5, [r2, #-95]!	; 0x5f
 33c:	69766944 	ldmdbvs	r6!, {r2, r6, r8, fp, sp, lr}^
 340:	00726564 	rsbseq	r6, r2, r4, ror #10
 344:	5f6d7261 	svcpl	0x006d7261
 348:	656d6974 	strbvs	r6, [sp, #-2420]!	; 0x974
 34c:	61565f72 	cmpvs	r6, r2, ror pc
 350:	0065756c 	rsbeq	r7, r5, ip, ror #10
 354:	5f6d7261 	svcpl	0x006d7261
 358:	656d6974 	strbvs	r6, [sp, #-2420]!	; 0x974
 35c:	52495f72 	subpl	r5, r9, #456	; 0x1c8
 360:	656c4351 	strbvs	r4, [ip, #-849]!	; 0x351
 364:	67007261 	strvs	r7, [r0, -r1, ror #4]
 368:	5f6f6970 	svcpl	0x006f6970
 36c:	5f746573 	svcpl	0x00746573
 370:	7074756f 	rsbsvc	r7, r4, pc, ror #10
 374:	65007475 	strvs	r7, [r0, #-1141]	; 0x475
 378:	6c62616e 	stfvse	f6, [r2], #-440	; 0xfffffe48
 37c:	61635f65 	cmnvs	r3, r5, ror #30
 380:	00656863 	rsbeq	r6, r5, r3, ror #16
 384:	5f697072 	svcpl	0x00697072
 388:	5f6d7261 	svcpl	0x006d7261
 38c:	656d6974 	strbvs	r6, [sp, #-2420]!	; 0x974
 390:	00745f72 	rsbseq	r5, r4, r2, ror pc
 394:	746e6975 	strbtvc	r6, [lr], #-2421	; 0x975
 398:	00745f38 	rsbseq	r5, r4, r8, lsr pc
 39c:	6f697067 	svcvs	0x00697067
 3a0:	746e695f 	strbtvc	r6, [lr], #-2399	; 0x95f
 3a4:	6c61665f 	stclvs	6, cr6, [r1], #-380	; 0xfffffe84
 3a8:	676e696c 	strbvs	r6, [lr, -ip, ror #18]!
 3ac:	6764655f 			; <UNDEFINED> instruction: 0x6764655f
 3b0:	70670065 	rsbvc	r0, r7, r5, rrx
 3b4:	635f6f69 	cmpvs	pc, #420	; 0x1a4
 3b8:	0030726c 	eorseq	r7, r0, ip, ror #4
 3bc:	74737973 	ldrbtvc	r7, [r3], #-2419	; 0x973
 3c0:	645f6d65 	ldrbvs	r6, [pc], #-3429	; 3c8 <_start-0x7c38>
 3c4:	62617369 	rsbvs	r7, r1, #-1543503871	; 0xa4000001
 3c8:	695f656c 	ldmdbvs	pc, {r2, r3, r5, r6, r8, sl, sp, lr}^	; <UNPREDICTABLE>
 3cc:	7265746e 	rsbvc	r7, r5, #1845493760	; 0x6e000000
 3d0:	74707572 	ldrbtvc	r7, [r0], #-1394	; 0x572
 3d4:	72610073 	rsbvc	r0, r1, #115	; 0x73
 3d8:	69745f6d 	ldmdbvs	r4!, {r0, r2, r3, r5, r6, r8, r9, sl, fp, ip, lr}^
 3dc:	5f72656d 	svcpl	0x0072656d
 3e0:	65657246 	strbvs	r7, [r5, #-582]!	; 0x246
 3e4:	6e6e7552 	mcrvs	5, 3, r7, cr14, cr2, {2}
 3e8:	43676e69 	cmnmi	r7, #1680	; 0x690
 3ec:	746e756f 	strbtvc	r7, [lr], #-1391	; 0x56f
 3f0:	5f007265 	svcpl	0x00007265
 3f4:	756e675f 	strbvc	r6, [lr, #-1887]!	; 0x75f
 3f8:	61765f63 	cmnvs	r6, r3, ror #30
 3fc:	73696c5f 	cmnvc	r9, #24320	; 0x5f00
 400:	696c0074 	stmdbvs	ip!, {r2, r4, r5, r6}^
 404:	702f6362 	eorvc	r6, pc, r2, ror #6
 408:	746e6972 	strbtvc	r6, [lr], #-2418	; 0x972
 40c:	00632e6b 	rsbeq	r2, r3, fp, ror #28
 410:	705f6176 	subsvc	r6, pc, r6, ror r1	; <UNPREDICTABLE>
 414:	746e6972 	strbtvc	r6, [lr], #-2418	; 0x972
 418:	5f5f006b 	svcpl	0x005f006b
 41c:	6c5f6176 	ldfvse	f6, [pc], {118}	; 0x76
 420:	00747369 	rsbseq	r7, r4, r9, ror #6
 424:	6573552f 	ldrbvs	r5, [r3, #-1327]!	; 0x52f
 428:	622f7372 	eorvs	r7, pc, #-939524095	; 0xc8000001
 42c:	6e616972 	mcrvs	9, 3, r6, cr1, cr2, {3}
 430:	2f6e756a 	svccs	0x006e756a
 434:	6b736544 	blvs	1cd994c <__bss_end__+0x1ccec34>
 438:	2f706f74 	svccs	0x00706f74
 43c:	6f686373 	svcvs	0x00686373
 440:	572f6c6f 	strpl	r6, [pc, -pc, ror #24]!
 444:	65746e69 	ldrbvs	r6, [r4, #-3689]!	; 0xe69
 448:	32393172 	eorscc	r3, r9, #-2147483620	; 0x8000001c
 44c:	53432f30 	movtpl	r2, #16176	; 0x3f30
 450:	45303431 	ldrmi	r3, [r0, #-1073]!	; 0x431
 454:	3173632f 	cmncc	r3, pc, lsr #6
 458:	2d653034 	stclcs	0, cr3, [r5, #-208]!	; 0xffffff30
 45c:	69773032 	ldmdbvs	r7!, {r1, r4, r5, ip, sp}^
 460:	696c2f6e 	stmdbvs	ip!, {r1, r2, r3, r5, r6, r8, r9, sl, fp, sp}^
 464:	00697062 	rsbeq	r7, r9, r2, rrx
 468:	73677261 	cmnvc	r7, #268435462	; 0x10000006
 46c:	615f5f00 	cmpvs	pc, r0, lsl #30
 470:	6e690070 	mcrvs	0, 3, r0, cr9, cr0, {3}
 474:	6e726574 	mrcvs	5, 3, r6, cr2, cr4, {3}
 478:	705f6c61 	subsvc	r6, pc, r1, ror #24
 47c:	68637475 	stmdavs	r3!, {r0, r2, r4, r5, r6, sl, ip, sp, lr}^
 480:	72007261 	andvc	r7, r0, #268435462	; 0x10000006
 484:	705f6970 	subsvc	r6, pc, r0, ror r9	; <UNPREDICTABLE>
 488:	68637475 	stmdavs	r3!, {r0, r2, r4, r5, r6, sl, ip, sp, lr}^
 48c:	6c007261 	sfmvs	f7, 4, [r0], {97}	; 0x61
 490:	2f636269 	svccs	0x00636269
 494:	63747570 	cmnvs	r4, #112, 10	; 0x1c000000
 498:	2e726168 	rpwcssz	f6, f2, #0.0
 49c:	70720063 	rsbsvc	r0, r2, r3, rrx
 4a0:	65735f69 	ldrbvs	r5, [r3, #-3945]!	; 0xf69
 4a4:	75705f74 	ldrbvc	r5, [r0, #-3956]!	; 0xf74
 4a8:	6c006374 	stcvs	3, cr6, [r0], {116}	; 0x74
 4ac:	2f636269 	svccs	0x00636269
 4b0:	6b747570 	blvs	1d1da78 <__bss_end__+0x1d12d60>
 4b4:	6900632e 	stmdbvs	r0, {r1, r2, r3, r5, r8, r9, sp, lr}
 4b8:	7265746e 	rsbvc	r7, r5, #1845493760	; 0x6e000000
 4bc:	5f6c616e 	svcpl	0x006c616e
 4c0:	6b747570 	blvs	1d1da88 <__bss_end__+0x1d12d70>
 4c4:	67656e00 	strbvs	r6, [r5, -r0, lsl #28]!
 4c8:	7200705f 	andvc	r7, r0, #95	; 0x5f
 4cc:	72657665 	rsbvc	r7, r5, #105906176	; 0x6500000
 4d0:	69006573 	stmdbvs	r0, {r0, r1, r4, r5, r6, r8, sl, sp, lr}
 4d4:	67696473 			; <UNDEFINED> instruction: 0x67696473
 4d8:	70007469 	andvc	r7, r0, r9, ror #8
 4dc:	5f737475 	svcpl	0x00737475
 4e0:	62007066 	andvs	r7, r0, #102	; 0x66
 4e4:	00657361 	rsbeq	r7, r5, r1, ror #6
 4e8:	6e676973 	mcrvs	9, 3, r6, cr7, cr3, {3}
 4ec:	705f6465 	subsvc	r6, pc, r5, ror #8
 4f0:	62696c00 	rsbvs	r6, r9, #0, 24
 4f4:	61762f63 	cmnvs	r6, r3, ror #30
 4f8:	6972702d 	ldmdbvs	r2!, {r0, r2, r3, r5, ip, sp, lr}^
 4fc:	2e6b746e 	cdpcs	4, 6, cr7, cr11, cr14, {3}
 500:	70720063 	rsbsvc	r0, r2, r3, rrx
 504:	65735f69 	ldrbvs	r5, [r3, #-3945]!	; 0xf69
 508:	756f5f74 	strbvc	r5, [pc, #-3956]!	; fffff59c <__bss_end__+0xffff4884>
 50c:	74757074 	ldrbtvc	r7, [r5], #-116	; 0x74
 510:	64697700 	strbtvs	r7, [r9], #-1792	; 0x700
 514:	70006874 	andvc	r6, r0, r4, ror r8
 518:	5f637475 	svcpl	0x00637475
 51c:	65007066 	strvs	r7, [r0, #-102]	; 0x66
 520:	0074696d 	rsbseq	r6, r4, sp, ror #18
 524:	61736964 	cmnvs	r3, r4, ror #18
 528:	5f656c62 	svcpl	0x00656c62
 52c:	68636163 	stmdavs	r3!, {r0, r1, r5, r6, r8, sp, lr}^
 530:	73630065 	cmnvc	r3, #101	; 0x65
 534:	65303431 	ldrvs	r3, [r0, #-1073]!	; 0x431
 538:	6372732d 	cmnvs	r2, #-1275068416	; 0xb4000000
 53c:	6361632f 	cmnvs	r1, #-1140850688	; 0xbc000000
 540:	632e6568 	teqvs	lr, #104, 10	; 0x1a000000
 544:	69707200 	ldmdbvs	r0!, {r9, ip, sp, lr}^
 548:	6265725f 	rsbvs	r7, r5, #-268435451	; 0xf0000005
 54c:	00746f6f 	rsbseq	r6, r4, pc, ror #30
 550:	34317363 	ldrtcc	r7, [r1], #-867	; 0x363
 554:	732d6530 	teqvc	sp, #48, 10	; 0xc000000
 558:	632f6372 	teqvs	pc, #-939524095	; 0xc8000001
 55c:	6e61656c 	cdpvs	5, 6, cr6, cr1, cr12, {3}
 560:	6265722d 	rsbvs	r7, r5, #-805306366	; 0xd0000002
 564:	2e746f6f 	cdpcs	15, 7, cr6, cr4, cr15, {3}
 568:	6e690063 	cdpvs	0, 6, cr0, cr9, cr3, {3}
 56c:	6e726574 	mrcvs	5, 3, r6, cr2, cr4, {3}
 570:	735f6c61 	cmpvc	pc, #24832	; 0x6100
 574:	75705f77 	ldrbvc	r5, [r0, #-3959]!	; 0xf77
 578:	61686374 	smcvs	34356	; 0x8634
 57c:	5f5f0072 	svcpl	0x005f0072
 580:	5f737362 	svcpl	0x00737362
 584:	72617473 	rsbvc	r7, r1, #1929379840	; 0x73000000
 588:	005f5f74 	subseq	r5, pc, r4, ror pc	; <UNPREDICTABLE>
 58c:	5f737362 	svcpl	0x00737362
 590:	00646e65 	rsbeq	r6, r4, r5, ror #28
 594:	6c637963 	stclvs	9, cr7, [r3], #-396	; 0xfffffe74
 598:	65705f65 	ldrbvs	r5, [r0, #-3941]!	; 0xf65
 59c:	69625f72 	stmdbvs	r2!, {r1, r4, r5, r6, r8, r9, sl, fp, ip, lr}^
 5a0:	6f630074 	svcvs	0x00630074
 5a4:	6c6f736e 	stclvs	3, cr7, [pc], #-440	; 3f4 <_start-0x7c0c>
 5a8:	61755f65 	cmnvs	r5, r5, ror #30
 5ac:	73007472 	movwvc	r7, #1138	; 0x472
 5b0:	61755f77 	cmnvs	r5, r7, ror pc
 5b4:	705f7472 	subsvc	r7, pc, r2, ror r4	; <UNPREDICTABLE>
 5b8:	746e6972 	strbtvc	r6, [lr], #-2418	; 0x972
 5bc:	5550006b 	ldrbpl	r0, [r0, #-107]	; 0x6b
 5c0:	455f4354 	ldrbmi	r4, [pc, #-852]	; 274 <_start-0x7d8c>
 5c4:	555f5053 	ldrbpl	r5, [pc, #-83]	; 579 <_start-0x7a87>
 5c8:	00545241 	subseq	r5, r4, r1, asr #4
 5cc:	755f7773 	ldrbvc	r7, [pc, #-1907]	; fffffe61 <__bss_end__+0xffff5149>
 5d0:	5f747261 	svcpl	0x00747261
 5d4:	55500074 	ldrbpl	r0, [r0, #-116]	; 0x74
 5d8:	535f4354 	cmppl	pc, #84, 6	; 0x50000001
 5dc:	41555f57 	cmpmi	r5, r7, asr pc
 5e0:	62005452 	andvs	r5, r0, #1375731712	; 0x52000000
 5e4:	00647561 	rsbeq	r7, r4, r1, ror #10
 5e8:	43545550 	cmpmi	r4, #80, 10	; 0x14000000
 5ec:	5f57485f 	svcpl	0x0057485f
 5f0:	54524155 	ldrbpl	r4, [r2], #-341	; 0x155
 5f4:	73635f00 	cmnvc	r3, #0, 30
 5f8:	74726174 	ldrbtvc	r6, [r2], #-372	; 0x174
 5fc:	72617500 	rsbvc	r7, r1, #0, 10
 600:	65645f74 	strbvs	r5, [r4, #-3956]!	; 0xf74
 604:	00745f76 	rsbseq	r5, r4, r6, ror pc
 608:	755f7773 	ldrbvc	r7, [pc, #-1907]	; fffffe9d <__bss_end__+0xffff5185>
 60c:	5f747261 	svcpl	0x00747261
 610:	63747570 	cmnvs	r4, #112, 10	; 0x1c000000
 614:	6e6f6300 	cdpvs	3, 6, cr6, cr15, cr0, {0}
 618:	6c6f7274 	sfmvs	f7, 2, [pc], #-464	; 450 <_start-0x7bb0>
 61c:	6b6c625f 	blvs	1b18fa0 <__bss_end__+0x1b0e288>
 620:	7300745f 	movwvc	r7, #1119	; 0x45f
 624:	61755f77 	cmnvs	r5, r7, ror pc
 628:	63007472 	movwvs	r7, #1138	; 0x472
 62c:	65675f62 	strbvs	r5, [r7, #-3938]!	; 0xf62
 630:	6c625f74 	stclvs	15, cr5, [r2], #-464	; 0xfffffe30
 634:	006b636f 	rsbeq	r6, fp, pc, ror #6
 638:	73625f5f 	cmnvc	r2, #380	; 0x17c
 63c:	6e655f73 	mcrvs	15, 3, r5, cr5, cr3, {3}
 640:	005f5f64 	subseq	r5, pc, r4, ror #30
 644:	34317363 	ldrtcc	r7, [r1], #-867	; 0x363
 648:	732d6530 	teqvc	sp, #48, 10	; 0xc000000
 64c:	632f6372 	teqvs	pc, #-939524095	; 0xc8000001
 650:	72617473 	rsbvc	r7, r1, #1929379840	; 0x73000000
 654:	00632e74 	rsbeq	r2, r3, r4, ror lr
 658:	736e6f63 	cmnvc	lr, #396	; 0x18c
 65c:	5f656c6f 	svcpl	0x00656c6f
 660:	00766564 	rsbseq	r6, r6, r4, ror #10
 664:	746e6975 	strbtvc	r6, [lr], #-2421	; 0x975
 668:	745f3233 	ldrbvc	r3, [pc], #-563	; 670 <_start-0x7990>
 66c:	67616d00 	strbvs	r6, [r1, -r0, lsl #26]!
 670:	61006369 	tstvs	r0, r9, ror #6
 674:	73755f74 	cmnvc	r5, #116, 30	; 0x1d0
 678:	6c5f7265 	lfmvs	f7, 2, [pc], {101}	; 0x65
 67c:	6c657665 	stclvs	6, cr7, [r5], #-404	; 0xfffffe6c
 680:	5f4d5000 	svcpl	0x004d5000
 684:	53534150 	cmppl	r3, #80, 2
 688:	44524f57 	ldrbmi	r4, [r2], #-3927	; 0xf57
 68c:	31736300 	cmncc	r3, r0, lsl #6
 690:	2d653034 	stclcs	0, cr3, [r5, #-208]!	; 0xffffff30
 694:	2f637273 	svccs	0x00637273
 698:	6f626572 	svcvs	0x00626572
 69c:	632e746f 	teqvs	lr, #1862270976	; 0x6f000000
 6a0:	5f4d5000 	svcpl	0x004d5000
 6a4:	43545352 	cmpmi	r4, #1207959553	; 0x48000001
 6a8:	4352575f 	cmpmi	r2, #24903680	; 0x17c0000
 6ac:	465f4746 	ldrbmi	r4, [pc], -r6, asr #14
 6b0:	5f4c4c55 	svcpl	0x004c4c55
 6b4:	45534552 	ldrbmi	r4, [r3, #-1362]	; 0x552
 6b8:	4d500054 	ldclmi	0, cr0, [r0, #-336]	; 0xfffffeb0
 6bc:	4f44575f 	svcmi	0x0044575f
 6c0:	65730047 	ldrbvs	r0, [r3, #-71]!	; 0x47
 6c4:	73755f74 	cmnvc	r5, #116, 30	; 0x1d0
 6c8:	6c5f7265 	lfmvs	f7, 2, [pc], {101}	; 0x65
 6cc:	6c657665 	stclvs	6, cr7, [r5], #-404	; 0xfffffe6c
 6d0:	54555000 	ldrbpl	r5, [r5], #-0
 6d4:	50003233 	andpl	r3, r0, r3, lsr r2
 6d8:	53525f4d 	cmppl	r2, #308	; 0x134
 6dc:	63004354 	movwvs	r4, #852	; 0x354
 6e0:	00727370 	rsbseq	r7, r2, r0, ror r3
 6e4:	656d6974 	strbvs	r6, [sp, #-2420]!	; 0x974
 6e8:	65675f72 	strbvs	r5, [r7, #-3954]!	; 0xf72
 6ec:	73755f74 	cmnvc	r5, #116, 30	; 0x1d0
 6f0:	725f6365 	subsvc	r6, pc, #-1811939327	; 0x94000001
 6f4:	64007761 	strvs	r7, [r0], #-1889	; 0x761
 6f8:	79616c65 	stmdbvc	r1!, {r0, r2, r5, r6, sl, fp, sp, lr}^
 6fc:	6365735f 	cmnvs	r5, #2080374785	; 0x7c000001
 700:	31736300 	cmncc	r3, r0, lsl #6
 704:	2d653034 	stclcs	0, cr3, [r5, #-208]!	; 0xffffff30
 708:	2f637273 	svccs	0x00637273
 70c:	656d6974 	strbvs	r6, [sp, #-2420]!	; 0x974
 710:	00632e72 	rsbeq	r2, r3, r2, ror lr
 714:	33544547 	cmpcc	r4, #297795584	; 0x11c00000
 718:	69740032 	ldmdbvs	r4!, {r1, r4, r5}^
 71c:	00736b63 	rsbseq	r6, r3, r3, ror #22
 720:	616c6564 	cmnvs	ip, r4, ror #10
 724:	79635f79 	stmdbvc	r3!, {r0, r3, r4, r5, r6, r8, r9, sl, fp, ip, lr}^
 728:	73656c63 	cmnvc	r5, #25344	; 0x6300
 72c:	6c656400 	cfstrdvs	mvd6, [r5], #-0
 730:	755f7961 	ldrbvc	r7, [pc, #-2401]	; fffffdd7 <__bss_end__+0xffff50bf>
 734:	69740073 	ldmdbvs	r4!, {r0, r1, r4, r5, r6}^
 738:	5f72656d 	svcpl	0x0072656d
 73c:	5f746567 	svcpl	0x00746567
 740:	63657375 	cmnvs	r5, #-738197503	; 0xd4000001
 744:	69706700 	ldmdbvs	r0!, {r8, r9, sl, sp, lr}^
 748:	76655f6f 	strbtvc	r5, [r5], -pc, ror #30
 74c:	5f746e65 	svcpl	0x00746e65
 750:	65746564 	ldrbvs	r6, [r4, #-1380]!	; 0x564
 754:	64657463 	strbtvs	r7, [r5], #-1123	; 0x463
 758:	74757000 	ldrbtvc	r7, [r5], #-0
 75c:	45003233 	strmi	r3, [r0, #-563]	; 0x233
 760:	4c42414e 	stfmie	f4, [r2], {78}	; 0x4e
 764:	52495f45 	subpl	r5, r9, #276	; 0x114
 768:	325f5351 	subscc	r5, pc, #1140850689	; 0x44000001
 76c:	5f736900 	svcpl	0x00736900
 770:	6f697067 	svcvs	0x00697067
 774:	746e695f 	strbtvc	r6, [lr], #-2399	; 0x95f
 778:	49504700 	ldmdbmi	r0, {r8, r9, sl, lr}^
 77c:	55465f4f 	strbpl	r5, [r6, #-3919]	; 0xf4f
 780:	495f434e 	ldmdbmi	pc, {r1, r2, r3, r6, r8, r9, lr}^	; <UNPREDICTABLE>
 784:	5455504e 	ldrbpl	r5, [r5], #-78	; 0x4e
 788:	2d796d00 	ldclcs	13, cr6, [r9, #-0]
 78c:	2f637273 	svccs	0x00637273
 790:	6f697067 	svcvs	0x00697067
 794:	6900632e 	stmdbvs	r0, {r1, r2, r3, r5, r8, r9, sp, lr}
 798:	6d5f746e 	cfldrdvs	mvd7, [pc, #-440]	; 5e8 <_start-0x7a18>
 79c:	006b7361 	rsbeq	r7, fp, r1, ror #6
 7a0:	5f676572 	svcpl	0x00676572
 7a4:	74617473 	strbtvc	r7, [r1], #-1139	; 0x473
 7a8:	69706700 	ldmdbvs	r0!, {r8, r9, sl, sp, lr}^
 7ac:	65725f6f 	ldrbvs	r5, [r2, #-3951]!	; 0xf6f
 7b0:	65640067 	strbvs	r0, [r4, #-103]!	; 0x67
 7b4:	61625f76 	smcvs	9718	; 0x25f6
 7b8:	65697272 	strbvs	r7, [r9, #-626]!	; 0x272
 7bc:	70670072 	rsbvc	r0, r7, r2, ror r0
 7c0:	725f6f69 	subsvc	r6, pc, #420	; 0x1a4
 7c4:	00646165 	rsbeq	r6, r4, r5, ror #2
 7c8:	6f697067 	svcvs	0x00697067
 7cc:	746e695f 	strbtvc	r6, [lr], #-2399	; 0x95f
 7d0:	7369725f 	cmnvc	r9, #-268435451	; 0xf0000005
 7d4:	5f676e69 	svcpl	0x00676e69
 7d8:	65676465 	strbvs	r6, [r7, #-1125]!	; 0x465
 7dc:	69706700 	ldmdbvs	r0!, {r8, r9, sl, sp, lr}^
 7e0:	65735f6f 	ldrbvs	r5, [r3, #-3951]!	; 0xf6f
 7e4:	75665f74 	strbvc	r5, [r6, #-3956]!	; 0xf74
 7e8:	6974636e 	ldmdbvs	r4!, {r1, r2, r3, r5, r6, r8, r9, sp, lr}^
 7ec:	47006e6f 	strmi	r6, [r0, -pc, ror #28]
 7f0:	4e455250 	mcrmi	2, 2, r5, cr5, cr0, {2}
 7f4:	50470030 	subpl	r0, r7, r0, lsr r0
 7f8:	314e4552 	cmpcc	lr, r2, asr r5
 7fc:	51524900 	cmppl	r2, r0, lsl #18
 800:	4e45505f 	mcrmi	0, 2, r5, cr5, cr15, {2}
 804:	474e4944 	strbmi	r4, [lr, -r4, asr #18]
 808:	4900315f 	stmdbmi	r0, {r0, r1, r2, r3, r4, r6, r8, ip, sp}
 80c:	505f5152 	subspl	r5, pc, r2, asr r1	; <UNPREDICTABLE>
 810:	49444e45 	stmdbmi	r4, {r0, r2, r6, r9, sl, fp, lr}^
 814:	325f474e 	subscc	r4, pc, #20447232	; 0x1380000
 818:	74696200 	strbtvc	r6, [r9], #-512	; 0x200
 81c:	6b73616d 	blvs	1cd8dd8 <__bss_end__+0x1cce0c0>
 820:	6e756600 	cdpvs	6, 7, cr6, cr5, cr0, {0}
 824:	70670063 	rsbvc	r0, r7, r3, rrx
 828:	745f6f69 	ldrbvc	r6, [pc], #-3945	; 830 <_start-0x77d0>
 82c:	6c67676f 	stclvs	7, cr6, [r7], #-444	; 0xfffffe44
 830:	50470065 	subpl	r0, r7, r5, rrx
 834:	30534445 	subscc	r4, r3, r5, asr #8
 838:	45504700 	ldrbmi	r4, [r0, #-1792]	; 0x700
 83c:	00315344 	eorseq	r5, r1, r4, asr #6
 840:	45465047 	strbmi	r5, [r6, #-71]	; 0x47
 844:	4700304e 	strmi	r3, [r0, -lr, asr #32]
 848:	4e454650 	mcrmi	6, 2, r4, cr5, cr0, {2}
 84c:	50470031 	subpl	r0, r7, r1, lsr r0
 850:	465f4f49 	ldrbmi	r4, [pc], -r9, asr #30
 854:	5f434e55 	svcpl	0x00434e55
 858:	5054554f 	subspl	r5, r4, pc, asr #10
 85c:	67005455 	smlsdvs	r0, r5, r4, r5
 860:	32337465 	eorscc	r7, r3, #1694498816	; 0x65000000
 864:	69706700 	ldmdbvs	r0!, {r8, r9, sl, sp, lr}^
 868:	75665f6f 	strbvc	r5, [r6, #-3951]!	; 0xf6f
 86c:	745f636e 	ldrbvc	r6, [pc], #-878	; 874 <_start-0x778c>
 870:	49504700 	ldmdbmi	r0, {r8, r9, sl, lr}^
 874:	55465f4f 	strbpl	r5, [r6, #-3919]	; 0xf4f
 878:	415f434e 	cmpmi	pc, lr, asr #6
 87c:	0030544c 	eorseq	r5, r0, ip, asr #8
 880:	4f495047 	svcmi	0x00495047
 884:	4e55465f 	mrcmi	6, 2, r4, cr5, cr15, {2}
 888:	4c415f43 	mcrrmi	15, 4, r5, r1, cr3
 88c:	47003154 	smlsdmi	r0, r4, r1, r3
 890:	5f4f4950 	svcpl	0x004f4950
 894:	434e5546 	movtmi	r5, #58694	; 0xe546
 898:	544c415f 	strbpl	r4, [ip], #-351	; 0x15f
 89c:	50470032 	subpl	r0, r7, r2, lsr r0
 8a0:	465f4f49 	ldrbmi	r4, [pc], -r9, asr #30
 8a4:	5f434e55 	svcpl	0x00434e55
 8a8:	33544c41 	cmpcc	r4, #16640	; 0x4100
 8ac:	49504700 	ldmdbmi	r0, {r8, r9, sl, lr}^
 8b0:	55465f4f 	strbpl	r5, [r6, #-3919]	; 0xf4f
 8b4:	415f434e 	cmpmi	pc, lr, asr #6
 8b8:	0034544c 	eorseq	r5, r4, ip, asr #8
 8bc:	4f495047 	svcmi	0x00495047
 8c0:	4e55465f 	mrcmi	6, 2, r4, cr5, cr15, {2}
 8c4:	4c415f43 	mcrrmi	15, 4, r5, r1, cr3
 8c8:	72003554 	andvc	r3, r0, #84, 10	; 0x15000000
 8cc:	735f6765 	cmpvc	pc, #26476544	; 0x1940000
 8d0:	63656c65 	cmnvs	r5, #25856	; 0x6500
 8d4:	79630074 	stmdbvc	r3!, {r2, r4, r5, r6}^
 8d8:	65705f63 	ldrbvs	r5, [r0, #-3939]!	; 0xf63
 8dc:	69625f72 	stmdbvs	r2!, {r1, r4, r5, r6, r8, r9, sl, fp, ip, lr}^
 8e0:	72770074 	rsbsvc	r0, r7, #116	; 0x74
 8e4:	5f657469 	svcpl	0x00657469
 8e8:	5f637963 	svcpl	0x00637963
 8ec:	69746e75 	ldmdbvs	r4!, {r0, r2, r4, r5, r6, r9, sl, fp, sp, lr}^
 8f0:	7773006c 	ldrbvc	r0, [r3, -ip, rrx]!
 8f4:	7261755f 	rsbvc	r7, r1, #398458880	; 0x17c00000
 8f8:	65675f74 	strbvs	r5, [r7, #-3956]!	; 0xf74
 8fc:	745f6374 	ldrbvc	r6, [pc], #-884	; 904 <_start-0x76fc>
 900:	6f656d69 	svcvs	0x00656d69
 904:	73007475 	movwvc	r7, #1141	; 0x475
 908:	61755f77 	cmnvs	r5, r7, ror pc
 90c:	675f7472 			; <UNDEFINED> instruction: 0x675f7472
 910:	5f737465 	svcpl	0x00737465
 914:	69746e75 	ldmdbvs	r4!, {r0, r2, r4, r5, r6, r9, sl, fp, sp, lr}^
 918:	7773006c 	ldrbvc	r0, [r3, -ip, rrx]!
 91c:	7261755f 	rsbvc	r7, r1, #398458880	; 0x17c00000
 920:	65675f74 	strbvs	r5, [r7, #-3956]!	; 0xf74
 924:	64006374 	strvs	r6, [r0], #-884	; 0x374
 928:	76697265 	strbtvc	r7, [r9], -r5, ror #4
 92c:	64006465 	strvs	r6, [r0], #-1125	; 0x465
 930:	79616c65 	stmdbvc	r1!, {r0, r2, r5, r6, sl, fp, sp, lr}^
 934:	79636e5f 	stmdbvc	r3!, {r0, r1, r2, r3, r4, r6, r9, sl, fp, sp, lr}^
 938:	73656c63 	cmnvc	r5, #25344	; 0x6300
 93c:	5f777300 	svcpl	0x00777300
 940:	74726175 	ldrbtvc	r6, [r2], #-373	; 0x175
 944:	696e695f 	stmdbvs	lr!, {r0, r1, r2, r3, r4, r6, r8, fp, sp, lr}^
 948:	65685f74 	strbvs	r5, [r8, #-3956]!	; 0xf74
 94c:	7265706c 	rsbvc	r7, r5, #108	; 0x6c
 950:	6d697400 	cfstrdvs	mvd7, [r9, #-0]
 954:	74756f65 	ldrbtvc	r6, [r5], #-3941	; 0xf65
 958:	6573755f 	ldrbvs	r7, [r3, #-1375]!	; 0x55f
 95c:	77730063 	ldrbvc	r0, [r3, -r3, rrx]!
 960:	7261755f 	rsbvc	r7, r1, #398458880	; 0x17c00000
 964:	75705f74 	ldrbvc	r5, [r0, #-3956]!	; 0xf74
 968:	6d006b74 	vstrvs	d6, [r0, #-464]	; 0xfffffe30
 96c:	72732d79 	rsbsvc	r2, r3, #7744	; 0x1e40
 970:	77732f63 	ldrbvc	r2, [r3, -r3, ror #30]!
 974:	7261752d 	rsbvc	r7, r1, #188743680	; 0xb400000
 978:	00632e74 	rsbeq	r2, r3, r4, ror lr
 97c:	72616863 	rsbvc	r6, r1, #6488064	; 0x630000
 980:	006e695f 	rsbeq	r6, lr, pc, asr r9
 984:	755f7773 	ldrbvc	r7, [pc, #-1907]	; 219 <_start-0x7de7>
 988:	5f747261 	svcpl	0x00747261
 98c:	73746567 	cmnvc	r4, #432013312	; 0x19c00000
 990:	6d69745f 	cfstrdvs	mvd7, [r9, #-380]!	; 0xfffffe84
 994:	74756f65 	ldrbtvc	r6, [r5], #-3941	; 0xf65
 998:	79626e00 	stmdbvc	r2!, {r9, sl, fp, sp, lr}^
 99c:	00736574 	rsbseq	r6, r3, r4, ror r5
 9a0:	63657375 	cmnvs	r5, #-738197503	; 0xd4000001
 9a4:	6d69745f 	cfstrdvs	mvd7, [r9, #-380]!	; 0xfffffe84
 9a8:	74756f65 	ldrbtvc	r6, [r5], #-3941	; 0xf65
 9ac:	5f777300 	svcpl	0x00777300
 9b0:	74726175 	ldrbtvc	r6, [r2], #-373	; 0x175
 9b4:	7465675f 	strbtvc	r6, [r5], #-1887	; 0x75f
 9b8:	6e755f73 	mrcvs	15, 3, r5, cr5, cr3, {3}
 9bc:	5f6c6974 	svcpl	0x006c6974
 9c0:	006b6c62 	rsbeq	r6, fp, r2, ror #24
 9c4:	74696177 	strbtvc	r6, [r9], #-375	; 0x177
 9c8:	746e755f 	strbtvc	r7, [lr], #-1375	; 0x55f
 9cc:	755f6c69 	ldrbvc	r6, [pc, #-3177]	; fffffd6b <__bss_end__+0xffff5053>
 9d0:	00636573 	rsbeq	r6, r3, r3, ror r5
 9d4:	5f585541 	svcpl	0x00585541
 9d8:	4d5f554d 	cfldr64mi	mvdx5, [pc, #-308]	; 8ac <_start-0x7754>
 9dc:	525f5243 	subspl	r5, pc, #805306372	; 0x30000004
 9e0:	41004745 	tstmi	r0, r5, asr #14
 9e4:	4d5f5855 	ldclmi	8, cr5, [pc, #-340]	; 898 <_start-0x7768>
 9e8:	4f495f55 	svcmi	0x00495f55
 9ec:	4745525f 	smlsldmi	r5, r5, pc, r2	; <UNPREDICTABLE>
 9f0:	58554100 	ldmdapl	r5, {r8, lr}^
 9f4:	5f554d5f 	svcpl	0x00554d5f
 9f8:	5f52534d 	svcpl	0x0052534d
 9fc:	00474552 	subeq	r4, r7, r2, asr r5
 a00:	74726175 	ldrbtvc	r6, [r2], #-373	; 0x175
 a04:	6e61635f 	mcrvs	3, 3, r6, cr1, cr15, {2}
 a08:	7465675f 	strbtvc	r6, [r5], #-1887	; 0x75f
 a0c:	55410063 	strbpl	r0, [r1, #-99]	; 0x63
 a10:	554d5f58 	strbpl	r5, [sp, #-3928]	; 0xf58
 a14:	544e435f 	strbpl	r4, [lr], #-863	; 0x35f
 a18:	45525f4c 	ldrbmi	r5, [r2, #-3916]	; 0xf4c
 a1c:	61750047 	cmnvs	r5, r7, asr #32
 a20:	685f7472 	ldmdavs	pc, {r1, r4, r5, r6, sl, ip, sp, lr}^	; <UNPREDICTABLE>
 a24:	645f7361 	ldrbvs	r7, [pc], #-865	; a2c <_start-0x75d4>
 a28:	00617461 	rsbeq	r7, r1, r1, ror #8
 a2c:	5f585541 	svcpl	0x00585541
 a30:	495f554d 	ldmdbmi	pc, {r0, r2, r3, r6, r8, sl, ip, lr}^	; <UNPREDICTABLE>
 a34:	525f5245 	subspl	r5, pc, #1342177284	; 0x50000004
 a38:	41004745 	tstmi	r0, r5, asr #14
 a3c:	4d5f5855 	ldclmi	8, cr5, [pc, #-340]	; 8f0 <_start-0x7710>
 a40:	49495f55 	stmdbmi	r9, {r0, r2, r4, r6, r8, r9, sl, fp, ip, lr}^
 a44:	45525f52 	ldrbmi	r5, [r2, #-3922]	; 0xf52
 a48:	61750047 	cmnvs	r5, r7, asr #32
 a4c:	635f7472 	cmpvs	pc, #1912602624	; 0x72000000
 a50:	705f6e61 	subsvc	r6, pc, r1, ror #28
 a54:	00637475 	rsbeq	r7, r3, r5, ror r4
 a58:	5f585541 	svcpl	0x00585541
 a5c:	42414e45 	submi	r4, r1, #1104	; 0x450
 a60:	0053454c 	subseq	r4, r3, ip, asr #10
 a64:	5f585541 	svcpl	0x00585541
 a68:	00515249 	subseq	r5, r1, r9, asr #4
 a6c:	5f585541 	svcpl	0x00585541
 a70:	425f554d 	subsmi	r5, pc, #322961408	; 0x13400000
 a74:	5f445541 	svcpl	0x00445541
 a78:	00474552 	subeq	r4, r7, r2, asr r5
 a7c:	5f585541 	svcpl	0x00585541
 a80:	535f554d 	cmppl	pc, #322961408	; 0x13400000
 a84:	5f544154 	svcpl	0x00544154
 a88:	00474552 	subeq	r4, r7, r2, asr r5
 a8c:	5f585541 	svcpl	0x00585541
 a90:	535f554d 	cmppl	pc, #322961408	; 0x13400000
 a94:	54415243 	strbpl	r5, [r1], #-579	; 0x243
 a98:	6d004843 	stcvs	8, cr4, [r0, #-268]	; 0xfffffef4
 a9c:	72732d79 	rsbsvc	r2, r3, #7744	; 0x1e40
 aa0:	61752f63 	cmnvs	r5, r3, ror #30
 aa4:	632e7472 	teqvs	lr, #1912602624	; 0x72000000
 aa8:	58554100 	ldmdapl	r5, {r8, lr}^
 aac:	5f554d5f 	svcpl	0x00554d5f
 ab0:	5f52434c 	svcpl	0x0052434c
 ab4:	00474552 	subeq	r4, r7, r2, asr r5
 ab8:	5f585541 	svcpl	0x00585541
 abc:	4c5f554d 	cfldr64mi	mvdx5, [pc], {77}	; 0x4d
 ac0:	525f5253 	subspl	r5, pc, #805306373	; 0x30000005
 ac4:	75004745 	strvc	r4, [r0, #-1861]	; 0x745
 ac8:	5f747261 	svcpl	0x00747261
 acc:	63746567 	cmnvs	r4, #432013312	; 0x19c00000
 ad0:	7973615f 	ldmdbvc	r3!, {r0, r1, r2, r3, r4, r6, r8, sp, lr}^
 ad4:	4900636e 	stmdbmi	r0, {r1, r2, r3, r5, r6, r8, r9, sp, lr}
 ad8:	705f5152 	subsvc	r5, pc, r2, asr r1	; <UNPREDICTABLE>
 adc:	69646e65 	stmdbvs	r4!, {r0, r2, r5, r6, r9, sl, fp, sp, lr}^
 ae0:	325f676e 	subscc	r6, pc, #28835840	; 0x1b80000
 ae4:	73694400 	cmnvc	r9, #0, 8
 ae8:	656c6261 	strbvs	r6, [ip, #-609]!	; 0x261
 aec:	7361425f 	cmnvc	r1, #-268435451	; 0xf0000005
 af0:	495f6369 	ldmdbmi	pc, {r0, r3, r5, r6, r8, r9, sp, lr}^	; <UNPREDICTABLE>
 af4:	00735152 	rsbseq	r5, r3, r2, asr r1
 af8:	5f514946 	svcpl	0x00514946
 afc:	746e6f63 	strbtvc	r6, [lr], #-3939	; 0xf63
 b00:	006c6f72 	rsbeq	r6, ip, r2, ror pc
 b04:	746e695f 	strbtvc	r6, [lr], #-2399	; 0x95f
 b08:	75727265 	ldrbvc	r7, [r2, #-613]!	; 0x265
 b0c:	745f7470 	ldrbvc	r7, [pc], #-1136	; b14 <_start-0x74ec>
 b10:	656c6261 	strbvs	r6, [ip, #-609]!	; 0x261
 b14:	51524900 	cmppl	r2, r0, lsl #18
 b18:	7361625f 	cmnvc	r1, #-268435451	; 0xf0000005
 b1c:	705f6369 	subsvc	r6, pc, r9, ror #6
 b20:	69646e65 	stmdbvs	r4!, {r0, r2, r5, r6, r9, sl, fp, sp, lr}^
 b24:	4500676e 	strmi	r6, [r0, #-1902]	; 0x76e
 b28:	6c62616e 	stfvse	f6, [r2], #-440	; 0xfffffe48
 b2c:	61425f65 	cmpvs	r2, r5, ror #30
 b30:	5f636973 	svcpl	0x00636973
 b34:	73515249 	cmpvc	r1, #-1879048188	; 0x90000004
 b38:	616e4500 	cmnvs	lr, r0, lsl #10
 b3c:	5f656c62 	svcpl	0x00656c62
 b40:	73515249 	cmpvc	r1, #-1879048188	; 0x90000004
 b44:	4500315f 	strmi	r3, [r0, #-351]	; 0x15f
 b48:	6c62616e 	stfvse	f6, [r2], #-440	; 0xfffffe48
 b4c:	52495f65 	subpl	r5, r9, #404	; 0x194
 b50:	325f7351 	subscc	r7, pc, #1140850689	; 0x44000001
 b54:	6e695f00 	cdpvs	15, 6, cr5, cr9, cr0, {0}
 b58:	72726574 	rsbsvc	r6, r2, #116, 10	; 0x1d000000
 b5c:	5f747075 	svcpl	0x00747075
 b60:	6c626174 	stfvse	f6, [r2], #-464	; 0xfffffe30
 b64:	6e655f65 	cdpvs	15, 6, cr5, cr5, cr5, {3}
 b68:	73630064 	cmnvc	r3, #100	; 0x64
 b6c:	65303431 	ldrvs	r3, [r0, #-1073]!	; 0x431
 b70:	746e692d 	strbtvc	r6, [lr], #-2349	; 0x92d
 b74:	75727265 	ldrbvc	r7, [r2, #-613]!	; 0x265
 b78:	692f7470 	stmdbvs	pc!, {r4, r5, r6, sl, ip, sp, lr}	; <UNPREDICTABLE>
 b7c:	7265746e 	rsbvc	r7, r5, #1845493760	; 0x6e000000
 b80:	74707572 	ldrbtvc	r7, [r0], #-1394	; 0x572
 b84:	2e632d73 	mcrcs	13, 3, r2, cr3, cr3, {3}
 b88:	52490063 	subpl	r0, r9, #99	; 0x63
 b8c:	61425f51 	cmpvs	r2, r1, asr pc
 b90:	44006573 	strmi	r6, [r0], #-1395	; 0x573
 b94:	62617369 	rsbvs	r7, r1, #-1543503871	; 0xa4000001
 b98:	495f656c 	ldmdbmi	pc, {r2, r3, r5, r6, r8, sl, sp, lr}^	; <UNPREDICTABLE>
 b9c:	5f735152 	svcpl	0x00735152
 ba0:	69440031 	stmdbvs	r4, {r0, r4, r5}^
 ba4:	6c626173 	stfvse	f6, [r2], #-460	; 0xfffffe34
 ba8:	52495f65 	subpl	r5, r9, #404	; 0x194
 bac:	325f7351 	subscc	r7, pc, #1140850689	; 0x44000001
 bb0:	73616600 	cmnvc	r1, #0, 12
 bb4:	6e695f74 	mcrvs	15, 3, r5, cr9, cr4, {3}
 bb8:	72726574 	rsbsvc	r6, r2, #116, 10	; 0x1d000000
 bbc:	5f747075 	svcpl	0x00747075
 bc0:	74636576 	strbtvc	r6, [r3], #-1398	; 0x576
 bc4:	4900726f 	stmdbmi	r0, {r0, r1, r2, r3, r5, r6, r9, ip, sp, lr}
 bc8:	705f5152 	subsvc	r5, pc, r2, asr r1	; <UNPREDICTABLE>
 bcc:	69646e65 	stmdbvs	r4!, {r0, r2, r5, r6, r9, sl, fp, sp, lr}^
 bd0:	315f676e 	cmpcc	pc, lr, ror #14
 bd4:	7a697300 	bvc	1a5d7dc <__bss_end__+0x1a52ac4>
 bd8:	00745f65 	rsbseq	r5, r4, r5, ror #30
 bdc:	736d656d 	cmnvc	sp, #457179136	; 0x1b400000
 be0:	63007465 	movwvs	r7, #1125	; 0x465
 be4:	656e5f62 	strbvs	r5, [lr, #-3938]!	; 0xf62
 be8:	73630077 	cmnvc	r3, #119	; 0x77
 bec:	65303431 	ldrvs	r3, [r0, #-1073]!	; 0x431
 bf0:	6372732d 	cmnvs	r2, #-1275068416	; 0xb4000000
 bf4:	6e6f632f 	cdpvs	3, 6, cr6, cr15, cr15, {1}
 bf8:	6c6f7274 	sfmvs	f7, 2, [pc], #-464	; a30 <_start-0x75d0>
 bfc:	6f6c622d 	svcvs	0x006c622d
 c00:	632e6b63 	teqvs	lr, #101376	; 0x18c00
 c04:	31736300 	cmncc	r3, r0, lsl #6
 c08:	2d653034 	stclcs	0, cr3, [r5, #-208]!	; 0xffffff30
 c0c:	65746e69 	ldrbvs	r6, [r4, #-3689]!	; 0xe69
 c10:	70757272 	rsbsvc	r7, r5, r2, ror r2
 c14:	65642f74 	strbvs	r2, [r4, #-3956]!	; 0xf74
 c18:	6c756166 	ldfvse	f6, [r5], #-408	; 0xfffffe68
 c1c:	61682d74 	smcvs	33492	; 0x82d4
 c20:	656c646e 	strbvs	r6, [ip, #-1134]!	; 0x46e
 c24:	61642d72 	smcvs	17106	; 0x42d2
 c28:	612d6174 	teqvs	sp, r4, ror r1
 c2c:	74726f62 	ldrbtvc	r6, [r2], #-3938	; 0xf62
 c30:	6400632e 	strvs	r6, [r0], #-814	; 0x32e
 c34:	5f617461 	svcpl	0x00617461
 c38:	726f6261 	rsbvc	r6, pc, #268435462	; 0x10000006
 c3c:	65765f74 	ldrbvs	r5, [r6, #-3956]!	; 0xf74
 c40:	726f7463 	rsbvc	r7, pc, #1660944384	; 0x63000000
 c44:	31736300 	cmncc	r3, r0, lsl #6
 c48:	2d653034 	stclcs	0, cr3, [r5, #-208]!	; 0xffffff30
 c4c:	65746e69 	ldrbvs	r6, [r4, #-3689]!	; 0xe69
 c50:	70757272 	rsbsvc	r7, r5, r2, ror r2
 c54:	65642f74 	strbvs	r2, [r4, #-3956]!	; 0xf74
 c58:	6c756166 	ldfvse	f6, [r5], #-408	; 0xfffffe68
 c5c:	61682d74 	smcvs	33492	; 0x82d4
 c60:	656c646e 	strbvs	r6, [ip, #-1134]!	; 0x46e
 c64:	72702d72 	rsbsvc	r2, r0, #7296	; 0x1c80
 c68:	74656665 	strbtvc	r6, [r5], #-1637	; 0x665
 c6c:	632e6863 	teqvs	lr, #6488064	; 0x630000
 c70:	65727000 	ldrbvs	r7, [r2, #-0]!
 c74:	63746566 	cmnvs	r4, #427819008	; 0x19800000
 c78:	62615f68 	rsbvs	r5, r1, #104, 30	; 0x1a0
 c7c:	5f74726f 	svcpl	0x0074726f
 c80:	74636576 	strbtvc	r6, [r3], #-1398	; 0x576
 c84:	7200726f 	andvc	r7, r0, #-268435450	; 0xf0000006
 c88:	74657365 	strbtvc	r7, [r5], #-869	; 0x365
 c8c:	6365765f 	cmnvs	r5, #99614720	; 0x5f00000
 c90:	00726f74 	rsbseq	r6, r2, r4, ror pc
 c94:	34317363 	ldrtcc	r7, [r1], #-867	; 0x363
 c98:	692d6530 	pushvs	{r4, r5, r8, sl, sp, lr}
 c9c:	7265746e 	rsbvc	r7, r5, #1845493760	; 0x6e000000
 ca0:	74707572 	ldrbtvc	r7, [r0], #-1394	; 0x572
 ca4:	6665642f 	strbtvs	r6, [r5], -pc, lsr #8
 ca8:	746c7561 	strbtvc	r7, [ip], #-1377	; 0x561
 cac:	6e61682d 	cdpvs	8, 6, cr6, cr1, cr13, {1}
 cb0:	72656c64 	rsbvc	r6, r5, #100, 24	; 0x6400
 cb4:	7365722d 	cmnvc	r5, #-805306366	; 0xd0000002
 cb8:	632e7465 	teqvs	lr, #1694498816	; 0x65000000
 cbc:	31736300 	cmncc	r3, r0, lsl #6
 cc0:	2d653034 	stclcs	0, cr3, [r5, #-208]!	; 0xffffff30
 cc4:	65746e69 	ldrbvs	r6, [r4, #-3689]!	; 0xe69
 cc8:	70757272 	rsbsvc	r7, r5, r2, ror r2
 ccc:	65642f74 	strbvs	r2, [r4, #-3956]!	; 0xf74
 cd0:	6c756166 	ldfvse	f6, [r5], #-408	; 0xfffffe68
 cd4:	61682d74 	smcvs	33492	; 0x82d4
 cd8:	656c646e 	strbvs	r6, [ip, #-1134]!	; 0x46e
 cdc:	6e752d72 	mrcvs	13, 3, r2, cr5, cr2, {3}
 ce0:	69666564 	stmdbvs	r6!, {r2, r5, r6, r8, sl, sp, lr}^
 ce4:	2d64656e 	cfstr64cs	mvdx6, [r4, #-440]!	; 0xfffffe48
 ce8:	74736e69 	ldrbtvc	r6, [r3], #-3689	; 0xe69
 cec:	7500632e 	strvc	r6, [r0, #-814]	; 0x32e
 cf0:	6665646e 	strbtvs	r6, [r5], -lr, ror #8
 cf4:	64656e69 	strbtvs	r6, [r5], #-3689	; 0xe69
 cf8:	736e695f 	cmnvc	lr, #1556480	; 0x17c000
 cfc:	63757274 	cmnvs	r5, #116, 4	; 0x40000007
 d00:	6e6f6974 	mcrvs	9, 3, r6, cr15, cr4, {3}
 d04:	6365765f 	cmnvs	r5, #99614720	; 0x5f00000
 d08:	00726f74 	rsbseq	r6, r2, r4, ror pc
 d0c:	6362696c 	cmnvs	r2, #108, 18	; 0x1b0000
 d10:	6d656d2f 	stclvs	13, cr6, [r5, #-188]!	; 0xffffff44
 d14:	2e746573 	mrccs	5, 3, r6, cr4, cr3, {3}
 d18:	Address 0x0000000000000d18 is out of bounds.


Disassembly of section .debug_frame:

00000000 <.debug_frame>:
   0:	0000000c 	andeq	r0, r0, ip
   4:	ffffffff 			; <UNDEFINED> instruction: 0xffffffff
   8:	7c020001 	stcvc	0, cr0, [r2], {1}
   c:	000d0c0e 	andeq	r0, sp, lr, lsl #24
  10:	00000014 	andeq	r0, r0, r4, lsl r0
  14:	00000000 	andeq	r0, r0, r0
  18:	00008010 	andeq	r8, r0, r0, lsl r0
  1c:	00000050 	andeq	r0, r0, r0, asr r0
  20:	84080e42 	strhi	r0, [r8], #-3650	; 0xe42
  24:	00018e02 	andeq	r8, r1, r2, lsl #28
  28:	00000014 	andeq	r0, r0, r4, lsl r0
  2c:	00000000 	andeq	r0, r0, r0
  30:	00008060 	andeq	r8, r0, r0, rrx
  34:	0000028c 	andeq	r0, r0, ip, lsl #5
  38:	84040e42 	strhi	r0, [r4], #-3650	; 0xe42
  3c:	00000001 	andeq	r0, r0, r1
  40:	0000001c 	andeq	r0, r0, ip, lsl r0
  44:	00000000 	andeq	r0, r0, r0
  48:	000082ec 	andeq	r8, r0, ip, ror #5
  4c:	000000c8 	andeq	r0, r0, r8, asr #1
  50:	84180e42 	ldrhi	r0, [r8], #-3650	; 0xe42
  54:	86058506 	strhi	r8, [r5], -r6, lsl #10
  58:	88038704 	stmdahi	r3, {r2, r8, r9, sl, pc}
  5c:	00018e02 	andeq	r8, r1, r2, lsl #28
  60:	00000014 	andeq	r0, r0, r4, lsl r0
  64:	00000000 	andeq	r0, r0, r0
  68:	000083b4 			; <UNDEFINED> instruction: 0x000083b4
  6c:	00000738 	andeq	r0, r0, r8, lsr r7
  70:	83080e42 	movwhi	r0, #36418	; 0x8e42
  74:	00018e02 	andeq	r8, r1, r2, lsl #28
  78:	00000014 	andeq	r0, r0, r4, lsl r0
  7c:	00000000 	andeq	r0, r0, r0
  80:	00008aec 	andeq	r8, r0, ip, ror #21
  84:	00000044 	andeq	r0, r0, r4, asr #32
  88:	83080e42 	movwhi	r0, #36418	; 0x8e42
  8c:	00018e02 	andeq	r8, r1, r2, lsl #28
  90:	0000000c 	andeq	r0, r0, ip
  94:	ffffffff 			; <UNDEFINED> instruction: 0xffffffff
  98:	7c020001 	stcvc	0, cr0, [r2], {1}
  9c:	000d0c0e 	andeq	r0, sp, lr, lsl #24
  a0:	00000024 	andeq	r0, r0, r4, lsr #32
  a4:	00000090 	muleq	r0, r0, r0
  a8:	00008b30 	andeq	r8, r0, r0, lsr fp
  ac:	00000058 	andeq	r0, r0, r8, asr r0
  b0:	80100e42 	andshi	r0, r0, r2, asr #28
  b4:	82038104 	andhi	r8, r3, #4, 2
  b8:	42018302 	andmi	r8, r1, #134217728	; 0x8000000
  bc:	07841c0e 	streq	r1, [r4, lr, lsl #24]
  c0:	058e0685 	streq	r0, [lr, #1669]	; 0x685
  c4:	00280e42 	eoreq	r0, r8, r2, asr #28
  c8:	0000000c 	andeq	r0, r0, ip
  cc:	ffffffff 			; <UNDEFINED> instruction: 0xffffffff
  d0:	7c020001 	stcvc	0, cr0, [r2], {1}
  d4:	000d0c0e 	andeq	r0, sp, lr, lsl #24
  d8:	00000014 	andeq	r0, r0, r4, lsl r0
  dc:	000000c8 	andeq	r0, r0, r8, asr #1
  e0:	00008b88 	andeq	r8, r0, r8, lsl #23
  e4:	00000014 	andeq	r0, r0, r4, lsl r0
  e8:	84080e42 	strhi	r0, [r8], #-3650	; 0xe42
  ec:	00018e02 	andeq	r8, r1, r2, lsl #28
  f0:	0000000c 	andeq	r0, r0, ip
  f4:	000000c8 	andeq	r0, r0, r8, asr #1
  f8:	00008b9c 	muleq	r0, ip, fp
  fc:	00000018 	andeq	r0, r0, r8, lsl r0
 100:	0000000c 	andeq	r0, r0, ip
 104:	000000c8 	andeq	r0, r0, r8, asr #1
 108:	00008bb4 			; <UNDEFINED> instruction: 0x00008bb4
 10c:	00000010 	andeq	r0, r0, r0, lsl r0
 110:	0000000c 	andeq	r0, r0, ip
 114:	ffffffff 			; <UNDEFINED> instruction: 0xffffffff
 118:	7c020001 	stcvc	0, cr0, [r2], {1}
 11c:	000d0c0e 	andeq	r0, sp, lr, lsl #24
 120:	00000018 	andeq	r0, r0, r8, lsl r0
 124:	00000110 	andeq	r0, r0, r0, lsl r1
 128:	00008bc4 	andeq	r8, r0, r4, asr #23
 12c:	00000034 	andeq	r0, r0, r4, lsr r0
 130:	83100e42 	tsthi	r0, #1056	; 0x420
 134:	85038404 	strhi	r8, [r3, #-1028]	; 0x404
 138:	00018e02 	andeq	r8, r1, r2, lsl #28
 13c:	0000000c 	andeq	r0, r0, ip
 140:	ffffffff 			; <UNDEFINED> instruction: 0xffffffff
 144:	7c020001 	stcvc	0, cr0, [r2], {1}
 148:	000d0c0e 	andeq	r0, sp, lr, lsl #24
 14c:	0000000c 	andeq	r0, r0, ip
 150:	0000013c 	andeq	r0, r0, ip, lsr r1
 154:	00008bf8 	strdeq	r8, [r0], -r8	; <UNPREDICTABLE>
 158:	00000014 	andeq	r0, r0, r4, lsl r0
 15c:	0000000c 	andeq	r0, r0, ip
 160:	0000013c 	andeq	r0, r0, ip, lsr r1
 164:	00008c0c 	andeq	r8, r0, ip, lsl #24
 168:	0000002c 	andeq	r0, r0, ip, lsr #32
 16c:	0000000c 	andeq	r0, r0, ip
 170:	0000013c 	andeq	r0, r0, ip, lsr r1
 174:	00008c38 	andeq	r8, r0, r8, lsr ip
 178:	00000040 	andeq	r0, r0, r0, asr #32
 17c:	00000020 	andeq	r0, r0, r0, lsr #32
 180:	0000013c 	andeq	r0, r0, ip, lsr r1
 184:	00008c78 	andeq	r8, r0, r8, ror ip
 188:	000001a8 	andeq	r0, r0, r8, lsr #3
 18c:	84180e42 	ldrhi	r0, [r8], #-3650	; 0xe42
 190:	86058506 	strhi	r8, [r5], -r6, lsl #10
 194:	88038704 	stmdahi	r3, {r2, r8, r9, sl, pc}
 198:	42018e02 	andmi	r8, r1, #2, 28
 19c:	0000600e 	andeq	r6, r0, lr
 1a0:	00000014 	andeq	r0, r0, r4, lsl r0
 1a4:	0000013c 	andeq	r0, r0, ip, lsr r1
 1a8:	00008e20 	andeq	r8, r0, r0, lsr #28
 1ac:	00000068 	andeq	r0, r0, r8, rrx
 1b0:	8e040e42 	cdphi	14, 0, cr0, cr4, cr2, {2}
 1b4:	100e4201 	andne	r4, lr, r1, lsl #4
 1b8:	00000028 	andeq	r0, r0, r8, lsr #32
 1bc:	0000013c 	andeq	r0, r0, ip, lsr r1
 1c0:	00008e88 	andeq	r8, r0, r8, lsl #29
 1c4:	00000294 	muleq	r0, r4, r2
 1c8:	84240e42 	strthi	r0, [r4], #-3650	; 0xe42
 1cc:	86088509 	strhi	r8, [r8], -r9, lsl #10
 1d0:	88068707 	stmdahi	r6, {r0, r1, r2, r8, r9, sl, pc}
 1d4:	8a048905 	bhi	1225f0 <__bss_end__+0x1178d8>
 1d8:	8e028b03 	vmlahi.f64	d8, d2, d3
 1dc:	b00e4201 	andlt	r4, lr, r1, lsl #4
 1e0:	00000001 	andeq	r0, r0, r1
 1e4:	0000000c 	andeq	r0, r0, ip
 1e8:	ffffffff 			; <UNDEFINED> instruction: 0xffffffff
 1ec:	7c020001 	stcvc	0, cr0, [r2], {1}
 1f0:	000d0c0e 	andeq	r0, sp, lr, lsl #24
 1f4:	0000000c 	andeq	r0, r0, ip
 1f8:	000001e4 	andeq	r0, r0, r4, ror #3
 1fc:	0000911c 	andeq	r9, r0, ip, lsl r1
 200:	00000010 	andeq	r0, r0, r0, lsl r0
 204:	0000000c 	andeq	r0, r0, ip
 208:	000001e4 	andeq	r0, r0, r4, ror #3
 20c:	0000912c 	andeq	r9, r0, ip, lsr #2
 210:	00000010 	andeq	r0, r0, r0, lsl r0
 214:	0000000c 	andeq	r0, r0, ip
 218:	ffffffff 			; <UNDEFINED> instruction: 0xffffffff
 21c:	7c020001 	stcvc	0, cr0, [r2], {1}
 220:	000d0c0e 	andeq	r0, sp, lr, lsl #24
 224:	00000014 	andeq	r0, r0, r4, lsl r0
 228:	00000214 	andeq	r0, r0, r4, lsl r2
 22c:	0000913c 	andeq	r9, r0, ip, lsr r1
 230:	00000028 	andeq	r0, r0, r8, lsr #32
 234:	83080e42 	movwhi	r0, #36418	; 0x8e42
 238:	00018e02 	andeq	r8, r1, r2, lsl #28
 23c:	0000000c 	andeq	r0, r0, ip
 240:	ffffffff 			; <UNDEFINED> instruction: 0xffffffff
 244:	7c020001 	stcvc	0, cr0, [r2], {1}
 248:	000d0c0e 	andeq	r0, sp, lr, lsl #24
 24c:	00000014 	andeq	r0, r0, r4, lsl r0
 250:	0000023c 	andeq	r0, r0, ip, lsr r2
 254:	00009164 	andeq	r9, r0, r4, ror #2
 258:	00000020 	andeq	r0, r0, r0, lsr #32
 25c:	84080e42 	strhi	r0, [r8], #-3650	; 0xe42
 260:	00018e02 	andeq	r8, r1, r2, lsl #28
 264:	00000014 	andeq	r0, r0, r4, lsl r0
 268:	0000023c 	andeq	r0, r0, ip, lsr r2
 26c:	00009184 	andeq	r9, r0, r4, lsl #3
 270:	00000090 	muleq	r0, r0, r0
 274:	83080e42 	movwhi	r0, #36418	; 0x8e42
 278:	00018e02 	andeq	r8, r1, r2, lsl #28
 27c:	0000000c 	andeq	r0, r0, ip
 280:	ffffffff 			; <UNDEFINED> instruction: 0xffffffff
 284:	7c020001 	stcvc	0, cr0, [r2], {1}
 288:	000d0c0e 	andeq	r0, sp, lr, lsl #24
 28c:	0000000c 	andeq	r0, r0, ip
 290:	0000027c 	andeq	r0, r0, ip, ror r2
 294:	00009214 	andeq	r9, r0, r4, lsl r2
 298:	00000018 	andeq	r0, r0, r8, lsl r0
 29c:	0000000c 	andeq	r0, r0, ip
 2a0:	0000027c 	andeq	r0, r0, ip, ror r2
 2a4:	0000922c 	andeq	r9, r0, ip, lsr #4
 2a8:	00000014 	andeq	r0, r0, r4, lsl r0
 2ac:	00000014 	andeq	r0, r0, r4, lsl r0
 2b0:	0000027c 	andeq	r0, r0, ip, ror r2
 2b4:	00009240 	andeq	r9, r0, r0, asr #4
 2b8:	00000048 	andeq	r0, r0, r8, asr #32
 2bc:	83080e42 	movwhi	r0, #36418	; 0x8e42
 2c0:	00018e02 	andeq	r8, r1, r2, lsl #28
 2c4:	0000000c 	andeq	r0, r0, ip
 2c8:	ffffffff 			; <UNDEFINED> instruction: 0xffffffff
 2cc:	7c020001 	stcvc	0, cr0, [r2], {1}
 2d0:	000d0c0e 	andeq	r0, sp, lr, lsl #24
 2d4:	0000000c 	andeq	r0, r0, ip
 2d8:	000002c4 	andeq	r0, r0, r4, asr #5
 2dc:	00009288 	andeq	r9, r0, r8, lsl #5
 2e0:	0000001c 	andeq	r0, r0, ip, lsl r0
 2e4:	00000014 	andeq	r0, r0, r4, lsl r0
 2e8:	000002c4 	andeq	r0, r0, r4, asr #5
 2ec:	000092a4 	andeq	r9, r0, r4, lsr #5
 2f0:	00000014 	andeq	r0, r0, r4, lsl r0
 2f4:	83080e42 	movwhi	r0, #36418	; 0x8e42
 2f8:	00018e02 	andeq	r8, r1, r2, lsl #28
 2fc:	00000014 	andeq	r0, r0, r4, lsl r0
 300:	000002c4 	andeq	r0, r0, r4, asr #5
 304:	000092b8 			; <UNDEFINED> instruction: 0x000092b8
 308:	0000000c 	andeq	r0, r0, ip
 30c:	83080e42 	movwhi	r0, #36418	; 0x8e42
 310:	00018e02 	andeq	r8, r1, r2, lsl #28
 314:	00000018 	andeq	r0, r0, r8, lsl r0
 318:	000002c4 	andeq	r0, r0, r4, asr #5
 31c:	000092c4 	andeq	r9, r0, r4, asr #5
 320:	00000024 	andeq	r0, r0, r4, lsr #32
 324:	83100e42 	tsthi	r0, #1056	; 0x420
 328:	85038404 	strhi	r8, [r3, #-1028]	; 0x404
 32c:	00018e02 	andeq	r8, r1, r2, lsl #28
 330:	00000014 	andeq	r0, r0, r4, lsl r0
 334:	000002c4 	andeq	r0, r0, r4, asr #5
 338:	000092e8 	andeq	r9, r0, r8, ror #5
 33c:	00000014 	andeq	r0, r0, r4, lsl r0
 340:	83080e42 	movwhi	r0, #36418	; 0x8e42
 344:	00018e02 	andeq	r8, r1, r2, lsl #28
 348:	00000014 	andeq	r0, r0, r4, lsl r0
 34c:	000002c4 	andeq	r0, r0, r4, asr #5
 350:	000092fc 	strdeq	r9, [r0], -ip
 354:	00000014 	andeq	r0, r0, r4, lsl r0
 358:	83080e42 	movwhi	r0, #36418	; 0x8e42
 35c:	00018e02 	andeq	r8, r1, r2, lsl #28
 360:	0000000c 	andeq	r0, r0, ip
 364:	ffffffff 			; <UNDEFINED> instruction: 0xffffffff
 368:	7c020001 	stcvc	0, cr0, [r2], {1}
 36c:	000d0c0e 	andeq	r0, sp, lr, lsl #24
 370:	00000018 	andeq	r0, r0, r8, lsl r0
 374:	00000360 	andeq	r0, r0, r0, ror #6
 378:	00009310 	andeq	r9, r0, r0, lsl r3
 37c:	000000d4 	ldrdeq	r0, [r0], -r4
 380:	83100e42 	tsthi	r0, #1056	; 0x420
 384:	85038404 	strhi	r8, [r3, #-1028]	; 0x404
 388:	00018e02 	andeq	r8, r1, r2, lsl #28
 38c:	00000014 	andeq	r0, r0, r4, lsl r0
 390:	00000360 	andeq	r0, r0, r0, ror #6
 394:	000093e4 	andeq	r9, r0, r4, ror #7
 398:	00000038 	andeq	r0, r0, r8, lsr r0
 39c:	83080e42 	movwhi	r0, #36418	; 0x8e42
 3a0:	00018e02 	andeq	r8, r1, r2, lsl #28
 3a4:	00000014 	andeq	r0, r0, r4, lsl r0
 3a8:	00000360 	andeq	r0, r0, r0, ror #6
 3ac:	0000941c 	andeq	r9, r0, ip, lsl r4
 3b0:	00000038 	andeq	r0, r0, r8, lsr r0
 3b4:	83080e42 	movwhi	r0, #36418	; 0x8e42
 3b8:	00018e02 	andeq	r8, r1, r2, lsl #28
 3bc:	00000018 	andeq	r0, r0, r8, lsl r0
 3c0:	00000360 	andeq	r0, r0, r0, ror #6
 3c4:	00009454 	andeq	r9, r0, r4, asr r4
 3c8:	000000cc 	andeq	r0, r0, ip, asr #1
 3cc:	83100e42 	tsthi	r0, #1056	; 0x420
 3d0:	85038404 	strhi	r8, [r3, #-1028]	; 0x404
 3d4:	00018e02 	andeq	r8, r1, r2, lsl #28
 3d8:	00000014 	andeq	r0, r0, r4, lsl r0
 3dc:	00000360 	andeq	r0, r0, r0, ror #6
 3e0:	00009520 	andeq	r9, r0, r0, lsr #10
 3e4:	0000004c 	andeq	r0, r0, ip, asr #32
 3e8:	84080e42 	strhi	r0, [r8], #-3650	; 0xe42
 3ec:	00018e02 	andeq	r8, r1, r2, lsl #28
 3f0:	00000014 	andeq	r0, r0, r4, lsl r0
 3f4:	00000360 	andeq	r0, r0, r0, ror #6
 3f8:	0000956c 	andeq	r9, r0, ip, ror #10
 3fc:	00000024 	andeq	r0, r0, r4, lsr #32
 400:	83080e42 	movwhi	r0, #36418	; 0x8e42
 404:	00018e02 	andeq	r8, r1, r2, lsl #28
 408:	00000018 	andeq	r0, r0, r8, lsl r0
 40c:	00000360 	andeq	r0, r0, r0, ror #6
 410:	00009590 	muleq	r0, r0, r5
 414:	000000d8 	ldrdeq	r0, [r0], -r8
 418:	84100e42 	ldrhi	r0, [r0], #-3650	; 0xe42
 41c:	86038504 	strhi	r8, [r3], -r4, lsl #10
 420:	00018e02 	andeq	r8, r1, r2, lsl #28
 424:	00000014 	andeq	r0, r0, r4, lsl r0
 428:	00000360 	andeq	r0, r0, r0, ror #6
 42c:	00009668 	andeq	r9, r0, r8, ror #12
 430:	00000038 	andeq	r0, r0, r8, lsr r0
 434:	83080e42 	movwhi	r0, #36418	; 0x8e42
 438:	00018e02 	andeq	r8, r1, r2, lsl #28
 43c:	00000014 	andeq	r0, r0, r4, lsl r0
 440:	00000360 	andeq	r0, r0, r0, ror #6
 444:	000096a0 	andeq	r9, r0, r0, lsr #13
 448:	0000002c 	andeq	r0, r0, ip, lsr #32
 44c:	83080e42 	movwhi	r0, #36418	; 0x8e42
 450:	00018e02 	andeq	r8, r1, r2, lsl #28
 454:	00000018 	andeq	r0, r0, r8, lsl r0
 458:	00000360 	andeq	r0, r0, r0, ror #6
 45c:	000096cc 	andeq	r9, r0, ip, asr #13
 460:	00000084 	andeq	r0, r0, r4, lsl #1
 464:	83100e42 	tsthi	r0, #1056	; 0x420
 468:	85038404 	strhi	r8, [r3, #-1028]	; 0x404
 46c:	00018e02 	andeq	r8, r1, r2, lsl #28
 470:	00000018 	andeq	r0, r0, r8, lsl r0
 474:	00000360 	andeq	r0, r0, r0, ror #6
 478:	00009750 	andeq	r9, r0, r0, asr r7
 47c:	00000084 	andeq	r0, r0, r4, lsl #1
 480:	83100e42 	tsthi	r0, #1056	; 0x420
 484:	85038404 	strhi	r8, [r3, #-1028]	; 0x404
 488:	00018e02 	andeq	r8, r1, r2, lsl #28
 48c:	00000014 	andeq	r0, r0, r4, lsl r0
 490:	00000360 	andeq	r0, r0, r0, ror #6
 494:	000097d4 	ldrdeq	r9, [r0], -r4
 498:	00000084 	andeq	r0, r0, r4, lsl #1
 49c:	84080e42 	strhi	r0, [r8], #-3650	; 0xe42
 4a0:	00018e02 	andeq	r8, r1, r2, lsl #28
 4a4:	00000014 	andeq	r0, r0, r4, lsl r0
 4a8:	00000360 	andeq	r0, r0, r0, ror #6
 4ac:	00009858 	andeq	r9, r0, r8, asr r8
 4b0:	00000058 	andeq	r0, r0, r8, asr r0
 4b4:	84080e42 	strhi	r0, [r8], #-3650	; 0xe42
 4b8:	00018e02 	andeq	r8, r1, r2, lsl #28
 4bc:	0000000c 	andeq	r0, r0, ip
 4c0:	ffffffff 			; <UNDEFINED> instruction: 0xffffffff
 4c4:	7c020001 	stcvc	0, cr0, [r2], {1}
 4c8:	000d0c0e 	andeq	r0, sp, lr, lsl #24
 4cc:	0000001c 	andeq	r0, r0, ip, lsl r0
 4d0:	000004bc 			; <UNDEFINED> instruction: 0x000004bc
 4d4:	000098b0 			; <UNDEFINED> instruction: 0x000098b0
 4d8:	00000154 	andeq	r0, r0, r4, asr r1
 4dc:	84180e42 	ldrhi	r0, [r8], #-3650	; 0xe42
 4e0:	86058506 	strhi	r8, [r5], -r6, lsl #10
 4e4:	88038704 	stmdahi	r3, {r2, r8, r9, sl, pc}
 4e8:	00018e02 	andeq	r8, r1, r2, lsl #28
 4ec:	00000020 	andeq	r0, r0, r0, lsr #32
 4f0:	000004bc 			; <UNDEFINED> instruction: 0x000004bc
 4f4:	00009a04 	andeq	r9, r0, r4, lsl #20
 4f8:	000001c8 	andeq	r0, r0, r8, asr #3
 4fc:	83200e42 	teqhi	r0, #1056	; 0x420
 500:	85078408 	strhi	r8, [r7, #-1032]	; 0x408
 504:	87058606 	strhi	r8, [r5, -r6, lsl #12]
 508:	89038804 	stmdbhi	r3, {r2, fp, pc}
 50c:	00018e02 	andeq	r8, r1, r2, lsl #28
 510:	00000024 	andeq	r0, r0, r4, lsr #32
 514:	000004bc 			; <UNDEFINED> instruction: 0x000004bc
 518:	00009bcc 	andeq	r9, r0, ip, asr #23
 51c:	000000a4 	andeq	r0, r0, r4, lsr #1
 520:	84200e42 	strthi	r0, [r0], #-3650	; 0xe42
 524:	86078508 	strhi	r8, [r7], -r8, lsl #10
 528:	88058706 	stmdahi	r5, {r1, r2, r8, r9, sl, pc}
 52c:	8a038904 	bhi	e2944 <__bss_end__+0xd7c2c>
 530:	42018e02 	andmi	r8, r1, #2, 28
 534:	0000280e 	andeq	r2, r0, lr, lsl #16
 538:	00000020 	andeq	r0, r0, r0, lsr #32
 53c:	000004bc 			; <UNDEFINED> instruction: 0x000004bc
 540:	00009c70 	andeq	r9, r0, r0, ror ip
 544:	00000090 	muleq	r0, r0, r0
 548:	84180e42 	ldrhi	r0, [r8], #-3650	; 0xe42
 54c:	86058506 	strhi	r8, [r5], -r6, lsl #10
 550:	88038704 	stmdahi	r3, {r2, r8, r9, sl, pc}
 554:	42018e02 	andmi	r8, r1, #2, 28
 558:	0000200e 	andeq	r2, r0, lr
 55c:	00000020 	andeq	r0, r0, r0, lsr #32
 560:	000004bc 			; <UNDEFINED> instruction: 0x000004bc
 564:	00009d00 	andeq	r9, r0, r0, lsl #26
 568:	000000d4 	ldrdeq	r0, [r0], -r4
 56c:	84180e42 	ldrhi	r0, [r8], #-3650	; 0xe42
 570:	86058506 	strhi	r8, [r5], -r6, lsl #10
 574:	88038704 	stmdahi	r3, {r2, r8, r9, sl, pc}
 578:	42018e02 	andmi	r8, r1, #2, 28
 57c:	0000200e 	andeq	r2, r0, lr
 580:	00000014 	andeq	r0, r0, r4, lsl r0
 584:	000004bc 			; <UNDEFINED> instruction: 0x000004bc
 588:	00009dd4 	ldrdeq	r9, [r0], -r4
 58c:	0000003c 	andeq	r0, r0, ip, lsr r0
 590:	83080e42 	movwhi	r0, #36418	; 0x8e42
 594:	00018e02 	andeq	r8, r1, r2, lsl #28
 598:	00000018 	andeq	r0, r0, r8, lsl r0
 59c:	000004bc 			; <UNDEFINED> instruction: 0x000004bc
 5a0:	00009e10 	andeq	r9, r0, r0, lsl lr
 5a4:	0000002c 	andeq	r0, r0, ip, lsr #32
 5a8:	83100e42 	tsthi	r0, #1056	; 0x420
 5ac:	85038404 	strhi	r8, [r3, #-1028]	; 0x404
 5b0:	00018e02 	andeq	r8, r1, r2, lsl #28
 5b4:	00000024 	andeq	r0, r0, r4, lsr #32
 5b8:	000004bc 			; <UNDEFINED> instruction: 0x000004bc
 5bc:	00009e3c 	andeq	r9, r0, ip, lsr lr
 5c0:	00000090 	muleq	r0, r0, r0
 5c4:	810c0e42 	tsthi	ip, r2, asr #28
 5c8:	83028203 	movwhi	r8, #8707	; 0x2203
 5cc:	180e4201 	stmdane	lr, {r0, r9, lr}
 5d0:	05850684 	streq	r0, [r5, #1668]	; 0x684
 5d4:	0e42048e 	cdpeq	4, 4, cr0, cr2, cr14, {4}
 5d8:	000003f0 	strdeq	r0, [r0], -r0	; <UNPREDICTABLE>
 5dc:	00000014 	andeq	r0, r0, r4, lsl r0
 5e0:	000004bc 			; <UNDEFINED> instruction: 0x000004bc
 5e4:	00009ecc 	andeq	r9, r0, ip, asr #29
 5e8:	0000004c 	andeq	r0, r0, ip, asr #32
 5ec:	8e040e42 	cdphi	14, 0, cr0, cr4, cr2, {2}
 5f0:	100e4201 	andne	r4, lr, r1, lsl #4
 5f4:	0000000c 	andeq	r0, r0, ip
 5f8:	ffffffff 			; <UNDEFINED> instruction: 0xffffffff
 5fc:	7c020001 	stcvc	0, cr0, [r2], {1}
 600:	000d0c0e 	andeq	r0, sp, lr, lsl #24
 604:	00000018 	andeq	r0, r0, r8, lsl r0
 608:	000005f4 	strdeq	r0, [r0], -r4
 60c:	00009f18 	andeq	r9, r0, r8, lsl pc
 610:	0000009c 	muleq	r0, ip, r0
 614:	83100e42 	tsthi	r0, #1056	; 0x420
 618:	85038404 	strhi	r8, [r3, #-1028]	; 0x404
 61c:	00018e02 	andeq	r8, r1, r2, lsl #28
 620:	00000014 	andeq	r0, r0, r4, lsl r0
 624:	000005f4 	strdeq	r0, [r0], -r4
 628:	00009fb4 			; <UNDEFINED> instruction: 0x00009fb4
 62c:	0000001c 	andeq	r0, r0, ip, lsl r0
 630:	83080e42 	movwhi	r0, #36418	; 0x8e42
 634:	00018e02 	andeq	r8, r1, r2, lsl #28
 638:	00000014 	andeq	r0, r0, r4, lsl r0
 63c:	000005f4 	strdeq	r0, [r0], -r4
 640:	00009fd0 	ldrdeq	r9, [r0], -r0
 644:	00000028 	andeq	r0, r0, r8, lsr #32
 648:	83080e42 	movwhi	r0, #36418	; 0x8e42
 64c:	00018e02 	andeq	r8, r1, r2, lsl #28
 650:	00000014 	andeq	r0, r0, r4, lsl r0
 654:	000005f4 	strdeq	r0, [r0], -r4
 658:	00009ff8 	strdeq	r9, [r0], -r8
 65c:	0000001c 	andeq	r0, r0, ip, lsl r0
 660:	83080e42 	movwhi	r0, #36418	; 0x8e42
 664:	00018e02 	andeq	r8, r1, r2, lsl #28
 668:	00000014 	andeq	r0, r0, r4, lsl r0
 66c:	000005f4 	strdeq	r0, [r0], -r4
 670:	0000a014 	andeq	sl, r0, r4, lsl r0
 674:	0000002c 	andeq	r0, r0, ip, lsr #32
 678:	84080e42 	strhi	r0, [r8], #-3650	; 0xe42
 67c:	00018e02 	andeq	r8, r1, r2, lsl #28
 680:	00000014 	andeq	r0, r0, r4, lsl r0
 684:	000005f4 	strdeq	r0, [r0], -r4
 688:	0000a040 	andeq	sl, r0, r0, asr #32
 68c:	0000000c 	andeq	r0, r0, ip
 690:	83080e42 	movwhi	r0, #36418	; 0x8e42
 694:	00018e02 	andeq	r8, r1, r2, lsl #28
 698:	00000014 	andeq	r0, r0, r4, lsl r0
 69c:	000005f4 	strdeq	r0, [r0], -r4
 6a0:	0000a04c 	andeq	sl, r0, ip, asr #32
 6a4:	00000020 	andeq	r0, r0, r0, lsr #32
 6a8:	83080e42 	movwhi	r0, #36418	; 0x8e42
 6ac:	00018e02 	andeq	r8, r1, r2, lsl #28
 6b0:	0000000c 	andeq	r0, r0, ip
 6b4:	ffffffff 			; <UNDEFINED> instruction: 0xffffffff
 6b8:	7c020001 	stcvc	0, cr0, [r2], {1}
 6bc:	000d0c0e 	andeq	r0, sp, lr, lsl #24
 6c0:	00000014 	andeq	r0, r0, r4, lsl r0
 6c4:	000006b0 			; <UNDEFINED> instruction: 0x000006b0
 6c8:	0000a06c 	andeq	sl, r0, ip, rrx
 6cc:	00000068 	andeq	r0, r0, r8, rrx
 6d0:	83080e42 	movwhi	r0, #36418	; 0x8e42
 6d4:	00018e02 	andeq	r8, r1, r2, lsl #28
 6d8:	00000014 	andeq	r0, r0, r4, lsl r0
 6dc:	000006b0 			; <UNDEFINED> instruction: 0x000006b0
 6e0:	0000a0d4 	ldrdeq	sl, [r0], -r4
 6e4:	00000044 	andeq	r0, r0, r4, asr #32
 6e8:	8e040e42 	cdphi	14, 0, cr0, cr4, cr2, {2}
 6ec:	100e4201 	andne	r4, lr, r1, lsl #4
 6f0:	0000000c 	andeq	r0, r0, ip
 6f4:	ffffffff 			; <UNDEFINED> instruction: 0xffffffff
 6f8:	7c020001 	stcvc	0, cr0, [r2], {1}
 6fc:	000d0c0e 	andeq	r0, sp, lr, lsl #24
 700:	00000014 	andeq	r0, r0, r4, lsl r0
 704:	000006f0 	strdeq	r0, [r0], -r0	; <UNPREDICTABLE>
 708:	0000a268 	andeq	sl, r0, r8, ror #4
 70c:	00000028 	andeq	r0, r0, r8, lsr #32
 710:	83080e42 	movwhi	r0, #36418	; 0x8e42
 714:	00018e02 	andeq	r8, r1, r2, lsl #28
 718:	0000000c 	andeq	r0, r0, ip
 71c:	000006f0 	strdeq	r0, [r0], -r0	; <UNPREDICTABLE>
 720:	0000a290 	muleq	r0, r0, r2
 724:	00000028 	andeq	r0, r0, r8, lsr #32
 728:	0000000c 	andeq	r0, r0, ip
 72c:	ffffffff 			; <UNDEFINED> instruction: 0xffffffff
 730:	7c020001 	stcvc	0, cr0, [r2], {1}
 734:	000d0c0e 	andeq	r0, sp, lr, lsl #24
 738:	00000014 	andeq	r0, r0, r4, lsl r0
 73c:	00000728 	andeq	r0, r0, r8, lsr #14
 740:	0000a2b8 			; <UNDEFINED> instruction: 0x0000a2b8
 744:	00000044 	andeq	r0, r0, r4, asr #32
 748:	8e040e42 	cdphi	14, 0, cr0, cr4, cr2, {2}
 74c:	100e4201 	andne	r4, lr, r1, lsl #4
 750:	0000000c 	andeq	r0, r0, ip
 754:	ffffffff 			; <UNDEFINED> instruction: 0xffffffff
 758:	7c020001 	stcvc	0, cr0, [r2], {1}
 75c:	000d0c0e 	andeq	r0, sp, lr, lsl #24
 760:	00000014 	andeq	r0, r0, r4, lsl r0
 764:	00000750 	andeq	r0, r0, r0, asr r7
 768:	0000a2fc 	strdeq	sl, [r0], -ip
 76c:	00000044 	andeq	r0, r0, r4, asr #32
 770:	8e040e42 	cdphi	14, 0, cr0, cr4, cr2, {2}
 774:	100e4201 	andne	r4, lr, r1, lsl #4
 778:	0000000c 	andeq	r0, r0, ip
 77c:	ffffffff 			; <UNDEFINED> instruction: 0xffffffff
 780:	7c020001 	stcvc	0, cr0, [r2], {1}
 784:	000d0c0e 	andeq	r0, sp, lr, lsl #24
 788:	00000014 	andeq	r0, r0, r4, lsl r0
 78c:	00000778 	andeq	r0, r0, r8, ror r7
 790:	0000a340 	andeq	sl, r0, r0, asr #6
 794:	00000044 	andeq	r0, r0, r4, asr #32
 798:	8e040e42 	cdphi	14, 0, cr0, cr4, cr2, {2}
 79c:	100e4201 	andne	r4, lr, r1, lsl #4
 7a0:	0000000c 	andeq	r0, r0, ip
 7a4:	ffffffff 			; <UNDEFINED> instruction: 0xffffffff
 7a8:	7c020001 	stcvc	0, cr0, [r2], {1}
 7ac:	000d0c0e 	andeq	r0, sp, lr, lsl #24
 7b0:	00000014 	andeq	r0, r0, r4, lsl r0
 7b4:	000007a0 	andeq	r0, r0, r0, lsr #15
 7b8:	0000a384 	andeq	sl, r0, r4, lsl #7
 7bc:	00000044 	andeq	r0, r0, r4, asr #32
 7c0:	8e040e42 	cdphi	14, 0, cr0, cr4, cr2, {2}
 7c4:	100e4201 	andne	r4, lr, r1, lsl #4
 7c8:	0000000c 	andeq	r0, r0, ip
 7cc:	ffffffff 			; <UNDEFINED> instruction: 0xffffffff
 7d0:	7c020001 	stcvc	0, cr0, [r2], {1}
 7d4:	000d0c0e 	andeq	r0, sp, lr, lsl #24
 7d8:	0000000c 	andeq	r0, r0, ip
 7dc:	000007c8 	andeq	r0, r0, r8, asr #15
 7e0:	0000a3c8 	andeq	sl, r0, r8, asr #7
 7e4:	00000020 	andeq	r0, r0, r0, lsr #32

Disassembly of section .debug_ranges:

00000000 <.debug_ranges>:
   0:	000002b4 			; <UNDEFINED> instruction: 0x000002b4
   4:	000002b8 			; <UNDEFINED> instruction: 0x000002b8
   8:	000002e8 	andeq	r0, r0, r8, ror #5
   c:	000004e0 	andeq	r0, r0, r0, ror #9
	...
  18:	00009214 	andeq	r9, r0, r4, lsl r2
  1c:	00009288 	andeq	r9, r0, r8, lsl #5
	...
