
2-logic-analyzer.elf:     file format elf32-littlearm


Disassembly of section .text:

00008000 <_start>:
    8000:	e3a0d302 	mov	sp, #134217728	; 0x8000000
    8004:	e3a0b000 	mov	fp, #0
    8008:	eb0003a2 	bl	8e98 <_cstart>
    800c:	eb0003b9 	bl	8ef8 <rpi_reboot>

00008010 <client>:
    8010:	e92d47f0 	push	{r4, r5, r6, r7, r8, r9, sl, lr}
    8014:	e1a04000 	mov	r4, r0
    8018:	e1a0a002 	mov	sl, r2
    801c:	e59f0370 	ldr	r0, [pc, #880]	; 8394 <client+0x384>
    8020:	eb00021a 	bl	8890 <printk>
    8024:	eb0005e8 	bl	97cc <system_enable_interrupts>
    8028:	e59f3368 	ldr	r3, [pc, #872]	; 8398 <client+0x388>
    802c:	e593201c 	ldr	r2, [r3, #28]
    8030:	e3a01001 	mov	r1, #1
    8034:	e1824411 	orr	r4, r2, r1, lsl r4
    8038:	e583401c 	str	r4, [r3, #28]
    803c:	e59f4358 	ldr	r4, [pc, #856]	; 839c <client+0x38c>
    8040:	e59f6358 	ldr	r6, [pc, #856]	; 83a0 <client+0x390>
    8044:	e59f8358 	ldr	r8, [pc, #856]	; 83a4 <client+0x394>
    8048:	e59f7358 	ldr	r7, [pc, #856]	; 83a8 <client+0x398>
    804c:	e3a09000 	mov	r9, #0
    8050:	e1a05003 	mov	r5, r3
    8054:	ea0000ca 	b	8384 <client+0x374>
    8058:	e7962008 	ldr	r2, [r6, r8]
    805c:	e7963007 	ldr	r3, [r6, r7]
    8060:	e1520003 	cmp	r2, r3
    8064:	0a000008 	beq	808c <client+0x7c>
    8068:	e7963007 	ldr	r3, [r6, r7]
    806c:	e7d62003 	ldrb	r2, [r6, r3]
    8070:	e6ef2072 	uxtb	r2, r2
    8074:	e2833001 	add	r3, r3, #1
    8078:	e1a03983 	lsl	r3, r3, #19
    807c:	e1a039a3 	lsr	r3, r3, #19
    8080:	e7863007 	str	r3, [r6, r7]
    8084:	e3a03001 	mov	r3, #1
    8088:	ea000001 	b	8094 <client+0x84>
    808c:	e1a02009 	mov	r2, r9
    8090:	e1a03009 	mov	r3, r9
    8094:	e3530000 	cmp	r3, #0
    8098:	1a000006 	bne	80b8 <client+0xa8>
    809c:	eb000216 	bl	88fc <rpi_reset_putc>
    80a0:	e59f0304 	ldr	r0, [pc, #772]	; 83ac <client+0x39c>
    80a4:	e59f1304 	ldr	r1, [pc, #772]	; 83b0 <client+0x3a0>
    80a8:	e59f2304 	ldr	r2, [pc, #772]	; 83b4 <client+0x3a4>
    80ac:	e3a03051 	mov	r3, #81	; 0x51
    80b0:	eb0001f6 	bl	8890 <printk>
    80b4:	eb00036d 	bl	8e70 <clean_reboot>
    80b8:	e584201c 	str	r2, [r4, #28]
    80bc:	eb0005c6 	bl	97dc <system_disable_interrupts>
    80c0:	e594101c 	ldr	r1, [r4, #28]
    80c4:	e6ef1071 	uxtb	r1, r1
    80c8:	ee1f3f3c 	mrc	15, 0, r3, cr15, cr12, {1}
    80cc:	e3a0e001 	mov	lr, #1
    80d0:	e595c034 	ldr	ip, [r5, #52]	; 0x34
    80d4:	e5942020 	ldr	r2, [r4, #32]
    80d8:	e1a0021e 	lsl	r0, lr, r2
    80dc:	e00cc000 	and	ip, ip, r0
    80e0:	e1b0c23c 	lsrs	ip, ip, r2
    80e4:	0afffff9 	beq	80d0 <client+0xc0>
    80e8:	e5952028 	ldr	r2, [r5, #40]	; 0x28
    80ec:	e1800002 	orr	r0, r0, r2
    80f0:	e5850028 	str	r0, [r5, #40]	; 0x28
    80f4:	ee1f0f3c 	mrc	15, 0, r0, cr15, cr12, {1}
    80f8:	e0630000 	rsb	r0, r3, r0
    80fc:	e594202c 	ldr	r2, [r4, #44]	; 0x2c
    8100:	e1500002 	cmp	r0, r2
    8104:	3afffffa 	bcc	80f4 <client+0xe4>
    8108:	e5942020 	ldr	r2, [r4, #32]
    810c:	e3110080 	tst	r1, #128	; 0x80
    8110:	0a000004 	beq	8128 <client+0x118>
    8114:	e595001c 	ldr	r0, [r5, #28]
    8118:	e3a0c001 	mov	ip, #1
    811c:	e180221c 	orr	r2, r0, ip, lsl r2
    8120:	e585201c 	str	r2, [r5, #28]
    8124:	ea000003 	b	8138 <client+0x128>
    8128:	e5950028 	ldr	r0, [r5, #40]	; 0x28
    812c:	e3a0c001 	mov	ip, #1
    8130:	e180221c 	orr	r2, r0, ip, lsl r2
    8134:	e5852028 	str	r2, [r5, #40]	; 0x28
    8138:	ee1f2f3c 	mrc	15, 0, r2, cr15, cr12, {1}
    813c:	e0632002 	rsb	r2, r3, r2
    8140:	e594002c 	ldr	r0, [r4, #44]	; 0x2c
    8144:	e1520080 	cmp	r2, r0, lsl #1
    8148:	3afffffa 	bcc	8138 <client+0x128>
    814c:	e5942020 	ldr	r2, [r4, #32]
    8150:	e3110040 	tst	r1, #64	; 0x40
    8154:	0a000004 	beq	816c <client+0x15c>
    8158:	e595001c 	ldr	r0, [r5, #28]
    815c:	e3a0c001 	mov	ip, #1
    8160:	e180221c 	orr	r2, r0, ip, lsl r2
    8164:	e585201c 	str	r2, [r5, #28]
    8168:	ea000003 	b	817c <client+0x16c>
    816c:	e5950028 	ldr	r0, [r5, #40]	; 0x28
    8170:	e3a0c001 	mov	ip, #1
    8174:	e180221c 	orr	r2, r0, ip, lsl r2
    8178:	e5852028 	str	r2, [r5, #40]	; 0x28
    817c:	ee1f0f3c 	mrc	15, 0, r0, cr15, cr12, {1}
    8180:	e0630000 	rsb	r0, r3, r0
    8184:	e594202c 	ldr	r2, [r4, #44]	; 0x2c
    8188:	e0822082 	add	r2, r2, r2, lsl #1
    818c:	e1500002 	cmp	r0, r2
    8190:	3afffff9 	bcc	817c <client+0x16c>
    8194:	e5942020 	ldr	r2, [r4, #32]
    8198:	e3110020 	tst	r1, #32
    819c:	0a000004 	beq	81b4 <client+0x1a4>
    81a0:	e595001c 	ldr	r0, [r5, #28]
    81a4:	e3a0c001 	mov	ip, #1
    81a8:	e180221c 	orr	r2, r0, ip, lsl r2
    81ac:	e585201c 	str	r2, [r5, #28]
    81b0:	ea000003 	b	81c4 <client+0x1b4>
    81b4:	e5950028 	ldr	r0, [r5, #40]	; 0x28
    81b8:	e3a0c001 	mov	ip, #1
    81bc:	e180221c 	orr	r2, r0, ip, lsl r2
    81c0:	e5852028 	str	r2, [r5, #40]	; 0x28
    81c4:	ee1f2f3c 	mrc	15, 0, r2, cr15, cr12, {1}
    81c8:	e0632002 	rsb	r2, r3, r2
    81cc:	e594002c 	ldr	r0, [r4, #44]	; 0x2c
    81d0:	e1520100 	cmp	r2, r0, lsl #2
    81d4:	3afffffa 	bcc	81c4 <client+0x1b4>
    81d8:	e5942020 	ldr	r2, [r4, #32]
    81dc:	e3110010 	tst	r1, #16
    81e0:	0a000004 	beq	81f8 <client+0x1e8>
    81e4:	e595001c 	ldr	r0, [r5, #28]
    81e8:	e3a0c001 	mov	ip, #1
    81ec:	e180221c 	orr	r2, r0, ip, lsl r2
    81f0:	e585201c 	str	r2, [r5, #28]
    81f4:	ea000003 	b	8208 <client+0x1f8>
    81f8:	e5950028 	ldr	r0, [r5, #40]	; 0x28
    81fc:	e3a0c001 	mov	ip, #1
    8200:	e180221c 	orr	r2, r0, ip, lsl r2
    8204:	e5852028 	str	r2, [r5, #40]	; 0x28
    8208:	ee1f0f3c 	mrc	15, 0, r0, cr15, cr12, {1}
    820c:	e0630000 	rsb	r0, r3, r0
    8210:	e594202c 	ldr	r2, [r4, #44]	; 0x2c
    8214:	e0822102 	add	r2, r2, r2, lsl #2
    8218:	e1500002 	cmp	r0, r2
    821c:	3afffff9 	bcc	8208 <client+0x1f8>
    8220:	e5942020 	ldr	r2, [r4, #32]
    8224:	e3110008 	tst	r1, #8
    8228:	0a000004 	beq	8240 <client+0x230>
    822c:	e595001c 	ldr	r0, [r5, #28]
    8230:	e3a0c001 	mov	ip, #1
    8234:	e180221c 	orr	r2, r0, ip, lsl r2
    8238:	e585201c 	str	r2, [r5, #28]
    823c:	ea000003 	b	8250 <client+0x240>
    8240:	e5950028 	ldr	r0, [r5, #40]	; 0x28
    8244:	e3a0c001 	mov	ip, #1
    8248:	e180221c 	orr	r2, r0, ip, lsl r2
    824c:	e5852028 	str	r2, [r5, #40]	; 0x28
    8250:	ee1f0f3c 	mrc	15, 0, r0, cr15, cr12, {1}
    8254:	e0630000 	rsb	r0, r3, r0
    8258:	e594202c 	ldr	r2, [r4, #44]	; 0x2c
    825c:	e0822082 	add	r2, r2, r2, lsl #1
    8260:	e1a02082 	lsl	r2, r2, #1
    8264:	e1500002 	cmp	r0, r2
    8268:	3afffff8 	bcc	8250 <client+0x240>
    826c:	e5942020 	ldr	r2, [r4, #32]
    8270:	e3110004 	tst	r1, #4
    8274:	0a000004 	beq	828c <client+0x27c>
    8278:	e595001c 	ldr	r0, [r5, #28]
    827c:	e3a0c001 	mov	ip, #1
    8280:	e180221c 	orr	r2, r0, ip, lsl r2
    8284:	e585201c 	str	r2, [r5, #28]
    8288:	ea000003 	b	829c <client+0x28c>
    828c:	e5950028 	ldr	r0, [r5, #40]	; 0x28
    8290:	e3a0c001 	mov	ip, #1
    8294:	e180221c 	orr	r2, r0, ip, lsl r2
    8298:	e5852028 	str	r2, [r5, #40]	; 0x28
    829c:	ee1f0f3c 	mrc	15, 0, r0, cr15, cr12, {1}
    82a0:	e0630000 	rsb	r0, r3, r0
    82a4:	e594202c 	ldr	r2, [r4, #44]	; 0x2c
    82a8:	e0622182 	rsb	r2, r2, r2, lsl #3
    82ac:	e1500002 	cmp	r0, r2
    82b0:	3afffff9 	bcc	829c <client+0x28c>
    82b4:	e5942020 	ldr	r2, [r4, #32]
    82b8:	e3110002 	tst	r1, #2
    82bc:	0a000004 	beq	82d4 <client+0x2c4>
    82c0:	e595001c 	ldr	r0, [r5, #28]
    82c4:	e3a0c001 	mov	ip, #1
    82c8:	e180221c 	orr	r2, r0, ip, lsl r2
    82cc:	e585201c 	str	r2, [r5, #28]
    82d0:	ea000003 	b	82e4 <client+0x2d4>
    82d4:	e5950028 	ldr	r0, [r5, #40]	; 0x28
    82d8:	e3a0c001 	mov	ip, #1
    82dc:	e180221c 	orr	r2, r0, ip, lsl r2
    82e0:	e5852028 	str	r2, [r5, #40]	; 0x28
    82e4:	ee1f2f3c 	mrc	15, 0, r2, cr15, cr12, {1}
    82e8:	e0632002 	rsb	r2, r3, r2
    82ec:	e594002c 	ldr	r0, [r4, #44]	; 0x2c
    82f0:	e1520180 	cmp	r2, r0, lsl #3
    82f4:	3afffffa 	bcc	82e4 <client+0x2d4>
    82f8:	e5942020 	ldr	r2, [r4, #32]
    82fc:	e3110001 	tst	r1, #1
    8300:	0a000004 	beq	8318 <client+0x308>
    8304:	e595101c 	ldr	r1, [r5, #28]
    8308:	e3a00001 	mov	r0, #1
    830c:	e1812210 	orr	r2, r1, r0, lsl r2
    8310:	e585201c 	str	r2, [r5, #28]
    8314:	ea000003 	b	8328 <client+0x318>
    8318:	e5951028 	ldr	r1, [r5, #40]	; 0x28
    831c:	e3a00001 	mov	r0, #1
    8320:	e1812210 	orr	r2, r1, r0, lsl r2
    8324:	e5852028 	str	r2, [r5, #40]	; 0x28
    8328:	ee1f1f3c 	mrc	15, 0, r1, cr15, cr12, {1}
    832c:	e0631001 	rsb	r1, r3, r1
    8330:	e594202c 	ldr	r2, [r4, #44]	; 0x2c
    8334:	e0822182 	add	r2, r2, r2, lsl #3
    8338:	e1510002 	cmp	r1, r2
    833c:	3afffff9 	bcc	8328 <client+0x318>
    8340:	e5942020 	ldr	r2, [r4, #32]
    8344:	e595101c 	ldr	r1, [r5, #28]
    8348:	e3a00001 	mov	r0, #1
    834c:	e1812210 	orr	r2, r1, r0, lsl r2
    8350:	e585201c 	str	r2, [r5, #28]
    8354:	ee1f1f3c 	mrc	15, 0, r1, cr15, cr12, {1}
    8358:	e0631001 	rsb	r1, r3, r1
    835c:	e594202c 	ldr	r2, [r4, #44]	; 0x2c
    8360:	e0822102 	add	r2, r2, r2, lsl #2
    8364:	e1a02082 	lsl	r2, r2, #1
    8368:	e1510002 	cmp	r1, r2
    836c:	3afffff8 	bcc	8354 <client+0x344>
    8370:	eb000515 	bl	97cc <system_enable_interrupts>
    8374:	e7962008 	ldr	r2, [r6, r8]
    8378:	e7963007 	ldr	r3, [r6, r7]
    837c:	e1520003 	cmp	r2, r3
    8380:	1affff34 	bne	8058 <client+0x48>
    8384:	e594301c 	ldr	r3, [r4, #28]
    8388:	e153000a 	cmp	r3, sl
    838c:	3afffff8 	bcc	8374 <client+0x364>
    8390:	e8bd87f0 	pop	{r4, r5, r6, r7, r8, r9, sl, pc}
    8394:	00009a84 	andeq	r9, r0, r4, lsl #21
    8398:	20200000 	eorcs	r0, r0, r0
    839c:	0000bed0 	ldrdeq	fp, [r0], -r0
    83a0:	00009ed8 	ldrdeq	r9, [r0], -r8
    83a4:	00002004 	andeq	r2, r0, r4
    83a8:	00002008 	andeq	r2, r0, r8
    83ac:	00009a94 	muleq	r0, r4, sl
    83b0:	00009ad4 	ldrdeq	r9, [r0], -r4
    83b4:	00009a64 	andeq	r9, r0, r4, ror #20

000083b8 <cycles_per_sec>:
    83b8:	e92d4010 	push	{r4, lr}
    83bc:	e3500001 	cmp	r0, #1
    83c0:	9a000006 	bls	83e0 <cycles_per_sec+0x28>
    83c4:	eb00014c 	bl	88fc <rpi_reset_putc>
    83c8:	e59f002c 	ldr	r0, [pc, #44]	; 83fc <cycles_per_sec+0x44>
    83cc:	e59f102c 	ldr	r1, [pc, #44]	; 8400 <cycles_per_sec+0x48>
    83d0:	e59f202c 	ldr	r2, [pc, #44]	; 8404 <cycles_per_sec+0x4c>
    83d4:	e3a0304e 	mov	r3, #78	; 0x4e
    83d8:	eb00012c 	bl	8890 <printk>
    83dc:	eb0002a3 	bl	8e70 <clean_reboot>
    83e0:	ee1f4f3c 	mrc	15, 0, r4, cr15, cr12, {1}
    83e4:	e3a03ffa 	mov	r3, #1000	; 0x3e8
    83e8:	e0000093 	mul	r0, r3, r0
    83ec:	eb0002eb 	bl	8fa0 <delay_ms>
    83f0:	ee1f0f3c 	mrc	15, 0, r0, cr15, cr12, {1}
    83f4:	e0640000 	rsb	r0, r4, r0
    83f8:	e8bd8010 	pop	{r4, pc}
    83fc:	00009b28 	andeq	r9, r0, r8, lsr #22
    8400:	00009b58 	andeq	r9, r0, r8, asr fp
    8404:	00009a6c 	andeq	r9, r0, ip, ror #20

00008408 <interrupt_vector>:
    8408:	e92d40f8 	push	{r3, r4, r5, r6, r7, lr}
    840c:	eb0004d5 	bl	9768 <dev_barrier>
    8410:	e59f321c 	ldr	r3, [pc, #540]	; 8634 <interrupt_vector+0x22c>
    8414:	e593e02c 	ldr	lr, [r3, #44]	; 0x2c
    8418:	e1a0c0ae 	lsr	ip, lr, #1
    841c:	e59f5214 	ldr	r5, [pc, #532]	; 8638 <interrupt_vector+0x230>
    8420:	e1a04003 	mov	r4, r3
    8424:	e3a00001 	mov	r0, #1
    8428:	e5953034 	ldr	r3, [r5, #52]	; 0x34
    842c:	e5942024 	ldr	r2, [r4, #36]	; 0x24
    8430:	e1a01210 	lsl	r1, r0, r2
    8434:	e0033001 	and	r3, r3, r1
    8438:	e1b03233 	lsrs	r3, r3, r2
    843c:	1afffff9 	bne	8428 <interrupt_vector+0x20>
    8440:	ee1f3f3c 	mrc	15, 0, r3, cr15, cr12, {1}
    8444:	ee1f0f3c 	mrc	15, 0, r0, cr15, cr12, {1}
    8448:	e0630000 	rsb	r0, r3, r0
    844c:	e15c0000 	cmp	ip, r0
    8450:	8afffffb 	bhi	8444 <interrupt_vector+0x3c>
    8454:	e08e400c 	add	r4, lr, ip
    8458:	ee1f0f3c 	mrc	15, 0, r0, cr15, cr12, {1}
    845c:	e0630000 	rsb	r0, r3, r0
    8460:	e1500004 	cmp	r0, r4
    8464:	3afffffb 	bcc	8458 <interrupt_vector+0x50>
    8468:	e59f01c8 	ldr	r0, [pc, #456]	; 8638 <interrupt_vector+0x230>
    846c:	e5905034 	ldr	r5, [r0, #52]	; 0x34
    8470:	e0015005 	and	r5, r1, r5
    8474:	e1a05235 	lsr	r5, r5, r2
    8478:	e2055001 	and	r5, r5, #1
    847c:	e08c408e 	add	r4, ip, lr, lsl #1
    8480:	ee1f0f3c 	mrc	15, 0, r0, cr15, cr12, {1}
    8484:	e0630000 	rsb	r0, r3, r0
    8488:	e1500004 	cmp	r0, r4
    848c:	3afffffb 	bcc	8480 <interrupt_vector+0x78>
    8490:	e59f01a0 	ldr	r0, [pc, #416]	; 8638 <interrupt_vector+0x230>
    8494:	e5907034 	ldr	r7, [r0, #52]	; 0x34
    8498:	e0017007 	and	r7, r1, r7
    849c:	e1a07237 	lsr	r7, r7, r2
    84a0:	e2077001 	and	r7, r7, #1
    84a4:	e1857087 	orr	r7, r5, r7, lsl #1
    84a8:	e08e408e 	add	r4, lr, lr, lsl #1
    84ac:	e08c4004 	add	r4, ip, r4
    84b0:	ee1f0f3c 	mrc	15, 0, r0, cr15, cr12, {1}
    84b4:	e0630000 	rsb	r0, r3, r0
    84b8:	e1500004 	cmp	r0, r4
    84bc:	3afffffb 	bcc	84b0 <interrupt_vector+0xa8>
    84c0:	e59f0170 	ldr	r0, [pc, #368]	; 8638 <interrupt_vector+0x230>
    84c4:	e5906034 	ldr	r6, [r0, #52]	; 0x34
    84c8:	e0016006 	and	r6, r1, r6
    84cc:	e1a06236 	lsr	r6, r6, r2
    84d0:	e2066001 	and	r6, r6, #1
    84d4:	e1876106 	orr	r6, r7, r6, lsl #2
    84d8:	e08c410e 	add	r4, ip, lr, lsl #2
    84dc:	ee1f0f3c 	mrc	15, 0, r0, cr15, cr12, {1}
    84e0:	e0630000 	rsb	r0, r3, r0
    84e4:	e1500004 	cmp	r0, r4
    84e8:	3afffffb 	bcc	84dc <interrupt_vector+0xd4>
    84ec:	e59f0144 	ldr	r0, [pc, #324]	; 8638 <interrupt_vector+0x230>
    84f0:	e5905034 	ldr	r5, [r0, #52]	; 0x34
    84f4:	e0015005 	and	r5, r1, r5
    84f8:	e1a05235 	lsr	r5, r5, r2
    84fc:	e2055001 	and	r5, r5, #1
    8500:	e1865185 	orr	r5, r6, r5, lsl #3
    8504:	e08e410e 	add	r4, lr, lr, lsl #2
    8508:	e08c4004 	add	r4, ip, r4
    850c:	ee1f0f3c 	mrc	15, 0, r0, cr15, cr12, {1}
    8510:	e0630000 	rsb	r0, r3, r0
    8514:	e1500004 	cmp	r0, r4
    8518:	3afffffb 	bcc	850c <interrupt_vector+0x104>
    851c:	e59f0114 	ldr	r0, [pc, #276]	; 8638 <interrupt_vector+0x230>
    8520:	e5907034 	ldr	r7, [r0, #52]	; 0x34
    8524:	e0017007 	and	r7, r1, r7
    8528:	e1a07237 	lsr	r7, r7, r2
    852c:	e2077001 	and	r7, r7, #1
    8530:	e1857207 	orr	r7, r5, r7, lsl #4
    8534:	e08e408e 	add	r4, lr, lr, lsl #1
    8538:	e08c4084 	add	r4, ip, r4, lsl #1
    853c:	ee1f0f3c 	mrc	15, 0, r0, cr15, cr12, {1}
    8540:	e0630000 	rsb	r0, r3, r0
    8544:	e1500004 	cmp	r0, r4
    8548:	3afffffb 	bcc	853c <interrupt_vector+0x134>
    854c:	e59f00e4 	ldr	r0, [pc, #228]	; 8638 <interrupt_vector+0x230>
    8550:	e5906034 	ldr	r6, [r0, #52]	; 0x34
    8554:	e0016006 	and	r6, r1, r6
    8558:	e1a06236 	lsr	r6, r6, r2
    855c:	e2066001 	and	r6, r6, #1
    8560:	e1876286 	orr	r6, r7, r6, lsl #5
    8564:	e06e418e 	rsb	r4, lr, lr, lsl #3
    8568:	e08c4004 	add	r4, ip, r4
    856c:	ee1f0f3c 	mrc	15, 0, r0, cr15, cr12, {1}
    8570:	e0630000 	rsb	r0, r3, r0
    8574:	e1500004 	cmp	r0, r4
    8578:	3afffffb 	bcc	856c <interrupt_vector+0x164>
    857c:	e59f00b4 	ldr	r0, [pc, #180]	; 8638 <interrupt_vector+0x230>
    8580:	e5905034 	ldr	r5, [r0, #52]	; 0x34
    8584:	e0015005 	and	r5, r1, r5
    8588:	e1a05235 	lsr	r5, r5, r2
    858c:	e2055001 	and	r5, r5, #1
    8590:	e1865305 	orr	r5, r6, r5, lsl #6
    8594:	e08c418e 	add	r4, ip, lr, lsl #3
    8598:	ee1f0f3c 	mrc	15, 0, r0, cr15, cr12, {1}
    859c:	e0630000 	rsb	r0, r3, r0
    85a0:	e1500004 	cmp	r0, r4
    85a4:	3afffffb 	bcc	8598 <interrupt_vector+0x190>
    85a8:	e59f0088 	ldr	r0, [pc, #136]	; 8638 <interrupt_vector+0x230>
    85ac:	e5900034 	ldr	r0, [r0, #52]	; 0x34
    85b0:	e0011000 	and	r1, r1, r0
    85b4:	e1a02231 	lsr	r2, r1, r2
    85b8:	e1a02382 	lsl	r2, r2, #7
    85bc:	e6ef2072 	uxtb	r2, r2
    85c0:	e1851002 	orr	r1, r5, r2
    85c4:	e08ee18e 	add	lr, lr, lr, lsl #3
    85c8:	e08cc00e 	add	ip, ip, lr
    85cc:	ee1f2f3c 	mrc	15, 0, r2, cr15, cr12, {1}
    85d0:	e0632002 	rsb	r2, r3, r2
    85d4:	e152000c 	cmp	r2, ip
    85d8:	3afffffb 	bcc	85cc <interrupt_vector+0x1c4>
    85dc:	e6efc071 	uxtb	ip, r1
    85e0:	e59f3054 	ldr	r3, [pc, #84]	; 863c <interrupt_vector+0x234>
    85e4:	e59f2054 	ldr	r2, [pc, #84]	; 8640 <interrupt_vector+0x238>
    85e8:	e7931002 	ldr	r1, [r3, r2]
    85ec:	e7932002 	ldr	r2, [r3, r2]
    85f0:	e2822001 	add	r2, r2, #1
    85f4:	e1a02982 	lsl	r2, r2, #19
    85f8:	e59f0044 	ldr	r0, [pc, #68]	; 8644 <interrupt_vector+0x23c>
    85fc:	e7933000 	ldr	r3, [r3, r0]
    8600:	e15309a2 	cmp	r3, r2, lsr #19
    8604:	0a000006 	beq	8624 <interrupt_vector+0x21c>
    8608:	e59f302c 	ldr	r3, [pc, #44]	; 863c <interrupt_vector+0x234>
    860c:	e7c3c001 	strb	ip, [r3, r1]
    8610:	e2811001 	add	r1, r1, #1
    8614:	e1a01981 	lsl	r1, r1, #19
    8618:	e1a019a1 	lsr	r1, r1, #19
    861c:	e59f201c 	ldr	r2, [pc, #28]	; 8640 <interrupt_vector+0x238>
    8620:	e7831002 	str	r1, [r3, r2]
    8624:	e3a00014 	mov	r0, #20
    8628:	eb0003b8 	bl	9510 <gpio_event_clear>
    862c:	eb00044d 	bl	9768 <dev_barrier>
    8630:	e8bd80f8 	pop	{r3, r4, r5, r6, r7, pc}
    8634:	0000bed0 	ldrdeq	fp, [r0], -r0
    8638:	20200000 	eorcs	r0, r0, r0
    863c:	00009ed8 	ldrdeq	r9, [r0], -r8
    8640:	00002004 	andeq	r2, r0, r4
    8644:	00002008 	andeq	r2, r0, r8

00008648 <notmain>:
    8648:	e92d4010 	push	{r4, lr}
    864c:	eb0003c5 	bl	9568 <uart_init>
    8650:	eb000419 	bl	96bc <int_init>
    8654:	e3a00015 	mov	r0, #21
    8658:	eb00025a 	bl	8fc8 <gpio_set_output>
    865c:	e3a00014 	mov	r0, #20
    8660:	eb0002a9 	bl	910c <gpio_set_input>
    8664:	e59f31c8 	ldr	r3, [pc, #456]	; 8834 <notmain+0x1ec>
    8668:	e3a02015 	mov	r2, #21
    866c:	e5832020 	str	r2, [r3, #32]
    8670:	e3a00014 	mov	r0, #20
    8674:	e5830024 	str	r0, [r3, #36]	; 0x24
    8678:	e3a02be1 	mov	r2, #230400	; 0x38400
    867c:	e5832028 	str	r2, [r3, #40]	; 0x28
    8680:	e59f21b0 	ldr	r2, [pc, #432]	; 8838 <notmain+0x1f0>
    8684:	e583202c 	str	r2, [r3, #44]	; 0x2c
    8688:	eb00035e 	bl	9408 <gpio_int_falling_edge>
    868c:	e59f41a8 	ldr	r4, [pc, #424]	; 883c <notmain+0x1f4>
    8690:	e1a00004 	mov	r0, r4
    8694:	e3a01000 	mov	r1, #0
    8698:	e59f21a0 	ldr	r2, [pc, #416]	; 8840 <notmain+0x1f8>
    869c:	eb000073 	bl	8870 <memset>
    86a0:	e59f219c 	ldr	r2, [pc, #412]	; 8844 <notmain+0x1fc>
    86a4:	e3a03a02 	mov	r3, #8192	; 0x2000
    86a8:	e7842003 	str	r2, [r4, r3]
    86ac:	e59f2194 	ldr	r2, [pc, #404]	; 8848 <notmain+0x200>
    86b0:	e3a03000 	mov	r3, #0
    86b4:	e7843002 	str	r3, [r4, r2]
    86b8:	e59f118c 	ldr	r1, [pc, #396]	; 884c <notmain+0x204>
    86bc:	e7843001 	str	r3, [r4, r1]
    86c0:	e59f0188 	ldr	r0, [pc, #392]	; 8850 <notmain+0x208>
    86c4:	e7843000 	str	r3, [r4, r0]
    86c8:	e59f3184 	ldr	r3, [pc, #388]	; 8854 <notmain+0x20c>
    86cc:	e7d40003 	ldrb	r0, [r4, r3]
    86d0:	e3800001 	orr	r0, r0, #1
    86d4:	e7c40003 	strb	r0, [r4, r3]
    86d8:	e7941001 	ldr	r1, [r4, r1]
    86dc:	e7943002 	ldr	r3, [r4, r2]
    86e0:	e1510003 	cmp	r1, r3
    86e4:	0a000006 	beq	8704 <notmain+0xbc>
    86e8:	eb000083 	bl	88fc <rpi_reset_putc>
    86ec:	e59f0164 	ldr	r0, [pc, #356]	; 8858 <notmain+0x210>
    86f0:	e59f1164 	ldr	r1, [pc, #356]	; 885c <notmain+0x214>
    86f4:	e59f2164 	ldr	r2, [pc, #356]	; 8860 <notmain+0x218>
    86f8:	e3a0309f 	mov	r3, #159	; 0x9f
    86fc:	eb000063 	bl	8890 <printk>
    8700:	eb0001da 	bl	8e70 <clean_reboot>
    8704:	e59f3130 	ldr	r3, [pc, #304]	; 883c <notmain+0x1f4>
    8708:	e59f213c 	ldr	r2, [pc, #316]	; 884c <notmain+0x204>
    870c:	e7932002 	ldr	r2, [r3, r2]
    8710:	e2822001 	add	r2, r2, #1
    8714:	e1a02982 	lsl	r2, r2, #19
    8718:	e59f1128 	ldr	r1, [pc, #296]	; 8848 <notmain+0x200>
    871c:	e7933001 	ldr	r3, [r3, r1]
    8720:	e15309a2 	cmp	r3, r2, lsr #19
    8724:	1a000006 	bne	8744 <notmain+0xfc>
    8728:	eb000073 	bl	88fc <rpi_reset_putc>
    872c:	e59f0130 	ldr	r0, [pc, #304]	; 8864 <notmain+0x21c>
    8730:	e59f1124 	ldr	r1, [pc, #292]	; 885c <notmain+0x214>
    8734:	e59f2124 	ldr	r2, [pc, #292]	; 8860 <notmain+0x218>
    8738:	e3a030a0 	mov	r3, #160	; 0xa0
    873c:	eb000053 	bl	8890 <printk>
    8740:	eb0001ca 	bl	8e70 <clean_reboot>
    8744:	e59f30f0 	ldr	r3, [pc, #240]	; 883c <notmain+0x1f4>
    8748:	e59f20fc 	ldr	r2, [pc, #252]	; 884c <notmain+0x204>
    874c:	e7932002 	ldr	r2, [r3, r2]
    8750:	e59f10f0 	ldr	r1, [pc, #240]	; 8848 <notmain+0x200>
    8754:	e7933001 	ldr	r3, [r3, r1]
    8758:	e0633002 	rsb	r3, r3, r2
    875c:	e1b03983 	lsls	r3, r3, #19
    8760:	0a000006 	beq	8780 <notmain+0x138>
    8764:	eb000064 	bl	88fc <rpi_reset_putc>
    8768:	e59f00f8 	ldr	r0, [pc, #248]	; 8868 <notmain+0x220>
    876c:	e59f10e8 	ldr	r1, [pc, #232]	; 885c <notmain+0x214>
    8770:	e59f20e8 	ldr	r2, [pc, #232]	; 8860 <notmain+0x218>
    8774:	e3a030a1 	mov	r3, #161	; 0xa1
    8778:	eb000044 	bl	8890 <printk>
    877c:	eb0001bb 	bl	8e70 <clean_reboot>
    8780:	e59f30b4 	ldr	r3, [pc, #180]	; 883c <notmain+0x1f4>
    8784:	e59f20c0 	ldr	r2, [pc, #192]	; 884c <notmain+0x204>
    8788:	e7932002 	ldr	r2, [r3, r2]
    878c:	e59f10b4 	ldr	r1, [pc, #180]	; 8848 <notmain+0x200>
    8790:	e7933001 	ldr	r3, [r3, r1]
    8794:	e1520003 	cmp	r2, r3
    8798:	0a00000a 	beq	87c8 <notmain+0x180>
    879c:	e59f3098 	ldr	r3, [pc, #152]	; 883c <notmain+0x1f4>
    87a0:	e1a02001 	mov	r2, r1
    87a4:	e7931001 	ldr	r1, [r3, r1]
    87a8:	e7d30001 	ldrb	r0, [r3, r1]
    87ac:	e6ef0070 	uxtb	r0, r0
    87b0:	e2811001 	add	r1, r1, #1
    87b4:	e1a01981 	lsl	r1, r1, #19
    87b8:	e1a019a1 	lsr	r1, r1, #19
    87bc:	e7831002 	str	r1, [r3, r2]
    87c0:	e3a03001 	mov	r3, #1
    87c4:	ea000001 	b	87d0 <notmain+0x188>
    87c8:	e3a00012 	mov	r0, #18
    87cc:	e3a03000 	mov	r3, #0
    87d0:	e3530000 	cmp	r3, #0
    87d4:	1a000002 	bne	87e4 <notmain+0x19c>
    87d8:	e3500012 	cmp	r0, #18
    87dc:	0a000002 	beq	87ec <notmain+0x1a4>
    87e0:	ea000002 	b	87f0 <notmain+0x1a8>
    87e4:	e3a03000 	mov	r3, #0
    87e8:	ea000000 	b	87f0 <notmain+0x1a8>
    87ec:	e3a03001 	mov	r3, #1
    87f0:	e3530000 	cmp	r3, #0
    87f4:	1a000006 	bne	8814 <notmain+0x1cc>
    87f8:	eb00003f 	bl	88fc <rpi_reset_putc>
    87fc:	e59f0068 	ldr	r0, [pc, #104]	; 886c <notmain+0x224>
    8800:	e59f1054 	ldr	r1, [pc, #84]	; 885c <notmain+0x214>
    8804:	e59f2054 	ldr	r2, [pc, #84]	; 8860 <notmain+0x218>
    8808:	e3a030a3 	mov	r3, #163	; 0xa3
    880c:	eb00001f 	bl	8890 <printk>
    8810:	eb000196 	bl	8e70 <clean_reboot>
    8814:	eb00018d 	bl	8e50 <enable_cache>
    8818:	e3a03001 	mov	r3, #1
    881c:	ee0f3f1c 	mcr	15, 0, r3, cr15, cr12, {0}
    8820:	e3a00015 	mov	r0, #21
    8824:	e3a01014 	mov	r1, #20
    8828:	e3a020ff 	mov	r2, #255	; 0xff
    882c:	ebfffdf7 	bl	8010 <client>
    8830:	eb00018e 	bl	8e70 <clean_reboot>
    8834:	0000bed0 	ldrdeq	fp, [r0], -r0
    8838:	00000bde 	ldrdeq	r0, [r0], -lr
    883c:	00009ed8 	ldrdeq	r9, [r0], -r8
    8840:	00002014 	andeq	r2, r0, r4, lsl r0
    8844:	12345678 	eorsne	r5, r4, #120, 12	; 0x7800000
    8848:	00002008 	andeq	r2, r0, r8
    884c:	00002004 	andeq	r2, r0, r4
    8850:	0000200c 	andeq	r2, r0, ip
    8854:	00002010 	andeq	r2, r0, r0, lsl r0
    8858:	00009b6c 	andeq	r9, r0, ip, ror #22
    885c:	00009ad4 	ldrdeq	r9, [r0], -r4
    8860:	00009a7c 	andeq	r9, r0, ip, ror sl
    8864:	00009b88 	andeq	r9, r0, r8, lsl #23
    8868:	00009ba4 	andeq	r9, r0, r4, lsr #23
    886c:	00009bc8 	andeq	r9, r0, r8, asr #23

00008870 <memset>:
    8870:	e0802002 	add	r2, r0, r2
    8874:	e1a03000 	mov	r3, r0
    8878:	ea000001 	b	8884 <memset+0x14>
    887c:	e5c31000 	strb	r1, [r3]
    8880:	e2833001 	add	r3, r3, #1
    8884:	e1530002 	cmp	r3, r2
    8888:	3afffffb 	bcc	887c <memset+0xc>
    888c:	e12fff1e 	bx	lr

00008890 <printk>:
    8890:	e92d000f 	push	{r0, r1, r2, r3}
    8894:	e92d4030 	push	{r4, r5, lr}
    8898:	e24dd00c 	sub	sp, sp, #12
    889c:	e28d301c 	add	r3, sp, #28
    88a0:	e58d3004 	str	r3, [sp, #4]
    88a4:	e59f4034 	ldr	r4, [pc, #52]	; 88e0 <printk+0x50>
    88a8:	e1a00004 	mov	r0, r4
    88ac:	e3a01b01 	mov	r1, #1024	; 0x400
    88b0:	e59d2018 	ldr	r2, [sp, #24]
    88b4:	eb0000c3 	bl	8bc8 <va_printk>
    88b8:	e1a05000 	mov	r5, r0
    88bc:	e59f3020 	ldr	r3, [pc, #32]	; 88e4 <printk+0x54>
    88c0:	e5933000 	ldr	r3, [r3]
    88c4:	e1a00004 	mov	r0, r4
    88c8:	e12fff33 	blx	r3
    88cc:	e1a00005 	mov	r0, r5
    88d0:	e28dd00c 	add	sp, sp, #12
    88d4:	e8bd4030 	pop	{r4, r5, lr}
    88d8:	e28dd010 	add	sp, sp, #16
    88dc:	e12fff1e 	bx	lr
    88e0:	0000bf14 	andeq	fp, r0, r4, lsl pc
    88e4:	000099cc 	andeq	r9, r0, ip, asr #19

000088e8 <internal_putchar>:
    88e8:	e92d4010 	push	{r4, lr}
    88ec:	e1a04000 	mov	r4, r0
    88f0:	eb00035b 	bl	9664 <uart_putc>
    88f4:	e1a00004 	mov	r0, r4
    88f8:	e8bd8010 	pop	{r4, pc}

000088fc <rpi_reset_putc>:
    88fc:	e59f2008 	ldr	r2, [pc, #8]	; 890c <rpi_reset_putc+0x10>
    8900:	e59f3008 	ldr	r3, [pc, #8]	; 8910 <rpi_reset_putc+0x14>
    8904:	e5832000 	str	r2, [r3]
    8908:	e12fff1e 	bx	lr
    890c:	000088e8 	andeq	r8, r0, r8, ror #17
    8910:	000099c8 	andeq	r9, r0, r8, asr #19

00008914 <rpi_set_putc>:
    8914:	e59f3004 	ldr	r3, [pc, #4]	; 8920 <rpi_set_putc+0xc>
    8918:	e5830000 	str	r0, [r3]
    891c:	e12fff1e 	bx	lr
    8920:	000099c8 	andeq	r9, r0, r8, asr #19

00008924 <internal_putk>:
    8924:	e92d4038 	push	{r3, r4, r5, lr}
    8928:	e1a04000 	mov	r4, r0
    892c:	e59f5020 	ldr	r5, [pc, #32]	; 8954 <internal_putk+0x30>
    8930:	ea000002 	b	8940 <internal_putk+0x1c>
    8934:	e5953000 	ldr	r3, [r5]
    8938:	e12fff33 	blx	r3
    893c:	e2844001 	add	r4, r4, #1
    8940:	e5d40000 	ldrb	r0, [r4]
    8944:	e3500000 	cmp	r0, #0
    8948:	1afffff9 	bne	8934 <internal_putk+0x10>
    894c:	e3a00001 	mov	r0, #1
    8950:	e8bd8038 	pop	{r3, r4, r5, pc}
    8954:	000099c8 	andeq	r9, r0, r8, asr #19

00008958 <isdigit>:
    8958:	e2400030 	sub	r0, r0, #48	; 0x30
    895c:	e3500009 	cmp	r0, #9
    8960:	83a00000 	movhi	r0, #0
    8964:	93a00001 	movls	r0, #1
    8968:	e12fff1e 	bx	lr

0000896c <pad>:
    896c:	e0611000 	rsb	r1, r1, r0
    8970:	e3a03020 	mov	r3, #32
    8974:	ea000002 	b	8984 <pad+0x18>
    8978:	e5c03000 	strb	r3, [r0]
    897c:	e2811001 	add	r1, r1, #1
    8980:	e2800001 	add	r0, r0, #1
    8984:	e1510002 	cmp	r1, r2
    8988:	bafffffa 	blt	8978 <pad+0xc>
    898c:	e3a03000 	mov	r3, #0
    8990:	e5c03000 	strb	r3, [r0]
    8994:	e12fff1e 	bx	lr

00008998 <reverse>:
    8998:	e063c002 	rsb	ip, r3, r2
    899c:	e28cc001 	add	ip, ip, #1
    89a0:	e15c0001 	cmp	ip, r1
    89a4:	c061100c 	rsbgt	r1, r1, ip
    89a8:	c0833001 	addgt	r3, r3, r1
    89ac:	e2422001 	sub	r2, r2, #1
    89b0:	e1a01000 	mov	r1, r0
    89b4:	ea000002 	b	89c4 <reverse+0x2c>
    89b8:	e452c001 	ldrb	ip, [r2], #-1
    89bc:	e5c1c000 	strb	ip, [r1]
    89c0:	e2811001 	add	r1, r1, #1
    89c4:	e1520003 	cmp	r2, r3
    89c8:	2afffffa 	bcs	89b8 <reverse+0x20>
    89cc:	e3a03000 	mov	r3, #0
    89d0:	e5c13000 	strb	r3, [r1]
    89d4:	e12fff1e 	bx	lr

000089d8 <emit>:
    89d8:	e92d41f0 	push	{r4, r5, r6, r7, r8, lr}
    89dc:	e24dd040 	sub	sp, sp, #64	; 0x40
    89e0:	e1a05001 	mov	r5, r1
    89e4:	e1a04002 	mov	r4, r2
    89e8:	e59d2058 	ldr	r2, [sp, #88]	; 0x58
    89ec:	e1520004 	cmp	r2, r4
    89f0:	c2442001 	subgt	r2, r4, #1
    89f4:	e1a0c003 	mov	ip, r3
    89f8:	e2400002 	sub	r0, r0, #2
    89fc:	e350000e 	cmp	r0, #14
    8a00:	979ff100 	ldrls	pc, [pc, r0, lsl #2]
    8a04:	ea000042 	b	8b14 <emit+0x13c>
    8a08:	00008aec 	andeq	r8, r0, ip, ror #21
    8a0c:	00008b14 	andeq	r8, r0, r4, lsl fp
    8a10:	00008b14 	andeq	r8, r0, r4, lsl fp
    8a14:	00008b14 	andeq	r8, r0, r4, lsl fp
    8a18:	00008b14 	andeq	r8, r0, r4, lsl fp
    8a1c:	00008b14 	andeq	r8, r0, r4, lsl fp
    8a20:	00008ae0 	andeq	r8, r0, r0, ror #21
    8a24:	00008b14 	andeq	r8, r0, r4, lsl fp
    8a28:	00008a44 	andeq	r8, r0, r4, asr #20
    8a2c:	00008b14 	andeq	r8, r0, r4, lsl fp
    8a30:	00008b14 	andeq	r8, r0, r4, lsl fp
    8a34:	00008b14 	andeq	r8, r0, r4, lsl fp
    8a38:	00008b14 	andeq	r8, r0, r4, lsl fp
    8a3c:	00008b14 	andeq	r8, r0, r4, lsl fp
    8a40:	00008ab8 			; <UNDEFINED> instruction: 0x00008ab8
    8a44:	e59d105c 	ldr	r1, [sp, #92]	; 0x5c
    8a48:	e2911000 	adds	r1, r1, #0
    8a4c:	13a01001 	movne	r1, #1
    8a50:	e0111fa3 	ands	r1, r1, r3, lsr #31
    8a54:	1263c000 	rsbne	ip, r3, #0
    8a58:	13a08001 	movne	r8, #1
    8a5c:	03a08000 	moveq	r8, #0
    8a60:	e1a0100d 	mov	r1, sp
    8a64:	e59f70ec 	ldr	r7, [pc, #236]	; 8b58 <emit+0x180>
    8a68:	e59f60ec 	ldr	r6, [pc, #236]	; 8b5c <emit+0x184>
    8a6c:	ea000000 	b	8a74 <emit+0x9c>
    8a70:	e1a01003 	mov	r1, r3
    8a74:	e2813001 	add	r3, r1, #1
    8a78:	e08e0c97 	umull	r0, lr, r7, ip
    8a7c:	e1a0e1ae 	lsr	lr, lr, #3
    8a80:	e1a0000e 	mov	r0, lr
    8a84:	e08ee10e 	add	lr, lr, lr, lsl #2
    8a88:	e1a0e08e 	lsl	lr, lr, #1
    8a8c:	e06ee00c 	rsb	lr, lr, ip
    8a90:	e7d6c00e 	ldrb	ip, [r6, lr]
    8a94:	e5c1c000 	strb	ip, [r1]
    8a98:	e1a0c000 	mov	ip, r0
    8a9c:	e3500000 	cmp	r0, #0
    8aa0:	1afffff2 	bne	8a70 <emit+0x98>
    8aa4:	e3580000 	cmp	r8, #0
    8aa8:	12813002 	addne	r3, r1, #2
    8aac:	13a0002d 	movne	r0, #45	; 0x2d
    8ab0:	15c10001 	strbne	r0, [r1, #1]
    8ab4:	ea00001d 	b	8b30 <emit+0x158>
    8ab8:	e1a0e00d 	mov	lr, sp
    8abc:	e59f009c 	ldr	r0, [pc, #156]	; 8b60 <emit+0x188>
    8ac0:	e28e3001 	add	r3, lr, #1
    8ac4:	e20c100f 	and	r1, ip, #15
    8ac8:	e7d01001 	ldrb	r1, [r0, r1]
    8acc:	e5ce1000 	strb	r1, [lr]
    8ad0:	e1a0e003 	mov	lr, r3
    8ad4:	e1b0c22c 	lsrs	ip, ip, #4
    8ad8:	1afffff8 	bne	8ac0 <emit+0xe8>
    8adc:	ea000013 	b	8b30 <emit+0x158>
    8ae0:	e5cd3000 	strb	r3, [sp]
    8ae4:	e28d3001 	add	r3, sp, #1
    8ae8:	ea000010 	b	8b30 <emit+0x158>
    8aec:	e1a0e00d 	mov	lr, sp
    8af0:	e59f006c 	ldr	r0, [pc, #108]	; 8b64 <emit+0x18c>
    8af4:	e28e3001 	add	r3, lr, #1
    8af8:	e20c1001 	and	r1, ip, #1
    8afc:	e7d01001 	ldrb	r1, [r0, r1]
    8b00:	e5ce1000 	strb	r1, [lr]
    8b04:	e1a0e003 	mov	lr, r3
    8b08:	e1b0c0ac 	lsrs	ip, ip, #1
    8b0c:	1afffff8 	bne	8af4 <emit+0x11c>
    8b10:	ea000006 	b	8b30 <emit+0x158>
    8b14:	ebffff78 	bl	88fc <rpi_reset_putc>
    8b18:	e59f0048 	ldr	r0, [pc, #72]	; 8b68 <emit+0x190>
    8b1c:	e59f1048 	ldr	r1, [pc, #72]	; 8b6c <emit+0x194>
    8b20:	e59f2048 	ldr	r2, [pc, #72]	; 8b70 <emit+0x198>
    8b24:	e3a03075 	mov	r3, #117	; 0x75
    8b28:	ebffff58 	bl	8890 <printk>
    8b2c:	eb0000cf 	bl	8e70 <clean_reboot>
    8b30:	e1a00003 	mov	r0, r3
    8b34:	e1a0100d 	mov	r1, sp
    8b38:	ebffff8b 	bl	896c <pad>
    8b3c:	e1a02000 	mov	r2, r0
    8b40:	e1a00005 	mov	r0, r5
    8b44:	e1a01004 	mov	r1, r4
    8b48:	e1a0300d 	mov	r3, sp
    8b4c:	ebffff91 	bl	8998 <reverse>
    8b50:	e28dd040 	add	sp, sp, #64	; 0x40
    8b54:	e8bd81f0 	pop	{r4, r5, r6, r7, r8, pc}
    8b58:	cccccccd 	stclgt	12, cr12, [ip], {205}	; 0xcd
    8b5c:	00009c4c 	andeq	r9, r0, ip, asr #24
    8b60:	00009c58 	andeq	r9, r0, r8, asr ip
    8b64:	00009c6c 	andeq	r9, r0, ip, ror #24
    8b68:	00009c24 	andeq	r9, r0, r4, lsr #24
    8b6c:	00009c38 	andeq	r9, r0, r8, lsr ip
    8b70:	00009c00 	andeq	r9, r0, r0, lsl #24

00008b74 <rpi_set_output>:
    8b74:	e92d4008 	push	{r3, lr}
    8b78:	e3500000 	cmp	r0, #0
    8b7c:	1a000006 	bne	8b9c <rpi_set_output+0x28>
    8b80:	ebffff5d 	bl	88fc <rpi_reset_putc>
    8b84:	e59f0028 	ldr	r0, [pc, #40]	; 8bb4 <rpi_set_output+0x40>
    8b88:	e59f1028 	ldr	r1, [pc, #40]	; 8bb8 <rpi_set_output+0x44>
    8b8c:	e59f2028 	ldr	r2, [pc, #40]	; 8bbc <rpi_set_output+0x48>
    8b90:	e3a03020 	mov	r3, #32
    8b94:	ebffff3d 	bl	8890 <printk>
    8b98:	eb0000b4 	bl	8e70 <clean_reboot>
    8b9c:	e59f301c 	ldr	r3, [pc, #28]	; 8bc0 <rpi_set_output+0x4c>
    8ba0:	e5830000 	str	r0, [r3]
    8ba4:	e3510000 	cmp	r1, #0
    8ba8:	159f3014 	ldrne	r3, [pc, #20]	; 8bc4 <rpi_set_output+0x50>
    8bac:	15831000 	strne	r1, [r3]
    8bb0:	e8bd8008 	pop	{r3, pc}
    8bb4:	00009c70 	andeq	r9, r0, r0, ror ip
    8bb8:	00009c38 	andeq	r9, r0, r8, lsr ip
    8bbc:	00009c08 	andeq	r9, r0, r8, lsl #24
    8bc0:	000099c8 	andeq	r9, r0, r8, asr #19
    8bc4:	000099cc 	andeq	r9, r0, ip, asr #19

00008bc8 <va_printk>:
    8bc8:	e92d4ff0 	push	{r4, r5, r6, r7, r8, r9, sl, fp, lr}
    8bcc:	e24dd08c 	sub	sp, sp, #140	; 0x8c
    8bd0:	e1a0a000 	mov	sl, r0
    8bd4:	e1a09003 	mov	r9, r3
    8bd8:	e2411001 	sub	r1, r1, #1
    8bdc:	e0808001 	add	r8, r0, r1
    8be0:	e3a03000 	mov	r3, #0
    8be4:	e5c03000 	strb	r3, [r0]
    8be8:	e1a04000 	mov	r4, r0
    8bec:	e1a0b003 	mov	fp, r3
    8bf0:	ea000086 	b	8e10 <va_printk+0x248>
    8bf4:	e3530025 	cmp	r3, #37	; 0x25
    8bf8:	12822001 	addne	r2, r2, #1
    8bfc:	15c43000 	strbne	r3, [r4]
    8c00:	12844001 	addne	r4, r4, #1
    8c04:	1a000081 	bne	8e10 <va_printk+0x248>
    8c08:	e5d21001 	ldrb	r1, [r2, #1]
    8c0c:	e3510025 	cmp	r1, #37	; 0x25
    8c10:	05c43000 	strbeq	r3, [r4]
    8c14:	02822002 	addeq	r2, r2, #2
    8c18:	02844001 	addeq	r4, r4, #1
    8c1c:	0a00007b 	beq	8e10 <va_printk+0x248>
    8c20:	e2826001 	add	r6, r2, #1
    8c24:	e1a0700b 	mov	r7, fp
    8c28:	ea000004 	b	8c40 <va_printk+0x78>
    8c2c:	e0877107 	add	r7, r7, r7, lsl #2
    8c30:	e1a07087 	lsl	r7, r7, #1
    8c34:	e0877005 	add	r7, r7, r5
    8c38:	e2477030 	sub	r7, r7, #48	; 0x30
    8c3c:	e2866001 	add	r6, r6, #1
    8c40:	e5d65000 	ldrb	r5, [r6]
    8c44:	e1a00005 	mov	r0, r5
    8c48:	ebffff42 	bl	8958 <isdigit>
    8c4c:	e3500000 	cmp	r0, #0
    8c50:	1afffff5 	bne	8c2c <va_printk+0x64>
    8c54:	e357001f 	cmp	r7, #31
    8c58:	9a000006 	bls	8c78 <va_printk+0xb0>
    8c5c:	ebffff26 	bl	88fc <rpi_reset_putc>
    8c60:	e59f01d4 	ldr	r0, [pc, #468]	; 8e3c <va_printk+0x274>
    8c64:	e59f11d4 	ldr	r1, [pc, #468]	; 8e40 <va_printk+0x278>
    8c68:	e59f21d4 	ldr	r2, [pc, #468]	; 8e44 <va_printk+0x27c>
    8c6c:	e3a03092 	mov	r3, #146	; 0x92
    8c70:	ebffff06 	bl	8890 <printk>
    8c74:	eb00007d 	bl	8e70 <clean_reboot>
    8c78:	e2455062 	sub	r5, r5, #98	; 0x62
    8c7c:	e3550016 	cmp	r5, #22
    8c80:	979ff105 	ldrls	pc, [pc, r5, lsl #2]
    8c84:	ea00004e 	b	8dc4 <va_printk+0x1fc>
    8c88:	00008d70 	andeq	r8, r0, r0, ror sp
    8c8c:	00008da0 	andeq	r8, r0, r0, lsr #27
    8c90:	00008d00 	andeq	r8, r0, r0, lsl #26
    8c94:	00008dc4 	andeq	r8, r0, r4, asr #27
    8c98:	00008ce4 	andeq	r8, r0, r4, ror #25
    8c9c:	00008dc4 	andeq	r8, r0, r4, asr #27
    8ca0:	00008dc4 	andeq	r8, r0, r4, asr #27
    8ca4:	00008dc4 	andeq	r8, r0, r4, asr #27
    8ca8:	00008dc4 	andeq	r8, r0, r4, asr #27
    8cac:	00008dc4 	andeq	r8, r0, r4, asr #27
    8cb0:	00008dc4 	andeq	r8, r0, r4, asr #27
    8cb4:	00008dc4 	andeq	r8, r0, r4, asr #27
    8cb8:	00008dc4 	andeq	r8, r0, r4, asr #27
    8cbc:	00008dc4 	andeq	r8, r0, r4, asr #27
    8cc0:	00008d4c 	andeq	r8, r0, ip, asr #26
    8cc4:	00008dc4 	andeq	r8, r0, r4, asr #27
    8cc8:	00008dc4 	andeq	r8, r0, r4, asr #27
    8ccc:	00008d94 	muleq	r0, r4, sp
    8cd0:	00008dc4 	andeq	r8, r0, r4, asr #27
    8cd4:	00008d28 	andeq	r8, r0, r8, lsr #26
    8cd8:	00008dc4 	andeq	r8, r0, r4, asr #27
    8cdc:	00008dc4 	andeq	r8, r0, r4, asr #27
    8ce0:	00008d4c 	andeq	r8, r0, ip, asr #26
    8ce4:	ebffff04 	bl	88fc <rpi_reset_putc>
    8ce8:	e59f0158 	ldr	r0, [pc, #344]	; 8e48 <va_printk+0x280>
    8cec:	e59f114c 	ldr	r1, [pc, #332]	; 8e40 <va_printk+0x278>
    8cf0:	e59f214c 	ldr	r2, [pc, #332]	; 8e44 <va_printk+0x27c>
    8cf4:	e3a03098 	mov	r3, #152	; 0x98
    8cf8:	ebfffee4 	bl	8890 <printk>
    8cfc:	eb00005b 	bl	8e70 <clean_reboot>
    8d00:	e5993000 	ldr	r3, [r9]
    8d04:	e2899004 	add	r9, r9, #4
    8d08:	e58d7000 	str	r7, [sp]
    8d0c:	e3a02001 	mov	r2, #1
    8d10:	e58d2004 	str	r2, [sp, #4]
    8d14:	e3a0000a 	mov	r0, #10
    8d18:	e28d1008 	add	r1, sp, #8
    8d1c:	e3a02080 	mov	r2, #128	; 0x80
    8d20:	ebffff2c 	bl	89d8 <emit>
    8d24:	ea00002f 	b	8de8 <va_printk+0x220>
    8d28:	e5993000 	ldr	r3, [r9]
    8d2c:	e2899004 	add	r9, r9, #4
    8d30:	e58d7000 	str	r7, [sp]
    8d34:	e58db004 	str	fp, [sp, #4]
    8d38:	e3a0000a 	mov	r0, #10
    8d3c:	e28d1008 	add	r1, sp, #8
    8d40:	e3a02080 	mov	r2, #128	; 0x80
    8d44:	ebffff23 	bl	89d8 <emit>
    8d48:	ea000026 	b	8de8 <va_printk+0x220>
    8d4c:	e5993000 	ldr	r3, [r9]
    8d50:	e2899004 	add	r9, r9, #4
    8d54:	e58d7000 	str	r7, [sp]
    8d58:	e58db004 	str	fp, [sp, #4]
    8d5c:	e3a00010 	mov	r0, #16
    8d60:	e28d1008 	add	r1, sp, #8
    8d64:	e3a02080 	mov	r2, #128	; 0x80
    8d68:	ebffff1a 	bl	89d8 <emit>
    8d6c:	ea00001d 	b	8de8 <va_printk+0x220>
    8d70:	e5993000 	ldr	r3, [r9]
    8d74:	e2899004 	add	r9, r9, #4
    8d78:	e58d7000 	str	r7, [sp]
    8d7c:	e58db004 	str	fp, [sp, #4]
    8d80:	e3a00002 	mov	r0, #2
    8d84:	e28d1008 	add	r1, sp, #8
    8d88:	e3a02080 	mov	r2, #128	; 0x80
    8d8c:	ebffff11 	bl	89d8 <emit>
    8d90:	ea000014 	b	8de8 <va_printk+0x220>
    8d94:	e5990000 	ldr	r0, [r9]
    8d98:	e2899004 	add	r9, r9, #4
    8d9c:	ea000011 	b	8de8 <va_printk+0x220>
    8da0:	e5993000 	ldr	r3, [r9]
    8da4:	e2899004 	add	r9, r9, #4
    8da8:	e58d7000 	str	r7, [sp]
    8dac:	e58db004 	str	fp, [sp, #4]
    8db0:	e3a00008 	mov	r0, #8
    8db4:	e08d1000 	add	r1, sp, r0
    8db8:	e3a02080 	mov	r2, #128	; 0x80
    8dbc:	ebffff05 	bl	89d8 <emit>
    8dc0:	ea000008 	b	8de8 <va_printk+0x220>
    8dc4:	ebfffecc 	bl	88fc <rpi_reset_putc>
    8dc8:	e5d63000 	ldrb	r3, [r6]
    8dcc:	e58d3000 	str	r3, [sp]
    8dd0:	e59f0074 	ldr	r0, [pc, #116]	; 8e4c <va_printk+0x284>
    8dd4:	e59f1064 	ldr	r1, [pc, #100]	; 8e40 <va_printk+0x278>
    8dd8:	e59f2064 	ldr	r2, [pc, #100]	; 8e44 <va_printk+0x27c>
    8ddc:	e3a030b9 	mov	r3, #185	; 0xb9
    8de0:	ebfffeaa 	bl	8890 <printk>
    8de4:	eb000021 	bl	8e70 <clean_reboot>
    8de8:	e2862001 	add	r2, r6, #1
    8dec:	ea000002 	b	8dfc <va_printk+0x234>
    8df0:	e2800001 	add	r0, r0, #1
    8df4:	e5c43000 	strb	r3, [r4]
    8df8:	e2844001 	add	r4, r4, #1
    8dfc:	e1540008 	cmp	r4, r8
    8e00:	2a000002 	bcs	8e10 <va_printk+0x248>
    8e04:	e5d03000 	ldrb	r3, [r0]
    8e08:	e3530000 	cmp	r3, #0
    8e0c:	1afffff7 	bne	8df0 <va_printk+0x228>
    8e10:	e5d23000 	ldrb	r3, [r2]
    8e14:	e3530000 	cmp	r3, #0
    8e18:	0a000001 	beq	8e24 <va_printk+0x25c>
    8e1c:	e1540008 	cmp	r4, r8
    8e20:	3affff73 	bcc	8bf4 <va_printk+0x2c>
    8e24:	e2840001 	add	r0, r4, #1
    8e28:	e3a03000 	mov	r3, #0
    8e2c:	e5c43000 	strb	r3, [r4]
    8e30:	e06a0000 	rsb	r0, sl, r0
    8e34:	e28dd08c 	add	sp, sp, #140	; 0x8c
    8e38:	e8bd8ff0 	pop	{r4, r5, r6, r7, r8, r9, sl, fp, pc}
    8e3c:	00009c88 	andeq	r9, r0, r8, lsl #25
    8e40:	00009c38 	andeq	r9, r0, r8, lsr ip
    8e44:	00009c18 	andeq	r9, r0, r8, lsl ip
    8e48:	00009ca4 	andeq	r9, r0, r4, lsr #25
    8e4c:	00009ccc 	andeq	r9, r0, ip, asr #25

00008e50 <enable_cache>:
    8e50:	ee113f10 	mrc	15, 0, r3, cr1, cr0, {0}
    8e54:	e3833b06 	orr	r3, r3, #6144	; 0x1800
    8e58:	ee013f10 	mcr	15, 0, r3, cr1, cr0, {0}
    8e5c:	e12fff1e 	bx	lr

00008e60 <disable_cache>:
    8e60:	ee113f10 	mrc	15, 0, r3, cr1, cr0, {0}
    8e64:	e3c33b06 	bic	r3, r3, #6144	; 0x1800
    8e68:	ee013f10 	mcr	15, 0, r3, cr1, cr0, {0}
    8e6c:	e12fff1e 	bx	lr

00008e70 <clean_reboot>:
    8e70:	e92d4008 	push	{r3, lr}
    8e74:	e59f3014 	ldr	r3, [pc, #20]	; 8e90 <clean_reboot+0x20>
    8e78:	e5933000 	ldr	r3, [r3]
    8e7c:	e59f0010 	ldr	r0, [pc, #16]	; 8e94 <clean_reboot+0x24>
    8e80:	e12fff33 	blx	r3
    8e84:	e3a00064 	mov	r0, #100	; 0x64
    8e88:	eb000044 	bl	8fa0 <delay_ms>
    8e8c:	eb000019 	bl	8ef8 <rpi_reboot>
    8e90:	000099cc 	andeq	r9, r0, ip, asr #19
    8e94:	00009d04 	andeq	r9, r0, r4, lsl #26

00008e98 <_cstart>:
    8e98:	e92d4008 	push	{r3, lr}
    8e9c:	e59f3020 	ldr	r3, [pc, #32]	; 8ec4 <_cstart+0x2c>
    8ea0:	e59f2020 	ldr	r2, [pc, #32]	; 8ec8 <_cstart+0x30>
    8ea4:	e3a01000 	mov	r1, #0
    8ea8:	ea000001 	b	8eb4 <_cstart+0x1c>
    8eac:	e5831000 	str	r1, [r3]
    8eb0:	e2833004 	add	r3, r3, #4
    8eb4:	e1530002 	cmp	r3, r2
    8eb8:	3afffffb 	bcc	8eac <_cstart+0x14>
    8ebc:	ebfffde1 	bl	8648 <notmain>
    8ec0:	eb00000c 	bl	8ef8 <rpi_reboot>
    8ec4:	00009ed8 	ldrdeq	r9, [r0], -r8
    8ec8:	0000c318 	andeq	ip, r0, r8, lsl r3

00008ecc <at_user_level>:
    8ecc:	e10f0000 	mrs	r0, CPSR
    8ed0:	e200001f 	and	r0, r0, #31
    8ed4:	e3500010 	cmp	r0, #16
    8ed8:	13a00000 	movne	r0, #0
    8edc:	03a00001 	moveq	r0, #1
    8ee0:	e12fff1e 	bx	lr

00008ee4 <set_user_level>:
    8ee4:	e10f3000 	mrs	r3, CPSR
    8ee8:	e3c3301f 	bic	r3, r3, #31
    8eec:	e3833010 	orr	r3, r3, #16
    8ef0:	e129f003 	msr	CPSR_fc, r3
    8ef4:	e12fff1e 	bx	lr

00008ef8 <rpi_reboot>:
    8ef8:	e92d4008 	push	{r3, lr}
    8efc:	ebfffff2 	bl	8ecc <at_user_level>
    8f00:	e3500000 	cmp	r0, #0
    8f04:	0a000000 	beq	8f0c <rpi_reboot+0x14>
    8f08:	ebfffff5 	bl	8ee4 <set_user_level>
    8f0c:	e3a0001e 	mov	r0, #30
    8f10:	eb000022 	bl	8fa0 <delay_ms>
    8f14:	e59f0014 	ldr	r0, [pc, #20]	; 8f30 <rpi_reboot+0x38>
    8f18:	e59f1014 	ldr	r1, [pc, #20]	; 8f34 <rpi_reboot+0x3c>
    8f1c:	eb000219 	bl	9788 <PUT32>
    8f20:	e59f0010 	ldr	r0, [pc, #16]	; 8f38 <rpi_reboot+0x40>
    8f24:	e59f1010 	ldr	r1, [pc, #16]	; 8f3c <rpi_reboot+0x44>
    8f28:	eb000216 	bl	9788 <PUT32>
    8f2c:	eafffffe 	b	8f2c <rpi_reboot+0x34>
    8f30:	20100024 	andscs	r0, r0, r4, lsr #32
    8f34:	5a000001 	bpl	8f40 <delay_cycles>
    8f38:	2010001c 	andscs	r0, r0, ip, lsl r0
    8f3c:	5a000020 	bpl	8fc4 <delay_sec+0x10>

00008f40 <delay_cycles>:
    8f40:	ea000001 	b	8f4c <delay_cycles+0xc>
    8f44:	e2811000 	add	r1, r1, #0
    8f48:	e1a00003 	mov	r0, r3
    8f4c:	e2403001 	sub	r3, r0, #1
    8f50:	e3500000 	cmp	r0, #0
    8f54:	1afffffa 	bne	8f44 <delay_cycles+0x4>
    8f58:	e12fff1e 	bx	lr

00008f5c <timer_get_usec_raw>:
    8f5c:	e92d4008 	push	{r3, lr}
    8f60:	e59f0004 	ldr	r0, [pc, #4]	; 8f6c <timer_get_usec_raw+0x10>
    8f64:	eb000213 	bl	97b8 <GET32>
    8f68:	e8bd8008 	pop	{r3, pc}
    8f6c:	20003004 	andcs	r3, r0, r4

00008f70 <timer_get_usec>:
    8f70:	e92d4008 	push	{r3, lr}
    8f74:	ebfffff8 	bl	8f5c <timer_get_usec_raw>
    8f78:	e8bd8008 	pop	{r3, pc}

00008f7c <delay_us>:
    8f7c:	e92d4038 	push	{r3, r4, r5, lr}
    8f80:	e1a05000 	mov	r5, r0
    8f84:	ebfffff9 	bl	8f70 <timer_get_usec>
    8f88:	e1a04000 	mov	r4, r0
    8f8c:	ebfffff7 	bl	8f70 <timer_get_usec>
    8f90:	e0640000 	rsb	r0, r4, r0
    8f94:	e1500005 	cmp	r0, r5
    8f98:	3afffffb 	bcc	8f8c <delay_us+0x10>
    8f9c:	e8bd8038 	pop	{r3, r4, r5, pc}

00008fa0 <delay_ms>:
    8fa0:	e92d4008 	push	{r3, lr}
    8fa4:	e3a03ffa 	mov	r3, #1000	; 0x3e8
    8fa8:	e0000093 	mul	r0, r3, r0
    8fac:	ebfffff2 	bl	8f7c <delay_us>
    8fb0:	e8bd8008 	pop	{r3, pc}

00008fb4 <delay_sec>:
    8fb4:	e92d4008 	push	{r3, lr}
    8fb8:	e3a03ffa 	mov	r3, #1000	; 0x3e8
    8fbc:	e0000093 	mul	r0, r3, r0
    8fc0:	ebfffff6 	bl	8fa0 <delay_ms>
    8fc4:	e8bd8008 	pop	{r3, pc}

00008fc8 <gpio_set_output>:
    8fc8:	e92d4038 	push	{r3, r4, r5, lr}
    8fcc:	e1a04000 	mov	r4, r0
    8fd0:	e350001f 	cmp	r0, #31
    8fd4:	88bd8038 	pophi	{r3, r4, r5, pc}
    8fd8:	e59f30b4 	ldr	r3, [pc, #180]	; 9094 <gpio_set_output+0xcc>
    8fdc:	e0832093 	umull	r2, r3, r3, r0
    8fe0:	e1a031a3 	lsr	r3, r3, #3
    8fe4:	e3530005 	cmp	r3, #5
    8fe8:	979ff103 	ldrls	pc, [pc, r3, lsl #2]
    8fec:	ea000017 	b	9050 <gpio_set_output+0x88>
    8ff0:	00009008 	andeq	r9, r0, r8
    8ff4:	00009014 	andeq	r9, r0, r4, lsl r0
    8ff8:	00009020 	andeq	r9, r0, r0, lsr #32
    8ffc:	0000902c 	andeq	r9, r0, ip, lsr #32
    9000:	00009038 	andeq	r9, r0, r8, lsr r0
    9004:	00009044 	andeq	r9, r0, r4, asr #32
    9008:	e59f3088 	ldr	r3, [pc, #136]	; 9098 <gpio_set_output+0xd0>
    900c:	e5935000 	ldr	r5, [r3]
    9010:	ea00000f 	b	9054 <gpio_set_output+0x8c>
    9014:	e59f307c 	ldr	r3, [pc, #124]	; 9098 <gpio_set_output+0xd0>
    9018:	e5935004 	ldr	r5, [r3, #4]
    901c:	ea00000c 	b	9054 <gpio_set_output+0x8c>
    9020:	e59f3070 	ldr	r3, [pc, #112]	; 9098 <gpio_set_output+0xd0>
    9024:	e5935008 	ldr	r5, [r3, #8]
    9028:	ea000009 	b	9054 <gpio_set_output+0x8c>
    902c:	e59f3064 	ldr	r3, [pc, #100]	; 9098 <gpio_set_output+0xd0>
    9030:	e593500c 	ldr	r5, [r3, #12]
    9034:	ea000006 	b	9054 <gpio_set_output+0x8c>
    9038:	e59f3058 	ldr	r3, [pc, #88]	; 9098 <gpio_set_output+0xd0>
    903c:	e5935010 	ldr	r5, [r3, #16]
    9040:	ea000003 	b	9054 <gpio_set_output+0x8c>
    9044:	e59f304c 	ldr	r3, [pc, #76]	; 9098 <gpio_set_output+0xd0>
    9048:	e5935014 	ldr	r5, [r3, #20]
    904c:	ea000000 	b	9054 <gpio_set_output+0x8c>
    9050:	e3a05000 	mov	r5, #0
    9054:	e1a00005 	mov	r0, r5
    9058:	eb0001d4 	bl	97b0 <get32>
    905c:	e59f1030 	ldr	r1, [pc, #48]	; 9094 <gpio_set_output+0xcc>
    9060:	e0813491 	umull	r3, r1, r1, r4
    9064:	e1a011a1 	lsr	r1, r1, #3
    9068:	e0811101 	add	r1, r1, r1, lsl #2
    906c:	e1a01081 	lsl	r1, r1, #1
    9070:	e0611004 	rsb	r1, r1, r4
    9074:	e0811081 	add	r1, r1, r1, lsl #1
    9078:	e3a03007 	mov	r3, #7
    907c:	e1c03113 	bic	r3, r0, r3, lsl r1
    9080:	e1a00005 	mov	r0, r5
    9084:	e3a02001 	mov	r2, #1
    9088:	e1831112 	orr	r1, r3, r2, lsl r1
    908c:	eb0001bb 	bl	9780 <put32>
    9090:	e8bd8038 	pop	{r3, r4, r5, pc}
    9094:	cccccccd 	stclgt	12, cr12, [ip], {205}	; 0xcd
    9098:	000099d0 	ldrdeq	r9, [r0], -r0

0000909c <gpio_set_on>:
    909c:	e92d4008 	push	{r3, lr}
    90a0:	e350001f 	cmp	r0, #31
    90a4:	88bd8008 	pophi	{r3, pc}
    90a8:	959f3020 	ldrls	r3, [pc, #32]	; 90d0 <gpio_set_on+0x34>
    90ac:	95932018 	ldrls	r2, [r3, #24]
    90b0:	859f3018 	ldrhi	r3, [pc, #24]	; 90d0 <gpio_set_on+0x34>
    90b4:	8593201c 	ldrhi	r2, [r3, #28]
    90b8:	e200301f 	and	r3, r0, #31
    90bc:	e1a00002 	mov	r0, r2
    90c0:	e3a01001 	mov	r1, #1
    90c4:	e1a01311 	lsl	r1, r1, r3
    90c8:	eb0001ac 	bl	9780 <put32>
    90cc:	e8bd8008 	pop	{r3, pc}
    90d0:	000099d0 	ldrdeq	r9, [r0], -r0

000090d4 <gpio_set_off>:
    90d4:	e92d4008 	push	{r3, lr}
    90d8:	e350001f 	cmp	r0, #31
    90dc:	88bd8008 	pophi	{r3, pc}
    90e0:	959f3020 	ldrls	r3, [pc, #32]	; 9108 <gpio_set_off+0x34>
    90e4:	95932020 	ldrls	r2, [r3, #32]
    90e8:	859f3018 	ldrhi	r3, [pc, #24]	; 9108 <gpio_set_off+0x34>
    90ec:	85932024 	ldrhi	r2, [r3, #36]	; 0x24
    90f0:	e200301f 	and	r3, r0, #31
    90f4:	e1a00002 	mov	r0, r2
    90f8:	e3a01001 	mov	r1, #1
    90fc:	e1a01311 	lsl	r1, r1, r3
    9100:	eb00019e 	bl	9780 <put32>
    9104:	e8bd8008 	pop	{r3, pc}
    9108:	000099d0 	ldrdeq	r9, [r0], -r0

0000910c <gpio_set_input>:
    910c:	e92d4038 	push	{r3, r4, r5, lr}
    9110:	e1a04000 	mov	r4, r0
    9114:	e350001f 	cmp	r0, #31
    9118:	88bd8038 	pophi	{r3, r4, r5, pc}
    911c:	e59f30ac 	ldr	r3, [pc, #172]	; 91d0 <gpio_set_input+0xc4>
    9120:	e0832093 	umull	r2, r3, r3, r0
    9124:	e1a031a3 	lsr	r3, r3, #3
    9128:	e3530005 	cmp	r3, #5
    912c:	979ff103 	ldrls	pc, [pc, r3, lsl #2]
    9130:	ea000017 	b	9194 <gpio_set_input+0x88>
    9134:	0000914c 	andeq	r9, r0, ip, asr #2
    9138:	00009158 	andeq	r9, r0, r8, asr r1
    913c:	00009164 	andeq	r9, r0, r4, ror #2
    9140:	00009170 	andeq	r9, r0, r0, ror r1
    9144:	0000917c 	andeq	r9, r0, ip, ror r1
    9148:	00009188 	andeq	r9, r0, r8, lsl #3
    914c:	e59f3080 	ldr	r3, [pc, #128]	; 91d4 <gpio_set_input+0xc8>
    9150:	e5935000 	ldr	r5, [r3]
    9154:	ea00000f 	b	9198 <gpio_set_input+0x8c>
    9158:	e59f3074 	ldr	r3, [pc, #116]	; 91d4 <gpio_set_input+0xc8>
    915c:	e5935004 	ldr	r5, [r3, #4]
    9160:	ea00000c 	b	9198 <gpio_set_input+0x8c>
    9164:	e59f3068 	ldr	r3, [pc, #104]	; 91d4 <gpio_set_input+0xc8>
    9168:	e5935008 	ldr	r5, [r3, #8]
    916c:	ea000009 	b	9198 <gpio_set_input+0x8c>
    9170:	e59f305c 	ldr	r3, [pc, #92]	; 91d4 <gpio_set_input+0xc8>
    9174:	e593500c 	ldr	r5, [r3, #12]
    9178:	ea000006 	b	9198 <gpio_set_input+0x8c>
    917c:	e59f3050 	ldr	r3, [pc, #80]	; 91d4 <gpio_set_input+0xc8>
    9180:	e5935010 	ldr	r5, [r3, #16]
    9184:	ea000003 	b	9198 <gpio_set_input+0x8c>
    9188:	e59f3044 	ldr	r3, [pc, #68]	; 91d4 <gpio_set_input+0xc8>
    918c:	e5935014 	ldr	r5, [r3, #20]
    9190:	ea000000 	b	9198 <gpio_set_input+0x8c>
    9194:	e3a05000 	mov	r5, #0
    9198:	e1a00005 	mov	r0, r5
    919c:	eb000183 	bl	97b0 <get32>
    91a0:	e59f1028 	ldr	r1, [pc, #40]	; 91d0 <gpio_set_input+0xc4>
    91a4:	e0813491 	umull	r3, r1, r1, r4
    91a8:	e1a011a1 	lsr	r1, r1, #3
    91ac:	e0811101 	add	r1, r1, r1, lsl #2
    91b0:	e1a01081 	lsl	r1, r1, #1
    91b4:	e0611004 	rsb	r1, r1, r4
    91b8:	e0811081 	add	r1, r1, r1, lsl #1
    91bc:	e3a03007 	mov	r3, #7
    91c0:	e1c01113 	bic	r1, r0, r3, lsl r1
    91c4:	e1a00005 	mov	r0, r5
    91c8:	eb00016c 	bl	9780 <put32>
    91cc:	e8bd8038 	pop	{r3, r4, r5, pc}
    91d0:	cccccccd 	stclgt	12, cr12, [ip], {205}	; 0xcd
    91d4:	000099d0 	ldrdeq	r9, [r0], -r0

000091d8 <gpio_read>:
    91d8:	e92d4010 	push	{r4, lr}
    91dc:	e1a04000 	mov	r4, r0
    91e0:	e350001f 	cmp	r0, #31
    91e4:	8a00000b 	bhi	9218 <gpio_read+0x40>
    91e8:	8a000003 	bhi	91fc <gpio_read+0x24>
    91ec:	e59f302c 	ldr	r3, [pc, #44]	; 9220 <gpio_read+0x48>
    91f0:	e5930028 	ldr	r0, [r3, #40]	; 0x28
    91f4:	eb00016d 	bl	97b0 <get32>
    91f8:	ea000002 	b	9208 <gpio_read+0x30>
    91fc:	e59f301c 	ldr	r3, [pc, #28]	; 9220 <gpio_read+0x48>
    9200:	e593002c 	ldr	r0, [r3, #44]	; 0x2c
    9204:	eb000169 	bl	97b0 <get32>
    9208:	e204401f 	and	r4, r4, #31
    920c:	e3a03001 	mov	r3, #1
    9210:	e0000413 	and	r0, r0, r3, lsl r4
    9214:	e8bd8010 	pop	{r4, pc}
    9218:	e3e00000 	mvn	r0, #0
    921c:	e8bd8010 	pop	{r4, pc}
    9220:	000099d0 	ldrdeq	r9, [r0], -r0

00009224 <gpio_write>:
    9224:	e92d4008 	push	{r3, lr}
    9228:	e350001f 	cmp	r0, #31
    922c:	88bd8008 	pophi	{r3, pc}
    9230:	e3510000 	cmp	r1, #0
    9234:	0a000001 	beq	9240 <gpio_write+0x1c>
    9238:	ebffff97 	bl	909c <gpio_set_on>
    923c:	e8bd8008 	pop	{r3, pc}
    9240:	ebffffa3 	bl	90d4 <gpio_set_off>
    9244:	e8bd8008 	pop	{r3, pc}

00009248 <gpio_set_function>:
    9248:	e92d4070 	push	{r4, r5, r6, lr}
    924c:	e1a04000 	mov	r4, r0
    9250:	e1a05001 	mov	r5, r1
    9254:	e3510007 	cmp	r1, #7
    9258:	9350001f 	cmpls	r0, #31
    925c:	88bd8070 	pophi	{r4, r5, r6, pc}
    9260:	e59f30b0 	ldr	r3, [pc, #176]	; 9318 <gpio_set_function+0xd0>
    9264:	e0832093 	umull	r2, r3, r3, r0
    9268:	e1a031a3 	lsr	r3, r3, #3
    926c:	e3530005 	cmp	r3, #5
    9270:	979ff103 	ldrls	pc, [pc, r3, lsl #2]
    9274:	ea000017 	b	92d8 <gpio_set_function+0x90>
    9278:	00009290 	muleq	r0, r0, r2
    927c:	0000929c 	muleq	r0, ip, r2
    9280:	000092a8 	andeq	r9, r0, r8, lsr #5
    9284:	000092b4 			; <UNDEFINED> instruction: 0x000092b4
    9288:	000092c0 	andeq	r9, r0, r0, asr #5
    928c:	000092cc 	andeq	r9, r0, ip, asr #5
    9290:	e59f3084 	ldr	r3, [pc, #132]	; 931c <gpio_set_function+0xd4>
    9294:	e5936000 	ldr	r6, [r3]
    9298:	ea00000f 	b	92dc <gpio_set_function+0x94>
    929c:	e59f3078 	ldr	r3, [pc, #120]	; 931c <gpio_set_function+0xd4>
    92a0:	e5936004 	ldr	r6, [r3, #4]
    92a4:	ea00000c 	b	92dc <gpio_set_function+0x94>
    92a8:	e59f306c 	ldr	r3, [pc, #108]	; 931c <gpio_set_function+0xd4>
    92ac:	e5936008 	ldr	r6, [r3, #8]
    92b0:	ea000009 	b	92dc <gpio_set_function+0x94>
    92b4:	e59f3060 	ldr	r3, [pc, #96]	; 931c <gpio_set_function+0xd4>
    92b8:	e593600c 	ldr	r6, [r3, #12]
    92bc:	ea000006 	b	92dc <gpio_set_function+0x94>
    92c0:	e59f3054 	ldr	r3, [pc, #84]	; 931c <gpio_set_function+0xd4>
    92c4:	e5936010 	ldr	r6, [r3, #16]
    92c8:	ea000003 	b	92dc <gpio_set_function+0x94>
    92cc:	e59f3048 	ldr	r3, [pc, #72]	; 931c <gpio_set_function+0xd4>
    92d0:	e5936014 	ldr	r6, [r3, #20]
    92d4:	ea000000 	b	92dc <gpio_set_function+0x94>
    92d8:	e3a06000 	mov	r6, #0
    92dc:	e1a00006 	mov	r0, r6
    92e0:	eb000132 	bl	97b0 <get32>
    92e4:	e59f302c 	ldr	r3, [pc, #44]	; 9318 <gpio_set_function+0xd0>
    92e8:	e0832493 	umull	r2, r3, r3, r4
    92ec:	e1a031a3 	lsr	r3, r3, #3
    92f0:	e0833103 	add	r3, r3, r3, lsl #2
    92f4:	e1a03083 	lsl	r3, r3, #1
    92f8:	e0633004 	rsb	r3, r3, r4
    92fc:	e0833083 	add	r3, r3, r3, lsl #1
    9300:	e3a01007 	mov	r1, #7
    9304:	e1c01311 	bic	r1, r0, r1, lsl r3
    9308:	e1a00006 	mov	r0, r6
    930c:	e1811315 	orr	r1, r1, r5, lsl r3
    9310:	eb00011a 	bl	9780 <put32>
    9314:	e8bd8070 	pop	{r4, r5, r6, pc}
    9318:	cccccccd 	stclgt	12, cr12, [ip], {205}	; 0xcd
    931c:	000099d0 	ldrdeq	r9, [r0], -r0

00009320 <gpio_toggle>:
    9320:	e92d4008 	push	{r3, lr}
    9324:	e350001f 	cmp	r0, #31
    9328:	88bd8008 	pophi	{r3, pc}
    932c:	959f3020 	ldrls	r3, [pc, #32]	; 9354 <gpio_toggle+0x34>
    9330:	95932018 	ldrls	r2, [r3, #24]
    9334:	859f3018 	ldrhi	r3, [pc, #24]	; 9354 <gpio_toggle+0x34>
    9338:	8593201c 	ldrhi	r2, [r3, #28]
    933c:	e200301f 	and	r3, r0, #31
    9340:	e1a00002 	mov	r0, r2
    9344:	e3a01001 	mov	r1, #1
    9348:	e1a01311 	lsl	r1, r1, r3
    934c:	eb00010b 	bl	9780 <put32>
    9350:	e8bd8008 	pop	{r3, pc}
    9354:	000099d0 	ldrdeq	r9, [r0], -r0

00009358 <is_gpio_int>:
    9358:	e92d4008 	push	{r3, lr}
    935c:	e59f301c 	ldr	r3, [pc, #28]	; 9380 <is_gpio_int+0x28>
    9360:	e5930030 	ldr	r0, [r3, #48]	; 0x30
    9364:	eb000111 	bl	97b0 <get32>
    9368:	e3500000 	cmp	r0, #0
    936c:	0a000001 	beq	9378 <is_gpio_int+0x20>
    9370:	e3a00001 	mov	r0, #1
    9374:	e8bd8008 	pop	{r3, pc}
    9378:	e3a00000 	mov	r0, #0
    937c:	e8bd8008 	pop	{r3, pc}
    9380:	000099d0 	ldrdeq	r9, [r0], -r0

00009384 <gpio_int_rising_edge>:
    9384:	e92d4038 	push	{r3, r4, r5, lr}
    9388:	e1a04000 	mov	r4, r0
    938c:	e350001f 	cmp	r0, #31
    9390:	88bd8038 	pophi	{r3, r4, r5, pc}
    9394:	eb0000f3 	bl	9768 <dev_barrier>
    9398:	e354001f 	cmp	r4, #31
    939c:	8a000007 	bhi	93c0 <gpio_int_rising_edge+0x3c>
    93a0:	e59f505c 	ldr	r5, [pc, #92]	; 9404 <gpio_int_rising_edge+0x80>
    93a4:	e5950034 	ldr	r0, [r5, #52]	; 0x34
    93a8:	eb000100 	bl	97b0 <get32>
    93ac:	e3a01001 	mov	r1, #1
    93b0:	e1801411 	orr	r1, r0, r1, lsl r4
    93b4:	e5950034 	ldr	r0, [r5, #52]	; 0x34
    93b8:	eb0000f0 	bl	9780 <put32>
    93bc:	ea000007 	b	93e0 <gpio_int_rising_edge+0x5c>
    93c0:	e59f503c 	ldr	r5, [pc, #60]	; 9404 <gpio_int_rising_edge+0x80>
    93c4:	e5950038 	ldr	r0, [r5, #56]	; 0x38
    93c8:	eb0000f8 	bl	97b0 <get32>
    93cc:	e204401f 	and	r4, r4, #31
    93d0:	e3a01001 	mov	r1, #1
    93d4:	e1801411 	orr	r1, r0, r1, lsl r4
    93d8:	e5950038 	ldr	r0, [r5, #56]	; 0x38
    93dc:	eb0000e7 	bl	9780 <put32>
    93e0:	eb0000e0 	bl	9768 <dev_barrier>
    93e4:	e59f4018 	ldr	r4, [pc, #24]	; 9404 <gpio_int_rising_edge+0x80>
    93e8:	e594003c 	ldr	r0, [r4, #60]	; 0x3c
    93ec:	eb0000ef 	bl	97b0 <get32>
    93f0:	e3801802 	orr	r1, r0, #131072	; 0x20000
    93f4:	e594003c 	ldr	r0, [r4, #60]	; 0x3c
    93f8:	eb0000e0 	bl	9780 <put32>
    93fc:	eb0000d9 	bl	9768 <dev_barrier>
    9400:	e8bd8038 	pop	{r3, r4, r5, pc}
    9404:	000099d0 	ldrdeq	r9, [r0], -r0

00009408 <gpio_int_falling_edge>:
    9408:	e92d4038 	push	{r3, r4, r5, lr}
    940c:	e1a04000 	mov	r4, r0
    9410:	e350001f 	cmp	r0, #31
    9414:	88bd8038 	pophi	{r3, r4, r5, pc}
    9418:	eb0000d2 	bl	9768 <dev_barrier>
    941c:	e354001f 	cmp	r4, #31
    9420:	8a000007 	bhi	9444 <gpio_int_falling_edge+0x3c>
    9424:	e59f505c 	ldr	r5, [pc, #92]	; 9488 <gpio_int_falling_edge+0x80>
    9428:	e5950040 	ldr	r0, [r5, #64]	; 0x40
    942c:	eb0000df 	bl	97b0 <get32>
    9430:	e3a01001 	mov	r1, #1
    9434:	e1801411 	orr	r1, r0, r1, lsl r4
    9438:	e5950040 	ldr	r0, [r5, #64]	; 0x40
    943c:	eb0000cf 	bl	9780 <put32>
    9440:	ea000007 	b	9464 <gpio_int_falling_edge+0x5c>
    9444:	e59f503c 	ldr	r5, [pc, #60]	; 9488 <gpio_int_falling_edge+0x80>
    9448:	e5950044 	ldr	r0, [r5, #68]	; 0x44
    944c:	eb0000d7 	bl	97b0 <get32>
    9450:	e204401f 	and	r4, r4, #31
    9454:	e3a01001 	mov	r1, #1
    9458:	e1801411 	orr	r1, r0, r1, lsl r4
    945c:	e5950044 	ldr	r0, [r5, #68]	; 0x44
    9460:	eb0000c6 	bl	9780 <put32>
    9464:	eb0000bf 	bl	9768 <dev_barrier>
    9468:	e59f4018 	ldr	r4, [pc, #24]	; 9488 <gpio_int_falling_edge+0x80>
    946c:	e594003c 	ldr	r0, [r4, #60]	; 0x3c
    9470:	eb0000ce 	bl	97b0 <get32>
    9474:	e3801601 	orr	r1, r0, #1048576	; 0x100000
    9478:	e594003c 	ldr	r0, [r4, #60]	; 0x3c
    947c:	eb0000bf 	bl	9780 <put32>
    9480:	eb0000b8 	bl	9768 <dev_barrier>
    9484:	e8bd8038 	pop	{r3, r4, r5, pc}
    9488:	000099d0 	ldrdeq	r9, [r0], -r0

0000948c <gpio_event_detected>:
    948c:	e92d4010 	push	{r4, lr}
    9490:	e1a04000 	mov	r4, r0
    9494:	e350001f 	cmp	r0, #31
    9498:	8a000019 	bhi	9504 <gpio_event_detected+0x78>
    949c:	eb0000b1 	bl	9768 <dev_barrier>
    94a0:	e354001f 	cmp	r4, #31
    94a4:	8a000008 	bhi	94cc <gpio_event_detected+0x40>
    94a8:	e59f305c 	ldr	r3, [pc, #92]	; 950c <gpio_event_detected+0x80>
    94ac:	e5930048 	ldr	r0, [r3, #72]	; 0x48
    94b0:	eb0000be 	bl	97b0 <get32>
    94b4:	e3a03001 	mov	r3, #1
    94b8:	e0103413 	ands	r3, r0, r3, lsl r4
    94bc:	0a00000d 	beq	94f8 <gpio_event_detected+0x6c>
    94c0:	eb0000a8 	bl	9768 <dev_barrier>
    94c4:	e3a00001 	mov	r0, #1
    94c8:	e8bd8010 	pop	{r4, pc}
    94cc:	e59f3038 	ldr	r3, [pc, #56]	; 950c <gpio_event_detected+0x80>
    94d0:	e593004c 	ldr	r0, [r3, #76]	; 0x4c
    94d4:	eb0000b5 	bl	97b0 <get32>
    94d8:	e3a03001 	mov	r3, #1
    94dc:	e0004413 	and	r4, r0, r3, lsl r4
    94e0:	eb0000a0 	bl	9768 <dev_barrier>
    94e4:	e3540000 	cmp	r4, #0
    94e8:	0a000002 	beq	94f8 <gpio_event_detected+0x6c>
    94ec:	eb00009d 	bl	9768 <dev_barrier>
    94f0:	e3a00001 	mov	r0, #1
    94f4:	e8bd8010 	pop	{r4, pc}
    94f8:	eb00009a 	bl	9768 <dev_barrier>
    94fc:	e3a00000 	mov	r0, #0
    9500:	e8bd8010 	pop	{r4, pc}
    9504:	e3e00000 	mvn	r0, #0
    9508:	e8bd8010 	pop	{r4, pc}
    950c:	000099d0 	ldrdeq	r9, [r0], -r0

00009510 <gpio_event_clear>:
    9510:	e92d4010 	push	{r4, lr}
    9514:	e1a04000 	mov	r4, r0
    9518:	e350001f 	cmp	r0, #31
    951c:	88bd8010 	pophi	{r4, pc}
    9520:	eb000090 	bl	9768 <dev_barrier>
    9524:	e354001f 	cmp	r4, #31
    9528:	8a000005 	bhi	9544 <gpio_event_clear+0x34>
    952c:	e59f3030 	ldr	r3, [pc, #48]	; 9564 <gpio_event_clear+0x54>
    9530:	e5930048 	ldr	r0, [r3, #72]	; 0x48
    9534:	e3a01001 	mov	r1, #1
    9538:	e1a01411 	lsl	r1, r1, r4
    953c:	eb00008f 	bl	9780 <put32>
    9540:	ea000005 	b	955c <gpio_event_clear+0x4c>
    9544:	e204401f 	and	r4, r4, #31
    9548:	e59f3014 	ldr	r3, [pc, #20]	; 9564 <gpio_event_clear+0x54>
    954c:	e593004c 	ldr	r0, [r3, #76]	; 0x4c
    9550:	e3a01001 	mov	r1, #1
    9554:	e1a01411 	lsl	r1, r1, r4
    9558:	eb000088 	bl	9780 <put32>
    955c:	eb000081 	bl	9768 <dev_barrier>
    9560:	e8bd8010 	pop	{r4, pc}
    9564:	000099d0 	ldrdeq	r9, [r0], -r0

00009568 <uart_init>:
    9568:	e92d4038 	push	{r3, r4, r5, lr}
    956c:	eb00007d 	bl	9768 <dev_barrier>
    9570:	e3a0000e 	mov	r0, #14
    9574:	e3a01002 	mov	r1, #2
    9578:	ebffff32 	bl	9248 <gpio_set_function>
    957c:	e3a0000f 	mov	r0, #15
    9580:	e3a01002 	mov	r1, #2
    9584:	ebffff2f 	bl	9248 <gpio_set_function>
    9588:	eb000076 	bl	9768 <dev_barrier>
    958c:	e59f4068 	ldr	r4, [pc, #104]	; 95fc <uart_init+0x94>
    9590:	e5945000 	ldr	r5, [r4]
    9594:	e1a00005 	mov	r0, r5
    9598:	eb000084 	bl	97b0 <get32>
    959c:	e3801001 	orr	r1, r0, #1
    95a0:	e1a00005 	mov	r0, r5
    95a4:	eb000075 	bl	9780 <put32>
    95a8:	eb00006e 	bl	9768 <dev_barrier>
    95ac:	e5940004 	ldr	r0, [r4, #4]
    95b0:	e3a01000 	mov	r1, #0
    95b4:	eb000071 	bl	9780 <put32>
    95b8:	e5940008 	ldr	r0, [r4, #8]
    95bc:	e3a01000 	mov	r1, #0
    95c0:	eb00006e 	bl	9780 <put32>
    95c4:	e594000c 	ldr	r0, [r4, #12]
    95c8:	e3a01006 	mov	r1, #6
    95cc:	eb00006b 	bl	9780 <put32>
    95d0:	e5940010 	ldr	r0, [r4, #16]
    95d4:	e3a01003 	mov	r1, #3
    95d8:	eb000068 	bl	9780 <put32>
    95dc:	e5940014 	ldr	r0, [r4, #20]
    95e0:	e59f1018 	ldr	r1, [pc, #24]	; 9600 <uart_init+0x98>
    95e4:	eb000065 	bl	9780 <put32>
    95e8:	e5940004 	ldr	r0, [r4, #4]
    95ec:	e3a01003 	mov	r1, #3
    95f0:	eb000062 	bl	9780 <put32>
    95f4:	eb00005b 	bl	9768 <dev_barrier>
    95f8:	e8bd8038 	pop	{r3, r4, r5, pc}
    95fc:	00009a30 	andeq	r9, r0, r0, lsr sl
    9600:	0000010e 	andeq	r0, r0, lr, lsl #2

00009604 <uart_can_getc>:
    9604:	e92d4008 	push	{r3, lr}
    9608:	e59f300c 	ldr	r3, [pc, #12]	; 961c <uart_can_getc+0x18>
    960c:	e5930018 	ldr	r0, [r3, #24]
    9610:	eb000066 	bl	97b0 <get32>
    9614:	e2000001 	and	r0, r0, #1
    9618:	e8bd8008 	pop	{r3, pc}
    961c:	00009a30 	andeq	r9, r0, r0, lsr sl

00009620 <uart_getc>:
    9620:	e92d4008 	push	{r3, lr}
    9624:	ebfffff6 	bl	9604 <uart_can_getc>
    9628:	e3500000 	cmp	r0, #0
    962c:	0afffffc 	beq	9624 <uart_getc+0x4>
    9630:	e59f300c 	ldr	r3, [pc, #12]	; 9644 <uart_getc+0x24>
    9634:	e593001c 	ldr	r0, [r3, #28]
    9638:	eb00005c 	bl	97b0 <get32>
    963c:	e6ef0070 	uxtb	r0, r0
    9640:	e8bd8008 	pop	{r3, pc}
    9644:	00009a30 	andeq	r9, r0, r0, lsr sl

00009648 <uart_can_putc>:
    9648:	e92d4008 	push	{r3, lr}
    964c:	e59f300c 	ldr	r3, [pc, #12]	; 9660 <uart_can_putc+0x18>
    9650:	e5930018 	ldr	r0, [r3, #24]
    9654:	eb000055 	bl	97b0 <get32>
    9658:	e2000020 	and	r0, r0, #32
    965c:	e8bd8008 	pop	{r3, pc}
    9660:	00009a30 	andeq	r9, r0, r0, lsr sl

00009664 <uart_putc>:
    9664:	e92d4010 	push	{r4, lr}
    9668:	e1a04000 	mov	r4, r0
    966c:	ebfffff5 	bl	9648 <uart_can_putc>
    9670:	e3500000 	cmp	r0, #0
    9674:	0afffffc 	beq	966c <uart_putc+0x8>
    9678:	e59f300c 	ldr	r3, [pc, #12]	; 968c <uart_putc+0x28>
    967c:	e593001c 	ldr	r0, [r3, #28]
    9680:	e1a01004 	mov	r1, r4
    9684:	eb00003d 	bl	9780 <put32>
    9688:	e8bd8010 	pop	{r4, pc}
    968c:	00009a30 	andeq	r9, r0, r0, lsr sl

00009690 <uart_has_data>:
    9690:	e92d4008 	push	{r3, lr}
    9694:	ebffffda 	bl	9604 <uart_can_getc>
    9698:	e8bd8008 	pop	{r3, pc}

0000969c <uart_getc_async>:
    969c:	e92d4008 	push	{r3, lr}
    96a0:	ebfffffa 	bl	9690 <uart_has_data>
    96a4:	e3500000 	cmp	r0, #0
    96a8:	0a000001 	beq	96b4 <uart_getc_async+0x18>
    96ac:	ebffffdb 	bl	9620 <uart_getc>
    96b0:	e8bd8008 	pop	{r3, pc}
    96b4:	e3e00000 	mvn	r0, #0
    96b8:	e8bd8008 	pop	{r3, pc}

000096bc <int_init>:
    96bc:	e92d4008 	push	{r3, lr}
    96c0:	e59f004c 	ldr	r0, [pc, #76]	; 9714 <int_init+0x58>
    96c4:	e3e01000 	mvn	r1, #0
    96c8:	eb00002e 	bl	9788 <PUT32>
    96cc:	e59f0044 	ldr	r0, [pc, #68]	; 9718 <int_init+0x5c>
    96d0:	e3e01000 	mvn	r1, #0
    96d4:	eb00002b 	bl	9788 <PUT32>
    96d8:	eb000022 	bl	9768 <dev_barrier>
    96dc:	e59f3038 	ldr	r3, [pc, #56]	; 971c <int_init+0x60>
    96e0:	e59f0038 	ldr	r0, [pc, #56]	; 9720 <int_init+0x64>
    96e4:	e0630000 	rsb	r0, r3, r0
    96e8:	e1a00140 	asr	r0, r0, #2
    96ec:	e3a03000 	mov	r3, #0
    96f0:	e59fc024 	ldr	ip, [pc, #36]	; 971c <int_init+0x60>
    96f4:	ea000003 	b	9708 <int_init+0x4c>
    96f8:	e1a02103 	lsl	r2, r3, #2
    96fc:	e79c1103 	ldr	r1, [ip, r3, lsl #2]
    9700:	e5821000 	str	r1, [r2]
    9704:	e2833001 	add	r3, r3, #1
    9708:	e1530000 	cmp	r3, r0
    970c:	3afffff9 	bcc	96f8 <int_init+0x3c>
    9710:	e8bd8008 	pop	{r3, pc}
    9714:	2000b21c 	andcs	fp, r0, ip, lsl r2
    9718:	2000b220 	andcs	fp, r0, r0, lsr #4
    971c:	000097ec 	andeq	r9, r0, ip, ror #15
    9720:	0000983c 	andeq	r9, r0, ip, lsr r8

00009724 <fast_interrupt_vector>:
    9724:	e52de004 	push	{lr}		; (str lr, [sp, #-4]!)
    9728:	e24dd00c 	sub	sp, sp, #12
    972c:	e1a04000 	mov	r4, r0
    9730:	ebfffc71 	bl	88fc <rpi_reset_putc>
    9734:	e59f301c 	ldr	r3, [pc, #28]	; 9758 <fast_interrupt_vector+0x34>
    9738:	e58d3000 	str	r3, [sp]
    973c:	e58d4004 	str	r4, [sp, #4]
    9740:	e59f0014 	ldr	r0, [pc, #20]	; 975c <fast_interrupt_vector+0x38>
    9744:	e59f1014 	ldr	r1, [pc, #20]	; 9760 <fast_interrupt_vector+0x3c>
    9748:	e59f2014 	ldr	r2, [pc, #20]	; 9764 <fast_interrupt_vector+0x40>
    974c:	e3a0302f 	mov	r3, #47	; 0x2f
    9750:	ebfffc4e 	bl	8890 <printk>
    9754:	ebfffdc5 	bl	8e70 <clean_reboot>
    9758:	00009d84 	andeq	r9, r0, r4, lsl #27
    975c:	00009d28 	andeq	r9, r0, r8, lsr #26
    9760:	00009d64 	andeq	r9, r0, r4, ror #26
    9764:	00009d10 	andeq	r9, r0, r0, lsl sp

00009768 <dev_barrier>:
    9768:	ea000002 	b	9778 <dsb>

0000976c <dmb>:
    976c:	e3a00000 	mov	r0, #0
    9770:	ee070fba 	mcr	15, 0, r0, cr7, cr10, {5}
    9774:	e12fff1e 	bx	lr

00009778 <dsb>:
    9778:	ee070f9a 	mcr	15, 0, r0, cr7, cr10, {4}
    977c:	e12fff1e 	bx	lr

00009780 <put32>:
    9780:	e5801000 	str	r1, [r0]
    9784:	e12fff1e 	bx	lr

00009788 <PUT32>:
    9788:	e5801000 	str	r1, [r0]
    978c:	e12fff1e 	bx	lr

00009790 <put16>:
    9790:	e1c010b0 	strh	r1, [r0]
    9794:	e12fff1e 	bx	lr

00009798 <PUT16>:
    9798:	e1c010b0 	strh	r1, [r0]
    979c:	e12fff1e 	bx	lr

000097a0 <put8>:
    97a0:	e5c01000 	strb	r1, [r0]
    97a4:	e12fff1e 	bx	lr

000097a8 <PUT8>:
    97a8:	e5c01000 	strb	r1, [r0]
    97ac:	e12fff1e 	bx	lr

000097b0 <get32>:
    97b0:	e5900000 	ldr	r0, [r0]
    97b4:	e12fff1e 	bx	lr

000097b8 <GET32>:
    97b8:	e5900000 	ldr	r0, [r0]
    97bc:	e12fff1e 	bx	lr

000097c0 <GETPC>:
    97c0:	e1a0000e 	mov	r0, lr
    97c4:	e12fff1e 	bx	lr

000097c8 <dummy>:
    97c8:	e12fff1e 	bx	lr

000097cc <system_enable_interrupts>:
    97cc:	e10f0000 	mrs	r0, CPSR
    97d0:	e3c00080 	bic	r0, r0, #128	; 0x80
    97d4:	e121f000 	msr	CPSR_c, r0
    97d8:	e12fff1e 	bx	lr

000097dc <system_disable_interrupts>:
    97dc:	e10f0000 	mrs	r0, CPSR
    97e0:	e3800080 	orr	r0, r0, #128	; 0x80
    97e4:	e121f000 	msr	CPSR_c, r0
    97e8:	e12fff1e 	bx	lr

000097ec <_interrupt_table>:
    97ec:	e59ff030 	ldr	pc, [pc, #48]	; 9824 <_reset_asm>
    97f0:	e59ff030 	ldr	pc, [pc, #48]	; 9828 <_undefined_instruction_asm>
    97f4:	e59ff030 	ldr	pc, [pc, #48]	; 982c <_software_interrupt_asm>
    97f8:	e59ff030 	ldr	pc, [pc, #48]	; 9830 <_prefetch_abort_asm>
    97fc:	e59ff030 	ldr	pc, [pc, #48]	; 9834 <_data_abort_asm>
    9800:	e59ff01c 	ldr	pc, [pc, #28]	; 9824 <_reset_asm>
    9804:	e59ff02c 	ldr	pc, [pc, #44]	; 9838 <_interrupt_asm>

00009808 <fast_interrupt_asm>:
    9808:	e24ee004 	sub	lr, lr, #4
    980c:	e52de004 	push	{lr}		; (str lr, [sp, #-4]!)
    9810:	e92d1fff 	push	{r0, r1, r2, r3, r4, r5, r6, r7, r8, r9, sl, fp, ip}
    9814:	e1a0000e 	mov	r0, lr
    9818:	ebffffc1 	bl	9724 <fast_interrupt_vector>
    981c:	e8bd1fff 	pop	{r0, r1, r2, r3, r4, r5, r6, r7, r8, r9, sl, fp, ip}
    9820:	e8fd8000 	ldm	sp!, {pc}^

00009824 <_reset_asm>:
    9824:	00009884 	andeq	r9, r0, r4, lsl #17

00009828 <_undefined_instruction_asm>:
    9828:	0000988c 	andeq	r9, r0, ip, lsl #17

0000982c <_software_interrupt_asm>:
    982c:	00009858 	andeq	r9, r0, r8, asr r8

00009830 <_prefetch_abort_asm>:
    9830:	00009894 	muleq	r0, r4, r8

00009834 <_data_abort_asm>:
    9834:	0000989c 	muleq	r0, ip, r8

00009838 <_interrupt_asm>:
    9838:	0000983c 	andeq	r9, r0, ip, lsr r8

0000983c <_interrupt_table_end>:
    983c:	e3a0d409 	mov	sp, #150994944	; 0x9000000
    9840:	e24ee004 	sub	lr, lr, #4
    9844:	e92d5fff 	push	{r0, r1, r2, r3, r4, r5, r6, r7, r8, r9, sl, fp, ip, lr}
    9848:	e1a0000e 	mov	r0, lr
    984c:	ebfffaed 	bl	8408 <interrupt_vector>
    9850:	e8bd5fff 	pop	{r0, r1, r2, r3, r4, r5, r6, r7, r8, r9, sl, fp, ip, lr}
    9854:	e1b0f00e 	movs	pc, lr

00009858 <software_interrupt_asm>:
    9858:	e52de004 	push	{lr}		; (str lr, [sp, #-4]!)
    985c:	e92d1ffe 	push	{r1, r2, r3, r4, r5, r6, r7, r8, r9, sl, fp, ip}
    9860:	e24ee004 	sub	lr, lr, #4
    9864:	e1a0200e 	mov	r2, lr
    9868:	e1a01000 	mov	r1, r0
    986c:	e1a0000e 	mov	r0, lr
    9870:	eb000003 	bl	9884 <reset_asm>
    9874:	e8bd1ffe 	pop	{r1, r2, r3, r4, r5, r6, r7, r8, r9, sl, fp, ip}
    9878:	e49de004 	pop	{lr}		; (ldr lr, [sp], #4)
    987c:	e8fd8000 	ldm	sp!, {pc}^
    9880:	e1b0f00e 	movs	pc, lr

00009884 <reset_asm>:
    9884:	e24ee004 	sub	lr, lr, #4
    9888:	eb00002c 	bl	9940 <reset_vector>

0000988c <undefined_instruction_asm>:
    988c:	e24ee004 	sub	lr, lr, #4
    9890:	eb00003b 	bl	9984 <undefined_instruction_vector>

00009894 <prefetch_abort_asm>:
    9894:	e24ee004 	sub	lr, lr, #4
    9898:	eb000017 	bl	98fc <prefetch_abort_vector>

0000989c <data_abort_asm>:
    989c:	e3a0d409 	mov	sp, #150994944	; 0x9000000
    98a0:	e24ee008 	sub	lr, lr, #8
    98a4:	e92d5fff 	push	{r0, r1, r2, r3, r4, r5, r6, r7, r8, r9, sl, fp, ip, lr}
    98a8:	e1a0000e 	mov	r0, lr
    98ac:	eb000001 	bl	98b8 <data_abort_vector>
    98b0:	e8bd5fff 	pop	{r0, r1, r2, r3, r4, r5, r6, r7, r8, r9, sl, fp, ip, lr}
    98b4:	e1b0f00e 	movs	pc, lr

000098b8 <data_abort_vector>:
    98b8:	e52de004 	push	{lr}		; (str lr, [sp, #-4]!)
    98bc:	e24dd00c 	sub	sp, sp, #12
    98c0:	e1a04000 	mov	r4, r0
    98c4:	ebfffc0c 	bl	88fc <rpi_reset_putc>
    98c8:	e59f301c 	ldr	r3, [pc, #28]	; 98ec <data_abort_vector+0x34>
    98cc:	e58d3000 	str	r3, [sp]
    98d0:	e58d4004 	str	r4, [sp, #4]
    98d4:	e59f0014 	ldr	r0, [pc, #20]	; 98f0 <data_abort_vector+0x38>
    98d8:	e59f1014 	ldr	r1, [pc, #20]	; 98f4 <data_abort_vector+0x3c>
    98dc:	e59f2014 	ldr	r2, [pc, #20]	; 98f8 <data_abort_vector+0x40>
    98e0:	e3a03002 	mov	r3, #2
    98e4:	ebfffbe9 	bl	8890 <printk>
    98e8:	ebfffd60 	bl	8e70 <clean_reboot>
    98ec:	00009dd0 	ldrdeq	r9, [r0], -r0
    98f0:	00009d28 	andeq	r9, r0, r8, lsr #26
    98f4:	00009da0 	andeq	r9, r0, r0, lsr #27
    98f8:	00009d8c 	andeq	r9, r0, ip, lsl #27

000098fc <prefetch_abort_vector>:
    98fc:	e52de004 	push	{lr}		; (str lr, [sp, #-4]!)
    9900:	e24dd00c 	sub	sp, sp, #12
    9904:	e1a04000 	mov	r4, r0
    9908:	ebfffbfb 	bl	88fc <rpi_reset_putc>
    990c:	e59f301c 	ldr	r3, [pc, #28]	; 9930 <prefetch_abort_vector+0x34>
    9910:	e58d3000 	str	r3, [sp]
    9914:	e58d4004 	str	r4, [sp, #4]
    9918:	e59f0014 	ldr	r0, [pc, #20]	; 9934 <prefetch_abort_vector+0x38>
    991c:	e59f1014 	ldr	r1, [pc, #20]	; 9938 <prefetch_abort_vector+0x3c>
    9920:	e59f2014 	ldr	r2, [pc, #20]	; 993c <prefetch_abort_vector+0x40>
    9924:	e3a03002 	mov	r3, #2
    9928:	ebfffbd8 	bl	8890 <printk>
    992c:	ebfffd4f 	bl	8e70 <clean_reboot>
    9930:	00009e20 	andeq	r9, r0, r0, lsr #28
    9934:	00009d28 	andeq	r9, r0, r8, lsr #26
    9938:	00009df4 	strdeq	r9, [r0], -r4
    993c:	00009ddc 	ldrdeq	r9, [r0], -ip

00009940 <reset_vector>:
    9940:	e52de004 	push	{lr}		; (str lr, [sp, #-4]!)
    9944:	e24dd00c 	sub	sp, sp, #12
    9948:	e1a04000 	mov	r4, r0
    994c:	ebfffbea 	bl	88fc <rpi_reset_putc>
    9950:	e59f301c 	ldr	r3, [pc, #28]	; 9974 <reset_vector+0x34>
    9954:	e58d3000 	str	r3, [sp]
    9958:	e58d4004 	str	r4, [sp, #4]
    995c:	e59f0014 	ldr	r0, [pc, #20]	; 9978 <reset_vector+0x38>
    9960:	e59f1014 	ldr	r1, [pc, #20]	; 997c <reset_vector+0x3c>
    9964:	e59f2014 	ldr	r2, [pc, #20]	; 9980 <reset_vector+0x40>
    9968:	e3a03002 	mov	r3, #2
    996c:	ebfffbc7 	bl	8890 <printk>
    9970:	ebfffd3e 	bl	8e70 <clean_reboot>
    9974:	00009e6c 	andeq	r9, r0, ip, ror #28
    9978:	00009d28 	andeq	r9, r0, r8, lsr #26
    997c:	00009e40 	andeq	r9, r0, r0, asr #28
    9980:	00009e30 	andeq	r9, r0, r0, lsr lr

00009984 <undefined_instruction_vector>:
    9984:	e52de004 	push	{lr}		; (str lr, [sp, #-4]!)
    9988:	e24dd00c 	sub	sp, sp, #12
    998c:	e1a04000 	mov	r4, r0
    9990:	ebfffbd9 	bl	88fc <rpi_reset_putc>
    9994:	e59f301c 	ldr	r3, [pc, #28]	; 99b8 <undefined_instruction_vector+0x34>
    9998:	e58d3000 	str	r3, [sp]
    999c:	e58d4004 	str	r4, [sp, #4]
    99a0:	e59f0014 	ldr	r0, [pc, #20]	; 99bc <undefined_instruction_vector+0x38>
    99a4:	e59f1014 	ldr	r1, [pc, #20]	; 99c0 <undefined_instruction_vector+0x3c>
    99a8:	e59f2014 	ldr	r2, [pc, #20]	; 99c4 <undefined_instruction_vector+0x40>
    99ac:	e3a03002 	mov	r3, #2
    99b0:	ebfffbb6 	bl	8890 <printk>
    99b4:	ebfffd2d 	bl	8e70 <clean_reboot>
    99b8:	00009ec8 	andeq	r9, r0, r8, asr #29
    99bc:	00009d28 	andeq	r9, r0, r8, lsr #26
    99c0:	00009e94 	muleq	r0, r4, lr
    99c4:	00009e74 	andeq	r9, r0, r4, ror lr

Disassembly of section .data:

000099c8 <rpi_putchar>:
    99c8:	000088e8 	andeq	r8, r0, r8, ror #17

000099cc <putk>:
    99cc:	00008924 	andeq	r8, r0, r4, lsr #18

000099d0 <GPFSEL0>:
    99d0:	20200000 	eorcs	r0, r0, r0

000099d4 <GPFSEL1>:
    99d4:	20200004 	eorcs	r0, r0, r4

000099d8 <GPFSEL2>:
    99d8:	20200008 	eorcs	r0, r0, r8

000099dc <GPFSEL3>:
    99dc:	2020000c 	eorcs	r0, r0, ip

000099e0 <GPFSEL4>:
    99e0:	20200010 	eorcs	r0, r0, r0, lsl r0

000099e4 <GPFSEL5>:
    99e4:	20200014 	eorcs	r0, r0, r4, lsl r0

000099e8 <GPSET0>:
    99e8:	2020001c 	eorcs	r0, r0, ip, lsl r0

000099ec <GPSET1>:
    99ec:	20200020 	eorcs	r0, r0, r0, lsr #32

000099f0 <GPCLR0>:
    99f0:	20200028 	eorcs	r0, r0, r8, lsr #32

000099f4 <GPCLR1>:
    99f4:	2020002c 	eorcs	r0, r0, ip, lsr #32

000099f8 <GPLEV0>:
    99f8:	20200034 	eorcs	r0, r0, r4, lsr r0

000099fc <GPLEV1>:
    99fc:	20200038 	eorcs	r0, r0, r8, lsr r0

00009a00 <IRQ_PENDING_2>:
    9a00:	2000b208 	andcs	fp, r0, r8, lsl #4

00009a04 <GPREN0>:
    9a04:	2020004c 	eorcs	r0, r0, ip, asr #32

00009a08 <GPREN1>:
    9a08:	20200050 	eorcs	r0, r0, r0, asr r0

00009a0c <ENABLE_IRQS_2>:
    9a0c:	2000b214 	andcs	fp, r0, r4, lsl r2

00009a10 <GPFEN0>:
    9a10:	20200058 	eorcs	r0, r0, r8, asr r0

00009a14 <GPFEN1>:
    9a14:	2020005c 	eorcs	r0, r0, ip, asr r0

00009a18 <GPEDS0>:
    9a18:	20200040 	eorcs	r0, r0, r0, asr #32

00009a1c <GPEDS1>:
    9a1c:	20200044 	eorcs	r0, r0, r4, asr #32

00009a20 <IRQ_PENDING_1>:
    9a20:	2000b204 	andcs	fp, r0, r4, lsl #4

00009a24 <gpio_clr0>:
    9a24:	20200028 	eorcs	r0, r0, r8, lsr #32

00009a28 <gpio_set0>:
    9a28:	2020001c 	eorcs	r0, r0, ip, lsl r0

00009a2c <gpio_fsel0>:
    9a2c:	20200000 	eorcs	r0, r0, r0

00009a30 <AUX_ENABLES>:
    9a30:	20215004 	eorcs	r5, r1, r4

00009a34 <AUX_MU_CNTL_REG>:
    9a34:	20215060 	eorcs	r5, r1, r0, rrx

00009a38 <AUX_MU_IER_REG>:
    9a38:	20215044 	eorcs	r5, r1, r4, asr #32

00009a3c <AUX_MU_IIR_REG>:
    9a3c:	20215048 	eorcs	r5, r1, r8, asr #32

00009a40 <AUX_MU_LCR_REG>:
    9a40:	2021504c 	eorcs	r5, r1, ip, asr #32

00009a44 <AUX_MU_BAUD_REG>:
    9a44:	20215068 	eorcs	r5, r1, r8, rrx

00009a48 <AUX_MU_LSR_REG>:
    9a48:	20215054 	eorcs	r5, r1, r4, asr r0

00009a4c <AUX_MU_IO_REG>:
    9a4c:	20215040 	eorcs	r5, r1, r0, asr #32

00009a50 <AUX_MU_STAT_REG>:
    9a50:	20215064 	eorcs	r5, r1, r4, rrx

00009a54 <AUX_MU_SCRATCH>:
    9a54:	2021505c 	eorcs	r5, r1, ip, asr r0

00009a58 <AUX_MU_MSR_REG>:
    9a58:	20215058 	eorcs	r5, r1, r8, asr r0

00009a5c <AUX_MU_MCR_REG>:
    9a5c:	20215050 	eorcs	r5, r1, r0, asr r0

00009a60 <AUX_IRQ>:
    9a60:	20215000 	eorcs	r5, r1, r0

Disassembly of section .rodata:

00009a64 <__FUNCTION__.4305>:
    9a64:	705f7163 	subsvc	r7, pc, r3, ror #2
    9a68:	0000706f 	andeq	r7, r0, pc, rrx

00009a6c <__FUNCTION__.4479>:
    9a6c:	6c637963 	stclvs	9, cr7, [r3], #-396	; 0xfffffe74
    9a70:	705f7365 	subsvc	r7, pc, r5, ror #6
    9a74:	735f7265 	cmpvc	pc, #1342177286	; 0x50000006
    9a78:	00006365 	andeq	r6, r0, r5, ror #6

00009a7c <__FUNCTION__.4364>:
    9a7c:	695f7163 	ldmdbvs	pc, {r0, r1, r5, r6, r8, ip, sp, lr}^	; <UNPREDICTABLE>
    9a80:	0074696e 	rsbseq	r6, r4, lr, ror #18
    9a84:	61206d61 	teqvs	r0, r1, ror #26
    9a88:	696c6320 	stmdbvs	ip!, {r5, r8, r9, sp, lr}^
    9a8c:	20746e65 	rsbscs	r6, r4, r5, ror #28
    9a90:	0000000a 	andeq	r0, r0, sl
    9a94:	494e4150 	stmdbmi	lr, {r4, r6, r8, lr}^
    9a98:	73253a43 	teqvc	r5, #274432	; 0x43000
    9a9c:	3a73253a 	bcc	1cd2f8c <__bss_end__+0x1cc6c74>
    9aa0:	773a6425 	ldrvc	r6, [sl, -r5, lsr #8]!
    9aa4:	206c6c69 	rsbcs	r6, ip, r9, ror #24
    9aa8:	64616564 	strbtvs	r6, [r1], #-1380	; 0x564
    9aac:	6b636f6c 	blvs	18e5864 <__bss_end__+0x18d954c>
    9ab0:	6e69203a 	mcrvs	0, 3, r2, cr9, cr10, {1}
    9ab4:	72726574 	rsbsvc	r6, r2, #116, 10	; 0x1d000000
    9ab8:	73747075 	cmnvc	r4, #117	; 0x75
    9abc:	746f6e20 	strbtvc	r6, [pc], #-3616	; 9ac4 <__FUNCTION__.4364+0x48>
    9ac0:	616e6520 	cmnvs	lr, r0, lsr #10
    9ac4:	64656c62 	strbtvs	r6, [r5], #-3170	; 0xc62
    9ac8:	49465b20 	stmdbmi	r6, {r5, r8, r9, fp, ip, lr}^
    9acc:	5d454d58 	stclpl	13, cr4, [r5, #-352]	; 0xfffffea0
    9ad0:	00000a0a 	andeq	r0, r0, sl, lsl #20
    9ad4:	6573552f 	ldrbvs	r5, [r3, #-1327]!	; 0x52f
    9ad8:	622f7372 	eorvs	r7, pc, #-939524095	; 0xc8000001
    9adc:	6e616972 	mcrvs	9, 3, r6, cr1, cr2, {3}
    9ae0:	2f6e756a 	svccs	0x006e756a
    9ae4:	6b736544 	blvs	1ce2ffc <__bss_end__+0x1cd6ce4>
    9ae8:	2f706f74 	svccs	0x00706f74
    9aec:	6f686373 	svcvs	0x00686373
    9af0:	572f6c6f 	strpl	r6, [pc, -pc, ror #24]!
    9af4:	65746e69 	ldrbvs	r6, [r4, #-3689]!	; 0xe69
    9af8:	32393172 	eorscc	r3, r9, #-2147483620	; 0x8000001c
    9afc:	53432f30 	movtpl	r2, #16176	; 0x3f30
    9b00:	45303431 	ldrmi	r3, [r0, #-1073]!	; 0x431
    9b04:	3173632f 	cmncc	r3, pc, lsr #6
    9b08:	2d653034 	stclcs	0, cr3, [r5, #-208]!	; 0xffffff30
    9b0c:	69773032 	ldmdbvs	r7!, {r1, r4, r5, ip, sp}^
    9b10:	696c2f6e 	stmdbvs	ip!, {r1, r2, r3, r5, r6, r8, r9, sl, fp, sp}^
    9b14:	2f697062 	svccs	0x00697062
    9b18:	6362696c 	cmnvs	r2, #108, 18	; 0x1b0000
    9b1c:	7269632f 	rsbvc	r6, r9, #-1140850688	; 0xbc000000
    9b20:	616c7563 	cmnvs	ip, r3, ror #10
    9b24:	00682e72 	rsbeq	r2, r8, r2, ror lr
    9b28:	4f525245 	svcmi	0x00525245
    9b2c:	73253a52 	teqvc	r5, #335872	; 0x52000
    9b30:	3a73253a 	bcc	1cd3020 <__bss_end__+0x1cc6d08>
    9b34:	203a6425 	eorscs	r6, sl, r5, lsr #8
    9b38:	534c4146 	movtpl	r4, #49478	; 0xc146
    9b3c:	733c2845 	teqvc	ip, #4521984	; 0x450000
    9b40:	32203c20 	eorcc	r3, r0, #32, 24	; 0x2000
    9b44:	203a293e 	eorscs	r2, sl, lr, lsr r9
    9b48:	6c6c6977 	stclvs	9, cr6, [ip], #-476	; 0xfffffe24
    9b4c:	65766f20 	ldrbvs	r6, [r6, #-3872]!	; 0xf20
    9b50:	6f6c6672 	svcvs	0x006c6672
    9b54:	00000a77 	andeq	r0, r0, r7, ror sl
    9b58:	6f6c2d32 	svcvs	0x006c2d32
    9b5c:	2d636967 	stclcs	9, cr6, [r3, #-412]!	; 0xfffffe64
    9b60:	6c616e61 	stclvs	14, cr6, [r1], #-388	; 0xfffffe7c
    9b64:	72657a79 	rsbvc	r7, r5, #495616	; 0x79000
    9b68:	0000632e 	andeq	r6, r0, lr, lsr #6
    9b6c:	494e4150 	stmdbmi	lr, {r4, r6, r8, lr}^
    9b70:	73253a43 	teqvc	r5, #274432	; 0x43000
    9b74:	3a73253a 	bcc	1cd3064 <__bss_end__+0x1cc6d4c>
    9b78:	633a6425 	teqvs	sl, #620756992	; 0x25000000
    9b7c:	6d655f71 	stclvs	15, cr5, [r5, #-452]!	; 0xfffffe3c
    9b80:	28797470 	ldmdacs	r9!, {r4, r5, r6, sl, ip, sp, lr}^
    9b84:	000a2963 	andeq	r2, sl, r3, ror #18
    9b88:	494e4150 	stmdbmi	lr, {r4, r6, r8, lr}^
    9b8c:	73253a43 	teqvc	r5, #274432	; 0x43000
    9b90:	3a73253a 	bcc	1cd3080 <__bss_end__+0x1cc6d68>
    9b94:	213a6425 	teqcs	sl, r5, lsr #8
    9b98:	665f7163 	ldrbvs	r7, [pc], -r3, ror #2
    9b9c:	286c6c75 	stmdacs	ip!, {r0, r2, r4, r5, r6, sl, fp, sp, lr}^
    9ba0:	000a2963 	andeq	r2, sl, r3, ror #18
    9ba4:	494e4150 	stmdbmi	lr, {r4, r6, r8, lr}^
    9ba8:	73253a43 	teqvc	r5, #274432	; 0x43000
    9bac:	3a73253a 	bcc	1cd309c <__bss_end__+0x1cc6d84>
    9bb0:	633a6425 	teqvs	sl, #620756992	; 0x25000000
    9bb4:	656e5f71 	strbvs	r5, [lr, #-3953]!	; 0xf71
    9bb8:	286d656c 	stmdacs	sp!, {r2, r3, r5, r6, r8, sl, sp, lr}^
    9bbc:	3d202963 	stccc	9, cr2, [r0, #-396]!	; 0xfffffe74
    9bc0:	0a30203d 	beq	c11cbc <__bss_end__+0xc059a4>
    9bc4:	00000000 	andeq	r0, r0, r0
    9bc8:	494e4150 	stmdbmi	lr, {r4, r6, r8, lr}^
    9bcc:	73253a43 	teqvc	r5, #274432	; 0x43000
    9bd0:	3a73253a 	bcc	1cd30c0 <__bss_end__+0x1cc6da8>
    9bd4:	633a6425 	teqvs	sl, #620756992	; 0x25000000
    9bd8:	6f705f71 	svcvs	0x00705f71
    9bdc:	6f6e5f70 	svcvs	0x006e5f70
    9be0:	6f6c626e 	svcvs	0x006c626e
    9be4:	63286b63 	teqvs	r8, #101376	; 0x18c00
    9be8:	2965262c 	stmdbcs	r5!, {r2, r3, r5, r9, sl, sp}^
    9bec:	203d3d20 	eorscs	r3, sp, r0, lsr #26
    9bf0:	26262030 			; <UNDEFINED> instruction: 0x26262030
    9bf4:	3d206520 	cfstr32cc	mvfx6, [r0, #-128]!	; 0xffffff80
    9bf8:	7830203d 	ldmdavc	r0!, {r0, r2, r3, r4, r5, sp}
    9bfc:	000a3231 	andeq	r3, sl, r1, lsr r2

00009c00 <__FUNCTION__.4271>:
    9c00:	74696d65 	strbtvc	r6, [r9], #-3429	; 0xd65
    9c04:	00000000 	andeq	r0, r0, r0

00009c08 <__FUNCTION__.4219>:
    9c08:	5f697072 	svcpl	0x00697072
    9c0c:	5f746573 	svcpl	0x00746573
    9c10:	7074756f 	rsbsvc	r7, r4, pc, ror #10
    9c14:	00007475 	andeq	r7, r0, r5, ror r4

00009c18 <__FUNCTION__.4293>:
    9c18:	705f6176 	subsvc	r6, pc, r6, ror r1	; <UNPREDICTABLE>
    9c1c:	746e6972 	strbtvc	r6, [lr], #-2418	; 0x972
    9c20:	0000006b 	andeq	r0, r0, fp, rrx
    9c24:	494e4150 	stmdbmi	lr, {r4, r6, r8, lr}^
    9c28:	73253a43 	teqvc	r5, #274432	; 0x43000
    9c2c:	3a73253a 	bcc	1cd311c <__bss_end__+0x1cc6e04>
    9c30:	303a6425 	eorscc	r6, sl, r5, lsr #8
    9c34:	0000000a 	andeq	r0, r0, sl
    9c38:	6362696c 	cmnvs	r2, #108, 18	; 0x1b0000
    9c3c:	2d61762f 	stclcs	6, cr7, [r1, #-188]!	; 0xffffff44
    9c40:	6e697270 	mcrvs	2, 3, r7, cr9, cr0, {3}
    9c44:	632e6b74 	teqvs	lr, #116, 22	; 0x1d000
    9c48:	00000000 	andeq	r0, r0, r0
    9c4c:	33323130 	teqcc	r2, #48, 2
    9c50:	37363534 			; <UNDEFINED> instruction: 0x37363534
    9c54:	00003938 	andeq	r3, r0, r8, lsr r9
    9c58:	33323130 	teqcc	r2, #48, 2
    9c5c:	37363534 			; <UNDEFINED> instruction: 0x37363534
    9c60:	62613938 	rsbvs	r3, r1, #56, 18	; 0xe0000
    9c64:	66656463 	strbtvs	r6, [r5], -r3, ror #8
    9c68:	00000000 	andeq	r0, r0, r0
    9c6c:	00003130 	andeq	r3, r0, r0, lsr r1
    9c70:	494e4150 	stmdbmi	lr, {r4, r6, r8, lr}^
    9c74:	73253a43 	teqvc	r5, #274432	; 0x43000
    9c78:	3a73253a 	bcc	1cd3168 <__bss_end__+0x1cc6e50>
    9c7c:	703a6425 	eorsvc	r6, sl, r5, lsr #8
    9c80:	5f637475 	svcpl	0x00637475
    9c84:	000a7066 	andeq	r7, sl, r6, rrx
    9c88:	494e4150 	stmdbmi	lr, {r4, r6, r8, lr}^
    9c8c:	73253a43 	teqvc	r5, #274432	; 0x43000
    9c90:	3a73253a 	bcc	1cd3180 <__bss_end__+0x1cc6e68>
    9c94:	773a6425 	ldrvc	r6, [sl, -r5, lsr #8]!
    9c98:	68746469 	ldmdavs	r4!, {r0, r3, r5, r6, sl, sp, lr}^
    9c9c:	33203c20 	teqcc	r0, #32, 24	; 0x2000
    9ca0:	00000a32 	andeq	r0, r0, r2, lsr sl
    9ca4:	494e4150 	stmdbmi	lr, {r4, r6, r8, lr}^
    9ca8:	73253a43 	teqvc	r5, #274432	; 0x43000
    9cac:	3a73253a 	bcc	1cd319c <__bss_end__+0x1cc6e84>
    9cb0:	663a6425 	ldrtvs	r6, [sl], -r5, lsr #8
    9cb4:	74616f6c 	strbtvc	r6, [r1], #-3948	; 0xf6c
    9cb8:	746f6e20 	strbtvc	r6, [pc], #-3616	; 9cc0 <__FUNCTION__.4293+0xa8>
    9cbc:	616e6520 	cmnvs	lr, r0, lsr #10
    9cc0:	64656c62 	strbtvs	r6, [r5], #-3170	; 0xc62
    9cc4:	0a212121 	beq	852150 <__bss_end__+0x845e38>
    9cc8:	00000000 	andeq	r0, r0, r0
    9ccc:	494e4150 	stmdbmi	lr, {r4, r6, r8, lr}^
    9cd0:	73253a43 	teqvc	r5, #274432	; 0x43000
    9cd4:	3a73253a 	bcc	1cd31c4 <__bss_end__+0x1cc6eac>
    9cd8:	703a6425 	eorsvc	r6, sl, r5, lsr #8
    9cdc:	746e6972 	strbtvc	r6, [lr], #-2418	; 0x972
    9ce0:	6e203a6b 	vnmulvs.f32	s6, s0, s23
    9ce4:	6820746f 	stmdavs	r0!, {r0, r1, r2, r3, r5, r6, sl, ip, sp, lr}
    9ce8:	6c646e61 	stclvs	14, cr6, [r4], #-388	; 0xfffffe7c
    9cec:	20676e69 	rsbcs	r6, r7, r9, ror #28
    9cf0:	63657073 	cmnvs	r5, #115	; 0x73
    9cf4:	65696669 	strbvs	r6, [r9, #-1641]!	; 0x669
    9cf8:	25272072 	strcs	r2, [r7, #-114]!	; 0x72
    9cfc:	0a0a2763 	beq	293a90 <__bss_end__+0x287778>
    9d00:	00000000 	andeq	r0, r0, r0
    9d04:	454e4f44 	strbmi	r4, [lr, #-3908]	; 0xf44
    9d08:	0a212121 	beq	852194 <__bss_end__+0x845e7c>
    9d0c:	00000000 	andeq	r0, r0, r0

00009d10 <__FUNCTION__.4261>:
    9d10:	74736166 	ldrbtvc	r6, [r3], #-358	; 0x166
    9d14:	746e695f 	strbtvc	r6, [lr], #-2399	; 0x95f
    9d18:	75727265 	ldrbvc	r7, [r2, #-613]!	; 0x265
    9d1c:	765f7470 			; <UNDEFINED> instruction: 0x765f7470
    9d20:	6f746365 	svcvs	0x00746365
    9d24:	00000072 	andeq	r0, r0, r2, ror r0
    9d28:	494e4150 	stmdbmi	lr, {r4, r6, r8, lr}^
    9d2c:	73253a43 	teqvc	r5, #274432	; 0x43000
    9d30:	3a73253a 	bcc	1cd3220 <__bss_end__+0x1cc6f08>
    9d34:	453a6425 	ldrmi	r6, [sl, #-1061]!	; 0x425
    9d38:	524f5252 	subpl	r5, pc, #536870917	; 0x20000005
    9d3c:	6e75203a 	mrcvs	0, 3, r2, cr5, cr10, {1}
    9d40:	646e6168 	strbtvs	r6, [lr], #-360	; 0x168
    9d44:	2064656c 	rsbcs	r6, r4, ip, ror #10
    9d48:	65637865 	strbvs	r7, [r3, #-2149]!	; 0x865
    9d4c:	6f697470 	svcvs	0x00697470
    9d50:	253c206e 	ldrcs	r2, [ip, #-110]!	; 0x6e
    9d54:	61203e73 	teqvs	r0, r3, ror lr
    9d58:	43502074 	cmpmi	r0, #116	; 0x74
    9d5c:	0a78253d 	beq	1e13258 <__bss_end__+0x1e06f40>
    9d60:	0000000a 	andeq	r0, r0, sl
    9d64:	34317363 	ldrtcc	r7, [r1], #-867	; 0x363
    9d68:	692d6530 	pushvs	{r4, r5, r8, sl, sp, lr}
    9d6c:	7265746e 	rsbvc	r7, r5, #1845493760	; 0x6e000000
    9d70:	74707572 	ldrbtvc	r7, [r0], #-1394	; 0x572
    9d74:	746e692f 	strbtvc	r6, [lr], #-2351	; 0x92f
    9d78:	75727265 	ldrbvc	r7, [r2, #-613]!	; 0x265
    9d7c:	2d737470 	cfldrdcs	mvd7, [r3, #-448]!	; 0xfffffe40
    9d80:	00632e63 	rsbeq	r2, r3, r3, ror #28
    9d84:	74736166 	ldrbtvc	r6, [r3], #-358	; 0x166
    9d88:	00000000 	andeq	r0, r0, r0

00009d8c <__FUNCTION__.4247>:
    9d8c:	61746164 	cmnvs	r4, r4, ror #2
    9d90:	6f62615f 	svcvs	0x0062615f
    9d94:	765f7472 			; <UNDEFINED> instruction: 0x765f7472
    9d98:	6f746365 	svcvs	0x00746365
    9d9c:	00000072 	andeq	r0, r0, r2, ror r0
    9da0:	34317363 	ldrtcc	r7, [r1], #-867	; 0x363
    9da4:	692d6530 	pushvs	{r4, r5, r8, sl, sp, lr}
    9da8:	7265746e 	rsbvc	r7, r5, #1845493760	; 0x6e000000
    9dac:	74707572 	ldrbtvc	r7, [r0], #-1394	; 0x572
    9db0:	6665642f 	strbtvs	r6, [r5], -pc, lsr #8
    9db4:	746c7561 	strbtvc	r7, [ip], #-1377	; 0x561
    9db8:	6e61682d 	cdpvs	8, 6, cr6, cr1, cr13, {1}
    9dbc:	72656c64 	rsbvc	r6, r5, #100, 24	; 0x6400
    9dc0:	7461642d 	strbtvc	r6, [r1], #-1069	; 0x42d
    9dc4:	62612d61 	rsbvs	r2, r1, #6208	; 0x1840
    9dc8:	2e74726f 	cdpcs	2, 7, cr7, cr4, cr15, {3}
    9dcc:	00000063 	andeq	r0, r0, r3, rrx
    9dd0:	61746164 	cmnvs	r4, r4, ror #2
    9dd4:	6f626120 	svcvs	0x00626120
    9dd8:	00007472 	andeq	r7, r0, r2, ror r4

00009ddc <__FUNCTION__.4247>:
    9ddc:	66657270 			; <UNDEFINED> instruction: 0x66657270
    9de0:	68637465 	stmdavs	r3!, {r0, r2, r5, r6, sl, ip, sp, lr}^
    9de4:	6f62615f 	svcvs	0x0062615f
    9de8:	765f7472 			; <UNDEFINED> instruction: 0x765f7472
    9dec:	6f746365 	svcvs	0x00746365
    9df0:	00000072 	andeq	r0, r0, r2, ror r0
    9df4:	34317363 	ldrtcc	r7, [r1], #-867	; 0x363
    9df8:	692d6530 	pushvs	{r4, r5, r8, sl, sp, lr}
    9dfc:	7265746e 	rsbvc	r7, r5, #1845493760	; 0x6e000000
    9e00:	74707572 	ldrbtvc	r7, [r0], #-1394	; 0x572
    9e04:	6665642f 	strbtvs	r6, [r5], -pc, lsr #8
    9e08:	746c7561 	strbtvc	r7, [ip], #-1377	; 0x561
    9e0c:	6e61682d 	cdpvs	8, 6, cr6, cr1, cr13, {1}
    9e10:	72656c64 	rsbvc	r6, r5, #100, 24	; 0x6400
    9e14:	6572702d 	ldrbvs	r7, [r2, #-45]!	; 0x2d
    9e18:	63746566 	cmnvs	r4, #427819008	; 0x19800000
    9e1c:	00632e68 	rsbeq	r2, r3, r8, ror #28
    9e20:	66657270 			; <UNDEFINED> instruction: 0x66657270
    9e24:	68637465 	stmdavs	r3!, {r0, r2, r5, r6, sl, ip, sp, lr}^
    9e28:	6f626120 	svcvs	0x00626120
    9e2c:	00007472 	andeq	r7, r0, r2, ror r4

00009e30 <__FUNCTION__.4247>:
    9e30:	65736572 	ldrbvs	r6, [r3, #-1394]!	; 0x572
    9e34:	65765f74 	ldrbvs	r5, [r6, #-3956]!	; 0xf74
    9e38:	726f7463 	rsbvc	r7, pc, #1660944384	; 0x63000000
    9e3c:	00000000 	andeq	r0, r0, r0
    9e40:	34317363 	ldrtcc	r7, [r1], #-867	; 0x363
    9e44:	692d6530 	pushvs	{r4, r5, r8, sl, sp, lr}
    9e48:	7265746e 	rsbvc	r7, r5, #1845493760	; 0x6e000000
    9e4c:	74707572 	ldrbtvc	r7, [r0], #-1394	; 0x572
    9e50:	6665642f 	strbtvs	r6, [r5], -pc, lsr #8
    9e54:	746c7561 	strbtvc	r7, [ip], #-1377	; 0x561
    9e58:	6e61682d 	cdpvs	8, 6, cr6, cr1, cr13, {1}
    9e5c:	72656c64 	rsbvc	r6, r5, #100, 24	; 0x6400
    9e60:	7365722d 	cmnvc	r5, #-805306366	; 0xd0000002
    9e64:	632e7465 	teqvs	lr, #1694498816	; 0x65000000
    9e68:	00000000 	andeq	r0, r0, r0
    9e6c:	65736572 	ldrbvs	r6, [r3, #-1394]!	; 0x572
    9e70:	00000074 	andeq	r0, r0, r4, ror r0

00009e74 <__FUNCTION__.4247>:
    9e74:	65646e75 	strbvs	r6, [r4, #-3701]!	; 0xe75
    9e78:	656e6966 	strbvs	r6, [lr, #-2406]!	; 0x966
    9e7c:	6e695f64 	cdpvs	15, 6, cr5, cr9, cr4, {3}
    9e80:	75727473 	ldrbvc	r7, [r2, #-1139]!	; 0x473
    9e84:	6f697463 	svcvs	0x00697463
    9e88:	65765f6e 	ldrbvs	r5, [r6, #-3950]!	; 0xf6e
    9e8c:	726f7463 	rsbvc	r7, pc, #1660944384	; 0x63000000
    9e90:	00000000 	andeq	r0, r0, r0
    9e94:	34317363 	ldrtcc	r7, [r1], #-867	; 0x363
    9e98:	692d6530 	pushvs	{r4, r5, r8, sl, sp, lr}
    9e9c:	7265746e 	rsbvc	r7, r5, #1845493760	; 0x6e000000
    9ea0:	74707572 	ldrbtvc	r7, [r0], #-1394	; 0x572
    9ea4:	6665642f 	strbtvs	r6, [r5], -pc, lsr #8
    9ea8:	746c7561 	strbtvc	r7, [ip], #-1377	; 0x561
    9eac:	6e61682d 	cdpvs	8, 6, cr6, cr1, cr13, {1}
    9eb0:	72656c64 	rsbvc	r6, r5, #100, 24	; 0x6400
    9eb4:	646e752d 	strbtvs	r7, [lr], #-1325	; 0x52d
    9eb8:	6e696665 	cdpvs	6, 6, cr6, cr9, cr5, {3}
    9ebc:	692d6465 	pushvs	{r0, r2, r5, r6, sl, sp, lr}
    9ec0:	2e74736e 	cdpcs	3, 7, cr7, cr4, cr14, {3}
    9ec4:	00000063 	andeq	r0, r0, r3, rrx
    9ec8:	65646e75 	strbvs	r6, [r4, #-3701]!	; 0xe75
    9ecc:	656e6966 	strbvs	r6, [lr, #-2406]!	; 0x966
    9ed0:	6e692064 	cdpvs	0, 6, cr2, cr9, cr4, {3}
    9ed4:	00007473 	andeq	r7, r0, r3, ror r4

Disassembly of section .bss:

00009ed8 <__bss_start__>:
	...

0000beec <curr_value>:
    beec:	00000000 	andeq	r0, r0, r0

0000bef0 <u>:
	...

0000bf00 <cycle_counter>:
    bf00:	00000000 	andeq	r0, r0, r0

0000bf04 <nevents>:
    bf04:	00000000 	andeq	r0, r0, r0

0000bf08 <is_writing>:
    bf08:	00000000 	andeq	r0, r0, r0

0000bf0c <n_falling_edge>:
    bf0c:	00000000 	andeq	r0, r0, r0

0000bf10 <n_rising_edge>:
    bf10:	00000000 	andeq	r0, r0, r0

0000bf14 <buf.4219>:
	...

0000c314 <rpi_arm_timer_t>:
    c314:	00000000 	andeq	r0, r0, r0

Disassembly of section .ARM.attributes:

00000000 <.ARM.attributes>:
   0:	00002a41 	andeq	r2, r0, r1, asr #20
   4:	61656100 	cmnvs	r5, r0, lsl #2
   8:	01006962 	tsteq	r0, r2, ror #18
   c:	00000020 	andeq	r0, r0, r0, lsr #32
  10:	4b5a3605 	blmi	168d82c <__bss_end__+0x1681514>
  14:	08070600 	stmdaeq	r7, {r9, sl}
  18:	12010901 	andne	r0, r1, #16384	; 0x4000
  1c:	15011404 	strne	r1, [r1, #-1028]	; 0x404
  20:	18031701 	stmdane	r3, {r0, r8, r9, sl, ip}
  24:	22011a01 	andcs	r1, r1, #4096	; 0x1000
  28:	Address 0x0000000000000028 is out of bounds.


Disassembly of section .comment:

00000000 <.comment>:
   0:	3a434347 	bcc	10d0d24 <__bss_end__+0x10c4a0c>
   4:	4e472820 	cdpmi	8, 4, cr2, cr7, cr0, {1}
   8:	34202955 	strtcc	r2, [r0], #-2389	; 0x955
   c:	332e382e 	teqcc	lr, #3014656	; 0x2e0000
	...

Disassembly of section .debug_info:

00000000 <.debug_info>:
       0:	00001331 	andeq	r1, r0, r1, lsr r3
       4:	00000004 	andeq	r0, r0, r4
       8:	01040000 	mrseq	r0, (UNDEF: 4)
       c:	00000340 	andeq	r0, r0, r0, asr #6
      10:	0003d101 	andeq	sp, r3, r1, lsl #2
      14:	00026700 	andeq	r6, r2, r0, lsl #14
      18:	00801000 	addeq	r1, r0, r0
      1c:	00086000 	andeq	r6, r8, r0
      20:	00000000 	andeq	r0, r0, r0
      24:	05040200 	streq	r0, [r4, #-512]	; 0x200
      28:	00746e69 	rsbseq	r6, r4, r9, ror #28
      2c:	00000003 	andeq	r0, r0, r3
      30:	37d40300 	ldrbcc	r0, [r4, r0, lsl #6]
      34:	04000000 	streq	r0, [r0], #-0
      38:	006f0704 	rsbeq	r0, pc, r4, lsl #14
      3c:	01040000 	mrseq	r0, (UNDEF: 4)
      40:	0002d606 	andeq	sp, r2, r6, lsl #12
      44:	05020400 	streq	r0, [r2, #-1024]	; 0x400
      48:	000002e9 	andeq	r0, r0, r9, ror #5
      4c:	a1050404 	tstge	r5, r4, lsl #8
      50:	04000000 	streq	r0, [r0], #-0
      54:	009c0508 	addseq	r0, ip, r8, lsl #10
      58:	55030000 	strpl	r0, [r3, #-0]
      5c:	04000004 	streq	r0, [r0], #-4
      60:	0000652e 	andeq	r6, r0, lr, lsr #10
      64:	08010400 	stmdaeq	r1, {sl}
      68:	000002d4 	ldrdeq	r0, [r0], -r4
      6c:	b4070204 	strlt	r0, [r7], #-516	; 0x204
      70:	04000001 	streq	r0, [r0], #-1
      74:	006a0704 	rsbeq	r0, sl, r4, lsl #14
      78:	08040000 	stmdaeq	r4, {}	; <UNPREDICTABLE>
      7c:	00006507 	andeq	r6, r0, r7, lsl #10
      80:	07040400 	streq	r0, [r4, -r0, lsl #8]
      84:	000001f0 	strdeq	r0, [r0], -r0	; <UNPREDICTABLE>
      88:	01040405 	tsteq	r4, r5, lsl #8
      8c:	0002dd08 	andeq	sp, r2, r8, lsl #26
      90:	97040600 	strls	r0, [r4, -r0, lsl #12]
      94:	07000000 	streq	r0, [r0, -r0]
      98:	0000008a 	andeq	r0, r0, sl, lsl #1
      9c:	00008a08 	andeq	r8, r0, r8, lsl #20
      a0:	0000ac00 	andeq	sl, r0, r0, lsl #24
      a4:	00810900 	addeq	r0, r1, r0, lsl #18
      a8:	00070000 	andeq	r0, r7, r0
      ac:	3305040a 	movwcc	r0, #21514	; 0x540a
      b0:	00000119 	andeq	r0, r0, r9, lsl r1
      b4:	0000e70b 	andeq	lr, r0, fp, lsl #14
      b8:	82e88000 	rschi	r8, r8, #0
      bc:	d80b0280 	stmdale	fp, {r7, r9}
      c0:	80000000 	andhi	r0, r0, r0
      c4:	028082e8 	addeq	r8, r0, #232, 4	; 0x8000000e
      c8:	0003f90b 	andeq	pc, r3, fp, lsl #18
      cc:	82e88400 	rschi	r8, r8, #0, 8
      d0:	bf0b0280 	svclt	0x000b0280
      d4:	88000000 	stmdahi	r0, {}	; <UNPREDICTABLE>
      d8:	028082e8 	addeq	r8, r0, #232, 4	; 0x8000000e
      dc:	0004090b 	andeq	r0, r4, fp, lsl #18
      e0:	82e88c00 	rschi	r8, r8, #0, 24
      e4:	3f0b0280 	svccc	0x000b0280
      e8:	90000000 	andls	r0, r0, r0
      ec:	028082e8 	addeq	r8, r0, #232, 4	; 0x8000000e
      f0:	00012a0b 	andeq	r2, r1, fp, lsl #20
      f4:	82e89400 	rschi	r9, r8, #0, 8
      f8:	090b0280 	stmdbeq	fp, {r7, r9}
      fc:	98000002 	stmdals	r0, {r1}
     100:	028082e8 	addeq	r8, r0, #232, 4	; 0x8000000e
     104:	0003e40b 	andeq	lr, r3, fp, lsl #8
     108:	82e89c00 	rschi	r9, r8, #0, 24
     10c:	a30b0280 	movwge	r0, #45696	; 0xb280
     110:	a0000004 	andge	r0, r0, r4
     114:	028082e8 	addeq	r8, r0, #232, 4	; 0x8000000e
     118:	02fa0300 	rscseq	r0, sl, #0, 6
     11c:	1c020000 	stcne	0, cr0, [r2], {-0}
     120:	00000065 	andeq	r0, r0, r5, rrx
     124:	0220140c 	eoreq	r1, r0, #12, 8	; 0xc000000
     128:	00017e28 	andeq	r7, r1, r8, lsr #28
     12c:	007c0d00 	rsbseq	r0, ip, r0, lsl #26
     130:	2a020000 	bcs	80138 <__bss_end__+0x73e20>
     134:	0000018f 	andeq	r0, r0, pc, lsl #3
     138:	03970e00 	orrseq	r0, r7, #0, 28
     13c:	2b020000 	blcs	80144 <__bss_end__+0x73e2c>
     140:	00000037 	andeq	r0, r0, r7, lsr r0
     144:	000e2000 	andeq	r2, lr, r0
     148:	02000003 	andeq	r0, r0, #3
     14c:	0001942c 	andeq	r9, r1, ip, lsr #8
     150:	0e200400 	cdpeq	4, 2, cr0, cr0, cr0, {0}
     154:	000001eb 	andeq	r0, r0, fp, ror #3
     158:	01942c02 	orrseq	r2, r4, r2, lsl #24
     15c:	20080000 	andcs	r0, r8, r0
     160:	0003bb0e 	andeq	fp, r3, lr, lsl #22
     164:	942f0200 	strtls	r0, [pc], #-512	; 16c <_start-0x7e94>
     168:	0c000001 	stceq	0, cr0, [r0], {1}
     16c:	00190f20 	andseq	r0, r9, r0, lsr #30
     170:	31020000 	mrscc	r0, (UNDEF: 2)
     174:	00000037 	andeq	r0, r0, r7, lsr r0
     178:	101f0104 	andsne	r0, pc, r4, lsl #2
     17c:	19080020 	stmdbne	r8, {r5}
     180:	8f000001 	svchi	0x00000001
     184:	10000001 	andne	r0, r0, r1
     188:	00000081 	andeq	r0, r0, r1, lsl #1
     18c:	11001fff 	strdne	r1, [r0, -pc]
     190:	0000017e 	andeq	r0, r0, lr, ror r1
     194:	00003711 	andeq	r3, r0, r1, lsl r7
     198:	04330300 	ldrteq	r0, [r3], #-768	; 0x300
     19c:	32020000 	andcc	r0, r2, #0
     1a0:	00000124 	andeq	r0, r0, r4, lsr #2
     1a4:	29011012 	stmdbcs	r1, {r1, r4, ip}
     1a8:	000001db 	ldrdeq	r0, [r0], -fp
     1ac:	00787413 	rsbseq	r7, r8, r3, lsl r4
     1b0:	00252a01 	eoreq	r2, r5, r1, lsl #20
     1b4:	13000000 	movwne	r0, #0
     1b8:	01007872 	tsteq	r0, r2, ror r8
     1bc:	0000252a 	andeq	r2, r0, sl, lsr #10
     1c0:	1d0d0400 	cfstrsne	mvf0, [sp, #-0]
     1c4:	01000003 	tsteq	r0, r3
     1c8:	0000372b 	andeq	r3, r0, fp, lsr #14
     1cc:	730d0800 	movwvc	r0, #55296	; 0xd800
     1d0:	01000004 	tsteq	r0, r4
     1d4:	0000372c 	andeq	r3, r0, ip, lsr #14
     1d8:	03000c00 	movweq	r0, #3072	; 0xc00
     1dc:	000002c7 	andeq	r0, r0, r7, asr #5
     1e0:	01a42d01 			; <UNDEFINED> instruction: 0x01a42d01
     1e4:	93140000 	tstls	r4, #0
     1e8:	02000000 	andeq	r0, r0, #0
     1ec:	00002539 	andeq	r2, r0, r9, lsr r5
     1f0:	02000300 	andeq	r0, r0, #0, 6
     1f4:	71150000 	tstvc	r5, r0
     1f8:	00390200 	eorseq	r0, r9, r0, lsl #4
     1fc:	00000002 	andeq	r0, r0, r2
     200:	01990406 	orrseq	r0, r9, r6, lsl #8
     204:	9b140000 	blls	50020c <__bss_end__+0x4f3ef4>
     208:	02000004 	andeq	r0, r0, #4
     20c:	0000253c 	andeq	r2, r0, ip, lsr r5
     210:	02200300 	eoreq	r0, r0, #0, 6
     214:	71150000 	tstvc	r5, r0
     218:	003c0200 	eorseq	r0, ip, r0, lsl #4
     21c:	00000002 	andeq	r0, r0, r2
     220:	00008216 	andeq	r8, r0, r6, lsl r2
     224:	03350100 	teqeq	r5, #0, 2
     228:	00000238 	andeq	r0, r0, r8, lsr r2
     22c:	6e697015 	mcrvs	0, 3, r7, cr9, cr5, {0}
     230:	37350100 	ldrcc	r0, [r5, -r0, lsl #2]!
     234:	00000000 	andeq	r0, r0, r0
     238:	00011816 	andeq	r1, r1, r6, lsl r8
     23c:	033a0100 	teqeq	sl, #0, 2
     240:	00000250 	andeq	r0, r0, r0, asr r2
     244:	6e697015 	mcrvs	0, 3, r7, cr9, cr5, {0}
     248:	373a0100 	ldrcc	r0, [sl, -r0, lsl #2]!
     24c:	00000000 	andeq	r0, r0, r0
     250:	00002f16 	andeq	r2, r0, r6, lsl pc
     254:	033f0100 	teqeq	pc, #0, 2
     258:	00000271 	andeq	r0, r0, r1, ror r2
     25c:	6e697015 	mcrvs	0, 3, r7, cr9, cr5, {0}
     260:	373f0100 	ldrcc	r0, [pc, -r0, lsl #2]!
     264:	15000000 	strne	r0, [r0, #-0]
     268:	3f010076 	svccc	0x00010076
     26c:	00000037 	andeq	r0, r0, r7, lsr r0
     270:	01f91400 	mvnseq	r1, r0, lsl #8
     274:	42020000 	andmi	r0, r2, #0
     278:	00000025 	andeq	r0, r0, r5, lsr #32
     27c:	00029f03 	andeq	r9, r2, r3, lsl #30
     280:	00631500 	rsbeq	r1, r3, r0, lsl #10
     284:	02004202 	andeq	r4, r0, #536870912	; 0x20000000
     288:	65150000 	ldrvs	r0, [r5, #-0]
     28c:	9f420200 	svcls	0x00420200
     290:	17000002 	strne	r0, [r0, -r2]
     294:	000001eb 	andeq	r0, r0, fp, ror #3
     298:	00374502 	eorseq	r4, r7, r2, lsl #10
     29c:	06000000 	streq	r0, [r0], -r0
     2a0:	00011904 	andeq	r1, r1, r4, lsl #18
     2a4:	01ab1400 			; <UNDEFINED> instruction: 0x01ab1400
     2a8:	3e020000 	cdpcc	0, 0, cr0, cr2, cr0, {0}
     2ac:	00000037 	andeq	r0, r0, r7, lsr r0
     2b0:	0002bf03 	andeq	fp, r2, r3, lsl #30
     2b4:	00711500 	rsbseq	r1, r1, r0, lsl #10
     2b8:	02003e02 	andeq	r3, r0, #2, 28
     2bc:	14000000 	strne	r0, [r0], #-0
     2c0:	000003c9 	andeq	r0, r0, r9, asr #7
     2c4:	00255602 	eoreq	r5, r5, r2, lsl #12
     2c8:	ed030000 	stc	0, cr0, [r3, #-0]
     2cc:	15000002 	strne	r0, [r0, #-2]
     2d0:	56020063 	strpl	r0, [r2], -r3, rrx
     2d4:	00000200 	andeq	r0, r0, r0, lsl #4
     2d8:	02007815 	andeq	r7, r0, #1376256	; 0x150000
     2dc:	00011956 	andeq	r1, r1, r6, asr r9
     2e0:	03001700 	movweq	r1, #1792	; 0x700
     2e4:	57020000 	strpl	r0, [r2, -r0]
     2e8:	00000037 	andeq	r0, r0, r7, lsr r0
     2ec:	02f31400 	rscseq	r1, r3, #0, 8
     2f0:	4b020000 	blmi	802f8 <__bss_end__+0x73fe0>
     2f4:	00000119 	andeq	r0, r0, r9, lsl r1
     2f8:	00031d03 	andeq	r1, r3, r3, lsl #26
     2fc:	00631500 	rsbeq	r1, r3, r0, lsl #10
     300:	02004b02 	andeq	r4, r0, #2048	; 0x800
     304:	65180000 	ldrvs	r0, [r8, #-0]
     308:	194c0200 	stmdbne	ip, {r9}^
     30c:	19000001 	stmdbne	r0, {r0}
     310:	0000019e 	muleq	r0, lr, r1
     314:	0000032d 	andeq	r0, r0, sp, lsr #6
     318:	000002f3 	strdeq	r0, [r0], -r3
     31c:	008a0800 	addeq	r0, sl, r0, lsl #16
     320:	032d0000 	teqeq	sp, #0
     324:	81090000 	mrshi	r0, (UNDEF: 9)
     328:	06000000 	streq	r0, [r0], -r0
     32c:	031d0700 	tsteq	sp, #0, 14
     330:	3e160000 	cdpcc	0, 1, cr0, cr6, cr0, {0}
     334:	01000001 	tsteq	r0, r1
     338:	0420037f 	strteq	r0, [r0], #-895	; 0x37f
     33c:	621a0000 	andsvs	r0, sl, #0
     340:	01000002 	tsteq	r0, r2
     344:	0004207f 	andeq	r2, r4, pc, ror r0
     348:	09371a00 	ldmdbeq	r7!, {r9, fp, ip}
     34c:	7f010000 	svcvc	0x00010000
     350:	0000005a 	andeq	r0, r0, sl, asr r0
     354:	01006918 	tsteq	r0, r8, lsl r9
     358:	00003780 	andeq	r3, r0, r0, lsl #15
     35c:	06871700 	streq	r1, [r7], r0, lsl #14
     360:	81010000 	mrshi	r0, (UNDEF: 1)
     364:	00000037 	andeq	r0, r0, r7, lsr r0
     368:	0003791b 	andeq	r7, r3, fp, lsl r9
     36c:	02391700 	eorseq	r1, r9, #0, 14
     370:	81010000 	mrshi	r0, (UNDEF: 1)
     374:	00000037 	andeq	r0, r0, r7, lsr r0
     378:	038a1b00 	orreq	r1, sl, #0, 22
     37c:	39170000 	ldmdbcc	r7, {}	; <UNPREDICTABLE>
     380:	01000002 	tsteq	r0, r2
     384:	00003788 	andeq	r3, r0, r8, lsl #15
     388:	9b1b0000 	blls	6c0390 <__bss_end__+0x6b4078>
     38c:	17000003 	strne	r0, [r0, -r3]
     390:	00000239 	andeq	r0, r0, r9, lsr r2
     394:	00378a01 	eorseq	r8, r7, r1, lsl #20
     398:	1b000000 	blne	3a0 <_start-0x7c60>
     39c:	000003ac 	andeq	r0, r0, ip, lsr #7
     3a0:	00023917 	andeq	r3, r2, r7, lsl r9
     3a4:	378c0100 	strcc	r0, [ip, r0, lsl #2]
     3a8:	00000000 	andeq	r0, r0, r0
     3ac:	0003bd1b 	andeq	fp, r3, fp, lsl sp
     3b0:	02391700 	eorseq	r1, r9, #0, 14
     3b4:	8e010000 	cdphi	0, 0, cr0, cr1, cr0, {0}
     3b8:	00000037 	andeq	r0, r0, r7, lsr r0
     3bc:	03ce1b00 	biceq	r1, lr, #0, 22
     3c0:	39170000 	ldmdbcc	r7, {}	; <UNPREDICTABLE>
     3c4:	01000002 	tsteq	r0, r2
     3c8:	00003790 	muleq	r0, r0, r7
     3cc:	df1b0000 	svcle	0x001b0000
     3d0:	17000003 	strne	r0, [r0, -r3]
     3d4:	00000239 	andeq	r0, r0, r9, lsr r2
     3d8:	00379201 	eorseq	r9, r7, r1, lsl #4
     3dc:	1b000000 	blne	3e4 <_start-0x7c1c>
     3e0:	000003f0 	strdeq	r0, [r0], -r0	; <UNPREDICTABLE>
     3e4:	00023917 	andeq	r3, r2, r7, lsl r9
     3e8:	37940100 	ldrcc	r0, [r4, r0, lsl #2]
     3ec:	00000000 	andeq	r0, r0, r0
     3f0:	0004011b 	andeq	r0, r4, fp, lsl r1
     3f4:	02391700 	eorseq	r1, r9, #0, 14
     3f8:	96010000 	strls	r0, [r1], -r0
     3fc:	00000037 	andeq	r0, r0, r7, lsr r0
     400:	04121b00 	ldreq	r1, [r2], #-2816	; 0xb00
     404:	39170000 	ldmdbcc	r7, {}	; <UNPREDICTABLE>
     408:	01000002 	tsteq	r0, r2
     40c:	00003798 	muleq	r0, r8, r7
     410:	171c0000 	ldrne	r0, [ip, -r0]
     414:	00000239 	andeq	r0, r0, r9, lsr r2
     418:	00379a01 	eorseq	r9, r7, r1, lsl #20
     41c:	00000000 	andeq	r0, r0, r0
     420:	01db0406 	bicseq	r0, fp, r6, lsl #8
     424:	c01d0000 	andsgt	r0, sp, r0
     428:	01000002 	tsteq	r0, r2
     42c:	0080109f 	umulleq	r1, r0, pc, r0	; <UNPREDICTABLE>
     430:	0003a800 	andeq	sl, r3, r0, lsl #16
     434:	e89c0100 	ldm	ip, {r8}
     438:	1e000009 	cdpne	0, 0, cr0, cr0, cr9, {0}
     43c:	01007874 	tsteq	r0, r4, ror r8
     440:	0000379f 	muleq	r0, pc, r7	; <UNPREDICTABLE>
     444:	00000000 	andeq	r0, r0, r0
     448:	78721e00 	ldmdavc	r2!, {r9, sl, fp, ip}^
     44c:	379f0100 	ldrcc	r0, [pc, r0, lsl #2]
     450:	2c000000 	stccs	0, cr0, [r0], {-0}
     454:	1e000000 	cdpne	0, 0, cr0, cr0, cr0, {0}
     458:	9f01006e 	svcls	0x0001006e
     45c:	00000037 	andeq	r0, r0, r7, lsr r0
     460:	0000004d 	andeq	r0, r0, sp, asr #32
     464:	0002201f 	andeq	r2, r2, pc, lsl r0
     468:	00802800 	addeq	r2, r0, r0, lsl #16
     46c:	00001400 	andeq	r1, r0, r0, lsl #8
     470:	81a20100 			; <UNDEFINED> instruction: 0x81a20100
     474:	20000004 	andcs	r0, r0, r4
     478:	0000022c 	andeq	r0, r0, ip, lsr #4
     47c:	0000006b 	andeq	r0, r0, fp, rrx
     480:	01e62100 	mvneq	r2, r0, lsl #2
     484:	80400000 	subhi	r0, r0, r0
     488:	00000000 	andeq	r0, r0, r0
     48c:	a5010000 	strge	r0, [r1, #-0]
     490:	0000049e 	muleq	r0, lr, r4
     494:	0001f620 	andeq	pc, r1, r0, lsr #12
     498:	00008c00 	andeq	r8, r0, r0, lsl #24
     49c:	ed210000 	stc	0, cr0, [r1, #-0]
     4a0:	4c000002 	stcmi	0, cr0, [r0], {2}
     4a4:	18000080 	stmdane	r0, {r7}
     4a8:	01000000 	mrseq	r0, (UNDEF: 0)
     4ac:	000564a6 	andeq	r6, r5, r6, lsr #9
     4b0:	02fd2000 	rscseq	r2, sp, #0
     4b4:	00a40000 	adceq	r0, r4, r0
     4b8:	18220000 	stmdane	r2!, {}	; <UNPREDICTABLE>
     4bc:	23000000 	movwcs	r0, #0
     4c0:	00000306 	andeq	r0, r0, r6, lsl #6
     4c4:	000000bc 	strheq	r0, [r0], -ip
     4c8:	00030f24 	andeq	r0, r3, r4, lsr #30
     4cc:	64030500 	strvs	r0, [r3], #-1280	; 0x500
     4d0:	2100009a 	swpcs	r0, sl, [r0]	; <UNPREDICTABLE>
     4d4:	00000271 	andeq	r0, r0, r1, ror r2
     4d8:	00008058 	andeq	r8, r0, r8, asr r0
     4dc:	00000030 	andeq	r0, r0, r0, lsr r0
     4e0:	05215002 	streq	r5, [r1, #-2]!
     4e4:	8a200000 	bhi	8004ec <__bss_end__+0x7f41d4>
     4e8:	fd000002 	stc2	0, cr0, [r0, #-8]
     4ec:	20000000 	andcs	r0, r0, r0
     4f0:	00000281 	andeq	r0, r0, r1, lsl #5
     4f4:	000000a4 	andeq	r0, r0, r4, lsr #1
     4f8:	00003022 	andeq	r3, r0, r2, lsr #32
     4fc:	02932300 	addseq	r2, r3, #0, 6
     500:	01150000 	tsteq	r5, r0
     504:	e6250000 	strt	r0, [r5], -r0
     508:	58000001 	stmdapl	r0, {r0}
     50c:	08000080 	stmdaeq	r0, {r7}
     510:	02000000 	andeq	r0, r0, #0
     514:	01f62043 	mvnseq	r2, r3, asr #32
     518:	00a40000 	adceq	r0, r4, r0
     51c:	00000000 	andeq	r0, r0, r0
     520:	80a02600 	adchi	r2, r0, r0, lsl #12
     524:	12720000 	rsbsne	r0, r2, #0
     528:	b4270000 	strtlt	r0, [r7], #-0
     52c:	79000080 	stmdbvc	r0, {r7}
     530:	59000012 	stmdbpl	r0, {r1, r4}
     534:	28000005 	stmdacs	r0, {r0, r2}
     538:	08025301 	stmdaeq	r2, {r0, r8, r9, ip, lr}
     53c:	52012851 	andpl	r2, r1, #5308416	; 0x510000
     540:	9a640305 	bls	190115c <__bss_end__+0x18f4e44>
     544:	01280000 	teqeq	r8, r0
     548:	d4030551 	strle	r0, [r3], #-1361	; 0x551
     54c:	2800009a 	stmdacs	r0, {r1, r3, r4, r7}
     550:	03055001 	movweq	r5, #20481	; 0x5001
     554:	00009a94 	muleq	r0, r4, sl
     558:	80b82600 	adcshi	r2, r8, r0, lsl #12
     55c:	128f0000 	addne	r0, pc, #0
     560:	00000000 	andeq	r0, r0, r0
     564:	00033221 	andeq	r3, r3, r1, lsr #4
     568:	00805000 	addeq	r5, r0, r0
     56c:	00004800 	andeq	r4, r0, r0, lsl #16
     570:	b5a80100 	strlt	r0, [r8, #256]!	; 0x100
     574:	20000009 	andcs	r0, r0, r9
     578:	00000349 	andeq	r0, r0, r9, asr #6
     57c:	00000137 	andeq	r0, r0, r7, lsr r1
     580:	00033e20 	andeq	r3, r3, r0, lsr #28
     584:	00015500 	andeq	r5, r1, r0, lsl #10
     588:	00482200 	subeq	r2, r8, r0, lsl #4
     58c:	54230000 	strtpl	r0, [r3], #-0
     590:	6d000003 	stcvs	0, cr0, [r0, #-12]
     594:	23000001 	movwcs	r0, #1
     598:	0000035d 	andeq	r0, r0, sp, asr r3
     59c:	00000181 	andeq	r0, r0, r1, lsl #3
     5a0:	0080c829 	addeq	ip, r0, r9, lsr #16
     5a4:	00000400 	andeq	r0, r0, r0, lsl #8
     5a8:	0005b700 	andeq	fp, r5, r0, lsl #14
     5ac:	036d2300 	cmneq	sp, #0, 6
     5b0:	01810000 	orreq	r0, r1, r0
     5b4:	1f000000 	svcne	0x00000000
     5b8:	00000238 	andeq	r0, r0, r8, lsr r2
     5bc:	000080e8 	andeq	r8, r0, r8, ror #1
     5c0:	0000000c 	andeq	r0, r0, ip
     5c4:	05d48701 	ldrbeq	r8, [r4, #1793]	; 0x701
     5c8:	44200000 	strtmi	r0, [r0], #-0
     5cc:	94000002 	strls	r0, [r0], #-2
     5d0:	00000001 	andeq	r0, r0, r1
     5d4:	0080f429 	addeq	pc, r0, r9, lsr #8
     5d8:	00000400 	andeq	r0, r0, r0, lsl #8
     5dc:	0005eb00 	andeq	lr, r5, r0, lsl #22
     5e0:	037e2300 	cmneq	lr, #0, 6
     5e4:	01b60000 			; <UNDEFINED> instruction: 0x01b60000
     5e8:	1f000000 	svcne	0x00000000
     5ec:	00000250 	andeq	r0, r0, r0, asr r2
     5f0:	0000810c 	andeq	r8, r0, ip, lsl #2
     5f4:	0000002c 	andeq	r0, r0, ip, lsr #32
     5f8:	06478901 	strbeq	r8, [r7], -r1, lsl #18
     5fc:	67200000 	strvs	r0, [r0, -r0]!
     600:	c9000002 	stmdbgt	r0, {r1}
     604:	20000001 	andcs	r0, r0, r1
     608:	0000025c 	andeq	r0, r0, ip, asr r2
     60c:	000001f7 	strdeq	r0, [r0], -r7
     610:	0002201f 	andeq	r2, r2, pc, lsl r0
     614:	00811400 	addeq	r1, r1, r0, lsl #8
     618:	00001400 	andeq	r1, r0, r0, lsl #8
     61c:	2d420100 	stfcse	f0, [r2, #-0]
     620:	20000006 	andcs	r0, r0, r6
     624:	0000022c 	andeq	r0, r0, ip, lsr #4
     628:	00000233 	andeq	r0, r0, r3, lsr r2
     62c:	02382500 	eorseq	r2, r8, #0, 10
     630:	81280000 	teqhi	r8, r0
     634:	00100000 	andseq	r0, r0, r0
     638:	44010000 	strmi	r0, [r1], #-0
     63c:	00024420 	andeq	r4, r2, r0, lsr #8
     640:	00025500 	andeq	r5, r2, r0, lsl #10
     644:	29000000 	stmdbcs	r0, {}	; <UNPREDICTABLE>
     648:	00008138 	andeq	r8, r0, r8, lsr r1
     64c:	00000004 	andeq	r0, r0, r4
     650:	0000065e 	andeq	r0, r0, lr, asr r6
     654:	00038f23 	andeq	r8, r3, r3, lsr #30
     658:	00027700 	andeq	r7, r2, r0, lsl #14
     65c:	501f0000 	andspl	r0, pc, r0
     660:	50000002 	andpl	r0, r0, r2
     664:	2c000081 	stccs	0, cr0, [r0], {129}	; 0x81
     668:	01000000 	mrseq	r0, (UNDEF: 0)
     66c:	0006ba8b 	andeq	fp, r6, fp, lsl #21
     670:	02672000 	rsbeq	r2, r7, #0
     674:	028a0000 	addeq	r0, sl, #0
     678:	5c200000 	stcpl	0, cr0, [r0], #-0
     67c:	b8000002 	stmdalt	r0, {r1}
     680:	1f000002 	svcne	0x00000002
     684:	00000220 	andeq	r0, r0, r0, lsr #4
     688:	00008158 	andeq	r8, r0, r8, asr r1
     68c:	00000014 	andeq	r0, r0, r4, lsl r0
     690:	06a04201 	strteq	r4, [r0], r1, lsl #4
     694:	2c200000 	stccs	0, cr0, [r0], #-0
     698:	f4000002 	vst4.8	{d0-d3}, [r0], r2
     69c:	00000002 	andeq	r0, r0, r2
     6a0:	00023825 	andeq	r3, r2, r5, lsr #16
     6a4:	00816c00 	addeq	r6, r1, r0, lsl #24
     6a8:	00001000 	andeq	r1, r0, r0
     6ac:	20440100 	subcs	r0, r4, r0, lsl #2
     6b0:	00000244 	andeq	r0, r0, r4, asr #4
     6b4:	00000316 	andeq	r0, r0, r6, lsl r3
     6b8:	7c290000 	stcvc	0, cr0, [r9], #-0
     6bc:	04000081 	streq	r0, [r0], #-129	; 0x81
     6c0:	d1000000 	mrsle	r0, (UNDEF: 0)
     6c4:	23000006 	movwcs	r0, #6
     6c8:	000003a0 	andeq	r0, r0, r0, lsr #7
     6cc:	00000338 	andeq	r0, r0, r8, lsr r3
     6d0:	02501f00 	subseq	r1, r0, #0, 30
     6d4:	81980000 	orrshi	r0, r8, r0
     6d8:	002c0000 	eoreq	r0, ip, r0
     6dc:	8d010000 	stchi	0, cr0, [r1, #-0]
     6e0:	0000072d 	andeq	r0, r0, sp, lsr #14
     6e4:	00026720 	andeq	r6, r2, r0, lsr #14
     6e8:	00034b00 	andeq	r4, r3, r0, lsl #22
     6ec:	025c2000 	subseq	r2, ip, #0
     6f0:	03790000 	cmneq	r9, #0
     6f4:	201f0000 	andscs	r0, pc, r0
     6f8:	a0000002 	andge	r0, r0, r2
     6fc:	14000081 	strne	r0, [r0], #-129	; 0x81
     700:	01000000 	mrseq	r0, (UNDEF: 0)
     704:	00071342 	andeq	r1, r7, r2, asr #6
     708:	022c2000 	eoreq	r2, ip, #0
     70c:	03b50000 			; <UNDEFINED> instruction: 0x03b50000
     710:	25000000 	strcs	r0, [r0, #-0]
     714:	00000238 	andeq	r0, r0, r8, lsr r2
     718:	000081b4 			; <UNDEFINED> instruction: 0x000081b4
     71c:	00000010 	andeq	r0, r0, r0, lsl r0
     720:	44204401 	strtmi	r4, [r0], #-1025	; 0x401
     724:	d7000002 	strle	r0, [r0, -r2]
     728:	00000003 	andeq	r0, r0, r3
     72c:	81c42900 	bichi	r2, r4, r0, lsl #18
     730:	00040000 	andeq	r0, r4, r0
     734:	07440000 	strbeq	r0, [r4, -r0]
     738:	b1230000 	teqlt	r3, r0
     73c:	f9000003 			; <UNDEFINED> instruction: 0xf9000003
     740:	00000003 	andeq	r0, r0, r3
     744:	0002501f 	andeq	r5, r2, pc, lsl r0
     748:	0081dc00 	addeq	sp, r1, r0, lsl #24
     74c:	00002c00 	andeq	r2, r0, r0, lsl #24
     750:	a08f0100 	addge	r0, pc, r0, lsl #2
     754:	20000007 	andcs	r0, r0, r7
     758:	00000267 	andeq	r0, r0, r7, ror #4
     75c:	0000040c 	andeq	r0, r0, ip, lsl #8
     760:	00025c20 	andeq	r5, r2, r0, lsr #24
     764:	00043800 	andeq	r3, r4, r0, lsl #16
     768:	02201f00 	eoreq	r1, r0, #0, 30
     76c:	81e40000 	mvnhi	r0, r0
     770:	00140000 	andseq	r0, r4, r0
     774:	42010000 	andmi	r0, r1, #0
     778:	00000786 	andeq	r0, r0, r6, lsl #15
     77c:	00022c20 	andeq	r2, r2, r0, lsr #24
     780:	00047400 	andeq	r7, r4, r0, lsl #8
     784:	38250000 	stmdacc	r5!, {}	; <UNPREDICTABLE>
     788:	f8000002 			; <UNDEFINED> instruction: 0xf8000002
     78c:	10000081 	andne	r0, r0, r1, lsl #1
     790:	01000000 	mrseq	r0, (UNDEF: 0)
     794:	02442044 	subeq	r2, r4, #68	; 0x44
     798:	04960000 	ldreq	r0, [r6], #0
     79c:	00000000 	andeq	r0, r0, r0
     7a0:	00820829 	addeq	r0, r2, r9, lsr #16
     7a4:	00000400 	andeq	r0, r0, r0, lsl #8
     7a8:	0007b700 	andeq	fp, r7, r0, lsl #14
     7ac:	03c22300 	biceq	r2, r2, #0, 6
     7b0:	04b80000 	ldrteq	r0, [r8], #0
     7b4:	1f000000 	svcne	0x00000000
     7b8:	00000250 	andeq	r0, r0, r0, asr r2
     7bc:	00008224 	andeq	r8, r0, r4, lsr #4
     7c0:	0000002c 	andeq	r0, r0, ip, lsr #32
     7c4:	08139101 	ldmdaeq	r3, {r0, r8, ip, pc}
     7c8:	67200000 	strvs	r0, [r0, -r0]!
     7cc:	cb000002 	blgt	7dc <_start-0x7824>
     7d0:	20000004 	andcs	r0, r0, r4
     7d4:	0000025c 	andeq	r0, r0, ip, asr r2
     7d8:	000004f7 	strdeq	r0, [r0], -r7
     7dc:	0002201f 	andeq	r2, r2, pc, lsl r0
     7e0:	00822c00 	addeq	r2, r2, r0, lsl #24
     7e4:	00001400 	andeq	r1, r0, r0, lsl #8
     7e8:	f9420100 			; <UNDEFINED> instruction: 0xf9420100
     7ec:	20000007 	andcs	r0, r0, r7
     7f0:	0000022c 	andeq	r0, r0, ip, lsr #4
     7f4:	00000533 	andeq	r0, r0, r3, lsr r5
     7f8:	02382500 	eorseq	r2, r8, #0, 10
     7fc:	82400000 	subhi	r0, r0, #0
     800:	00100000 	andseq	r0, r0, r0
     804:	44010000 	strmi	r0, [r1], #-0
     808:	00024420 	andeq	r4, r2, r0, lsr #8
     80c:	00055500 	andeq	r5, r5, r0, lsl #10
     810:	29000000 	stmdbcs	r0, {}	; <UNPREDICTABLE>
     814:	00008250 	andeq	r8, r0, r0, asr r2
     818:	00000004 	andeq	r0, r0, r4
     81c:	0000082a 	andeq	r0, r0, sl, lsr #16
     820:	0003d323 	andeq	sp, r3, r3, lsr #6
     824:	00057700 	andeq	r7, r5, r0, lsl #14
     828:	501f0000 	andspl	r0, pc, r0
     82c:	70000002 	andvc	r0, r0, r2
     830:	2c000082 	stccs	0, cr0, [r0], {130}	; 0x82
     834:	01000000 	mrseq	r0, (UNDEF: 0)
     838:	00088693 	muleq	r8, r3, r6
     83c:	02672000 	rsbeq	r2, r7, #0
     840:	058a0000 	streq	r0, [sl]
     844:	5c200000 	stcpl	0, cr0, [r0], #-0
     848:	b6000002 	strlt	r0, [r0], -r2
     84c:	1f000005 	svcne	0x00000005
     850:	00000220 	andeq	r0, r0, r0, lsr #4
     854:	00008278 	andeq	r8, r0, r8, ror r2
     858:	00000014 	andeq	r0, r0, r4, lsl r0
     85c:	086c4201 	stmdaeq	ip!, {r0, r9, lr}^
     860:	2c200000 	stccs	0, cr0, [r0], #-0
     864:	f2000002 	vhadd.s8	d0, d0, d2
     868:	00000005 	andeq	r0, r0, r5
     86c:	00023825 	andeq	r3, r2, r5, lsr #16
     870:	00828c00 	addeq	r8, r2, r0, lsl #24
     874:	00001000 	andeq	r1, r0, r0
     878:	20440100 	subcs	r0, r4, r0, lsl #2
     87c:	00000244 	andeq	r0, r0, r4, asr #4
     880:	00000614 	andeq	r0, r0, r4, lsl r6
     884:	9c290000 	stcls	0, cr0, [r9], #-0
     888:	04000082 	streq	r0, [r0], #-130	; 0x82
     88c:	9d000000 	stcls	0, cr0, [r0, #-0]
     890:	23000008 	movwcs	r0, #8
     894:	000003e4 	andeq	r0, r0, r4, ror #7
     898:	00000636 	andeq	r0, r0, r6, lsr r6
     89c:	02501f00 	subseq	r1, r0, #0, 30
     8a0:	82b80000 	adcshi	r0, r8, #0
     8a4:	002c0000 	eoreq	r0, ip, r0
     8a8:	95010000 	strls	r0, [r1, #-0]
     8ac:	000008f9 	strdeq	r0, [r0], -r9
     8b0:	00026720 	andeq	r6, r2, r0, lsr #14
     8b4:	00064900 	andeq	r4, r6, r0, lsl #18
     8b8:	025c2000 	subseq	r2, ip, #0
     8bc:	06750000 	ldrbteq	r0, [r5], -r0
     8c0:	201f0000 	andscs	r0, pc, r0
     8c4:	c0000002 	andgt	r0, r0, r2
     8c8:	14000082 	strne	r0, [r0], #-130	; 0x82
     8cc:	01000000 	mrseq	r0, (UNDEF: 0)
     8d0:	0008df42 	andeq	sp, r8, r2, asr #30
     8d4:	022c2000 	eoreq	r2, ip, #0
     8d8:	06b10000 	ldrteq	r0, [r1], r0
     8dc:	25000000 	strcs	r0, [r0, #-0]
     8e0:	00000238 	andeq	r0, r0, r8, lsr r2
     8e4:	000082d4 	ldrdeq	r8, [r0], -r4
     8e8:	00000010 	andeq	r0, r0, r0, lsl r0
     8ec:	44204401 	strtmi	r4, [r0], #-1025	; 0x401
     8f0:	d3000002 	movwle	r0, #2
     8f4:	00000006 	andeq	r0, r0, r6
     8f8:	82e42900 	rschi	r2, r4, #0, 18
     8fc:	00040000 	andeq	r0, r4, r0
     900:	09100000 	ldmdbeq	r0, {}	; <UNPREDICTABLE>
     904:	f5230000 			; <UNDEFINED> instruction: 0xf5230000
     908:	f5000003 			; <UNDEFINED> instruction: 0xf5000003
     90c:	00000006 	andeq	r0, r0, r6
     910:	0002501f 	andeq	r5, r2, pc, lsl r0
     914:	0082fc00 	addeq	pc, r2, r0, lsl #24
     918:	00002c00 	andeq	r2, r0, r0, lsl #24
     91c:	6c970100 	ldfvss	f0, [r7], {0}
     920:	20000009 	andcs	r0, r0, r9
     924:	00000267 	andeq	r0, r0, r7, ror #4
     928:	00000708 	andeq	r0, r0, r8, lsl #14
     92c:	00025c20 	andeq	r5, r2, r0, lsr #24
     930:	00073400 	andeq	r3, r7, r0, lsl #8
     934:	02201f00 	eoreq	r1, r0, #0, 30
     938:	83040000 	movwhi	r0, #16384	; 0x4000
     93c:	00140000 	andseq	r0, r4, r0
     940:	42010000 	andmi	r0, r1, #0
     944:	00000952 	andeq	r0, r0, r2, asr r9
     948:	00022c20 	andeq	r2, r2, r0, lsr #24
     94c:	00077000 	andeq	r7, r7, r0
     950:	38250000 	stmdacc	r5!, {}	; <UNPREDICTABLE>
     954:	18000002 	stmdane	r0, {r1}
     958:	10000083 	andne	r0, r0, r3, lsl #1
     95c:	01000000 	mrseq	r0, (UNDEF: 0)
     960:	02442044 	subeq	r2, r4, #68	; 0x44
     964:	07920000 	ldreq	r0, [r2, r0]
     968:	00000000 	andeq	r0, r0, r0
     96c:	00832829 	addeq	r2, r3, r9, lsr #16
     970:	00000400 	andeq	r0, r0, r0, lsl #8
     974:	00098300 	andeq	r8, r9, r0, lsl #6
     978:	04062300 	streq	r2, [r6], #-768	; 0x300
     97c:	07b40000 	ldreq	r0, [r4, r0]!
     980:	1f000000 	svcne	0x00000000
     984:	00000220 	andeq	r0, r0, r0, lsr #4
     988:	00008344 	andeq	r8, r0, r4, asr #6
     98c:	00000010 	andeq	r0, r0, r0, lsl r0
     990:	09a09901 	stmibeq	r0!, {r0, r8, fp, ip, pc}
     994:	2c200000 	stccs	0, cr0, [r0], #-0
     998:	c7000002 	strgt	r0, [r0, -r2]
     99c:	00000007 	andeq	r0, r0, r7
     9a0:	0083542a 	addeq	r5, r3, sl, lsr #8
     9a4:	00000400 	andeq	r0, r0, r0, lsl #8
     9a8:	04132300 	ldreq	r2, [r3], #-768	; 0x300
     9ac:	07e90000 	strbeq	r0, [r9, r0]!
     9b0:	00000000 	andeq	r0, r0, r0
     9b4:	80242700 	eorhi	r2, r4, r0, lsl #14
     9b8:	12790000 	rsbsne	r0, r9, #0
     9bc:	09cc0000 	stmibeq	ip, {}^	; <UNPREDICTABLE>
     9c0:	01280000 	teqeq	r8, r0
     9c4:	84030550 	strhi	r0, [r3], #-1360	; 0x550
     9c8:	0000009a 	muleq	r0, sl, r0
     9cc:	00802826 	addeq	r2, r0, r6, lsr #16
     9d0:	00129600 	andseq	r9, r2, r0, lsl #12
     9d4:	80c02600 	sbchi	r2, r0, r0, lsl #12
     9d8:	129d0000 	addsne	r0, sp, #0
     9dc:	74260000 	strtvc	r0, [r6], #-0
     9e0:	96000083 	strls	r0, [r0], -r3, lsl #1
     9e4:	00000012 	andeq	r0, r0, r2, lsl r0
     9e8:	00030e2b 	andeq	r0, r3, fp, lsr #28
     9ec:	374d0100 	strbcc	r0, [sp, -r0, lsl #2]
     9f0:	b8000000 	stmdalt	r0, {}	; <UNPREDICTABLE>
     9f4:	50000083 	andpl	r0, r0, r3, lsl #1
     9f8:	01000000 	mrseq	r0, (UNDEF: 0)
     9fc:	000ac49c 	muleq	sl, ip, r4
     a00:	00731e00 	rsbseq	r1, r3, r0, lsl #28
     a04:	00374d01 	eorseq	r4, r7, r1, lsl #26
     a08:	07fc0000 	ldrbeq	r0, [ip, r0]!
     a0c:	9e2c0000 	cdpls	0, 2, cr0, cr12, cr0, {0}
     a10:	d4000001 	strle	r0, [r0], #-1
     a14:	0500000a 	streq	r0, [r0, #-10]
     a18:	009a6c03 	addseq	r6, sl, r3, lsl #24
     a1c:	032c1700 	teqeq	ip, #0, 14
     a20:	4f010000 	svcmi	0x00010000
     a24:	00000037 	andeq	r0, r0, r7, lsr r0
     a28:	0003c42d 	andeq	ip, r3, sp, lsr #8
     a2c:	37510100 	ldrbcc	r0, [r1, -r0, lsl #2]
     a30:	36000000 	strcc	r0, [r0], -r0
     a34:	29000008 	stmdbcs	r0, {r3}
     a38:	000083e0 	andeq	r8, r0, r0, ror #7
     a3c:	00000004 	andeq	r0, r0, r4
     a40:	00000a50 	andeq	r0, r0, r0, asr sl
     a44:	00023917 	andeq	r3, r2, r7, lsl r9
     a48:	374f0100 	strbcc	r0, [pc, -r0, lsl #2]
     a4c:	00000000 	andeq	r0, r0, r0
     a50:	0083f029 	addeq	pc, r3, r9, lsr #32
     a54:	00000400 	andeq	r0, r0, r0, lsl #8
     a58:	000a6d00 	andeq	r6, sl, r0, lsl #26
     a5c:	02392d00 	eorseq	r2, r9, #0, 26
     a60:	51010000 	mrspl	r0, (UNDEF: 1)
     a64:	00000037 	andeq	r0, r0, r7, lsr r0
     a68:	00000836 	andeq	r0, r0, r6, lsr r8
     a6c:	83c82600 	bichi	r2, r8, #0, 12
     a70:	12720000 	rsbsne	r0, r2, #0
     a74:	dc270000 	stcle	0, cr0, [r7], #-0
     a78:	79000083 	stmdbvc	r0, {r0, r1, r7}
     a7c:	a5000012 	strge	r0, [r0, #-18]
     a80:	2800000a 	stmdacs	r0, {r1, r3}
     a84:	08025301 	stmdaeq	r2, {r0, r8, r9, ip, lr}
     a88:	5201284e 	andpl	r2, r1, #5111808	; 0x4e0000
     a8c:	9a6c0305 	bls	1b016a8 <__bss_end__+0x1af5390>
     a90:	01280000 	teqeq	r8, r0
     a94:	58030551 	stmdapl	r3, {r0, r4, r6, r8, sl}
     a98:	2800009b 	stmdacs	r0, {r0, r1, r3, r4, r7}
     a9c:	03055001 	movweq	r5, #20481	; 0x5001
     aa0:	00009b28 	andeq	r9, r0, r8, lsr #22
     aa4:	83e02600 	mvnhi	r2, #0, 12
     aa8:	128f0000 	addne	r0, pc, #0
     aac:	f02e0000 			; <UNDEFINED> instruction: 0xf02e0000
     ab0:	a4000083 	strge	r0, [r0], #-131	; 0x83
     ab4:	28000012 	stmdacs	r0, {r1, r4}
     ab8:	f3075001 	vhadd.u8	d5, d7, d1
     abc:	e80a5001 	stmda	sl, {r0, ip, lr}
     ac0:	00001e03 	andeq	r1, r0, r3, lsl #28
     ac4:	00008a08 	andeq	r8, r0, r8, lsl #20
     ac8:	000ad400 	andeq	sp, sl, r0, lsl #8
     acc:	00810900 	addeq	r0, r1, r0, lsl #18
     ad0:	000e0000 	andeq	r0, lr, r0
     ad4:	000ac407 	andeq	ip, sl, r7, lsl #8
     ad8:	00b21400 	adcseq	r1, r2, r0, lsl #8
     adc:	55010000 	strpl	r0, [r1, #-0]
     ae0:	00000037 	andeq	r0, r0, r7, lsr r0
     ae4:	000bd603 	andeq	sp, fp, r3, lsl #12
     ae8:	02621a00 	rsbeq	r1, r2, #0, 20
     aec:	55010000 	strpl	r0, [r1, #-0]
     af0:	00000420 	andeq	r0, r0, r0, lsr #8
     af4:	00053217 	andeq	r3, r5, r7, lsl r2
     af8:	37570100 	ldrbcc	r0, [r7, -r0, lsl #2]
     afc:	18000000 	stmdane	r0, {}	; <UNPREDICTABLE>
     b00:	58010069 	stmdapl	r1, {r0, r3, r5, r6}
     b04:	00000037 	andeq	r0, r0, r7, lsr r0
     b08:	00005a17 	andeq	r5, r0, r7, lsl sl
     b0c:	37590100 	ldrbcc	r0, [r9, -r0, lsl #2]
     b10:	17000000 	strne	r0, [r0, -r0]
     b14:	00000687 	andeq	r0, r0, r7, lsl #13
     b18:	00375d01 	eorseq	r5, r7, r1, lsl #26
     b1c:	2f1b0000 	svccs	0x001b0000
     b20:	1700000b 	strne	r0, [r0, -fp]
     b24:	00000239 	andeq	r0, r0, r9, lsr r2
     b28:	00375d01 	eorseq	r5, r7, r1, lsl #26
     b2c:	1b000000 	blne	b34 <_start-0x74cc>
     b30:	00000b40 	andeq	r0, r0, r0, asr #22
     b34:	00023917 	andeq	r3, r2, r7, lsl r9
     b38:	375e0100 	ldrbcc	r0, [lr, -r0, lsl #2]
     b3c:	00000000 	andeq	r0, r0, r0
     b40:	000b511b 	andeq	r5, fp, fp, lsl r1
     b44:	02391700 	eorseq	r1, r9, #0, 14
     b48:	60010000 	andvs	r0, r1, r0
     b4c:	00000037 	andeq	r0, r0, r7, lsr r0
     b50:	0b621b00 	bleq	1887758 <__bss_end__+0x187b440>
     b54:	39170000 	ldmdbcc	r7, {}	; <UNPREDICTABLE>
     b58:	01000002 	tsteq	r0, r2
     b5c:	00003762 	andeq	r3, r0, r2, ror #14
     b60:	731b0000 	tstvc	fp, #0
     b64:	1700000b 	strne	r0, [r0, -fp]
     b68:	00000239 	andeq	r0, r0, r9, lsr r2
     b6c:	00376401 	eorseq	r6, r7, r1, lsl #8
     b70:	1b000000 	blne	b78 <_start-0x7488>
     b74:	00000b84 	andeq	r0, r0, r4, lsl #23
     b78:	00023917 	andeq	r3, r2, r7, lsl r9
     b7c:	37660100 	strbcc	r0, [r6, -r0, lsl #2]!
     b80:	00000000 	andeq	r0, r0, r0
     b84:	000b951b 	andeq	r9, fp, fp, lsl r5
     b88:	02391700 	eorseq	r1, r9, #0, 14
     b8c:	68010000 	stmdavs	r1, {}	; <UNPREDICTABLE>
     b90:	00000037 	andeq	r0, r0, r7, lsr r0
     b94:	0ba61b00 	bleq	fe98779c <__bss_end__+0xfe97b484>
     b98:	39170000 	ldmdbcc	r7, {}	; <UNPREDICTABLE>
     b9c:	01000002 	tsteq	r0, r2
     ba0:	0000376a 	andeq	r3, r0, sl, ror #14
     ba4:	b71b0000 	ldrlt	r0, [fp, -r0]
     ba8:	1700000b 	strne	r0, [r0, -fp]
     bac:	00000239 	andeq	r0, r0, r9, lsr r2
     bb0:	00376c01 	eorseq	r6, r7, r1, lsl #24
     bb4:	1b000000 	blne	bbc <_start-0x7444>
     bb8:	00000bc8 	andeq	r0, r0, r8, asr #23
     bbc:	00023917 	andeq	r3, r2, r7, lsl r9
     bc0:	376e0100 	strbcc	r0, [lr, -r0, lsl #2]!
     bc4:	00000000 	andeq	r0, r0, r0
     bc8:	0239171c 	eorseq	r1, r9, #28, 14	; 0x700000
     bcc:	70010000 	andvc	r0, r1, r0
     bd0:	00000037 	andeq	r0, r0, r7, lsr r0
     bd4:	d02f0000 	eorle	r0, pc, r0
     bd8:	0100000a 	tsteq	r0, sl
     bdc:	008408b1 			; <UNDEFINED> instruction: 0x008408b1
     be0:	00024000 	andeq	r4, r2, r0
     be4:	bb9c0100 	bllt	fe700fec <__bss_end__+0xfe6f4cd4>
     be8:	1e00000d 	cdpne	0, 0, cr0, cr0, cr13, {0}
     bec:	01006370 	tsteq	r0, r0, ror r3
     bf0:	000037b1 			; <UNDEFINED> instruction: 0x000037b1
     bf4:	00084900 	andeq	r4, r8, r0, lsl #18
     bf8:	0ad91f00 	beq	ff648800 <__bss_end__+0xff63c4e8>
     bfc:	84100000 	ldrhi	r0, [r0], #-0
     c00:	01cc0000 	biceq	r0, ip, r0
     c04:	b9010000 	stmdblt	r1, {}	; <UNPREDICTABLE>
     c08:	00000d3d 	andeq	r0, r0, sp, lsr sp
     c0c:	000ae930 	andeq	lr, sl, r0, lsr r9
     c10:	f0030600 			; <UNDEFINED> instruction: 0xf0030600
     c14:	9f0000be 	svcls	0x000000be
     c18:	0084102a 	addeq	r1, r4, sl, lsr #32
     c1c:	0001cc00 	andeq	ip, r1, r0, lsl #24
     c20:	0af42300 	beq	ffd09828 <__bss_end__+0xffcfd510>
     c24:	086a0000 	stmdaeq	sl!, {}^	; <UNPREDICTABLE>
     c28:	ff310000 			; <UNDEFINED> instruction: 0xff310000
     c2c:	0100000a 	tsteq	r0, sl
     c30:	000b0823 	andeq	r0, fp, r3, lsr #16
     c34:	0008fb00 	andeq	pc, r8, r0, lsl #22
     c38:	0b132300 	bleq	4c9840 <__bss_end__+0x4bd528>
     c3c:	09210000 	stmdbeq	r1!, {}	; <UNPREDICTABLE>
     c40:	40290000 	eormi	r0, r9, r0
     c44:	04000084 	streq	r0, [r0], #-132	; 0x84
     c48:	59000000 	stmdbpl	r0, {}	; <UNPREDICTABLE>
     c4c:	2300000c 	movwcs	r0, #12
     c50:	00000b23 	andeq	r0, r0, r3, lsr #22
     c54:	00000921 	andeq	r0, r0, r1, lsr #18
     c58:	84442900 	strbhi	r2, [r4], #-2304	; 0x900
     c5c:	00040000 	andeq	r0, r4, r0
     c60:	0c700000 	ldcleq	0, cr0, [r0], #-0
     c64:	34230000 	strtcc	r0, [r3], #-0
     c68:	3400000b 	strcc	r0, [r0], #-11
     c6c:	00000009 	andeq	r0, r0, r9
     c70:	00845829 	addeq	r5, r4, r9, lsr #16
     c74:	00000400 	andeq	r0, r0, r0, lsl #8
     c78:	000c8700 	andeq	r8, ip, r0, lsl #14
     c7c:	0b452300 	bleq	1149884 <__bss_end__+0x113d56c>
     c80:	09470000 	stmdbeq	r7, {}^	; <UNPREDICTABLE>
     c84:	29000000 	stmdbcs	r0, {}	; <UNPREDICTABLE>
     c88:	00008480 	andeq	r8, r0, r0, lsl #9
     c8c:	00000004 	andeq	r0, r0, r4
     c90:	00000c9e 	muleq	r0, lr, ip
     c94:	000b5623 	andeq	r5, fp, r3, lsr #12
     c98:	00095a00 	andeq	r5, r9, r0, lsl #20
     c9c:	b0290000 	eorlt	r0, r9, r0
     ca0:	04000084 	streq	r0, [r0], #-132	; 0x84
     ca4:	b5000000 	strlt	r0, [r0, #-0]
     ca8:	2300000c 	movwcs	r0, #12
     cac:	00000b67 	andeq	r0, r0, r7, ror #22
     cb0:	0000096d 	andeq	r0, r0, sp, ror #18
     cb4:	84dc2900 	ldrbhi	r2, [ip], #2304	; 0x900
     cb8:	00040000 	andeq	r0, r4, r0
     cbc:	0ccc0000 	stcleq	0, cr0, [ip], {0}
     cc0:	78230000 	stmdavc	r3!, {}	; <UNPREDICTABLE>
     cc4:	8000000b 	andhi	r0, r0, fp
     cc8:	00000009 	andeq	r0, r0, r9
     ccc:	00850c29 	addeq	r0, r5, r9, lsr #24
     cd0:	00000400 	andeq	r0, r0, r0, lsl #8
     cd4:	000ce300 	andeq	lr, ip, r0, lsl #6
     cd8:	0b892300 	bleq	fe2498e0 <__bss_end__+0xfe23d5c8>
     cdc:	09930000 	ldmibeq	r3, {}	; <UNPREDICTABLE>
     ce0:	29000000 	stmdbcs	r0, {}	; <UNPREDICTABLE>
     ce4:	0000853c 	andeq	r8, r0, ip, lsr r5
     ce8:	00000004 	andeq	r0, r0, r4
     cec:	00000cfa 	strdeq	r0, [r0], -sl
     cf0:	000b9a23 	andeq	r9, fp, r3, lsr #20
     cf4:	0009a600 	andeq	sl, r9, r0, lsl #12
     cf8:	6c290000 	stcvs	0, cr0, [r9], #-0
     cfc:	04000085 	streq	r0, [r0], #-133	; 0x85
     d00:	11000000 	mrsne	r0, (UNDEF: 0)
     d04:	2300000d 	movwcs	r0, #13
     d08:	00000bab 	andeq	r0, r0, fp, lsr #23
     d0c:	000009b9 			; <UNDEFINED> instruction: 0x000009b9
     d10:	85982900 	ldrhi	r2, [r8, #2304]	; 0x900
     d14:	00040000 	andeq	r0, r4, r0
     d18:	0d280000 	stceq	0, cr0, [r8, #-0]
     d1c:	bc230000 	stclt	0, cr0, [r3], #-0
     d20:	cc00000b 	stcgt	0, cr0, [r0], {11}
     d24:	00000009 	andeq	r0, r0, r9
     d28:	0085cc2a 	addeq	ip, r5, sl, lsr #24
     d2c:	00000400 	andeq	r0, r0, r0, lsl #8
     d30:	0bc92300 	bleq	ff249938 <__bss_end__+0xff23d620>
     d34:	09df0000 	ldmibeq	pc, {}^	; <UNPREDICTABLE>
     d38:	00000000 	andeq	r0, r0, r0
     d3c:	02bf1f00 	adcseq	r1, pc, #0, 30
     d40:	85e00000 	strbhi	r0, [r0, #0]!
     d44:	00440000 	subeq	r0, r4, r0
     d48:	b9010000 	stmdblt	r1, {}	; <UNPREDICTABLE>
     d4c:	00000d95 	muleq	r0, r5, sp
     d50:	0002d820 	andeq	sp, r2, r0, lsr #16
     d54:	0009f200 	andeq	pc, r9, r0, lsl #4
     d58:	02cf3000 	sbceq	r3, pc, #0
     d5c:	03060000 	movweq	r0, #24576	; 0x6000
     d60:	00009ed8 	ldrdeq	r9, [r0], -r8
     d64:	85e02a9f 	strbhi	r2, [r0, #2719]!	; 0xa9f
     d68:	00440000 	subeq	r0, r4, r0
     d6c:	e1230000 	teq	r3, r0
     d70:	10000002 	andne	r0, r0, r2
     d74:	2500000a 	strcs	r0, [r0, #-10]
     d78:	00000206 	andeq	r0, r0, r6, lsl #4
     d7c:	000085ec 	andeq	r8, r0, ip, ror #11
     d80:	00000014 	andeq	r0, r0, r4, lsl r0
     d84:	16305802 	ldrtne	r5, [r0], -r2, lsl #16
     d88:	06000002 	streq	r0, [r0], -r2
     d8c:	009ed803 	addseq	sp, lr, r3, lsl #16
     d90:	00009f00 	andeq	r9, r0, r0, lsl #30
     d94:	84102600 	ldrhi	r2, [r0], #-1536	; 0x600
     d98:	12b50000 	adcsne	r0, r5, #0
     d9c:	2c270000 	stccs	0, cr0, [r7], #-0
     da0:	bc000086 	stclt	0, cr0, [r0], {134}	; 0x86
     da4:	b1000012 	tstlt	r0, r2, lsl r0
     da8:	2800000d 	stmdacs	r0, {r0, r2, r3}
     dac:	44015001 	strmi	r5, [r1], #-1
     db0:	86302600 	ldrthi	r2, [r0], -r0, lsl #12
     db4:	12b50000 	adcsne	r0, r5, #0
     db8:	16000000 	strne	r0, [r0], -r0
     dbc:	0000021a 	andeq	r0, r0, sl, lsl r2
     dc0:	f2039902 	vmla.i8	d9, d3, d2
     dc4:	1500000d 	strne	r0, [r0, #-13]
     dc8:	99020063 	stmdbls	r2, {r0, r1, r5, r6}
     dcc:	00000200 	andeq	r0, r0, r0, lsl #4
     dd0:	0000191a 	andeq	r1, r0, sl, lsl r9
     dd4:	37990200 	ldrcc	r0, [r9, r0, lsl #4]
     dd8:	19000000 	stmdbne	r0, {}	; <UNPREDICTABLE>
     ddc:	0000019e 	muleq	r0, lr, r1
     de0:	00000df2 	strdeq	r0, [r0], -r2
     de4:	0000021a 	andeq	r0, r0, sl, lsl r2
     de8:	02006518 	andeq	r6, r0, #24, 10	; 0x6000000
     dec:	000119a2 	andeq	r1, r1, r2, lsr #19
     df0:	9c070000 	stcls	0, cr0, [r7], {-0}
     df4:	2f000000 	svccs	0x00000000
     df8:	00000110 	andeq	r0, r0, r0, lsl r1
     dfc:	8648be01 	strbhi	fp, [r8], -r1, lsl #28
     e00:	02280000 	eoreq	r0, r8, #0
     e04:	9c010000 	stcls	0, cr0, [r1], {-0}
     e08:	000010c0 	andeq	r1, r0, r0, asr #1
     e0c:	000dbb1f 	andeq	fp, sp, pc, lsl fp
     e10:	00868c00 	addeq	r8, r6, r0, lsl #24
     e14:	00018800 	andeq	r8, r1, r0, lsl #16
     e18:	2bc60100 	blcs	ff181220 <__bss_end__+0xff174f08>
     e1c:	32000010 	andcc	r0, r0, #16
     e20:	00000dd0 	ldrdeq	r0, [r0], -r0	; <UNPREDICTABLE>
     e24:	0dc73001 	stcleq	0, cr3, [r7, #4]
     e28:	03060000 	movweq	r0, #24576	; 0x6000
     e2c:	00009ed8 	ldrdeq	r9, [r0], -r8
     e30:	868c2a9f 	pkhbthi	r2, ip, pc, lsl #21	; <UNPREDICTABLE>
     e34:	01880000 	orreq	r0, r8, r0
     e38:	e8230000 	stmda	r3!, {}	; <UNPREDICTABLE>
     e3c:	3200000d 	andcc	r0, r0, #13
     e40:	2400000a 	strcs	r0, [r0], #-10
     e44:	00000ddb 	ldrdeq	r0, [r0], -fp
     e48:	9a7c0305 	bls	1f01a64 <__bss_end__+0x1ef574c>
     e4c:	e61f0000 	ldr	r0, [pc], -r0
     e50:	d8000001 	stmdale	r0, {r0}
     e54:	08000086 	stmdaeq	r0, {r1, r2, r7}
     e58:	02000000 	andeq	r0, r0, #0
     e5c:	000e6e9f 	muleq	lr, pc, lr	; <UNPREDICTABLE>
     e60:	01f63000 	mvnseq	r3, r0
     e64:	03060000 	movweq	r0, #24576	; 0x6000
     e68:	00009ed8 	ldrdeq	r9, [r0], -r8
     e6c:	061f009f 			; <UNDEFINED> instruction: 0x061f009f
     e70:	04000002 	streq	r0, [r0], #-2
     e74:	1c000087 	stcne	0, cr0, [r0], {135}	; 0x87
     e78:	02000000 	andeq	r0, r0, #0
     e7c:	000e8ea0 	andeq	r8, lr, r0, lsr #29
     e80:	02163000 	andseq	r3, r6, #0
     e84:	03060000 	movweq	r0, #24576	; 0x6000
     e88:	00009ed8 	ldrdeq	r9, [r0], -r8
     e8c:	a51f009f 	ldrge	r0, [pc, #-159]	; df5 <_start-0x720b>
     e90:	44000002 	strmi	r0, [r0], #-2
     e94:	18000087 	stmdane	r0, {r0, r1, r2, r7}
     e98:	02000000 	andeq	r0, r0, #0
     e9c:	000eaea1 	andeq	sl, lr, r1, lsr #29
     ea0:	02b53000 	adcseq	r3, r5, #0
     ea4:	03060000 	movweq	r0, #24576	; 0x6000
     ea8:	00009ed8 	ldrdeq	r9, [r0], -r8
     eac:	7121009f 			; <UNDEFINED> instruction: 0x7121009f
     eb0:	80000002 	andhi	r0, r0, r2
     eb4:	60000087 	andvs	r0, r0, r7, lsl #1
     eb8:	02000000 	andeq	r0, r0, #0
     ebc:	000f05a3 	andeq	r0, pc, r3, lsr #11
     ec0:	028a3000 	addeq	r3, sl, #0
     ec4:	f2060000 	vhadd.s8	d0, d6, d0
     ec8:	00000e3a 	andeq	r0, r0, sl, lsr lr
     ecc:	02813000 	addeq	r3, r1, #0
     ed0:	03060000 	movweq	r0, #24576	; 0x6000
     ed4:	00009ed8 	ldrdeq	r9, [r0], -r8
     ed8:	0060229f 	mlseq	r0, pc, r2, r2	; <UNPREDICTABLE>
     edc:	93230000 	teqls	r3, #0
     ee0:	73000002 	movwvc	r0, #2
     ee4:	2500000a 	strcs	r0, [r0, #-10]
     ee8:	000001e6 	andeq	r0, r0, r6, ror #3
     eec:	00008780 	andeq	r8, r0, r0, lsl #15
     ef0:	00000014 	andeq	r0, r0, r4, lsl r0
     ef4:	f6304302 			; <UNDEFINED> instruction: 0xf6304302
     ef8:	06000001 	streq	r0, [r0], -r1
     efc:	009ed803 	addseq	sp, lr, r3, lsl #16
     f00:	00009f00 	andeq	r9, r0, r0, lsl #30
     f04:	86a02700 	strthi	r2, [r0], r0, lsl #14
     f08:	12cd0000 	sbcne	r0, sp, #0
     f0c:	0f250000 	svceq	0x00250000
     f10:	01280000 	teqeq	r8, r0
     f14:	140a0352 	strne	r0, [sl], #-850	; 0x352
     f18:	51012820 	tstpl	r1, r0, lsr #16
     f1c:	01283001 	teqeq	r8, r1
     f20:	00740250 	rsbseq	r0, r4, r0, asr r2
     f24:	86ec2600 	strbthi	r2, [ip], r0, lsl #12
     f28:	12720000 	rsbsne	r0, r2, #0
     f2c:	00270000 	eoreq	r0, r7, r0
     f30:	79000087 	stmdbvc	r0, {r0, r1, r2, r7}
     f34:	5d000012 	stcpl	0, cr0, [r0, #-72]	; 0xffffffb8
     f38:	2800000f 	stmdacs	r0, {r0, r1, r2, r3}
     f3c:	08025301 	stmdaeq	r2, {r0, r8, r9, ip, lr}
     f40:	5201289f 	andpl	r2, r1, #10420224	; 0x9f0000
     f44:	9a7c0305 	bls	1f01b60 <__bss_end__+0x1ef5848>
     f48:	01280000 	teqeq	r8, r0
     f4c:	d4030551 	strle	r0, [r3], #-1361	; 0x551
     f50:	2800009a 	stmdacs	r0, {r1, r3, r4, r7}
     f54:	03055001 	movweq	r5, #20481	; 0x5001
     f58:	00009b6c 	andeq	r9, r0, ip, ror #22
     f5c:	87042600 	strhi	r2, [r4, -r0, lsl #12]
     f60:	128f0000 	addne	r0, pc, #0
     f64:	2c260000 	stccs	0, cr0, [r6], #-0
     f68:	72000087 	andvc	r0, r0, #135	; 0x87
     f6c:	27000012 	smladcs	r0, r2, r0, r0
     f70:	00008740 	andeq	r8, r0, r0, asr #14
     f74:	00001279 	andeq	r1, r0, r9, ror r2
     f78:	00000f9e 	muleq	r0, lr, pc	; <UNPREDICTABLE>
     f7c:	02530128 	subseq	r0, r3, #40, 2
     f80:	0128a008 	teqeq	r8, r8
     f84:	7c030552 	cfstr32vc	mvfx0, [r3], {82}	; 0x52
     f88:	2800009a 	stmdacs	r0, {r1, r3, r4, r7}
     f8c:	03055101 	movweq	r5, #20737	; 0x5101
     f90:	00009ad4 	ldrdeq	r9, [r0], -r4
     f94:	05500128 	ldrbeq	r0, [r0, #-296]	; 0x128
     f98:	009b8803 	addseq	r8, fp, r3, lsl #16
     f9c:	44260000 	strtmi	r0, [r6], #-0
     fa0:	8f000087 	svchi	0x00000087
     fa4:	26000012 			; <UNDEFINED> instruction: 0x26000012
     fa8:	00008768 	andeq	r8, r0, r8, ror #14
     fac:	00001272 	andeq	r1, r0, r2, ror r2
     fb0:	00877c27 	addeq	r7, r7, r7, lsr #24
     fb4:	00127900 	andseq	r7, r2, r0, lsl #18
     fb8:	000fdf00 	andeq	sp, pc, r0, lsl #30
     fbc:	53012800 	movwpl	r2, #6144	; 0x1800
     fc0:	28a10802 	stmiacs	r1!, {r1, fp}
     fc4:	03055201 	movweq	r5, #20993	; 0x5201
     fc8:	00009a7c 	andeq	r9, r0, ip, ror sl
     fcc:	05510128 	ldrbeq	r0, [r1, #-296]	; 0x128
     fd0:	009ad403 	addseq	sp, sl, r3, lsl #8
     fd4:	50012800 	andpl	r2, r1, r0, lsl #16
     fd8:	9ba40305 	blls	fe901bf4 <__bss_end__+0xfe8f58dc>
     fdc:	26000000 	strcs	r0, [r0], -r0
     fe0:	00008780 	andeq	r8, r0, r0, lsl #15
     fe4:	0000128f 	andeq	r1, r0, pc, lsl #5
     fe8:	0087fc26 	addeq	pc, r7, r6, lsr #24
     fec:	00127200 	andseq	r7, r2, r0, lsl #4
     ff0:	88102700 	ldmdahi	r0, {r8, r9, sl, sp}
     ff4:	12790000 	rsbsne	r0, r9, #0
     ff8:	10200000 	eorne	r0, r0, r0
     ffc:	01280000 	teqeq	r8, r0
    1000:	a3080253 	movwge	r0, #33363	; 0x8253
    1004:	05520128 	ldrbeq	r0, [r2, #-296]	; 0x128
    1008:	009a7c03 	addseq	r7, sl, r3, lsl #24
    100c:	51012800 	tstpl	r1, r0, lsl #16
    1010:	9ad40305 	bls	ff501c2c <__bss_end__+0xff4f5914>
    1014:	01280000 	teqeq	r8, r0
    1018:	c8030550 	stmdagt	r3, {r4, r6, r8, sl}
    101c:	0000009b 	muleq	r0, fp, r0
    1020:	00881426 	addeq	r1, r8, r6, lsr #8
    1024:	00128f00 	andseq	r8, r2, r0, lsl #30
    1028:	29000000 	stmdbcs	r0, {}	; <UNPREDICTABLE>
    102c:	00008818 	andeq	r8, r0, r8, lsl r8
    1030:	00000008 	andeq	r0, r0, r8
    1034:	00001044 	andeq	r1, r0, r4, asr #32
    1038:	006e6933 	rsbeq	r6, lr, r3, lsr r9
    103c:	0037c901 	eorseq	ip, r7, r1, lsl #18
    1040:	00010000 	andeq	r0, r1, r0
    1044:	00865026 	addeq	r5, r6, r6, lsr #32
    1048:	0012ec00 	andseq	lr, r2, r0, lsl #24
    104c:	86542600 	ldrbhi	r2, [r4], -r0, lsl #12
    1050:	12f30000 	rscsne	r0, r3, #0
    1054:	5c270000 	stcpl	0, cr0, [r7], #-0
    1058:	fa000086 	blx	1278 <_start-0x6d88>
    105c:	69000012 	stmdbvs	r0, {r1, r4}
    1060:	28000010 	stmdacs	r0, {r4}
    1064:	45015001 	strmi	r5, [r1, #-1]
    1068:	86642700 	strbthi	r2, [r4], -r0, lsl #14
    106c:	130b0000 	movwne	r0, #45056	; 0xb000
    1070:	107c0000 	rsbsne	r0, ip, r0
    1074:	01280000 	teqeq	r8, r0
    1078:	00440150 	subeq	r0, r4, r0, asr r1
    107c:	00868c27 	addeq	r8, r6, r7, lsr #24
    1080:	00131c00 	andseq	r1, r3, r0, lsl #24
    1084:	00108f00 	andseq	r8, r0, r0, lsl #30
    1088:	50012800 	andpl	r2, r1, r0, lsl #16
    108c:	26004401 	strcs	r4, [r0], -r1, lsl #8
    1090:	00008818 	andeq	r8, r0, r8, lsl r8
    1094:	0000132d 	andeq	r1, r0, sp, lsr #6
    1098:	00883027 	addeq	r3, r8, r7, lsr #32
    109c:	00042600 	andeq	r2, r4, r0, lsl #12
    10a0:	0010b600 	andseq	fp, r0, r0, lsl #12
    10a4:	52012800 	andpl	r2, r1, #0, 16
    10a8:	28ff0802 	ldmcs	pc!, {r1, fp}^	; <UNPREDICTABLE>
    10ac:	44015101 	strmi	r5, [r1], #-257	; 0x101
    10b0:	01500128 	cmpeq	r0, r8, lsr #2
    10b4:	34260045 	strtcc	r0, [r6], #-69	; 0x45
    10b8:	8f000088 	svchi	0x00000088
    10bc:	00000012 	andeq	r0, r0, r2, lsl r0
    10c0:	0001cc34 	andeq	ip, r1, r4, lsr ip
    10c4:	cf0f0100 	svcgt	0x000f0100
    10c8:	00000010 	andeq	r0, r0, r0, lsl r0
    10cc:	06202000 	strteq	r2, [r0], -r0
    10d0:	00019404 	andeq	r9, r1, r4, lsl #8
    10d4:	03223400 	teqeq	r2, #0, 8
    10d8:	10010000 	andne	r0, r1, r0
    10dc:	000010cf 	andeq	r1, r0, pc, asr #1
    10e0:	2020001c 	eorcs	r0, r0, ip, lsl r0
    10e4:	00000f34 	andeq	r0, r0, r4, lsr pc
    10e8:	cf110100 	svcgt	0x00110100
    10ec:	28000010 	stmdacs	r0, {r4}
    10f0:	34202000 	strtcc	r2, [r0], #-0
    10f4:	0000015a 	andeq	r0, r0, sl, asr r1
    10f8:	10cf1301 	sbcne	r1, pc, r1, lsl #6
    10fc:	00000000 	andeq	r0, r0, r0
    1100:	62342020 	eorsvs	r2, r4, #32
    1104:	01000001 	tsteq	r0, r1
    1108:	0010cf14 	andseq	ip, r0, r4, lsl pc
    110c:	20000400 	andcs	r0, r0, r0, lsl #8
    1110:	00073420 	andeq	r3, r7, r0, lsr #8
    1114:	15010000 	strne	r0, [r1, #-0]
    1118:	000010cf 	andeq	r1, r0, pc, asr #1
    111c:	20200008 	eorcs	r0, r0, r8
    1120:	00016a34 	andeq	r6, r1, r4, lsr sl
    1124:	cf160100 	svcgt	0x00160100
    1128:	0c000010 	stceq	0, cr0, [r0], {16}
    112c:	34202000 	strtcc	r2, [r0], #-0
    1130:	00000172 	andeq	r0, r0, r2, ror r1
    1134:	10cf1701 	sbcne	r1, pc, r1, lsl #14
    1138:	00100000 	andseq	r0, r0, r0
    113c:	7a342020 	bvc	d091c4 <__bss_end__+0xcfceac>
    1140:	01000001 	tsteq	r0, r1
    1144:	0010cf18 	andseq	ip, r0, r8, lsl pc
    1148:	20001400 	andcs	r1, r0, r0, lsl #8
    114c:	02e23420 	rsceq	r3, r2, #32, 8	; 0x20000000
    1150:	1a010000 	bne	41158 <__bss_end__+0x34e40>
    1154:	0000115c 	andeq	r1, r0, ip, asr r1
    1158:	2020001c 	eorcs	r0, r0, ip, lsl r0
    115c:	0010cf07 	andseq	ip, r0, r7, lsl #30
    1160:	00d13400 	sbcseq	r3, r1, r0, lsl #8
    1164:	1b010000 	blne	4116c <__bss_end__+0x34e54>
    1168:	000010cf 	andeq	r1, r0, pc, asr #1
    116c:	20200020 	eorcs	r0, r0, r0, lsr #32
    1170:	00002834 	andeq	r2, r0, r4, lsr r8
    1174:	7f1d0100 	svcvc	0x001d0100
    1178:	28000011 	stmdacs	r0, {r0, r4}
    117c:	07202000 	streq	r2, [r0, -r0]!
    1180:	000010cf 	andeq	r1, r0, pc, asr #1
    1184:	0001d734 	andeq	sp, r1, r4, lsr r7
    1188:	cf1e0100 	svcgt	0x001e0100
    118c:	2c000010 	stccs	0, cr0, [r0], {16}
    1190:	34202000 	strtcc	r2, [r0], #-0
    1194:	00000102 	andeq	r0, r0, r2, lsl #2
    1198:	11a22001 			; <UNDEFINED> instruction: 0x11a22001
    119c:	00340000 	eorseq	r0, r4, r0
    11a0:	cf072020 	svcgt	0x00072020
    11a4:	34000010 	strcc	r0, [r0], #-16
    11a8:	00000109 	andeq	r0, r0, r9, lsl #2
    11ac:	10cf2101 	sbcne	r2, pc, r1, lsl #2
    11b0:	00380000 	eorseq	r0, r8, r0
    11b4:	72332020 	eorsvc	r2, r3, #32
    11b8:	23010078 	movwcs	r0, #4216	; 0x1078
    11bc:	000011c1 	andeq	r1, r0, r1, asr #3
    11c0:	00250714 	eoreq	r0, r5, r4, lsl r7
    11c4:	74330000 	ldrtvc	r0, [r3], #-0
    11c8:	24010078 	strcs	r0, [r1], #-120	; 0x78
    11cc:	000011d1 	ldrdeq	r1, [r0], -r1	; <UNPREDICTABLE>
    11d0:	00250715 	eoreq	r0, r5, r5, lsl r7
    11d4:	c7350000 	ldrgt	r0, [r5, -r0]!
    11d8:	01000001 	tsteq	r0, r1
    11dc:	00019925 	andeq	r9, r1, r5, lsr #18
    11e0:	d8030500 	stmdale	r3, {r8, sl}
    11e4:	3600009e 			; <UNDEFINED> instruction: 0x3600009e
    11e8:	2f010075 	svccs	0x00010075
    11ec:	000001db 	ldrdeq	r0, [r0], -fp
    11f0:	bef00305 	cdplt	3, 15, cr0, cr0, cr5, {0}
    11f4:	aa350000 	bge	d411fc <__bss_end__+0xd34ee4>
    11f8:	01000000 	mrseq	r0, (UNDEF: 0)
    11fc:	000194ae 	andeq	r9, r1, lr, lsr #9
    1200:	04030500 	streq	r0, [r3], #-1280	; 0x500
    1204:	350000bf 	strcc	r0, [r0, #-191]	; 0xbf
    1208:	00000222 	andeq	r0, r0, r2, lsr #4
    120c:	1218af01 	andsne	sl, r8, #1, 30
    1210:	03050000 	movweq	r0, #20480	; 0x5000
    1214:	0000bf00 	andeq	fp, r0, r0, lsl #30
    1218:	00002511 	andeq	r2, r0, r1, lsl r5
    121c:	04453700 	strbeq	r3, [r5], #-1792	; 0x700
    1220:	80050000 	andhi	r0, r5, r0
    1224:	000000ac 	andeq	r0, r0, ip, lsr #1
    1228:	c3140305 	tstgt	r4, #335544320	; 0x14000000
    122c:	32370000 	eorscc	r0, r7, #0
    1230:	01000003 	tsteq	r0, r3
    1234:	00121826 	andseq	r1, r2, r6, lsr #16
    1238:	10030500 	andne	r0, r3, r0, lsl #10
    123c:	370000bf 			; <UNDEFINED> instruction: 0x370000bf
    1240:	000003ac 	andeq	r0, r0, ip, lsr #7
    1244:	12182701 	andsne	r2, r8, #262144	; 0x40000
    1248:	03050000 	movweq	r0, #20480	; 0x5000
    124c:	0000bf0c 	andeq	fp, r0, ip, lsl #30
    1250:	00018237 	andeq	r8, r1, r7, lsr r2
    1254:	949d0100 	ldrls	r0, [sp], #256	; 0x100
    1258:	05000001 	streq	r0, [r0, #-1]
    125c:	00beec03 	adcseq	lr, lr, r3, lsl #24
    1260:	02573700 	subseq	r3, r7, #0, 14
    1264:	9e010000 	cdpls	0, 0, cr0, cr1, cr0, {0}
    1268:	00000194 	muleq	r0, r4, r1
    126c:	bf080305 	svclt	0x00080305
    1270:	4b380000 	blmi	e01278 <__bss_end__+0xdf4f60>
    1274:	06000001 	streq	r0, [r0], -r1
    1278:	0532391e 	ldreq	r3, [r2, #-2334]!	; 0x91e
    127c:	29060000 	stmdbcs	r6, {}	; <UNPREDICTABLE>
    1280:	00000025 	andeq	r0, r0, r5, lsr #32
    1284:	0000128f 	andeq	r1, r0, pc, lsl #5
    1288:	0000913a 	andeq	r9, r0, sl, lsr r1
    128c:	38003b00 	stmdacc	r0, {r8, r9, fp, ip, sp}
    1290:	000001de 	ldrdeq	r0, [r0], -lr
    1294:	3e386606 	cfmsuba32cc	mvax0, mvax6, mvfx8, mvfx6
    1298:	07000002 	streq	r0, [r0, -r2]
    129c:	04813831 	streq	r3, [r1], #2097	; 0x831
    12a0:	32070000 	andcc	r0, r7, #0
    12a4:	0003053c 	andeq	r0, r3, ip, lsr r5
    12a8:	b5500600 	ldrblt	r0, [r0, #-1536]	; 0x600
    12ac:	3a000012 	bcc	12fc <_start-0x6d04>
    12b0:	00000037 	andeq	r0, r0, r7, lsr r0
    12b4:	00f63800 	rscseq	r3, r6, r0, lsl #16
    12b8:	8a060000 	bhi	1812c0 <__bss_end__+0x174fa8>
    12bc:	00018d3c 	andeq	r8, r1, ip, lsr sp
    12c0:	cd5a0800 	ldclgt	8, cr0, [sl, #-0]
    12c4:	3a000012 	bcc	1314 <_start-0x6cec>
    12c8:	00000037 	andeq	r0, r0, r7, lsr r0
    12cc:	041c3900 	ldreq	r3, [ip], #-2304	; 0x900
    12d0:	1b090000 	blne	2412d8 <__bss_end__+0x234fc0>
    12d4:	00000088 	andeq	r0, r0, r8, lsl #1
    12d8:	000012ec 	andeq	r1, r0, ip, ror #5
    12dc:	0000883a 	andeq	r8, r0, sl, lsr r8
    12e0:	00253a00 	eoreq	r3, r5, r0, lsl #20
    12e4:	2c3a0000 	ldccs	0, cr0, [sl], #-0
    12e8:	00000000 	andeq	r0, r0, r0
    12ec:	00005038 	andeq	r5, r0, r8, lsr r0
    12f0:	383a0600 	ldmdacc	sl!, {r9, sl}
    12f4:	00000230 	andeq	r0, r0, r0, lsr r2
    12f8:	233c3307 	teqcs	ip, #469762048	; 0x1c000000
    12fc:	08000004 	stmdaeq	r0, {r2}
    1300:	00130b1d 	andseq	r0, r3, sp, lsl fp
    1304:	00373a00 	eorseq	r3, r7, r0, lsl #20
    1308:	3c000000 	stccc	0, cr0, [r0], {-0}
    130c:	0000039d 	muleq	r0, sp, r3
    1310:	131c1c08 	tstne	ip, #8, 24	; 0x800
    1314:	373a0000 	ldrcc	r0, [sl, -r0]!
    1318:	00000000 	andeq	r0, r0, r0
    131c:	00045d3c 	andeq	r5, r4, ip, lsr sp
    1320:	2d520800 	ldclcs	8, cr0, [r2, #-0]
    1324:	3a000013 	bcc	1378 <_start-0x6c88>
    1328:	00000037 	andeq	r0, r0, r7, lsr r0
    132c:	04383800 	ldrteq	r3, [r8], #-2048	; 0x800
    1330:	8e060000 	cdphi	0, 0, cr0, cr6, cr0, {0}
    1334:	0000db00 	andeq	sp, r0, r0, lsl #22
    1338:	0f000400 	svceq	0x00000400
    133c:	04000003 	streq	r0, [r0], #-3
    1340:	00034001 	andeq	r4, r3, r1
    1344:	04c00100 	strbeq	r0, [r0], #256	; 0x100
    1348:	04ce0000 	strbeq	r0, [lr], #0
    134c:	88700000 	ldmdahi	r0!, {}^	; <UNPREDICTABLE>
    1350:	00200000 	eoreq	r0, r0, r0
    1354:	03db0000 	bicseq	r0, fp, #0
    1358:	01020000 	mrseq	r0, (UNDEF: 2)
    135c:	0002d606 	andeq	sp, r2, r6, lsl #12
    1360:	08010200 	stmdaeq	r1, {r9}
    1364:	000002d4 	ldrdeq	r0, [r0], -r4
    1368:	e9050202 	stmdb	r5, {r1, r9}
    136c:	02000002 	andeq	r0, r0, #2
    1370:	01b40702 			; <UNDEFINED> instruction: 0x01b40702
    1374:	04030000 	streq	r0, [r3], #-0
    1378:	746e6905 	strbtvc	r6, [lr], #-2309	; 0x905
    137c:	07040200 	streq	r0, [r4, -r0, lsl #4]
    1380:	0000006f 	andeq	r0, r0, pc, rrx
    1384:	9c050802 	stcls	8, cr0, [r5], {2}
    1388:	02000000 	andeq	r0, r0, #0
    138c:	00650708 	rsbeq	r0, r5, r8, lsl #14
    1390:	04020000 	streq	r0, [r2], #-0
    1394:	0000a105 	andeq	sl, r0, r5, lsl #2
    1398:	07040200 	streq	r0, [r4, -r0, lsl #4]
    139c:	000001f0 	strdeq	r0, [r0], -r0	; <UNPREDICTABLE>
    13a0:	04020404 	streq	r0, [r2], #-1028	; 0x404
    13a4:	00006a07 	andeq	r6, r0, r7, lsl #20
    13a8:	7a040500 	bvc	1027b0 <__bss_end__+0xf6498>
    13ac:	02000000 	andeq	r0, r0, #0
    13b0:	02dd0801 	sbcseq	r0, sp, #65536	; 0x10000
    13b4:	00060000 	andeq	r0, r6, r0
    13b8:	02000000 	andeq	r0, r0, #0
    13bc:	000048d4 	ldrdeq	r4, [r0], -r4	; <UNPREDICTABLE>
    13c0:	041c0700 	ldreq	r0, [ip], #-1792	; 0x700
    13c4:	1b030000 	blne	c13cc <__bss_end__+0xb50b4>
    13c8:	0000006b 	andeq	r0, r0, fp, rrx
    13cc:	00008870 	andeq	r8, r0, r0, ror r8
    13d0:	00000020 	andeq	r0, r0, r0, lsr #32
    13d4:	5f089c01 	svcpl	0x00089c01
    13d8:	03010070 	movweq	r0, #4208	; 0x1070
    13dc:	0000006b 	andeq	r0, r0, fp, rrx
    13e0:	63085001 	movwvs	r5, #32769	; 0x8001
    13e4:	41030100 	mrsmi	r0, (UNDEF: 19)
    13e8:	01000000 	mrseq	r0, (UNDEF: 0)
    13ec:	006e0951 	rsbeq	r0, lr, r1, asr r9
    13f0:	00810301 	addeq	r0, r1, r1, lsl #6
    13f4:	0a950000 	beq	fe5413fc <__bss_end__+0xfe5350e4>
    13f8:	700a0000 	andvc	r0, sl, r0
    13fc:	74040100 	strvc	r0, [r4], #-256	; 0x100
    1400:	b6000000 	strlt	r0, [r0], -r0
    1404:	0b00000a 	bleq	1434 <_start-0x6bcc>
    1408:	04010065 	streq	r0, [r1], #-101	; 0x65
    140c:	00000074 	andeq	r0, r0, r4, ror r0
    1410:	00005201 	andeq	r5, r0, r1, lsl #4
    1414:	00000191 	muleq	r0, r1, r1
    1418:	03ac0004 			; <UNDEFINED> instruction: 0x03ac0004
    141c:	01040000 	mrseq	r0, (UNDEF: 4)
    1420:	00000340 	andeq	r0, r0, r0, asr #6
    1424:	00052101 	andeq	r2, r5, r1, lsl #2
    1428:	0004ce00 	andeq	ip, r4, r0, lsl #28
    142c:	00889000 	addeq	r9, r8, r0
    1430:	00005800 	andeq	r5, r0, r0, lsl #16
    1434:	0004cb00 	andeq	ip, r4, r0, lsl #22
    1438:	05120200 	ldreq	r0, [r2, #-512]	; 0x200
    143c:	28020000 	stmdacs	r2, {}	; <UNPREDICTABLE>
    1440:	00000030 	andeq	r0, r0, r0, lsr r0
    1444:	00053903 	andeq	r3, r5, r3, lsl #18
    1448:	00030400 	andeq	r0, r3, r0, lsl #8
    144c:	00000047 	andeq	r0, r0, r7, asr #32
    1450:	00054804 	andeq	r4, r5, r4, lsl #16
    1454:	00004700 	andeq	r4, r0, r0, lsl #14
    1458:	05000000 	streq	r0, [r0, #-0]
    145c:	053b0204 	ldreq	r0, [fp, #-516]!	; 0x204
    1460:	62020000 	andvs	r0, r2, #0
    1464:	00000025 	andeq	r0, r0, r5, lsr #32
    1468:	69050406 	stmdbvs	r5, {r1, r2, sl}
    146c:	0700746e 	streq	r7, [r0, -lr, ror #8]
    1470:	006f0704 	rsbeq	r0, pc, r4, lsl #14
    1474:	01070000 	mrseq	r0, (UNDEF: 7)
    1478:	0002d606 	andeq	sp, r2, r6, lsl #12
    147c:	05020700 	streq	r0, [r2, #-1792]	; 0x700
    1480:	000002e9 	andeq	r0, r0, r9, ror #5
    1484:	a1050407 	tstge	r5, r7, lsl #8
    1488:	07000000 	streq	r0, [r0, -r0]
    148c:	009c0508 	addseq	r0, ip, r8, lsl #10
    1490:	01070000 	mrseq	r0, (UNDEF: 7)
    1494:	0002d408 	andeq	sp, r2, r8, lsl #8
    1498:	07020700 	streq	r0, [r2, -r0, lsl #14]
    149c:	000001b4 			; <UNDEFINED> instruction: 0x000001b4
    14a0:	6a070407 	bvs	1c24c4 <__bss_end__+0x1b61ac>
    14a4:	07000000 	streq	r0, [r0, -r0]
    14a8:	00650708 	rsbeq	r0, r5, r8, lsl #14
    14ac:	04070000 	streq	r0, [r7], #-0
    14b0:	0001f007 	andeq	pc, r1, r7
    14b4:	a7040800 	strge	r0, [r4, -r0, lsl #16]
    14b8:	07000000 	streq	r0, [r0, -r0]
    14bc:	02dd0801 	sbcseq	r0, sp, #65536	; 0x10000
    14c0:	04080000 	streq	r0, [r8], #-0
    14c4:	000000b4 	strheq	r0, [r0], -r4
    14c8:	0000a709 	andeq	sl, r0, r9, lsl #14
    14cc:	05320a00 	ldreq	r0, [r2, #-2560]!	; 0xa00
    14d0:	06010000 	streq	r0, [r1], -r0
    14d4:	00000054 	andeq	r0, r0, r4, asr r0
    14d8:	00008890 	muleq	r0, r0, r8
    14dc:	00000058 	andeq	r0, r0, r8, asr r0
    14e0:	01439c01 	cmpeq	r3, r1, lsl #24
    14e4:	660b0000 	strvs	r0, [fp], -r0
    14e8:	0100746d 	tsteq	r0, sp, ror #8
    14ec:	0000ae06 	andeq	sl, r0, r6, lsl #28
    14f0:	70910200 	addsvc	r0, r1, r0, lsl #4
    14f4:	75620d0c 	strbvc	r0, [r2, #-3340]!	; 0xd0c
    14f8:	08010066 	stmdaeq	r1, {r1, r2, r5, r6}
    14fc:	00000143 	andeq	r0, r0, r3, asr #2
    1500:	bf140305 	svclt	0x00140305
    1504:	430e0000 	movwmi	r0, #57344	; 0xe000
    1508:	01000005 	tsteq	r0, r5
    150c:	00004909 	andeq	r4, r0, r9, lsl #18
    1510:	5c910200 	lfmpl	f0, 4, [r1], {0}
    1514:	007a730f 	rsbseq	r7, sl, pc, lsl #6
    1518:	00540c01 	subseq	r0, r4, r1, lsl #24
    151c:	0ae10000 	beq	ff841524 <__bss_end__+0xff83520c>
    1520:	b8100000 	ldmdalt	r0, {}	; <UNPREDICTABLE>
    1524:	74000088 	strvc	r0, [r0], #-136	; 0x88
    1528:	36000001 	strcc	r0, [r0], -r1
    152c:	11000001 	tstne	r0, r1
    1530:	91025301 	tstls	r2, r1, lsl #6
    1534:	5201114c 	andpl	r1, r1, #76, 2
    1538:	06489103 	strbeq	r9, [r8], -r3, lsl #2
    153c:	03510111 	cmpeq	r1, #1073741828	; 0x40000004
    1540:	1104000a 	tstne	r4, sl
    1544:	74025001 	strvc	r5, [r2], #-1
    1548:	cc120000 	ldcgt	0, cr0, [r2], {-0}
    154c:	11000088 	smlabbne	r0, r8, r0, r0
    1550:	74025001 	strvc	r5, [r2], #-1
    1554:	13000000 	movwne	r0, #0
    1558:	000000a7 	andeq	r0, r0, r7, lsr #1
    155c:	00000154 	andeq	r0, r0, r4, asr r1
    1560:	00009a14 	andeq	r9, r0, r4, lsl sl
    1564:	0003ff00 	andeq	pc, r3, r0, lsl #30
    1568:	00005415 	andeq	r5, r0, r5, lsl r4
    156c:	00016300 	andeq	r6, r1, r0, lsl #6
    1570:	00ae1600 	adceq	r1, lr, r0, lsl #12
    1574:	17000000 	strne	r0, [r0, -r0]
    1578:	000005a5 	andeq	r0, r0, r5, lsr #11
    157c:	016e2204 	cmneq	lr, r4, lsl #4
    1580:	04080000 	streq	r0, [r8], #-0
    1584:	00000154 	andeq	r0, r0, r4, asr r1
    1588:	00052f18 	andeq	r2, r5, r8, lsl pc
    158c:	54020500 	strpl	r0, [r2], #-1280	; 0x500
    1590:	16000000 	strne	r0, [r0], -r0
    1594:	000000a1 	andeq	r0, r0, r1, lsr #1
    1598:	00005416 	andeq	r5, r0, r6, lsl r4
    159c:	00ae1600 	adceq	r1, lr, r0, lsl #12
    15a0:	49160000 	ldmdbmi	r6, {}	; <UNPREDICTABLE>
    15a4:	00000000 	andeq	r0, r0, r0
    15a8:	00011300 	andeq	r1, r1, r0, lsl #6
    15ac:	dd000400 	cfstrsle	mvf0, [r0, #-0]
    15b0:	04000004 	streq	r0, [r0], #-4
    15b4:	00034001 	andeq	r4, r3, r1
    15b8:	05740100 	ldrbeq	r0, [r4, #-256]!	; 0x100
    15bc:	04ce0000 	strbeq	r0, [lr], #0
    15c0:	88e80000 	stmiahi	r8!, {}^	; <UNPREDICTABLE>
    15c4:	003c0000 	eorseq	r0, ip, r0
    15c8:	05d10000 	ldrbeq	r0, [r1]
    15cc:	04020000 	streq	r0, [r2], #-0
    15d0:	746e6905 	strbtvc	r6, [lr], #-2309	; 0x905
    15d4:	07040300 	streq	r0, [r4, -r0, lsl #6]
    15d8:	0000006f 	andeq	r0, r0, pc, rrx
    15dc:	d6060103 	strle	r0, [r6], -r3, lsl #2
    15e0:	03000002 	movweq	r0, #2
    15e4:	02e90502 	rsceq	r0, r9, #8388608	; 0x800000
    15e8:	04030000 	streq	r0, [r3], #-0
    15ec:	0000a105 	andeq	sl, r0, r5, lsl #2
    15f0:	05080300 	streq	r0, [r8, #-768]	; 0x300
    15f4:	0000009c 	muleq	r0, ip, r0
    15f8:	d4080103 	strle	r0, [r8], #-259	; 0x103
    15fc:	03000002 	movweq	r0, #2
    1600:	01b40702 			; <UNDEFINED> instruction: 0x01b40702
    1604:	04030000 	streq	r0, [r3], #-0
    1608:	00006a07 	andeq	r6, r0, r7, lsl #20
    160c:	07080300 	streq	r0, [r8, -r0, lsl #6]
    1610:	00000065 	andeq	r0, r0, r5, rrx
    1614:	f0070403 			; <UNDEFINED> instruction: 0xf0070403
    1618:	03000001 	movweq	r0, #1
    161c:	02dd0801 	sbcseq	r0, sp, #65536	; 0x10000
    1620:	57040000 	strpl	r0, [r4, -r0]
    1624:	01000005 	tsteq	r0, r5
    1628:	00002503 	andeq	r2, r0, r3, lsl #10
    162c:	0088e800 	addeq	lr, r8, r0, lsl #16
    1630:	00001400 	andeq	r1, r0, r0, lsl #8
    1634:	b09c0100 	addslt	r0, ip, r0, lsl #2
    1638:	05000000 	streq	r0, [r0, #-0]
    163c:	03010063 	movweq	r0, #4195	; 0x1063
    1640:	00000025 	andeq	r0, r0, r5, lsr #32
    1644:	00000b0a 	andeq	r0, r0, sl, lsl #22
    1648:	0088f406 	addeq	pc, r8, r6, lsl #8
    164c:	00010900 	andeq	r0, r1, r0, lsl #18
    1650:	50010700 	andpl	r0, r1, r0, lsl #14
    1654:	00007402 	andeq	r7, r0, r2, lsl #8
    1658:	014b0800 	cmpeq	fp, r0, lsl #16
    165c:	08010000 	stmdaeq	r1, {}	; <UNPREDICTABLE>
    1660:	000088fc 	strdeq	r8, [r0], -ip
    1664:	00000018 	andeq	r0, r0, r8, lsl r0
    1668:	83099c01 	movwhi	r9, #39937	; 0x9c01
    166c:	01000005 	tsteq	r0, r5
    1670:	0089140b 	addeq	r1, r9, fp, lsl #8
    1674:	00001000 	andeq	r1, r0, r0
    1678:	e39c0100 	orrs	r0, ip, #0, 2
    167c:	0a000000 	beq	1684 <_start-0x697c>
    1680:	01007066 	tsteq	r0, r6, rrx
    1684:	0000f20b 	andeq	pc, r0, fp, lsl #4
    1688:	00500100 	subseq	r0, r0, r0, lsl #2
    168c:	0000250b 	andeq	r2, r0, fp, lsl #10
    1690:	0000f200 	andeq	pc, r0, r0, lsl #4
    1694:	00250c00 	eoreq	r0, r5, r0, lsl #24
    1698:	0d000000 	stceq	0, cr0, [r0, #-0]
    169c:	0000e304 	andeq	lr, r0, r4, lsl #6
    16a0:	05680e00 	strbeq	r0, [r8, #-3584]!	; 0xe00
    16a4:	06010000 	streq	r0, [r1], -r0
    16a8:	000000f2 	strdeq	r0, [r0], -r2
    16ac:	99c80305 	stmibls	r8, {r0, r2, r8, r9}^
    16b0:	4d0f0000 	stcmi	0, cr0, [pc, #-0]	; 16b8 <_start-0x6948>
    16b4:	02000005 	andeq	r0, r0, #5
    16b8:	002c0c3c 	eoreq	r0, ip, ip, lsr ip
    16bc:	00000000 	andeq	r0, r0, r0
    16c0:	000000ee 	andeq	r0, r0, lr, ror #1
    16c4:	05c50004 	strbeq	r0, [r5, #4]
    16c8:	01040000 	mrseq	r0, (UNDEF: 4)
    16cc:	00000340 	andeq	r0, r0, r0, asr #6
    16d0:	00059001 	andeq	r9, r5, r1
    16d4:	0004ce00 	andeq	ip, r4, r0, lsl #28
    16d8:	00892400 	addeq	r2, r9, r0, lsl #8
    16dc:	00003400 	andeq	r3, r0, r0, lsl #8
    16e0:	00065f00 	andeq	r5, r6, r0, lsl #30
    16e4:	05040200 	streq	r0, [r4, #-512]	; 0x200
    16e8:	00746e69 	rsbseq	r6, r4, r9, ror #28
    16ec:	6f070403 	svcvs	0x00070403
    16f0:	03000000 	movweq	r0, #0
    16f4:	02d60601 	sbcseq	r0, r6, #1048576	; 0x100000
    16f8:	02030000 	andeq	r0, r3, #0
    16fc:	0002e905 	andeq	lr, r2, r5, lsl #18
    1700:	05040300 	streq	r0, [r4, #-768]	; 0x300
    1704:	000000a1 	andeq	r0, r0, r1, lsr #1
    1708:	9c050803 	stcls	8, cr0, [r5], {3}
    170c:	03000000 	movweq	r0, #0
    1710:	02d40801 	sbcseq	r0, r4, #65536	; 0x10000
    1714:	02030000 	andeq	r0, r3, #0
    1718:	0001b407 	andeq	fp, r1, r7, lsl #8
    171c:	07040300 	streq	r0, [r4, -r0, lsl #6]
    1720:	0000006a 	andeq	r0, r0, sl, rrx
    1724:	65070803 	strvs	r0, [r7, #-2051]	; 0x803
    1728:	03000000 	movweq	r0, #0
    172c:	01f00704 	mvnseq	r0, r4, lsl #14
    1730:	01030000 	mrseq	r0, (UNDEF: 3)
    1734:	0002dd08 	andeq	sp, r2, r8, lsl #26
    1738:	7f040400 	svcvc	0x00040400
    173c:	05000000 	streq	r0, [r0, #-0]
    1740:	00000072 	andeq	r0, r0, r2, ror r0
    1744:	00059c06 	andeq	r9, r5, r6, lsl #24
    1748:	25040100 	strcs	r0, [r4, #-256]	; 0x100
    174c:	24000000 	strcs	r0, [r0], #-0
    1750:	34000089 	strcc	r0, [r0], #-137	; 0x89
    1754:	01000000 	mrseq	r0, (UNDEF: 0)
    1758:	0000ab9c 	muleq	r0, ip, fp
    175c:	00700700 	rsbseq	r0, r0, r0, lsl #14
    1760:	00790401 	rsbseq	r0, r9, r1, lsl #8
    1764:	0b280000 	bleq	a0176c <__bss_end__+0x9f5454>
    1768:	08000000 	stmdaeq	r0, {}	; <UNPREDICTABLE>
    176c:	00000025 	andeq	r0, r0, r5, lsr #32
    1770:	000000ba 	strheq	r0, [r0], -sl
    1774:	00002509 	andeq	r2, r0, r9, lsl #10
    1778:	680a0000 	stmdavs	sl, {}	; <UNPREDICTABLE>
    177c:	02000005 	andeq	r0, r0, #5
    1780:	0000c51d 	andeq	ip, r0, sp, lsl r5
    1784:	ab040400 	blge	10278c <__bss_end__+0xf6474>
    1788:	08000000 	stmdaeq	r0, {}	; <UNPREDICTABLE>
    178c:	00000025 	andeq	r0, r0, r5, lsr #32
    1790:	000000da 	ldrdeq	r0, [r0], -sl
    1794:	00007909 	andeq	r7, r0, r9, lsl #18
    1798:	a50b0000 	strge	r0, [fp, #-0]
    179c:	01000005 	tsteq	r0, r5
    17a0:	0000eb0c 	andeq	lr, r0, ip, lsl #22
    17a4:	cc030500 	cfstr32gt	mvfx0, [r3], {-0}
    17a8:	04000099 	streq	r0, [r0], #-153	; 0x99
    17ac:	0000cb04 	andeq	ip, r0, r4, lsl #22
    17b0:	06810000 	streq	r0, [r1], r0
    17b4:	00040000 	andeq	r0, r4, r0
    17b8:	0000065e 	andeq	r0, r0, lr, asr r6
    17bc:	03400104 	movteq	r0, #260	; 0x104
    17c0:	d6010000 	strle	r0, [r1], -r0
    17c4:	ce000005 	cdpgt	0, 0, cr0, cr0, cr5, {0}
    17c8:	58000004 	stmdapl	r0, {r2}
    17cc:	f8000089 			; <UNDEFINED> instruction: 0xf8000089
    17d0:	f9000004 			; <UNDEFINED> instruction: 0xf9000004
    17d4:	02000006 	andeq	r0, r0, #6
    17d8:	6e690504 	cdpvs	5, 6, cr0, cr9, cr4, {0}
    17dc:	04030074 	streq	r0, [r3], #-116	; 0x74
    17e0:	00006f07 	andeq	r6, r0, r7, lsl #30
    17e4:	06010300 	streq	r0, [r1], -r0, lsl #6
    17e8:	000002d6 	ldrdeq	r0, [r0], -r6
    17ec:	e9050203 	stmdb	r5, {r0, r1, r9}
    17f0:	03000002 	movweq	r0, #2
    17f4:	00a10504 	adceq	r0, r1, r4, lsl #10
    17f8:	08030000 	stmdaeq	r3, {}	; <UNPREDICTABLE>
    17fc:	00009c05 	andeq	r9, r0, r5, lsl #24
    1800:	08010300 	stmdaeq	r1, {r8, r9}
    1804:	000002d4 	ldrdeq	r0, [r0], -r4
    1808:	b4070203 	strlt	r0, [r7], #-515	; 0x203
    180c:	03000001 	movweq	r0, #1
    1810:	006a0704 	rsbeq	r0, sl, r4, lsl #14
    1814:	08030000 	stmdaeq	r3, {}	; <UNPREDICTABLE>
    1818:	00006507 	andeq	r6, r0, r7, lsl #10
    181c:	07040300 	streq	r0, [r4, -r0, lsl #6]
    1820:	000001f0 	strdeq	r0, [r0], -r0	; <UNPREDICTABLE>
    1824:	04050404 	streq	r0, [r5], #-1028	; 0x404
    1828:	0000007a 	andeq	r0, r0, sl, ror r0
    182c:	dd080103 	stfles	f0, [r8, #-12]
    1830:	05000002 	streq	r0, [r0, #-2]
    1834:	00008704 	andeq	r8, r0, r4, lsl #14
    1838:	007a0600 	rsbseq	r0, sl, r0, lsl #12
    183c:	12070000 	andne	r0, r7, #0
    1840:	02000005 	andeq	r0, r0, #5
    1844:	00009728 	andeq	r9, r0, r8, lsr #14
    1848:	05390800 	ldreq	r0, [r9, #-2048]!	; 0x800
    184c:	04040000 	streq	r0, [r4], #-0
    1850:	0000ae00 	andeq	sl, r0, r0, lsl #28
    1854:	05480900 	strbeq	r0, [r8, #-2304]	; 0x900
    1858:	00720000 	rsbseq	r0, r2, r0
    185c:	00000000 	andeq	r0, r0, r0
    1860:	00053b07 	andeq	r3, r5, r7, lsl #22
    1864:	8c620200 	sfmhi	f0, 2, [r2], #-0
    1868:	0a000000 	beq	1870 <_start-0x6790>
    186c:	000005b8 			; <UNDEFINED> instruction: 0x000005b8
    1870:	00252701 	eoreq	r2, r5, r1, lsl #14
    1874:	89580000 	ldmdbhi	r8, {}^	; <UNPREDICTABLE>
    1878:	00140000 	andseq	r0, r4, r0
    187c:	9c010000 	stcls	0, cr0, [r1], {-0}
    1880:	000000e0 	andeq	r0, r0, r0, ror #1
    1884:	0100630b 	tsteq	r0, fp, lsl #6
    1888:	00002527 	andeq	r2, r0, r7, lsr #10
    188c:	000b4600 	andeq	r4, fp, r0, lsl #12
    1890:	700c0000 	andvc	r0, ip, r0
    1894:	01006461 	tsteq	r0, r1, ror #8
    1898:	0000742e 	andeq	r7, r0, lr, lsr #8
    189c:	00896c00 	addeq	r6, r9, r0, lsl #24
    18a0:	00002c00 	andeq	r2, r0, r0, lsl #24
    18a4:	309c0100 	addscc	r0, ip, r0, lsl #2
    18a8:	0b000001 	bleq	18b4 <_start-0x674c>
    18ac:	2e010070 	mcrcs	0, 0, r0, cr1, cr0, {3}
    18b0:	00000074 	andeq	r0, r0, r4, ror r0
    18b4:	00000b74 	andeq	r0, r0, r4, ror fp
    18b8:	0005c80d 	andeq	ip, r5, sp, lsl #16
    18bc:	742e0100 	strtvc	r0, [lr], #-256	; 0x100
    18c0:	9f000000 	svcls	0x00000000
    18c4:	0e00000b 	cdpeq	0, 0, cr0, cr0, cr11, {0}
    18c8:	000005f6 	strdeq	r0, [r0], -r6
    18cc:	00252e01 	eoreq	r2, r5, r1, lsl #28
    18d0:	52010000 	andpl	r0, r1, #0
    18d4:	6e656c0f 	cdpvs	12, 6, cr6, cr5, cr15, {0}
    18d8:	252f0100 	strcs	r0, [pc, #-256]!	; 17e0 <_start-0x6820>
    18dc:	01000000 	mrseq	r0, (UNDEF: 0)
    18e0:	b00a0051 	andlt	r0, sl, r1, asr r0
    18e4:	01000005 	tsteq	r0, r5
    18e8:	00007437 	andeq	r7, r0, r7, lsr r4
    18ec:	00899800 	addeq	r9, r9, r0, lsl #16
    18f0:	00004000 	andeq	r4, r0, r0
    18f4:	9c9c0100 	ldflss	f0, [ip], {0}
    18f8:	0b000001 	bleq	1904 <_start-0x66fc>
    18fc:	00747364 	rsbseq	r7, r4, r4, ror #6
    1900:	00743701 	rsbseq	r3, r4, r1, lsl #14
    1904:	0bc00000 	bleq	ff00190c <__bss_end__+0xfeff55f4>
    1908:	6e0b0000 	cdpvs	0, 0, cr0, cr11, cr0, {0}
    190c:	25370100 	ldrcs	r0, [r7, #-256]!	; 0x100
    1910:	f8000000 			; <UNDEFINED> instruction: 0xf8000000
    1914:	0b00000b 	bleq	1948 <_start-0x66b8>
    1918:	37010070 	smlsdxcc	r1, r0, r0, r0
    191c:	00000074 	andeq	r0, r0, r4, ror r0
    1920:	00000c19 	andeq	r0, r0, r9, lsl ip
    1924:	0006870d 	andeq	r8, r6, sp, lsl #14
    1928:	74370100 	ldrtvc	r0, [r7], #-256	; 0x100
    192c:	4f000000 	svcmi	0x00000000
    1930:	1000000c 	andne	r0, r0, ip
    1934:	006e656c 	rsbeq	r6, lr, ip, ror #10
    1938:	00253901 	eoreq	r3, r5, r1, lsl #18
    193c:	0c6d0000 	stcleq	0, cr0, [sp], #-0
    1940:	730f0000 	movwvc	r0, #61440	; 0xf000
    1944:	743d0100 	ldrtvc	r0, [sp], #-256	; 0x100
    1948:	01000000 	mrseq	r0, (UNDEF: 0)
    194c:	040a0050 	streq	r0, [sl], #-80	; 0x50
    1950:	01000006 	tsteq	r0, r6
    1954:	00007447 	andeq	r7, r0, r7, asr #8
    1958:	0089d800 	addeq	sp, r9, r0, lsl #16
    195c:	00019c00 	andeq	r9, r1, r0, lsl #24
    1960:	d39c0100 	orrsle	r0, ip, #0, 2
    1964:	0d000002 	stceq	0, cr0, [r0, #-8]
    1968:	000005c8 	andeq	r0, r0, r8, asr #11
    196c:	002c4701 	eoreq	r4, ip, r1, lsl #14
    1970:	0c940000 	ldceq	0, cr0, [r4], {0}
    1974:	640b0000 	strvs	r0, [fp], #-0
    1978:	01007473 	tsteq	r0, r3, ror r4
    197c:	00007447 	andeq	r7, r0, r7, asr #8
    1980:	000cc200 	andeq	ip, ip, r0, lsl #4
    1984:	006e0b00 	rsbeq	r0, lr, r0, lsl #22
    1988:	00254701 	eoreq	r4, r5, r1, lsl #14
    198c:	0d300000 	ldceq	0, cr0, [r0, #-0]
    1990:	760b0000 	strvc	r0, [fp], -r0
    1994:	01006c61 	tsteq	r0, r1, ror #24
    1998:	00002547 	andeq	r2, r0, r7, asr #10
    199c:	000d5c00 	andeq	r5, sp, r0, lsl #24
    19a0:	05f60d00 	ldrbeq	r0, [r6, #3328]!	; 0xd00
    19a4:	47010000 	strmi	r0, [r1, -r0]
    19a8:	00000025 	andeq	r0, r0, r5, lsr #32
    19ac:	00000ddb 	ldrdeq	r0, [r0], -fp
    19b0:	0005cd0e 	andeq	ip, r5, lr, lsl #26
    19b4:	25470100 	strbcs	r0, [r7, #-256]	; 0x100
    19b8:	02000000 	andeq	r0, r0, #0
    19bc:	620f0491 	andvs	r0, pc, #-1862270976	; 0x91000000
    19c0:	01006675 	tsteq	r0, r5, ror r6
    19c4:	0002d34c 	andeq	sp, r2, ip, asr #6
    19c8:	a8910300 	ldmge	r1, {r8, r9}
    19cc:	0070107f 	rsbseq	r1, r0, pc, ror r0
    19d0:	00744c01 	rsbseq	r4, r4, r1, lsl #24
    19d4:	0e050000 	cdpeq	0, 0, cr0, cr5, cr0, {0}
    19d8:	75100000 	ldrvc	r0, [r0, #-0]
    19dc:	2c4d0100 	stfcse	f0, [sp], {-0}
    19e0:	aa000000 	bge	19e8 <_start-0x6618>
    19e4:	1100000e 	tstne	r0, lr
    19e8:	0000019e 	muleq	r0, lr, r1
    19ec:	000002f3 	strdeq	r0, [r0], -r3
    19f0:	9c000305 	stcls	3, cr0, [r0], {5}
    19f4:	44120000 	ldrmi	r0, [r2], #-0
    19f8:	7400008a 	strvc	r0, [r0], #-138	; 0x8a
    19fc:	61000000 	mrsvs	r0, (UNDEF: 0)
    1a00:	13000002 	movwne	r0, #2
    1a04:	000005aa 	andeq	r0, r0, sl, lsr #11
    1a08:	002c5201 	eoreq	r5, ip, r1, lsl #4
    1a0c:	0faf0000 	svceq	0x00af0000
    1a10:	14000000 	strne	r0, [r0], #-0
    1a14:	00008b18 	andeq	r8, r0, r8, lsl fp
    1a18:	00000660 	andeq	r0, r0, r0, ror #12
    1a1c:	008b2c15 	addeq	r2, fp, r5, lsl ip
    1a20:	00066700 	andeq	r6, r6, r0, lsl #14
    1a24:	00029900 	andeq	r9, r2, r0, lsl #18
    1a28:	53011600 	movwpl	r1, #5632	; 0x1600
    1a2c:	16750802 	ldrbtne	r0, [r5], -r2, lsl #16
    1a30:	03055201 	movweq	r5, #20993	; 0x5201
    1a34:	00009c00 	andeq	r9, r0, r0, lsl #24
    1a38:	05510116 	ldrbeq	r0, [r1, #-278]	; 0x116
    1a3c:	009c3803 	addseq	r3, ip, r3, lsl #16
    1a40:	50011600 	andpl	r1, r1, r0, lsl #12
    1a44:	9c240305 	stcls	3, cr0, [r4], #-20	; 0xffffffec
    1a48:	14000000 	strne	r0, [r0], #-0
    1a4c:	00008b30 	andeq	r8, r0, r0, lsr fp
    1a50:	0000067d 	andeq	r0, r0, sp, ror r6
    1a54:	008b3c15 	addeq	r3, fp, r5, lsl ip
    1a58:	0000e000 	andeq	lr, r0, r0
    1a5c:	0002b600 	andeq	fp, r2, r0, lsl #12
    1a60:	51011600 	tstpl	r1, r0, lsl #12
    1a64:	00007d02 	andeq	r7, r0, r2, lsl #26
    1a68:	008b5017 	addeq	r5, fp, r7, lsl r0
    1a6c:	00013000 	andeq	r3, r1, r0
    1a70:	53011600 	movwpl	r1, #5632	; 0x1600
    1a74:	16007d02 	strne	r7, [r0], -r2, lsl #26
    1a78:	74025101 	strvc	r5, [r2], #-257	; 0x101
    1a7c:	50011600 	andpl	r1, r1, r0, lsl #12
    1a80:	00007502 	andeq	r7, r0, r2, lsl #10
    1a84:	007a1800 	rsbseq	r1, sl, r0, lsl #16
    1a88:	02e30000 	rsceq	r0, r3, #0
    1a8c:	6b190000 	blvs	641a94 <__bss_end__+0x63577c>
    1a90:	3f000000 	svccc	0x00000000
    1a94:	007a1800 	rsbseq	r1, sl, r0, lsl #16
    1a98:	02f30000 	rscseq	r0, r3, #0
    1a9c:	6b190000 	blvs	641aa4 <__bss_end__+0x63578c>
    1aa0:	04000000 	streq	r0, [r0], #-0
    1aa4:	02e30600 	rsceq	r0, r3, #0, 12
    1aa8:	e71a0000 	ldr	r0, [sl, -r0]
    1aac:	01000005 	tsteq	r0, r5
    1ab0:	008b741f 	addeq	r7, fp, pc, lsl r4
    1ab4:	00005400 	andeq	r5, r0, r0, lsl #8
    1ab8:	7c9c0100 	ldfvcs	f0, [ip], {0}
    1abc:	0d000003 	stceq	0, cr0, [r0, #-12]
    1ac0:	000005fc 	strdeq	r0, [r0], -ip
    1ac4:	038b1f01 	orreq	r1, fp, #1, 30
    1ac8:	0fdb0000 	svceq	0x00db0000
    1acc:	c00d0000 	andgt	r0, sp, r0
    1ad0:	01000005 	tsteq	r0, r5
    1ad4:	0003a01f 	andeq	sl, r3, pc, lsl r0
    1ad8:	00100700 	andseq	r0, r0, r0, lsl #14
    1adc:	019e1100 	orrseq	r1, lr, r0, lsl #2
    1ae0:	03b60000 			; <UNDEFINED> instruction: 0x03b60000
    1ae4:	03050000 	movweq	r0, #20480	; 0x5000
    1ae8:	00009c08 	andeq	r9, r0, r8, lsl #24
    1aec:	008b8414 	addeq	r8, fp, r4, lsl r4
    1af0:	00066000 	andeq	r6, r6, r0
    1af4:	8b981500 	blhi	fe606efc <__bss_end__+0xfe5fabe4>
    1af8:	06670000 	strbteq	r0, [r7], -r0
    1afc:	03720000 	cmneq	r2, #0
    1b00:	01160000 	tsteq	r6, r0
    1b04:	20080253 	andcs	r0, r8, r3, asr r2
    1b08:	05520116 	ldrbeq	r0, [r2, #-278]	; 0x116
    1b0c:	009c0803 	addseq	r0, ip, r3, lsl #16
    1b10:	51011600 	tstpl	r1, r0, lsl #12
    1b14:	9c380305 	ldcls	3, cr0, [r8], #-20	; 0xffffffec
    1b18:	01160000 	tsteq	r6, r0
    1b1c:	70030550 	andvc	r0, r3, r0, asr r5
    1b20:	0000009c 	muleq	r0, ip, r0
    1b24:	008b9c14 	addeq	r9, fp, r4, lsl ip
    1b28:	00067d00 	andeq	r7, r6, r0, lsl #26
    1b2c:	251b0000 	ldrcs	r0, [fp, #-0]
    1b30:	8b000000 	blhi	1b38 <_start-0x64c8>
    1b34:	1c000003 	stcne	0, cr0, [r0], {3}
    1b38:	00000025 	andeq	r0, r0, r5, lsr #32
    1b3c:	7c040500 	cfstr32vc	mvfx0, [r4], {-0}
    1b40:	1b000003 	blne	1b54 <_start-0x64ac>
    1b44:	00000025 	andeq	r0, r0, r5, lsr #32
    1b48:	000003a0 	andeq	r0, r0, r0, lsr #7
    1b4c:	0000811c 	andeq	r8, r0, ip, lsl r1
    1b50:	04050000 	streq	r0, [r5], #-0
    1b54:	00000391 	muleq	r0, r1, r3
    1b58:	00007a18 	andeq	r7, r0, r8, lsl sl
    1b5c:	0003b600 	andeq	fp, r3, r0, lsl #12
    1b60:	006b1900 	rsbeq	r1, fp, r0, lsl #18
    1b64:	000e0000 	andeq	r0, lr, r0
    1b68:	0003a606 	andeq	sl, r3, r6, lsl #12
    1b6c:	052f1d00 	streq	r1, [pc, #-3328]!	; e74 <_start-0x718c>
    1b70:	7d010000 	stcvc	0, cr0, [r1, #-0]
    1b74:	00000025 	andeq	r0, r0, r5, lsr #32
    1b78:	00008bc8 	andeq	r8, r0, r8, asr #23
    1b7c:	00000288 	andeq	r0, r0, r8, lsl #5
    1b80:	06259c01 	strteq	r9, [r5], -r1, lsl #24
    1b84:	620b0000 	andvs	r0, fp, #0
    1b88:	01006675 	tsteq	r0, r5, ror r6
    1b8c:	0000747d 	andeq	r7, r0, sp, ror r4
    1b90:	00103300 	andseq	r3, r0, r0, lsl #6
    1b94:	006e0b00 	rsbeq	r0, lr, r0, lsl #22
    1b98:	00257d01 	eoreq	r7, r5, r1, lsl #26
    1b9c:	105f0000 	subsne	r0, pc, r0
    1ba0:	660b0000 	strvs	r0, [fp], -r0
    1ba4:	0100746d 	tsteq	r0, sp, ror #8
    1ba8:	0000817d 	andeq	r8, r0, sp, ror r1
    1bac:	00108d00 	andseq	r8, r0, r0, lsl #26
    1bb0:	05430d00 	strbeq	r0, [r3, #-3328]	; 0xd00
    1bb4:	7d010000 	stcvc	0, cr0, [r1, #-0]
    1bb8:	000000ae 	andeq	r0, r0, lr, lsr #1
    1bbc:	000010c1 	andeq	r1, r0, r1, asr #1
    1bc0:	01007010 	tsteq	r0, r0, lsl r0
    1bc4:	0000747e 	andeq	r7, r0, lr, ror r4
    1bc8:	0010d400 	andseq	sp, r0, r0, lsl #8
    1bcc:	00651000 	rsbeq	r1, r5, r0
    1bd0:	00747e01 	rsbseq	r7, r4, r1, lsl #28
    1bd4:	11520000 	cmpne	r2, r0
    1bd8:	9e110000 	cdpls	0, 1, cr0, cr1, cr0, {0}
    1bdc:	35000001 	strcc	r0, [r0, #-1]
    1be0:	05000006 	streq	r0, [r0, #-6]
    1be4:	009c1803 	addseq	r1, ip, r3, lsl #16
    1be8:	00781e00 	rsbseq	r1, r8, r0, lsl #28
    1bec:	73100000 	tstvc	r0, #0
    1bf0:	748b0100 	strvc	r0, [fp], #256	; 0x100
    1bf4:	79000000 	stmdbvc	r0, {}	; <UNPREDICTABLE>
    1bf8:	0f000011 	svceq	0x00000011
    1bfc:	006d756e 	rsbeq	r7, sp, lr, ror #10
    1c00:	063a8b01 	ldrteq	r8, [sl], -r1, lsl #22
    1c04:	91030000 	mrsls	r0, (UNDEF: 3)
    1c08:	f6137ed8 			; <UNDEFINED> instruction: 0xf6137ed8
    1c0c:	01000005 	tsteq	r0, r5
    1c10:	00002c8c 	andeq	r2, r0, ip, lsl #25
    1c14:	0011ce00 	andseq	ip, r1, r0, lsl #28
    1c18:	8c4c1500 	cfstr64hi	mvdx1, [ip], {-0}
    1c1c:	00b90000 	adcseq	r0, r9, r0
    1c20:	047b0000 	ldrbteq	r0, [fp], #-0
    1c24:	01160000 	tsteq	r6, r0
    1c28:	00750250 	rsbseq	r0, r5, r0, asr r2
    1c2c:	8c601400 	cfstrdhi	mvd1, [r0], #-0
    1c30:	06600000 	strbteq	r0, [r0], -r0
    1c34:	74150000 	ldrvc	r0, [r5], #-0
    1c38:	6700008c 	strvs	r0, [r0, -ip, lsl #1]
    1c3c:	b3000006 	movwlt	r0, #6
    1c40:	16000004 	strne	r0, [r0], -r4
    1c44:	08025301 	stmdaeq	r2, {r0, r8, r9, ip, lr}
    1c48:	52011692 	andpl	r1, r1, #153092096	; 0x9200000
    1c4c:	9c180305 	ldcls	3, cr0, [r8], {5}
    1c50:	01160000 	tsteq	r6, r0
    1c54:	38030551 	stmdacc	r3, {r0, r4, r6, r8, sl}
    1c58:	1600009c 			; <UNDEFINED> instruction: 0x1600009c
    1c5c:	03055001 	movweq	r5, #20481	; 0x5001
    1c60:	00009c88 	andeq	r9, r0, r8, lsl #25
    1c64:	8c781400 	cfldrdhi	mvd1, [r8], #-0
    1c68:	067d0000 	ldrbteq	r0, [sp], -r0
    1c6c:	e8140000 	ldmda	r4, {}	; <UNPREDICTABLE>
    1c70:	6000008c 	andvs	r0, r0, ip, lsl #1
    1c74:	15000006 	strne	r0, [r0, #-6]
    1c78:	00008cfc 	strdeq	r8, [r0], -ip
    1c7c:	00000667 	andeq	r0, r0, r7, ror #12
    1c80:	000004f4 	strdeq	r0, [r0], -r4
    1c84:	02530116 	subseq	r0, r3, #-2147483643	; 0x80000005
    1c88:	01169808 	tsteq	r6, r8, lsl #16
    1c8c:	18030552 	stmdane	r3, {r1, r4, r6, r8, sl}
    1c90:	1600009c 			; <UNDEFINED> instruction: 0x1600009c
    1c94:	03055101 	movweq	r5, #20737	; 0x5101
    1c98:	00009c38 	andeq	r9, r0, r8, lsr ip
    1c9c:	05500116 	ldrbeq	r0, [r0, #-278]	; 0x116
    1ca0:	009ca403 	addseq	sl, ip, r3, lsl #8
    1ca4:	00140000 	andseq	r0, r4, r0
    1ca8:	7d00008d 	stcvc	0, cr0, [r0, #-564]	; 0xfffffdcc
    1cac:	15000006 	strne	r0, [r0, #-6]
    1cb0:	00008d24 	andeq	r8, r0, r4, lsr #26
    1cb4:	0000019c 	muleq	r0, ip, r1
    1cb8:	0000052a 	andeq	r0, r0, sl, lsr #10
    1cbc:	02520116 	subseq	r0, r2, #-2147483643	; 0x80000005
    1cc0:	01168008 	tsteq	r6, r8
    1cc4:	d0910351 	addsle	r0, r1, r1, asr r3
    1cc8:	5001167e 	andpl	r1, r1, lr, ror r6
    1ccc:	02163a01 	andseq	r3, r6, #4096	; 0x1000
    1cd0:	3101047d 	tstcc	r1, sp, ror r4
    1cd4:	007d0216 	rsbseq	r0, sp, r6, lsl r2
    1cd8:	00007702 	andeq	r7, r0, r2, lsl #14
    1cdc:	008d4815 	addeq	r4, sp, r5, lsl r8
    1ce0:	00019c00 	andeq	r9, r1, r0, lsl #24
    1ce4:	00055800 	andeq	r5, r5, r0, lsl #16
    1ce8:	52011600 	andpl	r1, r1, #0, 12
    1cec:	16800802 	strne	r0, [r0], r2, lsl #16
    1cf0:	91035101 	tstls	r3, r1, lsl #2
    1cf4:	01167ed0 			; <UNDEFINED> instruction: 0x01167ed0
    1cf8:	163a0150 			; <UNDEFINED> instruction: 0x163a0150
    1cfc:	02047d02 	andeq	r7, r4, #2, 26	; 0x80
    1d00:	0216007b 	andseq	r0, r6, #123	; 0x7b
    1d04:	7702007d 	smlsdxvc	r2, sp, r0, r0
    1d08:	6c150000 	ldcvs	0, cr0, [r5], {-0}
    1d0c:	9c00008d 	stcls	0, cr0, [r0], {141}	; 0x8d
    1d10:	86000001 	strhi	r0, [r0], -r1
    1d14:	16000005 	strne	r0, [r0], -r5
    1d18:	08025201 	stmdaeq	r2, {r0, r9, ip, lr}
    1d1c:	51011680 	smlabbpl	r1, r0, r6, r1
    1d20:	7ed09103 	atnvcs	f1, f3
    1d24:	01500116 	cmpeq	r0, r6, lsl r1
    1d28:	7d021640 	stcvc	6, cr1, [r2, #-256]	; 0xffffff00
    1d2c:	007b0204 	rsbseq	r0, fp, r4, lsl #4
    1d30:	007d0216 	rsbseq	r0, sp, r6, lsl r2
    1d34:	00007702 	andeq	r7, r0, r2, lsl #14
    1d38:	008d9015 	addeq	r9, sp, r5, lsl r0
    1d3c:	00019c00 	andeq	r9, r1, r0, lsl #24
    1d40:	0005b400 	andeq	fp, r5, r0, lsl #8
    1d44:	52011600 	andpl	r1, r1, #0, 12
    1d48:	16800802 	strne	r0, [r0], r2, lsl #16
    1d4c:	91035101 	tstls	r3, r1, lsl #2
    1d50:	01167ed0 			; <UNDEFINED> instruction: 0x01167ed0
    1d54:	16320150 			; <UNDEFINED> instruction: 0x16320150
    1d58:	02047d02 	andeq	r7, r4, #2, 26	; 0x80
    1d5c:	0216007b 	andseq	r0, r6, #123	; 0x7b
    1d60:	7702007d 	smlsdxvc	r2, sp, r0, r0
    1d64:	c0150000 	andsgt	r0, r5, r0
    1d68:	9c00008d 	stcls	0, cr0, [r0], {141}	; 0x8d
    1d6c:	e2000001 	and	r0, r0, #1
    1d70:	16000005 	strne	r0, [r0], -r5
    1d74:	08025201 	stmdaeq	r2, {r0, r9, ip, lr}
    1d78:	51011680 	smlabbpl	r1, r0, r6, r1
    1d7c:	7ed09103 	atnvcs	f1, f3
    1d80:	01500116 	cmpeq	r0, r6, lsl r1
    1d84:	7d021638 	stcvc	6, cr1, [r2, #-224]	; 0xffffff20
    1d88:	007b0204 	rsbseq	r0, fp, r4, lsl #4
    1d8c:	007d0216 	rsbseq	r0, sp, r6, lsl r2
    1d90:	00007702 	andeq	r7, r0, r2, lsl #14
    1d94:	008dc814 	addeq	ip, sp, r4, lsl r8
    1d98:	00066000 	andeq	r6, r6, r0
    1d9c:	8de41500 	cfstr64hi	mvdx1, [r4]
    1da0:	06670000 	strbteq	r0, [r7], -r0
    1da4:	061a0000 	ldreq	r0, [sl], -r0
    1da8:	01160000 	tsteq	r6, r0
    1dac:	b9080253 	stmdblt	r8, {r0, r1, r4, r6, r9}
    1db0:	05520116 	ldrbeq	r0, [r2, #-278]	; 0x116
    1db4:	009c1803 	addseq	r1, ip, r3, lsl #16
    1db8:	51011600 	tstpl	r1, r0, lsl #12
    1dbc:	9c380305 	ldcls	3, cr0, [r8], #-20	; 0xffffffec
    1dc0:	01160000 	tsteq	r6, r0
    1dc4:	cc030550 	cfstr32gt	mvfx0, [r3], {80}	; 0x50
    1dc8:	0000009c 	muleq	r0, ip, r0
    1dcc:	008de814 	addeq	lr, sp, r4, lsl r8
    1dd0:	00067d00 	andeq	r7, r6, r0, lsl #26
    1dd4:	18000000 	stmdane	r0, {}	; <UNPREDICTABLE>
    1dd8:	0000007a 	andeq	r0, r0, sl, ror r0
    1ddc:	00000635 	andeq	r0, r0, r5, lsr r6
    1de0:	00006b19 	andeq	r6, r0, r9, lsl fp
    1de4:	06000900 	streq	r0, [r0], -r0, lsl #18
    1de8:	00000625 	andeq	r0, r0, r5, lsr #12
    1dec:	00007a18 	andeq	r7, r0, r8, lsl sl
    1df0:	00064a00 	andeq	r4, r6, r0, lsl #20
    1df4:	006b1900 	rsbeq	r1, fp, r0, lsl #18
    1df8:	007f0000 	rsbseq	r0, pc, r0
    1dfc:	0005681f 	andeq	r6, r5, pc, lsl r8
    1e00:	8b1d0300 	blhi	742a08 <__bss_end__+0x7366f0>
    1e04:	1f000003 	svcne	0x00000003
    1e08:	000005a5 	andeq	r0, r0, r5, lsr #11
    1e0c:	03a02203 	moveq	r2, #805306368	; 0x30000000
    1e10:	4b200000 	blmi	801e18 <__bss_end__+0x7f5b00>
    1e14:	03000001 	movweq	r0, #1
    1e18:	0532211e 	ldreq	r2, [r2, #-286]!	; 0x11e
    1e1c:	29030000 	stmdbcs	r3, {}	; <UNPREDICTABLE>
    1e20:	00000025 	andeq	r0, r0, r5, lsr #32
    1e24:	0000067d 	andeq	r0, r0, sp, ror r6
    1e28:	0000811c 	andeq	r8, r0, ip, lsl r1
    1e2c:	20002200 	andcs	r2, r0, r0, lsl #4
    1e30:	000001de 	ldrdeq	r0, [r0], -lr
    1e34:	b8006603 	stmdalt	r0, {r0, r1, r9, sl, sp, lr}
    1e38:	04000000 	streq	r0, [r0], #-0
    1e3c:	00083a00 	andeq	r3, r8, r0, lsl #20
    1e40:	40010400 	andmi	r0, r1, r0, lsl #8
    1e44:	01000003 	tsteq	r0, r3
    1e48:	00000617 	andeq	r0, r0, r7, lsl r6
    1e4c:	000004ce 	andeq	r0, r0, lr, asr #9
    1e50:	00008e50 	andeq	r8, r0, r0, asr lr
    1e54:	00000020 	andeq	r0, r0, r0, lsr #32
    1e58:	000008db 	ldrdeq	r0, [r0], -fp
    1e5c:	69050402 	stmdbvs	r5, {r1, sl}
    1e60:	0300746e 	movweq	r7, #1134	; 0x46e
    1e64:	006f0704 	rsbeq	r0, pc, r4, lsl #14
    1e68:	01030000 	mrseq	r0, (UNDEF: 3)
    1e6c:	0002d606 	andeq	sp, r2, r6, lsl #12
    1e70:	05020300 	streq	r0, [r2, #-768]	; 0x300
    1e74:	000002e9 	andeq	r0, r0, r9, ror #5
    1e78:	a1050403 	tstge	r5, r3, lsl #8
    1e7c:	03000000 	movweq	r0, #0
    1e80:	009c0508 	addseq	r0, ip, r8, lsl #10
    1e84:	01030000 	mrseq	r0, (UNDEF: 3)
    1e88:	0002d408 	andeq	sp, r2, r8, lsl #8
    1e8c:	07020300 	streq	r0, [r2, -r0, lsl #6]
    1e90:	000001b4 			; <UNDEFINED> instruction: 0x000001b4
    1e94:	6a070403 	bvs	1c2ea8 <__bss_end__+0x1b6b90>
    1e98:	03000000 	movweq	r0, #0
    1e9c:	00650708 	rsbeq	r0, r5, r8, lsl #14
    1ea0:	04030000 	streq	r0, [r3], #-0
    1ea4:	0001f007 	andeq	pc, r1, r7
    1ea8:	08010300 	stmdaeq	r1, {r8, r9}
    1eac:	000002dd 	ldrdeq	r0, [r0], -sp
    1eb0:	00043804 	andeq	r3, r4, r4, lsl #16
    1eb4:	50030100 	andpl	r0, r3, r0, lsl #2
    1eb8:	1000008e 	andne	r0, r0, lr, lsl #1
    1ebc:	01000000 	mrseq	r0, (UNDEF: 0)
    1ec0:	00009c9c 	muleq	r0, ip, ip
    1ec4:	00720500 	rsbseq	r0, r2, r0, lsl #10
    1ec8:	002c0401 	eoreq	r0, ip, r1, lsl #8
    1ecc:	11f80000 	mvnsne	r0, r0
    1ed0:	06000000 	streq	r0, [r0], -r0
    1ed4:	00000609 	andeq	r0, r0, r9, lsl #12
    1ed8:	8e600c01 	cdphi	12, 6, cr0, cr0, cr1, {0}
    1edc:	00100000 	andseq	r0, r0, r0
    1ee0:	9c010000 	stcls	0, cr0, [r1], {-0}
    1ee4:	01007205 	tsteq	r0, r5, lsl #4
    1ee8:	00002c0d 	andeq	r2, r0, sp, lsl #24
    1eec:	00121c00 	andseq	r1, r2, r0, lsl #24
    1ef0:	ff000000 			; <UNDEFINED> instruction: 0xff000000
    1ef4:	04000000 	streq	r0, [r0], #-0
    1ef8:	0008a500 	andeq	sl, r8, r0, lsl #10
    1efc:	40010400 	andmi	r0, r1, r0, lsl #8
    1f00:	01000003 	tsteq	r0, r3
    1f04:	00000635 	andeq	r0, r0, r5, lsr r6
    1f08:	000004ce 	andeq	r0, r0, lr, asr #9
    1f0c:	00008e70 	andeq	r8, r0, r0, ror lr
    1f10:	00000028 	andeq	r0, r0, r8, lsr #32
    1f14:	00000922 	andeq	r0, r0, r2, lsr #18
    1f18:	69050402 	stmdbvs	r5, {r1, sl}
    1f1c:	0300746e 	movweq	r7, #1134	; 0x46e
    1f20:	006f0704 	rsbeq	r0, pc, r4, lsl #14
    1f24:	01030000 	mrseq	r0, (UNDEF: 3)
    1f28:	0002d606 	andeq	sp, r2, r6, lsl #12
    1f2c:	05020300 	streq	r0, [r2, #-768]	; 0x300
    1f30:	000002e9 	andeq	r0, r0, r9, ror #5
    1f34:	a1050403 	tstge	r5, r3, lsl #8
    1f38:	03000000 	movweq	r0, #0
    1f3c:	009c0508 	addseq	r0, ip, r8, lsl #10
    1f40:	01030000 	mrseq	r0, (UNDEF: 3)
    1f44:	0002d408 	andeq	sp, r2, r8, lsl #8
    1f48:	07020300 	streq	r0, [r2, -r0, lsl #6]
    1f4c:	000001b4 			; <UNDEFINED> instruction: 0x000001b4
    1f50:	6a070403 	bvs	1c2f64 <__bss_end__+0x1b6c4c>
    1f54:	03000000 	movweq	r0, #0
    1f58:	00650708 	rsbeq	r0, r5, r8, lsl #14
    1f5c:	04030000 	streq	r0, [r3], #-0
    1f60:	0001f007 	andeq	pc, r1, r7
    1f64:	08010300 	stmdaeq	r1, {r8, r9}
    1f68:	000002dd 	ldrdeq	r0, [r0], -sp
    1f6c:	007f0404 	rsbseq	r0, pc, r4, lsl #8
    1f70:	72050000 	andvc	r0, r5, #0
    1f74:	06000000 	streq	r0, [r0], -r0
    1f78:	000001de 	ldrdeq	r0, [r0], -lr
    1f7c:	8e700401 	cdphi	4, 7, cr0, cr0, cr1, {0}
    1f80:	00280000 	eoreq	r0, r8, r0
    1f84:	9c010000 	stcls	0, cr0, [r1], {-0}
    1f88:	000000ca 	andeq	r0, r0, sl, asr #1
    1f8c:	008e8407 	addeq	r8, lr, r7, lsl #8
    1f90:	0000ac00 	andeq	sl, r0, r0, lsl #24
    1f94:	50010800 	andpl	r0, r1, r0, lsl #16
    1f98:	9d040305 	stcls	3, cr0, [r4, #-20]	; 0xffffffec
    1f9c:	09000000 	stmdbeq	r0, {}	; <UNPREDICTABLE>
    1fa0:	00008e8c 	andeq	r8, r0, ip, lsl #29
    1fa4:	000000ea 	andeq	r0, r0, sl, ror #1
    1fa8:	000000c0 	andeq	r0, r0, r0, asr #1
    1fac:	02500108 	subseq	r0, r0, #8, 2
    1fb0:	0a006408 	beq	1afd8 <__bss_end__+0xecc0>
    1fb4:	00008e90 	muleq	r0, r0, lr
    1fb8:	000000fb 	strdeq	r0, [r0], -fp
    1fbc:	00250b00 	eoreq	r0, r5, r0, lsl #22
    1fc0:	00d90000 	sbcseq	r0, r9, r0
    1fc4:	790c0000 	stmdbvc	ip, {}	; <UNPREDICTABLE>
    1fc8:	00000000 	andeq	r0, r0, r0
    1fcc:	0005a50d 	andeq	sl, r5, sp, lsl #10
    1fd0:	e4220200 	strt	r0, [r2], #-512	; 0x200
    1fd4:	04000000 	streq	r0, [r0], #-0
    1fd8:	0000ca04 	andeq	ip, r0, r4, lsl #20
    1fdc:	03050e00 	movweq	r0, #24064	; 0x5e00
    1fe0:	50020000 	andpl	r0, r2, r0
    1fe4:	000000fb 	strdeq	r0, [r0], -fp
    1fe8:	00002c0c 	andeq	r2, r0, ip, lsl #24
    1fec:	2a0f0000 	bcs	3c1ff4 <__bss_end__+0x3b5cdc>
    1ff0:	02000006 	andeq	r0, r0, #6
    1ff4:	00ff0063 	rscseq	r0, pc, r3, rrx
    1ff8:	00040000 	andeq	r0, r4, r0
    1ffc:	0000096f 	andeq	r0, r0, pc, ror #18
    2000:	03400104 	movteq	r0, #260	; 0x104
    2004:	4f010000 	svcmi	0x00010000
    2008:	ce000006 	cdpgt	0, 0, cr0, cr0, cr6, {0}
    200c:	98000004 	stmdals	r0, {r2}
    2010:	3400008e 	strcc	r0, [r0], #-142	; 0x8e
    2014:	b9000000 	stmdblt	r0, {}	; <UNPREDICTABLE>
    2018:	02000009 	andeq	r0, r0, #9
    201c:	6e690504 	cdpvs	5, 6, cr0, cr9, cr4, {0}
    2020:	04030074 	streq	r0, [r3], #-116	; 0x74
    2024:	00006f07 	andeq	r6, r0, r7, lsl #30
    2028:	06010300 	streq	r0, [r1], -r0, lsl #6
    202c:	000002d6 	ldrdeq	r0, [r0], -r6
    2030:	e9050203 	stmdb	r5, {r0, r1, r9}
    2034:	03000002 	movweq	r0, #2
    2038:	00a10504 	adceq	r0, r1, r4, lsl #10
    203c:	08030000 	stmdaeq	r3, {}	; <UNPREDICTABLE>
    2040:	00009c05 	andeq	r9, r0, r5, lsl #24
    2044:	08010300 	stmdaeq	r1, {r8, r9}
    2048:	000002d4 	ldrdeq	r0, [r0], -r4
    204c:	b4070203 	strlt	r0, [r7], #-515	; 0x203
    2050:	03000001 	movweq	r0, #1
    2054:	006a0704 	rsbeq	r0, sl, r4, lsl #14
    2058:	08030000 	stmdaeq	r3, {}	; <UNPREDICTABLE>
    205c:	00006507 	andeq	r6, r0, r7, lsl #10
    2060:	07040300 	streq	r0, [r4, -r0, lsl #6]
    2064:	000001f0 	strdeq	r0, [r0], -r0	; <UNPREDICTABLE>
    2068:	dd080103 	stfles	f0, [r8, #-12]
    206c:	04000002 	streq	r0, [r0], #-2
    2070:	00000685 	andeq	r0, r0, r5, lsl #13
    2074:	8e980d01 	cdphi	13, 9, cr0, cr8, cr1, {0}
    2078:	00340000 	eorseq	r0, r4, r0
    207c:	9c010000 	stcls	0, cr0, [r1], {-0}
    2080:	000000d8 	ldrdeq	r0, [r0], -r8
    2084:	00066305 	andeq	r6, r6, r5, lsl #6
    2088:	250e0100 	strcs	r0, [lr, #-256]	; 0x100
    208c:	05000000 	streq	r0, [r0, #-0]
    2090:	00000671 	andeq	r0, r0, r1, ror r6
    2094:	00250e01 	eoreq	r0, r5, r1, lsl #28
    2098:	10060000 	andne	r0, r6, r0
    209c:	01000001 	tsteq	r0, r1
    20a0:	7362070f 	cmnvc	r2, #3932160	; 0x3c0000
    20a4:	11010073 	tstne	r1, r3, ror r0
    20a8:	000000d8 	ldrdeq	r0, [r0], -r8
    20ac:	00001240 	andeq	r1, r0, r0, asr #4
    20b0:	00067d08 	andeq	r7, r6, r8, lsl #26
    20b4:	d8120100 	ldmdale	r2, {r8}
    20b8:	09000000 	stmdbeq	r0, {}	; <UNPREDICTABLE>
    20bc:	00008ec0 	andeq	r8, r0, r0, asr #29
    20c0:	000000f4 	strdeq	r0, [r0], -r4
    20c4:	008ec409 	addeq	ip, lr, r9, lsl #8
    20c8:	0000fb00 	andeq	pc, r0, r0, lsl #22
    20cc:	040a0000 	streq	r0, [sl], #-0
    20d0:	00000025 	andeq	r0, r0, r5, lsr #32
    20d4:	00066305 	andeq	r6, r6, r5, lsl #6
    20d8:	250e0100 	strcs	r0, [lr, #-256]	; 0x100
    20dc:	05000000 	streq	r0, [r0, #-0]
    20e0:	00000671 	andeq	r0, r0, r1, ror r6
    20e4:	00250e01 	eoreq	r0, r5, r1, lsl #28
    20e8:	10060000 	andne	r0, r6, r0
    20ec:	02000001 	andeq	r0, r0, #1
    20f0:	062a06d8 			; <UNDEFINED> instruction: 0x062a06d8
    20f4:	63020000 	movwvs	r0, #8192	; 0x2000
    20f8:	0001ad00 	andeq	sl, r1, r0, lsl #26
    20fc:	03000400 	movweq	r0, #1024	; 0x400
    2100:	0400000a 	streq	r0, [r0], #-10
    2104:	00034001 	andeq	r4, r3, r1
    2108:	06a70100 	strteq	r0, [r7], r0, lsl #2
    210c:	04ce0000 	strbeq	r0, [lr], #0
    2110:	00900000 	addseq	r0, r0, r0
    2114:	00000000 	andeq	r0, r0, r0
    2118:	0a570000 	beq	15c2120 <__bss_end__+0x15b5e08>
    211c:	04020000 	streq	r0, [r2], #-0
    2120:	746e6905 	strbtvc	r6, [lr], #-2309	; 0x905
    2124:	07040300 	streq	r0, [r4, -r0, lsl #6]
    2128:	0000006f 	andeq	r0, r0, pc, rrx
    212c:	d6060103 	strle	r0, [r6], -r3, lsl #2
    2130:	03000002 	movweq	r0, #2
    2134:	02e90502 	rsceq	r0, r9, #8388608	; 0x800000
    2138:	04030000 	streq	r0, [r3], #-0
    213c:	0000a105 	andeq	sl, r0, r5, lsl #2
    2140:	05080300 	streq	r0, [r8, #-768]	; 0x300
    2144:	0000009c 	muleq	r0, ip, r0
    2148:	d4080103 	strle	r0, [r8], #-259	; 0x103
    214c:	03000002 	movweq	r0, #2
    2150:	01b40702 			; <UNDEFINED> instruction: 0x01b40702
    2154:	04030000 	streq	r0, [r3], #-0
    2158:	00006a07 	andeq	r6, r0, r7, lsl #20
    215c:	07080300 	streq	r0, [r8, -r0, lsl #6]
    2160:	00000065 	andeq	r0, r0, r5, rrx
    2164:	f0070403 			; <UNDEFINED> instruction: 0xf0070403
    2168:	03000001 	movweq	r0, #1
    216c:	02dd0801 	sbcseq	r0, sp, #65536	; 0x10000
    2170:	8d040000 	stchi	0, cr0, [r4, #-0]
    2174:	01000006 	tsteq	r0, r6
    2178:	0000250e 	andeq	r2, r0, lr, lsl #10
    217c:	008ecc00 	addeq	ip, lr, r0, lsl #24
    2180:	00001800 	andeq	r1, r0, r0, lsl #16
    2184:	a29c0100 	addsge	r0, ip, #0, 2
    2188:	05000000 	streq	r0, [r0, #-0]
    218c:	000006f9 	strdeq	r0, [r0], -r9
    2190:	002c0f01 	eoreq	r0, ip, r1, lsl #30
    2194:	12600000 	rsbne	r0, r0, #0
    2198:	06000000 	streq	r0, [r0], -r0
    219c:	000006dc 	ldrdeq	r0, [r0], -ip
    21a0:	8ee41701 	cdphi	7, 14, cr1, cr4, cr1, {0}
    21a4:	00140000 	andseq	r0, r4, r0
    21a8:	9c010000 	stcls	0, cr0, [r1], {-0}
    21ac:	000000c7 	andeq	r0, r0, r7, asr #1
    21b0:	0006f905 	andeq	pc, r6, r5, lsl #18
    21b4:	2c180100 	ldfcss	f0, [r8], {-0}
    21b8:	7f000000 	svcvc	0x00000000
    21bc:	00000012 	andeq	r0, r0, r2, lsl r0
    21c0:	00062a06 	andeq	r2, r6, r6, lsl #20
    21c4:	f81f0100 			; <UNDEFINED> instruction: 0xf81f0100
    21c8:	4800008e 	stmdami	r0, {r1, r2, r3, r7}
    21cc:	01000000 	mrseq	r0, (UNDEF: 0)
    21d0:	0001779c 	muleq	r1, ip, r7
    21d4:	06f10700 	ldrbteq	r0, [r1], r0, lsl #14
    21d8:	2a010000 	bcs	421e0 <__bss_end__+0x35ec8>
    21dc:	00000177 	andeq	r0, r0, r7, ror r1
    21e0:	2010001c 	andscs	r0, r0, ip, lsl r0
    21e4:	0006d407 	andeq	sp, r6, r7, lsl #8
    21e8:	772b0100 	strvc	r0, [fp, -r0, lsl #2]!
    21ec:	24000001 	strcs	r0, [r0], #-1
    21f0:	07201000 	streq	r1, [r0, -r0]!
    21f4:	0000069b 	muleq	r0, fp, r6
    21f8:	01772c01 	cmneq	r7, r1, lsl #24
    21fc:	00000000 	andeq	r0, r0, r0
    2200:	bb085a00 	bllt	218a08 <__bss_end__+0x20c6f0>
    2204:	01000006 	tsteq	r0, r6
    2208:	0001772d 	andeq	r7, r1, sp, lsr #14
    220c:	00092000 	andeq	r2, r9, r0
    2210:	7900008f 	stmdbvc	r0, {r0, r1, r2, r3, r7}
    2214:	09000000 	stmdbeq	r0, {}	; <UNPREDICTABLE>
    2218:	00008f0c 	andeq	r8, r0, ip, lsl #30
    221c:	000000a2 	andeq	r0, r0, r2, lsr #1
    2220:	008f140a 	addeq	r1, pc, sl, lsl #8
    2224:	00018d00 	andeq	r8, r1, r0, lsl #26
    2228:	00013a00 	andeq	r3, r1, r0, lsl #20
    222c:	50010b00 	andpl	r0, r1, r0, lsl #22
    2230:	0a004e01 	beq	15a3c <__bss_end__+0x9724>
    2234:	00008f20 	andeq	r8, r0, r0, lsr #30
    2238:	0000019e 	muleq	r0, lr, r1
    223c:	0000015a 	andeq	r0, r0, sl, asr r1
    2240:	0551010b 	ldrbeq	r0, [r1, #-267]	; 0x10b
    2244:	0000010c 	andeq	r0, r0, ip, lsl #2
    2248:	50010b5a 	andpl	r0, r1, sl, asr fp
    224c:	00240c05 	eoreq	r0, r4, r5, lsl #24
    2250:	0c002010 	stceq	0, cr2, [r0], {16}
    2254:	00008f2c 	andeq	r8, r0, ip, lsr #30
    2258:	0000019e 	muleq	r0, lr, r1
    225c:	0551010b 	ldrbeq	r0, [r1, #-267]	; 0x10b
    2260:	0000200c 	andeq	r2, r0, ip
    2264:	50010b5a 	andpl	r0, r1, sl, asr fp
    2268:	001c0c05 	andseq	r0, ip, r5, lsl #24
    226c:	00002010 	andeq	r2, r0, r0, lsl r0
    2270:	0000250d 	andeq	r2, r0, sp, lsl #10
    2274:	06900800 	ldreq	r0, [r0], r0, lsl #16
    2278:	0d010000 	stceq	0, cr0, [r1, #-0]
    227c:	00000188 	andeq	r0, r0, r8, lsl #3
    2280:	002c0d10 	eoreq	r0, ip, r0, lsl sp
    2284:	050e0000 	streq	r0, [lr, #-0]
    2288:	02000003 	andeq	r0, r0, #3
    228c:	00019e50 	andeq	r9, r1, r0, asr lr
    2290:	002c0f00 	eoreq	r0, ip, r0, lsl #30
    2294:	10000000 	andne	r0, r0, r0
    2298:	000006eb 	andeq	r0, r0, fp, ror #13
    229c:	2c0f9c02 	stccs	12, cr9, [pc], {2}
    22a0:	0f000000 	svceq	0x00000000
    22a4:	0000002c 	andeq	r0, r0, ip, lsr #32
    22a8:	01d80000 	bicseq	r0, r8, r0
    22ac:	00040000 	andeq	r0, r4, r0
    22b0:	00000af1 	strdeq	r0, [r0], -r1
    22b4:	03400104 	movteq	r0, #260	; 0x104
    22b8:	1b010000 	blne	422c0 <__bss_end__+0x35fa8>
    22bc:	ce000007 	cdpgt	0, 0, cr0, cr0, cr7, {0}
    22c0:	40000004 	andmi	r0, r0, r4
    22c4:	8800008f 	stmdahi	r0, {r0, r1, r2, r3, r7}
    22c8:	f4000000 	vst4.8	{d0-d3}, [r0], r0
    22cc:	0200000a 	andeq	r0, r0, #10
    22d0:	6e690504 	cdpvs	5, 6, cr0, cr9, cr4, {0}
    22d4:	04030074 	streq	r0, [r3], #-116	; 0x74
    22d8:	00006f07 	andeq	r6, r0, r7, lsl #30
    22dc:	06010300 	streq	r0, [r1], -r0, lsl #6
    22e0:	000002d6 	ldrdeq	r0, [r0], -r6
    22e4:	e9050203 	stmdb	r5, {r0, r1, r9}
    22e8:	03000002 	movweq	r0, #2
    22ec:	00a10504 	adceq	r0, r1, r4, lsl #10
    22f0:	08030000 	stmdaeq	r3, {}	; <UNPREDICTABLE>
    22f4:	00009c05 	andeq	r9, r0, r5, lsl #24
    22f8:	08010300 	stmdaeq	r1, {r8, r9}
    22fc:	000002d4 	ldrdeq	r0, [r0], -r4
    2300:	b4070203 	strlt	r0, [r7], #-515	; 0x203
    2304:	03000001 	movweq	r0, #1
    2308:	006a0704 	rsbeq	r0, sl, r4, lsl #14
    230c:	08030000 	stmdaeq	r3, {}	; <UNPREDICTABLE>
    2310:	00006507 	andeq	r6, r0, r7, lsl #10
    2314:	07040300 	streq	r0, [r4, -r0, lsl #6]
    2318:	000001f0 	strdeq	r0, [r0], -r0	; <UNPREDICTABLE>
    231c:	dd080103 	stfles	f0, [r8, #-12]
    2320:	04000002 	streq	r0, [r0], #-2
    2324:	0000073a 	andeq	r0, r0, sl, lsr r7
    2328:	8f400501 	svchi	0x00400501
    232c:	001c0000 	andseq	r0, ip, r0
    2330:	9c010000 	stcls	0, cr0, [r1], {-0}
    2334:	0000009e 	muleq	r0, lr, r0
    2338:	00073405 	andeq	r3, r7, r5, lsl #8
    233c:	2c050100 	stfcss	f0, [r5], {-0}
    2340:	a9000000 	stmdbge	r0, {}	; <UNPREDICTABLE>
    2344:	00000012 	andeq	r0, r0, r2, lsl r0
    2348:	0006fe06 	andeq	pc, r6, r6, lsl #28
    234c:	2c110100 	ldfcss	f0, [r1], {-0}
    2350:	5c000000 	stcpl	0, cr0, [r0], {-0}
    2354:	1400008f 	strne	r0, [r0], #-143	; 0x8f
    2358:	01000000 	mrseq	r0, (UNDEF: 0)
    235c:	0000cb9c 	muleq	r0, ip, fp
    2360:	8f680700 	svchi	0x00680700
    2364:	01ca0000 	biceq	r0, sl, r0
    2368:	01080000 	mrseq	r0, (UNDEF: 8)
    236c:	040c0550 	streq	r0, [ip], #-1360	; 0x550
    2370:	00200030 	eoreq	r0, r0, r0, lsr r0
    2374:	07500600 	ldrbeq	r0, [r0, -r0, lsl #12]
    2378:	16010000 	strne	r0, [r1], -r0
    237c:	0000002c 	andeq	r0, r0, ip, lsr #32
    2380:	00008f70 	andeq	r8, r0, r0, ror pc
    2384:	0000000c 	andeq	r0, r0, ip
    2388:	00f99c01 	rscseq	r9, r9, r1, lsl #24
    238c:	75090000 	strvc	r0, [r9, #-0]
    2390:	2c1a0100 	ldfcss	f0, [sl], {-0}
    2394:	01000000 	mrseq	r0, (UNDEF: 0)
    2398:	8f780a50 	svchi	0x00780a50
    239c:	009e0000 	addseq	r0, lr, r0
    23a0:	04000000 	streq	r0, [r0], #-0
    23a4:	00000747 	andeq	r0, r0, r7, asr #14
    23a8:	8f7c1f01 	svchi	0x007c1f01
    23ac:	00240000 	eoreq	r0, r4, r0
    23b0:	9c010000 	stcls	0, cr0, [r1], {-0}
    23b4:	00000157 	andeq	r0, r0, r7, asr r1
    23b8:	0073750b 	rsbseq	r7, r3, fp, lsl #10
    23bc:	002c1f01 	eoreq	r1, ip, r1, lsl #30
    23c0:	12dd0000 	sbcsne	r0, sp, #0
    23c4:	72090000 	andvc	r0, r9, #0
    23c8:	20010062 	andcs	r0, r1, r2, rrx
    23cc:	0000002c 	andeq	r0, r0, ip, lsr #32
    23d0:	8c0c5401 	cfstrshi	mvf5, [ip], {1}
    23d4:	1000008f 	andne	r0, r0, pc, lsl #1
    23d8:	4d000000 	stcmi	0, cr0, [r0, #-0]
    23dc:	0d000001 	stceq	0, cr0, [r0, #-4]
    23e0:	01006172 	tsteq	r0, r2, ror r1
    23e4:	00002c22 	andeq	r2, r0, r2, lsr #24
    23e8:	0012fb00 	andseq	pc, r2, r0, lsl #22
    23ec:	8f900a00 	svchi	0x00900a00
    23f0:	00cb0000 	sbceq	r0, fp, r0
    23f4:	0a000000 	beq	23fc <_start-0x5c04>
    23f8:	00008f88 	andeq	r8, r0, r8, lsl #31
    23fc:	000000cb 	andeq	r0, r0, fp, asr #1
    2400:	03050400 	movweq	r0, #21504	; 0x5400
    2404:	28010000 	stmdacs	r1, {}	; <UNPREDICTABLE>
    2408:	00008fa0 	andeq	r8, r0, r0, lsr #31
    240c:	00000014 	andeq	r0, r0, r4, lsl r0
    2410:	01909c01 	orrseq	r9, r0, r1, lsl #24
    2414:	6d0b0000 	stcvs	0, cr0, [fp, #-0]
    2418:	28010073 	stmdacs	r1, {r0, r1, r4, r5, r6}
    241c:	0000002c 	andeq	r0, r0, ip, lsr #32
    2420:	0000130e 	andeq	r1, r0, lr, lsl #6
    2424:	008fb007 	addeq	fp, pc, r7
    2428:	0000f900 	andeq	pc, r0, r0, lsl #18
    242c:	50010800 	andpl	r0, r1, r0, lsl #16
    2430:	5001f307 	andpl	pc, r1, r7, lsl #6
    2434:	1e03e80a 	cdpne	8, 0, cr14, cr3, cr10, {0}
    2438:	11040000 	mrsne	r0, (UNDEF: 4)
    243c:	01000007 	tsteq	r0, r7
    2440:	008fb42b 	addeq	fp, pc, fp, lsr #8
    2444:	00001400 	andeq	r1, r0, r0, lsl #8
    2448:	ca9c0100 	bgt	fe702850 <__bss_end__+0xfe6f6538>
    244c:	0b000001 	bleq	2458 <_start-0x5ba8>
    2450:	00636573 	rsbeq	r6, r3, r3, ror r5
    2454:	002c2b01 	eoreq	r2, ip, r1, lsl #22
    2458:	132f0000 	teqne	pc, #0
    245c:	c4070000 	strgt	r0, [r7], #-0
    2460:	5700008f 	strpl	r0, [r0, -pc, lsl #1]
    2464:	08000001 	stmdaeq	r0, {r0}
    2468:	f3075001 	vhadd.u8	d5, d7, d1
    246c:	e80a5001 	stmda	sl, {r0, ip, lr}
    2470:	00001e03 	andeq	r1, r0, r3, lsl #28
    2474:	00072e0e 	andeq	r2, r7, lr, lsl #28
    2478:	2ca80200 	sfmcs	f0, 4, [r8]
    247c:	0f000000 	svceq	0x00000000
    2480:	0000002c 	andeq	r0, r0, ip, lsr #32
    2484:	08820000 	stmeq	r2, {}	; <UNPREDICTABLE>
    2488:	00040000 	andeq	r0, r4, r0
    248c:	00000bd4 	ldrdeq	r0, [r0], -r4
    2490:	03400104 	movteq	r0, #260	; 0x104
    2494:	a3010000 	movwge	r0, #4096	; 0x1000
    2498:	ce000007 	cdpgt	0, 0, cr0, cr0, cr7, {0}
    249c:	c8000004 	stmdagt	r0, {r2}
    24a0:	a000008f 	andge	r0, r0, pc, lsl #1
    24a4:	9b000005 	blls	24c0 <_start-0x5b40>
    24a8:	0200000b 	andeq	r0, r0, #11
    24ac:	00650708 	rsbeq	r0, r5, r8, lsl #14
    24b0:	04020000 	streq	r0, [r2], #-0
    24b4:	00006f07 	andeq	r6, r0, r7, lsl #30
    24b8:	06010200 	streq	r0, [r1], -r0, lsl #4
    24bc:	000002d6 	ldrdeq	r0, [r0], -r6
    24c0:	e9050202 	stmdb	r5, {r1, r9}
    24c4:	02000002 	andeq	r0, r0, #2
    24c8:	00a10504 	adceq	r0, r1, r4, lsl #10
    24cc:	08020000 	stmdaeq	r2, {}	; <UNPREDICTABLE>
    24d0:	00009c05 	andeq	r9, r0, r5, lsl #24
    24d4:	08010200 	stmdaeq	r1, {r9}
    24d8:	000002d4 	ldrdeq	r0, [r0], -r4
    24dc:	b4070202 	strlt	r0, [r7], #-514	; 0x202
    24e0:	02000001 	andeq	r0, r0, #1
    24e4:	006a0704 	rsbeq	r0, sl, r4, lsl #14
    24e8:	04030000 	streq	r0, [r3], #-0
    24ec:	746e6905 	strbtvc	r6, [lr], #-2309	; 0x905
    24f0:	07040200 	streq	r0, [r4, -r0, lsl #4]
    24f4:	000001f0 	strdeq	r0, [r0], -r0	; <UNPREDICTABLE>
    24f8:	dd080102 	stfles	f0, [r8, #-8]
    24fc:	04000002 	streq	r0, [r0], #-2
    2500:	b20c0201 	andlt	r0, ip, #268435456	; 0x10000000
    2504:	05000000 	streq	r0, [r0, #-0]
    2508:	00000793 	muleq	r0, r3, r7
    250c:	085c0500 	ldmdaeq	ip, {r8, sl}^
    2510:	05010000 	streq	r0, [r1, #-0]
    2514:	0000087f 	andeq	r0, r0, pc, ror r8
    2518:	088e0504 	stmeq	lr, {r2, r8, sl}
    251c:	05050000 	streq	r0, [r5, #-0]
    2520:	0000089d 	muleq	r0, sp, r8
    2524:	08ac0506 	stmiaeq	ip!, {r1, r2, r8, sl}
    2528:	05070000 	streq	r0, [r7, #-0]
    252c:	000008bb 			; <UNDEFINED> instruction: 0x000008bb
    2530:	08ca0503 	stmiaeq	sl, {r0, r1, r8, sl}^
    2534:	00020000 	andeq	r0, r2, r0
    2538:	00087306 	andeq	r7, r8, r6, lsl #6
    253c:	79150200 	ldmdbvc	r5, {r9}
    2540:	07000000 	streq	r0, [r0, -r0]
    2544:	00000423 	andeq	r0, r0, r3, lsr #8
    2548:	8fc83f01 	svchi	0x00c83f01
    254c:	00d40000 	sbcseq	r0, r4, r0
    2550:	9c010000 	stcls	0, cr0, [r1], {-0}
    2554:	00000133 	andeq	r0, r0, r3, lsr r1
    2558:	6e697008 	cdpvs	0, 6, cr7, cr9, cr8, {0}
    255c:	2c3f0100 	ldfcss	f0, [pc], #-0	; 2564 <_start-0x5a9c>
    2560:	50000000 	andpl	r0, r0, r0
    2564:	09000013 	stmdbeq	r0, {r0, r1, r4}
    2568:	000007c3 	andeq	r0, r0, r3, asr #15
    256c:	01334701 	teqeq	r3, r1, lsl #14
    2570:	136e0000 	cmnne	lr, #0
    2574:	d9090000 	stmdble	r9, {}	; <UNPREDICTABLE>
    2578:	01000008 	tsteq	r0, r8
    257c:	00002c49 	andeq	r2, r0, r9, asr #24
    2580:	0013c300 	andseq	ip, r3, r0, lsl #6
    2584:	08270900 	stmdaeq	r7!, {r8, fp}
    2588:	57010000 	strpl	r0, [r1, -r0]
    258c:	0000002c 	andeq	r0, r0, ip, lsr #32
    2590:	0000158f 	andeq	r1, r0, pc, lsl #11
    2594:	00905c0a 	addseq	r5, r0, sl, lsl #24
    2598:	00084100 	andeq	r4, r8, r0, lsl #2
    259c:	00012200 	andeq	r2, r1, r0, lsl #4
    25a0:	50010b00 	andpl	r0, r1, r0, lsl #22
    25a4:	00007502 	andeq	r7, r0, r2, lsl #10
    25a8:	0090900c 	addseq	r9, r0, ip
    25ac:	00086200 	andeq	r6, r8, r0, lsl #4
    25b0:	50010b00 	andpl	r0, r1, r0, lsl #22
    25b4:	00007502 	andeq	r7, r0, r2, lsl #10
    25b8:	39040d00 	stmdbcc	r4, {r8, sl, fp}
    25bc:	0e000001 	cdpeq	0, 0, cr0, cr0, cr1, {0}
    25c0:	0000002c 	andeq	r0, r0, ip, lsr #32
    25c4:	00008707 	andeq	r8, r0, r7, lsl #14
    25c8:	9c600100 	stflse	f0, [r0], #-0
    25cc:	38000090 	stmdacc	r0, {r4, r7}
    25d0:	01000000 	mrseq	r0, (UNDEF: 0)
    25d4:	0001969c 	muleq	r1, ip, r6
    25d8:	69700800 	ldmdbvs	r0!, {fp}^
    25dc:	6001006e 	andvs	r0, r1, lr, rrx
    25e0:	0000002c 	andeq	r0, r0, ip, lsr #32
    25e4:	000015bf 			; <UNDEFINED> instruction: 0x000015bf
    25e8:	0007c309 	andeq	ip, r7, r9, lsl #6
    25ec:	33670100 	cmncc	r7, #0, 2
    25f0:	e0000001 	and	r0, r0, r1
    25f4:	09000015 	stmdbeq	r0, {r0, r2, r4}
    25f8:	00000827 	andeq	r0, r0, r7, lsr #16
    25fc:	002c6801 	eoreq	r6, ip, r1, lsl #16
    2600:	16160000 	ldrne	r0, [r6], -r0
    2604:	cc0c0000 	stcgt	0, cr0, [ip], {-0}
    2608:	62000090 	andvs	r0, r0, #144	; 0x90
    260c:	0b000008 	bleq	2634 <_start-0x59cc>
    2610:	31075101 	tstcc	r7, r1, lsl #2
    2614:	4f5001f3 	svcmi	0x005001f3
    2618:	0000241a 	andeq	r2, r0, sl, lsl r4
    261c:	00011d07 	andeq	r1, r1, r7, lsl #26
    2620:	d47b0100 	ldrbtle	r0, [fp], #-256	; 0x100
    2624:	38000090 	stmdacc	r0, {r4, r7}
    2628:	01000000 	mrseq	r0, (UNDEF: 0)
    262c:	0001ee9c 	muleq	r1, ip, lr
    2630:	69700800 	ldmdbvs	r0!, {fp}^
    2634:	7b01006e 	blvc	427f4 <__bss_end__+0x364dc>
    2638:	0000002c 	andeq	r0, r0, ip, lsr #32
    263c:	00001656 	andeq	r1, r0, r6, asr r6
    2640:	0007c309 	andeq	ip, r7, r9, lsl #6
    2644:	33810100 	orrcc	r0, r1, #0, 2
    2648:	77000001 	strvc	r0, [r0, -r1]
    264c:	09000016 	stmdbeq	r0, {r1, r2, r4}
    2650:	00000827 	andeq	r0, r0, r7, lsr #16
    2654:	002c8201 	eoreq	r8, ip, r1, lsl #4
    2658:	16ad0000 	strtne	r0, [sp], r0
    265c:	040c0000 	streq	r0, [ip], #-0
    2660:	62000091 	andvs	r0, r0, #145	; 0x91
    2664:	0b000008 	bleq	268c <_start-0x5974>
    2668:	31075101 	tstcc	r7, r1, lsl #2
    266c:	4f5001f3 	svcmi	0x005001f3
    2670:	0000241a 	andeq	r2, r0, sl, lsl r4
    2674:	00039d07 	andeq	r9, r3, r7, lsl #26
    2678:	0c950100 	ldfeqs	f0, [r5], {0}
    267c:	cc000091 	stcgt	0, cr0, [r0], {145}	; 0x91
    2680:	01000000 	mrseq	r0, (UNDEF: 0)
    2684:	0002649c 	muleq	r2, ip, r4
    2688:	69700800 	ldmdbvs	r0!, {fp}^
    268c:	9501006e 	strls	r0, [r1, #-110]	; 0x6e
    2690:	0000002c 	andeq	r0, r0, ip, lsr #32
    2694:	000016ed 	andeq	r1, r0, sp, ror #13
    2698:	0007c309 	andeq	ip, r7, r9, lsl #6
    269c:	339b0100 	orrscc	r0, fp, #0, 2
    26a0:	0b000001 	bleq	26ac <_start-0x5954>
    26a4:	09000017 	stmdbeq	r0, {r0, r1, r2, r4}
    26a8:	000008d9 	ldrdeq	r0, [r0], -r9
    26ac:	002c9d01 	eoreq	r9, ip, r1, lsl #26
    26b0:	17600000 	strbne	r0, [r0, -r0]!
    26b4:	27090000 	strcs	r0, [r9, -r0]
    26b8:	01000008 	tsteq	r0, r8
    26bc:	00002cab 	andeq	r2, r0, fp, lsr #25
    26c0:	00192c00 	andseq	r2, r9, r0, lsl #24
    26c4:	91a00a00 	lslls	r0, r0, #20
    26c8:	08410000 	stmdaeq	r1, {}^	; <UNPREDICTABLE>
    26cc:	02530000 	subseq	r0, r3, #0
    26d0:	010b0000 	mrseq	r0, (UNDEF: 11)
    26d4:	00750250 	rsbseq	r0, r5, r0, asr r2
    26d8:	91cc0c00 	bicls	r0, ip, r0, lsl #24
    26dc:	08620000 	stmdaeq	r2!, {}^	; <UNPREDICTABLE>
    26e0:	010b0000 	mrseq	r0, (UNDEF: 11)
    26e4:	00750250 	rsbseq	r0, r5, r0, asr r2
    26e8:	cc0f0000 	stcgt	0, cr0, [pc], {-0}
    26ec:	01000007 	tsteq	r0, r7
    26f0:	000064b2 			; <UNDEFINED> instruction: 0x000064b2
    26f4:	0091d800 	addseq	sp, r1, r0, lsl #16
    26f8:	00004c00 	andeq	r4, r0, r0, lsl #24
    26fc:	ac9c0100 	ldfges	f0, [ip], {0}
    2700:	08000002 	stmdaeq	r0, {r1}
    2704:	006e6970 	rsbeq	r6, lr, r0, ror r9
    2708:	002cb201 	eoreq	fp, ip, r1, lsl #4
    270c:	194a0000 	stmdbne	sl, {}^	; <UNPREDICTABLE>
    2710:	76100000 	ldrvc	r0, [r0], -r0
    2714:	2cb80100 	ldfcss	f0, [r8]
    2718:	a2000000 	andge	r0, r0, #0
    271c:	11000019 	tstne	r0, r9, lsl r0
    2720:	000091f8 	strdeq	r9, [r0], -r8
    2724:	00000841 	andeq	r0, r0, r1, asr #16
    2728:	00920811 	addseq	r0, r2, r1, lsl r8
    272c:	00084100 	andeq	r4, r8, r0, lsl #2
    2730:	34070000 	strcc	r0, [r7], #-0
    2734:	01000000 	mrseq	r0, (UNDEF: 0)
    2738:	009224c4 	addseq	r2, r2, r4, asr #9
    273c:	00002400 	andeq	r2, r0, r0, lsl #8
    2740:	fc9c0100 	ldc2	1, cr0, [ip], {0}
    2744:	08000002 	stmdaeq	r0, {r1}
    2748:	006e6970 	rsbeq	r6, lr, r0, ror r9
    274c:	002cc401 	eoreq	ip, ip, r1, lsl #8
    2750:	19d80000 	ldmibne	r8, {}^	; <UNPREDICTABLE>
    2754:	76080000 	strvc	r0, [r8], -r0
    2758:	2cc40100 	stfcse	f0, [r4], {0}
    275c:	12000000 	andne	r0, r0, #0
    2760:	0a00001a 	beq	27d0 <_start-0x5830>
    2764:	0000923c 	andeq	r9, r0, ip, lsr r2
    2768:	0000013e 	andeq	r0, r0, lr, lsr r1
    276c:	000002f2 	strdeq	r0, [r0], -r2
    2770:	0350010b 	cmpeq	r0, #-1073741822	; 0xc0000002
    2774:	005001f3 	ldrsheq	r0, [r0], #-19	; 0xffffffed
    2778:	00924411 	addseq	r4, r2, r1, lsl r4
    277c:	00019600 	andeq	r9, r1, r0, lsl #12
    2780:	eb070000 	bl	1c2788 <__bss_end__+0x1b6470>
    2784:	01000007 	tsteq	r0, r7
    2788:	009248d0 			; <UNDEFINED> instruction: 0x009248d0
    278c:	0000d800 	andeq	sp, r0, r0, lsl #16
    2790:	819c0100 	orrshi	r0, ip, r0, lsl #2
    2794:	08000003 	stmdaeq	r0, {r0, r1}
    2798:	006e6970 	rsbeq	r6, lr, r0, ror r9
    279c:	002cd001 	eoreq	sp, ip, r1
    27a0:	1a4c0000 	bne	13027a8 <__bss_end__+0x12f6490>
    27a4:	2f120000 	svccs	0x00120000
    27a8:	01000008 	tsteq	r0, r8
    27ac:	0000b2d0 	ldrdeq	fp, [r0], -r0
    27b0:	001a6a00 	andseq	r6, sl, r0, lsl #20
    27b4:	07c30900 	strbeq	r0, [r3, r0, lsl #18]
    27b8:	d8010000 	stmdale	r1, {}	; <UNPREDICTABLE>
    27bc:	00000133 	andeq	r0, r0, r3, lsr r1
    27c0:	00001a8b 	andeq	r1, r0, fp, lsl #21
    27c4:	0008d909 	andeq	sp, r8, r9, lsl #18
    27c8:	2cd90100 	ldfcse	f0, [r9], {0}
    27cc:	e0000000 	and	r0, r0, r0
    27d0:	0900001a 	stmdbeq	r0, {r1, r3, r4}
    27d4:	00000827 	andeq	r0, r0, r7, lsr #16
    27d8:	002ce701 	eoreq	lr, ip, r1, lsl #14
    27dc:	1cac0000 	stcne	0, cr0, [ip]
    27e0:	e40a0000 	str	r0, [sl], #-0
    27e4:	41000092 	swpmi	r0, r2, [r0]	; <UNPREDICTABLE>
    27e8:	70000008 	andvc	r0, r0, r8
    27ec:	0b000003 	bleq	2800 <_start-0x5800>
    27f0:	76025001 	strvc	r5, [r2], -r1
    27f4:	140c0000 	strne	r0, [ip], #-0
    27f8:	62000093 	andvs	r0, r0, #147	; 0x93
    27fc:	0b000008 	bleq	2824 <_start-0x57dc>
    2800:	76025001 	strvc	r5, [r2], -r1
    2804:	07000000 	streq	r0, [r0, -r0]
    2808:	00000834 	andeq	r0, r0, r4, lsr r8
    280c:	9320f001 	yieldls
    2810:	00380000 	eorseq	r0, r8, r0
    2814:	9c010000 	stcls	0, cr0, [r1], {-0}
    2818:	000003d9 	ldrdeq	r0, [r0], -r9
    281c:	6e697008 	cdpvs	0, 6, cr7, cr9, cr8, {0}
    2820:	2cf00100 	ldfcse	f0, [r0]
    2824:	dd000000 	stcle	0, cr0, [r0, #-0]
    2828:	0900001c 	stmdbeq	r0, {r2, r3, r4}
    282c:	000007c3 	andeq	r0, r0, r3, asr #15
    2830:	0133f601 	teqeq	r3, r1, lsl #12
    2834:	1cfe0000 	ldclne	0, cr0, [lr]
    2838:	27090000 	strcs	r0, [r9, -r0]
    283c:	01000008 	tsteq	r0, r8
    2840:	00002cf7 	strdeq	r2, [r0], -r7
    2844:	001d3400 	andseq	r3, sp, r0, lsl #8
    2848:	93500c00 	cmpls	r0, #0, 24
    284c:	08620000 	stmdaeq	r2!, {}^	; <UNPREDICTABLE>
    2850:	010b0000 	mrseq	r0, (UNDEF: 11)
    2854:	f3310751 	vaba.u<illegal width 64>	q0, <illegal reg q0.5>, <illegal reg q0.5>
    2858:	1a4f5001 	bne	13d6864 <__bss_end__+0x13ca54c>
    285c:	13000024 	movwne	r0, #36	; 0x24
    2860:	00000787 	andeq	r0, r0, r7, lsl #15
    2864:	64011e01 	strvs	r1, [r1], #-3585	; 0xe01
    2868:	58000000 	stmdapl	r0, {}	; <UNPREDICTABLE>
    286c:	2c000093 	stccs	0, cr0, [r0], {147}	; 0x93
    2870:	01000000 	mrseq	r0, (UNDEF: 0)
    2874:	00040d9c 	muleq	r4, ip, sp
    2878:	078a1400 	streq	r1, [sl, r0, lsl #8]
    287c:	1e010000 	cdpne	0, 0, cr0, cr1, cr0, {0}
    2880:	00002c01 	andeq	r2, r0, r1, lsl #24
    2884:	001d7400 	andseq	r7, sp, r0, lsl #8
    2888:	93681100 	cmnls	r8, #0, 2
    288c:	08410000 	stmdaeq	r1, {}^	; <UNPREDICTABLE>
    2890:	15000000 	strne	r0, [r0, #-0]
    2894:	000007d6 	ldrdeq	r0, [r0], -r6
    2898:	84012d01 	strhi	r2, [r1], #-3329	; 0xd01
    289c:	84000093 	strhi	r0, [r0], #-147	; 0x93
    28a0:	01000000 	mrseq	r0, (UNDEF: 0)
    28a4:	0004d19c 	muleq	r4, ip, r1
    28a8:	69701600 	ldmdbvs	r0!, {r9, sl, ip}^
    28ac:	2d01006e 	stccs	0, cr0, [r1, #-440]	; 0xfffffe48
    28b0:	00002c01 	andeq	r2, r0, r1, lsl #24
    28b4:	001d9500 	andseq	r9, sp, r0, lsl #10
    28b8:	07b11700 	ldreq	r1, [r1, r0, lsl #14]!
    28bc:	3f010000 	svccc	0x00010000
    28c0:	00002c01 	andeq	r2, r0, r1, lsl #24
    28c4:	001dc100 	andseq	ip, sp, r0, lsl #2
    28c8:	93a01800 	movls	r1, #0, 16
    28cc:	001c0000 	andseq	r0, ip, r0
    28d0:	04730000 	ldrbteq	r0, [r3], #-0
    28d4:	27170000 	ldrcs	r0, [r7, -r0]
    28d8:	01000008 	tsteq	r0, r8
    28dc:	002c0136 	eoreq	r0, ip, r6, lsr r1
    28e0:	1ddf0000 	ldclne	0, cr0, [pc]	; 28e8 <_start-0x5718>
    28e4:	ac110000 	ldcge	0, cr0, [r1], {-0}
    28e8:	41000093 	swpmi	r0, r3, [r0]	; <UNPREDICTABLE>
    28ec:	11000008 	tstne	r0, r8
    28f0:	000093bc 			; <UNDEFINED> instruction: 0x000093bc
    28f4:	00000862 	andeq	r0, r0, r2, ror #16
    28f8:	93c01800 	bicls	r1, r0, #0, 16
    28fc:	00200000 	eoreq	r0, r0, r0
    2900:	04a30000 	strteq	r0, [r3], #0
    2904:	27170000 	ldrcs	r0, [r7, -r0]
    2908:	01000008 	tsteq	r0, r8
    290c:	002c013a 	eoreq	r0, ip, sl, lsr r1
    2910:	1dfd0000 	ldclne	0, cr0, [sp]
    2914:	cc110000 	ldcgt	0, cr0, [r1], {-0}
    2918:	41000093 	swpmi	r0, r3, [r0]	; <UNPREDICTABLE>
    291c:	11000008 	tstne	r0, r8
    2920:	000093e0 	andeq	r9, r0, r0, ror #7
    2924:	00000862 	andeq	r0, r0, r2, ror #16
    2928:	93981100 	orrsls	r1, r8, #0, 2
    292c:	087e0000 	ldmdaeq	lr!, {}^	; <UNPREDICTABLE>
    2930:	e4110000 	ldr	r0, [r1], #-0
    2934:	7e000093 	mcrvc	0, 0, r0, cr0, cr3, {4}
    2938:	11000008 	tstne	r0, r8
    293c:	000093f0 	strdeq	r9, [r0], -r0
    2940:	00000841 	andeq	r0, r0, r1, asr #16
    2944:	0093fc11 	addseq	pc, r3, r1, lsl ip	; <UNPREDICTABLE>
    2948:	00086200 	andeq	r6, r8, r0, lsl #4
    294c:	94001100 	strls	r1, [r0], #-256	; 0x100
    2950:	087e0000 	ldmdaeq	lr!, {}^	; <UNPREDICTABLE>
    2954:	15000000 	strne	r0, [r0, #-0]
    2958:	0000045d 	andeq	r0, r0, sp, asr r4
    295c:	08014a01 	stmdaeq	r1, {r0, r9, fp, lr}
    2960:	84000094 	strhi	r0, [r0], #-148	; 0x94
    2964:	01000000 	mrseq	r0, (UNDEF: 0)
    2968:	0005959c 	muleq	r5, ip, r5
    296c:	69701600 	ldmdbvs	r0!, {r9, sl, ip}^
    2970:	4a01006e 	bmi	42b30 <__bss_end__+0x36818>
    2974:	00002c01 	andeq	r2, r0, r1, lsl #24
    2978:	001e1b00 	andseq	r1, lr, r0, lsl #22
    297c:	07b11700 	ldreq	r1, [r1, r0, lsl #14]!
    2980:	5b010000 	blpl	42988 <__bss_end__+0x36670>
    2984:	00002c01 	andeq	r2, r0, r1, lsl #24
    2988:	001e4700 	andseq	r4, lr, r0, lsl #14
    298c:	94241800 	strtls	r1, [r4], #-2048	; 0x800
    2990:	001c0000 	andseq	r0, ip, r0
    2994:	05370000 	ldreq	r0, [r7, #-0]!
    2998:	27170000 	ldrcs	r0, [r7, -r0]
    299c:	01000008 	tsteq	r0, r8
    29a0:	002c0152 	eoreq	r0, ip, r2, asr r1
    29a4:	1e650000 	cdpne	0, 6, cr0, cr5, cr0, {0}
    29a8:	30110000 	andscc	r0, r1, r0
    29ac:	41000094 	swpmi	r0, r4, [r0]	; <UNPREDICTABLE>
    29b0:	11000008 	tstne	r0, r8
    29b4:	00009440 	andeq	r9, r0, r0, asr #8
    29b8:	00000862 	andeq	r0, r0, r2, ror #16
    29bc:	94441800 	strbls	r1, [r4], #-2048	; 0x800
    29c0:	00200000 	eoreq	r0, r0, r0
    29c4:	05670000 	strbeq	r0, [r7, #-0]!
    29c8:	27170000 	ldrcs	r0, [r7, -r0]
    29cc:	01000008 	tsteq	r0, r8
    29d0:	002c0156 	eoreq	r0, ip, r6, asr r1
    29d4:	1e830000 	cdpne	0, 8, cr0, cr3, cr0, {0}
    29d8:	50110000 	andspl	r0, r1, r0
    29dc:	41000094 	swpmi	r0, r4, [r0]	; <UNPREDICTABLE>
    29e0:	11000008 	tstne	r0, r8
    29e4:	00009464 	andeq	r9, r0, r4, ror #8
    29e8:	00000862 	andeq	r0, r0, r2, ror #16
    29ec:	941c1100 	ldrls	r1, [ip], #-256	; 0x100
    29f0:	087e0000 	ldmdaeq	lr!, {}^	; <UNPREDICTABLE>
    29f4:	68110000 	ldmdavs	r1, {}	; <UNPREDICTABLE>
    29f8:	7e000094 	mcrvc	0, 0, r0, cr0, cr4, {4}
    29fc:	11000008 	tstne	r0, r8
    2a00:	00009474 	andeq	r9, r0, r4, ror r4
    2a04:	00000841 	andeq	r0, r0, r1, asr #16
    2a08:	00948011 	addseq	r8, r4, r1, lsl r0
    2a0c:	00086200 	andeq	r6, r8, r0, lsl #4
    2a10:	94841100 	strls	r1, [r4], #256	; 0x100
    2a14:	087e0000 	ldmdaeq	lr!, {}^	; <UNPREDICTABLE>
    2a18:	13000000 	movwne	r0, #0
    2a1c:	0000075f 	andeq	r0, r0, pc, asr r7
    2a20:	64016501 	strvs	r6, [r1], #-1281	; 0x501
    2a24:	8c000000 	stchi	0, cr0, [r0], {-0}
    2a28:	84000094 	strhi	r0, [r0], #-148	; 0x94
    2a2c:	01000000 	mrseq	r0, (UNDEF: 0)
    2a30:	00063b9c 	muleq	r6, ip, fp
    2a34:	69701600 	ldmdbvs	r0!, {r9, sl, ip}^
    2a38:	6501006e 	strvs	r0, [r1, #-110]	; 0x6e
    2a3c:	00002c01 	andeq	r2, r0, r1, lsl #24
    2a40:	001ea100 	andseq	sl, lr, r0, lsl #2
    2a44:	94a81800 	strtls	r1, [r8], #2048	; 0x800
    2a48:	00240000 	eoreq	r0, r4, r0
    2a4c:	05ef0000 	strbeq	r0, [pc, #0]!	; 2a54 <_start-0x55ac>
    2a50:	ba170000 	blt	5c2a58 <__bss_end__+0x5b6740>
    2a54:	01000007 	tsteq	r0, r7
    2a58:	002c016c 	eoreq	r0, ip, ip, ror #2
    2a5c:	1ee30000 	cdpne	0, 14, cr0, cr3, cr0, {0}
    2a60:	b4110000 	ldrlt	r0, [r1], #-0
    2a64:	41000094 	swpmi	r0, r4, [r0]	; <UNPREDICTABLE>
    2a68:	11000008 	tstne	r0, r8
    2a6c:	000094c4 	andeq	r9, r0, r4, asr #9
    2a70:	0000087e 	andeq	r0, r0, lr, ror r8
    2a74:	94cc1800 	strbls	r1, [ip], #2048	; 0x800
    2a78:	002c0000 	eoreq	r0, ip, r0
    2a7c:	06280000 	strteq	r0, [r8], -r0
    2a80:	ba170000 	blt	5c2a88 <__bss_end__+0x5b6770>
    2a84:	01000007 	tsteq	r0, r7
    2a88:	002c016f 	eoreq	r0, ip, pc, ror #2
    2a8c:	1efd0000 	cdpne	0, 15, cr0, cr13, cr0, {0}
    2a90:	d8110000 	ldmdale	r1, {}	; <UNPREDICTABLE>
    2a94:	41000094 	swpmi	r0, r4, [r0]	; <UNPREDICTABLE>
    2a98:	11000008 	tstne	r0, r8
    2a9c:	000094e4 	andeq	r9, r0, r4, ror #9
    2aa0:	0000087e 	andeq	r0, r0, lr, ror r8
    2aa4:	0094f011 	addseq	pc, r4, r1, lsl r0	; <UNPREDICTABLE>
    2aa8:	00087e00 	andeq	r7, r8, r0, lsl #28
    2aac:	a0110000 	andsge	r0, r1, r0
    2ab0:	7e000094 	mcrvc	0, 0, r0, cr0, cr4, {4}
    2ab4:	11000008 	tstne	r0, r8
    2ab8:	000094fc 	strdeq	r9, [r0], -ip
    2abc:	0000087e 	andeq	r0, r0, lr, ror r8
    2ac0:	018d1500 	orreq	r1, sp, r0, lsl #10
    2ac4:	78010000 	stmdavc	r1, {}	; <UNPREDICTABLE>
    2ac8:	00951001 	addseq	r1, r5, r1
    2acc:	00005800 	andeq	r5, r0, r0, lsl #16
    2ad0:	a09c0100 	addsge	r0, ip, r0, lsl #2
    2ad4:	16000006 	strne	r0, [r0], -r6
    2ad8:	006e6970 	rsbeq	r6, lr, r0, ror r9
    2adc:	2c017801 	stccs	8, cr7, [r1], {1}
    2ae0:	10000000 	andne	r0, r0, r0
    2ae4:	1100001f 	tstne	r0, pc, lsl r0
    2ae8:	00009524 	andeq	r9, r0, r4, lsr #10
    2aec:	0000087e 	andeq	r0, r0, lr, ror r8
    2af0:	0095400a 	addseq	r4, r5, sl
    2af4:	00086200 	andeq	r6, r8, r0, lsl #4
    2af8:	00068000 	andeq	r8, r6, r0
    2afc:	51010b00 	tstpl	r1, r0, lsl #22
    2b00:	00743104 	rsbseq	r3, r4, r4, lsl #2
    2b04:	5c0a0024 	stcpl	0, cr0, [sl], {36}	; 0x24
    2b08:	62000095 	andvs	r0, r0, #149	; 0x95
    2b0c:	96000008 	strls	r0, [r0], -r8
    2b10:	0b000006 	bleq	2b30 <_start-0x54d0>
    2b14:	31045101 	tstcc	r4, r1, lsl #2
    2b18:	00240074 	eoreq	r0, r4, r4, ror r0
    2b1c:	00956011 	addseq	r6, r5, r1, lsl r0
    2b20:	00087e00 	andeq	r7, r8, r0, lsl #28
    2b24:	cc190000 	ldcgt	0, cr0, [r9], {-0}
    2b28:	01000001 	tsteq	r0, r1
    2b2c:	00013328 	andeq	r3, r1, r8, lsr #6
    2b30:	2c030500 	cfstr32cs	mvfx0, [r3], {-0}
    2b34:	1900009a 	stmdbne	r0, {r1, r3, r4, r7}
    2b38:	00000322 	andeq	r0, r0, r2, lsr #6
    2b3c:	01332901 	teqeq	r3, r1, lsl #18
    2b40:	03050000 	movweq	r0, #20480	; 0x5000
    2b44:	00009a28 	andeq	r9, r0, r8, lsr #20
    2b48:	00000f19 	andeq	r0, r0, r9, lsl pc
    2b4c:	332a0100 	teqcc	sl, #0, 2
    2b50:	05000001 	streq	r0, [r0, #-1]
    2b54:	009a2403 	addseq	r2, sl, r3, lsl #8
    2b58:	015a1900 	cmpeq	sl, r0, lsl #18
    2b5c:	2c010000 	stccs	0, cr0, [r1], {-0}
    2b60:	00000133 	andeq	r0, r0, r3, lsr r1
    2b64:	99d00305 	ldmibls	r0, {r0, r2, r8, r9}^
    2b68:	62190000 	andsvs	r0, r9, #0
    2b6c:	01000001 	tsteq	r0, r1
    2b70:	0001332d 	andeq	r3, r1, sp, lsr #6
    2b74:	d4030500 	strle	r0, [r3], #-1280	; 0x500
    2b78:	19000099 	stmdbne	r0, {r0, r3, r4, r7}
    2b7c:	00000007 	andeq	r0, r0, r7
    2b80:	01332e01 	teqeq	r3, r1, lsl #28
    2b84:	03050000 	movweq	r0, #20480	; 0x5000
    2b88:	000099d8 	ldrdeq	r9, [r0], -r8
    2b8c:	00016a19 	andeq	r6, r1, r9, lsl sl
    2b90:	332f0100 	teqcc	pc, #0, 2
    2b94:	05000001 	streq	r0, [r0, #-1]
    2b98:	0099dc03 	addseq	sp, r9, r3, lsl #24
    2b9c:	01721900 	cmneq	r2, r0, lsl #18
    2ba0:	30010000 	andcc	r0, r1, r0
    2ba4:	00000133 	andeq	r0, r0, r3, lsr r1
    2ba8:	99e00305 	stmibls	r0!, {r0, r2, r8, r9}^
    2bac:	7a190000 	bvc	642bb4 <__bss_end__+0x63689c>
    2bb0:	01000001 	tsteq	r0, r1
    2bb4:	00013331 	andeq	r3, r1, r1, lsr r3
    2bb8:	e4030500 	str	r0, [r3], #-1280	; 0x500
    2bbc:	19000099 	stmdbne	r0, {r0, r3, r4, r7}
    2bc0:	000002e2 	andeq	r0, r0, r2, ror #5
    2bc4:	01333301 	teqeq	r3, r1, lsl #6
    2bc8:	03050000 	movweq	r0, #20480	; 0x5000
    2bcc:	000099e8 	andeq	r9, r0, r8, ror #19
    2bd0:	0000d119 	andeq	sp, r0, r9, lsl r1
    2bd4:	33340100 	teqcc	r4, #0, 2
    2bd8:	05000001 	streq	r0, [r0, #-1]
    2bdc:	0099ec03 	addseq	lr, r9, r3, lsl #24
    2be0:	00281900 	eoreq	r1, r8, r0, lsl #18
    2be4:	36010000 	strcc	r0, [r1], -r0
    2be8:	00000133 	andeq	r0, r0, r3, lsr r1
    2bec:	99f00305 	ldmibls	r0!, {r0, r2, r8, r9}^
    2bf0:	d7190000 	ldrle	r0, [r9, -r0]
    2bf4:	01000001 	tsteq	r0, r1
    2bf8:	00013337 	andeq	r3, r1, r7, lsr r3
    2bfc:	f4030500 	vst3.8	{d0,d2,d4}, [r3], r0
    2c00:	19000099 	stmdbne	r0, {r0, r3, r4, r7}
    2c04:	00000102 	andeq	r0, r0, r2, lsl #2
    2c08:	01333901 	teqeq	r3, r1, lsl #18
    2c0c:	03050000 	movweq	r0, #20480	; 0x5000
    2c10:	000099f8 	strdeq	r9, [r0], -r8
    2c14:	00010919 	andeq	r0, r1, r9, lsl r9
    2c18:	333a0100 	teqcc	sl, #0, 2
    2c1c:	05000001 	streq	r0, [r0, #-1]
    2c20:	0099fc03 	addseq	pc, r9, r3, lsl #24
    2c24:	080b1a00 	stmdaeq	fp, {r9, fp, ip}
    2c28:	09010000 	stmdbeq	r1, {}	; <UNPREDICTABLE>
    2c2c:	00013301 	andeq	r3, r1, r1, lsl #6
    2c30:	20030500 	andcs	r0, r3, r0, lsl #10
    2c34:	1a00009a 	bne	2ea4 <_start-0x515c>
    2c38:	00000819 	andeq	r0, r0, r9, lsl r8
    2c3c:	33010a01 	movwcc	r0, #6657	; 0x1a01
    2c40:	05000001 	streq	r0, [r0, #-1]
    2c44:	009a0003 	addseq	r0, sl, r3
    2c48:	08401a00 	stmdaeq	r0, {r9, fp, ip}^
    2c4c:	0c010000 	stceq	0, cr0, [r1], {-0}
    2c50:	00013301 	andeq	r3, r1, r1, lsl #6
    2c54:	18030500 	stmdane	r3, {r8, sl}
    2c58:	1a00009a 	bne	2ec8 <_start-0x5138>
    2c5c:	00000847 	andeq	r0, r0, r7, asr #16
    2c60:	33010d01 	movwcc	r0, #7425	; 0x1d01
    2c64:	05000001 	streq	r0, [r0, #-1]
    2c68:	009a1c03 	addseq	r1, sl, r3, lsl #24
    2c6c:	07fd1a00 	ldrbeq	r1, [sp, r0, lsl #20]!
    2c70:	0f010000 	svceq	0x00010000
    2c74:	00013301 	andeq	r3, r1, r1, lsl #6
    2c78:	04030500 	streq	r0, [r3], #-1280	; 0x500
    2c7c:	1a00009a 	bne	2eec <_start-0x5114>
    2c80:	00000804 	andeq	r0, r0, r4, lsl #16
    2c84:	33011001 	movwcc	r1, #4097	; 0x1001
    2c88:	05000001 	streq	r0, [r0, #-1]
    2c8c:	009a0803 	addseq	r0, sl, r3, lsl #16
    2c90:	084e1a00 	stmdaeq	lr, {r9, fp, ip}^
    2c94:	12010000 	andne	r0, r1, #0
    2c98:	00013301 	andeq	r3, r1, r1, lsl #6
    2c9c:	10030500 	andne	r0, r3, r0, lsl #10
    2ca0:	1a00009a 	bne	2f10 <_start-0x50f0>
    2ca4:	00000855 	andeq	r0, r0, r5, asr r8
    2ca8:	33011301 	movwcc	r1, #4865	; 0x1301
    2cac:	05000001 	streq	r0, [r0, #-1]
    2cb0:	009a1403 	addseq	r1, sl, r3, lsl #8
    2cb4:	07791a00 	ldrbeq	r1, [r9, -r0, lsl #20]!
    2cb8:	15010000 	strne	r0, [r1, #-0]
    2cbc:	00013301 	andeq	r3, r1, r1, lsl #6
    2cc0:	0c030500 	cfstr32eq	mvfx0, [r3], {-0}
    2cc4:	1b00009a 	blne	2f34 <_start-0x50cc>
    2cc8:	0000086d 	andeq	r0, r0, sp, ror #16
    2ccc:	002c2001 	eoreq	r2, ip, r1
    2cd0:	08560000 	ldmdaeq	r6, {}^	; <UNPREDICTABLE>
    2cd4:	561c0000 	ldrpl	r0, [ip], -r0
    2cd8:	00000008 	andeq	r0, r0, r8
    2cdc:	085c040d 	ldmdaeq	ip, {r0, r2, r3, sl}^
    2ce0:	611d0000 	tstvs	sp, r0
    2ce4:	1e000008 	cdpne	0, 0, cr0, cr0, cr8, {0}
    2ce8:	0007731f 	andeq	r7, r7, pc, lsl r3
    2cec:	781e0100 	ldmdavc	lr, {r8}
    2cf0:	1c000008 	stcne	0, cr0, [r0], {8}
    2cf4:	00000878 	andeq	r0, r0, r8, ror r8
    2cf8:	00002c1c 	andeq	r2, r0, ip, lsl ip
    2cfc:	040d0000 	streq	r0, [sp], #-0
    2d00:	00000861 	andeq	r0, r0, r1, ror #16
    2d04:	0000f620 	andeq	pc, r0, r0, lsr #12
    2d08:	008a0300 	addeq	r0, sl, r0, lsl #6
    2d0c:	000003ff 	strdeq	r0, [r0], -pc	; <UNPREDICTABLE>
    2d10:	0dae0004 	stceq	0, cr0, [lr, #16]!
    2d14:	01040000 	mrseq	r0, (UNDEF: 4)
    2d18:	00000340 	andeq	r0, r0, r0, asr #6
    2d1c:	0009b501 	andeq	fp, r9, r1, lsl #10
    2d20:	0004ce00 	andeq	ip, r4, r0, lsl #28
    2d24:	00956800 	addseq	r6, r5, r0, lsl #16
    2d28:	00015400 	andeq	r5, r1, r0, lsl #8
    2d2c:	000d1e00 	andeq	r1, sp, r0, lsl #28
    2d30:	05040200 	streq	r0, [r4, #-512]	; 0x200
    2d34:	00746e69 	rsbseq	r6, r4, r9, ror #28
    2d38:	6f070403 	svcvs	0x00070403
    2d3c:	03000000 	movweq	r0, #0
    2d40:	02d60601 	sbcseq	r0, r6, #1048576	; 0x100000
    2d44:	02030000 	andeq	r0, r3, #0
    2d48:	0002e905 	andeq	lr, r2, r5, lsl #18
    2d4c:	05040300 	streq	r0, [r4, #-768]	; 0x300
    2d50:	000000a1 	andeq	r0, r0, r1, lsr #1
    2d54:	9c050803 	stcls	8, cr0, [r5], {3}
    2d58:	03000000 	movweq	r0, #0
    2d5c:	02d40801 	sbcseq	r0, r4, #65536	; 0x10000
    2d60:	02030000 	andeq	r0, r3, #0
    2d64:	0001b407 	andeq	fp, r1, r7, lsl #8
    2d68:	07040300 	streq	r0, [r4, -r0, lsl #6]
    2d6c:	0000006a 	andeq	r0, r0, sl, rrx
    2d70:	65070803 	strvs	r0, [r7, #-2051]	; 0x803
    2d74:	03000000 	movweq	r0, #0
    2d78:	01f00704 	mvnseq	r0, r4, lsl #14
    2d7c:	01030000 	mrseq	r0, (UNDEF: 3)
    2d80:	0002dd08 	andeq	sp, r2, r8, lsl #26
    2d84:	02010400 	andeq	r0, r1, #0, 8
    2d88:	0000b20c 	andeq	fp, r0, ip, lsl #4
    2d8c:	07930500 	ldreq	r0, [r3, r0, lsl #10]
    2d90:	05000000 	streq	r0, [r0, #-0]
    2d94:	0000085c 	andeq	r0, r0, ip, asr r8
    2d98:	087f0501 	ldmdaeq	pc!, {r0, r8, sl}^	; <UNPREDICTABLE>
    2d9c:	05040000 	streq	r0, [r4, #-0]
    2da0:	0000088e 	andeq	r0, r0, lr, lsl #17
    2da4:	089d0505 	ldmeq	sp, {r0, r2, r8, sl}
    2da8:	05060000 	streq	r0, [r6, #-0]
    2dac:	000008ac 	andeq	r0, r0, ip, lsr #17
    2db0:	08bb0507 	ldmeq	fp!, {r0, r1, r2, r8, sl}
    2db4:	05030000 	streq	r0, [r3, #-0]
    2db8:	000008ca 	andeq	r0, r0, sl, asr #17
    2dbc:	73060002 	movwvc	r0, #24578	; 0x6002
    2dc0:	02000008 	andeq	r0, r0, #8
    2dc4:	00007915 	andeq	r7, r0, r5, lsl r9
    2dc8:	00500700 	subseq	r0, r0, r0, lsl #14
    2dcc:	37010000 	strcc	r0, [r1, -r0]
    2dd0:	00009568 	andeq	r9, r0, r8, ror #10
    2dd4:	0000009c 	muleq	r0, ip, r0
    2dd8:	01c39c01 	biceq	r9, r3, r1, lsl #24
    2ddc:	70080000 	andvc	r0, r8, r0
    2de0:	a8000095 	stmdage	r0, {r0, r2, r4, r7}
    2de4:	09000003 	stmdbeq	r0, {r0, r1}
    2de8:	0000957c 	andeq	r9, r0, ip, ror r5
    2dec:	000003af 	andeq	r0, r0, pc, lsr #7
    2df0:	000000f3 	strdeq	r0, [r0], -r3
    2df4:	0151010a 	cmpeq	r1, sl, lsl #2
    2df8:	50010a32 	andpl	r0, r1, r2, lsr sl
    2dfc:	09003e01 	stmdbeq	r0, {r0, r9, sl, fp, ip, sp}
    2e00:	00009588 	andeq	r9, r0, r8, lsl #11
    2e04:	000003af 	andeq	r0, r0, pc, lsr #7
    2e08:	0000010b 	andeq	r0, r0, fp, lsl #2
    2e0c:	0151010a 	cmpeq	r1, sl, lsl #2
    2e10:	50010a32 	andpl	r0, r1, r2, lsr sl
    2e14:	08003f01 	stmdaeq	r0, {r0, r8, r9, sl, fp, ip, sp}
    2e18:	0000958c 	andeq	r9, r0, ip, lsl #11
    2e1c:	000003a8 	andeq	r0, r0, r8, lsr #7
    2e20:	00959c09 	addseq	r9, r5, r9, lsl #24
    2e24:	0003c500 	andeq	ip, r3, r0, lsl #10
    2e28:	00012800 	andeq	r2, r1, r0, lsl #16
    2e2c:	50010a00 	andpl	r0, r1, r0, lsl #20
    2e30:	00007502 	andeq	r7, r0, r2, lsl #10
    2e34:	0095a809 	addseq	sl, r5, r9, lsl #16
    2e38:	0003e600 	andeq	lr, r3, r0, lsl #12
    2e3c:	00013c00 	andeq	r3, r1, r0, lsl #24
    2e40:	50010a00 	andpl	r0, r1, r0, lsl #20
    2e44:	00007502 	andeq	r7, r0, r2, lsl #10
    2e48:	0095ac08 	addseq	sl, r5, r8, lsl #24
    2e4c:	0003a800 	andeq	sl, r3, r0, lsl #16
    2e50:	95b80900 	ldrls	r0, [r8, #2304]!	; 0x900
    2e54:	03e60000 	mvneq	r0, #0
    2e58:	01580000 	cmpeq	r8, r0
    2e5c:	010a0000 	mrseq	r0, (UNDEF: 10)
    2e60:	00300151 	eorseq	r0, r0, r1, asr r1
    2e64:	0095c409 	addseq	ip, r5, r9, lsl #8
    2e68:	0003e600 	andeq	lr, r3, r0, lsl #12
    2e6c:	00016b00 	andeq	r6, r1, r0, lsl #22
    2e70:	51010a00 	tstpl	r1, r0, lsl #20
    2e74:	09003001 	stmdbeq	r0, {r0, ip, sp}
    2e78:	000095d0 	ldrdeq	r9, [r0], -r0
    2e7c:	000003e6 	andeq	r0, r0, r6, ror #7
    2e80:	0000017e 	andeq	r0, r0, lr, ror r1
    2e84:	0151010a 	cmpeq	r1, sl, lsl #2
    2e88:	dc090036 	stcle	0, cr0, [r9], {54}	; 0x36
    2e8c:	e6000095 			; <UNDEFINED> instruction: 0xe6000095
    2e90:	91000003 	tstls	r0, r3
    2e94:	0a000001 	beq	2ea0 <_start-0x5160>
    2e98:	33015101 	movwcc	r5, #4353	; 0x1101
    2e9c:	95e80900 	strbls	r0, [r8, #2304]!	; 0x900
    2ea0:	03e60000 	mvneq	r0, #0
    2ea4:	01a60000 			; <UNDEFINED> instruction: 0x01a60000
    2ea8:	010a0000 	mrseq	r0, (UNDEF: 10)
    2eac:	0e0a0351 	mcreq	3, 0, r0, cr10, cr1, {2}
    2eb0:	f4090001 	vst4.8	{d0-d3}, [r9], r1
    2eb4:	e6000095 			; <UNDEFINED> instruction: 0xe6000095
    2eb8:	b9000003 	stmdblt	r0, {r0, r1}
    2ebc:	0a000001 	beq	2ec8 <_start-0x5138>
    2ec0:	33015101 	movwcc	r5, #4353	; 0x1101
    2ec4:	95f80800 	ldrbls	r0, [r8, #2048]!	; 0x800
    2ec8:	03a80000 			; <UNDEFINED> instruction: 0x03a80000
    2ecc:	0b000000 	bleq	2ed4 <_start-0x512c>
    2ed0:	00000910 	andeq	r0, r0, r0, lsl r9
    2ed4:	00255701 	eoreq	r5, r5, r1, lsl #14
    2ed8:	96040000 	strls	r0, [r4], -r0
    2edc:	001c0000 	andseq	r0, ip, r0
    2ee0:	9c010000 	stcls	0, cr0, [r1], {-0}
    2ee4:	000001e6 	andeq	r0, r0, r6, ror #3
    2ee8:	00961408 	addseq	r1, r6, r8, lsl #8
    2eec:	0003c500 	andeq	ip, r3, r0, lsl #10
    2ef0:	4b0b0000 	blmi	2c2ef8 <__bss_end__+0x2b6be0>
    2ef4:	01000009 	tsteq	r0, r9
    2ef8:	0000255d 	andeq	r2, r0, sp, asr r5
    2efc:	00962000 	addseq	r2, r6, r0
    2f00:	00002800 	andeq	r2, r0, r0, lsl #16
    2f04:	129c0100 	addsne	r0, ip, #0, 2
    2f08:	08000002 	stmdaeq	r0, {r1}
    2f0c:	00009628 	andeq	r9, r0, r8, lsr #12
    2f10:	000001c3 	andeq	r0, r0, r3, asr #3
    2f14:	00963c08 	addseq	r3, r6, r8, lsl #24
    2f18:	0003c500 	andeq	ip, r3, r0, lsl #10
    2f1c:	640b0000 	strvs	r0, [fp], #-0
    2f20:	01000009 	tsteq	r0, r9
    2f24:	00002564 	andeq	r2, r0, r4, ror #10
    2f28:	00964800 	addseq	r4, r6, r0, lsl #16
    2f2c:	00001c00 	andeq	r1, r0, r0, lsl #24
    2f30:	359c0100 	ldrcc	r0, [ip, #256]	; 0x100
    2f34:	08000002 	stmdaeq	r0, {r1}
    2f38:	00009658 	andeq	r9, r0, r8, asr r6
    2f3c:	000003c5 	andeq	r0, r0, r5, asr #7
    2f40:	054d0700 	strbeq	r0, [sp, #-1792]	; 0x700
    2f44:	6a010000 	bvs	42f4c <__bss_end__+0x36c34>
    2f48:	00009664 	andeq	r9, r0, r4, ror #12
    2f4c:	0000002c 	andeq	r0, r0, ip, lsr #32
    2f50:	02719c01 	rsbseq	r9, r1, #256	; 0x100
    2f54:	630c0000 	movwvs	r0, #49152	; 0xc000
    2f58:	2c6a0100 	stfcse	f0, [sl], #-0
    2f5c:	3c000000 	stccc	0, cr0, [r0], {-0}
    2f60:	0800001f 	stmdaeq	r0, {r0, r1, r2, r3, r4}
    2f64:	00009670 	andeq	r9, r0, r0, ror r6
    2f68:	00000212 	andeq	r0, r0, r2, lsl r2
    2f6c:	0096880d 	addseq	r8, r6, sp, lsl #16
    2f70:	0003e600 	andeq	lr, r3, r0, lsl #12
    2f74:	51010a00 	tstpl	r1, r0, lsl #20
    2f78:	00007402 	andeq	r7, r0, r2, lsl #8
    2f7c:	092e0b00 	stmdbeq	lr!, {r8, r9, fp}
    2f80:	74010000 	strvc	r0, [r1], #-0
    2f84:	00000025 	andeq	r0, r0, r5, lsr #32
    2f88:	00009690 	muleq	r0, r0, r6
    2f8c:	0000000c 	andeq	r0, r0, ip
    2f90:	02949c01 	addseq	r9, r4, #256	; 0x100
    2f94:	98080000 	stmdals	r8, {}	; <UNPREDICTABLE>
    2f98:	c3000096 	movwgt	r0, #150	; 0x96
    2f9c:	00000001 	andeq	r0, r0, r1
    2fa0:	0009e10b 	andeq	lr, r9, fp, lsl #2
    2fa4:	25780100 	ldrbcs	r0, [r8, #-256]!	; 0x100
    2fa8:	9c000000 	stcls	0, cr0, [r0], {-0}
    2fac:	20000096 	mulcs	r0, r6, r0
    2fb0:	01000000 	mrseq	r0, (UNDEF: 0)
    2fb4:	0002c09c 	muleq	r2, ip, r0
    2fb8:	96a40800 	strtls	r0, [r4], r0, lsl #16
    2fbc:	02710000 	rsbseq	r0, r1, #0
    2fc0:	b0080000 	andlt	r0, r8, r0
    2fc4:	e6000096 			; <UNDEFINED> instruction: 0xe6000096
    2fc8:	00000001 	andeq	r0, r0, r1
    2fcc:	00097e0e 	andeq	r7, r9, lr, lsl #28
    2fd0:	d1160100 	tstle	r6, r0, lsl #2
    2fd4:	05000002 	streq	r0, [r0, #-2]
    2fd8:	009a6003 	addseq	r6, sl, r3
    2fdc:	d7040f00 	strle	r0, [r4, -r0, lsl #30]
    2fe0:	10000002 	andne	r0, r0, r2
    2fe4:	0000002c 	andeq	r0, r0, ip, lsr #32
    2fe8:	0009720e 	andeq	r7, r9, lr, lsl #4
    2fec:	d1170100 	tstle	r7, r0, lsl #2
    2ff0:	05000002 	streq	r0, [r0, #-2]
    2ff4:	009a3003 	addseq	r3, sl, r3
    2ff8:	08f30e00 	ldmeq	r3!, {r9, sl, fp}^
    2ffc:	1a010000 	bne	43004 <__bss_end__+0x36cec>
    3000:	000002d1 	ldrdeq	r0, [r0], -r1
    3004:	9a4c0305 	bls	1303c20 <__bss_end__+0x12f7908>
    3008:	3c0e0000 	stccc	0, cr0, [lr], {-0}
    300c:	01000009 	tsteq	r0, r9
    3010:	0002d11b 	andeq	sp, r2, fp, lsl r1
    3014:	38030500 	stmdacc	r3, {r8, sl}
    3018:	0e00009a 	mcreq	0, 0, r0, cr0, cr10, {4}
    301c:	00000955 	andeq	r0, r0, r5, asr r9
    3020:	02d11c01 	sbcseq	r1, r1, #256	; 0x100
    3024:	03050000 	movweq	r0, #20480	; 0x5000
    3028:	00009a3c 	andeq	r9, r0, ip, lsr sl
    302c:	0009c30e 	andeq	ip, r9, lr, lsl #6
    3030:	d11d0100 	tstle	sp, r0, lsl #2
    3034:	05000002 	streq	r0, [r0, #-2]
    3038:	009a4003 	addseq	r4, sl, r3
    303c:	08e40e00 	stmiaeq	r4!, {r9, sl, fp}^
    3040:	1e010000 	cdpne	0, 0, cr0, cr1, cr0, {0}
    3044:	000002d1 	ldrdeq	r0, [r0], -r1
    3048:	9a5c0305 	bls	1703c64 <__bss_end__+0x16f794c>
    304c:	d20e0000 	andle	r0, lr, #0
    3050:	01000009 	tsteq	r0, r9
    3054:	0002d11f 	andeq	sp, r2, pc, lsl r1
    3058:	48030500 	stmdami	r3, {r8, sl}
    305c:	0e00009a 	mcreq	0, 0, r0, cr0, cr10, {4}
    3060:	00000901 	andeq	r0, r0, r1, lsl #18
    3064:	02d12001 	sbcseq	r2, r1, #1
    3068:	03050000 	movweq	r0, #20480	; 0x5000
    306c:	00009a58 	andeq	r9, r0, r8, asr sl
    3070:	0009a60e 	andeq	sl, r9, lr, lsl #12
    3074:	d1210100 	teqle	r1, r0, lsl #2
    3078:	05000002 	streq	r0, [r0, #-2]
    307c:	009a5403 	addseq	r5, sl, r3, lsl #8
    3080:	091e0e00 	ldmdbeq	lr, {r9, sl, fp}
    3084:	22010000 	andcs	r0, r1, #0
    3088:	000002d1 	ldrdeq	r0, [r0], -r1
    308c:	9a340305 	bls	d03ca8 <__bss_end__+0xcf7990>
    3090:	960e0000 	strls	r0, [lr], -r0
    3094:	01000009 	tsteq	r0, r9
    3098:	0002d123 	andeq	sp, r2, r3, lsr #2
    309c:	50030500 	andpl	r0, r3, r0, lsl #10
    30a0:	0e00009a 	mcreq	0, 0, r0, cr0, cr10, {4}
    30a4:	00000986 	andeq	r0, r0, r6, lsl #19
    30a8:	02d12401 	sbcseq	r2, r1, #16777216	; 0x1000000
    30ac:	03050000 	movweq	r0, #20480	; 0x5000
    30b0:	00009a44 	andeq	r9, r0, r4, asr #20
    30b4:	0000f611 	andeq	pc, r0, r1, lsl r6	; <UNPREDICTABLE>
    30b8:	128a0300 	addne	r0, sl, #0, 6
    30bc:	000007eb 	andeq	r0, r0, fp, ror #15
    30c0:	03c51902 	biceq	r1, r5, #32768	; 0x8000
    30c4:	2c130000 	ldccs	0, cr0, [r3], {-0}
    30c8:	13000000 	movwne	r0, #0
    30cc:	000000b2 	strheq	r0, [r0], -r2
    30d0:	086d1400 	stmdaeq	sp!, {sl, ip}^
    30d4:	a9030000 	stmdbge	r3, {}	; <UNPREDICTABLE>
    30d8:	0000002c 	andeq	r0, r0, ip, lsr #32
    30dc:	000003da 	ldrdeq	r0, [r0], -sl
    30e0:	0003da13 	andeq	sp, r3, r3, lsl sl
    30e4:	040f0000 	streq	r0, [pc], #-0	; 30ec <_start-0x4f14>
    30e8:	000003e0 	andeq	r0, r0, r0, ror #7
    30ec:	0003e515 	andeq	lr, r3, r5, lsl r5
    30f0:	73121600 	tstvc	r2, #0, 12
    30f4:	03000007 	movweq	r0, #7
    30f8:	0003fc9d 	muleq	r3, sp, ip
    30fc:	03fc1300 	mvnseq	r1, #0, 6
    3100:	2c130000 	ldccs	0, cr0, [r3], {-0}
    3104:	00000000 	andeq	r0, r0, r0
    3108:	03e5040f 	mvneq	r0, #251658240	; 0xf000000
    310c:	9b000000 	blls	3114 <_start-0x4eec>
    3110:	04000002 	streq	r0, [r0], #-2
    3114:	000edc00 	andeq	sp, lr, r0, lsl #24
    3118:	40010400 	andmi	r0, r1, r0, lsl #8
    311c:	01000003 	tsteq	r0, r3
    3120:	00000a84 	andeq	r0, r0, r4, lsl #21
    3124:	000004ce 	andeq	r0, r0, lr, asr #9
    3128:	000096bc 			; <UNDEFINED> instruction: 0x000096bc
    312c:	000000ac 	andeq	r0, r0, ip, lsr #1
    3130:	00000e23 	andeq	r0, r0, r3, lsr #28
    3134:	69050402 	stmdbvs	r5, {r1, sl}
    3138:	0300746e 	movweq	r7, #1134	; 0x46e
    313c:	006f0704 	rsbeq	r0, pc, r4, lsl #14
    3140:	01030000 	mrseq	r0, (UNDEF: 3)
    3144:	0002d606 	andeq	sp, r2, r6, lsl #12
    3148:	05020300 	streq	r0, [r2, #-768]	; 0x300
    314c:	000002e9 	andeq	r0, r0, r9, ror #5
    3150:	a1050403 	tstge	r5, r3, lsl #8
    3154:	03000000 	movweq	r0, #0
    3158:	009c0508 	addseq	r0, ip, r8, lsl #10
    315c:	01030000 	mrseq	r0, (UNDEF: 3)
    3160:	0002d408 	andeq	sp, r2, r8, lsl #8
    3164:	07020300 	streq	r0, [r2, -r0, lsl #6]
    3168:	000001b4 			; <UNDEFINED> instruction: 0x000001b4
    316c:	6a070403 	bvs	1c4180 <__bss_end__+0x1b7e68>
    3170:	03000000 	movweq	r0, #0
    3174:	00650708 	rsbeq	r0, r5, r8, lsl #14
    3178:	04030000 	streq	r0, [r3], #-0
    317c:	0001f007 	andeq	pc, r1, r7
    3180:	08010300 	stmdaeq	r1, {r8, r9}
    3184:	000002dd 	ldrdeq	r0, [r0], -sp
    3188:	007f0404 	rsbseq	r0, pc, r4, lsl #8
    318c:	72050000 	andvc	r0, r5, #0
    3190:	06000000 	streq	r0, [r0], -r0
    3194:	fb140304 	blx	503dae <__bss_end__+0x4f7a96>
    3198:	07000000 	streq	r0, [r0, -r0]
    319c:	00000aa4 	andeq	r0, r0, r4, lsr #21
    31a0:	8082e480 	addhi	lr, r2, r0, lsl #9
    31a4:	0a2f0702 	beq	bc4db4 <__bss_end__+0xbb8a9c>
    31a8:	e4800000 	str	r0, [r0], #0
    31ac:	07028082 	streq	r8, [r2, -r2, lsl #1]
    31b0:	00000ae1 	andeq	r0, r0, r1, ror #21
    31b4:	8082e484 	addhi	lr, r2, r4, lsl #9
    31b8:	09f10702 	ldmibeq	r1!, {r1, r8, r9, sl}^
    31bc:	e4880000 	str	r0, [r8], #0
    31c0:	07028082 	streq	r8, [r2, -r2, lsl #1]
    31c4:	00000a12 	andeq	r0, r0, r2, lsl sl
    31c8:	8082e48c 	addhi	lr, r2, ip, lsl #9
    31cc:	0a530702 	beq	14c4ddc <__bss_end__+0x14b8ac4>
    31d0:	e4900000 	ldr	r0, [r0], #0
    31d4:	07028082 	streq	r8, [r2, -r2, lsl #1]
    31d8:	00000a61 	andeq	r0, r0, r1, ror #20
    31dc:	8082e494 	umullhi	lr, r2, r4, r4
    31e0:	0a410702 	beq	1044df0 <__bss_end__+0x1038ad8>
    31e4:	e4980000 	ldr	r0, [r8], #0
    31e8:	07028082 	streq	r8, [r2, -r2, lsl #1]
    31ec:	00000aad 	andeq	r0, r0, sp, lsr #21
    31f0:	8082e49c 	umullhi	lr, r2, ip, r4
    31f4:	0abc0702 	beq	fef04e04 <__bss_end__+0xfeef8aec>
    31f8:	e4a00000 	strt	r0, [r0], #0
    31fc:	07028082 	streq	r8, [r2, -r2, lsl #1]
    3200:	000009ff 	strdeq	r0, [r0], -pc	; <UNPREDICTABLE>
    3204:	8082e4a4 	addhi	lr, r2, r4, lsr #9
    3208:	30080002 	andcc	r0, r8, r2
    320c:	01000002 	tsteq	r0, r2
    3210:	0096bc1b 	addseq	fp, r6, fp, lsl ip
    3214:	00006800 	andeq	r6, r0, r0, lsl #16
    3218:	a79c0100 	ldrge	r0, [ip, r0, lsl #2]
    321c:	09000001 	stmdbeq	r0, {r0}
    3220:	00000a1e 	andeq	r0, r0, lr, lsl sl
    3224:	002c2301 	eoreq	r2, ip, r1, lsl #6
    3228:	6f090000 	svcvs	0x00090000
    322c:	0100000a 	tsteq	r0, sl
    3230:	00002c24 	andeq	r2, r0, r4, lsr #24
    3234:	73640a00 	cmnvc	r4, #0, 20
    3238:	27010074 	smlsdxcs	r1, r4, r0, r0
    323c:	000001a7 	andeq	r0, r0, r7, lsr #3
    3240:	72730b00 	rsbsvc	r0, r3, #0, 22
    3244:	28010063 	stmdacs	r1, {r0, r1, r5, r6}
    3248:	000001a7 	andeq	r0, r0, r7, lsr #3
    324c:	01006e0c 	tsteq	r0, ip, lsl #28
    3250:	00002c29 	andeq	r2, r0, r9, lsr #24
    3254:	0d500100 	ldfeqe	f0, [r0, #-0]
    3258:	000096ec 	andeq	r9, r0, ip, ror #13
    325c:	00000024 	andeq	r0, r0, r4, lsr #32
    3260:	00000163 	andeq	r0, r0, r3, ror #2
    3264:	0100690e 	tsteq	r0, lr, lsl #18
    3268:	0000252a 	andeq	r2, r0, sl, lsr #10
    326c:	001f5a00 	andseq	r5, pc, r0, lsl #20
    3270:	cc0f0000 	stcgt	0, cr0, [pc], {-0}
    3274:	5d000096 	stcpl	0, cr0, [r0, #-600]	; 0xfffffda8
    3278:	80000002 	andhi	r0, r0, r2
    327c:	10000001 	andne	r0, r0, r1
    3280:	09025101 	stmdbeq	r2, {r0, r8, ip, lr}
    3284:	500110ff 	strdpl	r1, [r1], -pc	; <UNPREDICTABLE>
    3288:	b21c0c05 	andslt	r0, ip, #1280	; 0x500
    328c:	0f002000 	svceq	0x00002000
    3290:	000096d8 	ldrdeq	r9, [r0], -r8
    3294:	0000025d 	andeq	r0, r0, sp, asr r2
    3298:	0000019d 	muleq	r0, sp, r1
    329c:	02510110 	subseq	r0, r1, #16, 2
    32a0:	0110ff09 	tsteq	r0, r9, lsl #30
    32a4:	200c0550 	andcs	r0, ip, r0, asr r5
    32a8:	002000b2 	strhteq	r0, [r0], -r2
    32ac:	0096dc11 	addseq	sp, r6, r1, lsl ip
    32b0:	00027300 	andeq	r7, r2, r0, lsl #6
    32b4:	04040000 	streq	r0, [r4], #-0
    32b8:	0000002c 	andeq	r0, r0, ip, lsr #32
    32bc:	000acb08 	andeq	ip, sl, r8, lsl #22
    32c0:	242e0100 	strtcs	r0, [lr], #-256	; 0x100
    32c4:	44000097 	strmi	r0, [r0], #-151	; 0x97
    32c8:	01000000 	mrseq	r0, (UNDEF: 0)
    32cc:	0002329c 	muleq	r2, ip, r2
    32d0:	63701200 	cmnvs	r0, #0, 4
    32d4:	2c2e0100 	stfcss	f0, [lr], #-0
    32d8:	79000000 	stmdbvc	r0, {}	; <UNPREDICTABLE>
    32dc:	1300001f 	movwne	r0, #31
    32e0:	0000019e 	muleq	r0, lr, r1
    32e4:	00000242 	andeq	r0, r0, r2, asr #4
    32e8:	9d100305 	ldcls	3, cr0, [r0, #-20]	; 0xffffffec
    32ec:	34110000 	ldrcc	r0, [r1], #-0
    32f0:	7a000097 	bvc	3554 <_start-0x4aac>
    32f4:	0f000002 	svceq	0x00000002
    32f8:	00009754 	andeq	r9, r0, r4, asr r7
    32fc:	00000281 	andeq	r0, r0, r1, lsl #5
    3300:	00000228 	andeq	r0, r0, r8, lsr #4
    3304:	02530110 	subseq	r0, r3, #16, 2
    3308:	01102f08 	tsteq	r0, r8, lsl #30
    330c:	10030552 	andne	r0, r3, r2, asr r5
    3310:	1000009d 	mulne	r0, sp, r0
    3314:	03055101 	movweq	r5, #20737	; 0x5101
    3318:	00009d64 	andeq	r9, r0, r4, ror #26
    331c:	05500110 	ldrbeq	r0, [r0, #-272]	; 0x110
    3320:	009d2803 	addseq	r2, sp, r3, lsl #16
    3324:	7d021000 	stcvc	0, cr1, [r2, #-0]
    3328:	00740204 	rsbseq	r0, r4, r4, lsl #4
    332c:	007d0210 	rsbseq	r0, sp, r0, lsl r2
    3330:	9d840305 	stcls	3, cr0, [r4, #20]
    3334:	11000000 	mrsne	r0, (UNDEF: 0)
    3338:	00009758 	andeq	r9, r0, r8, asr r7
    333c:	00000297 	muleq	r0, r7, r2
    3340:	00721400 	rsbseq	r1, r2, r0, lsl #8
    3344:	02420000 	subeq	r0, r2, #0
    3348:	6b150000 	blvs	543350 <__bss_end__+0x537038>
    334c:	15000000 	strne	r0, [r0, #-0]
    3350:	02320500 	eorseq	r0, r2, #0, 10
    3354:	1e090000 	cdpne	0, 0, cr0, cr9, cr0, {0}
    3358:	0100000a 	tsteq	r0, sl
    335c:	00002c23 	andeq	r2, r0, r3, lsr #24
    3360:	0a6f0900 	beq	1bc5768 <__bss_end__+0x1bb9450>
    3364:	24010000 	strcs	r0, [r1], #-0
    3368:	0000002c 	andeq	r0, r0, ip, lsr #32
    336c:	0006eb16 	andeq	lr, r6, r6, lsl fp
    3370:	739c0200 	orrsvc	r0, ip, #0, 4
    3374:	17000002 	strne	r0, [r0, -r2]
    3378:	0000002c 	andeq	r0, r0, ip, lsr #32
    337c:	00002c17 	andeq	r2, r0, r7, lsl ip
    3380:	f6180000 			; <UNDEFINED> instruction: 0xf6180000
    3384:	02000000 	andeq	r0, r0, #0
    3388:	014b188a 	smlalbbeq	r1, fp, sl, r8
    338c:	1e020000 	cdpne	0, 0, cr0, cr2, cr0, {0}
    3390:	00053219 	andeq	r3, r5, r9, lsl r2
    3394:	25290200 	strcs	r0, [r9, #-512]!	; 0x200
    3398:	97000000 	strls	r0, [r0, -r0]
    339c:	17000002 	strne	r0, [r0, -r2]
    33a0:	00000079 	andeq	r0, r0, r9, ror r0
    33a4:	de18001a 	mrcle	0, 0, r0, cr8, cr10, {0}
    33a8:	02000001 	andeq	r0, r0, #1
    33ac:	013e0066 	teqeq	lr, r6, rrx
    33b0:	00040000 	andeq	r0, r4, r0
    33b4:	00001033 	andeq	r1, r0, r3, lsr r0
    33b8:	03400104 	movteq	r0, #260	; 0x104
    33bc:	ef010000 	svc	0x00010000
    33c0:	ce00000a 	cdpgt	0, 0, cr0, cr0, cr10, {0}
    33c4:	b8000004 	stmdalt	r0, {r2}
    33c8:	44000098 	strmi	r0, [r0], #-152	; 0x98
    33cc:	f0000000 			; <UNDEFINED> instruction: 0xf0000000
    33d0:	0200000e 	andeq	r0, r0, #14
    33d4:	6e690504 	cdpvs	5, 6, cr0, cr9, cr4, {0}
    33d8:	04030074 	streq	r0, [r3], #-116	; 0x74
    33dc:	00006f07 	andeq	r6, r0, r7, lsl #30
    33e0:	06010300 	streq	r0, [r1], -r0, lsl #6
    33e4:	000002d6 	ldrdeq	r0, [r0], -r6
    33e8:	e9050203 	stmdb	r5, {r0, r1, r9}
    33ec:	03000002 	movweq	r0, #2
    33f0:	00a10504 	adceq	r0, r1, r4, lsl #10
    33f4:	08030000 	stmdaeq	r3, {}	; <UNPREDICTABLE>
    33f8:	00009c05 	andeq	r9, r0, r5, lsl #24
    33fc:	08010300 	stmdaeq	r1, {r8, r9}
    3400:	000002d4 	ldrdeq	r0, [r0], -r4
    3404:	b4070203 	strlt	r0, [r7], #-515	; 0x203
    3408:	03000001 	movweq	r0, #1
    340c:	006a0704 	rsbeq	r0, sl, r4, lsl #14
    3410:	08030000 	stmdaeq	r3, {}	; <UNPREDICTABLE>
    3414:	00006507 	andeq	r6, r0, r7, lsl #10
    3418:	07040300 	streq	r0, [r4, -r0, lsl #6]
    341c:	000001f0 	strdeq	r0, [r0], -r0	; <UNPREDICTABLE>
    3420:	dd080103 	stfles	f0, [r8, #-12]
    3424:	04000002 	streq	r0, [r0], #-2
    3428:	00007f04 	andeq	r7, r0, r4, lsl #30
    342c:	00720500 	rsbseq	r0, r2, r0, lsl #10
    3430:	1d060000 	stcne	0, cr0, [r6, #-0]
    3434:	0100000b 	tsteq	r0, fp
    3438:	0098b802 	addseq	fp, r8, r2, lsl #16
    343c:	00004400 	andeq	r4, r0, r0, lsl #8
    3440:	089c0100 	ldmeq	ip, {r8}
    3444:	07000001 	streq	r0, [r0, -r1]
    3448:	01006370 	tsteq	r0, r0, ror r3
    344c:	00002c02 	andeq	r2, r0, r2, lsl #24
    3450:	001f9700 	andseq	r9, pc, r0, lsl #14
    3454:	019e0800 	orrseq	r0, lr, r0, lsl #16
    3458:	01180000 	tsteq	r8, r0
    345c:	03050000 	movweq	r0, #20480	; 0x5000
    3460:	00009d8c 	andeq	r9, r0, ip, lsl #27
    3464:	0098c809 	addseq	ip, r8, r9, lsl #16
    3468:	00011d00 	andeq	r1, r1, r0, lsl #26
    346c:	98e80a00 	stmials	r8!, {r9, fp}^
    3470:	01240000 	teqeq	r4, r0
    3474:	00fe0000 	rscseq	r0, lr, r0
    3478:	010b0000 	mrseq	r0, (UNDEF: 11)
    347c:	0b320153 	bleq	c839d0 <__bss_end__+0xc776b8>
    3480:	03055201 	movweq	r5, #20993	; 0x5201
    3484:	00009d8c 	andeq	r9, r0, ip, lsl #27
    3488:	0551010b 	ldrbeq	r0, [r1, #-267]	; 0x10b
    348c:	009da003 	addseq	sl, sp, r3
    3490:	50010b00 	andpl	r0, r1, r0, lsl #22
    3494:	9d280305 	stcls	3, cr0, [r8, #-20]!	; 0xffffffec
    3498:	020b0000 	andeq	r0, fp, #0
    349c:	7402047d 	strvc	r0, [r2], #-1149	; 0x47d
    34a0:	7d020b00 	vstrvc	d0, [r2, #-0]
    34a4:	d0030500 	andle	r0, r3, r0, lsl #10
    34a8:	0000009d 	muleq	r0, sp, r0
    34ac:	0098ec09 	addseq	lr, r8, r9, lsl #24
    34b0:	00013a00 	andeq	r3, r1, r0, lsl #20
    34b4:	720c0000 	andvc	r0, ip, #0
    34b8:	18000000 	stmdane	r0, {}	; <UNPREDICTABLE>
    34bc:	0d000001 	stceq	0, cr0, [r0, #-4]
    34c0:	0000006b 	andeq	r0, r0, fp, rrx
    34c4:	08050011 	stmdaeq	r5, {r0, r4}
    34c8:	0e000001 	cdpeq	0, 0, cr0, cr0, cr1, {0}
    34cc:	0000014b 	andeq	r0, r0, fp, asr #2
    34d0:	320f1e02 	andcc	r1, pc, #2, 28
    34d4:	02000005 	andeq	r0, r0, #5
    34d8:	00002529 	andeq	r2, r0, r9, lsr #10
    34dc:	00013a00 	andeq	r3, r1, r0, lsl #20
    34e0:	00791000 	rsbseq	r1, r9, r0
    34e4:	00110000 	andseq	r0, r1, r0
    34e8:	0001de0e 	andeq	sp, r1, lr, lsl #28
    34ec:	00660200 	rsbeq	r0, r6, r0, lsl #4
    34f0:	0000013e 	andeq	r0, r0, lr, lsr r1
    34f4:	110b0004 	tstne	fp, r4
    34f8:	01040000 	mrseq	r0, (UNDEF: 4)
    34fc:	00000340 	andeq	r0, r0, r0, asr #6
    3500:	000b2f01 	andeq	r2, fp, r1, lsl #30
    3504:	0004ce00 	andeq	ip, r4, r0, lsl #28
    3508:	0098fc00 	addseq	pc, r8, r0, lsl #24
    350c:	00004400 	andeq	r4, r0, r0, lsl #8
    3510:	000f9900 	andeq	r9, pc, r0, lsl #18
    3514:	05040200 	streq	r0, [r4, #-512]	; 0x200
    3518:	00746e69 	rsbseq	r6, r4, r9, ror #28
    351c:	6f070403 	svcvs	0x00070403
    3520:	03000000 	movweq	r0, #0
    3524:	02d60601 	sbcseq	r0, r6, #1048576	; 0x100000
    3528:	02030000 	andeq	r0, r3, #0
    352c:	0002e905 	andeq	lr, r2, r5, lsl #18
    3530:	05040300 	streq	r0, [r4, #-768]	; 0x300
    3534:	000000a1 	andeq	r0, r0, r1, lsr #1
    3538:	9c050803 	stcls	8, cr0, [r5], {3}
    353c:	03000000 	movweq	r0, #0
    3540:	02d40801 	sbcseq	r0, r4, #65536	; 0x10000
    3544:	02030000 	andeq	r0, r3, #0
    3548:	0001b407 	andeq	fp, r1, r7, lsl #8
    354c:	07040300 	streq	r0, [r4, -r0, lsl #6]
    3550:	0000006a 	andeq	r0, r0, sl, rrx
    3554:	65070803 	strvs	r0, [r7, #-2051]	; 0x803
    3558:	03000000 	movweq	r0, #0
    355c:	01f00704 	mvnseq	r0, r4, lsl #14
    3560:	01030000 	mrseq	r0, (UNDEF: 3)
    3564:	0002dd08 	andeq	sp, r2, r8, lsl #26
    3568:	7f040400 	svcvc	0x00040400
    356c:	05000000 	streq	r0, [r0, #-0]
    3570:	00000072 	andeq	r0, r0, r2, ror r0
    3574:	000b5b06 	andeq	r5, fp, r6, lsl #22
    3578:	fc020100 	stc2	1, cr0, [r2], {-0}
    357c:	44000098 	strmi	r0, [r0], #-152	; 0x98
    3580:	01000000 	mrseq	r0, (UNDEF: 0)
    3584:	0001089c 	muleq	r1, ip, r8
    3588:	63700700 	cmnvs	r0, #0, 14
    358c:	2c020100 	stfcss	f0, [r2], {-0}
    3590:	b5000000 	strlt	r0, [r0, #-0]
    3594:	0800001f 	stmdaeq	r0, {r0, r1, r2, r3, r4}
    3598:	0000019e 	muleq	r0, lr, r1
    359c:	00000118 	andeq	r0, r0, r8, lsl r1
    35a0:	9ddc0305 	ldclls	3, cr0, [ip, #20]
    35a4:	0c090000 	stceq	0, cr0, [r9], {-0}
    35a8:	1d000099 	stcne	0, cr0, [r0, #-612]	; 0xfffffd9c
    35ac:	0a000001 	beq	35b8 <_start-0x4a48>
    35b0:	0000992c 	andeq	r9, r0, ip, lsr #18
    35b4:	00000124 	andeq	r0, r0, r4, lsr #2
    35b8:	000000fe 	strdeq	r0, [r0], -lr
    35bc:	0153010b 	cmpeq	r3, fp, lsl #2
    35c0:	52010b32 	andpl	r0, r1, #51200	; 0xc800
    35c4:	9ddc0305 	ldclls	3, cr0, [ip, #20]
    35c8:	010b0000 	mrseq	r0, (UNDEF: 11)
    35cc:	f4030551 	vst3.16	{d0,d2,d4}, [r3 :64], r1
    35d0:	0b00009d 	bleq	384c <_start-0x47b4>
    35d4:	03055001 	movweq	r5, #20481	; 0x5001
    35d8:	00009d28 	andeq	r9, r0, r8, lsr #26
    35dc:	047d020b 	ldrbteq	r0, [sp], #-523	; 0x20b
    35e0:	0b007402 	bleq	205f0 <__bss_end__+0x142d8>
    35e4:	05007d02 	streq	r7, [r0, #-3330]	; 0xd02
    35e8:	009e2003 	addseq	r2, lr, r3
    35ec:	30090000 	andcc	r0, r9, r0
    35f0:	3a000099 	bcc	385c <_start-0x47a4>
    35f4:	00000001 	andeq	r0, r0, r1
    35f8:	0000720c 	andeq	r7, r0, ip, lsl #4
    35fc:	00011800 	andeq	r1, r1, r0, lsl #16
    3600:	006b0d00 	rsbeq	r0, fp, r0, lsl #26
    3604:	00150000 	andseq	r0, r5, r0
    3608:	00010805 	andeq	r0, r1, r5, lsl #16
    360c:	014b0e00 	cmpeq	fp, r0, lsl #28
    3610:	1e020000 	cdpne	0, 0, cr0, cr2, cr0, {0}
    3614:	0005320f 	andeq	r3, r5, pc, lsl #4
    3618:	25290200 	strcs	r0, [r9, #-512]!	; 0x200
    361c:	3a000000 	bcc	3624 <_start-0x49dc>
    3620:	10000001 	andne	r0, r0, r1
    3624:	00000079 	andeq	r0, r0, r9, ror r0
    3628:	de0e0011 	mcrle	0, 0, r0, cr14, cr1, {0}
    362c:	02000001 	andeq	r0, r0, #1
    3630:	013e0066 	teqeq	lr, r6, rrx
    3634:	00040000 	andeq	r0, r4, r0
    3638:	000011e3 	andeq	r1, r0, r3, ror #3
    363c:	03400104 	movteq	r0, #260	; 0x104
    3640:	7e010000 	cdpvc	0, 0, cr0, cr1, cr0, {0}
    3644:	ce00000b 	cdpgt	0, 0, cr0, cr0, cr11, {0}
    3648:	40000004 	andmi	r0, r0, r4
    364c:	44000099 	strmi	r0, [r0], #-153	; 0x99
    3650:	40000000 	andmi	r0, r0, r0
    3654:	02000010 	andeq	r0, r0, #16
    3658:	6e690504 	cdpvs	5, 6, cr0, cr9, cr4, {0}
    365c:	04030074 	streq	r0, [r3], #-116	; 0x74
    3660:	00006f07 	andeq	r6, r0, r7, lsl #30
    3664:	06010300 	streq	r0, [r1], -r0, lsl #6
    3668:	000002d6 	ldrdeq	r0, [r0], -r6
    366c:	e9050203 	stmdb	r5, {r0, r1, r9}
    3670:	03000002 	movweq	r0, #2
    3674:	00a10504 	adceq	r0, r1, r4, lsl #10
    3678:	08030000 	stmdaeq	r3, {}	; <UNPREDICTABLE>
    367c:	00009c05 	andeq	r9, r0, r5, lsl #24
    3680:	08010300 	stmdaeq	r1, {r8, r9}
    3684:	000002d4 	ldrdeq	r0, [r0], -r4
    3688:	b4070203 	strlt	r0, [r7], #-515	; 0x203
    368c:	03000001 	movweq	r0, #1
    3690:	006a0704 	rsbeq	r0, sl, r4, lsl #14
    3694:	08030000 	stmdaeq	r3, {}	; <UNPREDICTABLE>
    3698:	00006507 	andeq	r6, r0, r7, lsl #10
    369c:	07040300 	streq	r0, [r4, -r0, lsl #6]
    36a0:	000001f0 	strdeq	r0, [r0], -r0	; <UNPREDICTABLE>
    36a4:	dd080103 	stfles	f0, [r8, #-12]
    36a8:	04000002 	streq	r0, [r0], #-2
    36ac:	00007f04 	andeq	r7, r0, r4, lsl #30
    36b0:	00720500 	rsbseq	r0, r2, r0, lsl #10
    36b4:	71060000 	mrsvc	r0, (UNDEF: 6)
    36b8:	0100000b 	tsteq	r0, fp
    36bc:	00994002 	addseq	r4, r9, r2
    36c0:	00004400 	andeq	r4, r0, r0, lsl #8
    36c4:	089c0100 	ldmeq	ip, {r8}
    36c8:	07000001 	streq	r0, [r0, -r1]
    36cc:	01006370 	tsteq	r0, r0, ror r3
    36d0:	00002c02 	andeq	r2, r0, r2, lsl #24
    36d4:	001fd300 	andseq	sp, pc, r0, lsl #6
    36d8:	019e0800 	orrseq	r0, lr, r0, lsl #16
    36dc:	01180000 	tsteq	r8, r0
    36e0:	03050000 	movweq	r0, #20480	; 0x5000
    36e4:	00009e30 	andeq	r9, r0, r0, lsr lr
    36e8:	00995009 	addseq	r5, r9, r9
    36ec:	00011d00 	andeq	r1, r1, r0, lsl #26
    36f0:	99700a00 	ldmdbls	r0!, {r9, fp}^
    36f4:	01240000 	teqeq	r4, r0
    36f8:	00fe0000 	rscseq	r0, lr, r0
    36fc:	010b0000 	mrseq	r0, (UNDEF: 11)
    3700:	0b320153 	bleq	c83c54 <__bss_end__+0xc7793c>
    3704:	03055201 	movweq	r5, #20993	; 0x5201
    3708:	00009e30 	andeq	r9, r0, r0, lsr lr
    370c:	0551010b 	ldrbeq	r0, [r1, #-267]	; 0x10b
    3710:	009e4003 	addseq	r4, lr, r3
    3714:	50010b00 	andpl	r0, r1, r0, lsl #22
    3718:	9d280305 	stcls	3, cr0, [r8, #-20]!	; 0xffffffec
    371c:	020b0000 	andeq	r0, fp, #0
    3720:	7402047d 	strvc	r0, [r2], #-1149	; 0x47d
    3724:	7d020b00 	vstrvc	d0, [r2, #-0]
    3728:	6c030500 	cfstr32vs	mvfx0, [r3], {-0}
    372c:	0000009e 	muleq	r0, lr, r0
    3730:	00997409 	addseq	r7, r9, r9, lsl #8
    3734:	00013a00 	andeq	r3, r1, r0, lsl #20
    3738:	720c0000 	andvc	r0, ip, #0
    373c:	18000000 	stmdane	r0, {}	; <UNPREDICTABLE>
    3740:	0d000001 	stceq	0, cr0, [r0, #-4]
    3744:	0000006b 	andeq	r0, r0, fp, rrx
    3748:	0805000c 	stmdaeq	r5, {r2, r3}
    374c:	0e000001 	cdpeq	0, 0, cr0, cr0, cr1, {0}
    3750:	0000014b 	andeq	r0, r0, fp, asr #2
    3754:	320f1e02 	andcc	r1, pc, #2, 28
    3758:	02000005 	andeq	r0, r0, #5
    375c:	00002529 	andeq	r2, r0, r9, lsr #10
    3760:	00013a00 	andeq	r3, r1, r0, lsl #20
    3764:	00791000 	rsbseq	r1, r9, r0
    3768:	00110000 	andseq	r0, r1, r0
    376c:	0001de0e 	andeq	sp, r1, lr, lsl #28
    3770:	00660200 	rsbeq	r0, r6, r0, lsl #4
    3774:	0000013e 	andeq	r0, r0, lr, lsr r1
    3778:	12bb0004 	adcsne	r0, fp, #4
    377c:	01040000 	mrseq	r0, (UNDEF: 4)
    3780:	00000340 	andeq	r0, r0, r0, asr #6
    3784:	000ba701 	andeq	sl, fp, r1, lsl #14
    3788:	0004ce00 	andeq	ip, r4, r0, lsl #28
    378c:	00998400 	addseq	r8, r9, r0, lsl #8
    3790:	00004400 	andeq	r4, r0, r0, lsl #8
    3794:	0010e400 	andseq	lr, r0, r0, lsl #8
    3798:	05040200 	streq	r0, [r4, #-512]	; 0x200
    379c:	00746e69 	rsbseq	r6, r4, r9, ror #28
    37a0:	6f070403 	svcvs	0x00070403
    37a4:	03000000 	movweq	r0, #0
    37a8:	02d60601 	sbcseq	r0, r6, #1048576	; 0x100000
    37ac:	02030000 	andeq	r0, r3, #0
    37b0:	0002e905 	andeq	lr, r2, r5, lsl #18
    37b4:	05040300 	streq	r0, [r4, #-768]	; 0x300
    37b8:	000000a1 	andeq	r0, r0, r1, lsr #1
    37bc:	9c050803 	stcls	8, cr0, [r5], {3}
    37c0:	03000000 	movweq	r0, #0
    37c4:	02d40801 	sbcseq	r0, r4, #65536	; 0x10000
    37c8:	02030000 	andeq	r0, r3, #0
    37cc:	0001b407 	andeq	fp, r1, r7, lsl #8
    37d0:	07040300 	streq	r0, [r4, -r0, lsl #6]
    37d4:	0000006a 	andeq	r0, r0, sl, rrx
    37d8:	65070803 	strvs	r0, [r7, #-2051]	; 0x803
    37dc:	03000000 	movweq	r0, #0
    37e0:	01f00704 	mvnseq	r0, r4, lsl #14
    37e4:	01030000 	mrseq	r0, (UNDEF: 3)
    37e8:	0002dd08 	andeq	sp, r2, r8, lsl #26
    37ec:	7f040400 	svcvc	0x00040400
    37f0:	05000000 	streq	r0, [r0, #-0]
    37f4:	00000072 	andeq	r0, r0, r2, ror r0
    37f8:	000bd906 	andeq	sp, fp, r6, lsl #18
    37fc:	84020100 	strhi	r0, [r2], #-256	; 0x100
    3800:	44000099 	strmi	r0, [r0], #-153	; 0x99
    3804:	01000000 	mrseq	r0, (UNDEF: 0)
    3808:	0001089c 	muleq	r1, ip, r8
    380c:	63700700 	cmnvs	r0, #0, 14
    3810:	2c020100 	stfcss	f0, [r2], {-0}
    3814:	f1000000 	cps	#0
    3818:	0800001f 	stmdaeq	r0, {r0, r1, r2, r3, r4}
    381c:	0000019e 	muleq	r0, lr, r1
    3820:	00000118 	andeq	r0, r0, r8, lsl r1
    3824:	9e740305 	cdpls	3, 7, cr0, cr4, cr5, {0}
    3828:	94090000 	strls	r0, [r9], #-0
    382c:	1d000099 	stcne	0, cr0, [r0, #-612]	; 0xfffffd9c
    3830:	0a000001 	beq	383c <_start-0x47c4>
    3834:	000099b4 			; <UNDEFINED> instruction: 0x000099b4
    3838:	00000124 	andeq	r0, r0, r4, lsr #2
    383c:	000000fe 	strdeq	r0, [r0], -lr
    3840:	0153010b 	cmpeq	r3, fp, lsl #2
    3844:	52010b32 	andpl	r0, r1, #51200	; 0xc800
    3848:	9e740305 	cdpls	3, 7, cr0, cr4, cr5, {0}
    384c:	010b0000 	mrseq	r0, (UNDEF: 11)
    3850:	94030551 	strls	r0, [r3], #-1361	; 0x551
    3854:	0b00009e 	bleq	3ad4 <_start-0x452c>
    3858:	03055001 	movweq	r5, #20481	; 0x5001
    385c:	00009d28 	andeq	r9, r0, r8, lsr #26
    3860:	047d020b 	ldrbteq	r0, [sp], #-523	; 0x20b
    3864:	0b007402 	bleq	20874 <__bss_end__+0x1455c>
    3868:	05007d02 	streq	r7, [r0, #-3330]	; 0xd02
    386c:	009ec803 	addseq	ip, lr, r3, lsl #16
    3870:	b8090000 	stmdalt	r9, {}	; <UNPREDICTABLE>
    3874:	3a000099 	bcc	3ae0 <_start-0x4520>
    3878:	00000001 	andeq	r0, r0, r1
    387c:	0000720c 	andeq	r7, r0, ip, lsl #4
    3880:	00011800 	andeq	r1, r1, r0, lsl #16
    3884:	006b0d00 	rsbeq	r0, fp, r0, lsl #26
    3888:	001c0000 	andseq	r0, ip, r0
    388c:	00010805 	andeq	r0, r1, r5, lsl #16
    3890:	014b0e00 	cmpeq	fp, r0, lsl #28
    3894:	1e020000 	cdpne	0, 0, cr0, cr2, cr0, {0}
    3898:	0005320f 	andeq	r3, r5, pc, lsl #4
    389c:	25290200 	strcs	r0, [r9, #-512]!	; 0x200
    38a0:	3a000000 	bcc	38a8 <_start-0x4758>
    38a4:	10000001 	andne	r0, r0, r1
    38a8:	00000079 	andeq	r0, r0, r9, ror r0
    38ac:	de0e0011 	mcrle	0, 0, r0, cr14, cr1, {0}
    38b0:	02000001 	andeq	r0, r0, #1
    38b4:	Address 0x00000000000038b4 is out of bounds.


Disassembly of section .debug_abbrev:

00000000 <.debug_abbrev>:
       0:	25011101 	strcs	r1, [r1, #-257]	; 0x101
       4:	030b130e 	movweq	r1, #45838	; 0xb30e
       8:	110e1b0e 	tstne	lr, lr, lsl #22
       c:	10061201 	andne	r1, r6, r1, lsl #4
      10:	02000017 	andeq	r0, r0, #23
      14:	0b0b0024 	bleq	2c00ac <__bss_end__+0x2b3d94>
      18:	08030b3e 	stmdaeq	r3, {r1, r2, r3, r4, r5, r8, r9, fp}
      1c:	16030000 	strne	r0, [r3], -r0
      20:	3a0e0300 	bcc	380c28 <__bss_end__+0x374910>
      24:	490b3b0b 	stmdbmi	fp, {r0, r1, r3, r8, r9, fp, ip, sp}
      28:	04000013 	streq	r0, [r0], #-19
      2c:	0b0b0024 	bleq	2c00c4 <__bss_end__+0x2b3dac>
      30:	0e030b3e 	vmoveq.16	d3[0], r0
      34:	0f050000 	svceq	0x00050000
      38:	000b0b00 	andeq	r0, fp, r0, lsl #22
      3c:	000f0600 	andeq	r0, pc, r0, lsl #12
      40:	13490b0b 	movtne	r0, #39691	; 0x9b0b
      44:	26070000 	strcs	r0, [r7], -r0
      48:	00134900 	andseq	r4, r3, r0, lsl #18
      4c:	01010800 	tsteq	r1, r0, lsl #16
      50:	13011349 	movwne	r1, #4937	; 0x1349
      54:	21090000 	mrscs	r0, (UNDEF: 9)
      58:	2f134900 	svccs	0x00134900
      5c:	0a00000b 	beq	90 <_start-0x7f70>
      60:	0b0b0104 	bleq	2c0478 <__bss_end__+0x2b4160>
      64:	0b3b0b3a 	bleq	ec2d54 <__bss_end__+0xeb6a3c>
      68:	00001301 	andeq	r1, r0, r1, lsl #6
      6c:	0300280b 	movweq	r2, #2059	; 0x80b
      70:	000d1c0e 	andeq	r1, sp, lr, lsl #24
      74:	01130c00 	tsteq	r3, r0, lsl #24
      78:	0b3a050b 	bleq	e814ac <__bss_end__+0xe75194>
      7c:	13010b3b 	movwne	r0, #6971	; 0x1b3b
      80:	0d0d0000 	stceq	0, cr0, [sp, #-0]
      84:	3a0e0300 	bcc	380c8c <__bss_end__+0x374974>
      88:	490b3b0b 	stmdbmi	fp, {r0, r1, r3, r8, r9, fp, ip, sp}
      8c:	000b3813 	andeq	r3, fp, r3, lsl r8
      90:	000d0e00 	andeq	r0, sp, r0, lsl #28
      94:	0b3a0e03 	bleq	e838a8 <__bss_end__+0xe77590>
      98:	13490b3b 	movtne	r0, #39739	; 0x9b3b
      9c:	00000538 	andeq	r0, r0, r8, lsr r5
      a0:	03000d0f 	movweq	r0, #3343	; 0xd0f
      a4:	3b0b3a0e 	blcc	2ce8e4 <__bss_end__+0x2c25cc>
      a8:	0b13490b 	bleq	4d24dc <__bss_end__+0x4c61c4>
      ac:	0c0b0d0b 	stceq	13, cr0, [fp], {11}
      b0:	0005380b 	andeq	r3, r5, fp, lsl #16
      b4:	00211000 	eoreq	r1, r1, r0
      b8:	052f1349 	streq	r1, [pc, #-841]!	; fffffd77 <__bss_end__+0xffff3a5f>
      bc:	35110000 	ldrcc	r0, [r1, #-0]
      c0:	00134900 	andseq	r4, r3, r0, lsl #18
      c4:	01131200 	tsteq	r3, r0, lsl #4
      c8:	0b3a0b0b 	bleq	e82cfc <__bss_end__+0xe769e4>
      cc:	13010b3b 	movwne	r0, #6971	; 0x1b3b
      d0:	0d130000 	ldceq	0, cr0, [r3, #-0]
      d4:	3a080300 	bcc	200cdc <__bss_end__+0x1f49c4>
      d8:	490b3b0b 	stmdbmi	fp, {r0, r1, r3, r8, r9, fp, ip, sp}
      dc:	000b3813 	andeq	r3, fp, r3, lsl r8
      e0:	012e1400 	teqeq	lr, r0, lsl #8
      e4:	0b3a0e03 	bleq	e838f8 <__bss_end__+0xe775e0>
      e8:	19270b3b 	stmdbne	r7!, {r0, r1, r3, r4, r5, r8, r9, fp}
      ec:	0b201349 	bleq	804e18 <__bss_end__+0x7f8b00>
      f0:	00001301 	andeq	r1, r0, r1, lsl #6
      f4:	03000515 	movweq	r0, #1301	; 0x515
      f8:	3b0b3a08 	blcc	2ce920 <__bss_end__+0x2c2608>
      fc:	0013490b 	andseq	r4, r3, fp, lsl #18
     100:	012e1600 	teqeq	lr, r0, lsl #12
     104:	0b3a0e03 	bleq	e83918 <__bss_end__+0xe77600>
     108:	19270b3b 	stmdbne	r7!, {r0, r1, r3, r4, r5, r8, r9, fp}
     10c:	13010b20 	movwne	r0, #6944	; 0x1b20
     110:	34170000 	ldrcc	r0, [r7], #-0
     114:	3a0e0300 	bcc	380d1c <__bss_end__+0x374a04>
     118:	490b3b0b 	stmdbmi	fp, {r0, r1, r3, r8, r9, fp, ip, sp}
     11c:	18000013 	stmdane	r0, {r0, r1, r4}
     120:	08030034 	stmdaeq	r3, {r2, r4, r5}
     124:	0b3b0b3a 	bleq	ec2e14 <__bss_end__+0xeb6afc>
     128:	00001349 	andeq	r1, r0, r9, asr #6
     12c:	03003419 	movweq	r3, #1049	; 0x419
     130:	3413490e 	ldrcc	r4, [r3], #-2318	; 0x90e
     134:	000e1c19 	andeq	r1, lr, r9, lsl ip
     138:	00051a00 	andeq	r1, r5, r0, lsl #20
     13c:	0b3a0e03 	bleq	e83950 <__bss_end__+0xe77638>
     140:	13490b3b 	movtne	r0, #39739	; 0x9b3b
     144:	0b1b0000 	bleq	6c014c <__bss_end__+0x6b3e34>
     148:	00130101 	andseq	r0, r3, r1, lsl #2
     14c:	010b1c00 	tsteq	fp, r0, lsl #24
     150:	2e1d0000 	cdpcs	0, 1, cr0, cr13, cr0, {0}
     154:	3a0e0301 	bcc	380d60 <__bss_end__+0x374a48>
     158:	270b3b0b 	strcs	r3, [fp, -fp, lsl #22]
     15c:	12011119 	andne	r1, r1, #1073741830	; 0x40000006
     160:	97184006 	ldrls	r4, [r8, -r6]
     164:	13011942 	movwne	r1, #6466	; 0x1942
     168:	051e0000 	ldreq	r0, [lr, #-0]
     16c:	3a080300 	bcc	200d74 <__bss_end__+0x1f4a5c>
     170:	490b3b0b 	stmdbmi	fp, {r0, r1, r3, r8, r9, fp, ip, sp}
     174:	00170213 	andseq	r0, r7, r3, lsl r2
     178:	011d1f00 	tsteq	sp, r0, lsl #30
     17c:	01111331 	tsteq	r1, r1, lsr r3
     180:	0b580612 	bleq	16019d0 <__bss_end__+0x15f56b8>
     184:	13010b59 	movwne	r0, #7001	; 0x1b59
     188:	05200000 	streq	r0, [r0, #-0]!
     18c:	02133100 	andseq	r3, r3, #0, 2
     190:	21000017 	tstcs	r0, r7, lsl r0
     194:	1331011d 	teqne	r1, #1073741831	; 0x40000007
     198:	17550152 			; <UNDEFINED> instruction: 0x17550152
     19c:	0b590b58 	bleq	1642f04 <__bss_end__+0x1636bec>
     1a0:	00001301 	andeq	r1, r0, r1, lsl #6
     1a4:	55010b22 	strpl	r0, [r1, #-2850]	; 0xb22
     1a8:	23000017 	movwcs	r0, #23
     1ac:	13310034 	teqne	r1, #52	; 0x34
     1b0:	00001702 	andeq	r1, r0, r2, lsl #14
     1b4:	31003424 	tstcc	r0, r4, lsr #8
     1b8:	00180213 	andseq	r0, r8, r3, lsl r2
     1bc:	011d2500 	tsteq	sp, r0, lsl #10
     1c0:	01111331 	tsteq	r1, r1, lsr r3
     1c4:	0b580612 	bleq	1601a14 <__bss_end__+0x15f56fc>
     1c8:	00000b59 	andeq	r0, r0, r9, asr fp
     1cc:	01828926 	orreq	r8, r2, r6, lsr #18
     1d0:	31011100 	mrscc	r1, (UNDEF: 17)
     1d4:	27000013 	smladcs	r0, r3, r0, r0
     1d8:	01018289 	smlabbeq	r1, r9, r2, r8
     1dc:	13310111 	teqne	r1, #1073741828	; 0x40000004
     1e0:	00001301 	andeq	r1, r0, r1, lsl #6
     1e4:	01828a28 	orreq	r8, r2, r8, lsr #20
     1e8:	91180200 	tstls	r8, r0, lsl #4
     1ec:	00001842 	andeq	r1, r0, r2, asr #16
     1f0:	11010b29 	tstne	r1, r9, lsr #22
     1f4:	01061201 	tsteq	r6, r1, lsl #4
     1f8:	2a000013 	bcs	24c <_start-0x7db4>
     1fc:	0111010b 	tsteq	r1, fp, lsl #2
     200:	00000612 	andeq	r0, r0, r2, lsl r6
     204:	3f012e2b 	svccc	0x00012e2b
     208:	3a0e0319 	bcc	380e74 <__bss_end__+0x374b5c>
     20c:	270b3b0b 	strcs	r3, [fp, -fp, lsl #22]
     210:	11134919 	tstne	r3, r9, lsl r9
     214:	40061201 	andmi	r1, r6, r1, lsl #4
     218:	19429718 	stmdbne	r2, {r3, r4, r8, r9, sl, ip, pc}^
     21c:	00001301 	andeq	r1, r0, r1, lsl #6
     220:	0300342c 	movweq	r3, #1068	; 0x42c
     224:	3413490e 	ldrcc	r4, [r3], #-2318	; 0x90e
     228:	00180219 	andseq	r0, r8, r9, lsl r2
     22c:	00342d00 	eorseq	r2, r4, r0, lsl #26
     230:	0b3a0e03 	bleq	e83a44 <__bss_end__+0xe7772c>
     234:	13490b3b 	movtne	r0, #39739	; 0x9b3b
     238:	00001702 	andeq	r1, r0, r2, lsl #14
     23c:	0182892e 	orreq	r8, r2, lr, lsr #18
     240:	31011101 	tstcc	r1, r1, lsl #2
     244:	2f000013 	svccs	0x00000013
     248:	193f012e 	ldmdbne	pc!, {r1, r2, r3, r5, r8}	; <UNPREDICTABLE>
     24c:	0b3a0e03 	bleq	e83a60 <__bss_end__+0xe77748>
     250:	19270b3b 	stmdbne	r7!, {r0, r1, r3, r4, r5, r8, r9, fp}
     254:	06120111 			; <UNDEFINED> instruction: 0x06120111
     258:	42971840 	addsmi	r1, r7, #64, 16	; 0x400000
     25c:	00130119 	andseq	r0, r3, r9, lsl r1
     260:	00053000 	andeq	r3, r5, r0
     264:	18021331 	stmdane	r2, {r0, r4, r5, r8, r9, ip}
     268:	34310000 	ldrtcc	r0, [r1], #-0
     26c:	1c133100 	ldfnes	f3, [r3], {-0}
     270:	3200000b 	andcc	r0, r0, #11
     274:	13310005 	teqne	r1, #5
     278:	00000b1c 	andeq	r0, r0, ip, lsl fp
     27c:	03003433 	movweq	r3, #1075	; 0x433
     280:	3b0b3a08 	blcc	2ceaa8 <__bss_end__+0x2c2790>
     284:	1c13490b 	ldcne	9, cr4, [r3], {11}
     288:	3400000b 	strcc	r0, [r0], #-11
     28c:	0e030034 	mcreq	0, 0, r0, cr3, cr4, {1}
     290:	0b3b0b3a 	bleq	ec2f80 <__bss_end__+0xeb6c68>
     294:	061c1349 	ldreq	r1, [ip], -r9, asr #6
     298:	34350000 	ldrtcc	r0, [r5], #-0
     29c:	3a0e0300 	bcc	380ea4 <__bss_end__+0x374b8c>
     2a0:	490b3b0b 	stmdbmi	fp, {r0, r1, r3, r8, r9, fp, ip, sp}
     2a4:	00180213 	andseq	r0, r8, r3, lsl r2
     2a8:	00343600 	eorseq	r3, r4, r0, lsl #12
     2ac:	0b3a0803 	bleq	e822c0 <__bss_end__+0xe75fa8>
     2b0:	13490b3b 	movtne	r0, #39739	; 0x9b3b
     2b4:	00001802 	andeq	r1, r0, r2, lsl #16
     2b8:	03003437 	movweq	r3, #1079	; 0x437
     2bc:	3b0b3a0e 	blcc	2ceafc <__bss_end__+0x2c27e4>
     2c0:	3f13490b 	svccc	0x0013490b
     2c4:	00180219 	andseq	r0, r8, r9, lsl r2
     2c8:	002e3800 	eoreq	r3, lr, r0, lsl #16
     2cc:	0e03193f 	mcreq	9, 0, r1, cr3, cr15, {1}
     2d0:	0b3b0b3a 	bleq	ec2fc0 <__bss_end__+0xeb6ca8>
     2d4:	193c1927 	ldmdbne	ip!, {r0, r1, r2, r5, r8, fp, ip}
     2d8:	2e390000 	cdpcs	0, 3, cr0, cr9, cr0, {0}
     2dc:	03193f01 	tsteq	r9, #1, 30
     2e0:	3b0b3a0e 	blcc	2ceb20 <__bss_end__+0x2c2808>
     2e4:	4919270b 	ldmdbmi	r9, {r0, r1, r3, r8, r9, sl, sp}
     2e8:	01193c13 	tsteq	r9, r3, lsl ip
     2ec:	3a000013 	bcc	340 <_start-0x7cc0>
     2f0:	13490005 	movtne	r0, #36869	; 0x9005
     2f4:	183b0000 	ldmdane	fp!, {}	; <UNPREDICTABLE>
     2f8:	3c000000 	stccc	0, cr0, [r0], {-0}
     2fc:	193f012e 	ldmdbne	pc!, {r1, r2, r3, r5, r8}	; <UNPREDICTABLE>
     300:	0b3a0e03 	bleq	e83b14 <__bss_end__+0xe777fc>
     304:	19270b3b 	stmdbne	r7!, {r0, r1, r3, r4, r5, r8, r9, fp}
     308:	1301193c 	movwne	r1, #6460	; 0x193c
     30c:	01000000 	mrseq	r0, (UNDEF: 0)
     310:	0e250111 	mcreq	1, 1, r0, cr5, cr1, {0}
     314:	0e030b13 	vmoveq.32	d3[0], r0
     318:	01110e1b 	tsteq	r1, fp, lsl lr
     31c:	17100612 			; <UNDEFINED> instruction: 0x17100612
     320:	24020000 	strcs	r0, [r2], #-0
     324:	3e0b0b00 	vmlacc.f64	d0, d11, d0
     328:	000e030b 	andeq	r0, lr, fp, lsl #6
     32c:	00240300 	eoreq	r0, r4, r0, lsl #6
     330:	0b3e0b0b 	bleq	f82f64 <__bss_end__+0xf76c4c>
     334:	00000803 	andeq	r0, r0, r3, lsl #16
     338:	0b000f04 	bleq	3f50 <_start-0x40b0>
     33c:	0500000b 	streq	r0, [r0, #-11]
     340:	0b0b000f 	bleq	2c0384 <__bss_end__+0x2b406c>
     344:	00001349 	andeq	r1, r0, r9, asr #6
     348:	03001606 	movweq	r1, #1542	; 0x606
     34c:	3b0b3a0e 	blcc	2ceb8c <__bss_end__+0x2c2874>
     350:	0013490b 	andseq	r4, r3, fp, lsl #18
     354:	012e0700 	teqeq	lr, r0, lsl #14
     358:	0e03193f 	mcreq	9, 0, r1, cr3, cr15, {1}
     35c:	0b3b0b3a 	bleq	ec304c <__bss_end__+0xeb6d34>
     360:	13491927 	movtne	r1, #39207	; 0x9927
     364:	06120111 			; <UNDEFINED> instruction: 0x06120111
     368:	42971840 	addsmi	r1, r7, #64, 16	; 0x400000
     36c:	08000019 	stmdaeq	r0, {r0, r3, r4}
     370:	08030005 	stmdaeq	r3, {r0, r2}
     374:	0b3b0b3a 	bleq	ec3064 <__bss_end__+0xeb6d4c>
     378:	18021349 	stmdane	r2, {r0, r3, r6, r8, r9, ip}
     37c:	05090000 	streq	r0, [r9, #-0]
     380:	3a080300 	bcc	200f88 <__bss_end__+0x1f4c70>
     384:	490b3b0b 	stmdbmi	fp, {r0, r1, r3, r8, r9, fp, ip, sp}
     388:	00170213 	andseq	r0, r7, r3, lsl r2
     38c:	00340a00 	eorseq	r0, r4, r0, lsl #20
     390:	0b3a0803 	bleq	e823a4 <__bss_end__+0xe7608c>
     394:	13490b3b 	movtne	r0, #39739	; 0x9b3b
     398:	00001702 	andeq	r1, r0, r2, lsl #14
     39c:	0300340b 	movweq	r3, #1035	; 0x40b
     3a0:	3b0b3a08 	blcc	2cebc8 <__bss_end__+0x2c28b0>
     3a4:	0213490b 	andseq	r4, r3, #180224	; 0x2c000
     3a8:	00000018 	andeq	r0, r0, r8, lsl r0
     3ac:	25011101 	strcs	r1, [r1, #-257]	; 0x101
     3b0:	030b130e 	movweq	r1, #45838	; 0xb30e
     3b4:	110e1b0e 	tstne	lr, lr, lsl #22
     3b8:	10061201 	andne	r1, r6, r1, lsl #4
     3bc:	02000017 	andeq	r0, r0, #23
     3c0:	0e030016 	mcreq	0, 0, r0, cr3, cr6, {0}
     3c4:	0b3b0b3a 	bleq	ec30b4 <__bss_end__+0xeb6d9c>
     3c8:	00001349 	andeq	r1, r0, r9, asr #6
     3cc:	03011303 	movweq	r1, #4867	; 0x1303
     3d0:	3a0b0b0e 	bcc	2c3010 <__bss_end__+0x2b6cf8>
     3d4:	010b3b0b 	tsteq	fp, fp, lsl #22
     3d8:	04000013 	streq	r0, [r0], #-19
     3dc:	0e03000d 	cdpeq	0, 0, cr0, cr3, cr13, {0}
     3e0:	0b381349 	bleq	e0510c <__bss_end__+0xdf8df4>
     3e4:	00001934 	andeq	r1, r0, r4, lsr r9
     3e8:	0b000f05 	bleq	4004 <_start-0x3ffc>
     3ec:	0600000b 	streq	r0, [r0], -fp
     3f0:	0b0b0024 	bleq	2c0488 <__bss_end__+0x2b4170>
     3f4:	08030b3e 	stmdaeq	r3, {r1, r2, r3, r4, r5, r8, r9, fp}
     3f8:	24070000 	strcs	r0, [r7], #-0
     3fc:	3e0b0b00 	vmlacc.f64	d0, d11, d0
     400:	000e030b 	andeq	r0, lr, fp, lsl #6
     404:	000f0800 	andeq	r0, pc, r0, lsl #16
     408:	13490b0b 	movtne	r0, #39691	; 0x9b0b
     40c:	26090000 	strcs	r0, [r9], -r0
     410:	00134900 	andseq	r4, r3, r0, lsl #18
     414:	012e0a00 	teqeq	lr, r0, lsl #20
     418:	0e03193f 	mcreq	9, 0, r1, cr3, cr15, {1}
     41c:	0b3b0b3a 	bleq	ec310c <__bss_end__+0xeb6df4>
     420:	13491927 	movtne	r1, #39207	; 0x9927
     424:	06120111 			; <UNDEFINED> instruction: 0x06120111
     428:	42971840 	addsmi	r1, r7, #64, 16	; 0x400000
     42c:	00130119 	andseq	r0, r3, r9, lsl r1
     430:	00050b00 	andeq	r0, r5, r0, lsl #22
     434:	0b3a0803 	bleq	e82448 <__bss_end__+0xe76130>
     438:	13490b3b 	movtne	r0, #39739	; 0x9b3b
     43c:	00001802 	andeq	r1, r0, r2, lsl #16
     440:	0000180c 	andeq	r1, r0, ip, lsl #16
     444:	00340d00 	eorseq	r0, r4, r0, lsl #26
     448:	0b3a0803 	bleq	e8245c <__bss_end__+0xe76144>
     44c:	13490b3b 	movtne	r0, #39739	; 0x9b3b
     450:	00001802 	andeq	r1, r0, r2, lsl #16
     454:	0300340e 	movweq	r3, #1038	; 0x40e
     458:	3b0b3a0e 	blcc	2cec98 <__bss_end__+0x2c2980>
     45c:	0213490b 	andseq	r4, r3, #180224	; 0x2c000
     460:	0f000018 	svceq	0x00000018
     464:	08030034 	stmdaeq	r3, {r2, r4, r5}
     468:	0b3b0b3a 	bleq	ec3158 <__bss_end__+0xeb6e40>
     46c:	17021349 	strne	r1, [r2, -r9, asr #6]
     470:	89100000 	ldmdbhi	r0, {}	; <UNPREDICTABLE>
     474:	11010182 	smlabbne	r1, r2, r1, r0
     478:	01133101 	tsteq	r3, r1, lsl #2
     47c:	11000013 	tstne	r0, r3, lsl r0
     480:	0001828a 	andeq	r8, r1, sl, lsl #5
     484:	42911802 	addsmi	r1, r1, #131072	; 0x20000
     488:	12000018 	andne	r0, r0, #24
     48c:	01018289 	smlabbeq	r1, r9, r2, r8
     490:	00000111 	andeq	r0, r0, r1, lsl r1
     494:	49010113 	stmdbmi	r1, {r0, r1, r4, r8}
     498:	00130113 	andseq	r0, r3, r3, lsl r1
     49c:	00211400 	eoreq	r1, r1, r0, lsl #8
     4a0:	052f1349 	streq	r1, [pc, #-841]!	; 15f <_start-0x7ea1>
     4a4:	15150000 	ldrne	r0, [r5, #-0]
     4a8:	49192701 	ldmdbmi	r9, {r0, r8, r9, sl, sp}
     4ac:	00130113 	andseq	r0, r3, r3, lsl r1
     4b0:	00051600 	andeq	r1, r5, r0, lsl #12
     4b4:	00001349 	andeq	r1, r0, r9, asr #6
     4b8:	03003417 	movweq	r3, #1047	; 0x417
     4bc:	3b0b3a0e 	blcc	2cecfc <__bss_end__+0x2c29e4>
     4c0:	3f13490b 	svccc	0x0013490b
     4c4:	00193c19 	andseq	r3, r9, r9, lsl ip
     4c8:	012e1800 	teqeq	lr, r0, lsl #16
     4cc:	0e03193f 	mcreq	9, 0, r1, cr3, cr15, {1}
     4d0:	0b3b0b3a 	bleq	ec31c0 <__bss_end__+0xeb6ea8>
     4d4:	13491927 	movtne	r1, #39207	; 0x9927
     4d8:	0000193c 	andeq	r1, r0, ip, lsr r9
     4dc:	01110100 	tsteq	r1, r0, lsl #2
     4e0:	0b130e25 	bleq	4c3d7c <__bss_end__+0x4b7a64>
     4e4:	0e1b0e03 	cdpeq	14, 1, cr0, cr11, cr3, {0}
     4e8:	06120111 			; <UNDEFINED> instruction: 0x06120111
     4ec:	00001710 	andeq	r1, r0, r0, lsl r7
     4f0:	0b002402 	bleq	9500 <gpio_event_detected+0x74>
     4f4:	030b3e0b 	movweq	r3, #48651	; 0xbe0b
     4f8:	03000008 	movweq	r0, #8
     4fc:	0b0b0024 	bleq	2c0594 <__bss_end__+0x2b427c>
     500:	0e030b3e 	vmoveq.16	d3[0], r0
     504:	2e040000 	cdpcs	0, 0, cr0, cr4, cr0, {0}
     508:	3a0e0301 	bcc	381114 <__bss_end__+0x374dfc>
     50c:	270b3b0b 	strcs	r3, [fp, -fp, lsl #22]
     510:	11134919 	tstne	r3, r9, lsl r9
     514:	40061201 	andmi	r1, r6, r1, lsl #4
     518:	19429718 	stmdbne	r2, {r3, r4, r8, r9, sl, ip, pc}^
     51c:	00001301 	andeq	r1, r0, r1, lsl #6
     520:	03000505 	movweq	r0, #1285	; 0x505
     524:	3b0b3a08 	blcc	2ced4c <__bss_end__+0x2c2a34>
     528:	0213490b 	andseq	r4, r3, #180224	; 0x2c000
     52c:	06000017 			; <UNDEFINED> instruction: 0x06000017
     530:	01018289 	smlabbeq	r1, r9, r2, r8
     534:	13310111 	teqne	r1, #1073741828	; 0x40000004
     538:	8a070000 	bhi	1c0540 <__bss_end__+0x1b4228>
     53c:	02000182 	andeq	r0, r0, #-2147483616	; 0x80000020
     540:	18429118 	stmdane	r2, {r3, r4, r8, ip, pc}^
     544:	2e080000 	cdpcs	0, 0, cr0, cr8, cr0, {0}
     548:	03193f00 	tsteq	r9, #0, 30
     54c:	3b0b3a0e 	blcc	2ced8c <__bss_end__+0x2c2a74>
     550:	1119270b 	tstne	r9, fp, lsl #14
     554:	40061201 	andmi	r1, r6, r1, lsl #4
     558:	19429718 	stmdbne	r2, {r3, r4, r8, r9, sl, ip, pc}^
     55c:	2e090000 	cdpcs	0, 0, cr0, cr9, cr0, {0}
     560:	03193f01 	tsteq	r9, #1, 30
     564:	3b0b3a0e 	blcc	2ceda4 <__bss_end__+0x2c2a8c>
     568:	1119270b 	tstne	r9, fp, lsl #14
     56c:	40061201 	andmi	r1, r6, r1, lsl #4
     570:	19429718 	stmdbne	r2, {r3, r4, r8, r9, sl, ip, pc}^
     574:	00001301 	andeq	r1, r0, r1, lsl #6
     578:	0300050a 	movweq	r0, #1290	; 0x50a
     57c:	3b0b3a08 	blcc	2ceda4 <__bss_end__+0x2c2a8c>
     580:	0213490b 	andseq	r4, r3, #180224	; 0x2c000
     584:	0b000018 	bleq	5ec <_start-0x7a14>
     588:	19270115 	stmdbne	r7!, {r0, r2, r4, r8}
     58c:	13011349 	movwne	r1, #4937	; 0x1349
     590:	050c0000 	streq	r0, [ip, #-0]
     594:	00134900 	andseq	r4, r3, r0, lsl #18
     598:	000f0d00 	andeq	r0, pc, r0, lsl #26
     59c:	13490b0b 	movtne	r0, #39691	; 0x9b0b
     5a0:	340e0000 	strcc	r0, [lr], #-0
     5a4:	3a0e0300 	bcc	3811ac <__bss_end__+0x374e94>
     5a8:	490b3b0b 	stmdbmi	fp, {r0, r1, r3, r8, r9, fp, ip, sp}
     5ac:	02193f13 	andseq	r3, r9, #19, 30	; 0x4c
     5b0:	0f000018 	svceq	0x00000018
     5b4:	193f012e 	ldmdbne	pc!, {r1, r2, r3, r5, r8}	; <UNPREDICTABLE>
     5b8:	0b3a0e03 	bleq	e83dcc <__bss_end__+0xe77ab4>
     5bc:	19270b3b 	stmdbne	r7!, {r0, r1, r3, r4, r5, r8, r9, fp}
     5c0:	0000193c 	andeq	r1, r0, ip, lsr r9
     5c4:	01110100 	tsteq	r1, r0, lsl #2
     5c8:	0b130e25 	bleq	4c3e64 <__bss_end__+0x4b7b4c>
     5cc:	0e1b0e03 	cdpeq	14, 1, cr0, cr11, cr3, {0}
     5d0:	06120111 			; <UNDEFINED> instruction: 0x06120111
     5d4:	00001710 	andeq	r1, r0, r0, lsl r7
     5d8:	0b002402 	bleq	95e8 <uart_init+0x80>
     5dc:	030b3e0b 	movweq	r3, #48651	; 0xbe0b
     5e0:	03000008 	movweq	r0, #8
     5e4:	0b0b0024 	bleq	2c067c <__bss_end__+0x2b4364>
     5e8:	0e030b3e 	vmoveq.16	d3[0], r0
     5ec:	0f040000 	svceq	0x00040000
     5f0:	490b0b00 	stmdbmi	fp, {r8, r9, fp}
     5f4:	05000013 	streq	r0, [r0, #-19]
     5f8:	13490026 	movtne	r0, #36902	; 0x9026
     5fc:	2e060000 	cdpcs	0, 0, cr0, cr6, cr0, {0}
     600:	03193f01 	tsteq	r9, #1, 30
     604:	3b0b3a0e 	blcc	2cee44 <__bss_end__+0x2c2b2c>
     608:	4919270b 	ldmdbmi	r9, {r0, r1, r3, r8, r9, sl, sp}
     60c:	12011113 	andne	r1, r1, #-1073741820	; 0xc0000004
     610:	96184006 	ldrls	r4, [r8], -r6
     614:	13011942 	movwne	r1, #6466	; 0x1942
     618:	05070000 	streq	r0, [r7, #-0]
     61c:	3a080300 	bcc	201224 <__bss_end__+0x1f4f0c>
     620:	490b3b0b 	stmdbmi	fp, {r0, r1, r3, r8, r9, fp, ip, sp}
     624:	00170213 	andseq	r0, r7, r3, lsl r2
     628:	01150800 	tsteq	r5, r0, lsl #16
     62c:	13491927 	movtne	r1, #39207	; 0x9927
     630:	00001301 	andeq	r1, r0, r1, lsl #6
     634:	49000509 	stmdbmi	r0, {r0, r3, r8, sl}
     638:	0a000013 	beq	68c <_start-0x7974>
     63c:	0e030034 	mcreq	0, 0, r0, cr3, cr4, {1}
     640:	0b3b0b3a 	bleq	ec3330 <__bss_end__+0xeb7018>
     644:	193f1349 	ldmdbne	pc!, {r0, r3, r6, r8, r9, ip}	; <UNPREDICTABLE>
     648:	0000193c 	andeq	r1, r0, ip, lsr r9
     64c:	0300340b 	movweq	r3, #1035	; 0x40b
     650:	3b0b3a0e 	blcc	2cee90 <__bss_end__+0x2c2b78>
     654:	3f13490b 	svccc	0x0013490b
     658:	00180219 	andseq	r0, r8, r9, lsl r2
     65c:	11010000 	mrsne	r0, (UNDEF: 1)
     660:	130e2501 	movwne	r2, #58625	; 0xe501
     664:	1b0e030b 	blne	381298 <__bss_end__+0x374f80>
     668:	1201110e 	andne	r1, r1, #-2147483645	; 0x80000003
     66c:	00171006 	andseq	r1, r7, r6
     670:	00240200 	eoreq	r0, r4, r0, lsl #4
     674:	0b3e0b0b 	bleq	f832a8 <__bss_end__+0xf76f90>
     678:	00000803 	andeq	r0, r0, r3, lsl #16
     67c:	0b002403 	bleq	9690 <uart_has_data>
     680:	030b3e0b 	movweq	r3, #48651	; 0xbe0b
     684:	0400000e 	streq	r0, [r0], #-14
     688:	0b0b000f 	bleq	2c06cc <__bss_end__+0x2b43b4>
     68c:	0f050000 	svceq	0x00050000
     690:	490b0b00 	stmdbmi	fp, {r8, r9, fp}
     694:	06000013 			; <UNDEFINED> instruction: 0x06000013
     698:	13490026 	movtne	r0, #36902	; 0x9026
     69c:	16070000 	strne	r0, [r7], -r0
     6a0:	3a0e0300 	bcc	3812a8 <__bss_end__+0x374f90>
     6a4:	490b3b0b 	stmdbmi	fp, {r0, r1, r3, r8, r9, fp, ip, sp}
     6a8:	08000013 	stmdaeq	r0, {r0, r1, r4}
     6ac:	0e030113 	mcreq	1, 0, r0, cr3, cr3, {0}
     6b0:	0b3a0b0b 	bleq	e832e4 <__bss_end__+0xe76fcc>
     6b4:	13010b3b 	movwne	r0, #6971	; 0x1b3b
     6b8:	0d090000 	stceq	0, cr0, [r9, #-0]
     6bc:	490e0300 	stmdbmi	lr, {r8, r9}
     6c0:	340b3813 	strcc	r3, [fp], #-2067	; 0x813
     6c4:	0a000019 	beq	730 <_start-0x78d0>
     6c8:	0e03012e 	adfeqsp	f0, f3, #0.5
     6cc:	0b3b0b3a 	bleq	ec33bc <__bss_end__+0xeb70a4>
     6d0:	13491927 	movtne	r1, #39207	; 0x9927
     6d4:	06120111 			; <UNDEFINED> instruction: 0x06120111
     6d8:	42971840 	addsmi	r1, r7, #64, 16	; 0x400000
     6dc:	00130119 	andseq	r0, r3, r9, lsl r1
     6e0:	00050b00 	andeq	r0, r5, r0, lsl #22
     6e4:	0b3a0803 	bleq	e826f8 <__bss_end__+0xe763e0>
     6e8:	13490b3b 	movtne	r0, #39739	; 0x9b3b
     6ec:	00001702 	andeq	r1, r0, r2, lsl #14
     6f0:	03012e0c 	movweq	r2, #7692	; 0x1e0c
     6f4:	3b0b3a08 	blcc	2cef1c <__bss_end__+0x2c2c04>
     6f8:	4919270b 	ldmdbmi	r9, {r0, r1, r3, r8, r9, sl, sp}
     6fc:	12011113 	andne	r1, r1, #-1073741820	; 0xc0000004
     700:	97184006 	ldrls	r4, [r8, -r6]
     704:	13011942 	movwne	r1, #6466	; 0x1942
     708:	050d0000 	streq	r0, [sp, #-0]
     70c:	3a0e0300 	bcc	381314 <__bss_end__+0x374ffc>
     710:	490b3b0b 	stmdbmi	fp, {r0, r1, r3, r8, r9, fp, ip, sp}
     714:	00170213 	andseq	r0, r7, r3, lsl r2
     718:	00050e00 	andeq	r0, r5, r0, lsl #28
     71c:	0b3a0e03 	bleq	e83f30 <__bss_end__+0xe77c18>
     720:	13490b3b 	movtne	r0, #39739	; 0x9b3b
     724:	00001802 	andeq	r1, r0, r2, lsl #16
     728:	0300340f 	movweq	r3, #1039	; 0x40f
     72c:	3b0b3a08 	blcc	2cef54 <__bss_end__+0x2c2c3c>
     730:	0213490b 	andseq	r4, r3, #180224	; 0x2c000
     734:	10000018 	andne	r0, r0, r8, lsl r0
     738:	08030034 	stmdaeq	r3, {r2, r4, r5}
     73c:	0b3b0b3a 	bleq	ec342c <__bss_end__+0xeb7114>
     740:	17021349 	strne	r1, [r2, -r9, asr #6]
     744:	34110000 	ldrcc	r0, [r1], #-0
     748:	490e0300 	stmdbmi	lr, {r8, r9}
     74c:	02193413 	andseq	r3, r9, #318767104	; 0x13000000
     750:	12000018 	andne	r0, r0, #24
     754:	0111010b 	tsteq	r1, fp, lsl #2
     758:	13010612 	movwne	r0, #5650	; 0x1612
     75c:	34130000 	ldrcc	r0, [r3], #-0
     760:	3a0e0300 	bcc	381368 <__bss_end__+0x375050>
     764:	490b3b0b 	stmdbmi	fp, {r0, r1, r3, r8, r9, fp, ip, sp}
     768:	00170213 	andseq	r0, r7, r3, lsl r2
     76c:	82891400 	addhi	r1, r9, #0, 8
     770:	01110001 	tsteq	r1, r1
     774:	00001331 	andeq	r1, r0, r1, lsr r3
     778:	01828915 	orreq	r8, r2, r5, lsl r9
     77c:	31011101 	tstcc	r1, r1, lsl #2
     780:	00130113 	andseq	r0, r3, r3, lsl r1
     784:	828a1600 	addhi	r1, sl, #0, 12
     788:	18020001 	stmdane	r2, {r0}
     78c:	00184291 	mulseq	r8, r1, r2
     790:	82891700 	addhi	r1, r9, #0, 14
     794:	01110101 	tsteq	r1, r1, lsl #2
     798:	00001331 	andeq	r1, r0, r1, lsr r3
     79c:	49010118 	stmdbmi	r1, {r3, r4, r8}
     7a0:	00130113 	andseq	r0, r3, r3, lsl r1
     7a4:	00211900 	eoreq	r1, r1, r0, lsl #18
     7a8:	0b2f1349 	bleq	bc54d4 <__bss_end__+0xbb91bc>
     7ac:	2e1a0000 	cdpcs	0, 1, cr0, cr10, cr0, {0}
     7b0:	03193f01 	tsteq	r9, #1, 30
     7b4:	3b0b3a0e 	blcc	2ceff4 <__bss_end__+0x2c2cdc>
     7b8:	1119270b 	tstne	r9, fp, lsl #14
     7bc:	40061201 	andmi	r1, r6, r1, lsl #4
     7c0:	19429718 	stmdbne	r2, {r3, r4, r8, r9, sl, ip, pc}^
     7c4:	00001301 	andeq	r1, r0, r1, lsl #6
     7c8:	2701151b 	smladcs	r1, fp, r5, r1
     7cc:	01134919 	tsteq	r3, r9, lsl r9
     7d0:	1c000013 	stcne	0, cr0, [r0], {19}
     7d4:	13490005 	movtne	r0, #36869	; 0x9005
     7d8:	2e1d0000 	cdpcs	0, 1, cr0, cr13, cr0, {0}
     7dc:	03193f01 	tsteq	r9, #1, 30
     7e0:	3b0b3a0e 	blcc	2cf020 <__bss_end__+0x2c2d08>
     7e4:	4919270b 	ldmdbmi	r9, {r0, r1, r3, r8, r9, sl, sp}
     7e8:	12011113 	andne	r1, r1, #-1073741820	; 0xc0000004
     7ec:	97184006 	ldrls	r4, [r8, -r6]
     7f0:	13011942 	movwne	r1, #6466	; 0x1942
     7f4:	0b1e0000 	bleq	7807fc <__bss_end__+0x7744e4>
     7f8:	00175501 	andseq	r5, r7, r1, lsl #10
     7fc:	00341f00 	eorseq	r1, r4, r0, lsl #30
     800:	0b3a0e03 	bleq	e84014 <__bss_end__+0xe77cfc>
     804:	13490b3b 	movtne	r0, #39739	; 0x9b3b
     808:	193c193f 	ldmdbne	ip!, {r0, r1, r2, r3, r4, r5, r8, fp, ip}
     80c:	2e200000 	cdpcs	0, 2, cr0, cr0, cr0, {0}
     810:	03193f00 	tsteq	r9, #0, 30
     814:	3b0b3a0e 	blcc	2cf054 <__bss_end__+0x2c2d3c>
     818:	3c19270b 	ldccc	7, cr2, [r9], {11}
     81c:	21000019 	tstcs	r0, r9, lsl r0
     820:	193f012e 	ldmdbne	pc!, {r1, r2, r3, r5, r8}	; <UNPREDICTABLE>
     824:	0b3a0e03 	bleq	e84038 <__bss_end__+0xe77d20>
     828:	19270b3b 	stmdbne	r7!, {r0, r1, r3, r4, r5, r8, r9, fp}
     82c:	193c1349 	ldmdbne	ip!, {r0, r3, r6, r8, r9, ip}
     830:	00001301 	andeq	r1, r0, r1, lsl #6
     834:	00001822 	andeq	r1, r0, r2, lsr #16
     838:	11010000 	mrsne	r0, (UNDEF: 1)
     83c:	130e2501 	movwne	r2, #58625	; 0xe501
     840:	1b0e030b 	blne	381474 <__bss_end__+0x37515c>
     844:	1201110e 	andne	r1, r1, #-2147483645	; 0x80000003
     848:	00171006 	andseq	r1, r7, r6
     84c:	00240200 	eoreq	r0, r4, r0, lsl #4
     850:	0b3e0b0b 	bleq	f83484 <__bss_end__+0xf7716c>
     854:	00000803 	andeq	r0, r0, r3, lsl #16
     858:	0b002403 	bleq	986c <software_interrupt_asm+0x14>
     85c:	030b3e0b 	movweq	r3, #48651	; 0xbe0b
     860:	0400000e 	streq	r0, [r0], #-14
     864:	193f012e 	ldmdbne	pc!, {r1, r2, r3, r5, r8}	; <UNPREDICTABLE>
     868:	0b3a0e03 	bleq	e8407c <__bss_end__+0xe77d64>
     86c:	19270b3b 	stmdbne	r7!, {r0, r1, r3, r4, r5, r8, r9, fp}
     870:	06120111 			; <UNDEFINED> instruction: 0x06120111
     874:	42971840 	addsmi	r1, r7, #64, 16	; 0x400000
     878:	00130119 	andseq	r0, r3, r9, lsl r1
     87c:	00340500 	eorseq	r0, r4, r0, lsl #10
     880:	0b3a0803 	bleq	e82894 <__bss_end__+0xe7657c>
     884:	13490b3b 	movtne	r0, #39739	; 0x9b3b
     888:	00001702 	andeq	r1, r0, r2, lsl #14
     88c:	3f012e06 	svccc	0x00012e06
     890:	3a0e0319 	bcc	3814fc <__bss_end__+0x3751e4>
     894:	270b3b0b 	strcs	r3, [fp, -fp, lsl #22]
     898:	12011119 	andne	r1, r1, #1073741830	; 0x40000006
     89c:	97184006 	ldrls	r4, [r8, -r6]
     8a0:	00001942 	andeq	r1, r0, r2, asr #18
     8a4:	01110100 	tsteq	r1, r0, lsl #2
     8a8:	0b130e25 	bleq	4c4144 <__bss_end__+0x4b7e2c>
     8ac:	0e1b0e03 	cdpeq	14, 1, cr0, cr11, cr3, {0}
     8b0:	06120111 			; <UNDEFINED> instruction: 0x06120111
     8b4:	00001710 	andeq	r1, r0, r0, lsl r7
     8b8:	0b002402 	bleq	98c8 <data_abort_vector+0x10>
     8bc:	030b3e0b 	movweq	r3, #48651	; 0xbe0b
     8c0:	03000008 	movweq	r0, #8
     8c4:	0b0b0024 	bleq	2c095c <__bss_end__+0x2b4644>
     8c8:	0e030b3e 	vmoveq.16	d3[0], r0
     8cc:	0f040000 	svceq	0x00040000
     8d0:	490b0b00 	stmdbmi	fp, {r8, r9, fp}
     8d4:	05000013 	streq	r0, [r0, #-19]
     8d8:	13490026 	movtne	r0, #36902	; 0x9026
     8dc:	2e060000 	cdpcs	0, 0, cr0, cr6, cr0, {0}
     8e0:	03193f01 	tsteq	r9, #1, 30
     8e4:	3b0b3a0e 	blcc	2cf124 <__bss_end__+0x2c2e0c>
     8e8:	1119270b 	tstne	r9, fp, lsl #14
     8ec:	40061201 	andmi	r1, r6, r1, lsl #4
     8f0:	19429718 	stmdbne	r2, {r3, r4, r8, r9, sl, ip, pc}^
     8f4:	00001301 	andeq	r1, r0, r1, lsl #6
     8f8:	01828907 	orreq	r8, r2, r7, lsl #18
     8fc:	01011101 	tsteq	r1, r1, lsl #2
     900:	08000013 	stmdaeq	r0, {r0, r1, r4}
     904:	0001828a 	andeq	r8, r1, sl, lsl #5
     908:	42911802 	addsmi	r1, r1, #131072	; 0x20000
     90c:	09000018 	stmdbeq	r0, {r3, r4}
     910:	01018289 	smlabbeq	r1, r9, r2, r8
     914:	13310111 	teqne	r1, #1073741828	; 0x40000004
     918:	00001301 	andeq	r1, r0, r1, lsl #6
     91c:	0182890a 	orreq	r8, r2, sl, lsl #18
     920:	31011100 	mrscc	r1, (UNDEF: 17)
     924:	0b000013 	bleq	978 <_start-0x7688>
     928:	19270115 	stmdbne	r7!, {r0, r2, r4, r8}
     92c:	13011349 	movwne	r1, #4937	; 0x1349
     930:	050c0000 	streq	r0, [ip, #-0]
     934:	00134900 	andseq	r4, r3, r0, lsl #18
     938:	00340d00 	eorseq	r0, r4, r0, lsl #26
     93c:	0b3a0e03 	bleq	e84150 <__bss_end__+0xe77e38>
     940:	13490b3b 	movtne	r0, #39739	; 0x9b3b
     944:	193c193f 	ldmdbne	ip!, {r0, r1, r2, r3, r4, r5, r8, fp, ip}
     948:	2e0e0000 	cdpcs	0, 0, cr0, cr14, cr0, {0}
     94c:	03193f01 	tsteq	r9, #1, 30
     950:	3b0b3a0e 	blcc	2cf190 <__bss_end__+0x2c2e78>
     954:	3c19270b 	ldccc	7, cr2, [r9], {11}
     958:	00130119 	andseq	r0, r3, r9, lsl r1
     95c:	002e0f00 	eoreq	r0, lr, r0, lsl #30
     960:	0e03193f 	mcreq	9, 0, r1, cr3, cr15, {1}
     964:	0b3b0b3a 	bleq	ec3654 <__bss_end__+0xeb733c>
     968:	193c1927 	ldmdbne	ip!, {r0, r1, r2, r5, r8, fp, ip}
     96c:	01000000 	mrseq	r0, (UNDEF: 0)
     970:	0e250111 	mcreq	1, 1, r0, cr5, cr1, {0}
     974:	0e030b13 	vmoveq.32	d3[0], r0
     978:	01110e1b 	tsteq	r1, fp, lsl lr
     97c:	17100612 			; <UNDEFINED> instruction: 0x17100612
     980:	24020000 	strcs	r0, [r2], #-0
     984:	3e0b0b00 	vmlacc.f64	d0, d11, d0
     988:	0008030b 	andeq	r0, r8, fp, lsl #6
     98c:	00240300 	eoreq	r0, r4, r0, lsl #6
     990:	0b3e0b0b 	bleq	f835c4 <__bss_end__+0xf772ac>
     994:	00000e03 	andeq	r0, r0, r3, lsl #28
     998:	3f012e04 	svccc	0x00012e04
     99c:	3a0e0319 	bcc	381608 <__bss_end__+0x3752f0>
     9a0:	110b3b0b 	tstne	fp, fp, lsl #22
     9a4:	40061201 	andmi	r1, r6, r1, lsl #4
     9a8:	19429718 	stmdbne	r2, {r3, r4, r8, r9, sl, ip, pc}^
     9ac:	00001301 	andeq	r1, r0, r1, lsl #6
     9b0:	03003405 	movweq	r3, #1029	; 0x405
     9b4:	3b0b3a0e 	blcc	2cf1f4 <__bss_end__+0x2c2edc>
     9b8:	3f13490b 	svccc	0x0013490b
     9bc:	00193c19 	andseq	r3, r9, r9, lsl ip
     9c0:	002e0600 	eoreq	r0, lr, r0, lsl #12
     9c4:	0e03193f 	mcreq	9, 0, r1, cr3, cr15, {1}
     9c8:	0b3b0b3a 	bleq	ec36b8 <__bss_end__+0xeb73a0>
     9cc:	193c1927 	ldmdbne	ip!, {r0, r1, r2, r5, r8, fp, ip}
     9d0:	34070000 	strcc	r0, [r7], #-0
     9d4:	3a080300 	bcc	2015dc <__bss_end__+0x1f52c4>
     9d8:	490b3b0b 	stmdbmi	fp, {r0, r1, r3, r8, r9, fp, ip, sp}
     9dc:	00170213 	andseq	r0, r7, r3, lsl r2
     9e0:	00340800 	eorseq	r0, r4, r0, lsl #16
     9e4:	0b3a0e03 	bleq	e841f8 <__bss_end__+0xe77ee0>
     9e8:	13490b3b 	movtne	r0, #39739	; 0x9b3b
     9ec:	89090000 	stmdbhi	r9, {}	; <UNPREDICTABLE>
     9f0:	11000182 	smlabbne	r0, r2, r1, r0
     9f4:	00133101 	andseq	r3, r3, r1, lsl #2
     9f8:	000f0a00 	andeq	r0, pc, r0, lsl #20
     9fc:	13490b0b 	movtne	r0, #39691	; 0x9b0b
     a00:	01000000 	mrseq	r0, (UNDEF: 0)
     a04:	0e250111 	mcreq	1, 1, r0, cr5, cr1, {0}
     a08:	0e030b13 	vmoveq.32	d3[0], r0
     a0c:	17550e1b 	smmlane	r5, fp, lr, r0
     a10:	17100111 			; <UNDEFINED> instruction: 0x17100111
     a14:	24020000 	strcs	r0, [r2], #-0
     a18:	3e0b0b00 	vmlacc.f64	d0, d11, d0
     a1c:	0008030b 	andeq	r0, r8, fp, lsl #6
     a20:	00240300 	eoreq	r0, r4, r0, lsl #6
     a24:	0b3e0b0b 	bleq	f83658 <__bss_end__+0xf77340>
     a28:	00000e03 	andeq	r0, r0, r3, lsl #28
     a2c:	3f012e04 	svccc	0x00012e04
     a30:	3a0e0319 	bcc	38169c <__bss_end__+0x375384>
     a34:	270b3b0b 	strcs	r3, [fp, -fp, lsl #22]
     a38:	11134919 	tstne	r3, r9, lsl r9
     a3c:	40061201 	andmi	r1, r6, r1, lsl #4
     a40:	19429718 	stmdbne	r2, {r3, r4, r8, r9, sl, ip, pc}^
     a44:	00001301 	andeq	r1, r0, r1, lsl #6
     a48:	03003405 	movweq	r3, #1029	; 0x405
     a4c:	3b0b3a0e 	blcc	2cf28c <__bss_end__+0x2c2f74>
     a50:	0213490b 	andseq	r4, r3, #180224	; 0x2c000
     a54:	06000017 			; <UNDEFINED> instruction: 0x06000017
     a58:	193f012e 	ldmdbne	pc!, {r1, r2, r3, r5, r8}	; <UNPREDICTABLE>
     a5c:	0b3a0e03 	bleq	e84270 <__bss_end__+0xe77f58>
     a60:	19270b3b 	stmdbne	r7!, {r0, r1, r3, r4, r5, r8, r9, fp}
     a64:	06120111 			; <UNDEFINED> instruction: 0x06120111
     a68:	42971840 	addsmi	r1, r7, #64, 16	; 0x400000
     a6c:	00130119 	andseq	r0, r3, r9, lsl r1
     a70:	00340700 	eorseq	r0, r4, r0, lsl #14
     a74:	0b3a0e03 	bleq	e84288 <__bss_end__+0xe77f70>
     a78:	13490b3b 	movtne	r0, #39739	; 0x9b3b
     a7c:	0000061c 	andeq	r0, r0, ip, lsl r6
     a80:	03003408 	movweq	r3, #1032	; 0x408
     a84:	3b0b3a0e 	blcc	2cf2c4 <__bss_end__+0x2c2fac>
     a88:	1c13490b 	ldcne	9, cr4, [r3], {11}
     a8c:	0900000b 	stmdbeq	r0, {r0, r1, r3}
     a90:	00018289 	andeq	r8, r1, r9, lsl #5
     a94:	13310111 	teqne	r1, #1073741828	; 0x40000004
     a98:	890a0000 	stmdbhi	sl, {}	; <UNPREDICTABLE>
     a9c:	11010182 	smlabbne	r1, r2, r1, r0
     aa0:	01133101 	tsteq	r3, r1, lsl #2
     aa4:	0b000013 	bleq	af8 <_start-0x7508>
     aa8:	0001828a 	andeq	r8, r1, sl, lsl #5
     aac:	42911802 	addsmi	r1, r1, #131072	; 0x20000
     ab0:	0c000018 	stceq	0, cr0, [r0], {24}
     ab4:	01018289 	smlabbeq	r1, r9, r2, r8
     ab8:	13310111 	teqne	r1, #1073741828	; 0x40000004
     abc:	260d0000 	strcs	r0, [sp], -r0
     ac0:	00134900 	andseq	r4, r3, r0, lsl #18
     ac4:	012e0e00 	teqeq	lr, r0, lsl #28
     ac8:	0e03193f 	mcreq	9, 0, r1, cr3, cr15, {1}
     acc:	0b3b0b3a 	bleq	ec37bc <__bss_end__+0xeb74a4>
     ad0:	193c1927 	ldmdbne	ip!, {r0, r1, r2, r5, r8, fp, ip}
     ad4:	00001301 	andeq	r1, r0, r1, lsl #6
     ad8:	4900050f 	stmdbmi	r0, {r0, r1, r2, r3, r8, sl}
     adc:	10000013 	andne	r0, r0, r3, lsl r0
     ae0:	193f012e 	ldmdbne	pc!, {r1, r2, r3, r5, r8}	; <UNPREDICTABLE>
     ae4:	0b3a0e03 	bleq	e842f8 <__bss_end__+0xe77fe0>
     ae8:	19270b3b 	stmdbne	r7!, {r0, r1, r3, r4, r5, r8, r9, fp}
     aec:	0000193c 	andeq	r1, r0, ip, lsr r9
     af0:	01110100 	tsteq	r1, r0, lsl #2
     af4:	0b130e25 	bleq	4c4390 <__bss_end__+0x4b8078>
     af8:	0e1b0e03 	cdpeq	14, 1, cr0, cr11, cr3, {0}
     afc:	06120111 			; <UNDEFINED> instruction: 0x06120111
     b00:	00001710 	andeq	r1, r0, r0, lsl r7
     b04:	0b002402 	bleq	9b14 <__FUNCTION__.4364+0x98>
     b08:	030b3e0b 	movweq	r3, #48651	; 0xbe0b
     b0c:	03000008 	movweq	r0, #8
     b10:	0b0b0024 	bleq	2c0ba8 <__bss_end__+0x2b4890>
     b14:	0e030b3e 	vmoveq.16	d3[0], r0
     b18:	2e040000 	cdpcs	0, 0, cr0, cr4, cr0, {0}
     b1c:	03193f01 	tsteq	r9, #1, 30
     b20:	3b0b3a0e 	blcc	2cf360 <__bss_end__+0x2c3048>
     b24:	1119270b 	tstne	r9, fp, lsl #14
     b28:	40061201 	andmi	r1, r6, r1, lsl #4
     b2c:	19429718 	stmdbne	r2, {r3, r4, r8, r9, sl, ip, pc}^
     b30:	00001301 	andeq	r1, r0, r1, lsl #6
     b34:	03000505 	movweq	r0, #1285	; 0x505
     b38:	3b0b3a0e 	blcc	2cf378 <__bss_end__+0x2c3060>
     b3c:	0213490b 	andseq	r4, r3, #180224	; 0x2c000
     b40:	06000017 			; <UNDEFINED> instruction: 0x06000017
     b44:	193f012e 	ldmdbne	pc!, {r1, r2, r3, r5, r8}	; <UNPREDICTABLE>
     b48:	0b3a0e03 	bleq	e8435c <__bss_end__+0xe78044>
     b4c:	19270b3b 	stmdbne	r7!, {r0, r1, r3, r4, r5, r8, r9, fp}
     b50:	01111349 	tsteq	r1, r9, asr #6
     b54:	18400612 	stmdane	r0, {r1, r4, r9, sl}^
     b58:	01194297 			; <UNDEFINED> instruction: 0x01194297
     b5c:	07000013 	smladeq	r0, r3, r0, r0
     b60:	01018289 	smlabbeq	r1, r9, r2, r8
     b64:	13310111 	teqne	r1, #1073741828	; 0x40000004
     b68:	8a080000 	bhi	200b70 <__bss_end__+0x1f4858>
     b6c:	02000182 	andeq	r0, r0, #-2147483616	; 0x80000020
     b70:	18429118 	stmdane	r2, {r3, r4, r8, ip, pc}^
     b74:	34090000 	strcc	r0, [r9], #-0
     b78:	3a080300 	bcc	201780 <__bss_end__+0x1f5468>
     b7c:	490b3b0b 	stmdbmi	fp, {r0, r1, r3, r8, r9, fp, ip, sp}
     b80:	00180213 	andseq	r0, r8, r3, lsl r2
     b84:	82890a00 	addhi	r0, r9, #0, 20
     b88:	01110001 	tsteq	r1, r1
     b8c:	00001331 	andeq	r1, r0, r1, lsr r3
     b90:	0300050b 	movweq	r0, #1291	; 0x50b
     b94:	3b0b3a08 	blcc	2cf3bc <__bss_end__+0x2c30a4>
     b98:	0213490b 	andseq	r4, r3, #180224	; 0x2c000
     b9c:	0c000017 	stceq	0, cr0, [r0], {23}
     ba0:	0111010b 	tsteq	r1, fp, lsl #2
     ba4:	13010612 	movwne	r0, #5650	; 0x1612
     ba8:	340d0000 	strcc	r0, [sp], #-0
     bac:	3a080300 	bcc	2017b4 <__bss_end__+0x1f549c>
     bb0:	490b3b0b 	stmdbmi	fp, {r0, r1, r3, r8, r9, fp, ip, sp}
     bb4:	00170213 	andseq	r0, r7, r3, lsl r2
     bb8:	012e0e00 	teqeq	lr, r0, lsl #28
     bbc:	0e03193f 	mcreq	9, 0, r1, cr3, cr15, {1}
     bc0:	0b3b0b3a 	bleq	ec38b0 <__bss_end__+0xeb7598>
     bc4:	13491927 	movtne	r1, #39207	; 0x9927
     bc8:	0000193c 	andeq	r1, r0, ip, lsr r9
     bcc:	4900050f 	stmdbmi	r0, {r0, r1, r2, r3, r8, sl}
     bd0:	00000013 	andeq	r0, r0, r3, lsl r0
     bd4:	25011101 	strcs	r1, [r1, #-257]	; 0x101
     bd8:	030b130e 	movweq	r1, #45838	; 0xb30e
     bdc:	110e1b0e 	tstne	lr, lr, lsl #22
     be0:	10061201 	andne	r1, r6, r1, lsl #4
     be4:	02000017 	andeq	r0, r0, #23
     be8:	0b0b0024 	bleq	2c0c80 <__bss_end__+0x2b4968>
     bec:	0e030b3e 	vmoveq.16	d3[0], r0
     bf0:	24030000 	strcs	r0, [r3], #-0
     bf4:	3e0b0b00 	vmlacc.f64	d0, d11, d0
     bf8:	0008030b 	andeq	r0, r8, fp, lsl #6
     bfc:	01040400 	tsteq	r4, r0, lsl #8
     c00:	0b3a0b0b 	bleq	e83834 <__bss_end__+0xe7751c>
     c04:	13010b3b 	movwne	r0, #6971	; 0x1b3b
     c08:	28050000 	stmdacs	r5, {}	; <UNPREDICTABLE>
     c0c:	1c0e0300 	stcne	3, cr0, [lr], {-0}
     c10:	0600000d 	streq	r0, [r0], -sp
     c14:	0e030016 	mcreq	0, 0, r0, cr3, cr6, {0}
     c18:	0b3b0b3a 	bleq	ec3908 <__bss_end__+0xeb75f0>
     c1c:	00001349 	andeq	r1, r0, r9, asr #6
     c20:	3f012e07 	svccc	0x00012e07
     c24:	3a0e0319 	bcc	381890 <__bss_end__+0x375578>
     c28:	270b3b0b 	strcs	r3, [fp, -fp, lsl #22]
     c2c:	12011119 	andne	r1, r1, #1073741830	; 0x40000006
     c30:	97184006 	ldrls	r4, [r8, -r6]
     c34:	13011942 	movwne	r1, #6466	; 0x1942
     c38:	05080000 	streq	r0, [r8, #-0]
     c3c:	3a080300 	bcc	201844 <__bss_end__+0x1f552c>
     c40:	490b3b0b 	stmdbmi	fp, {r0, r1, r3, r8, r9, fp, ip, sp}
     c44:	00170213 	andseq	r0, r7, r3, lsl r2
     c48:	00340900 	eorseq	r0, r4, r0, lsl #18
     c4c:	0b3a0e03 	bleq	e84460 <__bss_end__+0xe78148>
     c50:	13490b3b 	movtne	r0, #39739	; 0x9b3b
     c54:	00001702 	andeq	r1, r0, r2, lsl #14
     c58:	0182890a 	orreq	r8, r2, sl, lsl #18
     c5c:	31011101 	tstcc	r1, r1, lsl #2
     c60:	00130113 	andseq	r0, r3, r3, lsl r1
     c64:	828a0b00 	addhi	r0, sl, #0, 22
     c68:	18020001 	stmdane	r2, {r0}
     c6c:	00184291 	mulseq	r8, r1, r2
     c70:	82890c00 	addhi	r0, r9, #0, 24
     c74:	01110101 	tsteq	r1, r1, lsl #2
     c78:	00001331 	andeq	r1, r0, r1, lsr r3
     c7c:	0b000f0d 	bleq	48b8 <_start-0x3748>
     c80:	0013490b 	andseq	r4, r3, fp, lsl #18
     c84:	00350e00 	eorseq	r0, r5, r0, lsl #28
     c88:	00001349 	andeq	r1, r0, r9, asr #6
     c8c:	3f012e0f 	svccc	0x00012e0f
     c90:	3a0e0319 	bcc	3818fc <__bss_end__+0x3755e4>
     c94:	270b3b0b 	strcs	r3, [fp, -fp, lsl #22]
     c98:	11134919 	tstne	r3, r9, lsl r9
     c9c:	40061201 	andmi	r1, r6, r1, lsl #4
     ca0:	19429718 	stmdbne	r2, {r3, r4, r8, r9, sl, ip, pc}^
     ca4:	00001301 	andeq	r1, r0, r1, lsl #6
     ca8:	03003410 	movweq	r3, #1040	; 0x410
     cac:	3b0b3a08 	blcc	2cf4d4 <__bss_end__+0x2c31bc>
     cb0:	0213490b 	andseq	r4, r3, #180224	; 0x2c000
     cb4:	11000017 	tstne	r0, r7, lsl r0
     cb8:	00018289 	andeq	r8, r1, r9, lsl #5
     cbc:	13310111 	teqne	r1, #1073741828	; 0x40000004
     cc0:	05120000 	ldreq	r0, [r2, #-0]
     cc4:	3a0e0300 	bcc	3818cc <__bss_end__+0x3755b4>
     cc8:	490b3b0b 	stmdbmi	fp, {r0, r1, r3, r8, r9, fp, ip, sp}
     ccc:	00170213 	andseq	r0, r7, r3, lsl r2
     cd0:	012e1300 	teqeq	lr, r0, lsl #6
     cd4:	0e03193f 	mcreq	9, 0, r1, cr3, cr15, {1}
     cd8:	053b0b3a 	ldreq	r0, [fp, #-2874]!	; 0xb3a
     cdc:	13491927 	movtne	r1, #39207	; 0x9927
     ce0:	06120111 			; <UNDEFINED> instruction: 0x06120111
     ce4:	42971840 	addsmi	r1, r7, #64, 16	; 0x400000
     ce8:	00130119 	andseq	r0, r3, r9, lsl r1
     cec:	00051400 	andeq	r1, r5, r0, lsl #8
     cf0:	0b3a0e03 	bleq	e84504 <__bss_end__+0xe781ec>
     cf4:	1349053b 	movtne	r0, #38203	; 0x953b
     cf8:	00001702 	andeq	r1, r0, r2, lsl #14
     cfc:	3f012e15 	svccc	0x00012e15
     d00:	3a0e0319 	bcc	38196c <__bss_end__+0x375654>
     d04:	27053b0b 	strcs	r3, [r5, -fp, lsl #22]
     d08:	12011119 	andne	r1, r1, #1073741830	; 0x40000006
     d0c:	97184006 	ldrls	r4, [r8, -r6]
     d10:	13011942 	movwne	r1, #6466	; 0x1942
     d14:	05160000 	ldreq	r0, [r6, #-0]
     d18:	3a080300 	bcc	201920 <__bss_end__+0x1f5608>
     d1c:	49053b0b 	stmdbmi	r5, {r0, r1, r3, r8, r9, fp, ip, sp}
     d20:	00170213 	andseq	r0, r7, r3, lsl r2
     d24:	00341700 	eorseq	r1, r4, r0, lsl #14
     d28:	0b3a0e03 	bleq	e8453c <__bss_end__+0xe78224>
     d2c:	1349053b 	movtne	r0, #38203	; 0x953b
     d30:	00001702 	andeq	r1, r0, r2, lsl #14
     d34:	11010b18 	tstne	r1, r8, lsl fp
     d38:	01061201 	tsteq	r6, r1, lsl #4
     d3c:	19000013 	stmdbne	r0, {r0, r1, r4}
     d40:	0e030034 	mcreq	0, 0, r0, cr3, cr4, {1}
     d44:	0b3b0b3a 	bleq	ec3a34 <__bss_end__+0xeb771c>
     d48:	193f1349 	ldmdbne	pc!, {r0, r3, r6, r8, r9, ip}	; <UNPREDICTABLE>
     d4c:	00001802 	andeq	r1, r0, r2, lsl #16
     d50:	0300341a 	movweq	r3, #1050	; 0x41a
     d54:	3b0b3a0e 	blcc	2cf594 <__bss_end__+0x2c327c>
     d58:	3f134905 	svccc	0x00134905
     d5c:	00180219 	andseq	r0, r8, r9, lsl r2
     d60:	012e1b00 	teqeq	lr, r0, lsl #22
     d64:	0e03193f 	mcreq	9, 0, r1, cr3, cr15, {1}
     d68:	0b3b0b3a 	bleq	ec3a58 <__bss_end__+0xeb7740>
     d6c:	13491927 	movtne	r1, #39207	; 0x9927
     d70:	1301193c 	movwne	r1, #6460	; 0x193c
     d74:	051c0000 	ldreq	r0, [ip, #-0]
     d78:	00134900 	andseq	r4, r3, r0, lsl #18
     d7c:	00261d00 	eoreq	r1, r6, r0, lsl #26
     d80:	00001349 	andeq	r1, r0, r9, asr #6
     d84:	0000351e 	andeq	r3, r0, lr, lsl r5
     d88:	012e1f00 	teqeq	lr, r0, lsl #30
     d8c:	0e03193f 	mcreq	9, 0, r1, cr3, cr15, {1}
     d90:	0b3b0b3a 	bleq	ec3a80 <__bss_end__+0xeb7768>
     d94:	193c1927 	ldmdbne	ip!, {r0, r1, r2, r5, r8, fp, ip}
     d98:	00001301 	andeq	r1, r0, r1, lsl #6
     d9c:	3f002e20 	svccc	0x00002e20
     da0:	3a0e0319 	bcc	381a0c <__bss_end__+0x3756f4>
     da4:	270b3b0b 	strcs	r3, [fp, -fp, lsl #22]
     da8:	00193c19 	andseq	r3, r9, r9, lsl ip
     dac:	11010000 	mrsne	r0, (UNDEF: 1)
     db0:	130e2501 	movwne	r2, #58625	; 0xe501
     db4:	1b0e030b 	blne	3819e8 <__bss_end__+0x3756d0>
     db8:	1201110e 	andne	r1, r1, #-2147483645	; 0x80000003
     dbc:	00171006 	andseq	r1, r7, r6
     dc0:	00240200 	eoreq	r0, r4, r0, lsl #4
     dc4:	0b3e0b0b 	bleq	f839f8 <__bss_end__+0xf776e0>
     dc8:	00000803 	andeq	r0, r0, r3, lsl #16
     dcc:	0b002403 	bleq	9de0 <__FUNCTION__.4247+0x4>
     dd0:	030b3e0b 	movweq	r3, #48651	; 0xbe0b
     dd4:	0400000e 	streq	r0, [r0], #-14
     dd8:	0b0b0104 	bleq	2c11f0 <__bss_end__+0x2b4ed8>
     ddc:	0b3b0b3a 	bleq	ec3acc <__bss_end__+0xeb77b4>
     de0:	00001301 	andeq	r1, r0, r1, lsl #6
     de4:	03002805 	movweq	r2, #2053	; 0x805
     de8:	000d1c0e 	andeq	r1, sp, lr, lsl #24
     dec:	00160600 	andseq	r0, r6, r0, lsl #12
     df0:	0b3a0e03 	bleq	e84604 <__bss_end__+0xe782ec>
     df4:	13490b3b 	movtne	r0, #39739	; 0x9b3b
     df8:	2e070000 	cdpcs	0, 0, cr0, cr7, cr0, {0}
     dfc:	03193f01 	tsteq	r9, #1, 30
     e00:	3b0b3a0e 	blcc	2cf640 <__bss_end__+0x2c3328>
     e04:	1119270b 	tstne	r9, fp, lsl #14
     e08:	40061201 	andmi	r1, r6, r1, lsl #4
     e0c:	19429718 	stmdbne	r2, {r3, r4, r8, r9, sl, ip, pc}^
     e10:	00001301 	andeq	r1, r0, r1, lsl #6
     e14:	01828908 	orreq	r8, r2, r8, lsl #18
     e18:	31011100 	mrscc	r1, (UNDEF: 17)
     e1c:	09000013 	stmdbeq	r0, {r0, r1, r4}
     e20:	01018289 	smlabbeq	r1, r9, r2, r8
     e24:	13310111 	teqne	r1, #1073741828	; 0x40000004
     e28:	00001301 	andeq	r1, r0, r1, lsl #6
     e2c:	01828a0a 	orreq	r8, r2, sl, lsl #20
     e30:	91180200 	tstls	r8, r0, lsl #4
     e34:	00001842 	andeq	r1, r0, r2, asr #16
     e38:	3f012e0b 	svccc	0x00012e0b
     e3c:	3a0e0319 	bcc	381aa8 <__bss_end__+0x375790>
     e40:	270b3b0b 	strcs	r3, [fp, -fp, lsl #22]
     e44:	11134919 	tstne	r3, r9, lsl r9
     e48:	40061201 	andmi	r1, r6, r1, lsl #4
     e4c:	19429718 	stmdbne	r2, {r3, r4, r8, r9, sl, ip, pc}^
     e50:	00001301 	andeq	r1, r0, r1, lsl #6
     e54:	0300050c 	movweq	r0, #1292	; 0x50c
     e58:	3b0b3a08 	blcc	2cf680 <__bss_end__+0x2c3368>
     e5c:	0213490b 	andseq	r4, r3, #180224	; 0x2c000
     e60:	0d000017 	stceq	0, cr0, [r0, #-92]	; 0xffffffa4
     e64:	01018289 	smlabbeq	r1, r9, r2, r8
     e68:	13310111 	teqne	r1, #1073741828	; 0x40000004
     e6c:	340e0000 	strcc	r0, [lr], #-0
     e70:	3a0e0300 	bcc	381a78 <__bss_end__+0x375760>
     e74:	490b3b0b 	stmdbmi	fp, {r0, r1, r3, r8, r9, fp, ip, sp}
     e78:	02193f13 	andseq	r3, r9, #19, 30	; 0x4c
     e7c:	0f000018 	svceq	0x00000018
     e80:	0b0b000f 	bleq	2c0ec4 <__bss_end__+0x2b4bac>
     e84:	00001349 	andeq	r1, r0, r9, asr #6
     e88:	49003510 	stmdbmi	r0, {r4, r8, sl, ip, sp}
     e8c:	11000013 	tstne	r0, r3, lsl r0
     e90:	193f002e 	ldmdbne	pc!, {r1, r2, r3, r5}	; <UNPREDICTABLE>
     e94:	0b3a0e03 	bleq	e846a8 <__bss_end__+0xe78390>
     e98:	19270b3b 	stmdbne	r7!, {r0, r1, r3, r4, r5, r8, r9, fp}
     e9c:	0000193c 	andeq	r1, r0, ip, lsr r9
     ea0:	3f012e12 	svccc	0x00012e12
     ea4:	3a0e0319 	bcc	381b10 <__bss_end__+0x3757f8>
     ea8:	270b3b0b 	strcs	r3, [fp, -fp, lsl #22]
     eac:	01193c19 	tsteq	r9, r9, lsl ip
     eb0:	13000013 	movwne	r0, #19
     eb4:	13490005 	movtne	r0, #36869	; 0x9005
     eb8:	2e140000 	cdpcs	0, 1, cr0, cr4, cr0, {0}
     ebc:	03193f01 	tsteq	r9, #1, 30
     ec0:	3b0b3a0e 	blcc	2cf700 <__bss_end__+0x2c33e8>
     ec4:	4919270b 	ldmdbmi	r9, {r0, r1, r3, r8, r9, sl, sp}
     ec8:	01193c13 	tsteq	r9, r3, lsl ip
     ecc:	15000013 	strne	r0, [r0, #-19]
     ed0:	13490026 	movtne	r0, #36902	; 0x9026
     ed4:	35160000 	ldrcc	r0, [r6, #-0]
     ed8:	00000000 	andeq	r0, r0, r0
     edc:	25011101 	strcs	r1, [r1, #-257]	; 0x101
     ee0:	030b130e 	movweq	r1, #45838	; 0xb30e
     ee4:	110e1b0e 	tstne	lr, lr, lsl #22
     ee8:	10061201 	andne	r1, r6, r1, lsl #4
     eec:	02000017 	andeq	r0, r0, #23
     ef0:	0b0b0024 	bleq	2c0f88 <__bss_end__+0x2b4c70>
     ef4:	08030b3e 	stmdaeq	r3, {r1, r2, r3, r4, r5, r8, r9, fp}
     ef8:	24030000 	strcs	r0, [r3], #-0
     efc:	3e0b0b00 	vmlacc.f64	d0, d11, d0
     f00:	000e030b 	andeq	r0, lr, fp, lsl #6
     f04:	000f0400 	andeq	r0, pc, r0, lsl #8
     f08:	13490b0b 	movtne	r0, #39691	; 0x9b0b
     f0c:	26050000 	strcs	r0, [r5], -r0
     f10:	00134900 	andseq	r4, r3, r0, lsl #18
     f14:	01040600 	tsteq	r4, r0, lsl #12
     f18:	0b3a0b0b 	bleq	e83b4c <__bss_end__+0xe77834>
     f1c:	13010b3b 	movwne	r0, #6971	; 0x1b3b
     f20:	28070000 	stmdacs	r7, {}	; <UNPREDICTABLE>
     f24:	1c0e0300 	stcne	3, cr0, [lr], {-0}
     f28:	0800000d 	stmdaeq	r0, {r0, r2, r3}
     f2c:	193f012e 	ldmdbne	pc!, {r1, r2, r3, r5, r8}	; <UNPREDICTABLE>
     f30:	0b3a0e03 	bleq	e84744 <__bss_end__+0xe7842c>
     f34:	19270b3b 	stmdbne	r7!, {r0, r1, r3, r4, r5, r8, r9, fp}
     f38:	06120111 			; <UNDEFINED> instruction: 0x06120111
     f3c:	42971840 	addsmi	r1, r7, #64, 16	; 0x400000
     f40:	00130119 	andseq	r0, r3, r9, lsl r1
     f44:	00340900 	eorseq	r0, r4, r0, lsl #18
     f48:	0b3a0e03 	bleq	e8475c <__bss_end__+0xe78444>
     f4c:	13490b3b 	movtne	r0, #39739	; 0x9b3b
     f50:	193c193f 	ldmdbne	ip!, {r0, r1, r2, r3, r4, r5, r8, fp, ip}
     f54:	340a0000 	strcc	r0, [sl], #-0
     f58:	3a080300 	bcc	201b60 <__bss_end__+0x1f5848>
     f5c:	490b3b0b 	stmdbmi	fp, {r0, r1, r3, r8, r9, fp, ip, sp}
     f60:	000b1c13 	andeq	r1, fp, r3, lsl ip
     f64:	00340b00 	eorseq	r0, r4, r0, lsl #22
     f68:	0b3a0803 	bleq	e82f7c <__bss_end__+0xe76c64>
     f6c:	13490b3b 	movtne	r0, #39739	; 0x9b3b
     f70:	340c0000 	strcc	r0, [ip], #-0
     f74:	3a080300 	bcc	201b7c <__bss_end__+0x1f5864>
     f78:	490b3b0b 	stmdbmi	fp, {r0, r1, r3, r8, r9, fp, ip, sp}
     f7c:	00180213 	andseq	r0, r8, r3, lsl r2
     f80:	010b0d00 	tsteq	fp, r0, lsl #26
     f84:	06120111 			; <UNDEFINED> instruction: 0x06120111
     f88:	00001301 	andeq	r1, r0, r1, lsl #6
     f8c:	0300340e 	movweq	r3, #1038	; 0x40e
     f90:	3b0b3a08 	blcc	2cf7b8 <__bss_end__+0x2c34a0>
     f94:	0213490b 	andseq	r4, r3, #180224	; 0x2c000
     f98:	0f000017 	svceq	0x00000017
     f9c:	01018289 	smlabbeq	r1, r9, r2, r8
     fa0:	13310111 	teqne	r1, #1073741828	; 0x40000004
     fa4:	00001301 	andeq	r1, r0, r1, lsl #6
     fa8:	01828a10 	orreq	r8, r2, r0, lsl sl
     fac:	91180200 	tstls	r8, r0, lsl #4
     fb0:	00001842 	andeq	r1, r0, r2, asr #16
     fb4:	01828911 	orreq	r8, r2, r1, lsl r9
     fb8:	31011100 	mrscc	r1, (UNDEF: 17)
     fbc:	12000013 	andne	r0, r0, #19
     fc0:	08030005 	stmdaeq	r3, {r0, r2}
     fc4:	0b3b0b3a 	bleq	ec3cb4 <__bss_end__+0xeb799c>
     fc8:	17021349 	strne	r1, [r2, -r9, asr #6]
     fcc:	34130000 	ldrcc	r0, [r3], #-0
     fd0:	490e0300 	stmdbmi	lr, {r8, r9}
     fd4:	02193413 	andseq	r3, r9, #318767104	; 0x13000000
     fd8:	14000018 	strne	r0, [r0], #-24
     fdc:	13490101 	movtne	r0, #37121	; 0x9101
     fe0:	00001301 	andeq	r1, r0, r1, lsl #6
     fe4:	49002115 	stmdbmi	r0, {r0, r2, r4, r8, sp}
     fe8:	000b2f13 	andeq	r2, fp, r3, lsl pc
     fec:	012e1600 	teqeq	lr, r0, lsl #12
     ff0:	0e03193f 	mcreq	9, 0, r1, cr3, cr15, {1}
     ff4:	0b3b0b3a 	bleq	ec3ce4 <__bss_end__+0xeb79cc>
     ff8:	193c1927 	ldmdbne	ip!, {r0, r1, r2, r5, r8, fp, ip}
     ffc:	00001301 	andeq	r1, r0, r1, lsl #6
    1000:	49000517 	stmdbmi	r0, {r0, r1, r2, r4, r8, sl}
    1004:	18000013 	stmdane	r0, {r0, r1, r4}
    1008:	193f002e 	ldmdbne	pc!, {r1, r2, r3, r5}	; <UNPREDICTABLE>
    100c:	0b3a0e03 	bleq	e84820 <__bss_end__+0xe78508>
    1010:	19270b3b 	stmdbne	r7!, {r0, r1, r3, r4, r5, r8, r9, fp}
    1014:	0000193c 	andeq	r1, r0, ip, lsr r9
    1018:	3f012e19 	svccc	0x00012e19
    101c:	3a0e0319 	bcc	381c88 <__bss_end__+0x375970>
    1020:	270b3b0b 	strcs	r3, [fp, -fp, lsl #22]
    1024:	3c134919 	ldccc	9, cr4, [r3], {25}
    1028:	00130119 	andseq	r0, r3, r9, lsl r1
    102c:	00181a00 	andseq	r1, r8, r0, lsl #20
    1030:	01000000 	mrseq	r0, (UNDEF: 0)
    1034:	0e250111 	mcreq	1, 1, r0, cr5, cr1, {0}
    1038:	0e030b13 	vmoveq.32	d3[0], r0
    103c:	01110e1b 	tsteq	r1, fp, lsl lr
    1040:	17100612 			; <UNDEFINED> instruction: 0x17100612
    1044:	24020000 	strcs	r0, [r2], #-0
    1048:	3e0b0b00 	vmlacc.f64	d0, d11, d0
    104c:	0008030b 	andeq	r0, r8, fp, lsl #6
    1050:	00240300 	eoreq	r0, r4, r0, lsl #6
    1054:	0b3e0b0b 	bleq	f83c88 <__bss_end__+0xf77970>
    1058:	00000e03 	andeq	r0, r0, r3, lsl #28
    105c:	0b000f04 	bleq	4c74 <_start-0x338c>
    1060:	0013490b 	andseq	r4, r3, fp, lsl #18
    1064:	00260500 	eoreq	r0, r6, r0, lsl #10
    1068:	00001349 	andeq	r1, r0, r9, asr #6
    106c:	3f012e06 	svccc	0x00012e06
    1070:	3a0e0319 	bcc	381cdc <__bss_end__+0x3759c4>
    1074:	270b3b0b 	strcs	r3, [fp, -fp, lsl #22]
    1078:	12011119 	andne	r1, r1, #1073741830	; 0x40000006
    107c:	97184006 	ldrls	r4, [r8, -r6]
    1080:	13011942 	movwne	r1, #6466	; 0x1942
    1084:	05070000 	streq	r0, [r7, #-0]
    1088:	3a080300 	bcc	201c90 <__bss_end__+0x1f5978>
    108c:	490b3b0b 	stmdbmi	fp, {r0, r1, r3, r8, r9, fp, ip, sp}
    1090:	00170213 	andseq	r0, r7, r3, lsl r2
    1094:	00340800 	eorseq	r0, r4, r0, lsl #16
    1098:	13490e03 	movtne	r0, #40451	; 0x9e03
    109c:	18021934 	stmdane	r2, {r2, r4, r5, r8, fp, ip}
    10a0:	89090000 	stmdbhi	r9, {}	; <UNPREDICTABLE>
    10a4:	11000182 	smlabbne	r0, r2, r1, r0
    10a8:	00133101 	andseq	r3, r3, r1, lsl #2
    10ac:	82890a00 	addhi	r0, r9, #0, 20
    10b0:	01110101 	tsteq	r1, r1, lsl #2
    10b4:	13011331 	movwne	r1, #4913	; 0x1331
    10b8:	8a0b0000 	bhi	2c10c0 <__bss_end__+0x2b4da8>
    10bc:	02000182 	andeq	r0, r0, #-2147483616	; 0x80000020
    10c0:	18429118 	stmdane	r2, {r3, r4, r8, ip, pc}^
    10c4:	010c0000 	mrseq	r0, (UNDEF: 12)
    10c8:	01134901 	tsteq	r3, r1, lsl #18
    10cc:	0d000013 	stceq	0, cr0, [r0, #-76]	; 0xffffffb4
    10d0:	13490021 	movtne	r0, #36897	; 0x9021
    10d4:	00000b2f 	andeq	r0, r0, pc, lsr #22
    10d8:	3f002e0e 	svccc	0x00002e0e
    10dc:	3a0e0319 	bcc	381d48 <__bss_end__+0x375a30>
    10e0:	270b3b0b 	strcs	r3, [fp, -fp, lsl #22]
    10e4:	00193c19 	andseq	r3, r9, r9, lsl ip
    10e8:	012e0f00 	teqeq	lr, r0, lsl #30
    10ec:	0e03193f 	mcreq	9, 0, r1, cr3, cr15, {1}
    10f0:	0b3b0b3a 	bleq	ec3de0 <__bss_end__+0xeb7ac8>
    10f4:	13491927 	movtne	r1, #39207	; 0x9927
    10f8:	1301193c 	movwne	r1, #6460	; 0x193c
    10fc:	05100000 	ldreq	r0, [r0, #-0]
    1100:	00134900 	andseq	r4, r3, r0, lsl #18
    1104:	00181100 	andseq	r1, r8, r0, lsl #2
    1108:	01000000 	mrseq	r0, (UNDEF: 0)
    110c:	0e250111 	mcreq	1, 1, r0, cr5, cr1, {0}
    1110:	0e030b13 	vmoveq.32	d3[0], r0
    1114:	01110e1b 	tsteq	r1, fp, lsl lr
    1118:	17100612 			; <UNDEFINED> instruction: 0x17100612
    111c:	24020000 	strcs	r0, [r2], #-0
    1120:	3e0b0b00 	vmlacc.f64	d0, d11, d0
    1124:	0008030b 	andeq	r0, r8, fp, lsl #6
    1128:	00240300 	eoreq	r0, r4, r0, lsl #6
    112c:	0b3e0b0b 	bleq	f83d60 <__bss_end__+0xf77a48>
    1130:	00000e03 	andeq	r0, r0, r3, lsl #28
    1134:	0b000f04 	bleq	4d4c <_start-0x32b4>
    1138:	0013490b 	andseq	r4, r3, fp, lsl #18
    113c:	00260500 	eoreq	r0, r6, r0, lsl #10
    1140:	00001349 	andeq	r1, r0, r9, asr #6
    1144:	3f012e06 	svccc	0x00012e06
    1148:	3a0e0319 	bcc	381db4 <__bss_end__+0x375a9c>
    114c:	270b3b0b 	strcs	r3, [fp, -fp, lsl #22]
    1150:	12011119 	andne	r1, r1, #1073741830	; 0x40000006
    1154:	97184006 	ldrls	r4, [r8, -r6]
    1158:	13011942 	movwne	r1, #6466	; 0x1942
    115c:	05070000 	streq	r0, [r7, #-0]
    1160:	3a080300 	bcc	201d68 <__bss_end__+0x1f5a50>
    1164:	490b3b0b 	stmdbmi	fp, {r0, r1, r3, r8, r9, fp, ip, sp}
    1168:	00170213 	andseq	r0, r7, r3, lsl r2
    116c:	00340800 	eorseq	r0, r4, r0, lsl #16
    1170:	13490e03 	movtne	r0, #40451	; 0x9e03
    1174:	18021934 	stmdane	r2, {r2, r4, r5, r8, fp, ip}
    1178:	89090000 	stmdbhi	r9, {}	; <UNPREDICTABLE>
    117c:	11000182 	smlabbne	r0, r2, r1, r0
    1180:	00133101 	andseq	r3, r3, r1, lsl #2
    1184:	82890a00 	addhi	r0, r9, #0, 20
    1188:	01110101 	tsteq	r1, r1, lsl #2
    118c:	13011331 	movwne	r1, #4913	; 0x1331
    1190:	8a0b0000 	bhi	2c1198 <__bss_end__+0x2b4e80>
    1194:	02000182 	andeq	r0, r0, #-2147483616	; 0x80000020
    1198:	18429118 	stmdane	r2, {r3, r4, r8, ip, pc}^
    119c:	010c0000 	mrseq	r0, (UNDEF: 12)
    11a0:	01134901 	tsteq	r3, r1, lsl #18
    11a4:	0d000013 	stceq	0, cr0, [r0, #-76]	; 0xffffffb4
    11a8:	13490021 	movtne	r0, #36897	; 0x9021
    11ac:	00000b2f 	andeq	r0, r0, pc, lsr #22
    11b0:	3f002e0e 	svccc	0x00002e0e
    11b4:	3a0e0319 	bcc	381e20 <__bss_end__+0x375b08>
    11b8:	270b3b0b 	strcs	r3, [fp, -fp, lsl #22]
    11bc:	00193c19 	andseq	r3, r9, r9, lsl ip
    11c0:	012e0f00 	teqeq	lr, r0, lsl #30
    11c4:	0e03193f 	mcreq	9, 0, r1, cr3, cr15, {1}
    11c8:	0b3b0b3a 	bleq	ec3eb8 <__bss_end__+0xeb7ba0>
    11cc:	13491927 	movtne	r1, #39207	; 0x9927
    11d0:	1301193c 	movwne	r1, #6460	; 0x193c
    11d4:	05100000 	ldreq	r0, [r0, #-0]
    11d8:	00134900 	andseq	r4, r3, r0, lsl #18
    11dc:	00181100 	andseq	r1, r8, r0, lsl #2
    11e0:	01000000 	mrseq	r0, (UNDEF: 0)
    11e4:	0e250111 	mcreq	1, 1, r0, cr5, cr1, {0}
    11e8:	0e030b13 	vmoveq.32	d3[0], r0
    11ec:	01110e1b 	tsteq	r1, fp, lsl lr
    11f0:	17100612 			; <UNDEFINED> instruction: 0x17100612
    11f4:	24020000 	strcs	r0, [r2], #-0
    11f8:	3e0b0b00 	vmlacc.f64	d0, d11, d0
    11fc:	0008030b 	andeq	r0, r8, fp, lsl #6
    1200:	00240300 	eoreq	r0, r4, r0, lsl #6
    1204:	0b3e0b0b 	bleq	f83e38 <__bss_end__+0xf77b20>
    1208:	00000e03 	andeq	r0, r0, r3, lsl #28
    120c:	0b000f04 	bleq	4e24 <_start-0x31dc>
    1210:	0013490b 	andseq	r4, r3, fp, lsl #18
    1214:	00260500 	eoreq	r0, r6, r0, lsl #10
    1218:	00001349 	andeq	r1, r0, r9, asr #6
    121c:	3f012e06 	svccc	0x00012e06
    1220:	3a0e0319 	bcc	381e8c <__bss_end__+0x375b74>
    1224:	270b3b0b 	strcs	r3, [fp, -fp, lsl #22]
    1228:	12011119 	andne	r1, r1, #1073741830	; 0x40000006
    122c:	97184006 	ldrls	r4, [r8, -r6]
    1230:	13011942 	movwne	r1, #6466	; 0x1942
    1234:	05070000 	streq	r0, [r7, #-0]
    1238:	3a080300 	bcc	201e40 <__bss_end__+0x1f5b28>
    123c:	490b3b0b 	stmdbmi	fp, {r0, r1, r3, r8, r9, fp, ip, sp}
    1240:	00170213 	andseq	r0, r7, r3, lsl r2
    1244:	00340800 	eorseq	r0, r4, r0, lsl #16
    1248:	13490e03 	movtne	r0, #40451	; 0x9e03
    124c:	18021934 	stmdane	r2, {r2, r4, r5, r8, fp, ip}
    1250:	89090000 	stmdbhi	r9, {}	; <UNPREDICTABLE>
    1254:	11000182 	smlabbne	r0, r2, r1, r0
    1258:	00133101 	andseq	r3, r3, r1, lsl #2
    125c:	82890a00 	addhi	r0, r9, #0, 20
    1260:	01110101 	tsteq	r1, r1, lsl #2
    1264:	13011331 	movwne	r1, #4913	; 0x1331
    1268:	8a0b0000 	bhi	2c1270 <__bss_end__+0x2b4f58>
    126c:	02000182 	andeq	r0, r0, #-2147483616	; 0x80000020
    1270:	18429118 	stmdane	r2, {r3, r4, r8, ip, pc}^
    1274:	010c0000 	mrseq	r0, (UNDEF: 12)
    1278:	01134901 	tsteq	r3, r1, lsl #18
    127c:	0d000013 	stceq	0, cr0, [r0, #-76]	; 0xffffffb4
    1280:	13490021 	movtne	r0, #36897	; 0x9021
    1284:	00000b2f 	andeq	r0, r0, pc, lsr #22
    1288:	3f002e0e 	svccc	0x00002e0e
    128c:	3a0e0319 	bcc	381ef8 <__bss_end__+0x375be0>
    1290:	270b3b0b 	strcs	r3, [fp, -fp, lsl #22]
    1294:	00193c19 	andseq	r3, r9, r9, lsl ip
    1298:	012e0f00 	teqeq	lr, r0, lsl #30
    129c:	0e03193f 	mcreq	9, 0, r1, cr3, cr15, {1}
    12a0:	0b3b0b3a 	bleq	ec3f90 <__bss_end__+0xeb7c78>
    12a4:	13491927 	movtne	r1, #39207	; 0x9927
    12a8:	1301193c 	movwne	r1, #6460	; 0x193c
    12ac:	05100000 	ldreq	r0, [r0, #-0]
    12b0:	00134900 	andseq	r4, r3, r0, lsl #18
    12b4:	00181100 	andseq	r1, r8, r0, lsl #2
    12b8:	01000000 	mrseq	r0, (UNDEF: 0)
    12bc:	0e250111 	mcreq	1, 1, r0, cr5, cr1, {0}
    12c0:	0e030b13 	vmoveq.32	d3[0], r0
    12c4:	01110e1b 	tsteq	r1, fp, lsl lr
    12c8:	17100612 			; <UNDEFINED> instruction: 0x17100612
    12cc:	24020000 	strcs	r0, [r2], #-0
    12d0:	3e0b0b00 	vmlacc.f64	d0, d11, d0
    12d4:	0008030b 	andeq	r0, r8, fp, lsl #6
    12d8:	00240300 	eoreq	r0, r4, r0, lsl #6
    12dc:	0b3e0b0b 	bleq	f83f10 <__bss_end__+0xf77bf8>
    12e0:	00000e03 	andeq	r0, r0, r3, lsl #28
    12e4:	0b000f04 	bleq	4efc <_start-0x3104>
    12e8:	0013490b 	andseq	r4, r3, fp, lsl #18
    12ec:	00260500 	eoreq	r0, r6, r0, lsl #10
    12f0:	00001349 	andeq	r1, r0, r9, asr #6
    12f4:	3f012e06 	svccc	0x00012e06
    12f8:	3a0e0319 	bcc	381f64 <__bss_end__+0x375c4c>
    12fc:	270b3b0b 	strcs	r3, [fp, -fp, lsl #22]
    1300:	12011119 	andne	r1, r1, #1073741830	; 0x40000006
    1304:	97184006 	ldrls	r4, [r8, -r6]
    1308:	13011942 	movwne	r1, #6466	; 0x1942
    130c:	05070000 	streq	r0, [r7, #-0]
    1310:	3a080300 	bcc	201f18 <__bss_end__+0x1f5c00>
    1314:	490b3b0b 	stmdbmi	fp, {r0, r1, r3, r8, r9, fp, ip, sp}
    1318:	00170213 	andseq	r0, r7, r3, lsl r2
    131c:	00340800 	eorseq	r0, r4, r0, lsl #16
    1320:	13490e03 	movtne	r0, #40451	; 0x9e03
    1324:	18021934 	stmdane	r2, {r2, r4, r5, r8, fp, ip}
    1328:	89090000 	stmdbhi	r9, {}	; <UNPREDICTABLE>
    132c:	11000182 	smlabbne	r0, r2, r1, r0
    1330:	00133101 	andseq	r3, r3, r1, lsl #2
    1334:	82890a00 	addhi	r0, r9, #0, 20
    1338:	01110101 	tsteq	r1, r1, lsl #2
    133c:	13011331 	movwne	r1, #4913	; 0x1331
    1340:	8a0b0000 	bhi	2c1348 <__bss_end__+0x2b5030>
    1344:	02000182 	andeq	r0, r0, #-2147483616	; 0x80000020
    1348:	18429118 	stmdane	r2, {r3, r4, r8, ip, pc}^
    134c:	010c0000 	mrseq	r0, (UNDEF: 12)
    1350:	01134901 	tsteq	r3, r1, lsl #18
    1354:	0d000013 	stceq	0, cr0, [r0, #-76]	; 0xffffffb4
    1358:	13490021 	movtne	r0, #36897	; 0x9021
    135c:	00000b2f 	andeq	r0, r0, pc, lsr #22
    1360:	3f002e0e 	svccc	0x00002e0e
    1364:	3a0e0319 	bcc	381fd0 <__bss_end__+0x375cb8>
    1368:	270b3b0b 	strcs	r3, [fp, -fp, lsl #22]
    136c:	00193c19 	andseq	r3, r9, r9, lsl ip
    1370:	012e0f00 	teqeq	lr, r0, lsl #30
    1374:	0e03193f 	mcreq	9, 0, r1, cr3, cr15, {1}
    1378:	0b3b0b3a 	bleq	ec4068 <__bss_end__+0xeb7d50>
    137c:	13491927 	movtne	r1, #39207	; 0x9927
    1380:	1301193c 	movwne	r1, #6460	; 0x193c
    1384:	05100000 	ldreq	r0, [r0, #-0]
    1388:	00134900 	andseq	r4, r3, r0, lsl #18
    138c:	00181100 	andseq	r1, r8, r0, lsl #2
    1390:	Address 0x0000000000001390 is out of bounds.


Disassembly of section .debug_loc:

00000000 <.debug_loc>:
       0:	00000000 	andeq	r0, r0, r0
       4:	00000010 	andeq	r0, r0, r0, lsl r0
       8:	10500001 	subsne	r0, r0, r1
       c:	28000000 	stmdacs	r0, {}	; <UNPREDICTABLE>
      10:	01000000 	mrseq	r0, (UNDEF: 0)
      14:	00285400 	eoreq	r5, r8, r0, lsl #8
      18:	03a80000 			; <UNDEFINED> instruction: 0x03a80000
      1c:	00040000 	andeq	r0, r4, r0
      20:	9f5001f3 	svcls	0x005001f3
	...
      30:	00000013 	andeq	r0, r0, r3, lsl r0
      34:	13510001 	cmpne	r1, #1
      38:	a8000000 	stmdage	r0, {}	; <UNPREDICTABLE>
      3c:	04000003 	streq	r0, [r0], #-3
      40:	5101f300 	mrspl	pc, SP_irq	; <UNPREDICTABLE>
      44:	0000009f 	muleq	r0, pc, r0	; <UNPREDICTABLE>
	...
      50:	00001300 	andeq	r1, r0, r0, lsl #6
      54:	52000100 	andpl	r0, r0, #0, 2
      58:	00000013 	andeq	r0, r0, r3, lsl r0
      5c:	000003a8 	andeq	r0, r0, r8, lsr #7
      60:	005a0001 	subseq	r0, sl, r1
      64:	00000000 	andeq	r0, r0, r0
      68:	18000000 	stmdane	r0, {}	; <UNPREDICTABLE>
      6c:	28000000 	stmdacs	r0, {}	; <UNPREDICTABLE>
      70:	01000000 	mrseq	r0, (UNDEF: 0)
      74:	00285400 	eoreq	r5, r8, r0, lsl #8
      78:	03a80000 			; <UNDEFINED> instruction: 0x03a80000
      7c:	00040000 	andeq	r0, r4, r0
      80:	9f5001f3 	svcls	0x005001f3
	...
      8c:	00000048 	andeq	r0, r0, r8, asr #32
      90:	00000374 	andeq	r0, r0, r4, ror r3
      94:	d8030006 	stmdale	r3, {r1, r2}
      98:	9f00009e 	svcls	0x0000009e
	...
      a4:	00000048 	andeq	r0, r0, r8, asr #32
      a8:	00000364 	andeq	r0, r0, r4, ror #6
      ac:	d8030006 	stmdale	r3, {r1, r2}
      b0:	9f00009e 	svcls	0x0000009e
	...
      bc:	00000048 	andeq	r0, r0, r8, asr #32
      c0:	00000064 	andeq	r0, r0, r4, rrx
      c4:	9f300002 	svcls	0x00300002
      c8:	00000064 	andeq	r0, r0, r4, rrx
      cc:	0000007c 	andeq	r0, r0, ip, ror r0
      d0:	7c520001 	mrrcvc	0, 0, r0, r2, cr1
      d4:	84000000 	strhi	r0, [r0], #-0
      d8:	02000000 	andeq	r0, r0, #0
      dc:	849f3000 	ldrhi	r3, [pc], #0	; e4 <_start-0x7f1c>
      e0:	8f000000 	svchi	0x00000000
      e4:	01000000 	mrseq	r0, (UNDEF: 0)
      e8:	00a85200 	adceq	r5, r8, r0, lsl #4
      ec:	00af0000 	adceq	r0, pc, r0
      f0:	00010000 	andeq	r0, r1, r0
      f4:	00000052 	andeq	r0, r0, r2, asr r0
      f8:	00000000 	andeq	r0, r0, r0
      fc:	00004800 	andeq	r4, r0, r0, lsl #16
     100:	00036400 	andeq	r6, r3, r0, lsl #8
     104:	f2000600 	vmax.s8	d0, d0, d0
     108:	000004bf 			; <UNDEFINED> instruction: 0x000004bf
	...
     114:	00005c00 	andeq	r5, r0, r0, lsl #24
     118:	00006800 	andeq	r6, r0, r0, lsl #16
     11c:	53000100 	movwpl	r0, #256	; 0x100
     120:	00000068 	andeq	r0, r0, r8, rrx
     124:	00000074 	andeq	r0, r0, r4, ror r0
     128:	e0030005 	and	r0, r3, r5
     12c:	000000be 	strheq	r0, [r0], -lr
     130:	00000000 	andeq	r0, r0, r0
     134:	b8000000 	stmdalt	r0, {}	; <UNPREDICTABLE>
     138:	f8000000 			; <UNDEFINED> instruction: 0xf8000000
     13c:	01000002 	tsteq	r0, r2
     140:	03085100 	movweq	r5, #33024	; 0x8100
     144:	030c0000 	movweq	r0, #49152	; 0xc000
     148:	00010000 	andeq	r0, r1, r0
     14c:	00000051 	andeq	r0, r0, r1, asr r0
     150:	00000000 	andeq	r0, r0, r0
     154:	0000b800 	andeq	fp, r0, r0, lsl #16
     158:	00036400 	andeq	r6, r3, r0, lsl #8
     15c:	03000600 	movweq	r0, #1536	; 0x600
     160:	0000bef0 	strdeq	fp, [r0], -r0
     164:	0000009f 	muleq	r0, pc, r0	; <UNPREDICTABLE>
     168:	00000000 	andeq	r0, r0, r0
     16c:	0000b800 	andeq	fp, r0, r0, lsl #16
     170:	00036400 	andeq	r6, r3, r0, lsl #8
     174:	31000200 	mrscc	r0, R8_usr
     178:	0000009f 	muleq	r0, pc, r0	; <UNPREDICTABLE>
     17c:	00000000 	andeq	r0, r0, r0
     180:	0000bc00 	andeq	fp, r0, r0, lsl #24
     184:	00036300 	andeq	r6, r3, r0, lsl #6
     188:	53000100 	movwpl	r0, #256	; 0x100
	...
     194:	000000d8 	ldrdeq	r0, [r0], -r8
     198:	000000dc 	ldrdeq	r0, [r0], -ip
     19c:	dc520001 	mrrcle	0, 0, r0, r2, cr1
     1a0:	e4000000 	str	r0, [r0], #-0
     1a4:	05000000 	streq	r0, [r0, #-0]
     1a8:	bef00300 	cdplt	3, 15, cr0, cr0, cr0, {0}
	...
     1b4:	00e80000 	rsceq	r0, r8, r0
     1b8:	00ec0000 	rsceq	r0, ip, r0
     1bc:	00010000 	andeq	r0, r1, r0
     1c0:	00000050 	andeq	r0, r0, r0, asr r0
     1c4:	00000000 	andeq	r0, r0, r0
     1c8:	0000fc00 	andeq	pc, r0, r0, lsl #24
     1cc:	0002f800 	andeq	pc, r2, r0, lsl #16
     1d0:	71000900 	tstvc	r0, r0, lsl #18
     1d4:	1a800800 	bne	fe0021dc <__bss_end__+0xfdff5ec4>
     1d8:	9f1aff08 	svcls	0x001aff08
     1dc:	00000308 	andeq	r0, r0, r8, lsl #6
     1e0:	0000030c 	andeq	r0, r0, ip, lsl #6
     1e4:	00710009 	rsbseq	r0, r1, r9
     1e8:	081a8008 	ldmdaeq	sl, {r3, pc}
     1ec:	009f1aff 			; <UNDEFINED> instruction: 0x009f1aff
     1f0:	00000000 	andeq	r0, r0, r0
     1f4:	fc000000 	stc2	0, cr0, [r0], {-0}
     1f8:	10000000 	andne	r0, r0, r0
     1fc:	01000001 	tsteq	r0, r1
     200:	01105200 	tsteq	r0, r0, lsl #4
     204:	01140000 	tsteq	r4, r0
     208:	00050000 	andeq	r0, r5, r0
     20c:	00bef003 	adcseq	pc, lr, r3
     210:	00011800 	andeq	r1, r1, r0, lsl #16
     214:	00012400 	andeq	r2, r1, r0, lsl #8
     218:	52000100 	andpl	r0, r0, #0, 2
     21c:	00000124 	andeq	r0, r0, r4, lsr #2
     220:	00000128 	andeq	r0, r0, r8, lsr #2
     224:	f0030005 			; <UNDEFINED> instruction: 0xf0030005
     228:	000000be 	strheq	r0, [r0], -lr
     22c:	00000000 	andeq	r0, r0, r0
     230:	04000000 	streq	r0, [r0], #-0
     234:	10000001 	andne	r0, r0, r1
     238:	01000001 	tsteq	r0, r1
     23c:	01105200 	tsteq	r0, r0, lsl #4
     240:	01140000 	tsteq	r4, r0
     244:	00050000 	andeq	r0, r5, r0
     248:	00bef003 	adcseq	pc, lr, r3
	...
     254:	00011800 	andeq	r1, r1, r0, lsl #16
     258:	00012400 	andeq	r2, r1, r0, lsl #8
     25c:	52000100 	andpl	r0, r0, #0, 2
     260:	00000124 	andeq	r0, r0, r4, lsr #2
     264:	00000128 	andeq	r0, r0, r8, lsr #2
     268:	f0030005 			; <UNDEFINED> instruction: 0xf0030005
     26c:	000000be 	strheq	r0, [r0], -lr
     270:	00000000 	andeq	r0, r0, r0
     274:	2c000000 	stccs	0, cr0, [r0], {-0}
     278:	30000001 	andcc	r0, r0, r1
     27c:	01000001 	tsteq	r0, r1
     280:	00005200 	andeq	r5, r0, r0, lsl #4
     284:	00000000 	andeq	r0, r0, r0
     288:	01400000 	mrseq	r0, (UNDEF: 64)
     28c:	02f80000 	rscseq	r0, r8, #0
     290:	00090000 	andeq	r0, r9, r0
     294:	40080071 	andmi	r0, r8, r1, ror r0
     298:	1aff081a 	bne	fffc2308 <__bss_end__+0xfffb5ff0>
     29c:	0003089f 	muleq	r3, pc, r8	; <UNPREDICTABLE>
     2a0:	00030c00 	andeq	r0, r3, r0, lsl #24
     2a4:	71000900 	tstvc	r0, r0, lsl #18
     2a8:	1a400800 	bne	10022b0 <__bss_end__+0xff5f98>
     2ac:	9f1aff08 	svcls	0x001aff08
	...
     2b8:	00000140 	andeq	r0, r0, r0, asr #2
     2bc:	00000154 	andeq	r0, r0, r4, asr r1
     2c0:	54520001 	ldrbpl	r0, [r2], #-1
     2c4:	58000001 	stmdapl	r0, {r0}
     2c8:	05000001 	streq	r0, [r0, #-1]
     2cc:	bef00300 	cdplt	3, 15, cr0, cr0, cr0, {0}
     2d0:	015c0000 	cmpeq	ip, r0
     2d4:	01680000 	cmneq	r8, r0
     2d8:	00010000 	andeq	r0, r1, r0
     2dc:	00016852 	andeq	r6, r1, r2, asr r8
     2e0:	00016c00 	andeq	r6, r1, r0, lsl #24
     2e4:	03000500 	movweq	r0, #1280	; 0x500
     2e8:	0000bef0 	strdeq	fp, [r0], -r0
	...
     2f4:	00000148 	andeq	r0, r0, r8, asr #2
     2f8:	00000154 	andeq	r0, r0, r4, asr r1
     2fc:	54520001 	ldrbpl	r0, [r2], #-1
     300:	58000001 	stmdapl	r0, {r0}
     304:	05000001 	streq	r0, [r0, #-1]
     308:	bef00300 	cdplt	3, 15, cr0, cr0, cr0, {0}
	...
     314:	015c0000 	cmpeq	ip, r0
     318:	01680000 	cmneq	r8, r0
     31c:	00010000 	andeq	r0, r1, r0
     320:	00016852 	andeq	r6, r1, r2, asr r8
     324:	00016c00 	andeq	r6, r1, r0, lsl #24
     328:	03000500 	movweq	r0, #1280	; 0x500
     32c:	0000bef0 	strdeq	fp, [r0], -r0
	...
     338:	00000170 	andeq	r0, r0, r0, ror r1
     33c:	00000174 	andeq	r0, r0, r4, ror r1
     340:	00500001 	subseq	r0, r0, r1
     344:	00000000 	andeq	r0, r0, r0
     348:	88000000 	stmdahi	r0, {}	; <UNPREDICTABLE>
     34c:	f8000001 			; <UNDEFINED> instruction: 0xf8000001
     350:	09000002 	stmdbeq	r0, {r1}
     354:	08007100 	stmdaeq	r0, {r8, ip, sp, lr}
     358:	ff081a20 			; <UNDEFINED> instruction: 0xff081a20
     35c:	03089f1a 	movweq	r9, #36634	; 0x8f1a
     360:	030c0000 	movweq	r0, #49152	; 0xc000
     364:	00090000 	andeq	r0, r9, r0
     368:	20080071 	andcs	r0, r8, r1, ror r0
     36c:	1aff081a 	bne	fffc23dc <__bss_end__+0xfffb60c4>
     370:	0000009f 	muleq	r0, pc, r0	; <UNPREDICTABLE>
     374:	00000000 	andeq	r0, r0, r0
     378:	00018800 	andeq	r8, r1, r0, lsl #16
     37c:	00019c00 	andeq	r9, r1, r0, lsl #24
     380:	52000100 	andpl	r0, r0, #0, 2
     384:	0000019c 	muleq	r0, ip, r1
     388:	000001a0 	andeq	r0, r0, r0, lsr #3
     38c:	f0030005 			; <UNDEFINED> instruction: 0xf0030005
     390:	a40000be 	strge	r0, [r0], #-190	; 0xbe
     394:	b0000001 	andlt	r0, r0, r1
     398:	01000001 	tsteq	r0, r1
     39c:	01b05200 	lslseq	r5, r0, #4
     3a0:	01b40000 			; <UNDEFINED> instruction: 0x01b40000
     3a4:	00050000 	andeq	r0, r5, r0
     3a8:	00bef003 	adcseq	pc, lr, r3
	...
     3b4:	00019000 	andeq	r9, r1, r0
     3b8:	00019c00 	andeq	r9, r1, r0, lsl #24
     3bc:	52000100 	andpl	r0, r0, #0, 2
     3c0:	0000019c 	muleq	r0, ip, r1
     3c4:	000001a0 	andeq	r0, r0, r0, lsr #3
     3c8:	f0030005 			; <UNDEFINED> instruction: 0xf0030005
     3cc:	000000be 	strheq	r0, [r0], -lr
     3d0:	00000000 	andeq	r0, r0, r0
     3d4:	a4000000 	strge	r0, [r0], #-0
     3d8:	b0000001 	andlt	r0, r0, r1
     3dc:	01000001 	tsteq	r0, r1
     3e0:	01b05200 	lslseq	r5, r0, #4
     3e4:	01b40000 			; <UNDEFINED> instruction: 0x01b40000
     3e8:	00050000 	andeq	r0, r5, r0
     3ec:	00bef003 	adcseq	pc, lr, r3
	...
     3f8:	0001b800 	andeq	fp, r1, r0, lsl #16
     3fc:	0001bc00 	andeq	fp, r1, r0, lsl #24
     400:	52000100 	andpl	r0, r0, #0, 2
	...
     40c:	000001cc 	andeq	r0, r0, ip, asr #3
     410:	000002f8 	strdeq	r0, [r0], -r8
     414:	00710008 	rsbseq	r0, r1, r8
     418:	ff081a40 			; <UNDEFINED> instruction: 0xff081a40
     41c:	03089f1a 	movweq	r9, #36634	; 0x8f1a
     420:	030c0000 	movweq	r0, #49152	; 0xc000
     424:	00080000 	andeq	r0, r8, r0
     428:	1a400071 	bne	10005f4 <__bss_end__+0xff42dc>
     42c:	9f1aff08 	svcls	0x001aff08
	...
     438:	000001cc 	andeq	r0, r0, ip, asr #3
     43c:	000001e0 	andeq	r0, r0, r0, ror #3
     440:	e0520001 	subs	r0, r2, r1
     444:	e4000001 	str	r0, [r0], #-1
     448:	05000001 	streq	r0, [r0, #-1]
     44c:	bef00300 	cdplt	3, 15, cr0, cr0, cr0, {0}
     450:	01e80000 	mvneq	r0, r0
     454:	01f40000 	mvnseq	r0, r0
     458:	00010000 	andeq	r0, r1, r0
     45c:	0001f452 	andeq	pc, r1, r2, asr r4	; <UNPREDICTABLE>
     460:	0001f800 	andeq	pc, r1, r0, lsl #16
     464:	03000500 	movweq	r0, #1280	; 0x500
     468:	0000bef0 	strdeq	fp, [r0], -r0
	...
     474:	000001d4 	ldrdeq	r0, [r0], -r4
     478:	000001e0 	andeq	r0, r0, r0, ror #3
     47c:	e0520001 	subs	r0, r2, r1
     480:	e4000001 	str	r0, [r0], #-1
     484:	05000001 	streq	r0, [r0, #-1]
     488:	bef00300 	cdplt	3, 15, cr0, cr0, cr0, {0}
	...
     494:	01e80000 	mvneq	r0, r0
     498:	01f40000 	mvnseq	r0, r0
     49c:	00010000 	andeq	r0, r1, r0
     4a0:	0001f452 	andeq	pc, r1, r2, asr r4	; <UNPREDICTABLE>
     4a4:	0001f800 	andeq	pc, r1, r0, lsl #16
     4a8:	03000500 	movweq	r0, #1280	; 0x500
     4ac:	0000bef0 	strdeq	fp, [r0], -r0
	...
     4b8:	000001fc 	strdeq	r0, [r0], -ip
     4bc:	00000200 	andeq	r0, r0, r0, lsl #4
     4c0:	00500001 	subseq	r0, r0, r1
     4c4:	00000000 	andeq	r0, r0, r0
     4c8:	14000000 	strne	r0, [r0], #-0
     4cc:	f8000002 			; <UNDEFINED> instruction: 0xf8000002
     4d0:	08000002 	stmdaeq	r0, {r1}
     4d4:	38007100 	stmdacc	r0, {r8, ip, sp, lr}
     4d8:	1aff081a 	bne	fffc2548 <__bss_end__+0xfffb6230>
     4dc:	0003089f 	muleq	r3, pc, r8	; <UNPREDICTABLE>
     4e0:	00030c00 	andeq	r0, r3, r0, lsl #24
     4e4:	71000800 	tstvc	r0, r0, lsl #16
     4e8:	081a3800 	ldmdaeq	sl, {fp, ip, sp}
     4ec:	009f1aff 			; <UNDEFINED> instruction: 0x009f1aff
     4f0:	00000000 	andeq	r0, r0, r0
     4f4:	14000000 	strne	r0, [r0], #-0
     4f8:	28000002 	stmdacs	r0, {r1}
     4fc:	01000002 	tsteq	r0, r2
     500:	02285200 	eoreq	r5, r8, #0, 4
     504:	022c0000 	eoreq	r0, ip, #0
     508:	00050000 	andeq	r0, r5, r0
     50c:	00bef003 	adcseq	pc, lr, r3
     510:	00023000 	andeq	r3, r2, r0
     514:	00023c00 	andeq	r3, r2, r0, lsl #24
     518:	52000100 	andpl	r0, r0, #0, 2
     51c:	0000023c 	andeq	r0, r0, ip, lsr r2
     520:	00000240 	andeq	r0, r0, r0, asr #4
     524:	f0030005 			; <UNDEFINED> instruction: 0xf0030005
     528:	000000be 	strheq	r0, [r0], -lr
     52c:	00000000 	andeq	r0, r0, r0
     530:	1c000000 	stcne	0, cr0, [r0], {-0}
     534:	28000002 	stmdacs	r0, {r1}
     538:	01000002 	tsteq	r0, r2
     53c:	02285200 	eoreq	r5, r8, #0, 4
     540:	022c0000 	eoreq	r0, ip, #0
     544:	00050000 	andeq	r0, r5, r0
     548:	00bef003 	adcseq	pc, lr, r3
	...
     554:	00023000 	andeq	r3, r2, r0
     558:	00023c00 	andeq	r3, r2, r0, lsl #24
     55c:	52000100 	andpl	r0, r0, #0, 2
     560:	0000023c 	andeq	r0, r0, ip, lsr r2
     564:	00000240 	andeq	r0, r0, r0, asr #4
     568:	f0030005 			; <UNDEFINED> instruction: 0xf0030005
     56c:	000000be 	strheq	r0, [r0], -lr
     570:	00000000 	andeq	r0, r0, r0
     574:	44000000 	strmi	r0, [r0], #-0
     578:	48000002 	stmdami	r0, {r1}
     57c:	01000002 	tsteq	r0, r2
     580:	00005000 	andeq	r5, r0, r0
     584:	00000000 	andeq	r0, r0, r0
     588:	02600000 	rsbeq	r0, r0, #0
     58c:	02f80000 	rscseq	r0, r8, #0
     590:	00080000 	andeq	r0, r8, r0
     594:	1a340071 	bne	d00760 <__bss_end__+0xcf4448>
     598:	9f1aff08 	svcls	0x001aff08
     59c:	00000308 	andeq	r0, r0, r8, lsl #6
     5a0:	0000030c 	andeq	r0, r0, ip, lsl #6
     5a4:	00710008 	rsbseq	r0, r1, r8
     5a8:	ff081a34 			; <UNDEFINED> instruction: 0xff081a34
     5ac:	00009f1a 	andeq	r9, r0, sl, lsl pc
     5b0:	00000000 	andeq	r0, r0, r0
     5b4:	02600000 	rsbeq	r0, r0, #0
     5b8:	02740000 	rsbseq	r0, r4, #0
     5bc:	00010000 	andeq	r0, r1, r0
     5c0:	00027452 	andeq	r7, r2, r2, asr r4
     5c4:	00027800 	andeq	r7, r2, r0, lsl #16
     5c8:	03000500 	movweq	r0, #1280	; 0x500
     5cc:	0000bef0 	strdeq	fp, [r0], -r0
     5d0:	0000027c 	andeq	r0, r0, ip, ror r2
     5d4:	00000288 	andeq	r0, r0, r8, lsl #5
     5d8:	88520001 	ldmdahi	r2, {r0}^
     5dc:	8c000002 	stchi	0, cr0, [r0], {2}
     5e0:	05000002 	streq	r0, [r0, #-2]
     5e4:	bef00300 	cdplt	3, 15, cr0, cr0, cr0, {0}
	...
     5f0:	02680000 	rsbeq	r0, r8, #0
     5f4:	02740000 	rsbseq	r0, r4, #0
     5f8:	00010000 	andeq	r0, r1, r0
     5fc:	00027452 	andeq	r7, r2, r2, asr r4
     600:	00027800 	andeq	r7, r2, r0, lsl #16
     604:	03000500 	movweq	r0, #1280	; 0x500
     608:	0000bef0 	strdeq	fp, [r0], -r0
	...
     614:	0000027c 	andeq	r0, r0, ip, ror r2
     618:	00000288 	andeq	r0, r0, r8, lsl #5
     61c:	88520001 	ldmdahi	r2, {r0}^
     620:	8c000002 	stchi	0, cr0, [r0], {2}
     624:	05000002 	streq	r0, [r0, #-2]
     628:	bef00300 	cdplt	3, 15, cr0, cr0, cr0, {0}
	...
     634:	02900000 	addseq	r0, r0, #0
     638:	02940000 	addseq	r0, r4, #0
     63c:	00010000 	andeq	r0, r1, r0
     640:	00000050 	andeq	r0, r0, r0, asr r0
     644:	00000000 	andeq	r0, r0, r0
     648:	0002a800 	andeq	sl, r2, r0, lsl #16
     64c:	0002f800 	andeq	pc, r2, r0, lsl #16
     650:	71000800 	tstvc	r0, r0, lsl #16
     654:	081a3200 	ldmdaeq	sl, {r9, ip, sp}
     658:	089f1aff 	ldmeq	pc, {r0, r1, r2, r3, r4, r5, r6, r7, r9, fp, ip}	; <UNPREDICTABLE>
     65c:	0c000003 	stceq	0, cr0, [r0], {3}
     660:	08000003 	stmdaeq	r0, {r0, r1}
     664:	32007100 	andcc	r7, r0, #0, 2
     668:	1aff081a 	bne	fffc26d8 <__bss_end__+0xfffb63c0>
     66c:	0000009f 	muleq	r0, pc, r0	; <UNPREDICTABLE>
     670:	00000000 	andeq	r0, r0, r0
     674:	0002a800 	andeq	sl, r2, r0, lsl #16
     678:	0002bc00 	andeq	fp, r2, r0, lsl #24
     67c:	52000100 	andpl	r0, r0, #0, 2
     680:	000002bc 			; <UNDEFINED> instruction: 0x000002bc
     684:	000002c0 	andeq	r0, r0, r0, asr #5
     688:	f0030005 			; <UNDEFINED> instruction: 0xf0030005
     68c:	c40000be 	strgt	r0, [r0], #-190	; 0xbe
     690:	d0000002 	andle	r0, r0, r2
     694:	01000002 	tsteq	r0, r2
     698:	02d05200 	sbcseq	r5, r0, #0, 4
     69c:	02d40000 	sbcseq	r0, r4, #0
     6a0:	00050000 	andeq	r0, r5, r0
     6a4:	00bef003 	adcseq	pc, lr, r3
	...
     6b0:	0002b000 	andeq	fp, r2, r0
     6b4:	0002bc00 	andeq	fp, r2, r0, lsl #24
     6b8:	52000100 	andpl	r0, r0, #0, 2
     6bc:	000002bc 			; <UNDEFINED> instruction: 0x000002bc
     6c0:	000002c0 	andeq	r0, r0, r0, asr #5
     6c4:	f0030005 			; <UNDEFINED> instruction: 0xf0030005
     6c8:	000000be 	strheq	r0, [r0], -lr
     6cc:	00000000 	andeq	r0, r0, r0
     6d0:	c4000000 	strgt	r0, [r0], #-0
     6d4:	d0000002 	andle	r0, r0, r2
     6d8:	01000002 	tsteq	r0, r2
     6dc:	02d05200 	sbcseq	r5, r0, #0, 4
     6e0:	02d40000 	sbcseq	r0, r4, #0
     6e4:	00050000 	andeq	r0, r5, r0
     6e8:	00bef003 	adcseq	pc, lr, r3
	...
     6f4:	0002d800 	andeq	sp, r2, r0, lsl #16
     6f8:	0002dc00 	andeq	sp, r2, r0, lsl #24
     6fc:	52000100 	andpl	r0, r0, #0, 2
	...
     708:	000002ec 	andeq	r0, r0, ip, ror #5
     70c:	000002f8 	strdeq	r0, [r0], -r8
     710:	00710008 	rsbseq	r0, r1, r8
     714:	ff081a31 			; <UNDEFINED> instruction: 0xff081a31
     718:	03089f1a 	movweq	r9, #36634	; 0x8f1a
     71c:	030c0000 	movweq	r0, #49152	; 0xc000
     720:	00080000 	andeq	r0, r8, r0
     724:	1a310071 	bne	c408f0 <__bss_end__+0xc345d8>
     728:	9f1aff08 	svcls	0x001aff08
	...
     734:	000002ec 	andeq	r0, r0, ip, ror #5
     738:	00000300 	andeq	r0, r0, r0, lsl #6
     73c:	00520001 	subseq	r0, r2, r1
     740:	04000003 	streq	r0, [r0], #-3
     744:	05000003 	streq	r0, [r0, #-3]
     748:	bef00300 	cdplt	3, 15, cr0, cr0, cr0, {0}
     74c:	03080000 	movweq	r0, #32768	; 0x8000
     750:	03140000 	tsteq	r4, #0
     754:	00010000 	andeq	r0, r1, r0
     758:	00031452 	andeq	r1, r3, r2, asr r4
     75c:	00031800 	andeq	r1, r3, r0, lsl #16
     760:	03000500 	movweq	r0, #1280	; 0x500
     764:	0000bef0 	strdeq	fp, [r0], -r0
	...
     770:	000002f4 	strdeq	r0, [r0], -r4
     774:	00000300 	andeq	r0, r0, r0, lsl #6
     778:	00520001 	subseq	r0, r2, r1
     77c:	04000003 	streq	r0, [r0], #-3
     780:	05000003 	streq	r0, [r0, #-3]
     784:	bef00300 	cdplt	3, 15, cr0, cr0, cr0, {0}
	...
     790:	03080000 	movweq	r0, #32768	; 0x8000
     794:	03140000 	tsteq	r4, #0
     798:	00010000 	andeq	r0, r1, r0
     79c:	00031452 	andeq	r1, r3, r2, asr r4
     7a0:	00031800 	andeq	r1, r3, r0, lsl #16
     7a4:	03000500 	movweq	r0, #1280	; 0x500
     7a8:	0000bef0 	strdeq	fp, [r0], -r0
	...
     7b4:	0000031c 	andeq	r0, r0, ip, lsl r3
     7b8:	00000320 	andeq	r0, r0, r0, lsr #6
     7bc:	00510001 	subseq	r0, r1, r1
     7c0:	00000000 	andeq	r0, r0, r0
     7c4:	34000000 	strcc	r0, [r0], #-0
     7c8:	40000003 	andmi	r0, r0, r3
     7cc:	01000003 	tsteq	r0, r3
     7d0:	03405200 	movteq	r5, #512	; 0x200
     7d4:	03440000 	movteq	r0, #16384	; 0x4000
     7d8:	00050000 	andeq	r0, r5, r0
     7dc:	00bef003 	adcseq	pc, lr, r3
	...
     7e8:	00034800 	andeq	r4, r3, r0, lsl #16
     7ec:	00034c00 	andeq	r4, r3, r0, lsl #24
     7f0:	51000100 	mrspl	r0, (UNDEF: 16)
	...
     7fc:	000003a8 	andeq	r0, r0, r8, lsr #7
     800:	000003b7 			; <UNDEFINED> instruction: 0x000003b7
     804:	b7500001 	ldrblt	r0, [r0, -r1]
     808:	d0000003 	andle	r0, r0, r3
     80c:	04000003 	streq	r0, [r0], #-3
     810:	5001f300 	andpl	pc, r1, r0, lsl #6
     814:	0003d09f 	muleq	r3, pc, r0	; <UNPREDICTABLE>
     818:	0003dc00 	andeq	sp, r3, r0, lsl #24
     81c:	50000100 	andpl	r0, r0, r0, lsl #2
     820:	000003dc 	ldrdeq	r0, [r0], -ip
     824:	000003f8 	strdeq	r0, [r0], -r8
     828:	01f30004 	mvnseq	r0, r4
     82c:	00009f50 	andeq	r9, r0, r0, asr pc
     830:	00000000 	andeq	r0, r0, r0
     834:	03e40000 	mvneq	r0, #0
     838:	03e80000 	mvneq	r0, #0
     83c:	00010000 	andeq	r0, r1, r0
     840:	00000050 	andeq	r0, r0, r0, asr r0
     844:	00000000 	andeq	r0, r0, r0
     848:	0003f800 	andeq	pc, r3, r0, lsl #16
     84c:	0003ff00 	andeq	pc, r3, r0, lsl #30
     850:	50000100 	andpl	r0, r0, r0, lsl #2
     854:	000003ff 	strdeq	r0, [r0], -pc	; <UNPREDICTABLE>
     858:	00000638 	andeq	r0, r0, r8, lsr r6
     85c:	01f30004 	mvnseq	r0, r4
     860:	00009f50 	andeq	r9, r0, r0, asr pc
     864:	00000000 	andeq	r0, r0, r0
     868:	04000000 	streq	r0, [r0], #-0
     86c:	046c0000 	strbteq	r0, [ip], #-0
     870:	00020000 	andeq	r0, r2, r0
     874:	046c9f30 	strbteq	r9, [ip], #-3888	; 0xf30
     878:	04980000 	ldreq	r0, [r8], #0
     87c:	00010000 	andeq	r0, r1, r0
     880:	00049855 	andeq	r9, r4, r5, asr r8
     884:	0004c800 	andeq	ip, r4, r0, lsl #16
     888:	57000100 	strpl	r0, [r0, -r0, lsl #2]
     88c:	000004c8 	andeq	r0, r0, r8, asr #9
     890:	000004f4 	strdeq	r0, [r0], -r4
     894:	f4560001 			; <UNDEFINED> instruction: 0xf4560001
     898:	24000004 	strcs	r0, [r0], #-4
     89c:	01000005 	tsteq	r0, r5
     8a0:	05245500 	streq	r5, [r4, #-1280]!	; 0x500
     8a4:	05540000 	ldrbeq	r0, [r4, #-0]
     8a8:	00010000 	andeq	r0, r1, r0
     8ac:	00055457 	andeq	r5, r5, r7, asr r4
     8b0:	00058400 	andeq	r8, r5, r0, lsl #8
     8b4:	56000100 	strpl	r0, [r0], -r0, lsl #2
     8b8:	00000584 	andeq	r0, r0, r4, lsl #11
     8bc:	000005b4 			; <UNDEFINED> instruction: 0x000005b4
     8c0:	b4550001 	ldrblt	r0, [r5], #-1
     8c4:	dc000005 	stcle	0, cr0, [r0], {5}
     8c8:	01000005 	tsteq	r0, r5
     8cc:	05dc5100 	ldrbeq	r5, [ip, #256]	; 0x100
     8d0:	05ec0000 	strbeq	r0, [ip, #0]!
     8d4:	001b0000 	andseq	r0, fp, r0
     8d8:	bef40331 	mrclt	3, 7, r0, cr4, cr1, {1}
     8dc:	24060000 	strcs	r0, [r6], #-0
     8e0:	031a0070 	tsteq	sl, #112	; 0x70
     8e4:	0000bef4 	strdeq	fp, [r0], -r4
     8e8:	24372506 	ldrtcs	r2, [r7], #-1286	; 0x506
     8ec:	751aff08 	ldrvc	pc, [sl, #-3848]	; 0xf08
     8f0:	009f2100 	addseq	r2, pc, r0, lsl #2
     8f4:	00000000 	andeq	r0, r0, r0
     8f8:	0c000000 	stceq	0, cr0, [r0], {-0}
     8fc:	bc000004 	stclt	0, cr0, [r0], {4}
     900:	01000005 	tsteq	r0, r5
     904:	05bc5c00 	ldreq	r5, [ip, #3072]!	; 0xc00
     908:	061b0000 	ldreq	r0, [fp], -r0
     90c:	00090000 	andeq	r0, r9, r0
     910:	00befc03 	adcseq	pc, lr, r3, lsl #24
     914:	25310600 	ldrcs	r0, [r1, #-1536]!	; 0x600
     918:	0000009f 	muleq	r0, pc, r0	; <UNPREDICTABLE>
     91c:	00000000 	andeq	r0, r0, r0
     920:	00043400 	andeq	r3, r4, r0, lsl #8
     924:	0005d400 	andeq	sp, r5, r0, lsl #8
     928:	53000100 	movwpl	r0, #256	; 0x100
	...
     934:	00000438 	andeq	r0, r0, r8, lsr r4
     938:	0000043c 	andeq	r0, r0, ip, lsr r4
     93c:	00500001 	subseq	r0, r0, r1
     940:	00000000 	andeq	r0, r0, r0
     944:	4c000000 	stcmi	0, cr0, [r0], {-0}
     948:	50000004 	andpl	r0, r0, r4
     94c:	01000004 	tsteq	r0, r4
     950:	00005000 	andeq	r5, r0, r0
     954:	00000000 	andeq	r0, r0, r0
     958:	04740000 	ldrbteq	r0, [r4], #-0
     95c:	04780000 	ldrbteq	r0, [r8], #-0
     960:	00010000 	andeq	r0, r1, r0
     964:	00000050 	andeq	r0, r0, r0, asr r0
     968:	00000000 	andeq	r0, r0, r0
     96c:	0004a400 	andeq	sl, r4, r0, lsl #8
     970:	0004a800 	andeq	sl, r4, r0, lsl #16
     974:	50000100 	andpl	r0, r0, r0, lsl #2
	...
     980:	000004d0 	ldrdeq	r0, [r0], -r0	; <UNPREDICTABLE>
     984:	000004d4 	ldrdeq	r0, [r0], -r4
     988:	00500001 	subseq	r0, r0, r1
	...
     994:	04000005 	streq	r0, [r0], #-5
     998:	01000005 	tsteq	r0, r5
     99c:	00005000 	andeq	r5, r0, r0
     9a0:	00000000 	andeq	r0, r0, r0
     9a4:	05300000 	ldreq	r0, [r0, #-0]!
     9a8:	05340000 	ldreq	r0, [r4, #-0]!
     9ac:	00010000 	andeq	r0, r1, r0
     9b0:	00000050 	andeq	r0, r0, r0, asr r0
     9b4:	00000000 	andeq	r0, r0, r0
     9b8:	00056000 	andeq	r6, r5, r0
     9bc:	00056400 	andeq	r6, r5, r0, lsl #8
     9c0:	50000100 	andpl	r0, r0, r0, lsl #2
	...
     9cc:	0000058c 	andeq	r0, r0, ip, lsl #11
     9d0:	00000590 	muleq	r0, r0, r5
     9d4:	00500001 	subseq	r0, r0, r1
     9d8:	00000000 	andeq	r0, r0, r0
     9dc:	c0000000 	andgt	r0, r0, r0
     9e0:	c4000005 	strgt	r0, [r0], #-5
     9e4:	01000005 	tsteq	r0, r5
     9e8:	00005200 	andeq	r5, r0, r0, lsl #4
     9ec:	00000000 	andeq	r0, r0, r0
     9f0:	05d00000 	ldrbeq	r0, [r0]
     9f4:	05dc0000 	ldrbeq	r0, [ip]
     9f8:	00010000 	andeq	r0, r1, r0
     9fc:	0005dc51 	andeq	sp, r5, r1, asr ip
     a00:	00061b00 	andeq	r1, r6, r0, lsl #22
     a04:	5c000100 	stfpls	f0, [r0], {-0}
	...
     a10:	000005dc 	ldrdeq	r0, [r0], -ip
     a14:	00000604 	andeq	r0, r0, r4, lsl #12
     a18:	04510001 	ldrbeq	r0, [r1], #-1
     a1c:	1b000006 	blne	a3c <_start-0x75c4>
     a20:	05000006 	streq	r0, [r0, #-6]
     a24:	bedc0300 	cdplt	3, 13, cr0, cr12, cr0, {0}
	...
     a30:	07700000 	ldrbeq	r0, [r0, -r0]!
     a34:	07a00000 	streq	r0, [r0, r0]!
     a38:	00020000 	andeq	r0, r2, r0
     a3c:	07a09f42 	streq	r9, [r0, r2, asr #30]!
     a40:	07b80000 	ldreq	r0, [r8, r0]!
     a44:	00010000 	andeq	r0, r1, r0
     a48:	0007b850 	andeq	fp, r7, r0, asr r8
     a4c:	0007c000 	andeq	ip, r7, r0
     a50:	42000200 	andmi	r0, r0, #0, 4
     a54:	0007c09f 	muleq	r7, pc, r0	; <UNPREDICTABLE>
     a58:	0007eb00 	andeq	lr, r7, r0, lsl #22
     a5c:	50000100 	andpl	r0, r0, r0, lsl #2
     a60:	00000804 	andeq	r0, r0, r4, lsl #16
     a64:	00000807 	andeq	r0, r0, r7, lsl #16
     a68:	00500001 	subseq	r0, r0, r1
     a6c:	00000000 	andeq	r0, r0, r0
     a70:	98000000 	stmdals	r0, {}	; <UNPREDICTABLE>
     a74:	a4000007 	strge	r0, [r0], #-7
     a78:	01000007 	tsteq	r0, r7
     a7c:	07a45100 	streq	r5, [r4, r0, lsl #2]!
     a80:	07b80000 	ldreq	r0, [r8, r0]!
     a84:	00050000 	andeq	r0, r5, r0
     a88:	00bee003 	adcseq	lr, lr, r3
	...
     a98:	00000400 	andeq	r0, r0, r0, lsl #8
     a9c:	52000100 	andpl	r0, r0, #0, 2
     aa0:	00000004 	andeq	r0, r0, r4
     aa4:	00000020 	andeq	r0, r0, r0, lsr #32
     aa8:	01f30004 	mvnseq	r0, r4
     aac:	00009f52 	andeq	r9, r0, r2, asr pc
	...
     ab8:	000c0000 	andeq	r0, ip, r0
     abc:	00010000 	andeq	r0, r1, r0
     ac0:	00000c50 	andeq	r0, r0, r0, asr ip
     ac4:	00001400 	andeq	r1, r0, r0, lsl #8
     ac8:	73000300 	movwvc	r0, #768	; 0x300
     acc:	00149f01 	andseq	r9, r4, r1, lsl #30
     ad0:	00200000 	eoreq	r0, r0, r0
     ad4:	00010000 	andeq	r0, r1, r0
     ad8:	00000053 	andeq	r0, r0, r3, asr r0
     adc:	00000000 	andeq	r0, r0, r0
     ae0:	00002c00 	andeq	r2, r0, r0, lsl #24
     ae4:	00003800 	andeq	r3, r0, r0, lsl #16
     ae8:	50000100 	andpl	r0, r0, r0, lsl #2
     aec:	00000038 	andeq	r0, r0, r8, lsr r0
     af0:	00000048 	andeq	r0, r0, r8, asr #32
     af4:	48550001 	ldmdami	r5, {r0}^
     af8:	58000000 	stmdapl	r0, {}	; <UNPREDICTABLE>
     afc:	01000000 	mrseq	r0, (UNDEF: 0)
     b00:	00005000 	andeq	r5, r0, r0
	...
     b0c:	000b0000 	andeq	r0, fp, r0
     b10:	00010000 	andeq	r0, r1, r0
     b14:	00000b50 	andeq	r0, r0, r0, asr fp
     b18:	00001400 	andeq	r1, r0, r0, lsl #8
     b1c:	54000100 	strpl	r0, [r0], #-256	; 0x100
	...
     b2c:	00000010 	andeq	r0, r0, r0, lsl r0
     b30:	10500001 	subsne	r0, r0, r1
     b34:	34000000 	strcc	r0, [r0], #-0
     b38:	01000000 	mrseq	r0, (UNDEF: 0)
     b3c:	00005400 	andeq	r5, r0, r0, lsl #8
	...
     b48:	00040000 	andeq	r0, r4, r0
     b4c:	00010000 	andeq	r0, r1, r0
     b50:	00000450 	andeq	r0, r0, r0, asr r4
     b54:	00000c00 	andeq	r0, r0, r0, lsl #24
     b58:	70000300 	andvc	r0, r0, r0, lsl #6
     b5c:	000c9f30 	andeq	r9, ip, r0, lsr pc
     b60:	00140000 	andseq	r0, r4, r0
     b64:	00040000 	andeq	r0, r4, r0
     b68:	9f5001f3 	svcls	0x005001f3
	...
     b74:	00000014 	andeq	r0, r0, r4, lsl r0
     b78:	00000020 	andeq	r0, r0, r0, lsr #32
     b7c:	20500001 	subscs	r0, r0, r1
     b80:	2c000000 	stccs	0, cr0, [r0], {-0}
     b84:	03000000 	movweq	r0, #0
     b88:	9f017000 	svcls	0x00017000
     b8c:	0000002c 	andeq	r0, r0, ip, lsr #32
     b90:	00000040 	andeq	r0, r0, r0, asr #32
     b94:	00500001 	subseq	r0, r0, r1
     b98:	00000000 	andeq	r0, r0, r0
     b9c:	14000000 	strne	r0, [r0], #-0
     ba0:	18000000 	stmdane	r0, {}	; <UNPREDICTABLE>
     ba4:	01000000 	mrseq	r0, (UNDEF: 0)
     ba8:	00185100 	andseq	r5, r8, r0, lsl #2
     bac:	00400000 	subeq	r0, r0, r0
     bb0:	00040000 	andeq	r0, r4, r0
     bb4:	9f5101f3 	svcls	0x005101f3
	...
     bc0:	00000040 	andeq	r0, r0, r0, asr #32
     bc4:	00000060 	andeq	r0, r0, r0, rrx
     bc8:	60500001 	subsvs	r0, r0, r1
     bcc:	6c000000 	stcvs	0, cr0, [r0], {-0}
     bd0:	03000000 	movweq	r0, #0
     bd4:	9f017100 	svcls	0x00017100
     bd8:	0000006c 	andeq	r0, r0, ip, rrx
     bdc:	00000074 	andeq	r0, r0, r4, ror r0
     be0:	74510001 	ldrbvc	r0, [r1], #-1
     be4:	80000000 	andhi	r0, r0, r0
     be8:	03000000 	movweq	r0, #0
     bec:	9f017100 	svcls	0x00017100
	...
     bf8:	00000040 	andeq	r0, r0, r0, asr #32
     bfc:	00000050 	andeq	r0, r0, r0, asr r0
     c00:	50510001 	subspl	r0, r1, r1
     c04:	80000000 	andhi	r0, r0, r0
     c08:	04000000 	streq	r0, [r0], #-0
     c0c:	5101f300 	mrspl	pc, SP_irq	; <UNPREDICTABLE>
     c10:	0000009f 	muleq	r0, pc, r0	; <UNPREDICTABLE>
     c14:	00000000 	andeq	r0, r0, r0
     c18:	00004000 	andeq	r4, r0, r0
     c1c:	00005800 	andeq	r5, r0, r0, lsl #16
     c20:	52000100 	andpl	r0, r0, #0, 2
     c24:	00000058 	andeq	r0, r0, r8, asr r0
     c28:	00000064 	andeq	r0, r0, r4, rrx
     c2c:	64520001 	ldrbvs	r0, [r2], #-1
     c30:	68000000 	stmdavs	r0, {}	; <UNPREDICTABLE>
     c34:	03000000 	movweq	r0, #0
     c38:	9f017200 	svcls	0x00017200
     c3c:	00000068 	andeq	r0, r0, r8, rrx
     c40:	00000080 	andeq	r0, r0, r0, lsl #1
     c44:	00520001 	subseq	r0, r2, r1
     c48:	00000000 	andeq	r0, r0, r0
     c4c:	40000000 	andmi	r0, r0, r0
     c50:	54000000 	strpl	r0, [r0], #-0
     c54:	01000000 	mrseq	r0, (UNDEF: 0)
     c58:	00545300 	subseq	r5, r4, r0, lsl #6
     c5c:	00780000 	rsbseq	r0, r8, r0
     c60:	00010000 	andeq	r0, r1, r0
     c64:	00000053 	andeq	r0, r0, r3, asr r0
     c68:	00000000 	andeq	r0, r0, r0
     c6c:	00004800 	andeq	r4, r0, r0, lsl #16
     c70:	00006000 	andeq	r6, r0, r0
     c74:	5c000100 	stfpls	f0, [r0], {-0}
     c78:	00000060 	andeq	r0, r0, r0, rrx
     c7c:	00000080 	andeq	r0, r0, r0, lsl #1
     c80:	01f3000a 	mvnseq	r0, sl
     c84:	5301f352 	movwpl	pc, #4946	; 0x1352	; <UNPREDICTABLE>
     c88:	9f01231c 	svcls	0x0001231c
	...
     c94:	00000080 	andeq	r0, r0, r0, lsl #1
     c98:	000000a4 	andeq	r0, r0, r4, lsr #1
     c9c:	a4500001 	ldrbge	r0, [r0], #-1
     ca0:	18000000 	stmdane	r0, {}	; <UNPREDICTABLE>
     ca4:	03000001 	movweq	r0, #1
     ca8:	9f027000 	svcls	0x00027000
     cac:	00000118 	andeq	r0, r0, r8, lsl r1
     cb0:	0000021c 	andeq	r0, r0, ip, lsl r2
     cb4:	01f30004 	mvnseq	r0, r4
     cb8:	00009f50 	andeq	r9, r0, r0, asr pc
     cbc:	00000000 	andeq	r0, r0, r0
     cc0:	00800000 	addeq	r0, r0, r0
     cc4:	00f00000 	rscseq	r0, r0, r0
     cc8:	00010000 	andeq	r0, r1, r0
     ccc:	0000f051 	andeq	pc, r0, r1, asr r0	; <UNPREDICTABLE>
     cd0:	00016000 	andeq	r6, r1, r0
     cd4:	55000100 	strpl	r0, [r0, #-256]	; 0x100
     cd8:	00000160 	andeq	r0, r0, r0, ror #2
     cdc:	00000168 	andeq	r0, r0, r8, ror #2
     ce0:	68510001 	ldmdavs	r1, {r0}^
     ce4:	88000001 	stmdahi	r0, {r0}
     ce8:	01000001 	tsteq	r0, r1
     cec:	01885500 	orreq	r5, r8, r0, lsl #10
     cf0:	019c0000 	orrseq	r0, ip, r0
     cf4:	00010000 	andeq	r0, r1, r0
     cf8:	00019c51 	andeq	r9, r1, r1, asr ip
     cfc:	0001bc00 	andeq	fp, r1, r0, lsl #24
     d00:	55000100 	strpl	r0, [r0, #-256]	; 0x100
     d04:	000001bc 			; <UNDEFINED> instruction: 0x000001bc
     d08:	000001bf 			; <UNDEFINED> instruction: 0x000001bf
     d0c:	bf510001 	svclt	0x00510001
     d10:	00000001 	andeq	r0, r0, r1
     d14:	01000002 	tsteq	r0, r2
     d18:	02005500 	andeq	r5, r0, #0, 10
     d1c:	021c0000 	andseq	r0, ip, #0
     d20:	00040000 	andeq	r0, r4, r0
     d24:	9f5101f3 	svcls	0x005101f3
	...
     d30:	00000080 	andeq	r0, r0, r0, lsl #1
     d34:	00000094 	muleq	r0, r4, r0
     d38:	94520001 	ldrbls	r0, [r2], #-1
     d3c:	00000000 	andeq	r0, r0, r0
     d40:	01000002 	tsteq	r0, r2
     d44:	02005400 	andeq	r5, r0, #0, 8
     d48:	021c0000 	andseq	r0, ip, #0
     d4c:	00040000 	andeq	r0, r4, r0
     d50:	9f5201f3 	svcls	0x005201f3
	...
     d5c:	00000080 	andeq	r0, r0, r0, lsl #1
     d60:	00000100 	andeq	r0, r0, r0, lsl #2
     d64:	04530001 	ldrbeq	r0, [r3], #-1
     d68:	08000001 	stmdaeq	r0, {r0}
     d6c:	01000001 	tsteq	r0, r1
     d70:	01605300 	cmneq	r0, r0, lsl #6
     d74:	01680000 	cmneq	r8, r0
     d78:	00010000 	andeq	r0, r1, r0
     d7c:	00016853 	andeq	r6, r1, r3, asr r8
     d80:	00018800 	andeq	r8, r1, r0, lsl #16
     d84:	f3000400 	vshl.u8	d0, d0, d0
     d88:	889f5301 	ldmhi	pc, {r0, r8, r9, ip, lr}	; <UNPREDICTABLE>
     d8c:	90000001 	andls	r0, r0, r1
     d90:	01000001 	tsteq	r0, r1
     d94:	01905300 	orrseq	r5, r0, r0, lsl #6
     d98:	01940000 	orrseq	r0, r4, r0
     d9c:	00010000 	andeq	r0, r1, r0
     da0:	0001945c 	andeq	r9, r1, ip, asr r4
     da4:	00019c00 	andeq	r9, r1, r0, lsl #24
     da8:	53000100 	movwpl	r0, #256	; 0x100
     dac:	0000019c 	muleq	r0, ip, r1
     db0:	000001bc 			; <UNDEFINED> instruction: 0x000001bc
     db4:	01f30004 	mvnseq	r0, r4
     db8:	01bc9f53 			; <UNDEFINED> instruction: 0x01bc9f53
     dbc:	01bf0000 			; <UNDEFINED> instruction: 0x01bf0000
     dc0:	00010000 	andeq	r0, r1, r0
     dc4:	0001bf53 	andeq	fp, r1, r3, asr pc
     dc8:	0001d800 	andeq	sp, r1, r0, lsl #16
     dcc:	f3000400 	vshl.u8	d0, d0, d0
     dd0:	009f5301 	addseq	r5, pc, r1, lsl #6
     dd4:	00000000 	andeq	r0, r0, r0
     dd8:	80000000 	andhi	r0, r0, r0
     ddc:	9c000000 	stcls	0, cr0, [r0], {-0}
     de0:	02000000 	andeq	r0, r0, #0
     de4:	9c009100 	stflsd	f1, [r0], {-0}
     de8:	bf000000 	svclt	0x00000000
     dec:	01000001 	tsteq	r0, r1
     df0:	01d85200 	bicseq	r5, r8, r0, lsl #4
     df4:	01e30000 	mvneq	r0, r0
     df8:	00010000 	andeq	r0, r1, r0
     dfc:	00000052 	andeq	r0, r0, r2, asr r0
     e00:	00000000 	andeq	r0, r0, r0
     e04:	00009c00 	andeq	r9, r0, r0, lsl #24
     e08:	00011800 	andeq	r1, r1, r0, lsl #16
     e0c:	5d000100 	stfpls	f0, [r0, #-0]
     e10:	00000118 	andeq	r0, r0, r8, lsl r1
     e14:	0000011c 	andeq	r0, r0, ip, lsl r1
     e18:	1c530001 	mrrcne	0, 0, r0, r3, cr1
     e1c:	20000001 	andcs	r0, r0, r1
     e20:	01000001 	tsteq	r0, r1
     e24:	01205100 	teqeq	r0, r0, lsl #2
     e28:	01600000 	cmneq	r0, r0
     e2c:	00010000 	andeq	r0, r1, r0
     e30:	00016053 	andeq	r6, r1, r3, asr r0
     e34:	00016800 	andeq	r6, r1, r0, lsl #16
     e38:	5d000100 	stfpls	f0, [r0, #-0]
     e3c:	00000168 	andeq	r0, r0, r8, ror #2
     e40:	0000016c 	andeq	r0, r0, ip, ror #2
     e44:	6c5e0001 	mrrcvs	0, 0, r0, lr, cr1
     e48:	88000001 	stmdahi	r0, {r0}
     e4c:	01000001 	tsteq	r0, r1
     e50:	01885300 	orreq	r5, r8, r0, lsl #6
     e54:	01900000 	orrseq	r0, r0, r0
     e58:	00040000 	andeq	r0, r4, r0
     e5c:	9f7fa191 	svcls	0x007fa191
     e60:	00000190 	muleq	r0, r0, r1
     e64:	00000194 	muleq	r0, r4, r1
     e68:	94530001 	ldrbls	r0, [r3], #-1
     e6c:	9c000001 	stcls	0, cr0, [r0], {1}
     e70:	01000001 	tsteq	r0, r1
     e74:	019c5d00 	orrseq	r5, ip, r0, lsl #26
     e78:	01a00000 	moveq	r0, r0
     e7c:	00010000 	andeq	r0, r1, r0
     e80:	0001a05e 	andeq	sl, r1, lr, asr r0
     e84:	0001bc00 	andeq	fp, r1, r0, lsl #24
     e88:	53000100 	movwpl	r0, #256	; 0x100
     e8c:	000001bc 			; <UNDEFINED> instruction: 0x000001bc
     e90:	000001d8 	ldrdeq	r0, [r0], -r8
     e94:	d85d0001 	ldmdale	sp, {r0}^
     e98:	e3000001 	movw	r0, #1
     e9c:	01000001 	tsteq	r0, r1
     ea0:	00005300 	andeq	r5, r0, r0, lsl #6
     ea4:	00000000 	andeq	r0, r0, r0
     ea8:	00a00000 	adceq	r0, r0, r0
     eac:	00ec0000 	rsceq	r0, ip, r0
     eb0:	00010000 	andeq	r0, r1, r0
     eb4:	0000ec5c 	andeq	lr, r0, ip, asr ip
     eb8:	00010000 	andeq	r0, r1, r0
     ebc:	53000100 	movwpl	r0, #256	; 0x100
     ec0:	00000100 	andeq	r0, r0, r0, lsl #2
     ec4:	00000104 	andeq	r0, r0, r4, lsl #2
     ec8:	045c0001 	ldrbeq	r0, [ip], #-1
     ecc:	08000001 	stmdaeq	r0, {r0}
     ed0:	01000001 	tsteq	r0, r1
     ed4:	01085300 	mrseq	r5, (UNDEF: 56)
     ed8:	01180000 	tsteq	r8, r0
     edc:	00010000 	andeq	r0, r1, r0
     ee0:	0001185c 	andeq	r1, r1, ip, asr r8
     ee4:	00011c00 	andeq	r1, r1, r0, lsl #24
     ee8:	50000100 	andpl	r0, r0, r0, lsl #2
     eec:	0000011c 	andeq	r0, r0, ip, lsl r1
     ef0:	0000013c 	andeq	r0, r0, ip, lsr r1
     ef4:	445c0001 	ldrbmi	r0, [ip], #-1
     ef8:	58000001 	stmdapl	r0, {r0}
     efc:	01000001 	tsteq	r0, r1
     f00:	01585000 	cmpeq	r8, r0
     f04:	01600000 	cmneq	r0, r0
     f08:	00010000 	andeq	r0, r1, r0
     f0c:	0001605c 	andeq	r6, r1, ip, asr r0
     f10:	00016800 	andeq	r6, r1, r0, lsl #16
     f14:	53000100 	movwpl	r0, #256	; 0x100
     f18:	00000168 	andeq	r0, r0, r8, ror #2
     f1c:	00000178 	andeq	r0, r0, r8, ror r1
     f20:	785c0001 	ldmdavc	ip, {r0}^
     f24:	80000001 	andhi	r0, r0, r1
     f28:	05000001 	streq	r0, [r0, #-1]
     f2c:	34007c00 	strcc	r7, [r0], #-3072	; 0xc00
     f30:	01809f25 	orreq	r9, r0, r5, lsr #30
     f34:	01880000 	orreq	r0, r8, r0
     f38:	00010000 	andeq	r0, r1, r0
     f3c:	0001885c 	andeq	r8, r1, ip, asr r8
     f40:	00019000 	andeq	r9, r1, r0
     f44:	53000100 	movwpl	r0, #256	; 0x100
     f48:	00000190 	muleq	r0, r0, r1
     f4c:	00000194 	muleq	r0, r4, r1
     f50:	945c0001 	ldrbls	r0, [ip], #-1
     f54:	9c000001 	stcls	0, cr0, [r0], {1}
     f58:	01000001 	tsteq	r0, r1
     f5c:	019c5300 	orrseq	r5, ip, r0, lsl #6
     f60:	01ac0000 			; <UNDEFINED> instruction: 0x01ac0000
     f64:	00010000 	andeq	r0, r1, r0
     f68:	0001ac5c 	andeq	sl, r1, ip, asr ip
     f6c:	0001b400 	andeq	fp, r1, r0, lsl #8
     f70:	7c000500 	cfstr32vc	mvfx0, [r0], {-0}
     f74:	9f253100 	svcls	0x00253100
     f78:	000001b4 			; <UNDEFINED> instruction: 0x000001b4
     f7c:	000001bc 			; <UNDEFINED> instruction: 0x000001bc
     f80:	bc5c0001 	mrrclt	0, 0, r0, ip, cr1
     f84:	bf000001 	svclt	0x00000001
     f88:	01000001 	tsteq	r0, r1
     f8c:	01bf5300 			; <UNDEFINED> instruction: 0x01bf5300
     f90:	01d80000 	bicseq	r0, r8, r0
     f94:	00040000 	andeq	r0, r4, r0
     f98:	9f5301f3 	svcls	0x005301f3
     f9c:	000001d8 	ldrdeq	r0, [r0], -r8
     fa0:	000001e3 	andeq	r0, r0, r3, ror #3
     fa4:	005c0001 	subseq	r0, ip, r1
     fa8:	00000000 	andeq	r0, r0, r0
     fac:	ec000000 	stc	0, cr0, [r0], {-0}
     fb0:	fc000000 	stc2	0, cr0, [r0], {-0}
     fb4:	02000000 	andeq	r0, r0, #0
     fb8:	fc9f3000 	ldc2	0, cr3, [pc], {0}
     fbc:	04000000 	streq	r0, [r0], #-0
     fc0:	02000001 	andeq	r0, r0, #1
     fc4:	049f3100 	ldreq	r3, [pc], #256	; fcc <_start-0x7034>
     fc8:	08000001 	stmdaeq	r0, {r0}
     fcc:	02000001 	andeq	r0, r0, #1
     fd0:	009f3000 	addseq	r3, pc, r0
     fd4:	00000000 	andeq	r0, r0, r0
     fd8:	1c000000 	stcne	0, cr0, [r0], {-0}
     fdc:	2b000002 	blcs	fec <_start-0x7014>
     fe0:	01000002 	tsteq	r0, r2
     fe4:	022b5000 	eoreq	r5, fp, #0
     fe8:	02440000 	subeq	r0, r4, #0
     fec:	00040000 	andeq	r0, r4, r0
     ff0:	9f5001f3 	svcls	0x005001f3
     ff4:	00000244 	andeq	r0, r0, r4, asr #4
     ff8:	00000270 	andeq	r0, r0, r0, ror r2
     ffc:	00500001 	subseq	r0, r0, r1
    1000:	00000000 	andeq	r0, r0, r0
    1004:	1c000000 	stcne	0, cr0, [r0], {-0}
    1008:	2b000002 	blcs	1018 <_start-0x6fe8>
    100c:	01000002 	tsteq	r0, r2
    1010:	022b5100 	eoreq	r5, fp, #0, 2
    1014:	02440000 	subeq	r0, r4, #0
    1018:	00040000 	andeq	r0, r4, r0
    101c:	9f5101f3 	svcls	0x005101f3
    1020:	00000244 	andeq	r0, r0, r4, asr #4
    1024:	00000270 	andeq	r0, r0, r0, ror r2
    1028:	00510001 	subseq	r0, r1, r1
    102c:	00000000 	andeq	r0, r0, r0
    1030:	70000000 	andvc	r0, r0, r0
    1034:	9c000002 	stcls	0, cr0, [r0], {2}
    1038:	01000002 	tsteq	r0, r2
    103c:	029c5000 	addseq	r5, ip, #0
    1040:	04e40000 	strbteq	r0, [r4], #0
    1044:	00010000 	andeq	r0, r1, r0
    1048:	0004e45a 	andeq	lr, r4, sl, asr r4
    104c:	0004f800 	andeq	pc, r4, r0, lsl #16
    1050:	f3000400 	vshl.u8	d0, d0, d0
    1054:	009f5001 	addseq	r5, pc, r1
    1058:	00000000 	andeq	r0, r0, r0
    105c:	70000000 	andvc	r0, r0, r0
    1060:	84000002 	strhi	r0, [r0], #-2
    1064:	01000002 	tsteq	r0, r2
    1068:	02845100 	addeq	r5, r4, #0, 2
    106c:	029c0000 	addseq	r0, ip, #0
    1070:	00030000 	andeq	r0, r3, r0
    1074:	9c9f0171 	ldflss	f0, [pc], {113}	; 0x71
    1078:	f8000002 			; <UNDEFINED> instruction: 0xf8000002
    107c:	04000004 	streq	r0, [r0], #-4
    1080:	5101f300 	mrspl	pc, SP_irq	; <UNPREDICTABLE>
    1084:	0000009f 	muleq	r0, pc, r0	; <UNPREDICTABLE>
    1088:	00000000 	andeq	r0, r0, r0
    108c:	00027000 	andeq	r7, r2, r0
    1090:	0002a400 	andeq	sl, r2, r0, lsl #8
    1094:	52000100 	andpl	r0, r0, #0, 2
    1098:	000002a4 	andeq	r0, r0, r4, lsr #5
    109c:	000002cc 	andeq	r0, r0, ip, asr #5
    10a0:	cc520001 	mrrcgt	0, 0, r0, r2, cr1
    10a4:	94000002 	strls	r0, [r0], #-2
    10a8:	01000004 	tsteq	r0, r4
    10ac:	04945600 	ldreq	r5, [r4], #1536	; 0x600
    10b0:	04f80000 	ldrbteq	r0, [r8], #0
    10b4:	00010000 	andeq	r0, r1, r0
    10b8:	00000052 	andeq	r0, r0, r2, asr r0
    10bc:	00000000 	andeq	r0, r0, r0
    10c0:	00027000 	andeq	r7, r2, r0
    10c4:	00028c00 	andeq	r8, r2, r0, lsl #24
    10c8:	53000100 	movwpl	r0, #256	; 0x100
	...
    10d4:	00000280 	andeq	r0, r0, r0, lsl #5
    10d8:	0000029c 	muleq	r0, ip, r2
    10dc:	9c500001 	mrrcls	0, 0, r0, r0, cr1	; <UNPREDICTABLE>
    10e0:	a0000002 	andge	r0, r0, r2
    10e4:	01000002 	tsteq	r0, r2
    10e8:	02a05400 	adceq	r5, r0, #0, 8
    10ec:	02ac0000 	adceq	r0, ip, #0
    10f0:	00030000 	andeq	r0, r3, r0
    10f4:	ac9f0174 	ldfges	f0, [pc], {116}	; 0x74
    10f8:	b8000002 	stmdalt	r0, {r1}
    10fc:	01000002 	tsteq	r0, r2
    1100:	02b85400 	adcseq	r5, r8, #0, 8
    1104:	02c40000 	sbceq	r0, r4, #0
    1108:	00030000 	andeq	r0, r3, r0
    110c:	c49f0174 	ldrgt	r0, [pc], #372	; 1114 <_start-0x6eec>
    1110:	98000002 	stmdals	r0, {r1}
    1114:	01000004 	tsteq	r0, r4
    1118:	04985400 	ldreq	r5, [r8], #1024	; 0x400
    111c:	04a40000 	strteq	r0, [r4], #0
    1120:	00030000 	andeq	r0, r3, r0
    1124:	a49f0174 	ldrge	r0, [pc], #372	; 112c <_start-0x6ed4>
    1128:	d0000004 	andle	r0, r0, r4
    112c:	01000004 	tsteq	r0, r4
    1130:	04d05400 	ldrbeq	r5, [r0], #1024	; 0x400
    1134:	04dc0000 	ldrbeq	r0, [ip], #0
    1138:	00010000 	andeq	r0, r1, r0
    113c:	0004dc50 	andeq	sp, r4, r0, asr ip
    1140:	0004e400 	andeq	lr, r4, r0, lsl #8
    1144:	74000300 	strvc	r0, [r0], #-768	; 0x300
    1148:	00009f01 	andeq	r9, r0, r1, lsl #30
    114c:	00000000 	andeq	r0, r0, r0
    1150:	02880000 	addeq	r0, r8, #0
    1154:	04e40000 	strbteq	r0, [r4], #0
    1158:	00010000 	andeq	r0, r1, r0
    115c:	0004e458 	andeq	lr, r4, r8, asr r4
    1160:	0004f800 	andeq	pc, r4, r0, lsl #16
    1164:	f3000a00 	vpmax.u8	d0, d0, d0
    1168:	01f35101 	mvnseq	r5, r1, lsl #2
    116c:	1c312250 	lfmne	f2, 4, [r1], #-320	; 0xfffffec0
    1170:	0000009f 	muleq	r0, pc, r0	; <UNPREDICTABLE>
    1174:	00000000 	andeq	r0, r0, r0
    1178:	0003cc00 	andeq	ip, r3, r0, lsl #24
    117c:	0003d000 	andeq	sp, r3, r0
    1180:	50000100 	andpl	r0, r0, r0, lsl #2
    1184:	000003f0 	strdeq	r0, [r0], -r0	; <UNPREDICTABLE>
    1188:	000003f4 	strdeq	r0, [r0], -r4
    118c:	14500001 	ldrbne	r0, [r0], #-1
    1190:	18000004 	stmdane	r0, {r2}
    1194:	01000004 	tsteq	r0, r4
    1198:	04385000 	ldrteq	r5, [r8], #-0
    119c:	043c0000 	ldrteq	r0, [ip], #-0
    11a0:	00010000 	andeq	r0, r1, r0
    11a4:	00044450 	andeq	r4, r4, r0, asr r4
    11a8:	00044800 	andeq	r4, r4, r0, lsl #16
    11ac:	50000100 	andpl	r0, r0, r0, lsl #2
    11b0:	00000468 	andeq	r0, r0, r8, ror #8
    11b4:	0000046c 	andeq	r0, r0, ip, ror #8
    11b8:	90500001 	subsls	r0, r0, r1
    11bc:	b8000004 	stmdalt	r0, {r2}
    11c0:	01000004 	tsteq	r0, r4
    11c4:	00005000 	andeq	r5, r0, r0
    11c8:	00000000 	andeq	r0, r0, r0
    11cc:	02cc0000 	sbceq	r0, ip, #0
    11d0:	02d40000 	sbcseq	r0, r4, #0
    11d4:	00020000 	andeq	r0, r2, r0
    11d8:	02d49f30 	sbcseq	r9, r4, #48, 30	; 0xc0
    11dc:	02d80000 	sbcseq	r0, r8, #0
    11e0:	00010000 	andeq	r0, r1, r0
    11e4:	0002e457 	andeq	lr, r2, r7, asr r4
    11e8:	0004b800 	andeq	fp, r4, r0, lsl #16
    11ec:	57000100 	strpl	r0, [r0, -r0, lsl #2]
	...
    11f8:	00000004 	andeq	r0, r0, r4
    11fc:	00000008 	andeq	r0, r0, r8
    1200:	00730007 	rsbseq	r0, r3, r7
    1204:	2110000a 	tstcs	r0, sl
    1208:	0000089f 	muleq	r0, pc, r8	; <UNPREDICTABLE>
    120c:	00001000 	andeq	r1, r0, r0
    1210:	53000100 	movwpl	r0, #256	; 0x100
	...
    121c:	00000014 	andeq	r0, r0, r4, lsl r0
    1220:	00000018 	andeq	r0, r0, r8, lsl r0
    1224:	00730007 	rsbseq	r0, r3, r7
    1228:	1aefff0b 	bne	ffc00e5c <__bss_end__+0xffbf4b44>
    122c:	0000189f 	muleq	r0, pc, r8	; <UNPREDICTABLE>
    1230:	00002000 	andeq	r2, r0, r0
    1234:	53000100 	movwpl	r0, #256	; 0x100
	...
    1240:	00000014 	andeq	r0, r0, r4, lsl r0
    1244:	0000001c 	andeq	r0, r0, ip, lsl r0
    1248:	04730003 	ldrbteq	r0, [r3], #-3
    124c:	00001c9f 	muleq	r0, pc, ip	; <UNPREDICTABLE>
    1250:	00002700 	andeq	r2, r0, r0, lsl #14
    1254:	53000100 	movwpl	r0, #256	; 0x100
	...
    1260:	00008ecc 	andeq	r8, r0, ip, asr #29
    1264:	00008ed0 	ldrdeq	r8, [r0], -r0
    1268:	9f300002 	svcls	0x00300002
    126c:	00008ed0 	ldrdeq	r8, [r0], -r0
    1270:	00008ed4 	ldrdeq	r8, [r0], -r4
    1274:	00500001 	subseq	r0, r0, r1
    1278:	00000000 	andeq	r0, r0, r0
    127c:	e4000000 	str	r0, [r0], #-0
    1280:	e800008e 	stmda	r0, {r1, r2, r3, r7}
    1284:	0200008e 	andeq	r0, r0, #142	; 0x8e
    1288:	e89f3000 	ldm	pc, {ip, sp}	; <UNPREDICTABLE>
    128c:	ec00008e 	stc	0, cr0, [r0], {142}	; 0x8e
    1290:	0100008e 	smlabbeq	r0, lr, r0, r0
    1294:	8ef05300 	cdphi	3, 15, cr5, cr0, cr0, {0}
    1298:	8ef80000 	cdphi	0, 15, cr0, cr8, cr0, {0}
    129c:	00010000 	andeq	r0, r1, r0
    12a0:	00000053 	andeq	r0, r0, r3, asr r0
	...
    12ac:	00000400 	andeq	r0, r0, r0, lsl #8
    12b0:	50000100 	andpl	r0, r0, r0, lsl #2
    12b4:	00000004 	andeq	r0, r0, r4
    12b8:	0000000c 	andeq	r0, r0, ip
    12bc:	0c530001 	mrrceq	0, 0, r0, r3, cr1
    12c0:	10000000 	andne	r0, r0, r0
    12c4:	01000000 	mrseq	r0, (UNDEF: 0)
    12c8:	00105000 	andseq	r5, r0, r0
    12cc:	001c0000 	andseq	r0, ip, r0
    12d0:	00010000 	andeq	r0, r1, r0
    12d4:	00000053 	andeq	r0, r0, r3, asr r0
    12d8:	00000000 	andeq	r0, r0, r0
    12dc:	00003c00 	andeq	r3, r0, r0, lsl #24
    12e0:	00004700 	andeq	r4, r0, r0, lsl #14
    12e4:	50000100 	andpl	r0, r0, r0, lsl #2
    12e8:	00000047 	andeq	r0, r0, r7, asr #32
    12ec:	00000060 	andeq	r0, r0, r0, rrx
    12f0:	00550001 	subseq	r0, r5, r1
    12f4:	00000000 	andeq	r0, r0, r0
    12f8:	50000000 	andpl	r0, r0, r0
    12fc:	54000000 	strpl	r0, [r0], #-0
    1300:	01000000 	mrseq	r0, (UNDEF: 0)
    1304:	00005000 	andeq	r5, r0, r0
    1308:	00000000 	andeq	r0, r0, r0
    130c:	00600000 	rsbeq	r0, r0, r0
    1310:	006c0000 	rsbeq	r0, ip, r0
    1314:	00010000 	andeq	r0, r1, r0
    1318:	00006c50 	andeq	r6, r0, r0, asr ip
    131c:	00007400 	andeq	r7, r0, r0, lsl #8
    1320:	f3000400 	vshl.u8	d0, d0, d0
    1324:	009f5001 	addseq	r5, pc, r1
    1328:	00000000 	andeq	r0, r0, r0
    132c:	74000000 	strvc	r0, [r0], #-0
    1330:	80000000 	andhi	r0, r0, r0
    1334:	01000000 	mrseq	r0, (UNDEF: 0)
    1338:	00805000 	addeq	r5, r0, r0
    133c:	00880000 	addeq	r0, r8, r0
    1340:	00040000 	andeq	r0, r4, r0
    1344:	9f5001f3 	svcls	0x005001f3
	...
    1354:	00000090 	muleq	r0, r0, r0
    1358:	90500001 	subsls	r0, r0, r1
    135c:	d4000000 	strle	r0, [r0], #-0
    1360:	01000000 	mrseq	r0, (UNDEF: 0)
    1364:	00005400 	andeq	r5, r0, r0, lsl #8
    1368:	00000000 	andeq	r0, r0, r0
    136c:	00480000 	subeq	r0, r8, r0
    1370:	004c0000 	subeq	r0, ip, r0
    1374:	00010000 	andeq	r0, r1, r0
    1378:	00005455 	andeq	r5, r0, r5, asr r4
    137c:	00005800 	andeq	r5, r0, r0, lsl #16
    1380:	55000100 	strpl	r0, [r0, #-256]	; 0x100
    1384:	00000060 	andeq	r0, r0, r0, rrx
    1388:	00000064 	andeq	r0, r0, r4, rrx
    138c:	6c550001 	mrrcvs	0, 0, r0, r5, cr1
    1390:	70000000 	andvc	r0, r0, r0
    1394:	01000000 	mrseq	r0, (UNDEF: 0)
    1398:	00785500 	rsbseq	r5, r8, r0, lsl #10
    139c:	007c0000 	rsbseq	r0, ip, r0
    13a0:	00010000 	andeq	r0, r1, r0
    13a4:	00008455 	andeq	r8, r0, r5, asr r4
    13a8:	00008800 	andeq	r8, r0, r0, lsl #16
    13ac:	55000100 	strpl	r0, [r0, #-256]	; 0x100
    13b0:	0000008c 	andeq	r0, r0, ip, lsl #1
    13b4:	000000d4 	ldrdeq	r0, [r0], -r4
    13b8:	00550001 	subseq	r0, r5, r1
    13bc:	00000000 	andeq	r0, r0, r0
    13c0:	1c000000 	stcne	0, cr0, [r0], {-0}
    13c4:	44000000 	strmi	r0, [r0], #-0
    13c8:	01000000 	mrseq	r0, (UNDEF: 0)
    13cc:	00445300 	subeq	r5, r4, r0, lsl #6
    13d0:	004c0000 	subeq	r0, ip, r0
    13d4:	001c0000 	andseq	r0, ip, r0
    13d8:	2cf70070 	ldclcs	0, cr0, [r7], #448	; 0x1c0
    13dc:	25f425f7 	ldrbcs	r2, [r4, #1527]!	; 0x5f7
    13e0:	cccccd08 	stclgt	13, cr12, [ip], {8}
    13e4:	000000cc 	andeq	r0, r0, ip, asr #1
    13e8:	20081e00 	andcs	r1, r8, r0, lsl #28
    13ec:	f72525f7 			; <UNDEFINED> instruction: 0xf72525f7
    13f0:	9f25332c 	svcls	0x0025332c
    13f4:	0000004c 	andeq	r0, r0, ip, asr #32
    13f8:	00000050 	andeq	r0, r0, r0, asr r0
    13fc:	50530001 	subspl	r0, r3, r1
    1400:	58000000 	stmdapl	r0, {}	; <UNPREDICTABLE>
    1404:	1c000000 	stcne	0, cr0, [r0], {-0}
    1408:	f7007000 			; <UNDEFINED> instruction: 0xf7007000
    140c:	f425f72c 	vld1.8	{d15}, [r5 :128], ip
    1410:	cccd0825 	stclgt	8, cr0, [sp], {37}	; 0x25
    1414:	0000cccc 	andeq	ip, r0, ip, asr #25
    1418:	081e0000 	ldmdaeq	lr, {}	; <UNPREDICTABLE>
    141c:	2525f720 	strcs	pc, [r5, #-1824]!	; 0x720
    1420:	25332cf7 	ldrcs	r2, [r3, #-3319]!	; 0xcf7
    1424:	0000589f 	muleq	r0, pc, r8	; <UNPREDICTABLE>
    1428:	00005c00 	andeq	r5, r0, r0, lsl #24
    142c:	53000100 	movwpl	r0, #256	; 0x100
    1430:	0000005c 	andeq	r0, r0, ip, asr r0
    1434:	00000064 	andeq	r0, r0, r4, rrx
    1438:	0070001c 	rsbseq	r0, r0, ip, lsl r0
    143c:	25f72cf7 	ldrbcs	r2, [r7, #3319]!	; 0xcf7
    1440:	cd0825f4 	cfstr32gt	mvfx2, [r8, #-976]	; 0xfffffc30
    1444:	00cccccc 	sbceq	ip, ip, ip, asr #25
    1448:	1e000000 	cdpne	0, 0, cr0, cr0, cr0, {0}
    144c:	25f72008 	ldrbcs	r2, [r7, #8]!
    1450:	332cf725 	msrcc	CPSR_fs, #9699328	; 0x940000
    1454:	00649f25 	rsbeq	r9, r4, r5, lsr #30
    1458:	00680000 	rsbeq	r0, r8, r0
    145c:	00010000 	andeq	r0, r1, r0
    1460:	00006853 	andeq	r6, r0, r3, asr r8
    1464:	00007000 	andeq	r7, r0, r0
    1468:	70001c00 	andvc	r1, r0, r0, lsl #24
    146c:	f72cf700 			; <UNDEFINED> instruction: 0xf72cf700
    1470:	0825f425 	stmdaeq	r5!, {r0, r2, r5, sl, ip, sp, lr, pc}
    1474:	cccccccd 	stclgt	12, cr12, [ip], {205}	; 0xcd
    1478:	00000000 	andeq	r0, r0, r0
    147c:	f720081e 			; <UNDEFINED> instruction: 0xf720081e
    1480:	2cf72525 	cfldr64cs	mvdx2, [r7], #148	; 0x94
    1484:	709f2533 	addsvc	r2, pc, r3, lsr r5	; <UNPREDICTABLE>
    1488:	74000000 	strvc	r0, [r0], #-0
    148c:	01000000 	mrseq	r0, (UNDEF: 0)
    1490:	00745300 	rsbseq	r5, r4, r0, lsl #6
    1494:	007c0000 	rsbseq	r0, ip, r0
    1498:	001c0000 	andseq	r0, ip, r0
    149c:	2cf70070 	ldclcs	0, cr0, [r7], #448	; 0x1c0
    14a0:	25f425f7 	ldrbcs	r2, [r4, #1527]!	; 0x5f7
    14a4:	cccccd08 	stclgt	13, cr12, [ip], {8}
    14a8:	000000cc 	andeq	r0, r0, ip, asr #1
    14ac:	20081e00 	andcs	r1, r8, r0, lsl #28
    14b0:	f72525f7 			; <UNDEFINED> instruction: 0xf72525f7
    14b4:	9f25332c 	svcls	0x0025332c
    14b8:	0000007c 	andeq	r0, r0, ip, ror r0
    14bc:	00000080 	andeq	r0, r0, r0, lsl #1
    14c0:	80530001 	subshi	r0, r3, r1
    14c4:	88000000 	stmdahi	r0, {}	; <UNPREDICTABLE>
    14c8:	1c000000 	stcne	0, cr0, [r0], {-0}
    14cc:	f7007000 			; <UNDEFINED> instruction: 0xf7007000
    14d0:	f425f72c 	vld1.8	{d15}, [r5 :128], ip
    14d4:	cccd0825 	stclgt	8, cr0, [sp], {37}	; 0x25
    14d8:	0000cccc 	andeq	ip, r0, ip, asr #25
    14dc:	081e0000 	ldmdaeq	lr, {}	; <UNPREDICTABLE>
    14e0:	2525f720 	strcs	pc, [r5, #-1824]!	; 0x720
    14e4:	25332cf7 	ldrcs	r2, [r3, #-3319]!	; 0xcf7
    14e8:	0000889f 	muleq	r0, pc, r8	; <UNPREDICTABLE>
    14ec:	00008c00 	andeq	r8, r0, r0, lsl #24
    14f0:	53000100 	movwpl	r0, #256	; 0x100
    14f4:	0000008c 	andeq	r0, r0, ip, lsl #1
    14f8:	00000090 	muleq	r0, r0, r0
    14fc:	0070001c 	rsbseq	r0, r0, ip, lsl r0
    1500:	25f72cf7 	ldrbcs	r2, [r7, #3319]!	; 0xcf7
    1504:	cd0825f4 	cfstr32gt	mvfx2, [r8, #-976]	; 0xfffffc30
    1508:	00cccccc 	sbceq	ip, ip, ip, asr #25
    150c:	1e000000 	cdpne	0, 0, cr0, cr0, cr0, {0}
    1510:	25f72008 	ldrbcs	r2, [r7, #8]!
    1514:	332cf725 	msrcc	CPSR_fs, #9699328	; 0x940000
    1518:	00909f25 	addseq	r9, r0, r5, lsr #30
    151c:	00980000 	addseq	r0, r8, r0
    1520:	001c0000 	andseq	r0, ip, r0
    1524:	2cf70074 	ldclcs	0, cr0, [r7], #464	; 0x1d0
    1528:	25f425f7 	ldrbcs	r2, [r4, #1527]!	; 0x5f7
    152c:	cccccd08 	stclgt	13, cr12, [ip], {8}
    1530:	000000cc 	andeq	r0, r0, ip, asr #1
    1534:	20081e00 	andcs	r1, r8, r0, lsl #28
    1538:	f72525f7 			; <UNDEFINED> instruction: 0xf72525f7
    153c:	9f25332c 	svcls	0x0025332c
    1540:	00000098 	muleq	r0, r8, r0
    1544:	0000009c 	muleq	r0, ip, r0
    1548:	00740017 	rsbseq	r0, r4, r7, lsl r0
    154c:	25f72cf7 	ldrbcs	r2, [r7, #3319]!	; 0xcf7
    1550:	2cf70071 	ldclcs	0, cr0, [r7], #452	; 0x1c4
    1554:	081e25f7 	ldmdaeq	lr, {r0, r1, r2, r4, r5, r6, r7, r8, sl, sp}
    1558:	2525f720 	strcs	pc, [r5, #-1824]!	; 0x720
    155c:	25332cf7 	ldrcs	r2, [r3, #-3319]!	; 0xcf7
    1560:	00009c9f 	muleq	r0, pc, ip	; <UNPREDICTABLE>
    1564:	0000d400 	andeq	sp, r0, r0, lsl #8
    1568:	74001c00 	strvc	r1, [r0], #-3072	; 0xc00
    156c:	f72cf700 			; <UNDEFINED> instruction: 0xf72cf700
    1570:	0825f425 	stmdaeq	r5!, {r0, r2, r5, sl, ip, sp, lr, pc}
    1574:	cccccccd 	stclgt	12, cr12, [ip], {205}	; 0xcd
    1578:	00000000 	andeq	r0, r0, r0
    157c:	f720081e 			; <UNDEFINED> instruction: 0xf720081e
    1580:	2cf72525 	cfldr64cs	mvdx2, [r7], #148	; 0x94
    1584:	009f2533 	addseq	r2, pc, r3, lsr r5	; <UNPREDICTABLE>
    1588:	00000000 	andeq	r0, r0, r0
    158c:	94000000 	strls	r0, [r0], #-0
    1590:	b8000000 	stmdalt	r0, {}	; <UNPREDICTABLE>
    1594:	01000000 	mrseq	r0, (UNDEF: 0)
    1598:	00b85000 	adcseq	r5, r8, r0
    159c:	00c40000 	sbceq	r0, r4, r0
    15a0:	00080000 	andeq	r0, r8, r0
    15a4:	24007131 	strcs	r7, [r0], #-305	; 0x131
    15a8:	9f210073 	svcls	0x00210073
    15ac:	000000c4 	andeq	r0, r0, r4, asr #1
    15b0:	000000c7 	andeq	r0, r0, r7, asr #1
    15b4:	00510001 	subseq	r0, r1, r1
    15b8:	00000000 	andeq	r0, r0, r0
    15bc:	d4000000 	strle	r0, [r0], #-0
    15c0:	f8000000 			; <UNDEFINED> instruction: 0xf8000000
    15c4:	01000000 	mrseq	r0, (UNDEF: 0)
    15c8:	00f85000 	rscseq	r5, r8, r0
    15cc:	010c0000 	mrseq	r0, (UNDEF: 12)
    15d0:	00040000 	andeq	r0, r4, r0
    15d4:	9f5001f3 	svcls	0x005001f3
	...
    15e0:	000000e0 	andeq	r0, r0, r0, ror #1
    15e4:	000000e8 	andeq	r0, r0, r8, ror #1
    15e8:	9f300002 	svcls	0x00300002
    15ec:	000000e8 	andeq	r0, r0, r8, ror #1
    15f0:	000000e8 	andeq	r0, r0, r8, ror #1
    15f4:	e8520001 	ldmda	r2, {r0}^
    15f8:	f0000000 			; <UNDEFINED> instruction: 0xf0000000
    15fc:	02000000 	andeq	r0, r0, #0
    1600:	f09f3000 			; <UNDEFINED> instruction: 0xf09f3000
    1604:	03000000 	movweq	r0, #0
    1608:	01000001 	tsteq	r0, r1
    160c:	00005200 	andeq	r5, r0, r0, lsl #4
    1610:	00000000 	andeq	r0, r0, r0
    1614:	00e00000 	rsceq	r0, r0, r0
    1618:	00f40000 	rscseq	r0, r4, r0
    161c:	00020000 	andeq	r0, r2, r0
    1620:	00f49f30 	rscseq	r9, r4, r0, lsr pc
    1624:	01000000 	mrseq	r0, (UNDEF: 0)
    1628:	00050000 	andeq	r0, r5, r0
    162c:	24007331 	strcs	r7, [r0], #-817	; 0x331
    1630:	0001009f 	muleq	r1, pc, r0	; <UNPREDICTABLE>
    1634:	00010300 	andeq	r0, r1, r0, lsl #6
    1638:	51000100 	mrspl	r0, (UNDEF: 16)
    163c:	00000103 	andeq	r0, r0, r3, lsl #2
    1640:	0000010c 	andeq	r0, r0, ip, lsl #2
    1644:	f3310008 	vhadd.u<illegal width 64>	d0, d1, d8
    1648:	1a4f5001 	bne	13d5654 <__bss_end__+0x13c933c>
    164c:	00009f24 	andeq	r9, r0, r4, lsr #30
    1650:	00000000 	andeq	r0, r0, r0
    1654:	010c0000 	mrseq	r0, (UNDEF: 12)
    1658:	01300000 	teqeq	r0, r0
    165c:	00010000 	andeq	r0, r1, r0
    1660:	00013050 	andeq	r3, r1, r0, asr r0
    1664:	00014400 	andeq	r4, r1, r0, lsl #8
    1668:	f3000400 	vshl.u8	d0, d0, d0
    166c:	009f5001 	addseq	r5, pc, r1
    1670:	00000000 	andeq	r0, r0, r0
    1674:	18000000 	stmdane	r0, {}	; <UNPREDICTABLE>
    1678:	20000001 	andcs	r0, r0, r1
    167c:	02000001 	andeq	r0, r0, #1
    1680:	209f3000 	addscs	r3, pc, r0
    1684:	20000001 	andcs	r0, r0, r1
    1688:	01000001 	tsteq	r0, r1
    168c:	01205200 	teqeq	r0, r0, lsl #4
    1690:	01280000 	teqeq	r8, r0
    1694:	00020000 	andeq	r0, r2, r0
    1698:	01289f30 	teqeq	r8, r0, lsr pc
    169c:	013b0000 	teqeq	fp, r0
    16a0:	00010000 	andeq	r0, r1, r0
    16a4:	00000052 	andeq	r0, r0, r2, asr r0
    16a8:	00000000 	andeq	r0, r0, r0
    16ac:	00011800 	andeq	r1, r1, r0, lsl #16
    16b0:	00012c00 	andeq	r2, r1, r0, lsl #24
    16b4:	30000200 	andcc	r0, r0, r0, lsl #4
    16b8:	00012c9f 	muleq	r1, pc, ip	; <UNPREDICTABLE>
    16bc:	00013800 	andeq	r3, r1, r0, lsl #16
    16c0:	31000500 	tstcc	r0, r0, lsl #10
    16c4:	9f240073 	svcls	0x00240073
    16c8:	00000138 	andeq	r0, r0, r8, lsr r1
    16cc:	0000013b 	andeq	r0, r0, fp, lsr r1
    16d0:	3b510001 	blcc	14416dc <__bss_end__+0x14353c4>
    16d4:	44000001 	strmi	r0, [r0], #-1
    16d8:	08000001 	stmdaeq	r0, {r0}
    16dc:	01f33100 	mvnseq	r3, r0, lsl #2
    16e0:	241a4f50 	ldrcs	r4, [sl], #-3920	; 0xf50
    16e4:	0000009f 	muleq	r0, pc, r0	; <UNPREDICTABLE>
    16e8:	00000000 	andeq	r0, r0, r0
    16ec:	00014400 	andeq	r4, r1, r0, lsl #8
    16f0:	0001d400 	andeq	sp, r1, r0, lsl #8
    16f4:	50000100 	andpl	r0, r0, r0, lsl #2
    16f8:	000001d4 	ldrdeq	r0, [r0], -r4
    16fc:	00000210 	andeq	r0, r0, r0, lsl r2
    1700:	00540001 	subseq	r0, r4, r1
    1704:	00000000 	andeq	r0, r0, r0
    1708:	8c000000 	stchi	0, cr0, [r0], {-0}
    170c:	90000001 	andls	r0, r0, r1
    1710:	01000001 	tsteq	r0, r1
    1714:	01985500 	orrseq	r5, r8, r0, lsl #10
    1718:	019c0000 	orrseq	r0, ip, r0
    171c:	00010000 	andeq	r0, r1, r0
    1720:	0001a455 	andeq	sl, r1, r5, asr r4
    1724:	0001a800 	andeq	sl, r1, r0, lsl #16
    1728:	55000100 	strpl	r0, [r0, #-256]	; 0x100
    172c:	000001b0 			; <UNDEFINED> instruction: 0x000001b0
    1730:	000001b4 			; <UNDEFINED> instruction: 0x000001b4
    1734:	bc550001 	mrrclt	0, 0, r0, r5, cr1
    1738:	c0000001 	andgt	r0, r0, r1
    173c:	01000001 	tsteq	r0, r1
    1740:	01c85500 	biceq	r5, r8, r0, lsl #10
    1744:	01cc0000 	biceq	r0, ip, r0
    1748:	00010000 	andeq	r0, r1, r0
    174c:	0001d055 	andeq	sp, r1, r5, asr r0
    1750:	00021000 	andeq	r1, r2, r0
    1754:	55000100 	strpl	r0, [r0, #-256]	; 0x100
	...
    1760:	00000160 	andeq	r0, r0, r0, ror #2
    1764:	00000188 	andeq	r0, r0, r8, lsl #3
    1768:	88530001 	ldmdahi	r3, {r0}^
    176c:	90000001 	andls	r0, r0, r1
    1770:	1c000001 	stcne	0, cr0, [r0], {1}
    1774:	f7007000 			; <UNDEFINED> instruction: 0xf7007000
    1778:	f425f72c 	vld1.8	{d15}, [r5 :128], ip
    177c:	cccd0825 	stclgt	8, cr0, [sp], {37}	; 0x25
    1780:	0000cccc 	andeq	ip, r0, ip, asr #25
    1784:	081e0000 	ldmdaeq	lr, {}	; <UNPREDICTABLE>
    1788:	2525f720 	strcs	pc, [r5, #-1824]!	; 0x720
    178c:	25332cf7 	ldrcs	r2, [r3, #-3319]!	; 0xcf7
    1790:	0001909f 	muleq	r1, pc, r0	; <UNPREDICTABLE>
    1794:	00019400 	andeq	r9, r1, r0, lsl #8
    1798:	53000100 	movwpl	r0, #256	; 0x100
    179c:	00000194 	muleq	r0, r4, r1
    17a0:	0000019c 	muleq	r0, ip, r1
    17a4:	0070001c 	rsbseq	r0, r0, ip, lsl r0
    17a8:	25f72cf7 	ldrbcs	r2, [r7, #3319]!	; 0xcf7
    17ac:	cd0825f4 	cfstr32gt	mvfx2, [r8, #-976]	; 0xfffffc30
    17b0:	00cccccc 	sbceq	ip, ip, ip, asr #25
    17b4:	1e000000 	cdpne	0, 0, cr0, cr0, cr0, {0}
    17b8:	25f72008 	ldrbcs	r2, [r7, #8]!
    17bc:	332cf725 	msrcc	CPSR_fs, #9699328	; 0x940000
    17c0:	019c9f25 	orrseq	r9, ip, r5, lsr #30
    17c4:	01a00000 	moveq	r0, r0
    17c8:	00010000 	andeq	r0, r1, r0
    17cc:	0001a053 	andeq	sl, r1, r3, asr r0
    17d0:	0001a800 	andeq	sl, r1, r0, lsl #16
    17d4:	70001c00 	andvc	r1, r0, r0, lsl #24
    17d8:	f72cf700 			; <UNDEFINED> instruction: 0xf72cf700
    17dc:	0825f425 	stmdaeq	r5!, {r0, r2, r5, sl, ip, sp, lr, pc}
    17e0:	cccccccd 	stclgt	12, cr12, [ip], {205}	; 0xcd
    17e4:	00000000 	andeq	r0, r0, r0
    17e8:	f720081e 			; <UNDEFINED> instruction: 0xf720081e
    17ec:	2cf72525 	cfldr64cs	mvdx2, [r7], #148	; 0x94
    17f0:	a89f2533 	ldmge	pc, {r0, r1, r4, r5, r8, sl, sp}	; <UNPREDICTABLE>
    17f4:	ac000001 	stcge	0, cr0, [r0], {1}
    17f8:	01000001 	tsteq	r0, r1
    17fc:	01ac5300 			; <UNDEFINED> instruction: 0x01ac5300
    1800:	01b40000 			; <UNDEFINED> instruction: 0x01b40000
    1804:	001c0000 	andseq	r0, ip, r0
    1808:	2cf70070 	ldclcs	0, cr0, [r7], #448	; 0x1c0
    180c:	25f425f7 	ldrbcs	r2, [r4, #1527]!	; 0x5f7
    1810:	cccccd08 	stclgt	13, cr12, [ip], {8}
    1814:	000000cc 	andeq	r0, r0, ip, asr #1
    1818:	20081e00 	andcs	r1, r8, r0, lsl #28
    181c:	f72525f7 			; <UNDEFINED> instruction: 0xf72525f7
    1820:	9f25332c 	svcls	0x0025332c
    1824:	000001b4 			; <UNDEFINED> instruction: 0x000001b4
    1828:	000001b8 			; <UNDEFINED> instruction: 0x000001b8
    182c:	b8530001 	ldmdalt	r3, {r0}^
    1830:	c0000001 	andgt	r0, r0, r1
    1834:	1c000001 	stcne	0, cr0, [r0], {1}
    1838:	f7007000 			; <UNDEFINED> instruction: 0xf7007000
    183c:	f425f72c 	vld1.8	{d15}, [r5 :128], ip
    1840:	cccd0825 	stclgt	8, cr0, [sp], {37}	; 0x25
    1844:	0000cccc 	andeq	ip, r0, ip, asr #25
    1848:	081e0000 	ldmdaeq	lr, {}	; <UNPREDICTABLE>
    184c:	2525f720 	strcs	pc, [r5, #-1824]!	; 0x720
    1850:	25332cf7 	ldrcs	r2, [r3, #-3319]!	; 0xcf7
    1854:	0001c09f 	muleq	r1, pc, r0	; <UNPREDICTABLE>
    1858:	0001c400 	andeq	ip, r1, r0, lsl #8
    185c:	53000100 	movwpl	r0, #256	; 0x100
    1860:	000001c4 	andeq	r0, r0, r4, asr #3
    1864:	000001cc 	andeq	r0, r0, ip, asr #3
    1868:	0070001c 	rsbseq	r0, r0, ip, lsl r0
    186c:	25f72cf7 	ldrbcs	r2, [r7, #3319]!	; 0xcf7
    1870:	cd0825f4 	cfstr32gt	mvfx2, [r8, #-976]	; 0xfffffc30
    1874:	00cccccc 	sbceq	ip, ip, ip, asr #25
    1878:	1e000000 	cdpne	0, 0, cr0, cr0, cr0, {0}
    187c:	25f72008 	ldrbcs	r2, [r7, #8]!
    1880:	332cf725 	msrcc	CPSR_fs, #9699328	; 0x940000
    1884:	01cc9f25 	biceq	r9, ip, r5, lsr #30
    1888:	01d00000 	bicseq	r0, r0, r0
    188c:	00010000 	andeq	r0, r1, r0
    1890:	0001d053 	andeq	sp, r1, r3, asr r0
    1894:	0001d400 	andeq	sp, r1, r0, lsl #8
    1898:	70001c00 	andvc	r1, r0, r0, lsl #24
    189c:	f72cf700 			; <UNDEFINED> instruction: 0xf72cf700
    18a0:	0825f425 	stmdaeq	r5!, {r0, r2, r5, sl, ip, sp, lr, pc}
    18a4:	cccccccd 	stclgt	12, cr12, [ip], {205}	; 0xcd
    18a8:	00000000 	andeq	r0, r0, r0
    18ac:	f720081e 			; <UNDEFINED> instruction: 0xf720081e
    18b0:	2cf72525 	cfldr64cs	mvdx2, [r7], #148	; 0x94
    18b4:	d49f2533 	ldrle	r2, [pc], #1331	; 18bc <_start-0x6744>
    18b8:	dc000001 	stcle	0, cr0, [r0], {1}
    18bc:	1c000001 	stcne	0, cr0, [r0], {1}
    18c0:	f7007400 			; <UNDEFINED> instruction: 0xf7007400
    18c4:	f425f72c 	vld1.8	{d15}, [r5 :128], ip
    18c8:	cccd0825 	stclgt	8, cr0, [sp], {37}	; 0x25
    18cc:	0000cccc 	andeq	ip, r0, ip, asr #25
    18d0:	081e0000 	ldmdaeq	lr, {}	; <UNPREDICTABLE>
    18d4:	2525f720 	strcs	pc, [r5, #-1824]!	; 0x720
    18d8:	25332cf7 	ldrcs	r2, [r3, #-3319]!	; 0xcf7
    18dc:	0001dc9f 	muleq	r1, pc, ip	; <UNPREDICTABLE>
    18e0:	0001e000 	andeq	lr, r1, r0
    18e4:	74001700 	strvc	r1, [r0], #-1792	; 0x700
    18e8:	f72cf700 			; <UNDEFINED> instruction: 0xf72cf700
    18ec:	f7007125 			; <UNDEFINED> instruction: 0xf7007125
    18f0:	1e25f72c 	cdpne	7, 2, cr15, cr5, cr12, {1}
    18f4:	25f72008 	ldrbcs	r2, [r7, #8]!
    18f8:	332cf725 	msrcc	CPSR_fs, #9699328	; 0x940000
    18fc:	01e09f25 	mvneq	r9, r5, lsr #30
    1900:	02100000 	andseq	r0, r0, #0
    1904:	001c0000 	andseq	r0, ip, r0
    1908:	2cf70074 	ldclcs	0, cr0, [r7], #464	; 0x1d0
    190c:	25f425f7 	ldrbcs	r2, [r4, #1527]!	; 0x5f7
    1910:	cccccd08 	stclgt	13, cr12, [ip], {8}
    1914:	000000cc 	andeq	r0, r0, ip, asr #1
    1918:	20081e00 	andcs	r1, r8, r0, lsl #28
    191c:	f72525f7 			; <UNDEFINED> instruction: 0xf72525f7
    1920:	9f25332c 	svcls	0x0025332c
	...
    192c:	000001d8 	ldrdeq	r0, [r0], -r8
    1930:	000001fc 	strdeq	r0, [r0], -ip
    1934:	fc500001 	mrrc2	0, 0, r0, r0, cr1	; <UNPREDICTABLE>
    1938:	03000001 	movweq	r0, #1
    193c:	01000002 	tsteq	r0, r2
    1940:	00005100 	andeq	r5, r0, r0, lsl #2
    1944:	00000000 	andeq	r0, r0, r0
    1948:	02100000 	andseq	r0, r0, #0
    194c:	022c0000 	eoreq	r0, ip, #0
    1950:	00010000 	andeq	r0, r1, r0
    1954:	00022c50 	andeq	r2, r2, r0, asr ip
    1958:	00023400 	andeq	r3, r2, r0, lsl #8
    195c:	54000100 	strpl	r0, [r0], #-256	; 0x100
    1960:	00000234 	andeq	r0, r0, r4, lsr r2
    1964:	0000023c 	andeq	r0, r0, ip, lsr r2
    1968:	3c500001 	mrrccc	0, 0, r0, r0, cr1	; <UNPREDICTABLE>
    196c:	44000002 	strmi	r0, [r0], #-2
    1970:	01000002 	tsteq	r0, r2
    1974:	02445400 	subeq	r5, r4, #0, 8
    1978:	02500000 	subseq	r0, r0, #0
    197c:	00040000 	andeq	r0, r4, r0
    1980:	9f5001f3 	svcls	0x005001f3
    1984:	00000250 	andeq	r0, r0, r0, asr r2
    1988:	00000254 	andeq	r0, r0, r4, asr r2
    198c:	54500001 	ldrbpl	r0, [r0], #-1
    1990:	5c000002 	stcpl	0, cr0, [r0], {2}
    1994:	01000002 	tsteq	r0, r2
    1998:	00005400 	andeq	r5, r0, r0, lsl #8
    199c:	00000000 	andeq	r0, r0, r0
    19a0:	02200000 	eoreq	r0, r0, #0
    19a4:	02300000 	eorseq	r0, r0, #0
    19a8:	00020000 	andeq	r0, r2, r0
    19ac:	02309f30 	eorseq	r9, r0, #48, 30	; 0xc0
    19b0:	02340000 	eorseq	r0, r4, #0
    19b4:	00010000 	andeq	r0, r1, r0
    19b8:	00023450 	andeq	r3, r2, r0, asr r4
    19bc:	00024000 	andeq	r4, r2, r0
    19c0:	30000200 	andcc	r0, r0, r0, lsl #4
    19c4:	0002409f 	muleq	r2, pc, r0	; <UNPREDICTABLE>
    19c8:	00024c00 	andeq	r4, r2, r0, lsl #24
    19cc:	50000100 	andpl	r0, r0, r0, lsl #2
	...
    19d8:	0000025c 	andeq	r0, r0, ip, asr r2
    19dc:	00000273 	andeq	r0, r0, r3, ror r2
    19e0:	73500001 	cmpvc	r0, #1
    19e4:	78000002 	stmdavc	r0, {r1}
    19e8:	04000002 	streq	r0, [r0], #-2
    19ec:	5001f300 	andpl	pc, r1, r0, lsl #6
    19f0:	0002789f 	muleq	r2, pc, r8	; <UNPREDICTABLE>
    19f4:	00027b00 	andeq	r7, r2, r0, lsl #22
    19f8:	50000100 	andpl	r0, r0, r0, lsl #2
    19fc:	0000027b 	andeq	r0, r0, fp, ror r2
    1a00:	00000280 	andeq	r0, r0, r0, lsl #5
    1a04:	01f30004 	mvnseq	r0, r4
    1a08:	00009f50 	andeq	r9, r0, r0, asr pc
    1a0c:	00000000 	andeq	r0, r0, r0
    1a10:	025c0000 	subseq	r0, ip, #0
    1a14:	02730000 	rsbseq	r0, r3, #0
    1a18:	00010000 	andeq	r0, r1, r0
    1a1c:	00027351 	andeq	r7, r2, r1, asr r3
    1a20:	00027800 	andeq	r7, r2, r0, lsl #16
    1a24:	f3000400 	vshl.u8	d0, d0, d0
    1a28:	789f5101 	ldmvc	pc, {r0, r8, ip, lr}	; <UNPREDICTABLE>
    1a2c:	7b000002 	blvc	1a3c <_start-0x65c4>
    1a30:	01000002 	tsteq	r0, r2
    1a34:	027b5100 	rsbseq	r5, fp, #0, 2
    1a38:	02800000 	addeq	r0, r0, #0
    1a3c:	00040000 	andeq	r0, r4, r0
    1a40:	9f5101f3 	svcls	0x005101f3
	...
    1a4c:	00000280 	andeq	r0, r0, r0, lsl #5
    1a50:	00000318 	andeq	r0, r0, r8, lsl r3
    1a54:	18500001 	ldmdane	r0, {r0}^
    1a58:	58000003 	stmdapl	r0, {r0, r1}
    1a5c:	01000003 	tsteq	r0, r3
    1a60:	00005400 	andeq	r5, r0, r0, lsl #8
    1a64:	00000000 	andeq	r0, r0, r0
    1a68:	02800000 	addeq	r0, r0, #0
    1a6c:	031b0000 	tsteq	fp, #0
    1a70:	00010000 	andeq	r0, r1, r0
    1a74:	00031b51 	andeq	r1, r3, r1, asr fp
    1a78:	00035800 	andeq	r5, r3, r0, lsl #16
    1a7c:	f3000400 	vshl.u8	d0, d0, d0
    1a80:	009f5101 	addseq	r5, pc, r1, lsl #2
    1a84:	00000000 	andeq	r0, r0, r0
    1a88:	d0000000 	andle	r0, r0, r0
    1a8c:	d4000002 	strle	r0, [r0], #-2
    1a90:	01000002 	tsteq	r0, r2
    1a94:	02dc5600 	sbcseq	r5, ip, #0, 12
    1a98:	02e00000 	rsceq	r0, r0, #0
    1a9c:	00010000 	andeq	r0, r1, r0
    1aa0:	0002e856 	andeq	lr, r2, r6, asr r8
    1aa4:	0002ec00 	andeq	lr, r2, r0, lsl #24
    1aa8:	56000100 	strpl	r0, [r0], -r0, lsl #2
    1aac:	000002f4 	strdeq	r0, [r0], -r4
    1ab0:	000002f8 	strdeq	r0, [r0], -r8
    1ab4:	00560001 	subseq	r0, r6, r1
    1ab8:	04000003 	streq	r0, [r0], #-3
    1abc:	01000003 	tsteq	r0, r3
    1ac0:	030c5600 	movweq	r5, #50688	; 0xc600
    1ac4:	03100000 	tsteq	r0, #0
    1ac8:	00010000 	andeq	r0, r1, r0
    1acc:	00031456 	andeq	r1, r3, r6, asr r4
    1ad0:	00035800 	andeq	r5, r3, r0, lsl #16
    1ad4:	56000100 	strpl	r0, [r0], -r0, lsl #2
	...
    1ae0:	000002a4 	andeq	r0, r0, r4, lsr #5
    1ae4:	000002cc 	andeq	r0, r0, ip, asr #5
    1ae8:	cc530001 	mrrcgt	0, 0, r0, r3, cr1
    1aec:	d4000002 	strle	r0, [r0], #-2
    1af0:	1c000002 	stcne	0, cr0, [r0], {2}
    1af4:	f7007000 			; <UNDEFINED> instruction: 0xf7007000
    1af8:	f425f72c 	vld1.8	{d15}, [r5 :128], ip
    1afc:	cccd0825 	stclgt	8, cr0, [sp], {37}	; 0x25
    1b00:	0000cccc 	andeq	ip, r0, ip, asr #25
    1b04:	081e0000 	ldmdaeq	lr, {}	; <UNPREDICTABLE>
    1b08:	2525f720 	strcs	pc, [r5, #-1824]!	; 0x720
    1b0c:	25332cf7 	ldrcs	r2, [r3, #-3319]!	; 0xcf7
    1b10:	0002d49f 	muleq	r2, pc, r4	; <UNPREDICTABLE>
    1b14:	0002d800 	andeq	sp, r2, r0, lsl #16
    1b18:	53000100 	movwpl	r0, #256	; 0x100
    1b1c:	000002d8 	ldrdeq	r0, [r0], -r8
    1b20:	000002e0 	andeq	r0, r0, r0, ror #5
    1b24:	0070001c 	rsbseq	r0, r0, ip, lsl r0
    1b28:	25f72cf7 	ldrbcs	r2, [r7, #3319]!	; 0xcf7
    1b2c:	cd0825f4 	cfstr32gt	mvfx2, [r8, #-976]	; 0xfffffc30
    1b30:	00cccccc 	sbceq	ip, ip, ip, asr #25
    1b34:	1e000000 	cdpne	0, 0, cr0, cr0, cr0, {0}
    1b38:	25f72008 	ldrbcs	r2, [r7, #8]!
    1b3c:	332cf725 	msrcc	CPSR_fs, #9699328	; 0x940000
    1b40:	02e09f25 	rsceq	r9, r0, #37, 30	; 0x94
    1b44:	02e40000 	rsceq	r0, r4, #0
    1b48:	00010000 	andeq	r0, r1, r0
    1b4c:	0002e453 	andeq	lr, r2, r3, asr r4
    1b50:	0002ec00 	andeq	lr, r2, r0, lsl #24
    1b54:	70001c00 	andvc	r1, r0, r0, lsl #24
    1b58:	f72cf700 			; <UNDEFINED> instruction: 0xf72cf700
    1b5c:	0825f425 	stmdaeq	r5!, {r0, r2, r5, sl, ip, sp, lr, pc}
    1b60:	cccccccd 	stclgt	12, cr12, [ip], {205}	; 0xcd
    1b64:	00000000 	andeq	r0, r0, r0
    1b68:	f720081e 			; <UNDEFINED> instruction: 0xf720081e
    1b6c:	2cf72525 	cfldr64cs	mvdx2, [r7], #148	; 0x94
    1b70:	ec9f2533 	cfldr32	mvfx2, [pc], {51}	; 0x33
    1b74:	f0000002 			; <UNDEFINED> instruction: 0xf0000002
    1b78:	01000002 	tsteq	r0, r2
    1b7c:	02f05300 	rscseq	r5, r0, #0, 6
    1b80:	02f80000 	rscseq	r0, r8, #0
    1b84:	001c0000 	andseq	r0, ip, r0
    1b88:	2cf70070 	ldclcs	0, cr0, [r7], #448	; 0x1c0
    1b8c:	25f425f7 	ldrbcs	r2, [r4, #1527]!	; 0x5f7
    1b90:	cccccd08 	stclgt	13, cr12, [ip], {8}
    1b94:	000000cc 	andeq	r0, r0, ip, asr #1
    1b98:	20081e00 	andcs	r1, r8, r0, lsl #28
    1b9c:	f72525f7 			; <UNDEFINED> instruction: 0xf72525f7
    1ba0:	9f25332c 	svcls	0x0025332c
    1ba4:	000002f8 	strdeq	r0, [r0], -r8
    1ba8:	000002fc 	strdeq	r0, [r0], -ip
    1bac:	fc530001 	mrrc2	0, 0, r0, r3, cr1
    1bb0:	04000002 	streq	r0, [r0], #-2
    1bb4:	1c000003 	stcne	0, cr0, [r0], {3}
    1bb8:	f7007000 			; <UNDEFINED> instruction: 0xf7007000
    1bbc:	f425f72c 	vld1.8	{d15}, [r5 :128], ip
    1bc0:	cccd0825 	stclgt	8, cr0, [sp], {37}	; 0x25
    1bc4:	0000cccc 	andeq	ip, r0, ip, asr #25
    1bc8:	081e0000 	ldmdaeq	lr, {}	; <UNPREDICTABLE>
    1bcc:	2525f720 	strcs	pc, [r5, #-1824]!	; 0x720
    1bd0:	25332cf7 	ldrcs	r2, [r3, #-3319]!	; 0xcf7
    1bd4:	0003049f 	muleq	r3, pc, r4	; <UNPREDICTABLE>
    1bd8:	00030800 	andeq	r0, r3, r0, lsl #16
    1bdc:	53000100 	movwpl	r0, #256	; 0x100
    1be0:	00000308 	andeq	r0, r0, r8, lsl #6
    1be4:	00000310 	andeq	r0, r0, r0, lsl r3
    1be8:	0070001c 	rsbseq	r0, r0, ip, lsl r0
    1bec:	25f72cf7 	ldrbcs	r2, [r7, #3319]!	; 0xcf7
    1bf0:	cd0825f4 	cfstr32gt	mvfx2, [r8, #-976]	; 0xfffffc30
    1bf4:	00cccccc 	sbceq	ip, ip, ip, asr #25
    1bf8:	1e000000 	cdpne	0, 0, cr0, cr0, cr0, {0}
    1bfc:	25f72008 	ldrbcs	r2, [r7, #8]!
    1c00:	332cf725 	msrcc	CPSR_fs, #9699328	; 0x940000
    1c04:	03109f25 	tsteq	r0, #37, 30	; 0x94
    1c08:	03140000 	tsteq	r4, #0
    1c0c:	00010000 	andeq	r0, r1, r0
    1c10:	00031453 	andeq	r1, r3, r3, asr r4
    1c14:	00031800 	andeq	r1, r3, r0, lsl #16
    1c18:	70001c00 	andvc	r1, r0, r0, lsl #24
    1c1c:	f72cf700 			; <UNDEFINED> instruction: 0xf72cf700
    1c20:	0825f425 	stmdaeq	r5!, {r0, r2, r5, sl, ip, sp, lr, pc}
    1c24:	cccccccd 	stclgt	12, cr12, [ip], {205}	; 0xcd
    1c28:	00000000 	andeq	r0, r0, r0
    1c2c:	f720081e 			; <UNDEFINED> instruction: 0xf720081e
    1c30:	2cf72525 	cfldr64cs	mvdx2, [r7], #148	; 0x94
    1c34:	189f2533 	ldmne	pc, {r0, r1, r4, r5, r8, sl, sp}	; <UNPREDICTABLE>
    1c38:	20000003 	andcs	r0, r0, r3
    1c3c:	1c000003 	stcne	0, cr0, [r0], {3}
    1c40:	f7007400 			; <UNDEFINED> instruction: 0xf7007400
    1c44:	f425f72c 	vld1.8	{d15}, [r5 :128], ip
    1c48:	cccd0825 	stclgt	8, cr0, [sp], {37}	; 0x25
    1c4c:	0000cccc 	andeq	ip, r0, ip, asr #25
    1c50:	081e0000 	ldmdaeq	lr, {}	; <UNPREDICTABLE>
    1c54:	2525f720 	strcs	pc, [r5, #-1824]!	; 0x720
    1c58:	25332cf7 	ldrcs	r2, [r3, #-3319]!	; 0xcf7
    1c5c:	0003209f 	muleq	r3, pc, r0	; <UNPREDICTABLE>
    1c60:	00032400 	andeq	r2, r3, r0, lsl #8
    1c64:	74001700 	strvc	r1, [r0], #-1792	; 0x700
    1c68:	f72cf700 			; <UNDEFINED> instruction: 0xf72cf700
    1c6c:	f7007325 			; <UNDEFINED> instruction: 0xf7007325
    1c70:	1e25f72c 	cdpne	7, 2, cr15, cr5, cr12, {1}
    1c74:	25f72008 	ldrbcs	r2, [r7, #8]!
    1c78:	332cf725 	msrcc	CPSR_fs, #9699328	; 0x940000
    1c7c:	03249f25 	teqeq	r4, #37, 30	; 0x94
    1c80:	03580000 	cmpeq	r8, #0
    1c84:	001c0000 	andseq	r0, ip, r0
    1c88:	2cf70074 	ldclcs	0, cr0, [r7], #464	; 0x1d0
    1c8c:	25f425f7 	ldrbcs	r2, [r4, #1527]!	; 0x5f7
    1c90:	cccccd08 	stclgt	13, cr12, [ip], {8}
    1c94:	000000cc 	andeq	r0, r0, ip, asr #1
    1c98:	20081e00 	andcs	r1, r8, r0, lsl #28
    1c9c:	f72525f7 			; <UNDEFINED> instruction: 0xf72525f7
    1ca0:	9f25332c 	svcls	0x0025332c
	...
    1cac:	0000031c 	andeq	r0, r0, ip, lsl r3
    1cb0:	00000340 	andeq	r0, r0, r0, asr #6
    1cb4:	40500001 	subsmi	r0, r0, r1
    1cb8:	48000003 	stmdami	r0, {r0, r1}
    1cbc:	09000003 	stmdbeq	r0, {r0, r1}
    1cc0:	73007500 	movwvc	r7, #1280	; 0x500
    1cc4:	00712400 	rsbseq	r2, r1, r0, lsl #8
    1cc8:	03489f21 	movteq	r9, #36641	; 0x8f21
    1ccc:	034b0000 	movteq	r0, #45056	; 0xb000
    1cd0:	00010000 	andeq	r0, r1, r0
    1cd4:	00000051 	andeq	r0, r0, r1, asr r0
    1cd8:	00000000 	andeq	r0, r0, r0
    1cdc:	00035800 	andeq	r5, r3, r0, lsl #16
    1ce0:	00037c00 	andeq	r7, r3, r0, lsl #24
    1ce4:	50000100 	andpl	r0, r0, r0, lsl #2
    1ce8:	0000037c 	andeq	r0, r0, ip, ror r3
    1cec:	00000390 	muleq	r0, r0, r3
    1cf0:	01f30004 	mvnseq	r0, r4
    1cf4:	00009f50 	andeq	r9, r0, r0, asr pc
    1cf8:	00000000 	andeq	r0, r0, r0
    1cfc:	03640000 	cmneq	r4, #0
    1d00:	036c0000 	cmneq	ip, #0
    1d04:	00020000 	andeq	r0, r2, r0
    1d08:	036c9f30 	cmneq	ip, #48, 30	; 0xc0
    1d0c:	036c0000 	cmneq	ip, #0
    1d10:	00010000 	andeq	r0, r1, r0
    1d14:	00036c52 	andeq	r6, r3, r2, asr ip
    1d18:	00037400 	andeq	r7, r3, r0, lsl #8
    1d1c:	30000200 	andcc	r0, r0, r0, lsl #4
    1d20:	0003749f 	muleq	r3, pc, r4	; <UNPREDICTABLE>
    1d24:	00038700 	andeq	r8, r3, r0, lsl #14
    1d28:	52000100 	andpl	r0, r0, #0, 2
	...
    1d34:	00000364 	andeq	r0, r0, r4, ror #6
    1d38:	00000378 	andeq	r0, r0, r8, ror r3
    1d3c:	9f300002 	svcls	0x00300002
    1d40:	00000378 	andeq	r0, r0, r8, ror r3
    1d44:	00000384 	andeq	r0, r0, r4, lsl #7
    1d48:	73310005 	teqvc	r1, #5
    1d4c:	849f2400 	ldrhi	r2, [pc], #1024	; 1d54 <_start-0x62ac>
    1d50:	87000003 	strhi	r0, [r0, -r3]
    1d54:	01000003 	tsteq	r0, r3
    1d58:	03875100 	orreq	r5, r7, #0, 2
    1d5c:	03900000 	orrseq	r0, r0, #0
    1d60:	00080000 	andeq	r0, r8, r0
    1d64:	5001f331 	andpl	pc, r1, r1, lsr r3	; <UNPREDICTABLE>
    1d68:	9f241a4f 	svcls	0x00241a4f
	...
    1d74:	00000390 	muleq	r0, r0, r3
    1d78:	0000039c 	muleq	r0, ip, r3
    1d7c:	9c500001 	mrrcls	0, 0, r0, r0, cr1	; <UNPREDICTABLE>
    1d80:	bc000003 	stclt	0, cr0, [r0], {3}
    1d84:	04000003 	streq	r0, [r0], #-3
    1d88:	5001f300 	andpl	pc, r1, r0, lsl #6
    1d8c:	0000009f 	muleq	r0, pc, r0	; <UNPREDICTABLE>
    1d90:	00000000 	andeq	r0, r0, r0
    1d94:	0003bc00 	andeq	fp, r3, r0, lsl #24
    1d98:	0003cf00 	andeq	ip, r3, r0, lsl #30
    1d9c:	50000100 	andpl	r0, r0, r0, lsl #2
    1da0:	000003cf 	andeq	r0, r0, pc, asr #7
    1da4:	00000408 	andeq	r0, r0, r8, lsl #8
    1da8:	08540001 	ldmdaeq	r4, {r0}^
    1dac:	40000004 	andmi	r0, r0, r4
    1db0:	04000004 	streq	r0, [r0], #-4
    1db4:	5001f300 	andpl	pc, r1, r0, lsl #6
    1db8:	0000009f 	muleq	r0, pc, r0	; <UNPREDICTABLE>
    1dbc:	00000000 	andeq	r0, r0, r0
    1dc0:	00042800 	andeq	r2, r4, r0, lsl #16
    1dc4:	00042c00 	andeq	r2, r4, r0, lsl #24
    1dc8:	50000100 	andpl	r0, r0, r0, lsl #2
    1dcc:	0000042c 	andeq	r0, r0, ip, lsr #8
    1dd0:	00000433 	andeq	r0, r0, r3, lsr r4
    1dd4:	00510001 	subseq	r0, r1, r1
    1dd8:	00000000 	andeq	r0, r0, r0
    1ddc:	e4000000 	str	r0, [r0], #-0
    1de0:	ec000003 	stc	0, cr0, [r0], {3}
    1de4:	01000003 	tsteq	r0, r3
    1de8:	03ec5000 	mvneq	r5, #0
    1dec:	03f30000 	mvnseq	r0, #0
    1df0:	00010000 	andeq	r0, r1, r0
    1df4:	00000051 	andeq	r0, r0, r1, asr r0
    1df8:	00000000 	andeq	r0, r0, r0
    1dfc:	00040400 	andeq	r0, r4, r0, lsl #8
    1e00:	00041000 	andeq	r1, r4, r0
    1e04:	50000100 	andpl	r0, r0, r0, lsl #2
    1e08:	00000410 	andeq	r0, r0, r0, lsl r4
    1e0c:	00000417 	andeq	r0, r0, r7, lsl r4
    1e10:	00510001 	subseq	r0, r1, r1
    1e14:	00000000 	andeq	r0, r0, r0
    1e18:	40000000 	andmi	r0, r0, r0
    1e1c:	53000004 	movwpl	r0, #4
    1e20:	01000004 	tsteq	r0, r4
    1e24:	04535000 	ldrbeq	r5, [r3], #-0
    1e28:	048c0000 	streq	r0, [ip], #0
    1e2c:	00010000 	andeq	r0, r1, r0
    1e30:	00048c54 	andeq	r8, r4, r4, asr ip
    1e34:	0004c400 	andeq	ip, r4, r0, lsl #8
    1e38:	f3000400 	vshl.u8	d0, d0, d0
    1e3c:	009f5001 	addseq	r5, pc, r1
    1e40:	00000000 	andeq	r0, r0, r0
    1e44:	ac000000 	stcge	0, cr0, [r0], {-0}
    1e48:	b0000004 	andlt	r0, r0, r4
    1e4c:	01000004 	tsteq	r0, r4
    1e50:	04b05000 	ldrteq	r5, [r0], #0
    1e54:	04b70000 	ldrteq	r0, [r7], #0
    1e58:	00010000 	andeq	r0, r1, r0
    1e5c:	00000051 	andeq	r0, r0, r1, asr r0
    1e60:	00000000 	andeq	r0, r0, r0
    1e64:	00046800 	andeq	r6, r4, r0, lsl #16
    1e68:	00047000 	andeq	r7, r4, r0
    1e6c:	50000100 	andpl	r0, r0, r0, lsl #2
    1e70:	00000470 	andeq	r0, r0, r0, ror r4
    1e74:	00000477 	andeq	r0, r0, r7, ror r4
    1e78:	00510001 	subseq	r0, r1, r1
    1e7c:	00000000 	andeq	r0, r0, r0
    1e80:	88000000 	stmdahi	r0, {}	; <UNPREDICTABLE>
    1e84:	94000004 	strls	r0, [r0], #-4
    1e88:	01000004 	tsteq	r0, r4
    1e8c:	04945000 	ldreq	r5, [r4], #0
    1e90:	049b0000 	ldreq	r0, [fp], #0
    1e94:	00010000 	andeq	r0, r1, r0
    1e98:	00000051 	andeq	r0, r0, r1, asr r0
    1e9c:	00000000 	andeq	r0, r0, r0
    1ea0:	0004c400 	andeq	ip, r4, r0, lsl #8
    1ea4:	0004d700 	andeq	sp, r4, r0, lsl #14
    1ea8:	50000100 	andpl	r0, r0, r0, lsl #2
    1eac:	000004d7 	ldrdeq	r0, [r0], -r7
    1eb0:	00000518 	andeq	r0, r0, r8, lsl r5
    1eb4:	18540001 	ldmdane	r4, {r0}^
    1eb8:	3c000005 	stccc	0, cr0, [r0], {5}
    1ebc:	04000005 	streq	r0, [r0], #-5
    1ec0:	5001f300 	andpl	pc, r1, r0, lsl #6
    1ec4:	00053c9f 	muleq	r5, pc, ip	; <UNPREDICTABLE>
    1ec8:	00054000 	andeq	r4, r5, r0
    1ecc:	50000100 	andpl	r0, r0, r0, lsl #2
    1ed0:	00000540 	andeq	r0, r0, r0, asr #10
    1ed4:	00000548 	andeq	r0, r0, r8, asr #10
    1ed8:	00540001 	subseq	r0, r4, r1
    1edc:	00000000 	andeq	r0, r0, r0
    1ee0:	ec000000 	stc	0, cr0, [r0], {-0}
    1ee4:	fb000004 	blx	1efe <_start-0x6102>
    1ee8:	08000004 	stmdaeq	r0, {r2}
    1eec:	00743100 	rsbseq	r3, r4, r0, lsl #2
    1ef0:	1a007024 	bne	1df88 <__bss_end__+0x11c70>
    1ef4:	0000009f 	muleq	r0, pc, r0	; <UNPREDICTABLE>
    1ef8:	00000000 	andeq	r0, r0, r0
    1efc:	00051800 	andeq	r1, r5, r0, lsl #16
    1f00:	00053000 	andeq	r3, r5, r0
    1f04:	54000100 	strpl	r0, [r0], #-256	; 0x100
	...
    1f10:	00000548 	andeq	r0, r0, r8, asr #10
    1f14:	0000055b 	andeq	r0, r0, fp, asr r5
    1f18:	5b500001 	blpl	1401f24 <__bss_end__+0x13f5c0c>
    1f1c:	80000005 	andhi	r0, r0, r5
    1f20:	01000005 	tsteq	r0, r5
    1f24:	05805400 	streq	r5, [r0, #1024]	; 0x400
    1f28:	05a00000 	streq	r0, [r0, #0]!
    1f2c:	00040000 	andeq	r0, r4, r0
    1f30:	9f5001f3 	svcls	0x005001f3
	...
    1f3c:	000000fc 	strdeq	r0, [r0], -ip
    1f40:	00000104 	andeq	r0, r0, r4, lsl #2
    1f44:	04500001 	ldrbeq	r0, [r0], #-1
    1f48:	28000001 	stmdacs	r0, {r0}
    1f4c:	01000001 	tsteq	r0, r1
    1f50:	00005400 	andeq	r5, r0, r0, lsl #8
    1f54:	00000000 	andeq	r0, r0, r0
    1f58:	00300000 	eorseq	r0, r0, r0
    1f5c:	003c0000 	eorseq	r0, ip, r0
    1f60:	00020000 	andeq	r0, r2, r0
    1f64:	003c9f30 	eorseq	r9, ip, r0, lsr pc
    1f68:	00680000 	rsbeq	r0, r8, r0
    1f6c:	00010000 	andeq	r0, r1, r0
    1f70:	00000053 	andeq	r0, r0, r3, asr r0
    1f74:	00000000 	andeq	r0, r0, r0
    1f78:	00006800 	andeq	r6, r0, r0, lsl #16
    1f7c:	00007700 	andeq	r7, r0, r0, lsl #14
    1f80:	50000100 	andpl	r0, r0, r0, lsl #2
    1f84:	00000077 	andeq	r0, r0, r7, ror r0
    1f88:	000000ac 	andeq	r0, r0, ip, lsr #1
    1f8c:	00540001 	subseq	r0, r4, r1
	...
    1f98:	0f000000 	svceq	0x00000000
    1f9c:	01000000 	mrseq	r0, (UNDEF: 0)
    1fa0:	000f5000 	andeq	r5, pc, r0
    1fa4:	00440000 	subeq	r0, r4, r0
    1fa8:	00010000 	andeq	r0, r1, r0
    1fac:	00000054 	andeq	r0, r0, r4, asr r0
	...
    1fb8:	00000f00 	andeq	r0, r0, r0, lsl #30
    1fbc:	50000100 	andpl	r0, r0, r0, lsl #2
    1fc0:	0000000f 	andeq	r0, r0, pc
    1fc4:	00000044 	andeq	r0, r0, r4, asr #32
    1fc8:	00540001 	subseq	r0, r4, r1
	...
    1fd4:	0f000000 	svceq	0x00000000
    1fd8:	01000000 	mrseq	r0, (UNDEF: 0)
    1fdc:	000f5000 	andeq	r5, pc, r0
    1fe0:	00440000 	subeq	r0, r4, r0
    1fe4:	00010000 	andeq	r0, r1, r0
    1fe8:	00000054 	andeq	r0, r0, r4, asr r0
	...
    1ff4:	00000f00 	andeq	r0, r0, r0, lsl #30
    1ff8:	50000100 	andpl	r0, r0, r0, lsl #2
    1ffc:	0000000f 	andeq	r0, r0, pc
    2000:	00000044 	andeq	r0, r0, r4, asr #32
    2004:	00540001 	subseq	r0, r4, r1
    2008:	00000000 	andeq	r0, r0, r0
    200c:	Address 0x000000000000200c is out of bounds.


Disassembly of section .debug_aranges:

00000000 <.debug_aranges>:
   0:	0000001c 	andeq	r0, r0, ip, lsl r0
   4:	00000002 	andeq	r0, r0, r2
   8:	00040000 	andeq	r0, r4, r0
   c:	00000000 	andeq	r0, r0, r0
  10:	00008010 	andeq	r8, r0, r0, lsl r0
  14:	00000860 	andeq	r0, r0, r0, ror #16
	...
  20:	0000001c 	andeq	r0, r0, ip, lsl r0
  24:	13350002 	teqne	r5, #2
  28:	00040000 	andeq	r0, r4, r0
  2c:	00000000 	andeq	r0, r0, r0
  30:	00008870 	andeq	r8, r0, r0, ror r8
  34:	00000020 	andeq	r0, r0, r0, lsr #32
	...
  40:	0000001c 	andeq	r0, r0, ip, lsl r0
  44:	14140002 	ldrne	r0, [r4], #-2
  48:	00040000 	andeq	r0, r4, r0
  4c:	00000000 	andeq	r0, r0, r0
  50:	00008890 	muleq	r0, r0, r8
  54:	00000058 	andeq	r0, r0, r8, asr r0
	...
  60:	0000001c 	andeq	r0, r0, ip, lsl r0
  64:	15a90002 	strne	r0, [r9, #2]!
  68:	00040000 	andeq	r0, r4, r0
  6c:	00000000 	andeq	r0, r0, r0
  70:	000088e8 	andeq	r8, r0, r8, ror #17
  74:	0000003c 	andeq	r0, r0, ip, lsr r0
	...
  80:	0000001c 	andeq	r0, r0, ip, lsl r0
  84:	16c00002 	strbne	r0, [r0], r2
  88:	00040000 	andeq	r0, r4, r0
  8c:	00000000 	andeq	r0, r0, r0
  90:	00008924 	andeq	r8, r0, r4, lsr #18
  94:	00000034 	andeq	r0, r0, r4, lsr r0
	...
  a0:	0000001c 	andeq	r0, r0, ip, lsl r0
  a4:	17b20002 	ldrne	r0, [r2, r2]!
  a8:	00040000 	andeq	r0, r4, r0
  ac:	00000000 	andeq	r0, r0, r0
  b0:	00008958 	andeq	r8, r0, r8, asr r9
  b4:	000004f8 	strdeq	r0, [r0], -r8
	...
  c0:	0000001c 	andeq	r0, r0, ip, lsl r0
  c4:	1e370002 	cdpne	0, 3, cr0, cr7, cr2, {0}
  c8:	00040000 	andeq	r0, r4, r0
  cc:	00000000 	andeq	r0, r0, r0
  d0:	00008e50 	andeq	r8, r0, r0, asr lr
  d4:	00000020 	andeq	r0, r0, r0, lsr #32
	...
  e0:	0000001c 	andeq	r0, r0, ip, lsl r0
  e4:	1ef30002 	cdpne	0, 15, cr0, cr3, cr2, {0}
  e8:	00040000 	andeq	r0, r4, r0
  ec:	00000000 	andeq	r0, r0, r0
  f0:	00008e70 	andeq	r8, r0, r0, ror lr
  f4:	00000028 	andeq	r0, r0, r8, lsr #32
	...
 100:	0000001c 	andeq	r0, r0, ip, lsl r0
 104:	1ff60002 	svcne	0x00f60002
 108:	00040000 	andeq	r0, r4, r0
 10c:	00000000 	andeq	r0, r0, r0
 110:	00008e98 	muleq	r0, r8, lr
 114:	00000034 	andeq	r0, r0, r4, lsr r0
	...
 120:	0000001c 	andeq	r0, r0, ip, lsl r0
 124:	20f90002 	rscscs	r0, r9, r2
 128:	00040000 	andeq	r0, r4, r0
 12c:	00000000 	andeq	r0, r0, r0
 130:	00008ecc 	andeq	r8, r0, ip, asr #29
 134:	00000074 	andeq	r0, r0, r4, ror r0
	...
 140:	0000001c 	andeq	r0, r0, ip, lsl r0
 144:	22aa0002 	adccs	r0, sl, #2
 148:	00040000 	andeq	r0, r4, r0
 14c:	00000000 	andeq	r0, r0, r0
 150:	00008f40 	andeq	r8, r0, r0, asr #30
 154:	00000088 	andeq	r0, r0, r8, lsl #1
	...
 160:	0000001c 	andeq	r0, r0, ip, lsl r0
 164:	24860002 	strcs	r0, [r6], #2
 168:	00040000 	andeq	r0, r4, r0
 16c:	00000000 	andeq	r0, r0, r0
 170:	00008fc8 	andeq	r8, r0, r8, asr #31
 174:	000005a0 	andeq	r0, r0, r0, lsr #11
	...
 180:	0000001c 	andeq	r0, r0, ip, lsl r0
 184:	2d0c0002 	stccs	0, cr0, [ip, #-8]
 188:	00040000 	andeq	r0, r4, r0
 18c:	00000000 	andeq	r0, r0, r0
 190:	00009568 	andeq	r9, r0, r8, ror #10
 194:	00000154 	andeq	r0, r0, r4, asr r1
	...
 1a0:	0000001c 	andeq	r0, r0, ip, lsl r0
 1a4:	310f0002 	tstcc	pc, r2
 1a8:	00040000 	andeq	r0, r4, r0
 1ac:	00000000 	andeq	r0, r0, r0
 1b0:	000096bc 			; <UNDEFINED> instruction: 0x000096bc
 1b4:	000000ac 	andeq	r0, r0, ip, lsr #1
	...
 1c0:	0000001c 	andeq	r0, r0, ip, lsl r0
 1c4:	33ae0002 			; <UNDEFINED> instruction: 0x33ae0002
 1c8:	00040000 	andeq	r0, r4, r0
 1cc:	00000000 	andeq	r0, r0, r0
 1d0:	000098b8 			; <UNDEFINED> instruction: 0x000098b8
 1d4:	00000044 	andeq	r0, r0, r4, asr #32
	...
 1e0:	0000001c 	andeq	r0, r0, ip, lsl r0
 1e4:	34f00002 	ldrbtcc	r0, [r0], #2
 1e8:	00040000 	andeq	r0, r4, r0
 1ec:	00000000 	andeq	r0, r0, r0
 1f0:	000098fc 	strdeq	r9, [r0], -ip
 1f4:	00000044 	andeq	r0, r0, r4, asr #32
	...
 200:	0000001c 	andeq	r0, r0, ip, lsl r0
 204:	36320002 	ldrtcc	r0, [r2], -r2
 208:	00040000 	andeq	r0, r4, r0
 20c:	00000000 	andeq	r0, r0, r0
 210:	00009940 	andeq	r9, r0, r0, asr #18
 214:	00000044 	andeq	r0, r0, r4, asr #32
	...
 220:	0000001c 	andeq	r0, r0, ip, lsl r0
 224:	37740002 	ldrbcc	r0, [r4, -r2]!
 228:	00040000 	andeq	r0, r4, r0
 22c:	00000000 	andeq	r0, r0, r0
 230:	00009984 	andeq	r9, r0, r4, lsl #19
 234:	00000044 	andeq	r0, r0, r4, asr #32
	...

Disassembly of section .debug_ranges:

00000000 <.debug_ranges>:
   0:	00000030 	andeq	r0, r0, r0, lsr r0
   4:	0000003c 	andeq	r0, r0, ip, lsr r0
   8:	00000364 	andeq	r0, r0, r4, ror #6
   c:	0000036c 	andeq	r0, r0, ip, ror #6
	...
  18:	0000003c 	andeq	r0, r0, ip, lsr r0
  1c:	00000040 	andeq	r0, r0, r0, asr #32
  20:	00000048 	andeq	r0, r0, r8, asr #32
  24:	000000a8 	andeq	r0, r0, r8, lsr #1
	...
  30:	00000048 	andeq	r0, r0, r8, asr #32
  34:	0000007c 	andeq	r0, r0, ip, ror r0
  38:	00000080 	andeq	r0, r0, r0, lsl #1
  3c:	00000084 	andeq	r0, r0, r4, lsl #1
	...
  48:	00000040 	andeq	r0, r0, r0, asr #32
  4c:	00000048 	andeq	r0, r0, r8, asr #32
  50:	000000b8 	strheq	r0, [r0], -r8
  54:	00000360 	andeq	r0, r0, r0, ror #6
	...
  60:	00000770 	andeq	r0, r0, r0, ror r7
  64:	000007b8 			; <UNDEFINED> instruction: 0x000007b8
  68:	000007bc 			; <UNDEFINED> instruction: 0x000007bc
  6c:	000007c0 	andeq	r0, r0, r0, asr #15
	...
  78:	00000294 	muleq	r0, r4, r2
  7c:	00000298 	muleq	r0, r8, r2
  80:	000002c8 	andeq	r0, r0, r8, asr #5
  84:	000004b8 			; <UNDEFINED> instruction: 0x000004b8
	...
  90:	00008ecc 	andeq	r8, r0, ip, asr #29
  94:	00008f40 	andeq	r8, r0, r0, asr #30
	...

Disassembly of section .debug_line:

00000000 <.debug_line>:
       0:	000003d7 	ldrdeq	r0, [r0], -r7
       4:	025d0002 	subseq	r0, sp, #2
       8:	01020000 	mrseq	r0, (UNDEF: 2)
       c:	000d0efb 	strdeq	r0, [sp], -fp
      10:	01010101 	tsteq	r1, r1, lsl #2
      14:	01000000 	mrseq	r0, (UNDEF: 0)
      18:	2f010000 	svccs	0x00010000
      1c:	72657355 	rsbvc	r7, r5, #1409286145	; 0x54000001
      20:	72622f73 	rsbvc	r2, r2, #460	; 0x1cc
      24:	6a6e6169 	bvs	1b985d0 <__bss_end__+0x1b8c2b8>
      28:	442f6e75 	strtmi	r6, [pc], #-3701	; 30 <_start-0x7fd0>
      2c:	746b7365 	strbtvc	r7, [fp], #-869	; 0x365
      30:	732f706f 	teqvc	pc, #111	; 0x6f
      34:	6f6f6863 	svcvs	0x006f6863
      38:	69572f6c 	ldmdbvs	r7, {r2, r3, r5, r6, r8, r9, sl, fp, sp}^
      3c:	7265746e 	rsbvc	r7, r5, #1845493760	; 0x6e000000
      40:	30323931 	eorscc	r3, r2, r1, lsr r9
      44:	3153432f 	cmpcc	r3, pc, lsr #6
      48:	2f453034 	svccs	0x00453034
      4c:	34317363 	ldrtcc	r7, [r1], #-867	; 0x363
      50:	322d6530 	eorcc	r6, sp, #48, 10	; 0xc000000
      54:	6e697730 	mcrvs	7, 3, r7, cr9, cr0, {1}
      58:	62696c2f 	rsbvs	r6, r9, #12032	; 0x2f00
      5c:	6c2f6970 	stcvs	9, cr6, [pc], #-448	; fffffea4 <__bss_end__+0xffff3b8c>
      60:	00636269 	rsbeq	r6, r3, r9, ror #4
      64:	7273752f 	rsbsvc	r7, r3, #197132288	; 0xbc00000
      68:	636f6c2f 	cmnvs	pc, #12032	; 0x2f00
      6c:	432f6c61 	teqmi	pc, #24832	; 0x6100
      70:	616c6c65 	cmnvs	ip, r5, ror #24
      74:	72612f72 	rsbvc	r2, r1, #456	; 0x1c8
      78:	6f6e2d6d 	svcvs	0x006e2d6d
      7c:	652d656e 	strvs	r6, [sp, #-1390]!	; 0x56e
      80:	2f696261 	svccs	0x00696261
      84:	2e382e34 	mrccs	14, 1, r2, cr8, cr4, {1}
      88:	73632d33 	cmnvc	r3, #3264	; 0xcc0
      8c:	65303731 	ldrvs	r3, [r0, #-1841]!	; 0x731
      90:	62696c2f 	rsbvs	r6, r9, #12032	; 0x2f00
      94:	6363672f 	cmnvs	r3, #12320768	; 0xbc0000
      98:	6d72612f 	ldfvse	f6, [r2, #-188]!	; 0xffffff44
      9c:	6e6f6e2d 	cdpvs	14, 6, cr6, cr15, cr13, {1}
      a0:	61652d65 	cmnvs	r5, r5, ror #26
      a4:	342f6962 	strtcc	r6, [pc], #-2402	; ac <_start-0x7f54>
      a8:	332e382e 	teqcc	lr, #3014656	; 0x2e0000
      ac:	636e692f 	cmnvs	lr, #770048	; 0xbc000
      b0:	6564756c 	strbvs	r7, [r4, #-1388]!	; 0x56c
      b4:	73552f00 	cmpvc	r5, #0, 30
      b8:	2f737265 	svccs	0x00737265
      bc:	61697262 	cmnvs	r9, r2, ror #4
      c0:	6e756a6e 	vsubvs.f32	s13, s10, s29
      c4:	7365442f 	cmnvc	r5, #788529152	; 0x2f000000
      c8:	706f746b 	rsbvc	r7, pc, fp, ror #8
      cc:	6863732f 	stmdavs	r3!, {r0, r1, r2, r3, r5, r8, r9, ip, sp, lr}^
      d0:	2f6c6f6f 	svccs	0x006c6f6f
      d4:	746e6957 	strbtvc	r6, [lr], #-2391	; 0x957
      d8:	39317265 	ldmdbcc	r1!, {r0, r2, r5, r6, r9, ip, sp, lr}
      dc:	432f3032 	teqmi	pc, #50	; 0x32
      e0:	30343153 	eorscc	r3, r4, r3, asr r1
      e4:	73632f45 	cmnvc	r3, #276	; 0x114
      e8:	65303431 	ldrvs	r3, [r0, #-1073]!	; 0x431
      ec:	7730322d 	ldrvc	r3, [r0, -sp, lsr #4]!
      f0:	6c2f6e69 	stcvs	14, cr6, [pc], #-420	; ffffff54 <__bss_end__+0xffff3c3c>
      f4:	69706269 	ldmdbvs	r0!, {r0, r3, r5, r6, r9, sp, lr}^
      f8:	3173632f 	cmncc	r3, pc, lsr #6
      fc:	2d653034 	stclcs	0, cr3, [r5, #-208]!	; 0xffffff30
     100:	65746e69 	ldrbvs	r6, [r4, #-3689]!	; 0xe69
     104:	70757272 	rsbsvc	r7, r5, r2, ror r2
     108:	552f0074 	strpl	r0, [pc, #-116]!	; 9c <_start-0x7f64>
     10c:	73726573 	cmnvc	r2, #482344960	; 0x1cc00000
     110:	6972622f 	ldmdbvs	r2!, {r0, r1, r2, r3, r5, r9, sp, lr}^
     114:	756a6e61 	strbvc	r6, [sl, #-3681]!	; 0xe61
     118:	65442f6e 	strbvs	r2, [r4, #-3950]	; 0xf6e
     11c:	6f746b73 	svcvs	0x00746b73
     120:	63732f70 	cmnvs	r3, #112, 30	; 0x1c0
     124:	6c6f6f68 	stclvs	15, cr6, [pc], #-416	; ffffff8c <__bss_end__+0xffff3c74>
     128:	6e69572f 	cdpvs	7, 6, cr5, cr9, cr15, {1}
     12c:	31726574 	cmncc	r2, r4, ror r5
     130:	2f303239 	svccs	0x00303239
     134:	34315343 	ldrtcc	r5, [r1], #-835	; 0x343
     138:	632f4530 	teqvs	pc, #48, 10	; 0xc000000
     13c:	30343173 	eorscc	r3, r4, r3, ror r1
     140:	30322d65 	eorscc	r2, r2, r5, ror #26
     144:	2f6e6977 	svccs	0x006e6977
     148:	7062696c 	rsbvc	r6, r2, ip, ror #18
     14c:	552f0069 	strpl	r0, [pc, #-105]!	; eb <_start-0x7f15>
     150:	73726573 	cmnvc	r2, #482344960	; 0x1cc00000
     154:	6972622f 	ldmdbvs	r2!, {r0, r1, r2, r3, r5, r9, sp, lr}^
     158:	756a6e61 	strbvc	r6, [sl, #-3681]!	; 0xe61
     15c:	65442f6e 	strbvs	r2, [r4, #-3950]	; 0xf6e
     160:	6f746b73 	svcvs	0x00746b73
     164:	63732f70 	cmnvs	r3, #112, 30	; 0x1c0
     168:	6c6f6f68 	stclvs	15, cr6, [pc], #-416	; ffffffd0 <__bss_end__+0xffff3cb8>
     16c:	6e69572f 	cdpvs	7, 6, cr5, cr9, cr15, {1}
     170:	31726574 	cmncc	r2, r4, ror r5
     174:	2f303239 	svccs	0x00303239
     178:	34315343 	ldrtcc	r5, [r1], #-835	; 0x343
     17c:	632f4530 	teqvs	pc, #48, 10	; 0xc000000
     180:	30343173 	eorscc	r3, r4, r3, ror r1
     184:	30322d65 	eorscc	r2, r2, r5, ror #26
     188:	2f6e6977 	svccs	0x006e6977
     18c:	7062696c 	rsbvc	r6, r2, ip, ror #18
     190:	73632f69 	cmnvc	r3, #420	; 0x1a4
     194:	65303431 	ldrvs	r3, [r0, #-1073]!	; 0x431
     198:	6372732d 	cmnvs	r2, #-1275068416	; 0xb4000000
     19c:	73752f00 	cmnvc	r5, #0, 30
     1a0:	6f6c2f72 	svcvs	0x006c2f72
     1a4:	2f6c6163 	svccs	0x006c6163
     1a8:	6c6c6543 	cfstr64vs	mvdx6, [ip], #-268	; 0xfffffef4
     1ac:	612f7261 	teqvs	pc, r1, ror #4
     1b0:	6e2d6d72 	mcrvs	13, 1, r6, cr13, cr2, {3}
     1b4:	2d656e6f 	stclcs	14, cr6, [r5, #-444]!	; 0xfffffe44
     1b8:	69626165 	stmdbvs	r2!, {r0, r2, r5, r6, r8, sp, lr}^
     1bc:	382e342f 	stmdacc	lr!, {r0, r1, r2, r3, r5, sl, ip, sp}
     1c0:	632d332e 	teqvs	sp, #-1207959552	; 0xb8000000
     1c4:	30373173 	eorscc	r3, r7, r3, ror r1
     1c8:	72612f65 	rsbvc	r2, r1, #404	; 0x194
     1cc:	6f6e2d6d 	svcvs	0x006e2d6d
     1d0:	652d656e 	strvs	r6, [sp, #-1390]!	; 0x56e
     1d4:	2f696261 	svccs	0x00696261
     1d8:	6c636e69 	stclvs	14, cr6, [r3], #-420	; 0xfffffe5c
     1dc:	00656475 	rsbeq	r6, r5, r5, ror r4
     1e0:	6c2d3200 	sfmvs	f3, 4, [sp], #-0
     1e4:	6369676f 	cmnvs	r9, #29097984	; 0x1bc0000
     1e8:	616e612d 	cmnvs	lr, sp, lsr #2
     1ec:	657a796c 	ldrbvs	r7, [sl, #-2412]!	; 0x96c
     1f0:	00632e72 	rsbeq	r2, r3, r2, ror lr
     1f4:	63000000 	movwvs	r0, #0
     1f8:	75637269 	strbvc	r7, [r3, #-617]!	; 0x269
     1fc:	2e72616c 	rpwcssz	f6, f2, #4.0
     200:	00010068 	andeq	r0, r1, r8, rrx
     204:	64747300 	ldrbtvs	r7, [r4], #-768	; 0x300
     208:	2e666564 	cdpcs	5, 6, cr6, cr6, cr4, {3}
     20c:	00020068 	andeq	r0, r2, r8, rrx
     210:	64747300 	ldrbtvs	r7, [r4], #-768	; 0x300
     214:	2d746e69 	ldclcs	14, cr6, [r4, #-420]!	; 0xfffffe5c
     218:	2e636367 	cdpcs	3, 6, cr6, cr3, cr7, {3}
     21c:	00020068 	andeq	r0, r2, r8, rrx
     220:	69707200 	ldmdbvs	r0!, {r9, ip, sp, lr}^
     224:	6d72612d 	ldfvse	f6, [r2, #-180]!	; 0xffffff4c
     228:	656d6974 	strbvs	r6, [sp, #-2420]!	; 0x974
     22c:	00682e72 	rsbeq	r2, r8, r2, ror lr
     230:	72000003 	andvc	r0, r0, #3
     234:	682e6970 	stmdavs	lr!, {r4, r5, r6, r8, fp, sp, lr}
     238:	00000400 	andeq	r0, r0, r0, lsl #8
     23c:	2d697072 	stclcs	0, cr7, [r9, #-456]!	; 0xfffffe38
     240:	65746e69 	ldrbvs	r6, [r4, #-3689]!	; 0xe69
     244:	70757272 	rsbsvc	r7, r5, r2, ror r2
     248:	682e7374 	stmdavs	lr!, {r2, r4, r5, r6, r8, r9, ip, sp, lr}
     24c:	00000300 	andeq	r0, r0, r0, lsl #6
     250:	6f697067 	svcvs	0x00697067
     254:	0500682e 	streq	r6, [r0, #-2094]	; 0x82e
     258:	74730000 	ldrbtvc	r0, [r3], #-0
     25c:	676e6972 			; <UNDEFINED> instruction: 0x676e6972
     260:	0600682e 	streq	r6, [r0], -lr, lsr #16
     264:	00000000 	andeq	r0, r0, r0
     268:	80100205 	andshi	r0, r0, r5, lsl #4
     26c:	9e030000 	cdpls	0, 0, cr0, cr3, cr0, {0}
     270:	4b670101 	blmi	19c067c <__bss_end__+0x19b4364>
     274:	2e7f9503 	cdpcs	5, 7, cr9, cr15, cr3, {0}
     278:	9e00ee03 	cdpls	14, 0, cr14, cr0, cr3, {0}
     27c:	95030204 	strls	r0, [r3, #-516]	; 0x204
     280:	13032e7f 	movwne	r2, #15999	; 0x3e7f
     284:	03010466 	movweq	r0, #5222	; 0x1466
     288:	02042e37 	andeq	r2, r4, #880	; 0x370
     28c:	4a7fb603 	bmi	1fedaa0 <__bss_end__+0x1fe1788>
     290:	4c4a0a03 	mcrrmi	10, 0, r0, sl, cr3
     294:	4e834b2f 	vdivmi.f64	d4, d3, d31
     298:	032e7803 	teqeq	lr, #196608	; 0x30000
     29c:	044b2e0c 	strbeq	r2, [fp], #-3596	; 0xe0c
     2a0:	00d50301 	sbcseq	r0, r5, r1, lsl #6
     2a4:	032f2fd6 	teqeq	pc, #856	; 0x358
     2a8:	03304a59 	teqeq	r0, #364544	; 0x59000
     2ac:	03d67fb8 	bicseq	r7, r6, #184, 30	; 0x2e0
     2b0:	9f6600cd 	svcls	0x006600cd
     2b4:	2e7fb803 	cdpcs	8, 7, cr11, cr15, cr3, {0}
     2b8:	a34a7503 	movtge	r7, #42243	; 0xa503
     2bc:	8200cf03 	andhi	ip, r0, #3, 30
     2c0:	7fb6039f 	svcvc	0x00b6039f
     2c4:	4a75032e 	bmi	1d40f84 <__bss_end__+0x1d34c6c>
     2c8:	00d103a3 	sbcseq	r0, r1, r3, lsr #7
     2cc:	b403bb82 	strlt	fp, [r3], #-2946	; 0xb82
     2d0:	75032e7f 	strvc	r2, [r3, #-3711]	; 0xe7f
     2d4:	d303a34a 	movwle	sl, #13130	; 0x334a
     2d8:	039f8200 	orrseq	r8, pc, #0, 4
     2dc:	032e7fb2 	teqeq	lr, #712	; 0x2c8
     2e0:	03a34a75 			; <UNDEFINED> instruction: 0x03a34a75
     2e4:	bb8200d5 	bllt	fe080640 <__bss_end__+0xfe074328>
     2e8:	2e7fb003 	cdpcs	0, 7, cr11, cr15, cr3, {0}
     2ec:	a34a7503 	movtge	r7, #42243	; 0xa503
     2f0:	8200d703 	andhi	sp, r0, #786432	; 0xc0000
     2f4:	7fae03d7 	svcvc	0x00ae03d7
     2f8:	4a75032e 	bmi	1d40fb8 <__bss_end__+0x1d34ca0>
     2fc:	00d903a3 	sbcseq	r0, r9, r3, lsr #7
     300:	ac03bb82 	stcge	11, cr11, [r3], {130}	; 0x82
     304:	75032e7f 	strvc	r2, [r3, #-3711]	; 0xe7f
     308:	db03a34a 	blle	e9038 <__bss_end__+0xdcd20>
     30c:	039f8200 	orrseq	r8, pc, #0, 4
     310:	032e7faa 	teqeq	lr, #680	; 0x2a8
     314:	03a34a75 			; <UNDEFINED> instruction: 0x03a34a75
     318:	bb8200dd 	bllt	fe080694 <__bss_end__+0xfe07437c>
     31c:	2e7f9d03 	cdpcs	13, 7, cr9, cr15, cr3, {0}
     320:	8200e403 	andhi	lr, r0, #50331648	; 0x3000000
     324:	04d60f03 	ldrbeq	r0, [r6], #3843	; 0xf03
     328:	04020002 	streq	r0, [r2], #-2
     32c:	7f900301 	svcvc	0x00900301
     330:	0001042e 	andeq	r0, r1, lr, lsr #8
     334:	03010402 	movweq	r0, #5122	; 0x1402
     338:	004a00ec 	subeq	r0, sl, ip, ror #1
     33c:	49010402 	stmdbmi	r1, {r1, sl}
     340:	7fa1036e 	svcvc	0x00a1036e
     344:	002f3c08 	eoreq	r3, pc, r8, lsl #24
     348:	06010402 	streq	r0, [r1], -r2, lsl #8
     34c:	2fd7064a 	svccs	0x00d7064a
     350:	de033067 	cdple	0, 0, cr3, cr3, cr7, {3}
     354:	03359e00 	teqeq	r5, #0, 28
     358:	672e7fa1 	strvs	r7, [lr, -r1, lsr #31]!
     35c:	842f2308 	strthi	r2, [pc], #-776	; 364 <_start-0x7c9c>
     360:	bb9f9f9f 	bllt	fe7e81e4 <__bss_end__+0xfe7dbecc>
     364:	bb9fbbbb 	bllt	fe7ef258 <__bss_end__+0xfe7e2f40>
     368:	bbbbbbbb 	bllt	feeef25c <__bss_end__+0xfeee2f44>
     36c:	d79fbbbb 			; <UNDEFINED> instruction: 0xd79fbbbb
     370:	ba00c903 	blt	32784 <__bss_end__+0x2646c>
     374:	9e030204 	cdpls	2, 0, cr0, cr3, cr4, {0}
     378:	65032e7f 	strvs	r2, [r3, #-3711]	; 0xe7f
     37c:	9e1c0366 	cdpls	3, 1, cr0, cr12, cr6, {3}
     380:	01044b4c 	tsteq	r4, ip, asr #22
     384:	9e00df03 	cdpls	15, 0, cr13, cr0, cr3, {0}
     388:	2f2fd94b 	svccs	0x002fd94b
     38c:	084b4b30 	stmdaeq	fp, {r4, r5, r8, r9, fp, lr}^
     390:	03020421 	movweq	r0, #9249	; 0x2421
     394:	679f2e55 			; <UNDEFINED> instruction: 0x679f2e55
     398:	9b034b9f 	blls	d321c <__bss_end__+0xc6f04>
     39c:	e603827f 			; <UNDEFINED> instruction: 0xe603827f
     3a0:	9d034a00 	vstrls	s8, [r3, #-0]
     3a4:	0320087f 	teqeq	r0, #8323072	; 0x7f0000
     3a8:	03d600e4 	bicseq	r0, r6, #228	; 0xe4
     3ac:	20087f9e 	mulcs	r8, lr, pc	; <UNPREDICTABLE>
     3b0:	ba00e303 	blt	38fc4 <__bss_end__+0x2ccac>
     3b4:	087f9803 	ldmdaeq	pc!, {r0, r1, fp, ip, pc}^	; <UNPREDICTABLE>
     3b8:	9e0a0320 	cdpls	3, 0, cr0, cr10, cr0, {1}
     3bc:	834b674c 	movthi	r6, #46924	; 0xb74c
     3c0:	4a00da03 	bmi	36bd4 <__bss_end__+0x2a8bc>
     3c4:	2e7fa203 	cdpcs	2, 7, cr10, cr15, cr3, {0}
     3c8:	2e00df03 	cdpcs	15, 0, cr13, cr0, cr3, {0}
     3cc:	25030104 	strcs	r0, [r3, #-260]	; 0x104
     3d0:	2f012202 	svccs	0x00012202
     3d4:	2002874c 	andcs	r8, r2, ip, asr #14
     3d8:	ec010100 	stfs	f0, [r1], {-0}
     3dc:	02000000 	andeq	r0, r0, #0
     3e0:	0000d000 	andeq	sp, r0, r0
     3e4:	fb010200 	blx	40bee <__bss_end__+0x348d6>
     3e8:	01000d0e 	tsteq	r0, lr, lsl #26
     3ec:	00010101 	andeq	r0, r1, r1, lsl #2
     3f0:	00010000 	andeq	r0, r1, r0
     3f4:	696c0100 	stmdbvs	ip!, {r8}^
     3f8:	2f006362 	svccs	0x00006362
     3fc:	2f727375 	svccs	0x00727375
     400:	61636f6c 	cmnvs	r3, ip, ror #30
     404:	65432f6c 	strbvs	r2, [r3, #-3948]	; 0xf6c
     408:	72616c6c 	rsbvc	r6, r1, #108, 24	; 0x6c00
     40c:	6d72612f 	ldfvse	f6, [r2, #-188]!	; 0xffffff44
     410:	6e6f6e2d 	cdpvs	14, 6, cr6, cr15, cr13, {1}
     414:	61652d65 	cmnvs	r5, r5, ror #26
     418:	342f6962 	strtcc	r6, [pc], #-2402	; 420 <_start-0x7be0>
     41c:	332e382e 	teqcc	lr, #3014656	; 0x2e0000
     420:	3173632d 	cmncc	r3, sp, lsr #6
     424:	2f653037 	svccs	0x00653037
     428:	2f62696c 	svccs	0x0062696c
     42c:	2f636367 	svccs	0x00636367
     430:	2d6d7261 	sfmcs	f7, 2, [sp, #-388]!	; 0xfffffe7c
     434:	656e6f6e 	strbvs	r6, [lr, #-3950]!	; 0xf6e
     438:	6261652d 	rsbvs	r6, r1, #188743680	; 0xb400000
     43c:	2e342f69 	cdpcs	15, 3, cr2, cr4, cr9, {3}
     440:	2f332e38 	svccs	0x00332e38
     444:	6c636e69 	stclvs	14, cr6, [r3], #-420	; 0xfffffe5c
     448:	00656475 	rsbeq	r6, r5, r5, ror r4
     44c:	7273752f 	rsbsvc	r7, r3, #197132288	; 0xbc00000
     450:	636f6c2f 	cmnvs	pc, #12032	; 0x2f00
     454:	432f6c61 	teqmi	pc, #24832	; 0x6100
     458:	616c6c65 	cmnvs	ip, r5, ror #24
     45c:	72612f72 	rsbvc	r2, r1, #456	; 0x1c8
     460:	6f6e2d6d 	svcvs	0x006e2d6d
     464:	652d656e 	strvs	r6, [sp, #-1390]!	; 0x56e
     468:	2f696261 	svccs	0x00696261
     46c:	2e382e34 	mrccs	14, 1, r2, cr8, cr4, {1}
     470:	73632d33 	cmnvc	r3, #3264	; 0xcc0
     474:	65303731 	ldrvs	r3, [r0, #-1841]!	; 0x731
     478:	6d72612f 	ldfvse	f6, [r2, #-188]!	; 0xffffff44
     47c:	6e6f6e2d 	cdpvs	14, 6, cr6, cr15, cr13, {1}
     480:	61652d65 	cmnvs	r5, r5, ror #26
     484:	692f6962 	stmdbvs	pc!, {r1, r5, r6, r8, fp, sp, lr}	; <UNPREDICTABLE>
     488:	756c636e 	strbvc	r6, [ip, #-878]!	; 0x36e
     48c:	00006564 	andeq	r6, r0, r4, ror #10
     490:	736d656d 	cmnvc	sp, #457179136	; 0x1b400000
     494:	632e7465 	teqvs	lr, #1694498816	; 0x65000000
     498:	00000100 	andeq	r0, r0, r0, lsl #2
     49c:	64647473 	strbtvs	r7, [r4], #-1139	; 0x473
     4a0:	682e6665 	stmdavs	lr!, {r0, r2, r5, r6, r9, sl, sp, lr}
     4a4:	00000200 	andeq	r0, r0, r0, lsl #4
     4a8:	69727473 	ldmdbvs	r2!, {r0, r1, r4, r5, r6, sl, ip, sp, lr}^
     4ac:	682e676e 	stmdavs	lr!, {r1, r2, r3, r5, r6, r8, r9, sl, sp, lr}
     4b0:	00000300 	andeq	r0, r0, r0, lsl #6
     4b4:	02050000 	andeq	r0, r5, #0
     4b8:	00008870 	andeq	r8, r0, r0, ror r8
     4bc:	2f4c1314 	svccs	0x004c1314
     4c0:	01040200 	mrseq	r0, R12_usr
     4c4:	02024d49 	andeq	r4, r2, #4672	; 0x1240
     4c8:	02010100 	andeq	r0, r1, #0, 2
     4cc:	02000001 	andeq	r0, r0, #1
     4d0:	0000eb00 	andeq	lr, r0, r0, lsl #22
     4d4:	fb010200 	blx	40cde <__bss_end__+0x349c6>
     4d8:	01000d0e 	tsteq	r0, lr, lsl #26
     4dc:	00010101 	andeq	r0, r1, r1, lsl #2
     4e0:	00010000 	andeq	r0, r1, r0
     4e4:	696c0100 	stmdbvs	ip!, {r8}^
     4e8:	2f006362 	svccs	0x00006362
     4ec:	2f727375 	svccs	0x00727375
     4f0:	61636f6c 	cmnvs	r3, ip, ror #30
     4f4:	65432f6c 	strbvs	r2, [r3, #-3948]	; 0xf6c
     4f8:	72616c6c 	rsbvc	r6, r1, #108, 24	; 0x6c00
     4fc:	6d72612f 	ldfvse	f6, [r2, #-188]!	; 0xffffff44
     500:	6e6f6e2d 	cdpvs	14, 6, cr6, cr15, cr13, {1}
     504:	61652d65 	cmnvs	r5, r5, ror #26
     508:	342f6962 	strtcc	r6, [pc], #-2402	; 510 <_start-0x7af0>
     50c:	332e382e 	teqcc	lr, #3014656	; 0x2e0000
     510:	3173632d 	cmncc	r3, sp, lsr #6
     514:	2f653037 	svccs	0x00653037
     518:	2f62696c 	svccs	0x0062696c
     51c:	2f636367 	svccs	0x00636367
     520:	2d6d7261 	sfmcs	f7, 2, [sp, #-388]!	; 0xfffffe7c
     524:	656e6f6e 	strbvs	r6, [lr, #-3950]!	; 0xf6e
     528:	6261652d 	rsbvs	r6, r1, #188743680	; 0xb400000
     52c:	2e342f69 	cdpcs	15, 3, cr2, cr4, cr9, {3}
     530:	2f332e38 	svccs	0x00332e38
     534:	6c636e69 	stclvs	14, cr6, [r3], #-420	; 0xfffffe5c
     538:	00656475 	rsbeq	r6, r5, r5, ror r4
     53c:	6573552f 	ldrbvs	r5, [r3, #-1327]!	; 0x52f
     540:	622f7372 	eorvs	r7, pc, #-939524095	; 0xc8000001
     544:	6e616972 	mcrvs	9, 3, r6, cr1, cr2, {3}
     548:	2f6e756a 	svccs	0x006e756a
     54c:	6b736544 	blvs	1cd9a64 <__bss_end__+0x1ccd74c>
     550:	2f706f74 	svccs	0x00706f74
     554:	6f686373 	svcvs	0x00686373
     558:	572f6c6f 	strpl	r6, [pc, -pc, ror #24]!
     55c:	65746e69 	ldrbvs	r6, [r4, #-3689]!	; 0xe69
     560:	32393172 	eorscc	r3, r9, #-2147483620	; 0x8000001c
     564:	53432f30 	movtpl	r2, #16176	; 0x3f30
     568:	45303431 	ldrmi	r3, [r0, #-1073]!	; 0x431
     56c:	3173632f 	cmncc	r3, pc, lsr #6
     570:	2d653034 	stclcs	0, cr3, [r5, #-208]!	; 0xffffff30
     574:	69773032 	ldmdbvs	r7!, {r1, r4, r5, ip, sp}^
     578:	696c2f6e 	stmdbvs	ip!, {r1, r2, r3, r5, r6, r8, r9, sl, fp, sp}^
     57c:	00697062 	rsbeq	r7, r9, r2, rrx
     580:	69727000 	ldmdbvs	r2!, {ip, sp, lr}^
     584:	2e6b746e 	cdpcs	4, 6, cr7, cr11, cr14, {3}
     588:	00010063 	andeq	r0, r1, r3, rrx
     58c:	64747300 	ldrbtvs	r7, [r4], #-768	; 0x300
     590:	2e677261 	cdpcs	2, 6, cr7, cr7, cr1, {3}
     594:	00020068 	andeq	r0, r2, r8, rrx
     598:	75623c00 	strbvc	r3, [r2, #-3072]!	; 0xc00
     59c:	2d746c69 	ldclcs	12, cr6, [r4, #-420]!	; 0xfffffe5c
     5a0:	003e6e69 	eorseq	r6, lr, r9, ror #28
     5a4:	72000000 	andvc	r0, r0, #0
     5a8:	682e6970 	stmdavs	lr!, {r4, r5, r6, r8, fp, sp, lr}
     5ac:	00000300 	andeq	r0, r0, r0, lsl #6
     5b0:	702d6176 	eorvc	r6, sp, r6, ror r1
     5b4:	746e6972 	strbtvc	r6, [lr], #-2418	; 0x972
     5b8:	00682e6b 	rsbeq	r2, r8, fp, ror #28
     5bc:	00000001 	andeq	r0, r0, r1
     5c0:	90020500 	andls	r0, r2, r0, lsl #10
     5c4:	17000088 	strne	r0, [r0, -r8, lsl #1]
     5c8:	89bf4b6b 	ldmibhi	pc!, {r0, r1, r3, r5, r6, r8, r9, fp, lr}	; <UNPREDICTABLE>
     5cc:	01000e02 	tsteq	r0, r2, lsl #28
     5d0:	00008a01 	andeq	r8, r0, r1, lsl #20
     5d4:	72000200 	andvc	r0, r0, #0, 4
     5d8:	02000000 	andeq	r0, r0, #0
     5dc:	0d0efb01 	vstreq	d15, [lr, #-4]
     5e0:	01010100 	mrseq	r0, (UNDEF: 17)
     5e4:	00000001 	andeq	r0, r0, r1
     5e8:	01000001 	tsteq	r0, r1
     5ec:	6362696c 	cmnvs	r2, #108, 18	; 0x1b0000
     5f0:	73552f00 	cmpvc	r5, #0, 30
     5f4:	2f737265 	svccs	0x00737265
     5f8:	61697262 	cmnvs	r9, r2, ror #4
     5fc:	6e756a6e 	vsubvs.f32	s13, s10, s29
     600:	7365442f 	cmnvc	r5, #788529152	; 0x2f000000
     604:	706f746b 	rsbvc	r7, pc, fp, ror #8
     608:	6863732f 	stmdavs	r3!, {r0, r1, r2, r3, r5, r8, r9, ip, sp, lr}^
     60c:	2f6c6f6f 	svccs	0x006c6f6f
     610:	746e6957 	strbtvc	r6, [lr], #-2391	; 0x957
     614:	39317265 	ldmdbcc	r1!, {r0, r2, r5, r6, r9, ip, sp, lr}
     618:	432f3032 	teqmi	pc, #50	; 0x32
     61c:	30343153 	eorscc	r3, r4, r3, asr r1
     620:	73632f45 	cmnvc	r3, #276	; 0x114
     624:	65303431 	ldrvs	r3, [r0, #-1073]!	; 0x431
     628:	7730322d 	ldrvc	r3, [r0, -sp, lsr #4]!
     62c:	6c2f6e69 	stcvs	14, cr6, [pc], #-420	; 490 <_start-0x7b70>
     630:	69706269 	ldmdbvs	r0!, {r0, r3, r5, r6, r9, sp, lr}^
     634:	75700000 	ldrbvc	r0, [r0, #-0]!
     638:	61686374 	smcvs	34356	; 0x8634
     63c:	00632e72 	rsbeq	r2, r3, r2, ror lr
     640:	72000001 	andvc	r0, r0, #1
     644:	682e6970 	stmdavs	lr!, {r4, r5, r6, r8, fp, sp, lr}
     648:	00000200 	andeq	r0, r0, r0, lsl #4
     64c:	02050000 	andeq	r0, r5, #0
     650:	000088e8 	andeq	r8, r0, r8, ror #17
     654:	136b4a14 	cmnne	fp, #20, 20	; 0x14000
     658:	080213bc 	stmdaeq	r2, {r2, r3, r4, r5, r7, r8, r9, ip}
     65c:	96010100 	strls	r0, [r1], -r0, lsl #2
     660:	02000000 	andeq	r0, r0, #0
     664:	00006f00 	andeq	r6, r0, r0, lsl #30
     668:	fb010200 	blx	40e72 <__bss_end__+0x34b5a>
     66c:	01000d0e 	tsteq	r0, lr, lsl #26
     670:	00010101 	andeq	r0, r1, r1, lsl #2
     674:	00010000 	andeq	r0, r1, r0
     678:	696c0100 	stmdbvs	ip!, {r8}^
     67c:	2f006362 	svccs	0x00006362
     680:	72657355 	rsbvc	r7, r5, #1409286145	; 0x54000001
     684:	72622f73 	rsbvc	r2, r2, #460	; 0x1cc
     688:	6a6e6169 	bvs	1b98c34 <__bss_end__+0x1b8c91c>
     68c:	442f6e75 	strtmi	r6, [pc], #-3701	; 694 <_start-0x796c>
     690:	746b7365 	strbtvc	r7, [fp], #-869	; 0x365
     694:	732f706f 	teqvc	pc, #111	; 0x6f
     698:	6f6f6863 	svcvs	0x006f6863
     69c:	69572f6c 	ldmdbvs	r7, {r2, r3, r5, r6, r8, r9, sl, fp, sp}^
     6a0:	7265746e 	rsbvc	r7, r5, #1845493760	; 0x6e000000
     6a4:	30323931 	eorscc	r3, r2, r1, lsr r9
     6a8:	3153432f 	cmpcc	r3, pc, lsr #6
     6ac:	2f453034 	svccs	0x00453034
     6b0:	34317363 	ldrtcc	r7, [r1], #-867	; 0x363
     6b4:	322d6530 	eorcc	r6, sp, #48, 10	; 0xc000000
     6b8:	6e697730 	mcrvs	7, 3, r7, cr9, cr0, {1}
     6bc:	62696c2f 	rsbvs	r6, r9, #12032	; 0x2f00
     6c0:	00006970 	andeq	r6, r0, r0, ror r9
     6c4:	6b747570 	blvs	1d1dc8c <__bss_end__+0x1d11974>
     6c8:	0100632e 	tsteq	r0, lr, lsr #6
     6cc:	70720000 	rsbsvc	r0, r2, r0
     6d0:	00682e69 	rsbeq	r2, r8, r9, ror #28
     6d4:	00000002 	andeq	r0, r0, r2
     6d8:	24020500 	strcs	r0, [r2], #-1280	; 0x500
     6dc:	15000089 	strne	r0, [r0, #-137]	; 0x89
     6e0:	02002d4c 	andeq	r2, r0, #76, 26	; 0x1300
     6e4:	002f0204 	eoreq	r0, pc, r4, lsl #4
     6e8:	49020402 	stmdbmi	r2, {r1, sl}
     6ec:	01040200 	mrseq	r0, R12_usr
     6f0:	6b062e06 	blvs	18bf10 <__bss_end__+0x17fbf8>
     6f4:	01000602 	tsteq	r0, r2, lsl #12
     6f8:	0001de01 	andeq	sp, r1, r1, lsl #28
     6fc:	df000200 	svcle	0x00000200
     700:	02000000 	andeq	r0, r0, #0
     704:	0d0efb01 	vstreq	d15, [lr, #-4]
     708:	01010100 	mrseq	r0, (UNDEF: 17)
     70c:	00000001 	andeq	r0, r0, r1
     710:	01000001 	tsteq	r0, r1
     714:	6362696c 	cmnvs	r2, #108, 18	; 0x1b0000
     718:	73752f00 	cmnvc	r5, #0, 30
     71c:	6f6c2f72 	svcvs	0x006c2f72
     720:	2f6c6163 	svccs	0x006c6163
     724:	6c6c6543 	cfstr64vs	mvdx6, [ip], #-268	; 0xfffffef4
     728:	612f7261 	teqvs	pc, r1, ror #4
     72c:	6e2d6d72 	mcrvs	13, 1, r6, cr13, cr2, {3}
     730:	2d656e6f 	stclcs	14, cr6, [r5, #-444]!	; 0xfffffe44
     734:	69626165 	stmdbvs	r2!, {r0, r2, r5, r6, r8, sp, lr}^
     738:	382e342f 	stmdacc	lr!, {r0, r1, r2, r3, r5, sl, ip, sp}
     73c:	632d332e 	teqvs	sp, #-1207959552	; 0xb8000000
     740:	30373173 	eorscc	r3, r7, r3, ror r1
     744:	696c2f65 	stmdbvs	ip!, {r0, r2, r5, r6, r8, r9, sl, fp, sp}^
     748:	63672f62 	cmnvs	r7, #392	; 0x188
     74c:	72612f63 	rsbvc	r2, r1, #396	; 0x18c
     750:	6f6e2d6d 	svcvs	0x006e2d6d
     754:	652d656e 	strvs	r6, [sp, #-1390]!	; 0x56e
     758:	2f696261 	svccs	0x00696261
     75c:	2e382e34 	mrccs	14, 1, r2, cr8, cr4, {1}
     760:	6e692f33 	mcrvs	15, 3, r2, cr9, cr3, {1}
     764:	64756c63 	ldrbtvs	r6, [r5], #-3171	; 0xc63
     768:	552f0065 	strpl	r0, [pc, #-101]!	; 70b <_start-0x78f5>
     76c:	73726573 	cmnvc	r2, #482344960	; 0x1cc00000
     770:	6972622f 	ldmdbvs	r2!, {r0, r1, r2, r3, r5, r9, sp, lr}^
     774:	756a6e61 	strbvc	r6, [sl, #-3681]!	; 0xe61
     778:	65442f6e 	strbvs	r2, [r4, #-3950]	; 0xf6e
     77c:	6f746b73 	svcvs	0x00746b73
     780:	63732f70 	cmnvs	r3, #112, 30	; 0x1c0
     784:	6c6f6f68 	stclvs	15, cr6, [pc], #-416	; 5ec <_start-0x7a14>
     788:	6e69572f 	cdpvs	7, 6, cr5, cr9, cr15, {1}
     78c:	31726574 	cmncc	r2, r4, ror r5
     790:	2f303239 	svccs	0x00303239
     794:	34315343 	ldrtcc	r5, [r1], #-835	; 0x343
     798:	632f4530 	teqvs	pc, #48, 10	; 0xc000000
     79c:	30343173 	eorscc	r3, r4, r3, ror r1
     7a0:	30322d65 	eorscc	r2, r2, r5, ror #26
     7a4:	2f6e6977 	svccs	0x006e6977
     7a8:	7062696c 	rsbvc	r6, r2, ip, ror #18
     7ac:	76000069 	strvc	r0, [r0], -r9, rrx
     7b0:	72702d61 	rsbsvc	r2, r0, #6208	; 0x1840
     7b4:	6b746e69 	blvs	1d1c160 <__bss_end__+0x1d0fe48>
     7b8:	0100632e 	tsteq	r0, lr, lsr #6
     7bc:	74730000 	ldrbtvc	r0, [r3], #-0
     7c0:	67726164 	ldrbvs	r6, [r2, -r4, ror #2]!
     7c4:	0200682e 	andeq	r6, r0, #3014656	; 0x2e0000
     7c8:	70720000 	rsbsvc	r0, r2, r0
     7cc:	00682e69 	rsbeq	r2, r8, r9, ror #28
     7d0:	3c000003 	stccc	0, cr0, [r0], {3}
     7d4:	6c697562 	cfstr64vs	mvdx7, [r9], #-392	; 0xfffffe78
     7d8:	6e692d74 	mcrvs	13, 3, r2, cr9, cr4, {3}
     7dc:	0000003e 	andeq	r0, r0, lr, lsr r0
     7e0:	05000000 	streq	r0, [r0, #-0]
     7e4:	00895802 	addeq	r5, r9, r2, lsl #16
     7e8:	01260300 	teqeq	r6, r0, lsl #6
     7ec:	3113a501 	tstcc	r3, r1, lsl #10
     7f0:	0402002d 	streq	r0, [r2], #-45	; 0x2d
     7f4:	02002f02 	andeq	r2, r0, #2, 30
     7f8:	002d0204 	eoreq	r0, sp, r4, lsl #4
     7fc:	2f020402 	svccs	0x00020402
     800:	01040200 	mrseq	r0, R12_usr
     804:	304c4c2d 	subcc	r4, ip, sp, lsr #24
     808:	4f2f4b14 	svcmi	0x002f4b14
     80c:	02040200 	andeq	r0, r4, #0, 4
     810:	04020067 	streq	r0, [r2], #-103	; 0x67
     814:	4d4c6501 	cfstr64mi	mvdx6, [ip, #-4]
     818:	312fa030 	teqcc	pc, r0, lsr r0	; <UNPREDICTABLE>
     81c:	16260230 			; <UNDEFINED> instruction: 0x16260230
     820:	002c2d84 	eoreq	r2, ip, r4, lsl #27
     824:	30010402 	andcc	r0, r1, r2, lsl #8
     828:	01040200 	mrseq	r0, R12_usr
     82c:	00660633 	rsbeq	r0, r6, r3, lsr r6
     830:	2e010402 	cdpcs	4, 0, cr0, cr1, cr2, {0}
     834:	01040200 	mrseq	r0, R12_usr
     838:	67210806 	strvs	r0, [r1, -r6, lsl #16]!
     83c:	8273032f 	rsbshi	r0, r3, #-1140850688	; 0xbc000000
     840:	002e1303 	eoreq	r1, lr, r3, lsl #6
     844:	06010402 	streq	r0, [r1], -r2, lsl #8
     848:	0402002e 	streq	r0, [r2], #-46	; 0x2e
     84c:	6a9f0601 	bvs	fe7c2058 <__bss_end__+0xfe7b5d40>
     850:	2e67034b 	cdpcs	3, 6, cr0, cr7, cr11, {2}
     854:	002e2103 	eoreq	r2, lr, r3, lsl #2
     858:	06010402 	streq	r0, [r1], -r2, lsl #8
     85c:	0402002e 	streq	r0, [r2], #-46	; 0x2e
     860:	009f0601 	addseq	r0, pc, r1, lsl #12
     864:	6a010402 	bvs	41874 <__bss_end__+0x3555c>
     868:	a603f3d9 			; <UNDEFINED> instruction: 0xa603f3d9
     86c:	2f20087f 	svccs	0x0020087f
     870:	01040200 	mrseq	r0, R12_usr
     874:	d7064a06 	strle	r4, [r6, -r6, lsl #20]
     878:	da032f4b 	ble	cc5ac <__bss_end__+0xc0294>
     87c:	4c83f200 	sfmmi	f7, 1, [r3], {0}
     880:	2e0e0348 	cdpcs	3, 0, cr0, cr14, cr8, {2}
     884:	2f2e7503 	svccs	0x002e7503
     888:	2f4b842f 	svccs	0x004b842f
     88c:	30314d2d 	eorscc	r4, r1, sp, lsr #26
     890:	0200832f 	andeq	r8, r0, #-1140850688	; 0xbc000000
     894:	a22c0104 	eorge	r0, ip, #4, 2
     898:	01040200 	mrseq	r0, R12_usr
     89c:	d8064a06 	stmdale	r6, {r1, r2, r9, fp, lr}
     8a0:	03163602 	tsteq	r6, #2097152	; 0x200000
     8a4:	2108d60e 	tstcs	r8, lr, lsl #12
     8a8:	f331f330 	vcge.u<illegal width 64>	d15, d1, d16
     8ac:	4b30f330 	blmi	c3d574 <__bss_end__+0xc3125c>
     8b0:	0830f330 	ldmdaeq	r0!, {r4, r5, r8, r9, ip, sp, lr, pc}
     8b4:	002f3123 	eoreq	r3, pc, r3, lsr #2
     8b8:	65010402 	strvs	r0, [r1, #-1026]	; 0x402
     8bc:	02040200 	andeq	r0, r4, #0, 4
     8c0:	02004a06 	andeq	r4, r0, #24576	; 0x6000
     8c4:	03060104 	movweq	r0, #24836	; 0x6104
     8c8:	02006642 	andeq	r6, r0, #69206016	; 0x4200000
     8cc:	66060204 	strvs	r0, [r6], -r4, lsl #4
     8d0:	00c20306 	sbceq	r0, r2, r6, lsl #6
     8d4:	1002684a 	andne	r6, r2, sl, asr #16
     8d8:	43010100 	movwmi	r0, #4352	; 0x1100
     8dc:	02000000 	andeq	r0, r0, #0
     8e0:	00002900 	andeq	r2, r0, r0, lsl #18
     8e4:	fb010200 	blx	410ee <__bss_end__+0x34dd6>
     8e8:	01000d0e 	tsteq	r0, lr, lsl #26
     8ec:	00010101 	andeq	r0, r1, r1, lsl #2
     8f0:	00010000 	andeq	r0, r1, r0
     8f4:	73630100 	cmnvc	r3, #0, 2
     8f8:	65303431 	ldrvs	r3, [r0, #-1073]!	; 0x431
     8fc:	6372732d 	cmnvs	r2, #-1275068416	; 0xb4000000
     900:	61630000 	cmnvs	r3, r0
     904:	2e656863 	cdpcs	8, 6, cr6, cr5, cr3, {3}
     908:	00010063 	andeq	r0, r1, r3, rrx
     90c:	05000000 	streq	r0, [r0, #-0]
     910:	008e5002 	addeq	r5, lr, r2
     914:	30141400 	andscc	r1, r4, r0, lsl #8
     918:	31144e2f 	tstcc	r4, pc, lsr #28
     91c:	0004022f 	andeq	r0, r4, pc, lsr #4
     920:	00930101 	addseq	r0, r3, r1, lsl #2
     924:	00020000 	andeq	r0, r2, r0
     928:	0000007d 	andeq	r0, r0, sp, ror r0
     92c:	0efb0102 	cdpeq	1, 15, cr0, cr11, cr2, {0}
     930:	0101000d 	tsteq	r1, sp
     934:	00000101 	andeq	r0, r0, r1, lsl #2
     938:	00000100 	andeq	r0, r0, r0, lsl #2
     93c:	31736301 	cmncc	r3, r1, lsl #6
     940:	2d653034 	stclcs	0, cr3, [r5, #-208]!	; 0xffffff30
     944:	00637273 	rsbeq	r7, r3, r3, ror r2
     948:	6573552f 	ldrbvs	r5, [r3, #-1327]!	; 0x52f
     94c:	622f7372 	eorvs	r7, pc, #-939524095	; 0xc8000001
     950:	6e616972 	mcrvs	9, 3, r6, cr1, cr2, {3}
     954:	2f6e756a 	svccs	0x006e756a
     958:	6b736544 	blvs	1cd9e70 <__bss_end__+0x1ccdb58>
     95c:	2f706f74 	svccs	0x00706f74
     960:	6f686373 	svcvs	0x00686373
     964:	572f6c6f 	strpl	r6, [pc, -pc, ror #24]!
     968:	65746e69 	ldrbvs	r6, [r4, #-3689]!	; 0xe69
     96c:	32393172 	eorscc	r3, r9, #-2147483620	; 0x8000001c
     970:	53432f30 	movtpl	r2, #16176	; 0x3f30
     974:	45303431 	ldrmi	r3, [r0, #-1073]!	; 0x431
     978:	3173632f 	cmncc	r3, pc, lsr #6
     97c:	2d653034 	stclcs	0, cr3, [r5, #-208]!	; 0xffffff30
     980:	69773032 	ldmdbvs	r7!, {r1, r4, r5, ip, sp}^
     984:	696c2f6e 	stmdbvs	ip!, {r1, r2, r3, r5, r6, r8, r9, sl, fp, sp}^
     988:	00697062 	rsbeq	r7, r9, r2, rrx
     98c:	656c6300 	strbvs	r6, [ip, #-768]!	; 0x300
     990:	722d6e61 	eorvc	r6, sp, #1552	; 0x610
     994:	6f6f6265 	svcvs	0x006f6265
     998:	00632e74 	rsbeq	r2, r3, r4, ror lr
     99c:	72000001 	andvc	r0, r0, #1
     9a0:	682e6970 	stmdavs	lr!, {r4, r5, r6, r8, fp, sp, lr}
     9a4:	00000200 	andeq	r0, r0, r0, lsl #4
     9a8:	02050000 	andeq	r0, r5, #0
     9ac:	00008e70 	andeq	r8, r0, r0, ror lr
     9b0:	4b832f15 	blmi	fe0cc60c <__bss_end__+0xfe0c02f4>
     9b4:	01000602 	tsteq	r0, r2, lsl #12
     9b8:	00009a01 	andeq	r9, r0, r1, lsl #20
     9bc:	77000200 	strvc	r0, [r0, -r0, lsl #4]
     9c0:	02000000 	andeq	r0, r0, #0
     9c4:	0d0efb01 	vstreq	d15, [lr, #-4]
     9c8:	01010100 	mrseq	r0, (UNDEF: 17)
     9cc:	00000001 	andeq	r0, r0, r1
     9d0:	01000001 	tsteq	r0, r1
     9d4:	34317363 	ldrtcc	r7, [r1], #-867	; 0x363
     9d8:	732d6530 	teqvc	sp, #48, 10	; 0xc000000
     9dc:	2f006372 	svccs	0x00006372
     9e0:	72657355 	rsbvc	r7, r5, #1409286145	; 0x54000001
     9e4:	72622f73 	rsbvc	r2, r2, #460	; 0x1cc
     9e8:	6a6e6169 	bvs	1b98f94 <__bss_end__+0x1b8cc7c>
     9ec:	442f6e75 	strtmi	r6, [pc], #-3701	; 9f4 <_start-0x760c>
     9f0:	746b7365 	strbtvc	r7, [fp], #-869	; 0x365
     9f4:	732f706f 	teqvc	pc, #111	; 0x6f
     9f8:	6f6f6863 	svcvs	0x006f6863
     9fc:	69572f6c 	ldmdbvs	r7, {r2, r3, r5, r6, r8, r9, sl, fp, sp}^
     a00:	7265746e 	rsbvc	r7, r5, #1845493760	; 0x6e000000
     a04:	30323931 	eorscc	r3, r2, r1, lsr r9
     a08:	3153432f 	cmpcc	r3, pc, lsr #6
     a0c:	2f453034 	svccs	0x00453034
     a10:	34317363 	ldrtcc	r7, [r1], #-867	; 0x363
     a14:	322d6530 	eorcc	r6, sp, #48, 10	; 0xc000000
     a18:	6e697730 	mcrvs	7, 3, r7, cr9, cr0, {1}
     a1c:	62696c2f 	rsbvs	r6, r9, #12032	; 0x2f00
     a20:	00006970 	andeq	r6, r0, r0, ror r9
     a24:	61747363 	cmnvs	r4, r3, ror #6
     a28:	632e7472 	teqvs	lr, #1912602624	; 0x72000000
     a2c:	00000100 	andeq	r0, r0, r0, lsl #2
     a30:	2e697072 	mcrcs	0, 3, r7, cr9, cr2, {3}
     a34:	00020068 	andeq	r0, r2, r8, rrx
     a38:	05000000 	streq	r0, [r0, #-0]
     a3c:	008e9802 	addeq	r9, lr, r2, lsl #16
     a40:	010c0300 	mrseq	r0, LR_mon
     a44:	2d2f3132 	stfcss	f3, [pc, #-200]!	; 984 <_start-0x767c>
     a48:	0402002f 	streq	r0, [r2], #-47	; 0x2f
     a4c:	0f034901 	svceq	0x00034901
     a50:	06022f4a 	streq	r2, [r2], -sl, asr #30
     a54:	99010100 	stmdbls	r1, {r8}
     a58:	02000000 	andeq	r0, r0, #0
     a5c:	00007700 	andeq	r7, r0, r0, lsl #14
     a60:	fb010200 	blx	4126a <__bss_end__+0x34f52>
     a64:	01000d0e 	tsteq	r0, lr, lsl #26
     a68:	00010101 	andeq	r0, r1, r1, lsl #2
     a6c:	00010000 	andeq	r0, r1, r0
     a70:	73630100 	cmnvc	r3, #0, 2
     a74:	65303431 	ldrvs	r3, [r0, #-1073]!	; 0x431
     a78:	6372732d 	cmnvs	r2, #-1275068416	; 0xb4000000
     a7c:	73552f00 	cmpvc	r5, #0, 30
     a80:	2f737265 	svccs	0x00737265
     a84:	61697262 	cmnvs	r9, r2, ror #4
     a88:	6e756a6e 	vsubvs.f32	s13, s10, s29
     a8c:	7365442f 	cmnvc	r5, #788529152	; 0x2f000000
     a90:	706f746b 	rsbvc	r7, pc, fp, ror #8
     a94:	6863732f 	stmdavs	r3!, {r0, r1, r2, r3, r5, r8, r9, ip, sp, lr}^
     a98:	2f6c6f6f 	svccs	0x006c6f6f
     a9c:	746e6957 	strbtvc	r6, [lr], #-2391	; 0x957
     aa0:	39317265 	ldmdbcc	r1!, {r0, r2, r5, r6, r9, ip, sp, lr}
     aa4:	432f3032 	teqmi	pc, #50	; 0x32
     aa8:	30343153 	eorscc	r3, r4, r3, asr r1
     aac:	73632f45 	cmnvc	r3, #276	; 0x114
     ab0:	65303431 	ldrvs	r3, [r0, #-1073]!	; 0x431
     ab4:	7730322d 	ldrvc	r3, [r0, -sp, lsr #4]!
     ab8:	6c2f6e69 	stcvs	14, cr6, [pc], #-420	; 91c <_start-0x76e4>
     abc:	69706269 	ldmdbvs	r0!, {r0, r3, r5, r6, r9, sp, lr}^
     ac0:	65720000 	ldrbvs	r0, [r2, #-0]!
     ac4:	746f6f62 	strbtvc	r6, [pc], #-3938	; acc <_start-0x7534>
     ac8:	0100632e 	tsteq	r0, lr, lsr #6
     acc:	70720000 	rsbsvc	r0, r2, r0
     ad0:	00682e69 	rsbeq	r2, r8, r9, ror #28
     ad4:	00000002 	andeq	r0, r0, r2
     ad8:	cc020500 	cfstr32gt	mvfx0, [r2], {-0}
     adc:	0300008e 	movweq	r0, #142	; 0x8e
     ae0:	3114010d 	tstcc	r4, sp, lsl #2
     ae4:	2f15852f 	svccs	0x0015852f
     ae8:	672f4d4b 	strvs	r4, [pc, -fp, asr #26]!
     aec:	02675235 	rsbeq	r5, r7, #1342177283	; 0x50000003
     af0:	01010010 	tsteq	r1, r0, lsl r0
     af4:	000000a3 	andeq	r0, r0, r3, lsr #1
     af8:	00760002 	rsbseq	r0, r6, r2
     afc:	01020000 	mrseq	r0, (UNDEF: 2)
     b00:	000d0efb 	strdeq	r0, [sp], -fp
     b04:	01010101 	tsteq	r1, r1, lsl #2
     b08:	01000000 	mrseq	r0, (UNDEF: 0)
     b0c:	63010000 	movwvs	r0, #4096	; 0x1000
     b10:	30343173 	eorscc	r3, r4, r3, ror r1
     b14:	72732d65 	rsbsvc	r2, r3, #6464	; 0x1940
     b18:	552f0063 	strpl	r0, [pc, #-99]!	; abd <_start-0x7543>
     b1c:	73726573 	cmnvc	r2, #482344960	; 0x1cc00000
     b20:	6972622f 	ldmdbvs	r2!, {r0, r1, r2, r3, r5, r9, sp, lr}^
     b24:	756a6e61 	strbvc	r6, [sl, #-3681]!	; 0xe61
     b28:	65442f6e 	strbvs	r2, [r4, #-3950]	; 0xf6e
     b2c:	6f746b73 	svcvs	0x00746b73
     b30:	63732f70 	cmnvs	r3, #112, 30	; 0x1c0
     b34:	6c6f6f68 	stclvs	15, cr6, [pc], #-416	; 99c <_start-0x7664>
     b38:	6e69572f 	cdpvs	7, 6, cr5, cr9, cr15, {1}
     b3c:	31726574 	cmncc	r2, r4, ror r5
     b40:	2f303239 	svccs	0x00303239
     b44:	34315343 	ldrtcc	r5, [r1], #-835	; 0x343
     b48:	632f4530 	teqvs	pc, #48, 10	; 0xc000000
     b4c:	30343173 	eorscc	r3, r4, r3, ror r1
     b50:	30322d65 	eorscc	r2, r2, r5, ror #26
     b54:	2f6e6977 	svccs	0x006e6977
     b58:	7062696c 	rsbvc	r6, r2, ip, ror #18
     b5c:	74000069 	strvc	r0, [r0], #-105	; 0x69
     b60:	72656d69 	rsbvc	r6, r5, #6720	; 0x1a40
     b64:	0100632e 	tsteq	r0, lr, lsr #6
     b68:	70720000 	rsbsvc	r0, r2, r0
     b6c:	00682e69 	rsbeq	r2, r8, r9, ror #28
     b70:	00000002 	andeq	r0, r0, r2
     b74:	40020500 	andmi	r0, r2, r0, lsl #10
     b78:	1600008f 	strne	r0, [r0], -pc, lsl #1
     b7c:	002d2f14 	eoreq	r2, sp, r4, lsl pc
     b80:	06010402 	streq	r0, [r1], -r2, lsl #8
     b84:	316d062e 	cmncc	sp, lr, lsr #12
     b88:	324d4b2f 	subcc	r4, sp, #48128	; 0xbc00
     b8c:	4c4b3031 	mcrrmi	0, 3, r3, fp, cr1
     b90:	2f2f6a2f 	svccs	0x002f6a2f
     b94:	08022f84 	stmdaeq	r2, {r2, r7, r8, r9, sl, fp, sp}
     b98:	7f010100 	svcvc	0x00010100
     b9c:	02000001 	andeq	r0, r0, #1
     ba0:	0000ca00 	andeq	ip, r0, r0, lsl #20
     ba4:	fb010200 	blx	413ae <__bss_end__+0x35096>
     ba8:	01000d0e 	tsteq	r0, lr, lsl #26
     bac:	00010101 	andeq	r0, r1, r1, lsl #2
     bb0:	00010000 	andeq	r0, r1, r0
     bb4:	796d0100 	stmdbvc	sp!, {r8}^
     bb8:	6372732d 	cmnvs	r2, #-1275068416	; 0xb4000000
     bbc:	73552f00 	cmpvc	r5, #0, 30
     bc0:	2f737265 	svccs	0x00737265
     bc4:	61697262 	cmnvs	r9, r2, ror #4
     bc8:	6e756a6e 	vsubvs.f32	s13, s10, s29
     bcc:	7365442f 	cmnvc	r5, #788529152	; 0x2f000000
     bd0:	706f746b 	rsbvc	r7, pc, fp, ror #8
     bd4:	6863732f 	stmdavs	r3!, {r0, r1, r2, r3, r5, r8, r9, ip, sp, lr}^
     bd8:	2f6c6f6f 	svccs	0x006c6f6f
     bdc:	746e6957 	strbtvc	r6, [lr], #-2391	; 0x957
     be0:	39317265 	ldmdbcc	r1!, {r0, r2, r5, r6, r9, ip, sp, lr}
     be4:	432f3032 	teqmi	pc, #50	; 0x32
     be8:	30343153 	eorscc	r3, r4, r3, asr r1
     bec:	73632f45 	cmnvc	r3, #276	; 0x114
     bf0:	65303431 	ldrvs	r3, [r0, #-1073]!	; 0x431
     bf4:	7730322d 	ldrvc	r3, [r0, -sp, lsr #4]!
     bf8:	6c2f6e69 	stcvs	14, cr6, [pc], #-420	; a5c <_start-0x75a4>
     bfc:	69706269 	ldmdbvs	r0!, {r0, r3, r5, r6, r9, sp, lr}^
     c00:	3173632f 	cmncc	r3, pc, lsr #6
     c04:	2d653034 	stclcs	0, cr3, [r5, #-208]!	; 0xffffff30
     c08:	00637273 	rsbeq	r7, r3, r3, ror r2
     c0c:	6573552f 	ldrbvs	r5, [r3, #-1327]!	; 0x52f
     c10:	622f7372 	eorvs	r7, pc, #-939524095	; 0xc8000001
     c14:	6e616972 	mcrvs	9, 3, r6, cr1, cr2, {3}
     c18:	2f6e756a 	svccs	0x006e756a
     c1c:	6b736544 	blvs	1cda134 <__bss_end__+0x1ccde1c>
     c20:	2f706f74 	svccs	0x00706f74
     c24:	6f686373 	svcvs	0x00686373
     c28:	572f6c6f 	strpl	r6, [pc, -pc, ror #24]!
     c2c:	65746e69 	ldrbvs	r6, [r4, #-3689]!	; 0xe69
     c30:	32393172 	eorscc	r3, r9, #-2147483620	; 0x8000001c
     c34:	53432f30 	movtpl	r2, #16176	; 0x3f30
     c38:	45303431 	ldrmi	r3, [r0, #-1073]!	; 0x431
     c3c:	3173632f 	cmncc	r3, pc, lsr #6
     c40:	2d653034 	stclcs	0, cr3, [r5, #-208]!	; 0xffffff30
     c44:	69773032 	ldmdbvs	r7!, {r1, r4, r5, ip, sp}^
     c48:	696c2f6e 	stmdbvs	ip!, {r1, r2, r3, r5, r6, r8, r9, sl, fp, sp}^
     c4c:	00697062 	rsbeq	r7, r9, r2, rrx
     c50:	69706700 	ldmdbvs	r0!, {r8, r9, sl, sp, lr}^
     c54:	00632e6f 	rsbeq	r2, r3, pc, ror #28
     c58:	67000001 	strvs	r0, [r0, -r1]
     c5c:	2e6f6970 	mcrcs	9, 3, r6, cr15, cr0, {3}
     c60:	00020068 	andeq	r0, r2, r8, rrx
     c64:	69707200 	ldmdbvs	r0!, {r9, ip, sp, lr}^
     c68:	0300682e 	movweq	r6, #2094	; 0x82e
     c6c:	00000000 	andeq	r0, r0, r0
     c70:	8fc80205 	svchi	0x00c80205
     c74:	3e030000 	cdpcc	0, 0, cr0, cr3, cr0, {0}
     c78:	69504e01 	ldmdbvs	r0, {r0, r9, sl, fp, lr}^
     c7c:	67672108 	strbvs	r2, [r7, -r8, lsl #2]!
     c80:	67676767 	strbvs	r6, [r7, -r7, ror #14]!
     c84:	22084b32 	andcs	r4, r8, #51200	; 0xc800
     c88:	135131dc 	cmpne	r1, #220, 2	; 0x37
     c8c:	be30504e 	cdplt	0, 3, cr5, cr0, cr14, {2}
     c90:	4d135031 	ldcmi	0, cr5, [r3, #-196]	; 0xffffff3c
     c94:	4cc0304f 	stclmi	0, cr3, [r0], {79}	; 0x4f
     c98:	21086950 	tstcs	r8, r0, asr r9
     c9c:	67676767 	strbvs	r6, [r7, -r7, ror #14]!
     ca0:	4b326767 	blmi	c9aa44 <__bss_end__+0xc8e72c>
     ca4:	4ca32108 	stfmis	f2, [r3], #32
     ca8:	69842f50 	stmibvs	r4, {r4, r6, r8, r9, sl, fp, sp}
     cac:	03827503 	orreq	r7, r2, #12582912	; 0xc00000
     cb0:	304d2e0c 	subcc	r2, sp, ip, lsl #28
     cb4:	4d4c4b4e 	vstrmi	d20, [ip, #-312]	; 0xfffffec8
     cb8:	08696b6a 	stmdaeq	r9!, {r1, r3, r5, r6, r8, r9, fp, sp, lr}^
     cbc:	67676721 	strbvs	r6, [r7, -r1, lsr #14]!
     cc0:	32676767 	rsbcc	r6, r7, #27000832	; 0x19c0000
     cc4:	c022084b 	eorgt	r0, r2, fp, asr #16
     cc8:	4e135130 	mrcmi	1, 0, r5, cr3, cr0, {1}
     ccc:	18033050 	stmdane	r3, {r4, r6, ip, sp}
     cd0:	4c9f31ba 	ldfmis	f3, [pc], {186}	; 0xba
     cd4:	4e4d522f 	cdpmi	2, 4, cr5, cr13, cr15, {1}
     cd8:	4b674b2f 	blmi	19d399c <__bss_end__+0x19c7684>
     cdc:	4c676768 	stclmi	7, cr6, [r7], #-416	; 0xfffffe60
     ce0:	4b2f672f 	blmi	bda9a4 <__bss_end__+0xbce68c>
     ce4:	2f4e4c6e 	svccs	0x004e4c6e
     ce8:	684b674b 	stmdavs	fp, {r0, r1, r3, r6, r8, r9, sl, sp, lr}^
     cec:	2f4c6767 	svccs	0x004c6767
     cf0:	6d4b2f67 	stclvs	15, cr2, [fp, #-412]	; 0xfffffe64
     cf4:	4b2f4e4b 	blmi	bd4628 <__bss_end__+0xbc8310>
     cf8:	04020067 	streq	r0, [r2], #-103	; 0x67
     cfc:	06660601 	strbteq	r0, [r6], -r1, lsl #12
     d00:	002f9f68 	eoreq	r9, pc, r8, ror #30
     d04:	06010402 	streq	r0, [r1], -r2, lsl #8
     d08:	2f68064a 	svccs	0x0068064a
     d0c:	034a7303 	movteq	r7, #41731	; 0xa303
     d10:	4c4d2e0e 	mcrrmi	14, 0, r2, sp, cr14
     d14:	bc4b2f4e 	mcrrlt	15, 4, r2, fp, cr14
     d18:	000602bc 			; <UNDEFINED> instruction: 0x000602bc
     d1c:	01010101 	tsteq	r1, r1, lsl #2
     d20:	00020000 	andeq	r0, r2, r0
     d24:	000000ca 	andeq	r0, r0, sl, asr #1
     d28:	0efb0102 	cdpeq	1, 15, cr0, cr11, cr2, {0}
     d2c:	0101000d 	tsteq	r1, sp
     d30:	00000101 	andeq	r0, r0, r1, lsl #2
     d34:	00000100 	andeq	r0, r0, r0, lsl #2
     d38:	2d796d01 	ldclcs	13, cr6, [r9, #-4]!
     d3c:	00637273 	rsbeq	r7, r3, r3, ror r2
     d40:	6573552f 	ldrbvs	r5, [r3, #-1327]!	; 0x52f
     d44:	622f7372 	eorvs	r7, pc, #-939524095	; 0xc8000001
     d48:	6e616972 	mcrvs	9, 3, r6, cr1, cr2, {3}
     d4c:	2f6e756a 	svccs	0x006e756a
     d50:	6b736544 	blvs	1cda268 <__bss_end__+0x1ccdf50>
     d54:	2f706f74 	svccs	0x00706f74
     d58:	6f686373 	svcvs	0x00686373
     d5c:	572f6c6f 	strpl	r6, [pc, -pc, ror #24]!
     d60:	65746e69 	ldrbvs	r6, [r4, #-3689]!	; 0xe69
     d64:	32393172 	eorscc	r3, r9, #-2147483620	; 0x8000001c
     d68:	53432f30 	movtpl	r2, #16176	; 0x3f30
     d6c:	45303431 	ldrmi	r3, [r0, #-1073]!	; 0x431
     d70:	3173632f 	cmncc	r3, pc, lsr #6
     d74:	2d653034 	stclcs	0, cr3, [r5, #-208]!	; 0xffffff30
     d78:	69773032 	ldmdbvs	r7!, {r1, r4, r5, ip, sp}^
     d7c:	696c2f6e 	stmdbvs	ip!, {r1, r2, r3, r5, r6, r8, r9, sl, fp, sp}^
     d80:	2f697062 	svccs	0x00697062
     d84:	34317363 	ldrtcc	r7, [r1], #-867	; 0x363
     d88:	732d6530 	teqvc	sp, #48, 10	; 0xc000000
     d8c:	2f006372 	svccs	0x00006372
     d90:	72657355 	rsbvc	r7, r5, #1409286145	; 0x54000001
     d94:	72622f73 	rsbvc	r2, r2, #460	; 0x1cc
     d98:	6a6e6169 	bvs	1b99344 <__bss_end__+0x1b8d02c>
     d9c:	442f6e75 	strtmi	r6, [pc], #-3701	; da4 <_start-0x725c>
     da0:	746b7365 	strbtvc	r7, [fp], #-869	; 0x365
     da4:	732f706f 	teqvc	pc, #111	; 0x6f
     da8:	6f6f6863 	svcvs	0x006f6863
     dac:	69572f6c 	ldmdbvs	r7, {r2, r3, r5, r6, r8, r9, sl, fp, sp}^
     db0:	7265746e 	rsbvc	r7, r5, #1845493760	; 0x6e000000
     db4:	30323931 	eorscc	r3, r2, r1, lsr r9
     db8:	3153432f 	cmpcc	r3, pc, lsr #6
     dbc:	2f453034 	svccs	0x00453034
     dc0:	34317363 	ldrtcc	r7, [r1], #-867	; 0x363
     dc4:	322d6530 	eorcc	r6, sp, #48, 10	; 0xc000000
     dc8:	6e697730 	mcrvs	7, 3, r7, cr9, cr0, {1}
     dcc:	62696c2f 	rsbvs	r6, r9, #12032	; 0x2f00
     dd0:	00006970 	andeq	r6, r0, r0, ror r9
     dd4:	74726175 	ldrbtvc	r6, [r2], #-373	; 0x175
     dd8:	0100632e 	tsteq	r0, lr, lsr #6
     ddc:	70670000 	rsbvc	r0, r7, r0
     de0:	682e6f69 	stmdavs	lr!, {r0, r3, r5, r6, r8, r9, sl, fp, sp, lr}
     de4:	00000200 	andeq	r0, r0, r0, lsl #4
     de8:	2e697072 	mcrcs	0, 3, r7, cr9, cr2, {3}
     dec:	00030068 	andeq	r0, r3, r8, rrx
     df0:	05000000 	streq	r0, [r0, #-0]
     df4:	00956802 	addseq	r6, r5, r2, lsl #16
     df8:	01360300 	teqeq	r6, r0, lsl #6
     dfc:	6d673330 	stclvs	3, cr3, [r7, #-192]!	; 0xffffff40
     e00:	6730d830 			; <UNDEFINED> instruction: 0x6730d830
     e04:	67676767 	strbvs	r6, [r7, -r7, ror #14]!
     e08:	672f8668 	strvs	r8, [pc, -r8, ror #12]!
     e0c:	6767306a 	strbvs	r3, [r7, -sl, rrx]!
     e10:	6a672f69 	bvs	19ccbbc <__bss_end__+0x19c08a4>
     e14:	2fc1674c 	svccs	0x00c1674c
     e18:	682f302f 	stmdavs	pc!, {r0, r1, r2, r3, r5, ip, sp}	; <UNPREDICTABLE>
     e1c:	02023049 	andeq	r3, r2, #73	; 0x49
     e20:	c9010100 	stmdbgt	r1, {r8}
     e24:	02000000 	andeq	r0, r0, #0
     e28:	00009700 	andeq	r9, r0, r0, lsl #14
     e2c:	fb010200 	blx	41636 <__bss_end__+0x3531e>
     e30:	01000d0e 	tsteq	r0, lr, lsl #26
     e34:	00010101 	andeq	r0, r1, r1, lsl #2
     e38:	00010000 	andeq	r0, r1, r0
     e3c:	73630100 	cmnvc	r3, #0, 2
     e40:	65303431 	ldrvs	r3, [r0, #-1073]!	; 0x431
     e44:	746e692d 	strbtvc	r6, [lr], #-2349	; 0x92d
     e48:	75727265 	ldrbvc	r7, [r2, #-613]!	; 0x265
     e4c:	2f007470 	svccs	0x00007470
     e50:	72657355 	rsbvc	r7, r5, #1409286145	; 0x54000001
     e54:	72622f73 	rsbvc	r2, r2, #460	; 0x1cc
     e58:	6a6e6169 	bvs	1b99404 <__bss_end__+0x1b8d0ec>
     e5c:	442f6e75 	strtmi	r6, [pc], #-3701	; e64 <_start-0x719c>
     e60:	746b7365 	strbtvc	r7, [fp], #-869	; 0x365
     e64:	732f706f 	teqvc	pc, #111	; 0x6f
     e68:	6f6f6863 	svcvs	0x006f6863
     e6c:	69572f6c 	ldmdbvs	r7, {r2, r3, r5, r6, r8, r9, sl, fp, sp}^
     e70:	7265746e 	rsbvc	r7, r5, #1845493760	; 0x6e000000
     e74:	30323931 	eorscc	r3, r2, r1, lsr r9
     e78:	3153432f 	cmpcc	r3, pc, lsr #6
     e7c:	2f453034 	svccs	0x00453034
     e80:	34317363 	ldrtcc	r7, [r1], #-867	; 0x363
     e84:	322d6530 	eorcc	r6, sp, #48, 10	; 0xc000000
     e88:	6e697730 	mcrvs	7, 3, r7, cr9, cr0, {1}
     e8c:	62696c2f 	rsbvs	r6, r9, #12032	; 0x2f00
     e90:	00006970 	andeq	r6, r0, r0, ror r9
     e94:	65746e69 	ldrbvs	r6, [r4, #-3689]!	; 0xe69
     e98:	70757272 	rsbsvc	r7, r5, r2, ror r2
     e9c:	632d7374 	teqvs	sp, #116, 6	; 0xd0000001
     ea0:	0100632e 	tsteq	r0, lr, lsr #6
     ea4:	70720000 	rsbsvc	r0, r2, r0
     ea8:	00682e69 	rsbeq	r2, r8, r9, ror #28
     eac:	72000002 	andvc	r0, r0, #2
     eb0:	692d6970 	pushvs	{r4, r5, r6, r8, fp, sp, lr}
     eb4:	7265746e 	rsbvc	r7, r5, #1845493760	; 0x6e000000
     eb8:	74707572 	ldrbtvc	r7, [r0], #-1394	; 0x572
     ebc:	00682e73 	rsbeq	r2, r8, r3, ror lr
     ec0:	00000001 	andeq	r0, r0, r1
     ec4:	bc020500 	cfstr32lt	mvfx0, [r2], {-0}
     ec8:	03000096 	movweq	r0, #150	; 0x96
     ecc:	6731011a 			; <UNDEFINED> instruction: 0x6731011a
     ed0:	2e090367 	cdpcs	3, 0, cr0, cr9, cr7, {3}
     ed4:	002d2f83 	eoreq	r2, sp, r3, lsl #31
     ed8:	2f020402 	svccs	0x00020402
     edc:	02040200 	andeq	r0, r4, #0, 4
     ee0:	04020065 	streq	r0, [r2], #-101	; 0x65
     ee4:	062e0601 	strteq	r0, [lr], -r1, lsl #12
     ee8:	0267a04c 	rsbeq	sl, r7, #76	; 0x4c
     eec:	0101001c 	tsteq	r1, ip, lsl r0
     ef0:	000000a5 	andeq	r0, r0, r5, lsr #1
     ef4:	00910002 	addseq	r0, r1, r2
     ef8:	01020000 	mrseq	r0, (UNDEF: 2)
     efc:	000d0efb 	strdeq	r0, [sp], -fp
     f00:	01010101 	tsteq	r1, r1, lsl #2
     f04:	01000000 	mrseq	r0, (UNDEF: 0)
     f08:	63010000 	movwvs	r0, #4096	; 0x1000
     f0c:	30343173 	eorscc	r3, r4, r3, ror r1
     f10:	6e692d65 	cdpvs	13, 6, cr2, cr9, cr5, {3}
     f14:	72726574 	rsbsvc	r6, r2, #116, 10	; 0x1d000000
     f18:	00747075 	rsbseq	r7, r4, r5, ror r0
     f1c:	6573552f 	ldrbvs	r5, [r3, #-1327]!	; 0x52f
     f20:	622f7372 	eorvs	r7, pc, #-939524095	; 0xc8000001
     f24:	6e616972 	mcrvs	9, 3, r6, cr1, cr2, {3}
     f28:	2f6e756a 	svccs	0x006e756a
     f2c:	6b736544 	blvs	1cda444 <__bss_end__+0x1cce12c>
     f30:	2f706f74 	svccs	0x00706f74
     f34:	6f686373 	svcvs	0x00686373
     f38:	572f6c6f 	strpl	r6, [pc, -pc, ror #24]!
     f3c:	65746e69 	ldrbvs	r6, [r4, #-3689]!	; 0xe69
     f40:	32393172 	eorscc	r3, r9, #-2147483620	; 0x8000001c
     f44:	53432f30 	movtpl	r2, #16176	; 0x3f30
     f48:	45303431 	ldrmi	r3, [r0, #-1073]!	; 0x431
     f4c:	3173632f 	cmncc	r3, pc, lsr #6
     f50:	2d653034 	stclcs	0, cr3, [r5, #-208]!	; 0xffffff30
     f54:	69773032 	ldmdbvs	r7!, {r1, r4, r5, ip, sp}^
     f58:	696c2f6e 	stmdbvs	ip!, {r1, r2, r3, r5, r6, r8, r9, sl, fp, sp}^
     f5c:	00697062 	rsbeq	r7, r9, r2, rrx
     f60:	66656400 	strbtvs	r6, [r5], -r0, lsl #8
     f64:	746c7561 	strbtvc	r7, [ip], #-1377	; 0x561
     f68:	6e61682d 	cdpvs	8, 6, cr6, cr1, cr13, {1}
     f6c:	72656c64 	rsbvc	r6, r5, #100, 24	; 0x6400
     f70:	7461642d 	strbtvc	r6, [r1], #-1069	; 0x42d
     f74:	62612d61 	rsbvs	r2, r1, #6208	; 0x1840
     f78:	2e74726f 	cdpcs	2, 7, cr7, cr4, cr15, {3}
     f7c:	00010063 	andeq	r0, r1, r3, rrx
     f80:	69707200 	ldmdbvs	r0!, {r9, ip, sp, lr}^
     f84:	0200682e 	andeq	r6, r0, #3014656	; 0x2e0000
     f88:	00000000 	andeq	r0, r0, r0
     f8c:	98b80205 	ldmls	r8!, {r0, r2, r9}
     f90:	66130000 	ldrvs	r0, [r3], -r0
     f94:	01001c02 	tsteq	r0, r2, lsl #24
     f98:	0000a301 	andeq	sl, r0, r1, lsl #6
     f9c:	8f000200 	svchi	0x00000200
     fa0:	02000000 	andeq	r0, r0, #0
     fa4:	0d0efb01 	vstreq	d15, [lr, #-4]
     fa8:	01010100 	mrseq	r0, (UNDEF: 17)
     fac:	00000001 	andeq	r0, r0, r1
     fb0:	01000001 	tsteq	r0, r1
     fb4:	34317363 	ldrtcc	r7, [r1], #-867	; 0x363
     fb8:	692d6530 	pushvs	{r4, r5, r8, sl, sp, lr}
     fbc:	7265746e 	rsbvc	r7, r5, #1845493760	; 0x6e000000
     fc0:	74707572 	ldrbtvc	r7, [r0], #-1394	; 0x572
     fc4:	73552f00 	cmpvc	r5, #0, 30
     fc8:	2f737265 	svccs	0x00737265
     fcc:	61697262 	cmnvs	r9, r2, ror #4
     fd0:	6e756a6e 	vsubvs.f32	s13, s10, s29
     fd4:	7365442f 	cmnvc	r5, #788529152	; 0x2f000000
     fd8:	706f746b 	rsbvc	r7, pc, fp, ror #8
     fdc:	6863732f 	stmdavs	r3!, {r0, r1, r2, r3, r5, r8, r9, ip, sp, lr}^
     fe0:	2f6c6f6f 	svccs	0x006c6f6f
     fe4:	746e6957 	strbtvc	r6, [lr], #-2391	; 0x957
     fe8:	39317265 	ldmdbcc	r1!, {r0, r2, r5, r6, r9, ip, sp, lr}
     fec:	432f3032 	teqmi	pc, #50	; 0x32
     ff0:	30343153 	eorscc	r3, r4, r3, asr r1
     ff4:	73632f45 	cmnvc	r3, #276	; 0x114
     ff8:	65303431 	ldrvs	r3, [r0, #-1073]!	; 0x431
     ffc:	7730322d 	ldrvc	r3, [r0, -sp, lsr #4]!
    1000:	6c2f6e69 	stcvs	14, cr6, [pc], #-420	; e64 <_start-0x719c>
    1004:	69706269 	ldmdbvs	r0!, {r0, r3, r5, r6, r9, sp, lr}^
    1008:	65640000 	strbvs	r0, [r4, #-0]!
    100c:	6c756166 	ldfvse	f6, [r5], #-408	; 0xfffffe68
    1010:	61682d74 	smcvs	33492	; 0x82d4
    1014:	656c646e 	strbvs	r6, [ip, #-1134]!	; 0x46e
    1018:	72702d72 	rsbsvc	r2, r0, #7296	; 0x1c80
    101c:	74656665 	strbtvc	r6, [r5], #-1637	; 0x665
    1020:	632e6863 	teqvs	lr, #6488064	; 0x630000
    1024:	00000100 	andeq	r0, r0, r0, lsl #2
    1028:	2e697072 	mcrcs	0, 3, r7, cr9, cr2, {3}
    102c:	00020068 	andeq	r0, r2, r8, rrx
    1030:	05000000 	streq	r0, [r0, #-0]
    1034:	0098fc02 	addseq	pc, r8, r2, lsl #24
    1038:	02661300 	rsbeq	r1, r6, #0, 6
    103c:	0101001c 	tsteq	r1, ip, lsl r0
    1040:	000000a0 	andeq	r0, r0, r0, lsr #1
    1044:	008c0002 	addeq	r0, ip, r2
    1048:	01020000 	mrseq	r0, (UNDEF: 2)
    104c:	000d0efb 	strdeq	r0, [sp], -fp
    1050:	01010101 	tsteq	r1, r1, lsl #2
    1054:	01000000 	mrseq	r0, (UNDEF: 0)
    1058:	63010000 	movwvs	r0, #4096	; 0x1000
    105c:	30343173 	eorscc	r3, r4, r3, ror r1
    1060:	6e692d65 	cdpvs	13, 6, cr2, cr9, cr5, {3}
    1064:	72726574 	rsbsvc	r6, r2, #116, 10	; 0x1d000000
    1068:	00747075 	rsbseq	r7, r4, r5, ror r0
    106c:	6573552f 	ldrbvs	r5, [r3, #-1327]!	; 0x52f
    1070:	622f7372 	eorvs	r7, pc, #-939524095	; 0xc8000001
    1074:	6e616972 	mcrvs	9, 3, r6, cr1, cr2, {3}
    1078:	2f6e756a 	svccs	0x006e756a
    107c:	6b736544 	blvs	1cda594 <__bss_end__+0x1cce27c>
    1080:	2f706f74 	svccs	0x00706f74
    1084:	6f686373 	svcvs	0x00686373
    1088:	572f6c6f 	strpl	r6, [pc, -pc, ror #24]!
    108c:	65746e69 	ldrbvs	r6, [r4, #-3689]!	; 0xe69
    1090:	32393172 	eorscc	r3, r9, #-2147483620	; 0x8000001c
    1094:	53432f30 	movtpl	r2, #16176	; 0x3f30
    1098:	45303431 	ldrmi	r3, [r0, #-1073]!	; 0x431
    109c:	3173632f 	cmncc	r3, pc, lsr #6
    10a0:	2d653034 	stclcs	0, cr3, [r5, #-208]!	; 0xffffff30
    10a4:	69773032 	ldmdbvs	r7!, {r1, r4, r5, ip, sp}^
    10a8:	696c2f6e 	stmdbvs	ip!, {r1, r2, r3, r5, r6, r8, r9, sl, fp, sp}^
    10ac:	00697062 	rsbeq	r7, r9, r2, rrx
    10b0:	66656400 	strbtvs	r6, [r5], -r0, lsl #8
    10b4:	746c7561 	strbtvc	r7, [ip], #-1377	; 0x561
    10b8:	6e61682d 	cdpvs	8, 6, cr6, cr1, cr13, {1}
    10bc:	72656c64 	rsbvc	r6, r5, #100, 24	; 0x6400
    10c0:	7365722d 	cmnvc	r5, #-805306366	; 0xd0000002
    10c4:	632e7465 	teqvs	lr, #1694498816	; 0x65000000
    10c8:	00000100 	andeq	r0, r0, r0, lsl #2
    10cc:	2e697072 	mcrcs	0, 3, r7, cr9, cr2, {3}
    10d0:	00020068 	andeq	r0, r2, r8, rrx
    10d4:	05000000 	streq	r0, [r0, #-0]
    10d8:	00994002 	addseq	r4, r9, r2
    10dc:	02661300 	rsbeq	r1, r6, #0, 6
    10e0:	0101001c 	tsteq	r1, ip, lsl r0
    10e4:	000000a9 	andeq	r0, r0, r9, lsr #1
    10e8:	00950002 	addseq	r0, r5, r2
    10ec:	01020000 	mrseq	r0, (UNDEF: 2)
    10f0:	000d0efb 	strdeq	r0, [sp], -fp
    10f4:	01010101 	tsteq	r1, r1, lsl #2
    10f8:	01000000 	mrseq	r0, (UNDEF: 0)
    10fc:	63010000 	movwvs	r0, #4096	; 0x1000
    1100:	30343173 	eorscc	r3, r4, r3, ror r1
    1104:	6e692d65 	cdpvs	13, 6, cr2, cr9, cr5, {3}
    1108:	72726574 	rsbsvc	r6, r2, #116, 10	; 0x1d000000
    110c:	00747075 	rsbseq	r7, r4, r5, ror r0
    1110:	6573552f 	ldrbvs	r5, [r3, #-1327]!	; 0x52f
    1114:	622f7372 	eorvs	r7, pc, #-939524095	; 0xc8000001
    1118:	6e616972 	mcrvs	9, 3, r6, cr1, cr2, {3}
    111c:	2f6e756a 	svccs	0x006e756a
    1120:	6b736544 	blvs	1cda638 <__bss_end__+0x1cce320>
    1124:	2f706f74 	svccs	0x00706f74
    1128:	6f686373 	svcvs	0x00686373
    112c:	572f6c6f 	strpl	r6, [pc, -pc, ror #24]!
    1130:	65746e69 	ldrbvs	r6, [r4, #-3689]!	; 0xe69
    1134:	32393172 	eorscc	r3, r9, #-2147483620	; 0x8000001c
    1138:	53432f30 	movtpl	r2, #16176	; 0x3f30
    113c:	45303431 	ldrmi	r3, [r0, #-1073]!	; 0x431
    1140:	3173632f 	cmncc	r3, pc, lsr #6
    1144:	2d653034 	stclcs	0, cr3, [r5, #-208]!	; 0xffffff30
    1148:	69773032 	ldmdbvs	r7!, {r1, r4, r5, ip, sp}^
    114c:	696c2f6e 	stmdbvs	ip!, {r1, r2, r3, r5, r6, r8, r9, sl, fp, sp}^
    1150:	00697062 	rsbeq	r7, r9, r2, rrx
    1154:	66656400 	strbtvs	r6, [r5], -r0, lsl #8
    1158:	746c7561 	strbtvc	r7, [ip], #-1377	; 0x561
    115c:	6e61682d 	cdpvs	8, 6, cr6, cr1, cr13, {1}
    1160:	72656c64 	rsbvc	r6, r5, #100, 24	; 0x6400
    1164:	646e752d 	strbtvs	r7, [lr], #-1325	; 0x52d
    1168:	6e696665 	cdpvs	6, 6, cr6, cr9, cr5, {3}
    116c:	692d6465 	pushvs	{r0, r2, r5, r6, sl, sp, lr}
    1170:	2e74736e 	cdpcs	3, 7, cr7, cr4, cr14, {3}
    1174:	00010063 	andeq	r0, r1, r3, rrx
    1178:	69707200 	ldmdbvs	r0!, {r9, ip, sp, lr}^
    117c:	0200682e 	andeq	r6, r0, #3014656	; 0x2e0000
    1180:	00000000 	andeq	r0, r0, r0
    1184:	99840205 	stmibls	r4, {r0, r2, r9}
    1188:	66130000 	ldrvs	r0, [r3], -r0
    118c:	01001c02 	tsteq	r0, r2, lsl #24
    1190:	Address 0x0000000000001190 is out of bounds.


Disassembly of section .debug_str:

00000000 <.debug_str>:
   0:	657a6973 	ldrbvs	r6, [sl, #-2419]!	; 0x973
   4:	4700745f 	smlsdmi	r0, pc, r4, r7	; <UNPREDICTABLE>
   8:	45534650 	ldrbmi	r4, [r3, #-1616]	; 0x650
   c:	6700324c 	strvs	r3, [r0, -ip, asr #4]
  10:	5f6f6970 	svcpl	0x006f6970
  14:	30726c63 	rsbscc	r6, r2, r3, ror #24
  18:	72726500 	rsbsvc	r6, r2, #0, 10
  1c:	5f73726f 	svcpl	0x0073726f
  20:	61746166 	cmnvs	r4, r6, ror #2
  24:	00705f6c 	rsbseq	r5, r0, ip, ror #30
  28:	4c435047 	mcrrmi	0, 4, r5, r3, cr7
  2c:	66003052 			; <UNDEFINED> instruction: 0x66003052
  30:	5f747361 	svcpl	0x00747361
  34:	6f697067 	svcvs	0x00697067
  38:	6972775f 	ldmdbvs	r2!, {r0, r1, r2, r3, r4, r6, r8, r9, sl, ip, sp, lr}^
  3c:	61006574 	tstvs	r0, r4, ror r5
  40:	745f6d72 	ldrbvc	r6, [pc], #-3442	; 48 <_start-0x7fb8>
  44:	72656d69 	rsbvc	r6, r5, #6720	; 0x1a40
  48:	5741525f 	smlsldpl	r5, r1, pc, r2	; <UNPREDICTABLE>
  4c:	00515249 	subseq	r5, r1, r9, asr #4
  50:	74726175 	ldrbtvc	r6, [r2], #-373	; 0x175
  54:	696e695f 	stmdbvs	lr!, {r0, r1, r2, r3, r4, r6, r8, fp, sp, lr}^
  58:	61680074 	smcvs	32772	; 0x8004
  5c:	645f666c 	ldrbvs	r6, [pc], #-1644	; 64 <_start-0x7f9c>
  60:	79616c65 	stmdbvc	r1!, {r0, r2, r5, r6, sl, fp, sp, lr}^
  64:	6e6f6c00 	cdpvs	12, 6, cr6, cr15, cr0, {0}
  68:	6f6c2067 	svcvs	0x006c2067
  6c:	7520676e 	strvc	r6, [r0, #-1902]!	; 0x76e
  70:	6769736e 	strbvs	r7, [r9, -lr, ror #6]!
  74:	2064656e 	rsbcs	r6, r4, lr, ror #10
  78:	00746e69 	rsbseq	r6, r4, r9, ror #28
  7c:	75625f63 	strbvc	r5, [r2, #-3939]!	; 0xf63
  80:	61660066 	cmnvs	r6, r6, rrx
  84:	675f7473 			; <UNDEFINED> instruction: 0x675f7473
  88:	5f6f6970 	svcpl	0x006f6970
  8c:	5f746573 	svcpl	0x00746573
  90:	63006e6f 	movwvs	r6, #3695	; 0xe6f
  94:	6d655f71 	stclvs	15, cr5, [r5, #-452]!	; 0xfffffe3c
  98:	00797470 	rsbseq	r7, r9, r0, ror r4
  9c:	676e6f6c 	strbvs	r6, [lr, -ip, ror #30]!
  a0:	6e6f6c20 	cdpvs	12, 6, cr6, cr15, cr0, {1}
  a4:	6e692067 	cdpvs	0, 6, cr2, cr9, cr7, {3}
  a8:	656e0074 	strbvs	r0, [lr, #-116]!	; 0x74
  ac:	746e6576 	strbtvc	r6, [lr], #-1398	; 0x576
  b0:	77730073 			; <UNDEFINED> instruction: 0x77730073
  b4:	7261755f 	rsbvc	r7, r1, #398458880	; 0x17c00000
  b8:	65675f74 	strbvs	r5, [r7, #-3956]!	; 0xf74
  bc:	61003874 	tstvs	r0, r4, ror r8
  c0:	745f6d72 	ldrbvc	r6, [pc], #-3442	; c8 <_start-0x7f38>
  c4:	72656d69 	rsbvc	r6, r5, #6720	; 0x1a40
  c8:	6e6f435f 	mcrvs	3, 3, r4, cr15, cr15, {2}
  cc:	6c6f7274 	sfmvs	f7, 2, [pc], #-464	; ffffff04 <__bss_end__+0xffff3bec>
  d0:	53504700 	cmppl	r0, #0, 14
  d4:	00315445 	eorseq	r5, r1, r5, asr #8
  d8:	5f6d7261 	svcpl	0x006d7261
  dc:	656d6974 	strbvs	r6, [sp, #-2420]!	; 0x974
  e0:	6f4c5f72 	svcvs	0x004c5f72
  e4:	61006461 	tstvs	r0, r1, ror #8
  e8:	745f6d72 	ldrbvc	r6, [pc], #-3442	; f0 <_start-0x7f10>
  ec:	72656d69 	rsbvc	r6, r5, #6720	; 0x1a40
  f0:	7361425f 	cmnvc	r1, #-268435451	; 0xf0000005
  f4:	65640065 	strbvs	r0, [r4, #-101]!	; 0x65
  f8:	61625f76 	smcvs	9718	; 0x25f6
  fc:	65697272 	strbvs	r7, [r9, #-626]!	; 0x272
 100:	50470072 	subpl	r0, r7, r2, ror r0
 104:	3056454c 	subscc	r4, r6, ip, asr #10
 108:	4c504700 	mrrcmi	7, 0, r4, r0, cr0
 10c:	00315645 	eorseq	r5, r1, r5, asr #12
 110:	6d746f6e 	ldclvs	15, cr6, [r4, #-440]!	; 0xfffffe48
 114:	006e6961 	rsbeq	r6, lr, r1, ror #18
 118:	74736166 	ldrbtvc	r6, [r3], #-358	; 0x166
 11c:	6970675f 	ldmdbvs	r0!, {r0, r1, r2, r3, r4, r6, r8, r9, sl, sp, lr}^
 120:	65735f6f 	ldrbvs	r5, [r3, #-3951]!	; 0xf6f
 124:	666f5f74 	uqsub16vs	r5, pc, r4	; <UNPREDICTABLE>
 128:	72610066 	rsbvc	r0, r1, #102	; 0x66
 12c:	69745f6d 	ldmdbvs	r4!, {r0, r2, r3, r5, r6, r8, r9, sl, fp, ip, lr}^
 130:	5f72656d 	svcpl	0x0072656d
 134:	6b73614d 	blvs	1cd8670 <__bss_end__+0x1ccc358>
 138:	52496465 	subpl	r6, r9, #1694498816	; 0x65000000
 13c:	77730051 			; <UNDEFINED> instruction: 0x77730051
 140:	7261755f 	rsbvc	r7, r1, #398458880	; 0x17c00000
 144:	75705f74 	ldrbvc	r5, [r0, #-3956]!	; 0xf74
 148:	72003874 	andvc	r3, r0, #116, 16	; 0x740000
 14c:	725f6970 	subsvc	r6, pc, #112, 18	; 0x1c0000
 150:	74657365 	strbtvc	r7, [r5], #-869	; 0x365
 154:	7475705f 	ldrbtvc	r7, [r5], #-95	; 0x5f
 158:	50470063 	subpl	r0, r7, r3, rrx
 15c:	4c455346 	mcrrmi	3, 4, r5, r5, cr6
 160:	50470030 	subpl	r0, r7, r0, lsr r0
 164:	4c455346 	mcrrmi	3, 4, r5, r5, cr6
 168:	50470031 	subpl	r0, r7, r1, lsr r0
 16c:	4c455346 	mcrrmi	3, 4, r5, r5, cr6
 170:	50470033 	subpl	r0, r7, r3, lsr r0
 174:	4c455346 	mcrrmi	3, 4, r5, r5, cr6
 178:	50470034 	subpl	r0, r7, r4, lsr r0
 17c:	4c455346 	mcrrmi	3, 4, r5, r5, cr6
 180:	75630035 	strbvc	r0, [r3, #-53]!	; 0x35
 184:	765f7272 			; <UNDEFINED> instruction: 0x765f7272
 188:	65756c61 	ldrbvs	r6, [r5, #-3169]!	; 0xc61
 18c:	69706700 	ldmdbvs	r0!, {r8, r9, sl, sp, lr}^
 190:	76655f6f 	strbtvc	r5, [r5], -pc, ror #30
 194:	5f746e65 	svcpl	0x00746e65
 198:	61656c63 	cmnvs	r5, r3, ror #24
 19c:	5f5f0072 	svcpl	0x005f0072
 1a0:	434e5546 	movtmi	r5, #58694	; 0xe546
 1a4:	4e4f4954 	mcrmi	9, 2, r4, cr15, cr4, {2}
 1a8:	63005f5f 	movwvs	r5, #3935	; 0xf5f
 1ac:	656e5f71 	strbvs	r5, [lr, #-3953]!	; 0xf71
 1b0:	006d656c 	rsbeq	r6, sp, ip, ror #10
 1b4:	726f6873 	rsbvc	r6, pc, #7536640	; 0x730000
 1b8:	6e752074 	mrcvs	0, 3, r2, cr5, cr4, {3}
 1bc:	6e676973 	mcrvs	9, 3, r6, cr7, cr3, {3}
 1c0:	69206465 	stmdbvs	r0!, {r0, r2, r5, r6, sl, sp, lr}
 1c4:	7000746e 	andvc	r7, r0, lr, ror #8
 1c8:	00517475 	subseq	r7, r1, r5, ror r4
 1cc:	6f697067 	svcvs	0x00697067
 1d0:	6573665f 	ldrbvs	r6, [r3, #-1631]!	; 0x65f
 1d4:	4700306c 	strmi	r3, [r0, -ip, rrx]
 1d8:	524c4350 	subpl	r4, ip, #80, 6	; 0x40000001
 1dc:	6c630031 	stclvs	0, cr0, [r3], #-196	; 0xffffff3c
 1e0:	5f6e6165 	svcpl	0x006e6165
 1e4:	6f626572 	svcvs	0x00626572
 1e8:	7400746f 	strvc	r7, [r0], #-1135	; 0x46f
 1ec:	006c6961 	rsbeq	r6, ip, r1, ror #18
 1f0:	657a6973 	ldrbvs	r6, [sl, #-2419]!	; 0x973
 1f4:	65707974 	ldrbvs	r7, [r0, #-2420]!	; 0x974
 1f8:	5f716300 	svcpl	0x00716300
 1fc:	5f706f70 	svcpl	0x00706f70
 200:	626e6f6e 	rsbvs	r6, lr, #440	; 0x1b8
 204:	6b636f6c 	blvs	18dbfbc <__bss_end__+0x18cfca4>
 208:	6d726100 	ldfvse	f6, [r2, #-0]
 20c:	6d69745f 	cfstrdvs	mvd7, [r9, #-380]!	; 0xfffffe84
 210:	525f7265 	subspl	r7, pc, #1342177286	; 0x50000006
 214:	616f6c65 	cmnvs	pc, r5, ror #24
 218:	71630064 	cmnvc	r3, r4, rrx
 21c:	696e695f 	stmdbvs	lr!, {r0, r1, r2, r3, r4, r6, r8, fp, sp, lr}^
 220:	79630074 	stmdbvc	r3!, {r2, r4, r5, r6}^
 224:	5f656c63 	svcpl	0x00656c63
 228:	6e756f63 	cdpvs	15, 7, cr6, cr5, cr3, {3}
 22c:	00726574 	rsbseq	r6, r2, r4, ror r5
 230:	5f746e69 	svcpl	0x00746e69
 234:	74696e69 	strbtvc	r6, [r9], #-3689	; 0xe69
 238:	756f5f00 	strbvc	r5, [pc, #-3840]!	; fffff340 <__bss_end__+0xffff3028>
 23c:	79730074 	ldmdbvc	r3!, {r2, r4, r5, r6}^
 240:	6d657473 	cfstrdvs	mvd7, [r5, #-460]!	; 0xfffffe34
 244:	616e655f 	cmnvs	lr, pc, asr r5
 248:	5f656c62 	svcpl	0x00656c62
 24c:	65746e69 	ldrbvs	r6, [r4, #-3689]!	; 0xe69
 250:	70757272 	rsbsvc	r7, r5, r2, ror r2
 254:	69007374 	stmdbvs	r0, {r2, r4, r5, r6, r8, r9, ip, sp, lr}
 258:	72775f73 	rsbsvc	r5, r7, #460	; 0x1cc
 25c:	6e697469 	cdpvs	4, 6, cr7, cr9, cr9, {3}
 260:	61750067 	cmnvs	r5, r7, rrx
 264:	2f007472 	svccs	0x00007472
 268:	72657355 	rsbvc	r7, r5, #1409286145	; 0x54000001
 26c:	72622f73 	rsbvc	r2, r2, #460	; 0x1cc
 270:	6a6e6169 	bvs	1b9881c <__bss_end__+0x1b8c504>
 274:	442f6e75 	strtmi	r6, [pc], #-3701	; 27c <_start-0x7d84>
 278:	746b7365 	strbtvc	r7, [fp], #-869	; 0x365
 27c:	732f706f 	teqvc	pc, #111	; 0x6f
 280:	6f6f6863 	svcvs	0x006f6863
 284:	70532f6c 	subsvc	r2, r3, ip, ror #30
 288:	676e6972 			; <UNDEFINED> instruction: 0x676e6972
 28c:	30323931 	eorscc	r3, r2, r1, lsr r9
 290:	3253432f 	subscc	r4, r3, #-1140850688	; 0xbc000000
 294:	584c3034 	stmdapl	ip, {r2, r4, r5, ip, sp}^
 298:	3273632f 	rsbscc	r6, r3, #-1140850688	; 0xbc000000
 29c:	786c3034 	stmdavc	ip!, {r2, r4, r5, ip, sp}^
 2a0:	7330322d 	teqvc	r0, #-805306366	; 0xd0000002
 2a4:	6c2f7270 	sfmvs	f7, 4, [pc], #-448	; ec <_start-0x7f14>
 2a8:	2f736261 	svccs	0x00736261
 2ac:	6e692d34 	mcrvs	13, 3, r2, cr9, cr4, {1}
 2b0:	72726574 	rsbsvc	r6, r2, #116, 10	; 0x1d000000
 2b4:	2d747075 	ldclcs	0, cr7, [r4, #-468]!	; 0xfffffe2c
 2b8:	752d7773 	strvc	r7, [sp, #-1907]!	; 0x773
 2bc:	2f747261 	svccs	0x00747261
 2c0:	65696c63 	strbvs	r6, [r9, #-3171]!	; 0xc63
 2c4:	6d00746e 	cfstrsvs	mvf7, [r0, #-440]	; 0xfffffe48
 2c8:	77735f79 			; <UNDEFINED> instruction: 0x77735f79
 2cc:	7261755f 	rsbvc	r7, r1, #398458880	; 0x17c00000
 2d0:	00745f74 	rsbseq	r5, r4, r4, ror pc
 2d4:	69736e75 	ldmdbvs	r3!, {r0, r2, r4, r5, r6, r9, sl, fp, sp, lr}^
 2d8:	64656e67 	strbtvs	r6, [r5], #-3687	; 0xe67
 2dc:	61686320 	cmnvs	r8, r0, lsr #6
 2e0:	50470072 	subpl	r0, r7, r2, ror r0
 2e4:	30544553 	subscc	r4, r4, r3, asr r5
 2e8:	6f687300 	svcvs	0x00687300
 2ec:	69207472 	stmdbvs	r0!, {r1, r4, r5, r6, sl, ip, sp, lr}
 2f0:	6300746e 	movwvs	r7, #1134	; 0x46e
 2f4:	6f705f71 	svcvs	0x00705f71
 2f8:	71630070 	smcvc	12288	; 0x3000
 2fc:	00745f65 	rsbseq	r5, r4, r5, ror #30
 300:	64616568 	strbtvs	r6, [r1], #-1384	; 0x568
 304:	6c656400 	cfstrdvs	mvd6, [r5], #-0
 308:	6d5f7961 	ldclvs	9, cr7, [pc, #-388]	; 18c <_start-0x7e74>
 30c:	79630073 	stmdbvc	r3!, {r0, r1, r4, r5, r6}^
 310:	73656c63 	cmnvc	r5, #25344	; 0x6300
 314:	7265705f 	rsbvc	r7, r5, #95	; 0x5f
 318:	6365735f 	cmnvs	r5, #2080374785	; 0x7c000001
 31c:	75616200 	strbvc	r6, [r1, #-512]!	; 0x200
 320:	70670064 	rsbvc	r0, r7, r4, rrx
 324:	735f6f69 	cmpvc	pc, #420	; 0x1a4
 328:	00307465 	eorseq	r7, r0, r5, ror #8
 32c:	73726966 	cmnvc	r2, #1671168	; 0x198000
 330:	5f6e0074 	svcpl	0x006e0074
 334:	69736972 	ldmdbvs	r3!, {r1, r4, r5, r6, r8, fp, sp, lr}^
 338:	655f676e 	ldrbvs	r6, [pc, #-1902]	; fffffbd2 <__bss_end__+0xffff38ba>
 33c:	00656764 	rsbeq	r6, r5, r4, ror #14
 340:	20554e47 	subscs	r4, r5, r7, asr #28
 344:	2e342043 	cdpcs	0, 3, cr2, cr4, cr3, {2}
 348:	20332e38 	eorscs	r2, r3, r8, lsr lr
 34c:	70636d2d 	rsbvc	r6, r3, sp, lsr #26
 350:	72613d75 	rsbvc	r3, r1, #7488	; 0x1d40
 354:	3731316d 	ldrcc	r3, [r1, -sp, ror #2]!
 358:	667a6a36 			; <UNDEFINED> instruction: 0x667a6a36
 35c:	2d20732d 	stccs	3, cr7, [r0, #-180]!	; 0xffffff4c
 360:	6e75746d 	cdpvs	4, 7, cr7, cr5, cr13, {3}
 364:	72613d65 	rsbvc	r3, r1, #6464	; 0x1940
 368:	3731316d 	ldrcc	r3, [r1, -sp, ror #2]!
 36c:	667a6a36 			; <UNDEFINED> instruction: 0x667a6a36
 370:	2d20732d 	stccs	3, cr7, [r0, #-180]!	; 0xffffff4c
 374:	62646767 	rsbvs	r6, r4, #27000832	; 0x19c0000
 378:	674f2d20 	strbvs	r2, [pc, -r0, lsr #26]
 37c:	74732d20 	ldrbtvc	r2, [r3], #-3360	; 0xd20
 380:	6e673d64 	cdpvs	13, 6, cr3, cr7, cr4, {3}
 384:	20393975 	eorscs	r3, r9, r5, ror r9
 388:	7266662d 	rsbvc	r6, r6, #47185920	; 0x2d00000
 38c:	74736565 	ldrbtvc	r6, [r3], #-1381	; 0x565
 390:	69646e61 	stmdbvs	r4!, {r0, r5, r6, r9, sl, fp, sp, lr}^
 394:	6600676e 	strvs	r6, [r0], -lr, ror #14
 398:	65636e65 	strbvs	r6, [r3, #-3685]!	; 0xe65
 39c:	69706700 	ldmdbvs	r0!, {r8, r9, sl, sp, lr}^
 3a0:	65735f6f 	ldrbvs	r5, [r3, #-3951]!	; 0xf6f
 3a4:	6e695f74 	mcrvs	15, 3, r5, cr9, cr4, {3}
 3a8:	00747570 	rsbseq	r7, r4, r0, ror r5
 3ac:	61665f6e 	cmnvs	r6, lr, ror #30
 3b0:	6e696c6c 	cdpvs	12, 6, cr6, cr9, cr12, {3}
 3b4:	64655f67 	strbtvs	r5, [r5], #-3943	; 0xf67
 3b8:	6f006567 	svcvs	0x00006567
 3bc:	66726576 			; <UNDEFINED> instruction: 0x66726576
 3c0:	00776f6c 	rsbseq	r6, r7, ip, ror #30
 3c4:	7473616c 	ldrbtvc	r6, [r3], #-364	; 0x16c
 3c8:	5f716300 	svcpl	0x00716300
 3cc:	68737570 	ldmdavs	r3!, {r4, r5, r6, r8, sl, ip, sp, lr}^
 3d0:	6c2d3200 	sfmvs	f3, 4, [sp], #-0
 3d4:	6369676f 	cmnvs	r9, #29097984	; 0x1bc0000
 3d8:	616e612d 	cmnvs	lr, sp, lsr #2
 3dc:	657a796c 	ldrbvs	r7, [sl, #-2412]!	; 0x96c
 3e0:	00632e72 	rsbeq	r2, r3, r2, ror lr
 3e4:	5f6d7261 	svcpl	0x006d7261
 3e8:	656d6974 	strbvs	r6, [sp, #-2420]!	; 0x974
 3ec:	72505f72 	subsvc	r5, r0, #456	; 0x1c8
 3f0:	76694465 	strbtvc	r4, [r9], -r5, ror #8
 3f4:	72656469 	rsbvc	r6, r5, #1761607680	; 0x69000000
 3f8:	6d726100 	ldfvse	f6, [r2, #-0]
 3fc:	6d69745f 	cfstrdvs	mvd7, [r9, #-380]!	; 0xfffffe84
 400:	565f7265 	ldrbpl	r7, [pc], -r5, ror #4
 404:	65756c61 	ldrbvs	r6, [r5, #-3169]!	; 0xc61
 408:	6d726100 	ldfvse	f6, [r2, #-0]
 40c:	6d69745f 	cfstrdvs	mvd7, [r9, #-380]!	; 0xfffffe84
 410:	495f7265 	ldmdbmi	pc, {r0, r2, r5, r6, r9, ip, sp, lr}^	; <UNPREDICTABLE>
 414:	6c435152 	stfvse	f5, [r3], {82}	; 0x52
 418:	00726165 	rsbseq	r6, r2, r5, ror #2
 41c:	736d656d 	cmnvc	sp, #457179136	; 0x1b400000
 420:	67007465 	strvs	r7, [r0, -r5, ror #8]
 424:	5f6f6970 	svcpl	0x006f6970
 428:	5f746573 	svcpl	0x00746573
 42c:	7074756f 	rsbsvc	r7, r4, pc, ror #10
 430:	63007475 	movwvs	r7, #1141	; 0x475
 434:	00745f71 	rsbseq	r5, r4, r1, ror pc
 438:	62616e65 	rsbvs	r6, r1, #1616	; 0x650
 43c:	635f656c 	cmpvs	pc, #108, 10	; 0x1b000000
 440:	65686361 	strbvs	r6, [r8, #-865]!	; 0x361
 444:	69707200 	ldmdbvs	r0!, {r9, ip, sp, lr}^
 448:	6d72615f 	ldfvse	f6, [r2, #-380]!	; 0xfffffe84
 44c:	6d69745f 	cfstrdvs	mvd7, [r9, #-380]!	; 0xfffffe84
 450:	745f7265 	ldrbvc	r7, [pc], #-613	; 458 <_start-0x7ba8>
 454:	6e697500 	cdpvs	5, 6, cr7, cr9, cr0, {0}
 458:	745f3874 	ldrbvc	r3, [pc], #-2164	; 460 <_start-0x7ba0>
 45c:	69706700 	ldmdbvs	r0!, {r8, r9, sl, sp, lr}^
 460:	6e695f6f 	cdpvs	15, 6, cr5, cr9, cr15, {3}
 464:	61665f74 	smcvs	26100	; 0x65f4
 468:	6e696c6c 	cdpvs	12, 6, cr6, cr9, cr12, {3}
 46c:	64655f67 	strbtvs	r5, [r5], #-3943	; 0xf67
 470:	63006567 	movwvs	r6, #1383	; 0x567
 474:	656c6379 	strbvs	r6, [ip, #-889]!	; 0x379
 478:	7265705f 	rsbvc	r7, r5, #95	; 0x5f
 47c:	7469625f 	strbtvc	r6, [r9], #-607	; 0x25f
 480:	73797300 	cmnvc	r9, #0, 6
 484:	5f6d6574 	svcpl	0x006d6574
 488:	61736964 	cmnvs	r3, r4, ror #18
 48c:	5f656c62 	svcpl	0x00656c62
 490:	65746e69 	ldrbvs	r6, [r4, #-3689]!	; 0xe69
 494:	70757272 	rsbsvc	r7, r5, r2, ror r2
 498:	63007374 	movwvs	r7, #884	; 0x374
 49c:	75665f71 	strbvc	r5, [r6, #-3953]!	; 0xf71
 4a0:	61006c6c 	tstvs	r0, ip, ror #24
 4a4:	745f6d72 	ldrbvc	r6, [pc], #-3442	; 4ac <_start-0x7b54>
 4a8:	72656d69 	rsbvc	r6, r5, #6720	; 0x1a40
 4ac:	6572465f 	ldrbvs	r4, [r2, #-1631]!	; 0x65f
 4b0:	6e755265 	cdpvs	2, 7, cr5, cr5, cr5, {3}
 4b4:	676e696e 	strbvs	r6, [lr, -lr, ror #18]!
 4b8:	6e756f43 	cdpvs	15, 7, cr6, cr5, cr3, {2}
 4bc:	00726574 	rsbseq	r6, r2, r4, ror r5
 4c0:	6362696c 	cmnvs	r2, #108, 18	; 0x1b0000
 4c4:	6d656d2f 	stclvs	13, cr6, [r5, #-188]!	; 0xffffff44
 4c8:	2e746573 	mrccs	5, 3, r6, cr4, cr3, {3}
 4cc:	552f0063 	strpl	r0, [pc, #-99]!	; 471 <_start-0x7b8f>
 4d0:	73726573 	cmnvc	r2, #482344960	; 0x1cc00000
 4d4:	6972622f 	ldmdbvs	r2!, {r0, r1, r2, r3, r5, r9, sp, lr}^
 4d8:	756a6e61 	strbvc	r6, [sl, #-3681]!	; 0xe61
 4dc:	65442f6e 	strbvs	r2, [r4, #-3950]	; 0xf6e
 4e0:	6f746b73 	svcvs	0x00746b73
 4e4:	63732f70 	cmnvs	r3, #112, 30	; 0x1c0
 4e8:	6c6f6f68 	stclvs	15, cr6, [pc], #-416	; 350 <_start-0x7cb0>
 4ec:	6e69572f 	cdpvs	7, 6, cr5, cr9, cr15, {1}
 4f0:	31726574 	cmncc	r2, r4, ror r5
 4f4:	2f303239 	svccs	0x00303239
 4f8:	34315343 	ldrtcc	r5, [r1], #-835	; 0x343
 4fc:	632f4530 	teqvs	pc, #48, 10	; 0xc000000
 500:	30343173 	eorscc	r3, r4, r3, ror r1
 504:	30322d65 	eorscc	r2, r2, r5, ror #26
 508:	2f6e6977 	svccs	0x006e6977
 50c:	7062696c 	rsbvc	r6, r2, ip, ror #18
 510:	5f5f0069 	svcpl	0x005f0069
 514:	63756e67 	cmnvs	r5, #1648	; 0x670
 518:	5f61765f 	svcpl	0x0061765f
 51c:	7473696c 	ldrbtvc	r6, [r3], #-2412	; 0x96c
 520:	62696c00 	rsbvs	r6, r9, #0, 24
 524:	72702f63 	rsbsvc	r2, r0, #396	; 0x18c
 528:	6b746e69 	blvs	1d1bed4 <__bss_end__+0x1d0fbbc>
 52c:	7600632e 	strvc	r6, [r0], -lr, lsr #6
 530:	72705f61 	rsbsvc	r5, r0, #388	; 0x184
 534:	6b746e69 	blvs	1d1bee0 <__bss_end__+0x1d0fbc8>
 538:	765f5f00 	ldrbvc	r5, [pc], -r0, lsl #30
 53c:	696c5f61 	stmdbvs	ip!, {r0, r5, r6, r8, r9, sl, fp, ip, lr}^
 540:	61007473 	tstvs	r0, r3, ror r4
 544:	00736772 	rsbseq	r6, r3, r2, ror r7
 548:	70615f5f 	rsbvc	r5, r1, pc, asr pc
 54c:	72617500 	rsbvc	r7, r1, #0, 10
 550:	75705f74 	ldrbvc	r5, [r0, #-3956]!	; 0xf74
 554:	69006374 	stmdbvs	r0, {r2, r4, r5, r6, r8, r9, sp, lr}
 558:	7265746e 	rsbvc	r7, r5, #1845493760	; 0x6e000000
 55c:	5f6c616e 	svcpl	0x006c616e
 560:	63747570 	cmnvs	r4, #112, 10	; 0x1c000000
 564:	00726168 	rsbseq	r6, r2, r8, ror #2
 568:	5f697072 	svcpl	0x00697072
 56c:	63747570 	cmnvs	r4, #112, 10	; 0x1c000000
 570:	00726168 	rsbseq	r6, r2, r8, ror #2
 574:	6362696c 	cmnvs	r2, #108, 18	; 0x1b0000
 578:	7475702f 	ldrbtvc	r7, [r5], #-47	; 0x2f
 57c:	72616863 	rsbvc	r6, r1, #6488064	; 0x630000
 580:	7200632e 	andvc	r6, r0, #-1207959552	; 0xb8000000
 584:	735f6970 	cmpvc	pc, #112, 18	; 0x1c0000
 588:	705f7465 	subsvc	r7, pc, r5, ror #8
 58c:	00637475 	rsbeq	r7, r3, r5, ror r4
 590:	6362696c 	cmnvs	r2, #108, 18	; 0x1b0000
 594:	7475702f 	ldrbtvc	r7, [r5], #-47	; 0x2f
 598:	00632e6b 	rsbeq	r2, r3, fp, ror #28
 59c:	65746e69 	ldrbvs	r6, [r4, #-3689]!	; 0xe69
 5a0:	6c616e72 	stclvs	14, cr6, [r1], #-456	; 0xfffffe38
 5a4:	7475705f 	ldrbtvc	r7, [r5], #-95	; 0x5f
 5a8:	656e006b 	strbvs	r0, [lr, #-107]!	; 0x6b
 5ac:	00705f67 	rsbseq	r5, r0, r7, ror #30
 5b0:	65766572 	ldrbvs	r6, [r6, #-1394]!	; 0x572
 5b4:	00657372 	rsbeq	r7, r5, r2, ror r3
 5b8:	69647369 	stmdbvs	r4!, {r0, r3, r5, r6, r8, r9, ip, sp, lr}^
 5bc:	00746967 	rsbseq	r6, r4, r7, ror #18
 5c0:	73747570 	cmnvc	r4, #112, 10	; 0x1c000000
 5c4:	0070665f 	rsbseq	r6, r0, pc, asr r6
 5c8:	65736162 	ldrbvs	r6, [r3, #-354]!	; 0x162
 5cc:	67697300 	strbvs	r7, [r9, -r0, lsl #6]!
 5d0:	5f64656e 	svcpl	0x0064656e
 5d4:	696c0070 	stmdbvs	ip!, {r4, r5, r6}^
 5d8:	762f6362 	strtvc	r6, [pc], -r2, ror #6
 5dc:	72702d61 	rsbsvc	r2, r0, #6208	; 0x1840
 5e0:	6b746e69 	blvs	1d1bf8c <__bss_end__+0x1d0fc74>
 5e4:	7200632e 	andvc	r6, r0, #-1207959552	; 0xb8000000
 5e8:	735f6970 	cmpvc	pc, #112, 18	; 0x1c0000
 5ec:	6f5f7465 	svcvs	0x005f7465
 5f0:	75707475 	ldrbvc	r7, [r0, #-1141]!	; 0x475
 5f4:	69770074 	ldmdbvs	r7!, {r2, r4, r5, r6}^
 5f8:	00687464 	rsbeq	r7, r8, r4, ror #8
 5fc:	63747570 	cmnvs	r4, #112, 10	; 0x1c000000
 600:	0070665f 	rsbseq	r6, r0, pc, asr r6
 604:	74696d65 	strbtvc	r6, [r9], #-3429	; 0xd65
 608:	73696400 	cmnvc	r9, #0, 8
 60c:	656c6261 	strbvs	r6, [ip, #-609]!	; 0x261
 610:	6361635f 	cmnvs	r1, #2080374785	; 0x7c000001
 614:	63006568 	movwvs	r6, #1384	; 0x568
 618:	30343173 	eorscc	r3, r4, r3, ror r1
 61c:	72732d65 	rsbsvc	r2, r3, #6464	; 0x1940
 620:	61632f63 	cmnvs	r3, r3, ror #30
 624:	2e656863 	cdpcs	8, 6, cr6, cr5, cr3, {3}
 628:	70720063 	rsbsvc	r0, r2, r3, rrx
 62c:	65725f69 	ldrbvs	r5, [r2, #-3945]!	; 0xf69
 630:	746f6f62 	strbtvc	r6, [pc], #-3938	; 638 <_start-0x79c8>
 634:	31736300 	cmncc	r3, r0, lsl #6
 638:	2d653034 	stclcs	0, cr3, [r5, #-208]!	; 0xffffff30
 63c:	2f637273 	svccs	0x00637273
 640:	61656c63 	cmnvs	r5, r3, ror #24
 644:	65722d6e 	ldrbvs	r2, [r2, #-3438]!	; 0xd6e
 648:	746f6f62 	strbtvc	r6, [pc], #-3938	; 650 <_start-0x79b0>
 64c:	6300632e 	movwvs	r6, #814	; 0x32e
 650:	30343173 	eorscc	r3, r4, r3, ror r1
 654:	72732d65 	rsbsvc	r2, r3, #6464	; 0x1940
 658:	73632f63 	cmnvc	r3, #396	; 0x18c
 65c:	74726174 	ldrbtvc	r6, [r2], #-372	; 0x174
 660:	5f00632e 	svcpl	0x0000632e
 664:	7373625f 	cmnvc	r3, #-268435451	; 0xf0000005
 668:	6174735f 	cmnvs	r4, pc, asr r3
 66c:	5f5f7472 	svcpl	0x005f7472
 670:	625f5f00 	subsvs	r5, pc, #0, 30
 674:	655f7373 	ldrbvs	r7, [pc, #-883]	; 309 <_start-0x7cf7>
 678:	5f5f646e 	svcpl	0x005f646e
 67c:	73736200 	cmnvc	r3, #0, 4
 680:	646e655f 	strbtvs	r6, [lr], #-1375	; 0x55f
 684:	73635f00 	cmnvc	r3, #0, 30
 688:	74726174 	ldrbtvc	r6, [r2], #-372	; 0x174
 68c:	5f746100 	svcpl	0x00746100
 690:	72657375 	rsbvc	r7, r5, #-738197503	; 0xd4000001
 694:	76656c5f 			; <UNDEFINED> instruction: 0x76656c5f
 698:	50006c65 	andpl	r6, r0, r5, ror #24
 69c:	41505f4d 	cmpmi	r0, sp, asr #30
 6a0:	4f575353 	svcmi	0x00575353
 6a4:	63004452 	movwvs	r4, #1106	; 0x452
 6a8:	30343173 	eorscc	r3, r4, r3, ror r1
 6ac:	72732d65 	rsbsvc	r2, r3, #6464	; 0x1940
 6b0:	65722f63 	ldrbvs	r2, [r2, #-3939]!	; 0xf63
 6b4:	746f6f62 	strbtvc	r6, [pc], #-3938	; 6bc <_start-0x7944>
 6b8:	5000632e 	andpl	r6, r0, lr, lsr #6
 6bc:	53525f4d 	cmppl	r2, #308	; 0x134
 6c0:	575f4354 			; <UNDEFINED> instruction: 0x575f4354
 6c4:	47464352 	smlsldmi	r4, r6, r2, r3
 6c8:	4c55465f 	mrrcmi	6, 5, r4, r5, cr15
 6cc:	45525f4c 	ldrbmi	r5, [r2, #-3916]	; 0xf4c
 6d0:	00544553 	subseq	r4, r4, r3, asr r5
 6d4:	575f4d50 			; <UNDEFINED> instruction: 0x575f4d50
 6d8:	00474f44 	subeq	r4, r7, r4, asr #30
 6dc:	5f746573 	svcpl	0x00746573
 6e0:	72657375 	rsbvc	r7, r5, #-738197503	; 0xd4000001
 6e4:	76656c5f 			; <UNDEFINED> instruction: 0x76656c5f
 6e8:	50006c65 	andpl	r6, r0, r5, ror #24
 6ec:	32335455 	eorscc	r5, r3, #1426063360	; 0x55000000
 6f0:	5f4d5000 	svcpl	0x004d5000
 6f4:	43545352 	cmpmi	r4, #1207959553	; 0x48000001
 6f8:	73706300 	cmnvc	r0, #0, 6
 6fc:	69740072 	ldmdbvs	r4!, {r1, r4, r5, r6}^
 700:	5f72656d 	svcpl	0x0072656d
 704:	5f746567 	svcpl	0x00746567
 708:	63657375 	cmnvs	r5, #-738197503	; 0xd4000001
 70c:	7761725f 			; <UNDEFINED> instruction: 0x7761725f
 710:	6c656400 	cfstrdvs	mvd6, [r5], #-0
 714:	735f7961 	cmpvc	pc, #1589248	; 0x184000
 718:	63006365 	movwvs	r6, #869	; 0x365
 71c:	30343173 	eorscc	r3, r4, r3, ror r1
 720:	72732d65 	rsbsvc	r2, r3, #6464	; 0x1940
 724:	69742f63 	ldmdbvs	r4!, {r0, r1, r5, r6, r8, r9, sl, fp, sp}^
 728:	2e72656d 	cdpcs	5, 7, cr6, cr2, cr13, {3}
 72c:	45470063 	strbmi	r0, [r7, #-99]	; 0x63
 730:	00323354 	eorseq	r3, r2, r4, asr r3
 734:	6b636974 	blvs	18dad0c <__bss_end__+0x18ce9f4>
 738:	65640073 	strbvs	r0, [r4, #-115]!	; 0x73
 73c:	5f79616c 	svcpl	0x0079616c
 740:	6c637963 	stclvs	9, cr7, [r3], #-396	; 0xfffffe74
 744:	64007365 	strvs	r7, [r0], #-869	; 0x365
 748:	79616c65 	stmdbvc	r1!, {r0, r2, r5, r6, sl, fp, sp, lr}^
 74c:	0073755f 	rsbseq	r7, r3, pc, asr r5
 750:	656d6974 	strbvs	r6, [sp, #-2420]!	; 0x974
 754:	65675f72 	strbvs	r5, [r7, #-3954]!	; 0xf72
 758:	73755f74 	cmnvc	r5, #116, 30	; 0x1d0
 75c:	67006365 	strvs	r6, [r0, -r5, ror #6]
 760:	5f6f6970 	svcpl	0x006f6970
 764:	6e657665 	cdpvs	6, 6, cr7, cr5, cr5, {3}
 768:	65645f74 	strbvs	r5, [r4, #-3956]!	; 0xf74
 76c:	74636574 	strbtvc	r6, [r3], #-1396	; 0x574
 770:	70006465 	andvc	r6, r0, r5, ror #8
 774:	32337475 	eorscc	r7, r3, #1962934272	; 0x75000000
 778:	414e4500 	cmpmi	lr, r0, lsl #10
 77c:	5f454c42 	svcpl	0x00454c42
 780:	53515249 	cmppl	r1, #-1879048188	; 0x90000004
 784:	6900325f 	stmdbvs	r0, {r0, r1, r2, r3, r4, r6, r9, ip, sp}
 788:	70675f73 	rsbvc	r5, r7, r3, ror pc
 78c:	695f6f69 	ldmdbvs	pc, {r0, r3, r5, r6, r8, r9, sl, fp, sp, lr}^	; <UNPREDICTABLE>
 790:	4700746e 	strmi	r7, [r0, -lr, ror #8]
 794:	5f4f4950 	svcpl	0x004f4950
 798:	434e5546 	movtmi	r5, #58694	; 0xe546
 79c:	504e495f 	subpl	r4, lr, pc, asr r9
 7a0:	6d005455 	cfstrsvs	mvf5, [r0, #-340]	; 0xfffffeac
 7a4:	72732d79 	rsbsvc	r2, r3, #7744	; 0x1e40
 7a8:	70672f63 	rsbvc	r2, r7, r3, ror #30
 7ac:	632e6f69 	teqvs	lr, #420	; 0x1a4
 7b0:	746e6900 	strbtvc	r6, [lr], #-2304	; 0x900
 7b4:	73616d5f 	cmnvc	r1, #6080	; 0x17c0
 7b8:	6572006b 	ldrbvs	r0, [r2, #-107]!	; 0x6b
 7bc:	74735f67 	ldrbtvc	r5, [r3], #-3943	; 0xf67
 7c0:	67007461 	strvs	r7, [r0, -r1, ror #8]
 7c4:	5f6f6970 	svcpl	0x006f6970
 7c8:	00676572 	rsbeq	r6, r7, r2, ror r5
 7cc:	6f697067 	svcvs	0x00697067
 7d0:	6165725f 	cmnvs	r5, pc, asr r2
 7d4:	70670064 	rsbvc	r0, r7, r4, rrx
 7d8:	695f6f69 	ldmdbvs	pc, {r0, r3, r5, r6, r8, r9, sl, fp, sp, lr}^	; <UNPREDICTABLE>
 7dc:	725f746e 	subsvc	r7, pc, #1845493760	; 0x6e000000
 7e0:	6e697369 	cdpvs	3, 6, cr7, cr9, cr9, {3}
 7e4:	64655f67 	strbtvs	r5, [r5], #-3943	; 0xf67
 7e8:	67006567 	strvs	r6, [r0, -r7, ror #10]
 7ec:	5f6f6970 	svcpl	0x006f6970
 7f0:	5f746573 	svcpl	0x00746573
 7f4:	636e7566 	cmnvs	lr, #427819008	; 0x19800000
 7f8:	6e6f6974 	mcrvs	9, 3, r6, cr15, cr4, {3}
 7fc:	52504700 	subspl	r4, r0, #0, 14
 800:	00304e45 	eorseq	r4, r0, r5, asr #28
 804:	45525047 	ldrbmi	r5, [r2, #-71]	; 0x47
 808:	4900314e 	stmdbmi	r0, {r1, r2, r3, r6, r8, ip, sp}
 80c:	505f5152 	subspl	r5, pc, r2, asr r1	; <UNPREDICTABLE>
 810:	49444e45 	stmdbmi	r4, {r0, r2, r6, r9, sl, fp, lr}^
 814:	315f474e 	cmpcc	pc, lr, asr #14
 818:	51524900 	cmppl	r2, r0, lsl #18
 81c:	4e45505f 	mcrmi	0, 2, r5, cr5, cr15, {2}
 820:	474e4944 	strbmi	r4, [lr, -r4, asr #18]
 824:	6200325f 	andvs	r3, r0, #-268435451	; 0xf0000005
 828:	616d7469 	cmnvs	sp, r9, ror #8
 82c:	66006b73 			; <UNDEFINED> instruction: 0x66006b73
 830:	00636e75 	rsbeq	r6, r3, r5, ror lr
 834:	6f697067 	svcvs	0x00697067
 838:	676f745f 			; <UNDEFINED> instruction: 0x676f745f
 83c:	00656c67 	rsbeq	r6, r5, r7, ror #24
 840:	44455047 	strbmi	r5, [r5], #-71	; 0x47
 844:	47003053 	smlsdmi	r0, r3, r0, r3
 848:	53444550 	movtpl	r4, #17744	; 0x4550
 84c:	50470031 	subpl	r0, r7, r1, lsr r0
 850:	304e4546 	subcc	r4, lr, r6, asr #10
 854:	46504700 	ldrbmi	r4, [r0], -r0, lsl #14
 858:	00314e45 	eorseq	r4, r1, r5, asr #28
 85c:	4f495047 	svcmi	0x00495047
 860:	4e55465f 	mrcmi	6, 2, r4, cr5, cr15, {2}
 864:	554f5f43 	strbpl	r5, [pc, #-3907]	; fffff929 <__bss_end__+0xffff3611>
 868:	54555054 	ldrbpl	r5, [r5], #-84	; 0x54
 86c:	74656700 	strbtvc	r6, [r5], #-1792	; 0x700
 870:	67003233 	smladxvs	r0, r3, r2, r3
 874:	5f6f6970 	svcpl	0x006f6970
 878:	636e7566 	cmnvs	lr, #427819008	; 0x19800000
 87c:	4700745f 	smlsdmi	r0, pc, r4, r7	; <UNPREDICTABLE>
 880:	5f4f4950 	svcpl	0x004f4950
 884:	434e5546 	movtmi	r5, #58694	; 0xe546
 888:	544c415f 	strbpl	r4, [ip], #-351	; 0x15f
 88c:	50470030 	subpl	r0, r7, r0, lsr r0
 890:	465f4f49 	ldrbmi	r4, [pc], -r9, asr #30
 894:	5f434e55 	svcpl	0x00434e55
 898:	31544c41 	cmpcc	r4, r1, asr #24
 89c:	49504700 	ldmdbmi	r0, {r8, r9, sl, lr}^
 8a0:	55465f4f 	strbpl	r5, [r6, #-3919]	; 0xf4f
 8a4:	415f434e 	cmpmi	pc, lr, asr #6
 8a8:	0032544c 	eorseq	r5, r2, ip, asr #8
 8ac:	4f495047 	svcmi	0x00495047
 8b0:	4e55465f 	mrcmi	6, 2, r4, cr5, cr15, {2}
 8b4:	4c415f43 	mcrrmi	15, 4, r5, r1, cr3
 8b8:	47003354 	smlsdmi	r0, r4, r3, r3
 8bc:	5f4f4950 	svcpl	0x004f4950
 8c0:	434e5546 	movtmi	r5, #58694	; 0xe546
 8c4:	544c415f 	strbpl	r4, [ip], #-351	; 0x15f
 8c8:	50470034 	subpl	r0, r7, r4, lsr r0
 8cc:	465f4f49 	ldrbmi	r4, [pc], -r9, asr #30
 8d0:	5f434e55 	svcpl	0x00434e55
 8d4:	35544c41 	ldrbcc	r4, [r4, #-3137]	; 0xc41
 8d8:	67657200 	strbvs	r7, [r5, -r0, lsl #4]!
 8dc:	6c65735f 	stclvs	3, cr7, [r5], #-380	; 0xfffffe84
 8e0:	00746365 	rsbseq	r6, r4, r5, ror #6
 8e4:	5f585541 	svcpl	0x00585541
 8e8:	4d5f554d 	cfldr64mi	mvdx5, [pc, #-308]	; 7bc <_start-0x7844>
 8ec:	525f5243 	subspl	r5, pc, #805306372	; 0x30000004
 8f0:	41004745 	tstmi	r0, r5, asr #14
 8f4:	4d5f5855 	ldclmi	8, cr5, [pc, #-340]	; 7a8 <_start-0x7858>
 8f8:	4f495f55 	svcmi	0x00495f55
 8fc:	4745525f 	smlsldmi	r5, r5, pc, r2	; <UNPREDICTABLE>
 900:	58554100 	ldmdapl	r5, {r8, lr}^
 904:	5f554d5f 	svcpl	0x00554d5f
 908:	5f52534d 	svcpl	0x0052534d
 90c:	00474552 	subeq	r4, r7, r2, asr r5
 910:	74726175 	ldrbtvc	r6, [r2], #-373	; 0x175
 914:	6e61635f 	mcrvs	3, 3, r6, cr1, cr15, {2}
 918:	7465675f 	strbtvc	r6, [r5], #-1887	; 0x75f
 91c:	55410063 	strbpl	r0, [r1, #-99]	; 0x63
 920:	554d5f58 	strbpl	r5, [sp, #-3928]	; 0xf58
 924:	544e435f 	strbpl	r4, [lr], #-863	; 0x35f
 928:	45525f4c 	ldrbmi	r5, [r2, #-3916]	; 0xf4c
 92c:	61750047 	cmnvs	r5, r7, asr #32
 930:	685f7472 	ldmdavs	pc, {r1, r4, r5, r6, sl, ip, sp, lr}^	; <UNPREDICTABLE>
 934:	645f7361 	ldrbvs	r7, [pc], #-865	; 93c <_start-0x76c4>
 938:	00617461 	rsbeq	r7, r1, r1, ror #8
 93c:	5f585541 	svcpl	0x00585541
 940:	495f554d 	ldmdbmi	pc, {r0, r2, r3, r6, r8, sl, ip, lr}^	; <UNPREDICTABLE>
 944:	525f5245 	subspl	r5, pc, #1342177284	; 0x50000004
 948:	75004745 	strvc	r4, [r0, #-1861]	; 0x745
 94c:	5f747261 	svcpl	0x00747261
 950:	63746567 	cmnvs	r4, #432013312	; 0x19c00000
 954:	58554100 	ldmdapl	r5, {r8, lr}^
 958:	5f554d5f 	svcpl	0x00554d5f
 95c:	5f524949 	svcpl	0x00524949
 960:	00474552 	subeq	r4, r7, r2, asr r5
 964:	74726175 	ldrbtvc	r6, [r2], #-373	; 0x175
 968:	6e61635f 	mcrvs	3, 3, r6, cr1, cr15, {2}
 96c:	7475705f 	ldrbtvc	r7, [r5], #-95	; 0x5f
 970:	55410063 	strbpl	r0, [r1, #-99]	; 0x63
 974:	4e455f58 	mcrmi	15, 2, r5, cr5, cr8, {2}
 978:	454c4241 	strbmi	r4, [ip, #-577]	; 0x241
 97c:	55410053 	strbpl	r0, [r1, #-83]	; 0x53
 980:	52495f58 	subpl	r5, r9, #88, 30	; 0x160
 984:	55410051 	strbpl	r0, [r1, #-81]	; 0x51
 988:	554d5f58 	strbpl	r5, [sp, #-3928]	; 0xf58
 98c:	5541425f 	strbpl	r4, [r1, #-607]	; 0x25f
 990:	45525f44 	ldrbmi	r5, [r2, #-3908]	; 0xf44
 994:	55410047 	strbpl	r0, [r1, #-71]	; 0x47
 998:	554d5f58 	strbpl	r5, [sp, #-3928]	; 0xf58
 99c:	4154535f 	cmpmi	r4, pc, asr r3
 9a0:	45525f54 	ldrbmi	r5, [r2, #-3924]	; 0xf54
 9a4:	55410047 	strbpl	r0, [r1, #-71]	; 0x47
 9a8:	554d5f58 	strbpl	r5, [sp, #-3928]	; 0xf58
 9ac:	5243535f 	subpl	r5, r3, #2080374785	; 0x7c000001
 9b0:	48435441 	stmdami	r3, {r0, r6, sl, ip, lr}^
 9b4:	2d796d00 	ldclcs	13, cr6, [r9, #-0]
 9b8:	2f637273 	svccs	0x00637273
 9bc:	74726175 	ldrbtvc	r6, [r2], #-373	; 0x175
 9c0:	4100632e 	tstmi	r0, lr, lsr #6
 9c4:	4d5f5855 	ldclmi	8, cr5, [pc, #-340]	; 878 <_start-0x7788>
 9c8:	434c5f55 	movtmi	r5, #53077	; 0xcf55
 9cc:	45525f52 	ldrbmi	r5, [r2, #-3922]	; 0xf52
 9d0:	55410047 	strbpl	r0, [r1, #-71]	; 0x47
 9d4:	554d5f58 	strbpl	r5, [sp, #-3928]	; 0xf58
 9d8:	52534c5f 	subspl	r4, r3, #24320	; 0x5f00
 9dc:	4745525f 	smlsldmi	r5, r5, pc, r2	; <UNPREDICTABLE>
 9e0:	72617500 	rsbvc	r7, r1, #0, 10
 9e4:	65675f74 	strbvs	r5, [r7, #-3956]!	; 0xf74
 9e8:	615f6374 	cmpvs	pc, r4, ror r3	; <UNPREDICTABLE>
 9ec:	636e7973 	cmnvs	lr, #1884160	; 0x1cc000
 9f0:	51524900 	cmppl	r2, r0, lsl #18
 9f4:	6e65705f 	mcrvs	0, 3, r7, cr5, cr15, {2}
 9f8:	676e6964 	strbvs	r6, [lr, -r4, ror #18]!
 9fc:	4400325f 	strmi	r3, [r0], #-607	; 0x25f
 a00:	62617369 	rsbvs	r7, r1, #-1543503871	; 0xa4000001
 a04:	425f656c 	subsmi	r6, pc, #108, 10	; 0x1b000000
 a08:	63697361 	cmnvs	r9, #-2080374783	; 0x84000001
 a0c:	5152495f 	cmppl	r2, pc, asr r9
 a10:	49460073 	stmdbmi	r6, {r0, r1, r4, r5, r6}^
 a14:	6f635f51 	svcvs	0x00635f51
 a18:	6f72746e 	svcvs	0x0072746e
 a1c:	695f006c 	ldmdbvs	pc, {r2, r3, r5, r6}^	; <UNPREDICTABLE>
 a20:	7265746e 	rsbvc	r7, r5, #1845493760	; 0x6e000000
 a24:	74707572 	ldrbtvc	r7, [r0], #-1394	; 0x572
 a28:	6261745f 	rsbvs	r7, r1, #1593835520	; 0x5f000000
 a2c:	4900656c 	stmdbmi	r0, {r2, r3, r5, r6, r8, sl, sp, lr}
 a30:	625f5152 	subsvs	r5, pc, #-2147483628	; 0x80000014
 a34:	63697361 	cmnvs	r9, #-2080374783	; 0x84000001
 a38:	6e65705f 	mcrvs	0, 3, r7, cr5, cr15, {2}
 a3c:	676e6964 	strbvs	r6, [lr, -r4, ror #18]!
 a40:	616e4500 	cmnvs	lr, r0, lsl #10
 a44:	5f656c62 	svcpl	0x00656c62
 a48:	69736142 	ldmdbvs	r3!, {r1, r6, r8, sp, lr}^
 a4c:	52495f63 	subpl	r5, r9, #396	; 0x18c
 a50:	45007351 	strmi	r7, [r0, #-849]	; 0x351
 a54:	6c62616e 	stfvse	f6, [r2], #-440	; 0xfffffe48
 a58:	52495f65 	subpl	r5, r9, #404	; 0x194
 a5c:	315f7351 	cmpcc	pc, r1, asr r3	; <UNPREDICTABLE>
 a60:	616e4500 	cmnvs	lr, r0, lsl #10
 a64:	5f656c62 	svcpl	0x00656c62
 a68:	73515249 	cmpvc	r1, #-1879048188	; 0x90000004
 a6c:	5f00325f 	svcpl	0x0000325f
 a70:	65746e69 	ldrbvs	r6, [r4, #-3689]!	; 0xe69
 a74:	70757272 	rsbsvc	r7, r5, r2, ror r2
 a78:	61745f74 	cmnvs	r4, r4, ror pc
 a7c:	5f656c62 	svcpl	0x00656c62
 a80:	00646e65 	rsbeq	r6, r4, r5, ror #28
 a84:	34317363 	ldrtcc	r7, [r1], #-867	; 0x363
 a88:	692d6530 	pushvs	{r4, r5, r8, sl, sp, lr}
 a8c:	7265746e 	rsbvc	r7, r5, #1845493760	; 0x6e000000
 a90:	74707572 	ldrbtvc	r7, [r0], #-1394	; 0x572
 a94:	746e692f 	strbtvc	r6, [lr], #-2351	; 0x92f
 a98:	75727265 	ldrbvc	r7, [r2, #-613]!	; 0x265
 a9c:	2d737470 	cfldrdcs	mvd7, [r3, #-448]!	; 0xfffffe40
 aa0:	00632e63 	rsbeq	r2, r3, r3, ror #28
 aa4:	5f515249 	svcpl	0x00515249
 aa8:	65736142 	ldrbvs	r6, [r3, #-322]!	; 0x142
 aac:	73694400 	cmnvc	r9, #0, 8
 ab0:	656c6261 	strbvs	r6, [ip, #-609]!	; 0x261
 ab4:	5152495f 	cmppl	r2, pc, asr r9
 ab8:	00315f73 	eorseq	r5, r1, r3, ror pc
 abc:	61736944 	cmnvs	r3, r4, asr #18
 ac0:	5f656c62 	svcpl	0x00656c62
 ac4:	73515249 	cmpvc	r1, #-1879048188	; 0x90000004
 ac8:	6600325f 			; <UNDEFINED> instruction: 0x6600325f
 acc:	5f747361 	svcpl	0x00747361
 ad0:	65746e69 	ldrbvs	r6, [r4, #-3689]!	; 0xe69
 ad4:	70757272 	rsbsvc	r7, r5, r2, ror r2
 ad8:	65765f74 	ldrbvs	r5, [r6, #-3956]!	; 0xf74
 adc:	726f7463 	rsbvc	r7, pc, #1660944384	; 0x63000000
 ae0:	51524900 	cmppl	r2, r0, lsl #18
 ae4:	6e65705f 	mcrvs	0, 3, r7, cr5, cr15, {2}
 ae8:	676e6964 	strbvs	r6, [lr, -r4, ror #18]!
 aec:	6300315f 	movwvs	r3, #351	; 0x15f
 af0:	30343173 	eorscc	r3, r4, r3, ror r1
 af4:	6e692d65 	cdpvs	13, 6, cr2, cr9, cr5, {3}
 af8:	72726574 	rsbsvc	r6, r2, #116, 10	; 0x1d000000
 afc:	2f747075 	svccs	0x00747075
 b00:	61666564 	cmnvs	r6, r4, ror #10
 b04:	2d746c75 	ldclcs	12, cr6, [r4, #-468]!	; 0xfffffe2c
 b08:	646e6168 	strbtvs	r6, [lr], #-360	; 0x168
 b0c:	2d72656c 	cfldr64cs	mvdx6, [r2, #-432]!	; 0xfffffe50
 b10:	61746164 	cmnvs	r4, r4, ror #2
 b14:	6f62612d 	svcvs	0x0062612d
 b18:	632e7472 	teqvs	lr, #1912602624	; 0x72000000
 b1c:	74616400 	strbtvc	r6, [r1], #-1024	; 0x400
 b20:	62615f61 	rsbvs	r5, r1, #388	; 0x184
 b24:	5f74726f 	svcpl	0x0074726f
 b28:	74636576 	strbtvc	r6, [r3], #-1398	; 0x576
 b2c:	6300726f 	movwvs	r7, #623	; 0x26f
 b30:	30343173 	eorscc	r3, r4, r3, ror r1
 b34:	6e692d65 	cdpvs	13, 6, cr2, cr9, cr5, {3}
 b38:	72726574 	rsbsvc	r6, r2, #116, 10	; 0x1d000000
 b3c:	2f747075 	svccs	0x00747075
 b40:	61666564 	cmnvs	r6, r4, ror #10
 b44:	2d746c75 	ldclcs	12, cr6, [r4, #-468]!	; 0xfffffe2c
 b48:	646e6168 	strbtvs	r6, [lr], #-360	; 0x168
 b4c:	2d72656c 	cfldr64cs	mvdx6, [r2, #-432]!	; 0xfffffe50
 b50:	66657270 			; <UNDEFINED> instruction: 0x66657270
 b54:	68637465 	stmdavs	r3!, {r0, r2, r5, r6, sl, ip, sp, lr}^
 b58:	7000632e 	andvc	r6, r0, lr, lsr #6
 b5c:	65666572 	strbvs	r6, [r6, #-1394]!	; 0x572
 b60:	5f686374 	svcpl	0x00686374
 b64:	726f6261 	rsbvc	r6, pc, #268435462	; 0x10000006
 b68:	65765f74 	ldrbvs	r5, [r6, #-3956]!	; 0xf74
 b6c:	726f7463 	rsbvc	r7, pc, #1660944384	; 0x63000000
 b70:	73657200 	cmnvc	r5, #0, 4
 b74:	765f7465 	ldrbvc	r7, [pc], -r5, ror #8
 b78:	6f746365 	svcvs	0x00746365
 b7c:	73630072 	cmnvc	r3, #114	; 0x72
 b80:	65303431 	ldrvs	r3, [r0, #-1073]!	; 0x431
 b84:	746e692d 	strbtvc	r6, [lr], #-2349	; 0x92d
 b88:	75727265 	ldrbvc	r7, [r2, #-613]!	; 0x265
 b8c:	642f7470 	strtvs	r7, [pc], #-1136	; b94 <_start-0x746c>
 b90:	75616665 	strbvc	r6, [r1, #-1637]!	; 0x665
 b94:	682d746c 	stmdavs	sp!, {r2, r3, r5, r6, sl, ip, sp, lr}
 b98:	6c646e61 	stclvs	14, cr6, [r4], #-388	; 0xfffffe7c
 b9c:	722d7265 	eorvc	r7, sp, #1342177286	; 0x50000006
 ba0:	74657365 	strbtvc	r7, [r5], #-869	; 0x365
 ba4:	6300632e 	movwvs	r6, #814	; 0x32e
 ba8:	30343173 	eorscc	r3, r4, r3, ror r1
 bac:	6e692d65 	cdpvs	13, 6, cr2, cr9, cr5, {3}
 bb0:	72726574 	rsbsvc	r6, r2, #116, 10	; 0x1d000000
 bb4:	2f747075 	svccs	0x00747075
 bb8:	61666564 	cmnvs	r6, r4, ror #10
 bbc:	2d746c75 	ldclcs	12, cr6, [r4, #-468]!	; 0xfffffe2c
 bc0:	646e6168 	strbtvs	r6, [lr], #-360	; 0x168
 bc4:	2d72656c 	cfldr64cs	mvdx6, [r2, #-432]!	; 0xfffffe50
 bc8:	65646e75 	strbvs	r6, [r4, #-3701]!	; 0xe75
 bcc:	656e6966 	strbvs	r6, [lr, #-2406]!	; 0x966
 bd0:	6e692d64 	cdpvs	13, 6, cr2, cr9, cr4, {3}
 bd4:	632e7473 	teqvs	lr, #1929379840	; 0x73000000
 bd8:	646e7500 	strbtvs	r7, [lr], #-1280	; 0x500
 bdc:	6e696665 	cdpvs	6, 6, cr6, cr9, cr5, {3}
 be0:	695f6465 	ldmdbvs	pc, {r0, r2, r5, r6, sl, sp, lr}^	; <UNPREDICTABLE>
 be4:	7274736e 	rsbsvc	r7, r4, #-1207959551	; 0xb8000001
 be8:	69746375 	ldmdbvs	r4!, {r0, r2, r4, r5, r6, r8, r9, sp, lr}^
 bec:	765f6e6f 	ldrbvc	r6, [pc], -pc, ror #28
 bf0:	6f746365 	svcvs	0x00746365
 bf4:	Address 0x0000000000000bf4 is out of bounds.


Disassembly of section .debug_frame:

00000000 <.debug_frame>:
   0:	0000000c 	andeq	r0, r0, ip
   4:	ffffffff 			; <UNDEFINED> instruction: 0xffffffff
   8:	7c020001 	stcvc	0, cr0, [r2], {1}
   c:	000d0c0e 	andeq	r0, sp, lr, lsl #24
  10:	00000020 	andeq	r0, r0, r0, lsr #32
  14:	00000000 	andeq	r0, r0, r0
  18:	00008010 	andeq	r8, r0, r0, lsl r0
  1c:	000003a8 	andeq	r0, r0, r8, lsr #7
  20:	84200e42 	strthi	r0, [r0], #-3650	; 0xe42
  24:	86078508 	strhi	r8, [r7], -r8, lsl #10
  28:	88058706 	stmdahi	r5, {r1, r2, r8, r9, sl, pc}
  2c:	8a038904 	bhi	e2444 <__bss_end__+0xd612c>
  30:	00018e02 	andeq	r8, r1, r2, lsl #28
  34:	00000014 	andeq	r0, r0, r4, lsl r0
  38:	00000000 	andeq	r0, r0, r0
  3c:	000083b8 			; <UNDEFINED> instruction: 0x000083b8
  40:	00000050 	andeq	r0, r0, r0, asr r0
  44:	84080e42 	strhi	r0, [r8], #-3650	; 0xe42
  48:	00018e02 	andeq	r8, r1, r2, lsl #28
  4c:	0000001c 	andeq	r0, r0, ip, lsl r0
  50:	00000000 	andeq	r0, r0, r0
  54:	00008408 	andeq	r8, r0, r8, lsl #8
  58:	00000240 	andeq	r0, r0, r0, asr #4
  5c:	83180e42 	tsthi	r8, #1056	; 0x420
  60:	85058406 	strhi	r8, [r5, #-1030]	; 0x406
  64:	87038604 	strhi	r8, [r3, -r4, lsl #12]
  68:	00018e02 	andeq	r8, r1, r2, lsl #28
  6c:	00000014 	andeq	r0, r0, r4, lsl r0
  70:	00000000 	andeq	r0, r0, r0
  74:	00008648 	andeq	r8, r0, r8, asr #12
  78:	00000228 	andeq	r0, r0, r8, lsr #4
  7c:	84080e42 	strhi	r0, [r8], #-3650	; 0xe42
  80:	00018e02 	andeq	r8, r1, r2, lsl #28
  84:	0000000c 	andeq	r0, r0, ip
  88:	ffffffff 			; <UNDEFINED> instruction: 0xffffffff
  8c:	7c020001 	stcvc	0, cr0, [r2], {1}
  90:	000d0c0e 	andeq	r0, sp, lr, lsl #24
  94:	0000000c 	andeq	r0, r0, ip
  98:	00000084 	andeq	r0, r0, r4, lsl #1
  9c:	00008870 	andeq	r8, r0, r0, ror r8
  a0:	00000020 	andeq	r0, r0, r0, lsr #32
  a4:	0000000c 	andeq	r0, r0, ip
  a8:	ffffffff 			; <UNDEFINED> instruction: 0xffffffff
  ac:	7c020001 	stcvc	0, cr0, [r2], {1}
  b0:	000d0c0e 	andeq	r0, sp, lr, lsl #24
  b4:	00000024 	andeq	r0, r0, r4, lsr #32
  b8:	000000a4 	andeq	r0, r0, r4, lsr #1
  bc:	00008890 	muleq	r0, r0, r8
  c0:	00000058 	andeq	r0, r0, r8, asr r0
  c4:	80100e42 	andshi	r0, r0, r2, asr #28
  c8:	82038104 	andhi	r8, r3, #4, 2
  cc:	42018302 	andmi	r8, r1, #134217728	; 0x8000000
  d0:	07841c0e 	streq	r1, [r4, lr, lsl #24]
  d4:	058e0685 	streq	r0, [lr, #1669]	; 0x685
  d8:	00280e42 	eoreq	r0, r8, r2, asr #28
  dc:	0000000c 	andeq	r0, r0, ip
  e0:	ffffffff 			; <UNDEFINED> instruction: 0xffffffff
  e4:	7c020001 	stcvc	0, cr0, [r2], {1}
  e8:	000d0c0e 	andeq	r0, sp, lr, lsl #24
  ec:	00000014 	andeq	r0, r0, r4, lsl r0
  f0:	000000dc 	ldrdeq	r0, [r0], -ip
  f4:	000088e8 	andeq	r8, r0, r8, ror #17
  f8:	00000014 	andeq	r0, r0, r4, lsl r0
  fc:	84080e42 	strhi	r0, [r8], #-3650	; 0xe42
 100:	00018e02 	andeq	r8, r1, r2, lsl #28
 104:	0000000c 	andeq	r0, r0, ip
 108:	000000dc 	ldrdeq	r0, [r0], -ip
 10c:	000088fc 	strdeq	r8, [r0], -ip
 110:	00000018 	andeq	r0, r0, r8, lsl r0
 114:	0000000c 	andeq	r0, r0, ip
 118:	000000dc 	ldrdeq	r0, [r0], -ip
 11c:	00008914 	andeq	r8, r0, r4, lsl r9
 120:	00000010 	andeq	r0, r0, r0, lsl r0
 124:	0000000c 	andeq	r0, r0, ip
 128:	ffffffff 			; <UNDEFINED> instruction: 0xffffffff
 12c:	7c020001 	stcvc	0, cr0, [r2], {1}
 130:	000d0c0e 	andeq	r0, sp, lr, lsl #24
 134:	00000018 	andeq	r0, r0, r8, lsl r0
 138:	00000124 	andeq	r0, r0, r4, lsr #2
 13c:	00008924 	andeq	r8, r0, r4, lsr #18
 140:	00000034 	andeq	r0, r0, r4, lsr r0
 144:	83100e42 	tsthi	r0, #1056	; 0x420
 148:	85038404 	strhi	r8, [r3, #-1028]	; 0x404
 14c:	00018e02 	andeq	r8, r1, r2, lsl #28
 150:	0000000c 	andeq	r0, r0, ip
 154:	ffffffff 			; <UNDEFINED> instruction: 0xffffffff
 158:	7c020001 	stcvc	0, cr0, [r2], {1}
 15c:	000d0c0e 	andeq	r0, sp, lr, lsl #24
 160:	0000000c 	andeq	r0, r0, ip
 164:	00000150 	andeq	r0, r0, r0, asr r1
 168:	00008958 	andeq	r8, r0, r8, asr r9
 16c:	00000014 	andeq	r0, r0, r4, lsl r0
 170:	0000000c 	andeq	r0, r0, ip
 174:	00000150 	andeq	r0, r0, r0, asr r1
 178:	0000896c 	andeq	r8, r0, ip, ror #18
 17c:	0000002c 	andeq	r0, r0, ip, lsr #32
 180:	0000000c 	andeq	r0, r0, ip
 184:	00000150 	andeq	r0, r0, r0, asr r1
 188:	00008998 	muleq	r0, r8, r9
 18c:	00000040 	andeq	r0, r0, r0, asr #32
 190:	00000020 	andeq	r0, r0, r0, lsr #32
 194:	00000150 	andeq	r0, r0, r0, asr r1
 198:	000089d8 	ldrdeq	r8, [r0], -r8	; <UNPREDICTABLE>
 19c:	0000019c 	muleq	r0, ip, r1
 1a0:	84180e42 	ldrhi	r0, [r8], #-3650	; 0xe42
 1a4:	86058506 	strhi	r8, [r5], -r6, lsl #10
 1a8:	88038704 	stmdahi	r3, {r2, r8, r9, sl, pc}
 1ac:	42018e02 	andmi	r8, r1, #2, 28
 1b0:	0000580e 	andeq	r5, r0, lr, lsl #16
 1b4:	00000014 	andeq	r0, r0, r4, lsl r0
 1b8:	00000150 	andeq	r0, r0, r0, asr r1
 1bc:	00008b74 	andeq	r8, r0, r4, ror fp
 1c0:	00000054 	andeq	r0, r0, r4, asr r0
 1c4:	83080e42 	movwhi	r0, #36418	; 0x8e42
 1c8:	00018e02 	andeq	r8, r1, r2, lsl #28
 1cc:	00000028 	andeq	r0, r0, r8, lsr #32
 1d0:	00000150 	andeq	r0, r0, r0, asr r1
 1d4:	00008bc8 	andeq	r8, r0, r8, asr #23
 1d8:	00000288 	andeq	r0, r0, r8, lsl #5
 1dc:	84240e42 	strthi	r0, [r4], #-3650	; 0xe42
 1e0:	86088509 	strhi	r8, [r8], -r9, lsl #10
 1e4:	88068707 	stmdahi	r6, {r0, r1, r2, r8, r9, sl, pc}
 1e8:	8a048905 	bhi	122604 <__bss_end__+0x1162ec>
 1ec:	8e028b03 	vmlahi.f64	d8, d2, d3
 1f0:	b00e4201 	andlt	r4, lr, r1, lsl #4
 1f4:	00000001 	andeq	r0, r0, r1
 1f8:	0000000c 	andeq	r0, r0, ip
 1fc:	ffffffff 			; <UNDEFINED> instruction: 0xffffffff
 200:	7c020001 	stcvc	0, cr0, [r2], {1}
 204:	000d0c0e 	andeq	r0, sp, lr, lsl #24
 208:	0000000c 	andeq	r0, r0, ip
 20c:	000001f8 	strdeq	r0, [r0], -r8
 210:	00008e50 	andeq	r8, r0, r0, asr lr
 214:	00000010 	andeq	r0, r0, r0, lsl r0
 218:	0000000c 	andeq	r0, r0, ip
 21c:	000001f8 	strdeq	r0, [r0], -r8
 220:	00008e60 	andeq	r8, r0, r0, ror #28
 224:	00000010 	andeq	r0, r0, r0, lsl r0
 228:	0000000c 	andeq	r0, r0, ip
 22c:	ffffffff 			; <UNDEFINED> instruction: 0xffffffff
 230:	7c020001 	stcvc	0, cr0, [r2], {1}
 234:	000d0c0e 	andeq	r0, sp, lr, lsl #24
 238:	00000014 	andeq	r0, r0, r4, lsl r0
 23c:	00000228 	andeq	r0, r0, r8, lsr #4
 240:	00008e70 	andeq	r8, r0, r0, ror lr
 244:	00000028 	andeq	r0, r0, r8, lsr #32
 248:	83080e42 	movwhi	r0, #36418	; 0x8e42
 24c:	00018e02 	andeq	r8, r1, r2, lsl #28
 250:	0000000c 	andeq	r0, r0, ip
 254:	ffffffff 			; <UNDEFINED> instruction: 0xffffffff
 258:	7c020001 	stcvc	0, cr0, [r2], {1}
 25c:	000d0c0e 	andeq	r0, sp, lr, lsl #24
 260:	00000014 	andeq	r0, r0, r4, lsl r0
 264:	00000250 	andeq	r0, r0, r0, asr r2
 268:	00008e98 	muleq	r0, r8, lr
 26c:	00000034 	andeq	r0, r0, r4, lsr r0
 270:	83080e42 	movwhi	r0, #36418	; 0x8e42
 274:	00018e02 	andeq	r8, r1, r2, lsl #28
 278:	0000000c 	andeq	r0, r0, ip
 27c:	ffffffff 			; <UNDEFINED> instruction: 0xffffffff
 280:	7c020001 	stcvc	0, cr0, [r2], {1}
 284:	000d0c0e 	andeq	r0, sp, lr, lsl #24
 288:	0000000c 	andeq	r0, r0, ip
 28c:	00000278 	andeq	r0, r0, r8, ror r2
 290:	00008ecc 	andeq	r8, r0, ip, asr #29
 294:	00000018 	andeq	r0, r0, r8, lsl r0
 298:	0000000c 	andeq	r0, r0, ip
 29c:	00000278 	andeq	r0, r0, r8, ror r2
 2a0:	00008ee4 	andeq	r8, r0, r4, ror #29
 2a4:	00000014 	andeq	r0, r0, r4, lsl r0
 2a8:	00000014 	andeq	r0, r0, r4, lsl r0
 2ac:	00000278 	andeq	r0, r0, r8, ror r2
 2b0:	00008ef8 	strdeq	r8, [r0], -r8	; <UNPREDICTABLE>
 2b4:	00000048 	andeq	r0, r0, r8, asr #32
 2b8:	83080e42 	movwhi	r0, #36418	; 0x8e42
 2bc:	00018e02 	andeq	r8, r1, r2, lsl #28
 2c0:	0000000c 	andeq	r0, r0, ip
 2c4:	ffffffff 			; <UNDEFINED> instruction: 0xffffffff
 2c8:	7c020001 	stcvc	0, cr0, [r2], {1}
 2cc:	000d0c0e 	andeq	r0, sp, lr, lsl #24
 2d0:	0000000c 	andeq	r0, r0, ip
 2d4:	000002c0 	andeq	r0, r0, r0, asr #5
 2d8:	00008f40 	andeq	r8, r0, r0, asr #30
 2dc:	0000001c 	andeq	r0, r0, ip, lsl r0
 2e0:	00000014 	andeq	r0, r0, r4, lsl r0
 2e4:	000002c0 	andeq	r0, r0, r0, asr #5
 2e8:	00008f5c 	andeq	r8, r0, ip, asr pc
 2ec:	00000014 	andeq	r0, r0, r4, lsl r0
 2f0:	83080e42 	movwhi	r0, #36418	; 0x8e42
 2f4:	00018e02 	andeq	r8, r1, r2, lsl #28
 2f8:	00000014 	andeq	r0, r0, r4, lsl r0
 2fc:	000002c0 	andeq	r0, r0, r0, asr #5
 300:	00008f70 	andeq	r8, r0, r0, ror pc
 304:	0000000c 	andeq	r0, r0, ip
 308:	83080e42 	movwhi	r0, #36418	; 0x8e42
 30c:	00018e02 	andeq	r8, r1, r2, lsl #28
 310:	00000018 	andeq	r0, r0, r8, lsl r0
 314:	000002c0 	andeq	r0, r0, r0, asr #5
 318:	00008f7c 	andeq	r8, r0, ip, ror pc
 31c:	00000024 	andeq	r0, r0, r4, lsr #32
 320:	83100e42 	tsthi	r0, #1056	; 0x420
 324:	85038404 	strhi	r8, [r3, #-1028]	; 0x404
 328:	00018e02 	andeq	r8, r1, r2, lsl #28
 32c:	00000014 	andeq	r0, r0, r4, lsl r0
 330:	000002c0 	andeq	r0, r0, r0, asr #5
 334:	00008fa0 	andeq	r8, r0, r0, lsr #31
 338:	00000014 	andeq	r0, r0, r4, lsl r0
 33c:	83080e42 	movwhi	r0, #36418	; 0x8e42
 340:	00018e02 	andeq	r8, r1, r2, lsl #28
 344:	00000014 	andeq	r0, r0, r4, lsl r0
 348:	000002c0 	andeq	r0, r0, r0, asr #5
 34c:	00008fb4 			; <UNDEFINED> instruction: 0x00008fb4
 350:	00000014 	andeq	r0, r0, r4, lsl r0
 354:	83080e42 	movwhi	r0, #36418	; 0x8e42
 358:	00018e02 	andeq	r8, r1, r2, lsl #28
 35c:	0000000c 	andeq	r0, r0, ip
 360:	ffffffff 			; <UNDEFINED> instruction: 0xffffffff
 364:	7c020001 	stcvc	0, cr0, [r2], {1}
 368:	000d0c0e 	andeq	r0, sp, lr, lsl #24
 36c:	00000018 	andeq	r0, r0, r8, lsl r0
 370:	0000035c 	andeq	r0, r0, ip, asr r3
 374:	00008fc8 	andeq	r8, r0, r8, asr #31
 378:	000000d4 	ldrdeq	r0, [r0], -r4
 37c:	83100e42 	tsthi	r0, #1056	; 0x420
 380:	85038404 	strhi	r8, [r3, #-1028]	; 0x404
 384:	00018e02 	andeq	r8, r1, r2, lsl #28
 388:	00000014 	andeq	r0, r0, r4, lsl r0
 38c:	0000035c 	andeq	r0, r0, ip, asr r3
 390:	0000909c 	muleq	r0, ip, r0
 394:	00000038 	andeq	r0, r0, r8, lsr r0
 398:	83080e42 	movwhi	r0, #36418	; 0x8e42
 39c:	00018e02 	andeq	r8, r1, r2, lsl #28
 3a0:	00000014 	andeq	r0, r0, r4, lsl r0
 3a4:	0000035c 	andeq	r0, r0, ip, asr r3
 3a8:	000090d4 	ldrdeq	r9, [r0], -r4
 3ac:	00000038 	andeq	r0, r0, r8, lsr r0
 3b0:	83080e42 	movwhi	r0, #36418	; 0x8e42
 3b4:	00018e02 	andeq	r8, r1, r2, lsl #28
 3b8:	00000018 	andeq	r0, r0, r8, lsl r0
 3bc:	0000035c 	andeq	r0, r0, ip, asr r3
 3c0:	0000910c 	andeq	r9, r0, ip, lsl #2
 3c4:	000000cc 	andeq	r0, r0, ip, asr #1
 3c8:	83100e42 	tsthi	r0, #1056	; 0x420
 3cc:	85038404 	strhi	r8, [r3, #-1028]	; 0x404
 3d0:	00018e02 	andeq	r8, r1, r2, lsl #28
 3d4:	00000014 	andeq	r0, r0, r4, lsl r0
 3d8:	0000035c 	andeq	r0, r0, ip, asr r3
 3dc:	000091d8 	ldrdeq	r9, [r0], -r8
 3e0:	0000004c 	andeq	r0, r0, ip, asr #32
 3e4:	84080e42 	strhi	r0, [r8], #-3650	; 0xe42
 3e8:	00018e02 	andeq	r8, r1, r2, lsl #28
 3ec:	00000014 	andeq	r0, r0, r4, lsl r0
 3f0:	0000035c 	andeq	r0, r0, ip, asr r3
 3f4:	00009224 	andeq	r9, r0, r4, lsr #4
 3f8:	00000024 	andeq	r0, r0, r4, lsr #32
 3fc:	83080e42 	movwhi	r0, #36418	; 0x8e42
 400:	00018e02 	andeq	r8, r1, r2, lsl #28
 404:	00000018 	andeq	r0, r0, r8, lsl r0
 408:	0000035c 	andeq	r0, r0, ip, asr r3
 40c:	00009248 	andeq	r9, r0, r8, asr #4
 410:	000000d8 	ldrdeq	r0, [r0], -r8
 414:	84100e42 	ldrhi	r0, [r0], #-3650	; 0xe42
 418:	86038504 	strhi	r8, [r3], -r4, lsl #10
 41c:	00018e02 	andeq	r8, r1, r2, lsl #28
 420:	00000014 	andeq	r0, r0, r4, lsl r0
 424:	0000035c 	andeq	r0, r0, ip, asr r3
 428:	00009320 	andeq	r9, r0, r0, lsr #6
 42c:	00000038 	andeq	r0, r0, r8, lsr r0
 430:	83080e42 	movwhi	r0, #36418	; 0x8e42
 434:	00018e02 	andeq	r8, r1, r2, lsl #28
 438:	00000014 	andeq	r0, r0, r4, lsl r0
 43c:	0000035c 	andeq	r0, r0, ip, asr r3
 440:	00009358 	andeq	r9, r0, r8, asr r3
 444:	0000002c 	andeq	r0, r0, ip, lsr #32
 448:	83080e42 	movwhi	r0, #36418	; 0x8e42
 44c:	00018e02 	andeq	r8, r1, r2, lsl #28
 450:	00000018 	andeq	r0, r0, r8, lsl r0
 454:	0000035c 	andeq	r0, r0, ip, asr r3
 458:	00009384 	andeq	r9, r0, r4, lsl #7
 45c:	00000084 	andeq	r0, r0, r4, lsl #1
 460:	83100e42 	tsthi	r0, #1056	; 0x420
 464:	85038404 	strhi	r8, [r3, #-1028]	; 0x404
 468:	00018e02 	andeq	r8, r1, r2, lsl #28
 46c:	00000018 	andeq	r0, r0, r8, lsl r0
 470:	0000035c 	andeq	r0, r0, ip, asr r3
 474:	00009408 	andeq	r9, r0, r8, lsl #8
 478:	00000084 	andeq	r0, r0, r4, lsl #1
 47c:	83100e42 	tsthi	r0, #1056	; 0x420
 480:	85038404 	strhi	r8, [r3, #-1028]	; 0x404
 484:	00018e02 	andeq	r8, r1, r2, lsl #28
 488:	00000014 	andeq	r0, r0, r4, lsl r0
 48c:	0000035c 	andeq	r0, r0, ip, asr r3
 490:	0000948c 	andeq	r9, r0, ip, lsl #9
 494:	00000084 	andeq	r0, r0, r4, lsl #1
 498:	84080e42 	strhi	r0, [r8], #-3650	; 0xe42
 49c:	00018e02 	andeq	r8, r1, r2, lsl #28
 4a0:	00000014 	andeq	r0, r0, r4, lsl r0
 4a4:	0000035c 	andeq	r0, r0, ip, asr r3
 4a8:	00009510 	andeq	r9, r0, r0, lsl r5
 4ac:	00000058 	andeq	r0, r0, r8, asr r0
 4b0:	84080e42 	strhi	r0, [r8], #-3650	; 0xe42
 4b4:	00018e02 	andeq	r8, r1, r2, lsl #28
 4b8:	0000000c 	andeq	r0, r0, ip
 4bc:	ffffffff 			; <UNDEFINED> instruction: 0xffffffff
 4c0:	7c020001 	stcvc	0, cr0, [r2], {1}
 4c4:	000d0c0e 	andeq	r0, sp, lr, lsl #24
 4c8:	00000018 	andeq	r0, r0, r8, lsl r0
 4cc:	000004b8 			; <UNDEFINED> instruction: 0x000004b8
 4d0:	00009568 	andeq	r9, r0, r8, ror #10
 4d4:	0000009c 	muleq	r0, ip, r0
 4d8:	83100e42 	tsthi	r0, #1056	; 0x420
 4dc:	85038404 	strhi	r8, [r3, #-1028]	; 0x404
 4e0:	00018e02 	andeq	r8, r1, r2, lsl #28
 4e4:	00000014 	andeq	r0, r0, r4, lsl r0
 4e8:	000004b8 			; <UNDEFINED> instruction: 0x000004b8
 4ec:	00009604 	andeq	r9, r0, r4, lsl #12
 4f0:	0000001c 	andeq	r0, r0, ip, lsl r0
 4f4:	83080e42 	movwhi	r0, #36418	; 0x8e42
 4f8:	00018e02 	andeq	r8, r1, r2, lsl #28
 4fc:	00000014 	andeq	r0, r0, r4, lsl r0
 500:	000004b8 			; <UNDEFINED> instruction: 0x000004b8
 504:	00009620 	andeq	r9, r0, r0, lsr #12
 508:	00000028 	andeq	r0, r0, r8, lsr #32
 50c:	83080e42 	movwhi	r0, #36418	; 0x8e42
 510:	00018e02 	andeq	r8, r1, r2, lsl #28
 514:	00000014 	andeq	r0, r0, r4, lsl r0
 518:	000004b8 			; <UNDEFINED> instruction: 0x000004b8
 51c:	00009648 	andeq	r9, r0, r8, asr #12
 520:	0000001c 	andeq	r0, r0, ip, lsl r0
 524:	83080e42 	movwhi	r0, #36418	; 0x8e42
 528:	00018e02 	andeq	r8, r1, r2, lsl #28
 52c:	00000014 	andeq	r0, r0, r4, lsl r0
 530:	000004b8 			; <UNDEFINED> instruction: 0x000004b8
 534:	00009664 	andeq	r9, r0, r4, ror #12
 538:	0000002c 	andeq	r0, r0, ip, lsr #32
 53c:	84080e42 	strhi	r0, [r8], #-3650	; 0xe42
 540:	00018e02 	andeq	r8, r1, r2, lsl #28
 544:	00000014 	andeq	r0, r0, r4, lsl r0
 548:	000004b8 			; <UNDEFINED> instruction: 0x000004b8
 54c:	00009690 	muleq	r0, r0, r6
 550:	0000000c 	andeq	r0, r0, ip
 554:	83080e42 	movwhi	r0, #36418	; 0x8e42
 558:	00018e02 	andeq	r8, r1, r2, lsl #28
 55c:	00000014 	andeq	r0, r0, r4, lsl r0
 560:	000004b8 			; <UNDEFINED> instruction: 0x000004b8
 564:	0000969c 	muleq	r0, ip, r6
 568:	00000020 	andeq	r0, r0, r0, lsr #32
 56c:	83080e42 	movwhi	r0, #36418	; 0x8e42
 570:	00018e02 	andeq	r8, r1, r2, lsl #28
 574:	0000000c 	andeq	r0, r0, ip
 578:	ffffffff 			; <UNDEFINED> instruction: 0xffffffff
 57c:	7c020001 	stcvc	0, cr0, [r2], {1}
 580:	000d0c0e 	andeq	r0, sp, lr, lsl #24
 584:	00000014 	andeq	r0, r0, r4, lsl r0
 588:	00000574 	andeq	r0, r0, r4, ror r5
 58c:	000096bc 			; <UNDEFINED> instruction: 0x000096bc
 590:	00000068 	andeq	r0, r0, r8, rrx
 594:	83080e42 	movwhi	r0, #36418	; 0x8e42
 598:	00018e02 	andeq	r8, r1, r2, lsl #28
 59c:	00000014 	andeq	r0, r0, r4, lsl r0
 5a0:	00000574 	andeq	r0, r0, r4, ror r5
 5a4:	00009724 	andeq	r9, r0, r4, lsr #14
 5a8:	00000044 	andeq	r0, r0, r4, asr #32
 5ac:	8e040e42 	cdphi	14, 0, cr0, cr4, cr2, {2}
 5b0:	100e4201 	andne	r4, lr, r1, lsl #4
 5b4:	0000000c 	andeq	r0, r0, ip
 5b8:	ffffffff 			; <UNDEFINED> instruction: 0xffffffff
 5bc:	7c020001 	stcvc	0, cr0, [r2], {1}
 5c0:	000d0c0e 	andeq	r0, sp, lr, lsl #24
 5c4:	00000014 	andeq	r0, r0, r4, lsl r0
 5c8:	000005b4 			; <UNDEFINED> instruction: 0x000005b4
 5cc:	000098b8 			; <UNDEFINED> instruction: 0x000098b8
 5d0:	00000044 	andeq	r0, r0, r4, asr #32
 5d4:	8e040e42 	cdphi	14, 0, cr0, cr4, cr2, {2}
 5d8:	100e4201 	andne	r4, lr, r1, lsl #4
 5dc:	0000000c 	andeq	r0, r0, ip
 5e0:	ffffffff 			; <UNDEFINED> instruction: 0xffffffff
 5e4:	7c020001 	stcvc	0, cr0, [r2], {1}
 5e8:	000d0c0e 	andeq	r0, sp, lr, lsl #24
 5ec:	00000014 	andeq	r0, r0, r4, lsl r0
 5f0:	000005dc 	ldrdeq	r0, [r0], -ip
 5f4:	000098fc 	strdeq	r9, [r0], -ip
 5f8:	00000044 	andeq	r0, r0, r4, asr #32
 5fc:	8e040e42 	cdphi	14, 0, cr0, cr4, cr2, {2}
 600:	100e4201 	andne	r4, lr, r1, lsl #4
 604:	0000000c 	andeq	r0, r0, ip
 608:	ffffffff 			; <UNDEFINED> instruction: 0xffffffff
 60c:	7c020001 	stcvc	0, cr0, [r2], {1}
 610:	000d0c0e 	andeq	r0, sp, lr, lsl #24
 614:	00000014 	andeq	r0, r0, r4, lsl r0
 618:	00000604 	andeq	r0, r0, r4, lsl #12
 61c:	00009940 	andeq	r9, r0, r0, asr #18
 620:	00000044 	andeq	r0, r0, r4, asr #32
 624:	8e040e42 	cdphi	14, 0, cr0, cr4, cr2, {2}
 628:	100e4201 	andne	r4, lr, r1, lsl #4
 62c:	0000000c 	andeq	r0, r0, ip
 630:	ffffffff 			; <UNDEFINED> instruction: 0xffffffff
 634:	7c020001 	stcvc	0, cr0, [r2], {1}
 638:	000d0c0e 	andeq	r0, sp, lr, lsl #24
 63c:	00000014 	andeq	r0, r0, r4, lsl r0
 640:	0000062c 	andeq	r0, r0, ip, lsr #12
 644:	00009984 	andeq	r9, r0, r4, lsl #19
 648:	00000044 	andeq	r0, r0, r4, asr #32
 64c:	8e040e42 	cdphi	14, 0, cr0, cr4, cr2, {2}
 650:	100e4201 	andne	r4, lr, r1, lsl #4
