
2-logic-analyzer.elf:     file format elf32-littlearm


Disassembly of section .text:

00008000 <_start>:
    8000:	e3a0d302 	mov	sp, #134217728	; 0x8000000
    8004:	e3a0b000 	mov	fp, #0
    8008:	eb000396 	bl	8e68 <_cstart>
    800c:	eb0003ad 	bl	8ec8 <rpi_reboot>

00008010 <cycles_per_sec>:
    8010:	e92d4010 	push	{r4, lr}
    8014:	e3500001 	cmp	r0, #1
    8018:	9a000006 	bls	8038 <cycles_per_sec+0x28>
    801c:	eb00022a 	bl	88cc <rpi_reset_putc>
    8020:	e59f002c 	ldr	r0, [pc, #44]	; 8054 <cycles_per_sec+0x44>
    8024:	e59f102c 	ldr	r1, [pc, #44]	; 8058 <cycles_per_sec+0x48>
    8028:	e59f202c 	ldr	r2, [pc, #44]	; 805c <cycles_per_sec+0x4c>
    802c:	e3a03043 	mov	r3, #67	; 0x43
    8030:	eb00020a 	bl	8860 <printk>
    8034:	eb000381 	bl	8e40 <clean_reboot>
    8038:	ee1f4f3c 	mrc	15, 0, r4, cr15, cr12, {1}
    803c:	e3a03ffa 	mov	r3, #1000	; 0x3e8
    8040:	e0000093 	mul	r0, r3, r0
    8044:	eb0003c9 	bl	8f70 <delay_ms>
    8048:	ee1f0f3c 	mrc	15, 0, r0, cr15, cr12, {1}
    804c:	e0640000 	rsb	r0, r4, r0
    8050:	e8bd8010 	pop	{r4, pc}
    8054:	00009a54 	andeq	r9, r0, r4, asr sl
    8058:	00009a84 	andeq	r9, r0, r4, lsl #21
    805c:	00009a34 	andeq	r9, r0, r4, lsr sl

00008060 <test_gen>:
    8060:	e52d4004 	push	{r4}		; (str r4, [sp, #-4]!)
    8064:	ee1f3f3c 	mrc	15, 0, r3, cr15, cr12, {1}
    8068:	e59f2250 	ldr	r2, [pc, #592]	; 82c0 <test_gen+0x260>
    806c:	e592c028 	ldr	ip, [r2, #40]	; 0x28
    8070:	e3a04001 	mov	r4, #1
    8074:	e1a00014 	lsl	r0, r4, r0
    8078:	e18cc000 	orr	ip, ip, r0
    807c:	e582c028 	str	ip, [r2, #40]	; 0x28
    8080:	e59fc23c 	ldr	ip, [pc, #572]	; 82c4 <test_gen+0x264>
    8084:	ee1f2f3c 	mrc	15, 0, r2, cr15, cr12, {1}
    8088:	e0632002 	rsb	r2, r3, r2
    808c:	e152000c 	cmp	r2, ip
    8090:	9afffffb 	bls	8084 <test_gen+0x24>
    8094:	e3110080 	tst	r1, #128	; 0x80
    8098:	0a000004 	beq	80b0 <test_gen+0x50>
    809c:	e59f221c 	ldr	r2, [pc, #540]	; 82c0 <test_gen+0x260>
    80a0:	e592c01c 	ldr	ip, [r2, #28]
    80a4:	e180c00c 	orr	ip, r0, ip
    80a8:	e582c01c 	str	ip, [r2, #28]
    80ac:	ea000003 	b	80c0 <test_gen+0x60>
    80b0:	e59f2208 	ldr	r2, [pc, #520]	; 82c0 <test_gen+0x260>
    80b4:	e592c028 	ldr	ip, [r2, #40]	; 0x28
    80b8:	e180c00c 	orr	ip, r0, ip
    80bc:	e582c028 	str	ip, [r2, #40]	; 0x28
    80c0:	e59fc200 	ldr	ip, [pc, #512]	; 82c8 <test_gen+0x268>
    80c4:	ee1f2f3c 	mrc	15, 0, r2, cr15, cr12, {1}
    80c8:	e0632002 	rsb	r2, r3, r2
    80cc:	e152000c 	cmp	r2, ip
    80d0:	9afffffb 	bls	80c4 <test_gen+0x64>
    80d4:	e3110040 	tst	r1, #64	; 0x40
    80d8:	0a000004 	beq	80f0 <test_gen+0x90>
    80dc:	e59f21dc 	ldr	r2, [pc, #476]	; 82c0 <test_gen+0x260>
    80e0:	e592c01c 	ldr	ip, [r2, #28]
    80e4:	e180c00c 	orr	ip, r0, ip
    80e8:	e582c01c 	str	ip, [r2, #28]
    80ec:	ea000003 	b	8100 <test_gen+0xa0>
    80f0:	e59f21c8 	ldr	r2, [pc, #456]	; 82c0 <test_gen+0x260>
    80f4:	e592c028 	ldr	ip, [r2, #40]	; 0x28
    80f8:	e180c00c 	orr	ip, r0, ip
    80fc:	e582c028 	str	ip, [r2, #40]	; 0x28
    8100:	e59fc1c4 	ldr	ip, [pc, #452]	; 82cc <test_gen+0x26c>
    8104:	ee1f2f3c 	mrc	15, 0, r2, cr15, cr12, {1}
    8108:	e0632002 	rsb	r2, r3, r2
    810c:	e152000c 	cmp	r2, ip
    8110:	9afffffb 	bls	8104 <test_gen+0xa4>
    8114:	e3110020 	tst	r1, #32
    8118:	0a000004 	beq	8130 <test_gen+0xd0>
    811c:	e59f219c 	ldr	r2, [pc, #412]	; 82c0 <test_gen+0x260>
    8120:	e592c01c 	ldr	ip, [r2, #28]
    8124:	e180c00c 	orr	ip, r0, ip
    8128:	e582c01c 	str	ip, [r2, #28]
    812c:	ea000003 	b	8140 <test_gen+0xe0>
    8130:	e59f2188 	ldr	r2, [pc, #392]	; 82c0 <test_gen+0x260>
    8134:	e592c028 	ldr	ip, [r2, #40]	; 0x28
    8138:	e180c00c 	orr	ip, r0, ip
    813c:	e582c028 	str	ip, [r2, #40]	; 0x28
    8140:	e59fc188 	ldr	ip, [pc, #392]	; 82d0 <test_gen+0x270>
    8144:	ee1f2f3c 	mrc	15, 0, r2, cr15, cr12, {1}
    8148:	e0632002 	rsb	r2, r3, r2
    814c:	e152000c 	cmp	r2, ip
    8150:	9afffffb 	bls	8144 <test_gen+0xe4>
    8154:	e3110010 	tst	r1, #16
    8158:	0a000004 	beq	8170 <test_gen+0x110>
    815c:	e59f215c 	ldr	r2, [pc, #348]	; 82c0 <test_gen+0x260>
    8160:	e592c01c 	ldr	ip, [r2, #28]
    8164:	e180c00c 	orr	ip, r0, ip
    8168:	e582c01c 	str	ip, [r2, #28]
    816c:	ea000003 	b	8180 <test_gen+0x120>
    8170:	e59f2148 	ldr	r2, [pc, #328]	; 82c0 <test_gen+0x260>
    8174:	e592c028 	ldr	ip, [r2, #40]	; 0x28
    8178:	e180c00c 	orr	ip, r0, ip
    817c:	e582c028 	str	ip, [r2, #40]	; 0x28
    8180:	e59fc14c 	ldr	ip, [pc, #332]	; 82d4 <test_gen+0x274>
    8184:	ee1f2f3c 	mrc	15, 0, r2, cr15, cr12, {1}
    8188:	e0632002 	rsb	r2, r3, r2
    818c:	e152000c 	cmp	r2, ip
    8190:	9afffffb 	bls	8184 <test_gen+0x124>
    8194:	e3110008 	tst	r1, #8
    8198:	0a000004 	beq	81b0 <test_gen+0x150>
    819c:	e59f211c 	ldr	r2, [pc, #284]	; 82c0 <test_gen+0x260>
    81a0:	e592c01c 	ldr	ip, [r2, #28]
    81a4:	e180c00c 	orr	ip, r0, ip
    81a8:	e582c01c 	str	ip, [r2, #28]
    81ac:	ea000003 	b	81c0 <test_gen+0x160>
    81b0:	e59f2108 	ldr	r2, [pc, #264]	; 82c0 <test_gen+0x260>
    81b4:	e592c028 	ldr	ip, [r2, #40]	; 0x28
    81b8:	e180c00c 	orr	ip, r0, ip
    81bc:	e582c028 	str	ip, [r2, #40]	; 0x28
    81c0:	e59fc110 	ldr	ip, [pc, #272]	; 82d8 <test_gen+0x278>
    81c4:	ee1f2f3c 	mrc	15, 0, r2, cr15, cr12, {1}
    81c8:	e0632002 	rsb	r2, r3, r2
    81cc:	e152000c 	cmp	r2, ip
    81d0:	9afffffb 	bls	81c4 <test_gen+0x164>
    81d4:	e3110004 	tst	r1, #4
    81d8:	0a000004 	beq	81f0 <test_gen+0x190>
    81dc:	e59f20dc 	ldr	r2, [pc, #220]	; 82c0 <test_gen+0x260>
    81e0:	e592c01c 	ldr	ip, [r2, #28]
    81e4:	e180c00c 	orr	ip, r0, ip
    81e8:	e582c01c 	str	ip, [r2, #28]
    81ec:	ea000003 	b	8200 <test_gen+0x1a0>
    81f0:	e59f20c8 	ldr	r2, [pc, #200]	; 82c0 <test_gen+0x260>
    81f4:	e592c028 	ldr	ip, [r2, #40]	; 0x28
    81f8:	e180c00c 	orr	ip, r0, ip
    81fc:	e582c028 	str	ip, [r2, #40]	; 0x28
    8200:	e59fc0d4 	ldr	ip, [pc, #212]	; 82dc <test_gen+0x27c>
    8204:	ee1f2f3c 	mrc	15, 0, r2, cr15, cr12, {1}
    8208:	e0632002 	rsb	r2, r3, r2
    820c:	e152000c 	cmp	r2, ip
    8210:	9afffffb 	bls	8204 <test_gen+0x1a4>
    8214:	e3110002 	tst	r1, #2
    8218:	0a000004 	beq	8230 <test_gen+0x1d0>
    821c:	e59f209c 	ldr	r2, [pc, #156]	; 82c0 <test_gen+0x260>
    8220:	e592c01c 	ldr	ip, [r2, #28]
    8224:	e180c00c 	orr	ip, r0, ip
    8228:	e582c01c 	str	ip, [r2, #28]
    822c:	ea000003 	b	8240 <test_gen+0x1e0>
    8230:	e59f2088 	ldr	r2, [pc, #136]	; 82c0 <test_gen+0x260>
    8234:	e592c028 	ldr	ip, [r2, #40]	; 0x28
    8238:	e180c00c 	orr	ip, r0, ip
    823c:	e582c028 	str	ip, [r2, #40]	; 0x28
    8240:	e59fc098 	ldr	ip, [pc, #152]	; 82e0 <test_gen+0x280>
    8244:	ee1f2f3c 	mrc	15, 0, r2, cr15, cr12, {1}
    8248:	e0632002 	rsb	r2, r3, r2
    824c:	e152000c 	cmp	r2, ip
    8250:	9afffffb 	bls	8244 <test_gen+0x1e4>
    8254:	e3110001 	tst	r1, #1
    8258:	0a000004 	beq	8270 <test_gen+0x210>
    825c:	e59f205c 	ldr	r2, [pc, #92]	; 82c0 <test_gen+0x260>
    8260:	e592101c 	ldr	r1, [r2, #28]
    8264:	e1801001 	orr	r1, r0, r1
    8268:	e582101c 	str	r1, [r2, #28]
    826c:	ea000003 	b	8280 <test_gen+0x220>
    8270:	e59f2048 	ldr	r2, [pc, #72]	; 82c0 <test_gen+0x260>
    8274:	e5921028 	ldr	r1, [r2, #40]	; 0x28
    8278:	e1801001 	orr	r1, r0, r1
    827c:	e5821028 	str	r1, [r2, #40]	; 0x28
    8280:	e59f105c 	ldr	r1, [pc, #92]	; 82e4 <test_gen+0x284>
    8284:	ee1f2f3c 	mrc	15, 0, r2, cr15, cr12, {1}
    8288:	e0632002 	rsb	r2, r3, r2
    828c:	e1520001 	cmp	r2, r1
    8290:	9afffffb 	bls	8284 <test_gen+0x224>
    8294:	e59f2024 	ldr	r2, [pc, #36]	; 82c0 <test_gen+0x260>
    8298:	e592101c 	ldr	r1, [r2, #28]
    829c:	e1800001 	orr	r0, r0, r1
    82a0:	e582001c 	str	r0, [r2, #28]
    82a4:	e59f103c 	ldr	r1, [pc, #60]	; 82e8 <test_gen+0x288>
    82a8:	ee1f2f3c 	mrc	15, 0, r2, cr15, cr12, {1}
    82ac:	e0632002 	rsb	r2, r3, r2
    82b0:	e1520001 	cmp	r2, r1
    82b4:	9afffffb 	bls	82a8 <test_gen+0x248>
    82b8:	e49d4004 	pop	{r4}		; (ldr r4, [sp], #4)
    82bc:	e12fff1e 	bx	lr
    82c0:	20200000 	eorcs	r0, r0, r0
    82c4:	000017bb 			; <UNDEFINED> instruction: 0x000017bb
    82c8:	00002f77 	andeq	r2, r0, r7, ror pc
    82cc:	00004733 	andeq	r4, r0, r3, lsr r7
    82d0:	00005eef 	andeq	r5, r0, pc, ror #29
    82d4:	000076ab 	andeq	r7, r0, fp, lsr #13
    82d8:	00008e67 	andeq	r8, r0, r7, ror #28
    82dc:	0000a623 	andeq	sl, r0, r3, lsr #12
    82e0:	0000bddf 	ldrdeq	fp, [r0], -pc	; <UNPREDICTABLE>
    82e4:	0000d59b 	muleq	r0, fp, r5
    82e8:	0000ed57 	andeq	lr, r0, r7, asr sp

000082ec <client>:
    82ec:	e92d4ff8 	push	{r3, r4, r5, r6, r7, r8, r9, sl, fp, lr}
    82f0:	e1a08000 	mov	r8, r0
    82f4:	e1a0b002 	mov	fp, r2
    82f8:	e59f00d4 	ldr	r0, [pc, #212]	; 83d4 <client+0xe8>
    82fc:	eb000157 	bl	8860 <printk>
    8300:	eb000525 	bl	979c <system_enable_interrupts>
    8304:	e59f30cc 	ldr	r3, [pc, #204]	; 83d8 <client+0xec>
    8308:	e593201c 	ldr	r2, [r3, #28]
    830c:	e3a01001 	mov	r1, #1
    8310:	e1822811 	orr	r2, r2, r1, lsl r8
    8314:	e583201c 	str	r2, [r3, #28]
    8318:	e59f60bc 	ldr	r6, [pc, #188]	; 83dc <client+0xf0>
    831c:	e59f40bc 	ldr	r4, [pc, #188]	; 83e0 <client+0xf4>
    8320:	e59f70bc 	ldr	r7, [pc, #188]	; 83e4 <client+0xf8>
    8324:	e59f50bc 	ldr	r5, [pc, #188]	; 83e8 <client+0xfc>
    8328:	e3a0a000 	mov	sl, #0
    832c:	e59f90b8 	ldr	r9, [pc, #184]	; 83ec <client+0x100>
    8330:	ea000023 	b	83c4 <client+0xd8>
    8334:	e7942007 	ldr	r2, [r4, r7]
    8338:	e7943005 	ldr	r3, [r4, r5]
    833c:	e1520003 	cmp	r2, r3
    8340:	0a000008 	beq	8368 <client+0x7c>
    8344:	e7943005 	ldr	r3, [r4, r5]
    8348:	e7d42003 	ldrb	r2, [r4, r3]
    834c:	e6ef2072 	uxtb	r2, r2
    8350:	e2833001 	add	r3, r3, #1
    8354:	e1a03983 	lsl	r3, r3, #19
    8358:	e1a039a3 	lsr	r3, r3, #19
    835c:	e7843005 	str	r3, [r4, r5]
    8360:	e3a03001 	mov	r3, #1
    8364:	ea000001 	b	8370 <client+0x84>
    8368:	e1a0200a 	mov	r2, sl
    836c:	e1a0300a 	mov	r3, sl
    8370:	e3530000 	cmp	r3, #0
    8374:	1a000006 	bne	8394 <client+0xa8>
    8378:	eb000153 	bl	88cc <rpi_reset_putc>
    837c:	e59f006c 	ldr	r0, [pc, #108]	; 83f0 <client+0x104>
    8380:	e59f106c 	ldr	r1, [pc, #108]	; 83f4 <client+0x108>
    8384:	e59f206c 	ldr	r2, [pc, #108]	; 83f8 <client+0x10c>
    8388:	e3a03051 	mov	r3, #81	; 0x51
    838c:	eb000133 	bl	8860 <printk>
    8390:	eb0002aa 	bl	8e40 <clean_reboot>
    8394:	e586201c 	str	r2, [r6, #28]
    8398:	eb000503 	bl	97ac <system_disable_interrupts>
    839c:	e596101c 	ldr	r1, [r6, #28]
    83a0:	e1a00008 	mov	r0, r8
    83a4:	e6ef1071 	uxtb	r1, r1
    83a8:	e1a02009 	mov	r2, r9
    83ac:	ebffff2b 	bl	8060 <test_gen>
    83b0:	eb0004f9 	bl	979c <system_enable_interrupts>
    83b4:	e7942007 	ldr	r2, [r4, r7]
    83b8:	e7943005 	ldr	r3, [r4, r5]
    83bc:	e1520003 	cmp	r2, r3
    83c0:	1affffdb 	bne	8334 <client+0x48>
    83c4:	e596301c 	ldr	r3, [r6, #28]
    83c8:	e153000b 	cmp	r3, fp
    83cc:	3afffff8 	bcc	83b4 <client+0xc8>
    83d0:	e8bd8ff8 	pop	{r3, r4, r5, r6, r7, r8, r9, sl, fp, pc}
    83d4:	00009a98 	muleq	r0, r8, sl
    83d8:	20200000 	eorcs	r0, r0, r0
    83dc:	0000bea0 	andeq	fp, r0, r0, lsr #29
    83e0:	00009ea8 	andeq	r9, r0, r8, lsr #29
    83e4:	00002004 	andeq	r2, r0, r4
    83e8:	00002008 	andeq	r2, r0, r8
    83ec:	000017bc 			; <UNDEFINED> instruction: 0x000017bc
    83f0:	00009aa8 	andeq	r9, r0, r8, lsr #21
    83f4:	00009ae8 	andeq	r9, r0, r8, ror #21
    83f8:	00009a44 	andeq	r9, r0, r4, asr #20

000083fc <interrupt_vector>:
    83fc:	e92d4008 	push	{r3, lr}
    8400:	eb0004cc 	bl	9738 <dev_barrier>
    8404:	ee1f3f3c 	mrc	15, 0, r3, cr15, cr12, {1}
    8408:	e59f11f8 	ldr	r1, [pc, #504]	; 8608 <interrupt_vector+0x20c>
    840c:	e5912034 	ldr	r2, [r1, #52]	; 0x34
    8410:	e3120601 	tst	r2, #1048576	; 0x100000
    8414:	1afffffc 	bne	840c <interrupt_vector+0x10>
    8418:	e59f11ec 	ldr	r1, [pc, #492]	; 860c <interrupt_vector+0x210>
    841c:	ee1f2f3c 	mrc	15, 0, r2, cr15, cr12, {1}
    8420:	e0632002 	rsb	r2, r3, r2
    8424:	e1520001 	cmp	r2, r1
    8428:	9afffffb 	bls	841c <interrupt_vector+0x20>
    842c:	e59f11dc 	ldr	r1, [pc, #476]	; 8610 <interrupt_vector+0x214>
    8430:	ee1f2f3c 	mrc	15, 0, r2, cr15, cr12, {1}
    8434:	e0632002 	rsb	r2, r3, r2
    8438:	e1520001 	cmp	r2, r1
    843c:	9afffffb 	bls	8430 <interrupt_vector+0x34>
    8440:	e59f21c0 	ldr	r2, [pc, #448]	; 8608 <interrupt_vector+0x20c>
    8444:	e592c034 	ldr	ip, [r2, #52]	; 0x34
    8448:	e20cc601 	and	ip, ip, #1048576	; 0x100000
    844c:	e29cc000 	adds	ip, ip, #0
    8450:	13a0c001 	movne	ip, #1
    8454:	e59f11b8 	ldr	r1, [pc, #440]	; 8614 <interrupt_vector+0x218>
    8458:	ee1f2f3c 	mrc	15, 0, r2, cr15, cr12, {1}
    845c:	e0632002 	rsb	r2, r3, r2
    8460:	e1520001 	cmp	r2, r1
    8464:	9afffffb 	bls	8458 <interrupt_vector+0x5c>
    8468:	e59f2198 	ldr	r2, [pc, #408]	; 8608 <interrupt_vector+0x20c>
    846c:	e5922034 	ldr	r2, [r2, #52]	; 0x34
    8470:	e2022601 	and	r2, r2, #1048576	; 0x100000
    8474:	e3520000 	cmp	r2, #0
    8478:	13a02002 	movne	r2, #2
    847c:	03a02000 	moveq	r2, #0
    8480:	e18cc002 	orr	ip, ip, r2
    8484:	e59f118c 	ldr	r1, [pc, #396]	; 8618 <interrupt_vector+0x21c>
    8488:	ee1f2f3c 	mrc	15, 0, r2, cr15, cr12, {1}
    848c:	e0632002 	rsb	r2, r3, r2
    8490:	e1520001 	cmp	r2, r1
    8494:	9afffffb 	bls	8488 <interrupt_vector+0x8c>
    8498:	e59f2168 	ldr	r2, [pc, #360]	; 8608 <interrupt_vector+0x20c>
    849c:	e5922034 	ldr	r2, [r2, #52]	; 0x34
    84a0:	e2022601 	and	r2, r2, #1048576	; 0x100000
    84a4:	e3520000 	cmp	r2, #0
    84a8:	13a02004 	movne	r2, #4
    84ac:	03a02000 	moveq	r2, #0
    84b0:	e18cc002 	orr	ip, ip, r2
    84b4:	e59f1160 	ldr	r1, [pc, #352]	; 861c <interrupt_vector+0x220>
    84b8:	ee1f2f3c 	mrc	15, 0, r2, cr15, cr12, {1}
    84bc:	e0632002 	rsb	r2, r3, r2
    84c0:	e1520001 	cmp	r2, r1
    84c4:	9afffffb 	bls	84b8 <interrupt_vector+0xbc>
    84c8:	e59f2138 	ldr	r2, [pc, #312]	; 8608 <interrupt_vector+0x20c>
    84cc:	e5922034 	ldr	r2, [r2, #52]	; 0x34
    84d0:	e2022601 	and	r2, r2, #1048576	; 0x100000
    84d4:	e3520000 	cmp	r2, #0
    84d8:	13a02008 	movne	r2, #8
    84dc:	03a02000 	moveq	r2, #0
    84e0:	e18cc002 	orr	ip, ip, r2
    84e4:	e59f1134 	ldr	r1, [pc, #308]	; 8620 <interrupt_vector+0x224>
    84e8:	ee1f2f3c 	mrc	15, 0, r2, cr15, cr12, {1}
    84ec:	e0632002 	rsb	r2, r3, r2
    84f0:	e1520001 	cmp	r2, r1
    84f4:	9afffffb 	bls	84e8 <interrupt_vector+0xec>
    84f8:	e59f2108 	ldr	r2, [pc, #264]	; 8608 <interrupt_vector+0x20c>
    84fc:	e5922034 	ldr	r2, [r2, #52]	; 0x34
    8500:	e2022601 	and	r2, r2, #1048576	; 0x100000
    8504:	e3520000 	cmp	r2, #0
    8508:	13a02010 	movne	r2, #16
    850c:	03a02000 	moveq	r2, #0
    8510:	e18cc002 	orr	ip, ip, r2
    8514:	e59f1108 	ldr	r1, [pc, #264]	; 8624 <interrupt_vector+0x228>
    8518:	ee1f2f3c 	mrc	15, 0, r2, cr15, cr12, {1}
    851c:	e0632002 	rsb	r2, r3, r2
    8520:	e1520001 	cmp	r2, r1
    8524:	9afffffb 	bls	8518 <interrupt_vector+0x11c>
    8528:	e59f20d8 	ldr	r2, [pc, #216]	; 8608 <interrupt_vector+0x20c>
    852c:	e5922034 	ldr	r2, [r2, #52]	; 0x34
    8530:	e2022601 	and	r2, r2, #1048576	; 0x100000
    8534:	e3520000 	cmp	r2, #0
    8538:	13a02020 	movne	r2, #32
    853c:	03a02000 	moveq	r2, #0
    8540:	e18cc002 	orr	ip, ip, r2
    8544:	e59f10dc 	ldr	r1, [pc, #220]	; 8628 <interrupt_vector+0x22c>
    8548:	ee1f2f3c 	mrc	15, 0, r2, cr15, cr12, {1}
    854c:	e0632002 	rsb	r2, r3, r2
    8550:	e1520001 	cmp	r2, r1
    8554:	9afffffb 	bls	8548 <interrupt_vector+0x14c>
    8558:	e59f20a8 	ldr	r2, [pc, #168]	; 8608 <interrupt_vector+0x20c>
    855c:	e5922034 	ldr	r2, [r2, #52]	; 0x34
    8560:	e2022601 	and	r2, r2, #1048576	; 0x100000
    8564:	e3520000 	cmp	r2, #0
    8568:	13a02040 	movne	r2, #64	; 0x40
    856c:	03a02000 	moveq	r2, #0
    8570:	e18cc002 	orr	ip, ip, r2
    8574:	e59f10b0 	ldr	r1, [pc, #176]	; 862c <interrupt_vector+0x230>
    8578:	ee1f2f3c 	mrc	15, 0, r2, cr15, cr12, {1}
    857c:	e0632002 	rsb	r2, r3, r2
    8580:	e1520001 	cmp	r2, r1
    8584:	9afffffb 	bls	8578 <interrupt_vector+0x17c>
    8588:	e59f2078 	ldr	r2, [pc, #120]	; 8608 <interrupt_vector+0x20c>
    858c:	e5920034 	ldr	r0, [r2, #52]	; 0x34
    8590:	e2000601 	and	r0, r0, #1048576	; 0x100000
    8594:	e1a00a20 	lsr	r0, r0, #20
    8598:	e18c0380 	orr	r0, ip, r0, lsl #7
    859c:	e59f108c 	ldr	r1, [pc, #140]	; 8630 <interrupt_vector+0x234>
    85a0:	ee1f2f3c 	mrc	15, 0, r2, cr15, cr12, {1}
    85a4:	e0632002 	rsb	r2, r3, r2
    85a8:	e1520001 	cmp	r2, r1
    85ac:	9afffffb 	bls	85a0 <interrupt_vector+0x1a4>
    85b0:	e6efc070 	uxtb	ip, r0
    85b4:	e59f3078 	ldr	r3, [pc, #120]	; 8634 <interrupt_vector+0x238>
    85b8:	e59f2078 	ldr	r2, [pc, #120]	; 8638 <interrupt_vector+0x23c>
    85bc:	e7931002 	ldr	r1, [r3, r2]
    85c0:	e7932002 	ldr	r2, [r3, r2]
    85c4:	e2822001 	add	r2, r2, #1
    85c8:	e1a02982 	lsl	r2, r2, #19
    85cc:	e59f0068 	ldr	r0, [pc, #104]	; 863c <interrupt_vector+0x240>
    85d0:	e7933000 	ldr	r3, [r3, r0]
    85d4:	e15309a2 	cmp	r3, r2, lsr #19
    85d8:	0a000006 	beq	85f8 <interrupt_vector+0x1fc>
    85dc:	e59f3050 	ldr	r3, [pc, #80]	; 8634 <interrupt_vector+0x238>
    85e0:	e7c3c001 	strb	ip, [r3, r1]
    85e4:	e2811001 	add	r1, r1, #1
    85e8:	e1a01981 	lsl	r1, r1, #19
    85ec:	e1a019a1 	lsr	r1, r1, #19
    85f0:	e59f2040 	ldr	r2, [pc, #64]	; 8638 <interrupt_vector+0x23c>
    85f4:	e7831002 	str	r1, [r3, r2]
    85f8:	e3a00014 	mov	r0, #20
    85fc:	eb0003b7 	bl	94e0 <gpio_event_clear>
    8600:	eb00044c 	bl	9738 <dev_barrier>
    8604:	e8bd8008 	pop	{r3, pc}
    8608:	20200000 	eorcs	r0, r0, r0
    860c:	00000bdd 	ldrdeq	r0, [r0], -sp
    8610:	00002399 	muleq	r0, r9, r3
    8614:	00003b55 	andeq	r3, r0, r5, asr fp
    8618:	00005311 	andeq	r5, r0, r1, lsl r3
    861c:	00006acd 	andeq	r6, r0, sp, asr #21
    8620:	00008289 	andeq	r8, r0, r9, lsl #5
    8624:	00009a45 	andeq	r9, r0, r5, asr #20
    8628:	0000b201 	andeq	fp, r0, r1, lsl #4
    862c:	0000c9bd 			; <UNDEFINED> instruction: 0x0000c9bd
    8630:	0000e179 	andeq	lr, r0, r9, ror r1
    8634:	00009ea8 	andeq	r9, r0, r8, lsr #29
    8638:	00002004 	andeq	r2, r0, r4
    863c:	00002008 	andeq	r2, r0, r8

00008640 <notmain>:
    8640:	e92d4010 	push	{r4, lr}
    8644:	eb0003bb 	bl	9538 <uart_init>
    8648:	eb00040f 	bl	968c <int_init>
    864c:	e3a00015 	mov	r0, #21
    8650:	eb000250 	bl	8f98 <gpio_set_output>
    8654:	e3a00014 	mov	r0, #20
    8658:	eb00029f 	bl	90dc <gpio_set_input>
    865c:	e3a00014 	mov	r0, #20
    8660:	eb00035c 	bl	93d8 <gpio_int_falling_edge>
    8664:	e59f41a0 	ldr	r4, [pc, #416]	; 880c <notmain+0x1cc>
    8668:	e1a00004 	mov	r0, r4
    866c:	e3a01000 	mov	r1, #0
    8670:	e59f2198 	ldr	r2, [pc, #408]	; 8810 <notmain+0x1d0>
    8674:	eb000071 	bl	8840 <memset>
    8678:	e59f2194 	ldr	r2, [pc, #404]	; 8814 <notmain+0x1d4>
    867c:	e3a03a02 	mov	r3, #8192	; 0x2000
    8680:	e7842003 	str	r2, [r4, r3]
    8684:	e59f218c 	ldr	r2, [pc, #396]	; 8818 <notmain+0x1d8>
    8688:	e3a03000 	mov	r3, #0
    868c:	e7843002 	str	r3, [r4, r2]
    8690:	e59f1184 	ldr	r1, [pc, #388]	; 881c <notmain+0x1dc>
    8694:	e7843001 	str	r3, [r4, r1]
    8698:	e59f0180 	ldr	r0, [pc, #384]	; 8820 <notmain+0x1e0>
    869c:	e7843000 	str	r3, [r4, r0]
    86a0:	e59f317c 	ldr	r3, [pc, #380]	; 8824 <notmain+0x1e4>
    86a4:	e7d40003 	ldrb	r0, [r4, r3]
    86a8:	e3800001 	orr	r0, r0, #1
    86ac:	e7c40003 	strb	r0, [r4, r3]
    86b0:	e7941001 	ldr	r1, [r4, r1]
    86b4:	e7943002 	ldr	r3, [r4, r2]
    86b8:	e1510003 	cmp	r1, r3
    86bc:	0a000006 	beq	86dc <notmain+0x9c>
    86c0:	eb000081 	bl	88cc <rpi_reset_putc>
    86c4:	e59f015c 	ldr	r0, [pc, #348]	; 8828 <notmain+0x1e8>
    86c8:	e59f115c 	ldr	r1, [pc, #348]	; 882c <notmain+0x1ec>
    86cc:	e59f215c 	ldr	r2, [pc, #348]	; 8830 <notmain+0x1f0>
    86d0:	e3a0309f 	mov	r3, #159	; 0x9f
    86d4:	eb000061 	bl	8860 <printk>
    86d8:	eb0001d8 	bl	8e40 <clean_reboot>
    86dc:	e59f3128 	ldr	r3, [pc, #296]	; 880c <notmain+0x1cc>
    86e0:	e59f2134 	ldr	r2, [pc, #308]	; 881c <notmain+0x1dc>
    86e4:	e7932002 	ldr	r2, [r3, r2]
    86e8:	e2822001 	add	r2, r2, #1
    86ec:	e1a02982 	lsl	r2, r2, #19
    86f0:	e59f1120 	ldr	r1, [pc, #288]	; 8818 <notmain+0x1d8>
    86f4:	e7933001 	ldr	r3, [r3, r1]
    86f8:	e15309a2 	cmp	r3, r2, lsr #19
    86fc:	1a000006 	bne	871c <notmain+0xdc>
    8700:	eb000071 	bl	88cc <rpi_reset_putc>
    8704:	e59f0128 	ldr	r0, [pc, #296]	; 8834 <notmain+0x1f4>
    8708:	e59f111c 	ldr	r1, [pc, #284]	; 882c <notmain+0x1ec>
    870c:	e59f211c 	ldr	r2, [pc, #284]	; 8830 <notmain+0x1f0>
    8710:	e3a030a0 	mov	r3, #160	; 0xa0
    8714:	eb000051 	bl	8860 <printk>
    8718:	eb0001c8 	bl	8e40 <clean_reboot>
    871c:	e59f30e8 	ldr	r3, [pc, #232]	; 880c <notmain+0x1cc>
    8720:	e59f20f4 	ldr	r2, [pc, #244]	; 881c <notmain+0x1dc>
    8724:	e7932002 	ldr	r2, [r3, r2]
    8728:	e59f10e8 	ldr	r1, [pc, #232]	; 8818 <notmain+0x1d8>
    872c:	e7933001 	ldr	r3, [r3, r1]
    8730:	e0633002 	rsb	r3, r3, r2
    8734:	e1b03983 	lsls	r3, r3, #19
    8738:	0a000006 	beq	8758 <notmain+0x118>
    873c:	eb000062 	bl	88cc <rpi_reset_putc>
    8740:	e59f00f0 	ldr	r0, [pc, #240]	; 8838 <notmain+0x1f8>
    8744:	e59f10e0 	ldr	r1, [pc, #224]	; 882c <notmain+0x1ec>
    8748:	e59f20e0 	ldr	r2, [pc, #224]	; 8830 <notmain+0x1f0>
    874c:	e3a030a1 	mov	r3, #161	; 0xa1
    8750:	eb000042 	bl	8860 <printk>
    8754:	eb0001b9 	bl	8e40 <clean_reboot>
    8758:	e59f30ac 	ldr	r3, [pc, #172]	; 880c <notmain+0x1cc>
    875c:	e59f20b8 	ldr	r2, [pc, #184]	; 881c <notmain+0x1dc>
    8760:	e7932002 	ldr	r2, [r3, r2]
    8764:	e59f10ac 	ldr	r1, [pc, #172]	; 8818 <notmain+0x1d8>
    8768:	e7933001 	ldr	r3, [r3, r1]
    876c:	e1520003 	cmp	r2, r3
    8770:	0a00000a 	beq	87a0 <notmain+0x160>
    8774:	e59f3090 	ldr	r3, [pc, #144]	; 880c <notmain+0x1cc>
    8778:	e1a02001 	mov	r2, r1
    877c:	e7931001 	ldr	r1, [r3, r1]
    8780:	e7d30001 	ldrb	r0, [r3, r1]
    8784:	e6ef0070 	uxtb	r0, r0
    8788:	e2811001 	add	r1, r1, #1
    878c:	e1a01981 	lsl	r1, r1, #19
    8790:	e1a019a1 	lsr	r1, r1, #19
    8794:	e7831002 	str	r1, [r3, r2]
    8798:	e3a03001 	mov	r3, #1
    879c:	ea000001 	b	87a8 <notmain+0x168>
    87a0:	e3a00012 	mov	r0, #18
    87a4:	e3a03000 	mov	r3, #0
    87a8:	e3530000 	cmp	r3, #0
    87ac:	1a000002 	bne	87bc <notmain+0x17c>
    87b0:	e3500012 	cmp	r0, #18
    87b4:	0a000002 	beq	87c4 <notmain+0x184>
    87b8:	ea000002 	b	87c8 <notmain+0x188>
    87bc:	e3a03000 	mov	r3, #0
    87c0:	ea000000 	b	87c8 <notmain+0x188>
    87c4:	e3a03001 	mov	r3, #1
    87c8:	e3530000 	cmp	r3, #0
    87cc:	1a000006 	bne	87ec <notmain+0x1ac>
    87d0:	eb00003d 	bl	88cc <rpi_reset_putc>
    87d4:	e59f0060 	ldr	r0, [pc, #96]	; 883c <notmain+0x1fc>
    87d8:	e59f104c 	ldr	r1, [pc, #76]	; 882c <notmain+0x1ec>
    87dc:	e59f204c 	ldr	r2, [pc, #76]	; 8830 <notmain+0x1f0>
    87e0:	e3a030a3 	mov	r3, #163	; 0xa3
    87e4:	eb00001d 	bl	8860 <printk>
    87e8:	eb000194 	bl	8e40 <clean_reboot>
    87ec:	eb00018b 	bl	8e20 <enable_cache>
    87f0:	e3a03001 	mov	r3, #1
    87f4:	ee0f3f1c 	mcr	15, 0, r3, cr15, cr12, {0}
    87f8:	e3a00015 	mov	r0, #21
    87fc:	e3a01014 	mov	r1, #20
    8800:	e3a020ff 	mov	r2, #255	; 0xff
    8804:	ebfffeb8 	bl	82ec <client>
    8808:	eb00018c 	bl	8e40 <clean_reboot>
    880c:	00009ea8 	andeq	r9, r0, r8, lsr #29
    8810:	00002014 	andeq	r2, r0, r4, lsl r0
    8814:	12345678 	eorsne	r5, r4, #120, 12	; 0x7800000
    8818:	00002008 	andeq	r2, r0, r8
    881c:	00002004 	andeq	r2, r0, r4
    8820:	0000200c 	andeq	r2, r0, ip
    8824:	00002010 	andeq	r2, r0, r0, lsl r0
    8828:	00009b3c 	andeq	r9, r0, ip, lsr fp
    882c:	00009ae8 	andeq	r9, r0, r8, ror #21
    8830:	00009a4c 	andeq	r9, r0, ip, asr #20
    8834:	00009b58 	andeq	r9, r0, r8, asr fp
    8838:	00009b74 	andeq	r9, r0, r4, ror fp
    883c:	00009b98 	muleq	r0, r8, fp

00008840 <memset>:
    8840:	e0802002 	add	r2, r0, r2
    8844:	e1a03000 	mov	r3, r0
    8848:	ea000001 	b	8854 <memset+0x14>
    884c:	e5c31000 	strb	r1, [r3]
    8850:	e2833001 	add	r3, r3, #1
    8854:	e1530002 	cmp	r3, r2
    8858:	3afffffb 	bcc	884c <memset+0xc>
    885c:	e12fff1e 	bx	lr

00008860 <printk>:
    8860:	e92d000f 	push	{r0, r1, r2, r3}
    8864:	e92d4030 	push	{r4, r5, lr}
    8868:	e24dd00c 	sub	sp, sp, #12
    886c:	e28d301c 	add	r3, sp, #28
    8870:	e58d3004 	str	r3, [sp, #4]
    8874:	e59f4034 	ldr	r4, [pc, #52]	; 88b0 <printk+0x50>
    8878:	e1a00004 	mov	r0, r4
    887c:	e3a01b01 	mov	r1, #1024	; 0x400
    8880:	e59d2018 	ldr	r2, [sp, #24]
    8884:	eb0000c3 	bl	8b98 <va_printk>
    8888:	e1a05000 	mov	r5, r0
    888c:	e59f3020 	ldr	r3, [pc, #32]	; 88b4 <printk+0x54>
    8890:	e5933000 	ldr	r3, [r3]
    8894:	e1a00004 	mov	r0, r4
    8898:	e12fff33 	blx	r3
    889c:	e1a00005 	mov	r0, r5
    88a0:	e28dd00c 	add	sp, sp, #12
    88a4:	e8bd4030 	pop	{r4, r5, lr}
    88a8:	e28dd010 	add	sp, sp, #16
    88ac:	e12fff1e 	bx	lr
    88b0:	0000bed4 	ldrdeq	fp, [r0], -r4
    88b4:	0000999c 	muleq	r0, ip, r9

000088b8 <internal_putchar>:
    88b8:	e92d4010 	push	{r4, lr}
    88bc:	e1a04000 	mov	r4, r0
    88c0:	eb00035b 	bl	9634 <uart_putc>
    88c4:	e1a00004 	mov	r0, r4
    88c8:	e8bd8010 	pop	{r4, pc}

000088cc <rpi_reset_putc>:
    88cc:	e59f2008 	ldr	r2, [pc, #8]	; 88dc <rpi_reset_putc+0x10>
    88d0:	e59f3008 	ldr	r3, [pc, #8]	; 88e0 <rpi_reset_putc+0x14>
    88d4:	e5832000 	str	r2, [r3]
    88d8:	e12fff1e 	bx	lr
    88dc:	000088b8 			; <UNDEFINED> instruction: 0x000088b8
    88e0:	00009998 	muleq	r0, r8, r9

000088e4 <rpi_set_putc>:
    88e4:	e59f3004 	ldr	r3, [pc, #4]	; 88f0 <rpi_set_putc+0xc>
    88e8:	e5830000 	str	r0, [r3]
    88ec:	e12fff1e 	bx	lr
    88f0:	00009998 	muleq	r0, r8, r9

000088f4 <internal_putk>:
    88f4:	e92d4038 	push	{r3, r4, r5, lr}
    88f8:	e1a04000 	mov	r4, r0
    88fc:	e59f5020 	ldr	r5, [pc, #32]	; 8924 <internal_putk+0x30>
    8900:	ea000002 	b	8910 <internal_putk+0x1c>
    8904:	e5953000 	ldr	r3, [r5]
    8908:	e12fff33 	blx	r3
    890c:	e2844001 	add	r4, r4, #1
    8910:	e5d40000 	ldrb	r0, [r4]
    8914:	e3500000 	cmp	r0, #0
    8918:	1afffff9 	bne	8904 <internal_putk+0x10>
    891c:	e3a00001 	mov	r0, #1
    8920:	e8bd8038 	pop	{r3, r4, r5, pc}
    8924:	00009998 	muleq	r0, r8, r9

00008928 <isdigit>:
    8928:	e2400030 	sub	r0, r0, #48	; 0x30
    892c:	e3500009 	cmp	r0, #9
    8930:	83a00000 	movhi	r0, #0
    8934:	93a00001 	movls	r0, #1
    8938:	e12fff1e 	bx	lr

0000893c <pad>:
    893c:	e0611000 	rsb	r1, r1, r0
    8940:	e3a03020 	mov	r3, #32
    8944:	ea000002 	b	8954 <pad+0x18>
    8948:	e5c03000 	strb	r3, [r0]
    894c:	e2811001 	add	r1, r1, #1
    8950:	e2800001 	add	r0, r0, #1
    8954:	e1510002 	cmp	r1, r2
    8958:	bafffffa 	blt	8948 <pad+0xc>
    895c:	e3a03000 	mov	r3, #0
    8960:	e5c03000 	strb	r3, [r0]
    8964:	e12fff1e 	bx	lr

00008968 <reverse>:
    8968:	e063c002 	rsb	ip, r3, r2
    896c:	e28cc001 	add	ip, ip, #1
    8970:	e15c0001 	cmp	ip, r1
    8974:	c061100c 	rsbgt	r1, r1, ip
    8978:	c0833001 	addgt	r3, r3, r1
    897c:	e2422001 	sub	r2, r2, #1
    8980:	e1a01000 	mov	r1, r0
    8984:	ea000002 	b	8994 <reverse+0x2c>
    8988:	e452c001 	ldrb	ip, [r2], #-1
    898c:	e5c1c000 	strb	ip, [r1]
    8990:	e2811001 	add	r1, r1, #1
    8994:	e1520003 	cmp	r2, r3
    8998:	2afffffa 	bcs	8988 <reverse+0x20>
    899c:	e3a03000 	mov	r3, #0
    89a0:	e5c13000 	strb	r3, [r1]
    89a4:	e12fff1e 	bx	lr

000089a8 <emit>:
    89a8:	e92d41f0 	push	{r4, r5, r6, r7, r8, lr}
    89ac:	e24dd040 	sub	sp, sp, #64	; 0x40
    89b0:	e1a05001 	mov	r5, r1
    89b4:	e1a04002 	mov	r4, r2
    89b8:	e59d2058 	ldr	r2, [sp, #88]	; 0x58
    89bc:	e1520004 	cmp	r2, r4
    89c0:	c2442001 	subgt	r2, r4, #1
    89c4:	e1a0c003 	mov	ip, r3
    89c8:	e2400002 	sub	r0, r0, #2
    89cc:	e350000e 	cmp	r0, #14
    89d0:	979ff100 	ldrls	pc, [pc, r0, lsl #2]
    89d4:	ea000042 	b	8ae4 <emit+0x13c>
    89d8:	00008abc 			; <UNDEFINED> instruction: 0x00008abc
    89dc:	00008ae4 	andeq	r8, r0, r4, ror #21
    89e0:	00008ae4 	andeq	r8, r0, r4, ror #21
    89e4:	00008ae4 	andeq	r8, r0, r4, ror #21
    89e8:	00008ae4 	andeq	r8, r0, r4, ror #21
    89ec:	00008ae4 	andeq	r8, r0, r4, ror #21
    89f0:	00008ab0 			; <UNDEFINED> instruction: 0x00008ab0
    89f4:	00008ae4 	andeq	r8, r0, r4, ror #21
    89f8:	00008a14 	andeq	r8, r0, r4, lsl sl
    89fc:	00008ae4 	andeq	r8, r0, r4, ror #21
    8a00:	00008ae4 	andeq	r8, r0, r4, ror #21
    8a04:	00008ae4 	andeq	r8, r0, r4, ror #21
    8a08:	00008ae4 	andeq	r8, r0, r4, ror #21
    8a0c:	00008ae4 	andeq	r8, r0, r4, ror #21
    8a10:	00008a88 	andeq	r8, r0, r8, lsl #21
    8a14:	e59d105c 	ldr	r1, [sp, #92]	; 0x5c
    8a18:	e2911000 	adds	r1, r1, #0
    8a1c:	13a01001 	movne	r1, #1
    8a20:	e0111fa3 	ands	r1, r1, r3, lsr #31
    8a24:	1263c000 	rsbne	ip, r3, #0
    8a28:	13a08001 	movne	r8, #1
    8a2c:	03a08000 	moveq	r8, #0
    8a30:	e1a0100d 	mov	r1, sp
    8a34:	e59f70ec 	ldr	r7, [pc, #236]	; 8b28 <emit+0x180>
    8a38:	e59f60ec 	ldr	r6, [pc, #236]	; 8b2c <emit+0x184>
    8a3c:	ea000000 	b	8a44 <emit+0x9c>
    8a40:	e1a01003 	mov	r1, r3
    8a44:	e2813001 	add	r3, r1, #1
    8a48:	e08e0c97 	umull	r0, lr, r7, ip
    8a4c:	e1a0e1ae 	lsr	lr, lr, #3
    8a50:	e1a0000e 	mov	r0, lr
    8a54:	e08ee10e 	add	lr, lr, lr, lsl #2
    8a58:	e1a0e08e 	lsl	lr, lr, #1
    8a5c:	e06ee00c 	rsb	lr, lr, ip
    8a60:	e7d6c00e 	ldrb	ip, [r6, lr]
    8a64:	e5c1c000 	strb	ip, [r1]
    8a68:	e1a0c000 	mov	ip, r0
    8a6c:	e3500000 	cmp	r0, #0
    8a70:	1afffff2 	bne	8a40 <emit+0x98>
    8a74:	e3580000 	cmp	r8, #0
    8a78:	12813002 	addne	r3, r1, #2
    8a7c:	13a0002d 	movne	r0, #45	; 0x2d
    8a80:	15c10001 	strbne	r0, [r1, #1]
    8a84:	ea00001d 	b	8b00 <emit+0x158>
    8a88:	e1a0e00d 	mov	lr, sp
    8a8c:	e59f009c 	ldr	r0, [pc, #156]	; 8b30 <emit+0x188>
    8a90:	e28e3001 	add	r3, lr, #1
    8a94:	e20c100f 	and	r1, ip, #15
    8a98:	e7d01001 	ldrb	r1, [r0, r1]
    8a9c:	e5ce1000 	strb	r1, [lr]
    8aa0:	e1a0e003 	mov	lr, r3
    8aa4:	e1b0c22c 	lsrs	ip, ip, #4
    8aa8:	1afffff8 	bne	8a90 <emit+0xe8>
    8aac:	ea000013 	b	8b00 <emit+0x158>
    8ab0:	e5cd3000 	strb	r3, [sp]
    8ab4:	e28d3001 	add	r3, sp, #1
    8ab8:	ea000010 	b	8b00 <emit+0x158>
    8abc:	e1a0e00d 	mov	lr, sp
    8ac0:	e59f006c 	ldr	r0, [pc, #108]	; 8b34 <emit+0x18c>
    8ac4:	e28e3001 	add	r3, lr, #1
    8ac8:	e20c1001 	and	r1, ip, #1
    8acc:	e7d01001 	ldrb	r1, [r0, r1]
    8ad0:	e5ce1000 	strb	r1, [lr]
    8ad4:	e1a0e003 	mov	lr, r3
    8ad8:	e1b0c0ac 	lsrs	ip, ip, #1
    8adc:	1afffff8 	bne	8ac4 <emit+0x11c>
    8ae0:	ea000006 	b	8b00 <emit+0x158>
    8ae4:	ebffff78 	bl	88cc <rpi_reset_putc>
    8ae8:	e59f0048 	ldr	r0, [pc, #72]	; 8b38 <emit+0x190>
    8aec:	e59f1048 	ldr	r1, [pc, #72]	; 8b3c <emit+0x194>
    8af0:	e59f2048 	ldr	r2, [pc, #72]	; 8b40 <emit+0x198>
    8af4:	e3a03075 	mov	r3, #117	; 0x75
    8af8:	ebffff58 	bl	8860 <printk>
    8afc:	eb0000cf 	bl	8e40 <clean_reboot>
    8b00:	e1a00003 	mov	r0, r3
    8b04:	e1a0100d 	mov	r1, sp
    8b08:	ebffff8b 	bl	893c <pad>
    8b0c:	e1a02000 	mov	r2, r0
    8b10:	e1a00005 	mov	r0, r5
    8b14:	e1a01004 	mov	r1, r4
    8b18:	e1a0300d 	mov	r3, sp
    8b1c:	ebffff91 	bl	8968 <reverse>
    8b20:	e28dd040 	add	sp, sp, #64	; 0x40
    8b24:	e8bd81f0 	pop	{r4, r5, r6, r7, r8, pc}
    8b28:	cccccccd 	stclgt	12, cr12, [ip], {205}	; 0xcd
    8b2c:	00009c1c 	andeq	r9, r0, ip, lsl ip
    8b30:	00009c28 	andeq	r9, r0, r8, lsr #24
    8b34:	00009c3c 	andeq	r9, r0, ip, lsr ip
    8b38:	00009bf4 	strdeq	r9, [r0], -r4
    8b3c:	00009c08 	andeq	r9, r0, r8, lsl #24
    8b40:	00009bd0 	ldrdeq	r9, [r0], -r0

00008b44 <rpi_set_output>:
    8b44:	e92d4008 	push	{r3, lr}
    8b48:	e3500000 	cmp	r0, #0
    8b4c:	1a000006 	bne	8b6c <rpi_set_output+0x28>
    8b50:	ebffff5d 	bl	88cc <rpi_reset_putc>
    8b54:	e59f0028 	ldr	r0, [pc, #40]	; 8b84 <rpi_set_output+0x40>
    8b58:	e59f1028 	ldr	r1, [pc, #40]	; 8b88 <rpi_set_output+0x44>
    8b5c:	e59f2028 	ldr	r2, [pc, #40]	; 8b8c <rpi_set_output+0x48>
    8b60:	e3a03020 	mov	r3, #32
    8b64:	ebffff3d 	bl	8860 <printk>
    8b68:	eb0000b4 	bl	8e40 <clean_reboot>
    8b6c:	e59f301c 	ldr	r3, [pc, #28]	; 8b90 <rpi_set_output+0x4c>
    8b70:	e5830000 	str	r0, [r3]
    8b74:	e3510000 	cmp	r1, #0
    8b78:	159f3014 	ldrne	r3, [pc, #20]	; 8b94 <rpi_set_output+0x50>
    8b7c:	15831000 	strne	r1, [r3]
    8b80:	e8bd8008 	pop	{r3, pc}
    8b84:	00009c40 	andeq	r9, r0, r0, asr #24
    8b88:	00009c08 	andeq	r9, r0, r8, lsl #24
    8b8c:	00009bd8 	ldrdeq	r9, [r0], -r8
    8b90:	00009998 	muleq	r0, r8, r9
    8b94:	0000999c 	muleq	r0, ip, r9

00008b98 <va_printk>:
    8b98:	e92d4ff0 	push	{r4, r5, r6, r7, r8, r9, sl, fp, lr}
    8b9c:	e24dd08c 	sub	sp, sp, #140	; 0x8c
    8ba0:	e1a0a000 	mov	sl, r0
    8ba4:	e1a09003 	mov	r9, r3
    8ba8:	e2411001 	sub	r1, r1, #1
    8bac:	e0808001 	add	r8, r0, r1
    8bb0:	e3a03000 	mov	r3, #0
    8bb4:	e5c03000 	strb	r3, [r0]
    8bb8:	e1a04000 	mov	r4, r0
    8bbc:	e1a0b003 	mov	fp, r3
    8bc0:	ea000086 	b	8de0 <va_printk+0x248>
    8bc4:	e3530025 	cmp	r3, #37	; 0x25
    8bc8:	12822001 	addne	r2, r2, #1
    8bcc:	15c43000 	strbne	r3, [r4]
    8bd0:	12844001 	addne	r4, r4, #1
    8bd4:	1a000081 	bne	8de0 <va_printk+0x248>
    8bd8:	e5d21001 	ldrb	r1, [r2, #1]
    8bdc:	e3510025 	cmp	r1, #37	; 0x25
    8be0:	05c43000 	strbeq	r3, [r4]
    8be4:	02822002 	addeq	r2, r2, #2
    8be8:	02844001 	addeq	r4, r4, #1
    8bec:	0a00007b 	beq	8de0 <va_printk+0x248>
    8bf0:	e2826001 	add	r6, r2, #1
    8bf4:	e1a0700b 	mov	r7, fp
    8bf8:	ea000004 	b	8c10 <va_printk+0x78>
    8bfc:	e0877107 	add	r7, r7, r7, lsl #2
    8c00:	e1a07087 	lsl	r7, r7, #1
    8c04:	e0877005 	add	r7, r7, r5
    8c08:	e2477030 	sub	r7, r7, #48	; 0x30
    8c0c:	e2866001 	add	r6, r6, #1
    8c10:	e5d65000 	ldrb	r5, [r6]
    8c14:	e1a00005 	mov	r0, r5
    8c18:	ebffff42 	bl	8928 <isdigit>
    8c1c:	e3500000 	cmp	r0, #0
    8c20:	1afffff5 	bne	8bfc <va_printk+0x64>
    8c24:	e357001f 	cmp	r7, #31
    8c28:	9a000006 	bls	8c48 <va_printk+0xb0>
    8c2c:	ebffff26 	bl	88cc <rpi_reset_putc>
    8c30:	e59f01d4 	ldr	r0, [pc, #468]	; 8e0c <va_printk+0x274>
    8c34:	e59f11d4 	ldr	r1, [pc, #468]	; 8e10 <va_printk+0x278>
    8c38:	e59f21d4 	ldr	r2, [pc, #468]	; 8e14 <va_printk+0x27c>
    8c3c:	e3a03092 	mov	r3, #146	; 0x92
    8c40:	ebffff06 	bl	8860 <printk>
    8c44:	eb00007d 	bl	8e40 <clean_reboot>
    8c48:	e2455062 	sub	r5, r5, #98	; 0x62
    8c4c:	e3550016 	cmp	r5, #22
    8c50:	979ff105 	ldrls	pc, [pc, r5, lsl #2]
    8c54:	ea00004e 	b	8d94 <va_printk+0x1fc>
    8c58:	00008d40 	andeq	r8, r0, r0, asr #26
    8c5c:	00008d70 	andeq	r8, r0, r0, ror sp
    8c60:	00008cd0 	ldrdeq	r8, [r0], -r0
    8c64:	00008d94 	muleq	r0, r4, sp
    8c68:	00008cb4 			; <UNDEFINED> instruction: 0x00008cb4
    8c6c:	00008d94 	muleq	r0, r4, sp
    8c70:	00008d94 	muleq	r0, r4, sp
    8c74:	00008d94 	muleq	r0, r4, sp
    8c78:	00008d94 	muleq	r0, r4, sp
    8c7c:	00008d94 	muleq	r0, r4, sp
    8c80:	00008d94 	muleq	r0, r4, sp
    8c84:	00008d94 	muleq	r0, r4, sp
    8c88:	00008d94 	muleq	r0, r4, sp
    8c8c:	00008d94 	muleq	r0, r4, sp
    8c90:	00008d1c 	andeq	r8, r0, ip, lsl sp
    8c94:	00008d94 	muleq	r0, r4, sp
    8c98:	00008d94 	muleq	r0, r4, sp
    8c9c:	00008d64 	andeq	r8, r0, r4, ror #26
    8ca0:	00008d94 	muleq	r0, r4, sp
    8ca4:	00008cf8 	strdeq	r8, [r0], -r8	; <UNPREDICTABLE>
    8ca8:	00008d94 	muleq	r0, r4, sp
    8cac:	00008d94 	muleq	r0, r4, sp
    8cb0:	00008d1c 	andeq	r8, r0, ip, lsl sp
    8cb4:	ebffff04 	bl	88cc <rpi_reset_putc>
    8cb8:	e59f0158 	ldr	r0, [pc, #344]	; 8e18 <va_printk+0x280>
    8cbc:	e59f114c 	ldr	r1, [pc, #332]	; 8e10 <va_printk+0x278>
    8cc0:	e59f214c 	ldr	r2, [pc, #332]	; 8e14 <va_printk+0x27c>
    8cc4:	e3a03098 	mov	r3, #152	; 0x98
    8cc8:	ebfffee4 	bl	8860 <printk>
    8ccc:	eb00005b 	bl	8e40 <clean_reboot>
    8cd0:	e5993000 	ldr	r3, [r9]
    8cd4:	e2899004 	add	r9, r9, #4
    8cd8:	e58d7000 	str	r7, [sp]
    8cdc:	e3a02001 	mov	r2, #1
    8ce0:	e58d2004 	str	r2, [sp, #4]
    8ce4:	e3a0000a 	mov	r0, #10
    8ce8:	e28d1008 	add	r1, sp, #8
    8cec:	e3a02080 	mov	r2, #128	; 0x80
    8cf0:	ebffff2c 	bl	89a8 <emit>
    8cf4:	ea00002f 	b	8db8 <va_printk+0x220>
    8cf8:	e5993000 	ldr	r3, [r9]
    8cfc:	e2899004 	add	r9, r9, #4
    8d00:	e58d7000 	str	r7, [sp]
    8d04:	e58db004 	str	fp, [sp, #4]
    8d08:	e3a0000a 	mov	r0, #10
    8d0c:	e28d1008 	add	r1, sp, #8
    8d10:	e3a02080 	mov	r2, #128	; 0x80
    8d14:	ebffff23 	bl	89a8 <emit>
    8d18:	ea000026 	b	8db8 <va_printk+0x220>
    8d1c:	e5993000 	ldr	r3, [r9]
    8d20:	e2899004 	add	r9, r9, #4
    8d24:	e58d7000 	str	r7, [sp]
    8d28:	e58db004 	str	fp, [sp, #4]
    8d2c:	e3a00010 	mov	r0, #16
    8d30:	e28d1008 	add	r1, sp, #8
    8d34:	e3a02080 	mov	r2, #128	; 0x80
    8d38:	ebffff1a 	bl	89a8 <emit>
    8d3c:	ea00001d 	b	8db8 <va_printk+0x220>
    8d40:	e5993000 	ldr	r3, [r9]
    8d44:	e2899004 	add	r9, r9, #4
    8d48:	e58d7000 	str	r7, [sp]
    8d4c:	e58db004 	str	fp, [sp, #4]
    8d50:	e3a00002 	mov	r0, #2
    8d54:	e28d1008 	add	r1, sp, #8
    8d58:	e3a02080 	mov	r2, #128	; 0x80
    8d5c:	ebffff11 	bl	89a8 <emit>
    8d60:	ea000014 	b	8db8 <va_printk+0x220>
    8d64:	e5990000 	ldr	r0, [r9]
    8d68:	e2899004 	add	r9, r9, #4
    8d6c:	ea000011 	b	8db8 <va_printk+0x220>
    8d70:	e5993000 	ldr	r3, [r9]
    8d74:	e2899004 	add	r9, r9, #4
    8d78:	e58d7000 	str	r7, [sp]
    8d7c:	e58db004 	str	fp, [sp, #4]
    8d80:	e3a00008 	mov	r0, #8
    8d84:	e08d1000 	add	r1, sp, r0
    8d88:	e3a02080 	mov	r2, #128	; 0x80
    8d8c:	ebffff05 	bl	89a8 <emit>
    8d90:	ea000008 	b	8db8 <va_printk+0x220>
    8d94:	ebfffecc 	bl	88cc <rpi_reset_putc>
    8d98:	e5d63000 	ldrb	r3, [r6]
    8d9c:	e58d3000 	str	r3, [sp]
    8da0:	e59f0074 	ldr	r0, [pc, #116]	; 8e1c <va_printk+0x284>
    8da4:	e59f1064 	ldr	r1, [pc, #100]	; 8e10 <va_printk+0x278>
    8da8:	e59f2064 	ldr	r2, [pc, #100]	; 8e14 <va_printk+0x27c>
    8dac:	e3a030b9 	mov	r3, #185	; 0xb9
    8db0:	ebfffeaa 	bl	8860 <printk>
    8db4:	eb000021 	bl	8e40 <clean_reboot>
    8db8:	e2862001 	add	r2, r6, #1
    8dbc:	ea000002 	b	8dcc <va_printk+0x234>
    8dc0:	e2800001 	add	r0, r0, #1
    8dc4:	e5c43000 	strb	r3, [r4]
    8dc8:	e2844001 	add	r4, r4, #1
    8dcc:	e1540008 	cmp	r4, r8
    8dd0:	2a000002 	bcs	8de0 <va_printk+0x248>
    8dd4:	e5d03000 	ldrb	r3, [r0]
    8dd8:	e3530000 	cmp	r3, #0
    8ddc:	1afffff7 	bne	8dc0 <va_printk+0x228>
    8de0:	e5d23000 	ldrb	r3, [r2]
    8de4:	e3530000 	cmp	r3, #0
    8de8:	0a000001 	beq	8df4 <va_printk+0x25c>
    8dec:	e1540008 	cmp	r4, r8
    8df0:	3affff73 	bcc	8bc4 <va_printk+0x2c>
    8df4:	e2840001 	add	r0, r4, #1
    8df8:	e3a03000 	mov	r3, #0
    8dfc:	e5c43000 	strb	r3, [r4]
    8e00:	e06a0000 	rsb	r0, sl, r0
    8e04:	e28dd08c 	add	sp, sp, #140	; 0x8c
    8e08:	e8bd8ff0 	pop	{r4, r5, r6, r7, r8, r9, sl, fp, pc}
    8e0c:	00009c58 	andeq	r9, r0, r8, asr ip
    8e10:	00009c08 	andeq	r9, r0, r8, lsl #24
    8e14:	00009be8 	andeq	r9, r0, r8, ror #23
    8e18:	00009c74 	andeq	r9, r0, r4, ror ip
    8e1c:	00009c9c 	muleq	r0, ip, ip

00008e20 <enable_cache>:
    8e20:	ee113f10 	mrc	15, 0, r3, cr1, cr0, {0}
    8e24:	e3833b06 	orr	r3, r3, #6144	; 0x1800
    8e28:	ee013f10 	mcr	15, 0, r3, cr1, cr0, {0}
    8e2c:	e12fff1e 	bx	lr

00008e30 <disable_cache>:
    8e30:	ee113f10 	mrc	15, 0, r3, cr1, cr0, {0}
    8e34:	e3c33b06 	bic	r3, r3, #6144	; 0x1800
    8e38:	ee013f10 	mcr	15, 0, r3, cr1, cr0, {0}
    8e3c:	e12fff1e 	bx	lr

00008e40 <clean_reboot>:
    8e40:	e92d4008 	push	{r3, lr}
    8e44:	e59f3014 	ldr	r3, [pc, #20]	; 8e60 <clean_reboot+0x20>
    8e48:	e5933000 	ldr	r3, [r3]
    8e4c:	e59f0010 	ldr	r0, [pc, #16]	; 8e64 <clean_reboot+0x24>
    8e50:	e12fff33 	blx	r3
    8e54:	e3a00064 	mov	r0, #100	; 0x64
    8e58:	eb000044 	bl	8f70 <delay_ms>
    8e5c:	eb000019 	bl	8ec8 <rpi_reboot>
    8e60:	0000999c 	muleq	r0, ip, r9
    8e64:	00009cd4 	ldrdeq	r9, [r0], -r4

00008e68 <_cstart>:
    8e68:	e92d4008 	push	{r3, lr}
    8e6c:	e59f3020 	ldr	r3, [pc, #32]	; 8e94 <_cstart+0x2c>
    8e70:	e59f2020 	ldr	r2, [pc, #32]	; 8e98 <_cstart+0x30>
    8e74:	e3a01000 	mov	r1, #0
    8e78:	ea000001 	b	8e84 <_cstart+0x1c>
    8e7c:	e5831000 	str	r1, [r3]
    8e80:	e2833004 	add	r3, r3, #4
    8e84:	e1530002 	cmp	r3, r2
    8e88:	3afffffb 	bcc	8e7c <_cstart+0x14>
    8e8c:	ebfffdeb 	bl	8640 <notmain>
    8e90:	eb00000c 	bl	8ec8 <rpi_reboot>
    8e94:	00009ea8 	andeq	r9, r0, r8, lsr #29
    8e98:	0000c2d8 	ldrdeq	ip, [r0], -r8

00008e9c <at_user_level>:
    8e9c:	e10f0000 	mrs	r0, CPSR
    8ea0:	e200001f 	and	r0, r0, #31
    8ea4:	e3500010 	cmp	r0, #16
    8ea8:	13a00000 	movne	r0, #0
    8eac:	03a00001 	moveq	r0, #1
    8eb0:	e12fff1e 	bx	lr

00008eb4 <set_user_level>:
    8eb4:	e10f3000 	mrs	r3, CPSR
    8eb8:	e3c3301f 	bic	r3, r3, #31
    8ebc:	e3833010 	orr	r3, r3, #16
    8ec0:	e129f003 	msr	CPSR_fc, r3
    8ec4:	e12fff1e 	bx	lr

00008ec8 <rpi_reboot>:
    8ec8:	e92d4008 	push	{r3, lr}
    8ecc:	ebfffff2 	bl	8e9c <at_user_level>
    8ed0:	e3500000 	cmp	r0, #0
    8ed4:	0a000000 	beq	8edc <rpi_reboot+0x14>
    8ed8:	ebfffff5 	bl	8eb4 <set_user_level>
    8edc:	e3a0001e 	mov	r0, #30
    8ee0:	eb000022 	bl	8f70 <delay_ms>
    8ee4:	e59f0014 	ldr	r0, [pc, #20]	; 8f00 <rpi_reboot+0x38>
    8ee8:	e59f1014 	ldr	r1, [pc, #20]	; 8f04 <rpi_reboot+0x3c>
    8eec:	eb000219 	bl	9758 <PUT32>
    8ef0:	e59f0010 	ldr	r0, [pc, #16]	; 8f08 <rpi_reboot+0x40>
    8ef4:	e59f1010 	ldr	r1, [pc, #16]	; 8f0c <rpi_reboot+0x44>
    8ef8:	eb000216 	bl	9758 <PUT32>
    8efc:	eafffffe 	b	8efc <rpi_reboot+0x34>
    8f00:	20100024 	andscs	r0, r0, r4, lsr #32
    8f04:	5a000001 	bpl	8f10 <delay_cycles>
    8f08:	2010001c 	andscs	r0, r0, ip, lsl r0
    8f0c:	5a000020 	bpl	8f94 <delay_sec+0x10>

00008f10 <delay_cycles>:
    8f10:	ea000001 	b	8f1c <delay_cycles+0xc>
    8f14:	e2811000 	add	r1, r1, #0
    8f18:	e1a00003 	mov	r0, r3
    8f1c:	e2403001 	sub	r3, r0, #1
    8f20:	e3500000 	cmp	r0, #0
    8f24:	1afffffa 	bne	8f14 <delay_cycles+0x4>
    8f28:	e12fff1e 	bx	lr

00008f2c <timer_get_usec_raw>:
    8f2c:	e92d4008 	push	{r3, lr}
    8f30:	e59f0004 	ldr	r0, [pc, #4]	; 8f3c <timer_get_usec_raw+0x10>
    8f34:	eb000213 	bl	9788 <GET32>
    8f38:	e8bd8008 	pop	{r3, pc}
    8f3c:	20003004 	andcs	r3, r0, r4

00008f40 <timer_get_usec>:
    8f40:	e92d4008 	push	{r3, lr}
    8f44:	ebfffff8 	bl	8f2c <timer_get_usec_raw>
    8f48:	e8bd8008 	pop	{r3, pc}

00008f4c <delay_us>:
    8f4c:	e92d4038 	push	{r3, r4, r5, lr}
    8f50:	e1a05000 	mov	r5, r0
    8f54:	ebfffff9 	bl	8f40 <timer_get_usec>
    8f58:	e1a04000 	mov	r4, r0
    8f5c:	ebfffff7 	bl	8f40 <timer_get_usec>
    8f60:	e0640000 	rsb	r0, r4, r0
    8f64:	e1500005 	cmp	r0, r5
    8f68:	3afffffb 	bcc	8f5c <delay_us+0x10>
    8f6c:	e8bd8038 	pop	{r3, r4, r5, pc}

00008f70 <delay_ms>:
    8f70:	e92d4008 	push	{r3, lr}
    8f74:	e3a03ffa 	mov	r3, #1000	; 0x3e8
    8f78:	e0000093 	mul	r0, r3, r0
    8f7c:	ebfffff2 	bl	8f4c <delay_us>
    8f80:	e8bd8008 	pop	{r3, pc}

00008f84 <delay_sec>:
    8f84:	e92d4008 	push	{r3, lr}
    8f88:	e3a03ffa 	mov	r3, #1000	; 0x3e8
    8f8c:	e0000093 	mul	r0, r3, r0
    8f90:	ebfffff6 	bl	8f70 <delay_ms>
    8f94:	e8bd8008 	pop	{r3, pc}

00008f98 <gpio_set_output>:
    8f98:	e92d4038 	push	{r3, r4, r5, lr}
    8f9c:	e1a04000 	mov	r4, r0
    8fa0:	e350001f 	cmp	r0, #31
    8fa4:	88bd8038 	pophi	{r3, r4, r5, pc}
    8fa8:	e59f30b4 	ldr	r3, [pc, #180]	; 9064 <gpio_set_output+0xcc>
    8fac:	e0832093 	umull	r2, r3, r3, r0
    8fb0:	e1a031a3 	lsr	r3, r3, #3
    8fb4:	e3530005 	cmp	r3, #5
    8fb8:	979ff103 	ldrls	pc, [pc, r3, lsl #2]
    8fbc:	ea000017 	b	9020 <gpio_set_output+0x88>
    8fc0:	00008fd8 	ldrdeq	r8, [r0], -r8	; <UNPREDICTABLE>
    8fc4:	00008fe4 	andeq	r8, r0, r4, ror #31
    8fc8:	00008ff0 	strdeq	r8, [r0], -r0
    8fcc:	00008ffc 	strdeq	r8, [r0], -ip
    8fd0:	00009008 	andeq	r9, r0, r8
    8fd4:	00009014 	andeq	r9, r0, r4, lsl r0
    8fd8:	e59f3088 	ldr	r3, [pc, #136]	; 9068 <gpio_set_output+0xd0>
    8fdc:	e5935000 	ldr	r5, [r3]
    8fe0:	ea00000f 	b	9024 <gpio_set_output+0x8c>
    8fe4:	e59f307c 	ldr	r3, [pc, #124]	; 9068 <gpio_set_output+0xd0>
    8fe8:	e5935004 	ldr	r5, [r3, #4]
    8fec:	ea00000c 	b	9024 <gpio_set_output+0x8c>
    8ff0:	e59f3070 	ldr	r3, [pc, #112]	; 9068 <gpio_set_output+0xd0>
    8ff4:	e5935008 	ldr	r5, [r3, #8]
    8ff8:	ea000009 	b	9024 <gpio_set_output+0x8c>
    8ffc:	e59f3064 	ldr	r3, [pc, #100]	; 9068 <gpio_set_output+0xd0>
    9000:	e593500c 	ldr	r5, [r3, #12]
    9004:	ea000006 	b	9024 <gpio_set_output+0x8c>
    9008:	e59f3058 	ldr	r3, [pc, #88]	; 9068 <gpio_set_output+0xd0>
    900c:	e5935010 	ldr	r5, [r3, #16]
    9010:	ea000003 	b	9024 <gpio_set_output+0x8c>
    9014:	e59f304c 	ldr	r3, [pc, #76]	; 9068 <gpio_set_output+0xd0>
    9018:	e5935014 	ldr	r5, [r3, #20]
    901c:	ea000000 	b	9024 <gpio_set_output+0x8c>
    9020:	e3a05000 	mov	r5, #0
    9024:	e1a00005 	mov	r0, r5
    9028:	eb0001d4 	bl	9780 <get32>
    902c:	e59f1030 	ldr	r1, [pc, #48]	; 9064 <gpio_set_output+0xcc>
    9030:	e0813491 	umull	r3, r1, r1, r4
    9034:	e1a011a1 	lsr	r1, r1, #3
    9038:	e0811101 	add	r1, r1, r1, lsl #2
    903c:	e1a01081 	lsl	r1, r1, #1
    9040:	e0611004 	rsb	r1, r1, r4
    9044:	e0811081 	add	r1, r1, r1, lsl #1
    9048:	e3a03007 	mov	r3, #7
    904c:	e1c03113 	bic	r3, r0, r3, lsl r1
    9050:	e1a00005 	mov	r0, r5
    9054:	e3a02001 	mov	r2, #1
    9058:	e1831112 	orr	r1, r3, r2, lsl r1
    905c:	eb0001bb 	bl	9750 <put32>
    9060:	e8bd8038 	pop	{r3, r4, r5, pc}
    9064:	cccccccd 	stclgt	12, cr12, [ip], {205}	; 0xcd
    9068:	000099a0 	andeq	r9, r0, r0, lsr #19

0000906c <gpio_set_on>:
    906c:	e92d4008 	push	{r3, lr}
    9070:	e350001f 	cmp	r0, #31
    9074:	88bd8008 	pophi	{r3, pc}
    9078:	959f3020 	ldrls	r3, [pc, #32]	; 90a0 <gpio_set_on+0x34>
    907c:	95932018 	ldrls	r2, [r3, #24]
    9080:	859f3018 	ldrhi	r3, [pc, #24]	; 90a0 <gpio_set_on+0x34>
    9084:	8593201c 	ldrhi	r2, [r3, #28]
    9088:	e200301f 	and	r3, r0, #31
    908c:	e1a00002 	mov	r0, r2
    9090:	e3a01001 	mov	r1, #1
    9094:	e1a01311 	lsl	r1, r1, r3
    9098:	eb0001ac 	bl	9750 <put32>
    909c:	e8bd8008 	pop	{r3, pc}
    90a0:	000099a0 	andeq	r9, r0, r0, lsr #19

000090a4 <gpio_set_off>:
    90a4:	e92d4008 	push	{r3, lr}
    90a8:	e350001f 	cmp	r0, #31
    90ac:	88bd8008 	pophi	{r3, pc}
    90b0:	959f3020 	ldrls	r3, [pc, #32]	; 90d8 <gpio_set_off+0x34>
    90b4:	95932020 	ldrls	r2, [r3, #32]
    90b8:	859f3018 	ldrhi	r3, [pc, #24]	; 90d8 <gpio_set_off+0x34>
    90bc:	85932024 	ldrhi	r2, [r3, #36]	; 0x24
    90c0:	e200301f 	and	r3, r0, #31
    90c4:	e1a00002 	mov	r0, r2
    90c8:	e3a01001 	mov	r1, #1
    90cc:	e1a01311 	lsl	r1, r1, r3
    90d0:	eb00019e 	bl	9750 <put32>
    90d4:	e8bd8008 	pop	{r3, pc}
    90d8:	000099a0 	andeq	r9, r0, r0, lsr #19

000090dc <gpio_set_input>:
    90dc:	e92d4038 	push	{r3, r4, r5, lr}
    90e0:	e1a04000 	mov	r4, r0
    90e4:	e350001f 	cmp	r0, #31
    90e8:	88bd8038 	pophi	{r3, r4, r5, pc}
    90ec:	e59f30ac 	ldr	r3, [pc, #172]	; 91a0 <gpio_set_input+0xc4>
    90f0:	e0832093 	umull	r2, r3, r3, r0
    90f4:	e1a031a3 	lsr	r3, r3, #3
    90f8:	e3530005 	cmp	r3, #5
    90fc:	979ff103 	ldrls	pc, [pc, r3, lsl #2]
    9100:	ea000017 	b	9164 <gpio_set_input+0x88>
    9104:	0000911c 	andeq	r9, r0, ip, lsl r1
    9108:	00009128 	andeq	r9, r0, r8, lsr #2
    910c:	00009134 	andeq	r9, r0, r4, lsr r1
    9110:	00009140 	andeq	r9, r0, r0, asr #2
    9114:	0000914c 	andeq	r9, r0, ip, asr #2
    9118:	00009158 	andeq	r9, r0, r8, asr r1
    911c:	e59f3080 	ldr	r3, [pc, #128]	; 91a4 <gpio_set_input+0xc8>
    9120:	e5935000 	ldr	r5, [r3]
    9124:	ea00000f 	b	9168 <gpio_set_input+0x8c>
    9128:	e59f3074 	ldr	r3, [pc, #116]	; 91a4 <gpio_set_input+0xc8>
    912c:	e5935004 	ldr	r5, [r3, #4]
    9130:	ea00000c 	b	9168 <gpio_set_input+0x8c>
    9134:	e59f3068 	ldr	r3, [pc, #104]	; 91a4 <gpio_set_input+0xc8>
    9138:	e5935008 	ldr	r5, [r3, #8]
    913c:	ea000009 	b	9168 <gpio_set_input+0x8c>
    9140:	e59f305c 	ldr	r3, [pc, #92]	; 91a4 <gpio_set_input+0xc8>
    9144:	e593500c 	ldr	r5, [r3, #12]
    9148:	ea000006 	b	9168 <gpio_set_input+0x8c>
    914c:	e59f3050 	ldr	r3, [pc, #80]	; 91a4 <gpio_set_input+0xc8>
    9150:	e5935010 	ldr	r5, [r3, #16]
    9154:	ea000003 	b	9168 <gpio_set_input+0x8c>
    9158:	e59f3044 	ldr	r3, [pc, #68]	; 91a4 <gpio_set_input+0xc8>
    915c:	e5935014 	ldr	r5, [r3, #20]
    9160:	ea000000 	b	9168 <gpio_set_input+0x8c>
    9164:	e3a05000 	mov	r5, #0
    9168:	e1a00005 	mov	r0, r5
    916c:	eb000183 	bl	9780 <get32>
    9170:	e59f1028 	ldr	r1, [pc, #40]	; 91a0 <gpio_set_input+0xc4>
    9174:	e0813491 	umull	r3, r1, r1, r4
    9178:	e1a011a1 	lsr	r1, r1, #3
    917c:	e0811101 	add	r1, r1, r1, lsl #2
    9180:	e1a01081 	lsl	r1, r1, #1
    9184:	e0611004 	rsb	r1, r1, r4
    9188:	e0811081 	add	r1, r1, r1, lsl #1
    918c:	e3a03007 	mov	r3, #7
    9190:	e1c01113 	bic	r1, r0, r3, lsl r1
    9194:	e1a00005 	mov	r0, r5
    9198:	eb00016c 	bl	9750 <put32>
    919c:	e8bd8038 	pop	{r3, r4, r5, pc}
    91a0:	cccccccd 	stclgt	12, cr12, [ip], {205}	; 0xcd
    91a4:	000099a0 	andeq	r9, r0, r0, lsr #19

000091a8 <gpio_read>:
    91a8:	e92d4010 	push	{r4, lr}
    91ac:	e1a04000 	mov	r4, r0
    91b0:	e350001f 	cmp	r0, #31
    91b4:	8a00000b 	bhi	91e8 <gpio_read+0x40>
    91b8:	8a000003 	bhi	91cc <gpio_read+0x24>
    91bc:	e59f302c 	ldr	r3, [pc, #44]	; 91f0 <gpio_read+0x48>
    91c0:	e5930028 	ldr	r0, [r3, #40]	; 0x28
    91c4:	eb00016d 	bl	9780 <get32>
    91c8:	ea000002 	b	91d8 <gpio_read+0x30>
    91cc:	e59f301c 	ldr	r3, [pc, #28]	; 91f0 <gpio_read+0x48>
    91d0:	e593002c 	ldr	r0, [r3, #44]	; 0x2c
    91d4:	eb000169 	bl	9780 <get32>
    91d8:	e204401f 	and	r4, r4, #31
    91dc:	e3a03001 	mov	r3, #1
    91e0:	e0000413 	and	r0, r0, r3, lsl r4
    91e4:	e8bd8010 	pop	{r4, pc}
    91e8:	e3e00000 	mvn	r0, #0
    91ec:	e8bd8010 	pop	{r4, pc}
    91f0:	000099a0 	andeq	r9, r0, r0, lsr #19

000091f4 <gpio_write>:
    91f4:	e92d4008 	push	{r3, lr}
    91f8:	e350001f 	cmp	r0, #31
    91fc:	88bd8008 	pophi	{r3, pc}
    9200:	e3510000 	cmp	r1, #0
    9204:	0a000001 	beq	9210 <gpio_write+0x1c>
    9208:	ebffff97 	bl	906c <gpio_set_on>
    920c:	e8bd8008 	pop	{r3, pc}
    9210:	ebffffa3 	bl	90a4 <gpio_set_off>
    9214:	e8bd8008 	pop	{r3, pc}

00009218 <gpio_set_function>:
    9218:	e92d4070 	push	{r4, r5, r6, lr}
    921c:	e1a04000 	mov	r4, r0
    9220:	e1a05001 	mov	r5, r1
    9224:	e3510007 	cmp	r1, #7
    9228:	9350001f 	cmpls	r0, #31
    922c:	88bd8070 	pophi	{r4, r5, r6, pc}
    9230:	e59f30b0 	ldr	r3, [pc, #176]	; 92e8 <gpio_set_function+0xd0>
    9234:	e0832093 	umull	r2, r3, r3, r0
    9238:	e1a031a3 	lsr	r3, r3, #3
    923c:	e3530005 	cmp	r3, #5
    9240:	979ff103 	ldrls	pc, [pc, r3, lsl #2]
    9244:	ea000017 	b	92a8 <gpio_set_function+0x90>
    9248:	00009260 	andeq	r9, r0, r0, ror #4
    924c:	0000926c 	andeq	r9, r0, ip, ror #4
    9250:	00009278 	andeq	r9, r0, r8, ror r2
    9254:	00009284 	andeq	r9, r0, r4, lsl #5
    9258:	00009290 	muleq	r0, r0, r2
    925c:	0000929c 	muleq	r0, ip, r2
    9260:	e59f3084 	ldr	r3, [pc, #132]	; 92ec <gpio_set_function+0xd4>
    9264:	e5936000 	ldr	r6, [r3]
    9268:	ea00000f 	b	92ac <gpio_set_function+0x94>
    926c:	e59f3078 	ldr	r3, [pc, #120]	; 92ec <gpio_set_function+0xd4>
    9270:	e5936004 	ldr	r6, [r3, #4]
    9274:	ea00000c 	b	92ac <gpio_set_function+0x94>
    9278:	e59f306c 	ldr	r3, [pc, #108]	; 92ec <gpio_set_function+0xd4>
    927c:	e5936008 	ldr	r6, [r3, #8]
    9280:	ea000009 	b	92ac <gpio_set_function+0x94>
    9284:	e59f3060 	ldr	r3, [pc, #96]	; 92ec <gpio_set_function+0xd4>
    9288:	e593600c 	ldr	r6, [r3, #12]
    928c:	ea000006 	b	92ac <gpio_set_function+0x94>
    9290:	e59f3054 	ldr	r3, [pc, #84]	; 92ec <gpio_set_function+0xd4>
    9294:	e5936010 	ldr	r6, [r3, #16]
    9298:	ea000003 	b	92ac <gpio_set_function+0x94>
    929c:	e59f3048 	ldr	r3, [pc, #72]	; 92ec <gpio_set_function+0xd4>
    92a0:	e5936014 	ldr	r6, [r3, #20]
    92a4:	ea000000 	b	92ac <gpio_set_function+0x94>
    92a8:	e3a06000 	mov	r6, #0
    92ac:	e1a00006 	mov	r0, r6
    92b0:	eb000132 	bl	9780 <get32>
    92b4:	e59f302c 	ldr	r3, [pc, #44]	; 92e8 <gpio_set_function+0xd0>
    92b8:	e0832493 	umull	r2, r3, r3, r4
    92bc:	e1a031a3 	lsr	r3, r3, #3
    92c0:	e0833103 	add	r3, r3, r3, lsl #2
    92c4:	e1a03083 	lsl	r3, r3, #1
    92c8:	e0633004 	rsb	r3, r3, r4
    92cc:	e0833083 	add	r3, r3, r3, lsl #1
    92d0:	e3a01007 	mov	r1, #7
    92d4:	e1c01311 	bic	r1, r0, r1, lsl r3
    92d8:	e1a00006 	mov	r0, r6
    92dc:	e1811315 	orr	r1, r1, r5, lsl r3
    92e0:	eb00011a 	bl	9750 <put32>
    92e4:	e8bd8070 	pop	{r4, r5, r6, pc}
    92e8:	cccccccd 	stclgt	12, cr12, [ip], {205}	; 0xcd
    92ec:	000099a0 	andeq	r9, r0, r0, lsr #19

000092f0 <gpio_toggle>:
    92f0:	e92d4008 	push	{r3, lr}
    92f4:	e350001f 	cmp	r0, #31
    92f8:	88bd8008 	pophi	{r3, pc}
    92fc:	959f3020 	ldrls	r3, [pc, #32]	; 9324 <gpio_toggle+0x34>
    9300:	95932018 	ldrls	r2, [r3, #24]
    9304:	859f3018 	ldrhi	r3, [pc, #24]	; 9324 <gpio_toggle+0x34>
    9308:	8593201c 	ldrhi	r2, [r3, #28]
    930c:	e200301f 	and	r3, r0, #31
    9310:	e1a00002 	mov	r0, r2
    9314:	e3a01001 	mov	r1, #1
    9318:	e1a01311 	lsl	r1, r1, r3
    931c:	eb00010b 	bl	9750 <put32>
    9320:	e8bd8008 	pop	{r3, pc}
    9324:	000099a0 	andeq	r9, r0, r0, lsr #19

00009328 <is_gpio_int>:
    9328:	e92d4008 	push	{r3, lr}
    932c:	e59f301c 	ldr	r3, [pc, #28]	; 9350 <is_gpio_int+0x28>
    9330:	e5930030 	ldr	r0, [r3, #48]	; 0x30
    9334:	eb000111 	bl	9780 <get32>
    9338:	e3500000 	cmp	r0, #0
    933c:	0a000001 	beq	9348 <is_gpio_int+0x20>
    9340:	e3a00001 	mov	r0, #1
    9344:	e8bd8008 	pop	{r3, pc}
    9348:	e3a00000 	mov	r0, #0
    934c:	e8bd8008 	pop	{r3, pc}
    9350:	000099a0 	andeq	r9, r0, r0, lsr #19

00009354 <gpio_int_rising_edge>:
    9354:	e92d4038 	push	{r3, r4, r5, lr}
    9358:	e1a04000 	mov	r4, r0
    935c:	e350001f 	cmp	r0, #31
    9360:	88bd8038 	pophi	{r3, r4, r5, pc}
    9364:	eb0000f3 	bl	9738 <dev_barrier>
    9368:	e354001f 	cmp	r4, #31
    936c:	8a000007 	bhi	9390 <gpio_int_rising_edge+0x3c>
    9370:	e59f505c 	ldr	r5, [pc, #92]	; 93d4 <gpio_int_rising_edge+0x80>
    9374:	e5950034 	ldr	r0, [r5, #52]	; 0x34
    9378:	eb000100 	bl	9780 <get32>
    937c:	e3a01001 	mov	r1, #1
    9380:	e1801411 	orr	r1, r0, r1, lsl r4
    9384:	e5950034 	ldr	r0, [r5, #52]	; 0x34
    9388:	eb0000f0 	bl	9750 <put32>
    938c:	ea000007 	b	93b0 <gpio_int_rising_edge+0x5c>
    9390:	e59f503c 	ldr	r5, [pc, #60]	; 93d4 <gpio_int_rising_edge+0x80>
    9394:	e5950038 	ldr	r0, [r5, #56]	; 0x38
    9398:	eb0000f8 	bl	9780 <get32>
    939c:	e204401f 	and	r4, r4, #31
    93a0:	e3a01001 	mov	r1, #1
    93a4:	e1801411 	orr	r1, r0, r1, lsl r4
    93a8:	e5950038 	ldr	r0, [r5, #56]	; 0x38
    93ac:	eb0000e7 	bl	9750 <put32>
    93b0:	eb0000e0 	bl	9738 <dev_barrier>
    93b4:	e59f4018 	ldr	r4, [pc, #24]	; 93d4 <gpio_int_rising_edge+0x80>
    93b8:	e594003c 	ldr	r0, [r4, #60]	; 0x3c
    93bc:	eb0000ef 	bl	9780 <get32>
    93c0:	e3801802 	orr	r1, r0, #131072	; 0x20000
    93c4:	e594003c 	ldr	r0, [r4, #60]	; 0x3c
    93c8:	eb0000e0 	bl	9750 <put32>
    93cc:	eb0000d9 	bl	9738 <dev_barrier>
    93d0:	e8bd8038 	pop	{r3, r4, r5, pc}
    93d4:	000099a0 	andeq	r9, r0, r0, lsr #19

000093d8 <gpio_int_falling_edge>:
    93d8:	e92d4038 	push	{r3, r4, r5, lr}
    93dc:	e1a04000 	mov	r4, r0
    93e0:	e350001f 	cmp	r0, #31
    93e4:	88bd8038 	pophi	{r3, r4, r5, pc}
    93e8:	eb0000d2 	bl	9738 <dev_barrier>
    93ec:	e354001f 	cmp	r4, #31
    93f0:	8a000007 	bhi	9414 <gpio_int_falling_edge+0x3c>
    93f4:	e59f505c 	ldr	r5, [pc, #92]	; 9458 <gpio_int_falling_edge+0x80>
    93f8:	e5950040 	ldr	r0, [r5, #64]	; 0x40
    93fc:	eb0000df 	bl	9780 <get32>
    9400:	e3a01001 	mov	r1, #1
    9404:	e1801411 	orr	r1, r0, r1, lsl r4
    9408:	e5950040 	ldr	r0, [r5, #64]	; 0x40
    940c:	eb0000cf 	bl	9750 <put32>
    9410:	ea000007 	b	9434 <gpio_int_falling_edge+0x5c>
    9414:	e59f503c 	ldr	r5, [pc, #60]	; 9458 <gpio_int_falling_edge+0x80>
    9418:	e5950044 	ldr	r0, [r5, #68]	; 0x44
    941c:	eb0000d7 	bl	9780 <get32>
    9420:	e204401f 	and	r4, r4, #31
    9424:	e3a01001 	mov	r1, #1
    9428:	e1801411 	orr	r1, r0, r1, lsl r4
    942c:	e5950044 	ldr	r0, [r5, #68]	; 0x44
    9430:	eb0000c6 	bl	9750 <put32>
    9434:	eb0000bf 	bl	9738 <dev_barrier>
    9438:	e59f4018 	ldr	r4, [pc, #24]	; 9458 <gpio_int_falling_edge+0x80>
    943c:	e594003c 	ldr	r0, [r4, #60]	; 0x3c
    9440:	eb0000ce 	bl	9780 <get32>
    9444:	e3801601 	orr	r1, r0, #1048576	; 0x100000
    9448:	e594003c 	ldr	r0, [r4, #60]	; 0x3c
    944c:	eb0000bf 	bl	9750 <put32>
    9450:	eb0000b8 	bl	9738 <dev_barrier>
    9454:	e8bd8038 	pop	{r3, r4, r5, pc}
    9458:	000099a0 	andeq	r9, r0, r0, lsr #19

0000945c <gpio_event_detected>:
    945c:	e92d4010 	push	{r4, lr}
    9460:	e1a04000 	mov	r4, r0
    9464:	e350001f 	cmp	r0, #31
    9468:	8a000019 	bhi	94d4 <gpio_event_detected+0x78>
    946c:	eb0000b1 	bl	9738 <dev_barrier>
    9470:	e354001f 	cmp	r4, #31
    9474:	8a000008 	bhi	949c <gpio_event_detected+0x40>
    9478:	e59f305c 	ldr	r3, [pc, #92]	; 94dc <gpio_event_detected+0x80>
    947c:	e5930048 	ldr	r0, [r3, #72]	; 0x48
    9480:	eb0000be 	bl	9780 <get32>
    9484:	e3a03001 	mov	r3, #1
    9488:	e0103413 	ands	r3, r0, r3, lsl r4
    948c:	0a00000d 	beq	94c8 <gpio_event_detected+0x6c>
    9490:	eb0000a8 	bl	9738 <dev_barrier>
    9494:	e3a00001 	mov	r0, #1
    9498:	e8bd8010 	pop	{r4, pc}
    949c:	e59f3038 	ldr	r3, [pc, #56]	; 94dc <gpio_event_detected+0x80>
    94a0:	e593004c 	ldr	r0, [r3, #76]	; 0x4c
    94a4:	eb0000b5 	bl	9780 <get32>
    94a8:	e3a03001 	mov	r3, #1
    94ac:	e0004413 	and	r4, r0, r3, lsl r4
    94b0:	eb0000a0 	bl	9738 <dev_barrier>
    94b4:	e3540000 	cmp	r4, #0
    94b8:	0a000002 	beq	94c8 <gpio_event_detected+0x6c>
    94bc:	eb00009d 	bl	9738 <dev_barrier>
    94c0:	e3a00001 	mov	r0, #1
    94c4:	e8bd8010 	pop	{r4, pc}
    94c8:	eb00009a 	bl	9738 <dev_barrier>
    94cc:	e3a00000 	mov	r0, #0
    94d0:	e8bd8010 	pop	{r4, pc}
    94d4:	e3e00000 	mvn	r0, #0
    94d8:	e8bd8010 	pop	{r4, pc}
    94dc:	000099a0 	andeq	r9, r0, r0, lsr #19

000094e0 <gpio_event_clear>:
    94e0:	e92d4010 	push	{r4, lr}
    94e4:	e1a04000 	mov	r4, r0
    94e8:	e350001f 	cmp	r0, #31
    94ec:	88bd8010 	pophi	{r4, pc}
    94f0:	eb000090 	bl	9738 <dev_barrier>
    94f4:	e354001f 	cmp	r4, #31
    94f8:	8a000005 	bhi	9514 <gpio_event_clear+0x34>
    94fc:	e59f3030 	ldr	r3, [pc, #48]	; 9534 <gpio_event_clear+0x54>
    9500:	e5930048 	ldr	r0, [r3, #72]	; 0x48
    9504:	e3a01001 	mov	r1, #1
    9508:	e1a01411 	lsl	r1, r1, r4
    950c:	eb00008f 	bl	9750 <put32>
    9510:	ea000005 	b	952c <gpio_event_clear+0x4c>
    9514:	e204401f 	and	r4, r4, #31
    9518:	e59f3014 	ldr	r3, [pc, #20]	; 9534 <gpio_event_clear+0x54>
    951c:	e593004c 	ldr	r0, [r3, #76]	; 0x4c
    9520:	e3a01001 	mov	r1, #1
    9524:	e1a01411 	lsl	r1, r1, r4
    9528:	eb000088 	bl	9750 <put32>
    952c:	eb000081 	bl	9738 <dev_barrier>
    9530:	e8bd8010 	pop	{r4, pc}
    9534:	000099a0 	andeq	r9, r0, r0, lsr #19

00009538 <uart_init>:
    9538:	e92d4038 	push	{r3, r4, r5, lr}
    953c:	eb00007d 	bl	9738 <dev_barrier>
    9540:	e3a0000e 	mov	r0, #14
    9544:	e3a01002 	mov	r1, #2
    9548:	ebffff32 	bl	9218 <gpio_set_function>
    954c:	e3a0000f 	mov	r0, #15
    9550:	e3a01002 	mov	r1, #2
    9554:	ebffff2f 	bl	9218 <gpio_set_function>
    9558:	eb000076 	bl	9738 <dev_barrier>
    955c:	e59f4068 	ldr	r4, [pc, #104]	; 95cc <uart_init+0x94>
    9560:	e5945000 	ldr	r5, [r4]
    9564:	e1a00005 	mov	r0, r5
    9568:	eb000084 	bl	9780 <get32>
    956c:	e3801001 	orr	r1, r0, #1
    9570:	e1a00005 	mov	r0, r5
    9574:	eb000075 	bl	9750 <put32>
    9578:	eb00006e 	bl	9738 <dev_barrier>
    957c:	e5940004 	ldr	r0, [r4, #4]
    9580:	e3a01000 	mov	r1, #0
    9584:	eb000071 	bl	9750 <put32>
    9588:	e5940008 	ldr	r0, [r4, #8]
    958c:	e3a01000 	mov	r1, #0
    9590:	eb00006e 	bl	9750 <put32>
    9594:	e594000c 	ldr	r0, [r4, #12]
    9598:	e3a01006 	mov	r1, #6
    959c:	eb00006b 	bl	9750 <put32>
    95a0:	e5940010 	ldr	r0, [r4, #16]
    95a4:	e3a01003 	mov	r1, #3
    95a8:	eb000068 	bl	9750 <put32>
    95ac:	e5940014 	ldr	r0, [r4, #20]
    95b0:	e59f1018 	ldr	r1, [pc, #24]	; 95d0 <uart_init+0x98>
    95b4:	eb000065 	bl	9750 <put32>
    95b8:	e5940004 	ldr	r0, [r4, #4]
    95bc:	e3a01003 	mov	r1, #3
    95c0:	eb000062 	bl	9750 <put32>
    95c4:	eb00005b 	bl	9738 <dev_barrier>
    95c8:	e8bd8038 	pop	{r3, r4, r5, pc}
    95cc:	00009a00 	andeq	r9, r0, r0, lsl #20
    95d0:	0000010e 	andeq	r0, r0, lr, lsl #2

000095d4 <uart_can_getc>:
    95d4:	e92d4008 	push	{r3, lr}
    95d8:	e59f300c 	ldr	r3, [pc, #12]	; 95ec <uart_can_getc+0x18>
    95dc:	e5930018 	ldr	r0, [r3, #24]
    95e0:	eb000066 	bl	9780 <get32>
    95e4:	e2000001 	and	r0, r0, #1
    95e8:	e8bd8008 	pop	{r3, pc}
    95ec:	00009a00 	andeq	r9, r0, r0, lsl #20

000095f0 <uart_getc>:
    95f0:	e92d4008 	push	{r3, lr}
    95f4:	ebfffff6 	bl	95d4 <uart_can_getc>
    95f8:	e3500000 	cmp	r0, #0
    95fc:	0afffffc 	beq	95f4 <uart_getc+0x4>
    9600:	e59f300c 	ldr	r3, [pc, #12]	; 9614 <uart_getc+0x24>
    9604:	e593001c 	ldr	r0, [r3, #28]
    9608:	eb00005c 	bl	9780 <get32>
    960c:	e6ef0070 	uxtb	r0, r0
    9610:	e8bd8008 	pop	{r3, pc}
    9614:	00009a00 	andeq	r9, r0, r0, lsl #20

00009618 <uart_can_putc>:
    9618:	e92d4008 	push	{r3, lr}
    961c:	e59f300c 	ldr	r3, [pc, #12]	; 9630 <uart_can_putc+0x18>
    9620:	e5930018 	ldr	r0, [r3, #24]
    9624:	eb000055 	bl	9780 <get32>
    9628:	e2000020 	and	r0, r0, #32
    962c:	e8bd8008 	pop	{r3, pc}
    9630:	00009a00 	andeq	r9, r0, r0, lsl #20

00009634 <uart_putc>:
    9634:	e92d4010 	push	{r4, lr}
    9638:	e1a04000 	mov	r4, r0
    963c:	ebfffff5 	bl	9618 <uart_can_putc>
    9640:	e3500000 	cmp	r0, #0
    9644:	0afffffc 	beq	963c <uart_putc+0x8>
    9648:	e59f300c 	ldr	r3, [pc, #12]	; 965c <uart_putc+0x28>
    964c:	e593001c 	ldr	r0, [r3, #28]
    9650:	e1a01004 	mov	r1, r4
    9654:	eb00003d 	bl	9750 <put32>
    9658:	e8bd8010 	pop	{r4, pc}
    965c:	00009a00 	andeq	r9, r0, r0, lsl #20

00009660 <uart_has_data>:
    9660:	e92d4008 	push	{r3, lr}
    9664:	ebffffda 	bl	95d4 <uart_can_getc>
    9668:	e8bd8008 	pop	{r3, pc}

0000966c <uart_getc_async>:
    966c:	e92d4008 	push	{r3, lr}
    9670:	ebfffffa 	bl	9660 <uart_has_data>
    9674:	e3500000 	cmp	r0, #0
    9678:	0a000001 	beq	9684 <uart_getc_async+0x18>
    967c:	ebffffdb 	bl	95f0 <uart_getc>
    9680:	e8bd8008 	pop	{r3, pc}
    9684:	e3e00000 	mvn	r0, #0
    9688:	e8bd8008 	pop	{r3, pc}

0000968c <int_init>:
    968c:	e92d4008 	push	{r3, lr}
    9690:	e59f004c 	ldr	r0, [pc, #76]	; 96e4 <int_init+0x58>
    9694:	e3e01000 	mvn	r1, #0
    9698:	eb00002e 	bl	9758 <PUT32>
    969c:	e59f0044 	ldr	r0, [pc, #68]	; 96e8 <int_init+0x5c>
    96a0:	e3e01000 	mvn	r1, #0
    96a4:	eb00002b 	bl	9758 <PUT32>
    96a8:	eb000022 	bl	9738 <dev_barrier>
    96ac:	e59f3038 	ldr	r3, [pc, #56]	; 96ec <int_init+0x60>
    96b0:	e59f0038 	ldr	r0, [pc, #56]	; 96f0 <int_init+0x64>
    96b4:	e0630000 	rsb	r0, r3, r0
    96b8:	e1a00140 	asr	r0, r0, #2
    96bc:	e3a03000 	mov	r3, #0
    96c0:	e59fc024 	ldr	ip, [pc, #36]	; 96ec <int_init+0x60>
    96c4:	ea000003 	b	96d8 <int_init+0x4c>
    96c8:	e1a02103 	lsl	r2, r3, #2
    96cc:	e79c1103 	ldr	r1, [ip, r3, lsl #2]
    96d0:	e5821000 	str	r1, [r2]
    96d4:	e2833001 	add	r3, r3, #1
    96d8:	e1530000 	cmp	r3, r0
    96dc:	3afffff9 	bcc	96c8 <int_init+0x3c>
    96e0:	e8bd8008 	pop	{r3, pc}
    96e4:	2000b21c 	andcs	fp, r0, ip, lsl r2
    96e8:	2000b220 	andcs	fp, r0, r0, lsr #4
    96ec:	000097bc 			; <UNDEFINED> instruction: 0x000097bc
    96f0:	0000980c 	andeq	r9, r0, ip, lsl #16

000096f4 <fast_interrupt_vector>:
    96f4:	e52de004 	push	{lr}		; (str lr, [sp, #-4]!)
    96f8:	e24dd00c 	sub	sp, sp, #12
    96fc:	e1a04000 	mov	r4, r0
    9700:	ebfffc71 	bl	88cc <rpi_reset_putc>
    9704:	e59f301c 	ldr	r3, [pc, #28]	; 9728 <fast_interrupt_vector+0x34>
    9708:	e58d3000 	str	r3, [sp]
    970c:	e58d4004 	str	r4, [sp, #4]
    9710:	e59f0014 	ldr	r0, [pc, #20]	; 972c <fast_interrupt_vector+0x38>
    9714:	e59f1014 	ldr	r1, [pc, #20]	; 9730 <fast_interrupt_vector+0x3c>
    9718:	e59f2014 	ldr	r2, [pc, #20]	; 9734 <fast_interrupt_vector+0x40>
    971c:	e3a0302f 	mov	r3, #47	; 0x2f
    9720:	ebfffc4e 	bl	8860 <printk>
    9724:	ebfffdc5 	bl	8e40 <clean_reboot>
    9728:	00009d54 	andeq	r9, r0, r4, asr sp
    972c:	00009cf8 	strdeq	r9, [r0], -r8
    9730:	00009d34 	andeq	r9, r0, r4, lsr sp
    9734:	00009ce0 	andeq	r9, r0, r0, ror #25

00009738 <dev_barrier>:
    9738:	ea000002 	b	9748 <dsb>

0000973c <dmb>:
    973c:	e3a00000 	mov	r0, #0
    9740:	ee070fba 	mcr	15, 0, r0, cr7, cr10, {5}
    9744:	e12fff1e 	bx	lr

00009748 <dsb>:
    9748:	ee070f9a 	mcr	15, 0, r0, cr7, cr10, {4}
    974c:	e12fff1e 	bx	lr

00009750 <put32>:
    9750:	e5801000 	str	r1, [r0]
    9754:	e12fff1e 	bx	lr

00009758 <PUT32>:
    9758:	e5801000 	str	r1, [r0]
    975c:	e12fff1e 	bx	lr

00009760 <put16>:
    9760:	e1c010b0 	strh	r1, [r0]
    9764:	e12fff1e 	bx	lr

00009768 <PUT16>:
    9768:	e1c010b0 	strh	r1, [r0]
    976c:	e12fff1e 	bx	lr

00009770 <put8>:
    9770:	e5c01000 	strb	r1, [r0]
    9774:	e12fff1e 	bx	lr

00009778 <PUT8>:
    9778:	e5c01000 	strb	r1, [r0]
    977c:	e12fff1e 	bx	lr

00009780 <get32>:
    9780:	e5900000 	ldr	r0, [r0]
    9784:	e12fff1e 	bx	lr

00009788 <GET32>:
    9788:	e5900000 	ldr	r0, [r0]
    978c:	e12fff1e 	bx	lr

00009790 <GETPC>:
    9790:	e1a0000e 	mov	r0, lr
    9794:	e12fff1e 	bx	lr

00009798 <dummy>:
    9798:	e12fff1e 	bx	lr

0000979c <system_enable_interrupts>:
    979c:	e10f0000 	mrs	r0, CPSR
    97a0:	e3c00080 	bic	r0, r0, #128	; 0x80
    97a4:	e121f000 	msr	CPSR_c, r0
    97a8:	e12fff1e 	bx	lr

000097ac <system_disable_interrupts>:
    97ac:	e10f0000 	mrs	r0, CPSR
    97b0:	e3800080 	orr	r0, r0, #128	; 0x80
    97b4:	e121f000 	msr	CPSR_c, r0
    97b8:	e12fff1e 	bx	lr

000097bc <_interrupt_table>:
    97bc:	e59ff030 	ldr	pc, [pc, #48]	; 97f4 <_reset_asm>
    97c0:	e59ff030 	ldr	pc, [pc, #48]	; 97f8 <_undefined_instruction_asm>
    97c4:	e59ff030 	ldr	pc, [pc, #48]	; 97fc <_software_interrupt_asm>
    97c8:	e59ff030 	ldr	pc, [pc, #48]	; 9800 <_prefetch_abort_asm>
    97cc:	e59ff030 	ldr	pc, [pc, #48]	; 9804 <_data_abort_asm>
    97d0:	e59ff01c 	ldr	pc, [pc, #28]	; 97f4 <_reset_asm>
    97d4:	e59ff02c 	ldr	pc, [pc, #44]	; 9808 <_interrupt_asm>

000097d8 <fast_interrupt_asm>:
    97d8:	e24ee004 	sub	lr, lr, #4
    97dc:	e52de004 	push	{lr}		; (str lr, [sp, #-4]!)
    97e0:	e92d1fff 	push	{r0, r1, r2, r3, r4, r5, r6, r7, r8, r9, sl, fp, ip}
    97e4:	e1a0000e 	mov	r0, lr
    97e8:	ebffffc1 	bl	96f4 <fast_interrupt_vector>
    97ec:	e8bd1fff 	pop	{r0, r1, r2, r3, r4, r5, r6, r7, r8, r9, sl, fp, ip}
    97f0:	e8fd8000 	ldm	sp!, {pc}^

000097f4 <_reset_asm>:
    97f4:	00009854 	andeq	r9, r0, r4, asr r8

000097f8 <_undefined_instruction_asm>:
    97f8:	0000985c 	andeq	r9, r0, ip, asr r8

000097fc <_software_interrupt_asm>:
    97fc:	00009828 	andeq	r9, r0, r8, lsr #16

00009800 <_prefetch_abort_asm>:
    9800:	00009864 	andeq	r9, r0, r4, ror #16

00009804 <_data_abort_asm>:
    9804:	0000986c 	andeq	r9, r0, ip, ror #16

00009808 <_interrupt_asm>:
    9808:	0000980c 	andeq	r9, r0, ip, lsl #16

0000980c <_interrupt_table_end>:
    980c:	e3a0d409 	mov	sp, #150994944	; 0x9000000
    9810:	e24ee004 	sub	lr, lr, #4
    9814:	e92d5fff 	push	{r0, r1, r2, r3, r4, r5, r6, r7, r8, r9, sl, fp, ip, lr}
    9818:	e1a0000e 	mov	r0, lr
    981c:	ebfffaf6 	bl	83fc <interrupt_vector>
    9820:	e8bd5fff 	pop	{r0, r1, r2, r3, r4, r5, r6, r7, r8, r9, sl, fp, ip, lr}
    9824:	e1b0f00e 	movs	pc, lr

00009828 <software_interrupt_asm>:
    9828:	e52de004 	push	{lr}		; (str lr, [sp, #-4]!)
    982c:	e92d1ffe 	push	{r1, r2, r3, r4, r5, r6, r7, r8, r9, sl, fp, ip}
    9830:	e24ee004 	sub	lr, lr, #4
    9834:	e1a0200e 	mov	r2, lr
    9838:	e1a01000 	mov	r1, r0
    983c:	e1a0000e 	mov	r0, lr
    9840:	eb000003 	bl	9854 <reset_asm>
    9844:	e8bd1ffe 	pop	{r1, r2, r3, r4, r5, r6, r7, r8, r9, sl, fp, ip}
    9848:	e49de004 	pop	{lr}		; (ldr lr, [sp], #4)
    984c:	e8fd8000 	ldm	sp!, {pc}^
    9850:	e1b0f00e 	movs	pc, lr

00009854 <reset_asm>:
    9854:	e24ee004 	sub	lr, lr, #4
    9858:	eb00002c 	bl	9910 <reset_vector>

0000985c <undefined_instruction_asm>:
    985c:	e24ee004 	sub	lr, lr, #4
    9860:	eb00003b 	bl	9954 <undefined_instruction_vector>

00009864 <prefetch_abort_asm>:
    9864:	e24ee004 	sub	lr, lr, #4
    9868:	eb000017 	bl	98cc <prefetch_abort_vector>

0000986c <data_abort_asm>:
    986c:	e3a0d409 	mov	sp, #150994944	; 0x9000000
    9870:	e24ee008 	sub	lr, lr, #8
    9874:	e92d5fff 	push	{r0, r1, r2, r3, r4, r5, r6, r7, r8, r9, sl, fp, ip, lr}
    9878:	e1a0000e 	mov	r0, lr
    987c:	eb000001 	bl	9888 <data_abort_vector>
    9880:	e8bd5fff 	pop	{r0, r1, r2, r3, r4, r5, r6, r7, r8, r9, sl, fp, ip, lr}
    9884:	e1b0f00e 	movs	pc, lr

00009888 <data_abort_vector>:
    9888:	e52de004 	push	{lr}		; (str lr, [sp, #-4]!)
    988c:	e24dd00c 	sub	sp, sp, #12
    9890:	e1a04000 	mov	r4, r0
    9894:	ebfffc0c 	bl	88cc <rpi_reset_putc>
    9898:	e59f301c 	ldr	r3, [pc, #28]	; 98bc <data_abort_vector+0x34>
    989c:	e58d3000 	str	r3, [sp]
    98a0:	e58d4004 	str	r4, [sp, #4]
    98a4:	e59f0014 	ldr	r0, [pc, #20]	; 98c0 <data_abort_vector+0x38>
    98a8:	e59f1014 	ldr	r1, [pc, #20]	; 98c4 <data_abort_vector+0x3c>
    98ac:	e59f2014 	ldr	r2, [pc, #20]	; 98c8 <data_abort_vector+0x40>
    98b0:	e3a03002 	mov	r3, #2
    98b4:	ebfffbe9 	bl	8860 <printk>
    98b8:	ebfffd60 	bl	8e40 <clean_reboot>
    98bc:	00009da0 	andeq	r9, r0, r0, lsr #27
    98c0:	00009cf8 	strdeq	r9, [r0], -r8
    98c4:	00009d70 	andeq	r9, r0, r0, ror sp
    98c8:	00009d5c 	andeq	r9, r0, ip, asr sp

000098cc <prefetch_abort_vector>:
    98cc:	e52de004 	push	{lr}		; (str lr, [sp, #-4]!)
    98d0:	e24dd00c 	sub	sp, sp, #12
    98d4:	e1a04000 	mov	r4, r0
    98d8:	ebfffbfb 	bl	88cc <rpi_reset_putc>
    98dc:	e59f301c 	ldr	r3, [pc, #28]	; 9900 <prefetch_abort_vector+0x34>
    98e0:	e58d3000 	str	r3, [sp]
    98e4:	e58d4004 	str	r4, [sp, #4]
    98e8:	e59f0014 	ldr	r0, [pc, #20]	; 9904 <prefetch_abort_vector+0x38>
    98ec:	e59f1014 	ldr	r1, [pc, #20]	; 9908 <prefetch_abort_vector+0x3c>
    98f0:	e59f2014 	ldr	r2, [pc, #20]	; 990c <prefetch_abort_vector+0x40>
    98f4:	e3a03002 	mov	r3, #2
    98f8:	ebfffbd8 	bl	8860 <printk>
    98fc:	ebfffd4f 	bl	8e40 <clean_reboot>
    9900:	00009df0 	strdeq	r9, [r0], -r0
    9904:	00009cf8 	strdeq	r9, [r0], -r8
    9908:	00009dc4 	andeq	r9, r0, r4, asr #27
    990c:	00009dac 	andeq	r9, r0, ip, lsr #27

00009910 <reset_vector>:
    9910:	e52de004 	push	{lr}		; (str lr, [sp, #-4]!)
    9914:	e24dd00c 	sub	sp, sp, #12
    9918:	e1a04000 	mov	r4, r0
    991c:	ebfffbea 	bl	88cc <rpi_reset_putc>
    9920:	e59f301c 	ldr	r3, [pc, #28]	; 9944 <reset_vector+0x34>
    9924:	e58d3000 	str	r3, [sp]
    9928:	e58d4004 	str	r4, [sp, #4]
    992c:	e59f0014 	ldr	r0, [pc, #20]	; 9948 <reset_vector+0x38>
    9930:	e59f1014 	ldr	r1, [pc, #20]	; 994c <reset_vector+0x3c>
    9934:	e59f2014 	ldr	r2, [pc, #20]	; 9950 <reset_vector+0x40>
    9938:	e3a03002 	mov	r3, #2
    993c:	ebfffbc7 	bl	8860 <printk>
    9940:	ebfffd3e 	bl	8e40 <clean_reboot>
    9944:	00009e3c 	andeq	r9, r0, ip, lsr lr
    9948:	00009cf8 	strdeq	r9, [r0], -r8
    994c:	00009e10 	andeq	r9, r0, r0, lsl lr
    9950:	00009e00 	andeq	r9, r0, r0, lsl #28

00009954 <undefined_instruction_vector>:
    9954:	e52de004 	push	{lr}		; (str lr, [sp, #-4]!)
    9958:	e24dd00c 	sub	sp, sp, #12
    995c:	e1a04000 	mov	r4, r0
    9960:	ebfffbd9 	bl	88cc <rpi_reset_putc>
    9964:	e59f301c 	ldr	r3, [pc, #28]	; 9988 <undefined_instruction_vector+0x34>
    9968:	e58d3000 	str	r3, [sp]
    996c:	e58d4004 	str	r4, [sp, #4]
    9970:	e59f0014 	ldr	r0, [pc, #20]	; 998c <undefined_instruction_vector+0x38>
    9974:	e59f1014 	ldr	r1, [pc, #20]	; 9990 <undefined_instruction_vector+0x3c>
    9978:	e59f2014 	ldr	r2, [pc, #20]	; 9994 <undefined_instruction_vector+0x40>
    997c:	e3a03002 	mov	r3, #2
    9980:	ebfffbb6 	bl	8860 <printk>
    9984:	ebfffd2d 	bl	8e40 <clean_reboot>
    9988:	00009e98 	muleq	r0, r8, lr
    998c:	00009cf8 	strdeq	r9, [r0], -r8
    9990:	00009e64 	andeq	r9, r0, r4, ror #28
    9994:	00009e44 	andeq	r9, r0, r4, asr #28

Disassembly of section .data:

00009998 <rpi_putchar>:
    9998:	000088b8 			; <UNDEFINED> instruction: 0x000088b8

0000999c <putk>:
    999c:	000088f4 	strdeq	r8, [r0], -r4

000099a0 <GPFSEL0>:
    99a0:	20200000 	eorcs	r0, r0, r0

000099a4 <GPFSEL1>:
    99a4:	20200004 	eorcs	r0, r0, r4

000099a8 <GPFSEL2>:
    99a8:	20200008 	eorcs	r0, r0, r8

000099ac <GPFSEL3>:
    99ac:	2020000c 	eorcs	r0, r0, ip

000099b0 <GPFSEL4>:
    99b0:	20200010 	eorcs	r0, r0, r0, lsl r0

000099b4 <GPFSEL5>:
    99b4:	20200014 	eorcs	r0, r0, r4, lsl r0

000099b8 <GPSET0>:
    99b8:	2020001c 	eorcs	r0, r0, ip, lsl r0

000099bc <GPSET1>:
    99bc:	20200020 	eorcs	r0, r0, r0, lsr #32

000099c0 <GPCLR0>:
    99c0:	20200028 	eorcs	r0, r0, r8, lsr #32

000099c4 <GPCLR1>:
    99c4:	2020002c 	eorcs	r0, r0, ip, lsr #32

000099c8 <GPLEV0>:
    99c8:	20200034 	eorcs	r0, r0, r4, lsr r0

000099cc <GPLEV1>:
    99cc:	20200038 	eorcs	r0, r0, r8, lsr r0

000099d0 <IRQ_PENDING_2>:
    99d0:	2000b208 	andcs	fp, r0, r8, lsl #4

000099d4 <GPREN0>:
    99d4:	2020004c 	eorcs	r0, r0, ip, asr #32

000099d8 <GPREN1>:
    99d8:	20200050 	eorcs	r0, r0, r0, asr r0

000099dc <ENABLE_IRQS_2>:
    99dc:	2000b214 	andcs	fp, r0, r4, lsl r2

000099e0 <GPFEN0>:
    99e0:	20200058 	eorcs	r0, r0, r8, asr r0

000099e4 <GPFEN1>:
    99e4:	2020005c 	eorcs	r0, r0, ip, asr r0

000099e8 <GPEDS0>:
    99e8:	20200040 	eorcs	r0, r0, r0, asr #32

000099ec <GPEDS1>:
    99ec:	20200044 	eorcs	r0, r0, r4, asr #32

000099f0 <IRQ_PENDING_1>:
    99f0:	2000b204 	andcs	fp, r0, r4, lsl #4

000099f4 <gpio_clr0>:
    99f4:	20200028 	eorcs	r0, r0, r8, lsr #32

000099f8 <gpio_set0>:
    99f8:	2020001c 	eorcs	r0, r0, ip, lsl r0

000099fc <gpio_fsel0>:
    99fc:	20200000 	eorcs	r0, r0, r0

00009a00 <AUX_ENABLES>:
    9a00:	20215004 	eorcs	r5, r1, r4

00009a04 <AUX_MU_CNTL_REG>:
    9a04:	20215060 	eorcs	r5, r1, r0, rrx

00009a08 <AUX_MU_IER_REG>:
    9a08:	20215044 	eorcs	r5, r1, r4, asr #32

00009a0c <AUX_MU_IIR_REG>:
    9a0c:	20215048 	eorcs	r5, r1, r8, asr #32

00009a10 <AUX_MU_LCR_REG>:
    9a10:	2021504c 	eorcs	r5, r1, ip, asr #32

00009a14 <AUX_MU_BAUD_REG>:
    9a14:	20215068 	eorcs	r5, r1, r8, rrx

00009a18 <AUX_MU_LSR_REG>:
    9a18:	20215054 	eorcs	r5, r1, r4, asr r0

00009a1c <AUX_MU_IO_REG>:
    9a1c:	20215040 	eorcs	r5, r1, r0, asr #32

00009a20 <AUX_MU_STAT_REG>:
    9a20:	20215064 	eorcs	r5, r1, r4, rrx

00009a24 <AUX_MU_SCRATCH>:
    9a24:	2021505c 	eorcs	r5, r1, ip, asr r0

00009a28 <AUX_MU_MSR_REG>:
    9a28:	20215058 	eorcs	r5, r1, r8, asr r0

00009a2c <AUX_MU_MCR_REG>:
    9a2c:	20215050 	eorcs	r5, r1, r0, asr r0

00009a30 <AUX_IRQ>:
    9a30:	20215000 	eorcs	r5, r1, r0

Disassembly of section .rodata:

00009a34 <__FUNCTION__.4472>:
    9a34:	6c637963 	stclvs	9, cr7, [r3], #-396	; 0xfffffe74
    9a38:	705f7365 	subsvc	r7, pc, r5, ror #6
    9a3c:	735f7265 	cmpvc	pc, #1342177286	; 0x50000006
    9a40:	00006365 	andeq	r6, r0, r5, ror #6

00009a44 <__FUNCTION__.4305>:
    9a44:	705f7163 	subsvc	r7, pc, r3, ror #2
    9a48:	0000706f 	andeq	r7, r0, pc, rrx

00009a4c <__FUNCTION__.4364>:
    9a4c:	695f7163 	ldmdbvs	pc, {r0, r1, r5, r6, r8, ip, sp, lr}^	; <UNPREDICTABLE>
    9a50:	0074696e 	rsbseq	r6, r4, lr, ror #18
    9a54:	4f525245 	svcmi	0x00525245
    9a58:	73253a52 	teqvc	r5, #335872	; 0x52000
    9a5c:	3a73253a 	bcc	1cd2f4c <__bss_end__+0x1cc6c74>
    9a60:	203a6425 	eorscs	r6, sl, r5, lsr #8
    9a64:	534c4146 	movtpl	r4, #49478	; 0xc146
    9a68:	733c2845 	teqvc	ip, #4521984	; 0x450000
    9a6c:	32203c20 	eorcc	r3, r0, #32, 24	; 0x2000
    9a70:	203a293e 	eorscs	r2, sl, lr, lsr r9
    9a74:	6c6c6977 	stclvs	9, cr6, [ip], #-476	; 0xfffffe24
    9a78:	65766f20 	ldrbvs	r6, [r6, #-3872]!	; 0xf20
    9a7c:	6f6c6672 	svcvs	0x006c6672
    9a80:	00000a77 	andeq	r0, r0, r7, ror sl
    9a84:	6f6c2d32 	svcvs	0x006c2d32
    9a88:	2d636967 	stclcs	9, cr6, [r3, #-412]!	; 0xfffffe64
    9a8c:	6c616e61 	stclvs	14, cr6, [r1], #-388	; 0xfffffe7c
    9a90:	72657a79 	rsbvc	r7, r5, #495616	; 0x79000
    9a94:	0000632e 	andeq	r6, r0, lr, lsr #6
    9a98:	61206d61 	teqvs	r0, r1, ror #26
    9a9c:	696c6320 	stmdbvs	ip!, {r5, r8, r9, sp, lr}^
    9aa0:	20746e65 	rsbscs	r6, r4, r5, ror #28
    9aa4:	0000000a 	andeq	r0, r0, sl
    9aa8:	494e4150 	stmdbmi	lr, {r4, r6, r8, lr}^
    9aac:	73253a43 	teqvc	r5, #274432	; 0x43000
    9ab0:	3a73253a 	bcc	1cd2fa0 <__bss_end__+0x1cc6cc8>
    9ab4:	773a6425 	ldrvc	r6, [sl, -r5, lsr #8]!
    9ab8:	206c6c69 	rsbcs	r6, ip, r9, ror #24
    9abc:	64616564 	strbtvs	r6, [r1], #-1380	; 0x564
    9ac0:	6b636f6c 	blvs	18e5878 <__bss_end__+0x18d95a0>
    9ac4:	6e69203a 	mcrvs	0, 3, r2, cr9, cr10, {1}
    9ac8:	72726574 	rsbsvc	r6, r2, #116, 10	; 0x1d000000
    9acc:	73747075 	cmnvc	r4, #117	; 0x75
    9ad0:	746f6e20 	strbtvc	r6, [pc], #-3616	; 9ad8 <__FUNCTION__.4364+0x8c>
    9ad4:	616e6520 	cmnvs	lr, r0, lsr #10
    9ad8:	64656c62 	strbtvs	r6, [r5], #-3170	; 0xc62
    9adc:	49465b20 	stmdbmi	r6, {r5, r8, r9, fp, ip, lr}^
    9ae0:	5d454d58 	stclpl	13, cr4, [r5, #-352]	; 0xfffffea0
    9ae4:	00000a0a 	andeq	r0, r0, sl, lsl #20
    9ae8:	6573552f 	ldrbvs	r5, [r3, #-1327]!	; 0x52f
    9aec:	622f7372 	eorvs	r7, pc, #-939524095	; 0xc8000001
    9af0:	6e616972 	mcrvs	9, 3, r6, cr1, cr2, {3}
    9af4:	2f6e756a 	svccs	0x006e756a
    9af8:	6b736544 	blvs	1ce3010 <__bss_end__+0x1cd6d38>
    9afc:	2f706f74 	svccs	0x00706f74
    9b00:	6f686373 	svcvs	0x00686373
    9b04:	572f6c6f 	strpl	r6, [pc, -pc, ror #24]!
    9b08:	65746e69 	ldrbvs	r6, [r4, #-3689]!	; 0xe69
    9b0c:	32393172 	eorscc	r3, r9, #-2147483620	; 0x8000001c
    9b10:	53432f30 	movtpl	r2, #16176	; 0x3f30
    9b14:	45303431 	ldrmi	r3, [r0, #-1073]!	; 0x431
    9b18:	3173632f 	cmncc	r3, pc, lsr #6
    9b1c:	2d653034 	stclcs	0, cr3, [r5, #-208]!	; 0xffffff30
    9b20:	69773032 	ldmdbvs	r7!, {r1, r4, r5, ip, sp}^
    9b24:	696c2f6e 	stmdbvs	ip!, {r1, r2, r3, r5, r6, r8, r9, sl, fp, sp}^
    9b28:	2f697062 	svccs	0x00697062
    9b2c:	6362696c 	cmnvs	r2, #108, 18	; 0x1b0000
    9b30:	7269632f 	rsbvc	r6, r9, #-1140850688	; 0xbc000000
    9b34:	616c7563 	cmnvs	ip, r3, ror #10
    9b38:	00682e72 	rsbeq	r2, r8, r2, ror lr
    9b3c:	494e4150 	stmdbmi	lr, {r4, r6, r8, lr}^
    9b40:	73253a43 	teqvc	r5, #274432	; 0x43000
    9b44:	3a73253a 	bcc	1cd3034 <__bss_end__+0x1cc6d5c>
    9b48:	633a6425 	teqvs	sl, #620756992	; 0x25000000
    9b4c:	6d655f71 	stclvs	15, cr5, [r5, #-452]!	; 0xfffffe3c
    9b50:	28797470 	ldmdacs	r9!, {r4, r5, r6, sl, ip, sp, lr}^
    9b54:	000a2963 	andeq	r2, sl, r3, ror #18
    9b58:	494e4150 	stmdbmi	lr, {r4, r6, r8, lr}^
    9b5c:	73253a43 	teqvc	r5, #274432	; 0x43000
    9b60:	3a73253a 	bcc	1cd3050 <__bss_end__+0x1cc6d78>
    9b64:	213a6425 	teqcs	sl, r5, lsr #8
    9b68:	665f7163 	ldrbvs	r7, [pc], -r3, ror #2
    9b6c:	286c6c75 	stmdacs	ip!, {r0, r2, r4, r5, r6, sl, fp, sp, lr}^
    9b70:	000a2963 	andeq	r2, sl, r3, ror #18
    9b74:	494e4150 	stmdbmi	lr, {r4, r6, r8, lr}^
    9b78:	73253a43 	teqvc	r5, #274432	; 0x43000
    9b7c:	3a73253a 	bcc	1cd306c <__bss_end__+0x1cc6d94>
    9b80:	633a6425 	teqvs	sl, #620756992	; 0x25000000
    9b84:	656e5f71 	strbvs	r5, [lr, #-3953]!	; 0xf71
    9b88:	286d656c 	stmdacs	sp!, {r2, r3, r5, r6, r8, sl, sp, lr}^
    9b8c:	3d202963 	stccc	9, cr2, [r0, #-396]!	; 0xfffffe74
    9b90:	0a30203d 	beq	c11c8c <__bss_end__+0xc059b4>
    9b94:	00000000 	andeq	r0, r0, r0
    9b98:	494e4150 	stmdbmi	lr, {r4, r6, r8, lr}^
    9b9c:	73253a43 	teqvc	r5, #274432	; 0x43000
    9ba0:	3a73253a 	bcc	1cd3090 <__bss_end__+0x1cc6db8>
    9ba4:	633a6425 	teqvs	sl, #620756992	; 0x25000000
    9ba8:	6f705f71 	svcvs	0x00705f71
    9bac:	6f6e5f70 	svcvs	0x006e5f70
    9bb0:	6f6c626e 	svcvs	0x006c626e
    9bb4:	63286b63 	teqvs	r8, #101376	; 0x18c00
    9bb8:	2965262c 	stmdbcs	r5!, {r2, r3, r5, r9, sl, sp}^
    9bbc:	203d3d20 	eorscs	r3, sp, r0, lsr #26
    9bc0:	26262030 			; <UNDEFINED> instruction: 0x26262030
    9bc4:	3d206520 	cfstr32cc	mvfx6, [r0, #-128]!	; 0xffffff80
    9bc8:	7830203d 	ldmdavc	r0!, {r0, r2, r3, r4, r5, sp}
    9bcc:	000a3231 	andeq	r3, sl, r1, lsr r2

00009bd0 <__FUNCTION__.4271>:
    9bd0:	74696d65 	strbtvc	r6, [r9], #-3429	; 0xd65
    9bd4:	00000000 	andeq	r0, r0, r0

00009bd8 <__FUNCTION__.4219>:
    9bd8:	5f697072 	svcpl	0x00697072
    9bdc:	5f746573 	svcpl	0x00746573
    9be0:	7074756f 	rsbsvc	r7, r4, pc, ror #10
    9be4:	00007475 	andeq	r7, r0, r5, ror r4

00009be8 <__FUNCTION__.4293>:
    9be8:	705f6176 	subsvc	r6, pc, r6, ror r1	; <UNPREDICTABLE>
    9bec:	746e6972 	strbtvc	r6, [lr], #-2418	; 0x972
    9bf0:	0000006b 	andeq	r0, r0, fp, rrx
    9bf4:	494e4150 	stmdbmi	lr, {r4, r6, r8, lr}^
    9bf8:	73253a43 	teqvc	r5, #274432	; 0x43000
    9bfc:	3a73253a 	bcc	1cd30ec <__bss_end__+0x1cc6e14>
    9c00:	303a6425 	eorscc	r6, sl, r5, lsr #8
    9c04:	0000000a 	andeq	r0, r0, sl
    9c08:	6362696c 	cmnvs	r2, #108, 18	; 0x1b0000
    9c0c:	2d61762f 	stclcs	6, cr7, [r1, #-188]!	; 0xffffff44
    9c10:	6e697270 	mcrvs	2, 3, r7, cr9, cr0, {3}
    9c14:	632e6b74 	teqvs	lr, #116, 22	; 0x1d000
    9c18:	00000000 	andeq	r0, r0, r0
    9c1c:	33323130 	teqcc	r2, #48, 2
    9c20:	37363534 			; <UNDEFINED> instruction: 0x37363534
    9c24:	00003938 	andeq	r3, r0, r8, lsr r9
    9c28:	33323130 	teqcc	r2, #48, 2
    9c2c:	37363534 			; <UNDEFINED> instruction: 0x37363534
    9c30:	62613938 	rsbvs	r3, r1, #56, 18	; 0xe0000
    9c34:	66656463 	strbtvs	r6, [r5], -r3, ror #8
    9c38:	00000000 	andeq	r0, r0, r0
    9c3c:	00003130 	andeq	r3, r0, r0, lsr r1
    9c40:	494e4150 	stmdbmi	lr, {r4, r6, r8, lr}^
    9c44:	73253a43 	teqvc	r5, #274432	; 0x43000
    9c48:	3a73253a 	bcc	1cd3138 <__bss_end__+0x1cc6e60>
    9c4c:	703a6425 	eorsvc	r6, sl, r5, lsr #8
    9c50:	5f637475 	svcpl	0x00637475
    9c54:	000a7066 	andeq	r7, sl, r6, rrx
    9c58:	494e4150 	stmdbmi	lr, {r4, r6, r8, lr}^
    9c5c:	73253a43 	teqvc	r5, #274432	; 0x43000
    9c60:	3a73253a 	bcc	1cd3150 <__bss_end__+0x1cc6e78>
    9c64:	773a6425 	ldrvc	r6, [sl, -r5, lsr #8]!
    9c68:	68746469 	ldmdavs	r4!, {r0, r3, r5, r6, sl, sp, lr}^
    9c6c:	33203c20 	teqcc	r0, #32, 24	; 0x2000
    9c70:	00000a32 	andeq	r0, r0, r2, lsr sl
    9c74:	494e4150 	stmdbmi	lr, {r4, r6, r8, lr}^
    9c78:	73253a43 	teqvc	r5, #274432	; 0x43000
    9c7c:	3a73253a 	bcc	1cd316c <__bss_end__+0x1cc6e94>
    9c80:	663a6425 	ldrtvs	r6, [sl], -r5, lsr #8
    9c84:	74616f6c 	strbtvc	r6, [r1], #-3948	; 0xf6c
    9c88:	746f6e20 	strbtvc	r6, [pc], #-3616	; 9c90 <__FUNCTION__.4293+0xa8>
    9c8c:	616e6520 	cmnvs	lr, r0, lsr #10
    9c90:	64656c62 	strbtvs	r6, [r5], #-3170	; 0xc62
    9c94:	0a212121 	beq	852120 <__bss_end__+0x845e48>
    9c98:	00000000 	andeq	r0, r0, r0
    9c9c:	494e4150 	stmdbmi	lr, {r4, r6, r8, lr}^
    9ca0:	73253a43 	teqvc	r5, #274432	; 0x43000
    9ca4:	3a73253a 	bcc	1cd3194 <__bss_end__+0x1cc6ebc>
    9ca8:	703a6425 	eorsvc	r6, sl, r5, lsr #8
    9cac:	746e6972 	strbtvc	r6, [lr], #-2418	; 0x972
    9cb0:	6e203a6b 	vnmulvs.f32	s6, s0, s23
    9cb4:	6820746f 	stmdavs	r0!, {r0, r1, r2, r3, r5, r6, sl, ip, sp, lr}
    9cb8:	6c646e61 	stclvs	14, cr6, [r4], #-388	; 0xfffffe7c
    9cbc:	20676e69 	rsbcs	r6, r7, r9, ror #28
    9cc0:	63657073 	cmnvs	r5, #115	; 0x73
    9cc4:	65696669 	strbvs	r6, [r9, #-1641]!	; 0x669
    9cc8:	25272072 	strcs	r2, [r7, #-114]!	; 0x72
    9ccc:	0a0a2763 	beq	293a60 <__bss_end__+0x287788>
    9cd0:	00000000 	andeq	r0, r0, r0
    9cd4:	454e4f44 	strbmi	r4, [lr, #-3908]	; 0xf44
    9cd8:	0a212121 	beq	852164 <__bss_end__+0x845e8c>
    9cdc:	00000000 	andeq	r0, r0, r0

00009ce0 <__FUNCTION__.4261>:
    9ce0:	74736166 	ldrbtvc	r6, [r3], #-358	; 0x166
    9ce4:	746e695f 	strbtvc	r6, [lr], #-2399	; 0x95f
    9ce8:	75727265 	ldrbvc	r7, [r2, #-613]!	; 0x265
    9cec:	765f7470 			; <UNDEFINED> instruction: 0x765f7470
    9cf0:	6f746365 	svcvs	0x00746365
    9cf4:	00000072 	andeq	r0, r0, r2, ror r0
    9cf8:	494e4150 	stmdbmi	lr, {r4, r6, r8, lr}^
    9cfc:	73253a43 	teqvc	r5, #274432	; 0x43000
    9d00:	3a73253a 	bcc	1cd31f0 <__bss_end__+0x1cc6f18>
    9d04:	453a6425 	ldrmi	r6, [sl, #-1061]!	; 0x425
    9d08:	524f5252 	subpl	r5, pc, #536870917	; 0x20000005
    9d0c:	6e75203a 	mrcvs	0, 3, r2, cr5, cr10, {1}
    9d10:	646e6168 	strbtvs	r6, [lr], #-360	; 0x168
    9d14:	2064656c 	rsbcs	r6, r4, ip, ror #10
    9d18:	65637865 	strbvs	r7, [r3, #-2149]!	; 0x865
    9d1c:	6f697470 	svcvs	0x00697470
    9d20:	253c206e 	ldrcs	r2, [ip, #-110]!	; 0x6e
    9d24:	61203e73 	teqvs	r0, r3, ror lr
    9d28:	43502074 	cmpmi	r0, #116	; 0x74
    9d2c:	0a78253d 	beq	1e13228 <__bss_end__+0x1e06f50>
    9d30:	0000000a 	andeq	r0, r0, sl
    9d34:	34317363 	ldrtcc	r7, [r1], #-867	; 0x363
    9d38:	692d6530 	pushvs	{r4, r5, r8, sl, sp, lr}
    9d3c:	7265746e 	rsbvc	r7, r5, #1845493760	; 0x6e000000
    9d40:	74707572 	ldrbtvc	r7, [r0], #-1394	; 0x572
    9d44:	746e692f 	strbtvc	r6, [lr], #-2351	; 0x92f
    9d48:	75727265 	ldrbvc	r7, [r2, #-613]!	; 0x265
    9d4c:	2d737470 	cfldrdcs	mvd7, [r3, #-448]!	; 0xfffffe40
    9d50:	00632e63 	rsbeq	r2, r3, r3, ror #28
    9d54:	74736166 	ldrbtvc	r6, [r3], #-358	; 0x166
    9d58:	00000000 	andeq	r0, r0, r0

00009d5c <__FUNCTION__.4247>:
    9d5c:	61746164 	cmnvs	r4, r4, ror #2
    9d60:	6f62615f 	svcvs	0x0062615f
    9d64:	765f7472 			; <UNDEFINED> instruction: 0x765f7472
    9d68:	6f746365 	svcvs	0x00746365
    9d6c:	00000072 	andeq	r0, r0, r2, ror r0
    9d70:	34317363 	ldrtcc	r7, [r1], #-867	; 0x363
    9d74:	692d6530 	pushvs	{r4, r5, r8, sl, sp, lr}
    9d78:	7265746e 	rsbvc	r7, r5, #1845493760	; 0x6e000000
    9d7c:	74707572 	ldrbtvc	r7, [r0], #-1394	; 0x572
    9d80:	6665642f 	strbtvs	r6, [r5], -pc, lsr #8
    9d84:	746c7561 	strbtvc	r7, [ip], #-1377	; 0x561
    9d88:	6e61682d 	cdpvs	8, 6, cr6, cr1, cr13, {1}
    9d8c:	72656c64 	rsbvc	r6, r5, #100, 24	; 0x6400
    9d90:	7461642d 	strbtvc	r6, [r1], #-1069	; 0x42d
    9d94:	62612d61 	rsbvs	r2, r1, #6208	; 0x1840
    9d98:	2e74726f 	cdpcs	2, 7, cr7, cr4, cr15, {3}
    9d9c:	00000063 	andeq	r0, r0, r3, rrx
    9da0:	61746164 	cmnvs	r4, r4, ror #2
    9da4:	6f626120 	svcvs	0x00626120
    9da8:	00007472 	andeq	r7, r0, r2, ror r4

00009dac <__FUNCTION__.4247>:
    9dac:	66657270 			; <UNDEFINED> instruction: 0x66657270
    9db0:	68637465 	stmdavs	r3!, {r0, r2, r5, r6, sl, ip, sp, lr}^
    9db4:	6f62615f 	svcvs	0x0062615f
    9db8:	765f7472 			; <UNDEFINED> instruction: 0x765f7472
    9dbc:	6f746365 	svcvs	0x00746365
    9dc0:	00000072 	andeq	r0, r0, r2, ror r0
    9dc4:	34317363 	ldrtcc	r7, [r1], #-867	; 0x363
    9dc8:	692d6530 	pushvs	{r4, r5, r8, sl, sp, lr}
    9dcc:	7265746e 	rsbvc	r7, r5, #1845493760	; 0x6e000000
    9dd0:	74707572 	ldrbtvc	r7, [r0], #-1394	; 0x572
    9dd4:	6665642f 	strbtvs	r6, [r5], -pc, lsr #8
    9dd8:	746c7561 	strbtvc	r7, [ip], #-1377	; 0x561
    9ddc:	6e61682d 	cdpvs	8, 6, cr6, cr1, cr13, {1}
    9de0:	72656c64 	rsbvc	r6, r5, #100, 24	; 0x6400
    9de4:	6572702d 	ldrbvs	r7, [r2, #-45]!	; 0x2d
    9de8:	63746566 	cmnvs	r4, #427819008	; 0x19800000
    9dec:	00632e68 	rsbeq	r2, r3, r8, ror #28
    9df0:	66657270 			; <UNDEFINED> instruction: 0x66657270
    9df4:	68637465 	stmdavs	r3!, {r0, r2, r5, r6, sl, ip, sp, lr}^
    9df8:	6f626120 	svcvs	0x00626120
    9dfc:	00007472 	andeq	r7, r0, r2, ror r4

00009e00 <__FUNCTION__.4247>:
    9e00:	65736572 	ldrbvs	r6, [r3, #-1394]!	; 0x572
    9e04:	65765f74 	ldrbvs	r5, [r6, #-3956]!	; 0xf74
    9e08:	726f7463 	rsbvc	r7, pc, #1660944384	; 0x63000000
    9e0c:	00000000 	andeq	r0, r0, r0
    9e10:	34317363 	ldrtcc	r7, [r1], #-867	; 0x363
    9e14:	692d6530 	pushvs	{r4, r5, r8, sl, sp, lr}
    9e18:	7265746e 	rsbvc	r7, r5, #1845493760	; 0x6e000000
    9e1c:	74707572 	ldrbtvc	r7, [r0], #-1394	; 0x572
    9e20:	6665642f 	strbtvs	r6, [r5], -pc, lsr #8
    9e24:	746c7561 	strbtvc	r7, [ip], #-1377	; 0x561
    9e28:	6e61682d 	cdpvs	8, 6, cr6, cr1, cr13, {1}
    9e2c:	72656c64 	rsbvc	r6, r5, #100, 24	; 0x6400
    9e30:	7365722d 	cmnvc	r5, #-805306366	; 0xd0000002
    9e34:	632e7465 	teqvs	lr, #1694498816	; 0x65000000
    9e38:	00000000 	andeq	r0, r0, r0
    9e3c:	65736572 	ldrbvs	r6, [r3, #-1394]!	; 0x572
    9e40:	00000074 	andeq	r0, r0, r4, ror r0

00009e44 <__FUNCTION__.4247>:
    9e44:	65646e75 	strbvs	r6, [r4, #-3701]!	; 0xe75
    9e48:	656e6966 	strbvs	r6, [lr, #-2406]!	; 0x966
    9e4c:	6e695f64 	cdpvs	15, 6, cr5, cr9, cr4, {3}
    9e50:	75727473 	ldrbvc	r7, [r2, #-1139]!	; 0x473
    9e54:	6f697463 	svcvs	0x00697463
    9e58:	65765f6e 	ldrbvs	r5, [r6, #-3950]!	; 0xf6e
    9e5c:	726f7463 	rsbvc	r7, pc, #1660944384	; 0x63000000
    9e60:	00000000 	andeq	r0, r0, r0
    9e64:	34317363 	ldrtcc	r7, [r1], #-867	; 0x363
    9e68:	692d6530 	pushvs	{r4, r5, r8, sl, sp, lr}
    9e6c:	7265746e 	rsbvc	r7, r5, #1845493760	; 0x6e000000
    9e70:	74707572 	ldrbtvc	r7, [r0], #-1394	; 0x572
    9e74:	6665642f 	strbtvs	r6, [r5], -pc, lsr #8
    9e78:	746c7561 	strbtvc	r7, [ip], #-1377	; 0x561
    9e7c:	6e61682d 	cdpvs	8, 6, cr6, cr1, cr13, {1}
    9e80:	72656c64 	rsbvc	r6, r5, #100, 24	; 0x6400
    9e84:	646e752d 	strbtvs	r7, [lr], #-1325	; 0x52d
    9e88:	6e696665 	cdpvs	6, 6, cr6, cr9, cr5, {3}
    9e8c:	692d6465 	pushvs	{r0, r2, r5, r6, sl, sp, lr}
    9e90:	2e74736e 	cdpcs	3, 7, cr7, cr4, cr14, {3}
    9e94:	00000063 	andeq	r0, r0, r3, rrx
    9e98:	65646e75 	strbvs	r6, [r4, #-3701]!	; 0xe75
    9e9c:	656e6966 	strbvs	r6, [lr, #-2406]!	; 0x966
    9ea0:	6e692064 	cdpvs	0, 6, cr2, cr9, cr4, {3}
    9ea4:	00007473 	andeq	r7, r0, r3, ror r4

Disassembly of section .bss:

00009ea8 <__bss_start__>:
	...

0000bebc <curr_value>:
    bebc:	00000000 	andeq	r0, r0, r0

0000bec0 <cycle_counter>:
    bec0:	00000000 	andeq	r0, r0, r0

0000bec4 <nevents>:
    bec4:	00000000 	andeq	r0, r0, r0

0000bec8 <is_writing>:
    bec8:	00000000 	andeq	r0, r0, r0

0000becc <n_falling_edge>:
    becc:	00000000 	andeq	r0, r0, r0

0000bed0 <n_rising_edge>:
    bed0:	00000000 	andeq	r0, r0, r0

0000bed4 <buf.4219>:
	...

0000c2d4 <rpi_arm_timer_t>:
    c2d4:	00000000 	andeq	r0, r0, r0

Disassembly of section .ARM.attributes:

00000000 <.ARM.attributes>:
   0:	00002a41 	andeq	r2, r0, r1, asr #20
   4:	61656100 	cmnvs	r5, r0, lsl #2
   8:	01006962 	tsteq	r0, r2, ror #18
   c:	00000020 	andeq	r0, r0, r0, lsr #32
  10:	4b5a3605 	blmi	168d82c <__bss_end__+0x1681554>
  14:	08070600 	stmdaeq	r7, {r9, sl}
  18:	12010901 	andne	r0, r1, #16384	; 0x4000
  1c:	15011404 	strne	r1, [r1, #-1028]	; 0x404
  20:	18031701 	stmdane	r3, {r0, r8, r9, sl, ip}
  24:	22011a01 	andcs	r1, r1, #4096	; 0x1000
  28:	Address 0x0000000000000028 is out of bounds.


Disassembly of section .comment:

00000000 <.comment>:
   0:	3a434347 	bcc	10d0d24 <__bss_end__+0x10c4a4c>
   4:	4e472820 	cdpmi	8, 4, cr2, cr7, cr0, {1}
   8:	34202955 	strtcc	r2, [r0], #-2389	; 0x955
   c:	332e382e 	teqcc	lr, #3014656	; 0x2e0000
	...

Disassembly of section .debug_info:

00000000 <.debug_info>:
       0:	0000124f 	andeq	r1, r0, pc, asr #4
       4:	00000004 	andeq	r0, r0, r4
       8:	01040000 	mrseq	r0, (UNDEF: 4)
       c:	00000315 	andeq	r0, r0, r5, lsl r3
      10:	0003a101 	andeq	sl, r3, r1, lsl #2
      14:	00023c00 	andeq	r3, r2, r0, lsl #24
      18:	00801000 	addeq	r1, r0, r0
      1c:	00083000 	andeq	r3, r8, r0
      20:	00000000 	andeq	r0, r0, r0
      24:	05040200 	streq	r0, [r4, #-512]	; 0x200
      28:	00746e69 	rsbseq	r6, r4, r9, ror #28
      2c:	00000003 	andeq	r0, r0, r3
      30:	37d40300 	ldrbcc	r0, [r4, r0, lsl #6]
      34:	04000000 	streq	r0, [r0], #-0
      38:	005a0704 	subseq	r0, sl, r4, lsl #14
      3c:	01040000 	mrseq	r0, (UNDEF: 4)
      40:	0002aa06 	andeq	sl, r2, r6, lsl #20
      44:	05020400 	streq	r0, [r2, #-1024]	; 0x400
      48:	000002c3 	andeq	r0, r0, r3, asr #5
      4c:	8c050404 	cfstrshi	mvf0, [r5], {4}
      50:	04000000 	streq	r0, [r0], #-0
      54:	00870508 	addeq	r0, r7, r8, lsl #10
      58:	25030000 	strcs	r0, [r3, #-0]
      5c:	04000004 	streq	r0, [r0], #-4
      60:	0000652e 	andeq	r6, r0, lr, lsr #10
      64:	08010400 	stmdaeq	r1, {sl}
      68:	000002a8 	andeq	r0, r0, r8, lsr #5
      6c:	89070204 	stmdbhi	r7, {r2, r9}
      70:	04000001 	streq	r0, [r0], #-1
      74:	00550704 	subseq	r0, r5, r4, lsl #14
      78:	08040000 	stmdaeq	r4, {}	; <UNPREDICTABLE>
      7c:	00005007 	andeq	r5, r0, r7
      80:	07040400 	streq	r0, [r4, -r0, lsl #8]
      84:	000001ca 	andeq	r0, r0, sl, asr #3
      88:	01040405 	tsteq	r4, r5, lsl #8
      8c:	0002b108 	andeq	fp, r2, r8, lsl #2
      90:	97040600 	strls	r0, [r4, -r0, lsl #12]
      94:	07000000 	streq	r0, [r0, -r0]
      98:	0000008a 	andeq	r0, r0, sl, lsl #1
      9c:	00008a08 	andeq	r8, r0, r8, lsl #20
      a0:	0000ac00 	andeq	sl, r0, r0, lsl #24
      a4:	00810900 	addeq	r0, r1, r0, lsl #18
      a8:	00070000 	andeq	r0, r7, r0
      ac:	3305040a 	movwcc	r0, #21514	; 0x540a
      b0:	00000119 	andeq	r0, r0, r9, lsl r1
      b4:	0000cc0b 	andeq	ip, r0, fp, lsl #24
      b8:	82e88000 	rschi	r8, r8, #0
      bc:	bd0b0280 	sfmlt	f0, 4, [fp, #-512]	; 0xfffffe00
      c0:	80000000 	andhi	r0, r0, r0
      c4:	028082e8 	addeq	r8, r0, #232, 4	; 0x8000000e
      c8:	0003c90b 	andeq	ip, r3, fp, lsl #18
      cc:	82e88400 	rschi	r8, r8, #0, 8
      d0:	a40b0280 	strge	r0, [fp], #-640	; 0x280
      d4:	88000000 	stmdahi	r0, {}	; <UNPREDICTABLE>
      d8:	028082e8 	addeq	r8, r0, #232, 4	; 0x8000000e
      dc:	0003d90b 	andeq	sp, r3, fp, lsl #18
      e0:	82e88c00 	rschi	r8, r8, #0, 24
      e4:	350b0280 	strcc	r0, [fp, #-640]	; 0x280
      e8:	90000000 	andls	r0, r0, r0
      ec:	028082e8 	addeq	r8, r0, #232, 4	; 0x8000000e
      f0:	00010c0b 	andeq	r0, r1, fp, lsl #24
      f4:	82e89400 	rschi	r9, r8, #0, 8
      f8:	e30b0280 	movw	r0, #45696	; 0xb280
      fc:	98000001 	stmdals	r0, {r0}
     100:	028082e8 	addeq	r8, r0, #232, 4	; 0x8000000e
     104:	0003b40b 	andeq	fp, r3, fp, lsl #8
     108:	82e89c00 	rschi	r9, r8, #0, 24
     10c:	6f0b0280 	svcvs	0x000b0280
     110:	a0000004 	andge	r0, r0, r4
     114:	028082e8 	addeq	r8, r0, #232, 4	; 0x8000000e
     118:	02d40300 	sbcseq	r0, r4, #0, 6
     11c:	1c020000 	stcne	0, cr0, [r2], {-0}
     120:	00000065 	andeq	r0, r0, r5, rrx
     124:	0220140c 	eoreq	r1, r0, #12, 8	; 0xc000000
     128:	00017e28 	andeq	r7, r1, r8, lsr #28
     12c:	00670d00 	rsbeq	r0, r7, r0, lsl #26
     130:	2a020000 	bcs	80138 <__bss_end__+0x73e60>
     134:	0000018f 	andeq	r0, r0, pc, lsl #3
     138:	036c0e00 	cmneq	ip, #0, 28
     13c:	2b020000 	blcs	80144 <__bss_end__+0x73e6c>
     140:	00000037 	andeq	r0, r0, r7, lsr r0
     144:	da0e2000 	ble	38814c <__bss_end__+0x37be74>
     148:	02000002 	andeq	r0, r0, #2
     14c:	0001942c 	andeq	r9, r1, ip, lsr #8
     150:	0e200400 	cdpeq	4, 2, cr0, cr0, cr0, {0}
     154:	000001c5 	andeq	r0, r0, r5, asr #3
     158:	01942c02 	orrseq	r2, r4, r2, lsl #24
     15c:	20080000 	andcs	r0, r8, r0
     160:	0003900e 	andeq	r9, r3, lr
     164:	942f0200 	strtls	r0, [pc], #-512	; 16c <_start-0x7e94>
     168:	0c000001 	stceq	0, cr0, [r0], {1}
     16c:	000f0f20 	andeq	r0, pc, r0, lsr #30
     170:	31020000 	mrscc	r0, (UNDEF: 2)
     174:	00000037 	andeq	r0, r0, r7, lsr r0
     178:	101f0104 	andsne	r0, pc, r4, lsl #2
     17c:	19080020 	stmdbne	r8, {r5}
     180:	8f000001 	svchi	0x00000001
     184:	10000001 	andne	r0, r0, r1
     188:	00000081 	andeq	r0, r0, r1, lsl #1
     18c:	11001fff 	strdne	r1, [r0, -pc]
     190:	0000017e 	andeq	r0, r0, lr, ror r1
     194:	00003711 	andeq	r3, r0, r1, lsl r7
     198:	04030300 	streq	r0, [r3], #-768	; 0x300
     19c:	32020000 	andcc	r0, r2, #0
     1a0:	00000124 	andeq	r0, r0, r4, lsr #2
     1a4:	00007e12 	andeq	r7, r0, r2, lsl lr
     1a8:	25390200 	ldrcs	r0, [r9, #-512]!	; 0x200
     1ac:	03000000 	movweq	r0, #0
     1b0:	000001be 			; <UNDEFINED> instruction: 0x000001be
     1b4:	02007113 	andeq	r7, r0, #-1073741820	; 0xc0000004
     1b8:	0001be39 	andeq	fp, r1, r9, lsr lr
     1bc:	04060000 	streq	r0, [r6], #-0
     1c0:	00000199 	muleq	r0, r9, r1
     1c4:	00046712 	andeq	r6, r4, r2, lsl r7
     1c8:	253c0200 	ldrcs	r0, [ip, #-512]!	; 0x200
     1cc:	03000000 	movweq	r0, #0
     1d0:	000001de 	ldrdeq	r0, [r0], -lr
     1d4:	02007113 	andeq	r7, r0, #-1073741820	; 0xc0000004
     1d8:	0001be3c 	andeq	fp, r1, ip, lsr lr
     1dc:	6d140000 	ldcvs	0, cr0, [r4, #-0]
     1e0:	01000000 	mrseq	r0, (UNDEF: 0)
     1e4:	01f6032a 	mvnseq	r0, sl, lsr #6
     1e8:	70130000 	andsvc	r0, r3, r0
     1ec:	01006e69 	tsteq	r0, r9, ror #28
     1f0:	0000372a 	andeq	r3, r0, sl, lsr #14
     1f4:	fa140000 	blx	5001fc <__bss_end__+0x4f3f24>
     1f8:	01000000 	mrseq	r0, (UNDEF: 0)
     1fc:	020e032f 	andeq	r0, lr, #-1140850688	; 0xbc000000
     200:	70130000 	andsvc	r0, r3, r0
     204:	01006e69 	tsteq	r0, r9, ror #28
     208:	0000372f 	andeq	r3, r0, pc, lsr #14
     20c:	d3120000 	tstle	r2, #0
     210:	02000001 	andeq	r0, r0, #1
     214:	00002542 	andeq	r2, r0, r2, asr #10
     218:	023c0300 	eorseq	r0, ip, #0, 6
     21c:	63130000 	tstvs	r3, #0
     220:	be420200 	cdplt	2, 4, cr0, cr2, cr0, {0}
     224:	13000001 	movwne	r0, #1
     228:	42020065 	andmi	r0, r2, #101	; 0x65
     22c:	0000023c 	andeq	r0, r0, ip, lsr r2
     230:	0001c515 	andeq	ip, r1, r5, lsl r5
     234:	37450200 	strbcc	r0, [r5, -r0, lsl #4]
     238:	00000000 	andeq	r0, r0, r0
     23c:	01190406 	tsteq	r9, r6, lsl #8
     240:	80120000 	andshi	r0, r2, r0
     244:	02000001 	andeq	r0, r0, #1
     248:	0000373e 	andeq	r3, r0, lr, lsr r7
     24c:	025c0300 	subseq	r0, ip, #0, 6
     250:	71130000 	tstvc	r3, r0
     254:	be3e0200 	cdplt	2, 3, cr0, cr14, cr0, {0}
     258:	00000001 	andeq	r0, r0, r1
     25c:	00002514 	andeq	r2, r0, r4, lsl r5
     260:	03340100 	teqeq	r4, #0, 2
     264:	0000027d 	andeq	r0, r0, sp, ror r2
     268:	6e697013 	mcrvs	0, 3, r7, cr9, cr3, {0}
     26c:	37340100 	ldrcc	r0, [r4, -r0, lsl #2]!
     270:	13000000 	movwne	r0, #0
     274:	34010076 	strcc	r0, [r1], #-118	; 0x76
     278:	00000037 	andeq	r0, r0, r7, lsr r0
     27c:	03991200 	orrseq	r1, r9, #0, 4
     280:	56020000 	strpl	r0, [r2], -r0
     284:	00000025 	andeq	r0, r0, r5, lsr #32
     288:	0002ab03 	andeq	sl, r2, r3, lsl #22
     28c:	00631300 	rsbeq	r1, r3, r0, lsl #6
     290:	01be5602 			; <UNDEFINED> instruction: 0x01be5602
     294:	78130000 	ldmdavc	r3, {}	; <UNPREDICTABLE>
     298:	19560200 	ldmdbne	r6, {r9}^
     29c:	15000001 	strne	r0, [r0, #-1]
     2a0:	000002da 	ldrdeq	r0, [r0], -sl
     2a4:	00375702 	eorseq	r5, r7, r2, lsl #14
     2a8:	16000000 	strne	r0, [r0], -r0
     2ac:	000002e8 	andeq	r0, r0, r8, ror #5
     2b0:	00374201 	eorseq	r4, r7, r1, lsl #4
     2b4:	80100000 	andshi	r0, r0, r0
     2b8:	00500000 	subseq	r0, r0, r0
     2bc:	9c010000 	stcls	0, cr0, [r1], {-0}
     2c0:	00000387 	andeq	r0, r0, r7, lsl #7
     2c4:	01007317 	tsteq	r0, r7, lsl r3
     2c8:	00003742 	andeq	r3, r0, r2, asr #14
     2cc:	00000000 	andeq	r0, r0, r0
     2d0:	01731800 	cmneq	r3, r0, lsl #16
     2d4:	03970000 	orrseq	r0, r7, #0
     2d8:	03050000 	movweq	r0, #20480	; 0x5000
     2dc:	00009a34 	andeq	r9, r0, r4, lsr sl
     2e0:	00030115 	andeq	r0, r3, r5, lsl r1
     2e4:	37440100 	strbcc	r0, [r4, -r0, lsl #2]
     2e8:	19000000 	stmdbne	r0, {}	; <UNPREDICTABLE>
     2ec:	0000019c 	muleq	r0, ip, r1
     2f0:	00374601 	eorseq	r4, r7, r1, lsl #12
     2f4:	003a0000 	eorseq	r0, sl, r0
     2f8:	381a0000 	ldmdacc	sl, {}	; <UNPREDICTABLE>
     2fc:	04000080 	streq	r0, [r0], #-128	; 0x80
     300:	13000000 	movwne	r0, #0
     304:	15000003 	strne	r0, [r0, #-3]
     308:	00000213 	andeq	r0, r0, r3, lsl r2
     30c:	00374401 	eorseq	r4, r7, r1, lsl #8
     310:	1a000000 	bne	318 <_start-0x7ce8>
     314:	00008048 	andeq	r8, r0, r8, asr #32
     318:	00000004 	andeq	r0, r0, r4
     31c:	00000330 	andeq	r0, r0, r0, lsr r3
     320:	00021319 	andeq	r1, r2, r9, lsl r3
     324:	37460100 	strbcc	r0, [r6, -r0, lsl #2]
     328:	3a000000 	bcc	330 <_start-0x7cd0>
     32c:	00000000 	andeq	r0, r0, r0
     330:	0080201b 	addeq	r2, r0, fp, lsl r0
     334:	00119000 	andseq	r9, r1, r0
     338:	80341c00 	eorshi	r1, r4, r0, lsl #24
     33c:	11970000 	orrsne	r0, r7, r0
     340:	03680000 	cmneq	r8, #0
     344:	011d0000 	tsteq	sp, r0
     348:	43080253 	movwmi	r0, #33363	; 0x8253
     34c:	0552011d 	ldrbeq	r0, [r2, #-285]	; 0x11d
     350:	009a3403 	addseq	r3, sl, r3, lsl #8
     354:	51011d00 	tstpl	r1, r0, lsl #26
     358:	9a840305 	bls	fe100f74 <__bss_end__+0xfe0f4c9c>
     35c:	011d0000 	tsteq	sp, r0
     360:	54030550 	strpl	r0, [r3], #-1360	; 0x550
     364:	0000009a 	muleq	r0, sl, r0
     368:	0080381b 	addeq	r3, r0, fp, lsl r8
     36c:	0011ad00 	andseq	sl, r1, r0, lsl #26
     370:	80481e00 	subhi	r1, r8, r0, lsl #28
     374:	11b40000 			; <UNDEFINED> instruction: 0x11b40000
     378:	011d0000 	tsteq	sp, r0
     37c:	01f30750 	mvnseq	r0, r0, asr r7
     380:	03e80a50 	mvneq	r0, #80, 20	; 0x50000
     384:	0800001e 	stmdaeq	r0, {r1, r2, r3, r4}
     388:	0000008a 	andeq	r0, r0, sl, lsl #1
     38c:	00000397 	muleq	r0, r7, r3
     390:	00008109 	andeq	r8, r0, r9, lsl #2
     394:	07000e00 	streq	r0, [r0, -r0, lsl #28]
     398:	00000387 	andeq	r0, r0, r7, lsl #7
     39c:	0000e91f 	andeq	lr, r0, pc, lsl r9
     3a0:	60770100 	rsbsvs	r0, r7, r0, lsl #2
     3a4:	8c000080 	stchi	0, cr0, [r0], {128}	; 0x80
     3a8:	01000002 	tsteq	r0, r2
     3ac:	0008529c 	muleq	r8, ip, r2
     3b0:	69701700 	ldmdbvs	r0!, {r8, r9, sl, ip}^
     3b4:	7701006e 	strvc	r0, [r1, -lr, rrx]
     3b8:	00000037 	andeq	r0, r0, r7, lsr r0
     3bc:	0000004d 	andeq	r0, r0, sp, asr #32
     3c0:	00090320 	andeq	r0, r9, r0, lsr #6
     3c4:	5a770100 	bpl	1dc07cc <__bss_end__+0x1db44f4>
     3c8:	6e000000 	cdpvs	0, 0, cr0, cr0, cr0, {0}
     3cc:	20000000 	andcs	r0, r0, r0
     3d0:	0000009d 	muleq	r0, sp, r0
     3d4:	00377701 	eorseq	r7, r7, r1, lsl #14
     3d8:	00a80000 	adceq	r0, r8, r0
     3dc:	69210000 	stmdbvs	r1!, {}	; <UNPREDICTABLE>
     3e0:	37780100 	ldrbcc	r0, [r8, -r0, lsl #2]!
     3e4:	01000000 	mrseq	r0, (UNDEF: 0)
     3e8:	00065322 	andeq	r5, r6, r2, lsr #6
     3ec:	37790100 	ldrbcc	r0, [r9, -r0, lsl #2]!
     3f0:	01000000 	mrseq	r0, (UNDEF: 0)
     3f4:	80641a53 	rsbhi	r1, r4, r3, asr sl
     3f8:	00040000 	andeq	r0, r4, r0
     3fc:	04100000 	ldreq	r0, [r0], #-0
     400:	13220000 	teqne	r2, #0
     404:	01000002 	tsteq	r0, r2
     408:	00003779 	andeq	r3, r0, r9, ror r7
     40c:	00530100 	subseq	r0, r3, r0, lsl #2
     410:	0001f623 	andeq	pc, r1, r3, lsr #12
     414:	00806800 	addeq	r6, r0, r0, lsl #16
     418:	00001800 	andeq	r1, r0, r0, lsl #16
     41c:	2d7b0100 	ldfcse	f0, [fp, #-0]
     420:	24000004 	strcs	r0, [r0], #-4
     424:	00000202 	andeq	r0, r0, r2, lsl #4
     428:	000000c9 	andeq	r0, r0, r9, asr #1
     42c:	80841a00 	addhi	r1, r4, r0, lsl #20
     430:	00040000 	andeq	r0, r4, r0
     434:	044a0000 	strbeq	r0, [sl], #-0
     438:	13190000 	tstne	r9, #0
     43c:	01000002 	tsteq	r0, r2
     440:	0000377c 	andeq	r3, r0, ip, ror r7
     444:	0000ea00 	andeq	lr, r0, r0, lsl #20
     448:	5c230000 	stcpl	0, cr0, [r3], #-0
     44c:	94000002 	strls	r0, [r0], #-2
     450:	2c000080 	stccs	0, cr0, [r0], {128}	; 0x80
     454:	01000000 	mrseq	r0, (UNDEF: 0)
     458:	0004a77d 	andeq	sl, r4, sp, ror r7
     45c:	02732400 	rsbseq	r2, r3, #0, 8
     460:	00fd0000 	rscseq	r0, sp, r0
     464:	68250000 	stmdavs	r5!, {}	; <UNPREDICTABLE>
     468:	04000002 	streq	r0, [r0], #-2
     46c:	9f5001f3 	svcls	0x005001f3
     470:	0001de23 	andeq	sp, r1, r3, lsr #28
     474:	00809c00 	addeq	r9, r0, r0, lsl #24
     478:	00001400 	andeq	r1, r0, r0, lsl #8
     47c:	8d370100 	ldfhis	f0, [r7, #-0]
     480:	24000004 	strcs	r0, [r0], #-4
     484:	000001ea 	andeq	r0, r0, sl, ror #3
     488:	0000012b 	andeq	r0, r0, fp, lsr #2
     48c:	01f62600 	mvnseq	r2, r0, lsl #12
     490:	80b00000 	adcshi	r0, r0, r0
     494:	00100000 	andseq	r0, r0, r0
     498:	39010000 	stmdbcc	r1, {}	; <UNPREDICTABLE>
     49c:	00020224 	andeq	r0, r2, r4, lsr #4
     4a0:	00014100 	andeq	r4, r1, r0, lsl #2
     4a4:	1a000000 	bne	4ac <_start-0x7b54>
     4a8:	000080c4 	andeq	r8, r0, r4, asr #1
     4ac:	00000004 	andeq	r0, r0, r4
     4b0:	000004c4 	andeq	r0, r0, r4, asr #9
     4b4:	00021319 	andeq	r1, r2, r9, lsl r3
     4b8:	377e0100 	ldrbcc	r0, [lr, -r0, lsl #2]!
     4bc:	57000000 	strpl	r0, [r0, -r0]
     4c0:	00000001 	andeq	r0, r0, r1
     4c4:	00025c23 	andeq	r5, r2, r3, lsr #24
     4c8:	0080d400 	addeq	sp, r0, r0, lsl #8
     4cc:	00002c00 	andeq	r2, r0, r0, lsl #24
     4d0:	217f0100 	cmncs	pc, r0, lsl #2
     4d4:	24000005 	strcs	r0, [r0], #-5
     4d8:	00000273 	andeq	r0, r0, r3, ror r2
     4dc:	0000016a 	andeq	r0, r0, sl, ror #2
     4e0:	00026825 	andeq	r6, r2, r5, lsr #16
     4e4:	01f30400 	mvnseq	r0, r0, lsl #8
     4e8:	de239f50 	mcrle	15, 1, r9, cr3, cr0, {2}
     4ec:	dc000001 	stcle	0, cr0, [r0], {1}
     4f0:	14000080 	strne	r0, [r0], #-128	; 0x80
     4f4:	01000000 	mrseq	r0, (UNDEF: 0)
     4f8:	00050737 	andeq	r0, r5, r7, lsr r7
     4fc:	01ea2400 	mvneq	r2, r0, lsl #8
     500:	01980000 	orrseq	r0, r8, r0
     504:	26000000 	strcs	r0, [r0], -r0
     508:	000001f6 	strdeq	r0, [r0], -r6
     50c:	000080f0 	strdeq	r8, [r0], -r0
     510:	00000010 	andeq	r0, r0, r0, lsl r0
     514:	02243901 	eoreq	r3, r4, #16384	; 0x4000
     518:	ae000002 	cdpge	0, 0, cr0, cr0, cr2, {0}
     51c:	00000001 	andeq	r0, r0, r1
     520:	81041a00 	tsthi	r4, r0, lsl #20
     524:	00040000 	andeq	r0, r4, r0
     528:	053e0000 	ldreq	r0, [lr, #-0]!
     52c:	13190000 	tstne	r9, #0
     530:	01000002 	tsteq	r0, r2
     534:	00003780 	andeq	r3, r0, r0, lsl #15
     538:	0001c400 	andeq	ip, r1, r0, lsl #8
     53c:	5c230000 	stcpl	0, cr0, [r3], #-0
     540:	14000002 	strne	r0, [r0], #-2
     544:	2c000081 	stccs	0, cr0, [r0], {129}	; 0x81
     548:	01000000 	mrseq	r0, (UNDEF: 0)
     54c:	00059b81 	andeq	r9, r5, r1, lsl #23
     550:	02732400 	rsbseq	r2, r3, #0, 8
     554:	01d70000 	bicseq	r0, r7, r0
     558:	68250000 	stmdavs	r5!, {}	; <UNPREDICTABLE>
     55c:	04000002 	streq	r0, [r0], #-2
     560:	9f5001f3 	svcls	0x005001f3
     564:	0001de23 	andeq	sp, r1, r3, lsr #28
     568:	00811c00 	addeq	r1, r1, r0, lsl #24
     56c:	00001400 	andeq	r1, r0, r0, lsl #8
     570:	81370100 	teqhi	r7, r0, lsl #2
     574:	24000005 	strcs	r0, [r0], #-5
     578:	000001ea 	andeq	r0, r0, sl, ror #3
     57c:	00000205 	andeq	r0, r0, r5, lsl #4
     580:	01f62600 	mvnseq	r2, r0, lsl #12
     584:	81300000 	teqhi	r0, r0
     588:	00100000 	andseq	r0, r0, r0
     58c:	39010000 	stmdbcc	r1, {}	; <UNPREDICTABLE>
     590:	00020224 	andeq	r0, r2, r4, lsr #4
     594:	00021b00 	andeq	r1, r2, r0, lsl #22
     598:	1a000000 	bne	5a0 <_start-0x7a60>
     59c:	00008144 	andeq	r8, r0, r4, asr #2
     5a0:	00000004 	andeq	r0, r0, r4
     5a4:	000005b8 			; <UNDEFINED> instruction: 0x000005b8
     5a8:	00021319 	andeq	r1, r2, r9, lsl r3
     5ac:	37820100 	strcc	r0, [r2, r0, lsl #2]
     5b0:	31000000 	mrscc	r0, (UNDEF: 0)
     5b4:	00000002 	andeq	r0, r0, r2
     5b8:	00025c23 	andeq	r5, r2, r3, lsr #24
     5bc:	00815400 	addeq	r5, r1, r0, lsl #8
     5c0:	00002c00 	andeq	r2, r0, r0, lsl #24
     5c4:	15830100 	strne	r0, [r3, #256]	; 0x100
     5c8:	24000006 	strcs	r0, [r0], #-6
     5cc:	00000273 	andeq	r0, r0, r3, ror r2
     5d0:	00000244 	andeq	r0, r0, r4, asr #4
     5d4:	00026825 	andeq	r6, r2, r5, lsr #16
     5d8:	01f30400 	mvnseq	r0, r0, lsl #8
     5dc:	de239f50 	mcrle	15, 1, r9, cr3, cr0, {2}
     5e0:	5c000001 	stcpl	0, cr0, [r0], {1}
     5e4:	14000081 	strne	r0, [r0], #-129	; 0x81
     5e8:	01000000 	mrseq	r0, (UNDEF: 0)
     5ec:	0005fb37 	andeq	pc, r5, r7, lsr fp	; <UNPREDICTABLE>
     5f0:	01ea2400 	mvneq	r2, r0, lsl #8
     5f4:	02700000 	rsbseq	r0, r0, #0
     5f8:	26000000 	strcs	r0, [r0], -r0
     5fc:	000001f6 	strdeq	r0, [r0], -r6
     600:	00008170 	andeq	r8, r0, r0, ror r1
     604:	00000010 	andeq	r0, r0, r0, lsl r0
     608:	02243901 	eoreq	r3, r4, #16384	; 0x4000
     60c:	86000002 	strhi	r0, [r0], -r2
     610:	00000002 	andeq	r0, r0, r2
     614:	81841a00 	orrhi	r1, r4, r0, lsl #20
     618:	00040000 	andeq	r0, r4, r0
     61c:	06320000 	ldrteq	r0, [r2], -r0
     620:	13190000 	tstne	r9, #0
     624:	01000002 	tsteq	r0, r2
     628:	00003784 	andeq	r3, r0, r4, lsl #15
     62c:	00029c00 	andeq	r9, r2, r0, lsl #24
     630:	5c230000 	stcpl	0, cr0, [r3], #-0
     634:	94000002 	strls	r0, [r0], #-2
     638:	2c000081 	stccs	0, cr0, [r0], {129}	; 0x81
     63c:	01000000 	mrseq	r0, (UNDEF: 0)
     640:	00068f85 	andeq	r8, r6, r5, lsl #31
     644:	02732400 	rsbseq	r2, r3, #0, 8
     648:	02af0000 	adceq	r0, pc, #0
     64c:	68250000 	stmdavs	r5!, {}	; <UNPREDICTABLE>
     650:	04000002 	streq	r0, [r0], #-2
     654:	9f5001f3 	svcls	0x005001f3
     658:	0001de23 	andeq	sp, r1, r3, lsr #28
     65c:	00819c00 	addeq	r9, r1, r0, lsl #24
     660:	00001400 	andeq	r1, r0, r0, lsl #8
     664:	75370100 	ldrvc	r0, [r7, #-256]!	; 0x100
     668:	24000006 	strcs	r0, [r0], #-6
     66c:	000001ea 	andeq	r0, r0, sl, ror #3
     670:	000002db 	ldrdeq	r0, [r0], -fp
     674:	01f62600 	mvnseq	r2, r0, lsl #12
     678:	81b00000 	movshi	r0, r0
     67c:	00100000 	andseq	r0, r0, r0
     680:	39010000 	stmdbcc	r1, {}	; <UNPREDICTABLE>
     684:	00020224 	andeq	r0, r2, r4, lsr #4
     688:	0002f100 	andeq	pc, r2, r0, lsl #2
     68c:	1a000000 	bne	694 <_start-0x796c>
     690:	000081c4 	andeq	r8, r0, r4, asr #3
     694:	00000004 	andeq	r0, r0, r4
     698:	000006ac 	andeq	r0, r0, ip, lsr #13
     69c:	00021319 	andeq	r1, r2, r9, lsl r3
     6a0:	37860100 	strcc	r0, [r6, r0, lsl #2]
     6a4:	07000000 	streq	r0, [r0, -r0]
     6a8:	00000003 	andeq	r0, r0, r3
     6ac:	00025c23 	andeq	r5, r2, r3, lsr #24
     6b0:	0081d400 	addeq	sp, r1, r0, lsl #8
     6b4:	00002c00 	andeq	r2, r0, r0, lsl #24
     6b8:	09870100 	stmibeq	r7, {r8}
     6bc:	24000007 	strcs	r0, [r0], #-7
     6c0:	00000273 	andeq	r0, r0, r3, ror r2
     6c4:	0000031a 	andeq	r0, r0, sl, lsl r3
     6c8:	00026825 	andeq	r6, r2, r5, lsr #16
     6cc:	01f30400 	mvnseq	r0, r0, lsl #8
     6d0:	de239f50 	mcrle	15, 1, r9, cr3, cr0, {2}
     6d4:	dc000001 	stcle	0, cr0, [r0], {1}
     6d8:	14000081 	strne	r0, [r0], #-129	; 0x81
     6dc:	01000000 	mrseq	r0, (UNDEF: 0)
     6e0:	0006ef37 	andeq	lr, r6, r7, lsr pc
     6e4:	01ea2400 	mvneq	r2, r0, lsl #8
     6e8:	03460000 	movteq	r0, #24576	; 0x6000
     6ec:	26000000 	strcs	r0, [r0], -r0
     6f0:	000001f6 	strdeq	r0, [r0], -r6
     6f4:	000081f0 	strdeq	r8, [r0], -r0
     6f8:	00000010 	andeq	r0, r0, r0, lsl r0
     6fc:	02243901 	eoreq	r3, r4, #16384	; 0x4000
     700:	5c000002 	stcpl	0, cr0, [r0], {2}
     704:	00000003 	andeq	r0, r0, r3
     708:	82041a00 	andhi	r1, r4, #0, 20
     70c:	00040000 	andeq	r0, r4, r0
     710:	07260000 	streq	r0, [r6, -r0]!
     714:	13190000 	tstne	r9, #0
     718:	01000002 	tsteq	r0, r2
     71c:	00003788 	andeq	r3, r0, r8, lsl #15
     720:	00037200 	andeq	r7, r3, r0, lsl #4
     724:	5c230000 	stcpl	0, cr0, [r3], #-0
     728:	14000002 	strne	r0, [r0], #-2
     72c:	2c000082 	stccs	0, cr0, [r0], {130}	; 0x82
     730:	01000000 	mrseq	r0, (UNDEF: 0)
     734:	00078389 	andeq	r8, r7, r9, lsl #7
     738:	02732400 	rsbseq	r2, r3, #0, 8
     73c:	03850000 	orreq	r0, r5, #0
     740:	68250000 	stmdavs	r5!, {}	; <UNPREDICTABLE>
     744:	04000002 	streq	r0, [r0], #-2
     748:	9f5001f3 	svcls	0x005001f3
     74c:	0001de23 	andeq	sp, r1, r3, lsr #28
     750:	00821c00 	addeq	r1, r2, r0, lsl #24
     754:	00001400 	andeq	r1, r0, r0, lsl #8
     758:	69370100 	ldmdbvs	r7!, {r8}
     75c:	24000007 	strcs	r0, [r0], #-7
     760:	000001ea 	andeq	r0, r0, sl, ror #3
     764:	000003b1 			; <UNDEFINED> instruction: 0x000003b1
     768:	01f62600 	mvnseq	r2, r0, lsl #12
     76c:	82300000 	eorshi	r0, r0, #0
     770:	00100000 	andseq	r0, r0, r0
     774:	39010000 	stmdbcc	r1, {}	; <UNPREDICTABLE>
     778:	00020224 	andeq	r0, r2, r4, lsr #4
     77c:	0003c700 	andeq	ip, r3, r0, lsl #14
     780:	1a000000 	bne	788 <_start-0x7878>
     784:	00008244 	andeq	r8, r0, r4, asr #4
     788:	00000004 	andeq	r0, r0, r4
     78c:	000007a0 	andeq	r0, r0, r0, lsr #15
     790:	00021319 	andeq	r1, r2, r9, lsl r3
     794:	378a0100 	strcc	r0, [sl, r0, lsl #2]
     798:	dd000000 	stcle	0, cr0, [r0, #-0]
     79c:	00000003 	andeq	r0, r0, r3
     7a0:	00025c23 	andeq	r5, r2, r3, lsr #24
     7a4:	00825400 	addeq	r5, r2, r0, lsl #8
     7a8:	00002c00 	andeq	r2, r0, r0, lsl #24
     7ac:	fd8b0100 	stc2	1, cr0, [fp]
     7b0:	24000007 	strcs	r0, [r0], #-7
     7b4:	00000273 	andeq	r0, r0, r3, ror r2
     7b8:	000003f0 	strdeq	r0, [r0], -r0	; <UNPREDICTABLE>
     7bc:	00026825 	andeq	r6, r2, r5, lsr #16
     7c0:	01f30400 	mvnseq	r0, r0, lsl #8
     7c4:	de239f50 	mcrle	15, 1, r9, cr3, cr0, {2}
     7c8:	5c000001 	stcpl	0, cr0, [r0], {1}
     7cc:	14000082 	strne	r0, [r0], #-130	; 0x82
     7d0:	01000000 	mrseq	r0, (UNDEF: 0)
     7d4:	0007e337 	andeq	lr, r7, r7, lsr r3
     7d8:	01ea2400 	mvneq	r2, r0, lsl #8
     7dc:	041c0000 	ldreq	r0, [ip], #-0
     7e0:	26000000 	strcs	r0, [r0], -r0
     7e4:	000001f6 	strdeq	r0, [r0], -r6
     7e8:	00008270 	andeq	r8, r0, r0, ror r2
     7ec:	00000010 	andeq	r0, r0, r0, lsl r0
     7f0:	02243901 	eoreq	r3, r4, #16384	; 0x4000
     7f4:	32000002 	andcc	r0, r0, #2
     7f8:	00000004 	andeq	r0, r0, r4
     7fc:	82841a00 	addhi	r1, r4, #0, 20
     800:	00040000 	andeq	r0, r4, r0
     804:	081a0000 	ldmdaeq	sl, {}	; <UNPREDICTABLE>
     808:	13190000 	tstne	r9, #0
     80c:	01000002 	tsteq	r0, r2
     810:	0000378c 	andeq	r3, r0, ip, lsl #15
     814:	00044800 	andeq	r4, r4, r0, lsl #16
     818:	de230000 	cdple	0, 2, cr0, cr3, cr0, {0}
     81c:	94000001 	strls	r0, [r0], #-1
     820:	10000082 	andne	r0, r0, r2, lsl #1
     824:	01000000 	mrseq	r0, (UNDEF: 0)
     828:	0008388d 	andeq	r3, r8, sp, lsl #17
     82c:	01ea2500 	mvneq	r2, r0, lsl #10
     830:	f3040000 	vhadd.u8	d0, d4, d0
     834:	009f5001 	addseq	r5, pc, r1
     838:	0082a827 	addeq	sl, r2, r7, lsr #16
     83c:	00000400 	andeq	r0, r0, r0, lsl #8
     840:	02131900 	andseq	r1, r3, #0, 18
     844:	8e010000 	cdphi	0, 0, cr0, cr1, cr0, {0}
     848:	00000037 	andeq	r0, r0, r7, lsr r0
     84c:	0000045b 	andeq	r0, r0, fp, asr r4
     850:	cd120000 	ldcgt	0, cr0, [r2, #-0]
     854:	02000002 	andeq	r0, r0, #2
     858:	0001194b 	andeq	r1, r1, fp, asr #18
     85c:	08820300 	stmeq	r2, {r8, r9}
     860:	63130000 	tstvs	r3, #0
     864:	be4b0200 	cdplt	2, 4, cr0, cr11, cr0, {0}
     868:	28000001 	stmdacs	r0, {r0}
     86c:	4c020065 	stcmi	0, cr0, [r2], {101}	; 0x65
     870:	00000119 	andeq	r0, r0, r9, lsl r1
     874:	00017329 	andeq	r7, r1, r9, lsr #6
     878:	00089200 	andeq	r9, r8, r0, lsl #4
     87c:	0002cd00 	andeq	ip, r2, r0, lsl #26
     880:	8a080000 	bhi	200888 <__bss_end__+0x1f45b0>
     884:	92000000 	andls	r0, r0, #0
     888:	09000008 	stmdbeq	r0, {r3}
     88c:	00000081 	andeq	r0, r0, r1, lsl #1
     890:	82070006 	andhi	r0, r7, #6
     894:	2a000008 	bcs	8bc <_start-0x7744>
     898:	00000295 	muleq	r0, r5, r2
     89c:	82ec9301 	rschi	r9, ip, #67108864	; 0x4000000
     8a0:	01100000 	tsteq	r0, r0
     8a4:	9c010000 	stcls	0, cr0, [r1], {-0}
     8a8:	00000a20 	andeq	r0, r0, r0, lsr #20
     8ac:	00787417 	rsbseq	r7, r8, r7, lsl r4
     8b0:	00379301 	eorseq	r9, r7, r1, lsl #6
     8b4:	046e0000 	strbteq	r0, [lr], #-0
     8b8:	72170000 	andsvc	r0, r7, #0
     8bc:	93010078 	movwls	r0, #4216	; 0x1078
     8c0:	00000037 	andeq	r0, r0, r7, lsr r0
     8c4:	0000048c 	andeq	r0, r0, ip, lsl #9
     8c8:	01006e17 	tsteq	r0, r7, lsl lr
     8cc:	00003793 	muleq	r0, r3, r7
     8d0:	0004ad00 	andeq	sl, r4, r0, lsl #26
     8d4:	01de2300 	bicseq	r2, lr, r0, lsl #6
     8d8:	83040000 	movwhi	r0, #16384	; 0x4000
     8dc:	00140000 	andseq	r0, r4, r0
     8e0:	96010000 	strls	r0, [r1], -r0
     8e4:	000008f0 	strdeq	r0, [r0], -r0	; <UNPREDICTABLE>
     8e8:	0001ea25 	andeq	lr, r1, r5, lsr #20
     8ec:	00580100 	subseq	r0, r8, r0, lsl #2
     8f0:	0001a42b 	andeq	sl, r1, fp, lsr #8
     8f4:	00831c00 	addeq	r1, r3, r0, lsl #24
     8f8:	00000000 	andeq	r0, r0, r0
     8fc:	0d990100 	ldfeqs	f0, [r9]
     900:	24000009 	strcs	r0, [r0], #-9
     904:	000001b4 			; <UNDEFINED> instruction: 0x000001b4
     908:	000004cb 	andeq	r0, r0, fp, asr #9
     90c:	08522b00 	ldmdaeq	r2, {r8, r9, fp, sp}^
     910:	83280000 	teqhi	r8, #0
     914:	00180000 	andseq	r0, r8, r0
     918:	9a010000 	bls	40920 <__bss_end__+0x34648>
     91c:	000009d3 	ldrdeq	r0, [r0], -r3
     920:	00086224 	andeq	r6, r8, r4, lsr #4
     924:	0004e300 	andeq	lr, r4, r0, lsl #6
     928:	00182c00 	andseq	r2, r8, r0, lsl #24
     92c:	6b2d0000 	blvs	b40934 <__bss_end__+0xb3465c>
     930:	fb000008 	blx	95a <_start-0x76a6>
     934:	2e000004 	cdpcs	0, 0, cr0, cr0, cr4, {0}
     938:	00000874 	andeq	r0, r0, r4, ror r8
     93c:	9a440305 	bls	1101558 <__bss_end__+0x10f5280>
     940:	0e2b0000 	cdpeq	0, 2, cr0, cr11, cr0, {0}
     944:	34000002 	strcc	r0, [r0], #-2
     948:	30000083 	andcc	r0, r0, r3, lsl #1
     94c:	02000000 	andeq	r0, r0, #0
     950:	00099050 	andeq	r9, r9, r0, asr r0
     954:	02272400 	eoreq	r2, r7, #0, 8
     958:	053c0000 	ldreq	r0, [ip, #-0]!
     95c:	1e240000 	cdpne	0, 2, cr0, cr4, cr0, {0}
     960:	e3000002 	movw	r0, #2
     964:	2c000004 	stccs	0, cr0, [r0], {4}
     968:	00000030 	andeq	r0, r0, r0, lsr r0
     96c:	0002302d 	andeq	r3, r2, sp, lsr #32
     970:	00055400 	andeq	r5, r5, r0, lsl #8
     974:	01a42600 			; <UNDEFINED> instruction: 0x01a42600
     978:	83340000 	teqhi	r4, #0
     97c:	00080000 	andeq	r0, r8, r0
     980:	43020000 	movwmi	r0, #8192	; 0x2000
     984:	0001b424 	andeq	fp, r1, r4, lsr #8
     988:	0004e300 	andeq	lr, r4, r0, lsl #6
     98c:	00000000 	andeq	r0, r0, r0
     990:	00837c1b 	addeq	r7, r3, fp, lsl ip
     994:	00119000 	andseq	r9, r1, r0
     998:	83901c00 	orrshi	r1, r0, #0, 24
     99c:	11970000 	orrsne	r0, r7, r0
     9a0:	09c80000 	stmibeq	r8, {}^	; <UNPREDICTABLE>
     9a4:	011d0000 	tsteq	sp, r0
     9a8:	51080253 	tstpl	r8, r3, asr r2
     9ac:	0552011d 	ldrbeq	r0, [r2, #-285]	; 0x11d
     9b0:	009a4403 	addseq	r4, sl, r3, lsl #8
     9b4:	51011d00 	tstpl	r1, r0, lsl #26
     9b8:	9ae80305 	bls	ffa015d4 <__bss_end__+0xff9f52fc>
     9bc:	011d0000 	tsteq	sp, r0
     9c0:	a8030550 	stmdage	r3, {r4, r6, r8, sl}
     9c4:	0000009a 	muleq	r0, sl, r0
     9c8:	0083941b 	addeq	r9, r3, fp, lsl r4
     9cc:	0011ad00 	andseq	sl, r1, r0, lsl #26
     9d0:	1c000000 	stcne	0, cr0, [r0], {-0}
     9d4:	00008300 	andeq	r8, r0, r0, lsl #6
     9d8:	00001197 	muleq	r0, r7, r1
     9dc:	000009ea 	andeq	r0, r0, sl, ror #19
     9e0:	0550011d 	ldrbeq	r0, [r0, #-285]	; 0x11d
     9e4:	009a9803 	addseq	r9, sl, r3, lsl #16
     9e8:	041b0000 	ldreq	r0, [fp], #-0
     9ec:	c5000083 	strgt	r0, [r0, #-131]	; 0x83
     9f0:	1b000011 	blne	a3c <_start-0x75c4>
     9f4:	0000839c 	muleq	r0, ip, r3
     9f8:	000011cc 	andeq	r1, r0, ip, asr #3
     9fc:	0083b01c 	addeq	fp, r3, ip, lsl r0
     a00:	00039c00 	andeq	r9, r3, r0, lsl #24
     a04:	000a1600 	andeq	r1, sl, r0, lsl #12
     a08:	52011d00 	andpl	r1, r1, #0, 26
     a0c:	1d007902 	stcne	9, cr7, [r0, #-8]
     a10:	78025001 	stmdavc	r2, {r0, ip, lr}
     a14:	b41b0000 	ldrlt	r0, [fp], #-0
     a18:	c5000083 	strgt	r0, [r0, #-131]	; 0x83
     a1c:	00000011 	andeq	r0, r0, r1, lsl r0
     a20:	0002b612 	andeq	fp, r2, r2, lsl r6
     a24:	374a0100 	strbcc	r0, [sl, -r0, lsl #2]
     a28:	03000000 	movweq	r0, #0
     a2c:	00000b12 	andeq	r0, r0, r2, lsl fp
     a30:	6e697013 	mcrvs	0, 3, r7, cr9, cr3, {0}
     a34:	374a0100 	strbcc	r0, [sl, -r0, lsl #2]
     a38:	15000000 	strne	r0, [r0, #-0]
     a3c:	000004fe 	strdeq	r0, [r0], -lr
     a40:	00374c01 	eorseq	r4, r7, r1, lsl #24
     a44:	69280000 	stmdbvs	r8!, {}	; <UNPREDICTABLE>
     a48:	374d0100 	strbcc	r0, [sp, -r0, lsl #2]
     a4c:	15000000 	strne	r0, [r0, #-0]
     a50:	00000653 	andeq	r0, r0, r3, asr r6
     a54:	00375101 	eorseq	r5, r7, r1, lsl #2
     a58:	6b2f0000 	blvs	bc0a60 <__bss_end__+0xbb4788>
     a5c:	1500000a 	strne	r0, [r0, #-10]
     a60:	00000213 	andeq	r0, r0, r3, lsl r2
     a64:	00375101 	eorseq	r5, r7, r1, lsl #2
     a68:	2f000000 	svccs	0x00000000
     a6c:	00000a7c 	andeq	r0, r0, ip, ror sl
     a70:	00021315 	andeq	r1, r2, r5, lsl r3
     a74:	37550100 	ldrbcc	r0, [r5, -r0, lsl #2]
     a78:	00000000 	andeq	r0, r0, r0
     a7c:	000a8d2f 	andeq	r8, sl, pc, lsr #26
     a80:	02131500 	andseq	r1, r3, #0, 10
     a84:	57010000 	strpl	r0, [r1, -r0]
     a88:	00000037 	andeq	r0, r0, r7, lsr r0
     a8c:	0a9e2f00 	beq	fe78c694 <__bss_end__+0xfe7803bc>
     a90:	13150000 	tstne	r5, #0
     a94:	01000002 	tsteq	r0, r2
     a98:	00003759 	andeq	r3, r0, r9, asr r7
     a9c:	af2f0000 	svcge	0x002f0000
     aa0:	1500000a 	strne	r0, [r0, #-10]
     aa4:	00000213 	andeq	r0, r0, r3, lsl r2
     aa8:	00375b01 	eorseq	r5, r7, r1, lsl #22
     aac:	2f000000 	svccs	0x00000000
     ab0:	00000ac0 	andeq	r0, r0, r0, asr #21
     ab4:	00021315 	andeq	r1, r2, r5, lsl r3
     ab8:	375d0100 	ldrbcc	r0, [sp, -r0, lsl #2]
     abc:	00000000 	andeq	r0, r0, r0
     ac0:	000ad12f 	andeq	sp, sl, pc, lsr #2
     ac4:	02131500 	andseq	r1, r3, #0, 10
     ac8:	5f010000 	svcpl	0x00010000
     acc:	00000037 	andeq	r0, r0, r7, lsr r0
     ad0:	0ae22f00 	beq	ff88c6d8 <__bss_end__+0xff880400>
     ad4:	13150000 	tstne	r5, #0
     ad8:	01000002 	tsteq	r0, r2
     adc:	00003761 	andeq	r3, r0, r1, ror #14
     ae0:	f32f0000 	vhadd.u32	d0, d15, d0
     ae4:	1500000a 	strne	r0, [r0, #-10]
     ae8:	00000213 	andeq	r0, r0, r3, lsl r2
     aec:	00376301 	eorseq	r6, r7, r1, lsl #6
     af0:	2f000000 	svccs	0x00000000
     af4:	00000b04 	andeq	r0, r0, r4, lsl #22
     af8:	00021315 	andeq	r1, r2, r5, lsl r3
     afc:	37650100 	strbcc	r0, [r5, -r0, lsl #2]!
     b00:	00000000 	andeq	r0, r0, r0
     b04:	02131530 	andseq	r1, r3, #48, 10	; 0xc000000
     b08:	67010000 	strvs	r0, [r1, -r0]
     b0c:	00000037 	andeq	r0, r0, r7, lsr r0
     b10:	9c1f0000 	ldcls	0, cr0, [pc], {-0}
     b14:	0100000a 	tsteq	r0, sl
     b18:	0083fca5 	addeq	pc, r3, r5, lsr #25
     b1c:	00024400 	andeq	r4, r2, r0, lsl #8
     b20:	e89c0100 	ldm	ip, {r8}
     b24:	1700000c 	strne	r0, [r0, -ip]
     b28:	01006370 	tsteq	r0, r0, ror r3
     b2c:	000037a5 	andeq	r3, r0, r5, lsr #15
     b30:	00057600 	andeq	r7, r5, r0, lsl #12
     b34:	0a202300 	beq	80973c <__bss_end__+0x7fd464>
     b38:	84040000 	strhi	r0, [r4], #-0
     b3c:	01ac0000 			; <UNDEFINED> instruction: 0x01ac0000
     b40:	ad010000 	stcge	0, cr0, [r1, #-0]
     b44:	00000c6a 	andeq	r0, r0, sl, ror #24
     b48:	000a3031 	andeq	r3, sl, r1, lsr r0
     b4c:	04271400 	strteq	r1, [r7], #-1024	; 0x400
     b50:	ac000084 	stcge	0, cr0, [r0], {132}	; 0x84
     b54:	2d000001 	stccs	0, cr0, [r0, #-4]
     b58:	00000a3b 	andeq	r0, r0, fp, lsr sl
     b5c:	00000597 	muleq	r0, r7, r5
     b60:	000a4632 	andeq	r4, sl, r2, lsr r6
     b64:	4f2d0100 	svcmi	0x002d0100
     b68:	c100000a 	tstgt	r0, sl
     b6c:	1a000005 	bne	b88 <_start-0x7478>
     b70:	00008404 	andeq	r8, r0, r4, lsl #8
     b74:	00000004 	andeq	r0, r0, r4
     b78:	00000b86 	andeq	r0, r0, r6, lsl #23
     b7c:	000a5f2d 	andeq	r5, sl, sp, lsr #30
     b80:	0005c100 	andeq	ip, r5, r0, lsl #2
     b84:	1c1a0000 	ldcne	0, cr0, [sl], {-0}
     b88:	04000084 	streq	r0, [r0], #-132	; 0x84
     b8c:	9d000000 	stcls	0, cr0, [r0, #-0]
     b90:	2d00000b 	stccs	0, cr0, [r0, #-44]	; 0xffffffd4
     b94:	00000a70 	andeq	r0, r0, r0, ror sl
     b98:	000005d4 	ldrdeq	r0, [r0], -r4
     b9c:	84301a00 	ldrthi	r1, [r0], #-2560	; 0xa00
     ba0:	00040000 	andeq	r0, r4, r0
     ba4:	0bb40000 	bleq	fed00bac <__bss_end__+0xfecf48d4>
     ba8:	812d0000 	teqhi	sp, r0
     bac:	e700000a 	str	r0, [r0, -sl]
     bb0:	00000005 	andeq	r0, r0, r5
     bb4:	0084581a 	addeq	r5, r4, sl, lsl r8
     bb8:	00000400 	andeq	r0, r0, r0, lsl #8
     bbc:	000bcb00 	andeq	ip, fp, r0, lsl #22
     bc0:	0a922d00 	beq	fe48bfc8 <__bss_end__+0xfe47fcf0>
     bc4:	05fa0000 	ldrbeq	r0, [sl, #0]!
     bc8:	1a000000 	bne	bd0 <_start-0x7430>
     bcc:	00008488 	andeq	r8, r0, r8, lsl #9
     bd0:	00000004 	andeq	r0, r0, r4
     bd4:	00000be2 	andeq	r0, r0, r2, ror #23
     bd8:	000aa32d 	andeq	sl, sl, sp, lsr #6
     bdc:	00060d00 	andeq	r0, r6, r0, lsl #26
     be0:	b81a0000 	ldmdalt	sl, {}	; <UNPREDICTABLE>
     be4:	04000084 	streq	r0, [r0], #-132	; 0x84
     be8:	f9000000 			; <UNDEFINED> instruction: 0xf9000000
     bec:	2d00000b 	stccs	0, cr0, [r0, #-44]	; 0xffffffd4
     bf0:	00000ab4 			; <UNDEFINED> instruction: 0x00000ab4
     bf4:	00000620 	andeq	r0, r0, r0, lsr #12
     bf8:	84e81a00 	strbthi	r1, [r8], #2560	; 0xa00
     bfc:	00040000 	andeq	r0, r4, r0
     c00:	0c100000 	ldceq	0, cr0, [r0], {-0}
     c04:	c52d0000 	strgt	r0, [sp, #-0]!
     c08:	3300000a 	movwcc	r0, #10
     c0c:	00000006 	andeq	r0, r0, r6
     c10:	0085181a 	addeq	r1, r5, sl, lsl r8
     c14:	00000400 	andeq	r0, r0, r0, lsl #8
     c18:	000c2700 	andeq	r2, ip, r0, lsl #14
     c1c:	0ad62d00 	beq	ff58c024 <__bss_end__+0xff57fd4c>
     c20:	06460000 	strbeq	r0, [r6], -r0
     c24:	1a000000 	bne	c2c <_start-0x73d4>
     c28:	00008548 	andeq	r8, r0, r8, asr #10
     c2c:	00000004 	andeq	r0, r0, r4
     c30:	00000c3e 	andeq	r0, r0, lr, lsr ip
     c34:	000ae72d 	andeq	lr, sl, sp, lsr #14
     c38:	00065900 	andeq	r5, r6, r0, lsl #18
     c3c:	781a0000 	ldmdavc	sl, {}	; <UNPREDICTABLE>
     c40:	04000085 	streq	r0, [r0], #-133	; 0x85
     c44:	55000000 	strpl	r0, [r0, #-0]
     c48:	2d00000c 	stccs	0, cr0, [r0, #-48]	; 0xffffffd0
     c4c:	00000af8 	strdeq	r0, [r0], -r8
     c50:	0000066c 	andeq	r0, r0, ip, ror #12
     c54:	85a02700 	strhi	r2, [r0, #1792]!	; 0x700
     c58:	00040000 	andeq	r0, r4, r0
     c5c:	052d0000 	streq	r0, [sp, #-0]!
     c60:	7f00000b 	svcvc	0x0000000b
     c64:	00000006 	andeq	r0, r0, r6
     c68:	7d230000 	stcvc	0, cr0, [r3, #-0]
     c6c:	b4000002 	strlt	r0, [r0], #-2
     c70:	44000085 	strmi	r0, [r0], #-133	; 0x85
     c74:	01000000 	mrseq	r0, (UNDEF: 0)
     c78:	000cc2ad 	andeq	ip, ip, sp, lsr #5
     c7c:	02962400 	addseq	r2, r6, #0, 8
     c80:	06920000 	ldreq	r0, [r2], r0
     c84:	8d250000 	stchi	0, cr0, [r5, #-0]
     c88:	06000002 	streq	r0, [r0], -r2
     c8c:	009ea803 	addseq	sl, lr, r3, lsl #16
     c90:	b4279f00 	strtlt	r9, [r7], #-3840	; 0xf00
     c94:	44000085 	strmi	r0, [r0], #-133	; 0x85
     c98:	2d000000 	stccs	0, cr0, [r0, #-0]
     c9c:	0000029f 	muleq	r0, pc, r2	; <UNPREDICTABLE>
     ca0:	000006b0 			; <UNDEFINED> instruction: 0x000006b0
     ca4:	0001c426 	andeq	ip, r1, r6, lsr #8
     ca8:	0085c000 	addeq	ip, r5, r0
     cac:	00001400 	andeq	r1, r0, r0, lsl #8
     cb0:	25580200 	ldrbcs	r0, [r8, #-512]	; 0x200
     cb4:	000001d4 	ldrdeq	r0, [r0], -r4
     cb8:	9ea80306 	cdpls	3, 10, cr0, cr8, cr6, {0}
     cbc:	009f0000 	addseq	r0, pc, r0
     cc0:	041b0000 	ldreq	r0, [fp], #-0
     cc4:	d3000084 	movwle	r0, #132	; 0x84
     cc8:	1c000011 	stcne	0, cr0, [r0], {17}
     ccc:	00008600 	andeq	r8, r0, r0, lsl #12
     cd0:	000011da 	ldrdeq	r1, [r0], -sl
     cd4:	00000cde 	ldrdeq	r0, [r0], -lr
     cd8:	0150011d 	cmpeq	r0, sp, lsl r1
     cdc:	041b0044 	ldreq	r0, [fp], #-68	; 0x44
     ce0:	d3000086 	movwle	r0, #134	; 0x86
     ce4:	00000011 	andeq	r0, r0, r1, lsl r0
     ce8:	0001f414 	andeq	pc, r1, r4, lsl r4	; <UNPREDICTABLE>
     cec:	03990200 	orrseq	r0, r9, #0, 4
     cf0:	00000d1f 	andeq	r0, r0, pc, lsl sp
     cf4:	02006313 	andeq	r6, r0, #1275068416	; 0x4c000000
     cf8:	0001be99 	muleq	r1, r9, lr
     cfc:	000f3300 	andeq	r3, pc, r0, lsl #6
     d00:	99020000 	stmdbls	r2, {}	; <UNPREDICTABLE>
     d04:	00000037 	andeq	r0, r0, r7, lsr r0
     d08:	00017329 	andeq	r7, r1, r9, lsr #6
     d0c:	000d1f00 	andeq	r1, sp, r0, lsl #30
     d10:	0001f400 	andeq	pc, r1, r0, lsl #8
     d14:	00652800 	rsbeq	r2, r5, r0, lsl #16
     d18:	0119a202 	tsteq	r9, r2, lsl #4
     d1c:	07000000 	streq	r0, [r0, -r0]
     d20:	0000009c 	muleq	r0, ip, r0
     d24:	0000f21f 	andeq	pc, r0, pc, lsl r2	; <UNPREDICTABLE>
     d28:	40b20100 	adcsmi	r0, r2, r0, lsl #2
     d2c:	00000086 	andeq	r0, r0, r6, lsl #1
     d30:	01000002 	tsteq	r0, r2
     d34:	000fed9c 	muleq	pc, ip, sp	; <UNPREDICTABLE>
     d38:	0ce82300 	stcleq	3, cr2, [r8]
     d3c:	86640000 	strbthi	r0, [r4], -r0
     d40:	01880000 	orreq	r0, r8, r0
     d44:	ba010000 	blt	40d4c <__bss_end__+0x34a74>
     d48:	00000f58 	andeq	r0, r0, r8, asr pc
     d4c:	000cfd31 	andeq	pc, ip, r1, lsr sp	; <UNPREDICTABLE>
     d50:	f4250100 	vld4.8	{d0,d2,d4,d6}, [r5], r0
     d54:	0600000c 	streq	r0, [r0], -ip
     d58:	009ea803 	addseq	sl, lr, r3, lsl #16
     d5c:	64279f00 	strtvs	r9, [r7], #-3840	; 0xf00
     d60:	88000086 	stmdahi	r0, {r1, r2, r7}
     d64:	2d000001 	stccs	0, cr0, [r0, #-4]
     d68:	00000d15 	andeq	r0, r0, r5, lsl sp
     d6c:	000006d2 	ldrdeq	r0, [r0], -r2
     d70:	000d082e 	andeq	r0, sp, lr, lsr #16
     d74:	4c030500 	cfstr32mi	mvfx0, [r3], {-0}
     d78:	2300009a 	movwcs	r0, #154	; 0x9a
     d7c:	000001a4 	andeq	r0, r0, r4, lsr #3
     d80:	000086b0 			; <UNDEFINED> instruction: 0x000086b0
     d84:	00000008 	andeq	r0, r0, r8
     d88:	0d9b9f02 	ldceq	15, cr9, [fp, #8]
     d8c:	b4250000 	strtlt	r0, [r5], #-0
     d90:	06000001 	streq	r0, [r0], -r1
     d94:	009ea803 	addseq	sl, lr, r3, lsl #16
     d98:	23009f00 	movwcs	r9, #3840	; 0xf00
     d9c:	000001c4 	andeq	r0, r0, r4, asr #3
     da0:	000086dc 	ldrdeq	r8, [r0], -ip
     da4:	0000001c 	andeq	r0, r0, ip, lsl r0
     da8:	0dbba002 	ldceq	0, cr10, [fp, #8]!
     dac:	d4250000 	strtle	r0, [r5], #-0
     db0:	06000001 	streq	r0, [r0], -r1
     db4:	009ea803 	addseq	sl, lr, r3, lsl #16
     db8:	23009f00 	movwcs	r9, #3840	; 0xf00
     dbc:	00000242 	andeq	r0, r0, r2, asr #4
     dc0:	0000871c 	andeq	r8, r0, ip, lsl r7
     dc4:	00000018 	andeq	r0, r0, r8, lsl r0
     dc8:	0ddba102 	ldfeqp	f2, [fp, #8]
     dcc:	52250000 	eorpl	r0, r5, #0
     dd0:	06000002 	streq	r0, [r0], -r2
     dd4:	009ea803 	addseq	sl, lr, r3, lsl #16
     dd8:	2b009f00 	blcs	289e0 <__bss_end__+0x1c708>
     ddc:	0000020e 	andeq	r0, r0, lr, lsl #4
     de0:	00008758 	andeq	r8, r0, r8, asr r7
     de4:	00000048 	andeq	r0, r0, r8, asr #32
     de8:	0e32a302 	cdpeq	3, 3, cr10, cr2, cr2, {0}
     dec:	27250000 	strcs	r0, [r5, -r0]!
     df0:	06000002 	streq	r0, [r0], -r2
     df4:	000d67f2 	strdeq	r6, [sp], -r2
     df8:	1e250000 	cdpne	0, 2, cr0, cr5, cr0, {0}
     dfc:	06000002 	streq	r0, [r0], -r2
     e00:	009ea803 	addseq	sl, lr, r3, lsl #16
     e04:	482c9f00 	stmdami	ip!, {r8, r9, sl, fp, ip, pc}
     e08:	2d000000 	stccs	0, cr0, [r0, #-0]
     e0c:	00000230 	andeq	r0, r0, r0, lsr r2
     e10:	00000713 	andeq	r0, r0, r3, lsl r7
     e14:	0001a426 	andeq	sl, r1, r6, lsr #8
     e18:	00875800 	addeq	r5, r7, r0, lsl #16
     e1c:	00001400 	andeq	r1, r0, r0, lsl #8
     e20:	25430200 	strbcs	r0, [r3, #-512]	; 0x200
     e24:	000001b4 			; <UNDEFINED> instruction: 0x000001b4
     e28:	9ea80306 	cdpls	3, 10, cr0, cr8, cr6, {0}
     e2c:	009f0000 	addseq	r0, pc, r0
     e30:	781c0000 	ldmdavc	ip, {}	; <UNPREDICTABLE>
     e34:	eb000086 	bl	1054 <_start-0x6fac>
     e38:	52000011 	andpl	r0, r0, #17
     e3c:	1d00000e 	stcne	0, cr0, [r0, #-56]	; 0xffffffc8
     e40:	0a035201 	beq	d564c <__bss_end__+0xc9374>
     e44:	011d2014 	tsteq	sp, r4, lsl r0
     e48:	1d300151 	ldfnes	f0, [r0, #-324]!	; 0xfffffebc
     e4c:	74025001 	strvc	r5, [r2], #-1
     e50:	c41b0000 	ldrgt	r0, [fp], #-0
     e54:	90000086 	andls	r0, r0, r6, lsl #1
     e58:	1c000011 	stcne	0, cr0, [r0], {17}
     e5c:	000086d8 	ldrdeq	r8, [r0], -r8	; <UNPREDICTABLE>
     e60:	00001197 	muleq	r0, r7, r1
     e64:	00000e8a 	andeq	r0, r0, sl, lsl #29
     e68:	0253011d 	subseq	r0, r3, #1073741831	; 0x40000007
     e6c:	011d9f08 	tsteq	sp, r8, lsl #30
     e70:	4c030552 	cfstr32mi	mvfx0, [r3], {82}	; 0x52
     e74:	1d00009a 	stcne	0, cr0, [r0, #-616]	; 0xfffffd98
     e78:	03055101 	movweq	r5, #20737	; 0x5101
     e7c:	00009ae8 	andeq	r9, r0, r8, ror #21
     e80:	0550011d 	ldrbeq	r0, [r0, #-285]	; 0x11d
     e84:	009b3c03 	addseq	r3, fp, r3, lsl #24
     e88:	dc1b0000 	ldcle	0, cr0, [fp], {-0}
     e8c:	ad000086 	stcge	0, cr0, [r0, #-536]	; 0xfffffde8
     e90:	1b000011 	blne	edc <_start-0x7124>
     e94:	00008704 	andeq	r8, r0, r4, lsl #14
     e98:	00001190 	muleq	r0, r0, r1
     e9c:	0087181c 	addeq	r1, r7, ip, lsl r8
     ea0:	00119700 	andseq	r9, r1, r0, lsl #14
     ea4:	000ecb00 	andeq	ip, lr, r0, lsl #22
     ea8:	53011d00 	movwpl	r1, #7424	; 0x1d00
     eac:	1da00802 	stcne	8, cr0, [r0, #8]!
     eb0:	03055201 	movweq	r5, #20993	; 0x5201
     eb4:	00009a4c 	andeq	r9, r0, ip, asr #20
     eb8:	0551011d 	ldrbeq	r0, [r1, #-285]	; 0x11d
     ebc:	009ae803 	addseq	lr, sl, r3, lsl #16
     ec0:	50011d00 	andpl	r1, r1, r0, lsl #26
     ec4:	9b580305 	blls	1601ae0 <__bss_end__+0x15f5808>
     ec8:	1b000000 	blne	ed0 <_start-0x7130>
     ecc:	0000871c 	andeq	r8, r0, ip, lsl r7
     ed0:	000011ad 	andeq	r1, r0, sp, lsr #3
     ed4:	0087401b 	addeq	r4, r7, fp, lsl r0
     ed8:	00119000 	andseq	r9, r1, r0
     edc:	87541c00 	ldrbhi	r1, [r4, -r0, lsl #24]
     ee0:	11970000 	orrsne	r0, r7, r0
     ee4:	0f0c0000 	svceq	0x000c0000
     ee8:	011d0000 	tsteq	sp, r0
     eec:	a1080253 	tstge	r8, r3, asr r2
     ef0:	0552011d 	ldrbeq	r0, [r2, #-285]	; 0x11d
     ef4:	009a4c03 	addseq	r4, sl, r3, lsl #24
     ef8:	51011d00 	tstpl	r1, r0, lsl #26
     efc:	9ae80305 	bls	ffa01b18 <__bss_end__+0xff9f5840>
     f00:	011d0000 	tsteq	sp, r0
     f04:	74030550 	strvc	r0, [r3], #-1360	; 0x550
     f08:	0000009b 	muleq	r0, fp, r0
     f0c:	0087581b 	addeq	r5, r7, fp, lsl r8
     f10:	0011ad00 	andseq	sl, r1, r0, lsl #26
     f14:	87d41b00 	ldrbhi	r1, [r4, r0, lsl #22]
     f18:	11900000 	orrsne	r0, r0, r0
     f1c:	e81c0000 	ldmda	ip, {}	; <UNPREDICTABLE>
     f20:	97000087 	strls	r0, [r0, -r7, lsl #1]
     f24:	4d000011 	stcmi	0, cr0, [r0, #-68]	; 0xffffffbc
     f28:	1d00000f 	stcne	0, cr0, [r0, #-60]	; 0xffffffc4
     f2c:	08025301 	stmdaeq	r2, {r0, r8, r9, ip, lr}
     f30:	52011da3 	andpl	r1, r1, #10432	; 0x28c0
     f34:	9a4c0305 	bls	1301b50 <__bss_end__+0x12f5878>
     f38:	011d0000 	tsteq	sp, r0
     f3c:	e8030551 	stmda	r3, {r0, r4, r6, r8, sl}
     f40:	1d00009a 	stcne	0, cr0, [r0, #-616]	; 0xfffffd98
     f44:	03055001 	movweq	r5, #20481	; 0x5001
     f48:	00009b98 	muleq	r0, r8, fp
     f4c:	87ec1b00 	strbhi	r1, [ip, r0, lsl #22]!
     f50:	11ad0000 			; <UNDEFINED> instruction: 0x11ad0000
     f54:	00000000 	andeq	r0, r0, r0
     f58:	0087f01a 	addeq	pc, r7, sl, lsl r0	; <UNPREDICTABLE>
     f5c:	00000800 	andeq	r0, r0, r0, lsl #16
     f60:	000f7100 	andeq	r7, pc, r0, lsl #2
     f64:	6e692100 	powvse	f2, f1, f0
     f68:	37bd0100 	ldrcc	r0, [sp, r0, lsl #2]!
     f6c:	01000000 	mrseq	r0, (UNDEF: 0)
     f70:	86481b00 	strbhi	r1, [r8], -r0, lsl #22
     f74:	120a0000 	andne	r0, sl, #0
     f78:	4c1b0000 	ldcmi	0, cr0, [fp], {-0}
     f7c:	11000086 	smlabbne	r0, r6, r0, r0
     f80:	1c000012 	stcne	0, cr0, [r0], {18}
     f84:	00008654 	andeq	r8, r0, r4, asr r6
     f88:	00001218 	andeq	r1, r0, r8, lsl r2
     f8c:	00000f96 	muleq	r0, r6, pc	; <UNPREDICTABLE>
     f90:	0150011d 	cmpeq	r0, sp, lsl r1
     f94:	5c1c0045 	ldcpl	0, cr0, [ip], {69}	; 0x45
     f98:	29000086 	stmdbcs	r0, {r1, r2, r7}
     f9c:	a9000012 	stmdbge	r0, {r1, r4}
     fa0:	1d00000f 	stcne	0, cr0, [r0, #-60]	; 0xffffffc4
     fa4:	44015001 	strmi	r5, [r1], #-1
     fa8:	86641c00 	strbthi	r1, [r4], -r0, lsl #24
     fac:	123a0000 	eorsne	r0, sl, #0
     fb0:	0fbc0000 	svceq	0x00bc0000
     fb4:	011d0000 	tsteq	sp, r0
     fb8:	00440150 	subeq	r0, r4, r0, asr r1
     fbc:	0087f01b 	addeq	pc, r7, fp, lsl r0	; <UNPREDICTABLE>
     fc0:	00124b00 	andseq	r4, r2, r0, lsl #22
     fc4:	88081c00 	stmdahi	r8, {sl, fp, ip}
     fc8:	08970000 	ldmeq	r7, {}	; <UNPREDICTABLE>
     fcc:	0fe30000 	svceq	0x00e30000
     fd0:	011d0000 	tsteq	sp, r0
     fd4:	ff080252 			; <UNDEFINED> instruction: 0xff080252
     fd8:	0151011d 	cmpeq	r1, sp, lsl r1
     fdc:	50011d44 	andpl	r1, r1, r4, asr #26
     fe0:	1b004501 	blne	123ec <__bss_end__+0x6114>
     fe4:	0000880c 	andeq	r8, r0, ip, lsl #16
     fe8:	000011ad 	andeq	r1, r0, sp, lsr #3
     fec:	01a63400 			; <UNDEFINED> instruction: 0x01a63400
     ff0:	0f010000 	svceq	0x00010000
     ff4:	00000ffc 	strdeq	r0, [r0], -ip
     ff8:	20200000 	eorcs	r0, r0, r0
     ffc:	01940406 	orrseq	r0, r4, r6, lsl #8
    1000:	f7340000 			; <UNDEFINED> instruction: 0xf7340000
    1004:	01000002 	tsteq	r0, r2
    1008:	000ffc10 	andeq	pc, pc, r0, lsl ip	; <UNPREDICTABLE>
    100c:	20001c00 	andcs	r1, r0, r0, lsl #24
    1010:	04433420 	strbeq	r3, [r3], #-1056	; 0x420
    1014:	11010000 	mrsne	r0, (UNDEF: 1)
    1018:	00000ffc 	strdeq	r0, [r0], -ip
    101c:	20200028 	eorcs	r0, r0, r8, lsr #32
    1020:	00012f34 	andeq	r2, r1, r4, lsr pc
    1024:	fc130100 	ldc2	1, cr0, [r3], {-0}
    1028:	0000000f 	andeq	r0, r0, pc
    102c:	34202000 	strtcc	r2, [r0], #-0
    1030:	00000137 	andeq	r0, r0, r7, lsr r1
    1034:	0ffc1401 	svceq	0x00fc1401
    1038:	00040000 	andeq	r0, r4, r0
    103c:	07342020 	ldreq	r2, [r4, -r0, lsr #32]!
    1040:	01000000 	mrseq	r0, (UNDEF: 0)
    1044:	000ffc15 	andeq	pc, pc, r5, lsl ip	; <UNPREDICTABLE>
    1048:	20000800 	andcs	r0, r0, r0, lsl #16
    104c:	013f3420 	teqeq	pc, r0, lsr #8
    1050:	16010000 	strne	r0, [r1], -r0
    1054:	00000ffc 	strdeq	r0, [r0], -ip
    1058:	2020000c 	eorcs	r0, r0, ip
    105c:	00014734 	andeq	r4, r1, r4, lsr r7
    1060:	fc170100 	ldc2	1, cr0, [r7], {-0}
    1064:	1000000f 	andne	r0, r0, pc
    1068:	34202000 	strtcc	r2, [r0], #-0
    106c:	0000014f 	andeq	r0, r0, pc, asr #2
    1070:	0ffc1801 	svceq	0x00fc1801
    1074:	00140000 	andseq	r0, r4, r0
    1078:	bc342020 	ldclt	0, cr2, [r4], #-128	; 0xffffff80
    107c:	01000002 	tsteq	r0, r2
    1080:	0010891a 	andseq	r8, r0, sl, lsl r9
    1084:	20001c00 	andcs	r1, r0, r0, lsl #24
    1088:	0ffc0720 	svceq	0x00fc0720
    108c:	b6340000 	ldrtlt	r0, [r4], -r0
    1090:	01000000 	mrseq	r0, (UNDEF: 0)
    1094:	000ffc1b 	andeq	pc, pc, fp, lsl ip	; <UNPREDICTABLE>
    1098:	20002000 	andcs	r2, r0, r0
    109c:	001e3420 	andseq	r3, lr, r0, lsr #8
    10a0:	1d010000 	stcne	0, cr0, [r1, #-0]
    10a4:	000010ac 	andeq	r1, r0, ip, lsr #1
    10a8:	20200028 	eorcs	r0, r0, r8, lsr #32
    10ac:	000ffc07 	andeq	pc, pc, r7, lsl #24
    10b0:	01b13400 			; <UNDEFINED> instruction: 0x01b13400
    10b4:	1e010000 	cdpne	0, 0, cr0, cr1, cr0, {0}
    10b8:	00000ffc 	strdeq	r0, [r0], -ip
    10bc:	2020002c 	eorcs	r0, r0, ip, lsr #32
    10c0:	0000db34 	andeq	sp, r0, r4, lsr fp
    10c4:	cf200100 	svcgt	0x00200100
    10c8:	34000010 	strcc	r0, [r0], #-16
    10cc:	07202000 	streq	r2, [r0, -r0]!
    10d0:	00000ffc 	strdeq	r0, [r0], -ip
    10d4:	0000e234 	andeq	lr, r0, r4, lsr r2
    10d8:	fc210100 	stc2	1, cr0, [r1], #-0
    10dc:	3800000f 	stmdacc	r0, {r0, r1, r2, r3}
    10e0:	21202000 	teqcs	r0, r0
    10e4:	01007872 	tsteq	r0, r2, ror r8
    10e8:	0010ee23 	andseq	lr, r0, r3, lsr #28
    10ec:	25071400 	strcs	r1, [r7, #-1024]	; 0x400
    10f0:	21000000 	mrscs	r0, (UNDEF: 0)
    10f4:	01007874 	tsteq	r0, r4, ror r8
    10f8:	0010fe24 	andseq	pc, r0, r4, lsr #28
    10fc:	25071500 	strcs	r1, [r7, #-1280]	; 0x500
    1100:	22000000 	andcs	r0, r0, #0
    1104:	000001a1 	andeq	r0, r0, r1, lsr #3
    1108:	01992501 	orrseq	r2, r9, r1, lsl #10
    110c:	03050000 	movweq	r0, #20480	; 0x5000
    1110:	00009ea8 	andeq	r9, r0, r8, lsr #29
    1114:	00009522 	andeq	r9, r0, r2, lsr #10
    1118:	94a20100 	strtls	r0, [r2], #256	; 0x100
    111c:	05000001 	streq	r0, [r0, #-1]
    1120:	00bec403 	adcseq	ip, lr, r3, lsl #8
    1124:	01fc2200 	mvnseq	r2, r0, lsl #4
    1128:	a3010000 	movwge	r0, #4096	; 0x1000
    112c:	00001136 	andeq	r1, r0, r6, lsr r1
    1130:	bec00305 	cdplt	3, 12, cr0, cr0, cr5, {0}
    1134:	25110000 	ldrcs	r0, [r1, #-0]
    1138:	35000000 	strcc	r0, [r0, #-0]
    113c:	00000415 	andeq	r0, r0, r5, lsl r4
    1140:	00ac8005 	adceq	r8, ip, r5
    1144:	03050000 	movweq	r0, #20480	; 0x5000
    1148:	0000c2d4 	ldrdeq	ip, [r0], -r4
    114c:	00030735 	andeq	r0, r3, r5, lsr r7
    1150:	36260100 	strtcc	r0, [r6], -r0, lsl #2
    1154:	05000011 	streq	r0, [r0, #-17]
    1158:	00bed003 	adcseq	sp, lr, r3
    115c:	03813500 	orreq	r3, r1, #0, 10
    1160:	27010000 	strcs	r0, [r1, -r0]
    1164:	00001136 	andeq	r1, r0, r6, lsr r1
    1168:	becc0305 	cdplt	3, 12, cr0, cr12, cr5, {0}
    116c:	57350000 	ldrpl	r0, [r5, -r0]!
    1170:	01000001 	tsteq	r0, r1
    1174:	00019491 	muleq	r1, r1, r4
    1178:	bc030500 	cfstr32lt	mvfx0, [r3], {-0}
    117c:	350000be 	strcc	r0, [r0, #-190]	; 0xbe
    1180:	00000231 	andeq	r0, r0, r1, lsr r2
    1184:	01949201 	orrseq	r9, r4, r1, lsl #4
    1188:	03050000 	movweq	r0, #20480	; 0x5000
    118c:	0000bec8 	andeq	fp, r0, r8, asr #29
    1190:	00012036 	andeq	r2, r1, r6, lsr r0
    1194:	371e0600 	ldrcc	r0, [lr, -r0, lsl #12]
    1198:	000004fe 	strdeq	r0, [r0], -lr
    119c:	00252906 	eoreq	r2, r5, r6, lsl #18
    11a0:	11ad0000 			; <UNDEFINED> instruction: 0x11ad0000
    11a4:	91380000 	teqls	r8, r0
    11a8:	39000000 	stmdbcc	r0, {}	; <UNPREDICTABLE>
    11ac:	01b83600 			; <UNDEFINED> instruction: 0x01b83600
    11b0:	66060000 	strvs	r0, [r6], -r0
    11b4:	0002df3a 	andeq	sp, r2, sl, lsr pc
    11b8:	c5500600 	ldrbgt	r0, [r0, #-1536]	; 0x600
    11bc:	38000011 	stmdacc	r0, {r0, r4}
    11c0:	00000037 	andeq	r0, r0, r7, lsr r0
    11c4:	02183600 	andseq	r3, r8, #0, 12
    11c8:	31070000 	mrscc	r0, (UNDEF: 7)
    11cc:	00044d36 	andeq	r4, r4, r6, lsr sp
    11d0:	36320700 	ldrtcc	r0, [r2], -r0, lsl #14
    11d4:	0000029c 	muleq	r0, ip, r2
    11d8:	623a8a06 	eorsvs	r8, sl, #24576	; 0x6000
    11dc:	08000001 	stmdaeq	r0, {r0}
    11e0:	0011eb5a 	andseq	lr, r1, sl, asr fp
    11e4:	00373800 	eorseq	r3, r7, r0, lsl #16
    11e8:	37000000 	strcc	r0, [r0, -r0]
    11ec:	000003ec 	andeq	r0, r0, ip, ror #7
    11f0:	00881b09 	addeq	r1, r8, r9, lsl #22
    11f4:	120a0000 	andne	r0, sl, #0
    11f8:	88380000 	ldmdahi	r8!, {}	; <UNPREDICTABLE>
    11fc:	38000000 	stmdacc	r0, {}	; <UNPREDICTABLE>
    1200:	00000025 	andeq	r0, r0, r5, lsr #32
    1204:	00002c38 	andeq	r2, r0, r8, lsr ip
    1208:	46360000 	ldrtmi	r0, [r6], -r0
    120c:	06000000 	streq	r0, [r0], -r0
    1210:	020a363a 	andeq	r3, sl, #60817408	; 0x3a00000
    1214:	33070000 	movwcc	r0, #28672	; 0x7000
    1218:	0003f33a 	andeq	pc, r3, sl, lsr r3	; <UNPREDICTABLE>
    121c:	291d0800 	ldmdbcs	sp, {fp}
    1220:	38000012 	stmdacc	r0, {r1, r4}
    1224:	00000037 	andeq	r0, r0, r7, lsr r0
    1228:	03723a00 	cmneq	r2, #0, 20
    122c:	1c080000 	stcne	0, cr0, [r8], {-0}
    1230:	0000123a 	andeq	r1, r0, sl, lsr r2
    1234:	00003738 	andeq	r3, r0, r8, lsr r7
    1238:	2d3a0000 	ldccs	0, cr0, [sl, #-0]
    123c:	08000004 	stmdaeq	r0, {r2}
    1240:	00124b52 	andseq	r4, r2, r2, asr fp
    1244:	00373800 	eorseq	r3, r7, r0, lsl #16
    1248:	36000000 	strcc	r0, [r0], -r0
    124c:	00000408 	andeq	r0, r0, r8, lsl #8
    1250:	db008e06 	blle	24a70 <__bss_end__+0x18798>
    1254:	04000000 	streq	r0, [r0], #-0
    1258:	0002f300 	andeq	pc, r2, r0, lsl #6
    125c:	15010400 	strne	r0, [r1, #-1024]	; 0x400
    1260:	01000003 	tsteq	r0, r3
    1264:	0000048c 	andeq	r0, r0, ip, lsl #9
    1268:	0000049a 	muleq	r0, sl, r4
    126c:	00008840 	andeq	r8, r0, r0, asr #16
    1270:	00000020 	andeq	r0, r0, r0, lsr #32
    1274:	000003f8 	strdeq	r0, [r0], -r8
    1278:	aa060102 	bge	181688 <__bss_end__+0x1753b0>
    127c:	02000002 	andeq	r0, r0, #2
    1280:	02a80801 	adceq	r0, r8, #65536	; 0x10000
    1284:	02020000 	andeq	r0, r2, #0
    1288:	0002c305 	andeq	ip, r2, r5, lsl #6
    128c:	07020200 	streq	r0, [r2, -r0, lsl #4]
    1290:	00000189 	andeq	r0, r0, r9, lsl #3
    1294:	69050403 	stmdbvs	r5, {r0, r1, sl}
    1298:	0200746e 	andeq	r7, r0, #1845493760	; 0x6e000000
    129c:	005a0704 	subseq	r0, sl, r4, lsl #14
    12a0:	08020000 	stmdaeq	r2, {}	; <UNPREDICTABLE>
    12a4:	00008705 	andeq	r8, r0, r5, lsl #14
    12a8:	07080200 	streq	r0, [r8, -r0, lsl #4]
    12ac:	00000050 	andeq	r0, r0, r0, asr r0
    12b0:	8c050402 	cfstrshi	mvf0, [r5], {2}
    12b4:	02000000 	andeq	r0, r0, #0
    12b8:	01ca0704 	biceq	r0, sl, r4, lsl #14
    12bc:	04040000 	streq	r0, [r4], #-0
    12c0:	55070402 	strpl	r0, [r7, #-1026]	; 0x402
    12c4:	05000000 	streq	r0, [r0, #-0]
    12c8:	00007a04 	andeq	r7, r0, r4, lsl #20
    12cc:	08010200 	stmdaeq	r1, {r9}
    12d0:	000002b1 			; <UNDEFINED> instruction: 0x000002b1
    12d4:	00000006 	andeq	r0, r0, r6
    12d8:	48d40200 	ldmmi	r4, {r9}^
    12dc:	07000000 	streq	r0, [r0, -r0]
    12e0:	000003ec 	andeq	r0, r0, ip, ror #7
    12e4:	006b1b03 	rsbeq	r1, fp, r3, lsl #22
    12e8:	88400000 	stmdahi	r0, {}^	; <UNPREDICTABLE>
    12ec:	00200000 	eoreq	r0, r0, r0
    12f0:	9c010000 	stcls	0, cr0, [r1], {-0}
    12f4:	00705f08 	rsbseq	r5, r0, r8, lsl #30
    12f8:	006b0301 	rsbeq	r0, fp, r1, lsl #6
    12fc:	50010000 	andpl	r0, r1, r0
    1300:	01006308 	tsteq	r0, r8, lsl #6
    1304:	00004103 	andeq	r4, r0, r3, lsl #2
    1308:	09510100 	ldmdbeq	r1, {r8}^
    130c:	0301006e 	movweq	r0, #4206	; 0x106e
    1310:	00000081 	andeq	r0, r0, r1, lsl #1
    1314:	00000735 	andeq	r0, r0, r5, lsr r7
    1318:	0100700a 	tsteq	r0, sl
    131c:	00007404 	andeq	r7, r0, r4, lsl #8
    1320:	00075600 	andeq	r5, r7, r0, lsl #12
    1324:	00650b00 	rsbeq	r0, r5, r0, lsl #22
    1328:	00740401 	rsbseq	r0, r4, r1, lsl #8
    132c:	52010000 	andpl	r0, r1, #0
    1330:	01910000 	orrseq	r0, r1, r0
    1334:	00040000 	andeq	r0, r4, r0
    1338:	00000390 	muleq	r0, r0, r3
    133c:	03150104 	tsteq	r5, #4, 2
    1340:	ed010000 	stc	0, cr0, [r1, #-0]
    1344:	9a000004 	bls	135c <_start-0x6ca4>
    1348:	60000004 	andvs	r0, r0, r4
    134c:	58000088 	stmdapl	r0, {r3, r7}
    1350:	e8000000 	stmda	r0, {}	; <UNPREDICTABLE>
    1354:	02000004 	andeq	r0, r0, #4
    1358:	000004de 	ldrdeq	r0, [r0], -lr
    135c:	00302802 	eorseq	r2, r0, r2, lsl #16
    1360:	05030000 	streq	r0, [r3, #-0]
    1364:	04000005 	streq	r0, [r0], #-5
    1368:	00470003 	subeq	r0, r7, r3
    136c:	14040000 	strne	r0, [r4], #-0
    1370:	47000005 	strmi	r0, [r0, -r5]
    1374:	00000000 	andeq	r0, r0, r0
    1378:	02040500 	andeq	r0, r4, #0, 10
    137c:	00000507 	andeq	r0, r0, r7, lsl #10
    1380:	00256202 	eoreq	r6, r5, r2, lsl #4
    1384:	04060000 	streq	r0, [r6], #-0
    1388:	746e6905 	strbtvc	r6, [lr], #-2309	; 0x905
    138c:	07040700 	streq	r0, [r4, -r0, lsl #14]
    1390:	0000005a 	andeq	r0, r0, sl, asr r0
    1394:	aa060107 	bge	1817b8 <__bss_end__+0x1754e0>
    1398:	07000002 	streq	r0, [r0, -r2]
    139c:	02c30502 	sbceq	r0, r3, #8388608	; 0x800000
    13a0:	04070000 	streq	r0, [r7], #-0
    13a4:	00008c05 	andeq	r8, r0, r5, lsl #24
    13a8:	05080700 	streq	r0, [r8, #-1792]	; 0x700
    13ac:	00000087 	andeq	r0, r0, r7, lsl #1
    13b0:	a8080107 	stmdage	r8, {r0, r1, r2, r8}
    13b4:	07000002 	streq	r0, [r0, -r2]
    13b8:	01890702 	orreq	r0, r9, r2, lsl #14
    13bc:	04070000 	streq	r0, [r7], #-0
    13c0:	00005507 	andeq	r5, r0, r7, lsl #10
    13c4:	07080700 	streq	r0, [r8, -r0, lsl #14]
    13c8:	00000050 	andeq	r0, r0, r0, asr r0
    13cc:	ca070407 	bgt	1c23f0 <__bss_end__+0x1b6118>
    13d0:	08000001 	stmdaeq	r0, {r0}
    13d4:	0000a704 	andeq	sl, r0, r4, lsl #14
    13d8:	08010700 	stmdaeq	r1, {r8, r9, sl}
    13dc:	000002b1 			; <UNDEFINED> instruction: 0x000002b1
    13e0:	00b40408 	adcseq	r0, r4, r8, lsl #8
    13e4:	a7090000 	strge	r0, [r9, -r0]
    13e8:	0a000000 	beq	13f0 <_start-0x6c10>
    13ec:	000004fe 	strdeq	r0, [r0], -lr
    13f0:	00540601 	subseq	r0, r4, r1, lsl #12
    13f4:	88600000 	stmdahi	r0!, {}^	; <UNPREDICTABLE>
    13f8:	00580000 	subseq	r0, r8, r0
    13fc:	9c010000 	stcls	0, cr0, [r1], {-0}
    1400:	00000143 	andeq	r0, r0, r3, asr #2
    1404:	746d660b 	strbtvc	r6, [sp], #-1547	; 0x60b
    1408:	ae060100 	adfges	f0, f6, f0
    140c:	02000000 	andeq	r0, r0, #0
    1410:	0d0c7091 	stceq	0, cr7, [ip, #-580]	; 0xfffffdbc
    1414:	00667562 	rsbeq	r7, r6, r2, ror #10
    1418:	01430801 	cmpeq	r3, r1, lsl #16
    141c:	03050000 	movweq	r0, #20480	; 0x5000
    1420:	0000bed4 	ldrdeq	fp, [r0], -r4
    1424:	00050f0e 	andeq	r0, r5, lr, lsl #30
    1428:	49090100 	stmdbmi	r9, {r8}
    142c:	02000000 	andeq	r0, r0, #0
    1430:	730f5c91 	movwvc	r5, #64657	; 0xfc91
    1434:	0c01007a 	stceq	0, cr0, [r1], {122}	; 0x7a
    1438:	00000054 	andeq	r0, r0, r4, asr r0
    143c:	00000781 	andeq	r0, r0, r1, lsl #15
    1440:	00888810 	addeq	r8, r8, r0, lsl r8
    1444:	00017400 	andeq	r7, r1, r0, lsl #8
    1448:	00013600 	andeq	r3, r1, r0, lsl #12
    144c:	53011100 	movwpl	r1, #4352	; 0x1100
    1450:	114c9102 	cmpne	ip, r2, lsl #2
    1454:	91035201 	tstls	r3, r1, lsl #4
    1458:	01110648 	tsteq	r1, r8, asr #12
    145c:	000a0351 	andeq	r0, sl, r1, asr r3
    1460:	50011104 	andpl	r1, r1, r4, lsl #2
    1464:	00007402 	andeq	r7, r0, r2, lsl #8
    1468:	00889c12 	addeq	r9, r8, r2, lsl ip
    146c:	50011100 	andpl	r1, r1, r0, lsl #2
    1470:	00007402 	andeq	r7, r0, r2, lsl #8
    1474:	00a71300 	adceq	r1, r7, r0, lsl #6
    1478:	01540000 	cmpeq	r4, r0
    147c:	9a140000 	bls	501484 <__bss_end__+0x4f51ac>
    1480:	ff000000 			; <UNDEFINED> instruction: 0xff000000
    1484:	54150003 	ldrpl	r0, [r5], #-3
    1488:	63000000 	movwvs	r0, #0
    148c:	16000001 	strne	r0, [r0], -r1
    1490:	000000ae 	andeq	r0, r0, lr, lsr #1
    1494:	05711700 	ldrbeq	r1, [r1, #-1792]!	; 0x700
    1498:	22040000 	andcs	r0, r4, #0
    149c:	0000016e 	andeq	r0, r0, lr, ror #2
    14a0:	01540408 	cmpeq	r4, r8, lsl #8
    14a4:	fb180000 	blx	6014ae <__bss_end__+0x5f51d6>
    14a8:	05000004 	streq	r0, [r0, #-4]
    14ac:	00005402 	andeq	r5, r0, r2, lsl #8
    14b0:	00a11600 	adceq	r1, r1, r0, lsl #12
    14b4:	54160000 	ldrpl	r0, [r6], #-0
    14b8:	16000000 	strne	r0, [r0], -r0
    14bc:	000000ae 	andeq	r0, r0, lr, lsr #1
    14c0:	00004916 	andeq	r4, r0, r6, lsl r9
    14c4:	13000000 	movwne	r0, #0
    14c8:	04000001 	streq	r0, [r0], #-1
    14cc:	0004c100 	andeq	ip, r4, r0, lsl #2
    14d0:	15010400 	strne	r0, [r1, #-1024]	; 0x400
    14d4:	01000003 	tsteq	r0, r3
    14d8:	00000540 	andeq	r0, r0, r0, asr #10
    14dc:	0000049a 	muleq	r0, sl, r4
    14e0:	000088b8 			; <UNDEFINED> instruction: 0x000088b8
    14e4:	0000003c 	andeq	r0, r0, ip, lsr r0
    14e8:	000005ee 	andeq	r0, r0, lr, ror #11
    14ec:	69050402 	stmdbvs	r5, {r1, sl}
    14f0:	0300746e 	movweq	r7, #1134	; 0x46e
    14f4:	005a0704 	subseq	r0, sl, r4, lsl #14
    14f8:	01030000 	mrseq	r0, (UNDEF: 3)
    14fc:	0002aa06 	andeq	sl, r2, r6, lsl #20
    1500:	05020300 	streq	r0, [r2, #-768]	; 0x300
    1504:	000002c3 	andeq	r0, r0, r3, asr #5
    1508:	8c050403 	cfstrshi	mvf0, [r5], {3}
    150c:	03000000 	movweq	r0, #0
    1510:	00870508 	addeq	r0, r7, r8, lsl #10
    1514:	01030000 	mrseq	r0, (UNDEF: 3)
    1518:	0002a808 	andeq	sl, r2, r8, lsl #16
    151c:	07020300 	streq	r0, [r2, -r0, lsl #6]
    1520:	00000189 	andeq	r0, r0, r9, lsl #3
    1524:	55070403 	strpl	r0, [r7, #-1027]	; 0x403
    1528:	03000000 	movweq	r0, #0
    152c:	00500708 	subseq	r0, r0, r8, lsl #14
    1530:	04030000 	streq	r0, [r3], #-0
    1534:	0001ca07 	andeq	ip, r1, r7, lsl #20
    1538:	08010300 	stmdaeq	r1, {r8, r9}
    153c:	000002b1 			; <UNDEFINED> instruction: 0x000002b1
    1540:	00052304 	andeq	r2, r5, r4, lsl #6
    1544:	25030100 	strcs	r0, [r3, #-256]	; 0x100
    1548:	b8000000 	stmdalt	r0, {}	; <UNPREDICTABLE>
    154c:	14000088 	strne	r0, [r0], #-136	; 0x88
    1550:	01000000 	mrseq	r0, (UNDEF: 0)
    1554:	0000b09c 	muleq	r0, ip, r0
    1558:	00630500 	rsbeq	r0, r3, r0, lsl #10
    155c:	00250301 	eoreq	r0, r5, r1, lsl #6
    1560:	07aa0000 	streq	r0, [sl, r0]!
    1564:	c4060000 	strgt	r0, [r6], #-0
    1568:	09000088 	stmdbeq	r0, {r3, r7}
    156c:	07000001 	streq	r0, [r0, -r1]
    1570:	74025001 	strvc	r5, [r2], #-1
    1574:	08000000 	stmdaeq	r0, {}	; <UNPREDICTABLE>
    1578:	00000120 	andeq	r0, r0, r0, lsr #2
    157c:	88cc0801 	stmiahi	ip, {r0, fp}^
    1580:	00180000 	andseq	r0, r8, r0
    1584:	9c010000 	stcls	0, cr0, [r1], {-0}
    1588:	00054f09 	andeq	r4, r5, r9, lsl #30
    158c:	e40b0100 	str	r0, [fp], #-256	; 0x100
    1590:	10000088 	andne	r0, r0, r8, lsl #1
    1594:	01000000 	mrseq	r0, (UNDEF: 0)
    1598:	0000e39c 	muleq	r0, ip, r3
    159c:	70660a00 	rsbvc	r0, r6, r0, lsl #20
    15a0:	f20b0100 	vrhadd.s8	d0, d11, d0
    15a4:	01000000 	mrseq	r0, (UNDEF: 0)
    15a8:	250b0050 	strcs	r0, [fp, #-80]	; 0x50
    15ac:	f2000000 	vhadd.s8	d0, d0, d0
    15b0:	0c000000 	stceq	0, cr0, [r0], {-0}
    15b4:	00000025 	andeq	r0, r0, r5, lsr #32
    15b8:	e3040d00 	movw	r0, #19712	; 0x4d00
    15bc:	0e000000 	cdpeq	0, 0, cr0, cr0, cr0, {0}
    15c0:	00000534 	andeq	r0, r0, r4, lsr r5
    15c4:	00f20601 	rscseq	r0, r2, r1, lsl #12
    15c8:	03050000 	movweq	r0, #20480	; 0x5000
    15cc:	00009998 	muleq	r0, r8, r9
    15d0:	0005190f 	andeq	r1, r5, pc, lsl #18
    15d4:	0c3c0200 	lfmeq	f0, 4, [ip], #-0
    15d8:	0000002c 	andeq	r0, r0, ip, lsr #32
    15dc:	00ee0000 	rsceq	r0, lr, r0
    15e0:	00040000 	andeq	r0, r4, r0
    15e4:	000005a9 	andeq	r0, r0, r9, lsr #11
    15e8:	03150104 	tsteq	r5, #4, 2
    15ec:	5c010000 	stcpl	0, cr0, [r1], {-0}
    15f0:	9a000005 	bls	160c <_start-0x69f4>
    15f4:	f4000004 	vst4.8	{d0-d3}, [r0], r4
    15f8:	34000088 	strcc	r0, [r0], #-136	; 0x88
    15fc:	7c000000 	stcvc	0, cr0, [r0], {-0}
    1600:	02000006 	andeq	r0, r0, #6
    1604:	6e690504 	cdpvs	5, 6, cr0, cr9, cr4, {0}
    1608:	04030074 	streq	r0, [r3], #-116	; 0x74
    160c:	00005a07 	andeq	r5, r0, r7, lsl #20
    1610:	06010300 	streq	r0, [r1], -r0, lsl #6
    1614:	000002aa 	andeq	r0, r0, sl, lsr #5
    1618:	c3050203 	movwgt	r0, #20995	; 0x5203
    161c:	03000002 	movweq	r0, #2
    1620:	008c0504 	addeq	r0, ip, r4, lsl #10
    1624:	08030000 	stmdaeq	r3, {}	; <UNPREDICTABLE>
    1628:	00008705 	andeq	r8, r0, r5, lsl #14
    162c:	08010300 	stmdaeq	r1, {r8, r9}
    1630:	000002a8 	andeq	r0, r0, r8, lsr #5
    1634:	89070203 	stmdbhi	r7, {r0, r1, r9}
    1638:	03000001 	movweq	r0, #1
    163c:	00550704 	subseq	r0, r5, r4, lsl #14
    1640:	08030000 	stmdaeq	r3, {}	; <UNPREDICTABLE>
    1644:	00005007 	andeq	r5, r0, r7
    1648:	07040300 	streq	r0, [r4, -r0, lsl #6]
    164c:	000001ca 	andeq	r0, r0, sl, asr #3
    1650:	b1080103 	tstlt	r8, r3, lsl #2
    1654:	04000002 	streq	r0, [r0], #-2
    1658:	00007f04 	andeq	r7, r0, r4, lsl #30
    165c:	00720500 	rsbseq	r0, r2, r0, lsl #10
    1660:	68060000 	stmdavs	r6, {}	; <UNPREDICTABLE>
    1664:	01000005 	tsteq	r0, r5
    1668:	00002504 	andeq	r2, r0, r4, lsl #10
    166c:	0088f400 	addeq	pc, r8, r0, lsl #8
    1670:	00003400 	andeq	r3, r0, r0, lsl #8
    1674:	ab9c0100 	blge	fe701a7c <__bss_end__+0xfe6f57a4>
    1678:	07000000 	streq	r0, [r0, -r0]
    167c:	04010070 	streq	r0, [r1], #-112	; 0x70
    1680:	00000079 	andeq	r0, r0, r9, ror r0
    1684:	000007c8 	andeq	r0, r0, r8, asr #15
    1688:	00250800 	eoreq	r0, r5, r0, lsl #16
    168c:	00ba0000 	adcseq	r0, sl, r0
    1690:	25090000 	strcs	r0, [r9, #-0]
    1694:	00000000 	andeq	r0, r0, r0
    1698:	0005340a 	andeq	r3, r5, sl, lsl #8
    169c:	c51d0200 	ldrgt	r0, [sp, #-512]	; 0x200
    16a0:	04000000 	streq	r0, [r0], #-0
    16a4:	0000ab04 	andeq	sl, r0, r4, lsl #22
    16a8:	00250800 	eoreq	r0, r5, r0, lsl #16
    16ac:	00da0000 	sbcseq	r0, sl, r0
    16b0:	79090000 	stmdbvc	r9, {}	; <UNPREDICTABLE>
    16b4:	00000000 	andeq	r0, r0, r0
    16b8:	0005710b 	andeq	r7, r5, fp, lsl #2
    16bc:	eb0c0100 	bl	301ac4 <__bss_end__+0x2f57ec>
    16c0:	05000000 	streq	r0, [r0, #-0]
    16c4:	00999c03 	addseq	r9, r9, r3, lsl #24
    16c8:	cb040400 	blgt	1026d0 <__bss_end__+0xf63f8>
    16cc:	00000000 	andeq	r0, r0, r0
    16d0:	00000681 	andeq	r0, r0, r1, lsl #13
    16d4:	06420004 	strbeq	r0, [r2], -r4
    16d8:	01040000 	mrseq	r0, (UNDEF: 4)
    16dc:	00000315 	andeq	r0, r0, r5, lsl r3
    16e0:	0005a201 	andeq	sl, r5, r1, lsl #4
    16e4:	00049a00 	andeq	r9, r4, r0, lsl #20
    16e8:	00892800 	addeq	r2, r9, r0, lsl #16
    16ec:	0004f800 	andeq	pc, r4, r0, lsl #16
    16f0:	00071600 	andeq	r1, r7, r0, lsl #12
    16f4:	05040200 	streq	r0, [r4, #-512]	; 0x200
    16f8:	00746e69 	rsbseq	r6, r4, r9, ror #28
    16fc:	5a070403 	bpl	1c2710 <__bss_end__+0x1b6438>
    1700:	03000000 	movweq	r0, #0
    1704:	02aa0601 	adceq	r0, sl, #1048576	; 0x100000
    1708:	02030000 	andeq	r0, r3, #0
    170c:	0002c305 	andeq	ip, r2, r5, lsl #6
    1710:	05040300 	streq	r0, [r4, #-768]	; 0x300
    1714:	0000008c 	andeq	r0, r0, ip, lsl #1
    1718:	87050803 	strhi	r0, [r5, -r3, lsl #16]
    171c:	03000000 	movweq	r0, #0
    1720:	02a80801 	adceq	r0, r8, #65536	; 0x10000
    1724:	02030000 	andeq	r0, r3, #0
    1728:	00018907 	andeq	r8, r1, r7, lsl #18
    172c:	07040300 	streq	r0, [r4, -r0, lsl #6]
    1730:	00000055 	andeq	r0, r0, r5, asr r0
    1734:	50070803 	andpl	r0, r7, r3, lsl #16
    1738:	03000000 	movweq	r0, #0
    173c:	01ca0704 	biceq	r0, sl, r4, lsl #14
    1740:	04040000 	streq	r0, [r4], #-0
    1744:	007a0405 	rsbseq	r0, sl, r5, lsl #8
    1748:	01030000 	mrseq	r0, (UNDEF: 3)
    174c:	0002b108 	andeq	fp, r2, r8, lsl #2
    1750:	87040500 	strhi	r0, [r4, -r0, lsl #10]
    1754:	06000000 	streq	r0, [r0], -r0
    1758:	0000007a 	andeq	r0, r0, sl, ror r0
    175c:	0004de07 	andeq	sp, r4, r7, lsl #28
    1760:	97280200 	strls	r0, [r8, -r0, lsl #4]!
    1764:	08000000 	stmdaeq	r0, {}	; <UNPREDICTABLE>
    1768:	00000505 	andeq	r0, r0, r5, lsl #10
    176c:	ae000404 	cdpge	4, 0, cr0, cr0, cr4, {0}
    1770:	09000000 	stmdbeq	r0, {}	; <UNPREDICTABLE>
    1774:	00000514 	andeq	r0, r0, r4, lsl r5
    1778:	00000072 	andeq	r0, r0, r2, ror r0
    177c:	07070000 	streq	r0, [r7, -r0]
    1780:	02000005 	andeq	r0, r0, #5
    1784:	00008c62 	andeq	r8, r0, r2, ror #24
    1788:	05840a00 	streq	r0, [r4, #2560]	; 0xa00
    178c:	27010000 	strcs	r0, [r1, -r0]
    1790:	00000025 	andeq	r0, r0, r5, lsr #32
    1794:	00008928 	andeq	r8, r0, r8, lsr #18
    1798:	00000014 	andeq	r0, r0, r4, lsl r0
    179c:	00e09c01 	rsceq	r9, r0, r1, lsl #24
    17a0:	630b0000 	movwvs	r0, #45056	; 0xb000
    17a4:	25270100 	strcs	r0, [r7, #-256]!	; 0x100
    17a8:	e6000000 	str	r0, [r0], -r0
    17ac:	00000007 	andeq	r0, r0, r7
    17b0:	6461700c 	strbtvs	r7, [r1], #-12
    17b4:	742e0100 	strtvc	r0, [lr], #-256	; 0x100
    17b8:	3c000000 	stccc	0, cr0, [r0], {-0}
    17bc:	2c000089 	stccs	0, cr0, [r0], {137}	; 0x89
    17c0:	01000000 	mrseq	r0, (UNDEF: 0)
    17c4:	0001309c 	muleq	r1, ip, r0
    17c8:	00700b00 	rsbseq	r0, r0, r0, lsl #22
    17cc:	00742e01 	rsbseq	r2, r4, r1, lsl #28
    17d0:	08140000 	ldmdaeq	r4, {}	; <UNPREDICTABLE>
    17d4:	940d0000 	strls	r0, [sp], #-0
    17d8:	01000005 	tsteq	r0, r5
    17dc:	0000742e 	andeq	r7, r0, lr, lsr #8
    17e0:	00083f00 	andeq	r3, r8, r0, lsl #30
    17e4:	05c20e00 	strbeq	r0, [r2, #3584]	; 0xe00
    17e8:	2e010000 	cdpcs	0, 0, cr0, cr1, cr0, {0}
    17ec:	00000025 	andeq	r0, r0, r5, lsr #32
    17f0:	6c0f5201 	sfmvs	f5, 4, [pc], {1}
    17f4:	01006e65 	tsteq	r0, r5, ror #28
    17f8:	0000252f 	andeq	r2, r0, pc, lsr #10
    17fc:	00510100 	subseq	r0, r1, r0, lsl #2
    1800:	00057c0a 	andeq	r7, r5, sl, lsl #24
    1804:	74370100 	ldrtvc	r0, [r7], #-256	; 0x100
    1808:	68000000 	stmdavs	r0, {}	; <UNPREDICTABLE>
    180c:	40000089 	andmi	r0, r0, r9, lsl #1
    1810:	01000000 	mrseq	r0, (UNDEF: 0)
    1814:	00019c9c 	muleq	r1, ip, ip
    1818:	73640b00 	cmnvc	r4, #0, 22
    181c:	37010074 	smlsdxcc	r1, r4, r0, r0
    1820:	00000074 	andeq	r0, r0, r4, ror r0
    1824:	00000860 	andeq	r0, r0, r0, ror #16
    1828:	01006e0b 	tsteq	r0, fp, lsl #28
    182c:	00002537 	andeq	r2, r0, r7, lsr r5
    1830:	00089800 	andeq	r9, r8, r0, lsl #16
    1834:	00700b00 	rsbseq	r0, r0, r0, lsl #22
    1838:	00743701 	rsbseq	r3, r4, r1, lsl #14
    183c:	08b90000 	ldmeq	r9!, {}	; <UNPREDICTABLE>
    1840:	530d0000 	movwpl	r0, #53248	; 0xd000
    1844:	01000006 	tsteq	r0, r6
    1848:	00007437 	andeq	r7, r0, r7, lsr r4
    184c:	0008ef00 	andeq	lr, r8, r0, lsl #30
    1850:	656c1000 	strbvs	r1, [ip, #-0]!
    1854:	3901006e 	stmdbcc	r1, {r1, r2, r3, r5, r6}
    1858:	00000025 	andeq	r0, r0, r5, lsr #32
    185c:	0000090d 	andeq	r0, r0, sp, lsl #18
    1860:	0100730f 	tsteq	r0, pc, lsl #6
    1864:	0000743d 	andeq	r7, r0, sp, lsr r4
    1868:	00500100 	subseq	r0, r0, r0, lsl #2
    186c:	0005d00a 	andeq	sp, r5, sl
    1870:	74470100 	strbvc	r0, [r7], #-256	; 0x100
    1874:	a8000000 	stmdage	r0, {}	; <UNPREDICTABLE>
    1878:	9c000089 	stcls	0, cr0, [r0], {137}	; 0x89
    187c:	01000001 	tsteq	r0, r1
    1880:	0002d39c 	muleq	r2, ip, r3
    1884:	05940d00 	ldreq	r0, [r4, #3328]	; 0xd00
    1888:	47010000 	strmi	r0, [r1, -r0]
    188c:	0000002c 	andeq	r0, r0, ip, lsr #32
    1890:	00000934 	andeq	r0, r0, r4, lsr r9
    1894:	7473640b 	ldrbtvc	r6, [r3], #-1035	; 0x40b
    1898:	74470100 	strbvc	r0, [r7], #-256	; 0x100
    189c:	62000000 	andvs	r0, r0, #0
    18a0:	0b000009 	bleq	18cc <_start-0x6734>
    18a4:	4701006e 	strmi	r0, [r1, -lr, rrx]
    18a8:	00000025 	andeq	r0, r0, r5, lsr #32
    18ac:	000009d0 	ldrdeq	r0, [r0], -r0	; <UNPREDICTABLE>
    18b0:	6c61760b 	stclvs	6, cr7, [r1], #-44	; 0xffffffd4
    18b4:	25470100 	strbcs	r0, [r7, #-256]	; 0x100
    18b8:	fc000000 	stc2	0, cr0, [r0], {-0}
    18bc:	0d000009 	stceq	0, cr0, [r0, #-36]	; 0xffffffdc
    18c0:	000005c2 	andeq	r0, r0, r2, asr #11
    18c4:	00254701 	eoreq	r4, r5, r1, lsl #14
    18c8:	0a7b0000 	beq	1ec18d0 <__bss_end__+0x1eb55f8>
    18cc:	990e0000 	stmdbls	lr, {}	; <UNPREDICTABLE>
    18d0:	01000005 	tsteq	r0, r5
    18d4:	00002547 	andeq	r2, r0, r7, asr #10
    18d8:	04910200 	ldreq	r0, [r1], #512	; 0x200
    18dc:	6675620f 	ldrbtvs	r6, [r5], -pc, lsl #4
    18e0:	d34c0100 	movtle	r0, #49408	; 0xc100
    18e4:	03000002 	movweq	r0, #2
    18e8:	107fa891 			; <UNDEFINED> instruction: 0x107fa891
    18ec:	4c010070 	stcmi	0, cr0, [r1], {112}	; 0x70
    18f0:	00000074 	andeq	r0, r0, r4, ror r0
    18f4:	00000aa5 	andeq	r0, r0, r5, lsr #21
    18f8:	01007510 	tsteq	r0, r0, lsl r5
    18fc:	00002c4d 	andeq	r2, r0, sp, asr #24
    1900:	000b4a00 	andeq	r4, fp, r0, lsl #20
    1904:	01731100 	cmneq	r3, r0, lsl #2
    1908:	02f30000 	rscseq	r0, r3, #0
    190c:	03050000 	movweq	r0, #20480	; 0x5000
    1910:	00009bd0 	ldrdeq	r9, [r0], -r0
    1914:	008a1412 	addeq	r1, sl, r2, lsl r4
    1918:	00007400 	andeq	r7, r0, r0, lsl #8
    191c:	00026100 	andeq	r6, r2, r0, lsl #2
    1920:	05761300 	ldrbeq	r1, [r6, #-768]!	; 0x300
    1924:	52010000 	andpl	r0, r1, #0
    1928:	0000002c 	andeq	r0, r0, ip, lsr #32
    192c:	00000c4f 	andeq	r0, r0, pc, asr #24
    1930:	8ae81400 	bhi	ffa06938 <__bss_end__+0xff9fa660>
    1934:	06600000 	strbteq	r0, [r0], -r0
    1938:	fc150000 	ldc2	0, cr0, [r5], {-0}
    193c:	6700008a 	strvs	r0, [r0, -sl, lsl #1]
    1940:	99000006 	stmdbls	r0, {r1, r2}
    1944:	16000002 	strne	r0, [r0], -r2
    1948:	08025301 	stmdaeq	r2, {r0, r8, r9, ip, lr}
    194c:	52011675 	andpl	r1, r1, #122683392	; 0x7500000
    1950:	9bd00305 	blls	ff40256c <__bss_end__+0xff3f6294>
    1954:	01160000 	tsteq	r6, r0
    1958:	08030551 	stmdaeq	r3, {r0, r4, r6, r8, sl}
    195c:	1600009c 			; <UNDEFINED> instruction: 0x1600009c
    1960:	03055001 	movweq	r5, #20481	; 0x5001
    1964:	00009bf4 	strdeq	r9, [r0], -r4
    1968:	8b001400 	blhi	6970 <_start-0x1690>
    196c:	067d0000 	ldrbteq	r0, [sp], -r0
    1970:	0c150000 	ldceq	0, cr0, [r5], {-0}
    1974:	e000008b 	and	r0, r0, fp, lsl #1
    1978:	b6000000 	strlt	r0, [r0], -r0
    197c:	16000002 	strne	r0, [r0], -r2
    1980:	7d025101 	stfvcs	f5, [r2, #-4]
    1984:	20170000 	andscs	r0, r7, r0
    1988:	3000008b 	andcc	r0, r0, fp, lsl #1
    198c:	16000001 	strne	r0, [r0], -r1
    1990:	7d025301 	stcvc	3, cr5, [r2, #-4]
    1994:	51011600 	tstpl	r1, r0, lsl #12
    1998:	16007402 	strne	r7, [r0], -r2, lsl #8
    199c:	75025001 	strvc	r5, [r2, #-1]
    19a0:	18000000 	stmdane	r0, {}	; <UNPREDICTABLE>
    19a4:	0000007a 	andeq	r0, r0, sl, ror r0
    19a8:	000002e3 	andeq	r0, r0, r3, ror #5
    19ac:	00006b19 	andeq	r6, r0, r9, lsl fp
    19b0:	18003f00 	stmdane	r0, {r8, r9, sl, fp, ip, sp}
    19b4:	0000007a 	andeq	r0, r0, sl, ror r0
    19b8:	000002f3 	strdeq	r0, [r0], -r3
    19bc:	00006b19 	andeq	r6, r0, r9, lsl fp
    19c0:	06000400 	streq	r0, [r0], -r0, lsl #8
    19c4:	000002e3 	andeq	r0, r0, r3, ror #5
    19c8:	0005b31a 	andeq	fp, r5, sl, lsl r3
    19cc:	441f0100 	ldrmi	r0, [pc], #-256	; 19d4 <_start-0x662c>
    19d0:	5400008b 	strpl	r0, [r0], #-139	; 0x8b
    19d4:	01000000 	mrseq	r0, (UNDEF: 0)
    19d8:	00037c9c 	muleq	r3, ip, ip
    19dc:	05c80d00 	strbeq	r0, [r8, #3328]	; 0xd00
    19e0:	1f010000 	svcne	0x00010000
    19e4:	0000038b 	andeq	r0, r0, fp, lsl #7
    19e8:	00000c7b 	andeq	r0, r0, fp, ror ip
    19ec:	00058c0d 	andeq	r8, r5, sp, lsl #24
    19f0:	a01f0100 	andsge	r0, pc, r0, lsl #2
    19f4:	a7000003 	strge	r0, [r0, -r3]
    19f8:	1100000c 	tstne	r0, ip
    19fc:	00000173 	andeq	r0, r0, r3, ror r1
    1a00:	000003b6 			; <UNDEFINED> instruction: 0x000003b6
    1a04:	9bd80305 	blls	ff602620 <__bss_end__+0xff5f6348>
    1a08:	54140000 	ldrpl	r0, [r4], #-0
    1a0c:	6000008b 	andvs	r0, r0, fp, lsl #1
    1a10:	15000006 	strne	r0, [r0, #-6]
    1a14:	00008b68 	andeq	r8, r0, r8, ror #22
    1a18:	00000667 	andeq	r0, r0, r7, ror #12
    1a1c:	00000372 	andeq	r0, r0, r2, ror r3
    1a20:	02530116 	subseq	r0, r3, #-2147483643	; 0x80000005
    1a24:	01162008 	tsteq	r6, r8
    1a28:	d8030552 	stmdale	r3, {r1, r4, r6, r8, sl}
    1a2c:	1600009b 			; <UNDEFINED> instruction: 0x1600009b
    1a30:	03055101 	movweq	r5, #20737	; 0x5101
    1a34:	00009c08 	andeq	r9, r0, r8, lsl #24
    1a38:	05500116 	ldrbeq	r0, [r0, #-278]	; 0x116
    1a3c:	009c4003 	addseq	r4, ip, r3
    1a40:	6c140000 	ldcvs	0, cr0, [r4], {-0}
    1a44:	7d00008b 	stcvc	0, cr0, [r0, #-556]	; 0xfffffdd4
    1a48:	00000006 	andeq	r0, r0, r6
    1a4c:	0000251b 	andeq	r2, r0, fp, lsl r5
    1a50:	00038b00 	andeq	r8, r3, r0, lsl #22
    1a54:	00251c00 	eoreq	r1, r5, r0, lsl #24
    1a58:	05000000 	streq	r0, [r0, #-0]
    1a5c:	00037c04 	andeq	r7, r3, r4, lsl #24
    1a60:	00251b00 	eoreq	r1, r5, r0, lsl #22
    1a64:	03a00000 	moveq	r0, #0
    1a68:	811c0000 	tsthi	ip, r0
    1a6c:	00000000 	andeq	r0, r0, r0
    1a70:	03910405 	orrseq	r0, r1, #83886080	; 0x5000000
    1a74:	7a180000 	bvc	601a7c <__bss_end__+0x5f57a4>
    1a78:	b6000000 	strlt	r0, [r0], -r0
    1a7c:	19000003 	stmdbne	r0, {r0, r1}
    1a80:	0000006b 	andeq	r0, r0, fp, rrx
    1a84:	a606000e 	strge	r0, [r6], -lr
    1a88:	1d000003 	stcne	0, cr0, [r0, #-12]
    1a8c:	000004fb 	strdeq	r0, [r0], -fp
    1a90:	00257d01 	eoreq	r7, r5, r1, lsl #26
    1a94:	8b980000 	blhi	fe601a9c <__bss_end__+0xfe5f57c4>
    1a98:	02880000 	addeq	r0, r8, #0
    1a9c:	9c010000 	stcls	0, cr0, [r1], {-0}
    1aa0:	00000625 	andeq	r0, r0, r5, lsr #12
    1aa4:	6675620b 	ldrbtvs	r6, [r5], -fp, lsl #4
    1aa8:	747d0100 	ldrbtvc	r0, [sp], #-256	; 0x100
    1aac:	d3000000 	movwle	r0, #0
    1ab0:	0b00000c 	bleq	1ae8 <_start-0x6518>
    1ab4:	7d01006e 	stcvc	0, cr0, [r1, #-440]	; 0xfffffe48
    1ab8:	00000025 	andeq	r0, r0, r5, lsr #32
    1abc:	00000cff 	strdeq	r0, [r0], -pc	; <UNPREDICTABLE>
    1ac0:	746d660b 	strbtvc	r6, [sp], #-1547	; 0x60b
    1ac4:	817d0100 	cmnhi	sp, r0, lsl #2
    1ac8:	2d000000 	stccs	0, cr0, [r0, #-0]
    1acc:	0d00000d 	stceq	0, cr0, [r0, #-52]	; 0xffffffcc
    1ad0:	0000050f 	andeq	r0, r0, pc, lsl #10
    1ad4:	00ae7d01 	adceq	r7, lr, r1, lsl #26
    1ad8:	0d610000 	stcleq	0, cr0, [r1, #-0]
    1adc:	70100000 	andsvc	r0, r0, r0
    1ae0:	747e0100 	ldrbtvc	r0, [lr], #-256	; 0x100
    1ae4:	74000000 	strvc	r0, [r0], #-0
    1ae8:	1000000d 	andne	r0, r0, sp
    1aec:	7e010065 	cdpvc	0, 0, cr0, cr1, cr5, {3}
    1af0:	00000074 	andeq	r0, r0, r4, ror r0
    1af4:	00000df2 	strdeq	r0, [r0], -r2
    1af8:	00017311 	andeq	r7, r1, r1, lsl r3
    1afc:	00063500 	andeq	r3, r6, r0, lsl #10
    1b00:	e8030500 	stmda	r3, {r8, sl}
    1b04:	1e00009b 	mcrne	0, 0, r0, cr0, cr11, {4}
    1b08:	00000060 	andeq	r0, r0, r0, rrx
    1b0c:	01007310 	tsteq	r0, r0, lsl r3
    1b10:	0000748b 	andeq	r7, r0, fp, lsl #9
    1b14:	000e1900 	andeq	r1, lr, r0, lsl #18
    1b18:	756e0f00 	strbvc	r0, [lr, #-3840]!	; 0xf00
    1b1c:	8b01006d 	blhi	41cd8 <__bss_end__+0x35a00>
    1b20:	0000063a 	andeq	r0, r0, sl, lsr r6
    1b24:	7ed89103 	atnvce	f1, f3
    1b28:	0005c213 	andeq	ip, r5, r3, lsl r2
    1b2c:	2c8c0100 	stfcss	f0, [ip], {0}
    1b30:	6e000000 	cdpvs	0, 0, cr0, cr0, cr0, {0}
    1b34:	1500000e 	strne	r0, [r0, #-14]
    1b38:	00008c1c 	andeq	r8, r0, ip, lsl ip
    1b3c:	000000b9 	strheq	r0, [r0], -r9
    1b40:	0000047b 	andeq	r0, r0, fp, ror r4
    1b44:	02500116 	subseq	r0, r0, #-2147483643	; 0x80000005
    1b48:	14000075 	strne	r0, [r0], #-117	; 0x75
    1b4c:	00008c30 	andeq	r8, r0, r0, lsr ip
    1b50:	00000660 	andeq	r0, r0, r0, ror #12
    1b54:	008c4415 	addeq	r4, ip, r5, lsl r4
    1b58:	00066700 	andeq	r6, r6, r0, lsl #14
    1b5c:	0004b300 	andeq	fp, r4, r0, lsl #6
    1b60:	53011600 	movwpl	r1, #5632	; 0x1600
    1b64:	16920802 	ldrne	r0, [r2], r2, lsl #16
    1b68:	03055201 	movweq	r5, #20993	; 0x5201
    1b6c:	00009be8 	andeq	r9, r0, r8, ror #23
    1b70:	05510116 	ldrbeq	r0, [r1, #-278]	; 0x116
    1b74:	009c0803 	addseq	r0, ip, r3, lsl #16
    1b78:	50011600 	andpl	r1, r1, r0, lsl #12
    1b7c:	9c580305 	mrrcls	3, 0, r0, r8, cr5
    1b80:	14000000 	strne	r0, [r0], #-0
    1b84:	00008c48 	andeq	r8, r0, r8, asr #24
    1b88:	0000067d 	andeq	r0, r0, sp, ror r6
    1b8c:	008cb814 	addeq	fp, ip, r4, lsl r8
    1b90:	00066000 	andeq	r6, r6, r0
    1b94:	8ccc1500 	cfstr64hi	mvdx1, [ip], {0}
    1b98:	06670000 	strbteq	r0, [r7], -r0
    1b9c:	04f40000 	ldrbteq	r0, [r4], #0
    1ba0:	01160000 	tsteq	r6, r0
    1ba4:	98080253 	stmdals	r8, {r0, r1, r4, r6, r9}
    1ba8:	05520116 	ldrbeq	r0, [r2, #-278]	; 0x116
    1bac:	009be803 	addseq	lr, fp, r3, lsl #16
    1bb0:	51011600 	tstpl	r1, r0, lsl #12
    1bb4:	9c080305 	stcls	3, cr0, [r8], {5}
    1bb8:	01160000 	tsteq	r6, r0
    1bbc:	74030550 	strvc	r0, [r3], #-1360	; 0x550
    1bc0:	0000009c 	muleq	r0, ip, r0
    1bc4:	008cd014 	addeq	sp, ip, r4, lsl r0
    1bc8:	00067d00 	andeq	r7, r6, r0, lsl #26
    1bcc:	8cf41500 	cfldr64hi	mvdx1, [r4]
    1bd0:	019c0000 	orrseq	r0, ip, r0
    1bd4:	052a0000 	streq	r0, [sl, #-0]!
    1bd8:	01160000 	tsteq	r6, r0
    1bdc:	80080252 	andhi	r0, r8, r2, asr r2
    1be0:	03510116 	cmpeq	r1, #-2147483643	; 0x80000005
    1be4:	167ed091 			; <UNDEFINED> instruction: 0x167ed091
    1be8:	3a015001 	bcc	55bf4 <__bss_end__+0x4991c>
    1bec:	047d0216 	ldrbteq	r0, [sp], #-534	; 0x216
    1bf0:	02163101 	andseq	r3, r6, #1073741824	; 0x40000000
    1bf4:	7702007d 	smlsdxvc	r2, sp, r0, r0
    1bf8:	18150000 	ldmdane	r5, {}	; <UNPREDICTABLE>
    1bfc:	9c00008d 	stcls	0, cr0, [r0], {141}	; 0x8d
    1c00:	58000001 	stmdapl	r0, {r0}
    1c04:	16000005 	strne	r0, [r0], -r5
    1c08:	08025201 	stmdaeq	r2, {r0, r9, ip, lr}
    1c0c:	51011680 	smlabbpl	r1, r0, r6, r1
    1c10:	7ed09103 	atnvcs	f1, f3
    1c14:	01500116 	cmpeq	r0, r6, lsl r1
    1c18:	7d02163a 	stcvc	6, cr1, [r2, #-232]	; 0xffffff18
    1c1c:	007b0204 	rsbseq	r0, fp, r4, lsl #4
    1c20:	007d0216 	rsbseq	r0, sp, r6, lsl r2
    1c24:	00007702 	andeq	r7, r0, r2, lsl #14
    1c28:	008d3c15 	addeq	r3, sp, r5, lsl ip
    1c2c:	00019c00 	andeq	r9, r1, r0, lsl #24
    1c30:	00058600 	andeq	r8, r5, r0, lsl #12
    1c34:	52011600 	andpl	r1, r1, #0, 12
    1c38:	16800802 	strne	r0, [r0], r2, lsl #16
    1c3c:	91035101 	tstls	r3, r1, lsl #2
    1c40:	01167ed0 			; <UNDEFINED> instruction: 0x01167ed0
    1c44:	16400150 			; <UNDEFINED> instruction: 0x16400150
    1c48:	02047d02 	andeq	r7, r4, #2, 26	; 0x80
    1c4c:	0216007b 	andseq	r0, r6, #123	; 0x7b
    1c50:	7702007d 	smlsdxvc	r2, sp, r0, r0
    1c54:	60150000 	andsvs	r0, r5, r0
    1c58:	9c00008d 	stcls	0, cr0, [r0], {141}	; 0x8d
    1c5c:	b4000001 	strlt	r0, [r0], #-1
    1c60:	16000005 	strne	r0, [r0], -r5
    1c64:	08025201 	stmdaeq	r2, {r0, r9, ip, lr}
    1c68:	51011680 	smlabbpl	r1, r0, r6, r1
    1c6c:	7ed09103 	atnvcs	f1, f3
    1c70:	01500116 	cmpeq	r0, r6, lsl r1
    1c74:	7d021632 	stcvc	6, cr1, [r2, #-200]	; 0xffffff38
    1c78:	007b0204 	rsbseq	r0, fp, r4, lsl #4
    1c7c:	007d0216 	rsbseq	r0, sp, r6, lsl r2
    1c80:	00007702 	andeq	r7, r0, r2, lsl #14
    1c84:	008d9015 	addeq	r9, sp, r5, lsl r0
    1c88:	00019c00 	andeq	r9, r1, r0, lsl #24
    1c8c:	0005e200 	andeq	lr, r5, r0, lsl #4
    1c90:	52011600 	andpl	r1, r1, #0, 12
    1c94:	16800802 	strne	r0, [r0], r2, lsl #16
    1c98:	91035101 	tstls	r3, r1, lsl #2
    1c9c:	01167ed0 			; <UNDEFINED> instruction: 0x01167ed0
    1ca0:	16380150 			; <UNDEFINED> instruction: 0x16380150
    1ca4:	02047d02 	andeq	r7, r4, #2, 26	; 0x80
    1ca8:	0216007b 	andseq	r0, r6, #123	; 0x7b
    1cac:	7702007d 	smlsdxvc	r2, sp, r0, r0
    1cb0:	98140000 	ldmdals	r4, {}	; <UNPREDICTABLE>
    1cb4:	6000008d 	andvs	r0, r0, sp, lsl #1
    1cb8:	15000006 	strne	r0, [r0, #-6]
    1cbc:	00008db4 			; <UNDEFINED> instruction: 0x00008db4
    1cc0:	00000667 	andeq	r0, r0, r7, ror #12
    1cc4:	0000061a 	andeq	r0, r0, sl, lsl r6
    1cc8:	02530116 	subseq	r0, r3, #-2147483643	; 0x80000005
    1ccc:	0116b908 	tsteq	r6, r8, lsl #18
    1cd0:	e8030552 	stmda	r3, {r1, r4, r6, r8, sl}
    1cd4:	1600009b 			; <UNDEFINED> instruction: 0x1600009b
    1cd8:	03055101 	movweq	r5, #20737	; 0x5101
    1cdc:	00009c08 	andeq	r9, r0, r8, lsl #24
    1ce0:	05500116 	ldrbeq	r0, [r0, #-278]	; 0x116
    1ce4:	009c9c03 	addseq	r9, ip, r3, lsl #24
    1ce8:	b8140000 	ldmdalt	r4, {}	; <UNPREDICTABLE>
    1cec:	7d00008d 	stcvc	0, cr0, [r0, #-564]	; 0xfffffdcc
    1cf0:	00000006 	andeq	r0, r0, r6
    1cf4:	007a1800 	rsbseq	r1, sl, r0, lsl #16
    1cf8:	06350000 	ldrteq	r0, [r5], -r0
    1cfc:	6b190000 	blvs	641d04 <__bss_end__+0x635a2c>
    1d00:	09000000 	stmdbeq	r0, {}	; <UNPREDICTABLE>
    1d04:	06250600 	strteq	r0, [r5], -r0, lsl #12
    1d08:	7a180000 	bvc	601d10 <__bss_end__+0x5f5a38>
    1d0c:	4a000000 	bmi	1d14 <_start-0x62ec>
    1d10:	19000006 	stmdbne	r0, {r1, r2}
    1d14:	0000006b 	andeq	r0, r0, fp, rrx
    1d18:	341f007f 	ldrcc	r0, [pc], #-127	; 1d20 <_start-0x62e0>
    1d1c:	03000005 	movweq	r0, #5
    1d20:	00038b1d 	andeq	r8, r3, sp, lsl fp
    1d24:	05711f00 	ldrbeq	r1, [r1, #-3840]!	; 0xf00
    1d28:	22030000 	andcs	r0, r3, #0
    1d2c:	000003a0 	andeq	r0, r0, r0, lsr #7
    1d30:	00012020 	andeq	r2, r1, r0, lsr #32
    1d34:	211e0300 	tstcs	lr, r0, lsl #6
    1d38:	000004fe 	strdeq	r0, [r0], -lr
    1d3c:	00252903 	eoreq	r2, r5, r3, lsl #18
    1d40:	067d0000 	ldrbteq	r0, [sp], -r0
    1d44:	811c0000 	tsthi	ip, r0
    1d48:	22000000 	andcs	r0, r0, #0
    1d4c:	01b82000 			; <UNDEFINED> instruction: 0x01b82000
    1d50:	66030000 	strvs	r0, [r3], -r0
    1d54:	0000b800 	andeq	fp, r0, r0, lsl #16
    1d58:	1e000400 	cfcpysne	mvf0, mvf0
    1d5c:	04000008 	streq	r0, [r0], #-8
    1d60:	00031501 	andeq	r1, r3, r1, lsl #10
    1d64:	05e30100 	strbeq	r0, [r3, #256]!	; 0x100
    1d68:	049a0000 	ldreq	r0, [sl], #0
    1d6c:	8e200000 	cdphi	0, 2, cr0, cr0, cr0, {0}
    1d70:	00200000 	eoreq	r0, r0, r0
    1d74:	08f80000 	ldmeq	r8!, {}^	; <UNPREDICTABLE>
    1d78:	04020000 	streq	r0, [r2], #-0
    1d7c:	746e6905 	strbtvc	r6, [lr], #-2309	; 0x905
    1d80:	07040300 	streq	r0, [r4, -r0, lsl #6]
    1d84:	0000005a 	andeq	r0, r0, sl, asr r0
    1d88:	aa060103 	bge	18219c <__bss_end__+0x175ec4>
    1d8c:	03000002 	movweq	r0, #2
    1d90:	02c30502 	sbceq	r0, r3, #8388608	; 0x800000
    1d94:	04030000 	streq	r0, [r3], #-0
    1d98:	00008c05 	andeq	r8, r0, r5, lsl #24
    1d9c:	05080300 	streq	r0, [r8, #-768]	; 0x300
    1da0:	00000087 	andeq	r0, r0, r7, lsl #1
    1da4:	a8080103 	stmdage	r8, {r0, r1, r8}
    1da8:	03000002 	movweq	r0, #2
    1dac:	01890702 	orreq	r0, r9, r2, lsl #14
    1db0:	04030000 	streq	r0, [r3], #-0
    1db4:	00005507 	andeq	r5, r0, r7, lsl #10
    1db8:	07080300 	streq	r0, [r8, -r0, lsl #6]
    1dbc:	00000050 	andeq	r0, r0, r0, asr r0
    1dc0:	ca070403 	bgt	1c2dd4 <__bss_end__+0x1b6afc>
    1dc4:	03000001 	movweq	r0, #1
    1dc8:	02b10801 	adcseq	r0, r1, #65536	; 0x10000
    1dcc:	08040000 	stmdaeq	r4, {}	; <UNPREDICTABLE>
    1dd0:	01000004 	tsteq	r0, r4
    1dd4:	008e2003 	addeq	r2, lr, r3
    1dd8:	00001000 	andeq	r1, r0, r0
    1ddc:	9c9c0100 	ldflss	f0, [ip], {0}
    1de0:	05000000 	streq	r0, [r0, #-0]
    1de4:	04010072 	streq	r0, [r1], #-114	; 0x72
    1de8:	0000002c 	andeq	r0, r0, ip, lsr #32
    1dec:	00000e98 	muleq	r0, r8, lr
    1df0:	05d50600 	ldrbeq	r0, [r5, #1536]	; 0x600
    1df4:	0c010000 	stceq	0, cr0, [r1], {-0}
    1df8:	00008e30 	andeq	r8, r0, r0, lsr lr
    1dfc:	00000010 	andeq	r0, r0, r0, lsl r0
    1e00:	72059c01 	andvc	r9, r5, #256	; 0x100
    1e04:	2c0d0100 	stfcss	f0, [sp], {-0}
    1e08:	bc000000 	stclt	0, cr0, [r0], {-0}
    1e0c:	0000000e 	andeq	r0, r0, lr
    1e10:	0000ff00 	andeq	pc, r0, r0, lsl #30
    1e14:	89000400 	stmdbhi	r0, {sl}
    1e18:	04000008 	streq	r0, [r0], #-8
    1e1c:	00031501 	andeq	r1, r3, r1, lsl #10
    1e20:	06010100 	streq	r0, [r1], -r0, lsl #2
    1e24:	049a0000 	ldreq	r0, [sl], #0
    1e28:	8e400000 	cdphi	0, 4, cr0, cr0, cr0, {0}
    1e2c:	00280000 	eoreq	r0, r8, r0
    1e30:	093f0000 	ldmdbeq	pc!, {}	; <UNPREDICTABLE>
    1e34:	04020000 	streq	r0, [r2], #-0
    1e38:	746e6905 	strbtvc	r6, [lr], #-2309	; 0x905
    1e3c:	07040300 	streq	r0, [r4, -r0, lsl #6]
    1e40:	0000005a 	andeq	r0, r0, sl, asr r0
    1e44:	aa060103 	bge	182258 <__bss_end__+0x175f80>
    1e48:	03000002 	movweq	r0, #2
    1e4c:	02c30502 	sbceq	r0, r3, #8388608	; 0x800000
    1e50:	04030000 	streq	r0, [r3], #-0
    1e54:	00008c05 	andeq	r8, r0, r5, lsl #24
    1e58:	05080300 	streq	r0, [r8, #-768]	; 0x300
    1e5c:	00000087 	andeq	r0, r0, r7, lsl #1
    1e60:	a8080103 	stmdage	r8, {r0, r1, r8}
    1e64:	03000002 	movweq	r0, #2
    1e68:	01890702 	orreq	r0, r9, r2, lsl #14
    1e6c:	04030000 	streq	r0, [r3], #-0
    1e70:	00005507 	andeq	r5, r0, r7, lsl #10
    1e74:	07080300 	streq	r0, [r8, -r0, lsl #6]
    1e78:	00000050 	andeq	r0, r0, r0, asr r0
    1e7c:	ca070403 	bgt	1c2e90 <__bss_end__+0x1b6bb8>
    1e80:	03000001 	movweq	r0, #1
    1e84:	02b10801 	adcseq	r0, r1, #65536	; 0x10000
    1e88:	04040000 	streq	r0, [r4], #-0
    1e8c:	0000007f 	andeq	r0, r0, pc, ror r0
    1e90:	00007205 	andeq	r7, r0, r5, lsl #4
    1e94:	01b80600 			; <UNDEFINED> instruction: 0x01b80600
    1e98:	04010000 	streq	r0, [r1], #-0
    1e9c:	00008e40 	andeq	r8, r0, r0, asr #28
    1ea0:	00000028 	andeq	r0, r0, r8, lsr #32
    1ea4:	00ca9c01 	sbceq	r9, sl, r1, lsl #24
    1ea8:	54070000 	strpl	r0, [r7], #-0
    1eac:	ac00008e 	stcge	0, cr0, [r0], {142}	; 0x8e
    1eb0:	08000000 	stmdaeq	r0, {}	; <UNPREDICTABLE>
    1eb4:	03055001 	movweq	r5, #20481	; 0x5001
    1eb8:	00009cd4 	ldrdeq	r9, [r0], -r4
    1ebc:	8e5c0900 	cdphi	9, 5, cr0, cr12, cr0, {0}
    1ec0:	00ea0000 	rsceq	r0, sl, r0
    1ec4:	00c00000 	sbceq	r0, r0, r0
    1ec8:	01080000 	mrseq	r0, (UNDEF: 8)
    1ecc:	64080250 	strvs	r0, [r8], #-592	; 0x250
    1ed0:	8e600a00 	vmulhi.f32	s1, s0, s0
    1ed4:	00fb0000 	rscseq	r0, fp, r0
    1ed8:	0b000000 	bleq	1ee0 <_start-0x6120>
    1edc:	00000025 	andeq	r0, r0, r5, lsr #32
    1ee0:	000000d9 	ldrdeq	r0, [r0], -r9
    1ee4:	0000790c 	andeq	r7, r0, ip, lsl #18
    1ee8:	710d0000 	mrsvc	r0, (UNDEF: 13)
    1eec:	02000005 	andeq	r0, r0, #5
    1ef0:	0000e422 	andeq	lr, r0, r2, lsr #8
    1ef4:	ca040400 	bgt	102efc <__bss_end__+0xf6c24>
    1ef8:	0e000000 	cdpeq	0, 0, cr0, cr0, cr0, {0}
    1efc:	000002df 	ldrdeq	r0, [r0], -pc	; <UNPREDICTABLE>
    1f00:	00fb5002 	rscseq	r5, fp, r2
    1f04:	2c0c0000 	stccs	0, cr0, [ip], {-0}
    1f08:	00000000 	andeq	r0, r0, r0
    1f0c:	0005f60f 	andeq	pc, r5, pc, lsl #12
    1f10:	00630200 	rsbeq	r0, r3, r0, lsl #4
    1f14:	000000ff 	strdeq	r0, [r0], -pc	; <UNPREDICTABLE>
    1f18:	09530004 	ldmdbeq	r3, {r2}^
    1f1c:	01040000 	mrseq	r0, (UNDEF: 4)
    1f20:	00000315 	andeq	r0, r0, r5, lsl r3
    1f24:	00061b01 	andeq	r1, r6, r1, lsl #22
    1f28:	00049a00 	andeq	r9, r4, r0, lsl #20
    1f2c:	008e6800 	addeq	r6, lr, r0, lsl #16
    1f30:	00003400 	andeq	r3, r0, r0, lsl #8
    1f34:	0009d600 	andeq	sp, r9, r0, lsl #12
    1f38:	05040200 	streq	r0, [r4, #-512]	; 0x200
    1f3c:	00746e69 	rsbseq	r6, r4, r9, ror #28
    1f40:	5a070403 	bpl	1c2f54 <__bss_end__+0x1b6c7c>
    1f44:	03000000 	movweq	r0, #0
    1f48:	02aa0601 	adceq	r0, sl, #1048576	; 0x100000
    1f4c:	02030000 	andeq	r0, r3, #0
    1f50:	0002c305 	andeq	ip, r2, r5, lsl #6
    1f54:	05040300 	streq	r0, [r4, #-768]	; 0x300
    1f58:	0000008c 	andeq	r0, r0, ip, lsl #1
    1f5c:	87050803 	strhi	r0, [r5, -r3, lsl #16]
    1f60:	03000000 	movweq	r0, #0
    1f64:	02a80801 	adceq	r0, r8, #65536	; 0x10000
    1f68:	02030000 	andeq	r0, r3, #0
    1f6c:	00018907 	andeq	r8, r1, r7, lsl #18
    1f70:	07040300 	streq	r0, [r4, -r0, lsl #6]
    1f74:	00000055 	andeq	r0, r0, r5, asr r0
    1f78:	50070803 	andpl	r0, r7, r3, lsl #16
    1f7c:	03000000 	movweq	r0, #0
    1f80:	01ca0704 	biceq	r0, sl, r4, lsl #14
    1f84:	01030000 	mrseq	r0, (UNDEF: 3)
    1f88:	0002b108 	andeq	fp, r2, r8, lsl #2
    1f8c:	06510400 	ldrbeq	r0, [r1], -r0, lsl #8
    1f90:	0d010000 	stceq	0, cr0, [r1, #-0]
    1f94:	00008e68 	andeq	r8, r0, r8, ror #28
    1f98:	00000034 	andeq	r0, r0, r4, lsr r0
    1f9c:	00d89c01 	sbcseq	r9, r8, r1, lsl #24
    1fa0:	2f050000 	svccs	0x00050000
    1fa4:	01000006 	tsteq	r0, r6
    1fa8:	0000250e 	andeq	r2, r0, lr, lsl #10
    1fac:	063d0500 	ldrteq	r0, [sp], -r0, lsl #10
    1fb0:	0e010000 	cdpeq	0, 0, cr0, cr1, cr0, {0}
    1fb4:	00000025 	andeq	r0, r0, r5, lsr #32
    1fb8:	0000f206 	andeq	pc, r0, r6, lsl #4
    1fbc:	070f0100 	streq	r0, [pc, -r0, lsl #2]
    1fc0:	00737362 	rsbseq	r7, r3, r2, ror #6
    1fc4:	00d81101 	sbcseq	r1, r8, r1, lsl #2
    1fc8:	0ee00000 	cdpeq	0, 14, cr0, cr0, cr0, {0}
    1fcc:	49080000 	stmdbmi	r8, {}	; <UNPREDICTABLE>
    1fd0:	01000006 	tsteq	r0, r6
    1fd4:	0000d812 	andeq	sp, r0, r2, lsl r8
    1fd8:	8e900900 	cdphi	9, 9, cr0, cr0, cr0, {0}
    1fdc:	00f40000 	rscseq	r0, r4, r0
    1fe0:	94090000 	strls	r0, [r9], #-0
    1fe4:	fb00008e 	blx	2226 <_start-0x5dda>
    1fe8:	00000000 	andeq	r0, r0, r0
    1fec:	0025040a 	eoreq	r0, r5, sl, lsl #8
    1ff0:	2f050000 	svccs	0x00050000
    1ff4:	01000006 	tsteq	r0, r6
    1ff8:	0000250e 	andeq	r2, r0, lr, lsl #10
    1ffc:	063d0500 	ldrteq	r0, [sp], -r0, lsl #10
    2000:	0e010000 	cdpeq	0, 0, cr0, cr1, cr0, {0}
    2004:	00000025 	andeq	r0, r0, r5, lsr #32
    2008:	0000f206 	andeq	pc, r0, r6, lsl #4
    200c:	06d80200 	ldrbeq	r0, [r8], r0, lsl #4
    2010:	000005f6 	strdeq	r0, [r0], -r6
    2014:	ad006302 	stcge	3, cr6, [r0, #-8]
    2018:	04000001 	streq	r0, [r0], #-1
    201c:	0009e700 	andeq	lr, r9, r0, lsl #14
    2020:	15010400 	strne	r0, [r1, #-1024]	; 0x400
    2024:	01000003 	tsteq	r0, r3
    2028:	00000673 	andeq	r0, r0, r3, ror r6
    202c:	0000049a 	muleq	r0, sl, r4
    2030:	00000078 	andeq	r0, r0, r8, ror r0
    2034:	00000000 	andeq	r0, r0, r0
    2038:	00000a74 	andeq	r0, r0, r4, ror sl
    203c:	69050402 	stmdbvs	r5, {r1, sl}
    2040:	0300746e 	movweq	r7, #1134	; 0x46e
    2044:	005a0704 	subseq	r0, sl, r4, lsl #14
    2048:	01030000 	mrseq	r0, (UNDEF: 3)
    204c:	0002aa06 	andeq	sl, r2, r6, lsl #20
    2050:	05020300 	streq	r0, [r2, #-768]	; 0x300
    2054:	000002c3 	andeq	r0, r0, r3, asr #5
    2058:	8c050403 	cfstrshi	mvf0, [r5], {3}
    205c:	03000000 	movweq	r0, #0
    2060:	00870508 	addeq	r0, r7, r8, lsl #10
    2064:	01030000 	mrseq	r0, (UNDEF: 3)
    2068:	0002a808 	andeq	sl, r2, r8, lsl #16
    206c:	07020300 	streq	r0, [r2, -r0, lsl #6]
    2070:	00000189 	andeq	r0, r0, r9, lsl #3
    2074:	55070403 	strpl	r0, [r7, #-1027]	; 0x403
    2078:	03000000 	movweq	r0, #0
    207c:	00500708 	subseq	r0, r0, r8, lsl #14
    2080:	04030000 	streq	r0, [r3], #-0
    2084:	0001ca07 	andeq	ip, r1, r7, lsl #20
    2088:	08010300 	stmdaeq	r1, {r8, r9}
    208c:	000002b1 			; <UNDEFINED> instruction: 0x000002b1
    2090:	00065904 	andeq	r5, r6, r4, lsl #18
    2094:	250e0100 	strcs	r0, [lr, #-256]	; 0x100
    2098:	9c000000 	stcls	0, cr0, [r0], {-0}
    209c:	1800008e 	stmdane	r0, {r1, r2, r3, r7}
    20a0:	01000000 	mrseq	r0, (UNDEF: 0)
    20a4:	0000a29c 	muleq	r0, ip, r2
    20a8:	06c50500 	strbeq	r0, [r5], r0, lsl #10
    20ac:	0f010000 	svceq	0x00010000
    20b0:	0000002c 	andeq	r0, r0, ip, lsr #32
    20b4:	00000f00 	andeq	r0, r0, r0, lsl #30
    20b8:	06a80600 	strteq	r0, [r8], r0, lsl #12
    20bc:	17010000 	strne	r0, [r1, -r0]
    20c0:	00008eb4 			; <UNDEFINED> instruction: 0x00008eb4
    20c4:	00000014 	andeq	r0, r0, r4, lsl r0
    20c8:	00c79c01 	sbceq	r9, r7, r1, lsl #24
    20cc:	c5050000 	strgt	r0, [r5, #-0]
    20d0:	01000006 	tsteq	r0, r6
    20d4:	00002c18 	andeq	r2, r0, r8, lsl ip
    20d8:	000f1f00 	andeq	r1, pc, r0, lsl #30
    20dc:	f6060000 			; <UNDEFINED> instruction: 0xf6060000
    20e0:	01000005 	tsteq	r0, r5
    20e4:	008ec81f 	addeq	ip, lr, pc, lsl r8
    20e8:	00004800 	andeq	r4, r0, r0, lsl #16
    20ec:	779c0100 	ldrvc	r0, [ip, r0, lsl #2]
    20f0:	07000001 	streq	r0, [r0, -r1]
    20f4:	000006bd 			; <UNDEFINED> instruction: 0x000006bd
    20f8:	01772a01 	cmneq	r7, r1, lsl #20
    20fc:	001c0000 	andseq	r0, ip, r0
    2100:	a0072010 	andge	r2, r7, r0, lsl r0
    2104:	01000006 	tsteq	r0, r6
    2108:	0001772b 	andeq	r7, r1, fp, lsr #14
    210c:	10002400 	andne	r2, r0, r0, lsl #8
    2110:	06670720 	strbteq	r0, [r7], -r0, lsr #14
    2114:	2c010000 	stccs	0, cr0, [r1], {-0}
    2118:	00000177 	andeq	r0, r0, r7, ror r1
    211c:	5a000000 	bpl	2124 <_start-0x5edc>
    2120:	00068708 	andeq	r8, r6, r8, lsl #14
    2124:	772d0100 	strvc	r0, [sp, -r0, lsl #2]!
    2128:	20000001 	andcs	r0, r0, r1
    212c:	008ed009 	addeq	sp, lr, r9
    2130:	00007900 	andeq	r7, r0, r0, lsl #18
    2134:	8edc0900 	cdphi	9, 13, cr0, cr12, cr0, {0}
    2138:	00a20000 	adceq	r0, r2, r0
    213c:	e40a0000 	str	r0, [sl], #-0
    2140:	8d00008e 	stchi	0, cr0, [r0, #-568]	; 0xfffffdc8
    2144:	3a000001 	bcc	2150 <_start-0x5eb0>
    2148:	0b000001 	bleq	2154 <_start-0x5eac>
    214c:	4e015001 	cdpmi	0, 0, cr5, cr1, cr1, {0}
    2150:	8ef00a00 	vmovhi.f32	s1, #0
    2154:	019e0000 	orrseq	r0, lr, r0
    2158:	015a0000 	cmpeq	sl, r0
    215c:	010b0000 	mrseq	r0, (UNDEF: 11)
    2160:	010c0551 	tsteq	ip, r1, asr r5
    2164:	0b5a0000 	bleq	168216c <__bss_end__+0x1675e94>
    2168:	0c055001 	stceq	0, cr5, [r5], {1}
    216c:	20100024 	andscs	r0, r0, r4, lsr #32
    2170:	8efc0c00 	cdphi	12, 15, cr0, cr12, cr0, {0}
    2174:	019e0000 	orrseq	r0, lr, r0
    2178:	010b0000 	mrseq	r0, (UNDEF: 11)
    217c:	200c0551 	andcs	r0, ip, r1, asr r5
    2180:	0b5a0000 	bleq	1682188 <__bss_end__+0x1675eb0>
    2184:	0c055001 	stceq	0, cr5, [r5], {1}
    2188:	2010001c 	andscs	r0, r0, ip, lsl r0
    218c:	250d0000 	strcs	r0, [sp, #-0]
    2190:	08000000 	stmdaeq	r0, {}	; <UNPREDICTABLE>
    2194:	0000065c 	andeq	r0, r0, ip, asr r6
    2198:	01880d01 	orreq	r0, r8, r1, lsl #26
    219c:	0d100000 	ldceq	0, cr0, [r0, #-0]
    21a0:	0000002c 	andeq	r0, r0, ip, lsr #32
    21a4:	0002df0e 	andeq	sp, r2, lr, lsl #30
    21a8:	9e500200 	cdpls	2, 5, cr0, cr0, cr0, {0}
    21ac:	0f000001 	svceq	0x00000001
    21b0:	0000002c 	andeq	r0, r0, ip, lsr #32
    21b4:	06b71000 	ldrteq	r1, [r7], r0
    21b8:	9c020000 	stcls	0, cr0, [r2], {-0}
    21bc:	00002c0f 	andeq	r2, r0, pc, lsl #24
    21c0:	002c0f00 	eoreq	r0, ip, r0, lsl #30
    21c4:	00000000 	andeq	r0, r0, r0
    21c8:	000001d8 	ldrdeq	r0, [r0], -r8
    21cc:	0ad50004 	beq	ff5421e4 <__bss_end__+0xff535f0c>
    21d0:	01040000 	mrseq	r0, (UNDEF: 4)
    21d4:	00000315 	andeq	r0, r0, r5, lsl r3
    21d8:	0006e701 	andeq	lr, r6, r1, lsl #14
    21dc:	00049a00 	andeq	r9, r4, r0, lsl #20
    21e0:	008f1000 	addeq	r1, pc, r0
    21e4:	00008800 	andeq	r8, r0, r0, lsl #16
    21e8:	000b1100 	andeq	r1, fp, r0, lsl #2
    21ec:	05040200 	streq	r0, [r4, #-512]	; 0x200
    21f0:	00746e69 	rsbseq	r6, r4, r9, ror #28
    21f4:	5a070403 	bpl	1c3208 <__bss_end__+0x1b6f30>
    21f8:	03000000 	movweq	r0, #0
    21fc:	02aa0601 	adceq	r0, sl, #1048576	; 0x100000
    2200:	02030000 	andeq	r0, r3, #0
    2204:	0002c305 	andeq	ip, r2, r5, lsl #6
    2208:	05040300 	streq	r0, [r4, #-768]	; 0x300
    220c:	0000008c 	andeq	r0, r0, ip, lsl #1
    2210:	87050803 	strhi	r0, [r5, -r3, lsl #16]
    2214:	03000000 	movweq	r0, #0
    2218:	02a80801 	adceq	r0, r8, #65536	; 0x10000
    221c:	02030000 	andeq	r0, r3, #0
    2220:	00018907 	andeq	r8, r1, r7, lsl #18
    2224:	07040300 	streq	r0, [r4, -r0, lsl #6]
    2228:	00000055 	andeq	r0, r0, r5, asr r0
    222c:	50070803 	andpl	r0, r7, r3, lsl #16
    2230:	03000000 	movweq	r0, #0
    2234:	01ca0704 	biceq	r0, sl, r4, lsl #14
    2238:	01030000 	mrseq	r0, (UNDEF: 3)
    223c:	0002b108 	andeq	fp, r2, r8, lsl #2
    2240:	07060400 	streq	r0, [r6, -r0, lsl #8]
    2244:	05010000 	streq	r0, [r1, #-0]
    2248:	00008f10 	andeq	r8, r0, r0, lsl pc
    224c:	0000001c 	andeq	r0, r0, ip, lsl r0
    2250:	009e9c01 	addseq	r9, lr, r1, lsl #24
    2254:	00050000 	andeq	r0, r5, r0
    2258:	01000007 	tsteq	r0, r7
    225c:	00002c05 	andeq	r2, r0, r5, lsl #24
    2260:	000f4900 	andeq	r4, pc, r0, lsl #18
    2264:	ca060000 	bgt	18226c <__bss_end__+0x175f94>
    2268:	01000006 	tsteq	r0, r6
    226c:	00002c11 	andeq	r2, r0, r1, lsl ip
    2270:	008f2c00 	addeq	r2, pc, r0, lsl #24
    2274:	00001400 	andeq	r1, r0, r0, lsl #8
    2278:	cb9c0100 	blgt	fe702680 <__bss_end__+0xfe6f63a8>
    227c:	07000000 	streq	r0, [r0, -r0]
    2280:	00008f38 	andeq	r8, r0, r8, lsr pc
    2284:	000001ca 	andeq	r0, r0, sl, asr #3
    2288:	05500108 	ldrbeq	r0, [r0, #-264]	; 0x108
    228c:	0030040c 	eorseq	r0, r0, ip, lsl #8
    2290:	06000020 	streq	r0, [r0], -r0, lsr #32
    2294:	0000071c 	andeq	r0, r0, ip, lsl r7
    2298:	002c1601 	eoreq	r1, ip, r1, lsl #12
    229c:	8f400000 	svchi	0x00400000
    22a0:	000c0000 	andeq	r0, ip, r0
    22a4:	9c010000 	stcls	0, cr0, [r1], {-0}
    22a8:	000000f9 	strdeq	r0, [r0], -r9
    22ac:	01007509 	tsteq	r0, r9, lsl #10
    22b0:	00002c1a 	andeq	r2, r0, sl, lsl ip
    22b4:	0a500100 	beq	14026bc <__bss_end__+0x13f63e4>
    22b8:	00008f48 	andeq	r8, r0, r8, asr #30
    22bc:	0000009e 	muleq	r0, lr, r0
    22c0:	07130400 	ldreq	r0, [r3, -r0, lsl #8]
    22c4:	1f010000 	svcne	0x00010000
    22c8:	00008f4c 	andeq	r8, r0, ip, asr #30
    22cc:	00000024 	andeq	r0, r0, r4, lsr #32
    22d0:	01579c01 	cmpeq	r7, r1, lsl #24
    22d4:	750b0000 	strvc	r0, [fp, #-0]
    22d8:	1f010073 	svcne	0x00010073
    22dc:	0000002c 	andeq	r0, r0, ip, lsr #32
    22e0:	00000f7d 	andeq	r0, r0, sp, ror pc
    22e4:	00627209 	rsbeq	r7, r2, r9, lsl #4
    22e8:	002c2001 	eoreq	r2, ip, r1
    22ec:	54010000 	strpl	r0, [r1], #-0
    22f0:	008f5c0c 	addeq	r5, pc, ip, lsl #24
    22f4:	00001000 	andeq	r1, r0, r0
    22f8:	00014d00 	andeq	r4, r1, r0, lsl #26
    22fc:	61720d00 	cmnvs	r2, r0, lsl #26
    2300:	2c220100 	stfcss	f0, [r2], #-0
    2304:	9b000000 	blls	230c <_start-0x5cf4>
    2308:	0a00000f 	beq	234c <_start-0x5cb4>
    230c:	00008f60 	andeq	r8, r0, r0, ror #30
    2310:	000000cb 	andeq	r0, r0, fp, asr #1
    2314:	8f580a00 	svchi	0x00580a00
    2318:	00cb0000 	sbceq	r0, fp, r0
    231c:	04000000 	streq	r0, [r0], #-0
    2320:	000002df 	ldrdeq	r0, [r0], -pc	; <UNPREDICTABLE>
    2324:	8f702801 	svchi	0x00702801
    2328:	00140000 	andseq	r0, r4, r0
    232c:	9c010000 	stcls	0, cr0, [r1], {-0}
    2330:	00000190 	muleq	r0, r0, r1
    2334:	00736d0b 	rsbseq	r6, r3, fp, lsl #26
    2338:	002c2801 	eoreq	r2, ip, r1, lsl #16
    233c:	0fae0000 	svceq	0x00ae0000
    2340:	80070000 	andhi	r0, r7, r0
    2344:	f900008f 			; <UNDEFINED> instruction: 0xf900008f
    2348:	08000000 	stmdaeq	r0, {}	; <UNPREDICTABLE>
    234c:	f3075001 	vhadd.u8	d5, d7, d1
    2350:	e80a5001 	stmda	sl, {r0, ip, lr}
    2354:	00001e03 	andeq	r1, r0, r3, lsl #28
    2358:	0006dd04 	andeq	sp, r6, r4, lsl #26
    235c:	842b0100 	strthi	r0, [fp], #-256	; 0x100
    2360:	1400008f 	strne	r0, [r0], #-143	; 0x8f
    2364:	01000000 	mrseq	r0, (UNDEF: 0)
    2368:	0001ca9c 	muleq	r1, ip, sl
    236c:	65730b00 	ldrbvs	r0, [r3, #-2816]!	; 0xb00
    2370:	2b010063 	blcs	42504 <__bss_end__+0x3622c>
    2374:	0000002c 	andeq	r0, r0, ip, lsr #32
    2378:	00000fcf 	andeq	r0, r0, pc, asr #31
    237c:	008f9407 	addeq	r9, pc, r7, lsl #8
    2380:	00015700 	andeq	r5, r1, r0, lsl #14
    2384:	50010800 	andpl	r0, r1, r0, lsl #16
    2388:	5001f307 	andpl	pc, r1, r7, lsl #6
    238c:	1e03e80a 	cdpne	8, 0, cr14, cr3, cr10, {0}
    2390:	fa0e0000 	blx	382398 <__bss_end__+0x3760c0>
    2394:	02000006 	andeq	r0, r0, #6
    2398:	00002ca8 	andeq	r2, r0, r8, lsr #25
    239c:	002c0f00 	eoreq	r0, ip, r0, lsl #30
    23a0:	00000000 	andeq	r0, r0, r0
    23a4:	00000882 	andeq	r0, r0, r2, lsl #17
    23a8:	0bb80004 	bleq	fee023c0 <__bss_end__+0xfedf60e8>
    23ac:	01040000 	mrseq	r0, (UNDEF: 4)
    23b0:	00000315 	andeq	r0, r0, r5, lsl r3
    23b4:	00076f01 	andeq	r6, r7, r1, lsl #30
    23b8:	00049a00 	andeq	r9, r4, r0, lsl #20
    23bc:	008f9800 	addeq	r9, pc, r0, lsl #16
    23c0:	0005a000 	andeq	sl, r5, r0
    23c4:	000bb800 	andeq	fp, fp, r0, lsl #16
    23c8:	07080200 	streq	r0, [r8, -r0, lsl #4]
    23cc:	00000050 	andeq	r0, r0, r0, asr r0
    23d0:	5a070402 	bpl	1c33e0 <__bss_end__+0x1b7108>
    23d4:	02000000 	andeq	r0, r0, #0
    23d8:	02aa0601 	adceq	r0, sl, #1048576	; 0x100000
    23dc:	02020000 	andeq	r0, r2, #0
    23e0:	0002c305 	andeq	ip, r2, r5, lsl #6
    23e4:	05040200 	streq	r0, [r4, #-512]	; 0x200
    23e8:	0000008c 	andeq	r0, r0, ip, lsl #1
    23ec:	87050802 	strhi	r0, [r5, -r2, lsl #16]
    23f0:	02000000 	andeq	r0, r0, #0
    23f4:	02a80801 	adceq	r0, r8, #65536	; 0x10000
    23f8:	02020000 	andeq	r0, r2, #0
    23fc:	00018907 	andeq	r8, r1, r7, lsl #18
    2400:	07040200 	streq	r0, [r4, -r0, lsl #4]
    2404:	00000055 	andeq	r0, r0, r5, asr r0
    2408:	69050403 	stmdbvs	r5, {r0, r1, sl}
    240c:	0200746e 	andeq	r7, r0, #1845493760	; 0x6e000000
    2410:	01ca0704 	biceq	r0, sl, r4, lsl #14
    2414:	01020000 	mrseq	r0, (UNDEF: 2)
    2418:	0002b108 	andeq	fp, r2, r8, lsl #2
    241c:	02010400 	andeq	r0, r1, #0, 8
    2420:	0000b20c 	andeq	fp, r0, ip, lsl #4
    2424:	075f0500 	ldrbeq	r0, [pc, -r0, lsl #10]
    2428:	05000000 	streq	r0, [r0, #-0]
    242c:	00000828 	andeq	r0, r0, r8, lsr #16
    2430:	084b0501 	stmdaeq	fp, {r0, r8, sl}^
    2434:	05040000 	streq	r0, [r4, #-0]
    2438:	0000085a 	andeq	r0, r0, sl, asr r8
    243c:	08690505 	stmdaeq	r9!, {r0, r2, r8, sl}^
    2440:	05060000 	streq	r0, [r6, #-0]
    2444:	00000878 	andeq	r0, r0, r8, ror r8
    2448:	08870507 	stmeq	r7, {r0, r1, r2, r8, sl}
    244c:	05030000 	streq	r0, [r3, #-0]
    2450:	00000896 	muleq	r0, r6, r8
    2454:	3f060002 	svccc	0x00060002
    2458:	02000008 	andeq	r0, r0, #8
    245c:	00007915 	andeq	r7, r0, r5, lsl r9
    2460:	03f30700 	mvnseq	r0, #0, 14
    2464:	3f010000 	svccc	0x00010000
    2468:	00008f98 	muleq	r0, r8, pc	; <UNPREDICTABLE>
    246c:	000000d4 	ldrdeq	r0, [r0], -r4
    2470:	01339c01 	teqeq	r3, r1, lsl #24
    2474:	70080000 	andvc	r0, r8, r0
    2478:	01006e69 	tsteq	r0, r9, ror #28
    247c:	00002c3f 	andeq	r2, r0, pc, lsr ip
    2480:	000ff000 	andeq	pc, pc, r0
    2484:	078f0900 	streq	r0, [pc, r0, lsl #18]
    2488:	47010000 	strmi	r0, [r1, -r0]
    248c:	00000133 	andeq	r0, r0, r3, lsr r1
    2490:	0000100e 	andeq	r1, r0, lr
    2494:	0008a509 	andeq	sl, r8, r9, lsl #10
    2498:	2c490100 	stfcse	f0, [r9], {-0}
    249c:	63000000 	movwvs	r0, #0
    24a0:	09000010 	stmdbeq	r0, {r4}
    24a4:	000007f3 	strdeq	r0, [r0], -r3
    24a8:	002c5701 	eoreq	r5, ip, r1, lsl #14
    24ac:	122f0000 	eorne	r0, pc, #0
    24b0:	2c0a0000 	stccs	0, cr0, [sl], {-0}
    24b4:	41000090 	swpmi	r0, r0, [r0]	; <UNPREDICTABLE>
    24b8:	22000008 	andcs	r0, r0, #8
    24bc:	0b000001 	bleq	24c8 <_start-0x5b38>
    24c0:	75025001 	strvc	r5, [r2, #-1]
    24c4:	600c0000 	andvs	r0, ip, r0
    24c8:	62000090 	andvs	r0, r0, #144	; 0x90
    24cc:	0b000008 	bleq	24f4 <_start-0x5b0c>
    24d0:	75025001 	strvc	r5, [r2, #-1]
    24d4:	0d000000 	stceq	0, cr0, [r0, #-0]
    24d8:	00013904 	andeq	r3, r1, r4, lsl #18
    24dc:	002c0e00 	eoreq	r0, ip, r0, lsl #28
    24e0:	72070000 	andvc	r0, r7, #0
    24e4:	01000000 	mrseq	r0, (UNDEF: 0)
    24e8:	00906c60 	addseq	r6, r0, r0, ror #24
    24ec:	00003800 	andeq	r3, r0, r0, lsl #16
    24f0:	969c0100 	ldrls	r0, [ip], r0, lsl #2
    24f4:	08000001 	stmdaeq	r0, {r0}
    24f8:	006e6970 	rsbeq	r6, lr, r0, ror r9
    24fc:	002c6001 	eoreq	r6, ip, r1
    2500:	125f0000 	subsne	r0, pc, #0
    2504:	8f090000 	svchi	0x00090000
    2508:	01000007 	tsteq	r0, r7
    250c:	00013367 	andeq	r3, r1, r7, ror #6
    2510:	00128000 	andseq	r8, r2, r0
    2514:	07f30900 	ldrbeq	r0, [r3, r0, lsl #18]!
    2518:	68010000 	stmdavs	r1, {}	; <UNPREDICTABLE>
    251c:	0000002c 	andeq	r0, r0, ip, lsr #32
    2520:	000012b6 			; <UNDEFINED> instruction: 0x000012b6
    2524:	00909c0c 	addseq	r9, r0, ip, lsl #24
    2528:	00086200 	andeq	r6, r8, r0, lsl #4
    252c:	51010b00 	tstpl	r1, r0, lsl #22
    2530:	01f33107 	mvnseq	r3, r7, lsl #2
    2534:	241a4f50 	ldrcs	r4, [sl], #-3920	; 0xf50
    2538:	ff070000 			; <UNDEFINED> instruction: 0xff070000
    253c:	01000000 	mrseq	r0, (UNDEF: 0)
    2540:	0090a47b 	addseq	sl, r0, fp, ror r4
    2544:	00003800 	andeq	r3, r0, r0, lsl #16
    2548:	ee9c0100 	fmle	f0, f4, f0
    254c:	08000001 	stmdaeq	r0, {r0}
    2550:	006e6970 	rsbeq	r6, lr, r0, ror r9
    2554:	002c7b01 	eoreq	r7, ip, r1, lsl #22
    2558:	12f60000 	rscsne	r0, r6, #0
    255c:	8f090000 	svchi	0x00090000
    2560:	01000007 	tsteq	r0, r7
    2564:	00013381 	andeq	r3, r1, r1, lsl #7
    2568:	00131700 	andseq	r1, r3, r0, lsl #14
    256c:	07f30900 	ldrbeq	r0, [r3, r0, lsl #18]!
    2570:	82010000 	andhi	r0, r1, #0
    2574:	0000002c 	andeq	r0, r0, ip, lsr #32
    2578:	0000134d 	andeq	r1, r0, sp, asr #6
    257c:	0090d40c 	addseq	sp, r0, ip, lsl #8
    2580:	00086200 	andeq	r6, r8, r0, lsl #4
    2584:	51010b00 	tstpl	r1, r0, lsl #22
    2588:	01f33107 	mvnseq	r3, r7, lsl #2
    258c:	241a4f50 	ldrcs	r4, [sl], #-3920	; 0xf50
    2590:	72070000 	andvc	r0, r7, #0
    2594:	01000003 	tsteq	r0, r3
    2598:	0090dc95 	umullseq	sp, r0, r5, ip
    259c:	0000cc00 	andeq	ip, r0, r0, lsl #24
    25a0:	649c0100 	ldrvs	r0, [ip], #256	; 0x100
    25a4:	08000002 	stmdaeq	r0, {r1}
    25a8:	006e6970 	rsbeq	r6, lr, r0, ror r9
    25ac:	002c9501 	eoreq	r9, ip, r1, lsl #10
    25b0:	138d0000 	orrne	r0, sp, #0
    25b4:	8f090000 	svchi	0x00090000
    25b8:	01000007 	tsteq	r0, r7
    25bc:	0001339b 	muleq	r1, fp, r3
    25c0:	0013ab00 	andseq	sl, r3, r0, lsl #22
    25c4:	08a50900 	stmiaeq	r5!, {r8, fp}
    25c8:	9d010000 	stcls	0, cr0, [r1, #-0]
    25cc:	0000002c 	andeq	r0, r0, ip, lsr #32
    25d0:	00001400 	andeq	r1, r0, r0, lsl #8
    25d4:	0007f309 	andeq	pc, r7, r9, lsl #6
    25d8:	2cab0100 	stfcss	f0, [fp]
    25dc:	cc000000 	stcgt	0, cr0, [r0], {-0}
    25e0:	0a000015 	beq	263c <_start-0x59c4>
    25e4:	00009170 	andeq	r9, r0, r0, ror r1
    25e8:	00000841 	andeq	r0, r0, r1, asr #16
    25ec:	00000253 	andeq	r0, r0, r3, asr r2
    25f0:	0250010b 	subseq	r0, r0, #-1073741822	; 0xc0000002
    25f4:	0c000075 	stceq	0, cr0, [r0], {117}	; 0x75
    25f8:	0000919c 	muleq	r0, ip, r1
    25fc:	00000862 	andeq	r0, r0, r2, ror #16
    2600:	0250010b 	subseq	r0, r0, #-1073741822	; 0xc0000002
    2604:	00000075 	andeq	r0, r0, r5, ror r0
    2608:	0007980f 	andeq	r9, r7, pc, lsl #16
    260c:	64b20100 	ldrtvs	r0, [r2], #256	; 0x100
    2610:	a8000000 	stmdage	r0, {}	; <UNPREDICTABLE>
    2614:	4c000091 	stcmi	0, cr0, [r0], {145}	; 0x91
    2618:	01000000 	mrseq	r0, (UNDEF: 0)
    261c:	0002ac9c 	muleq	r2, ip, ip
    2620:	69700800 	ldmdbvs	r0!, {fp}^
    2624:	b201006e 	andlt	r0, r1, #110	; 0x6e
    2628:	0000002c 	andeq	r0, r0, ip, lsr #32
    262c:	000015ea 	andeq	r1, r0, sl, ror #11
    2630:	01007610 	tsteq	r0, r0, lsl r6
    2634:	00002cb8 			; <UNDEFINED> instruction: 0x00002cb8
    2638:	00164200 	andseq	r4, r6, r0, lsl #4
    263c:	91c81100 	bicls	r1, r8, r0, lsl #2
    2640:	08410000 	stmdaeq	r1, {}^	; <UNPREDICTABLE>
    2644:	d8110000 	ldmdale	r1, {}	; <UNPREDICTABLE>
    2648:	41000091 	swpmi	r0, r1, [r0]	; <UNPREDICTABLE>
    264c:	00000008 	andeq	r0, r0, r8
    2650:	00002a07 	andeq	r2, r0, r7, lsl #20
    2654:	f4c40100 	vst2.8	{d16[0],d17[0]}, [r4], r0
    2658:	24000091 	strcs	r0, [r0], #-145	; 0x91
    265c:	01000000 	mrseq	r0, (UNDEF: 0)
    2660:	0002fc9c 	muleq	r2, ip, ip
    2664:	69700800 	ldmdbvs	r0!, {fp}^
    2668:	c401006e 	strgt	r0, [r1], #-110	; 0x6e
    266c:	0000002c 	andeq	r0, r0, ip, lsr #32
    2670:	00001678 	andeq	r1, r0, r8, ror r6
    2674:	01007608 	tsteq	r0, r8, lsl #12
    2678:	00002cc4 	andeq	r2, r0, r4, asr #25
    267c:	0016b200 	andseq	fp, r6, r0, lsl #4
    2680:	920c0a00 	andls	r0, ip, #0, 20
    2684:	013e0000 	teqeq	lr, r0
    2688:	02f20000 	rscseq	r0, r2, #0
    268c:	010b0000 	mrseq	r0, (UNDEF: 11)
    2690:	01f30350 	mvnseq	r0, r0, asr r3
    2694:	14110050 	ldrne	r0, [r1], #-80	; 0x50
    2698:	96000092 			; <UNDEFINED> instruction: 0x96000092
    269c:	00000001 	andeq	r0, r0, r1
    26a0:	0007b707 	andeq	fp, r7, r7, lsl #14
    26a4:	18d00100 	ldmne	r0, {r8}^
    26a8:	d8000092 	stmdale	r0, {r1, r4, r7}
    26ac:	01000000 	mrseq	r0, (UNDEF: 0)
    26b0:	0003819c 	muleq	r3, ip, r1
    26b4:	69700800 	ldmdbvs	r0!, {fp}^
    26b8:	d001006e 	andle	r0, r1, lr, rrx
    26bc:	0000002c 	andeq	r0, r0, ip, lsr #32
    26c0:	000016ec 	andeq	r1, r0, ip, ror #13
    26c4:	0007fb12 	andeq	pc, r7, r2, lsl fp	; <UNPREDICTABLE>
    26c8:	b2d00100 	sbcslt	r0, r0, #0, 2
    26cc:	0a000000 	beq	26d4 <_start-0x592c>
    26d0:	09000017 	stmdbeq	r0, {r0, r1, r2, r4}
    26d4:	0000078f 	andeq	r0, r0, pc, lsl #15
    26d8:	0133d801 	teqeq	r3, r1, lsl #16
    26dc:	172b0000 	strne	r0, [fp, -r0]!
    26e0:	a5090000 	strge	r0, [r9, #-0]
    26e4:	01000008 	tsteq	r0, r8
    26e8:	00002cd9 	ldrdeq	r2, [r0], -r9
    26ec:	00178000 	andseq	r8, r7, r0
    26f0:	07f30900 	ldrbeq	r0, [r3, r0, lsl #18]!
    26f4:	e7010000 	str	r0, [r1, -r0]
    26f8:	0000002c 	andeq	r0, r0, ip, lsr #32
    26fc:	0000194c 	andeq	r1, r0, ip, asr #18
    2700:	0092b40a 	addseq	fp, r2, sl, lsl #8
    2704:	00084100 	andeq	r4, r8, r0, lsl #2
    2708:	00037000 	andeq	r7, r3, r0
    270c:	50010b00 	andpl	r0, r1, r0, lsl #22
    2710:	00007602 	andeq	r7, r0, r2, lsl #12
    2714:	0092e40c 	addseq	lr, r2, ip, lsl #8
    2718:	00086200 	andeq	r6, r8, r0, lsl #4
    271c:	50010b00 	andpl	r0, r1, r0, lsl #22
    2720:	00007602 	andeq	r7, r0, r2, lsl #12
    2724:	08000700 	stmdaeq	r0, {r8, r9, sl}
    2728:	f0010000 			; <UNDEFINED> instruction: 0xf0010000
    272c:	000092f0 	strdeq	r9, [r0], -r0
    2730:	00000038 	andeq	r0, r0, r8, lsr r0
    2734:	03d99c01 	bicseq	r9, r9, #256	; 0x100
    2738:	70080000 	andvc	r0, r8, r0
    273c:	01006e69 	tsteq	r0, r9, ror #28
    2740:	00002cf0 	strdeq	r2, [r0], -r0
    2744:	00197d00 	andseq	r7, r9, r0, lsl #26
    2748:	078f0900 	streq	r0, [pc, r0, lsl #18]
    274c:	f6010000 			; <UNDEFINED> instruction: 0xf6010000
    2750:	00000133 	andeq	r0, r0, r3, lsr r1
    2754:	0000199e 	muleq	r0, lr, r9
    2758:	0007f309 	andeq	pc, r7, r9, lsl #6
    275c:	2cf70100 	ldfcse	f0, [r7]
    2760:	d4000000 	strle	r0, [r0], #-0
    2764:	0c000019 	stceq	0, cr0, [r0], {25}
    2768:	00009320 	andeq	r9, r0, r0, lsr #6
    276c:	00000862 	andeq	r0, r0, r2, ror #16
    2770:	0751010b 	ldrbeq	r0, [r1, -fp, lsl #2]
    2774:	5001f331 	andpl	pc, r1, r1, lsr r3	; <UNPREDICTABLE>
    2778:	00241a4f 	eoreq	r1, r4, pc, asr #20
    277c:	07531300 	ldrbeq	r1, [r3, -r0, lsl #6]
    2780:	1e010000 	cdpne	0, 0, cr0, cr1, cr0, {0}
    2784:	00006401 	andeq	r6, r0, r1, lsl #8
    2788:	00932800 	addseq	r2, r3, r0, lsl #16
    278c:	00002c00 	andeq	r2, r0, r0, lsl #24
    2790:	0d9c0100 	ldfeqs	f0, [ip]
    2794:	14000004 	strne	r0, [r0], #-4
    2798:	00000756 	andeq	r0, r0, r6, asr r7
    279c:	2c011e01 	stccs	14, cr1, [r1], {1}
    27a0:	14000000 	strne	r0, [r0], #-0
    27a4:	1100001a 	tstne	r0, sl, lsl r0
    27a8:	00009338 	andeq	r9, r0, r8, lsr r3
    27ac:	00000841 	andeq	r0, r0, r1, asr #16
    27b0:	07a21500 	streq	r1, [r2, r0, lsl #10]!
    27b4:	2d010000 	stccs	0, cr0, [r1, #-0]
    27b8:	00935401 	addseq	r5, r3, r1, lsl #8
    27bc:	00008400 	andeq	r8, r0, r0, lsl #8
    27c0:	d19c0100 	orrsle	r0, ip, r0, lsl #2
    27c4:	16000004 	strne	r0, [r0], -r4
    27c8:	006e6970 	rsbeq	r6, lr, r0, ror r9
    27cc:	2c012d01 	stccs	13, cr2, [r1], {1}
    27d0:	35000000 	strcc	r0, [r0, #-0]
    27d4:	1700001a 	smladne	r0, sl, r0, r0
    27d8:	0000077d 	andeq	r0, r0, sp, ror r7
    27dc:	2c013f01 	stccs	15, cr3, [r1], {1}
    27e0:	61000000 	mrsvs	r0, (UNDEF: 0)
    27e4:	1800001a 	stmdane	r0, {r1, r3, r4}
    27e8:	00009370 	andeq	r9, r0, r0, ror r3
    27ec:	0000001c 	andeq	r0, r0, ip, lsl r0
    27f0:	00000473 	andeq	r0, r0, r3, ror r4
    27f4:	0007f317 	andeq	pc, r7, r7, lsl r3	; <UNPREDICTABLE>
    27f8:	01360100 	teqeq	r6, r0, lsl #2
    27fc:	0000002c 	andeq	r0, r0, ip, lsr #32
    2800:	00001a7f 	andeq	r1, r0, pc, ror sl
    2804:	00937c11 	addseq	r7, r3, r1, lsl ip
    2808:	00084100 	andeq	r4, r8, r0, lsl #2
    280c:	938c1100 	orrls	r1, ip, #0, 2
    2810:	08620000 	stmdaeq	r2!, {}^	; <UNPREDICTABLE>
    2814:	18000000 	stmdane	r0, {}	; <UNPREDICTABLE>
    2818:	00009390 	muleq	r0, r0, r3
    281c:	00000020 	andeq	r0, r0, r0, lsr #32
    2820:	000004a3 	andeq	r0, r0, r3, lsr #9
    2824:	0007f317 	andeq	pc, r7, r7, lsl r3	; <UNPREDICTABLE>
    2828:	013a0100 	teqeq	sl, r0, lsl #2
    282c:	0000002c 	andeq	r0, r0, ip, lsr #32
    2830:	00001a9d 	muleq	r0, sp, sl
    2834:	00939c11 	addseq	r9, r3, r1, lsl ip
    2838:	00084100 	andeq	r4, r8, r0, lsl #2
    283c:	93b01100 	movsls	r1, #0, 2
    2840:	08620000 	stmdaeq	r2!, {}^	; <UNPREDICTABLE>
    2844:	11000000 	mrsne	r0, (UNDEF: 0)
    2848:	00009368 	andeq	r9, r0, r8, ror #6
    284c:	0000087e 	andeq	r0, r0, lr, ror r8
    2850:	0093b411 	addseq	fp, r3, r1, lsl r4
    2854:	00087e00 	andeq	r7, r8, r0, lsl #28
    2858:	93c01100 	bicls	r1, r0, #0, 2
    285c:	08410000 	stmdaeq	r1, {}^	; <UNPREDICTABLE>
    2860:	cc110000 	ldcgt	0, cr0, [r1], {-0}
    2864:	62000093 	andvs	r0, r0, #147	; 0x93
    2868:	11000008 	tstne	r0, r8
    286c:	000093d0 	ldrdeq	r9, [r0], -r0
    2870:	0000087e 	andeq	r0, r0, lr, ror r8
    2874:	042d1500 	strteq	r1, [sp], #-1280	; 0x500
    2878:	4a010000 	bmi	42880 <__bss_end__+0x365a8>
    287c:	0093d801 	addseq	sp, r3, r1, lsl #16
    2880:	00008400 	andeq	r8, r0, r0, lsl #8
    2884:	959c0100 	ldrls	r0, [ip, #256]	; 0x100
    2888:	16000005 	strne	r0, [r0], -r5
    288c:	006e6970 	rsbeq	r6, lr, r0, ror r9
    2890:	2c014a01 	stccs	10, cr4, [r1], {1}
    2894:	bb000000 	bllt	289c <_start-0x5764>
    2898:	1700001a 	smladne	r0, sl, r0, r0
    289c:	0000077d 	andeq	r0, r0, sp, ror r7
    28a0:	2c015b01 	stccs	11, cr5, [r1], {1}
    28a4:	e7000000 	str	r0, [r0, -r0]
    28a8:	1800001a 	stmdane	r0, {r1, r3, r4}
    28ac:	000093f4 	strdeq	r9, [r0], -r4
    28b0:	0000001c 	andeq	r0, r0, ip, lsl r0
    28b4:	00000537 	andeq	r0, r0, r7, lsr r5
    28b8:	0007f317 	andeq	pc, r7, r7, lsl r3	; <UNPREDICTABLE>
    28bc:	01520100 	cmpeq	r2, r0, lsl #2
    28c0:	0000002c 	andeq	r0, r0, ip, lsr #32
    28c4:	00001b05 	andeq	r1, r0, r5, lsl #22
    28c8:	00940011 	addseq	r0, r4, r1, lsl r0
    28cc:	00084100 	andeq	r4, r8, r0, lsl #2
    28d0:	94101100 	ldrls	r1, [r0], #-256	; 0x100
    28d4:	08620000 	stmdaeq	r2!, {}^	; <UNPREDICTABLE>
    28d8:	18000000 	stmdane	r0, {}	; <UNPREDICTABLE>
    28dc:	00009414 	andeq	r9, r0, r4, lsl r4
    28e0:	00000020 	andeq	r0, r0, r0, lsr #32
    28e4:	00000567 	andeq	r0, r0, r7, ror #10
    28e8:	0007f317 	andeq	pc, r7, r7, lsl r3	; <UNPREDICTABLE>
    28ec:	01560100 	cmpeq	r6, r0, lsl #2
    28f0:	0000002c 	andeq	r0, r0, ip, lsr #32
    28f4:	00001b23 	andeq	r1, r0, r3, lsr #22
    28f8:	00942011 	addseq	r2, r4, r1, lsl r0
    28fc:	00084100 	andeq	r4, r8, r0, lsl #2
    2900:	94341100 	ldrtls	r1, [r4], #-256	; 0x100
    2904:	08620000 	stmdaeq	r2!, {}^	; <UNPREDICTABLE>
    2908:	11000000 	mrsne	r0, (UNDEF: 0)
    290c:	000093ec 	andeq	r9, r0, ip, ror #7
    2910:	0000087e 	andeq	r0, r0, lr, ror r8
    2914:	00943811 	addseq	r3, r4, r1, lsl r8
    2918:	00087e00 	andeq	r7, r8, r0, lsl #28
    291c:	94441100 	strbls	r1, [r4], #-256	; 0x100
    2920:	08410000 	stmdaeq	r1, {}^	; <UNPREDICTABLE>
    2924:	50110000 	andspl	r0, r1, r0
    2928:	62000094 	andvs	r0, r0, #148	; 0x94
    292c:	11000008 	tstne	r0, r8
    2930:	00009454 	andeq	r9, r0, r4, asr r4
    2934:	0000087e 	andeq	r0, r0, lr, ror r8
    2938:	072b1300 	streq	r1, [fp, -r0, lsl #6]!
    293c:	65010000 	strvs	r0, [r1, #-0]
    2940:	00006401 	andeq	r6, r0, r1, lsl #8
    2944:	00945c00 	addseq	r5, r4, r0, lsl #24
    2948:	00008400 	andeq	r8, r0, r0, lsl #8
    294c:	3b9c0100 	blcc	fe702d54 <__bss_end__+0xfe6f6a7c>
    2950:	16000006 	strne	r0, [r0], -r6
    2954:	006e6970 	rsbeq	r6, lr, r0, ror r9
    2958:	2c016501 	cfstr32cs	mvfx6, [r1], {1}
    295c:	41000000 	mrsmi	r0, (UNDEF: 0)
    2960:	1800001b 	stmdane	r0, {r0, r1, r3, r4}
    2964:	00009478 	andeq	r9, r0, r8, ror r4
    2968:	00000024 	andeq	r0, r0, r4, lsr #32
    296c:	000005ef 	andeq	r0, r0, pc, ror #11
    2970:	00078617 	andeq	r8, r7, r7, lsl r6
    2974:	016c0100 	cmneq	ip, r0, lsl #2
    2978:	0000002c 	andeq	r0, r0, ip, lsr #32
    297c:	00001b83 	andeq	r1, r0, r3, lsl #23
    2980:	00948411 	addseq	r8, r4, r1, lsl r4
    2984:	00084100 	andeq	r4, r8, r0, lsl #2
    2988:	94941100 	ldrls	r1, [r4], #256	; 0x100
    298c:	087e0000 	ldmdaeq	lr!, {}^	; <UNPREDICTABLE>
    2990:	18000000 	stmdane	r0, {}	; <UNPREDICTABLE>
    2994:	0000949c 	muleq	r0, ip, r4
    2998:	0000002c 	andeq	r0, r0, ip, lsr #32
    299c:	00000628 	andeq	r0, r0, r8, lsr #12
    29a0:	00078617 	andeq	r8, r7, r7, lsl r6
    29a4:	016f0100 	cmneq	pc, r0, lsl #2
    29a8:	0000002c 	andeq	r0, r0, ip, lsr #32
    29ac:	00001b9d 	muleq	r0, sp, fp
    29b0:	0094a811 	addseq	sl, r4, r1, lsl r8
    29b4:	00084100 	andeq	r4, r8, r0, lsl #2
    29b8:	94b41100 	ldrtls	r1, [r4], #256	; 0x100
    29bc:	087e0000 	ldmdaeq	lr!, {}^	; <UNPREDICTABLE>
    29c0:	c0110000 	andsgt	r0, r1, r0
    29c4:	7e000094 	mcrvc	0, 0, r0, cr0, cr4, {4}
    29c8:	00000008 	andeq	r0, r0, r8
    29cc:	00947011 	addseq	r7, r4, r1, lsl r0
    29d0:	00087e00 	andeq	r7, r8, r0, lsl #28
    29d4:	94cc1100 	strbls	r1, [ip], #256	; 0x100
    29d8:	087e0000 	ldmdaeq	lr!, {}^	; <UNPREDICTABLE>
    29dc:	15000000 	strne	r0, [r0, #-0]
    29e0:	00000162 	andeq	r0, r0, r2, ror #2
    29e4:	e0017801 	and	r7, r1, r1, lsl #16
    29e8:	58000094 	stmdapl	r0, {r2, r4, r7}
    29ec:	01000000 	mrseq	r0, (UNDEF: 0)
    29f0:	0006a09c 	muleq	r6, ip, r0
    29f4:	69701600 	ldmdbvs	r0!, {r9, sl, ip}^
    29f8:	7801006e 	stmdavc	r1, {r1, r2, r3, r5, r6}
    29fc:	00002c01 	andeq	r2, r0, r1, lsl #24
    2a00:	001bb000 	andseq	fp, fp, r0
    2a04:	94f41100 	ldrbtls	r1, [r4], #256	; 0x100
    2a08:	087e0000 	ldmdaeq	lr!, {}^	; <UNPREDICTABLE>
    2a0c:	100a0000 	andne	r0, sl, r0
    2a10:	62000095 	andvs	r0, r0, #149	; 0x95
    2a14:	80000008 	andhi	r0, r0, r8
    2a18:	0b000006 	bleq	2a38 <_start-0x55c8>
    2a1c:	31045101 	tstcc	r4, r1, lsl #2
    2a20:	00240074 	eoreq	r0, r4, r4, ror r0
    2a24:	00952c0a 	addseq	r2, r5, sl, lsl #24
    2a28:	00086200 	andeq	r6, r8, r0, lsl #4
    2a2c:	00069600 	andeq	r9, r6, r0, lsl #12
    2a30:	51010b00 	tstpl	r1, r0, lsl #22
    2a34:	00743104 	rsbseq	r3, r4, r4, lsl #2
    2a38:	30110024 	andscc	r0, r1, r4, lsr #32
    2a3c:	7e000095 	mcrvc	0, 0, r0, cr0, cr5, {4}
    2a40:	00000008 	andeq	r0, r0, r8
    2a44:	0001a619 	andeq	sl, r1, r9, lsl r6
    2a48:	33280100 	teqcc	r8, #0, 2
    2a4c:	05000001 	streq	r0, [r0, #-1]
    2a50:	0099fc03 	addseq	pc, r9, r3, lsl #24
    2a54:	02f71900 	rscseq	r1, r7, #0, 18
    2a58:	29010000 	stmdbcs	r1, {}	; <UNPREDICTABLE>
    2a5c:	00000133 	andeq	r0, r0, r3, lsr r1
    2a60:	99f80305 	ldmibls	r8!, {r0, r2, r8, r9}^
    2a64:	43190000 	tstmi	r9, #0
    2a68:	01000004 	tsteq	r0, r4
    2a6c:	0001332a 	andeq	r3, r1, sl, lsr #6
    2a70:	f4030500 	vst3.8	{d0,d2,d4}, [r3], r0
    2a74:	19000099 	stmdbne	r0, {r0, r3, r4, r7}
    2a78:	0000012f 	andeq	r0, r0, pc, lsr #2
    2a7c:	01332c01 	teqeq	r3, r1, lsl #24
    2a80:	03050000 	movweq	r0, #20480	; 0x5000
    2a84:	000099a0 	andeq	r9, r0, r0, lsr #19
    2a88:	00013719 	andeq	r3, r1, r9, lsl r7
    2a8c:	332d0100 	teqcc	sp, #0, 2
    2a90:	05000001 	streq	r0, [r0, #-1]
    2a94:	0099a403 	addseq	sl, r9, r3, lsl #8
    2a98:	00071900 	andeq	r1, r7, r0, lsl #18
    2a9c:	2e010000 	cdpcs	0, 0, cr0, cr1, cr0, {0}
    2aa0:	00000133 	andeq	r0, r0, r3, lsr r1
    2aa4:	99a80305 	stmibls	r8!, {r0, r2, r8, r9}
    2aa8:	3f190000 	svccc	0x00190000
    2aac:	01000001 	tsteq	r0, r1
    2ab0:	0001332f 	andeq	r3, r1, pc, lsr #6
    2ab4:	ac030500 	cfstr32ge	mvfx0, [r3], {-0}
    2ab8:	19000099 	stmdbne	r0, {r0, r3, r4, r7}
    2abc:	00000147 	andeq	r0, r0, r7, asr #2
    2ac0:	01333001 	teqeq	r3, r1
    2ac4:	03050000 	movweq	r0, #20480	; 0x5000
    2ac8:	000099b0 			; <UNDEFINED> instruction: 0x000099b0
    2acc:	00014f19 	andeq	r4, r1, r9, lsl pc
    2ad0:	33310100 	teqcc	r1, #0, 2
    2ad4:	05000001 	streq	r0, [r0, #-1]
    2ad8:	0099b403 	addseq	fp, r9, r3, lsl #8
    2adc:	02bc1900 	adcseq	r1, ip, #0, 18
    2ae0:	33010000 	movwcc	r0, #4096	; 0x1000
    2ae4:	00000133 	andeq	r0, r0, r3, lsr r1
    2ae8:	99b80305 	ldmibls	r8!, {r0, r2, r8, r9}
    2aec:	b6190000 	ldrlt	r0, [r9], -r0
    2af0:	01000000 	mrseq	r0, (UNDEF: 0)
    2af4:	00013334 	andeq	r3, r1, r4, lsr r3
    2af8:	bc030500 	cfstr32lt	mvfx0, [r3], {-0}
    2afc:	19000099 	stmdbne	r0, {r0, r3, r4, r7}
    2b00:	0000001e 	andeq	r0, r0, lr, lsl r0
    2b04:	01333601 	teqeq	r3, r1, lsl #12
    2b08:	03050000 	movweq	r0, #20480	; 0x5000
    2b0c:	000099c0 	andeq	r9, r0, r0, asr #19
    2b10:	0001b119 	andeq	fp, r1, r9, lsl r1
    2b14:	33370100 	teqcc	r7, #0, 2
    2b18:	05000001 	streq	r0, [r0, #-1]
    2b1c:	0099c403 	addseq	ip, r9, r3, lsl #8
    2b20:	00db1900 	sbcseq	r1, fp, r0, lsl #18
    2b24:	39010000 	stmdbcc	r1, {}	; <UNPREDICTABLE>
    2b28:	00000133 	andeq	r0, r0, r3, lsr r1
    2b2c:	99c80305 	stmibls	r8, {r0, r2, r8, r9}^
    2b30:	e2190000 	ands	r0, r9, #0
    2b34:	01000000 	mrseq	r0, (UNDEF: 0)
    2b38:	0001333a 	andeq	r3, r1, sl, lsr r3
    2b3c:	cc030500 	cfstr32gt	mvfx0, [r3], {-0}
    2b40:	1a000099 	bne	2dac <_start-0x5254>
    2b44:	000007d7 	ldrdeq	r0, [r0], -r7
    2b48:	33010901 	movwcc	r0, #6401	; 0x1901
    2b4c:	05000001 	streq	r0, [r0, #-1]
    2b50:	0099f003 	addseq	pc, r9, r3
    2b54:	07e51a00 	strbeq	r1, [r5, r0, lsl #20]!
    2b58:	0a010000 	beq	42b60 <__bss_end__+0x36888>
    2b5c:	00013301 	andeq	r3, r1, r1, lsl #6
    2b60:	d0030500 	andle	r0, r3, r0, lsl #10
    2b64:	1a000099 	bne	2dd0 <_start-0x5230>
    2b68:	0000080c 	andeq	r0, r0, ip, lsl #16
    2b6c:	33010c01 	movwcc	r0, #7169	; 0x1c01
    2b70:	05000001 	streq	r0, [r0, #-1]
    2b74:	0099e803 	addseq	lr, r9, r3, lsl #16
    2b78:	08131a00 	ldmdaeq	r3, {r9, fp, ip}
    2b7c:	0d010000 	stceq	0, cr0, [r1, #-0]
    2b80:	00013301 	andeq	r3, r1, r1, lsl #6
    2b84:	ec030500 	cfstr32	mvfx0, [r3], {-0}
    2b88:	1a000099 	bne	2df4 <_start-0x520c>
    2b8c:	000007c9 	andeq	r0, r0, r9, asr #15
    2b90:	33010f01 	movwcc	r0, #7937	; 0x1f01
    2b94:	05000001 	streq	r0, [r0, #-1]
    2b98:	0099d403 	addseq	sp, r9, r3, lsl #8
    2b9c:	07d01a00 	ldrbeq	r1, [r0, r0, lsl #20]
    2ba0:	10010000 	andne	r0, r1, r0
    2ba4:	00013301 	andeq	r3, r1, r1, lsl #6
    2ba8:	d8030500 	stmdale	r3, {r8, sl}
    2bac:	1a000099 	bne	2e18 <_start-0x51e8>
    2bb0:	0000081a 	andeq	r0, r0, sl, lsl r8
    2bb4:	33011201 	movwcc	r1, #4609	; 0x1201
    2bb8:	05000001 	streq	r0, [r0, #-1]
    2bbc:	0099e003 	addseq	lr, r9, r3
    2bc0:	08211a00 	stmdaeq	r1!, {r9, fp, ip}
    2bc4:	13010000 	movwne	r0, #4096	; 0x1000
    2bc8:	00013301 	andeq	r3, r1, r1, lsl #6
    2bcc:	e4030500 	str	r0, [r3], #-1280	; 0x500
    2bd0:	1a000099 	bne	2e3c <_start-0x51c4>
    2bd4:	00000745 	andeq	r0, r0, r5, asr #14
    2bd8:	33011501 	movwcc	r1, #5377	; 0x1501
    2bdc:	05000001 	streq	r0, [r0, #-1]
    2be0:	0099dc03 	addseq	sp, r9, r3, lsl #24
    2be4:	08391b00 	ldmdaeq	r9!, {r8, r9, fp, ip}
    2be8:	20010000 	andcs	r0, r1, r0
    2bec:	0000002c 	andeq	r0, r0, ip, lsr #32
    2bf0:	00000856 	andeq	r0, r0, r6, asr r8
    2bf4:	0008561c 	andeq	r5, r8, ip, lsl r6
    2bf8:	040d0000 	streq	r0, [sp], #-0
    2bfc:	0000085c 	andeq	r0, r0, ip, asr r8
    2c00:	0008611d 	andeq	r6, r8, sp, lsl r1
    2c04:	3f1f1e00 	svccc	0x001f1e00
    2c08:	01000007 	tsteq	r0, r7
    2c0c:	0008781e 	andeq	r7, r8, lr, lsl r8
    2c10:	08781c00 	ldmdaeq	r8!, {sl, fp, ip}^
    2c14:	2c1c0000 	ldccs	0, cr0, [ip], {-0}
    2c18:	00000000 	andeq	r0, r0, r0
    2c1c:	0861040d 	stmdaeq	r1!, {r0, r2, r3, sl}^
    2c20:	9c200000 	stcls	0, cr0, [r0], #-0
    2c24:	03000002 	movweq	r0, #2
    2c28:	03ff008a 	mvnseq	r0, #138	; 0x8a
    2c2c:	00040000 	andeq	r0, r4, r0
    2c30:	00000d92 	muleq	r0, r2, sp
    2c34:	03150104 	tsteq	r5, #4, 2
    2c38:	81010000 	mrshi	r0, (UNDEF: 1)
    2c3c:	9a000009 	bls	2c68 <_start-0x5398>
    2c40:	38000004 	stmdacc	r0, {r2}
    2c44:	54000095 	strpl	r0, [r0], #-149	; 0x95
    2c48:	3b000001 	blcc	2c54 <_start-0x53ac>
    2c4c:	0200000d 	andeq	r0, r0, #13
    2c50:	6e690504 	cdpvs	5, 6, cr0, cr9, cr4, {0}
    2c54:	04030074 	streq	r0, [r3], #-116	; 0x74
    2c58:	00005a07 	andeq	r5, r0, r7, lsl #20
    2c5c:	06010300 	streq	r0, [r1], -r0, lsl #6
    2c60:	000002aa 	andeq	r0, r0, sl, lsr #5
    2c64:	c3050203 	movwgt	r0, #20995	; 0x5203
    2c68:	03000002 	movweq	r0, #2
    2c6c:	008c0504 	addeq	r0, ip, r4, lsl #10
    2c70:	08030000 	stmdaeq	r3, {}	; <UNPREDICTABLE>
    2c74:	00008705 	andeq	r8, r0, r5, lsl #14
    2c78:	08010300 	stmdaeq	r1, {r8, r9}
    2c7c:	000002a8 	andeq	r0, r0, r8, lsr #5
    2c80:	89070203 	stmdbhi	r7, {r0, r1, r9}
    2c84:	03000001 	movweq	r0, #1
    2c88:	00550704 	subseq	r0, r5, r4, lsl #14
    2c8c:	08030000 	stmdaeq	r3, {}	; <UNPREDICTABLE>
    2c90:	00005007 	andeq	r5, r0, r7
    2c94:	07040300 	streq	r0, [r4, -r0, lsl #6]
    2c98:	000001ca 	andeq	r0, r0, sl, asr #3
    2c9c:	b1080103 	tstlt	r8, r3, lsl #2
    2ca0:	04000002 	streq	r0, [r0], #-2
    2ca4:	b20c0201 	andlt	r0, ip, #268435456	; 0x10000000
    2ca8:	05000000 	streq	r0, [r0, #-0]
    2cac:	0000075f 	andeq	r0, r0, pc, asr r7
    2cb0:	08280500 	stmdaeq	r8!, {r8, sl}
    2cb4:	05010000 	streq	r0, [r1, #-0]
    2cb8:	0000084b 	andeq	r0, r0, fp, asr #16
    2cbc:	085a0504 	ldmdaeq	sl, {r2, r8, sl}^
    2cc0:	05050000 	streq	r0, [r5, #-0]
    2cc4:	00000869 	andeq	r0, r0, r9, ror #16
    2cc8:	08780506 	ldmdaeq	r8!, {r1, r2, r8, sl}^
    2ccc:	05070000 	streq	r0, [r7, #-0]
    2cd0:	00000887 	andeq	r0, r0, r7, lsl #17
    2cd4:	08960503 	ldmeq	r6, {r0, r1, r8, sl}
    2cd8:	00020000 	andeq	r0, r2, r0
    2cdc:	00083f06 	andeq	r3, r8, r6, lsl #30
    2ce0:	79150200 	ldmdbvc	r5, {r9}
    2ce4:	07000000 	streq	r0, [r0, -r0]
    2ce8:	00000046 	andeq	r0, r0, r6, asr #32
    2cec:	95383701 	ldrls	r3, [r8, #-1793]!	; 0x701
    2cf0:	009c0000 	addseq	r0, ip, r0
    2cf4:	9c010000 	stcls	0, cr0, [r1], {-0}
    2cf8:	000001c3 	andeq	r0, r0, r3, asr #3
    2cfc:	00954008 	addseq	r4, r5, r8
    2d00:	0003a800 	andeq	sl, r3, r0, lsl #16
    2d04:	954c0900 	strbls	r0, [ip, #-2304]	; 0x900
    2d08:	03af0000 			; <UNDEFINED> instruction: 0x03af0000
    2d0c:	00f30000 	rscseq	r0, r3, r0
    2d10:	010a0000 	mrseq	r0, (UNDEF: 10)
    2d14:	0a320151 	beq	c83260 <__bss_end__+0xc76f88>
    2d18:	3e015001 	cdpcc	0, 0, cr5, cr1, cr1, {0}
    2d1c:	95580900 	ldrbls	r0, [r8, #-2304]	; 0x900
    2d20:	03af0000 			; <UNDEFINED> instruction: 0x03af0000
    2d24:	010b0000 	mrseq	r0, (UNDEF: 11)
    2d28:	010a0000 	mrseq	r0, (UNDEF: 10)
    2d2c:	0a320151 	beq	c83278 <__bss_end__+0xc76fa0>
    2d30:	3f015001 	svccc	0x00015001
    2d34:	955c0800 	ldrbls	r0, [ip, #-2048]	; 0x800
    2d38:	03a80000 			; <UNDEFINED> instruction: 0x03a80000
    2d3c:	6c090000 	stcvs	0, cr0, [r9], {-0}
    2d40:	c5000095 	strgt	r0, [r0, #-149]	; 0x95
    2d44:	28000003 	stmdacs	r0, {r0, r1}
    2d48:	0a000001 	beq	2d54 <_start-0x52ac>
    2d4c:	75025001 	strvc	r5, [r2, #-1]
    2d50:	78090000 	stmdavc	r9, {}	; <UNPREDICTABLE>
    2d54:	e6000095 			; <UNDEFINED> instruction: 0xe6000095
    2d58:	3c000003 	stccc	0, cr0, [r0], {3}
    2d5c:	0a000001 	beq	2d68 <_start-0x5298>
    2d60:	75025001 	strvc	r5, [r2, #-1]
    2d64:	7c080000 	stcvc	0, cr0, [r8], {-0}
    2d68:	a8000095 	stmdage	r0, {r0, r2, r4, r7}
    2d6c:	09000003 	stmdbeq	r0, {r0, r1}
    2d70:	00009588 	andeq	r9, r0, r8, lsl #11
    2d74:	000003e6 	andeq	r0, r0, r6, ror #7
    2d78:	00000158 	andeq	r0, r0, r8, asr r1
    2d7c:	0151010a 	cmpeq	r1, sl, lsl #2
    2d80:	94090030 	strls	r0, [r9], #-48	; 0x30
    2d84:	e6000095 			; <UNDEFINED> instruction: 0xe6000095
    2d88:	6b000003 	blvs	2d9c <_start-0x5264>
    2d8c:	0a000001 	beq	2d98 <_start-0x5268>
    2d90:	30015101 	andcc	r5, r1, r1, lsl #2
    2d94:	95a00900 	strls	r0, [r0, #2304]!	; 0x900
    2d98:	03e60000 	mvneq	r0, #0
    2d9c:	017e0000 	cmneq	lr, r0
    2da0:	010a0000 	mrseq	r0, (UNDEF: 10)
    2da4:	00360151 	eorseq	r0, r6, r1, asr r1
    2da8:	0095ac09 	addseq	sl, r5, r9, lsl #24
    2dac:	0003e600 	andeq	lr, r3, r0, lsl #12
    2db0:	00019100 	andeq	r9, r1, r0, lsl #2
    2db4:	51010a00 	tstpl	r1, r0, lsl #20
    2db8:	09003301 	stmdbeq	r0, {r0, r8, r9, ip, sp}
    2dbc:	000095b8 			; <UNDEFINED> instruction: 0x000095b8
    2dc0:	000003e6 	andeq	r0, r0, r6, ror #7
    2dc4:	000001a6 	andeq	r0, r0, r6, lsr #3
    2dc8:	0351010a 	cmpeq	r1, #-2147483646	; 0x80000002
    2dcc:	00010e0a 	andeq	r0, r1, sl, lsl #28
    2dd0:	0095c409 	addseq	ip, r5, r9, lsl #8
    2dd4:	0003e600 	andeq	lr, r3, r0, lsl #12
    2dd8:	0001b900 	andeq	fp, r1, r0, lsl #18
    2ddc:	51010a00 	tstpl	r1, r0, lsl #20
    2de0:	08003301 	stmdaeq	r0, {r0, r8, r9, ip, sp}
    2de4:	000095c8 	andeq	r9, r0, r8, asr #11
    2de8:	000003a8 	andeq	r0, r0, r8, lsr #7
    2dec:	08dc0b00 	ldmeq	ip, {r8, r9, fp}^
    2df0:	57010000 	strpl	r0, [r1, -r0]
    2df4:	00000025 	andeq	r0, r0, r5, lsr #32
    2df8:	000095d4 	ldrdeq	r9, [r0], -r4
    2dfc:	0000001c 	andeq	r0, r0, ip, lsl r0
    2e00:	01e69c01 	mvneq	r9, r1, lsl #24
    2e04:	e4080000 	str	r0, [r8], #-0
    2e08:	c5000095 	strgt	r0, [r0, #-149]	; 0x95
    2e0c:	00000003 	andeq	r0, r0, r3
    2e10:	0009170b 	andeq	r1, r9, fp, lsl #14
    2e14:	255d0100 	ldrbcs	r0, [sp, #-256]	; 0x100
    2e18:	f0000000 			; <UNDEFINED> instruction: 0xf0000000
    2e1c:	28000095 	stmdacs	r0, {r0, r2, r4, r7}
    2e20:	01000000 	mrseq	r0, (UNDEF: 0)
    2e24:	0002129c 	muleq	r2, ip, r2
    2e28:	95f80800 	ldrbls	r0, [r8, #2048]!	; 0x800
    2e2c:	01c30000 	biceq	r0, r3, r0
    2e30:	0c080000 	stceq	0, cr0, [r8], {-0}
    2e34:	c5000096 	strgt	r0, [r0, #-150]	; 0x96
    2e38:	00000003 	andeq	r0, r0, r3
    2e3c:	0009300b 	andeq	r3, r9, fp
    2e40:	25640100 	strbcs	r0, [r4, #-256]!	; 0x100
    2e44:	18000000 	stmdane	r0, {}	; <UNPREDICTABLE>
    2e48:	1c000096 	stcne	0, cr0, [r0], {150}	; 0x96
    2e4c:	01000000 	mrseq	r0, (UNDEF: 0)
    2e50:	0002359c 	muleq	r2, ip, r5
    2e54:	96280800 	strtls	r0, [r8], -r0, lsl #16
    2e58:	03c50000 	biceq	r0, r5, #0
    2e5c:	07000000 	streq	r0, [r0, -r0]
    2e60:	00000519 	andeq	r0, r0, r9, lsl r5
    2e64:	96346a01 	ldrtls	r6, [r4], -r1, lsl #20
    2e68:	002c0000 	eoreq	r0, ip, r0
    2e6c:	9c010000 	stcls	0, cr0, [r1], {-0}
    2e70:	00000271 	andeq	r0, r0, r1, ror r2
    2e74:	0100630c 	tsteq	r0, ip, lsl #6
    2e78:	00002c6a 	andeq	r2, r0, sl, ror #24
    2e7c:	001bdc00 	andseq	sp, fp, r0, lsl #24
    2e80:	96400800 	strbls	r0, [r0], -r0, lsl #16
    2e84:	02120000 	andseq	r0, r2, #0
    2e88:	580d0000 	stmdapl	sp, {}	; <UNPREDICTABLE>
    2e8c:	e6000096 			; <UNDEFINED> instruction: 0xe6000096
    2e90:	0a000003 	beq	2ea4 <_start-0x515c>
    2e94:	74025101 	strvc	r5, [r2], #-257	; 0x101
    2e98:	0b000000 	bleq	2ea0 <_start-0x5160>
    2e9c:	000008fa 	strdeq	r0, [r0], -sl
    2ea0:	00257401 	eoreq	r7, r5, r1, lsl #8
    2ea4:	96600000 	strbtls	r0, [r0], -r0
    2ea8:	000c0000 	andeq	r0, ip, r0
    2eac:	9c010000 	stcls	0, cr0, [r1], {-0}
    2eb0:	00000294 	muleq	r0, r4, r2
    2eb4:	00966808 	addseq	r6, r6, r8, lsl #16
    2eb8:	0001c300 	andeq	ip, r1, r0, lsl #6
    2ebc:	ad0b0000 	stcge	0, cr0, [fp, #-0]
    2ec0:	01000009 	tsteq	r0, r9
    2ec4:	00002578 	andeq	r2, r0, r8, ror r5
    2ec8:	00966c00 	addseq	r6, r6, r0, lsl #24
    2ecc:	00002000 	andeq	r2, r0, r0
    2ed0:	c09c0100 	addsgt	r0, ip, r0, lsl #2
    2ed4:	08000002 	stmdaeq	r0, {r1}
    2ed8:	00009674 	andeq	r9, r0, r4, ror r6
    2edc:	00000271 	andeq	r0, r0, r1, ror r2
    2ee0:	00968008 	addseq	r8, r6, r8
    2ee4:	0001e600 	andeq	lr, r1, r0, lsl #12
    2ee8:	4a0e0000 	bmi	382ef0 <__bss_end__+0x376c18>
    2eec:	01000009 	tsteq	r0, r9
    2ef0:	0002d116 	andeq	sp, r2, r6, lsl r1
    2ef4:	30030500 	andcc	r0, r3, r0, lsl #10
    2ef8:	0f00009a 	svceq	0x0000009a
    2efc:	0002d704 	andeq	sp, r2, r4, lsl #14
    2f00:	002c1000 	eoreq	r1, ip, r0
    2f04:	3e0e0000 	cdpcc	0, 0, cr0, cr14, cr0, {0}
    2f08:	01000009 	tsteq	r0, r9
    2f0c:	0002d117 	andeq	sp, r2, r7, lsl r1
    2f10:	00030500 	andeq	r0, r3, r0, lsl #10
    2f14:	0e00009a 	mcreq	0, 0, r0, cr0, cr10, {4}
    2f18:	000008bf 			; <UNDEFINED> instruction: 0x000008bf
    2f1c:	02d11a01 	sbcseq	r1, r1, #4096	; 0x1000
    2f20:	03050000 	movweq	r0, #20480	; 0x5000
    2f24:	00009a1c 	andeq	r9, r0, ip, lsl sl
    2f28:	0009080e 	andeq	r0, r9, lr, lsl #16
    2f2c:	d11b0100 	tstle	fp, r0, lsl #2
    2f30:	05000002 	streq	r0, [r0, #-2]
    2f34:	009a0803 	addseq	r0, sl, r3, lsl #16
    2f38:	09210e00 	stmdbeq	r1!, {r9, sl, fp}
    2f3c:	1c010000 	stcne	0, cr0, [r1], {-0}
    2f40:	000002d1 	ldrdeq	r0, [r0], -r1
    2f44:	9a0c0305 	bls	303b60 <__bss_end__+0x2f7888>
    2f48:	8f0e0000 	svchi	0x000e0000
    2f4c:	01000009 	tsteq	r0, r9
    2f50:	0002d11d 	andeq	sp, r2, sp, lsl r1
    2f54:	10030500 	andne	r0, r3, r0, lsl #10
    2f58:	0e00009a 	mcreq	0, 0, r0, cr0, cr10, {4}
    2f5c:	000008b0 			; <UNDEFINED> instruction: 0x000008b0
    2f60:	02d11e01 	sbcseq	r1, r1, #1, 28
    2f64:	03050000 	movweq	r0, #20480	; 0x5000
    2f68:	00009a2c 	andeq	r9, r0, ip, lsr #20
    2f6c:	00099e0e 	andeq	r9, r9, lr, lsl #28
    2f70:	d11f0100 	tstle	pc, r0, lsl #2
    2f74:	05000002 	streq	r0, [r0, #-2]
    2f78:	009a1803 	addseq	r1, sl, r3, lsl #16
    2f7c:	08cd0e00 	stmiaeq	sp, {r9, sl, fp}^
    2f80:	20010000 	andcs	r0, r1, r0
    2f84:	000002d1 	ldrdeq	r0, [r0], -r1
    2f88:	9a280305 	bls	a03ba4 <__bss_end__+0x9f78cc>
    2f8c:	720e0000 	andvc	r0, lr, #0
    2f90:	01000009 	tsteq	r0, r9
    2f94:	0002d121 	andeq	sp, r2, r1, lsr #2
    2f98:	24030500 	strcs	r0, [r3], #-1280	; 0x500
    2f9c:	0e00009a 	mcreq	0, 0, r0, cr0, cr10, {4}
    2fa0:	000008ea 	andeq	r0, r0, sl, ror #17
    2fa4:	02d12201 	sbcseq	r2, r1, #268435456	; 0x10000000
    2fa8:	03050000 	movweq	r0, #20480	; 0x5000
    2fac:	00009a04 	andeq	r9, r0, r4, lsl #20
    2fb0:	0009620e 	andeq	r6, r9, lr, lsl #4
    2fb4:	d1230100 	teqle	r3, r0, lsl #2
    2fb8:	05000002 	streq	r0, [r0, #-2]
    2fbc:	009a2003 	addseq	r2, sl, r3
    2fc0:	09520e00 	ldmdbeq	r2, {r9, sl, fp}^
    2fc4:	24010000 	strcs	r0, [r1], #-0
    2fc8:	000002d1 	ldrdeq	r0, [r0], -r1
    2fcc:	9a140305 	bls	503be8 <__bss_end__+0x4f7910>
    2fd0:	9c110000 	ldcls	0, cr0, [r1], {-0}
    2fd4:	03000002 	movweq	r0, #2
    2fd8:	07b7128a 	ldreq	r1, [r7, sl, lsl #5]!
    2fdc:	19020000 	stmdbne	r2, {}	; <UNPREDICTABLE>
    2fe0:	000003c5 	andeq	r0, r0, r5, asr #7
    2fe4:	00002c13 	andeq	r2, r0, r3, lsl ip
    2fe8:	00b21300 	adcseq	r1, r2, r0, lsl #6
    2fec:	14000000 	strne	r0, [r0], #-0
    2ff0:	00000839 	andeq	r0, r0, r9, lsr r8
    2ff4:	002ca903 	eoreq	sl, ip, r3, lsl #18
    2ff8:	03da0000 	bicseq	r0, sl, #0
    2ffc:	da130000 	ble	4c3004 <__bss_end__+0x4b6d2c>
    3000:	00000003 	andeq	r0, r0, r3
    3004:	03e0040f 	mvneq	r0, #251658240	; 0xf000000
    3008:	e5150000 	ldr	r0, [r5, #-0]
    300c:	16000003 	strne	r0, [r0], -r3
    3010:	00073f12 	andeq	r3, r7, r2, lsl pc
    3014:	fc9d0300 	ldc2	3, cr0, [sp], {0}
    3018:	13000003 	movwne	r0, #3
    301c:	000003fc 	strdeq	r0, [r0], -ip
    3020:	00002c13 	andeq	r2, r0, r3, lsl ip
    3024:	040f0000 	streq	r0, [pc], #-0	; 302c <_start-0x4fd4>
    3028:	000003e5 	andeq	r0, r0, r5, ror #7
    302c:	00029b00 	andeq	r9, r2, r0, lsl #22
    3030:	c0000400 	andgt	r0, r0, r0, lsl #8
    3034:	0400000e 	streq	r0, [r0], #-14
    3038:	00031501 	andeq	r1, r3, r1, lsl #10
    303c:	0a500100 	beq	1403444 <__bss_end__+0x13f716c>
    3040:	049a0000 	ldreq	r0, [sl], #0
    3044:	968c0000 	strls	r0, [ip], r0
    3048:	00ac0000 	adceq	r0, ip, r0
    304c:	0e400000 	cdpeq	0, 4, cr0, cr0, cr0, {0}
    3050:	04020000 	streq	r0, [r2], #-0
    3054:	746e6905 	strbtvc	r6, [lr], #-2309	; 0x905
    3058:	07040300 	streq	r0, [r4, -r0, lsl #6]
    305c:	0000005a 	andeq	r0, r0, sl, asr r0
    3060:	aa060103 	bge	183474 <__bss_end__+0x17719c>
    3064:	03000002 	movweq	r0, #2
    3068:	02c30502 	sbceq	r0, r3, #8388608	; 0x800000
    306c:	04030000 	streq	r0, [r3], #-0
    3070:	00008c05 	andeq	r8, r0, r5, lsl #24
    3074:	05080300 	streq	r0, [r8, #-768]	; 0x300
    3078:	00000087 	andeq	r0, r0, r7, lsl #1
    307c:	a8080103 	stmdage	r8, {r0, r1, r8}
    3080:	03000002 	movweq	r0, #2
    3084:	01890702 	orreq	r0, r9, r2, lsl #14
    3088:	04030000 	streq	r0, [r3], #-0
    308c:	00005507 	andeq	r5, r0, r7, lsl #10
    3090:	07080300 	streq	r0, [r8, -r0, lsl #6]
    3094:	00000050 	andeq	r0, r0, r0, asr r0
    3098:	ca070403 	bgt	1c40ac <__bss_end__+0x1b7dd4>
    309c:	03000001 	movweq	r0, #1
    30a0:	02b10801 	adcseq	r0, r1, #65536	; 0x10000
    30a4:	04040000 	streq	r0, [r4], #-0
    30a8:	0000007f 	andeq	r0, r0, pc, ror r0
    30ac:	00007205 	andeq	r7, r0, r5, lsl #4
    30b0:	03040600 	movweq	r0, #17920	; 0x4600
    30b4:	0000fb14 	andeq	pc, r0, r4, lsl fp	; <UNPREDICTABLE>
    30b8:	0a700700 	beq	1c04cc0 <__bss_end__+0x1bf89e8>
    30bc:	e4800000 	str	r0, [r0], #0
    30c0:	07028082 	streq	r8, [r2, -r2, lsl #1]
    30c4:	000009fb 	strdeq	r0, [r0], -fp
    30c8:	8082e480 	addhi	lr, r2, r0, lsl #9
    30cc:	0aad0702 	beq	feb44cdc <__bss_end__+0xfeb38a04>
    30d0:	e4840000 	str	r0, [r4], #0
    30d4:	07028082 	streq	r8, [r2, -r2, lsl #1]
    30d8:	000009bd 			; <UNDEFINED> instruction: 0x000009bd
    30dc:	8082e488 	addhi	lr, r2, r8, lsl #9
    30e0:	09de0702 	ldmibeq	lr, {r1, r8, r9, sl}^
    30e4:	e48c0000 	str	r0, [ip], #0
    30e8:	07028082 	streq	r8, [r2, -r2, lsl #1]
    30ec:	00000a1f 	andeq	r0, r0, pc, lsl sl
    30f0:	8082e490 	umullhi	lr, r2, r0, r4
    30f4:	0a2d0702 	beq	b44d04 <__bss_end__+0xb38a2c>
    30f8:	e4940000 	ldr	r0, [r4], #0
    30fc:	07028082 	streq	r8, [r2, -r2, lsl #1]
    3100:	00000a0d 	andeq	r0, r0, sp, lsl #20
    3104:	8082e498 	umullhi	lr, r2, r8, r4
    3108:	0a790702 	beq	1e44d18 <__bss_end__+0x1e38a40>
    310c:	e49c0000 	ldr	r0, [ip], #0
    3110:	07028082 	streq	r8, [r2, -r2, lsl #1]
    3114:	00000a88 	andeq	r0, r0, r8, lsl #21
    3118:	8082e4a0 	addhi	lr, r2, r0, lsr #9
    311c:	09cb0702 	stmibeq	fp, {r1, r8, r9, sl}^
    3120:	e4a40000 	strt	r0, [r4], #0
    3124:	00028082 	andeq	r8, r2, r2, lsl #1
    3128:	00020a08 	andeq	r0, r2, r8, lsl #20
    312c:	8c1b0100 	ldfhis	f0, [fp], {-0}
    3130:	68000096 	stmdavs	r0, {r1, r2, r4, r7}
    3134:	01000000 	mrseq	r0, (UNDEF: 0)
    3138:	0001a79c 	muleq	r1, ip, r7
    313c:	09ea0900 	stmibeq	sl!, {r8, fp}^
    3140:	23010000 	movwcs	r0, #4096	; 0x1000
    3144:	0000002c 	andeq	r0, r0, ip, lsr #32
    3148:	000a3b09 	andeq	r3, sl, r9, lsl #22
    314c:	2c240100 	stfcss	f0, [r4], #-0
    3150:	0a000000 	beq	3158 <_start-0x4ea8>
    3154:	00747364 	rsbseq	r7, r4, r4, ror #6
    3158:	01a72701 			; <UNDEFINED> instruction: 0x01a72701
    315c:	0b000000 	bleq	3164 <_start-0x4e9c>
    3160:	00637273 	rsbeq	r7, r3, r3, ror r2
    3164:	01a72801 			; <UNDEFINED> instruction: 0x01a72801
    3168:	6e0c0000 	cdpvs	0, 0, cr0, cr12, cr0, {0}
    316c:	2c290100 	stfcss	f0, [r9], #-0
    3170:	01000000 	mrseq	r0, (UNDEF: 0)
    3174:	96bc0d50 	ssatls	r0, #29, r0, asr #26
    3178:	00240000 	eoreq	r0, r4, r0
    317c:	01630000 	cmneq	r3, r0
    3180:	690e0000 	stmdbvs	lr, {}	; <UNPREDICTABLE>
    3184:	252a0100 	strcs	r0, [sl, #-256]!	; 0x100
    3188:	fa000000 	blx	3190 <_start-0x4e70>
    318c:	0000001b 	andeq	r0, r0, fp, lsl r0
    3190:	00969c0f 	addseq	r9, r6, pc, lsl #24
    3194:	00025d00 	andeq	r5, r2, r0, lsl #26
    3198:	00018000 	andeq	r8, r1, r0
    319c:	51011000 	mrspl	r1, (UNDEF: 1)
    31a0:	10ff0902 	rscsne	r0, pc, r2, lsl #18
    31a4:	0c055001 	stceq	0, cr5, [r5], {1}
    31a8:	2000b21c 	andcs	fp, r0, ip, lsl r2
    31ac:	96a80f00 	strtls	r0, [r8], r0, lsl #30
    31b0:	025d0000 	subseq	r0, sp, #0
    31b4:	019d0000 	orrseq	r0, sp, r0
    31b8:	01100000 	tsteq	r0, r0
    31bc:	ff090251 			; <UNDEFINED> instruction: 0xff090251
    31c0:	05500110 	ldrbeq	r0, [r0, #-272]	; 0x110
    31c4:	00b2200c 	adcseq	r2, r2, ip
    31c8:	ac110020 	ldcge	0, cr0, [r1], {32}
    31cc:	73000096 	movwvc	r0, #150	; 0x96
    31d0:	00000002 	andeq	r0, r0, r2
    31d4:	002c0404 	eoreq	r0, ip, r4, lsl #8
    31d8:	97080000 	strls	r0, [r8, -r0]
    31dc:	0100000a 	tsteq	r0, sl
    31e0:	0096f42e 	addseq	pc, r6, lr, lsr #8
    31e4:	00004400 	andeq	r4, r0, r0, lsl #8
    31e8:	329c0100 	addscc	r0, ip, #0, 2
    31ec:	12000002 	andne	r0, r0, #2
    31f0:	01006370 	tsteq	r0, r0, ror r3
    31f4:	00002c2e 	andeq	r2, r0, lr, lsr #24
    31f8:	001c1900 	andseq	r1, ip, r0, lsl #18
    31fc:	01731300 	cmneq	r3, r0, lsl #6
    3200:	02420000 	subeq	r0, r2, #0
    3204:	03050000 	movweq	r0, #20480	; 0x5000
    3208:	00009ce0 	andeq	r9, r0, r0, ror #25
    320c:	00970411 	addseq	r0, r7, r1, lsl r4
    3210:	00027a00 	andeq	r7, r2, r0, lsl #20
    3214:	97240f00 	strls	r0, [r4, -r0, lsl #30]!
    3218:	02810000 	addeq	r0, r1, #0
    321c:	02280000 	eoreq	r0, r8, #0
    3220:	01100000 	tsteq	r0, r0
    3224:	2f080253 	svccs	0x00080253
    3228:	05520110 	ldrbeq	r0, [r2, #-272]	; 0x110
    322c:	009ce003 	addseq	lr, ip, r3
    3230:	51011000 	mrspl	r1, (UNDEF: 1)
    3234:	9d340305 	ldcls	3, cr0, [r4, #-20]!	; 0xffffffec
    3238:	01100000 	tsteq	r0, r0
    323c:	f8030550 			; <UNDEFINED> instruction: 0xf8030550
    3240:	1000009c 	mulne	r0, ip, r0
    3244:	02047d02 	andeq	r7, r4, #2, 26	; 0x80
    3248:	02100074 	andseq	r0, r0, #116	; 0x74
    324c:	0305007d 	movweq	r0, #20605	; 0x507d
    3250:	00009d54 	andeq	r9, r0, r4, asr sp
    3254:	97281100 	strls	r1, [r8, -r0, lsl #2]!
    3258:	02970000 	addseq	r0, r7, #0
    325c:	14000000 	strne	r0, [r0], #-0
    3260:	00000072 	andeq	r0, r0, r2, ror r0
    3264:	00000242 	andeq	r0, r0, r2, asr #4
    3268:	00006b15 	andeq	r6, r0, r5, lsl fp
    326c:	05001500 	streq	r1, [r0, #-1280]	; 0x500
    3270:	00000232 	andeq	r0, r0, r2, lsr r2
    3274:	0009ea09 	andeq	lr, r9, r9, lsl #20
    3278:	2c230100 	stfcss	f0, [r3], #-0
    327c:	09000000 	stmdbeq	r0, {}	; <UNPREDICTABLE>
    3280:	00000a3b 	andeq	r0, r0, fp, lsr sl
    3284:	002c2401 	eoreq	r2, ip, r1, lsl #8
    3288:	b7160000 	ldrlt	r0, [r6, -r0]
    328c:	02000006 	andeq	r0, r0, #6
    3290:	0002739c 	muleq	r2, ip, r3
    3294:	002c1700 	eoreq	r1, ip, r0, lsl #14
    3298:	2c170000 	ldccs	0, cr0, [r7], {-0}
    329c:	00000000 	andeq	r0, r0, r0
    32a0:	00029c18 	andeq	r9, r2, r8, lsl ip
    32a4:	188a0200 	stmne	sl, {r9}
    32a8:	00000120 	andeq	r0, r0, r0, lsr #2
    32ac:	fe191e02 	cdp2	14, 1, cr1, cr9, cr2, {0}
    32b0:	02000004 	andeq	r0, r0, #4
    32b4:	00002529 	andeq	r2, r0, r9, lsr #10
    32b8:	00029700 	andeq	r9, r2, r0, lsl #14
    32bc:	00791700 	rsbseq	r1, r9, r0, lsl #14
    32c0:	001a0000 	andseq	r0, sl, r0
    32c4:	0001b818 	andeq	fp, r1, r8, lsl r8
    32c8:	00660200 	rsbeq	r0, r6, r0, lsl #4
    32cc:	0000013e 	andeq	r0, r0, lr, lsr r1
    32d0:	10170004 	andsne	r0, r7, r4
    32d4:	01040000 	mrseq	r0, (UNDEF: 4)
    32d8:	00000315 	andeq	r0, r0, r5, lsl r3
    32dc:	000abb01 	andeq	fp, sl, r1, lsl #22
    32e0:	00049a00 	andeq	r9, r4, r0, lsl #20
    32e4:	00988800 	addseq	r8, r8, r0, lsl #16
    32e8:	00004400 	andeq	r4, r0, r0, lsl #8
    32ec:	000f0d00 	andeq	r0, pc, r0, lsl #26
    32f0:	05040200 	streq	r0, [r4, #-512]	; 0x200
    32f4:	00746e69 	rsbseq	r6, r4, r9, ror #28
    32f8:	5a070403 	bpl	1c430c <__bss_end__+0x1b8034>
    32fc:	03000000 	movweq	r0, #0
    3300:	02aa0601 	adceq	r0, sl, #1048576	; 0x100000
    3304:	02030000 	andeq	r0, r3, #0
    3308:	0002c305 	andeq	ip, r2, r5, lsl #6
    330c:	05040300 	streq	r0, [r4, #-768]	; 0x300
    3310:	0000008c 	andeq	r0, r0, ip, lsl #1
    3314:	87050803 	strhi	r0, [r5, -r3, lsl #16]
    3318:	03000000 	movweq	r0, #0
    331c:	02a80801 	adceq	r0, r8, #65536	; 0x10000
    3320:	02030000 	andeq	r0, r3, #0
    3324:	00018907 	andeq	r8, r1, r7, lsl #18
    3328:	07040300 	streq	r0, [r4, -r0, lsl #6]
    332c:	00000055 	andeq	r0, r0, r5, asr r0
    3330:	50070803 	andpl	r0, r7, r3, lsl #16
    3334:	03000000 	movweq	r0, #0
    3338:	01ca0704 	biceq	r0, sl, r4, lsl #14
    333c:	01030000 	mrseq	r0, (UNDEF: 3)
    3340:	0002b108 	andeq	fp, r2, r8, lsl #2
    3344:	7f040400 	svcvc	0x00040400
    3348:	05000000 	streq	r0, [r0, #-0]
    334c:	00000072 	andeq	r0, r0, r2, ror r0
    3350:	000ae906 	andeq	lr, sl, r6, lsl #18
    3354:	88020100 	stmdahi	r2, {r8}
    3358:	44000098 	strmi	r0, [r0], #-152	; 0x98
    335c:	01000000 	mrseq	r0, (UNDEF: 0)
    3360:	0001089c 	muleq	r1, ip, r8
    3364:	63700700 	cmnvs	r0, #0, 14
    3368:	2c020100 	stfcss	f0, [r2], {-0}
    336c:	37000000 	strcc	r0, [r0, -r0]
    3370:	0800001c 	stmdaeq	r0, {r2, r3, r4}
    3374:	00000173 	andeq	r0, r0, r3, ror r1
    3378:	00000118 	andeq	r0, r0, r8, lsl r1
    337c:	9d5c0305 	ldclls	3, cr0, [ip, #-20]	; 0xffffffec
    3380:	98090000 	stmdals	r9, {}	; <UNPREDICTABLE>
    3384:	1d000098 	stcne	0, cr0, [r0, #-608]	; 0xfffffda0
    3388:	0a000001 	beq	3394 <_start-0x4c6c>
    338c:	000098b8 			; <UNDEFINED> instruction: 0x000098b8
    3390:	00000124 	andeq	r0, r0, r4, lsr #2
    3394:	000000fe 	strdeq	r0, [r0], -lr
    3398:	0153010b 	cmpeq	r3, fp, lsl #2
    339c:	52010b32 	andpl	r0, r1, #51200	; 0xc800
    33a0:	9d5c0305 	ldclls	3, cr0, [ip, #-20]	; 0xffffffec
    33a4:	010b0000 	mrseq	r0, (UNDEF: 11)
    33a8:	70030551 	andvc	r0, r3, r1, asr r5
    33ac:	0b00009d 	bleq	3628 <_start-0x49d8>
    33b0:	03055001 	movweq	r5, #20481	; 0x5001
    33b4:	00009cf8 	strdeq	r9, [r0], -r8
    33b8:	047d020b 	ldrbteq	r0, [sp], #-523	; 0x20b
    33bc:	0b007402 	bleq	203cc <__bss_end__+0x140f4>
    33c0:	05007d02 	streq	r7, [r0, #-3330]	; 0xd02
    33c4:	009da003 	addseq	sl, sp, r3
    33c8:	bc090000 	stclt	0, cr0, [r9], {-0}
    33cc:	3a000098 	bcc	3634 <_start-0x49cc>
    33d0:	00000001 	andeq	r0, r0, r1
    33d4:	0000720c 	andeq	r7, r0, ip, lsl #4
    33d8:	00011800 	andeq	r1, r1, r0, lsl #16
    33dc:	006b0d00 	rsbeq	r0, fp, r0, lsl #26
    33e0:	00110000 	andseq	r0, r1, r0
    33e4:	00010805 	andeq	r0, r1, r5, lsl #16
    33e8:	01200e00 	teqeq	r0, r0, lsl #28
    33ec:	1e020000 	cdpne	0, 0, cr0, cr2, cr0, {0}
    33f0:	0004fe0f 	andeq	pc, r4, pc, lsl #28
    33f4:	25290200 	strcs	r0, [r9, #-512]!	; 0x200
    33f8:	3a000000 	bcc	3400 <_start-0x4c00>
    33fc:	10000001 	andne	r0, r0, r1
    3400:	00000079 	andeq	r0, r0, r9, ror r0
    3404:	b80e0011 	stmdalt	lr, {r0, r4}
    3408:	02000001 	andeq	r0, r0, #1
    340c:	013e0066 	teqeq	lr, r6, rrx
    3410:	00040000 	andeq	r0, r4, r0
    3414:	000010ef 	andeq	r1, r0, pc, ror #1
    3418:	03150104 	tsteq	r5, #4, 2
    341c:	fb010000 	blx	43426 <__bss_end__+0x3714e>
    3420:	9a00000a 	bls	3450 <_start-0x4bb0>
    3424:	cc000004 	stcgt	0, cr0, [r0], {4}
    3428:	44000098 	strmi	r0, [r0], #-152	; 0x98
    342c:	b6000000 	strlt	r0, [r0], -r0
    3430:	0200000f 	andeq	r0, r0, #15
    3434:	6e690504 	cdpvs	5, 6, cr0, cr9, cr4, {0}
    3438:	04030074 	streq	r0, [r3], #-116	; 0x74
    343c:	00005a07 	andeq	r5, r0, r7, lsl #20
    3440:	06010300 	streq	r0, [r1], -r0, lsl #6
    3444:	000002aa 	andeq	r0, r0, sl, lsr #5
    3448:	c3050203 	movwgt	r0, #20995	; 0x5203
    344c:	03000002 	movweq	r0, #2
    3450:	008c0504 	addeq	r0, ip, r4, lsl #10
    3454:	08030000 	stmdaeq	r3, {}	; <UNPREDICTABLE>
    3458:	00008705 	andeq	r8, r0, r5, lsl #14
    345c:	08010300 	stmdaeq	r1, {r8, r9}
    3460:	000002a8 	andeq	r0, r0, r8, lsr #5
    3464:	89070203 	stmdbhi	r7, {r0, r1, r9}
    3468:	03000001 	movweq	r0, #1
    346c:	00550704 	subseq	r0, r5, r4, lsl #14
    3470:	08030000 	stmdaeq	r3, {}	; <UNPREDICTABLE>
    3474:	00005007 	andeq	r5, r0, r7
    3478:	07040300 	streq	r0, [r4, -r0, lsl #6]
    347c:	000001ca 	andeq	r0, r0, sl, asr #3
    3480:	b1080103 	tstlt	r8, r3, lsl #2
    3484:	04000002 	streq	r0, [r0], #-2
    3488:	00007f04 	andeq	r7, r0, r4, lsl #30
    348c:	00720500 	rsbseq	r0, r2, r0, lsl #10
    3490:	27060000 	strcs	r0, [r6, -r0]
    3494:	0100000b 	tsteq	r0, fp
    3498:	0098cc02 	addseq	ip, r8, r2, lsl #24
    349c:	00004400 	andeq	r4, r0, r0, lsl #8
    34a0:	089c0100 	ldmeq	ip, {r8}
    34a4:	07000001 	streq	r0, [r0, -r1]
    34a8:	01006370 	tsteq	r0, r0, ror r3
    34ac:	00002c02 	andeq	r2, r0, r2, lsl #24
    34b0:	001c5500 	andseq	r5, ip, r0, lsl #10
    34b4:	01730800 	cmneq	r3, r0, lsl #16
    34b8:	01180000 	tsteq	r8, r0
    34bc:	03050000 	movweq	r0, #20480	; 0x5000
    34c0:	00009dac 	andeq	r9, r0, ip, lsr #27
    34c4:	0098dc09 	addseq	sp, r8, r9, lsl #24
    34c8:	00011d00 	andeq	r1, r1, r0, lsl #26
    34cc:	98fc0a00 	ldmls	ip!, {r9, fp}^
    34d0:	01240000 	teqeq	r4, r0
    34d4:	00fe0000 	rscseq	r0, lr, r0
    34d8:	010b0000 	mrseq	r0, (UNDEF: 11)
    34dc:	0b320153 	bleq	c83a30 <__bss_end__+0xc77758>
    34e0:	03055201 	movweq	r5, #20993	; 0x5201
    34e4:	00009dac 	andeq	r9, r0, ip, lsr #27
    34e8:	0551010b 	ldrbeq	r0, [r1, #-267]	; 0x10b
    34ec:	009dc403 	addseq	ip, sp, r3, lsl #8
    34f0:	50010b00 	andpl	r0, r1, r0, lsl #22
    34f4:	9cf80305 	ldclls	3, cr0, [r8], #20
    34f8:	020b0000 	andeq	r0, fp, #0
    34fc:	7402047d 	strvc	r0, [r2], #-1149	; 0x47d
    3500:	7d020b00 	vstrvc	d0, [r2, #-0]
    3504:	f0030500 			; <UNDEFINED> instruction: 0xf0030500
    3508:	0000009d 	muleq	r0, sp, r0
    350c:	00990009 	addseq	r0, r9, r9
    3510:	00013a00 	andeq	r3, r1, r0, lsl #20
    3514:	720c0000 	andvc	r0, ip, #0
    3518:	18000000 	stmdane	r0, {}	; <UNPREDICTABLE>
    351c:	0d000001 	stceq	0, cr0, [r0, #-4]
    3520:	0000006b 	andeq	r0, r0, fp, rrx
    3524:	08050015 	stmdaeq	r5, {r0, r2, r4}
    3528:	0e000001 	cdpeq	0, 0, cr0, cr0, cr1, {0}
    352c:	00000120 	andeq	r0, r0, r0, lsr #2
    3530:	fe0f1e02 	cdp2	14, 0, cr1, cr15, cr2, {0}
    3534:	02000004 	andeq	r0, r0, #4
    3538:	00002529 	andeq	r2, r0, r9, lsr #10
    353c:	00013a00 	andeq	r3, r1, r0, lsl #20
    3540:	00791000 	rsbseq	r1, r9, r0
    3544:	00110000 	andseq	r0, r1, r0
    3548:	0001b80e 	andeq	fp, r1, lr, lsl #16
    354c:	00660200 	rsbeq	r0, r6, r0, lsl #4
    3550:	0000013e 	andeq	r0, r0, lr, lsr r1
    3554:	11c70004 	bicne	r0, r7, r4
    3558:	01040000 	mrseq	r0, (UNDEF: 4)
    355c:	00000315 	andeq	r0, r0, r5, lsl r3
    3560:	000b4a01 	andeq	r4, fp, r1, lsl #20
    3564:	00049a00 	andeq	r9, r4, r0, lsl #20
    3568:	00991000 	addseq	r1, r9, r0
    356c:	00004400 	andeq	r4, r0, r0, lsl #8
    3570:	00105d00 	andseq	r5, r0, r0, lsl #26
    3574:	05040200 	streq	r0, [r4, #-512]	; 0x200
    3578:	00746e69 	rsbseq	r6, r4, r9, ror #28
    357c:	5a070403 	bpl	1c4590 <__bss_end__+0x1b82b8>
    3580:	03000000 	movweq	r0, #0
    3584:	02aa0601 	adceq	r0, sl, #1048576	; 0x100000
    3588:	02030000 	andeq	r0, r3, #0
    358c:	0002c305 	andeq	ip, r2, r5, lsl #6
    3590:	05040300 	streq	r0, [r4, #-768]	; 0x300
    3594:	0000008c 	andeq	r0, r0, ip, lsl #1
    3598:	87050803 	strhi	r0, [r5, -r3, lsl #16]
    359c:	03000000 	movweq	r0, #0
    35a0:	02a80801 	adceq	r0, r8, #65536	; 0x10000
    35a4:	02030000 	andeq	r0, r3, #0
    35a8:	00018907 	andeq	r8, r1, r7, lsl #18
    35ac:	07040300 	streq	r0, [r4, -r0, lsl #6]
    35b0:	00000055 	andeq	r0, r0, r5, asr r0
    35b4:	50070803 	andpl	r0, r7, r3, lsl #16
    35b8:	03000000 	movweq	r0, #0
    35bc:	01ca0704 	biceq	r0, sl, r4, lsl #14
    35c0:	01030000 	mrseq	r0, (UNDEF: 3)
    35c4:	0002b108 	andeq	fp, r2, r8, lsl #2
    35c8:	7f040400 	svcvc	0x00040400
    35cc:	05000000 	streq	r0, [r0, #-0]
    35d0:	00000072 	andeq	r0, r0, r2, ror r0
    35d4:	000b3d06 	andeq	r3, fp, r6, lsl #26
    35d8:	10020100 	andne	r0, r2, r0, lsl #2
    35dc:	44000099 	strmi	r0, [r0], #-153	; 0x99
    35e0:	01000000 	mrseq	r0, (UNDEF: 0)
    35e4:	0001089c 	muleq	r1, ip, r8
    35e8:	63700700 	cmnvs	r0, #0, 14
    35ec:	2c020100 	stfcss	f0, [r2], {-0}
    35f0:	73000000 	movwvc	r0, #0
    35f4:	0800001c 	stmdaeq	r0, {r2, r3, r4}
    35f8:	00000173 	andeq	r0, r0, r3, ror r1
    35fc:	00000118 	andeq	r0, r0, r8, lsl r1
    3600:	9e000305 	cdpls	3, 0, cr0, cr0, cr5, {0}
    3604:	20090000 	andcs	r0, r9, r0
    3608:	1d000099 	stcne	0, cr0, [r0, #-612]	; 0xfffffd9c
    360c:	0a000001 	beq	3618 <_start-0x49e8>
    3610:	00009940 	andeq	r9, r0, r0, asr #18
    3614:	00000124 	andeq	r0, r0, r4, lsr #2
    3618:	000000fe 	strdeq	r0, [r0], -lr
    361c:	0153010b 	cmpeq	r3, fp, lsl #2
    3620:	52010b32 	andpl	r0, r1, #51200	; 0xc800
    3624:	9e000305 	cdpls	3, 0, cr0, cr0, cr5, {0}
    3628:	010b0000 	mrseq	r0, (UNDEF: 11)
    362c:	10030551 	andne	r0, r3, r1, asr r5
    3630:	0b00009e 	bleq	38b0 <_start-0x4750>
    3634:	03055001 	movweq	r5, #20481	; 0x5001
    3638:	00009cf8 	strdeq	r9, [r0], -r8
    363c:	047d020b 	ldrbteq	r0, [sp], #-523	; 0x20b
    3640:	0b007402 	bleq	20650 <__bss_end__+0x14378>
    3644:	05007d02 	streq	r7, [r0, #-3330]	; 0xd02
    3648:	009e3c03 	addseq	r3, lr, r3, lsl #24
    364c:	44090000 	strmi	r0, [r9], #-0
    3650:	3a000099 	bcc	38bc <_start-0x4744>
    3654:	00000001 	andeq	r0, r0, r1
    3658:	0000720c 	andeq	r7, r0, ip, lsl #4
    365c:	00011800 	andeq	r1, r1, r0, lsl #16
    3660:	006b0d00 	rsbeq	r0, fp, r0, lsl #26
    3664:	000c0000 	andeq	r0, ip, r0
    3668:	00010805 	andeq	r0, r1, r5, lsl #16
    366c:	01200e00 	teqeq	r0, r0, lsl #28
    3670:	1e020000 	cdpne	0, 0, cr0, cr2, cr0, {0}
    3674:	0004fe0f 	andeq	pc, r4, pc, lsl #28
    3678:	25290200 	strcs	r0, [r9, #-512]!	; 0x200
    367c:	3a000000 	bcc	3684 <_start-0x497c>
    3680:	10000001 	andne	r0, r0, r1
    3684:	00000079 	andeq	r0, r0, r9, ror r0
    3688:	b80e0011 	stmdalt	lr, {r0, r4}
    368c:	02000001 	andeq	r0, r0, #1
    3690:	013e0066 	teqeq	lr, r6, rrx
    3694:	00040000 	andeq	r0, r4, r0
    3698:	0000129f 	muleq	r0, pc, r2	; <UNPREDICTABLE>
    369c:	03150104 	tsteq	r5, #4, 2
    36a0:	73010000 	movwvc	r0, #4096	; 0x1000
    36a4:	9a00000b 	bls	36d8 <_start-0x4928>
    36a8:	54000004 	strpl	r0, [r0], #-4
    36ac:	44000099 	strmi	r0, [r0], #-153	; 0x99
    36b0:	01000000 	mrseq	r0, (UNDEF: 0)
    36b4:	02000011 	andeq	r0, r0, #17
    36b8:	6e690504 	cdpvs	5, 6, cr0, cr9, cr4, {0}
    36bc:	04030074 	streq	r0, [r3], #-116	; 0x74
    36c0:	00005a07 	andeq	r5, r0, r7, lsl #20
    36c4:	06010300 	streq	r0, [r1], -r0, lsl #6
    36c8:	000002aa 	andeq	r0, r0, sl, lsr #5
    36cc:	c3050203 	movwgt	r0, #20995	; 0x5203
    36d0:	03000002 	movweq	r0, #2
    36d4:	008c0504 	addeq	r0, ip, r4, lsl #10
    36d8:	08030000 	stmdaeq	r3, {}	; <UNPREDICTABLE>
    36dc:	00008705 	andeq	r8, r0, r5, lsl #14
    36e0:	08010300 	stmdaeq	r1, {r8, r9}
    36e4:	000002a8 	andeq	r0, r0, r8, lsr #5
    36e8:	89070203 	stmdbhi	r7, {r0, r1, r9}
    36ec:	03000001 	movweq	r0, #1
    36f0:	00550704 	subseq	r0, r5, r4, lsl #14
    36f4:	08030000 	stmdaeq	r3, {}	; <UNPREDICTABLE>
    36f8:	00005007 	andeq	r5, r0, r7
    36fc:	07040300 	streq	r0, [r4, -r0, lsl #6]
    3700:	000001ca 	andeq	r0, r0, sl, asr #3
    3704:	b1080103 	tstlt	r8, r3, lsl #2
    3708:	04000002 	streq	r0, [r0], #-2
    370c:	00007f04 	andeq	r7, r0, r4, lsl #30
    3710:	00720500 	rsbseq	r0, r2, r0, lsl #10
    3714:	a5060000 	strge	r0, [r6, #-0]
    3718:	0100000b 	tsteq	r0, fp
    371c:	00995402 	addseq	r5, r9, r2, lsl #8
    3720:	00004400 	andeq	r4, r0, r0, lsl #8
    3724:	089c0100 	ldmeq	ip, {r8}
    3728:	07000001 	streq	r0, [r0, -r1]
    372c:	01006370 	tsteq	r0, r0, ror r3
    3730:	00002c02 	andeq	r2, r0, r2, lsl #24
    3734:	001c9100 	andseq	r9, ip, r0, lsl #2
    3738:	01730800 	cmneq	r3, r0, lsl #16
    373c:	01180000 	tsteq	r8, r0
    3740:	03050000 	movweq	r0, #20480	; 0x5000
    3744:	00009e44 	andeq	r9, r0, r4, asr #28
    3748:	00996409 	addseq	r6, r9, r9, lsl #8
    374c:	00011d00 	andeq	r1, r1, r0, lsl #26
    3750:	99840a00 	stmibls	r4, {r9, fp}
    3754:	01240000 	teqeq	r4, r0
    3758:	00fe0000 	rscseq	r0, lr, r0
    375c:	010b0000 	mrseq	r0, (UNDEF: 11)
    3760:	0b320153 	bleq	c83cb4 <__bss_end__+0xc779dc>
    3764:	03055201 	movweq	r5, #20993	; 0x5201
    3768:	00009e44 	andeq	r9, r0, r4, asr #28
    376c:	0551010b 	ldrbeq	r0, [r1, #-267]	; 0x10b
    3770:	009e6403 	addseq	r6, lr, r3, lsl #8
    3774:	50010b00 	andpl	r0, r1, r0, lsl #22
    3778:	9cf80305 	ldclls	3, cr0, [r8], #20
    377c:	020b0000 	andeq	r0, fp, #0
    3780:	7402047d 	strvc	r0, [r2], #-1149	; 0x47d
    3784:	7d020b00 	vstrvc	d0, [r2, #-0]
    3788:	98030500 	stmdals	r3, {r8, sl}
    378c:	0000009e 	muleq	r0, lr, r0
    3790:	00998809 	addseq	r8, r9, r9, lsl #16
    3794:	00013a00 	andeq	r3, r1, r0, lsl #20
    3798:	720c0000 	andvc	r0, ip, #0
    379c:	18000000 	stmdane	r0, {}	; <UNPREDICTABLE>
    37a0:	0d000001 	stceq	0, cr0, [r0, #-4]
    37a4:	0000006b 	andeq	r0, r0, fp, rrx
    37a8:	0805001c 	stmdaeq	r5, {r2, r3, r4}
    37ac:	0e000001 	cdpeq	0, 0, cr0, cr0, cr1, {0}
    37b0:	00000120 	andeq	r0, r0, r0, lsr #2
    37b4:	fe0f1e02 	cdp2	14, 0, cr1, cr15, cr2, {0}
    37b8:	02000004 	andeq	r0, r0, #4
    37bc:	00002529 	andeq	r2, r0, r9, lsr #10
    37c0:	00013a00 	andeq	r3, r1, r0, lsl #20
    37c4:	00791000 	rsbseq	r1, r9, r0
    37c8:	00110000 	andseq	r0, r1, r0
    37cc:	0001b80e 	andeq	fp, r1, lr, lsl #16
    37d0:	00660200 	rsbeq	r0, r6, r0, lsl #4

Disassembly of section .debug_abbrev:

00000000 <.debug_abbrev>:
       0:	25011101 	strcs	r1, [r1, #-257]	; 0x101
       4:	030b130e 	movweq	r1, #45838	; 0xb30e
       8:	110e1b0e 	tstne	lr, lr, lsl #22
       c:	10061201 	andne	r1, r6, r1, lsl #4
      10:	02000017 	andeq	r0, r0, #23
      14:	0b0b0024 	bleq	2c00ac <__bss_end__+0x2b3dd4>
      18:	08030b3e 	stmdaeq	r3, {r1, r2, r3, r4, r5, r8, r9, fp}
      1c:	16030000 	strne	r0, [r3], -r0
      20:	3a0e0300 	bcc	380c28 <__bss_end__+0x374950>
      24:	490b3b0b 	stmdbmi	fp, {r0, r1, r3, r8, r9, fp, ip, sp}
      28:	04000013 	streq	r0, [r0], #-19
      2c:	0b0b0024 	bleq	2c00c4 <__bss_end__+0x2b3dec>
      30:	0e030b3e 	vmoveq.16	d3[0], r0
      34:	0f050000 	svceq	0x00050000
      38:	000b0b00 	andeq	r0, fp, r0, lsl #22
      3c:	000f0600 	andeq	r0, pc, r0, lsl #12
      40:	13490b0b 	movtne	r0, #39691	; 0x9b0b
      44:	26070000 	strcs	r0, [r7], -r0
      48:	00134900 	andseq	r4, r3, r0, lsl #18
      4c:	01010800 	tsteq	r1, r0, lsl #16
      50:	13011349 	movwne	r1, #4937	; 0x1349
      54:	21090000 	mrscs	r0, (UNDEF: 9)
      58:	2f134900 	svccs	0x00134900
      5c:	0a00000b 	beq	90 <_start-0x7f70>
      60:	0b0b0104 	bleq	2c0478 <__bss_end__+0x2b41a0>
      64:	0b3b0b3a 	bleq	ec2d54 <__bss_end__+0xeb6a7c>
      68:	00001301 	andeq	r1, r0, r1, lsl #6
      6c:	0300280b 	movweq	r2, #2059	; 0x80b
      70:	000d1c0e 	andeq	r1, sp, lr, lsl #24
      74:	01130c00 	tsteq	r3, r0, lsl #24
      78:	0b3a050b 	bleq	e814ac <__bss_end__+0xe751d4>
      7c:	13010b3b 	movwne	r0, #6971	; 0x1b3b
      80:	0d0d0000 	stceq	0, cr0, [sp, #-0]
      84:	3a0e0300 	bcc	380c8c <__bss_end__+0x3749b4>
      88:	490b3b0b 	stmdbmi	fp, {r0, r1, r3, r8, r9, fp, ip, sp}
      8c:	000b3813 	andeq	r3, fp, r3, lsl r8
      90:	000d0e00 	andeq	r0, sp, r0, lsl #28
      94:	0b3a0e03 	bleq	e838a8 <__bss_end__+0xe775d0>
      98:	13490b3b 	movtne	r0, #39739	; 0x9b3b
      9c:	00000538 	andeq	r0, r0, r8, lsr r5
      a0:	03000d0f 	movweq	r0, #3343	; 0xd0f
      a4:	3b0b3a0e 	blcc	2ce8e4 <__bss_end__+0x2c260c>
      a8:	0b13490b 	bleq	4d24dc <__bss_end__+0x4c6204>
      ac:	0c0b0d0b 	stceq	13, cr0, [fp], {11}
      b0:	0005380b 	andeq	r3, r5, fp, lsl #16
      b4:	00211000 	eoreq	r1, r1, r0
      b8:	052f1349 	streq	r1, [pc, #-841]!	; fffffd77 <__bss_end__+0xffff3a9f>
      bc:	35110000 	ldrcc	r0, [r1, #-0]
      c0:	00134900 	andseq	r4, r3, r0, lsl #18
      c4:	012e1200 	teqeq	lr, r0, lsl #4
      c8:	0b3a0e03 	bleq	e838dc <__bss_end__+0xe77604>
      cc:	19270b3b 	stmdbne	r7!, {r0, r1, r3, r4, r5, r8, r9, fp}
      d0:	0b201349 	bleq	804dfc <__bss_end__+0x7f8b24>
      d4:	00001301 	andeq	r1, r0, r1, lsl #6
      d8:	03000513 	movweq	r0, #1299	; 0x513
      dc:	3b0b3a08 	blcc	2ce904 <__bss_end__+0x2c262c>
      e0:	0013490b 	andseq	r4, r3, fp, lsl #18
      e4:	012e1400 	teqeq	lr, r0, lsl #8
      e8:	0b3a0e03 	bleq	e838fc <__bss_end__+0xe77624>
      ec:	19270b3b 	stmdbne	r7!, {r0, r1, r3, r4, r5, r8, r9, fp}
      f0:	13010b20 	movwne	r0, #6944	; 0x1b20
      f4:	34150000 	ldrcc	r0, [r5], #-0
      f8:	3a0e0300 	bcc	380d00 <__bss_end__+0x374a28>
      fc:	490b3b0b 	stmdbmi	fp, {r0, r1, r3, r8, r9, fp, ip, sp}
     100:	16000013 			; <UNDEFINED> instruction: 0x16000013
     104:	193f012e 	ldmdbne	pc!, {r1, r2, r3, r5, r8}	; <UNPREDICTABLE>
     108:	0b3a0e03 	bleq	e8391c <__bss_end__+0xe77644>
     10c:	19270b3b 	stmdbne	r7!, {r0, r1, r3, r4, r5, r8, r9, fp}
     110:	01111349 	tsteq	r1, r9, asr #6
     114:	18400612 	stmdane	r0, {r1, r4, r9, sl}^
     118:	01194297 			; <UNDEFINED> instruction: 0x01194297
     11c:	17000013 	smladne	r0, r3, r0, r0
     120:	08030005 	stmdaeq	r3, {r0, r2}
     124:	0b3b0b3a 	bleq	ec2e14 <__bss_end__+0xeb6b3c>
     128:	17021349 	strne	r1, [r2, -r9, asr #6]
     12c:	34180000 	ldrcc	r0, [r8], #-0
     130:	490e0300 	stmdbmi	lr, {r8, r9}
     134:	02193413 	andseq	r3, r9, #318767104	; 0x13000000
     138:	19000018 	stmdbne	r0, {r3, r4}
     13c:	0e030034 	mcreq	0, 0, r0, cr3, cr4, {1}
     140:	0b3b0b3a 	bleq	ec2e30 <__bss_end__+0xeb6b58>
     144:	17021349 	strne	r1, [r2, -r9, asr #6]
     148:	0b1a0000 	bleq	680150 <__bss_end__+0x673e78>
     14c:	12011101 	andne	r1, r1, #1073741824	; 0x40000000
     150:	00130106 	andseq	r0, r3, r6, lsl #2
     154:	82891b00 	addhi	r1, r9, #0, 22
     158:	01110001 	tsteq	r1, r1
     15c:	00001331 	andeq	r1, r0, r1, lsr r3
     160:	0182891c 	orreq	r8, r2, ip, lsl r9
     164:	31011101 	tstcc	r1, r1, lsl #2
     168:	00130113 	andseq	r0, r3, r3, lsl r1
     16c:	828a1d00 	addhi	r1, sl, #0, 26
     170:	18020001 	stmdane	r2, {r0}
     174:	00184291 	mulseq	r8, r1, r2
     178:	82891e00 	addhi	r1, r9, #0, 28
     17c:	01110101 	tsteq	r1, r1, lsl #2
     180:	00001331 	andeq	r1, r0, r1, lsr r3
     184:	3f012e1f 	svccc	0x00012e1f
     188:	3a0e0319 	bcc	380df4 <__bss_end__+0x374b1c>
     18c:	270b3b0b 	strcs	r3, [fp, -fp, lsl #22]
     190:	12011119 	andne	r1, r1, #1073741830	; 0x40000006
     194:	97184006 	ldrls	r4, [r8, -r6]
     198:	13011942 	movwne	r1, #6466	; 0x1942
     19c:	05200000 	streq	r0, [r0, #-0]!
     1a0:	3a0e0300 	bcc	380da8 <__bss_end__+0x374ad0>
     1a4:	490b3b0b 	stmdbmi	fp, {r0, r1, r3, r8, r9, fp, ip, sp}
     1a8:	00170213 	andseq	r0, r7, r3, lsl r2
     1ac:	00342100 	eorseq	r2, r4, r0, lsl #2
     1b0:	0b3a0803 	bleq	e821c4 <__bss_end__+0xe75eec>
     1b4:	13490b3b 	movtne	r0, #39739	; 0x9b3b
     1b8:	00000b1c 	andeq	r0, r0, ip, lsl fp
     1bc:	03003422 	movweq	r3, #1058	; 0x422
     1c0:	3b0b3a0e 	blcc	2cea00 <__bss_end__+0x2c2728>
     1c4:	0213490b 	andseq	r4, r3, #180224	; 0x2c000
     1c8:	23000018 	movwcs	r0, #24
     1cc:	1331011d 	teqne	r1, #1073741831	; 0x40000007
     1d0:	06120111 			; <UNDEFINED> instruction: 0x06120111
     1d4:	0b590b58 	bleq	1642f3c <__bss_end__+0x1636c64>
     1d8:	00001301 	andeq	r1, r0, r1, lsl #6
     1dc:	31000524 	tstcc	r0, r4, lsr #10
     1e0:	00170213 	andseq	r0, r7, r3, lsl r2
     1e4:	00052500 	andeq	r2, r5, r0, lsl #10
     1e8:	18021331 	stmdane	r2, {r0, r4, r5, r8, r9, ip}
     1ec:	1d260000 	stcne	0, cr0, [r6, #-0]
     1f0:	11133101 	tstne	r3, r1, lsl #2
     1f4:	58061201 	stmdapl	r6, {r0, r9, ip}
     1f8:	000b590b 	andeq	r5, fp, fp, lsl #18
     1fc:	010b2700 	tsteq	fp, r0, lsl #14
     200:	06120111 			; <UNDEFINED> instruction: 0x06120111
     204:	34280000 	strtcc	r0, [r8], #-0
     208:	3a080300 	bcc	200e10 <__bss_end__+0x1f4b38>
     20c:	490b3b0b 	stmdbmi	fp, {r0, r1, r3, r8, r9, fp, ip, sp}
     210:	29000013 	stmdbcs	r0, {r0, r1, r4}
     214:	0e030034 	mcreq	0, 0, r0, cr3, cr4, {1}
     218:	19341349 	ldmdbne	r4!, {r0, r3, r6, r8, r9, ip}
     21c:	00000e1c 	andeq	r0, r0, ip, lsl lr
     220:	03012e2a 	movweq	r2, #7722	; 0x1e2a
     224:	3b0b3a0e 	blcc	2cea64 <__bss_end__+0x2c278c>
     228:	1119270b 	tstne	r9, fp, lsl #14
     22c:	40061201 	andmi	r1, r6, r1, lsl #4
     230:	19429718 	stmdbne	r2, {r3, r4, r8, r9, sl, ip, pc}^
     234:	00001301 	andeq	r1, r0, r1, lsl #6
     238:	31011d2b 	tstcc	r1, fp, lsr #26
     23c:	55015213 	strpl	r5, [r1, #-531]	; 0x213
     240:	590b5817 	stmdbpl	fp, {r0, r1, r2, r4, fp, ip, lr}
     244:	0013010b 	andseq	r0, r3, fp, lsl #2
     248:	010b2c00 	tsteq	fp, r0, lsl #24
     24c:	00001755 	andeq	r1, r0, r5, asr r7
     250:	3100342d 	tstcc	r0, sp, lsr #8
     254:	00170213 	andseq	r0, r7, r3, lsl r2
     258:	00342e00 	eorseq	r2, r4, r0, lsl #28
     25c:	18021331 	stmdane	r2, {r0, r4, r5, r8, r9, ip}
     260:	0b2f0000 	bleq	bc0268 <__bss_end__+0xbb3f90>
     264:	00130101 	andseq	r0, r3, r1, lsl #2
     268:	010b3000 	mrseq	r3, (UNDEF: 11)
     26c:	05310000 	ldreq	r0, [r1, #-0]!
     270:	1c133100 	ldfnes	f3, [r3], {-0}
     274:	3200000b 	andcc	r0, r0, #11
     278:	13310034 	teqne	r1, #52	; 0x34
     27c:	00000b1c 	andeq	r0, r0, ip, lsl fp
     280:	03000533 	movweq	r0, #1331	; 0x533
     284:	3b0b3a0e 	blcc	2ceac4 <__bss_end__+0x2c27ec>
     288:	0013490b 	andseq	r4, r3, fp, lsl #18
     28c:	00343400 	eorseq	r3, r4, r0, lsl #8
     290:	0b3a0e03 	bleq	e83aa4 <__bss_end__+0xe777cc>
     294:	13490b3b 	movtne	r0, #39739	; 0x9b3b
     298:	0000061c 	andeq	r0, r0, ip, lsl r6
     29c:	03003435 	movweq	r3, #1077	; 0x435
     2a0:	3b0b3a0e 	blcc	2ceae0 <__bss_end__+0x2c2808>
     2a4:	3f13490b 	svccc	0x0013490b
     2a8:	00180219 	andseq	r0, r8, r9, lsl r2
     2ac:	002e3600 	eoreq	r3, lr, r0, lsl #12
     2b0:	0e03193f 	mcreq	9, 0, r1, cr3, cr15, {1}
     2b4:	0b3b0b3a 	bleq	ec2fa4 <__bss_end__+0xeb6ccc>
     2b8:	193c1927 	ldmdbne	ip!, {r0, r1, r2, r5, r8, fp, ip}
     2bc:	2e370000 	cdpcs	0, 3, cr0, cr7, cr0, {0}
     2c0:	03193f01 	tsteq	r9, #1, 30
     2c4:	3b0b3a0e 	blcc	2ceb04 <__bss_end__+0x2c282c>
     2c8:	4919270b 	ldmdbmi	r9, {r0, r1, r3, r8, r9, sl, sp}
     2cc:	01193c13 	tsteq	r9, r3, lsl ip
     2d0:	38000013 	stmdacc	r0, {r0, r1, r4}
     2d4:	13490005 	movtne	r0, #36869	; 0x9005
     2d8:	18390000 	ldmdane	r9!, {}	; <UNPREDICTABLE>
     2dc:	3a000000 	bcc	2e4 <_start-0x7d1c>
     2e0:	193f012e 	ldmdbne	pc!, {r1, r2, r3, r5, r8}	; <UNPREDICTABLE>
     2e4:	0b3a0e03 	bleq	e83af8 <__bss_end__+0xe77820>
     2e8:	19270b3b 	stmdbne	r7!, {r0, r1, r3, r4, r5, r8, r9, fp}
     2ec:	1301193c 	movwne	r1, #6460	; 0x193c
     2f0:	01000000 	mrseq	r0, (UNDEF: 0)
     2f4:	0e250111 	mcreq	1, 1, r0, cr5, cr1, {0}
     2f8:	0e030b13 	vmoveq.32	d3[0], r0
     2fc:	01110e1b 	tsteq	r1, fp, lsl lr
     300:	17100612 			; <UNDEFINED> instruction: 0x17100612
     304:	24020000 	strcs	r0, [r2], #-0
     308:	3e0b0b00 	vmlacc.f64	d0, d11, d0
     30c:	000e030b 	andeq	r0, lr, fp, lsl #6
     310:	00240300 	eoreq	r0, r4, r0, lsl #6
     314:	0b3e0b0b 	bleq	f82f48 <__bss_end__+0xf76c70>
     318:	00000803 	andeq	r0, r0, r3, lsl #16
     31c:	0b000f04 	bleq	3f34 <_start-0x40cc>
     320:	0500000b 	streq	r0, [r0, #-11]
     324:	0b0b000f 	bleq	2c0368 <__bss_end__+0x2b4090>
     328:	00001349 	andeq	r1, r0, r9, asr #6
     32c:	03001606 	movweq	r1, #1542	; 0x606
     330:	3b0b3a0e 	blcc	2ceb70 <__bss_end__+0x2c2898>
     334:	0013490b 	andseq	r4, r3, fp, lsl #18
     338:	012e0700 	teqeq	lr, r0, lsl #14
     33c:	0e03193f 	mcreq	9, 0, r1, cr3, cr15, {1}
     340:	0b3b0b3a 	bleq	ec3030 <__bss_end__+0xeb6d58>
     344:	13491927 	movtne	r1, #39207	; 0x9927
     348:	06120111 			; <UNDEFINED> instruction: 0x06120111
     34c:	42971840 	addsmi	r1, r7, #64, 16	; 0x400000
     350:	08000019 	stmdaeq	r0, {r0, r3, r4}
     354:	08030005 	stmdaeq	r3, {r0, r2}
     358:	0b3b0b3a 	bleq	ec3048 <__bss_end__+0xeb6d70>
     35c:	18021349 	stmdane	r2, {r0, r3, r6, r8, r9, ip}
     360:	05090000 	streq	r0, [r9, #-0]
     364:	3a080300 	bcc	200f6c <__bss_end__+0x1f4c94>
     368:	490b3b0b 	stmdbmi	fp, {r0, r1, r3, r8, r9, fp, ip, sp}
     36c:	00170213 	andseq	r0, r7, r3, lsl r2
     370:	00340a00 	eorseq	r0, r4, r0, lsl #20
     374:	0b3a0803 	bleq	e82388 <__bss_end__+0xe760b0>
     378:	13490b3b 	movtne	r0, #39739	; 0x9b3b
     37c:	00001702 	andeq	r1, r0, r2, lsl #14
     380:	0300340b 	movweq	r3, #1035	; 0x40b
     384:	3b0b3a08 	blcc	2cebac <__bss_end__+0x2c28d4>
     388:	0213490b 	andseq	r4, r3, #180224	; 0x2c000
     38c:	00000018 	andeq	r0, r0, r8, lsl r0
     390:	25011101 	strcs	r1, [r1, #-257]	; 0x101
     394:	030b130e 	movweq	r1, #45838	; 0xb30e
     398:	110e1b0e 	tstne	lr, lr, lsl #22
     39c:	10061201 	andne	r1, r6, r1, lsl #4
     3a0:	02000017 	andeq	r0, r0, #23
     3a4:	0e030016 	mcreq	0, 0, r0, cr3, cr6, {0}
     3a8:	0b3b0b3a 	bleq	ec3098 <__bss_end__+0xeb6dc0>
     3ac:	00001349 	andeq	r1, r0, r9, asr #6
     3b0:	03011303 	movweq	r1, #4867	; 0x1303
     3b4:	3a0b0b0e 	bcc	2c2ff4 <__bss_end__+0x2b6d1c>
     3b8:	010b3b0b 	tsteq	fp, fp, lsl #22
     3bc:	04000013 	streq	r0, [r0], #-19
     3c0:	0e03000d 	cdpeq	0, 0, cr0, cr3, cr13, {0}
     3c4:	0b381349 	bleq	e050f0 <__bss_end__+0xdf8e18>
     3c8:	00001934 	andeq	r1, r0, r4, lsr r9
     3cc:	0b000f05 	bleq	3fe8 <_start-0x4018>
     3d0:	0600000b 	streq	r0, [r0], -fp
     3d4:	0b0b0024 	bleq	2c046c <__bss_end__+0x2b4194>
     3d8:	08030b3e 	stmdaeq	r3, {r1, r2, r3, r4, r5, r8, r9, fp}
     3dc:	24070000 	strcs	r0, [r7], #-0
     3e0:	3e0b0b00 	vmlacc.f64	d0, d11, d0
     3e4:	000e030b 	andeq	r0, lr, fp, lsl #6
     3e8:	000f0800 	andeq	r0, pc, r0, lsl #16
     3ec:	13490b0b 	movtne	r0, #39691	; 0x9b0b
     3f0:	26090000 	strcs	r0, [r9], -r0
     3f4:	00134900 	andseq	r4, r3, r0, lsl #18
     3f8:	012e0a00 	teqeq	lr, r0, lsl #20
     3fc:	0e03193f 	mcreq	9, 0, r1, cr3, cr15, {1}
     400:	0b3b0b3a 	bleq	ec30f0 <__bss_end__+0xeb6e18>
     404:	13491927 	movtne	r1, #39207	; 0x9927
     408:	06120111 			; <UNDEFINED> instruction: 0x06120111
     40c:	42971840 	addsmi	r1, r7, #64, 16	; 0x400000
     410:	00130119 	andseq	r0, r3, r9, lsl r1
     414:	00050b00 	andeq	r0, r5, r0, lsl #22
     418:	0b3a0803 	bleq	e8242c <__bss_end__+0xe76154>
     41c:	13490b3b 	movtne	r0, #39739	; 0x9b3b
     420:	00001802 	andeq	r1, r0, r2, lsl #16
     424:	0000180c 	andeq	r1, r0, ip, lsl #16
     428:	00340d00 	eorseq	r0, r4, r0, lsl #26
     42c:	0b3a0803 	bleq	e82440 <__bss_end__+0xe76168>
     430:	13490b3b 	movtne	r0, #39739	; 0x9b3b
     434:	00001802 	andeq	r1, r0, r2, lsl #16
     438:	0300340e 	movweq	r3, #1038	; 0x40e
     43c:	3b0b3a0e 	blcc	2cec7c <__bss_end__+0x2c29a4>
     440:	0213490b 	andseq	r4, r3, #180224	; 0x2c000
     444:	0f000018 	svceq	0x00000018
     448:	08030034 	stmdaeq	r3, {r2, r4, r5}
     44c:	0b3b0b3a 	bleq	ec313c <__bss_end__+0xeb6e64>
     450:	17021349 	strne	r1, [r2, -r9, asr #6]
     454:	89100000 	ldmdbhi	r0, {}	; <UNPREDICTABLE>
     458:	11010182 	smlabbne	r1, r2, r1, r0
     45c:	01133101 	tsteq	r3, r1, lsl #2
     460:	11000013 	tstne	r0, r3, lsl r0
     464:	0001828a 	andeq	r8, r1, sl, lsl #5
     468:	42911802 	addsmi	r1, r1, #131072	; 0x20000
     46c:	12000018 	andne	r0, r0, #24
     470:	01018289 	smlabbeq	r1, r9, r2, r8
     474:	00000111 	andeq	r0, r0, r1, lsl r1
     478:	49010113 	stmdbmi	r1, {r0, r1, r4, r8}
     47c:	00130113 	andseq	r0, r3, r3, lsl r1
     480:	00211400 	eoreq	r1, r1, r0, lsl #8
     484:	052f1349 	streq	r1, [pc, #-841]!	; 143 <_start-0x7ebd>
     488:	15150000 	ldrne	r0, [r5, #-0]
     48c:	49192701 	ldmdbmi	r9, {r0, r8, r9, sl, sp}
     490:	00130113 	andseq	r0, r3, r3, lsl r1
     494:	00051600 	andeq	r1, r5, r0, lsl #12
     498:	00001349 	andeq	r1, r0, r9, asr #6
     49c:	03003417 	movweq	r3, #1047	; 0x417
     4a0:	3b0b3a0e 	blcc	2cece0 <__bss_end__+0x2c2a08>
     4a4:	3f13490b 	svccc	0x0013490b
     4a8:	00193c19 	andseq	r3, r9, r9, lsl ip
     4ac:	012e1800 	teqeq	lr, r0, lsl #16
     4b0:	0e03193f 	mcreq	9, 0, r1, cr3, cr15, {1}
     4b4:	0b3b0b3a 	bleq	ec31a4 <__bss_end__+0xeb6ecc>
     4b8:	13491927 	movtne	r1, #39207	; 0x9927
     4bc:	0000193c 	andeq	r1, r0, ip, lsr r9
     4c0:	01110100 	tsteq	r1, r0, lsl #2
     4c4:	0b130e25 	bleq	4c3d60 <__bss_end__+0x4b7a88>
     4c8:	0e1b0e03 	cdpeq	14, 1, cr0, cr11, cr3, {0}
     4cc:	06120111 			; <UNDEFINED> instruction: 0x06120111
     4d0:	00001710 	andeq	r1, r0, r0, lsl r7
     4d4:	0b002402 	bleq	94e4 <gpio_event_clear+0x4>
     4d8:	030b3e0b 	movweq	r3, #48651	; 0xbe0b
     4dc:	03000008 	movweq	r0, #8
     4e0:	0b0b0024 	bleq	2c0578 <__bss_end__+0x2b42a0>
     4e4:	0e030b3e 	vmoveq.16	d3[0], r0
     4e8:	2e040000 	cdpcs	0, 0, cr0, cr4, cr0, {0}
     4ec:	3a0e0301 	bcc	3810f8 <__bss_end__+0x374e20>
     4f0:	270b3b0b 	strcs	r3, [fp, -fp, lsl #22]
     4f4:	11134919 	tstne	r3, r9, lsl r9
     4f8:	40061201 	andmi	r1, r6, r1, lsl #4
     4fc:	19429718 	stmdbne	r2, {r3, r4, r8, r9, sl, ip, pc}^
     500:	00001301 	andeq	r1, r0, r1, lsl #6
     504:	03000505 	movweq	r0, #1285	; 0x505
     508:	3b0b3a08 	blcc	2ced30 <__bss_end__+0x2c2a58>
     50c:	0213490b 	andseq	r4, r3, #180224	; 0x2c000
     510:	06000017 			; <UNDEFINED> instruction: 0x06000017
     514:	01018289 	smlabbeq	r1, r9, r2, r8
     518:	13310111 	teqne	r1, #1073741828	; 0x40000004
     51c:	8a070000 	bhi	1c0524 <__bss_end__+0x1b424c>
     520:	02000182 	andeq	r0, r0, #-2147483616	; 0x80000020
     524:	18429118 	stmdane	r2, {r3, r4, r8, ip, pc}^
     528:	2e080000 	cdpcs	0, 0, cr0, cr8, cr0, {0}
     52c:	03193f00 	tsteq	r9, #0, 30
     530:	3b0b3a0e 	blcc	2ced70 <__bss_end__+0x2c2a98>
     534:	1119270b 	tstne	r9, fp, lsl #14
     538:	40061201 	andmi	r1, r6, r1, lsl #4
     53c:	19429718 	stmdbne	r2, {r3, r4, r8, r9, sl, ip, pc}^
     540:	2e090000 	cdpcs	0, 0, cr0, cr9, cr0, {0}
     544:	03193f01 	tsteq	r9, #1, 30
     548:	3b0b3a0e 	blcc	2ced88 <__bss_end__+0x2c2ab0>
     54c:	1119270b 	tstne	r9, fp, lsl #14
     550:	40061201 	andmi	r1, r6, r1, lsl #4
     554:	19429718 	stmdbne	r2, {r3, r4, r8, r9, sl, ip, pc}^
     558:	00001301 	andeq	r1, r0, r1, lsl #6
     55c:	0300050a 	movweq	r0, #1290	; 0x50a
     560:	3b0b3a08 	blcc	2ced88 <__bss_end__+0x2c2ab0>
     564:	0213490b 	andseq	r4, r3, #180224	; 0x2c000
     568:	0b000018 	bleq	5d0 <_start-0x7a30>
     56c:	19270115 	stmdbne	r7!, {r0, r2, r4, r8}
     570:	13011349 	movwne	r1, #4937	; 0x1349
     574:	050c0000 	streq	r0, [ip, #-0]
     578:	00134900 	andseq	r4, r3, r0, lsl #18
     57c:	000f0d00 	andeq	r0, pc, r0, lsl #26
     580:	13490b0b 	movtne	r0, #39691	; 0x9b0b
     584:	340e0000 	strcc	r0, [lr], #-0
     588:	3a0e0300 	bcc	381190 <__bss_end__+0x374eb8>
     58c:	490b3b0b 	stmdbmi	fp, {r0, r1, r3, r8, r9, fp, ip, sp}
     590:	02193f13 	andseq	r3, r9, #19, 30	; 0x4c
     594:	0f000018 	svceq	0x00000018
     598:	193f012e 	ldmdbne	pc!, {r1, r2, r3, r5, r8}	; <UNPREDICTABLE>
     59c:	0b3a0e03 	bleq	e83db0 <__bss_end__+0xe77ad8>
     5a0:	19270b3b 	stmdbne	r7!, {r0, r1, r3, r4, r5, r8, r9, fp}
     5a4:	0000193c 	andeq	r1, r0, ip, lsr r9
     5a8:	01110100 	tsteq	r1, r0, lsl #2
     5ac:	0b130e25 	bleq	4c3e48 <__bss_end__+0x4b7b70>
     5b0:	0e1b0e03 	cdpeq	14, 1, cr0, cr11, cr3, {0}
     5b4:	06120111 			; <UNDEFINED> instruction: 0x06120111
     5b8:	00001710 	andeq	r1, r0, r0, lsl r7
     5bc:	0b002402 	bleq	95cc <uart_init+0x94>
     5c0:	030b3e0b 	movweq	r3, #48651	; 0xbe0b
     5c4:	03000008 	movweq	r0, #8
     5c8:	0b0b0024 	bleq	2c0660 <__bss_end__+0x2b4388>
     5cc:	0e030b3e 	vmoveq.16	d3[0], r0
     5d0:	0f040000 	svceq	0x00040000
     5d4:	490b0b00 	stmdbmi	fp, {r8, r9, fp}
     5d8:	05000013 	streq	r0, [r0, #-19]
     5dc:	13490026 	movtne	r0, #36902	; 0x9026
     5e0:	2e060000 	cdpcs	0, 0, cr0, cr6, cr0, {0}
     5e4:	03193f01 	tsteq	r9, #1, 30
     5e8:	3b0b3a0e 	blcc	2cee28 <__bss_end__+0x2c2b50>
     5ec:	4919270b 	ldmdbmi	r9, {r0, r1, r3, r8, r9, sl, sp}
     5f0:	12011113 	andne	r1, r1, #-1073741820	; 0xc0000004
     5f4:	96184006 	ldrls	r4, [r8], -r6
     5f8:	13011942 	movwne	r1, #6466	; 0x1942
     5fc:	05070000 	streq	r0, [r7, #-0]
     600:	3a080300 	bcc	201208 <__bss_end__+0x1f4f30>
     604:	490b3b0b 	stmdbmi	fp, {r0, r1, r3, r8, r9, fp, ip, sp}
     608:	00170213 	andseq	r0, r7, r3, lsl r2
     60c:	01150800 	tsteq	r5, r0, lsl #16
     610:	13491927 	movtne	r1, #39207	; 0x9927
     614:	00001301 	andeq	r1, r0, r1, lsl #6
     618:	49000509 	stmdbmi	r0, {r0, r3, r8, sl}
     61c:	0a000013 	beq	670 <_start-0x7990>
     620:	0e030034 	mcreq	0, 0, r0, cr3, cr4, {1}
     624:	0b3b0b3a 	bleq	ec3314 <__bss_end__+0xeb703c>
     628:	193f1349 	ldmdbne	pc!, {r0, r3, r6, r8, r9, ip}	; <UNPREDICTABLE>
     62c:	0000193c 	andeq	r1, r0, ip, lsr r9
     630:	0300340b 	movweq	r3, #1035	; 0x40b
     634:	3b0b3a0e 	blcc	2cee74 <__bss_end__+0x2c2b9c>
     638:	3f13490b 	svccc	0x0013490b
     63c:	00180219 	andseq	r0, r8, r9, lsl r2
     640:	11010000 	mrsne	r0, (UNDEF: 1)
     644:	130e2501 	movwne	r2, #58625	; 0xe501
     648:	1b0e030b 	blne	38127c <__bss_end__+0x374fa4>
     64c:	1201110e 	andne	r1, r1, #-2147483645	; 0x80000003
     650:	00171006 	andseq	r1, r7, r6
     654:	00240200 	eoreq	r0, r4, r0, lsl #4
     658:	0b3e0b0b 	bleq	f8328c <__bss_end__+0xf76fb4>
     65c:	00000803 	andeq	r0, r0, r3, lsl #16
     660:	0b002403 	bleq	9674 <uart_getc_async+0x8>
     664:	030b3e0b 	movweq	r3, #48651	; 0xbe0b
     668:	0400000e 	streq	r0, [r0], #-14
     66c:	0b0b000f 	bleq	2c06b0 <__bss_end__+0x2b43d8>
     670:	0f050000 	svceq	0x00050000
     674:	490b0b00 	stmdbmi	fp, {r8, r9, fp}
     678:	06000013 			; <UNDEFINED> instruction: 0x06000013
     67c:	13490026 	movtne	r0, #36902	; 0x9026
     680:	16070000 	strne	r0, [r7], -r0
     684:	3a0e0300 	bcc	38128c <__bss_end__+0x374fb4>
     688:	490b3b0b 	stmdbmi	fp, {r0, r1, r3, r8, r9, fp, ip, sp}
     68c:	08000013 	stmdaeq	r0, {r0, r1, r4}
     690:	0e030113 	mcreq	1, 0, r0, cr3, cr3, {0}
     694:	0b3a0b0b 	bleq	e832c8 <__bss_end__+0xe76ff0>
     698:	13010b3b 	movwne	r0, #6971	; 0x1b3b
     69c:	0d090000 	stceq	0, cr0, [r9, #-0]
     6a0:	490e0300 	stmdbmi	lr, {r8, r9}
     6a4:	340b3813 	strcc	r3, [fp], #-2067	; 0x813
     6a8:	0a000019 	beq	714 <_start-0x78ec>
     6ac:	0e03012e 	adfeqsp	f0, f3, #0.5
     6b0:	0b3b0b3a 	bleq	ec33a0 <__bss_end__+0xeb70c8>
     6b4:	13491927 	movtne	r1, #39207	; 0x9927
     6b8:	06120111 			; <UNDEFINED> instruction: 0x06120111
     6bc:	42971840 	addsmi	r1, r7, #64, 16	; 0x400000
     6c0:	00130119 	andseq	r0, r3, r9, lsl r1
     6c4:	00050b00 	andeq	r0, r5, r0, lsl #22
     6c8:	0b3a0803 	bleq	e826dc <__bss_end__+0xe76404>
     6cc:	13490b3b 	movtne	r0, #39739	; 0x9b3b
     6d0:	00001702 	andeq	r1, r0, r2, lsl #14
     6d4:	03012e0c 	movweq	r2, #7692	; 0x1e0c
     6d8:	3b0b3a08 	blcc	2cef00 <__bss_end__+0x2c2c28>
     6dc:	4919270b 	ldmdbmi	r9, {r0, r1, r3, r8, r9, sl, sp}
     6e0:	12011113 	andne	r1, r1, #-1073741820	; 0xc0000004
     6e4:	97184006 	ldrls	r4, [r8, -r6]
     6e8:	13011942 	movwne	r1, #6466	; 0x1942
     6ec:	050d0000 	streq	r0, [sp, #-0]
     6f0:	3a0e0300 	bcc	3812f8 <__bss_end__+0x375020>
     6f4:	490b3b0b 	stmdbmi	fp, {r0, r1, r3, r8, r9, fp, ip, sp}
     6f8:	00170213 	andseq	r0, r7, r3, lsl r2
     6fc:	00050e00 	andeq	r0, r5, r0, lsl #28
     700:	0b3a0e03 	bleq	e83f14 <__bss_end__+0xe77c3c>
     704:	13490b3b 	movtne	r0, #39739	; 0x9b3b
     708:	00001802 	andeq	r1, r0, r2, lsl #16
     70c:	0300340f 	movweq	r3, #1039	; 0x40f
     710:	3b0b3a08 	blcc	2cef38 <__bss_end__+0x2c2c60>
     714:	0213490b 	andseq	r4, r3, #180224	; 0x2c000
     718:	10000018 	andne	r0, r0, r8, lsl r0
     71c:	08030034 	stmdaeq	r3, {r2, r4, r5}
     720:	0b3b0b3a 	bleq	ec3410 <__bss_end__+0xeb7138>
     724:	17021349 	strne	r1, [r2, -r9, asr #6]
     728:	34110000 	ldrcc	r0, [r1], #-0
     72c:	490e0300 	stmdbmi	lr, {r8, r9}
     730:	02193413 	andseq	r3, r9, #318767104	; 0x13000000
     734:	12000018 	andne	r0, r0, #24
     738:	0111010b 	tsteq	r1, fp, lsl #2
     73c:	13010612 	movwne	r0, #5650	; 0x1612
     740:	34130000 	ldrcc	r0, [r3], #-0
     744:	3a0e0300 	bcc	38134c <__bss_end__+0x375074>
     748:	490b3b0b 	stmdbmi	fp, {r0, r1, r3, r8, r9, fp, ip, sp}
     74c:	00170213 	andseq	r0, r7, r3, lsl r2
     750:	82891400 	addhi	r1, r9, #0, 8
     754:	01110001 	tsteq	r1, r1
     758:	00001331 	andeq	r1, r0, r1, lsr r3
     75c:	01828915 	orreq	r8, r2, r5, lsl r9
     760:	31011101 	tstcc	r1, r1, lsl #2
     764:	00130113 	andseq	r0, r3, r3, lsl r1
     768:	828a1600 	addhi	r1, sl, #0, 12
     76c:	18020001 	stmdane	r2, {r0}
     770:	00184291 	mulseq	r8, r1, r2
     774:	82891700 	addhi	r1, r9, #0, 14
     778:	01110101 	tsteq	r1, r1, lsl #2
     77c:	00001331 	andeq	r1, r0, r1, lsr r3
     780:	49010118 	stmdbmi	r1, {r3, r4, r8}
     784:	00130113 	andseq	r0, r3, r3, lsl r1
     788:	00211900 	eoreq	r1, r1, r0, lsl #18
     78c:	0b2f1349 	bleq	bc54b8 <__bss_end__+0xbb91e0>
     790:	2e1a0000 	cdpcs	0, 1, cr0, cr10, cr0, {0}
     794:	03193f01 	tsteq	r9, #1, 30
     798:	3b0b3a0e 	blcc	2cefd8 <__bss_end__+0x2c2d00>
     79c:	1119270b 	tstne	r9, fp, lsl #14
     7a0:	40061201 	andmi	r1, r6, r1, lsl #4
     7a4:	19429718 	stmdbne	r2, {r3, r4, r8, r9, sl, ip, pc}^
     7a8:	00001301 	andeq	r1, r0, r1, lsl #6
     7ac:	2701151b 	smladcs	r1, fp, r5, r1
     7b0:	01134919 	tsteq	r3, r9, lsl r9
     7b4:	1c000013 	stcne	0, cr0, [r0], {19}
     7b8:	13490005 	movtne	r0, #36869	; 0x9005
     7bc:	2e1d0000 	cdpcs	0, 1, cr0, cr13, cr0, {0}
     7c0:	03193f01 	tsteq	r9, #1, 30
     7c4:	3b0b3a0e 	blcc	2cf004 <__bss_end__+0x2c2d2c>
     7c8:	4919270b 	ldmdbmi	r9, {r0, r1, r3, r8, r9, sl, sp}
     7cc:	12011113 	andne	r1, r1, #-1073741820	; 0xc0000004
     7d0:	97184006 	ldrls	r4, [r8, -r6]
     7d4:	13011942 	movwne	r1, #6466	; 0x1942
     7d8:	0b1e0000 	bleq	7807e0 <__bss_end__+0x774508>
     7dc:	00175501 	andseq	r5, r7, r1, lsl #10
     7e0:	00341f00 	eorseq	r1, r4, r0, lsl #30
     7e4:	0b3a0e03 	bleq	e83ff8 <__bss_end__+0xe77d20>
     7e8:	13490b3b 	movtne	r0, #39739	; 0x9b3b
     7ec:	193c193f 	ldmdbne	ip!, {r0, r1, r2, r3, r4, r5, r8, fp, ip}
     7f0:	2e200000 	cdpcs	0, 2, cr0, cr0, cr0, {0}
     7f4:	03193f00 	tsteq	r9, #0, 30
     7f8:	3b0b3a0e 	blcc	2cf038 <__bss_end__+0x2c2d60>
     7fc:	3c19270b 	ldccc	7, cr2, [r9], {11}
     800:	21000019 	tstcs	r0, r9, lsl r0
     804:	193f012e 	ldmdbne	pc!, {r1, r2, r3, r5, r8}	; <UNPREDICTABLE>
     808:	0b3a0e03 	bleq	e8401c <__bss_end__+0xe77d44>
     80c:	19270b3b 	stmdbne	r7!, {r0, r1, r3, r4, r5, r8, r9, fp}
     810:	193c1349 	ldmdbne	ip!, {r0, r3, r6, r8, r9, ip}
     814:	00001301 	andeq	r1, r0, r1, lsl #6
     818:	00001822 	andeq	r1, r0, r2, lsr #16
     81c:	11010000 	mrsne	r0, (UNDEF: 1)
     820:	130e2501 	movwne	r2, #58625	; 0xe501
     824:	1b0e030b 	blne	381458 <__bss_end__+0x375180>
     828:	1201110e 	andne	r1, r1, #-2147483645	; 0x80000003
     82c:	00171006 	andseq	r1, r7, r6
     830:	00240200 	eoreq	r0, r4, r0, lsl #4
     834:	0b3e0b0b 	bleq	f83468 <__bss_end__+0xf77190>
     838:	00000803 	andeq	r0, r0, r3, lsl #16
     83c:	0b002403 	bleq	9850 <software_interrupt_asm+0x28>
     840:	030b3e0b 	movweq	r3, #48651	; 0xbe0b
     844:	0400000e 	streq	r0, [r0], #-14
     848:	193f012e 	ldmdbne	pc!, {r1, r2, r3, r5, r8}	; <UNPREDICTABLE>
     84c:	0b3a0e03 	bleq	e84060 <__bss_end__+0xe77d88>
     850:	19270b3b 	stmdbne	r7!, {r0, r1, r3, r4, r5, r8, r9, fp}
     854:	06120111 			; <UNDEFINED> instruction: 0x06120111
     858:	42971840 	addsmi	r1, r7, #64, 16	; 0x400000
     85c:	00130119 	andseq	r0, r3, r9, lsl r1
     860:	00340500 	eorseq	r0, r4, r0, lsl #10
     864:	0b3a0803 	bleq	e82878 <__bss_end__+0xe765a0>
     868:	13490b3b 	movtne	r0, #39739	; 0x9b3b
     86c:	00001702 	andeq	r1, r0, r2, lsl #14
     870:	3f012e06 	svccc	0x00012e06
     874:	3a0e0319 	bcc	3814e0 <__bss_end__+0x375208>
     878:	270b3b0b 	strcs	r3, [fp, -fp, lsl #22]
     87c:	12011119 	andne	r1, r1, #1073741830	; 0x40000006
     880:	97184006 	ldrls	r4, [r8, -r6]
     884:	00001942 	andeq	r1, r0, r2, asr #18
     888:	01110100 	tsteq	r1, r0, lsl #2
     88c:	0b130e25 	bleq	4c4128 <__bss_end__+0x4b7e50>
     890:	0e1b0e03 	cdpeq	14, 1, cr0, cr11, cr3, {0}
     894:	06120111 			; <UNDEFINED> instruction: 0x06120111
     898:	00001710 	andeq	r1, r0, r0, lsl r7
     89c:	0b002402 	bleq	98ac <data_abort_vector+0x24>
     8a0:	030b3e0b 	movweq	r3, #48651	; 0xbe0b
     8a4:	03000008 	movweq	r0, #8
     8a8:	0b0b0024 	bleq	2c0940 <__bss_end__+0x2b4668>
     8ac:	0e030b3e 	vmoveq.16	d3[0], r0
     8b0:	0f040000 	svceq	0x00040000
     8b4:	490b0b00 	stmdbmi	fp, {r8, r9, fp}
     8b8:	05000013 	streq	r0, [r0, #-19]
     8bc:	13490026 	movtne	r0, #36902	; 0x9026
     8c0:	2e060000 	cdpcs	0, 0, cr0, cr6, cr0, {0}
     8c4:	03193f01 	tsteq	r9, #1, 30
     8c8:	3b0b3a0e 	blcc	2cf108 <__bss_end__+0x2c2e30>
     8cc:	1119270b 	tstne	r9, fp, lsl #14
     8d0:	40061201 	andmi	r1, r6, r1, lsl #4
     8d4:	19429718 	stmdbne	r2, {r3, r4, r8, r9, sl, ip, pc}^
     8d8:	00001301 	andeq	r1, r0, r1, lsl #6
     8dc:	01828907 	orreq	r8, r2, r7, lsl #18
     8e0:	01011101 	tsteq	r1, r1, lsl #2
     8e4:	08000013 	stmdaeq	r0, {r0, r1, r4}
     8e8:	0001828a 	andeq	r8, r1, sl, lsl #5
     8ec:	42911802 	addsmi	r1, r1, #131072	; 0x20000
     8f0:	09000018 	stmdbeq	r0, {r3, r4}
     8f4:	01018289 	smlabbeq	r1, r9, r2, r8
     8f8:	13310111 	teqne	r1, #1073741828	; 0x40000004
     8fc:	00001301 	andeq	r1, r0, r1, lsl #6
     900:	0182890a 	orreq	r8, r2, sl, lsl #18
     904:	31011100 	mrscc	r1, (UNDEF: 17)
     908:	0b000013 	bleq	95c <_start-0x76a4>
     90c:	19270115 	stmdbne	r7!, {r0, r2, r4, r8}
     910:	13011349 	movwne	r1, #4937	; 0x1349
     914:	050c0000 	streq	r0, [ip, #-0]
     918:	00134900 	andseq	r4, r3, r0, lsl #18
     91c:	00340d00 	eorseq	r0, r4, r0, lsl #26
     920:	0b3a0e03 	bleq	e84134 <__bss_end__+0xe77e5c>
     924:	13490b3b 	movtne	r0, #39739	; 0x9b3b
     928:	193c193f 	ldmdbne	ip!, {r0, r1, r2, r3, r4, r5, r8, fp, ip}
     92c:	2e0e0000 	cdpcs	0, 0, cr0, cr14, cr0, {0}
     930:	03193f01 	tsteq	r9, #1, 30
     934:	3b0b3a0e 	blcc	2cf174 <__bss_end__+0x2c2e9c>
     938:	3c19270b 	ldccc	7, cr2, [r9], {11}
     93c:	00130119 	andseq	r0, r3, r9, lsl r1
     940:	002e0f00 	eoreq	r0, lr, r0, lsl #30
     944:	0e03193f 	mcreq	9, 0, r1, cr3, cr15, {1}
     948:	0b3b0b3a 	bleq	ec3638 <__bss_end__+0xeb7360>
     94c:	193c1927 	ldmdbne	ip!, {r0, r1, r2, r5, r8, fp, ip}
     950:	01000000 	mrseq	r0, (UNDEF: 0)
     954:	0e250111 	mcreq	1, 1, r0, cr5, cr1, {0}
     958:	0e030b13 	vmoveq.32	d3[0], r0
     95c:	01110e1b 	tsteq	r1, fp, lsl lr
     960:	17100612 			; <UNDEFINED> instruction: 0x17100612
     964:	24020000 	strcs	r0, [r2], #-0
     968:	3e0b0b00 	vmlacc.f64	d0, d11, d0
     96c:	0008030b 	andeq	r0, r8, fp, lsl #6
     970:	00240300 	eoreq	r0, r4, r0, lsl #6
     974:	0b3e0b0b 	bleq	f835a8 <__bss_end__+0xf772d0>
     978:	00000e03 	andeq	r0, r0, r3, lsl #28
     97c:	3f012e04 	svccc	0x00012e04
     980:	3a0e0319 	bcc	3815ec <__bss_end__+0x375314>
     984:	110b3b0b 	tstne	fp, fp, lsl #22
     988:	40061201 	andmi	r1, r6, r1, lsl #4
     98c:	19429718 	stmdbne	r2, {r3, r4, r8, r9, sl, ip, pc}^
     990:	00001301 	andeq	r1, r0, r1, lsl #6
     994:	03003405 	movweq	r3, #1029	; 0x405
     998:	3b0b3a0e 	blcc	2cf1d8 <__bss_end__+0x2c2f00>
     99c:	3f13490b 	svccc	0x0013490b
     9a0:	00193c19 	andseq	r3, r9, r9, lsl ip
     9a4:	002e0600 	eoreq	r0, lr, r0, lsl #12
     9a8:	0e03193f 	mcreq	9, 0, r1, cr3, cr15, {1}
     9ac:	0b3b0b3a 	bleq	ec369c <__bss_end__+0xeb73c4>
     9b0:	193c1927 	ldmdbne	ip!, {r0, r1, r2, r5, r8, fp, ip}
     9b4:	34070000 	strcc	r0, [r7], #-0
     9b8:	3a080300 	bcc	2015c0 <__bss_end__+0x1f52e8>
     9bc:	490b3b0b 	stmdbmi	fp, {r0, r1, r3, r8, r9, fp, ip, sp}
     9c0:	00170213 	andseq	r0, r7, r3, lsl r2
     9c4:	00340800 	eorseq	r0, r4, r0, lsl #16
     9c8:	0b3a0e03 	bleq	e841dc <__bss_end__+0xe77f04>
     9cc:	13490b3b 	movtne	r0, #39739	; 0x9b3b
     9d0:	89090000 	stmdbhi	r9, {}	; <UNPREDICTABLE>
     9d4:	11000182 	smlabbne	r0, r2, r1, r0
     9d8:	00133101 	andseq	r3, r3, r1, lsl #2
     9dc:	000f0a00 	andeq	r0, pc, r0, lsl #20
     9e0:	13490b0b 	movtne	r0, #39691	; 0x9b0b
     9e4:	01000000 	mrseq	r0, (UNDEF: 0)
     9e8:	0e250111 	mcreq	1, 1, r0, cr5, cr1, {0}
     9ec:	0e030b13 	vmoveq.32	d3[0], r0
     9f0:	17550e1b 	smmlane	r5, fp, lr, r0
     9f4:	17100111 			; <UNDEFINED> instruction: 0x17100111
     9f8:	24020000 	strcs	r0, [r2], #-0
     9fc:	3e0b0b00 	vmlacc.f64	d0, d11, d0
     a00:	0008030b 	andeq	r0, r8, fp, lsl #6
     a04:	00240300 	eoreq	r0, r4, r0, lsl #6
     a08:	0b3e0b0b 	bleq	f8363c <__bss_end__+0xf77364>
     a0c:	00000e03 	andeq	r0, r0, r3, lsl #28
     a10:	3f012e04 	svccc	0x00012e04
     a14:	3a0e0319 	bcc	381680 <__bss_end__+0x3753a8>
     a18:	270b3b0b 	strcs	r3, [fp, -fp, lsl #22]
     a1c:	11134919 	tstne	r3, r9, lsl r9
     a20:	40061201 	andmi	r1, r6, r1, lsl #4
     a24:	19429718 	stmdbne	r2, {r3, r4, r8, r9, sl, ip, pc}^
     a28:	00001301 	andeq	r1, r0, r1, lsl #6
     a2c:	03003405 	movweq	r3, #1029	; 0x405
     a30:	3b0b3a0e 	blcc	2cf270 <__bss_end__+0x2c2f98>
     a34:	0213490b 	andseq	r4, r3, #180224	; 0x2c000
     a38:	06000017 			; <UNDEFINED> instruction: 0x06000017
     a3c:	193f012e 	ldmdbne	pc!, {r1, r2, r3, r5, r8}	; <UNPREDICTABLE>
     a40:	0b3a0e03 	bleq	e84254 <__bss_end__+0xe77f7c>
     a44:	19270b3b 	stmdbne	r7!, {r0, r1, r3, r4, r5, r8, r9, fp}
     a48:	06120111 			; <UNDEFINED> instruction: 0x06120111
     a4c:	42971840 	addsmi	r1, r7, #64, 16	; 0x400000
     a50:	00130119 	andseq	r0, r3, r9, lsl r1
     a54:	00340700 	eorseq	r0, r4, r0, lsl #14
     a58:	0b3a0e03 	bleq	e8426c <__bss_end__+0xe77f94>
     a5c:	13490b3b 	movtne	r0, #39739	; 0x9b3b
     a60:	0000061c 	andeq	r0, r0, ip, lsl r6
     a64:	03003408 	movweq	r3, #1032	; 0x408
     a68:	3b0b3a0e 	blcc	2cf2a8 <__bss_end__+0x2c2fd0>
     a6c:	1c13490b 	ldcne	9, cr4, [r3], {11}
     a70:	0900000b 	stmdbeq	r0, {r0, r1, r3}
     a74:	00018289 	andeq	r8, r1, r9, lsl #5
     a78:	13310111 	teqne	r1, #1073741828	; 0x40000004
     a7c:	890a0000 	stmdbhi	sl, {}	; <UNPREDICTABLE>
     a80:	11010182 	smlabbne	r1, r2, r1, r0
     a84:	01133101 	tsteq	r3, r1, lsl #2
     a88:	0b000013 	bleq	adc <_start-0x7524>
     a8c:	0001828a 	andeq	r8, r1, sl, lsl #5
     a90:	42911802 	addsmi	r1, r1, #131072	; 0x20000
     a94:	0c000018 	stceq	0, cr0, [r0], {24}
     a98:	01018289 	smlabbeq	r1, r9, r2, r8
     a9c:	13310111 	teqne	r1, #1073741828	; 0x40000004
     aa0:	260d0000 	strcs	r0, [sp], -r0
     aa4:	00134900 	andseq	r4, r3, r0, lsl #18
     aa8:	012e0e00 	teqeq	lr, r0, lsl #28
     aac:	0e03193f 	mcreq	9, 0, r1, cr3, cr15, {1}
     ab0:	0b3b0b3a 	bleq	ec37a0 <__bss_end__+0xeb74c8>
     ab4:	193c1927 	ldmdbne	ip!, {r0, r1, r2, r5, r8, fp, ip}
     ab8:	00001301 	andeq	r1, r0, r1, lsl #6
     abc:	4900050f 	stmdbmi	r0, {r0, r1, r2, r3, r8, sl}
     ac0:	10000013 	andne	r0, r0, r3, lsl r0
     ac4:	193f012e 	ldmdbne	pc!, {r1, r2, r3, r5, r8}	; <UNPREDICTABLE>
     ac8:	0b3a0e03 	bleq	e842dc <__bss_end__+0xe78004>
     acc:	19270b3b 	stmdbne	r7!, {r0, r1, r3, r4, r5, r8, r9, fp}
     ad0:	0000193c 	andeq	r1, r0, ip, lsr r9
     ad4:	01110100 	tsteq	r1, r0, lsl #2
     ad8:	0b130e25 	bleq	4c4374 <__bss_end__+0x4b809c>
     adc:	0e1b0e03 	cdpeq	14, 1, cr0, cr11, cr3, {0}
     ae0:	06120111 			; <UNDEFINED> instruction: 0x06120111
     ae4:	00001710 	andeq	r1, r0, r0, lsl r7
     ae8:	0b002402 	bleq	9af8 <__FUNCTION__.4364+0xac>
     aec:	030b3e0b 	movweq	r3, #48651	; 0xbe0b
     af0:	03000008 	movweq	r0, #8
     af4:	0b0b0024 	bleq	2c0b8c <__bss_end__+0x2b48b4>
     af8:	0e030b3e 	vmoveq.16	d3[0], r0
     afc:	2e040000 	cdpcs	0, 0, cr0, cr4, cr0, {0}
     b00:	03193f01 	tsteq	r9, #1, 30
     b04:	3b0b3a0e 	blcc	2cf344 <__bss_end__+0x2c306c>
     b08:	1119270b 	tstne	r9, fp, lsl #14
     b0c:	40061201 	andmi	r1, r6, r1, lsl #4
     b10:	19429718 	stmdbne	r2, {r3, r4, r8, r9, sl, ip, pc}^
     b14:	00001301 	andeq	r1, r0, r1, lsl #6
     b18:	03000505 	movweq	r0, #1285	; 0x505
     b1c:	3b0b3a0e 	blcc	2cf35c <__bss_end__+0x2c3084>
     b20:	0213490b 	andseq	r4, r3, #180224	; 0x2c000
     b24:	06000017 			; <UNDEFINED> instruction: 0x06000017
     b28:	193f012e 	ldmdbne	pc!, {r1, r2, r3, r5, r8}	; <UNPREDICTABLE>
     b2c:	0b3a0e03 	bleq	e84340 <__bss_end__+0xe78068>
     b30:	19270b3b 	stmdbne	r7!, {r0, r1, r3, r4, r5, r8, r9, fp}
     b34:	01111349 	tsteq	r1, r9, asr #6
     b38:	18400612 	stmdane	r0, {r1, r4, r9, sl}^
     b3c:	01194297 			; <UNDEFINED> instruction: 0x01194297
     b40:	07000013 	smladeq	r0, r3, r0, r0
     b44:	01018289 	smlabbeq	r1, r9, r2, r8
     b48:	13310111 	teqne	r1, #1073741828	; 0x40000004
     b4c:	8a080000 	bhi	200b54 <__bss_end__+0x1f487c>
     b50:	02000182 	andeq	r0, r0, #-2147483616	; 0x80000020
     b54:	18429118 	stmdane	r2, {r3, r4, r8, ip, pc}^
     b58:	34090000 	strcc	r0, [r9], #-0
     b5c:	3a080300 	bcc	201764 <__bss_end__+0x1f548c>
     b60:	490b3b0b 	stmdbmi	fp, {r0, r1, r3, r8, r9, fp, ip, sp}
     b64:	00180213 	andseq	r0, r8, r3, lsl r2
     b68:	82890a00 	addhi	r0, r9, #0, 20
     b6c:	01110001 	tsteq	r1, r1
     b70:	00001331 	andeq	r1, r0, r1, lsr r3
     b74:	0300050b 	movweq	r0, #1291	; 0x50b
     b78:	3b0b3a08 	blcc	2cf3a0 <__bss_end__+0x2c30c8>
     b7c:	0213490b 	andseq	r4, r3, #180224	; 0x2c000
     b80:	0c000017 	stceq	0, cr0, [r0], {23}
     b84:	0111010b 	tsteq	r1, fp, lsl #2
     b88:	13010612 	movwne	r0, #5650	; 0x1612
     b8c:	340d0000 	strcc	r0, [sp], #-0
     b90:	3a080300 	bcc	201798 <__bss_end__+0x1f54c0>
     b94:	490b3b0b 	stmdbmi	fp, {r0, r1, r3, r8, r9, fp, ip, sp}
     b98:	00170213 	andseq	r0, r7, r3, lsl r2
     b9c:	012e0e00 	teqeq	lr, r0, lsl #28
     ba0:	0e03193f 	mcreq	9, 0, r1, cr3, cr15, {1}
     ba4:	0b3b0b3a 	bleq	ec3894 <__bss_end__+0xeb75bc>
     ba8:	13491927 	movtne	r1, #39207	; 0x9927
     bac:	0000193c 	andeq	r1, r0, ip, lsr r9
     bb0:	4900050f 	stmdbmi	r0, {r0, r1, r2, r3, r8, sl}
     bb4:	00000013 	andeq	r0, r0, r3, lsl r0
     bb8:	25011101 	strcs	r1, [r1, #-257]	; 0x101
     bbc:	030b130e 	movweq	r1, #45838	; 0xb30e
     bc0:	110e1b0e 	tstne	lr, lr, lsl #22
     bc4:	10061201 	andne	r1, r6, r1, lsl #4
     bc8:	02000017 	andeq	r0, r0, #23
     bcc:	0b0b0024 	bleq	2c0c64 <__bss_end__+0x2b498c>
     bd0:	0e030b3e 	vmoveq.16	d3[0], r0
     bd4:	24030000 	strcs	r0, [r3], #-0
     bd8:	3e0b0b00 	vmlacc.f64	d0, d11, d0
     bdc:	0008030b 	andeq	r0, r8, fp, lsl #6
     be0:	01040400 	tsteq	r4, r0, lsl #8
     be4:	0b3a0b0b 	bleq	e83818 <__bss_end__+0xe77540>
     be8:	13010b3b 	movwne	r0, #6971	; 0x1b3b
     bec:	28050000 	stmdacs	r5, {}	; <UNPREDICTABLE>
     bf0:	1c0e0300 	stcne	3, cr0, [lr], {-0}
     bf4:	0600000d 	streq	r0, [r0], -sp
     bf8:	0e030016 	mcreq	0, 0, r0, cr3, cr6, {0}
     bfc:	0b3b0b3a 	bleq	ec38ec <__bss_end__+0xeb7614>
     c00:	00001349 	andeq	r1, r0, r9, asr #6
     c04:	3f012e07 	svccc	0x00012e07
     c08:	3a0e0319 	bcc	381874 <__bss_end__+0x37559c>
     c0c:	270b3b0b 	strcs	r3, [fp, -fp, lsl #22]
     c10:	12011119 	andne	r1, r1, #1073741830	; 0x40000006
     c14:	97184006 	ldrls	r4, [r8, -r6]
     c18:	13011942 	movwne	r1, #6466	; 0x1942
     c1c:	05080000 	streq	r0, [r8, #-0]
     c20:	3a080300 	bcc	201828 <__bss_end__+0x1f5550>
     c24:	490b3b0b 	stmdbmi	fp, {r0, r1, r3, r8, r9, fp, ip, sp}
     c28:	00170213 	andseq	r0, r7, r3, lsl r2
     c2c:	00340900 	eorseq	r0, r4, r0, lsl #18
     c30:	0b3a0e03 	bleq	e84444 <__bss_end__+0xe7816c>
     c34:	13490b3b 	movtne	r0, #39739	; 0x9b3b
     c38:	00001702 	andeq	r1, r0, r2, lsl #14
     c3c:	0182890a 	orreq	r8, r2, sl, lsl #18
     c40:	31011101 	tstcc	r1, r1, lsl #2
     c44:	00130113 	andseq	r0, r3, r3, lsl r1
     c48:	828a0b00 	addhi	r0, sl, #0, 22
     c4c:	18020001 	stmdane	r2, {r0}
     c50:	00184291 	mulseq	r8, r1, r2
     c54:	82890c00 	addhi	r0, r9, #0, 24
     c58:	01110101 	tsteq	r1, r1, lsl #2
     c5c:	00001331 	andeq	r1, r0, r1, lsr r3
     c60:	0b000f0d 	bleq	489c <_start-0x3764>
     c64:	0013490b 	andseq	r4, r3, fp, lsl #18
     c68:	00350e00 	eorseq	r0, r5, r0, lsl #28
     c6c:	00001349 	andeq	r1, r0, r9, asr #6
     c70:	3f012e0f 	svccc	0x00012e0f
     c74:	3a0e0319 	bcc	3818e0 <__bss_end__+0x375608>
     c78:	270b3b0b 	strcs	r3, [fp, -fp, lsl #22]
     c7c:	11134919 	tstne	r3, r9, lsl r9
     c80:	40061201 	andmi	r1, r6, r1, lsl #4
     c84:	19429718 	stmdbne	r2, {r3, r4, r8, r9, sl, ip, pc}^
     c88:	00001301 	andeq	r1, r0, r1, lsl #6
     c8c:	03003410 	movweq	r3, #1040	; 0x410
     c90:	3b0b3a08 	blcc	2cf4b8 <__bss_end__+0x2c31e0>
     c94:	0213490b 	andseq	r4, r3, #180224	; 0x2c000
     c98:	11000017 	tstne	r0, r7, lsl r0
     c9c:	00018289 	andeq	r8, r1, r9, lsl #5
     ca0:	13310111 	teqne	r1, #1073741828	; 0x40000004
     ca4:	05120000 	ldreq	r0, [r2, #-0]
     ca8:	3a0e0300 	bcc	3818b0 <__bss_end__+0x3755d8>
     cac:	490b3b0b 	stmdbmi	fp, {r0, r1, r3, r8, r9, fp, ip, sp}
     cb0:	00170213 	andseq	r0, r7, r3, lsl r2
     cb4:	012e1300 	teqeq	lr, r0, lsl #6
     cb8:	0e03193f 	mcreq	9, 0, r1, cr3, cr15, {1}
     cbc:	053b0b3a 	ldreq	r0, [fp, #-2874]!	; 0xb3a
     cc0:	13491927 	movtne	r1, #39207	; 0x9927
     cc4:	06120111 			; <UNDEFINED> instruction: 0x06120111
     cc8:	42971840 	addsmi	r1, r7, #64, 16	; 0x400000
     ccc:	00130119 	andseq	r0, r3, r9, lsl r1
     cd0:	00051400 	andeq	r1, r5, r0, lsl #8
     cd4:	0b3a0e03 	bleq	e844e8 <__bss_end__+0xe78210>
     cd8:	1349053b 	movtne	r0, #38203	; 0x953b
     cdc:	00001702 	andeq	r1, r0, r2, lsl #14
     ce0:	3f012e15 	svccc	0x00012e15
     ce4:	3a0e0319 	bcc	381950 <__bss_end__+0x375678>
     ce8:	27053b0b 	strcs	r3, [r5, -fp, lsl #22]
     cec:	12011119 	andne	r1, r1, #1073741830	; 0x40000006
     cf0:	97184006 	ldrls	r4, [r8, -r6]
     cf4:	13011942 	movwne	r1, #6466	; 0x1942
     cf8:	05160000 	ldreq	r0, [r6, #-0]
     cfc:	3a080300 	bcc	201904 <__bss_end__+0x1f562c>
     d00:	49053b0b 	stmdbmi	r5, {r0, r1, r3, r8, r9, fp, ip, sp}
     d04:	00170213 	andseq	r0, r7, r3, lsl r2
     d08:	00341700 	eorseq	r1, r4, r0, lsl #14
     d0c:	0b3a0e03 	bleq	e84520 <__bss_end__+0xe78248>
     d10:	1349053b 	movtne	r0, #38203	; 0x953b
     d14:	00001702 	andeq	r1, r0, r2, lsl #14
     d18:	11010b18 	tstne	r1, r8, lsl fp
     d1c:	01061201 	tsteq	r6, r1, lsl #4
     d20:	19000013 	stmdbne	r0, {r0, r1, r4}
     d24:	0e030034 	mcreq	0, 0, r0, cr3, cr4, {1}
     d28:	0b3b0b3a 	bleq	ec3a18 <__bss_end__+0xeb7740>
     d2c:	193f1349 	ldmdbne	pc!, {r0, r3, r6, r8, r9, ip}	; <UNPREDICTABLE>
     d30:	00001802 	andeq	r1, r0, r2, lsl #16
     d34:	0300341a 	movweq	r3, #1050	; 0x41a
     d38:	3b0b3a0e 	blcc	2cf578 <__bss_end__+0x2c32a0>
     d3c:	3f134905 	svccc	0x00134905
     d40:	00180219 	andseq	r0, r8, r9, lsl r2
     d44:	012e1b00 	teqeq	lr, r0, lsl #22
     d48:	0e03193f 	mcreq	9, 0, r1, cr3, cr15, {1}
     d4c:	0b3b0b3a 	bleq	ec3a3c <__bss_end__+0xeb7764>
     d50:	13491927 	movtne	r1, #39207	; 0x9927
     d54:	1301193c 	movwne	r1, #6460	; 0x193c
     d58:	051c0000 	ldreq	r0, [ip, #-0]
     d5c:	00134900 	andseq	r4, r3, r0, lsl #18
     d60:	00261d00 	eoreq	r1, r6, r0, lsl #26
     d64:	00001349 	andeq	r1, r0, r9, asr #6
     d68:	0000351e 	andeq	r3, r0, lr, lsl r5
     d6c:	012e1f00 	teqeq	lr, r0, lsl #30
     d70:	0e03193f 	mcreq	9, 0, r1, cr3, cr15, {1}
     d74:	0b3b0b3a 	bleq	ec3a64 <__bss_end__+0xeb778c>
     d78:	193c1927 	ldmdbne	ip!, {r0, r1, r2, r5, r8, fp, ip}
     d7c:	00001301 	andeq	r1, r0, r1, lsl #6
     d80:	3f002e20 	svccc	0x00002e20
     d84:	3a0e0319 	bcc	3819f0 <__bss_end__+0x375718>
     d88:	270b3b0b 	strcs	r3, [fp, -fp, lsl #22]
     d8c:	00193c19 	andseq	r3, r9, r9, lsl ip
     d90:	11010000 	mrsne	r0, (UNDEF: 1)
     d94:	130e2501 	movwne	r2, #58625	; 0xe501
     d98:	1b0e030b 	blne	3819cc <__bss_end__+0x3756f4>
     d9c:	1201110e 	andne	r1, r1, #-2147483645	; 0x80000003
     da0:	00171006 	andseq	r1, r7, r6
     da4:	00240200 	eoreq	r0, r4, r0, lsl #4
     da8:	0b3e0b0b 	bleq	f839dc <__bss_end__+0xf77704>
     dac:	00000803 	andeq	r0, r0, r3, lsl #16
     db0:	0b002403 	bleq	9dc4 <__FUNCTION__.4247+0x18>
     db4:	030b3e0b 	movweq	r3, #48651	; 0xbe0b
     db8:	0400000e 	streq	r0, [r0], #-14
     dbc:	0b0b0104 	bleq	2c11d4 <__bss_end__+0x2b4efc>
     dc0:	0b3b0b3a 	bleq	ec3ab0 <__bss_end__+0xeb77d8>
     dc4:	00001301 	andeq	r1, r0, r1, lsl #6
     dc8:	03002805 	movweq	r2, #2053	; 0x805
     dcc:	000d1c0e 	andeq	r1, sp, lr, lsl #24
     dd0:	00160600 	andseq	r0, r6, r0, lsl #12
     dd4:	0b3a0e03 	bleq	e845e8 <__bss_end__+0xe78310>
     dd8:	13490b3b 	movtne	r0, #39739	; 0x9b3b
     ddc:	2e070000 	cdpcs	0, 0, cr0, cr7, cr0, {0}
     de0:	03193f01 	tsteq	r9, #1, 30
     de4:	3b0b3a0e 	blcc	2cf624 <__bss_end__+0x2c334c>
     de8:	1119270b 	tstne	r9, fp, lsl #14
     dec:	40061201 	andmi	r1, r6, r1, lsl #4
     df0:	19429718 	stmdbne	r2, {r3, r4, r8, r9, sl, ip, pc}^
     df4:	00001301 	andeq	r1, r0, r1, lsl #6
     df8:	01828908 	orreq	r8, r2, r8, lsl #18
     dfc:	31011100 	mrscc	r1, (UNDEF: 17)
     e00:	09000013 	stmdbeq	r0, {r0, r1, r4}
     e04:	01018289 	smlabbeq	r1, r9, r2, r8
     e08:	13310111 	teqne	r1, #1073741828	; 0x40000004
     e0c:	00001301 	andeq	r1, r0, r1, lsl #6
     e10:	01828a0a 	orreq	r8, r2, sl, lsl #20
     e14:	91180200 	tstls	r8, r0, lsl #4
     e18:	00001842 	andeq	r1, r0, r2, asr #16
     e1c:	3f012e0b 	svccc	0x00012e0b
     e20:	3a0e0319 	bcc	381a8c <__bss_end__+0x3757b4>
     e24:	270b3b0b 	strcs	r3, [fp, -fp, lsl #22]
     e28:	11134919 	tstne	r3, r9, lsl r9
     e2c:	40061201 	andmi	r1, r6, r1, lsl #4
     e30:	19429718 	stmdbne	r2, {r3, r4, r8, r9, sl, ip, pc}^
     e34:	00001301 	andeq	r1, r0, r1, lsl #6
     e38:	0300050c 	movweq	r0, #1292	; 0x50c
     e3c:	3b0b3a08 	blcc	2cf664 <__bss_end__+0x2c338c>
     e40:	0213490b 	andseq	r4, r3, #180224	; 0x2c000
     e44:	0d000017 	stceq	0, cr0, [r0, #-92]	; 0xffffffa4
     e48:	01018289 	smlabbeq	r1, r9, r2, r8
     e4c:	13310111 	teqne	r1, #1073741828	; 0x40000004
     e50:	340e0000 	strcc	r0, [lr], #-0
     e54:	3a0e0300 	bcc	381a5c <__bss_end__+0x375784>
     e58:	490b3b0b 	stmdbmi	fp, {r0, r1, r3, r8, r9, fp, ip, sp}
     e5c:	02193f13 	andseq	r3, r9, #19, 30	; 0x4c
     e60:	0f000018 	svceq	0x00000018
     e64:	0b0b000f 	bleq	2c0ea8 <__bss_end__+0x2b4bd0>
     e68:	00001349 	andeq	r1, r0, r9, asr #6
     e6c:	49003510 	stmdbmi	r0, {r4, r8, sl, ip, sp}
     e70:	11000013 	tstne	r0, r3, lsl r0
     e74:	193f002e 	ldmdbne	pc!, {r1, r2, r3, r5}	; <UNPREDICTABLE>
     e78:	0b3a0e03 	bleq	e8468c <__bss_end__+0xe783b4>
     e7c:	19270b3b 	stmdbne	r7!, {r0, r1, r3, r4, r5, r8, r9, fp}
     e80:	0000193c 	andeq	r1, r0, ip, lsr r9
     e84:	3f012e12 	svccc	0x00012e12
     e88:	3a0e0319 	bcc	381af4 <__bss_end__+0x37581c>
     e8c:	270b3b0b 	strcs	r3, [fp, -fp, lsl #22]
     e90:	01193c19 	tsteq	r9, r9, lsl ip
     e94:	13000013 	movwne	r0, #19
     e98:	13490005 	movtne	r0, #36869	; 0x9005
     e9c:	2e140000 	cdpcs	0, 1, cr0, cr4, cr0, {0}
     ea0:	03193f01 	tsteq	r9, #1, 30
     ea4:	3b0b3a0e 	blcc	2cf6e4 <__bss_end__+0x2c340c>
     ea8:	4919270b 	ldmdbmi	r9, {r0, r1, r3, r8, r9, sl, sp}
     eac:	01193c13 	tsteq	r9, r3, lsl ip
     eb0:	15000013 	strne	r0, [r0, #-19]
     eb4:	13490026 	movtne	r0, #36902	; 0x9026
     eb8:	35160000 	ldrcc	r0, [r6, #-0]
     ebc:	00000000 	andeq	r0, r0, r0
     ec0:	25011101 	strcs	r1, [r1, #-257]	; 0x101
     ec4:	030b130e 	movweq	r1, #45838	; 0xb30e
     ec8:	110e1b0e 	tstne	lr, lr, lsl #22
     ecc:	10061201 	andne	r1, r6, r1, lsl #4
     ed0:	02000017 	andeq	r0, r0, #23
     ed4:	0b0b0024 	bleq	2c0f6c <__bss_end__+0x2b4c94>
     ed8:	08030b3e 	stmdaeq	r3, {r1, r2, r3, r4, r5, r8, r9, fp}
     edc:	24030000 	strcs	r0, [r3], #-0
     ee0:	3e0b0b00 	vmlacc.f64	d0, d11, d0
     ee4:	000e030b 	andeq	r0, lr, fp, lsl #6
     ee8:	000f0400 	andeq	r0, pc, r0, lsl #8
     eec:	13490b0b 	movtne	r0, #39691	; 0x9b0b
     ef0:	26050000 	strcs	r0, [r5], -r0
     ef4:	00134900 	andseq	r4, r3, r0, lsl #18
     ef8:	01040600 	tsteq	r4, r0, lsl #12
     efc:	0b3a0b0b 	bleq	e83b30 <__bss_end__+0xe77858>
     f00:	13010b3b 	movwne	r0, #6971	; 0x1b3b
     f04:	28070000 	stmdacs	r7, {}	; <UNPREDICTABLE>
     f08:	1c0e0300 	stcne	3, cr0, [lr], {-0}
     f0c:	0800000d 	stmdaeq	r0, {r0, r2, r3}
     f10:	193f012e 	ldmdbne	pc!, {r1, r2, r3, r5, r8}	; <UNPREDICTABLE>
     f14:	0b3a0e03 	bleq	e84728 <__bss_end__+0xe78450>
     f18:	19270b3b 	stmdbne	r7!, {r0, r1, r3, r4, r5, r8, r9, fp}
     f1c:	06120111 			; <UNDEFINED> instruction: 0x06120111
     f20:	42971840 	addsmi	r1, r7, #64, 16	; 0x400000
     f24:	00130119 	andseq	r0, r3, r9, lsl r1
     f28:	00340900 	eorseq	r0, r4, r0, lsl #18
     f2c:	0b3a0e03 	bleq	e84740 <__bss_end__+0xe78468>
     f30:	13490b3b 	movtne	r0, #39739	; 0x9b3b
     f34:	193c193f 	ldmdbne	ip!, {r0, r1, r2, r3, r4, r5, r8, fp, ip}
     f38:	340a0000 	strcc	r0, [sl], #-0
     f3c:	3a080300 	bcc	201b44 <__bss_end__+0x1f586c>
     f40:	490b3b0b 	stmdbmi	fp, {r0, r1, r3, r8, r9, fp, ip, sp}
     f44:	000b1c13 	andeq	r1, fp, r3, lsl ip
     f48:	00340b00 	eorseq	r0, r4, r0, lsl #22
     f4c:	0b3a0803 	bleq	e82f60 <__bss_end__+0xe76c88>
     f50:	13490b3b 	movtne	r0, #39739	; 0x9b3b
     f54:	340c0000 	strcc	r0, [ip], #-0
     f58:	3a080300 	bcc	201b60 <__bss_end__+0x1f5888>
     f5c:	490b3b0b 	stmdbmi	fp, {r0, r1, r3, r8, r9, fp, ip, sp}
     f60:	00180213 	andseq	r0, r8, r3, lsl r2
     f64:	010b0d00 	tsteq	fp, r0, lsl #26
     f68:	06120111 			; <UNDEFINED> instruction: 0x06120111
     f6c:	00001301 	andeq	r1, r0, r1, lsl #6
     f70:	0300340e 	movweq	r3, #1038	; 0x40e
     f74:	3b0b3a08 	blcc	2cf79c <__bss_end__+0x2c34c4>
     f78:	0213490b 	andseq	r4, r3, #180224	; 0x2c000
     f7c:	0f000017 	svceq	0x00000017
     f80:	01018289 	smlabbeq	r1, r9, r2, r8
     f84:	13310111 	teqne	r1, #1073741828	; 0x40000004
     f88:	00001301 	andeq	r1, r0, r1, lsl #6
     f8c:	01828a10 	orreq	r8, r2, r0, lsl sl
     f90:	91180200 	tstls	r8, r0, lsl #4
     f94:	00001842 	andeq	r1, r0, r2, asr #16
     f98:	01828911 	orreq	r8, r2, r1, lsl r9
     f9c:	31011100 	mrscc	r1, (UNDEF: 17)
     fa0:	12000013 	andne	r0, r0, #19
     fa4:	08030005 	stmdaeq	r3, {r0, r2}
     fa8:	0b3b0b3a 	bleq	ec3c98 <__bss_end__+0xeb79c0>
     fac:	17021349 	strne	r1, [r2, -r9, asr #6]
     fb0:	34130000 	ldrcc	r0, [r3], #-0
     fb4:	490e0300 	stmdbmi	lr, {r8, r9}
     fb8:	02193413 	andseq	r3, r9, #318767104	; 0x13000000
     fbc:	14000018 	strne	r0, [r0], #-24
     fc0:	13490101 	movtne	r0, #37121	; 0x9101
     fc4:	00001301 	andeq	r1, r0, r1, lsl #6
     fc8:	49002115 	stmdbmi	r0, {r0, r2, r4, r8, sp}
     fcc:	000b2f13 	andeq	r2, fp, r3, lsl pc
     fd0:	012e1600 	teqeq	lr, r0, lsl #12
     fd4:	0e03193f 	mcreq	9, 0, r1, cr3, cr15, {1}
     fd8:	0b3b0b3a 	bleq	ec3cc8 <__bss_end__+0xeb79f0>
     fdc:	193c1927 	ldmdbne	ip!, {r0, r1, r2, r5, r8, fp, ip}
     fe0:	00001301 	andeq	r1, r0, r1, lsl #6
     fe4:	49000517 	stmdbmi	r0, {r0, r1, r2, r4, r8, sl}
     fe8:	18000013 	stmdane	r0, {r0, r1, r4}
     fec:	193f002e 	ldmdbne	pc!, {r1, r2, r3, r5}	; <UNPREDICTABLE>
     ff0:	0b3a0e03 	bleq	e84804 <__bss_end__+0xe7852c>
     ff4:	19270b3b 	stmdbne	r7!, {r0, r1, r3, r4, r5, r8, r9, fp}
     ff8:	0000193c 	andeq	r1, r0, ip, lsr r9
     ffc:	3f012e19 	svccc	0x00012e19
    1000:	3a0e0319 	bcc	381c6c <__bss_end__+0x375994>
    1004:	270b3b0b 	strcs	r3, [fp, -fp, lsl #22]
    1008:	3c134919 	ldccc	9, cr4, [r3], {25}
    100c:	00130119 	andseq	r0, r3, r9, lsl r1
    1010:	00181a00 	andseq	r1, r8, r0, lsl #20
    1014:	01000000 	mrseq	r0, (UNDEF: 0)
    1018:	0e250111 	mcreq	1, 1, r0, cr5, cr1, {0}
    101c:	0e030b13 	vmoveq.32	d3[0], r0
    1020:	01110e1b 	tsteq	r1, fp, lsl lr
    1024:	17100612 			; <UNDEFINED> instruction: 0x17100612
    1028:	24020000 	strcs	r0, [r2], #-0
    102c:	3e0b0b00 	vmlacc.f64	d0, d11, d0
    1030:	0008030b 	andeq	r0, r8, fp, lsl #6
    1034:	00240300 	eoreq	r0, r4, r0, lsl #6
    1038:	0b3e0b0b 	bleq	f83c6c <__bss_end__+0xf77994>
    103c:	00000e03 	andeq	r0, r0, r3, lsl #28
    1040:	0b000f04 	bleq	4c58 <_start-0x33a8>
    1044:	0013490b 	andseq	r4, r3, fp, lsl #18
    1048:	00260500 	eoreq	r0, r6, r0, lsl #10
    104c:	00001349 	andeq	r1, r0, r9, asr #6
    1050:	3f012e06 	svccc	0x00012e06
    1054:	3a0e0319 	bcc	381cc0 <__bss_end__+0x3759e8>
    1058:	270b3b0b 	strcs	r3, [fp, -fp, lsl #22]
    105c:	12011119 	andne	r1, r1, #1073741830	; 0x40000006
    1060:	97184006 	ldrls	r4, [r8, -r6]
    1064:	13011942 	movwne	r1, #6466	; 0x1942
    1068:	05070000 	streq	r0, [r7, #-0]
    106c:	3a080300 	bcc	201c74 <__bss_end__+0x1f599c>
    1070:	490b3b0b 	stmdbmi	fp, {r0, r1, r3, r8, r9, fp, ip, sp}
    1074:	00170213 	andseq	r0, r7, r3, lsl r2
    1078:	00340800 	eorseq	r0, r4, r0, lsl #16
    107c:	13490e03 	movtne	r0, #40451	; 0x9e03
    1080:	18021934 	stmdane	r2, {r2, r4, r5, r8, fp, ip}
    1084:	89090000 	stmdbhi	r9, {}	; <UNPREDICTABLE>
    1088:	11000182 	smlabbne	r0, r2, r1, r0
    108c:	00133101 	andseq	r3, r3, r1, lsl #2
    1090:	82890a00 	addhi	r0, r9, #0, 20
    1094:	01110101 	tsteq	r1, r1, lsl #2
    1098:	13011331 	movwne	r1, #4913	; 0x1331
    109c:	8a0b0000 	bhi	2c10a4 <__bss_end__+0x2b4dcc>
    10a0:	02000182 	andeq	r0, r0, #-2147483616	; 0x80000020
    10a4:	18429118 	stmdane	r2, {r3, r4, r8, ip, pc}^
    10a8:	010c0000 	mrseq	r0, (UNDEF: 12)
    10ac:	01134901 	tsteq	r3, r1, lsl #18
    10b0:	0d000013 	stceq	0, cr0, [r0, #-76]	; 0xffffffb4
    10b4:	13490021 	movtne	r0, #36897	; 0x9021
    10b8:	00000b2f 	andeq	r0, r0, pc, lsr #22
    10bc:	3f002e0e 	svccc	0x00002e0e
    10c0:	3a0e0319 	bcc	381d2c <__bss_end__+0x375a54>
    10c4:	270b3b0b 	strcs	r3, [fp, -fp, lsl #22]
    10c8:	00193c19 	andseq	r3, r9, r9, lsl ip
    10cc:	012e0f00 	teqeq	lr, r0, lsl #30
    10d0:	0e03193f 	mcreq	9, 0, r1, cr3, cr15, {1}
    10d4:	0b3b0b3a 	bleq	ec3dc4 <__bss_end__+0xeb7aec>
    10d8:	13491927 	movtne	r1, #39207	; 0x9927
    10dc:	1301193c 	movwne	r1, #6460	; 0x193c
    10e0:	05100000 	ldreq	r0, [r0, #-0]
    10e4:	00134900 	andseq	r4, r3, r0, lsl #18
    10e8:	00181100 	andseq	r1, r8, r0, lsl #2
    10ec:	01000000 	mrseq	r0, (UNDEF: 0)
    10f0:	0e250111 	mcreq	1, 1, r0, cr5, cr1, {0}
    10f4:	0e030b13 	vmoveq.32	d3[0], r0
    10f8:	01110e1b 	tsteq	r1, fp, lsl lr
    10fc:	17100612 			; <UNDEFINED> instruction: 0x17100612
    1100:	24020000 	strcs	r0, [r2], #-0
    1104:	3e0b0b00 	vmlacc.f64	d0, d11, d0
    1108:	0008030b 	andeq	r0, r8, fp, lsl #6
    110c:	00240300 	eoreq	r0, r4, r0, lsl #6
    1110:	0b3e0b0b 	bleq	f83d44 <__bss_end__+0xf77a6c>
    1114:	00000e03 	andeq	r0, r0, r3, lsl #28
    1118:	0b000f04 	bleq	4d30 <_start-0x32d0>
    111c:	0013490b 	andseq	r4, r3, fp, lsl #18
    1120:	00260500 	eoreq	r0, r6, r0, lsl #10
    1124:	00001349 	andeq	r1, r0, r9, asr #6
    1128:	3f012e06 	svccc	0x00012e06
    112c:	3a0e0319 	bcc	381d98 <__bss_end__+0x375ac0>
    1130:	270b3b0b 	strcs	r3, [fp, -fp, lsl #22]
    1134:	12011119 	andne	r1, r1, #1073741830	; 0x40000006
    1138:	97184006 	ldrls	r4, [r8, -r6]
    113c:	13011942 	movwne	r1, #6466	; 0x1942
    1140:	05070000 	streq	r0, [r7, #-0]
    1144:	3a080300 	bcc	201d4c <__bss_end__+0x1f5a74>
    1148:	490b3b0b 	stmdbmi	fp, {r0, r1, r3, r8, r9, fp, ip, sp}
    114c:	00170213 	andseq	r0, r7, r3, lsl r2
    1150:	00340800 	eorseq	r0, r4, r0, lsl #16
    1154:	13490e03 	movtne	r0, #40451	; 0x9e03
    1158:	18021934 	stmdane	r2, {r2, r4, r5, r8, fp, ip}
    115c:	89090000 	stmdbhi	r9, {}	; <UNPREDICTABLE>
    1160:	11000182 	smlabbne	r0, r2, r1, r0
    1164:	00133101 	andseq	r3, r3, r1, lsl #2
    1168:	82890a00 	addhi	r0, r9, #0, 20
    116c:	01110101 	tsteq	r1, r1, lsl #2
    1170:	13011331 	movwne	r1, #4913	; 0x1331
    1174:	8a0b0000 	bhi	2c117c <__bss_end__+0x2b4ea4>
    1178:	02000182 	andeq	r0, r0, #-2147483616	; 0x80000020
    117c:	18429118 	stmdane	r2, {r3, r4, r8, ip, pc}^
    1180:	010c0000 	mrseq	r0, (UNDEF: 12)
    1184:	01134901 	tsteq	r3, r1, lsl #18
    1188:	0d000013 	stceq	0, cr0, [r0, #-76]	; 0xffffffb4
    118c:	13490021 	movtne	r0, #36897	; 0x9021
    1190:	00000b2f 	andeq	r0, r0, pc, lsr #22
    1194:	3f002e0e 	svccc	0x00002e0e
    1198:	3a0e0319 	bcc	381e04 <__bss_end__+0x375b2c>
    119c:	270b3b0b 	strcs	r3, [fp, -fp, lsl #22]
    11a0:	00193c19 	andseq	r3, r9, r9, lsl ip
    11a4:	012e0f00 	teqeq	lr, r0, lsl #30
    11a8:	0e03193f 	mcreq	9, 0, r1, cr3, cr15, {1}
    11ac:	0b3b0b3a 	bleq	ec3e9c <__bss_end__+0xeb7bc4>
    11b0:	13491927 	movtne	r1, #39207	; 0x9927
    11b4:	1301193c 	movwne	r1, #6460	; 0x193c
    11b8:	05100000 	ldreq	r0, [r0, #-0]
    11bc:	00134900 	andseq	r4, r3, r0, lsl #18
    11c0:	00181100 	andseq	r1, r8, r0, lsl #2
    11c4:	01000000 	mrseq	r0, (UNDEF: 0)
    11c8:	0e250111 	mcreq	1, 1, r0, cr5, cr1, {0}
    11cc:	0e030b13 	vmoveq.32	d3[0], r0
    11d0:	01110e1b 	tsteq	r1, fp, lsl lr
    11d4:	17100612 			; <UNDEFINED> instruction: 0x17100612
    11d8:	24020000 	strcs	r0, [r2], #-0
    11dc:	3e0b0b00 	vmlacc.f64	d0, d11, d0
    11e0:	0008030b 	andeq	r0, r8, fp, lsl #6
    11e4:	00240300 	eoreq	r0, r4, r0, lsl #6
    11e8:	0b3e0b0b 	bleq	f83e1c <__bss_end__+0xf77b44>
    11ec:	00000e03 	andeq	r0, r0, r3, lsl #28
    11f0:	0b000f04 	bleq	4e08 <_start-0x31f8>
    11f4:	0013490b 	andseq	r4, r3, fp, lsl #18
    11f8:	00260500 	eoreq	r0, r6, r0, lsl #10
    11fc:	00001349 	andeq	r1, r0, r9, asr #6
    1200:	3f012e06 	svccc	0x00012e06
    1204:	3a0e0319 	bcc	381e70 <__bss_end__+0x375b98>
    1208:	270b3b0b 	strcs	r3, [fp, -fp, lsl #22]
    120c:	12011119 	andne	r1, r1, #1073741830	; 0x40000006
    1210:	97184006 	ldrls	r4, [r8, -r6]
    1214:	13011942 	movwne	r1, #6466	; 0x1942
    1218:	05070000 	streq	r0, [r7, #-0]
    121c:	3a080300 	bcc	201e24 <__bss_end__+0x1f5b4c>
    1220:	490b3b0b 	stmdbmi	fp, {r0, r1, r3, r8, r9, fp, ip, sp}
    1224:	00170213 	andseq	r0, r7, r3, lsl r2
    1228:	00340800 	eorseq	r0, r4, r0, lsl #16
    122c:	13490e03 	movtne	r0, #40451	; 0x9e03
    1230:	18021934 	stmdane	r2, {r2, r4, r5, r8, fp, ip}
    1234:	89090000 	stmdbhi	r9, {}	; <UNPREDICTABLE>
    1238:	11000182 	smlabbne	r0, r2, r1, r0
    123c:	00133101 	andseq	r3, r3, r1, lsl #2
    1240:	82890a00 	addhi	r0, r9, #0, 20
    1244:	01110101 	tsteq	r1, r1, lsl #2
    1248:	13011331 	movwne	r1, #4913	; 0x1331
    124c:	8a0b0000 	bhi	2c1254 <__bss_end__+0x2b4f7c>
    1250:	02000182 	andeq	r0, r0, #-2147483616	; 0x80000020
    1254:	18429118 	stmdane	r2, {r3, r4, r8, ip, pc}^
    1258:	010c0000 	mrseq	r0, (UNDEF: 12)
    125c:	01134901 	tsteq	r3, r1, lsl #18
    1260:	0d000013 	stceq	0, cr0, [r0, #-76]	; 0xffffffb4
    1264:	13490021 	movtne	r0, #36897	; 0x9021
    1268:	00000b2f 	andeq	r0, r0, pc, lsr #22
    126c:	3f002e0e 	svccc	0x00002e0e
    1270:	3a0e0319 	bcc	381edc <__bss_end__+0x375c04>
    1274:	270b3b0b 	strcs	r3, [fp, -fp, lsl #22]
    1278:	00193c19 	andseq	r3, r9, r9, lsl ip
    127c:	012e0f00 	teqeq	lr, r0, lsl #30
    1280:	0e03193f 	mcreq	9, 0, r1, cr3, cr15, {1}
    1284:	0b3b0b3a 	bleq	ec3f74 <__bss_end__+0xeb7c9c>
    1288:	13491927 	movtne	r1, #39207	; 0x9927
    128c:	1301193c 	movwne	r1, #6460	; 0x193c
    1290:	05100000 	ldreq	r0, [r0, #-0]
    1294:	00134900 	andseq	r4, r3, r0, lsl #18
    1298:	00181100 	andseq	r1, r8, r0, lsl #2
    129c:	01000000 	mrseq	r0, (UNDEF: 0)
    12a0:	0e250111 	mcreq	1, 1, r0, cr5, cr1, {0}
    12a4:	0e030b13 	vmoveq.32	d3[0], r0
    12a8:	01110e1b 	tsteq	r1, fp, lsl lr
    12ac:	17100612 			; <UNDEFINED> instruction: 0x17100612
    12b0:	24020000 	strcs	r0, [r2], #-0
    12b4:	3e0b0b00 	vmlacc.f64	d0, d11, d0
    12b8:	0008030b 	andeq	r0, r8, fp, lsl #6
    12bc:	00240300 	eoreq	r0, r4, r0, lsl #6
    12c0:	0b3e0b0b 	bleq	f83ef4 <__bss_end__+0xf77c1c>
    12c4:	00000e03 	andeq	r0, r0, r3, lsl #28
    12c8:	0b000f04 	bleq	4ee0 <_start-0x3120>
    12cc:	0013490b 	andseq	r4, r3, fp, lsl #18
    12d0:	00260500 	eoreq	r0, r6, r0, lsl #10
    12d4:	00001349 	andeq	r1, r0, r9, asr #6
    12d8:	3f012e06 	svccc	0x00012e06
    12dc:	3a0e0319 	bcc	381f48 <__bss_end__+0x375c70>
    12e0:	270b3b0b 	strcs	r3, [fp, -fp, lsl #22]
    12e4:	12011119 	andne	r1, r1, #1073741830	; 0x40000006
    12e8:	97184006 	ldrls	r4, [r8, -r6]
    12ec:	13011942 	movwne	r1, #6466	; 0x1942
    12f0:	05070000 	streq	r0, [r7, #-0]
    12f4:	3a080300 	bcc	201efc <__bss_end__+0x1f5c24>
    12f8:	490b3b0b 	stmdbmi	fp, {r0, r1, r3, r8, r9, fp, ip, sp}
    12fc:	00170213 	andseq	r0, r7, r3, lsl r2
    1300:	00340800 	eorseq	r0, r4, r0, lsl #16
    1304:	13490e03 	movtne	r0, #40451	; 0x9e03
    1308:	18021934 	stmdane	r2, {r2, r4, r5, r8, fp, ip}
    130c:	89090000 	stmdbhi	r9, {}	; <UNPREDICTABLE>
    1310:	11000182 	smlabbne	r0, r2, r1, r0
    1314:	00133101 	andseq	r3, r3, r1, lsl #2
    1318:	82890a00 	addhi	r0, r9, #0, 20
    131c:	01110101 	tsteq	r1, r1, lsl #2
    1320:	13011331 	movwne	r1, #4913	; 0x1331
    1324:	8a0b0000 	bhi	2c132c <__bss_end__+0x2b5054>
    1328:	02000182 	andeq	r0, r0, #-2147483616	; 0x80000020
    132c:	18429118 	stmdane	r2, {r3, r4, r8, ip, pc}^
    1330:	010c0000 	mrseq	r0, (UNDEF: 12)
    1334:	01134901 	tsteq	r3, r1, lsl #18
    1338:	0d000013 	stceq	0, cr0, [r0, #-76]	; 0xffffffb4
    133c:	13490021 	movtne	r0, #36897	; 0x9021
    1340:	00000b2f 	andeq	r0, r0, pc, lsr #22
    1344:	3f002e0e 	svccc	0x00002e0e
    1348:	3a0e0319 	bcc	381fb4 <__bss_end__+0x375cdc>
    134c:	270b3b0b 	strcs	r3, [fp, -fp, lsl #22]
    1350:	00193c19 	andseq	r3, r9, r9, lsl ip
    1354:	012e0f00 	teqeq	lr, r0, lsl #30
    1358:	0e03193f 	mcreq	9, 0, r1, cr3, cr15, {1}
    135c:	0b3b0b3a 	bleq	ec404c <__bss_end__+0xeb7d74>
    1360:	13491927 	movtne	r1, #39207	; 0x9927
    1364:	1301193c 	movwne	r1, #6460	; 0x193c
    1368:	05100000 	ldreq	r0, [r0, #-0]
    136c:	00134900 	andseq	r4, r3, r0, lsl #18
    1370:	00181100 	andseq	r1, r8, r0, lsl #2
    1374:	Address 0x0000000000001374 is out of bounds.


Disassembly of section .debug_loc:

00000000 <.debug_loc>:
       0:	00000000 	andeq	r0, r0, r0
       4:	0000000f 	andeq	r0, r0, pc
       8:	0f500001 	svceq	0x00500001
       c:	28000000 	stmdacs	r0, {}	; <UNPREDICTABLE>
      10:	04000000 	streq	r0, [r0], #-0
      14:	5001f300 	andpl	pc, r1, r0, lsl #6
      18:	0000289f 	muleq	r0, pc, r8	; <UNPREDICTABLE>
      1c:	00003400 	andeq	r3, r0, r0, lsl #8
      20:	50000100 	andpl	r0, r0, r0, lsl #2
      24:	00000034 	andeq	r0, r0, r4, lsr r0
      28:	00000050 	andeq	r0, r0, r0, asr r0
      2c:	01f30004 	mvnseq	r0, r4
      30:	00009f50 	andeq	r9, r0, r0, asr pc
      34:	00000000 	andeq	r0, r0, r0
      38:	003c0000 	eorseq	r0, ip, r0
      3c:	00400000 	subeq	r0, r0, r0
      40:	00010000 	andeq	r0, r1, r0
      44:	00000050 	andeq	r0, r0, r0, asr r0
      48:	00000000 	andeq	r0, r0, r0
      4c:	00005000 	andeq	r5, r0, r0
      50:	00006800 	andeq	r6, r0, r0, lsl #16
      54:	50000100 	andpl	r0, r0, r0, lsl #2
      58:	00000068 	andeq	r0, r0, r8, rrx
      5c:	000002dc 	ldrdeq	r0, [r0], -ip
      60:	01f30004 	mvnseq	r0, r4
      64:	00009f50 	andeq	r9, r0, r0, asr pc
      68:	00000000 	andeq	r0, r0, r0
      6c:	00500000 	subseq	r0, r0, r0
      70:	02540000 	subseq	r0, r4, #0
      74:	00010000 	andeq	r0, r1, r0
      78:	00025451 	andeq	r5, r2, r1, asr r4
      7c:	00026000 	andeq	r6, r2, r0
      80:	f3000400 	vshl.u8	d0, d0, d0
      84:	609f5101 	addsvs	r5, pc, r1, lsl #2
      88:	68000002 	stmdavs	r0, {r1}
      8c:	01000002 	tsteq	r0, r2
      90:	02685100 	rsbeq	r5, r8, #0, 2
      94:	02dc0000 	sbcseq	r0, ip, #0
      98:	00040000 	andeq	r0, r4, r0
      9c:	9f5101f3 	svcls	0x005101f3
	...
      a8:	00000050 	andeq	r0, r0, r0, asr r0
      ac:	0000005c 	andeq	r0, r0, ip, asr r0
      b0:	5c520001 	mrrcpl	0, 0, r0, r2, cr1
      b4:	dc000000 	stcle	0, cr0, [r0], {-0}
      b8:	04000002 	streq	r0, [r0], #-2
      bc:	5201f300 	andpl	pc, r1, #0, 6
      c0:	0000009f 	muleq	r0, pc, r0	; <UNPREDICTABLE>
      c4:	00000000 	andeq	r0, r0, r0
      c8:	00005800 	andeq	r5, r0, r0, lsl #16
      cc:	00006800 	andeq	r6, r0, r0, lsl #16
      d0:	50000100 	andpl	r0, r0, r0, lsl #2
      d4:	00000068 	andeq	r0, r0, r8, rrx
      d8:	000002dc 	ldrdeq	r0, [r0], -ip
      dc:	01f30004 	mvnseq	r0, r4
      e0:	00009f50 	andeq	r9, r0, r0, asr pc
      e4:	00000000 	andeq	r0, r0, r0
      e8:	00780000 	rsbseq	r0, r8, r0
      ec:	007c0000 	rsbseq	r0, ip, r0
      f0:	00010000 	andeq	r0, r1, r0
      f4:	00000052 	andeq	r0, r0, r2, asr r0
      f8:	00000000 	andeq	r0, r0, r0
      fc:	00008400 	andeq	r8, r0, r0, lsl #8
     100:	00025400 	andeq	r5, r2, r0, lsl #8
     104:	71000900 	tstvc	r0, r0, lsl #18
     108:	1a800800 	bne	fe002110 <__bss_end__+0xfdff5e38>
     10c:	9f1aff08 	svcls	0x001aff08
     110:	00000260 	andeq	r0, r0, r0, ror #4
     114:	00000268 	andeq	r0, r0, r8, ror #4
     118:	00710009 	rsbseq	r0, r1, r9
     11c:	081a8008 	ldmdaeq	sl, {r3, pc}
     120:	009f1aff 			; <UNDEFINED> instruction: 0x009f1aff
     124:	00000000 	andeq	r0, r0, r0
     128:	8c000000 	stchi	0, cr0, [r0], {-0}
     12c:	a0000000 	andge	r0, r0, r0
     130:	04000000 	streq	r0, [r0], #-0
     134:	5001f300 	andpl	pc, r1, r0, lsl #6
     138:	0000009f 	muleq	r0, pc, r0	; <UNPREDICTABLE>
     13c:	00000000 	andeq	r0, r0, r0
     140:	0000a000 	andeq	sl, r0, r0
     144:	0000b000 	andeq	fp, r0, r0
     148:	f3000400 	vshl.u8	d0, d0, d0
     14c:	009f5001 	addseq	r5, pc, r1
     150:	00000000 	andeq	r0, r0, r0
     154:	b8000000 	stmdalt	r0, {}	; <UNPREDICTABLE>
     158:	bc000000 	stclt	0, cr0, [r0], {-0}
     15c:	01000000 	mrseq	r0, (UNDEF: 0)
     160:	00005200 	andeq	r5, r0, r0, lsl #4
     164:	00000000 	andeq	r0, r0, r0
     168:	00c40000 	sbceq	r0, r4, r0
     16c:	02540000 	subseq	r0, r4, #0
     170:	00090000 	andeq	r0, r9, r0
     174:	40080071 	andmi	r0, r8, r1, ror r0
     178:	1aff081a 	bne	fffc21e8 <__bss_end__+0xfffb5f10>
     17c:	0002609f 	muleq	r2, pc, r0	; <UNPREDICTABLE>
     180:	00026800 	andeq	r6, r2, r0, lsl #16
     184:	71000900 	tstvc	r0, r0, lsl #18
     188:	1a400800 	bne	1002190 <__bss_end__+0xff5eb8>
     18c:	9f1aff08 	svcls	0x001aff08
	...
     198:	000000cc 	andeq	r0, r0, ip, asr #1
     19c:	000000e0 	andeq	r0, r0, r0, ror #1
     1a0:	01f30004 	mvnseq	r0, r4
     1a4:	00009f50 	andeq	r9, r0, r0, asr pc
     1a8:	00000000 	andeq	r0, r0, r0
     1ac:	00e00000 	rsceq	r0, r0, r0
     1b0:	00f00000 	rscseq	r0, r0, r0
     1b4:	00040000 	andeq	r0, r4, r0
     1b8:	9f5001f3 	svcls	0x005001f3
	...
     1c4:	000000f8 	strdeq	r0, [r0], -r8
     1c8:	000000fc 	strdeq	r0, [r0], -ip
     1cc:	00520001 	subseq	r0, r2, r1
     1d0:	00000000 	andeq	r0, r0, r0
     1d4:	04000000 	streq	r0, [r0], #-0
     1d8:	54000001 	strpl	r0, [r0], #-1
     1dc:	09000002 	stmdbeq	r0, {r1}
     1e0:	08007100 	stmdaeq	r0, {r8, ip, sp, lr}
     1e4:	ff081a20 			; <UNDEFINED> instruction: 0xff081a20
     1e8:	02609f1a 	rsbeq	r9, r0, #26, 30	; 0x68
     1ec:	02680000 	rsbeq	r0, r8, #0
     1f0:	00090000 	andeq	r0, r9, r0
     1f4:	20080071 	andcs	r0, r8, r1, ror r0
     1f8:	1aff081a 	bne	fffc2268 <__bss_end__+0xfffb5f90>
     1fc:	0000009f 	muleq	r0, pc, r0	; <UNPREDICTABLE>
     200:	00000000 	andeq	r0, r0, r0
     204:	00010c00 	andeq	r0, r1, r0, lsl #24
     208:	00012000 	andeq	r2, r1, r0
     20c:	f3000400 	vshl.u8	d0, d0, d0
     210:	009f5001 	addseq	r5, pc, r1
     214:	00000000 	andeq	r0, r0, r0
     218:	20000000 	andcs	r0, r0, r0
     21c:	30000001 	andcc	r0, r0, r1
     220:	04000001 	streq	r0, [r0], #-1
     224:	5001f300 	andpl	pc, r1, r0, lsl #6
     228:	0000009f 	muleq	r0, pc, r0	; <UNPREDICTABLE>
     22c:	00000000 	andeq	r0, r0, r0
     230:	00013800 	andeq	r3, r1, r0, lsl #16
     234:	00013c00 	andeq	r3, r1, r0, lsl #24
     238:	52000100 	andpl	r0, r0, #0, 2
	...
     244:	00000144 	andeq	r0, r0, r4, asr #2
     248:	00000254 	andeq	r0, r0, r4, asr r2
     24c:	00710008 	rsbseq	r0, r1, r8
     250:	ff081a40 			; <UNDEFINED> instruction: 0xff081a40
     254:	02609f1a 	rsbeq	r9, r0, #26, 30	; 0x68
     258:	02680000 	rsbeq	r0, r8, #0
     25c:	00080000 	andeq	r0, r8, r0
     260:	1a400071 	bne	100042c <__bss_end__+0xff4154>
     264:	9f1aff08 	svcls	0x001aff08
	...
     270:	0000014c 	andeq	r0, r0, ip, asr #2
     274:	00000160 	andeq	r0, r0, r0, ror #2
     278:	01f30004 	mvnseq	r0, r4
     27c:	00009f50 	andeq	r9, r0, r0, asr pc
     280:	00000000 	andeq	r0, r0, r0
     284:	01600000 	cmneq	r0, r0
     288:	01700000 	cmneq	r0, r0
     28c:	00040000 	andeq	r0, r4, r0
     290:	9f5001f3 	svcls	0x005001f3
	...
     29c:	00000178 	andeq	r0, r0, r8, ror r1
     2a0:	0000017c 	andeq	r0, r0, ip, ror r1
     2a4:	00520001 	subseq	r0, r2, r1
     2a8:	00000000 	andeq	r0, r0, r0
     2ac:	84000000 	strhi	r0, [r0], #-0
     2b0:	54000001 	strpl	r0, [r0], #-1
     2b4:	08000002 	stmdaeq	r0, {r1}
     2b8:	38007100 	stmdacc	r0, {r8, ip, sp, lr}
     2bc:	1aff081a 	bne	fffc232c <__bss_end__+0xfffb6054>
     2c0:	0002609f 	muleq	r2, pc, r0	; <UNPREDICTABLE>
     2c4:	00026800 	andeq	r6, r2, r0, lsl #16
     2c8:	71000800 	tstvc	r0, r0, lsl #16
     2cc:	081a3800 	ldmdaeq	sl, {fp, ip, sp}
     2d0:	009f1aff 			; <UNDEFINED> instruction: 0x009f1aff
     2d4:	00000000 	andeq	r0, r0, r0
     2d8:	8c000000 	stchi	0, cr0, [r0], {-0}
     2dc:	a0000001 	andge	r0, r0, r1
     2e0:	04000001 	streq	r0, [r0], #-1
     2e4:	5001f300 	andpl	pc, r1, r0, lsl #6
     2e8:	0000009f 	muleq	r0, pc, r0	; <UNPREDICTABLE>
     2ec:	00000000 	andeq	r0, r0, r0
     2f0:	0001a000 	andeq	sl, r1, r0
     2f4:	0001b000 	andeq	fp, r1, r0
     2f8:	f3000400 	vshl.u8	d0, d0, d0
     2fc:	009f5001 	addseq	r5, pc, r1
     300:	00000000 	andeq	r0, r0, r0
     304:	b8000000 	stmdalt	r0, {}	; <UNPREDICTABLE>
     308:	bc000001 	stclt	0, cr0, [r0], {1}
     30c:	01000001 	tsteq	r0, r1
     310:	00005200 	andeq	r5, r0, r0, lsl #4
     314:	00000000 	andeq	r0, r0, r0
     318:	01c40000 	biceq	r0, r4, r0
     31c:	02540000 	subseq	r0, r4, #0
     320:	00080000 	andeq	r0, r8, r0
     324:	1a340071 	bne	d004f0 <__bss_end__+0xcf4218>
     328:	9f1aff08 	svcls	0x001aff08
     32c:	00000260 	andeq	r0, r0, r0, ror #4
     330:	00000268 	andeq	r0, r0, r8, ror #4
     334:	00710008 	rsbseq	r0, r1, r8
     338:	ff081a34 			; <UNDEFINED> instruction: 0xff081a34
     33c:	00009f1a 	andeq	r9, r0, sl, lsl pc
     340:	00000000 	andeq	r0, r0, r0
     344:	01cc0000 	biceq	r0, ip, r0
     348:	01e00000 	mvneq	r0, r0
     34c:	00040000 	andeq	r0, r4, r0
     350:	9f5001f3 	svcls	0x005001f3
	...
     35c:	000001e0 	andeq	r0, r0, r0, ror #3
     360:	000001f0 	strdeq	r0, [r0], -r0	; <UNPREDICTABLE>
     364:	01f30004 	mvnseq	r0, r4
     368:	00009f50 	andeq	r9, r0, r0, asr pc
     36c:	00000000 	andeq	r0, r0, r0
     370:	01f80000 	mvnseq	r0, r0
     374:	01fc0000 	mvnseq	r0, r0
     378:	00010000 	andeq	r0, r1, r0
     37c:	00000052 	andeq	r0, r0, r2, asr r0
     380:	00000000 	andeq	r0, r0, r0
     384:	00020400 	andeq	r0, r2, r0, lsl #8
     388:	00025400 	andeq	r5, r2, r0, lsl #8
     38c:	71000800 	tstvc	r0, r0, lsl #16
     390:	081a3200 	ldmdaeq	sl, {r9, ip, sp}
     394:	609f1aff 			; <UNDEFINED> instruction: 0x609f1aff
     398:	68000002 	stmdavs	r0, {r1}
     39c:	08000002 	stmdaeq	r0, {r1}
     3a0:	32007100 	andcc	r7, r0, #0, 2
     3a4:	1aff081a 	bne	fffc2414 <__bss_end__+0xfffb613c>
     3a8:	0000009f 	muleq	r0, pc, r0	; <UNPREDICTABLE>
     3ac:	00000000 	andeq	r0, r0, r0
     3b0:	00020c00 	andeq	r0, r2, r0, lsl #24
     3b4:	00022000 	andeq	r2, r2, r0
     3b8:	f3000400 	vshl.u8	d0, d0, d0
     3bc:	009f5001 	addseq	r5, pc, r1
     3c0:	00000000 	andeq	r0, r0, r0
     3c4:	20000000 	andcs	r0, r0, r0
     3c8:	30000002 	andcc	r0, r0, r2
     3cc:	04000002 	streq	r0, [r0], #-2
     3d0:	5001f300 	andpl	pc, r1, r0, lsl #6
     3d4:	0000009f 	muleq	r0, pc, r0	; <UNPREDICTABLE>
     3d8:	00000000 	andeq	r0, r0, r0
     3dc:	00023800 	andeq	r3, r2, r0, lsl #16
     3e0:	00023c00 	andeq	r3, r2, r0, lsl #24
     3e4:	52000100 	andpl	r0, r0, #0, 2
	...
     3f0:	00000244 	andeq	r0, r0, r4, asr #4
     3f4:	00000254 	andeq	r0, r0, r4, asr r2
     3f8:	00710008 	rsbseq	r0, r1, r8
     3fc:	ff081a31 			; <UNDEFINED> instruction: 0xff081a31
     400:	02609f1a 	rsbeq	r9, r0, #26, 30	; 0x68
     404:	02680000 	rsbeq	r0, r8, #0
     408:	00080000 	andeq	r0, r8, r0
     40c:	1a310071 	bne	c405d8 <__bss_end__+0xc34300>
     410:	9f1aff08 	svcls	0x001aff08
	...
     41c:	0000024c 	andeq	r0, r0, ip, asr #4
     420:	00000260 	andeq	r0, r0, r0, ror #4
     424:	01f30004 	mvnseq	r0, r4
     428:	00009f50 	andeq	r9, r0, r0, asr pc
     42c:	00000000 	andeq	r0, r0, r0
     430:	02600000 	rsbeq	r0, r0, #0
     434:	02700000 	rsbseq	r0, r0, #0
     438:	00040000 	andeq	r0, r4, r0
     43c:	9f5001f3 	svcls	0x005001f3
	...
     448:	00000278 	andeq	r0, r0, r8, ror r2
     44c:	0000027c 	andeq	r0, r0, ip, ror r2
     450:	00520001 	subseq	r0, r2, r1
     454:	00000000 	andeq	r0, r0, r0
     458:	9c000000 	stcls	0, cr0, [r0], {-0}
     45c:	a0000002 	andge	r0, r0, r2
     460:	01000002 	tsteq	r0, r2
     464:	00005200 	andeq	r5, r0, r0, lsl #4
     468:	00000000 	andeq	r0, r0, r0
     46c:	02dc0000 	sbcseq	r0, ip, #0
     470:	02ec0000 	rsceq	r0, ip, #0
     474:	00010000 	andeq	r0, r1, r0
     478:	0002ec50 	andeq	lr, r2, r0, asr ip
     47c:	0003ec00 	andeq	lr, r3, r0, lsl #24
     480:	58000100 	stmdapl	r0, {r8}
	...
     48c:	000002dc 	ldrdeq	r0, [r0], -ip
     490:	000002ef 	andeq	r0, r0, pc, ror #5
     494:	ef510001 	svc	0x00510001
     498:	ec000002 	stc	0, cr0, [r0], {2}
     49c:	04000003 	streq	r0, [r0], #-3
     4a0:	5101f300 	mrspl	pc, SP_irq	; <UNPREDICTABLE>
     4a4:	0000009f 	muleq	r0, pc, r0	; <UNPREDICTABLE>
     4a8:	00000000 	andeq	r0, r0, r0
     4ac:	0002dc00 	andeq	sp, r2, r0, lsl #24
     4b0:	0002ef00 	andeq	lr, r2, r0, lsl #30
     4b4:	52000100 	andpl	r0, r0, #0, 2
     4b8:	000002ef 	andeq	r0, r0, pc, ror #5
     4bc:	000003ec 	andeq	r0, r0, ip, ror #7
     4c0:	005b0001 	subseq	r0, fp, r1
     4c4:	00000000 	andeq	r0, r0, r0
     4c8:	24000000 	strcs	r0, [r0], #-0
     4cc:	b4000003 	strlt	r0, [r0], #-3
     4d0:	06000003 	streq	r0, [r0], -r3
     4d4:	9ea80300 	cdpls	3, 10, cr0, cr8, cr0, {0}
     4d8:	009f0000 	addseq	r0, pc, r0
     4dc:	00000000 	andeq	r0, r0, r0
     4e0:	24000000 	strcs	r0, [r0], #-0
     4e4:	a4000003 	strge	r0, [r0], #-3
     4e8:	06000003 	streq	r0, [r0], -r3
     4ec:	9ea80300 	cdpls	3, 10, cr0, cr8, cr0, {0}
     4f0:	009f0000 	addseq	r0, pc, r0
     4f4:	00000000 	andeq	r0, r0, r0
     4f8:	24000000 	strcs	r0, [r0], #-0
     4fc:	40000003 	andmi	r0, r0, r3
     500:	02000003 	andeq	r0, r0, #3
     504:	409f3000 	addsmi	r3, pc, r0
     508:	58000003 	stmdapl	r0, {r0, r1}
     50c:	01000003 	tsteq	r0, r3
     510:	03585200 	cmpeq	r8, #0, 4
     514:	03600000 	cmneq	r0, #0
     518:	00020000 	andeq	r0, r2, r0
     51c:	03609f30 	cmneq	r0, #48, 30	; 0xc0
     520:	036b0000 	cmneq	fp, #0
     524:	00010000 	andeq	r0, r1, r0
     528:	00038452 	andeq	r8, r3, r2, asr r4
     52c:	00038b00 	andeq	r8, r3, r0, lsl #22
     530:	52000100 	andpl	r0, r0, #0, 2
	...
     53c:	00000324 	andeq	r0, r0, r4, lsr #6
     540:	000003a4 	andeq	r0, r0, r4, lsr #7
     544:	2ef20006 	cdpcs	0, 15, cr0, cr2, cr6, {0}
     548:	00000009 	andeq	r0, r0, r9
	...
     554:	00000338 	andeq	r0, r0, r8, lsr r3
     558:	00000344 	andeq	r0, r0, r4, asr #6
     55c:	44530001 	ldrbmi	r0, [r3], #-1
     560:	50000003 	andpl	r0, r0, r3
     564:	05000003 	streq	r0, [r0, #-3]
     568:	beb00300 	cdplt	3, 11, cr0, cr0, cr0, {0}
	...
     574:	03ec0000 	mvneq	r0, #0
     578:	03f30000 	mvnseq	r0, #0
     57c:	00010000 	andeq	r0, r1, r0
     580:	0003f350 	andeq	pc, r3, r0, asr r3	; <UNPREDICTABLE>
     584:	00063000 	andeq	r3, r6, r0
     588:	f3000400 	vshl.u8	d0, d0, d0
     58c:	009f5001 	addseq	r5, pc, r1
     590:	00000000 	andeq	r0, r0, r0
     594:	f4000000 	vst4.8	{d0-d3}, [r0], r0
     598:	44000003 	strmi	r0, [r0], #-3
     59c:	02000004 	andeq	r0, r0, #4
     5a0:	449f3000 	ldrmi	r3, [pc], #0	; 5a8 <_start-0x7a58>
     5a4:	8c000004 	stchi	0, cr0, [r0], {4}
     5a8:	01000005 	tsteq	r0, r5
     5ac:	058c5c00 	streq	r5, [ip, #3072]	; 0xc00
     5b0:	05c00000 	strbeq	r0, [r0]
     5b4:	00010000 	andeq	r0, r1, r0
     5b8:	00000050 	andeq	r0, r0, r0, asr r0
     5bc:	00000000 	andeq	r0, r0, r0
     5c0:	0003f800 	andeq	pc, r3, r0, lsl #16
     5c4:	0005a800 	andeq	sl, r5, r0, lsl #16
     5c8:	53000100 	movwpl	r0, #256	; 0x100
	...
     5d4:	00000410 	andeq	r0, r0, r0, lsl r4
     5d8:	00000414 	andeq	r0, r0, r4, lsl r4
     5dc:	00520001 	subseq	r0, r2, r1
     5e0:	00000000 	andeq	r0, r0, r0
     5e4:	24000000 	strcs	r0, [r0], #-0
     5e8:	28000004 	stmdacs	r0, {r2}
     5ec:	01000004 	tsteq	r0, r4
     5f0:	00005200 	andeq	r5, r0, r0, lsl #4
     5f4:	00000000 	andeq	r0, r0, r0
     5f8:	044c0000 	strbeq	r0, [ip], #-0
     5fc:	04500000 	ldrbeq	r0, [r0], #-0
     600:	00010000 	andeq	r0, r1, r0
     604:	00000052 	andeq	r0, r0, r2, asr r0
     608:	00000000 	andeq	r0, r0, r0
     60c:	00047c00 	andeq	r7, r4, r0, lsl #24
     610:	00048000 	andeq	r8, r4, r0
     614:	52000100 	andpl	r0, r0, #0, 2
	...
     620:	000004ac 	andeq	r0, r0, ip, lsr #9
     624:	000004b0 			; <UNDEFINED> instruction: 0x000004b0
     628:	00520001 	subseq	r0, r2, r1
     62c:	00000000 	andeq	r0, r0, r0
     630:	dc000000 	stcle	0, cr0, [r0], {-0}
     634:	e0000004 	and	r0, r0, r4
     638:	01000004 	tsteq	r0, r4
     63c:	00005200 	andeq	r5, r0, r0, lsl #4
     640:	00000000 	andeq	r0, r0, r0
     644:	050c0000 	streq	r0, [ip, #-0]
     648:	05100000 	ldreq	r0, [r0, #-0]
     64c:	00010000 	andeq	r0, r1, r0
     650:	00000052 	andeq	r0, r0, r2, asr r0
     654:	00000000 	andeq	r0, r0, r0
     658:	00053c00 	andeq	r3, r5, r0, lsl #24
     65c:	00054000 	andeq	r4, r5, r0
     660:	52000100 	andpl	r0, r0, #0, 2
	...
     66c:	0000056c 	andeq	r0, r0, ip, ror #10
     670:	00000570 	andeq	r0, r0, r0, ror r5
     674:	00520001 	subseq	r0, r2, r1
     678:	00000000 	andeq	r0, r0, r0
     67c:	94000000 	strls	r0, [r0], #-0
     680:	98000005 	stmdals	r0, {r0, r2}
     684:	01000005 	tsteq	r0, r5
     688:	00005200 	andeq	r5, r0, r0, lsl #4
     68c:	00000000 	andeq	r0, r0, r0
     690:	05a40000 	streq	r0, [r4, #0]!
     694:	05c00000 	strbeq	r0, [r0]
     698:	00010000 	andeq	r0, r1, r0
     69c:	0005c050 	andeq	ip, r5, r0, asr r0
     6a0:	0005ef00 	andeq	lr, r5, r0, lsl #30
     6a4:	5c000100 	stfpls	f0, [r0], {-0}
	...
     6b0:	000005b0 			; <UNDEFINED> instruction: 0x000005b0
     6b4:	000005d8 	ldrdeq	r0, [r0], -r8
     6b8:	d8510001 	ldmdale	r1, {r0}^
     6bc:	ef000005 	svc	0x00000005
     6c0:	05000005 	streq	r0, [r0, #-5]
     6c4:	beac0300 	cdplt	3, 10, cr0, cr12, cr0, {0}
	...
     6d0:	07480000 	strbeq	r0, [r8, -r0]
     6d4:	07780000 	ldrbeq	r0, [r8, -r0]!
     6d8:	00020000 	andeq	r0, r2, r0
     6dc:	07789f42 	ldrbeq	r9, [r8, -r2, asr #30]!
     6e0:	07900000 	ldreq	r0, [r0, r0]
     6e4:	00010000 	andeq	r0, r1, r0
     6e8:	00079050 	andeq	r9, r7, r0, asr r0
     6ec:	00079800 	andeq	r9, r7, r0, lsl #16
     6f0:	42000200 	andmi	r0, r0, #0, 4
     6f4:	0007989f 	muleq	r7, pc, r8	; <UNPREDICTABLE>
     6f8:	0007c300 	andeq	ip, r7, r0, lsl #6
     6fc:	50000100 	andpl	r0, r0, r0, lsl #2
     700:	000007dc 	ldrdeq	r0, [r0], -ip
     704:	000007df 	ldrdeq	r0, [r0], -pc	; <UNPREDICTABLE>
     708:	00500001 	subseq	r0, r0, r1
     70c:	00000000 	andeq	r0, r0, r0
     710:	70000000 	andvc	r0, r0, r0
     714:	7c000007 	stcvc	0, cr0, [r0], {7}
     718:	01000007 	tsteq	r0, r7
     71c:	077c5100 	ldrbeq	r5, [ip, -r0, lsl #2]!
     720:	07900000 	ldreq	r0, [r0, r0]
     724:	00050000 	andeq	r0, r5, r0
     728:	00beb003 	adcseq	fp, lr, r3
	...
     738:	00000400 	andeq	r0, r0, r0, lsl #8
     73c:	52000100 	andpl	r0, r0, #0, 2
     740:	00000004 	andeq	r0, r0, r4
     744:	00000020 	andeq	r0, r0, r0, lsr #32
     748:	01f30004 	mvnseq	r0, r4
     74c:	00009f52 	andeq	r9, r0, r2, asr pc
	...
     758:	000c0000 	andeq	r0, ip, r0
     75c:	00010000 	andeq	r0, r1, r0
     760:	00000c50 	andeq	r0, r0, r0, asr ip
     764:	00001400 	andeq	r1, r0, r0, lsl #8
     768:	73000300 	movwvc	r0, #768	; 0x300
     76c:	00149f01 	andseq	r9, r4, r1, lsl #30
     770:	00200000 	eoreq	r0, r0, r0
     774:	00010000 	andeq	r0, r1, r0
     778:	00000053 	andeq	r0, r0, r3, asr r0
     77c:	00000000 	andeq	r0, r0, r0
     780:	00002c00 	andeq	r2, r0, r0, lsl #24
     784:	00003800 	andeq	r3, r0, r0, lsl #16
     788:	50000100 	andpl	r0, r0, r0, lsl #2
     78c:	00000038 	andeq	r0, r0, r8, lsr r0
     790:	00000048 	andeq	r0, r0, r8, asr #32
     794:	48550001 	ldmdami	r5, {r0}^
     798:	58000000 	stmdapl	r0, {}	; <UNPREDICTABLE>
     79c:	01000000 	mrseq	r0, (UNDEF: 0)
     7a0:	00005000 	andeq	r5, r0, r0
	...
     7ac:	000b0000 	andeq	r0, fp, r0
     7b0:	00010000 	andeq	r0, r1, r0
     7b4:	00000b50 	andeq	r0, r0, r0, asr fp
     7b8:	00001400 	andeq	r1, r0, r0, lsl #8
     7bc:	54000100 	strpl	r0, [r0], #-256	; 0x100
	...
     7cc:	00000010 	andeq	r0, r0, r0, lsl r0
     7d0:	10500001 	subsne	r0, r0, r1
     7d4:	34000000 	strcc	r0, [r0], #-0
     7d8:	01000000 	mrseq	r0, (UNDEF: 0)
     7dc:	00005400 	andeq	r5, r0, r0, lsl #8
	...
     7e8:	00040000 	andeq	r0, r4, r0
     7ec:	00010000 	andeq	r0, r1, r0
     7f0:	00000450 	andeq	r0, r0, r0, asr r4
     7f4:	00000c00 	andeq	r0, r0, r0, lsl #24
     7f8:	70000300 	andvc	r0, r0, r0, lsl #6
     7fc:	000c9f30 	andeq	r9, ip, r0, lsr pc
     800:	00140000 	andseq	r0, r4, r0
     804:	00040000 	andeq	r0, r4, r0
     808:	9f5001f3 	svcls	0x005001f3
	...
     814:	00000014 	andeq	r0, r0, r4, lsl r0
     818:	00000020 	andeq	r0, r0, r0, lsr #32
     81c:	20500001 	subscs	r0, r0, r1
     820:	2c000000 	stccs	0, cr0, [r0], {-0}
     824:	03000000 	movweq	r0, #0
     828:	9f017000 	svcls	0x00017000
     82c:	0000002c 	andeq	r0, r0, ip, lsr #32
     830:	00000040 	andeq	r0, r0, r0, asr #32
     834:	00500001 	subseq	r0, r0, r1
     838:	00000000 	andeq	r0, r0, r0
     83c:	14000000 	strne	r0, [r0], #-0
     840:	18000000 	stmdane	r0, {}	; <UNPREDICTABLE>
     844:	01000000 	mrseq	r0, (UNDEF: 0)
     848:	00185100 	andseq	r5, r8, r0, lsl #2
     84c:	00400000 	subeq	r0, r0, r0
     850:	00040000 	andeq	r0, r4, r0
     854:	9f5101f3 	svcls	0x005101f3
	...
     860:	00000040 	andeq	r0, r0, r0, asr #32
     864:	00000060 	andeq	r0, r0, r0, rrx
     868:	60500001 	subsvs	r0, r0, r1
     86c:	6c000000 	stcvs	0, cr0, [r0], {-0}
     870:	03000000 	movweq	r0, #0
     874:	9f017100 	svcls	0x00017100
     878:	0000006c 	andeq	r0, r0, ip, rrx
     87c:	00000074 	andeq	r0, r0, r4, ror r0
     880:	74510001 	ldrbvc	r0, [r1], #-1
     884:	80000000 	andhi	r0, r0, r0
     888:	03000000 	movweq	r0, #0
     88c:	9f017100 	svcls	0x00017100
	...
     898:	00000040 	andeq	r0, r0, r0, asr #32
     89c:	00000050 	andeq	r0, r0, r0, asr r0
     8a0:	50510001 	subspl	r0, r1, r1
     8a4:	80000000 	andhi	r0, r0, r0
     8a8:	04000000 	streq	r0, [r0], #-0
     8ac:	5101f300 	mrspl	pc, SP_irq	; <UNPREDICTABLE>
     8b0:	0000009f 	muleq	r0, pc, r0	; <UNPREDICTABLE>
     8b4:	00000000 	andeq	r0, r0, r0
     8b8:	00004000 	andeq	r4, r0, r0
     8bc:	00005800 	andeq	r5, r0, r0, lsl #16
     8c0:	52000100 	andpl	r0, r0, #0, 2
     8c4:	00000058 	andeq	r0, r0, r8, asr r0
     8c8:	00000064 	andeq	r0, r0, r4, rrx
     8cc:	64520001 	ldrbvs	r0, [r2], #-1
     8d0:	68000000 	stmdavs	r0, {}	; <UNPREDICTABLE>
     8d4:	03000000 	movweq	r0, #0
     8d8:	9f017200 	svcls	0x00017200
     8dc:	00000068 	andeq	r0, r0, r8, rrx
     8e0:	00000080 	andeq	r0, r0, r0, lsl #1
     8e4:	00520001 	subseq	r0, r2, r1
     8e8:	00000000 	andeq	r0, r0, r0
     8ec:	40000000 	andmi	r0, r0, r0
     8f0:	54000000 	strpl	r0, [r0], #-0
     8f4:	01000000 	mrseq	r0, (UNDEF: 0)
     8f8:	00545300 	subseq	r5, r4, r0, lsl #6
     8fc:	00780000 	rsbseq	r0, r8, r0
     900:	00010000 	andeq	r0, r1, r0
     904:	00000053 	andeq	r0, r0, r3, asr r0
     908:	00000000 	andeq	r0, r0, r0
     90c:	00004800 	andeq	r4, r0, r0, lsl #16
     910:	00006000 	andeq	r6, r0, r0
     914:	5c000100 	stfpls	f0, [r0], {-0}
     918:	00000060 	andeq	r0, r0, r0, rrx
     91c:	00000080 	andeq	r0, r0, r0, lsl #1
     920:	01f3000a 	mvnseq	r0, sl
     924:	5301f352 	movwpl	pc, #4946	; 0x1352	; <UNPREDICTABLE>
     928:	9f01231c 	svcls	0x0001231c
	...
     934:	00000080 	andeq	r0, r0, r0, lsl #1
     938:	000000a4 	andeq	r0, r0, r4, lsr #1
     93c:	a4500001 	ldrbge	r0, [r0], #-1
     940:	18000000 	stmdane	r0, {}	; <UNPREDICTABLE>
     944:	03000001 	movweq	r0, #1
     948:	9f027000 	svcls	0x00027000
     94c:	00000118 	andeq	r0, r0, r8, lsl r1
     950:	0000021c 	andeq	r0, r0, ip, lsl r2
     954:	01f30004 	mvnseq	r0, r4
     958:	00009f50 	andeq	r9, r0, r0, asr pc
     95c:	00000000 	andeq	r0, r0, r0
     960:	00800000 	addeq	r0, r0, r0
     964:	00f00000 	rscseq	r0, r0, r0
     968:	00010000 	andeq	r0, r1, r0
     96c:	0000f051 	andeq	pc, r0, r1, asr r0	; <UNPREDICTABLE>
     970:	00016000 	andeq	r6, r1, r0
     974:	55000100 	strpl	r0, [r0, #-256]	; 0x100
     978:	00000160 	andeq	r0, r0, r0, ror #2
     97c:	00000168 	andeq	r0, r0, r8, ror #2
     980:	68510001 	ldmdavs	r1, {r0}^
     984:	88000001 	stmdahi	r0, {r0}
     988:	01000001 	tsteq	r0, r1
     98c:	01885500 	orreq	r5, r8, r0, lsl #10
     990:	019c0000 	orrseq	r0, ip, r0
     994:	00010000 	andeq	r0, r1, r0
     998:	00019c51 	andeq	r9, r1, r1, asr ip
     99c:	0001bc00 	andeq	fp, r1, r0, lsl #24
     9a0:	55000100 	strpl	r0, [r0, #-256]	; 0x100
     9a4:	000001bc 			; <UNDEFINED> instruction: 0x000001bc
     9a8:	000001bf 			; <UNDEFINED> instruction: 0x000001bf
     9ac:	bf510001 	svclt	0x00510001
     9b0:	00000001 	andeq	r0, r0, r1
     9b4:	01000002 	tsteq	r0, r2
     9b8:	02005500 	andeq	r5, r0, #0, 10
     9bc:	021c0000 	andseq	r0, ip, #0
     9c0:	00040000 	andeq	r0, r4, r0
     9c4:	9f5101f3 	svcls	0x005101f3
	...
     9d0:	00000080 	andeq	r0, r0, r0, lsl #1
     9d4:	00000094 	muleq	r0, r4, r0
     9d8:	94520001 	ldrbls	r0, [r2], #-1
     9dc:	00000000 	andeq	r0, r0, r0
     9e0:	01000002 	tsteq	r0, r2
     9e4:	02005400 	andeq	r5, r0, #0, 8
     9e8:	021c0000 	andseq	r0, ip, #0
     9ec:	00040000 	andeq	r0, r4, r0
     9f0:	9f5201f3 	svcls	0x005201f3
	...
     9fc:	00000080 	andeq	r0, r0, r0, lsl #1
     a00:	00000100 	andeq	r0, r0, r0, lsl #2
     a04:	04530001 	ldrbeq	r0, [r3], #-1
     a08:	08000001 	stmdaeq	r0, {r0}
     a0c:	01000001 	tsteq	r0, r1
     a10:	01605300 	cmneq	r0, r0, lsl #6
     a14:	01680000 	cmneq	r8, r0
     a18:	00010000 	andeq	r0, r1, r0
     a1c:	00016853 	andeq	r6, r1, r3, asr r8
     a20:	00018800 	andeq	r8, r1, r0, lsl #16
     a24:	f3000400 	vshl.u8	d0, d0, d0
     a28:	889f5301 	ldmhi	pc, {r0, r8, r9, ip, lr}	; <UNPREDICTABLE>
     a2c:	90000001 	andls	r0, r0, r1
     a30:	01000001 	tsteq	r0, r1
     a34:	01905300 	orrseq	r5, r0, r0, lsl #6
     a38:	01940000 	orrseq	r0, r4, r0
     a3c:	00010000 	andeq	r0, r1, r0
     a40:	0001945c 	andeq	r9, r1, ip, asr r4
     a44:	00019c00 	andeq	r9, r1, r0, lsl #24
     a48:	53000100 	movwpl	r0, #256	; 0x100
     a4c:	0000019c 	muleq	r0, ip, r1
     a50:	000001bc 			; <UNDEFINED> instruction: 0x000001bc
     a54:	01f30004 	mvnseq	r0, r4
     a58:	01bc9f53 			; <UNDEFINED> instruction: 0x01bc9f53
     a5c:	01bf0000 			; <UNDEFINED> instruction: 0x01bf0000
     a60:	00010000 	andeq	r0, r1, r0
     a64:	0001bf53 	andeq	fp, r1, r3, asr pc
     a68:	0001d800 	andeq	sp, r1, r0, lsl #16
     a6c:	f3000400 	vshl.u8	d0, d0, d0
     a70:	009f5301 	addseq	r5, pc, r1, lsl #6
     a74:	00000000 	andeq	r0, r0, r0
     a78:	80000000 	andhi	r0, r0, r0
     a7c:	9c000000 	stcls	0, cr0, [r0], {-0}
     a80:	02000000 	andeq	r0, r0, #0
     a84:	9c009100 	stflsd	f1, [r0], {-0}
     a88:	bf000000 	svclt	0x00000000
     a8c:	01000001 	tsteq	r0, r1
     a90:	01d85200 	bicseq	r5, r8, r0, lsl #4
     a94:	01e30000 	mvneq	r0, r0
     a98:	00010000 	andeq	r0, r1, r0
     a9c:	00000052 	andeq	r0, r0, r2, asr r0
     aa0:	00000000 	andeq	r0, r0, r0
     aa4:	00009c00 	andeq	r9, r0, r0, lsl #24
     aa8:	00011800 	andeq	r1, r1, r0, lsl #16
     aac:	5d000100 	stfpls	f0, [r0, #-0]
     ab0:	00000118 	andeq	r0, r0, r8, lsl r1
     ab4:	0000011c 	andeq	r0, r0, ip, lsl r1
     ab8:	1c530001 	mrrcne	0, 0, r0, r3, cr1
     abc:	20000001 	andcs	r0, r0, r1
     ac0:	01000001 	tsteq	r0, r1
     ac4:	01205100 	teqeq	r0, r0, lsl #2
     ac8:	01600000 	cmneq	r0, r0
     acc:	00010000 	andeq	r0, r1, r0
     ad0:	00016053 	andeq	r6, r1, r3, asr r0
     ad4:	00016800 	andeq	r6, r1, r0, lsl #16
     ad8:	5d000100 	stfpls	f0, [r0, #-0]
     adc:	00000168 	andeq	r0, r0, r8, ror #2
     ae0:	0000016c 	andeq	r0, r0, ip, ror #2
     ae4:	6c5e0001 	mrrcvs	0, 0, r0, lr, cr1
     ae8:	88000001 	stmdahi	r0, {r0}
     aec:	01000001 	tsteq	r0, r1
     af0:	01885300 	orreq	r5, r8, r0, lsl #6
     af4:	01900000 	orrseq	r0, r0, r0
     af8:	00040000 	andeq	r0, r4, r0
     afc:	9f7fa191 	svcls	0x007fa191
     b00:	00000190 	muleq	r0, r0, r1
     b04:	00000194 	muleq	r0, r4, r1
     b08:	94530001 	ldrbls	r0, [r3], #-1
     b0c:	9c000001 	stcls	0, cr0, [r0], {1}
     b10:	01000001 	tsteq	r0, r1
     b14:	019c5d00 	orrseq	r5, ip, r0, lsl #26
     b18:	01a00000 	moveq	r0, r0
     b1c:	00010000 	andeq	r0, r1, r0
     b20:	0001a05e 	andeq	sl, r1, lr, asr r0
     b24:	0001bc00 	andeq	fp, r1, r0, lsl #24
     b28:	53000100 	movwpl	r0, #256	; 0x100
     b2c:	000001bc 			; <UNDEFINED> instruction: 0x000001bc
     b30:	000001d8 	ldrdeq	r0, [r0], -r8
     b34:	d85d0001 	ldmdale	sp, {r0}^
     b38:	e3000001 	movw	r0, #1
     b3c:	01000001 	tsteq	r0, r1
     b40:	00005300 	andeq	r5, r0, r0, lsl #6
     b44:	00000000 	andeq	r0, r0, r0
     b48:	00a00000 	adceq	r0, r0, r0
     b4c:	00ec0000 	rsceq	r0, ip, r0
     b50:	00010000 	andeq	r0, r1, r0
     b54:	0000ec5c 	andeq	lr, r0, ip, asr ip
     b58:	00010000 	andeq	r0, r1, r0
     b5c:	53000100 	movwpl	r0, #256	; 0x100
     b60:	00000100 	andeq	r0, r0, r0, lsl #2
     b64:	00000104 	andeq	r0, r0, r4, lsl #2
     b68:	045c0001 	ldrbeq	r0, [ip], #-1
     b6c:	08000001 	stmdaeq	r0, {r0}
     b70:	01000001 	tsteq	r0, r1
     b74:	01085300 	mrseq	r5, (UNDEF: 56)
     b78:	01180000 	tsteq	r8, r0
     b7c:	00010000 	andeq	r0, r1, r0
     b80:	0001185c 	andeq	r1, r1, ip, asr r8
     b84:	00011c00 	andeq	r1, r1, r0, lsl #24
     b88:	50000100 	andpl	r0, r0, r0, lsl #2
     b8c:	0000011c 	andeq	r0, r0, ip, lsl r1
     b90:	0000013c 	andeq	r0, r0, ip, lsr r1
     b94:	445c0001 	ldrbmi	r0, [ip], #-1
     b98:	58000001 	stmdapl	r0, {r0}
     b9c:	01000001 	tsteq	r0, r1
     ba0:	01585000 	cmpeq	r8, r0
     ba4:	01600000 	cmneq	r0, r0
     ba8:	00010000 	andeq	r0, r1, r0
     bac:	0001605c 	andeq	r6, r1, ip, asr r0
     bb0:	00016800 	andeq	r6, r1, r0, lsl #16
     bb4:	53000100 	movwpl	r0, #256	; 0x100
     bb8:	00000168 	andeq	r0, r0, r8, ror #2
     bbc:	00000178 	andeq	r0, r0, r8, ror r1
     bc0:	785c0001 	ldmdavc	ip, {r0}^
     bc4:	80000001 	andhi	r0, r0, r1
     bc8:	05000001 	streq	r0, [r0, #-1]
     bcc:	34007c00 	strcc	r7, [r0], #-3072	; 0xc00
     bd0:	01809f25 	orreq	r9, r0, r5, lsr #30
     bd4:	01880000 	orreq	r0, r8, r0
     bd8:	00010000 	andeq	r0, r1, r0
     bdc:	0001885c 	andeq	r8, r1, ip, asr r8
     be0:	00019000 	andeq	r9, r1, r0
     be4:	53000100 	movwpl	r0, #256	; 0x100
     be8:	00000190 	muleq	r0, r0, r1
     bec:	00000194 	muleq	r0, r4, r1
     bf0:	945c0001 	ldrbls	r0, [ip], #-1
     bf4:	9c000001 	stcls	0, cr0, [r0], {1}
     bf8:	01000001 	tsteq	r0, r1
     bfc:	019c5300 	orrseq	r5, ip, r0, lsl #6
     c00:	01ac0000 			; <UNDEFINED> instruction: 0x01ac0000
     c04:	00010000 	andeq	r0, r1, r0
     c08:	0001ac5c 	andeq	sl, r1, ip, asr ip
     c0c:	0001b400 	andeq	fp, r1, r0, lsl #8
     c10:	7c000500 	cfstr32vc	mvfx0, [r0], {-0}
     c14:	9f253100 	svcls	0x00253100
     c18:	000001b4 			; <UNDEFINED> instruction: 0x000001b4
     c1c:	000001bc 			; <UNDEFINED> instruction: 0x000001bc
     c20:	bc5c0001 	mrrclt	0, 0, r0, ip, cr1
     c24:	bf000001 	svclt	0x00000001
     c28:	01000001 	tsteq	r0, r1
     c2c:	01bf5300 			; <UNDEFINED> instruction: 0x01bf5300
     c30:	01d80000 	bicseq	r0, r8, r0
     c34:	00040000 	andeq	r0, r4, r0
     c38:	9f5301f3 	svcls	0x005301f3
     c3c:	000001d8 	ldrdeq	r0, [r0], -r8
     c40:	000001e3 	andeq	r0, r0, r3, ror #3
     c44:	005c0001 	subseq	r0, ip, r1
     c48:	00000000 	andeq	r0, r0, r0
     c4c:	ec000000 	stc	0, cr0, [r0], {-0}
     c50:	fc000000 	stc2	0, cr0, [r0], {-0}
     c54:	02000000 	andeq	r0, r0, #0
     c58:	fc9f3000 	ldc2	0, cr3, [pc], {0}
     c5c:	04000000 	streq	r0, [r0], #-0
     c60:	02000001 	andeq	r0, r0, #1
     c64:	049f3100 	ldreq	r3, [pc], #256	; c6c <_start-0x7394>
     c68:	08000001 	stmdaeq	r0, {r0}
     c6c:	02000001 	andeq	r0, r0, #1
     c70:	009f3000 	addseq	r3, pc, r0
     c74:	00000000 	andeq	r0, r0, r0
     c78:	1c000000 	stcne	0, cr0, [r0], {-0}
     c7c:	2b000002 	blcs	c8c <_start-0x7374>
     c80:	01000002 	tsteq	r0, r2
     c84:	022b5000 	eoreq	r5, fp, #0
     c88:	02440000 	subeq	r0, r4, #0
     c8c:	00040000 	andeq	r0, r4, r0
     c90:	9f5001f3 	svcls	0x005001f3
     c94:	00000244 	andeq	r0, r0, r4, asr #4
     c98:	00000270 	andeq	r0, r0, r0, ror r2
     c9c:	00500001 	subseq	r0, r0, r1
     ca0:	00000000 	andeq	r0, r0, r0
     ca4:	1c000000 	stcne	0, cr0, [r0], {-0}
     ca8:	2b000002 	blcs	cb8 <_start-0x7348>
     cac:	01000002 	tsteq	r0, r2
     cb0:	022b5100 	eoreq	r5, fp, #0, 2
     cb4:	02440000 	subeq	r0, r4, #0
     cb8:	00040000 	andeq	r0, r4, r0
     cbc:	9f5101f3 	svcls	0x005101f3
     cc0:	00000244 	andeq	r0, r0, r4, asr #4
     cc4:	00000270 	andeq	r0, r0, r0, ror r2
     cc8:	00510001 	subseq	r0, r1, r1
     ccc:	00000000 	andeq	r0, r0, r0
     cd0:	70000000 	andvc	r0, r0, r0
     cd4:	9c000002 	stcls	0, cr0, [r0], {2}
     cd8:	01000002 	tsteq	r0, r2
     cdc:	029c5000 	addseq	r5, ip, #0
     ce0:	04e40000 	strbteq	r0, [r4], #0
     ce4:	00010000 	andeq	r0, r1, r0
     ce8:	0004e45a 	andeq	lr, r4, sl, asr r4
     cec:	0004f800 	andeq	pc, r4, r0, lsl #16
     cf0:	f3000400 	vshl.u8	d0, d0, d0
     cf4:	009f5001 	addseq	r5, pc, r1
     cf8:	00000000 	andeq	r0, r0, r0
     cfc:	70000000 	andvc	r0, r0, r0
     d00:	84000002 	strhi	r0, [r0], #-2
     d04:	01000002 	tsteq	r0, r2
     d08:	02845100 	addeq	r5, r4, #0, 2
     d0c:	029c0000 	addseq	r0, ip, #0
     d10:	00030000 	andeq	r0, r3, r0
     d14:	9c9f0171 	ldflss	f0, [pc], {113}	; 0x71
     d18:	f8000002 			; <UNDEFINED> instruction: 0xf8000002
     d1c:	04000004 	streq	r0, [r0], #-4
     d20:	5101f300 	mrspl	pc, SP_irq	; <UNPREDICTABLE>
     d24:	0000009f 	muleq	r0, pc, r0	; <UNPREDICTABLE>
     d28:	00000000 	andeq	r0, r0, r0
     d2c:	00027000 	andeq	r7, r2, r0
     d30:	0002a400 	andeq	sl, r2, r0, lsl #8
     d34:	52000100 	andpl	r0, r0, #0, 2
     d38:	000002a4 	andeq	r0, r0, r4, lsr #5
     d3c:	000002cc 	andeq	r0, r0, ip, asr #5
     d40:	cc520001 	mrrcgt	0, 0, r0, r2, cr1
     d44:	94000002 	strls	r0, [r0], #-2
     d48:	01000004 	tsteq	r0, r4
     d4c:	04945600 	ldreq	r5, [r4], #1536	; 0x600
     d50:	04f80000 	ldrbteq	r0, [r8], #0
     d54:	00010000 	andeq	r0, r1, r0
     d58:	00000052 	andeq	r0, r0, r2, asr r0
     d5c:	00000000 	andeq	r0, r0, r0
     d60:	00027000 	andeq	r7, r2, r0
     d64:	00028c00 	andeq	r8, r2, r0, lsl #24
     d68:	53000100 	movwpl	r0, #256	; 0x100
	...
     d74:	00000280 	andeq	r0, r0, r0, lsl #5
     d78:	0000029c 	muleq	r0, ip, r2
     d7c:	9c500001 	mrrcls	0, 0, r0, r0, cr1	; <UNPREDICTABLE>
     d80:	a0000002 	andge	r0, r0, r2
     d84:	01000002 	tsteq	r0, r2
     d88:	02a05400 	adceq	r5, r0, #0, 8
     d8c:	02ac0000 	adceq	r0, ip, #0
     d90:	00030000 	andeq	r0, r3, r0
     d94:	ac9f0174 	ldfges	f0, [pc], {116}	; 0x74
     d98:	b8000002 	stmdalt	r0, {r1}
     d9c:	01000002 	tsteq	r0, r2
     da0:	02b85400 	adcseq	r5, r8, #0, 8
     da4:	02c40000 	sbceq	r0, r4, #0
     da8:	00030000 	andeq	r0, r3, r0
     dac:	c49f0174 	ldrgt	r0, [pc], #372	; db4 <_start-0x724c>
     db0:	98000002 	stmdals	r0, {r1}
     db4:	01000004 	tsteq	r0, r4
     db8:	04985400 	ldreq	r5, [r8], #1024	; 0x400
     dbc:	04a40000 	strteq	r0, [r4], #0
     dc0:	00030000 	andeq	r0, r3, r0
     dc4:	a49f0174 	ldrge	r0, [pc], #372	; dcc <_start-0x7234>
     dc8:	d0000004 	andle	r0, r0, r4
     dcc:	01000004 	tsteq	r0, r4
     dd0:	04d05400 	ldrbeq	r5, [r0], #1024	; 0x400
     dd4:	04dc0000 	ldrbeq	r0, [ip], #0
     dd8:	00010000 	andeq	r0, r1, r0
     ddc:	0004dc50 	andeq	sp, r4, r0, asr ip
     de0:	0004e400 	andeq	lr, r4, r0, lsl #8
     de4:	74000300 	strvc	r0, [r0], #-768	; 0x300
     de8:	00009f01 	andeq	r9, r0, r1, lsl #30
     dec:	00000000 	andeq	r0, r0, r0
     df0:	02880000 	addeq	r0, r8, #0
     df4:	04e40000 	strbteq	r0, [r4], #0
     df8:	00010000 	andeq	r0, r1, r0
     dfc:	0004e458 	andeq	lr, r4, r8, asr r4
     e00:	0004f800 	andeq	pc, r4, r0, lsl #16
     e04:	f3000a00 	vpmax.u8	d0, d0, d0
     e08:	01f35101 	mvnseq	r5, r1, lsl #2
     e0c:	1c312250 	lfmne	f2, 4, [r1], #-320	; 0xfffffec0
     e10:	0000009f 	muleq	r0, pc, r0	; <UNPREDICTABLE>
     e14:	00000000 	andeq	r0, r0, r0
     e18:	0003cc00 	andeq	ip, r3, r0, lsl #24
     e1c:	0003d000 	andeq	sp, r3, r0
     e20:	50000100 	andpl	r0, r0, r0, lsl #2
     e24:	000003f0 	strdeq	r0, [r0], -r0	; <UNPREDICTABLE>
     e28:	000003f4 	strdeq	r0, [r0], -r4
     e2c:	14500001 	ldrbne	r0, [r0], #-1
     e30:	18000004 	stmdane	r0, {r2}
     e34:	01000004 	tsteq	r0, r4
     e38:	04385000 	ldrteq	r5, [r8], #-0
     e3c:	043c0000 	ldrteq	r0, [ip], #-0
     e40:	00010000 	andeq	r0, r1, r0
     e44:	00044450 	andeq	r4, r4, r0, asr r4
     e48:	00044800 	andeq	r4, r4, r0, lsl #16
     e4c:	50000100 	andpl	r0, r0, r0, lsl #2
     e50:	00000468 	andeq	r0, r0, r8, ror #8
     e54:	0000046c 	andeq	r0, r0, ip, ror #8
     e58:	90500001 	subsls	r0, r0, r1
     e5c:	b8000004 	stmdalt	r0, {r2}
     e60:	01000004 	tsteq	r0, r4
     e64:	00005000 	andeq	r5, r0, r0
     e68:	00000000 	andeq	r0, r0, r0
     e6c:	02cc0000 	sbceq	r0, ip, #0
     e70:	02d40000 	sbcseq	r0, r4, #0
     e74:	00020000 	andeq	r0, r2, r0
     e78:	02d49f30 	sbcseq	r9, r4, #48, 30	; 0xc0
     e7c:	02d80000 	sbcseq	r0, r8, #0
     e80:	00010000 	andeq	r0, r1, r0
     e84:	0002e457 	andeq	lr, r2, r7, asr r4
     e88:	0004b800 	andeq	fp, r4, r0, lsl #16
     e8c:	57000100 	strpl	r0, [r0, -r0, lsl #2]
	...
     e98:	00000004 	andeq	r0, r0, r4
     e9c:	00000008 	andeq	r0, r0, r8
     ea0:	00730007 	rsbseq	r0, r3, r7
     ea4:	2110000a 	tstcs	r0, sl
     ea8:	0000089f 	muleq	r0, pc, r8	; <UNPREDICTABLE>
     eac:	00001000 	andeq	r1, r0, r0
     eb0:	53000100 	movwpl	r0, #256	; 0x100
	...
     ebc:	00000014 	andeq	r0, r0, r4, lsl r0
     ec0:	00000018 	andeq	r0, r0, r8, lsl r0
     ec4:	00730007 	rsbseq	r0, r3, r7
     ec8:	1aefff0b 	bne	ffc00afc <__bss_end__+0xffbf4824>
     ecc:	0000189f 	muleq	r0, pc, r8	; <UNPREDICTABLE>
     ed0:	00002000 	andeq	r2, r0, r0
     ed4:	53000100 	movwpl	r0, #256	; 0x100
	...
     ee0:	00000014 	andeq	r0, r0, r4, lsl r0
     ee4:	0000001c 	andeq	r0, r0, ip, lsl r0
     ee8:	04730003 	ldrbteq	r0, [r3], #-3
     eec:	00001c9f 	muleq	r0, pc, ip	; <UNPREDICTABLE>
     ef0:	00002700 	andeq	r2, r0, r0, lsl #14
     ef4:	53000100 	movwpl	r0, #256	; 0x100
	...
     f00:	00008e9c 	muleq	r0, ip, lr
     f04:	00008ea0 	andeq	r8, r0, r0, lsr #29
     f08:	9f300002 	svcls	0x00300002
     f0c:	00008ea0 	andeq	r8, r0, r0, lsr #29
     f10:	00008ea4 	andeq	r8, r0, r4, lsr #29
     f14:	00500001 	subseq	r0, r0, r1
     f18:	00000000 	andeq	r0, r0, r0
     f1c:	b4000000 	strlt	r0, [r0], #-0
     f20:	b800008e 	stmdalt	r0, {r1, r2, r3, r7}
     f24:	0200008e 	andeq	r0, r0, #142	; 0x8e
     f28:	b89f3000 	ldmlt	pc, {ip, sp}	; <UNPREDICTABLE>
     f2c:	bc00008e 	stclt	0, cr0, [r0], {142}	; 0x8e
     f30:	0100008e 	smlabbeq	r0, lr, r0, r0
     f34:	8ec05300 	cdphi	3, 12, cr5, cr0, cr0, {0}
     f38:	8ec80000 	cdphi	0, 12, cr0, cr8, cr0, {0}
     f3c:	00010000 	andeq	r0, r1, r0
     f40:	00000053 	andeq	r0, r0, r3, asr r0
	...
     f4c:	00000400 	andeq	r0, r0, r0, lsl #8
     f50:	50000100 	andpl	r0, r0, r0, lsl #2
     f54:	00000004 	andeq	r0, r0, r4
     f58:	0000000c 	andeq	r0, r0, ip
     f5c:	0c530001 	mrrceq	0, 0, r0, r3, cr1
     f60:	10000000 	andne	r0, r0, r0
     f64:	01000000 	mrseq	r0, (UNDEF: 0)
     f68:	00105000 	andseq	r5, r0, r0
     f6c:	001c0000 	andseq	r0, ip, r0
     f70:	00010000 	andeq	r0, r1, r0
     f74:	00000053 	andeq	r0, r0, r3, asr r0
     f78:	00000000 	andeq	r0, r0, r0
     f7c:	00003c00 	andeq	r3, r0, r0, lsl #24
     f80:	00004700 	andeq	r4, r0, r0, lsl #14
     f84:	50000100 	andpl	r0, r0, r0, lsl #2
     f88:	00000047 	andeq	r0, r0, r7, asr #32
     f8c:	00000060 	andeq	r0, r0, r0, rrx
     f90:	00550001 	subseq	r0, r5, r1
     f94:	00000000 	andeq	r0, r0, r0
     f98:	50000000 	andpl	r0, r0, r0
     f9c:	54000000 	strpl	r0, [r0], #-0
     fa0:	01000000 	mrseq	r0, (UNDEF: 0)
     fa4:	00005000 	andeq	r5, r0, r0
     fa8:	00000000 	andeq	r0, r0, r0
     fac:	00600000 	rsbeq	r0, r0, r0
     fb0:	006c0000 	rsbeq	r0, ip, r0
     fb4:	00010000 	andeq	r0, r1, r0
     fb8:	00006c50 	andeq	r6, r0, r0, asr ip
     fbc:	00007400 	andeq	r7, r0, r0, lsl #8
     fc0:	f3000400 	vshl.u8	d0, d0, d0
     fc4:	009f5001 	addseq	r5, pc, r1
     fc8:	00000000 	andeq	r0, r0, r0
     fcc:	74000000 	strvc	r0, [r0], #-0
     fd0:	80000000 	andhi	r0, r0, r0
     fd4:	01000000 	mrseq	r0, (UNDEF: 0)
     fd8:	00805000 	addeq	r5, r0, r0
     fdc:	00880000 	addeq	r0, r8, r0
     fe0:	00040000 	andeq	r0, r4, r0
     fe4:	9f5001f3 	svcls	0x005001f3
	...
     ff4:	00000090 	muleq	r0, r0, r0
     ff8:	90500001 	subsls	r0, r0, r1
     ffc:	d4000000 	strle	r0, [r0], #-0
    1000:	01000000 	mrseq	r0, (UNDEF: 0)
    1004:	00005400 	andeq	r5, r0, r0, lsl #8
    1008:	00000000 	andeq	r0, r0, r0
    100c:	00480000 	subeq	r0, r8, r0
    1010:	004c0000 	subeq	r0, ip, r0
    1014:	00010000 	andeq	r0, r1, r0
    1018:	00005455 	andeq	r5, r0, r5, asr r4
    101c:	00005800 	andeq	r5, r0, r0, lsl #16
    1020:	55000100 	strpl	r0, [r0, #-256]	; 0x100
    1024:	00000060 	andeq	r0, r0, r0, rrx
    1028:	00000064 	andeq	r0, r0, r4, rrx
    102c:	6c550001 	mrrcvs	0, 0, r0, r5, cr1
    1030:	70000000 	andvc	r0, r0, r0
    1034:	01000000 	mrseq	r0, (UNDEF: 0)
    1038:	00785500 	rsbseq	r5, r8, r0, lsl #10
    103c:	007c0000 	rsbseq	r0, ip, r0
    1040:	00010000 	andeq	r0, r1, r0
    1044:	00008455 	andeq	r8, r0, r5, asr r4
    1048:	00008800 	andeq	r8, r0, r0, lsl #16
    104c:	55000100 	strpl	r0, [r0, #-256]	; 0x100
    1050:	0000008c 	andeq	r0, r0, ip, lsl #1
    1054:	000000d4 	ldrdeq	r0, [r0], -r4
    1058:	00550001 	subseq	r0, r5, r1
    105c:	00000000 	andeq	r0, r0, r0
    1060:	1c000000 	stcne	0, cr0, [r0], {-0}
    1064:	44000000 	strmi	r0, [r0], #-0
    1068:	01000000 	mrseq	r0, (UNDEF: 0)
    106c:	00445300 	subeq	r5, r4, r0, lsl #6
    1070:	004c0000 	subeq	r0, ip, r0
    1074:	001c0000 	andseq	r0, ip, r0
    1078:	2cf70070 	ldclcs	0, cr0, [r7], #448	; 0x1c0
    107c:	25f425f7 	ldrbcs	r2, [r4, #1527]!	; 0x5f7
    1080:	cccccd08 	stclgt	13, cr12, [ip], {8}
    1084:	000000cc 	andeq	r0, r0, ip, asr #1
    1088:	20081e00 	andcs	r1, r8, r0, lsl #28
    108c:	f72525f7 			; <UNDEFINED> instruction: 0xf72525f7
    1090:	9f25332c 	svcls	0x0025332c
    1094:	0000004c 	andeq	r0, r0, ip, asr #32
    1098:	00000050 	andeq	r0, r0, r0, asr r0
    109c:	50530001 	subspl	r0, r3, r1
    10a0:	58000000 	stmdapl	r0, {}	; <UNPREDICTABLE>
    10a4:	1c000000 	stcne	0, cr0, [r0], {-0}
    10a8:	f7007000 			; <UNDEFINED> instruction: 0xf7007000
    10ac:	f425f72c 	vld1.8	{d15}, [r5 :128], ip
    10b0:	cccd0825 	stclgt	8, cr0, [sp], {37}	; 0x25
    10b4:	0000cccc 	andeq	ip, r0, ip, asr #25
    10b8:	081e0000 	ldmdaeq	lr, {}	; <UNPREDICTABLE>
    10bc:	2525f720 	strcs	pc, [r5, #-1824]!	; 0x720
    10c0:	25332cf7 	ldrcs	r2, [r3, #-3319]!	; 0xcf7
    10c4:	0000589f 	muleq	r0, pc, r8	; <UNPREDICTABLE>
    10c8:	00005c00 	andeq	r5, r0, r0, lsl #24
    10cc:	53000100 	movwpl	r0, #256	; 0x100
    10d0:	0000005c 	andeq	r0, r0, ip, asr r0
    10d4:	00000064 	andeq	r0, r0, r4, rrx
    10d8:	0070001c 	rsbseq	r0, r0, ip, lsl r0
    10dc:	25f72cf7 	ldrbcs	r2, [r7, #3319]!	; 0xcf7
    10e0:	cd0825f4 	cfstr32gt	mvfx2, [r8, #-976]	; 0xfffffc30
    10e4:	00cccccc 	sbceq	ip, ip, ip, asr #25
    10e8:	1e000000 	cdpne	0, 0, cr0, cr0, cr0, {0}
    10ec:	25f72008 	ldrbcs	r2, [r7, #8]!
    10f0:	332cf725 	msrcc	CPSR_fs, #9699328	; 0x940000
    10f4:	00649f25 	rsbeq	r9, r4, r5, lsr #30
    10f8:	00680000 	rsbeq	r0, r8, r0
    10fc:	00010000 	andeq	r0, r1, r0
    1100:	00006853 	andeq	r6, r0, r3, asr r8
    1104:	00007000 	andeq	r7, r0, r0
    1108:	70001c00 	andvc	r1, r0, r0, lsl #24
    110c:	f72cf700 			; <UNDEFINED> instruction: 0xf72cf700
    1110:	0825f425 	stmdaeq	r5!, {r0, r2, r5, sl, ip, sp, lr, pc}
    1114:	cccccccd 	stclgt	12, cr12, [ip], {205}	; 0xcd
    1118:	00000000 	andeq	r0, r0, r0
    111c:	f720081e 			; <UNDEFINED> instruction: 0xf720081e
    1120:	2cf72525 	cfldr64cs	mvdx2, [r7], #148	; 0x94
    1124:	709f2533 	addsvc	r2, pc, r3, lsr r5	; <UNPREDICTABLE>
    1128:	74000000 	strvc	r0, [r0], #-0
    112c:	01000000 	mrseq	r0, (UNDEF: 0)
    1130:	00745300 	rsbseq	r5, r4, r0, lsl #6
    1134:	007c0000 	rsbseq	r0, ip, r0
    1138:	001c0000 	andseq	r0, ip, r0
    113c:	2cf70070 	ldclcs	0, cr0, [r7], #448	; 0x1c0
    1140:	25f425f7 	ldrbcs	r2, [r4, #1527]!	; 0x5f7
    1144:	cccccd08 	stclgt	13, cr12, [ip], {8}
    1148:	000000cc 	andeq	r0, r0, ip, asr #1
    114c:	20081e00 	andcs	r1, r8, r0, lsl #28
    1150:	f72525f7 			; <UNDEFINED> instruction: 0xf72525f7
    1154:	9f25332c 	svcls	0x0025332c
    1158:	0000007c 	andeq	r0, r0, ip, ror r0
    115c:	00000080 	andeq	r0, r0, r0, lsl #1
    1160:	80530001 	subshi	r0, r3, r1
    1164:	88000000 	stmdahi	r0, {}	; <UNPREDICTABLE>
    1168:	1c000000 	stcne	0, cr0, [r0], {-0}
    116c:	f7007000 			; <UNDEFINED> instruction: 0xf7007000
    1170:	f425f72c 	vld1.8	{d15}, [r5 :128], ip
    1174:	cccd0825 	stclgt	8, cr0, [sp], {37}	; 0x25
    1178:	0000cccc 	andeq	ip, r0, ip, asr #25
    117c:	081e0000 	ldmdaeq	lr, {}	; <UNPREDICTABLE>
    1180:	2525f720 	strcs	pc, [r5, #-1824]!	; 0x720
    1184:	25332cf7 	ldrcs	r2, [r3, #-3319]!	; 0xcf7
    1188:	0000889f 	muleq	r0, pc, r8	; <UNPREDICTABLE>
    118c:	00008c00 	andeq	r8, r0, r0, lsl #24
    1190:	53000100 	movwpl	r0, #256	; 0x100
    1194:	0000008c 	andeq	r0, r0, ip, lsl #1
    1198:	00000090 	muleq	r0, r0, r0
    119c:	0070001c 	rsbseq	r0, r0, ip, lsl r0
    11a0:	25f72cf7 	ldrbcs	r2, [r7, #3319]!	; 0xcf7
    11a4:	cd0825f4 	cfstr32gt	mvfx2, [r8, #-976]	; 0xfffffc30
    11a8:	00cccccc 	sbceq	ip, ip, ip, asr #25
    11ac:	1e000000 	cdpne	0, 0, cr0, cr0, cr0, {0}
    11b0:	25f72008 	ldrbcs	r2, [r7, #8]!
    11b4:	332cf725 	msrcc	CPSR_fs, #9699328	; 0x940000
    11b8:	00909f25 	addseq	r9, r0, r5, lsr #30
    11bc:	00980000 	addseq	r0, r8, r0
    11c0:	001c0000 	andseq	r0, ip, r0
    11c4:	2cf70074 	ldclcs	0, cr0, [r7], #464	; 0x1d0
    11c8:	25f425f7 	ldrbcs	r2, [r4, #1527]!	; 0x5f7
    11cc:	cccccd08 	stclgt	13, cr12, [ip], {8}
    11d0:	000000cc 	andeq	r0, r0, ip, asr #1
    11d4:	20081e00 	andcs	r1, r8, r0, lsl #28
    11d8:	f72525f7 			; <UNDEFINED> instruction: 0xf72525f7
    11dc:	9f25332c 	svcls	0x0025332c
    11e0:	00000098 	muleq	r0, r8, r0
    11e4:	0000009c 	muleq	r0, ip, r0
    11e8:	00740017 	rsbseq	r0, r4, r7, lsl r0
    11ec:	25f72cf7 	ldrbcs	r2, [r7, #3319]!	; 0xcf7
    11f0:	2cf70071 	ldclcs	0, cr0, [r7], #452	; 0x1c4
    11f4:	081e25f7 	ldmdaeq	lr, {r0, r1, r2, r4, r5, r6, r7, r8, sl, sp}
    11f8:	2525f720 	strcs	pc, [r5, #-1824]!	; 0x720
    11fc:	25332cf7 	ldrcs	r2, [r3, #-3319]!	; 0xcf7
    1200:	00009c9f 	muleq	r0, pc, ip	; <UNPREDICTABLE>
    1204:	0000d400 	andeq	sp, r0, r0, lsl #8
    1208:	74001c00 	strvc	r1, [r0], #-3072	; 0xc00
    120c:	f72cf700 			; <UNDEFINED> instruction: 0xf72cf700
    1210:	0825f425 	stmdaeq	r5!, {r0, r2, r5, sl, ip, sp, lr, pc}
    1214:	cccccccd 	stclgt	12, cr12, [ip], {205}	; 0xcd
    1218:	00000000 	andeq	r0, r0, r0
    121c:	f720081e 			; <UNDEFINED> instruction: 0xf720081e
    1220:	2cf72525 	cfldr64cs	mvdx2, [r7], #148	; 0x94
    1224:	009f2533 	addseq	r2, pc, r3, lsr r5	; <UNPREDICTABLE>
    1228:	00000000 	andeq	r0, r0, r0
    122c:	94000000 	strls	r0, [r0], #-0
    1230:	b8000000 	stmdalt	r0, {}	; <UNPREDICTABLE>
    1234:	01000000 	mrseq	r0, (UNDEF: 0)
    1238:	00b85000 	adcseq	r5, r8, r0
    123c:	00c40000 	sbceq	r0, r4, r0
    1240:	00080000 	andeq	r0, r8, r0
    1244:	24007131 	strcs	r7, [r0], #-305	; 0x131
    1248:	9f210073 	svcls	0x00210073
    124c:	000000c4 	andeq	r0, r0, r4, asr #1
    1250:	000000c7 	andeq	r0, r0, r7, asr #1
    1254:	00510001 	subseq	r0, r1, r1
    1258:	00000000 	andeq	r0, r0, r0
    125c:	d4000000 	strle	r0, [r0], #-0
    1260:	f8000000 			; <UNDEFINED> instruction: 0xf8000000
    1264:	01000000 	mrseq	r0, (UNDEF: 0)
    1268:	00f85000 	rscseq	r5, r8, r0
    126c:	010c0000 	mrseq	r0, (UNDEF: 12)
    1270:	00040000 	andeq	r0, r4, r0
    1274:	9f5001f3 	svcls	0x005001f3
	...
    1280:	000000e0 	andeq	r0, r0, r0, ror #1
    1284:	000000e8 	andeq	r0, r0, r8, ror #1
    1288:	9f300002 	svcls	0x00300002
    128c:	000000e8 	andeq	r0, r0, r8, ror #1
    1290:	000000e8 	andeq	r0, r0, r8, ror #1
    1294:	e8520001 	ldmda	r2, {r0}^
    1298:	f0000000 			; <UNDEFINED> instruction: 0xf0000000
    129c:	02000000 	andeq	r0, r0, #0
    12a0:	f09f3000 			; <UNDEFINED> instruction: 0xf09f3000
    12a4:	03000000 	movweq	r0, #0
    12a8:	01000001 	tsteq	r0, r1
    12ac:	00005200 	andeq	r5, r0, r0, lsl #4
    12b0:	00000000 	andeq	r0, r0, r0
    12b4:	00e00000 	rsceq	r0, r0, r0
    12b8:	00f40000 	rscseq	r0, r4, r0
    12bc:	00020000 	andeq	r0, r2, r0
    12c0:	00f49f30 	rscseq	r9, r4, r0, lsr pc
    12c4:	01000000 	mrseq	r0, (UNDEF: 0)
    12c8:	00050000 	andeq	r0, r5, r0
    12cc:	24007331 	strcs	r7, [r0], #-817	; 0x331
    12d0:	0001009f 	muleq	r1, pc, r0	; <UNPREDICTABLE>
    12d4:	00010300 	andeq	r0, r1, r0, lsl #6
    12d8:	51000100 	mrspl	r0, (UNDEF: 16)
    12dc:	00000103 	andeq	r0, r0, r3, lsl #2
    12e0:	0000010c 	andeq	r0, r0, ip, lsl #2
    12e4:	f3310008 	vhadd.u<illegal width 64>	d0, d1, d8
    12e8:	1a4f5001 	bne	13d52f4 <__bss_end__+0x13c901c>
    12ec:	00009f24 	andeq	r9, r0, r4, lsr #30
    12f0:	00000000 	andeq	r0, r0, r0
    12f4:	010c0000 	mrseq	r0, (UNDEF: 12)
    12f8:	01300000 	teqeq	r0, r0
    12fc:	00010000 	andeq	r0, r1, r0
    1300:	00013050 	andeq	r3, r1, r0, asr r0
    1304:	00014400 	andeq	r4, r1, r0, lsl #8
    1308:	f3000400 	vshl.u8	d0, d0, d0
    130c:	009f5001 	addseq	r5, pc, r1
    1310:	00000000 	andeq	r0, r0, r0
    1314:	18000000 	stmdane	r0, {}	; <UNPREDICTABLE>
    1318:	20000001 	andcs	r0, r0, r1
    131c:	02000001 	andeq	r0, r0, #1
    1320:	209f3000 	addscs	r3, pc, r0
    1324:	20000001 	andcs	r0, r0, r1
    1328:	01000001 	tsteq	r0, r1
    132c:	01205200 	teqeq	r0, r0, lsl #4
    1330:	01280000 	teqeq	r8, r0
    1334:	00020000 	andeq	r0, r2, r0
    1338:	01289f30 	teqeq	r8, r0, lsr pc
    133c:	013b0000 	teqeq	fp, r0
    1340:	00010000 	andeq	r0, r1, r0
    1344:	00000052 	andeq	r0, r0, r2, asr r0
    1348:	00000000 	andeq	r0, r0, r0
    134c:	00011800 	andeq	r1, r1, r0, lsl #16
    1350:	00012c00 	andeq	r2, r1, r0, lsl #24
    1354:	30000200 	andcc	r0, r0, r0, lsl #4
    1358:	00012c9f 	muleq	r1, pc, ip	; <UNPREDICTABLE>
    135c:	00013800 	andeq	r3, r1, r0, lsl #16
    1360:	31000500 	tstcc	r0, r0, lsl #10
    1364:	9f240073 	svcls	0x00240073
    1368:	00000138 	andeq	r0, r0, r8, lsr r1
    136c:	0000013b 	andeq	r0, r0, fp, lsr r1
    1370:	3b510001 	blcc	144137c <__bss_end__+0x14350a4>
    1374:	44000001 	strmi	r0, [r0], #-1
    1378:	08000001 	stmdaeq	r0, {r0}
    137c:	01f33100 	mvnseq	r3, r0, lsl #2
    1380:	241a4f50 	ldrcs	r4, [sl], #-3920	; 0xf50
    1384:	0000009f 	muleq	r0, pc, r0	; <UNPREDICTABLE>
    1388:	00000000 	andeq	r0, r0, r0
    138c:	00014400 	andeq	r4, r1, r0, lsl #8
    1390:	0001d400 	andeq	sp, r1, r0, lsl #8
    1394:	50000100 	andpl	r0, r0, r0, lsl #2
    1398:	000001d4 	ldrdeq	r0, [r0], -r4
    139c:	00000210 	andeq	r0, r0, r0, lsl r2
    13a0:	00540001 	subseq	r0, r4, r1
    13a4:	00000000 	andeq	r0, r0, r0
    13a8:	8c000000 	stchi	0, cr0, [r0], {-0}
    13ac:	90000001 	andls	r0, r0, r1
    13b0:	01000001 	tsteq	r0, r1
    13b4:	01985500 	orrseq	r5, r8, r0, lsl #10
    13b8:	019c0000 	orrseq	r0, ip, r0
    13bc:	00010000 	andeq	r0, r1, r0
    13c0:	0001a455 	andeq	sl, r1, r5, asr r4
    13c4:	0001a800 	andeq	sl, r1, r0, lsl #16
    13c8:	55000100 	strpl	r0, [r0, #-256]	; 0x100
    13cc:	000001b0 			; <UNDEFINED> instruction: 0x000001b0
    13d0:	000001b4 			; <UNDEFINED> instruction: 0x000001b4
    13d4:	bc550001 	mrrclt	0, 0, r0, r5, cr1
    13d8:	c0000001 	andgt	r0, r0, r1
    13dc:	01000001 	tsteq	r0, r1
    13e0:	01c85500 	biceq	r5, r8, r0, lsl #10
    13e4:	01cc0000 	biceq	r0, ip, r0
    13e8:	00010000 	andeq	r0, r1, r0
    13ec:	0001d055 	andeq	sp, r1, r5, asr r0
    13f0:	00021000 	andeq	r1, r2, r0
    13f4:	55000100 	strpl	r0, [r0, #-256]	; 0x100
	...
    1400:	00000160 	andeq	r0, r0, r0, ror #2
    1404:	00000188 	andeq	r0, r0, r8, lsl #3
    1408:	88530001 	ldmdahi	r3, {r0}^
    140c:	90000001 	andls	r0, r0, r1
    1410:	1c000001 	stcne	0, cr0, [r0], {1}
    1414:	f7007000 			; <UNDEFINED> instruction: 0xf7007000
    1418:	f425f72c 	vld1.8	{d15}, [r5 :128], ip
    141c:	cccd0825 	stclgt	8, cr0, [sp], {37}	; 0x25
    1420:	0000cccc 	andeq	ip, r0, ip, asr #25
    1424:	081e0000 	ldmdaeq	lr, {}	; <UNPREDICTABLE>
    1428:	2525f720 	strcs	pc, [r5, #-1824]!	; 0x720
    142c:	25332cf7 	ldrcs	r2, [r3, #-3319]!	; 0xcf7
    1430:	0001909f 	muleq	r1, pc, r0	; <UNPREDICTABLE>
    1434:	00019400 	andeq	r9, r1, r0, lsl #8
    1438:	53000100 	movwpl	r0, #256	; 0x100
    143c:	00000194 	muleq	r0, r4, r1
    1440:	0000019c 	muleq	r0, ip, r1
    1444:	0070001c 	rsbseq	r0, r0, ip, lsl r0
    1448:	25f72cf7 	ldrbcs	r2, [r7, #3319]!	; 0xcf7
    144c:	cd0825f4 	cfstr32gt	mvfx2, [r8, #-976]	; 0xfffffc30
    1450:	00cccccc 	sbceq	ip, ip, ip, asr #25
    1454:	1e000000 	cdpne	0, 0, cr0, cr0, cr0, {0}
    1458:	25f72008 	ldrbcs	r2, [r7, #8]!
    145c:	332cf725 	msrcc	CPSR_fs, #9699328	; 0x940000
    1460:	019c9f25 	orrseq	r9, ip, r5, lsr #30
    1464:	01a00000 	moveq	r0, r0
    1468:	00010000 	andeq	r0, r1, r0
    146c:	0001a053 	andeq	sl, r1, r3, asr r0
    1470:	0001a800 	andeq	sl, r1, r0, lsl #16
    1474:	70001c00 	andvc	r1, r0, r0, lsl #24
    1478:	f72cf700 			; <UNDEFINED> instruction: 0xf72cf700
    147c:	0825f425 	stmdaeq	r5!, {r0, r2, r5, sl, ip, sp, lr, pc}
    1480:	cccccccd 	stclgt	12, cr12, [ip], {205}	; 0xcd
    1484:	00000000 	andeq	r0, r0, r0
    1488:	f720081e 			; <UNDEFINED> instruction: 0xf720081e
    148c:	2cf72525 	cfldr64cs	mvdx2, [r7], #148	; 0x94
    1490:	a89f2533 	ldmge	pc, {r0, r1, r4, r5, r8, sl, sp}	; <UNPREDICTABLE>
    1494:	ac000001 	stcge	0, cr0, [r0], {1}
    1498:	01000001 	tsteq	r0, r1
    149c:	01ac5300 			; <UNDEFINED> instruction: 0x01ac5300
    14a0:	01b40000 			; <UNDEFINED> instruction: 0x01b40000
    14a4:	001c0000 	andseq	r0, ip, r0
    14a8:	2cf70070 	ldclcs	0, cr0, [r7], #448	; 0x1c0
    14ac:	25f425f7 	ldrbcs	r2, [r4, #1527]!	; 0x5f7
    14b0:	cccccd08 	stclgt	13, cr12, [ip], {8}
    14b4:	000000cc 	andeq	r0, r0, ip, asr #1
    14b8:	20081e00 	andcs	r1, r8, r0, lsl #28
    14bc:	f72525f7 			; <UNDEFINED> instruction: 0xf72525f7
    14c0:	9f25332c 	svcls	0x0025332c
    14c4:	000001b4 			; <UNDEFINED> instruction: 0x000001b4
    14c8:	000001b8 			; <UNDEFINED> instruction: 0x000001b8
    14cc:	b8530001 	ldmdalt	r3, {r0}^
    14d0:	c0000001 	andgt	r0, r0, r1
    14d4:	1c000001 	stcne	0, cr0, [r0], {1}
    14d8:	f7007000 			; <UNDEFINED> instruction: 0xf7007000
    14dc:	f425f72c 	vld1.8	{d15}, [r5 :128], ip
    14e0:	cccd0825 	stclgt	8, cr0, [sp], {37}	; 0x25
    14e4:	0000cccc 	andeq	ip, r0, ip, asr #25
    14e8:	081e0000 	ldmdaeq	lr, {}	; <UNPREDICTABLE>
    14ec:	2525f720 	strcs	pc, [r5, #-1824]!	; 0x720
    14f0:	25332cf7 	ldrcs	r2, [r3, #-3319]!	; 0xcf7
    14f4:	0001c09f 	muleq	r1, pc, r0	; <UNPREDICTABLE>
    14f8:	0001c400 	andeq	ip, r1, r0, lsl #8
    14fc:	53000100 	movwpl	r0, #256	; 0x100
    1500:	000001c4 	andeq	r0, r0, r4, asr #3
    1504:	000001cc 	andeq	r0, r0, ip, asr #3
    1508:	0070001c 	rsbseq	r0, r0, ip, lsl r0
    150c:	25f72cf7 	ldrbcs	r2, [r7, #3319]!	; 0xcf7
    1510:	cd0825f4 	cfstr32gt	mvfx2, [r8, #-976]	; 0xfffffc30
    1514:	00cccccc 	sbceq	ip, ip, ip, asr #25
    1518:	1e000000 	cdpne	0, 0, cr0, cr0, cr0, {0}
    151c:	25f72008 	ldrbcs	r2, [r7, #8]!
    1520:	332cf725 	msrcc	CPSR_fs, #9699328	; 0x940000
    1524:	01cc9f25 	biceq	r9, ip, r5, lsr #30
    1528:	01d00000 	bicseq	r0, r0, r0
    152c:	00010000 	andeq	r0, r1, r0
    1530:	0001d053 	andeq	sp, r1, r3, asr r0
    1534:	0001d400 	andeq	sp, r1, r0, lsl #8
    1538:	70001c00 	andvc	r1, r0, r0, lsl #24
    153c:	f72cf700 			; <UNDEFINED> instruction: 0xf72cf700
    1540:	0825f425 	stmdaeq	r5!, {r0, r2, r5, sl, ip, sp, lr, pc}
    1544:	cccccccd 	stclgt	12, cr12, [ip], {205}	; 0xcd
    1548:	00000000 	andeq	r0, r0, r0
    154c:	f720081e 			; <UNDEFINED> instruction: 0xf720081e
    1550:	2cf72525 	cfldr64cs	mvdx2, [r7], #148	; 0x94
    1554:	d49f2533 	ldrle	r2, [pc], #1331	; 155c <_start-0x6aa4>
    1558:	dc000001 	stcle	0, cr0, [r0], {1}
    155c:	1c000001 	stcne	0, cr0, [r0], {1}
    1560:	f7007400 			; <UNDEFINED> instruction: 0xf7007400
    1564:	f425f72c 	vld1.8	{d15}, [r5 :128], ip
    1568:	cccd0825 	stclgt	8, cr0, [sp], {37}	; 0x25
    156c:	0000cccc 	andeq	ip, r0, ip, asr #25
    1570:	081e0000 	ldmdaeq	lr, {}	; <UNPREDICTABLE>
    1574:	2525f720 	strcs	pc, [r5, #-1824]!	; 0x720
    1578:	25332cf7 	ldrcs	r2, [r3, #-3319]!	; 0xcf7
    157c:	0001dc9f 	muleq	r1, pc, ip	; <UNPREDICTABLE>
    1580:	0001e000 	andeq	lr, r1, r0
    1584:	74001700 	strvc	r1, [r0], #-1792	; 0x700
    1588:	f72cf700 			; <UNDEFINED> instruction: 0xf72cf700
    158c:	f7007125 			; <UNDEFINED> instruction: 0xf7007125
    1590:	1e25f72c 	cdpne	7, 2, cr15, cr5, cr12, {1}
    1594:	25f72008 	ldrbcs	r2, [r7, #8]!
    1598:	332cf725 	msrcc	CPSR_fs, #9699328	; 0x940000
    159c:	01e09f25 	mvneq	r9, r5, lsr #30
    15a0:	02100000 	andseq	r0, r0, #0
    15a4:	001c0000 	andseq	r0, ip, r0
    15a8:	2cf70074 	ldclcs	0, cr0, [r7], #464	; 0x1d0
    15ac:	25f425f7 	ldrbcs	r2, [r4, #1527]!	; 0x5f7
    15b0:	cccccd08 	stclgt	13, cr12, [ip], {8}
    15b4:	000000cc 	andeq	r0, r0, ip, asr #1
    15b8:	20081e00 	andcs	r1, r8, r0, lsl #28
    15bc:	f72525f7 			; <UNDEFINED> instruction: 0xf72525f7
    15c0:	9f25332c 	svcls	0x0025332c
	...
    15cc:	000001d8 	ldrdeq	r0, [r0], -r8
    15d0:	000001fc 	strdeq	r0, [r0], -ip
    15d4:	fc500001 	mrrc2	0, 0, r0, r0, cr1	; <UNPREDICTABLE>
    15d8:	03000001 	movweq	r0, #1
    15dc:	01000002 	tsteq	r0, r2
    15e0:	00005100 	andeq	r5, r0, r0, lsl #2
    15e4:	00000000 	andeq	r0, r0, r0
    15e8:	02100000 	andseq	r0, r0, #0
    15ec:	022c0000 	eoreq	r0, ip, #0
    15f0:	00010000 	andeq	r0, r1, r0
    15f4:	00022c50 	andeq	r2, r2, r0, asr ip
    15f8:	00023400 	andeq	r3, r2, r0, lsl #8
    15fc:	54000100 	strpl	r0, [r0], #-256	; 0x100
    1600:	00000234 	andeq	r0, r0, r4, lsr r2
    1604:	0000023c 	andeq	r0, r0, ip, lsr r2
    1608:	3c500001 	mrrccc	0, 0, r0, r0, cr1	; <UNPREDICTABLE>
    160c:	44000002 	strmi	r0, [r0], #-2
    1610:	01000002 	tsteq	r0, r2
    1614:	02445400 	subeq	r5, r4, #0, 8
    1618:	02500000 	subseq	r0, r0, #0
    161c:	00040000 	andeq	r0, r4, r0
    1620:	9f5001f3 	svcls	0x005001f3
    1624:	00000250 	andeq	r0, r0, r0, asr r2
    1628:	00000254 	andeq	r0, r0, r4, asr r2
    162c:	54500001 	ldrbpl	r0, [r0], #-1
    1630:	5c000002 	stcpl	0, cr0, [r0], {2}
    1634:	01000002 	tsteq	r0, r2
    1638:	00005400 	andeq	r5, r0, r0, lsl #8
    163c:	00000000 	andeq	r0, r0, r0
    1640:	02200000 	eoreq	r0, r0, #0
    1644:	02300000 	eorseq	r0, r0, #0
    1648:	00020000 	andeq	r0, r2, r0
    164c:	02309f30 	eorseq	r9, r0, #48, 30	; 0xc0
    1650:	02340000 	eorseq	r0, r4, #0
    1654:	00010000 	andeq	r0, r1, r0
    1658:	00023450 	andeq	r3, r2, r0, asr r4
    165c:	00024000 	andeq	r4, r2, r0
    1660:	30000200 	andcc	r0, r0, r0, lsl #4
    1664:	0002409f 	muleq	r2, pc, r0	; <UNPREDICTABLE>
    1668:	00024c00 	andeq	r4, r2, r0, lsl #24
    166c:	50000100 	andpl	r0, r0, r0, lsl #2
	...
    1678:	0000025c 	andeq	r0, r0, ip, asr r2
    167c:	00000273 	andeq	r0, r0, r3, ror r2
    1680:	73500001 	cmpvc	r0, #1
    1684:	78000002 	stmdavc	r0, {r1}
    1688:	04000002 	streq	r0, [r0], #-2
    168c:	5001f300 	andpl	pc, r1, r0, lsl #6
    1690:	0002789f 	muleq	r2, pc, r8	; <UNPREDICTABLE>
    1694:	00027b00 	andeq	r7, r2, r0, lsl #22
    1698:	50000100 	andpl	r0, r0, r0, lsl #2
    169c:	0000027b 	andeq	r0, r0, fp, ror r2
    16a0:	00000280 	andeq	r0, r0, r0, lsl #5
    16a4:	01f30004 	mvnseq	r0, r4
    16a8:	00009f50 	andeq	r9, r0, r0, asr pc
    16ac:	00000000 	andeq	r0, r0, r0
    16b0:	025c0000 	subseq	r0, ip, #0
    16b4:	02730000 	rsbseq	r0, r3, #0
    16b8:	00010000 	andeq	r0, r1, r0
    16bc:	00027351 	andeq	r7, r2, r1, asr r3
    16c0:	00027800 	andeq	r7, r2, r0, lsl #16
    16c4:	f3000400 	vshl.u8	d0, d0, d0
    16c8:	789f5101 	ldmvc	pc, {r0, r8, ip, lr}	; <UNPREDICTABLE>
    16cc:	7b000002 	blvc	16dc <_start-0x6924>
    16d0:	01000002 	tsteq	r0, r2
    16d4:	027b5100 	rsbseq	r5, fp, #0, 2
    16d8:	02800000 	addeq	r0, r0, #0
    16dc:	00040000 	andeq	r0, r4, r0
    16e0:	9f5101f3 	svcls	0x005101f3
	...
    16ec:	00000280 	andeq	r0, r0, r0, lsl #5
    16f0:	00000318 	andeq	r0, r0, r8, lsl r3
    16f4:	18500001 	ldmdane	r0, {r0}^
    16f8:	58000003 	stmdapl	r0, {r0, r1}
    16fc:	01000003 	tsteq	r0, r3
    1700:	00005400 	andeq	r5, r0, r0, lsl #8
    1704:	00000000 	andeq	r0, r0, r0
    1708:	02800000 	addeq	r0, r0, #0
    170c:	031b0000 	tsteq	fp, #0
    1710:	00010000 	andeq	r0, r1, r0
    1714:	00031b51 	andeq	r1, r3, r1, asr fp
    1718:	00035800 	andeq	r5, r3, r0, lsl #16
    171c:	f3000400 	vshl.u8	d0, d0, d0
    1720:	009f5101 	addseq	r5, pc, r1, lsl #2
    1724:	00000000 	andeq	r0, r0, r0
    1728:	d0000000 	andle	r0, r0, r0
    172c:	d4000002 	strle	r0, [r0], #-2
    1730:	01000002 	tsteq	r0, r2
    1734:	02dc5600 	sbcseq	r5, ip, #0, 12
    1738:	02e00000 	rsceq	r0, r0, #0
    173c:	00010000 	andeq	r0, r1, r0
    1740:	0002e856 	andeq	lr, r2, r6, asr r8
    1744:	0002ec00 	andeq	lr, r2, r0, lsl #24
    1748:	56000100 	strpl	r0, [r0], -r0, lsl #2
    174c:	000002f4 	strdeq	r0, [r0], -r4
    1750:	000002f8 	strdeq	r0, [r0], -r8
    1754:	00560001 	subseq	r0, r6, r1
    1758:	04000003 	streq	r0, [r0], #-3
    175c:	01000003 	tsteq	r0, r3
    1760:	030c5600 	movweq	r5, #50688	; 0xc600
    1764:	03100000 	tsteq	r0, #0
    1768:	00010000 	andeq	r0, r1, r0
    176c:	00031456 	andeq	r1, r3, r6, asr r4
    1770:	00035800 	andeq	r5, r3, r0, lsl #16
    1774:	56000100 	strpl	r0, [r0], -r0, lsl #2
	...
    1780:	000002a4 	andeq	r0, r0, r4, lsr #5
    1784:	000002cc 	andeq	r0, r0, ip, asr #5
    1788:	cc530001 	mrrcgt	0, 0, r0, r3, cr1
    178c:	d4000002 	strle	r0, [r0], #-2
    1790:	1c000002 	stcne	0, cr0, [r0], {2}
    1794:	f7007000 			; <UNDEFINED> instruction: 0xf7007000
    1798:	f425f72c 	vld1.8	{d15}, [r5 :128], ip
    179c:	cccd0825 	stclgt	8, cr0, [sp], {37}	; 0x25
    17a0:	0000cccc 	andeq	ip, r0, ip, asr #25
    17a4:	081e0000 	ldmdaeq	lr, {}	; <UNPREDICTABLE>
    17a8:	2525f720 	strcs	pc, [r5, #-1824]!	; 0x720
    17ac:	25332cf7 	ldrcs	r2, [r3, #-3319]!	; 0xcf7
    17b0:	0002d49f 	muleq	r2, pc, r4	; <UNPREDICTABLE>
    17b4:	0002d800 	andeq	sp, r2, r0, lsl #16
    17b8:	53000100 	movwpl	r0, #256	; 0x100
    17bc:	000002d8 	ldrdeq	r0, [r0], -r8
    17c0:	000002e0 	andeq	r0, r0, r0, ror #5
    17c4:	0070001c 	rsbseq	r0, r0, ip, lsl r0
    17c8:	25f72cf7 	ldrbcs	r2, [r7, #3319]!	; 0xcf7
    17cc:	cd0825f4 	cfstr32gt	mvfx2, [r8, #-976]	; 0xfffffc30
    17d0:	00cccccc 	sbceq	ip, ip, ip, asr #25
    17d4:	1e000000 	cdpne	0, 0, cr0, cr0, cr0, {0}
    17d8:	25f72008 	ldrbcs	r2, [r7, #8]!
    17dc:	332cf725 	msrcc	CPSR_fs, #9699328	; 0x940000
    17e0:	02e09f25 	rsceq	r9, r0, #37, 30	; 0x94
    17e4:	02e40000 	rsceq	r0, r4, #0
    17e8:	00010000 	andeq	r0, r1, r0
    17ec:	0002e453 	andeq	lr, r2, r3, asr r4
    17f0:	0002ec00 	andeq	lr, r2, r0, lsl #24
    17f4:	70001c00 	andvc	r1, r0, r0, lsl #24
    17f8:	f72cf700 			; <UNDEFINED> instruction: 0xf72cf700
    17fc:	0825f425 	stmdaeq	r5!, {r0, r2, r5, sl, ip, sp, lr, pc}
    1800:	cccccccd 	stclgt	12, cr12, [ip], {205}	; 0xcd
    1804:	00000000 	andeq	r0, r0, r0
    1808:	f720081e 			; <UNDEFINED> instruction: 0xf720081e
    180c:	2cf72525 	cfldr64cs	mvdx2, [r7], #148	; 0x94
    1810:	ec9f2533 	cfldr32	mvfx2, [pc], {51}	; 0x33
    1814:	f0000002 			; <UNDEFINED> instruction: 0xf0000002
    1818:	01000002 	tsteq	r0, r2
    181c:	02f05300 	rscseq	r5, r0, #0, 6
    1820:	02f80000 	rscseq	r0, r8, #0
    1824:	001c0000 	andseq	r0, ip, r0
    1828:	2cf70070 	ldclcs	0, cr0, [r7], #448	; 0x1c0
    182c:	25f425f7 	ldrbcs	r2, [r4, #1527]!	; 0x5f7
    1830:	cccccd08 	stclgt	13, cr12, [ip], {8}
    1834:	000000cc 	andeq	r0, r0, ip, asr #1
    1838:	20081e00 	andcs	r1, r8, r0, lsl #28
    183c:	f72525f7 			; <UNDEFINED> instruction: 0xf72525f7
    1840:	9f25332c 	svcls	0x0025332c
    1844:	000002f8 	strdeq	r0, [r0], -r8
    1848:	000002fc 	strdeq	r0, [r0], -ip
    184c:	fc530001 	mrrc2	0, 0, r0, r3, cr1
    1850:	04000002 	streq	r0, [r0], #-2
    1854:	1c000003 	stcne	0, cr0, [r0], {3}
    1858:	f7007000 			; <UNDEFINED> instruction: 0xf7007000
    185c:	f425f72c 	vld1.8	{d15}, [r5 :128], ip
    1860:	cccd0825 	stclgt	8, cr0, [sp], {37}	; 0x25
    1864:	0000cccc 	andeq	ip, r0, ip, asr #25
    1868:	081e0000 	ldmdaeq	lr, {}	; <UNPREDICTABLE>
    186c:	2525f720 	strcs	pc, [r5, #-1824]!	; 0x720
    1870:	25332cf7 	ldrcs	r2, [r3, #-3319]!	; 0xcf7
    1874:	0003049f 	muleq	r3, pc, r4	; <UNPREDICTABLE>
    1878:	00030800 	andeq	r0, r3, r0, lsl #16
    187c:	53000100 	movwpl	r0, #256	; 0x100
    1880:	00000308 	andeq	r0, r0, r8, lsl #6
    1884:	00000310 	andeq	r0, r0, r0, lsl r3
    1888:	0070001c 	rsbseq	r0, r0, ip, lsl r0
    188c:	25f72cf7 	ldrbcs	r2, [r7, #3319]!	; 0xcf7
    1890:	cd0825f4 	cfstr32gt	mvfx2, [r8, #-976]	; 0xfffffc30
    1894:	00cccccc 	sbceq	ip, ip, ip, asr #25
    1898:	1e000000 	cdpne	0, 0, cr0, cr0, cr0, {0}
    189c:	25f72008 	ldrbcs	r2, [r7, #8]!
    18a0:	332cf725 	msrcc	CPSR_fs, #9699328	; 0x940000
    18a4:	03109f25 	tsteq	r0, #37, 30	; 0x94
    18a8:	03140000 	tsteq	r4, #0
    18ac:	00010000 	andeq	r0, r1, r0
    18b0:	00031453 	andeq	r1, r3, r3, asr r4
    18b4:	00031800 	andeq	r1, r3, r0, lsl #16
    18b8:	70001c00 	andvc	r1, r0, r0, lsl #24
    18bc:	f72cf700 			; <UNDEFINED> instruction: 0xf72cf700
    18c0:	0825f425 	stmdaeq	r5!, {r0, r2, r5, sl, ip, sp, lr, pc}
    18c4:	cccccccd 	stclgt	12, cr12, [ip], {205}	; 0xcd
    18c8:	00000000 	andeq	r0, r0, r0
    18cc:	f720081e 			; <UNDEFINED> instruction: 0xf720081e
    18d0:	2cf72525 	cfldr64cs	mvdx2, [r7], #148	; 0x94
    18d4:	189f2533 	ldmne	pc, {r0, r1, r4, r5, r8, sl, sp}	; <UNPREDICTABLE>
    18d8:	20000003 	andcs	r0, r0, r3
    18dc:	1c000003 	stcne	0, cr0, [r0], {3}
    18e0:	f7007400 			; <UNDEFINED> instruction: 0xf7007400
    18e4:	f425f72c 	vld1.8	{d15}, [r5 :128], ip
    18e8:	cccd0825 	stclgt	8, cr0, [sp], {37}	; 0x25
    18ec:	0000cccc 	andeq	ip, r0, ip, asr #25
    18f0:	081e0000 	ldmdaeq	lr, {}	; <UNPREDICTABLE>
    18f4:	2525f720 	strcs	pc, [r5, #-1824]!	; 0x720
    18f8:	25332cf7 	ldrcs	r2, [r3, #-3319]!	; 0xcf7
    18fc:	0003209f 	muleq	r3, pc, r0	; <UNPREDICTABLE>
    1900:	00032400 	andeq	r2, r3, r0, lsl #8
    1904:	74001700 	strvc	r1, [r0], #-1792	; 0x700
    1908:	f72cf700 			; <UNDEFINED> instruction: 0xf72cf700
    190c:	f7007325 			; <UNDEFINED> instruction: 0xf7007325
    1910:	1e25f72c 	cdpne	7, 2, cr15, cr5, cr12, {1}
    1914:	25f72008 	ldrbcs	r2, [r7, #8]!
    1918:	332cf725 	msrcc	CPSR_fs, #9699328	; 0x940000
    191c:	03249f25 	teqeq	r4, #37, 30	; 0x94
    1920:	03580000 	cmpeq	r8, #0
    1924:	001c0000 	andseq	r0, ip, r0
    1928:	2cf70074 	ldclcs	0, cr0, [r7], #464	; 0x1d0
    192c:	25f425f7 	ldrbcs	r2, [r4, #1527]!	; 0x5f7
    1930:	cccccd08 	stclgt	13, cr12, [ip], {8}
    1934:	000000cc 	andeq	r0, r0, ip, asr #1
    1938:	20081e00 	andcs	r1, r8, r0, lsl #28
    193c:	f72525f7 			; <UNDEFINED> instruction: 0xf72525f7
    1940:	9f25332c 	svcls	0x0025332c
	...
    194c:	0000031c 	andeq	r0, r0, ip, lsl r3
    1950:	00000340 	andeq	r0, r0, r0, asr #6
    1954:	40500001 	subsmi	r0, r0, r1
    1958:	48000003 	stmdami	r0, {r0, r1}
    195c:	09000003 	stmdbeq	r0, {r0, r1}
    1960:	73007500 	movwvc	r7, #1280	; 0x500
    1964:	00712400 	rsbseq	r2, r1, r0, lsl #8
    1968:	03489f21 	movteq	r9, #36641	; 0x8f21
    196c:	034b0000 	movteq	r0, #45056	; 0xb000
    1970:	00010000 	andeq	r0, r1, r0
    1974:	00000051 	andeq	r0, r0, r1, asr r0
    1978:	00000000 	andeq	r0, r0, r0
    197c:	00035800 	andeq	r5, r3, r0, lsl #16
    1980:	00037c00 	andeq	r7, r3, r0, lsl #24
    1984:	50000100 	andpl	r0, r0, r0, lsl #2
    1988:	0000037c 	andeq	r0, r0, ip, ror r3
    198c:	00000390 	muleq	r0, r0, r3
    1990:	01f30004 	mvnseq	r0, r4
    1994:	00009f50 	andeq	r9, r0, r0, asr pc
    1998:	00000000 	andeq	r0, r0, r0
    199c:	03640000 	cmneq	r4, #0
    19a0:	036c0000 	cmneq	ip, #0
    19a4:	00020000 	andeq	r0, r2, r0
    19a8:	036c9f30 	cmneq	ip, #48, 30	; 0xc0
    19ac:	036c0000 	cmneq	ip, #0
    19b0:	00010000 	andeq	r0, r1, r0
    19b4:	00036c52 	andeq	r6, r3, r2, asr ip
    19b8:	00037400 	andeq	r7, r3, r0, lsl #8
    19bc:	30000200 	andcc	r0, r0, r0, lsl #4
    19c0:	0003749f 	muleq	r3, pc, r4	; <UNPREDICTABLE>
    19c4:	00038700 	andeq	r8, r3, r0, lsl #14
    19c8:	52000100 	andpl	r0, r0, #0, 2
	...
    19d4:	00000364 	andeq	r0, r0, r4, ror #6
    19d8:	00000378 	andeq	r0, r0, r8, ror r3
    19dc:	9f300002 	svcls	0x00300002
    19e0:	00000378 	andeq	r0, r0, r8, ror r3
    19e4:	00000384 	andeq	r0, r0, r4, lsl #7
    19e8:	73310005 	teqvc	r1, #5
    19ec:	849f2400 	ldrhi	r2, [pc], #1024	; 19f4 <_start-0x660c>
    19f0:	87000003 	strhi	r0, [r0, -r3]
    19f4:	01000003 	tsteq	r0, r3
    19f8:	03875100 	orreq	r5, r7, #0, 2
    19fc:	03900000 	orrseq	r0, r0, #0
    1a00:	00080000 	andeq	r0, r8, r0
    1a04:	5001f331 	andpl	pc, r1, r1, lsr r3	; <UNPREDICTABLE>
    1a08:	9f241a4f 	svcls	0x00241a4f
	...
    1a14:	00000390 	muleq	r0, r0, r3
    1a18:	0000039c 	muleq	r0, ip, r3
    1a1c:	9c500001 	mrrcls	0, 0, r0, r0, cr1	; <UNPREDICTABLE>
    1a20:	bc000003 	stclt	0, cr0, [r0], {3}
    1a24:	04000003 	streq	r0, [r0], #-3
    1a28:	5001f300 	andpl	pc, r1, r0, lsl #6
    1a2c:	0000009f 	muleq	r0, pc, r0	; <UNPREDICTABLE>
    1a30:	00000000 	andeq	r0, r0, r0
    1a34:	0003bc00 	andeq	fp, r3, r0, lsl #24
    1a38:	0003cf00 	andeq	ip, r3, r0, lsl #30
    1a3c:	50000100 	andpl	r0, r0, r0, lsl #2
    1a40:	000003cf 	andeq	r0, r0, pc, asr #7
    1a44:	00000408 	andeq	r0, r0, r8, lsl #8
    1a48:	08540001 	ldmdaeq	r4, {r0}^
    1a4c:	40000004 	andmi	r0, r0, r4
    1a50:	04000004 	streq	r0, [r0], #-4
    1a54:	5001f300 	andpl	pc, r1, r0, lsl #6
    1a58:	0000009f 	muleq	r0, pc, r0	; <UNPREDICTABLE>
    1a5c:	00000000 	andeq	r0, r0, r0
    1a60:	00042800 	andeq	r2, r4, r0, lsl #16
    1a64:	00042c00 	andeq	r2, r4, r0, lsl #24
    1a68:	50000100 	andpl	r0, r0, r0, lsl #2
    1a6c:	0000042c 	andeq	r0, r0, ip, lsr #8
    1a70:	00000433 	andeq	r0, r0, r3, lsr r4
    1a74:	00510001 	subseq	r0, r1, r1
    1a78:	00000000 	andeq	r0, r0, r0
    1a7c:	e4000000 	str	r0, [r0], #-0
    1a80:	ec000003 	stc	0, cr0, [r0], {3}
    1a84:	01000003 	tsteq	r0, r3
    1a88:	03ec5000 	mvneq	r5, #0
    1a8c:	03f30000 	mvnseq	r0, #0
    1a90:	00010000 	andeq	r0, r1, r0
    1a94:	00000051 	andeq	r0, r0, r1, asr r0
    1a98:	00000000 	andeq	r0, r0, r0
    1a9c:	00040400 	andeq	r0, r4, r0, lsl #8
    1aa0:	00041000 	andeq	r1, r4, r0
    1aa4:	50000100 	andpl	r0, r0, r0, lsl #2
    1aa8:	00000410 	andeq	r0, r0, r0, lsl r4
    1aac:	00000417 	andeq	r0, r0, r7, lsl r4
    1ab0:	00510001 	subseq	r0, r1, r1
    1ab4:	00000000 	andeq	r0, r0, r0
    1ab8:	40000000 	andmi	r0, r0, r0
    1abc:	53000004 	movwpl	r0, #4
    1ac0:	01000004 	tsteq	r0, r4
    1ac4:	04535000 	ldrbeq	r5, [r3], #-0
    1ac8:	048c0000 	streq	r0, [ip], #0
    1acc:	00010000 	andeq	r0, r1, r0
    1ad0:	00048c54 	andeq	r8, r4, r4, asr ip
    1ad4:	0004c400 	andeq	ip, r4, r0, lsl #8
    1ad8:	f3000400 	vshl.u8	d0, d0, d0
    1adc:	009f5001 	addseq	r5, pc, r1
    1ae0:	00000000 	andeq	r0, r0, r0
    1ae4:	ac000000 	stcge	0, cr0, [r0], {-0}
    1ae8:	b0000004 	andlt	r0, r0, r4
    1aec:	01000004 	tsteq	r0, r4
    1af0:	04b05000 	ldrteq	r5, [r0], #0
    1af4:	04b70000 	ldrteq	r0, [r7], #0
    1af8:	00010000 	andeq	r0, r1, r0
    1afc:	00000051 	andeq	r0, r0, r1, asr r0
    1b00:	00000000 	andeq	r0, r0, r0
    1b04:	00046800 	andeq	r6, r4, r0, lsl #16
    1b08:	00047000 	andeq	r7, r4, r0
    1b0c:	50000100 	andpl	r0, r0, r0, lsl #2
    1b10:	00000470 	andeq	r0, r0, r0, ror r4
    1b14:	00000477 	andeq	r0, r0, r7, ror r4
    1b18:	00510001 	subseq	r0, r1, r1
    1b1c:	00000000 	andeq	r0, r0, r0
    1b20:	88000000 	stmdahi	r0, {}	; <UNPREDICTABLE>
    1b24:	94000004 	strls	r0, [r0], #-4
    1b28:	01000004 	tsteq	r0, r4
    1b2c:	04945000 	ldreq	r5, [r4], #0
    1b30:	049b0000 	ldreq	r0, [fp], #0
    1b34:	00010000 	andeq	r0, r1, r0
    1b38:	00000051 	andeq	r0, r0, r1, asr r0
    1b3c:	00000000 	andeq	r0, r0, r0
    1b40:	0004c400 	andeq	ip, r4, r0, lsl #8
    1b44:	0004d700 	andeq	sp, r4, r0, lsl #14
    1b48:	50000100 	andpl	r0, r0, r0, lsl #2
    1b4c:	000004d7 	ldrdeq	r0, [r0], -r7
    1b50:	00000518 	andeq	r0, r0, r8, lsl r5
    1b54:	18540001 	ldmdane	r4, {r0}^
    1b58:	3c000005 	stccc	0, cr0, [r0], {5}
    1b5c:	04000005 	streq	r0, [r0], #-5
    1b60:	5001f300 	andpl	pc, r1, r0, lsl #6
    1b64:	00053c9f 	muleq	r5, pc, ip	; <UNPREDICTABLE>
    1b68:	00054000 	andeq	r4, r5, r0
    1b6c:	50000100 	andpl	r0, r0, r0, lsl #2
    1b70:	00000540 	andeq	r0, r0, r0, asr #10
    1b74:	00000548 	andeq	r0, r0, r8, asr #10
    1b78:	00540001 	subseq	r0, r4, r1
    1b7c:	00000000 	andeq	r0, r0, r0
    1b80:	ec000000 	stc	0, cr0, [r0], {-0}
    1b84:	fb000004 	blx	1b9e <_start-0x6462>
    1b88:	08000004 	stmdaeq	r0, {r2}
    1b8c:	00743100 	rsbseq	r3, r4, r0, lsl #2
    1b90:	1a007024 	bne	1dc28 <__bss_end__+0x11950>
    1b94:	0000009f 	muleq	r0, pc, r0	; <UNPREDICTABLE>
    1b98:	00000000 	andeq	r0, r0, r0
    1b9c:	00051800 	andeq	r1, r5, r0, lsl #16
    1ba0:	00053000 	andeq	r3, r5, r0
    1ba4:	54000100 	strpl	r0, [r0], #-256	; 0x100
	...
    1bb0:	00000548 	andeq	r0, r0, r8, asr #10
    1bb4:	0000055b 	andeq	r0, r0, fp, asr r5
    1bb8:	5b500001 	blpl	1401bc4 <__bss_end__+0x13f58ec>
    1bbc:	80000005 	andhi	r0, r0, r5
    1bc0:	01000005 	tsteq	r0, r5
    1bc4:	05805400 	streq	r5, [r0, #1024]	; 0x400
    1bc8:	05a00000 	streq	r0, [r0, #0]!
    1bcc:	00040000 	andeq	r0, r4, r0
    1bd0:	9f5001f3 	svcls	0x005001f3
	...
    1bdc:	000000fc 	strdeq	r0, [r0], -ip
    1be0:	00000104 	andeq	r0, r0, r4, lsl #2
    1be4:	04500001 	ldrbeq	r0, [r0], #-1
    1be8:	28000001 	stmdacs	r0, {r0}
    1bec:	01000001 	tsteq	r0, r1
    1bf0:	00005400 	andeq	r5, r0, r0, lsl #8
    1bf4:	00000000 	andeq	r0, r0, r0
    1bf8:	00300000 	eorseq	r0, r0, r0
    1bfc:	003c0000 	eorseq	r0, ip, r0
    1c00:	00020000 	andeq	r0, r2, r0
    1c04:	003c9f30 	eorseq	r9, ip, r0, lsr pc
    1c08:	00680000 	rsbeq	r0, r8, r0
    1c0c:	00010000 	andeq	r0, r1, r0
    1c10:	00000053 	andeq	r0, r0, r3, asr r0
    1c14:	00000000 	andeq	r0, r0, r0
    1c18:	00006800 	andeq	r6, r0, r0, lsl #16
    1c1c:	00007700 	andeq	r7, r0, r0, lsl #14
    1c20:	50000100 	andpl	r0, r0, r0, lsl #2
    1c24:	00000077 	andeq	r0, r0, r7, ror r0
    1c28:	000000ac 	andeq	r0, r0, ip, lsr #1
    1c2c:	00540001 	subseq	r0, r4, r1
	...
    1c38:	0f000000 	svceq	0x00000000
    1c3c:	01000000 	mrseq	r0, (UNDEF: 0)
    1c40:	000f5000 	andeq	r5, pc, r0
    1c44:	00440000 	subeq	r0, r4, r0
    1c48:	00010000 	andeq	r0, r1, r0
    1c4c:	00000054 	andeq	r0, r0, r4, asr r0
	...
    1c58:	00000f00 	andeq	r0, r0, r0, lsl #30
    1c5c:	50000100 	andpl	r0, r0, r0, lsl #2
    1c60:	0000000f 	andeq	r0, r0, pc
    1c64:	00000044 	andeq	r0, r0, r4, asr #32
    1c68:	00540001 	subseq	r0, r4, r1
	...
    1c74:	0f000000 	svceq	0x00000000
    1c78:	01000000 	mrseq	r0, (UNDEF: 0)
    1c7c:	000f5000 	andeq	r5, pc, r0
    1c80:	00440000 	subeq	r0, r4, r0
    1c84:	00010000 	andeq	r0, r1, r0
    1c88:	00000054 	andeq	r0, r0, r4, asr r0
	...
    1c94:	00000f00 	andeq	r0, r0, r0, lsl #30
    1c98:	50000100 	andpl	r0, r0, r0, lsl #2
    1c9c:	0000000f 	andeq	r0, r0, pc
    1ca0:	00000044 	andeq	r0, r0, r4, asr #32
    1ca4:	00540001 	subseq	r0, r4, r1
    1ca8:	00000000 	andeq	r0, r0, r0
    1cac:	Address 0x0000000000001cac is out of bounds.


Disassembly of section .debug_aranges:

00000000 <.debug_aranges>:
   0:	0000001c 	andeq	r0, r0, ip, lsl r0
   4:	00000002 	andeq	r0, r0, r2
   8:	00040000 	andeq	r0, r4, r0
   c:	00000000 	andeq	r0, r0, r0
  10:	00008010 	andeq	r8, r0, r0, lsl r0
  14:	00000830 	andeq	r0, r0, r0, lsr r8
	...
  20:	0000001c 	andeq	r0, r0, ip, lsl r0
  24:	12530002 	subsne	r0, r3, #2
  28:	00040000 	andeq	r0, r4, r0
  2c:	00000000 	andeq	r0, r0, r0
  30:	00008840 	andeq	r8, r0, r0, asr #16
  34:	00000020 	andeq	r0, r0, r0, lsr #32
	...
  40:	0000001c 	andeq	r0, r0, ip, lsl r0
  44:	13320002 	teqne	r2, #2
  48:	00040000 	andeq	r0, r4, r0
  4c:	00000000 	andeq	r0, r0, r0
  50:	00008860 	andeq	r8, r0, r0, ror #16
  54:	00000058 	andeq	r0, r0, r8, asr r0
	...
  60:	0000001c 	andeq	r0, r0, ip, lsl r0
  64:	14c70002 	strbne	r0, [r7], #2
  68:	00040000 	andeq	r0, r4, r0
  6c:	00000000 	andeq	r0, r0, r0
  70:	000088b8 			; <UNDEFINED> instruction: 0x000088b8
  74:	0000003c 	andeq	r0, r0, ip, lsr r0
	...
  80:	0000001c 	andeq	r0, r0, ip, lsl r0
  84:	15de0002 	ldrbne	r0, [lr, #2]
  88:	00040000 	andeq	r0, r4, r0
  8c:	00000000 	andeq	r0, r0, r0
  90:	000088f4 	strdeq	r8, [r0], -r4
  94:	00000034 	andeq	r0, r0, r4, lsr r0
	...
  a0:	0000001c 	andeq	r0, r0, ip, lsl r0
  a4:	16d00002 	ldrbne	r0, [r0], r2
  a8:	00040000 	andeq	r0, r4, r0
  ac:	00000000 	andeq	r0, r0, r0
  b0:	00008928 	andeq	r8, r0, r8, lsr #18
  b4:	000004f8 	strdeq	r0, [r0], -r8
	...
  c0:	0000001c 	andeq	r0, r0, ip, lsl r0
  c4:	1d550002 	ldclne	0, cr0, [r5, #-8]
  c8:	00040000 	andeq	r0, r4, r0
  cc:	00000000 	andeq	r0, r0, r0
  d0:	00008e20 	andeq	r8, r0, r0, lsr #28
  d4:	00000020 	andeq	r0, r0, r0, lsr #32
	...
  e0:	0000001c 	andeq	r0, r0, ip, lsl r0
  e4:	1e110002 	cdpne	0, 1, cr0, cr1, cr2, {0}
  e8:	00040000 	andeq	r0, r4, r0
  ec:	00000000 	andeq	r0, r0, r0
  f0:	00008e40 	andeq	r8, r0, r0, asr #28
  f4:	00000028 	andeq	r0, r0, r8, lsr #32
	...
 100:	0000001c 	andeq	r0, r0, ip, lsl r0
 104:	1f140002 	svcne	0x00140002
 108:	00040000 	andeq	r0, r4, r0
 10c:	00000000 	andeq	r0, r0, r0
 110:	00008e68 	andeq	r8, r0, r8, ror #28
 114:	00000034 	andeq	r0, r0, r4, lsr r0
	...
 120:	0000001c 	andeq	r0, r0, ip, lsl r0
 124:	20170002 	andscs	r0, r7, r2
 128:	00040000 	andeq	r0, r4, r0
 12c:	00000000 	andeq	r0, r0, r0
 130:	00008e9c 	muleq	r0, ip, lr
 134:	00000074 	andeq	r0, r0, r4, ror r0
	...
 140:	0000001c 	andeq	r0, r0, ip, lsl r0
 144:	21c80002 	biccs	r0, r8, r2
 148:	00040000 	andeq	r0, r4, r0
 14c:	00000000 	andeq	r0, r0, r0
 150:	00008f10 	andeq	r8, r0, r0, lsl pc
 154:	00000088 	andeq	r0, r0, r8, lsl #1
	...
 160:	0000001c 	andeq	r0, r0, ip, lsl r0
 164:	23a40002 			; <UNDEFINED> instruction: 0x23a40002
 168:	00040000 	andeq	r0, r4, r0
 16c:	00000000 	andeq	r0, r0, r0
 170:	00008f98 	muleq	r0, r8, pc	; <UNPREDICTABLE>
 174:	000005a0 	andeq	r0, r0, r0, lsr #11
	...
 180:	0000001c 	andeq	r0, r0, ip, lsl r0
 184:	2c2a0002 	stccs	0, cr0, [sl], #-8
 188:	00040000 	andeq	r0, r4, r0
 18c:	00000000 	andeq	r0, r0, r0
 190:	00009538 	andeq	r9, r0, r8, lsr r5
 194:	00000154 	andeq	r0, r0, r4, asr r1
	...
 1a0:	0000001c 	andeq	r0, r0, ip, lsl r0
 1a4:	302d0002 	eorcc	r0, sp, r2
 1a8:	00040000 	andeq	r0, r4, r0
 1ac:	00000000 	andeq	r0, r0, r0
 1b0:	0000968c 	andeq	r9, r0, ip, lsl #13
 1b4:	000000ac 	andeq	r0, r0, ip, lsr #1
	...
 1c0:	0000001c 	andeq	r0, r0, ip, lsl r0
 1c4:	32cc0002 	sbccc	r0, ip, #2
 1c8:	00040000 	andeq	r0, r4, r0
 1cc:	00000000 	andeq	r0, r0, r0
 1d0:	00009888 	andeq	r9, r0, r8, lsl #17
 1d4:	00000044 	andeq	r0, r0, r4, asr #32
	...
 1e0:	0000001c 	andeq	r0, r0, ip, lsl r0
 1e4:	340e0002 	strcc	r0, [lr], #-2
 1e8:	00040000 	andeq	r0, r4, r0
 1ec:	00000000 	andeq	r0, r0, r0
 1f0:	000098cc 	andeq	r9, r0, ip, asr #17
 1f4:	00000044 	andeq	r0, r0, r4, asr #32
	...
 200:	0000001c 	andeq	r0, r0, ip, lsl r0
 204:	35500002 	ldrbcc	r0, [r0, #-2]
 208:	00040000 	andeq	r0, r4, r0
 20c:	00000000 	andeq	r0, r0, r0
 210:	00009910 	andeq	r9, r0, r0, lsl r9
 214:	00000044 	andeq	r0, r0, r4, asr #32
	...
 220:	0000001c 	andeq	r0, r0, ip, lsl r0
 224:	36920002 	ldrcc	r0, [r2], r2
 228:	00040000 	andeq	r0, r4, r0
 22c:	00000000 	andeq	r0, r0, r0
 230:	00009954 	andeq	r9, r0, r4, asr r9
 234:	00000044 	andeq	r0, r0, r4, asr #32
	...

Disassembly of section .debug_ranges:

00000000 <.debug_ranges>:
   0:	0000030c 	andeq	r0, r0, ip, lsl #6
   4:	00000318 	andeq	r0, r0, r8, lsl r3
   8:	000003a4 	andeq	r0, r0, r4, lsr #7
   c:	000003ac 	andeq	r0, r0, ip, lsr #7
	...
  18:	00000318 	andeq	r0, r0, r8, lsl r3
  1c:	0000031c 	andeq	r0, r0, ip, lsl r3
  20:	00000324 	andeq	r0, r0, r4, lsr #6
  24:	00000384 	andeq	r0, r0, r4, lsl #7
	...
  30:	00000324 	andeq	r0, r0, r4, lsr #6
  34:	00000358 	andeq	r0, r0, r8, asr r3
  38:	0000035c 	andeq	r0, r0, ip, asr r3
  3c:	00000360 	andeq	r0, r0, r0, ror #6
	...
  48:	00000748 	andeq	r0, r0, r8, asr #14
  4c:	00000790 	muleq	r0, r0, r7
  50:	00000794 	muleq	r0, r4, r7
  54:	00000798 	muleq	r0, r8, r7
	...
  60:	00000294 	muleq	r0, r4, r2
  64:	00000298 	muleq	r0, r8, r2
  68:	000002c8 	andeq	r0, r0, r8, asr #5
  6c:	000004b8 			; <UNDEFINED> instruction: 0x000004b8
	...
  78:	00008e9c 	muleq	r0, ip, lr
  7c:	00008f10 	andeq	r8, r0, r0, lsl pc
	...

Disassembly of section .debug_line:

00000000 <.debug_line>:
       0:	000003f4 	strdeq	r0, [r0], -r4
       4:	025d0002 	subseq	r0, sp, #2
       8:	01020000 	mrseq	r0, (UNDEF: 2)
       c:	000d0efb 	strdeq	r0, [sp], -fp
      10:	01010101 	tsteq	r1, r1, lsl #2
      14:	01000000 	mrseq	r0, (UNDEF: 0)
      18:	2f010000 	svccs	0x00010000
      1c:	72657355 	rsbvc	r7, r5, #1409286145	; 0x54000001
      20:	72622f73 	rsbvc	r2, r2, #460	; 0x1cc
      24:	6a6e6169 	bvs	1b985d0 <__bss_end__+0x1b8c2f8>
      28:	442f6e75 	strtmi	r6, [pc], #-3701	; 30 <_start-0x7fd0>
      2c:	746b7365 	strbtvc	r7, [fp], #-869	; 0x365
      30:	732f706f 	teqvc	pc, #111	; 0x6f
      34:	6f6f6863 	svcvs	0x006f6863
      38:	69572f6c 	ldmdbvs	r7, {r2, r3, r5, r6, r8, r9, sl, fp, sp}^
      3c:	7265746e 	rsbvc	r7, r5, #1845493760	; 0x6e000000
      40:	30323931 	eorscc	r3, r2, r1, lsr r9
      44:	3153432f 	cmpcc	r3, pc, lsr #6
      48:	2f453034 	svccs	0x00453034
      4c:	34317363 	ldrtcc	r7, [r1], #-867	; 0x363
      50:	322d6530 	eorcc	r6, sp, #48, 10	; 0xc000000
      54:	6e697730 	mcrvs	7, 3, r7, cr9, cr0, {1}
      58:	62696c2f 	rsbvs	r6, r9, #12032	; 0x2f00
      5c:	6c2f6970 	stcvs	9, cr6, [pc], #-448	; fffffea4 <__bss_end__+0xffff3bcc>
      60:	00636269 	rsbeq	r6, r3, r9, ror #4
      64:	7273752f 	rsbsvc	r7, r3, #197132288	; 0xbc00000
      68:	636f6c2f 	cmnvs	pc, #12032	; 0x2f00
      6c:	432f6c61 	teqmi	pc, #24832	; 0x6100
      70:	616c6c65 	cmnvs	ip, r5, ror #24
      74:	72612f72 	rsbvc	r2, r1, #456	; 0x1c8
      78:	6f6e2d6d 	svcvs	0x006e2d6d
      7c:	652d656e 	strvs	r6, [sp, #-1390]!	; 0x56e
      80:	2f696261 	svccs	0x00696261
      84:	2e382e34 	mrccs	14, 1, r2, cr8, cr4, {1}
      88:	73632d33 	cmnvc	r3, #3264	; 0xcc0
      8c:	65303731 	ldrvs	r3, [r0, #-1841]!	; 0x731
      90:	62696c2f 	rsbvs	r6, r9, #12032	; 0x2f00
      94:	6363672f 	cmnvs	r3, #12320768	; 0xbc0000
      98:	6d72612f 	ldfvse	f6, [r2, #-188]!	; 0xffffff44
      9c:	6e6f6e2d 	cdpvs	14, 6, cr6, cr15, cr13, {1}
      a0:	61652d65 	cmnvs	r5, r5, ror #26
      a4:	342f6962 	strtcc	r6, [pc], #-2402	; ac <_start-0x7f54>
      a8:	332e382e 	teqcc	lr, #3014656	; 0x2e0000
      ac:	636e692f 	cmnvs	lr, #770048	; 0xbc000
      b0:	6564756c 	strbvs	r7, [r4, #-1388]!	; 0x56c
      b4:	73552f00 	cmpvc	r5, #0, 30
      b8:	2f737265 	svccs	0x00737265
      bc:	61697262 	cmnvs	r9, r2, ror #4
      c0:	6e756a6e 	vsubvs.f32	s13, s10, s29
      c4:	7365442f 	cmnvc	r5, #788529152	; 0x2f000000
      c8:	706f746b 	rsbvc	r7, pc, fp, ror #8
      cc:	6863732f 	stmdavs	r3!, {r0, r1, r2, r3, r5, r8, r9, ip, sp, lr}^
      d0:	2f6c6f6f 	svccs	0x006c6f6f
      d4:	746e6957 	strbtvc	r6, [lr], #-2391	; 0x957
      d8:	39317265 	ldmdbcc	r1!, {r0, r2, r5, r6, r9, ip, sp, lr}
      dc:	432f3032 	teqmi	pc, #50	; 0x32
      e0:	30343153 	eorscc	r3, r4, r3, asr r1
      e4:	73632f45 	cmnvc	r3, #276	; 0x114
      e8:	65303431 	ldrvs	r3, [r0, #-1073]!	; 0x431
      ec:	7730322d 	ldrvc	r3, [r0, -sp, lsr #4]!
      f0:	6c2f6e69 	stcvs	14, cr6, [pc], #-420	; ffffff54 <__bss_end__+0xffff3c7c>
      f4:	69706269 	ldmdbvs	r0!, {r0, r3, r5, r6, r9, sp, lr}^
      f8:	3173632f 	cmncc	r3, pc, lsr #6
      fc:	2d653034 	stclcs	0, cr3, [r5, #-208]!	; 0xffffff30
     100:	65746e69 	ldrbvs	r6, [r4, #-3689]!	; 0xe69
     104:	70757272 	rsbsvc	r7, r5, r2, ror r2
     108:	552f0074 	strpl	r0, [pc, #-116]!	; 9c <_start-0x7f64>
     10c:	73726573 	cmnvc	r2, #482344960	; 0x1cc00000
     110:	6972622f 	ldmdbvs	r2!, {r0, r1, r2, r3, r5, r9, sp, lr}^
     114:	756a6e61 	strbvc	r6, [sl, #-3681]!	; 0xe61
     118:	65442f6e 	strbvs	r2, [r4, #-3950]	; 0xf6e
     11c:	6f746b73 	svcvs	0x00746b73
     120:	63732f70 	cmnvs	r3, #112, 30	; 0x1c0
     124:	6c6f6f68 	stclvs	15, cr6, [pc], #-416	; ffffff8c <__bss_end__+0xffff3cb4>
     128:	6e69572f 	cdpvs	7, 6, cr5, cr9, cr15, {1}
     12c:	31726574 	cmncc	r2, r4, ror r5
     130:	2f303239 	svccs	0x00303239
     134:	34315343 	ldrtcc	r5, [r1], #-835	; 0x343
     138:	632f4530 	teqvs	pc, #48, 10	; 0xc000000
     13c:	30343173 	eorscc	r3, r4, r3, ror r1
     140:	30322d65 	eorscc	r2, r2, r5, ror #26
     144:	2f6e6977 	svccs	0x006e6977
     148:	7062696c 	rsbvc	r6, r2, ip, ror #18
     14c:	552f0069 	strpl	r0, [pc, #-105]!	; eb <_start-0x7f15>
     150:	73726573 	cmnvc	r2, #482344960	; 0x1cc00000
     154:	6972622f 	ldmdbvs	r2!, {r0, r1, r2, r3, r5, r9, sp, lr}^
     158:	756a6e61 	strbvc	r6, [sl, #-3681]!	; 0xe61
     15c:	65442f6e 	strbvs	r2, [r4, #-3950]	; 0xf6e
     160:	6f746b73 	svcvs	0x00746b73
     164:	63732f70 	cmnvs	r3, #112, 30	; 0x1c0
     168:	6c6f6f68 	stclvs	15, cr6, [pc], #-416	; ffffffd0 <__bss_end__+0xffff3cf8>
     16c:	6e69572f 	cdpvs	7, 6, cr5, cr9, cr15, {1}
     170:	31726574 	cmncc	r2, r4, ror r5
     174:	2f303239 	svccs	0x00303239
     178:	34315343 	ldrtcc	r5, [r1], #-835	; 0x343
     17c:	632f4530 	teqvs	pc, #48, 10	; 0xc000000
     180:	30343173 	eorscc	r3, r4, r3, ror r1
     184:	30322d65 	eorscc	r2, r2, r5, ror #26
     188:	2f6e6977 	svccs	0x006e6977
     18c:	7062696c 	rsbvc	r6, r2, ip, ror #18
     190:	73632f69 	cmnvc	r3, #420	; 0x1a4
     194:	65303431 	ldrvs	r3, [r0, #-1073]!	; 0x431
     198:	6372732d 	cmnvs	r2, #-1275068416	; 0xb4000000
     19c:	73752f00 	cmnvc	r5, #0, 30
     1a0:	6f6c2f72 	svcvs	0x006c2f72
     1a4:	2f6c6163 	svccs	0x006c6163
     1a8:	6c6c6543 	cfstr64vs	mvdx6, [ip], #-268	; 0xfffffef4
     1ac:	612f7261 	teqvs	pc, r1, ror #4
     1b0:	6e2d6d72 	mcrvs	13, 1, r6, cr13, cr2, {3}
     1b4:	2d656e6f 	stclcs	14, cr6, [r5, #-444]!	; 0xfffffe44
     1b8:	69626165 	stmdbvs	r2!, {r0, r2, r5, r6, r8, sp, lr}^
     1bc:	382e342f 	stmdacc	lr!, {r0, r1, r2, r3, r5, sl, ip, sp}
     1c0:	632d332e 	teqvs	sp, #-1207959552	; 0xb8000000
     1c4:	30373173 	eorscc	r3, r7, r3, ror r1
     1c8:	72612f65 	rsbvc	r2, r1, #404	; 0x194
     1cc:	6f6e2d6d 	svcvs	0x006e2d6d
     1d0:	652d656e 	strvs	r6, [sp, #-1390]!	; 0x56e
     1d4:	2f696261 	svccs	0x00696261
     1d8:	6c636e69 	stclvs	14, cr6, [r3], #-420	; 0xfffffe5c
     1dc:	00656475 	rsbeq	r6, r5, r5, ror r4
     1e0:	6c2d3200 	sfmvs	f3, 4, [sp], #-0
     1e4:	6369676f 	cmnvs	r9, #29097984	; 0x1bc0000
     1e8:	616e612d 	cmnvs	lr, sp, lsr #2
     1ec:	657a796c 	ldrbvs	r7, [sl, #-2412]!	; 0x96c
     1f0:	00632e72 	rsbeq	r2, r3, r2, ror lr
     1f4:	63000000 	movwvs	r0, #0
     1f8:	75637269 	strbvc	r7, [r3, #-617]!	; 0x269
     1fc:	2e72616c 	rpwcssz	f6, f2, #4.0
     200:	00010068 	andeq	r0, r1, r8, rrx
     204:	64747300 	ldrbtvs	r7, [r4], #-768	; 0x300
     208:	2e666564 	cdpcs	5, 6, cr6, cr6, cr4, {3}
     20c:	00020068 	andeq	r0, r2, r8, rrx
     210:	64747300 	ldrbtvs	r7, [r4], #-768	; 0x300
     214:	2d746e69 	ldclcs	14, cr6, [r4, #-420]!	; 0xfffffe5c
     218:	2e636367 	cdpcs	3, 6, cr6, cr3, cr7, {3}
     21c:	00020068 	andeq	r0, r2, r8, rrx
     220:	69707200 	ldmdbvs	r0!, {r9, ip, sp, lr}^
     224:	6d72612d 	ldfvse	f6, [r2, #-180]!	; 0xffffff4c
     228:	656d6974 	strbvs	r6, [sp, #-2420]!	; 0x974
     22c:	00682e72 	rsbeq	r2, r8, r2, ror lr
     230:	72000003 	andvc	r0, r0, #3
     234:	682e6970 	stmdavs	lr!, {r4, r5, r6, r8, fp, sp, lr}
     238:	00000400 	andeq	r0, r0, r0, lsl #8
     23c:	2d697072 	stclcs	0, cr7, [r9, #-456]!	; 0xfffffe38
     240:	65746e69 	ldrbvs	r6, [r4, #-3689]!	; 0xe69
     244:	70757272 	rsbsvc	r7, r5, r2, ror r2
     248:	682e7374 	stmdavs	lr!, {r2, r4, r5, r6, r8, r9, ip, sp, lr}
     24c:	00000300 	andeq	r0, r0, r0, lsl #6
     250:	6f697067 	svcvs	0x00697067
     254:	0500682e 	streq	r6, [r0, #-2094]	; 0x82e
     258:	74730000 	ldrbtvc	r0, [r3], #-0
     25c:	676e6972 			; <UNDEFINED> instruction: 0x676e6972
     260:	0600682e 	streq	r6, [r0], -lr, lsr #16
     264:	00000000 	andeq	r0, r0, r0
     268:	80100205 	andshi	r0, r0, r5, lsl #4
     26c:	c1030000 	mrsgt	r0, (UNDEF: 3)
     270:	002f0100 	eoreq	r0, pc, r0, lsl #2
     274:	06010402 	streq	r0, [r1], -r2, lsl #8
     278:	2fd7064a 	svccs	0x00d7064a
     27c:	2f033067 	svccs	0x00033067
     280:	b703309e 			; <UNDEFINED> instruction: 0xb703309e
     284:	cc032e7f 	stcgt	14, cr2, [r3], {127}	; 0x7f
     288:	0200ba00 	andeq	fp, r0, #0, 20
     28c:	2e060104 	adfcss	f0, f6, f4
     290:	7fba0306 	svcvc	0x00ba0306
     294:	4a750382 	bmi	1d410a4 <__bss_end__+0x1d34dcc>
     298:	040200a3 	streq	r0, [r2], #-163	; 0xa3
     29c:	00ce0301 	sbceq	r0, lr, r1, lsl #6
     2a0:	7fb80382 	svcvc	0x00b80382
     2a4:	4a75039e 	bmi	1d41124 <__bss_end__+0x1d34e4c>
     2a8:	040200a3 	streq	r0, [r2], #-163	; 0xa3
     2ac:	00d00301 	sbcseq	r0, r0, r1, lsl #6
     2b0:	7fb60382 	svcvc	0x00b60382
     2b4:	4a75039e 	bmi	1d41134 <__bss_end__+0x1d34e5c>
     2b8:	040200a3 	streq	r0, [r2], #-163	; 0xa3
     2bc:	00d20301 	sbcseq	r0, r2, r1, lsl #6
     2c0:	7fb40382 	svcvc	0x00b40382
     2c4:	4a75039e 	bmi	1d41144 <__bss_end__+0x1d34e6c>
     2c8:	040200a3 	streq	r0, [r2], #-163	; 0xa3
     2cc:	00d40301 	sbcseq	r0, r4, r1, lsl #6
     2d0:	7fb20382 	svcvc	0x00b20382
     2d4:	4a75039e 	bmi	1d41154 <__bss_end__+0x1d34e7c>
     2d8:	040200a3 	streq	r0, [r2], #-163	; 0xa3
     2dc:	00d60301 	sbcseq	r0, r6, r1, lsl #6
     2e0:	7fb00382 	svcvc	0x00b00382
     2e4:	4a75039e 	bmi	1d41164 <__bss_end__+0x1d34e8c>
     2e8:	040200a3 	streq	r0, [r2], #-163	; 0xa3
     2ec:	00d80301 	sbcseq	r0, r8, r1, lsl #6
     2f0:	7fae0382 	svcvc	0x00ae0382
     2f4:	4a75039e 	bmi	1d41174 <__bss_end__+0x1d34e9c>
     2f8:	040200a3 	streq	r0, [r2], #-163	; 0xa3
     2fc:	00da0301 	sbcseq	r0, sl, r1, lsl #6
     300:	7fac0382 	svcvc	0x00ac0382
     304:	4a75039e 	bmi	1d41184 <__bss_end__+0x1d34eac>
     308:	040200a3 	streq	r0, [r2], #-163	; 0xa3
     30c:	00dc0301 	sbcseq	r0, ip, r1, lsl #6
     310:	7f9f0382 	svcvc	0x009f0382
     314:	00e3039e 	smlaleq	r0, r3, lr, r3
     318:	04020082 	streq	r0, [r2], #-130	; 0x82
     31c:	062e0601 	strteq	r0, [lr], -r1, lsl #12
     320:	67940883 	ldrvs	r0, [r4, r3, lsl #17]
     324:	7f96034b 	svcvc	0x0096034b
     328:	00ed032e 	rsceq	r0, sp, lr, lsr #6
     32c:	0302049e 	movweq	r0, #9374	; 0x249e
     330:	032e7fa1 	teqeq	lr, #644	; 0x284
     334:	01046613 	tsteq	r4, r3, lsl r6
     338:	2e00d003 	cdpcs	0, 0, cr13, cr0, cr3, {0}
     33c:	9d030204 	sfmls	f0, 4, [r3, #-16]
     340:	0a034a7f 	beq	d2d44 <__bss_end__+0xc6a6c>
     344:	4b2f4c4a 	blmi	bd3474 <__bss_end__+0xbc719c>
     348:	78034e83 	stmdavc	r3, {r0, r1, r7, r9, sl, fp, lr}
     34c:	2e0c032e 	cdpcs	3, 0, cr0, cr12, cr14, {1}
     350:	0301044b 	movweq	r0, #5195	; 0x144b
     354:	2fd600c9 	svccs	0x00d600c9
     358:	02049f2f 	andeq	r9, r4, #47, 30	; 0xbc
     35c:	01040200 	mrseq	r0, R12_usr
     360:	2e7f9c03 	cdpcs	12, 7, cr9, cr15, cr3, {0}
     364:	02000104 	andeq	r0, r0, #4, 2
     368:	e0030104 	and	r0, r3, r4, lsl #2
     36c:	02004a00 	andeq	r4, r0, #0, 20
     370:	6e490104 	dvfvse	f0, f1, f4
     374:	03355d08 	teqeq	r5, #8, 26	; 0x200
     378:	2f2e7fa5 	svccs	0x002e7fa5
     37c:	9f9fa085 	svcls	0x009fa085
     380:	d79fd79f 			; <UNDEFINED> instruction: 0xd79fd79f
     384:	d79fd79f 			; <UNDEFINED> instruction: 0xd79fd79f
     388:	d79fd79f 			; <UNDEFINED> instruction: 0xd79fd79f
     38c:	c6039f9f 			; <UNDEFINED> instruction: 0xc6039f9f
     390:	02049e00 	andeq	r9, r4, #0, 28
     394:	2e7faa03 	vaddcs.f32	s21, s30, s6
     398:	03666503 	cmneq	r6, #12582912	; 0xc00000
     39c:	4b4c9e1c 	blmi	1327c14 <__bss_end__+0x131b93c>
     3a0:	d3030104 	movwle	r0, #12548	; 0x3104
     3a4:	084b9e00 	stmdaeq	fp, {r9, sl, fp, ip, pc}^
     3a8:	302f2fe7 	eorcc	r2, pc, r7, ror #31
     3ac:	02044c4b 	andeq	r4, r4, #19200	; 0x4b00
     3b0:	9f4a6103 	svcls	0x004a6103
     3b4:	034b9f67 	movteq	r9, #48999	; 0xbf67
     3b8:	03827f9b 	orreq	r7, r2, #620	; 0x26c
     3bc:	034a00e6 	movteq	r0, #41190	; 0xa0e6
     3c0:	20087f9d 	mulcs	r8, sp, pc	; <UNPREDICTABLE>
     3c4:	d600e403 	strle	lr, [r0], -r3, lsl #8
     3c8:	087f9e03 	ldmdaeq	pc!, {r0, r1, r9, sl, fp, ip, pc}^	; <UNPREDICTABLE>
     3cc:	00e30320 	rsceq	r0, r3, r0, lsr #6
     3d0:	7f9803ba 	svcvc	0x009803ba
     3d4:	0a032008 	beq	c83fc <__bss_end__+0xbc124>
     3d8:	4b674c9e 	blmi	19d3658 <__bss_end__+0x19c7380>
     3dc:	00da0383 	sbcseq	r0, sl, r3, lsl #7
     3e0:	7fa2034a 	svcvc	0x00a2034a
     3e4:	00df032e 	sbcseq	r0, pc, lr, lsr #6
     3e8:	0301042e 	movweq	r0, #5166	; 0x142e
     3ec:	01220219 	teqeq	r2, r9, lsl r2
     3f0:	02874c2f 	addeq	r4, r7, #12032	; 0x2f00
     3f4:	0101001c 	tsteq	r1, ip, lsl r0
     3f8:	000000ec 	andeq	r0, r0, ip, ror #1
     3fc:	00d00002 	sbcseq	r0, r0, r2
     400:	01020000 	mrseq	r0, (UNDEF: 2)
     404:	000d0efb 	strdeq	r0, [sp], -fp
     408:	01010101 	tsteq	r1, r1, lsl #2
     40c:	01000000 	mrseq	r0, (UNDEF: 0)
     410:	6c010000 	stcvs	0, cr0, [r1], {-0}
     414:	00636269 	rsbeq	r6, r3, r9, ror #4
     418:	7273752f 	rsbsvc	r7, r3, #197132288	; 0xbc00000
     41c:	636f6c2f 	cmnvs	pc, #12032	; 0x2f00
     420:	432f6c61 	teqmi	pc, #24832	; 0x6100
     424:	616c6c65 	cmnvs	ip, r5, ror #24
     428:	72612f72 	rsbvc	r2, r1, #456	; 0x1c8
     42c:	6f6e2d6d 	svcvs	0x006e2d6d
     430:	652d656e 	strvs	r6, [sp, #-1390]!	; 0x56e
     434:	2f696261 	svccs	0x00696261
     438:	2e382e34 	mrccs	14, 1, r2, cr8, cr4, {1}
     43c:	73632d33 	cmnvc	r3, #3264	; 0xcc0
     440:	65303731 	ldrvs	r3, [r0, #-1841]!	; 0x731
     444:	62696c2f 	rsbvs	r6, r9, #12032	; 0x2f00
     448:	6363672f 	cmnvs	r3, #12320768	; 0xbc0000
     44c:	6d72612f 	ldfvse	f6, [r2, #-188]!	; 0xffffff44
     450:	6e6f6e2d 	cdpvs	14, 6, cr6, cr15, cr13, {1}
     454:	61652d65 	cmnvs	r5, r5, ror #26
     458:	342f6962 	strtcc	r6, [pc], #-2402	; 460 <_start-0x7ba0>
     45c:	332e382e 	teqcc	lr, #3014656	; 0x2e0000
     460:	636e692f 	cmnvs	lr, #770048	; 0xbc000
     464:	6564756c 	strbvs	r7, [r4, #-1388]!	; 0x56c
     468:	73752f00 	cmnvc	r5, #0, 30
     46c:	6f6c2f72 	svcvs	0x006c2f72
     470:	2f6c6163 	svccs	0x006c6163
     474:	6c6c6543 	cfstr64vs	mvdx6, [ip], #-268	; 0xfffffef4
     478:	612f7261 	teqvs	pc, r1, ror #4
     47c:	6e2d6d72 	mcrvs	13, 1, r6, cr13, cr2, {3}
     480:	2d656e6f 	stclcs	14, cr6, [r5, #-444]!	; 0xfffffe44
     484:	69626165 	stmdbvs	r2!, {r0, r2, r5, r6, r8, sp, lr}^
     488:	382e342f 	stmdacc	lr!, {r0, r1, r2, r3, r5, sl, ip, sp}
     48c:	632d332e 	teqvs	sp, #-1207959552	; 0xb8000000
     490:	30373173 	eorscc	r3, r7, r3, ror r1
     494:	72612f65 	rsbvc	r2, r1, #404	; 0x194
     498:	6f6e2d6d 	svcvs	0x006e2d6d
     49c:	652d656e 	strvs	r6, [sp, #-1390]!	; 0x56e
     4a0:	2f696261 	svccs	0x00696261
     4a4:	6c636e69 	stclvs	14, cr6, [r3], #-420	; 0xfffffe5c
     4a8:	00656475 	rsbeq	r6, r5, r5, ror r4
     4ac:	6d656d00 	stclvs	13, cr6, [r5, #-0]
     4b0:	2e746573 	mrccs	5, 3, r6, cr4, cr3, {3}
     4b4:	00010063 	andeq	r0, r1, r3, rrx
     4b8:	64747300 	ldrbtvs	r7, [r4], #-768	; 0x300
     4bc:	2e666564 	cdpcs	5, 6, cr6, cr6, cr4, {3}
     4c0:	00020068 	andeq	r0, r2, r8, rrx
     4c4:	72747300 	rsbsvc	r7, r4, #0, 6
     4c8:	2e676e69 	cdpcs	14, 6, cr6, cr7, cr9, {3}
     4cc:	00030068 	andeq	r0, r3, r8, rrx
     4d0:	05000000 	streq	r0, [r0, #-0]
     4d4:	00884002 	addeq	r4, r8, r2
     4d8:	4c131400 	cfldrsmi	mvf1, [r3], {-0}
     4dc:	0402002f 	streq	r0, [r2], #-47	; 0x2f
     4e0:	024d4901 	subeq	r4, sp, #16384	; 0x4000
     4e4:	01010002 	tsteq	r1, r2
     4e8:	00000102 	andeq	r0, r0, r2, lsl #2
     4ec:	00eb0002 	rsceq	r0, fp, r2
     4f0:	01020000 	mrseq	r0, (UNDEF: 2)
     4f4:	000d0efb 	strdeq	r0, [sp], -fp
     4f8:	01010101 	tsteq	r1, r1, lsl #2
     4fc:	01000000 	mrseq	r0, (UNDEF: 0)
     500:	6c010000 	stcvs	0, cr0, [r1], {-0}
     504:	00636269 	rsbeq	r6, r3, r9, ror #4
     508:	7273752f 	rsbsvc	r7, r3, #197132288	; 0xbc00000
     50c:	636f6c2f 	cmnvs	pc, #12032	; 0x2f00
     510:	432f6c61 	teqmi	pc, #24832	; 0x6100
     514:	616c6c65 	cmnvs	ip, r5, ror #24
     518:	72612f72 	rsbvc	r2, r1, #456	; 0x1c8
     51c:	6f6e2d6d 	svcvs	0x006e2d6d
     520:	652d656e 	strvs	r6, [sp, #-1390]!	; 0x56e
     524:	2f696261 	svccs	0x00696261
     528:	2e382e34 	mrccs	14, 1, r2, cr8, cr4, {1}
     52c:	73632d33 	cmnvc	r3, #3264	; 0xcc0
     530:	65303731 	ldrvs	r3, [r0, #-1841]!	; 0x731
     534:	62696c2f 	rsbvs	r6, r9, #12032	; 0x2f00
     538:	6363672f 	cmnvs	r3, #12320768	; 0xbc0000
     53c:	6d72612f 	ldfvse	f6, [r2, #-188]!	; 0xffffff44
     540:	6e6f6e2d 	cdpvs	14, 6, cr6, cr15, cr13, {1}
     544:	61652d65 	cmnvs	r5, r5, ror #26
     548:	342f6962 	strtcc	r6, [pc], #-2402	; 550 <_start-0x7ab0>
     54c:	332e382e 	teqcc	lr, #3014656	; 0x2e0000
     550:	636e692f 	cmnvs	lr, #770048	; 0xbc000
     554:	6564756c 	strbvs	r7, [r4, #-1388]!	; 0x56c
     558:	73552f00 	cmpvc	r5, #0, 30
     55c:	2f737265 	svccs	0x00737265
     560:	61697262 	cmnvs	r9, r2, ror #4
     564:	6e756a6e 	vsubvs.f32	s13, s10, s29
     568:	7365442f 	cmnvc	r5, #788529152	; 0x2f000000
     56c:	706f746b 	rsbvc	r7, pc, fp, ror #8
     570:	6863732f 	stmdavs	r3!, {r0, r1, r2, r3, r5, r8, r9, ip, sp, lr}^
     574:	2f6c6f6f 	svccs	0x006c6f6f
     578:	746e6957 	strbtvc	r6, [lr], #-2391	; 0x957
     57c:	39317265 	ldmdbcc	r1!, {r0, r2, r5, r6, r9, ip, sp, lr}
     580:	432f3032 	teqmi	pc, #50	; 0x32
     584:	30343153 	eorscc	r3, r4, r3, asr r1
     588:	73632f45 	cmnvc	r3, #276	; 0x114
     58c:	65303431 	ldrvs	r3, [r0, #-1073]!	; 0x431
     590:	7730322d 	ldrvc	r3, [r0, -sp, lsr #4]!
     594:	6c2f6e69 	stcvs	14, cr6, [pc], #-420	; 3f8 <_start-0x7c08>
     598:	69706269 	ldmdbvs	r0!, {r0, r3, r5, r6, r9, sp, lr}^
     59c:	72700000 	rsbsvc	r0, r0, #0
     5a0:	6b746e69 	blvs	1d1bf4c <__bss_end__+0x1d0fc74>
     5a4:	0100632e 	tsteq	r0, lr, lsr #6
     5a8:	74730000 	ldrbtvc	r0, [r3], #-0
     5ac:	67726164 	ldrbvs	r6, [r2, -r4, ror #2]!
     5b0:	0200682e 	andeq	r6, r0, #3014656	; 0x2e0000
     5b4:	623c0000 	eorsvs	r0, ip, #0
     5b8:	746c6975 	strbtvc	r6, [ip], #-2421	; 0x975
     5bc:	3e6e692d 	cdpcc	9, 6, cr6, cr14, cr13, {1}
     5c0:	00000000 	andeq	r0, r0, r0
     5c4:	2e697072 	mcrcs	0, 3, r7, cr9, cr2, {3}
     5c8:	00030068 	andeq	r0, r3, r8, rrx
     5cc:	2d617600 	stclcs	6, cr7, [r1, #-0]
     5d0:	6e697270 	mcrvs	2, 3, r7, cr9, cr0, {3}
     5d4:	682e6b74 	stmdavs	lr!, {r2, r4, r5, r6, r8, r9, fp, sp, lr}
     5d8:	00000100 	andeq	r0, r0, r0, lsl #2
     5dc:	02050000 	andeq	r0, r5, #0
     5e0:	00008860 	andeq	r8, r0, r0, ror #16
     5e4:	bf4b6b17 	svclt	0x004b6b17
     5e8:	000e0289 	andeq	r0, lr, r9, lsl #5
     5ec:	008a0101 	addeq	r0, sl, r1, lsl #2
     5f0:	00020000 	andeq	r0, r2, r0
     5f4:	00000072 	andeq	r0, r0, r2, ror r0
     5f8:	0efb0102 	cdpeq	1, 15, cr0, cr11, cr2, {0}
     5fc:	0101000d 	tsteq	r1, sp
     600:	00000101 	andeq	r0, r0, r1, lsl #2
     604:	00000100 	andeq	r0, r0, r0, lsl #2
     608:	62696c01 	rsbvs	r6, r9, #256	; 0x100
     60c:	552f0063 	strpl	r0, [pc, #-99]!	; 5b1 <_start-0x7a4f>
     610:	73726573 	cmnvc	r2, #482344960	; 0x1cc00000
     614:	6972622f 	ldmdbvs	r2!, {r0, r1, r2, r3, r5, r9, sp, lr}^
     618:	756a6e61 	strbvc	r6, [sl, #-3681]!	; 0xe61
     61c:	65442f6e 	strbvs	r2, [r4, #-3950]	; 0xf6e
     620:	6f746b73 	svcvs	0x00746b73
     624:	63732f70 	cmnvs	r3, #112, 30	; 0x1c0
     628:	6c6f6f68 	stclvs	15, cr6, [pc], #-416	; 490 <_start-0x7b70>
     62c:	6e69572f 	cdpvs	7, 6, cr5, cr9, cr15, {1}
     630:	31726574 	cmncc	r2, r4, ror r5
     634:	2f303239 	svccs	0x00303239
     638:	34315343 	ldrtcc	r5, [r1], #-835	; 0x343
     63c:	632f4530 	teqvs	pc, #48, 10	; 0xc000000
     640:	30343173 	eorscc	r3, r4, r3, ror r1
     644:	30322d65 	eorscc	r2, r2, r5, ror #26
     648:	2f6e6977 	svccs	0x006e6977
     64c:	7062696c 	rsbvc	r6, r2, ip, ror #18
     650:	70000069 	andvc	r0, r0, r9, rrx
     654:	68637475 	stmdavs	r3!, {r0, r2, r4, r5, r6, sl, ip, sp, lr}^
     658:	632e7261 	teqvs	lr, #268435462	; 0x10000006
     65c:	00000100 	andeq	r0, r0, r0, lsl #2
     660:	2e697072 	mcrcs	0, 3, r7, cr9, cr2, {3}
     664:	00020068 	andeq	r0, r2, r8, rrx
     668:	05000000 	streq	r0, [r0, #-0]
     66c:	0088b802 	addeq	fp, r8, r2, lsl #16
     670:	6b4a1400 	blvs	1285678 <__bss_end__+0x12793a0>
     674:	0213bc13 	andseq	fp, r3, #4864	; 0x1300
     678:	01010008 	tsteq	r1, r8
     67c:	00000096 	muleq	r0, r6, r0
     680:	006f0002 	rsbeq	r0, pc, r2
     684:	01020000 	mrseq	r0, (UNDEF: 2)
     688:	000d0efb 	strdeq	r0, [sp], -fp
     68c:	01010101 	tsteq	r1, r1, lsl #2
     690:	01000000 	mrseq	r0, (UNDEF: 0)
     694:	6c010000 	stcvs	0, cr0, [r1], {-0}
     698:	00636269 	rsbeq	r6, r3, r9, ror #4
     69c:	6573552f 	ldrbvs	r5, [r3, #-1327]!	; 0x52f
     6a0:	622f7372 	eorvs	r7, pc, #-939524095	; 0xc8000001
     6a4:	6e616972 	mcrvs	9, 3, r6, cr1, cr2, {3}
     6a8:	2f6e756a 	svccs	0x006e756a
     6ac:	6b736544 	blvs	1cd9bc4 <__bss_end__+0x1ccd8ec>
     6b0:	2f706f74 	svccs	0x00706f74
     6b4:	6f686373 	svcvs	0x00686373
     6b8:	572f6c6f 	strpl	r6, [pc, -pc, ror #24]!
     6bc:	65746e69 	ldrbvs	r6, [r4, #-3689]!	; 0xe69
     6c0:	32393172 	eorscc	r3, r9, #-2147483620	; 0x8000001c
     6c4:	53432f30 	movtpl	r2, #16176	; 0x3f30
     6c8:	45303431 	ldrmi	r3, [r0, #-1073]!	; 0x431
     6cc:	3173632f 	cmncc	r3, pc, lsr #6
     6d0:	2d653034 	stclcs	0, cr3, [r5, #-208]!	; 0xffffff30
     6d4:	69773032 	ldmdbvs	r7!, {r1, r4, r5, ip, sp}^
     6d8:	696c2f6e 	stmdbvs	ip!, {r1, r2, r3, r5, r6, r8, r9, sl, fp, sp}^
     6dc:	00697062 	rsbeq	r7, r9, r2, rrx
     6e0:	74757000 	ldrbtvc	r7, [r5], #-0
     6e4:	00632e6b 	rsbeq	r2, r3, fp, ror #28
     6e8:	72000001 	andvc	r0, r0, #1
     6ec:	682e6970 	stmdavs	lr!, {r4, r5, r6, r8, fp, sp, lr}
     6f0:	00000200 	andeq	r0, r0, r0, lsl #4
     6f4:	02050000 	andeq	r0, r5, #0
     6f8:	000088f4 	strdeq	r8, [r0], -r4
     6fc:	002d4c15 	eoreq	r4, sp, r5, lsl ip
     700:	2f020402 	svccs	0x00020402
     704:	02040200 	andeq	r0, r4, #0, 4
     708:	04020049 	streq	r0, [r2], #-73	; 0x49
     70c:	062e0601 	strteq	r0, [lr], -r1, lsl #12
     710:	0006026b 	andeq	r0, r6, fp, ror #4
     714:	01de0101 	bicseq	r0, lr, r1, lsl #2
     718:	00020000 	andeq	r0, r2, r0
     71c:	000000df 	ldrdeq	r0, [r0], -pc	; <UNPREDICTABLE>
     720:	0efb0102 	cdpeq	1, 15, cr0, cr11, cr2, {0}
     724:	0101000d 	tsteq	r1, sp
     728:	00000101 	andeq	r0, r0, r1, lsl #2
     72c:	00000100 	andeq	r0, r0, r0, lsl #2
     730:	62696c01 	rsbvs	r6, r9, #256	; 0x100
     734:	752f0063 	strvc	r0, [pc, #-99]!	; 6d9 <_start-0x7927>
     738:	6c2f7273 	sfmvs	f7, 4, [pc], #-460	; 574 <_start-0x7a8c>
     73c:	6c61636f 	stclvs	3, cr6, [r1], #-444	; 0xfffffe44
     740:	6c65432f 	stclvs	3, cr4, [r5], #-188	; 0xffffff44
     744:	2f72616c 	svccs	0x0072616c
     748:	2d6d7261 	sfmcs	f7, 2, [sp, #-388]!	; 0xfffffe7c
     74c:	656e6f6e 	strbvs	r6, [lr, #-3950]!	; 0xf6e
     750:	6261652d 	rsbvs	r6, r1, #188743680	; 0xb400000
     754:	2e342f69 	cdpcs	15, 3, cr2, cr4, cr9, {3}
     758:	2d332e38 	ldccs	14, cr2, [r3, #-224]!	; 0xffffff20
     75c:	37317363 	ldrcc	r7, [r1, -r3, ror #6]!
     760:	6c2f6530 	cfstr32vs	mvfx6, [pc], #-192	; 6a8 <_start-0x7958>
     764:	672f6269 	strvs	r6, [pc, -r9, ror #4]!
     768:	612f6363 	teqvs	pc, r3, ror #6
     76c:	6e2d6d72 	mcrvs	13, 1, r6, cr13, cr2, {3}
     770:	2d656e6f 	stclcs	14, cr6, [r5, #-444]!	; 0xfffffe44
     774:	69626165 	stmdbvs	r2!, {r0, r2, r5, r6, r8, sp, lr}^
     778:	382e342f 	stmdacc	lr!, {r0, r1, r2, r3, r5, sl, ip, sp}
     77c:	692f332e 	stmdbvs	pc!, {r1, r2, r3, r5, r8, r9, ip, sp}	; <UNPREDICTABLE>
     780:	756c636e 	strbvc	r6, [ip, #-878]!	; 0x36e
     784:	2f006564 	svccs	0x00006564
     788:	72657355 	rsbvc	r7, r5, #1409286145	; 0x54000001
     78c:	72622f73 	rsbvc	r2, r2, #460	; 0x1cc
     790:	6a6e6169 	bvs	1b98d3c <__bss_end__+0x1b8ca64>
     794:	442f6e75 	strtmi	r6, [pc], #-3701	; 79c <_start-0x7864>
     798:	746b7365 	strbtvc	r7, [fp], #-869	; 0x365
     79c:	732f706f 	teqvc	pc, #111	; 0x6f
     7a0:	6f6f6863 	svcvs	0x006f6863
     7a4:	69572f6c 	ldmdbvs	r7, {r2, r3, r5, r6, r8, r9, sl, fp, sp}^
     7a8:	7265746e 	rsbvc	r7, r5, #1845493760	; 0x6e000000
     7ac:	30323931 	eorscc	r3, r2, r1, lsr r9
     7b0:	3153432f 	cmpcc	r3, pc, lsr #6
     7b4:	2f453034 	svccs	0x00453034
     7b8:	34317363 	ldrtcc	r7, [r1], #-867	; 0x363
     7bc:	322d6530 	eorcc	r6, sp, #48, 10	; 0xc000000
     7c0:	6e697730 	mcrvs	7, 3, r7, cr9, cr0, {1}
     7c4:	62696c2f 	rsbvs	r6, r9, #12032	; 0x2f00
     7c8:	00006970 	andeq	r6, r0, r0, ror r9
     7cc:	702d6176 	eorvc	r6, sp, r6, ror r1
     7d0:	746e6972 	strbtvc	r6, [lr], #-2418	; 0x972
     7d4:	00632e6b 	rsbeq	r2, r3, fp, ror #28
     7d8:	73000001 	movwvc	r0, #1
     7dc:	72616474 	rsbvc	r6, r1, #116, 8	; 0x74000000
     7e0:	00682e67 	rsbeq	r2, r8, r7, ror #28
     7e4:	72000002 	andvc	r0, r0, #2
     7e8:	682e6970 	stmdavs	lr!, {r4, r5, r6, r8, fp, sp, lr}
     7ec:	00000300 	andeq	r0, r0, r0, lsl #6
     7f0:	6975623c 	ldmdbvs	r5!, {r2, r3, r4, r5, r9, sp, lr}^
     7f4:	692d746c 	pushvs	{r2, r3, r5, r6, sl, ip, sp, lr}
     7f8:	00003e6e 	andeq	r3, r0, lr, ror #28
     7fc:	00000000 	andeq	r0, r0, r0
     800:	89280205 	stmdbhi	r8!, {r0, r2, r9}
     804:	26030000 	strcs	r0, [r3], -r0
     808:	13a50101 			; <UNDEFINED> instruction: 0x13a50101
     80c:	02002d31 	andeq	r2, r0, #3136	; 0xc40
     810:	002f0204 	eoreq	r0, pc, r4, lsl #4
     814:	2d020402 	cfstrscs	mvf0, [r2, #-8]
     818:	02040200 	andeq	r0, r4, #0, 4
     81c:	0402002f 	streq	r0, [r2], #-47	; 0x2f
     820:	4c4c2d01 	mcrrmi	13, 0, r2, ip, cr1
     824:	2f4b1430 	svccs	0x004b1430
     828:	0402004f 	streq	r0, [r2], #-79	; 0x4f
     82c:	02006702 	andeq	r6, r0, #524288	; 0x80000
     830:	4c650104 	stfmie	f0, [r5], #-16
     834:	2fa0304d 	svccs	0x00a0304d
     838:	26023031 			; <UNDEFINED> instruction: 0x26023031
     83c:	2c2d8416 	cfstrscs	mvf8, [sp], #-88	; 0xffffffa8
     840:	01040200 	mrseq	r0, R12_usr
     844:	04020030 	streq	r0, [r2], #-48	; 0x30
     848:	66063301 	strvs	r3, [r6], -r1, lsl #6
     84c:	01040200 	mrseq	r0, R12_usr
     850:	0402002e 	streq	r0, [r2], #-46	; 0x2e
     854:	21080601 	tstcs	r8, r1, lsl #12
     858:	73032f67 	movwvc	r2, #16231	; 0x3f67
     85c:	2e130382 	cdpcs	3, 1, cr0, cr3, cr2, {4}
     860:	01040200 	mrseq	r0, R12_usr
     864:	02002e06 	andeq	r2, r0, #6, 28	; 0x60
     868:	9f060104 	svcls	0x00060104
     86c:	67034b6a 	strvs	r4, [r3, -sl, ror #22]
     870:	2e21032e 	cdpcs	3, 2, cr0, cr1, cr14, {1}
     874:	01040200 	mrseq	r0, R12_usr
     878:	02002e06 	andeq	r2, r0, #6, 28	; 0x60
     87c:	9f060104 	svcls	0x00060104
     880:	01040200 	mrseq	r0, R12_usr
     884:	03f3d96a 	mvnseq	sp, #1736704	; 0x1a8000
     888:	20087fa6 	andcs	r7, r8, r6, lsr #31
     88c:	0402002f 	streq	r0, [r2], #-47	; 0x2f
     890:	064a0601 	strbeq	r0, [sl], -r1, lsl #12
     894:	032f4bd7 	teqeq	pc, #220160	; 0x35c00
     898:	83f200da 	mvnshi	r0, #218	; 0xda
     89c:	0e03484c 	cdpeq	8, 0, cr4, cr3, cr12, {2}
     8a0:	2e75032e 	cdpcs	3, 7, cr0, cr5, cr14, {1}
     8a4:	4b842f2f 	blmi	fe10c568 <__bss_end__+0xfe100290>
     8a8:	314d2d2f 	cmpcc	sp, pc, lsr #26
     8ac:	00832f30 	addeq	r2, r3, r0, lsr pc
     8b0:	2c010402 	cfstrscs	mvf0, [r1], {2}
     8b4:	040200a2 	streq	r0, [r2], #-162	; 0xa2
     8b8:	064a0601 	strbeq	r0, [sl], -r1, lsl #12
     8bc:	163602d8 			; <UNDEFINED> instruction: 0x163602d8
     8c0:	08d60e03 	ldmeq	r6, {r0, r1, r9, sl, fp}^
     8c4:	31f33021 	mvnscc	r3, r1, lsr #32
     8c8:	30f330f3 	ldrshtcc	r3, [r3], #3
     8cc:	30f3304b 	rscscc	r3, r3, fp, asr #32
     8d0:	2f312308 	svccs	0x00312308
     8d4:	01040200 	mrseq	r0, R12_usr
     8d8:	04020065 	streq	r0, [r2], #-101	; 0x65
     8dc:	004a0602 	subeq	r0, sl, r2, lsl #12
     8e0:	06010402 	streq	r0, [r1], -r2, lsl #8
     8e4:	00664203 	rsbeq	r4, r6, r3, lsl #4
     8e8:	06020402 	streq	r0, [r2], -r2, lsl #8
     8ec:	c2030666 	andgt	r0, r3, #106954752	; 0x6600000
     8f0:	02684a00 	rsbeq	r4, r8, #0, 20
     8f4:	01010010 	tsteq	r1, r0, lsl r0
     8f8:	00000043 	andeq	r0, r0, r3, asr #32
     8fc:	00290002 	eoreq	r0, r9, r2
     900:	01020000 	mrseq	r0, (UNDEF: 2)
     904:	000d0efb 	strdeq	r0, [sp], -fp
     908:	01010101 	tsteq	r1, r1, lsl #2
     90c:	01000000 	mrseq	r0, (UNDEF: 0)
     910:	63010000 	movwvs	r0, #4096	; 0x1000
     914:	30343173 	eorscc	r3, r4, r3, ror r1
     918:	72732d65 	rsbsvc	r2, r3, #6464	; 0x1940
     91c:	63000063 	movwvs	r0, #99	; 0x63
     920:	65686361 	strbvs	r6, [r8, #-865]!	; 0x361
     924:	0100632e 	tsteq	r0, lr, lsr #6
     928:	00000000 	andeq	r0, r0, r0
     92c:	8e200205 	cdphi	2, 2, cr0, cr0, cr5, {0}
     930:	14140000 	ldrne	r0, [r4], #-0
     934:	144e2f30 	strbne	r2, [lr], #-3888	; 0xf30
     938:	04022f31 	streq	r2, [r2], #-3889	; 0xf31
     93c:	93010100 	movwls	r0, #4352	; 0x1100
     940:	02000000 	andeq	r0, r0, #0
     944:	00007d00 	andeq	r7, r0, r0, lsl #26
     948:	fb010200 	blx	41152 <__bss_end__+0x34e7a>
     94c:	01000d0e 	tsteq	r0, lr, lsl #26
     950:	00010101 	andeq	r0, r1, r1, lsl #2
     954:	00010000 	andeq	r0, r1, r0
     958:	73630100 	cmnvc	r3, #0, 2
     95c:	65303431 	ldrvs	r3, [r0, #-1073]!	; 0x431
     960:	6372732d 	cmnvs	r2, #-1275068416	; 0xb4000000
     964:	73552f00 	cmpvc	r5, #0, 30
     968:	2f737265 	svccs	0x00737265
     96c:	61697262 	cmnvs	r9, r2, ror #4
     970:	6e756a6e 	vsubvs.f32	s13, s10, s29
     974:	7365442f 	cmnvc	r5, #788529152	; 0x2f000000
     978:	706f746b 	rsbvc	r7, pc, fp, ror #8
     97c:	6863732f 	stmdavs	r3!, {r0, r1, r2, r3, r5, r8, r9, ip, sp, lr}^
     980:	2f6c6f6f 	svccs	0x006c6f6f
     984:	746e6957 	strbtvc	r6, [lr], #-2391	; 0x957
     988:	39317265 	ldmdbcc	r1!, {r0, r2, r5, r6, r9, ip, sp, lr}
     98c:	432f3032 	teqmi	pc, #50	; 0x32
     990:	30343153 	eorscc	r3, r4, r3, asr r1
     994:	73632f45 	cmnvc	r3, #276	; 0x114
     998:	65303431 	ldrvs	r3, [r0, #-1073]!	; 0x431
     99c:	7730322d 	ldrvc	r3, [r0, -sp, lsr #4]!
     9a0:	6c2f6e69 	stcvs	14, cr6, [pc], #-420	; 804 <_start-0x77fc>
     9a4:	69706269 	ldmdbvs	r0!, {r0, r3, r5, r6, r9, sp, lr}^
     9a8:	6c630000 	stclvs	0, cr0, [r3], #-0
     9ac:	2d6e6165 	stfcse	f6, [lr, #-404]!	; 0xfffffe6c
     9b0:	6f626572 	svcvs	0x00626572
     9b4:	632e746f 	teqvs	lr, #1862270976	; 0x6f000000
     9b8:	00000100 	andeq	r0, r0, r0, lsl #2
     9bc:	2e697072 	mcrcs	0, 3, r7, cr9, cr2, {3}
     9c0:	00020068 	andeq	r0, r2, r8, rrx
     9c4:	05000000 	streq	r0, [r0, #-0]
     9c8:	008e4002 	addeq	r4, lr, r2
     9cc:	832f1500 	teqhi	pc, #0, 10
     9d0:	0006024b 	andeq	r0, r6, fp, asr #4
     9d4:	009a0101 	addseq	r0, sl, r1, lsl #2
     9d8:	00020000 	andeq	r0, r2, r0
     9dc:	00000077 	andeq	r0, r0, r7, ror r0
     9e0:	0efb0102 	cdpeq	1, 15, cr0, cr11, cr2, {0}
     9e4:	0101000d 	tsteq	r1, sp
     9e8:	00000101 	andeq	r0, r0, r1, lsl #2
     9ec:	00000100 	andeq	r0, r0, r0, lsl #2
     9f0:	31736301 	cmncc	r3, r1, lsl #6
     9f4:	2d653034 	stclcs	0, cr3, [r5, #-208]!	; 0xffffff30
     9f8:	00637273 	rsbeq	r7, r3, r3, ror r2
     9fc:	6573552f 	ldrbvs	r5, [r3, #-1327]!	; 0x52f
     a00:	622f7372 	eorvs	r7, pc, #-939524095	; 0xc8000001
     a04:	6e616972 	mcrvs	9, 3, r6, cr1, cr2, {3}
     a08:	2f6e756a 	svccs	0x006e756a
     a0c:	6b736544 	blvs	1cd9f24 <__bss_end__+0x1ccdc4c>
     a10:	2f706f74 	svccs	0x00706f74
     a14:	6f686373 	svcvs	0x00686373
     a18:	572f6c6f 	strpl	r6, [pc, -pc, ror #24]!
     a1c:	65746e69 	ldrbvs	r6, [r4, #-3689]!	; 0xe69
     a20:	32393172 	eorscc	r3, r9, #-2147483620	; 0x8000001c
     a24:	53432f30 	movtpl	r2, #16176	; 0x3f30
     a28:	45303431 	ldrmi	r3, [r0, #-1073]!	; 0x431
     a2c:	3173632f 	cmncc	r3, pc, lsr #6
     a30:	2d653034 	stclcs	0, cr3, [r5, #-208]!	; 0xffffff30
     a34:	69773032 	ldmdbvs	r7!, {r1, r4, r5, ip, sp}^
     a38:	696c2f6e 	stmdbvs	ip!, {r1, r2, r3, r5, r6, r8, r9, sl, fp, sp}^
     a3c:	00697062 	rsbeq	r7, r9, r2, rrx
     a40:	74736300 	ldrbtvc	r6, [r3], #-768	; 0x300
     a44:	2e747261 	cdpcs	2, 7, cr7, cr4, cr1, {3}
     a48:	00010063 	andeq	r0, r1, r3, rrx
     a4c:	69707200 	ldmdbvs	r0!, {r9, ip, sp, lr}^
     a50:	0200682e 	andeq	r6, r0, #3014656	; 0x2e0000
     a54:	00000000 	andeq	r0, r0, r0
     a58:	8e680205 	cdphi	2, 6, cr0, cr8, cr5, {0}
     a5c:	0c030000 	stceq	0, cr0, [r3], {-0}
     a60:	2f313201 	svccs	0x00313201
     a64:	02002f2d 	andeq	r2, r0, #45, 30	; 0xb4
     a68:	03490104 	movteq	r0, #37124	; 0x9104
     a6c:	022f4a0f 	eoreq	r4, pc, #61440	; 0xf000
     a70:	01010006 	tsteq	r1, r6
     a74:	00000099 	muleq	r0, r9, r0
     a78:	00770002 	rsbseq	r0, r7, r2
     a7c:	01020000 	mrseq	r0, (UNDEF: 2)
     a80:	000d0efb 	strdeq	r0, [sp], -fp
     a84:	01010101 	tsteq	r1, r1, lsl #2
     a88:	01000000 	mrseq	r0, (UNDEF: 0)
     a8c:	63010000 	movwvs	r0, #4096	; 0x1000
     a90:	30343173 	eorscc	r3, r4, r3, ror r1
     a94:	72732d65 	rsbsvc	r2, r3, #6464	; 0x1940
     a98:	552f0063 	strpl	r0, [pc, #-99]!	; a3d <_start-0x75c3>
     a9c:	73726573 	cmnvc	r2, #482344960	; 0x1cc00000
     aa0:	6972622f 	ldmdbvs	r2!, {r0, r1, r2, r3, r5, r9, sp, lr}^
     aa4:	756a6e61 	strbvc	r6, [sl, #-3681]!	; 0xe61
     aa8:	65442f6e 	strbvs	r2, [r4, #-3950]	; 0xf6e
     aac:	6f746b73 	svcvs	0x00746b73
     ab0:	63732f70 	cmnvs	r3, #112, 30	; 0x1c0
     ab4:	6c6f6f68 	stclvs	15, cr6, [pc], #-416	; 91c <_start-0x76e4>
     ab8:	6e69572f 	cdpvs	7, 6, cr5, cr9, cr15, {1}
     abc:	31726574 	cmncc	r2, r4, ror r5
     ac0:	2f303239 	svccs	0x00303239
     ac4:	34315343 	ldrtcc	r5, [r1], #-835	; 0x343
     ac8:	632f4530 	teqvs	pc, #48, 10	; 0xc000000
     acc:	30343173 	eorscc	r3, r4, r3, ror r1
     ad0:	30322d65 	eorscc	r2, r2, r5, ror #26
     ad4:	2f6e6977 	svccs	0x006e6977
     ad8:	7062696c 	rsbvc	r6, r2, ip, ror #18
     adc:	72000069 	andvc	r0, r0, #105	; 0x69
     ae0:	6f6f6265 	svcvs	0x006f6265
     ae4:	00632e74 	rsbeq	r2, r3, r4, ror lr
     ae8:	72000001 	andvc	r0, r0, #1
     aec:	682e6970 	stmdavs	lr!, {r4, r5, r6, r8, fp, sp, lr}
     af0:	00000200 	andeq	r0, r0, r0, lsl #4
     af4:	02050000 	andeq	r0, r5, #0
     af8:	00008e9c 	muleq	r0, ip, lr
     afc:	14010d03 	strne	r0, [r1], #-3331	; 0xd03
     b00:	15852f31 	strne	r2, [r5, #3889]	; 0xf31
     b04:	2f4d4b2f 	svccs	0x004d4b2f
     b08:	67523567 	ldrbvs	r3, [r2, -r7, ror #10]
     b0c:	01001002 	tsteq	r0, r2
     b10:	0000a301 	andeq	sl, r0, r1, lsl #6
     b14:	76000200 	strvc	r0, [r0], -r0, lsl #4
     b18:	02000000 	andeq	r0, r0, #0
     b1c:	0d0efb01 	vstreq	d15, [lr, #-4]
     b20:	01010100 	mrseq	r0, (UNDEF: 17)
     b24:	00000001 	andeq	r0, r0, r1
     b28:	01000001 	tsteq	r0, r1
     b2c:	34317363 	ldrtcc	r7, [r1], #-867	; 0x363
     b30:	732d6530 	teqvc	sp, #48, 10	; 0xc000000
     b34:	2f006372 	svccs	0x00006372
     b38:	72657355 	rsbvc	r7, r5, #1409286145	; 0x54000001
     b3c:	72622f73 	rsbvc	r2, r2, #460	; 0x1cc
     b40:	6a6e6169 	bvs	1b990ec <__bss_end__+0x1b8ce14>
     b44:	442f6e75 	strtmi	r6, [pc], #-3701	; b4c <_start-0x74b4>
     b48:	746b7365 	strbtvc	r7, [fp], #-869	; 0x365
     b4c:	732f706f 	teqvc	pc, #111	; 0x6f
     b50:	6f6f6863 	svcvs	0x006f6863
     b54:	69572f6c 	ldmdbvs	r7, {r2, r3, r5, r6, r8, r9, sl, fp, sp}^
     b58:	7265746e 	rsbvc	r7, r5, #1845493760	; 0x6e000000
     b5c:	30323931 	eorscc	r3, r2, r1, lsr r9
     b60:	3153432f 	cmpcc	r3, pc, lsr #6
     b64:	2f453034 	svccs	0x00453034
     b68:	34317363 	ldrtcc	r7, [r1], #-867	; 0x363
     b6c:	322d6530 	eorcc	r6, sp, #48, 10	; 0xc000000
     b70:	6e697730 	mcrvs	7, 3, r7, cr9, cr0, {1}
     b74:	62696c2f 	rsbvs	r6, r9, #12032	; 0x2f00
     b78:	00006970 	andeq	r6, r0, r0, ror r9
     b7c:	656d6974 	strbvs	r6, [sp, #-2420]!	; 0x974
     b80:	00632e72 	rsbeq	r2, r3, r2, ror lr
     b84:	72000001 	andvc	r0, r0, #1
     b88:	682e6970 	stmdavs	lr!, {r4, r5, r6, r8, fp, sp, lr}
     b8c:	00000200 	andeq	r0, r0, r0, lsl #4
     b90:	02050000 	andeq	r0, r5, #0
     b94:	00008f10 	andeq	r8, r0, r0, lsl pc
     b98:	2d2f1416 	cfstrscs	mvf1, [pc, #-88]!	; b48 <_start-0x74b8>
     b9c:	01040200 	mrseq	r0, R12_usr
     ba0:	6d062e06 	stcvs	14, cr2, [r6, #-24]	; 0xffffffe8
     ba4:	4d4b2f31 	stclmi	15, cr2, [fp, #-196]	; 0xffffff3c
     ba8:	4b303132 	blmi	c0d078 <__bss_end__+0xc00da0>
     bac:	2f6a2f4c 	svccs	0x006a2f4c
     bb0:	022f842f 	eoreq	r8, pc, #788529152	; 0x2f000000
     bb4:	01010008 	tsteq	r1, r8
     bb8:	0000017f 	andeq	r0, r0, pc, ror r1
     bbc:	00ca0002 	sbceq	r0, sl, r2
     bc0:	01020000 	mrseq	r0, (UNDEF: 2)
     bc4:	000d0efb 	strdeq	r0, [sp], -fp
     bc8:	01010101 	tsteq	r1, r1, lsl #2
     bcc:	01000000 	mrseq	r0, (UNDEF: 0)
     bd0:	6d010000 	stcvs	0, cr0, [r1, #-0]
     bd4:	72732d79 	rsbsvc	r2, r3, #7744	; 0x1e40
     bd8:	552f0063 	strpl	r0, [pc, #-99]!	; b7d <_start-0x7483>
     bdc:	73726573 	cmnvc	r2, #482344960	; 0x1cc00000
     be0:	6972622f 	ldmdbvs	r2!, {r0, r1, r2, r3, r5, r9, sp, lr}^
     be4:	756a6e61 	strbvc	r6, [sl, #-3681]!	; 0xe61
     be8:	65442f6e 	strbvs	r2, [r4, #-3950]	; 0xf6e
     bec:	6f746b73 	svcvs	0x00746b73
     bf0:	63732f70 	cmnvs	r3, #112, 30	; 0x1c0
     bf4:	6c6f6f68 	stclvs	15, cr6, [pc], #-416	; a5c <_start-0x75a4>
     bf8:	6e69572f 	cdpvs	7, 6, cr5, cr9, cr15, {1}
     bfc:	31726574 	cmncc	r2, r4, ror r5
     c00:	2f303239 	svccs	0x00303239
     c04:	34315343 	ldrtcc	r5, [r1], #-835	; 0x343
     c08:	632f4530 	teqvs	pc, #48, 10	; 0xc000000
     c0c:	30343173 	eorscc	r3, r4, r3, ror r1
     c10:	30322d65 	eorscc	r2, r2, r5, ror #26
     c14:	2f6e6977 	svccs	0x006e6977
     c18:	7062696c 	rsbvc	r6, r2, ip, ror #18
     c1c:	73632f69 	cmnvc	r3, #420	; 0x1a4
     c20:	65303431 	ldrvs	r3, [r0, #-1073]!	; 0x431
     c24:	6372732d 	cmnvs	r2, #-1275068416	; 0xb4000000
     c28:	73552f00 	cmpvc	r5, #0, 30
     c2c:	2f737265 	svccs	0x00737265
     c30:	61697262 	cmnvs	r9, r2, ror #4
     c34:	6e756a6e 	vsubvs.f32	s13, s10, s29
     c38:	7365442f 	cmnvc	r5, #788529152	; 0x2f000000
     c3c:	706f746b 	rsbvc	r7, pc, fp, ror #8
     c40:	6863732f 	stmdavs	r3!, {r0, r1, r2, r3, r5, r8, r9, ip, sp, lr}^
     c44:	2f6c6f6f 	svccs	0x006c6f6f
     c48:	746e6957 	strbtvc	r6, [lr], #-2391	; 0x957
     c4c:	39317265 	ldmdbcc	r1!, {r0, r2, r5, r6, r9, ip, sp, lr}
     c50:	432f3032 	teqmi	pc, #50	; 0x32
     c54:	30343153 	eorscc	r3, r4, r3, asr r1
     c58:	73632f45 	cmnvc	r3, #276	; 0x114
     c5c:	65303431 	ldrvs	r3, [r0, #-1073]!	; 0x431
     c60:	7730322d 	ldrvc	r3, [r0, -sp, lsr #4]!
     c64:	6c2f6e69 	stcvs	14, cr6, [pc], #-420	; ac8 <_start-0x7538>
     c68:	69706269 	ldmdbvs	r0!, {r0, r3, r5, r6, r9, sp, lr}^
     c6c:	70670000 	rsbvc	r0, r7, r0
     c70:	632e6f69 	teqvs	lr, #420	; 0x1a4
     c74:	00000100 	andeq	r0, r0, r0, lsl #2
     c78:	6f697067 	svcvs	0x00697067
     c7c:	0200682e 	andeq	r6, r0, #3014656	; 0x2e0000
     c80:	70720000 	rsbsvc	r0, r2, r0
     c84:	00682e69 	rsbeq	r2, r8, r9, ror #28
     c88:	00000003 	andeq	r0, r0, r3
     c8c:	98020500 	stmdals	r2, {r8, sl}
     c90:	0300008f 	movweq	r0, #143	; 0x8f
     c94:	504e013e 	subpl	r0, lr, lr, lsr r1
     c98:	67210869 	strvs	r0, [r1, -r9, ror #16]!
     c9c:	67676767 	strbvs	r6, [r7, -r7, ror #14]!
     ca0:	084b3267 	stmdaeq	fp, {r0, r1, r2, r5, r6, r9, ip, sp}^
     ca4:	5131dc22 	teqpl	r1, r2, lsr #24
     ca8:	30504e13 	subscc	r4, r0, r3, lsl lr
     cac:	135031be 	cmpne	r0, #-2147483601	; 0x8000002f
     cb0:	c0304f4d 	eorsgt	r4, r0, sp, asr #30
     cb4:	0869504c 	stmdaeq	r9!, {r2, r3, r6, ip, lr}^
     cb8:	67676721 	strbvs	r6, [r7, -r1, lsr #14]!
     cbc:	32676767 	rsbcc	r6, r7, #27000832	; 0x19c0000
     cc0:	a321084b 	teqge	r1, #4915200	; 0x4b0000
     cc4:	842f504c 	strthi	r5, [pc], #-76	; ccc <_start-0x7334>
     cc8:	82750369 	rsbshi	r0, r5, #-1543503871	; 0xa4000001
     ccc:	4d2e0c03 	stcmi	12, cr0, [lr, #-12]!
     cd0:	4c4b4e30 	mcrrmi	14, 3, r4, fp, cr0
     cd4:	696b6a4d 	stmdbvs	fp!, {r0, r2, r3, r6, r9, fp, sp, lr}^
     cd8:	67672108 	strbvs	r2, [r7, -r8, lsl #2]!
     cdc:	67676767 	strbvs	r6, [r7, -r7, ror #14]!
     ce0:	22084b32 	andcs	r4, r8, #51200	; 0xc800
     ce4:	135130c0 	cmpne	r1, #192	; 0xc0
     ce8:	0330504e 	teqeq	r0, #78	; 0x4e
     cec:	9f31ba18 	svcls	0x0031ba18
     cf0:	4d522f4c 	ldclmi	15, cr2, [r2, #-304]	; 0xfffffed0
     cf4:	674b2f4e 	strbvs	r2, [fp, -lr, asr #30]
     cf8:	6767684b 	strbvs	r6, [r7, -fp, asr #16]!
     cfc:	2f672f4c 	svccs	0x00672f4c
     d00:	4e4c6e4b 	cdpmi	14, 4, cr6, cr12, cr11, {2}
     d04:	4b674b2f 	blmi	19d39c8 <__bss_end__+0x19c76f0>
     d08:	4c676768 	stclmi	7, cr6, [r7], #-416	; 0xfffffe60
     d0c:	4b2f672f 	blmi	bda9d0 <__bss_end__+0xbce6f8>
     d10:	2f4e4b6d 	svccs	0x004e4b6d
     d14:	0200674b 	andeq	r6, r0, #19660800	; 0x12c0000
     d18:	66060104 	strvs	r0, [r6], -r4, lsl #2
     d1c:	2f9f6806 	svccs	0x009f6806
     d20:	01040200 	mrseq	r0, R12_usr
     d24:	68064a06 	stmdavs	r6, {r1, r2, r9, fp, lr}
     d28:	4a73032f 	bmi	1cc19ec <__bss_end__+0x1cb5714>
     d2c:	4d2e0e03 	stcmi	14, cr0, [lr, #-12]!
     d30:	4b2f4e4c 	blmi	bd4668 <__bss_end__+0xbc8390>
     d34:	0602bcbc 			; <UNDEFINED> instruction: 0x0602bcbc
     d38:	01010100 	mrseq	r0, (UNDEF: 17)
     d3c:	02000001 	andeq	r0, r0, #1
     d40:	0000ca00 	andeq	ip, r0, r0, lsl #20
     d44:	fb010200 	blx	4154e <__bss_end__+0x35276>
     d48:	01000d0e 	tsteq	r0, lr, lsl #26
     d4c:	00010101 	andeq	r0, r1, r1, lsl #2
     d50:	00010000 	andeq	r0, r1, r0
     d54:	796d0100 	stmdbvc	sp!, {r8}^
     d58:	6372732d 	cmnvs	r2, #-1275068416	; 0xb4000000
     d5c:	73552f00 	cmpvc	r5, #0, 30
     d60:	2f737265 	svccs	0x00737265
     d64:	61697262 	cmnvs	r9, r2, ror #4
     d68:	6e756a6e 	vsubvs.f32	s13, s10, s29
     d6c:	7365442f 	cmnvc	r5, #788529152	; 0x2f000000
     d70:	706f746b 	rsbvc	r7, pc, fp, ror #8
     d74:	6863732f 	stmdavs	r3!, {r0, r1, r2, r3, r5, r8, r9, ip, sp, lr}^
     d78:	2f6c6f6f 	svccs	0x006c6f6f
     d7c:	746e6957 	strbtvc	r6, [lr], #-2391	; 0x957
     d80:	39317265 	ldmdbcc	r1!, {r0, r2, r5, r6, r9, ip, sp, lr}
     d84:	432f3032 	teqmi	pc, #50	; 0x32
     d88:	30343153 	eorscc	r3, r4, r3, asr r1
     d8c:	73632f45 	cmnvc	r3, #276	; 0x114
     d90:	65303431 	ldrvs	r3, [r0, #-1073]!	; 0x431
     d94:	7730322d 	ldrvc	r3, [r0, -sp, lsr #4]!
     d98:	6c2f6e69 	stcvs	14, cr6, [pc], #-420	; bfc <_start-0x7404>
     d9c:	69706269 	ldmdbvs	r0!, {r0, r3, r5, r6, r9, sp, lr}^
     da0:	3173632f 	cmncc	r3, pc, lsr #6
     da4:	2d653034 	stclcs	0, cr3, [r5, #-208]!	; 0xffffff30
     da8:	00637273 	rsbeq	r7, r3, r3, ror r2
     dac:	6573552f 	ldrbvs	r5, [r3, #-1327]!	; 0x52f
     db0:	622f7372 	eorvs	r7, pc, #-939524095	; 0xc8000001
     db4:	6e616972 	mcrvs	9, 3, r6, cr1, cr2, {3}
     db8:	2f6e756a 	svccs	0x006e756a
     dbc:	6b736544 	blvs	1cda2d4 <__bss_end__+0x1ccdffc>
     dc0:	2f706f74 	svccs	0x00706f74
     dc4:	6f686373 	svcvs	0x00686373
     dc8:	572f6c6f 	strpl	r6, [pc, -pc, ror #24]!
     dcc:	65746e69 	ldrbvs	r6, [r4, #-3689]!	; 0xe69
     dd0:	32393172 	eorscc	r3, r9, #-2147483620	; 0x8000001c
     dd4:	53432f30 	movtpl	r2, #16176	; 0x3f30
     dd8:	45303431 	ldrmi	r3, [r0, #-1073]!	; 0x431
     ddc:	3173632f 	cmncc	r3, pc, lsr #6
     de0:	2d653034 	stclcs	0, cr3, [r5, #-208]!	; 0xffffff30
     de4:	69773032 	ldmdbvs	r7!, {r1, r4, r5, ip, sp}^
     de8:	696c2f6e 	stmdbvs	ip!, {r1, r2, r3, r5, r6, r8, r9, sl, fp, sp}^
     dec:	00697062 	rsbeq	r7, r9, r2, rrx
     df0:	72617500 	rsbvc	r7, r1, #0, 10
     df4:	00632e74 	rsbeq	r2, r3, r4, ror lr
     df8:	67000001 	strvs	r0, [r0, -r1]
     dfc:	2e6f6970 	mcrcs	9, 3, r6, cr15, cr0, {3}
     e00:	00020068 	andeq	r0, r2, r8, rrx
     e04:	69707200 	ldmdbvs	r0!, {r9, ip, sp, lr}^
     e08:	0300682e 	movweq	r6, #2094	; 0x82e
     e0c:	00000000 	andeq	r0, r0, r0
     e10:	95380205 	ldrls	r0, [r8, #-517]!	; 0x205
     e14:	36030000 	strcc	r0, [r3], -r0
     e18:	67333001 	ldrvs	r3, [r3, -r1]!
     e1c:	30d8306d 	sbcscc	r3, r8, sp, rrx
     e20:	67676767 	strbvs	r6, [r7, -r7, ror #14]!
     e24:	2f866867 	svccs	0x00866867
     e28:	67306a67 	ldrvs	r6, [r0, -r7, ror #20]!
     e2c:	672f6967 	strvs	r6, [pc, -r7, ror #18]!
     e30:	c1674c6a 	cmngt	r7, sl, ror #24
     e34:	2f302f2f 	svccs	0x00302f2f
     e38:	02304968 	eorseq	r4, r0, #104, 18	; 0x1a0000
     e3c:	01010002 	tsteq	r1, r2
     e40:	000000c9 	andeq	r0, r0, r9, asr #1
     e44:	00970002 	addseq	r0, r7, r2
     e48:	01020000 	mrseq	r0, (UNDEF: 2)
     e4c:	000d0efb 	strdeq	r0, [sp], -fp
     e50:	01010101 	tsteq	r1, r1, lsl #2
     e54:	01000000 	mrseq	r0, (UNDEF: 0)
     e58:	63010000 	movwvs	r0, #4096	; 0x1000
     e5c:	30343173 	eorscc	r3, r4, r3, ror r1
     e60:	6e692d65 	cdpvs	13, 6, cr2, cr9, cr5, {3}
     e64:	72726574 	rsbsvc	r6, r2, #116, 10	; 0x1d000000
     e68:	00747075 	rsbseq	r7, r4, r5, ror r0
     e6c:	6573552f 	ldrbvs	r5, [r3, #-1327]!	; 0x52f
     e70:	622f7372 	eorvs	r7, pc, #-939524095	; 0xc8000001
     e74:	6e616972 	mcrvs	9, 3, r6, cr1, cr2, {3}
     e78:	2f6e756a 	svccs	0x006e756a
     e7c:	6b736544 	blvs	1cda394 <__bss_end__+0x1cce0bc>
     e80:	2f706f74 	svccs	0x00706f74
     e84:	6f686373 	svcvs	0x00686373
     e88:	572f6c6f 	strpl	r6, [pc, -pc, ror #24]!
     e8c:	65746e69 	ldrbvs	r6, [r4, #-3689]!	; 0xe69
     e90:	32393172 	eorscc	r3, r9, #-2147483620	; 0x8000001c
     e94:	53432f30 	movtpl	r2, #16176	; 0x3f30
     e98:	45303431 	ldrmi	r3, [r0, #-1073]!	; 0x431
     e9c:	3173632f 	cmncc	r3, pc, lsr #6
     ea0:	2d653034 	stclcs	0, cr3, [r5, #-208]!	; 0xffffff30
     ea4:	69773032 	ldmdbvs	r7!, {r1, r4, r5, ip, sp}^
     ea8:	696c2f6e 	stmdbvs	ip!, {r1, r2, r3, r5, r6, r8, r9, sl, fp, sp}^
     eac:	00697062 	rsbeq	r7, r9, r2, rrx
     eb0:	746e6900 	strbtvc	r6, [lr], #-2304	; 0x900
     eb4:	75727265 	ldrbvc	r7, [r2, #-613]!	; 0x265
     eb8:	2d737470 	cfldrdcs	mvd7, [r3, #-448]!	; 0xfffffe40
     ebc:	00632e63 	rsbeq	r2, r3, r3, ror #28
     ec0:	72000001 	andvc	r0, r0, #1
     ec4:	682e6970 	stmdavs	lr!, {r4, r5, r6, r8, fp, sp, lr}
     ec8:	00000200 	andeq	r0, r0, r0, lsl #4
     ecc:	2d697072 	stclcs	0, cr7, [r9, #-456]!	; 0xfffffe38
     ed0:	65746e69 	ldrbvs	r6, [r4, #-3689]!	; 0xe69
     ed4:	70757272 	rsbsvc	r7, r5, r2, ror r2
     ed8:	682e7374 	stmdavs	lr!, {r2, r4, r5, r6, r8, r9, ip, sp, lr}
     edc:	00000100 	andeq	r0, r0, r0, lsl #2
     ee0:	02050000 	andeq	r0, r5, #0
     ee4:	0000968c 	andeq	r9, r0, ip, lsl #13
     ee8:	31011a03 	tstcc	r1, r3, lsl #20
     eec:	09036767 	stmdbeq	r3, {r0, r1, r2, r5, r6, r8, r9, sl, sp, lr}
     ef0:	2d2f832e 	stccs	3, cr8, [pc, #-184]!	; e40 <_start-0x71c0>
     ef4:	02040200 	andeq	r0, r4, #0, 4
     ef8:	0402002f 	streq	r0, [r2], #-47	; 0x2f
     efc:	02006502 	andeq	r6, r0, #8388608	; 0x800000
     f00:	2e060104 	adfcss	f0, f6, f4
     f04:	67a04c06 	strvs	r4, [r0, r6, lsl #24]!
     f08:	01001c02 	tsteq	r0, r2, lsl #24
     f0c:	0000a501 	andeq	sl, r0, r1, lsl #10
     f10:	91000200 	mrsls	r0, R8_usr
     f14:	02000000 	andeq	r0, r0, #0
     f18:	0d0efb01 	vstreq	d15, [lr, #-4]
     f1c:	01010100 	mrseq	r0, (UNDEF: 17)
     f20:	00000001 	andeq	r0, r0, r1
     f24:	01000001 	tsteq	r0, r1
     f28:	34317363 	ldrtcc	r7, [r1], #-867	; 0x363
     f2c:	692d6530 	pushvs	{r4, r5, r8, sl, sp, lr}
     f30:	7265746e 	rsbvc	r7, r5, #1845493760	; 0x6e000000
     f34:	74707572 	ldrbtvc	r7, [r0], #-1394	; 0x572
     f38:	73552f00 	cmpvc	r5, #0, 30
     f3c:	2f737265 	svccs	0x00737265
     f40:	61697262 	cmnvs	r9, r2, ror #4
     f44:	6e756a6e 	vsubvs.f32	s13, s10, s29
     f48:	7365442f 	cmnvc	r5, #788529152	; 0x2f000000
     f4c:	706f746b 	rsbvc	r7, pc, fp, ror #8
     f50:	6863732f 	stmdavs	r3!, {r0, r1, r2, r3, r5, r8, r9, ip, sp, lr}^
     f54:	2f6c6f6f 	svccs	0x006c6f6f
     f58:	746e6957 	strbtvc	r6, [lr], #-2391	; 0x957
     f5c:	39317265 	ldmdbcc	r1!, {r0, r2, r5, r6, r9, ip, sp, lr}
     f60:	432f3032 	teqmi	pc, #50	; 0x32
     f64:	30343153 	eorscc	r3, r4, r3, asr r1
     f68:	73632f45 	cmnvc	r3, #276	; 0x114
     f6c:	65303431 	ldrvs	r3, [r0, #-1073]!	; 0x431
     f70:	7730322d 	ldrvc	r3, [r0, -sp, lsr #4]!
     f74:	6c2f6e69 	stcvs	14, cr6, [pc], #-420	; dd8 <_start-0x7228>
     f78:	69706269 	ldmdbvs	r0!, {r0, r3, r5, r6, r9, sp, lr}^
     f7c:	65640000 	strbvs	r0, [r4, #-0]!
     f80:	6c756166 	ldfvse	f6, [r5], #-408	; 0xfffffe68
     f84:	61682d74 	smcvs	33492	; 0x82d4
     f88:	656c646e 	strbvs	r6, [ip, #-1134]!	; 0x46e
     f8c:	61642d72 	smcvs	17106	; 0x42d2
     f90:	612d6174 	teqvs	sp, r4, ror r1
     f94:	74726f62 	ldrbtvc	r6, [r2], #-3938	; 0xf62
     f98:	0100632e 	tsteq	r0, lr, lsr #6
     f9c:	70720000 	rsbsvc	r0, r2, r0
     fa0:	00682e69 	rsbeq	r2, r8, r9, ror #28
     fa4:	00000002 	andeq	r0, r0, r2
     fa8:	88020500 	stmdahi	r2, {r8, sl}
     fac:	13000098 	movwne	r0, #152	; 0x98
     fb0:	001c0266 	andseq	r0, ip, r6, ror #4
     fb4:	00a30101 	adceq	r0, r3, r1, lsl #2
     fb8:	00020000 	andeq	r0, r2, r0
     fbc:	0000008f 	andeq	r0, r0, pc, lsl #1
     fc0:	0efb0102 	cdpeq	1, 15, cr0, cr11, cr2, {0}
     fc4:	0101000d 	tsteq	r1, sp
     fc8:	00000101 	andeq	r0, r0, r1, lsl #2
     fcc:	00000100 	andeq	r0, r0, r0, lsl #2
     fd0:	31736301 	cmncc	r3, r1, lsl #6
     fd4:	2d653034 	stclcs	0, cr3, [r5, #-208]!	; 0xffffff30
     fd8:	65746e69 	ldrbvs	r6, [r4, #-3689]!	; 0xe69
     fdc:	70757272 	rsbsvc	r7, r5, r2, ror r2
     fe0:	552f0074 	strpl	r0, [pc, #-116]!	; f74 <_start-0x708c>
     fe4:	73726573 	cmnvc	r2, #482344960	; 0x1cc00000
     fe8:	6972622f 	ldmdbvs	r2!, {r0, r1, r2, r3, r5, r9, sp, lr}^
     fec:	756a6e61 	strbvc	r6, [sl, #-3681]!	; 0xe61
     ff0:	65442f6e 	strbvs	r2, [r4, #-3950]	; 0xf6e
     ff4:	6f746b73 	svcvs	0x00746b73
     ff8:	63732f70 	cmnvs	r3, #112, 30	; 0x1c0
     ffc:	6c6f6f68 	stclvs	15, cr6, [pc], #-416	; e64 <_start-0x719c>
    1000:	6e69572f 	cdpvs	7, 6, cr5, cr9, cr15, {1}
    1004:	31726574 	cmncc	r2, r4, ror r5
    1008:	2f303239 	svccs	0x00303239
    100c:	34315343 	ldrtcc	r5, [r1], #-835	; 0x343
    1010:	632f4530 	teqvs	pc, #48, 10	; 0xc000000
    1014:	30343173 	eorscc	r3, r4, r3, ror r1
    1018:	30322d65 	eorscc	r2, r2, r5, ror #26
    101c:	2f6e6977 	svccs	0x006e6977
    1020:	7062696c 	rsbvc	r6, r2, ip, ror #18
    1024:	64000069 	strvs	r0, [r0], #-105	; 0x69
    1028:	75616665 	strbvc	r6, [r1, #-1637]!	; 0x665
    102c:	682d746c 	stmdavs	sp!, {r2, r3, r5, r6, sl, ip, sp, lr}
    1030:	6c646e61 	stclvs	14, cr6, [r4], #-388	; 0xfffffe7c
    1034:	702d7265 	eorvc	r7, sp, r5, ror #4
    1038:	65666572 	strbvs	r6, [r6, #-1394]!	; 0x572
    103c:	2e686374 	mcrcs	3, 3, r6, cr8, cr4, {3}
    1040:	00010063 	andeq	r0, r1, r3, rrx
    1044:	69707200 	ldmdbvs	r0!, {r9, ip, sp, lr}^
    1048:	0200682e 	andeq	r6, r0, #3014656	; 0x2e0000
    104c:	00000000 	andeq	r0, r0, r0
    1050:	98cc0205 	stmials	ip, {r0, r2, r9}^
    1054:	66130000 	ldrvs	r0, [r3], -r0
    1058:	01001c02 	tsteq	r0, r2, lsl #24
    105c:	0000a001 	andeq	sl, r0, r1
    1060:	8c000200 	sfmhi	f0, 4, [r0], {-0}
    1064:	02000000 	andeq	r0, r0, #0
    1068:	0d0efb01 	vstreq	d15, [lr, #-4]
    106c:	01010100 	mrseq	r0, (UNDEF: 17)
    1070:	00000001 	andeq	r0, r0, r1
    1074:	01000001 	tsteq	r0, r1
    1078:	34317363 	ldrtcc	r7, [r1], #-867	; 0x363
    107c:	692d6530 	pushvs	{r4, r5, r8, sl, sp, lr}
    1080:	7265746e 	rsbvc	r7, r5, #1845493760	; 0x6e000000
    1084:	74707572 	ldrbtvc	r7, [r0], #-1394	; 0x572
    1088:	73552f00 	cmpvc	r5, #0, 30
    108c:	2f737265 	svccs	0x00737265
    1090:	61697262 	cmnvs	r9, r2, ror #4
    1094:	6e756a6e 	vsubvs.f32	s13, s10, s29
    1098:	7365442f 	cmnvc	r5, #788529152	; 0x2f000000
    109c:	706f746b 	rsbvc	r7, pc, fp, ror #8
    10a0:	6863732f 	stmdavs	r3!, {r0, r1, r2, r3, r5, r8, r9, ip, sp, lr}^
    10a4:	2f6c6f6f 	svccs	0x006c6f6f
    10a8:	746e6957 	strbtvc	r6, [lr], #-2391	; 0x957
    10ac:	39317265 	ldmdbcc	r1!, {r0, r2, r5, r6, r9, ip, sp, lr}
    10b0:	432f3032 	teqmi	pc, #50	; 0x32
    10b4:	30343153 	eorscc	r3, r4, r3, asr r1
    10b8:	73632f45 	cmnvc	r3, #276	; 0x114
    10bc:	65303431 	ldrvs	r3, [r0, #-1073]!	; 0x431
    10c0:	7730322d 	ldrvc	r3, [r0, -sp, lsr #4]!
    10c4:	6c2f6e69 	stcvs	14, cr6, [pc], #-420	; f28 <_start-0x70d8>
    10c8:	69706269 	ldmdbvs	r0!, {r0, r3, r5, r6, r9, sp, lr}^
    10cc:	65640000 	strbvs	r0, [r4, #-0]!
    10d0:	6c756166 	ldfvse	f6, [r5], #-408	; 0xfffffe68
    10d4:	61682d74 	smcvs	33492	; 0x82d4
    10d8:	656c646e 	strbvs	r6, [ip, #-1134]!	; 0x46e
    10dc:	65722d72 	ldrbvs	r2, [r2, #-3442]!	; 0xd72
    10e0:	2e746573 	mrccs	5, 3, r6, cr4, cr3, {3}
    10e4:	00010063 	andeq	r0, r1, r3, rrx
    10e8:	69707200 	ldmdbvs	r0!, {r9, ip, sp, lr}^
    10ec:	0200682e 	andeq	r6, r0, #3014656	; 0x2e0000
    10f0:	00000000 	andeq	r0, r0, r0
    10f4:	99100205 	ldmdbls	r0, {r0, r2, r9}
    10f8:	66130000 	ldrvs	r0, [r3], -r0
    10fc:	01001c02 	tsteq	r0, r2, lsl #24
    1100:	0000a901 	andeq	sl, r0, r1, lsl #18
    1104:	95000200 	strls	r0, [r0, #-512]	; 0x200
    1108:	02000000 	andeq	r0, r0, #0
    110c:	0d0efb01 	vstreq	d15, [lr, #-4]
    1110:	01010100 	mrseq	r0, (UNDEF: 17)
    1114:	00000001 	andeq	r0, r0, r1
    1118:	01000001 	tsteq	r0, r1
    111c:	34317363 	ldrtcc	r7, [r1], #-867	; 0x363
    1120:	692d6530 	pushvs	{r4, r5, r8, sl, sp, lr}
    1124:	7265746e 	rsbvc	r7, r5, #1845493760	; 0x6e000000
    1128:	74707572 	ldrbtvc	r7, [r0], #-1394	; 0x572
    112c:	73552f00 	cmpvc	r5, #0, 30
    1130:	2f737265 	svccs	0x00737265
    1134:	61697262 	cmnvs	r9, r2, ror #4
    1138:	6e756a6e 	vsubvs.f32	s13, s10, s29
    113c:	7365442f 	cmnvc	r5, #788529152	; 0x2f000000
    1140:	706f746b 	rsbvc	r7, pc, fp, ror #8
    1144:	6863732f 	stmdavs	r3!, {r0, r1, r2, r3, r5, r8, r9, ip, sp, lr}^
    1148:	2f6c6f6f 	svccs	0x006c6f6f
    114c:	746e6957 	strbtvc	r6, [lr], #-2391	; 0x957
    1150:	39317265 	ldmdbcc	r1!, {r0, r2, r5, r6, r9, ip, sp, lr}
    1154:	432f3032 	teqmi	pc, #50	; 0x32
    1158:	30343153 	eorscc	r3, r4, r3, asr r1
    115c:	73632f45 	cmnvc	r3, #276	; 0x114
    1160:	65303431 	ldrvs	r3, [r0, #-1073]!	; 0x431
    1164:	7730322d 	ldrvc	r3, [r0, -sp, lsr #4]!
    1168:	6c2f6e69 	stcvs	14, cr6, [pc], #-420	; fcc <_start-0x7034>
    116c:	69706269 	ldmdbvs	r0!, {r0, r3, r5, r6, r9, sp, lr}^
    1170:	65640000 	strbvs	r0, [r4, #-0]!
    1174:	6c756166 	ldfvse	f6, [r5], #-408	; 0xfffffe68
    1178:	61682d74 	smcvs	33492	; 0x82d4
    117c:	656c646e 	strbvs	r6, [ip, #-1134]!	; 0x46e
    1180:	6e752d72 	mrcvs	13, 3, r2, cr5, cr2, {3}
    1184:	69666564 	stmdbvs	r6!, {r2, r5, r6, r8, sl, sp, lr}^
    1188:	2d64656e 	cfstr64cs	mvdx6, [r4, #-440]!	; 0xfffffe48
    118c:	74736e69 	ldrbtvc	r6, [r3], #-3689	; 0xe69
    1190:	0100632e 	tsteq	r0, lr, lsr #6
    1194:	70720000 	rsbsvc	r0, r2, r0
    1198:	00682e69 	rsbeq	r2, r8, r9, ror #28
    119c:	00000002 	andeq	r0, r0, r2
    11a0:	54020500 	strpl	r0, [r2], #-1280	; 0x500
    11a4:	13000099 	movwne	r0, #153	; 0x99
    11a8:	001c0266 	andseq	r0, ip, r6, ror #4
    11ac:	Address 0x00000000000011ac is out of bounds.


Disassembly of section .debug_str:

00000000 <.debug_str>:
   0:	657a6973 	ldrbvs	r6, [sl, #-2419]!	; 0x973
   4:	4700745f 	smlsdmi	r0, pc, r4, r7	; <UNPREDICTABLE>
   8:	45534650 	ldrbmi	r4, [r3, #-1616]	; 0x650
   c:	6500324c 	strvs	r3, [r0, #-588]	; 0x24c
  10:	726f7272 	rsbvc	r7, pc, #536870919	; 0x20000007
  14:	61665f73 	smcvs	26099	; 0x65f3
  18:	5f6c6174 	svcpl	0x006c6174
  1c:	50470070 	subpl	r0, r7, r0, ror r0
  20:	30524c43 	subscc	r4, r2, r3, asr #24
  24:	73616600 	cmnvc	r1, #0, 12
  28:	70675f74 	rsbvc	r5, r7, r4, ror pc
  2c:	775f6f69 	ldrbvc	r6, [pc, -r9, ror #30]
  30:	65746972 	ldrbvs	r6, [r4, #-2418]!	; 0x972
  34:	6d726100 	ldfvse	f6, [r2, #-0]
  38:	6d69745f 	cfstrdvs	mvd7, [r9, #-380]!	; 0xfffffe84
  3c:	525f7265 	subspl	r7, pc, #1342177286	; 0x50000006
  40:	52495741 	subpl	r5, r9, #17039360	; 0x1040000
  44:	61750051 	cmnvs	r5, r1, asr r0
  48:	695f7472 	ldmdbvs	pc, {r1, r4, r5, r6, sl, ip, sp, lr}^	; <UNPREDICTABLE>
  4c:	0074696e 	rsbseq	r6, r4, lr, ror #18
  50:	676e6f6c 	strbvs	r6, [lr, -ip, ror #30]!
  54:	6e6f6c20 	cdpvs	12, 6, cr6, cr15, cr0, {1}
  58:	6e752067 	cdpvs	0, 7, cr2, cr5, cr7, {3}
  5c:	6e676973 	mcrvs	9, 3, r6, cr7, cr3, {3}
  60:	69206465 	stmdbvs	r0!, {r0, r2, r5, r6, sl, sp, lr}
  64:	6300746e 	movwvs	r7, #1134	; 0x46e
  68:	6675625f 			; <UNDEFINED> instruction: 0x6675625f
  6c:	73616600 	cmnvc	r1, #0, 12
  70:	70675f74 	rsbvc	r5, r7, r4, ror pc
  74:	735f6f69 	cmpvc	pc, #420	; 0x1a4
  78:	6f5f7465 	svcvs	0x005f7465
  7c:	7163006e 	cmnvc	r3, lr, rrx
  80:	706d655f 	rsbvc	r6, sp, pc, asr r5
  84:	6c007974 	stcvs	9, cr7, [r0], {116}	; 0x74
  88:	20676e6f 	rsbcs	r6, r7, pc, ror #28
  8c:	676e6f6c 	strbvs	r6, [lr, -ip, ror #30]!
  90:	746e6920 	strbtvc	r6, [lr], #-2336	; 0x920
  94:	76656e00 	strbtvc	r6, [r5], -r0, lsl #28
  98:	73746e65 	cmnvc	r4, #1616	; 0x650
  9c:	79636e00 	stmdbvc	r3!, {r9, sl, fp, sp, lr}^
  a0:	00656c63 	rsbeq	r6, r5, r3, ror #24
  a4:	5f6d7261 	svcpl	0x006d7261
  a8:	656d6974 	strbvs	r6, [sp, #-2420]!	; 0x974
  ac:	6f435f72 	svcvs	0x00435f72
  b0:	6f72746e 	svcvs	0x0072746e
  b4:	5047006c 	subpl	r0, r7, ip, rrx
  b8:	31544553 	cmpcc	r4, r3, asr r5
  bc:	6d726100 	ldfvse	f6, [r2, #-0]
  c0:	6d69745f 	cfstrdvs	mvd7, [r9, #-380]!	; 0xfffffe84
  c4:	4c5f7265 	lfmmi	f7, 2, [pc], {101}	; 0x65
  c8:	0064616f 	rsbeq	r6, r4, pc, ror #2
  cc:	5f6d7261 	svcpl	0x006d7261
  d0:	656d6974 	strbvs	r6, [sp, #-2420]!	; 0x974
  d4:	61425f72 	hvcvs	9714	; 0x25f2
  d8:	47006573 	smlsdxmi	r0, r3, r5, r6
  dc:	56454c50 			; <UNDEFINED> instruction: 0x56454c50
  e0:	50470030 	subpl	r0, r7, r0, lsr r0
  e4:	3156454c 	cmpcc	r6, ip, asr #10
  e8:	73657400 	cmnvc	r5, #0, 8
  ec:	65675f74 	strbvs	r5, [r7, #-3956]!	; 0xf74
  f0:	6f6e006e 	svcvs	0x006e006e
  f4:	69616d74 	stmdbvs	r1!, {r2, r4, r5, r6, r8, sl, fp, sp, lr}^
  f8:	6166006e 	cmnvs	r6, lr, rrx
  fc:	675f7473 			; <UNDEFINED> instruction: 0x675f7473
 100:	5f6f6970 	svcpl	0x006f6970
 104:	5f746573 	svcpl	0x00746573
 108:	0066666f 	rsbeq	r6, r6, pc, ror #12
 10c:	5f6d7261 	svcpl	0x006d7261
 110:	656d6974 	strbvs	r6, [sp, #-2420]!	; 0x974
 114:	614d5f72 	hvcvs	54770	; 0xd5f2
 118:	64656b73 	strbtvs	r6, [r5], #-2931	; 0xb73
 11c:	00515249 	subseq	r5, r1, r9, asr #4
 120:	5f697072 	svcpl	0x00697072
 124:	65736572 	ldrbvs	r6, [r3, #-1394]!	; 0x572
 128:	75705f74 	ldrbvc	r5, [r0, #-3956]!	; 0xf74
 12c:	47006374 	smlsdxmi	r0, r4, r3, r6
 130:	45534650 	ldrbmi	r4, [r3, #-1616]	; 0x650
 134:	4700304c 	strmi	r3, [r0, -ip, asr #32]
 138:	45534650 	ldrbmi	r4, [r3, #-1616]	; 0x650
 13c:	4700314c 	strmi	r3, [r0, -ip, asr #2]
 140:	45534650 	ldrbmi	r4, [r3, #-1616]	; 0x650
 144:	4700334c 	strmi	r3, [r0, -ip, asr #6]
 148:	45534650 	ldrbmi	r4, [r3, #-1616]	; 0x650
 14c:	4700344c 	strmi	r3, [r0, -ip, asr #8]
 150:	45534650 	ldrbmi	r4, [r3, #-1616]	; 0x650
 154:	6300354c 	movwvs	r3, #1356	; 0x54c
 158:	5f727275 	svcpl	0x00727275
 15c:	756c6176 	strbvc	r6, [ip, #-374]!	; 0x176
 160:	70670065 	rsbvc	r0, r7, r5, rrx
 164:	655f6f69 	ldrbvs	r6, [pc, #-3945]	; fffff203 <__bss_end__+0xffff2f2b>
 168:	746e6576 	strbtvc	r6, [lr], #-1398	; 0x576
 16c:	656c635f 	strbvs	r6, [ip, #-863]!	; 0x35f
 170:	5f007261 	svcpl	0x00007261
 174:	4e55465f 	mrcmi	6, 2, r4, cr5, cr15, {2}
 178:	4f495443 	svcmi	0x00495443
 17c:	005f5f4e 	subseq	r5, pc, lr, asr #30
 180:	6e5f7163 	rdfvsez	f7, f7, f3
 184:	6d656c65 	stclvs	12, cr6, [r5, #-404]!	; 0xfffffe6c
 188:	6f687300 	svcvs	0x00687300
 18c:	75207472 	strvc	r7, [r0, #-1138]!	; 0x472
 190:	6769736e 	strbvs	r7, [r9, -lr, ror #6]!
 194:	2064656e 	rsbcs	r6, r4, lr, ror #10
 198:	00746e69 	rsbseq	r6, r4, r9, ror #28
 19c:	7473616c 	ldrbtvc	r6, [r3], #-364	; 0x16c
 1a0:	74757000 	ldrbtvc	r7, [r5], #-0
 1a4:	70670051 	rsbvc	r0, r7, r1, asr r0
 1a8:	665f6f69 	ldrbvs	r6, [pc], -r9, ror #30
 1ac:	306c6573 	rsbcc	r6, ip, r3, ror r5
 1b0:	43504700 	cmpmi	r0, #0, 14
 1b4:	0031524c 	eorseq	r5, r1, ip, asr #4
 1b8:	61656c63 	cmnvs	r5, r3, ror #24
 1bc:	65725f6e 	ldrbvs	r5, [r2, #-3950]!	; 0xf6e
 1c0:	746f6f62 	strbtvc	r6, [pc], #-3938	; 1c8 <_start-0x7e38>
 1c4:	69617400 	stmdbvs	r1!, {sl, ip, sp, lr}^
 1c8:	6973006c 	ldmdbvs	r3!, {r2, r3, r5, r6}^
 1cc:	7974657a 	ldmdbvc	r4!, {r1, r3, r4, r5, r6, r8, sl, sp, lr}^
 1d0:	63006570 	movwvs	r6, #1392	; 0x570
 1d4:	6f705f71 	svcvs	0x00705f71
 1d8:	6f6e5f70 	svcvs	0x006e5f70
 1dc:	6f6c626e 	svcvs	0x006c626e
 1e0:	61006b63 	tstvs	r0, r3, ror #22
 1e4:	745f6d72 	ldrbvc	r6, [pc], #-3442	; 1ec <_start-0x7e14>
 1e8:	72656d69 	rsbvc	r6, r5, #6720	; 0x1a40
 1ec:	6c65525f 	sfmvs	f5, 2, [r5], #-380	; 0xfffffe84
 1f0:	0064616f 	rsbeq	r6, r4, pc, ror #2
 1f4:	695f7163 	ldmdbvs	pc, {r0, r1, r5, r6, r8, ip, sp, lr}^	; <UNPREDICTABLE>
 1f8:	0074696e 	rsbseq	r6, r4, lr, ror #18
 1fc:	6c637963 	stclvs	9, cr7, [r3], #-396	; 0xfffffe74
 200:	6f635f65 	svcvs	0x00635f65
 204:	65746e75 	ldrbvs	r6, [r4, #-3701]!	; 0xe75
 208:	6e690072 	mcrvs	0, 3, r0, cr9, cr2, {3}
 20c:	6e695f74 	mcrvs	15, 3, r5, cr9, cr4, {3}
 210:	5f007469 	svcpl	0x00007469
 214:	0074756f 	rsbseq	r7, r4, pc, ror #10
 218:	74737973 	ldrbtvc	r7, [r3], #-2419	; 0x973
 21c:	655f6d65 	ldrbvs	r6, [pc, #-3429]	; fffff4bf <__bss_end__+0xffff31e7>
 220:	6c62616e 	stfvse	f6, [r2], #-440	; 0xfffffe48
 224:	6e695f65 	cdpvs	15, 6, cr5, cr9, cr5, {3}
 228:	72726574 	rsbsvc	r6, r2, #116, 10	; 0x1d000000
 22c:	73747075 	cmnvc	r4, #117	; 0x75
 230:	5f736900 	svcpl	0x00736900
 234:	74697277 	strbtvc	r7, [r9], #-631	; 0x277
 238:	00676e69 	rsbeq	r6, r7, r9, ror #28
 23c:	6573552f 	ldrbvs	r5, [r3, #-1327]!	; 0x52f
 240:	622f7372 	eorvs	r7, pc, #-939524095	; 0xc8000001
 244:	6e616972 	mcrvs	9, 3, r6, cr1, cr2, {3}
 248:	2f6e756a 	svccs	0x006e756a
 24c:	6b736544 	blvs	1cd9764 <__bss_end__+0x1ccd48c>
 250:	2f706f74 	svccs	0x00706f74
 254:	6f686373 	svcvs	0x00686373
 258:	532f6c6f 	teqpl	pc, #28416	; 0x6f00
 25c:	6e697270 	mcrvs	2, 3, r7, cr9, cr0, {3}
 260:	32393167 	eorscc	r3, r9, #-1073741799	; 0xc0000019
 264:	53432f30 	movtpl	r2, #16176	; 0x3f30
 268:	4c303432 	cfldrsmi	mvf3, [r0], #-200	; 0xffffff38
 26c:	73632f58 	cmnvc	r3, #88, 30	; 0x160
 270:	6c303432 	cfldrsvs	mvf3, [r0], #-200	; 0xffffff38
 274:	30322d78 	eorscc	r2, r2, r8, ror sp
 278:	2f727073 	svccs	0x00727073
 27c:	7362616c 	cmnvc	r2, #108, 2
 280:	692d342f 	pushvs	{r0, r1, r2, r3, r5, sl, ip, sp}
 284:	7265746e 	rsbvc	r7, r5, #1845493760	; 0x6e000000
 288:	74707572 	ldrbtvc	r7, [r0], #-1394	; 0x572
 28c:	2d77732d 	ldclcs	3, cr7, [r7, #-180]!	; 0xffffff4c
 290:	74726175 	ldrbtvc	r6, [r2], #-373	; 0x175
 294:	696c632f 	stmdbvs	ip!, {r0, r1, r2, r3, r5, r8, r9, sp, lr}^
 298:	00746e65 	rsbseq	r6, r4, r5, ror #28
 29c:	5f766564 	svcpl	0x00766564
 2a0:	72726162 	rsbsvc	r6, r2, #-2147483624	; 0x80000018
 2a4:	00726569 	rsbseq	r6, r2, r9, ror #10
 2a8:	69736e75 	ldmdbvs	r3!, {r0, r2, r4, r5, r6, r9, sl, fp, sp, lr}^
 2ac:	64656e67 	strbtvs	r6, [r5], #-3687	; 0xe67
 2b0:	61686320 	cmnvs	r8, r0, lsr #6
 2b4:	63730072 	cmnvs	r3, #114	; 0x72
 2b8:	0065706f 	rsbeq	r7, r5, pc, rrx
 2bc:	45535047 	ldrbmi	r5, [r3, #-71]	; 0x47
 2c0:	73003054 	movwvc	r3, #84	; 0x54
 2c4:	74726f68 	ldrbtvc	r6, [r2], #-3944	; 0xf68
 2c8:	746e6920 	strbtvc	r6, [lr], #-2336	; 0x920
 2cc:	5f716300 	svcpl	0x00716300
 2d0:	00706f70 	rsbseq	r6, r0, r0, ror pc
 2d4:	5f657163 	svcpl	0x00657163
 2d8:	65680074 	strbvs	r0, [r8, #-116]!	; 0x74
 2dc:	64006461 	strvs	r6, [r0], #-1121	; 0x461
 2e0:	79616c65 	stmdbvc	r1!, {r0, r2, r5, r6, sl, fp, sp, lr}^
 2e4:	00736d5f 	rsbseq	r6, r3, pc, asr sp
 2e8:	6c637963 	stclvs	9, cr7, [r3], #-396	; 0xfffffe74
 2ec:	705f7365 	subsvc	r7, pc, r5, ror #6
 2f0:	735f7265 	cmpvc	pc, #1342177286	; 0x50000006
 2f4:	67006365 	strvs	r6, [r0, -r5, ror #6]
 2f8:	5f6f6970 	svcpl	0x006f6970
 2fc:	30746573 	rsbscc	r6, r4, r3, ror r5
 300:	72696600 	rsbvc	r6, r9, #0, 12
 304:	6e007473 	mcrvs	4, 0, r7, cr0, cr3, {3}
 308:	7369725f 	cmnvc	r9, #-268435451	; 0xf0000005
 30c:	5f676e69 	svcpl	0x00676e69
 310:	65676465 	strbvs	r6, [r7, #-1125]!	; 0x465
 314:	554e4700 	strbpl	r4, [lr, #-1792]	; 0x700
 318:	34204320 	strtcc	r4, [r0], #-800	; 0x320
 31c:	332e382e 	teqcc	lr, #3014656	; 0x2e0000
 320:	636d2d20 	cmnvs	sp, #32, 26	; 0x800
 324:	613d7570 	teqvs	sp, r0, ror r5
 328:	31316d72 	teqcc	r1, r2, ror sp
 32c:	7a6a3637 	bvc	1a8dc10 <__bss_end__+0x1a81938>
 330:	20732d66 	rsbscs	r2, r3, r6, ror #26
 334:	75746d2d 	ldrbvc	r6, [r4, #-3373]!	; 0xd2d
 338:	613d656e 	teqvs	sp, lr, ror #10
 33c:	31316d72 	teqcc	r1, r2, ror sp
 340:	7a6a3637 	bvc	1a8dc24 <__bss_end__+0x1a8194c>
 344:	20732d66 	rsbscs	r2, r3, r6, ror #26
 348:	6467672d 	strbtvs	r6, [r7], #-1837	; 0x72d
 34c:	4f2d2062 	svcmi	0x002d2062
 350:	732d2067 	teqvc	sp, #103	; 0x67
 354:	673d6474 			; <UNDEFINED> instruction: 0x673d6474
 358:	3939756e 	ldmdbcc	r9!, {r1, r2, r3, r5, r6, r8, sl, ip, sp, lr}
 35c:	66662d20 	strbtvs	r2, [r6], -r0, lsr #26
 360:	73656572 	cmnvc	r5, #478150656	; 0x1c800000
 364:	646e6174 	strbtvs	r6, [lr], #-372	; 0x174
 368:	00676e69 	rsbeq	r6, r7, r9, ror #28
 36c:	636e6566 	cmnvs	lr, #427819008	; 0x19800000
 370:	70670065 	rsbvc	r0, r7, r5, rrx
 374:	735f6f69 	cmpvc	pc, #420	; 0x1a4
 378:	695f7465 	ldmdbvs	pc, {r0, r2, r5, r6, sl, ip, sp, lr}^	; <UNPREDICTABLE>
 37c:	7475706e 	ldrbtvc	r7, [r5], #-110	; 0x6e
 380:	665f6e00 	ldrbvs	r6, [pc], -r0, lsl #28
 384:	696c6c61 	stmdbvs	ip!, {r0, r5, r6, sl, fp, sp, lr}^
 388:	655f676e 	ldrbvs	r6, [pc, #-1902]	; fffffc22 <__bss_end__+0xffff394a>
 38c:	00656764 	rsbeq	r6, r5, r4, ror #14
 390:	7265766f 	rsbvc	r7, r5, #116391936	; 0x6f00000
 394:	776f6c66 	strbvc	r6, [pc, -r6, ror #24]!
 398:	5f716300 	svcpl	0x00716300
 39c:	68737570 	ldmdavs	r3!, {r4, r5, r6, r8, sl, ip, sp, lr}^
 3a0:	6c2d3200 	sfmvs	f3, 4, [sp], #-0
 3a4:	6369676f 	cmnvs	r9, #29097984	; 0x1bc0000
 3a8:	616e612d 	cmnvs	lr, sp, lsr #2
 3ac:	657a796c 	ldrbvs	r7, [sl, #-2412]!	; 0x96c
 3b0:	00632e72 	rsbeq	r2, r3, r2, ror lr
 3b4:	5f6d7261 	svcpl	0x006d7261
 3b8:	656d6974 	strbvs	r6, [sp, #-2420]!	; 0x974
 3bc:	72505f72 	subsvc	r5, r0, #456	; 0x1c8
 3c0:	76694465 	strbtvc	r4, [r9], -r5, ror #8
 3c4:	72656469 	rsbvc	r6, r5, #1761607680	; 0x69000000
 3c8:	6d726100 	ldfvse	f6, [r2, #-0]
 3cc:	6d69745f 	cfstrdvs	mvd7, [r9, #-380]!	; 0xfffffe84
 3d0:	565f7265 	ldrbpl	r7, [pc], -r5, ror #4
 3d4:	65756c61 	ldrbvs	r6, [r5, #-3169]!	; 0xc61
 3d8:	6d726100 	ldfvse	f6, [r2, #-0]
 3dc:	6d69745f 	cfstrdvs	mvd7, [r9, #-380]!	; 0xfffffe84
 3e0:	495f7265 	ldmdbmi	pc, {r0, r2, r5, r6, r9, ip, sp, lr}^	; <UNPREDICTABLE>
 3e4:	6c435152 	stfvse	f5, [r3], {82}	; 0x52
 3e8:	00726165 	rsbseq	r6, r2, r5, ror #2
 3ec:	736d656d 	cmnvc	sp, #457179136	; 0x1b400000
 3f0:	67007465 	strvs	r7, [r0, -r5, ror #8]
 3f4:	5f6f6970 	svcpl	0x006f6970
 3f8:	5f746573 	svcpl	0x00746573
 3fc:	7074756f 	rsbsvc	r7, r4, pc, ror #10
 400:	63007475 	movwvs	r7, #1141	; 0x475
 404:	00745f71 	rsbseq	r5, r4, r1, ror pc
 408:	62616e65 	rsbvs	r6, r1, #1616	; 0x650
 40c:	635f656c 	cmpvs	pc, #108, 10	; 0x1b000000
 410:	65686361 	strbvs	r6, [r8, #-865]!	; 0x361
 414:	69707200 	ldmdbvs	r0!, {r9, ip, sp, lr}^
 418:	6d72615f 	ldfvse	f6, [r2, #-380]!	; 0xfffffe84
 41c:	6d69745f 	cfstrdvs	mvd7, [r9, #-380]!	; 0xfffffe84
 420:	745f7265 	ldrbvc	r7, [pc], #-613	; 428 <_start-0x7bd8>
 424:	6e697500 	cdpvs	5, 6, cr7, cr9, cr0, {0}
 428:	745f3874 	ldrbvc	r3, [pc], #-2164	; 430 <_start-0x7bd0>
 42c:	69706700 	ldmdbvs	r0!, {r8, r9, sl, sp, lr}^
 430:	6e695f6f 	cdpvs	15, 6, cr5, cr9, cr15, {3}
 434:	61665f74 	smcvs	26100	; 0x65f4
 438:	6e696c6c 	cdpvs	12, 6, cr6, cr9, cr12, {3}
 43c:	64655f67 	strbtvs	r5, [r5], #-3943	; 0xf67
 440:	67006567 	strvs	r6, [r0, -r7, ror #10]
 444:	5f6f6970 	svcpl	0x006f6970
 448:	30726c63 	rsbscc	r6, r2, r3, ror #24
 44c:	73797300 	cmnvc	r9, #0, 6
 450:	5f6d6574 	svcpl	0x006d6574
 454:	61736964 	cmnvs	r3, r4, ror #18
 458:	5f656c62 	svcpl	0x00656c62
 45c:	65746e69 	ldrbvs	r6, [r4, #-3689]!	; 0xe69
 460:	70757272 	rsbsvc	r7, r5, r2, ror r2
 464:	63007374 	movwvs	r7, #884	; 0x374
 468:	75665f71 	strbvc	r5, [r6, #-3953]!	; 0xf71
 46c:	61006c6c 	tstvs	r0, ip, ror #24
 470:	745f6d72 	ldrbvc	r6, [pc], #-3442	; 478 <_start-0x7b88>
 474:	72656d69 	rsbvc	r6, r5, #6720	; 0x1a40
 478:	6572465f 	ldrbvs	r4, [r2, #-1631]!	; 0x65f
 47c:	6e755265 	cdpvs	2, 7, cr5, cr5, cr5, {3}
 480:	676e696e 	strbvs	r6, [lr, -lr, ror #18]!
 484:	6e756f43 	cdpvs	15, 7, cr6, cr5, cr3, {2}
 488:	00726574 	rsbseq	r6, r2, r4, ror r5
 48c:	6362696c 	cmnvs	r2, #108, 18	; 0x1b0000
 490:	6d656d2f 	stclvs	13, cr6, [r5, #-188]!	; 0xffffff44
 494:	2e746573 	mrccs	5, 3, r6, cr4, cr3, {3}
 498:	552f0063 	strpl	r0, [pc, #-99]!	; 43d <_start-0x7bc3>
 49c:	73726573 	cmnvc	r2, #482344960	; 0x1cc00000
 4a0:	6972622f 	ldmdbvs	r2!, {r0, r1, r2, r3, r5, r9, sp, lr}^
 4a4:	756a6e61 	strbvc	r6, [sl, #-3681]!	; 0xe61
 4a8:	65442f6e 	strbvs	r2, [r4, #-3950]	; 0xf6e
 4ac:	6f746b73 	svcvs	0x00746b73
 4b0:	63732f70 	cmnvs	r3, #112, 30	; 0x1c0
 4b4:	6c6f6f68 	stclvs	15, cr6, [pc], #-416	; 31c <_start-0x7ce4>
 4b8:	6e69572f 	cdpvs	7, 6, cr5, cr9, cr15, {1}
 4bc:	31726574 	cmncc	r2, r4, ror r5
 4c0:	2f303239 	svccs	0x00303239
 4c4:	34315343 	ldrtcc	r5, [r1], #-835	; 0x343
 4c8:	632f4530 	teqvs	pc, #48, 10	; 0xc000000
 4cc:	30343173 	eorscc	r3, r4, r3, ror r1
 4d0:	30322d65 	eorscc	r2, r2, r5, ror #26
 4d4:	2f6e6977 	svccs	0x006e6977
 4d8:	7062696c 	rsbvc	r6, r2, ip, ror #18
 4dc:	5f5f0069 	svcpl	0x005f0069
 4e0:	63756e67 	cmnvs	r5, #1648	; 0x670
 4e4:	5f61765f 	svcpl	0x0061765f
 4e8:	7473696c 	ldrbtvc	r6, [r3], #-2412	; 0x96c
 4ec:	62696c00 	rsbvs	r6, r9, #0, 24
 4f0:	72702f63 	rsbsvc	r2, r0, #396	; 0x18c
 4f4:	6b746e69 	blvs	1d1bea0 <__bss_end__+0x1d0fbc8>
 4f8:	7600632e 	strvc	r6, [r0], -lr, lsr #6
 4fc:	72705f61 	rsbsvc	r5, r0, #388	; 0x184
 500:	6b746e69 	blvs	1d1beac <__bss_end__+0x1d0fbd4>
 504:	765f5f00 	ldrbvc	r5, [pc], -r0, lsl #30
 508:	696c5f61 	stmdbvs	ip!, {r0, r5, r6, r8, r9, sl, fp, ip, lr}^
 50c:	61007473 	tstvs	r0, r3, ror r4
 510:	00736772 	rsbseq	r6, r3, r2, ror r7
 514:	70615f5f 	rsbvc	r5, r1, pc, asr pc
 518:	72617500 	rsbvc	r7, r1, #0, 10
 51c:	75705f74 	ldrbvc	r5, [r0, #-3956]!	; 0xf74
 520:	69006374 	stmdbvs	r0, {r2, r4, r5, r6, r8, r9, sp, lr}
 524:	7265746e 	rsbvc	r7, r5, #1845493760	; 0x6e000000
 528:	5f6c616e 	svcpl	0x006c616e
 52c:	63747570 	cmnvs	r4, #112, 10	; 0x1c000000
 530:	00726168 	rsbseq	r6, r2, r8, ror #2
 534:	5f697072 	svcpl	0x00697072
 538:	63747570 	cmnvs	r4, #112, 10	; 0x1c000000
 53c:	00726168 	rsbseq	r6, r2, r8, ror #2
 540:	6362696c 	cmnvs	r2, #108, 18	; 0x1b0000
 544:	7475702f 	ldrbtvc	r7, [r5], #-47	; 0x2f
 548:	72616863 	rsbvc	r6, r1, #6488064	; 0x630000
 54c:	7200632e 	andvc	r6, r0, #-1207959552	; 0xb8000000
 550:	735f6970 	cmpvc	pc, #112, 18	; 0x1c0000
 554:	705f7465 	subsvc	r7, pc, r5, ror #8
 558:	00637475 	rsbeq	r7, r3, r5, ror r4
 55c:	6362696c 	cmnvs	r2, #108, 18	; 0x1b0000
 560:	7475702f 	ldrbtvc	r7, [r5], #-47	; 0x2f
 564:	00632e6b 	rsbeq	r2, r3, fp, ror #28
 568:	65746e69 	ldrbvs	r6, [r4, #-3689]!	; 0xe69
 56c:	6c616e72 	stclvs	14, cr6, [r1], #-456	; 0xfffffe38
 570:	7475705f 	ldrbtvc	r7, [r5], #-95	; 0x5f
 574:	656e006b 	strbvs	r0, [lr, #-107]!	; 0x6b
 578:	00705f67 	rsbseq	r5, r0, r7, ror #30
 57c:	65766572 	ldrbvs	r6, [r6, #-1394]!	; 0x572
 580:	00657372 	rsbeq	r7, r5, r2, ror r3
 584:	69647369 	stmdbvs	r4!, {r0, r3, r5, r6, r8, r9, ip, sp, lr}^
 588:	00746967 	rsbseq	r6, r4, r7, ror #18
 58c:	73747570 	cmnvc	r4, #112, 10	; 0x1c000000
 590:	0070665f 	rsbseq	r6, r0, pc, asr r6
 594:	65736162 	ldrbvs	r6, [r3, #-354]!	; 0x162
 598:	67697300 	strbvs	r7, [r9, -r0, lsl #6]!
 59c:	5f64656e 	svcpl	0x0064656e
 5a0:	696c0070 	stmdbvs	ip!, {r4, r5, r6}^
 5a4:	762f6362 	strtvc	r6, [pc], -r2, ror #6
 5a8:	72702d61 	rsbsvc	r2, r0, #6208	; 0x1840
 5ac:	6b746e69 	blvs	1d1bf58 <__bss_end__+0x1d0fc80>
 5b0:	7200632e 	andvc	r6, r0, #-1207959552	; 0xb8000000
 5b4:	735f6970 	cmpvc	pc, #112, 18	; 0x1c0000
 5b8:	6f5f7465 	svcvs	0x005f7465
 5bc:	75707475 	ldrbvc	r7, [r0, #-1141]!	; 0x475
 5c0:	69770074 	ldmdbvs	r7!, {r2, r4, r5, r6}^
 5c4:	00687464 	rsbeq	r7, r8, r4, ror #8
 5c8:	63747570 	cmnvs	r4, #112, 10	; 0x1c000000
 5cc:	0070665f 	rsbseq	r6, r0, pc, asr r6
 5d0:	74696d65 	strbtvc	r6, [r9], #-3429	; 0xd65
 5d4:	73696400 	cmnvc	r9, #0, 8
 5d8:	656c6261 	strbvs	r6, [ip, #-609]!	; 0x261
 5dc:	6361635f 	cmnvs	r1, #2080374785	; 0x7c000001
 5e0:	63006568 	movwvs	r6, #1384	; 0x568
 5e4:	30343173 	eorscc	r3, r4, r3, ror r1
 5e8:	72732d65 	rsbsvc	r2, r3, #6464	; 0x1940
 5ec:	61632f63 	cmnvs	r3, r3, ror #30
 5f0:	2e656863 	cdpcs	8, 6, cr6, cr5, cr3, {3}
 5f4:	70720063 	rsbsvc	r0, r2, r3, rrx
 5f8:	65725f69 	ldrbvs	r5, [r2, #-3945]!	; 0xf69
 5fc:	746f6f62 	strbtvc	r6, [pc], #-3938	; 604 <_start-0x79fc>
 600:	31736300 	cmncc	r3, r0, lsl #6
 604:	2d653034 	stclcs	0, cr3, [r5, #-208]!	; 0xffffff30
 608:	2f637273 	svccs	0x00637273
 60c:	61656c63 	cmnvs	r5, r3, ror #24
 610:	65722d6e 	ldrbvs	r2, [r2, #-3438]!	; 0xd6e
 614:	746f6f62 	strbtvc	r6, [pc], #-3938	; 61c <_start-0x79e4>
 618:	6300632e 	movwvs	r6, #814	; 0x32e
 61c:	30343173 	eorscc	r3, r4, r3, ror r1
 620:	72732d65 	rsbsvc	r2, r3, #6464	; 0x1940
 624:	73632f63 	cmnvc	r3, #396	; 0x18c
 628:	74726174 	ldrbtvc	r6, [r2], #-372	; 0x174
 62c:	5f00632e 	svcpl	0x0000632e
 630:	7373625f 	cmnvc	r3, #-268435451	; 0xf0000005
 634:	6174735f 	cmnvs	r4, pc, asr r3
 638:	5f5f7472 	svcpl	0x005f7472
 63c:	625f5f00 	subsvs	r5, pc, #0, 30
 640:	655f7373 	ldrbvs	r7, [pc, #-883]	; 2d5 <_start-0x7d2b>
 644:	5f5f646e 	svcpl	0x005f646e
 648:	73736200 	cmnvc	r3, #0, 4
 64c:	646e655f 	strbtvs	r6, [lr], #-1375	; 0x55f
 650:	73635f00 	cmnvc	r3, #0, 30
 654:	74726174 	ldrbtvc	r6, [r2], #-372	; 0x174
 658:	5f746100 	svcpl	0x00746100
 65c:	72657375 	rsbvc	r7, r5, #-738197503	; 0xd4000001
 660:	76656c5f 			; <UNDEFINED> instruction: 0x76656c5f
 664:	50006c65 	andpl	r6, r0, r5, ror #24
 668:	41505f4d 	cmpmi	r0, sp, asr #30
 66c:	4f575353 	svcmi	0x00575353
 670:	63004452 	movwvs	r4, #1106	; 0x452
 674:	30343173 	eorscc	r3, r4, r3, ror r1
 678:	72732d65 	rsbsvc	r2, r3, #6464	; 0x1940
 67c:	65722f63 	ldrbvs	r2, [r2, #-3939]!	; 0xf63
 680:	746f6f62 	strbtvc	r6, [pc], #-3938	; 688 <_start-0x7978>
 684:	5000632e 	andpl	r6, r0, lr, lsr #6
 688:	53525f4d 	cmppl	r2, #308	; 0x134
 68c:	575f4354 			; <UNDEFINED> instruction: 0x575f4354
 690:	47464352 	smlsldmi	r4, r6, r2, r3
 694:	4c55465f 	mrrcmi	6, 5, r4, r5, cr15
 698:	45525f4c 	ldrbmi	r5, [r2, #-3916]	; 0xf4c
 69c:	00544553 	subseq	r4, r4, r3, asr r5
 6a0:	575f4d50 			; <UNDEFINED> instruction: 0x575f4d50
 6a4:	00474f44 	subeq	r4, r7, r4, asr #30
 6a8:	5f746573 	svcpl	0x00746573
 6ac:	72657375 	rsbvc	r7, r5, #-738197503	; 0xd4000001
 6b0:	76656c5f 			; <UNDEFINED> instruction: 0x76656c5f
 6b4:	50006c65 	andpl	r6, r0, r5, ror #24
 6b8:	32335455 	eorscc	r5, r3, #1426063360	; 0x55000000
 6bc:	5f4d5000 	svcpl	0x004d5000
 6c0:	43545352 	cmpmi	r4, #1207959553	; 0x48000001
 6c4:	73706300 	cmnvc	r0, #0, 6
 6c8:	69740072 	ldmdbvs	r4!, {r1, r4, r5, r6}^
 6cc:	5f72656d 	svcpl	0x0072656d
 6d0:	5f746567 	svcpl	0x00746567
 6d4:	63657375 	cmnvs	r5, #-738197503	; 0xd4000001
 6d8:	7761725f 			; <UNDEFINED> instruction: 0x7761725f
 6dc:	6c656400 	cfstrdvs	mvd6, [r5], #-0
 6e0:	735f7961 	cmpvc	pc, #1589248	; 0x184000
 6e4:	63006365 	movwvs	r6, #869	; 0x365
 6e8:	30343173 	eorscc	r3, r4, r3, ror r1
 6ec:	72732d65 	rsbsvc	r2, r3, #6464	; 0x1940
 6f0:	69742f63 	ldmdbvs	r4!, {r0, r1, r5, r6, r8, r9, sl, fp, sp}^
 6f4:	2e72656d 	cdpcs	5, 7, cr6, cr2, cr13, {3}
 6f8:	45470063 	strbmi	r0, [r7, #-99]	; 0x63
 6fc:	00323354 	eorseq	r3, r2, r4, asr r3
 700:	6b636974 	blvs	18dacd8 <__bss_end__+0x18cea00>
 704:	65640073 	strbvs	r0, [r4, #-115]!	; 0x73
 708:	5f79616c 	svcpl	0x0079616c
 70c:	6c637963 	stclvs	9, cr7, [r3], #-396	; 0xfffffe74
 710:	64007365 	strvs	r7, [r0], #-869	; 0x365
 714:	79616c65 	stmdbvc	r1!, {r0, r2, r5, r6, sl, fp, sp, lr}^
 718:	0073755f 	rsbseq	r7, r3, pc, asr r5
 71c:	656d6974 	strbvs	r6, [sp, #-2420]!	; 0x974
 720:	65675f72 	strbvs	r5, [r7, #-3954]!	; 0xf72
 724:	73755f74 	cmnvc	r5, #116, 30	; 0x1d0
 728:	67006365 	strvs	r6, [r0, -r5, ror #6]
 72c:	5f6f6970 	svcpl	0x006f6970
 730:	6e657665 	cdpvs	6, 6, cr7, cr5, cr5, {3}
 734:	65645f74 	strbvs	r5, [r4, #-3956]!	; 0xf74
 738:	74636574 	strbtvc	r6, [r3], #-1396	; 0x574
 73c:	70006465 	andvc	r6, r0, r5, ror #8
 740:	32337475 	eorscc	r7, r3, #1962934272	; 0x75000000
 744:	414e4500 	cmpmi	lr, r0, lsl #10
 748:	5f454c42 	svcpl	0x00454c42
 74c:	53515249 	cmppl	r1, #-1879048188	; 0x90000004
 750:	6900325f 	stmdbvs	r0, {r0, r1, r2, r3, r4, r6, r9, ip, sp}
 754:	70675f73 	rsbvc	r5, r7, r3, ror pc
 758:	695f6f69 	ldmdbvs	pc, {r0, r3, r5, r6, r8, r9, sl, fp, sp, lr}^	; <UNPREDICTABLE>
 75c:	4700746e 	strmi	r7, [r0, -lr, ror #8]
 760:	5f4f4950 	svcpl	0x004f4950
 764:	434e5546 	movtmi	r5, #58694	; 0xe546
 768:	504e495f 	subpl	r4, lr, pc, asr r9
 76c:	6d005455 	cfstrsvs	mvf5, [r0, #-340]	; 0xfffffeac
 770:	72732d79 	rsbsvc	r2, r3, #7744	; 0x1e40
 774:	70672f63 	rsbvc	r2, r7, r3, ror #30
 778:	632e6f69 	teqvs	lr, #420	; 0x1a4
 77c:	746e6900 	strbtvc	r6, [lr], #-2304	; 0x900
 780:	73616d5f 	cmnvc	r1, #6080	; 0x17c0
 784:	6572006b 	ldrbvs	r0, [r2, #-107]!	; 0x6b
 788:	74735f67 	ldrbtvc	r5, [r3], #-3943	; 0xf67
 78c:	67007461 	strvs	r7, [r0, -r1, ror #8]
 790:	5f6f6970 	svcpl	0x006f6970
 794:	00676572 	rsbeq	r6, r7, r2, ror r5
 798:	6f697067 	svcvs	0x00697067
 79c:	6165725f 	cmnvs	r5, pc, asr r2
 7a0:	70670064 	rsbvc	r0, r7, r4, rrx
 7a4:	695f6f69 	ldmdbvs	pc, {r0, r3, r5, r6, r8, r9, sl, fp, sp, lr}^	; <UNPREDICTABLE>
 7a8:	725f746e 	subsvc	r7, pc, #1845493760	; 0x6e000000
 7ac:	6e697369 	cdpvs	3, 6, cr7, cr9, cr9, {3}
 7b0:	64655f67 	strbtvs	r5, [r5], #-3943	; 0xf67
 7b4:	67006567 	strvs	r6, [r0, -r7, ror #10]
 7b8:	5f6f6970 	svcpl	0x006f6970
 7bc:	5f746573 	svcpl	0x00746573
 7c0:	636e7566 	cmnvs	lr, #427819008	; 0x19800000
 7c4:	6e6f6974 	mcrvs	9, 3, r6, cr15, cr4, {3}
 7c8:	52504700 	subspl	r4, r0, #0, 14
 7cc:	00304e45 	eorseq	r4, r0, r5, asr #28
 7d0:	45525047 	ldrbmi	r5, [r2, #-71]	; 0x47
 7d4:	4900314e 	stmdbmi	r0, {r1, r2, r3, r6, r8, ip, sp}
 7d8:	505f5152 	subspl	r5, pc, r2, asr r1	; <UNPREDICTABLE>
 7dc:	49444e45 	stmdbmi	r4, {r0, r2, r6, r9, sl, fp, lr}^
 7e0:	315f474e 	cmpcc	pc, lr, asr #14
 7e4:	51524900 	cmppl	r2, r0, lsl #18
 7e8:	4e45505f 	mcrmi	0, 2, r5, cr5, cr15, {2}
 7ec:	474e4944 	strbmi	r4, [lr, -r4, asr #18]
 7f0:	6200325f 	andvs	r3, r0, #-268435451	; 0xf0000005
 7f4:	616d7469 	cmnvs	sp, r9, ror #8
 7f8:	66006b73 			; <UNDEFINED> instruction: 0x66006b73
 7fc:	00636e75 	rsbeq	r6, r3, r5, ror lr
 800:	6f697067 	svcvs	0x00697067
 804:	676f745f 			; <UNDEFINED> instruction: 0x676f745f
 808:	00656c67 	rsbeq	r6, r5, r7, ror #24
 80c:	44455047 	strbmi	r5, [r5], #-71	; 0x47
 810:	47003053 	smlsdmi	r0, r3, r0, r3
 814:	53444550 	movtpl	r4, #17744	; 0x4550
 818:	50470031 	subpl	r0, r7, r1, lsr r0
 81c:	304e4546 	subcc	r4, lr, r6, asr #10
 820:	46504700 	ldrbmi	r4, [r0], -r0, lsl #14
 824:	00314e45 	eorseq	r4, r1, r5, asr #28
 828:	4f495047 	svcmi	0x00495047
 82c:	4e55465f 	mrcmi	6, 2, r4, cr5, cr15, {2}
 830:	554f5f43 	strbpl	r5, [pc, #-3907]	; fffff8f5 <__bss_end__+0xffff361d>
 834:	54555054 	ldrbpl	r5, [r5], #-84	; 0x54
 838:	74656700 	strbtvc	r6, [r5], #-1792	; 0x700
 83c:	67003233 	smladxvs	r0, r3, r2, r3
 840:	5f6f6970 	svcpl	0x006f6970
 844:	636e7566 	cmnvs	lr, #427819008	; 0x19800000
 848:	4700745f 	smlsdmi	r0, pc, r4, r7	; <UNPREDICTABLE>
 84c:	5f4f4950 	svcpl	0x004f4950
 850:	434e5546 	movtmi	r5, #58694	; 0xe546
 854:	544c415f 	strbpl	r4, [ip], #-351	; 0x15f
 858:	50470030 	subpl	r0, r7, r0, lsr r0
 85c:	465f4f49 	ldrbmi	r4, [pc], -r9, asr #30
 860:	5f434e55 	svcpl	0x00434e55
 864:	31544c41 	cmpcc	r4, r1, asr #24
 868:	49504700 	ldmdbmi	r0, {r8, r9, sl, lr}^
 86c:	55465f4f 	strbpl	r5, [r6, #-3919]	; 0xf4f
 870:	415f434e 	cmpmi	pc, lr, asr #6
 874:	0032544c 	eorseq	r5, r2, ip, asr #8
 878:	4f495047 	svcmi	0x00495047
 87c:	4e55465f 	mrcmi	6, 2, r4, cr5, cr15, {2}
 880:	4c415f43 	mcrrmi	15, 4, r5, r1, cr3
 884:	47003354 	smlsdmi	r0, r4, r3, r3
 888:	5f4f4950 	svcpl	0x004f4950
 88c:	434e5546 	movtmi	r5, #58694	; 0xe546
 890:	544c415f 	strbpl	r4, [ip], #-351	; 0x15f
 894:	50470034 	subpl	r0, r7, r4, lsr r0
 898:	465f4f49 	ldrbmi	r4, [pc], -r9, asr #30
 89c:	5f434e55 	svcpl	0x00434e55
 8a0:	35544c41 	ldrbcc	r4, [r4, #-3137]	; 0xc41
 8a4:	67657200 	strbvs	r7, [r5, -r0, lsl #4]!
 8a8:	6c65735f 	stclvs	3, cr7, [r5], #-380	; 0xfffffe84
 8ac:	00746365 	rsbseq	r6, r4, r5, ror #6
 8b0:	5f585541 	svcpl	0x00585541
 8b4:	4d5f554d 	cfldr64mi	mvdx5, [pc, #-308]	; 788 <_start-0x7878>
 8b8:	525f5243 	subspl	r5, pc, #805306372	; 0x30000004
 8bc:	41004745 	tstmi	r0, r5, asr #14
 8c0:	4d5f5855 	ldclmi	8, cr5, [pc, #-340]	; 774 <_start-0x788c>
 8c4:	4f495f55 	svcmi	0x00495f55
 8c8:	4745525f 	smlsldmi	r5, r5, pc, r2	; <UNPREDICTABLE>
 8cc:	58554100 	ldmdapl	r5, {r8, lr}^
 8d0:	5f554d5f 	svcpl	0x00554d5f
 8d4:	5f52534d 	svcpl	0x0052534d
 8d8:	00474552 	subeq	r4, r7, r2, asr r5
 8dc:	74726175 	ldrbtvc	r6, [r2], #-373	; 0x175
 8e0:	6e61635f 	mcrvs	3, 3, r6, cr1, cr15, {2}
 8e4:	7465675f 	strbtvc	r6, [r5], #-1887	; 0x75f
 8e8:	55410063 	strbpl	r0, [r1, #-99]	; 0x63
 8ec:	554d5f58 	strbpl	r5, [sp, #-3928]	; 0xf58
 8f0:	544e435f 	strbpl	r4, [lr], #-863	; 0x35f
 8f4:	45525f4c 	ldrbmi	r5, [r2, #-3916]	; 0xf4c
 8f8:	61750047 	cmnvs	r5, r7, asr #32
 8fc:	685f7472 	ldmdavs	pc, {r1, r4, r5, r6, sl, ip, sp, lr}^	; <UNPREDICTABLE>
 900:	645f7361 	ldrbvs	r7, [pc], #-865	; 908 <_start-0x76f8>
 904:	00617461 	rsbeq	r7, r1, r1, ror #8
 908:	5f585541 	svcpl	0x00585541
 90c:	495f554d 	ldmdbmi	pc, {r0, r2, r3, r6, r8, sl, ip, lr}^	; <UNPREDICTABLE>
 910:	525f5245 	subspl	r5, pc, #1342177284	; 0x50000004
 914:	75004745 	strvc	r4, [r0, #-1861]	; 0x745
 918:	5f747261 	svcpl	0x00747261
 91c:	63746567 	cmnvs	r4, #432013312	; 0x19c00000
 920:	58554100 	ldmdapl	r5, {r8, lr}^
 924:	5f554d5f 	svcpl	0x00554d5f
 928:	5f524949 	svcpl	0x00524949
 92c:	00474552 	subeq	r4, r7, r2, asr r5
 930:	74726175 	ldrbtvc	r6, [r2], #-373	; 0x175
 934:	6e61635f 	mcrvs	3, 3, r6, cr1, cr15, {2}
 938:	7475705f 	ldrbtvc	r7, [r5], #-95	; 0x5f
 93c:	55410063 	strbpl	r0, [r1, #-99]	; 0x63
 940:	4e455f58 	mcrmi	15, 2, r5, cr5, cr8, {2}
 944:	454c4241 	strbmi	r4, [ip, #-577]	; 0x241
 948:	55410053 	strbpl	r0, [r1, #-83]	; 0x53
 94c:	52495f58 	subpl	r5, r9, #88, 30	; 0x160
 950:	55410051 	strbpl	r0, [r1, #-81]	; 0x51
 954:	554d5f58 	strbpl	r5, [sp, #-3928]	; 0xf58
 958:	5541425f 	strbpl	r4, [r1, #-607]	; 0x25f
 95c:	45525f44 	ldrbmi	r5, [r2, #-3908]	; 0xf44
 960:	55410047 	strbpl	r0, [r1, #-71]	; 0x47
 964:	554d5f58 	strbpl	r5, [sp, #-3928]	; 0xf58
 968:	4154535f 	cmpmi	r4, pc, asr r3
 96c:	45525f54 	ldrbmi	r5, [r2, #-3924]	; 0xf54
 970:	55410047 	strbpl	r0, [r1, #-71]	; 0x47
 974:	554d5f58 	strbpl	r5, [sp, #-3928]	; 0xf58
 978:	5243535f 	subpl	r5, r3, #2080374785	; 0x7c000001
 97c:	48435441 	stmdami	r3, {r0, r6, sl, ip, lr}^
 980:	2d796d00 	ldclcs	13, cr6, [r9, #-0]
 984:	2f637273 	svccs	0x00637273
 988:	74726175 	ldrbtvc	r6, [r2], #-373	; 0x175
 98c:	4100632e 	tstmi	r0, lr, lsr #6
 990:	4d5f5855 	ldclmi	8, cr5, [pc, #-340]	; 844 <_start-0x77bc>
 994:	434c5f55 	movtmi	r5, #53077	; 0xcf55
 998:	45525f52 	ldrbmi	r5, [r2, #-3922]	; 0xf52
 99c:	55410047 	strbpl	r0, [r1, #-71]	; 0x47
 9a0:	554d5f58 	strbpl	r5, [sp, #-3928]	; 0xf58
 9a4:	52534c5f 	subspl	r4, r3, #24320	; 0x5f00
 9a8:	4745525f 	smlsldmi	r5, r5, pc, r2	; <UNPREDICTABLE>
 9ac:	72617500 	rsbvc	r7, r1, #0, 10
 9b0:	65675f74 	strbvs	r5, [r7, #-3956]!	; 0xf74
 9b4:	615f6374 	cmpvs	pc, r4, ror r3	; <UNPREDICTABLE>
 9b8:	636e7973 	cmnvs	lr, #1884160	; 0x1cc000
 9bc:	51524900 	cmppl	r2, r0, lsl #18
 9c0:	6e65705f 	mcrvs	0, 3, r7, cr5, cr15, {2}
 9c4:	676e6964 	strbvs	r6, [lr, -r4, ror #18]!
 9c8:	4400325f 	strmi	r3, [r0], #-607	; 0x25f
 9cc:	62617369 	rsbvs	r7, r1, #-1543503871	; 0xa4000001
 9d0:	425f656c 	subsmi	r6, pc, #108, 10	; 0x1b000000
 9d4:	63697361 	cmnvs	r9, #-2080374783	; 0x84000001
 9d8:	5152495f 	cmppl	r2, pc, asr r9
 9dc:	49460073 	stmdbmi	r6, {r0, r1, r4, r5, r6}^
 9e0:	6f635f51 	svcvs	0x00635f51
 9e4:	6f72746e 	svcvs	0x0072746e
 9e8:	695f006c 	ldmdbvs	pc, {r2, r3, r5, r6}^	; <UNPREDICTABLE>
 9ec:	7265746e 	rsbvc	r7, r5, #1845493760	; 0x6e000000
 9f0:	74707572 	ldrbtvc	r7, [r0], #-1394	; 0x572
 9f4:	6261745f 	rsbvs	r7, r1, #1593835520	; 0x5f000000
 9f8:	4900656c 	stmdbmi	r0, {r2, r3, r5, r6, r8, sl, sp, lr}
 9fc:	625f5152 	subsvs	r5, pc, #-2147483628	; 0x80000014
 a00:	63697361 	cmnvs	r9, #-2080374783	; 0x84000001
 a04:	6e65705f 	mcrvs	0, 3, r7, cr5, cr15, {2}
 a08:	676e6964 	strbvs	r6, [lr, -r4, ror #18]!
 a0c:	616e4500 	cmnvs	lr, r0, lsl #10
 a10:	5f656c62 	svcpl	0x00656c62
 a14:	69736142 	ldmdbvs	r3!, {r1, r6, r8, sp, lr}^
 a18:	52495f63 	subpl	r5, r9, #396	; 0x18c
 a1c:	45007351 	strmi	r7, [r0, #-849]	; 0x351
 a20:	6c62616e 	stfvse	f6, [r2], #-440	; 0xfffffe48
 a24:	52495f65 	subpl	r5, r9, #404	; 0x194
 a28:	315f7351 	cmpcc	pc, r1, asr r3	; <UNPREDICTABLE>
 a2c:	616e4500 	cmnvs	lr, r0, lsl #10
 a30:	5f656c62 	svcpl	0x00656c62
 a34:	73515249 	cmpvc	r1, #-1879048188	; 0x90000004
 a38:	5f00325f 	svcpl	0x0000325f
 a3c:	65746e69 	ldrbvs	r6, [r4, #-3689]!	; 0xe69
 a40:	70757272 	rsbsvc	r7, r5, r2, ror r2
 a44:	61745f74 	cmnvs	r4, r4, ror pc
 a48:	5f656c62 	svcpl	0x00656c62
 a4c:	00646e65 	rsbeq	r6, r4, r5, ror #28
 a50:	34317363 	ldrtcc	r7, [r1], #-867	; 0x363
 a54:	692d6530 	pushvs	{r4, r5, r8, sl, sp, lr}
 a58:	7265746e 	rsbvc	r7, r5, #1845493760	; 0x6e000000
 a5c:	74707572 	ldrbtvc	r7, [r0], #-1394	; 0x572
 a60:	746e692f 	strbtvc	r6, [lr], #-2351	; 0x92f
 a64:	75727265 	ldrbvc	r7, [r2, #-613]!	; 0x265
 a68:	2d737470 	cfldrdcs	mvd7, [r3, #-448]!	; 0xfffffe40
 a6c:	00632e63 	rsbeq	r2, r3, r3, ror #28
 a70:	5f515249 	svcpl	0x00515249
 a74:	65736142 	ldrbvs	r6, [r3, #-322]!	; 0x142
 a78:	73694400 	cmnvc	r9, #0, 8
 a7c:	656c6261 	strbvs	r6, [ip, #-609]!	; 0x261
 a80:	5152495f 	cmppl	r2, pc, asr r9
 a84:	00315f73 	eorseq	r5, r1, r3, ror pc
 a88:	61736944 	cmnvs	r3, r4, asr #18
 a8c:	5f656c62 	svcpl	0x00656c62
 a90:	73515249 	cmpvc	r1, #-1879048188	; 0x90000004
 a94:	6600325f 			; <UNDEFINED> instruction: 0x6600325f
 a98:	5f747361 	svcpl	0x00747361
 a9c:	65746e69 	ldrbvs	r6, [r4, #-3689]!	; 0xe69
 aa0:	70757272 	rsbsvc	r7, r5, r2, ror r2
 aa4:	65765f74 	ldrbvs	r5, [r6, #-3956]!	; 0xf74
 aa8:	726f7463 	rsbvc	r7, pc, #1660944384	; 0x63000000
 aac:	51524900 	cmppl	r2, r0, lsl #18
 ab0:	6e65705f 	mcrvs	0, 3, r7, cr5, cr15, {2}
 ab4:	676e6964 	strbvs	r6, [lr, -r4, ror #18]!
 ab8:	6300315f 	movwvs	r3, #351	; 0x15f
 abc:	30343173 	eorscc	r3, r4, r3, ror r1
 ac0:	6e692d65 	cdpvs	13, 6, cr2, cr9, cr5, {3}
 ac4:	72726574 	rsbsvc	r6, r2, #116, 10	; 0x1d000000
 ac8:	2f747075 	svccs	0x00747075
 acc:	61666564 	cmnvs	r6, r4, ror #10
 ad0:	2d746c75 	ldclcs	12, cr6, [r4, #-468]!	; 0xfffffe2c
 ad4:	646e6168 	strbtvs	r6, [lr], #-360	; 0x168
 ad8:	2d72656c 	cfldr64cs	mvdx6, [r2, #-432]!	; 0xfffffe50
 adc:	61746164 	cmnvs	r4, r4, ror #2
 ae0:	6f62612d 	svcvs	0x0062612d
 ae4:	632e7472 	teqvs	lr, #1912602624	; 0x72000000
 ae8:	74616400 	strbtvc	r6, [r1], #-1024	; 0x400
 aec:	62615f61 	rsbvs	r5, r1, #388	; 0x184
 af0:	5f74726f 	svcpl	0x0074726f
 af4:	74636576 	strbtvc	r6, [r3], #-1398	; 0x576
 af8:	6300726f 	movwvs	r7, #623	; 0x26f
 afc:	30343173 	eorscc	r3, r4, r3, ror r1
 b00:	6e692d65 	cdpvs	13, 6, cr2, cr9, cr5, {3}
 b04:	72726574 	rsbsvc	r6, r2, #116, 10	; 0x1d000000
 b08:	2f747075 	svccs	0x00747075
 b0c:	61666564 	cmnvs	r6, r4, ror #10
 b10:	2d746c75 	ldclcs	12, cr6, [r4, #-468]!	; 0xfffffe2c
 b14:	646e6168 	strbtvs	r6, [lr], #-360	; 0x168
 b18:	2d72656c 	cfldr64cs	mvdx6, [r2, #-432]!	; 0xfffffe50
 b1c:	66657270 			; <UNDEFINED> instruction: 0x66657270
 b20:	68637465 	stmdavs	r3!, {r0, r2, r5, r6, sl, ip, sp, lr}^
 b24:	7000632e 	andvc	r6, r0, lr, lsr #6
 b28:	65666572 	strbvs	r6, [r6, #-1394]!	; 0x572
 b2c:	5f686374 	svcpl	0x00686374
 b30:	726f6261 	rsbvc	r6, pc, #268435462	; 0x10000006
 b34:	65765f74 	ldrbvs	r5, [r6, #-3956]!	; 0xf74
 b38:	726f7463 	rsbvc	r7, pc, #1660944384	; 0x63000000
 b3c:	73657200 	cmnvc	r5, #0, 4
 b40:	765f7465 	ldrbvc	r7, [pc], -r5, ror #8
 b44:	6f746365 	svcvs	0x00746365
 b48:	73630072 	cmnvc	r3, #114	; 0x72
 b4c:	65303431 	ldrvs	r3, [r0, #-1073]!	; 0x431
 b50:	746e692d 	strbtvc	r6, [lr], #-2349	; 0x92d
 b54:	75727265 	ldrbvc	r7, [r2, #-613]!	; 0x265
 b58:	642f7470 	strtvs	r7, [pc], #-1136	; b60 <_start-0x74a0>
 b5c:	75616665 	strbvc	r6, [r1, #-1637]!	; 0x665
 b60:	682d746c 	stmdavs	sp!, {r2, r3, r5, r6, sl, ip, sp, lr}
 b64:	6c646e61 	stclvs	14, cr6, [r4], #-388	; 0xfffffe7c
 b68:	722d7265 	eorvc	r7, sp, #1342177286	; 0x50000006
 b6c:	74657365 	strbtvc	r7, [r5], #-869	; 0x365
 b70:	6300632e 	movwvs	r6, #814	; 0x32e
 b74:	30343173 	eorscc	r3, r4, r3, ror r1
 b78:	6e692d65 	cdpvs	13, 6, cr2, cr9, cr5, {3}
 b7c:	72726574 	rsbsvc	r6, r2, #116, 10	; 0x1d000000
 b80:	2f747075 	svccs	0x00747075
 b84:	61666564 	cmnvs	r6, r4, ror #10
 b88:	2d746c75 	ldclcs	12, cr6, [r4, #-468]!	; 0xfffffe2c
 b8c:	646e6168 	strbtvs	r6, [lr], #-360	; 0x168
 b90:	2d72656c 	cfldr64cs	mvdx6, [r2, #-432]!	; 0xfffffe50
 b94:	65646e75 	strbvs	r6, [r4, #-3701]!	; 0xe75
 b98:	656e6966 	strbvs	r6, [lr, #-2406]!	; 0x966
 b9c:	6e692d64 	cdpvs	13, 6, cr2, cr9, cr4, {3}
 ba0:	632e7473 	teqvs	lr, #1929379840	; 0x73000000
 ba4:	646e7500 	strbtvs	r7, [lr], #-1280	; 0x500
 ba8:	6e696665 	cdpvs	6, 6, cr6, cr9, cr5, {3}
 bac:	695f6465 	ldmdbvs	pc, {r0, r2, r5, r6, sl, sp, lr}^	; <UNPREDICTABLE>
 bb0:	7274736e 	rsbsvc	r7, r4, #-1207959551	; 0xb8000001
 bb4:	69746375 	ldmdbvs	r4!, {r0, r2, r4, r5, r6, r8, r9, sp, lr}^
 bb8:	765f6e6f 	ldrbvc	r6, [pc], -pc, ror #28
 bbc:	6f746365 	svcvs	0x00746365
 bc0:	Address 0x0000000000000bc0 is out of bounds.


Disassembly of section .debug_frame:

00000000 <.debug_frame>:
   0:	0000000c 	andeq	r0, r0, ip
   4:	ffffffff 			; <UNDEFINED> instruction: 0xffffffff
   8:	7c020001 	stcvc	0, cr0, [r2], {1}
   c:	000d0c0e 	andeq	r0, sp, lr, lsl #24
  10:	00000014 	andeq	r0, r0, r4, lsl r0
  14:	00000000 	andeq	r0, r0, r0
  18:	00008010 	andeq	r8, r0, r0, lsl r0
  1c:	00000050 	andeq	r0, r0, r0, asr r0
  20:	84080e42 	strhi	r0, [r8], #-3650	; 0xe42
  24:	00018e02 	andeq	r8, r1, r2, lsl #28
  28:	00000014 	andeq	r0, r0, r4, lsl r0
  2c:	00000000 	andeq	r0, r0, r0
  30:	00008060 	andeq	r8, r0, r0, rrx
  34:	0000028c 	andeq	r0, r0, ip, lsl #5
  38:	84040e42 	strhi	r0, [r4], #-3650	; 0xe42
  3c:	00000001 	andeq	r0, r0, r1
  40:	00000024 	andeq	r0, r0, r4, lsr #32
  44:	00000000 	andeq	r0, r0, r0
  48:	000082ec 	andeq	r8, r0, ip, ror #5
  4c:	00000110 	andeq	r0, r0, r0, lsl r1
  50:	83280e42 	teqhi	r8, #1056	; 0x420
  54:	8509840a 	strhi	r8, [r9, #-1034]	; 0x40a
  58:	87078608 	strhi	r8, [r7, -r8, lsl #12]
  5c:	89058806 	stmdbhi	r5, {r1, r2, fp, pc}
  60:	8b038a04 	blhi	e2878 <__bss_end__+0xd65a0>
  64:	00018e02 	andeq	r8, r1, r2, lsl #28
  68:	00000014 	andeq	r0, r0, r4, lsl r0
  6c:	00000000 	andeq	r0, r0, r0
  70:	000083fc 	strdeq	r8, [r0], -ip
  74:	00000244 	andeq	r0, r0, r4, asr #4
  78:	83080e42 	movwhi	r0, #36418	; 0x8e42
  7c:	00018e02 	andeq	r8, r1, r2, lsl #28
  80:	00000014 	andeq	r0, r0, r4, lsl r0
  84:	00000000 	andeq	r0, r0, r0
  88:	00008640 	andeq	r8, r0, r0, asr #12
  8c:	00000200 	andeq	r0, r0, r0, lsl #4
  90:	84080e42 	strhi	r0, [r8], #-3650	; 0xe42
  94:	00018e02 	andeq	r8, r1, r2, lsl #28
  98:	0000000c 	andeq	r0, r0, ip
  9c:	ffffffff 			; <UNDEFINED> instruction: 0xffffffff
  a0:	7c020001 	stcvc	0, cr0, [r2], {1}
  a4:	000d0c0e 	andeq	r0, sp, lr, lsl #24
  a8:	0000000c 	andeq	r0, r0, ip
  ac:	00000098 	muleq	r0, r8, r0
  b0:	00008840 	andeq	r8, r0, r0, asr #16
  b4:	00000020 	andeq	r0, r0, r0, lsr #32
  b8:	0000000c 	andeq	r0, r0, ip
  bc:	ffffffff 			; <UNDEFINED> instruction: 0xffffffff
  c0:	7c020001 	stcvc	0, cr0, [r2], {1}
  c4:	000d0c0e 	andeq	r0, sp, lr, lsl #24
  c8:	00000024 	andeq	r0, r0, r4, lsr #32
  cc:	000000b8 	strheq	r0, [r0], -r8
  d0:	00008860 	andeq	r8, r0, r0, ror #16
  d4:	00000058 	andeq	r0, r0, r8, asr r0
  d8:	80100e42 	andshi	r0, r0, r2, asr #28
  dc:	82038104 	andhi	r8, r3, #4, 2
  e0:	42018302 	andmi	r8, r1, #134217728	; 0x8000000
  e4:	07841c0e 	streq	r1, [r4, lr, lsl #24]
  e8:	058e0685 	streq	r0, [lr, #1669]	; 0x685
  ec:	00280e42 	eoreq	r0, r8, r2, asr #28
  f0:	0000000c 	andeq	r0, r0, ip
  f4:	ffffffff 			; <UNDEFINED> instruction: 0xffffffff
  f8:	7c020001 	stcvc	0, cr0, [r2], {1}
  fc:	000d0c0e 	andeq	r0, sp, lr, lsl #24
 100:	00000014 	andeq	r0, r0, r4, lsl r0
 104:	000000f0 	strdeq	r0, [r0], -r0	; <UNPREDICTABLE>
 108:	000088b8 			; <UNDEFINED> instruction: 0x000088b8
 10c:	00000014 	andeq	r0, r0, r4, lsl r0
 110:	84080e42 	strhi	r0, [r8], #-3650	; 0xe42
 114:	00018e02 	andeq	r8, r1, r2, lsl #28
 118:	0000000c 	andeq	r0, r0, ip
 11c:	000000f0 	strdeq	r0, [r0], -r0	; <UNPREDICTABLE>
 120:	000088cc 	andeq	r8, r0, ip, asr #17
 124:	00000018 	andeq	r0, r0, r8, lsl r0
 128:	0000000c 	andeq	r0, r0, ip
 12c:	000000f0 	strdeq	r0, [r0], -r0	; <UNPREDICTABLE>
 130:	000088e4 	andeq	r8, r0, r4, ror #17
 134:	00000010 	andeq	r0, r0, r0, lsl r0
 138:	0000000c 	andeq	r0, r0, ip
 13c:	ffffffff 			; <UNDEFINED> instruction: 0xffffffff
 140:	7c020001 	stcvc	0, cr0, [r2], {1}
 144:	000d0c0e 	andeq	r0, sp, lr, lsl #24
 148:	00000018 	andeq	r0, r0, r8, lsl r0
 14c:	00000138 	andeq	r0, r0, r8, lsr r1
 150:	000088f4 	strdeq	r8, [r0], -r4
 154:	00000034 	andeq	r0, r0, r4, lsr r0
 158:	83100e42 	tsthi	r0, #1056	; 0x420
 15c:	85038404 	strhi	r8, [r3, #-1028]	; 0x404
 160:	00018e02 	andeq	r8, r1, r2, lsl #28
 164:	0000000c 	andeq	r0, r0, ip
 168:	ffffffff 			; <UNDEFINED> instruction: 0xffffffff
 16c:	7c020001 	stcvc	0, cr0, [r2], {1}
 170:	000d0c0e 	andeq	r0, sp, lr, lsl #24
 174:	0000000c 	andeq	r0, r0, ip
 178:	00000164 	andeq	r0, r0, r4, ror #2
 17c:	00008928 	andeq	r8, r0, r8, lsr #18
 180:	00000014 	andeq	r0, r0, r4, lsl r0
 184:	0000000c 	andeq	r0, r0, ip
 188:	00000164 	andeq	r0, r0, r4, ror #2
 18c:	0000893c 	andeq	r8, r0, ip, lsr r9
 190:	0000002c 	andeq	r0, r0, ip, lsr #32
 194:	0000000c 	andeq	r0, r0, ip
 198:	00000164 	andeq	r0, r0, r4, ror #2
 19c:	00008968 	andeq	r8, r0, r8, ror #18
 1a0:	00000040 	andeq	r0, r0, r0, asr #32
 1a4:	00000020 	andeq	r0, r0, r0, lsr #32
 1a8:	00000164 	andeq	r0, r0, r4, ror #2
 1ac:	000089a8 	andeq	r8, r0, r8, lsr #19
 1b0:	0000019c 	muleq	r0, ip, r1
 1b4:	84180e42 	ldrhi	r0, [r8], #-3650	; 0xe42
 1b8:	86058506 	strhi	r8, [r5], -r6, lsl #10
 1bc:	88038704 	stmdahi	r3, {r2, r8, r9, sl, pc}
 1c0:	42018e02 	andmi	r8, r1, #2, 28
 1c4:	0000580e 	andeq	r5, r0, lr, lsl #16
 1c8:	00000014 	andeq	r0, r0, r4, lsl r0
 1cc:	00000164 	andeq	r0, r0, r4, ror #2
 1d0:	00008b44 	andeq	r8, r0, r4, asr #22
 1d4:	00000054 	andeq	r0, r0, r4, asr r0
 1d8:	83080e42 	movwhi	r0, #36418	; 0x8e42
 1dc:	00018e02 	andeq	r8, r1, r2, lsl #28
 1e0:	00000028 	andeq	r0, r0, r8, lsr #32
 1e4:	00000164 	andeq	r0, r0, r4, ror #2
 1e8:	00008b98 	muleq	r0, r8, fp
 1ec:	00000288 	andeq	r0, r0, r8, lsl #5
 1f0:	84240e42 	strthi	r0, [r4], #-3650	; 0xe42
 1f4:	86088509 	strhi	r8, [r8], -r9, lsl #10
 1f8:	88068707 	stmdahi	r6, {r0, r1, r2, r8, r9, sl, pc}
 1fc:	8a048905 	bhi	122618 <__bss_end__+0x116340>
 200:	8e028b03 	vmlahi.f64	d8, d2, d3
 204:	b00e4201 	andlt	r4, lr, r1, lsl #4
 208:	00000001 	andeq	r0, r0, r1
 20c:	0000000c 	andeq	r0, r0, ip
 210:	ffffffff 			; <UNDEFINED> instruction: 0xffffffff
 214:	7c020001 	stcvc	0, cr0, [r2], {1}
 218:	000d0c0e 	andeq	r0, sp, lr, lsl #24
 21c:	0000000c 	andeq	r0, r0, ip
 220:	0000020c 	andeq	r0, r0, ip, lsl #4
 224:	00008e20 	andeq	r8, r0, r0, lsr #28
 228:	00000010 	andeq	r0, r0, r0, lsl r0
 22c:	0000000c 	andeq	r0, r0, ip
 230:	0000020c 	andeq	r0, r0, ip, lsl #4
 234:	00008e30 	andeq	r8, r0, r0, lsr lr
 238:	00000010 	andeq	r0, r0, r0, lsl r0
 23c:	0000000c 	andeq	r0, r0, ip
 240:	ffffffff 			; <UNDEFINED> instruction: 0xffffffff
 244:	7c020001 	stcvc	0, cr0, [r2], {1}
 248:	000d0c0e 	andeq	r0, sp, lr, lsl #24
 24c:	00000014 	andeq	r0, r0, r4, lsl r0
 250:	0000023c 	andeq	r0, r0, ip, lsr r2
 254:	00008e40 	andeq	r8, r0, r0, asr #28
 258:	00000028 	andeq	r0, r0, r8, lsr #32
 25c:	83080e42 	movwhi	r0, #36418	; 0x8e42
 260:	00018e02 	andeq	r8, r1, r2, lsl #28
 264:	0000000c 	andeq	r0, r0, ip
 268:	ffffffff 			; <UNDEFINED> instruction: 0xffffffff
 26c:	7c020001 	stcvc	0, cr0, [r2], {1}
 270:	000d0c0e 	andeq	r0, sp, lr, lsl #24
 274:	00000014 	andeq	r0, r0, r4, lsl r0
 278:	00000264 	andeq	r0, r0, r4, ror #4
 27c:	00008e68 	andeq	r8, r0, r8, ror #28
 280:	00000034 	andeq	r0, r0, r4, lsr r0
 284:	83080e42 	movwhi	r0, #36418	; 0x8e42
 288:	00018e02 	andeq	r8, r1, r2, lsl #28
 28c:	0000000c 	andeq	r0, r0, ip
 290:	ffffffff 			; <UNDEFINED> instruction: 0xffffffff
 294:	7c020001 	stcvc	0, cr0, [r2], {1}
 298:	000d0c0e 	andeq	r0, sp, lr, lsl #24
 29c:	0000000c 	andeq	r0, r0, ip
 2a0:	0000028c 	andeq	r0, r0, ip, lsl #5
 2a4:	00008e9c 	muleq	r0, ip, lr
 2a8:	00000018 	andeq	r0, r0, r8, lsl r0
 2ac:	0000000c 	andeq	r0, r0, ip
 2b0:	0000028c 	andeq	r0, r0, ip, lsl #5
 2b4:	00008eb4 			; <UNDEFINED> instruction: 0x00008eb4
 2b8:	00000014 	andeq	r0, r0, r4, lsl r0
 2bc:	00000014 	andeq	r0, r0, r4, lsl r0
 2c0:	0000028c 	andeq	r0, r0, ip, lsl #5
 2c4:	00008ec8 	andeq	r8, r0, r8, asr #29
 2c8:	00000048 	andeq	r0, r0, r8, asr #32
 2cc:	83080e42 	movwhi	r0, #36418	; 0x8e42
 2d0:	00018e02 	andeq	r8, r1, r2, lsl #28
 2d4:	0000000c 	andeq	r0, r0, ip
 2d8:	ffffffff 			; <UNDEFINED> instruction: 0xffffffff
 2dc:	7c020001 	stcvc	0, cr0, [r2], {1}
 2e0:	000d0c0e 	andeq	r0, sp, lr, lsl #24
 2e4:	0000000c 	andeq	r0, r0, ip
 2e8:	000002d4 	ldrdeq	r0, [r0], -r4
 2ec:	00008f10 	andeq	r8, r0, r0, lsl pc
 2f0:	0000001c 	andeq	r0, r0, ip, lsl r0
 2f4:	00000014 	andeq	r0, r0, r4, lsl r0
 2f8:	000002d4 	ldrdeq	r0, [r0], -r4
 2fc:	00008f2c 	andeq	r8, r0, ip, lsr #30
 300:	00000014 	andeq	r0, r0, r4, lsl r0
 304:	83080e42 	movwhi	r0, #36418	; 0x8e42
 308:	00018e02 	andeq	r8, r1, r2, lsl #28
 30c:	00000014 	andeq	r0, r0, r4, lsl r0
 310:	000002d4 	ldrdeq	r0, [r0], -r4
 314:	00008f40 	andeq	r8, r0, r0, asr #30
 318:	0000000c 	andeq	r0, r0, ip
 31c:	83080e42 	movwhi	r0, #36418	; 0x8e42
 320:	00018e02 	andeq	r8, r1, r2, lsl #28
 324:	00000018 	andeq	r0, r0, r8, lsl r0
 328:	000002d4 	ldrdeq	r0, [r0], -r4
 32c:	00008f4c 	andeq	r8, r0, ip, asr #30
 330:	00000024 	andeq	r0, r0, r4, lsr #32
 334:	83100e42 	tsthi	r0, #1056	; 0x420
 338:	85038404 	strhi	r8, [r3, #-1028]	; 0x404
 33c:	00018e02 	andeq	r8, r1, r2, lsl #28
 340:	00000014 	andeq	r0, r0, r4, lsl r0
 344:	000002d4 	ldrdeq	r0, [r0], -r4
 348:	00008f70 	andeq	r8, r0, r0, ror pc
 34c:	00000014 	andeq	r0, r0, r4, lsl r0
 350:	83080e42 	movwhi	r0, #36418	; 0x8e42
 354:	00018e02 	andeq	r8, r1, r2, lsl #28
 358:	00000014 	andeq	r0, r0, r4, lsl r0
 35c:	000002d4 	ldrdeq	r0, [r0], -r4
 360:	00008f84 	andeq	r8, r0, r4, lsl #31
 364:	00000014 	andeq	r0, r0, r4, lsl r0
 368:	83080e42 	movwhi	r0, #36418	; 0x8e42
 36c:	00018e02 	andeq	r8, r1, r2, lsl #28
 370:	0000000c 	andeq	r0, r0, ip
 374:	ffffffff 			; <UNDEFINED> instruction: 0xffffffff
 378:	7c020001 	stcvc	0, cr0, [r2], {1}
 37c:	000d0c0e 	andeq	r0, sp, lr, lsl #24
 380:	00000018 	andeq	r0, r0, r8, lsl r0
 384:	00000370 	andeq	r0, r0, r0, ror r3
 388:	00008f98 	muleq	r0, r8, pc	; <UNPREDICTABLE>
 38c:	000000d4 	ldrdeq	r0, [r0], -r4
 390:	83100e42 	tsthi	r0, #1056	; 0x420
 394:	85038404 	strhi	r8, [r3, #-1028]	; 0x404
 398:	00018e02 	andeq	r8, r1, r2, lsl #28
 39c:	00000014 	andeq	r0, r0, r4, lsl r0
 3a0:	00000370 	andeq	r0, r0, r0, ror r3
 3a4:	0000906c 	andeq	r9, r0, ip, rrx
 3a8:	00000038 	andeq	r0, r0, r8, lsr r0
 3ac:	83080e42 	movwhi	r0, #36418	; 0x8e42
 3b0:	00018e02 	andeq	r8, r1, r2, lsl #28
 3b4:	00000014 	andeq	r0, r0, r4, lsl r0
 3b8:	00000370 	andeq	r0, r0, r0, ror r3
 3bc:	000090a4 	andeq	r9, r0, r4, lsr #1
 3c0:	00000038 	andeq	r0, r0, r8, lsr r0
 3c4:	83080e42 	movwhi	r0, #36418	; 0x8e42
 3c8:	00018e02 	andeq	r8, r1, r2, lsl #28
 3cc:	00000018 	andeq	r0, r0, r8, lsl r0
 3d0:	00000370 	andeq	r0, r0, r0, ror r3
 3d4:	000090dc 	ldrdeq	r9, [r0], -ip
 3d8:	000000cc 	andeq	r0, r0, ip, asr #1
 3dc:	83100e42 	tsthi	r0, #1056	; 0x420
 3e0:	85038404 	strhi	r8, [r3, #-1028]	; 0x404
 3e4:	00018e02 	andeq	r8, r1, r2, lsl #28
 3e8:	00000014 	andeq	r0, r0, r4, lsl r0
 3ec:	00000370 	andeq	r0, r0, r0, ror r3
 3f0:	000091a8 	andeq	r9, r0, r8, lsr #3
 3f4:	0000004c 	andeq	r0, r0, ip, asr #32
 3f8:	84080e42 	strhi	r0, [r8], #-3650	; 0xe42
 3fc:	00018e02 	andeq	r8, r1, r2, lsl #28
 400:	00000014 	andeq	r0, r0, r4, lsl r0
 404:	00000370 	andeq	r0, r0, r0, ror r3
 408:	000091f4 	strdeq	r9, [r0], -r4
 40c:	00000024 	andeq	r0, r0, r4, lsr #32
 410:	83080e42 	movwhi	r0, #36418	; 0x8e42
 414:	00018e02 	andeq	r8, r1, r2, lsl #28
 418:	00000018 	andeq	r0, r0, r8, lsl r0
 41c:	00000370 	andeq	r0, r0, r0, ror r3
 420:	00009218 	andeq	r9, r0, r8, lsl r2
 424:	000000d8 	ldrdeq	r0, [r0], -r8
 428:	84100e42 	ldrhi	r0, [r0], #-3650	; 0xe42
 42c:	86038504 	strhi	r8, [r3], -r4, lsl #10
 430:	00018e02 	andeq	r8, r1, r2, lsl #28
 434:	00000014 	andeq	r0, r0, r4, lsl r0
 438:	00000370 	andeq	r0, r0, r0, ror r3
 43c:	000092f0 	strdeq	r9, [r0], -r0
 440:	00000038 	andeq	r0, r0, r8, lsr r0
 444:	83080e42 	movwhi	r0, #36418	; 0x8e42
 448:	00018e02 	andeq	r8, r1, r2, lsl #28
 44c:	00000014 	andeq	r0, r0, r4, lsl r0
 450:	00000370 	andeq	r0, r0, r0, ror r3
 454:	00009328 	andeq	r9, r0, r8, lsr #6
 458:	0000002c 	andeq	r0, r0, ip, lsr #32
 45c:	83080e42 	movwhi	r0, #36418	; 0x8e42
 460:	00018e02 	andeq	r8, r1, r2, lsl #28
 464:	00000018 	andeq	r0, r0, r8, lsl r0
 468:	00000370 	andeq	r0, r0, r0, ror r3
 46c:	00009354 	andeq	r9, r0, r4, asr r3
 470:	00000084 	andeq	r0, r0, r4, lsl #1
 474:	83100e42 	tsthi	r0, #1056	; 0x420
 478:	85038404 	strhi	r8, [r3, #-1028]	; 0x404
 47c:	00018e02 	andeq	r8, r1, r2, lsl #28
 480:	00000018 	andeq	r0, r0, r8, lsl r0
 484:	00000370 	andeq	r0, r0, r0, ror r3
 488:	000093d8 	ldrdeq	r9, [r0], -r8
 48c:	00000084 	andeq	r0, r0, r4, lsl #1
 490:	83100e42 	tsthi	r0, #1056	; 0x420
 494:	85038404 	strhi	r8, [r3, #-1028]	; 0x404
 498:	00018e02 	andeq	r8, r1, r2, lsl #28
 49c:	00000014 	andeq	r0, r0, r4, lsl r0
 4a0:	00000370 	andeq	r0, r0, r0, ror r3
 4a4:	0000945c 	andeq	r9, r0, ip, asr r4
 4a8:	00000084 	andeq	r0, r0, r4, lsl #1
 4ac:	84080e42 	strhi	r0, [r8], #-3650	; 0xe42
 4b0:	00018e02 	andeq	r8, r1, r2, lsl #28
 4b4:	00000014 	andeq	r0, r0, r4, lsl r0
 4b8:	00000370 	andeq	r0, r0, r0, ror r3
 4bc:	000094e0 	andeq	r9, r0, r0, ror #9
 4c0:	00000058 	andeq	r0, r0, r8, asr r0
 4c4:	84080e42 	strhi	r0, [r8], #-3650	; 0xe42
 4c8:	00018e02 	andeq	r8, r1, r2, lsl #28
 4cc:	0000000c 	andeq	r0, r0, ip
 4d0:	ffffffff 			; <UNDEFINED> instruction: 0xffffffff
 4d4:	7c020001 	stcvc	0, cr0, [r2], {1}
 4d8:	000d0c0e 	andeq	r0, sp, lr, lsl #24
 4dc:	00000018 	andeq	r0, r0, r8, lsl r0
 4e0:	000004cc 	andeq	r0, r0, ip, asr #9
 4e4:	00009538 	andeq	r9, r0, r8, lsr r5
 4e8:	0000009c 	muleq	r0, ip, r0
 4ec:	83100e42 	tsthi	r0, #1056	; 0x420
 4f0:	85038404 	strhi	r8, [r3, #-1028]	; 0x404
 4f4:	00018e02 	andeq	r8, r1, r2, lsl #28
 4f8:	00000014 	andeq	r0, r0, r4, lsl r0
 4fc:	000004cc 	andeq	r0, r0, ip, asr #9
 500:	000095d4 	ldrdeq	r9, [r0], -r4
 504:	0000001c 	andeq	r0, r0, ip, lsl r0
 508:	83080e42 	movwhi	r0, #36418	; 0x8e42
 50c:	00018e02 	andeq	r8, r1, r2, lsl #28
 510:	00000014 	andeq	r0, r0, r4, lsl r0
 514:	000004cc 	andeq	r0, r0, ip, asr #9
 518:	000095f0 	strdeq	r9, [r0], -r0
 51c:	00000028 	andeq	r0, r0, r8, lsr #32
 520:	83080e42 	movwhi	r0, #36418	; 0x8e42
 524:	00018e02 	andeq	r8, r1, r2, lsl #28
 528:	00000014 	andeq	r0, r0, r4, lsl r0
 52c:	000004cc 	andeq	r0, r0, ip, asr #9
 530:	00009618 	andeq	r9, r0, r8, lsl r6
 534:	0000001c 	andeq	r0, r0, ip, lsl r0
 538:	83080e42 	movwhi	r0, #36418	; 0x8e42
 53c:	00018e02 	andeq	r8, r1, r2, lsl #28
 540:	00000014 	andeq	r0, r0, r4, lsl r0
 544:	000004cc 	andeq	r0, r0, ip, asr #9
 548:	00009634 	andeq	r9, r0, r4, lsr r6
 54c:	0000002c 	andeq	r0, r0, ip, lsr #32
 550:	84080e42 	strhi	r0, [r8], #-3650	; 0xe42
 554:	00018e02 	andeq	r8, r1, r2, lsl #28
 558:	00000014 	andeq	r0, r0, r4, lsl r0
 55c:	000004cc 	andeq	r0, r0, ip, asr #9
 560:	00009660 	andeq	r9, r0, r0, ror #12
 564:	0000000c 	andeq	r0, r0, ip
 568:	83080e42 	movwhi	r0, #36418	; 0x8e42
 56c:	00018e02 	andeq	r8, r1, r2, lsl #28
 570:	00000014 	andeq	r0, r0, r4, lsl r0
 574:	000004cc 	andeq	r0, r0, ip, asr #9
 578:	0000966c 	andeq	r9, r0, ip, ror #12
 57c:	00000020 	andeq	r0, r0, r0, lsr #32
 580:	83080e42 	movwhi	r0, #36418	; 0x8e42
 584:	00018e02 	andeq	r8, r1, r2, lsl #28
 588:	0000000c 	andeq	r0, r0, ip
 58c:	ffffffff 			; <UNDEFINED> instruction: 0xffffffff
 590:	7c020001 	stcvc	0, cr0, [r2], {1}
 594:	000d0c0e 	andeq	r0, sp, lr, lsl #24
 598:	00000014 	andeq	r0, r0, r4, lsl r0
 59c:	00000588 	andeq	r0, r0, r8, lsl #11
 5a0:	0000968c 	andeq	r9, r0, ip, lsl #13
 5a4:	00000068 	andeq	r0, r0, r8, rrx
 5a8:	83080e42 	movwhi	r0, #36418	; 0x8e42
 5ac:	00018e02 	andeq	r8, r1, r2, lsl #28
 5b0:	00000014 	andeq	r0, r0, r4, lsl r0
 5b4:	00000588 	andeq	r0, r0, r8, lsl #11
 5b8:	000096f4 	strdeq	r9, [r0], -r4
 5bc:	00000044 	andeq	r0, r0, r4, asr #32
 5c0:	8e040e42 	cdphi	14, 0, cr0, cr4, cr2, {2}
 5c4:	100e4201 	andne	r4, lr, r1, lsl #4
 5c8:	0000000c 	andeq	r0, r0, ip
 5cc:	ffffffff 			; <UNDEFINED> instruction: 0xffffffff
 5d0:	7c020001 	stcvc	0, cr0, [r2], {1}
 5d4:	000d0c0e 	andeq	r0, sp, lr, lsl #24
 5d8:	00000014 	andeq	r0, r0, r4, lsl r0
 5dc:	000005c8 	andeq	r0, r0, r8, asr #11
 5e0:	00009888 	andeq	r9, r0, r8, lsl #17
 5e4:	00000044 	andeq	r0, r0, r4, asr #32
 5e8:	8e040e42 	cdphi	14, 0, cr0, cr4, cr2, {2}
 5ec:	100e4201 	andne	r4, lr, r1, lsl #4
 5f0:	0000000c 	andeq	r0, r0, ip
 5f4:	ffffffff 			; <UNDEFINED> instruction: 0xffffffff
 5f8:	7c020001 	stcvc	0, cr0, [r2], {1}
 5fc:	000d0c0e 	andeq	r0, sp, lr, lsl #24
 600:	00000014 	andeq	r0, r0, r4, lsl r0
 604:	000005f0 	strdeq	r0, [r0], -r0	; <UNPREDICTABLE>
 608:	000098cc 	andeq	r9, r0, ip, asr #17
 60c:	00000044 	andeq	r0, r0, r4, asr #32
 610:	8e040e42 	cdphi	14, 0, cr0, cr4, cr2, {2}
 614:	100e4201 	andne	r4, lr, r1, lsl #4
 618:	0000000c 	andeq	r0, r0, ip
 61c:	ffffffff 			; <UNDEFINED> instruction: 0xffffffff
 620:	7c020001 	stcvc	0, cr0, [r2], {1}
 624:	000d0c0e 	andeq	r0, sp, lr, lsl #24
 628:	00000014 	andeq	r0, r0, r4, lsl r0
 62c:	00000618 	andeq	r0, r0, r8, lsl r6
 630:	00009910 	andeq	r9, r0, r0, lsl r9
 634:	00000044 	andeq	r0, r0, r4, asr #32
 638:	8e040e42 	cdphi	14, 0, cr0, cr4, cr2, {2}
 63c:	100e4201 	andne	r4, lr, r1, lsl #4
 640:	0000000c 	andeq	r0, r0, ip
 644:	ffffffff 			; <UNDEFINED> instruction: 0xffffffff
 648:	7c020001 	stcvc	0, cr0, [r2], {1}
 64c:	000d0c0e 	andeq	r0, sp, lr, lsl #24
 650:	00000014 	andeq	r0, r0, r4, lsl r0
 654:	00000640 	andeq	r0, r0, r0, asr #12
 658:	00009954 	andeq	r9, r0, r4, asr r9
 65c:	00000044 	andeq	r0, r0, r4, asr #32
 660:	8e040e42 	cdphi	14, 0, cr0, cr4, cr2, {2}
 664:	100e4201 	andne	r4, lr, r1, lsl #4
