
scope.elf:     file format elf32-littlearm


Disassembly of section .text:

00008000 <_start>:
    8000:	e3a0d302 	mov	sp, #134217728	; 0x8000000
    8004:	e3a0b000 	mov	fp, #0
    8008:	eb0002b9 	bl	8af4 <_cstart>
    800c:	eb0002e7 	bl	8bb0 <rpi_reboot>

00008010 <cycles_per_sec>:
    8010:	e3500001 	cmp	r0, #1
    8014:	e92d4010 	push	{r4, lr}
    8018:	8a000006 	bhi	8038 <cycles_per_sec+0x28>
    801c:	ee1f4f3c 	mrc	15, 0, r4, cr15, cr12, {1}
    8020:	e3a03ffa 	mov	r3, #1000	; 0x3e8
    8024:	e0000093 	mul	r0, r3, r0
    8028:	eb00030a 	bl	8c58 <delay_ms>
    802c:	ee1f0f3c 	mrc	15, 0, r0, cr15, cr12, {1}
    8030:	e0640000 	rsb	r0, r4, r0
    8034:	e8bd8010 	pop	{r4, pc}
    8038:	eb000133 	bl	850c <rpi_reset_putc>
    803c:	e59f1010 	ldr	r1, [pc, #16]	; 8054 <cycles_per_sec+0x44>
    8040:	e59f2010 	ldr	r2, [pc, #16]	; 8058 <cycles_per_sec+0x48>
    8044:	e3a0303a 	mov	r3, #58	; 0x3a
    8048:	e59f000c 	ldr	r0, [pc, #12]	; 805c <cycles_per_sec+0x4c>
    804c:	eb000113 	bl	84a0 <printk>
    8050:	eb000295 	bl	8aac <clean_reboot>
    8054:	00009b8c 	andeq	r9, r0, ip, lsl #23
    8058:	00009b4c 	andeq	r9, r0, ip, asr #22
    805c:	00009b5c 	andeq	r9, r0, ip, asr fp

00008060 <scope>:
    8060:	e92d03f0 	push	{r4, r5, r6, r7, r8, r9}
    8064:	e59f2168 	ldr	r2, [pc, #360]	; 81d4 <scope+0x174>
    8068:	e5923034 	ldr	r3, [r2, #52]	; 0x34
    806c:	e3130601 	tst	r3, #1048576	; 0x100000
    8070:	1afffffc 	bne	8068 <scope+0x8>
    8074:	ee1f3f3c 	mrc	15, 0, r3, cr15, cr12, {1}
    8078:	e59f1158 	ldr	r1, [pc, #344]	; 81d8 <scope+0x178>
    807c:	ee1f2f3c 	mrc	15, 0, r2, cr15, cr12, {1}
    8080:	e0632002 	rsb	r2, r3, r2
    8084:	e1520001 	cmp	r2, r1
    8088:	9afffffb 	bls	807c <scope+0x1c>
    808c:	e59f2140 	ldr	r2, [pc, #320]	; 81d4 <scope+0x174>
    8090:	e59f1144 	ldr	r1, [pc, #324]	; 81dc <scope+0x17c>
    8094:	e5924034 	ldr	r4, [r2, #52]	; 0x34
    8098:	e2044601 	and	r4, r4, #1048576	; 0x100000
    809c:	e1a04a24 	lsr	r4, r4, #20
    80a0:	ee1f2f3c 	mrc	15, 0, r2, cr15, cr12, {1}
    80a4:	e0632002 	rsb	r2, r3, r2
    80a8:	e1520001 	cmp	r2, r1
    80ac:	9afffffb 	bls	80a0 <scope+0x40>
    80b0:	e59f211c 	ldr	r2, [pc, #284]	; 81d4 <scope+0x174>
    80b4:	e59f1124 	ldr	r1, [pc, #292]	; 81e0 <scope+0x180>
    80b8:	e5925034 	ldr	r5, [r2, #52]	; 0x34
    80bc:	e2055601 	and	r5, r5, #1048576	; 0x100000
    80c0:	e1a05a25 	lsr	r5, r5, #20
    80c4:	ee1f2f3c 	mrc	15, 0, r2, cr15, cr12, {1}
    80c8:	e0632002 	rsb	r2, r3, r2
    80cc:	e1520001 	cmp	r2, r1
    80d0:	9afffffb 	bls	80c4 <scope+0x64>
    80d4:	e59f20f8 	ldr	r2, [pc, #248]	; 81d4 <scope+0x174>
    80d8:	e59f1104 	ldr	r1, [pc, #260]	; 81e4 <scope+0x184>
    80dc:	e5926034 	ldr	r6, [r2, #52]	; 0x34
    80e0:	e2066601 	and	r6, r6, #1048576	; 0x100000
    80e4:	e1a06a26 	lsr	r6, r6, #20
    80e8:	ee1f2f3c 	mrc	15, 0, r2, cr15, cr12, {1}
    80ec:	e0632002 	rsb	r2, r3, r2
    80f0:	e1520001 	cmp	r2, r1
    80f4:	9afffffb 	bls	80e8 <scope+0x88>
    80f8:	e59f20d4 	ldr	r2, [pc, #212]	; 81d4 <scope+0x174>
    80fc:	e59f10e4 	ldr	r1, [pc, #228]	; 81e8 <scope+0x188>
    8100:	e592c034 	ldr	ip, [r2, #52]	; 0x34
    8104:	e20cc601 	and	ip, ip, #1048576	; 0x100000
    8108:	e1a0ca2c 	lsr	ip, ip, #20
    810c:	ee1f2f3c 	mrc	15, 0, r2, cr15, cr12, {1}
    8110:	e0632002 	rsb	r2, r3, r2
    8114:	e1520001 	cmp	r2, r1
    8118:	9afffffb 	bls	810c <scope+0xac>
    811c:	e59f20b0 	ldr	r2, [pc, #176]	; 81d4 <scope+0x174>
    8120:	e59f00c4 	ldr	r0, [pc, #196]	; 81ec <scope+0x18c>
    8124:	e5921034 	ldr	r1, [r2, #52]	; 0x34
    8128:	e2011601 	and	r1, r1, #1048576	; 0x100000
    812c:	e1a01a21 	lsr	r1, r1, #20
    8130:	ee1f2f3c 	mrc	15, 0, r2, cr15, cr12, {1}
    8134:	e0632002 	rsb	r2, r3, r2
    8138:	e1520000 	cmp	r2, r0
    813c:	9afffffb 	bls	8130 <scope+0xd0>
    8140:	e59f208c 	ldr	r2, [pc, #140]	; 81d4 <scope+0x174>
    8144:	e59f00a4 	ldr	r0, [pc, #164]	; 81f0 <scope+0x190>
    8148:	e5927034 	ldr	r7, [r2, #52]	; 0x34
    814c:	e2077601 	and	r7, r7, #1048576	; 0x100000
    8150:	e1a07a27 	lsr	r7, r7, #20
    8154:	ee1f2f3c 	mrc	15, 0, r2, cr15, cr12, {1}
    8158:	e0632002 	rsb	r2, r3, r2
    815c:	e1520000 	cmp	r2, r0
    8160:	9afffffb 	bls	8154 <scope+0xf4>
    8164:	e59f2068 	ldr	r2, [pc, #104]	; 81d4 <scope+0x174>
    8168:	e59f0084 	ldr	r0, [pc, #132]	; 81f4 <scope+0x194>
    816c:	e5929034 	ldr	r9, [r2, #52]	; 0x34
    8170:	e2099601 	and	r9, r9, #1048576	; 0x100000
    8174:	e1a09a29 	lsr	r9, r9, #20
    8178:	ee1f2f3c 	mrc	15, 0, r2, cr15, cr12, {1}
    817c:	e0632002 	rsb	r2, r3, r2
    8180:	e1520000 	cmp	r2, r0
    8184:	9afffffb 	bls	8178 <scope+0x118>
    8188:	e59f2044 	ldr	r2, [pc, #68]	; 81d4 <scope+0x174>
    818c:	e59f8064 	ldr	r8, [pc, #100]	; 81f8 <scope+0x198>
    8190:	e5920034 	ldr	r0, [r2, #52]	; 0x34
    8194:	e2000601 	and	r0, r0, #1048576	; 0x100000
    8198:	e1a00a20 	lsr	r0, r0, #20
    819c:	ee1f2f3c 	mrc	15, 0, r2, cr15, cr12, {1}
    81a0:	e0632002 	rsb	r2, r3, r2
    81a4:	e1520008 	cmp	r2, r8
    81a8:	9afffffb 	bls	819c <scope+0x13c>
    81ac:	e1a06106 	lsl	r6, r6, #2
    81b0:	e1865085 	orr	r5, r6, r5, lsl #1
    81b4:	e1854004 	orr	r4, r5, r4
    81b8:	e184c18c 	orr	ip, r4, ip, lsl #3
    81bc:	e18c1201 	orr	r1, ip, r1, lsl #4
    81c0:	e1817287 	orr	r7, r1, r7, lsl #5
    81c4:	e1879309 	orr	r9, r7, r9, lsl #6
    81c8:	e1890380 	orr	r0, r9, r0, lsl #7
    81cc:	e8bd03f0 	pop	{r4, r5, r6, r7, r8, r9}
    81d0:	e12fff1e 	bx	lr
    81d4:	20200000 	eorcs	r0, r0, r0
    81d8:	00002399 	muleq	r0, r9, r3
    81dc:	00002f77 	andeq	r2, r0, r7, ror pc
    81e0:	00004733 	andeq	r4, r0, r3, lsr r7
    81e4:	00005eef 	andeq	r5, r0, pc, ror #29
    81e8:	000076ab 	andeq	r7, r0, fp, lsr #13
    81ec:	00008e67 	andeq	r8, r0, r7, ror #28
    81f0:	0000a623 	andeq	sl, r0, r3, lsr #12
    81f4:	0000bddf 	ldrdeq	fp, [r0], -pc	; <UNPREDICTABLE>
    81f8:	0000d59b 	muleq	r0, fp, r5

000081fc <test_gen>:
    81fc:	e92d0070 	push	{r4, r5, r6}
    8200:	ee1f3f3c 	mrc	15, 0, r3, cr15, cr12, {1}
    8204:	e3a0c001 	mov	ip, #1
    8208:	e1a0001c 	lsl	r0, ip, r0
    820c:	e59fc1f0 	ldr	ip, [pc, #496]	; 8404 <test_gen+0x208>
    8210:	e59c4028 	ldr	r4, [ip, #40]	; 0x28
    8214:	e1804004 	orr	r4, r0, r4
    8218:	e58c4028 	str	r4, [ip, #40]	; 0x28
    821c:	ee1fcf3c 	mrc	15, 0, ip, cr15, cr12, {1}
    8220:	e063c00c 	rsb	ip, r3, ip
    8224:	e15c0002 	cmp	ip, r2
    8228:	3afffffb 	bcc	821c <test_gen+0x20>
    822c:	e59fc1d0 	ldr	ip, [pc, #464]	; 8404 <test_gen+0x208>
    8230:	e3110001 	tst	r1, #1
    8234:	159c401c 	ldrne	r4, [ip, #28]
    8238:	059c4028 	ldreq	r4, [ip, #40]	; 0x28
    823c:	11804004 	orrne	r4, r0, r4
    8240:	01804004 	orreq	r4, r0, r4
    8244:	158c401c 	strne	r4, [ip, #28]
    8248:	058c4028 	streq	r4, [ip, #40]	; 0x28
    824c:	e1a05082 	lsl	r5, r2, #1
    8250:	ee1fcf3c 	mrc	15, 0, ip, cr15, cr12, {1}
    8254:	e063c00c 	rsb	ip, r3, ip
    8258:	e15c0005 	cmp	ip, r5
    825c:	3afffffb 	bcc	8250 <test_gen+0x54>
    8260:	e59fc19c 	ldr	ip, [pc, #412]	; 8404 <test_gen+0x208>
    8264:	e3110002 	tst	r1, #2
    8268:	159c401c 	ldrne	r4, [ip, #28]
    826c:	059c4028 	ldreq	r4, [ip, #40]	; 0x28
    8270:	11804004 	orrne	r4, r0, r4
    8274:	01804004 	orreq	r4, r0, r4
    8278:	158c401c 	strne	r4, [ip, #28]
    827c:	058c4028 	streq	r4, [ip, #40]	; 0x28
    8280:	e0854002 	add	r4, r5, r2
    8284:	ee1fcf3c 	mrc	15, 0, ip, cr15, cr12, {1}
    8288:	e063c00c 	rsb	ip, r3, ip
    828c:	e15c0004 	cmp	ip, r4
    8290:	3afffffb 	bcc	8284 <test_gen+0x88>
    8294:	e59fc168 	ldr	ip, [pc, #360]	; 8404 <test_gen+0x208>
    8298:	e3110004 	tst	r1, #4
    829c:	159c401c 	ldrne	r4, [ip, #28]
    82a0:	059c4028 	ldreq	r4, [ip, #40]	; 0x28
    82a4:	11804004 	orrne	r4, r0, r4
    82a8:	01804004 	orreq	r4, r0, r4
    82ac:	158c401c 	strne	r4, [ip, #28]
    82b0:	058c4028 	streq	r4, [ip, #40]	; 0x28
    82b4:	e1a04102 	lsl	r4, r2, #2
    82b8:	ee1fcf3c 	mrc	15, 0, ip, cr15, cr12, {1}
    82bc:	e063c00c 	rsb	ip, r3, ip
    82c0:	e15c0004 	cmp	ip, r4
    82c4:	3afffffb 	bcc	82b8 <test_gen+0xbc>
    82c8:	e59fc134 	ldr	ip, [pc, #308]	; 8404 <test_gen+0x208>
    82cc:	e3110008 	tst	r1, #8
    82d0:	159c601c 	ldrne	r6, [ip, #28]
    82d4:	059c6028 	ldreq	r6, [ip, #40]	; 0x28
    82d8:	11806006 	orrne	r6, r0, r6
    82dc:	01806006 	orreq	r6, r0, r6
    82e0:	158c601c 	strne	r6, [ip, #28]
    82e4:	058c6028 	streq	r6, [ip, #40]	; 0x28
    82e8:	e0846002 	add	r6, r4, r2
    82ec:	ee1fcf3c 	mrc	15, 0, ip, cr15, cr12, {1}
    82f0:	e063c00c 	rsb	ip, r3, ip
    82f4:	e15c0006 	cmp	ip, r6
    82f8:	3afffffb 	bcc	82ec <test_gen+0xf0>
    82fc:	e59fc100 	ldr	ip, [pc, #256]	; 8404 <test_gen+0x208>
    8300:	e3110010 	tst	r1, #16
    8304:	159c601c 	ldrne	r6, [ip, #28]
    8308:	059c6028 	ldreq	r6, [ip, #40]	; 0x28
    830c:	11806006 	orrne	r6, r0, r6
    8310:	01806006 	orreq	r6, r0, r6
    8314:	e0855002 	add	r5, r5, r2
    8318:	158c601c 	strne	r6, [ip, #28]
    831c:	058c6028 	streq	r6, [ip, #40]	; 0x28
    8320:	e1a05085 	lsl	r5, r5, #1
    8324:	ee1fcf3c 	mrc	15, 0, ip, cr15, cr12, {1}
    8328:	e063c00c 	rsb	ip, r3, ip
    832c:	e15c0005 	cmp	ip, r5
    8330:	3afffffb 	bcc	8324 <test_gen+0x128>
    8334:	e59fc0c8 	ldr	ip, [pc, #200]	; 8404 <test_gen+0x208>
    8338:	e3110020 	tst	r1, #32
    833c:	159c501c 	ldrne	r5, [ip, #28]
    8340:	059c5028 	ldreq	r5, [ip, #40]	; 0x28
    8344:	11805005 	orrne	r5, r0, r5
    8348:	01805005 	orreq	r5, r0, r5
    834c:	158c501c 	strne	r5, [ip, #28]
    8350:	058c5028 	streq	r5, [ip, #40]	; 0x28
    8354:	e1a05182 	lsl	r5, r2, #3
    8358:	e0626005 	rsb	r6, r2, r5
    835c:	ee1fcf3c 	mrc	15, 0, ip, cr15, cr12, {1}
    8360:	e063c00c 	rsb	ip, r3, ip
    8364:	e15c0006 	cmp	ip, r6
    8368:	3afffffb 	bcc	835c <test_gen+0x160>
    836c:	e59fc090 	ldr	ip, [pc, #144]	; 8404 <test_gen+0x208>
    8370:	e3110040 	tst	r1, #64	; 0x40
    8374:	159c601c 	ldrne	r6, [ip, #28]
    8378:	059c6028 	ldreq	r6, [ip, #40]	; 0x28
    837c:	11806006 	orrne	r6, r0, r6
    8380:	01806006 	orreq	r6, r0, r6
    8384:	158c601c 	strne	r6, [ip, #28]
    8388:	058c6028 	streq	r6, [ip, #40]	; 0x28
    838c:	ee1fcf3c 	mrc	15, 0, ip, cr15, cr12, {1}
    8390:	e063c00c 	rsb	ip, r3, ip
    8394:	e15c0005 	cmp	ip, r5
    8398:	3afffffb 	bcc	838c <test_gen+0x190>
    839c:	e3110080 	tst	r1, #128	; 0x80
    83a0:	e59f105c 	ldr	r1, [pc, #92]	; 8404 <test_gen+0x208>
    83a4:	e0855002 	add	r5, r5, r2
    83a8:	1591c01c 	ldrne	ip, [r1, #28]
    83ac:	0591c028 	ldreq	ip, [r1, #40]	; 0x28
    83b0:	1180c00c 	orrne	ip, r0, ip
    83b4:	0180c00c 	orreq	ip, r0, ip
    83b8:	1581c01c 	strne	ip, [r1, #28]
    83bc:	0581c028 	streq	ip, [r1, #40]	; 0x28
    83c0:	ee1f1f3c 	mrc	15, 0, r1, cr15, cr12, {1}
    83c4:	e0631001 	rsb	r1, r3, r1
    83c8:	e1510005 	cmp	r1, r5
    83cc:	3afffffb 	bcc	83c0 <test_gen+0x1c4>
    83d0:	e59f102c 	ldr	r1, [pc, #44]	; 8404 <test_gen+0x208>
    83d4:	e0844002 	add	r4, r4, r2
    83d8:	e591c01c 	ldr	ip, [r1, #28]
    83dc:	e1a04084 	lsl	r4, r4, #1
    83e0:	e180000c 	orr	r0, r0, ip
    83e4:	e581001c 	str	r0, [r1, #28]
    83e8:	ee1f2f3c 	mrc	15, 0, r2, cr15, cr12, {1}
    83ec:	e0632002 	rsb	r2, r3, r2
    83f0:	e1520004 	cmp	r2, r4
    83f4:	3afffffb 	bcc	83e8 <test_gen+0x1ec>
    83f8:	ee1f3f3c 	mrc	15, 0, r3, cr15, cr12, {1}
    83fc:	e8bd0070 	pop	{r4, r5, r6}
    8400:	e12fff1e 	bx	lr
    8404:	20200000 	eorcs	r0, r0, r0

00008408 <notmain>:
    8408:	e92d4070 	push	{r4, r5, r6, lr}
    840c:	e3a00015 	mov	r0, #21
    8410:	eb00021a 	bl	8c80 <gpio_set_output>
    8414:	e3a00014 	mov	r0, #20
    8418:	eb000269 	bl	8dc4 <gpio_set_input>
    841c:	eb00019a 	bl	8a8c <enable_cache>
    8420:	e59f3068 	ldr	r3, [pc, #104]	; 8490 <notmain+0x88>
    8424:	e3a02001 	mov	r2, #1
    8428:	e593101c 	ldr	r1, [r3, #28]
    842c:	e3811602 	orr	r1, r1, #2097152	; 0x200000
    8430:	e583101c 	str	r1, [r3, #28]
    8434:	ee0f2f1c 	mcr	15, 0, r2, cr15, cr12, {0}
    8438:	e59f0054 	ldr	r0, [pc, #84]	; 8494 <notmain+0x8c>
    843c:	eb000017 	bl	84a0 <printk>
    8440:	e3a05000 	mov	r5, #0
    8444:	e3a00014 	mov	r0, #20
    8448:	ebffff04 	bl	8060 <scope>
    844c:	e1500005 	cmp	r0, r5
    8450:	e1a04000 	mov	r4, r0
    8454:	1afffffa 	bne	8444 <notmain+0x3c>
    8458:	e3a00001 	mov	r0, #1
    845c:	e0856000 	add	r6, r5, r0
    8460:	eb0001fc 	bl	8c58 <delay_ms>
    8464:	e6ef1076 	uxtb	r1, r6
    8468:	e3a00015 	mov	r0, #21
    846c:	e59f2024 	ldr	r2, [pc, #36]	; 8498 <notmain+0x90>
    8470:	ebffff61 	bl	81fc <test_gen>
    8474:	e35600fd 	cmp	r6, #253	; 0xfd
    8478:	e2855002 	add	r5, r5, #2
    847c:	9afffff0 	bls	8444 <notmain+0x3c>
    8480:	e1a01004 	mov	r1, r4
    8484:	e59f0010 	ldr	r0, [pc, #16]	; 849c <notmain+0x94>
    8488:	eb000004 	bl	84a0 <printk>
    848c:	eb000186 	bl	8aac <clean_reboot>
    8490:	20200000 	eorcs	r0, r0, r0
    8494:	00009b94 	muleq	r0, r4, fp
    8498:	000017bc 			; <UNDEFINED> instruction: 0x000017bc
    849c:	00009bb0 			; <UNDEFINED> instruction: 0x00009bb0

000084a0 <printk>:
    84a0:	e92d000f 	push	{r0, r1, r2, r3}
    84a4:	e92d4030 	push	{r4, r5, lr}
    84a8:	e24dd00c 	sub	sp, sp, #12
    84ac:	e28d301c 	add	r3, sp, #28
    84b0:	e58d3004 	str	r3, [sp, #4]
    84b4:	e59f4034 	ldr	r4, [pc, #52]	; 84f0 <printk+0x50>
    84b8:	e1a00004 	mov	r0, r4
    84bc:	e3a01b01 	mov	r1, #1024	; 0x400
    84c0:	e59d2018 	ldr	r2, [sp, #24]
    84c4:	eb0000cb 	bl	87f8 <va_printk>
    84c8:	e1a05000 	mov	r5, r0
    84cc:	e59f3020 	ldr	r3, [pc, #32]	; 84f4 <printk+0x54>
    84d0:	e5933000 	ldr	r3, [r3]
    84d4:	e1a00004 	mov	r0, r4
    84d8:	e12fff33 	blx	r3
    84dc:	e1a00005 	mov	r0, r5
    84e0:	e28dd00c 	add	sp, sp, #12
    84e4:	e8bd4030 	pop	{r4, r5, lr}
    84e8:	e28dd010 	add	sp, sp, #16
    84ec:	e12fff1e 	bx	lr
    84f0:	00009e08 	andeq	r9, r0, r8, lsl #28
    84f4:	00009ab4 			; <UNDEFINED> instruction: 0x00009ab4

000084f8 <internal_putchar>:
    84f8:	e92d4010 	push	{r4, lr}
    84fc:	e1a04000 	mov	r4, r0
    8500:	eb00051f 	bl	9984 <uart_putc>
    8504:	e1a00004 	mov	r0, r4
    8508:	e8bd8010 	pop	{r4, pc}

0000850c <rpi_reset_putc>:
    850c:	e59f2008 	ldr	r2, [pc, #8]	; 851c <rpi_reset_putc+0x10>
    8510:	e59f3008 	ldr	r3, [pc, #8]	; 8520 <rpi_reset_putc+0x14>
    8514:	e5832000 	str	r2, [r3]
    8518:	e12fff1e 	bx	lr
    851c:	000084f8 	strdeq	r8, [r0], -r8	; <UNPREDICTABLE>
    8520:	00009ab0 			; <UNDEFINED> instruction: 0x00009ab0

00008524 <rpi_set_putc>:
    8524:	e59f3004 	ldr	r3, [pc, #4]	; 8530 <rpi_set_putc+0xc>
    8528:	e5830000 	str	r0, [r3]
    852c:	e12fff1e 	bx	lr
    8530:	00009ab0 			; <UNDEFINED> instruction: 0x00009ab0

00008534 <internal_putk>:
    8534:	e92d4038 	push	{r3, r4, r5, lr}
    8538:	e1a04000 	mov	r4, r0
    853c:	e59f5020 	ldr	r5, [pc, #32]	; 8564 <internal_putk+0x30>
    8540:	ea000002 	b	8550 <internal_putk+0x1c>
    8544:	e5953000 	ldr	r3, [r5]
    8548:	e12fff33 	blx	r3
    854c:	e2844001 	add	r4, r4, #1
    8550:	e5d40000 	ldrb	r0, [r4]
    8554:	e3500000 	cmp	r0, #0
    8558:	1afffff9 	bne	8544 <internal_putk+0x10>
    855c:	e3a00001 	mov	r0, #1
    8560:	e8bd8038 	pop	{r3, r4, r5, pc}
    8564:	00009ab0 			; <UNDEFINED> instruction: 0x00009ab0

00008568 <isdigit>:
    8568:	e2400030 	sub	r0, r0, #48	; 0x30
    856c:	e3500009 	cmp	r0, #9
    8570:	83a00000 	movhi	r0, #0
    8574:	93a00001 	movls	r0, #1
    8578:	e12fff1e 	bx	lr

0000857c <pad>:
    857c:	e0611000 	rsb	r1, r1, r0
    8580:	e3a03020 	mov	r3, #32
    8584:	ea000002 	b	8594 <pad+0x18>
    8588:	e5c03000 	strb	r3, [r0]
    858c:	e2811001 	add	r1, r1, #1
    8590:	e2800001 	add	r0, r0, #1
    8594:	e1510002 	cmp	r1, r2
    8598:	bafffffa 	blt	8588 <pad+0xc>
    859c:	e3a03000 	mov	r3, #0
    85a0:	e5c03000 	strb	r3, [r0]
    85a4:	e12fff1e 	bx	lr

000085a8 <reverse>:
    85a8:	e063c002 	rsb	ip, r3, r2
    85ac:	e28cc001 	add	ip, ip, #1
    85b0:	e15c0001 	cmp	ip, r1
    85b4:	c061100c 	rsbgt	r1, r1, ip
    85b8:	c0833001 	addgt	r3, r3, r1
    85bc:	e2422001 	sub	r2, r2, #1
    85c0:	e1a01000 	mov	r1, r0
    85c4:	ea000002 	b	85d4 <reverse+0x2c>
    85c8:	e452c001 	ldrb	ip, [r2], #-1
    85cc:	e5c1c000 	strb	ip, [r1]
    85d0:	e2811001 	add	r1, r1, #1
    85d4:	e1520003 	cmp	r2, r3
    85d8:	2afffffa 	bcs	85c8 <reverse+0x20>
    85dc:	e3a03000 	mov	r3, #0
    85e0:	e5c13000 	strb	r3, [r1]
    85e4:	e12fff1e 	bx	lr

000085e8 <emit>:
    85e8:	e92d41f0 	push	{r4, r5, r6, r7, r8, lr}
    85ec:	e24dd048 	sub	sp, sp, #72	; 0x48
    85f0:	e1a05001 	mov	r5, r1
    85f4:	e1a04002 	mov	r4, r2
    85f8:	e59d2060 	ldr	r2, [sp, #96]	; 0x60
    85fc:	e1520004 	cmp	r2, r4
    8600:	c2442001 	subgt	r2, r4, #1
    8604:	e1a0c003 	mov	ip, r3
    8608:	e2400002 	sub	r0, r0, #2
    860c:	e350000e 	cmp	r0, #14
    8610:	979ff100 	ldrls	pc, [pc, r0, lsl #2]
    8614:	ea000042 	b	8724 <emit+0x13c>
    8618:	000086fc 	strdeq	r8, [r0], -ip
    861c:	00008724 	andeq	r8, r0, r4, lsr #14
    8620:	00008724 	andeq	r8, r0, r4, lsr #14
    8624:	00008724 	andeq	r8, r0, r4, lsr #14
    8628:	00008724 	andeq	r8, r0, r4, lsr #14
    862c:	00008724 	andeq	r8, r0, r4, lsr #14
    8630:	000086f0 	strdeq	r8, [r0], -r0
    8634:	00008724 	andeq	r8, r0, r4, lsr #14
    8638:	00008654 	andeq	r8, r0, r4, asr r6
    863c:	00008724 	andeq	r8, r0, r4, lsr #14
    8640:	00008724 	andeq	r8, r0, r4, lsr #14
    8644:	00008724 	andeq	r8, r0, r4, lsr #14
    8648:	00008724 	andeq	r8, r0, r4, lsr #14
    864c:	00008724 	andeq	r8, r0, r4, lsr #14
    8650:	000086c8 	andeq	r8, r0, r8, asr #13
    8654:	e59d1064 	ldr	r1, [sp, #100]	; 0x64
    8658:	e2911000 	adds	r1, r1, #0
    865c:	13a01001 	movne	r1, #1
    8660:	e0111fa3 	ands	r1, r1, r3, lsr #31
    8664:	1263c000 	rsbne	ip, r3, #0
    8668:	13a08001 	movne	r8, #1
    866c:	03a08000 	moveq	r8, #0
    8670:	e28d1008 	add	r1, sp, #8
    8674:	e59f70f4 	ldr	r7, [pc, #244]	; 8770 <emit+0x188>
    8678:	e59f60f4 	ldr	r6, [pc, #244]	; 8774 <emit+0x18c>
    867c:	ea000000 	b	8684 <emit+0x9c>
    8680:	e1a01003 	mov	r1, r3
    8684:	e2813001 	add	r3, r1, #1
    8688:	e08e0c97 	umull	r0, lr, r7, ip
    868c:	e1a0e1ae 	lsr	lr, lr, #3
    8690:	e1a0000e 	mov	r0, lr
    8694:	e08ee10e 	add	lr, lr, lr, lsl #2
    8698:	e1a0e08e 	lsl	lr, lr, #1
    869c:	e06ee00c 	rsb	lr, lr, ip
    86a0:	e7d6c00e 	ldrb	ip, [r6, lr]
    86a4:	e5c1c000 	strb	ip, [r1]
    86a8:	e1a0c000 	mov	ip, r0
    86ac:	e3500000 	cmp	r0, #0
    86b0:	1afffff2 	bne	8680 <emit+0x98>
    86b4:	e3580000 	cmp	r8, #0
    86b8:	12813002 	addne	r3, r1, #2
    86bc:	13a0002d 	movne	r0, #45	; 0x2d
    86c0:	15c10001 	strbne	r0, [r1, #1]
    86c4:	ea00001f 	b	8748 <emit+0x160>
    86c8:	e28de008 	add	lr, sp, #8
    86cc:	e59f00a4 	ldr	r0, [pc, #164]	; 8778 <emit+0x190>
    86d0:	e28e3001 	add	r3, lr, #1
    86d4:	e20c100f 	and	r1, ip, #15
    86d8:	e7d01001 	ldrb	r1, [r0, r1]
    86dc:	e5ce1000 	strb	r1, [lr]
    86e0:	e1a0e003 	mov	lr, r3
    86e4:	e1b0c22c 	lsrs	ip, ip, #4
    86e8:	1afffff8 	bne	86d0 <emit+0xe8>
    86ec:	ea000015 	b	8748 <emit+0x160>
    86f0:	e5cd3008 	strb	r3, [sp, #8]
    86f4:	e28d3009 	add	r3, sp, #9
    86f8:	ea000012 	b	8748 <emit+0x160>
    86fc:	e28de008 	add	lr, sp, #8
    8700:	e59f0074 	ldr	r0, [pc, #116]	; 877c <emit+0x194>
    8704:	e28e3001 	add	r3, lr, #1
    8708:	e20c1001 	and	r1, ip, #1
    870c:	e7d01001 	ldrb	r1, [r0, r1]
    8710:	e5ce1000 	strb	r1, [lr]
    8714:	e1a0e003 	mov	lr, r3
    8718:	e1b0c0ac 	lsrs	ip, ip, #1
    871c:	1afffff8 	bne	8704 <emit+0x11c>
    8720:	ea000008 	b	8748 <emit+0x160>
    8724:	ebffff78 	bl	850c <rpi_reset_putc>
    8728:	e59f3050 	ldr	r3, [pc, #80]	; 8780 <emit+0x198>
    872c:	e58d3000 	str	r3, [sp]
    8730:	e59f004c 	ldr	r0, [pc, #76]	; 8784 <emit+0x19c>
    8734:	e59f104c 	ldr	r1, [pc, #76]	; 8788 <emit+0x1a0>
    8738:	e59f204c 	ldr	r2, [pc, #76]	; 878c <emit+0x1a4>
    873c:	e3a03075 	mov	r3, #117	; 0x75
    8740:	ebffff56 	bl	84a0 <printk>
    8744:	eb0000d8 	bl	8aac <clean_reboot>
    8748:	e1a00003 	mov	r0, r3
    874c:	e28d1008 	add	r1, sp, #8
    8750:	ebffff89 	bl	857c <pad>
    8754:	e1a02000 	mov	r2, r0
    8758:	e1a00005 	mov	r0, r5
    875c:	e1a01004 	mov	r1, r4
    8760:	e28d3008 	add	r3, sp, #8
    8764:	ebffff8f 	bl	85a8 <reverse>
    8768:	e28dd048 	add	sp, sp, #72	; 0x48
    876c:	e8bd81f0 	pop	{r4, r5, r6, r7, r8, pc}
    8770:	cccccccd 	stclgt	12, cr12, [ip], {205}	; 0xcd
    8774:	00009c1c 	andeq	r9, r0, ip, lsl ip
    8778:	00009c28 	andeq	r9, r0, r8, lsr #24
    877c:	00009c3c 	andeq	r9, r0, ip, lsr ip
    8780:	00009c18 	andeq	r9, r0, r8, lsl ip
    8784:	00009bf0 	strdeq	r9, [r0], -r0
    8788:	00009c04 	andeq	r9, r0, r4, lsl #24
    878c:	00009bcc 	andeq	r9, r0, ip, asr #23

00008790 <rpi_set_output>:
    8790:	e52de004 	push	{lr}		; (str lr, [sp, #-4]!)
    8794:	e24dd00c 	sub	sp, sp, #12
    8798:	e3500000 	cmp	r0, #0
    879c:	1a000008 	bne	87c4 <rpi_set_output+0x34>
    87a0:	ebffff59 	bl	850c <rpi_reset_putc>
    87a4:	e59f3034 	ldr	r3, [pc, #52]	; 87e0 <rpi_set_output+0x50>
    87a8:	e58d3000 	str	r3, [sp]
    87ac:	e59f0030 	ldr	r0, [pc, #48]	; 87e4 <rpi_set_output+0x54>
    87b0:	e59f1030 	ldr	r1, [pc, #48]	; 87e8 <rpi_set_output+0x58>
    87b4:	e59f2030 	ldr	r2, [pc, #48]	; 87ec <rpi_set_output+0x5c>
    87b8:	e3a03020 	mov	r3, #32
    87bc:	ebffff37 	bl	84a0 <printk>
    87c0:	eb0000b9 	bl	8aac <clean_reboot>
    87c4:	e59f3024 	ldr	r3, [pc, #36]	; 87f0 <rpi_set_output+0x60>
    87c8:	e5830000 	str	r0, [r3]
    87cc:	e3510000 	cmp	r1, #0
    87d0:	159f301c 	ldrne	r3, [pc, #28]	; 87f4 <rpi_set_output+0x64>
    87d4:	15831000 	strne	r1, [r3]
    87d8:	e28dd00c 	add	sp, sp, #12
    87dc:	e49df004 	pop	{pc}		; (ldr pc, [sp], #4)
    87e0:	00009c40 	andeq	r9, r0, r0, asr #24
    87e4:	00009bf0 	strdeq	r9, [r0], -r0
    87e8:	00009c04 	andeq	r9, r0, r4, lsl #24
    87ec:	00009bd4 	ldrdeq	r9, [r0], -r4
    87f0:	00009ab0 			; <UNDEFINED> instruction: 0x00009ab0
    87f4:	00009ab4 			; <UNDEFINED> instruction: 0x00009ab4

000087f8 <va_printk>:
    87f8:	e92d4ff0 	push	{r4, r5, r6, r7, r8, r9, sl, fp, lr}
    87fc:	e24dd08c 	sub	sp, sp, #140	; 0x8c
    8800:	e1a0a000 	mov	sl, r0
    8804:	e1a09003 	mov	r9, r3
    8808:	e2411001 	sub	r1, r1, #1
    880c:	e0808001 	add	r8, r0, r1
    8810:	e3a03000 	mov	r3, #0
    8814:	e5c03000 	strb	r3, [r0]
    8818:	e1a04000 	mov	r4, r0
    881c:	e1a0b003 	mov	fp, r3
    8820:	ea000088 	b	8a48 <va_printk+0x250>
    8824:	e3530025 	cmp	r3, #37	; 0x25
    8828:	12822001 	addne	r2, r2, #1
    882c:	15c43000 	strbne	r3, [r4]
    8830:	12844001 	addne	r4, r4, #1
    8834:	1a000083 	bne	8a48 <va_printk+0x250>
    8838:	e5d21001 	ldrb	r1, [r2, #1]
    883c:	e3510025 	cmp	r1, #37	; 0x25
    8840:	05c43000 	strbeq	r3, [r4]
    8844:	02822002 	addeq	r2, r2, #2
    8848:	02844001 	addeq	r4, r4, #1
    884c:	0a00007d 	beq	8a48 <va_printk+0x250>
    8850:	e2826001 	add	r6, r2, #1
    8854:	e1a0700b 	mov	r7, fp
    8858:	ea000004 	b	8870 <va_printk+0x78>
    885c:	e0877107 	add	r7, r7, r7, lsl #2
    8860:	e1a07087 	lsl	r7, r7, #1
    8864:	e0877005 	add	r7, r7, r5
    8868:	e2477030 	sub	r7, r7, #48	; 0x30
    886c:	e2866001 	add	r6, r6, #1
    8870:	e5d65000 	ldrb	r5, [r6]
    8874:	e1a00005 	mov	r0, r5
    8878:	ebffff3a 	bl	8568 <isdigit>
    887c:	e3500000 	cmp	r0, #0
    8880:	1afffff5 	bne	885c <va_printk+0x64>
    8884:	e357001f 	cmp	r7, #31
    8888:	9a000008 	bls	88b0 <va_printk+0xb8>
    888c:	ebffff1e 	bl	850c <rpi_reset_putc>
    8890:	e59f31dc 	ldr	r3, [pc, #476]	; 8a74 <va_printk+0x27c>
    8894:	e58d3000 	str	r3, [sp]
    8898:	e59f01d8 	ldr	r0, [pc, #472]	; 8a78 <va_printk+0x280>
    889c:	e59f11d8 	ldr	r1, [pc, #472]	; 8a7c <va_printk+0x284>
    88a0:	e59f21d8 	ldr	r2, [pc, #472]	; 8a80 <va_printk+0x288>
    88a4:	e3a03092 	mov	r3, #146	; 0x92
    88a8:	ebfffefc 	bl	84a0 <printk>
    88ac:	eb00007e 	bl	8aac <clean_reboot>
    88b0:	e2455062 	sub	r5, r5, #98	; 0x62
    88b4:	e3550016 	cmp	r5, #22
    88b8:	979ff105 	ldrls	pc, [pc, r5, lsl #2]
    88bc:	ea00004e 	b	89fc <va_printk+0x204>
    88c0:	000089a8 	andeq	r8, r0, r8, lsr #19
    88c4:	000089d8 	ldrdeq	r8, [r0], -r8	; <UNPREDICTABLE>
    88c8:	00008938 	andeq	r8, r0, r8, lsr r9
    88cc:	000089fc 	strdeq	r8, [r0], -ip
    88d0:	0000891c 	andeq	r8, r0, ip, lsl r9
    88d4:	000089fc 	strdeq	r8, [r0], -ip
    88d8:	000089fc 	strdeq	r8, [r0], -ip
    88dc:	000089fc 	strdeq	r8, [r0], -ip
    88e0:	000089fc 	strdeq	r8, [r0], -ip
    88e4:	000089fc 	strdeq	r8, [r0], -ip
    88e8:	000089fc 	strdeq	r8, [r0], -ip
    88ec:	000089fc 	strdeq	r8, [r0], -ip
    88f0:	000089fc 	strdeq	r8, [r0], -ip
    88f4:	000089fc 	strdeq	r8, [r0], -ip
    88f8:	00008984 	andeq	r8, r0, r4, lsl #19
    88fc:	000089fc 	strdeq	r8, [r0], -ip
    8900:	000089fc 	strdeq	r8, [r0], -ip
    8904:	000089cc 	andeq	r8, r0, ip, asr #19
    8908:	000089fc 	strdeq	r8, [r0], -ip
    890c:	00008960 	andeq	r8, r0, r0, ror #18
    8910:	000089fc 	strdeq	r8, [r0], -ip
    8914:	000089fc 	strdeq	r8, [r0], -ip
    8918:	00008984 	andeq	r8, r0, r4, lsl #19
    891c:	ebfffefa 	bl	850c <rpi_reset_putc>
    8920:	e59f015c 	ldr	r0, [pc, #348]	; 8a84 <va_printk+0x28c>
    8924:	e59f1150 	ldr	r1, [pc, #336]	; 8a7c <va_printk+0x284>
    8928:	e59f2150 	ldr	r2, [pc, #336]	; 8a80 <va_printk+0x288>
    892c:	e3a03098 	mov	r3, #152	; 0x98
    8930:	ebfffeda 	bl	84a0 <printk>
    8934:	eb00005c 	bl	8aac <clean_reboot>
    8938:	e5993000 	ldr	r3, [r9]
    893c:	e2899004 	add	r9, r9, #4
    8940:	e58d7000 	str	r7, [sp]
    8944:	e3a02001 	mov	r2, #1
    8948:	e58d2004 	str	r2, [sp, #4]
    894c:	e3a0000a 	mov	r0, #10
    8950:	e28d1008 	add	r1, sp, #8
    8954:	e3a02080 	mov	r2, #128	; 0x80
    8958:	ebffff22 	bl	85e8 <emit>
    895c:	ea00002f 	b	8a20 <va_printk+0x228>
    8960:	e5993000 	ldr	r3, [r9]
    8964:	e2899004 	add	r9, r9, #4
    8968:	e58d7000 	str	r7, [sp]
    896c:	e58db004 	str	fp, [sp, #4]
    8970:	e3a0000a 	mov	r0, #10
    8974:	e28d1008 	add	r1, sp, #8
    8978:	e3a02080 	mov	r2, #128	; 0x80
    897c:	ebffff19 	bl	85e8 <emit>
    8980:	ea000026 	b	8a20 <va_printk+0x228>
    8984:	e5993000 	ldr	r3, [r9]
    8988:	e2899004 	add	r9, r9, #4
    898c:	e58d7000 	str	r7, [sp]
    8990:	e58db004 	str	fp, [sp, #4]
    8994:	e3a00010 	mov	r0, #16
    8998:	e28d1008 	add	r1, sp, #8
    899c:	e3a02080 	mov	r2, #128	; 0x80
    89a0:	ebffff10 	bl	85e8 <emit>
    89a4:	ea00001d 	b	8a20 <va_printk+0x228>
    89a8:	e5993000 	ldr	r3, [r9]
    89ac:	e2899004 	add	r9, r9, #4
    89b0:	e58d7000 	str	r7, [sp]
    89b4:	e58db004 	str	fp, [sp, #4]
    89b8:	e3a00002 	mov	r0, #2
    89bc:	e28d1008 	add	r1, sp, #8
    89c0:	e3a02080 	mov	r2, #128	; 0x80
    89c4:	ebffff07 	bl	85e8 <emit>
    89c8:	ea000014 	b	8a20 <va_printk+0x228>
    89cc:	e5990000 	ldr	r0, [r9]
    89d0:	e2899004 	add	r9, r9, #4
    89d4:	ea000011 	b	8a20 <va_printk+0x228>
    89d8:	e5993000 	ldr	r3, [r9]
    89dc:	e2899004 	add	r9, r9, #4
    89e0:	e58d7000 	str	r7, [sp]
    89e4:	e58db004 	str	fp, [sp, #4]
    89e8:	e3a00008 	mov	r0, #8
    89ec:	e08d1000 	add	r1, sp, r0
    89f0:	e3a02080 	mov	r2, #128	; 0x80
    89f4:	ebfffefb 	bl	85e8 <emit>
    89f8:	ea000008 	b	8a20 <va_printk+0x228>
    89fc:	ebfffec2 	bl	850c <rpi_reset_putc>
    8a00:	e5d63000 	ldrb	r3, [r6]
    8a04:	e58d3000 	str	r3, [sp]
    8a08:	e59f0078 	ldr	r0, [pc, #120]	; 8a88 <va_printk+0x290>
    8a0c:	e59f1068 	ldr	r1, [pc, #104]	; 8a7c <va_printk+0x284>
    8a10:	e59f2068 	ldr	r2, [pc, #104]	; 8a80 <va_printk+0x288>
    8a14:	e3a030b9 	mov	r3, #185	; 0xb9
    8a18:	ebfffea0 	bl	84a0 <printk>
    8a1c:	eb000022 	bl	8aac <clean_reboot>
    8a20:	e2862001 	add	r2, r6, #1
    8a24:	ea000002 	b	8a34 <va_printk+0x23c>
    8a28:	e2800001 	add	r0, r0, #1
    8a2c:	e5c43000 	strb	r3, [r4]
    8a30:	e2844001 	add	r4, r4, #1
    8a34:	e1540008 	cmp	r4, r8
    8a38:	2a000002 	bcs	8a48 <va_printk+0x250>
    8a3c:	e5d03000 	ldrb	r3, [r0]
    8a40:	e3530000 	cmp	r3, #0
    8a44:	1afffff7 	bne	8a28 <va_printk+0x230>
    8a48:	e5d23000 	ldrb	r3, [r2]
    8a4c:	e3530000 	cmp	r3, #0
    8a50:	0a000001 	beq	8a5c <va_printk+0x264>
    8a54:	e1540008 	cmp	r4, r8
    8a58:	3affff71 	bcc	8824 <va_printk+0x2c>
    8a5c:	e2840001 	add	r0, r4, #1
    8a60:	e3a03000 	mov	r3, #0
    8a64:	e5c43000 	strb	r3, [r4]
    8a68:	e06a0000 	rsb	r0, sl, r0
    8a6c:	e28dd08c 	add	sp, sp, #140	; 0x8c
    8a70:	e8bd8ff0 	pop	{r4, r5, r6, r7, r8, r9, sl, fp, pc}
    8a74:	00009c48 	andeq	r9, r0, r8, asr #24
    8a78:	00009bf0 	strdeq	r9, [r0], -r0
    8a7c:	00009c04 	andeq	r9, r0, r4, lsl #24
    8a80:	00009be4 	andeq	r9, r0, r4, ror #23
    8a84:	00009c54 	andeq	r9, r0, r4, asr ip
    8a88:	00009c7c 	andeq	r9, r0, ip, ror ip

00008a8c <enable_cache>:
    8a8c:	ee113f10 	mrc	15, 0, r3, cr1, cr0, {0}
    8a90:	e3833b06 	orr	r3, r3, #6144	; 0x1800
    8a94:	ee013f10 	mcr	15, 0, r3, cr1, cr0, {0}
    8a98:	e12fff1e 	bx	lr

00008a9c <disable_cache>:
    8a9c:	ee113f10 	mrc	15, 0, r3, cr1, cr0, {0}
    8aa0:	e3c33b06 	bic	r3, r3, #6144	; 0x1800
    8aa4:	ee013f10 	mcr	15, 0, r3, cr1, cr0, {0}
    8aa8:	e12fff1e 	bx	lr

00008aac <clean_reboot>:
    8aac:	e92d4008 	push	{r3, lr}
    8ab0:	e59f3014 	ldr	r3, [pc, #20]	; 8acc <clean_reboot+0x20>
    8ab4:	e5933000 	ldr	r3, [r3]
    8ab8:	e59f0010 	ldr	r0, [pc, #16]	; 8ad0 <clean_reboot+0x24>
    8abc:	e12fff33 	blx	r3
    8ac0:	e3a00064 	mov	r0, #100	; 0x64
    8ac4:	eb000063 	bl	8c58 <delay_ms>
    8ac8:	eb000038 	bl	8bb0 <rpi_reboot>
    8acc:	00009ab4 			; <UNDEFINED> instruction: 0x00009ab4
    8ad0:	00009cb4 			; <UNDEFINED> instruction: 0x00009cb4

00008ad4 <internal_sw_putchar>:
    8ad4:	e92d4010 	push	{r4, lr}
    8ad8:	e1a04000 	mov	r4, r0
    8adc:	e59f000c 	ldr	r0, [pc, #12]	; 8af0 <internal_sw_putchar+0x1c>
    8ae0:	e6ef1074 	uxtb	r1, r4
    8ae4:	eb0001cd 	bl	9220 <sw_uart_putc>
    8ae8:	e1a00004 	mov	r0, r4
    8aec:	e8bd8010 	pop	{r4, pc}
    8af0:	0000a208 	andeq	sl, r0, r8, lsl #4

00008af4 <_cstart>:
    8af4:	e92d4008 	push	{r3, lr}
    8af8:	e59f3068 	ldr	r3, [pc, #104]	; 8b68 <_cstart+0x74>
    8afc:	e59f2068 	ldr	r2, [pc, #104]	; 8b6c <_cstart+0x78>
    8b00:	e3a01000 	mov	r1, #0
    8b04:	ea000001 	b	8b10 <_cstart+0x1c>
    8b08:	e5831000 	str	r1, [r3]
    8b0c:	e2833004 	add	r3, r3, #4
    8b10:	e1530002 	cmp	r3, r2
    8b14:	3afffffb 	bcc	8b08 <_cstart+0x14>
    8b18:	eb0003d2 	bl	9a68 <cb_get_block>
    8b1c:	e3500000 	cmp	r0, #0
    8b20:	0a00000e 	beq	8b60 <_cstart+0x6c>
    8b24:	e5d02004 	ldrb	r2, [r0, #4]
    8b28:	e3520002 	cmp	r2, #2
    8b2c:	1a00000b 	bne	8b60 <_cstart+0x6c>
    8b30:	e59f1038 	ldr	r1, [pc, #56]	; 8b70 <_cstart+0x7c>
    8b34:	e59f2038 	ldr	r2, [pc, #56]	; 8b74 <_cstart+0x80>
    8b38:	e5821000 	str	r1, [r2]
    8b3c:	e59fc034 	ldr	ip, [pc, #52]	; 8b78 <_cstart+0x84>
    8b40:	e2803008 	add	r3, r0, #8
    8b44:	e8930007 	ldm	r3, {r0, r1, r2}
    8b48:	e88c0007 	stm	ip, {r0, r1, r2}
    8b4c:	e1a0000c 	mov	r0, ip
    8b50:	e59f1024 	ldr	r1, [pc, #36]	; 8b7c <_cstart+0x88>
    8b54:	eb000314 	bl	97ac <sw_uart_printk>
    8b58:	e59f0020 	ldr	r0, [pc, #32]	; 8b80 <_cstart+0x8c>
    8b5c:	ebfffe4f 	bl	84a0 <printk>
    8b60:	ebfffe28 	bl	8408 <notmain>
    8b64:	eb000011 	bl	8bb0 <rpi_reboot>
    8b68:	00009e08 	andeq	r9, r0, r8, lsl #28
    8b6c:	0000a218 	andeq	sl, r0, r8, lsl r2
    8b70:	00008ad4 	ldrdeq	r8, [r0], -r4
    8b74:	00009ab0 			; <UNDEFINED> instruction: 0x00009ab0
    8b78:	0000a208 	andeq	sl, r0, r8, lsl #4
    8b7c:	00009cc0 	andeq	r9, r0, r0, asr #25
    8b80:	00009ce4 	andeq	r9, r0, r4, ror #25

00008b84 <at_user_level>:
    8b84:	e10f0000 	mrs	r0, CPSR
    8b88:	e200001f 	and	r0, r0, #31
    8b8c:	e3500010 	cmp	r0, #16
    8b90:	13a00000 	movne	r0, #0
    8b94:	03a00001 	moveq	r0, #1
    8b98:	e12fff1e 	bx	lr

00008b9c <set_user_level>:
    8b9c:	e10f3000 	mrs	r3, CPSR
    8ba0:	e3c3301f 	bic	r3, r3, #31
    8ba4:	e3833010 	orr	r3, r3, #16
    8ba8:	e129f003 	msr	CPSR_fc, r3
    8bac:	e12fff1e 	bx	lr

00008bb0 <rpi_reboot>:
    8bb0:	e92d4008 	push	{r3, lr}
    8bb4:	ebfffff2 	bl	8b84 <at_user_level>
    8bb8:	e3500000 	cmp	r0, #0
    8bbc:	0a000000 	beq	8bc4 <rpi_reboot+0x14>
    8bc0:	ebfffff5 	bl	8b9c <set_user_level>
    8bc4:	e3a0001e 	mov	r0, #30
    8bc8:	eb000022 	bl	8c58 <delay_ms>
    8bcc:	e59f0014 	ldr	r0, [pc, #20]	; 8be8 <rpi_reboot+0x38>
    8bd0:	e59f1014 	ldr	r1, [pc, #20]	; 8bec <rpi_reboot+0x3c>
    8bd4:	eb000388 	bl	99fc <PUT32>
    8bd8:	e59f0010 	ldr	r0, [pc, #16]	; 8bf0 <rpi_reboot+0x40>
    8bdc:	e59f1010 	ldr	r1, [pc, #16]	; 8bf4 <rpi_reboot+0x44>
    8be0:	eb000385 	bl	99fc <PUT32>
    8be4:	eafffffe 	b	8be4 <rpi_reboot+0x34>
    8be8:	20100024 	andscs	r0, r0, r4, lsr #32
    8bec:	5a000001 	bpl	8bf8 <delay_cycles>
    8bf0:	2010001c 	andscs	r0, r0, ip, lsl r0
    8bf4:	5a000020 	bpl	8c7c <delay_sec+0x10>

00008bf8 <delay_cycles>:
    8bf8:	ea000001 	b	8c04 <delay_cycles+0xc>
    8bfc:	e2811000 	add	r1, r1, #0
    8c00:	e1a00003 	mov	r0, r3
    8c04:	e2403001 	sub	r3, r0, #1
    8c08:	e3500000 	cmp	r0, #0
    8c0c:	1afffffa 	bne	8bfc <delay_cycles+0x4>
    8c10:	e12fff1e 	bx	lr

00008c14 <timer_get_usec_raw>:
    8c14:	e92d4008 	push	{r3, lr}
    8c18:	e59f0004 	ldr	r0, [pc, #4]	; 8c24 <timer_get_usec_raw+0x10>
    8c1c:	eb000382 	bl	9a2c <GET32>
    8c20:	e8bd8008 	pop	{r3, pc}
    8c24:	20003004 	andcs	r3, r0, r4

00008c28 <timer_get_usec>:
    8c28:	e92d4008 	push	{r3, lr}
    8c2c:	ebfffff8 	bl	8c14 <timer_get_usec_raw>
    8c30:	e8bd8008 	pop	{r3, pc}

00008c34 <delay_us>:
    8c34:	e92d4038 	push	{r3, r4, r5, lr}
    8c38:	e1a05000 	mov	r5, r0
    8c3c:	ebfffff9 	bl	8c28 <timer_get_usec>
    8c40:	e1a04000 	mov	r4, r0
    8c44:	ebfffff7 	bl	8c28 <timer_get_usec>
    8c48:	e0640000 	rsb	r0, r4, r0
    8c4c:	e1500005 	cmp	r0, r5
    8c50:	3afffffb 	bcc	8c44 <delay_us+0x10>
    8c54:	e8bd8038 	pop	{r3, r4, r5, pc}

00008c58 <delay_ms>:
    8c58:	e92d4008 	push	{r3, lr}
    8c5c:	e3a03ffa 	mov	r3, #1000	; 0x3e8
    8c60:	e0000093 	mul	r0, r3, r0
    8c64:	ebfffff2 	bl	8c34 <delay_us>
    8c68:	e8bd8008 	pop	{r3, pc}

00008c6c <delay_sec>:
    8c6c:	e92d4008 	push	{r3, lr}
    8c70:	e3a03ffa 	mov	r3, #1000	; 0x3e8
    8c74:	e0000093 	mul	r0, r3, r0
    8c78:	ebfffff6 	bl	8c58 <delay_ms>
    8c7c:	e8bd8008 	pop	{r3, pc}

00008c80 <gpio_set_output>:
    8c80:	e92d4038 	push	{r3, r4, r5, lr}
    8c84:	e1a04000 	mov	r4, r0
    8c88:	e350001f 	cmp	r0, #31
    8c8c:	88bd8038 	pophi	{r3, r4, r5, pc}
    8c90:	e59f30b4 	ldr	r3, [pc, #180]	; 8d4c <gpio_set_output+0xcc>
    8c94:	e0832093 	umull	r2, r3, r3, r0
    8c98:	e1a031a3 	lsr	r3, r3, #3
    8c9c:	e3530005 	cmp	r3, #5
    8ca0:	979ff103 	ldrls	pc, [pc, r3, lsl #2]
    8ca4:	ea000017 	b	8d08 <gpio_set_output+0x88>
    8ca8:	00008cc0 	andeq	r8, r0, r0, asr #25
    8cac:	00008ccc 	andeq	r8, r0, ip, asr #25
    8cb0:	00008cd8 	ldrdeq	r8, [r0], -r8	; <UNPREDICTABLE>
    8cb4:	00008ce4 	andeq	r8, r0, r4, ror #25
    8cb8:	00008cf0 	strdeq	r8, [r0], -r0
    8cbc:	00008cfc 	strdeq	r8, [r0], -ip
    8cc0:	e59f3088 	ldr	r3, [pc, #136]	; 8d50 <gpio_set_output+0xd0>
    8cc4:	e5935000 	ldr	r5, [r3]
    8cc8:	ea00000f 	b	8d0c <gpio_set_output+0x8c>
    8ccc:	e59f307c 	ldr	r3, [pc, #124]	; 8d50 <gpio_set_output+0xd0>
    8cd0:	e5935004 	ldr	r5, [r3, #4]
    8cd4:	ea00000c 	b	8d0c <gpio_set_output+0x8c>
    8cd8:	e59f3070 	ldr	r3, [pc, #112]	; 8d50 <gpio_set_output+0xd0>
    8cdc:	e5935008 	ldr	r5, [r3, #8]
    8ce0:	ea000009 	b	8d0c <gpio_set_output+0x8c>
    8ce4:	e59f3064 	ldr	r3, [pc, #100]	; 8d50 <gpio_set_output+0xd0>
    8ce8:	e593500c 	ldr	r5, [r3, #12]
    8cec:	ea000006 	b	8d0c <gpio_set_output+0x8c>
    8cf0:	e59f3058 	ldr	r3, [pc, #88]	; 8d50 <gpio_set_output+0xd0>
    8cf4:	e5935010 	ldr	r5, [r3, #16]
    8cf8:	ea000003 	b	8d0c <gpio_set_output+0x8c>
    8cfc:	e59f304c 	ldr	r3, [pc, #76]	; 8d50 <gpio_set_output+0xd0>
    8d00:	e5935014 	ldr	r5, [r3, #20]
    8d04:	ea000000 	b	8d0c <gpio_set_output+0x8c>
    8d08:	e3a05000 	mov	r5, #0
    8d0c:	e1a00005 	mov	r0, r5
    8d10:	eb000343 	bl	9a24 <get32>
    8d14:	e59f1030 	ldr	r1, [pc, #48]	; 8d4c <gpio_set_output+0xcc>
    8d18:	e0813491 	umull	r3, r1, r1, r4
    8d1c:	e1a011a1 	lsr	r1, r1, #3
    8d20:	e0811101 	add	r1, r1, r1, lsl #2
    8d24:	e1a01081 	lsl	r1, r1, #1
    8d28:	e0611004 	rsb	r1, r1, r4
    8d2c:	e0811081 	add	r1, r1, r1, lsl #1
    8d30:	e3a03007 	mov	r3, #7
    8d34:	e1c03113 	bic	r3, r0, r3, lsl r1
    8d38:	e1a00005 	mov	r0, r5
    8d3c:	e3a02001 	mov	r2, #1
    8d40:	e1831112 	orr	r1, r3, r2, lsl r1
    8d44:	eb00032a 	bl	99f4 <put32>
    8d48:	e8bd8038 	pop	{r3, r4, r5, pc}
    8d4c:	cccccccd 	stclgt	12, cr12, [ip], {205}	; 0xcd
    8d50:	00009ab8 			; <UNDEFINED> instruction: 0x00009ab8

00008d54 <gpio_set_on>:
    8d54:	e92d4008 	push	{r3, lr}
    8d58:	e350001f 	cmp	r0, #31
    8d5c:	88bd8008 	pophi	{r3, pc}
    8d60:	959f3020 	ldrls	r3, [pc, #32]	; 8d88 <gpio_set_on+0x34>
    8d64:	95932018 	ldrls	r2, [r3, #24]
    8d68:	859f3018 	ldrhi	r3, [pc, #24]	; 8d88 <gpio_set_on+0x34>
    8d6c:	8593201c 	ldrhi	r2, [r3, #28]
    8d70:	e200301f 	and	r3, r0, #31
    8d74:	e1a00002 	mov	r0, r2
    8d78:	e3a01001 	mov	r1, #1
    8d7c:	e1a01311 	lsl	r1, r1, r3
    8d80:	eb00031b 	bl	99f4 <put32>
    8d84:	e8bd8008 	pop	{r3, pc}
    8d88:	00009ab8 			; <UNDEFINED> instruction: 0x00009ab8

00008d8c <gpio_set_off>:
    8d8c:	e92d4008 	push	{r3, lr}
    8d90:	e350001f 	cmp	r0, #31
    8d94:	88bd8008 	pophi	{r3, pc}
    8d98:	959f3020 	ldrls	r3, [pc, #32]	; 8dc0 <gpio_set_off+0x34>
    8d9c:	95932020 	ldrls	r2, [r3, #32]
    8da0:	859f3018 	ldrhi	r3, [pc, #24]	; 8dc0 <gpio_set_off+0x34>
    8da4:	85932024 	ldrhi	r2, [r3, #36]	; 0x24
    8da8:	e200301f 	and	r3, r0, #31
    8dac:	e1a00002 	mov	r0, r2
    8db0:	e3a01001 	mov	r1, #1
    8db4:	e1a01311 	lsl	r1, r1, r3
    8db8:	eb00030d 	bl	99f4 <put32>
    8dbc:	e8bd8008 	pop	{r3, pc}
    8dc0:	00009ab8 			; <UNDEFINED> instruction: 0x00009ab8

00008dc4 <gpio_set_input>:
    8dc4:	e92d4038 	push	{r3, r4, r5, lr}
    8dc8:	e1a04000 	mov	r4, r0
    8dcc:	e350001f 	cmp	r0, #31
    8dd0:	88bd8038 	pophi	{r3, r4, r5, pc}
    8dd4:	e59f30ac 	ldr	r3, [pc, #172]	; 8e88 <gpio_set_input+0xc4>
    8dd8:	e0832093 	umull	r2, r3, r3, r0
    8ddc:	e1a031a3 	lsr	r3, r3, #3
    8de0:	e3530005 	cmp	r3, #5
    8de4:	979ff103 	ldrls	pc, [pc, r3, lsl #2]
    8de8:	ea000017 	b	8e4c <gpio_set_input+0x88>
    8dec:	00008e04 	andeq	r8, r0, r4, lsl #28
    8df0:	00008e10 	andeq	r8, r0, r0, lsl lr
    8df4:	00008e1c 	andeq	r8, r0, ip, lsl lr
    8df8:	00008e28 	andeq	r8, r0, r8, lsr #28
    8dfc:	00008e34 	andeq	r8, r0, r4, lsr lr
    8e00:	00008e40 	andeq	r8, r0, r0, asr #28
    8e04:	e59f3080 	ldr	r3, [pc, #128]	; 8e8c <gpio_set_input+0xc8>
    8e08:	e5935000 	ldr	r5, [r3]
    8e0c:	ea00000f 	b	8e50 <gpio_set_input+0x8c>
    8e10:	e59f3074 	ldr	r3, [pc, #116]	; 8e8c <gpio_set_input+0xc8>
    8e14:	e5935004 	ldr	r5, [r3, #4]
    8e18:	ea00000c 	b	8e50 <gpio_set_input+0x8c>
    8e1c:	e59f3068 	ldr	r3, [pc, #104]	; 8e8c <gpio_set_input+0xc8>
    8e20:	e5935008 	ldr	r5, [r3, #8]
    8e24:	ea000009 	b	8e50 <gpio_set_input+0x8c>
    8e28:	e59f305c 	ldr	r3, [pc, #92]	; 8e8c <gpio_set_input+0xc8>
    8e2c:	e593500c 	ldr	r5, [r3, #12]
    8e30:	ea000006 	b	8e50 <gpio_set_input+0x8c>
    8e34:	e59f3050 	ldr	r3, [pc, #80]	; 8e8c <gpio_set_input+0xc8>
    8e38:	e5935010 	ldr	r5, [r3, #16]
    8e3c:	ea000003 	b	8e50 <gpio_set_input+0x8c>
    8e40:	e59f3044 	ldr	r3, [pc, #68]	; 8e8c <gpio_set_input+0xc8>
    8e44:	e5935014 	ldr	r5, [r3, #20]
    8e48:	ea000000 	b	8e50 <gpio_set_input+0x8c>
    8e4c:	e3a05000 	mov	r5, #0
    8e50:	e1a00005 	mov	r0, r5
    8e54:	eb0002f2 	bl	9a24 <get32>
    8e58:	e59f1028 	ldr	r1, [pc, #40]	; 8e88 <gpio_set_input+0xc4>
    8e5c:	e0813491 	umull	r3, r1, r1, r4
    8e60:	e1a011a1 	lsr	r1, r1, #3
    8e64:	e0811101 	add	r1, r1, r1, lsl #2
    8e68:	e1a01081 	lsl	r1, r1, #1
    8e6c:	e0611004 	rsb	r1, r1, r4
    8e70:	e0811081 	add	r1, r1, r1, lsl #1
    8e74:	e3a03007 	mov	r3, #7
    8e78:	e1c01113 	bic	r1, r0, r3, lsl r1
    8e7c:	e1a00005 	mov	r0, r5
    8e80:	eb0002db 	bl	99f4 <put32>
    8e84:	e8bd8038 	pop	{r3, r4, r5, pc}
    8e88:	cccccccd 	stclgt	12, cr12, [ip], {205}	; 0xcd
    8e8c:	00009ab8 			; <UNDEFINED> instruction: 0x00009ab8

00008e90 <gpio_read>:
    8e90:	e92d4010 	push	{r4, lr}
    8e94:	e1a04000 	mov	r4, r0
    8e98:	e350001f 	cmp	r0, #31
    8e9c:	8a00000b 	bhi	8ed0 <gpio_read+0x40>
    8ea0:	8a000003 	bhi	8eb4 <gpio_read+0x24>
    8ea4:	e59f302c 	ldr	r3, [pc, #44]	; 8ed8 <gpio_read+0x48>
    8ea8:	e5930028 	ldr	r0, [r3, #40]	; 0x28
    8eac:	eb0002dc 	bl	9a24 <get32>
    8eb0:	ea000002 	b	8ec0 <gpio_read+0x30>
    8eb4:	e59f301c 	ldr	r3, [pc, #28]	; 8ed8 <gpio_read+0x48>
    8eb8:	e593002c 	ldr	r0, [r3, #44]	; 0x2c
    8ebc:	eb0002d8 	bl	9a24 <get32>
    8ec0:	e204401f 	and	r4, r4, #31
    8ec4:	e3a03001 	mov	r3, #1
    8ec8:	e0000413 	and	r0, r0, r3, lsl r4
    8ecc:	e8bd8010 	pop	{r4, pc}
    8ed0:	e3e00000 	mvn	r0, #0
    8ed4:	e8bd8010 	pop	{r4, pc}
    8ed8:	00009ab8 			; <UNDEFINED> instruction: 0x00009ab8

00008edc <gpio_write>:
    8edc:	e92d4008 	push	{r3, lr}
    8ee0:	e350001f 	cmp	r0, #31
    8ee4:	88bd8008 	pophi	{r3, pc}
    8ee8:	e3510000 	cmp	r1, #0
    8eec:	0a000001 	beq	8ef8 <gpio_write+0x1c>
    8ef0:	ebffff97 	bl	8d54 <gpio_set_on>
    8ef4:	e8bd8008 	pop	{r3, pc}
    8ef8:	ebffffa3 	bl	8d8c <gpio_set_off>
    8efc:	e8bd8008 	pop	{r3, pc}

00008f00 <gpio_set_function>:
    8f00:	e92d4070 	push	{r4, r5, r6, lr}
    8f04:	e1a04000 	mov	r4, r0
    8f08:	e1a05001 	mov	r5, r1
    8f0c:	e3510007 	cmp	r1, #7
    8f10:	9350001f 	cmpls	r0, #31
    8f14:	88bd8070 	pophi	{r4, r5, r6, pc}
    8f18:	e59f30b0 	ldr	r3, [pc, #176]	; 8fd0 <gpio_set_function+0xd0>
    8f1c:	e0832093 	umull	r2, r3, r3, r0
    8f20:	e1a031a3 	lsr	r3, r3, #3
    8f24:	e3530005 	cmp	r3, #5
    8f28:	979ff103 	ldrls	pc, [pc, r3, lsl #2]
    8f2c:	ea000017 	b	8f90 <gpio_set_function+0x90>
    8f30:	00008f48 	andeq	r8, r0, r8, asr #30
    8f34:	00008f54 	andeq	r8, r0, r4, asr pc
    8f38:	00008f60 	andeq	r8, r0, r0, ror #30
    8f3c:	00008f6c 	andeq	r8, r0, ip, ror #30
    8f40:	00008f78 	andeq	r8, r0, r8, ror pc
    8f44:	00008f84 	andeq	r8, r0, r4, lsl #31
    8f48:	e59f3084 	ldr	r3, [pc, #132]	; 8fd4 <gpio_set_function+0xd4>
    8f4c:	e5936000 	ldr	r6, [r3]
    8f50:	ea00000f 	b	8f94 <gpio_set_function+0x94>
    8f54:	e59f3078 	ldr	r3, [pc, #120]	; 8fd4 <gpio_set_function+0xd4>
    8f58:	e5936004 	ldr	r6, [r3, #4]
    8f5c:	ea00000c 	b	8f94 <gpio_set_function+0x94>
    8f60:	e59f306c 	ldr	r3, [pc, #108]	; 8fd4 <gpio_set_function+0xd4>
    8f64:	e5936008 	ldr	r6, [r3, #8]
    8f68:	ea000009 	b	8f94 <gpio_set_function+0x94>
    8f6c:	e59f3060 	ldr	r3, [pc, #96]	; 8fd4 <gpio_set_function+0xd4>
    8f70:	e593600c 	ldr	r6, [r3, #12]
    8f74:	ea000006 	b	8f94 <gpio_set_function+0x94>
    8f78:	e59f3054 	ldr	r3, [pc, #84]	; 8fd4 <gpio_set_function+0xd4>
    8f7c:	e5936010 	ldr	r6, [r3, #16]
    8f80:	ea000003 	b	8f94 <gpio_set_function+0x94>
    8f84:	e59f3048 	ldr	r3, [pc, #72]	; 8fd4 <gpio_set_function+0xd4>
    8f88:	e5936014 	ldr	r6, [r3, #20]
    8f8c:	ea000000 	b	8f94 <gpio_set_function+0x94>
    8f90:	e3a06000 	mov	r6, #0
    8f94:	e1a00006 	mov	r0, r6
    8f98:	eb0002a1 	bl	9a24 <get32>
    8f9c:	e59f302c 	ldr	r3, [pc, #44]	; 8fd0 <gpio_set_function+0xd0>
    8fa0:	e0832493 	umull	r2, r3, r3, r4
    8fa4:	e1a031a3 	lsr	r3, r3, #3
    8fa8:	e0833103 	add	r3, r3, r3, lsl #2
    8fac:	e1a03083 	lsl	r3, r3, #1
    8fb0:	e0633004 	rsb	r3, r3, r4
    8fb4:	e0833083 	add	r3, r3, r3, lsl #1
    8fb8:	e3a01007 	mov	r1, #7
    8fbc:	e1c01311 	bic	r1, r0, r1, lsl r3
    8fc0:	e1a00006 	mov	r0, r6
    8fc4:	e1811315 	orr	r1, r1, r5, lsl r3
    8fc8:	eb000289 	bl	99f4 <put32>
    8fcc:	e8bd8070 	pop	{r4, r5, r6, pc}
    8fd0:	cccccccd 	stclgt	12, cr12, [ip], {205}	; 0xcd
    8fd4:	00009ab8 			; <UNDEFINED> instruction: 0x00009ab8

00008fd8 <gpio_toggle>:
    8fd8:	e92d4008 	push	{r3, lr}
    8fdc:	e350001f 	cmp	r0, #31
    8fe0:	88bd8008 	pophi	{r3, pc}
    8fe4:	959f3020 	ldrls	r3, [pc, #32]	; 900c <gpio_toggle+0x34>
    8fe8:	95932018 	ldrls	r2, [r3, #24]
    8fec:	859f3018 	ldrhi	r3, [pc, #24]	; 900c <gpio_toggle+0x34>
    8ff0:	8593201c 	ldrhi	r2, [r3, #28]
    8ff4:	e200301f 	and	r3, r0, #31
    8ff8:	e1a00002 	mov	r0, r2
    8ffc:	e3a01001 	mov	r1, #1
    9000:	e1a01311 	lsl	r1, r1, r3
    9004:	eb00027a 	bl	99f4 <put32>
    9008:	e8bd8008 	pop	{r3, pc}
    900c:	00009ab8 			; <UNDEFINED> instruction: 0x00009ab8

00009010 <is_gpio_int>:
    9010:	e92d4008 	push	{r3, lr}
    9014:	e59f301c 	ldr	r3, [pc, #28]	; 9038 <is_gpio_int+0x28>
    9018:	e5930030 	ldr	r0, [r3, #48]	; 0x30
    901c:	eb000280 	bl	9a24 <get32>
    9020:	e3500000 	cmp	r0, #0
    9024:	0a000001 	beq	9030 <is_gpio_int+0x20>
    9028:	e3a00001 	mov	r0, #1
    902c:	e8bd8008 	pop	{r3, pc}
    9030:	e3a00000 	mov	r0, #0
    9034:	e8bd8008 	pop	{r3, pc}
    9038:	00009ab8 			; <UNDEFINED> instruction: 0x00009ab8

0000903c <gpio_int_rising_edge>:
    903c:	e92d4038 	push	{r3, r4, r5, lr}
    9040:	e1a04000 	mov	r4, r0
    9044:	e350001f 	cmp	r0, #31
    9048:	88bd8038 	pophi	{r3, r4, r5, pc}
    904c:	eb000262 	bl	99dc <dev_barrier>
    9050:	e354001f 	cmp	r4, #31
    9054:	8a000007 	bhi	9078 <gpio_int_rising_edge+0x3c>
    9058:	e59f505c 	ldr	r5, [pc, #92]	; 90bc <gpio_int_rising_edge+0x80>
    905c:	e5950034 	ldr	r0, [r5, #52]	; 0x34
    9060:	eb00026f 	bl	9a24 <get32>
    9064:	e3a01001 	mov	r1, #1
    9068:	e1801411 	orr	r1, r0, r1, lsl r4
    906c:	e5950034 	ldr	r0, [r5, #52]	; 0x34
    9070:	eb00025f 	bl	99f4 <put32>
    9074:	ea000007 	b	9098 <gpio_int_rising_edge+0x5c>
    9078:	e59f503c 	ldr	r5, [pc, #60]	; 90bc <gpio_int_rising_edge+0x80>
    907c:	e5950038 	ldr	r0, [r5, #56]	; 0x38
    9080:	eb000267 	bl	9a24 <get32>
    9084:	e204401f 	and	r4, r4, #31
    9088:	e3a01001 	mov	r1, #1
    908c:	e1801411 	orr	r1, r0, r1, lsl r4
    9090:	e5950038 	ldr	r0, [r5, #56]	; 0x38
    9094:	eb000256 	bl	99f4 <put32>
    9098:	eb00024f 	bl	99dc <dev_barrier>
    909c:	e59f4018 	ldr	r4, [pc, #24]	; 90bc <gpio_int_rising_edge+0x80>
    90a0:	e594003c 	ldr	r0, [r4, #60]	; 0x3c
    90a4:	eb00025e 	bl	9a24 <get32>
    90a8:	e3801802 	orr	r1, r0, #131072	; 0x20000
    90ac:	e594003c 	ldr	r0, [r4, #60]	; 0x3c
    90b0:	eb00024f 	bl	99f4 <put32>
    90b4:	eb000248 	bl	99dc <dev_barrier>
    90b8:	e8bd8038 	pop	{r3, r4, r5, pc}
    90bc:	00009ab8 			; <UNDEFINED> instruction: 0x00009ab8

000090c0 <gpio_int_falling_edge>:
    90c0:	e92d4038 	push	{r3, r4, r5, lr}
    90c4:	e1a04000 	mov	r4, r0
    90c8:	e350001f 	cmp	r0, #31
    90cc:	88bd8038 	pophi	{r3, r4, r5, pc}
    90d0:	eb000241 	bl	99dc <dev_barrier>
    90d4:	e354001f 	cmp	r4, #31
    90d8:	8a000007 	bhi	90fc <gpio_int_falling_edge+0x3c>
    90dc:	e59f505c 	ldr	r5, [pc, #92]	; 9140 <gpio_int_falling_edge+0x80>
    90e0:	e5950040 	ldr	r0, [r5, #64]	; 0x40
    90e4:	eb00024e 	bl	9a24 <get32>
    90e8:	e3a01001 	mov	r1, #1
    90ec:	e1801411 	orr	r1, r0, r1, lsl r4
    90f0:	e5950040 	ldr	r0, [r5, #64]	; 0x40
    90f4:	eb00023e 	bl	99f4 <put32>
    90f8:	ea000007 	b	911c <gpio_int_falling_edge+0x5c>
    90fc:	e59f503c 	ldr	r5, [pc, #60]	; 9140 <gpio_int_falling_edge+0x80>
    9100:	e5950044 	ldr	r0, [r5, #68]	; 0x44
    9104:	eb000246 	bl	9a24 <get32>
    9108:	e204401f 	and	r4, r4, #31
    910c:	e3a01001 	mov	r1, #1
    9110:	e1801411 	orr	r1, r0, r1, lsl r4
    9114:	e5950044 	ldr	r0, [r5, #68]	; 0x44
    9118:	eb000235 	bl	99f4 <put32>
    911c:	eb00022e 	bl	99dc <dev_barrier>
    9120:	e59f4018 	ldr	r4, [pc, #24]	; 9140 <gpio_int_falling_edge+0x80>
    9124:	e594003c 	ldr	r0, [r4, #60]	; 0x3c
    9128:	eb00023d 	bl	9a24 <get32>
    912c:	e3801601 	orr	r1, r0, #1048576	; 0x100000
    9130:	e594003c 	ldr	r0, [r4, #60]	; 0x3c
    9134:	eb00022e 	bl	99f4 <put32>
    9138:	eb000227 	bl	99dc <dev_barrier>
    913c:	e8bd8038 	pop	{r3, r4, r5, pc}
    9140:	00009ab8 			; <UNDEFINED> instruction: 0x00009ab8

00009144 <gpio_event_detected>:
    9144:	e92d4010 	push	{r4, lr}
    9148:	e1a04000 	mov	r4, r0
    914c:	e350001f 	cmp	r0, #31
    9150:	8a000019 	bhi	91bc <gpio_event_detected+0x78>
    9154:	eb000220 	bl	99dc <dev_barrier>
    9158:	e354001f 	cmp	r4, #31
    915c:	8a000008 	bhi	9184 <gpio_event_detected+0x40>
    9160:	e59f305c 	ldr	r3, [pc, #92]	; 91c4 <gpio_event_detected+0x80>
    9164:	e5930048 	ldr	r0, [r3, #72]	; 0x48
    9168:	eb00022d 	bl	9a24 <get32>
    916c:	e3a03001 	mov	r3, #1
    9170:	e0103413 	ands	r3, r0, r3, lsl r4
    9174:	0a00000d 	beq	91b0 <gpio_event_detected+0x6c>
    9178:	eb000217 	bl	99dc <dev_barrier>
    917c:	e3a00001 	mov	r0, #1
    9180:	e8bd8010 	pop	{r4, pc}
    9184:	e59f3038 	ldr	r3, [pc, #56]	; 91c4 <gpio_event_detected+0x80>
    9188:	e593004c 	ldr	r0, [r3, #76]	; 0x4c
    918c:	eb000224 	bl	9a24 <get32>
    9190:	e3a03001 	mov	r3, #1
    9194:	e0004413 	and	r4, r0, r3, lsl r4
    9198:	eb00020f 	bl	99dc <dev_barrier>
    919c:	e3540000 	cmp	r4, #0
    91a0:	0a000002 	beq	91b0 <gpio_event_detected+0x6c>
    91a4:	eb00020c 	bl	99dc <dev_barrier>
    91a8:	e3a00001 	mov	r0, #1
    91ac:	e8bd8010 	pop	{r4, pc}
    91b0:	eb000209 	bl	99dc <dev_barrier>
    91b4:	e3a00000 	mov	r0, #0
    91b8:	e8bd8010 	pop	{r4, pc}
    91bc:	e3e00000 	mvn	r0, #0
    91c0:	e8bd8010 	pop	{r4, pc}
    91c4:	00009ab8 			; <UNDEFINED> instruction: 0x00009ab8

000091c8 <gpio_event_clear>:
    91c8:	e92d4010 	push	{r4, lr}
    91cc:	e1a04000 	mov	r4, r0
    91d0:	e350001f 	cmp	r0, #31
    91d4:	88bd8010 	pophi	{r4, pc}
    91d8:	eb0001ff 	bl	99dc <dev_barrier>
    91dc:	e354001f 	cmp	r4, #31
    91e0:	8a000005 	bhi	91fc <gpio_event_clear+0x34>
    91e4:	e59f3030 	ldr	r3, [pc, #48]	; 921c <gpio_event_clear+0x54>
    91e8:	e5930048 	ldr	r0, [r3, #72]	; 0x48
    91ec:	e3a01001 	mov	r1, #1
    91f0:	e1a01411 	lsl	r1, r1, r4
    91f4:	eb0001fe 	bl	99f4 <put32>
    91f8:	ea000005 	b	9214 <gpio_event_clear+0x4c>
    91fc:	e204401f 	and	r4, r4, #31
    9200:	e59f3014 	ldr	r3, [pc, #20]	; 921c <gpio_event_clear+0x54>
    9204:	e593004c 	ldr	r0, [r3, #76]	; 0x4c
    9208:	e3a01001 	mov	r1, #1
    920c:	e1a01411 	lsl	r1, r1, r4
    9210:	eb0001f7 	bl	99f4 <put32>
    9214:	eb0001f0 	bl	99dc <dev_barrier>
    9218:	e8bd8010 	pop	{r4, pc}
    921c:	00009ab8 			; <UNDEFINED> instruction: 0x00009ab8

00009220 <sw_uart_putc>:
    9220:	e92d41f0 	push	{r4, r5, r6, r7, r8, lr}
    9224:	e1a07001 	mov	r7, r1
    9228:	e5d06000 	ldrb	r6, [r0]
    922c:	e5905008 	ldr	r5, [r0, #8]
    9230:	ee1f4f3c 	mrc	15, 0, r4, cr15, cr12, {1}
    9234:	e1a00006 	mov	r0, r6
    9238:	e3a01000 	mov	r1, #0
    923c:	ebffff26 	bl	8edc <gpio_write>
    9240:	ee1f3f3c 	mrc	15, 0, r3, cr15, cr12, {1}
    9244:	e0643003 	rsb	r3, r4, r3
    9248:	e1550003 	cmp	r5, r3
    924c:	8afffffb 	bhi	9240 <sw_uart_putc+0x20>
    9250:	e1a08085 	lsl	r8, r5, #1
    9254:	e1a00006 	mov	r0, r6
    9258:	e2071001 	and	r1, r7, #1
    925c:	ebffff1e 	bl	8edc <gpio_write>
    9260:	ee1f3f3c 	mrc	15, 0, r3, cr15, cr12, {1}
    9264:	e0643003 	rsb	r3, r4, r3
    9268:	e1580003 	cmp	r8, r3
    926c:	8afffffb 	bhi	9260 <sw_uart_putc+0x40>
    9270:	e0888005 	add	r8, r8, r5
    9274:	e1a00006 	mov	r0, r6
    9278:	e2071002 	and	r1, r7, #2
    927c:	ebffff16 	bl	8edc <gpio_write>
    9280:	ee1f3f3c 	mrc	15, 0, r3, cr15, cr12, {1}
    9284:	e0643003 	rsb	r3, r4, r3
    9288:	e1580003 	cmp	r8, r3
    928c:	8afffffb 	bhi	9280 <sw_uart_putc+0x60>
    9290:	e0888005 	add	r8, r8, r5
    9294:	e1a00006 	mov	r0, r6
    9298:	e2071004 	and	r1, r7, #4
    929c:	ebffff0e 	bl	8edc <gpio_write>
    92a0:	ee1f3f3c 	mrc	15, 0, r3, cr15, cr12, {1}
    92a4:	e0643003 	rsb	r3, r4, r3
    92a8:	e1580003 	cmp	r8, r3
    92ac:	8afffffb 	bhi	92a0 <sw_uart_putc+0x80>
    92b0:	e0888005 	add	r8, r8, r5
    92b4:	e1a00006 	mov	r0, r6
    92b8:	e2071008 	and	r1, r7, #8
    92bc:	ebffff06 	bl	8edc <gpio_write>
    92c0:	ee1f3f3c 	mrc	15, 0, r3, cr15, cr12, {1}
    92c4:	e0643003 	rsb	r3, r4, r3
    92c8:	e1580003 	cmp	r8, r3
    92cc:	8afffffb 	bhi	92c0 <sw_uart_putc+0xa0>
    92d0:	e0888005 	add	r8, r8, r5
    92d4:	e1a00006 	mov	r0, r6
    92d8:	e2071010 	and	r1, r7, #16
    92dc:	ebfffefe 	bl	8edc <gpio_write>
    92e0:	ee1f3f3c 	mrc	15, 0, r3, cr15, cr12, {1}
    92e4:	e0643003 	rsb	r3, r4, r3
    92e8:	e1580003 	cmp	r8, r3
    92ec:	8afffffb 	bhi	92e0 <sw_uart_putc+0xc0>
    92f0:	e0888005 	add	r8, r8, r5
    92f4:	e1a00006 	mov	r0, r6
    92f8:	e2071020 	and	r1, r7, #32
    92fc:	ebfffef6 	bl	8edc <gpio_write>
    9300:	ee1f3f3c 	mrc	15, 0, r3, cr15, cr12, {1}
    9304:	e0643003 	rsb	r3, r4, r3
    9308:	e1580003 	cmp	r8, r3
    930c:	8afffffb 	bhi	9300 <sw_uart_putc+0xe0>
    9310:	e0888005 	add	r8, r8, r5
    9314:	e1a00006 	mov	r0, r6
    9318:	e2071040 	and	r1, r7, #64	; 0x40
    931c:	ebfffeee 	bl	8edc <gpio_write>
    9320:	ee1f3f3c 	mrc	15, 0, r3, cr15, cr12, {1}
    9324:	e0643003 	rsb	r3, r4, r3
    9328:	e1580003 	cmp	r8, r3
    932c:	8afffffb 	bhi	9320 <sw_uart_putc+0x100>
    9330:	e0888005 	add	r8, r8, r5
    9334:	e1a00006 	mov	r0, r6
    9338:	e2071080 	and	r1, r7, #128	; 0x80
    933c:	ebfffee6 	bl	8edc <gpio_write>
    9340:	ee1f3f3c 	mrc	15, 0, r3, cr15, cr12, {1}
    9344:	e0643003 	rsb	r3, r4, r3
    9348:	e1580003 	cmp	r8, r3
    934c:	8afffffb 	bhi	9340 <sw_uart_putc+0x120>
    9350:	e0885005 	add	r5, r8, r5
    9354:	e1a00006 	mov	r0, r6
    9358:	e3a01001 	mov	r1, #1
    935c:	ebfffede 	bl	8edc <gpio_write>
    9360:	ee1f3f3c 	mrc	15, 0, r3, cr15, cr12, {1}
    9364:	e0643003 	rsb	r3, r4, r3
    9368:	e1550003 	cmp	r5, r3
    936c:	8afffffb 	bhi	9360 <sw_uart_putc+0x140>
    9370:	e8bd81f0 	pop	{r4, r5, r6, r7, r8, pc}

00009374 <sw_uart_getc_timeout>:
    9374:	e92d43f8 	push	{r3, r4, r5, r6, r7, r8, r9, lr}
    9378:	e1a09000 	mov	r9, r0
    937c:	e5d07001 	ldrb	r7, [r0, #1]
    9380:	e1a05007 	mov	r5, r7
    9384:	e1a06001 	mov	r6, r1
    9388:	ebfffe21 	bl	8c14 <timer_get_usec_raw>
    938c:	e1a04000 	mov	r4, r0
    9390:	e1a00005 	mov	r0, r5
    9394:	ebfffebd 	bl	8e90 <gpio_read>
    9398:	e3500000 	cmp	r0, #0
    939c:	0a000005 	beq	93b8 <sw_uart_getc_timeout+0x44>
    93a0:	ebfffe1b 	bl	8c14 <timer_get_usec_raw>
    93a4:	e0640000 	rsb	r0, r4, r0
    93a8:	e1560000 	cmp	r6, r0
    93ac:	2afffff7 	bcs	9390 <sw_uart_getc_timeout+0x1c>
    93b0:	e3a03000 	mov	r3, #0
    93b4:	ea000000 	b	93bc <sw_uart_getc_timeout+0x48>
    93b8:	e3a03001 	mov	r3, #1
    93bc:	e3530000 	cmp	r3, #0
    93c0:	0a000059 	beq	952c <sw_uart_getc_timeout+0x1b8>
    93c4:	ee1f8f3c 	mrc	15, 0, r8, cr15, cr12, {1}
    93c8:	e5994008 	ldr	r4, [r9, #8]
    93cc:	e08420a4 	add	r2, r4, r4, lsr #1
    93d0:	ee1f3f3c 	mrc	15, 0, r3, cr15, cr12, {1}
    93d4:	e0683003 	rsb	r3, r8, r3
    93d8:	e1520003 	cmp	r2, r3
    93dc:	8afffffb 	bhi	93d0 <sw_uart_getc_timeout+0x5c>
    93e0:	e0888004 	add	r8, r8, r4
    93e4:	e1a00007 	mov	r0, r7
    93e8:	ebfffea8 	bl	8e90 <gpio_read>
    93ec:	e1a09750 	asr	r9, r0, r7
    93f0:	ee1f3f3c 	mrc	15, 0, r3, cr15, cr12, {1}
    93f4:	e0683003 	rsb	r3, r8, r3
    93f8:	e1540003 	cmp	r4, r3
    93fc:	8afffffb 	bhi	93f0 <sw_uart_getc_timeout+0x7c>
    9400:	e0888004 	add	r8, r8, r4
    9404:	e1a00007 	mov	r0, r7
    9408:	ebfffea0 	bl	8e90 <gpio_read>
    940c:	e1a00750 	asr	r0, r0, r7
    9410:	e1899080 	orr	r9, r9, r0, lsl #1
    9414:	ee1f3f3c 	mrc	15, 0, r3, cr15, cr12, {1}
    9418:	e0683003 	rsb	r3, r8, r3
    941c:	e1540003 	cmp	r4, r3
    9420:	8afffffb 	bhi	9414 <sw_uart_getc_timeout+0xa0>
    9424:	e0888004 	add	r8, r8, r4
    9428:	e1a00007 	mov	r0, r7
    942c:	ebfffe97 	bl	8e90 <gpio_read>
    9430:	e1a00750 	asr	r0, r0, r7
    9434:	e1899100 	orr	r9, r9, r0, lsl #2
    9438:	ee1f3f3c 	mrc	15, 0, r3, cr15, cr12, {1}
    943c:	e0683003 	rsb	r3, r8, r3
    9440:	e1540003 	cmp	r4, r3
    9444:	8afffffb 	bhi	9438 <sw_uart_getc_timeout+0xc4>
    9448:	e0888004 	add	r8, r8, r4
    944c:	e1a00007 	mov	r0, r7
    9450:	ebfffe8e 	bl	8e90 <gpio_read>
    9454:	e1a00750 	asr	r0, r0, r7
    9458:	e1899180 	orr	r9, r9, r0, lsl #3
    945c:	ee1f3f3c 	mrc	15, 0, r3, cr15, cr12, {1}
    9460:	e0683003 	rsb	r3, r8, r3
    9464:	e1540003 	cmp	r4, r3
    9468:	8afffffb 	bhi	945c <sw_uart_getc_timeout+0xe8>
    946c:	e0888004 	add	r8, r8, r4
    9470:	e1a00007 	mov	r0, r7
    9474:	ebfffe85 	bl	8e90 <gpio_read>
    9478:	e1a00750 	asr	r0, r0, r7
    947c:	e1899200 	orr	r9, r9, r0, lsl #4
    9480:	ee1f3f3c 	mrc	15, 0, r3, cr15, cr12, {1}
    9484:	e0683003 	rsb	r3, r8, r3
    9488:	e1540003 	cmp	r4, r3
    948c:	8afffffb 	bhi	9480 <sw_uart_getc_timeout+0x10c>
    9490:	e0888004 	add	r8, r8, r4
    9494:	e1a00007 	mov	r0, r7
    9498:	ebfffe7c 	bl	8e90 <gpio_read>
    949c:	e1a00750 	asr	r0, r0, r7
    94a0:	e1899280 	orr	r9, r9, r0, lsl #5
    94a4:	ee1f3f3c 	mrc	15, 0, r3, cr15, cr12, {1}
    94a8:	e0683003 	rsb	r3, r8, r3
    94ac:	e1540003 	cmp	r4, r3
    94b0:	8afffffb 	bhi	94a4 <sw_uart_getc_timeout+0x130>
    94b4:	e0888004 	add	r8, r8, r4
    94b8:	e1a00007 	mov	r0, r7
    94bc:	ebfffe73 	bl	8e90 <gpio_read>
    94c0:	e1a00750 	asr	r0, r0, r7
    94c4:	e1899300 	orr	r9, r9, r0, lsl #6
    94c8:	ee1f3f3c 	mrc	15, 0, r3, cr15, cr12, {1}
    94cc:	e0683003 	rsb	r3, r8, r3
    94d0:	e1540003 	cmp	r4, r3
    94d4:	8afffffb 	bhi	94c8 <sw_uart_getc_timeout+0x154>
    94d8:	e1a00007 	mov	r0, r7
    94dc:	ebfffe6b 	bl	8e90 <gpio_read>
    94e0:	e1a00750 	asr	r0, r0, r7
    94e4:	e1899380 	orr	r9, r9, r0, lsl #7
    94e8:	ebfffdc9 	bl	8c14 <timer_get_usec_raw>
    94ec:	e1a04000 	mov	r4, r0
    94f0:	e1a00005 	mov	r0, r5
    94f4:	ebfffe65 	bl	8e90 <gpio_read>
    94f8:	e3500000 	cmp	r0, #0
    94fc:	0a000005 	beq	9518 <sw_uart_getc_timeout+0x1a4>
    9500:	ebfffdc3 	bl	8c14 <timer_get_usec_raw>
    9504:	e0640000 	rsb	r0, r4, r0
    9508:	e1560000 	cmp	r6, r0
    950c:	2afffff7 	bcs	94f0 <sw_uart_getc_timeout+0x17c>
    9510:	e3a03000 	mov	r3, #0
    9514:	ea000000 	b	951c <sw_uart_getc_timeout+0x1a8>
    9518:	e3a03001 	mov	r3, #1
    951c:	e3530000 	cmp	r3, #0
    9520:	0a000003 	beq	9534 <sw_uart_getc_timeout+0x1c0>
    9524:	e1a00009 	mov	r0, r9
    9528:	e8bd83f8 	pop	{r3, r4, r5, r6, r7, r8, r9, pc}
    952c:	e3e00000 	mvn	r0, #0
    9530:	e8bd83f8 	pop	{r3, r4, r5, r6, r7, r8, r9, pc}
    9534:	e3e00000 	mvn	r0, #0
    9538:	e8bd83f8 	pop	{r3, r4, r5, r6, r7, r8, r9, pc}

0000953c <sw_uart_gets_until>:
    953c:	e92d47f0 	push	{r4, r5, r6, r7, r8, r9, sl, lr}
    9540:	e24dd008 	sub	sp, sp, #8
    9544:	e1a08000 	mov	r8, r0
    9548:	e1a06001 	mov	r6, r1
    954c:	e1a09003 	mov	r9, r3
    9550:	e59da028 	ldr	sl, [sp, #40]	; 0x28
    9554:	e3520000 	cmp	r2, #0
    9558:	1a000008 	bne	9580 <sw_uart_gets_until+0x44>
    955c:	ebfffbea 	bl	850c <rpi_reset_putc>
    9560:	e59f3068 	ldr	r3, [pc, #104]	; 95d0 <sw_uart_gets_until+0x94>
    9564:	e58d3000 	str	r3, [sp]
    9568:	e59f0064 	ldr	r0, [pc, #100]	; 95d4 <sw_uart_gets_until+0x98>
    956c:	e59f1064 	ldr	r1, [pc, #100]	; 95d8 <sw_uart_gets_until+0x9c>
    9570:	e59f2064 	ldr	r2, [pc, #100]	; 95dc <sw_uart_gets_until+0xa0>
    9574:	e3a0306d 	mov	r3, #109	; 0x6d
    9578:	ebfffbc8 	bl	84a0 <printk>
    957c:	ebfffd4a 	bl	8aac <clean_reboot>
    9580:	e3a04000 	mov	r4, #0
    9584:	e5c14000 	strb	r4, [r1]
    9588:	e2427001 	sub	r7, r2, #1
    958c:	ea000007 	b	95b0 <sw_uart_gets_until+0x74>
    9590:	e1a00008 	mov	r0, r8
    9594:	e1a0100a 	mov	r1, sl
    9598:	ebffff75 	bl	9374 <sw_uart_getc_timeout>
    959c:	e6ef0070 	uxtb	r0, r0
    95a0:	e1500009 	cmp	r0, r9
    95a4:	0a000004 	beq	95bc <sw_uart_gets_until+0x80>
    95a8:	e7c60005 	strb	r0, [r6, r5]
    95ac:	e2844001 	add	r4, r4, #1
    95b0:	e1a05004 	mov	r5, r4
    95b4:	e1540007 	cmp	r4, r7
    95b8:	3afffff4 	bcc	9590 <sw_uart_gets_until+0x54>
    95bc:	e3a03000 	mov	r3, #0
    95c0:	e7c63005 	strb	r3, [r6, r5]
    95c4:	e1a00004 	mov	r0, r4
    95c8:	e28dd008 	add	sp, sp, #8
    95cc:	e8bd87f0 	pop	{r4, r5, r6, r7, r8, r9, sl, pc}
    95d0:	00009d7c 	andeq	r9, r0, ip, ror sp
    95d4:	00009bf0 	strdeq	r9, [r0], -r0
    95d8:	00009d68 	andeq	r9, r0, r8, ror #26
    95dc:	00009cf0 	strdeq	r9, [r0], -r0

000095e0 <sw_uart_gets_timeout>:
    95e0:	e92d41f0 	push	{r4, r5, r6, r7, r8, lr}
    95e4:	e24dd008 	sub	sp, sp, #8
    95e8:	e1a07000 	mov	r7, r0
    95ec:	e1a05001 	mov	r5, r1
    95f0:	e1a08003 	mov	r8, r3
    95f4:	e3520000 	cmp	r2, #0
    95f8:	1a000008 	bne	9620 <sw_uart_gets_timeout+0x40>
    95fc:	ebfffbc2 	bl	850c <rpi_reset_putc>
    9600:	e59f3058 	ldr	r3, [pc, #88]	; 9660 <sw_uart_gets_timeout+0x80>
    9604:	e58d3000 	str	r3, [sp]
    9608:	e59f0054 	ldr	r0, [pc, #84]	; 9664 <sw_uart_gets_timeout+0x84>
    960c:	e59f1054 	ldr	r1, [pc, #84]	; 9668 <sw_uart_gets_timeout+0x88>
    9610:	e59f2054 	ldr	r2, [pc, #84]	; 966c <sw_uart_gets_timeout+0x8c>
    9614:	e3a03083 	mov	r3, #131	; 0x83
    9618:	ebfffba0 	bl	84a0 <printk>
    961c:	ebfffd22 	bl	8aac <clean_reboot>
    9620:	e3a04000 	mov	r4, #0
    9624:	e5c14000 	strb	r4, [r1]
    9628:	e2426001 	sub	r6, r2, #1
    962c:	ea000004 	b	9644 <sw_uart_gets_timeout+0x64>
    9630:	e1a00007 	mov	r0, r7
    9634:	e1a01008 	mov	r1, r8
    9638:	ebffff4d 	bl	9374 <sw_uart_getc_timeout>
    963c:	e7c50004 	strb	r0, [r5, r4]
    9640:	e2844001 	add	r4, r4, #1
    9644:	e1540006 	cmp	r4, r6
    9648:	3afffff8 	bcc	9630 <sw_uart_gets_timeout+0x50>
    964c:	e3a03000 	mov	r3, #0
    9650:	e7c53004 	strb	r3, [r5, r4]
    9654:	e1a00004 	mov	r0, r4
    9658:	e28dd008 	add	sp, sp, #8
    965c:	e8bd81f0 	pop	{r4, r5, r6, r7, r8, pc}
    9660:	00009d7c 	andeq	r9, r0, ip, ror sp
    9664:	00009bf0 	strdeq	r9, [r0], -r0
    9668:	00009d68 	andeq	r9, r0, r8, ror #26
    966c:	00009d04 	andeq	r9, r0, r4, lsl #26

00009670 <sw_uart_init_helper>:
    9670:	e92d41f0 	push	{r4, r5, r6, r7, r8, lr}
    9674:	e24dd008 	sub	sp, sp, #8
    9678:	e1a04000 	mov	r4, r0
    967c:	e1a06001 	mov	r6, r1
    9680:	e1a08002 	mov	r8, r2
    9684:	e1a05003 	mov	r5, r3
    9688:	e59d7020 	ldr	r7, [sp, #32]
    968c:	e1a00001 	mov	r0, r1
    9690:	ebfffd7a 	bl	8c80 <gpio_set_output>
    9694:	e1a00008 	mov	r0, r8
    9698:	ebfffdc9 	bl	8dc4 <gpio_set_input>
    969c:	e3a03001 	mov	r3, #1
    96a0:	ee0f3f1c 	mcr	15, 0, r3, cr15, cr12, {0}
    96a4:	e1a00006 	mov	r0, r6
    96a8:	e3a01001 	mov	r1, #1
    96ac:	ebfffe0a 	bl	8edc <gpio_write>
    96b0:	e0020795 	mul	r2, r5, r7
    96b4:	e59f3074 	ldr	r3, [pc, #116]	; 9730 <sw_uart_init_helper+0xc0>
    96b8:	e0653003 	rsb	r3, r5, r3
    96bc:	e1530002 	cmp	r3, r2
    96c0:	8a000005 	bhi	96dc <sw_uart_init_helper+0x6c>
    96c4:	e59f3064 	ldr	r3, [pc, #100]	; 9730 <sw_uart_init_helper+0xc0>
    96c8:	e0853003 	add	r3, r5, r3
    96cc:	e1530002 	cmp	r3, r2
    96d0:	2a000003 	bcs	96e4 <sw_uart_init_helper+0x74>
    96d4:	e3a03000 	mov	r3, #0
    96d8:	ea000002 	b	96e8 <sw_uart_init_helper+0x78>
    96dc:	e3a03000 	mov	r3, #0
    96e0:	ea000000 	b	96e8 <sw_uart_init_helper+0x78>
    96e4:	e3a03001 	mov	r3, #1
    96e8:	e3530000 	cmp	r3, #0
    96ec:	1a000008 	bne	9714 <sw_uart_init_helper+0xa4>
    96f0:	ebfffb85 	bl	850c <rpi_reset_putc>
    96f4:	e59f3038 	ldr	r3, [pc, #56]	; 9734 <sw_uart_init_helper+0xc4>
    96f8:	e58d3000 	str	r3, [sp]
    96fc:	e59f0034 	ldr	r0, [pc, #52]	; 9738 <sw_uart_init_helper+0xc8>
    9700:	e59f1034 	ldr	r1, [pc, #52]	; 973c <sw_uart_init_helper+0xcc>
    9704:	e59f2034 	ldr	r2, [pc, #52]	; 9740 <sw_uart_init_helper+0xd0>
    9708:	e3a0309d 	mov	r3, #157	; 0x9d
    970c:	ebfffb63 	bl	84a0 <printk>
    9710:	ebfffce5 	bl	8aac <clean_reboot>
    9714:	e5c46000 	strb	r6, [r4]
    9718:	e5c48001 	strb	r8, [r4, #1]
    971c:	e5845004 	str	r5, [r4, #4]
    9720:	e5847008 	str	r7, [r4, #8]
    9724:	e1a00004 	mov	r0, r4
    9728:	e28dd008 	add	sp, sp, #8
    972c:	e8bd81f0 	pop	{r4, r5, r6, r7, r8, pc}
    9730:	29b92700 	ldmibcs	r9!, {r8, r9, sl, sp}
    9734:	00009d88 	andeq	r9, r0, r8, lsl #27
    9738:	00009bf0 	strdeq	r9, [r0], -r0
    973c:	00009d68 	andeq	r9, r0, r8, ror #26
    9740:	00009d1c 	andeq	r9, r0, ip, lsl sp

00009744 <sw_uart_getc>:
    9744:	e92d4008 	push	{r3, lr}
    9748:	e3e01000 	mvn	r1, #0
    974c:	ebffff08 	bl	9374 <sw_uart_getc_timeout>
    9750:	e3500000 	cmp	r0, #0
    9754:	a8bd8008 	popge	{r3, pc}
    9758:	ebfffb6b 	bl	850c <rpi_reset_putc>
    975c:	e59f0010 	ldr	r0, [pc, #16]	; 9774 <sw_uart_getc+0x30>
    9760:	e59f1010 	ldr	r1, [pc, #16]	; 9778 <sw_uart_getc+0x34>
    9764:	e59f2010 	ldr	r2, [pc, #16]	; 977c <sw_uart_getc+0x38>
    9768:	e3a030ac 	mov	r3, #172	; 0xac
    976c:	ebfffb4b 	bl	84a0 <printk>
    9770:	ebfffccd 	bl	8aac <clean_reboot>
    9774:	00009dbc 			; <UNDEFINED> instruction: 0x00009dbc
    9778:	00009d68 	andeq	r9, r0, r8, ror #26
    977c:	00009d30 	andeq	r9, r0, r0, lsr sp

00009780 <sw_uart_putk>:
    9780:	e92d4038 	push	{r3, r4, r5, lr}
    9784:	e1a05000 	mov	r5, r0
    9788:	e1a04001 	mov	r4, r1
    978c:	ea000002 	b	979c <sw_uart_putk+0x1c>
    9790:	e1a00005 	mov	r0, r5
    9794:	ebfffea1 	bl	9220 <sw_uart_putc>
    9798:	e2844001 	add	r4, r4, #1
    979c:	e5d41000 	ldrb	r1, [r4]
    97a0:	e3510000 	cmp	r1, #0
    97a4:	1afffff9 	bne	9790 <sw_uart_putk+0x10>
    97a8:	e8bd8038 	pop	{r3, r4, r5, pc}

000097ac <sw_uart_printk>:
    97ac:	e92d000e 	push	{r1, r2, r3}
    97b0:	e92d4030 	push	{r4, r5, lr}
    97b4:	e24ddf76 	sub	sp, sp, #472	; 0x1d8
    97b8:	e1a05000 	mov	r5, r0
    97bc:	e28d3f7a 	add	r3, sp, #488	; 0x1e8
    97c0:	e58d3008 	str	r3, [sp, #8]
    97c4:	e28d000c 	add	r0, sp, #12
    97c8:	e3a01f73 	mov	r1, #460	; 0x1cc
    97cc:	e59d21e4 	ldr	r2, [sp, #484]	; 0x1e4
    97d0:	ebfffc08 	bl	87f8 <va_printk>
    97d4:	e1a04000 	mov	r4, r0
    97d8:	e59f3048 	ldr	r3, [pc, #72]	; 9828 <sw_uart_printk+0x7c>
    97dc:	e1500003 	cmp	r0, r3
    97e0:	9a000008 	bls	9808 <sw_uart_printk+0x5c>
    97e4:	ebfffb48 	bl	850c <rpi_reset_putc>
    97e8:	e59f303c 	ldr	r3, [pc, #60]	; 982c <sw_uart_printk+0x80>
    97ec:	e58d3000 	str	r3, [sp]
    97f0:	e59f0038 	ldr	r0, [pc, #56]	; 9830 <sw_uart_printk+0x84>
    97f4:	e59f1038 	ldr	r1, [pc, #56]	; 9834 <sw_uart_printk+0x88>
    97f8:	e59f2038 	ldr	r2, [pc, #56]	; 9838 <sw_uart_printk+0x8c>
    97fc:	e3a030c0 	mov	r3, #192	; 0xc0
    9800:	ebfffb26 	bl	84a0 <printk>
    9804:	ebfffca8 	bl	8aac <clean_reboot>
    9808:	e1a00005 	mov	r0, r5
    980c:	e28d100c 	add	r1, sp, #12
    9810:	ebffffda 	bl	9780 <sw_uart_putk>
    9814:	e1a00004 	mov	r0, r4
    9818:	e28ddf76 	add	sp, sp, #472	; 0x1d8
    981c:	e8bd4030 	pop	{r4, r5, lr}
    9820:	e28dd00c 	add	sp, sp, #12
    9824:	e12fff1e 	bx	lr
    9828:	000001ca 	andeq	r0, r0, sl, asr #3
    982c:	00009df4 	strdeq	r9, [r0], -r4
    9830:	00009bf0 	strdeq	r9, [r0], -r0
    9834:	00009d68 	andeq	r9, r0, r8, ror #26
    9838:	00009d40 	andeq	r9, r0, r0, asr #26

0000983c <sw_uart_gets_until_blk>:
    983c:	e52de004 	push	{lr}		; (str lr, [sp, #-4]!)
    9840:	e24dd00c 	sub	sp, sp, #12
    9844:	e3e0c000 	mvn	ip, #0
    9848:	e58dc000 	str	ip, [sp]
    984c:	ebffff3a 	bl	953c <sw_uart_gets_until>
    9850:	e3500000 	cmp	r0, #0
    9854:	aa000006 	bge	9874 <sw_uart_gets_until_blk+0x38>
    9858:	ebfffb2b 	bl	850c <rpi_reset_putc>
    985c:	e59f0018 	ldr	r0, [pc, #24]	; 987c <sw_uart_gets_until_blk+0x40>
    9860:	e59f1018 	ldr	r1, [pc, #24]	; 9880 <sw_uart_gets_until_blk+0x44>
    9864:	e59f2018 	ldr	r2, [pc, #24]	; 9884 <sw_uart_gets_until_blk+0x48>
    9868:	e3a030c8 	mov	r3, #200	; 0xc8
    986c:	ebfffb0b 	bl	84a0 <printk>
    9870:	ebfffc8d 	bl	8aac <clean_reboot>
    9874:	e28dd00c 	add	sp, sp, #12
    9878:	e49df004 	pop	{pc}		; (ldr pc, [sp], #4)
    987c:	00009dbc 			; <UNDEFINED> instruction: 0x00009dbc
    9880:	00009d68 	andeq	r9, r0, r8, ror #26
    9884:	00009d50 	andeq	r9, r0, r0, asr sp

00009888 <uart_init>:
    9888:	e92d4038 	push	{r3, r4, r5, lr}
    988c:	eb000052 	bl	99dc <dev_barrier>
    9890:	e3a0000e 	mov	r0, #14
    9894:	e3a01002 	mov	r1, #2
    9898:	ebfffd98 	bl	8f00 <gpio_set_function>
    989c:	e3a0000f 	mov	r0, #15
    98a0:	e3a01002 	mov	r1, #2
    98a4:	ebfffd95 	bl	8f00 <gpio_set_function>
    98a8:	eb00004b 	bl	99dc <dev_barrier>
    98ac:	e59f4068 	ldr	r4, [pc, #104]	; 991c <uart_init+0x94>
    98b0:	e5945000 	ldr	r5, [r4]
    98b4:	e1a00005 	mov	r0, r5
    98b8:	eb000059 	bl	9a24 <get32>
    98bc:	e3801001 	orr	r1, r0, #1
    98c0:	e1a00005 	mov	r0, r5
    98c4:	eb00004a 	bl	99f4 <put32>
    98c8:	eb000043 	bl	99dc <dev_barrier>
    98cc:	e5940004 	ldr	r0, [r4, #4]
    98d0:	e3a01000 	mov	r1, #0
    98d4:	eb000046 	bl	99f4 <put32>
    98d8:	e5940008 	ldr	r0, [r4, #8]
    98dc:	e3a01000 	mov	r1, #0
    98e0:	eb000043 	bl	99f4 <put32>
    98e4:	e594000c 	ldr	r0, [r4, #12]
    98e8:	e3a01006 	mov	r1, #6
    98ec:	eb000040 	bl	99f4 <put32>
    98f0:	e5940010 	ldr	r0, [r4, #16]
    98f4:	e3a01003 	mov	r1, #3
    98f8:	eb00003d 	bl	99f4 <put32>
    98fc:	e5940014 	ldr	r0, [r4, #20]
    9900:	e59f1018 	ldr	r1, [pc, #24]	; 9920 <uart_init+0x98>
    9904:	eb00003a 	bl	99f4 <put32>
    9908:	e5940004 	ldr	r0, [r4, #4]
    990c:	e3a01003 	mov	r1, #3
    9910:	eb000037 	bl	99f4 <put32>
    9914:	eb000030 	bl	99dc <dev_barrier>
    9918:	e8bd8038 	pop	{r3, r4, r5, pc}
    991c:	00009b18 	andeq	r9, r0, r8, lsl fp
    9920:	0000010e 	andeq	r0, r0, lr, lsl #2

00009924 <uart_can_getc>:
    9924:	e92d4008 	push	{r3, lr}
    9928:	e59f300c 	ldr	r3, [pc, #12]	; 993c <uart_can_getc+0x18>
    992c:	e5930018 	ldr	r0, [r3, #24]
    9930:	eb00003b 	bl	9a24 <get32>
    9934:	e2000001 	and	r0, r0, #1
    9938:	e8bd8008 	pop	{r3, pc}
    993c:	00009b18 	andeq	r9, r0, r8, lsl fp

00009940 <uart_getc>:
    9940:	e92d4008 	push	{r3, lr}
    9944:	ebfffff6 	bl	9924 <uart_can_getc>
    9948:	e3500000 	cmp	r0, #0
    994c:	0afffffc 	beq	9944 <uart_getc+0x4>
    9950:	e59f300c 	ldr	r3, [pc, #12]	; 9964 <uart_getc+0x24>
    9954:	e593001c 	ldr	r0, [r3, #28]
    9958:	eb000031 	bl	9a24 <get32>
    995c:	e6ef0070 	uxtb	r0, r0
    9960:	e8bd8008 	pop	{r3, pc}
    9964:	00009b18 	andeq	r9, r0, r8, lsl fp

00009968 <uart_can_putc>:
    9968:	e92d4008 	push	{r3, lr}
    996c:	e59f300c 	ldr	r3, [pc, #12]	; 9980 <uart_can_putc+0x18>
    9970:	e5930018 	ldr	r0, [r3, #24]
    9974:	eb00002a 	bl	9a24 <get32>
    9978:	e2000020 	and	r0, r0, #32
    997c:	e8bd8008 	pop	{r3, pc}
    9980:	00009b18 	andeq	r9, r0, r8, lsl fp

00009984 <uart_putc>:
    9984:	e92d4010 	push	{r4, lr}
    9988:	e1a04000 	mov	r4, r0
    998c:	ebfffff5 	bl	9968 <uart_can_putc>
    9990:	e3500000 	cmp	r0, #0
    9994:	0afffffc 	beq	998c <uart_putc+0x8>
    9998:	e59f300c 	ldr	r3, [pc, #12]	; 99ac <uart_putc+0x28>
    999c:	e593001c 	ldr	r0, [r3, #28]
    99a0:	e1a01004 	mov	r1, r4
    99a4:	eb000012 	bl	99f4 <put32>
    99a8:	e8bd8010 	pop	{r4, pc}
    99ac:	00009b18 	andeq	r9, r0, r8, lsl fp

000099b0 <uart_has_data>:
    99b0:	e92d4008 	push	{r3, lr}
    99b4:	ebffffda 	bl	9924 <uart_can_getc>
    99b8:	e8bd8008 	pop	{r3, pc}

000099bc <uart_getc_async>:
    99bc:	e92d4008 	push	{r3, lr}
    99c0:	ebfffffa 	bl	99b0 <uart_has_data>
    99c4:	e3500000 	cmp	r0, #0
    99c8:	0a000001 	beq	99d4 <uart_getc_async+0x18>
    99cc:	ebffffdb 	bl	9940 <uart_getc>
    99d0:	e8bd8008 	pop	{r3, pc}
    99d4:	e3e00000 	mvn	r0, #0
    99d8:	e8bd8008 	pop	{r3, pc}

000099dc <dev_barrier>:
    99dc:	ea000002 	b	99ec <dsb>

000099e0 <dmb>:
    99e0:	e3a00000 	mov	r0, #0
    99e4:	ee070fba 	mcr	15, 0, r0, cr7, cr10, {5}
    99e8:	e12fff1e 	bx	lr

000099ec <dsb>:
    99ec:	ee070f9a 	mcr	15, 0, r0, cr7, cr10, {4}
    99f0:	e12fff1e 	bx	lr

000099f4 <put32>:
    99f4:	e5801000 	str	r1, [r0]
    99f8:	e12fff1e 	bx	lr

000099fc <PUT32>:
    99fc:	e5801000 	str	r1, [r0]
    9a00:	e12fff1e 	bx	lr

00009a04 <put16>:
    9a04:	e1c010b0 	strh	r1, [r0]
    9a08:	e12fff1e 	bx	lr

00009a0c <PUT16>:
    9a0c:	e1c010b0 	strh	r1, [r0]
    9a10:	e12fff1e 	bx	lr

00009a14 <put8>:
    9a14:	e5c01000 	strb	r1, [r0]
    9a18:	e12fff1e 	bx	lr

00009a1c <PUT8>:
    9a1c:	e5c01000 	strb	r1, [r0]
    9a20:	e12fff1e 	bx	lr

00009a24 <get32>:
    9a24:	e5900000 	ldr	r0, [r0]
    9a28:	e12fff1e 	bx	lr

00009a2c <GET32>:
    9a2c:	e5900000 	ldr	r0, [r0]
    9a30:	e12fff1e 	bx	lr

00009a34 <GETPC>:
    9a34:	e1a0000e 	mov	r0, lr
    9a38:	e12fff1e 	bx	lr

00009a3c <dummy>:
    9a3c:	e12fff1e 	bx	lr

00009a40 <cb_new>:
    9a40:	e92d4008 	push	{r3, lr}
    9a44:	e3a00409 	mov	r0, #150994944	; 0x9000000
    9a48:	e3a01000 	mov	r1, #0
    9a4c:	e3a02004 	mov	r2, #4
    9a50:	eb00000e 	bl	9a90 <memset>
    9a54:	e3a00409 	mov	r0, #150994944	; 0x9000000
    9a58:	e59f3004 	ldr	r3, [pc, #4]	; 9a64 <cb_new+0x24>
    9a5c:	e5803000 	str	r3, [r0]
    9a60:	e8bd8008 	pop	{r3, pc}
    9a64:	12345678 	eorsne	r5, r4, #120, 12	; 0x7800000

00009a68 <cb_get_block>:
    9a68:	e3a03409 	mov	r3, #150994944	; 0x9000000
    9a6c:	e5932000 	ldr	r2, [r3]
    9a70:	e59f3014 	ldr	r3, [pc, #20]	; 9a8c <cb_get_block+0x24>
    9a74:	e1520003 	cmp	r2, r3
    9a78:	0a000001 	beq	9a84 <cb_get_block+0x1c>
    9a7c:	e3a00000 	mov	r0, #0
    9a80:	e12fff1e 	bx	lr
    9a84:	e3a00409 	mov	r0, #150994944	; 0x9000000
    9a88:	e12fff1e 	bx	lr
    9a8c:	12345678 	eorsne	r5, r4, #120, 12	; 0x7800000

00009a90 <memset>:
    9a90:	e0802002 	add	r2, r0, r2
    9a94:	e1a03000 	mov	r3, r0
    9a98:	ea000001 	b	9aa4 <memset+0x14>
    9a9c:	e5c31000 	strb	r1, [r3]
    9aa0:	e2833001 	add	r3, r3, #1
    9aa4:	e1530002 	cmp	r3, r2
    9aa8:	3afffffb 	bcc	9a9c <memset+0xc>
    9aac:	e12fff1e 	bx	lr

Disassembly of section .data:

00009ab0 <rpi_putchar>:
    9ab0:	000084f8 	strdeq	r8, [r0], -r8	; <UNPREDICTABLE>

00009ab4 <putk>:
    9ab4:	00008534 	andeq	r8, r0, r4, lsr r5

00009ab8 <GPFSEL0>:
    9ab8:	20200000 	eorcs	r0, r0, r0

00009abc <GPFSEL1>:
    9abc:	20200004 	eorcs	r0, r0, r4

00009ac0 <GPFSEL2>:
    9ac0:	20200008 	eorcs	r0, r0, r8

00009ac4 <GPFSEL3>:
    9ac4:	2020000c 	eorcs	r0, r0, ip

00009ac8 <GPFSEL4>:
    9ac8:	20200010 	eorcs	r0, r0, r0, lsl r0

00009acc <GPFSEL5>:
    9acc:	20200014 	eorcs	r0, r0, r4, lsl r0

00009ad0 <GPSET0>:
    9ad0:	2020001c 	eorcs	r0, r0, ip, lsl r0

00009ad4 <GPSET1>:
    9ad4:	20200020 	eorcs	r0, r0, r0, lsr #32

00009ad8 <GPCLR0>:
    9ad8:	20200028 	eorcs	r0, r0, r8, lsr #32

00009adc <GPCLR1>:
    9adc:	2020002c 	eorcs	r0, r0, ip, lsr #32

00009ae0 <GPLEV0>:
    9ae0:	20200034 	eorcs	r0, r0, r4, lsr r0

00009ae4 <GPLEV1>:
    9ae4:	20200038 	eorcs	r0, r0, r8, lsr r0

00009ae8 <IRQ_PENDING_2>:
    9ae8:	2000b208 	andcs	fp, r0, r8, lsl #4

00009aec <GPREN0>:
    9aec:	2020004c 	eorcs	r0, r0, ip, asr #32

00009af0 <GPREN1>:
    9af0:	20200050 	eorcs	r0, r0, r0, asr r0

00009af4 <ENABLE_IRQS_2>:
    9af4:	2000b214 	andcs	fp, r0, r4, lsl r2

00009af8 <GPFEN0>:
    9af8:	20200058 	eorcs	r0, r0, r8, asr r0

00009afc <GPFEN1>:
    9afc:	2020005c 	eorcs	r0, r0, ip, asr r0

00009b00 <GPEDS0>:
    9b00:	20200040 	eorcs	r0, r0, r0, asr #32

00009b04 <GPEDS1>:
    9b04:	20200044 	eorcs	r0, r0, r4, asr #32

00009b08 <IRQ_PENDING_1>:
    9b08:	2000b204 	andcs	fp, r0, r4, lsl #4

00009b0c <gpio_clr0>:
    9b0c:	20200028 	eorcs	r0, r0, r8, lsr #32

00009b10 <gpio_set0>:
    9b10:	2020001c 	eorcs	r0, r0, ip, lsl r0

00009b14 <gpio_fsel0>:
    9b14:	20200000 	eorcs	r0, r0, r0

00009b18 <AUX_ENABLES>:
    9b18:	20215004 	eorcs	r5, r1, r4

00009b1c <AUX_MU_CNTL_REG>:
    9b1c:	20215060 	eorcs	r5, r1, r0, rrx

00009b20 <AUX_MU_IER_REG>:
    9b20:	20215044 	eorcs	r5, r1, r4, asr #32

00009b24 <AUX_MU_IIR_REG>:
    9b24:	20215048 	eorcs	r5, r1, r8, asr #32

00009b28 <AUX_MU_LCR_REG>:
    9b28:	2021504c 	eorcs	r5, r1, ip, asr #32

00009b2c <AUX_MU_BAUD_REG>:
    9b2c:	20215068 	eorcs	r5, r1, r8, rrx

00009b30 <AUX_MU_LSR_REG>:
    9b30:	20215054 	eorcs	r5, r1, r4, asr r0

00009b34 <AUX_MU_IO_REG>:
    9b34:	20215040 	eorcs	r5, r1, r0, asr #32

00009b38 <AUX_MU_STAT_REG>:
    9b38:	20215064 	eorcs	r5, r1, r4, rrx

00009b3c <AUX_MU_SCRATCH>:
    9b3c:	2021505c 	eorcs	r5, r1, ip, asr r0

00009b40 <AUX_MU_MSR_REG>:
    9b40:	20215058 	eorcs	r5, r1, r8, asr r0

00009b44 <AUX_MU_MCR_REG>:
    9b44:	20215050 	eorcs	r5, r1, r0, asr r0

00009b48 <AUX_IRQ>:
    9b48:	20215000 	eorcs	r5, r1, r0

Disassembly of section .rodata:

00009b4c <__FUNCTION__.4238>:
    9b4c:	6c637963 	stclvs	9, cr7, [r3], #-396	; 0xfffffe74
    9b50:	705f7365 	subsvc	r7, pc, r5, ror #6
    9b54:	735f7265 	cmpvc	pc, #1342177286	; 0x50000006
    9b58:	00006365 	andeq	r6, r0, r5, ror #6
    9b5c:	4f525245 	svcmi	0x00525245
    9b60:	73253a52 	teqvc	r5, #335872	; 0x52000
    9b64:	3a73253a 	bcc	1cd3054 <__bss_end__+0x1cc8e3c>
    9b68:	203a6425 	eorscs	r6, sl, r5, lsr #8
    9b6c:	534c4146 	movtpl	r4, #49478	; 0xc146
    9b70:	733c2845 	teqvc	ip, #4521984	; 0x450000
    9b74:	32203c20 	eorcc	r3, r0, #32, 24	; 0x2000
    9b78:	203a293e 	eorscs	r2, sl, lr, lsr r9
    9b7c:	6c6c6977 	stclvs	9, cr6, [ip], #-476	; 0xfffffe24
    9b80:	65766f20 	ldrbvs	r6, [r6, #-3872]!	; 0xf20
    9b84:	6f6c6672 	svcvs	0x006c6672
    9b88:	00000a77 	andeq	r0, r0, r7, ror sl
    9b8c:	706f6373 	rsbvc	r6, pc, r3, ror r3	; <UNPREDICTABLE>
    9b90:	00632e65 	rsbeq	r2, r3, r5, ror #28
    9b94:	61206d61 	teqvs	r0, r1, ror #26
    9b98:	696c6320 	stmdbvs	ip!, {r5, r8, r9, sp, lr}^
    9b9c:	2c746e65 	ldclcs	14, cr6, [r4], #-404	; 0xfffffe6c
    9ba0:	69617720 	stmdbvs	r1!, {r5, r8, r9, sl, ip, sp, lr}^
    9ba4:	676e6974 			; <UNDEFINED> instruction: 0x676e6974
    9ba8:	0a203020 	beq	815c30 <__bss_end__+0x80ba18>
    9bac:	00000000 	andeq	r0, r0, r0
    9bb0:	65696c63 	strbvs	r6, [r9, #-3171]!	; 0xc63
    9bb4:	6420746e 	strtvs	r7, [r0], #-1134	; 0x46e
    9bb8:	3a656e6f 	bcc	196557c <__bss_end__+0x195b364>
    9bbc:	646e6520 	strbtvs	r6, [lr], #-1312	; 0x520
    9bc0:	77206465 	strvc	r6, [r0, -r5, ror #8]!
    9bc4:	20687469 	rsbcs	r7, r8, r9, ror #8
    9bc8:	000a6425 	andeq	r6, sl, r5, lsr #8

00009bcc <__FUNCTION__.4265>:
    9bcc:	74696d65 	strbtvc	r6, [r9], #-3429	; 0xd65
    9bd0:	00000000 	andeq	r0, r0, r0

00009bd4 <__FUNCTION__.4213>:
    9bd4:	5f697072 	svcpl	0x00697072
    9bd8:	5f746573 	svcpl	0x00746573
    9bdc:	7074756f 	rsbsvc	r7, r4, pc, ror #10
    9be0:	00007475 	andeq	r7, r0, r5, ror r4

00009be4 <__FUNCTION__.4287>:
    9be4:	705f6176 	subsvc	r6, pc, r6, ror r1	; <UNPREDICTABLE>
    9be8:	746e6972 	strbtvc	r6, [lr], #-2418	; 0x972
    9bec:	0000006b 	andeq	r0, r0, fp, rrx
    9bf0:	494e4150 	stmdbmi	lr, {r4, r6, r8, lr}^
    9bf4:	73253a43 	teqvc	r5, #274432	; 0x43000
    9bf8:	3a73253a 	bcc	1cd30e8 <__bss_end__+0x1cc8ed0>
    9bfc:	253a6425 	ldrcs	r6, [sl, #-1061]!	; 0x425
    9c00:	00000a73 	andeq	r0, r0, r3, ror sl
    9c04:	6362696c 	cmnvs	r2, #108, 18	; 0x1b0000
    9c08:	2d61762f 	stclcs	6, cr7, [r1, #-188]!	; 0xffffff44
    9c0c:	6e697270 	mcrvs	2, 3, r7, cr9, cr0, {3}
    9c10:	632e6b74 	teqvs	lr, #116, 22	; 0x1d000
    9c14:	00000000 	andeq	r0, r0, r0
    9c18:	00000030 	andeq	r0, r0, r0, lsr r0
    9c1c:	33323130 	teqcc	r2, #48, 2
    9c20:	37363534 			; <UNDEFINED> instruction: 0x37363534
    9c24:	00003938 	andeq	r3, r0, r8, lsr r9
    9c28:	33323130 	teqcc	r2, #48, 2
    9c2c:	37363534 			; <UNDEFINED> instruction: 0x37363534
    9c30:	62613938 	rsbvs	r3, r1, #56, 18	; 0xe0000
    9c34:	66656463 	strbtvs	r6, [r5], -r3, ror #8
    9c38:	00000000 	andeq	r0, r0, r0
    9c3c:	00003130 	andeq	r3, r0, r0, lsr r1
    9c40:	63747570 	cmnvs	r4, #112, 10	; 0x1c000000
    9c44:	0070665f 	rsbseq	r6, r0, pc, asr r6
    9c48:	74646977 	strbtvc	r6, [r4], #-2423	; 0x977
    9c4c:	203c2068 	eorscs	r2, ip, r8, rrx
    9c50:	00003233 	andeq	r3, r0, r3, lsr r2
    9c54:	494e4150 	stmdbmi	lr, {r4, r6, r8, lr}^
    9c58:	73253a43 	teqvc	r5, #274432	; 0x43000
    9c5c:	3a73253a 	bcc	1cd314c <__bss_end__+0x1cc8f34>
    9c60:	663a6425 	ldrtvs	r6, [sl], -r5, lsr #8
    9c64:	74616f6c 	strbtvc	r6, [r1], #-3948	; 0xf6c
    9c68:	746f6e20 	strbtvc	r6, [pc], #-3616	; 9c70 <__FUNCTION__.4287+0x8c>
    9c6c:	616e6520 	cmnvs	lr, r0, lsr #10
    9c70:	64656c62 	strbtvs	r6, [r5], #-3170	; 0xc62
    9c74:	0a212121 	beq	852100 <__bss_end__+0x847ee8>
    9c78:	00000000 	andeq	r0, r0, r0
    9c7c:	494e4150 	stmdbmi	lr, {r4, r6, r8, lr}^
    9c80:	73253a43 	teqvc	r5, #274432	; 0x43000
    9c84:	3a73253a 	bcc	1cd3174 <__bss_end__+0x1cc8f5c>
    9c88:	703a6425 	eorsvc	r6, sl, r5, lsr #8
    9c8c:	746e6972 	strbtvc	r6, [lr], #-2418	; 0x972
    9c90:	6e203a6b 	vnmulvs.f32	s6, s0, s23
    9c94:	6820746f 	stmdavs	r0!, {r0, r1, r2, r3, r5, r6, sl, ip, sp, lr}
    9c98:	6c646e61 	stclvs	14, cr6, [r4], #-388	; 0xfffffe7c
    9c9c:	20676e69 	rsbcs	r6, r7, r9, ror #28
    9ca0:	63657073 	cmnvs	r5, #115	; 0x73
    9ca4:	65696669 	strbvs	r6, [r9, #-1641]!	; 0x669
    9ca8:	25272072 	strcs	r2, [r7, #-114]!	; 0x72
    9cac:	0a0a2763 	beq	293a40 <__bss_end__+0x289828>
    9cb0:	00000000 	andeq	r0, r0, r0
    9cb4:	454e4f44 	strbmi	r4, [lr, #-3908]	; 0xf44
    9cb8:	0a212121 	beq	852144 <__bss_end__+0x847f2c>
    9cbc:	00000000 	andeq	r0, r0, r0
    9cc0:	756f6261 	strbvc	r6, [pc, #-609]!	; 9a67 <cb_new+0x27>
    9cc4:	6f742074 	svcvs	0x00742074
    9cc8:	69727020 	ldmdbvs	r2!, {r5, ip, sp, lr}^
    9ccc:	6f20746e 	svcvs	0x0020746e
    9cd0:	6572206e 	ldrbvs	r2, [r2, #-110]!	; 0x6e
    9cd4:	616c7567 	cmnvs	ip, r7, ror #10
    9cd8:	72702072 	rsbsvc	r2, r0, #114	; 0x72
    9cdc:	66746e69 	ldrbtvs	r6, [r4], -r9, ror #28
    9ce0:	0000000a 	andeq	r0, r0, sl
    9ce4:	63637573 	cmnvs	r3, #482344960	; 0x1cc00000
    9ce8:	21737365 	cmncs	r3, r5, ror #6
    9cec:	0000000a 	andeq	r0, r0, sl

00009cf0 <__FUNCTION__.4314>:
    9cf0:	755f7773 	ldrbvc	r7, [pc, #-1907]	; 9585 <sw_uart_gets_until+0x49>
    9cf4:	5f747261 	svcpl	0x00747261
    9cf8:	73746567 	cmnvc	r4, #432013312	; 0x19c00000
    9cfc:	746e755f 	strbtvc	r7, [lr], #-1375	; 0x55f
    9d00:	00006c69 	andeq	r6, r0, r9, ror #24

00009d04 <__FUNCTION__.4326>:
    9d04:	755f7773 	ldrbvc	r7, [pc, #-1907]	; 9599 <sw_uart_gets_until+0x5d>
    9d08:	5f747261 	svcpl	0x00747261
    9d0c:	73746567 	cmnvc	r4, #432013312	; 0x19c00000
    9d10:	6d69745f 	cfstrdvs	mvd7, [r9, #-380]!	; 0xfffffe84
    9d14:	74756f65 	ldrbtvc	r6, [r5], #-3941	; 0xf65
    9d18:	00000000 	andeq	r0, r0, r0

00009d1c <__FUNCTION__.4340>:
    9d1c:	755f7773 	ldrbvc	r7, [pc, #-1907]	; 95b1 <sw_uart_gets_until+0x75>
    9d20:	5f747261 	svcpl	0x00747261
    9d24:	74696e69 	strbtvc	r6, [r9], #-3689	; 0xe69
    9d28:	6c65685f 	stclvs	8, cr6, [r5], #-380	; 0xfffffe84
    9d2c:	00726570 	rsbseq	r6, r2, r0, ror r5

00009d30 <__FUNCTION__.4346>:
    9d30:	755f7773 	ldrbvc	r7, [pc, #-1907]	; 95c5 <sw_uart_gets_until+0x89>
    9d34:	5f747261 	svcpl	0x00747261
    9d38:	63746567 	cmnvs	r4, #432013312	; 0x19c00000
    9d3c:	00000000 	andeq	r0, r0, r0

00009d40 <__FUNCTION__.4368>:
    9d40:	755f7773 	ldrbvc	r7, [pc, #-1907]	; 95d5 <sw_uart_gets_until+0x99>
    9d44:	5f747261 	svcpl	0x00747261
    9d48:	6e697270 	mcrvs	2, 3, r7, cr9, cr0, {3}
    9d4c:	00006b74 	andeq	r6, r0, r4, ror fp

00009d50 <__FUNCTION__.4376>:
    9d50:	755f7773 	ldrbvc	r7, [pc, #-1907]	; 95e5 <sw_uart_gets_timeout+0x5>
    9d54:	5f747261 	svcpl	0x00747261
    9d58:	73746567 	cmnvc	r4, #432013312	; 0x19c00000
    9d5c:	746e755f 	strbtvc	r7, [lr], #-1375	; 0x55f
    9d60:	625f6c69 	subsvs	r6, pc, #26880	; 0x6900
    9d64:	00006b6c 	andeq	r6, r0, ip, ror #22
    9d68:	732d796d 	teqvc	sp, #1785856	; 0x1b4000
    9d6c:	732f6372 	teqvc	pc, #-939524095	; 0xc8000001
    9d70:	61752d77 	cmnvs	r5, r7, ror sp
    9d74:	632e7472 	teqvs	lr, #1912602624	; 0x72000000
    9d78:	00000000 	andeq	r0, r0, r0
    9d7c:	7479626e 	ldrbtvc	r6, [r9], #-622	; 0x26e
    9d80:	303e7365 	eorscc	r7, lr, r5, ror #6
    9d84:	00000000 	andeq	r0, r0, r0
    9d88:	7a686d28 	bvc	1a25230 <__bss_end__+0x1a1b018>
    9d8c:	62202d20 	eorvs	r2, r0, #32, 26	; 0x800
    9d90:	29647561 	stmdbcs	r4!, {r0, r5, r6, r8, sl, ip, sp, lr}^
    9d94:	203d3c20 	eorscs	r3, sp, r0, lsr #24
    9d98:	69726564 	ldmdbvs	r2!, {r2, r5, r6, r8, sl, sp, lr}^
    9d9c:	20646576 	rsbcs	r6, r4, r6, ror r5
    9da0:	64202626 	strtvs	r2, [r0], #-1574	; 0x626
    9da4:	76697265 	strbtvc	r7, [r9], -r5, ror #4
    9da8:	3c206465 	cfstrscc	mvf6, [r0], #-404	; 0xfffffe6c
    9dac:	6d28203d 	stcvs	0, cr2, [r8, #-244]!	; 0xffffff0c
    9db0:	2b207a68 	blcs	828758 <__bss_end__+0x81e540>
    9db4:	75616220 	strbvc	r6, [r1, #-544]!	; 0x220
    9db8:	00002964 	andeq	r2, r0, r4, ror #18
    9dbc:	494e4150 	stmdbmi	lr, {r4, r6, r8, lr}^
    9dc0:	73253a43 	teqvc	r5, #274432	; 0x43000
    9dc4:	3a73253a 	bcc	1cd32b4 <__bss_end__+0x1cc909c>
    9dc8:	693a6425 	ldmdbvs	sl!, {r0, r2, r5, sl, sp, lr}
    9dcc:	736f706d 	cmnvc	pc, #109	; 0x6d
    9dd0:	6c626973 	stclvs	9, cr6, [r2], #-460	; 0xfffffe34
    9dd4:	68203a65 	stmdavs	r0!, {r0, r2, r5, r6, r9, fp, ip, sp}
    9dd8:	20657661 	rsbcs	r7, r5, r1, ror #12
    9ddc:	69206e61 	stmdbvs	r0!, {r0, r5, r6, r9, sl, fp, sp, lr}
    9de0:	6e69666e 	cdpvs	6, 6, cr6, cr9, cr14, {3}
    9de4:	20657469 	rsbcs	r7, r5, r9, ror #8
    9de8:	656d6974 	strbvs	r6, [sp, #-2420]!	; 0x974
    9dec:	2174756f 	cmncs	r4, pc, ror #10
    9df0:	00000a0a 	andeq	r0, r0, sl, lsl #20
    9df4:	3c207a73 	stccc	10, cr7, [r0], #-460	; 0xfffffe34
    9df8:	7a697320 	bvc	1a66a80 <__bss_end__+0x1a5c868>
    9dfc:	20666f65 	rsbcs	r6, r6, r5, ror #30
    9e00:	2d667562 	cfstr64cs	mvdx7, [r6, #-392]!	; 0xfffffe78
    9e04:	00000031 	andeq	r0, r0, r1, lsr r0

Disassembly of section .bss:

00009e08 <__bss_start__>:
	...

0000a208 <console_uart>:
	...

Disassembly of section .ARM.attributes:

00000000 <.ARM.attributes>:
   0:	00002a41 	andeq	r2, r0, r1, asr #20
   4:	61656100 	cmnvs	r5, r0, lsl #2
   8:	01006962 	tsteq	r0, r2, ror #18
   c:	00000020 	andeq	r0, r0, r0, lsr #32
  10:	4b5a3605 	blmi	168d82c <__bss_end__+0x1683614>
  14:	08070600 	stmdaeq	r7, {r9, sl}
  18:	12010901 	andne	r0, r1, #16384	; 0x4000
  1c:	15011404 	strne	r1, [r1, #-1028]	; 0x404
  20:	18031701 	stmdane	r3, {r0, r8, r9, sl, ip}
  24:	22011a01 	andcs	r1, r1, #4096	; 0x1000
  28:	Address 0x0000000000000028 is out of bounds.


Disassembly of section .comment:

00000000 <.comment>:
   0:	3a434347 	bcc	10d0d24 <__bss_end__+0x10c6b0c>
   4:	4e472820 	cdpmi	8, 4, cr2, cr7, cr0, {1}
   8:	34202955 	strtcc	r2, [r0], #-2389	; 0x955
   c:	332e382e 	teqcc	lr, #3014656	; 0x2e0000
	...

Disassembly of section .debug_info:

00000000 <.debug_info>:
       0:	00000cbc 			; <UNDEFINED> instruction: 0x00000cbc
       4:	00000004 	andeq	r0, r0, r4
       8:	01040000 	mrseq	r0, (UNDEF: 4)
       c:	000000c4 	andeq	r0, r0, r4, asr #1
      10:	00029201 	andeq	r9, r2, r1, lsl #4
      14:	0001ad00 	andeq	sl, r1, r0, lsl #26
      18:	00801000 	addeq	r1, r0, r0
      1c:	00049000 	andeq	r9, r4, r0
      20:	00000000 	andeq	r0, r0, r0
      24:	05040200 	streq	r0, [r4, #-512]	; 0x200
      28:	00746e69 	rsbseq	r6, r4, r9, ror #28
      2c:	4d070403 	cfstrsmi	mvf0, [r7, #-12]
      30:	03000000 	movweq	r0, #0
      34:	020a0601 	andeq	r0, sl, #1048576	; 0x100000
      38:	02030000 	andeq	r0, r3, #0
      3c:	00021605 	andeq	r1, r2, r5, lsl #12
      40:	05040300 	streq	r0, [r4, #-768]	; 0x300
      44:	00000075 	andeq	r0, r0, r5, ror r0
      48:	70050803 	andvc	r0, r5, r3, lsl #16
      4c:	04000000 	streq	r0, [r0], #-0
      50:	00000280 	andeq	r0, r0, r0, lsl #5
      54:	005a2e04 	subseq	r2, sl, r4, lsl #28
      58:	01030000 	mrseq	r0, (UNDEF: 3)
      5c:	00020808 	andeq	r0, r2, r8, lsl #16
      60:	07020300 	streq	r0, [r2, -r0, lsl #6]
      64:	0000016c 	andeq	r0, r0, ip, ror #2
      68:	48070403 	stmdami	r7, {r0, r1, sl}
      6c:	03000000 	movweq	r0, #0
      70:	00430708 	subeq	r0, r3, r8, lsl #14
      74:	04030000 	streq	r0, [r3], #-0
      78:	0001a407 	andeq	sl, r1, r7, lsl #8
      7c:	08010300 	stmdaeq	r1, {r8, r9}
      80:	00000211 	andeq	r0, r0, r1, lsl r2
      84:	008a0405 	addeq	r0, sl, r5, lsl #8
      88:	7d060000 	stcvc	0, cr0, [r6, #-0]
      8c:	07000000 	streq	r0, [r0, -r0]
      90:	0000005a 	andeq	r0, r0, sl, asr r0
      94:	a7031c01 	strge	r1, [r3, -r1, lsl #24]
      98:	08000000 	stmdaeq	r0, {}	; <UNPREDICTABLE>
      9c:	006e6970 	rsbeq	r6, lr, r0, ror r9
      a0:	002c1c01 	eoreq	r1, ip, r1, lsl #24
      a4:	07000000 	streq	r0, [r0, -r0]
      a8:	000000b2 	strheq	r0, [r0], -r2
      ac:	bf032101 	svclt	0x00032101
      b0:	08000000 	stmdaeq	r0, {}	; <UNPREDICTABLE>
      b4:	006e6970 	rsbeq	r6, lr, r0, ror r9
      b8:	002c2101 	eoreq	r2, ip, r1, lsl #2
      bc:	07000000 	streq	r0, [r0, -r0]
      c0:	00000024 	andeq	r0, r0, r4, lsr #32
      c4:	e0032601 	and	r2, r3, r1, lsl #12
      c8:	08000000 	stmdaeq	r0, {}	; <UNPREDICTABLE>
      cc:	006e6970 	rsbeq	r6, lr, r0, ror r9
      d0:	002c2601 	eoreq	r2, ip, r1, lsl #12
      d4:	76080000 	strvc	r0, [r8], -r0
      d8:	2c260100 	stfcss	f0, [r6], #-0
      dc:	00000000 	andeq	r0, r0, r0
      e0:	00011b07 	andeq	r1, r1, r7, lsl #22
      e4:	01a60100 			; <UNDEFINED> instruction: 0x01a60100
      e8:	0000012b 	andeq	r0, r0, fp, lsr #2
      ec:	00787408 	rsbseq	r7, r8, r8, lsl #8
      f0:	002ca601 	eoreq	sl, ip, r1, lsl #12
      f4:	72080000 	andvc	r0, r8, #0
      f8:	a6010078 			; <UNDEFINED> instruction: 0xa6010078
      fc:	0000002c 	andeq	r0, r0, ip, lsr #32
     100:	01006e08 	tsteq	r0, r8, lsl #28
     104:	00002ca6 	andeq	r2, r0, r6, lsr #25
     108:	019e0900 	orrseq	r0, lr, r0, lsl #18
     10c:	aa010000 	bge	40114 <__bss_end__+0x35efc>
     110:	0000002c 	andeq	r0, r0, ip, lsr #32
     114:	00014e09 	andeq	r4, r1, r9, lsl #28
     118:	2cab0100 	stfcss	f0, [fp]
     11c:	09000000 	stmdbeq	r0, {}	; <UNPREDICTABLE>
     120:	00000122 	andeq	r0, r0, r2, lsr #2
     124:	002cac01 	eoreq	sl, ip, r1, lsl #24
     128:	0a000000 	beq	130 <_start-0x7ed0>
     12c:	00000230 	andeq	r0, r0, r0, lsr r2
     130:	002c3901 	eoreq	r3, ip, r1, lsl #18
     134:	80100000 	andshi	r0, r0, r0
     138:	00500000 	subseq	r0, r0, r0
     13c:	9c010000 	stcls	0, cr0, [r1], {-0}
     140:	0000020b 	andeq	r0, r0, fp, lsl #4
     144:	0100730b 	tsteq	r0, fp, lsl #6
     148:	00002c39 	andeq	r2, r0, r9, lsr ip
     14c:	00000000 	andeq	r0, r0, r0
     150:	015f0c00 	cmpeq	pc, r0, lsl #24
     154:	021b0000 	andseq	r0, fp, #0
     158:	03050000 	movweq	r0, #20480	; 0x5000
     15c:	00009b4c 	andeq	r9, r0, ip, asr #22
     160:	00024909 	andeq	r4, r2, r9, lsl #18
     164:	2c3b0100 	ldfcss	f0, [fp], #-0
     168:	0d000000 	stceq	0, cr0, [r0, #-0]
     16c:	0000025e 	andeq	r0, r0, lr, asr r2
     170:	002c3d01 	eoreq	r3, ip, r1, lsl #26
     174:	003a0000 	eorseq	r0, sl, r0
     178:	1c0e0000 	stcne	0, cr0, [lr], {-0}
     17c:	04000080 	streq	r0, [r0], #-128	; 0x80
     180:	93000000 	movwls	r0, #0
     184:	09000001 	stmdbeq	r0, {r0}
     188:	00000203 	andeq	r0, r0, r3, lsl #4
     18c:	002c3b01 	eoreq	r3, ip, r1, lsl #22
     190:	0e000000 	cdpeq	0, 0, cr0, cr0, cr0, {0}
     194:	0000802c 	andeq	r8, r0, ip, lsr #32
     198:	00000004 	andeq	r0, r0, r4
     19c:	000001b0 			; <UNDEFINED> instruction: 0x000001b0
     1a0:	0002030d 	andeq	r0, r2, sp, lsl #6
     1a4:	2c3d0100 	ldfcss	f0, [sp], #-0
     1a8:	3a000000 	bcc	1b0 <_start-0x7e50>
     1ac:	00000000 	andeq	r0, r0, r0
     1b0:	00802c0f 	addeq	r2, r0, pc, lsl #24
     1b4:	000c6100 	andeq	r6, ip, r0, lsl #2
     1b8:	0001c900 	andeq	ip, r1, r0, lsl #18
     1bc:	50011000 	andpl	r1, r1, r0
     1c0:	5001f307 	andpl	pc, r1, r7, lsl #6
     1c4:	1e03e80a 	cdpne	8, 0, cr14, cr3, cr10, {0}
     1c8:	803c1100 	eorshi	r1, ip, r0, lsl #2
     1cc:	0c720000 	ldcleq	0, cr0, [r2], #-0
     1d0:	500f0000 	andpl	r0, pc, r0
     1d4:	79000080 	stmdbvc	r0, {r7}
     1d8:	0100000c 	tsteq	r0, ip
     1dc:	10000002 	andne	r0, r0, r2
     1e0:	08025301 	stmdaeq	r2, {r0, r8, r9, ip, lr}
     1e4:	5201103a 	andpl	r1, r1, #58	; 0x3a
     1e8:	9b4c0305 	blls	1300e04 <__bss_end__+0x12f6bec>
     1ec:	01100000 	tsteq	r0, r0
     1f0:	8c030551 	cfstr32hi	mvfx0, [r3], {81}	; 0x51
     1f4:	1000009b 	mulne	r0, fp, r0
     1f8:	03055001 	movweq	r5, #20481	; 0x5001
     1fc:	00009b5c 	andeq	r9, r0, ip, asr fp
     200:	80541100 	subshi	r1, r4, r0, lsl #2
     204:	0c8f0000 	stceq	0, cr0, [pc], {0}
     208:	12000000 	andne	r0, r0, #0
     20c:	0000007d 	andeq	r0, r0, sp, ror r0
     210:	0000021b 	andeq	r0, r0, fp, lsl r2
     214:	00007613 	andeq	r7, r0, r3, lsl r6
     218:	06000e00 	streq	r0, [r0], -r0, lsl #28
     21c:	0000020b 	andeq	r0, r0, fp, lsl #4
     220:	0001fd0a 	andeq	pc, r1, sl, lsl #26
     224:	2c470100 	stfcse	f0, [r7], {-0}
     228:	60000000 	andvs	r0, r0, r0
     22c:	9c000080 	stcls	0, cr0, [r0], {128}	; 0x80
     230:	01000001 	tsteq	r0, r1
     234:	0004039c 	muleq	r4, ip, r3
     238:	69700b00 	ldmdbvs	r0!, {r8, r9, fp}^
     23c:	4701006e 	strmi	r0, [r1, -lr, rrx]
     240:	0000002c 	andeq	r0, r0, ip, lsr #32
     244:	0000004d 	andeq	r0, r0, sp, asr #32
     248:	0003110d 	andeq	r1, r3, sp, lsl #2
     24c:	254a0100 	strbcs	r0, [sl, #-256]	; 0x100
     250:	6e000000 	cdpvs	0, 0, cr0, cr0, cr0, {0}
     254:	0d000000 	stceq	0, cr0, [r0, #-0]
     258:	0000003e 	andeq	r0, r0, lr, lsr r0
     25c:	00254b01 	eoreq	r4, r5, r1, lsl #22
     260:	00b20000 	adcseq	r0, r2, r0
     264:	390d0000 	stmdbcc	sp, {}	; <UNPREDICTABLE>
     268:	01000000 	mrseq	r0, (UNDEF: 0)
     26c:	0000254c 	andeq	r2, r0, ip, asr #10
     270:	0000d100 	andeq	sp, r0, r0, lsl #2
     274:	00340d00 	eorseq	r0, r4, r0, lsl #26
     278:	4d010000 	stcmi	0, cr0, [r1, #-0]
     27c:	00000025 	andeq	r0, r0, r5, lsr #32
     280:	000000f0 	strdeq	r0, [r0], -r0	; <UNPREDICTABLE>
     284:	00006b0d 	andeq	r6, r0, sp, lsl #22
     288:	254e0100 	strbcs	r0, [lr, #-256]	; 0x100
     28c:	0f000000 	svceq	0x00000000
     290:	0d000001 	stceq	0, cr0, [r0, #-4]
     294:	0000001f 	andeq	r0, r0, pc, lsl r0
     298:	00254f01 	eoreq	r4, r5, r1, lsl #30
     29c:	012e0000 	teqeq	lr, r0
     2a0:	1a0d0000 	bne	3402a8 <__bss_end__+0x336090>
     2a4:	01000000 	mrseq	r0, (UNDEF: 0)
     2a8:	00002550 	andeq	r2, r0, r0, asr r5
     2ac:	00014d00 	andeq	r4, r1, r0, lsl #26
     2b0:	00150d00 	andseq	r0, r5, r0, lsl #26
     2b4:	51010000 	mrspl	r0, (UNDEF: 1)
     2b8:	00000025 	andeq	r0, r0, r5, lsr #32
     2bc:	0000016c 	andeq	r0, r0, ip, ror #2
     2c0:	0000100d 	andeq	r1, r0, sp
     2c4:	25520100 	ldrbcs	r0, [r2, #-256]	; 0x100
     2c8:	8b000000 	blhi	2d0 <_start-0x7d30>
     2cc:	14000001 	strne	r0, [r0], #-1
     2d0:	54010069 	strpl	r0, [r1], #-105	; 0x69
     2d4:	0000002c 	andeq	r0, r0, ip, lsr #32
     2d8:	04f51501 	ldrbteq	r1, [r5], #1281	; 0x501
     2dc:	59010000 	stmdbpl	r1, {}	; <UNPREDICTABLE>
     2e0:	0000002c 	andeq	r0, r0, ip, lsr #32
     2e4:	740e5301 	strvc	r5, [lr], #-769	; 0x301
     2e8:	04000080 	streq	r0, [r0], #-128	; 0x80
     2ec:	01000000 	mrseq	r0, (UNDEF: 0)
     2f0:	15000003 	strne	r0, [r0, #-3]
     2f4:	00000203 	andeq	r0, r0, r3, lsl #4
     2f8:	002c5901 	eoreq	r5, ip, r1, lsl #18
     2fc:	53010000 	movwpl	r0, #4096	; 0x1000
     300:	807c0e00 	rsbshi	r0, ip, r0, lsl #28
     304:	00040000 	andeq	r0, r4, r0
     308:	031e0000 	tsteq	lr, #0
     30c:	030d0000 	movweq	r0, #53248	; 0xd000
     310:	01000002 	tsteq	r0, r2
     314:	00002c5a 	andeq	r2, r0, sl, asr ip
     318:	0001aa00 	andeq	sl, r1, r0, lsl #20
     31c:	a00e0000 	andge	r0, lr, r0
     320:	04000080 	streq	r0, [r0], #-128	; 0x80
     324:	3b000000 	blcc	32c <_start-0x7cd4>
     328:	0d000003 	stceq	0, cr0, [r0, #-12]
     32c:	00000203 	andeq	r0, r0, r3, lsl #4
     330:	002c5c01 	eoreq	r5, ip, r1, lsl #24
     334:	01bd0000 			; <UNDEFINED> instruction: 0x01bd0000
     338:	0e000000 	cdpeq	0, 0, cr0, cr0, cr0, {0}
     33c:	000080c4 	andeq	r8, r0, r4, asr #1
     340:	00000004 	andeq	r0, r0, r4
     344:	00000358 	andeq	r0, r0, r8, asr r3
     348:	0002030d 	andeq	r0, r2, sp, lsl #6
     34c:	2c5e0100 	ldfcse	f0, [lr], {-0}
     350:	d0000000 	andle	r0, r0, r0
     354:	00000001 	andeq	r0, r0, r1
     358:	0080e80e 	addeq	lr, r0, lr, lsl #16
     35c:	00000400 	andeq	r0, r0, r0, lsl #8
     360:	00037500 	andeq	r7, r3, r0, lsl #10
     364:	02030d00 	andeq	r0, r3, #0, 26
     368:	60010000 	andvs	r0, r1, r0
     36c:	0000002c 	andeq	r0, r0, ip, lsr #32
     370:	000001e3 	andeq	r0, r0, r3, ror #3
     374:	810c0e00 	tsthi	ip, r0, lsl #28
     378:	00040000 	andeq	r0, r4, r0
     37c:	03920000 	orrseq	r0, r2, #0
     380:	030d0000 	movweq	r0, #53248	; 0xd000
     384:	01000002 	tsteq	r0, r2
     388:	00002c62 	andeq	r2, r0, r2, ror #24
     38c:	0001f600 	andeq	pc, r1, r0, lsl #12
     390:	300e0000 	andcc	r0, lr, r0
     394:	04000081 	streq	r0, [r0], #-129	; 0x81
     398:	af000000 	svcge	0x00000000
     39c:	0d000003 	stceq	0, cr0, [r0, #-12]
     3a0:	00000203 	andeq	r0, r0, r3, lsl #4
     3a4:	002c6401 	eoreq	r6, ip, r1, lsl #8
     3a8:	02090000 	andeq	r0, r9, #0
     3ac:	0e000000 	cdpeq	0, 0, cr0, cr0, cr0, {0}
     3b0:	00008154 	andeq	r8, r0, r4, asr r1
     3b4:	00000004 	andeq	r0, r0, r4
     3b8:	000003cc 	andeq	r0, r0, ip, asr #7
     3bc:	0002030d 	andeq	r0, r2, sp, lsl #6
     3c0:	2c660100 	stfcse	f0, [r6], #-0
     3c4:	1c000000 	stcne	0, cr0, [r0], {-0}
     3c8:	00000002 	andeq	r0, r0, r2
     3cc:	0081780e 	addeq	r7, r1, lr, lsl #16
     3d0:	00000400 	andeq	r0, r0, r0, lsl #8
     3d4:	0003e900 	andeq	lr, r3, r0, lsl #18
     3d8:	02030d00 	andeq	r0, r3, #0, 26
     3dc:	68010000 	stmdavs	r1, {}	; <UNPREDICTABLE>
     3e0:	0000002c 	andeq	r0, r0, ip, lsr #32
     3e4:	0000022f 	andeq	r0, r0, pc, lsr #4
     3e8:	819c1600 	orrshi	r1, ip, r0, lsl #12
     3ec:	00040000 	andeq	r0, r4, r0
     3f0:	030d0000 	movweq	r0, #53248	; 0xd000
     3f4:	01000002 	tsteq	r0, r2
     3f8:	00002c6a 	andeq	r2, r0, sl, ror #24
     3fc:	00024200 	andeq	r4, r2, r0, lsl #4
     400:	17000000 	strne	r0, [r0, -r0]
     404:	000000a1 	andeq	r0, r0, r1, lsr #1
     408:	81fc7701 	mvnshi	r7, r1, lsl #14
     40c:	020c0000 	andeq	r0, ip, #0
     410:	9c010000 	stcls	0, cr0, [r1], {-0}
     414:	00000a12 	andeq	r0, r0, r2, lsl sl
     418:	6e69700b 	cdpvs	0, 6, cr7, cr9, cr11, {0}
     41c:	2c770100 	ldfcse	f0, [r7], #-0
     420:	55000000 	strpl	r0, [r0, #-0]
     424:	18000002 	stmdane	r0, {r1}
     428:	0000094c 	andeq	r0, r0, ip, asr #18
     42c:	004f7701 	subeq	r7, pc, r1, lsl #14
     430:	02760000 	rsbseq	r0, r6, #0
     434:	7e180000 	cdpvc	0, 1, cr0, cr8, cr0, {0}
     438:	01000000 	mrseq	r0, (UNDEF: 0)
     43c:	00002c77 	andeq	r2, r0, r7, ror ip
     440:	00029700 	andeq	r9, r2, r0, lsl #14
     444:	00691400 	rsbeq	r1, r9, r0, lsl #8
     448:	002c7801 	eoreq	r7, ip, r1, lsl #16
     44c:	0d010000 	stceq	0, cr0, [r1, #-0]
     450:	000004f5 	strdeq	r0, [r0], -r5
     454:	002c7901 	eoreq	r7, ip, r1, lsl #18
     458:	02b80000 	adcseq	r0, r8, #0
     45c:	65190000 	ldrvs	r0, [r9, #-0]
     460:	0100646e 	tsteq	r0, lr, ror #8
     464:	00002ca1 	andeq	r2, r0, r1, lsr #25
     468:	82000e00 	andhi	r0, r0, #0, 28
     46c:	00040000 	andeq	r0, r4, r0
     470:	04860000 	streq	r0, [r6], #0
     474:	030d0000 	movweq	r0, #53248	; 0xd000
     478:	01000002 	tsteq	r0, r2
     47c:	00002c79 	andeq	r2, r0, r9, ror ip
     480:	0002b800 	andeq	fp, r2, r0, lsl #16
     484:	bf1a0000 	svclt	0x001a0000
     488:	04000000 	streq	r0, [r0], #-0
     48c:	18000082 	stmdane	r0, {r1, r7}
     490:	01000000 	mrseq	r0, (UNDEF: 0)
     494:	0004c28d 	andeq	ip, r4, sp, lsl #5
     498:	00d61b00 	sbcseq	r1, r6, r0, lsl #22
     49c:	1c000000 	stcne	0, cr0, [r0], {-0}
     4a0:	000000cb 	andeq	r0, r0, fp, asr #1
     4a4:	000002cb 	andeq	r0, r0, fp, asr #5
     4a8:	0000a71d 	andeq	sl, r0, sp, lsl r7
     4ac:	00820400 	addeq	r0, r2, r0, lsl #8
     4b0:	00001800 	andeq	r1, r0, r0, lsl #16
     4b4:	1c2b0100 	stfnes	f0, [fp], #-0
     4b8:	000000b3 	strheq	r0, [r0], -r3
     4bc:	000002cb 	andeq	r0, r0, fp, asr #5
     4c0:	1c0e0000 	stcne	0, cr0, [lr], {-0}
     4c4:	04000082 	streq	r0, [r0], #-130	; 0x82
     4c8:	df000000 	svcle	0x00000000
     4cc:	0d000004 	stceq	0, cr0, [r0, #-16]
     4d0:	00000203 	andeq	r0, r0, r3, lsl #4
     4d4:	002c8e01 	eoreq	r8, ip, r1, lsl #28
     4d8:	02ec0000 	rsceq	r0, ip, #0
     4dc:	1a000000 	bne	4e4 <_start-0x7b1c>
     4e0:	000000bf 	strheq	r0, [r0], -pc	; <UNPREDICTABLE>
     4e4:	0000822c 	andeq	r8, r0, ip, lsr #4
     4e8:	00000024 	andeq	r0, r0, r4, lsr #32
     4ec:	05578f01 	ldrbeq	r8, [r7, #-3841]	; 0xf01
     4f0:	d61c0000 	ldrle	r0, [ip], -r0
     4f4:	ff000000 			; <UNDEFINED> instruction: 0xff000000
     4f8:	1e000002 	cdpne	0, 0, cr0, cr0, cr2, {0}
     4fc:	000000cb 	andeq	r0, r0, fp, asr #1
     500:	5001f304 	andpl	pc, r1, r4, lsl #6
     504:	00001f9f 	muleq	r0, pc, pc	; <UNPREDICTABLE>
     508:	053c0000 	ldreq	r0, [ip, #-0]!
     50c:	d61c0000 	ldrle	r0, [ip], -r0
     510:	19000000 	stmdbne	r0, {}	; <UNPREDICTABLE>
     514:	1e000003 	cdpne	0, 0, cr0, cr0, cr3, {0}
     518:	000000cb 	andeq	r0, r0, fp, asr #1
     51c:	5001f304 	andpl	pc, r1, r4, lsl #6
     520:	008f209f 	umulleq	r2, pc, pc, r0	; <UNPREDICTABLE>
     524:	822c0000 	eorhi	r0, ip, #0
     528:	00000000 	andeq	r0, r0, r0
     52c:	29010000 	stmdbcs	r1, {}	; <UNPREDICTABLE>
     530:	00009b1e 	andeq	r9, r0, lr, lsl fp
     534:	01f30400 	mvnseq	r0, r0, lsl #8
     538:	00009f50 	andeq	r9, r0, r0, asr pc
     53c:	0000a720 	andeq	sl, r0, r0, lsr #14
     540:	00823800 	addeq	r3, r2, r0, lsl #16
     544:	00002800 	andeq	r2, r0, r0, lsl #16
     548:	1e2b0100 	sufnee	f0, f3, f0
     54c:	000000b3 	strheq	r0, [r0], -r3
     550:	5001f304 	andpl	pc, r1, r4, lsl #6
     554:	0e00009f 	mcreq	0, 0, r0, cr0, cr15, {4}
     558:	00008250 	andeq	r8, r0, r0, asr r2
     55c:	00000004 	andeq	r0, r0, r4
     560:	00000574 	andeq	r0, r0, r4, ror r5
     564:	0002030d 	andeq	r0, r2, sp, lsl #6
     568:	2c900100 	ldfcss	f0, [r0], {0}
     56c:	ad000000 	stcge	0, cr0, [r0, #-0]
     570:	00000003 	andeq	r0, r0, r3
     574:	0000bf1a 	andeq	fp, r0, sl, lsl pc
     578:	00826000 	addeq	r6, r2, r0
     57c:	00002400 	andeq	r2, r0, r0, lsl #8
     580:	ec910100 	ldfs	f0, [r1], {0}
     584:	1c000005 	stcne	0, cr0, [r0], {5}
     588:	000000d6 	ldrdeq	r0, [r0], -r6
     58c:	000003c0 	andeq	r0, r0, r0, asr #7
     590:	0000cb1e 	andeq	ip, r0, lr, lsl fp
     594:	01f30400 	mvnseq	r0, r0, lsl #8
     598:	481f9f50 	ldmdami	pc, {r4, r6, r8, r9, sl, fp, ip, pc}	; <UNPREDICTABLE>
     59c:	d1000000 	mrsle	r0, (UNDEF: 0)
     5a0:	1c000005 	stcne	0, cr0, [r0], {5}
     5a4:	000000d6 	ldrdeq	r0, [r0], -r6
     5a8:	000003da 	ldrdeq	r0, [r0], -sl
     5ac:	0000cb1e 	andeq	ip, r0, lr, lsl fp
     5b0:	01f30400 	mvnseq	r0, r0, lsl #8
     5b4:	8f209f50 	svchi	0x00209f50
     5b8:	60000000 	andvs	r0, r0, r0
     5bc:	48000082 	stmdami	r0, {r1, r7}
     5c0:	01000000 	mrseq	r0, (UNDEF: 0)
     5c4:	009b1e29 	addseq	r1, fp, r9, lsr #28
     5c8:	f3040000 	vhadd.u8	d0, d4, d0
     5cc:	009f5001 	addseq	r5, pc, r1
     5d0:	00a72000 	adceq	r2, r7, r0
     5d4:	826c0000 	rsbhi	r0, ip, #0
     5d8:	00700000 	rsbseq	r0, r0, r0
     5dc:	2b010000 	blcs	405e4 <__bss_end__+0x363cc>
     5e0:	0000b31e 	andeq	fp, r0, lr, lsl r3
     5e4:	01f30400 	mvnseq	r0, r0, lsl #8
     5e8:	00009f50 	andeq	r9, r0, r0, asr pc
     5ec:	0082840e 	addeq	r8, r2, lr, lsl #8
     5f0:	00000400 	andeq	r0, r0, r0, lsl #8
     5f4:	00060900 	andeq	r0, r6, r0, lsl #18
     5f8:	02030d00 	andeq	r0, r3, #0, 26
     5fc:	92010000 	andls	r0, r1, #0
     600:	0000002c 	andeq	r0, r0, ip, lsr #32
     604:	0000045c 	andeq	r0, r0, ip, asr r4
     608:	00bf1a00 	adcseq	r1, pc, r0, lsl #20
     60c:	82940000 	addshi	r0, r4, #0
     610:	00240000 	eoreq	r0, r4, r0
     614:	93010000 	movwls	r0, #4096	; 0x1000
     618:	00000681 	andeq	r0, r0, r1, lsl #13
     61c:	0000d61c 	andeq	sp, r0, ip, lsl r6
     620:	00046f00 	andeq	r6, r4, r0, lsl #30
     624:	00cb1e00 	sbceq	r1, fp, r0, lsl #28
     628:	f3040000 	vhadd.u8	d0, d4, d0
     62c:	1f9f5001 	svcne	0x009f5001
     630:	00000090 	muleq	r0, r0, r0
     634:	00000666 	andeq	r0, r0, r6, ror #12
     638:	0000d61c 	andeq	sp, r0, ip, lsl r6
     63c:	00048900 	andeq	r8, r4, r0, lsl #18
     640:	00cb1e00 	sbceq	r1, fp, r0, lsl #28
     644:	f3040000 	vhadd.u8	d0, d4, d0
     648:	209f5001 	addscs	r5, pc, r1
     64c:	0000008f 	andeq	r0, r0, pc, lsl #1
     650:	00008294 	muleq	r0, r4, r2
     654:	00000090 	muleq	r0, r0, r0
     658:	9b1e2901 	blls	78aa64 <__bss_end__+0x78084c>
     65c:	04000000 	streq	r0, [r0], #-0
     660:	9f5001f3 	svcls	0x005001f3
     664:	a7200000 	strge	r0, [r0, -r0]!
     668:	a0000000 	andge	r0, r0, r0
     66c:	b8000082 	stmdalt	r0, {r1, r7}
     670:	01000000 	mrseq	r0, (UNDEF: 0)
     674:	00b31e2b 	adcseq	r1, r3, fp, lsr #28
     678:	f3040000 	vhadd.u8	d0, d4, d0
     67c:	009f5001 	addseq	r5, pc, r1
     680:	82b80e00 	adcshi	r0, r8, #0, 28
     684:	00040000 	andeq	r0, r4, r0
     688:	069e0000 	ldreq	r0, [lr], r0
     68c:	030d0000 	movweq	r0, #53248	; 0xd000
     690:	01000002 	tsteq	r0, r2
     694:	00002c94 	muleq	r0, r4, ip
     698:	0004f900 	andeq	pc, r4, r0, lsl #18
     69c:	bf1a0000 	svclt	0x001a0000
     6a0:	c8000000 	stmdagt	r0, {}	; <UNPREDICTABLE>
     6a4:	24000082 	strcs	r0, [r0], #-130	; 0x82
     6a8:	01000000 	mrseq	r0, (UNDEF: 0)
     6ac:	00071695 	muleq	r7, r5, r6
     6b0:	00d61c00 	sbcseq	r1, r6, r0, lsl #24
     6b4:	050c0000 	streq	r0, [ip, #-0]
     6b8:	cb1e0000 	blgt	7806c0 <__bss_end__+0x7764a8>
     6bc:	04000000 	streq	r0, [r0], #-0
     6c0:	9f5001f3 	svcls	0x005001f3
     6c4:	0000d81f 	andeq	sp, r0, pc, lsl r8
     6c8:	0006fb00 	andeq	pc, r6, r0, lsl #22
     6cc:	00d61c00 	sbcseq	r1, r6, r0, lsl #24
     6d0:	05260000 	streq	r0, [r6, #-0]!
     6d4:	cb1e0000 	blgt	7806dc <__bss_end__+0x7764c4>
     6d8:	04000000 	streq	r0, [r0], #-0
     6dc:	9f5001f3 	svcls	0x005001f3
     6e0:	00008f20 	andeq	r8, r0, r0, lsr #30
     6e4:	0082c800 	addeq	ip, r2, r0, lsl #16
     6e8:	0000d800 	andeq	sp, r0, r0, lsl #16
     6ec:	1e290100 	sufnee	f0, f1, f0
     6f0:	0000009b 	muleq	r0, fp, r0
     6f4:	5001f304 	andpl	pc, r1, r4, lsl #6
     6f8:	2000009f 	mulcs	r0, pc, r0	; <UNPREDICTABLE>
     6fc:	000000a7 	andeq	r0, r0, r7, lsr #1
     700:	000082d4 	ldrdeq	r8, [r0], -r4
     704:	00000100 	andeq	r0, r0, r0, lsl #2
     708:	b31e2b01 	tstlt	lr, #1024	; 0x400
     70c:	04000000 	streq	r0, [r0], #-0
     710:	9f5001f3 	svcls	0x005001f3
     714:	ec0e0000 	stc	0, cr0, [lr], {-0}
     718:	04000082 	streq	r0, [r0], #-130	; 0x82
     71c:	33000000 	movwcc	r0, #0
     720:	0d000007 	stceq	0, cr0, [r0, #-28]	; 0xffffffe4
     724:	00000203 	andeq	r0, r0, r3, lsl #4
     728:	002c9601 	eoreq	r9, ip, r1, lsl #12
     72c:	05840000 	streq	r0, [r4]
     730:	1a000000 	bne	738 <_start-0x78c8>
     734:	000000bf 	strheq	r0, [r0], -pc	; <UNPREDICTABLE>
     738:	000082fc 	strdeq	r8, [r0], -ip
     73c:	00000028 	andeq	r0, r0, r8, lsr #32
     740:	07ab9701 	streq	r9, [fp, r1, lsl #14]!
     744:	d61c0000 	ldrle	r0, [ip], -r0
     748:	97000000 	strls	r0, [r0, -r0]
     74c:	1e000005 	cdpne	0, 0, cr0, cr0, cr5, {0}
     750:	000000cb 	andeq	r0, r0, fp, asr #1
     754:	5001f304 	andpl	pc, r1, r4, lsl #6
     758:	01201f9f 			; <UNDEFINED> instruction: 0x01201f9f
     75c:	07900000 	ldreq	r0, [r0, r0]
     760:	d61c0000 	ldrle	r0, [ip], -r0
     764:	b1000000 	mrslt	r0, (UNDEF: 0)
     768:	1e000005 	cdpne	0, 0, cr0, cr0, cr5, {0}
     76c:	000000cb 	andeq	r0, r0, fp, asr #1
     770:	5001f304 	andpl	pc, r1, r4, lsl #6
     774:	008f209f 	umulleq	r2, pc, pc, r0	; <UNPREDICTABLE>
     778:	82fc0000 	rscshi	r0, ip, #0
     77c:	01200000 	teqeq	r0, r0
     780:	29010000 	stmdbcs	r1, {}	; <UNPREDICTABLE>
     784:	00009b1e 	andeq	r9, r0, lr, lsl fp
     788:	01f30400 	mvnseq	r0, r0, lsl #8
     78c:	00009f50 	andeq	r9, r0, r0, asr pc
     790:	0000a720 	andeq	sl, r0, r0, lsr #14
     794:	00830800 	addeq	r0, r3, r0, lsl #16
     798:	00014800 	andeq	r4, r1, r0, lsl #16
     79c:	1e2b0100 	sufnee	f0, f3, f0
     7a0:	000000b3 	strheq	r0, [r0], -r3
     7a4:	5001f304 	andpl	pc, r1, r4, lsl #6
     7a8:	0e00009f 	mcreq	0, 0, r0, cr0, cr15, {4}
     7ac:	00008324 	andeq	r8, r0, r4, lsr #6
     7b0:	00000004 	andeq	r0, r0, r4
     7b4:	000007c8 	andeq	r0, r0, r8, asr #15
     7b8:	0002030d 	andeq	r0, r2, sp, lsl #6
     7bc:	2c980100 	ldfcss	f0, [r8], {0}
     7c0:	fd000000 	stc2	0, cr0, [r0, #-0]
     7c4:	00000005 	andeq	r0, r0, r5
     7c8:	0000bf1a 	andeq	fp, r0, sl, lsl pc
     7cc:	00833400 	addeq	r3, r3, r0, lsl #8
     7d0:	00002800 	andeq	r2, r0, r0, lsl #16
     7d4:	40990100 	addsmi	r0, r9, r0, lsl #2
     7d8:	1c000008 	stcne	0, cr0, [r0], {8}
     7dc:	000000d6 	ldrdeq	r0, [r0], -r6
     7e0:	00000610 	andeq	r0, r0, r0, lsl r6
     7e4:	0000cb1e 	andeq	ip, r0, lr, lsl fp
     7e8:	01f30400 	mvnseq	r0, r0, lsl #8
     7ec:	681f9f50 	ldmdavs	pc, {r4, r6, r8, r9, sl, fp, ip, pc}	; <UNPREDICTABLE>
     7f0:	25000001 	strcs	r0, [r0, #-1]
     7f4:	1c000008 	stcne	0, cr0, [r0], {8}
     7f8:	000000d6 	ldrdeq	r0, [r0], -r6
     7fc:	0000062b 	andeq	r0, r0, fp, lsr #12
     800:	0000cb1e 	andeq	ip, r0, lr, lsl fp
     804:	01f30400 	mvnseq	r0, r0, lsl #8
     808:	8f209f50 	svchi	0x00209f50
     80c:	34000000 	strcc	r0, [r0], #-0
     810:	68000083 	stmdavs	r0, {r0, r1, r7}
     814:	01000001 	tsteq	r0, r1
     818:	009b1e29 	addseq	r1, fp, r9, lsr #28
     81c:	f3040000 	vhadd.u8	d0, d4, d0
     820:	009f5001 	addseq	r5, pc, r1
     824:	00a72000 	adceq	r2, r7, r0
     828:	83400000 	movthi	r0, #0
     82c:	01900000 	orrseq	r0, r0, r0
     830:	2b010000 	blcs	40838 <__bss_end__+0x36620>
     834:	0000b31e 	andeq	fp, r0, lr, lsl r3
     838:	01f30400 	mvnseq	r0, r0, lsl #8
     83c:	00009f50 	andeq	r9, r0, r0, asr pc
     840:	00835c0e 	addeq	r5, r3, lr, lsl #24
     844:	00000400 	andeq	r0, r0, r0, lsl #8
     848:	00085d00 	andeq	r5, r8, r0, lsl #26
     84c:	02030d00 	andeq	r0, r3, #0, 26
     850:	9a010000 	bls	40858 <__bss_end__+0x36640>
     854:	0000002c 	andeq	r0, r0, ip, lsr #32
     858:	00000665 	andeq	r0, r0, r5, ror #12
     85c:	00bf1a00 	adcseq	r1, pc, r0, lsl #20
     860:	836c0000 	cmnhi	ip, #0
     864:	00200000 	eoreq	r0, r0, r0
     868:	9b010000 	blls	40870 <__bss_end__+0x36658>
     86c:	000008d5 	ldrdeq	r0, [r0], -r5
     870:	0000d61c 	andeq	sp, r0, ip, lsl r6
     874:	00067800 	andeq	r7, r6, r0, lsl #16
     878:	00cb1e00 	sbceq	r1, fp, r0, lsl #28
     87c:	f3040000 	vhadd.u8	d0, d4, d0
     880:	1f9f5001 	svcne	0x009f5001
     884:	000001b0 			; <UNDEFINED> instruction: 0x000001b0
     888:	000008ba 			; <UNDEFINED> instruction: 0x000008ba
     88c:	0000d61c 	andeq	sp, r0, ip, lsl r6
     890:	00069300 	andeq	r9, r6, r0, lsl #6
     894:	00cb1e00 	sbceq	r1, fp, r0, lsl #28
     898:	f3040000 	vhadd.u8	d0, d4, d0
     89c:	209f5001 	addscs	r5, pc, r1
     8a0:	0000008f 	andeq	r0, r0, pc, lsl #1
     8a4:	0000836c 	andeq	r8, r0, ip, ror #6
     8a8:	000001b0 			; <UNDEFINED> instruction: 0x000001b0
     8ac:	9b1e2901 	blls	78acb8 <__bss_end__+0x780aa0>
     8b0:	04000000 	streq	r0, [r0], #-0
     8b4:	9f5001f3 	svcls	0x005001f3
     8b8:	a7200000 	strge	r0, [r0, -r0]!
     8bc:	78000000 	stmdavc	r0, {}	; <UNPREDICTABLE>
     8c0:	d8000083 	stmdale	r0, {r0, r1, r7}
     8c4:	01000001 	tsteq	r0, r1
     8c8:	00b31e2b 	adcseq	r1, r3, fp, lsr #28
     8cc:	f3040000 	vhadd.u8	d0, d4, d0
     8d0:	009f5001 	addseq	r5, pc, r1
     8d4:	838c0e00 	orrhi	r0, ip, #0, 28
     8d8:	00040000 	andeq	r0, r4, r0
     8dc:	08f20000 	ldmeq	r2!, {}^	; <UNPREDICTABLE>
     8e0:	030d0000 	movweq	r0, #53248	; 0xd000
     8e4:	01000002 	tsteq	r0, r2
     8e8:	00002c9c 	muleq	r0, ip, ip
     8ec:	0006ba00 	andeq	fp, r6, r0, lsl #20
     8f0:	bf1a0000 	svclt	0x001a0000
     8f4:	9c000000 	stcls	0, cr0, [r0], {-0}
     8f8:	24000083 	strcs	r0, [r0], #-131	; 0x83
     8fc:	01000000 	mrseq	r0, (UNDEF: 0)
     900:	00096a9d 	muleq	r9, sp, sl
     904:	00d61c00 	sbcseq	r1, r6, r0, lsl #24
     908:	06cd0000 	strbeq	r0, [sp], r0
     90c:	cb1e0000 	blgt	780914 <__bss_end__+0x7766fc>
     910:	04000000 	streq	r0, [r0], #-0
     914:	9f5001f3 	svcls	0x005001f3
     918:	0001f81f 	andeq	pc, r1, pc, lsl r8	; <UNPREDICTABLE>
     91c:	00094f00 	andeq	r4, r9, r0, lsl #30
     920:	00d61c00 	sbcseq	r1, r6, r0, lsl #24
     924:	06e80000 	strbteq	r0, [r8], r0
     928:	cb1e0000 	blgt	780930 <__bss_end__+0x776718>
     92c:	04000000 	streq	r0, [r0], #-0
     930:	9f5001f3 	svcls	0x005001f3
     934:	00008f20 	andeq	r8, r0, r0, lsr #30
     938:	0083a000 	addeq	sl, r3, r0
     93c:	0001f800 	andeq	pc, r1, r0, lsl #16
     940:	1e290100 	sufnee	f0, f1, f0
     944:	0000009b 	muleq	r0, fp, r0
     948:	5001f304 	andpl	pc, r1, r4, lsl #6
     94c:	2000009f 	mulcs	r0, pc, r0	; <UNPREDICTABLE>
     950:	000000a7 	andeq	r0, r0, r7, lsr #1
     954:	000083ac 	andeq	r8, r0, ip, lsr #7
     958:	00000218 	andeq	r0, r0, r8, lsl r2
     95c:	b31e2b01 	tstlt	lr, #1024	; 0x400
     960:	04000000 	streq	r0, [r0], #-0
     964:	9f5001f3 	svcls	0x005001f3
     968:	c00e0000 	andgt	r0, lr, r0
     96c:	04000083 	streq	r0, [r0], #-131	; 0x83
     970:	87000000 	strhi	r0, [r0, -r0]
     974:	0d000009 	stceq	0, cr0, [r0, #-36]	; 0xffffffdc
     978:	00000203 	andeq	r0, r0, r3, lsl #4
     97c:	002c9e01 	eoreq	r9, ip, r1, lsl #28
     980:	06fc0000 	ldrbteq	r0, [ip], r0
     984:	1a000000 	bne	98c <_start-0x7674>
     988:	000000bf 	strheq	r0, [r0], -pc	; <UNPREDICTABLE>
     98c:	000083d0 	ldrdeq	r8, [r0], -r0
     990:	00000018 	andeq	r0, r0, r8, lsl r0
     994:	09df9f01 	ldmibeq	pc, {r0, r8, r9, sl, fp, ip, pc}^	; <UNPREDICTABLE>
     998:	d61b0000 	ldrle	r0, [fp], -r0
     99c:	01000000 	mrseq	r0, (UNDEF: 0)
     9a0:	0000cb1e 	andeq	ip, r0, lr, lsl fp
     9a4:	01f30400 	mvnseq	r0, r0, lsl #8
     9a8:	d0169f50 	andsle	r9, r6, r0, asr pc
     9ac:	18000083 	stmdane	r0, {r0, r1, r7}
     9b0:	1b000000 	blne	9b8 <_start-0x7648>
     9b4:	000000d6 	ldrdeq	r0, [r0], -r6
     9b8:	00cb1e01 	sbceq	r1, fp, r1, lsl #28
     9bc:	f3040000 	vhadd.u8	d0, d4, d0
     9c0:	1d9f5001 	ldcne	0, cr5, [pc, #4]	; 9cc <_start-0x7634>
     9c4:	0000008f 	andeq	r0, r0, pc, lsl #1
     9c8:	000083d0 	ldrdeq	r8, [r0], -r0
     9cc:	00000018 	andeq	r0, r0, r8, lsl r0
     9d0:	9b1e2901 	blls	78addc <__bss_end__+0x780bc4>
     9d4:	04000000 	streq	r0, [r0], #-0
     9d8:	9f5001f3 	svcls	0x005001f3
     9dc:	0e000000 	cdpeq	0, 0, cr0, cr0, cr0, {0}
     9e0:	000083e8 	andeq	r8, r0, r8, ror #7
     9e4:	00000004 	andeq	r0, r0, r4
     9e8:	000009fc 	strdeq	r0, [r0], -ip
     9ec:	0002030d 	andeq	r0, r2, sp, lsl #6
     9f0:	2ca00100 	stfcss	f0, [r0]
     9f4:	0f000000 	svceq	0x00000000
     9f8:	00000007 	andeq	r0, r0, r7
     9fc:	0083f816 	addeq	pc, r3, r6, lsl r8	; <UNPREDICTABLE>
     a00:	00000400 	andeq	r0, r0, r0, lsl #8
     a04:	02030900 	andeq	r0, r3, #0, 18
     a08:	a1010000 	mrsge	r0, (UNDEF: 1)
     a0c:	0000002c 	andeq	r0, r0, ip, lsr #32
     a10:	aa170000 	bge	5c0a18 <__bss_end__+0x5b6800>
     a14:	01000000 	mrseq	r0, (UNDEF: 0)
     a18:	008408bb 			; <UNDEFINED> instruction: 0x008408bb
     a1c:	00009800 	andeq	r9, r0, r0, lsl #16
     a20:	669c0100 	ldrvs	r0, [ip], r0, lsl #2
     a24:	1400000b 	strne	r0, [r0], #-11
     a28:	01007872 	tsteq	r0, r2, ror r8
     a2c:	000025bc 			; <UNDEFINED> instruction: 0x000025bc
     a30:	74141400 	ldrvc	r1, [r4], #-1024	; 0x400
     a34:	bd010078 	stclt	0, cr0, [r1, #-480]	; 0xfffffe20
     a38:	00000025 	andeq	r0, r0, r5, lsr #32
     a3c:	008f2115 	addeq	r2, pc, r5, lsl r1	; <UNPREDICTABLE>
     a40:	84200000 	strthi	r0, [r0], #-0
     a44:	02380000 	eorseq	r0, r8, #0
     a48:	c1010000 	mrsgt	r0, (UNDEF: 1)
     a4c:	00000a57 	andeq	r0, r0, r7, asr sl
     a50:	00009b1b 	andeq	r9, r0, fp, lsl fp
     a54:	1f001500 	svcne	0x00001500
     a58:	00000250 	andeq	r0, r0, r0, asr r2
     a5c:	00000a6c 	andeq	r0, r0, ip, ror #20
     a60:	006e6914 	rsbeq	r6, lr, r4, lsl r9
     a64:	002cc201 	eoreq	ip, ip, r1, lsl #4
     a68:	00010000 	andeq	r0, r1, r0
     a6c:	0000e01a 	andeq	lr, r0, sl, lsl r0
     a70:	00843800 	addeq	r3, r4, r0, lsl #16
     a74:	00005400 	andeq	r5, r0, r0, lsl #8
     a78:	2dc40100 	stfcse	f0, [r4]
     a7c:	1b00000b 	blne	ab0 <_start-0x7550>
     a80:	000000ec 	andeq	r0, r0, ip, ror #1
     a84:	00f61b15 	rscseq	r1, r6, r5, lsl fp
     a88:	1b140000 	blne	500a90 <__bss_end__+0x4f6878>
     a8c:	00000100 	andeq	r0, r0, r0, lsl #2
     a90:	843816fe 	ldrthi	r1, [r8], #-1790	; 0x6fe
     a94:	00540000 	subseq	r0, r4, r0
     a98:	09220000 	stmdbeq	r2!, {}	; <UNPREDICTABLE>
     a9c:	22000001 	andcs	r0, r0, #1
     aa0:	22000007 	andcs	r0, r0, #7
     aa4:	00000114 	andeq	r0, r0, r4, lsl r1
     aa8:	00000741 	andeq	r0, r0, r1, asr #14
     aac:	00011f22 	andeq	r1, r1, r2, lsr #30
     ab0:	00076000 	andeq	r6, r7, r0
     ab4:	84400f00 	strbhi	r0, [r0], #-3840	; 0xf00
     ab8:	0c790000 	ldcleq	0, cr0, [r9], #-0
     abc:	0acc0000 	beq	ff300ac4 <__bss_end__+0xff2f68ac>
     ac0:	01100000 	tsteq	r0, r0
     ac4:	94030550 	strls	r0, [r3], #-1360	; 0x550
     ac8:	0000009b 	muleq	r0, fp, r0
     acc:	00844c0f 	addeq	r4, r4, pc, lsl #24
     ad0:	00022000 	andeq	r2, r2, r0
     ad4:	000adf00 	andeq	sp, sl, r0, lsl #30
     ad8:	50011000 	andpl	r1, r1, r0
     adc:	0f004401 	svceq	0x00004401
     ae0:	00008464 	andeq	r8, r0, r4, ror #8
     ae4:	00000c61 	andeq	r0, r0, r1, ror #24
     ae8:	00000af2 	strdeq	r0, [r0], -r2
     aec:	01500110 	cmpeq	r0, r0, lsl r1
     af0:	740f0031 	strvc	r0, [pc], #-49	; af8 <_start-0x7508>
     af4:	03000084 	movweq	r0, #132	; 0x84
     af8:	12000004 	andne	r0, r0, #4
     afc:	1000000b 	andne	r0, r0, fp
     b00:	0a035201 	beq	d530c <__bss_end__+0xcb0f4>
     b04:	011017bc 			; <UNDEFINED> instruction: 0x011017bc
     b08:	00760251 	rsbseq	r0, r6, r1, asr r2
     b0c:	01500110 	cmpeq	r0, r0, lsl r1
     b10:	8c230045 	stchi	0, cr0, [r3], #-276	; 0xfffffeec
     b14:	79000084 	stmdbvc	r0, {r2, r7}
     b18:	1000000c 	andne	r0, r0, ip
     b1c:	74025101 	strvc	r5, [r2], #-257	; 0x101
     b20:	50011000 	andpl	r1, r1, r0
     b24:	9bb00305 	blls	fec01740 <__bss_end__+0xfebf7528>
     b28:	00000000 	andeq	r0, r0, r0
     b2c:	84140f00 	ldrhi	r0, [r4], #-3840	; 0xf00
     b30:	0c960000 	ldceq	0, cr0, [r6], {0}
     b34:	0b400000 	bleq	1000b3c <__bss_end__+0xff6924>
     b38:	01100000 	tsteq	r0, r0
     b3c:	00450150 	subeq	r0, r5, r0, asr r1
     b40:	00841c0f 	addeq	r1, r4, pc, lsl #24
     b44:	000ca700 	andeq	sl, ip, r0, lsl #14
     b48:	000b5300 	andeq	r5, fp, r0, lsl #6
     b4c:	50011000 	andpl	r1, r1, r0
     b50:	11004401 	tstne	r0, r1, lsl #8
     b54:	00008420 	andeq	r8, r0, r0, lsr #8
     b58:	00000cb8 			; <UNDEFINED> instruction: 0x00000cb8
     b5c:	00849011 	addeq	r9, r4, r1, lsl r0
     b60:	000c8f00 	andeq	r8, ip, r0, lsl #30
     b64:	7f240000 	svcvc	0x00240000
     b68:	01000001 	tsteq	r0, r1
     b6c:	000b7507 	andeq	r7, fp, r7, lsl #10
     b70:	20000000 	andcs	r0, r0, r0
     b74:	7b040520 	blvc	101ffc <__bss_end__+0xf7de4>
     b78:	2500000b 	strcs	r0, [r0, #-11]
     b7c:	0000002c 	andeq	r0, r0, ip, lsr #32
     b80:	00023f24 	andeq	r3, r2, r4, lsr #30
     b84:	75080100 	strvc	r0, [r8, #-256]	; 0x100
     b88:	1c00000b 	stcne	0, cr0, [r0], {11}
     b8c:	24202000 	strtcs	r2, [r0], #-0
     b90:	00000288 	andeq	r0, r0, r8, lsl #5
     b94:	0b750901 	bleq	1d42fa0 <__bss_end__+0x1d38d88>
     b98:	00280000 	eoreq	r0, r8, r0
     b9c:	36242020 	strtcc	r2, [r4], -r0, lsr #32
     ba0:	01000001 	tsteq	r0, r1
     ba4:	000b750b 	andeq	r7, fp, fp, lsl #10
     ba8:	20000000 	andcs	r0, r0, r0
     bac:	013e2420 	teqeq	lr, r0, lsr #8
     bb0:	0c010000 	stceq	0, cr0, [r1], {-0}
     bb4:	00000b75 	andeq	r0, r0, r5, ror fp
     bb8:	20200004 	eorcs	r0, r0, r4
     bbc:	00000024 	andeq	r0, r0, r4, lsr #32
     bc0:	750d0100 	strvc	r0, [sp, #-256]	; 0x100
     bc4:	0800000b 	stmdaeq	r0, {r0, r1, r3}
     bc8:	24202000 	strtcs	r2, [r0], #-0
     bcc:	00000146 	andeq	r0, r0, r6, asr #2
     bd0:	0b750e01 	bleq	1d443dc <__bss_end__+0x1d3a1c4>
     bd4:	000c0000 	andeq	r0, ip, r0
     bd8:	08242020 	stmdaeq	r4!, {r5, sp}
     bdc:	01000000 	mrseq	r0, (UNDEF: 0)
     be0:	000b750f 	andeq	r7, fp, pc, lsl #10
     be4:	20001000 	andcs	r1, r0, r0
     be8:	01572420 	cmpeq	r7, r0, lsr #8
     bec:	10010000 	andne	r0, r1, r0
     bf0:	00000b75 	andeq	r0, r0, r5, ror fp
     bf4:	20200014 	eorcs	r0, r0, r4, lsl r0
     bf8:	00008524 	andeq	r8, r0, r4, lsr #10
     bfc:	07120100 	ldreq	r0, [r2, -r0, lsl #2]
     c00:	1c00000c 	stcne	0, cr0, [r0], {12}
     c04:	06202000 	strteq	r2, [r0], -r0
     c08:	00000b75 	andeq	r0, r0, r5, ror fp
     c0c:	00008c24 	andeq	r8, r0, r4, lsr #24
     c10:	75130100 	ldrvc	r0, [r3, #-256]	; 0x100
     c14:	2000000b 	andcs	r0, r0, fp
     c18:	24202000 	strtcs	r2, [r0], #-0
     c1c:	00000220 	andeq	r0, r0, r0, lsr #4
     c20:	0c2a1501 	cfstr32eq	mvfx1, [sl], #-4
     c24:	00280000 	eoreq	r0, r8, r0
     c28:	75062020 	strvc	r2, [r6, #-32]
     c2c:	2400000b 	strcs	r0, [r0], #-11
     c30:	0000018a 	andeq	r0, r0, sl, lsl #3
     c34:	0b751601 	bleq	1d46440 <__bss_end__+0x1d3c228>
     c38:	002c0000 	eoreq	r0, ip, r0
     c3c:	93242020 	teqls	r4, #32
     c40:	01000000 	mrseq	r0, (UNDEF: 0)
     c44:	000c4d18 	andeq	r4, ip, r8, lsl sp
     c48:	20003400 	andcs	r3, r0, r0, lsl #8
     c4c:	0b750620 	bleq	1d424d4 <__bss_end__+0x1d382bc>
     c50:	9a240000 	bls	900c58 <__bss_end__+0x8f6a40>
     c54:	01000000 	mrseq	r0, (UNDEF: 0)
     c58:	000b7519 	andeq	r7, fp, r9, lsl r5
     c5c:	20003800 	andcs	r3, r0, r0, lsl #16
     c60:	02272620 	eoreq	r2, r7, #32, 12	; 0x2000000
     c64:	50020000 	andpl	r0, r2, r0
     c68:	00000c72 	andeq	r0, r0, r2, ror ip
     c6c:	00002c27 	andeq	r2, r0, r7, lsr #24
     c70:	27280000 	strcs	r0, [r8, -r0]!
     c74:	02000001 	andeq	r0, r0, #1
     c78:	0311291e 	tsteq	r1, #491520	; 0x78000
     c7c:	29020000 	stmdbcs	r2, {}	; <UNPREDICTABLE>
     c80:	00000025 	andeq	r0, r0, r5, lsr #32
     c84:	00000c8f 	andeq	r0, r0, pc, lsl #25
     c88:	00008427 	andeq	r8, r0, r7, lsr #8
     c8c:	28002a00 	stmdacs	r0, {r9, fp, sp}
     c90:	00000191 	muleq	r0, r1, r1
     c94:	63266602 	teqvs	r6, #2097152	; 0x200000
     c98:	03000002 	movweq	r0, #2
     c9c:	000ca71d 	andeq	sl, ip, sp, lsl r7
     ca0:	002c2700 	eoreq	r2, ip, r0, lsl #14
     ca4:	26000000 	strcs	r0, [r0], -r0
     ca8:	0000024f 	andeq	r0, r0, pc, asr #4
     cac:	0cb81c03 	ldceq	12, cr1, [r8], #12
     cb0:	2c270000 	stccs	0, cr0, [r7], #-0
     cb4:	00000000 	andeq	r0, r0, r0
     cb8:	00027328 	andeq	r7, r2, r8, lsr #6
     cbc:	008e0200 	addeq	r0, lr, r0, lsl #4
     cc0:	00000191 	muleq	r0, r1, r1
     cc4:	022a0004 	eoreq	r0, sl, #4
     cc8:	01040000 	mrseq	r0, (UNDEF: 4)
     ccc:	000002b7 			; <UNDEFINED> instruction: 0x000002b7
     cd0:	0002a901 	andeq	sl, r2, r1, lsl #18
     cd4:	00032200 	andeq	r2, r3, r0, lsl #4
     cd8:	0084a000 	addeq	sl, r4, r0
     cdc:	00005800 	andeq	r5, r0, r0, lsl #16
     ce0:	0002a500 	andeq	sl, r2, r0, lsl #10
     ce4:	029a0200 	addseq	r0, sl, #0, 4
     ce8:	28020000 	stmdacs	r2, {}	; <UNPREDICTABLE>
     cec:	00000030 	andeq	r0, r0, r0, lsr r0
     cf0:	00031803 	andeq	r1, r3, r3, lsl #16
     cf4:	00030400 	andeq	r0, r3, r0, lsl #8
     cf8:	00000047 	andeq	r0, r0, r7, asr #32
     cfc:	00036b04 	andeq	r6, r3, r4, lsl #22
     d00:	00004700 	andeq	r4, r0, r0, lsl #14
     d04:	05000000 	streq	r0, [r0, #-0]
     d08:	031a0204 	tsteq	sl, #4, 4	; 0x40000000
     d0c:	62020000 	andvs	r0, r2, #0
     d10:	00000025 	andeq	r0, r0, r5, lsr #32
     d14:	69050406 	stmdbvs	r5, {r1, r2, sl}
     d18:	0700746e 	streq	r7, [r0, -lr, ror #8]
     d1c:	004d0704 	subeq	r0, sp, r4, lsl #14
     d20:	01070000 	mrseq	r0, (UNDEF: 7)
     d24:	00020a06 	andeq	r0, r2, r6, lsl #20
     d28:	05020700 	streq	r0, [r2, #-1792]	; 0x700
     d2c:	00000216 	andeq	r0, r0, r6, lsl r2
     d30:	75050407 	strvc	r0, [r5, #-1031]	; 0x407
     d34:	07000000 	streq	r0, [r0, -r0]
     d38:	00700508 	rsbseq	r0, r0, r8, lsl #10
     d3c:	01070000 	mrseq	r0, (UNDEF: 7)
     d40:	00020808 	andeq	r0, r2, r8, lsl #16
     d44:	07020700 	streq	r0, [r2, -r0, lsl #14]
     d48:	0000016c 	andeq	r0, r0, ip, ror #2
     d4c:	48070407 	stmdami	r7, {r0, r1, r2, sl}
     d50:	07000000 	streq	r0, [r0, -r0]
     d54:	00430708 	subeq	r0, r3, r8, lsl #14
     d58:	04070000 	streq	r0, [r7], #-0
     d5c:	0001a407 	andeq	sl, r1, r7, lsl #8
     d60:	a7040800 	strge	r0, [r4, -r0, lsl #16]
     d64:	07000000 	streq	r0, [r0, -r0]
     d68:	02110801 	andseq	r0, r1, #65536	; 0x10000
     d6c:	04080000 	streq	r0, [r8], #-0
     d70:	000000b4 	strheq	r0, [r0], -r4
     d74:	0000a709 	andeq	sl, r0, r9, lsl #14
     d78:	03110a00 	tsteq	r1, #0, 20
     d7c:	06010000 	streq	r0, [r1], -r0
     d80:	00000054 	andeq	r0, r0, r4, asr r0
     d84:	000084a0 	andeq	r8, r0, r0, lsr #9
     d88:	00000058 	andeq	r0, r0, r8, asr r0
     d8c:	01439c01 	cmpeq	r3, r1, lsl #24
     d90:	660b0000 	strvs	r0, [fp], -r0
     d94:	0100746d 	tsteq	r0, sp, ror #8
     d98:	0000ae06 	andeq	sl, r0, r6, lsl #28
     d9c:	70910200 	addsvc	r0, r1, r0, lsl #4
     da0:	75620d0c 	strbvc	r0, [r2, #-3340]!	; 0xd0c
     da4:	08010066 	stmdaeq	r1, {r1, r2, r5, r6}
     da8:	00000143 	andeq	r0, r0, r3, asr #2
     dac:	9e080305 	cdpls	3, 0, cr0, cr8, cr5, {0}
     db0:	660e0000 	strvs	r0, [lr], -r0
     db4:	01000003 	tsteq	r0, r3
     db8:	00004909 	andeq	r4, r0, r9, lsl #18
     dbc:	5c910200 	lfmpl	f0, 4, [r1], {0}
     dc0:	007a730f 	rsbseq	r7, sl, pc, lsl #6
     dc4:	00540c01 	subseq	r0, r4, r1, lsl #24
     dc8:	078a0000 	streq	r0, [sl, r0]
     dcc:	c8100000 	ldmdagt	r0, {}	; <UNPREDICTABLE>
     dd0:	74000084 	strvc	r0, [r0], #-132	; 0x84
     dd4:	36000001 	strcc	r0, [r0], -r1
     dd8:	11000001 	tstne	r0, r1
     ddc:	91025301 	tstls	r2, r1, lsl #6
     de0:	5201114c 	andpl	r1, r1, #76, 2
     de4:	06489103 	strbeq	r9, [r8], -r3, lsl #2
     de8:	03510111 	cmpeq	r1, #1073741828	; 0x40000004
     dec:	1104000a 	tstne	r4, sl
     df0:	74025001 	strvc	r5, [r2], #-1
     df4:	dc120000 	ldcle	0, cr0, [r2], {-0}
     df8:	11000084 	smlabbne	r0, r4, r0, r0
     dfc:	74025001 	strvc	r5, [r2], #-1
     e00:	13000000 	movwne	r0, #0
     e04:	000000a7 	andeq	r0, r0, r7, lsr #1
     e08:	00000154 	andeq	r0, r0, r4, asr r1
     e0c:	00009a14 	andeq	r9, r0, r4, lsl sl
     e10:	0003ff00 	andeq	pc, r3, r0, lsl #30
     e14:	00005415 	andeq	r5, r0, r5, lsl r4
     e18:	00016300 	andeq	r6, r1, r0, lsl #6
     e1c:	00ae1600 	adceq	r1, lr, r0, lsl #12
     e20:	17000000 	strne	r0, [r0, -r0]
     e24:	000003be 			; <UNDEFINED> instruction: 0x000003be
     e28:	016e2204 	cmneq	lr, r4, lsl #4
     e2c:	04080000 	streq	r0, [r8], #-0
     e30:	00000154 	andeq	r0, r0, r4, asr r1
     e34:	00030e18 	andeq	r0, r3, r8, lsl lr
     e38:	54020500 	strpl	r0, [r2], #-1280	; 0x500
     e3c:	16000000 	strne	r0, [r0], -r0
     e40:	000000a1 	andeq	r0, r0, r1, lsr #1
     e44:	00005416 	andeq	r5, r0, r6, lsl r4
     e48:	00ae1600 	adceq	r1, lr, r0, lsl #12
     e4c:	49160000 	ldmdbmi	r6, {}	; <UNPREDICTABLE>
     e50:	00000000 	andeq	r0, r0, r0
     e54:	00011300 	andeq	r1, r1, r0, lsl #6
     e58:	5b000400 	blpl	1e60 <_start-0x61a0>
     e5c:	04000003 	streq	r0, [r0], #-3
     e60:	0002b701 	andeq	fp, r2, r1, lsl #14
     e64:	038d0100 	orreq	r0, sp, #0, 2
     e68:	03220000 	teqeq	r2, #0
     e6c:	84f80000 	ldrbthi	r0, [r8], #0
     e70:	003c0000 	eorseq	r0, ip, r0
     e74:	03ab0000 			; <UNDEFINED> instruction: 0x03ab0000
     e78:	04020000 	streq	r0, [r2], #-0
     e7c:	746e6905 	strbtvc	r6, [lr], #-2309	; 0x905
     e80:	07040300 	streq	r0, [r4, -r0, lsl #6]
     e84:	0000004d 	andeq	r0, r0, sp, asr #32
     e88:	0a060103 	beq	18129c <__bss_end__+0x177084>
     e8c:	03000002 	movweq	r0, #2
     e90:	02160502 	andseq	r0, r6, #8388608	; 0x800000
     e94:	04030000 	streq	r0, [r3], #-0
     e98:	00007505 	andeq	r7, r0, r5, lsl #10
     e9c:	05080300 	streq	r0, [r8, #-768]	; 0x300
     ea0:	00000070 	andeq	r0, r0, r0, ror r0
     ea4:	08080103 	stmdaeq	r8, {r0, r1, r8}
     ea8:	03000002 	movweq	r0, #2
     eac:	016c0702 	cmneq	ip, r2, lsl #14
     eb0:	04030000 	streq	r0, [r3], #-0
     eb4:	00004807 	andeq	r4, r0, r7, lsl #16
     eb8:	07080300 	streq	r0, [r8, -r0, lsl #6]
     ebc:	00000043 	andeq	r0, r0, r3, asr #32
     ec0:	a4070403 	strge	r0, [r7], #-1027	; 0x403
     ec4:	03000001 	movweq	r0, #1
     ec8:	02110801 	andseq	r0, r1, #65536	; 0x10000
     ecc:	70040000 	andvc	r0, r4, r0
     ed0:	01000003 	tsteq	r0, r3
     ed4:	00002503 	andeq	r2, r0, r3, lsl #10
     ed8:	0084f800 	addeq	pc, r4, r0, lsl #16
     edc:	00001400 	andeq	r1, r0, r0, lsl #8
     ee0:	b09c0100 	addslt	r0, ip, r0, lsl #2
     ee4:	05000000 	streq	r0, [r0, #-0]
     ee8:	03010063 	movweq	r0, #4195	; 0x1063
     eec:	00000025 	andeq	r0, r0, r5, lsr #32
     ef0:	000007b3 			; <UNDEFINED> instruction: 0x000007b3
     ef4:	00850406 	addeq	r0, r5, r6, lsl #8
     ef8:	00010900 	andeq	r0, r1, r0, lsl #18
     efc:	50010700 	andpl	r0, r1, r0, lsl #14
     f00:	00007402 	andeq	r7, r0, r2, lsl #8
     f04:	01270800 	teqeq	r7, r0, lsl #16
     f08:	08010000 	stmdaeq	r1, {}	; <UNPREDICTABLE>
     f0c:	0000850c 	andeq	r8, r0, ip, lsl #10
     f10:	00000018 	andeq	r0, r0, r8, lsl r0
     f14:	9c099c01 	stcls	12, cr9, [r9], {1}
     f18:	01000003 	tsteq	r0, r3
     f1c:	0085240b 	addeq	r2, r5, fp, lsl #8
     f20:	00001000 	andeq	r1, r0, r0
     f24:	e39c0100 	orrs	r0, ip, #0, 2
     f28:	0a000000 	beq	f30 <_start-0x70d0>
     f2c:	01007066 	tsteq	r0, r6, rrx
     f30:	0000f20b 	andeq	pc, r0, fp, lsl #4
     f34:	00500100 	subseq	r0, r0, r0, lsl #2
     f38:	0000250b 	andeq	r2, r0, fp, lsl #10
     f3c:	0000f200 	andeq	pc, r0, r0, lsl #4
     f40:	00250c00 	eoreq	r0, r5, r0, lsl #24
     f44:	0d000000 	stceq	0, cr0, [r0, #-0]
     f48:	0000e304 	andeq	lr, r0, r4, lsl #6
     f4c:	03810e00 	orreq	r0, r1, #0, 28
     f50:	06010000 	streq	r0, [r1], -r0
     f54:	000000f2 	strdeq	r0, [r0], -r2
     f58:	9ab00305 	bls	fec01b74 <__bss_end__+0xfebf795c>
     f5c:	090f0000 	stmdbeq	pc, {}	; <UNPREDICTABLE>
     f60:	02000005 	andeq	r0, r0, #5
     f64:	002c0c3c 	eoreq	r0, ip, ip, lsr ip
     f68:	00000000 	andeq	r0, r0, r0
     f6c:	000000ee 	andeq	r0, r0, lr, ror #1
     f70:	04430004 	strbeq	r0, [r3], #-4
     f74:	01040000 	mrseq	r0, (UNDEF: 4)
     f78:	000002b7 			; <UNDEFINED> instruction: 0x000002b7
     f7c:	0003a901 	andeq	sl, r3, r1, lsl #18
     f80:	00032200 	andeq	r2, r3, r0, lsl #4
     f84:	00853400 	addeq	r3, r5, r0, lsl #8
     f88:	00003400 	andeq	r3, r0, r0, lsl #8
     f8c:	00043900 	andeq	r3, r4, r0, lsl #18
     f90:	05040200 	streq	r0, [r4, #-512]	; 0x200
     f94:	00746e69 	rsbseq	r6, r4, r9, ror #28
     f98:	4d070403 	cfstrsmi	mvf0, [r7, #-12]
     f9c:	03000000 	movweq	r0, #0
     fa0:	020a0601 	andeq	r0, sl, #1048576	; 0x100000
     fa4:	02030000 	andeq	r0, r3, #0
     fa8:	00021605 	andeq	r1, r2, r5, lsl #12
     fac:	05040300 	streq	r0, [r4, #-768]	; 0x300
     fb0:	00000075 	andeq	r0, r0, r5, ror r0
     fb4:	70050803 	andvc	r0, r5, r3, lsl #16
     fb8:	03000000 	movweq	r0, #0
     fbc:	02080801 	andeq	r0, r8, #65536	; 0x10000
     fc0:	02030000 	andeq	r0, r3, #0
     fc4:	00016c07 	andeq	r6, r1, r7, lsl #24
     fc8:	07040300 	streq	r0, [r4, -r0, lsl #6]
     fcc:	00000048 	andeq	r0, r0, r8, asr #32
     fd0:	43070803 	movwmi	r0, #30723	; 0x7803
     fd4:	03000000 	movweq	r0, #0
     fd8:	01a40704 			; <UNDEFINED> instruction: 0x01a40704
     fdc:	01030000 	mrseq	r0, (UNDEF: 3)
     fe0:	00021108 	andeq	r1, r2, r8, lsl #2
     fe4:	7f040400 	svcvc	0x00040400
     fe8:	05000000 	streq	r0, [r0, #-0]
     fec:	00000072 	andeq	r0, r0, r2, ror r0
     ff0:	0003b506 	andeq	fp, r3, r6, lsl #10
     ff4:	25040100 	strcs	r0, [r4, #-256]	; 0x100
     ff8:	34000000 	strcc	r0, [r0], #-0
     ffc:	34000085 	strcc	r0, [r0], #-133	; 0x85
    1000:	01000000 	mrseq	r0, (UNDEF: 0)
    1004:	0000ab9c 	muleq	r0, ip, fp
    1008:	00700700 	rsbseq	r0, r0, r0, lsl #14
    100c:	00790401 	rsbseq	r0, r9, r1, lsl #8
    1010:	07d10000 	ldrbeq	r0, [r1, r0]
    1014:	08000000 	stmdaeq	r0, {}	; <UNPREDICTABLE>
    1018:	00000025 	andeq	r0, r0, r5, lsr #32
    101c:	000000ba 	strheq	r0, [r0], -sl
    1020:	00002509 	andeq	r2, r0, r9, lsl #10
    1024:	810a0000 	mrshi	r0, (UNDEF: 10)
    1028:	02000003 	andeq	r0, r0, #3
    102c:	0000c51d 	andeq	ip, r0, sp, lsl r5
    1030:	ab040400 	blge	102038 <__bss_end__+0xf7e20>
    1034:	08000000 	stmdaeq	r0, {}	; <UNPREDICTABLE>
    1038:	00000025 	andeq	r0, r0, r5, lsr #32
    103c:	000000da 	ldrdeq	r0, [r0], -sl
    1040:	00007909 	andeq	r7, r0, r9, lsl #18
    1044:	be0b0000 	cdplt	0, 0, cr0, cr11, cr0, {0}
    1048:	01000003 	tsteq	r0, r3
    104c:	0000eb0c 	andeq	lr, r0, ip, lsl #22
    1050:	b4030500 	strlt	r0, [r3], #-1280	; 0x500
    1054:	0400009a 	streq	r0, [r0], #-154	; 0x9a
    1058:	0000cb04 	andeq	ip, r0, r4, lsl #22
    105c:	06a10000 	strteq	r0, [r1], r0
    1060:	00040000 	andeq	r0, r4, r0
    1064:	000004dc 	ldrdeq	r0, [r0], -ip
    1068:	02b70104 	adcseq	r0, r7, #4, 2
    106c:	ef010000 	svc	0x00010000
    1070:	22000003 	andcs	r0, r0, #3
    1074:	68000003 	stmdavs	r0, {r0, r1}
    1078:	24000085 	strcs	r0, [r0], #-133	; 0x85
    107c:	d3000005 	movwle	r0, #5
    1080:	02000004 	andeq	r0, r0, #4
    1084:	6e690504 	cdpvs	5, 6, cr0, cr9, cr4, {0}
    1088:	04030074 	streq	r0, [r3], #-116	; 0x74
    108c:	00004d07 	andeq	r4, r0, r7, lsl #26
    1090:	06010300 	streq	r0, [r1], -r0, lsl #6
    1094:	0000020a 	andeq	r0, r0, sl, lsl #4
    1098:	16050203 	strne	r0, [r5], -r3, lsl #4
    109c:	03000002 	movweq	r0, #2
    10a0:	00750504 	rsbseq	r0, r5, r4, lsl #10
    10a4:	08030000 	stmdaeq	r3, {}	; <UNPREDICTABLE>
    10a8:	00007005 	andeq	r7, r0, r5
    10ac:	08010300 	stmdaeq	r1, {r8, r9}
    10b0:	00000208 	andeq	r0, r0, r8, lsl #4
    10b4:	6c070203 	sfmvs	f0, 4, [r7], {3}
    10b8:	03000001 	movweq	r0, #1
    10bc:	00480704 	subeq	r0, r8, r4, lsl #14
    10c0:	08030000 	stmdaeq	r3, {}	; <UNPREDICTABLE>
    10c4:	00004307 	andeq	r4, r0, r7, lsl #6
    10c8:	07040300 	streq	r0, [r4, -r0, lsl #6]
    10cc:	000001a4 	andeq	r0, r0, r4, lsr #3
    10d0:	04050404 	streq	r0, [r5], #-1028	; 0x404
    10d4:	0000007a 	andeq	r0, r0, sl, ror r0
    10d8:	11080103 	tstne	r8, r3, lsl #2
    10dc:	05000002 	streq	r0, [r0, #-2]
    10e0:	00008704 	andeq	r8, r0, r4, lsl #14
    10e4:	007a0600 	rsbseq	r0, sl, r0, lsl #12
    10e8:	9a070000 	bls	1c10f0 <__bss_end__+0x1b6ed8>
    10ec:	02000002 	andeq	r0, r0, #2
    10f0:	00009728 	andeq	r9, r0, r8, lsr #14
    10f4:	03180800 	tsteq	r8, #0, 16
    10f8:	04040000 	streq	r0, [r4], #-0
    10fc:	0000ae00 	andeq	sl, r0, r0, lsl #28
    1100:	036b0900 	cmneq	fp, #0, 18
    1104:	00720000 	rsbseq	r0, r2, r0
    1108:	00000000 	andeq	r0, r0, r0
    110c:	00031a07 	andeq	r1, r3, r7, lsl #20
    1110:	8c620200 	sfmhi	f0, 2, [r2], #-0
    1114:	0a000000 	beq	111c <_start-0x6ee4>
    1118:	000003d1 	ldrdeq	r0, [r0], -r1
    111c:	00252701 	eoreq	r2, r5, r1, lsl #14
    1120:	85680000 	strbhi	r0, [r8, #-0]!
    1124:	00140000 	andseq	r0, r4, r0
    1128:	9c010000 	stcls	0, cr0, [r1], {-0}
    112c:	000000e0 	andeq	r0, r0, r0, ror #1
    1130:	0100630b 	tsteq	r0, fp, lsl #6
    1134:	00002527 	andeq	r2, r0, r7, lsr #10
    1138:	0007ef00 	andeq	lr, r7, r0, lsl #30
    113c:	700c0000 	andvc	r0, ip, r0
    1140:	01006461 	tsteq	r0, r1, ror #8
    1144:	0000742e 	andeq	r7, r0, lr, lsr #8
    1148:	00857c00 	addeq	r7, r5, r0, lsl #24
    114c:	00002c00 	andeq	r2, r0, r0, lsl #24
    1150:	309c0100 	addscc	r0, ip, r0, lsl #2
    1154:	0b000001 	bleq	1160 <_start-0x6ea0>
    1158:	2e010070 	mcrcs	0, 0, r0, cr1, cr0, {3}
    115c:	00000074 	andeq	r0, r0, r4, ror r0
    1160:	0000081d 	andeq	r0, r0, sp, lsl r8
    1164:	0003e10d 	andeq	lr, r3, sp, lsl #2
    1168:	742e0100 	strtvc	r0, [lr], #-256	; 0x100
    116c:	48000000 	stmdami	r0, {}	; <UNPREDICTABLE>
    1170:	0e000008 	cdpeq	0, 0, cr0, cr0, cr8, {0}
    1174:	0000040f 	andeq	r0, r0, pc, lsl #8
    1178:	00252e01 	eoreq	r2, r5, r1, lsl #28
    117c:	52010000 	andpl	r0, r1, #0
    1180:	6e656c0f 	cdpvs	12, 6, cr6, cr5, cr15, {0}
    1184:	252f0100 	strcs	r0, [pc, #-256]!	; 108c <_start-0x6f74>
    1188:	01000000 	mrseq	r0, (UNDEF: 0)
    118c:	c90a0051 	stmdbgt	sl, {r0, r4, r6}
    1190:	01000003 	tsteq	r0, r3
    1194:	00007437 	andeq	r7, r0, r7, lsr r4
    1198:	0085a800 	addeq	sl, r5, r0, lsl #16
    119c:	00004000 	andeq	r4, r0, r0
    11a0:	9c9c0100 	ldflss	f0, [ip], {0}
    11a4:	0b000001 	bleq	11b0 <_start-0x6e50>
    11a8:	00747364 	rsbseq	r7, r4, r4, ror #6
    11ac:	00743701 	rsbseq	r3, r4, r1, lsl #14
    11b0:	08690000 	stmdaeq	r9!, {}^	; <UNPREDICTABLE>
    11b4:	6e0b0000 	cdpvs	0, 0, cr0, cr11, cr0, {0}
    11b8:	25370100 	ldrcs	r0, [r7, #-256]!	; 0x100
    11bc:	a1000000 	mrsge	r0, (UNDEF: 0)
    11c0:	0b000008 	bleq	11e8 <_start-0x6e18>
    11c4:	37010070 	smlsdxcc	r1, r0, r0, r0
    11c8:	00000074 	andeq	r0, r0, r4, ror r0
    11cc:	000008c2 	andeq	r0, r0, r2, asr #17
    11d0:	0004f50d 	andeq	pc, r4, sp, lsl #10
    11d4:	74370100 	ldrtvc	r0, [r7], #-256	; 0x100
    11d8:	f8000000 			; <UNDEFINED> instruction: 0xf8000000
    11dc:	10000008 	andne	r0, r0, r8
    11e0:	006e656c 	rsbeq	r6, lr, ip, ror #10
    11e4:	00253901 	eoreq	r3, r5, r1, lsl #18
    11e8:	09160000 	ldmdbeq	r6, {}	; <UNPREDICTABLE>
    11ec:	730f0000 	movwvc	r0, #61440	; 0xf000
    11f0:	743d0100 	ldrtvc	r0, [sp], #-256	; 0x100
    11f4:	01000000 	mrseq	r0, (UNDEF: 0)
    11f8:	1d0a0050 	stcne	0, cr0, [sl, #-320]	; 0xfffffec0
    11fc:	01000004 	tsteq	r0, r4
    1200:	00007447 	andeq	r7, r0, r7, asr #8
    1204:	0085e800 	addeq	lr, r5, r0, lsl #16
    1208:	0001a800 	andeq	sl, r1, r0, lsl #16
    120c:	df9c0100 	svcle	0x009c0100
    1210:	0d000002 	stceq	0, cr0, [r0, #-8]
    1214:	000003e1 	andeq	r0, r0, r1, ror #7
    1218:	002c4701 	eoreq	r4, ip, r1, lsl #14
    121c:	093d0000 	ldmdbeq	sp!, {}	; <UNPREDICTABLE>
    1220:	640b0000 	strvs	r0, [fp], #-0
    1224:	01007473 	tsteq	r0, r3, ror r4
    1228:	00007447 	andeq	r7, r0, r7, asr #8
    122c:	00096b00 	andeq	r6, r9, r0, lsl #22
    1230:	006e0b00 	rsbeq	r0, lr, r0, lsl #22
    1234:	00254701 	eoreq	r4, r5, r1, lsl #14
    1238:	09d90000 	ldmibeq	r9, {}^	; <UNPREDICTABLE>
    123c:	760b0000 	strvc	r0, [fp], -r0
    1240:	01006c61 	tsteq	r0, r1, ror #24
    1244:	00002547 	andeq	r2, r0, r7, asr #10
    1248:	000a0500 	andeq	r0, sl, r0, lsl #10
    124c:	040f0d00 	streq	r0, [pc], #-3328	; 1254 <_start-0x6dac>
    1250:	47010000 	strmi	r0, [r1, -r0]
    1254:	00000025 	andeq	r0, r0, r5, lsr #32
    1258:	00000a84 	andeq	r0, r0, r4, lsl #21
    125c:	0003e60e 	andeq	lr, r3, lr, lsl #12
    1260:	25470100 	strbcs	r0, [r7, #-256]	; 0x100
    1264:	02000000 	andeq	r0, r0, #0
    1268:	620f0491 	andvs	r0, pc, #-1862270976	; 0x91000000
    126c:	01006675 	tsteq	r0, r5, ror r6
    1270:	0002df4c 	andeq	sp, r2, ip, asr #30
    1274:	a8910300 	ldmge	r1, {r8, r9}
    1278:	0070107f 	rsbseq	r1, r0, pc, ror r0
    127c:	00744c01 	rsbseq	r4, r4, r1, lsl #24
    1280:	0aae0000 	beq	feb81288 <__bss_end__+0xfeb77070>
    1284:	75100000 	ldrvc	r0, [r0, #-0]
    1288:	2c4d0100 	stfcse	f0, [sp], {-0}
    128c:	6a000000 	bvs	1294 <_start-0x6d6c>
    1290:	1100000b 	tstne	r0, fp
    1294:	0000015f 	andeq	r0, r0, pc, asr r1
    1298:	000002ff 	strdeq	r0, [r0], -pc	; <UNPREDICTABLE>
    129c:	9bcc0305 	blls	ff301eb8 <__bss_end__+0xff2f7ca0>
    12a0:	54120000 	ldrpl	r0, [r2], #-0
    12a4:	74000086 	strvc	r0, [r0], #-134	; 0x86
    12a8:	61000000 	mrsvs	r0, (UNDEF: 0)
    12ac:	13000002 	movwne	r0, #2
    12b0:	000003c3 	andeq	r0, r0, r3, asr #7
    12b4:	002c5201 	eoreq	r5, ip, r1, lsl #4
    12b8:	0c6f0000 	stcleq	0, cr0, [pc], #-0	; 12c0 <_start-0x6d40>
    12bc:	14000000 	strne	r0, [r0], #-0
    12c0:	00008728 	andeq	r8, r0, r8, lsr #14
    12c4:	00000680 	andeq	r0, r0, r0, lsl #13
    12c8:	00874415 	addeq	r4, r7, r5, lsl r4
    12cc:	00068700 	andeq	r8, r6, r0, lsl #14
    12d0:	0002a300 	andeq	sl, r2, r0, lsl #6
    12d4:	53011600 	movwpl	r1, #5632	; 0x1600
    12d8:	16750802 	ldrbtne	r0, [r5], -r2, lsl #16
    12dc:	03055201 	movweq	r5, #20993	; 0x5201
    12e0:	00009bcc 	andeq	r9, r0, ip, asr #23
    12e4:	05510116 	ldrbeq	r0, [r1, #-278]	; 0x116
    12e8:	009c0403 	addseq	r0, ip, r3, lsl #8
    12ec:	50011600 	andpl	r1, r1, r0, lsl #12
    12f0:	9bf00305 	blls	ffc01f0c <__bss_end__+0xffbf7cf4>
    12f4:	02160000 	andseq	r0, r6, #0
    12f8:	0305007d 	movweq	r0, #20605	; 0x507d
    12fc:	00009c18 	andeq	r9, r0, r8, lsl ip
    1300:	87481400 	strbhi	r1, [r8, -r0, lsl #8]
    1304:	069d0000 	ldreq	r0, [sp], r0
    1308:	54150000 	ldrpl	r0, [r5], #-0
    130c:	e0000087 	and	r0, r0, r7, lsl #1
    1310:	c1000000 	mrsgt	r0, (UNDEF: 0)
    1314:	16000002 	strne	r0, [r0], -r2
    1318:	91035101 	tstls	r3, r1, lsl #2
    131c:	17007fa0 	strne	r7, [r0, -r0, lsr #31]
    1320:	00008768 	andeq	r8, r0, r8, ror #14
    1324:	00000130 	andeq	r0, r0, r0, lsr r1
    1328:	03530116 	cmpeq	r3, #-2147483643	; 0x80000005
    132c:	167fa091 			; <UNDEFINED> instruction: 0x167fa091
    1330:	74025101 	strvc	r5, [r2], #-257	; 0x101
    1334:	50011600 	andpl	r1, r1, r0, lsl #12
    1338:	00007502 	andeq	r7, r0, r2, lsl #10
    133c:	007a1800 	rsbseq	r1, sl, r0, lsl #16
    1340:	02ef0000 	rsceq	r0, pc, #0
    1344:	6b190000 	blvs	64134c <__bss_end__+0x637134>
    1348:	3f000000 	svccc	0x00000000
    134c:	007a1800 	rsbseq	r1, sl, r0, lsl #16
    1350:	02ff0000 	rscseq	r0, pc, #0
    1354:	6b190000 	blvs	64135c <__bss_end__+0x637144>
    1358:	04000000 	streq	r0, [r0], #-0
    135c:	02ef0600 	rsceq	r0, pc, #0, 12
    1360:	001a0000 	andseq	r0, sl, r0
    1364:	01000004 	tsteq	r0, r4
    1368:	0087901f 	addeq	r9, r7, pc, lsl r0
    136c:	00006800 	andeq	r6, r0, r0, lsl #16
    1370:	929c0100 	addsls	r0, ip, #0, 2
    1374:	0d000003 	stceq	0, cr0, [r0, #-12]
    1378:	00000415 	andeq	r0, r0, r5, lsl r4
    137c:	03a11f01 			; <UNDEFINED> instruction: 0x03a11f01
    1380:	0c9b0000 	ldceq	0, cr0, [fp], {0}
    1384:	d90d0000 	stmdble	sp, {}	; <UNPREDICTABLE>
    1388:	01000003 	tsteq	r0, r3
    138c:	0003b61f 	andeq	fp, r3, pc, lsl r6
    1390:	000cc700 	andeq	ip, ip, r0, lsl #14
    1394:	015f1100 	cmpeq	pc, r0, lsl #2
    1398:	03cc0000 	biceq	r0, ip, #0
    139c:	03050000 	movweq	r0, #20480	; 0x5000
    13a0:	00009bd4 	ldrdeq	r9, [r0], -r4
    13a4:	0087a414 	addeq	sl, r7, r4, lsl r4
    13a8:	00068000 	andeq	r8, r6, r0
    13ac:	87c01500 	strbhi	r1, [r0, r0, lsl #10]
    13b0:	06870000 	streq	r0, [r7], r0
    13b4:	03880000 	orreq	r0, r8, #0
    13b8:	01160000 	tsteq	r6, r0
    13bc:	20080253 	andcs	r0, r8, r3, asr r2
    13c0:	05520116 	ldrbeq	r0, [r2, #-278]	; 0x116
    13c4:	009bd403 	addseq	sp, fp, r3, lsl #8
    13c8:	51011600 	tstpl	r1, r0, lsl #12
    13cc:	9c040305 	stcls	3, cr0, [r4], {5}
    13d0:	01160000 	tsteq	r6, r0
    13d4:	f0030550 			; <UNDEFINED> instruction: 0xf0030550
    13d8:	1600009b 			; <UNDEFINED> instruction: 0x1600009b
    13dc:	05007d02 	streq	r7, [r0, #-3330]	; 0xd02
    13e0:	009c4003 	addseq	r4, ip, r3
    13e4:	c4140000 	ldrgt	r0, [r4], #-0
    13e8:	9d000087 	stcls	0, cr0, [r0, #-540]	; 0xfffffde4
    13ec:	00000006 	andeq	r0, r0, r6
    13f0:	0000251b 	andeq	r2, r0, fp, lsl r5
    13f4:	0003a100 	andeq	sl, r3, r0, lsl #2
    13f8:	00251c00 	eoreq	r1, r5, r0, lsl #24
    13fc:	05000000 	streq	r0, [r0, #-0]
    1400:	00039204 	andeq	r9, r3, r4, lsl #4
    1404:	00251b00 	eoreq	r1, r5, r0, lsl #22
    1408:	03b60000 			; <UNDEFINED> instruction: 0x03b60000
    140c:	811c0000 	tsthi	ip, r0
    1410:	00000000 	andeq	r0, r0, r0
    1414:	03a70405 			; <UNDEFINED> instruction: 0x03a70405
    1418:	7a180000 	bvc	601420 <__bss_end__+0x5f7208>
    141c:	cc000000 	stcgt	0, cr0, [r0], {-0}
    1420:	19000003 	stmdbne	r0, {r0, r1}
    1424:	0000006b 	andeq	r0, r0, fp, rrx
    1428:	bc06000e 	stclt	0, cr0, [r6], {14}
    142c:	1d000003 	stcne	0, cr0, [r0, #-12]
    1430:	0000030e 	andeq	r0, r0, lr, lsl #6
    1434:	00257d01 	eoreq	r7, r5, r1, lsl #26
    1438:	87f80000 	ldrbhi	r0, [r8, r0]!
    143c:	02940000 	addseq	r0, r4, #0
    1440:	9c010000 	stcls	0, cr0, [r1], {-0}
    1444:	00000645 	andeq	r0, r0, r5, asr #12
    1448:	6675620b 	ldrbtvs	r6, [r5], -fp, lsl #4
    144c:	747d0100 	ldrbtvc	r0, [sp], #-256	; 0x100
    1450:	f3000000 	vhadd.u8	d0, d0, d0
    1454:	0b00000c 	bleq	148c <_start-0x6b74>
    1458:	7d01006e 	stcvc	0, cr0, [r1, #-440]	; 0xfffffe48
    145c:	00000025 	andeq	r0, r0, r5, lsr #32
    1460:	00000d1f 	andeq	r0, r0, pc, lsl sp
    1464:	746d660b 	strbtvc	r6, [sp], #-1547	; 0x60b
    1468:	817d0100 	cmnhi	sp, r0, lsl #2
    146c:	4d000000 	stcmi	0, cr0, [r0, #-0]
    1470:	0d00000d 	stceq	0, cr0, [r0, #-52]	; 0xffffffcc
    1474:	00000366 	andeq	r0, r0, r6, ror #6
    1478:	00ae7d01 	adceq	r7, lr, r1, lsl #26
    147c:	0d810000 	stceq	0, cr0, [r1]
    1480:	70100000 	andsvc	r0, r0, r0
    1484:	747e0100 	ldrbtvc	r0, [lr], #-256	; 0x100
    1488:	94000000 	strls	r0, [r0], #-0
    148c:	1000000d 	andne	r0, r0, sp
    1490:	7e010065 	cdpvc	0, 0, cr0, cr1, cr5, {3}
    1494:	00000074 	andeq	r0, r0, r4, ror r0
    1498:	00000e12 	andeq	r0, r0, r2, lsl lr
    149c:	00015f11 	andeq	r5, r1, r1, lsl pc
    14a0:	00065500 	andeq	r5, r6, r0, lsl #10
    14a4:	e4030500 	str	r0, [r3], #-1280	; 0x500
    14a8:	1e00009b 	mcrne	0, 0, r0, cr0, cr11, {4}
    14ac:	00000268 	andeq	r0, r0, r8, ror #4
    14b0:	01007310 	tsteq	r0, r0, lsl r3
    14b4:	0000748b 	andeq	r7, r0, fp, lsl #9
    14b8:	000e3900 	andeq	r3, lr, r0, lsl #18
    14bc:	756e0f00 	strbvc	r0, [lr, #-3840]!	; 0xf00
    14c0:	8b01006d 	blhi	4167c <__bss_end__+0x37464>
    14c4:	0000065a 	andeq	r0, r0, sl, asr r6
    14c8:	7ed89103 	atnvce	f1, f3
    14cc:	00040f13 	andeq	r0, r4, r3, lsl pc
    14d0:	2c8c0100 	stfcss	f0, [ip], {0}
    14d4:	8e000000 	cdphi	0, 0, cr0, cr0, cr0, {0}
    14d8:	1500000e 	strne	r0, [r0, #-14]
    14dc:	0000887c 	andeq	r8, r0, ip, ror r8
    14e0:	000000b9 	strheq	r0, [r0], -r9
    14e4:	00000491 	muleq	r0, r1, r4
    14e8:	02500116 	subseq	r0, r0, #-2147483643	; 0x80000005
    14ec:	14000075 	strne	r0, [r0], #-117	; 0x75
    14f0:	00008890 	muleq	r0, r0, r8
    14f4:	00000680 	andeq	r0, r0, r0, lsl #13
    14f8:	0088ac15 	addeq	sl, r8, r5, lsl ip
    14fc:	00068700 	andeq	r8, r6, r0, lsl #14
    1500:	0004d300 	andeq	sp, r4, r0, lsl #6
    1504:	53011600 	movwpl	r1, #5632	; 0x1600
    1508:	16920802 	ldrne	r0, [r2], r2, lsl #16
    150c:	03055201 	movweq	r5, #20993	; 0x5201
    1510:	00009be4 	andeq	r9, r0, r4, ror #23
    1514:	05510116 	ldrbeq	r0, [r1, #-278]	; 0x116
    1518:	009c0403 	addseq	r0, ip, r3, lsl #8
    151c:	50011600 	andpl	r1, r1, r0, lsl #12
    1520:	9bf00305 	blls	ffc0213c <__bss_end__+0xffbf7f24>
    1524:	02160000 	andseq	r0, r6, #0
    1528:	0305007d 	movweq	r0, #20605	; 0x507d
    152c:	00009c48 	andeq	r9, r0, r8, asr #24
    1530:	88b01400 	ldmhi	r0!, {sl, ip}
    1534:	069d0000 	ldreq	r0, [sp], r0
    1538:	20140000 	andscs	r0, r4, r0
    153c:	80000089 	andhi	r0, r0, r9, lsl #1
    1540:	15000006 	strne	r0, [r0, #-6]
    1544:	00008934 	andeq	r8, r0, r4, lsr r9
    1548:	00000687 	andeq	r0, r0, r7, lsl #13
    154c:	00000514 	andeq	r0, r0, r4, lsl r5
    1550:	02530116 	subseq	r0, r3, #-2147483643	; 0x80000005
    1554:	01169808 	tsteq	r6, r8, lsl #16
    1558:	e4030552 	str	r0, [r3], #-1362	; 0x552
    155c:	1600009b 			; <UNDEFINED> instruction: 0x1600009b
    1560:	03055101 	movweq	r5, #20737	; 0x5101
    1564:	00009c04 	andeq	r9, r0, r4, lsl #24
    1568:	05500116 	ldrbeq	r0, [r0, #-278]	; 0x116
    156c:	009c5403 	addseq	r5, ip, r3, lsl #8
    1570:	38140000 	ldmdacc	r4, {}	; <UNPREDICTABLE>
    1574:	9d000089 	stcls	0, cr0, [r0, #-548]	; 0xfffffddc
    1578:	15000006 	strne	r0, [r0, #-6]
    157c:	0000895c 	andeq	r8, r0, ip, asr r9
    1580:	0000019c 	muleq	r0, ip, r1
    1584:	0000054a 	andeq	r0, r0, sl, asr #10
    1588:	02520116 	subseq	r0, r2, #-2147483643	; 0x80000005
    158c:	01168008 	tsteq	r6, r8
    1590:	d0910351 	addsle	r0, r1, r1, asr r3
    1594:	5001167e 	andpl	r1, r1, lr, ror r6
    1598:	02163a01 	andseq	r3, r6, #4096	; 0x1000
    159c:	3101047d 	tstcc	r1, sp, ror r4
    15a0:	007d0216 	rsbseq	r0, sp, r6, lsl r2
    15a4:	00007702 	andeq	r7, r0, r2, lsl #14
    15a8:	00898015 	addeq	r8, r9, r5, lsl r0
    15ac:	00019c00 	andeq	r9, r1, r0, lsl #24
    15b0:	00057800 	andeq	r7, r5, r0, lsl #16
    15b4:	52011600 	andpl	r1, r1, #0, 12
    15b8:	16800802 	strne	r0, [r0], r2, lsl #16
    15bc:	91035101 	tstls	r3, r1, lsl #2
    15c0:	01167ed0 			; <UNDEFINED> instruction: 0x01167ed0
    15c4:	163a0150 			; <UNDEFINED> instruction: 0x163a0150
    15c8:	02047d02 	andeq	r7, r4, #2, 26	; 0x80
    15cc:	0216007b 	andseq	r0, r6, #123	; 0x7b
    15d0:	7702007d 	smlsdxvc	r2, sp, r0, r0
    15d4:	a4150000 	ldrge	r0, [r5], #-0
    15d8:	9c000089 	stcls	0, cr0, [r0], {137}	; 0x89
    15dc:	a6000001 	strge	r0, [r0], -r1
    15e0:	16000005 	strne	r0, [r0], -r5
    15e4:	08025201 	stmdaeq	r2, {r0, r9, ip, lr}
    15e8:	51011680 	smlabbpl	r1, r0, r6, r1
    15ec:	7ed09103 	atnvcs	f1, f3
    15f0:	01500116 	cmpeq	r0, r6, lsl r1
    15f4:	7d021640 	stcvc	6, cr1, [r2, #-256]	; 0xffffff00
    15f8:	007b0204 	rsbseq	r0, fp, r4, lsl #4
    15fc:	007d0216 	rsbseq	r0, sp, r6, lsl r2
    1600:	00007702 	andeq	r7, r0, r2, lsl #14
    1604:	0089c815 	addeq	ip, r9, r5, lsl r8
    1608:	00019c00 	andeq	r9, r1, r0, lsl #24
    160c:	0005d400 	andeq	sp, r5, r0, lsl #8
    1610:	52011600 	andpl	r1, r1, #0, 12
    1614:	16800802 	strne	r0, [r0], r2, lsl #16
    1618:	91035101 	tstls	r3, r1, lsl #2
    161c:	01167ed0 			; <UNDEFINED> instruction: 0x01167ed0
    1620:	16320150 			; <UNDEFINED> instruction: 0x16320150
    1624:	02047d02 	andeq	r7, r4, #2, 26	; 0x80
    1628:	0216007b 	andseq	r0, r6, #123	; 0x7b
    162c:	7702007d 	smlsdxvc	r2, sp, r0, r0
    1630:	f8150000 			; <UNDEFINED> instruction: 0xf8150000
    1634:	9c000089 	stcls	0, cr0, [r0], {137}	; 0x89
    1638:	02000001 	andeq	r0, r0, #1
    163c:	16000006 	strne	r0, [r0], -r6
    1640:	08025201 	stmdaeq	r2, {r0, r9, ip, lr}
    1644:	51011680 	smlabbpl	r1, r0, r6, r1
    1648:	7ed09103 	atnvcs	f1, f3
    164c:	01500116 	cmpeq	r0, r6, lsl r1
    1650:	7d021638 	stcvc	6, cr1, [r2, #-224]	; 0xffffff20
    1654:	007b0204 	rsbseq	r0, fp, r4, lsl #4
    1658:	007d0216 	rsbseq	r0, sp, r6, lsl r2
    165c:	00007702 	andeq	r7, r0, r2, lsl #14
    1660:	008a0014 	addeq	r0, sl, r4, lsl r0
    1664:	00068000 	andeq	r8, r6, r0
    1668:	8a1c1500 	bhi	706a70 <__bss_end__+0x6fc858>
    166c:	06870000 	streq	r0, [r7], r0
    1670:	063a0000 	ldrteq	r0, [sl], -r0
    1674:	01160000 	tsteq	r6, r0
    1678:	b9080253 	stmdblt	r8, {r0, r1, r4, r6, r9}
    167c:	05520116 	ldrbeq	r0, [r2, #-278]	; 0x116
    1680:	009be403 	addseq	lr, fp, r3, lsl #8
    1684:	51011600 	tstpl	r1, r0, lsl #12
    1688:	9c040305 	stcls	3, cr0, [r4], {5}
    168c:	01160000 	tsteq	r6, r0
    1690:	7c030550 	cfstr32vc	mvfx0, [r3], {80}	; 0x50
    1694:	0000009c 	muleq	r0, ip, r0
    1698:	008a2014 	addeq	r2, sl, r4, lsl r0
    169c:	00069d00 	andeq	r9, r6, r0, lsl #26
    16a0:	18000000 	stmdane	r0, {}	; <UNPREDICTABLE>
    16a4:	0000007a 	andeq	r0, r0, sl, ror r0
    16a8:	00000655 	andeq	r0, r0, r5, asr r6
    16ac:	00006b19 	andeq	r6, r0, r9, lsl fp
    16b0:	06000900 	streq	r0, [r0], -r0, lsl #18
    16b4:	00000645 	andeq	r0, r0, r5, asr #12
    16b8:	00007a18 	andeq	r7, r0, r8, lsl sl
    16bc:	00066a00 	andeq	r6, r6, r0, lsl #20
    16c0:	006b1900 	rsbeq	r1, fp, r0, lsl #18
    16c4:	007f0000 	rsbseq	r0, pc, r0
    16c8:	0003811f 	andeq	r8, r3, pc, lsl r1
    16cc:	a11d0300 	tstge	sp, r0, lsl #6
    16d0:	1f000003 	svcne	0x00000003
    16d4:	000003be 			; <UNDEFINED> instruction: 0x000003be
    16d8:	03b62203 			; <UNDEFINED> instruction: 0x03b62203
    16dc:	27200000 	strcs	r0, [r0, -r0]!
    16e0:	03000001 	movweq	r0, #1
    16e4:	0311211e 	tsteq	r1, #-2147483641	; 0x80000007
    16e8:	29030000 	stmdbcs	r3, {}	; <UNPREDICTABLE>
    16ec:	00000025 	andeq	r0, r0, r5, lsr #32
    16f0:	0000069d 	muleq	r0, sp, r6
    16f4:	0000811c 	andeq	r8, r0, ip, lsl r1
    16f8:	20002200 	andcs	r2, r0, r0, lsl #4
    16fc:	00000191 	muleq	r0, r1, r1
    1700:	b8006603 	stmdalt	r0, {r0, r1, r9, sl, sp, lr}
    1704:	04000000 	streq	r0, [r0], #-0
    1708:	0006b800 	andeq	fp, r6, r0, lsl #16
    170c:	b7010400 	strlt	r0, [r1, -r0, lsl #8]
    1710:	01000002 	tsteq	r0, r2
    1714:	00000430 	andeq	r0, r0, r0, lsr r4
    1718:	00000322 	andeq	r0, r0, r2, lsr #6
    171c:	00008a8c 	andeq	r8, r0, ip, lsl #21
    1720:	00000020 	andeq	r0, r0, r0, lsr #32
    1724:	000006b9 			; <UNDEFINED> instruction: 0x000006b9
    1728:	69050402 	stmdbvs	r5, {r1, sl}
    172c:	0300746e 	movweq	r7, #1134	; 0x46e
    1730:	004d0704 	subeq	r0, sp, r4, lsl #14
    1734:	01030000 	mrseq	r0, (UNDEF: 3)
    1738:	00020a06 	andeq	r0, r2, r6, lsl #20
    173c:	05020300 	streq	r0, [r2, #-768]	; 0x300
    1740:	00000216 	andeq	r0, r0, r6, lsl r2
    1744:	75050403 	strvc	r0, [r5, #-1027]	; 0x403
    1748:	03000000 	movweq	r0, #0
    174c:	00700508 	rsbseq	r0, r0, r8, lsl #10
    1750:	01030000 	mrseq	r0, (UNDEF: 3)
    1754:	00020808 	andeq	r0, r2, r8, lsl #16
    1758:	07020300 	streq	r0, [r2, -r0, lsl #6]
    175c:	0000016c 	andeq	r0, r0, ip, ror #2
    1760:	48070403 	stmdami	r7, {r0, r1, sl}
    1764:	03000000 	movweq	r0, #0
    1768:	00430708 	subeq	r0, r3, r8, lsl #14
    176c:	04030000 	streq	r0, [r3], #-0
    1770:	0001a407 	andeq	sl, r1, r7, lsl #8
    1774:	08010300 	stmdaeq	r1, {r8, r9}
    1778:	00000211 	andeq	r0, r0, r1, lsl r2
    177c:	00027304 	andeq	r7, r2, r4, lsl #6
    1780:	8c030100 	stfhis	f0, [r3], {-0}
    1784:	1000008a 	andne	r0, r0, sl, lsl #1
    1788:	01000000 	mrseq	r0, (UNDEF: 0)
    178c:	00009c9c 	muleq	r0, ip, ip
    1790:	00720500 	rsbseq	r0, r2, r0, lsl #10
    1794:	002c0401 	eoreq	r0, ip, r1, lsl #8
    1798:	0eb80000 	cdpeq	0, 11, cr0, cr8, cr0, {0}
    179c:	06000000 	streq	r0, [r0], -r0
    17a0:	00000422 	andeq	r0, r0, r2, lsr #8
    17a4:	8a9c0c01 	bhi	fe7047b0 <__bss_end__+0xfe6fa598>
    17a8:	00100000 	andseq	r0, r0, r0
    17ac:	9c010000 	stcls	0, cr0, [r1], {-0}
    17b0:	01007205 	tsteq	r0, r5, lsl #4
    17b4:	00002c0d 	andeq	r2, r0, sp, lsl #24
    17b8:	000edc00 	andeq	sp, lr, r0, lsl #24
    17bc:	ff000000 			; <UNDEFINED> instruction: 0xff000000
    17c0:	04000000 	streq	r0, [r0], #-0
    17c4:	00072300 	andeq	r2, r7, r0, lsl #6
    17c8:	b7010400 	strlt	r0, [r1, -r0, lsl #8]
    17cc:	01000002 	tsteq	r0, r2
    17d0:	0000044e 	andeq	r0, r0, lr, asr #8
    17d4:	00000322 	andeq	r0, r0, r2, lsr #6
    17d8:	00008aac 	andeq	r8, r0, ip, lsr #21
    17dc:	00000028 	andeq	r0, r0, r8, lsr #32
    17e0:	00000700 	andeq	r0, r0, r0, lsl #14
    17e4:	69050402 	stmdbvs	r5, {r1, sl}
    17e8:	0300746e 	movweq	r7, #1134	; 0x46e
    17ec:	004d0704 	subeq	r0, sp, r4, lsl #14
    17f0:	01030000 	mrseq	r0, (UNDEF: 3)
    17f4:	00020a06 	andeq	r0, r2, r6, lsl #20
    17f8:	05020300 	streq	r0, [r2, #-768]	; 0x300
    17fc:	00000216 	andeq	r0, r0, r6, lsl r2
    1800:	75050403 	strvc	r0, [r5, #-1027]	; 0x403
    1804:	03000000 	movweq	r0, #0
    1808:	00700508 	rsbseq	r0, r0, r8, lsl #10
    180c:	01030000 	mrseq	r0, (UNDEF: 3)
    1810:	00020808 	andeq	r0, r2, r8, lsl #16
    1814:	07020300 	streq	r0, [r2, -r0, lsl #6]
    1818:	0000016c 	andeq	r0, r0, ip, ror #2
    181c:	48070403 	stmdami	r7, {r0, r1, sl}
    1820:	03000000 	movweq	r0, #0
    1824:	00430708 	subeq	r0, r3, r8, lsl #14
    1828:	04030000 	streq	r0, [r3], #-0
    182c:	0001a407 	andeq	sl, r1, r7, lsl #8
    1830:	08010300 	stmdaeq	r1, {r8, r9}
    1834:	00000211 	andeq	r0, r0, r1, lsl r2
    1838:	007f0404 	rsbseq	r0, pc, r4, lsl #8
    183c:	72050000 	andvc	r0, r5, #0
    1840:	06000000 	streq	r0, [r0], -r0
    1844:	00000191 	muleq	r0, r1, r1
    1848:	8aac0401 	bhi	feb02854 <__bss_end__+0xfeaf863c>
    184c:	00280000 	eoreq	r0, r8, r0
    1850:	9c010000 	stcls	0, cr0, [r1], {-0}
    1854:	000000ca 	andeq	r0, r0, sl, asr #1
    1858:	008ac007 	addeq	ip, sl, r7
    185c:	0000ac00 	andeq	sl, r0, r0, lsl #24
    1860:	50010800 	andpl	r0, r1, r0, lsl #16
    1864:	9cb40305 	ldcls	3, cr0, [r4], #20
    1868:	09000000 	stmdbeq	r0, {}	; <UNPREDICTABLE>
    186c:	00008ac8 	andeq	r8, r0, r8, asr #21
    1870:	000000ea 	andeq	r0, r0, sl, ror #1
    1874:	000000c0 	andeq	r0, r0, r0, asr #1
    1878:	02500108 	subseq	r0, r0, #8, 2
    187c:	0a006408 	beq	1a8a4 <__bss_end__+0x1068c>
    1880:	00008acc 	andeq	r8, r0, ip, asr #21
    1884:	000000fb 	strdeq	r0, [r0], -fp
    1888:	00250b00 	eoreq	r0, r5, r0, lsl #22
    188c:	00d90000 	sbcseq	r0, r9, r0
    1890:	790c0000 	stmdbvc	ip, {}	; <UNPREDICTABLE>
    1894:	00000000 	andeq	r0, r0, r0
    1898:	0003be0d 	andeq	fp, r3, sp, lsl #28
    189c:	e4220200 	strt	r0, [r2], #-512	; 0x200
    18a0:	04000000 	streq	r0, [r0], #-0
    18a4:	0000ca04 	andeq	ip, r0, r4, lsl #20
    18a8:	02270e00 	eoreq	r0, r7, #0, 28
    18ac:	50020000 	andpl	r0, r2, r0
    18b0:	000000fb 	strdeq	r0, [r0], -fp
    18b4:	00002c0c 	andeq	r2, r0, ip, lsl #24
    18b8:	430f0000 	movwmi	r0, #61440	; 0xf000
    18bc:	02000004 	andeq	r0, r0, #4
    18c0:	02dd0063 	sbcseq	r0, sp, #99	; 0x63
    18c4:	00040000 	andeq	r0, r4, r0
    18c8:	000007ed 	andeq	r0, r0, sp, ror #15
    18cc:	02b70104 	adcseq	r0, r7, #4, 2
    18d0:	42010000 	andmi	r0, r1, #0
    18d4:	22000005 	andcs	r0, r0, #5
    18d8:	d4000003 	strle	r0, [r0], #-3
    18dc:	b000008a 	andlt	r0, r0, sl, lsl #1
    18e0:	97000000 	strls	r0, [r0, -r0]
    18e4:	02000007 	andeq	r0, r0, #7
    18e8:	6e690504 	cdpvs	5, 6, cr0, cr9, cr4, {0}
    18ec:	04030074 	streq	r0, [r3], #-116	; 0x74
    18f0:	00004d07 	andeq	r4, r0, r7, lsl #26
    18f4:	06010300 	streq	r0, [r1], -r0, lsl #6
    18f8:	0000020a 	andeq	r0, r0, sl, lsl #4
    18fc:	16050203 	strne	r0, [r5], -r3, lsl #4
    1900:	03000002 	movweq	r0, #2
    1904:	00750504 	rsbseq	r0, r5, r4, lsl #10
    1908:	08030000 	stmdaeq	r3, {}	; <UNPREDICTABLE>
    190c:	00007005 	andeq	r7, r0, r5
    1910:	02800400 	addeq	r0, r0, #0, 8
    1914:	2e020000 	cdpcs	0, 0, cr0, cr2, cr0, {0}
    1918:	0000005a 	andeq	r0, r0, sl, asr r0
    191c:	08080103 	stmdaeq	r8, {r0, r1, r8}
    1920:	03000002 	movweq	r0, #2
    1924:	016c0702 	cmneq	ip, r2, lsl #14
    1928:	62040000 	andvs	r0, r4, #0
    192c:	02000005 	andeq	r0, r0, #5
    1930:	00007334 	andeq	r7, r0, r4, lsr r3
    1934:	07040300 	streq	r0, [r4, -r0, lsl #6]
    1938:	00000048 	andeq	r0, r0, r8, asr #32
    193c:	43070803 	movwmi	r0, #30723	; 0x7803
    1940:	03000000 	movweq	r0, #0
    1944:	01a40704 			; <UNDEFINED> instruction: 0x01a40704
    1948:	01030000 	mrseq	r0, (UNDEF: 3)
    194c:	00021108 	andeq	r1, r2, r8, lsl #2
    1950:	95040500 	strls	r0, [r4, #-1280]	; 0x500
    1954:	06000000 	streq	r0, [r0], -r0
    1958:	00000088 	andeq	r0, r0, r8, lsl #1
    195c:	0e030c07 	cdpeq	12, 0, cr0, cr3, cr7, {0}
    1960:	000000d1 	ldrdeq	r0, [r0], -r1
    1964:	00787408 	rsbseq	r7, r8, r8, lsl #8
    1968:	004f0f03 	subeq	r0, pc, r3, lsl #30
    196c:	08000000 	stmdaeq	r0, {}	; <UNPREDICTABLE>
    1970:	03007872 	movweq	r7, #2162	; 0x872
    1974:	00004f0f 	andeq	r4, r0, pc, lsl #30
    1978:	e1090100 	mrs	r0, (UNDEF: 25)
    197c:	03000004 	movweq	r0, #4
    1980:	00006810 	andeq	r6, r0, r0, lsl r8
    1984:	92090400 	andls	r0, r9, #0, 8
    1988:	03000004 	movweq	r0, #4
    198c:	00006811 	andeq	r6, r0, r1, lsl r8
    1990:	04000800 	streq	r0, [r0], #-2048	; 0x800
    1994:	000004ca 	andeq	r0, r0, sl, asr #9
    1998:	009a1203 	addseq	r1, sl, r3, lsl #4
    199c:	010a0000 	mrseq	r0, (UNDEF: 10)
    19a0:	00f71004 	rscseq	r1, r7, r4
    19a4:	e60b0000 	str	r0, [fp], -r0
    19a8:	01000004 	tsteq	r0, r4
    19ac:	0004d40b 	andeq	sp, r4, fp, lsl #8
    19b0:	bc0b0200 	sfmlt	f0, 4, [fp], {-0}
    19b4:	03000004 	movweq	r0, #4
    19b8:	04fb0400 	ldrbteq	r0, [fp], #1024	; 0x400
    19bc:	10040000 	andne	r0, r4, r0
    19c0:	000000dc 	ldrdeq	r0, [r0], -ip
    19c4:	14041407 	strne	r1, [r4], #-1031	; 0x407
    19c8:	0000012f 	andeq	r0, r0, pc, lsr #2
    19cc:	00056b09 	andeq	r6, r5, r9, lsl #22
    19d0:	2c150400 	cfldrscs	mvf0, [r5], {-0}
    19d4:	00000000 	andeq	r0, r0, r0
    19d8:	00055609 	andeq	r5, r5, r9, lsl #12
    19dc:	f7180400 			; <UNDEFINED> instruction: 0xf7180400
    19e0:	04000000 	streq	r0, [r0], #-0
    19e4:	00052109 	andeq	r2, r5, r9, lsl #2
    19e8:	d11b0400 	tstle	fp, r0, lsl #8
    19ec:	08000000 	stmdaeq	r0, {}	; <UNPREDICTABLE>
    19f0:	05130400 	ldreq	r0, [r3, #-1024]	; 0x400
    19f4:	20040000 	andcs	r0, r4, r0
    19f8:	00000102 	andeq	r0, r0, r2, lsl #2
    19fc:	0004680c 	andeq	r6, r4, ip, lsl #16
    1a00:	25060100 	strcs	r0, [r6, #-256]	; 0x100
    1a04:	d4000000 	strle	r0, [r0], #-0
    1a08:	2000008a 	andcs	r0, r0, sl, lsl #1
    1a0c:	01000000 	mrseq	r0, (UNDEF: 0)
    1a10:	00017a9c 	muleq	r1, ip, sl
    1a14:	00630d00 	rsbeq	r0, r3, r0, lsl #26
    1a18:	00250601 	eoreq	r0, r5, r1, lsl #12
    1a1c:	0f000000 	svceq	0x00000000
    1a20:	e80e0000 	stmda	lr, {}	; <UNPREDICTABLE>
    1a24:	7a00008a 	bvc	1c54 <_start-0x63ac>
    1a28:	0f000002 	svceq	0x00000002
    1a2c:	74025101 	strvc	r5, [r2], #-257	; 0x101
    1a30:	50010f00 	andpl	r0, r1, r0, lsl #30
    1a34:	a2080305 	andge	r0, r8, #335544320	; 0x14000000
    1a38:	00000000 	andeq	r0, r0, r0
    1a3c:	0004f310 	andeq	pc, r4, r0, lsl r3	; <UNPREDICTABLE>
    1a40:	f40b0100 	vst4.8	{d0,d2,d4,d6}, [fp], r0
    1a44:	9000008a 	andls	r0, r0, sl, lsl #1
    1a48:	01000000 	mrseq	r0, (UNDEF: 0)
    1a4c:	0002279c 	muleq	r2, ip, r7
    1a50:	047c1100 	ldrbteq	r1, [ip], #-256	; 0x100
    1a54:	0c010000 	stceq	0, cr0, [r1], {-0}
    1a58:	00000025 	andeq	r0, r0, r5, lsr #32
    1a5c:	00053611 	andeq	r3, r5, r1, lsl r6
    1a60:	250c0100 	strcs	r0, [ip, #-256]	; 0x100
    1a64:	12000000 	andne	r0, r0, #0
    1a68:	000000aa 	andeq	r0, r0, sl, lsr #1
    1a6c:	62130d01 	andsvs	r0, r3, #1, 26	; 0x40
    1a70:	01007373 	tsteq	r0, r3, ror r3
    1a74:	0002270f 	andeq	r2, r2, pc, lsl #14
    1a78:	000f1e00 	andeq	r1, pc, r0, lsl #28
    1a7c:	048a1400 	streq	r1, [sl], #1024	; 0x400
    1a80:	10010000 	andne	r0, r1, r0
    1a84:	00000227 	andeq	r0, r0, r7, lsr #4
    1a88:	00626313 	rsbeq	r6, r2, r3, lsl r3
    1a8c:	022d1701 	eoreq	r1, sp, #262144	; 0x40000
    1a90:	0f3e0000 	svceq	0x003e0000
    1a94:	1c150000 	ldcne	0, cr0, [r5], {-0}
    1a98:	9600008b 	strls	r0, [r0], -fp, lsl #1
    1a9c:	16000002 	strne	r0, [r0], -r2
    1aa0:	00008b58 	andeq	r8, r0, r8, asr fp
    1aa4:	000002a1 	andeq	r0, r0, r1, lsr #5
    1aa8:	000001fd 	strdeq	r0, [r0], -sp
    1aac:	0551010f 	ldrbeq	r0, [r1, #-271]	; 0x10f
    1ab0:	009cc003 	addseq	ip, ip, r3
    1ab4:	50010f00 	andpl	r0, r1, r0, lsl #30
    1ab8:	a2080305 	andge	r0, r8, #335544320	; 0x14000000
    1abc:	16000000 	strne	r0, [r0], -r0
    1ac0:	00008b60 	andeq	r8, r0, r0, ror #22
    1ac4:	000002bc 			; <UNDEFINED> instruction: 0x000002bc
    1ac8:	00000214 	andeq	r0, r0, r4, lsl r2
    1acc:	0550010f 	ldrbeq	r0, [r0, #-271]	; 0x10f
    1ad0:	009ce403 	addseq	lr, ip, r3, lsl #8
    1ad4:	64150000 	ldrvs	r0, [r5], #-0
    1ad8:	d200008b 	andle	r0, r0, #139	; 0x8b
    1adc:	15000002 	strne	r0, [r0, #-2]
    1ae0:	00008b68 	andeq	r8, r0, r8, ror #22
    1ae4:	000002d9 	ldrdeq	r0, [r0], -r9
    1ae8:	25040500 	strcs	r0, [r4, #-1280]	; 0x500
    1aec:	05000000 	streq	r0, [r0, #-0]
    1af0:	00012f04 	andeq	r2, r1, r4, lsl #30
    1af4:	04a01700 	strteq	r1, [r0], #1792	; 0x700
    1af8:	05010000 	streq	r0, [r1, #-0]
    1afc:	000000d1 	ldrdeq	r0, [r0], -r1
    1b00:	a2080305 	andge	r0, r8, #335544320	; 0x14000000
    1b04:	25180000 	ldrcs	r0, [r8, #-0]
    1b08:	53000000 	movwpl	r0, #0
    1b0c:	19000002 	stmdbne	r0, {r1}
    1b10:	00000025 	andeq	r0, r0, r5, lsr #32
    1b14:	03811100 	orreq	r1, r1, #0, 2
    1b18:	1d050000 	stcne	0, cr0, [r5, #-0]
    1b1c:	0000025e 	andeq	r0, r0, lr, asr r2
    1b20:	02440405 	subeq	r0, r4, #83886080	; 0x5000000
    1b24:	7c110000 	ldcvc	0, cr0, [r1], {-0}
    1b28:	01000004 	tsteq	r0, r4
    1b2c:	0000250c 	andeq	r2, r0, ip, lsl #10
    1b30:	05361100 	ldreq	r1, [r6, #-256]!	; 0x100
    1b34:	0c010000 	stceq	0, cr0, [r1], {-0}
    1b38:	00000025 	andeq	r0, r0, r5, lsr #32
    1b3c:	0005061a 	andeq	r0, r5, sl, lsl r6
    1b40:	90440300 	subls	r0, r4, r0, lsl #6
    1b44:	19000002 	stmdbne	r0, {r1}
    1b48:	00000290 	muleq	r0, r0, r2
    1b4c:	00005a19 	andeq	r5, r0, r9, lsl sl
    1b50:	04050000 	streq	r0, [r5], #-0
    1b54:	000000d1 	ldrdeq	r0, [r0], -r1
    1b58:	0005291b 	andeq	r2, r5, fp, lsl r9
    1b5c:	2d2a0400 	cfstrscs	mvf0, [sl, #-0]
    1b60:	1c000002 	stcne	0, cr0, [r0], {2}
    1b64:	000004ad 	andeq	r0, r0, sp, lsr #9
    1b68:	00251503 	eoreq	r1, r5, r3, lsl #10
    1b6c:	02bc0000 	adcseq	r0, ip, #0
    1b70:	90190000 	andsls	r0, r9, r0
    1b74:	19000002 	stmdbne	r0, {r1}
    1b78:	0000008f 	andeq	r0, r0, pc, lsl #1
    1b7c:	111c001d 	tstne	ip, sp, lsl r0
    1b80:	05000003 	streq	r0, [r0, #-3]
    1b84:	00002529 	andeq	r2, r0, r9, lsr #10
    1b88:	0002d200 	andeq	sp, r2, r0, lsl #4
    1b8c:	008f1900 	addeq	r1, pc, r0, lsl #18
    1b90:	001d0000 	andseq	r0, sp, r0
    1b94:	0000aa12 	andeq	sl, r0, r2, lsl sl
    1b98:	12d10500 	sbcsne	r0, r1, #0, 10
    1b9c:	00000443 	andeq	r0, r0, r3, asr #8
    1ba0:	ad006305 	stcge	3, cr6, [r0, #-20]	; 0xffffffec
    1ba4:	04000001 	streq	r0, [r0], #-1
    1ba8:	00098400 	andeq	r8, r9, r0, lsl #8
    1bac:	b7010400 	strlt	r0, [r1, -r0, lsl #8]
    1bb0:	01000002 	tsteq	r0, r2
    1bb4:	0000058b 	andeq	r0, r0, fp, lsl #11
    1bb8:	00000322 	andeq	r0, r0, r2, lsr #6
    1bbc:	00000280 	andeq	r0, r0, r0, lsl #5
    1bc0:	00000000 	andeq	r0, r0, r0
    1bc4:	000008bc 			; <UNDEFINED> instruction: 0x000008bc
    1bc8:	69050402 	stmdbvs	r5, {r1, sl}
    1bcc:	0300746e 	movweq	r7, #1134	; 0x46e
    1bd0:	004d0704 	subeq	r0, sp, r4, lsl #14
    1bd4:	01030000 	mrseq	r0, (UNDEF: 3)
    1bd8:	00020a06 	andeq	r0, r2, r6, lsl #20
    1bdc:	05020300 	streq	r0, [r2, #-768]	; 0x300
    1be0:	00000216 	andeq	r0, r0, r6, lsl r2
    1be4:	75050403 	strvc	r0, [r5, #-1027]	; 0x403
    1be8:	03000000 	movweq	r0, #0
    1bec:	00700508 	rsbseq	r0, r0, r8, lsl #10
    1bf0:	01030000 	mrseq	r0, (UNDEF: 3)
    1bf4:	00020808 	andeq	r0, r2, r8, lsl #16
    1bf8:	07020300 	streq	r0, [r2, -r0, lsl #6]
    1bfc:	0000016c 	andeq	r0, r0, ip, ror #2
    1c00:	48070403 	stmdami	r7, {r0, r1, sl}
    1c04:	03000000 	movweq	r0, #0
    1c08:	00430708 	subeq	r0, r3, r8, lsl #14
    1c0c:	04030000 	streq	r0, [r3], #-0
    1c10:	0001a407 	andeq	sl, r1, r7, lsl #8
    1c14:	08010300 	stmdaeq	r1, {r8, r9}
    1c18:	00000211 	andeq	r0, r0, r1, lsl r2
    1c1c:	00057104 	andeq	r7, r5, r4, lsl #2
    1c20:	250e0100 	strcs	r0, [lr, #-256]	; 0x100
    1c24:	84000000 	strhi	r0, [r0], #-0
    1c28:	1800008b 	stmdane	r0, {r0, r1, r3, r7}
    1c2c:	01000000 	mrseq	r0, (UNDEF: 0)
    1c30:	0000a29c 	muleq	r0, ip, r2
    1c34:	05dd0500 	ldrbeq	r0, [sp, #1280]	; 0x500
    1c38:	0f010000 	svceq	0x00010000
    1c3c:	0000002c 	andeq	r0, r0, ip, lsr #32
    1c40:	00000f5e 	andeq	r0, r0, lr, asr pc
    1c44:	05c00600 	strbeq	r0, [r0, #1536]	; 0x600
    1c48:	17010000 	strne	r0, [r1, -r0]
    1c4c:	00008b9c 	muleq	r0, ip, fp
    1c50:	00000014 	andeq	r0, r0, r4, lsl r0
    1c54:	00c79c01 	sbceq	r9, r7, r1, lsl #24
    1c58:	dd050000 	stcle	0, cr0, [r5, #-0]
    1c5c:	01000005 	tsteq	r0, r5
    1c60:	00002c18 	andeq	r2, r0, r8, lsl ip
    1c64:	000f7d00 	andeq	r7, pc, r0, lsl #26
    1c68:	43060000 	movwmi	r0, #24576	; 0x6000
    1c6c:	01000004 	tsteq	r0, r4
    1c70:	008bb01f 	addeq	fp, fp, pc, lsl r0
    1c74:	00004800 	andeq	r4, r0, r0, lsl #16
    1c78:	779c0100 	ldrvc	r0, [ip, r0, lsl #2]
    1c7c:	07000001 	streq	r0, [r0, -r1]
    1c80:	000005d5 	ldrdeq	r0, [r0], -r5
    1c84:	01772a01 	cmneq	r7, r1, lsl #20
    1c88:	001c0000 	andseq	r0, ip, r0
    1c8c:	b8072010 	stmdalt	r7, {r4, sp}
    1c90:	01000005 	tsteq	r0, r5
    1c94:	0001772b 	andeq	r7, r1, fp, lsr #14
    1c98:	10002400 	andne	r2, r0, r0, lsl #8
    1c9c:	057f0720 	ldrbeq	r0, [pc, #-1824]!	; 1584 <_start-0x6a7c>
    1ca0:	2c010000 	stccs	0, cr0, [r1], {-0}
    1ca4:	00000177 	andeq	r0, r0, r7, ror r1
    1ca8:	5a000000 	bpl	1cb0 <_start-0x6350>
    1cac:	00059f08 	andeq	r9, r5, r8, lsl #30
    1cb0:	772d0100 	strvc	r0, [sp, -r0, lsl #2]!
    1cb4:	20000001 	andcs	r0, r0, r1
    1cb8:	008bb809 	addeq	fp, fp, r9, lsl #16
    1cbc:	00007900 	andeq	r7, r0, r0, lsl #18
    1cc0:	8bc40900 	blhi	ff1040c8 <__bss_end__+0xff0f9eb0>
    1cc4:	00a20000 	adceq	r0, r2, r0
    1cc8:	cc0a0000 	stcgt	0, cr0, [sl], {-0}
    1ccc:	8d00008b 	stchi	0, cr0, [r0, #-556]	; 0xfffffdd4
    1cd0:	3a000001 	bcc	1cdc <_start-0x6324>
    1cd4:	0b000001 	bleq	1ce0 <_start-0x6320>
    1cd8:	4e015001 	cdpmi	0, 0, cr5, cr1, cr1, {0}
    1cdc:	8bd80a00 	blhi	ff6044e4 <__bss_end__+0xff5fa2cc>
    1ce0:	019e0000 	orrseq	r0, lr, r0
    1ce4:	015a0000 	cmpeq	sl, r0
    1ce8:	010b0000 	mrseq	r0, (UNDEF: 11)
    1cec:	010c0551 	tsteq	ip, r1, asr r5
    1cf0:	0b5a0000 	bleq	1681cf8 <__bss_end__+0x1677ae0>
    1cf4:	0c055001 	stceq	0, cr5, [r5], {1}
    1cf8:	20100024 	andscs	r0, r0, r4, lsr #32
    1cfc:	8be40c00 	blhi	ff904d04 <__bss_end__+0xff8faaec>
    1d00:	019e0000 	orrseq	r0, lr, r0
    1d04:	010b0000 	mrseq	r0, (UNDEF: 11)
    1d08:	200c0551 	andcs	r0, ip, r1, asr r5
    1d0c:	0b5a0000 	bleq	1681d14 <__bss_end__+0x1677afc>
    1d10:	0c055001 	stceq	0, cr5, [r5], {1}
    1d14:	2010001c 	andscs	r0, r0, ip, lsl r0
    1d18:	250d0000 	strcs	r0, [sp, #-0]
    1d1c:	08000000 	stmdaeq	r0, {}	; <UNPREDICTABLE>
    1d20:	00000574 	andeq	r0, r0, r4, ror r5
    1d24:	01880d01 	orreq	r0, r8, r1, lsl #26
    1d28:	0d100000 	ldceq	0, cr0, [r0, #-0]
    1d2c:	0000002c 	andeq	r0, r0, ip, lsr #32
    1d30:	0002270e 	andeq	r2, r2, lr, lsl #14
    1d34:	9e500200 	cdpls	2, 5, cr0, cr0, cr0, {0}
    1d38:	0f000001 	svceq	0x00000001
    1d3c:	0000002c 	andeq	r0, r0, ip, lsr #32
    1d40:	05cf1000 	strbeq	r1, [pc]	; 1d48 <_start-0x62b8>
    1d44:	9c020000 	stcls	0, cr0, [r2], {-0}
    1d48:	00002c0f 	andeq	r2, r0, pc, lsl #24
    1d4c:	002c0f00 	eoreq	r0, ip, r0, lsl #30
    1d50:	00000000 	andeq	r0, r0, r0
    1d54:	000001d8 	ldrdeq	r0, [r0], -r8
    1d58:	0a720004 	beq	1c81d70 <__bss_end__+0x1c77b58>
    1d5c:	01040000 	mrseq	r0, (UNDEF: 4)
    1d60:	000002b7 			; <UNDEFINED> instruction: 0x000002b7
    1d64:	0005ff01 	andeq	pc, r5, r1, lsl #30
    1d68:	00032200 	andeq	r2, r3, r0, lsl #4
    1d6c:	008bf800 	addeq	pc, fp, r0, lsl #16
    1d70:	00008800 	andeq	r8, r0, r0, lsl #16
    1d74:	00095900 	andeq	r5, r9, r0, lsl #18
    1d78:	05040200 	streq	r0, [r4, #-512]	; 0x200
    1d7c:	00746e69 	rsbseq	r6, r4, r9, ror #28
    1d80:	4d070403 	cfstrsmi	mvf0, [r7, #-12]
    1d84:	03000000 	movweq	r0, #0
    1d88:	020a0601 	andeq	r0, sl, #1048576	; 0x100000
    1d8c:	02030000 	andeq	r0, r3, #0
    1d90:	00021605 	andeq	r1, r2, r5, lsl #12
    1d94:	05040300 	streq	r0, [r4, #-768]	; 0x300
    1d98:	00000075 	andeq	r0, r0, r5, ror r0
    1d9c:	70050803 	andvc	r0, r5, r3, lsl #16
    1da0:	03000000 	movweq	r0, #0
    1da4:	02080801 	andeq	r0, r8, #65536	; 0x10000
    1da8:	02030000 	andeq	r0, r3, #0
    1dac:	00016c07 	andeq	r6, r1, r7, lsl #24
    1db0:	07040300 	streq	r0, [r4, -r0, lsl #6]
    1db4:	00000048 	andeq	r0, r0, r8, asr #32
    1db8:	43070803 	movwmi	r0, #30723	; 0x7803
    1dbc:	03000000 	movweq	r0, #0
    1dc0:	01a40704 			; <UNDEFINED> instruction: 0x01a40704
    1dc4:	01030000 	mrseq	r0, (UNDEF: 3)
    1dc8:	00021108 	andeq	r1, r2, r8, lsl #2
    1dcc:	061e0400 	ldreq	r0, [lr], -r0, lsl #8
    1dd0:	05010000 	streq	r0, [r1, #-0]
    1dd4:	00008bf8 	strdeq	r8, [r0], -r8	; <UNPREDICTABLE>
    1dd8:	0000001c 	andeq	r0, r0, ip, lsl r0
    1ddc:	009e9c01 	addseq	r9, lr, r1, lsl #24
    1de0:	18050000 	stmdane	r5, {}	; <UNPREDICTABLE>
    1de4:	01000006 	tsteq	r0, r6
    1de8:	00002c05 	andeq	r2, r0, r5, lsl #24
    1dec:	000fa700 	andeq	sl, pc, r0, lsl #14
    1df0:	e2060000 	and	r0, r6, #0
    1df4:	01000005 	tsteq	r0, r5
    1df8:	00002c0b 	andeq	r2, r0, fp, lsl #24
    1dfc:	008c1400 	addeq	r1, ip, r0, lsl #8
    1e00:	00001400 	andeq	r1, r0, r0, lsl #8
    1e04:	cb9c0100 	blgt	fe70220c <__bss_end__+0xfe6f7ff4>
    1e08:	07000000 	streq	r0, [r0, -r0]
    1e0c:	00008c20 	andeq	r8, r0, r0, lsr #24
    1e10:	000001ca 	andeq	r0, r0, sl, asr #3
    1e14:	05500108 	ldrbeq	r0, [r0, #-264]	; 0x108
    1e18:	0030040c 	eorseq	r0, r0, ip, lsl #8
    1e1c:	06000020 	streq	r0, [r0], -r0, lsr #32
    1e20:	00000634 	andeq	r0, r0, r4, lsr r6
    1e24:	002c1001 	eoreq	r1, ip, r1
    1e28:	8c280000 	stchi	0, cr0, [r8], #-0
    1e2c:	000c0000 	andeq	r0, ip, r0
    1e30:	9c010000 	stcls	0, cr0, [r1], {-0}
    1e34:	000000f9 	strdeq	r0, [r0], -r9
    1e38:	01007509 	tsteq	r0, r9, lsl #10
    1e3c:	00002c14 	andeq	r2, r0, r4, lsl ip
    1e40:	0a500100 	beq	1402248 <__bss_end__+0x13f8030>
    1e44:	00008c30 	andeq	r8, r0, r0, lsr ip
    1e48:	0000009e 	muleq	r0, lr, r0
    1e4c:	062b0400 	strteq	r0, [fp], -r0, lsl #8
    1e50:	19010000 	stmdbne	r1, {}	; <UNPREDICTABLE>
    1e54:	00008c34 	andeq	r8, r0, r4, lsr ip
    1e58:	00000024 	andeq	r0, r0, r4, lsr #32
    1e5c:	01579c01 	cmpeq	r7, r1, lsl #24
    1e60:	750b0000 	strvc	r0, [fp, #-0]
    1e64:	19010073 	stmdbne	r1, {r0, r1, r4, r5, r6}
    1e68:	0000002c 	andeq	r0, r0, ip, lsr #32
    1e6c:	00000fdb 	ldrdeq	r0, [r0], -fp
    1e70:	00627209 	rsbeq	r7, r2, r9, lsl #4
    1e74:	002c1a01 	eoreq	r1, ip, r1, lsl #20
    1e78:	54010000 	strpl	r0, [r1], #-0
    1e7c:	008c440c 	addeq	r4, ip, ip, lsl #8
    1e80:	00001000 	andeq	r1, r0, r0
    1e84:	00014d00 	andeq	r4, r1, r0, lsl #26
    1e88:	61720d00 	cmnvs	r2, r0, lsl #26
    1e8c:	2c1c0100 	ldfcss	f0, [ip], {-0}
    1e90:	f9000000 			; <UNDEFINED> instruction: 0xf9000000
    1e94:	0a00000f 	beq	1ed8 <_start-0x6128>
    1e98:	00008c48 	andeq	r8, r0, r8, asr #24
    1e9c:	000000cb 	andeq	r0, r0, fp, asr #1
    1ea0:	8c400a00 	mcrrhi	10, 0, r0, r0, cr0
    1ea4:	00cb0000 	sbceq	r0, fp, r0
    1ea8:	04000000 	streq	r0, [r0], #-0
    1eac:	00000227 	andeq	r0, r0, r7, lsr #4
    1eb0:	8c582201 	lfmhi	f2, 2, [r8], {1}
    1eb4:	00140000 	andseq	r0, r4, r0
    1eb8:	9c010000 	stcls	0, cr0, [r1], {-0}
    1ebc:	00000190 	muleq	r0, r0, r1
    1ec0:	00736d0b 	rsbseq	r6, r3, fp, lsl #26
    1ec4:	002c2201 	eoreq	r2, ip, r1, lsl #4
    1ec8:	100c0000 	andne	r0, ip, r0
    1ecc:	68070000 	stmdavs	r7, {}	; <UNPREDICTABLE>
    1ed0:	f900008c 			; <UNDEFINED> instruction: 0xf900008c
    1ed4:	08000000 	stmdaeq	r0, {}	; <UNPREDICTABLE>
    1ed8:	f3075001 	vhadd.u8	d5, d7, d1
    1edc:	e80a5001 	stmda	sl, {r0, ip, lr}
    1ee0:	00001e03 	andeq	r1, r0, r3, lsl #28
    1ee4:	0005f504 	andeq	pc, r5, r4, lsl #10
    1ee8:	6c250100 	stfvss	f0, [r5], #-0
    1eec:	1400008c 	strne	r0, [r0], #-140	; 0x8c
    1ef0:	01000000 	mrseq	r0, (UNDEF: 0)
    1ef4:	0001ca9c 	muleq	r1, ip, sl
    1ef8:	65730b00 	ldrbvs	r0, [r3, #-2816]!	; 0xb00
    1efc:	25010063 	strcs	r0, [r1, #-99]	; 0x63
    1f00:	0000002c 	andeq	r0, r0, ip, lsr #32
    1f04:	0000102d 	andeq	r1, r0, sp, lsr #32
    1f08:	008c7c07 	addeq	r7, ip, r7, lsl #24
    1f0c:	00015700 	andeq	r5, r1, r0, lsl #14
    1f10:	50010800 	andpl	r0, r1, r0, lsl #16
    1f14:	5001f307 	andpl	pc, r1, r7, lsl #6
    1f18:	1e03e80a 	cdpne	8, 0, cr14, cr3, cr10, {0}
    1f1c:	120e0000 	andne	r0, lr, #0
    1f20:	02000006 	andeq	r0, r0, #6
    1f24:	00002ca8 	andeq	r2, r0, r8, lsr #25
    1f28:	002c0f00 	eoreq	r0, ip, r0, lsl #30
    1f2c:	00000000 	andeq	r0, r0, r0
    1f30:	00000882 	andeq	r0, r0, r2, lsl #17
    1f34:	0b550004 	bleq	1541f4c <__bss_end__+0x1537d34>
    1f38:	01040000 	mrseq	r0, (UNDEF: 4)
    1f3c:	000002b7 			; <UNDEFINED> instruction: 0x000002b7
    1f40:	00068701 	andeq	r8, r6, r1, lsl #14
    1f44:	00032200 	andeq	r2, r3, r0, lsl #4
    1f48:	008c8000 	addeq	r8, ip, r0
    1f4c:	0005a000 	andeq	sl, r5, r0
    1f50:	000a0000 	andeq	r0, sl, r0
    1f54:	07080200 	streq	r0, [r8, -r0, lsl #4]
    1f58:	00000043 	andeq	r0, r0, r3, asr #32
    1f5c:	4d070402 	cfstrsmi	mvf0, [r7, #-8]
    1f60:	02000000 	andeq	r0, r0, #0
    1f64:	020a0601 	andeq	r0, sl, #1048576	; 0x100000
    1f68:	02020000 	andeq	r0, r2, #0
    1f6c:	00021605 	andeq	r1, r2, r5, lsl #12
    1f70:	05040200 	streq	r0, [r4, #-512]	; 0x200
    1f74:	00000075 	andeq	r0, r0, r5, ror r0
    1f78:	70050802 	andvc	r0, r5, r2, lsl #16
    1f7c:	02000000 	andeq	r0, r0, #0
    1f80:	02080801 	andeq	r0, r8, #65536	; 0x10000
    1f84:	02020000 	andeq	r0, r2, #0
    1f88:	00016c07 	andeq	r6, r1, r7, lsl #24
    1f8c:	07040200 	streq	r0, [r4, -r0, lsl #4]
    1f90:	00000048 	andeq	r0, r0, r8, asr #32
    1f94:	69050403 	stmdbvs	r5, {r0, r1, sl}
    1f98:	0200746e 	andeq	r7, r0, #1845493760	; 0x6e000000
    1f9c:	01a40704 			; <UNDEFINED> instruction: 0x01a40704
    1fa0:	01020000 	mrseq	r0, (UNDEF: 2)
    1fa4:	00021108 	andeq	r1, r2, r8, lsl #2
    1fa8:	02010400 	andeq	r0, r1, #0, 8
    1fac:	0000b20c 	andeq	fp, r0, ip, lsl #4
    1fb0:	06770500 	ldrbteq	r0, [r7], -r0, lsl #10
    1fb4:	05000000 	streq	r0, [r0, #-0]
    1fb8:	0000075d 	andeq	r0, r0, sp, asr r7
    1fbc:	07960501 	ldreq	r0, [r6, r1, lsl #10]
    1fc0:	05040000 	streq	r0, [r4, #-0]
    1fc4:	000007a5 	andeq	r0, r0, r5, lsr #15
    1fc8:	07b40505 	ldreq	r0, [r4, r5, lsl #10]!
    1fcc:	05060000 	streq	r0, [r6, #-0]
    1fd0:	000007c3 	andeq	r0, r0, r3, asr #15
    1fd4:	07d20507 	ldrbeq	r0, [r2, r7, lsl #10]
    1fd8:	05030000 	streq	r0, [r3, #-0]
    1fdc:	000007e1 	andeq	r0, r0, r1, ror #15
    1fe0:	8a060002 	bhi	181ff0 <__bss_end__+0x177dd8>
    1fe4:	02000007 	andeq	r0, r0, #7
    1fe8:	00007915 	andeq	r7, r0, r5, lsl r9
    1fec:	02630700 	rsbeq	r0, r3, #0, 14
    1ff0:	3f010000 	svccc	0x00010000
    1ff4:	00008c80 	andeq	r8, r0, r0, lsl #25
    1ff8:	000000d4 	ldrdeq	r0, [r0], -r4
    1ffc:	01339c01 	teqeq	r3, r1, lsl #24
    2000:	70080000 	andvc	r0, r8, r0
    2004:	01006e69 	tsteq	r0, r9, ror #28
    2008:	00002c3f 	andeq	r2, r0, pc, lsr ip
    200c:	00104e00 	andseq	r4, r0, r0, lsl #28
    2010:	06a70900 	strteq	r0, [r7], r0, lsl #18
    2014:	47010000 	strmi	r0, [r1, -r0]
    2018:	00000133 	andeq	r0, r0, r3, lsr r1
    201c:	0000106c 	andeq	r1, r0, ip, rrx
    2020:	0007f009 	andeq	pc, r7, r9
    2024:	2c490100 	stfcse	f0, [r9], {-0}
    2028:	c1000000 	mrsgt	r0, (UNDEF: 0)
    202c:	09000010 	stmdbeq	r0, {r4}
    2030:	00000728 	andeq	r0, r0, r8, lsr #14
    2034:	002c5701 	eoreq	r5, ip, r1, lsl #14
    2038:	128d0000 	addne	r0, sp, #0
    203c:	140a0000 	strne	r0, [sl], #-0
    2040:	4100008d 	smlabbmi	r0, sp, r0, r0
    2044:	22000008 	andcs	r0, r0, #8
    2048:	0b000001 	bleq	2054 <_start-0x5fac>
    204c:	75025001 	strvc	r5, [r2, #-1]
    2050:	480c0000 	stmdami	ip, {}	; <UNPREDICTABLE>
    2054:	6200008d 	andvs	r0, r0, #141	; 0x8d
    2058:	0b000008 	bleq	2080 <_start-0x5f80>
    205c:	75025001 	strvc	r5, [r2, #-1]
    2060:	0d000000 	stceq	0, cr0, [r0, #-0]
    2064:	00013904 	andeq	r3, r1, r4, lsl #18
    2068:	002c0e00 	eoreq	r0, ip, r0, lsl #28
    206c:	5f070000 	svcpl	0x00070000
    2070:	01000000 	mrseq	r0, (UNDEF: 0)
    2074:	008d5460 	addeq	r5, sp, r0, ror #8
    2078:	00003800 	andeq	r3, r0, r0, lsl #16
    207c:	969c0100 	ldrls	r0, [ip], r0, lsl #2
    2080:	08000001 	stmdaeq	r0, {r0}
    2084:	006e6970 	rsbeq	r6, lr, r0, ror r9
    2088:	002c6001 	eoreq	r6, ip, r1
    208c:	12bd0000 	adcsne	r0, sp, #0
    2090:	a7090000 	strge	r0, [r9, -r0]
    2094:	01000006 	tsteq	r0, r6
    2098:	00013367 	andeq	r3, r1, r7, ror #6
    209c:	0012de00 	andseq	sp, r2, r0, lsl #28
    20a0:	07280900 	streq	r0, [r8, -r0, lsl #18]!
    20a4:	68010000 	stmdavs	r1, {}	; <UNPREDICTABLE>
    20a8:	0000002c 	andeq	r0, r0, ip, lsr #32
    20ac:	00001314 	andeq	r1, r0, r4, lsl r3
    20b0:	008d840c 	addeq	r8, sp, ip, lsl #8
    20b4:	00086200 	andeq	r6, r8, r0, lsl #4
    20b8:	51010b00 	tstpl	r1, r0, lsl #22
    20bc:	01f33107 	mvnseq	r3, r7, lsl #2
    20c0:	241a4f50 	ldrcs	r4, [sl], #-3920	; 0xf50
    20c4:	b7070000 	strlt	r0, [r7, -r0]
    20c8:	01000000 	mrseq	r0, (UNDEF: 0)
    20cc:	008d8c7b 	addeq	r8, sp, fp, ror ip
    20d0:	00003800 	andeq	r3, r0, r0, lsl #16
    20d4:	ee9c0100 	fmle	f0, f4, f0
    20d8:	08000001 	stmdaeq	r0, {r0}
    20dc:	006e6970 	rsbeq	r6, lr, r0, ror r9
    20e0:	002c7b01 	eoreq	r7, ip, r1, lsl #22
    20e4:	13540000 	cmpne	r4, #0
    20e8:	a7090000 	strge	r0, [r9, -r0]
    20ec:	01000006 	tsteq	r0, r6
    20f0:	00013381 	andeq	r3, r1, r1, lsl #7
    20f4:	00137500 	andseq	r7, r3, r0, lsl #10
    20f8:	07280900 	streq	r0, [r8, -r0, lsl #18]!
    20fc:	82010000 	andhi	r0, r1, #0
    2100:	0000002c 	andeq	r0, r0, ip, lsr #32
    2104:	000013ab 	andeq	r1, r0, fp, lsr #7
    2108:	008dbc0c 	addeq	fp, sp, ip, lsl #24
    210c:	00086200 	andeq	r6, r8, r0, lsl #4
    2110:	51010b00 	tstpl	r1, r0, lsl #22
    2114:	01f33107 	mvnseq	r3, r7, lsl #2
    2118:	241a4f50 	ldrcs	r4, [sl], #-3920	; 0xf50
    211c:	4f070000 	svcmi	0x00070000
    2120:	01000002 	tsteq	r0, r2
    2124:	008dc495 	umulleq	ip, sp, r5, r4
    2128:	0000cc00 	andeq	ip, r0, r0, lsl #24
    212c:	649c0100 	ldrvs	r0, [ip], #256	; 0x100
    2130:	08000002 	stmdaeq	r0, {r1}
    2134:	006e6970 	rsbeq	r6, lr, r0, ror r9
    2138:	002c9501 	eoreq	r9, ip, r1, lsl #10
    213c:	13eb0000 	mvnne	r0, #0
    2140:	a7090000 	strge	r0, [r9, -r0]
    2144:	01000006 	tsteq	r0, r6
    2148:	0001339b 	muleq	r1, fp, r3
    214c:	00140900 	andseq	r0, r4, r0, lsl #18
    2150:	07f00900 	ldrbeq	r0, [r0, r0, lsl #18]!
    2154:	9d010000 	stcls	0, cr0, [r1, #-0]
    2158:	0000002c 	andeq	r0, r0, ip, lsr #32
    215c:	0000145e 	andeq	r1, r0, lr, asr r4
    2160:	00072809 	andeq	r2, r7, r9, lsl #16
    2164:	2cab0100 	stfcss	f0, [fp]
    2168:	2a000000 	bcs	2170 <_start-0x5e90>
    216c:	0a000016 	beq	21cc <_start-0x5e34>
    2170:	00008e58 	andeq	r8, r0, r8, asr lr
    2174:	00000841 	andeq	r0, r0, r1, asr #16
    2178:	00000253 	andeq	r0, r0, r3, asr r2
    217c:	0250010b 	subseq	r0, r0, #-1073741822	; 0xc0000002
    2180:	0c000075 	stceq	0, cr0, [r0], {117}	; 0x75
    2184:	00008e84 	andeq	r8, r0, r4, lsl #29
    2188:	00000862 	andeq	r0, r0, r2, ror #16
    218c:	0250010b 	subseq	r0, r0, #-1073741822	; 0xc0000002
    2190:	00000075 	andeq	r0, r0, r5, ror r0
    2194:	0006bc0f 	andeq	fp, r6, pc, lsl #24
    2198:	64b30100 	ldrtvs	r0, [r3], #256	; 0x100
    219c:	90000000 	andls	r0, r0, r0
    21a0:	4c00008e 	stcmi	0, cr0, [r0], {142}	; 0x8e
    21a4:	01000000 	mrseq	r0, (UNDEF: 0)
    21a8:	0002ac9c 	muleq	r2, ip, ip
    21ac:	69700800 	ldmdbvs	r0!, {fp}^
    21b0:	b301006e 	movwlt	r0, #4206	; 0x106e
    21b4:	0000002c 	andeq	r0, r0, ip, lsr #32
    21b8:	00001648 	andeq	r1, r0, r8, asr #12
    21bc:	01007610 	tsteq	r0, r0, lsl r6
    21c0:	00002cb9 			; <UNDEFINED> instruction: 0x00002cb9
    21c4:	0016a000 	andseq	sl, r6, r0
    21c8:	8eb01100 	frdhis	f1, f0, f0
    21cc:	08410000 	stmdaeq	r1, {}^	; <UNPREDICTABLE>
    21d0:	c0110000 	andsgt	r0, r1, r0
    21d4:	4100008e 	smlabbmi	r0, lr, r0, r0
    21d8:	00000008 	andeq	r0, r0, r8
    21dc:	00002907 	andeq	r2, r0, r7, lsl #18
    21e0:	dcc50100 	stflee	f0, [r5], {0}
    21e4:	2400008e 	strcs	r0, [r0], #-142	; 0x8e
    21e8:	01000000 	mrseq	r0, (UNDEF: 0)
    21ec:	0002fc9c 	muleq	r2, ip, ip
    21f0:	69700800 	ldmdbvs	r0!, {fp}^
    21f4:	c501006e 	strgt	r0, [r1, #-110]	; 0x6e
    21f8:	0000002c 	andeq	r0, r0, ip, lsr #32
    21fc:	000016d6 	ldrdeq	r1, [r0], -r6
    2200:	01007608 	tsteq	r0, r8, lsl #12
    2204:	00002cc5 	andeq	r2, r0, r5, asr #25
    2208:	00171000 	andseq	r1, r7, r0
    220c:	8ef40a00 	vmovhi.f32	s1, #64	; 0x40
    2210:	013e0000 	teqeq	lr, r0
    2214:	02f20000 	rscseq	r0, r2, #0
    2218:	010b0000 	mrseq	r0, (UNDEF: 11)
    221c:	01f30350 	mvnseq	r0, r0, asr r3
    2220:	fc110050 	ldc2	0, cr0, [r1], {80}	; 0x50
    2224:	9600008e 	strls	r0, [r0], -lr, lsl #1
    2228:	00000001 	andeq	r0, r0, r1
    222c:	0006db07 	andeq	sp, r6, r7, lsl #22
    2230:	00d10100 	sbcseq	r0, r1, r0, lsl #2
    2234:	d800008f 	stmdale	r0, {r0, r1, r2, r3, r7}
    2238:	01000000 	mrseq	r0, (UNDEF: 0)
    223c:	0003819c 	muleq	r3, ip, r1
    2240:	69700800 	ldmdbvs	r0!, {fp}^
    2244:	d101006e 	tstle	r1, lr, rrx
    2248:	0000002c 	andeq	r0, r0, ip, lsr #32
    224c:	0000174a 	andeq	r1, r0, sl, asr #14
    2250:	00073012 	andeq	r3, r7, r2, lsl r0
    2254:	b2d10100 	sbcslt	r0, r1, #0, 2
    2258:	68000000 	stmdavs	r0, {}	; <UNPREDICTABLE>
    225c:	09000017 	stmdbeq	r0, {r0, r1, r2, r4}
    2260:	000006a7 	andeq	r0, r0, r7, lsr #13
    2264:	0133d901 	teqeq	r3, r1, lsl #18
    2268:	17890000 	strne	r0, [r9, r0]
    226c:	f0090000 			; <UNDEFINED> instruction: 0xf0090000
    2270:	01000007 	tsteq	r0, r7
    2274:	00002cda 	ldrdeq	r2, [r0], -sl
    2278:	0017de00 	andseq	sp, r7, r0, lsl #28
    227c:	07280900 	streq	r0, [r8, -r0, lsl #18]!
    2280:	e8010000 	stmda	r1, {}	; <UNPREDICTABLE>
    2284:	0000002c 	andeq	r0, r0, ip, lsr #32
    2288:	000019aa 	andeq	r1, r0, sl, lsr #19
    228c:	008f9c0a 	addeq	r9, pc, sl, lsl #24
    2290:	00084100 	andeq	r4, r8, r0, lsl #2
    2294:	00037000 	andeq	r7, r3, r0
    2298:	50010b00 	andpl	r0, r1, r0, lsl #22
    229c:	00007602 	andeq	r7, r0, r2, lsl #12
    22a0:	008fcc0c 	addeq	ip, pc, ip, lsl #24
    22a4:	00086200 	andeq	r6, r8, r0, lsl #4
    22a8:	50010b00 	andpl	r0, r1, r0, lsl #22
    22ac:	00007602 	andeq	r7, r0, r2, lsl #12
    22b0:	07350700 	ldreq	r0, [r5, -r0, lsl #14]!
    22b4:	f1010000 	setend	le
    22b8:	00008fd8 	ldrdeq	r8, [r0], -r8	; <UNPREDICTABLE>
    22bc:	00000038 	andeq	r0, r0, r8, lsr r0
    22c0:	03d99c01 	bicseq	r9, r9, #256	; 0x100
    22c4:	70080000 	andvc	r0, r8, r0
    22c8:	01006e69 	tsteq	r0, r9, ror #28
    22cc:	00002cf1 	strdeq	r2, [r0], -r1
    22d0:	0019db00 	andseq	sp, r9, r0, lsl #22
    22d4:	06a70900 	strteq	r0, [r7], r0, lsl #18
    22d8:	f7010000 			; <UNDEFINED> instruction: 0xf7010000
    22dc:	00000133 	andeq	r0, r0, r3, lsr r1
    22e0:	000019fc 	strdeq	r1, [r0], -ip
    22e4:	00072809 	andeq	r2, r7, r9, lsl #16
    22e8:	2cf80100 	ldfcse	f0, [r8]
    22ec:	32000000 	andcc	r0, r0, #0
    22f0:	0c00001a 	stceq	0, cr0, [r0], {26}
    22f4:	00009008 	andeq	r9, r0, r8
    22f8:	00000862 	andeq	r0, r0, r2, ror #16
    22fc:	0751010b 	ldrbeq	r0, [r1, -fp, lsl #2]
    2300:	5001f331 	andpl	pc, r1, r1, lsr r3	; <UNPREDICTABLE>
    2304:	00241a4f 	eoreq	r1, r4, pc, asr #20
    2308:	066b1300 	strbteq	r1, [fp], -r0, lsl #6
    230c:	1f010000 	svcne	0x00010000
    2310:	00006401 	andeq	r6, r0, r1, lsl #8
    2314:	00901000 	addseq	r1, r0, r0
    2318:	00002c00 	andeq	r2, r0, r0, lsl #24
    231c:	0d9c0100 	ldfeqs	f0, [ip]
    2320:	14000004 	strne	r0, [r0], #-4
    2324:	0000066e 	andeq	r0, r0, lr, ror #12
    2328:	2c011f01 	stccs	15, cr1, [r1], {1}
    232c:	72000000 	andvc	r0, r0, #0
    2330:	1100001a 	tstne	r0, sl, lsl r0
    2334:	00009020 	andeq	r9, r0, r0, lsr #32
    2338:	00000841 	andeq	r0, r0, r1, asr #16
    233c:	06c61500 	strbeq	r1, [r6], r0, lsl #10
    2340:	2e010000 	cdpcs	0, 0, cr0, cr1, cr0, {0}
    2344:	00903c01 	addseq	r3, r0, r1, lsl #24
    2348:	00008400 	andeq	r8, r0, r0, lsl #8
    234c:	d19c0100 	orrsle	r0, ip, r0, lsl #2
    2350:	16000004 	strne	r0, [r0], -r4
    2354:	006e6970 	rsbeq	r6, lr, r0, ror r9
    2358:	2c012e01 	stccs	14, cr2, [r1], {1}
    235c:	93000000 	movwls	r0, #0
    2360:	1700001a 	smladne	r0, sl, r0, r0
    2364:	00000695 	muleq	r0, r5, r6
    2368:	2c014001 	stccs	0, cr4, [r1], {1}
    236c:	bf000000 	svclt	0x00000000
    2370:	1800001a 	stmdane	r0, {r1, r3, r4}
    2374:	00009058 	andeq	r9, r0, r8, asr r0
    2378:	0000001c 	andeq	r0, r0, ip, lsl r0
    237c:	00000473 	andeq	r0, r0, r3, ror r4
    2380:	00072817 	andeq	r2, r7, r7, lsl r8
    2384:	01370100 	teqeq	r7, r0, lsl #2
    2388:	0000002c 	andeq	r0, r0, ip, lsr #32
    238c:	00001add 	ldrdeq	r1, [r0], -sp
    2390:	00906411 	addseq	r6, r0, r1, lsl r4
    2394:	00084100 	andeq	r4, r8, r0, lsl #2
    2398:	90741100 	rsbsls	r1, r4, r0, lsl #2
    239c:	08620000 	stmdaeq	r2!, {}^	; <UNPREDICTABLE>
    23a0:	18000000 	stmdane	r0, {}	; <UNPREDICTABLE>
    23a4:	00009078 	andeq	r9, r0, r8, ror r0
    23a8:	00000020 	andeq	r0, r0, r0, lsr #32
    23ac:	000004a3 	andeq	r0, r0, r3, lsr #9
    23b0:	00072817 	andeq	r2, r7, r7, lsl r8
    23b4:	013b0100 	teqeq	fp, r0, lsl #2
    23b8:	0000002c 	andeq	r0, r0, ip, lsr #32
    23bc:	00001afb 	strdeq	r1, [r0], -fp
    23c0:	00908411 	addseq	r8, r0, r1, lsl r4
    23c4:	00084100 	andeq	r4, r8, r0, lsl #2
    23c8:	90981100 	addsls	r1, r8, r0, lsl #2
    23cc:	08620000 	stmdaeq	r2!, {}^	; <UNPREDICTABLE>
    23d0:	11000000 	mrsne	r0, (UNDEF: 0)
    23d4:	00009050 	andeq	r9, r0, r0, asr r0
    23d8:	0000087e 	andeq	r0, r0, lr, ror r8
    23dc:	00909c11 	addseq	r9, r0, r1, lsl ip
    23e0:	00087e00 	andeq	r7, r8, r0, lsl #28
    23e4:	90a81100 	adcls	r1, r8, r0, lsl #2
    23e8:	08410000 	stmdaeq	r1, {}^	; <UNPREDICTABLE>
    23ec:	b4110000 	ldrlt	r0, [r1], #-0
    23f0:	62000090 	andvs	r0, r0, #144	; 0x90
    23f4:	11000008 	tstne	r0, r8
    23f8:	000090b8 	strheq	r9, [r0], -r8
    23fc:	0000087e 	andeq	r0, r0, lr, ror r8
    2400:	07741500 	ldrbeq	r1, [r4, -r0, lsl #10]!
    2404:	4b010000 	blmi	4240c <__bss_end__+0x381f4>
    2408:	0090c001 	addseq	ip, r0, r1
    240c:	00008400 	andeq	r8, r0, r0, lsl #8
    2410:	959c0100 	ldrls	r0, [ip, #256]	; 0x100
    2414:	16000005 	strne	r0, [r0], -r5
    2418:	006e6970 	rsbeq	r6, lr, r0, ror r9
    241c:	2c014b01 	stccs	11, cr4, [r1], {1}
    2420:	19000000 	stmdbne	r0, {}	; <UNPREDICTABLE>
    2424:	1700001b 	smladne	r0, fp, r0, r0
    2428:	00000695 	muleq	r0, r5, r6
    242c:	2c015c01 	stccs	12, cr5, [r1], {1}
    2430:	45000000 	strmi	r0, [r0, #-0]
    2434:	1800001b 	stmdane	r0, {r0, r1, r3, r4}
    2438:	000090dc 	ldrdeq	r9, [r0], -ip
    243c:	0000001c 	andeq	r0, r0, ip, lsl r0
    2440:	00000537 	andeq	r0, r0, r7, lsr r5
    2444:	00072817 	andeq	r2, r7, r7, lsl r8
    2448:	01530100 	cmpeq	r3, r0, lsl #2
    244c:	0000002c 	andeq	r0, r0, ip, lsr #32
    2450:	00001b63 	andeq	r1, r0, r3, ror #22
    2454:	0090e811 	addseq	lr, r0, r1, lsl r8
    2458:	00084100 	andeq	r4, r8, r0, lsl #2
    245c:	90f81100 	rscsls	r1, r8, r0, lsl #2
    2460:	08620000 	stmdaeq	r2!, {}^	; <UNPREDICTABLE>
    2464:	18000000 	stmdane	r0, {}	; <UNPREDICTABLE>
    2468:	000090fc 	strdeq	r9, [r0], -ip
    246c:	00000020 	andeq	r0, r0, r0, lsr #32
    2470:	00000567 	andeq	r0, r0, r7, ror #10
    2474:	00072817 	andeq	r2, r7, r7, lsl r8
    2478:	01570100 	cmpeq	r7, r0, lsl #2
    247c:	0000002c 	andeq	r0, r0, ip, lsr #32
    2480:	00001b81 	andeq	r1, r0, r1, lsl #23
    2484:	00910811 	addseq	r0, r1, r1, lsl r8
    2488:	00084100 	andeq	r4, r8, r0, lsl #2
    248c:	911c1100 	tstls	ip, r0, lsl #2
    2490:	08620000 	stmdaeq	r2!, {}^	; <UNPREDICTABLE>
    2494:	11000000 	mrsne	r0, (UNDEF: 0)
    2498:	000090d4 	ldrdeq	r9, [r0], -r4
    249c:	0000087e 	andeq	r0, r0, lr, ror r8
    24a0:	00912011 	addseq	r2, r1, r1, lsl r0
    24a4:	00087e00 	andeq	r7, r8, r0, lsl #28
    24a8:	912c1100 	teqls	ip, r0, lsl #2
    24ac:	08410000 	stmdaeq	r1, {}^	; <UNPREDICTABLE>
    24b0:	38110000 	ldmdacc	r1, {}	; <UNPREDICTABLE>
    24b4:	62000091 	andvs	r0, r0, #145	; 0x91
    24b8:	11000008 	tstne	r0, r8
    24bc:	0000913c 	andeq	r9, r0, ip, lsr r1
    24c0:	0000087e 	andeq	r0, r0, lr, ror r8
    24c4:	06431300 	strbeq	r1, [r3], -r0, lsl #6
    24c8:	66010000 	strvs	r0, [r1], -r0
    24cc:	00006401 	andeq	r6, r0, r1, lsl #8
    24d0:	00914400 	addseq	r4, r1, r0, lsl #8
    24d4:	00008400 	andeq	r8, r0, r0, lsl #8
    24d8:	3b9c0100 	blcc	fe7028e0 <__bss_end__+0xfe6f86c8>
    24dc:	16000006 	strne	r0, [r0], -r6
    24e0:	006e6970 	rsbeq	r6, lr, r0, ror r9
    24e4:	2c016601 	stccs	6, cr6, [r1], {1}
    24e8:	9f000000 	svcls	0x00000000
    24ec:	1800001b 	stmdane	r0, {r0, r1, r3, r4}
    24f0:	00009160 	andeq	r9, r0, r0, ror #2
    24f4:	00000024 	andeq	r0, r0, r4, lsr #32
    24f8:	000005ef 	andeq	r0, r0, pc, ror #11
    24fc:	00069e17 	andeq	r9, r6, r7, lsl lr
    2500:	016d0100 	cmneq	sp, r0, lsl #2
    2504:	0000002c 	andeq	r0, r0, ip, lsr #32
    2508:	00001be1 	andeq	r1, r0, r1, ror #23
    250c:	00916c11 	addseq	r6, r1, r1, lsl ip
    2510:	00084100 	andeq	r4, r8, r0, lsl #2
    2514:	917c1100 	cmnls	ip, r0, lsl #2
    2518:	087e0000 	ldmdaeq	lr!, {}^	; <UNPREDICTABLE>
    251c:	18000000 	stmdane	r0, {}	; <UNPREDICTABLE>
    2520:	00009184 	andeq	r9, r0, r4, lsl #3
    2524:	0000002c 	andeq	r0, r0, ip, lsr #32
    2528:	00000628 	andeq	r0, r0, r8, lsr #12
    252c:	00069e17 	andeq	r9, r6, r7, lsl lr
    2530:	01700100 	cmneq	r0, r0, lsl #2
    2534:	0000002c 	andeq	r0, r0, ip, lsr #32
    2538:	00001bfb 	strdeq	r1, [r0], -fp
    253c:	00919011 	addseq	r9, r1, r1, lsl r0
    2540:	00084100 	andeq	r4, r8, r0, lsl #2
    2544:	919c1100 	orrsls	r1, ip, r0, lsl #2
    2548:	087e0000 	ldmdaeq	lr!, {}^	; <UNPREDICTABLE>
    254c:	a8110000 	ldmdage	r1, {}	; <UNPREDICTABLE>
    2550:	7e000091 	mcrvc	0, 0, r0, cr0, cr1, {4}
    2554:	00000008 	andeq	r0, r0, r8
    2558:	00915811 	addseq	r5, r1, r1, lsl r8
    255c:	00087e00 	andeq	r7, r8, r0, lsl #28
    2560:	91b41100 			; <UNDEFINED> instruction: 0x91b41100
    2564:	087e0000 	ldmdaeq	lr!, {}^	; <UNPREDICTABLE>
    2568:	15000000 	strne	r0, [r0, #-0]
    256c:	000006fb 	strdeq	r0, [r0], -fp
    2570:	c8017901 	stmdagt	r1, {r0, r8, fp, ip, sp, lr}
    2574:	58000091 	stmdapl	r0, {r0, r4, r7}
    2578:	01000000 	mrseq	r0, (UNDEF: 0)
    257c:	0006a09c 	muleq	r6, ip, r0
    2580:	69701600 	ldmdbvs	r0!, {r9, sl, ip}^
    2584:	7901006e 	stmdbvc	r1, {r1, r2, r3, r5, r6}
    2588:	00002c01 	andeq	r2, r0, r1, lsl #24
    258c:	001c0e00 	andseq	r0, ip, r0, lsl #28
    2590:	91dc1100 	bicsls	r1, ip, r0, lsl #2
    2594:	087e0000 	ldmdaeq	lr!, {}^	; <UNPREDICTABLE>
    2598:	f80a0000 			; <UNDEFINED> instruction: 0xf80a0000
    259c:	62000091 	andvs	r0, r0, #145	; 0x91
    25a0:	80000008 	andhi	r0, r0, r8
    25a4:	0b000006 	bleq	25c4 <_start-0x5a3c>
    25a8:	31045101 	tstcc	r4, r1, lsl #2
    25ac:	00240074 	eoreq	r0, r4, r4, ror r0
    25b0:	0092140a 	addseq	r1, r2, sl, lsl #8
    25b4:	00086200 	andeq	r6, r8, r0, lsl #4
    25b8:	00069600 	andeq	r9, r6, r0, lsl #12
    25bc:	51010b00 	tstpl	r1, r0, lsl #22
    25c0:	00743104 	rsbseq	r3, r4, r4, lsl #2
    25c4:	18110024 	ldmdane	r1, {r2, r5}
    25c8:	7e000092 	mcrvc	0, 0, r0, cr0, cr2, {4}
    25cc:	00000008 	andeq	r0, r0, r8
    25d0:	00017f19 	andeq	r7, r1, r9, lsl pc
    25d4:	33280100 	teqcc	r8, #0, 2
    25d8:	05000001 	streq	r0, [r0, #-1]
    25dc:	009b1403 	addseq	r1, fp, r3, lsl #8
    25e0:	023f1900 	eorseq	r1, pc, #0, 18
    25e4:	29010000 	stmdbcs	r1, {}	; <UNPREDICTABLE>
    25e8:	00000133 	andeq	r0, r0, r3, lsr r1
    25ec:	9b100305 	blls	403208 <__bss_end__+0x3f8ff0>
    25f0:	88190000 	ldmdahi	r9, {}	; <UNPREDICTABLE>
    25f4:	01000002 	tsteq	r0, r2
    25f8:	0001332a 	andeq	r3, r1, sl, lsr #6
    25fc:	0c030500 	cfstr32eq	mvfx0, [r3], {-0}
    2600:	1900009b 	stmdbne	r0, {r0, r1, r3, r4, r7}
    2604:	00000136 	andeq	r0, r0, r6, lsr r1
    2608:	01332c01 	teqeq	r3, r1, lsl #24
    260c:	03050000 	movweq	r0, #20480	; 0x5000
    2610:	00009ab8 			; <UNDEFINED> instruction: 0x00009ab8
    2614:	00013e19 	andeq	r3, r1, r9, lsl lr
    2618:	332d0100 	teqcc	sp, #0, 2
    261c:	05000001 	streq	r0, [r0, #-1]
    2620:	009abc03 	addseq	fp, sl, r3, lsl #24
    2624:	00001900 	andeq	r1, r0, r0, lsl #18
    2628:	2e010000 	cdpcs	0, 0, cr0, cr1, cr0, {0}
    262c:	00000133 	andeq	r0, r0, r3, lsr r1
    2630:	9ac00305 	bls	ff00324c <__bss_end__+0xfeff9034>
    2634:	46190000 	ldrmi	r0, [r9], -r0
    2638:	01000001 	tsteq	r0, r1
    263c:	0001332f 	andeq	r3, r1, pc, lsr #6
    2640:	c4030500 	strgt	r0, [r3], #-1280	; 0x500
    2644:	1900009a 	stmdbne	r0, {r1, r3, r4, r7}
    2648:	00000008 	andeq	r0, r0, r8
    264c:	01333001 	teqeq	r3, r1
    2650:	03050000 	movweq	r0, #20480	; 0x5000
    2654:	00009ac8 	andeq	r9, r0, r8, asr #21
    2658:	00015719 	andeq	r5, r1, r9, lsl r7
    265c:	33310100 	teqcc	r1, #0, 2
    2660:	05000001 	streq	r0, [r0, #-1]
    2664:	009acc03 	addseq	ip, sl, r3, lsl #24
    2668:	00851900 	addeq	r1, r5, r0, lsl #18
    266c:	33010000 	movwcc	r0, #4096	; 0x1000
    2670:	00000133 	andeq	r0, r0, r3, lsr r1
    2674:	9ad00305 	bls	ff403290 <__bss_end__+0xff3f9078>
    2678:	8c190000 	ldchi	0, cr0, [r9], {-0}
    267c:	01000000 	mrseq	r0, (UNDEF: 0)
    2680:	00013334 	andeq	r3, r1, r4, lsr r3
    2684:	d4030500 	strle	r0, [r3], #-1280	; 0x500
    2688:	1900009a 	stmdbne	r0, {r1, r3, r4, r7}
    268c:	00000220 	andeq	r0, r0, r0, lsr #4
    2690:	01333601 	teqeq	r3, r1, lsl #12
    2694:	03050000 	movweq	r0, #20480	; 0x5000
    2698:	00009ad8 	ldrdeq	r9, [r0], -r8
    269c:	00018a19 	andeq	r8, r1, r9, lsl sl
    26a0:	33370100 	teqcc	r7, #0, 2
    26a4:	05000001 	streq	r0, [r0, #-1]
    26a8:	009adc03 	addseq	sp, sl, r3, lsl #24
    26ac:	00931900 	addseq	r1, r3, r0, lsl #18
    26b0:	39010000 	stmdbcc	r1, {}	; <UNPREDICTABLE>
    26b4:	00000133 	andeq	r0, r0, r3, lsr r1
    26b8:	9ae00305 	bls	ff8032d4 <__bss_end__+0xff7f90bc>
    26bc:	9a190000 	bls	6426c4 <__bss_end__+0x6384ac>
    26c0:	01000000 	mrseq	r0, (UNDEF: 0)
    26c4:	0001333a 	andeq	r3, r1, sl, lsr r3
    26c8:	e4030500 	str	r0, [r3], #-1280	; 0x500
    26cc:	1a00009a 	bne	293c <_start-0x56c4>
    26d0:	0000070c 	andeq	r0, r0, ip, lsl #14
    26d4:	33010a01 	movwcc	r0, #6657	; 0x1a01
    26d8:	05000001 	streq	r0, [r0, #-1]
    26dc:	009b0803 	addseq	r0, fp, r3, lsl #16
    26e0:	071a1a00 	ldreq	r1, [sl, -r0, lsl #20]
    26e4:	0b010000 	bleq	426ec <__bss_end__+0x384d4>
    26e8:	00013301 	andeq	r3, r1, r1, lsl #6
    26ec:	e8030500 	stmda	r3, {r8, sl}
    26f0:	1a00009a 	bne	2960 <_start-0x56a0>
    26f4:	00000741 	andeq	r0, r0, r1, asr #14
    26f8:	33010d01 	movwcc	r0, #7425	; 0x1d01
    26fc:	05000001 	streq	r0, [r0, #-1]
    2700:	009b0003 	addseq	r0, fp, r3
    2704:	07481a00 	strbeq	r1, [r8, -r0, lsl #20]
    2708:	0e010000 	cdpeq	0, 0, cr0, cr1, cr0, {0}
    270c:	00013301 	andeq	r3, r1, r1, lsl #6
    2710:	04030500 	streq	r0, [r3], #-1280	; 0x500
    2714:	1a00009b 	bne	2988 <_start-0x5678>
    2718:	000006ed 	andeq	r0, r0, sp, ror #13
    271c:	33011001 	movwcc	r1, #4097	; 0x1001
    2720:	05000001 	streq	r0, [r0, #-1]
    2724:	009aec03 	addseq	lr, sl, r3, lsl #24
    2728:	06f41a00 	ldrbteq	r1, [r4], r0, lsl #20
    272c:	11010000 	mrsne	r0, (UNDEF: 1)
    2730:	00013301 	andeq	r3, r1, r1, lsl #6
    2734:	f0030500 			; <UNDEFINED> instruction: 0xf0030500
    2738:	1a00009a 	bne	29a8 <_start-0x5658>
    273c:	0000074f 	andeq	r0, r0, pc, asr #14
    2740:	33011301 	movwcc	r1, #4865	; 0x1301
    2744:	05000001 	streq	r0, [r0, #-1]
    2748:	009af803 	addseq	pc, sl, r3, lsl #16
    274c:	07561a00 	ldrbeq	r1, [r6, -r0, lsl #20]
    2750:	14010000 	strne	r0, [r1], #-0
    2754:	00013301 	andeq	r3, r1, r1, lsl #6
    2758:	fc030500 	stc2	5, cr0, [r3], {-0}
    275c:	1a00009a 	bne	29cc <_start-0x5634>
    2760:	0000065d 	andeq	r0, r0, sp, asr r6
    2764:	33011601 	movwcc	r1, #5633	; 0x1601
    2768:	05000001 	streq	r0, [r0, #-1]
    276c:	009af403 	addseq	pc, sl, r3, lsl #8
    2770:	076e1b00 	strbeq	r1, [lr, -r0, lsl #22]!
    2774:	20010000 	andcs	r0, r1, r0
    2778:	0000002c 	andeq	r0, r0, ip, lsr #32
    277c:	00000856 	andeq	r0, r0, r6, asr r8
    2780:	0008561c 	andeq	r5, r8, ip, lsl r6
    2784:	040d0000 	streq	r0, [sp], #-0
    2788:	0000085c 	andeq	r0, r0, ip, asr r8
    278c:	0008611d 	andeq	r6, r8, sp, lsl r1
    2790:	571f1e00 	ldrpl	r1, [pc, -r0, lsl #28]
    2794:	01000006 	tsteq	r0, r6
    2798:	0008781e 	andeq	r7, r8, lr, lsl r8
    279c:	08781c00 	ldmdaeq	r8!, {sl, fp, ip}^
    27a0:	2c1c0000 	ldccs	0, cr0, [ip], {-0}
    27a4:	00000000 	andeq	r0, r0, r0
    27a8:	0861040d 	stmdaeq	r1!, {r0, r2, r3, sl}^
    27ac:	b0200000 	eorlt	r0, r0, r0
    27b0:	03000006 	movweq	r0, #6
    27b4:	11f2008a 	mvnsne	r0, sl, lsl #1
    27b8:	00040000 	andeq	r0, r4, r0
    27bc:	00000d2f 	andeq	r0, r0, pc, lsr #26
    27c0:	02b70104 	adcseq	r0, r7, #4, 2
    27c4:	90010000 	andls	r0, r1, r0
    27c8:	22000008 	andcs	r0, r0, #8
    27cc:	20000003 	andcs	r0, r0, r3
    27d0:	68000092 	stmdavs	r0, {r1, r4, r7}
    27d4:	83000006 	movwhi	r0, #6
    27d8:	0200000b 	andeq	r0, r0, #11
    27dc:	6e690504 	cdpvs	5, 6, cr0, cr9, cr4, {0}
    27e0:	04030074 	streq	r0, [r3], #-116	; 0x74
    27e4:	00004d07 	andeq	r4, r0, r7, lsl #26
    27e8:	06010300 	streq	r0, [r1], -r0, lsl #6
    27ec:	0000020a 	andeq	r0, r0, sl, lsl #4
    27f0:	16050203 	strne	r0, [r5], -r3, lsl #4
    27f4:	03000002 	movweq	r0, #2
    27f8:	00750504 	rsbseq	r0, r5, r4, lsl #10
    27fc:	08030000 	stmdaeq	r3, {}	; <UNPREDICTABLE>
    2800:	00007005 	andeq	r7, r0, r5
    2804:	02800400 	addeq	r0, r0, #0, 8
    2808:	2e030000 	cdpcs	0, 0, cr0, cr3, cr0, {0}
    280c:	0000005a 	andeq	r0, r0, sl, asr r0
    2810:	08080103 	stmdaeq	r8, {r0, r1, r8}
    2814:	03000002 	movweq	r0, #2
    2818:	016c0702 	cmneq	ip, r2, lsl #14
    281c:	62040000 	andvs	r0, r4, #0
    2820:	03000005 	movweq	r0, #5
    2824:	00007334 	andeq	r7, r0, r4, lsr r3
    2828:	07040300 	streq	r0, [r4, -r0, lsl #6]
    282c:	00000048 	andeq	r0, r0, r8, asr #32
    2830:	43070803 	movwmi	r0, #30723	; 0x7803
    2834:	03000000 	movweq	r0, #0
    2838:	01a40704 			; <UNDEFINED> instruction: 0x01a40704
    283c:	04050000 	streq	r0, [r5], #-0
    2840:	00900406 	addseq	r0, r0, r6, lsl #8
    2844:	01030000 	mrseq	r0, (UNDEF: 3)
    2848:	00021108 	andeq	r1, r2, r8, lsl #2
    284c:	9d040600 	stcls	6, cr0, [r4, #-0]
    2850:	07000000 	streq	r0, [r0, -r0]
    2854:	00000090 	muleq	r0, r0, r0
    2858:	0e040c08 	cdpeq	12, 0, cr0, cr4, cr8, {0}
    285c:	000000d9 	ldrdeq	r0, [r0], -r9
    2860:	00787409 	rsbseq	r7, r8, r9, lsl #8
    2864:	004f0f04 	subeq	r0, pc, r4, lsl #30
    2868:	09000000 	stmdbeq	r0, {}	; <UNPREDICTABLE>
    286c:	04007872 	streq	r7, [r0], #-2162	; 0x872
    2870:	00004f0f 	andeq	r4, r0, pc, lsl #30
    2874:	e10a0100 	mrs	r0, (UNDEF: 26)
    2878:	04000004 	streq	r0, [r0], #-4
    287c:	00006810 	andeq	r6, r0, r0, lsl r8
    2880:	920a0400 	andls	r0, sl, #0, 8
    2884:	04000004 	streq	r0, [r0], #-4
    2888:	00006811 	andeq	r6, r0, r1, lsl r8
    288c:	04000800 	streq	r0, [r0], #-2048	; 0x800
    2890:	000004ca 	andeq	r0, r0, sl, asr #9
    2894:	00a21204 	adceq	r1, r2, r4, lsl #4
    2898:	9a040000 	bls	1028a0 <__bss_end__+0xf8688>
    289c:	05000002 	streq	r0, [r0, #-2]
    28a0:	0000ef28 	andeq	lr, r0, r8, lsr #30
    28a4:	03180b00 	tsteq	r8, #0, 22
    28a8:	09040000 	stmdbeq	r4, {}	; <UNPREDICTABLE>
    28ac:	00010600 	andeq	r0, r1, r0, lsl #12
    28b0:	036b0c00 	cmneq	fp, #0, 24
    28b4:	00880000 	addeq	r0, r8, r0
    28b8:	00000000 	andeq	r0, r0, r0
    28bc:	00031a04 	andeq	r1, r3, r4, lsl #20
    28c0:	e4620500 	strbt	r0, [r2], #-1280	; 0x500
    28c4:	0d000000 	stceq	0, cr0, [r0, #-0]
    28c8:	00000854 	andeq	r0, r0, r4, asr r8
    28cc:	3f030902 	svccc	0x00030902
    28d0:	0e000001 	cdpeq	0, 0, cr0, cr0, cr1, {0}
    28d4:	000004f5 	strdeq	r0, [r0], -r5
    28d8:	002c0902 	eoreq	r0, ip, r2, lsl #18
    28dc:	6e0f0000 	cdpvs	0, 0, cr0, cr15, cr0, {0}
    28e0:	2c090200 	sfmcs	f0, 4, [r9], {-0}
    28e4:	10000000 	andne	r0, r0, r0
    28e8:	00020311 	andeq	r0, r2, r1, lsl r3
    28ec:	2c0c0200 	sfmcs	f0, 4, [ip], {-0}
    28f0:	00000000 	andeq	r0, r0, r0
    28f4:	08070d00 	stmdaeq	r7, {r8, sl, fp}
    28f8:	17020000 	strne	r0, [r2, -r0]
    28fc:	00017603 	andeq	r7, r1, r3, lsl #12
    2900:	69700f00 	ldmdbvs	r0!, {r8, r9, sl, fp}^
    2904:	1702006e 	strne	r0, [r2, -lr, rrx]
    2908:	0000002c 	andeq	r0, r0, ip, lsr #32
    290c:	0200760f 	andeq	r7, r0, #15728640	; 0xf00000
    2910:	00002c17 	andeq	r2, r0, r7, lsl ip
    2914:	04f50e00 	ldrbteq	r0, [r5], #3584	; 0xe00
    2918:	17020000 	strne	r0, [r2, -r0]
    291c:	0000002c 	andeq	r0, r0, ip, lsr #32
    2920:	00085a0e 	andeq	r5, r8, lr, lsl #20
    2924:	2c170200 	lfmcs	f0, 4, [r7], {-0}
    2928:	00000000 	andeq	r0, r0, r0
    292c:	00050612 	andeq	r0, r5, r2, lsl r6
    2930:	20090100 	andcs	r0, r9, r0, lsl #2
    2934:	54000092 	strpl	r0, [r0], #-146	; 0x92
    2938:	01000001 	tsteq	r0, r1
    293c:	0007229c 	muleq	r7, ip, r2
    2940:	04a81300 	strteq	r1, [r8], #768	; 0x300
    2944:	09010000 	stmdbeq	r1, {}	; <UNPREDICTABLE>
    2948:	00000722 	andeq	r0, r0, r2, lsr #14
    294c:	00001c3a 	andeq	r1, r0, sl, lsr ip
    2950:	01006314 	tsteq	r0, r4, lsl r3
    2954:	00005a09 	andeq	r5, r0, r9, lsl #20
    2958:	001c5b00 	andseq	r5, ip, r0, lsl #22
    295c:	78741500 	ldmdavc	r4!, {r8, sl, ip}^
    2960:	250b0100 	strcs	r0, [fp, #-256]	; 0x100
    2964:	06000000 	streq	r0, [r0], -r0
    2968:	ff080076 			; <UNDEFINED> instruction: 0xff080076
    296c:	6e169f1a 	mrcvs	15, 0, r9, cr6, cr10, {0}
    2970:	680c0100 	stmdavs	ip, {r8}
    2974:	7c000000 	stcvc	0, cr0, [r0], {-0}
    2978:	1600001c 			; <UNDEFINED> instruction: 0x1600001c
    297c:	0d010075 	stceq	0, cr0, [r1, #-468]	; 0xfffffe2c
    2980:	00000068 	andeq	r0, r0, r8, rrx
    2984:	00001c8f 	andeq	r1, r0, pc, lsl #25
    2988:	01007315 	tsteq	r0, r5, lsl r3
    298c:	0000680e 	andeq	r6, r0, lr, lsl #16
    2990:	17540100 	ldrbne	r0, [r4, -r0, lsl #2]
    2994:	00009230 	andeq	r9, r0, r0, lsr r2
    2998:	00000004 	andeq	r0, r0, r4
    299c:	000001f8 	strdeq	r0, [r0], -r8
    29a0:	00020318 	andeq	r0, r2, r8, lsl r3
    29a4:	2c0e0100 	stfcss	f0, [lr], {-0}
    29a8:	01000000 	mrseq	r0, (UNDEF: 0)
    29ac:	3f190054 	svccc	0x00190054
    29b0:	34000001 	strcc	r0, [r0], #-1
    29b4:	1c000092 	stcne	0, cr0, [r0], {146}	; 0x92
    29b8:	01000000 	mrseq	r0, (UNDEF: 0)
    29bc:	00027511 	andeq	r7, r2, r1, lsl r5
    29c0:	016a1a00 	cmneq	sl, r0, lsl #20
    29c4:	1cb80000 	ldcne	0, cr0, [r8]
    29c8:	5f1b0000 	svcpl	0x001b0000
    29cc:	01000001 	tsteq	r0, r1
    29d0:	01561c54 	cmpeq	r6, r4, asr ip
    29d4:	1b000000 	blne	29dc <_start-0x5624>
    29d8:	0000014b 	andeq	r0, r0, fp, asr #2
    29dc:	11195601 	tstne	r9, r1, lsl #12
    29e0:	40000001 	andmi	r0, r0, r1
    29e4:	10000092 	mulne	r0, r2, r0
    29e8:	02000000 	andeq	r0, r0, #0
    29ec:	00025f1a 	andeq	r5, r2, sl, lsl pc
    29f0:	01281a00 	teqeq	r8, r0, lsl #20
    29f4:	1ccb0000 	stclne	0, cr0, [fp], {0}
    29f8:	1d1b0000 	ldcne	0, cr0, [fp, #-0]
    29fc:	01000001 	tsteq	r0, r1
    2a00:	92401d54 	subls	r1, r0, #84, 26	; 0x1500
    2a04:	00040000 	andeq	r0, r4, r0
    2a08:	321e0000 	andscc	r0, lr, #0
    2a0c:	de000001 	cdple	0, 0, cr0, cr0, cr1, {0}
    2a10:	0000001c 	andeq	r0, r0, ip, lsl r0
    2a14:	92401f00 	subls	r1, r0, #0, 30
    2a18:	11590000 	cmpne	r9, r0
    2a1c:	01200000 	teqeq	r0, r0
    2a20:	20300151 	eorscs	r0, r0, r1, asr r1
    2a24:	76025001 	strvc	r5, [r2], -r1
    2a28:	19000000 	stmdbne	r0, {}	; <UNPREDICTABLE>
    2a2c:	0000013f 	andeq	r0, r0, pc, lsr r1
    2a30:	00009254 	andeq	r9, r0, r4, asr r2
    2a34:	0000001c 	andeq	r0, r0, ip, lsl r0
    2a38:	02f81301 	rscseq	r1, r8, #67108864	; 0x4000000
    2a3c:	6a1a0000 	bvs	682a44 <__bss_end__+0x67882c>
    2a40:	f1000001 	cps	#1
    2a44:	1b00001c 	blne	2abc <_start-0x5544>
    2a48:	0000015f 	andeq	r0, r0, pc, asr r1
    2a4c:	561a5401 	ldrpl	r5, [sl], -r1, lsl #8
    2a50:	13000001 	movwne	r0, #1
    2a54:	1b00001d 	blne	2ad0 <_start-0x5530>
    2a58:	0000014b 	andeq	r0, r0, fp, asr #2
    2a5c:	11195601 	tstne	r9, r1, lsl #12
    2a60:	60000001 	andvs	r0, r0, r1
    2a64:	10000092 	mulne	r0, r2, r0
    2a68:	02000000 	andeq	r0, r0, #0
    2a6c:	0002df1a 	andeq	sp, r2, sl, lsl pc
    2a70:	01281a00 	teqeq	r8, r0, lsl #20
    2a74:	1d440000 	stclne	0, cr0, [r4, #-0]
    2a78:	1d1b0000 	ldcne	0, cr0, [fp, #-0]
    2a7c:	01000001 	tsteq	r0, r1
    2a80:	92601d54 	rsbls	r1, r0, #84, 26	; 0x1500
    2a84:	00040000 	andeq	r0, r4, r0
    2a88:	321e0000 	andscc	r0, lr, #0
    2a8c:	66000001 	strvs	r0, [r0], -r1
    2a90:	0000001d 	andeq	r0, r0, sp, lsl r0
    2a94:	92601f00 	rsbls	r1, r0, #0, 30
    2a98:	11590000 	cmpne	r9, r0
    2a9c:	01200000 	teqeq	r0, r0
    2aa0:	00770451 	rsbseq	r0, r7, r1, asr r4
    2aa4:	01201a31 	teqeq	r0, r1, lsr sl
    2aa8:	00760250 	rsbseq	r0, r6, r0, asr r2
    2aac:	3f190000 	svccc	0x00190000
    2ab0:	74000001 	strvc	r0, [r0], #-1
    2ab4:	1c000092 	stcne	0, cr0, [r0], {146}	; 0x92
    2ab8:	01000000 	mrseq	r0, (UNDEF: 0)
    2abc:	00038015 	andeq	r8, r3, r5, lsl r0
    2ac0:	016a1a00 	cmneq	sl, r0, lsl #20
    2ac4:	1d790000 	ldclne	0, cr0, [r9, #-0]
    2ac8:	5f1b0000 	svcpl	0x001b0000
    2acc:	01000001 	tsteq	r0, r1
    2ad0:	01561b54 	cmpeq	r6, r4, asr fp
    2ad4:	77080000 	strvc	r0, [r8, -r0]
    2ad8:	081a3200 	ldmdaeq	sl, {r9, ip, sp}
    2adc:	1b9f1aff 	blne	fe7c96e0 <__bss_end__+0xfe7bf4c8>
    2ae0:	0000014b 	andeq	r0, r0, fp, asr #2
    2ae4:	11195601 	tstne	r9, r1, lsl #12
    2ae8:	80000001 	andhi	r0, r0, r1
    2aec:	10000092 	mulne	r0, r2, r0
    2af0:	02000000 	andeq	r0, r0, #0
    2af4:	0003671a 	andeq	r6, r3, sl, lsl r7
    2af8:	01281a00 	teqeq	r8, r0, lsl #20
    2afc:	1d9e0000 	ldcne	0, cr0, [lr]
    2b00:	1d1b0000 	ldcne	0, cr0, [fp, #-0]
    2b04:	01000001 	tsteq	r0, r1
    2b08:	92801d54 	addls	r1, r0, #84, 26	; 0x1500
    2b0c:	00040000 	andeq	r0, r4, r0
    2b10:	321e0000 	andscc	r0, lr, #0
    2b14:	c3000001 	movwgt	r0, #1
    2b18:	0000001d 	andeq	r0, r0, sp, lsl r0
    2b1c:	92801f00 	addls	r1, r0, #0, 30
    2b20:	11590000 	cmpne	r9, r0
    2b24:	01200000 	teqeq	r0, r0
    2b28:	00770451 	rsbseq	r0, r7, r1, asr r4
    2b2c:	01201a32 	teqeq	r0, r2, lsr sl
    2b30:	00760250 	rsbseq	r0, r6, r0, asr r2
    2b34:	3f190000 	svccc	0x00190000
    2b38:	94000001 	strls	r0, [r0], #-1
    2b3c:	1c000092 	stcne	0, cr0, [r0], {146}	; 0x92
    2b40:	01000000 	mrseq	r0, (UNDEF: 0)
    2b44:	00040817 	andeq	r0, r4, r7, lsl r8
    2b48:	016a1a00 	cmneq	sl, r0, lsl #20
    2b4c:	1dd60000 	ldclne	0, cr0, [r6]
    2b50:	5f1b0000 	svcpl	0x001b0000
    2b54:	01000001 	tsteq	r0, r1
    2b58:	01561b54 	cmpeq	r6, r4, asr fp
    2b5c:	77080000 	strvc	r0, [r8, -r0]
    2b60:	081a3400 	ldmdaeq	sl, {sl, ip, sp}
    2b64:	1b9f1aff 	blne	fe7c9768 <__bss_end__+0xfe7bf550>
    2b68:	0000014b 	andeq	r0, r0, fp, asr #2
    2b6c:	11195601 	tstne	r9, r1, lsl #12
    2b70:	a0000001 	andge	r0, r0, r1
    2b74:	10000092 	mulne	r0, r2, r0
    2b78:	02000000 	andeq	r0, r0, #0
    2b7c:	0003ef1a 	andeq	lr, r3, sl, lsl pc
    2b80:	01281a00 	teqeq	r8, r0, lsl #20
    2b84:	1df80000 	ldclne	0, cr0, [r8]
    2b88:	1d1b0000 	ldcne	0, cr0, [fp, #-0]
    2b8c:	01000001 	tsteq	r0, r1
    2b90:	92a01d54 	adcls	r1, r0, #84, 26	; 0x1500
    2b94:	00040000 	andeq	r0, r4, r0
    2b98:	321e0000 	andscc	r0, lr, #0
    2b9c:	1a000001 	bne	2ba8 <_start-0x5458>
    2ba0:	0000001e 	andeq	r0, r0, lr, lsl r0
    2ba4:	92a01f00 	adcls	r1, r0, #0, 30
    2ba8:	11590000 	cmpne	r9, r0
    2bac:	01200000 	teqeq	r0, r0
    2bb0:	00770451 	rsbseq	r0, r7, r1, asr r4
    2bb4:	01201a34 	teqeq	r0, r4, lsr sl
    2bb8:	00760250 	rsbseq	r0, r6, r0, asr r2
    2bbc:	3f190000 	svccc	0x00190000
    2bc0:	b4000001 	strlt	r0, [r0], #-1
    2bc4:	1c000092 	stcne	0, cr0, [r0], {146}	; 0x92
    2bc8:	01000000 	mrseq	r0, (UNDEF: 0)
    2bcc:	00049019 	andeq	r9, r4, r9, lsl r0
    2bd0:	016a1a00 	cmneq	sl, r0, lsl #20
    2bd4:	1e2d0000 	cdpne	0, 2, cr0, cr13, cr0, {0}
    2bd8:	5f1b0000 	svcpl	0x001b0000
    2bdc:	01000001 	tsteq	r0, r1
    2be0:	01561b54 	cmpeq	r6, r4, asr fp
    2be4:	77080000 	strvc	r0, [r8, -r0]
    2be8:	081a3800 	ldmdaeq	sl, {fp, ip, sp}
    2bec:	1b9f1aff 	blne	fe7c97f0 <__bss_end__+0xfe7bf5d8>
    2bf0:	0000014b 	andeq	r0, r0, fp, asr #2
    2bf4:	11195601 	tstne	r9, r1, lsl #12
    2bf8:	c0000001 	andgt	r0, r0, r1
    2bfc:	10000092 	mulne	r0, r2, r0
    2c00:	02000000 	andeq	r0, r0, #0
    2c04:	0004771a 	andeq	r7, r4, sl, lsl r7
    2c08:	01281a00 	teqeq	r8, r0, lsl #20
    2c0c:	1e520000 	cdpne	0, 5, cr0, cr2, cr0, {0}
    2c10:	1d1b0000 	ldcne	0, cr0, [fp, #-0]
    2c14:	01000001 	tsteq	r0, r1
    2c18:	92c01d54 	sbcls	r1, r0, #84, 26	; 0x1500
    2c1c:	00040000 	andeq	r0, r4, r0
    2c20:	321e0000 	andscc	r0, lr, #0
    2c24:	77000001 	strvc	r0, [r0, -r1]
    2c28:	0000001e 	andeq	r0, r0, lr, lsl r0
    2c2c:	92c01f00 	sbcls	r1, r0, #0, 30
    2c30:	11590000 	cmpne	r9, r0
    2c34:	01200000 	teqeq	r0, r0
    2c38:	00770451 	rsbseq	r0, r7, r1, asr r4
    2c3c:	01201a38 	teqeq	r0, r8, lsr sl
    2c40:	00760250 	rsbseq	r0, r6, r0, asr r2
    2c44:	3f190000 	svccc	0x00190000
    2c48:	d4000001 	strle	r0, [r0], #-1
    2c4c:	1c000092 	stcne	0, cr0, [r0], {146}	; 0x92
    2c50:	01000000 	mrseq	r0, (UNDEF: 0)
    2c54:	0005181b 	andeq	r1, r5, fp, lsl r8
    2c58:	016a1a00 	cmneq	sl, r0, lsl #20
    2c5c:	1e8a0000 	cdpne	0, 8, cr0, cr10, cr0, {0}
    2c60:	5f1b0000 	svcpl	0x001b0000
    2c64:	01000001 	tsteq	r0, r1
    2c68:	01561b54 	cmpeq	r6, r4, asr fp
    2c6c:	77080000 	strvc	r0, [r8, -r0]
    2c70:	081a4000 	ldmdaeq	sl, {lr}
    2c74:	1b9f1aff 	blne	fe7c9878 <__bss_end__+0xfe7bf660>
    2c78:	0000014b 	andeq	r0, r0, fp, asr #2
    2c7c:	11195601 	tstne	r9, r1, lsl #12
    2c80:	e0000001 	and	r0, r0, r1
    2c84:	10000092 	mulne	r0, r2, r0
    2c88:	02000000 	andeq	r0, r0, #0
    2c8c:	0004ff1a 	andeq	pc, r4, sl, lsl pc	; <UNPREDICTABLE>
    2c90:	01281a00 	teqeq	r8, r0, lsl #20
    2c94:	1eb10000 	cdpne	0, 11, cr0, cr1, cr0, {0}
    2c98:	1d1b0000 	ldcne	0, cr0, [fp, #-0]
    2c9c:	01000001 	tsteq	r0, r1
    2ca0:	92e01d54 	rscls	r1, r0, #84, 26	; 0x1500
    2ca4:	00040000 	andeq	r0, r4, r0
    2ca8:	321e0000 	andscc	r0, lr, #0
    2cac:	d8000001 	stmdale	r0, {r0}
    2cb0:	0000001e 	andeq	r0, r0, lr, lsl r0
    2cb4:	92e01f00 	rscls	r1, r0, #0, 30
    2cb8:	11590000 	cmpne	r9, r0
    2cbc:	01200000 	teqeq	r0, r0
    2cc0:	00770451 	rsbseq	r0, r7, r1, asr r4
    2cc4:	01201a40 	teqeq	r0, r0, asr #20
    2cc8:	00760250 	rsbseq	r0, r6, r0, asr r2
    2ccc:	3f190000 	svccc	0x00190000
    2cd0:	f4000001 	vst4.8	{d0-d3}, [r0], r1
    2cd4:	1c000092 	stcne	0, cr0, [r0], {146}	; 0x92
    2cd8:	01000000 	mrseq	r0, (UNDEF: 0)
    2cdc:	0005a21d 	andeq	sl, r5, sp, lsl r2
    2ce0:	016a1a00 	cmneq	sl, r0, lsl #20
    2ce4:	1eeb0000 	cdpne	0, 14, cr0, cr11, cr0, {0}
    2ce8:	5f1b0000 	svcpl	0x001b0000
    2cec:	01000001 	tsteq	r0, r1
    2cf0:	01561b54 	cmpeq	r6, r4, asr fp
    2cf4:	77090000 	strvc	r0, [r9, -r0]
    2cf8:	1a200800 	bne	804d00 <__bss_end__+0x7faae8>
    2cfc:	9f1aff08 	svcls	0x001aff08
    2d00:	00014b1b 	andeq	r4, r1, fp, lsl fp
    2d04:	19560100 	ldmdbne	r6, {r8}^
    2d08:	00000111 	andeq	r0, r0, r1, lsl r1
    2d0c:	00009300 	andeq	r9, r0, r0, lsl #6
    2d10:	00000010 	andeq	r0, r0, r0, lsl r0
    2d14:	05881a02 	streq	r1, [r8, #2562]	; 0xa02
    2d18:	281a0000 	ldmdacs	sl, {}	; <UNPREDICTABLE>
    2d1c:	15000001 	strne	r0, [r0, #-1]
    2d20:	1b00001f 	blne	2da4 <_start-0x525c>
    2d24:	0000011d 	andeq	r0, r0, sp, lsl r1
    2d28:	001d5401 	andseq	r5, sp, r1, lsl #8
    2d2c:	04000093 	streq	r0, [r0], #-147	; 0x93
    2d30:	1e000000 	cdpne	0, 0, cr0, cr0, cr0, {0}
    2d34:	00000132 	andeq	r0, r0, r2, lsr r1
    2d38:	00001f3f 	andeq	r1, r0, pc, lsr pc
    2d3c:	001f0000 	andseq	r0, pc, r0
    2d40:	59000093 	stmdbpl	r0, {r0, r1, r4, r7}
    2d44:	20000011 	andcs	r0, r0, r1, lsl r0
    2d48:	77055101 	strvc	r5, [r5, -r1, lsl #2]
    2d4c:	1a200800 	bne	804d54 <__bss_end__+0x7fab3c>
    2d50:	02500120 	subseq	r0, r0, #32, 2
    2d54:	00000076 	andeq	r0, r0, r6, ror r0
    2d58:	00013f19 	andeq	r3, r1, r9, lsl pc
    2d5c:	00931400 	addseq	r1, r3, r0, lsl #8
    2d60:	00001c00 	andeq	r1, r0, r0, lsl #24
    2d64:	2c1f0100 	ldfcss	f0, [pc], {-0}
    2d68:	1a000006 	bne	2d88 <_start-0x5278>
    2d6c:	0000016a 	andeq	r0, r0, sl, ror #2
    2d70:	00001f52 	andeq	r1, r0, r2, asr pc
    2d74:	00015f1b 	andeq	r5, r1, fp, lsl pc
    2d78:	1b540100 	blne	1503180 <__bss_end__+0x14f8f68>
    2d7c:	00000156 	andeq	r0, r0, r6, asr r1
    2d80:	08007709 	stmdaeq	r0, {r0, r3, r8, r9, sl, ip, sp, lr}
    2d84:	ff081a40 			; <UNDEFINED> instruction: 0xff081a40
    2d88:	4b1b9f1a 	blmi	6ea9f8 <__bss_end__+0x6e07e0>
    2d8c:	01000001 	tsteq	r0, r1
    2d90:	01111956 	tsteq	r1, r6, asr r9
    2d94:	93200000 	teqls	r0, #0
    2d98:	00100000 	andseq	r0, r0, r0
    2d9c:	1a020000 	bne	82da4 <__bss_end__+0x78b8c>
    2da0:	00000612 	andeq	r0, r0, r2, lsl r6
    2da4:	0001281a 	andeq	r2, r1, sl, lsl r8
    2da8:	001f7400 	andseq	r7, pc, r0, lsl #8
    2dac:	011d1b00 	tsteq	sp, r0, lsl #22
    2db0:	54010000 	strpl	r0, [r1], #-0
    2db4:	0093201d 	addseq	r2, r3, sp, lsl r0
    2db8:	00000400 	andeq	r0, r0, r0, lsl #8
    2dbc:	01321e00 	teqeq	r2, r0, lsl #28
    2dc0:	1f960000 	svcne	0x00960000
    2dc4:	00000000 	andeq	r0, r0, r0
    2dc8:	0093201f 	addseq	r2, r3, pc, lsl r0
    2dcc:	00115900 	andseq	r5, r1, r0, lsl #18
    2dd0:	51012000 	mrspl	r2, (UNDEF: 1)
    2dd4:	08007705 	stmdaeq	r0, {r0, r2, r8, r9, sl, ip, sp, lr}
    2dd8:	01201a40 	teqeq	r0, r0, asr #20
    2ddc:	00760250 	rsbseq	r0, r6, r0, asr r2
    2de0:	3f190000 	svccc	0x00190000
    2de4:	34000001 	strcc	r0, [r0], #-1
    2de8:	1c000093 	stcne	0, cr0, [r0], {147}	; 0x93
    2dec:	01000000 	mrseq	r0, (UNDEF: 0)
    2df0:	0006ac21 	andeq	sl, r6, r1, lsr #24
    2df4:	016a1b00 	cmneq	sl, r0, lsl #22
    2df8:	58010000 	stmdapl	r1, {}	; <UNPREDICTABLE>
    2dfc:	00015f1b 	andeq	r5, r1, fp, lsl pc
    2e00:	1a540100 	bne	1503208 <__bss_end__+0x14f8ff0>
    2e04:	00000156 	andeq	r0, r0, r6, asr r1
    2e08:	00001fa9 	andeq	r1, r0, r9, lsr #31
    2e0c:	00014b1b 	andeq	r4, r1, fp, lsl fp
    2e10:	19560100 	ldmdbne	r6, {r8}^
    2e14:	00000111 	andeq	r0, r0, r1, lsl r1
    2e18:	00009340 	andeq	r9, r0, r0, asr #6
    2e1c:	00000010 	andeq	r0, r0, r0, lsl r0
    2e20:	06921a02 	ldreq	r1, [r2], r2, lsl #20
    2e24:	281b0000 	ldmdacs	fp, {}	; <UNPREDICTABLE>
    2e28:	01000001 	tsteq	r0, r1
    2e2c:	011d1b58 	tsteq	sp, r8, asr fp
    2e30:	54010000 	strpl	r0, [r1], #-0
    2e34:	0093401d 	addseq	r4, r3, sp, lsl r0
    2e38:	00000400 	andeq	r0, r0, r0, lsl #8
    2e3c:	01321e00 	teqeq	r2, r0, lsl #28
    2e40:	1fdc0000 	svcne	0x00dc0000
    2e44:	00000000 	andeq	r0, r0, r0
    2e48:	0093401f 	addseq	r4, r3, pc, lsl r0
    2e4c:	00115900 	andseq	r5, r1, r0, lsl #18
    2e50:	51012000 	mrspl	r2, (UNDEF: 1)
    2e54:	08007705 	stmdaeq	r0, {r0, r2, r8, r9, sl, ip, sp, lr}
    2e58:	01201a80 	smlawbeq	r0, r0, sl, r1
    2e5c:	00760250 	rsbseq	r0, r6, r0, asr r2
    2e60:	3f210000 	svccc	0x00210000
    2e64:	54000001 	strpl	r0, [r0], #-1
    2e68:	1c000093 	stcne	0, cr0, [r0], {147}	; 0x93
    2e6c:	01000000 	mrseq	r0, (UNDEF: 0)
    2e70:	016a1b23 	cmneq	sl, r3, lsr #22
    2e74:	55010000 	strpl	r0, [r1, #-0]
    2e78:	00015f1b 	andeq	r5, r1, fp, lsl pc
    2e7c:	1c540100 	ldfnee	f0, [r4], {-0}
    2e80:	00000156 	andeq	r0, r0, r6, asr r1
    2e84:	014b1b01 	cmpeq	fp, r1, lsl #22
    2e88:	56010000 	strpl	r0, [r1], -r0
    2e8c:	00011119 	andeq	r1, r1, r9, lsl r1
    2e90:	00936000 	addseq	r6, r3, r0
    2e94:	00001000 	andeq	r1, r0, r0
    2e98:	0b1a0200 	bleq	6836a0 <__bss_end__+0x679488>
    2e9c:	1b000007 	blne	2ec0 <_start-0x5140>
    2ea0:	00000128 	andeq	r0, r0, r8, lsr #2
    2ea4:	1d1b5501 	cfldr32ne	mvfx5, [fp, #-4]
    2ea8:	01000001 	tsteq	r0, r1
    2eac:	93601d54 	cmnls	r0, #84, 26	; 0x1500
    2eb0:	00040000 	andeq	r0, r4, r0
    2eb4:	321e0000 	andscc	r0, lr, #0
    2eb8:	ef000001 	svc	0x00000001
    2ebc:	0000001f 	andeq	r0, r0, pc, lsl r0
    2ec0:	93601f00 	cmnls	r0, #0, 30
    2ec4:	11590000 	cmpne	r9, r0
    2ec8:	01200000 	teqeq	r0, r0
    2ecc:	20310151 	eorscs	r0, r1, r1, asr r1
    2ed0:	76025001 	strvc	r5, [r2], -r1
    2ed4:	00000000 	andeq	r0, r0, r0
    2ed8:	00d90406 	sbcseq	r0, r9, r6, lsl #8
    2edc:	e9220000 	stmdb	r2!, {}	; <UNPREDICTABLE>
    2ee0:	01000008 	tsteq	r0, r8
    2ee4:	00002527 	andeq	r2, r0, r7, lsr #10
    2ee8:	07620300 	strbeq	r0, [r2, -r0, lsl #6]!
    2eec:	720f0000 	andvc	r0, pc, #0
    2ef0:	27010078 	smlsdxcs	r1, r8, r0, r0
    2ef4:	00000025 	andeq	r0, r0, r5, lsr #32
    2ef8:	0100760f 	tsteq	r0, pc, lsl #12
    2efc:	00002527 	andeq	r2, r0, r7, lsr #10
    2f00:	08760e00 	ldmdaeq	r6!, {r9, sl, fp}^
    2f04:	27010000 	strcs	r0, [r1, -r0]
    2f08:	0000002c 	andeq	r0, r0, ip, lsr #32
    2f0c:	0004f511 	andeq	pc, r4, r1, lsl r5	; <UNPREDICTABLE>
    2f10:	2c280100 	stfcss	f0, [r8], #-0
    2f14:	00000000 	andeq	r0, r0, r0
    2f18:	00081723 	andeq	r1, r8, r3, lsr #14
    2f1c:	25340100 	ldrcs	r0, [r4, #-256]!	; 0x100
    2f20:	74000000 	strvc	r0, [r0], #-0
    2f24:	c8000093 	stmdagt	r0, {r0, r1, r4, r7}
    2f28:	01000001 	tsteq	r0, r1
    2f2c:	000b1e9c 	muleq	fp, ip, lr
    2f30:	04a81300 	strteq	r1, [r8], #768	; 0x300
    2f34:	34010000 	strcc	r0, [r1], #-0
    2f38:	00000722 	andeq	r0, r0, r2, lsr #14
    2f3c:	00002002 	andeq	r2, r0, r2
    2f40:	00087613 	andeq	r7, r8, r3, lsl r6
    2f44:	25340100 	ldrcs	r0, [r4, #-256]!	; 0x100
    2f48:	47000000 	strmi	r0, [r0, -r0]
    2f4c:	15000020 	strne	r0, [r0, #-32]
    2f50:	01007872 	tsteq	r0, r2, ror r8
    2f54:	00002535 	andeq	r2, r0, r5, lsr r5
    2f58:	16550100 	ldrbne	r0, [r5], -r0, lsl #2
    2f5c:	3c010073 	stccc	0, cr0, [r1], {115}	; 0x73
    2f60:	0000002c 	andeq	r0, r0, ip, lsr #32
    2f64:	00002065 	andeq	r2, r0, r5, rrx
    2f68:	01007516 	tsteq	r0, r6, lsl r5
    2f6c:	0000683f 	andeq	r6, r0, pc, lsr r8
    2f70:	00207800 	eoreq	r7, r0, r0, lsl #16
    2f74:	006e1600 	rsbeq	r1, lr, r0, lsl #12
    2f78:	002c4001 	eoreq	r4, ip, r1
    2f7c:	208b0000 	addcs	r0, fp, r0
    2f80:	63160000 	tstvs	r6, #0
    2f84:	2c410100 	stfcse	f0, [r1], {-0}
    2f88:	a2000000 	andge	r0, r0, #0
    2f8c:	19000020 	stmdbne	r0, {r5}
    2f90:	00000728 	andeq	r0, r0, r8, lsr #14
    2f94:	00009388 	andeq	r9, r0, r8, lsl #7
    2f98:	00000034 	andeq	r0, r0, r4, lsr r0
    2f9c:	083c3801 	ldmdaeq	ip!, {r0, fp, ip, sp}
    2fa0:	4b1a0000 	blmi	682fa8 <__bss_end__+0x678d90>
    2fa4:	cc000007 	stcgt	0, cr0, [r0], {7}
    2fa8:	1c000020 	stcne	0, cr0, [r0], {32}
    2fac:	00000742 	andeq	r0, r0, r2, asr #14
    2fb0:	07381b00 	ldreq	r1, [r8, -r0, lsl #22]!
    2fb4:	55010000 	strpl	r0, [r1, #-0]
    2fb8:	0093881d 	addseq	r8, r3, sp, lsl r8
    2fbc:	00003400 	andeq	r3, r0, r0, lsl #8
    2fc0:	07561e00 	ldrbeq	r1, [r6, -r0, lsl #28]
    2fc4:	20ea0000 	rsccs	r0, sl, r0
    2fc8:	8c240000 	stchi	0, cr0, [r4], #-0
    2fcc:	6f000093 	svcvs	0x00000093
    2fd0:	25000011 	strcs	r0, [r0, #-17]
    2fd4:	00009398 	muleq	r0, r8, r3
    2fd8:	0000117a 	andeq	r1, r0, sl, ror r1
    2fdc:	00000831 	andeq	r0, r0, r1, lsr r8
    2fe0:	02500120 	subseq	r0, r0, #32, 2
    2fe4:	24000075 	strcs	r0, [r0], #-117	; 0x75
    2fe8:	000093a4 	andeq	r9, r0, r4, lsr #7
    2fec:	0000116f 	andeq	r1, r0, pc, ror #2
    2ff0:	c4170000 	ldrgt	r0, [r7], #-0
    2ff4:	04000093 	streq	r0, [r0], #-147	; 0x93
    2ff8:	59000000 	stmdbpl	r0, {}	; <UNPREDICTABLE>
    2ffc:	26000008 	strcs	r0, [r0], -r8
    3000:	00000203 	andeq	r0, r0, r3, lsl #4
    3004:	002c3c01 	eoreq	r3, ip, r1, lsl #24
    3008:	21080000 	mrscs	r0, (UNDEF: 8)
    300c:	19000000 	stmdbne	r0, {}	; <UNPREDICTABLE>
    3010:	00000111 	andeq	r0, r0, r1, lsl r1
    3014:	000093d0 	ldrdeq	r9, [r0], -r0
    3018:	00000010 	andeq	r0, r0, r0, lsl r0
    301c:	08924401 	ldmeq	r2, {r0, sl, lr}
    3020:	281a0000 	ldmdacs	sl, {}	; <UNPREDICTABLE>
    3024:	1b000001 	blne	3030 <_start-0x4fd0>
    3028:	1a000021 	bne	30b4 <_start-0x4f4c>
    302c:	0000011d 	andeq	r0, r0, sp, lsl r1
    3030:	00002140 	andeq	r2, r0, r0, asr #2
    3034:	0093d01d 	addseq	sp, r3, sp, lsl r0
    3038:	00000400 	andeq	r0, r0, r0, lsl #8
    303c:	01321e00 	teqeq	r2, r0, lsl #28
    3040:	21530000 	cmpcs	r3, r0
    3044:	00000000 	andeq	r0, r0, r0
    3048:	00011119 	andeq	r1, r1, r9, lsl r1
    304c:	0093f000 	addseq	pc, r3, r0
    3050:	00001000 	andeq	r1, r0, r0
    3054:	cb480100 	blgt	120345c <__bss_end__+0x11f9244>
    3058:	1a000008 	bne	3080 <_start-0x4f80>
    305c:	00000128 	andeq	r0, r0, r8, lsr #2
    3060:	00002166 	andeq	r2, r0, r6, ror #2
    3064:	00011d1a 	andeq	r1, r1, sl, lsl sp
    3068:	00217900 	eoreq	r7, r1, r0, lsl #18
    306c:	93f01d00 	mvnsls	r1, #0, 26
    3070:	00040000 	andeq	r0, r4, r0
    3074:	321e0000 	andscc	r0, lr, #0
    3078:	8c000001 	stchi	0, cr0, [r0], {1}
    307c:	00000021 	andeq	r0, r0, r1, lsr #32
    3080:	01111900 	tsteq	r1, r0, lsl #18
    3084:	94140000 	ldrls	r0, [r4], #-0
    3088:	00100000 	andseq	r0, r0, r0
    308c:	4b010000 	blmi	43094 <__bss_end__+0x38e7c>
    3090:	00000904 	andeq	r0, r0, r4, lsl #18
    3094:	0001281a 	andeq	r2, r1, sl, lsl r8
    3098:	00219f00 	eoreq	r9, r1, r0, lsl #30
    309c:	011d1a00 	tsteq	sp, r0, lsl #20
    30a0:	21b20000 			; <UNDEFINED> instruction: 0x21b20000
    30a4:	141d0000 	ldrne	r0, [sp], #-0
    30a8:	04000094 	streq	r0, [r0], #-148	; 0x94
    30ac:	1e000000 	cdpne	0, 0, cr0, cr0, cr0, {0}
    30b0:	00000132 	andeq	r0, r0, r2, lsr r1
    30b4:	000021c5 	andeq	r2, r0, r5, asr #3
    30b8:	11190000 	tstne	r9, r0
    30bc:	38000001 	stmdacc	r0, {r0}
    30c0:	10000094 	mulne	r0, r4, r0
    30c4:	01000000 	mrseq	r0, (UNDEF: 0)
    30c8:	00093d4e 	andeq	r3, r9, lr, asr #26
    30cc:	01281a00 	teqeq	r8, r0, lsl #20
    30d0:	21d80000 	bicscs	r0, r8, r0
    30d4:	1d1a0000 	ldcne	0, cr0, [sl, #-0]
    30d8:	eb000001 	bl	30e4 <_start-0x4f1c>
    30dc:	1d000021 	stcne	0, cr0, [r0, #-132]	; 0xffffff7c
    30e0:	00009438 	andeq	r9, r0, r8, lsr r4
    30e4:	00000004 	andeq	r0, r0, r4
    30e8:	0001321e 	andeq	r3, r1, lr, lsl r2
    30ec:	0021fe00 	eoreq	pc, r1, r0, lsl #28
    30f0:	19000000 	stmdbne	r0, {}	; <UNPREDICTABLE>
    30f4:	00000111 	andeq	r0, r0, r1, lsl r1
    30f8:	0000945c 	andeq	r9, r0, ip, asr r4
    30fc:	00000010 	andeq	r0, r0, r0, lsl r0
    3100:	09765101 	ldmdbeq	r6!, {r0, r8, ip, lr}^
    3104:	281a0000 	ldmdacs	sl, {}	; <UNPREDICTABLE>
    3108:	11000001 	tstne	r0, r1
    310c:	1a000022 	bne	319c <_start-0x4e64>
    3110:	0000011d 	andeq	r0, r0, sp, lsl r1
    3114:	00002224 	andeq	r2, r0, r4, lsr #4
    3118:	00945c1d 	addseq	r5, r4, sp, lsl ip
    311c:	00000400 	andeq	r0, r0, r0, lsl #8
    3120:	01321e00 	teqeq	r2, r0, lsl #28
    3124:	22370000 	eorscs	r0, r7, #0
    3128:	00000000 	andeq	r0, r0, r0
    312c:	00011119 	andeq	r1, r1, r9, lsl r1
    3130:	00948000 	addseq	r8, r4, r0
    3134:	00001000 	andeq	r1, r0, r0
    3138:	af540100 	svcge	0x00540100
    313c:	1a000009 	bne	3168 <_start-0x4e98>
    3140:	00000128 	andeq	r0, r0, r8, lsr #2
    3144:	0000224a 	andeq	r2, r0, sl, asr #4
    3148:	00011d1a 	andeq	r1, r1, sl, lsl sp
    314c:	00225d00 	eoreq	r5, r2, r0, lsl #26
    3150:	94801d00 	strls	r1, [r0], #3328	; 0xd00
    3154:	00040000 	andeq	r0, r4, r0
    3158:	321e0000 	andscc	r0, lr, #0
    315c:	70000001 	andvc	r0, r0, r1
    3160:	00000022 	andeq	r0, r0, r2, lsr #32
    3164:	01111900 	tsteq	r1, r0, lsl #18
    3168:	94a40000 	strtls	r0, [r4], #0
    316c:	00100000 	andseq	r0, r0, r0
    3170:	57010000 	strpl	r0, [r1, -r0]
    3174:	000009e8 	andeq	r0, r0, r8, ror #19
    3178:	0001281a 	andeq	r2, r1, sl, lsl r8
    317c:	00228300 	eoreq	r8, r2, r0, lsl #6
    3180:	011d1a00 	tsteq	sp, r0, lsl #20
    3184:	22960000 	addscs	r0, r6, #0
    3188:	a41d0000 	ldrge	r0, [sp], #-0
    318c:	04000094 	streq	r0, [r0], #-148	; 0x94
    3190:	1e000000 	cdpne	0, 0, cr0, cr0, cr0, {0}
    3194:	00000132 	andeq	r0, r0, r2, lsr r1
    3198:	000022a9 	andeq	r2, r0, r9, lsr #5
    319c:	11190000 	tstne	r9, r0
    31a0:	c8000001 	stmdagt	r0, {r0}
    31a4:	10000094 	mulne	r0, r4, r0
    31a8:	01000000 	mrseq	r0, (UNDEF: 0)
    31ac:	000a1d5a 	andeq	r1, sl, sl, asr sp
    31b0:	01281a00 	teqeq	r8, r0, lsl #20
    31b4:	22bc0000 	adcscs	r0, ip, #0
    31b8:	1d270000 	stcne	0, cr0, [r7, #-0]
    31bc:	1d000001 	stcne	0, cr0, [r0, #-4]
    31c0:	000094c8 	andeq	r9, r0, r8, asr #9
    31c4:	00000004 	andeq	r0, r0, r4
    31c8:	0001321e 	andeq	r3, r1, lr, lsl r2
    31cc:	0022cf00 	eoreq	ip, r2, r0, lsl #30
    31d0:	19000000 	stmdbne	r0, {}	; <UNPREDICTABLE>
    31d4:	00000728 	andeq	r0, r0, r8, lsr #14
    31d8:	000094e8 	andeq	r9, r0, r8, ror #9
    31dc:	00000034 	andeq	r0, r0, r4, lsr r0
    31e0:	0a816101 	beq	fe05b5ec <__bss_end__+0xfe0513d4>
    31e4:	4b270000 	blmi	9c31ec <__bss_end__+0x9b8fd4>
    31e8:	1a000007 	bne	320c <_start-0x4df4>
    31ec:	00000742 	andeq	r0, r0, r2, asr #14
    31f0:	000022e2 	andeq	r2, r0, r2, ror #5
    31f4:	0007381a 	andeq	r3, r7, sl, lsl r8
    31f8:	00230200 	eoreq	r0, r3, r0, lsl #4
    31fc:	94e81d00 	strbtls	r1, [r8], #3328	; 0xd00
    3200:	00340000 	eorseq	r0, r4, r0
    3204:	561e0000 	ldrpl	r0, [lr], -r0
    3208:	20000007 	andcs	r0, r0, r7
    320c:	24000023 	strcs	r0, [r0], #-35	; 0x23
    3210:	000094ec 	andeq	r9, r0, ip, ror #9
    3214:	0000116f 	andeq	r1, r0, pc, ror #2
    3218:	0094f825 	addseq	pc, r4, r5, lsr #16
    321c:	00117a00 	andseq	r7, r1, r0, lsl #20
    3220:	000a7600 	andeq	r7, sl, r0, lsl #12
    3224:	50012000 	andpl	r2, r1, r0
    3228:	00007502 	andeq	r7, r0, r2, lsl #10
    322c:	00950424 	addseq	r0, r5, r4, lsr #8
    3230:	00116f00 	andseq	r6, r1, r0, lsl #30
    3234:	25000000 	strcs	r0, [r0, #-0]
    3238:	000093ec 	andeq	r9, r0, ip, ror #7
    323c:	0000117a 	andeq	r1, r0, sl, ror r1
    3240:	00000a95 	muleq	r0, r5, sl
    3244:	02500120 	subseq	r0, r0, #32, 2
    3248:	25000075 	strcs	r0, [r0, #-117]	; 0x75
    324c:	0000940c 	andeq	r9, r0, ip, lsl #8
    3250:	0000117a 	andeq	r1, r0, sl, ror r1
    3254:	00000aa9 	andeq	r0, r0, r9, lsr #21
    3258:	02500120 	subseq	r0, r0, #32, 2
    325c:	25000075 	strcs	r0, [r0, #-117]	; 0x75
    3260:	00009430 	andeq	r9, r0, r0, lsr r4
    3264:	0000117a 	andeq	r1, r0, sl, ror r1
    3268:	00000abd 			; <UNDEFINED> instruction: 0x00000abd
    326c:	02500120 	subseq	r0, r0, #32, 2
    3270:	25000075 	strcs	r0, [r0, #-117]	; 0x75
    3274:	00009454 	andeq	r9, r0, r4, asr r4
    3278:	0000117a 	andeq	r1, r0, sl, ror r1
    327c:	00000ad1 	ldrdeq	r0, [r0], -r1
    3280:	02500120 	subseq	r0, r0, #32, 2
    3284:	25000075 	strcs	r0, [r0, #-117]	; 0x75
    3288:	00009478 	andeq	r9, r0, r8, ror r4
    328c:	0000117a 	andeq	r1, r0, sl, ror r1
    3290:	00000ae5 	andeq	r0, r0, r5, ror #21
    3294:	02500120 	subseq	r0, r0, #32, 2
    3298:	25000075 	strcs	r0, [r0, #-117]	; 0x75
    329c:	0000949c 	muleq	r0, ip, r4
    32a0:	0000117a 	andeq	r1, r0, sl, ror r1
    32a4:	00000af9 	strdeq	r0, [r0], -r9
    32a8:	02500120 	subseq	r0, r0, #32, 2
    32ac:	25000075 	strcs	r0, [r0, #-117]	; 0x75
    32b0:	000094c0 	andeq	r9, r0, r0, asr #9
    32b4:	0000117a 	andeq	r1, r0, sl, ror r1
    32b8:	00000b0d 	andeq	r0, r0, sp, lsl #22
    32bc:	02500120 	subseq	r0, r0, #32, 2
    32c0:	1f000075 	svcne	0x00000075
    32c4:	000094e0 	andeq	r9, r0, r0, ror #9
    32c8:	0000117a 	andeq	r1, r0, sl, ror r1
    32cc:	02500120 	subseq	r0, r0, #32, 2
    32d0:	00000075 	andeq	r0, r0, r5, ror r0
    32d4:	00082c23 	andeq	r2, r8, r3, lsr #24
    32d8:	256c0100 	strbcs	r0, [ip, #-256]!	; 0x100
    32dc:	3c000000 	stccc	0, cr0, [r0], {-0}
    32e0:	a4000095 	strge	r0, [r0], #-149	; 0x95
    32e4:	01000000 	mrseq	r0, (UNDEF: 0)
    32e8:	000c0c9c 	muleq	ip, ip, ip
    32ec:	00751400 	rsbseq	r1, r5, r0, lsl #8
    32f0:	07226c01 	streq	r6, [r2, -r1, lsl #24]!
    32f4:	233e0000 	teqcs	lr, #0
    32f8:	62140000 	andsvs	r0, r4, #0
    32fc:	01006675 	tsteq	r0, r5, ror r6
    3300:	000c0c6c 	andeq	r0, ip, ip, ror #24
    3304:	00238000 	eoreq	r8, r3, r0
    3308:	08be1300 	ldmeq	lr!, {r8, r9, ip}
    330c:	6c010000 	stcvs	0, cr0, [r1], {-0}
    3310:	00000068 	andeq	r0, r0, r8, rrx
    3314:	000023c2 	andeq	r2, r0, r2, asr #7
    3318:	646e6514 	strbtvs	r6, [lr], #-1300	; 0x514
    331c:	4f6c0100 	svcmi	0x006c0100
    3320:	09000000 	stmdbeq	r0, {}	; <UNPREDICTABLE>
    3324:	28000024 	stmdacs	r0, {r2, r5}
    3328:	000008c5 	andeq	r0, r0, r5, asr #17
    332c:	00686c01 	rsbeq	r6, r8, r1, lsl #24
    3330:	91020000 	mrsls	r0, (UNDEF: 2)
    3334:	015f2900 	cmpeq	pc, r0, lsl #18
    3338:	0c220000 	stceq	0, cr0, [r2], #-0
    333c:	03050000 	movweq	r0, #20480	; 0x5000
    3340:	00009cf0 	strdeq	r9, [r0], -r0
    3344:	01006916 	tsteq	r0, r6, lsl r9
    3348:	00002570 	andeq	r2, r0, r0, ror r5
    334c:	00244300 	eoreq	r4, r4, r0, lsl #6
    3350:	08a12600 	stmiaeq	r1!, {r9, sl, sp}
    3354:	71010000 	mrsvc	r0, (UNDEF: 1)
    3358:	0000004f 	andeq	r0, r0, pc, asr #32
    335c:	0000246d 	andeq	r2, r0, sp, ror #8
    3360:	00956024 	addseq	r6, r5, r4, lsr #32
    3364:	00118f00 	andseq	r8, r1, r0, lsl #30
    3368:	957c2500 	ldrbls	r2, [ip, #-1280]!	; 0x500
    336c:	11960000 	orrsne	r0, r6, r0
    3370:	0bec0000 	bleq	ffb03378 <__bss_end__+0xffaf9160>
    3374:	01200000 	teqeq	r0, r0
    3378:	6d080253 	sfmvs	f0, 4, [r8, #-332]	; 0xfffffeb4
    337c:	05520120 	ldrbeq	r0, [r2, #-288]	; 0x120
    3380:	009cf003 	addseq	pc, ip, r3
    3384:	51012000 	mrspl	r2, (UNDEF: 1)
    3388:	9d680305 	stclls	3, cr0, [r8, #-20]!	; 0xffffffec
    338c:	01200000 	teqeq	r0, r0
    3390:	f0030550 			; <UNDEFINED> instruction: 0xf0030550
    3394:	2000009b 	mulcs	r0, fp, r0
    3398:	05007d02 	streq	r7, [r0, #-3330]	; 0xd02
    339c:	009d7c03 	addseq	r7, sp, r3, lsl #24
    33a0:	80240000 	eorhi	r0, r4, r0
    33a4:	ac000095 	stcge	0, cr0, [r0], {149}	; 0x95
    33a8:	1f000011 	svcne	0x00000011
    33ac:	0000959c 	muleq	r0, ip, r5
    33b0:	00000762 	andeq	r0, r0, r2, ror #14
    33b4:	02510120 	subseq	r0, r1, #32, 2
    33b8:	0120007a 	teqeq	r0, sl, ror r0
    33bc:	00780250 	rsbseq	r0, r8, r0, asr r2
    33c0:	04060000 	streq	r0, [r6], #-0
    33c4:	0000004f 	andeq	r0, r0, pc, asr #32
    33c8:	0000902a 	andeq	r9, r0, sl, lsr #32
    33cc:	000c2200 	andeq	r2, ip, r0, lsl #4
    33d0:	00812b00 	addeq	r2, r1, r0, lsl #22
    33d4:	00120000 	andseq	r0, r2, r0
    33d8:	000c1207 	andeq	r1, ip, r7, lsl #4
    33dc:	08a92300 	stmiaeq	r9!, {r8, r9, sp}
    33e0:	80010000 	andhi	r0, r1, r0
    33e4:	00000025 	andeq	r0, r0, r5, lsr #32
    33e8:	000095e0 	andeq	r9, r0, r0, ror #11
    33ec:	00000090 	muleq	r0, r0, r0
    33f0:	0cf89c01 	ldcleq	12, cr9, [r8], #4
    33f4:	75140000 	ldrvc	r0, [r4, #-0]
    33f8:	22800100 	addcs	r0, r0, #0, 2
    33fc:	80000007 	andhi	r0, r0, r7
    3400:	14000024 	strne	r0, [r0], #-36	; 0x24
    3404:	00667562 	rsbeq	r7, r6, r2, ror #10
    3408:	0c0c8001 	stceq	0, cr8, [ip], {1}
    340c:	24c20000 	strbcs	r0, [r2], #0
    3410:	be130000 	cdplt	0, 1, cr0, cr3, cr0, {0}
    3414:	01000008 	tsteq	r0, r8
    3418:	00006881 	andeq	r6, r0, r1, lsl #17
    341c:	00250400 	eoreq	r0, r5, r0, lsl #8
    3420:	08c51300 	stmiaeq	r5, {r8, r9, ip}^
    3424:	81010000 	mrshi	r0, (UNDEF: 1)
    3428:	00000068 	andeq	r0, r0, r8, rrx
    342c:	0000254b 	andeq	r2, r0, fp, asr #10
    3430:	00015f29 	andeq	r5, r1, r9, lsr #30
    3434:	000d0800 	andeq	r0, sp, r0, lsl #16
    3438:	04030500 	streq	r0, [r3], #-1280	; 0x500
    343c:	1600009d 			; <UNDEFINED> instruction: 0x1600009d
    3440:	86010069 	strhi	r0, [r1], -r9, rrx
    3444:	00000025 	andeq	r0, r0, r5, lsr #32
    3448:	0000258d 	andeq	r2, r0, sp, lsl #11
    344c:	00960024 	addseq	r0, r6, r4, lsr #32
    3450:	00118f00 	andseq	r8, r1, r0, lsl #30
    3454:	961c2500 	ldrls	r2, [ip], -r0, lsl #10
    3458:	11960000 	orrsne	r0, r6, r0
    345c:	0cd80000 	ldcleq	0, cr0, [r8], {0}
    3460:	01200000 	teqeq	r0, r0
    3464:	83080253 	movwhi	r0, #33363	; 0x8253
    3468:	05520120 	ldrbeq	r0, [r2, #-288]	; 0x120
    346c:	009d0403 	addseq	r0, sp, r3, lsl #8
    3470:	51012000 	mrspl	r2, (UNDEF: 1)
    3474:	9d680305 	stclls	3, cr0, [r8, #-20]!	; 0xffffffec
    3478:	01200000 	teqeq	r0, r0
    347c:	f0030550 			; <UNDEFINED> instruction: 0xf0030550
    3480:	2000009b 	mulcs	r0, fp, r0
    3484:	05007d02 	streq	r7, [r0, #-3330]	; 0xd02
    3488:	009d7c03 	addseq	r7, sp, r3, lsl #24
    348c:	20240000 	eorcs	r0, r4, r0
    3490:	ac000096 	stcge	0, cr0, [r0], {150}	; 0x96
    3494:	1f000011 	svcne	0x00000011
    3498:	0000963c 	andeq	r9, r0, ip, lsr r6
    349c:	00000762 	andeq	r0, r0, r2, ror #14
    34a0:	02510120 	subseq	r0, r1, #32, 2
    34a4:	01200078 	teqeq	r0, r8, ror r0
    34a8:	00770250 	rsbseq	r0, r7, r0, asr r2
    34ac:	902a0000 	eorls	r0, sl, r0
    34b0:	08000000 	stmdaeq	r0, {}	; <UNPREDICTABLE>
    34b4:	2b00000d 	blcs	34f0 <_start-0x4b10>
    34b8:	00000081 	andeq	r0, r0, r1, lsl #1
    34bc:	f8070014 			; <UNDEFINED> instruction: 0xf8070014
    34c0:	2300000c 	movwcs	r0, #12
    34c4:	00000862 	andeq	r0, r0, r2, ror #16
    34c8:	00d99301 	sbcseq	r9, r9, r1, lsl #6
    34cc:	96700000 	ldrbtls	r0, [r0], -r0
    34d0:	00d40000 	sbcseq	r0, r4, r0
    34d4:	9c010000 	stcls	0, cr0, [r1], {-0}
    34d8:	00000e32 	andeq	r0, r0, r2, lsr lr
    34dc:	00787414 	rsbseq	r7, r8, r4, lsl r4
    34e0:	004f9301 	subeq	r9, pc, r1, lsl #6
    34e4:	25b70000 	ldrcs	r0, [r7, #0]!
    34e8:	72140000 	andsvc	r0, r4, #0
    34ec:	93010078 	movwls	r0, #4216	; 0x1078
    34f0:	0000004f 	andeq	r0, r0, pc, asr #32
    34f4:	000025d8 	ldrdeq	r2, [r0], -r8
    34f8:	0004e113 	andeq	lr, r4, r3, lsl r1
    34fc:	68930100 	ldmvs	r3, {r8}
    3500:	f9000000 			; <UNDEFINED> instruction: 0xf9000000
    3504:	28000025 	stmdacs	r0, {r0, r2, r5}
    3508:	000007fb 	strdeq	r0, [r0], -fp
    350c:	00689301 	rsbeq	r9, r8, r1, lsl #6
    3510:	91020000 	mrsls	r0, (UNDEF: 2)
    3514:	686d2c00 	stmdavs	sp!, {sl, fp, sp}^
    3518:	9b01007a 	blls	43708 <__bss_end__+0x394f0>
    351c:	0000002c 	andeq	r0, r0, ip, lsr #32
    3520:	29b92700 	ldmibcs	r9!, {r8, r9, sl, sp}
    3524:	00084c26 	andeq	r4, r8, r6, lsr #24
    3528:	2c9c0100 	ldfcss	f0, [ip], {0}
    352c:	23000000 	movwcs	r0, #0
    3530:	29000026 	stmdbcs	r0, {r1, r2, r5}
    3534:	0000015f 	andeq	r0, r0, pc, asr r1
    3538:	00000e42 	andeq	r0, r0, r2, asr #28
    353c:	9d1c0305 	ldcls	3, cr0, [ip, #-20]	; 0xffffffec
    3540:	9c170000 	ldcls	0, cr0, [r7], {-0}
    3544:	08000096 	stmdaeq	r0, {r1, r2, r4, r7}
    3548:	a5000000 	strge	r0, [r0, #-0]
    354c:	2d00000d 	stccs	0, cr0, [r0, #-52]	; 0xffffffcc
    3550:	01006e69 	tsteq	r0, r9, ror #28
    3554:	00002c97 	muleq	r0, r7, ip
    3558:	25000100 	strcs	r0, [r0, #-256]	; 0x100
    355c:	00009694 	muleq	r0, r4, r6
    3560:	000011b3 			; <UNDEFINED> instruction: 0x000011b3
    3564:	00000db9 			; <UNDEFINED> instruction: 0x00000db9
    3568:	02500120 	subseq	r0, r0, #32, 2
    356c:	25000076 	strcs	r0, [r0, #-118]	; 0x76
    3570:	0000969c 	muleq	r0, ip, r6
    3574:	000011c4 	andeq	r1, r0, r4, asr #3
    3578:	00000dcd 	andeq	r0, r0, sp, asr #27
    357c:	02500120 	subseq	r0, r0, #32, 2
    3580:	25000078 	strcs	r0, [r0, #-120]	; 0x78
    3584:	000096b0 			; <UNDEFINED> instruction: 0x000096b0
    3588:	00001159 	andeq	r1, r0, r9, asr r1
    358c:	00000de6 	andeq	r0, r0, r6, ror #27
    3590:	01510120 	cmpeq	r1, r0, lsr #2
    3594:	50012031 	andpl	r2, r1, r1, lsr r0
    3598:	00007602 	andeq	r7, r0, r2, lsl #12
    359c:	0096f424 	addseq	pc, r6, r4, lsr #8
    35a0:	00118f00 	andseq	r8, r1, r0, lsl #30
    35a4:	97102500 	ldrls	r2, [r0, -r0, lsl #10]
    35a8:	11960000 	orrsne	r0, r6, r0
    35ac:	0e280000 	cdpeq	0, 2, cr0, cr8, cr0, {0}
    35b0:	01200000 	teqeq	r0, r0
    35b4:	9d080253 	sfmls	f0, 4, [r8, #-332]	; 0xfffffeb4
    35b8:	05520120 	ldrbeq	r0, [r2, #-288]	; 0x120
    35bc:	009d1c03 	addseq	r1, sp, r3, lsl #24
    35c0:	51012000 	mrspl	r2, (UNDEF: 1)
    35c4:	9d680305 	stclls	3, cr0, [r8, #-20]!	; 0xffffffec
    35c8:	01200000 	teqeq	r0, r0
    35cc:	f0030550 			; <UNDEFINED> instruction: 0xf0030550
    35d0:	2000009b 	mulcs	r0, fp, r0
    35d4:	05007d02 	streq	r7, [r0, #-3330]	; 0xd02
    35d8:	009d8803 	addseq	r8, sp, r3, lsl #16
    35dc:	14240000 	strtne	r0, [r4], #-0
    35e0:	ac000097 	stcge	0, cr0, [r0], {151}	; 0x97
    35e4:	00000011 	andeq	r0, r0, r1, lsl r0
    35e8:	0000902a 	andeq	r9, r0, sl, lsr #32
    35ec:	000e4200 	andeq	r4, lr, r0, lsl #4
    35f0:	00812b00 	addeq	r2, r1, r0, lsl #22
    35f4:	00130000 	andseq	r0, r3, r0
    35f8:	000e3207 	andeq	r3, lr, r7, lsl #4
    35fc:	083f2300 	ldmdaeq	pc!, {r8, r9, sp}	; <UNPREDICTABLE>
    3600:	a9010000 	stmdbge	r1, {}	; <UNPREDICTABLE>
    3604:	00000025 	andeq	r0, r0, r5, lsr #32
    3608:	00009744 	andeq	r9, r0, r4, asr #14
    360c:	0000003c 	andeq	r0, r0, ip, lsr r0
    3610:	0eea9c01 	cdpeq	12, 14, cr9, cr10, cr1, {0}
    3614:	a8130000 	ldmdage	r3, {}	; <UNPREDICTABLE>
    3618:	01000004 	tsteq	r0, r4
    361c:	000722a9 	andeq	r2, r7, r9, lsr #5
    3620:	00265100 	eoreq	r5, r6, r0, lsl #2
    3624:	65721600 	ldrbvs	r1, [r2, #-1536]!	; 0x600
    3628:	aa010073 	bge	437fc <__bss_end__+0x395e4>
    362c:	00000025 	andeq	r0, r0, r5, lsr #32
    3630:	00002672 	andeq	r2, r0, r2, ror r6
    3634:	00015f29 	andeq	r5, r1, r9, lsr #30
    3638:	000efa00 	andeq	pc, lr, r0, lsl #20
    363c:	30030500 	andcc	r0, r3, r0, lsl #10
    3640:	2500009d 	strcs	r0, [r0, #-157]	; 0x9d
    3644:	00009750 	andeq	r9, r0, r0, asr r7
    3648:	00000762 	andeq	r0, r0, r2, ror #14
    364c:	00000ea8 	andeq	r0, r0, r8, lsr #29
    3650:	02510120 	subseq	r0, r1, #32, 2
    3654:	0120ff09 	msreq	LR_irq, r9
    3658:	01f30350 	mvnseq	r0, r0, asr r3
    365c:	5c240050 	stcpl	0, cr0, [r4], #-320	; 0xfffffec0
    3660:	8f000097 	svchi	0x00000097
    3664:	25000011 	strcs	r0, [r0, #-17]
    3668:	00009770 	andeq	r9, r0, r0, ror r7
    366c:	00001196 	muleq	r0, r6, r1
    3670:	00000ee0 	andeq	r0, r0, r0, ror #29
    3674:	02530120 	subseq	r0, r3, #32, 2
    3678:	0120ac08 	teqeq	r0, r8, lsl #24
    367c:	30030552 	andcc	r0, r3, r2, asr r5
    3680:	2000009d 	mulcs	r0, sp, r0
    3684:	03055101 	movweq	r5, #20737	; 0x5101
    3688:	00009d68 	andeq	r9, r0, r8, ror #26
    368c:	05500120 	ldrbeq	r0, [r0, #-288]	; 0x120
    3690:	009dbc03 	addseq	fp, sp, r3, lsl #24
    3694:	74240000 	strtvc	r0, [r4], #-0
    3698:	ac000097 	stcge	0, cr0, [r0], {151}	; 0x97
    369c:	00000011 	andeq	r0, r0, r1, lsl r0
    36a0:	0000902a 	andeq	r9, r0, sl, lsr #32
    36a4:	000efa00 	andeq	pc, lr, r0, lsl #20
    36a8:	00812b00 	addeq	r2, r1, r0, lsl #22
    36ac:	000c0000 	andeq	r0, ip, r0
    36b0:	000eea07 	andeq	lr, lr, r7, lsl #20
    36b4:	08831200 	stmeq	r3, {r9, ip}
    36b8:	b0010000 	andlt	r0, r1, r0
    36bc:	00009780 	andeq	r9, r0, r0, lsl #15
    36c0:	0000002c 	andeq	r0, r0, ip, lsr #32
    36c4:	0f439c01 	svceq	0x00439c01
    36c8:	a8130000 	ldmdage	r3, {}	; <UNPREDICTABLE>
    36cc:	01000004 	tsteq	r0, r4
    36d0:	000722b0 			; <UNDEFINED> instruction: 0x000722b0
    36d4:	00268500 	eoreq	r8, r6, r0, lsl #10
    36d8:	736d1400 	cmnvc	sp, #0, 8
    36dc:	b0010067 	andlt	r0, r1, r7, rrx
    36e0:	00000097 	muleq	r0, r7, r0
    36e4:	000026a3 	andeq	r2, r0, r3, lsr #13
    36e8:	0097981f 	addseq	r9, r7, pc, lsl r8
    36ec:	00017600 	andeq	r7, r1, r0, lsl #12
    36f0:	50012000 	andpl	r2, r1, r0
    36f4:	00007502 	andeq	r7, r0, r2, lsl #10
    36f8:	04ad2300 	strteq	r2, [sp], #768	; 0x300
    36fc:	b9010000 	stmdblt	r1, {}	; <UNPREDICTABLE>
    3700:	00000025 	andeq	r0, r0, r5, lsr #32
    3704:	000097ac 	andeq	r9, r0, ip, lsr #15
    3708:	00000090 	muleq	r0, r0, r0
    370c:	10419c01 	subne	r9, r1, r1, lsl #24
    3710:	a8130000 	ldmdage	r3, {}	; <UNPREDICTABLE>
    3714:	01000004 	tsteq	r0, r4
    3718:	000722b9 			; <UNDEFINED> instruction: 0x000722b9
    371c:	0026c100 	eoreq	ip, r6, r0, lsl #2
    3720:	6d662e00 	stclvs	14, cr2, [r6, #-0]
    3724:	b9010074 	stmdblt	r1, {r2, r4, r5, r6}
    3728:	00000097 	muleq	r0, r7, r0
    372c:	2f749102 	svccs	0x00749102
    3730:	66756215 			; <UNDEFINED> instruction: 0x66756215
    3734:	41ba0100 			; <UNDEFINED> instruction: 0x41ba0100
    3738:	03000010 	movweq	r0, #16
    373c:	187c9c91 	ldmdane	ip!, {r0, r4, r7, sl, fp, ip, pc}^
    3740:	00000366 	andeq	r0, r0, r6, ror #6
    3744:	0106bc01 	tsteq	r6, r1, lsl #24
    3748:	91030000 	mrsls	r0, (UNDEF: 3)
    374c:	73167c98 	tstvc	r6, #152, 24	; 0x9800
    3750:	be01007a 	mcrlt	0, 0, r0, cr1, cr10, {3}
    3754:	00000025 	andeq	r0, r0, r5, lsr #32
    3758:	000026ed 	andeq	r2, r0, sp, ror #13
    375c:	00015f29 	andeq	r5, r1, r9, lsr #30
    3760:	00106200 	andseq	r6, r0, r0, lsl #4
    3764:	40030500 	andmi	r0, r3, r0, lsl #10
    3768:	2500009d 	strcs	r0, [r0, #-157]	; 0x9d
    376c:	000097d4 	ldrdeq	r9, [r0], -r4
    3770:	000011d5 	ldrdeq	r1, [r0], -r5
    3774:	00000fde 	ldrdeq	r0, [r0], -lr
    3778:	02530120 	subseq	r0, r3, #32, 2
    377c:	01205891 			; <UNDEFINED> instruction: 0x01205891
    3780:	54910352 	ldrpl	r0, [r1], #850	; 0x352
    3784:	51012006 	tstpl	r1, r6
    3788:	01cc0a03 	biceq	r0, ip, r3, lsl #20
    378c:	03500120 	cmpeq	r0, #32, 2
    3790:	007bfc91 			; <UNDEFINED> instruction: 0x007bfc91
    3794:	0097e824 	addseq	lr, r7, r4, lsr #16
    3798:	00118f00 	andseq	r8, r1, r0, lsl #30
    379c:	98042500 	stmdals	r4, {r8, sl, sp}
    37a0:	11960000 	orrsne	r0, r6, r0
    37a4:	10200000 	eorne	r0, r0, r0
    37a8:	01200000 	teqeq	r0, r0
    37ac:	c0080253 	andgt	r0, r8, r3, asr r2
    37b0:	05520120 	ldrbeq	r0, [r2, #-288]	; 0x120
    37b4:	009d4003 	addseq	r4, sp, r3
    37b8:	51012000 	mrspl	r2, (UNDEF: 1)
    37bc:	9d680305 	stclls	3, cr0, [r8, #-20]!	; 0xffffffec
    37c0:	01200000 	teqeq	r0, r0
    37c4:	f0030550 			; <UNDEFINED> instruction: 0xf0030550
    37c8:	2000009b 	mulcs	r0, fp, r0
    37cc:	05007d02 	streq	r7, [r0, #-3330]	; 0xd02
    37d0:	009df403 	addseq	pc, sp, r3, lsl #8
    37d4:	08240000 	stmdaeq	r4!, {}	; <UNPREDICTABLE>
    37d8:	ac000098 	stcge	0, cr0, [r0], {152}	; 0x98
    37dc:	1f000011 	svcne	0x00000011
    37e0:	00009814 	andeq	r9, r0, r4, lsl r8
    37e4:	00000eff 	strdeq	r0, [r0], -pc	; <UNPREDICTABLE>
    37e8:	03510120 	cmpeq	r1, #32, 2
    37ec:	207bfc91 			; <UNDEFINED> instruction: 0x207bfc91
    37f0:	75025001 	strvc	r5, [r2, #-1]
    37f4:	2a000000 	bcs	37fc <_start-0x4804>
    37f8:	00000090 	muleq	r0, r0, r0
    37fc:	00001052 	andeq	r1, r0, r2, asr r0
    3800:	00008130 	andeq	r8, r0, r0, lsr r1
    3804:	0001cb00 	andeq	ip, r1, r0, lsl #22
    3808:	0000902a 	andeq	r9, r0, sl, lsr #32
    380c:	00106200 	andseq	r6, r0, r0, lsl #4
    3810:	00812b00 	addeq	r2, r1, r0, lsl #22
    3814:	000e0000 	andeq	r0, lr, r0
    3818:	00105207 	andseq	r5, r0, r7, lsl #4
    381c:	08d22300 	ldmeq	r2, {r8, r9, sp}^
    3820:	c5010000 	strgt	r0, [r1, #-0]
    3824:	00000025 	andeq	r0, r0, r5, lsr #32
    3828:	0000983c 	andeq	r9, r0, ip, lsr r8
    382c:	0000004c 	andeq	r0, r0, ip, asr #32
    3830:	11449c01 	cmpne	r4, r1, lsl #24
    3834:	75140000 	ldrvc	r0, [r4, #-0]
    3838:	22c50100 	sbccs	r0, r5, #0, 2
    383c:	2c000007 	stccs	0, cr0, [r0], {7}
    3840:	14000027 	strne	r0, [r0], #-39	; 0x27
    3844:	00667562 	rsbeq	r7, r6, r2, ror #10
    3848:	0c0cc501 	cfstr32eq	mvfx12, [ip], {1}
    384c:	274d0000 	strbcs	r0, [sp, -r0]
    3850:	be130000 	cdplt	0, 1, cr0, cr3, cr0, {0}
    3854:	01000008 	tsteq	r0, r8
    3858:	000068c5 	andeq	r6, r0, r5, asr #17
    385c:	00276e00 	eoreq	r6, r7, r0, lsl #28
    3860:	6e651400 	cdpvs	4, 6, cr1, cr5, cr0, {0}
    3864:	c5010064 	strgt	r0, [r1, #-100]	; 0x64
    3868:	0000004f 	andeq	r0, r0, pc, asr #32
    386c:	0000278f 	andeq	r2, r0, pc, lsl #15
    3870:	73657216 	cmnvc	r5, #1610612737	; 0x60000001
    3874:	25c60100 	strbcs	r0, [r6, #256]	; 0x100
    3878:	b0000000 	andlt	r0, r0, r0
    387c:	29000027 	stmdbcs	r0, {r0, r1, r2, r5}
    3880:	0000015f 	andeq	r0, r0, pc, asr r1
    3884:	00001154 	andeq	r1, r0, r4, asr r1
    3888:	9d500305 	ldclls	3, cr0, [r0, #-20]	; 0xffffffec
    388c:	50250000 	eorpl	r0, r5, r0
    3890:	1e000098 	mcrne	0, 0, r0, cr0, cr8, {4}
    3894:	0200000b 	andeq	r0, r0, #11
    3898:	20000011 	andcs	r0, r0, r1, lsl r0
    389c:	f3035201 	vhsub.u8	d5, d3, d1
    38a0:	01205201 	teqeq	r0, r1, lsl #4
    38a4:	01f30351 	mvnseq	r0, r1, asr r3
    38a8:	50012051 	andpl	r2, r1, r1, asr r0
    38ac:	5001f303 	andpl	pc, r1, r3, lsl #6
    38b0:	007d0220 	rsbseq	r0, sp, r0, lsr #4
    38b4:	00ff0902 	rscseq	r0, pc, r2, lsl #18
    38b8:	00985c24 	addseq	r5, r8, r4, lsr #24
    38bc:	00118f00 	andseq	r8, r1, r0, lsl #30
    38c0:	98702500 	ldmdals	r0!, {r8, sl, sp}^
    38c4:	11960000 	orrsne	r0, r6, r0
    38c8:	113a0000 	teqne	sl, r0
    38cc:	01200000 	teqeq	r0, r0
    38d0:	c8080253 	stmdagt	r8, {r0, r1, r4, r6, r9}
    38d4:	05520120 	ldrbeq	r0, [r2, #-288]	; 0x120
    38d8:	009d5003 	addseq	r5, sp, r3
    38dc:	51012000 	mrspl	r2, (UNDEF: 1)
    38e0:	9d680305 	stclls	3, cr0, [r8, #-20]!	; 0xffffffec
    38e4:	01200000 	teqeq	r0, r0
    38e8:	bc030550 	cfstr32lt	mvfx0, [r3], {80}	; 0x50
    38ec:	0000009d 	muleq	r0, sp, r0
    38f0:	00987424 	addseq	r7, r8, r4, lsr #8
    38f4:	0011ac00 	andseq	sl, r1, r0, lsl #24
    38f8:	902a0000 	eorls	r0, sl, r0
    38fc:	54000000 	strpl	r0, [r0], #-0
    3900:	2b000011 	blcs	394c <_start-0x46b4>
    3904:	00000081 	andeq	r0, r0, r1, lsl #1
    3908:	44070016 	strmi	r0, [r7], #-22
    390c:	31000011 	tstcc	r0, r1, lsl r0
    3910:	00000029 	andeq	r0, r0, r9, lsr #32
    3914:	116f2106 	cmnne	pc, r6, lsl #2
    3918:	2c320000 	ldccs	0, cr0, [r2], #-0
    391c:	32000000 	andcc	r0, r0, #0
    3920:	0000002c 	andeq	r0, r0, ip, lsr #32
    3924:	05e23300 	strbeq	r3, [r2, #768]!	; 0x300
    3928:	57070000 	strpl	r0, [r7, -r0]
    392c:	0000002c 	andeq	r0, r0, ip, lsr #32
    3930:	0006bc34 	andeq	fp, r6, r4, lsr ip
    3934:	25240600 	strcs	r0, [r4, #-1536]!	; 0x600
    3938:	8f000000 	svchi	0x00000000
    393c:	32000011 	andcc	r0, r0, #17
    3940:	0000002c 	andeq	r0, r0, ip, lsr #32
    3944:	01273500 	teqeq	r7, r0, lsl #10
    3948:	1e070000 	cdpne	0, 0, cr0, cr7, cr0, {0}
    394c:	00031134 	andeq	r1, r3, r4, lsr r1
    3950:	25290700 	strcs	r0, [r9, #-1792]!	; 0x700
    3954:	ac000000 	stcge	0, cr0, [r0], {-0}
    3958:	32000011 	andcc	r0, r0, #17
    395c:	00000097 	muleq	r0, r7, r0
    3960:	9135002f 	teqls	r5, pc, lsr #32
    3964:	07000001 	streq	r0, [r0, -r1]
    3968:	02633166 	rsbeq	r3, r3, #-2147483623	; 0x80000019
    396c:	1d060000 	stcne	0, cr0, [r6, #-0]
    3970:	000011c4 	andeq	r1, r0, r4, asr #3
    3974:	00002c32 	andeq	r2, r0, r2, lsr ip
    3978:	4f310000 	svcmi	0x00310000
    397c:	06000002 	streq	r0, [r0], -r2
    3980:	0011d51c 	andseq	sp, r1, ip, lsl r5
    3984:	002c3200 	eoreq	r3, ip, r0, lsl #4
    3988:	36000000 	strcc	r0, [r0], -r0
    398c:	0000030e 	andeq	r0, r0, lr, lsl #6
    3990:	00250208 	eoreq	r0, r5, r8, lsl #4
    3994:	8a320000 	bhi	c8399c <__bss_end__+0xc79784>
    3998:	32000000 	andcc	r0, r0, #0
    399c:	00000025 	andeq	r0, r0, r5, lsr #32
    39a0:	00009732 	andeq	r9, r0, r2, lsr r7
    39a4:	01063200 	mrseq	r3, LR_usr
    39a8:	00000000 	andeq	r0, r0, r0
    39ac:	000003ff 	strdeq	r0, [r0], -pc	; <UNPREDICTABLE>
    39b0:	10010004 	andne	r0, r1, r4
    39b4:	01040000 	mrseq	r0, (UNDEF: 4)
    39b8:	000002b7 			; <UNDEFINED> instruction: 0x000002b7
    39bc:	0009ca01 	andeq	ip, r9, r1, lsl #20
    39c0:	00032200 	andeq	r2, r3, r0, lsl #4
    39c4:	00988800 	addseq	r8, r8, r0, lsl #16
    39c8:	00015400 	andeq	r5, r1, r0, lsl #8
    39cc:	000ed000 	andeq	sp, lr, r0
    39d0:	05040200 	streq	r0, [r4, #-512]	; 0x200
    39d4:	00746e69 	rsbseq	r6, r4, r9, ror #28
    39d8:	4d070403 	cfstrsmi	mvf0, [r7, #-12]
    39dc:	03000000 	movweq	r0, #0
    39e0:	020a0601 	andeq	r0, sl, #1048576	; 0x100000
    39e4:	02030000 	andeq	r0, r3, #0
    39e8:	00021605 	andeq	r1, r2, r5, lsl #12
    39ec:	05040300 	streq	r0, [r4, #-768]	; 0x300
    39f0:	00000075 	andeq	r0, r0, r5, ror r0
    39f4:	70050803 	andvc	r0, r5, r3, lsl #16
    39f8:	03000000 	movweq	r0, #0
    39fc:	02080801 	andeq	r0, r8, #65536	; 0x10000
    3a00:	02030000 	andeq	r0, r3, #0
    3a04:	00016c07 	andeq	r6, r1, r7, lsl #24
    3a08:	07040300 	streq	r0, [r4, -r0, lsl #6]
    3a0c:	00000048 	andeq	r0, r0, r8, asr #32
    3a10:	43070803 	movwmi	r0, #30723	; 0x7803
    3a14:	03000000 	movweq	r0, #0
    3a18:	01a40704 			; <UNDEFINED> instruction: 0x01a40704
    3a1c:	01030000 	mrseq	r0, (UNDEF: 3)
    3a20:	00021108 	andeq	r1, r2, r8, lsl #2
    3a24:	02010400 	andeq	r0, r1, #0, 8
    3a28:	0000b20c 	andeq	fp, r0, ip, lsl #4
    3a2c:	06770500 	ldrbteq	r0, [r7], -r0, lsl #10
    3a30:	05000000 	streq	r0, [r0, #-0]
    3a34:	0000075d 	andeq	r0, r0, sp, asr r7
    3a38:	07960501 	ldreq	r0, [r6, r1, lsl #10]
    3a3c:	05040000 	streq	r0, [r4, #-0]
    3a40:	000007a5 	andeq	r0, r0, r5, lsr #15
    3a44:	07b40505 	ldreq	r0, [r4, r5, lsl #10]!
    3a48:	05060000 	streq	r0, [r6, #-0]
    3a4c:	000007c3 	andeq	r0, r0, r3, asr #15
    3a50:	07d20507 	ldrbeq	r0, [r2, r7, lsl #10]
    3a54:	05030000 	streq	r0, [r3, #-0]
    3a58:	000007e1 	andeq	r0, r0, r1, ror #15
    3a5c:	8a060002 	bhi	183a6c <__bss_end__+0x179854>
    3a60:	02000007 	andeq	r0, r0, #7
    3a64:	00007915 	andeq	r7, r0, r5, lsl r9
    3a68:	09510700 	ldmdbeq	r1, {r8, r9, sl}^
    3a6c:	37010000 	strcc	r0, [r1, -r0]
    3a70:	00009888 	andeq	r9, r0, r8, lsl #17
    3a74:	0000009c 	muleq	r0, ip, r0
    3a78:	01c39c01 	biceq	r9, r3, r1, lsl #24
    3a7c:	90080000 	andls	r0, r8, r0
    3a80:	a8000098 	stmdage	r0, {r3, r4, r7}
    3a84:	09000003 	stmdbeq	r0, {r0, r1}
    3a88:	0000989c 	muleq	r0, ip, r8
    3a8c:	000003af 	andeq	r0, r0, pc, lsr #7
    3a90:	000000f3 	strdeq	r0, [r0], -r3
    3a94:	0151010a 	cmpeq	r1, sl, lsl #2
    3a98:	50010a32 	andpl	r0, r1, r2, lsr sl
    3a9c:	09003e01 	stmdbeq	r0, {r0, r9, sl, fp, ip, sp}
    3aa0:	000098a8 	andeq	r9, r0, r8, lsr #17
    3aa4:	000003af 	andeq	r0, r0, pc, lsr #7
    3aa8:	0000010b 	andeq	r0, r0, fp, lsl #2
    3aac:	0151010a 	cmpeq	r1, sl, lsl #2
    3ab0:	50010a32 	andpl	r0, r1, r2, lsr sl
    3ab4:	08003f01 	stmdaeq	r0, {r0, r8, r9, sl, fp, ip, sp}
    3ab8:	000098ac 	andeq	r9, r0, ip, lsr #17
    3abc:	000003a8 	andeq	r0, r0, r8, lsr #7
    3ac0:	0098bc09 	addseq	fp, r8, r9, lsl #24
    3ac4:	0003c500 	andeq	ip, r3, r0, lsl #10
    3ac8:	00012800 	andeq	r2, r1, r0, lsl #16
    3acc:	50010a00 	andpl	r0, r1, r0, lsl #20
    3ad0:	00007502 	andeq	r7, r0, r2, lsl #10
    3ad4:	0098c809 	addseq	ip, r8, r9, lsl #16
    3ad8:	0003e600 	andeq	lr, r3, r0, lsl #12
    3adc:	00013c00 	andeq	r3, r1, r0, lsl #24
    3ae0:	50010a00 	andpl	r0, r1, r0, lsl #20
    3ae4:	00007502 	andeq	r7, r0, r2, lsl #10
    3ae8:	0098cc08 	addseq	ip, r8, r8, lsl #24
    3aec:	0003a800 	andeq	sl, r3, r0, lsl #16
    3af0:	98d80900 	ldmls	r8, {r8, fp}^
    3af4:	03e60000 	mvneq	r0, #0
    3af8:	01580000 	cmpeq	r8, r0
    3afc:	010a0000 	mrseq	r0, (UNDEF: 10)
    3b00:	00300151 	eorseq	r0, r0, r1, asr r1
    3b04:	0098e409 	addseq	lr, r8, r9, lsl #8
    3b08:	0003e600 	andeq	lr, r3, r0, lsl #12
    3b0c:	00016b00 	andeq	r6, r1, r0, lsl #22
    3b10:	51010a00 	tstpl	r1, r0, lsl #20
    3b14:	09003001 	stmdbeq	r0, {r0, ip, sp}
    3b18:	000098f0 	strdeq	r9, [r0], -r0
    3b1c:	000003e6 	andeq	r0, r0, r6, ror #7
    3b20:	0000017e 	andeq	r0, r0, lr, ror r1
    3b24:	0151010a 	cmpeq	r1, sl, lsl #2
    3b28:	fc090036 	stc2	0, cr0, [r9], {54}	; 0x36
    3b2c:	e6000098 			; <UNDEFINED> instruction: 0xe6000098
    3b30:	91000003 	tstls	r0, r3
    3b34:	0a000001 	beq	3b40 <_start-0x44c0>
    3b38:	33015101 	movwcc	r5, #4353	; 0x1101
    3b3c:	99080900 	stmdbls	r8, {r8, fp}
    3b40:	03e60000 	mvneq	r0, #0
    3b44:	01a60000 			; <UNDEFINED> instruction: 0x01a60000
    3b48:	010a0000 	mrseq	r0, (UNDEF: 10)
    3b4c:	0e0a0351 	mcreq	3, 0, r0, cr10, cr1, {2}
    3b50:	14090001 	strne	r0, [r9], #-1
    3b54:	e6000099 			; <UNDEFINED> instruction: 0xe6000099
    3b58:	b9000003 	stmdblt	r0, {r0, r1}
    3b5c:	0a000001 	beq	3b68 <_start-0x4498>
    3b60:	33015101 	movwcc	r5, #4353	; 0x1101
    3b64:	99180800 	ldmdbls	r8, {fp}
    3b68:	03a80000 			; <UNDEFINED> instruction: 0x03a80000
    3b6c:	0b000000 	bleq	3b74 <_start-0x448c>
    3b70:	00000925 	andeq	r0, r0, r5, lsr #18
    3b74:	00255701 	eoreq	r5, r5, r1, lsl #14
    3b78:	99240000 	stmdbls	r4!, {}	; <UNPREDICTABLE>
    3b7c:	001c0000 	andseq	r0, ip, r0
    3b80:	9c010000 	stcls	0, cr0, [r1], {-0}
    3b84:	000001e6 	andeq	r0, r0, r6, ror #3
    3b88:	00993408 	addseq	r3, r9, r8, lsl #8
    3b8c:	0003c500 	andeq	ip, r3, r0, lsl #10
    3b90:	420b0000 	andmi	r0, fp, #0
    3b94:	01000008 	tsteq	r0, r8
    3b98:	0000255d 	andeq	r2, r0, sp, asr r5
    3b9c:	00994000 	addseq	r4, r9, r0
    3ba0:	00002800 	andeq	r2, r0, r0, lsl #16
    3ba4:	129c0100 	addsne	r0, ip, #0, 2
    3ba8:	08000002 	stmdaeq	r0, {r1}
    3bac:	00009948 	andeq	r9, r0, r8, asr #18
    3bb0:	000001c3 	andeq	r0, r0, r3, asr #3
    3bb4:	00995c08 	addseq	r5, r9, r8, lsl #24
    3bb8:	0003c500 	andeq	ip, r3, r0, lsl #10
    3bbc:	790b0000 	stmdbvc	fp, {}	; <UNPREDICTABLE>
    3bc0:	01000009 	tsteq	r0, r9
    3bc4:	00002564 	andeq	r2, r0, r4, ror #10
    3bc8:	00996800 	addseq	r6, r9, r0, lsl #16
    3bcc:	00001c00 	andeq	r1, r0, r0, lsl #24
    3bd0:	359c0100 	ldrcc	r0, [ip, #256]	; 0x100
    3bd4:	08000002 	stmdaeq	r0, {r1}
    3bd8:	00009978 	andeq	r9, r0, r8, ror r9
    3bdc:	000003c5 	andeq	r0, r0, r5, asr #7
    3be0:	05090700 	streq	r0, [r9, #-1792]	; 0x700
    3be4:	6a010000 	bvs	43bec <__bss_end__+0x399d4>
    3be8:	00009984 	andeq	r9, r0, r4, lsl #19
    3bec:	0000002c 	andeq	r0, r0, ip, lsr #32
    3bf0:	02719c01 	rsbseq	r9, r1, #256	; 0x100
    3bf4:	630c0000 	movwvs	r0, #49152	; 0xc000
    3bf8:	2c6a0100 	stfcse	f0, [sl], #-0
    3bfc:	ce000000 	cdpgt	0, 0, cr0, cr0, cr0, {0}
    3c00:	08000027 	stmdaeq	r0, {r0, r1, r2, r5}
    3c04:	00009990 	muleq	r0, r0, r9
    3c08:	00000212 	andeq	r0, r0, r2, lsl r2
    3c0c:	0099a80d 	addseq	sl, r9, sp, lsl #16
    3c10:	0003e600 	andeq	lr, r3, r0, lsl #12
    3c14:	51010a00 	tstpl	r1, r0, lsl #20
    3c18:	00007402 	andeq	r7, r0, r2, lsl #8
    3c1c:	09430b00 	stmdbeq	r3, {r8, r9, fp}^
    3c20:	74010000 	strvc	r0, [r1], #-0
    3c24:	00000025 	andeq	r0, r0, r5, lsr #32
    3c28:	000099b0 			; <UNDEFINED> instruction: 0x000099b0
    3c2c:	0000000c 	andeq	r0, r0, ip
    3c30:	02949c01 	addseq	r9, r4, #256	; 0x100
    3c34:	b8080000 	stmdalt	r8, {}	; <UNPREDICTABLE>
    3c38:	c3000099 	movwgt	r0, #153	; 0x99
    3c3c:	00000001 	andeq	r0, r0, r1
    3c40:	0009f60b 	andeq	pc, r9, fp, lsl #12
    3c44:	25780100 	ldrbcs	r0, [r8, #-256]!	; 0x100
    3c48:	bc000000 	stclt	0, cr0, [r0], {-0}
    3c4c:	20000099 	mulcs	r0, r9, r0
    3c50:	01000000 	mrseq	r0, (UNDEF: 0)
    3c54:	0002c09c 	muleq	r2, ip, r0
    3c58:	99c40800 	stmibls	r4, {fp}^
    3c5c:	02710000 	rsbseq	r0, r1, #0
    3c60:	d0080000 	andle	r0, r8, r0
    3c64:	e6000099 			; <UNDEFINED> instruction: 0xe6000099
    3c68:	00000001 	andeq	r0, r0, r1
    3c6c:	0009930e 	andeq	r9, r9, lr, lsl #6
    3c70:	d1160100 	tstle	r6, r0, lsl #2
    3c74:	05000002 	streq	r0, [r0, #-2]
    3c78:	009b4803 	addseq	r4, fp, r3, lsl #16
    3c7c:	d7040f00 	strle	r0, [r4, -r0, lsl #30]
    3c80:	10000002 	andne	r0, r0, r2
    3c84:	0000002c 	andeq	r0, r0, ip, lsr #32
    3c88:	0009870e 	andeq	r8, r9, lr, lsl #14
    3c8c:	d1170100 	tstle	r7, r0, lsl #2
    3c90:	05000002 	streq	r0, [r0, #-2]
    3c94:	009b1803 	addseq	r1, fp, r3, lsl #16
    3c98:	09080e00 	stmdbeq	r8, {r9, sl, fp}
    3c9c:	1a010000 	bne	43ca4 <__bss_end__+0x39a8c>
    3ca0:	000002d1 	ldrdeq	r0, [r0], -r1
    3ca4:	9b340305 	blls	d048c0 <__bss_end__+0xcfa6a8>
    3ca8:	5b0e0000 	blpl	383cb0 <__bss_end__+0x379a98>
    3cac:	01000009 	tsteq	r0, r9
    3cb0:	0002d11b 	andeq	sp, r2, fp, lsl r1
    3cb4:	20030500 	andcs	r0, r3, r0, lsl #10
    3cb8:	0e00009b 	mcreq	0, 0, r0, cr0, cr11, {4}
    3cbc:	0000096a 	andeq	r0, r0, sl, ror #18
    3cc0:	02d11c01 	sbcseq	r1, r1, #256	; 0x100
    3cc4:	03050000 	movweq	r0, #20480	; 0x5000
    3cc8:	00009b24 	andeq	r9, r0, r4, lsr #22
    3ccc:	0009d80e 	andeq	sp, r9, lr, lsl #16
    3cd0:	d11d0100 	tstle	sp, r0, lsl #2
    3cd4:	05000002 	streq	r0, [r0, #-2]
    3cd8:	009b2803 	addseq	r2, fp, r3, lsl #16
    3cdc:	08f90e00 	ldmeq	r9!, {r9, sl, fp}^
    3ce0:	1e010000 	cdpne	0, 0, cr0, cr1, cr0, {0}
    3ce4:	000002d1 	ldrdeq	r0, [r0], -r1
    3ce8:	9b440305 	blls	1104904 <__bss_end__+0x10fa6ec>
    3cec:	e70e0000 	str	r0, [lr, -r0]
    3cf0:	01000009 	tsteq	r0, r9
    3cf4:	0002d11f 	andeq	sp, r2, pc, lsl r1
    3cf8:	30030500 	andcc	r0, r3, r0, lsl #10
    3cfc:	0e00009b 	mcreq	0, 0, r0, cr0, cr11, {4}
    3d00:	00000916 	andeq	r0, r0, r6, lsl r9
    3d04:	02d12001 	sbcseq	r2, r1, #1
    3d08:	03050000 	movweq	r0, #20480	; 0x5000
    3d0c:	00009b40 	andeq	r9, r0, r0, asr #22
    3d10:	0009bb0e 	andeq	fp, r9, lr, lsl #22
    3d14:	d1210100 	teqle	r1, r0, lsl #2
    3d18:	05000002 	streq	r0, [r0, #-2]
    3d1c:	009b3c03 	addseq	r3, fp, r3, lsl #24
    3d20:	09330e00 	ldmdbeq	r3!, {r9, sl, fp}
    3d24:	22010000 	andcs	r0, r1, #0
    3d28:	000002d1 	ldrdeq	r0, [r0], -r1
    3d2c:	9b1c0305 	blls	704948 <__bss_end__+0x6fa730>
    3d30:	ab0e0000 	blge	383d38 <__bss_end__+0x379b20>
    3d34:	01000009 	tsteq	r0, r9
    3d38:	0002d123 	andeq	sp, r2, r3, lsr #2
    3d3c:	38030500 	stmdacc	r3, {r8, sl}
    3d40:	0e00009b 	mcreq	0, 0, r0, cr0, cr11, {4}
    3d44:	0000099b 	muleq	r0, fp, r9
    3d48:	02d12401 	sbcseq	r2, r1, #16777216	; 0x1000000
    3d4c:	03050000 	movweq	r0, #20480	; 0x5000
    3d50:	00009b2c 	andeq	r9, r0, ip, lsr #22
    3d54:	0006b011 	andeq	fp, r6, r1, lsl r0
    3d58:	128a0300 	addne	r0, sl, #0, 6
    3d5c:	000006db 	ldrdeq	r0, [r0], -fp
    3d60:	03c51902 	biceq	r1, r5, #32768	; 0x8000
    3d64:	2c130000 	ldccs	0, cr0, [r3], {-0}
    3d68:	13000000 	movwne	r0, #0
    3d6c:	000000b2 	strheq	r0, [r0], -r2
    3d70:	076e1400 	strbeq	r1, [lr, -r0, lsl #8]!
    3d74:	a9030000 	stmdbge	r3, {}	; <UNPREDICTABLE>
    3d78:	0000002c 	andeq	r0, r0, ip, lsr #32
    3d7c:	000003da 	ldrdeq	r0, [r0], -sl
    3d80:	0003da13 	andeq	sp, r3, r3, lsl sl
    3d84:	040f0000 	streq	r0, [pc], #-0	; 3d8c <_start-0x4274>
    3d88:	000003e0 	andeq	r0, r0, r0, ror #7
    3d8c:	0003e515 	andeq	lr, r3, r5, lsl r5
    3d90:	57121600 	ldrpl	r1, [r2, -r0, lsl #12]
    3d94:	03000006 	movweq	r0, #6
    3d98:	0003fc9d 	muleq	r3, sp, ip
    3d9c:	03fc1300 	mvnseq	r1, #0, 6
    3da0:	2c130000 	ldccs	0, cr0, [r3], {-0}
    3da4:	00000000 	andeq	r0, r0, r0
    3da8:	03e5040f 	mvneq	r0, #251658240	; 0xf000000
    3dac:	c3000000 	movwgt	r0, #0
    3db0:	04000001 	streq	r0, [r0], #-1
    3db4:	00112f00 	andseq	r2, r1, r0, lsl #30
    3db8:	b7010400 	strlt	r0, [r1, -r0, lsl #8]
    3dbc:	01000002 	tsteq	r0, r2
    3dc0:	00000a1b 	andeq	r0, r0, fp, lsl sl
    3dc4:	00000322 	andeq	r0, r0, r2, lsr #6
    3dc8:	00009a40 	andeq	r9, r0, r0, asr #20
    3dcc:	00000050 	andeq	r0, r0, r0, asr r0
    3dd0:	00000fd5 	ldrdeq	r0, [r0], -r5
    3dd4:	69050402 	stmdbvs	r5, {r1, sl}
    3dd8:	0300746e 	movweq	r7, #1134	; 0x46e
    3ddc:	00000a06 	andeq	r0, r0, r6, lsl #20
    3de0:	0037d402 	eorseq	sp, r7, r2, lsl #8
    3de4:	04040000 	streq	r0, [r4], #-0
    3de8:	00004d07 	andeq	r4, r0, r7, lsl #26
    3dec:	06010400 	streq	r0, [r1], -r0, lsl #8
    3df0:	0000020a 	andeq	r0, r0, sl, lsl #4
    3df4:	16050204 	strne	r0, [r5], -r4, lsl #4
    3df8:	04000002 	streq	r0, [r0], #-2
    3dfc:	00750504 	rsbseq	r0, r5, r4, lsl #10
    3e00:	08040000 	stmdaeq	r4, {}	; <UNPREDICTABLE>
    3e04:	00007005 	andeq	r7, r0, r5
    3e08:	02800300 	addeq	r0, r0, #0, 6
    3e0c:	2e030000 	cdpcs	0, 0, cr0, cr3, cr0, {0}
    3e10:	00000065 	andeq	r0, r0, r5, rrx
    3e14:	08080104 	stmdaeq	r8, {r2, r8}
    3e18:	04000002 	streq	r0, [r0], #-2
    3e1c:	016c0702 	cmneq	ip, r2, lsl #14
    3e20:	62030000 	andvs	r0, r3, #0
    3e24:	03000005 	movweq	r0, #5
    3e28:	00007e34 	andeq	r7, r0, r4, lsr lr
    3e2c:	07040400 	streq	r0, [r4, -r0, lsl #8]
    3e30:	00000048 	andeq	r0, r0, r8, asr #32
    3e34:	43070804 	movwmi	r0, #30724	; 0x7804
    3e38:	04000000 	streq	r0, [r0], #-0
    3e3c:	01a40704 			; <UNDEFINED> instruction: 0x01a40704
    3e40:	04050000 	streq	r0, [r5], #-0
    3e44:	11080104 	tstne	r8, r4, lsl #2
    3e48:	06000002 	streq	r0, [r0], -r2
    3e4c:	d30e040c 	movwle	r0, #58380	; 0xe40c
    3e50:	07000000 	streq	r0, [r0, -r0]
    3e54:	04007874 	streq	r7, [r0], #-2164	; 0x874
    3e58:	00005a0f 	andeq	r5, r0, pc, lsl #20
    3e5c:	72070000 	andvc	r0, r7, #0
    3e60:	0f040078 	svceq	0x00040078
    3e64:	0000005a 	andeq	r0, r0, sl, asr r0
    3e68:	04e10801 	strbteq	r0, [r1], #2049	; 0x801
    3e6c:	10040000 	andne	r0, r4, r0
    3e70:	00000073 	andeq	r0, r0, r3, ror r0
    3e74:	04920804 	ldreq	r0, [r2], #2052	; 0x804
    3e78:	11040000 	mrsne	r0, (UNDEF: 4)
    3e7c:	00000073 	andeq	r0, r0, r3, ror r0
    3e80:	ca030008 	bgt	c3ea8 <__bss_end__+0xb9c90>
    3e84:	04000004 	streq	r0, [r0], #-4
    3e88:	00009c12 	andeq	r9, r0, r2, lsl ip
    3e8c:	05010900 	streq	r0, [r1, #-2304]	; 0x900
    3e90:	0000f910 	andeq	pc, r0, r0, lsl r9	; <UNPREDICTABLE>
    3e94:	04e60a00 	strbteq	r0, [r6], #2560	; 0xa00
    3e98:	0a010000 	beq	43ea0 <__bss_end__+0x39c88>
    3e9c:	000004d4 	ldrdeq	r0, [r0], -r4
    3ea0:	04bc0a02 	ldrteq	r0, [ip], #2562	; 0xa02
    3ea4:	00030000 	andeq	r0, r3, r0
    3ea8:	0004fb03 	andeq	pc, r4, r3, lsl #22
    3eac:	de100500 	cfmul32le	mvfx0, mvfx0, mvfx0
    3eb0:	06000000 	streq	r0, [r0], -r0
    3eb4:	31140514 	tstcc	r4, r4, lsl r5
    3eb8:	08000001 	stmdaeq	r0, {r0}
    3ebc:	0000056b 	andeq	r0, r0, fp, ror #10
    3ec0:	00371505 	eorseq	r1, r7, r5, lsl #10
    3ec4:	08000000 	stmdaeq	r0, {}	; <UNPREDICTABLE>
    3ec8:	00000556 	andeq	r0, r0, r6, asr r5
    3ecc:	00f91805 	rscseq	r1, r9, r5, lsl #16
    3ed0:	08040000 	stmdaeq	r4, {}	; <UNPREDICTABLE>
    3ed4:	00000521 	andeq	r0, r0, r1, lsr #10
    3ed8:	00d31b05 	sbcseq	r1, r3, r5, lsl #22
    3edc:	00080000 	andeq	r0, r8, r0
    3ee0:	00051303 	andeq	r1, r5, r3, lsl #6
    3ee4:	04200500 	strteq	r0, [r0], #-1280	; 0x500
    3ee8:	0b000001 	bleq	3ef4 <_start-0x410c>
    3eec:	00000a14 	andeq	r0, r0, r4, lsl sl
    3ef0:	017e0501 	cmneq	lr, r1, lsl #10
    3ef4:	9a400000 	bls	1003efc <__bss_end__+0xff9ce4>
    3ef8:	00280000 	eoreq	r0, r8, r0
    3efc:	9c010000 	stcls	0, cr0, [r1], {-0}
    3f00:	0000017e 	andeq	r0, r0, lr, ror r1
    3f04:	0100630c 	tsteq	r0, ip, lsl #6
    3f08:	00017e06 	andeq	r7, r1, r6, lsl #28
    3f0c:	00000000 	andeq	r0, r0, r0
    3f10:	9a540d09 	bls	150733c <__bss_end__+0x14fd124>
    3f14:	01ab0000 			; <UNDEFINED> instruction: 0x01ab0000
    3f18:	010e0000 	mrseq	r0, (UNDEF: 14)
    3f1c:	0e340152 	mrceq	1, 1, r0, cr4, cr2, {2}
    3f20:	30015101 	andcc	r5, r1, r1, lsl #2
    3f24:	0350010e 	cmpeq	r0, #-2147483645	; 0x80000003
    3f28:	00244742 	eoreq	r4, r4, r2, asr #14
    3f2c:	31040f00 	tstcc	r4, r0, lsl #30
    3f30:	0b000001 	bleq	3f3c <_start-0x40c4>
    3f34:	00000529 	andeq	r0, r0, r9, lsr #10
    3f38:	017e0c01 	cmneq	lr, r1, lsl #24
    3f3c:	9a680000 	bls	1a03f44 <__bss_end__+0x19f9d2c>
    3f40:	00280000 	eoreq	r0, r8, r0
    3f44:	9c010000 	stcls	0, cr0, [r1], {-0}
    3f48:	000001ab 	andeq	r0, r0, fp, lsr #3
    3f4c:	0100630c 	tsteq	r0, ip, lsl #6
    3f50:	00017e0d 	andeq	r7, r1, sp, lsl #28
    3f54:	00000000 	andeq	r0, r0, r0
    3f58:	0d100009 	ldceq	0, cr0, [r0, #-36]	; 0xffffffdc
    3f5c:	0600000a 	streq	r0, [r0], -sl
    3f60:	0000931b 	andeq	r9, r0, fp, lsl r3
    3f64:	00931100 	addseq	r1, r3, r0, lsl #2
    3f68:	25110000 	ldrcs	r0, [r1, #-0]
    3f6c:	11000000 	mrsne	r0, (UNDEF: 0)
    3f70:	0000002c 	andeq	r0, r0, ip, lsr #32
    3f74:	00db0000 	sbcseq	r0, fp, r0
    3f78:	00040000 	andeq	r0, r4, r0
    3f7c:	00001213 	andeq	r1, r0, r3, lsl r2
    3f80:	02b70104 	adcseq	r0, r7, #4, 2
    3f84:	36010000 	strcc	r0, [r1], -r0
    3f88:	2200000a 	andcs	r0, r0, #10
    3f8c:	90000003 	andls	r0, r0, r3
    3f90:	2000009a 	mulcs	r0, sl, r0
    3f94:	01000000 	mrseq	r0, (UNDEF: 0)
    3f98:	02000011 	andeq	r0, r0, #17
    3f9c:	020a0601 	andeq	r0, sl, #1048576	; 0x100000
    3fa0:	01020000 	mrseq	r0, (UNDEF: 2)
    3fa4:	00020808 	andeq	r0, r2, r8, lsl #16
    3fa8:	05020200 	streq	r0, [r2, #-512]	; 0x200
    3fac:	00000216 	andeq	r0, r0, r6, lsl r2
    3fb0:	6c070202 	sfmvs	f0, 4, [r7], {2}
    3fb4:	03000001 	movweq	r0, #1
    3fb8:	6e690504 	cdpvs	5, 6, cr0, cr9, cr4, {0}
    3fbc:	04020074 	streq	r0, [r2], #-116	; 0x74
    3fc0:	00004d07 	andeq	r4, r0, r7, lsl #26
    3fc4:	05080200 	streq	r0, [r8, #-512]	; 0x200
    3fc8:	00000070 	andeq	r0, r0, r0, ror r0
    3fcc:	43070802 	movwmi	r0, #30722	; 0x7802
    3fd0:	02000000 	andeq	r0, r0, #0
    3fd4:	00750504 	rsbseq	r0, r5, r4, lsl #10
    3fd8:	04020000 	streq	r0, [r2], #-0
    3fdc:	0001a407 	andeq	sl, r1, r7, lsl #8
    3fe0:	02040400 	andeq	r0, r4, #0, 8
    3fe4:	00480704 	subeq	r0, r8, r4, lsl #14
    3fe8:	04050000 	streq	r0, [r5], #-0
    3fec:	0000007a 	andeq	r0, r0, sl, ror r0
    3ff0:	11080102 	tstne	r8, r2, lsl #2
    3ff4:	06000002 	streq	r0, [r0], -r2
    3ff8:	00000a06 	andeq	r0, r0, r6, lsl #20
    3ffc:	0048d402 	subeq	sp, r8, r2, lsl #8
    4000:	0d070000 	stceq	0, cr0, [r7, #-0]
    4004:	0300000a 	movweq	r0, #10
    4008:	00006b1b 	andeq	r6, r0, fp, lsl fp
    400c:	009a9000 	addseq	r9, sl, r0
    4010:	00002000 	andeq	r2, r0, r0
    4014:	089c0100 	ldmeq	ip, {r8}
    4018:	0100705f 	qaddeq	r7, pc, r0	; <UNPREDICTABLE>
    401c:	00006b03 	andeq	r6, r0, r3, lsl #22
    4020:	08500100 	ldmdaeq	r0, {r8}^
    4024:	03010063 	movweq	r0, #4195	; 0x1063
    4028:	00000041 	andeq	r0, r0, r1, asr #32
    402c:	6e095101 	adfvse	f5, f1, f1
    4030:	81030100 	mrshi	r0, (UNDEF: 19)
    4034:	ec000000 	stc	0, cr0, [r0], {-0}
    4038:	0a000027 	beq	40dc <_start-0x3f24>
    403c:	04010070 	streq	r0, [r1], #-112	; 0x70
    4040:	00000074 	andeq	r0, r0, r4, ror r0
    4044:	0000280d 	andeq	r2, r0, sp, lsl #16
    4048:	0100650b 	tsteq	r0, fp, lsl #10
    404c:	00007404 	andeq	r7, r0, r4, lsl #8
    4050:	00520100 	subseq	r0, r2, r0, lsl #2
	...

Disassembly of section .debug_abbrev:

00000000 <.debug_abbrev>:
       0:	25011101 	strcs	r1, [r1, #-257]	; 0x101
       4:	030b130e 	movweq	r1, #45838	; 0xb30e
       8:	110e1b0e 	tstne	lr, lr, lsl #22
       c:	10061201 	andne	r1, r6, r1, lsl #4
      10:	02000017 	andeq	r0, r0, #23
      14:	0b0b0024 	bleq	2c00ac <__bss_end__+0x2b5e94>
      18:	08030b3e 	stmdaeq	r3, {r1, r2, r3, r4, r5, r8, r9, fp}
      1c:	24030000 	strcs	r0, [r3], #-0
      20:	3e0b0b00 	vmlacc.f64	d0, d11, d0
      24:	000e030b 	andeq	r0, lr, fp, lsl #6
      28:	00160400 	andseq	r0, r6, r0, lsl #8
      2c:	0b3a0e03 	bleq	e83840 <__bss_end__+0xe79628>
      30:	13490b3b 	movtne	r0, #39739	; 0x9b3b
      34:	0f050000 	svceq	0x00050000
      38:	490b0b00 	stmdbmi	fp, {r8, r9, fp}
      3c:	06000013 			; <UNDEFINED> instruction: 0x06000013
      40:	13490026 	movtne	r0, #36902	; 0x9026
      44:	2e070000 	cdpcs	0, 0, cr0, cr7, cr0, {0}
      48:	3a0e0301 	bcc	380c54 <__bss_end__+0x376a3c>
      4c:	270b3b0b 	strcs	r3, [fp, -fp, lsl #22]
      50:	010b2019 	tsteq	fp, r9, lsl r0
      54:	08000013 	stmdaeq	r0, {r0, r1, r4}
      58:	08030005 	stmdaeq	r3, {r0, r2}
      5c:	0b3b0b3a 	bleq	ec2d4c <__bss_end__+0xeb8b34>
      60:	00001349 	andeq	r1, r0, r9, asr #6
      64:	03003409 	movweq	r3, #1033	; 0x409
      68:	3b0b3a0e 	blcc	2ce8a8 <__bss_end__+0x2c4690>
      6c:	0013490b 	andseq	r4, r3, fp, lsl #18
      70:	012e0a00 	teqeq	lr, r0, lsl #20
      74:	0e03193f 	mcreq	9, 0, r1, cr3, cr15, {1}
      78:	0b3b0b3a 	bleq	ec2d68 <__bss_end__+0xeb8b50>
      7c:	13491927 	movtne	r1, #39207	; 0x9927
      80:	06120111 			; <UNDEFINED> instruction: 0x06120111
      84:	42971840 	addsmi	r1, r7, #64, 16	; 0x400000
      88:	00130119 	andseq	r0, r3, r9, lsl r1
      8c:	00050b00 	andeq	r0, r5, r0, lsl #22
      90:	0b3a0803 	bleq	e820a4 <__bss_end__+0xe77e8c>
      94:	13490b3b 	movtne	r0, #39739	; 0x9b3b
      98:	00001702 	andeq	r1, r0, r2, lsl #14
      9c:	0300340c 	movweq	r3, #1036	; 0x40c
      a0:	3413490e 	ldrcc	r4, [r3], #-2318	; 0x90e
      a4:	00180219 	andseq	r0, r8, r9, lsl r2
      a8:	00340d00 	eorseq	r0, r4, r0, lsl #26
      ac:	0b3a0e03 	bleq	e838c0 <__bss_end__+0xe796a8>
      b0:	13490b3b 	movtne	r0, #39739	; 0x9b3b
      b4:	00001702 	andeq	r1, r0, r2, lsl #14
      b8:	11010b0e 	tstne	r1, lr, lsl #22
      bc:	01061201 	tsteq	r6, r1, lsl #4
      c0:	0f000013 	svceq	0x00000013
      c4:	01018289 	smlabbeq	r1, r9, r2, r8
      c8:	13310111 	teqne	r1, #1073741828	; 0x40000004
      cc:	00001301 	andeq	r1, r0, r1, lsl #6
      d0:	01828a10 	orreq	r8, r2, r0, lsl sl
      d4:	91180200 	tstls	r8, r0, lsl #4
      d8:	00001842 	andeq	r1, r0, r2, asr #16
      dc:	01828911 	orreq	r8, r2, r1, lsl r9
      e0:	31011100 	mrscc	r1, (UNDEF: 17)
      e4:	12000013 	andne	r0, r0, #19
      e8:	13490101 	movtne	r0, #37121	; 0x9101
      ec:	00001301 	andeq	r1, r0, r1, lsl #6
      f0:	49002113 	stmdbmi	r0, {r0, r1, r4, r8, sp}
      f4:	000b2f13 	andeq	r2, fp, r3, lsl pc
      f8:	00341400 	eorseq	r1, r4, r0, lsl #8
      fc:	0b3a0803 	bleq	e82110 <__bss_end__+0xe77ef8>
     100:	13490b3b 	movtne	r0, #39739	; 0x9b3b
     104:	00000b1c 	andeq	r0, r0, ip, lsl fp
     108:	03003415 	movweq	r3, #1045	; 0x415
     10c:	3b0b3a0e 	blcc	2ce94c <__bss_end__+0x2c4734>
     110:	0213490b 	andseq	r4, r3, #180224	; 0x2c000
     114:	16000018 			; <UNDEFINED> instruction: 0x16000018
     118:	0111010b 	tsteq	r1, fp, lsl #2
     11c:	00000612 	andeq	r0, r0, r2, lsl r6
     120:	3f012e17 	svccc	0x00012e17
     124:	3a0e0319 	bcc	380d90 <__bss_end__+0x376b78>
     128:	270b3b0b 	strcs	r3, [fp, -fp, lsl #22]
     12c:	12011119 	andne	r1, r1, #1073741830	; 0x40000006
     130:	97184006 	ldrls	r4, [r8, -r6]
     134:	13011942 	movwne	r1, #6466	; 0x1942
     138:	05180000 	ldreq	r0, [r8, #-0]
     13c:	3a0e0300 	bcc	380d44 <__bss_end__+0x376b2c>
     140:	490b3b0b 	stmdbmi	fp, {r0, r1, r3, r8, r9, fp, ip, sp}
     144:	00170213 	andseq	r0, r7, r3, lsl r2
     148:	00341900 	eorseq	r1, r4, r0, lsl #18
     14c:	0b3a0803 	bleq	e82160 <__bss_end__+0xe77f48>
     150:	13490b3b 	movtne	r0, #39739	; 0x9b3b
     154:	1d1a0000 	ldcne	0, cr0, [sl, #-0]
     158:	11133101 	tstne	r3, r1, lsl #2
     15c:	58061201 	stmdapl	r6, {r0, r9, ip}
     160:	010b590b 	tsteq	fp, fp, lsl #18
     164:	1b000013 	blne	1b8 <_start-0x7e48>
     168:	13310005 	teqne	r1, #5
     16c:	00000b1c 	andeq	r0, r0, ip, lsl fp
     170:	3100051c 	tstcc	r0, ip, lsl r5
     174:	00170213 	andseq	r0, r7, r3, lsl r2
     178:	011d1d00 	tsteq	sp, r0, lsl #26
     17c:	01111331 	tsteq	r1, r1, lsr r3
     180:	0b580612 	bleq	16019d0 <__bss_end__+0x15f77b8>
     184:	00000b59 	andeq	r0, r0, r9, asr fp
     188:	3100051e 	tstcc	r0, lr, lsl r5
     18c:	00180213 	andseq	r0, r8, r3, lsl r2
     190:	010b1f00 	tsteq	fp, r0, lsl #30
     194:	13011755 	movwne	r1, #5973	; 0x1755
     198:	1d200000 	stcne	0, cr0, [r0, #-0]
     19c:	52133101 	andspl	r3, r3, #1073741824	; 0x40000000
     1a0:	58175501 	ldmdapl	r7, {r0, r8, sl, ip, lr}
     1a4:	000b590b 	andeq	r5, fp, fp, lsl #18
     1a8:	011d2100 	tsteq	sp, r0, lsl #2
     1ac:	01521331 	cmpeq	r2, r1, lsr r3
     1b0:	0b581755 	bleq	1605f0c <__bss_end__+0x15fbcf4>
     1b4:	13010b59 	movwne	r0, #7001	; 0x1b59
     1b8:	34220000 	strtcc	r0, [r2], #-0
     1bc:	02133100 	andseq	r3, r3, #0, 2
     1c0:	23000017 	movwcs	r0, #23
     1c4:	01018289 	smlabbeq	r1, r9, r2, r8
     1c8:	13310111 	teqne	r1, #1073741828	; 0x40000004
     1cc:	34240000 	strtcc	r0, [r4], #-0
     1d0:	3a0e0300 	bcc	380dd8 <__bss_end__+0x376bc0>
     1d4:	490b3b0b 	stmdbmi	fp, {r0, r1, r3, r8, r9, fp, ip, sp}
     1d8:	00061c13 	andeq	r1, r6, r3, lsl ip
     1dc:	00352500 	eorseq	r2, r5, r0, lsl #10
     1e0:	00001349 	andeq	r1, r0, r9, asr #6
     1e4:	3f012e26 	svccc	0x00012e26
     1e8:	3a0e0319 	bcc	380e54 <__bss_end__+0x376c3c>
     1ec:	270b3b0b 	strcs	r3, [fp, -fp, lsl #22]
     1f0:	01193c19 	tsteq	r9, r9, lsl ip
     1f4:	27000013 	smladcs	r0, r3, r0, r0
     1f8:	13490005 	movtne	r0, #36869	; 0x9005
     1fc:	2e280000 	cdpcs	0, 2, cr0, cr8, cr0, {0}
     200:	03193f00 	tsteq	r9, #0, 30
     204:	3b0b3a0e 	blcc	2cea44 <__bss_end__+0x2c482c>
     208:	3c19270b 	ldccc	7, cr2, [r9], {11}
     20c:	29000019 	stmdbcs	r0, {r0, r3, r4}
     210:	193f012e 	ldmdbne	pc!, {r1, r2, r3, r5, r8}	; <UNPREDICTABLE>
     214:	0b3a0e03 	bleq	e83a28 <__bss_end__+0xe79810>
     218:	19270b3b 	stmdbne	r7!, {r0, r1, r3, r4, r5, r8, r9, fp}
     21c:	193c1349 	ldmdbne	ip!, {r0, r3, r6, r8, r9, ip}
     220:	00001301 	andeq	r1, r0, r1, lsl #6
     224:	0000182a 	andeq	r1, r0, sl, lsr #16
     228:	11010000 	mrsne	r0, (UNDEF: 1)
     22c:	130e2501 	movwne	r2, #58625	; 0xe501
     230:	1b0e030b 	blne	380e64 <__bss_end__+0x376c4c>
     234:	1201110e 	andne	r1, r1, #-2147483645	; 0x80000003
     238:	00171006 	andseq	r1, r7, r6
     23c:	00160200 	andseq	r0, r6, r0, lsl #4
     240:	0b3a0e03 	bleq	e83a54 <__bss_end__+0xe7983c>
     244:	13490b3b 	movtne	r0, #39739	; 0x9b3b
     248:	13030000 	movwne	r0, #12288	; 0x3000
     24c:	0b0e0301 	bleq	380e58 <__bss_end__+0x376c40>
     250:	3b0b3a0b 	blcc	2cea84 <__bss_end__+0x2c486c>
     254:	0013010b 	andseq	r0, r3, fp, lsl #2
     258:	000d0400 	andeq	r0, sp, r0, lsl #8
     25c:	13490e03 	movtne	r0, #40451	; 0x9e03
     260:	19340b38 	ldmdbne	r4!, {r3, r4, r5, r8, r9, fp}
     264:	0f050000 	svceq	0x00050000
     268:	000b0b00 	andeq	r0, fp, r0, lsl #22
     26c:	00240600 	eoreq	r0, r4, r0, lsl #12
     270:	0b3e0b0b 	bleq	f82ea4 <__bss_end__+0xf78c8c>
     274:	00000803 	andeq	r0, r0, r3, lsl #16
     278:	0b002407 	bleq	929c <sw_uart_putc+0x7c>
     27c:	030b3e0b 	movweq	r3, #48651	; 0xbe0b
     280:	0800000e 	stmdaeq	r0, {r1, r2, r3}
     284:	0b0b000f 	bleq	2c02c8 <__bss_end__+0x2b60b0>
     288:	00001349 	andeq	r1, r0, r9, asr #6
     28c:	49002609 	stmdbmi	r0, {r0, r3, r9, sl, sp}
     290:	0a000013 	beq	2e4 <_start-0x7d1c>
     294:	193f012e 	ldmdbne	pc!, {r1, r2, r3, r5, r8}	; <UNPREDICTABLE>
     298:	0b3a0e03 	bleq	e83aac <__bss_end__+0xe79894>
     29c:	19270b3b 	stmdbne	r7!, {r0, r1, r3, r4, r5, r8, r9, fp}
     2a0:	01111349 	tsteq	r1, r9, asr #6
     2a4:	18400612 	stmdane	r0, {r1, r4, r9, sl}^
     2a8:	01194297 			; <UNDEFINED> instruction: 0x01194297
     2ac:	0b000013 	bleq	300 <_start-0x7d00>
     2b0:	08030005 	stmdaeq	r3, {r0, r2}
     2b4:	0b3b0b3a 	bleq	ec2fa4 <__bss_end__+0xeb8d8c>
     2b8:	18021349 	stmdane	r2, {r0, r3, r6, r8, r9, ip}
     2bc:	180c0000 	stmdane	ip, {}	; <UNPREDICTABLE>
     2c0:	0d000000 	stceq	0, cr0, [r0, #-0]
     2c4:	08030034 	stmdaeq	r3, {r2, r4, r5}
     2c8:	0b3b0b3a 	bleq	ec2fb8 <__bss_end__+0xeb8da0>
     2cc:	18021349 	stmdane	r2, {r0, r3, r6, r8, r9, ip}
     2d0:	340e0000 	strcc	r0, [lr], #-0
     2d4:	3a0e0300 	bcc	380edc <__bss_end__+0x376cc4>
     2d8:	490b3b0b 	stmdbmi	fp, {r0, r1, r3, r8, r9, fp, ip, sp}
     2dc:	00180213 	andseq	r0, r8, r3, lsl r2
     2e0:	00340f00 	eorseq	r0, r4, r0, lsl #30
     2e4:	0b3a0803 	bleq	e822f8 <__bss_end__+0xe780e0>
     2e8:	13490b3b 	movtne	r0, #39739	; 0x9b3b
     2ec:	00001702 	andeq	r1, r0, r2, lsl #14
     2f0:	01828910 	orreq	r8, r2, r0, lsl r9
     2f4:	31011101 	tstcc	r1, r1, lsl #2
     2f8:	00130113 	andseq	r0, r3, r3, lsl r1
     2fc:	828a1100 	addhi	r1, sl, #0, 2
     300:	18020001 	stmdane	r2, {r0}
     304:	00184291 	mulseq	r8, r1, r2
     308:	82891200 	addhi	r1, r9, #0, 4
     30c:	01110101 	tsteq	r1, r1, lsl #2
     310:	01130000 	tsteq	r3, r0
     314:	01134901 	tsteq	r3, r1, lsl #18
     318:	14000013 	strne	r0, [r0], #-19
     31c:	13490021 	movtne	r0, #36897	; 0x9021
     320:	0000052f 	andeq	r0, r0, pc, lsr #10
     324:	27011515 	smladcs	r1, r5, r5, r1
     328:	01134919 	tsteq	r3, r9, lsl r9
     32c:	16000013 			; <UNDEFINED> instruction: 0x16000013
     330:	13490005 	movtne	r0, #36869	; 0x9005
     334:	34170000 	ldrcc	r0, [r7], #-0
     338:	3a0e0300 	bcc	380f40 <__bss_end__+0x376d28>
     33c:	490b3b0b 	stmdbmi	fp, {r0, r1, r3, r8, r9, fp, ip, sp}
     340:	3c193f13 	ldccc	15, cr3, [r9], {19}
     344:	18000019 	stmdane	r0, {r0, r3, r4}
     348:	193f012e 	ldmdbne	pc!, {r1, r2, r3, r5, r8}	; <UNPREDICTABLE>
     34c:	0b3a0e03 	bleq	e83b60 <__bss_end__+0xe79948>
     350:	19270b3b 	stmdbne	r7!, {r0, r1, r3, r4, r5, r8, r9, fp}
     354:	193c1349 	ldmdbne	ip!, {r0, r3, r6, r8, r9, ip}
     358:	01000000 	mrseq	r0, (UNDEF: 0)
     35c:	0e250111 	mcreq	1, 1, r0, cr5, cr1, {0}
     360:	0e030b13 	vmoveq.32	d3[0], r0
     364:	01110e1b 	tsteq	r1, fp, lsl lr
     368:	17100612 			; <UNDEFINED> instruction: 0x17100612
     36c:	24020000 	strcs	r0, [r2], #-0
     370:	3e0b0b00 	vmlacc.f64	d0, d11, d0
     374:	0008030b 	andeq	r0, r8, fp, lsl #6
     378:	00240300 	eoreq	r0, r4, r0, lsl #6
     37c:	0b3e0b0b 	bleq	f82fb0 <__bss_end__+0xf78d98>
     380:	00000e03 	andeq	r0, r0, r3, lsl #28
     384:	03012e04 	movweq	r2, #7684	; 0x1e04
     388:	3b0b3a0e 	blcc	2cebc8 <__bss_end__+0x2c49b0>
     38c:	4919270b 	ldmdbmi	r9, {r0, r1, r3, r8, r9, sl, sp}
     390:	12011113 	andne	r1, r1, #-1073741820	; 0xc0000004
     394:	97184006 	ldrls	r4, [r8, -r6]
     398:	13011942 	movwne	r1, #6466	; 0x1942
     39c:	05050000 	streq	r0, [r5, #-0]
     3a0:	3a080300 	bcc	200fa8 <__bss_end__+0x1f6d90>
     3a4:	490b3b0b 	stmdbmi	fp, {r0, r1, r3, r8, r9, fp, ip, sp}
     3a8:	00170213 	andseq	r0, r7, r3, lsl r2
     3ac:	82890600 	addhi	r0, r9, #0, 12
     3b0:	01110101 	tsteq	r1, r1, lsl #2
     3b4:	00001331 	andeq	r1, r0, r1, lsr r3
     3b8:	01828a07 	orreq	r8, r2, r7, lsl #20
     3bc:	91180200 	tstls	r8, r0, lsl #4
     3c0:	00001842 	andeq	r1, r0, r2, asr #16
     3c4:	3f002e08 	svccc	0x00002e08
     3c8:	3a0e0319 	bcc	381034 <__bss_end__+0x376e1c>
     3cc:	270b3b0b 	strcs	r3, [fp, -fp, lsl #22]
     3d0:	12011119 	andne	r1, r1, #1073741830	; 0x40000006
     3d4:	97184006 	ldrls	r4, [r8, -r6]
     3d8:	00001942 	andeq	r1, r0, r2, asr #18
     3dc:	3f012e09 	svccc	0x00012e09
     3e0:	3a0e0319 	bcc	38104c <__bss_end__+0x376e34>
     3e4:	270b3b0b 	strcs	r3, [fp, -fp, lsl #22]
     3e8:	12011119 	andne	r1, r1, #1073741830	; 0x40000006
     3ec:	97184006 	ldrls	r4, [r8, -r6]
     3f0:	13011942 	movwne	r1, #6466	; 0x1942
     3f4:	050a0000 	streq	r0, [sl, #-0]
     3f8:	3a080300 	bcc	201000 <__bss_end__+0x1f6de8>
     3fc:	490b3b0b 	stmdbmi	fp, {r0, r1, r3, r8, r9, fp, ip, sp}
     400:	00180213 	andseq	r0, r8, r3, lsl r2
     404:	01150b00 	tsteq	r5, r0, lsl #22
     408:	13491927 	movtne	r1, #39207	; 0x9927
     40c:	00001301 	andeq	r1, r0, r1, lsl #6
     410:	4900050c 	stmdbmi	r0, {r2, r3, r8, sl}
     414:	0d000013 	stceq	0, cr0, [r0, #-76]	; 0xffffffb4
     418:	0b0b000f 	bleq	2c045c <__bss_end__+0x2b6244>
     41c:	00001349 	andeq	r1, r0, r9, asr #6
     420:	0300340e 	movweq	r3, #1038	; 0x40e
     424:	3b0b3a0e 	blcc	2cec64 <__bss_end__+0x2c4a4c>
     428:	3f13490b 	svccc	0x0013490b
     42c:	00180219 	andseq	r0, r8, r9, lsl r2
     430:	012e0f00 	teqeq	lr, r0, lsl #30
     434:	0e03193f 	mcreq	9, 0, r1, cr3, cr15, {1}
     438:	0b3b0b3a 	bleq	ec3128 <__bss_end__+0xeb8f10>
     43c:	193c1927 	ldmdbne	ip!, {r0, r1, r2, r5, r8, fp, ip}
     440:	01000000 	mrseq	r0, (UNDEF: 0)
     444:	0e250111 	mcreq	1, 1, r0, cr5, cr1, {0}
     448:	0e030b13 	vmoveq.32	d3[0], r0
     44c:	01110e1b 	tsteq	r1, fp, lsl lr
     450:	17100612 			; <UNDEFINED> instruction: 0x17100612
     454:	24020000 	strcs	r0, [r2], #-0
     458:	3e0b0b00 	vmlacc.f64	d0, d11, d0
     45c:	0008030b 	andeq	r0, r8, fp, lsl #6
     460:	00240300 	eoreq	r0, r4, r0, lsl #6
     464:	0b3e0b0b 	bleq	f83098 <__bss_end__+0xf78e80>
     468:	00000e03 	andeq	r0, r0, r3, lsl #28
     46c:	0b000f04 	bleq	4084 <_start-0x3f7c>
     470:	0013490b 	andseq	r4, r3, fp, lsl #18
     474:	00260500 	eoreq	r0, r6, r0, lsl #10
     478:	00001349 	andeq	r1, r0, r9, asr #6
     47c:	3f012e06 	svccc	0x00012e06
     480:	3a0e0319 	bcc	3810ec <__bss_end__+0x376ed4>
     484:	270b3b0b 	strcs	r3, [fp, -fp, lsl #22]
     488:	11134919 	tstne	r3, r9, lsl r9
     48c:	40061201 	andmi	r1, r6, r1, lsl #4
     490:	19429618 	stmdbne	r2, {r3, r4, r9, sl, ip, pc}^
     494:	00001301 	andeq	r1, r0, r1, lsl #6
     498:	03000507 	movweq	r0, #1287	; 0x507
     49c:	3b0b3a08 	blcc	2cecc4 <__bss_end__+0x2c4aac>
     4a0:	0213490b 	andseq	r4, r3, #180224	; 0x2c000
     4a4:	08000017 	stmdaeq	r0, {r0, r1, r2, r4}
     4a8:	19270115 	stmdbne	r7!, {r0, r2, r4, r8}
     4ac:	13011349 	movwne	r1, #4937	; 0x1349
     4b0:	05090000 	streq	r0, [r9, #-0]
     4b4:	00134900 	andseq	r4, r3, r0, lsl #18
     4b8:	00340a00 	eorseq	r0, r4, r0, lsl #20
     4bc:	0b3a0e03 	bleq	e83cd0 <__bss_end__+0xe79ab8>
     4c0:	13490b3b 	movtne	r0, #39739	; 0x9b3b
     4c4:	193c193f 	ldmdbne	ip!, {r0, r1, r2, r3, r4, r5, r8, fp, ip}
     4c8:	340b0000 	strcc	r0, [fp], #-0
     4cc:	3a0e0300 	bcc	3810d4 <__bss_end__+0x376ebc>
     4d0:	490b3b0b 	stmdbmi	fp, {r0, r1, r3, r8, r9, fp, ip, sp}
     4d4:	02193f13 	andseq	r3, r9, #19, 30	; 0x4c
     4d8:	00000018 	andeq	r0, r0, r8, lsl r0
     4dc:	25011101 	strcs	r1, [r1, #-257]	; 0x101
     4e0:	030b130e 	movweq	r1, #45838	; 0xb30e
     4e4:	110e1b0e 	tstne	lr, lr, lsl #22
     4e8:	10061201 	andne	r1, r6, r1, lsl #4
     4ec:	02000017 	andeq	r0, r0, #23
     4f0:	0b0b0024 	bleq	2c0588 <__bss_end__+0x2b6370>
     4f4:	08030b3e 	stmdaeq	r3, {r1, r2, r3, r4, r5, r8, r9, fp}
     4f8:	24030000 	strcs	r0, [r3], #-0
     4fc:	3e0b0b00 	vmlacc.f64	d0, d11, d0
     500:	000e030b 	andeq	r0, lr, fp, lsl #6
     504:	000f0400 	andeq	r0, pc, r0, lsl #8
     508:	00000b0b 	andeq	r0, r0, fp, lsl #22
     50c:	0b000f05 	bleq	4128 <_start-0x3ed8>
     510:	0013490b 	andseq	r4, r3, fp, lsl #18
     514:	00260600 	eoreq	r0, r6, r0, lsl #12
     518:	00001349 	andeq	r1, r0, r9, asr #6
     51c:	03001607 	movweq	r1, #1543	; 0x607
     520:	3b0b3a0e 	blcc	2ced60 <__bss_end__+0x2c4b48>
     524:	0013490b 	andseq	r4, r3, fp, lsl #18
     528:	01130800 	tsteq	r3, r0, lsl #16
     52c:	0b0b0e03 	bleq	2c3d40 <__bss_end__+0x2b9b28>
     530:	0b3b0b3a 	bleq	ec3220 <__bss_end__+0xeb9008>
     534:	00001301 	andeq	r1, r0, r1, lsl #6
     538:	03000d09 	movweq	r0, #3337	; 0xd09
     53c:	3813490e 	ldmdacc	r3, {r1, r2, r3, r8, fp, lr}
     540:	0019340b 	andseq	r3, r9, fp, lsl #8
     544:	012e0a00 	teqeq	lr, r0, lsl #20
     548:	0b3a0e03 	bleq	e83d5c <__bss_end__+0xe79b44>
     54c:	19270b3b 	stmdbne	r7!, {r0, r1, r3, r4, r5, r8, r9, fp}
     550:	01111349 	tsteq	r1, r9, asr #6
     554:	18400612 	stmdane	r0, {r1, r4, r9, sl}^
     558:	01194297 			; <UNDEFINED> instruction: 0x01194297
     55c:	0b000013 	bleq	5b0 <_start-0x7a50>
     560:	08030005 	stmdaeq	r3, {r0, r2}
     564:	0b3b0b3a 	bleq	ec3254 <__bss_end__+0xeb903c>
     568:	17021349 	strne	r1, [r2, -r9, asr #6]
     56c:	2e0c0000 	cdpcs	0, 0, cr0, cr12, cr0, {0}
     570:	3a080301 	bcc	20117c <__bss_end__+0x1f6f64>
     574:	270b3b0b 	strcs	r3, [fp, -fp, lsl #22]
     578:	11134919 	tstne	r3, r9, lsl r9
     57c:	40061201 	andmi	r1, r6, r1, lsl #4
     580:	19429718 	stmdbne	r2, {r3, r4, r8, r9, sl, ip, pc}^
     584:	00001301 	andeq	r1, r0, r1, lsl #6
     588:	0300050d 	movweq	r0, #1293	; 0x50d
     58c:	3b0b3a0e 	blcc	2cedcc <__bss_end__+0x2c4bb4>
     590:	0213490b 	andseq	r4, r3, #180224	; 0x2c000
     594:	0e000017 	mcreq	0, 0, r0, cr0, cr7, {0}
     598:	0e030005 	cdpeq	0, 0, cr0, cr3, cr5, {0}
     59c:	0b3b0b3a 	bleq	ec328c <__bss_end__+0xeb9074>
     5a0:	18021349 	stmdane	r2, {r0, r3, r6, r8, r9, ip}
     5a4:	340f0000 	strcc	r0, [pc], #-0	; 5ac <_start-0x7a54>
     5a8:	3a080300 	bcc	2011b0 <__bss_end__+0x1f6f98>
     5ac:	490b3b0b 	stmdbmi	fp, {r0, r1, r3, r8, r9, fp, ip, sp}
     5b0:	00180213 	andseq	r0, r8, r3, lsl r2
     5b4:	00341000 	eorseq	r1, r4, r0
     5b8:	0b3a0803 	bleq	e825cc <__bss_end__+0xe783b4>
     5bc:	13490b3b 	movtne	r0, #39739	; 0x9b3b
     5c0:	00001702 	andeq	r1, r0, r2, lsl #14
     5c4:	03003411 	movweq	r3, #1041	; 0x411
     5c8:	3413490e 	ldrcc	r4, [r3], #-2318	; 0x90e
     5cc:	00180219 	andseq	r0, r8, r9, lsl r2
     5d0:	010b1200 	mrseq	r1, R11_fiq
     5d4:	06120111 			; <UNDEFINED> instruction: 0x06120111
     5d8:	00001301 	andeq	r1, r0, r1, lsl #6
     5dc:	03003413 	movweq	r3, #1043	; 0x413
     5e0:	3b0b3a0e 	blcc	2cee20 <__bss_end__+0x2c4c08>
     5e4:	0213490b 	andseq	r4, r3, #180224	; 0x2c000
     5e8:	14000017 	strne	r0, [r0], #-23
     5ec:	00018289 	andeq	r8, r1, r9, lsl #5
     5f0:	13310111 	teqne	r1, #1073741828	; 0x40000004
     5f4:	89150000 	ldmdbhi	r5, {}	; <UNPREDICTABLE>
     5f8:	11010182 	smlabbne	r1, r2, r1, r0
     5fc:	01133101 	tsteq	r3, r1, lsl #2
     600:	16000013 			; <UNDEFINED> instruction: 0x16000013
     604:	0001828a 	andeq	r8, r1, sl, lsl #5
     608:	42911802 	addsmi	r1, r1, #131072	; 0x20000
     60c:	17000018 	smladne	r0, r8, r0, r0
     610:	01018289 	smlabbeq	r1, r9, r2, r8
     614:	13310111 	teqne	r1, #1073741828	; 0x40000004
     618:	01180000 	tsteq	r8, r0
     61c:	01134901 	tsteq	r3, r1, lsl #18
     620:	19000013 	stmdbne	r0, {r0, r1, r4}
     624:	13490021 	movtne	r0, #36897	; 0x9021
     628:	00000b2f 	andeq	r0, r0, pc, lsr #22
     62c:	3f012e1a 	svccc	0x00012e1a
     630:	3a0e0319 	bcc	38129c <__bss_end__+0x377084>
     634:	270b3b0b 	strcs	r3, [fp, -fp, lsl #22]
     638:	12011119 	andne	r1, r1, #1073741830	; 0x40000006
     63c:	97184006 	ldrls	r4, [r8, -r6]
     640:	13011942 	movwne	r1, #6466	; 0x1942
     644:	151b0000 	ldrne	r0, [fp, #-0]
     648:	49192701 	ldmdbmi	r9, {r0, r8, r9, sl, sp}
     64c:	00130113 	andseq	r0, r3, r3, lsl r1
     650:	00051c00 	andeq	r1, r5, r0, lsl #24
     654:	00001349 	andeq	r1, r0, r9, asr #6
     658:	3f012e1d 	svccc	0x00012e1d
     65c:	3a0e0319 	bcc	3812c8 <__bss_end__+0x3770b0>
     660:	270b3b0b 	strcs	r3, [fp, -fp, lsl #22]
     664:	11134919 	tstne	r3, r9, lsl r9
     668:	40061201 	andmi	r1, r6, r1, lsl #4
     66c:	19429718 	stmdbne	r2, {r3, r4, r8, r9, sl, ip, pc}^
     670:	00001301 	andeq	r1, r0, r1, lsl #6
     674:	55010b1e 	strpl	r0, [r1, #-2846]	; 0xb1e
     678:	1f000017 	svcne	0x00000017
     67c:	0e030034 	mcreq	0, 0, r0, cr3, cr4, {1}
     680:	0b3b0b3a 	bleq	ec3370 <__bss_end__+0xeb9158>
     684:	193f1349 	ldmdbne	pc!, {r0, r3, r6, r8, r9, ip}	; <UNPREDICTABLE>
     688:	0000193c 	andeq	r1, r0, ip, lsr r9
     68c:	3f002e20 	svccc	0x00002e20
     690:	3a0e0319 	bcc	3812fc <__bss_end__+0x3770e4>
     694:	270b3b0b 	strcs	r3, [fp, -fp, lsl #22]
     698:	00193c19 	andseq	r3, r9, r9, lsl ip
     69c:	012e2100 	teqeq	lr, r0, lsl #2
     6a0:	0e03193f 	mcreq	9, 0, r1, cr3, cr15, {1}
     6a4:	0b3b0b3a 	bleq	ec3394 <__bss_end__+0xeb917c>
     6a8:	13491927 	movtne	r1, #39207	; 0x9927
     6ac:	1301193c 	movwne	r1, #6460	; 0x193c
     6b0:	18220000 	stmdane	r2!, {}	; <UNPREDICTABLE>
     6b4:	00000000 	andeq	r0, r0, r0
     6b8:	25011101 	strcs	r1, [r1, #-257]	; 0x101
     6bc:	030b130e 	movweq	r1, #45838	; 0xb30e
     6c0:	110e1b0e 	tstne	lr, lr, lsl #22
     6c4:	10061201 	andne	r1, r6, r1, lsl #4
     6c8:	02000017 	andeq	r0, r0, #23
     6cc:	0b0b0024 	bleq	2c0764 <__bss_end__+0x2b654c>
     6d0:	08030b3e 	stmdaeq	r3, {r1, r2, r3, r4, r5, r8, r9, fp}
     6d4:	24030000 	strcs	r0, [r3], #-0
     6d8:	3e0b0b00 	vmlacc.f64	d0, d11, d0
     6dc:	000e030b 	andeq	r0, lr, fp, lsl #6
     6e0:	012e0400 	teqeq	lr, r0, lsl #8
     6e4:	0e03193f 	mcreq	9, 0, r1, cr3, cr15, {1}
     6e8:	0b3b0b3a 	bleq	ec33d8 <__bss_end__+0xeb91c0>
     6ec:	01111927 	tsteq	r1, r7, lsr #18
     6f0:	18400612 	stmdane	r0, {r1, r4, r9, sl}^
     6f4:	01194297 			; <UNDEFINED> instruction: 0x01194297
     6f8:	05000013 	streq	r0, [r0, #-19]
     6fc:	08030034 	stmdaeq	r3, {r2, r4, r5}
     700:	0b3b0b3a 	bleq	ec33f0 <__bss_end__+0xeb91d8>
     704:	17021349 	strne	r1, [r2, -r9, asr #6]
     708:	2e060000 	cdpcs	0, 0, cr0, cr6, cr0, {0}
     70c:	03193f01 	tsteq	r9, #1, 30
     710:	3b0b3a0e 	blcc	2cef50 <__bss_end__+0x2c4d38>
     714:	1119270b 	tstne	r9, fp, lsl #14
     718:	40061201 	andmi	r1, r6, r1, lsl #4
     71c:	19429718 	stmdbne	r2, {r3, r4, r8, r9, sl, ip, pc}^
     720:	01000000 	mrseq	r0, (UNDEF: 0)
     724:	0e250111 	mcreq	1, 1, r0, cr5, cr1, {0}
     728:	0e030b13 	vmoveq.32	d3[0], r0
     72c:	01110e1b 	tsteq	r1, fp, lsl lr
     730:	17100612 			; <UNDEFINED> instruction: 0x17100612
     734:	24020000 	strcs	r0, [r2], #-0
     738:	3e0b0b00 	vmlacc.f64	d0, d11, d0
     73c:	0008030b 	andeq	r0, r8, fp, lsl #6
     740:	00240300 	eoreq	r0, r4, r0, lsl #6
     744:	0b3e0b0b 	bleq	f83378 <__bss_end__+0xf79160>
     748:	00000e03 	andeq	r0, r0, r3, lsl #28
     74c:	0b000f04 	bleq	4364 <_start-0x3c9c>
     750:	0013490b 	andseq	r4, r3, fp, lsl #18
     754:	00260500 	eoreq	r0, r6, r0, lsl #10
     758:	00001349 	andeq	r1, r0, r9, asr #6
     75c:	3f012e06 	svccc	0x00012e06
     760:	3a0e0319 	bcc	3813cc <__bss_end__+0x3771b4>
     764:	270b3b0b 	strcs	r3, [fp, -fp, lsl #22]
     768:	12011119 	andne	r1, r1, #1073741830	; 0x40000006
     76c:	97184006 	ldrls	r4, [r8, -r6]
     770:	13011942 	movwne	r1, #6466	; 0x1942
     774:	89070000 	stmdbhi	r7, {}	; <UNPREDICTABLE>
     778:	11010182 	smlabbne	r1, r2, r1, r0
     77c:	00130101 	andseq	r0, r3, r1, lsl #2
     780:	828a0800 	addhi	r0, sl, #0, 16
     784:	18020001 	stmdane	r2, {r0}
     788:	00184291 	mulseq	r8, r1, r2
     78c:	82890900 	addhi	r0, r9, #0, 18
     790:	01110101 	tsteq	r1, r1, lsl #2
     794:	13011331 	movwne	r1, #4913	; 0x1331
     798:	890a0000 	stmdbhi	sl, {}	; <UNPREDICTABLE>
     79c:	11000182 	smlabbne	r0, r2, r1, r0
     7a0:	00133101 	andseq	r3, r3, r1, lsl #2
     7a4:	01150b00 	tsteq	r5, r0, lsl #22
     7a8:	13491927 	movtne	r1, #39207	; 0x9927
     7ac:	00001301 	andeq	r1, r0, r1, lsl #6
     7b0:	4900050c 	stmdbmi	r0, {r2, r3, r8, sl}
     7b4:	0d000013 	stceq	0, cr0, [r0, #-76]	; 0xffffffb4
     7b8:	0e030034 	mcreq	0, 0, r0, cr3, cr4, {1}
     7bc:	0b3b0b3a 	bleq	ec34ac <__bss_end__+0xeb9294>
     7c0:	193f1349 	ldmdbne	pc!, {r0, r3, r6, r8, r9, ip}	; <UNPREDICTABLE>
     7c4:	0000193c 	andeq	r1, r0, ip, lsr r9
     7c8:	3f012e0e 	svccc	0x00012e0e
     7cc:	3a0e0319 	bcc	381438 <__bss_end__+0x377220>
     7d0:	270b3b0b 	strcs	r3, [fp, -fp, lsl #22]
     7d4:	01193c19 	tsteq	r9, r9, lsl ip
     7d8:	0f000013 	svceq	0x00000013
     7dc:	193f002e 	ldmdbne	pc!, {r1, r2, r3, r5}	; <UNPREDICTABLE>
     7e0:	0b3a0e03 	bleq	e83ff4 <__bss_end__+0xe79ddc>
     7e4:	19270b3b 	stmdbne	r7!, {r0, r1, r3, r4, r5, r8, r9, fp}
     7e8:	0000193c 	andeq	r1, r0, ip, lsr r9
     7ec:	01110100 	tsteq	r1, r0, lsl #2
     7f0:	0b130e25 	bleq	4c408c <__bss_end__+0x4b9e74>
     7f4:	0e1b0e03 	cdpeq	14, 1, cr0, cr11, cr3, {0}
     7f8:	06120111 			; <UNDEFINED> instruction: 0x06120111
     7fc:	00001710 	andeq	r1, r0, r0, lsl r7
     800:	0b002402 	bleq	9810 <sw_uart_printk+0x64>
     804:	030b3e0b 	movweq	r3, #48651	; 0xbe0b
     808:	03000008 	movweq	r0, #8
     80c:	0b0b0024 	bleq	2c08a4 <__bss_end__+0x2b668c>
     810:	0e030b3e 	vmoveq.16	d3[0], r0
     814:	16040000 	strne	r0, [r4], -r0
     818:	3a0e0300 	bcc	381420 <__bss_end__+0x377208>
     81c:	490b3b0b 	stmdbmi	fp, {r0, r1, r3, r8, r9, fp, ip, sp}
     820:	05000013 	streq	r0, [r0, #-19]
     824:	0b0b000f 	bleq	2c0868 <__bss_end__+0x2b6650>
     828:	00001349 	andeq	r1, r0, r9, asr #6
     82c:	49002606 	stmdbmi	r0, {r1, r2, r9, sl, sp}
     830:	07000013 	smladeq	r0, r3, r0, r0
     834:	0b0b0113 	bleq	2c0c88 <__bss_end__+0x2b6a70>
     838:	0b3b0b3a 	bleq	ec3528 <__bss_end__+0xeb9310>
     83c:	00001301 	andeq	r1, r0, r1, lsl #6
     840:	03000d08 	movweq	r0, #3336	; 0xd08
     844:	3b0b3a08 	blcc	2cf06c <__bss_end__+0x2c4e54>
     848:	3813490b 	ldmdacc	r3, {r0, r1, r3, r8, fp, lr}
     84c:	0900000b 	stmdbeq	r0, {r0, r1, r3}
     850:	0e03000d 	cdpeq	0, 0, cr0, cr3, cr13, {0}
     854:	0b3b0b3a 	bleq	ec3544 <__bss_end__+0xeb932c>
     858:	0b381349 	bleq	e05584 <__bss_end__+0xdfb36c>
     85c:	040a0000 	streq	r0, [sl], #-0
     860:	3a0b0b01 	bcc	2c346c <__bss_end__+0x2b9254>
     864:	010b3b0b 	tsteq	fp, fp, lsl #22
     868:	0b000013 	bleq	8bc <_start-0x7744>
     86c:	0e030028 	cdpeq	0, 0, cr0, cr3, cr8, {1}
     870:	00000d1c 	andeq	r0, r0, ip, lsl sp
     874:	03012e0c 	movweq	r2, #7692	; 0x1e0c
     878:	3b0b3a0e 	blcc	2cf0b8 <__bss_end__+0x2c4ea0>
     87c:	4919270b 	ldmdbmi	r9, {r0, r1, r3, r8, r9, sl, sp}
     880:	12011113 	andne	r1, r1, #-1073741820	; 0xc0000004
     884:	97184006 	ldrls	r4, [r8, -r6]
     888:	13011942 	movwne	r1, #6466	; 0x1942
     88c:	050d0000 	streq	r0, [sp, #-0]
     890:	3a080300 	bcc	201498 <__bss_end__+0x1f7280>
     894:	490b3b0b 	stmdbmi	fp, {r0, r1, r3, r8, r9, fp, ip, sp}
     898:	00170213 	andseq	r0, r7, r3, lsl r2
     89c:	82890e00 	addhi	r0, r9, #0, 28
     8a0:	01110101 	tsteq	r1, r1, lsl #2
     8a4:	00001331 	andeq	r1, r0, r1, lsr r3
     8a8:	01828a0f 	orreq	r8, r2, pc, lsl #20
     8ac:	91180200 	tstls	r8, r0, lsl #4
     8b0:	00001842 	andeq	r1, r0, r2, asr #16
     8b4:	3f012e10 	svccc	0x00012e10
     8b8:	3a0e0319 	bcc	381524 <__bss_end__+0x37730c>
     8bc:	110b3b0b 	tstne	fp, fp, lsl #22
     8c0:	40061201 	andmi	r1, r6, r1, lsl #4
     8c4:	19429718 	stmdbne	r2, {r3, r4, r8, r9, sl, ip, pc}^
     8c8:	00001301 	andeq	r1, r0, r1, lsl #6
     8cc:	03003411 	movweq	r3, #1041	; 0x411
     8d0:	3b0b3a0e 	blcc	2cf110 <__bss_end__+0x2c4ef8>
     8d4:	3f13490b 	svccc	0x0013490b
     8d8:	00193c19 	andseq	r3, r9, r9, lsl ip
     8dc:	002e1200 	eoreq	r1, lr, r0, lsl #4
     8e0:	0e03193f 	mcreq	9, 0, r1, cr3, cr15, {1}
     8e4:	0b3b0b3a 	bleq	ec35d4 <__bss_end__+0xeb93bc>
     8e8:	193c1927 	ldmdbne	ip!, {r0, r1, r2, r5, r8, fp, ip}
     8ec:	34130000 	ldrcc	r0, [r3], #-0
     8f0:	3a080300 	bcc	2014f8 <__bss_end__+0x1f72e0>
     8f4:	490b3b0b 	stmdbmi	fp, {r0, r1, r3, r8, r9, fp, ip, sp}
     8f8:	00170213 	andseq	r0, r7, r3, lsl r2
     8fc:	00341400 	eorseq	r1, r4, r0, lsl #8
     900:	0b3a0e03 	bleq	e84114 <__bss_end__+0xe79efc>
     904:	13490b3b 	movtne	r0, #39739	; 0x9b3b
     908:	89150000 	ldmdbhi	r5, {}	; <UNPREDICTABLE>
     90c:	11000182 	smlabbne	r0, r2, r1, r0
     910:	00133101 	andseq	r3, r3, r1, lsl #2
     914:	82891600 	addhi	r1, r9, #0, 12
     918:	01110101 	tsteq	r1, r1, lsl #2
     91c:	13011331 	movwne	r1, #4913	; 0x1331
     920:	34170000 	ldrcc	r0, [r7], #-0
     924:	3a0e0300 	bcc	38152c <__bss_end__+0x377314>
     928:	490b3b0b 	stmdbmi	fp, {r0, r1, r3, r8, r9, fp, ip, sp}
     92c:	00180213 	andseq	r0, r8, r3, lsl r2
     930:	01151800 	tsteq	r5, r0, lsl #16
     934:	13491927 	movtne	r1, #39207	; 0x9927
     938:	00001301 	andeq	r1, r0, r1, lsl #6
     93c:	49000519 	stmdbmi	r0, {r0, r3, r4, r8, sl}
     940:	1a000013 	bne	994 <_start-0x766c>
     944:	193f012e 	ldmdbne	pc!, {r1, r2, r3, r5, r8}	; <UNPREDICTABLE>
     948:	0b3a0e03 	bleq	e8415c <__bss_end__+0xe79f44>
     94c:	19270b3b 	stmdbne	r7!, {r0, r1, r3, r4, r5, r8, r9, fp}
     950:	1301193c 	movwne	r1, #6460	; 0x193c
     954:	2e1b0000 	cdpcs	0, 1, cr0, cr11, cr0, {0}
     958:	03193f00 	tsteq	r9, #0, 30
     95c:	3b0b3a0e 	blcc	2cf19c <__bss_end__+0x2c4f84>
     960:	4919270b 	ldmdbmi	r9, {r0, r1, r3, r8, r9, sl, sp}
     964:	00193c13 	andseq	r3, r9, r3, lsl ip
     968:	012e1c00 	teqeq	lr, r0, lsl #24
     96c:	0e03193f 	mcreq	9, 0, r1, cr3, cr15, {1}
     970:	0b3b0b3a 	bleq	ec3660 <__bss_end__+0xeb9448>
     974:	13491927 	movtne	r1, #39207	; 0x9927
     978:	1301193c 	movwne	r1, #6460	; 0x193c
     97c:	181d0000 	ldmdane	sp, {}	; <UNPREDICTABLE>
     980:	00000000 	andeq	r0, r0, r0
     984:	25011101 	strcs	r1, [r1, #-257]	; 0x101
     988:	030b130e 	movweq	r1, #45838	; 0xb30e
     98c:	550e1b0e 	strpl	r1, [lr, #-2830]	; 0xb0e
     990:	10011117 	andne	r1, r1, r7, lsl r1
     994:	02000017 	andeq	r0, r0, #23
     998:	0b0b0024 	bleq	2c0a30 <__bss_end__+0x2b6818>
     99c:	08030b3e 	stmdaeq	r3, {r1, r2, r3, r4, r5, r8, r9, fp}
     9a0:	24030000 	strcs	r0, [r3], #-0
     9a4:	3e0b0b00 	vmlacc.f64	d0, d11, d0
     9a8:	000e030b 	andeq	r0, lr, fp, lsl #6
     9ac:	012e0400 	teqeq	lr, r0, lsl #8
     9b0:	0e03193f 	mcreq	9, 0, r1, cr3, cr15, {1}
     9b4:	0b3b0b3a 	bleq	ec36a4 <__bss_end__+0xeb948c>
     9b8:	13491927 	movtne	r1, #39207	; 0x9927
     9bc:	06120111 			; <UNDEFINED> instruction: 0x06120111
     9c0:	42971840 	addsmi	r1, r7, #64, 16	; 0x400000
     9c4:	00130119 	andseq	r0, r3, r9, lsl r1
     9c8:	00340500 	eorseq	r0, r4, r0, lsl #10
     9cc:	0b3a0e03 	bleq	e841e0 <__bss_end__+0xe79fc8>
     9d0:	13490b3b 	movtne	r0, #39739	; 0x9b3b
     9d4:	00001702 	andeq	r1, r0, r2, lsl #14
     9d8:	3f012e06 	svccc	0x00012e06
     9dc:	3a0e0319 	bcc	381648 <__bss_end__+0x377430>
     9e0:	270b3b0b 	strcs	r3, [fp, -fp, lsl #22]
     9e4:	12011119 	andne	r1, r1, #1073741830	; 0x40000006
     9e8:	97184006 	ldrls	r4, [r8, -r6]
     9ec:	13011942 	movwne	r1, #6466	; 0x1942
     9f0:	34070000 	strcc	r0, [r7], #-0
     9f4:	3a0e0300 	bcc	3815fc <__bss_end__+0x3773e4>
     9f8:	490b3b0b 	stmdbmi	fp, {r0, r1, r3, r8, r9, fp, ip, sp}
     9fc:	00061c13 	andeq	r1, r6, r3, lsl ip
     a00:	00340800 	eorseq	r0, r4, r0, lsl #16
     a04:	0b3a0e03 	bleq	e84218 <__bss_end__+0xe7a000>
     a08:	13490b3b 	movtne	r0, #39739	; 0x9b3b
     a0c:	00000b1c 	andeq	r0, r0, ip, lsl fp
     a10:	01828909 	orreq	r8, r2, r9, lsl #18
     a14:	31011100 	mrscc	r1, (UNDEF: 17)
     a18:	0a000013 	beq	a6c <_start-0x7594>
     a1c:	01018289 	smlabbeq	r1, r9, r2, r8
     a20:	13310111 	teqne	r1, #1073741828	; 0x40000004
     a24:	00001301 	andeq	r1, r0, r1, lsl #6
     a28:	01828a0b 	orreq	r8, r2, fp, lsl #20
     a2c:	91180200 	tstls	r8, r0, lsl #4
     a30:	00001842 	andeq	r1, r0, r2, asr #16
     a34:	0182890c 	orreq	r8, r2, ip, lsl #18
     a38:	31011101 	tstcc	r1, r1, lsl #2
     a3c:	0d000013 	stceq	0, cr0, [r0, #-76]	; 0xffffffb4
     a40:	13490026 	movtne	r0, #36902	; 0x9026
     a44:	2e0e0000 	cdpcs	0, 0, cr0, cr14, cr0, {0}
     a48:	03193f01 	tsteq	r9, #1, 30
     a4c:	3b0b3a0e 	blcc	2cf28c <__bss_end__+0x2c5074>
     a50:	3c19270b 	ldccc	7, cr2, [r9], {11}
     a54:	00130119 	andseq	r0, r3, r9, lsl r1
     a58:	00050f00 	andeq	r0, r5, r0, lsl #30
     a5c:	00001349 	andeq	r1, r0, r9, asr #6
     a60:	3f012e10 	svccc	0x00012e10
     a64:	3a0e0319 	bcc	3816d0 <__bss_end__+0x3774b8>
     a68:	270b3b0b 	strcs	r3, [fp, -fp, lsl #22]
     a6c:	00193c19 	andseq	r3, r9, r9, lsl ip
     a70:	11010000 	mrsne	r0, (UNDEF: 1)
     a74:	130e2501 	movwne	r2, #58625	; 0xe501
     a78:	1b0e030b 	blne	3816ac <__bss_end__+0x377494>
     a7c:	1201110e 	andne	r1, r1, #-2147483645	; 0x80000003
     a80:	00171006 	andseq	r1, r7, r6
     a84:	00240200 	eoreq	r0, r4, r0, lsl #4
     a88:	0b3e0b0b 	bleq	f836bc <__bss_end__+0xf794a4>
     a8c:	00000803 	andeq	r0, r0, r3, lsl #16
     a90:	0b002403 	bleq	9aa4 <memset+0x14>
     a94:	030b3e0b 	movweq	r3, #48651	; 0xbe0b
     a98:	0400000e 	streq	r0, [r0], #-14
     a9c:	193f012e 	ldmdbne	pc!, {r1, r2, r3, r5, r8}	; <UNPREDICTABLE>
     aa0:	0b3a0e03 	bleq	e842b4 <__bss_end__+0xe7a09c>
     aa4:	19270b3b 	stmdbne	r7!, {r0, r1, r3, r4, r5, r8, r9, fp}
     aa8:	06120111 			; <UNDEFINED> instruction: 0x06120111
     aac:	42971840 	addsmi	r1, r7, #64, 16	; 0x400000
     ab0:	00130119 	andseq	r0, r3, r9, lsl r1
     ab4:	00050500 	andeq	r0, r5, r0, lsl #10
     ab8:	0b3a0e03 	bleq	e842cc <__bss_end__+0xe7a0b4>
     abc:	13490b3b 	movtne	r0, #39739	; 0x9b3b
     ac0:	00001702 	andeq	r1, r0, r2, lsl #14
     ac4:	3f012e06 	svccc	0x00012e06
     ac8:	3a0e0319 	bcc	381734 <__bss_end__+0x37751c>
     acc:	270b3b0b 	strcs	r3, [fp, -fp, lsl #22]
     ad0:	11134919 	tstne	r3, r9, lsl r9
     ad4:	40061201 	andmi	r1, r6, r1, lsl #4
     ad8:	19429718 	stmdbne	r2, {r3, r4, r8, r9, sl, ip, pc}^
     adc:	00001301 	andeq	r1, r0, r1, lsl #6
     ae0:	01828907 	orreq	r8, r2, r7, lsl #18
     ae4:	31011101 	tstcc	r1, r1, lsl #2
     ae8:	08000013 	stmdaeq	r0, {r0, r1, r4}
     aec:	0001828a 	andeq	r8, r1, sl, lsl #5
     af0:	42911802 	addsmi	r1, r1, #131072	; 0x20000
     af4:	09000018 	stmdbeq	r0, {r3, r4}
     af8:	08030034 	stmdaeq	r3, {r2, r4, r5}
     afc:	0b3b0b3a 	bleq	ec37ec <__bss_end__+0xeb95d4>
     b00:	18021349 	stmdane	r2, {r0, r3, r6, r8, r9, ip}
     b04:	890a0000 	stmdbhi	sl, {}	; <UNPREDICTABLE>
     b08:	11000182 	smlabbne	r0, r2, r1, r0
     b0c:	00133101 	andseq	r3, r3, r1, lsl #2
     b10:	00050b00 	andeq	r0, r5, r0, lsl #22
     b14:	0b3a0803 	bleq	e82b28 <__bss_end__+0xe78910>
     b18:	13490b3b 	movtne	r0, #39739	; 0x9b3b
     b1c:	00001702 	andeq	r1, r0, r2, lsl #14
     b20:	11010b0c 	tstne	r1, ip, lsl #22
     b24:	01061201 	tsteq	r6, r1, lsl #4
     b28:	0d000013 	stceq	0, cr0, [r0, #-76]	; 0xffffffb4
     b2c:	08030034 	stmdaeq	r3, {r2, r4, r5}
     b30:	0b3b0b3a 	bleq	ec3820 <__bss_end__+0xeb9608>
     b34:	17021349 	strne	r1, [r2, -r9, asr #6]
     b38:	2e0e0000 	cdpcs	0, 0, cr0, cr14, cr0, {0}
     b3c:	03193f01 	tsteq	r9, #1, 30
     b40:	3b0b3a0e 	blcc	2cf380 <__bss_end__+0x2c5168>
     b44:	4919270b 	ldmdbmi	r9, {r0, r1, r3, r8, r9, sl, sp}
     b48:	00193c13 	andseq	r3, r9, r3, lsl ip
     b4c:	00050f00 	andeq	r0, r5, r0, lsl #30
     b50:	00001349 	andeq	r1, r0, r9, asr #6
     b54:	01110100 	tsteq	r1, r0, lsl #2
     b58:	0b130e25 	bleq	4c43f4 <__bss_end__+0x4ba1dc>
     b5c:	0e1b0e03 	cdpeq	14, 1, cr0, cr11, cr3, {0}
     b60:	06120111 			; <UNDEFINED> instruction: 0x06120111
     b64:	00001710 	andeq	r1, r0, r0, lsl r7
     b68:	0b002402 	bleq	9b78 <__FUNCTION__.4238+0x2c>
     b6c:	030b3e0b 	movweq	r3, #48651	; 0xbe0b
     b70:	0300000e 	movweq	r0, #14
     b74:	0b0b0024 	bleq	2c0c0c <__bss_end__+0x2b69f4>
     b78:	08030b3e 	stmdaeq	r3, {r1, r2, r3, r4, r5, r8, r9, fp}
     b7c:	04040000 	streq	r0, [r4], #-0
     b80:	3a0b0b01 	bcc	2c378c <__bss_end__+0x2b9574>
     b84:	010b3b0b 	tsteq	fp, fp, lsl #22
     b88:	05000013 	streq	r0, [r0, #-19]
     b8c:	0e030028 	cdpeq	0, 0, cr0, cr3, cr8, {1}
     b90:	00000d1c 	andeq	r0, r0, ip, lsl sp
     b94:	03001606 	movweq	r1, #1542	; 0x606
     b98:	3b0b3a0e 	blcc	2cf3d8 <__bss_end__+0x2c51c0>
     b9c:	0013490b 	andseq	r4, r3, fp, lsl #18
     ba0:	012e0700 	teqeq	lr, r0, lsl #14
     ba4:	0e03193f 	mcreq	9, 0, r1, cr3, cr15, {1}
     ba8:	0b3b0b3a 	bleq	ec3898 <__bss_end__+0xeb9680>
     bac:	01111927 	tsteq	r1, r7, lsr #18
     bb0:	18400612 	stmdane	r0, {r1, r4, r9, sl}^
     bb4:	01194297 			; <UNDEFINED> instruction: 0x01194297
     bb8:	08000013 	stmdaeq	r0, {r0, r1, r4}
     bbc:	08030005 	stmdaeq	r3, {r0, r2}
     bc0:	0b3b0b3a 	bleq	ec38b0 <__bss_end__+0xeb9698>
     bc4:	17021349 	strne	r1, [r2, -r9, asr #6]
     bc8:	34090000 	strcc	r0, [r9], #-0
     bcc:	3a0e0300 	bcc	3817d4 <__bss_end__+0x3775bc>
     bd0:	490b3b0b 	stmdbmi	fp, {r0, r1, r3, r8, r9, fp, ip, sp}
     bd4:	00170213 	andseq	r0, r7, r3, lsl r2
     bd8:	82890a00 	addhi	r0, r9, #0, 20
     bdc:	01110101 	tsteq	r1, r1, lsl #2
     be0:	13011331 	movwne	r1, #4913	; 0x1331
     be4:	8a0b0000 	bhi	2c0bec <__bss_end__+0x2b69d4>
     be8:	02000182 	andeq	r0, r0, #-2147483616	; 0x80000020
     bec:	18429118 	stmdane	r2, {r3, r4, r8, ip, pc}^
     bf0:	890c0000 	stmdbhi	ip, {}	; <UNPREDICTABLE>
     bf4:	11010182 	smlabbne	r1, r2, r1, r0
     bf8:	00133101 	andseq	r3, r3, r1, lsl #2
     bfc:	000f0d00 	andeq	r0, pc, r0, lsl #26
     c00:	13490b0b 	movtne	r0, #39691	; 0x9b0b
     c04:	350e0000 	strcc	r0, [lr, #-0]
     c08:	00134900 	andseq	r4, r3, r0, lsl #18
     c0c:	012e0f00 	teqeq	lr, r0, lsl #30
     c10:	0e03193f 	mcreq	9, 0, r1, cr3, cr15, {1}
     c14:	0b3b0b3a 	bleq	ec3904 <__bss_end__+0xeb96ec>
     c18:	13491927 	movtne	r1, #39207	; 0x9927
     c1c:	06120111 			; <UNDEFINED> instruction: 0x06120111
     c20:	42971840 	addsmi	r1, r7, #64, 16	; 0x400000
     c24:	00130119 	andseq	r0, r3, r9, lsl r1
     c28:	00341000 	eorseq	r1, r4, r0
     c2c:	0b3a0803 	bleq	e82c40 <__bss_end__+0xe78a28>
     c30:	13490b3b 	movtne	r0, #39739	; 0x9b3b
     c34:	00001702 	andeq	r1, r0, r2, lsl #14
     c38:	01828911 	orreq	r8, r2, r1, lsl r9
     c3c:	31011100 	mrscc	r1, (UNDEF: 17)
     c40:	12000013 	andne	r0, r0, #19
     c44:	0e030005 	cdpeq	0, 0, cr0, cr3, cr5, {0}
     c48:	0b3b0b3a 	bleq	ec3938 <__bss_end__+0xeb9720>
     c4c:	17021349 	strne	r1, [r2, -r9, asr #6]
     c50:	2e130000 	cdpcs	0, 1, cr0, cr3, cr0, {0}
     c54:	03193f01 	tsteq	r9, #1, 30
     c58:	3b0b3a0e 	blcc	2cf498 <__bss_end__+0x2c5280>
     c5c:	49192705 	ldmdbmi	r9, {r0, r2, r8, r9, sl, sp}
     c60:	12011113 	andne	r1, r1, #-1073741820	; 0xc0000004
     c64:	97184006 	ldrls	r4, [r8, -r6]
     c68:	13011942 	movwne	r1, #6466	; 0x1942
     c6c:	05140000 	ldreq	r0, [r4, #-0]
     c70:	3a0e0300 	bcc	381878 <__bss_end__+0x377660>
     c74:	49053b0b 	stmdbmi	r5, {r0, r1, r3, r8, r9, fp, ip, sp}
     c78:	00170213 	andseq	r0, r7, r3, lsl r2
     c7c:	012e1500 	teqeq	lr, r0, lsl #10
     c80:	0e03193f 	mcreq	9, 0, r1, cr3, cr15, {1}
     c84:	053b0b3a 	ldreq	r0, [fp, #-2874]!	; 0xb3a
     c88:	01111927 	tsteq	r1, r7, lsr #18
     c8c:	18400612 	stmdane	r0, {r1, r4, r9, sl}^
     c90:	01194297 			; <UNDEFINED> instruction: 0x01194297
     c94:	16000013 			; <UNDEFINED> instruction: 0x16000013
     c98:	08030005 	stmdaeq	r3, {r0, r2}
     c9c:	053b0b3a 	ldreq	r0, [fp, #-2874]!	; 0xb3a
     ca0:	17021349 	strne	r1, [r2, -r9, asr #6]
     ca4:	34170000 	ldrcc	r0, [r7], #-0
     ca8:	3a0e0300 	bcc	3818b0 <__bss_end__+0x377698>
     cac:	49053b0b 	stmdbmi	r5, {r0, r1, r3, r8, r9, fp, ip, sp}
     cb0:	00170213 	andseq	r0, r7, r3, lsl r2
     cb4:	010b1800 	tsteq	fp, r0, lsl #16
     cb8:	06120111 			; <UNDEFINED> instruction: 0x06120111
     cbc:	00001301 	andeq	r1, r0, r1, lsl #6
     cc0:	03003419 	movweq	r3, #1049	; 0x419
     cc4:	3b0b3a0e 	blcc	2cf504 <__bss_end__+0x2c52ec>
     cc8:	3f13490b 	svccc	0x0013490b
     ccc:	00180219 	andseq	r0, r8, r9, lsl r2
     cd0:	00341a00 	eorseq	r1, r4, r0, lsl #20
     cd4:	0b3a0e03 	bleq	e844e8 <__bss_end__+0xe7a2d0>
     cd8:	1349053b 	movtne	r0, #38203	; 0x953b
     cdc:	1802193f 	stmdane	r2, {r0, r1, r2, r3, r4, r5, r8, fp, ip}
     ce0:	2e1b0000 	cdpcs	0, 1, cr0, cr11, cr0, {0}
     ce4:	03193f01 	tsteq	r9, #1, 30
     ce8:	3b0b3a0e 	blcc	2cf528 <__bss_end__+0x2c5310>
     cec:	4919270b 	ldmdbmi	r9, {r0, r1, r3, r8, r9, sl, sp}
     cf0:	01193c13 	tsteq	r9, r3, lsl ip
     cf4:	1c000013 	stcne	0, cr0, [r0], {19}
     cf8:	13490005 	movtne	r0, #36869	; 0x9005
     cfc:	261d0000 	ldrcs	r0, [sp], -r0
     d00:	00134900 	andseq	r4, r3, r0, lsl #18
     d04:	00351e00 	eorseq	r1, r5, r0, lsl #28
     d08:	2e1f0000 	cdpcs	0, 1, cr0, cr15, cr0, {0}
     d0c:	03193f01 	tsteq	r9, #1, 30
     d10:	3b0b3a0e 	blcc	2cf550 <__bss_end__+0x2c5338>
     d14:	3c19270b 	ldccc	7, cr2, [r9], {11}
     d18:	00130119 	andseq	r0, r3, r9, lsl r1
     d1c:	002e2000 	eoreq	r2, lr, r0
     d20:	0e03193f 	mcreq	9, 0, r1, cr3, cr15, {1}
     d24:	0b3b0b3a 	bleq	ec3a14 <__bss_end__+0xeb97fc>
     d28:	193c1927 	ldmdbne	ip!, {r0, r1, r2, r5, r8, fp, ip}
     d2c:	01000000 	mrseq	r0, (UNDEF: 0)
     d30:	0e250111 	mcreq	1, 1, r0, cr5, cr1, {0}
     d34:	0e030b13 	vmoveq.32	d3[0], r0
     d38:	01110e1b 	tsteq	r1, fp, lsl lr
     d3c:	17100612 			; <UNDEFINED> instruction: 0x17100612
     d40:	24020000 	strcs	r0, [r2], #-0
     d44:	3e0b0b00 	vmlacc.f64	d0, d11, d0
     d48:	0008030b 	andeq	r0, r8, fp, lsl #6
     d4c:	00240300 	eoreq	r0, r4, r0, lsl #6
     d50:	0b3e0b0b 	bleq	f83984 <__bss_end__+0xf7976c>
     d54:	00000e03 	andeq	r0, r0, r3, lsl #28
     d58:	03001604 	movweq	r1, #1540	; 0x604
     d5c:	3b0b3a0e 	blcc	2cf59c <__bss_end__+0x2c5384>
     d60:	0013490b 	andseq	r4, r3, fp, lsl #18
     d64:	000f0500 	andeq	r0, pc, r0, lsl #10
     d68:	00000b0b 	andeq	r0, r0, fp, lsl #22
     d6c:	0b000f06 	bleq	498c <_start-0x3674>
     d70:	0013490b 	andseq	r4, r3, fp, lsl #18
     d74:	00260700 	eoreq	r0, r6, r0, lsl #14
     d78:	00001349 	andeq	r1, r0, r9, asr #6
     d7c:	0b011308 	bleq	459a4 <__bss_end__+0x3b78c>
     d80:	3b0b3a0b 	blcc	2cf5b4 <__bss_end__+0x2c539c>
     d84:	0013010b 	andseq	r0, r3, fp, lsl #2
     d88:	000d0900 	andeq	r0, sp, r0, lsl #18
     d8c:	0b3a0803 	bleq	e82da0 <__bss_end__+0xe78b88>
     d90:	13490b3b 	movtne	r0, #39739	; 0x9b3b
     d94:	00000b38 	andeq	r0, r0, r8, lsr fp
     d98:	03000d0a 	movweq	r0, #3338	; 0xd0a
     d9c:	3b0b3a0e 	blcc	2cf5dc <__bss_end__+0x2c53c4>
     da0:	3813490b 	ldmdacc	r3, {r0, r1, r3, r8, fp, lr}
     da4:	0b00000b 	bleq	dd8 <_start-0x7228>
     da8:	0e030113 	mcreq	1, 0, r0, cr3, cr3, {0}
     dac:	0b3a0b0b 	bleq	e839e0 <__bss_end__+0xe797c8>
     db0:	13010b3b 	movwne	r0, #6971	; 0x1b3b
     db4:	0d0c0000 	stceq	0, cr0, [ip, #-0]
     db8:	490e0300 	stmdbmi	lr, {r8, r9}
     dbc:	340b3813 	strcc	r3, [fp], #-2067	; 0x813
     dc0:	0d000019 	stceq	0, cr0, [r0, #-100]	; 0xffffff9c
     dc4:	0e03012e 	adfeqsp	f0, f3, #0.5
     dc8:	0b3b0b3a 	bleq	ec3ab8 <__bss_end__+0xeb98a0>
     dcc:	0b201927 	bleq	807270 <__bss_end__+0x7fd058>
     dd0:	00001301 	andeq	r1, r0, r1, lsl #6
     dd4:	0300050e 	movweq	r0, #1294	; 0x50e
     dd8:	3b0b3a0e 	blcc	2cf618 <__bss_end__+0x2c5400>
     ddc:	0013490b 	andseq	r4, r3, fp, lsl #18
     de0:	00050f00 	andeq	r0, r5, r0, lsl #30
     de4:	0b3a0803 	bleq	e82df8 <__bss_end__+0xe78be0>
     de8:	13490b3b 	movtne	r0, #39739	; 0x9b3b
     dec:	0b100000 	bleq	400df4 <__bss_end__+0x3f6bdc>
     df0:	11000001 	tstne	r0, r1
     df4:	0e030034 	mcreq	0, 0, r0, cr3, cr4, {1}
     df8:	0b3b0b3a 	bleq	ec3ae8 <__bss_end__+0xeb98d0>
     dfc:	00001349 	andeq	r1, r0, r9, asr #6
     e00:	3f012e12 	svccc	0x00012e12
     e04:	3a0e0319 	bcc	381a70 <__bss_end__+0x377858>
     e08:	270b3b0b 	strcs	r3, [fp, -fp, lsl #22]
     e0c:	12011119 	andne	r1, r1, #1073741830	; 0x40000006
     e10:	97184006 	ldrls	r4, [r8, -r6]
     e14:	13011942 	movwne	r1, #6466	; 0x1942
     e18:	05130000 	ldreq	r0, [r3, #-0]
     e1c:	3a0e0300 	bcc	381a24 <__bss_end__+0x37780c>
     e20:	490b3b0b 	stmdbmi	fp, {r0, r1, r3, r8, r9, fp, ip, sp}
     e24:	00170213 	andseq	r0, r7, r3, lsl r2
     e28:	00051400 	andeq	r1, r5, r0, lsl #8
     e2c:	0b3a0803 	bleq	e82e40 <__bss_end__+0xe78c28>
     e30:	13490b3b 	movtne	r0, #39739	; 0x9b3b
     e34:	00001702 	andeq	r1, r0, r2, lsl #14
     e38:	03003415 	movweq	r3, #1045	; 0x415
     e3c:	3b0b3a08 	blcc	2cf664 <__bss_end__+0x2c544c>
     e40:	0213490b 	andseq	r4, r3, #180224	; 0x2c000
     e44:	16000018 			; <UNDEFINED> instruction: 0x16000018
     e48:	08030034 	stmdaeq	r3, {r2, r4, r5}
     e4c:	0b3b0b3a 	bleq	ec3b3c <__bss_end__+0xeb9924>
     e50:	17021349 	strne	r1, [r2, -r9, asr #6]
     e54:	0b170000 	bleq	5c0e5c <__bss_end__+0x5b6c44>
     e58:	12011101 	andne	r1, r1, #1073741824	; 0x40000000
     e5c:	00130106 	andseq	r0, r3, r6, lsl #2
     e60:	00341800 	eorseq	r1, r4, r0, lsl #16
     e64:	0b3a0e03 	bleq	e84678 <__bss_end__+0xe7a460>
     e68:	13490b3b 	movtne	r0, #39739	; 0x9b3b
     e6c:	00001802 	andeq	r1, r0, r2, lsl #16
     e70:	31011d19 	tstcc	r1, r9, lsl sp
     e74:	12011113 	andne	r1, r1, #-1073741820	; 0xc0000004
     e78:	590b5806 	stmdbpl	fp, {r1, r2, fp, ip, lr}
     e7c:	0013010b 	andseq	r0, r3, fp, lsl #2
     e80:	00051a00 	andeq	r1, r5, r0, lsl #20
     e84:	17021331 	smladxne	r2, r1, r3, r1
     e88:	051b0000 	ldreq	r0, [fp, #-0]
     e8c:	02133100 	andseq	r3, r3, #0, 2
     e90:	1c000018 	stcne	0, cr0, [r0], {24}
     e94:	13310005 	teqne	r1, #5
     e98:	00000b1c 	andeq	r0, r0, ip, lsl fp
     e9c:	11010b1d 	tstne	r1, sp, lsl fp
     ea0:	00061201 	andeq	r1, r6, r1, lsl #4
     ea4:	00341e00 	eorseq	r1, r4, r0, lsl #28
     ea8:	17021331 	smladxne	r2, r1, r3, r1
     eac:	891f0000 	ldmdbhi	pc, {}	; <UNPREDICTABLE>
     eb0:	11010182 	smlabbne	r1, r2, r1, r0
     eb4:	00133101 	andseq	r3, r3, r1, lsl #2
     eb8:	828a2000 	addhi	r2, sl, #0
     ebc:	18020001 	stmdane	r2, {r0}
     ec0:	00184291 	mulseq	r8, r1, r2
     ec4:	011d2100 	tsteq	sp, r0, lsl #2
     ec8:	01111331 	tsteq	r1, r1, lsr r3
     ecc:	0b580612 	bleq	160271c <__bss_end__+0x15f8504>
     ed0:	00000b59 	andeq	r0, r0, r9, asr fp
     ed4:	03012e22 	movweq	r2, #7714	; 0x1e22
     ed8:	3b0b3a0e 	blcc	2cf718 <__bss_end__+0x2c5500>
     edc:	4919270b 	ldmdbmi	r9, {r0, r1, r3, r8, r9, sl, sp}
     ee0:	010b2013 	tsteq	fp, r3, lsl r0
     ee4:	23000013 	movwcs	r0, #19
     ee8:	193f012e 	ldmdbne	pc!, {r1, r2, r3, r5, r8}	; <UNPREDICTABLE>
     eec:	0b3a0e03 	bleq	e84700 <__bss_end__+0xe7a4e8>
     ef0:	19270b3b 	stmdbne	r7!, {r0, r1, r3, r4, r5, r8, r9, fp}
     ef4:	01111349 	tsteq	r1, r9, asr #6
     ef8:	18400612 	stmdane	r0, {r1, r4, r9, sl}^
     efc:	01194297 			; <UNDEFINED> instruction: 0x01194297
     f00:	24000013 	strcs	r0, [r0], #-19
     f04:	00018289 	andeq	r8, r1, r9, lsl #5
     f08:	13310111 	teqne	r1, #1073741828	; 0x40000004
     f0c:	89250000 	stmdbhi	r5!, {}	; <UNPREDICTABLE>
     f10:	11010182 	smlabbne	r1, r2, r1, r0
     f14:	01133101 	tsteq	r3, r1, lsl #2
     f18:	26000013 			; <UNDEFINED> instruction: 0x26000013
     f1c:	0e030034 	mcreq	0, 0, r0, cr3, cr4, {1}
     f20:	0b3b0b3a 	bleq	ec3c10 <__bss_end__+0xeb99f8>
     f24:	17021349 	strne	r1, [r2, -r9, asr #6]
     f28:	05270000 	streq	r0, [r7, #-0]!
     f2c:	00133100 	andseq	r3, r3, r0, lsl #2
     f30:	00052800 	andeq	r2, r5, r0, lsl #16
     f34:	0b3a0e03 	bleq	e84748 <__bss_end__+0xe7a530>
     f38:	13490b3b 	movtne	r0, #39739	; 0x9b3b
     f3c:	00001802 	andeq	r1, r0, r2, lsl #16
     f40:	03003429 	movweq	r3, #1065	; 0x429
     f44:	3413490e 	ldrcc	r4, [r3], #-2318	; 0x90e
     f48:	00180219 	andseq	r0, r8, r9, lsl r2
     f4c:	01012a00 	tsteq	r1, r0, lsl #20
     f50:	13011349 	movwne	r1, #4937	; 0x1349
     f54:	212b0000 	teqcs	fp, r0
     f58:	2f134900 	svccs	0x00134900
     f5c:	2c00000b 	stccs	0, cr0, [r0], {11}
     f60:	08030034 	stmdaeq	r3, {r2, r4, r5}
     f64:	0b3b0b3a 	bleq	ec3c54 <__bss_end__+0xeb9a3c>
     f68:	061c1349 	ldreq	r1, [ip], -r9, asr #6
     f6c:	342d0000 	strtcc	r0, [sp], #-0
     f70:	3a080300 	bcc	201b78 <__bss_end__+0x1f7960>
     f74:	490b3b0b 	stmdbmi	fp, {r0, r1, r3, r8, r9, fp, ip, sp}
     f78:	000b1c13 	andeq	r1, fp, r3, lsl ip
     f7c:	00052e00 	andeq	r2, r5, r0, lsl #28
     f80:	0b3a0803 	bleq	e82f94 <__bss_end__+0xe78d7c>
     f84:	13490b3b 	movtne	r0, #39739	; 0x9b3b
     f88:	00001802 	andeq	r1, r0, r2, lsl #16
     f8c:	0000182f 	andeq	r1, r0, pc, lsr #16
     f90:	00213000 	eoreq	r3, r1, r0
     f94:	052f1349 	streq	r1, [pc, #-841]!	; c53 <_start-0x73ad>
     f98:	2e310000 	cdpcs	0, 3, cr0, cr1, cr0, {0}
     f9c:	03193f01 	tsteq	r9, #1, 30
     fa0:	3b0b3a0e 	blcc	2cf7e0 <__bss_end__+0x2c55c8>
     fa4:	3c19270b 	ldccc	7, cr2, [r9], {11}
     fa8:	00130119 	andseq	r0, r3, r9, lsl r1
     fac:	00053200 	andeq	r3, r5, r0, lsl #4
     fb0:	00001349 	andeq	r1, r0, r9, asr #6
     fb4:	3f002e33 	svccc	0x00002e33
     fb8:	3a0e0319 	bcc	381c24 <__bss_end__+0x377a0c>
     fbc:	270b3b0b 	strcs	r3, [fp, -fp, lsl #22]
     fc0:	3c134919 	ldccc	9, cr4, [r3], {25}
     fc4:	34000019 	strcc	r0, [r0], #-25
     fc8:	193f012e 	ldmdbne	pc!, {r1, r2, r3, r5, r8}	; <UNPREDICTABLE>
     fcc:	0b3a0e03 	bleq	e847e0 <__bss_end__+0xe7a5c8>
     fd0:	19270b3b 	stmdbne	r7!, {r0, r1, r3, r4, r5, r8, r9, fp}
     fd4:	193c1349 	ldmdbne	ip!, {r0, r3, r6, r8, r9, ip}
     fd8:	00001301 	andeq	r1, r0, r1, lsl #6
     fdc:	3f002e35 	svccc	0x00002e35
     fe0:	3a0e0319 	bcc	381c4c <__bss_end__+0x377a34>
     fe4:	270b3b0b 	strcs	r3, [fp, -fp, lsl #22]
     fe8:	00193c19 	andseq	r3, r9, r9, lsl ip
     fec:	012e3600 	teqeq	lr, r0, lsl #12
     ff0:	0e03193f 	mcreq	9, 0, r1, cr3, cr15, {1}
     ff4:	0b3b0b3a 	bleq	ec3ce4 <__bss_end__+0xeb9acc>
     ff8:	13491927 	movtne	r1, #39207	; 0x9927
     ffc:	0000193c 	andeq	r1, r0, ip, lsr r9
    1000:	01110100 	tsteq	r1, r0, lsl #2
    1004:	0b130e25 	bleq	4c48a0 <__bss_end__+0x4ba688>
    1008:	0e1b0e03 	cdpeq	14, 1, cr0, cr11, cr3, {0}
    100c:	06120111 			; <UNDEFINED> instruction: 0x06120111
    1010:	00001710 	andeq	r1, r0, r0, lsl r7
    1014:	0b002402 	bleq	a024 <__bss_start__+0x21c>
    1018:	030b3e0b 	movweq	r3, #48651	; 0xbe0b
    101c:	03000008 	movweq	r0, #8
    1020:	0b0b0024 	bleq	2c10b8 <__bss_end__+0x2b6ea0>
    1024:	0e030b3e 	vmoveq.16	d3[0], r0
    1028:	04040000 	streq	r0, [r4], #-0
    102c:	3a0b0b01 	bcc	2c3c38 <__bss_end__+0x2b9a20>
    1030:	010b3b0b 	tsteq	fp, fp, lsl #22
    1034:	05000013 	streq	r0, [r0, #-19]
    1038:	0e030028 	cdpeq	0, 0, cr0, cr3, cr8, {1}
    103c:	00000d1c 	andeq	r0, r0, ip, lsl sp
    1040:	03001606 	movweq	r1, #1542	; 0x606
    1044:	3b0b3a0e 	blcc	2cf884 <__bss_end__+0x2c566c>
    1048:	0013490b 	andseq	r4, r3, fp, lsl #18
    104c:	012e0700 	teqeq	lr, r0, lsl #14
    1050:	0e03193f 	mcreq	9, 0, r1, cr3, cr15, {1}
    1054:	0b3b0b3a 	bleq	ec3d44 <__bss_end__+0xeb9b2c>
    1058:	01111927 	tsteq	r1, r7, lsr #18
    105c:	18400612 	stmdane	r0, {r1, r4, r9, sl}^
    1060:	01194297 			; <UNDEFINED> instruction: 0x01194297
    1064:	08000013 	stmdaeq	r0, {r0, r1, r4}
    1068:	00018289 	andeq	r8, r1, r9, lsl #5
    106c:	13310111 	teqne	r1, #1073741828	; 0x40000004
    1070:	89090000 	stmdbhi	r9, {}	; <UNPREDICTABLE>
    1074:	11010182 	smlabbne	r1, r2, r1, r0
    1078:	01133101 	tsteq	r3, r1, lsl #2
    107c:	0a000013 	beq	10d0 <_start-0x6f30>
    1080:	0001828a 	andeq	r8, r1, sl, lsl #5
    1084:	42911802 	addsmi	r1, r1, #131072	; 0x20000
    1088:	0b000018 	bleq	10f0 <_start-0x6f10>
    108c:	193f012e 	ldmdbne	pc!, {r1, r2, r3, r5, r8}	; <UNPREDICTABLE>
    1090:	0b3a0e03 	bleq	e848a4 <__bss_end__+0xe7a68c>
    1094:	19270b3b 	stmdbne	r7!, {r0, r1, r3, r4, r5, r8, r9, fp}
    1098:	01111349 	tsteq	r1, r9, asr #6
    109c:	18400612 	stmdane	r0, {r1, r4, r9, sl}^
    10a0:	01194297 			; <UNDEFINED> instruction: 0x01194297
    10a4:	0c000013 	stceq	0, cr0, [r0], {19}
    10a8:	08030005 	stmdaeq	r3, {r0, r2}
    10ac:	0b3b0b3a 	bleq	ec3d9c <__bss_end__+0xeb9b84>
    10b0:	17021349 	strne	r1, [r2, -r9, asr #6]
    10b4:	890d0000 	stmdbhi	sp, {}	; <UNPREDICTABLE>
    10b8:	11010182 	smlabbne	r1, r2, r1, r0
    10bc:	00133101 	andseq	r3, r3, r1, lsl #2
    10c0:	00340e00 	eorseq	r0, r4, r0, lsl #28
    10c4:	0b3a0e03 	bleq	e848d8 <__bss_end__+0xe7a6c0>
    10c8:	13490b3b 	movtne	r0, #39739	; 0x9b3b
    10cc:	1802193f 	stmdane	r2, {r0, r1, r2, r3, r4, r5, r8, fp, ip}
    10d0:	0f0f0000 	svceq	0x000f0000
    10d4:	490b0b00 	stmdbmi	fp, {r8, r9, fp}
    10d8:	10000013 	andne	r0, r0, r3, lsl r0
    10dc:	13490035 	movtne	r0, #36917	; 0x9035
    10e0:	2e110000 	cdpcs	0, 1, cr0, cr1, cr0, {0}
    10e4:	03193f00 	tsteq	r9, #0, 30
    10e8:	3b0b3a0e 	blcc	2cf928 <__bss_end__+0x2c5710>
    10ec:	3c19270b 	ldccc	7, cr2, [r9], {11}
    10f0:	12000019 	andne	r0, r0, #25
    10f4:	193f012e 	ldmdbne	pc!, {r1, r2, r3, r5, r8}	; <UNPREDICTABLE>
    10f8:	0b3a0e03 	bleq	e8490c <__bss_end__+0xe7a6f4>
    10fc:	19270b3b 	stmdbne	r7!, {r0, r1, r3, r4, r5, r8, r9, fp}
    1100:	1301193c 	movwne	r1, #6460	; 0x193c
    1104:	05130000 	ldreq	r0, [r3, #-0]
    1108:	00134900 	andseq	r4, r3, r0, lsl #18
    110c:	012e1400 	teqeq	lr, r0, lsl #8
    1110:	0e03193f 	mcreq	9, 0, r1, cr3, cr15, {1}
    1114:	0b3b0b3a 	bleq	ec3e04 <__bss_end__+0xeb9bec>
    1118:	13491927 	movtne	r1, #39207	; 0x9927
    111c:	1301193c 	movwne	r1, #6460	; 0x193c
    1120:	26150000 	ldrcs	r0, [r5], -r0
    1124:	00134900 	andseq	r4, r3, r0, lsl #18
    1128:	00351600 	eorseq	r1, r5, r0, lsl #12
    112c:	01000000 	mrseq	r0, (UNDEF: 0)
    1130:	0e250111 	mcreq	1, 1, r0, cr5, cr1, {0}
    1134:	0e030b13 	vmoveq.32	d3[0], r0
    1138:	01110e1b 	tsteq	r1, fp, lsl lr
    113c:	17100612 			; <UNDEFINED> instruction: 0x17100612
    1140:	24020000 	strcs	r0, [r2], #-0
    1144:	3e0b0b00 	vmlacc.f64	d0, d11, d0
    1148:	0008030b 	andeq	r0, r8, fp, lsl #6
    114c:	00160300 	andseq	r0, r6, r0, lsl #6
    1150:	0b3a0e03 	bleq	e84964 <__bss_end__+0xe7a74c>
    1154:	13490b3b 	movtne	r0, #39739	; 0x9b3b
    1158:	24040000 	strcs	r0, [r4], #-0
    115c:	3e0b0b00 	vmlacc.f64	d0, d11, d0
    1160:	000e030b 	andeq	r0, lr, fp, lsl #6
    1164:	000f0500 	andeq	r0, pc, r0, lsl #10
    1168:	00000b0b 	andeq	r0, r0, fp, lsl #22
    116c:	0b011306 	bleq	45d8c <__bss_end__+0x3bb74>
    1170:	3b0b3a0b 	blcc	2cf9a4 <__bss_end__+0x2c578c>
    1174:	0013010b 	andseq	r0, r3, fp, lsl #2
    1178:	000d0700 	andeq	r0, sp, r0, lsl #14
    117c:	0b3a0803 	bleq	e83190 <__bss_end__+0xe78f78>
    1180:	13490b3b 	movtne	r0, #39739	; 0x9b3b
    1184:	00000b38 	andeq	r0, r0, r8, lsr fp
    1188:	03000d08 	movweq	r0, #3336	; 0xd08
    118c:	3b0b3a0e 	blcc	2cf9cc <__bss_end__+0x2c57b4>
    1190:	3813490b 	ldmdacc	r3, {r0, r1, r3, r8, fp, lr}
    1194:	0900000b 	stmdbeq	r0, {r0, r1, r3}
    1198:	0b0b0104 	bleq	2c15b0 <__bss_end__+0x2b7398>
    119c:	0b3b0b3a 	bleq	ec3e8c <__bss_end__+0xeb9c74>
    11a0:	00001301 	andeq	r1, r0, r1, lsl #6
    11a4:	0300280a 	movweq	r2, #2058	; 0x80a
    11a8:	000d1c0e 	andeq	r1, sp, lr, lsl #24
    11ac:	012e0b00 	teqeq	lr, r0, lsl #22
    11b0:	0e03193f 	mcreq	9, 0, r1, cr3, cr15, {1}
    11b4:	0b3b0b3a 	bleq	ec3ea4 <__bss_end__+0xeb9c8c>
    11b8:	13491927 	movtne	r1, #39207	; 0x9927
    11bc:	06120111 			; <UNDEFINED> instruction: 0x06120111
    11c0:	42971840 	addsmi	r1, r7, #64, 16	; 0x400000
    11c4:	00130119 	andseq	r0, r3, r9, lsl r1
    11c8:	00340c00 	eorseq	r0, r4, r0, lsl #24
    11cc:	0b3a0803 	bleq	e831e0 <__bss_end__+0xe78fc8>
    11d0:	13490b3b 	movtne	r0, #39739	; 0x9b3b
    11d4:	0000061c 	andeq	r0, r0, ip, lsl r6
    11d8:	0182890d 	orreq	r8, r2, sp, lsl #18
    11dc:	31011101 	tstcc	r1, r1, lsl #2
    11e0:	0e000013 	mcreq	0, 0, r0, cr0, cr3, {0}
    11e4:	0001828a 	andeq	r8, r1, sl, lsl #5
    11e8:	42911802 	addsmi	r1, r1, #131072	; 0x20000
    11ec:	0f000018 	svceq	0x00000018
    11f0:	0b0b000f 	bleq	2c1234 <__bss_end__+0x2b701c>
    11f4:	00001349 	andeq	r1, r0, r9, asr #6
    11f8:	3f012e10 	svccc	0x00012e10
    11fc:	3a0e0319 	bcc	381e68 <__bss_end__+0x377c50>
    1200:	270b3b0b 	strcs	r3, [fp, -fp, lsl #22]
    1204:	3c134919 	ldccc	9, cr4, [r3], {25}
    1208:	11000019 	tstne	r0, r9, lsl r0
    120c:	13490005 	movtne	r0, #36869	; 0x9005
    1210:	01000000 	mrseq	r0, (UNDEF: 0)
    1214:	0e250111 	mcreq	1, 1, r0, cr5, cr1, {0}
    1218:	0e030b13 	vmoveq.32	d3[0], r0
    121c:	01110e1b 	tsteq	r1, fp, lsl lr
    1220:	17100612 			; <UNDEFINED> instruction: 0x17100612
    1224:	24020000 	strcs	r0, [r2], #-0
    1228:	3e0b0b00 	vmlacc.f64	d0, d11, d0
    122c:	000e030b 	andeq	r0, lr, fp, lsl #6
    1230:	00240300 	eoreq	r0, r4, r0, lsl #6
    1234:	0b3e0b0b 	bleq	f83e68 <__bss_end__+0xf79c50>
    1238:	00000803 	andeq	r0, r0, r3, lsl #16
    123c:	0b000f04 	bleq	4e54 <_start-0x31ac>
    1240:	0500000b 	streq	r0, [r0, #-11]
    1244:	0b0b000f 	bleq	2c1288 <__bss_end__+0x2b7070>
    1248:	00001349 	andeq	r1, r0, r9, asr #6
    124c:	03001606 	movweq	r1, #1542	; 0x606
    1250:	3b0b3a0e 	blcc	2cfa90 <__bss_end__+0x2c5878>
    1254:	0013490b 	andseq	r4, r3, fp, lsl #18
    1258:	012e0700 	teqeq	lr, r0, lsl #14
    125c:	0e03193f 	mcreq	9, 0, r1, cr3, cr15, {1}
    1260:	0b3b0b3a 	bleq	ec3f50 <__bss_end__+0xeb9d38>
    1264:	13491927 	movtne	r1, #39207	; 0x9927
    1268:	06120111 			; <UNDEFINED> instruction: 0x06120111
    126c:	42971840 	addsmi	r1, r7, #64, 16	; 0x400000
    1270:	08000019 	stmdaeq	r0, {r0, r3, r4}
    1274:	08030005 	stmdaeq	r3, {r0, r2}
    1278:	0b3b0b3a 	bleq	ec3f68 <__bss_end__+0xeb9d50>
    127c:	18021349 	stmdane	r2, {r0, r3, r6, r8, r9, ip}
    1280:	05090000 	streq	r0, [r9, #-0]
    1284:	3a080300 	bcc	201e8c <__bss_end__+0x1f7c74>
    1288:	490b3b0b 	stmdbmi	fp, {r0, r1, r3, r8, r9, fp, ip, sp}
    128c:	00170213 	andseq	r0, r7, r3, lsl r2
    1290:	00340a00 	eorseq	r0, r4, r0, lsl #20
    1294:	0b3a0803 	bleq	e832a8 <__bss_end__+0xe79090>
    1298:	13490b3b 	movtne	r0, #39739	; 0x9b3b
    129c:	00001702 	andeq	r1, r0, r2, lsl #14
    12a0:	0300340b 	movweq	r3, #1035	; 0x40b
    12a4:	3b0b3a08 	blcc	2cfacc <__bss_end__+0x2c58b4>
    12a8:	0213490b 	andseq	r4, r3, #180224	; 0x2c000
    12ac:	00000018 	andeq	r0, r0, r8, lsl r0

Disassembly of section .debug_loc:

00000000 <.debug_loc>:
       0:	00000000 	andeq	r0, r0, r0
       4:	00000018 	andeq	r0, r0, r8, lsl r0
       8:	18500001 	ldmdane	r0, {r0}^
       c:	28000000 	stmdacs	r0, {}	; <UNPREDICTABLE>
      10:	04000000 	streq	r0, [r0], #-0
      14:	5001f300 	andpl	pc, r1, r0, lsl #6
      18:	0000289f 	muleq	r0, pc, r8	; <UNPREDICTABLE>
      1c:	00002b00 	andeq	r2, r0, r0, lsl #22
      20:	50000100 	andpl	r0, r0, r0, lsl #2
      24:	0000002b 	andeq	r0, r0, fp, lsr #32
      28:	00000050 	andeq	r0, r0, r0, asr r0
      2c:	01f30004 	mvnseq	r0, r4
      30:	00009f50 	andeq	r9, r0, r0, asr pc
      34:	00000000 	andeq	r0, r0, r0
      38:	00200000 	eoreq	r0, r0, r0
      3c:	00240000 	eoreq	r0, r4, r0
      40:	00010000 	andeq	r0, r1, r0
      44:	00000050 	andeq	r0, r0, r0, asr r0
      48:	00000000 	andeq	r0, r0, r0
      4c:	00005000 	andeq	r5, r0, r0
      50:	00011400 	andeq	r1, r1, r0, lsl #8
      54:	50000100 	andpl	r0, r0, r0, lsl #2
      58:	00000114 	andeq	r0, r0, r4, lsl r1
      5c:	000001ec 	andeq	r0, r0, ip, ror #3
      60:	01f30004 	mvnseq	r0, r4
      64:	00009f50 	andeq	r9, r0, r0, asr pc
      68:	00000000 	andeq	r0, r0, r0
      6c:	00500000 	subseq	r0, r0, r0
      70:	019c0000 	orrseq	r0, ip, r0
      74:	00020000 	andeq	r0, r2, r0
      78:	019c9f30 	orrseq	r9, ip, r0, lsr pc
      7c:	01a00000 	moveq	r0, r0
      80:	00260000 	eoreq	r0, r6, r0
      84:	24310075 	ldrtcs	r0, [r1], #-117	; 0x75
      88:	24320076 	ldrtcs	r0, [r2], #-118	; 0x76
      8c:	33007c21 	movwcc	r7, #3105	; 0xc21
      90:	00712124 	rsbseq	r2, r1, r4, lsr #2
      94:	77212434 			; <UNDEFINED> instruction: 0x77212434
      98:	21243500 	teqcs	r4, r0, lsl #10
      9c:	24360079 	ldrtcs	r0, [r6], #-121	; 0x79
      a0:	37007021 	strcc	r7, [r0, -r1, lsr #32]
      a4:	00742124 	rsbseq	r2, r4, r4, lsr #2
      a8:	00009f21 	andeq	r9, r0, r1, lsr #30
      ac:	00000000 	andeq	r0, r0, r0
      b0:	00500000 	subseq	r0, r0, r0
      b4:	00900000 	addseq	r0, r0, r0
      b8:	00020000 	andeq	r0, r2, r0
      bc:	00909f30 	addseq	r9, r0, r0, lsr pc
      c0:	01a80000 			; <UNDEFINED> instruction: 0x01a80000
      c4:	00010000 	andeq	r0, r1, r0
      c8:	00000054 	andeq	r0, r0, r4, asr r0
      cc:	00000000 	andeq	r0, r0, r0
      d0:	00005000 	andeq	r5, r0, r0
      d4:	0000b400 	andeq	fp, r0, r0, lsl #8
      d8:	30000200 	andcc	r0, r0, r0, lsl #4
      dc:	0000b49f 	muleq	r0, pc, r4	; <UNPREDICTABLE>
      e0:	0001a400 	andeq	sl, r1, r0, lsl #8
      e4:	55000100 	strpl	r0, [r0, #-256]	; 0x100
	...
      f0:	00000050 	andeq	r0, r0, r0, asr r0
      f4:	000000d8 	ldrdeq	r0, [r0], -r8
      f8:	9f300002 	svcls	0x00300002
      fc:	000000d8 	ldrdeq	r0, [r0], -r8
     100:	000001a0 	andeq	r0, r0, r0, lsr #3
     104:	00560001 	subseq	r0, r6, r1
     108:	00000000 	andeq	r0, r0, r0
     10c:	50000000 	andpl	r0, r0, r0
     110:	fc000000 	stc2	0, cr0, [r0], {-0}
     114:	02000000 	andeq	r0, r0, #0
     118:	fc9f3000 	ldc2	0, cr3, [pc], {0}
     11c:	ac000000 	stcge	0, cr0, [r0], {-0}
     120:	01000001 	tsteq	r0, r1
     124:	00005c00 	andeq	r5, r0, r0, lsl #24
     128:	00000000 	andeq	r0, r0, r0
     12c:	00500000 	subseq	r0, r0, r0
     130:	01200000 	teqeq	r0, r0
     134:	00020000 	andeq	r0, r2, r0
     138:	01209f30 	teqeq	r0, r0, lsr pc
     13c:	01b00000 	movseq	r0, r0
     140:	00010000 	andeq	r0, r1, r0
     144:	00000051 	andeq	r0, r0, r1, asr r0
     148:	00000000 	andeq	r0, r0, r0
     14c:	00005000 	andeq	r5, r0, r0
     150:	00014400 	andeq	r4, r1, r0, lsl #8
     154:	30000200 	andcc	r0, r0, r0, lsl #4
     158:	0001449f 	muleq	r1, pc, r4	; <UNPREDICTABLE>
     15c:	0001b400 	andeq	fp, r1, r0, lsl #8
     160:	57000100 	strpl	r0, [r0, -r0, lsl #2]
	...
     16c:	00000050 	andeq	r0, r0, r0, asr r0
     170:	00000168 	andeq	r0, r0, r8, ror #2
     174:	9f300002 	svcls	0x00300002
     178:	00000168 	andeq	r0, r0, r8, ror #2
     17c:	000001b8 			; <UNDEFINED> instruction: 0x000001b8
     180:	00590001 	subseq	r0, r9, r1
     184:	00000000 	andeq	r0, r0, r0
     188:	50000000 	andpl	r0, r0, r0
     18c:	8c000000 	stchi	0, cr0, [r0], {-0}
     190:	02000001 	andeq	r0, r0, #1
     194:	8c9f3000 	ldchi	0, cr3, [pc], {0}
     198:	bc000001 	stclt	0, cr0, [r0], {1}
     19c:	01000001 	tsteq	r0, r1
     1a0:	00005000 	andeq	r5, r0, r0
     1a4:	00000000 	andeq	r0, r0, r0
     1a8:	00700000 	rsbseq	r0, r0, r0
     1ac:	00740000 	rsbseq	r0, r4, r0
     1b0:	00010000 	andeq	r0, r1, r0
     1b4:	00000052 	andeq	r0, r0, r2, asr r0
     1b8:	00000000 	andeq	r0, r0, r0
     1bc:	00009400 	andeq	r9, r0, r0, lsl #8
     1c0:	00009800 	andeq	r9, r0, r0, lsl #16
     1c4:	52000100 	andpl	r0, r0, #0, 2
	...
     1d0:	000000b8 	strheq	r0, [r0], -r8
     1d4:	000000bc 	strheq	r0, [r0], -ip
     1d8:	00520001 	subseq	r0, r2, r1
     1dc:	00000000 	andeq	r0, r0, r0
     1e0:	dc000000 	stcle	0, cr0, [r0], {-0}
     1e4:	e0000000 	and	r0, r0, r0
     1e8:	01000000 	mrseq	r0, (UNDEF: 0)
     1ec:	00005200 	andeq	r5, r0, r0, lsl #4
     1f0:	00000000 	andeq	r0, r0, r0
     1f4:	01000000 	mrseq	r0, (UNDEF: 0)
     1f8:	01040000 	mrseq	r0, (UNDEF: 4)
     1fc:	00010000 	andeq	r0, r1, r0
     200:	00000052 	andeq	r0, r0, r2, asr r0
     204:	00000000 	andeq	r0, r0, r0
     208:	00012400 	andeq	r2, r1, r0, lsl #8
     20c:	00012800 	andeq	r2, r1, r0, lsl #16
     210:	52000100 	andpl	r0, r0, #0, 2
	...
     21c:	00000148 	andeq	r0, r0, r8, asr #2
     220:	0000014c 	andeq	r0, r0, ip, asr #2
     224:	00520001 	subseq	r0, r2, r1
     228:	00000000 	andeq	r0, r0, r0
     22c:	6c000000 	stcvs	0, cr0, [r0], {-0}
     230:	70000001 	andvc	r0, r0, r1
     234:	01000001 	tsteq	r0, r1
     238:	00005200 	andeq	r5, r0, r0, lsl #4
     23c:	00000000 	andeq	r0, r0, r0
     240:	01900000 	orrseq	r0, r0, r0
     244:	01940000 	orrseq	r0, r4, r0
     248:	00010000 	andeq	r0, r1, r0
     24c:	00000052 	andeq	r0, r0, r2, asr r0
     250:	00000000 	andeq	r0, r0, r0
     254:	0001ec00 	andeq	lr, r1, r0, lsl #24
     258:	0001fc00 	andeq	pc, r1, r0, lsl #24
     25c:	50000100 	andpl	r0, r0, r0, lsl #2
     260:	000001fc 	strdeq	r0, [r0], -ip
     264:	000003f8 	strdeq	r0, [r0], -r8
     268:	01f30004 	mvnseq	r0, r4
     26c:	00009f50 	andeq	r9, r0, r0, asr pc
     270:	00000000 	andeq	r0, r0, r0
     274:	01ec0000 	mvneq	r0, r0
     278:	03940000 	orrseq	r0, r4, #0
     27c:	00010000 	andeq	r0, r1, r0
     280:	00039451 	andeq	r9, r3, r1, asr r4
     284:	0003f800 	andeq	pc, r3, r0, lsl #16
     288:	f3000400 	vshl.u8	d0, d0, d0
     28c:	009f5101 	addseq	r5, pc, r1, lsl #2
     290:	00000000 	andeq	r0, r0, r0
     294:	ec000000 	stc	0, cr0, [r0], {-0}
     298:	d8000001 	stmdale	r0, {r0}
     29c:	01000003 	tsteq	r0, r3
     2a0:	03d85200 	bicseq	r5, r8, #0, 4
     2a4:	03f80000 	mvnseq	r0, #0
     2a8:	00040000 	andeq	r0, r4, r0
     2ac:	9f5201f3 	svcls	0x005201f3
	...
     2b8:	000001f4 	strdeq	r0, [r0], -r4
     2bc:	000003ec 	andeq	r0, r0, ip, ror #7
     2c0:	00530001 	subseq	r0, r3, r1
     2c4:	00000000 	andeq	r0, r0, r0
     2c8:	f4000000 	vst4.8	{d0-d3}, [r0], r0
     2cc:	fc000001 	stc2	0, cr0, [r0], {1}
     2d0:	01000001 	tsteq	r0, r1
     2d4:	01fc5000 	mvnseq	r5, r0
     2d8:	03f80000 	mvnseq	r0, #0
     2dc:	00040000 	andeq	r0, r4, r0
     2e0:	9f5001f3 	svcls	0x005001f3
	...
     2ec:	00000210 	andeq	r0, r0, r0, lsl r2
     2f0:	00000214 	andeq	r0, r0, r4, lsl r2
     2f4:	005c0001 	subseq	r0, ip, r1
     2f8:	00000000 	andeq	r0, r0, r0
     2fc:	1c000000 	stcne	0, cr0, [r0], {-0}
     300:	94000002 	strls	r0, [r0], #-2
     304:	08000003 	stmdaeq	r0, {r0, r1}
     308:	31007100 	mrscc	r7, (UNDEF: 16)
     30c:	1aff081a 	bne	fffc237c <__bss_end__+0xfffb8164>
     310:	0000009f 	muleq	r0, pc, r0	; <UNPREDICTABLE>
     314:	00000000 	andeq	r0, r0, r0
     318:	00022400 	andeq	r2, r2, r0, lsl #8
     31c:	00025800 	andeq	r5, r2, r0, lsl #16
     320:	71000800 	tstvc	r0, r0, lsl #16
     324:	081a3100 	ldmdaeq	sl, {r8, ip, sp}
     328:	589f1aff 	ldmpl	pc, {r0, r1, r2, r3, r4, r5, r6, r7, r9, fp, ip}	; <UNPREDICTABLE>
     32c:	8c000002 	stchi	0, cr0, [r0], {2}
     330:	08000002 	stmdaeq	r0, {r1}
     334:	32007100 	andcc	r7, r0, #0, 2
     338:	1aff081a 	bne	fffc23a8 <__bss_end__+0xfffb8190>
     33c:	00028c9f 	muleq	r2, pc, ip	; <UNPREDICTABLE>
     340:	0002c000 	andeq	ip, r2, r0
     344:	71000800 	tstvc	r0, r0, lsl #16
     348:	081a3400 	ldmdaeq	sl, {sl, ip, sp}
     34c:	c09f1aff 			; <UNDEFINED> instruction: 0xc09f1aff
     350:	f4000002 	vst4.8	{d0-d3}, [r0], r2
     354:	08000002 	stmdaeq	r0, {r1}
     358:	38007100 	stmdacc	r0, {r8, ip, sp, lr}
     35c:	1aff081a 	bne	fffc23cc <__bss_end__+0xfffb81b4>
     360:	0002f49f 	muleq	r2, pc, r4	; <UNPREDICTABLE>
     364:	00032c00 	andeq	r2, r3, r0, lsl #24
     368:	71000800 	tstvc	r0, r0, lsl #16
     36c:	081a4000 	ldmdaeq	sl, {lr}
     370:	2c9f1aff 	vldmiacs	pc, {s2-s256}
     374:	64000003 	strvs	r0, [r0], #-3
     378:	09000003 	stmdbeq	r0, {r0, r1}
     37c:	08007100 	stmdaeq	r0, {r8, ip, sp, lr}
     380:	ff081a20 			; <UNDEFINED> instruction: 0xff081a20
     384:	03649f1a 	cmneq	r4, #26, 30	; 0x68
     388:	03940000 	orrseq	r0, r4, #0
     38c:	00090000 	andeq	r0, r9, r0
     390:	40080071 	andmi	r0, r8, r1, ror r0
     394:	1aff081a 	bne	fffc2404 <__bss_end__+0xfffb81ec>
     398:	0003c09f 	muleq	r3, pc, r0	; <UNPREDICTABLE>
     39c:	0003f800 	andeq	pc, r3, r0, lsl #16
     3a0:	31000200 	mrscc	r0, R8_usr
     3a4:	0000009f 	muleq	r0, pc, r0	; <UNPREDICTABLE>
     3a8:	00000000 	andeq	r0, r0, r0
     3ac:	00024400 	andeq	r4, r2, r0, lsl #8
     3b0:	00024800 	andeq	r4, r2, r0, lsl #16
     3b4:	5c000100 	stfpls	f0, [r0], {-0}
	...
     3c0:	00000250 	andeq	r0, r0, r0, asr r2
     3c4:	00000394 	muleq	r0, r4, r3
     3c8:	00710008 	rsbseq	r0, r1, r8
     3cc:	ff081a32 			; <UNDEFINED> instruction: 0xff081a32
     3d0:	00009f1a 	andeq	r9, r0, sl, lsl pc
     3d4:	00000000 	andeq	r0, r0, r0
     3d8:	02580000 	subseq	r0, r8, #0
     3dc:	028c0000 	addeq	r0, ip, #0
     3e0:	00080000 	andeq	r0, r8, r0
     3e4:	1a320071 	bne	c805b0 <__bss_end__+0xc76398>
     3e8:	9f1aff08 	svcls	0x001aff08
     3ec:	0000028c 	andeq	r0, r0, ip, lsl #5
     3f0:	000002c0 	andeq	r0, r0, r0, asr #5
     3f4:	00710008 	rsbseq	r0, r1, r8
     3f8:	ff081a34 			; <UNDEFINED> instruction: 0xff081a34
     3fc:	02c09f1a 	sbceq	r9, r0, #26, 30	; 0x68
     400:	02f40000 	rscseq	r0, r4, #0
     404:	00080000 	andeq	r0, r8, r0
     408:	1a380071 	bne	e005d4 <__bss_end__+0xdf63bc>
     40c:	9f1aff08 	svcls	0x001aff08
     410:	000002f4 	strdeq	r0, [r0], -r4
     414:	0000032c 	andeq	r0, r0, ip, lsr #6
     418:	00710008 	rsbseq	r0, r1, r8
     41c:	ff081a40 			; <UNDEFINED> instruction: 0xff081a40
     420:	032c9f1a 	teqeq	ip, #26, 30	; 0x68
     424:	03640000 	cmneq	r4, #0
     428:	00090000 	andeq	r0, r9, r0
     42c:	20080071 	andcs	r0, r8, r1, ror r0
     430:	1aff081a 	bne	fffc24a0 <__bss_end__+0xfffb8288>
     434:	0003649f 	muleq	r3, pc, r4	; <UNPREDICTABLE>
     438:	00039400 	andeq	r9, r3, r0, lsl #8
     43c:	71000900 	tstvc	r0, r0, lsl #18
     440:	1a400800 	bne	1002448 <__bss_end__+0xff8230>
     444:	9f1aff08 	svcls	0x001aff08
     448:	000003c0 	andeq	r0, r0, r0, asr #7
     44c:	000003f8 	strdeq	r0, [r0], -r8
     450:	9f310002 	svcls	0x00310002
	...
     45c:	00000278 	andeq	r0, r0, r8, ror r2
     460:	0000027c 	andeq	r0, r0, ip, ror r2
     464:	005c0001 	subseq	r0, ip, r1
     468:	00000000 	andeq	r0, r0, r0
     46c:	84000000 	strhi	r0, [r0], #-0
     470:	94000002 	strls	r0, [r0], #-2
     474:	08000003 	stmdaeq	r0, {r0, r1}
     478:	34007100 	strcc	r7, [r0], #-256	; 0x100
     47c:	1aff081a 	bne	fffc24ec <__bss_end__+0xfffb82d4>
     480:	0000009f 	muleq	r0, pc, r0	; <UNPREDICTABLE>
     484:	00000000 	andeq	r0, r0, r0
     488:	00028c00 	andeq	r8, r2, r0, lsl #24
     48c:	0002c000 	andeq	ip, r2, r0
     490:	71000800 	tstvc	r0, r0, lsl #16
     494:	081a3400 	ldmdaeq	sl, {sl, ip, sp}
     498:	c09f1aff 			; <UNDEFINED> instruction: 0xc09f1aff
     49c:	f4000002 	vst4.8	{d0-d3}, [r0], r2
     4a0:	08000002 	stmdaeq	r0, {r1}
     4a4:	38007100 	stmdacc	r0, {r8, ip, sp, lr}
     4a8:	1aff081a 	bne	fffc2518 <__bss_end__+0xfffb8300>
     4ac:	0002f49f 	muleq	r2, pc, r4	; <UNPREDICTABLE>
     4b0:	00032c00 	andeq	r2, r3, r0, lsl #24
     4b4:	71000800 	tstvc	r0, r0, lsl #16
     4b8:	081a4000 	ldmdaeq	sl, {lr}
     4bc:	2c9f1aff 	vldmiacs	pc, {s2-s256}
     4c0:	64000003 	strvs	r0, [r0], #-3
     4c4:	09000003 	stmdbeq	r0, {r0, r1}
     4c8:	08007100 	stmdaeq	r0, {r8, ip, sp, lr}
     4cc:	ff081a20 			; <UNDEFINED> instruction: 0xff081a20
     4d0:	03649f1a 	cmneq	r4, #26, 30	; 0x68
     4d4:	03940000 	orrseq	r0, r4, #0
     4d8:	00090000 	andeq	r0, r9, r0
     4dc:	40080071 	andmi	r0, r8, r1, ror r0
     4e0:	1aff081a 	bne	fffc2550 <__bss_end__+0xfffb8338>
     4e4:	0003c09f 	muleq	r3, pc, r0	; <UNPREDICTABLE>
     4e8:	0003f800 	andeq	pc, r3, r0, lsl #16
     4ec:	31000200 	mrscc	r0, R8_usr
     4f0:	0000009f 	muleq	r0, pc, r0	; <UNPREDICTABLE>
     4f4:	00000000 	andeq	r0, r0, r0
     4f8:	0002ac00 	andeq	sl, r2, r0, lsl #24
     4fc:	0002b000 	andeq	fp, r2, r0
     500:	5c000100 	stfpls	f0, [r0], {-0}
	...
     50c:	000002b8 			; <UNDEFINED> instruction: 0x000002b8
     510:	00000394 	muleq	r0, r4, r3
     514:	00710008 	rsbseq	r0, r1, r8
     518:	ff081a38 			; <UNDEFINED> instruction: 0xff081a38
     51c:	00009f1a 	andeq	r9, r0, sl, lsl pc
     520:	00000000 	andeq	r0, r0, r0
     524:	02c00000 	sbceq	r0, r0, #0
     528:	02f40000 	rscseq	r0, r4, #0
     52c:	00080000 	andeq	r0, r8, r0
     530:	1a380071 	bne	e006fc <__bss_end__+0xdf64e4>
     534:	9f1aff08 	svcls	0x001aff08
     538:	000002f4 	strdeq	r0, [r0], -r4
     53c:	0000032c 	andeq	r0, r0, ip, lsr #6
     540:	00710008 	rsbseq	r0, r1, r8
     544:	ff081a40 			; <UNDEFINED> instruction: 0xff081a40
     548:	032c9f1a 	teqeq	ip, #26, 30	; 0x68
     54c:	03640000 	cmneq	r4, #0
     550:	00090000 	andeq	r0, r9, r0
     554:	20080071 	andcs	r0, r8, r1, ror r0
     558:	1aff081a 	bne	fffc25c8 <__bss_end__+0xfffb83b0>
     55c:	0003649f 	muleq	r3, pc, r4	; <UNPREDICTABLE>
     560:	00039400 	andeq	r9, r3, r0, lsl #8
     564:	71000900 	tstvc	r0, r0, lsl #18
     568:	1a400800 	bne	1002570 <__bss_end__+0xff8358>
     56c:	9f1aff08 	svcls	0x001aff08
     570:	000003c0 	andeq	r0, r0, r0, asr #7
     574:	000003f8 	strdeq	r0, [r0], -r8
     578:	9f310002 	svcls	0x00310002
	...
     584:	000002e0 	andeq	r0, r0, r0, ror #5
     588:	000002e4 	andeq	r0, r0, r4, ror #5
     58c:	005c0001 	subseq	r0, ip, r1
     590:	00000000 	andeq	r0, r0, r0
     594:	ec000000 	stc	0, cr0, [r0], {-0}
     598:	94000002 	strls	r0, [r0], #-2
     59c:	08000003 	stmdaeq	r0, {r0, r1}
     5a0:	40007100 	andmi	r7, r0, r0, lsl #2
     5a4:	1aff081a 	bne	fffc2614 <__bss_end__+0xfffb83fc>
     5a8:	0000009f 	muleq	r0, pc, r0	; <UNPREDICTABLE>
     5ac:	00000000 	andeq	r0, r0, r0
     5b0:	0002f400 	andeq	pc, r2, r0, lsl #8
     5b4:	00032c00 	andeq	r2, r3, r0, lsl #24
     5b8:	71000800 	tstvc	r0, r0, lsl #16
     5bc:	081a4000 	ldmdaeq	sl, {lr}
     5c0:	2c9f1aff 	vldmiacs	pc, {s2-s256}
     5c4:	64000003 	strvs	r0, [r0], #-3
     5c8:	09000003 	stmdbeq	r0, {r0, r1}
     5cc:	08007100 	stmdaeq	r0, {r8, ip, sp, lr}
     5d0:	ff081a20 			; <UNDEFINED> instruction: 0xff081a20
     5d4:	03649f1a 	cmneq	r4, #26, 30	; 0x68
     5d8:	03940000 	orrseq	r0, r4, #0
     5dc:	00090000 	andeq	r0, r9, r0
     5e0:	40080071 	andmi	r0, r8, r1, ror r0
     5e4:	1aff081a 	bne	fffc2654 <__bss_end__+0xfffb843c>
     5e8:	0003c09f 	muleq	r3, pc, r0	; <UNPREDICTABLE>
     5ec:	0003f800 	andeq	pc, r3, r0, lsl #16
     5f0:	31000200 	mrscc	r0, R8_usr
     5f4:	0000009f 	muleq	r0, pc, r0	; <UNPREDICTABLE>
     5f8:	00000000 	andeq	r0, r0, r0
     5fc:	00031800 	andeq	r1, r3, r0, lsl #16
     600:	00031c00 	andeq	r1, r3, r0, lsl #24
     604:	5c000100 	stfpls	f0, [r0], {-0}
	...
     610:	00000324 	andeq	r0, r0, r4, lsr #6
     614:	00000394 	muleq	r0, r4, r3
     618:	00710009 	rsbseq	r0, r1, r9
     61c:	081a2008 	ldmdaeq	sl, {r3, sp}
     620:	009f1aff 			; <UNDEFINED> instruction: 0x009f1aff
     624:	00000000 	andeq	r0, r0, r0
     628:	2c000000 	stccs	0, cr0, [r0], {-0}
     62c:	64000003 	strvs	r0, [r0], #-3
     630:	09000003 	stmdbeq	r0, {r0, r1}
     634:	08007100 	stmdaeq	r0, {r8, ip, sp, lr}
     638:	ff081a20 			; <UNDEFINED> instruction: 0xff081a20
     63c:	03649f1a 	cmneq	r4, #26, 30	; 0x68
     640:	03940000 	orrseq	r0, r4, #0
     644:	00090000 	andeq	r0, r9, r0
     648:	40080071 	andmi	r0, r8, r1, ror r0
     64c:	1aff081a 	bne	fffc26bc <__bss_end__+0xfffb84a4>
     650:	0003c09f 	muleq	r3, pc, r0	; <UNPREDICTABLE>
     654:	0003f800 	andeq	pc, r3, r0, lsl #16
     658:	31000200 	mrscc	r0, R8_usr
     65c:	0000009f 	muleq	r0, pc, r0	; <UNPREDICTABLE>
     660:	00000000 	andeq	r0, r0, r0
     664:	00035000 	andeq	r5, r3, r0
     668:	00035400 	andeq	r5, r3, r0, lsl #8
     66c:	5c000100 	stfpls	f0, [r0], {-0}
	...
     678:	0000035c 	andeq	r0, r0, ip, asr r3
     67c:	00000394 	muleq	r0, r4, r3
     680:	00710009 	rsbseq	r0, r1, r9
     684:	081a4008 	ldmdaeq	sl, {r3, lr}
     688:	009f1aff 			; <UNDEFINED> instruction: 0x009f1aff
     68c:	00000000 	andeq	r0, r0, r0
     690:	64000000 	strvs	r0, [r0], #-0
     694:	94000003 	strls	r0, [r0], #-3
     698:	09000003 	stmdbeq	r0, {r0, r1}
     69c:	08007100 	stmdaeq	r0, {r8, ip, sp, lr}
     6a0:	ff081a40 			; <UNDEFINED> instruction: 0xff081a40
     6a4:	03c09f1a 	biceq	r9, r0, #26, 30	; 0x68
     6a8:	03f80000 	mvnseq	r0, #0
     6ac:	00020000 	andeq	r0, r2, r0
     6b0:	00009f31 	andeq	r9, r0, r1, lsr pc
     6b4:	00000000 	andeq	r0, r0, r0
     6b8:	03800000 	orreq	r0, r0, #0
     6bc:	03840000 	orreq	r0, r4, #0
     6c0:	00010000 	andeq	r0, r1, r0
     6c4:	0000005c 	andeq	r0, r0, ip, asr r0
     6c8:	00000000 	andeq	r0, r0, r0
     6cc:	00038c00 	andeq	r8, r3, r0, lsl #24
     6d0:	00039400 	andeq	r9, r3, r0, lsl #8
     6d4:	71000900 	tstvc	r0, r0, lsl #18
     6d8:	1a800900 	bne	fe002ae0 <__bss_end__+0xfdff88c8>
     6dc:	9f1aff08 	svcls	0x001aff08
	...
     6e8:	000003c0 	andeq	r0, r0, r0, asr #7
     6ec:	000003f8 	strdeq	r0, [r0], -r8
     6f0:	9f310002 	svcls	0x00310002
	...
     6fc:	000003b4 			; <UNDEFINED> instruction: 0x000003b4
     700:	000003b8 			; <UNDEFINED> instruction: 0x000003b8
     704:	00510001 	subseq	r0, r1, r1
     708:	00000000 	andeq	r0, r0, r0
     70c:	dc000000 	stcle	0, cr0, [r0], {-0}
     710:	e0000003 	and	r0, r0, r3
     714:	01000003 	tsteq	r0, r3
     718:	00005200 	andeq	r5, r0, r0, lsl #4
     71c:	00000000 	andeq	r0, r0, r0
     720:	04300000 	ldrteq	r0, [r0], #-0
     724:	04500000 	ldrbeq	r0, [r0], #-0
     728:	00020000 	andeq	r0, r2, r0
     72c:	04509f30 	ldrbeq	r9, [r0], #-3888	; 0xf30
     730:	04900000 	ldreq	r0, [r0], #0
     734:	00010000 	andeq	r0, r1, r0
     738:	00000056 	andeq	r0, r0, r6, asr r0
     73c:	00000000 	andeq	r0, r0, r0
     740:	00043000 	andeq	r3, r4, r0
     744:	00043400 	andeq	r3, r4, r0, lsl #8
     748:	30000200 	andcc	r0, r0, r0, lsl #4
     74c:	0004349f 	muleq	r4, pc, r4	; <UNPREDICTABLE>
     750:	00049000 	andeq	r9, r4, r0
     754:	55000100 	strpl	r0, [r0, #-256]	; 0x100
	...
     760:	00000430 	andeq	r0, r0, r0, lsr r4
     764:	00000434 	andeq	r0, r0, r4, lsr r4
     768:	9f300002 	svcls	0x00300002
     76c:	00000444 	andeq	r0, r0, r4, asr #8
     770:	0000044c 	andeq	r0, r0, ip, asr #8
     774:	4c500001 	mrrcmi	0, 0, r0, r0, cr1	; <UNPREDICTABLE>
     778:	90000004 	andls	r0, r0, r4
     77c:	01000004 	tsteq	r0, r4
     780:	00005400 	andeq	r5, r0, r0, lsl #8
     784:	00000000 	andeq	r0, r0, r0
     788:	002c0000 	eoreq	r0, ip, r0
     78c:	00380000 	eorseq	r0, r8, r0
     790:	00010000 	andeq	r0, r1, r0
     794:	00003850 	andeq	r3, r0, r0, asr r8
     798:	00004800 	andeq	r4, r0, r0, lsl #16
     79c:	55000100 	strpl	r0, [r0, #-256]	; 0x100
     7a0:	00000048 	andeq	r0, r0, r8, asr #32
     7a4:	00000058 	andeq	r0, r0, r8, asr r0
     7a8:	00500001 	subseq	r0, r0, r1
	...
     7b4:	0b000000 	bleq	7bc <_start-0x7844>
     7b8:	01000000 	mrseq	r0, (UNDEF: 0)
     7bc:	000b5000 	andeq	r5, fp, r0
     7c0:	00140000 	andseq	r0, r4, r0
     7c4:	00010000 	andeq	r0, r1, r0
     7c8:	00000054 	andeq	r0, r0, r4, asr r0
	...
     7d4:	00001000 	andeq	r1, r0, r0
     7d8:	50000100 	andpl	r0, r0, r0, lsl #2
     7dc:	00000010 	andeq	r0, r0, r0, lsl r0
     7e0:	00000034 	andeq	r0, r0, r4, lsr r0
     7e4:	00540001 	subseq	r0, r4, r1
	...
     7f0:	04000000 	streq	r0, [r0], #-0
     7f4:	01000000 	mrseq	r0, (UNDEF: 0)
     7f8:	00045000 	andeq	r5, r4, r0
     7fc:	000c0000 	andeq	r0, ip, r0
     800:	00030000 	andeq	r0, r3, r0
     804:	0c9f3070 	ldceq	0, cr3, [pc], {112}	; 0x70
     808:	14000000 	strne	r0, [r0], #-0
     80c:	04000000 	streq	r0, [r0], #-0
     810:	5001f300 	andpl	pc, r1, r0, lsl #6
     814:	0000009f 	muleq	r0, pc, r0	; <UNPREDICTABLE>
     818:	00000000 	andeq	r0, r0, r0
     81c:	00001400 	andeq	r1, r0, r0, lsl #8
     820:	00002000 	andeq	r2, r0, r0
     824:	50000100 	andpl	r0, r0, r0, lsl #2
     828:	00000020 	andeq	r0, r0, r0, lsr #32
     82c:	0000002c 	andeq	r0, r0, ip, lsr #32
     830:	01700003 	cmneq	r0, r3
     834:	00002c9f 	muleq	r0, pc, ip	; <UNPREDICTABLE>
     838:	00004000 	andeq	r4, r0, r0
     83c:	50000100 	andpl	r0, r0, r0, lsl #2
	...
     848:	00000014 	andeq	r0, r0, r4, lsl r0
     84c:	00000018 	andeq	r0, r0, r8, lsl r0
     850:	18510001 	ldmdane	r1, {r0}^
     854:	40000000 	andmi	r0, r0, r0
     858:	04000000 	streq	r0, [r0], #-0
     85c:	5101f300 	mrspl	pc, SP_irq	; <UNPREDICTABLE>
     860:	0000009f 	muleq	r0, pc, r0	; <UNPREDICTABLE>
     864:	00000000 	andeq	r0, r0, r0
     868:	00004000 	andeq	r4, r0, r0
     86c:	00006000 	andeq	r6, r0, r0
     870:	50000100 	andpl	r0, r0, r0, lsl #2
     874:	00000060 	andeq	r0, r0, r0, rrx
     878:	0000006c 	andeq	r0, r0, ip, rrx
     87c:	01710003 	cmneq	r1, r3
     880:	00006c9f 	muleq	r0, pc, ip	; <UNPREDICTABLE>
     884:	00007400 	andeq	r7, r0, r0, lsl #8
     888:	51000100 	mrspl	r0, (UNDEF: 16)
     88c:	00000074 	andeq	r0, r0, r4, ror r0
     890:	00000080 	andeq	r0, r0, r0, lsl #1
     894:	01710003 	cmneq	r1, r3
     898:	0000009f 	muleq	r0, pc, r0	; <UNPREDICTABLE>
     89c:	00000000 	andeq	r0, r0, r0
     8a0:	00004000 	andeq	r4, r0, r0
     8a4:	00005000 	andeq	r5, r0, r0
     8a8:	51000100 	mrspl	r0, (UNDEF: 16)
     8ac:	00000050 	andeq	r0, r0, r0, asr r0
     8b0:	00000080 	andeq	r0, r0, r0, lsl #1
     8b4:	01f30004 	mvnseq	r0, r4
     8b8:	00009f51 	andeq	r9, r0, r1, asr pc
     8bc:	00000000 	andeq	r0, r0, r0
     8c0:	00400000 	subeq	r0, r0, r0
     8c4:	00580000 	subseq	r0, r8, r0
     8c8:	00010000 	andeq	r0, r1, r0
     8cc:	00005852 	andeq	r5, r0, r2, asr r8
     8d0:	00006400 	andeq	r6, r0, r0, lsl #8
     8d4:	52000100 	andpl	r0, r0, #0, 2
     8d8:	00000064 	andeq	r0, r0, r4, rrx
     8dc:	00000068 	andeq	r0, r0, r8, rrx
     8e0:	01720003 	cmneq	r2, r3
     8e4:	0000689f 	muleq	r0, pc, r8	; <UNPREDICTABLE>
     8e8:	00008000 	andeq	r8, r0, r0
     8ec:	52000100 	andpl	r0, r0, #0, 2
	...
     8f8:	00000040 	andeq	r0, r0, r0, asr #32
     8fc:	00000054 	andeq	r0, r0, r4, asr r0
     900:	54530001 	ldrbpl	r0, [r3], #-1
     904:	78000000 	stmdavc	r0, {}	; <UNPREDICTABLE>
     908:	01000000 	mrseq	r0, (UNDEF: 0)
     90c:	00005300 	andeq	r5, r0, r0, lsl #6
     910:	00000000 	andeq	r0, r0, r0
     914:	00480000 	subeq	r0, r8, r0
     918:	00600000 	rsbeq	r0, r0, r0
     91c:	00010000 	andeq	r0, r1, r0
     920:	0000605c 	andeq	r6, r0, ip, asr r0
     924:	00008000 	andeq	r8, r0, r0
     928:	f3000a00 	vpmax.u8	d0, d0, d0
     92c:	01f35201 	mvnseq	r5, r1, lsl #4
     930:	01231c53 	teqeq	r3, r3, asr ip
     934:	0000009f 	muleq	r0, pc, r0	; <UNPREDICTABLE>
     938:	00000000 	andeq	r0, r0, r0
     93c:	00008000 	andeq	r8, r0, r0
     940:	0000a400 	andeq	sl, r0, r0, lsl #8
     944:	50000100 	andpl	r0, r0, r0, lsl #2
     948:	000000a4 	andeq	r0, r0, r4, lsr #1
     94c:	00000118 	andeq	r0, r0, r8, lsl r1
     950:	02700003 	rsbseq	r0, r0, #3
     954:	0001189f 	muleq	r1, pc, r8	; <UNPREDICTABLE>
     958:	00022800 	andeq	r2, r2, r0, lsl #16
     95c:	f3000400 	vshl.u8	d0, d0, d0
     960:	009f5001 	addseq	r5, pc, r1
     964:	00000000 	andeq	r0, r0, r0
     968:	80000000 	andhi	r0, r0, r0
     96c:	f0000000 			; <UNDEFINED> instruction: 0xf0000000
     970:	01000000 	mrseq	r0, (UNDEF: 0)
     974:	00f05100 	rscseq	r5, r0, r0, lsl #2
     978:	01600000 	cmneq	r0, r0
     97c:	00010000 	andeq	r0, r1, r0
     980:	00016055 	andeq	r6, r1, r5, asr r0
     984:	00016800 	andeq	r6, r1, r0, lsl #16
     988:	51000100 	mrspl	r0, (UNDEF: 16)
     98c:	00000168 	andeq	r0, r0, r8, ror #2
     990:	00000188 	andeq	r0, r0, r8, lsl #3
     994:	88550001 	ldmdahi	r5, {r0}^
     998:	9c000001 	stcls	0, cr0, [r0], {1}
     99c:	01000001 	tsteq	r0, r1
     9a0:	019c5100 	orrseq	r5, ip, r0, lsl #2
     9a4:	01bc0000 			; <UNDEFINED> instruction: 0x01bc0000
     9a8:	00010000 	andeq	r0, r1, r0
     9ac:	0001bc55 	andeq	fp, r1, r5, asr ip
     9b0:	0001bf00 	andeq	fp, r1, r0, lsl #30
     9b4:	51000100 	mrspl	r0, (UNDEF: 16)
     9b8:	000001bf 			; <UNDEFINED> instruction: 0x000001bf
     9bc:	00000208 	andeq	r0, r0, r8, lsl #4
     9c0:	08550001 	ldmdaeq	r5, {r0}^
     9c4:	28000002 	stmdacs	r0, {r1}
     9c8:	04000002 	streq	r0, [r0], #-2
     9cc:	5101f300 	mrspl	pc, SP_irq	; <UNPREDICTABLE>
     9d0:	0000009f 	muleq	r0, pc, r0	; <UNPREDICTABLE>
     9d4:	00000000 	andeq	r0, r0, r0
     9d8:	00008000 	andeq	r8, r0, r0
     9dc:	00009400 	andeq	r9, r0, r0, lsl #8
     9e0:	52000100 	andpl	r0, r0, #0, 2
     9e4:	00000094 	muleq	r0, r4, r0
     9e8:	00000208 	andeq	r0, r0, r8, lsl #4
     9ec:	08540001 	ldmdaeq	r4, {r0}^
     9f0:	28000002 	stmdacs	r0, {r1}
     9f4:	04000002 	streq	r0, [r0], #-2
     9f8:	5201f300 	andpl	pc, r1, #0, 6
     9fc:	0000009f 	muleq	r0, pc, r0	; <UNPREDICTABLE>
     a00:	00000000 	andeq	r0, r0, r0
     a04:	00008000 	andeq	r8, r0, r0
     a08:	00010000 	andeq	r0, r1, r0
     a0c:	53000100 	movwpl	r0, #256	; 0x100
     a10:	00000104 	andeq	r0, r0, r4, lsl #2
     a14:	00000108 	andeq	r0, r0, r8, lsl #2
     a18:	60530001 	subsvs	r0, r3, r1
     a1c:	68000001 	stmdavs	r0, {r0}
     a20:	01000001 	tsteq	r0, r1
     a24:	01685300 	cmneq	r8, r0, lsl #6
     a28:	01880000 	orreq	r0, r8, r0
     a2c:	00040000 	andeq	r0, r4, r0
     a30:	9f5301f3 	svcls	0x005301f3
     a34:	00000188 	andeq	r0, r0, r8, lsl #3
     a38:	00000190 	muleq	r0, r0, r1
     a3c:	90530001 	subsls	r0, r3, r1
     a40:	94000001 	strls	r0, [r0], #-1
     a44:	01000001 	tsteq	r0, r1
     a48:	01945c00 	orrseq	r5, r4, r0, lsl #24
     a4c:	019c0000 	orrseq	r0, ip, r0
     a50:	00010000 	andeq	r0, r1, r0
     a54:	00019c53 	andeq	r9, r1, r3, asr ip
     a58:	0001bc00 	andeq	fp, r1, r0, lsl #24
     a5c:	f3000400 	vshl.u8	d0, d0, d0
     a60:	bc9f5301 	ldclt	3, cr5, [pc], {1}
     a64:	bf000001 	svclt	0x00000001
     a68:	01000001 	tsteq	r0, r1
     a6c:	01bf5300 			; <UNDEFINED> instruction: 0x01bf5300
     a70:	01e00000 	mvneq	r0, r0
     a74:	00040000 	andeq	r0, r4, r0
     a78:	9f5301f3 	svcls	0x005301f3
	...
     a84:	00000080 	andeq	r0, r0, r0, lsl #1
     a88:	0000009c 	muleq	r0, ip, r0
     a8c:	00910002 	addseq	r0, r1, r2
     a90:	0000009c 	muleq	r0, ip, r0
     a94:	000001bf 			; <UNDEFINED> instruction: 0x000001bf
     a98:	e0520001 	subs	r0, r2, r1
     a9c:	eb000001 	bl	aa8 <_start-0x7558>
     aa0:	01000001 	tsteq	r0, r1
     aa4:	00005200 	andeq	r5, r0, r0, lsl #4
     aa8:	00000000 	andeq	r0, r0, r0
     aac:	009c0000 	addseq	r0, ip, r0
     ab0:	010c0000 	mrseq	r0, (UNDEF: 12)
     ab4:	00040000 	andeq	r0, r4, r0
     ab8:	9f7fa091 	svcls	0x007fa091
     abc:	0000010c 	andeq	r0, r0, ip, lsl #2
     ac0:	00000118 	andeq	r0, r0, r8, lsl r1
     ac4:	18510001 	ldmdane	r1, {r0}^
     ac8:	1c000001 	stcne	0, cr0, [r0], {1}
     acc:	01000001 	tsteq	r0, r1
     ad0:	011c5300 	tsteq	ip, r0, lsl #6
     ad4:	01200000 	teqeq	r0, r0
     ad8:	00010000 	andeq	r0, r1, r0
     adc:	00012051 	andeq	r2, r1, r1, asr r0
     ae0:	00016000 	andeq	r6, r1, r0
     ae4:	53000100 	movwpl	r0, #256	; 0x100
     ae8:	00000160 	andeq	r0, r0, r0, ror #2
     aec:	00000164 	andeq	r0, r0, r4, ror #2
     af0:	a0910004 	addsge	r0, r1, r4
     af4:	01649f7f 	smceq	18943	; 0x49ff
     af8:	016c0000 	cmneq	ip, r0
     afc:	00010000 	andeq	r0, r1, r0
     b00:	00016c5e 	andeq	r6, r1, lr, asr ip
     b04:	00018800 	andeq	r8, r1, r0, lsl #16
     b08:	53000100 	movwpl	r0, #256	; 0x100
     b0c:	00000188 	andeq	r0, r0, r8, lsl #3
     b10:	00000190 	muleq	r0, r0, r1
     b14:	a1910004 	orrsge	r0, r1, r4
     b18:	01909f7f 	orrseq	r9, r0, pc, ror pc
     b1c:	01940000 	orrseq	r0, r4, r0
     b20:	00010000 	andeq	r0, r1, r0
     b24:	00019453 	andeq	r9, r1, r3, asr r4
     b28:	00019800 	andeq	r9, r1, r0, lsl #16
     b2c:	91000400 	tstls	r0, r0, lsl #8
     b30:	989f7fa0 	ldmls	pc, {r5, r7, r8, r9, sl, fp, ip, sp, lr}	; <UNPREDICTABLE>
     b34:	a0000001 	andge	r0, r0, r1
     b38:	01000001 	tsteq	r0, r1
     b3c:	01a05e00 	lsleq	r5, r0, #28
     b40:	01bc0000 			; <UNDEFINED> instruction: 0x01bc0000
     b44:	00010000 	andeq	r0, r1, r0
     b48:	0001bc53 	andeq	fp, r1, r3, asr ip
     b4c:	0001e000 	andeq	lr, r1, r0
     b50:	91000400 	tstls	r0, r0, lsl #8
     b54:	e09f7fa0 	adds	r7, pc, r0, lsr #31
     b58:	eb000001 	bl	b64 <_start-0x749c>
     b5c:	01000001 	tsteq	r0, r1
     b60:	00005300 	andeq	r5, r0, r0, lsl #6
     b64:	00000000 	andeq	r0, r0, r0
     b68:	00a00000 	adceq	r0, r0, r0
     b6c:	00ec0000 	rsceq	r0, ip, r0
     b70:	00010000 	andeq	r0, r1, r0
     b74:	0000ec5c 	andeq	lr, r0, ip, asr ip
     b78:	00010000 	andeq	r0, r1, r0
     b7c:	53000100 	movwpl	r0, #256	; 0x100
     b80:	00000100 	andeq	r0, r0, r0, lsl #2
     b84:	00000104 	andeq	r0, r0, r4, lsl #2
     b88:	045c0001 	ldrbeq	r0, [ip], #-1
     b8c:	08000001 	stmdaeq	r0, {r0}
     b90:	01000001 	tsteq	r0, r1
     b94:	01085300 	mrseq	r5, (UNDEF: 56)
     b98:	01180000 	tsteq	r8, r0
     b9c:	00010000 	andeq	r0, r1, r0
     ba0:	0001185c 	andeq	r1, r1, ip, asr r8
     ba4:	00011c00 	andeq	r1, r1, r0, lsl #24
     ba8:	50000100 	andpl	r0, r0, r0, lsl #2
     bac:	0000011c 	andeq	r0, r0, ip, lsl r1
     bb0:	0000013c 	andeq	r0, r0, ip, lsr r1
     bb4:	445c0001 	ldrbmi	r0, [ip], #-1
     bb8:	58000001 	stmdapl	r0, {r0}
     bbc:	01000001 	tsteq	r0, r1
     bc0:	01585000 	cmpeq	r8, r0
     bc4:	01600000 	cmneq	r0, r0
     bc8:	00010000 	andeq	r0, r1, r0
     bcc:	0001605c 	andeq	r6, r1, ip, asr r0
     bd0:	00016800 	andeq	r6, r1, r0, lsl #16
     bd4:	53000100 	movwpl	r0, #256	; 0x100
     bd8:	00000168 	andeq	r0, r0, r8, ror #2
     bdc:	00000178 	andeq	r0, r0, r8, ror r1
     be0:	785c0001 	ldmdavc	ip, {r0}^
     be4:	80000001 	andhi	r0, r0, r1
     be8:	05000001 	streq	r0, [r0, #-1]
     bec:	34007c00 	strcc	r7, [r0], #-3072	; 0xc00
     bf0:	01809f25 	orreq	r9, r0, r5, lsr #30
     bf4:	01880000 	orreq	r0, r8, r0
     bf8:	00010000 	andeq	r0, r1, r0
     bfc:	0001885c 	andeq	r8, r1, ip, asr r8
     c00:	00019000 	andeq	r9, r1, r0
     c04:	53000100 	movwpl	r0, #256	; 0x100
     c08:	00000190 	muleq	r0, r0, r1
     c0c:	00000194 	muleq	r0, r4, r1
     c10:	945c0001 	ldrbls	r0, [ip], #-1
     c14:	9c000001 	stcls	0, cr0, [r0], {1}
     c18:	01000001 	tsteq	r0, r1
     c1c:	019c5300 	orrseq	r5, ip, r0, lsl #6
     c20:	01ac0000 			; <UNDEFINED> instruction: 0x01ac0000
     c24:	00010000 	andeq	r0, r1, r0
     c28:	0001ac5c 	andeq	sl, r1, ip, asr ip
     c2c:	0001b400 	andeq	fp, r1, r0, lsl #8
     c30:	7c000500 	cfstr32vc	mvfx0, [r0], {-0}
     c34:	9f253100 	svcls	0x00253100
     c38:	000001b4 			; <UNDEFINED> instruction: 0x000001b4
     c3c:	000001bc 			; <UNDEFINED> instruction: 0x000001bc
     c40:	bc5c0001 	mrrclt	0, 0, r0, ip, cr1
     c44:	bf000001 	svclt	0x00000001
     c48:	01000001 	tsteq	r0, r1
     c4c:	01bf5300 			; <UNDEFINED> instruction: 0x01bf5300
     c50:	01e00000 	mvneq	r0, r0
     c54:	00040000 	andeq	r0, r4, r0
     c58:	9f5301f3 	svcls	0x005301f3
     c5c:	000001e0 	andeq	r0, r0, r0, ror #3
     c60:	000001eb 	andeq	r0, r0, fp, ror #3
     c64:	005c0001 	subseq	r0, ip, r1
     c68:	00000000 	andeq	r0, r0, r0
     c6c:	ec000000 	stc	0, cr0, [r0], {-0}
     c70:	fc000000 	stc2	0, cr0, [r0], {-0}
     c74:	02000000 	andeq	r0, r0, #0
     c78:	fc9f3000 	ldc2	0, cr3, [pc], {0}
     c7c:	04000000 	streq	r0, [r0], #-0
     c80:	02000001 	andeq	r0, r0, #1
     c84:	049f3100 	ldreq	r3, [pc], #256	; c8c <_start-0x7374>
     c88:	08000001 	stmdaeq	r0, {r0}
     c8c:	02000001 	andeq	r0, r0, #1
     c90:	009f3000 	addseq	r3, pc, r0
     c94:	00000000 	andeq	r0, r0, r0
     c98:	28000000 	stmdacs	r0, {}	; <UNPREDICTABLE>
     c9c:	3b000002 	blcc	cac <_start-0x7354>
     ca0:	01000002 	tsteq	r0, r2
     ca4:	023b5000 	eorseq	r5, fp, #0
     ca8:	025c0000 	subseq	r0, ip, #0
     cac:	00040000 	andeq	r0, r4, r0
     cb0:	9f5001f3 	svcls	0x005001f3
     cb4:	0000025c 	andeq	r0, r0, ip, asr r2
     cb8:	00000290 	muleq	r0, r0, r2
     cbc:	00500001 	subseq	r0, r0, r1
     cc0:	00000000 	andeq	r0, r0, r0
     cc4:	28000000 	stmdacs	r0, {}	; <UNPREDICTABLE>
     cc8:	3b000002 	blcc	cd8 <_start-0x7328>
     ccc:	01000002 	tsteq	r0, r2
     cd0:	023b5100 	eorseq	r5, fp, #0, 2
     cd4:	025c0000 	subseq	r0, ip, #0
     cd8:	00040000 	andeq	r0, r4, r0
     cdc:	9f5101f3 	svcls	0x005101f3
     ce0:	0000025c 	andeq	r0, r0, ip, asr r2
     ce4:	00000290 	muleq	r0, r0, r2
     ce8:	00510001 	subseq	r0, r1, r1
     cec:	00000000 	andeq	r0, r0, r0
     cf0:	90000000 	andls	r0, r0, r0
     cf4:	bc000002 	stclt	0, cr0, [r0], {2}
     cf8:	01000002 	tsteq	r0, r2
     cfc:	02bc5000 	adcseq	r5, ip, #0
     d00:	050c0000 	streq	r0, [ip, #-0]
     d04:	00010000 	andeq	r0, r1, r0
     d08:	00050c5a 	andeq	r0, r5, sl, asr ip
     d0c:	00052400 	andeq	r2, r5, r0, lsl #8
     d10:	f3000400 	vshl.u8	d0, d0, d0
     d14:	009f5001 	addseq	r5, pc, r1
     d18:	00000000 	andeq	r0, r0, r0
     d1c:	90000000 	andls	r0, r0, r0
     d20:	a4000002 	strge	r0, [r0], #-2
     d24:	01000002 	tsteq	r0, r2
     d28:	02a45100 	adceq	r5, r4, #0, 2
     d2c:	02bc0000 	adcseq	r0, ip, #0
     d30:	00030000 	andeq	r0, r3, r0
     d34:	bc9f0171 	ldflts	f0, [pc], {113}	; 0x71
     d38:	24000002 	strcs	r0, [r0], #-2
     d3c:	04000005 	streq	r0, [r0], #-5
     d40:	5101f300 	mrspl	pc, SP_irq	; <UNPREDICTABLE>
     d44:	0000009f 	muleq	r0, pc, r0	; <UNPREDICTABLE>
     d48:	00000000 	andeq	r0, r0, r0
     d4c:	00029000 	andeq	r9, r2, r0
     d50:	0002c400 	andeq	ip, r2, r0, lsl #8
     d54:	52000100 	andpl	r0, r0, #0, 2
     d58:	000002c4 	andeq	r0, r0, r4, asr #5
     d5c:	000002ec 	andeq	r0, r0, ip, ror #5
     d60:	ec520001 	mrrc	0, 0, r0, r2, cr1
     d64:	bc000002 	stclt	0, cr0, [r0], {2}
     d68:	01000004 	tsteq	r0, r4
     d6c:	04bc5600 	ldrteq	r5, [ip], #1536	; 0x600
     d70:	05240000 	streq	r0, [r4, #-0]!
     d74:	00010000 	andeq	r0, r1, r0
     d78:	00000052 	andeq	r0, r0, r2, asr r0
     d7c:	00000000 	andeq	r0, r0, r0
     d80:	00029000 	andeq	r9, r2, r0
     d84:	0002ac00 	andeq	sl, r2, r0, lsl #24
     d88:	53000100 	movwpl	r0, #256	; 0x100
	...
     d94:	000002a0 	andeq	r0, r0, r0, lsr #5
     d98:	000002bc 			; <UNDEFINED> instruction: 0x000002bc
     d9c:	bc500001 	mrrclt	0, 0, r0, r0, cr1	; <UNPREDICTABLE>
     da0:	c0000002 	andgt	r0, r0, r2
     da4:	01000002 	tsteq	r0, r2
     da8:	02c05400 	sbceq	r5, r0, #0, 8
     dac:	02cc0000 	sbceq	r0, ip, #0
     db0:	00030000 	andeq	r0, r3, r0
     db4:	cc9f0174 	ldfgts	f0, [pc], {116}	; 0x74
     db8:	d8000002 	stmdale	r0, {r1}
     dbc:	01000002 	tsteq	r0, r2
     dc0:	02d85400 	sbcseq	r5, r8, #0, 8
     dc4:	02e40000 	rsceq	r0, r4, #0
     dc8:	00030000 	andeq	r0, r3, r0
     dcc:	e49f0174 	ldr	r0, [pc], #372	; dd4 <_start-0x722c>
     dd0:	c0000002 	andgt	r0, r0, r2
     dd4:	01000004 	tsteq	r0, r4
     dd8:	04c05400 	strbeq	r5, [r0], #1024	; 0x400
     ddc:	04cc0000 	strbeq	r0, [ip], #0
     de0:	00030000 	andeq	r0, r3, r0
     de4:	cc9f0174 	ldfgts	f0, [pc], {116}	; 0x74
     de8:	f8000004 			; <UNDEFINED> instruction: 0xf8000004
     dec:	01000004 	tsteq	r0, r4
     df0:	04f85400 	ldrbteq	r5, [r8], #1024	; 0x400
     df4:	05040000 	streq	r0, [r4, #-0]
     df8:	00010000 	andeq	r0, r1, r0
     dfc:	00050450 	andeq	r0, r5, r0, asr r4
     e00:	00050c00 	andeq	r0, r5, r0, lsl #24
     e04:	74000300 	strvc	r0, [r0], #-768	; 0x300
     e08:	00009f01 	andeq	r9, r0, r1, lsl #30
     e0c:	00000000 	andeq	r0, r0, r0
     e10:	02a80000 	adceq	r0, r8, #0
     e14:	050c0000 	streq	r0, [ip, #-0]
     e18:	00010000 	andeq	r0, r1, r0
     e1c:	00050c58 	andeq	r0, r5, r8, asr ip
     e20:	00052400 	andeq	r2, r5, r0, lsl #8
     e24:	f3000a00 	vpmax.u8	d0, d0, d0
     e28:	01f35101 	mvnseq	r5, r1, lsl #2
     e2c:	1c312250 	lfmne	f2, 4, [r1], #-320	; 0xfffffec0
     e30:	0000009f 	muleq	r0, pc, r0	; <UNPREDICTABLE>
     e34:	00000000 	andeq	r0, r0, r0
     e38:	0003f400 	andeq	pc, r3, r0, lsl #8
     e3c:	0003f800 	andeq	pc, r3, r0, lsl #16
     e40:	50000100 	andpl	r0, r0, r0, lsl #2
     e44:	00000418 	andeq	r0, r0, r8, lsl r4
     e48:	0000041c 	andeq	r0, r0, ip, lsl r4
     e4c:	3c500001 	mrrccc	0, 0, r0, r0, cr1	; <UNPREDICTABLE>
     e50:	40000004 	andmi	r0, r0, r4
     e54:	01000004 	tsteq	r0, r4
     e58:	04605000 	strbteq	r5, [r0], #-0
     e5c:	04640000 	strbteq	r0, [r4], #-0
     e60:	00010000 	andeq	r0, r1, r0
     e64:	00046c50 	andeq	r6, r4, r0, asr ip
     e68:	00047000 	andeq	r7, r4, r0
     e6c:	50000100 	andpl	r0, r0, r0, lsl #2
     e70:	00000490 	muleq	r0, r0, r4
     e74:	00000494 	muleq	r0, r4, r4
     e78:	b8500001 	ldmdalt	r0, {r0}^
     e7c:	e0000004 	and	r0, r0, r4
     e80:	01000004 	tsteq	r0, r4
     e84:	00005000 	andeq	r5, r0, r0
     e88:	00000000 	andeq	r0, r0, r0
     e8c:	02ec0000 	rsceq	r0, ip, #0
     e90:	02f40000 	rscseq	r0, r4, #0
     e94:	00020000 	andeq	r0, r2, r0
     e98:	02f49f30 	rscseq	r9, r4, #48, 30	; 0xc0
     e9c:	02f80000 	rscseq	r0, r8, #0
     ea0:	00010000 	andeq	r0, r1, r0
     ea4:	00030457 	andeq	r0, r3, r7, asr r4
     ea8:	0004e000 	andeq	lr, r4, r0
     eac:	57000100 	strpl	r0, [r0, -r0, lsl #2]
	...
     eb8:	00000004 	andeq	r0, r0, r4
     ebc:	00000008 	andeq	r0, r0, r8
     ec0:	00730007 	rsbseq	r0, r3, r7
     ec4:	2110000a 	tstcs	r0, sl
     ec8:	0000089f 	muleq	r0, pc, r8	; <UNPREDICTABLE>
     ecc:	00001000 	andeq	r1, r0, r0
     ed0:	53000100 	movwpl	r0, #256	; 0x100
	...
     edc:	00000014 	andeq	r0, r0, r4, lsl r0
     ee0:	00000018 	andeq	r0, r0, r8, lsl r0
     ee4:	00730007 	rsbseq	r0, r3, r7
     ee8:	1aefff0b 	bne	ffc00b1c <__bss_end__+0xffbf6904>
     eec:	0000189f 	muleq	r0, pc, r8	; <UNPREDICTABLE>
     ef0:	00002000 	andeq	r2, r0, r0
     ef4:	53000100 	movwpl	r0, #256	; 0x100
	...
     f04:	0000000c 	andeq	r0, r0, ip
     f08:	0c500001 	mrrceq	0, 0, r0, r0, cr1	; <UNPREDICTABLE>
     f0c:	20000000 	andcs	r0, r0, r0
     f10:	01000000 	mrseq	r0, (UNDEF: 0)
     f14:	00005400 	andeq	r5, r0, r0, lsl #8
     f18:	00000000 	andeq	r0, r0, r0
     f1c:	00340000 	eorseq	r0, r4, r0
     f20:	003c0000 	eorseq	r0, ip, r0
     f24:	00030000 	andeq	r0, r3, r0
     f28:	3c9f0473 	cfldrscc	mvf0, [pc], {115}	; 0x73
     f2c:	47000000 	strmi	r0, [r0, -r0]
     f30:	01000000 	mrseq	r0, (UNDEF: 0)
     f34:	00005300 	andeq	r5, r0, r0, lsl #6
     f38:	00000000 	andeq	r0, r0, r0
     f3c:	00480000 	subeq	r0, r8, r0
     f40:	00740000 	rsbseq	r0, r4, r0
     f44:	00010000 	andeq	r0, r1, r0
     f48:	00007450 	andeq	r7, r0, r0, asr r4
     f4c:	00008300 	andeq	r8, r0, r0, lsl #6
     f50:	73000300 	movwvc	r0, #768	; 0x300
     f54:	00009f78 	andeq	r9, r0, r8, ror pc
     f58:	00000000 	andeq	r0, r0, r0
     f5c:	8b840000 	blhi	fe100f64 <__bss_end__+0xfe0f6d4c>
     f60:	8b880000 	blhi	fe200f68 <__bss_end__+0xfe1f6d50>
     f64:	00020000 	andeq	r0, r2, r0
     f68:	8b889f30 	blhi	fe228c30 <__bss_end__+0xfe21ea18>
     f6c:	8b8c0000 	blhi	fe300f74 <__bss_end__+0xfe2f6d5c>
     f70:	00010000 	andeq	r0, r1, r0
     f74:	00000050 	andeq	r0, r0, r0, asr r0
     f78:	00000000 	andeq	r0, r0, r0
     f7c:	008b9c00 	addeq	r9, fp, r0, lsl #24
     f80:	008ba000 	addeq	sl, fp, r0
     f84:	30000200 	andcc	r0, r0, r0, lsl #4
     f88:	008ba09f 	umulleq	sl, fp, pc, r0	; <UNPREDICTABLE>
     f8c:	008ba400 	addeq	sl, fp, r0, lsl #8
     f90:	53000100 	movwpl	r0, #256	; 0x100
     f94:	00008ba8 	andeq	r8, r0, r8, lsr #23
     f98:	00008bb0 			; <UNDEFINED> instruction: 0x00008bb0
     f9c:	00530001 	subseq	r0, r3, r1
	...
     fa8:	04000000 	streq	r0, [r0], #-0
     fac:	01000000 	mrseq	r0, (UNDEF: 0)
     fb0:	00045000 	andeq	r5, r4, r0
     fb4:	000c0000 	andeq	r0, ip, r0
     fb8:	00010000 	andeq	r0, r1, r0
     fbc:	00000c53 	andeq	r0, r0, r3, asr ip
     fc0:	00001000 	andeq	r1, r0, r0
     fc4:	50000100 	andpl	r0, r0, r0, lsl #2
     fc8:	00000010 	andeq	r0, r0, r0, lsl r0
     fcc:	0000001c 	andeq	r0, r0, ip, lsl r0
     fd0:	00530001 	subseq	r0, r3, r1
     fd4:	00000000 	andeq	r0, r0, r0
     fd8:	3c000000 	stccc	0, cr0, [r0], {-0}
     fdc:	47000000 	strmi	r0, [r0, -r0]
     fe0:	01000000 	mrseq	r0, (UNDEF: 0)
     fe4:	00475000 	subeq	r5, r7, r0
     fe8:	00600000 	rsbeq	r0, r0, r0
     fec:	00010000 	andeq	r0, r1, r0
     ff0:	00000055 	andeq	r0, r0, r5, asr r0
     ff4:	00000000 	andeq	r0, r0, r0
     ff8:	00005000 	andeq	r5, r0, r0
     ffc:	00005400 	andeq	r5, r0, r0, lsl #8
    1000:	50000100 	andpl	r0, r0, r0, lsl #2
	...
    100c:	00000060 	andeq	r0, r0, r0, rrx
    1010:	0000006c 	andeq	r0, r0, ip, rrx
    1014:	6c500001 	mrrcvs	0, 0, r0, r0, cr1	; <UNPREDICTABLE>
    1018:	74000000 	strvc	r0, [r0], #-0
    101c:	04000000 	streq	r0, [r0], #-0
    1020:	5001f300 	andpl	pc, r1, r0, lsl #6
    1024:	0000009f 	muleq	r0, pc, r0	; <UNPREDICTABLE>
    1028:	00000000 	andeq	r0, r0, r0
    102c:	00007400 	andeq	r7, r0, r0, lsl #8
    1030:	00008000 	andeq	r8, r0, r0
    1034:	50000100 	andpl	r0, r0, r0, lsl #2
    1038:	00000080 	andeq	r0, r0, r0, lsl #1
    103c:	00000088 	andeq	r0, r0, r8, lsl #1
    1040:	01f30004 	mvnseq	r0, r4
    1044:	00009f50 	andeq	r9, r0, r0, asr pc
	...
    1050:	00900000 	addseq	r0, r0, r0
    1054:	00010000 	andeq	r0, r1, r0
    1058:	00009050 	andeq	r9, r0, r0, asr r0
    105c:	0000d400 	andeq	sp, r0, r0, lsl #8
    1060:	54000100 	strpl	r0, [r0], #-256	; 0x100
	...
    106c:	00000048 	andeq	r0, r0, r8, asr #32
    1070:	0000004c 	andeq	r0, r0, ip, asr #32
    1074:	54550001 	ldrbpl	r0, [r5], #-1
    1078:	58000000 	stmdapl	r0, {}	; <UNPREDICTABLE>
    107c:	01000000 	mrseq	r0, (UNDEF: 0)
    1080:	00605500 	rsbeq	r5, r0, r0, lsl #10
    1084:	00640000 	rsbeq	r0, r4, r0
    1088:	00010000 	andeq	r0, r1, r0
    108c:	00006c55 	andeq	r6, r0, r5, asr ip
    1090:	00007000 	andeq	r7, r0, r0
    1094:	55000100 	strpl	r0, [r0, #-256]	; 0x100
    1098:	00000078 	andeq	r0, r0, r8, ror r0
    109c:	0000007c 	andeq	r0, r0, ip, ror r0
    10a0:	84550001 	ldrbhi	r0, [r5], #-1
    10a4:	88000000 	stmdahi	r0, {}	; <UNPREDICTABLE>
    10a8:	01000000 	mrseq	r0, (UNDEF: 0)
    10ac:	008c5500 	addeq	r5, ip, r0, lsl #10
    10b0:	00d40000 	sbcseq	r0, r4, r0
    10b4:	00010000 	andeq	r0, r1, r0
    10b8:	00000055 	andeq	r0, r0, r5, asr r0
    10bc:	00000000 	andeq	r0, r0, r0
    10c0:	00001c00 	andeq	r1, r0, r0, lsl #24
    10c4:	00004400 	andeq	r4, r0, r0, lsl #8
    10c8:	53000100 	movwpl	r0, #256	; 0x100
    10cc:	00000044 	andeq	r0, r0, r4, asr #32
    10d0:	0000004c 	andeq	r0, r0, ip, asr #32
    10d4:	0070001c 	rsbseq	r0, r0, ip, lsl r0
    10d8:	25f72cf7 	ldrbcs	r2, [r7, #3319]!	; 0xcf7
    10dc:	cd0825f4 	cfstr32gt	mvfx2, [r8, #-976]	; 0xfffffc30
    10e0:	00cccccc 	sbceq	ip, ip, ip, asr #25
    10e4:	1e000000 	cdpne	0, 0, cr0, cr0, cr0, {0}
    10e8:	25f72008 	ldrbcs	r2, [r7, #8]!
    10ec:	332cf725 	msrcc	CPSR_fs, #9699328	; 0x940000
    10f0:	004c9f25 	subeq	r9, ip, r5, lsr #30
    10f4:	00500000 	subseq	r0, r0, r0
    10f8:	00010000 	andeq	r0, r1, r0
    10fc:	00005053 	andeq	r5, r0, r3, asr r0
    1100:	00005800 	andeq	r5, r0, r0, lsl #16
    1104:	70001c00 	andvc	r1, r0, r0, lsl #24
    1108:	f72cf700 			; <UNDEFINED> instruction: 0xf72cf700
    110c:	0825f425 	stmdaeq	r5!, {r0, r2, r5, sl, ip, sp, lr, pc}
    1110:	cccccccd 	stclgt	12, cr12, [ip], {205}	; 0xcd
    1114:	00000000 	andeq	r0, r0, r0
    1118:	f720081e 			; <UNDEFINED> instruction: 0xf720081e
    111c:	2cf72525 	cfldr64cs	mvdx2, [r7], #148	; 0x94
    1120:	589f2533 	ldmpl	pc, {r0, r1, r4, r5, r8, sl, sp}	; <UNPREDICTABLE>
    1124:	5c000000 	stcpl	0, cr0, [r0], {-0}
    1128:	01000000 	mrseq	r0, (UNDEF: 0)
    112c:	005c5300 	subseq	r5, ip, r0, lsl #6
    1130:	00640000 	rsbeq	r0, r4, r0
    1134:	001c0000 	andseq	r0, ip, r0
    1138:	2cf70070 	ldclcs	0, cr0, [r7], #448	; 0x1c0
    113c:	25f425f7 	ldrbcs	r2, [r4, #1527]!	; 0x5f7
    1140:	cccccd08 	stclgt	13, cr12, [ip], {8}
    1144:	000000cc 	andeq	r0, r0, ip, asr #1
    1148:	20081e00 	andcs	r1, r8, r0, lsl #28
    114c:	f72525f7 			; <UNDEFINED> instruction: 0xf72525f7
    1150:	9f25332c 	svcls	0x0025332c
    1154:	00000064 	andeq	r0, r0, r4, rrx
    1158:	00000068 	andeq	r0, r0, r8, rrx
    115c:	68530001 	ldmdavs	r3, {r0}^
    1160:	70000000 	andvc	r0, r0, r0
    1164:	1c000000 	stcne	0, cr0, [r0], {-0}
    1168:	f7007000 			; <UNDEFINED> instruction: 0xf7007000
    116c:	f425f72c 	vld1.8	{d15}, [r5 :128], ip
    1170:	cccd0825 	stclgt	8, cr0, [sp], {37}	; 0x25
    1174:	0000cccc 	andeq	ip, r0, ip, asr #25
    1178:	081e0000 	ldmdaeq	lr, {}	; <UNPREDICTABLE>
    117c:	2525f720 	strcs	pc, [r5, #-1824]!	; 0x720
    1180:	25332cf7 	ldrcs	r2, [r3, #-3319]!	; 0xcf7
    1184:	0000709f 	muleq	r0, pc, r0	; <UNPREDICTABLE>
    1188:	00007400 	andeq	r7, r0, r0, lsl #8
    118c:	53000100 	movwpl	r0, #256	; 0x100
    1190:	00000074 	andeq	r0, r0, r4, ror r0
    1194:	0000007c 	andeq	r0, r0, ip, ror r0
    1198:	0070001c 	rsbseq	r0, r0, ip, lsl r0
    119c:	25f72cf7 	ldrbcs	r2, [r7, #3319]!	; 0xcf7
    11a0:	cd0825f4 	cfstr32gt	mvfx2, [r8, #-976]	; 0xfffffc30
    11a4:	00cccccc 	sbceq	ip, ip, ip, asr #25
    11a8:	1e000000 	cdpne	0, 0, cr0, cr0, cr0, {0}
    11ac:	25f72008 	ldrbcs	r2, [r7, #8]!
    11b0:	332cf725 	msrcc	CPSR_fs, #9699328	; 0x940000
    11b4:	007c9f25 	rsbseq	r9, ip, r5, lsr #30
    11b8:	00800000 	addeq	r0, r0, r0
    11bc:	00010000 	andeq	r0, r1, r0
    11c0:	00008053 	andeq	r8, r0, r3, asr r0
    11c4:	00008800 	andeq	r8, r0, r0, lsl #16
    11c8:	70001c00 	andvc	r1, r0, r0, lsl #24
    11cc:	f72cf700 			; <UNDEFINED> instruction: 0xf72cf700
    11d0:	0825f425 	stmdaeq	r5!, {r0, r2, r5, sl, ip, sp, lr, pc}
    11d4:	cccccccd 	stclgt	12, cr12, [ip], {205}	; 0xcd
    11d8:	00000000 	andeq	r0, r0, r0
    11dc:	f720081e 			; <UNDEFINED> instruction: 0xf720081e
    11e0:	2cf72525 	cfldr64cs	mvdx2, [r7], #148	; 0x94
    11e4:	889f2533 	ldmhi	pc, {r0, r1, r4, r5, r8, sl, sp}	; <UNPREDICTABLE>
    11e8:	8c000000 	stchi	0, cr0, [r0], {-0}
    11ec:	01000000 	mrseq	r0, (UNDEF: 0)
    11f0:	008c5300 	addeq	r5, ip, r0, lsl #6
    11f4:	00900000 	addseq	r0, r0, r0
    11f8:	001c0000 	andseq	r0, ip, r0
    11fc:	2cf70070 	ldclcs	0, cr0, [r7], #448	; 0x1c0
    1200:	25f425f7 	ldrbcs	r2, [r4, #1527]!	; 0x5f7
    1204:	cccccd08 	stclgt	13, cr12, [ip], {8}
    1208:	000000cc 	andeq	r0, r0, ip, asr #1
    120c:	20081e00 	andcs	r1, r8, r0, lsl #28
    1210:	f72525f7 			; <UNDEFINED> instruction: 0xf72525f7
    1214:	9f25332c 	svcls	0x0025332c
    1218:	00000090 	muleq	r0, r0, r0
    121c:	00000098 	muleq	r0, r8, r0
    1220:	0074001c 	rsbseq	r0, r4, ip, lsl r0
    1224:	25f72cf7 	ldrbcs	r2, [r7, #3319]!	; 0xcf7
    1228:	cd0825f4 	cfstr32gt	mvfx2, [r8, #-976]	; 0xfffffc30
    122c:	00cccccc 	sbceq	ip, ip, ip, asr #25
    1230:	1e000000 	cdpne	0, 0, cr0, cr0, cr0, {0}
    1234:	25f72008 	ldrbcs	r2, [r7, #8]!
    1238:	332cf725 	msrcc	CPSR_fs, #9699328	; 0x940000
    123c:	00989f25 	addseq	r9, r8, r5, lsr #30
    1240:	009c0000 	addseq	r0, ip, r0
    1244:	00170000 	andseq	r0, r7, r0
    1248:	2cf70074 	ldclcs	0, cr0, [r7], #464	; 0x1d0
    124c:	007125f7 	ldrshteq	r2, [r1], #-87	; 0xffffffa9
    1250:	25f72cf7 	ldrbcs	r2, [r7, #3319]!	; 0xcf7
    1254:	f720081e 			; <UNDEFINED> instruction: 0xf720081e
    1258:	2cf72525 	cfldr64cs	mvdx2, [r7], #148	; 0x94
    125c:	9c9f2533 	cfldr32ls	mvfx2, [pc], {51}	; 0x33
    1260:	d4000000 	strle	r0, [r0], #-0
    1264:	1c000000 	stcne	0, cr0, [r0], {-0}
    1268:	f7007400 			; <UNDEFINED> instruction: 0xf7007400
    126c:	f425f72c 	vld1.8	{d15}, [r5 :128], ip
    1270:	cccd0825 	stclgt	8, cr0, [sp], {37}	; 0x25
    1274:	0000cccc 	andeq	ip, r0, ip, asr #25
    1278:	081e0000 	ldmdaeq	lr, {}	; <UNPREDICTABLE>
    127c:	2525f720 	strcs	pc, [r5, #-1824]!	; 0x720
    1280:	25332cf7 	ldrcs	r2, [r3, #-3319]!	; 0xcf7
    1284:	0000009f 	muleq	r0, pc, r0	; <UNPREDICTABLE>
    1288:	00000000 	andeq	r0, r0, r0
    128c:	00009400 	andeq	r9, r0, r0, lsl #8
    1290:	0000b800 	andeq	fp, r0, r0, lsl #16
    1294:	50000100 	andpl	r0, r0, r0, lsl #2
    1298:	000000b8 	strheq	r0, [r0], -r8
    129c:	000000c4 	andeq	r0, r0, r4, asr #1
    12a0:	71310008 	teqvc	r1, r8
    12a4:	00732400 	rsbseq	r2, r3, r0, lsl #8
    12a8:	00c49f21 	sbceq	r9, r4, r1, lsr #30
    12ac:	00c70000 	sbceq	r0, r7, r0
    12b0:	00010000 	andeq	r0, r1, r0
    12b4:	00000051 	andeq	r0, r0, r1, asr r0
    12b8:	00000000 	andeq	r0, r0, r0
    12bc:	0000d400 	andeq	sp, r0, r0, lsl #8
    12c0:	0000f800 	andeq	pc, r0, r0, lsl #16
    12c4:	50000100 	andpl	r0, r0, r0, lsl #2
    12c8:	000000f8 	strdeq	r0, [r0], -r8
    12cc:	0000010c 	andeq	r0, r0, ip, lsl #2
    12d0:	01f30004 	mvnseq	r0, r4
    12d4:	00009f50 	andeq	r9, r0, r0, asr pc
    12d8:	00000000 	andeq	r0, r0, r0
    12dc:	00e00000 	rsceq	r0, r0, r0
    12e0:	00e80000 	rsceq	r0, r8, r0
    12e4:	00020000 	andeq	r0, r2, r0
    12e8:	00e89f30 	rsceq	r9, r8, r0, lsr pc
    12ec:	00e80000 	rsceq	r0, r8, r0
    12f0:	00010000 	andeq	r0, r1, r0
    12f4:	0000e852 	andeq	lr, r0, r2, asr r8
    12f8:	0000f000 	andeq	pc, r0, r0
    12fc:	30000200 	andcc	r0, r0, r0, lsl #4
    1300:	0000f09f 	muleq	r0, pc, r0	; <UNPREDICTABLE>
    1304:	00010300 	andeq	r0, r1, r0, lsl #6
    1308:	52000100 	andpl	r0, r0, #0, 2
	...
    1314:	000000e0 	andeq	r0, r0, r0, ror #1
    1318:	000000f4 	strdeq	r0, [r0], -r4
    131c:	9f300002 	svcls	0x00300002
    1320:	000000f4 	strdeq	r0, [r0], -r4
    1324:	00000100 	andeq	r0, r0, r0, lsl #2
    1328:	73310005 	teqvc	r1, #5
    132c:	009f2400 	addseq	r2, pc, r0, lsl #8
    1330:	03000001 	movweq	r0, #1
    1334:	01000001 	tsteq	r0, r1
    1338:	01035100 	mrseq	r5, (UNDEF: 19)
    133c:	010c0000 	mrseq	r0, (UNDEF: 12)
    1340:	00080000 	andeq	r0, r8, r0
    1344:	5001f331 	andpl	pc, r1, r1, lsr r3	; <UNPREDICTABLE>
    1348:	9f241a4f 	svcls	0x00241a4f
	...
    1354:	0000010c 	andeq	r0, r0, ip, lsl #2
    1358:	00000130 	andeq	r0, r0, r0, lsr r1
    135c:	30500001 	subscc	r0, r0, r1
    1360:	44000001 	strmi	r0, [r0], #-1
    1364:	04000001 	streq	r0, [r0], #-1
    1368:	5001f300 	andpl	pc, r1, r0, lsl #6
    136c:	0000009f 	muleq	r0, pc, r0	; <UNPREDICTABLE>
    1370:	00000000 	andeq	r0, r0, r0
    1374:	00011800 	andeq	r1, r1, r0, lsl #16
    1378:	00012000 	andeq	r2, r1, r0
    137c:	30000200 	andcc	r0, r0, r0, lsl #4
    1380:	0001209f 	muleq	r1, pc, r0	; <UNPREDICTABLE>
    1384:	00012000 	andeq	r2, r1, r0
    1388:	52000100 	andpl	r0, r0, #0, 2
    138c:	00000120 	andeq	r0, r0, r0, lsr #2
    1390:	00000128 	andeq	r0, r0, r8, lsr #2
    1394:	9f300002 	svcls	0x00300002
    1398:	00000128 	andeq	r0, r0, r8, lsr #2
    139c:	0000013b 	andeq	r0, r0, fp, lsr r1
    13a0:	00520001 	subseq	r0, r2, r1
    13a4:	00000000 	andeq	r0, r0, r0
    13a8:	18000000 	stmdane	r0, {}	; <UNPREDICTABLE>
    13ac:	2c000001 	stccs	0, cr0, [r0], {1}
    13b0:	02000001 	andeq	r0, r0, #1
    13b4:	2c9f3000 	ldccs	0, cr3, [pc], {0}
    13b8:	38000001 	stmdacc	r0, {r0}
    13bc:	05000001 	streq	r0, [r0, #-1]
    13c0:	00733100 	rsbseq	r3, r3, r0, lsl #2
    13c4:	01389f24 	teqeq	r8, r4, lsr #30
    13c8:	013b0000 	teqeq	fp, r0
    13cc:	00010000 	andeq	r0, r1, r0
    13d0:	00013b51 	andeq	r3, r1, r1, asr fp
    13d4:	00014400 	andeq	r4, r1, r0, lsl #8
    13d8:	31000800 	tstcc	r0, r0, lsl #16
    13dc:	4f5001f3 	svcmi	0x005001f3
    13e0:	009f241a 	addseq	r2, pc, sl, lsl r4	; <UNPREDICTABLE>
    13e4:	00000000 	andeq	r0, r0, r0
    13e8:	44000000 	strmi	r0, [r0], #-0
    13ec:	d4000001 	strle	r0, [r0], #-1
    13f0:	01000001 	tsteq	r0, r1
    13f4:	01d45000 	bicseq	r5, r4, r0
    13f8:	02100000 	andseq	r0, r0, #0
    13fc:	00010000 	andeq	r0, r1, r0
    1400:	00000054 	andeq	r0, r0, r4, asr r0
    1404:	00000000 	andeq	r0, r0, r0
    1408:	00018c00 	andeq	r8, r1, r0, lsl #24
    140c:	00019000 	andeq	r9, r1, r0
    1410:	55000100 	strpl	r0, [r0, #-256]	; 0x100
    1414:	00000198 	muleq	r0, r8, r1
    1418:	0000019c 	muleq	r0, ip, r1
    141c:	a4550001 	ldrbge	r0, [r5], #-1
    1420:	a8000001 	stmdage	r0, {r0}
    1424:	01000001 	tsteq	r0, r1
    1428:	01b05500 	lslseq	r5, r0, #10
    142c:	01b40000 			; <UNDEFINED> instruction: 0x01b40000
    1430:	00010000 	andeq	r0, r1, r0
    1434:	0001bc55 	andeq	fp, r1, r5, asr ip
    1438:	0001c000 	andeq	ip, r1, r0
    143c:	55000100 	strpl	r0, [r0, #-256]	; 0x100
    1440:	000001c8 	andeq	r0, r0, r8, asr #3
    1444:	000001cc 	andeq	r0, r0, ip, asr #3
    1448:	d0550001 	subsle	r0, r5, r1
    144c:	10000001 	andne	r0, r0, r1
    1450:	01000002 	tsteq	r0, r2
    1454:	00005500 	andeq	r5, r0, r0, lsl #10
    1458:	00000000 	andeq	r0, r0, r0
    145c:	01600000 	cmneq	r0, r0
    1460:	01880000 	orreq	r0, r8, r0
    1464:	00010000 	andeq	r0, r1, r0
    1468:	00018853 	andeq	r8, r1, r3, asr r8
    146c:	00019000 	andeq	r9, r1, r0
    1470:	70001c00 	andvc	r1, r0, r0, lsl #24
    1474:	f72cf700 			; <UNDEFINED> instruction: 0xf72cf700
    1478:	0825f425 	stmdaeq	r5!, {r0, r2, r5, sl, ip, sp, lr, pc}
    147c:	cccccccd 	stclgt	12, cr12, [ip], {205}	; 0xcd
    1480:	00000000 	andeq	r0, r0, r0
    1484:	f720081e 			; <UNDEFINED> instruction: 0xf720081e
    1488:	2cf72525 	cfldr64cs	mvdx2, [r7], #148	; 0x94
    148c:	909f2533 	addsls	r2, pc, r3, lsr r5	; <UNPREDICTABLE>
    1490:	94000001 	strls	r0, [r0], #-1
    1494:	01000001 	tsteq	r0, r1
    1498:	01945300 	orrseq	r5, r4, r0, lsl #6
    149c:	019c0000 	orrseq	r0, ip, r0
    14a0:	001c0000 	andseq	r0, ip, r0
    14a4:	2cf70070 	ldclcs	0, cr0, [r7], #448	; 0x1c0
    14a8:	25f425f7 	ldrbcs	r2, [r4, #1527]!	; 0x5f7
    14ac:	cccccd08 	stclgt	13, cr12, [ip], {8}
    14b0:	000000cc 	andeq	r0, r0, ip, asr #1
    14b4:	20081e00 	andcs	r1, r8, r0, lsl #28
    14b8:	f72525f7 			; <UNDEFINED> instruction: 0xf72525f7
    14bc:	9f25332c 	svcls	0x0025332c
    14c0:	0000019c 	muleq	r0, ip, r1
    14c4:	000001a0 	andeq	r0, r0, r0, lsr #3
    14c8:	a0530001 	subsge	r0, r3, r1
    14cc:	a8000001 	stmdage	r0, {r0}
    14d0:	1c000001 	stcne	0, cr0, [r0], {1}
    14d4:	f7007000 			; <UNDEFINED> instruction: 0xf7007000
    14d8:	f425f72c 	vld1.8	{d15}, [r5 :128], ip
    14dc:	cccd0825 	stclgt	8, cr0, [sp], {37}	; 0x25
    14e0:	0000cccc 	andeq	ip, r0, ip, asr #25
    14e4:	081e0000 	ldmdaeq	lr, {}	; <UNPREDICTABLE>
    14e8:	2525f720 	strcs	pc, [r5, #-1824]!	; 0x720
    14ec:	25332cf7 	ldrcs	r2, [r3, #-3319]!	; 0xcf7
    14f0:	0001a89f 	muleq	r1, pc, r8	; <UNPREDICTABLE>
    14f4:	0001ac00 	andeq	sl, r1, r0, lsl #24
    14f8:	53000100 	movwpl	r0, #256	; 0x100
    14fc:	000001ac 	andeq	r0, r0, ip, lsr #3
    1500:	000001b4 			; <UNDEFINED> instruction: 0x000001b4
    1504:	0070001c 	rsbseq	r0, r0, ip, lsl r0
    1508:	25f72cf7 	ldrbcs	r2, [r7, #3319]!	; 0xcf7
    150c:	cd0825f4 	cfstr32gt	mvfx2, [r8, #-976]	; 0xfffffc30
    1510:	00cccccc 	sbceq	ip, ip, ip, asr #25
    1514:	1e000000 	cdpne	0, 0, cr0, cr0, cr0, {0}
    1518:	25f72008 	ldrbcs	r2, [r7, #8]!
    151c:	332cf725 	msrcc	CPSR_fs, #9699328	; 0x940000
    1520:	01b49f25 			; <UNDEFINED> instruction: 0x01b49f25
    1524:	01b80000 			; <UNDEFINED> instruction: 0x01b80000
    1528:	00010000 	andeq	r0, r1, r0
    152c:	0001b853 	andeq	fp, r1, r3, asr r8
    1530:	0001c000 	andeq	ip, r1, r0
    1534:	70001c00 	andvc	r1, r0, r0, lsl #24
    1538:	f72cf700 			; <UNDEFINED> instruction: 0xf72cf700
    153c:	0825f425 	stmdaeq	r5!, {r0, r2, r5, sl, ip, sp, lr, pc}
    1540:	cccccccd 	stclgt	12, cr12, [ip], {205}	; 0xcd
    1544:	00000000 	andeq	r0, r0, r0
    1548:	f720081e 			; <UNDEFINED> instruction: 0xf720081e
    154c:	2cf72525 	cfldr64cs	mvdx2, [r7], #148	; 0x94
    1550:	c09f2533 	addsgt	r2, pc, r3, lsr r5	; <UNPREDICTABLE>
    1554:	c4000001 	strgt	r0, [r0], #-1
    1558:	01000001 	tsteq	r0, r1
    155c:	01c45300 	biceq	r5, r4, r0, lsl #6
    1560:	01cc0000 	biceq	r0, ip, r0
    1564:	001c0000 	andseq	r0, ip, r0
    1568:	2cf70070 	ldclcs	0, cr0, [r7], #448	; 0x1c0
    156c:	25f425f7 	ldrbcs	r2, [r4, #1527]!	; 0x5f7
    1570:	cccccd08 	stclgt	13, cr12, [ip], {8}
    1574:	000000cc 	andeq	r0, r0, ip, asr #1
    1578:	20081e00 	andcs	r1, r8, r0, lsl #28
    157c:	f72525f7 			; <UNDEFINED> instruction: 0xf72525f7
    1580:	9f25332c 	svcls	0x0025332c
    1584:	000001cc 	andeq	r0, r0, ip, asr #3
    1588:	000001d0 	ldrdeq	r0, [r0], -r0	; <UNPREDICTABLE>
    158c:	d0530001 	subsle	r0, r3, r1
    1590:	d4000001 	strle	r0, [r0], #-1
    1594:	1c000001 	stcne	0, cr0, [r0], {1}
    1598:	f7007000 			; <UNDEFINED> instruction: 0xf7007000
    159c:	f425f72c 	vld1.8	{d15}, [r5 :128], ip
    15a0:	cccd0825 	stclgt	8, cr0, [sp], {37}	; 0x25
    15a4:	0000cccc 	andeq	ip, r0, ip, asr #25
    15a8:	081e0000 	ldmdaeq	lr, {}	; <UNPREDICTABLE>
    15ac:	2525f720 	strcs	pc, [r5, #-1824]!	; 0x720
    15b0:	25332cf7 	ldrcs	r2, [r3, #-3319]!	; 0xcf7
    15b4:	0001d49f 	muleq	r1, pc, r4	; <UNPREDICTABLE>
    15b8:	0001dc00 	andeq	sp, r1, r0, lsl #24
    15bc:	74001c00 	strvc	r1, [r0], #-3072	; 0xc00
    15c0:	f72cf700 			; <UNDEFINED> instruction: 0xf72cf700
    15c4:	0825f425 	stmdaeq	r5!, {r0, r2, r5, sl, ip, sp, lr, pc}
    15c8:	cccccccd 	stclgt	12, cr12, [ip], {205}	; 0xcd
    15cc:	00000000 	andeq	r0, r0, r0
    15d0:	f720081e 			; <UNDEFINED> instruction: 0xf720081e
    15d4:	2cf72525 	cfldr64cs	mvdx2, [r7], #148	; 0x94
    15d8:	dc9f2533 	cfldr32le	mvfx2, [pc], {51}	; 0x33
    15dc:	e0000001 	and	r0, r0, r1
    15e0:	17000001 	strne	r0, [r0, -r1]
    15e4:	f7007400 			; <UNDEFINED> instruction: 0xf7007400
    15e8:	7125f72c 	msrvc	SP_abt, ip
    15ec:	f72cf700 			; <UNDEFINED> instruction: 0xf72cf700
    15f0:	20081e25 	andcs	r1, r8, r5, lsr #28
    15f4:	f72525f7 			; <UNDEFINED> instruction: 0xf72525f7
    15f8:	9f25332c 	svcls	0x0025332c
    15fc:	000001e0 	andeq	r0, r0, r0, ror #3
    1600:	00000210 	andeq	r0, r0, r0, lsl r2
    1604:	0074001c 	rsbseq	r0, r4, ip, lsl r0
    1608:	25f72cf7 	ldrbcs	r2, [r7, #3319]!	; 0xcf7
    160c:	cd0825f4 	cfstr32gt	mvfx2, [r8, #-976]	; 0xfffffc30
    1610:	00cccccc 	sbceq	ip, ip, ip, asr #25
    1614:	1e000000 	cdpne	0, 0, cr0, cr0, cr0, {0}
    1618:	25f72008 	ldrbcs	r2, [r7, #8]!
    161c:	332cf725 	msrcc	CPSR_fs, #9699328	; 0x940000
    1620:	00009f25 	andeq	r9, r0, r5, lsr #30
    1624:	00000000 	andeq	r0, r0, r0
    1628:	01d80000 	bicseq	r0, r8, r0
    162c:	01fc0000 	mvnseq	r0, r0
    1630:	00010000 	andeq	r0, r1, r0
    1634:	0001fc50 	andeq	pc, r1, r0, asr ip	; <UNPREDICTABLE>
    1638:	00020300 	andeq	r0, r2, r0, lsl #6
    163c:	51000100 	mrspl	r0, (UNDEF: 16)
	...
    1648:	00000210 	andeq	r0, r0, r0, lsl r2
    164c:	0000022c 	andeq	r0, r0, ip, lsr #4
    1650:	2c500001 	mrrccs	0, 0, r0, r0, cr1	; <UNPREDICTABLE>
    1654:	34000002 	strcc	r0, [r0], #-2
    1658:	01000002 	tsteq	r0, r2
    165c:	02345400 	eorseq	r5, r4, #0, 8
    1660:	023c0000 	eorseq	r0, ip, #0
    1664:	00010000 	andeq	r0, r1, r0
    1668:	00023c50 	andeq	r3, r2, r0, asr ip
    166c:	00024400 	andeq	r4, r2, r0, lsl #8
    1670:	54000100 	strpl	r0, [r0], #-256	; 0x100
    1674:	00000244 	andeq	r0, r0, r4, asr #4
    1678:	00000250 	andeq	r0, r0, r0, asr r2
    167c:	01f30004 	mvnseq	r0, r4
    1680:	02509f50 	subseq	r9, r0, #80, 30	; 0x140
    1684:	02540000 	subseq	r0, r4, #0
    1688:	00010000 	andeq	r0, r1, r0
    168c:	00025450 	andeq	r5, r2, r0, asr r4
    1690:	00025c00 	andeq	r5, r2, r0, lsl #24
    1694:	54000100 	strpl	r0, [r0], #-256	; 0x100
	...
    16a0:	00000220 	andeq	r0, r0, r0, lsr #4
    16a4:	00000230 	andeq	r0, r0, r0, lsr r2
    16a8:	9f300002 	svcls	0x00300002
    16ac:	00000230 	andeq	r0, r0, r0, lsr r2
    16b0:	00000234 	andeq	r0, r0, r4, lsr r2
    16b4:	34500001 	ldrbcc	r0, [r0], #-1
    16b8:	40000002 	andmi	r0, r0, r2
    16bc:	02000002 	andeq	r0, r0, #2
    16c0:	409f3000 	addsmi	r3, pc, r0
    16c4:	4c000002 	stcmi	0, cr0, [r0], {2}
    16c8:	01000002 	tsteq	r0, r2
    16cc:	00005000 	andeq	r5, r0, r0
    16d0:	00000000 	andeq	r0, r0, r0
    16d4:	025c0000 	subseq	r0, ip, #0
    16d8:	02730000 	rsbseq	r0, r3, #0
    16dc:	00010000 	andeq	r0, r1, r0
    16e0:	00027350 	andeq	r7, r2, r0, asr r3
    16e4:	00027800 	andeq	r7, r2, r0, lsl #16
    16e8:	f3000400 	vshl.u8	d0, d0, d0
    16ec:	789f5001 	ldmvc	pc, {r0, ip, lr}	; <UNPREDICTABLE>
    16f0:	7b000002 	blvc	1700 <_start-0x6900>
    16f4:	01000002 	tsteq	r0, r2
    16f8:	027b5000 	rsbseq	r5, fp, #0
    16fc:	02800000 	addeq	r0, r0, #0
    1700:	00040000 	andeq	r0, r4, r0
    1704:	9f5001f3 	svcls	0x005001f3
	...
    1710:	0000025c 	andeq	r0, r0, ip, asr r2
    1714:	00000273 	andeq	r0, r0, r3, ror r2
    1718:	73510001 	cmpvc	r1, #1
    171c:	78000002 	stmdavc	r0, {r1}
    1720:	04000002 	streq	r0, [r0], #-2
    1724:	5101f300 	mrspl	pc, SP_irq	; <UNPREDICTABLE>
    1728:	0002789f 	muleq	r2, pc, r8	; <UNPREDICTABLE>
    172c:	00027b00 	andeq	r7, r2, r0, lsl #22
    1730:	51000100 	mrspl	r0, (UNDEF: 16)
    1734:	0000027b 	andeq	r0, r0, fp, ror r2
    1738:	00000280 	andeq	r0, r0, r0, lsl #5
    173c:	01f30004 	mvnseq	r0, r4
    1740:	00009f51 	andeq	r9, r0, r1, asr pc
    1744:	00000000 	andeq	r0, r0, r0
    1748:	02800000 	addeq	r0, r0, #0
    174c:	03180000 	tsteq	r8, #0
    1750:	00010000 	andeq	r0, r1, r0
    1754:	00031850 	andeq	r1, r3, r0, asr r8
    1758:	00035800 	andeq	r5, r3, r0, lsl #16
    175c:	54000100 	strpl	r0, [r0], #-256	; 0x100
	...
    1768:	00000280 	andeq	r0, r0, r0, lsl #5
    176c:	0000031b 	andeq	r0, r0, fp, lsl r3
    1770:	1b510001 	blne	144177c <__bss_end__+0x1437564>
    1774:	58000003 	stmdapl	r0, {r0, r1}
    1778:	04000003 	streq	r0, [r0], #-3
    177c:	5101f300 	mrspl	pc, SP_irq	; <UNPREDICTABLE>
    1780:	0000009f 	muleq	r0, pc, r0	; <UNPREDICTABLE>
    1784:	00000000 	andeq	r0, r0, r0
    1788:	0002d000 	andeq	sp, r2, r0
    178c:	0002d400 	andeq	sp, r2, r0, lsl #8
    1790:	56000100 	strpl	r0, [r0], -r0, lsl #2
    1794:	000002dc 	ldrdeq	r0, [r0], -ip
    1798:	000002e0 	andeq	r0, r0, r0, ror #5
    179c:	e8560001 	ldmda	r6, {r0}^
    17a0:	ec000002 	stc	0, cr0, [r0], {2}
    17a4:	01000002 	tsteq	r0, r2
    17a8:	02f45600 	rscseq	r5, r4, #0, 12
    17ac:	02f80000 	rscseq	r0, r8, #0
    17b0:	00010000 	andeq	r0, r1, r0
    17b4:	00030056 	andeq	r0, r3, r6, asr r0
    17b8:	00030400 	andeq	r0, r3, r0, lsl #8
    17bc:	56000100 	strpl	r0, [r0], -r0, lsl #2
    17c0:	0000030c 	andeq	r0, r0, ip, lsl #6
    17c4:	00000310 	andeq	r0, r0, r0, lsl r3
    17c8:	14560001 	ldrbne	r0, [r6], #-1
    17cc:	58000003 	stmdapl	r0, {r0, r1}
    17d0:	01000003 	tsteq	r0, r3
    17d4:	00005600 	andeq	r5, r0, r0, lsl #12
    17d8:	00000000 	andeq	r0, r0, r0
    17dc:	02a40000 	adceq	r0, r4, #0
    17e0:	02cc0000 	sbceq	r0, ip, #0
    17e4:	00010000 	andeq	r0, r1, r0
    17e8:	0002cc53 	andeq	ip, r2, r3, asr ip
    17ec:	0002d400 	andeq	sp, r2, r0, lsl #8
    17f0:	70001c00 	andvc	r1, r0, r0, lsl #24
    17f4:	f72cf700 			; <UNDEFINED> instruction: 0xf72cf700
    17f8:	0825f425 	stmdaeq	r5!, {r0, r2, r5, sl, ip, sp, lr, pc}
    17fc:	cccccccd 	stclgt	12, cr12, [ip], {205}	; 0xcd
    1800:	00000000 	andeq	r0, r0, r0
    1804:	f720081e 			; <UNDEFINED> instruction: 0xf720081e
    1808:	2cf72525 	cfldr64cs	mvdx2, [r7], #148	; 0x94
    180c:	d49f2533 	ldrle	r2, [pc], #1331	; 1814 <_start-0x67ec>
    1810:	d8000002 	stmdale	r0, {r1}
    1814:	01000002 	tsteq	r0, r2
    1818:	02d85300 	sbcseq	r5, r8, #0, 6
    181c:	02e00000 	rsceq	r0, r0, #0
    1820:	001c0000 	andseq	r0, ip, r0
    1824:	2cf70070 	ldclcs	0, cr0, [r7], #448	; 0x1c0
    1828:	25f425f7 	ldrbcs	r2, [r4, #1527]!	; 0x5f7
    182c:	cccccd08 	stclgt	13, cr12, [ip], {8}
    1830:	000000cc 	andeq	r0, r0, ip, asr #1
    1834:	20081e00 	andcs	r1, r8, r0, lsl #28
    1838:	f72525f7 			; <UNDEFINED> instruction: 0xf72525f7
    183c:	9f25332c 	svcls	0x0025332c
    1840:	000002e0 	andeq	r0, r0, r0, ror #5
    1844:	000002e4 	andeq	r0, r0, r4, ror #5
    1848:	e4530001 	ldrb	r0, [r3], #-1
    184c:	ec000002 	stc	0, cr0, [r0], {2}
    1850:	1c000002 	stcne	0, cr0, [r0], {2}
    1854:	f7007000 			; <UNDEFINED> instruction: 0xf7007000
    1858:	f425f72c 	vld1.8	{d15}, [r5 :128], ip
    185c:	cccd0825 	stclgt	8, cr0, [sp], {37}	; 0x25
    1860:	0000cccc 	andeq	ip, r0, ip, asr #25
    1864:	081e0000 	ldmdaeq	lr, {}	; <UNPREDICTABLE>
    1868:	2525f720 	strcs	pc, [r5, #-1824]!	; 0x720
    186c:	25332cf7 	ldrcs	r2, [r3, #-3319]!	; 0xcf7
    1870:	0002ec9f 	muleq	r2, pc, ip	; <UNPREDICTABLE>
    1874:	0002f000 	andeq	pc, r2, r0
    1878:	53000100 	movwpl	r0, #256	; 0x100
    187c:	000002f0 	strdeq	r0, [r0], -r0	; <UNPREDICTABLE>
    1880:	000002f8 	strdeq	r0, [r0], -r8
    1884:	0070001c 	rsbseq	r0, r0, ip, lsl r0
    1888:	25f72cf7 	ldrbcs	r2, [r7, #3319]!	; 0xcf7
    188c:	cd0825f4 	cfstr32gt	mvfx2, [r8, #-976]	; 0xfffffc30
    1890:	00cccccc 	sbceq	ip, ip, ip, asr #25
    1894:	1e000000 	cdpne	0, 0, cr0, cr0, cr0, {0}
    1898:	25f72008 	ldrbcs	r2, [r7, #8]!
    189c:	332cf725 	msrcc	CPSR_fs, #9699328	; 0x940000
    18a0:	02f89f25 	rscseq	r9, r8, #37, 30	; 0x94
    18a4:	02fc0000 	rscseq	r0, ip, #0
    18a8:	00010000 	andeq	r0, r1, r0
    18ac:	0002fc53 	andeq	pc, r2, r3, asr ip	; <UNPREDICTABLE>
    18b0:	00030400 	andeq	r0, r3, r0, lsl #8
    18b4:	70001c00 	andvc	r1, r0, r0, lsl #24
    18b8:	f72cf700 			; <UNDEFINED> instruction: 0xf72cf700
    18bc:	0825f425 	stmdaeq	r5!, {r0, r2, r5, sl, ip, sp, lr, pc}
    18c0:	cccccccd 	stclgt	12, cr12, [ip], {205}	; 0xcd
    18c4:	00000000 	andeq	r0, r0, r0
    18c8:	f720081e 			; <UNDEFINED> instruction: 0xf720081e
    18cc:	2cf72525 	cfldr64cs	mvdx2, [r7], #148	; 0x94
    18d0:	049f2533 	ldreq	r2, [pc], #1331	; 18d8 <_start-0x6728>
    18d4:	08000003 	stmdaeq	r0, {r0, r1}
    18d8:	01000003 	tsteq	r0, r3
    18dc:	03085300 	movweq	r5, #33536	; 0x8300
    18e0:	03100000 	tsteq	r0, #0
    18e4:	001c0000 	andseq	r0, ip, r0
    18e8:	2cf70070 	ldclcs	0, cr0, [r7], #448	; 0x1c0
    18ec:	25f425f7 	ldrbcs	r2, [r4, #1527]!	; 0x5f7
    18f0:	cccccd08 	stclgt	13, cr12, [ip], {8}
    18f4:	000000cc 	andeq	r0, r0, ip, asr #1
    18f8:	20081e00 	andcs	r1, r8, r0, lsl #28
    18fc:	f72525f7 			; <UNDEFINED> instruction: 0xf72525f7
    1900:	9f25332c 	svcls	0x0025332c
    1904:	00000310 	andeq	r0, r0, r0, lsl r3
    1908:	00000314 	andeq	r0, r0, r4, lsl r3
    190c:	14530001 	ldrbne	r0, [r3], #-1
    1910:	18000003 	stmdane	r0, {r0, r1}
    1914:	1c000003 	stcne	0, cr0, [r0], {3}
    1918:	f7007000 			; <UNDEFINED> instruction: 0xf7007000
    191c:	f425f72c 	vld1.8	{d15}, [r5 :128], ip
    1920:	cccd0825 	stclgt	8, cr0, [sp], {37}	; 0x25
    1924:	0000cccc 	andeq	ip, r0, ip, asr #25
    1928:	081e0000 	ldmdaeq	lr, {}	; <UNPREDICTABLE>
    192c:	2525f720 	strcs	pc, [r5, #-1824]!	; 0x720
    1930:	25332cf7 	ldrcs	r2, [r3, #-3319]!	; 0xcf7
    1934:	0003189f 	muleq	r3, pc, r8	; <UNPREDICTABLE>
    1938:	00032000 	andeq	r2, r3, r0
    193c:	74001c00 	strvc	r1, [r0], #-3072	; 0xc00
    1940:	f72cf700 			; <UNDEFINED> instruction: 0xf72cf700
    1944:	0825f425 	stmdaeq	r5!, {r0, r2, r5, sl, ip, sp, lr, pc}
    1948:	cccccccd 	stclgt	12, cr12, [ip], {205}	; 0xcd
    194c:	00000000 	andeq	r0, r0, r0
    1950:	f720081e 			; <UNDEFINED> instruction: 0xf720081e
    1954:	2cf72525 	cfldr64cs	mvdx2, [r7], #148	; 0x94
    1958:	209f2533 	addscs	r2, pc, r3, lsr r5	; <UNPREDICTABLE>
    195c:	24000003 	strcs	r0, [r0], #-3
    1960:	17000003 	strne	r0, [r0, -r3]
    1964:	f7007400 			; <UNDEFINED> instruction: 0xf7007400
    1968:	7325f72c 	msrvc	CPSR_sc, #44, 14	; 0xb00000
    196c:	f72cf700 			; <UNDEFINED> instruction: 0xf72cf700
    1970:	20081e25 	andcs	r1, r8, r5, lsr #28
    1974:	f72525f7 			; <UNDEFINED> instruction: 0xf72525f7
    1978:	9f25332c 	svcls	0x0025332c
    197c:	00000324 	andeq	r0, r0, r4, lsr #6
    1980:	00000358 	andeq	r0, r0, r8, asr r3
    1984:	0074001c 	rsbseq	r0, r4, ip, lsl r0
    1988:	25f72cf7 	ldrbcs	r2, [r7, #3319]!	; 0xcf7
    198c:	cd0825f4 	cfstr32gt	mvfx2, [r8, #-976]	; 0xfffffc30
    1990:	00cccccc 	sbceq	ip, ip, ip, asr #25
    1994:	1e000000 	cdpne	0, 0, cr0, cr0, cr0, {0}
    1998:	25f72008 	ldrbcs	r2, [r7, #8]!
    199c:	332cf725 	msrcc	CPSR_fs, #9699328	; 0x940000
    19a0:	00009f25 	andeq	r9, r0, r5, lsr #30
    19a4:	00000000 	andeq	r0, r0, r0
    19a8:	031c0000 	tsteq	ip, #0
    19ac:	03400000 	movteq	r0, #0
    19b0:	00010000 	andeq	r0, r1, r0
    19b4:	00034050 	andeq	r4, r3, r0, asr r0
    19b8:	00034800 	andeq	r4, r3, r0, lsl #16
    19bc:	75000900 	strvc	r0, [r0, #-2304]	; 0x900
    19c0:	24007300 	strcs	r7, [r0], #-768	; 0x300
    19c4:	9f210071 	svcls	0x00210071
    19c8:	00000348 	andeq	r0, r0, r8, asr #6
    19cc:	0000034b 	andeq	r0, r0, fp, asr #6
    19d0:	00510001 	subseq	r0, r1, r1
    19d4:	00000000 	andeq	r0, r0, r0
    19d8:	58000000 	stmdapl	r0, {}	; <UNPREDICTABLE>
    19dc:	7c000003 	stcvc	0, cr0, [r0], {3}
    19e0:	01000003 	tsteq	r0, r3
    19e4:	037c5000 	cmneq	ip, #0
    19e8:	03900000 	orrseq	r0, r0, #0
    19ec:	00040000 	andeq	r0, r4, r0
    19f0:	9f5001f3 	svcls	0x005001f3
	...
    19fc:	00000364 	andeq	r0, r0, r4, ror #6
    1a00:	0000036c 	andeq	r0, r0, ip, ror #6
    1a04:	9f300002 	svcls	0x00300002
    1a08:	0000036c 	andeq	r0, r0, ip, ror #6
    1a0c:	0000036c 	andeq	r0, r0, ip, ror #6
    1a10:	6c520001 	mrrcvs	0, 0, r0, r2, cr1
    1a14:	74000003 	strvc	r0, [r0], #-3
    1a18:	02000003 	andeq	r0, r0, #3
    1a1c:	749f3000 	ldrvc	r3, [pc], #0	; 1a24 <_start-0x65dc>
    1a20:	87000003 	strhi	r0, [r0, -r3]
    1a24:	01000003 	tsteq	r0, r3
    1a28:	00005200 	andeq	r5, r0, r0, lsl #4
    1a2c:	00000000 	andeq	r0, r0, r0
    1a30:	03640000 	cmneq	r4, #0
    1a34:	03780000 	cmneq	r8, #0
    1a38:	00020000 	andeq	r0, r2, r0
    1a3c:	03789f30 	cmneq	r8, #48, 30	; 0xc0
    1a40:	03840000 	orreq	r0, r4, #0
    1a44:	00050000 	andeq	r0, r5, r0
    1a48:	24007331 	strcs	r7, [r0], #-817	; 0x331
    1a4c:	0003849f 	muleq	r3, pc, r4	; <UNPREDICTABLE>
    1a50:	00038700 	andeq	r8, r3, r0, lsl #14
    1a54:	51000100 	mrspl	r0, (UNDEF: 16)
    1a58:	00000387 	andeq	r0, r0, r7, lsl #7
    1a5c:	00000390 	muleq	r0, r0, r3
    1a60:	f3310008 	vhadd.u<illegal width 64>	d0, d1, d8
    1a64:	1a4f5001 	bne	13d5a70 <__bss_end__+0x13cb858>
    1a68:	00009f24 	andeq	r9, r0, r4, lsr #30
    1a6c:	00000000 	andeq	r0, r0, r0
    1a70:	03900000 	orrseq	r0, r0, #0
    1a74:	039c0000 	orrseq	r0, ip, #0
    1a78:	00010000 	andeq	r0, r1, r0
    1a7c:	00039c50 	andeq	r9, r3, r0, asr ip
    1a80:	0003bc00 	andeq	fp, r3, r0, lsl #24
    1a84:	f3000400 	vshl.u8	d0, d0, d0
    1a88:	009f5001 	addseq	r5, pc, r1
    1a8c:	00000000 	andeq	r0, r0, r0
    1a90:	bc000000 	stclt	0, cr0, [r0], {-0}
    1a94:	cf000003 	svcgt	0x00000003
    1a98:	01000003 	tsteq	r0, r3
    1a9c:	03cf5000 	biceq	r5, pc, #0
    1aa0:	04080000 	streq	r0, [r8], #-0
    1aa4:	00010000 	andeq	r0, r1, r0
    1aa8:	00040854 	andeq	r0, r4, r4, asr r8
    1aac:	00044000 	andeq	r4, r4, r0
    1ab0:	f3000400 	vshl.u8	d0, d0, d0
    1ab4:	009f5001 	addseq	r5, pc, r1
    1ab8:	00000000 	andeq	r0, r0, r0
    1abc:	28000000 	stmdacs	r0, {}	; <UNPREDICTABLE>
    1ac0:	2c000004 	stccs	0, cr0, [r0], {4}
    1ac4:	01000004 	tsteq	r0, r4
    1ac8:	042c5000 	strteq	r5, [ip], #-0
    1acc:	04330000 	ldrteq	r0, [r3], #-0
    1ad0:	00010000 	andeq	r0, r1, r0
    1ad4:	00000051 	andeq	r0, r0, r1, asr r0
    1ad8:	00000000 	andeq	r0, r0, r0
    1adc:	0003e400 	andeq	lr, r3, r0, lsl #8
    1ae0:	0003ec00 	andeq	lr, r3, r0, lsl #24
    1ae4:	50000100 	andpl	r0, r0, r0, lsl #2
    1ae8:	000003ec 	andeq	r0, r0, ip, ror #7
    1aec:	000003f3 	strdeq	r0, [r0], -r3
    1af0:	00510001 	subseq	r0, r1, r1
    1af4:	00000000 	andeq	r0, r0, r0
    1af8:	04000000 	streq	r0, [r0], #-0
    1afc:	10000004 	andne	r0, r0, r4
    1b00:	01000004 	tsteq	r0, r4
    1b04:	04105000 	ldreq	r5, [r0], #-0
    1b08:	04170000 	ldreq	r0, [r7], #-0
    1b0c:	00010000 	andeq	r0, r1, r0
    1b10:	00000051 	andeq	r0, r0, r1, asr r0
    1b14:	00000000 	andeq	r0, r0, r0
    1b18:	00044000 	andeq	r4, r4, r0
    1b1c:	00045300 	andeq	r5, r4, r0, lsl #6
    1b20:	50000100 	andpl	r0, r0, r0, lsl #2
    1b24:	00000453 	andeq	r0, r0, r3, asr r4
    1b28:	0000048c 	andeq	r0, r0, ip, lsl #9
    1b2c:	8c540001 	mrrchi	0, 0, r0, r4, cr1
    1b30:	c4000004 	strgt	r0, [r0], #-4
    1b34:	04000004 	streq	r0, [r0], #-4
    1b38:	5001f300 	andpl	pc, r1, r0, lsl #6
    1b3c:	0000009f 	muleq	r0, pc, r0	; <UNPREDICTABLE>
    1b40:	00000000 	andeq	r0, r0, r0
    1b44:	0004ac00 	andeq	sl, r4, r0, lsl #24
    1b48:	0004b000 	andeq	fp, r4, r0
    1b4c:	50000100 	andpl	r0, r0, r0, lsl #2
    1b50:	000004b0 			; <UNDEFINED> instruction: 0x000004b0
    1b54:	000004b7 			; <UNDEFINED> instruction: 0x000004b7
    1b58:	00510001 	subseq	r0, r1, r1
    1b5c:	00000000 	andeq	r0, r0, r0
    1b60:	68000000 	stmdavs	r0, {}	; <UNPREDICTABLE>
    1b64:	70000004 	andvc	r0, r0, r4
    1b68:	01000004 	tsteq	r0, r4
    1b6c:	04705000 	ldrbteq	r5, [r0], #-0
    1b70:	04770000 	ldrbteq	r0, [r7], #-0
    1b74:	00010000 	andeq	r0, r1, r0
    1b78:	00000051 	andeq	r0, r0, r1, asr r0
    1b7c:	00000000 	andeq	r0, r0, r0
    1b80:	00048800 	andeq	r8, r4, r0, lsl #16
    1b84:	00049400 	andeq	r9, r4, r0, lsl #8
    1b88:	50000100 	andpl	r0, r0, r0, lsl #2
    1b8c:	00000494 	muleq	r0, r4, r4
    1b90:	0000049b 	muleq	r0, fp, r4
    1b94:	00510001 	subseq	r0, r1, r1
    1b98:	00000000 	andeq	r0, r0, r0
    1b9c:	c4000000 	strgt	r0, [r0], #-0
    1ba0:	d7000004 	strle	r0, [r0, -r4]
    1ba4:	01000004 	tsteq	r0, r4
    1ba8:	04d75000 	ldrbeq	r5, [r7], #0
    1bac:	05180000 	ldreq	r0, [r8, #-0]
    1bb0:	00010000 	andeq	r0, r1, r0
    1bb4:	00051854 	andeq	r1, r5, r4, asr r8
    1bb8:	00053c00 	andeq	r3, r5, r0, lsl #24
    1bbc:	f3000400 	vshl.u8	d0, d0, d0
    1bc0:	3c9f5001 	ldccc	0, cr5, [pc], {1}
    1bc4:	40000005 	andmi	r0, r0, r5
    1bc8:	01000005 	tsteq	r0, r5
    1bcc:	05405000 	strbeq	r5, [r0, #-0]
    1bd0:	05480000 	strbeq	r0, [r8, #-0]
    1bd4:	00010000 	andeq	r0, r1, r0
    1bd8:	00000054 	andeq	r0, r0, r4, asr r0
    1bdc:	00000000 	andeq	r0, r0, r0
    1be0:	0004ec00 	andeq	lr, r4, r0, lsl #24
    1be4:	0004fb00 	andeq	pc, r4, r0, lsl #22
    1be8:	31000800 	tstcc	r0, r0, lsl #16
    1bec:	70240074 	eorvc	r0, r4, r4, ror r0
    1bf0:	009f1a00 	addseq	r1, pc, r0, lsl #20
    1bf4:	00000000 	andeq	r0, r0, r0
    1bf8:	18000000 	stmdane	r0, {}	; <UNPREDICTABLE>
    1bfc:	30000005 	andcc	r0, r0, r5
    1c00:	01000005 	tsteq	r0, r5
    1c04:	00005400 	andeq	r5, r0, r0, lsl #8
    1c08:	00000000 	andeq	r0, r0, r0
    1c0c:	05480000 	strbeq	r0, [r8, #-0]
    1c10:	055b0000 	ldrbeq	r0, [fp, #-0]
    1c14:	00010000 	andeq	r0, r1, r0
    1c18:	00055b50 	andeq	r5, r5, r0, asr fp
    1c1c:	00058000 	andeq	r8, r5, r0
    1c20:	54000100 	strpl	r0, [r0], #-256	; 0x100
    1c24:	00000580 	andeq	r0, r0, r0, lsl #11
    1c28:	000005a0 	andeq	r0, r0, r0, lsr #11
    1c2c:	01f30004 	mvnseq	r0, r4
    1c30:	00009f50 	andeq	r9, r0, r0, asr pc
	...
    1c3c:	00180000 	andseq	r0, r8, r0
    1c40:	00010000 	andeq	r0, r1, r0
    1c44:	00001850 	andeq	r1, r0, r0, asr r8
    1c48:	00015400 	andeq	r5, r1, r0, lsl #8
    1c4c:	f3000400 	vshl.u8	d0, d0, d0
    1c50:	009f5001 	addseq	r5, pc, r1
	...
    1c5c:	1c000000 	stcne	0, cr0, [r0], {-0}
    1c60:	01000000 	mrseq	r0, (UNDEF: 0)
    1c64:	001c5100 	andseq	r5, ip, r0, lsl #2
    1c68:	01540000 	cmpeq	r4, r0
    1c6c:	00040000 	andeq	r0, r4, r0
    1c70:	9f5101f3 	svcls	0x005101f3
	...
    1c7c:	00000010 	andeq	r0, r0, r0, lsl r0
    1c80:	00000134 	andeq	r0, r0, r4, lsr r1
    1c84:	00550001 	subseq	r0, r5, r1
    1c88:	00000000 	andeq	r0, r0, r0
    1c8c:	10000000 	andne	r0, r0, r0
    1c90:	34000000 	strcc	r0, [r0], #-0
    1c94:	01000000 	mrseq	r0, (UNDEF: 0)
    1c98:	00345500 	eorseq	r5, r4, r0, lsl #10
    1c9c:	01340000 	teqeq	r4, r0
    1ca0:	00010000 	andeq	r0, r1, r0
    1ca4:	00013458 	andeq	r3, r1, r8, asr r4
    1ca8:	00015400 	andeq	r5, r1, r0, lsl #8
    1cac:	55000100 	strpl	r0, [r0, #-256]	; 0x100
	...
    1cb8:	00000014 	andeq	r0, r0, r4, lsl r0
    1cbc:	00000134 	andeq	r0, r0, r4, lsr r1
    1cc0:	00550001 	subseq	r0, r5, r1
    1cc4:	00000000 	andeq	r0, r0, r0
    1cc8:	20000000 	andcs	r0, r0, r0
    1ccc:	34000000 	strcc	r0, [r0], #-0
    1cd0:	01000001 	tsteq	r0, r1
    1cd4:	00005500 	andeq	r5, r0, r0, lsl #10
    1cd8:	00000000 	andeq	r0, r0, r0
    1cdc:	00240000 	eoreq	r0, r4, r0
    1ce0:	00280000 	eoreq	r0, r8, r0
    1ce4:	00010000 	andeq	r0, r1, r0
    1ce8:	00000053 	andeq	r0, r0, r3, asr r0
    1cec:	00000000 	andeq	r0, r0, r0
    1cf0:	00003400 	andeq	r3, r0, r0, lsl #8
    1cf4:	00005400 	andeq	r5, r0, r0, lsl #8
    1cf8:	58000100 	stmdapl	r0, {r8}
    1cfc:	00000054 	andeq	r0, r0, r4, asr r0
    1d00:	00000134 	andeq	r0, r0, r4, lsr r1
    1d04:	00750005 	rsbseq	r0, r5, r5
    1d08:	009f2431 	addseq	r2, pc, r1, lsr r4	; <UNPREDICTABLE>
    1d0c:	00000000 	andeq	r0, r0, r0
    1d10:	34000000 	strcc	r0, [r0], #-0
    1d14:	3c000000 	stccc	0, cr0, [r0], {-0}
    1d18:	05000000 	streq	r0, [r0, #-0]
    1d1c:	31007700 	tstcc	r0, r0, lsl #14
    1d20:	003c9f1a 	eorseq	r9, ip, sl, lsl pc
    1d24:	003f0000 	eorseq	r0, pc, r0
    1d28:	00010000 	andeq	r0, r1, r0
    1d2c:	00003f51 	andeq	r3, r0, r1, asr pc
    1d30:	00015400 	andeq	r5, r1, r0, lsl #8
    1d34:	77000500 	strvc	r0, [r0, -r0, lsl #10]
    1d38:	9f1a3100 	svcls	0x001a3100
	...
    1d44:	00000040 	andeq	r0, r0, r0, asr #32
    1d48:	00000054 	andeq	r0, r0, r4, asr r0
    1d4c:	54580001 	ldrbpl	r0, [r8], #-1
    1d50:	34000000 	strcc	r0, [r0], #-0
    1d54:	05000001 	streq	r0, [r0, #-1]
    1d58:	31007500 	tstcc	r0, r0, lsl #10
    1d5c:	00009f24 	andeq	r9, r0, r4, lsr #30
    1d60:	00000000 	andeq	r0, r0, r0
    1d64:	00440000 	subeq	r0, r4, r0
    1d68:	00480000 	subeq	r0, r8, r0
    1d6c:	00010000 	andeq	r0, r1, r0
    1d70:	00000053 	andeq	r0, r0, r3, asr r0
    1d74:	00000000 	andeq	r0, r0, r0
    1d78:	00005400 	andeq	r5, r0, r0, lsl #8
    1d7c:	00007400 	andeq	r7, r0, r0, lsl #8
    1d80:	58000100 	stmdapl	r0, {r8}
    1d84:	00000074 	andeq	r0, r0, r4, ror r0
    1d88:	00000134 	andeq	r0, r0, r4, lsr r1
    1d8c:	00750008 	rsbseq	r0, r5, r8
    1d90:	00752431 	rsbseq	r2, r5, r1, lsr r4
    1d94:	00009f22 	andeq	r9, r0, r2, lsr #30
    1d98:	00000000 	andeq	r0, r0, r0
    1d9c:	00600000 	rsbeq	r0, r0, r0
    1da0:	00740000 	rsbseq	r0, r4, r0
    1da4:	00010000 	andeq	r0, r1, r0
    1da8:	00007458 	andeq	r7, r0, r8, asr r4
    1dac:	00013400 	andeq	r3, r1, r0, lsl #8
    1db0:	75000800 	strvc	r0, [r0, #-2048]	; 0x800
    1db4:	75243100 	strvc	r3, [r4, #-256]!	; 0x100
    1db8:	009f2200 	addseq	r2, pc, r0, lsl #4
    1dbc:	00000000 	andeq	r0, r0, r0
    1dc0:	64000000 	strvs	r0, [r0], #-0
    1dc4:	68000000 	stmdavs	r0, {}	; <UNPREDICTABLE>
    1dc8:	01000000 	mrseq	r0, (UNDEF: 0)
    1dcc:	00005300 	andeq	r5, r0, r0, lsl #6
    1dd0:	00000000 	andeq	r0, r0, r0
    1dd4:	00740000 	rsbseq	r0, r4, r0
    1dd8:	00940000 	addseq	r0, r4, r0
    1ddc:	00010000 	andeq	r0, r1, r0
    1de0:	00009458 	andeq	r9, r0, r8, asr r4
    1de4:	00013400 	andeq	r3, r1, r0, lsl #8
    1de8:	75000500 	strvc	r0, [r0, #-1280]	; 0x500
    1dec:	9f243200 	svcls	0x00243200
	...
    1df8:	00000080 	andeq	r0, r0, r0, lsl #1
    1dfc:	00000094 	muleq	r0, r4, r0
    1e00:	94580001 	ldrbls	r0, [r8], #-1
    1e04:	34000000 	strcc	r0, [r0], #-0
    1e08:	05000001 	streq	r0, [r0, #-1]
    1e0c:	32007500 	andcc	r7, r0, #0, 10
    1e10:	00009f24 	andeq	r9, r0, r4, lsr #30
    1e14:	00000000 	andeq	r0, r0, r0
    1e18:	00840000 	addeq	r0, r4, r0
    1e1c:	00880000 	addeq	r0, r8, r0
    1e20:	00010000 	andeq	r0, r1, r0
    1e24:	00000053 	andeq	r0, r0, r3, asr r0
    1e28:	00000000 	andeq	r0, r0, r0
    1e2c:	00009400 	andeq	r9, r0, r0, lsl #8
    1e30:	0000b400 	andeq	fp, r0, r0, lsl #8
    1e34:	58000100 	stmdapl	r0, {r8}
    1e38:	000000b4 	strheq	r0, [r0], -r4
    1e3c:	00000134 	andeq	r0, r0, r4, lsr r1
    1e40:	00750008 	rsbseq	r0, r5, r8
    1e44:	00752432 	rsbseq	r2, r5, r2, lsr r4
    1e48:	00009f22 	andeq	r9, r0, r2, lsr #30
    1e4c:	00000000 	andeq	r0, r0, r0
    1e50:	00a00000 	adceq	r0, r0, r0
    1e54:	00b40000 	adcseq	r0, r4, r0
    1e58:	00010000 	andeq	r0, r1, r0
    1e5c:	0000b458 	andeq	fp, r0, r8, asr r4
    1e60:	00013400 	andeq	r3, r1, r0, lsl #8
    1e64:	75000800 	strvc	r0, [r0, #-2048]	; 0x800
    1e68:	75243200 	strvc	r3, [r4, #-512]!	; 0x200
    1e6c:	009f2200 	addseq	r2, pc, r0, lsl #4
    1e70:	00000000 	andeq	r0, r0, r0
    1e74:	a4000000 	strge	r0, [r0], #-0
    1e78:	a8000000 	stmdage	r0, {}	; <UNPREDICTABLE>
    1e7c:	01000000 	mrseq	r0, (UNDEF: 0)
    1e80:	00005300 	andeq	r5, r0, r0, lsl #6
    1e84:	00000000 	andeq	r0, r0, r0
    1e88:	00b40000 	adcseq	r0, r4, r0
    1e8c:	00d40000 	sbcseq	r0, r4, r0
    1e90:	00010000 	andeq	r0, r1, r0
    1e94:	0000d458 	andeq	sp, r0, r8, asr r4
    1e98:	00013400 	andeq	r3, r1, r0, lsl #8
    1e9c:	75000a00 	strvc	r0, [r0, #-2560]	; 0xa00
    1ea0:	75243200 	strvc	r3, [r4, #-512]!	; 0x200
    1ea4:	22243100 	eorcs	r3, r4, #0, 2
    1ea8:	0000009f 	muleq	r0, pc, r0	; <UNPREDICTABLE>
    1eac:	00000000 	andeq	r0, r0, r0
    1eb0:	0000c000 	andeq	ip, r0, r0
    1eb4:	0000d400 	andeq	sp, r0, r0, lsl #8
    1eb8:	58000100 	stmdapl	r0, {r8}
    1ebc:	000000d4 	ldrdeq	r0, [r0], -r4
    1ec0:	00000134 	andeq	r0, r0, r4, lsr r1
    1ec4:	0075000a 	rsbseq	r0, r5, sl
    1ec8:	00752432 	rsbseq	r2, r5, r2, lsr r4
    1ecc:	9f222431 	svcls	0x00222431
	...
    1ed8:	000000c4 	andeq	r0, r0, r4, asr #1
    1edc:	000000c8 	andeq	r0, r0, r8, asr #1
    1ee0:	00530001 	subseq	r0, r3, r1
    1ee4:	00000000 	andeq	r0, r0, r0
    1ee8:	d4000000 	strle	r0, [r0], #-0
    1eec:	f4000000 	vst4.8	{d0-d3}, [r0], r0
    1ef0:	01000000 	mrseq	r0, (UNDEF: 0)
    1ef4:	00f45800 	rscseq	r5, r4, r0, lsl #16
    1ef8:	01340000 	teqeq	r4, r0
    1efc:	000d0000 	andeq	r0, sp, r0
    1f00:	24320075 	ldrtcs	r0, [r2], #-117	; 0x75
    1f04:	24310075 	ldrtcs	r0, [r1], #-117	; 0x75
    1f08:	22007522 	andcs	r7, r0, #142606336	; 0x8800000
    1f0c:	0000009f 	muleq	r0, pc, r0	; <UNPREDICTABLE>
    1f10:	00000000 	andeq	r0, r0, r0
    1f14:	0000e000 	andeq	lr, r0, r0
    1f18:	0000f400 	andeq	pc, r0, r0, lsl #8
    1f1c:	58000100 	stmdapl	r0, {r8}
    1f20:	000000f4 	strdeq	r0, [r0], -r4
    1f24:	00000134 	andeq	r0, r0, r4, lsr r1
    1f28:	0075000d 	rsbseq	r0, r5, sp
    1f2c:	00752432 	rsbseq	r2, r5, r2, lsr r4
    1f30:	75222431 	strvc	r2, [r2, #-1073]!	; 0x431
    1f34:	009f2200 	addseq	r2, pc, r0, lsl #4
    1f38:	00000000 	andeq	r0, r0, r0
    1f3c:	e4000000 	str	r0, [r0], #-0
    1f40:	e8000000 	stmda	r0, {}	; <UNPREDICTABLE>
    1f44:	01000000 	mrseq	r0, (UNDEF: 0)
    1f48:	00005300 	andeq	r5, r0, r0, lsl #6
    1f4c:	00000000 	andeq	r0, r0, r0
    1f50:	00f40000 	rscseq	r0, r4, r0
    1f54:	01140000 	tsteq	r4, r0
    1f58:	00010000 	andeq	r0, r1, r0
    1f5c:	00011458 	andeq	r1, r1, r8, asr r4
    1f60:	00013400 	andeq	r3, r1, r0, lsl #8
    1f64:	75000500 	strvc	r0, [r0, #-1280]	; 0x500
    1f68:	9f243300 	svcls	0x00243300
	...
    1f74:	00000100 	andeq	r0, r0, r0, lsl #2
    1f78:	00000114 	andeq	r0, r0, r4, lsl r1
    1f7c:	14580001 	ldrbne	r0, [r8], #-1
    1f80:	34000001 	strcc	r0, [r0], #-1
    1f84:	05000001 	streq	r0, [r0, #-1]
    1f88:	33007500 	movwcc	r7, #1280	; 0x500
    1f8c:	00009f24 	andeq	r9, r0, r4, lsr #30
    1f90:	00000000 	andeq	r0, r0, r0
    1f94:	01040000 	mrseq	r0, (UNDEF: 4)
    1f98:	01080000 	mrseq	r0, (UNDEF: 8)
    1f9c:	00010000 	andeq	r0, r1, r0
    1fa0:	00000053 	andeq	r0, r0, r3, asr r0
    1fa4:	00000000 	andeq	r0, r0, r0
    1fa8:	00011400 	andeq	r1, r1, r0, lsl #8
    1fac:	00011c00 	andeq	r1, r1, r0, lsl #24
    1fb0:	77000600 	strvc	r0, [r0, -r0, lsl #12]
    1fb4:	1a800800 	bne	fe003fbc <__bss_end__+0xfdff9da4>
    1fb8:	00011c9f 	muleq	r1, pc, ip	; <UNPREDICTABLE>
    1fbc:	00011f00 	andeq	r1, r1, r0, lsl #30
    1fc0:	51000100 	mrspl	r0, (UNDEF: 16)
    1fc4:	0000011f 	andeq	r0, r0, pc, lsl r1
    1fc8:	00000154 	andeq	r0, r0, r4, asr r1
    1fcc:	00770006 	rsbseq	r0, r7, r6
    1fd0:	9f1a8008 	svcls	0x001a8008
	...
    1fdc:	00000124 	andeq	r0, r0, r4, lsr #2
    1fe0:	00000128 	andeq	r0, r0, r8, lsr #2
    1fe4:	00530001 	subseq	r0, r3, r1
    1fe8:	00000000 	andeq	r0, r0, r0
    1fec:	44000000 	strmi	r0, [r0], #-0
    1ff0:	48000001 	stmdami	r0, {r0}
    1ff4:	01000001 	tsteq	r0, r1
    1ff8:	00005300 	andeq	r5, r0, r0, lsl #6
    1ffc:	00000000 	andeq	r0, r0, r0
    2000:	01540000 	cmpeq	r4, r0
    2004:	016b0000 	cmneq	fp, r0
    2008:	00010000 	andeq	r0, r1, r0
    200c:	00016b50 	andeq	r6, r1, r0, asr fp
    2010:	0001d000 	andeq	sp, r1, r0
    2014:	59000100 	stmdbpl	r0, {r8}
    2018:	000001d0 	ldrdeq	r0, [r0], -r0	; <UNPREDICTABLE>
    201c:	0000030c 	andeq	r0, r0, ip, lsl #6
    2020:	01f30004 	mvnseq	r0, r4
    2024:	030c9f50 	movweq	r9, #53072	; 0xcf50
    2028:	03140000 	tsteq	r4, #0
    202c:	00010000 	andeq	r0, r1, r0
    2030:	00031459 	andeq	r1, r3, r9, asr r4
    2034:	00031c00 	andeq	r1, r3, r0, lsl #24
    2038:	f3000400 	vshl.u8	d0, d0, d0
    203c:	009f5001 	addseq	r5, pc, r1
    2040:	00000000 	andeq	r0, r0, r0
    2044:	54000000 	strpl	r0, [r0], #-0
    2048:	6b000001 	blvs	2054 <_start-0x5fac>
    204c:	01000001 	tsteq	r0, r1
    2050:	016b5100 	cmneq	fp, r0, lsl #2
    2054:	031c0000 	tsteq	ip, #0
    2058:	00010000 	andeq	r0, r1, r0
    205c:	00000056 	andeq	r0, r0, r6, asr r0
    2060:	00000000 	andeq	r0, r0, r0
    2064:	0001a800 	andeq	sl, r1, r0, lsl #16
    2068:	00029800 	andeq	r9, r2, r0, lsl #16
    206c:	58000100 	stmdapl	r0, {r8}
	...
    2078:	000001ac 	andeq	r0, r0, ip, lsr #3
    207c:	000002d0 	ldrdeq	r0, [r0], -r0	; <UNPREDICTABLE>
    2080:	00540001 	subseq	r0, r4, r1
    2084:	00000000 	andeq	r0, r0, r0
    2088:	ac000000 	stcge	0, cr0, [r0], {-0}
    208c:	d0000001 	andle	r0, r0, r1
    2090:	05000002 	streq	r0, [r0, #-2]
    2094:	31007400 	tstcc	r0, r0, lsl #8
    2098:	00009f25 	andeq	r9, r0, r5, lsr #30
    209c:	00000000 	andeq	r0, r0, r0
    20a0:	01ac0000 			; <UNDEFINED> instruction: 0x01ac0000
    20a4:	01d00000 	bicseq	r0, r0, r0
    20a8:	00020000 	andeq	r0, r2, r0
    20ac:	01d09f30 	bicseq	r9, r0, r0, lsr pc
    20b0:	030c0000 	movweq	r0, #49152	; 0xc000
    20b4:	00010000 	andeq	r0, r1, r0
    20b8:	00031459 	andeq	r1, r3, r9, asr r4
    20bc:	00031c00 	andeq	r1, r3, r0, lsl #24
    20c0:	59000100 	stmdbpl	r0, {r8}
	...
    20cc:	00000168 	andeq	r0, r0, r8, ror #2
    20d0:	0000016b 	andeq	r0, r0, fp, ror #2
    20d4:	6b510001 	blvs	14420e0 <__bss_end__+0x1437ec8>
    20d8:	1c000001 	stcne	0, cr0, [r0], {1}
    20dc:	01000003 	tsteq	r0, r3
    20e0:	00005600 	andeq	r5, r0, r0, lsl #12
    20e4:	00000000 	andeq	r0, r0, r0
    20e8:	01700000 	cmneq	r0, r0
    20ec:	01ac0000 			; <UNDEFINED> instruction: 0x01ac0000
    20f0:	00010000 	andeq	r0, r1, r0
    20f4:	00030c54 	andeq	r0, r3, r4, asr ip
    20f8:	00031400 	andeq	r1, r3, r0, lsl #8
    20fc:	54000100 	strpl	r0, [r0], #-256	; 0x100
	...
    2108:	000001a8 	andeq	r0, r0, r8, lsr #3
    210c:	000001c4 	andeq	r0, r0, r4, asr #3
    2110:	00580001 	subseq	r0, r8, r1
    2114:	00000000 	andeq	r0, r0, r0
    2118:	b0000000 	andlt	r0, r0, r0
    211c:	cb000001 	blgt	2128 <_start-0x5ed8>
    2120:	01000001 	tsteq	r0, r1
    2124:	01cb5200 	biceq	r5, fp, r0, lsl #4
    2128:	02d00000 	sbcseq	r0, r0, #0
    212c:	00080000 	andeq	r0, r8, r0
    2130:	25310074 	ldrcs	r0, [r1, #-116]!	; 0x74
    2134:	9f220074 	svcls	0x00220074
	...
    2140:	000001b0 			; <UNDEFINED> instruction: 0x000001b0
    2144:	000001c4 	andeq	r0, r0, r4, asr #3
    2148:	00580001 	subseq	r0, r8, r1
    214c:	00000000 	andeq	r0, r0, r0
    2150:	b4000000 	strlt	r0, [r0], #-0
    2154:	b8000001 	stmdalt	r0, {r0}
    2158:	01000001 	tsteq	r0, r1
    215c:	00005300 	andeq	r5, r0, r0, lsl #6
    2160:	00000000 	andeq	r0, r0, r0
    2164:	01d00000 	bicseq	r0, r0, r0
    2168:	02d00000 	sbcseq	r0, r0, #0
    216c:	00010000 	andeq	r0, r1, r0
    2170:	00000054 	andeq	r0, r0, r4, asr r0
    2174:	00000000 	andeq	r0, r0, r0
    2178:	0001d000 	andeq	sp, r1, r0
    217c:	0001e400 	andeq	lr, r1, r0, lsl #8
    2180:	58000100 	stmdapl	r0, {r8}
	...
    218c:	000001d4 	ldrdeq	r0, [r0], -r4
    2190:	000001d8 	ldrdeq	r0, [r0], -r8
    2194:	00530001 	subseq	r0, r3, r1
    2198:	00000000 	andeq	r0, r0, r0
    219c:	f4000000 	vst4.8	{d0-d3}, [r0], r0
    21a0:	d0000001 	andle	r0, r0, r1
    21a4:	01000002 	tsteq	r0, r2
    21a8:	00005400 	andeq	r5, r0, r0, lsl #8
    21ac:	00000000 	andeq	r0, r0, r0
    21b0:	01f40000 	mvnseq	r0, r0
    21b4:	02080000 	andeq	r0, r8, #0
    21b8:	00010000 	andeq	r0, r1, r0
    21bc:	00000058 	andeq	r0, r0, r8, asr r0
    21c0:	00000000 	andeq	r0, r0, r0
    21c4:	0001f800 	andeq	pc, r1, r0, lsl #16
    21c8:	0001fc00 	andeq	pc, r1, r0, lsl #24
    21cc:	53000100 	movwpl	r0, #256	; 0x100
	...
    21d8:	00000218 	andeq	r0, r0, r8, lsl r2
    21dc:	000002d0 	ldrdeq	r0, [r0], -r0	; <UNPREDICTABLE>
    21e0:	00540001 	subseq	r0, r4, r1
    21e4:	00000000 	andeq	r0, r0, r0
    21e8:	18000000 	stmdane	r0, {}	; <UNPREDICTABLE>
    21ec:	2c000002 	stccs	0, cr0, [r0], {2}
    21f0:	01000002 	tsteq	r0, r2
    21f4:	00005800 	andeq	r5, r0, r0, lsl #16
    21f8:	00000000 	andeq	r0, r0, r0
    21fc:	021c0000 	andseq	r0, ip, #0
    2200:	02200000 	eoreq	r0, r0, #0
    2204:	00010000 	andeq	r0, r1, r0
    2208:	00000053 	andeq	r0, r0, r3, asr r0
    220c:	00000000 	andeq	r0, r0, r0
    2210:	00023c00 	andeq	r3, r2, r0, lsl #24
    2214:	0002d000 	andeq	sp, r2, r0
    2218:	54000100 	strpl	r0, [r0], #-256	; 0x100
	...
    2224:	0000023c 	andeq	r0, r0, ip, lsr r2
    2228:	00000250 	andeq	r0, r0, r0, asr r2
    222c:	00580001 	subseq	r0, r8, r1
    2230:	00000000 	andeq	r0, r0, r0
    2234:	40000000 	andmi	r0, r0, r0
    2238:	44000002 	strmi	r0, [r0], #-2
    223c:	01000002 	tsteq	r0, r2
    2240:	00005300 	andeq	r5, r0, r0, lsl #6
    2244:	00000000 	andeq	r0, r0, r0
    2248:	02600000 	rsbeq	r0, r0, #0
    224c:	02d00000 	sbcseq	r0, r0, #0
    2250:	00010000 	andeq	r0, r1, r0
    2254:	00000054 	andeq	r0, r0, r4, asr r0
    2258:	00000000 	andeq	r0, r0, r0
    225c:	00026000 	andeq	r6, r2, r0
    2260:	00027400 	andeq	r7, r2, r0, lsl #8
    2264:	58000100 	stmdapl	r0, {r8}
	...
    2270:	00000264 	andeq	r0, r0, r4, ror #4
    2274:	00000268 	andeq	r0, r0, r8, ror #4
    2278:	00530001 	subseq	r0, r3, r1
    227c:	00000000 	andeq	r0, r0, r0
    2280:	84000000 	strhi	r0, [r0], #-0
    2284:	d0000002 	andle	r0, r0, r2
    2288:	01000002 	tsteq	r0, r2
    228c:	00005400 	andeq	r5, r0, r0, lsl #8
    2290:	00000000 	andeq	r0, r0, r0
    2294:	02840000 	addeq	r0, r4, #0
    2298:	02980000 	addseq	r0, r8, #0
    229c:	00010000 	andeq	r0, r1, r0
    22a0:	00000058 	andeq	r0, r0, r8, asr r0
    22a4:	00000000 	andeq	r0, r0, r0
    22a8:	00028800 	andeq	r8, r2, r0, lsl #16
    22ac:	00028c00 	andeq	r8, r2, r0, lsl #24
    22b0:	53000100 	movwpl	r0, #256	; 0x100
	...
    22bc:	000002a8 	andeq	r0, r0, r8, lsr #5
    22c0:	000002d0 	ldrdeq	r0, [r0], -r0	; <UNPREDICTABLE>
    22c4:	00540001 	subseq	r0, r4, r1
    22c8:	00000000 	andeq	r0, r0, r0
    22cc:	ac000000 	stcge	0, cr0, [r0], {-0}
    22d0:	b0000002 	andlt	r0, r0, r2
    22d4:	01000002 	tsteq	r0, r2
    22d8:	00005300 	andeq	r5, r0, r0, lsl #6
    22dc:	00000000 	andeq	r0, r0, r0
    22e0:	02c80000 	sbceq	r0, r8, #0
    22e4:	030c0000 	movweq	r0, #49152	; 0xc000
    22e8:	00020000 	andeq	r0, r2, r0
    22ec:	03149f30 	tsteq	r4, #48, 30	; 0xc0
    22f0:	031c0000 	tsteq	ip, #0
    22f4:	00020000 	andeq	r0, r2, r0
    22f8:	00009f30 	andeq	r9, r0, r0, lsr pc
    22fc:	00000000 	andeq	r0, r0, r0
    2300:	02c80000 	sbceq	r0, r8, #0
    2304:	030c0000 	movweq	r0, #49152	; 0xc000
    2308:	00010000 	andeq	r0, r1, r0
    230c:	00031455 	andeq	r1, r3, r5, asr r4
    2310:	00031c00 	andeq	r1, r3, r0, lsl #24
    2314:	55000100 	strpl	r0, [r0, #-256]	; 0x100
	...
    2320:	000002d0 	ldrdeq	r0, [r0], -r0	; <UNPREDICTABLE>
    2324:	0000030c 	andeq	r0, r0, ip, lsl #6
    2328:	14540001 	ldrbne	r0, [r4], #-1
    232c:	1c000003 	stcne	0, cr0, [r0], {3}
    2330:	01000003 	tsteq	r0, r3
    2334:	00005400 	andeq	r5, r0, r0, lsl #8
    2338:	00000000 	andeq	r0, r0, r0
    233c:	031c0000 	tsteq	ip, #0
    2340:	033f0000 	teqeq	pc, #0
    2344:	00010000 	andeq	r0, r1, r0
    2348:	00033f50 	andeq	r3, r3, r0, asr pc
    234c:	00036000 	andeq	r6, r3, r0
    2350:	58000100 	stmdapl	r0, {r8}
    2354:	00000360 	andeq	r0, r0, r0, ror #6
    2358:	00000370 	andeq	r0, r0, r0, ror r3
    235c:	70500001 	subsvc	r0, r0, r1
    2360:	b0000003 	andlt	r0, r0, r3
    2364:	01000003 	tsteq	r0, r3
    2368:	03b05800 	movseq	r5, #0, 16
    236c:	03c00000 	biceq	r0, r0, #0
    2370:	00040000 	andeq	r0, r4, r0
    2374:	9f5001f3 	svcls	0x005001f3
	...
    2380:	0000031c 	andeq	r0, r0, ip, lsl r3
    2384:	0000033f 	andeq	r0, r0, pc, lsr r3
    2388:	3f510001 	svccc	0x00510001
    238c:	60000003 	andvs	r0, r0, r3
    2390:	01000003 	tsteq	r0, r3
    2394:	03605600 	cmneq	r0, #0, 12
    2398:	03700000 	cmneq	r0, #0
    239c:	00010000 	andeq	r0, r1, r0
    23a0:	00037051 	andeq	r7, r3, r1, asr r0
    23a4:	0003b000 	andeq	fp, r3, r0
    23a8:	56000100 	strpl	r0, [r0], -r0, lsl #2
    23ac:	000003b0 			; <UNDEFINED> instruction: 0x000003b0
    23b0:	000003c0 	andeq	r0, r0, r0, asr #7
    23b4:	01f30004 	mvnseq	r0, r4
    23b8:	00009f51 	andeq	r9, r0, r1, asr pc
    23bc:	00000000 	andeq	r0, r0, r0
    23c0:	031c0000 	tsteq	ip, #0
    23c4:	033f0000 	teqeq	pc, #0
    23c8:	00010000 	andeq	r0, r1, r0
    23cc:	00033f52 	andeq	r3, r3, r2, asr pc
    23d0:	00036000 	andeq	r6, r3, r0
    23d4:	f3000400 	vshl.u8	d0, d0, d0
    23d8:	609f5201 	addsvs	r5, pc, r1, lsl #4
    23dc:	70000003 	andvc	r0, r0, r3
    23e0:	01000003 	tsteq	r0, r3
    23e4:	03705200 	cmneq	r0, #0, 4
    23e8:	03b00000 	movseq	r0, #0
    23ec:	00030000 	andeq	r0, r3, r0
    23f0:	b09f0177 	addslt	r0, pc, r7, ror r1	; <UNPREDICTABLE>
    23f4:	c0000003 	andgt	r0, r0, r3
    23f8:	04000003 	streq	r0, [r0], #-3
    23fc:	5201f300 	andpl	pc, r1, #0, 6
    2400:	0000009f 	muleq	r0, pc, r0	; <UNPREDICTABLE>
    2404:	00000000 	andeq	r0, r0, r0
    2408:	00031c00 	andeq	r1, r3, r0, lsl #24
    240c:	00033f00 	andeq	r3, r3, r0, lsl #30
    2410:	53000100 	movwpl	r0, #256	; 0x100
    2414:	0000033f 	andeq	r0, r0, pc, lsr r3
    2418:	00000360 	andeq	r0, r0, r0, ror #6
    241c:	01f30004 	mvnseq	r0, r4
    2420:	03609f53 	cmneq	r0, #332	; 0x14c
    2424:	03700000 	cmneq	r0, #0
    2428:	00010000 	andeq	r0, r1, r0
    242c:	00037053 	andeq	r7, r3, r3, asr r0
    2430:	0003c000 	andeq	ip, r3, r0
    2434:	f3000400 	vshl.u8	d0, d0, d0
    2438:	009f5301 	addseq	r5, pc, r1, lsl #6
    243c:	00000000 	andeq	r0, r0, r0
    2440:	68000000 	stmdavs	r0, {}	; <UNPREDICTABLE>
    2444:	70000003 	andvc	r0, r0, r3
    2448:	02000003 	andeq	r0, r0, #3
    244c:	709f3000 	addsvc	r3, pc, r0
    2450:	b0000003 	andlt	r0, r0, r3
    2454:	01000003 	tsteq	r0, r3
    2458:	03b05400 	movseq	r5, #0, 8
    245c:	03c00000 	biceq	r0, r0, #0
    2460:	00010000 	andeq	r0, r1, r0
    2464:	00000050 	andeq	r0, r0, r0, asr r0
    2468:	00000000 	andeq	r0, r0, r0
    246c:	00038000 	andeq	r8, r3, r0
    2470:	00039000 	andeq	r9, r3, r0
    2474:	50000100 	andpl	r0, r0, r0, lsl #2
	...
    2480:	000003c0 	andeq	r0, r0, r0, asr #7
    2484:	000003df 	ldrdeq	r0, [r0], -pc	; <UNPREDICTABLE>
    2488:	df500001 	svcle	0x00500001
    248c:	00000003 	andeq	r0, r0, r3
    2490:	01000004 	tsteq	r0, r4
    2494:	04005700 	streq	r5, [r0], #-1792	; 0x700
    2498:	04100000 	ldreq	r0, [r0], #-0
    249c:	00010000 	andeq	r0, r1, r0
    24a0:	00041050 	andeq	r1, r4, r0, asr r0
    24a4:	00044000 	andeq	r4, r4, r0
    24a8:	57000100 	strpl	r0, [r0, -r0, lsl #2]
    24ac:	00000440 	andeq	r0, r0, r0, asr #8
    24b0:	00000450 	andeq	r0, r0, r0, asr r4
    24b4:	01f30004 	mvnseq	r0, r4
    24b8:	00009f50 	andeq	r9, r0, r0, asr pc
    24bc:	00000000 	andeq	r0, r0, r0
    24c0:	03c00000 	biceq	r0, r0, #0
    24c4:	03df0000 	bicseq	r0, pc, #0
    24c8:	00010000 	andeq	r0, r1, r0
    24cc:	0003df51 	andeq	sp, r3, r1, asr pc
    24d0:	00040000 	andeq	r0, r4, r0
    24d4:	55000100 	strpl	r0, [r0, #-256]	; 0x100
    24d8:	00000400 	andeq	r0, r0, r0, lsl #8
    24dc:	00000410 	andeq	r0, r0, r0, lsl r4
    24e0:	10510001 	subsne	r0, r1, r1
    24e4:	40000004 	andmi	r0, r0, r4
    24e8:	01000004 	tsteq	r0, r4
    24ec:	04405500 	strbeq	r5, [r0], #-1280	; 0x500
    24f0:	04500000 	ldrbeq	r0, [r0], #-0
    24f4:	00040000 	andeq	r0, r4, r0
    24f8:	9f5101f3 	svcls	0x005101f3
	...
    2504:	000003c0 	andeq	r0, r0, r0, asr #7
    2508:	000003df 	ldrdeq	r0, [r0], -pc	; <UNPREDICTABLE>
    250c:	df520001 	svcle	0x00520001
    2510:	00000003 	andeq	r0, r0, r3
    2514:	04000004 	streq	r0, [r0], #-4
    2518:	5201f300 	andpl	pc, r1, #0, 6
    251c:	0004009f 	muleq	r4, pc, r0	; <UNPREDICTABLE>
    2520:	00041000 	andeq	r1, r4, r0
    2524:	52000100 	andpl	r0, r0, #0, 2
    2528:	00000410 	andeq	r0, r0, r0, lsl r4
    252c:	00000440 	andeq	r0, r0, r0, asr #8
    2530:	01760003 	cmneq	r6, r3
    2534:	0004409f 	muleq	r4, pc, r0	; <UNPREDICTABLE>
    2538:	00045000 	andeq	r5, r4, r0
    253c:	f3000400 	vshl.u8	d0, d0, d0
    2540:	009f5201 	addseq	r5, pc, r1, lsl #4
    2544:	00000000 	andeq	r0, r0, r0
    2548:	c0000000 	andgt	r0, r0, r0
    254c:	df000003 	svcle	0x00000003
    2550:	01000003 	tsteq	r0, r3
    2554:	03df5300 	bicseq	r5, pc, #0, 6
    2558:	04000000 	streq	r0, [r0], #-0
    255c:	00010000 	andeq	r0, r1, r0
    2560:	00040058 	andeq	r0, r4, r8, asr r0
    2564:	00041000 	andeq	r1, r4, r0
    2568:	53000100 	movwpl	r0, #256	; 0x100
    256c:	00000410 	andeq	r0, r0, r0, lsl r4
    2570:	00000440 	andeq	r0, r0, r0, asr #8
    2574:	40580001 	subsmi	r0, r8, r1
    2578:	50000004 	andpl	r0, r0, r4
    257c:	04000004 	streq	r0, [r0], #-4
    2580:	5301f300 	movwpl	pc, #4864	; 0x1300	; <UNPREDICTABLE>
    2584:	0000009f 	muleq	r0, pc, r0	; <UNPREDICTABLE>
    2588:	00000000 	andeq	r0, r0, r0
    258c:	00040800 	andeq	r0, r4, r0, lsl #16
    2590:	00041000 	andeq	r1, r4, r0
    2594:	30000200 	andcc	r0, r0, r0, lsl #4
    2598:	0004109f 	muleq	r4, pc, r0	; <UNPREDICTABLE>
    259c:	00044000 	andeq	r4, r4, r0
    25a0:	54000100 	strpl	r0, [r0], #-256	; 0x100
    25a4:	00000440 	andeq	r0, r0, r0, asr #8
    25a8:	00000450 	andeq	r0, r0, r0, asr r4
    25ac:	00500001 	subseq	r0, r0, r1
    25b0:	00000000 	andeq	r0, r0, r0
    25b4:	50000000 	andpl	r0, r0, r0
    25b8:	73000004 	movwvc	r0, #4
    25bc:	01000004 	tsteq	r0, r4
    25c0:	04735100 	ldrbteq	r5, [r3], #-256	; 0x100
    25c4:	05240000 	streq	r0, [r4, #-0]!
    25c8:	00040000 	andeq	r0, r4, r0
    25cc:	9f5101f3 	svcls	0x005101f3
	...
    25d8:	00000450 	andeq	r0, r0, r0, asr r4
    25dc:	00000473 	andeq	r0, r0, r3, ror r4
    25e0:	73520001 	cmpvc	r2, #1
    25e4:	24000004 	strcs	r0, [r0], #-4
    25e8:	04000005 	streq	r0, [r0], #-5
    25ec:	5201f300 	andpl	pc, r1, #0, 6
    25f0:	0000009f 	muleq	r0, pc, r0	; <UNPREDICTABLE>
    25f4:	00000000 	andeq	r0, r0, r0
    25f8:	00045000 	andeq	r5, r4, r0
    25fc:	00047300 	andeq	r7, r4, r0, lsl #6
    2600:	53000100 	movwpl	r0, #256	; 0x100
    2604:	00000473 	andeq	r0, r0, r3, ror r4
    2608:	00000510 	andeq	r0, r0, r0, lsl r5
    260c:	10550001 	subsne	r0, r5, r1
    2610:	24000005 	strcs	r0, [r0], #-5
    2614:	02000005 	andeq	r0, r0, #5
    2618:	00047000 	andeq	r7, r4, r0
    261c:	00000000 	andeq	r0, r0, r0
    2620:	94000000 	strls	r0, [r0], #-0
    2624:	d3000004 	movwle	r0, #4
    2628:	01000004 	tsteq	r0, r4
    262c:	04d35200 	ldrbeq	r5, [r3], #512	; 0x200
    2630:	04f40000 	ldrbteq	r0, [r4], #0
    2634:	00060000 	andeq	r0, r6, r0
    2638:	00770075 	rsbseq	r0, r7, r5, ror r0
    263c:	04f49f1e 	ldrbteq	r9, [r4], #3870	; 0xf1e
    2640:	05240000 	streq	r0, [r4, #-0]!
    2644:	00010000 	andeq	r0, r1, r0
    2648:	00000052 	andeq	r0, r0, r2, asr r0
    264c:	00000000 	andeq	r0, r0, r0
    2650:	00052400 	andeq	r2, r5, r0, lsl #8
    2654:	00052f00 	andeq	r2, r5, r0, lsl #30
    2658:	50000100 	andpl	r0, r0, r0, lsl #2
    265c:	0000052f 	andeq	r0, r0, pc, lsr #10
    2660:	00000560 	andeq	r0, r0, r0, ror #10
    2664:	01f30004 	mvnseq	r0, r4
    2668:	00009f50 	andeq	r9, r0, r0, asr pc
    266c:	00000000 	andeq	r0, r0, r0
    2670:	05300000 	ldreq	r0, [r0, #-0]!
    2674:	053b0000 	ldreq	r0, [fp, #-0]!
    2678:	00010000 	andeq	r0, r1, r0
    267c:	00000050 	andeq	r0, r0, r0, asr r0
    2680:	00000000 	andeq	r0, r0, r0
    2684:	00056000 	andeq	r6, r5, r0
    2688:	00057000 	andeq	r7, r5, r0
    268c:	50000100 	andpl	r0, r0, r0, lsl #2
    2690:	00000570 	andeq	r0, r0, r0, ror r5
    2694:	0000058c 	andeq	r0, r0, ip, lsl #11
    2698:	00550001 	subseq	r0, r5, r1
    269c:	00000000 	andeq	r0, r0, r0
    26a0:	60000000 	andvs	r0, r0, r0
    26a4:	70000005 	andvc	r0, r0, r5
    26a8:	01000005 	tsteq	r0, r5
    26ac:	05705100 	ldrbeq	r5, [r0, #-256]!	; 0x100
    26b0:	058c0000 	streq	r0, [ip]
    26b4:	00010000 	andeq	r0, r1, r0
    26b8:	00000054 	andeq	r0, r0, r4, asr r0
    26bc:	00000000 	andeq	r0, r0, r0
    26c0:	00058c00 	andeq	r8, r5, r0, lsl #24
    26c4:	0005a800 	andeq	sl, r5, r0, lsl #16
    26c8:	50000100 	andpl	r0, r0, r0, lsl #2
    26cc:	000005a8 	andeq	r0, r0, r8, lsr #11
    26d0:	00000600 	andeq	r0, r0, r0, lsl #12
    26d4:	00550001 	subseq	r0, r5, r1
    26d8:	1c000006 	stcne	0, cr0, [r0], {6}
    26dc:	04000006 	streq	r0, [r0], #-6
    26e0:	5001f300 	andpl	pc, r1, r0, lsl #6
    26e4:	0000009f 	muleq	r0, pc, r0	; <UNPREDICTABLE>
    26e8:	00000000 	andeq	r0, r0, r0
    26ec:	0005b800 	andeq	fp, r5, r0, lsl #16
    26f0:	0005c700 	andeq	ip, r5, r0, lsl #14
    26f4:	50000100 	andpl	r0, r0, r0, lsl #2
    26f8:	000005c7 	andeq	r0, r0, r7, asr #11
    26fc:	000005e8 	andeq	r0, r0, r8, ror #11
    2700:	e8540001 	ldmda	r4, {r0}^
    2704:	ec000005 	stc	0, cr0, [r0], {5}
    2708:	01000005 	tsteq	r0, r5
    270c:	05ec5000 	strbeq	r5, [ip, #0]!
    2710:	06000000 	streq	r0, [r0], -r0
    2714:	00010000 	andeq	r0, r1, r0
    2718:	00060054 	andeq	r0, r6, r4, asr r0
    271c:	00061c00 	andeq	r1, r6, r0, lsl #24
    2720:	50000100 	andpl	r0, r0, r0, lsl #2
	...
    272c:	0000061c 	andeq	r0, r0, ip, lsl r6
    2730:	0000062f 	andeq	r0, r0, pc, lsr #12
    2734:	2f500001 	svccs	0x00500001
    2738:	68000006 	stmdavs	r0, {r1, r2}
    273c:	04000006 	streq	r0, [r0], #-6
    2740:	5001f300 	andpl	pc, r1, r0, lsl #6
    2744:	0000009f 	muleq	r0, pc, r0	; <UNPREDICTABLE>
    2748:	00000000 	andeq	r0, r0, r0
    274c:	00061c00 	andeq	r1, r6, r0, lsl #24
    2750:	00062f00 	andeq	r2, r6, r0, lsl #30
    2754:	51000100 	mrspl	r0, (UNDEF: 16)
    2758:	0000062f 	andeq	r0, r0, pc, lsr #12
    275c:	00000668 	andeq	r0, r0, r8, ror #12
    2760:	01f30004 	mvnseq	r0, r4
    2764:	00009f51 	andeq	r9, r0, r1, asr pc
    2768:	00000000 	andeq	r0, r0, r0
    276c:	061c0000 	ldreq	r0, [ip], -r0
    2770:	062f0000 	strteq	r0, [pc], -r0
    2774:	00010000 	andeq	r0, r1, r0
    2778:	00062f52 	andeq	r2, r6, r2, asr pc
    277c:	00066800 	andeq	r6, r6, r0, lsl #16
    2780:	f3000400 	vshl.u8	d0, d0, d0
    2784:	009f5201 	addseq	r5, pc, r1, lsl #4
    2788:	00000000 	andeq	r0, r0, r0
    278c:	1c000000 	stcne	0, cr0, [r0], {-0}
    2790:	2f000006 	svccs	0x00000006
    2794:	01000006 	tsteq	r0, r6
    2798:	062f5300 	strteq	r5, [pc], -r0, lsl #6
    279c:	06680000 	strbteq	r0, [r8], -r0
    27a0:	00040000 	andeq	r0, r4, r0
    27a4:	9f5301f3 	svcls	0x005301f3
	...
    27b0:	00000630 	andeq	r0, r0, r0, lsr r6
    27b4:	0000063b 	andeq	r0, r0, fp, lsr r6
    27b8:	54500001 	ldrbpl	r0, [r0], #-1
    27bc:	68000006 	stmdavs	r0, {r1, r2}
    27c0:	01000006 	tsteq	r0, r6
    27c4:	00005000 	andeq	r5, r0, r0
    27c8:	00000000 	andeq	r0, r0, r0
    27cc:	00fc0000 	rscseq	r0, ip, r0
    27d0:	01040000 	mrseq	r0, (UNDEF: 4)
    27d4:	00010000 	andeq	r0, r1, r0
    27d8:	00010450 	andeq	r0, r1, r0, asr r4
    27dc:	00012800 	andeq	r2, r1, r0, lsl #16
    27e0:	54000100 	strpl	r0, [r0], #-256	; 0x100
	...
    27f0:	00000004 	andeq	r0, r0, r4
    27f4:	04520001 	ldrbeq	r0, [r2], #-1
    27f8:	20000000 	andcs	r0, r0, r0
    27fc:	04000000 	streq	r0, [r0], #-0
    2800:	5201f300 	andpl	pc, r1, #0, 6
    2804:	0000009f 	muleq	r0, pc, r0	; <UNPREDICTABLE>
	...
    2810:	00000c00 	andeq	r0, r0, r0, lsl #24
    2814:	50000100 	andpl	r0, r0, r0, lsl #2
    2818:	0000000c 	andeq	r0, r0, ip
    281c:	00000014 	andeq	r0, r0, r4, lsl r0
    2820:	01730003 	cmneq	r3, r3
    2824:	0000149f 	muleq	r0, pc, r4	; <UNPREDICTABLE>
    2828:	00002000 	andeq	r2, r0, r0
    282c:	53000100 	movwpl	r0, #256	; 0x100
	...

Disassembly of section .debug_aranges:

00000000 <.debug_aranges>:
   0:	0000001c 	andeq	r0, r0, ip, lsl r0
   4:	00000002 	andeq	r0, r0, r2
   8:	00040000 	andeq	r0, r4, r0
   c:	00000000 	andeq	r0, r0, r0
  10:	00008010 	andeq	r8, r0, r0, lsl r0
  14:	00000490 	muleq	r0, r0, r4
	...
  20:	0000001c 	andeq	r0, r0, ip, lsl r0
  24:	0cc00002 	stcleq	0, cr0, [r0], {2}
  28:	00040000 	andeq	r0, r4, r0
  2c:	00000000 	andeq	r0, r0, r0
  30:	000084a0 	andeq	r8, r0, r0, lsr #9
  34:	00000058 	andeq	r0, r0, r8, asr r0
	...
  40:	0000001c 	andeq	r0, r0, ip, lsl r0
  44:	0e550002 	cdpeq	0, 5, cr0, cr5, cr2, {0}
  48:	00040000 	andeq	r0, r4, r0
  4c:	00000000 	andeq	r0, r0, r0
  50:	000084f8 	strdeq	r8, [r0], -r8	; <UNPREDICTABLE>
  54:	0000003c 	andeq	r0, r0, ip, lsr r0
	...
  60:	0000001c 	andeq	r0, r0, ip, lsl r0
  64:	0f6c0002 	svceq	0x006c0002
  68:	00040000 	andeq	r0, r4, r0
  6c:	00000000 	andeq	r0, r0, r0
  70:	00008534 	andeq	r8, r0, r4, lsr r5
  74:	00000034 	andeq	r0, r0, r4, lsr r0
	...
  80:	0000001c 	andeq	r0, r0, ip, lsl r0
  84:	105e0002 	subsne	r0, lr, r2
  88:	00040000 	andeq	r0, r4, r0
  8c:	00000000 	andeq	r0, r0, r0
  90:	00008568 	andeq	r8, r0, r8, ror #10
  94:	00000524 	andeq	r0, r0, r4, lsr #10
	...
  a0:	0000001c 	andeq	r0, r0, ip, lsl r0
  a4:	17030002 	strne	r0, [r3, -r2]
  a8:	00040000 	andeq	r0, r4, r0
  ac:	00000000 	andeq	r0, r0, r0
  b0:	00008a8c 	andeq	r8, r0, ip, lsl #21
  b4:	00000020 	andeq	r0, r0, r0, lsr #32
	...
  c0:	0000001c 	andeq	r0, r0, ip, lsl r0
  c4:	17bf0002 	ldrne	r0, [pc, r2]!
  c8:	00040000 	andeq	r0, r4, r0
  cc:	00000000 	andeq	r0, r0, r0
  d0:	00008aac 	andeq	r8, r0, ip, lsr #21
  d4:	00000028 	andeq	r0, r0, r8, lsr #32
	...
  e0:	0000001c 	andeq	r0, r0, ip, lsl r0
  e4:	18c20002 	stmiane	r2, {r1}^
  e8:	00040000 	andeq	r0, r4, r0
  ec:	00000000 	andeq	r0, r0, r0
  f0:	00008ad4 	ldrdeq	r8, [r0], -r4
  f4:	000000b0 	strheq	r0, [r0], -r0	; <UNPREDICTABLE>
	...
 100:	0000001c 	andeq	r0, r0, ip, lsl r0
 104:	1ba30002 	blne	fe8c0114 <__bss_end__+0xfe8b5efc>
 108:	00040000 	andeq	r0, r4, r0
 10c:	00000000 	andeq	r0, r0, r0
 110:	00008b84 	andeq	r8, r0, r4, lsl #23
 114:	00000074 	andeq	r0, r0, r4, ror r0
	...
 120:	0000001c 	andeq	r0, r0, ip, lsl r0
 124:	1d540002 	ldclne	0, cr0, [r4, #-8]
 128:	00040000 	andeq	r0, r4, r0
 12c:	00000000 	andeq	r0, r0, r0
 130:	00008bf8 	strdeq	r8, [r0], -r8	; <UNPREDICTABLE>
 134:	00000088 	andeq	r0, r0, r8, lsl #1
	...
 140:	0000001c 	andeq	r0, r0, ip, lsl r0
 144:	1f300002 	svcne	0x00300002
 148:	00040000 	andeq	r0, r4, r0
 14c:	00000000 	andeq	r0, r0, r0
 150:	00008c80 	andeq	r8, r0, r0, lsl #25
 154:	000005a0 	andeq	r0, r0, r0, lsr #11
	...
 160:	0000001c 	andeq	r0, r0, ip, lsl r0
 164:	27b60002 	ldrcs	r0, [r6, r2]!
 168:	00040000 	andeq	r0, r4, r0
 16c:	00000000 	andeq	r0, r0, r0
 170:	00009220 	andeq	r9, r0, r0, lsr #4
 174:	00000668 	andeq	r0, r0, r8, ror #12
	...
 180:	0000001c 	andeq	r0, r0, ip, lsl r0
 184:	39ac0002 	stmibcc	ip!, {r1}
 188:	00040000 	andeq	r0, r4, r0
 18c:	00000000 	andeq	r0, r0, r0
 190:	00009888 	andeq	r9, r0, r8, lsl #17
 194:	00000154 	andeq	r0, r0, r4, asr r1
	...
 1a0:	0000001c 	andeq	r0, r0, ip, lsl r0
 1a4:	3daf0002 	stccc	0, cr0, [pc, #8]!	; 1b4 <_start-0x7e4c>
 1a8:	00040000 	andeq	r0, r4, r0
 1ac:	00000000 	andeq	r0, r0, r0
 1b0:	00009a40 	andeq	r9, r0, r0, asr #20
 1b4:	00000050 	andeq	r0, r0, r0, asr r0
	...
 1c0:	0000001c 	andeq	r0, r0, ip, lsl r0
 1c4:	3f760002 	svccc	0x00760002
 1c8:	00040000 	andeq	r0, r4, r0
 1cc:	00000000 	andeq	r0, r0, r0
 1d0:	00009a90 	muleq	r0, r0, sl
 1d4:	00000020 	andeq	r0, r0, r0, lsr #32
	...

Disassembly of section .debug_ranges:

00000000 <.debug_ranges>:
   0:	0000021c 	andeq	r0, r0, ip, lsl r2
   4:	00000220 	andeq	r0, r0, r0, lsr #4
   8:	00000224 	andeq	r0, r0, r4, lsr #4
   c:	00000228 	andeq	r0, r0, r8, lsr #4
  10:	0000022c 	andeq	r0, r0, ip, lsr #4
  14:	00000230 	andeq	r0, r0, r0, lsr r2
  18:	00000234 	andeq	r0, r0, r4, lsr r2
  1c:	00000238 	andeq	r0, r0, r8, lsr r2
	...
  28:	00000228 	andeq	r0, r0, r8, lsr #4
  2c:	0000022c 	andeq	r0, r0, ip, lsr #4
  30:	00000230 	andeq	r0, r0, r0, lsr r2
  34:	00000234 	andeq	r0, r0, r4, lsr r2
  38:	00000238 	andeq	r0, r0, r8, lsr r2
  3c:	00000240 	andeq	r0, r0, r0, asr #4
	...
  48:	00000250 	andeq	r0, r0, r0, asr r2
  4c:	00000254 	andeq	r0, r0, r4, asr r2
  50:	00000258 	andeq	r0, r0, r8, asr r2
  54:	0000025c 	andeq	r0, r0, ip, asr r2
  58:	00000260 	andeq	r0, r0, r0, ror #4
  5c:	00000264 	andeq	r0, r0, r4, ror #4
  60:	00000268 	andeq	r0, r0, r8, ror #4
  64:	0000026c 	andeq	r0, r0, ip, ror #4
	...
  70:	0000025c 	andeq	r0, r0, ip, asr r2
  74:	00000260 	andeq	r0, r0, r0, ror #4
  78:	00000264 	andeq	r0, r0, r4, ror #4
  7c:	00000268 	andeq	r0, r0, r8, ror #4
  80:	0000026c 	andeq	r0, r0, ip, ror #4
  84:	00000274 	andeq	r0, r0, r4, ror r2
	...
  90:	00000284 	andeq	r0, r0, r4, lsl #5
  94:	00000288 	andeq	r0, r0, r8, lsl #5
  98:	0000028c 	andeq	r0, r0, ip, lsl #5
  9c:	00000290 	muleq	r0, r0, r2
  a0:	00000294 	muleq	r0, r4, r2
  a4:	00000298 	muleq	r0, r8, r2
  a8:	0000029c 	muleq	r0, ip, r2
  ac:	000002a0 	andeq	r0, r0, r0, lsr #5
	...
  b8:	00000290 	muleq	r0, r0, r2
  bc:	00000294 	muleq	r0, r4, r2
  c0:	00000298 	muleq	r0, r8, r2
  c4:	0000029c 	muleq	r0, ip, r2
  c8:	000002a0 	andeq	r0, r0, r0, lsr #5
  cc:	000002a8 	andeq	r0, r0, r8, lsr #5
	...
  d8:	000002b8 			; <UNDEFINED> instruction: 0x000002b8
  dc:	000002bc 			; <UNDEFINED> instruction: 0x000002bc
  e0:	000002c0 	andeq	r0, r0, r0, asr #5
  e4:	000002c4 	andeq	r0, r0, r4, asr #5
  e8:	000002c8 	andeq	r0, r0, r8, asr #5
  ec:	000002cc 	andeq	r0, r0, ip, asr #5
  f0:	000002d0 	ldrdeq	r0, [r0], -r0	; <UNPREDICTABLE>
  f4:	000002d4 	ldrdeq	r0, [r0], -r4
	...
 100:	000002c4 	andeq	r0, r0, r4, asr #5
 104:	000002c8 	andeq	r0, r0, r8, asr #5
 108:	000002cc 	andeq	r0, r0, ip, asr #5
 10c:	000002d0 	ldrdeq	r0, [r0], -r0	; <UNPREDICTABLE>
 110:	000002d4 	ldrdeq	r0, [r0], -r4
 114:	000002dc 	ldrdeq	r0, [r0], -ip
	...
 120:	000002ec 	andeq	r0, r0, ip, ror #5
 124:	000002f0 	strdeq	r0, [r0], -r0	; <UNPREDICTABLE>
 128:	000002f4 	strdeq	r0, [r0], -r4
 12c:	000002f8 	strdeq	r0, [r0], -r8
 130:	000002fc 	strdeq	r0, [r0], -ip
 134:	00000300 	andeq	r0, r0, r0, lsl #6
 138:	00000308 	andeq	r0, r0, r8, lsl #6
 13c:	0000030c 	andeq	r0, r0, ip, lsl #6
	...
 148:	000002f8 	strdeq	r0, [r0], -r8
 14c:	000002fc 	strdeq	r0, [r0], -ip
 150:	00000300 	andeq	r0, r0, r0, lsl #6
 154:	00000308 	andeq	r0, r0, r8, lsl #6
 158:	0000030c 	andeq	r0, r0, ip, lsl #6
 15c:	00000314 	andeq	r0, r0, r4, lsl r3
	...
 168:	00000324 	andeq	r0, r0, r4, lsr #6
 16c:	00000328 	andeq	r0, r0, r8, lsr #6
 170:	0000032c 	andeq	r0, r0, ip, lsr #6
 174:	00000330 	andeq	r0, r0, r0, lsr r3
 178:	00000334 	andeq	r0, r0, r4, lsr r3
 17c:	00000338 	andeq	r0, r0, r8, lsr r3
 180:	0000033c 	andeq	r0, r0, ip, lsr r3
 184:	00000340 	andeq	r0, r0, r0, asr #6
	...
 190:	00000330 	andeq	r0, r0, r0, lsr r3
 194:	00000334 	andeq	r0, r0, r4, lsr r3
 198:	00000338 	andeq	r0, r0, r8, lsr r3
 19c:	0000033c 	andeq	r0, r0, ip, lsr r3
 1a0:	00000340 	andeq	r0, r0, r0, asr #6
 1a4:	0000034c 	andeq	r0, r0, ip, asr #6
	...
 1b0:	0000035c 	andeq	r0, r0, ip, asr r3
 1b4:	00000360 	andeq	r0, r0, r0, ror #6
 1b8:	00000364 	andeq	r0, r0, r4, ror #6
 1bc:	00000368 	andeq	r0, r0, r8, ror #6
 1c0:	0000036c 	andeq	r0, r0, ip, ror #6
 1c4:	00000370 	andeq	r0, r0, r0, ror r3
 1c8:	00000374 	andeq	r0, r0, r4, ror r3
 1cc:	00000378 	andeq	r0, r0, r8, ror r3
	...
 1d8:	00000368 	andeq	r0, r0, r8, ror #6
 1dc:	0000036c 	andeq	r0, r0, ip, ror #6
 1e0:	00000370 	andeq	r0, r0, r0, ror r3
 1e4:	00000374 	andeq	r0, r0, r4, ror r3
 1e8:	00000378 	andeq	r0, r0, r8, ror r3
 1ec:	0000037c 	andeq	r0, r0, ip, ror r3
	...
 1f8:	00000390 	muleq	r0, r0, r3
 1fc:	0000039c 	muleq	r0, ip, r3
 200:	000003a0 	andeq	r0, r0, r0, lsr #7
 204:	000003a4 	andeq	r0, r0, r4, lsr #7
 208:	000003a8 	andeq	r0, r0, r8, lsr #7
 20c:	000003ac 	andeq	r0, r0, ip, lsr #7
	...
 218:	0000039c 	muleq	r0, ip, r3
 21c:	000003a0 	andeq	r0, r0, r0, lsr #7
 220:	000003a4 	andeq	r0, r0, r4, lsr #7
 224:	000003a8 	andeq	r0, r0, r8, lsr #7
 228:	000003ac 	andeq	r0, r0, ip, lsr #7
 22c:	000003b0 			; <UNDEFINED> instruction: 0x000003b0
	...
 238:	00000410 	andeq	r0, r0, r0, lsl r4
 23c:	00000414 	andeq	r0, r0, r4, lsl r4
 240:	00000418 	andeq	r0, r0, r8, lsl r4
 244:	00000424 	andeq	r0, r0, r4, lsr #8
	...
 250:	00000414 	andeq	r0, r0, r4, lsl r4
 254:	00000418 	andeq	r0, r0, r8, lsl r4
 258:	00000424 	andeq	r0, r0, r4, lsr #8
 25c:	00000428 	andeq	r0, r0, r8, lsr #8
	...
 268:	000002b4 			; <UNDEFINED> instruction: 0x000002b4
 26c:	000002b8 			; <UNDEFINED> instruction: 0x000002b8
 270:	000002e8 	andeq	r0, r0, r8, ror #5
 274:	000004e0 	andeq	r0, r0, r0, ror #9
	...
 280:	00008b84 	andeq	r8, r0, r4, lsl #23
 284:	00008bf8 	strdeq	r8, [r0], -r8	; <UNPREDICTABLE>
	...

Disassembly of section .debug_line:

00000000 <.debug_line>:
       0:	000002a1 	andeq	r0, r0, r1, lsr #5
       4:	01250002 	teqeq	r5, r2
       8:	01020000 	mrseq	r0, (UNDEF: 2)
       c:	000d0efb 	strdeq	r0, [sp], -fp
      10:	01010101 	tsteq	r1, r1, lsl #2
      14:	01000000 	mrseq	r0, (UNDEF: 0)
      18:	2f010000 	svccs	0x00010000
      1c:	72657355 	rsbvc	r7, r5, #1409286145	; 0x54000001
      20:	72622f73 	rsbvc	r2, r2, #460	; 0x1cc
      24:	6a6e6169 	bvs	1b985d0 <__bss_end__+0x1b8e3b8>
      28:	442f6e75 	strtmi	r6, [pc], #-3701	; 30 <_start-0x7fd0>
      2c:	746b7365 	strbtvc	r7, [fp], #-869	; 0x365
      30:	732f706f 	teqvc	pc, #111	; 0x6f
      34:	6f6f6863 	svcvs	0x006f6863
      38:	69572f6c 	ldmdbvs	r7, {r2, r3, r5, r6, r8, r9, sl, fp, sp}^
      3c:	7265746e 	rsbvc	r7, r5, #1845493760	; 0x6e000000
      40:	30323931 	eorscc	r3, r2, r1, lsr r9
      44:	3153432f 	cmpcc	r3, pc, lsr #6
      48:	2f453034 	svccs	0x00453034
      4c:	34317363 	ldrtcc	r7, [r1], #-867	; 0x363
      50:	322d6530 	eorcc	r6, sp, #48, 10	; 0xc000000
      54:	6e697730 	mcrvs	7, 3, r7, cr9, cr0, {1}
      58:	62696c2f 	rsbvs	r6, r9, #12032	; 0x2f00
      5c:	2f006970 	svccs	0x00006970
      60:	72657355 	rsbvc	r7, r5, #1409286145	; 0x54000001
      64:	72622f73 	rsbvc	r2, r2, #460	; 0x1cc
      68:	6a6e6169 	bvs	1b98614 <__bss_end__+0x1b8e3fc>
      6c:	442f6e75 	strtmi	r6, [pc], #-3701	; 74 <_start-0x7f8c>
      70:	746b7365 	strbtvc	r7, [fp], #-869	; 0x365
      74:	732f706f 	teqvc	pc, #111	; 0x6f
      78:	6f6f6863 	svcvs	0x006f6863
      7c:	69572f6c 	ldmdbvs	r7, {r2, r3, r5, r6, r8, r9, sl, fp, sp}^
      80:	7265746e 	rsbvc	r7, r5, #1845493760	; 0x6e000000
      84:	30323931 	eorscc	r3, r2, r1, lsr r9
      88:	3153432f 	cmpcc	r3, pc, lsr #6
      8c:	2f453034 	svccs	0x00453034
      90:	34317363 	ldrtcc	r7, [r1], #-867	; 0x363
      94:	322d6530 	eorcc	r6, sp, #48, 10	; 0xc000000
      98:	6e697730 	mcrvs	7, 3, r7, cr9, cr0, {1}
      9c:	62696c2f 	rsbvs	r6, r9, #12032	; 0x2f00
      a0:	632f6970 	teqvs	pc, #112, 18	; 0x1c0000
      a4:	30343173 	eorscc	r3, r4, r3, ror r1
      a8:	72732d65 	rsbsvc	r2, r3, #6464	; 0x1940
      ac:	752f0063 	strvc	r0, [pc, #-99]!	; 51 <_start-0x7faf>
      b0:	6c2f7273 	sfmvs	f7, 4, [pc], #-460	; fffffeec <__bss_end__+0xffff5cd4>
      b4:	6c61636f 	stclvs	3, cr6, [r1], #-444	; 0xfffffe44
      b8:	6c65432f 	stclvs	3, cr4, [r5], #-188	; 0xffffff44
      bc:	2f72616c 	svccs	0x0072616c
      c0:	2d6d7261 	sfmcs	f7, 2, [sp, #-388]!	; 0xfffffe7c
      c4:	656e6f6e 	strbvs	r6, [lr, #-3950]!	; 0xf6e
      c8:	6261652d 	rsbvs	r6, r1, #188743680	; 0xb400000
      cc:	2e342f69 	cdpcs	15, 3, cr2, cr4, cr9, {3}
      d0:	2d332e38 	ldccs	14, cr2, [r3, #-224]!	; 0xffffff20
      d4:	37317363 	ldrcc	r7, [r1, -r3, ror #6]!
      d8:	6c2f6530 	cfstr32vs	mvfx6, [pc], #-192	; 20 <_start-0x7fe0>
      dc:	672f6269 	strvs	r6, [pc, -r9, ror #4]!
      e0:	612f6363 	teqvs	pc, r3, ror #6
      e4:	6e2d6d72 	mcrvs	13, 1, r6, cr13, cr2, {3}
      e8:	2d656e6f 	stclcs	14, cr6, [r5, #-444]!	; 0xfffffe44
      ec:	69626165 	stmdbvs	r2!, {r0, r2, r5, r6, r8, sp, lr}^
      f0:	382e342f 	stmdacc	lr!, {r0, r1, r2, r3, r5, sl, ip, sp}
      f4:	692f332e 	stmdbvs	pc!, {r1, r2, r3, r5, r8, r9, ip, sp}	; <UNPREDICTABLE>
      f8:	756c636e 	strbvc	r6, [ip, #-878]!	; 0x36e
      fc:	00006564 	andeq	r6, r0, r4, ror #10
     100:	706f6373 	rsbvc	r6, pc, r3, ror r3	; <UNPREDICTABLE>
     104:	00632e65 	rsbeq	r2, r3, r5, ror #28
     108:	72000000 	andvc	r0, r0, #0
     10c:	682e6970 	stmdavs	lr!, {r4, r5, r6, r8, fp, sp, lr}
     110:	00000100 	andeq	r0, r0, r0, lsl #2
     114:	6f697067 	svcvs	0x00697067
     118:	0200682e 	andeq	r6, r0, #3014656	; 0x2e0000
     11c:	74730000 	ldrbtvc	r0, [r3], #-0
     120:	746e6964 	strbtvc	r6, [lr], #-2404	; 0x964
     124:	6363672d 	cmnvs	r3, #11796480	; 0xb40000
     128:	0300682e 	movweq	r6, #2094	; 0x82e
     12c:	00000000 	andeq	r0, r0, r0
     130:	80100205 	andshi	r0, r0, r5, lsl #4
     134:	38030000 	stmdacc	r3, {}	; <UNPREDICTABLE>
     138:	2f2d1301 	svccs	0x002d1301
     13c:	30672f2f 	rsbcc	r2, r7, pc, lsr #30
     140:	01040200 	mrseq	r0, R12_usr
     144:	080d0345 	stmdaeq	sp, {r0, r2, r6, r8, r9}
     148:	2e0f033c 	mcrcs	3, 0, r0, cr15, cr12, {1}
     14c:	01040200 	mrseq	r0, R12_usr
     150:	69062e06 	stmdbvs	r6, {r1, r2, r9, sl, fp, sp}
     154:	0402002f 	streq	r0, [r2], #-47	; 0x2f
     158:	062e0601 	strteq	r0, [lr], -r1, lsl #12
     15c:	002d2f83 	eoreq	r2, sp, r3, lsl #31
     160:	67010402 	strvs	r0, [r1, -r2, lsl #8]
     164:	002d2f83 	eoreq	r2, sp, r3, lsl #31
     168:	67010402 	strvs	r0, [r1, -r2, lsl #8]
     16c:	002d2f83 	eoreq	r2, sp, r3, lsl #31
     170:	67010402 	strvs	r0, [r1, -r2, lsl #8]
     174:	002d2f83 	eoreq	r2, sp, r3, lsl #31
     178:	67010402 	strvs	r0, [r1, -r2, lsl #8]
     17c:	002d2f83 	eoreq	r2, sp, r3, lsl #31
     180:	67010402 	strvs	r0, [r1, -r2, lsl #8]
     184:	002d2f83 	eoreq	r2, sp, r3, lsl #31
     188:	67010402 	strvs	r0, [r1, -r2, lsl #8]
     18c:	002d2f83 	eoreq	r2, sp, r3, lsl #31
     190:	67010402 	strvs	r0, [r1, -r2, lsl #8]
     194:	002d2f83 	eoreq	r2, sp, r3, lsl #31
     198:	67010402 	strvs	r0, [r1, -r2, lsl #8]
     19c:	2f2f2c85 	svccs	0x002f2c85
     1a0:	322f2f2f 	eorcc	r2, pc, #47, 30	; 0xbc
     1a4:	03309308 	teqeq	r0, #8, 6	; 0x20000000
     1a8:	002e7fa9 	eoreq	r7, lr, r9, lsr #31
     1ac:	03010402 	movweq	r0, #5122	; 0x1402
     1b0:	03ba00ec 			; <UNDEFINED> instruction: 0x03ba00ec
     1b4:	03827f8f 	orreq	r7, r2, #572	; 0x23c
     1b8:	75032e0b 	strvc	r2, [r3, #-3595]	; 0xe0b
     1bc:	3329332e 	teqcc	r9, #-1207959552	; 0xb8000000
     1c0:	02003329 	andeq	r3, r0, #-1543503872	; 0xa4000000
     1c4:	ee030104 	adfs	f0, f3, f4
     1c8:	8d034a00 	vstrhi	s8, [r3, #-0]
     1cc:	0b03827f 	bleq	e0bd0 <__bss_end__+0xd69b8>
     1d0:	2e75032e 	cdpcs	3, 7, cr0, cr5, cr14, {1}
     1d4:	29332933 	ldmdbcs	r3!, {r0, r1, r4, r5, r8, fp, sp}
     1d8:	04020033 	streq	r0, [r2], #-51	; 0x33
     1dc:	00f00301 	rscseq	r0, r0, r1, lsl #6
     1e0:	7f8b034a 	svcvc	0x008b034a
     1e4:	2e0b0382 	cdpcs	3, 0, cr0, cr11, cr2, {4}
     1e8:	332e7503 	teqcc	lr, #12582912	; 0xc00000
     1ec:	33293329 	teqcc	r9, #-1543503872	; 0xa4000000
     1f0:	01040200 	mrseq	r0, R12_usr
     1f4:	4a00f203 	bmi	3ca08 <__bss_end__+0x327f0>
     1f8:	827f8903 	rsbshi	r8, pc, #49152	; 0xc000
     1fc:	032e0b03 	teqeq	lr, #3072	; 0xc00
     200:	29332e75 	ldmdbcs	r3!, {r0, r2, r4, r5, r6, r9, sl, fp, sp}
     204:	00332933 	eorseq	r2, r3, r3, lsr r9
     208:	03010402 	movweq	r0, #5122	; 0x1402
     20c:	034a00f4 	movteq	r0, #41204	; 0xa0f4
     210:	03827f87 	orreq	r7, r2, #540	; 0x21c
     214:	75032e0b 	strvc	r2, [r3, #-3595]	; 0xe0b
     218:	3329332e 	teqcc	r9, #-1207959552	; 0xb8000000
     21c:	02003345 	andeq	r3, r0, #335544321	; 0x14000001
     220:	f6030104 			; <UNDEFINED> instruction: 0xf6030104
     224:	85034a00 	strhi	r4, [r3, #-2560]	; 0xa00
     228:	0b03827f 	bleq	e0c2c <__bss_end__+0xd6a14>
     22c:	2e75032e 	cdpcs	3, 7, cr0, cr5, cr14, {1}
     230:	29332933 	ldmdbcs	r3!, {r0, r1, r4, r5, r8, fp, sp}
     234:	04020033 	streq	r0, [r2], #-51	; 0x33
     238:	00f80301 	rscseq	r0, r8, r1, lsl #6
     23c:	7f830366 	svcvc	0x00830366
     240:	2e0b0382 	cdpcs	3, 0, cr0, cr11, cr2, {4}
     244:	332e7503 	teqcc	lr, #12582912	; 0xc00000
     248:	33293329 	teqcc	r9, #-1543503872	; 0xa4000000
     24c:	01040200 	mrseq	r0, R12_usr
     250:	2e00fa03 	vmlacs.f32	s30, s0, s6
     254:	827f8c03 	rsbshi	r8, pc, #768	; 0x300
     258:	6b2e7503 	blvs	b9d66c <__bss_end__+0xb93454>
     25c:	33293329 	teqcc	r9, #-1543503872	; 0xa4000000
     260:	01040200 	mrseq	r0, R12_usr
     264:	2e00fc03 	cdpcs	12, 0, cr15, cr0, cr3, {0}
     268:	827eff03 	rsbshi	pc, lr, #3, 30
     26c:	01040200 	mrseq	r0, R12_usr
     270:	ba018303 	blt	60e84 <__bss_end__+0x56c6c>
     274:	17033183 	strne	r3, [r3, -r3, lsl #3]
     278:	4b4b3166 	blmi	12cc818 <__bss_end__+0x12c2600>
     27c:	2e7edd03 	cdpcs	13, 7, cr13, cr14, cr3, {0}
     280:	2e01a503 	cfsh32cs	mvfx10, mvfx1, #3
     284:	2e7edb03 	vaddcs.f64	d29, d14, d3
     288:	6601a503 	strvs	sl, [r1], -r3, lsl #10
     28c:	4e2e6503 	cfsh64mi	mvdx6, mvdx14, #3
     290:	312ba332 	teqcc	fp, r2, lsr r3
     294:	8278032f 	rsbshi	r0, r8, #-1140850688	; 0xbc000000
     298:	0b032933 	bleq	ca76c <__bss_end__+0xc0554>
     29c:	660e032e 	strvs	r0, [lr], -lr, lsr #6
     2a0:	01000a02 	tsteq	r0, r2, lsl #20
     2a4:	00010201 	andeq	r0, r1, r1, lsl #4
     2a8:	eb000200 	bl	ab0 <_start-0x7550>
     2ac:	02000000 	andeq	r0, r0, #0
     2b0:	0d0efb01 	vstreq	d15, [lr, #-4]
     2b4:	01010100 	mrseq	r0, (UNDEF: 17)
     2b8:	00000001 	andeq	r0, r0, r1
     2bc:	01000001 	tsteq	r0, r1
     2c0:	6362696c 	cmnvs	r2, #108, 18	; 0x1b0000
     2c4:	73752f00 	cmnvc	r5, #0, 30
     2c8:	6f6c2f72 	svcvs	0x006c2f72
     2cc:	2f6c6163 	svccs	0x006c6163
     2d0:	6c6c6543 	cfstr64vs	mvdx6, [ip], #-268	; 0xfffffef4
     2d4:	612f7261 	teqvs	pc, r1, ror #4
     2d8:	6e2d6d72 	mcrvs	13, 1, r6, cr13, cr2, {3}
     2dc:	2d656e6f 	stclcs	14, cr6, [r5, #-444]!	; 0xfffffe44
     2e0:	69626165 	stmdbvs	r2!, {r0, r2, r5, r6, r8, sp, lr}^
     2e4:	382e342f 	stmdacc	lr!, {r0, r1, r2, r3, r5, sl, ip, sp}
     2e8:	632d332e 	teqvs	sp, #-1207959552	; 0xb8000000
     2ec:	30373173 	eorscc	r3, r7, r3, ror r1
     2f0:	696c2f65 	stmdbvs	ip!, {r0, r2, r5, r6, r8, r9, sl, fp, sp}^
     2f4:	63672f62 	cmnvs	r7, #392	; 0x188
     2f8:	72612f63 	rsbvc	r2, r1, #396	; 0x18c
     2fc:	6f6e2d6d 	svcvs	0x006e2d6d
     300:	652d656e 	strvs	r6, [sp, #-1390]!	; 0x56e
     304:	2f696261 	svccs	0x00696261
     308:	2e382e34 	mrccs	14, 1, r2, cr8, cr4, {1}
     30c:	6e692f33 	mcrvs	15, 3, r2, cr9, cr3, {1}
     310:	64756c63 	ldrbtvs	r6, [r5], #-3171	; 0xc63
     314:	552f0065 	strpl	r0, [pc, #-101]!	; 2b7 <_start-0x7d49>
     318:	73726573 	cmnvc	r2, #482344960	; 0x1cc00000
     31c:	6972622f 	ldmdbvs	r2!, {r0, r1, r2, r3, r5, r9, sp, lr}^
     320:	756a6e61 	strbvc	r6, [sl, #-3681]!	; 0xe61
     324:	65442f6e 	strbvs	r2, [r4, #-3950]	; 0xf6e
     328:	6f746b73 	svcvs	0x00746b73
     32c:	63732f70 	cmnvs	r3, #112, 30	; 0x1c0
     330:	6c6f6f68 	stclvs	15, cr6, [pc], #-416	; 198 <_start-0x7e68>
     334:	6e69572f 	cdpvs	7, 6, cr5, cr9, cr15, {1}
     338:	31726574 	cmncc	r2, r4, ror r5
     33c:	2f303239 	svccs	0x00303239
     340:	34315343 	ldrtcc	r5, [r1], #-835	; 0x343
     344:	632f4530 	teqvs	pc, #48, 10	; 0xc000000
     348:	30343173 	eorscc	r3, r4, r3, ror r1
     34c:	30322d65 	eorscc	r2, r2, r5, ror #26
     350:	2f6e6977 	svccs	0x006e6977
     354:	7062696c 	rsbvc	r6, r2, ip, ror #18
     358:	70000069 	andvc	r0, r0, r9, rrx
     35c:	746e6972 	strbtvc	r6, [lr], #-2418	; 0x972
     360:	00632e6b 	rsbeq	r2, r3, fp, ror #28
     364:	73000001 	movwvc	r0, #1
     368:	72616474 	rsbvc	r6, r1, #116, 8	; 0x74000000
     36c:	00682e67 	rsbeq	r2, r8, r7, ror #28
     370:	3c000002 	stccc	0, cr0, [r0], {2}
     374:	6c697562 	cfstr64vs	mvdx7, [r9], #-392	; 0xfffffe78
     378:	6e692d74 	mcrvs	13, 3, r2, cr9, cr4, {3}
     37c:	0000003e 	andeq	r0, r0, lr, lsr r0
     380:	69707200 	ldmdbvs	r0!, {r9, ip, sp, lr}^
     384:	0300682e 	movweq	r6, #2094	; 0x82e
     388:	61760000 	cmnvs	r6, r0
     38c:	6972702d 	ldmdbvs	r2!, {r0, r2, r3, r5, ip, sp, lr}^
     390:	2e6b746e 	cdpcs	4, 6, cr7, cr11, cr14, {3}
     394:	00010068 	andeq	r0, r1, r8, rrx
     398:	05000000 	streq	r0, [r0, #-0]
     39c:	0084a002 	addeq	sl, r4, r2
     3a0:	4b6b1700 	blmi	1ac5fa8 <__bss_end__+0x1abbd90>
     3a4:	0e0289bf 	mcreq	9, 0, r8, cr2, cr15, {5}
     3a8:	8a010100 	bhi	407b0 <__bss_end__+0x36598>
     3ac:	02000000 	andeq	r0, r0, #0
     3b0:	00007200 	andeq	r7, r0, r0, lsl #4
     3b4:	fb010200 	blx	40bbe <__bss_end__+0x369a6>
     3b8:	01000d0e 	tsteq	r0, lr, lsl #26
     3bc:	00010101 	andeq	r0, r1, r1, lsl #2
     3c0:	00010000 	andeq	r0, r1, r0
     3c4:	696c0100 	stmdbvs	ip!, {r8}^
     3c8:	2f006362 	svccs	0x00006362
     3cc:	72657355 	rsbvc	r7, r5, #1409286145	; 0x54000001
     3d0:	72622f73 	rsbvc	r2, r2, #460	; 0x1cc
     3d4:	6a6e6169 	bvs	1b98980 <__bss_end__+0x1b8e768>
     3d8:	442f6e75 	strtmi	r6, [pc], #-3701	; 3e0 <_start-0x7c20>
     3dc:	746b7365 	strbtvc	r7, [fp], #-869	; 0x365
     3e0:	732f706f 	teqvc	pc, #111	; 0x6f
     3e4:	6f6f6863 	svcvs	0x006f6863
     3e8:	69572f6c 	ldmdbvs	r7, {r2, r3, r5, r6, r8, r9, sl, fp, sp}^
     3ec:	7265746e 	rsbvc	r7, r5, #1845493760	; 0x6e000000
     3f0:	30323931 	eorscc	r3, r2, r1, lsr r9
     3f4:	3153432f 	cmpcc	r3, pc, lsr #6
     3f8:	2f453034 	svccs	0x00453034
     3fc:	34317363 	ldrtcc	r7, [r1], #-867	; 0x363
     400:	322d6530 	eorcc	r6, sp, #48, 10	; 0xc000000
     404:	6e697730 	mcrvs	7, 3, r7, cr9, cr0, {1}
     408:	62696c2f 	rsbvs	r6, r9, #12032	; 0x2f00
     40c:	00006970 	andeq	r6, r0, r0, ror r9
     410:	63747570 	cmnvs	r4, #112, 10	; 0x1c000000
     414:	2e726168 	rpwcssz	f6, f2, #0.0
     418:	00010063 	andeq	r0, r1, r3, rrx
     41c:	69707200 	ldmdbvs	r0!, {r9, ip, sp, lr}^
     420:	0200682e 	andeq	r6, r0, #3014656	; 0x2e0000
     424:	00000000 	andeq	r0, r0, r0
     428:	84f80205 	ldrbthi	r0, [r8], #517	; 0x205
     42c:	4a140000 	bmi	500434 <__bss_end__+0x4f621c>
     430:	13bc136b 			; <UNDEFINED> instruction: 0x13bc136b
     434:	01000802 	tsteq	r0, r2, lsl #16
     438:	00009601 	andeq	r9, r0, r1, lsl #12
     43c:	6f000200 	svcvs	0x00000200
     440:	02000000 	andeq	r0, r0, #0
     444:	0d0efb01 	vstreq	d15, [lr, #-4]
     448:	01010100 	mrseq	r0, (UNDEF: 17)
     44c:	00000001 	andeq	r0, r0, r1
     450:	01000001 	tsteq	r0, r1
     454:	6362696c 	cmnvs	r2, #108, 18	; 0x1b0000
     458:	73552f00 	cmpvc	r5, #0, 30
     45c:	2f737265 	svccs	0x00737265
     460:	61697262 	cmnvs	r9, r2, ror #4
     464:	6e756a6e 	vsubvs.f32	s13, s10, s29
     468:	7365442f 	cmnvc	r5, #788529152	; 0x2f000000
     46c:	706f746b 	rsbvc	r7, pc, fp, ror #8
     470:	6863732f 	stmdavs	r3!, {r0, r1, r2, r3, r5, r8, r9, ip, sp, lr}^
     474:	2f6c6f6f 	svccs	0x006c6f6f
     478:	746e6957 	strbtvc	r6, [lr], #-2391	; 0x957
     47c:	39317265 	ldmdbcc	r1!, {r0, r2, r5, r6, r9, ip, sp, lr}
     480:	432f3032 	teqmi	pc, #50	; 0x32
     484:	30343153 	eorscc	r3, r4, r3, asr r1
     488:	73632f45 	cmnvc	r3, #276	; 0x114
     48c:	65303431 	ldrvs	r3, [r0, #-1073]!	; 0x431
     490:	7730322d 	ldrvc	r3, [r0, -sp, lsr #4]!
     494:	6c2f6e69 	stcvs	14, cr6, [pc], #-420	; 2f8 <_start-0x7d08>
     498:	69706269 	ldmdbvs	r0!, {r0, r3, r5, r6, r9, sp, lr}^
     49c:	75700000 	ldrbvc	r0, [r0, #-0]!
     4a0:	632e6b74 	teqvs	lr, #116, 22	; 0x1d000
     4a4:	00000100 	andeq	r0, r0, r0, lsl #2
     4a8:	2e697072 	mcrcs	0, 3, r7, cr9, cr2, {3}
     4ac:	00020068 	andeq	r0, r2, r8, rrx
     4b0:	05000000 	streq	r0, [r0, #-0]
     4b4:	00853402 	addeq	r3, r5, r2, lsl #8
     4b8:	2d4c1500 	cfstr64cs	mvdx1, [ip, #-0]
     4bc:	02040200 	andeq	r0, r4, #0, 4
     4c0:	0402002f 	streq	r0, [r2], #-47	; 0x2f
     4c4:	02004902 	andeq	r4, r0, #32768	; 0x8000
     4c8:	2e060104 	adfcss	f0, f6, f4
     4cc:	06026b06 	streq	r6, [r2], -r6, lsl #22
     4d0:	e2010100 	and	r0, r1, #0, 2
     4d4:	02000001 	andeq	r0, r0, #1
     4d8:	0000df00 	andeq	sp, r0, r0, lsl #30
     4dc:	fb010200 	blx	40ce6 <__bss_end__+0x36ace>
     4e0:	01000d0e 	tsteq	r0, lr, lsl #26
     4e4:	00010101 	andeq	r0, r1, r1, lsl #2
     4e8:	00010000 	andeq	r0, r1, r0
     4ec:	696c0100 	stmdbvs	ip!, {r8}^
     4f0:	2f006362 	svccs	0x00006362
     4f4:	2f727375 	svccs	0x00727375
     4f8:	61636f6c 	cmnvs	r3, ip, ror #30
     4fc:	65432f6c 	strbvs	r2, [r3, #-3948]	; 0xf6c
     500:	72616c6c 	rsbvc	r6, r1, #108, 24	; 0x6c00
     504:	6d72612f 	ldfvse	f6, [r2, #-188]!	; 0xffffff44
     508:	6e6f6e2d 	cdpvs	14, 6, cr6, cr15, cr13, {1}
     50c:	61652d65 	cmnvs	r5, r5, ror #26
     510:	342f6962 	strtcc	r6, [pc], #-2402	; 518 <_start-0x7ae8>
     514:	332e382e 	teqcc	lr, #3014656	; 0x2e0000
     518:	3173632d 	cmncc	r3, sp, lsr #6
     51c:	2f653037 	svccs	0x00653037
     520:	2f62696c 	svccs	0x0062696c
     524:	2f636367 	svccs	0x00636367
     528:	2d6d7261 	sfmcs	f7, 2, [sp, #-388]!	; 0xfffffe7c
     52c:	656e6f6e 	strbvs	r6, [lr, #-3950]!	; 0xf6e
     530:	6261652d 	rsbvs	r6, r1, #188743680	; 0xb400000
     534:	2e342f69 	cdpcs	15, 3, cr2, cr4, cr9, {3}
     538:	2f332e38 	svccs	0x00332e38
     53c:	6c636e69 	stclvs	14, cr6, [r3], #-420	; 0xfffffe5c
     540:	00656475 	rsbeq	r6, r5, r5, ror r4
     544:	6573552f 	ldrbvs	r5, [r3, #-1327]!	; 0x52f
     548:	622f7372 	eorvs	r7, pc, #-939524095	; 0xc8000001
     54c:	6e616972 	mcrvs	9, 3, r6, cr1, cr2, {3}
     550:	2f6e756a 	svccs	0x006e756a
     554:	6b736544 	blvs	1cd9a6c <__bss_end__+0x1ccf854>
     558:	2f706f74 	svccs	0x00706f74
     55c:	6f686373 	svcvs	0x00686373
     560:	572f6c6f 	strpl	r6, [pc, -pc, ror #24]!
     564:	65746e69 	ldrbvs	r6, [r4, #-3689]!	; 0xe69
     568:	32393172 	eorscc	r3, r9, #-2147483620	; 0x8000001c
     56c:	53432f30 	movtpl	r2, #16176	; 0x3f30
     570:	45303431 	ldrmi	r3, [r0, #-1073]!	; 0x431
     574:	3173632f 	cmncc	r3, pc, lsr #6
     578:	2d653034 	stclcs	0, cr3, [r5, #-208]!	; 0xffffff30
     57c:	69773032 	ldmdbvs	r7!, {r1, r4, r5, ip, sp}^
     580:	696c2f6e 	stmdbvs	ip!, {r1, r2, r3, r5, r6, r8, r9, sl, fp, sp}^
     584:	00697062 	rsbeq	r7, r9, r2, rrx
     588:	2d617600 	stclcs	6, cr7, [r1, #-0]
     58c:	6e697270 	mcrvs	2, 3, r7, cr9, cr0, {3}
     590:	632e6b74 	teqvs	lr, #116, 22	; 0x1d000
     594:	00000100 	andeq	r0, r0, r0, lsl #2
     598:	61647473 	smcvs	18243	; 0x4743
     59c:	682e6772 	stmdavs	lr!, {r1, r4, r5, r6, r8, r9, sl, sp, lr}
     5a0:	00000200 	andeq	r0, r0, r0, lsl #4
     5a4:	2e697072 	mcrcs	0, 3, r7, cr9, cr2, {3}
     5a8:	00030068 	andeq	r0, r3, r8, rrx
     5ac:	75623c00 	strbvc	r3, [r2, #-3072]!	; 0xc00
     5b0:	2d746c69 	ldclcs	12, cr6, [r4, #-420]!	; 0xfffffe5c
     5b4:	003e6e69 	eorseq	r6, lr, r9, ror #28
     5b8:	00000000 	andeq	r0, r0, r0
     5bc:	68020500 	stmdavs	r2, {r8, sl}
     5c0:	03000085 	movweq	r0, #133	; 0x85
     5c4:	a5010126 	strge	r0, [r1, #-294]	; 0x126
     5c8:	002d3113 	eoreq	r3, sp, r3, lsl r1
     5cc:	2f020402 	svccs	0x00020402
     5d0:	02040200 	andeq	r0, r4, #0, 4
     5d4:	0402002d 	streq	r0, [r2], #-45	; 0x2d
     5d8:	02002f02 	andeq	r2, r0, #2, 30
     5dc:	4c2d0104 	stfmis	f0, [sp], #-16
     5e0:	4b14304c 	blmi	50c718 <__bss_end__+0x502500>
     5e4:	02004f2f 	andeq	r4, r0, #47, 30	; 0xbc
     5e8:	00670204 	rsbeq	r0, r7, r4, lsl #4
     5ec:	65010402 	strvs	r0, [r1, #-1026]	; 0x402
     5f0:	a0304d4c 	eorsge	r4, r0, ip, asr #26
     5f4:	0230312f 	eorseq	r3, r0, #-1073741813	; 0xc000000b
     5f8:	2d841626 	stccs	6, cr1, [r4, #152]	; 0x98
     5fc:	0402002c 	streq	r0, [r2], #-44	; 0x2c
     600:	02003001 	andeq	r3, r0, #1
     604:	06330104 	ldrteq	r0, [r3], -r4, lsl #2
     608:	04020066 	streq	r0, [r2], #-102	; 0x66
     60c:	02002e01 	andeq	r2, r0, #1, 28
     610:	08060104 	stmdaeq	r6, {r2, r8}
     614:	032f6721 	teqeq	pc, #8650752	; 0x840000
     618:	13038273 	movwne	r8, #12915	; 0x3273
     61c:	0402002e 	streq	r0, [r2], #-46	; 0x2e
     620:	002e0601 	eoreq	r0, lr, r1, lsl #12
     624:	06010402 	streq	r0, [r1], -r2, lsl #8
     628:	034b6a9f 	movteq	r6, #47775	; 0xba9f
     62c:	21032e67 	tstcs	r3, r7, ror #28
     630:	0402002e 	streq	r0, [r2], #-46	; 0x2e
     634:	002e0601 	eoreq	r0, lr, r1, lsl #12
     638:	06010402 	streq	r0, [r1], -r2, lsl #8
     63c:	0402009f 	streq	r0, [r2], #-159	; 0x9f
     640:	23086a01 	movwcs	r6, #35329	; 0x8a01
     644:	7fa603f3 	svcvc	0x00a603f3
     648:	004b3c08 	subeq	r3, fp, r8, lsl #24
     64c:	06010402 	streq	r0, [r1], -r2, lsl #8
     650:	2108064a 	tstcs	r8, sl, asr #12
     654:	034b2f4b 	movteq	r2, #48971	; 0xbf4b
     658:	83f200d9 	mvnshi	r0, #217	; 0xd9
     65c:	0e03484c 	cdpeq	8, 0, cr4, cr3, cr12, {2}
     660:	2e75032e 	cdpcs	3, 7, cr0, cr5, cr14, {1}
     664:	4b842f2f 	blmi	fe10c328 <__bss_end__+0xfe102110>
     668:	314d2d2f 	cmpcc	sp, pc, lsr #26
     66c:	00832f30 	addeq	r2, r3, r0, lsr pc
     670:	2c010402 	cfstrscs	mvf0, [r1], {2}
     674:	040200a2 	streq	r0, [r2], #-162	; 0xa2
     678:	064a0601 	strbeq	r0, [sl], -r1, lsl #12
     67c:	36022208 	strcc	r2, [r2], -r8, lsl #4
     680:	d60e0316 			; <UNDEFINED> instruction: 0xd60e0316
     684:	f3302108 	vrhadd.u<illegal width 64>	d2, d0, d8
     688:	f330f331 	vcge.u<illegal width 64>	d15, d0, d17
     68c:	f3304b30 			; <UNDEFINED> instruction: 0xf3304b30
     690:	31230830 	teqcc	r3, r0, lsr r8
     694:	0402002f 	streq	r0, [r2], #-47	; 0x2f
     698:	02006501 	andeq	r6, r0, #4194304	; 0x400000
     69c:	4a060204 	bmi	180eb4 <__bss_end__+0x176c9c>
     6a0:	01040200 	mrseq	r0, R12_usr
     6a4:	66420306 	strbvs	r0, [r2], -r6, lsl #6
     6a8:	02040200 	andeq	r0, r4, #0, 4
     6ac:	03066606 	movweq	r6, #26118	; 0x6606
     6b0:	684a00c2 	stmdavs	sl, {r1, r6, r7}^
     6b4:	01001202 	tsteq	r0, r2, lsl #4
     6b8:	00004301 	andeq	r4, r0, r1, lsl #6
     6bc:	29000200 	stmdbcs	r0, {r9}
     6c0:	02000000 	andeq	r0, r0, #0
     6c4:	0d0efb01 	vstreq	d15, [lr, #-4]
     6c8:	01010100 	mrseq	r0, (UNDEF: 17)
     6cc:	00000001 	andeq	r0, r0, r1
     6d0:	01000001 	tsteq	r0, r1
     6d4:	34317363 	ldrtcc	r7, [r1], #-867	; 0x363
     6d8:	732d6530 	teqvc	sp, #48, 10	; 0xc000000
     6dc:	00006372 	andeq	r6, r0, r2, ror r3
     6e0:	68636163 	stmdavs	r3!, {r0, r1, r5, r6, r8, sp, lr}^
     6e4:	00632e65 	rsbeq	r2, r3, r5, ror #28
     6e8:	00000001 	andeq	r0, r0, r1
     6ec:	8c020500 	cfstr32hi	mvfx0, [r2], {-0}
     6f0:	1400008a 	strne	r0, [r0], #-138	; 0x8a
     6f4:	4e2f3014 	miaTTmi	acc0, r4, r3
     6f8:	022f3114 	eoreq	r3, pc, #20, 2
     6fc:	01010004 	tsteq	r1, r4
     700:	00000093 	muleq	r0, r3, r0
     704:	007d0002 	rsbseq	r0, sp, r2
     708:	01020000 	mrseq	r0, (UNDEF: 2)
     70c:	000d0efb 	strdeq	r0, [sp], -fp
     710:	01010101 	tsteq	r1, r1, lsl #2
     714:	01000000 	mrseq	r0, (UNDEF: 0)
     718:	63010000 	movwvs	r0, #4096	; 0x1000
     71c:	30343173 	eorscc	r3, r4, r3, ror r1
     720:	72732d65 	rsbsvc	r2, r3, #6464	; 0x1940
     724:	552f0063 	strpl	r0, [pc, #-99]!	; 6c9 <_start-0x7937>
     728:	73726573 	cmnvc	r2, #482344960	; 0x1cc00000
     72c:	6972622f 	ldmdbvs	r2!, {r0, r1, r2, r3, r5, r9, sp, lr}^
     730:	756a6e61 	strbvc	r6, [sl, #-3681]!	; 0xe61
     734:	65442f6e 	strbvs	r2, [r4, #-3950]	; 0xf6e
     738:	6f746b73 	svcvs	0x00746b73
     73c:	63732f70 	cmnvs	r3, #112, 30	; 0x1c0
     740:	6c6f6f68 	stclvs	15, cr6, [pc], #-416	; 5a8 <_start-0x7a58>
     744:	6e69572f 	cdpvs	7, 6, cr5, cr9, cr15, {1}
     748:	31726574 	cmncc	r2, r4, ror r5
     74c:	2f303239 	svccs	0x00303239
     750:	34315343 	ldrtcc	r5, [r1], #-835	; 0x343
     754:	632f4530 	teqvs	pc, #48, 10	; 0xc000000
     758:	30343173 	eorscc	r3, r4, r3, ror r1
     75c:	30322d65 	eorscc	r2, r2, r5, ror #26
     760:	2f6e6977 	svccs	0x006e6977
     764:	7062696c 	rsbvc	r6, r2, ip, ror #18
     768:	63000069 	movwvs	r0, #105	; 0x69
     76c:	6e61656c 	cdpvs	5, 6, cr6, cr1, cr12, {3}
     770:	6265722d 	rsbvs	r7, r5, #-805306366	; 0xd0000002
     774:	2e746f6f 	cdpcs	15, 7, cr6, cr4, cr15, {3}
     778:	00010063 	andeq	r0, r1, r3, rrx
     77c:	69707200 	ldmdbvs	r0!, {r9, ip, sp, lr}^
     780:	0200682e 	andeq	r6, r0, #3014656	; 0x2e0000
     784:	00000000 	andeq	r0, r0, r0
     788:	8aac0205 	bhi	feb00fa4 <__bss_end__+0xfeaf6d8c>
     78c:	2f150000 	svccs	0x00150000
     790:	06024b83 	streq	r4, [r2], -r3, lsl #23
     794:	21010100 	mrscs	r0, (UNDEF: 17)
     798:	02000001 	andeq	r0, r0, #1
     79c:	0000f800 	andeq	pc, r0, r0, lsl #16
     7a0:	fb010200 	blx	40faa <__bss_end__+0x36d92>
     7a4:	01000d0e 	tsteq	r0, lr, lsl #26
     7a8:	00010101 	andeq	r0, r1, r1, lsl #2
     7ac:	00010000 	andeq	r0, r1, r0
     7b0:	73630100 	cmnvc	r3, #0, 2
     7b4:	65303431 	ldrvs	r3, [r0, #-1073]!	; 0x431
     7b8:	6372732d 	cmnvs	r2, #-1275068416	; 0xb4000000
     7bc:	73752f00 	cmnvc	r5, #0, 30
     7c0:	6f6c2f72 	svcvs	0x006c2f72
     7c4:	2f6c6163 	svccs	0x006c6163
     7c8:	6c6c6543 	cfstr64vs	mvdx6, [ip], #-268	; 0xfffffef4
     7cc:	612f7261 	teqvs	pc, r1, ror #4
     7d0:	6e2d6d72 	mcrvs	13, 1, r6, cr13, cr2, {3}
     7d4:	2d656e6f 	stclcs	14, cr6, [r5, #-444]!	; 0xfffffe44
     7d8:	69626165 	stmdbvs	r2!, {r0, r2, r5, r6, r8, sp, lr}^
     7dc:	382e342f 	stmdacc	lr!, {r0, r1, r2, r3, r5, sl, ip, sp}
     7e0:	632d332e 	teqvs	sp, #-1207959552	; 0xb8000000
     7e4:	30373173 	eorscc	r3, r7, r3, ror r1
     7e8:	696c2f65 	stmdbvs	ip!, {r0, r2, r5, r6, r8, r9, sl, fp, sp}^
     7ec:	63672f62 	cmnvs	r7, #392	; 0x188
     7f0:	72612f63 	rsbvc	r2, r1, #396	; 0x18c
     7f4:	6f6e2d6d 	svcvs	0x006e2d6d
     7f8:	652d656e 	strvs	r6, [sp, #-1390]!	; 0x56e
     7fc:	2f696261 	svccs	0x00696261
     800:	2e382e34 	mrccs	14, 1, r2, cr8, cr4, {1}
     804:	6e692f33 	mcrvs	15, 3, r2, cr9, cr3, {1}
     808:	64756c63 	ldrbtvs	r6, [r5], #-3171	; 0xc63
     80c:	552f0065 	strpl	r0, [pc, #-101]!	; 7af <_start-0x7851>
     810:	73726573 	cmnvc	r2, #482344960	; 0x1cc00000
     814:	6972622f 	ldmdbvs	r2!, {r0, r1, r2, r3, r5, r9, sp, lr}^
     818:	756a6e61 	strbvc	r6, [sl, #-3681]!	; 0xe61
     81c:	65442f6e 	strbvs	r2, [r4, #-3950]	; 0xf6e
     820:	6f746b73 	svcvs	0x00746b73
     824:	63732f70 	cmnvs	r3, #112, 30	; 0x1c0
     828:	6c6f6f68 	stclvs	15, cr6, [pc], #-416	; 690 <_start-0x7970>
     82c:	6e69572f 	cdpvs	7, 6, cr5, cr9, cr15, {1}
     830:	31726574 	cmncc	r2, r4, ror r5
     834:	2f303239 	svccs	0x00303239
     838:	34315343 	ldrtcc	r5, [r1], #-835	; 0x343
     83c:	632f4530 	teqvs	pc, #48, 10	; 0xc000000
     840:	30343173 	eorscc	r3, r4, r3, ror r1
     844:	30322d65 	eorscc	r2, r2, r5, ror #26
     848:	2f6e6977 	svccs	0x006e6977
     84c:	7062696c 	rsbvc	r6, r2, ip, ror #18
     850:	63000069 	movwvs	r0, #105	; 0x69
     854:	72617473 	rsbvc	r7, r1, #1929379840	; 0x73000000
     858:	00632e74 	rsbeq	r2, r3, r4, ror lr
     85c:	73000001 	movwvc	r0, #1
     860:	6e696474 	mcrvs	4, 3, r6, cr9, cr4, {3}
     864:	63672d74 	cmnvs	r7, #116, 26	; 0x1d00
     868:	00682e63 	rsbeq	r2, r8, r3, ror #28
     86c:	73000002 	movwvc	r0, #2
     870:	61752d77 	cmnvs	r5, r7, ror sp
     874:	682e7472 	stmdavs	lr!, {r1, r4, r5, r6, sl, ip, sp, lr}
     878:	00000100 	andeq	r0, r0, r0, lsl #2
     87c:	746e6f63 	strbtvc	r6, [lr], #-3939	; 0xf63
     880:	2d6c6f72 	stclcs	15, cr6, [ip, #-456]!	; 0xfffffe38
     884:	636f6c62 	cmnvs	pc, #25088	; 0x6200
     888:	00682e6b 	rsbeq	r2, r8, fp, ror #28
     88c:	72000001 	andvc	r0, r0, #1
     890:	682e6970 	stmdavs	lr!, {r4, r5, r6, r8, fp, sp, lr}
     894:	00000300 	andeq	r0, r0, r0, lsl #6
     898:	02050000 	andeq	r0, r5, #0
     89c:	00008ad4 	ldrdeq	r8, [r0], -r4
     8a0:	68684b17 	stmdavs	r8!, {r0, r1, r2, r4, r8, r9, fp, lr}^
     8a4:	2d2f3132 	stfcss	f3, [pc, #-200]!	; 7e4 <_start-0x781c>
     8a8:	0402002f 	streq	r0, [r2], #-47	; 0x2f
     8ac:	2f4f4901 	svccs	0x004f4901
     8b0:	8367674b 	cmnhi	r7, #19660800	; 0x12c0000
     8b4:	022f4e67 	eoreq	r4, pc, #1648	; 0x670
     8b8:	01010010 	tsteq	r1, r0, lsl r0
     8bc:	00000099 	muleq	r0, r9, r0
     8c0:	00770002 	rsbseq	r0, r7, r2
     8c4:	01020000 	mrseq	r0, (UNDEF: 2)
     8c8:	000d0efb 	strdeq	r0, [sp], -fp
     8cc:	01010101 	tsteq	r1, r1, lsl #2
     8d0:	01000000 	mrseq	r0, (UNDEF: 0)
     8d4:	63010000 	movwvs	r0, #4096	; 0x1000
     8d8:	30343173 	eorscc	r3, r4, r3, ror r1
     8dc:	72732d65 	rsbsvc	r2, r3, #6464	; 0x1940
     8e0:	552f0063 	strpl	r0, [pc, #-99]!	; 885 <_start-0x777b>
     8e4:	73726573 	cmnvc	r2, #482344960	; 0x1cc00000
     8e8:	6972622f 	ldmdbvs	r2!, {r0, r1, r2, r3, r5, r9, sp, lr}^
     8ec:	756a6e61 	strbvc	r6, [sl, #-3681]!	; 0xe61
     8f0:	65442f6e 	strbvs	r2, [r4, #-3950]	; 0xf6e
     8f4:	6f746b73 	svcvs	0x00746b73
     8f8:	63732f70 	cmnvs	r3, #112, 30	; 0x1c0
     8fc:	6c6f6f68 	stclvs	15, cr6, [pc], #-416	; 764 <_start-0x789c>
     900:	6e69572f 	cdpvs	7, 6, cr5, cr9, cr15, {1}
     904:	31726574 	cmncc	r2, r4, ror r5
     908:	2f303239 	svccs	0x00303239
     90c:	34315343 	ldrtcc	r5, [r1], #-835	; 0x343
     910:	632f4530 	teqvs	pc, #48, 10	; 0xc000000
     914:	30343173 	eorscc	r3, r4, r3, ror r1
     918:	30322d65 	eorscc	r2, r2, r5, ror #26
     91c:	2f6e6977 	svccs	0x006e6977
     920:	7062696c 	rsbvc	r6, r2, ip, ror #18
     924:	72000069 	andvc	r0, r0, #105	; 0x69
     928:	6f6f6265 	svcvs	0x006f6265
     92c:	00632e74 	rsbeq	r2, r3, r4, ror lr
     930:	72000001 	andvc	r0, r0, #1
     934:	682e6970 	stmdavs	lr!, {r4, r5, r6, r8, fp, sp, lr}
     938:	00000200 	andeq	r0, r0, r0, lsl #4
     93c:	02050000 	andeq	r0, r5, #0
     940:	00008b84 	andeq	r8, r0, r4, lsl #23
     944:	14010d03 	strne	r0, [r1], #-3331	; 0xd03
     948:	15852f31 	strne	r2, [r5, #3889]	; 0xf31
     94c:	2f4d4b2f 	svccs	0x004d4b2f
     950:	67523567 	ldrbvs	r3, [r2, -r7, ror #10]
     954:	01001002 	tsteq	r0, r2
     958:	0000a301 	andeq	sl, r0, r1, lsl #6
     95c:	76000200 	strvc	r0, [r0], -r0, lsl #4
     960:	02000000 	andeq	r0, r0, #0
     964:	0d0efb01 	vstreq	d15, [lr, #-4]
     968:	01010100 	mrseq	r0, (UNDEF: 17)
     96c:	00000001 	andeq	r0, r0, r1
     970:	01000001 	tsteq	r0, r1
     974:	34317363 	ldrtcc	r7, [r1], #-867	; 0x363
     978:	732d6530 	teqvc	sp, #48, 10	; 0xc000000
     97c:	2f006372 	svccs	0x00006372
     980:	72657355 	rsbvc	r7, r5, #1409286145	; 0x54000001
     984:	72622f73 	rsbvc	r2, r2, #460	; 0x1cc
     988:	6a6e6169 	bvs	1b98f34 <__bss_end__+0x1b8ed1c>
     98c:	442f6e75 	strtmi	r6, [pc], #-3701	; 994 <_start-0x766c>
     990:	746b7365 	strbtvc	r7, [fp], #-869	; 0x365
     994:	732f706f 	teqvc	pc, #111	; 0x6f
     998:	6f6f6863 	svcvs	0x006f6863
     99c:	69572f6c 	ldmdbvs	r7, {r2, r3, r5, r6, r8, r9, sl, fp, sp}^
     9a0:	7265746e 	rsbvc	r7, r5, #1845493760	; 0x6e000000
     9a4:	30323931 	eorscc	r3, r2, r1, lsr r9
     9a8:	3153432f 	cmpcc	r3, pc, lsr #6
     9ac:	2f453034 	svccs	0x00453034
     9b0:	34317363 	ldrtcc	r7, [r1], #-867	; 0x363
     9b4:	322d6530 	eorcc	r6, sp, #48, 10	; 0xc000000
     9b8:	6e697730 	mcrvs	7, 3, r7, cr9, cr0, {1}
     9bc:	62696c2f 	rsbvs	r6, r9, #12032	; 0x2f00
     9c0:	00006970 	andeq	r6, r0, r0, ror r9
     9c4:	656d6974 	strbvs	r6, [sp, #-2420]!	; 0x974
     9c8:	00632e72 	rsbeq	r2, r3, r2, ror lr
     9cc:	72000001 	andvc	r0, r0, #1
     9d0:	682e6970 	stmdavs	lr!, {r4, r5, r6, r8, fp, sp, lr}
     9d4:	00000200 	andeq	r0, r0, r0, lsl #4
     9d8:	02050000 	andeq	r0, r5, #0
     9dc:	00008bf8 	strdeq	r8, [r0], -r8	; <UNPREDICTABLE>
     9e0:	2d2f1316 	stccs	3, cr1, [pc, #-88]!	; 990 <_start-0x7670>
     9e4:	01040200 	mrseq	r0, R12_usr
     9e8:	68062e06 	stmdavs	r6, {r1, r2, r9, sl, fp, sp}
     9ec:	4d4b2f31 	stclmi	15, cr2, [fp, #-196]	; 0xffffff3c
     9f0:	4b303132 	blmi	c0cec0 <__bss_end__+0xc02ca8>
     9f4:	2f6a2f4c 	svccs	0x006a2f4c
     9f8:	022f842f 	eoreq	r8, pc, #788529152	; 0x2f000000
     9fc:	01010008 	tsteq	r1, r8
     a00:	0000017f 	andeq	r0, r0, pc, ror r1
     a04:	00ca0002 	sbceq	r0, sl, r2
     a08:	01020000 	mrseq	r0, (UNDEF: 2)
     a0c:	000d0efb 	strdeq	r0, [sp], -fp
     a10:	01010101 	tsteq	r1, r1, lsl #2
     a14:	01000000 	mrseq	r0, (UNDEF: 0)
     a18:	6d010000 	stcvs	0, cr0, [r1, #-0]
     a1c:	72732d79 	rsbsvc	r2, r3, #7744	; 0x1e40
     a20:	552f0063 	strpl	r0, [pc, #-99]!	; 9c5 <_start-0x763b>
     a24:	73726573 	cmnvc	r2, #482344960	; 0x1cc00000
     a28:	6972622f 	ldmdbvs	r2!, {r0, r1, r2, r3, r5, r9, sp, lr}^
     a2c:	756a6e61 	strbvc	r6, [sl, #-3681]!	; 0xe61
     a30:	65442f6e 	strbvs	r2, [r4, #-3950]	; 0xf6e
     a34:	6f746b73 	svcvs	0x00746b73
     a38:	63732f70 	cmnvs	r3, #112, 30	; 0x1c0
     a3c:	6c6f6f68 	stclvs	15, cr6, [pc], #-416	; 8a4 <_start-0x775c>
     a40:	6e69572f 	cdpvs	7, 6, cr5, cr9, cr15, {1}
     a44:	31726574 	cmncc	r2, r4, ror r5
     a48:	2f303239 	svccs	0x00303239
     a4c:	34315343 	ldrtcc	r5, [r1], #-835	; 0x343
     a50:	632f4530 	teqvs	pc, #48, 10	; 0xc000000
     a54:	30343173 	eorscc	r3, r4, r3, ror r1
     a58:	30322d65 	eorscc	r2, r2, r5, ror #26
     a5c:	2f6e6977 	svccs	0x006e6977
     a60:	7062696c 	rsbvc	r6, r2, ip, ror #18
     a64:	73632f69 	cmnvc	r3, #420	; 0x1a4
     a68:	65303431 	ldrvs	r3, [r0, #-1073]!	; 0x431
     a6c:	6372732d 	cmnvs	r2, #-1275068416	; 0xb4000000
     a70:	73552f00 	cmpvc	r5, #0, 30
     a74:	2f737265 	svccs	0x00737265
     a78:	61697262 	cmnvs	r9, r2, ror #4
     a7c:	6e756a6e 	vsubvs.f32	s13, s10, s29
     a80:	7365442f 	cmnvc	r5, #788529152	; 0x2f000000
     a84:	706f746b 	rsbvc	r7, pc, fp, ror #8
     a88:	6863732f 	stmdavs	r3!, {r0, r1, r2, r3, r5, r8, r9, ip, sp, lr}^
     a8c:	2f6c6f6f 	svccs	0x006c6f6f
     a90:	746e6957 	strbtvc	r6, [lr], #-2391	; 0x957
     a94:	39317265 	ldmdbcc	r1!, {r0, r2, r5, r6, r9, ip, sp, lr}
     a98:	432f3032 	teqmi	pc, #50	; 0x32
     a9c:	30343153 	eorscc	r3, r4, r3, asr r1
     aa0:	73632f45 	cmnvc	r3, #276	; 0x114
     aa4:	65303431 	ldrvs	r3, [r0, #-1073]!	; 0x431
     aa8:	7730322d 	ldrvc	r3, [r0, -sp, lsr #4]!
     aac:	6c2f6e69 	stcvs	14, cr6, [pc], #-420	; 910 <_start-0x76f0>
     ab0:	69706269 	ldmdbvs	r0!, {r0, r3, r5, r6, r9, sp, lr}^
     ab4:	70670000 	rsbvc	r0, r7, r0
     ab8:	632e6f69 	teqvs	lr, #420	; 0x1a4
     abc:	00000100 	andeq	r0, r0, r0, lsl #2
     ac0:	6f697067 	svcvs	0x00697067
     ac4:	0200682e 	andeq	r6, r0, #3014656	; 0x2e0000
     ac8:	70720000 	rsbsvc	r0, r2, r0
     acc:	00682e69 	rsbeq	r2, r8, r9, ror #28
     ad0:	00000003 	andeq	r0, r0, r3
     ad4:	80020500 	andhi	r0, r2, r0, lsl #10
     ad8:	0300008c 	movweq	r0, #140	; 0x8c
     adc:	504e013e 	subpl	r0, lr, lr, lsr r1
     ae0:	67210869 	strvs	r0, [r1, -r9, ror #16]!
     ae4:	67676767 	strbvs	r6, [r7, -r7, ror #14]!
     ae8:	084b3267 	stmdaeq	fp, {r0, r1, r2, r5, r6, r9, ip, sp}^
     aec:	5131dc22 	teqpl	r1, r2, lsr #24
     af0:	30504e13 	subscc	r4, r0, r3, lsl lr
     af4:	135031be 	cmpne	r0, #-2147483601	; 0x8000002f
     af8:	c0304f4d 	eorsgt	r4, r0, sp, asr #30
     afc:	0869504c 	stmdaeq	r9!, {r2, r3, r6, ip, lr}^
     b00:	67676721 	strbvs	r6, [r7, -r1, lsr #14]!
     b04:	32676767 	rsbcc	r6, r7, #27000832	; 0x19c0000
     b08:	a421084b 	strtge	r0, [r1], #-2123	; 0x84b
     b0c:	842f504c 	strthi	r5, [pc], #-76	; b14 <_start-0x74ec>
     b10:	82750369 	rsbshi	r0, r5, #-1543503871	; 0xa4000001
     b14:	4d2e0c03 	stcmi	12, cr0, [lr, #-12]!
     b18:	4c4b4e30 	mcrrmi	14, 3, r4, fp, cr0
     b1c:	696b6a4d 	stmdbvs	fp!, {r0, r2, r3, r6, r9, fp, sp, lr}^
     b20:	67672108 	strbvs	r2, [r7, -r8, lsl #2]!
     b24:	67676767 	strbvs	r6, [r7, -r7, ror #14]!
     b28:	22084b32 	andcs	r4, r8, #51200	; 0xc800
     b2c:	135130c0 	cmpne	r1, #192	; 0xc0
     b30:	0330504e 	teqeq	r0, #78	; 0x4e
     b34:	9f31ba18 	svcls	0x0031ba18
     b38:	4d522f4c 	ldclmi	15, cr2, [r2, #-304]	; 0xfffffed0
     b3c:	674b2f4e 	strbvs	r2, [fp, -lr, asr #30]
     b40:	6767684b 	strbvs	r6, [r7, -fp, asr #16]!
     b44:	2f672f4c 	svccs	0x00672f4c
     b48:	4e4c6e4b 	cdpmi	14, 4, cr6, cr12, cr11, {2}
     b4c:	4b674b2f 	blmi	19d3810 <__bss_end__+0x19c95f8>
     b50:	4c676768 	stclmi	7, cr6, [r7], #-416	; 0xfffffe60
     b54:	4b2f672f 	blmi	bda818 <__bss_end__+0xbd0600>
     b58:	2f4e4b6d 	svccs	0x004e4b6d
     b5c:	0200674b 	andeq	r6, r0, #19660800	; 0x12c0000
     b60:	66060104 	strvs	r0, [r6], -r4, lsl #2
     b64:	2f9f6806 	svccs	0x009f6806
     b68:	01040200 	mrseq	r0, R12_usr
     b6c:	68064a06 	stmdavs	r6, {r1, r2, r9, fp, lr}
     b70:	4a73032f 	bmi	1cc1834 <__bss_end__+0x1cb761c>
     b74:	4d2e0e03 	stcmi	14, cr0, [lr, #-12]!
     b78:	4b2f4e4c 	blmi	bd44b0 <__bss_end__+0xbca298>
     b7c:	0602bcbc 			; <UNDEFINED> instruction: 0x0602bcbc
     b80:	49010100 	stmdbmi	r1, {r8}
     b84:	02000003 	andeq	r0, r0, #3
     b88:	0001bd00 	andeq	fp, r1, r0, lsl #26
     b8c:	fb010200 	blx	41396 <__bss_end__+0x3717e>
     b90:	01000d0e 	tsteq	r0, lr, lsl #26
     b94:	00010101 	andeq	r0, r1, r1, lsl #2
     b98:	00010000 	andeq	r0, r1, r0
     b9c:	796d0100 	stmdbvc	sp!, {r8}^
     ba0:	6372732d 	cmnvs	r2, #-1275068416	; 0xb4000000
     ba4:	73552f00 	cmpvc	r5, #0, 30
     ba8:	2f737265 	svccs	0x00737265
     bac:	61697262 	cmnvs	r9, r2, ror #4
     bb0:	6e756a6e 	vsubvs.f32	s13, s10, s29
     bb4:	7365442f 	cmnvc	r5, #788529152	; 0x2f000000
     bb8:	706f746b 	rsbvc	r7, pc, fp, ror #8
     bbc:	6863732f 	stmdavs	r3!, {r0, r1, r2, r3, r5, r8, r9, ip, sp, lr}^
     bc0:	2f6c6f6f 	svccs	0x006c6f6f
     bc4:	746e6957 	strbtvc	r6, [lr], #-2391	; 0x957
     bc8:	39317265 	ldmdbcc	r1!, {r0, r2, r5, r6, r9, ip, sp, lr}
     bcc:	432f3032 	teqmi	pc, #50	; 0x32
     bd0:	30343153 	eorscc	r3, r4, r3, asr r1
     bd4:	73632f45 	cmnvc	r3, #276	; 0x114
     bd8:	65303431 	ldrvs	r3, [r0, #-1073]!	; 0x431
     bdc:	7730322d 	ldrvc	r3, [r0, -sp, lsr #4]!
     be0:	6c2f6e69 	stcvs	14, cr6, [pc], #-420	; a44 <_start-0x75bc>
     be4:	69706269 	ldmdbvs	r0!, {r0, r3, r5, r6, r9, sp, lr}^
     be8:	3173632f 	cmncc	r3, pc, lsr #6
     bec:	2d653034 	stclcs	0, cr3, [r5, #-208]!	; 0xffffff30
     bf0:	00637273 	rsbeq	r7, r3, r3, ror r2
     bf4:	7273752f 	rsbsvc	r7, r3, #197132288	; 0xbc00000
     bf8:	636f6c2f 	cmnvs	pc, #12032	; 0x2f00
     bfc:	432f6c61 	teqmi	pc, #24832	; 0x6100
     c00:	616c6c65 	cmnvs	ip, r5, ror #24
     c04:	72612f72 	rsbvc	r2, r1, #456	; 0x1c8
     c08:	6f6e2d6d 	svcvs	0x006e2d6d
     c0c:	652d656e 	strvs	r6, [sp, #-1390]!	; 0x56e
     c10:	2f696261 	svccs	0x00696261
     c14:	2e382e34 	mrccs	14, 1, r2, cr8, cr4, {1}
     c18:	73632d33 	cmnvc	r3, #3264	; 0xcc0
     c1c:	65303731 	ldrvs	r3, [r0, #-1841]!	; 0x731
     c20:	62696c2f 	rsbvs	r6, r9, #12032	; 0x2f00
     c24:	6363672f 	cmnvs	r3, #12320768	; 0xbc0000
     c28:	6d72612f 	ldfvse	f6, [r2, #-188]!	; 0xffffff44
     c2c:	6e6f6e2d 	cdpvs	14, 6, cr6, cr15, cr13, {1}
     c30:	61652d65 	cmnvs	r5, r5, ror #26
     c34:	342f6962 	strtcc	r6, [pc], #-2402	; c3c <_start-0x73c4>
     c38:	332e382e 	teqcc	lr, #3014656	; 0x2e0000
     c3c:	636e692f 	cmnvs	lr, #770048	; 0xbc000
     c40:	6564756c 	strbvs	r7, [r4, #-1388]!	; 0x56c
     c44:	73552f00 	cmpvc	r5, #0, 30
     c48:	2f737265 	svccs	0x00737265
     c4c:	61697262 	cmnvs	r9, r2, ror #4
     c50:	6e756a6e 	vsubvs.f32	s13, s10, s29
     c54:	7365442f 	cmnvc	r5, #788529152	; 0x2f000000
     c58:	706f746b 	rsbvc	r7, pc, fp, ror #8
     c5c:	6863732f 	stmdavs	r3!, {r0, r1, r2, r3, r5, r8, r9, ip, sp, lr}^
     c60:	2f6c6f6f 	svccs	0x006c6f6f
     c64:	746e6957 	strbtvc	r6, [lr], #-2391	; 0x957
     c68:	39317265 	ldmdbcc	r1!, {r0, r2, r5, r6, r9, ip, sp, lr}
     c6c:	432f3032 	teqmi	pc, #50	; 0x32
     c70:	30343153 	eorscc	r3, r4, r3, asr r1
     c74:	73632f45 	cmnvc	r3, #276	; 0x114
     c78:	65303431 	ldrvs	r3, [r0, #-1073]!	; 0x431
     c7c:	7730322d 	ldrvc	r3, [r0, -sp, lsr #4]!
     c80:	6c2f6e69 	stcvs	14, cr6, [pc], #-420	; ae4 <_start-0x751c>
     c84:	69706269 	ldmdbvs	r0!, {r0, r3, r5, r6, r9, sp, lr}^
     c88:	73552f00 	cmpvc	r5, #0, 30
     c8c:	2f737265 	svccs	0x00737265
     c90:	61697262 	cmnvs	r9, r2, ror #4
     c94:	6e756a6e 	vsubvs.f32	s13, s10, s29
     c98:	7365442f 	cmnvc	r5, #788529152	; 0x2f000000
     c9c:	706f746b 	rsbvc	r7, pc, fp, ror #8
     ca0:	6863732f 	stmdavs	r3!, {r0, r1, r2, r3, r5, r8, r9, ip, sp, lr}^
     ca4:	2f6c6f6f 	svccs	0x006c6f6f
     ca8:	746e6957 	strbtvc	r6, [lr], #-2391	; 0x957
     cac:	39317265 	ldmdbcc	r1!, {r0, r2, r5, r6, r9, ip, sp, lr}
     cb0:	432f3032 	teqmi	pc, #50	; 0x32
     cb4:	30343153 	eorscc	r3, r4, r3, asr r1
     cb8:	73632f45 	cmnvc	r3, #276	; 0x114
     cbc:	65303431 	ldrvs	r3, [r0, #-1073]!	; 0x431
     cc0:	7730322d 	ldrvc	r3, [r0, -sp, lsr #4]!
     cc4:	6c2f6e69 	stcvs	14, cr6, [pc], #-420	; b28 <_start-0x74d8>
     cc8:	69706269 	ldmdbvs	r0!, {r0, r3, r5, r6, r9, sp, lr}^
     ccc:	62696c2f 	rsbvs	r6, r9, #12032	; 0x2f00
     cd0:	73000063 	movwvc	r0, #99	; 0x63
     cd4:	61752d77 	cmnvs	r5, r7, ror sp
     cd8:	632e7472 	teqvs	lr, #1912602624	; 0x72000000
     cdc:	00000100 	andeq	r0, r0, r0, lsl #2
     ce0:	6c637963 	stclvs	9, cr7, [r3], #-396	; 0xfffffe74
     ce4:	74752d65 	ldrbtvc	r2, [r5], #-3429	; 0xd65
     ce8:	682e6c69 	stmdavs	lr!, {r0, r3, r5, r6, sl, fp, sp, lr}
     cec:	00000200 	andeq	r0, r0, r0, lsl #4
     cf0:	69647473 	stmdbvs	r4!, {r0, r1, r4, r5, r6, sl, ip, sp, lr}^
     cf4:	672d746e 	strvs	r7, [sp, -lr, ror #8]!
     cf8:	682e6363 	stmdavs	lr!, {r0, r1, r5, r6, r8, r9, sp, lr}
     cfc:	00000300 	andeq	r0, r0, r0, lsl #6
     d00:	752d7773 	strvc	r7, [sp, #-1907]!	; 0x773
     d04:	2e747261 	cdpcs	2, 7, cr7, cr4, cr1, {3}
     d08:	00020068 	andeq	r0, r2, r8, rrx
     d0c:	64747300 	ldrbtvs	r7, [r4], #-768	; 0x300
     d10:	2e677261 	cdpcs	2, 6, cr7, cr7, cr1, {3}
     d14:	00030068 	andeq	r0, r3, r8, rrx
     d18:	69706700 	ldmdbvs	r0!, {r8, r9, sl, sp, lr}^
     d1c:	00682e6f 	rsbeq	r2, r8, pc, ror #28
     d20:	72000002 	andvc	r0, r0, #2
     d24:	682e6970 	stmdavs	lr!, {r4, r5, r6, r8, fp, sp, lr}
     d28:	00000400 	andeq	r0, r0, r0, lsl #8
     d2c:	702d6176 	eorvc	r6, sp, r6, ror r1
     d30:	746e6972 	strbtvc	r6, [lr], #-2418	; 0x972
     d34:	00682e6b 	rsbeq	r2, r8, fp, ror #28
     d38:	3c000005 	stccc	0, cr0, [r0], {5}
     d3c:	6c697562 	cfstr64vs	mvdx7, [r9], #-392	; 0xfffffe78
     d40:	6e692d74 	mcrvs	13, 3, r2, cr9, cr4, {3}
     d44:	0000003e 	andeq	r0, r0, lr, lsr r0
     d48:	05000000 	streq	r0, [r0, #-0]
     d4c:	00922002 	addseq	r2, r2, r2
     d50:	2f4c1a00 	svccs	0x004c1a00
     d54:	03020430 	movweq	r0, #9264	; 0x2430
     d58:	73032e0b 	movwvc	r2, #15883	; 0x3e0b
     d5c:	88010466 	stmdahi	r1, {r1, r2, r5, r6, sl}
     d60:	03350204 	teqeq	r5, #4, 4	; 0x40000000
     d64:	01046673 	tsteq	r4, r3, ror r6
     d68:	3302048a 	movwcc	r0, #9354	; 0x248a
     d6c:	04667303 	strbteq	r7, [r6], #-771	; 0x303
     d70:	820a0301 	andhi	r0, sl, #67108864	; 0x4000000
     d74:	03310204 	teqeq	r1, #4, 4	; 0x40000000
     d78:	01046673 	tsteq	r4, r3, ror r6
     d7c:	04820c03 	streq	r0, [r2], #3075	; 0xc03
     d80:	73032f02 	movwvc	r2, #16130	; 0x3f02
     d84:	03010466 	movweq	r0, #5222	; 0x1466
     d88:	0204820e 	andeq	r8, r4, #-536870912	; 0xe0000000
     d8c:	6673032d 	ldrbtvs	r0, [r3], -sp, lsr #6
     d90:	10030104 	andne	r0, r3, r4, lsl #2
     d94:	2b020482 	blcs	81fa4 <__bss_end__+0x77d8c>
     d98:	04667303 	strbteq	r7, [r6], #-771	; 0x303
     d9c:	82120301 	andshi	r0, r2, #67108864	; 0x4000000
     da0:	03290204 	teqeq	r9, #4, 4	; 0x40000000
     da4:	01046673 	tsteq	r4, r3, ror r6
     da8:	04821403 	streq	r1, [r2], #1027	; 0x403
     dac:	2e790302 	cdpcs	3, 7, cr0, cr9, cr2, {0}
     db0:	04667303 	strbteq	r7, [r6], #-771	; 0x303
     db4:	82160301 	andshi	r0, r6, #67108864	; 0x4000000
     db8:	77030204 	strvc	r0, [r3, -r4, lsl #4]
     dbc:	6673032e 	ldrbtvs	r0, [r3], -lr, lsr #6
     dc0:	18030104 	stmdane	r3, {r2, r8}
     dc4:	2e100382 	cdpcs	3, 1, cr0, cr0, cr2, {4}
     dc8:	70034d4b 	andvc	r4, r3, fp, asr #26
     dcc:	83844c2e 	orrhi	r4, r4, #11776	; 0x2e00
     dd0:	2e0d0348 	cdpcs	3, 0, cr0, cr13, cr8, {2}
     dd4:	0433314e 	ldrteq	r3, [r3], #-334	; 0x14e
     dd8:	2e480302 	cdpcs	3, 4, cr0, cr8, cr2, {0}
     ddc:	3a030104 	bcc	c11f4 <__bss_end__+0xb6fdc>
     de0:	02042f82 	andeq	r2, r4, #520	; 0x208
     de4:	04664503 	strbteq	r4, [r6], #-1283	; 0x503
     de8:	823d0301 	eorshi	r0, sp, #67108864	; 0x4000000
     dec:	0302042f 	movweq	r0, #9263	; 0x242f
     df0:	01048242 	tsteq	r4, r2, asr #4
     df4:	8200c003 	andhi	ip, r0, #3
     df8:	0302042f 	movweq	r0, #9263	; 0x242f
     dfc:	04827fbf 	streq	r7, [r2], #4031	; 0xfbf
     e00:	00c30301 	sbceq	r0, r3, r1, lsl #6
     e04:	02042f82 	andeq	r2, r4, #520	; 0x208
     e08:	827fbc03 	rsbshi	fp, pc, #768	; 0x300
     e0c:	c6030104 	strgt	r0, [r3], -r4, lsl #2
     e10:	042f8200 	strteq	r8, [pc], #-512	; e18 <_start-0x71e8>
     e14:	7fb90302 	svcvc	0x00b90302
     e18:	03010482 	movweq	r0, #5250	; 0x1482
     e1c:	2f8200c9 	svccs	0x008200c9
     e20:	b6030204 	strlt	r0, [r3], -r4, lsl #4
     e24:	0104827f 	tsteq	r4, pc, ror r2
     e28:	8200cc03 	andhi	ip, r0, #768	; 0x300
     e2c:	0302042f 	movweq	r0, #9263	; 0x242f
     e30:	04827fb3 	streq	r7, [r2], #4019	; 0xfb3
     e34:	00d00301 	sbcseq	r0, r0, r1, lsl #6
     e38:	824c0382 	subhi	r0, ip, #134217730	; 0x8000002
     e3c:	4883844c 	stmmi	r3, {r2, r3, r6, sl, pc}
     e40:	4e2e3603 	cfmadda32mi	mvax0, mvax3, mvfx14, mvfx3
     e44:	034a5403 	movteq	r5, #41987	; 0xa403
     e48:	34324a29 	ldrtcc	r4, [r2], #-2601	; 0xa29
     e4c:	040200bb 	streq	r0, [r2], #-187	; 0xbb
     e50:	064a0601 	strbeq	r0, [sl], -r1, lsl #12
     e54:	4b4e2108 	blmi	138927c <__bss_end__+0x137f064>
     e58:	02002cbb 	andeq	r2, r0, #47872	; 0xbb00
     e5c:	2e060104 	adfcss	f0, f6, f4
     e60:	dc4c6d06 	mcrrle	13, 0, r6, ip, cr6
     e64:	040200a0 	streq	r0, [r2], #-160	; 0xa0
     e68:	064a0601 	strbeq	r0, [sl], -r1, lsl #12
     e6c:	004d2108 	subeq	r2, sp, r8, lsl #2
     e70:	4b020402 	blmi	81e80 <__bss_end__+0x77c68>
     e74:	02040200 	andeq	r0, r4, #0, 4
     e78:	04020081 	streq	r0, [r2], #-129	; 0x81
     e7c:	062e0601 	strteq	r0, [lr], -r1, lsl #12
     e80:	d8dd4c4d 	ldmle	sp, {r0, r2, r3, r6, sl, fp, lr}^
     e84:	6a4b4b4b 	bvs	12d3bb8 <__bss_end__+0x12c99a0>
     e88:	0402002f 	streq	r0, [r2], #-47	; 0x2f
     e8c:	82820601 	addhi	r0, r2, #1048576	; 0x100000
     e90:	04040200 	streq	r0, [r4], #-512	; 0x200
     e94:	0402009e 	streq	r0, [r2], #-158	; 0x9e
     e98:	08064a01 	stmdaeq	r6, {r0, r9, fp, lr}
     e9c:	2ff58823 	svccs	0x00f58823
     ea0:	40084b4b 	andmi	r4, r8, fp, asr #22
     ea4:	04020067 	streq	r0, [r2], #-103	; 0x67
     ea8:	02002f02 	andeq	r2, r0, #2, 30
     eac:	00490204 	subeq	r0, r9, r4, lsl #4
     eb0:	06010402 	streq	r0, [r1], -r2, lsl #8
     eb4:	3468062e 	strbtcc	r0, [r8], #-1582	; 0x62e
     eb8:	00a04b86 	adceq	r4, r0, r6, lsl #23
     ebc:	06010402 	streq	r0, [r1], -r2, lsl #8
     ec0:	21080666 	tstcs	r8, r6, ror #12
     ec4:	4b3e0868 	blmi	f8306c <__bss_end__+0xf78e54>
     ec8:	02d84b67 	sbcseq	r4, r8, #105472	; 0x19c00
     ecc:	0101000a 	tsteq	r1, sl
     ed0:	00000101 	andeq	r0, r0, r1, lsl #2
     ed4:	00ca0002 	sbceq	r0, sl, r2
     ed8:	01020000 	mrseq	r0, (UNDEF: 2)
     edc:	000d0efb 	strdeq	r0, [sp], -fp
     ee0:	01010101 	tsteq	r1, r1, lsl #2
     ee4:	01000000 	mrseq	r0, (UNDEF: 0)
     ee8:	6d010000 	stcvs	0, cr0, [r1, #-0]
     eec:	72732d79 	rsbsvc	r2, r3, #7744	; 0x1e40
     ef0:	552f0063 	strpl	r0, [pc, #-99]!	; e95 <_start-0x716b>
     ef4:	73726573 	cmnvc	r2, #482344960	; 0x1cc00000
     ef8:	6972622f 	ldmdbvs	r2!, {r0, r1, r2, r3, r5, r9, sp, lr}^
     efc:	756a6e61 	strbvc	r6, [sl, #-3681]!	; 0xe61
     f00:	65442f6e 	strbvs	r2, [r4, #-3950]	; 0xf6e
     f04:	6f746b73 	svcvs	0x00746b73
     f08:	63732f70 	cmnvs	r3, #112, 30	; 0x1c0
     f0c:	6c6f6f68 	stclvs	15, cr6, [pc], #-416	; d74 <_start-0x728c>
     f10:	6e69572f 	cdpvs	7, 6, cr5, cr9, cr15, {1}
     f14:	31726574 	cmncc	r2, r4, ror r5
     f18:	2f303239 	svccs	0x00303239
     f1c:	34315343 	ldrtcc	r5, [r1], #-835	; 0x343
     f20:	632f4530 	teqvs	pc, #48, 10	; 0xc000000
     f24:	30343173 	eorscc	r3, r4, r3, ror r1
     f28:	30322d65 	eorscc	r2, r2, r5, ror #26
     f2c:	2f6e6977 	svccs	0x006e6977
     f30:	7062696c 	rsbvc	r6, r2, ip, ror #18
     f34:	73632f69 	cmnvc	r3, #420	; 0x1a4
     f38:	65303431 	ldrvs	r3, [r0, #-1073]!	; 0x431
     f3c:	6372732d 	cmnvs	r2, #-1275068416	; 0xb4000000
     f40:	73552f00 	cmpvc	r5, #0, 30
     f44:	2f737265 	svccs	0x00737265
     f48:	61697262 	cmnvs	r9, r2, ror #4
     f4c:	6e756a6e 	vsubvs.f32	s13, s10, s29
     f50:	7365442f 	cmnvc	r5, #788529152	; 0x2f000000
     f54:	706f746b 	rsbvc	r7, pc, fp, ror #8
     f58:	6863732f 	stmdavs	r3!, {r0, r1, r2, r3, r5, r8, r9, ip, sp, lr}^
     f5c:	2f6c6f6f 	svccs	0x006c6f6f
     f60:	746e6957 	strbtvc	r6, [lr], #-2391	; 0x957
     f64:	39317265 	ldmdbcc	r1!, {r0, r2, r5, r6, r9, ip, sp, lr}
     f68:	432f3032 	teqmi	pc, #50	; 0x32
     f6c:	30343153 	eorscc	r3, r4, r3, asr r1
     f70:	73632f45 	cmnvc	r3, #276	; 0x114
     f74:	65303431 	ldrvs	r3, [r0, #-1073]!	; 0x431
     f78:	7730322d 	ldrvc	r3, [r0, -sp, lsr #4]!
     f7c:	6c2f6e69 	stcvs	14, cr6, [pc], #-420	; de0 <_start-0x7220>
     f80:	69706269 	ldmdbvs	r0!, {r0, r3, r5, r6, r9, sp, lr}^
     f84:	61750000 	cmnvs	r5, r0
     f88:	632e7472 	teqvs	lr, #1912602624	; 0x72000000
     f8c:	00000100 	andeq	r0, r0, r0, lsl #2
     f90:	6f697067 	svcvs	0x00697067
     f94:	0200682e 	andeq	r6, r0, #3014656	; 0x2e0000
     f98:	70720000 	rsbsvc	r0, r2, r0
     f9c:	00682e69 	rsbeq	r2, r8, r9, ror #28
     fa0:	00000003 	andeq	r0, r0, r3
     fa4:	88020500 	stmdahi	r2, {r8, sl}
     fa8:	03000098 	movweq	r0, #152	; 0x98
     fac:	33300136 	teqcc	r0, #-2147483635	; 0x8000000d
     fb0:	d8306d67 	ldmdale	r0!, {r0, r1, r2, r5, r6, r8, sl, fp, sp, lr}
     fb4:	67676730 			; <UNDEFINED> instruction: 0x67676730
     fb8:	86686767 	strbthi	r6, [r8], -r7, ror #14
     fbc:	306a672f 	rsbcc	r6, sl, pc, lsr #14
     fc0:	2f696767 	svccs	0x00696767
     fc4:	674c6a67 	strbvs	r6, [ip, -r7, ror #20]
     fc8:	302f2fc1 	eorcc	r2, pc, r1, asr #31
     fcc:	3049682f 	subcc	r6, r9, pc, lsr #16
     fd0:	01000202 	tsteq	r0, r2, lsl #4
     fd4:	00012801 	andeq	r2, r1, r1, lsl #16
     fd8:	0d000200 	sfmeq	f0, 4, [r0, #-0]
     fdc:	02000001 	andeq	r0, r0, #1
     fe0:	0d0efb01 	vstreq	d15, [lr, #-4]
     fe4:	01010100 	mrseq	r0, (UNDEF: 17)
     fe8:	00000001 	andeq	r0, r0, r1
     fec:	01000001 	tsteq	r0, r1
     ff0:	34317363 	ldrtcc	r7, [r1], #-867	; 0x363
     ff4:	732d6530 	teqvc	sp, #48, 10	; 0xc000000
     ff8:	2f006372 	svccs	0x00006372
     ffc:	2f727375 	svccs	0x00727375
    1000:	61636f6c 	cmnvs	r3, ip, ror #30
    1004:	65432f6c 	strbvs	r2, [r3, #-3948]	; 0xf6c
    1008:	72616c6c 	rsbvc	r6, r1, #108, 24	; 0x6c00
    100c:	6d72612f 	ldfvse	f6, [r2, #-188]!	; 0xffffff44
    1010:	6e6f6e2d 	cdpvs	14, 6, cr6, cr15, cr13, {1}
    1014:	61652d65 	cmnvs	r5, r5, ror #26
    1018:	342f6962 	strtcc	r6, [pc], #-2402	; 1020 <_start-0x6fe0>
    101c:	332e382e 	teqcc	lr, #3014656	; 0x2e0000
    1020:	3173632d 	cmncc	r3, sp, lsr #6
    1024:	2f653037 	svccs	0x00653037
    1028:	2f62696c 	svccs	0x0062696c
    102c:	2f636367 	svccs	0x00636367
    1030:	2d6d7261 	sfmcs	f7, 2, [sp, #-388]!	; 0xfffffe7c
    1034:	656e6f6e 	strbvs	r6, [lr, #-3950]!	; 0xf6e
    1038:	6261652d 	rsbvs	r6, r1, #188743680	; 0xb400000
    103c:	2e342f69 	cdpcs	15, 3, cr2, cr4, cr9, {3}
    1040:	2f332e38 	svccs	0x00332e38
    1044:	6c636e69 	stclvs	14, cr6, [r3], #-420	; 0xfffffe5c
    1048:	00656475 	rsbeq	r6, r5, r5, ror r4
    104c:	7273752f 	rsbsvc	r7, r3, #197132288	; 0xbc00000
    1050:	636f6c2f 	cmnvs	pc, #12032	; 0x2f00
    1054:	432f6c61 	teqmi	pc, #24832	; 0x6100
    1058:	616c6c65 	cmnvs	ip, r5, ror #24
    105c:	72612f72 	rsbvc	r2, r1, #456	; 0x1c8
    1060:	6f6e2d6d 	svcvs	0x006e2d6d
    1064:	652d656e 	strvs	r6, [sp, #-1390]!	; 0x56e
    1068:	2f696261 	svccs	0x00696261
    106c:	2e382e34 	mrccs	14, 1, r2, cr8, cr4, {1}
    1070:	73632d33 	cmnvc	r3, #3264	; 0xcc0
    1074:	65303731 	ldrvs	r3, [r0, #-1841]!	; 0x731
    1078:	6d72612f 	ldfvse	f6, [r2, #-188]!	; 0xffffff44
    107c:	6e6f6e2d 	cdpvs	14, 6, cr6, cr15, cr13, {1}
    1080:	61652d65 	cmnvs	r5, r5, ror #26
    1084:	692f6962 	stmdbvs	pc!, {r1, r5, r6, r8, fp, sp, lr}	; <UNPREDICTABLE>
    1088:	756c636e 	strbvc	r6, [ip, #-878]!	; 0x36e
    108c:	00006564 	andeq	r6, r0, r4, ror #10
    1090:	746e6f63 	strbtvc	r6, [lr], #-3939	; 0xf63
    1094:	2d6c6f72 	stclcs	15, cr6, [ip, #-456]!	; 0xfffffe38
    1098:	636f6c62 	cmnvs	pc, #25088	; 0x6200
    109c:	00632e6b 	rsbeq	r2, r3, fp, ror #28
    10a0:	73000001 	movwvc	r0, #1
    10a4:	65646474 	strbvs	r6, [r4, #-1140]!	; 0x474
    10a8:	00682e66 	rsbeq	r2, r8, r6, ror #28
    10ac:	73000002 	movwvc	r0, #2
    10b0:	6e696474 	mcrvs	4, 3, r6, cr9, cr4, {3}
    10b4:	63672d74 	cmnvs	r7, #116, 26	; 0x1d00
    10b8:	00682e63 	rsbeq	r2, r8, r3, ror #28
    10bc:	73000002 	movwvc	r0, #2
    10c0:	61752d77 	cmnvs	r5, r7, ror sp
    10c4:	682e7472 	stmdavs	lr!, {r1, r4, r5, r6, sl, ip, sp, lr}
    10c8:	00000100 	andeq	r0, r0, r0, lsl #2
    10cc:	746e6f63 	strbtvc	r6, [lr], #-3939	; 0xf63
    10d0:	2d6c6f72 	stclcs	15, cr6, [ip, #-456]!	; 0xfffffe38
    10d4:	636f6c62 	cmnvs	pc, #25088	; 0x6200
    10d8:	00682e6b 	rsbeq	r2, r8, fp, ror #28
    10dc:	73000001 	movwvc	r0, #1
    10e0:	6e697274 	mcrvs	2, 3, r7, cr9, cr4, {3}
    10e4:	00682e67 	rsbeq	r2, r8, r7, ror #28
    10e8:	00000003 	andeq	r0, r0, r3
    10ec:	40020500 	andmi	r0, r2, r0, lsl #10
    10f0:	1600009a 			; <UNDEFINED> instruction: 0x1600009a
    10f4:	4c688330 	stclmi	3, cr8, [r8], #-192	; 0xffffff40
    10f8:	2f4b9f14 	svccs	0x004b9f14
    10fc:	01000402 	tsteq	r0, r2, lsl #8
    1100:	0000ec01 	andeq	lr, r0, r1, lsl #24
    1104:	d0000200 	andle	r0, r0, r0, lsl #4
    1108:	02000000 	andeq	r0, r0, #0
    110c:	0d0efb01 	vstreq	d15, [lr, #-4]
    1110:	01010100 	mrseq	r0, (UNDEF: 17)
    1114:	00000001 	andeq	r0, r0, r1
    1118:	01000001 	tsteq	r0, r1
    111c:	6362696c 	cmnvs	r2, #108, 18	; 0x1b0000
    1120:	73752f00 	cmnvc	r5, #0, 30
    1124:	6f6c2f72 	svcvs	0x006c2f72
    1128:	2f6c6163 	svccs	0x006c6163
    112c:	6c6c6543 	cfstr64vs	mvdx6, [ip], #-268	; 0xfffffef4
    1130:	612f7261 	teqvs	pc, r1, ror #4
    1134:	6e2d6d72 	mcrvs	13, 1, r6, cr13, cr2, {3}
    1138:	2d656e6f 	stclcs	14, cr6, [r5, #-444]!	; 0xfffffe44
    113c:	69626165 	stmdbvs	r2!, {r0, r2, r5, r6, r8, sp, lr}^
    1140:	382e342f 	stmdacc	lr!, {r0, r1, r2, r3, r5, sl, ip, sp}
    1144:	632d332e 	teqvs	sp, #-1207959552	; 0xb8000000
    1148:	30373173 	eorscc	r3, r7, r3, ror r1
    114c:	696c2f65 	stmdbvs	ip!, {r0, r2, r5, r6, r8, r9, sl, fp, sp}^
    1150:	63672f62 	cmnvs	r7, #392	; 0x188
    1154:	72612f63 	rsbvc	r2, r1, #396	; 0x18c
    1158:	6f6e2d6d 	svcvs	0x006e2d6d
    115c:	652d656e 	strvs	r6, [sp, #-1390]!	; 0x56e
    1160:	2f696261 	svccs	0x00696261
    1164:	2e382e34 	mrccs	14, 1, r2, cr8, cr4, {1}
    1168:	6e692f33 	mcrvs	15, 3, r2, cr9, cr3, {1}
    116c:	64756c63 	ldrbtvs	r6, [r5], #-3171	; 0xc63
    1170:	752f0065 	strvc	r0, [pc, #-101]!	; 1113 <_start-0x6eed>
    1174:	6c2f7273 	sfmvs	f7, 4, [pc], #-460	; fb0 <_start-0x7050>
    1178:	6c61636f 	stclvs	3, cr6, [r1], #-444	; 0xfffffe44
    117c:	6c65432f 	stclvs	3, cr4, [r5], #-188	; 0xffffff44
    1180:	2f72616c 	svccs	0x0072616c
    1184:	2d6d7261 	sfmcs	f7, 2, [sp, #-388]!	; 0xfffffe7c
    1188:	656e6f6e 	strbvs	r6, [lr, #-3950]!	; 0xf6e
    118c:	6261652d 	rsbvs	r6, r1, #188743680	; 0xb400000
    1190:	2e342f69 	cdpcs	15, 3, cr2, cr4, cr9, {3}
    1194:	2d332e38 	ldccs	14, cr2, [r3, #-224]!	; 0xffffff20
    1198:	37317363 	ldrcc	r7, [r1, -r3, ror #6]!
    119c:	612f6530 	teqvs	pc, r0, lsr r5	; <UNPREDICTABLE>
    11a0:	6e2d6d72 	mcrvs	13, 1, r6, cr13, cr2, {3}
    11a4:	2d656e6f 	stclcs	14, cr6, [r5, #-444]!	; 0xfffffe44
    11a8:	69626165 	stmdbvs	r2!, {r0, r2, r5, r6, r8, sp, lr}^
    11ac:	636e692f 	cmnvs	lr, #770048	; 0xbc000
    11b0:	6564756c 	strbvs	r7, [r4, #-1388]!	; 0x56c
    11b4:	656d0000 	strbvs	r0, [sp, #-0]!
    11b8:	7465736d 	strbtvc	r7, [r5], #-877	; 0x36d
    11bc:	0100632e 	tsteq	r0, lr, lsr #6
    11c0:	74730000 	ldrbtvc	r0, [r3], #-0
    11c4:	66656464 	strbtvs	r6, [r5], -r4, ror #8
    11c8:	0200682e 	andeq	r6, r0, #3014656	; 0x2e0000
    11cc:	74730000 	ldrbtvc	r0, [r3], #-0
    11d0:	676e6972 			; <UNDEFINED> instruction: 0x676e6972
    11d4:	0300682e 	movweq	r6, #2094	; 0x82e
    11d8:	00000000 	andeq	r0, r0, r0
    11dc:	9a900205 	bls	fe4019f8 <__bss_end__+0xfe3f77e0>
    11e0:	13140000 	tstne	r4, #0
    11e4:	02002f4c 	andeq	r2, r0, #76, 30	; 0x130
    11e8:	4d490104 	stfmie	f0, [r9, #-16]
    11ec:	01000202 	tsteq	r0, r2, lsl #4
    11f0:	Address 0x00000000000011f0 is out of bounds.


Disassembly of section .debug_str:

00000000 <.debug_str>:
   0:	53465047 	movtpl	r5, #24647	; 0x6047
   4:	00324c45 	eorseq	r4, r2, r5, asr #24
   8:	53465047 	movtpl	r5, #24647	; 0x6047
   c:	00344c45 	eorseq	r4, r4, r5, asr #24
  10:	30746962 	rsbscc	r6, r4, r2, ror #18
  14:	74696200 	strbtvc	r6, [r9], #-512	; 0x200
  18:	69620031 	stmdbvs	r2!, {r0, r4, r5}^
  1c:	62003274 	andvs	r3, r0, #116, 4	; 0x40000007
  20:	00337469 	eorseq	r7, r3, r9, ror #8
  24:	74736166 	ldrbtvc	r6, [r3], #-358	; 0x166
  28:	6970675f 	ldmdbvs	r0!, {r0, r1, r2, r3, r4, r6, r8, r9, sl, sp, lr}^
  2c:	72775f6f 	rsbsvc	r5, r7, #444	; 0x1bc
  30:	00657469 	rsbeq	r7, r5, r9, ror #8
  34:	35746962 	ldrbcc	r6, [r4, #-2402]!	; 0x962
  38:	74696200 	strbtvc	r6, [r9], #-512	; 0x200
  3c:	69620036 	stmdbvs	r2!, {r1, r2, r4, r5}^
  40:	6c003774 	stcvs	7, cr3, [r0], {116}	; 0x74
  44:	20676e6f 	rsbcs	r6, r7, pc, ror #28
  48:	676e6f6c 	strbvs	r6, [lr, -ip, ror #30]!
  4c:	736e7520 	cmnvc	lr, #32, 10	; 0x8000000
  50:	656e6769 	strbvs	r6, [lr, #-1897]!	; 0x769
  54:	6e692064 	cdpvs	0, 6, cr2, cr9, cr4, {3}
  58:	61660074 	smcvs	24580	; 0x6004
  5c:	675f7473 			; <UNDEFINED> instruction: 0x675f7473
  60:	5f6f6970 	svcpl	0x006f6970
  64:	5f746573 	svcpl	0x00746573
  68:	62006e6f 	andvs	r6, r0, #1776	; 0x6f0
  6c:	00347469 	eorseq	r7, r4, r9, ror #8
  70:	676e6f6c 	strbvs	r6, [lr, -ip, ror #30]!
  74:	6e6f6c20 	cdpvs	12, 6, cr6, cr15, cr0, {1}
  78:	6e692067 	cdpvs	0, 6, cr2, cr9, cr7, {3}
  7c:	636e0074 	cmnvs	lr, #116	; 0x74
  80:	656c6379 	strbvs	r6, [ip, #-889]!	; 0x379
  84:	53504700 	cmppl	r0, #0, 14
  88:	00305445 	eorseq	r5, r0, r5, asr #8
  8c:	45535047 	ldrbmi	r5, [r3, #-71]	; 0x47
  90:	47003154 	smlsdmi	r0, r4, r1, r3
  94:	56454c50 			; <UNDEFINED> instruction: 0x56454c50
  98:	50470030 	subpl	r0, r7, r0, lsr r0
  9c:	3156454c 	cmpcc	r6, ip, asr #10
  a0:	73657400 	cmnvc	r5, #0, 8
  a4:	65675f74 	strbvs	r5, [r7, #-3956]!	; 0xf74
  a8:	6f6e006e 	svcvs	0x006e006e
  ac:	69616d74 	stmdbvs	r1!, {r2, r4, r5, r6, r8, sl, fp, sp, lr}^
  b0:	6166006e 	cmnvs	r6, lr, rrx
  b4:	675f7473 			; <UNDEFINED> instruction: 0x675f7473
  b8:	5f6f6970 	svcpl	0x006f6970
  bc:	5f746573 	svcpl	0x00746573
  c0:	0066666f 	rsbeq	r6, r6, pc, ror #12
  c4:	20554e47 	subscs	r4, r5, r7, asr #28
  c8:	2e342043 	cdpcs	0, 3, cr2, cr4, cr3, {2}
  cc:	20332e38 	eorscs	r2, r3, r8, lsr lr
  d0:	70636d2d 	rsbvc	r6, r3, sp, lsr #26
  d4:	72613d75 	rsbvc	r3, r1, #7488	; 0x1d40
  d8:	3731316d 	ldrcc	r3, [r1, -sp, ror #2]!
  dc:	667a6a36 			; <UNDEFINED> instruction: 0x667a6a36
  e0:	2d20732d 	stccs	3, cr7, [r0, #-180]!	; 0xffffff4c
  e4:	6e75746d 	cdpvs	4, 7, cr7, cr5, cr13, {3}
  e8:	72613d65 	rsbvc	r3, r1, #6464	; 0x1940
  ec:	3731316d 	ldrcc	r3, [r1, -sp, ror #2]!
  f0:	667a6a36 			; <UNDEFINED> instruction: 0x667a6a36
  f4:	2d20732d 	stccs	3, cr7, [r0, #-180]!	; 0xffffff4c
  f8:	62646767 	rsbvs	r6, r4, #27000832	; 0x19c0000
  fc:	334f2d20 	movtcc	r2, #64800	; 0xfd20
 100:	74732d20 	ldrbtvc	r2, [r3], #-3360	; 0xd20
 104:	6e673d64 	cdpvs	13, 6, cr3, cr7, cr4, {3}
 108:	20393975 	eorscs	r3, r9, r5, ror r9
 10c:	7266662d 	rsbvc	r6, r6, #47185920	; 0x2d00000
 110:	74736565 	ldrbtvc	r6, [r3], #-1381	; 0x565
 114:	69646e61 	stmdbvs	r4!, {r0, r5, r6, r9, sl, fp, sp, lr}^
 118:	6300676e 	movwvs	r6, #1902	; 0x76e
 11c:	6e65696c 	cdpvs	9, 6, cr6, cr5, cr12, {3}
 120:	65740074 	ldrbvs	r0, [r4, #-116]!	; 0x74
 124:	7200706d 	andvc	r7, r0, #109	; 0x6d
 128:	725f6970 	subsvc	r6, pc, #112, 18	; 0x1c0000
 12c:	74657365 	strbtvc	r7, [r5], #-869	; 0x365
 130:	7475705f 	ldrbtvc	r7, [r5], #-95	; 0x5f
 134:	50470063 	subpl	r0, r7, r3, rrx
 138:	4c455346 	mcrrmi	3, 4, r5, r5, cr6
 13c:	50470030 	subpl	r0, r7, r0, lsr r0
 140:	4c455346 	mcrrmi	3, 4, r5, r5, cr6
 144:	50470031 	subpl	r0, r7, r1, lsr r0
 148:	4c455346 	mcrrmi	3, 4, r5, r5, cr6
 14c:	78650033 	stmdavc	r5!, {r0, r1, r4, r5}^
 150:	74636570 	strbtvc	r6, [r3], #-1392	; 0x570
 154:	47006465 	strmi	r6, [r0, -r5, ror #8]
 158:	45534650 	ldrbmi	r4, [r3, #-1616]	; 0x650
 15c:	5f00354c 	svcpl	0x0000354c
 160:	4e55465f 	mrcmi	6, 2, r4, cr5, cr15, {2}
 164:	4f495443 	svcmi	0x00495443
 168:	005f5f4e 	subseq	r5, pc, lr, asr #30
 16c:	726f6873 	rsbvc	r6, pc, #7536640	; 0x730000
 170:	6e752074 	mrcvs	0, 3, r2, cr5, cr4, {3}
 174:	6e676973 	mcrvs	9, 3, r6, cr7, cr3, {3}
 178:	69206465 	stmdbvs	r0!, {r0, r2, r5, r6, sl, sp, lr}
 17c:	6700746e 	strvs	r7, [r0, -lr, ror #8]
 180:	5f6f6970 	svcpl	0x006f6970
 184:	6c657366 	stclvs	3, cr7, [r5], #-408	; 0xfffffe68
 188:	50470030 	subpl	r0, r7, r0, lsr r0
 18c:	31524c43 	cmpcc	r2, r3, asr #24
 190:	656c6300 	strbvs	r6, [ip, #-768]!	; 0x300
 194:	725f6e61 	subsvc	r6, pc, #1552	; 0x610
 198:	6f6f6265 	svcvs	0x006f6265
 19c:	65720074 	ldrbvs	r0, [r2, #-116]!	; 0x74
 1a0:	00796c70 	rsbseq	r6, r9, r0, ror ip
 1a4:	657a6973 	ldrbvs	r6, [sl, #-2419]!	; 0x973
 1a8:	65707974 	ldrbvs	r7, [r0, #-2420]!	; 0x974
 1ac:	73552f00 	cmpvc	r5, #0, 30
 1b0:	2f737265 	svccs	0x00737265
 1b4:	61697262 	cmnvs	r9, r2, ror #4
 1b8:	6e756a6e 	vsubvs.f32	s13, s10, s29
 1bc:	7365442f 	cmnvc	r5, #788529152	; 0x2f000000
 1c0:	706f746b 	rsbvc	r7, pc, fp, ror #8
 1c4:	6863732f 	stmdavs	r3!, {r0, r1, r2, r3, r5, r8, r9, ip, sp, lr}^
 1c8:	2f6c6f6f 	svccs	0x006c6f6f
 1cc:	69727053 	ldmdbvs	r2!, {r0, r1, r4, r6, ip, sp, lr}^
 1d0:	3931676e 	ldmdbcc	r1!, {r1, r2, r3, r5, r6, r8, r9, sl, sp, lr}
 1d4:	432f3032 	teqmi	pc, #50	; 0x32
 1d8:	30343253 	eorscc	r3, r4, r3, asr r2
 1dc:	632f584c 	teqvs	pc, #76, 16	; 0x4c0000
 1e0:	30343273 	eorscc	r3, r4, r3, ror r2
 1e4:	322d786c 	eorcc	r7, sp, #108, 16	; 0x6c0000
 1e8:	72707330 	rsbsvc	r7, r0, #48, 6	; 0xc0000000
 1ec:	62616c2f 	rsbvs	r6, r1, #12032	; 0x2f00
 1f0:	2d342f73 	ldccs	15, cr2, [r4, #-460]!	; 0xfffffe34
 1f4:	74726175 	ldrbtvc	r6, [r2], #-373	; 0x175
 1f8:	316e382d 	cmncc	lr, sp, lsr #16
 1fc:	6f63732f 	svcvs	0x0063732f
 200:	5f006570 	svcpl	0x00006570
 204:	0074756f 	rsbseq	r7, r4, pc, ror #10
 208:	69736e75 	ldmdbvs	r3!, {r0, r2, r4, r5, r6, r9, sl, fp, sp, lr}^
 20c:	64656e67 	strbtvs	r6, [r5], #-3687	; 0xe67
 210:	61686320 	cmnvs	r8, r0, lsr #6
 214:	68730072 	ldmdavs	r3!, {r1, r4, r5, r6}^
 218:	2074726f 	rsbscs	r7, r4, pc, ror #4
 21c:	00746e69 	rsbseq	r6, r4, r9, ror #28
 220:	4c435047 	mcrrmi	0, 4, r5, r3, cr7
 224:	64003052 	strvs	r3, [r0], #-82	; 0x52
 228:	79616c65 	stmdbvc	r1!, {r0, r2, r5, r6, sl, fp, sp, lr}^
 22c:	00736d5f 	rsbseq	r6, r3, pc, asr sp
 230:	6c637963 	stclvs	9, cr7, [r3], #-396	; 0xfffffe74
 234:	705f7365 	subsvc	r7, pc, r5, ror #6
 238:	735f7265 	cmpvc	pc, #1342177286	; 0x50000006
 23c:	67006365 	strvs	r6, [r0, -r5, ror #6]
 240:	5f6f6970 	svcpl	0x006f6970
 244:	30746573 	rsbscc	r6, r4, r3, ror r5
 248:	72696600 	rsbvc	r6, r9, #0, 12
 24c:	67007473 	smlsdxvs	r0, r3, r4, r7
 250:	5f6f6970 	svcpl	0x006f6970
 254:	5f746573 	svcpl	0x00746573
 258:	75706e69 	ldrbvc	r6, [r0, #-3689]!	; 0xe69
 25c:	616c0074 	smcvs	49156	; 0xc004
 260:	67007473 	smlsdxvs	r0, r3, r4, r7
 264:	5f6f6970 	svcpl	0x006f6970
 268:	5f746573 	svcpl	0x00746573
 26c:	7074756f 	rsbsvc	r7, r4, pc, ror #10
 270:	65007475 	strvs	r7, [r0, #-1141]	; 0x475
 274:	6c62616e 	stfvse	f6, [r2], #-440	; 0xfffffe48
 278:	61635f65 	cmnvs	r3, r5, ror #30
 27c:	00656863 	rsbeq	r6, r5, r3, ror #16
 280:	746e6975 	strbtvc	r6, [lr], #-2421	; 0x975
 284:	00745f38 	rsbseq	r5, r4, r8, lsr pc
 288:	6f697067 	svcvs	0x00697067
 28c:	726c635f 	rsbvc	r6, ip, #2080374785	; 0x7c000001
 290:	63730030 	cmnvs	r3, #48	; 0x30
 294:	2e65706f 	cdpcs	0, 6, cr7, cr5, cr15, {3}
 298:	5f5f0063 	svcpl	0x005f0063
 29c:	63756e67 	cmnvs	r5, #1648	; 0x670
 2a0:	5f61765f 	svcpl	0x0061765f
 2a4:	7473696c 	ldrbtvc	r6, [r3], #-2412	; 0x96c
 2a8:	62696c00 	rsbvs	r6, r9, #0, 24
 2ac:	72702f63 	rsbsvc	r2, r0, #396	; 0x18c
 2b0:	6b746e69 	blvs	1d1bc5c <__bss_end__+0x1d11a44>
 2b4:	4700632e 	strmi	r6, [r0, -lr, lsr #6]
 2b8:	4320554e 	teqmi	r0, #327155712	; 0x13800000
 2bc:	382e3420 	stmdacc	lr!, {r5, sl, ip, sp}
 2c0:	2d20332e 	stccs	3, cr3, [r0, #-184]!	; 0xffffff48
 2c4:	7570636d 	ldrbvc	r6, [r0, #-877]!	; 0x36d
 2c8:	6d72613d 	ldfvse	f6, [r2, #-244]!	; 0xffffff0c
 2cc:	36373131 			; <UNDEFINED> instruction: 0x36373131
 2d0:	2d667a6a 	vstmdbcs	r6!, {s15-s120}
 2d4:	6d2d2073 	stcvs	0, cr2, [sp, #-460]!	; 0xfffffe34
 2d8:	656e7574 	strbvs	r7, [lr, #-1396]!	; 0x574
 2dc:	6d72613d 	ldfvse	f6, [r2, #-244]!	; 0xffffff0c
 2e0:	36373131 			; <UNDEFINED> instruction: 0x36373131
 2e4:	2d667a6a 	vstmdbcs	r6!, {s15-s120}
 2e8:	672d2073 			; <UNDEFINED> instruction: 0x672d2073
 2ec:	20626467 	rsbcs	r6, r2, r7, ror #8
 2f0:	20674f2d 	rsbcs	r4, r7, sp, lsr #30
 2f4:	6474732d 	ldrbtvs	r7, [r4], #-813	; 0x32d
 2f8:	756e673d 	strbvc	r6, [lr, #-1853]!	; 0x73d
 2fc:	2d203939 	stccs	9, cr3, [r0, #-228]!	; 0xffffff1c
 300:	65726666 	ldrbvs	r6, [r2, #-1638]!	; 0x666
 304:	61747365 	cmnvs	r4, r5, ror #6
 308:	6e69646e 	cdpvs	4, 6, cr6, cr9, cr14, {3}
 30c:	61760067 	cmnvs	r6, r7, rrx
 310:	6972705f 	ldmdbvs	r2!, {r0, r1, r2, r3, r4, r6, ip, sp, lr}^
 314:	006b746e 	rsbeq	r7, fp, lr, ror #8
 318:	61765f5f 	cmnvs	r6, pc, asr pc
 31c:	73696c5f 	cmnvc	r9, #24320	; 0x5f00
 320:	552f0074 	strpl	r0, [pc, #-116]!	; 2b4 <_start-0x7d4c>
 324:	73726573 	cmnvc	r2, #482344960	; 0x1cc00000
 328:	6972622f 	ldmdbvs	r2!, {r0, r1, r2, r3, r5, r9, sp, lr}^
 32c:	756a6e61 	strbvc	r6, [sl, #-3681]!	; 0xe61
 330:	65442f6e 	strbvs	r2, [r4, #-3950]	; 0xf6e
 334:	6f746b73 	svcvs	0x00746b73
 338:	63732f70 	cmnvs	r3, #112, 30	; 0x1c0
 33c:	6c6f6f68 	stclvs	15, cr6, [pc], #-416	; 1a4 <_start-0x7e5c>
 340:	6e69572f 	cdpvs	7, 6, cr5, cr9, cr15, {1}
 344:	31726574 	cmncc	r2, r4, ror r5
 348:	2f303239 	svccs	0x00303239
 34c:	34315343 	ldrtcc	r5, [r1], #-835	; 0x343
 350:	632f4530 	teqvs	pc, #48, 10	; 0xc000000
 354:	30343173 	eorscc	r3, r4, r3, ror r1
 358:	30322d65 	eorscc	r2, r2, r5, ror #26
 35c:	2f6e6977 	svccs	0x006e6977
 360:	7062696c 	rsbvc	r6, r2, ip, ror #18
 364:	72610069 	rsbvc	r0, r1, #105	; 0x69
 368:	5f007367 	svcpl	0x00007367
 36c:	0070615f 	rsbseq	r6, r0, pc, asr r1
 370:	65746e69 	ldrbvs	r6, [r4, #-3689]!	; 0xe69
 374:	6c616e72 	stclvs	14, cr6, [r1], #-456	; 0xfffffe38
 378:	7475705f 	ldrbtvc	r7, [r5], #-95	; 0x5f
 37c:	72616863 	rsbvc	r6, r1, #6488064	; 0x630000
 380:	69707200 	ldmdbvs	r0!, {r9, ip, sp, lr}^
 384:	7475705f 	ldrbtvc	r7, [r5], #-95	; 0x5f
 388:	72616863 	rsbvc	r6, r1, #6488064	; 0x630000
 38c:	62696c00 	rsbvs	r6, r9, #0, 24
 390:	75702f63 	ldrbvc	r2, [r0, #-3939]!	; 0xf63
 394:	61686374 	smcvs	34356	; 0x8634
 398:	00632e72 	rsbeq	r2, r3, r2, ror lr
 39c:	5f697072 	svcpl	0x00697072
 3a0:	5f746573 	svcpl	0x00746573
 3a4:	63747570 	cmnvs	r4, #112, 10	; 0x1c000000
 3a8:	62696c00 	rsbvs	r6, r9, #0, 24
 3ac:	75702f63 	ldrbvc	r2, [r0, #-3939]!	; 0xf63
 3b0:	632e6b74 	teqvs	lr, #116, 22	; 0x1d000
 3b4:	746e6900 	strbtvc	r6, [lr], #-2304	; 0x900
 3b8:	616e7265 	cmnvs	lr, r5, ror #4
 3bc:	75705f6c 	ldrbvc	r5, [r0, #-3948]!	; 0xf6c
 3c0:	6e006b74 	vmovvs.16	d0[1], r6
 3c4:	705f6765 	subsvc	r6, pc, r5, ror #14
 3c8:	76657200 	strbtvc	r7, [r5], -r0, lsl #4
 3cc:	65737265 	ldrbvs	r7, [r3, #-613]!	; 0x265
 3d0:	64736900 	ldrbtvs	r6, [r3], #-2304	; 0x900
 3d4:	74696769 	strbtvc	r6, [r9], #-1897	; 0x769
 3d8:	74757000 	ldrbtvc	r7, [r5], #-0
 3dc:	70665f73 	rsbvc	r5, r6, r3, ror pc
 3e0:	73616200 	cmnvc	r1, #0, 4
 3e4:	69730065 	ldmdbvs	r3!, {r0, r2, r5, r6}^
 3e8:	64656e67 	strbtvs	r6, [r5], #-3687	; 0xe67
 3ec:	6c00705f 	stcvs	0, cr7, [r0], {95}	; 0x5f
 3f0:	2f636269 	svccs	0x00636269
 3f4:	702d6176 	eorvc	r6, sp, r6, ror r1
 3f8:	746e6972 	strbtvc	r6, [lr], #-2418	; 0x972
 3fc:	00632e6b 	rsbeq	r2, r3, fp, ror #28
 400:	5f697072 	svcpl	0x00697072
 404:	5f746573 	svcpl	0x00746573
 408:	7074756f 	rsbsvc	r7, r4, pc, ror #10
 40c:	77007475 	smlsdxvc	r0, r5, r4, r7
 410:	68746469 	ldmdavs	r4!, {r0, r3, r5, r6, sl, sp, lr}^
 414:	74757000 	ldrbtvc	r7, [r5], #-0
 418:	70665f63 	rsbvc	r5, r6, r3, ror #30
 41c:	696d6500 	stmdbvs	sp!, {r8, sl, sp, lr}^
 420:	69640074 	stmdbvs	r4!, {r2, r4, r5, r6}^
 424:	6c626173 	stfvse	f6, [r2], #-460	; 0xfffffe34
 428:	61635f65 	cmnvs	r3, r5, ror #30
 42c:	00656863 	rsbeq	r6, r5, r3, ror #16
 430:	34317363 	ldrtcc	r7, [r1], #-867	; 0x363
 434:	732d6530 	teqvc	sp, #48, 10	; 0xc000000
 438:	632f6372 	teqvs	pc, #-939524095	; 0xc8000001
 43c:	65686361 	strbvs	r6, [r8, #-865]!	; 0x361
 440:	7200632e 	andvc	r6, r0, #-1207959552	; 0xb8000000
 444:	725f6970 	subsvc	r6, pc, #112, 18	; 0x1c0000
 448:	6f6f6265 	svcvs	0x006f6265
 44c:	73630074 	cmnvc	r3, #116	; 0x74
 450:	65303431 	ldrvs	r3, [r0, #-1073]!	; 0x431
 454:	6372732d 	cmnvs	r2, #-1275068416	; 0xb4000000
 458:	656c632f 	strbvs	r6, [ip, #-815]!	; 0x32f
 45c:	722d6e61 	eorvc	r6, sp, #1552	; 0x610
 460:	6f6f6265 	svcvs	0x006f6265
 464:	00632e74 	rsbeq	r2, r3, r4, ror lr
 468:	65746e69 	ldrbvs	r6, [r4, #-3689]!	; 0xe69
 46c:	6c616e72 	stclvs	14, cr6, [r1], #-456	; 0xfffffe38
 470:	5f77735f 	svcpl	0x0077735f
 474:	63747570 	cmnvs	r4, #112, 10	; 0x1c000000
 478:	00726168 	rsbseq	r6, r2, r8, ror #2
 47c:	73625f5f 	cmnvc	r2, #380	; 0x17c
 480:	74735f73 	ldrbtvc	r5, [r3], #-3955	; 0xf73
 484:	5f747261 	svcpl	0x00747261
 488:	7362005f 	cmnvc	r2, #95	; 0x5f
 48c:	6e655f73 	mcrvs	15, 3, r5, cr5, cr3, {3}
 490:	79630064 	stmdbvc	r3!, {r2, r5, r6}^
 494:	5f656c63 	svcpl	0x00656c63
 498:	5f726570 	svcpl	0x00726570
 49c:	00746962 	rsbseq	r6, r4, r2, ror #18
 4a0:	736e6f63 	cmnvc	lr, #396	; 0x18c
 4a4:	5f656c6f 	svcpl	0x00656c6f
 4a8:	74726175 	ldrbtvc	r6, [r2], #-373	; 0x175
 4ac:	5f777300 	svcpl	0x00777300
 4b0:	74726175 	ldrbtvc	r6, [r2], #-373	; 0x175
 4b4:	6972705f 	ldmdbvs	r2!, {r0, r1, r2, r3, r4, r6, ip, sp, lr}^
 4b8:	006b746e 	rsbeq	r7, fp, lr, ror #8
 4bc:	43545550 	cmpmi	r4, #80, 10	; 0x14000000
 4c0:	5053455f 	subspl	r4, r3, pc, asr r5
 4c4:	5241555f 	subpl	r5, r1, #398458880	; 0x17c00000
 4c8:	77730054 			; <UNDEFINED> instruction: 0x77730054
 4cc:	7261755f 	rsbvc	r7, r1, #398458880	; 0x17c00000
 4d0:	00745f74 	rsbseq	r5, r4, r4, ror pc
 4d4:	43545550 	cmpmi	r4, #80, 10	; 0x14000000
 4d8:	5f57535f 	svcpl	0x0057535f
 4dc:	54524155 	ldrbpl	r4, [r2], #-341	; 0x155
 4e0:	75616200 	strbvc	r6, [r1, #-512]!	; 0x200
 4e4:	55500064 	ldrbpl	r0, [r0, #-100]	; 0x64
 4e8:	485f4354 	ldmdami	pc, {r2, r4, r6, r8, r9, lr}^	; <UNPREDICTABLE>
 4ec:	41555f57 	cmpmi	r5, r7, asr pc
 4f0:	5f005452 	svcpl	0x00005452
 4f4:	61747363 	cmnvs	r4, r3, ror #6
 4f8:	75007472 	strvc	r7, [r0, #-1138]	; 0x472
 4fc:	5f747261 	svcpl	0x00747261
 500:	5f766564 	svcpl	0x00766564
 504:	77730074 			; <UNDEFINED> instruction: 0x77730074
 508:	7261755f 	rsbvc	r7, r1, #398458880	; 0x17c00000
 50c:	75705f74 	ldrbvc	r5, [r0, #-3956]!	; 0xf74
 510:	63006374 	movwvs	r6, #884	; 0x374
 514:	72746e6f 	rsbsvc	r6, r4, #1776	; 0x6f0
 518:	625f6c6f 	subsvs	r6, pc, #28416	; 0x6f00
 51c:	745f6b6c 	ldrbvc	r6, [pc], #-2924	; 524 <_start-0x7adc>
 520:	5f777300 	svcpl	0x00777300
 524:	74726175 	ldrbtvc	r6, [r2], #-373	; 0x175
 528:	5f626300 	svcpl	0x00626300
 52c:	5f746567 	svcpl	0x00746567
 530:	636f6c62 	cmnvs	pc, #25088	; 0x6200
 534:	5f5f006b 	svcpl	0x005f006b
 538:	5f737362 	svcpl	0x00737362
 53c:	5f646e65 	svcpl	0x00646e65
 540:	7363005f 	cmnvc	r3, #95	; 0x5f
 544:	65303431 	ldrvs	r3, [r0, #-1073]!	; 0x431
 548:	6372732d 	cmnvs	r2, #-1275068416	; 0xb4000000
 54c:	7473632f 	ldrbtvc	r6, [r3], #-815	; 0x32f
 550:	2e747261 	cdpcs	2, 7, cr7, cr4, cr1, {3}
 554:	6f630063 	svcvs	0x00630063
 558:	6c6f736e 	stclvs	3, cr7, [pc], #-440	; 3a8 <_start-0x7c58>
 55c:	65645f65 	strbvs	r5, [r4, #-3941]!	; 0xf65
 560:	69750076 	ldmdbvs	r5!, {r1, r2, r4, r5, r6}^
 564:	3233746e 	eorscc	r7, r3, #1845493760	; 0x6e000000
 568:	6d00745f 	cfstrsvs	mvf7, [r0, #-380]	; 0xfffffe84
 56c:	63696761 	cmnvs	r9, #25427968	; 0x1840000
 570:	5f746100 	svcpl	0x00746100
 574:	72657375 	rsbvc	r7, r5, #-738197503	; 0xd4000001
 578:	76656c5f 			; <UNDEFINED> instruction: 0x76656c5f
 57c:	50006c65 	andpl	r6, r0, r5, ror #24
 580:	41505f4d 	cmpmi	r0, sp, asr #30
 584:	4f575353 	svcmi	0x00575353
 588:	63004452 	movwvs	r4, #1106	; 0x452
 58c:	30343173 	eorscc	r3, r4, r3, ror r1
 590:	72732d65 	rsbsvc	r2, r3, #6464	; 0x1940
 594:	65722f63 	ldrbvs	r2, [r2, #-3939]!	; 0xf63
 598:	746f6f62 	strbtvc	r6, [pc], #-3938	; 5a0 <_start-0x7a60>
 59c:	5000632e 	andpl	r6, r0, lr, lsr #6
 5a0:	53525f4d 	cmppl	r2, #308	; 0x134
 5a4:	575f4354 			; <UNDEFINED> instruction: 0x575f4354
 5a8:	47464352 	smlsldmi	r4, r6, r2, r3
 5ac:	4c55465f 	mrrcmi	6, 5, r4, r5, cr15
 5b0:	45525f4c 	ldrbmi	r5, [r2, #-3916]	; 0xf4c
 5b4:	00544553 	subseq	r4, r4, r3, asr r5
 5b8:	575f4d50 			; <UNDEFINED> instruction: 0x575f4d50
 5bc:	00474f44 	subeq	r4, r7, r4, asr #30
 5c0:	5f746573 	svcpl	0x00746573
 5c4:	72657375 	rsbvc	r7, r5, #-738197503	; 0xd4000001
 5c8:	76656c5f 			; <UNDEFINED> instruction: 0x76656c5f
 5cc:	50006c65 	andpl	r6, r0, r5, ror #24
 5d0:	32335455 	eorscc	r5, r3, #1426063360	; 0x55000000
 5d4:	5f4d5000 	svcpl	0x004d5000
 5d8:	43545352 	cmpmi	r4, #1207959553	; 0x48000001
 5dc:	73706300 	cmnvc	r0, #0, 6
 5e0:	69740072 	ldmdbvs	r4!, {r1, r4, r5, r6}^
 5e4:	5f72656d 	svcpl	0x0072656d
 5e8:	5f746567 	svcpl	0x00746567
 5ec:	63657375 	cmnvs	r5, #-738197503	; 0xd4000001
 5f0:	7761725f 			; <UNDEFINED> instruction: 0x7761725f
 5f4:	6c656400 	cfstrdvs	mvd6, [r5], #-0
 5f8:	735f7961 	cmpvc	pc, #1589248	; 0x184000
 5fc:	63006365 	movwvs	r6, #869	; 0x365
 600:	30343173 	eorscc	r3, r4, r3, ror r1
 604:	72732d65 	rsbsvc	r2, r3, #6464	; 0x1940
 608:	69742f63 	ldmdbvs	r4!, {r0, r1, r5, r6, r8, r9, sl, fp, sp}^
 60c:	2e72656d 	cdpcs	5, 7, cr6, cr2, cr13, {3}
 610:	45470063 	strbmi	r0, [r7, #-99]	; 0x63
 614:	00323354 	eorseq	r3, r2, r4, asr r3
 618:	6b636974 	blvs	18dabf0 <__bss_end__+0x18d09d8>
 61c:	65640073 	strbvs	r0, [r4, #-115]!	; 0x73
 620:	5f79616c 	svcpl	0x0079616c
 624:	6c637963 	stclvs	9, cr7, [r3], #-396	; 0xfffffe74
 628:	64007365 	strvs	r7, [r0], #-869	; 0x365
 62c:	79616c65 	stmdbvc	r1!, {r0, r2, r5, r6, sl, fp, sp, lr}^
 630:	0073755f 	rsbseq	r7, r3, pc, asr r5
 634:	656d6974 	strbvs	r6, [sp, #-2420]!	; 0x974
 638:	65675f72 	strbvs	r5, [r7, #-3954]!	; 0xf72
 63c:	73755f74 	cmnvc	r5, #116, 30	; 0x1d0
 640:	67006365 	strvs	r6, [r0, -r5, ror #6]
 644:	5f6f6970 	svcpl	0x006f6970
 648:	6e657665 	cdpvs	6, 6, cr7, cr5, cr5, {3}
 64c:	65645f74 	strbvs	r5, [r4, #-3956]!	; 0xf74
 650:	74636574 	strbtvc	r6, [r3], #-1396	; 0x574
 654:	70006465 	andvc	r6, r0, r5, ror #8
 658:	32337475 	eorscc	r7, r3, #1962934272	; 0x75000000
 65c:	414e4500 	cmpmi	lr, r0, lsl #10
 660:	5f454c42 	svcpl	0x00454c42
 664:	53515249 	cmppl	r1, #-1879048188	; 0x90000004
 668:	6900325f 	stmdbvs	r0, {r0, r1, r2, r3, r4, r6, r9, ip, sp}
 66c:	70675f73 	rsbvc	r5, r7, r3, ror pc
 670:	695f6f69 	ldmdbvs	pc, {r0, r3, r5, r6, r8, r9, sl, fp, sp, lr}^	; <UNPREDICTABLE>
 674:	4700746e 	strmi	r7, [r0, -lr, ror #8]
 678:	5f4f4950 	svcpl	0x004f4950
 67c:	434e5546 	movtmi	r5, #58694	; 0xe546
 680:	504e495f 	subpl	r4, lr, pc, asr r9
 684:	6d005455 	cfstrsvs	mvf5, [r0, #-340]	; 0xfffffeac
 688:	72732d79 	rsbsvc	r2, r3, #7744	; 0x1e40
 68c:	70672f63 	rsbvc	r2, r7, r3, ror #30
 690:	632e6f69 	teqvs	lr, #420	; 0x1a4
 694:	746e6900 	strbtvc	r6, [lr], #-2304	; 0x900
 698:	73616d5f 	cmnvc	r1, #6080	; 0x17c0
 69c:	6572006b 	ldrbvs	r0, [r2, #-107]!	; 0x6b
 6a0:	74735f67 	ldrbtvc	r5, [r3], #-3943	; 0xf67
 6a4:	67007461 	strvs	r7, [r0, -r1, ror #8]
 6a8:	5f6f6970 	svcpl	0x006f6970
 6ac:	00676572 	rsbeq	r6, r7, r2, ror r5
 6b0:	5f766564 	svcpl	0x00766564
 6b4:	72726162 	rsbsvc	r6, r2, #-2147483624	; 0x80000018
 6b8:	00726569 	rsbseq	r6, r2, r9, ror #10
 6bc:	6f697067 	svcvs	0x00697067
 6c0:	6165725f 	cmnvs	r5, pc, asr r2
 6c4:	70670064 	rsbvc	r0, r7, r4, rrx
 6c8:	695f6f69 	ldmdbvs	pc, {r0, r3, r5, r6, r8, r9, sl, fp, sp, lr}^	; <UNPREDICTABLE>
 6cc:	725f746e 	subsvc	r7, pc, #1845493760	; 0x6e000000
 6d0:	6e697369 	cdpvs	3, 6, cr7, cr9, cr9, {3}
 6d4:	64655f67 	strbtvs	r5, [r5], #-3943	; 0xf67
 6d8:	67006567 	strvs	r6, [r0, -r7, ror #10]
 6dc:	5f6f6970 	svcpl	0x006f6970
 6e0:	5f746573 	svcpl	0x00746573
 6e4:	636e7566 	cmnvs	lr, #427819008	; 0x19800000
 6e8:	6e6f6974 	mcrvs	9, 3, r6, cr15, cr4, {3}
 6ec:	52504700 	subspl	r4, r0, #0, 14
 6f0:	00304e45 	eorseq	r4, r0, r5, asr #28
 6f4:	45525047 	ldrbmi	r5, [r2, #-71]	; 0x47
 6f8:	6700314e 	strvs	r3, [r0, -lr, asr #2]
 6fc:	5f6f6970 	svcpl	0x006f6970
 700:	6e657665 	cdpvs	6, 6, cr7, cr5, cr5, {3}
 704:	6c635f74 	stclvs	15, cr5, [r3], #-464	; 0xfffffe30
 708:	00726165 	rsbseq	r6, r2, r5, ror #2
 70c:	5f515249 	svcpl	0x00515249
 710:	444e4550 	strbmi	r4, [lr], #-1360	; 0x550
 714:	5f474e49 	svcpl	0x00474e49
 718:	52490031 	subpl	r0, r9, #49	; 0x31
 71c:	45505f51 	ldrbmi	r5, [r0, #-3921]	; 0xf51
 720:	4e49444e 	cdpmi	4, 4, cr4, cr9, cr14, {2}
 724:	00325f47 	eorseq	r5, r2, r7, asr #30
 728:	6d746962 	ldclvs	9, cr6, [r4, #-392]!	; 0xfffffe78
 72c:	006b7361 	rsbeq	r7, fp, r1, ror #6
 730:	636e7566 	cmnvs	lr, #427819008	; 0x19800000
 734:	69706700 	ldmdbvs	r0!, {r8, r9, sl, sp, lr}^
 738:	6f745f6f 	svcvs	0x00745f6f
 73c:	656c6767 	strbvs	r6, [ip, #-1895]!	; 0x767
 740:	45504700 	ldrbmi	r4, [r0, #-1792]	; 0x700
 744:	00305344 	eorseq	r5, r0, r4, asr #6
 748:	44455047 	strbmi	r5, [r5], #-71	; 0x47
 74c:	47003153 	smlsdmi	r0, r3, r1, r3
 750:	4e454650 	mcrmi	6, 2, r4, cr5, cr0, {2}
 754:	50470030 	subpl	r0, r7, r0, lsr r0
 758:	314e4546 	cmpcc	lr, r6, asr #10
 75c:	49504700 	ldmdbmi	r0, {r8, r9, sl, lr}^
 760:	55465f4f 	strbpl	r5, [r6, #-3919]	; 0xf4f
 764:	4f5f434e 	svcmi	0x005f434e
 768:	55505455 	ldrbpl	r5, [r0, #-1109]	; 0x455
 76c:	65670054 	strbvs	r0, [r7, #-84]!	; 0x54
 770:	00323374 	eorseq	r3, r2, r4, ror r3
 774:	6f697067 	svcvs	0x00697067
 778:	746e695f 	strbtvc	r6, [lr], #-2399	; 0x95f
 77c:	6c61665f 	stclvs	6, cr6, [r1], #-380	; 0xfffffe84
 780:	676e696c 	strbvs	r6, [lr, -ip, ror #18]!
 784:	6764655f 			; <UNDEFINED> instruction: 0x6764655f
 788:	70670065 	rsbvc	r0, r7, r5, rrx
 78c:	665f6f69 	ldrbvs	r6, [pc], -r9, ror #30
 790:	5f636e75 	svcpl	0x00636e75
 794:	50470074 	subpl	r0, r7, r4, ror r0
 798:	465f4f49 	ldrbmi	r4, [pc], -r9, asr #30
 79c:	5f434e55 	svcpl	0x00434e55
 7a0:	30544c41 	subscc	r4, r4, r1, asr #24
 7a4:	49504700 	ldmdbmi	r0, {r8, r9, sl, lr}^
 7a8:	55465f4f 	strbpl	r5, [r6, #-3919]	; 0xf4f
 7ac:	415f434e 	cmpmi	pc, lr, asr #6
 7b0:	0031544c 	eorseq	r5, r1, ip, asr #8
 7b4:	4f495047 	svcmi	0x00495047
 7b8:	4e55465f 	mrcmi	6, 2, r4, cr5, cr15, {2}
 7bc:	4c415f43 	mcrrmi	15, 4, r5, r1, cr3
 7c0:	47003254 	smlsdmi	r0, r4, r2, r3
 7c4:	5f4f4950 	svcpl	0x004f4950
 7c8:	434e5546 	movtmi	r5, #58694	; 0xe546
 7cc:	544c415f 	strbpl	r4, [ip], #-351	; 0x15f
 7d0:	50470033 	subpl	r0, r7, r3, lsr r0
 7d4:	465f4f49 	ldrbmi	r4, [pc], -r9, asr #30
 7d8:	5f434e55 	svcpl	0x00434e55
 7dc:	34544c41 	ldrbcc	r4, [r4], #-3137	; 0xc41
 7e0:	49504700 	ldmdbmi	r0, {r8, r9, sl, lr}^
 7e4:	55465f4f 	strbpl	r5, [r6, #-3919]	; 0xf4f
 7e8:	415f434e 	cmpmi	pc, lr, asr #6
 7ec:	0035544c 	eorseq	r5, r5, ip, asr #8
 7f0:	5f676572 	svcpl	0x00676572
 7f4:	656c6573 	strbvs	r6, [ip, #-1395]!	; 0x573
 7f8:	63007463 	movwvs	r7, #1123	; 0x463
 7fc:	705f6379 	subsvc	r6, pc, r9, ror r3	; <UNPREDICTABLE>
 800:	625f7265 	subsvs	r7, pc, #1342177286	; 0x50000006
 804:	77007469 	strvc	r7, [r0, -r9, ror #8]
 808:	65746972 	ldrbvs	r6, [r4, #-2418]!	; 0x972
 80c:	6379635f 	cmnvs	r9, #2080374785	; 0x7c000001
 810:	746e755f 	strbtvc	r7, [lr], #-1375	; 0x55f
 814:	73006c69 	movwvc	r6, #3177	; 0xc69
 818:	61755f77 	cmnvs	r5, r7, ror pc
 81c:	675f7472 			; <UNDEFINED> instruction: 0x675f7472
 820:	5f637465 	svcpl	0x00637465
 824:	656d6974 	strbvs	r6, [sp, #-2420]!	; 0x974
 828:	0074756f 	rsbseq	r7, r4, pc, ror #10
 82c:	755f7773 	ldrbvc	r7, [pc, #-1907]	; c1 <_start-0x7f3f>
 830:	5f747261 	svcpl	0x00747261
 834:	73746567 	cmnvc	r4, #432013312	; 0x19c00000
 838:	746e755f 	strbtvc	r7, [lr], #-1375	; 0x55f
 83c:	73006c69 	movwvc	r6, #3177	; 0xc69
 840:	61755f77 	cmnvs	r5, r7, ror pc
 844:	675f7472 			; <UNDEFINED> instruction: 0x675f7472
 848:	00637465 	rsbeq	r7, r3, r5, ror #8
 84c:	69726564 	ldmdbvs	r2!, {r2, r5, r6, r8, sl, sp, lr}^
 850:	00646576 	rsbeq	r6, r4, r6, ror r5
 854:	616c6564 	cmnvs	ip, r4, ror #10
 858:	636e5f79 	cmnvs	lr, #484	; 0x1e4
 85c:	656c6379 	strbvs	r6, [ip, #-889]!	; 0x379
 860:	77730073 			; <UNDEFINED> instruction: 0x77730073
 864:	7261755f 	rsbvc	r7, r1, #398458880	; 0x17c00000
 868:	6e695f74 	mcrvs	15, 3, r5, cr9, cr4, {3}
 86c:	685f7469 	ldmdavs	pc, {r0, r3, r5, r6, sl, ip, sp, lr}^	; <UNPREDICTABLE>
 870:	65706c65 	ldrbvs	r6, [r0, #-3173]!	; 0xc65
 874:	69740072 	ldmdbvs	r4!, {r1, r4, r5, r6}^
 878:	756f656d 	strbvc	r6, [pc, #-1389]!	; 313 <_start-0x7ced>
 87c:	73755f74 	cmnvc	r5, #116, 30	; 0x1d0
 880:	73006365 	movwvc	r6, #869	; 0x365
 884:	61755f77 	cmnvs	r5, r7, ror pc
 888:	705f7472 	subsvc	r7, pc, r2, ror r4	; <UNPREDICTABLE>
 88c:	006b7475 	rsbeq	r7, fp, r5, ror r4
 890:	732d796d 	teqvc	sp, #1785856	; 0x1b4000
 894:	732f6372 	teqvc	pc, #-939524095	; 0xc8000001
 898:	61752d77 	cmnvs	r5, r7, ror sp
 89c:	632e7472 	teqvs	lr, #1912602624	; 0x72000000
 8a0:	61686300 	cmnvs	r8, r0, lsl #6
 8a4:	6e695f72 	mcrvs	15, 3, r5, cr9, cr2, {3}
 8a8:	5f777300 	svcpl	0x00777300
 8ac:	74726175 	ldrbtvc	r6, [r2], #-373	; 0x175
 8b0:	7465675f 	strbtvc	r6, [r5], #-1887	; 0x75f
 8b4:	69745f73 	ldmdbvs	r4!, {r0, r1, r4, r5, r6, r8, r9, sl, fp, ip, lr}^
 8b8:	756f656d 	strbvc	r6, [pc, #-1389]!	; 353 <_start-0x7cad>
 8bc:	626e0074 	rsbvs	r0, lr, #116	; 0x74
 8c0:	73657479 	cmnvc	r5, #2030043136	; 0x79000000
 8c4:	65737500 	ldrbvs	r7, [r3, #-1280]!	; 0x500
 8c8:	69745f63 	ldmdbvs	r4!, {r0, r1, r5, r6, r8, r9, sl, fp, ip, lr}^
 8cc:	756f656d 	strbvc	r6, [pc, #-1389]!	; 367 <_start-0x7c99>
 8d0:	77730074 			; <UNDEFINED> instruction: 0x77730074
 8d4:	7261755f 	rsbvc	r7, r1, #398458880	; 0x17c00000
 8d8:	65675f74 	strbvs	r5, [r7, #-3956]!	; 0xf74
 8dc:	755f7374 	ldrbvc	r7, [pc, #-884]	; 570 <_start-0x7a90>
 8e0:	6c69746e 	cfstrdvs	mvd7, [r9], #-440	; 0xfffffe48
 8e4:	6b6c625f 	blvs	1b19268 <__bss_end__+0x1b0f050>
 8e8:	69617700 	stmdbvs	r1!, {r8, r9, sl, ip, sp, lr}^
 8ec:	6e755f74 	mrcvs	15, 3, r5, cr5, cr4, {3}
 8f0:	5f6c6974 	svcpl	0x006c6974
 8f4:	63657375 	cmnvs	r5, #-738197503	; 0xd4000001
 8f8:	58554100 	ldmdapl	r5, {r8, lr}^
 8fc:	5f554d5f 	svcpl	0x00554d5f
 900:	5f52434d 	svcpl	0x0052434d
 904:	00474552 	subeq	r4, r7, r2, asr r5
 908:	5f585541 	svcpl	0x00585541
 90c:	495f554d 	ldmdbmi	pc, {r0, r2, r3, r6, r8, sl, ip, lr}^	; <UNPREDICTABLE>
 910:	45525f4f 	ldrbmi	r5, [r2, #-3919]	; 0xf4f
 914:	55410047 	strbpl	r0, [r1, #-71]	; 0x47
 918:	554d5f58 	strbpl	r5, [sp, #-3928]	; 0xf58
 91c:	52534d5f 	subspl	r4, r3, #6080	; 0x17c0
 920:	4745525f 	smlsldmi	r5, r5, pc, r2	; <UNPREDICTABLE>
 924:	72617500 	rsbvc	r7, r1, #0, 10
 928:	61635f74 	smcvs	13812	; 0x35f4
 92c:	65675f6e 	strbvs	r5, [r7, #-3950]!	; 0xf6e
 930:	41006374 	tstmi	r0, r4, ror r3
 934:	4d5f5855 	ldclmi	8, cr5, [pc, #-340]	; 7e8 <_start-0x7818>
 938:	4e435f55 	mcrmi	15, 2, r5, cr3, cr5, {2}
 93c:	525f4c54 	subspl	r4, pc, #84, 24	; 0x5400
 940:	75004745 	strvc	r4, [r0, #-1861]	; 0x745
 944:	5f747261 	svcpl	0x00747261
 948:	5f736168 	svcpl	0x00736168
 94c:	61746164 	cmnvs	r4, r4, ror #2
 950:	72617500 	rsbvc	r7, r1, #0, 10
 954:	6e695f74 	mcrvs	15, 3, r5, cr9, cr4, {3}
 958:	41007469 	tstmi	r0, r9, ror #8
 95c:	4d5f5855 	ldclmi	8, cr5, [pc, #-340]	; 810 <_start-0x77f0>
 960:	45495f55 	strbmi	r5, [r9, #-3925]	; 0xf55
 964:	45525f52 	ldrbmi	r5, [r2, #-3922]	; 0xf52
 968:	55410047 	strbpl	r0, [r1, #-71]	; 0x47
 96c:	554d5f58 	strbpl	r5, [sp, #-3928]	; 0xf58
 970:	5249495f 	subpl	r4, r9, #1556480	; 0x17c000
 974:	4745525f 	smlsldmi	r5, r5, pc, r2	; <UNPREDICTABLE>
 978:	72617500 	rsbvc	r7, r1, #0, 10
 97c:	61635f74 	smcvs	13812	; 0x35f4
 980:	75705f6e 	ldrbvc	r5, [r0, #-3950]!	; 0xf6e
 984:	41006374 	tstmi	r0, r4, ror r3
 988:	455f5855 	ldrbmi	r5, [pc, #-2133]	; 13b <_start-0x7ec5>
 98c:	4c42414e 	stfmie	f4, [r2], {78}	; 0x4e
 990:	41005345 	tstmi	r0, r5, asr #6
 994:	495f5855 	ldmdbmi	pc, {r0, r2, r4, r6, fp, ip, lr}^	; <UNPREDICTABLE>
 998:	41005152 	tstmi	r0, r2, asr r1
 99c:	4d5f5855 	ldclmi	8, cr5, [pc, #-340]	; 850 <_start-0x77b0>
 9a0:	41425f55 	cmpmi	r2, r5, asr pc
 9a4:	525f4455 	subspl	r4, pc, #1426063360	; 0x55000000
 9a8:	41004745 	tstmi	r0, r5, asr #14
 9ac:	4d5f5855 	ldclmi	8, cr5, [pc, #-340]	; 860 <_start-0x77a0>
 9b0:	54535f55 	ldrbpl	r5, [r3], #-3925	; 0xf55
 9b4:	525f5441 	subspl	r5, pc, #1090519040	; 0x41000000
 9b8:	41004745 	tstmi	r0, r5, asr #14
 9bc:	4d5f5855 	ldclmi	8, cr5, [pc, #-340]	; 870 <_start-0x7790>
 9c0:	43535f55 	cmpmi	r3, #340	; 0x154
 9c4:	43544152 	cmpmi	r4, #-2147483628	; 0x80000014
 9c8:	796d0048 	stmdbvc	sp!, {r3, r6}^
 9cc:	6372732d 	cmnvs	r2, #-1275068416	; 0xb4000000
 9d0:	7261752f 	rsbvc	r7, r1, #197132288	; 0xbc00000
 9d4:	00632e74 	rsbeq	r2, r3, r4, ror lr
 9d8:	5f585541 	svcpl	0x00585541
 9dc:	4c5f554d 	cfldr64mi	mvdx5, [pc], {77}	; 0x4d
 9e0:	525f5243 	subspl	r5, pc, #805306372	; 0x30000004
 9e4:	41004745 	tstmi	r0, r5, asr #14
 9e8:	4d5f5855 	ldclmi	8, cr5, [pc, #-340]	; 89c <_start-0x7764>
 9ec:	534c5f55 	movtpl	r5, #53077	; 0xcf55
 9f0:	45525f52 	ldrbmi	r5, [r2, #-3922]	; 0xf52
 9f4:	61750047 	cmnvs	r5, r7, asr #32
 9f8:	675f7472 			; <UNDEFINED> instruction: 0x675f7472
 9fc:	5f637465 	svcpl	0x00637465
 a00:	6e797361 	cdpvs	3, 7, cr7, cr9, cr1, {3}
 a04:	69730063 	ldmdbvs	r3!, {r0, r1, r5, r6}^
 a08:	745f657a 	ldrbvc	r6, [pc], #-1402	; a10 <_start-0x75f0>
 a0c:	6d656d00 	stclvs	13, cr6, [r5, #-0]
 a10:	00746573 	rsbseq	r6, r4, r3, ror r5
 a14:	6e5f6263 	cdpvs	2, 5, cr6, cr15, cr3, {3}
 a18:	63007765 	movwvs	r7, #1893	; 0x765
 a1c:	30343173 	eorscc	r3, r4, r3, ror r1
 a20:	72732d65 	rsbsvc	r2, r3, #6464	; 0x1940
 a24:	6f632f63 	svcvs	0x00632f63
 a28:	6f72746e 	svcvs	0x0072746e
 a2c:	6c622d6c 	stclvs	13, cr2, [r2], #-432	; 0xfffffe50
 a30:	2e6b636f 	cdpcs	3, 6, cr6, cr11, cr15, {3}
 a34:	696c0063 	stmdbvs	ip!, {r0, r1, r5, r6}^
 a38:	6d2f6362 	stcvs	3, cr6, [pc, #-392]!	; 8b8 <_start-0x7748>
 a3c:	65736d65 	ldrbvs	r6, [r3, #-3429]!	; 0xd65
 a40:	00632e74 	rsbeq	r2, r3, r4, ror lr

Disassembly of section .debug_frame:

00000000 <.debug_frame>:
   0:	0000000c 	andeq	r0, r0, ip
   4:	ffffffff 			; <UNDEFINED> instruction: 0xffffffff
   8:	7c020001 	stcvc	0, cr0, [r2], {1}
   c:	000d0c0e 	andeq	r0, sp, lr, lsl #24
  10:	00000014 	andeq	r0, r0, r4, lsl r0
  14:	00000000 	andeq	r0, r0, r0
  18:	00008010 	andeq	r8, r0, r0, lsl r0
  1c:	00000050 	andeq	r0, r0, r0, asr r0
  20:	84080e44 	strhi	r0, [r8], #-3652	; 0xe44
  24:	00018e02 	andeq	r8, r1, r2, lsl #28
  28:	0000001c 	andeq	r0, r0, ip, lsl r0
  2c:	00000000 	andeq	r0, r0, r0
  30:	00008060 	andeq	r8, r0, r0, rrx
  34:	0000019c 	muleq	r0, ip, r1
  38:	84180e42 	ldrhi	r0, [r8], #-3650	; 0xe42
  3c:	86058506 	strhi	r8, [r5], -r6, lsl #10
  40:	88038704 	stmdahi	r3, {r2, r8, r9, sl, pc}
  44:	00018902 	andeq	r8, r1, r2, lsl #18
  48:	00000018 	andeq	r0, r0, r8, lsl r0
  4c:	00000000 	andeq	r0, r0, r0
  50:	000081fc 	strdeq	r8, [r0], -ip
  54:	0000020c 	andeq	r0, r0, ip, lsl #4
  58:	840c0e42 	strhi	r0, [ip], #-3650	; 0xe42
  5c:	86028503 	strhi	r8, [r2], -r3, lsl #10
  60:	00000001 	andeq	r0, r0, r1
  64:	00000018 	andeq	r0, r0, r8, lsl r0
  68:	00000000 	andeq	r0, r0, r0
  6c:	00008408 	andeq	r8, r0, r8, lsl #8
  70:	00000098 	muleq	r0, r8, r0
  74:	84100e42 	ldrhi	r0, [r0], #-3650	; 0xe42
  78:	86038504 	strhi	r8, [r3], -r4, lsl #10
  7c:	00018e02 	andeq	r8, r1, r2, lsl #28
  80:	0000000c 	andeq	r0, r0, ip
  84:	ffffffff 			; <UNDEFINED> instruction: 0xffffffff
  88:	7c020001 	stcvc	0, cr0, [r2], {1}
  8c:	000d0c0e 	andeq	r0, sp, lr, lsl #24
  90:	00000024 	andeq	r0, r0, r4, lsr #32
  94:	00000080 	andeq	r0, r0, r0, lsl #1
  98:	000084a0 	andeq	r8, r0, r0, lsr #9
  9c:	00000058 	andeq	r0, r0, r8, asr r0
  a0:	80100e42 	andshi	r0, r0, r2, asr #28
  a4:	82038104 	andhi	r8, r3, #4, 2
  a8:	42018302 	andmi	r8, r1, #134217728	; 0x8000000
  ac:	07841c0e 	streq	r1, [r4, lr, lsl #24]
  b0:	058e0685 	streq	r0, [lr, #1669]	; 0x685
  b4:	00280e42 	eoreq	r0, r8, r2, asr #28
  b8:	0000000c 	andeq	r0, r0, ip
  bc:	ffffffff 			; <UNDEFINED> instruction: 0xffffffff
  c0:	7c020001 	stcvc	0, cr0, [r2], {1}
  c4:	000d0c0e 	andeq	r0, sp, lr, lsl #24
  c8:	00000014 	andeq	r0, r0, r4, lsl r0
  cc:	000000b8 	strheq	r0, [r0], -r8
  d0:	000084f8 	strdeq	r8, [r0], -r8	; <UNPREDICTABLE>
  d4:	00000014 	andeq	r0, r0, r4, lsl r0
  d8:	84080e42 	strhi	r0, [r8], #-3650	; 0xe42
  dc:	00018e02 	andeq	r8, r1, r2, lsl #28
  e0:	0000000c 	andeq	r0, r0, ip
  e4:	000000b8 	strheq	r0, [r0], -r8
  e8:	0000850c 	andeq	r8, r0, ip, lsl #10
  ec:	00000018 	andeq	r0, r0, r8, lsl r0
  f0:	0000000c 	andeq	r0, r0, ip
  f4:	000000b8 	strheq	r0, [r0], -r8
  f8:	00008524 	andeq	r8, r0, r4, lsr #10
  fc:	00000010 	andeq	r0, r0, r0, lsl r0
 100:	0000000c 	andeq	r0, r0, ip
 104:	ffffffff 			; <UNDEFINED> instruction: 0xffffffff
 108:	7c020001 	stcvc	0, cr0, [r2], {1}
 10c:	000d0c0e 	andeq	r0, sp, lr, lsl #24
 110:	00000018 	andeq	r0, r0, r8, lsl r0
 114:	00000100 	andeq	r0, r0, r0, lsl #2
 118:	00008534 	andeq	r8, r0, r4, lsr r5
 11c:	00000034 	andeq	r0, r0, r4, lsr r0
 120:	83100e42 	tsthi	r0, #1056	; 0x420
 124:	85038404 	strhi	r8, [r3, #-1028]	; 0x404
 128:	00018e02 	andeq	r8, r1, r2, lsl #28
 12c:	0000000c 	andeq	r0, r0, ip
 130:	ffffffff 			; <UNDEFINED> instruction: 0xffffffff
 134:	7c020001 	stcvc	0, cr0, [r2], {1}
 138:	000d0c0e 	andeq	r0, sp, lr, lsl #24
 13c:	0000000c 	andeq	r0, r0, ip
 140:	0000012c 	andeq	r0, r0, ip, lsr #2
 144:	00008568 	andeq	r8, r0, r8, ror #10
 148:	00000014 	andeq	r0, r0, r4, lsl r0
 14c:	0000000c 	andeq	r0, r0, ip
 150:	0000012c 	andeq	r0, r0, ip, lsr #2
 154:	0000857c 	andeq	r8, r0, ip, ror r5
 158:	0000002c 	andeq	r0, r0, ip, lsr #32
 15c:	0000000c 	andeq	r0, r0, ip
 160:	0000012c 	andeq	r0, r0, ip, lsr #2
 164:	000085a8 	andeq	r8, r0, r8, lsr #11
 168:	00000040 	andeq	r0, r0, r0, asr #32
 16c:	00000020 	andeq	r0, r0, r0, lsr #32
 170:	0000012c 	andeq	r0, r0, ip, lsr #2
 174:	000085e8 	andeq	r8, r0, r8, ror #11
 178:	000001a8 	andeq	r0, r0, r8, lsr #3
 17c:	84180e42 	ldrhi	r0, [r8], #-3650	; 0xe42
 180:	86058506 	strhi	r8, [r5], -r6, lsl #10
 184:	88038704 	stmdahi	r3, {r2, r8, r9, sl, pc}
 188:	42018e02 	andmi	r8, r1, #2, 28
 18c:	0000600e 	andeq	r6, r0, lr
 190:	00000014 	andeq	r0, r0, r4, lsl r0
 194:	0000012c 	andeq	r0, r0, ip, lsr #2
 198:	00008790 	muleq	r0, r0, r7
 19c:	00000068 	andeq	r0, r0, r8, rrx
 1a0:	8e040e42 	cdphi	14, 0, cr0, cr4, cr2, {2}
 1a4:	100e4201 	andne	r4, lr, r1, lsl #4
 1a8:	00000028 	andeq	r0, r0, r8, lsr #32
 1ac:	0000012c 	andeq	r0, r0, ip, lsr #2
 1b0:	000087f8 	strdeq	r8, [r0], -r8	; <UNPREDICTABLE>
 1b4:	00000294 	muleq	r0, r4, r2
 1b8:	84240e42 	strthi	r0, [r4], #-3650	; 0xe42
 1bc:	86088509 	strhi	r8, [r8], -r9, lsl #10
 1c0:	88068707 	stmdahi	r6, {r0, r1, r2, r8, r9, sl, pc}
 1c4:	8a048905 	bhi	1225e0 <__bss_end__+0x1183c8>
 1c8:	8e028b03 	vmlahi.f64	d8, d2, d3
 1cc:	b00e4201 	andlt	r4, lr, r1, lsl #4
 1d0:	00000001 	andeq	r0, r0, r1
 1d4:	0000000c 	andeq	r0, r0, ip
 1d8:	ffffffff 			; <UNDEFINED> instruction: 0xffffffff
 1dc:	7c020001 	stcvc	0, cr0, [r2], {1}
 1e0:	000d0c0e 	andeq	r0, sp, lr, lsl #24
 1e4:	0000000c 	andeq	r0, r0, ip
 1e8:	000001d4 	ldrdeq	r0, [r0], -r4
 1ec:	00008a8c 	andeq	r8, r0, ip, lsl #21
 1f0:	00000010 	andeq	r0, r0, r0, lsl r0
 1f4:	0000000c 	andeq	r0, r0, ip
 1f8:	000001d4 	ldrdeq	r0, [r0], -r4
 1fc:	00008a9c 	muleq	r0, ip, sl
 200:	00000010 	andeq	r0, r0, r0, lsl r0
 204:	0000000c 	andeq	r0, r0, ip
 208:	ffffffff 			; <UNDEFINED> instruction: 0xffffffff
 20c:	7c020001 	stcvc	0, cr0, [r2], {1}
 210:	000d0c0e 	andeq	r0, sp, lr, lsl #24
 214:	00000014 	andeq	r0, r0, r4, lsl r0
 218:	00000204 	andeq	r0, r0, r4, lsl #4
 21c:	00008aac 	andeq	r8, r0, ip, lsr #21
 220:	00000028 	andeq	r0, r0, r8, lsr #32
 224:	83080e42 	movwhi	r0, #36418	; 0x8e42
 228:	00018e02 	andeq	r8, r1, r2, lsl #28
 22c:	0000000c 	andeq	r0, r0, ip
 230:	ffffffff 			; <UNDEFINED> instruction: 0xffffffff
 234:	7c020001 	stcvc	0, cr0, [r2], {1}
 238:	000d0c0e 	andeq	r0, sp, lr, lsl #24
 23c:	00000014 	andeq	r0, r0, r4, lsl r0
 240:	0000022c 	andeq	r0, r0, ip, lsr #4
 244:	00008ad4 	ldrdeq	r8, [r0], -r4
 248:	00000020 	andeq	r0, r0, r0, lsr #32
 24c:	84080e42 	strhi	r0, [r8], #-3650	; 0xe42
 250:	00018e02 	andeq	r8, r1, r2, lsl #28
 254:	00000014 	andeq	r0, r0, r4, lsl r0
 258:	0000022c 	andeq	r0, r0, ip, lsr #4
 25c:	00008af4 	strdeq	r8, [r0], -r4
 260:	00000090 	muleq	r0, r0, r0
 264:	83080e42 	movwhi	r0, #36418	; 0x8e42
 268:	00018e02 	andeq	r8, r1, r2, lsl #28
 26c:	0000000c 	andeq	r0, r0, ip
 270:	ffffffff 			; <UNDEFINED> instruction: 0xffffffff
 274:	7c020001 	stcvc	0, cr0, [r2], {1}
 278:	000d0c0e 	andeq	r0, sp, lr, lsl #24
 27c:	0000000c 	andeq	r0, r0, ip
 280:	0000026c 	andeq	r0, r0, ip, ror #4
 284:	00008b84 	andeq	r8, r0, r4, lsl #23
 288:	00000018 	andeq	r0, r0, r8, lsl r0
 28c:	0000000c 	andeq	r0, r0, ip
 290:	0000026c 	andeq	r0, r0, ip, ror #4
 294:	00008b9c 	muleq	r0, ip, fp
 298:	00000014 	andeq	r0, r0, r4, lsl r0
 29c:	00000014 	andeq	r0, r0, r4, lsl r0
 2a0:	0000026c 	andeq	r0, r0, ip, ror #4
 2a4:	00008bb0 			; <UNDEFINED> instruction: 0x00008bb0
 2a8:	00000048 	andeq	r0, r0, r8, asr #32
 2ac:	83080e42 	movwhi	r0, #36418	; 0x8e42
 2b0:	00018e02 	andeq	r8, r1, r2, lsl #28
 2b4:	0000000c 	andeq	r0, r0, ip
 2b8:	ffffffff 			; <UNDEFINED> instruction: 0xffffffff
 2bc:	7c020001 	stcvc	0, cr0, [r2], {1}
 2c0:	000d0c0e 	andeq	r0, sp, lr, lsl #24
 2c4:	0000000c 	andeq	r0, r0, ip
 2c8:	000002b4 			; <UNDEFINED> instruction: 0x000002b4
 2cc:	00008bf8 	strdeq	r8, [r0], -r8	; <UNPREDICTABLE>
 2d0:	0000001c 	andeq	r0, r0, ip, lsl r0
 2d4:	00000014 	andeq	r0, r0, r4, lsl r0
 2d8:	000002b4 			; <UNDEFINED> instruction: 0x000002b4
 2dc:	00008c14 	andeq	r8, r0, r4, lsl ip
 2e0:	00000014 	andeq	r0, r0, r4, lsl r0
 2e4:	83080e42 	movwhi	r0, #36418	; 0x8e42
 2e8:	00018e02 	andeq	r8, r1, r2, lsl #28
 2ec:	00000014 	andeq	r0, r0, r4, lsl r0
 2f0:	000002b4 			; <UNDEFINED> instruction: 0x000002b4
 2f4:	00008c28 	andeq	r8, r0, r8, lsr #24
 2f8:	0000000c 	andeq	r0, r0, ip
 2fc:	83080e42 	movwhi	r0, #36418	; 0x8e42
 300:	00018e02 	andeq	r8, r1, r2, lsl #28
 304:	00000018 	andeq	r0, r0, r8, lsl r0
 308:	000002b4 			; <UNDEFINED> instruction: 0x000002b4
 30c:	00008c34 	andeq	r8, r0, r4, lsr ip
 310:	00000024 	andeq	r0, r0, r4, lsr #32
 314:	83100e42 	tsthi	r0, #1056	; 0x420
 318:	85038404 	strhi	r8, [r3, #-1028]	; 0x404
 31c:	00018e02 	andeq	r8, r1, r2, lsl #28
 320:	00000014 	andeq	r0, r0, r4, lsl r0
 324:	000002b4 			; <UNDEFINED> instruction: 0x000002b4
 328:	00008c58 	andeq	r8, r0, r8, asr ip
 32c:	00000014 	andeq	r0, r0, r4, lsl r0
 330:	83080e42 	movwhi	r0, #36418	; 0x8e42
 334:	00018e02 	andeq	r8, r1, r2, lsl #28
 338:	00000014 	andeq	r0, r0, r4, lsl r0
 33c:	000002b4 			; <UNDEFINED> instruction: 0x000002b4
 340:	00008c6c 	andeq	r8, r0, ip, ror #24
 344:	00000014 	andeq	r0, r0, r4, lsl r0
 348:	83080e42 	movwhi	r0, #36418	; 0x8e42
 34c:	00018e02 	andeq	r8, r1, r2, lsl #28
 350:	0000000c 	andeq	r0, r0, ip
 354:	ffffffff 			; <UNDEFINED> instruction: 0xffffffff
 358:	7c020001 	stcvc	0, cr0, [r2], {1}
 35c:	000d0c0e 	andeq	r0, sp, lr, lsl #24
 360:	00000018 	andeq	r0, r0, r8, lsl r0
 364:	00000350 	andeq	r0, r0, r0, asr r3
 368:	00008c80 	andeq	r8, r0, r0, lsl #25
 36c:	000000d4 	ldrdeq	r0, [r0], -r4
 370:	83100e42 	tsthi	r0, #1056	; 0x420
 374:	85038404 	strhi	r8, [r3, #-1028]	; 0x404
 378:	00018e02 	andeq	r8, r1, r2, lsl #28
 37c:	00000014 	andeq	r0, r0, r4, lsl r0
 380:	00000350 	andeq	r0, r0, r0, asr r3
 384:	00008d54 	andeq	r8, r0, r4, asr sp
 388:	00000038 	andeq	r0, r0, r8, lsr r0
 38c:	83080e42 	movwhi	r0, #36418	; 0x8e42
 390:	00018e02 	andeq	r8, r1, r2, lsl #28
 394:	00000014 	andeq	r0, r0, r4, lsl r0
 398:	00000350 	andeq	r0, r0, r0, asr r3
 39c:	00008d8c 	andeq	r8, r0, ip, lsl #27
 3a0:	00000038 	andeq	r0, r0, r8, lsr r0
 3a4:	83080e42 	movwhi	r0, #36418	; 0x8e42
 3a8:	00018e02 	andeq	r8, r1, r2, lsl #28
 3ac:	00000018 	andeq	r0, r0, r8, lsl r0
 3b0:	00000350 	andeq	r0, r0, r0, asr r3
 3b4:	00008dc4 	andeq	r8, r0, r4, asr #27
 3b8:	000000cc 	andeq	r0, r0, ip, asr #1
 3bc:	83100e42 	tsthi	r0, #1056	; 0x420
 3c0:	85038404 	strhi	r8, [r3, #-1028]	; 0x404
 3c4:	00018e02 	andeq	r8, r1, r2, lsl #28
 3c8:	00000014 	andeq	r0, r0, r4, lsl r0
 3cc:	00000350 	andeq	r0, r0, r0, asr r3
 3d0:	00008e90 	muleq	r0, r0, lr
 3d4:	0000004c 	andeq	r0, r0, ip, asr #32
 3d8:	84080e42 	strhi	r0, [r8], #-3650	; 0xe42
 3dc:	00018e02 	andeq	r8, r1, r2, lsl #28
 3e0:	00000014 	andeq	r0, r0, r4, lsl r0
 3e4:	00000350 	andeq	r0, r0, r0, asr r3
 3e8:	00008edc 	ldrdeq	r8, [r0], -ip
 3ec:	00000024 	andeq	r0, r0, r4, lsr #32
 3f0:	83080e42 	movwhi	r0, #36418	; 0x8e42
 3f4:	00018e02 	andeq	r8, r1, r2, lsl #28
 3f8:	00000018 	andeq	r0, r0, r8, lsl r0
 3fc:	00000350 	andeq	r0, r0, r0, asr r3
 400:	00008f00 	andeq	r8, r0, r0, lsl #30
 404:	000000d8 	ldrdeq	r0, [r0], -r8
 408:	84100e42 	ldrhi	r0, [r0], #-3650	; 0xe42
 40c:	86038504 	strhi	r8, [r3], -r4, lsl #10
 410:	00018e02 	andeq	r8, r1, r2, lsl #28
 414:	00000014 	andeq	r0, r0, r4, lsl r0
 418:	00000350 	andeq	r0, r0, r0, asr r3
 41c:	00008fd8 	ldrdeq	r8, [r0], -r8	; <UNPREDICTABLE>
 420:	00000038 	andeq	r0, r0, r8, lsr r0
 424:	83080e42 	movwhi	r0, #36418	; 0x8e42
 428:	00018e02 	andeq	r8, r1, r2, lsl #28
 42c:	00000014 	andeq	r0, r0, r4, lsl r0
 430:	00000350 	andeq	r0, r0, r0, asr r3
 434:	00009010 	andeq	r9, r0, r0, lsl r0
 438:	0000002c 	andeq	r0, r0, ip, lsr #32
 43c:	83080e42 	movwhi	r0, #36418	; 0x8e42
 440:	00018e02 	andeq	r8, r1, r2, lsl #28
 444:	00000018 	andeq	r0, r0, r8, lsl r0
 448:	00000350 	andeq	r0, r0, r0, asr r3
 44c:	0000903c 	andeq	r9, r0, ip, lsr r0
 450:	00000084 	andeq	r0, r0, r4, lsl #1
 454:	83100e42 	tsthi	r0, #1056	; 0x420
 458:	85038404 	strhi	r8, [r3, #-1028]	; 0x404
 45c:	00018e02 	andeq	r8, r1, r2, lsl #28
 460:	00000018 	andeq	r0, r0, r8, lsl r0
 464:	00000350 	andeq	r0, r0, r0, asr r3
 468:	000090c0 	andeq	r9, r0, r0, asr #1
 46c:	00000084 	andeq	r0, r0, r4, lsl #1
 470:	83100e42 	tsthi	r0, #1056	; 0x420
 474:	85038404 	strhi	r8, [r3, #-1028]	; 0x404
 478:	00018e02 	andeq	r8, r1, r2, lsl #28
 47c:	00000014 	andeq	r0, r0, r4, lsl r0
 480:	00000350 	andeq	r0, r0, r0, asr r3
 484:	00009144 	andeq	r9, r0, r4, asr #2
 488:	00000084 	andeq	r0, r0, r4, lsl #1
 48c:	84080e42 	strhi	r0, [r8], #-3650	; 0xe42
 490:	00018e02 	andeq	r8, r1, r2, lsl #28
 494:	00000014 	andeq	r0, r0, r4, lsl r0
 498:	00000350 	andeq	r0, r0, r0, asr r3
 49c:	000091c8 	andeq	r9, r0, r8, asr #3
 4a0:	00000058 	andeq	r0, r0, r8, asr r0
 4a4:	84080e42 	strhi	r0, [r8], #-3650	; 0xe42
 4a8:	00018e02 	andeq	r8, r1, r2, lsl #28
 4ac:	0000000c 	andeq	r0, r0, ip
 4b0:	ffffffff 			; <UNDEFINED> instruction: 0xffffffff
 4b4:	7c020001 	stcvc	0, cr0, [r2], {1}
 4b8:	000d0c0e 	andeq	r0, sp, lr, lsl #24
 4bc:	0000001c 	andeq	r0, r0, ip, lsl r0
 4c0:	000004ac 	andeq	r0, r0, ip, lsr #9
 4c4:	00009220 	andeq	r9, r0, r0, lsr #4
 4c8:	00000154 	andeq	r0, r0, r4, asr r1
 4cc:	84180e42 	ldrhi	r0, [r8], #-3650	; 0xe42
 4d0:	86058506 	strhi	r8, [r5], -r6, lsl #10
 4d4:	88038704 	stmdahi	r3, {r2, r8, r9, sl, pc}
 4d8:	00018e02 	andeq	r8, r1, r2, lsl #28
 4dc:	00000020 	andeq	r0, r0, r0, lsr #32
 4e0:	000004ac 	andeq	r0, r0, ip, lsr #9
 4e4:	00009374 	andeq	r9, r0, r4, ror r3
 4e8:	000001c8 	andeq	r0, r0, r8, asr #3
 4ec:	83200e42 	teqhi	r0, #1056	; 0x420
 4f0:	85078408 	strhi	r8, [r7, #-1032]	; 0x408
 4f4:	87058606 	strhi	r8, [r5, -r6, lsl #12]
 4f8:	89038804 	stmdbhi	r3, {r2, fp, pc}
 4fc:	00018e02 	andeq	r8, r1, r2, lsl #28
 500:	00000024 	andeq	r0, r0, r4, lsr #32
 504:	000004ac 	andeq	r0, r0, ip, lsr #9
 508:	0000953c 	andeq	r9, r0, ip, lsr r5
 50c:	000000a4 	andeq	r0, r0, r4, lsr #1
 510:	84200e42 	strthi	r0, [r0], #-3650	; 0xe42
 514:	86078508 	strhi	r8, [r7], -r8, lsl #10
 518:	88058706 	stmdahi	r5, {r1, r2, r8, r9, sl, pc}
 51c:	8a038904 	bhi	e2934 <__bss_end__+0xd871c>
 520:	42018e02 	andmi	r8, r1, #2, 28
 524:	0000280e 	andeq	r2, r0, lr, lsl #16
 528:	00000020 	andeq	r0, r0, r0, lsr #32
 52c:	000004ac 	andeq	r0, r0, ip, lsr #9
 530:	000095e0 	andeq	r9, r0, r0, ror #11
 534:	00000090 	muleq	r0, r0, r0
 538:	84180e42 	ldrhi	r0, [r8], #-3650	; 0xe42
 53c:	86058506 	strhi	r8, [r5], -r6, lsl #10
 540:	88038704 	stmdahi	r3, {r2, r8, r9, sl, pc}
 544:	42018e02 	andmi	r8, r1, #2, 28
 548:	0000200e 	andeq	r2, r0, lr
 54c:	00000020 	andeq	r0, r0, r0, lsr #32
 550:	000004ac 	andeq	r0, r0, ip, lsr #9
 554:	00009670 	andeq	r9, r0, r0, ror r6
 558:	000000d4 	ldrdeq	r0, [r0], -r4
 55c:	84180e42 	ldrhi	r0, [r8], #-3650	; 0xe42
 560:	86058506 	strhi	r8, [r5], -r6, lsl #10
 564:	88038704 	stmdahi	r3, {r2, r8, r9, sl, pc}
 568:	42018e02 	andmi	r8, r1, #2, 28
 56c:	0000200e 	andeq	r2, r0, lr
 570:	00000014 	andeq	r0, r0, r4, lsl r0
 574:	000004ac 	andeq	r0, r0, ip, lsr #9
 578:	00009744 	andeq	r9, r0, r4, asr #14
 57c:	0000003c 	andeq	r0, r0, ip, lsr r0
 580:	83080e42 	movwhi	r0, #36418	; 0x8e42
 584:	00018e02 	andeq	r8, r1, r2, lsl #28
 588:	00000018 	andeq	r0, r0, r8, lsl r0
 58c:	000004ac 	andeq	r0, r0, ip, lsr #9
 590:	00009780 	andeq	r9, r0, r0, lsl #15
 594:	0000002c 	andeq	r0, r0, ip, lsr #32
 598:	83100e42 	tsthi	r0, #1056	; 0x420
 59c:	85038404 	strhi	r8, [r3, #-1028]	; 0x404
 5a0:	00018e02 	andeq	r8, r1, r2, lsl #28
 5a4:	00000024 	andeq	r0, r0, r4, lsr #32
 5a8:	000004ac 	andeq	r0, r0, ip, lsr #9
 5ac:	000097ac 	andeq	r9, r0, ip, lsr #15
 5b0:	00000090 	muleq	r0, r0, r0
 5b4:	810c0e42 	tsthi	ip, r2, asr #28
 5b8:	83028203 	movwhi	r8, #8707	; 0x2203
 5bc:	180e4201 	stmdane	lr, {r0, r9, lr}
 5c0:	05850684 	streq	r0, [r5, #1668]	; 0x684
 5c4:	0e42048e 	cdpeq	4, 4, cr0, cr2, cr14, {4}
 5c8:	000003f0 	strdeq	r0, [r0], -r0	; <UNPREDICTABLE>
 5cc:	00000014 	andeq	r0, r0, r4, lsl r0
 5d0:	000004ac 	andeq	r0, r0, ip, lsr #9
 5d4:	0000983c 	andeq	r9, r0, ip, lsr r8
 5d8:	0000004c 	andeq	r0, r0, ip, asr #32
 5dc:	8e040e42 	cdphi	14, 0, cr0, cr4, cr2, {2}
 5e0:	100e4201 	andne	r4, lr, r1, lsl #4
 5e4:	0000000c 	andeq	r0, r0, ip
 5e8:	ffffffff 			; <UNDEFINED> instruction: 0xffffffff
 5ec:	7c020001 	stcvc	0, cr0, [r2], {1}
 5f0:	000d0c0e 	andeq	r0, sp, lr, lsl #24
 5f4:	00000018 	andeq	r0, r0, r8, lsl r0
 5f8:	000005e4 	andeq	r0, r0, r4, ror #11
 5fc:	00009888 	andeq	r9, r0, r8, lsl #17
 600:	0000009c 	muleq	r0, ip, r0
 604:	83100e42 	tsthi	r0, #1056	; 0x420
 608:	85038404 	strhi	r8, [r3, #-1028]	; 0x404
 60c:	00018e02 	andeq	r8, r1, r2, lsl #28
 610:	00000014 	andeq	r0, r0, r4, lsl r0
 614:	000005e4 	andeq	r0, r0, r4, ror #11
 618:	00009924 	andeq	r9, r0, r4, lsr #18
 61c:	0000001c 	andeq	r0, r0, ip, lsl r0
 620:	83080e42 	movwhi	r0, #36418	; 0x8e42
 624:	00018e02 	andeq	r8, r1, r2, lsl #28
 628:	00000014 	andeq	r0, r0, r4, lsl r0
 62c:	000005e4 	andeq	r0, r0, r4, ror #11
 630:	00009940 	andeq	r9, r0, r0, asr #18
 634:	00000028 	andeq	r0, r0, r8, lsr #32
 638:	83080e42 	movwhi	r0, #36418	; 0x8e42
 63c:	00018e02 	andeq	r8, r1, r2, lsl #28
 640:	00000014 	andeq	r0, r0, r4, lsl r0
 644:	000005e4 	andeq	r0, r0, r4, ror #11
 648:	00009968 	andeq	r9, r0, r8, ror #18
 64c:	0000001c 	andeq	r0, r0, ip, lsl r0
 650:	83080e42 	movwhi	r0, #36418	; 0x8e42
 654:	00018e02 	andeq	r8, r1, r2, lsl #28
 658:	00000014 	andeq	r0, r0, r4, lsl r0
 65c:	000005e4 	andeq	r0, r0, r4, ror #11
 660:	00009984 	andeq	r9, r0, r4, lsl #19
 664:	0000002c 	andeq	r0, r0, ip, lsr #32
 668:	84080e42 	strhi	r0, [r8], #-3650	; 0xe42
 66c:	00018e02 	andeq	r8, r1, r2, lsl #28
 670:	00000014 	andeq	r0, r0, r4, lsl r0
 674:	000005e4 	andeq	r0, r0, r4, ror #11
 678:	000099b0 			; <UNDEFINED> instruction: 0x000099b0
 67c:	0000000c 	andeq	r0, r0, ip
 680:	83080e42 	movwhi	r0, #36418	; 0x8e42
 684:	00018e02 	andeq	r8, r1, r2, lsl #28
 688:	00000014 	andeq	r0, r0, r4, lsl r0
 68c:	000005e4 	andeq	r0, r0, r4, ror #11
 690:	000099bc 			; <UNDEFINED> instruction: 0x000099bc
 694:	00000020 	andeq	r0, r0, r0, lsr #32
 698:	83080e42 	movwhi	r0, #36418	; 0x8e42
 69c:	00018e02 	andeq	r8, r1, r2, lsl #28
 6a0:	0000000c 	andeq	r0, r0, ip
 6a4:	ffffffff 			; <UNDEFINED> instruction: 0xffffffff
 6a8:	7c020001 	stcvc	0, cr0, [r2], {1}
 6ac:	000d0c0e 	andeq	r0, sp, lr, lsl #24
 6b0:	00000014 	andeq	r0, r0, r4, lsl r0
 6b4:	000006a0 	andeq	r0, r0, r0, lsr #13
 6b8:	00009a40 	andeq	r9, r0, r0, asr #20
 6bc:	00000028 	andeq	r0, r0, r8, lsr #32
 6c0:	83080e42 	movwhi	r0, #36418	; 0x8e42
 6c4:	00018e02 	andeq	r8, r1, r2, lsl #28
 6c8:	0000000c 	andeq	r0, r0, ip
 6cc:	000006a0 	andeq	r0, r0, r0, lsr #13
 6d0:	00009a68 	andeq	r9, r0, r8, ror #20
 6d4:	00000028 	andeq	r0, r0, r8, lsr #32
 6d8:	0000000c 	andeq	r0, r0, ip
 6dc:	ffffffff 			; <UNDEFINED> instruction: 0xffffffff
 6e0:	7c020001 	stcvc	0, cr0, [r2], {1}
 6e4:	000d0c0e 	andeq	r0, sp, lr, lsl #24
 6e8:	0000000c 	andeq	r0, r0, ip
 6ec:	000006d8 	ldrdeq	r0, [r0], -r8
 6f0:	00009a90 	muleq	r0, r0, sl
 6f4:	00000020 	andeq	r0, r0, r0, lsr #32
