
scope.elf:     file format elf32-littlearm


Disassembly of section .text:

00008000 <_start>:
    8000:	e3a0d302 	mov	sp, #134217728	; 0x8000000
    8004:	e3a0b000 	mov	fp, #0
    8008:	eb000343 	bl	8d1c <_cstart>
    800c:	eb000371 	bl	8dd8 <rpi_reboot>

00008010 <scope.constprop.3>:
    8010:	e92d03f0 	push	{r4, r5, r6, r7, r8, r9}
    8014:	e59f2168 	ldr	r2, [pc, #360]	; 8184 <scope.constprop.3+0x174>
    8018:	e5923034 	ldr	r3, [r2, #52]	; 0x34
    801c:	e3130601 	tst	r3, #1048576	; 0x100000
    8020:	1afffffc 	bne	8018 <scope.constprop.3+0x8>
    8024:	ee1f3f3c 	mrc	15, 0, r3, cr15, cr12, {1}
    8028:	e59f1158 	ldr	r1, [pc, #344]	; 8188 <scope.constprop.3+0x178>
    802c:	ee1f2f3c 	mrc	15, 0, r2, cr15, cr12, {1}
    8030:	e0632002 	rsb	r2, r3, r2
    8034:	e1520001 	cmp	r2, r1
    8038:	9afffffb 	bls	802c <scope.constprop.3+0x1c>
    803c:	e59f2140 	ldr	r2, [pc, #320]	; 8184 <scope.constprop.3+0x174>
    8040:	e59f1144 	ldr	r1, [pc, #324]	; 818c <scope.constprop.3+0x17c>
    8044:	e5924034 	ldr	r4, [r2, #52]	; 0x34
    8048:	e2044601 	and	r4, r4, #1048576	; 0x100000
    804c:	e1a04a24 	lsr	r4, r4, #20
    8050:	ee1f2f3c 	mrc	15, 0, r2, cr15, cr12, {1}
    8054:	e0632002 	rsb	r2, r3, r2
    8058:	e1520001 	cmp	r2, r1
    805c:	9afffffb 	bls	8050 <scope.constprop.3+0x40>
    8060:	e59f211c 	ldr	r2, [pc, #284]	; 8184 <scope.constprop.3+0x174>
    8064:	e59f1124 	ldr	r1, [pc, #292]	; 8190 <scope.constprop.3+0x180>
    8068:	e5925034 	ldr	r5, [r2, #52]	; 0x34
    806c:	e2055601 	and	r5, r5, #1048576	; 0x100000
    8070:	e1a05a25 	lsr	r5, r5, #20
    8074:	ee1f2f3c 	mrc	15, 0, r2, cr15, cr12, {1}
    8078:	e0632002 	rsb	r2, r3, r2
    807c:	e1520001 	cmp	r2, r1
    8080:	9afffffb 	bls	8074 <scope.constprop.3+0x64>
    8084:	e59f20f8 	ldr	r2, [pc, #248]	; 8184 <scope.constprop.3+0x174>
    8088:	e59f1104 	ldr	r1, [pc, #260]	; 8194 <scope.constprop.3+0x184>
    808c:	e5926034 	ldr	r6, [r2, #52]	; 0x34
    8090:	e2066601 	and	r6, r6, #1048576	; 0x100000
    8094:	e1a06a26 	lsr	r6, r6, #20
    8098:	ee1f2f3c 	mrc	15, 0, r2, cr15, cr12, {1}
    809c:	e0632002 	rsb	r2, r3, r2
    80a0:	e1520001 	cmp	r2, r1
    80a4:	9afffffb 	bls	8098 <scope.constprop.3+0x88>
    80a8:	e59f20d4 	ldr	r2, [pc, #212]	; 8184 <scope.constprop.3+0x174>
    80ac:	e59f10e4 	ldr	r1, [pc, #228]	; 8198 <scope.constprop.3+0x188>
    80b0:	e592c034 	ldr	ip, [r2, #52]	; 0x34
    80b4:	e20cc601 	and	ip, ip, #1048576	; 0x100000
    80b8:	e1a0ca2c 	lsr	ip, ip, #20
    80bc:	ee1f2f3c 	mrc	15, 0, r2, cr15, cr12, {1}
    80c0:	e0632002 	rsb	r2, r3, r2
    80c4:	e1520001 	cmp	r2, r1
    80c8:	9afffffb 	bls	80bc <scope.constprop.3+0xac>
    80cc:	e59f20b0 	ldr	r2, [pc, #176]	; 8184 <scope.constprop.3+0x174>
    80d0:	e59f00c4 	ldr	r0, [pc, #196]	; 819c <scope.constprop.3+0x18c>
    80d4:	e5921034 	ldr	r1, [r2, #52]	; 0x34
    80d8:	e2011601 	and	r1, r1, #1048576	; 0x100000
    80dc:	e1a01a21 	lsr	r1, r1, #20
    80e0:	ee1f2f3c 	mrc	15, 0, r2, cr15, cr12, {1}
    80e4:	e0632002 	rsb	r2, r3, r2
    80e8:	e1520000 	cmp	r2, r0
    80ec:	9afffffb 	bls	80e0 <scope.constprop.3+0xd0>
    80f0:	e59f208c 	ldr	r2, [pc, #140]	; 8184 <scope.constprop.3+0x174>
    80f4:	e59f00a4 	ldr	r0, [pc, #164]	; 81a0 <scope.constprop.3+0x190>
    80f8:	e5927034 	ldr	r7, [r2, #52]	; 0x34
    80fc:	e2077601 	and	r7, r7, #1048576	; 0x100000
    8100:	e1a07a27 	lsr	r7, r7, #20
    8104:	ee1f2f3c 	mrc	15, 0, r2, cr15, cr12, {1}
    8108:	e0632002 	rsb	r2, r3, r2
    810c:	e1520000 	cmp	r2, r0
    8110:	9afffffb 	bls	8104 <scope.constprop.3+0xf4>
    8114:	e59f2068 	ldr	r2, [pc, #104]	; 8184 <scope.constprop.3+0x174>
    8118:	e59f0084 	ldr	r0, [pc, #132]	; 81a4 <scope.constprop.3+0x194>
    811c:	e5929034 	ldr	r9, [r2, #52]	; 0x34
    8120:	e2099601 	and	r9, r9, #1048576	; 0x100000
    8124:	e1a09a29 	lsr	r9, r9, #20
    8128:	ee1f2f3c 	mrc	15, 0, r2, cr15, cr12, {1}
    812c:	e0632002 	rsb	r2, r3, r2
    8130:	e1520000 	cmp	r2, r0
    8134:	9afffffb 	bls	8128 <scope.constprop.3+0x118>
    8138:	e59f2044 	ldr	r2, [pc, #68]	; 8184 <scope.constprop.3+0x174>
    813c:	e59f8064 	ldr	r8, [pc, #100]	; 81a8 <scope.constprop.3+0x198>
    8140:	e5920034 	ldr	r0, [r2, #52]	; 0x34
    8144:	e2000601 	and	r0, r0, #1048576	; 0x100000
    8148:	e1a00a20 	lsr	r0, r0, #20
    814c:	ee1f2f3c 	mrc	15, 0, r2, cr15, cr12, {1}
    8150:	e0632002 	rsb	r2, r3, r2
    8154:	e1520008 	cmp	r2, r8
    8158:	9afffffb 	bls	814c <scope.constprop.3+0x13c>
    815c:	e1a06106 	lsl	r6, r6, #2
    8160:	e1865085 	orr	r5, r6, r5, lsl #1
    8164:	e1854004 	orr	r4, r5, r4
    8168:	e184c18c 	orr	ip, r4, ip, lsl #3
    816c:	e18c1201 	orr	r1, ip, r1, lsl #4
    8170:	e1817287 	orr	r7, r1, r7, lsl #5
    8174:	e1879309 	orr	r9, r7, r9, lsl #6
    8178:	e1890380 	orr	r0, r9, r0, lsl #7
    817c:	e8bd03f0 	pop	{r4, r5, r6, r7, r8, r9}
    8180:	e12fff1e 	bx	lr
    8184:	20200000 	eorcs	r0, r0, r0
    8188:	00002399 	muleq	r0, r9, r3
    818c:	00002f77 	andeq	r2, r0, r7, ror pc
    8190:	00004733 	andeq	r4, r0, r3, lsr r7
    8194:	00005eef 	andeq	r5, r0, pc, ror #29
    8198:	000076ab 	andeq	r7, r0, fp, lsr #13
    819c:	00008e67 	andeq	r8, r0, r7, ror #28
    81a0:	0000a623 	andeq	sl, r0, r3, lsr #12
    81a4:	0000bddf 	ldrdeq	fp, [r0], -pc	; <UNPREDICTABLE>
    81a8:	0000d59b 	muleq	r0, fp, r5

000081ac <cycles_per_sec>:
    81ac:	e3500001 	cmp	r0, #1
    81b0:	e92d4010 	push	{r4, lr}
    81b4:	8a000006 	bhi	81d4 <cycles_per_sec+0x28>
    81b8:	ee1f4f3c 	mrc	15, 0, r4, cr15, cr12, {1}
    81bc:	e3a03ffa 	mov	r3, #1000	; 0x3e8
    81c0:	e0000093 	mul	r0, r3, r0
    81c4:	eb00032d 	bl	8e80 <delay_ms>
    81c8:	ee1f0f3c 	mrc	15, 0, r0, cr15, cr12, {1}
    81cc:	e0640000 	rsb	r0, r4, r0
    81d0:	e8bd8010 	pop	{r4, pc}
    81d4:	eb000156 	bl	8734 <rpi_reset_putc>
    81d8:	e59f1010 	ldr	r1, [pc, #16]	; 81f0 <cycles_per_sec+0x44>
    81dc:	e59f2010 	ldr	r2, [pc, #16]	; 81f4 <cycles_per_sec+0x48>
    81e0:	e3a0303a 	mov	r3, #58	; 0x3a
    81e4:	e59f000c 	ldr	r0, [pc, #12]	; 81f8 <cycles_per_sec+0x4c>
    81e8:	eb000136 	bl	86c8 <printk>
    81ec:	eb0002b8 	bl	8cd4 <clean_reboot>
    81f0:	00009db4 			; <UNDEFINED> instruction: 0x00009db4
    81f4:	00009d74 	andeq	r9, r0, r4, ror sp
    81f8:	00009d84 	andeq	r9, r0, r4, lsl #27

000081fc <scope>:
    81fc:	e92d03f0 	push	{r4, r5, r6, r7, r8, r9}
    8200:	e59f2168 	ldr	r2, [pc, #360]	; 8370 <scope+0x174>
    8204:	e5923034 	ldr	r3, [r2, #52]	; 0x34
    8208:	e3130601 	tst	r3, #1048576	; 0x100000
    820c:	1afffffc 	bne	8204 <scope+0x8>
    8210:	ee1f3f3c 	mrc	15, 0, r3, cr15, cr12, {1}
    8214:	e59f1158 	ldr	r1, [pc, #344]	; 8374 <scope+0x178>
    8218:	ee1f2f3c 	mrc	15, 0, r2, cr15, cr12, {1}
    821c:	e0632002 	rsb	r2, r3, r2
    8220:	e1520001 	cmp	r2, r1
    8224:	9afffffb 	bls	8218 <scope+0x1c>
    8228:	e59f2140 	ldr	r2, [pc, #320]	; 8370 <scope+0x174>
    822c:	e59f1144 	ldr	r1, [pc, #324]	; 8378 <scope+0x17c>
    8230:	e5924034 	ldr	r4, [r2, #52]	; 0x34
    8234:	e2044601 	and	r4, r4, #1048576	; 0x100000
    8238:	e1a04a24 	lsr	r4, r4, #20
    823c:	ee1f2f3c 	mrc	15, 0, r2, cr15, cr12, {1}
    8240:	e0632002 	rsb	r2, r3, r2
    8244:	e1520001 	cmp	r2, r1
    8248:	9afffffb 	bls	823c <scope+0x40>
    824c:	e59f211c 	ldr	r2, [pc, #284]	; 8370 <scope+0x174>
    8250:	e59f1124 	ldr	r1, [pc, #292]	; 837c <scope+0x180>
    8254:	e5925034 	ldr	r5, [r2, #52]	; 0x34
    8258:	e2055601 	and	r5, r5, #1048576	; 0x100000
    825c:	e1a05a25 	lsr	r5, r5, #20
    8260:	ee1f2f3c 	mrc	15, 0, r2, cr15, cr12, {1}
    8264:	e0632002 	rsb	r2, r3, r2
    8268:	e1520001 	cmp	r2, r1
    826c:	9afffffb 	bls	8260 <scope+0x64>
    8270:	e59f20f8 	ldr	r2, [pc, #248]	; 8370 <scope+0x174>
    8274:	e59f1104 	ldr	r1, [pc, #260]	; 8380 <scope+0x184>
    8278:	e5926034 	ldr	r6, [r2, #52]	; 0x34
    827c:	e2066601 	and	r6, r6, #1048576	; 0x100000
    8280:	e1a06a26 	lsr	r6, r6, #20
    8284:	ee1f2f3c 	mrc	15, 0, r2, cr15, cr12, {1}
    8288:	e0632002 	rsb	r2, r3, r2
    828c:	e1520001 	cmp	r2, r1
    8290:	9afffffb 	bls	8284 <scope+0x88>
    8294:	e59f20d4 	ldr	r2, [pc, #212]	; 8370 <scope+0x174>
    8298:	e59f10e4 	ldr	r1, [pc, #228]	; 8384 <scope+0x188>
    829c:	e592c034 	ldr	ip, [r2, #52]	; 0x34
    82a0:	e20cc601 	and	ip, ip, #1048576	; 0x100000
    82a4:	e1a0ca2c 	lsr	ip, ip, #20
    82a8:	ee1f2f3c 	mrc	15, 0, r2, cr15, cr12, {1}
    82ac:	e0632002 	rsb	r2, r3, r2
    82b0:	e1520001 	cmp	r2, r1
    82b4:	9afffffb 	bls	82a8 <scope+0xac>
    82b8:	e59f20b0 	ldr	r2, [pc, #176]	; 8370 <scope+0x174>
    82bc:	e59f00c4 	ldr	r0, [pc, #196]	; 8388 <scope+0x18c>
    82c0:	e5921034 	ldr	r1, [r2, #52]	; 0x34
    82c4:	e2011601 	and	r1, r1, #1048576	; 0x100000
    82c8:	e1a01a21 	lsr	r1, r1, #20
    82cc:	ee1f2f3c 	mrc	15, 0, r2, cr15, cr12, {1}
    82d0:	e0632002 	rsb	r2, r3, r2
    82d4:	e1520000 	cmp	r2, r0
    82d8:	9afffffb 	bls	82cc <scope+0xd0>
    82dc:	e59f208c 	ldr	r2, [pc, #140]	; 8370 <scope+0x174>
    82e0:	e59f00a4 	ldr	r0, [pc, #164]	; 838c <scope+0x190>
    82e4:	e5927034 	ldr	r7, [r2, #52]	; 0x34
    82e8:	e2077601 	and	r7, r7, #1048576	; 0x100000
    82ec:	e1a07a27 	lsr	r7, r7, #20
    82f0:	ee1f2f3c 	mrc	15, 0, r2, cr15, cr12, {1}
    82f4:	e0632002 	rsb	r2, r3, r2
    82f8:	e1520000 	cmp	r2, r0
    82fc:	9afffffb 	bls	82f0 <scope+0xf4>
    8300:	e59f2068 	ldr	r2, [pc, #104]	; 8370 <scope+0x174>
    8304:	e59f0084 	ldr	r0, [pc, #132]	; 8390 <scope+0x194>
    8308:	e5929034 	ldr	r9, [r2, #52]	; 0x34
    830c:	e2099601 	and	r9, r9, #1048576	; 0x100000
    8310:	e1a09a29 	lsr	r9, r9, #20
    8314:	ee1f2f3c 	mrc	15, 0, r2, cr15, cr12, {1}
    8318:	e0632002 	rsb	r2, r3, r2
    831c:	e1520000 	cmp	r2, r0
    8320:	9afffffb 	bls	8314 <scope+0x118>
    8324:	e59f2044 	ldr	r2, [pc, #68]	; 8370 <scope+0x174>
    8328:	e59f8064 	ldr	r8, [pc, #100]	; 8394 <scope+0x198>
    832c:	e5920034 	ldr	r0, [r2, #52]	; 0x34
    8330:	e2000601 	and	r0, r0, #1048576	; 0x100000
    8334:	e1a00a20 	lsr	r0, r0, #20
    8338:	ee1f2f3c 	mrc	15, 0, r2, cr15, cr12, {1}
    833c:	e0632002 	rsb	r2, r3, r2
    8340:	e1520008 	cmp	r2, r8
    8344:	9afffffb 	bls	8338 <scope+0x13c>
    8348:	e1a06106 	lsl	r6, r6, #2
    834c:	e1865085 	orr	r5, r6, r5, lsl #1
    8350:	e1854004 	orr	r4, r5, r4
    8354:	e184c18c 	orr	ip, r4, ip, lsl #3
    8358:	e18c1201 	orr	r1, ip, r1, lsl #4
    835c:	e1817287 	orr	r7, r1, r7, lsl #5
    8360:	e1879309 	orr	r9, r7, r9, lsl #6
    8364:	e1890380 	orr	r0, r9, r0, lsl #7
    8368:	e8bd03f0 	pop	{r4, r5, r6, r7, r8, r9}
    836c:	e12fff1e 	bx	lr
    8370:	20200000 	eorcs	r0, r0, r0
    8374:	00002399 	muleq	r0, r9, r3
    8378:	00002f77 	andeq	r2, r0, r7, ror pc
    837c:	00004733 	andeq	r4, r0, r3, lsr r7
    8380:	00005eef 	andeq	r5, r0, pc, ror #29
    8384:	000076ab 	andeq	r7, r0, fp, lsr #13
    8388:	00008e67 	andeq	r8, r0, r7, ror #28
    838c:	0000a623 	andeq	sl, r0, r3, lsr #12
    8390:	0000bddf 	ldrdeq	fp, [r0], -pc	; <UNPREDICTABLE>
    8394:	0000d59b 	muleq	r0, fp, r5

00008398 <test_gen>:
    8398:	e92d0070 	push	{r4, r5, r6}
    839c:	ee1f3f3c 	mrc	15, 0, r3, cr15, cr12, {1}
    83a0:	e3a0c001 	mov	ip, #1
    83a4:	e1a0001c 	lsl	r0, ip, r0
    83a8:	e59fc1f0 	ldr	ip, [pc, #496]	; 85a0 <test_gen+0x208>
    83ac:	e59c4028 	ldr	r4, [ip, #40]	; 0x28
    83b0:	e1804004 	orr	r4, r0, r4
    83b4:	e58c4028 	str	r4, [ip, #40]	; 0x28
    83b8:	ee1fcf3c 	mrc	15, 0, ip, cr15, cr12, {1}
    83bc:	e063c00c 	rsb	ip, r3, ip
    83c0:	e15c0002 	cmp	ip, r2
    83c4:	3afffffb 	bcc	83b8 <test_gen+0x20>
    83c8:	e59fc1d0 	ldr	ip, [pc, #464]	; 85a0 <test_gen+0x208>
    83cc:	e3110001 	tst	r1, #1
    83d0:	159c401c 	ldrne	r4, [ip, #28]
    83d4:	059c4028 	ldreq	r4, [ip, #40]	; 0x28
    83d8:	11804004 	orrne	r4, r0, r4
    83dc:	01804004 	orreq	r4, r0, r4
    83e0:	158c401c 	strne	r4, [ip, #28]
    83e4:	058c4028 	streq	r4, [ip, #40]	; 0x28
    83e8:	e1a05082 	lsl	r5, r2, #1
    83ec:	ee1fcf3c 	mrc	15, 0, ip, cr15, cr12, {1}
    83f0:	e063c00c 	rsb	ip, r3, ip
    83f4:	e15c0005 	cmp	ip, r5
    83f8:	3afffffb 	bcc	83ec <test_gen+0x54>
    83fc:	e59fc19c 	ldr	ip, [pc, #412]	; 85a0 <test_gen+0x208>
    8400:	e3110002 	tst	r1, #2
    8404:	159c401c 	ldrne	r4, [ip, #28]
    8408:	059c4028 	ldreq	r4, [ip, #40]	; 0x28
    840c:	11804004 	orrne	r4, r0, r4
    8410:	01804004 	orreq	r4, r0, r4
    8414:	158c401c 	strne	r4, [ip, #28]
    8418:	058c4028 	streq	r4, [ip, #40]	; 0x28
    841c:	e0854002 	add	r4, r5, r2
    8420:	ee1fcf3c 	mrc	15, 0, ip, cr15, cr12, {1}
    8424:	e063c00c 	rsb	ip, r3, ip
    8428:	e15c0004 	cmp	ip, r4
    842c:	3afffffb 	bcc	8420 <test_gen+0x88>
    8430:	e59fc168 	ldr	ip, [pc, #360]	; 85a0 <test_gen+0x208>
    8434:	e3110004 	tst	r1, #4
    8438:	159c401c 	ldrne	r4, [ip, #28]
    843c:	059c4028 	ldreq	r4, [ip, #40]	; 0x28
    8440:	11804004 	orrne	r4, r0, r4
    8444:	01804004 	orreq	r4, r0, r4
    8448:	158c401c 	strne	r4, [ip, #28]
    844c:	058c4028 	streq	r4, [ip, #40]	; 0x28
    8450:	e1a04102 	lsl	r4, r2, #2
    8454:	ee1fcf3c 	mrc	15, 0, ip, cr15, cr12, {1}
    8458:	e063c00c 	rsb	ip, r3, ip
    845c:	e15c0004 	cmp	ip, r4
    8460:	3afffffb 	bcc	8454 <test_gen+0xbc>
    8464:	e59fc134 	ldr	ip, [pc, #308]	; 85a0 <test_gen+0x208>
    8468:	e3110008 	tst	r1, #8
    846c:	159c601c 	ldrne	r6, [ip, #28]
    8470:	059c6028 	ldreq	r6, [ip, #40]	; 0x28
    8474:	11806006 	orrne	r6, r0, r6
    8478:	01806006 	orreq	r6, r0, r6
    847c:	158c601c 	strne	r6, [ip, #28]
    8480:	058c6028 	streq	r6, [ip, #40]	; 0x28
    8484:	e0846002 	add	r6, r4, r2
    8488:	ee1fcf3c 	mrc	15, 0, ip, cr15, cr12, {1}
    848c:	e063c00c 	rsb	ip, r3, ip
    8490:	e15c0006 	cmp	ip, r6
    8494:	3afffffb 	bcc	8488 <test_gen+0xf0>
    8498:	e59fc100 	ldr	ip, [pc, #256]	; 85a0 <test_gen+0x208>
    849c:	e3110010 	tst	r1, #16
    84a0:	159c601c 	ldrne	r6, [ip, #28]
    84a4:	059c6028 	ldreq	r6, [ip, #40]	; 0x28
    84a8:	11806006 	orrne	r6, r0, r6
    84ac:	01806006 	orreq	r6, r0, r6
    84b0:	e0855002 	add	r5, r5, r2
    84b4:	158c601c 	strne	r6, [ip, #28]
    84b8:	058c6028 	streq	r6, [ip, #40]	; 0x28
    84bc:	e1a05085 	lsl	r5, r5, #1
    84c0:	ee1fcf3c 	mrc	15, 0, ip, cr15, cr12, {1}
    84c4:	e063c00c 	rsb	ip, r3, ip
    84c8:	e15c0005 	cmp	ip, r5
    84cc:	3afffffb 	bcc	84c0 <test_gen+0x128>
    84d0:	e59fc0c8 	ldr	ip, [pc, #200]	; 85a0 <test_gen+0x208>
    84d4:	e3110020 	tst	r1, #32
    84d8:	159c501c 	ldrne	r5, [ip, #28]
    84dc:	059c5028 	ldreq	r5, [ip, #40]	; 0x28
    84e0:	11805005 	orrne	r5, r0, r5
    84e4:	01805005 	orreq	r5, r0, r5
    84e8:	158c501c 	strne	r5, [ip, #28]
    84ec:	058c5028 	streq	r5, [ip, #40]	; 0x28
    84f0:	e1a05182 	lsl	r5, r2, #3
    84f4:	e0626005 	rsb	r6, r2, r5
    84f8:	ee1fcf3c 	mrc	15, 0, ip, cr15, cr12, {1}
    84fc:	e063c00c 	rsb	ip, r3, ip
    8500:	e15c0006 	cmp	ip, r6
    8504:	3afffffb 	bcc	84f8 <test_gen+0x160>
    8508:	e59fc090 	ldr	ip, [pc, #144]	; 85a0 <test_gen+0x208>
    850c:	e3110040 	tst	r1, #64	; 0x40
    8510:	159c601c 	ldrne	r6, [ip, #28]
    8514:	059c6028 	ldreq	r6, [ip, #40]	; 0x28
    8518:	11806006 	orrne	r6, r0, r6
    851c:	01806006 	orreq	r6, r0, r6
    8520:	158c601c 	strne	r6, [ip, #28]
    8524:	058c6028 	streq	r6, [ip, #40]	; 0x28
    8528:	ee1fcf3c 	mrc	15, 0, ip, cr15, cr12, {1}
    852c:	e063c00c 	rsb	ip, r3, ip
    8530:	e15c0005 	cmp	ip, r5
    8534:	3afffffb 	bcc	8528 <test_gen+0x190>
    8538:	e3110080 	tst	r1, #128	; 0x80
    853c:	e59f105c 	ldr	r1, [pc, #92]	; 85a0 <test_gen+0x208>
    8540:	e0855002 	add	r5, r5, r2
    8544:	1591c01c 	ldrne	ip, [r1, #28]
    8548:	0591c028 	ldreq	ip, [r1, #40]	; 0x28
    854c:	1180c00c 	orrne	ip, r0, ip
    8550:	0180c00c 	orreq	ip, r0, ip
    8554:	1581c01c 	strne	ip, [r1, #28]
    8558:	0581c028 	streq	ip, [r1, #40]	; 0x28
    855c:	ee1f1f3c 	mrc	15, 0, r1, cr15, cr12, {1}
    8560:	e0631001 	rsb	r1, r3, r1
    8564:	e1510005 	cmp	r1, r5
    8568:	3afffffb 	bcc	855c <test_gen+0x1c4>
    856c:	e59f102c 	ldr	r1, [pc, #44]	; 85a0 <test_gen+0x208>
    8570:	e0844002 	add	r4, r4, r2
    8574:	e591c01c 	ldr	ip, [r1, #28]
    8578:	e1a04084 	lsl	r4, r4, #1
    857c:	e180000c 	orr	r0, r0, ip
    8580:	e581001c 	str	r0, [r1, #28]
    8584:	ee1f2f3c 	mrc	15, 0, r2, cr15, cr12, {1}
    8588:	e0632002 	rsb	r2, r3, r2
    858c:	e1520004 	cmp	r2, r4
    8590:	3afffffb 	bcc	8584 <test_gen+0x1ec>
    8594:	ee1f3f3c 	mrc	15, 0, r3, cr15, cr12, {1}
    8598:	e8bd0070 	pop	{r4, r5, r6}
    859c:	e12fff1e 	bx	lr
    85a0:	20200000 	eorcs	r0, r0, r0

000085a4 <notmain>:
    85a4:	e92d40f8 	push	{r3, r4, r5, r6, r7, lr}
    85a8:	e3a00015 	mov	r0, #21
    85ac:	eb00023d 	bl	8ea8 <gpio_set_output>
    85b0:	e3a00014 	mov	r0, #20
    85b4:	eb00028c 	bl	8fec <gpio_set_input>
    85b8:	eb0001bd 	bl	8cb4 <enable_cache>
    85bc:	e3a03001 	mov	r3, #1
    85c0:	ee0f3f1c 	mcr	15, 0, r3, cr15, cr12, {0}
    85c4:	e3a00014 	mov	r0, #20
    85c8:	eb0002ba 	bl	90b8 <gpio_read>
    85cc:	e2504000 	subs	r4, r0, #0
    85d0:	1a00001a 	bne	8640 <notmain+0x9c>
    85d4:	e59f00d0 	ldr	r0, [pc, #208]	; 86ac <notmain+0x108>
    85d8:	eb00003a 	bl	86c8 <printk>
    85dc:	e3a06001 	mov	r6, #1
    85e0:	e1a01004 	mov	r1, r4
    85e4:	e3a00015 	mov	r0, #21
    85e8:	e59f20c0 	ldr	r2, [pc, #192]	; 86b0 <notmain+0x10c>
    85ec:	ebffff69 	bl	8398 <test_gen>
    85f0:	e1a05006 	mov	r5, r6
    85f4:	e3a040fe 	mov	r4, #254	; 0xfe
    85f8:	ea000001 	b	8604 <notmain+0x60>
    85fc:	e2544001 	subs	r4, r4, #1
    8600:	0a00000a 	beq	8630 <notmain+0x8c>
    8604:	ebfffe81 	bl	8010 <scope.constprop.3>
    8608:	e1500005 	cmp	r0, r5
    860c:	1afffffa 	bne	85fc <notmain+0x58>
    8610:	e2856001 	add	r6, r5, #1
    8614:	e6ef1076 	uxtb	r1, r6
    8618:	e3a00015 	mov	r0, #21
    861c:	e59f208c 	ldr	r2, [pc, #140]	; 86b0 <notmain+0x10c>
    8620:	ebffff5c 	bl	8398 <test_gen>
    8624:	e2544001 	subs	r4, r4, #1
    8628:	e2855002 	add	r5, r5, #2
    862c:	1afffff4 	bne	8604 <notmain+0x60>
    8630:	e1a01006 	mov	r1, r6
    8634:	e59f0078 	ldr	r0, [pc, #120]	; 86b4 <notmain+0x110>
    8638:	eb000022 	bl	86c8 <printk>
    863c:	eb0001a4 	bl	8cd4 <clean_reboot>
    8640:	e59f0070 	ldr	r0, [pc, #112]	; 86b8 <notmain+0x114>
    8644:	eb00001f 	bl	86c8 <printk>
    8648:	e59f006c 	ldr	r0, [pc, #108]	; 86bc <notmain+0x118>
    864c:	eb00001d 	bl	86c8 <printk>
    8650:	e59f6068 	ldr	r6, [pc, #104]	; 86c0 <notmain+0x11c>
    8654:	e3a05000 	mov	r5, #0
    8658:	ebfffe6c 	bl	8010 <scope.constprop.3>
    865c:	e1500005 	cmp	r0, r5
    8660:	e1a04000 	mov	r4, r0
    8664:	1afffffb 	bne	8658 <notmain+0xb4>
    8668:	e596301c 	ldr	r3, [r6, #28]
    866c:	e3a00001 	mov	r0, #1
    8670:	e3833602 	orr	r3, r3, #2097152	; 0x200000
    8674:	e0857000 	add	r7, r5, r0
    8678:	e586301c 	str	r3, [r6, #28]
    867c:	eb0001ff 	bl	8e80 <delay_ms>
    8680:	e6ef1077 	uxtb	r1, r7
    8684:	e3a00015 	mov	r0, #21
    8688:	e59f2020 	ldr	r2, [pc, #32]	; 86b0 <notmain+0x10c>
    868c:	ebffff41 	bl	8398 <test_gen>
    8690:	e35700fd 	cmp	r7, #253	; 0xfd
    8694:	e2855002 	add	r5, r5, #2
    8698:	9affffee 	bls	8658 <notmain+0xb4>
    869c:	e1a01004 	mov	r1, r4
    86a0:	e59f001c 	ldr	r0, [pc, #28]	; 86c4 <notmain+0x120>
    86a4:	eb000007 	bl	86c8 <printk>
    86a8:	eaffffe3 	b	863c <notmain+0x98>
    86ac:	00009dbc 			; <UNDEFINED> instruction: 0x00009dbc
    86b0:	000017bc 			; <UNDEFINED> instruction: 0x000017bc
    86b4:	00009dd4 	ldrdeq	r9, [r0], -r4
    86b8:	00009df0 	strdeq	r9, [r0], -r0
    86bc:	00009e00 	andeq	r9, r0, r0, lsl #28
    86c0:	20200000 	eorcs	r0, r0, r0
    86c4:	00009e10 	andeq	r9, r0, r0, lsl lr

000086c8 <printk>:
    86c8:	e92d000f 	push	{r0, r1, r2, r3}
    86cc:	e92d4030 	push	{r4, r5, lr}
    86d0:	e24dd00c 	sub	sp, sp, #12
    86d4:	e28d301c 	add	r3, sp, #28
    86d8:	e58d3004 	str	r3, [sp, #4]
    86dc:	e59f4034 	ldr	r4, [pc, #52]	; 8718 <printk+0x50>
    86e0:	e1a00004 	mov	r0, r4
    86e4:	e3a01b01 	mov	r1, #1024	; 0x400
    86e8:	e59d2018 	ldr	r2, [sp, #24]
    86ec:	eb0000cb 	bl	8a20 <va_printk>
    86f0:	e1a05000 	mov	r5, r0
    86f4:	e59f3020 	ldr	r3, [pc, #32]	; 871c <printk+0x54>
    86f8:	e5933000 	ldr	r3, [r3]
    86fc:	e1a00004 	mov	r0, r4
    8700:	e12fff33 	blx	r3
    8704:	e1a00005 	mov	r0, r5
    8708:	e28dd00c 	add	sp, sp, #12
    870c:	e8bd4030 	pop	{r4, r5, lr}
    8710:	e28dd010 	add	sp, sp, #16
    8714:	e12fff1e 	bx	lr
    8718:	0000a068 	andeq	sl, r0, r8, rrx
    871c:	00009cdc 	ldrdeq	r9, [r0], -ip

00008720 <internal_putchar>:
    8720:	e92d4010 	push	{r4, lr}
    8724:	e1a04000 	mov	r4, r0
    8728:	eb00051f 	bl	9bac <uart_putc>
    872c:	e1a00004 	mov	r0, r4
    8730:	e8bd8010 	pop	{r4, pc}

00008734 <rpi_reset_putc>:
    8734:	e59f2008 	ldr	r2, [pc, #8]	; 8744 <rpi_reset_putc+0x10>
    8738:	e59f3008 	ldr	r3, [pc, #8]	; 8748 <rpi_reset_putc+0x14>
    873c:	e5832000 	str	r2, [r3]
    8740:	e12fff1e 	bx	lr
    8744:	00008720 	andeq	r8, r0, r0, lsr #14
    8748:	00009cd8 	ldrdeq	r9, [r0], -r8

0000874c <rpi_set_putc>:
    874c:	e59f3004 	ldr	r3, [pc, #4]	; 8758 <rpi_set_putc+0xc>
    8750:	e5830000 	str	r0, [r3]
    8754:	e12fff1e 	bx	lr
    8758:	00009cd8 	ldrdeq	r9, [r0], -r8

0000875c <internal_putk>:
    875c:	e92d4038 	push	{r3, r4, r5, lr}
    8760:	e1a04000 	mov	r4, r0
    8764:	e59f5020 	ldr	r5, [pc, #32]	; 878c <internal_putk+0x30>
    8768:	ea000002 	b	8778 <internal_putk+0x1c>
    876c:	e5953000 	ldr	r3, [r5]
    8770:	e12fff33 	blx	r3
    8774:	e2844001 	add	r4, r4, #1
    8778:	e5d40000 	ldrb	r0, [r4]
    877c:	e3500000 	cmp	r0, #0
    8780:	1afffff9 	bne	876c <internal_putk+0x10>
    8784:	e3a00001 	mov	r0, #1
    8788:	e8bd8038 	pop	{r3, r4, r5, pc}
    878c:	00009cd8 	ldrdeq	r9, [r0], -r8

00008790 <isdigit>:
    8790:	e2400030 	sub	r0, r0, #48	; 0x30
    8794:	e3500009 	cmp	r0, #9
    8798:	83a00000 	movhi	r0, #0
    879c:	93a00001 	movls	r0, #1
    87a0:	e12fff1e 	bx	lr

000087a4 <pad>:
    87a4:	e0611000 	rsb	r1, r1, r0
    87a8:	e3a03020 	mov	r3, #32
    87ac:	ea000002 	b	87bc <pad+0x18>
    87b0:	e5c03000 	strb	r3, [r0]
    87b4:	e2811001 	add	r1, r1, #1
    87b8:	e2800001 	add	r0, r0, #1
    87bc:	e1510002 	cmp	r1, r2
    87c0:	bafffffa 	blt	87b0 <pad+0xc>
    87c4:	e3a03000 	mov	r3, #0
    87c8:	e5c03000 	strb	r3, [r0]
    87cc:	e12fff1e 	bx	lr

000087d0 <reverse>:
    87d0:	e063c002 	rsb	ip, r3, r2
    87d4:	e28cc001 	add	ip, ip, #1
    87d8:	e15c0001 	cmp	ip, r1
    87dc:	c061100c 	rsbgt	r1, r1, ip
    87e0:	c0833001 	addgt	r3, r3, r1
    87e4:	e2422001 	sub	r2, r2, #1
    87e8:	e1a01000 	mov	r1, r0
    87ec:	ea000002 	b	87fc <reverse+0x2c>
    87f0:	e452c001 	ldrb	ip, [r2], #-1
    87f4:	e5c1c000 	strb	ip, [r1]
    87f8:	e2811001 	add	r1, r1, #1
    87fc:	e1520003 	cmp	r2, r3
    8800:	2afffffa 	bcs	87f0 <reverse+0x20>
    8804:	e3a03000 	mov	r3, #0
    8808:	e5c13000 	strb	r3, [r1]
    880c:	e12fff1e 	bx	lr

00008810 <emit>:
    8810:	e92d41f0 	push	{r4, r5, r6, r7, r8, lr}
    8814:	e24dd048 	sub	sp, sp, #72	; 0x48
    8818:	e1a05001 	mov	r5, r1
    881c:	e1a04002 	mov	r4, r2
    8820:	e59d2060 	ldr	r2, [sp, #96]	; 0x60
    8824:	e1520004 	cmp	r2, r4
    8828:	c2442001 	subgt	r2, r4, #1
    882c:	e1a0c003 	mov	ip, r3
    8830:	e2400002 	sub	r0, r0, #2
    8834:	e350000e 	cmp	r0, #14
    8838:	979ff100 	ldrls	pc, [pc, r0, lsl #2]
    883c:	ea000042 	b	894c <emit+0x13c>
    8840:	00008924 	andeq	r8, r0, r4, lsr #18
    8844:	0000894c 	andeq	r8, r0, ip, asr #18
    8848:	0000894c 	andeq	r8, r0, ip, asr #18
    884c:	0000894c 	andeq	r8, r0, ip, asr #18
    8850:	0000894c 	andeq	r8, r0, ip, asr #18
    8854:	0000894c 	andeq	r8, r0, ip, asr #18
    8858:	00008918 	andeq	r8, r0, r8, lsl r9
    885c:	0000894c 	andeq	r8, r0, ip, asr #18
    8860:	0000887c 	andeq	r8, r0, ip, ror r8
    8864:	0000894c 	andeq	r8, r0, ip, asr #18
    8868:	0000894c 	andeq	r8, r0, ip, asr #18
    886c:	0000894c 	andeq	r8, r0, ip, asr #18
    8870:	0000894c 	andeq	r8, r0, ip, asr #18
    8874:	0000894c 	andeq	r8, r0, ip, asr #18
    8878:	000088f0 	strdeq	r8, [r0], -r0
    887c:	e59d1064 	ldr	r1, [sp, #100]	; 0x64
    8880:	e2911000 	adds	r1, r1, #0
    8884:	13a01001 	movne	r1, #1
    8888:	e0111fa3 	ands	r1, r1, r3, lsr #31
    888c:	1263c000 	rsbne	ip, r3, #0
    8890:	13a08001 	movne	r8, #1
    8894:	03a08000 	moveq	r8, #0
    8898:	e28d1008 	add	r1, sp, #8
    889c:	e59f70f4 	ldr	r7, [pc, #244]	; 8998 <emit+0x188>
    88a0:	e59f60f4 	ldr	r6, [pc, #244]	; 899c <emit+0x18c>
    88a4:	ea000000 	b	88ac <emit+0x9c>
    88a8:	e1a01003 	mov	r1, r3
    88ac:	e2813001 	add	r3, r1, #1
    88b0:	e08e0c97 	umull	r0, lr, r7, ip
    88b4:	e1a0e1ae 	lsr	lr, lr, #3
    88b8:	e1a0000e 	mov	r0, lr
    88bc:	e08ee10e 	add	lr, lr, lr, lsl #2
    88c0:	e1a0e08e 	lsl	lr, lr, #1
    88c4:	e06ee00c 	rsb	lr, lr, ip
    88c8:	e7d6c00e 	ldrb	ip, [r6, lr]
    88cc:	e5c1c000 	strb	ip, [r1]
    88d0:	e1a0c000 	mov	ip, r0
    88d4:	e3500000 	cmp	r0, #0
    88d8:	1afffff2 	bne	88a8 <emit+0x98>
    88dc:	e3580000 	cmp	r8, #0
    88e0:	12813002 	addne	r3, r1, #2
    88e4:	13a0002d 	movne	r0, #45	; 0x2d
    88e8:	15c10001 	strbne	r0, [r1, #1]
    88ec:	ea00001f 	b	8970 <emit+0x160>
    88f0:	e28de008 	add	lr, sp, #8
    88f4:	e59f00a4 	ldr	r0, [pc, #164]	; 89a0 <emit+0x190>
    88f8:	e28e3001 	add	r3, lr, #1
    88fc:	e20c100f 	and	r1, ip, #15
    8900:	e7d01001 	ldrb	r1, [r0, r1]
    8904:	e5ce1000 	strb	r1, [lr]
    8908:	e1a0e003 	mov	lr, r3
    890c:	e1b0c22c 	lsrs	ip, ip, #4
    8910:	1afffff8 	bne	88f8 <emit+0xe8>
    8914:	ea000015 	b	8970 <emit+0x160>
    8918:	e5cd3008 	strb	r3, [sp, #8]
    891c:	e28d3009 	add	r3, sp, #9
    8920:	ea000012 	b	8970 <emit+0x160>
    8924:	e28de008 	add	lr, sp, #8
    8928:	e59f0074 	ldr	r0, [pc, #116]	; 89a4 <emit+0x194>
    892c:	e28e3001 	add	r3, lr, #1
    8930:	e20c1001 	and	r1, ip, #1
    8934:	e7d01001 	ldrb	r1, [r0, r1]
    8938:	e5ce1000 	strb	r1, [lr]
    893c:	e1a0e003 	mov	lr, r3
    8940:	e1b0c0ac 	lsrs	ip, ip, #1
    8944:	1afffff8 	bne	892c <emit+0x11c>
    8948:	ea000008 	b	8970 <emit+0x160>
    894c:	ebffff78 	bl	8734 <rpi_reset_putc>
    8950:	e59f3050 	ldr	r3, [pc, #80]	; 89a8 <emit+0x198>
    8954:	e58d3000 	str	r3, [sp]
    8958:	e59f004c 	ldr	r0, [pc, #76]	; 89ac <emit+0x19c>
    895c:	e59f104c 	ldr	r1, [pc, #76]	; 89b0 <emit+0x1a0>
    8960:	e59f204c 	ldr	r2, [pc, #76]	; 89b4 <emit+0x1a4>
    8964:	e3a03075 	mov	r3, #117	; 0x75
    8968:	ebffff56 	bl	86c8 <printk>
    896c:	eb0000d8 	bl	8cd4 <clean_reboot>
    8970:	e1a00003 	mov	r0, r3
    8974:	e28d1008 	add	r1, sp, #8
    8978:	ebffff89 	bl	87a4 <pad>
    897c:	e1a02000 	mov	r2, r0
    8980:	e1a00005 	mov	r0, r5
    8984:	e1a01004 	mov	r1, r4
    8988:	e28d3008 	add	r3, sp, #8
    898c:	ebffff8f 	bl	87d0 <reverse>
    8990:	e28dd048 	add	sp, sp, #72	; 0x48
    8994:	e8bd81f0 	pop	{r4, r5, r6, r7, r8, pc}
    8998:	cccccccd 	stclgt	12, cr12, [ip], {205}	; 0xcd
    899c:	00009e7c 	andeq	r9, r0, ip, ror lr
    89a0:	00009e88 	andeq	r9, r0, r8, lsl #29
    89a4:	00009e9c 	muleq	r0, ip, lr
    89a8:	00009e78 	andeq	r9, r0, r8, ror lr
    89ac:	00009e50 	andeq	r9, r0, r0, asr lr
    89b0:	00009e64 	andeq	r9, r0, r4, ror #28
    89b4:	00009e2c 	andeq	r9, r0, ip, lsr #28

000089b8 <rpi_set_output>:
    89b8:	e52de004 	push	{lr}		; (str lr, [sp, #-4]!)
    89bc:	e24dd00c 	sub	sp, sp, #12
    89c0:	e3500000 	cmp	r0, #0
    89c4:	1a000008 	bne	89ec <rpi_set_output+0x34>
    89c8:	ebffff59 	bl	8734 <rpi_reset_putc>
    89cc:	e59f3034 	ldr	r3, [pc, #52]	; 8a08 <rpi_set_output+0x50>
    89d0:	e58d3000 	str	r3, [sp]
    89d4:	e59f0030 	ldr	r0, [pc, #48]	; 8a0c <rpi_set_output+0x54>
    89d8:	e59f1030 	ldr	r1, [pc, #48]	; 8a10 <rpi_set_output+0x58>
    89dc:	e59f2030 	ldr	r2, [pc, #48]	; 8a14 <rpi_set_output+0x5c>
    89e0:	e3a03020 	mov	r3, #32
    89e4:	ebffff37 	bl	86c8 <printk>
    89e8:	eb0000b9 	bl	8cd4 <clean_reboot>
    89ec:	e59f3024 	ldr	r3, [pc, #36]	; 8a18 <rpi_set_output+0x60>
    89f0:	e5830000 	str	r0, [r3]
    89f4:	e3510000 	cmp	r1, #0
    89f8:	159f301c 	ldrne	r3, [pc, #28]	; 8a1c <rpi_set_output+0x64>
    89fc:	15831000 	strne	r1, [r3]
    8a00:	e28dd00c 	add	sp, sp, #12
    8a04:	e49df004 	pop	{pc}		; (ldr pc, [sp], #4)
    8a08:	00009ea0 	andeq	r9, r0, r0, lsr #29
    8a0c:	00009e50 	andeq	r9, r0, r0, asr lr
    8a10:	00009e64 	andeq	r9, r0, r4, ror #28
    8a14:	00009e34 	andeq	r9, r0, r4, lsr lr
    8a18:	00009cd8 	ldrdeq	r9, [r0], -r8
    8a1c:	00009cdc 	ldrdeq	r9, [r0], -ip

00008a20 <va_printk>:
    8a20:	e92d4ff0 	push	{r4, r5, r6, r7, r8, r9, sl, fp, lr}
    8a24:	e24dd08c 	sub	sp, sp, #140	; 0x8c
    8a28:	e1a0a000 	mov	sl, r0
    8a2c:	e1a09003 	mov	r9, r3
    8a30:	e2411001 	sub	r1, r1, #1
    8a34:	e0808001 	add	r8, r0, r1
    8a38:	e3a03000 	mov	r3, #0
    8a3c:	e5c03000 	strb	r3, [r0]
    8a40:	e1a04000 	mov	r4, r0
    8a44:	e1a0b003 	mov	fp, r3
    8a48:	ea000088 	b	8c70 <va_printk+0x250>
    8a4c:	e3530025 	cmp	r3, #37	; 0x25
    8a50:	12822001 	addne	r2, r2, #1
    8a54:	15c43000 	strbne	r3, [r4]
    8a58:	12844001 	addne	r4, r4, #1
    8a5c:	1a000083 	bne	8c70 <va_printk+0x250>
    8a60:	e5d21001 	ldrb	r1, [r2, #1]
    8a64:	e3510025 	cmp	r1, #37	; 0x25
    8a68:	05c43000 	strbeq	r3, [r4]
    8a6c:	02822002 	addeq	r2, r2, #2
    8a70:	02844001 	addeq	r4, r4, #1
    8a74:	0a00007d 	beq	8c70 <va_printk+0x250>
    8a78:	e2826001 	add	r6, r2, #1
    8a7c:	e1a0700b 	mov	r7, fp
    8a80:	ea000004 	b	8a98 <va_printk+0x78>
    8a84:	e0877107 	add	r7, r7, r7, lsl #2
    8a88:	e1a07087 	lsl	r7, r7, #1
    8a8c:	e0877005 	add	r7, r7, r5
    8a90:	e2477030 	sub	r7, r7, #48	; 0x30
    8a94:	e2866001 	add	r6, r6, #1
    8a98:	e5d65000 	ldrb	r5, [r6]
    8a9c:	e1a00005 	mov	r0, r5
    8aa0:	ebffff3a 	bl	8790 <isdigit>
    8aa4:	e3500000 	cmp	r0, #0
    8aa8:	1afffff5 	bne	8a84 <va_printk+0x64>
    8aac:	e357001f 	cmp	r7, #31
    8ab0:	9a000008 	bls	8ad8 <va_printk+0xb8>
    8ab4:	ebffff1e 	bl	8734 <rpi_reset_putc>
    8ab8:	e59f31dc 	ldr	r3, [pc, #476]	; 8c9c <va_printk+0x27c>
    8abc:	e58d3000 	str	r3, [sp]
    8ac0:	e59f01d8 	ldr	r0, [pc, #472]	; 8ca0 <va_printk+0x280>
    8ac4:	e59f11d8 	ldr	r1, [pc, #472]	; 8ca4 <va_printk+0x284>
    8ac8:	e59f21d8 	ldr	r2, [pc, #472]	; 8ca8 <va_printk+0x288>
    8acc:	e3a03092 	mov	r3, #146	; 0x92
    8ad0:	ebfffefc 	bl	86c8 <printk>
    8ad4:	eb00007e 	bl	8cd4 <clean_reboot>
    8ad8:	e2455062 	sub	r5, r5, #98	; 0x62
    8adc:	e3550016 	cmp	r5, #22
    8ae0:	979ff105 	ldrls	pc, [pc, r5, lsl #2]
    8ae4:	ea00004e 	b	8c24 <va_printk+0x204>
    8ae8:	00008bd0 	ldrdeq	r8, [r0], -r0
    8aec:	00008c00 	andeq	r8, r0, r0, lsl #24
    8af0:	00008b60 	andeq	r8, r0, r0, ror #22
    8af4:	00008c24 	andeq	r8, r0, r4, lsr #24
    8af8:	00008b44 	andeq	r8, r0, r4, asr #22
    8afc:	00008c24 	andeq	r8, r0, r4, lsr #24
    8b00:	00008c24 	andeq	r8, r0, r4, lsr #24
    8b04:	00008c24 	andeq	r8, r0, r4, lsr #24
    8b08:	00008c24 	andeq	r8, r0, r4, lsr #24
    8b0c:	00008c24 	andeq	r8, r0, r4, lsr #24
    8b10:	00008c24 	andeq	r8, r0, r4, lsr #24
    8b14:	00008c24 	andeq	r8, r0, r4, lsr #24
    8b18:	00008c24 	andeq	r8, r0, r4, lsr #24
    8b1c:	00008c24 	andeq	r8, r0, r4, lsr #24
    8b20:	00008bac 	andeq	r8, r0, ip, lsr #23
    8b24:	00008c24 	andeq	r8, r0, r4, lsr #24
    8b28:	00008c24 	andeq	r8, r0, r4, lsr #24
    8b2c:	00008bf4 	strdeq	r8, [r0], -r4
    8b30:	00008c24 	andeq	r8, r0, r4, lsr #24
    8b34:	00008b88 	andeq	r8, r0, r8, lsl #23
    8b38:	00008c24 	andeq	r8, r0, r4, lsr #24
    8b3c:	00008c24 	andeq	r8, r0, r4, lsr #24
    8b40:	00008bac 	andeq	r8, r0, ip, lsr #23
    8b44:	ebfffefa 	bl	8734 <rpi_reset_putc>
    8b48:	e59f015c 	ldr	r0, [pc, #348]	; 8cac <va_printk+0x28c>
    8b4c:	e59f1150 	ldr	r1, [pc, #336]	; 8ca4 <va_printk+0x284>
    8b50:	e59f2150 	ldr	r2, [pc, #336]	; 8ca8 <va_printk+0x288>
    8b54:	e3a03098 	mov	r3, #152	; 0x98
    8b58:	ebfffeda 	bl	86c8 <printk>
    8b5c:	eb00005c 	bl	8cd4 <clean_reboot>
    8b60:	e5993000 	ldr	r3, [r9]
    8b64:	e2899004 	add	r9, r9, #4
    8b68:	e58d7000 	str	r7, [sp]
    8b6c:	e3a02001 	mov	r2, #1
    8b70:	e58d2004 	str	r2, [sp, #4]
    8b74:	e3a0000a 	mov	r0, #10
    8b78:	e28d1008 	add	r1, sp, #8
    8b7c:	e3a02080 	mov	r2, #128	; 0x80
    8b80:	ebffff22 	bl	8810 <emit>
    8b84:	ea00002f 	b	8c48 <va_printk+0x228>
    8b88:	e5993000 	ldr	r3, [r9]
    8b8c:	e2899004 	add	r9, r9, #4
    8b90:	e58d7000 	str	r7, [sp]
    8b94:	e58db004 	str	fp, [sp, #4]
    8b98:	e3a0000a 	mov	r0, #10
    8b9c:	e28d1008 	add	r1, sp, #8
    8ba0:	e3a02080 	mov	r2, #128	; 0x80
    8ba4:	ebffff19 	bl	8810 <emit>
    8ba8:	ea000026 	b	8c48 <va_printk+0x228>
    8bac:	e5993000 	ldr	r3, [r9]
    8bb0:	e2899004 	add	r9, r9, #4
    8bb4:	e58d7000 	str	r7, [sp]
    8bb8:	e58db004 	str	fp, [sp, #4]
    8bbc:	e3a00010 	mov	r0, #16
    8bc0:	e28d1008 	add	r1, sp, #8
    8bc4:	e3a02080 	mov	r2, #128	; 0x80
    8bc8:	ebffff10 	bl	8810 <emit>
    8bcc:	ea00001d 	b	8c48 <va_printk+0x228>
    8bd0:	e5993000 	ldr	r3, [r9]
    8bd4:	e2899004 	add	r9, r9, #4
    8bd8:	e58d7000 	str	r7, [sp]
    8bdc:	e58db004 	str	fp, [sp, #4]
    8be0:	e3a00002 	mov	r0, #2
    8be4:	e28d1008 	add	r1, sp, #8
    8be8:	e3a02080 	mov	r2, #128	; 0x80
    8bec:	ebffff07 	bl	8810 <emit>
    8bf0:	ea000014 	b	8c48 <va_printk+0x228>
    8bf4:	e5990000 	ldr	r0, [r9]
    8bf8:	e2899004 	add	r9, r9, #4
    8bfc:	ea000011 	b	8c48 <va_printk+0x228>
    8c00:	e5993000 	ldr	r3, [r9]
    8c04:	e2899004 	add	r9, r9, #4
    8c08:	e58d7000 	str	r7, [sp]
    8c0c:	e58db004 	str	fp, [sp, #4]
    8c10:	e3a00008 	mov	r0, #8
    8c14:	e08d1000 	add	r1, sp, r0
    8c18:	e3a02080 	mov	r2, #128	; 0x80
    8c1c:	ebfffefb 	bl	8810 <emit>
    8c20:	ea000008 	b	8c48 <va_printk+0x228>
    8c24:	ebfffec2 	bl	8734 <rpi_reset_putc>
    8c28:	e5d63000 	ldrb	r3, [r6]
    8c2c:	e58d3000 	str	r3, [sp]
    8c30:	e59f0078 	ldr	r0, [pc, #120]	; 8cb0 <va_printk+0x290>
    8c34:	e59f1068 	ldr	r1, [pc, #104]	; 8ca4 <va_printk+0x284>
    8c38:	e59f2068 	ldr	r2, [pc, #104]	; 8ca8 <va_printk+0x288>
    8c3c:	e3a030b9 	mov	r3, #185	; 0xb9
    8c40:	ebfffea0 	bl	86c8 <printk>
    8c44:	eb000022 	bl	8cd4 <clean_reboot>
    8c48:	e2862001 	add	r2, r6, #1
    8c4c:	ea000002 	b	8c5c <va_printk+0x23c>
    8c50:	e2800001 	add	r0, r0, #1
    8c54:	e5c43000 	strb	r3, [r4]
    8c58:	e2844001 	add	r4, r4, #1
    8c5c:	e1540008 	cmp	r4, r8
    8c60:	2a000002 	bcs	8c70 <va_printk+0x250>
    8c64:	e5d03000 	ldrb	r3, [r0]
    8c68:	e3530000 	cmp	r3, #0
    8c6c:	1afffff7 	bne	8c50 <va_printk+0x230>
    8c70:	e5d23000 	ldrb	r3, [r2]
    8c74:	e3530000 	cmp	r3, #0
    8c78:	0a000001 	beq	8c84 <va_printk+0x264>
    8c7c:	e1540008 	cmp	r4, r8
    8c80:	3affff71 	bcc	8a4c <va_printk+0x2c>
    8c84:	e2840001 	add	r0, r4, #1
    8c88:	e3a03000 	mov	r3, #0
    8c8c:	e5c43000 	strb	r3, [r4]
    8c90:	e06a0000 	rsb	r0, sl, r0
    8c94:	e28dd08c 	add	sp, sp, #140	; 0x8c
    8c98:	e8bd8ff0 	pop	{r4, r5, r6, r7, r8, r9, sl, fp, pc}
    8c9c:	00009ea8 	andeq	r9, r0, r8, lsr #29
    8ca0:	00009e50 	andeq	r9, r0, r0, asr lr
    8ca4:	00009e64 	andeq	r9, r0, r4, ror #28
    8ca8:	00009e44 	andeq	r9, r0, r4, asr #28
    8cac:	00009eb4 			; <UNDEFINED> instruction: 0x00009eb4
    8cb0:	00009edc 	ldrdeq	r9, [r0], -ip

00008cb4 <enable_cache>:
    8cb4:	ee113f10 	mrc	15, 0, r3, cr1, cr0, {0}
    8cb8:	e3833b06 	orr	r3, r3, #6144	; 0x1800
    8cbc:	ee013f10 	mcr	15, 0, r3, cr1, cr0, {0}
    8cc0:	e12fff1e 	bx	lr

00008cc4 <disable_cache>:
    8cc4:	ee113f10 	mrc	15, 0, r3, cr1, cr0, {0}
    8cc8:	e3c33b06 	bic	r3, r3, #6144	; 0x1800
    8ccc:	ee013f10 	mcr	15, 0, r3, cr1, cr0, {0}
    8cd0:	e12fff1e 	bx	lr

00008cd4 <clean_reboot>:
    8cd4:	e92d4008 	push	{r3, lr}
    8cd8:	e59f3014 	ldr	r3, [pc, #20]	; 8cf4 <clean_reboot+0x20>
    8cdc:	e5933000 	ldr	r3, [r3]
    8ce0:	e59f0010 	ldr	r0, [pc, #16]	; 8cf8 <clean_reboot+0x24>
    8ce4:	e12fff33 	blx	r3
    8ce8:	e3a00064 	mov	r0, #100	; 0x64
    8cec:	eb000063 	bl	8e80 <delay_ms>
    8cf0:	eb000038 	bl	8dd8 <rpi_reboot>
    8cf4:	00009cdc 	ldrdeq	r9, [r0], -ip
    8cf8:	00009f14 	andeq	r9, r0, r4, lsl pc

00008cfc <internal_sw_putchar>:
    8cfc:	e92d4010 	push	{r4, lr}
    8d00:	e1a04000 	mov	r4, r0
    8d04:	e59f000c 	ldr	r0, [pc, #12]	; 8d18 <internal_sw_putchar+0x1c>
    8d08:	e6ef1074 	uxtb	r1, r4
    8d0c:	eb0001cd 	bl	9448 <sw_uart_putc>
    8d10:	e1a00004 	mov	r0, r4
    8d14:	e8bd8010 	pop	{r4, pc}
    8d18:	0000a468 	andeq	sl, r0, r8, ror #8

00008d1c <_cstart>:
    8d1c:	e92d4008 	push	{r3, lr}
    8d20:	e59f3068 	ldr	r3, [pc, #104]	; 8d90 <_cstart+0x74>
    8d24:	e59f2068 	ldr	r2, [pc, #104]	; 8d94 <_cstart+0x78>
    8d28:	e3a01000 	mov	r1, #0
    8d2c:	ea000001 	b	8d38 <_cstart+0x1c>
    8d30:	e5831000 	str	r1, [r3]
    8d34:	e2833004 	add	r3, r3, #4
    8d38:	e1530002 	cmp	r3, r2
    8d3c:	3afffffb 	bcc	8d30 <_cstart+0x14>
    8d40:	eb0003d2 	bl	9c90 <cb_get_block>
    8d44:	e3500000 	cmp	r0, #0
    8d48:	0a00000e 	beq	8d88 <_cstart+0x6c>
    8d4c:	e5d02004 	ldrb	r2, [r0, #4]
    8d50:	e3520002 	cmp	r2, #2
    8d54:	1a00000b 	bne	8d88 <_cstart+0x6c>
    8d58:	e59f1038 	ldr	r1, [pc, #56]	; 8d98 <_cstart+0x7c>
    8d5c:	e59f2038 	ldr	r2, [pc, #56]	; 8d9c <_cstart+0x80>
    8d60:	e5821000 	str	r1, [r2]
    8d64:	e59fc034 	ldr	ip, [pc, #52]	; 8da0 <_cstart+0x84>
    8d68:	e2803008 	add	r3, r0, #8
    8d6c:	e8930007 	ldm	r3, {r0, r1, r2}
    8d70:	e88c0007 	stm	ip, {r0, r1, r2}
    8d74:	e1a0000c 	mov	r0, ip
    8d78:	e59f1024 	ldr	r1, [pc, #36]	; 8da4 <_cstart+0x88>
    8d7c:	eb000314 	bl	99d4 <sw_uart_printk>
    8d80:	e59f0020 	ldr	r0, [pc, #32]	; 8da8 <_cstart+0x8c>
    8d84:	ebfffe4f 	bl	86c8 <printk>
    8d88:	ebfffe05 	bl	85a4 <notmain>
    8d8c:	eb000011 	bl	8dd8 <rpi_reboot>
    8d90:	0000a068 	andeq	sl, r0, r8, rrx
    8d94:	0000a478 	andeq	sl, r0, r8, ror r4
    8d98:	00008cfc 	strdeq	r8, [r0], -ip
    8d9c:	00009cd8 	ldrdeq	r9, [r0], -r8
    8da0:	0000a468 	andeq	sl, r0, r8, ror #8
    8da4:	00009f20 	andeq	r9, r0, r0, lsr #30
    8da8:	00009f44 	andeq	r9, r0, r4, asr #30

00008dac <at_user_level>:
    8dac:	e10f0000 	mrs	r0, CPSR
    8db0:	e200001f 	and	r0, r0, #31
    8db4:	e3500010 	cmp	r0, #16
    8db8:	13a00000 	movne	r0, #0
    8dbc:	03a00001 	moveq	r0, #1
    8dc0:	e12fff1e 	bx	lr

00008dc4 <set_user_level>:
    8dc4:	e10f3000 	mrs	r3, CPSR
    8dc8:	e3c3301f 	bic	r3, r3, #31
    8dcc:	e3833010 	orr	r3, r3, #16
    8dd0:	e129f003 	msr	CPSR_fc, r3
    8dd4:	e12fff1e 	bx	lr

00008dd8 <rpi_reboot>:
    8dd8:	e92d4008 	push	{r3, lr}
    8ddc:	ebfffff2 	bl	8dac <at_user_level>
    8de0:	e3500000 	cmp	r0, #0
    8de4:	0a000000 	beq	8dec <rpi_reboot+0x14>
    8de8:	ebfffff5 	bl	8dc4 <set_user_level>
    8dec:	e3a0001e 	mov	r0, #30
    8df0:	eb000022 	bl	8e80 <delay_ms>
    8df4:	e59f0014 	ldr	r0, [pc, #20]	; 8e10 <rpi_reboot+0x38>
    8df8:	e59f1014 	ldr	r1, [pc, #20]	; 8e14 <rpi_reboot+0x3c>
    8dfc:	eb000388 	bl	9c24 <PUT32>
    8e00:	e59f0010 	ldr	r0, [pc, #16]	; 8e18 <rpi_reboot+0x40>
    8e04:	e59f1010 	ldr	r1, [pc, #16]	; 8e1c <rpi_reboot+0x44>
    8e08:	eb000385 	bl	9c24 <PUT32>
    8e0c:	eafffffe 	b	8e0c <rpi_reboot+0x34>
    8e10:	20100024 	andscs	r0, r0, r4, lsr #32
    8e14:	5a000001 	bpl	8e20 <delay_cycles>
    8e18:	2010001c 	andscs	r0, r0, ip, lsl r0
    8e1c:	5a000020 	bpl	8ea4 <delay_sec+0x10>

00008e20 <delay_cycles>:
    8e20:	ea000001 	b	8e2c <delay_cycles+0xc>
    8e24:	e2811000 	add	r1, r1, #0
    8e28:	e1a00003 	mov	r0, r3
    8e2c:	e2403001 	sub	r3, r0, #1
    8e30:	e3500000 	cmp	r0, #0
    8e34:	1afffffa 	bne	8e24 <delay_cycles+0x4>
    8e38:	e12fff1e 	bx	lr

00008e3c <timer_get_usec_raw>:
    8e3c:	e92d4008 	push	{r3, lr}
    8e40:	e59f0004 	ldr	r0, [pc, #4]	; 8e4c <timer_get_usec_raw+0x10>
    8e44:	eb000382 	bl	9c54 <GET32>
    8e48:	e8bd8008 	pop	{r3, pc}
    8e4c:	20003004 	andcs	r3, r0, r4

00008e50 <timer_get_usec>:
    8e50:	e92d4008 	push	{r3, lr}
    8e54:	ebfffff8 	bl	8e3c <timer_get_usec_raw>
    8e58:	e8bd8008 	pop	{r3, pc}

00008e5c <delay_us>:
    8e5c:	e92d4038 	push	{r3, r4, r5, lr}
    8e60:	e1a05000 	mov	r5, r0
    8e64:	ebfffff9 	bl	8e50 <timer_get_usec>
    8e68:	e1a04000 	mov	r4, r0
    8e6c:	ebfffff7 	bl	8e50 <timer_get_usec>
    8e70:	e0640000 	rsb	r0, r4, r0
    8e74:	e1500005 	cmp	r0, r5
    8e78:	3afffffb 	bcc	8e6c <delay_us+0x10>
    8e7c:	e8bd8038 	pop	{r3, r4, r5, pc}

00008e80 <delay_ms>:
    8e80:	e92d4008 	push	{r3, lr}
    8e84:	e3a03ffa 	mov	r3, #1000	; 0x3e8
    8e88:	e0000093 	mul	r0, r3, r0
    8e8c:	ebfffff2 	bl	8e5c <delay_us>
    8e90:	e8bd8008 	pop	{r3, pc}

00008e94 <delay_sec>:
    8e94:	e92d4008 	push	{r3, lr}
    8e98:	e3a03ffa 	mov	r3, #1000	; 0x3e8
    8e9c:	e0000093 	mul	r0, r3, r0
    8ea0:	ebfffff6 	bl	8e80 <delay_ms>
    8ea4:	e8bd8008 	pop	{r3, pc}

00008ea8 <gpio_set_output>:
    8ea8:	e92d4038 	push	{r3, r4, r5, lr}
    8eac:	e1a04000 	mov	r4, r0
    8eb0:	e350001f 	cmp	r0, #31
    8eb4:	88bd8038 	pophi	{r3, r4, r5, pc}
    8eb8:	e59f30b4 	ldr	r3, [pc, #180]	; 8f74 <gpio_set_output+0xcc>
    8ebc:	e0832093 	umull	r2, r3, r3, r0
    8ec0:	e1a031a3 	lsr	r3, r3, #3
    8ec4:	e3530005 	cmp	r3, #5
    8ec8:	979ff103 	ldrls	pc, [pc, r3, lsl #2]
    8ecc:	ea000017 	b	8f30 <gpio_set_output+0x88>
    8ed0:	00008ee8 	andeq	r8, r0, r8, ror #29
    8ed4:	00008ef4 	strdeq	r8, [r0], -r4
    8ed8:	00008f00 	andeq	r8, r0, r0, lsl #30
    8edc:	00008f0c 	andeq	r8, r0, ip, lsl #30
    8ee0:	00008f18 	andeq	r8, r0, r8, lsl pc
    8ee4:	00008f24 	andeq	r8, r0, r4, lsr #30
    8ee8:	e59f3088 	ldr	r3, [pc, #136]	; 8f78 <gpio_set_output+0xd0>
    8eec:	e5935000 	ldr	r5, [r3]
    8ef0:	ea00000f 	b	8f34 <gpio_set_output+0x8c>
    8ef4:	e59f307c 	ldr	r3, [pc, #124]	; 8f78 <gpio_set_output+0xd0>
    8ef8:	e5935004 	ldr	r5, [r3, #4]
    8efc:	ea00000c 	b	8f34 <gpio_set_output+0x8c>
    8f00:	e59f3070 	ldr	r3, [pc, #112]	; 8f78 <gpio_set_output+0xd0>
    8f04:	e5935008 	ldr	r5, [r3, #8]
    8f08:	ea000009 	b	8f34 <gpio_set_output+0x8c>
    8f0c:	e59f3064 	ldr	r3, [pc, #100]	; 8f78 <gpio_set_output+0xd0>
    8f10:	e593500c 	ldr	r5, [r3, #12]
    8f14:	ea000006 	b	8f34 <gpio_set_output+0x8c>
    8f18:	e59f3058 	ldr	r3, [pc, #88]	; 8f78 <gpio_set_output+0xd0>
    8f1c:	e5935010 	ldr	r5, [r3, #16]
    8f20:	ea000003 	b	8f34 <gpio_set_output+0x8c>
    8f24:	e59f304c 	ldr	r3, [pc, #76]	; 8f78 <gpio_set_output+0xd0>
    8f28:	e5935014 	ldr	r5, [r3, #20]
    8f2c:	ea000000 	b	8f34 <gpio_set_output+0x8c>
    8f30:	e3a05000 	mov	r5, #0
    8f34:	e1a00005 	mov	r0, r5
    8f38:	eb000343 	bl	9c4c <get32>
    8f3c:	e59f1030 	ldr	r1, [pc, #48]	; 8f74 <gpio_set_output+0xcc>
    8f40:	e0813491 	umull	r3, r1, r1, r4
    8f44:	e1a011a1 	lsr	r1, r1, #3
    8f48:	e0811101 	add	r1, r1, r1, lsl #2
    8f4c:	e1a01081 	lsl	r1, r1, #1
    8f50:	e0611004 	rsb	r1, r1, r4
    8f54:	e0811081 	add	r1, r1, r1, lsl #1
    8f58:	e3a03007 	mov	r3, #7
    8f5c:	e1c03113 	bic	r3, r0, r3, lsl r1
    8f60:	e1a00005 	mov	r0, r5
    8f64:	e3a02001 	mov	r2, #1
    8f68:	e1831112 	orr	r1, r3, r2, lsl r1
    8f6c:	eb00032a 	bl	9c1c <put32>
    8f70:	e8bd8038 	pop	{r3, r4, r5, pc}
    8f74:	cccccccd 	stclgt	12, cr12, [ip], {205}	; 0xcd
    8f78:	00009ce0 	andeq	r9, r0, r0, ror #25

00008f7c <gpio_set_on>:
    8f7c:	e92d4008 	push	{r3, lr}
    8f80:	e350001f 	cmp	r0, #31
    8f84:	88bd8008 	pophi	{r3, pc}
    8f88:	959f3020 	ldrls	r3, [pc, #32]	; 8fb0 <gpio_set_on+0x34>
    8f8c:	95932018 	ldrls	r2, [r3, #24]
    8f90:	859f3018 	ldrhi	r3, [pc, #24]	; 8fb0 <gpio_set_on+0x34>
    8f94:	8593201c 	ldrhi	r2, [r3, #28]
    8f98:	e200301f 	and	r3, r0, #31
    8f9c:	e1a00002 	mov	r0, r2
    8fa0:	e3a01001 	mov	r1, #1
    8fa4:	e1a01311 	lsl	r1, r1, r3
    8fa8:	eb00031b 	bl	9c1c <put32>
    8fac:	e8bd8008 	pop	{r3, pc}
    8fb0:	00009ce0 	andeq	r9, r0, r0, ror #25

00008fb4 <gpio_set_off>:
    8fb4:	e92d4008 	push	{r3, lr}
    8fb8:	e350001f 	cmp	r0, #31
    8fbc:	88bd8008 	pophi	{r3, pc}
    8fc0:	959f3020 	ldrls	r3, [pc, #32]	; 8fe8 <gpio_set_off+0x34>
    8fc4:	95932020 	ldrls	r2, [r3, #32]
    8fc8:	859f3018 	ldrhi	r3, [pc, #24]	; 8fe8 <gpio_set_off+0x34>
    8fcc:	85932024 	ldrhi	r2, [r3, #36]	; 0x24
    8fd0:	e200301f 	and	r3, r0, #31
    8fd4:	e1a00002 	mov	r0, r2
    8fd8:	e3a01001 	mov	r1, #1
    8fdc:	e1a01311 	lsl	r1, r1, r3
    8fe0:	eb00030d 	bl	9c1c <put32>
    8fe4:	e8bd8008 	pop	{r3, pc}
    8fe8:	00009ce0 	andeq	r9, r0, r0, ror #25

00008fec <gpio_set_input>:
    8fec:	e92d4038 	push	{r3, r4, r5, lr}
    8ff0:	e1a04000 	mov	r4, r0
    8ff4:	e350001f 	cmp	r0, #31
    8ff8:	88bd8038 	pophi	{r3, r4, r5, pc}
    8ffc:	e59f30ac 	ldr	r3, [pc, #172]	; 90b0 <gpio_set_input+0xc4>
    9000:	e0832093 	umull	r2, r3, r3, r0
    9004:	e1a031a3 	lsr	r3, r3, #3
    9008:	e3530005 	cmp	r3, #5
    900c:	979ff103 	ldrls	pc, [pc, r3, lsl #2]
    9010:	ea000017 	b	9074 <gpio_set_input+0x88>
    9014:	0000902c 	andeq	r9, r0, ip, lsr #32
    9018:	00009038 	andeq	r9, r0, r8, lsr r0
    901c:	00009044 	andeq	r9, r0, r4, asr #32
    9020:	00009050 	andeq	r9, r0, r0, asr r0
    9024:	0000905c 	andeq	r9, r0, ip, asr r0
    9028:	00009068 	andeq	r9, r0, r8, rrx
    902c:	e59f3080 	ldr	r3, [pc, #128]	; 90b4 <gpio_set_input+0xc8>
    9030:	e5935000 	ldr	r5, [r3]
    9034:	ea00000f 	b	9078 <gpio_set_input+0x8c>
    9038:	e59f3074 	ldr	r3, [pc, #116]	; 90b4 <gpio_set_input+0xc8>
    903c:	e5935004 	ldr	r5, [r3, #4]
    9040:	ea00000c 	b	9078 <gpio_set_input+0x8c>
    9044:	e59f3068 	ldr	r3, [pc, #104]	; 90b4 <gpio_set_input+0xc8>
    9048:	e5935008 	ldr	r5, [r3, #8]
    904c:	ea000009 	b	9078 <gpio_set_input+0x8c>
    9050:	e59f305c 	ldr	r3, [pc, #92]	; 90b4 <gpio_set_input+0xc8>
    9054:	e593500c 	ldr	r5, [r3, #12]
    9058:	ea000006 	b	9078 <gpio_set_input+0x8c>
    905c:	e59f3050 	ldr	r3, [pc, #80]	; 90b4 <gpio_set_input+0xc8>
    9060:	e5935010 	ldr	r5, [r3, #16]
    9064:	ea000003 	b	9078 <gpio_set_input+0x8c>
    9068:	e59f3044 	ldr	r3, [pc, #68]	; 90b4 <gpio_set_input+0xc8>
    906c:	e5935014 	ldr	r5, [r3, #20]
    9070:	ea000000 	b	9078 <gpio_set_input+0x8c>
    9074:	e3a05000 	mov	r5, #0
    9078:	e1a00005 	mov	r0, r5
    907c:	eb0002f2 	bl	9c4c <get32>
    9080:	e59f1028 	ldr	r1, [pc, #40]	; 90b0 <gpio_set_input+0xc4>
    9084:	e0813491 	umull	r3, r1, r1, r4
    9088:	e1a011a1 	lsr	r1, r1, #3
    908c:	e0811101 	add	r1, r1, r1, lsl #2
    9090:	e1a01081 	lsl	r1, r1, #1
    9094:	e0611004 	rsb	r1, r1, r4
    9098:	e0811081 	add	r1, r1, r1, lsl #1
    909c:	e3a03007 	mov	r3, #7
    90a0:	e1c01113 	bic	r1, r0, r3, lsl r1
    90a4:	e1a00005 	mov	r0, r5
    90a8:	eb0002db 	bl	9c1c <put32>
    90ac:	e8bd8038 	pop	{r3, r4, r5, pc}
    90b0:	cccccccd 	stclgt	12, cr12, [ip], {205}	; 0xcd
    90b4:	00009ce0 	andeq	r9, r0, r0, ror #25

000090b8 <gpio_read>:
    90b8:	e92d4010 	push	{r4, lr}
    90bc:	e1a04000 	mov	r4, r0
    90c0:	e350001f 	cmp	r0, #31
    90c4:	8a00000b 	bhi	90f8 <gpio_read+0x40>
    90c8:	8a000003 	bhi	90dc <gpio_read+0x24>
    90cc:	e59f302c 	ldr	r3, [pc, #44]	; 9100 <gpio_read+0x48>
    90d0:	e5930028 	ldr	r0, [r3, #40]	; 0x28
    90d4:	eb0002dc 	bl	9c4c <get32>
    90d8:	ea000002 	b	90e8 <gpio_read+0x30>
    90dc:	e59f301c 	ldr	r3, [pc, #28]	; 9100 <gpio_read+0x48>
    90e0:	e593002c 	ldr	r0, [r3, #44]	; 0x2c
    90e4:	eb0002d8 	bl	9c4c <get32>
    90e8:	e204401f 	and	r4, r4, #31
    90ec:	e3a03001 	mov	r3, #1
    90f0:	e0000413 	and	r0, r0, r3, lsl r4
    90f4:	e8bd8010 	pop	{r4, pc}
    90f8:	e3e00000 	mvn	r0, #0
    90fc:	e8bd8010 	pop	{r4, pc}
    9100:	00009ce0 	andeq	r9, r0, r0, ror #25

00009104 <gpio_write>:
    9104:	e92d4008 	push	{r3, lr}
    9108:	e350001f 	cmp	r0, #31
    910c:	88bd8008 	pophi	{r3, pc}
    9110:	e3510000 	cmp	r1, #0
    9114:	0a000001 	beq	9120 <gpio_write+0x1c>
    9118:	ebffff97 	bl	8f7c <gpio_set_on>
    911c:	e8bd8008 	pop	{r3, pc}
    9120:	ebffffa3 	bl	8fb4 <gpio_set_off>
    9124:	e8bd8008 	pop	{r3, pc}

00009128 <gpio_set_function>:
    9128:	e92d4070 	push	{r4, r5, r6, lr}
    912c:	e1a04000 	mov	r4, r0
    9130:	e1a05001 	mov	r5, r1
    9134:	e3510007 	cmp	r1, #7
    9138:	9350001f 	cmpls	r0, #31
    913c:	88bd8070 	pophi	{r4, r5, r6, pc}
    9140:	e59f30b0 	ldr	r3, [pc, #176]	; 91f8 <gpio_set_function+0xd0>
    9144:	e0832093 	umull	r2, r3, r3, r0
    9148:	e1a031a3 	lsr	r3, r3, #3
    914c:	e3530005 	cmp	r3, #5
    9150:	979ff103 	ldrls	pc, [pc, r3, lsl #2]
    9154:	ea000017 	b	91b8 <gpio_set_function+0x90>
    9158:	00009170 	andeq	r9, r0, r0, ror r1
    915c:	0000917c 	andeq	r9, r0, ip, ror r1
    9160:	00009188 	andeq	r9, r0, r8, lsl #3
    9164:	00009194 	muleq	r0, r4, r1
    9168:	000091a0 	andeq	r9, r0, r0, lsr #3
    916c:	000091ac 	andeq	r9, r0, ip, lsr #3
    9170:	e59f3084 	ldr	r3, [pc, #132]	; 91fc <gpio_set_function+0xd4>
    9174:	e5936000 	ldr	r6, [r3]
    9178:	ea00000f 	b	91bc <gpio_set_function+0x94>
    917c:	e59f3078 	ldr	r3, [pc, #120]	; 91fc <gpio_set_function+0xd4>
    9180:	e5936004 	ldr	r6, [r3, #4]
    9184:	ea00000c 	b	91bc <gpio_set_function+0x94>
    9188:	e59f306c 	ldr	r3, [pc, #108]	; 91fc <gpio_set_function+0xd4>
    918c:	e5936008 	ldr	r6, [r3, #8]
    9190:	ea000009 	b	91bc <gpio_set_function+0x94>
    9194:	e59f3060 	ldr	r3, [pc, #96]	; 91fc <gpio_set_function+0xd4>
    9198:	e593600c 	ldr	r6, [r3, #12]
    919c:	ea000006 	b	91bc <gpio_set_function+0x94>
    91a0:	e59f3054 	ldr	r3, [pc, #84]	; 91fc <gpio_set_function+0xd4>
    91a4:	e5936010 	ldr	r6, [r3, #16]
    91a8:	ea000003 	b	91bc <gpio_set_function+0x94>
    91ac:	e59f3048 	ldr	r3, [pc, #72]	; 91fc <gpio_set_function+0xd4>
    91b0:	e5936014 	ldr	r6, [r3, #20]
    91b4:	ea000000 	b	91bc <gpio_set_function+0x94>
    91b8:	e3a06000 	mov	r6, #0
    91bc:	e1a00006 	mov	r0, r6
    91c0:	eb0002a1 	bl	9c4c <get32>
    91c4:	e59f302c 	ldr	r3, [pc, #44]	; 91f8 <gpio_set_function+0xd0>
    91c8:	e0832493 	umull	r2, r3, r3, r4
    91cc:	e1a031a3 	lsr	r3, r3, #3
    91d0:	e0833103 	add	r3, r3, r3, lsl #2
    91d4:	e1a03083 	lsl	r3, r3, #1
    91d8:	e0633004 	rsb	r3, r3, r4
    91dc:	e0833083 	add	r3, r3, r3, lsl #1
    91e0:	e3a01007 	mov	r1, #7
    91e4:	e1c01311 	bic	r1, r0, r1, lsl r3
    91e8:	e1a00006 	mov	r0, r6
    91ec:	e1811315 	orr	r1, r1, r5, lsl r3
    91f0:	eb000289 	bl	9c1c <put32>
    91f4:	e8bd8070 	pop	{r4, r5, r6, pc}
    91f8:	cccccccd 	stclgt	12, cr12, [ip], {205}	; 0xcd
    91fc:	00009ce0 	andeq	r9, r0, r0, ror #25

00009200 <gpio_toggle>:
    9200:	e92d4008 	push	{r3, lr}
    9204:	e350001f 	cmp	r0, #31
    9208:	88bd8008 	pophi	{r3, pc}
    920c:	959f3020 	ldrls	r3, [pc, #32]	; 9234 <gpio_toggle+0x34>
    9210:	95932018 	ldrls	r2, [r3, #24]
    9214:	859f3018 	ldrhi	r3, [pc, #24]	; 9234 <gpio_toggle+0x34>
    9218:	8593201c 	ldrhi	r2, [r3, #28]
    921c:	e200301f 	and	r3, r0, #31
    9220:	e1a00002 	mov	r0, r2
    9224:	e3a01001 	mov	r1, #1
    9228:	e1a01311 	lsl	r1, r1, r3
    922c:	eb00027a 	bl	9c1c <put32>
    9230:	e8bd8008 	pop	{r3, pc}
    9234:	00009ce0 	andeq	r9, r0, r0, ror #25

00009238 <is_gpio_int>:
    9238:	e92d4008 	push	{r3, lr}
    923c:	e59f301c 	ldr	r3, [pc, #28]	; 9260 <is_gpio_int+0x28>
    9240:	e5930030 	ldr	r0, [r3, #48]	; 0x30
    9244:	eb000280 	bl	9c4c <get32>
    9248:	e3500000 	cmp	r0, #0
    924c:	0a000001 	beq	9258 <is_gpio_int+0x20>
    9250:	e3a00001 	mov	r0, #1
    9254:	e8bd8008 	pop	{r3, pc}
    9258:	e3a00000 	mov	r0, #0
    925c:	e8bd8008 	pop	{r3, pc}
    9260:	00009ce0 	andeq	r9, r0, r0, ror #25

00009264 <gpio_int_rising_edge>:
    9264:	e92d4038 	push	{r3, r4, r5, lr}
    9268:	e1a04000 	mov	r4, r0
    926c:	e350001f 	cmp	r0, #31
    9270:	88bd8038 	pophi	{r3, r4, r5, pc}
    9274:	eb000262 	bl	9c04 <dev_barrier>
    9278:	e354001f 	cmp	r4, #31
    927c:	8a000007 	bhi	92a0 <gpio_int_rising_edge+0x3c>
    9280:	e59f505c 	ldr	r5, [pc, #92]	; 92e4 <gpio_int_rising_edge+0x80>
    9284:	e5950034 	ldr	r0, [r5, #52]	; 0x34
    9288:	eb00026f 	bl	9c4c <get32>
    928c:	e3a01001 	mov	r1, #1
    9290:	e1801411 	orr	r1, r0, r1, lsl r4
    9294:	e5950034 	ldr	r0, [r5, #52]	; 0x34
    9298:	eb00025f 	bl	9c1c <put32>
    929c:	ea000007 	b	92c0 <gpio_int_rising_edge+0x5c>
    92a0:	e59f503c 	ldr	r5, [pc, #60]	; 92e4 <gpio_int_rising_edge+0x80>
    92a4:	e5950038 	ldr	r0, [r5, #56]	; 0x38
    92a8:	eb000267 	bl	9c4c <get32>
    92ac:	e204401f 	and	r4, r4, #31
    92b0:	e3a01001 	mov	r1, #1
    92b4:	e1801411 	orr	r1, r0, r1, lsl r4
    92b8:	e5950038 	ldr	r0, [r5, #56]	; 0x38
    92bc:	eb000256 	bl	9c1c <put32>
    92c0:	eb00024f 	bl	9c04 <dev_barrier>
    92c4:	e59f4018 	ldr	r4, [pc, #24]	; 92e4 <gpio_int_rising_edge+0x80>
    92c8:	e594003c 	ldr	r0, [r4, #60]	; 0x3c
    92cc:	eb00025e 	bl	9c4c <get32>
    92d0:	e3801802 	orr	r1, r0, #131072	; 0x20000
    92d4:	e594003c 	ldr	r0, [r4, #60]	; 0x3c
    92d8:	eb00024f 	bl	9c1c <put32>
    92dc:	eb000248 	bl	9c04 <dev_barrier>
    92e0:	e8bd8038 	pop	{r3, r4, r5, pc}
    92e4:	00009ce0 	andeq	r9, r0, r0, ror #25

000092e8 <gpio_int_falling_edge>:
    92e8:	e92d4038 	push	{r3, r4, r5, lr}
    92ec:	e1a04000 	mov	r4, r0
    92f0:	e350001f 	cmp	r0, #31
    92f4:	88bd8038 	pophi	{r3, r4, r5, pc}
    92f8:	eb000241 	bl	9c04 <dev_barrier>
    92fc:	e354001f 	cmp	r4, #31
    9300:	8a000007 	bhi	9324 <gpio_int_falling_edge+0x3c>
    9304:	e59f505c 	ldr	r5, [pc, #92]	; 9368 <gpio_int_falling_edge+0x80>
    9308:	e5950040 	ldr	r0, [r5, #64]	; 0x40
    930c:	eb00024e 	bl	9c4c <get32>
    9310:	e3a01001 	mov	r1, #1
    9314:	e1801411 	orr	r1, r0, r1, lsl r4
    9318:	e5950040 	ldr	r0, [r5, #64]	; 0x40
    931c:	eb00023e 	bl	9c1c <put32>
    9320:	ea000007 	b	9344 <gpio_int_falling_edge+0x5c>
    9324:	e59f503c 	ldr	r5, [pc, #60]	; 9368 <gpio_int_falling_edge+0x80>
    9328:	e5950044 	ldr	r0, [r5, #68]	; 0x44
    932c:	eb000246 	bl	9c4c <get32>
    9330:	e204401f 	and	r4, r4, #31
    9334:	e3a01001 	mov	r1, #1
    9338:	e1801411 	orr	r1, r0, r1, lsl r4
    933c:	e5950044 	ldr	r0, [r5, #68]	; 0x44
    9340:	eb000235 	bl	9c1c <put32>
    9344:	eb00022e 	bl	9c04 <dev_barrier>
    9348:	e59f4018 	ldr	r4, [pc, #24]	; 9368 <gpio_int_falling_edge+0x80>
    934c:	e594003c 	ldr	r0, [r4, #60]	; 0x3c
    9350:	eb00023d 	bl	9c4c <get32>
    9354:	e3801601 	orr	r1, r0, #1048576	; 0x100000
    9358:	e594003c 	ldr	r0, [r4, #60]	; 0x3c
    935c:	eb00022e 	bl	9c1c <put32>
    9360:	eb000227 	bl	9c04 <dev_barrier>
    9364:	e8bd8038 	pop	{r3, r4, r5, pc}
    9368:	00009ce0 	andeq	r9, r0, r0, ror #25

0000936c <gpio_event_detected>:
    936c:	e92d4010 	push	{r4, lr}
    9370:	e1a04000 	mov	r4, r0
    9374:	e350001f 	cmp	r0, #31
    9378:	8a000019 	bhi	93e4 <gpio_event_detected+0x78>
    937c:	eb000220 	bl	9c04 <dev_barrier>
    9380:	e354001f 	cmp	r4, #31
    9384:	8a000008 	bhi	93ac <gpio_event_detected+0x40>
    9388:	e59f305c 	ldr	r3, [pc, #92]	; 93ec <gpio_event_detected+0x80>
    938c:	e5930048 	ldr	r0, [r3, #72]	; 0x48
    9390:	eb00022d 	bl	9c4c <get32>
    9394:	e3a03001 	mov	r3, #1
    9398:	e0103413 	ands	r3, r0, r3, lsl r4
    939c:	0a00000d 	beq	93d8 <gpio_event_detected+0x6c>
    93a0:	eb000217 	bl	9c04 <dev_barrier>
    93a4:	e3a00001 	mov	r0, #1
    93a8:	e8bd8010 	pop	{r4, pc}
    93ac:	e59f3038 	ldr	r3, [pc, #56]	; 93ec <gpio_event_detected+0x80>
    93b0:	e593004c 	ldr	r0, [r3, #76]	; 0x4c
    93b4:	eb000224 	bl	9c4c <get32>
    93b8:	e3a03001 	mov	r3, #1
    93bc:	e0004413 	and	r4, r0, r3, lsl r4
    93c0:	eb00020f 	bl	9c04 <dev_barrier>
    93c4:	e3540000 	cmp	r4, #0
    93c8:	0a000002 	beq	93d8 <gpio_event_detected+0x6c>
    93cc:	eb00020c 	bl	9c04 <dev_barrier>
    93d0:	e3a00001 	mov	r0, #1
    93d4:	e8bd8010 	pop	{r4, pc}
    93d8:	eb000209 	bl	9c04 <dev_barrier>
    93dc:	e3a00000 	mov	r0, #0
    93e0:	e8bd8010 	pop	{r4, pc}
    93e4:	e3e00000 	mvn	r0, #0
    93e8:	e8bd8010 	pop	{r4, pc}
    93ec:	00009ce0 	andeq	r9, r0, r0, ror #25

000093f0 <gpio_event_clear>:
    93f0:	e92d4010 	push	{r4, lr}
    93f4:	e1a04000 	mov	r4, r0
    93f8:	e350001f 	cmp	r0, #31
    93fc:	88bd8010 	pophi	{r4, pc}
    9400:	eb0001ff 	bl	9c04 <dev_barrier>
    9404:	e354001f 	cmp	r4, #31
    9408:	8a000005 	bhi	9424 <gpio_event_clear+0x34>
    940c:	e59f3030 	ldr	r3, [pc, #48]	; 9444 <gpio_event_clear+0x54>
    9410:	e5930048 	ldr	r0, [r3, #72]	; 0x48
    9414:	e3a01001 	mov	r1, #1
    9418:	e1a01411 	lsl	r1, r1, r4
    941c:	eb0001fe 	bl	9c1c <put32>
    9420:	ea000005 	b	943c <gpio_event_clear+0x4c>
    9424:	e204401f 	and	r4, r4, #31
    9428:	e59f3014 	ldr	r3, [pc, #20]	; 9444 <gpio_event_clear+0x54>
    942c:	e593004c 	ldr	r0, [r3, #76]	; 0x4c
    9430:	e3a01001 	mov	r1, #1
    9434:	e1a01411 	lsl	r1, r1, r4
    9438:	eb0001f7 	bl	9c1c <put32>
    943c:	eb0001f0 	bl	9c04 <dev_barrier>
    9440:	e8bd8010 	pop	{r4, pc}
    9444:	00009ce0 	andeq	r9, r0, r0, ror #25

00009448 <sw_uart_putc>:
    9448:	e92d41f0 	push	{r4, r5, r6, r7, r8, lr}
    944c:	e1a07001 	mov	r7, r1
    9450:	e5d06000 	ldrb	r6, [r0]
    9454:	e5905008 	ldr	r5, [r0, #8]
    9458:	ee1f4f3c 	mrc	15, 0, r4, cr15, cr12, {1}
    945c:	e1a00006 	mov	r0, r6
    9460:	e3a01000 	mov	r1, #0
    9464:	ebffff26 	bl	9104 <gpio_write>
    9468:	ee1f3f3c 	mrc	15, 0, r3, cr15, cr12, {1}
    946c:	e0643003 	rsb	r3, r4, r3
    9470:	e1550003 	cmp	r5, r3
    9474:	8afffffb 	bhi	9468 <sw_uart_putc+0x20>
    9478:	e1a08085 	lsl	r8, r5, #1
    947c:	e1a00006 	mov	r0, r6
    9480:	e2071001 	and	r1, r7, #1
    9484:	ebffff1e 	bl	9104 <gpio_write>
    9488:	ee1f3f3c 	mrc	15, 0, r3, cr15, cr12, {1}
    948c:	e0643003 	rsb	r3, r4, r3
    9490:	e1580003 	cmp	r8, r3
    9494:	8afffffb 	bhi	9488 <sw_uart_putc+0x40>
    9498:	e0888005 	add	r8, r8, r5
    949c:	e1a00006 	mov	r0, r6
    94a0:	e2071002 	and	r1, r7, #2
    94a4:	ebffff16 	bl	9104 <gpio_write>
    94a8:	ee1f3f3c 	mrc	15, 0, r3, cr15, cr12, {1}
    94ac:	e0643003 	rsb	r3, r4, r3
    94b0:	e1580003 	cmp	r8, r3
    94b4:	8afffffb 	bhi	94a8 <sw_uart_putc+0x60>
    94b8:	e0888005 	add	r8, r8, r5
    94bc:	e1a00006 	mov	r0, r6
    94c0:	e2071004 	and	r1, r7, #4
    94c4:	ebffff0e 	bl	9104 <gpio_write>
    94c8:	ee1f3f3c 	mrc	15, 0, r3, cr15, cr12, {1}
    94cc:	e0643003 	rsb	r3, r4, r3
    94d0:	e1580003 	cmp	r8, r3
    94d4:	8afffffb 	bhi	94c8 <sw_uart_putc+0x80>
    94d8:	e0888005 	add	r8, r8, r5
    94dc:	e1a00006 	mov	r0, r6
    94e0:	e2071008 	and	r1, r7, #8
    94e4:	ebffff06 	bl	9104 <gpio_write>
    94e8:	ee1f3f3c 	mrc	15, 0, r3, cr15, cr12, {1}
    94ec:	e0643003 	rsb	r3, r4, r3
    94f0:	e1580003 	cmp	r8, r3
    94f4:	8afffffb 	bhi	94e8 <sw_uart_putc+0xa0>
    94f8:	e0888005 	add	r8, r8, r5
    94fc:	e1a00006 	mov	r0, r6
    9500:	e2071010 	and	r1, r7, #16
    9504:	ebfffefe 	bl	9104 <gpio_write>
    9508:	ee1f3f3c 	mrc	15, 0, r3, cr15, cr12, {1}
    950c:	e0643003 	rsb	r3, r4, r3
    9510:	e1580003 	cmp	r8, r3
    9514:	8afffffb 	bhi	9508 <sw_uart_putc+0xc0>
    9518:	e0888005 	add	r8, r8, r5
    951c:	e1a00006 	mov	r0, r6
    9520:	e2071020 	and	r1, r7, #32
    9524:	ebfffef6 	bl	9104 <gpio_write>
    9528:	ee1f3f3c 	mrc	15, 0, r3, cr15, cr12, {1}
    952c:	e0643003 	rsb	r3, r4, r3
    9530:	e1580003 	cmp	r8, r3
    9534:	8afffffb 	bhi	9528 <sw_uart_putc+0xe0>
    9538:	e0888005 	add	r8, r8, r5
    953c:	e1a00006 	mov	r0, r6
    9540:	e2071040 	and	r1, r7, #64	; 0x40
    9544:	ebfffeee 	bl	9104 <gpio_write>
    9548:	ee1f3f3c 	mrc	15, 0, r3, cr15, cr12, {1}
    954c:	e0643003 	rsb	r3, r4, r3
    9550:	e1580003 	cmp	r8, r3
    9554:	8afffffb 	bhi	9548 <sw_uart_putc+0x100>
    9558:	e0888005 	add	r8, r8, r5
    955c:	e1a00006 	mov	r0, r6
    9560:	e2071080 	and	r1, r7, #128	; 0x80
    9564:	ebfffee6 	bl	9104 <gpio_write>
    9568:	ee1f3f3c 	mrc	15, 0, r3, cr15, cr12, {1}
    956c:	e0643003 	rsb	r3, r4, r3
    9570:	e1580003 	cmp	r8, r3
    9574:	8afffffb 	bhi	9568 <sw_uart_putc+0x120>
    9578:	e0885005 	add	r5, r8, r5
    957c:	e1a00006 	mov	r0, r6
    9580:	e3a01001 	mov	r1, #1
    9584:	ebfffede 	bl	9104 <gpio_write>
    9588:	ee1f3f3c 	mrc	15, 0, r3, cr15, cr12, {1}
    958c:	e0643003 	rsb	r3, r4, r3
    9590:	e1550003 	cmp	r5, r3
    9594:	8afffffb 	bhi	9588 <sw_uart_putc+0x140>
    9598:	e8bd81f0 	pop	{r4, r5, r6, r7, r8, pc}

0000959c <sw_uart_getc_timeout>:
    959c:	e92d43f8 	push	{r3, r4, r5, r6, r7, r8, r9, lr}
    95a0:	e1a09000 	mov	r9, r0
    95a4:	e5d07001 	ldrb	r7, [r0, #1]
    95a8:	e1a05007 	mov	r5, r7
    95ac:	e1a06001 	mov	r6, r1
    95b0:	ebfffe21 	bl	8e3c <timer_get_usec_raw>
    95b4:	e1a04000 	mov	r4, r0
    95b8:	e1a00005 	mov	r0, r5
    95bc:	ebfffebd 	bl	90b8 <gpio_read>
    95c0:	e3500000 	cmp	r0, #0
    95c4:	0a000005 	beq	95e0 <sw_uart_getc_timeout+0x44>
    95c8:	ebfffe1b 	bl	8e3c <timer_get_usec_raw>
    95cc:	e0640000 	rsb	r0, r4, r0
    95d0:	e1560000 	cmp	r6, r0
    95d4:	2afffff7 	bcs	95b8 <sw_uart_getc_timeout+0x1c>
    95d8:	e3a03000 	mov	r3, #0
    95dc:	ea000000 	b	95e4 <sw_uart_getc_timeout+0x48>
    95e0:	e3a03001 	mov	r3, #1
    95e4:	e3530000 	cmp	r3, #0
    95e8:	0a000059 	beq	9754 <sw_uart_getc_timeout+0x1b8>
    95ec:	ee1f8f3c 	mrc	15, 0, r8, cr15, cr12, {1}
    95f0:	e5994008 	ldr	r4, [r9, #8]
    95f4:	e08420a4 	add	r2, r4, r4, lsr #1
    95f8:	ee1f3f3c 	mrc	15, 0, r3, cr15, cr12, {1}
    95fc:	e0683003 	rsb	r3, r8, r3
    9600:	e1520003 	cmp	r2, r3
    9604:	8afffffb 	bhi	95f8 <sw_uart_getc_timeout+0x5c>
    9608:	e0888004 	add	r8, r8, r4
    960c:	e1a00007 	mov	r0, r7
    9610:	ebfffea8 	bl	90b8 <gpio_read>
    9614:	e1a09750 	asr	r9, r0, r7
    9618:	ee1f3f3c 	mrc	15, 0, r3, cr15, cr12, {1}
    961c:	e0683003 	rsb	r3, r8, r3
    9620:	e1540003 	cmp	r4, r3
    9624:	8afffffb 	bhi	9618 <sw_uart_getc_timeout+0x7c>
    9628:	e0888004 	add	r8, r8, r4
    962c:	e1a00007 	mov	r0, r7
    9630:	ebfffea0 	bl	90b8 <gpio_read>
    9634:	e1a00750 	asr	r0, r0, r7
    9638:	e1899080 	orr	r9, r9, r0, lsl #1
    963c:	ee1f3f3c 	mrc	15, 0, r3, cr15, cr12, {1}
    9640:	e0683003 	rsb	r3, r8, r3
    9644:	e1540003 	cmp	r4, r3
    9648:	8afffffb 	bhi	963c <sw_uart_getc_timeout+0xa0>
    964c:	e0888004 	add	r8, r8, r4
    9650:	e1a00007 	mov	r0, r7
    9654:	ebfffe97 	bl	90b8 <gpio_read>
    9658:	e1a00750 	asr	r0, r0, r7
    965c:	e1899100 	orr	r9, r9, r0, lsl #2
    9660:	ee1f3f3c 	mrc	15, 0, r3, cr15, cr12, {1}
    9664:	e0683003 	rsb	r3, r8, r3
    9668:	e1540003 	cmp	r4, r3
    966c:	8afffffb 	bhi	9660 <sw_uart_getc_timeout+0xc4>
    9670:	e0888004 	add	r8, r8, r4
    9674:	e1a00007 	mov	r0, r7
    9678:	ebfffe8e 	bl	90b8 <gpio_read>
    967c:	e1a00750 	asr	r0, r0, r7
    9680:	e1899180 	orr	r9, r9, r0, lsl #3
    9684:	ee1f3f3c 	mrc	15, 0, r3, cr15, cr12, {1}
    9688:	e0683003 	rsb	r3, r8, r3
    968c:	e1540003 	cmp	r4, r3
    9690:	8afffffb 	bhi	9684 <sw_uart_getc_timeout+0xe8>
    9694:	e0888004 	add	r8, r8, r4
    9698:	e1a00007 	mov	r0, r7
    969c:	ebfffe85 	bl	90b8 <gpio_read>
    96a0:	e1a00750 	asr	r0, r0, r7
    96a4:	e1899200 	orr	r9, r9, r0, lsl #4
    96a8:	ee1f3f3c 	mrc	15, 0, r3, cr15, cr12, {1}
    96ac:	e0683003 	rsb	r3, r8, r3
    96b0:	e1540003 	cmp	r4, r3
    96b4:	8afffffb 	bhi	96a8 <sw_uart_getc_timeout+0x10c>
    96b8:	e0888004 	add	r8, r8, r4
    96bc:	e1a00007 	mov	r0, r7
    96c0:	ebfffe7c 	bl	90b8 <gpio_read>
    96c4:	e1a00750 	asr	r0, r0, r7
    96c8:	e1899280 	orr	r9, r9, r0, lsl #5
    96cc:	ee1f3f3c 	mrc	15, 0, r3, cr15, cr12, {1}
    96d0:	e0683003 	rsb	r3, r8, r3
    96d4:	e1540003 	cmp	r4, r3
    96d8:	8afffffb 	bhi	96cc <sw_uart_getc_timeout+0x130>
    96dc:	e0888004 	add	r8, r8, r4
    96e0:	e1a00007 	mov	r0, r7
    96e4:	ebfffe73 	bl	90b8 <gpio_read>
    96e8:	e1a00750 	asr	r0, r0, r7
    96ec:	e1899300 	orr	r9, r9, r0, lsl #6
    96f0:	ee1f3f3c 	mrc	15, 0, r3, cr15, cr12, {1}
    96f4:	e0683003 	rsb	r3, r8, r3
    96f8:	e1540003 	cmp	r4, r3
    96fc:	8afffffb 	bhi	96f0 <sw_uart_getc_timeout+0x154>
    9700:	e1a00007 	mov	r0, r7
    9704:	ebfffe6b 	bl	90b8 <gpio_read>
    9708:	e1a00750 	asr	r0, r0, r7
    970c:	e1899380 	orr	r9, r9, r0, lsl #7
    9710:	ebfffdc9 	bl	8e3c <timer_get_usec_raw>
    9714:	e1a04000 	mov	r4, r0
    9718:	e1a00005 	mov	r0, r5
    971c:	ebfffe65 	bl	90b8 <gpio_read>
    9720:	e3500000 	cmp	r0, #0
    9724:	0a000005 	beq	9740 <sw_uart_getc_timeout+0x1a4>
    9728:	ebfffdc3 	bl	8e3c <timer_get_usec_raw>
    972c:	e0640000 	rsb	r0, r4, r0
    9730:	e1560000 	cmp	r6, r0
    9734:	2afffff7 	bcs	9718 <sw_uart_getc_timeout+0x17c>
    9738:	e3a03000 	mov	r3, #0
    973c:	ea000000 	b	9744 <sw_uart_getc_timeout+0x1a8>
    9740:	e3a03001 	mov	r3, #1
    9744:	e3530000 	cmp	r3, #0
    9748:	0a000003 	beq	975c <sw_uart_getc_timeout+0x1c0>
    974c:	e1a00009 	mov	r0, r9
    9750:	e8bd83f8 	pop	{r3, r4, r5, r6, r7, r8, r9, pc}
    9754:	e3e00000 	mvn	r0, #0
    9758:	e8bd83f8 	pop	{r3, r4, r5, r6, r7, r8, r9, pc}
    975c:	e3e00000 	mvn	r0, #0
    9760:	e8bd83f8 	pop	{r3, r4, r5, r6, r7, r8, r9, pc}

00009764 <sw_uart_gets_until>:
    9764:	e92d47f0 	push	{r4, r5, r6, r7, r8, r9, sl, lr}
    9768:	e24dd008 	sub	sp, sp, #8
    976c:	e1a08000 	mov	r8, r0
    9770:	e1a06001 	mov	r6, r1
    9774:	e1a09003 	mov	r9, r3
    9778:	e59da028 	ldr	sl, [sp, #40]	; 0x28
    977c:	e3520000 	cmp	r2, #0
    9780:	1a000008 	bne	97a8 <sw_uart_gets_until+0x44>
    9784:	ebfffbea 	bl	8734 <rpi_reset_putc>
    9788:	e59f3068 	ldr	r3, [pc, #104]	; 97f8 <sw_uart_gets_until+0x94>
    978c:	e58d3000 	str	r3, [sp]
    9790:	e59f0064 	ldr	r0, [pc, #100]	; 97fc <sw_uart_gets_until+0x98>
    9794:	e59f1064 	ldr	r1, [pc, #100]	; 9800 <sw_uart_gets_until+0x9c>
    9798:	e59f2064 	ldr	r2, [pc, #100]	; 9804 <sw_uart_gets_until+0xa0>
    979c:	e3a0306d 	mov	r3, #109	; 0x6d
    97a0:	ebfffbc8 	bl	86c8 <printk>
    97a4:	ebfffd4a 	bl	8cd4 <clean_reboot>
    97a8:	e3a04000 	mov	r4, #0
    97ac:	e5c14000 	strb	r4, [r1]
    97b0:	e2427001 	sub	r7, r2, #1
    97b4:	ea000007 	b	97d8 <sw_uart_gets_until+0x74>
    97b8:	e1a00008 	mov	r0, r8
    97bc:	e1a0100a 	mov	r1, sl
    97c0:	ebffff75 	bl	959c <sw_uart_getc_timeout>
    97c4:	e6ef0070 	uxtb	r0, r0
    97c8:	e1500009 	cmp	r0, r9
    97cc:	0a000004 	beq	97e4 <sw_uart_gets_until+0x80>
    97d0:	e7c60005 	strb	r0, [r6, r5]
    97d4:	e2844001 	add	r4, r4, #1
    97d8:	e1a05004 	mov	r5, r4
    97dc:	e1540007 	cmp	r4, r7
    97e0:	3afffff4 	bcc	97b8 <sw_uart_gets_until+0x54>
    97e4:	e3a03000 	mov	r3, #0
    97e8:	e7c63005 	strb	r3, [r6, r5]
    97ec:	e1a00004 	mov	r0, r4
    97f0:	e28dd008 	add	sp, sp, #8
    97f4:	e8bd87f0 	pop	{r4, r5, r6, r7, r8, r9, sl, pc}
    97f8:	00009fdc 	ldrdeq	r9, [r0], -ip
    97fc:	00009e50 	andeq	r9, r0, r0, asr lr
    9800:	00009fc8 	andeq	r9, r0, r8, asr #31
    9804:	00009f50 	andeq	r9, r0, r0, asr pc

00009808 <sw_uart_gets_timeout>:
    9808:	e92d41f0 	push	{r4, r5, r6, r7, r8, lr}
    980c:	e24dd008 	sub	sp, sp, #8
    9810:	e1a07000 	mov	r7, r0
    9814:	e1a05001 	mov	r5, r1
    9818:	e1a08003 	mov	r8, r3
    981c:	e3520000 	cmp	r2, #0
    9820:	1a000008 	bne	9848 <sw_uart_gets_timeout+0x40>
    9824:	ebfffbc2 	bl	8734 <rpi_reset_putc>
    9828:	e59f3058 	ldr	r3, [pc, #88]	; 9888 <sw_uart_gets_timeout+0x80>
    982c:	e58d3000 	str	r3, [sp]
    9830:	e59f0054 	ldr	r0, [pc, #84]	; 988c <sw_uart_gets_timeout+0x84>
    9834:	e59f1054 	ldr	r1, [pc, #84]	; 9890 <sw_uart_gets_timeout+0x88>
    9838:	e59f2054 	ldr	r2, [pc, #84]	; 9894 <sw_uart_gets_timeout+0x8c>
    983c:	e3a03083 	mov	r3, #131	; 0x83
    9840:	ebfffba0 	bl	86c8 <printk>
    9844:	ebfffd22 	bl	8cd4 <clean_reboot>
    9848:	e3a04000 	mov	r4, #0
    984c:	e5c14000 	strb	r4, [r1]
    9850:	e2426001 	sub	r6, r2, #1
    9854:	ea000004 	b	986c <sw_uart_gets_timeout+0x64>
    9858:	e1a00007 	mov	r0, r7
    985c:	e1a01008 	mov	r1, r8
    9860:	ebffff4d 	bl	959c <sw_uart_getc_timeout>
    9864:	e7c50004 	strb	r0, [r5, r4]
    9868:	e2844001 	add	r4, r4, #1
    986c:	e1540006 	cmp	r4, r6
    9870:	3afffff8 	bcc	9858 <sw_uart_gets_timeout+0x50>
    9874:	e3a03000 	mov	r3, #0
    9878:	e7c53004 	strb	r3, [r5, r4]
    987c:	e1a00004 	mov	r0, r4
    9880:	e28dd008 	add	sp, sp, #8
    9884:	e8bd81f0 	pop	{r4, r5, r6, r7, r8, pc}
    9888:	00009fdc 	ldrdeq	r9, [r0], -ip
    988c:	00009e50 	andeq	r9, r0, r0, asr lr
    9890:	00009fc8 	andeq	r9, r0, r8, asr #31
    9894:	00009f64 	andeq	r9, r0, r4, ror #30

00009898 <sw_uart_init_helper>:
    9898:	e92d41f0 	push	{r4, r5, r6, r7, r8, lr}
    989c:	e24dd008 	sub	sp, sp, #8
    98a0:	e1a04000 	mov	r4, r0
    98a4:	e1a06001 	mov	r6, r1
    98a8:	e1a08002 	mov	r8, r2
    98ac:	e1a05003 	mov	r5, r3
    98b0:	e59d7020 	ldr	r7, [sp, #32]
    98b4:	e1a00001 	mov	r0, r1
    98b8:	ebfffd7a 	bl	8ea8 <gpio_set_output>
    98bc:	e1a00008 	mov	r0, r8
    98c0:	ebfffdc9 	bl	8fec <gpio_set_input>
    98c4:	e3a03001 	mov	r3, #1
    98c8:	ee0f3f1c 	mcr	15, 0, r3, cr15, cr12, {0}
    98cc:	e1a00006 	mov	r0, r6
    98d0:	e3a01001 	mov	r1, #1
    98d4:	ebfffe0a 	bl	9104 <gpio_write>
    98d8:	e0020795 	mul	r2, r5, r7
    98dc:	e59f3074 	ldr	r3, [pc, #116]	; 9958 <sw_uart_init_helper+0xc0>
    98e0:	e0653003 	rsb	r3, r5, r3
    98e4:	e1530002 	cmp	r3, r2
    98e8:	8a000005 	bhi	9904 <sw_uart_init_helper+0x6c>
    98ec:	e59f3064 	ldr	r3, [pc, #100]	; 9958 <sw_uart_init_helper+0xc0>
    98f0:	e0853003 	add	r3, r5, r3
    98f4:	e1530002 	cmp	r3, r2
    98f8:	2a000003 	bcs	990c <sw_uart_init_helper+0x74>
    98fc:	e3a03000 	mov	r3, #0
    9900:	ea000002 	b	9910 <sw_uart_init_helper+0x78>
    9904:	e3a03000 	mov	r3, #0
    9908:	ea000000 	b	9910 <sw_uart_init_helper+0x78>
    990c:	e3a03001 	mov	r3, #1
    9910:	e3530000 	cmp	r3, #0
    9914:	1a000008 	bne	993c <sw_uart_init_helper+0xa4>
    9918:	ebfffb85 	bl	8734 <rpi_reset_putc>
    991c:	e59f3038 	ldr	r3, [pc, #56]	; 995c <sw_uart_init_helper+0xc4>
    9920:	e58d3000 	str	r3, [sp]
    9924:	e59f0034 	ldr	r0, [pc, #52]	; 9960 <sw_uart_init_helper+0xc8>
    9928:	e59f1034 	ldr	r1, [pc, #52]	; 9964 <sw_uart_init_helper+0xcc>
    992c:	e59f2034 	ldr	r2, [pc, #52]	; 9968 <sw_uart_init_helper+0xd0>
    9930:	e3a0309d 	mov	r3, #157	; 0x9d
    9934:	ebfffb63 	bl	86c8 <printk>
    9938:	ebfffce5 	bl	8cd4 <clean_reboot>
    993c:	e5c46000 	strb	r6, [r4]
    9940:	e5c48001 	strb	r8, [r4, #1]
    9944:	e5845004 	str	r5, [r4, #4]
    9948:	e5847008 	str	r7, [r4, #8]
    994c:	e1a00004 	mov	r0, r4
    9950:	e28dd008 	add	sp, sp, #8
    9954:	e8bd81f0 	pop	{r4, r5, r6, r7, r8, pc}
    9958:	29b92700 	ldmibcs	r9!, {r8, r9, sl, sp}
    995c:	00009fe8 	andeq	r9, r0, r8, ror #31
    9960:	00009e50 	andeq	r9, r0, r0, asr lr
    9964:	00009fc8 	andeq	r9, r0, r8, asr #31
    9968:	00009f7c 	andeq	r9, r0, ip, ror pc

0000996c <sw_uart_getc>:
    996c:	e92d4008 	push	{r3, lr}
    9970:	e3e01000 	mvn	r1, #0
    9974:	ebffff08 	bl	959c <sw_uart_getc_timeout>
    9978:	e3500000 	cmp	r0, #0
    997c:	a8bd8008 	popge	{r3, pc}
    9980:	ebfffb6b 	bl	8734 <rpi_reset_putc>
    9984:	e59f0010 	ldr	r0, [pc, #16]	; 999c <sw_uart_getc+0x30>
    9988:	e59f1010 	ldr	r1, [pc, #16]	; 99a0 <sw_uart_getc+0x34>
    998c:	e59f2010 	ldr	r2, [pc, #16]	; 99a4 <sw_uart_getc+0x38>
    9990:	e3a030ac 	mov	r3, #172	; 0xac
    9994:	ebfffb4b 	bl	86c8 <printk>
    9998:	ebfffccd 	bl	8cd4 <clean_reboot>
    999c:	0000a01c 	andeq	sl, r0, ip, lsl r0
    99a0:	00009fc8 	andeq	r9, r0, r8, asr #31
    99a4:	00009f90 	muleq	r0, r0, pc	; <UNPREDICTABLE>

000099a8 <sw_uart_putk>:
    99a8:	e92d4038 	push	{r3, r4, r5, lr}
    99ac:	e1a05000 	mov	r5, r0
    99b0:	e1a04001 	mov	r4, r1
    99b4:	ea000002 	b	99c4 <sw_uart_putk+0x1c>
    99b8:	e1a00005 	mov	r0, r5
    99bc:	ebfffea1 	bl	9448 <sw_uart_putc>
    99c0:	e2844001 	add	r4, r4, #1
    99c4:	e5d41000 	ldrb	r1, [r4]
    99c8:	e3510000 	cmp	r1, #0
    99cc:	1afffff9 	bne	99b8 <sw_uart_putk+0x10>
    99d0:	e8bd8038 	pop	{r3, r4, r5, pc}

000099d4 <sw_uart_printk>:
    99d4:	e92d000e 	push	{r1, r2, r3}
    99d8:	e92d4030 	push	{r4, r5, lr}
    99dc:	e24ddf76 	sub	sp, sp, #472	; 0x1d8
    99e0:	e1a05000 	mov	r5, r0
    99e4:	e28d3f7a 	add	r3, sp, #488	; 0x1e8
    99e8:	e58d3008 	str	r3, [sp, #8]
    99ec:	e28d000c 	add	r0, sp, #12
    99f0:	e3a01f73 	mov	r1, #460	; 0x1cc
    99f4:	e59d21e4 	ldr	r2, [sp, #484]	; 0x1e4
    99f8:	ebfffc08 	bl	8a20 <va_printk>
    99fc:	e1a04000 	mov	r4, r0
    9a00:	e59f3048 	ldr	r3, [pc, #72]	; 9a50 <sw_uart_printk+0x7c>
    9a04:	e1500003 	cmp	r0, r3
    9a08:	9a000008 	bls	9a30 <sw_uart_printk+0x5c>
    9a0c:	ebfffb48 	bl	8734 <rpi_reset_putc>
    9a10:	e59f303c 	ldr	r3, [pc, #60]	; 9a54 <sw_uart_printk+0x80>
    9a14:	e58d3000 	str	r3, [sp]
    9a18:	e59f0038 	ldr	r0, [pc, #56]	; 9a58 <sw_uart_printk+0x84>
    9a1c:	e59f1038 	ldr	r1, [pc, #56]	; 9a5c <sw_uart_printk+0x88>
    9a20:	e59f2038 	ldr	r2, [pc, #56]	; 9a60 <sw_uart_printk+0x8c>
    9a24:	e3a030c0 	mov	r3, #192	; 0xc0
    9a28:	ebfffb26 	bl	86c8 <printk>
    9a2c:	ebfffca8 	bl	8cd4 <clean_reboot>
    9a30:	e1a00005 	mov	r0, r5
    9a34:	e28d100c 	add	r1, sp, #12
    9a38:	ebffffda 	bl	99a8 <sw_uart_putk>
    9a3c:	e1a00004 	mov	r0, r4
    9a40:	e28ddf76 	add	sp, sp, #472	; 0x1d8
    9a44:	e8bd4030 	pop	{r4, r5, lr}
    9a48:	e28dd00c 	add	sp, sp, #12
    9a4c:	e12fff1e 	bx	lr
    9a50:	000001ca 	andeq	r0, r0, sl, asr #3
    9a54:	0000a054 	andeq	sl, r0, r4, asr r0
    9a58:	00009e50 	andeq	r9, r0, r0, asr lr
    9a5c:	00009fc8 	andeq	r9, r0, r8, asr #31
    9a60:	00009fa0 	andeq	r9, r0, r0, lsr #31

00009a64 <sw_uart_gets_until_blk>:
    9a64:	e52de004 	push	{lr}		; (str lr, [sp, #-4]!)
    9a68:	e24dd00c 	sub	sp, sp, #12
    9a6c:	e3e0c000 	mvn	ip, #0
    9a70:	e58dc000 	str	ip, [sp]
    9a74:	ebffff3a 	bl	9764 <sw_uart_gets_until>
    9a78:	e3500000 	cmp	r0, #0
    9a7c:	aa000006 	bge	9a9c <sw_uart_gets_until_blk+0x38>
    9a80:	ebfffb2b 	bl	8734 <rpi_reset_putc>
    9a84:	e59f0018 	ldr	r0, [pc, #24]	; 9aa4 <sw_uart_gets_until_blk+0x40>
    9a88:	e59f1018 	ldr	r1, [pc, #24]	; 9aa8 <sw_uart_gets_until_blk+0x44>
    9a8c:	e59f2018 	ldr	r2, [pc, #24]	; 9aac <sw_uart_gets_until_blk+0x48>
    9a90:	e3a030c8 	mov	r3, #200	; 0xc8
    9a94:	ebfffb0b 	bl	86c8 <printk>
    9a98:	ebfffc8d 	bl	8cd4 <clean_reboot>
    9a9c:	e28dd00c 	add	sp, sp, #12
    9aa0:	e49df004 	pop	{pc}		; (ldr pc, [sp], #4)
    9aa4:	0000a01c 	andeq	sl, r0, ip, lsl r0
    9aa8:	00009fc8 	andeq	r9, r0, r8, asr #31
    9aac:	00009fb0 			; <UNDEFINED> instruction: 0x00009fb0

00009ab0 <uart_init>:
    9ab0:	e92d4038 	push	{r3, r4, r5, lr}
    9ab4:	eb000052 	bl	9c04 <dev_barrier>
    9ab8:	e3a0000e 	mov	r0, #14
    9abc:	e3a01002 	mov	r1, #2
    9ac0:	ebfffd98 	bl	9128 <gpio_set_function>
    9ac4:	e3a0000f 	mov	r0, #15
    9ac8:	e3a01002 	mov	r1, #2
    9acc:	ebfffd95 	bl	9128 <gpio_set_function>
    9ad0:	eb00004b 	bl	9c04 <dev_barrier>
    9ad4:	e59f4068 	ldr	r4, [pc, #104]	; 9b44 <uart_init+0x94>
    9ad8:	e5945000 	ldr	r5, [r4]
    9adc:	e1a00005 	mov	r0, r5
    9ae0:	eb000059 	bl	9c4c <get32>
    9ae4:	e3801001 	orr	r1, r0, #1
    9ae8:	e1a00005 	mov	r0, r5
    9aec:	eb00004a 	bl	9c1c <put32>
    9af0:	eb000043 	bl	9c04 <dev_barrier>
    9af4:	e5940004 	ldr	r0, [r4, #4]
    9af8:	e3a01000 	mov	r1, #0
    9afc:	eb000046 	bl	9c1c <put32>
    9b00:	e5940008 	ldr	r0, [r4, #8]
    9b04:	e3a01000 	mov	r1, #0
    9b08:	eb000043 	bl	9c1c <put32>
    9b0c:	e594000c 	ldr	r0, [r4, #12]
    9b10:	e3a01006 	mov	r1, #6
    9b14:	eb000040 	bl	9c1c <put32>
    9b18:	e5940010 	ldr	r0, [r4, #16]
    9b1c:	e3a01003 	mov	r1, #3
    9b20:	eb00003d 	bl	9c1c <put32>
    9b24:	e5940014 	ldr	r0, [r4, #20]
    9b28:	e59f1018 	ldr	r1, [pc, #24]	; 9b48 <uart_init+0x98>
    9b2c:	eb00003a 	bl	9c1c <put32>
    9b30:	e5940004 	ldr	r0, [r4, #4]
    9b34:	e3a01003 	mov	r1, #3
    9b38:	eb000037 	bl	9c1c <put32>
    9b3c:	eb000030 	bl	9c04 <dev_barrier>
    9b40:	e8bd8038 	pop	{r3, r4, r5, pc}
    9b44:	00009d40 	andeq	r9, r0, r0, asr #26
    9b48:	0000010e 	andeq	r0, r0, lr, lsl #2

00009b4c <uart_can_getc>:
    9b4c:	e92d4008 	push	{r3, lr}
    9b50:	e59f300c 	ldr	r3, [pc, #12]	; 9b64 <uart_can_getc+0x18>
    9b54:	e5930018 	ldr	r0, [r3, #24]
    9b58:	eb00003b 	bl	9c4c <get32>
    9b5c:	e2000001 	and	r0, r0, #1
    9b60:	e8bd8008 	pop	{r3, pc}
    9b64:	00009d40 	andeq	r9, r0, r0, asr #26

00009b68 <uart_getc>:
    9b68:	e92d4008 	push	{r3, lr}
    9b6c:	ebfffff6 	bl	9b4c <uart_can_getc>
    9b70:	e3500000 	cmp	r0, #0
    9b74:	0afffffc 	beq	9b6c <uart_getc+0x4>
    9b78:	e59f300c 	ldr	r3, [pc, #12]	; 9b8c <uart_getc+0x24>
    9b7c:	e593001c 	ldr	r0, [r3, #28]
    9b80:	eb000031 	bl	9c4c <get32>
    9b84:	e6ef0070 	uxtb	r0, r0
    9b88:	e8bd8008 	pop	{r3, pc}
    9b8c:	00009d40 	andeq	r9, r0, r0, asr #26

00009b90 <uart_can_putc>:
    9b90:	e92d4008 	push	{r3, lr}
    9b94:	e59f300c 	ldr	r3, [pc, #12]	; 9ba8 <uart_can_putc+0x18>
    9b98:	e5930018 	ldr	r0, [r3, #24]
    9b9c:	eb00002a 	bl	9c4c <get32>
    9ba0:	e2000020 	and	r0, r0, #32
    9ba4:	e8bd8008 	pop	{r3, pc}
    9ba8:	00009d40 	andeq	r9, r0, r0, asr #26

00009bac <uart_putc>:
    9bac:	e92d4010 	push	{r4, lr}
    9bb0:	e1a04000 	mov	r4, r0
    9bb4:	ebfffff5 	bl	9b90 <uart_can_putc>
    9bb8:	e3500000 	cmp	r0, #0
    9bbc:	0afffffc 	beq	9bb4 <uart_putc+0x8>
    9bc0:	e59f300c 	ldr	r3, [pc, #12]	; 9bd4 <uart_putc+0x28>
    9bc4:	e593001c 	ldr	r0, [r3, #28]
    9bc8:	e1a01004 	mov	r1, r4
    9bcc:	eb000012 	bl	9c1c <put32>
    9bd0:	e8bd8010 	pop	{r4, pc}
    9bd4:	00009d40 	andeq	r9, r0, r0, asr #26

00009bd8 <uart_has_data>:
    9bd8:	e92d4008 	push	{r3, lr}
    9bdc:	ebffffda 	bl	9b4c <uart_can_getc>
    9be0:	e8bd8008 	pop	{r3, pc}

00009be4 <uart_getc_async>:
    9be4:	e92d4008 	push	{r3, lr}
    9be8:	ebfffffa 	bl	9bd8 <uart_has_data>
    9bec:	e3500000 	cmp	r0, #0
    9bf0:	0a000001 	beq	9bfc <uart_getc_async+0x18>
    9bf4:	ebffffdb 	bl	9b68 <uart_getc>
    9bf8:	e8bd8008 	pop	{r3, pc}
    9bfc:	e3e00000 	mvn	r0, #0
    9c00:	e8bd8008 	pop	{r3, pc}

00009c04 <dev_barrier>:
    9c04:	ea000002 	b	9c14 <dsb>

00009c08 <dmb>:
    9c08:	e3a00000 	mov	r0, #0
    9c0c:	ee070fba 	mcr	15, 0, r0, cr7, cr10, {5}
    9c10:	e12fff1e 	bx	lr

00009c14 <dsb>:
    9c14:	ee070f9a 	mcr	15, 0, r0, cr7, cr10, {4}
    9c18:	e12fff1e 	bx	lr

00009c1c <put32>:
    9c1c:	e5801000 	str	r1, [r0]
    9c20:	e12fff1e 	bx	lr

00009c24 <PUT32>:
    9c24:	e5801000 	str	r1, [r0]
    9c28:	e12fff1e 	bx	lr

00009c2c <put16>:
    9c2c:	e1c010b0 	strh	r1, [r0]
    9c30:	e12fff1e 	bx	lr

00009c34 <PUT16>:
    9c34:	e1c010b0 	strh	r1, [r0]
    9c38:	e12fff1e 	bx	lr

00009c3c <put8>:
    9c3c:	e5c01000 	strb	r1, [r0]
    9c40:	e12fff1e 	bx	lr

00009c44 <PUT8>:
    9c44:	e5c01000 	strb	r1, [r0]
    9c48:	e12fff1e 	bx	lr

00009c4c <get32>:
    9c4c:	e5900000 	ldr	r0, [r0]
    9c50:	e12fff1e 	bx	lr

00009c54 <GET32>:
    9c54:	e5900000 	ldr	r0, [r0]
    9c58:	e12fff1e 	bx	lr

00009c5c <GETPC>:
    9c5c:	e1a0000e 	mov	r0, lr
    9c60:	e12fff1e 	bx	lr

00009c64 <dummy>:
    9c64:	e12fff1e 	bx	lr

00009c68 <cb_new>:
    9c68:	e92d4008 	push	{r3, lr}
    9c6c:	e3a00409 	mov	r0, #150994944	; 0x9000000
    9c70:	e3a01000 	mov	r1, #0
    9c74:	e3a02004 	mov	r2, #4
    9c78:	eb00000e 	bl	9cb8 <memset>
    9c7c:	e3a00409 	mov	r0, #150994944	; 0x9000000
    9c80:	e59f3004 	ldr	r3, [pc, #4]	; 9c8c <cb_new+0x24>
    9c84:	e5803000 	str	r3, [r0]
    9c88:	e8bd8008 	pop	{r3, pc}
    9c8c:	12345678 	eorsne	r5, r4, #120, 12	; 0x7800000

00009c90 <cb_get_block>:
    9c90:	e3a03409 	mov	r3, #150994944	; 0x9000000
    9c94:	e5932000 	ldr	r2, [r3]
    9c98:	e59f3014 	ldr	r3, [pc, #20]	; 9cb4 <cb_get_block+0x24>
    9c9c:	e1520003 	cmp	r2, r3
    9ca0:	0a000001 	beq	9cac <cb_get_block+0x1c>
    9ca4:	e3a00000 	mov	r0, #0
    9ca8:	e12fff1e 	bx	lr
    9cac:	e3a00409 	mov	r0, #150994944	; 0x9000000
    9cb0:	e12fff1e 	bx	lr
    9cb4:	12345678 	eorsne	r5, r4, #120, 12	; 0x7800000

00009cb8 <memset>:
    9cb8:	e0802002 	add	r2, r0, r2
    9cbc:	e1a03000 	mov	r3, r0
    9cc0:	ea000001 	b	9ccc <memset+0x14>
    9cc4:	e5c31000 	strb	r1, [r3]
    9cc8:	e2833001 	add	r3, r3, #1
    9ccc:	e1530002 	cmp	r3, r2
    9cd0:	3afffffb 	bcc	9cc4 <memset+0xc>
    9cd4:	e12fff1e 	bx	lr

Disassembly of section .data:

00009cd8 <rpi_putchar>:
    9cd8:	00008720 	andeq	r8, r0, r0, lsr #14

00009cdc <putk>:
    9cdc:	0000875c 	andeq	r8, r0, ip, asr r7

00009ce0 <GPFSEL0>:
    9ce0:	20200000 	eorcs	r0, r0, r0

00009ce4 <GPFSEL1>:
    9ce4:	20200004 	eorcs	r0, r0, r4

00009ce8 <GPFSEL2>:
    9ce8:	20200008 	eorcs	r0, r0, r8

00009cec <GPFSEL3>:
    9cec:	2020000c 	eorcs	r0, r0, ip

00009cf0 <GPFSEL4>:
    9cf0:	20200010 	eorcs	r0, r0, r0, lsl r0

00009cf4 <GPFSEL5>:
    9cf4:	20200014 	eorcs	r0, r0, r4, lsl r0

00009cf8 <GPSET0>:
    9cf8:	2020001c 	eorcs	r0, r0, ip, lsl r0

00009cfc <GPSET1>:
    9cfc:	20200020 	eorcs	r0, r0, r0, lsr #32

00009d00 <GPCLR0>:
    9d00:	20200028 	eorcs	r0, r0, r8, lsr #32

00009d04 <GPCLR1>:
    9d04:	2020002c 	eorcs	r0, r0, ip, lsr #32

00009d08 <GPLEV0>:
    9d08:	20200034 	eorcs	r0, r0, r4, lsr r0

00009d0c <GPLEV1>:
    9d0c:	20200038 	eorcs	r0, r0, r8, lsr r0

00009d10 <IRQ_PENDING_2>:
    9d10:	2000b208 	andcs	fp, r0, r8, lsl #4

00009d14 <GPREN0>:
    9d14:	2020004c 	eorcs	r0, r0, ip, asr #32

00009d18 <GPREN1>:
    9d18:	20200050 	eorcs	r0, r0, r0, asr r0

00009d1c <ENABLE_IRQS_2>:
    9d1c:	2000b214 	andcs	fp, r0, r4, lsl r2

00009d20 <GPFEN0>:
    9d20:	20200058 	eorcs	r0, r0, r8, asr r0

00009d24 <GPFEN1>:
    9d24:	2020005c 	eorcs	r0, r0, ip, asr r0

00009d28 <GPEDS0>:
    9d28:	20200040 	eorcs	r0, r0, r0, asr #32

00009d2c <GPEDS1>:
    9d2c:	20200044 	eorcs	r0, r0, r4, asr #32

00009d30 <IRQ_PENDING_1>:
    9d30:	2000b204 	andcs	fp, r0, r4, lsl #4

00009d34 <gpio_clr0>:
    9d34:	20200028 	eorcs	r0, r0, r8, lsr #32

00009d38 <gpio_set0>:
    9d38:	2020001c 	eorcs	r0, r0, ip, lsl r0

00009d3c <gpio_fsel0>:
    9d3c:	20200000 	eorcs	r0, r0, r0

00009d40 <AUX_ENABLES>:
    9d40:	20215004 	eorcs	r5, r1, r4

00009d44 <AUX_MU_CNTL_REG>:
    9d44:	20215060 	eorcs	r5, r1, r0, rrx

00009d48 <AUX_MU_IER_REG>:
    9d48:	20215044 	eorcs	r5, r1, r4, asr #32

00009d4c <AUX_MU_IIR_REG>:
    9d4c:	20215048 	eorcs	r5, r1, r8, asr #32

00009d50 <AUX_MU_LCR_REG>:
    9d50:	2021504c 	eorcs	r5, r1, ip, asr #32

00009d54 <AUX_MU_BAUD_REG>:
    9d54:	20215068 	eorcs	r5, r1, r8, rrx

00009d58 <AUX_MU_LSR_REG>:
    9d58:	20215054 	eorcs	r5, r1, r4, asr r0

00009d5c <AUX_MU_IO_REG>:
    9d5c:	20215040 	eorcs	r5, r1, r0, asr #32

00009d60 <AUX_MU_STAT_REG>:
    9d60:	20215064 	eorcs	r5, r1, r4, rrx

00009d64 <AUX_MU_SCRATCH>:
    9d64:	2021505c 	eorcs	r5, r1, ip, asr r0

00009d68 <AUX_MU_MSR_REG>:
    9d68:	20215058 	eorcs	r5, r1, r8, asr r0

00009d6c <AUX_MU_MCR_REG>:
    9d6c:	20215050 	eorcs	r5, r1, r0, asr r0

00009d70 <AUX_IRQ>:
    9d70:	20215000 	eorcs	r5, r1, r0

Disassembly of section .rodata:

00009d74 <__FUNCTION__.4238>:
    9d74:	6c637963 	stclvs	9, cr7, [r3], #-396	; 0xfffffe74
    9d78:	705f7365 	subsvc	r7, pc, r5, ror #6
    9d7c:	735f7265 	cmpvc	pc, #1342177286	; 0x50000006
    9d80:	00006365 	andeq	r6, r0, r5, ror #6
    9d84:	4f525245 	svcmi	0x00525245
    9d88:	73253a52 	teqvc	r5, #335872	; 0x52000
    9d8c:	3a73253a 	bcc	1cd327c <__bss_end__+0x1cc8e04>
    9d90:	203a6425 	eorscs	r6, sl, r5, lsr #8
    9d94:	534c4146 	movtpl	r4, #49478	; 0xc146
    9d98:	733c2845 	teqvc	ip, #4521984	; 0x450000
    9d9c:	32203c20 	eorcc	r3, r0, #32, 24	; 0x2000
    9da0:	203a293e 	eorscs	r2, sl, lr, lsr r9
    9da4:	6c6c6977 	stclvs	9, cr6, [ip], #-476	; 0xfffffe24
    9da8:	65766f20 	ldrbvs	r6, [r6, #-3872]!	; 0xf20
    9dac:	6f6c6672 	svcvs	0x006c6672
    9db0:	00000a77 	andeq	r0, r0, r7, ror sl
    9db4:	706f6373 	rsbvc	r6, pc, r3, ror r3	; <UNPREDICTABLE>
    9db8:	00632e65 	rsbeq	r2, r3, r5, ror #28
    9dbc:	61206d61 	teqvs	r0, r1, ror #26
    9dc0:	72657320 	rsbvc	r7, r5, #32, 6	; 0x80000000
    9dc4:	2c726576 	cfldr64cs	mvdx6, [r2], #-472	; 0xfffffe28
    9dc8:	6e657320 	cdpvs	3, 6, cr7, cr5, cr0, {1}
    9dcc:	676e6964 	strbvs	r6, [lr, -r4, ror #18]!
    9dd0:	000a3020 	andeq	r3, sl, r0, lsr #32
    9dd4:	76726573 			; <UNDEFINED> instruction: 0x76726573
    9dd8:	64207265 	strtvs	r7, [r0], #-613	; 0x265
    9ddc:	3a656e6f 	bcc	19657a0 <__bss_end__+0x195b328>
    9de0:	646e6520 	strbtvs	r6, [lr], #-1312	; 0x520
    9de4:	77206465 	strvc	r6, [r0, -r5, ror #8]!
    9de8:	20687469 	rsbcs	r7, r8, r9, ror #8
    9dec:	000a6425 	andeq	r6, sl, r5, lsr #8
    9df0:	61206d61 	teqvs	r0, r1, ror #26
    9df4:	696c6320 	stmdbvs	ip!, {r5, r8, r9, sp, lr}^
    9df8:	0a746e65 	beq	1d25794 <__bss_end__+0x1d1b31c>
    9dfc:	00000000 	andeq	r0, r0, r0
    9e00:	74696177 	strbtvc	r6, [r9], #-375	; 0x177
    9e04:	20676e69 	rsbcs	r6, r7, r9, ror #28
    9e08:	20726f66 	rsbscs	r6, r2, r6, ror #30
    9e0c:	00000a30 	andeq	r0, r0, r0, lsr sl
    9e10:	65696c63 	strbvs	r6, [r9, #-3171]!	; 0xc63
    9e14:	6420746e 	strtvs	r7, [r0], #-1134	; 0x46e
    9e18:	3a656e6f 	bcc	19657dc <__bss_end__+0x195b364>
    9e1c:	646e6520 	strbtvs	r6, [lr], #-1312	; 0x520
    9e20:	77206465 	strvc	r6, [r0, -r5, ror #8]!
    9e24:	20687469 	rsbcs	r7, r8, r9, ror #8
    9e28:	000a6425 	andeq	r6, sl, r5, lsr #8

00009e2c <__FUNCTION__.4265>:
    9e2c:	74696d65 	strbtvc	r6, [r9], #-3429	; 0xd65
    9e30:	00000000 	andeq	r0, r0, r0

00009e34 <__FUNCTION__.4213>:
    9e34:	5f697072 	svcpl	0x00697072
    9e38:	5f746573 	svcpl	0x00746573
    9e3c:	7074756f 	rsbsvc	r7, r4, pc, ror #10
    9e40:	00007475 	andeq	r7, r0, r5, ror r4

00009e44 <__FUNCTION__.4287>:
    9e44:	705f6176 	subsvc	r6, pc, r6, ror r1	; <UNPREDICTABLE>
    9e48:	746e6972 	strbtvc	r6, [lr], #-2418	; 0x972
    9e4c:	0000006b 	andeq	r0, r0, fp, rrx
    9e50:	494e4150 	stmdbmi	lr, {r4, r6, r8, lr}^
    9e54:	73253a43 	teqvc	r5, #274432	; 0x43000
    9e58:	3a73253a 	bcc	1cd3348 <__bss_end__+0x1cc8ed0>
    9e5c:	253a6425 	ldrcs	r6, [sl, #-1061]!	; 0x425
    9e60:	00000a73 	andeq	r0, r0, r3, ror sl
    9e64:	6362696c 	cmnvs	r2, #108, 18	; 0x1b0000
    9e68:	2d61762f 	stclcs	6, cr7, [r1, #-188]!	; 0xffffff44
    9e6c:	6e697270 	mcrvs	2, 3, r7, cr9, cr0, {3}
    9e70:	632e6b74 	teqvs	lr, #116, 22	; 0x1d000
    9e74:	00000000 	andeq	r0, r0, r0
    9e78:	00000030 	andeq	r0, r0, r0, lsr r0
    9e7c:	33323130 	teqcc	r2, #48, 2
    9e80:	37363534 			; <UNDEFINED> instruction: 0x37363534
    9e84:	00003938 	andeq	r3, r0, r8, lsr r9
    9e88:	33323130 	teqcc	r2, #48, 2
    9e8c:	37363534 			; <UNDEFINED> instruction: 0x37363534
    9e90:	62613938 	rsbvs	r3, r1, #56, 18	; 0xe0000
    9e94:	66656463 	strbtvs	r6, [r5], -r3, ror #8
    9e98:	00000000 	andeq	r0, r0, r0
    9e9c:	00003130 	andeq	r3, r0, r0, lsr r1
    9ea0:	63747570 	cmnvs	r4, #112, 10	; 0x1c000000
    9ea4:	0070665f 	rsbseq	r6, r0, pc, asr r6
    9ea8:	74646977 	strbtvc	r6, [r4], #-2423	; 0x977
    9eac:	203c2068 	eorscs	r2, ip, r8, rrx
    9eb0:	00003233 	andeq	r3, r0, r3, lsr r2
    9eb4:	494e4150 	stmdbmi	lr, {r4, r6, r8, lr}^
    9eb8:	73253a43 	teqvc	r5, #274432	; 0x43000
    9ebc:	3a73253a 	bcc	1cd33ac <__bss_end__+0x1cc8f34>
    9ec0:	663a6425 	ldrtvs	r6, [sl], -r5, lsr #8
    9ec4:	74616f6c 	strbtvc	r6, [r1], #-3948	; 0xf6c
    9ec8:	746f6e20 	strbtvc	r6, [pc], #-3616	; 9ed0 <__FUNCTION__.4287+0x8c>
    9ecc:	616e6520 	cmnvs	lr, r0, lsr #10
    9ed0:	64656c62 	strbtvs	r6, [r5], #-3170	; 0xc62
    9ed4:	0a212121 	beq	852360 <__bss_end__+0x847ee8>
    9ed8:	00000000 	andeq	r0, r0, r0
    9edc:	494e4150 	stmdbmi	lr, {r4, r6, r8, lr}^
    9ee0:	73253a43 	teqvc	r5, #274432	; 0x43000
    9ee4:	3a73253a 	bcc	1cd33d4 <__bss_end__+0x1cc8f5c>
    9ee8:	703a6425 	eorsvc	r6, sl, r5, lsr #8
    9eec:	746e6972 	strbtvc	r6, [lr], #-2418	; 0x972
    9ef0:	6e203a6b 	vnmulvs.f32	s6, s0, s23
    9ef4:	6820746f 	stmdavs	r0!, {r0, r1, r2, r3, r5, r6, sl, ip, sp, lr}
    9ef8:	6c646e61 	stclvs	14, cr6, [r4], #-388	; 0xfffffe7c
    9efc:	20676e69 	rsbcs	r6, r7, r9, ror #28
    9f00:	63657073 	cmnvs	r5, #115	; 0x73
    9f04:	65696669 	strbvs	r6, [r9, #-1641]!	; 0x669
    9f08:	25272072 	strcs	r2, [r7, #-114]!	; 0x72
    9f0c:	0a0a2763 	beq	293ca0 <__bss_end__+0x289828>
    9f10:	00000000 	andeq	r0, r0, r0
    9f14:	454e4f44 	strbmi	r4, [lr, #-3908]	; 0xf44
    9f18:	0a212121 	beq	8523a4 <__bss_end__+0x847f2c>
    9f1c:	00000000 	andeq	r0, r0, r0
    9f20:	756f6261 	strbvc	r6, [pc, #-609]!	; 9cc7 <memset+0xf>
    9f24:	6f742074 	svcvs	0x00742074
    9f28:	69727020 	ldmdbvs	r2!, {r5, ip, sp, lr}^
    9f2c:	6f20746e 	svcvs	0x0020746e
    9f30:	6572206e 	ldrbvs	r2, [r2, #-110]!	; 0x6e
    9f34:	616c7567 	cmnvs	ip, r7, ror #10
    9f38:	72702072 	rsbsvc	r2, r0, #114	; 0x72
    9f3c:	66746e69 	ldrbtvs	r6, [r4], -r9, ror #28
    9f40:	0000000a 	andeq	r0, r0, sl
    9f44:	63637573 	cmnvs	r3, #482344960	; 0x1cc00000
    9f48:	21737365 	cmncs	r3, r5, ror #6
    9f4c:	0000000a 	andeq	r0, r0, sl

00009f50 <__FUNCTION__.4314>:
    9f50:	755f7773 	ldrbvc	r7, [pc, #-1907]	; 97e5 <sw_uart_gets_until+0x81>
    9f54:	5f747261 	svcpl	0x00747261
    9f58:	73746567 	cmnvc	r4, #432013312	; 0x19c00000
    9f5c:	746e755f 	strbtvc	r7, [lr], #-1375	; 0x55f
    9f60:	00006c69 	andeq	r6, r0, r9, ror #24

00009f64 <__FUNCTION__.4326>:
    9f64:	755f7773 	ldrbvc	r7, [pc, #-1907]	; 97f9 <sw_uart_gets_until+0x95>
    9f68:	5f747261 	svcpl	0x00747261
    9f6c:	73746567 	cmnvc	r4, #432013312	; 0x19c00000
    9f70:	6d69745f 	cfstrdvs	mvd7, [r9, #-380]!	; 0xfffffe84
    9f74:	74756f65 	ldrbtvc	r6, [r5], #-3941	; 0xf65
    9f78:	00000000 	andeq	r0, r0, r0

00009f7c <__FUNCTION__.4340>:
    9f7c:	755f7773 	ldrbvc	r7, [pc, #-1907]	; 9811 <sw_uart_gets_timeout+0x9>
    9f80:	5f747261 	svcpl	0x00747261
    9f84:	74696e69 	strbtvc	r6, [r9], #-3689	; 0xe69
    9f88:	6c65685f 	stclvs	8, cr6, [r5], #-380	; 0xfffffe84
    9f8c:	00726570 	rsbseq	r6, r2, r0, ror r5

00009f90 <__FUNCTION__.4346>:
    9f90:	755f7773 	ldrbvc	r7, [pc, #-1907]	; 9825 <sw_uart_gets_timeout+0x1d>
    9f94:	5f747261 	svcpl	0x00747261
    9f98:	63746567 	cmnvs	r4, #432013312	; 0x19c00000
    9f9c:	00000000 	andeq	r0, r0, r0

00009fa0 <__FUNCTION__.4368>:
    9fa0:	755f7773 	ldrbvc	r7, [pc, #-1907]	; 9835 <sw_uart_gets_timeout+0x2d>
    9fa4:	5f747261 	svcpl	0x00747261
    9fa8:	6e697270 	mcrvs	2, 3, r7, cr9, cr0, {3}
    9fac:	00006b74 	andeq	r6, r0, r4, ror fp

00009fb0 <__FUNCTION__.4376>:
    9fb0:	755f7773 	ldrbvc	r7, [pc, #-1907]	; 9845 <sw_uart_gets_timeout+0x3d>
    9fb4:	5f747261 	svcpl	0x00747261
    9fb8:	73746567 	cmnvc	r4, #432013312	; 0x19c00000
    9fbc:	746e755f 	strbtvc	r7, [lr], #-1375	; 0x55f
    9fc0:	625f6c69 	subsvs	r6, pc, #26880	; 0x6900
    9fc4:	00006b6c 	andeq	r6, r0, ip, ror #22
    9fc8:	732d796d 	teqvc	sp, #1785856	; 0x1b4000
    9fcc:	732f6372 	teqvc	pc, #-939524095	; 0xc8000001
    9fd0:	61752d77 	cmnvs	r5, r7, ror sp
    9fd4:	632e7472 	teqvs	lr, #1912602624	; 0x72000000
    9fd8:	00000000 	andeq	r0, r0, r0
    9fdc:	7479626e 	ldrbtvc	r6, [r9], #-622	; 0x26e
    9fe0:	303e7365 	eorscc	r7, lr, r5, ror #6
    9fe4:	00000000 	andeq	r0, r0, r0
    9fe8:	7a686d28 	bvc	1a25490 <__bss_end__+0x1a1b018>
    9fec:	62202d20 	eorvs	r2, r0, #32, 26	; 0x800
    9ff0:	29647561 	stmdbcs	r4!, {r0, r5, r6, r8, sl, ip, sp, lr}^
    9ff4:	203d3c20 	eorscs	r3, sp, r0, lsr #24
    9ff8:	69726564 	ldmdbvs	r2!, {r2, r5, r6, r8, sl, sp, lr}^
    9ffc:	20646576 	rsbcs	r6, r4, r6, ror r5
    a000:	64202626 	strtvs	r2, [r0], #-1574	; 0x626
    a004:	76697265 	strbtvc	r7, [r9], -r5, ror #4
    a008:	3c206465 	cfstrscc	mvf6, [r0], #-404	; 0xfffffe6c
    a00c:	6d28203d 	stcvs	0, cr2, [r8, #-244]!	; 0xffffff0c
    a010:	2b207a68 	blcs	8289b8 <__bss_end__+0x81e540>
    a014:	75616220 	strbvc	r6, [r1, #-544]!	; 0x220
    a018:	00002964 	andeq	r2, r0, r4, ror #18
    a01c:	494e4150 	stmdbmi	lr, {r4, r6, r8, lr}^
    a020:	73253a43 	teqvc	r5, #274432	; 0x43000
    a024:	3a73253a 	bcc	1cd3514 <__bss_end__+0x1cc909c>
    a028:	693a6425 	ldmdbvs	sl!, {r0, r2, r5, sl, sp, lr}
    a02c:	736f706d 	cmnvc	pc, #109	; 0x6d
    a030:	6c626973 	stclvs	9, cr6, [r2], #-460	; 0xfffffe34
    a034:	68203a65 	stmdavs	r0!, {r0, r2, r5, r6, r9, fp, ip, sp}
    a038:	20657661 	rsbcs	r7, r5, r1, ror #12
    a03c:	69206e61 	stmdbvs	r0!, {r0, r5, r6, r9, sl, fp, sp, lr}
    a040:	6e69666e 	cdpvs	6, 6, cr6, cr9, cr14, {3}
    a044:	20657469 	rsbcs	r7, r5, r9, ror #8
    a048:	656d6974 	strbvs	r6, [sp, #-2420]!	; 0x974
    a04c:	2174756f 	cmncs	r4, pc, ror #10
    a050:	00000a0a 	andeq	r0, r0, sl, lsl #20
    a054:	3c207a73 	stccc	10, cr7, [r0], #-460	; 0xfffffe34
    a058:	7a697320 	bvc	1a66ce0 <__bss_end__+0x1a5c868>
    a05c:	20666f65 	rsbcs	r6, r6, r5, ror #30
    a060:	2d667562 	cfstr64cs	mvdx7, [r6, #-392]!	; 0xfffffe78
    a064:	00000031 	andeq	r0, r0, r1, lsr r0

Disassembly of section .bss:

0000a068 <__bss_start__>:
	...

0000a468 <console_uart>:
	...

Disassembly of section .ARM.attributes:

00000000 <.ARM.attributes>:
   0:	00002a41 	andeq	r2, r0, r1, asr #20
   4:	61656100 	cmnvs	r5, r0, lsl #2
   8:	01006962 	tsteq	r0, r2, ror #18
   c:	00000020 	andeq	r0, r0, r0, lsr #32
  10:	4b5a3605 	blmi	168d82c <__bss_end__+0x16833b4>
  14:	08070600 	stmdaeq	r7, {r9, sl}
  18:	12010901 	andne	r0, r1, #16384	; 0x4000
  1c:	15011404 	strne	r1, [r1, #-1028]	; 0x404
  20:	18031701 	stmdane	r3, {r0, r8, r9, sl, ip}
  24:	22011a01 	andcs	r1, r1, #4096	; 0x1000
  28:	Address 0x0000000000000028 is out of bounds.


Disassembly of section .comment:

00000000 <.comment>:
   0:	3a434347 	bcc	10d0d24 <__bss_end__+0x10c68ac>
   4:	4e472820 	cdpmi	8, 4, cr2, cr7, cr0, {1}
   8:	34202955 	strtcc	r2, [r0], #-2389	; 0x955
   c:	332e382e 	teqcc	lr, #3014656	; 0x2e0000
	...

Disassembly of section .debug_info:

00000000 <.debug_info>:
       0:	0000101b 	andeq	r1, r0, fp, lsl r0
       4:	00000004 	andeq	r0, r0, r4
       8:	01040000 	mrseq	r0, (UNDEF: 4)
       c:	000000cb 	andeq	r0, r0, fp, asr #1
      10:	0002ae01 	andeq	sl, r2, r1, lsl #28
      14:	0001c900 	andeq	ip, r1, r0, lsl #18
      18:	00801000 	addeq	r1, r0, r0
      1c:	0006b800 	andeq	fp, r6, r0, lsl #16
      20:	00000000 	andeq	r0, r0, r0
      24:	05040200 	streq	r0, [r4, #-512]	; 0x200
      28:	00746e69 	rsbseq	r6, r4, r9, ror #28
      2c:	4d070403 	cfstrsmi	mvf0, [r7, #-12]
      30:	03000000 	movweq	r0, #0
      34:	02260601 	eoreq	r0, r6, #1048576	; 0x100000
      38:	02030000 	andeq	r0, r3, #0
      3c:	00023205 	andeq	r3, r2, r5, lsl #4
      40:	05040300 	streq	r0, [r4, #-768]	; 0x300
      44:	0000007c 	andeq	r0, r0, ip, ror r0
      48:	77050803 	strvc	r0, [r5, -r3, lsl #16]
      4c:	04000000 	streq	r0, [r0], #-0
      50:	0000029c 	muleq	r0, ip, r2
      54:	005a2e04 	subseq	r2, sl, r4, lsl #28
      58:	01030000 	mrseq	r0, (UNDEF: 3)
      5c:	00022408 	andeq	r2, r2, r8, lsl #8
      60:	07020300 	streq	r0, [r2, -r0, lsl #6]
      64:	0000017e 	andeq	r0, r0, lr, ror r1
      68:	48070403 	stmdami	r7, {r0, r1, sl}
      6c:	03000000 	movweq	r0, #0
      70:	00430708 	subeq	r0, r3, r8, lsl #14
      74:	04030000 	streq	r0, [r3], #-0
      78:	0001c007 	andeq	ip, r1, r7
      7c:	08010300 	stmdaeq	r1, {r8, r9}
      80:	0000022d 	andeq	r0, r0, sp, lsr #4
      84:	008a0405 	addeq	r0, sl, r5, lsl #8
      88:	7d060000 	stcvc	0, cr0, [r6, #-0]
      8c:	07000000 	streq	r0, [r0, -r0]
      90:	0000005a 	andeq	r0, r0, sl, asr r0
      94:	a7031c01 	strge	r1, [r3, -r1, lsl #24]
      98:	08000000 	stmdaeq	r0, {}	; <UNPREDICTABLE>
      9c:	006e6970 	rsbeq	r6, lr, r0, ror r9
      a0:	002c1c01 	eoreq	r1, ip, r1, lsl #24
      a4:	07000000 	streq	r0, [r0, -r0]
      a8:	000000b9 	strheq	r0, [r0], -r9
      ac:	bf032101 	svclt	0x00032101
      b0:	08000000 	stmdaeq	r0, {}	; <UNPREDICTABLE>
      b4:	006e6970 	rsbeq	r6, lr, r0, ror r9
      b8:	002c2101 	eoreq	r2, ip, r1, lsl #2
      bc:	07000000 	streq	r0, [r0, -r0]
      c0:	00000024 	andeq	r0, r0, r4, lsr #32
      c4:	e0032601 	and	r2, r3, r1, lsl #12
      c8:	08000000 	stmdaeq	r0, {}	; <UNPREDICTABLE>
      cc:	006e6970 	rsbeq	r6, lr, r0, ror r9
      d0:	002c2601 	eoreq	r2, ip, r1, lsl #12
      d4:	76080000 	strvc	r0, [r8], -r0
      d8:	2c260100 	stfcss	f0, [r6], #-0
      dc:	00000000 	andeq	r0, r0, r0
      e0:	00021909 	andeq	r1, r2, r9, lsl #18
      e4:	2c470100 	stfcse	f0, [r7], {-0}
      e8:	01000000 	mrseq	r0, (UNDEF: 0)
      ec:	00000219 	andeq	r0, r0, r9, lsl r2
      f0:	6e697008 	cdpvs	0, 6, cr7, cr9, cr8, {0}
      f4:	2c470100 	stfcse	f0, [r7], {-0}
      f8:	0a000000 	beq	100 <_start-0x7f00>
      fc:	0000032d 	andeq	r0, r0, sp, lsr #6
     100:	00254a01 	eoreq	r4, r5, r1, lsl #20
     104:	3e0a0000 	cdpcc	0, 0, cr0, cr10, cr0, {0}
     108:	01000000 	mrseq	r0, (UNDEF: 0)
     10c:	0000254b 	andeq	r2, r0, fp, asr #10
     110:	00390a00 	eorseq	r0, r9, r0, lsl #20
     114:	4c010000 	stcmi	0, cr0, [r1], {-0}
     118:	00000025 	andeq	r0, r0, r5, lsr #32
     11c:	0000340a 	andeq	r3, r0, sl, lsl #8
     120:	254d0100 	strbcs	r0, [sp, #-256]	; 0x100
     124:	0a000000 	beq	12c <_start-0x7ed4>
     128:	00000072 	andeq	r0, r0, r2, ror r0
     12c:	00254e01 	eoreq	r4, r5, r1, lsl #28
     130:	1f0a0000 	svcne	0x000a0000
     134:	01000000 	mrseq	r0, (UNDEF: 0)
     138:	0000254f 	andeq	r2, r0, pc, asr #10
     13c:	001a0a00 	andseq	r0, sl, r0, lsl #20
     140:	50010000 	andpl	r0, r1, r0
     144:	00000025 	andeq	r0, r0, r5, lsr #32
     148:	0000150a 	andeq	r1, r0, sl, lsl #10
     14c:	25510100 	ldrbcs	r0, [r1, #-256]	; 0x100
     150:	0a000000 	beq	158 <_start-0x7ea8>
     154:	00000010 	andeq	r0, r0, r0, lsl r0
     158:	00255201 	eoreq	r5, r5, r1, lsl #4
     15c:	690b0000 	stmdbvs	fp, {}	; <UNPREDICTABLE>
     160:	2c540100 	ldfcse	f0, [r4], {-0}
     164:	0a000000 	beq	16c <_start-0x7e94>
     168:	00000511 	andeq	r0, r0, r1, lsl r5
     16c:	002c5901 	eoreq	r5, ip, r1, lsl #18
     170:	830c0000 	movwhi	r0, #49152	; 0xc000
     174:	0a000001 	beq	180 <_start-0x7e80>
     178:	0000021f 	andeq	r0, r0, pc, lsl r2
     17c:	002c5901 	eoreq	r5, ip, r1, lsl #18
     180:	0c000000 	stceq	0, cr0, [r0], {-0}
     184:	00000194 	muleq	r0, r4, r1
     188:	00021f0a 	andeq	r1, r2, sl, lsl #30
     18c:	2c5a0100 	ldfcse	f0, [sl], {-0}
     190:	00000000 	andeq	r0, r0, r0
     194:	0001a50c 	andeq	sl, r1, ip, lsl #10
     198:	021f0a00 	andseq	r0, pc, #0, 20
     19c:	5c010000 	stcpl	0, cr0, [r1], {-0}
     1a0:	0000002c 	andeq	r0, r0, ip, lsr #32
     1a4:	01b60c00 			; <UNDEFINED> instruction: 0x01b60c00
     1a8:	1f0a0000 	svcne	0x000a0000
     1ac:	01000002 	tsteq	r0, r2
     1b0:	00002c5e 	andeq	r2, r0, lr, asr ip
     1b4:	c70c0000 	strgt	r0, [ip, -r0]
     1b8:	0a000001 	beq	1c4 <_start-0x7e3c>
     1bc:	0000021f 	andeq	r0, r0, pc, lsl r2
     1c0:	002c6001 	eoreq	r6, ip, r1
     1c4:	0c000000 	stceq	0, cr0, [r0], {-0}
     1c8:	000001d8 	ldrdeq	r0, [r0], -r8
     1cc:	00021f0a 	andeq	r1, r2, sl, lsl #30
     1d0:	2c620100 	stfcse	f0, [r2], #-0
     1d4:	00000000 	andeq	r0, r0, r0
     1d8:	0001e90c 	andeq	lr, r1, ip, lsl #18
     1dc:	021f0a00 	andseq	r0, pc, #0, 20
     1e0:	64010000 	strvs	r0, [r1], #-0
     1e4:	0000002c 	andeq	r0, r0, ip, lsr #32
     1e8:	01fa0c00 	mvnseq	r0, r0, lsl #24
     1ec:	1f0a0000 	svcne	0x000a0000
     1f0:	01000002 	tsteq	r0, r2
     1f4:	00002c66 	andeq	r2, r0, r6, ror #24
     1f8:	0b0c0000 	bleq	300200 <__bss_end__+0x2f5d88>
     1fc:	0a000002 	beq	20c <_start-0x7df4>
     200:	0000021f 	andeq	r0, r0, pc, lsl r2
     204:	002c6801 	eoreq	r6, ip, r1, lsl #16
     208:	0d000000 	stceq	0, cr0, [r0, #-0]
     20c:	00021f0a 	andeq	r1, r2, sl, lsl #30
     210:	2c6a0100 	stfcse	f0, [sl], #-0
     214:	00000000 	andeq	r0, r0, r0
     218:	006b0700 	rsbeq	r0, fp, r0, lsl #14
     21c:	a6010000 	strge	r0, [r1], -r0
     220:	00026401 	andeq	r6, r2, r1, lsl #8
     224:	78740800 	ldmdavc	r4!, {fp}^
     228:	2ca60100 	stfcss	f0, [r6]
     22c:	08000000 	stmdaeq	r0, {}	; <UNPREDICTABLE>
     230:	01007872 	tsteq	r0, r2, ror r8
     234:	00002ca6 	andeq	r2, r0, r6, lsr #25
     238:	006e0800 	rsbeq	r0, lr, r0, lsl #16
     23c:	002ca601 	eoreq	sl, ip, r1, lsl #12
     240:	660a0000 	strvs	r0, [sl], -r0
     244:	01000001 	tsteq	r0, r1
     248:	00002ca9 	andeq	r2, r0, r9, lsr #25
     24c:	01550a00 	cmpeq	r5, r0, lsl #20
     250:	aa010000 	bge	40258 <__bss_end__+0x35de0>
     254:	0000002c 	andeq	r0, r0, ip, lsr #32
     258:	00690b0d 	rsbeq	r0, r9, sp, lsl #22
     25c:	002cae01 	eoreq	sl, ip, r1, lsl #28
     260:	00000000 	andeq	r0, r0, r0
     264:	00012207 	andeq	r2, r1, r7, lsl #4
     268:	01b90100 			; <UNDEFINED> instruction: 0x01b90100
     26c:	000002af 	andeq	r0, r0, pc, lsr #5
     270:	00787408 	rsbseq	r7, r8, r8, lsl #8
     274:	002cb901 	eoreq	fp, ip, r1, lsl #18
     278:	72080000 	andvc	r0, r8, #0
     27c:	b9010078 	stmdblt	r1, {r3, r4, r5, r6}
     280:	0000002c 	andeq	r0, r0, ip, lsr #32
     284:	01006e08 	tsteq	r0, r8, lsl #28
     288:	00002cb9 			; <UNDEFINED> instruction: 0x00002cb9
     28c:	01ba0a00 			; <UNDEFINED> instruction: 0x01ba0a00
     290:	be010000 	cdplt	0, 0, cr0, cr1, cr0, {0}
     294:	0000002c 	andeq	r0, r0, ip, lsr #32
     298:	0001550a 	andeq	r5, r1, sl, lsl #10
     29c:	2cbf0100 	ldfcss	f0, [pc]	; 2a4 <_start-0x7d5c>
     2a0:	0a000000 	beq	2a8 <_start-0x7d58>
     2a4:	00000129 	andeq	r0, r0, r9, lsr #2
     2a8:	002cc001 	eoreq	ip, ip, r1
     2ac:	0e000000 	cdpeq	0, 0, cr0, cr0, cr0, {0}
     2b0:	000000e0 	andeq	r0, r0, r0, ror #1
     2b4:	00008010 	andeq	r8, r0, r0, lsl r0
     2b8:	0000019c 	muleq	r0, ip, r1
     2bc:	04069c01 	streq	r9, [r6], #-3073	; 0xc01
     2c0:	fb0f0000 	blx	3c02ca <__bss_end__+0x3b5e52>
     2c4:	00000000 	andeq	r0, r0, r0
     2c8:	0f000000 	svceq	0x00000000
     2cc:	00000106 	andeq	r0, r0, r6, lsl #2
     2d0:	00000038 	andeq	r0, r0, r8, lsr r0
     2d4:	0001110f 	andeq	r1, r1, pc, lsl #2
     2d8:	00004b00 	andeq	r4, r0, r0, lsl #22
     2dc:	011c0f00 	tsteq	ip, r0, lsl #30
     2e0:	005e0000 	subseq	r0, lr, r0
     2e4:	270f0000 	strcs	r0, [pc, -r0]
     2e8:	71000001 	tstvc	r0, r1
     2ec:	0f000000 	svceq	0x00000000
     2f0:	00000132 	andeq	r0, r0, r2, lsr r1
     2f4:	00000084 	andeq	r0, r0, r4, lsl #1
     2f8:	00013d0f 	andeq	r3, r1, pc, lsl #26
     2fc:	00009700 	andeq	r9, r0, r0, lsl #14
     300:	01480f00 	cmpeq	r8, r0, lsl #30
     304:	00aa0000 	adceq	r0, sl, r0
     308:	530f0000 	movwpl	r0, #61440	; 0xf000
     30c:	bd000001 	stclt	0, cr0, [r0, #-4]
     310:	10000000 	andne	r0, r0, r0
     314:	0000015e 	andeq	r0, r0, lr, asr r1
     318:	00016711 	andeq	r6, r1, r1, lsl r7
     31c:	12530100 	subsne	r0, r3, #0, 2
     320:	000000f0 	strdeq	r0, [r0], -r0	; <UNPREDICTABLE>
     324:	80241314 	eorhi	r1, r4, r4, lsl r3
     328:	00040000 	andeq	r0, r4, r0
     32c:	033a0000 	teqeq	sl, #0
     330:	77110000 	ldrvc	r0, [r1, -r0]
     334:	01000001 	tsteq	r0, r1
     338:	2c130053 	ldccs	0, cr0, [r3], {83}	; 0x53
     33c:	04000080 	streq	r0, [r0], #-128	; 0x80
     340:	51000000 	mrspl	r0, (UNDEF: 0)
     344:	0f000003 	svceq	0x00000003
     348:	00000188 	andeq	r0, r0, r8, lsl #3
     34c:	000000d0 	ldrdeq	r0, [r0], -r0	; <UNPREDICTABLE>
     350:	80501300 	subshi	r1, r0, r0, lsl #6
     354:	00040000 	andeq	r0, r4, r0
     358:	03680000 	cmneq	r8, #0
     35c:	990f0000 	stmdbls	pc, {}	; <UNPREDICTABLE>
     360:	e3000001 	movw	r0, #1
     364:	00000000 	andeq	r0, r0, r0
     368:	00807413 	addeq	r7, r0, r3, lsl r4
     36c:	00000400 	andeq	r0, r0, r0, lsl #8
     370:	00037f00 	andeq	r7, r3, r0, lsl #30
     374:	01aa0f00 			; <UNDEFINED> instruction: 0x01aa0f00
     378:	00f60000 	rscseq	r0, r6, r0
     37c:	13000000 	movwne	r0, #0
     380:	00008098 	muleq	r0, r8, r0
     384:	00000004 	andeq	r0, r0, r4
     388:	00000396 	muleq	r0, r6, r3
     38c:	0001bb0f 	andeq	fp, r1, pc, lsl #22
     390:	00010900 	andeq	r0, r1, r0, lsl #18
     394:	bc130000 	ldclt	0, cr0, [r3], {-0}
     398:	04000080 	streq	r0, [r0], #-128	; 0x80
     39c:	ad000000 	stcge	0, cr0, [r0, #-0]
     3a0:	0f000003 	svceq	0x00000003
     3a4:	000001cc 	andeq	r0, r0, ip, asr #3
     3a8:	0000011c 	andeq	r0, r0, ip, lsl r1
     3ac:	80e01300 	rschi	r1, r0, r0, lsl #6
     3b0:	00040000 	andeq	r0, r4, r0
     3b4:	03c40000 	biceq	r0, r4, #0
     3b8:	dd0f0000 	stcle	0, cr0, [pc, #-0]	; 3c0 <_start-0x7c40>
     3bc:	2f000001 	svccs	0x00000001
     3c0:	00000001 	andeq	r0, r0, r1
     3c4:	00810413 	addeq	r0, r1, r3, lsl r4
     3c8:	00000400 	andeq	r0, r0, r0, lsl #8
     3cc:	0003db00 	andeq	sp, r3, r0, lsl #22
     3d0:	01ee0f00 	mvneq	r0, r0, lsl #30
     3d4:	01420000 	mrseq	r0, (UNDEF: 66)
     3d8:	13000000 	movwne	r0, #0
     3dc:	00008128 	andeq	r8, r0, r8, lsr #2
     3e0:	00000004 	andeq	r0, r0, r4
     3e4:	000003f2 	strdeq	r0, [r0], -r2
     3e8:	0001ff0f 	andeq	pc, r1, pc, lsl #30
     3ec:	00015500 	andeq	r5, r1, r0, lsl #10
     3f0:	4c140000 	ldcmi	0, cr0, [r4], {-0}
     3f4:	04000081 	streq	r0, [r0], #-129	; 0x81
     3f8:	0f000000 	svceq	0x00000000
     3fc:	0000020c 	andeq	r0, r0, ip, lsl #4
     400:	00000168 	andeq	r0, r0, r8, ror #2
     404:	4c150000 	ldcmi	0, cr0, [r5], {-0}
     408:	01000002 	tsteq	r0, r2
     40c:	00002c39 	andeq	r2, r0, r9, lsr ip
     410:	0081ac00 	addeq	sl, r1, r0, lsl #24
     414:	00005000 	andeq	r5, r0, r0
     418:	e69c0100 	ldr	r0, [ip], r0, lsl #2
     41c:	16000004 	strne	r0, [r0], -r4
     420:	39010073 	stmdbcc	r1, {r0, r1, r4, r5, r6}
     424:	0000002c 	andeq	r0, r0, ip, lsr #32
     428:	0000017b 	andeq	r0, r0, fp, ror r1
     42c:	00017117 	andeq	r7, r1, r7, lsl r1
     430:	0004f600 	andeq	pc, r4, r0, lsl #12
     434:	74030500 	strvc	r0, [r3], #-1280	; 0x500
     438:	0a00009d 	beq	6b4 <_start-0x794c>
     43c:	00000265 	andeq	r0, r0, r5, ror #4
     440:	002c3b01 	eoreq	r3, ip, r1, lsl #22
     444:	7a180000 	bvc	60044c <__bss_end__+0x5f5fd4>
     448:	01000002 	tsteq	r0, r2
     44c:	00002c3d 	andeq	r2, r0, sp, lsr ip
     450:	0001b500 	andeq	fp, r1, r0, lsl #10
     454:	81b81300 			; <UNDEFINED> instruction: 0x81b81300
     458:	00040000 	andeq	r0, r4, r0
     45c:	046e0000 	strbteq	r0, [lr], #-0
     460:	1f0a0000 	svcne	0x000a0000
     464:	01000002 	tsteq	r0, r2
     468:	00002c3b 	andeq	r2, r0, fp, lsr ip
     46c:	c8130000 	ldmdagt	r3, {}	; <UNPREDICTABLE>
     470:	04000081 	streq	r0, [r0], #-129	; 0x81
     474:	8b000000 	blhi	47c <_start-0x7b84>
     478:	18000004 	stmdane	r0, {r2}
     47c:	0000021f 	andeq	r0, r0, pc, lsl r2
     480:	002c3d01 	eoreq	r3, ip, r1, lsl #26
     484:	01b50000 			; <UNDEFINED> instruction: 0x01b50000
     488:	19000000 	stmdbne	r0, {}	; <UNPREDICTABLE>
     48c:	000081c8 	andeq	r8, r0, r8, asr #3
     490:	00000faf 	andeq	r0, r0, pc, lsr #31
     494:	000004a4 	andeq	r0, r0, r4, lsr #9
     498:	0750011a 	smmlaeq	r0, sl, r1, r0
     49c:	0a5001f3 	beq	1400c70 <__bss_end__+0x13f67f8>
     4a0:	001e03e8 	andseq	r0, lr, r8, ror #7
     4a4:	0081d81b 	addeq	sp, r1, fp, lsl r8
     4a8:	000fc000 	andeq	ip, pc, r0
     4ac:	81ec1900 	mvnhi	r1, r0, lsl #18
     4b0:	0fc70000 	svceq	0x00c70000
     4b4:	04dc0000 	ldrbeq	r0, [ip], #0
     4b8:	011a0000 	tsteq	sl, r0
     4bc:	3a080253 	bcc	200e10 <__bss_end__+0x1f6998>
     4c0:	0552011a 	ldrbeq	r0, [r2, #-282]	; 0x11a
     4c4:	009d7403 	addseq	r7, sp, r3, lsl #8
     4c8:	51011a00 	tstpl	r1, r0, lsl #20
     4cc:	9db40305 	ldcls	3, cr0, [r4, #20]!
     4d0:	011a0000 	tsteq	sl, r0
     4d4:	84030550 	strhi	r0, [r3], #-1360	; 0x550
     4d8:	0000009d 	muleq	r0, sp, r0
     4dc:	0081f01b 	addeq	pc, r1, fp, lsl r0	; <UNPREDICTABLE>
     4e0:	000fdd00 	andeq	sp, pc, r0, lsl #26
     4e4:	7d1c0000 	ldcvc	0, cr0, [ip, #-0]
     4e8:	f6000000 			; <UNDEFINED> instruction: 0xf6000000
     4ec:	1d000004 	stcne	0, cr0, [r0, #-16]
     4f0:	00000076 	andeq	r0, r0, r6, ror r0
     4f4:	e606000e 	str	r0, [r6], -lr
     4f8:	0e000004 	cdpeq	0, 0, cr0, cr0, cr4, {0}
     4fc:	000000e0 	andeq	r0, r0, r0, ror #1
     500:	000081fc 	strdeq	r8, [r0], -ip
     504:	0000019c 	muleq	r0, ip, r1
     508:	06569c01 	ldrbeq	r9, [r6], -r1, lsl #24
     50c:	f01e0000 			; <UNDEFINED> instruction: 0xf01e0000
     510:	c8000000 	stmdagt	r0, {}	; <UNPREDICTABLE>
     514:	0f000001 	svceq	0x00000001
     518:	000000fb 	strdeq	r0, [r0], -fp
     51c:	000001e9 	andeq	r0, r0, r9, ror #3
     520:	0001060f 	andeq	r0, r1, pc, lsl #12
     524:	00022d00 	andeq	r2, r2, r0, lsl #26
     528:	01110f00 	tsteq	r1, r0, lsl #30
     52c:	024c0000 	subeq	r0, ip, #0
     530:	1c0f0000 	stcne	0, cr0, [pc], {-0}
     534:	6b000001 	blvs	540 <_start-0x7ac0>
     538:	0f000002 	svceq	0x00000002
     53c:	00000127 	andeq	r0, r0, r7, lsr #2
     540:	0000028a 	andeq	r0, r0, sl, lsl #5
     544:	0001320f 	andeq	r3, r1, pc, lsl #4
     548:	0002a900 	andeq	sl, r2, r0, lsl #18
     54c:	013d0f00 	teqeq	sp, r0, lsl #30
     550:	02c80000 	sbceq	r0, r8, #0
     554:	480f0000 	stmdami	pc, {}	; <UNPREDICTABLE>
     558:	e7000001 	str	r0, [r0, -r1]
     55c:	0f000002 	svceq	0x00000002
     560:	00000153 	andeq	r0, r0, r3, asr r1
     564:	00000306 	andeq	r0, r0, r6, lsl #6
     568:	00015e1f 	andeq	r5, r1, pc, lsl lr
     56c:	67110100 	ldrvs	r0, [r1, -r0, lsl #2]
     570:	01000001 	tsteq	r0, r1
     574:	82101353 	andshi	r1, r0, #1275068417	; 0x4c000001
     578:	00040000 	andeq	r0, r4, r0
     57c:	058a0000 	streq	r0, [sl]
     580:	77110000 	ldrvc	r0, [r1, -r0]
     584:	01000001 	tsteq	r0, r1
     588:	18130053 	ldmdane	r3, {r0, r1, r4, r6}
     58c:	04000082 	streq	r0, [r0], #-130	; 0x82
     590:	a1000000 	mrsge	r0, (UNDEF: 0)
     594:	0f000005 	svceq	0x00000005
     598:	00000188 	andeq	r0, r0, r8, lsl #3
     59c:	00000325 	andeq	r0, r0, r5, lsr #6
     5a0:	823c1300 	eorshi	r1, ip, #0, 6
     5a4:	00040000 	andeq	r0, r4, r0
     5a8:	05b80000 	ldreq	r0, [r8, #0]!
     5ac:	990f0000 	stmdbls	pc, {}	; <UNPREDICTABLE>
     5b0:	38000001 	stmdacc	r0, {r0}
     5b4:	00000003 	andeq	r0, r0, r3
     5b8:	00826013 	addeq	r6, r2, r3, lsl r0
     5bc:	00000400 	andeq	r0, r0, r0, lsl #8
     5c0:	0005cf00 	andeq	ip, r5, r0, lsl #30
     5c4:	01aa0f00 			; <UNDEFINED> instruction: 0x01aa0f00
     5c8:	034b0000 	movteq	r0, #45056	; 0xb000
     5cc:	13000000 	movwne	r0, #0
     5d0:	00008284 	andeq	r8, r0, r4, lsl #5
     5d4:	00000004 	andeq	r0, r0, r4
     5d8:	000005e6 	andeq	r0, r0, r6, ror #11
     5dc:	0001bb0f 	andeq	fp, r1, pc, lsl #22
     5e0:	00035e00 	andeq	r5, r3, r0, lsl #28
     5e4:	a8130000 	ldmdage	r3, {}	; <UNPREDICTABLE>
     5e8:	04000082 	streq	r0, [r0], #-130	; 0x82
     5ec:	fd000000 	stc2	0, cr0, [r0, #-0]
     5f0:	0f000005 	svceq	0x00000005
     5f4:	000001cc 	andeq	r0, r0, ip, asr #3
     5f8:	00000371 	andeq	r0, r0, r1, ror r3
     5fc:	82cc1300 	sbchi	r1, ip, #0, 6
     600:	00040000 	andeq	r0, r4, r0
     604:	06140000 	ldreq	r0, [r4], -r0
     608:	dd0f0000 	stcle	0, cr0, [pc, #-0]	; 610 <_start-0x79f0>
     60c:	84000001 	strhi	r0, [r0], #-1
     610:	00000003 	andeq	r0, r0, r3
     614:	0082f013 	addeq	pc, r2, r3, lsl r0	; <UNPREDICTABLE>
     618:	00000400 	andeq	r0, r0, r0, lsl #8
     61c:	00062b00 	andeq	r2, r6, r0, lsl #22
     620:	01ee0f00 	mvneq	r0, r0, lsl #30
     624:	03970000 	orrseq	r0, r7, #0
     628:	13000000 	movwne	r0, #0
     62c:	00008314 	andeq	r8, r0, r4, lsl r3
     630:	00000004 	andeq	r0, r0, r4
     634:	00000642 	andeq	r0, r0, r2, asr #12
     638:	0001ff0f 	andeq	pc, r1, pc, lsl #30
     63c:	0003aa00 	andeq	sl, r3, r0, lsl #20
     640:	38140000 	ldmdacc	r4, {}	; <UNPREDICTABLE>
     644:	04000083 	streq	r0, [r0], #-131	; 0x83
     648:	0f000000 	svceq	0x00000000
     64c:	0000020c 	andeq	r0, r0, ip, lsl #4
     650:	000003bd 			; <UNDEFINED> instruction: 0x000003bd
     654:	a8200000 	stmdage	r0!, {}	; <UNPREDICTABLE>
     658:	01000000 	mrseq	r0, (UNDEF: 0)
     65c:	00839877 	addeq	r9, r3, r7, ror r8
     660:	00020c00 	andeq	r0, r2, r0, lsl #24
     664:	659c0100 	ldrvs	r0, [ip, #256]	; 0x100
     668:	1600000c 	strne	r0, [r0], -ip
     66c:	006e6970 	rsbeq	r6, lr, r0, ror r9
     670:	002c7701 	eoreq	r7, ip, r1, lsl #14
     674:	03d00000 	bicseq	r0, r0, #0
     678:	5e210000 	cdppl	0, 2, cr0, cr1, cr0, {0}
     67c:	01000009 	tsteq	r0, r9
     680:	00004f77 	andeq	r4, r0, r7, ror pc
     684:	0003f100 	andeq	pc, r3, r0, lsl #2
     688:	00852100 	addeq	r2, r5, r0, lsl #2
     68c:	77010000 	strvc	r0, [r1, -r0]
     690:	0000002c 	andeq	r0, r0, ip, lsr #32
     694:	00000412 	andeq	r0, r0, r2, lsl r4
     698:	01006922 	tsteq	r0, r2, lsr #18
     69c:	00002c78 	andeq	r2, r0, r8, ror ip
     6a0:	11180100 	tstne	r8, r0, lsl #2
     6a4:	01000005 	tsteq	r0, r5
     6a8:	00002c79 	andeq	r2, r0, r9, ror ip
     6ac:	00043300 	andeq	r3, r4, r0, lsl #6
     6b0:	6e650b00 	vmulvs.f64	d16, d5, d0
     6b4:	a1010064 	tstge	r1, r4, rrx
     6b8:	0000002c 	andeq	r0, r0, ip, lsr #32
     6bc:	00839c13 	addeq	r9, r3, r3, lsl ip
     6c0:	00000400 	andeq	r0, r0, r0, lsl #8
     6c4:	0006d900 	andeq	sp, r6, r0, lsl #18
     6c8:	021f1800 	andseq	r1, pc, #0, 16
     6cc:	79010000 	stmdbvc	r1, {}	; <UNPREDICTABLE>
     6d0:	0000002c 	andeq	r0, r0, ip, lsr #32
     6d4:	00000433 	andeq	r0, r0, r3, lsr r4
     6d8:	00bf2300 	adcseq	r2, pc, r0, lsl #6
     6dc:	83a00000 	movhi	r0, #0
     6e0:	00180000 	andseq	r0, r8, r0
     6e4:	8d010000 	stchi	0, cr0, [r1, #-0]
     6e8:	00000715 	andeq	r0, r0, r5, lsl r7
     6ec:	0000d612 	andeq	sp, r0, r2, lsl r6
     6f0:	cb1e0000 	blgt	7806f8 <__bss_end__+0x776280>
     6f4:	46000000 	strmi	r0, [r0], -r0
     6f8:	24000004 	strcs	r0, [r0], #-4
     6fc:	000000a7 	andeq	r0, r0, r7, lsr #1
     700:	000083a0 	andeq	r8, r0, r0, lsr #7
     704:	00000018 	andeq	r0, r0, r8, lsl r0
     708:	b31e2b01 	tstlt	lr, #1024	; 0x400
     70c:	46000000 	strmi	r0, [r0], -r0
     710:	00000004 	andeq	r0, r0, r4
     714:	83b81300 			; <UNDEFINED> instruction: 0x83b81300
     718:	00040000 	andeq	r0, r4, r0
     71c:	07320000 	ldreq	r0, [r2, -r0]!
     720:	1f180000 	svcne	0x00180000
     724:	01000002 	tsteq	r0, r2
     728:	00002c8e 	andeq	r2, r0, lr, lsl #25
     72c:	00046700 	andeq	r6, r4, r0, lsl #14
     730:	bf230000 	svclt	0x00230000
     734:	c8000000 	stmdagt	r0, {}	; <UNPREDICTABLE>
     738:	24000083 	strcs	r0, [r0], #-131	; 0x83
     73c:	01000000 	mrseq	r0, (UNDEF: 0)
     740:	0007aa8f 	andeq	sl, r7, pc, lsl #21
     744:	00d61e00 	sbcseq	r1, r6, r0, lsl #28
     748:	047a0000 	ldrbteq	r0, [sl], #-0
     74c:	cb250000 	blgt	940754 <__bss_end__+0x9362dc>
     750:	04000000 	streq	r0, [r0], #-0
     754:	9f5001f3 	svcls	0x005001f3
     758:	00000026 	andeq	r0, r0, r6, lsr #32
     75c:	00078f00 	andeq	r8, r7, r0, lsl #30
     760:	00d61e00 	sbcseq	r1, r6, r0, lsl #28
     764:	04940000 	ldreq	r0, [r4], #0
     768:	cb250000 	blgt	940770 <__bss_end__+0x9362f8>
     76c:	04000000 	streq	r0, [r0], #-0
     770:	9f5001f3 	svcls	0x005001f3
     774:	00008f27 	andeq	r8, r0, r7, lsr #30
     778:	0083c800 	addeq	ip, r3, r0, lsl #16
     77c:	00000000 	andeq	r0, r0, r0
     780:	25290100 	strcs	r0, [r9, #-256]!	; 0x100
     784:	0000009b 	muleq	r0, fp, r0
     788:	5001f304 	andpl	pc, r1, r4, lsl #6
     78c:	2700009f 			; <UNDEFINED> instruction: 0x2700009f
     790:	000000a7 	andeq	r0, r0, r7, lsr #1
     794:	000083d4 	ldrdeq	r8, [r0], -r4
     798:	00000028 	andeq	r0, r0, r8, lsr #32
     79c:	b3252b01 	teqlt	r5, #1024	; 0x400
     7a0:	04000000 	streq	r0, [r0], #-0
     7a4:	9f5001f3 	svcls	0x005001f3
     7a8:	ec130000 	ldc	0, cr0, [r3], {-0}
     7ac:	04000083 	streq	r0, [r0], #-131	; 0x83
     7b0:	c7000000 	strgt	r0, [r0, -r0]
     7b4:	18000007 	stmdane	r0, {r0, r1, r2}
     7b8:	0000021f 	andeq	r0, r0, pc, lsl r2
     7bc:	002c9001 	eoreq	r9, ip, r1
     7c0:	05280000 	streq	r0, [r8, #-0]!
     7c4:	23000000 	movwcs	r0, #0
     7c8:	000000bf 	strheq	r0, [r0], -pc	; <UNPREDICTABLE>
     7cc:	000083fc 	strdeq	r8, [r0], -ip
     7d0:	00000024 	andeq	r0, r0, r4, lsr #32
     7d4:	083f9101 	ldmdaeq	pc!, {r0, r8, ip, pc}	; <UNPREDICTABLE>
     7d8:	d61e0000 	ldrle	r0, [lr], -r0
     7dc:	3b000000 	blcc	7e4 <_start-0x781c>
     7e0:	25000005 	strcs	r0, [r0, #-5]
     7e4:	000000cb 	andeq	r0, r0, fp, asr #1
     7e8:	5001f304 	andpl	pc, r1, r4, lsl #6
     7ec:	0048269f 	umaaleq	r2, r8, pc, r6	; <UNPREDICTABLE>
     7f0:	08240000 	stmdaeq	r4!, {}	; <UNPREDICTABLE>
     7f4:	d61e0000 	ldrle	r0, [lr], -r0
     7f8:	55000000 	strpl	r0, [r0, #-0]
     7fc:	25000005 	strcs	r0, [r0, #-5]
     800:	000000cb 	andeq	r0, r0, fp, asr #1
     804:	5001f304 	andpl	pc, r1, r4, lsl #6
     808:	008f279f 	umulleq	r2, pc, pc, r7	; <UNPREDICTABLE>
     80c:	83fc0000 	mvnshi	r0, #0
     810:	00480000 	subeq	r0, r8, r0
     814:	29010000 	stmdbcs	r1, {}	; <UNPREDICTABLE>
     818:	00009b25 	andeq	r9, r0, r5, lsr #22
     81c:	01f30400 	mvnseq	r0, r0, lsl #8
     820:	00009f50 	andeq	r9, r0, r0, asr pc
     824:	0000a727 	andeq	sl, r0, r7, lsr #14
     828:	00840800 	addeq	r0, r4, r0, lsl #16
     82c:	00007000 	andeq	r7, r0, r0
     830:	252b0100 	strcs	r0, [fp, #-256]!	; 0x100
     834:	000000b3 	strheq	r0, [r0], -r3
     838:	5001f304 	andpl	pc, r1, r4, lsl #6
     83c:	1300009f 	movwne	r0, #159	; 0x9f
     840:	00008420 	andeq	r8, r0, r0, lsr #8
     844:	00000004 	andeq	r0, r0, r4
     848:	0000085c 	andeq	r0, r0, ip, asr r8
     84c:	00021f18 	andeq	r1, r2, r8, lsl pc
     850:	2c920100 	ldfcss	f0, [r2], {0}
     854:	d7000000 	strle	r0, [r0, -r0]
     858:	00000005 	andeq	r0, r0, r5
     85c:	0000bf23 	andeq	fp, r0, r3, lsr #30
     860:	00843000 	addeq	r3, r4, r0
     864:	00002400 	andeq	r2, r0, r0, lsl #8
     868:	d4930100 	ldrle	r0, [r3], #256	; 0x100
     86c:	1e000008 	cdpne	0, 0, cr0, cr0, cr8, {0}
     870:	000000d6 	ldrdeq	r0, [r0], -r6
     874:	000005ea 	andeq	r0, r0, sl, ror #11
     878:	0000cb25 	andeq	ip, r0, r5, lsr #22
     87c:	01f30400 	mvnseq	r0, r0, lsl #8
     880:	90269f50 	eorls	r9, r6, r0, asr pc
     884:	b9000000 	stmdblt	r0, {}	; <UNPREDICTABLE>
     888:	1e000008 	cdpne	0, 0, cr0, cr0, cr8, {0}
     88c:	000000d6 	ldrdeq	r0, [r0], -r6
     890:	00000604 	andeq	r0, r0, r4, lsl #12
     894:	0000cb25 	andeq	ip, r0, r5, lsr #22
     898:	01f30400 	mvnseq	r0, r0, lsl #8
     89c:	8f279f50 	svchi	0x00279f50
     8a0:	30000000 	andcc	r0, r0, r0
     8a4:	90000084 	andls	r0, r0, r4, lsl #1
     8a8:	01000000 	mrseq	r0, (UNDEF: 0)
     8ac:	009b2529 	addseq	r2, fp, r9, lsr #10
     8b0:	f3040000 	vhadd.u8	d0, d4, d0
     8b4:	009f5001 	addseq	r5, pc, r1
     8b8:	00a72700 	adceq	r2, r7, r0, lsl #14
     8bc:	843c0000 	ldrthi	r0, [ip], #-0
     8c0:	00b80000 	adcseq	r0, r8, r0
     8c4:	2b010000 	blcs	408cc <__bss_end__+0x36454>
     8c8:	0000b325 	andeq	fp, r0, r5, lsr #6
     8cc:	01f30400 	mvnseq	r0, r0, lsl #8
     8d0:	00009f50 	andeq	r9, r0, r0, asr pc
     8d4:	00845413 	addeq	r5, r4, r3, lsl r4
     8d8:	00000400 	andeq	r0, r0, r0, lsl #8
     8dc:	0008f100 	andeq	pc, r8, r0, lsl #2
     8e0:	021f1800 	andseq	r1, pc, #0, 16
     8e4:	94010000 	strls	r0, [r1], #-0
     8e8:	0000002c 	andeq	r0, r0, ip, lsr #32
     8ec:	00000674 	andeq	r0, r0, r4, ror r6
     8f0:	00bf2300 	adcseq	r2, pc, r0, lsl #6
     8f4:	84640000 	strbthi	r0, [r4], #-0
     8f8:	00240000 	eoreq	r0, r4, r0
     8fc:	95010000 	strls	r0, [r1, #-0]
     900:	00000969 	andeq	r0, r0, r9, ror #18
     904:	0000d61e 	andeq	sp, r0, lr, lsl r6
     908:	00068700 	andeq	r8, r6, r0, lsl #14
     90c:	00cb2500 	sbceq	r2, fp, r0, lsl #10
     910:	f3040000 	vhadd.u8	d0, d4, d0
     914:	269f5001 	ldrcs	r5, [pc], r1
     918:	000000d8 	ldrdeq	r0, [r0], -r8
     91c:	0000094e 	andeq	r0, r0, lr, asr #18
     920:	0000d61e 	andeq	sp, r0, lr, lsl r6
     924:	0006a100 	andeq	sl, r6, r0, lsl #2
     928:	00cb2500 	sbceq	r2, fp, r0, lsl #10
     92c:	f3040000 	vhadd.u8	d0, d4, d0
     930:	279f5001 	ldrcs	r5, [pc, r1]
     934:	0000008f 	andeq	r0, r0, pc, lsl #1
     938:	00008464 	andeq	r8, r0, r4, ror #8
     93c:	000000d8 	ldrdeq	r0, [r0], -r8
     940:	9b252901 	blls	94ad4c <__bss_end__+0x9408d4>
     944:	04000000 	streq	r0, [r0], #-0
     948:	9f5001f3 	svcls	0x005001f3
     94c:	a7270000 	strge	r0, [r7, -r0]!
     950:	70000000 	andvc	r0, r0, r0
     954:	00000084 	andeq	r0, r0, r4, lsl #1
     958:	01000001 	tsteq	r0, r1
     95c:	00b3252b 	adcseq	r2, r3, fp, lsr #10
     960:	f3040000 	vhadd.u8	d0, d4, d0
     964:	009f5001 	addseq	r5, pc, r1
     968:	84881300 	strhi	r1, [r8], #768	; 0x300
     96c:	00040000 	andeq	r0, r4, r0
     970:	09860000 	stmibeq	r6, {}	; <UNPREDICTABLE>
     974:	1f180000 	svcne	0x00180000
     978:	01000002 	tsteq	r0, r2
     97c:	00002c96 	muleq	r0, r6, ip
     980:	0006ff00 	andeq	pc, r6, r0, lsl #30
     984:	bf230000 	svclt	0x00230000
     988:	98000000 	stmdals	r0, {}	; <UNPREDICTABLE>
     98c:	28000084 	stmdacs	r0, {r2, r7}
     990:	01000000 	mrseq	r0, (UNDEF: 0)
     994:	0009fe97 	muleq	r9, r7, lr
     998:	00d61e00 	sbcseq	r1, r6, r0, lsl #28
     99c:	07120000 	ldreq	r0, [r2, -r0]
     9a0:	cb250000 	blgt	9409a8 <__bss_end__+0x936530>
     9a4:	04000000 	streq	r0, [r0], #-0
     9a8:	9f5001f3 	svcls	0x005001f3
     9ac:	00012026 	andeq	r2, r1, r6, lsr #32
     9b0:	0009e300 	andeq	lr, r9, r0, lsl #6
     9b4:	00d61e00 	sbcseq	r1, r6, r0, lsl #28
     9b8:	072c0000 	streq	r0, [ip, -r0]!
     9bc:	cb250000 	blgt	9409c4 <__bss_end__+0x93654c>
     9c0:	04000000 	streq	r0, [r0], #-0
     9c4:	9f5001f3 	svcls	0x005001f3
     9c8:	00008f27 	andeq	r8, r0, r7, lsr #30
     9cc:	00849800 	addeq	r9, r4, r0, lsl #16
     9d0:	00012000 	andeq	r2, r1, r0
     9d4:	25290100 	strcs	r0, [r9, #-256]!	; 0x100
     9d8:	0000009b 	muleq	r0, fp, r0
     9dc:	5001f304 	andpl	pc, r1, r4, lsl #6
     9e0:	2700009f 			; <UNDEFINED> instruction: 0x2700009f
     9e4:	000000a7 	andeq	r0, r0, r7, lsr #1
     9e8:	000084a4 	andeq	r8, r0, r4, lsr #9
     9ec:	00000148 	andeq	r0, r0, r8, asr #2
     9f0:	b3252b01 	teqlt	r5, #1024	; 0x400
     9f4:	04000000 	streq	r0, [r0], #-0
     9f8:	9f5001f3 	svcls	0x005001f3
     9fc:	c0130000 	andsgt	r0, r3, r0
     a00:	04000084 	streq	r0, [r0], #-132	; 0x84
     a04:	1b000000 	blne	a0c <_start-0x75f4>
     a08:	1800000a 	stmdane	r0, {r1, r3}
     a0c:	0000021f 	andeq	r0, r0, pc, lsl r2
     a10:	002c9801 	eoreq	r9, ip, r1, lsl #16
     a14:	07780000 	ldrbeq	r0, [r8, -r0]!
     a18:	23000000 	movwcs	r0, #0
     a1c:	000000bf 	strheq	r0, [r0], -pc	; <UNPREDICTABLE>
     a20:	000084d0 	ldrdeq	r8, [r0], -r0
     a24:	00000028 	andeq	r0, r0, r8, lsr #32
     a28:	0a939901 	beq	fe4e6e34 <__bss_end__+0xfe4dc9bc>
     a2c:	d61e0000 	ldrle	r0, [lr], -r0
     a30:	8b000000 	blhi	a38 <_start-0x75c8>
     a34:	25000007 	strcs	r0, [r0, #-7]
     a38:	000000cb 	andeq	r0, r0, fp, asr #1
     a3c:	5001f304 	andpl	pc, r1, r4, lsl #6
     a40:	0168269f 			; <UNDEFINED> instruction: 0x0168269f
     a44:	0a780000 	beq	1e00a4c <__bss_end__+0x1df65d4>
     a48:	d61e0000 	ldrle	r0, [lr], -r0
     a4c:	a6000000 	strge	r0, [r0], -r0
     a50:	25000007 	strcs	r0, [r0, #-7]
     a54:	000000cb 	andeq	r0, r0, fp, asr #1
     a58:	5001f304 	andpl	pc, r1, r4, lsl #6
     a5c:	008f279f 	umulleq	r2, pc, pc, r7	; <UNPREDICTABLE>
     a60:	84d00000 	ldrbhi	r0, [r0], #0
     a64:	01680000 	cmneq	r8, r0
     a68:	29010000 	stmdbcs	r1, {}	; <UNPREDICTABLE>
     a6c:	00009b25 	andeq	r9, r0, r5, lsr #22
     a70:	01f30400 	mvnseq	r0, r0, lsl #8
     a74:	00009f50 	andeq	r9, r0, r0, asr pc
     a78:	0000a727 	andeq	sl, r0, r7, lsr #14
     a7c:	0084dc00 	addeq	sp, r4, r0, lsl #24
     a80:	00019000 	andeq	r9, r1, r0
     a84:	252b0100 	strcs	r0, [fp, #-256]!	; 0x100
     a88:	000000b3 	strheq	r0, [r0], -r3
     a8c:	5001f304 	andpl	pc, r1, r4, lsl #6
     a90:	1300009f 	movwne	r0, #159	; 0x9f
     a94:	000084f8 	strdeq	r8, [r0], -r8	; <UNPREDICTABLE>
     a98:	00000004 	andeq	r0, r0, r4
     a9c:	00000ab0 			; <UNDEFINED> instruction: 0x00000ab0
     aa0:	00021f18 	andeq	r1, r2, r8, lsl pc
     aa4:	2c9a0100 	ldfcss	f0, [sl], {0}
     aa8:	e0000000 	and	r0, r0, r0
     aac:	00000007 	andeq	r0, r0, r7
     ab0:	0000bf23 	andeq	fp, r0, r3, lsr #30
     ab4:	00850800 	addeq	r0, r5, r0, lsl #16
     ab8:	00002000 	andeq	r2, r0, r0
     abc:	289b0100 	ldmcs	fp, {r8}
     ac0:	1e00000b 	cdpne	0, 0, cr0, cr0, cr11, {0}
     ac4:	000000d6 	ldrdeq	r0, [r0], -r6
     ac8:	000007f3 	strdeq	r0, [r0], -r3
     acc:	0000cb25 	andeq	ip, r0, r5, lsr #22
     ad0:	01f30400 	mvnseq	r0, r0, lsl #8
     ad4:	b0269f50 	eorlt	r9, r6, r0, asr pc
     ad8:	0d000001 	stceq	0, cr0, [r0, #-4]
     adc:	1e00000b 	cdpne	0, 0, cr0, cr0, cr11, {0}
     ae0:	000000d6 	ldrdeq	r0, [r0], -r6
     ae4:	0000080e 	andeq	r0, r0, lr, lsl #16
     ae8:	0000cb25 	andeq	ip, r0, r5, lsr #22
     aec:	01f30400 	mvnseq	r0, r0, lsl #8
     af0:	8f279f50 	svchi	0x00279f50
     af4:	08000000 	stmdaeq	r0, {}	; <UNPREDICTABLE>
     af8:	b0000085 	andlt	r0, r0, r5, lsl #1
     afc:	01000001 	tsteq	r0, r1
     b00:	009b2529 	addseq	r2, fp, r9, lsr #10
     b04:	f3040000 	vhadd.u8	d0, d4, d0
     b08:	009f5001 	addseq	r5, pc, r1
     b0c:	00a72700 	adceq	r2, r7, r0, lsl #14
     b10:	85140000 	ldrhi	r0, [r4, #-0]
     b14:	01d80000 	bicseq	r0, r8, r0
     b18:	2b010000 	blcs	40b20 <__bss_end__+0x366a8>
     b1c:	0000b325 	andeq	fp, r0, r5, lsr #6
     b20:	01f30400 	mvnseq	r0, r0, lsl #8
     b24:	00009f50 	andeq	r9, r0, r0, asr pc
     b28:	00852813 	addeq	r2, r5, r3, lsl r8
     b2c:	00000400 	andeq	r0, r0, r0, lsl #8
     b30:	000b4500 	andeq	r4, fp, r0, lsl #10
     b34:	021f1800 	andseq	r1, pc, #0, 16
     b38:	9c010000 	stcls	0, cr0, [r1], {-0}
     b3c:	0000002c 	andeq	r0, r0, ip, lsr #32
     b40:	00000835 	andeq	r0, r0, r5, lsr r8
     b44:	00bf2300 	adcseq	r2, pc, r0, lsl #6
     b48:	85380000 	ldrhi	r0, [r8, #-0]!
     b4c:	00240000 	eoreq	r0, r4, r0
     b50:	9d010000 	stcls	0, cr0, [r1, #-0]
     b54:	00000bbd 			; <UNDEFINED> instruction: 0x00000bbd
     b58:	0000d61e 	andeq	sp, r0, lr, lsl r6
     b5c:	00084800 	andeq	r4, r8, r0, lsl #16
     b60:	00cb2500 	sbceq	r2, fp, r0, lsl #10
     b64:	f3040000 	vhadd.u8	d0, d4, d0
     b68:	269f5001 	ldrcs	r5, [pc], r1
     b6c:	000001f8 	strdeq	r0, [r0], -r8
     b70:	00000ba2 	andeq	r0, r0, r2, lsr #23
     b74:	0000d61e 	andeq	sp, r0, lr, lsl r6
     b78:	00086300 	andeq	r6, r8, r0, lsl #6
     b7c:	00cb2500 	sbceq	r2, fp, r0, lsl #10
     b80:	f3040000 	vhadd.u8	d0, d4, d0
     b84:	279f5001 	ldrcs	r5, [pc, r1]
     b88:	0000008f 	andeq	r0, r0, pc, lsl #1
     b8c:	0000853c 	andeq	r8, r0, ip, lsr r5
     b90:	000001f8 	strdeq	r0, [r0], -r8
     b94:	9b252901 	blls	94afa0 <__bss_end__+0x940b28>
     b98:	04000000 	streq	r0, [r0], #-0
     b9c:	9f5001f3 	svcls	0x005001f3
     ba0:	a7270000 	strge	r0, [r7, -r0]!
     ba4:	48000000 	stmdami	r0, {}	; <UNPREDICTABLE>
     ba8:	18000085 	stmdane	r0, {r0, r2, r7}
     bac:	01000002 	tsteq	r0, r2
     bb0:	00b3252b 	adcseq	r2, r3, fp, lsr #10
     bb4:	f3040000 	vhadd.u8	d0, d4, d0
     bb8:	009f5001 	addseq	r5, pc, r1
     bbc:	855c1300 	ldrbhi	r1, [ip, #-768]	; 0x300
     bc0:	00040000 	andeq	r0, r4, r0
     bc4:	0bda0000 	bleq	ff680bcc <__bss_end__+0xff676754>
     bc8:	1f180000 	svcne	0x00180000
     bcc:	01000002 	tsteq	r0, r2
     bd0:	00002c9e 	muleq	r0, lr, ip
     bd4:	00087700 	andeq	r7, r8, r0, lsl #14
     bd8:	bf230000 	svclt	0x00230000
     bdc:	6c000000 	stcvs	0, cr0, [r0], {-0}
     be0:	18000085 	stmdane	r0, {r0, r2, r7}
     be4:	01000000 	mrseq	r0, (UNDEF: 0)
     be8:	000c329f 	muleq	ip, pc, r2	; <UNPREDICTABLE>
     bec:	00d61200 	sbcseq	r1, r6, r0, lsl #4
     bf0:	25010000 	strcs	r0, [r1, #-0]
     bf4:	000000cb 	andeq	r0, r0, fp, asr #1
     bf8:	5001f304 	andpl	pc, r1, r4, lsl #6
     bfc:	856c149f 	strbhi	r1, [ip, #-1183]!	; 0x49f
     c00:	00180000 	andseq	r0, r8, r0
     c04:	d6120000 	ldrle	r0, [r2], -r0
     c08:	01000000 	mrseq	r0, (UNDEF: 0)
     c0c:	0000cb25 	andeq	ip, r0, r5, lsr #22
     c10:	01f30400 	mvnseq	r0, r0, lsl #8
     c14:	8f249f50 	svchi	0x00249f50
     c18:	6c000000 	stcvs	0, cr0, [r0], {-0}
     c1c:	18000085 	stmdane	r0, {r0, r2, r7}
     c20:	01000000 	mrseq	r0, (UNDEF: 0)
     c24:	009b2529 	addseq	r2, fp, r9, lsr #10
     c28:	f3040000 	vhadd.u8	d0, d4, d0
     c2c:	009f5001 	addseq	r5, pc, r1
     c30:	84130000 	ldrhi	r0, [r3], #-0
     c34:	04000085 	streq	r0, [r0], #-133	; 0x85
     c38:	4f000000 	svcmi	0x00000000
     c3c:	1800000c 	stmdane	r0, {r2, r3}
     c40:	0000021f 	andeq	r0, r0, pc, lsl r2
     c44:	002ca001 	eoreq	sl, ip, r1
     c48:	088a0000 	stmeq	sl, {}	; <UNPREDICTABLE>
     c4c:	14000000 	strne	r0, [r0], #-0
     c50:	00008594 	muleq	r0, r4, r5
     c54:	00000004 	andeq	r0, r0, r4
     c58:	00021f0a 	andeq	r1, r2, sl, lsl #30
     c5c:	2ca10100 	stfcss	f0, [r1]
     c60:	00000000 	andeq	r0, r0, r0
     c64:	00b12000 	adcseq	r2, r1, r0
     c68:	d0010000 	andle	r0, r1, r0
     c6c:	000085a4 	andeq	r8, r0, r4, lsr #11
     c70:	00000124 	andeq	r0, r0, r4, lsr #2
     c74:	0eb49c01 	cdpeq	12, 11, cr9, cr4, cr1, {0}
     c78:	72220000 	eorvc	r0, r2, #0
     c7c:	d1010078 	tstle	r1, r8, ror r0
     c80:	00000025 	andeq	r0, r0, r5, lsr #32
     c84:	78742214 	ldmdavc	r4!, {r2, r4, r9, sp}^
     c88:	25d20100 	ldrbcs	r0, [r2, #256]	; 0x100
     c8c:	15000000 	strne	r0, [r0, #-0]
     c90:	0085bc13 	addeq	fp, r5, r3, lsl ip
     c94:	00000800 	andeq	r0, r0, r0, lsl #16
     c98:	000ca900 	andeq	sl, ip, r0, lsl #18
     c9c:	6e692200 	cdpvs	2, 6, cr2, cr9, cr0, {0}
     ca0:	2cd60100 	ldfcse	f0, [r6], {0}
     ca4:	01000000 	mrseq	r0, (UNDEF: 0)
     ca8:	02192300 	andseq	r2, r9, #0, 6
     cac:	85d40000 	ldrbhi	r0, [r4]
     cb0:	00680000 	rsbeq	r0, r8, r0
     cb4:	d9010000 	stmdble	r1, {}	; <UNPREDICTABLE>
     cb8:	00000d80 	andeq	r0, r0, r0, lsl #27
     cbc:	0002251e 	andeq	r2, r2, lr, lsl r5
     cc0:	00089d00 	andeq	r9, r8, r0, lsl #26
     cc4:	022f1e00 	eoreq	r1, pc, #0, 28
     cc8:	08b10000 	ldmeq	r1!, {}	; <UNPREDICTABLE>
     ccc:	391e0000 	ldmdbcc	lr, {}	; <UNPREDICTABLE>
     cd0:	c5000002 	strgt	r0, [r0, #-2]
     cd4:	14000008 	strne	r0, [r0], #-8
     cd8:	000085d4 	ldrdeq	r8, [r0], -r4
     cdc:	00000068 	andeq	r0, r0, r8, rrx
     ce0:	0002420f 	andeq	r4, r2, pc, lsl #4
     ce4:	0008da00 	andeq	sp, r8, r0, lsl #20
     ce8:	024d0f00 	subeq	r0, sp, #0, 30
     cec:	09050000 	stmdbeq	r5, {}	; <UNPREDICTABLE>
     cf0:	fc130000 	ldc2	0, cr0, [r3], {-0}
     cf4:	34000085 	strcc	r0, [r0], #-133	; 0x85
     cf8:	2e000000 	cdpcs	0, 0, cr0, cr0, cr0, {0}
     cfc:	0f00000d 	svceq	0x0000000d
     d00:	00000259 	andeq	r0, r0, r9, asr r2
     d04:	00000924 	andeq	r0, r0, r4, lsr #18
     d08:	0086081b 	addeq	r0, r6, fp, lsl r8
     d0c:	0002af00 	andeq	sl, r2, r0, lsl #30
     d10:	86242800 	strthi	r2, [r4], -r0, lsl #16
     d14:	06560000 	ldrbeq	r0, [r6], -r0
     d18:	011a0000 	tsteq	sl, r0
     d1c:	bc0a0352 	stclt	3, cr0, [sl], {82}	; 0x52
     d20:	51011a17 	tstpl	r1, r7, lsl sl
     d24:	1a007602 	bne	1e534 <__bss_end__+0x140bc>
     d28:	45015001 	strmi	r5, [r1, #-1]
     d2c:	dc190000 	ldcle	0, cr0, [r9], {-0}
     d30:	c7000085 	strgt	r0, [r0, -r5, lsl #1]
     d34:	4500000f 	strmi	r0, [r0, #-15]
     d38:	1a00000d 	bne	d74 <_start-0x728c>
     d3c:	03055001 	movweq	r5, #20481	; 0x5001
     d40:	00009dbc 			; <UNDEFINED> instruction: 0x00009dbc
     d44:	85f01900 	ldrbhi	r1, [r0, #2304]!	; 0x900
     d48:	06560000 	ldrbeq	r0, [r6], -r0
     d4c:	0d650000 	stcleq	0, cr0, [r5, #-0]
     d50:	011a0000 	tsteq	sl, r0
     d54:	bc0a0352 	stclt	3, cr0, [sl], {82}	; 0x52
     d58:	51011a17 	tstpl	r1, r7, lsl sl
     d5c:	1a007402 	bne	1dd6c <__bss_end__+0x138f4>
     d60:	45015001 	strmi	r5, [r1, #-1]
     d64:	863c2800 	ldrthi	r2, [ip], -r0, lsl #16
     d68:	0fc70000 	svceq	0x00c70000
     d6c:	011a0000 	tsteq	sl, r0
     d70:	00760251 	rsbseq	r0, r6, r1, asr r2
     d74:	0550011a 	ldrbeq	r0, [r0, #-282]	; 0x11a
     d78:	009dd403 	addseq	sp, sp, r3, lsl #8
     d7c:	00000000 	andeq	r0, r0, r0
     d80:	00026423 	andeq	r6, r2, r3, lsr #8
     d84:	00864000 	addeq	r4, r6, r0
     d88:	00008800 	andeq	r8, r0, r0, lsl #16
     d8c:	68db0100 	ldmvs	fp, {r8}^
     d90:	1200000e 	andne	r0, r0, #14
     d94:	00000270 	andeq	r0, r0, r0, ror r2
     d98:	027a1215 	rsbseq	r1, sl, #1342177281	; 0x50000001
     d9c:	12140000 	andsne	r0, r4, #0
     da0:	00000284 	andeq	r0, r0, r4, lsl #5
     da4:	864014fe 			; <UNDEFINED> instruction: 0x864014fe
     da8:	00880000 	addeq	r0, r8, r0
     dac:	8d0f0000 	stchi	0, cr0, [pc, #-0]	; db4 <_start-0x724c>
     db0:	38000002 	stmdacc	r0, {r1}
     db4:	0f000009 	svceq	0x00000009
     db8:	00000298 	muleq	r0, r8, r2
     dbc:	00000957 	andeq	r0, r0, r7, asr r9
     dc0:	0002a30f 	andeq	sl, r2, pc, lsl #6
     dc4:	00097600 	andeq	r7, r9, r0, lsl #12
     dc8:	008f2900 	addeq	r2, pc, r0, lsl #18
     dcc:	86500000 	ldrbhi	r0, [r0], -r0
     dd0:	02380000 	eorseq	r0, r8, #0
     dd4:	c7010000 	strgt	r0, [r1, -r0]
     dd8:	00000de3 	andeq	r0, r0, r3, ror #27
     ddc:	00009b12 	andeq	r9, r0, r2, lsl fp
     de0:	19001500 	stmdbne	r0, {r8, sl, ip}
     de4:	00008648 	andeq	r8, r0, r8, asr #12
     de8:	00000fc7 	andeq	r0, r0, r7, asr #31
     dec:	00000dfa 	strdeq	r0, [r0], -sl
     df0:	0550011a 	ldrbeq	r0, [r0, #-282]	; 0x11a
     df4:	009df003 	addseq	pc, sp, r3
     df8:	50190000 	andspl	r0, r9, r0
     dfc:	c7000086 	strgt	r0, [r0, -r6, lsl #1]
     e00:	1100000f 	tstne	r0, pc
     e04:	1a00000e 	bne	e44 <_start-0x71bc>
     e08:	03055001 	movweq	r5, #20481	; 0x5001
     e0c:	00009e00 	andeq	r9, r0, r0, lsl #28
     e10:	865c1b00 	ldrbhi	r1, [ip], -r0, lsl #22
     e14:	02af0000 	adceq	r0, pc, #0
     e18:	80190000 	andshi	r0, r9, r0
     e1c:	af000086 	svcge	0x00000086
     e20:	2d00000f 	stccs	0, cr0, [r0, #-60]	; 0xffffffc4
     e24:	1a00000e 	bne	e64 <_start-0x719c>
     e28:	31015001 	tstcc	r1, r1
     e2c:	86901900 	ldrhi	r1, [r0], r0, lsl #18
     e30:	06560000 	ldrbeq	r0, [r6], -r0
     e34:	0e4d0000 	cdpeq	0, 4, cr0, cr13, cr0, {0}
     e38:	011a0000 	tsteq	sl, r0
     e3c:	bc0a0352 	stclt	3, cr0, [sl], {82}	; 0x52
     e40:	51011a17 	tstpl	r1, r7, lsl sl
     e44:	1a007702 	bne	1ea54 <__bss_end__+0x145dc>
     e48:	45015001 	strmi	r5, [r1, #-1]
     e4c:	86a82800 	strthi	r2, [r8], r0, lsl #16
     e50:	0fc70000 	svceq	0x00c70000
     e54:	011a0000 	tsteq	sl, r0
     e58:	00740251 	rsbseq	r0, r4, r1, asr r2
     e5c:	0550011a 	ldrbeq	r0, [r0, #-282]	; 0x11a
     e60:	009e1003 	addseq	r1, lr, r3
     e64:	00000000 	andeq	r0, r0, r0
     e68:	0085b019 	addeq	fp, r5, r9, lsl r0
     e6c:	000fe400 	andeq	lr, pc, r0, lsl #8
     e70:	000e7b00 	andeq	r7, lr, r0, lsl #22
     e74:	50011a00 	andpl	r1, r1, r0, lsl #20
     e78:	19004501 	stmdbne	r0, {r0, r8, sl, lr}
     e7c:	000085b8 			; <UNDEFINED> instruction: 0x000085b8
     e80:	00000ff5 	strdeq	r0, [r0], -r5
     e84:	00000e8e 	andeq	r0, r0, lr, lsl #29
     e88:	0150011a 	cmpeq	r0, sl, lsl r1
     e8c:	bc1b0044 	ldclt	0, cr0, [fp], {68}	; 0x44
     e90:	06000085 	streq	r0, [r0], -r5, lsl #1
     e94:	19000010 	stmdbne	r0, {r4}
     e98:	000085cc 	andeq	r8, r0, ip, asr #11
     e9c:	0000100d 	andeq	r1, r0, sp
     ea0:	00000eaa 	andeq	r0, r0, sl, lsr #29
     ea4:	0150011a 	cmpeq	r0, sl, lsl r1
     ea8:	401b0044 	andsmi	r0, fp, r4, asr #32
     eac:	dd000086 	stcle	0, cr0, [r0, #-536]	; 0xfffffde8
     eb0:	0000000f 	andeq	r0, r0, pc
     eb4:	0001912a 	andeq	r9, r1, sl, lsr #2
     eb8:	c3070100 	movwgt	r0, #28928	; 0x7100
     ebc:	0000000e 	andeq	r0, r0, lr
     ec0:	05202000 	streq	r2, [r0, #-0]!
     ec4:	000ec904 	andeq	ip, lr, r4, lsl #18
     ec8:	002c2b00 	eoreq	r2, ip, r0, lsl #22
     ecc:	5b2a0000 	blpl	a80ed4 <__bss_end__+0xa76a5c>
     ed0:	01000002 	tsteq	r0, r2
     ed4:	000ec308 	andeq	ip, lr, r8, lsl #6
     ed8:	20001c00 	andcs	r1, r0, r0, lsl #24
     edc:	02a42a20 	adceq	r2, r4, #32, 20	; 0x20000
     ee0:	09010000 	stmdbeq	r1, {}	; <UNPREDICTABLE>
     ee4:	00000ec3 	andeq	r0, r0, r3, asr #29
     ee8:	20200028 	eorcs	r0, r0, r8, lsr #32
     eec:	00013d2a 	andeq	r3, r1, sl, lsr #26
     ef0:	c30b0100 	movwgt	r0, #45312	; 0xb100
     ef4:	0000000e 	andeq	r0, r0, lr
     ef8:	2a202000 	bcs	808f00 <__bss_end__+0x7fea88>
     efc:	00000145 	andeq	r0, r0, r5, asr #2
     f00:	0ec30c01 	cdpeq	12, 12, cr0, cr3, cr1, {0}
     f04:	00040000 	andeq	r0, r4, r0
     f08:	002a2020 	eoreq	r2, sl, r0, lsr #32
     f0c:	01000000 	mrseq	r0, (UNDEF: 0)
     f10:	000ec30d 	andeq	ip, lr, sp, lsl #6
     f14:	20000800 	andcs	r0, r0, r0, lsl #16
     f18:	014d2a20 	cmpeq	sp, r0, lsr #20
     f1c:	0e010000 	cdpeq	0, 0, cr0, cr1, cr0, {0}
     f20:	00000ec3 	andeq	r0, r0, r3, asr #29
     f24:	2020000c 	eorcs	r0, r0, ip
     f28:	0000082a 	andeq	r0, r0, sl, lsr #16
     f2c:	c30f0100 	movwgt	r0, #61696	; 0xf100
     f30:	1000000e 	andne	r0, r0, lr
     f34:	2a202000 	bcs	808f3c <__bss_end__+0x7feac4>
     f38:	0000015e 	andeq	r0, r0, lr, asr r1
     f3c:	0ec31001 	cdpeq	0, 12, cr1, cr3, cr1, {0}
     f40:	00140000 	andseq	r0, r4, r0
     f44:	8c2a2020 	stchi	0, cr2, [sl], #-128	; 0xffffff80
     f48:	01000000 	mrseq	r0, (UNDEF: 0)
     f4c:	000f5512 	andeq	r5, pc, r2, lsl r5	; <UNPREDICTABLE>
     f50:	20001c00 	andcs	r1, r0, r0, lsl #24
     f54:	0ec30620 	cdpeq	6, 12, cr0, cr3, cr0, {1}
     f58:	932a0000 	teqls	sl, #0
     f5c:	01000000 	mrseq	r0, (UNDEF: 0)
     f60:	000ec313 	andeq	ip, lr, r3, lsl r3
     f64:	20002000 	andcs	r2, r0, r0
     f68:	023c2a20 	eorseq	r2, ip, #32, 20	; 0x20000
     f6c:	15010000 	strne	r0, [r1, #-0]
     f70:	00000f78 	andeq	r0, r0, r8, ror pc
     f74:	20200028 	eorcs	r0, r0, r8, lsr #32
     f78:	000ec306 	andeq	ip, lr, r6, lsl #6
     f7c:	019c2a00 	orrseq	r2, ip, r0, lsl #20
     f80:	16010000 	strne	r0, [r1], -r0
     f84:	00000ec3 	andeq	r0, r0, r3, asr #29
     f88:	2020002c 	eorcs	r0, r0, ip, lsr #32
     f8c:	00009a2a 	andeq	r9, r0, sl, lsr #20
     f90:	9b180100 	blls	601398 <__bss_end__+0x5f6f20>
     f94:	3400000f 	strcc	r0, [r0], #-15
     f98:	06202000 	strteq	r2, [r0], -r0
     f9c:	00000ec3 	andeq	r0, r0, r3, asr #29
     fa0:	0000a12a 	andeq	sl, r0, sl, lsr #2
     fa4:	c3190100 	tstgt	r9, #0, 2
     fa8:	3800000e 	stmdacc	r0, {r1, r2, r3}
     fac:	2c202000 	stccs	0, cr2, [r0], #-0
     fb0:	00000243 	andeq	r0, r0, r3, asr #4
     fb4:	0fc05002 	svceq	0x00c05002
     fb8:	2c2d0000 	stccs	0, cr0, [sp], #-0
     fbc:	00000000 	andeq	r0, r0, r0
     fc0:	00012e2e 	andeq	r2, r1, lr, lsr #28
     fc4:	2f1e0200 	svccs	0x001e0200
     fc8:	0000032d 	andeq	r0, r0, sp, lsr #6
     fcc:	00252902 	eoreq	r2, r5, r2, lsl #18
     fd0:	0fdd0000 	svceq	0x00dd0000
     fd4:	842d0000 	strthi	r0, [sp], #-0
     fd8:	30000000 	andcc	r0, r0, r0
     fdc:	01ad2e00 			; <UNDEFINED> instruction: 0x01ad2e00
     fe0:	66020000 	strvs	r0, [r2], -r0
     fe4:	00027f2c 	andeq	r7, r2, ip, lsr #30
     fe8:	f51d0300 			; <UNDEFINED> instruction: 0xf51d0300
     fec:	2d00000f 	stccs	0, cr0, [r0, #-60]	; 0xffffffc4
     ff0:	0000002c 	andeq	r0, r0, ip, lsr #32
     ff4:	026b2c00 	rsbeq	r2, fp, #0, 24
     ff8:	1c030000 	stcne	0, cr0, [r3], {-0}
     ffc:	00001006 	andeq	r1, r0, r6
    1000:	00002c2d 	andeq	r2, r0, sp, lsr #24
    1004:	8f2e0000 	svchi	0x002e0000
    1008:	02000002 	andeq	r0, r0, #2
    100c:	01a3318e 			; <UNDEFINED> instruction: 0x01a3318e
    1010:	24030000 	strcs	r0, [r3], #-0
    1014:	00000025 	andeq	r0, r0, r5, lsr #32
    1018:	00002c2d 	andeq	r2, r0, sp, lsr #24
    101c:	91000000 	mrsls	r0, (UNDEF: 0)
    1020:	04000001 	streq	r0, [r0], #-1
    1024:	00027a00 	andeq	r7, r2, r0, lsl #20
    1028:	d3010400 	movwle	r0, #5120	; 0x1400
    102c:	01000002 	tsteq	r0, r2
    1030:	000002c5 	andeq	r0, r0, r5, asr #5
    1034:	0000033e 	andeq	r0, r0, lr, lsr r3
    1038:	000086c8 	andeq	r8, r0, r8, asr #13
    103c:	00000058 	andeq	r0, r0, r8, asr r0
    1040:	000002f5 	strdeq	r0, [r0], -r5
    1044:	0002b602 	andeq	fp, r2, r2, lsl #12
    1048:	30280200 	eorcc	r0, r8, r0, lsl #4
    104c:	03000000 	movweq	r0, #0
    1050:	00000334 	andeq	r0, r0, r4, lsr r3
    1054:	47000304 	strmi	r0, [r0, -r4, lsl #6]
    1058:	04000000 	streq	r0, [r0], #-0
    105c:	00000387 	andeq	r0, r0, r7, lsl #7
    1060:	00000047 	andeq	r0, r0, r7, asr #32
    1064:	04050000 	streq	r0, [r5], #-0
    1068:	00033602 	andeq	r3, r3, r2, lsl #12
    106c:	25620200 	strbcs	r0, [r2, #-512]!	; 0x200
    1070:	06000000 	streq	r0, [r0], -r0
    1074:	6e690504 	cdpvs	5, 6, cr0, cr9, cr4, {0}
    1078:	04070074 	streq	r0, [r7], #-116	; 0x74
    107c:	00004d07 	andeq	r4, r0, r7, lsl #26
    1080:	06010700 	streq	r0, [r1], -r0, lsl #14
    1084:	00000226 	andeq	r0, r0, r6, lsr #4
    1088:	32050207 	andcc	r0, r5, #1879048192	; 0x70000000
    108c:	07000002 	streq	r0, [r0, -r2]
    1090:	007c0504 	rsbseq	r0, ip, r4, lsl #10
    1094:	08070000 	stmdaeq	r7, {}	; <UNPREDICTABLE>
    1098:	00007705 	andeq	r7, r0, r5, lsl #14
    109c:	08010700 	stmdaeq	r1, {r8, r9, sl}
    10a0:	00000224 	andeq	r0, r0, r4, lsr #4
    10a4:	7e070207 	cdpvc	2, 0, cr0, cr7, cr7, {0}
    10a8:	07000001 	streq	r0, [r0, -r1]
    10ac:	00480704 	subeq	r0, r8, r4, lsl #14
    10b0:	08070000 	stmdaeq	r7, {}	; <UNPREDICTABLE>
    10b4:	00004307 	andeq	r4, r0, r7, lsl #6
    10b8:	07040700 	streq	r0, [r4, -r0, lsl #14]
    10bc:	000001c0 	andeq	r0, r0, r0, asr #3
    10c0:	00a70408 	adceq	r0, r7, r8, lsl #8
    10c4:	01070000 	mrseq	r0, (UNDEF: 7)
    10c8:	00022d08 	andeq	r2, r2, r8, lsl #26
    10cc:	b4040800 	strlt	r0, [r4], #-2048	; 0x800
    10d0:	09000000 	stmdbeq	r0, {}	; <UNPREDICTABLE>
    10d4:	000000a7 	andeq	r0, r0, r7, lsr #1
    10d8:	00032d0a 	andeq	r2, r3, sl, lsl #26
    10dc:	54060100 	strpl	r0, [r6], #-256	; 0x100
    10e0:	c8000000 	stmdagt	r0, {}	; <UNPREDICTABLE>
    10e4:	58000086 	stmdapl	r0, {r1, r2, r7}
    10e8:	01000000 	mrseq	r0, (UNDEF: 0)
    10ec:	0001439c 	muleq	r1, ip, r3
    10f0:	6d660b00 	vstmdbvs	r6!, {d16-d15}
    10f4:	06010074 			; <UNDEFINED> instruction: 0x06010074
    10f8:	000000ae 	andeq	r0, r0, lr, lsr #1
    10fc:	0c709102 	ldfeqp	f1, [r0], #-8
    1100:	6675620d 	ldrbtvs	r6, [r5], -sp, lsl #4
    1104:	43080100 	movwmi	r0, #33024	; 0x8100
    1108:	05000001 	streq	r0, [r0, #-1]
    110c:	00a06803 	adceq	r6, r0, r3, lsl #16
    1110:	03820e00 	orreq	r0, r2, #0, 28
    1114:	09010000 	stmdbeq	r1, {}	; <UNPREDICTABLE>
    1118:	00000049 	andeq	r0, r0, r9, asr #32
    111c:	0f5c9102 	svceq	0x005c9102
    1120:	01007a73 	tsteq	r0, r3, ror sl
    1124:	0000540c 	andeq	r5, r0, ip, lsl #8
    1128:	0009a000 	andeq	sl, r9, r0
    112c:	86f01000 	ldrbthi	r1, [r0], r0
    1130:	01740000 	cmneq	r4, r0
    1134:	01360000 	teqeq	r6, r0
    1138:	01110000 	tsteq	r1, r0
    113c:	4c910253 	lfmmi	f0, 4, [r1], {83}	; 0x53
    1140:	03520111 	cmpeq	r2, #1073741828	; 0x40000004
    1144:	11064891 			; <UNDEFINED> instruction: 0x11064891
    1148:	0a035101 	beq	d5554 <__bss_end__+0xcb0dc>
    114c:	01110400 	tsteq	r1, r0, lsl #8
    1150:	00740250 	rsbseq	r0, r4, r0, asr r2
    1154:	87041200 	strhi	r1, [r4, -r0, lsl #4]
    1158:	01110000 	tsteq	r1, r0
    115c:	00740250 	rsbseq	r0, r4, r0, asr r2
    1160:	a7130000 	ldrge	r0, [r3, -r0]
    1164:	54000000 	strpl	r0, [r0], #-0
    1168:	14000001 	strne	r0, [r0], #-1
    116c:	0000009a 	muleq	r0, sl, r0
    1170:	150003ff 	strne	r0, [r0, #-1023]	; 0x3ff
    1174:	00000054 	andeq	r0, r0, r4, asr r0
    1178:	00000163 	andeq	r0, r0, r3, ror #2
    117c:	0000ae16 	andeq	sl, r0, r6, lsl lr
    1180:	da170000 	ble	5c1188 <__bss_end__+0x5b6d10>
    1184:	04000003 	streq	r0, [r0], #-3
    1188:	00016e22 	andeq	r6, r1, r2, lsr #28
    118c:	54040800 	strpl	r0, [r4], #-2048	; 0x800
    1190:	18000001 	stmdane	r0, {r0}
    1194:	0000032a 	andeq	r0, r0, sl, lsr #6
    1198:	00540205 	subseq	r0, r4, r5, lsl #4
    119c:	a1160000 	tstge	r6, r0
    11a0:	16000000 	strne	r0, [r0], -r0
    11a4:	00000054 	andeq	r0, r0, r4, asr r0
    11a8:	0000ae16 	andeq	sl, r0, r6, lsl lr
    11ac:	00491600 	subeq	r1, r9, r0, lsl #12
    11b0:	00000000 	andeq	r0, r0, r0
    11b4:	00000113 	andeq	r0, r0, r3, lsl r1
    11b8:	03ab0004 			; <UNDEFINED> instruction: 0x03ab0004
    11bc:	01040000 	mrseq	r0, (UNDEF: 4)
    11c0:	000002d3 	ldrdeq	r0, [r0], -r3
    11c4:	0003a901 	andeq	sl, r3, r1, lsl #18
    11c8:	00033e00 	andeq	r3, r3, r0, lsl #28
    11cc:	00872000 	addeq	r2, r7, r0
    11d0:	00003c00 	andeq	r3, r0, r0, lsl #24
    11d4:	0003fb00 	andeq	pc, r3, r0, lsl #22
    11d8:	05040200 	streq	r0, [r4, #-512]	; 0x200
    11dc:	00746e69 	rsbseq	r6, r4, r9, ror #28
    11e0:	4d070403 	cfstrsmi	mvf0, [r7, #-12]
    11e4:	03000000 	movweq	r0, #0
    11e8:	02260601 	eoreq	r0, r6, #1048576	; 0x100000
    11ec:	02030000 	andeq	r0, r3, #0
    11f0:	00023205 	andeq	r3, r2, r5, lsl #4
    11f4:	05040300 	streq	r0, [r4, #-768]	; 0x300
    11f8:	0000007c 	andeq	r0, r0, ip, ror r0
    11fc:	77050803 	strvc	r0, [r5, -r3, lsl #16]
    1200:	03000000 	movweq	r0, #0
    1204:	02240801 	eoreq	r0, r4, #65536	; 0x10000
    1208:	02030000 	andeq	r0, r3, #0
    120c:	00017e07 	andeq	r7, r1, r7, lsl #28
    1210:	07040300 	streq	r0, [r4, -r0, lsl #6]
    1214:	00000048 	andeq	r0, r0, r8, asr #32
    1218:	43070803 	movwmi	r0, #30723	; 0x7803
    121c:	03000000 	movweq	r0, #0
    1220:	01c00704 	biceq	r0, r0, r4, lsl #14
    1224:	01030000 	mrseq	r0, (UNDEF: 3)
    1228:	00022d08 	andeq	r2, r2, r8, lsl #26
    122c:	038c0400 	orreq	r0, ip, #0, 8
    1230:	03010000 	movweq	r0, #4096	; 0x1000
    1234:	00000025 	andeq	r0, r0, r5, lsr #32
    1238:	00008720 	andeq	r8, r0, r0, lsr #14
    123c:	00000014 	andeq	r0, r0, r4, lsl r0
    1240:	00b09c01 	adcseq	r9, r0, r1, lsl #24
    1244:	63050000 	movwvs	r0, #20480	; 0x5000
    1248:	25030100 	strcs	r0, [r3, #-256]	; 0x100
    124c:	c9000000 	stmdbgt	r0, {}	; <UNPREDICTABLE>
    1250:	06000009 	streq	r0, [r0], -r9
    1254:	0000872c 	andeq	r8, r0, ip, lsr #14
    1258:	00000109 	andeq	r0, r0, r9, lsl #2
    125c:	02500107 	subseq	r0, r0, #-1073741823	; 0xc0000001
    1260:	00000074 	andeq	r0, r0, r4, ror r0
    1264:	00012e08 	andeq	r2, r1, r8, lsl #28
    1268:	34080100 	strcc	r0, [r8], #-256	; 0x100
    126c:	18000087 	stmdane	r0, {r0, r1, r2, r7}
    1270:	01000000 	mrseq	r0, (UNDEF: 0)
    1274:	03b8099c 			; <UNDEFINED> instruction: 0x03b8099c
    1278:	0b010000 	bleq	41280 <__bss_end__+0x36e08>
    127c:	0000874c 	andeq	r8, r0, ip, asr #14
    1280:	00000010 	andeq	r0, r0, r0, lsl r0
    1284:	00e39c01 	rsceq	r9, r3, r1, lsl #24
    1288:	660a0000 	strvs	r0, [sl], -r0
    128c:	0b010070 	bleq	41454 <__bss_end__+0x36fdc>
    1290:	000000f2 	strdeq	r0, [r0], -r2
    1294:	0b005001 	bleq	152a0 <__bss_end__+0xae28>
    1298:	00000025 	andeq	r0, r0, r5, lsr #32
    129c:	000000f2 	strdeq	r0, [r0], -r2
    12a0:	0000250c 	andeq	r2, r0, ip, lsl #10
    12a4:	040d0000 	streq	r0, [sp], #-0
    12a8:	000000e3 	andeq	r0, r0, r3, ror #1
    12ac:	00039d0e 	andeq	r9, r3, lr, lsl #26
    12b0:	f2060100 	vrhadd.s8	d0, d6, d0
    12b4:	05000000 	streq	r0, [r0, #-0]
    12b8:	009cd803 	addseq	sp, ip, r3, lsl #16
    12bc:	05250f00 	streq	r0, [r5, #-3840]!	; 0xf00
    12c0:	3c020000 	stccc	0, cr0, [r2], {-0}
    12c4:	00002c0c 	andeq	r2, r0, ip, lsl #24
    12c8:	ee000000 	cdp	0, 0, cr0, cr0, cr0, {0}
    12cc:	04000000 	streq	r0, [r0], #-0
    12d0:	00049300 	andeq	r9, r4, r0, lsl #6
    12d4:	d3010400 	movwle	r0, #5120	; 0x1400
    12d8:	01000002 	tsteq	r0, r2
    12dc:	000003c5 	andeq	r0, r0, r5, asr #7
    12e0:	0000033e 	andeq	r0, r0, lr, lsr r3
    12e4:	0000875c 	andeq	r8, r0, ip, asr r7
    12e8:	00000034 	andeq	r0, r0, r4, lsr r0
    12ec:	00000489 	andeq	r0, r0, r9, lsl #9
    12f0:	69050402 	stmdbvs	r5, {r1, sl}
    12f4:	0300746e 	movweq	r7, #1134	; 0x46e
    12f8:	004d0704 	subeq	r0, sp, r4, lsl #14
    12fc:	01030000 	mrseq	r0, (UNDEF: 3)
    1300:	00022606 	andeq	r2, r2, r6, lsl #12
    1304:	05020300 	streq	r0, [r2, #-768]	; 0x300
    1308:	00000232 	andeq	r0, r0, r2, lsr r2
    130c:	7c050403 	cfstrsvc	mvf0, [r5], {3}
    1310:	03000000 	movweq	r0, #0
    1314:	00770508 	rsbseq	r0, r7, r8, lsl #10
    1318:	01030000 	mrseq	r0, (UNDEF: 3)
    131c:	00022408 	andeq	r2, r2, r8, lsl #8
    1320:	07020300 	streq	r0, [r2, -r0, lsl #6]
    1324:	0000017e 	andeq	r0, r0, lr, ror r1
    1328:	48070403 	stmdami	r7, {r0, r1, sl}
    132c:	03000000 	movweq	r0, #0
    1330:	00430708 	subeq	r0, r3, r8, lsl #14
    1334:	04030000 	streq	r0, [r3], #-0
    1338:	0001c007 	andeq	ip, r1, r7
    133c:	08010300 	stmdaeq	r1, {r8, r9}
    1340:	0000022d 	andeq	r0, r0, sp, lsr #4
    1344:	007f0404 	rsbseq	r0, pc, r4, lsl #8
    1348:	72050000 	andvc	r0, r5, #0
    134c:	06000000 	streq	r0, [r0], -r0
    1350:	000003d1 	ldrdeq	r0, [r0], -r1
    1354:	00250401 	eoreq	r0, r5, r1, lsl #8
    1358:	875c0000 	ldrbhi	r0, [ip, -r0]
    135c:	00340000 	eorseq	r0, r4, r0
    1360:	9c010000 	stcls	0, cr0, [r1], {-0}
    1364:	000000ab 	andeq	r0, r0, fp, lsr #1
    1368:	01007007 	tsteq	r0, r7
    136c:	00007904 	andeq	r7, r0, r4, lsl #18
    1370:	0009e700 	andeq	lr, r9, r0, lsl #14
    1374:	25080000 	strcs	r0, [r8, #-0]
    1378:	ba000000 	blt	1380 <_start-0x6c80>
    137c:	09000000 	stmdbeq	r0, {}	; <UNPREDICTABLE>
    1380:	00000025 	andeq	r0, r0, r5, lsr #32
    1384:	039d0a00 	orrseq	r0, sp, #0, 20
    1388:	1d020000 	stcne	0, cr0, [r2, #-0]
    138c:	000000c5 	andeq	r0, r0, r5, asr #1
    1390:	00ab0404 	adceq	r0, fp, r4, lsl #8
    1394:	25080000 	strcs	r0, [r8, #-0]
    1398:	da000000 	ble	13a0 <_start-0x6c60>
    139c:	09000000 	stmdbeq	r0, {}	; <UNPREDICTABLE>
    13a0:	00000079 	andeq	r0, r0, r9, ror r0
    13a4:	03da0b00 	bicseq	r0, sl, #0, 22
    13a8:	0c010000 	stceq	0, cr0, [r1], {-0}
    13ac:	000000eb 	andeq	r0, r0, fp, ror #1
    13b0:	9cdc0305 	ldclls	3, cr0, [ip], {5}
    13b4:	04040000 	streq	r0, [r4], #-0
    13b8:	000000cb 	andeq	r0, r0, fp, asr #1
    13bc:	0006a100 	andeq	sl, r6, r0, lsl #2
    13c0:	2c000400 	cfstrscs	mvf0, [r0], {-0}
    13c4:	04000005 	streq	r0, [r0], #-5
    13c8:	0002d301 	andeq	sp, r2, r1, lsl #6
    13cc:	040b0100 	streq	r0, [fp], #-256	; 0x100
    13d0:	033e0000 	teqeq	lr, #0
    13d4:	87900000 	ldrhi	r0, [r0, r0]
    13d8:	05240000 	streq	r0, [r4, #-0]!
    13dc:	05230000 	streq	r0, [r3, #-0]!
    13e0:	04020000 	streq	r0, [r2], #-0
    13e4:	746e6905 	strbtvc	r6, [lr], #-2309	; 0x905
    13e8:	07040300 	streq	r0, [r4, -r0, lsl #6]
    13ec:	0000004d 	andeq	r0, r0, sp, asr #32
    13f0:	26060103 	strcs	r0, [r6], -r3, lsl #2
    13f4:	03000002 	movweq	r0, #2
    13f8:	02320502 	eorseq	r0, r2, #8388608	; 0x800000
    13fc:	04030000 	streq	r0, [r3], #-0
    1400:	00007c05 	andeq	r7, r0, r5, lsl #24
    1404:	05080300 	streq	r0, [r8, #-768]	; 0x300
    1408:	00000077 	andeq	r0, r0, r7, ror r0
    140c:	24080103 	strcs	r0, [r8], #-259	; 0x103
    1410:	03000002 	movweq	r0, #2
    1414:	017e0702 	cmneq	lr, r2, lsl #14
    1418:	04030000 	streq	r0, [r3], #-0
    141c:	00004807 	andeq	r4, r0, r7, lsl #16
    1420:	07080300 	streq	r0, [r8, -r0, lsl #6]
    1424:	00000043 	andeq	r0, r0, r3, asr #32
    1428:	c0070403 	andgt	r0, r7, r3, lsl #8
    142c:	04000001 	streq	r0, [r0], #-1
    1430:	7a040504 	bvc	102848 <__bss_end__+0xf83d0>
    1434:	03000000 	movweq	r0, #0
    1438:	022d0801 	eoreq	r0, sp, #65536	; 0x10000
    143c:	04050000 	streq	r0, [r5], #-0
    1440:	00000087 	andeq	r0, r0, r7, lsl #1
    1444:	00007a06 	andeq	r7, r0, r6, lsl #20
    1448:	02b60700 	adcseq	r0, r6, #0, 14
    144c:	28020000 	stmdacs	r2, {}	; <UNPREDICTABLE>
    1450:	00000097 	muleq	r0, r7, r0
    1454:	00033408 	andeq	r3, r3, r8, lsl #8
    1458:	00040400 	andeq	r0, r4, r0, lsl #8
    145c:	000000ae 	andeq	r0, r0, lr, lsr #1
    1460:	00038709 	andeq	r8, r3, r9, lsl #14
    1464:	00007200 	andeq	r7, r0, r0, lsl #4
    1468:	07000000 	streq	r0, [r0, -r0]
    146c:	00000336 	andeq	r0, r0, r6, lsr r3
    1470:	008c6202 	addeq	r6, ip, r2, lsl #4
    1474:	ed0a0000 	stc	0, cr0, [sl, #-0]
    1478:	01000003 	tsteq	r0, r3
    147c:	00002527 	andeq	r2, r0, r7, lsr #10
    1480:	00879000 	addeq	r9, r7, r0
    1484:	00001400 	andeq	r1, r0, r0, lsl #8
    1488:	e09c0100 	adds	r0, ip, r0, lsl #2
    148c:	0b000000 	bleq	1494 <_start-0x6b6c>
    1490:	27010063 	strcs	r0, [r1, -r3, rrx]
    1494:	00000025 	andeq	r0, r0, r5, lsr #32
    1498:	00000a05 	andeq	r0, r0, r5, lsl #20
    149c:	61700c00 	cmnvs	r0, r0, lsl #24
    14a0:	2e010064 	cdpcs	0, 0, cr0, cr1, cr4, {3}
    14a4:	00000074 	andeq	r0, r0, r4, ror r0
    14a8:	000087a4 	andeq	r8, r0, r4, lsr #15
    14ac:	0000002c 	andeq	r0, r0, ip, lsr #32
    14b0:	01309c01 	teqeq	r0, r1, lsl #24
    14b4:	700b0000 	andvc	r0, fp, r0
    14b8:	742e0100 	strtvc	r0, [lr], #-256	; 0x100
    14bc:	33000000 	movwcc	r0, #0
    14c0:	0d00000a 	stceq	0, cr0, [r0, #-40]	; 0xffffffd8
    14c4:	000003fd 	strdeq	r0, [r0], -sp
    14c8:	00742e01 	rsbseq	r2, r4, r1, lsl #28
    14cc:	0a5e0000 	beq	17814d4 <__bss_end__+0x177705c>
    14d0:	2b0e0000 	blcs	3814d8 <__bss_end__+0x377060>
    14d4:	01000004 	tsteq	r0, r4
    14d8:	0000252e 	andeq	r2, r0, lr, lsr #10
    14dc:	0f520100 	svceq	0x00520100
    14e0:	006e656c 	rsbeq	r6, lr, ip, ror #10
    14e4:	00252f01 	eoreq	r2, r5, r1, lsl #30
    14e8:	51010000 	mrspl	r0, (UNDEF: 1)
    14ec:	03e50a00 	mvneq	r0, #0, 20
    14f0:	37010000 	strcc	r0, [r1, -r0]
    14f4:	00000074 	andeq	r0, r0, r4, ror r0
    14f8:	000087d0 	ldrdeq	r8, [r0], -r0
    14fc:	00000040 	andeq	r0, r0, r0, asr #32
    1500:	019c9c01 	orrseq	r9, ip, r1, lsl #24
    1504:	640b0000 	strvs	r0, [fp], #-0
    1508:	01007473 	tsteq	r0, r3, ror r4
    150c:	00007437 	andeq	r7, r0, r7, lsr r4
    1510:	000a7f00 	andeq	r7, sl, r0, lsl #30
    1514:	006e0b00 	rsbeq	r0, lr, r0, lsl #22
    1518:	00253701 	eoreq	r3, r5, r1, lsl #14
    151c:	0ab70000 	beq	fedc1524 <__bss_end__+0xfedb70ac>
    1520:	700b0000 	andvc	r0, fp, r0
    1524:	74370100 	ldrtvc	r0, [r7], #-256	; 0x100
    1528:	d8000000 	stmdale	r0, {}	; <UNPREDICTABLE>
    152c:	0d00000a 	stceq	0, cr0, [r0, #-40]	; 0xffffffd8
    1530:	00000511 	andeq	r0, r0, r1, lsl r5
    1534:	00743701 	rsbseq	r3, r4, r1, lsl #14
    1538:	0b0e0000 	bleq	381540 <__bss_end__+0x3770c8>
    153c:	6c100000 	ldcvs	0, cr0, [r0], {-0}
    1540:	01006e65 	tsteq	r0, r5, ror #28
    1544:	00002539 	andeq	r2, r0, r9, lsr r5
    1548:	000b2c00 	andeq	r2, fp, r0, lsl #24
    154c:	00730f00 	rsbseq	r0, r3, r0, lsl #30
    1550:	00743d01 	rsbseq	r3, r4, r1, lsl #26
    1554:	50010000 	andpl	r0, r1, r0
    1558:	04390a00 	ldrteq	r0, [r9], #-2560	; 0xa00
    155c:	47010000 	strmi	r0, [r1, -r0]
    1560:	00000074 	andeq	r0, r0, r4, ror r0
    1564:	00008810 	andeq	r8, r0, r0, lsl r8
    1568:	000001a8 	andeq	r0, r0, r8, lsr #3
    156c:	02df9c01 	sbcseq	r9, pc, #256	; 0x100
    1570:	fd0d0000 	stc2	0, cr0, [sp, #-0]
    1574:	01000003 	tsteq	r0, r3
    1578:	00002c47 	andeq	r2, r0, r7, asr #24
    157c:	000b5300 	andeq	r5, fp, r0, lsl #6
    1580:	73640b00 	cmnvc	r4, #0, 22
    1584:	47010074 	smlsdxmi	r1, r4, r0, r0
    1588:	00000074 	andeq	r0, r0, r4, ror r0
    158c:	00000b81 	andeq	r0, r0, r1, lsl #23
    1590:	01006e0b 	tsteq	r0, fp, lsl #28
    1594:	00002547 	andeq	r2, r0, r7, asr #10
    1598:	000bef00 	andeq	lr, fp, r0, lsl #30
    159c:	61760b00 	cmnvs	r6, r0, lsl #22
    15a0:	4701006c 	strmi	r0, [r1, -ip, rrx]
    15a4:	00000025 	andeq	r0, r0, r5, lsr #32
    15a8:	00000c1b 	andeq	r0, r0, fp, lsl ip
    15ac:	00042b0d 	andeq	r2, r4, sp, lsl #22
    15b0:	25470100 	strbcs	r0, [r7, #-256]	; 0x100
    15b4:	9a000000 	bls	15bc <_start-0x6a44>
    15b8:	0e00000c 	cdpeq	0, 0, cr0, cr0, cr12, {0}
    15bc:	00000402 	andeq	r0, r0, r2, lsl #8
    15c0:	00254701 	eoreq	r4, r5, r1, lsl #14
    15c4:	91020000 	mrsls	r0, (UNDEF: 2)
    15c8:	75620f04 	strbvc	r0, [r2, #-3844]!	; 0xf04
    15cc:	4c010066 	stcmi	0, cr0, [r1], {102}	; 0x66
    15d0:	000002df 	ldrdeq	r0, [r0], -pc	; <UNPREDICTABLE>
    15d4:	7fa89103 	svcvc	0x00a89103
    15d8:	01007010 	tsteq	r0, r0, lsl r0
    15dc:	0000744c 	andeq	r7, r0, ip, asr #8
    15e0:	000cc400 	andeq	ip, ip, r0, lsl #8
    15e4:	00751000 	rsbseq	r1, r5, r0
    15e8:	002c4d01 	eoreq	r4, ip, r1, lsl #26
    15ec:	0d800000 	stceq	0, cr0, [r0]
    15f0:	71110000 	tstvc	r1, r0
    15f4:	ff000001 			; <UNDEFINED> instruction: 0xff000001
    15f8:	05000002 	streq	r0, [r0, #-2]
    15fc:	009e2c03 	addseq	r2, lr, r3, lsl #24
    1600:	887c1200 	ldmdahi	ip!, {r9, ip}^
    1604:	00740000 	rsbseq	r0, r4, r0
    1608:	02610000 	rsbeq	r0, r1, #0
    160c:	df130000 	svcle	0x00130000
    1610:	01000003 	tsteq	r0, r3
    1614:	00002c52 	andeq	r2, r0, r2, asr ip
    1618:	000e8500 	andeq	r8, lr, r0, lsl #10
    161c:	50140000 	andspl	r0, r4, r0
    1620:	80000089 	andhi	r0, r0, r9, lsl #1
    1624:	15000006 	strne	r0, [r0, #-6]
    1628:	0000896c 	andeq	r8, r0, ip, ror #18
    162c:	00000687 	andeq	r0, r0, r7, lsl #13
    1630:	000002a3 	andeq	r0, r0, r3, lsr #5
    1634:	02530116 	subseq	r0, r3, #-2147483643	; 0x80000005
    1638:	01167508 	tsteq	r6, r8, lsl #10
    163c:	2c030552 	cfstr32cs	mvfx0, [r3], {82}	; 0x52
    1640:	1600009e 			; <UNDEFINED> instruction: 0x1600009e
    1644:	03055101 	movweq	r5, #20737	; 0x5101
    1648:	00009e64 	andeq	r9, r0, r4, ror #28
    164c:	05500116 	ldrbeq	r0, [r0, #-278]	; 0x116
    1650:	009e5003 	addseq	r5, lr, r3
    1654:	7d021600 	stcvc	6, cr1, [r2, #-0]
    1658:	78030500 	stmdavc	r3, {r8, sl}
    165c:	0000009e 	muleq	r0, lr, r0
    1660:	00897014 	addeq	r7, r9, r4, lsl r0
    1664:	00069d00 	andeq	r9, r6, r0, lsl #26
    1668:	897c1500 	ldmdbhi	ip!, {r8, sl, ip}^
    166c:	00e00000 	rsceq	r0, r0, r0
    1670:	02c10000 	sbceq	r0, r1, #0
    1674:	01160000 	tsteq	r6, r0
    1678:	a0910351 	addsge	r0, r1, r1, asr r3
    167c:	9017007f 	andsls	r0, r7, pc, ror r0
    1680:	30000089 	andcc	r0, r0, r9, lsl #1
    1684:	16000001 	strne	r0, [r0], -r1
    1688:	91035301 	tstls	r3, r1, lsl #6
    168c:	01167fa0 	tsteq	r6, r0, lsr #31
    1690:	00740251 	rsbseq	r0, r4, r1, asr r2
    1694:	02500116 	subseq	r0, r0, #-2147483643	; 0x80000005
    1698:	00000075 	andeq	r0, r0, r5, ror r0
    169c:	00007a18 	andeq	r7, r0, r8, lsl sl
    16a0:	0002ef00 	andeq	lr, r2, r0, lsl #30
    16a4:	006b1900 	rsbeq	r1, fp, r0, lsl #18
    16a8:	003f0000 	eorseq	r0, pc, r0
    16ac:	00007a18 	andeq	r7, r0, r8, lsl sl
    16b0:	0002ff00 	andeq	pc, r2, r0, lsl #30
    16b4:	006b1900 	rsbeq	r1, fp, r0, lsl #18
    16b8:	00040000 	andeq	r0, r4, r0
    16bc:	0002ef06 	andeq	lr, r2, r6, lsl #30
    16c0:	041c1a00 	ldreq	r1, [ip], #-2560	; 0xa00
    16c4:	1f010000 	svcne	0x00010000
    16c8:	000089b8 			; <UNDEFINED> instruction: 0x000089b8
    16cc:	00000068 	andeq	r0, r0, r8, rrx
    16d0:	03929c01 	orrseq	r9, r2, #256	; 0x100
    16d4:	310d0000 	mrscc	r0, (UNDEF: 13)
    16d8:	01000004 	tsteq	r0, r4
    16dc:	0003a11f 	andeq	sl, r3, pc, lsl r1
    16e0:	000eb100 	andeq	fp, lr, r0, lsl #2
    16e4:	03f50d00 	mvnseq	r0, #0, 26
    16e8:	1f010000 	svcne	0x00010000
    16ec:	000003b6 			; <UNDEFINED> instruction: 0x000003b6
    16f0:	00000edd 	ldrdeq	r0, [r0], -sp
    16f4:	00017111 	andeq	r7, r1, r1, lsl r1
    16f8:	0003cc00 	andeq	ip, r3, r0, lsl #24
    16fc:	34030500 	strcc	r0, [r3], #-1280	; 0x500
    1700:	1400009e 	strne	r0, [r0], #-158	; 0x9e
    1704:	000089cc 	andeq	r8, r0, ip, asr #19
    1708:	00000680 	andeq	r0, r0, r0, lsl #13
    170c:	0089e815 	addeq	lr, r9, r5, lsl r8
    1710:	00068700 	andeq	r8, r6, r0, lsl #14
    1714:	00038800 	andeq	r8, r3, r0, lsl #16
    1718:	53011600 	movwpl	r1, #5632	; 0x1600
    171c:	16200802 	strtne	r0, [r0], -r2, lsl #16
    1720:	03055201 	movweq	r5, #20993	; 0x5201
    1724:	00009e34 	andeq	r9, r0, r4, lsr lr
    1728:	05510116 	ldrbeq	r0, [r1, #-278]	; 0x116
    172c:	009e6403 	addseq	r6, lr, r3, lsl #8
    1730:	50011600 	andpl	r1, r1, r0, lsl #12
    1734:	9e500305 	cdpls	3, 5, cr0, cr0, cr5, {0}
    1738:	02160000 	andseq	r0, r6, #0
    173c:	0305007d 	movweq	r0, #20605	; 0x507d
    1740:	00009ea0 	andeq	r9, r0, r0, lsr #29
    1744:	89ec1400 	stmibhi	ip!, {sl, ip}^
    1748:	069d0000 	ldreq	r0, [sp], r0
    174c:	1b000000 	blne	1754 <_start-0x68ac>
    1750:	00000025 	andeq	r0, r0, r5, lsr #32
    1754:	000003a1 	andeq	r0, r0, r1, lsr #7
    1758:	0000251c 	andeq	r2, r0, ip, lsl r5
    175c:	04050000 	streq	r0, [r5], #-0
    1760:	00000392 	muleq	r0, r2, r3
    1764:	0000251b 	andeq	r2, r0, fp, lsl r5
    1768:	0003b600 	andeq	fp, r3, r0, lsl #12
    176c:	00811c00 	addeq	r1, r1, r0, lsl #24
    1770:	05000000 	streq	r0, [r0, #-0]
    1774:	0003a704 	andeq	sl, r3, r4, lsl #14
    1778:	007a1800 	rsbseq	r1, sl, r0, lsl #16
    177c:	03cc0000 	biceq	r0, ip, #0
    1780:	6b190000 	blvs	641788 <__bss_end__+0x637310>
    1784:	0e000000 	cdpeq	0, 0, cr0, cr0, cr0, {0}
    1788:	03bc0600 			; <UNDEFINED> instruction: 0x03bc0600
    178c:	2a1d0000 	bcs	741794 <__bss_end__+0x73731c>
    1790:	01000003 	tsteq	r0, r3
    1794:	0000257d 	andeq	r2, r0, sp, ror r5
    1798:	008a2000 	addeq	r2, sl, r0
    179c:	00029400 	andeq	r9, r2, r0, lsl #8
    17a0:	459c0100 	ldrmi	r0, [ip, #256]	; 0x100
    17a4:	0b000006 	bleq	17c4 <_start-0x683c>
    17a8:	00667562 	rsbeq	r7, r6, r2, ror #10
    17ac:	00747d01 	rsbseq	r7, r4, r1, lsl #26
    17b0:	0f090000 	svceq	0x00090000
    17b4:	6e0b0000 	cdpvs	0, 0, cr0, cr11, cr0, {0}
    17b8:	257d0100 	ldrbcs	r0, [sp, #-256]!	; 0x100
    17bc:	35000000 	strcc	r0, [r0, #-0]
    17c0:	0b00000f 	bleq	1804 <_start-0x67fc>
    17c4:	00746d66 	rsbseq	r6, r4, r6, ror #26
    17c8:	00817d01 	addeq	r7, r1, r1, lsl #26
    17cc:	0f630000 	svceq	0x00630000
    17d0:	820d0000 	andhi	r0, sp, #0
    17d4:	01000003 	tsteq	r0, r3
    17d8:	0000ae7d 	andeq	sl, r0, sp, ror lr
    17dc:	000f9700 	andeq	r9, pc, r0, lsl #14
    17e0:	00701000 	rsbseq	r1, r0, r0
    17e4:	00747e01 	rsbseq	r7, r4, r1, lsl #28
    17e8:	0faa0000 	svceq	0x00aa0000
    17ec:	65100000 	ldrvs	r0, [r0, #-0]
    17f0:	747e0100 	ldrbtvc	r0, [lr], #-256	; 0x100
    17f4:	28000000 	stmdacs	r0, {}	; <UNPREDICTABLE>
    17f8:	11000010 	tstne	r0, r0, lsl r0
    17fc:	00000171 	andeq	r0, r0, r1, ror r1
    1800:	00000655 	andeq	r0, r0, r5, asr r6
    1804:	9e440305 	cdpls	3, 4, cr0, cr4, cr5, {0}
    1808:	601e0000 	andsvs	r0, lr, r0
    180c:	10000002 	andne	r0, r0, r2
    1810:	8b010073 	blhi	419e4 <__bss_end__+0x3756c>
    1814:	00000074 	andeq	r0, r0, r4, ror r0
    1818:	0000104f 	andeq	r1, r0, pc, asr #32
    181c:	6d756e0f 	ldclvs	14, cr6, [r5, #-60]!	; 0xffffffc4
    1820:	5a8b0100 	bpl	fe2c1c28 <__bss_end__+0xfe2b77b0>
    1824:	03000006 	movweq	r0, #6
    1828:	137ed891 	cmnne	lr, #9502720	; 0x910000
    182c:	0000042b 	andeq	r0, r0, fp, lsr #8
    1830:	002c8c01 	eoreq	r8, ip, r1, lsl #24
    1834:	10a40000 	adcne	r0, r4, r0
    1838:	a4150000 	ldrge	r0, [r5], #-0
    183c:	b900008a 	stmdblt	r0, {r1, r3, r7}
    1840:	91000000 	mrsls	r0, (UNDEF: 0)
    1844:	16000004 	strne	r0, [r0], -r4
    1848:	75025001 	strvc	r5, [r2, #-1]
    184c:	b8140000 	ldmdalt	r4, {}	; <UNPREDICTABLE>
    1850:	8000008a 	andhi	r0, r0, sl, lsl #1
    1854:	15000006 	strne	r0, [r0, #-6]
    1858:	00008ad4 	ldrdeq	r8, [r0], -r4
    185c:	00000687 	andeq	r0, r0, r7, lsl #13
    1860:	000004d3 	ldrdeq	r0, [r0], -r3
    1864:	02530116 	subseq	r0, r3, #-2147483643	; 0x80000005
    1868:	01169208 	tsteq	r6, r8, lsl #4
    186c:	44030552 	strmi	r0, [r3], #-1362	; 0x552
    1870:	1600009e 			; <UNDEFINED> instruction: 0x1600009e
    1874:	03055101 	movweq	r5, #20737	; 0x5101
    1878:	00009e64 	andeq	r9, r0, r4, ror #28
    187c:	05500116 	ldrbeq	r0, [r0, #-278]	; 0x116
    1880:	009e5003 	addseq	r5, lr, r3
    1884:	7d021600 	stcvc	6, cr1, [r2, #-0]
    1888:	a8030500 	stmdage	r3, {r8, sl}
    188c:	0000009e 	muleq	r0, lr, r0
    1890:	008ad814 	addeq	sp, sl, r4, lsl r8
    1894:	00069d00 	andeq	r9, r6, r0, lsl #26
    1898:	8b481400 	blhi	12068a0 <__bss_end__+0x11fc428>
    189c:	06800000 	streq	r0, [r0], r0
    18a0:	5c150000 	ldcpl	0, cr0, [r5], {-0}
    18a4:	8700008b 	strhi	r0, [r0, -fp, lsl #1]
    18a8:	14000006 	strne	r0, [r0], #-6
    18ac:	16000005 	strne	r0, [r0], -r5
    18b0:	08025301 	stmdaeq	r2, {r0, r8, r9, ip, lr}
    18b4:	52011698 	andpl	r1, r1, #152, 12	; 0x9800000
    18b8:	9e440305 	cdpls	3, 4, cr0, cr4, cr5, {0}
    18bc:	01160000 	tsteq	r6, r0
    18c0:	64030551 	strvs	r0, [r3], #-1361	; 0x551
    18c4:	1600009e 			; <UNDEFINED> instruction: 0x1600009e
    18c8:	03055001 	movweq	r5, #20481	; 0x5001
    18cc:	00009eb4 			; <UNDEFINED> instruction: 0x00009eb4
    18d0:	8b601400 	blhi	18068d8 <__bss_end__+0x17fc460>
    18d4:	069d0000 	ldreq	r0, [sp], r0
    18d8:	84150000 	ldrhi	r0, [r5], #-0
    18dc:	9c00008b 	stcls	0, cr0, [r0], {139}	; 0x8b
    18e0:	4a000001 	bmi	18ec <_start-0x6714>
    18e4:	16000005 	strne	r0, [r0], -r5
    18e8:	08025201 	stmdaeq	r2, {r0, r9, ip, lr}
    18ec:	51011680 	smlabbpl	r1, r0, r6, r1
    18f0:	7ed09103 	atnvcs	f1, f3
    18f4:	01500116 	cmpeq	r0, r6, lsl r1
    18f8:	7d02163a 	stcvc	6, cr1, [r2, #-232]	; 0xffffff18
    18fc:	16310104 	ldrtne	r0, [r1], -r4, lsl #2
    1900:	02007d02 	andeq	r7, r0, #2, 26	; 0x80
    1904:	15000077 	strne	r0, [r0, #-119]	; 0x77
    1908:	00008ba8 	andeq	r8, r0, r8, lsr #23
    190c:	0000019c 	muleq	r0, ip, r1
    1910:	00000578 	andeq	r0, r0, r8, ror r5
    1914:	02520116 	subseq	r0, r2, #-2147483643	; 0x80000005
    1918:	01168008 	tsteq	r6, r8
    191c:	d0910351 	addsle	r0, r1, r1, asr r3
    1920:	5001167e 	andpl	r1, r1, lr, ror r6
    1924:	02163a01 	andseq	r3, r6, #4096	; 0x1000
    1928:	7b02047d 	blvc	82b24 <__bss_end__+0x786ac>
    192c:	7d021600 	stcvc	6, cr1, [r2, #-0]
    1930:	00770200 	rsbseq	r0, r7, r0, lsl #4
    1934:	8bcc1500 	blhi	ff306d3c <__bss_end__+0xff2fc8c4>
    1938:	019c0000 	orrseq	r0, ip, r0
    193c:	05a60000 	streq	r0, [r6, #0]!
    1940:	01160000 	tsteq	r6, r0
    1944:	80080252 	andhi	r0, r8, r2, asr r2
    1948:	03510116 	cmpeq	r1, #-2147483643	; 0x80000005
    194c:	167ed091 			; <UNDEFINED> instruction: 0x167ed091
    1950:	40015001 	andmi	r5, r1, r1
    1954:	047d0216 	ldrbteq	r0, [sp], #-534	; 0x216
    1958:	16007b02 	strne	r7, [r0], -r2, lsl #22
    195c:	02007d02 	andeq	r7, r0, #2, 26	; 0x80
    1960:	15000077 	strne	r0, [r0, #-119]	; 0x77
    1964:	00008bf0 	strdeq	r8, [r0], -r0
    1968:	0000019c 	muleq	r0, ip, r1
    196c:	000005d4 	ldrdeq	r0, [r0], -r4
    1970:	02520116 	subseq	r0, r2, #-2147483643	; 0x80000005
    1974:	01168008 	tsteq	r6, r8
    1978:	d0910351 	addsle	r0, r1, r1, asr r3
    197c:	5001167e 	andpl	r1, r1, lr, ror r6
    1980:	02163201 	andseq	r3, r6, #268435456	; 0x10000000
    1984:	7b02047d 	blvc	82b80 <__bss_end__+0x78708>
    1988:	7d021600 	stcvc	6, cr1, [r2, #-0]
    198c:	00770200 	rsbseq	r0, r7, r0, lsl #4
    1990:	8c201500 	cfstr32hi	mvfx1, [r0], #-0
    1994:	019c0000 	orrseq	r0, ip, r0
    1998:	06020000 	streq	r0, [r2], -r0
    199c:	01160000 	tsteq	r6, r0
    19a0:	80080252 	andhi	r0, r8, r2, asr r2
    19a4:	03510116 	cmpeq	r1, #-2147483643	; 0x80000005
    19a8:	167ed091 			; <UNDEFINED> instruction: 0x167ed091
    19ac:	38015001 	stmdacc	r1, {r0, ip, lr}
    19b0:	047d0216 	ldrbteq	r0, [sp], #-534	; 0x216
    19b4:	16007b02 	strne	r7, [r0], -r2, lsl #22
    19b8:	02007d02 	andeq	r7, r0, #2, 26	; 0x80
    19bc:	14000077 	strne	r0, [r0], #-119	; 0x77
    19c0:	00008c28 	andeq	r8, r0, r8, lsr #24
    19c4:	00000680 	andeq	r0, r0, r0, lsl #13
    19c8:	008c4415 	addeq	r4, ip, r5, lsl r4
    19cc:	00068700 	andeq	r8, r6, r0, lsl #14
    19d0:	00063a00 	andeq	r3, r6, r0, lsl #20
    19d4:	53011600 	movwpl	r1, #5632	; 0x1600
    19d8:	16b90802 	ldrtne	r0, [r9], r2, lsl #16
    19dc:	03055201 	movweq	r5, #20993	; 0x5201
    19e0:	00009e44 	andeq	r9, r0, r4, asr #28
    19e4:	05510116 	ldrbeq	r0, [r1, #-278]	; 0x116
    19e8:	009e6403 	addseq	r6, lr, r3, lsl #8
    19ec:	50011600 	andpl	r1, r1, r0, lsl #12
    19f0:	9edc0305 	cdpls	3, 13, cr0, cr12, cr5, {0}
    19f4:	14000000 	strne	r0, [r0], #-0
    19f8:	00008c48 	andeq	r8, r0, r8, asr #24
    19fc:	0000069d 	muleq	r0, sp, r6
    1a00:	7a180000 	bvc	601a08 <__bss_end__+0x5f7590>
    1a04:	55000000 	strpl	r0, [r0, #-0]
    1a08:	19000006 	stmdbne	r0, {r1, r2}
    1a0c:	0000006b 	andeq	r0, r0, fp, rrx
    1a10:	45060009 	strmi	r0, [r6, #-9]
    1a14:	18000006 	stmdane	r0, {r1, r2}
    1a18:	0000007a 	andeq	r0, r0, sl, ror r0
    1a1c:	0000066a 	andeq	r0, r0, sl, ror #12
    1a20:	00006b19 	andeq	r6, r0, r9, lsl fp
    1a24:	1f007f00 	svcne	0x00007f00
    1a28:	0000039d 	muleq	r0, sp, r3
    1a2c:	03a11d03 			; <UNDEFINED> instruction: 0x03a11d03
    1a30:	da1f0000 	ble	7c1a38 <__bss_end__+0x7b75c0>
    1a34:	03000003 	movweq	r0, #3
    1a38:	0003b622 	andeq	fp, r3, r2, lsr #12
    1a3c:	012e2000 	teqeq	lr, r0
    1a40:	1e030000 	cdpne	0, 0, cr0, cr3, cr0, {0}
    1a44:	00032d21 	andeq	r2, r3, r1, lsr #26
    1a48:	25290300 	strcs	r0, [r9, #-768]!	; 0x300
    1a4c:	9d000000 	stcls	0, cr0, [r0, #-0]
    1a50:	1c000006 	stcne	0, cr0, [r0], {6}
    1a54:	00000081 	andeq	r0, r0, r1, lsl #1
    1a58:	ad200022 	stcge	0, cr0, [r0, #-136]!	; 0xffffff78
    1a5c:	03000001 	movweq	r0, #1
    1a60:	00b80066 	adcseq	r0, r8, r6, rrx
    1a64:	00040000 	andeq	r0, r4, r0
    1a68:	00000708 	andeq	r0, r0, r8, lsl #14
    1a6c:	02d30104 	sbcseq	r0, r3, #4, 2
    1a70:	4c010000 	stcmi	0, cr0, [r1], {-0}
    1a74:	3e000004 	cdpcc	0, 0, cr0, cr0, cr4, {0}
    1a78:	b4000003 	strlt	r0, [r0], #-3
    1a7c:	2000008c 	andcs	r0, r0, ip, lsl #1
    1a80:	09000000 	stmdbeq	r0, {}	; <UNPREDICTABLE>
    1a84:	02000007 	andeq	r0, r0, #7
    1a88:	6e690504 	cdpvs	5, 6, cr0, cr9, cr4, {0}
    1a8c:	04030074 	streq	r0, [r3], #-116	; 0x74
    1a90:	00004d07 	andeq	r4, r0, r7, lsl #26
    1a94:	06010300 	streq	r0, [r1], -r0, lsl #6
    1a98:	00000226 	andeq	r0, r0, r6, lsr #4
    1a9c:	32050203 	andcc	r0, r5, #805306368	; 0x30000000
    1aa0:	03000002 	movweq	r0, #2
    1aa4:	007c0504 	rsbseq	r0, ip, r4, lsl #10
    1aa8:	08030000 	stmdaeq	r3, {}	; <UNPREDICTABLE>
    1aac:	00007705 	andeq	r7, r0, r5, lsl #14
    1ab0:	08010300 	stmdaeq	r1, {r8, r9}
    1ab4:	00000224 	andeq	r0, r0, r4, lsr #4
    1ab8:	7e070203 	cdpvc	2, 0, cr0, cr7, cr3, {0}
    1abc:	03000001 	movweq	r0, #1
    1ac0:	00480704 	subeq	r0, r8, r4, lsl #14
    1ac4:	08030000 	stmdaeq	r3, {}	; <UNPREDICTABLE>
    1ac8:	00004307 	andeq	r4, r0, r7, lsl #6
    1acc:	07040300 	streq	r0, [r4, -r0, lsl #6]
    1ad0:	000001c0 	andeq	r0, r0, r0, asr #3
    1ad4:	2d080103 	stfcss	f0, [r8, #-12]
    1ad8:	04000002 	streq	r0, [r0], #-2
    1adc:	0000028f 	andeq	r0, r0, pc, lsl #5
    1ae0:	8cb40301 	ldchi	3, cr0, [r4], #4
    1ae4:	00100000 	andseq	r0, r0, r0
    1ae8:	9c010000 	stcls	0, cr0, [r1], {-0}
    1aec:	0000009c 	muleq	r0, ip, r0
    1af0:	01007205 	tsteq	r0, r5, lsl #4
    1af4:	00002c04 	andeq	r2, r0, r4, lsl #24
    1af8:	0010ce00 	andseq	ip, r0, r0, lsl #28
    1afc:	3e060000 	cdpcc	0, 0, cr0, cr6, cr0, {0}
    1b00:	01000004 	tsteq	r0, r4
    1b04:	008cc40c 	addeq	ip, ip, ip, lsl #8
    1b08:	00001000 	andeq	r1, r0, r0
    1b0c:	059c0100 	ldreq	r0, [ip, #256]	; 0x100
    1b10:	0d010072 	stceq	0, cr0, [r1, #-456]	; 0xfffffe38
    1b14:	0000002c 	andeq	r0, r0, ip, lsr #32
    1b18:	000010f2 	strdeq	r1, [r0], -r2
    1b1c:	00ff0000 	rscseq	r0, pc, r0
    1b20:	00040000 	andeq	r0, r4, r0
    1b24:	00000773 	andeq	r0, r0, r3, ror r7
    1b28:	02d30104 	sbcseq	r0, r3, #4, 2
    1b2c:	6a010000 	bvs	41b34 <__bss_end__+0x376bc>
    1b30:	3e000004 	cdpcc	0, 0, cr0, cr0, cr4, {0}
    1b34:	d4000003 	strle	r0, [r0], #-3
    1b38:	2800008c 	stmdacs	r0, {r2, r3, r7}
    1b3c:	50000000 	andpl	r0, r0, r0
    1b40:	02000007 	andeq	r0, r0, #7
    1b44:	6e690504 	cdpvs	5, 6, cr0, cr9, cr4, {0}
    1b48:	04030074 	streq	r0, [r3], #-116	; 0x74
    1b4c:	00004d07 	andeq	r4, r0, r7, lsl #26
    1b50:	06010300 	streq	r0, [r1], -r0, lsl #6
    1b54:	00000226 	andeq	r0, r0, r6, lsr #4
    1b58:	32050203 	andcc	r0, r5, #805306368	; 0x30000000
    1b5c:	03000002 	movweq	r0, #2
    1b60:	007c0504 	rsbseq	r0, ip, r4, lsl #10
    1b64:	08030000 	stmdaeq	r3, {}	; <UNPREDICTABLE>
    1b68:	00007705 	andeq	r7, r0, r5, lsl #14
    1b6c:	08010300 	stmdaeq	r1, {r8, r9}
    1b70:	00000224 	andeq	r0, r0, r4, lsr #4
    1b74:	7e070203 	cdpvc	2, 0, cr0, cr7, cr3, {0}
    1b78:	03000001 	movweq	r0, #1
    1b7c:	00480704 	subeq	r0, r8, r4, lsl #14
    1b80:	08030000 	stmdaeq	r3, {}	; <UNPREDICTABLE>
    1b84:	00004307 	andeq	r4, r0, r7, lsl #6
    1b88:	07040300 	streq	r0, [r4, -r0, lsl #6]
    1b8c:	000001c0 	andeq	r0, r0, r0, asr #3
    1b90:	2d080103 	stfcss	f0, [r8, #-12]
    1b94:	04000002 	streq	r0, [r0], #-2
    1b98:	00007f04 	andeq	r7, r0, r4, lsl #30
    1b9c:	00720500 	rsbseq	r0, r2, r0, lsl #10
    1ba0:	ad060000 	stcge	0, cr0, [r6, #-0]
    1ba4:	01000001 	tsteq	r0, r1
    1ba8:	008cd404 	addeq	sp, ip, r4, lsl #8
    1bac:	00002800 	andeq	r2, r0, r0, lsl #16
    1bb0:	ca9c0100 	bgt	fe701fb8 <__bss_end__+0xfe6f7b40>
    1bb4:	07000000 	streq	r0, [r0, -r0]
    1bb8:	00008ce8 	andeq	r8, r0, r8, ror #25
    1bbc:	000000ac 	andeq	r0, r0, ip, lsr #1
    1bc0:	05500108 	ldrbeq	r0, [r0, #-264]	; 0x108
    1bc4:	009f1403 	addseq	r1, pc, r3, lsl #8
    1bc8:	f0090000 			; <UNDEFINED> instruction: 0xf0090000
    1bcc:	ea00008c 	b	1e04 <_start-0x61fc>
    1bd0:	c0000000 	andgt	r0, r0, r0
    1bd4:	08000000 	stmdaeq	r0, {}	; <UNPREDICTABLE>
    1bd8:	08025001 	stmdaeq	r2, {r0, ip, lr}
    1bdc:	f40a0064 	vst4.16	{d0-d3}, [sl :128], r4
    1be0:	fb00008c 	blx	1e1a <_start-0x61e6>
    1be4:	00000000 	andeq	r0, r0, r0
    1be8:	0000250b 	andeq	r2, r0, fp, lsl #10
    1bec:	0000d900 	andeq	sp, r0, r0, lsl #18
    1bf0:	00790c00 	rsbseq	r0, r9, r0, lsl #24
    1bf4:	0d000000 	stceq	0, cr0, [r0, #-0]
    1bf8:	000003da 	ldrdeq	r0, [r0], -sl
    1bfc:	00e42202 	rsceq	r2, r4, r2, lsl #4
    1c00:	04040000 	streq	r0, [r4], #-0
    1c04:	000000ca 	andeq	r0, r0, sl, asr #1
    1c08:	0002430e 	andeq	r4, r2, lr, lsl #6
    1c0c:	fb500200 	blx	1402416 <__bss_end__+0x13f7f9e>
    1c10:	0c000000 	stceq	0, cr0, [r0], {-0}
    1c14:	0000002c 	andeq	r0, r0, ip, lsr #32
    1c18:	045f0f00 	ldrbeq	r0, [pc], #-3840	; 1c20 <_start-0x63e0>
    1c1c:	63020000 	movwvs	r0, #8192	; 0x2000
    1c20:	0002dd00 	andeq	sp, r2, r0, lsl #26
    1c24:	3d000400 	cfstrscc	mvf0, [r0, #-0]
    1c28:	04000008 	streq	r0, [r0], #-8
    1c2c:	0002d301 	andeq	sp, r2, r1, lsl #6
    1c30:	055e0100 	ldrbeq	r0, [lr, #-256]	; 0x100
    1c34:	033e0000 	teqeq	lr, #0
    1c38:	8cfc0000 	ldclhi	0, cr0, [ip]
    1c3c:	00b00000 	adcseq	r0, r0, r0
    1c40:	07e70000 	strbeq	r0, [r7, r0]!
    1c44:	04020000 	streq	r0, [r2], #-0
    1c48:	746e6905 	strbtvc	r6, [lr], #-2309	; 0x905
    1c4c:	07040300 	streq	r0, [r4, -r0, lsl #6]
    1c50:	0000004d 	andeq	r0, r0, sp, asr #32
    1c54:	26060103 	strcs	r0, [r6], -r3, lsl #2
    1c58:	03000002 	movweq	r0, #2
    1c5c:	02320502 	eorseq	r0, r2, #8388608	; 0x800000
    1c60:	04030000 	streq	r0, [r3], #-0
    1c64:	00007c05 	andeq	r7, r0, r5, lsl #24
    1c68:	05080300 	streq	r0, [r8, #-768]	; 0x300
    1c6c:	00000077 	andeq	r0, r0, r7, ror r0
    1c70:	00029c04 	andeq	r9, r2, r4, lsl #24
    1c74:	5a2e0200 	bpl	b8247c <__bss_end__+0xb78004>
    1c78:	03000000 	movweq	r0, #0
    1c7c:	02240801 	eoreq	r0, r4, #65536	; 0x10000
    1c80:	02030000 	andeq	r0, r3, #0
    1c84:	00017e07 	andeq	r7, r1, r7, lsl #28
    1c88:	057e0400 	ldrbeq	r0, [lr, #-1024]!	; 0x400
    1c8c:	34020000 	strcc	r0, [r2], #-0
    1c90:	00000073 	andeq	r0, r0, r3, ror r0
    1c94:	48070403 	stmdami	r7, {r0, r1, sl}
    1c98:	03000000 	movweq	r0, #0
    1c9c:	00430708 	subeq	r0, r3, r8, lsl #14
    1ca0:	04030000 	streq	r0, [r3], #-0
    1ca4:	0001c007 	andeq	ip, r1, r7
    1ca8:	08010300 	stmdaeq	r1, {r8, r9}
    1cac:	0000022d 	andeq	r0, r0, sp, lsr #4
    1cb0:	00950405 	addseq	r0, r5, r5, lsl #8
    1cb4:	88060000 	stmdahi	r6, {}	; <UNPREDICTABLE>
    1cb8:	07000000 	streq	r0, [r0, -r0]
    1cbc:	d10e030c 	tstle	lr, ip, lsl #6
    1cc0:	08000000 	stmdaeq	r0, {}	; <UNPREDICTABLE>
    1cc4:	03007874 	movweq	r7, #2164	; 0x874
    1cc8:	00004f0f 	andeq	r4, r0, pc, lsl #30
    1ccc:	72080000 	andvc	r0, r8, #0
    1cd0:	0f030078 	svceq	0x00030078
    1cd4:	0000004f 	andeq	r0, r0, pc, asr #32
    1cd8:	04fd0901 	ldrbteq	r0, [sp], #2305	; 0x901
    1cdc:	10030000 	andne	r0, r3, r0
    1ce0:	00000068 	andeq	r0, r0, r8, rrx
    1ce4:	04ae0904 	strteq	r0, [lr], #2308	; 0x904
    1ce8:	11030000 	mrsne	r0, (UNDEF: 3)
    1cec:	00000068 	andeq	r0, r0, r8, rrx
    1cf0:	e6040008 	str	r0, [r4], -r8
    1cf4:	03000004 	movweq	r0, #4
    1cf8:	00009a12 	andeq	r9, r0, r2, lsl sl
    1cfc:	04010a00 	streq	r0, [r1], #-2560	; 0xa00
    1d00:	0000f710 	andeq	pc, r0, r0, lsl r7	; <UNPREDICTABLE>
    1d04:	05020b00 	streq	r0, [r2, #-2816]	; 0xb00
    1d08:	0b010000 	bleq	41d10 <__bss_end__+0x37898>
    1d0c:	000004f0 	strdeq	r0, [r0], -r0	; <UNPREDICTABLE>
    1d10:	04d80b02 	ldrbeq	r0, [r8], #2818	; 0xb02
    1d14:	00030000 	andeq	r0, r3, r0
    1d18:	00051704 	andeq	r1, r5, r4, lsl #14
    1d1c:	dc100400 	cfldrsle	mvf0, [r0], {-0}
    1d20:	07000000 	streq	r0, [r0, -r0]
    1d24:	2f140414 	svccs	0x00140414
    1d28:	09000001 	stmdbeq	r0, {r0}
    1d2c:	00000587 	andeq	r0, r0, r7, lsl #11
    1d30:	002c1504 	eoreq	r1, ip, r4, lsl #10
    1d34:	09000000 	stmdbeq	r0, {}	; <UNPREDICTABLE>
    1d38:	00000572 	andeq	r0, r0, r2, ror r5
    1d3c:	00f71804 	rscseq	r1, r7, r4, lsl #16
    1d40:	09040000 	stmdbeq	r4, {}	; <UNPREDICTABLE>
    1d44:	0000053d 	andeq	r0, r0, sp, lsr r5
    1d48:	00d11b04 	sbcseq	r1, r1, r4, lsl #22
    1d4c:	00080000 	andeq	r0, r8, r0
    1d50:	00052f04 	andeq	r2, r5, r4, lsl #30
    1d54:	02200400 	eoreq	r0, r0, #0, 8
    1d58:	0c000001 	stceq	0, cr0, [r0], {1}
    1d5c:	00000484 	andeq	r0, r0, r4, lsl #9
    1d60:	00250601 	eoreq	r0, r5, r1, lsl #12
    1d64:	8cfc0000 	ldclhi	0, cr0, [ip]
    1d68:	00200000 	eoreq	r0, r0, r0
    1d6c:	9c010000 	stcls	0, cr0, [r1], {-0}
    1d70:	0000017a 	andeq	r0, r0, sl, ror r1
    1d74:	0100630d 	tsteq	r0, sp, lsl #6
    1d78:	00002506 	andeq	r2, r0, r6, lsl #10
    1d7c:	00111600 	andseq	r1, r1, r0, lsl #12
    1d80:	8d100e00 	ldchi	14, cr0, [r0, #-0]
    1d84:	027a0000 	rsbseq	r0, sl, #0
    1d88:	010f0000 	mrseq	r0, CPSR
    1d8c:	00740251 	rsbseq	r0, r4, r1, asr r2
    1d90:	0550010f 	ldrbeq	r0, [r0, #-271]	; 0x10f
    1d94:	00a46803 	adceq	r6, r4, r3, lsl #16
    1d98:	10000000 	andne	r0, r0, r0
    1d9c:	0000050f 	andeq	r0, r0, pc, lsl #10
    1da0:	8d1c0b01 	vldrhi	d0, [ip, #-4]
    1da4:	00900000 	addseq	r0, r0, r0
    1da8:	9c010000 	stcls	0, cr0, [r1], {-0}
    1dac:	00000227 	andeq	r0, r0, r7, lsr #4
    1db0:	00049811 	andeq	r9, r4, r1, lsl r8
    1db4:	250c0100 	strcs	r0, [ip, #-256]	; 0x100
    1db8:	11000000 	mrsne	r0, (UNDEF: 0)
    1dbc:	00000552 	andeq	r0, r0, r2, asr r5
    1dc0:	00250c01 	eoreq	r0, r5, r1, lsl #24
    1dc4:	b1120000 	tstlt	r2, r0
    1dc8:	01000000 	mrseq	r0, (UNDEF: 0)
    1dcc:	7362130d 	cmnvc	r2, #872415232	; 0x34000000
    1dd0:	0f010073 	svceq	0x00010073
    1dd4:	00000227 	andeq	r0, r0, r7, lsr #4
    1dd8:	00001134 	andeq	r1, r0, r4, lsr r1
    1ddc:	0004a614 	andeq	sl, r4, r4, lsl r6
    1de0:	27100100 	ldrcs	r0, [r0, -r0, lsl #2]
    1de4:	13000002 	movwne	r0, #2
    1de8:	01006263 	tsteq	r0, r3, ror #4
    1dec:	00022d17 	andeq	r2, r2, r7, lsl sp
    1df0:	00115400 	andseq	r5, r1, r0, lsl #8
    1df4:	8d441500 	cfstr64hi	mvdx1, [r4, #-0]
    1df8:	02960000 	addseq	r0, r6, #0
    1dfc:	80160000 	andshi	r0, r6, r0
    1e00:	a100008d 	smlabbge	r0, sp, r0, r0
    1e04:	fd000002 	stc2	0, cr0, [r0, #-8]
    1e08:	0f000001 	svceq	0x00000001
    1e0c:	03055101 	movweq	r5, #20737	; 0x5101
    1e10:	00009f20 	andeq	r9, r0, r0, lsr #30
    1e14:	0550010f 	ldrbeq	r0, [r0, #-271]	; 0x10f
    1e18:	00a46803 	adceq	r6, r4, r3, lsl #16
    1e1c:	88160000 	ldmdahi	r6, {}	; <UNPREDICTABLE>
    1e20:	bc00008d 	stclt	0, cr0, [r0], {141}	; 0x8d
    1e24:	14000002 	strne	r0, [r0], #-2
    1e28:	0f000002 	svceq	0x00000002
    1e2c:	03055001 	movweq	r5, #20481	; 0x5001
    1e30:	00009f44 	andeq	r9, r0, r4, asr #30
    1e34:	8d8c1500 	cfstr32hi	mvfx1, [ip]
    1e38:	02d20000 	sbcseq	r0, r2, #0
    1e3c:	90150000 	andsls	r0, r5, r0
    1e40:	d900008d 	stmdble	r0, {r0, r2, r3, r7}
    1e44:	00000002 	andeq	r0, r0, r2
    1e48:	00250405 	eoreq	r0, r5, r5, lsl #8
    1e4c:	04050000 	streq	r0, [r5], #-0
    1e50:	0000012f 	andeq	r0, r0, pc, lsr #2
    1e54:	0004bc17 	andeq	fp, r4, r7, lsl ip
    1e58:	d1050100 	mrsle	r0, (UNDEF: 21)
    1e5c:	05000000 	streq	r0, [r0, #-0]
    1e60:	00a46803 	adceq	r6, r4, r3, lsl #16
    1e64:	00251800 	eoreq	r1, r5, r0, lsl #16
    1e68:	02530000 	subseq	r0, r3, #0
    1e6c:	25190000 	ldrcs	r0, [r9, #-0]
    1e70:	00000000 	andeq	r0, r0, r0
    1e74:	00039d11 	andeq	r9, r3, r1, lsl sp
    1e78:	5e1d0500 	cfmul32pl	mvfx0, mvfx13, mvfx0
    1e7c:	05000002 	streq	r0, [r0, #-2]
    1e80:	00024404 	andeq	r4, r2, r4, lsl #8
    1e84:	04981100 	ldreq	r1, [r8], #256	; 0x100
    1e88:	0c010000 	stceq	0, cr0, [r1], {-0}
    1e8c:	00000025 	andeq	r0, r0, r5, lsr #32
    1e90:	00055211 	andeq	r5, r5, r1, lsl r2
    1e94:	250c0100 	strcs	r0, [ip, #-256]	; 0x100
    1e98:	1a000000 	bne	1ea0 <_start-0x6160>
    1e9c:	00000522 	andeq	r0, r0, r2, lsr #10
    1ea0:	02904403 	addseq	r4, r0, #50331648	; 0x3000000
    1ea4:	90190000 	andsls	r0, r9, r0
    1ea8:	19000002 	stmdbne	r0, {r1}
    1eac:	0000005a 	andeq	r0, r0, sl, asr r0
    1eb0:	d1040500 	tstle	r4, r0, lsl #10
    1eb4:	1b000000 	blne	1ebc <_start-0x6144>
    1eb8:	00000545 	andeq	r0, r0, r5, asr #10
    1ebc:	022d2a04 	eoreq	r2, sp, #4, 20	; 0x4000
    1ec0:	c91c0000 	ldmdbgt	ip, {}	; <UNPREDICTABLE>
    1ec4:	03000004 	movweq	r0, #4
    1ec8:	00002515 	andeq	r2, r0, r5, lsl r5
    1ecc:	0002bc00 	andeq	fp, r2, r0, lsl #24
    1ed0:	02901900 	addseq	r1, r0, #0, 18
    1ed4:	8f190000 	svchi	0x00190000
    1ed8:	1d000000 	stcne	0, cr0, [r0, #-0]
    1edc:	032d1c00 	teqeq	sp, #0, 24
    1ee0:	29050000 	stmdbcs	r5, {}	; <UNPREDICTABLE>
    1ee4:	00000025 	andeq	r0, r0, r5, lsr #32
    1ee8:	000002d2 	ldrdeq	r0, [r0], -r2
    1eec:	00008f19 	andeq	r8, r0, r9, lsl pc
    1ef0:	12001d00 	andne	r1, r0, #0, 26
    1ef4:	000000b1 	strheq	r0, [r0], -r1
    1ef8:	5f12d105 	svcpl	0x0012d105
    1efc:	05000004 	streq	r0, [r0, #-4]
    1f00:	01ad0063 			; <UNDEFINED> instruction: 0x01ad0063
    1f04:	00040000 	andeq	r0, r4, r0
    1f08:	000009d4 	ldrdeq	r0, [r0], -r4
    1f0c:	02d30104 	sbcseq	r0, r3, #4, 2
    1f10:	a7010000 	strge	r0, [r1, -r0]
    1f14:	3e000005 	cdpcc	0, 0, cr0, cr0, cr5, {0}
    1f18:	78000003 	stmdavc	r0, {r0, r1}
    1f1c:	00000002 	andeq	r0, r0, r2
    1f20:	0c000000 	stceq	0, cr0, [r0], {-0}
    1f24:	02000009 	andeq	r0, r0, #9
    1f28:	6e690504 	cdpvs	5, 6, cr0, cr9, cr4, {0}
    1f2c:	04030074 	streq	r0, [r3], #-116	; 0x74
    1f30:	00004d07 	andeq	r4, r0, r7, lsl #26
    1f34:	06010300 	streq	r0, [r1], -r0, lsl #6
    1f38:	00000226 	andeq	r0, r0, r6, lsr #4
    1f3c:	32050203 	andcc	r0, r5, #805306368	; 0x30000000
    1f40:	03000002 	movweq	r0, #2
    1f44:	007c0504 	rsbseq	r0, ip, r4, lsl #10
    1f48:	08030000 	stmdaeq	r3, {}	; <UNPREDICTABLE>
    1f4c:	00007705 	andeq	r7, r0, r5, lsl #14
    1f50:	08010300 	stmdaeq	r1, {r8, r9}
    1f54:	00000224 	andeq	r0, r0, r4, lsr #4
    1f58:	7e070203 	cdpvc	2, 0, cr0, cr7, cr3, {0}
    1f5c:	03000001 	movweq	r0, #1
    1f60:	00480704 	subeq	r0, r8, r4, lsl #14
    1f64:	08030000 	stmdaeq	r3, {}	; <UNPREDICTABLE>
    1f68:	00004307 	andeq	r4, r0, r7, lsl #6
    1f6c:	07040300 	streq	r0, [r4, -r0, lsl #6]
    1f70:	000001c0 	andeq	r0, r0, r0, asr #3
    1f74:	2d080103 	stfcss	f0, [r8, #-12]
    1f78:	04000002 	streq	r0, [r0], #-2
    1f7c:	0000058d 	andeq	r0, r0, sp, lsl #11
    1f80:	00250e01 	eoreq	r0, r5, r1, lsl #28
    1f84:	8dac0000 	stchi	0, cr0, [ip]
    1f88:	00180000 	andseq	r0, r8, r0
    1f8c:	9c010000 	stcls	0, cr0, [r1], {-0}
    1f90:	000000a2 	andeq	r0, r0, r2, lsr #1
    1f94:	0005f905 	andeq	pc, r5, r5, lsl #18
    1f98:	2c0f0100 	stfcss	f0, [pc], {-0}
    1f9c:	74000000 	strvc	r0, [r0], #-0
    1fa0:	00000011 	andeq	r0, r0, r1, lsl r0
    1fa4:	0005dc06 	andeq	sp, r5, r6, lsl #24
    1fa8:	c4170100 	ldrgt	r0, [r7], #-256	; 0x100
    1fac:	1400008d 	strne	r0, [r0], #-141	; 0x8d
    1fb0:	01000000 	mrseq	r0, (UNDEF: 0)
    1fb4:	0000c79c 	muleq	r0, ip, r7
    1fb8:	05f90500 	ldrbeq	r0, [r9, #1280]!	; 0x500
    1fbc:	18010000 	stmdane	r1, {}	; <UNPREDICTABLE>
    1fc0:	0000002c 	andeq	r0, r0, ip, lsr #32
    1fc4:	00001193 	muleq	r0, r3, r1
    1fc8:	045f0600 	ldrbeq	r0, [pc], #-1536	; 1fd0 <_start-0x6030>
    1fcc:	1f010000 	svcne	0x00010000
    1fd0:	00008dd8 	ldrdeq	r8, [r0], -r8	; <UNPREDICTABLE>
    1fd4:	00000048 	andeq	r0, r0, r8, asr #32
    1fd8:	01779c01 	cmneq	r7, r1, lsl #24
    1fdc:	f1070000 			; <UNDEFINED> instruction: 0xf1070000
    1fe0:	01000005 	tsteq	r0, r5
    1fe4:	0001772a 	andeq	r7, r1, sl, lsr #14
    1fe8:	10001c00 	andne	r1, r0, r0, lsl #24
    1fec:	05d40720 	ldrbeq	r0, [r4, #1824]	; 0x720
    1ff0:	2b010000 	blcs	41ff8 <__bss_end__+0x37b80>
    1ff4:	00000177 	andeq	r0, r0, r7, ror r1
    1ff8:	20100024 	andscs	r0, r0, r4, lsr #32
    1ffc:	00059b07 	andeq	r9, r5, r7, lsl #22
    2000:	772c0100 	strvc	r0, [ip, -r0, lsl #2]!
    2004:	00000001 	andeq	r0, r0, r1
    2008:	085a0000 	ldmdaeq	sl, {}^	; <UNPREDICTABLE>
    200c:	000005bb 			; <UNDEFINED> instruction: 0x000005bb
    2010:	01772d01 	cmneq	r7, r1, lsl #26
    2014:	09200000 	stmdbeq	r0!, {}	; <UNPREDICTABLE>
    2018:	00008de0 	andeq	r8, r0, r0, ror #27
    201c:	00000079 	andeq	r0, r0, r9, ror r0
    2020:	008dec09 	addeq	lr, sp, r9, lsl #24
    2024:	0000a200 	andeq	sl, r0, r0, lsl #4
    2028:	8df40a00 	ldclhi	10, cr0, [r4]
    202c:	018d0000 	orreq	r0, sp, r0
    2030:	013a0000 	teqeq	sl, r0
    2034:	010b0000 	mrseq	r0, (UNDEF: 11)
    2038:	004e0150 	subeq	r0, lr, r0, asr r1
    203c:	008e000a 	addeq	r0, lr, sl
    2040:	00019e00 	andeq	r9, r1, r0, lsl #28
    2044:	00015a00 	andeq	r5, r1, r0, lsl #20
    2048:	51010b00 	tstpl	r1, r0, lsl #22
    204c:	00010c05 	andeq	r0, r1, r5, lsl #24
    2050:	010b5a00 	tsteq	fp, r0, lsl #20
    2054:	240c0550 	strcs	r0, [ip], #-1360	; 0x550
    2058:	00201000 	eoreq	r1, r0, r0
    205c:	008e0c0c 	addeq	r0, lr, ip, lsl #24
    2060:	00019e00 	andeq	r9, r1, r0, lsl #28
    2064:	51010b00 	tstpl	r1, r0, lsl #22
    2068:	00200c05 	eoreq	r0, r0, r5, lsl #24
    206c:	010b5a00 	tsteq	fp, r0, lsl #20
    2070:	1c0c0550 	cfstr32ne	mvfx0, [ip], {80}	; 0x50
    2074:	00201000 	eoreq	r1, r0, r0
    2078:	00250d00 	eoreq	r0, r5, r0, lsl #26
    207c:	90080000 	andls	r0, r8, r0
    2080:	01000005 	tsteq	r0, r5
    2084:	0001880d 	andeq	r8, r1, sp, lsl #16
    2088:	2c0d1000 	stccs	0, cr1, [sp], {-0}
    208c:	0e000000 	cdpeq	0, 0, cr0, cr0, cr0, {0}
    2090:	00000243 	andeq	r0, r0, r3, asr #4
    2094:	019e5002 	orrseq	r5, lr, r2
    2098:	2c0f0000 	stccs	0, cr0, [pc], {-0}
    209c:	00000000 	andeq	r0, r0, r0
    20a0:	0005eb10 	andeq	lr, r5, r0, lsl fp
    20a4:	0f9c0200 	svceq	0x009c0200
    20a8:	0000002c 	andeq	r0, r0, ip, lsr #32
    20ac:	00002c0f 	andeq	r2, r0, pc, lsl #24
    20b0:	d8000000 	stmdale	r0, {}	; <UNPREDICTABLE>
    20b4:	04000001 	streq	r0, [r0], #-1
    20b8:	000ac200 	andeq	ip, sl, r0, lsl #4
    20bc:	d3010400 	movwle	r0, #5120	; 0x1400
    20c0:	01000002 	tsteq	r0, r2
    20c4:	0000061b 	andeq	r0, r0, fp, lsl r6
    20c8:	0000033e 	andeq	r0, r0, lr, lsr r3
    20cc:	00008e20 	andeq	r8, r0, r0, lsr #28
    20d0:	00000088 	andeq	r0, r0, r8, lsl #1
    20d4:	000009a9 	andeq	r0, r0, r9, lsr #19
    20d8:	69050402 	stmdbvs	r5, {r1, sl}
    20dc:	0300746e 	movweq	r7, #1134	; 0x46e
    20e0:	004d0704 	subeq	r0, sp, r4, lsl #14
    20e4:	01030000 	mrseq	r0, (UNDEF: 3)
    20e8:	00022606 	andeq	r2, r2, r6, lsl #12
    20ec:	05020300 	streq	r0, [r2, #-768]	; 0x300
    20f0:	00000232 	andeq	r0, r0, r2, lsr r2
    20f4:	7c050403 	cfstrsvc	mvf0, [r5], {3}
    20f8:	03000000 	movweq	r0, #0
    20fc:	00770508 	rsbseq	r0, r7, r8, lsl #10
    2100:	01030000 	mrseq	r0, (UNDEF: 3)
    2104:	00022408 	andeq	r2, r2, r8, lsl #8
    2108:	07020300 	streq	r0, [r2, -r0, lsl #6]
    210c:	0000017e 	andeq	r0, r0, lr, ror r1
    2110:	48070403 	stmdami	r7, {r0, r1, sl}
    2114:	03000000 	movweq	r0, #0
    2118:	00430708 	subeq	r0, r3, r8, lsl #14
    211c:	04030000 	streq	r0, [r3], #-0
    2120:	0001c007 	andeq	ip, r1, r7
    2124:	08010300 	stmdaeq	r1, {r8, r9}
    2128:	0000022d 	andeq	r0, r0, sp, lsr #4
    212c:	00063a04 	andeq	r3, r6, r4, lsl #20
    2130:	20050100 	andcs	r0, r5, r0, lsl #2
    2134:	1c00008e 	stcne	0, cr0, [r0], {142}	; 0x8e
    2138:	01000000 	mrseq	r0, (UNDEF: 0)
    213c:	00009e9c 	muleq	r0, ip, lr
    2140:	06340500 	ldrteq	r0, [r4], -r0, lsl #10
    2144:	05010000 	streq	r0, [r1, #-0]
    2148:	0000002c 	andeq	r0, r0, ip, lsr #32
    214c:	000011bd 			; <UNDEFINED> instruction: 0x000011bd
    2150:	05fe0600 	ldrbeq	r0, [lr, #1536]!	; 0x600
    2154:	0b010000 	bleq	4215c <__bss_end__+0x37ce4>
    2158:	0000002c 	andeq	r0, r0, ip, lsr #32
    215c:	00008e3c 	andeq	r8, r0, ip, lsr lr
    2160:	00000014 	andeq	r0, r0, r4, lsl r0
    2164:	00cb9c01 	sbceq	r9, fp, r1, lsl #24
    2168:	48070000 	stmdami	r7, {}	; <UNPREDICTABLE>
    216c:	ca00008e 	bgt	23ac <_start-0x5c54>
    2170:	08000001 	stmdaeq	r0, {r0}
    2174:	0c055001 	stceq	0, cr5, [r5], {1}
    2178:	20003004 	andcs	r3, r0, r4
    217c:	50060000 	andpl	r0, r6, r0
    2180:	01000006 	tsteq	r0, r6
    2184:	00002c10 	andeq	r2, r0, r0, lsl ip
    2188:	008e5000 	addeq	r5, lr, r0
    218c:	00000c00 	andeq	r0, r0, r0, lsl #24
    2190:	f99c0100 			; <UNDEFINED> instruction: 0xf99c0100
    2194:	09000000 	stmdbeq	r0, {}	; <UNPREDICTABLE>
    2198:	14010075 	strne	r0, [r1], #-117	; 0x75
    219c:	0000002c 	andeq	r0, r0, ip, lsr #32
    21a0:	580a5001 	stmdapl	sl, {r0, ip, lr}
    21a4:	9e00008e 	cdpls	0, 0, cr0, cr0, cr14, {4}
    21a8:	00000000 	andeq	r0, r0, r0
    21ac:	00064704 	andeq	r4, r6, r4, lsl #14
    21b0:	5c190100 	ldfpls	f0, [r9], {-0}
    21b4:	2400008e 	strcs	r0, [r0], #-142	; 0x8e
    21b8:	01000000 	mrseq	r0, (UNDEF: 0)
    21bc:	0001579c 	muleq	r1, ip, r7
    21c0:	73750b00 	cmnvc	r5, #0, 22
    21c4:	2c190100 	ldfcss	f0, [r9], {-0}
    21c8:	f1000000 	cps	#0
    21cc:	09000011 	stmdbeq	r0, {r0, r4}
    21d0:	01006272 	tsteq	r0, r2, ror r2
    21d4:	00002c1a 	andeq	r2, r0, sl, lsl ip
    21d8:	0c540100 	ldfeqe	f0, [r4], {-0}
    21dc:	00008e6c 	andeq	r8, r0, ip, ror #28
    21e0:	00000010 	andeq	r0, r0, r0, lsl r0
    21e4:	0000014d 	andeq	r0, r0, sp, asr #2
    21e8:	0061720d 	rsbeq	r7, r1, sp, lsl #4
    21ec:	002c1c01 	eoreq	r1, ip, r1, lsl #24
    21f0:	120f0000 	andne	r0, pc, #0
    21f4:	700a0000 	andvc	r0, sl, r0
    21f8:	cb00008e 	blgt	2438 <_start-0x5bc8>
    21fc:	00000000 	andeq	r0, r0, r0
    2200:	008e680a 	addeq	r6, lr, sl, lsl #16
    2204:	0000cb00 	andeq	ip, r0, r0, lsl #22
    2208:	43040000 	movwmi	r0, #16384	; 0x4000
    220c:	01000002 	tsteq	r0, r2
    2210:	008e8022 	addeq	r8, lr, r2, lsr #32
    2214:	00001400 	andeq	r1, r0, r0, lsl #8
    2218:	909c0100 	addsls	r0, ip, r0, lsl #2
    221c:	0b000001 	bleq	2228 <_start-0x5dd8>
    2220:	0100736d 	tsteq	r0, sp, ror #6
    2224:	00002c22 	andeq	r2, r0, r2, lsr #24
    2228:	00122200 	andseq	r2, r2, r0, lsl #4
    222c:	8e900700 	cdphi	7, 9, cr0, cr0, cr0, {0}
    2230:	00f90000 	rscseq	r0, r9, r0
    2234:	01080000 	mrseq	r0, (UNDEF: 8)
    2238:	01f30750 	mvnseq	r0, r0, asr r7
    223c:	03e80a50 	mvneq	r0, #80, 20	; 0x50000
    2240:	0400001e 	streq	r0, [r0], #-30
    2244:	00000611 	andeq	r0, r0, r1, lsl r6
    2248:	8e942501 	cdphi	5, 9, cr2, cr4, cr1, {0}
    224c:	00140000 	andseq	r0, r4, r0
    2250:	9c010000 	stcls	0, cr0, [r1], {-0}
    2254:	000001ca 	andeq	r0, r0, sl, asr #3
    2258:	6365730b 	cmnvs	r5, #738197504	; 0x2c000000
    225c:	2c250100 	stfcss	f0, [r5], #-0
    2260:	43000000 	movwmi	r0, #0
    2264:	07000012 	smladeq	r0, r2, r0, r0
    2268:	00008ea4 	andeq	r8, r0, r4, lsr #29
    226c:	00000157 	andeq	r0, r0, r7, asr r1
    2270:	07500108 	ldrbeq	r0, [r0, -r8, lsl #2]
    2274:	0a5001f3 	beq	1402a48 <__bss_end__+0x13f85d0>
    2278:	001e03e8 	andseq	r0, lr, r8, ror #7
    227c:	062e0e00 	strteq	r0, [lr], -r0, lsl #28
    2280:	a8020000 	stmdage	r2, {}	; <UNPREDICTABLE>
    2284:	0000002c 	andeq	r0, r0, ip, lsr #32
    2288:	00002c0f 	andeq	r2, r0, pc, lsl #24
    228c:	82000000 	andhi	r0, r0, #0
    2290:	04000008 	streq	r0, [r0], #-8
    2294:	000ba500 	andeq	sl, fp, r0, lsl #10
    2298:	d3010400 	movwle	r0, #5120	; 0x1400
    229c:	01000002 	tsteq	r0, r2
    22a0:	000006a3 	andeq	r0, r0, r3, lsr #13
    22a4:	0000033e 	andeq	r0, r0, lr, lsr r3
    22a8:	00008ea8 	andeq	r8, r0, r8, lsr #29
    22ac:	000005a0 	andeq	r0, r0, r0, lsr #11
    22b0:	00000a50 	andeq	r0, r0, r0, asr sl
    22b4:	43070802 	movwmi	r0, #30722	; 0x7802
    22b8:	02000000 	andeq	r0, r0, #0
    22bc:	004d0704 	subeq	r0, sp, r4, lsl #14
    22c0:	01020000 	mrseq	r0, (UNDEF: 2)
    22c4:	00022606 	andeq	r2, r2, r6, lsl #12
    22c8:	05020200 	streq	r0, [r2, #-512]	; 0x200
    22cc:	00000232 	andeq	r0, r0, r2, lsr r2
    22d0:	7c050402 	cfstrsvc	mvf0, [r5], {2}
    22d4:	02000000 	andeq	r0, r0, #0
    22d8:	00770508 	rsbseq	r0, r7, r8, lsl #10
    22dc:	01020000 	mrseq	r0, (UNDEF: 2)
    22e0:	00022408 	andeq	r2, r2, r8, lsl #8
    22e4:	07020200 	streq	r0, [r2, -r0, lsl #4]
    22e8:	0000017e 	andeq	r0, r0, lr, ror r1
    22ec:	48070402 	stmdami	r7, {r1, sl}
    22f0:	03000000 	movweq	r0, #0
    22f4:	6e690504 	cdpvs	5, 6, cr0, cr9, cr4, {0}
    22f8:	04020074 	streq	r0, [r2], #-116	; 0x74
    22fc:	0001c007 	andeq	ip, r1, r7
    2300:	08010200 	stmdaeq	r1, {r9}
    2304:	0000022d 	andeq	r0, r0, sp, lsr #4
    2308:	0c020104 	stfeqs	f0, [r2], {4}
    230c:	000000b2 	strheq	r0, [r0], -r2
    2310:	00069305 	andeq	r9, r6, r5, lsl #6
    2314:	6f050000 	svcvs	0x00050000
    2318:	01000007 	tsteq	r0, r7
    231c:	0007a805 	andeq	sl, r7, r5, lsl #16
    2320:	b7050400 	strlt	r0, [r5, -r0, lsl #8]
    2324:	05000007 	streq	r0, [r0, #-7]
    2328:	0007c605 	andeq	ip, r7, r5, lsl #12
    232c:	d5050600 	strle	r0, [r5, #-1536]	; 0x600
    2330:	07000007 	streq	r0, [r0, -r7]
    2334:	0007e405 	andeq	lr, r7, r5, lsl #8
    2338:	f3050300 	vcgt.u8	d0, d5, d0
    233c:	02000007 	andeq	r0, r0, #7
    2340:	079c0600 	ldreq	r0, [ip, r0, lsl #12]
    2344:	15020000 	strne	r0, [r2, #-0]
    2348:	00000079 	andeq	r0, r0, r9, ror r0
    234c:	00027f07 	andeq	r7, r2, r7, lsl #30
    2350:	a83f0100 	ldmdage	pc!, {r8}	; <UNPREDICTABLE>
    2354:	d400008e 	strle	r0, [r0], #-142	; 0x8e
    2358:	01000000 	mrseq	r0, (UNDEF: 0)
    235c:	0001339c 	muleq	r1, ip, r3
    2360:	69700800 	ldmdbvs	r0!, {fp}^
    2364:	3f01006e 	svccc	0x0001006e
    2368:	0000002c 	andeq	r0, r0, ip, lsr #32
    236c:	00001264 	andeq	r1, r0, r4, ror #4
    2370:	0006c309 	andeq	ip, r6, r9, lsl #6
    2374:	33470100 	movtcc	r0, #28928	; 0x7100
    2378:	82000001 	andhi	r0, r0, #1
    237c:	09000012 	stmdbeq	r0, {r1, r4}
    2380:	00000802 	andeq	r0, r0, r2, lsl #16
    2384:	002c4901 	eoreq	r4, ip, r1, lsl #18
    2388:	12d70000 	sbcsne	r0, r7, #0
    238c:	3a090000 	bcc	242394 <__bss_end__+0x237f1c>
    2390:	01000007 	tsteq	r0, r7
    2394:	00002c57 	andeq	r2, r0, r7, asr ip
    2398:	0014a300 	andseq	sl, r4, r0, lsl #6
    239c:	8f3c0a00 	svchi	0x003c0a00
    23a0:	08410000 	stmdaeq	r1, {}^	; <UNPREDICTABLE>
    23a4:	01220000 	teqeq	r2, r0
    23a8:	010b0000 	mrseq	r0, (UNDEF: 11)
    23ac:	00750250 	rsbseq	r0, r5, r0, asr r2
    23b0:	8f700c00 	svchi	0x00700c00
    23b4:	08620000 	stmdaeq	r2!, {}^	; <UNPREDICTABLE>
    23b8:	010b0000 	mrseq	r0, (UNDEF: 11)
    23bc:	00750250 	rsbseq	r0, r5, r0, asr r2
    23c0:	040d0000 	streq	r0, [sp], #-0
    23c4:	00000139 	andeq	r0, r0, r9, lsr r1
    23c8:	00002c0e 	andeq	r2, r0, lr, lsl #24
    23cc:	005f0700 	subseq	r0, pc, r0, lsl #14
    23d0:	60010000 	andvs	r0, r1, r0
    23d4:	00008f7c 	andeq	r8, r0, ip, ror pc
    23d8:	00000038 	andeq	r0, r0, r8, lsr r0
    23dc:	01969c01 	orrseq	r9, r6, r1, lsl #24
    23e0:	70080000 	andvc	r0, r8, r0
    23e4:	01006e69 	tsteq	r0, r9, ror #28
    23e8:	00002c60 	andeq	r2, r0, r0, ror #24
    23ec:	0014d300 	andseq	sp, r4, r0, lsl #6
    23f0:	06c30900 	strbeq	r0, [r3], r0, lsl #18
    23f4:	67010000 	strvs	r0, [r1, -r0]
    23f8:	00000133 	andeq	r0, r0, r3, lsr r1
    23fc:	000014f4 	strdeq	r1, [r0], -r4
    2400:	00073a09 	andeq	r3, r7, r9, lsl #20
    2404:	2c680100 	stfcse	f0, [r8], #-0
    2408:	2a000000 	bcs	2410 <_start-0x5bf0>
    240c:	0c000015 	stceq	0, cr0, [r0], {21}
    2410:	00008fac 	andeq	r8, r0, ip, lsr #31
    2414:	00000862 	andeq	r0, r0, r2, ror #16
    2418:	0751010b 	ldrbeq	r0, [r1, -fp, lsl #2]
    241c:	5001f331 	andpl	pc, r1, r1, lsr r3	; <UNPREDICTABLE>
    2420:	00241a4f 	eoreq	r1, r4, pc, asr #20
    2424:	00be0700 	adcseq	r0, lr, r0, lsl #14
    2428:	7b010000 	blvc	42430 <__bss_end__+0x37fb8>
    242c:	00008fb4 			; <UNDEFINED> instruction: 0x00008fb4
    2430:	00000038 	andeq	r0, r0, r8, lsr r0
    2434:	01ee9c01 	mvneq	r9, r1, lsl #24
    2438:	70080000 	andvc	r0, r8, r0
    243c:	01006e69 	tsteq	r0, r9, ror #28
    2440:	00002c7b 	andeq	r2, r0, fp, ror ip
    2444:	00156a00 	andseq	r6, r5, r0, lsl #20
    2448:	06c30900 	strbeq	r0, [r3], r0, lsl #18
    244c:	81010000 	mrshi	r0, (UNDEF: 1)
    2450:	00000133 	andeq	r0, r0, r3, lsr r1
    2454:	0000158b 	andeq	r1, r0, fp, lsl #11
    2458:	00073a09 	andeq	r3, r7, r9, lsl #20
    245c:	2c820100 	stfcss	f0, [r2], {0}
    2460:	c1000000 	mrsgt	r0, (UNDEF: 0)
    2464:	0c000015 	stceq	0, cr0, [r0], {21}
    2468:	00008fe4 	andeq	r8, r0, r4, ror #31
    246c:	00000862 	andeq	r0, r0, r2, ror #16
    2470:	0751010b 	ldrbeq	r0, [r1, -fp, lsl #2]
    2474:	5001f331 	andpl	pc, r1, r1, lsr r3	; <UNPREDICTABLE>
    2478:	00241a4f 	eoreq	r1, r4, pc, asr #20
    247c:	026b0700 	rsbeq	r0, fp, #0, 14
    2480:	95010000 	strls	r0, [r1, #-0]
    2484:	00008fec 	andeq	r8, r0, ip, ror #31
    2488:	000000cc 	andeq	r0, r0, ip, asr #1
    248c:	02649c01 	rsbeq	r9, r4, #256	; 0x100
    2490:	70080000 	andvc	r0, r8, r0
    2494:	01006e69 	tsteq	r0, r9, ror #28
    2498:	00002c95 	muleq	r0, r5, ip
    249c:	00160100 	andseq	r0, r6, r0, lsl #2
    24a0:	06c30900 	strbeq	r0, [r3], r0, lsl #18
    24a4:	9b010000 	blls	424ac <__bss_end__+0x38034>
    24a8:	00000133 	andeq	r0, r0, r3, lsr r1
    24ac:	0000161f 	andeq	r1, r0, pc, lsl r6
    24b0:	00080209 	andeq	r0, r8, r9, lsl #4
    24b4:	2c9d0100 	ldfcss	f0, [sp], {0}
    24b8:	74000000 	strvc	r0, [r0], #-0
    24bc:	09000016 	stmdbeq	r0, {r1, r2, r4}
    24c0:	0000073a 	andeq	r0, r0, sl, lsr r7
    24c4:	002cab01 	eoreq	sl, ip, r1, lsl #22
    24c8:	18400000 	stmdane	r0, {}^	; <UNPREDICTABLE>
    24cc:	800a0000 	andhi	r0, sl, r0
    24d0:	41000090 	swpmi	r0, r0, [r0]	; <UNPREDICTABLE>
    24d4:	53000008 	movwpl	r0, #8
    24d8:	0b000002 	bleq	24e8 <_start-0x5b18>
    24dc:	75025001 	strvc	r5, [r2, #-1]
    24e0:	ac0c0000 	stcge	0, cr0, [ip], {-0}
    24e4:	62000090 	andvs	r0, r0, #144	; 0x90
    24e8:	0b000008 	bleq	2510 <_start-0x5af0>
    24ec:	75025001 	strvc	r5, [r2, #-1]
    24f0:	0f000000 	svceq	0x00000000
    24f4:	000001a3 	andeq	r0, r0, r3, lsr #3
    24f8:	0064b301 	rsbeq	fp, r4, r1, lsl #6
    24fc:	90b80000 	adcsls	r0, r8, r0
    2500:	004c0000 	subeq	r0, ip, r0
    2504:	9c010000 	stcls	0, cr0, [r1], {-0}
    2508:	000002ac 	andeq	r0, r0, ip, lsr #5
    250c:	6e697008 	cdpvs	0, 6, cr7, cr9, cr8, {0}
    2510:	2cb30100 	ldfcss	f0, [r3]
    2514:	5e000000 	cdppl	0, 0, cr0, cr0, cr0, {0}
    2518:	10000018 	andne	r0, r0, r8, lsl r0
    251c:	b9010076 	stmdblt	r1, {r1, r2, r4, r5, r6}
    2520:	0000002c 	andeq	r0, r0, ip, lsr #32
    2524:	000018b6 			; <UNDEFINED> instruction: 0x000018b6
    2528:	0090d811 	addseq	sp, r0, r1, lsl r8
    252c:	00084100 	andeq	r4, r8, r0, lsl #2
    2530:	90e81100 	rscls	r1, r8, r0, lsl #2
    2534:	08410000 	stmdaeq	r1, {}^	; <UNPREDICTABLE>
    2538:	07000000 	streq	r0, [r0, -r0]
    253c:	00000029 	andeq	r0, r0, r9, lsr #32
    2540:	9104c501 	tstls	r4, r1, lsl #10
    2544:	00240000 	eoreq	r0, r4, r0
    2548:	9c010000 	stcls	0, cr0, [r1], {-0}
    254c:	000002fc 	strdeq	r0, [r0], -ip
    2550:	6e697008 	cdpvs	0, 6, cr7, cr9, cr8, {0}
    2554:	2cc50100 	stfcse	f0, [r5], {0}
    2558:	ec000000 	stc	0, cr0, [r0], {-0}
    255c:	08000018 	stmdaeq	r0, {r3, r4}
    2560:	c5010076 	strgt	r0, [r1, #-118]	; 0x76
    2564:	0000002c 	andeq	r0, r0, ip, lsr #32
    2568:	00001926 	andeq	r1, r0, r6, lsr #18
    256c:	00911c0a 	addseq	r1, r1, sl, lsl #24
    2570:	00013e00 	andeq	r3, r1, r0, lsl #28
    2574:	0002f200 	andeq	pc, r2, r0, lsl #4
    2578:	50010b00 	andpl	r0, r1, r0, lsl #22
    257c:	5001f303 	andpl	pc, r1, r3, lsl #6
    2580:	91241100 	teqls	r4, r0, lsl #2
    2584:	01960000 	orrseq	r0, r6, r0
    2588:	07000000 	streq	r0, [r0, -r0]
    258c:	000006ed 	andeq	r0, r0, sp, ror #13
    2590:	9128d101 	teqls	r8, r1, lsl #2
    2594:	00d80000 	sbcseq	r0, r8, r0
    2598:	9c010000 	stcls	0, cr0, [r1], {-0}
    259c:	00000381 	andeq	r0, r0, r1, lsl #7
    25a0:	6e697008 	cdpvs	0, 6, cr7, cr9, cr8, {0}
    25a4:	2cd10100 	ldfcse	f0, [r1], {0}
    25a8:	60000000 	andvs	r0, r0, r0
    25ac:	12000019 	andne	r0, r0, #25
    25b0:	00000742 	andeq	r0, r0, r2, asr #14
    25b4:	00b2d101 	adcseq	sp, r2, r1, lsl #2
    25b8:	197e0000 	ldmdbne	lr!, {}^	; <UNPREDICTABLE>
    25bc:	c3090000 	movwgt	r0, #36864	; 0x9000
    25c0:	01000006 	tsteq	r0, r6
    25c4:	000133d9 	ldrdeq	r3, [r1], -r9
    25c8:	00199f00 	andseq	r9, r9, r0, lsl #30
    25cc:	08020900 	stmdaeq	r2, {r8, fp}
    25d0:	da010000 	ble	425d8 <__bss_end__+0x38160>
    25d4:	0000002c 	andeq	r0, r0, ip, lsr #32
    25d8:	000019f4 	strdeq	r1, [r0], -r4
    25dc:	00073a09 	andeq	r3, r7, r9, lsl #20
    25e0:	2ce80100 	stfcse	f0, [r8]
    25e4:	c0000000 	andgt	r0, r0, r0
    25e8:	0a00001b 	beq	265c <_start-0x59a4>
    25ec:	000091c4 	andeq	r9, r0, r4, asr #3
    25f0:	00000841 	andeq	r0, r0, r1, asr #16
    25f4:	00000370 	andeq	r0, r0, r0, ror r3
    25f8:	0250010b 	subseq	r0, r0, #-1073741822	; 0xc0000002
    25fc:	0c000076 	stceq	0, cr0, [r0], {118}	; 0x76
    2600:	000091f4 	strdeq	r9, [r0], -r4
    2604:	00000862 	andeq	r0, r0, r2, ror #16
    2608:	0250010b 	subseq	r0, r0, #-1073741822	; 0xc0000002
    260c:	00000076 	andeq	r0, r0, r6, ror r0
    2610:	00074707 	andeq	r4, r7, r7, lsl #14
    2614:	00f10100 	rscseq	r0, r1, r0, lsl #2
    2618:	38000092 	stmdacc	r0, {r1, r4, r7}
    261c:	01000000 	mrseq	r0, (UNDEF: 0)
    2620:	0003d99c 	muleq	r3, ip, r9
    2624:	69700800 	ldmdbvs	r0!, {fp}^
    2628:	f101006e 	setend	le
    262c:	0000002c 	andeq	r0, r0, ip, lsr #32
    2630:	00001bf1 	strdeq	r1, [r0], -r1	; <UNPREDICTABLE>
    2634:	0006c309 	andeq	ip, r6, r9, lsl #6
    2638:	33f70100 	mvnscc	r0, #0, 2
    263c:	12000001 	andne	r0, r0, #1
    2640:	0900001c 	stmdbeq	r0, {r2, r3, r4}
    2644:	0000073a 	andeq	r0, r0, sl, lsr r7
    2648:	002cf801 	eoreq	pc, ip, r1, lsl #16
    264c:	1c480000 	marne	acc0, r0, r8
    2650:	300c0000 	andcc	r0, ip, r0
    2654:	62000092 	andvs	r0, r0, #146	; 0x92
    2658:	0b000008 	bleq	2680 <_start-0x5980>
    265c:	31075101 	tstcc	r7, r1, lsl #2
    2660:	4f5001f3 	svcmi	0x005001f3
    2664:	0000241a 	andeq	r2, r0, sl, lsl r4
    2668:	00068713 	andeq	r8, r6, r3, lsl r7
    266c:	011f0100 	tsteq	pc, r0, lsl #2
    2670:	00000064 	andeq	r0, r0, r4, rrx
    2674:	00009238 	andeq	r9, r0, r8, lsr r2
    2678:	0000002c 	andeq	r0, r0, ip, lsr #32
    267c:	040d9c01 	streq	r9, [sp], #-3073	; 0xc01
    2680:	8a140000 	bhi	502688 <__bss_end__+0x4f8210>
    2684:	01000006 	tsteq	r0, r6
    2688:	002c011f 	eoreq	r0, ip, pc, lsl r1
    268c:	1c880000 	stcne	0, cr0, [r8], {0}
    2690:	48110000 	ldmdami	r1, {}	; <UNPREDICTABLE>
    2694:	41000092 	swpmi	r0, r2, [r0]	; <UNPREDICTABLE>
    2698:	00000008 	andeq	r0, r0, r8
    269c:	0006d815 	andeq	sp, r6, r5, lsl r8
    26a0:	012e0100 	teqeq	lr, r0, lsl #2
    26a4:	00009264 	andeq	r9, r0, r4, ror #4
    26a8:	00000084 	andeq	r0, r0, r4, lsl #1
    26ac:	04d19c01 	ldrbeq	r9, [r1], #3073	; 0xc01
    26b0:	70160000 	andsvc	r0, r6, r0
    26b4:	01006e69 	tsteq	r0, r9, ror #28
    26b8:	002c012e 	eoreq	r0, ip, lr, lsr #2
    26bc:	1ca90000 	stcne	0, cr0, [r9]
    26c0:	b1170000 	tstlt	r7, r0
    26c4:	01000006 	tsteq	r0, r6
    26c8:	002c0140 	eoreq	r0, ip, r0, asr #2
    26cc:	1cd50000 	ldclne	0, cr0, [r5], {0}
    26d0:	80180000 	andshi	r0, r8, r0
    26d4:	1c000092 	stcne	0, cr0, [r0], {146}	; 0x92
    26d8:	73000000 	movwvc	r0, #0
    26dc:	17000004 	strne	r0, [r0, -r4]
    26e0:	0000073a 	andeq	r0, r0, sl, lsr r7
    26e4:	2c013701 	stccs	7, cr3, [r1], {1}
    26e8:	f3000000 	vhadd.u8	d0, d0, d0
    26ec:	1100001c 	tstne	r0, ip, lsl r0
    26f0:	0000928c 	andeq	r9, r0, ip, lsl #5
    26f4:	00000841 	andeq	r0, r0, r1, asr #16
    26f8:	00929c11 	addseq	r9, r2, r1, lsl ip
    26fc:	00086200 	andeq	r6, r8, r0, lsl #4
    2700:	a0180000 	andsge	r0, r8, r0
    2704:	20000092 	mulcs	r0, r2, r0
    2708:	a3000000 	movwge	r0, #0
    270c:	17000004 	strne	r0, [r0, -r4]
    2710:	0000073a 	andeq	r0, r0, sl, lsr r7
    2714:	2c013b01 	stccs	11, cr3, [r1], {1}
    2718:	11000000 	mrsne	r0, (UNDEF: 0)
    271c:	1100001d 	tstne	r0, sp, lsl r0
    2720:	000092ac 	andeq	r9, r0, ip, lsr #5
    2724:	00000841 	andeq	r0, r0, r1, asr #16
    2728:	0092c011 	addseq	ip, r2, r1, lsl r0
    272c:	00086200 	andeq	r6, r8, r0, lsl #4
    2730:	78110000 	ldmdavc	r1, {}	; <UNPREDICTABLE>
    2734:	7e000092 	mcrvc	0, 0, r0, cr0, cr2, {4}
    2738:	11000008 	tstne	r0, r8
    273c:	000092c4 	andeq	r9, r0, r4, asr #5
    2740:	0000087e 	andeq	r0, r0, lr, ror r8
    2744:	0092d011 	addseq	sp, r2, r1, lsl r0
    2748:	00084100 	andeq	r4, r8, r0, lsl #2
    274c:	92dc1100 	sbcsls	r1, ip, #0, 2
    2750:	08620000 	stmdaeq	r2!, {}^	; <UNPREDICTABLE>
    2754:	e0110000 	ands	r0, r1, r0
    2758:	7e000092 	mcrvc	0, 0, r0, cr0, cr2, {4}
    275c:	00000008 	andeq	r0, r0, r8
    2760:	00078615 	andeq	r8, r7, r5, lsl r6
    2764:	014b0100 	mrseq	r0, (UNDEF: 91)
    2768:	000092e8 	andeq	r9, r0, r8, ror #5
    276c:	00000084 	andeq	r0, r0, r4, lsl #1
    2770:	05959c01 	ldreq	r9, [r5, #3073]	; 0xc01
    2774:	70160000 	andsvc	r0, r6, r0
    2778:	01006e69 	tsteq	r0, r9, ror #28
    277c:	002c014b 	eoreq	r0, ip, fp, asr #2
    2780:	1d2f0000 	stcne	0, cr0, [pc, #-0]	; 2788 <_start-0x5878>
    2784:	b1170000 	tstlt	r7, r0
    2788:	01000006 	tsteq	r0, r6
    278c:	002c015c 	eoreq	r0, ip, ip, asr r1
    2790:	1d5b0000 	ldclne	0, cr0, [fp, #-0]
    2794:	04180000 	ldreq	r0, [r8], #-0
    2798:	1c000093 	stcne	0, cr0, [r0], {147}	; 0x93
    279c:	37000000 	strcc	r0, [r0, -r0]
    27a0:	17000005 	strne	r0, [r0, -r5]
    27a4:	0000073a 	andeq	r0, r0, sl, lsr r7
    27a8:	2c015301 	stccs	3, cr5, [r1], {1}
    27ac:	79000000 	stmdbvc	r0, {}	; <UNPREDICTABLE>
    27b0:	1100001d 	tstne	r0, sp, lsl r0
    27b4:	00009310 	andeq	r9, r0, r0, lsl r3
    27b8:	00000841 	andeq	r0, r0, r1, asr #16
    27bc:	00932011 	addseq	r2, r3, r1, lsl r0
    27c0:	00086200 	andeq	r6, r8, r0, lsl #4
    27c4:	24180000 	ldrcs	r0, [r8], #-0
    27c8:	20000093 	mulcs	r0, r3, r0
    27cc:	67000000 	strvs	r0, [r0, -r0]
    27d0:	17000005 	strne	r0, [r0, -r5]
    27d4:	0000073a 	andeq	r0, r0, sl, lsr r7
    27d8:	2c015701 	stccs	7, cr5, [r1], {1}
    27dc:	97000000 	strls	r0, [r0, -r0]
    27e0:	1100001d 	tstne	r0, sp, lsl r0
    27e4:	00009330 	andeq	r9, r0, r0, lsr r3
    27e8:	00000841 	andeq	r0, r0, r1, asr #16
    27ec:	00934411 	addseq	r4, r3, r1, lsl r4
    27f0:	00086200 	andeq	r6, r8, r0, lsl #4
    27f4:	fc110000 	ldc2	0, cr0, [r1], {-0}
    27f8:	7e000092 	mcrvc	0, 0, r0, cr0, cr2, {4}
    27fc:	11000008 	tstne	r0, r8
    2800:	00009348 	andeq	r9, r0, r8, asr #6
    2804:	0000087e 	andeq	r0, r0, lr, ror r8
    2808:	00935411 	addseq	r5, r3, r1, lsl r4
    280c:	00084100 	andeq	r4, r8, r0, lsl #2
    2810:	93601100 	cmnls	r0, #0, 2
    2814:	08620000 	stmdaeq	r2!, {}^	; <UNPREDICTABLE>
    2818:	64110000 	ldrvs	r0, [r1], #-0
    281c:	7e000093 	mcrvc	0, 0, r0, cr0, cr3, {4}
    2820:	00000008 	andeq	r0, r0, r8
    2824:	00065f13 	andeq	r5, r6, r3, lsl pc
    2828:	01660100 	cmneq	r6, r0, lsl #2
    282c:	00000064 	andeq	r0, r0, r4, rrx
    2830:	0000936c 	andeq	r9, r0, ip, ror #6
    2834:	00000084 	andeq	r0, r0, r4, lsl #1
    2838:	063b9c01 	ldrteq	r9, [fp], -r1, lsl #24
    283c:	70160000 	andsvc	r0, r6, r0
    2840:	01006e69 	tsteq	r0, r9, ror #28
    2844:	002c0166 	eoreq	r0, ip, r6, ror #2
    2848:	1db50000 	ldcne	0, cr0, [r5]
    284c:	88180000 	ldmdahi	r8, {}	; <UNPREDICTABLE>
    2850:	24000093 	strcs	r0, [r0], #-147	; 0x93
    2854:	ef000000 	svc	0x00000000
    2858:	17000005 	strne	r0, [r0, -r5]
    285c:	000006ba 			; <UNDEFINED> instruction: 0x000006ba
    2860:	2c016d01 	stccs	13, cr6, [r1], {1}
    2864:	f7000000 			; <UNDEFINED> instruction: 0xf7000000
    2868:	1100001d 	tstne	r0, sp, lsl r0
    286c:	00009394 	muleq	r0, r4, r3
    2870:	00000841 	andeq	r0, r0, r1, asr #16
    2874:	0093a411 	addseq	sl, r3, r1, lsl r4
    2878:	00087e00 	andeq	r7, r8, r0, lsl #28
    287c:	ac180000 	ldcge	0, cr0, [r8], {-0}
    2880:	2c000093 	stccs	0, cr0, [r0], {147}	; 0x93
    2884:	28000000 	stmdacs	r0, {}	; <UNPREDICTABLE>
    2888:	17000006 	strne	r0, [r0, -r6]
    288c:	000006ba 			; <UNDEFINED> instruction: 0x000006ba
    2890:	2c017001 	stccs	0, cr7, [r1], {1}
    2894:	11000000 	mrsne	r0, (UNDEF: 0)
    2898:	1100001e 	tstne	r0, lr, lsl r0
    289c:	000093b8 			; <UNDEFINED> instruction: 0x000093b8
    28a0:	00000841 	andeq	r0, r0, r1, asr #16
    28a4:	0093c411 	addseq	ip, r3, r1, lsl r4
    28a8:	00087e00 	andeq	r7, r8, r0, lsl #28
    28ac:	93d01100 	bicsls	r1, r0, #0, 2
    28b0:	087e0000 	ldmdaeq	lr!, {}^	; <UNPREDICTABLE>
    28b4:	11000000 	mrsne	r0, (UNDEF: 0)
    28b8:	00009380 	andeq	r9, r0, r0, lsl #7
    28bc:	0000087e 	andeq	r0, r0, lr, ror r8
    28c0:	0093dc11 	addseq	sp, r3, r1, lsl ip
    28c4:	00087e00 	andeq	r7, r8, r0, lsl #28
    28c8:	0d150000 	ldceq	0, cr0, [r5, #-0]
    28cc:	01000007 	tsteq	r0, r7
    28d0:	93f00179 	mvnsls	r0, #1073741854	; 0x4000001e
    28d4:	00580000 	subseq	r0, r8, r0
    28d8:	9c010000 	stcls	0, cr0, [r1], {-0}
    28dc:	000006a0 	andeq	r0, r0, r0, lsr #13
    28e0:	6e697016 	mcrvs	0, 3, r7, cr9, cr6, {0}
    28e4:	01790100 	cmneq	r9, r0, lsl #2
    28e8:	0000002c 	andeq	r0, r0, ip, lsr #32
    28ec:	00001e24 	andeq	r1, r0, r4, lsr #28
    28f0:	00940411 	addseq	r0, r4, r1, lsl r4
    28f4:	00087e00 	andeq	r7, r8, r0, lsl #28
    28f8:	94200a00 	strtls	r0, [r0], #-2560	; 0xa00
    28fc:	08620000 	stmdaeq	r2!, {}^	; <UNPREDICTABLE>
    2900:	06800000 	streq	r0, [r0], r0
    2904:	010b0000 	mrseq	r0, (UNDEF: 11)
    2908:	74310451 	ldrtvc	r0, [r1], #-1105	; 0x451
    290c:	0a002400 	beq	b914 <__bss_end__+0x149c>
    2910:	0000943c 	andeq	r9, r0, ip, lsr r4
    2914:	00000862 	andeq	r0, r0, r2, ror #16
    2918:	00000696 	muleq	r0, r6, r6
    291c:	0451010b 	ldrbeq	r0, [r1], #-267	; 0x10b
    2920:	24007431 	strcs	r7, [r0], #-1073	; 0x431
    2924:	94401100 	strbls	r1, [r0], #-256	; 0x100
    2928:	087e0000 	ldmdaeq	lr!, {}^	; <UNPREDICTABLE>
    292c:	19000000 	stmdbne	r0, {}	; <UNPREDICTABLE>
    2930:	00000191 	muleq	r0, r1, r1
    2934:	01332801 	teqeq	r3, r1, lsl #16
    2938:	03050000 	movweq	r0, #20480	; 0x5000
    293c:	00009d3c 	andeq	r9, r0, ip, lsr sp
    2940:	00025b19 	andeq	r5, r2, r9, lsl fp
    2944:	33290100 	teqcc	r9, #0, 2
    2948:	05000001 	streq	r0, [r0, #-1]
    294c:	009d3803 	addseq	r3, sp, r3, lsl #16
    2950:	02a41900 	adceq	r1, r4, #0, 18
    2954:	2a010000 	bcs	4295c <__bss_end__+0x384e4>
    2958:	00000133 	andeq	r0, r0, r3, lsr r1
    295c:	9d340305 	ldcls	3, cr0, [r4, #-20]!	; 0xffffffec
    2960:	3d190000 	ldccc	0, cr0, [r9, #-0]
    2964:	01000001 	tsteq	r0, r1
    2968:	0001332c 	andeq	r3, r1, ip, lsr #6
    296c:	e0030500 	and	r0, r3, r0, lsl #10
    2970:	1900009c 	stmdbne	r0, {r2, r3, r4, r7}
    2974:	00000145 	andeq	r0, r0, r5, asr #2
    2978:	01332d01 	teqeq	r3, r1, lsl #26
    297c:	03050000 	movweq	r0, #20480	; 0x5000
    2980:	00009ce4 	andeq	r9, r0, r4, ror #25
    2984:	00000019 	andeq	r0, r0, r9, lsl r0
    2988:	332e0100 	teqcc	lr, #0, 2
    298c:	05000001 	streq	r0, [r0, #-1]
    2990:	009ce803 	addseq	lr, ip, r3, lsl #16
    2994:	014d1900 	cmpeq	sp, r0, lsl #18
    2998:	2f010000 	svccs	0x00010000
    299c:	00000133 	andeq	r0, r0, r3, lsr r1
    29a0:	9cec0305 	stclls	3, cr0, [ip], #20
    29a4:	08190000 	ldmdaeq	r9, {}	; <UNPREDICTABLE>
    29a8:	01000000 	mrseq	r0, (UNDEF: 0)
    29ac:	00013330 	andeq	r3, r1, r0, lsr r3
    29b0:	f0030500 			; <UNDEFINED> instruction: 0xf0030500
    29b4:	1900009c 	stmdbne	r0, {r2, r3, r4, r7}
    29b8:	0000015e 	andeq	r0, r0, lr, asr r1
    29bc:	01333101 	teqeq	r3, r1, lsl #2
    29c0:	03050000 	movweq	r0, #20480	; 0x5000
    29c4:	00009cf4 	strdeq	r9, [r0], -r4
    29c8:	00008c19 	andeq	r8, r0, r9, lsl ip
    29cc:	33330100 	teqcc	r3, #0, 2
    29d0:	05000001 	streq	r0, [r0, #-1]
    29d4:	009cf803 	addseq	pc, ip, r3, lsl #16
    29d8:	00931900 	addseq	r1, r3, r0, lsl #18
    29dc:	34010000 	strcc	r0, [r1], #-0
    29e0:	00000133 	andeq	r0, r0, r3, lsr r1
    29e4:	9cfc0305 	ldclls	3, cr0, [ip], #20
    29e8:	3c190000 	ldccc	0, cr0, [r9], {-0}
    29ec:	01000002 	tsteq	r0, r2
    29f0:	00013336 	andeq	r3, r1, r6, lsr r3
    29f4:	00030500 	andeq	r0, r3, r0, lsl #10
    29f8:	1900009d 	stmdbne	r0, {r0, r2, r3, r4, r7}
    29fc:	0000019c 	muleq	r0, ip, r1
    2a00:	01333701 	teqeq	r3, r1, lsl #14
    2a04:	03050000 	movweq	r0, #20480	; 0x5000
    2a08:	00009d04 	andeq	r9, r0, r4, lsl #26
    2a0c:	00009a19 	andeq	r9, r0, r9, lsl sl
    2a10:	33390100 	teqcc	r9, #0, 2
    2a14:	05000001 	streq	r0, [r0, #-1]
    2a18:	009d0803 	addseq	r0, sp, r3, lsl #16
    2a1c:	00a11900 	adceq	r1, r1, r0, lsl #18
    2a20:	3a010000 	bcc	42a28 <__bss_end__+0x385b0>
    2a24:	00000133 	andeq	r0, r0, r3, lsr r1
    2a28:	9d0c0305 	stcls	3, cr0, [ip, #-20]	; 0xffffffec
    2a2c:	1e1a0000 	cdpne	0, 1, cr0, cr10, cr0, {0}
    2a30:	01000007 	tsteq	r0, r7
    2a34:	0133010a 	teqeq	r3, sl, lsl #2
    2a38:	03050000 	movweq	r0, #20480	; 0x5000
    2a3c:	00009d30 	andeq	r9, r0, r0, lsr sp
    2a40:	00072c1a 	andeq	r2, r7, sl, lsl ip
    2a44:	010b0100 	mrseq	r0, (UNDEF: 27)
    2a48:	00000133 	andeq	r0, r0, r3, lsr r1
    2a4c:	9d100305 	ldcls	3, cr0, [r0, #-20]	; 0xffffffec
    2a50:	531a0000 	tstpl	sl, #0
    2a54:	01000007 	tsteq	r0, r7
    2a58:	0133010d 	teqeq	r3, sp, lsl #2
    2a5c:	03050000 	movweq	r0, #20480	; 0x5000
    2a60:	00009d28 	andeq	r9, r0, r8, lsr #26
    2a64:	00075a1a 	andeq	r5, r7, sl, lsl sl
    2a68:	010e0100 	mrseq	r0, (UNDEF: 30)
    2a6c:	00000133 	andeq	r0, r0, r3, lsr r1
    2a70:	9d2c0305 	stcls	3, cr0, [ip, #-20]!	; 0xffffffec
    2a74:	ff1a0000 			; <UNDEFINED> instruction: 0xff1a0000
    2a78:	01000006 	tsteq	r0, r6
    2a7c:	01330110 	teqeq	r3, r0, lsl r1
    2a80:	03050000 	movweq	r0, #20480	; 0x5000
    2a84:	00009d14 	andeq	r9, r0, r4, lsl sp
    2a88:	0007061a 	andeq	r0, r7, sl, lsl r6
    2a8c:	01110100 	tsteq	r1, r0, lsl #2
    2a90:	00000133 	andeq	r0, r0, r3, lsr r1
    2a94:	9d180305 	ldcls	3, cr0, [r8, #-20]	; 0xffffffec
    2a98:	611a0000 	tstvs	sl, r0
    2a9c:	01000007 	tsteq	r0, r7
    2aa0:	01330113 	teqeq	r3, r3, lsl r1
    2aa4:	03050000 	movweq	r0, #20480	; 0x5000
    2aa8:	00009d20 	andeq	r9, r0, r0, lsr #26
    2aac:	0007681a 	andeq	r6, r7, sl, lsl r8
    2ab0:	01140100 	tsteq	r4, r0, lsl #2
    2ab4:	00000133 	andeq	r0, r0, r3, lsr r1
    2ab8:	9d240305 	stcls	3, cr0, [r4, #-20]!	; 0xffffffec
    2abc:	791a0000 	ldmdbvc	sl, {}	; <UNPREDICTABLE>
    2ac0:	01000006 	tsteq	r0, r6
    2ac4:	01330116 	teqeq	r3, r6, lsl r1
    2ac8:	03050000 	movweq	r0, #20480	; 0x5000
    2acc:	00009d1c 	andeq	r9, r0, ip, lsl sp
    2ad0:	0007801b 	andeq	r8, r7, fp, lsl r0
    2ad4:	2c200100 	stfcss	f0, [r0], #-0
    2ad8:	56000000 	strpl	r0, [r0], -r0
    2adc:	1c000008 	stcne	0, cr0, [r0], {8}
    2ae0:	00000856 	andeq	r0, r0, r6, asr r8
    2ae4:	5c040d00 	stcpl	13, cr0, [r4], {-0}
    2ae8:	1d000008 	stcne	0, cr0, [r0, #-32]	; 0xffffffe0
    2aec:	00000861 	andeq	r0, r0, r1, ror #16
    2af0:	06731f1e 	uhadd16eq	r1, r3, lr
    2af4:	1e010000 	cdpne	0, 0, cr0, cr1, cr0, {0}
    2af8:	00000878 	andeq	r0, r0, r8, ror r8
    2afc:	0008781c 	andeq	r7, r8, ip, lsl r8
    2b00:	002c1c00 	eoreq	r1, ip, r0, lsl #24
    2b04:	0d000000 	stceq	0, cr0, [r0, #-0]
    2b08:	00086104 	andeq	r6, r8, r4, lsl #2
    2b0c:	06cc2000 	strbeq	r2, [ip], r0
    2b10:	8a030000 	bhi	c2b18 <__bss_end__+0xb86a0>
    2b14:	0011f200 	andseq	pc, r1, r0, lsl #4
    2b18:	7f000400 	svcvc	0x00000400
    2b1c:	0400000d 	streq	r0, [r0], #-13
    2b20:	0002d301 	andeq	sp, r2, r1, lsl #6
    2b24:	08a20100 	stmiaeq	r2!, {r8}
    2b28:	033e0000 	teqeq	lr, #0
    2b2c:	94480000 	strbls	r0, [r8], #-0
    2b30:	06680000 	strbteq	r0, [r8], -r0
    2b34:	0bd30000 	bleq	ff4c2b3c <__bss_end__+0xff4b86c4>
    2b38:	04020000 	streq	r0, [r2], #-0
    2b3c:	746e6905 	strbtvc	r6, [lr], #-2309	; 0x905
    2b40:	07040300 	streq	r0, [r4, -r0, lsl #6]
    2b44:	0000004d 	andeq	r0, r0, sp, asr #32
    2b48:	26060103 	strcs	r0, [r6], -r3, lsl #2
    2b4c:	03000002 	movweq	r0, #2
    2b50:	02320502 	eorseq	r0, r2, #8388608	; 0x800000
    2b54:	04030000 	streq	r0, [r3], #-0
    2b58:	00007c05 	andeq	r7, r0, r5, lsl #24
    2b5c:	05080300 	streq	r0, [r8, #-768]	; 0x300
    2b60:	00000077 	andeq	r0, r0, r7, ror r0
    2b64:	00029c04 	andeq	r9, r2, r4, lsl #24
    2b68:	5a2e0300 	bpl	b83770 <__bss_end__+0xb792f8>
    2b6c:	03000000 	movweq	r0, #0
    2b70:	02240801 	eoreq	r0, r4, #65536	; 0x10000
    2b74:	02030000 	andeq	r0, r3, #0
    2b78:	00017e07 	andeq	r7, r1, r7, lsl #28
    2b7c:	057e0400 	ldrbeq	r0, [lr, #-1024]!	; 0x400
    2b80:	34030000 	strcc	r0, [r3], #-0
    2b84:	00000073 	andeq	r0, r0, r3, ror r0
    2b88:	48070403 	stmdami	r7, {r0, r1, sl}
    2b8c:	03000000 	movweq	r0, #0
    2b90:	00430708 	subeq	r0, r3, r8, lsl #14
    2b94:	04030000 	streq	r0, [r3], #-0
    2b98:	0001c007 	andeq	ip, r1, r7
    2b9c:	06040500 	streq	r0, [r4], -r0, lsl #10
    2ba0:	00009004 	andeq	r9, r0, r4
    2ba4:	08010300 	stmdaeq	r1, {r8, r9}
    2ba8:	0000022d 	andeq	r0, r0, sp, lsr #4
    2bac:	009d0406 	addseq	r0, sp, r6, lsl #8
    2bb0:	90070000 	andls	r0, r7, r0
    2bb4:	08000000 	stmdaeq	r0, {}	; <UNPREDICTABLE>
    2bb8:	d90e040c 	stmdble	lr, {r2, r3, sl}
    2bbc:	09000000 	stmdbeq	r0, {}	; <UNPREDICTABLE>
    2bc0:	04007874 	streq	r7, [r0], #-2164	; 0x874
    2bc4:	00004f0f 	andeq	r4, r0, pc, lsl #30
    2bc8:	72090000 	andvc	r0, r9, #0
    2bcc:	0f040078 	svceq	0x00040078
    2bd0:	0000004f 	andeq	r0, r0, pc, asr #32
    2bd4:	04fd0a01 	ldrbteq	r0, [sp], #2561	; 0xa01
    2bd8:	10040000 	andne	r0, r4, r0
    2bdc:	00000068 	andeq	r0, r0, r8, rrx
    2be0:	04ae0a04 	strteq	r0, [lr], #2564	; 0xa04
    2be4:	11040000 	mrsne	r0, (UNDEF: 4)
    2be8:	00000068 	andeq	r0, r0, r8, rrx
    2bec:	e6040008 	str	r0, [r4], -r8
    2bf0:	04000004 	streq	r0, [r0], #-4
    2bf4:	0000a212 	andeq	sl, r0, r2, lsl r2
    2bf8:	02b60400 	adcseq	r0, r6, #0, 8
    2bfc:	28050000 	stmdacs	r5, {}	; <UNPREDICTABLE>
    2c00:	000000ef 	andeq	r0, r0, pc, ror #1
    2c04:	0003340b 	andeq	r3, r3, fp, lsl #8
    2c08:	00090400 	andeq	r0, r9, r0, lsl #8
    2c0c:	00000106 	andeq	r0, r0, r6, lsl #2
    2c10:	0003870c 	andeq	r8, r3, ip, lsl #14
    2c14:	00008800 	andeq	r8, r0, r0, lsl #16
    2c18:	04000000 	streq	r0, [r0], #-0
    2c1c:	00000336 	andeq	r0, r0, r6, lsr r3
    2c20:	00e46205 	rsceq	r6, r4, r5, lsl #4
    2c24:	660d0000 	strvs	r0, [sp], -r0
    2c28:	02000008 	andeq	r0, r0, #8
    2c2c:	013f0309 	teqeq	pc, r9, lsl #6
    2c30:	110e0000 	mrsne	r0, (UNDEF: 14)
    2c34:	02000005 	andeq	r0, r0, #5
    2c38:	00002c09 	andeq	r2, r0, r9, lsl #24
    2c3c:	006e0f00 	rsbeq	r0, lr, r0, lsl #30
    2c40:	002c0902 	eoreq	r0, ip, r2, lsl #18
    2c44:	11100000 	tstne	r0, r0
    2c48:	0000021f 	andeq	r0, r0, pc, lsl r2
    2c4c:	002c0c02 	eoreq	r0, ip, r2, lsl #24
    2c50:	00000000 	andeq	r0, r0, r0
    2c54:	0008190d 	andeq	r1, r8, sp, lsl #18
    2c58:	03170200 	tsteq	r7, #0, 4
    2c5c:	00000176 	andeq	r0, r0, r6, ror r1
    2c60:	6e69700f 	cdpvs	0, 6, cr7, cr9, cr15, {0}
    2c64:	2c170200 	lfmcs	f0, 4, [r7], {-0}
    2c68:	0f000000 	svceq	0x00000000
    2c6c:	17020076 	smlsdxne	r2, r6, r0, r0
    2c70:	0000002c 	andeq	r0, r0, ip, lsr #32
    2c74:	0005110e 	andeq	r1, r5, lr, lsl #2
    2c78:	2c170200 	lfmcs	f0, 4, [r7], {-0}
    2c7c:	0e000000 	cdpeq	0, 0, cr0, cr0, cr0, {0}
    2c80:	0000086c 	andeq	r0, r0, ip, ror #16
    2c84:	002c1702 	eoreq	r1, ip, r2, lsl #14
    2c88:	12000000 	andne	r0, r0, #0
    2c8c:	00000522 	andeq	r0, r0, r2, lsr #10
    2c90:	94480901 	strbls	r0, [r8], #-2305	; 0x901
    2c94:	01540000 	cmpeq	r4, r0
    2c98:	9c010000 	stcls	0, cr0, [r1], {-0}
    2c9c:	00000722 	andeq	r0, r0, r2, lsr #14
    2ca0:	0004c413 	andeq	ip, r4, r3, lsl r4
    2ca4:	22090100 	andcs	r0, r9, #0, 2
    2ca8:	50000007 	andpl	r0, r0, r7
    2cac:	1400001e 	strne	r0, [r0], #-30
    2cb0:	09010063 	stmdbeq	r1, {r0, r1, r5, r6}
    2cb4:	0000005a 	andeq	r0, r0, sl, asr r0
    2cb8:	00001e71 	andeq	r1, r0, r1, ror lr
    2cbc:	00787415 	rsbseq	r7, r8, r5, lsl r4
    2cc0:	00250b01 	eoreq	r0, r5, r1, lsl #22
    2cc4:	76060000 	strvc	r0, [r6], -r0
    2cc8:	1aff0800 	bne	fffc4cd0 <__bss_end__+0xfffba858>
    2ccc:	006e169f 	mlseq	lr, pc, r6, r1	; <UNPREDICTABLE>
    2cd0:	00680c01 	rsbeq	r0, r8, r1, lsl #24
    2cd4:	1e920000 	cdpne	0, 9, cr0, cr2, cr0, {0}
    2cd8:	75160000 	ldrvc	r0, [r6, #-0]
    2cdc:	680d0100 	stmdavs	sp, {r8}
    2ce0:	a5000000 	strge	r0, [r0, #-0]
    2ce4:	1500001e 	strne	r0, [r0, #-30]
    2ce8:	0e010073 	mcreq	0, 0, r0, cr1, cr3, {3}
    2cec:	00000068 	andeq	r0, r0, r8, rrx
    2cf0:	58175401 	ldmdapl	r7, {r0, sl, ip, lr}
    2cf4:	04000094 	streq	r0, [r0], #-148	; 0x94
    2cf8:	f8000000 			; <UNDEFINED> instruction: 0xf8000000
    2cfc:	18000001 	stmdane	r0, {r0}
    2d00:	0000021f 	andeq	r0, r0, pc, lsl r2
    2d04:	002c0e01 	eoreq	r0, ip, r1, lsl #28
    2d08:	54010000 	strpl	r0, [r1], #-0
    2d0c:	013f1900 	teqeq	pc, r0, lsl #18
    2d10:	945c0000 	ldrbls	r0, [ip], #-0
    2d14:	001c0000 	andseq	r0, ip, r0
    2d18:	11010000 	mrsne	r0, (UNDEF: 1)
    2d1c:	00000275 	andeq	r0, r0, r5, ror r2
    2d20:	00016a1a 	andeq	r6, r1, sl, lsl sl
    2d24:	001ece00 	andseq	ip, lr, r0, lsl #28
    2d28:	015f1b00 	cmpeq	pc, r0, lsl #22
    2d2c:	54010000 	strpl	r0, [r1], #-0
    2d30:	0001561c 	andeq	r5, r1, ip, lsl r6
    2d34:	4b1b0000 	blmi	6c2d3c <__bss_end__+0x6b88c4>
    2d38:	01000001 	tsteq	r0, r1
    2d3c:	01111956 	tsteq	r1, r6, asr r9
    2d40:	94680000 	strbtls	r0, [r8], #-0
    2d44:	00100000 	andseq	r0, r0, r0
    2d48:	1a020000 	bne	82d50 <__bss_end__+0x788d8>
    2d4c:	0000025f 	andeq	r0, r0, pc, asr r2
    2d50:	0001281a 	andeq	r2, r1, sl, lsl r8
    2d54:	001ee100 	andseq	lr, lr, r0, lsl #2
    2d58:	011d1b00 	tsteq	sp, r0, lsl #22
    2d5c:	54010000 	strpl	r0, [r1], #-0
    2d60:	0094681d 	addseq	r6, r4, sp, lsl r8
    2d64:	00000400 	andeq	r0, r0, r0, lsl #8
    2d68:	01321e00 	teqeq	r2, r0, lsl #28
    2d6c:	1ef40000 	cdpne	0, 15, cr0, cr4, cr0, {0}
    2d70:	00000000 	andeq	r0, r0, r0
    2d74:	0094681f 	addseq	r6, r4, pc, lsl r8
    2d78:	00115900 	andseq	r5, r1, r0, lsl #18
    2d7c:	51012000 	mrspl	r2, (UNDEF: 1)
    2d80:	01203001 	teqeq	r0, r1
    2d84:	00760250 	rsbseq	r0, r6, r0, asr r2
    2d88:	3f190000 	svccc	0x00190000
    2d8c:	7c000001 	stcvc	0, cr0, [r0], {1}
    2d90:	1c000094 	stcne	0, cr0, [r0], {148}	; 0x94
    2d94:	01000000 	mrseq	r0, (UNDEF: 0)
    2d98:	0002f813 	andeq	pc, r2, r3, lsl r8	; <UNPREDICTABLE>
    2d9c:	016a1a00 	cmneq	sl, r0, lsl #20
    2da0:	1f070000 	svcne	0x00070000
    2da4:	5f1b0000 	svcpl	0x001b0000
    2da8:	01000001 	tsteq	r0, r1
    2dac:	01561a54 	cmpeq	r6, r4, asr sl
    2db0:	1f290000 	svcne	0x00290000
    2db4:	4b1b0000 	blmi	6c2dbc <__bss_end__+0x6b8944>
    2db8:	01000001 	tsteq	r0, r1
    2dbc:	01111956 	tsteq	r1, r6, asr r9
    2dc0:	94880000 	strls	r0, [r8], #0
    2dc4:	00100000 	andseq	r0, r0, r0
    2dc8:	1a020000 	bne	82dd0 <__bss_end__+0x78958>
    2dcc:	000002df 	ldrdeq	r0, [r0], -pc	; <UNPREDICTABLE>
    2dd0:	0001281a 	andeq	r2, r1, sl, lsl r8
    2dd4:	001f5a00 	andseq	r5, pc, r0, lsl #20
    2dd8:	011d1b00 	tsteq	sp, r0, lsl #22
    2ddc:	54010000 	strpl	r0, [r1], #-0
    2de0:	0094881d 	addseq	r8, r4, sp, lsl r8
    2de4:	00000400 	andeq	r0, r0, r0, lsl #8
    2de8:	01321e00 	teqeq	r2, r0, lsl #28
    2dec:	1f7c0000 	svcne	0x007c0000
    2df0:	00000000 	andeq	r0, r0, r0
    2df4:	0094881f 	addseq	r8, r4, pc, lsl r8
    2df8:	00115900 	andseq	r5, r1, r0, lsl #18
    2dfc:	51012000 	mrspl	r2, (UNDEF: 1)
    2e00:	31007704 	tstcc	r0, r4, lsl #14
    2e04:	5001201a 	andpl	r2, r1, sl, lsl r0
    2e08:	00007602 	andeq	r7, r0, r2, lsl #12
    2e0c:	013f1900 	teqeq	pc, r0, lsl #18
    2e10:	949c0000 	ldrls	r0, [ip], #0
    2e14:	001c0000 	andseq	r0, ip, r0
    2e18:	15010000 	strne	r0, [r1, #-0]
    2e1c:	00000380 	andeq	r0, r0, r0, lsl #7
    2e20:	00016a1a 	andeq	r6, r1, sl, lsl sl
    2e24:	001f8f00 	andseq	r8, pc, r0, lsl #30
    2e28:	015f1b00 	cmpeq	pc, r0, lsl #22
    2e2c:	54010000 	strpl	r0, [r1], #-0
    2e30:	0001561b 	andeq	r5, r1, fp, lsl r6
    2e34:	00770800 	rsbseq	r0, r7, r0, lsl #16
    2e38:	ff081a32 			; <UNDEFINED> instruction: 0xff081a32
    2e3c:	4b1b9f1a 	blmi	6eaaac <__bss_end__+0x6e0634>
    2e40:	01000001 	tsteq	r0, r1
    2e44:	01111956 	tsteq	r1, r6, asr r9
    2e48:	94a80000 	strtls	r0, [r8], #0
    2e4c:	00100000 	andseq	r0, r0, r0
    2e50:	1a020000 	bne	82e58 <__bss_end__+0x789e0>
    2e54:	00000367 	andeq	r0, r0, r7, ror #6
    2e58:	0001281a 	andeq	r2, r1, sl, lsl r8
    2e5c:	001fb400 	andseq	fp, pc, r0, lsl #8
    2e60:	011d1b00 	tsteq	sp, r0, lsl #22
    2e64:	54010000 	strpl	r0, [r1], #-0
    2e68:	0094a81d 	addseq	sl, r4, sp, lsl r8
    2e6c:	00000400 	andeq	r0, r0, r0, lsl #8
    2e70:	01321e00 	teqeq	r2, r0, lsl #28
    2e74:	1fd90000 	svcne	0x00d90000
    2e78:	00000000 	andeq	r0, r0, r0
    2e7c:	0094a81f 	addseq	sl, r4, pc, lsl r8
    2e80:	00115900 	andseq	r5, r1, r0, lsl #18
    2e84:	51012000 	mrspl	r2, (UNDEF: 1)
    2e88:	32007704 	andcc	r7, r0, #4, 14	; 0x100000
    2e8c:	5001201a 	andpl	r2, r1, sl, lsl r0
    2e90:	00007602 	andeq	r7, r0, r2, lsl #12
    2e94:	013f1900 	teqeq	pc, r0, lsl #18
    2e98:	94bc0000 	ldrtls	r0, [ip], #0
    2e9c:	001c0000 	andseq	r0, ip, r0
    2ea0:	17010000 	strne	r0, [r1, -r0]
    2ea4:	00000408 	andeq	r0, r0, r8, lsl #8
    2ea8:	00016a1a 	andeq	r6, r1, sl, lsl sl
    2eac:	001fec00 	andseq	lr, pc, r0, lsl #24
    2eb0:	015f1b00 	cmpeq	pc, r0, lsl #22
    2eb4:	54010000 	strpl	r0, [r1], #-0
    2eb8:	0001561b 	andeq	r5, r1, fp, lsl r6
    2ebc:	00770800 	rsbseq	r0, r7, r0, lsl #16
    2ec0:	ff081a34 			; <UNDEFINED> instruction: 0xff081a34
    2ec4:	4b1b9f1a 	blmi	6eab34 <__bss_end__+0x6e06bc>
    2ec8:	01000001 	tsteq	r0, r1
    2ecc:	01111956 	tsteq	r1, r6, asr r9
    2ed0:	94c80000 	strbls	r0, [r8], #0
    2ed4:	00100000 	andseq	r0, r0, r0
    2ed8:	1a020000 	bne	82ee0 <__bss_end__+0x78a68>
    2edc:	000003ef 	andeq	r0, r0, pc, ror #7
    2ee0:	0001281a 	andeq	r2, r1, sl, lsl r8
    2ee4:	00200e00 	eoreq	r0, r0, r0, lsl #28
    2ee8:	011d1b00 	tsteq	sp, r0, lsl #22
    2eec:	54010000 	strpl	r0, [r1], #-0
    2ef0:	0094c81d 	addseq	ip, r4, sp, lsl r8
    2ef4:	00000400 	andeq	r0, r0, r0, lsl #8
    2ef8:	01321e00 	teqeq	r2, r0, lsl #28
    2efc:	20300000 	eorscs	r0, r0, r0
    2f00:	00000000 	andeq	r0, r0, r0
    2f04:	0094c81f 	addseq	ip, r4, pc, lsl r8
    2f08:	00115900 	andseq	r5, r1, r0, lsl #18
    2f0c:	51012000 	mrspl	r2, (UNDEF: 1)
    2f10:	34007704 	strcc	r7, [r0], #-1796	; 0x704
    2f14:	5001201a 	andpl	r2, r1, sl, lsl r0
    2f18:	00007602 	andeq	r7, r0, r2, lsl #12
    2f1c:	013f1900 	teqeq	pc, r0, lsl #18
    2f20:	94dc0000 	ldrbls	r0, [ip], #0
    2f24:	001c0000 	andseq	r0, ip, r0
    2f28:	19010000 	stmdbne	r1, {}	; <UNPREDICTABLE>
    2f2c:	00000490 	muleq	r0, r0, r4
    2f30:	00016a1a 	andeq	r6, r1, sl, lsl sl
    2f34:	00204300 	eoreq	r4, r0, r0, lsl #6
    2f38:	015f1b00 	cmpeq	pc, r0, lsl #22
    2f3c:	54010000 	strpl	r0, [r1], #-0
    2f40:	0001561b 	andeq	r5, r1, fp, lsl r6
    2f44:	00770800 	rsbseq	r0, r7, r0, lsl #16
    2f48:	ff081a38 			; <UNDEFINED> instruction: 0xff081a38
    2f4c:	4b1b9f1a 	blmi	6eabbc <__bss_end__+0x6e0744>
    2f50:	01000001 	tsteq	r0, r1
    2f54:	01111956 	tsteq	r1, r6, asr r9
    2f58:	94e80000 	strbtls	r0, [r8], #0
    2f5c:	00100000 	andseq	r0, r0, r0
    2f60:	1a020000 	bne	82f68 <__bss_end__+0x78af0>
    2f64:	00000477 	andeq	r0, r0, r7, ror r4
    2f68:	0001281a 	andeq	r2, r1, sl, lsl r8
    2f6c:	00206800 	eoreq	r6, r0, r0, lsl #16
    2f70:	011d1b00 	tsteq	sp, r0, lsl #22
    2f74:	54010000 	strpl	r0, [r1], #-0
    2f78:	0094e81d 	addseq	lr, r4, sp, lsl r8
    2f7c:	00000400 	andeq	r0, r0, r0, lsl #8
    2f80:	01321e00 	teqeq	r2, r0, lsl #28
    2f84:	208d0000 	addcs	r0, sp, r0
    2f88:	00000000 	andeq	r0, r0, r0
    2f8c:	0094e81f 	addseq	lr, r4, pc, lsl r8
    2f90:	00115900 	andseq	r5, r1, r0, lsl #18
    2f94:	51012000 	mrspl	r2, (UNDEF: 1)
    2f98:	38007704 	stmdacc	r0, {r2, r8, r9, sl, ip, sp, lr}
    2f9c:	5001201a 	andpl	r2, r1, sl, lsl r0
    2fa0:	00007602 	andeq	r7, r0, r2, lsl #12
    2fa4:	013f1900 	teqeq	pc, r0, lsl #18
    2fa8:	94fc0000 	ldrbtls	r0, [ip], #0
    2fac:	001c0000 	andseq	r0, ip, r0
    2fb0:	1b010000 	blne	42fb8 <__bss_end__+0x38b40>
    2fb4:	00000518 	andeq	r0, r0, r8, lsl r5
    2fb8:	00016a1a 	andeq	r6, r1, sl, lsl sl
    2fbc:	0020a000 	eoreq	sl, r0, r0
    2fc0:	015f1b00 	cmpeq	pc, r0, lsl #22
    2fc4:	54010000 	strpl	r0, [r1], #-0
    2fc8:	0001561b 	andeq	r5, r1, fp, lsl r6
    2fcc:	00770800 	rsbseq	r0, r7, r0, lsl #16
    2fd0:	ff081a40 			; <UNDEFINED> instruction: 0xff081a40
    2fd4:	4b1b9f1a 	blmi	6eac44 <__bss_end__+0x6e07cc>
    2fd8:	01000001 	tsteq	r0, r1
    2fdc:	01111956 	tsteq	r1, r6, asr r9
    2fe0:	95080000 	strls	r0, [r8, #-0]
    2fe4:	00100000 	andseq	r0, r0, r0
    2fe8:	1a020000 	bne	82ff0 <__bss_end__+0x78b78>
    2fec:	000004ff 	strdeq	r0, [r0], -pc	; <UNPREDICTABLE>
    2ff0:	0001281a 	andeq	r2, r1, sl, lsl r8
    2ff4:	0020c700 	eoreq	ip, r0, r0, lsl #14
    2ff8:	011d1b00 	tsteq	sp, r0, lsl #22
    2ffc:	54010000 	strpl	r0, [r1], #-0
    3000:	0095081d 	addseq	r0, r5, sp, lsl r8
    3004:	00000400 	andeq	r0, r0, r0, lsl #8
    3008:	01321e00 	teqeq	r2, r0, lsl #28
    300c:	20ee0000 	rsccs	r0, lr, r0
    3010:	00000000 	andeq	r0, r0, r0
    3014:	0095081f 	addseq	r0, r5, pc, lsl r8
    3018:	00115900 	andseq	r5, r1, r0, lsl #18
    301c:	51012000 	mrspl	r2, (UNDEF: 1)
    3020:	40007704 	andmi	r7, r0, r4, lsl #14
    3024:	5001201a 	andpl	r2, r1, sl, lsl r0
    3028:	00007602 	andeq	r7, r0, r2, lsl #12
    302c:	013f1900 	teqeq	pc, r0, lsl #18
    3030:	951c0000 	ldrls	r0, [ip, #-0]
    3034:	001c0000 	andseq	r0, ip, r0
    3038:	1d010000 	stcne	0, cr0, [r1, #-0]
    303c:	000005a2 	andeq	r0, r0, r2, lsr #11
    3040:	00016a1a 	andeq	r6, r1, sl, lsl sl
    3044:	00210100 	eoreq	r0, r1, r0, lsl #2
    3048:	015f1b00 	cmpeq	pc, r0, lsl #22
    304c:	54010000 	strpl	r0, [r1], #-0
    3050:	0001561b 	andeq	r5, r1, fp, lsl r6
    3054:	00770900 	rsbseq	r0, r7, r0, lsl #18
    3058:	081a2008 	ldmdaeq	sl, {r3, sp}
    305c:	1b9f1aff 	blne	fe7c9c60 <__bss_end__+0xfe7bf7e8>
    3060:	0000014b 	andeq	r0, r0, fp, asr #2
    3064:	11195601 	tstne	r9, r1, lsl #12
    3068:	28000001 	stmdacs	r0, {r0}
    306c:	10000095 	mulne	r0, r5, r0
    3070:	02000000 	andeq	r0, r0, #0
    3074:	0005881a 	andeq	r8, r5, sl, lsl r8
    3078:	01281a00 	teqeq	r8, r0, lsl #20
    307c:	212b0000 	teqcs	fp, r0
    3080:	1d1b0000 	ldcne	0, cr0, [fp, #-0]
    3084:	01000001 	tsteq	r0, r1
    3088:	95281d54 	strls	r1, [r8, #-3412]!	; 0xd54
    308c:	00040000 	andeq	r0, r4, r0
    3090:	321e0000 	andscc	r0, lr, #0
    3094:	55000001 	strpl	r0, [r0, #-1]
    3098:	00000021 	andeq	r0, r0, r1, lsr #32
    309c:	95281f00 	strls	r1, [r8, #-3840]!	; 0xf00
    30a0:	11590000 	cmpne	r9, r0
    30a4:	01200000 	teqeq	r0, r0
    30a8:	00770551 	rsbseq	r0, r7, r1, asr r5
    30ac:	201a2008 	andscs	r2, sl, r8
    30b0:	76025001 	strvc	r5, [r2], -r1
    30b4:	19000000 	stmdbne	r0, {}	; <UNPREDICTABLE>
    30b8:	0000013f 	andeq	r0, r0, pc, lsr r1
    30bc:	0000953c 	andeq	r9, r0, ip, lsr r5
    30c0:	0000001c 	andeq	r0, r0, ip, lsl r0
    30c4:	062c1f01 	strteq	r1, [ip], -r1, lsl #30
    30c8:	6a1a0000 	bvs	6830d0 <__bss_end__+0x678c58>
    30cc:	68000001 	stmdavs	r0, {r0}
    30d0:	1b000021 	blne	315c <_start-0x4ea4>
    30d4:	0000015f 	andeq	r0, r0, pc, asr r1
    30d8:	561b5401 	ldrpl	r5, [fp], -r1, lsl #8
    30dc:	09000001 	stmdbeq	r0, {r0}
    30e0:	40080077 	andmi	r0, r8, r7, ror r0
    30e4:	1aff081a 	bne	fffc5154 <__bss_end__+0xfffbacdc>
    30e8:	014b1b9f 			; <UNDEFINED> instruction: 0x014b1b9f
    30ec:	56010000 	strpl	r0, [r1], -r0
    30f0:	00011119 	andeq	r1, r1, r9, lsl r1
    30f4:	00954800 	addseq	r4, r5, r0, lsl #16
    30f8:	00001000 	andeq	r1, r0, r0
    30fc:	121a0200 	andsne	r0, sl, #0, 4
    3100:	1a000006 	bne	3120 <_start-0x4ee0>
    3104:	00000128 	andeq	r0, r0, r8, lsr #2
    3108:	0000218a 	andeq	r2, r0, sl, lsl #3
    310c:	00011d1b 	andeq	r1, r1, fp, lsl sp
    3110:	1d540100 	ldfnee	f0, [r4, #-0]
    3114:	00009548 	andeq	r9, r0, r8, asr #10
    3118:	00000004 	andeq	r0, r0, r4
    311c:	0001321e 	andeq	r3, r1, lr, lsl r2
    3120:	0021ac00 	eoreq	sl, r1, r0, lsl #24
    3124:	1f000000 	svcne	0x00000000
    3128:	00009548 	andeq	r9, r0, r8, asr #10
    312c:	00001159 	andeq	r1, r0, r9, asr r1
    3130:	05510120 	ldrbeq	r0, [r1, #-288]	; 0x120
    3134:	40080077 	andmi	r0, r8, r7, ror r0
    3138:	5001201a 	andpl	r2, r1, sl, lsl r0
    313c:	00007602 	andeq	r7, r0, r2, lsl #12
    3140:	013f1900 	teqeq	pc, r0, lsl #18
    3144:	955c0000 	ldrbls	r0, [ip, #-0]
    3148:	001c0000 	andseq	r0, ip, r0
    314c:	21010000 	mrscs	r0, (UNDEF: 1)
    3150:	000006ac 	andeq	r0, r0, ip, lsr #13
    3154:	00016a1b 	andeq	r6, r1, fp, lsl sl
    3158:	1b580100 	blne	1603560 <__bss_end__+0x15f90e8>
    315c:	0000015f 	andeq	r0, r0, pc, asr r1
    3160:	561a5401 	ldrpl	r5, [sl], -r1, lsl #8
    3164:	bf000001 	svclt	0x00000001
    3168:	1b000021 	blne	31f4 <_start-0x4e0c>
    316c:	0000014b 	andeq	r0, r0, fp, asr #2
    3170:	11195601 	tstne	r9, r1, lsl #12
    3174:	68000001 	stmdavs	r0, {r0}
    3178:	10000095 	mulne	r0, r5, r0
    317c:	02000000 	andeq	r0, r0, #0
    3180:	0006921a 	andeq	r9, r6, sl, lsl r2
    3184:	01281b00 	teqeq	r8, r0, lsl #22
    3188:	58010000 	stmdapl	r1, {}	; <UNPREDICTABLE>
    318c:	00011d1b 	andeq	r1, r1, fp, lsl sp
    3190:	1d540100 	ldfnee	f0, [r4, #-0]
    3194:	00009568 	andeq	r9, r0, r8, ror #10
    3198:	00000004 	andeq	r0, r0, r4
    319c:	0001321e 	andeq	r3, r1, lr, lsl r2
    31a0:	0021f200 	eoreq	pc, r1, r0, lsl #4
    31a4:	1f000000 	svcne	0x00000000
    31a8:	00009568 	andeq	r9, r0, r8, ror #10
    31ac:	00001159 	andeq	r1, r0, r9, asr r1
    31b0:	05510120 	ldrbeq	r0, [r1, #-288]	; 0x120
    31b4:	80080077 	andhi	r0, r8, r7, ror r0
    31b8:	5001201a 	andpl	r2, r1, sl, lsl r0
    31bc:	00007602 	andeq	r7, r0, r2, lsl #12
    31c0:	013f2100 	teqeq	pc, r0, lsl #2
    31c4:	957c0000 	ldrbls	r0, [ip, #-0]!
    31c8:	001c0000 	andseq	r0, ip, r0
    31cc:	23010000 	movwcs	r0, #4096	; 0x1000
    31d0:	00016a1b 	andeq	r6, r1, fp, lsl sl
    31d4:	1b550100 	blne	15435dc <__bss_end__+0x1539164>
    31d8:	0000015f 	andeq	r0, r0, pc, asr r1
    31dc:	561c5401 	ldrpl	r5, [ip], -r1, lsl #8
    31e0:	01000001 	tsteq	r0, r1
    31e4:	00014b1b 	andeq	r4, r1, fp, lsl fp
    31e8:	19560100 	ldmdbne	r6, {r8}^
    31ec:	00000111 	andeq	r0, r0, r1, lsl r1
    31f0:	00009588 	andeq	r9, r0, r8, lsl #11
    31f4:	00000010 	andeq	r0, r0, r0, lsl r0
    31f8:	070b1a02 	streq	r1, [fp, -r2, lsl #20]
    31fc:	281b0000 	ldmdacs	fp, {}	; <UNPREDICTABLE>
    3200:	01000001 	tsteq	r0, r1
    3204:	011d1b55 	tsteq	sp, r5, asr fp
    3208:	54010000 	strpl	r0, [r1], #-0
    320c:	0095881d 	addseq	r8, r5, sp, lsl r8
    3210:	00000400 	andeq	r0, r0, r0, lsl #8
    3214:	01321e00 	teqeq	r2, r0, lsl #28
    3218:	22050000 	andcs	r0, r5, #0
    321c:	00000000 	andeq	r0, r0, r0
    3220:	0095881f 	addseq	r8, r5, pc, lsl r8
    3224:	00115900 	andseq	r5, r1, r0, lsl #18
    3228:	51012000 	mrspl	r2, (UNDEF: 1)
    322c:	01203101 	teqeq	r0, r1, lsl #2
    3230:	00760250 	rsbseq	r0, r6, r0, asr r2
    3234:	06000000 	streq	r0, [r0], -r0
    3238:	0000d904 	andeq	sp, r0, r4, lsl #18
    323c:	08fb2200 	ldmeq	fp!, {r9, sp}^
    3240:	27010000 	strcs	r0, [r1, -r0]
    3244:	00000025 	andeq	r0, r0, r5, lsr #32
    3248:	00076203 	andeq	r6, r7, r3, lsl #4
    324c:	78720f00 	ldmdavc	r2!, {r8, r9, sl, fp}^
    3250:	25270100 	strcs	r0, [r7, #-256]!	; 0x100
    3254:	0f000000 	svceq	0x00000000
    3258:	27010076 	smlsdxcs	r1, r6, r0, r0
    325c:	00000025 	andeq	r0, r0, r5, lsr #32
    3260:	0008880e 	andeq	r8, r8, lr, lsl #16
    3264:	2c270100 	stfcss	f0, [r7], #-0
    3268:	11000000 	mrsne	r0, (UNDEF: 0)
    326c:	00000511 	andeq	r0, r0, r1, lsl r5
    3270:	002c2801 	eoreq	r2, ip, r1, lsl #16
    3274:	23000000 	movwcs	r0, #0
    3278:	00000829 	andeq	r0, r0, r9, lsr #16
    327c:	00253401 	eoreq	r3, r5, r1, lsl #8
    3280:	959c0000 	ldrls	r0, [ip]
    3284:	01c80000 	biceq	r0, r8, r0
    3288:	9c010000 	stcls	0, cr0, [r1], {-0}
    328c:	00000b1e 	andeq	r0, r0, lr, lsl fp
    3290:	0004c413 	andeq	ip, r4, r3, lsl r4
    3294:	22340100 	eorscs	r0, r4, #0, 2
    3298:	18000007 	stmdane	r0, {r0, r1, r2}
    329c:	13000022 	movwne	r0, #34	; 0x22
    32a0:	00000888 	andeq	r0, r0, r8, lsl #17
    32a4:	00253401 	eoreq	r3, r5, r1, lsl #8
    32a8:	225d0000 	subscs	r0, sp, #0
    32ac:	72150000 	andsvc	r0, r5, #0
    32b0:	35010078 	strcc	r0, [r1, #-120]	; 0x78
    32b4:	00000025 	andeq	r0, r0, r5, lsr #32
    32b8:	73165501 	tstvc	r6, #4194304	; 0x400000
    32bc:	2c3c0100 	ldfcss	f0, [ip], #-0
    32c0:	7b000000 	blvc	32c8 <_start-0x4d38>
    32c4:	16000022 	strne	r0, [r0], -r2, lsr #32
    32c8:	3f010075 	svccc	0x00010075
    32cc:	00000068 	andeq	r0, r0, r8, rrx
    32d0:	0000228e 	andeq	r2, r0, lr, lsl #5
    32d4:	01006e16 	tsteq	r0, r6, lsl lr
    32d8:	00002c40 	andeq	r2, r0, r0, asr #24
    32dc:	0022a100 	eoreq	sl, r2, r0, lsl #2
    32e0:	00631600 	rsbeq	r1, r3, r0, lsl #12
    32e4:	002c4101 	eoreq	r4, ip, r1, lsl #2
    32e8:	22b80000 	adcscs	r0, r8, #0
    32ec:	28190000 	ldmdacs	r9, {}	; <UNPREDICTABLE>
    32f0:	b0000007 	andlt	r0, r0, r7
    32f4:	34000095 	strcc	r0, [r0], #-149	; 0x95
    32f8:	01000000 	mrseq	r0, (UNDEF: 0)
    32fc:	00083c38 	andeq	r3, r8, r8, lsr ip
    3300:	074b1a00 	strbeq	r1, [fp, -r0, lsl #20]
    3304:	22e20000 	rsccs	r0, r2, #0
    3308:	421c0000 	andsmi	r0, ip, #0
    330c:	00000007 	andeq	r0, r0, r7
    3310:	0007381b 	andeq	r3, r7, fp, lsl r8
    3314:	1d550100 	ldfnee	f0, [r5, #-0]
    3318:	000095b0 			; <UNDEFINED> instruction: 0x000095b0
    331c:	00000034 	andeq	r0, r0, r4, lsr r0
    3320:	0007561e 	andeq	r5, r7, lr, lsl r6
    3324:	00230000 	eoreq	r0, r3, r0
    3328:	95b42400 	ldrls	r2, [r4, #1024]!	; 0x400
    332c:	116f0000 	cmnne	pc, r0
    3330:	c0250000 	eorgt	r0, r5, r0
    3334:	7a000095 	bvc	3590 <_start-0x4a70>
    3338:	31000011 	tstcc	r0, r1, lsl r0
    333c:	20000008 	andcs	r0, r0, r8
    3340:	75025001 	strvc	r5, [r2, #-1]
    3344:	cc240000 	stcgt	0, cr0, [r4], #-0
    3348:	6f000095 	svcvs	0x00000095
    334c:	00000011 	andeq	r0, r0, r1, lsl r0
    3350:	95ec1700 	strbls	r1, [ip, #1792]!	; 0x700
    3354:	00040000 	andeq	r0, r4, r0
    3358:	08590000 	ldmdaeq	r9, {}^	; <UNPREDICTABLE>
    335c:	1f260000 	svcne	0x00260000
    3360:	01000002 	tsteq	r0, r2
    3364:	00002c3c 	andeq	r2, r0, ip, lsr ip
    3368:	00231e00 	eoreq	r1, r3, r0, lsl #28
    336c:	11190000 	tstne	r9, r0
    3370:	f8000001 			; <UNDEFINED> instruction: 0xf8000001
    3374:	10000095 	mulne	r0, r5, r0
    3378:	01000000 	mrseq	r0, (UNDEF: 0)
    337c:	00089244 	andeq	r9, r8, r4, asr #4
    3380:	01281a00 	teqeq	r8, r0, lsl #20
    3384:	23310000 	teqcs	r1, #0
    3388:	1d1a0000 	ldcne	0, cr0, [sl, #-0]
    338c:	56000001 	strpl	r0, [r0], -r1
    3390:	1d000023 	stcne	0, cr0, [r0, #-140]	; 0xffffff74
    3394:	000095f8 	strdeq	r9, [r0], -r8
    3398:	00000004 	andeq	r0, r0, r4
    339c:	0001321e 	andeq	r3, r1, lr, lsl r2
    33a0:	00236900 	eoreq	r6, r3, r0, lsl #18
    33a4:	19000000 	stmdbne	r0, {}	; <UNPREDICTABLE>
    33a8:	00000111 	andeq	r0, r0, r1, lsl r1
    33ac:	00009618 	andeq	r9, r0, r8, lsl r6
    33b0:	00000010 	andeq	r0, r0, r0, lsl r0
    33b4:	08cb4801 	stmiaeq	fp, {r0, fp, lr}^
    33b8:	281a0000 	ldmdacs	sl, {}	; <UNPREDICTABLE>
    33bc:	7c000001 	stcvc	0, cr0, [r0], {1}
    33c0:	1a000023 	bne	3454 <_start-0x4bac>
    33c4:	0000011d 	andeq	r0, r0, sp, lsl r1
    33c8:	0000238f 	andeq	r2, r0, pc, lsl #7
    33cc:	0096181d 	addseq	r1, r6, sp, lsl r8
    33d0:	00000400 	andeq	r0, r0, r0, lsl #8
    33d4:	01321e00 	teqeq	r2, r0, lsl #28
    33d8:	23a20000 			; <UNDEFINED> instruction: 0x23a20000
    33dc:	00000000 	andeq	r0, r0, r0
    33e0:	00011119 	andeq	r1, r1, r9, lsl r1
    33e4:	00963c00 	addseq	r3, r6, r0, lsl #24
    33e8:	00001000 	andeq	r1, r0, r0
    33ec:	044b0100 	strbeq	r0, [fp], #-256	; 0x100
    33f0:	1a000009 	bne	341c <_start-0x4be4>
    33f4:	00000128 	andeq	r0, r0, r8, lsr #2
    33f8:	000023b5 			; <UNDEFINED> instruction: 0x000023b5
    33fc:	00011d1a 	andeq	r1, r1, sl, lsl sp
    3400:	0023c800 	eoreq	ip, r3, r0, lsl #16
    3404:	963c1d00 	ldrtls	r1, [ip], -r0, lsl #26
    3408:	00040000 	andeq	r0, r4, r0
    340c:	321e0000 	andscc	r0, lr, #0
    3410:	db000001 	blle	341c <_start-0x4be4>
    3414:	00000023 	andeq	r0, r0, r3, lsr #32
    3418:	01111900 	tsteq	r1, r0, lsl #18
    341c:	96600000 	strbtls	r0, [r0], -r0
    3420:	00100000 	andseq	r0, r0, r0
    3424:	4e010000 	cdpmi	0, 0, cr0, cr1, cr0, {0}
    3428:	0000093d 	andeq	r0, r0, sp, lsr r9
    342c:	0001281a 	andeq	r2, r1, sl, lsl r8
    3430:	0023ee00 	eoreq	lr, r3, r0, lsl #28
    3434:	011d1a00 	tsteq	sp, r0, lsl #20
    3438:	24010000 	strcs	r0, [r1], #-0
    343c:	601d0000 	andsvs	r0, sp, r0
    3440:	04000096 	streq	r0, [r0], #-150	; 0x96
    3444:	1e000000 	cdpne	0, 0, cr0, cr0, cr0, {0}
    3448:	00000132 	andeq	r0, r0, r2, lsr r1
    344c:	00002414 	andeq	r2, r0, r4, lsl r4
    3450:	11190000 	tstne	r9, r0
    3454:	84000001 	strhi	r0, [r0], #-1
    3458:	10000096 	mulne	r0, r6, r0
    345c:	01000000 	mrseq	r0, (UNDEF: 0)
    3460:	00097651 	andeq	r7, r9, r1, asr r6
    3464:	01281a00 	teqeq	r8, r0, lsl #20
    3468:	24270000 	strtcs	r0, [r7], #-0
    346c:	1d1a0000 	ldcne	0, cr0, [sl, #-0]
    3470:	3a000001 	bcc	347c <_start-0x4b84>
    3474:	1d000024 	stcne	0, cr0, [r0, #-144]	; 0xffffff70
    3478:	00009684 	andeq	r9, r0, r4, lsl #13
    347c:	00000004 	andeq	r0, r0, r4
    3480:	0001321e 	andeq	r3, r1, lr, lsl r2
    3484:	00244d00 	eoreq	r4, r4, r0, lsl #26
    3488:	19000000 	stmdbne	r0, {}	; <UNPREDICTABLE>
    348c:	00000111 	andeq	r0, r0, r1, lsl r1
    3490:	000096a8 	andeq	r9, r0, r8, lsr #13
    3494:	00000010 	andeq	r0, r0, r0, lsl r0
    3498:	09af5401 	stmibeq	pc!, {r0, sl, ip, lr}	; <UNPREDICTABLE>
    349c:	281a0000 	ldmdacs	sl, {}	; <UNPREDICTABLE>
    34a0:	60000001 	andvs	r0, r0, r1
    34a4:	1a000024 	bne	353c <_start-0x4ac4>
    34a8:	0000011d 	andeq	r0, r0, sp, lsl r1
    34ac:	00002473 	andeq	r2, r0, r3, ror r4
    34b0:	0096a81d 	addseq	sl, r6, sp, lsl r8
    34b4:	00000400 	andeq	r0, r0, r0, lsl #8
    34b8:	01321e00 	teqeq	r2, r0, lsl #28
    34bc:	24860000 	strcs	r0, [r6], #0
    34c0:	00000000 	andeq	r0, r0, r0
    34c4:	00011119 	andeq	r1, r1, r9, lsl r1
    34c8:	0096cc00 	addseq	ip, r6, r0, lsl #24
    34cc:	00001000 	andeq	r1, r0, r0
    34d0:	e8570100 	ldmda	r7, {r8}^
    34d4:	1a000009 	bne	3500 <_start-0x4b00>
    34d8:	00000128 	andeq	r0, r0, r8, lsr #2
    34dc:	00002499 	muleq	r0, r9, r4
    34e0:	00011d1a 	andeq	r1, r1, sl, lsl sp
    34e4:	0024ac00 	eoreq	sl, r4, r0, lsl #24
    34e8:	96cc1d00 	strbls	r1, [ip], r0, lsl #26
    34ec:	00040000 	andeq	r0, r4, r0
    34f0:	321e0000 	andscc	r0, lr, #0
    34f4:	bf000001 	svclt	0x00000001
    34f8:	00000024 	andeq	r0, r0, r4, lsr #32
    34fc:	01111900 	tsteq	r1, r0, lsl #18
    3500:	96f00000 	ldrbtls	r0, [r0], r0
    3504:	00100000 	andseq	r0, r0, r0
    3508:	5a010000 	bpl	43510 <__bss_end__+0x39098>
    350c:	00000a1d 	andeq	r0, r0, sp, lsl sl
    3510:	0001281a 	andeq	r2, r1, sl, lsl r8
    3514:	0024d200 	eoreq	sp, r4, r0, lsl #4
    3518:	011d2700 	tsteq	sp, r0, lsl #14
    351c:	f01d0000 			; <UNDEFINED> instruction: 0xf01d0000
    3520:	04000096 	streq	r0, [r0], #-150	; 0x96
    3524:	1e000000 	cdpne	0, 0, cr0, cr0, cr0, {0}
    3528:	00000132 	andeq	r0, r0, r2, lsr r1
    352c:	000024e5 	andeq	r2, r0, r5, ror #9
    3530:	28190000 	ldmdacs	r9, {}	; <UNPREDICTABLE>
    3534:	10000007 	andne	r0, r0, r7
    3538:	34000097 	strcc	r0, [r0], #-151	; 0x97
    353c:	01000000 	mrseq	r0, (UNDEF: 0)
    3540:	000a8161 	andeq	r8, sl, r1, ror #2
    3544:	074b2700 	strbeq	r2, [fp, -r0, lsl #14]
    3548:	421a0000 	andsmi	r0, sl, #0
    354c:	f8000007 			; <UNDEFINED> instruction: 0xf8000007
    3550:	1a000024 	bne	35e8 <_start-0x4a18>
    3554:	00000738 	andeq	r0, r0, r8, lsr r7
    3558:	00002518 	andeq	r2, r0, r8, lsl r5
    355c:	0097101d 	addseq	r1, r7, sp, lsl r0
    3560:	00003400 	andeq	r3, r0, r0, lsl #8
    3564:	07561e00 	ldrbeq	r1, [r6, -r0, lsl #28]
    3568:	25360000 	ldrcs	r0, [r6, #-0]!
    356c:	14240000 	strtne	r0, [r4], #-0
    3570:	6f000097 	svcvs	0x00000097
    3574:	25000011 	strcs	r0, [r0, #-17]
    3578:	00009720 	andeq	r9, r0, r0, lsr #14
    357c:	0000117a 	andeq	r1, r0, sl, ror r1
    3580:	00000a76 	andeq	r0, r0, r6, ror sl
    3584:	02500120 	subseq	r0, r0, #32, 2
    3588:	24000075 	strcs	r0, [r0], #-117	; 0x75
    358c:	0000972c 	andeq	r9, r0, ip, lsr #14
    3590:	0000116f 	andeq	r1, r0, pc, ror #2
    3594:	14250000 	strtne	r0, [r5], #-0
    3598:	7a000096 	bvc	37f8 <_start-0x4808>
    359c:	95000011 	strls	r0, [r0, #-17]
    35a0:	2000000a 	andcs	r0, r0, sl
    35a4:	75025001 	strvc	r5, [r2, #-1]
    35a8:	34250000 	strtcc	r0, [r5], #-0
    35ac:	7a000096 	bvc	380c <_start-0x47f4>
    35b0:	a9000011 	stmdbge	r0, {r0, r4}
    35b4:	2000000a 	andcs	r0, r0, sl
    35b8:	75025001 	strvc	r5, [r2, #-1]
    35bc:	58250000 	stmdapl	r5!, {}	; <UNPREDICTABLE>
    35c0:	7a000096 	bvc	3820 <_start-0x47e0>
    35c4:	bd000011 	stclt	0, cr0, [r0, #-68]	; 0xffffffbc
    35c8:	2000000a 	andcs	r0, r0, sl
    35cc:	75025001 	strvc	r5, [r2, #-1]
    35d0:	7c250000 	stcvc	0, cr0, [r5], #-0
    35d4:	7a000096 	bvc	3834 <_start-0x47cc>
    35d8:	d1000011 	tstle	r0, r1, lsl r0
    35dc:	2000000a 	andcs	r0, r0, sl
    35e0:	75025001 	strvc	r5, [r2, #-1]
    35e4:	a0250000 	eorge	r0, r5, r0
    35e8:	7a000096 	bvc	3848 <_start-0x47b8>
    35ec:	e5000011 	str	r0, [r0, #-17]
    35f0:	2000000a 	andcs	r0, r0, sl
    35f4:	75025001 	strvc	r5, [r2, #-1]
    35f8:	c4250000 	strtgt	r0, [r5], #-0
    35fc:	7a000096 	bvc	385c <_start-0x47a4>
    3600:	f9000011 			; <UNDEFINED> instruction: 0xf9000011
    3604:	2000000a 	andcs	r0, r0, sl
    3608:	75025001 	strvc	r5, [r2, #-1]
    360c:	e8250000 	stmda	r5!, {}	; <UNPREDICTABLE>
    3610:	7a000096 	bvc	3870 <_start-0x4790>
    3614:	0d000011 	stceq	0, cr0, [r0, #-68]	; 0xffffffbc
    3618:	2000000b 	andcs	r0, r0, fp
    361c:	75025001 	strvc	r5, [r2, #-1]
    3620:	081f0000 	ldmdaeq	pc, {}	; <UNPREDICTABLE>
    3624:	7a000097 	bvc	3888 <_start-0x4778>
    3628:	20000011 	andcs	r0, r0, r1, lsl r0
    362c:	75025001 	strvc	r5, [r2, #-1]
    3630:	23000000 	movwcs	r0, #0
    3634:	0000083e 	andeq	r0, r0, lr, lsr r8
    3638:	00256c01 	eoreq	r6, r5, r1, lsl #24
    363c:	97640000 	strbls	r0, [r4, -r0]!
    3640:	00a40000 	adceq	r0, r4, r0
    3644:	9c010000 	stcls	0, cr0, [r1], {-0}
    3648:	00000c0c 	andeq	r0, r0, ip, lsl #24
    364c:	01007514 	tsteq	r0, r4, lsl r5
    3650:	0007226c 	andeq	r2, r7, ip, ror #4
    3654:	00255400 	eoreq	r5, r5, r0, lsl #8
    3658:	75621400 	strbvc	r1, [r2, #-1024]!	; 0x400
    365c:	6c010066 	stcvs	0, cr0, [r1], {102}	; 0x66
    3660:	00000c0c 	andeq	r0, r0, ip, lsl #24
    3664:	00002596 	muleq	r0, r6, r5
    3668:	0008d013 	andeq	sp, r8, r3, lsl r0
    366c:	686c0100 	stmdavs	ip!, {r8}^
    3670:	d8000000 	stmdale	r0, {}	; <UNPREDICTABLE>
    3674:	14000025 	strne	r0, [r0], #-37	; 0x25
    3678:	00646e65 	rsbeq	r6, r4, r5, ror #28
    367c:	004f6c01 	subeq	r6, pc, r1, lsl #24
    3680:	261f0000 	ldrcs	r0, [pc], -r0
    3684:	d7280000 	strle	r0, [r8, -r0]!
    3688:	01000008 	tsteq	r0, r8
    368c:	0000686c 	andeq	r6, r0, ip, ror #16
    3690:	00910200 	addseq	r0, r1, r0, lsl #4
    3694:	00017129 	andeq	r7, r1, r9, lsr #2
    3698:	000c2200 	andeq	r2, ip, r0, lsl #4
    369c:	50030500 	andpl	r0, r3, r0, lsl #10
    36a0:	1600009f 			; <UNDEFINED> instruction: 0x1600009f
    36a4:	70010069 	andvc	r0, r1, r9, rrx
    36a8:	00000025 	andeq	r0, r0, r5, lsr #32
    36ac:	00002659 	andeq	r2, r0, r9, asr r6
    36b0:	0008b326 	andeq	fp, r8, r6, lsr #6
    36b4:	4f710100 	svcmi	0x00710100
    36b8:	83000000 	movwhi	r0, #0
    36bc:	24000026 	strcs	r0, [r0], #-38	; 0x26
    36c0:	00009788 	andeq	r9, r0, r8, lsl #15
    36c4:	0000118f 	andeq	r1, r0, pc, lsl #3
    36c8:	0097a425 	addseq	sl, r7, r5, lsr #8
    36cc:	00119600 	andseq	r9, r1, r0, lsl #12
    36d0:	000bec00 	andeq	lr, fp, r0, lsl #24
    36d4:	53012000 	movwpl	r2, #4096	; 0x1000
    36d8:	206d0802 	rsbcs	r0, sp, r2, lsl #16
    36dc:	03055201 	movweq	r5, #20993	; 0x5201
    36e0:	00009f50 	andeq	r9, r0, r0, asr pc
    36e4:	05510120 	ldrbeq	r0, [r1, #-288]	; 0x120
    36e8:	009fc803 	addseq	ip, pc, r3, lsl #16
    36ec:	50012000 	andpl	r2, r1, r0
    36f0:	9e500305 	cdpls	3, 5, cr0, cr0, cr5, {0}
    36f4:	02200000 	eoreq	r0, r0, #0
    36f8:	0305007d 	movweq	r0, #20605	; 0x507d
    36fc:	00009fdc 	ldrdeq	r9, [r0], -ip
    3700:	97a82400 	strls	r2, [r8, r0, lsl #8]!
    3704:	11ac0000 			; <UNDEFINED> instruction: 0x11ac0000
    3708:	c41f0000 	ldrgt	r0, [pc], #-0	; 3710 <_start-0x48f0>
    370c:	62000097 	andvs	r0, r0, #151	; 0x97
    3710:	20000007 	andcs	r0, r0, r7
    3714:	7a025101 	bvc	97b20 <__bss_end__+0x8d6a8>
    3718:	50012000 	andpl	r2, r1, r0
    371c:	00007802 	andeq	r7, r0, r2, lsl #16
    3720:	4f040600 	svcmi	0x00040600
    3724:	2a000000 	bcs	372c <_start-0x48d4>
    3728:	00000090 	muleq	r0, r0, r0
    372c:	00000c22 	andeq	r0, r0, r2, lsr #24
    3730:	0000812b 	andeq	r8, r0, fp, lsr #2
    3734:	07001200 	streq	r1, [r0, -r0, lsl #4]
    3738:	00000c12 	andeq	r0, r0, r2, lsl ip
    373c:	0008bb23 	andeq	fp, r8, r3, lsr #22
    3740:	25800100 	strcs	r0, [r0, #256]	; 0x100
    3744:	08000000 	stmdaeq	r0, {}	; <UNPREDICTABLE>
    3748:	90000098 	mulls	r0, r8, r0
    374c:	01000000 	mrseq	r0, (UNDEF: 0)
    3750:	000cf89c 	muleq	ip, ip, r8
    3754:	00751400 	rsbseq	r1, r5, r0, lsl #8
    3758:	07228001 	streq	r8, [r2, -r1]!
    375c:	26960000 	ldrcs	r0, [r6], r0
    3760:	62140000 	andsvs	r0, r4, #0
    3764:	01006675 	tsteq	r0, r5, ror r6
    3768:	000c0c80 	andeq	r0, ip, r0, lsl #25
    376c:	0026d800 	eoreq	sp, r6, r0, lsl #16
    3770:	08d01300 	ldmeq	r0, {r8, r9, ip}^
    3774:	81010000 	mrshi	r0, (UNDEF: 1)
    3778:	00000068 	andeq	r0, r0, r8, rrx
    377c:	0000271a 	andeq	r2, r0, sl, lsl r7
    3780:	0008d713 	andeq	sp, r8, r3, lsl r7
    3784:	68810100 	stmvs	r1, {r8}
    3788:	61000000 	mrsvs	r0, (UNDEF: 0)
    378c:	29000027 	stmdbcs	r0, {r0, r1, r2, r5}
    3790:	00000171 	andeq	r0, r0, r1, ror r1
    3794:	00000d08 	andeq	r0, r0, r8, lsl #26
    3798:	9f640305 	svcls	0x00640305
    379c:	69160000 	ldmdbvs	r6, {}	; <UNPREDICTABLE>
    37a0:	25860100 	strcs	r0, [r6, #256]	; 0x100
    37a4:	a3000000 	movwge	r0, #0
    37a8:	24000027 	strcs	r0, [r0], #-39	; 0x27
    37ac:	00009828 	andeq	r9, r0, r8, lsr #16
    37b0:	0000118f 	andeq	r1, r0, pc, lsl #3
    37b4:	00984425 	addseq	r4, r8, r5, lsr #8
    37b8:	00119600 	andseq	r9, r1, r0, lsl #12
    37bc:	000cd800 	andeq	sp, ip, r0, lsl #16
    37c0:	53012000 	movwpl	r2, #4096	; 0x1000
    37c4:	20830802 	addcs	r0, r3, r2, lsl #16
    37c8:	03055201 	movweq	r5, #20993	; 0x5201
    37cc:	00009f64 	andeq	r9, r0, r4, ror #30
    37d0:	05510120 	ldrbeq	r0, [r1, #-288]	; 0x120
    37d4:	009fc803 	addseq	ip, pc, r3, lsl #16
    37d8:	50012000 	andpl	r2, r1, r0
    37dc:	9e500305 	cdpls	3, 5, cr0, cr0, cr5, {0}
    37e0:	02200000 	eoreq	r0, r0, #0
    37e4:	0305007d 	movweq	r0, #20605	; 0x507d
    37e8:	00009fdc 	ldrdeq	r9, [r0], -ip
    37ec:	98482400 	stmdals	r8, {sl, sp}^
    37f0:	11ac0000 			; <UNDEFINED> instruction: 0x11ac0000
    37f4:	641f0000 	ldrvs	r0, [pc], #-0	; 37fc <_start-0x4804>
    37f8:	62000098 	andvs	r0, r0, #152	; 0x98
    37fc:	20000007 	andcs	r0, r0, r7
    3800:	78025101 	stmdavc	r2, {r0, r8, ip, lr}
    3804:	50012000 	andpl	r2, r1, r0
    3808:	00007702 	andeq	r7, r0, r2, lsl #14
    380c:	00902a00 	addseq	r2, r0, r0, lsl #20
    3810:	0d080000 	stceq	0, cr0, [r8, #-0]
    3814:	812b0000 	teqhi	fp, r0
    3818:	14000000 	strne	r0, [r0], #-0
    381c:	0cf80700 	ldcleq	7, cr0, [r8]
    3820:	74230000 	strtvc	r0, [r3], #-0
    3824:	01000008 	tsteq	r0, r8
    3828:	0000d993 	muleq	r0, r3, r9
    382c:	00989800 	addseq	r9, r8, r0, lsl #16
    3830:	0000d400 	andeq	sp, r0, r0, lsl #8
    3834:	329c0100 	addscc	r0, ip, #0, 2
    3838:	1400000e 	strne	r0, [r0], #-14
    383c:	01007874 	tsteq	r0, r4, ror r8
    3840:	00004f93 	muleq	r0, r3, pc	; <UNPREDICTABLE>
    3844:	0027cd00 	eoreq	ip, r7, r0, lsl #26
    3848:	78721400 	ldmdavc	r2!, {sl, ip}^
    384c:	4f930100 	svcmi	0x00930100
    3850:	ee000000 	cdp	0, 0, cr0, cr0, cr0, {0}
    3854:	13000027 	movwne	r0, #39	; 0x27
    3858:	000004fd 	strdeq	r0, [r0], -sp
    385c:	00689301 	rsbeq	r9, r8, r1, lsl #6
    3860:	280f0000 	stmdacs	pc, {}	; <UNPREDICTABLE>
    3864:	0d280000 	stceq	0, cr0, [r8, #-0]
    3868:	01000008 	tsteq	r0, r8
    386c:	00006893 	muleq	r0, r3, r8
    3870:	00910200 	addseq	r0, r1, r0, lsl #4
    3874:	7a686d2c 	bvc	1a1ed2c <__bss_end__+0x1a148b4>
    3878:	2c9b0100 	ldfcss	f0, [fp], {0}
    387c:	00000000 	andeq	r0, r0, r0
    3880:	2629b927 	strtcs	fp, [r9], -r7, lsr #18
    3884:	0000085e 	andeq	r0, r0, lr, asr r8
    3888:	002c9c01 	eoreq	r9, ip, r1, lsl #24
    388c:	28390000 	ldmdacs	r9!, {}	; <UNPREDICTABLE>
    3890:	71290000 	teqvc	r9, r0
    3894:	42000001 	andmi	r0, r0, #1
    3898:	0500000e 	streq	r0, [r0, #-14]
    389c:	009f7c03 	addseq	r7, pc, r3, lsl #24
    38a0:	98c41700 	stmials	r4, {r8, r9, sl, ip}^
    38a4:	00080000 	andeq	r0, r8, r0
    38a8:	0da50000 	stceq	0, cr0, [r5]
    38ac:	692d0000 	pushvs	{}	; <UNPREDICTABLE>
    38b0:	9701006e 	strls	r0, [r1, -lr, rrx]
    38b4:	0000002c 	andeq	r0, r0, ip, lsr #32
    38b8:	bc250001 	stclt	0, cr0, [r5], #-4
    38bc:	b3000098 	movwlt	r0, #152	; 0x98
    38c0:	b9000011 	stmdblt	r0, {r0, r4}
    38c4:	2000000d 	andcs	r0, r0, sp
    38c8:	76025001 	strvc	r5, [r2], -r1
    38cc:	c4250000 	strtgt	r0, [r5], #-0
    38d0:	c4000098 	strgt	r0, [r0], #-152	; 0x98
    38d4:	cd000011 	stcgt	0, cr0, [r0, #-68]	; 0xffffffbc
    38d8:	2000000d 	andcs	r0, r0, sp
    38dc:	78025001 	stmdavc	r2, {r0, ip, lr}
    38e0:	d8250000 	stmdale	r5!, {}	; <UNPREDICTABLE>
    38e4:	59000098 	stmdbpl	r0, {r3, r4, r7}
    38e8:	e6000011 			; <UNDEFINED> instruction: 0xe6000011
    38ec:	2000000d 	andcs	r0, r0, sp
    38f0:	31015101 	tstcc	r1, r1, lsl #2
    38f4:	02500120 	subseq	r0, r0, #32, 2
    38f8:	24000076 	strcs	r0, [r0], #-118	; 0x76
    38fc:	0000991c 	andeq	r9, r0, ip, lsl r9
    3900:	0000118f 	andeq	r1, r0, pc, lsl #3
    3904:	00993825 	addseq	r3, r9, r5, lsr #16
    3908:	00119600 	andseq	r9, r1, r0, lsl #12
    390c:	000e2800 	andeq	r2, lr, r0, lsl #16
    3910:	53012000 	movwpl	r2, #4096	; 0x1000
    3914:	209d0802 	addscs	r0, sp, r2, lsl #16
    3918:	03055201 	movweq	r5, #20993	; 0x5201
    391c:	00009f7c 	andeq	r9, r0, ip, ror pc
    3920:	05510120 	ldrbeq	r0, [r1, #-288]	; 0x120
    3924:	009fc803 	addseq	ip, pc, r3, lsl #16
    3928:	50012000 	andpl	r2, r1, r0
    392c:	9e500305 	cdpls	3, 5, cr0, cr0, cr5, {0}
    3930:	02200000 	eoreq	r0, r0, #0
    3934:	0305007d 	movweq	r0, #20605	; 0x507d
    3938:	00009fe8 	andeq	r9, r0, r8, ror #31
    393c:	993c2400 	ldmdbls	ip!, {sl, sp}
    3940:	11ac0000 			; <UNDEFINED> instruction: 0x11ac0000
    3944:	2a000000 	bcs	394c <_start-0x46b4>
    3948:	00000090 	muleq	r0, r0, r0
    394c:	00000e42 	andeq	r0, r0, r2, asr #28
    3950:	0000812b 	andeq	r8, r0, fp, lsr #2
    3954:	07001300 	streq	r1, [r0, -r0, lsl #6]
    3958:	00000e32 	andeq	r0, r0, r2, lsr lr
    395c:	00085123 	andeq	r5, r8, r3, lsr #2
    3960:	25a90100 	strcs	r0, [r9, #256]!	; 0x100
    3964:	6c000000 	stcvs	0, cr0, [r0], {-0}
    3968:	3c000099 	stccc	0, cr0, [r0], {153}	; 0x99
    396c:	01000000 	mrseq	r0, (UNDEF: 0)
    3970:	000eea9c 	muleq	lr, ip, sl
    3974:	04c41300 	strbeq	r1, [r4], #768	; 0x300
    3978:	a9010000 	stmdbge	r1, {}	; <UNPREDICTABLE>
    397c:	00000722 	andeq	r0, r0, r2, lsr #14
    3980:	00002867 	andeq	r2, r0, r7, ror #16
    3984:	73657216 	cmnvc	r5, #1610612737	; 0x60000001
    3988:	25aa0100 	strcs	r0, [sl, #256]!	; 0x100
    398c:	88000000 	stmdahi	r0, {}	; <UNPREDICTABLE>
    3990:	29000028 	stmdbcs	r0, {r3, r5}
    3994:	00000171 	andeq	r0, r0, r1, ror r1
    3998:	00000efa 	strdeq	r0, [r0], -sl
    399c:	9f900305 	svcls	0x00900305
    39a0:	78250000 	stmdavc	r5!, {}	; <UNPREDICTABLE>
    39a4:	62000099 	andvs	r0, r0, #153	; 0x99
    39a8:	a8000007 	stmdage	r0, {r0, r1, r2}
    39ac:	2000000e 	andcs	r0, r0, lr
    39b0:	09025101 	stmdbeq	r2, {r0, r8, ip, lr}
    39b4:	500120ff 	strdpl	r2, [r1], -pc	; <UNPREDICTABLE>
    39b8:	5001f303 	andpl	pc, r1, r3, lsl #6
    39bc:	99842400 	stmibls	r4, {sl, sp}
    39c0:	118f0000 	orrne	r0, pc, r0
    39c4:	98250000 	stmdals	r5!, {}	; <UNPREDICTABLE>
    39c8:	96000099 			; <UNDEFINED> instruction: 0x96000099
    39cc:	e0000011 	and	r0, r0, r1, lsl r0
    39d0:	2000000e 	andcs	r0, r0, lr
    39d4:	08025301 	stmdaeq	r2, {r0, r8, r9, ip, lr}
    39d8:	520120ac 	andpl	r2, r1, #172	; 0xac
    39dc:	9f900305 	svcls	0x00900305
    39e0:	01200000 	teqeq	r0, r0
    39e4:	c8030551 	stmdagt	r3, {r0, r4, r6, r8, sl}
    39e8:	2000009f 	mulcs	r0, pc, r0	; <UNPREDICTABLE>
    39ec:	03055001 	movweq	r5, #20481	; 0x5001
    39f0:	0000a01c 	andeq	sl, r0, ip, lsl r0
    39f4:	999c2400 	ldmibls	ip, {sl, sp}
    39f8:	11ac0000 			; <UNDEFINED> instruction: 0x11ac0000
    39fc:	2a000000 	bcs	3a04 <_start-0x45fc>
    3a00:	00000090 	muleq	r0, r0, r0
    3a04:	00000efa 	strdeq	r0, [r0], -sl
    3a08:	0000812b 	andeq	r8, r0, fp, lsr #2
    3a0c:	07000c00 	streq	r0, [r0, -r0, lsl #24]
    3a10:	00000eea 	andeq	r0, r0, sl, ror #29
    3a14:	00089512 	andeq	r9, r8, r2, lsl r5
    3a18:	a8b00100 	ldmge	r0!, {r8}
    3a1c:	2c000099 	stccs	0, cr0, [r0], {153}	; 0x99
    3a20:	01000000 	mrseq	r0, (UNDEF: 0)
    3a24:	000f439c 	muleq	pc, ip, r3	; <UNPREDICTABLE>
    3a28:	04c41300 	strbeq	r1, [r4], #768	; 0x300
    3a2c:	b0010000 	andlt	r0, r1, r0
    3a30:	00000722 	andeq	r0, r0, r2, lsr #14
    3a34:	0000289b 	muleq	r0, fp, r8
    3a38:	67736d14 			; <UNDEFINED> instruction: 0x67736d14
    3a3c:	97b00100 	ldrls	r0, [r0, r0, lsl #2]!
    3a40:	b9000000 	stmdblt	r0, {}	; <UNPREDICTABLE>
    3a44:	1f000028 	svcne	0x00000028
    3a48:	000099c0 	andeq	r9, r0, r0, asr #19
    3a4c:	00000176 	andeq	r0, r0, r6, ror r1
    3a50:	02500120 	subseq	r0, r0, #32, 2
    3a54:	00000075 	andeq	r0, r0, r5, ror r0
    3a58:	0004c923 	andeq	ip, r4, r3, lsr #18
    3a5c:	25b90100 	ldrcs	r0, [r9, #256]!	; 0x100
    3a60:	d4000000 	strle	r0, [r0], #-0
    3a64:	90000099 	mulls	r0, r9, r0
    3a68:	01000000 	mrseq	r0, (UNDEF: 0)
    3a6c:	0010419c 	mulseq	r0, ip, r1
    3a70:	04c41300 	strbeq	r1, [r4], #768	; 0x300
    3a74:	b9010000 	stmdblt	r1, {}	; <UNPREDICTABLE>
    3a78:	00000722 	andeq	r0, r0, r2, lsr #14
    3a7c:	000028d7 	ldrdeq	r2, [r0], -r7
    3a80:	746d662e 	strbtvc	r6, [sp], #-1582	; 0x62e
    3a84:	97b90100 	ldrls	r0, [r9, r0, lsl #2]!
    3a88:	02000000 	andeq	r0, r0, #0
    3a8c:	152f7491 	strne	r7, [pc, #-1169]!	; 3603 <_start-0x49fd>
    3a90:	00667562 	rsbeq	r7, r6, r2, ror #10
    3a94:	1041ba01 	subne	fp, r1, r1, lsl #20
    3a98:	91030000 	mrsls	r0, (UNDEF: 3)
    3a9c:	82187c9c 	andshi	r7, r8, #156, 24	; 0x9c00
    3aa0:	01000003 	tsteq	r0, r3
    3aa4:	000106bc 			; <UNDEFINED> instruction: 0x000106bc
    3aa8:	98910300 	ldmls	r1, {r8, r9}
    3aac:	7a73167c 	bvc	1cc94a4 <__bss_end__+0x1cbf02c>
    3ab0:	25be0100 	ldrcs	r0, [lr, #256]!	; 0x100
    3ab4:	03000000 	movweq	r0, #0
    3ab8:	29000029 	stmdbcs	r0, {r0, r3, r5}
    3abc:	00000171 	andeq	r0, r0, r1, ror r1
    3ac0:	00001062 	andeq	r1, r0, r2, rrx
    3ac4:	9fa00305 	svcls	0x00a00305
    3ac8:	fc250000 	stc2	0, cr0, [r5], #-0
    3acc:	d5000099 	strle	r0, [r0, #-153]	; 0x99
    3ad0:	de000011 	mcrle	0, 0, r0, cr0, cr1, {0}
    3ad4:	2000000f 	andcs	r0, r0, pc
    3ad8:	91025301 	tstls	r2, r1, lsl #6
    3adc:	52012058 	andpl	r2, r1, #88	; 0x58
    3ae0:	06549103 	ldrbeq	r9, [r4], -r3, lsl #2
    3ae4:	03510120 	cmpeq	r1, #32, 2
    3ae8:	2001cc0a 	andcs	ip, r1, sl, lsl #24
    3aec:	91035001 	tstls	r3, r1
    3af0:	24007bfc 	strcs	r7, [r0], #-3068	; 0xbfc
    3af4:	00009a10 	andeq	r9, r0, r0, lsl sl
    3af8:	0000118f 	andeq	r1, r0, pc, lsl #3
    3afc:	009a2c25 	addseq	r2, sl, r5, lsr #24
    3b00:	00119600 	andseq	r9, r1, r0, lsl #12
    3b04:	00102000 	andseq	r2, r0, r0
    3b08:	53012000 	movwpl	r2, #4096	; 0x1000
    3b0c:	20c00802 	sbccs	r0, r0, r2, lsl #16
    3b10:	03055201 	movweq	r5, #20993	; 0x5201
    3b14:	00009fa0 	andeq	r9, r0, r0, lsr #31
    3b18:	05510120 	ldrbeq	r0, [r1, #-288]	; 0x120
    3b1c:	009fc803 	addseq	ip, pc, r3, lsl #16
    3b20:	50012000 	andpl	r2, r1, r0
    3b24:	9e500305 	cdpls	3, 5, cr0, cr0, cr5, {0}
    3b28:	02200000 	eoreq	r0, r0, #0
    3b2c:	0305007d 	movweq	r0, #20605	; 0x507d
    3b30:	0000a054 	andeq	sl, r0, r4, asr r0
    3b34:	9a302400 	bls	c0cb3c <__bss_end__+0xc026c4>
    3b38:	11ac0000 			; <UNDEFINED> instruction: 0x11ac0000
    3b3c:	3c1f0000 	ldccc	0, cr0, [pc], {-0}
    3b40:	ff00009a 			; <UNDEFINED> instruction: 0xff00009a
    3b44:	2000000e 	andcs	r0, r0, lr
    3b48:	91035101 	tstls	r3, r1, lsl #2
    3b4c:	01207bfc 	strdeq	r7, [r0, -ip]!
    3b50:	00750250 	rsbseq	r0, r5, r0, asr r2
    3b54:	902a0000 	eorls	r0, sl, r0
    3b58:	52000000 	andpl	r0, r0, #0
    3b5c:	30000010 	andcc	r0, r0, r0, lsl r0
    3b60:	00000081 	andeq	r0, r0, r1, lsl #1
    3b64:	2a0001cb 	bcs	4298 <_start-0x3d68>
    3b68:	00000090 	muleq	r0, r0, r0
    3b6c:	00001062 	andeq	r1, r0, r2, rrx
    3b70:	0000812b 	andeq	r8, r0, fp, lsr #2
    3b74:	07000e00 	streq	r0, [r0, -r0, lsl #28]
    3b78:	00001052 	andeq	r1, r0, r2, asr r0
    3b7c:	0008e423 	andeq	lr, r8, r3, lsr #8
    3b80:	25c50100 	strbcs	r0, [r5, #256]	; 0x100
    3b84:	64000000 	strvs	r0, [r0], #-0
    3b88:	4c00009a 	stcmi	0, cr0, [r0], {154}	; 0x9a
    3b8c:	01000000 	mrseq	r0, (UNDEF: 0)
    3b90:	0011449c 	mulseq	r1, ip, r4
    3b94:	00751400 	rsbseq	r1, r5, r0, lsl #8
    3b98:	0722c501 	streq	ip, [r2, -r1, lsl #10]!
    3b9c:	29420000 	stmdbcs	r2, {}^	; <UNPREDICTABLE>
    3ba0:	62140000 	andsvs	r0, r4, #0
    3ba4:	01006675 	tsteq	r0, r5, ror r6
    3ba8:	000c0cc5 	andeq	r0, ip, r5, asr #25
    3bac:	00296300 	eoreq	r6, r9, r0, lsl #6
    3bb0:	08d01300 	ldmeq	r0, {r8, r9, ip}^
    3bb4:	c5010000 	strgt	r0, [r1, #-0]
    3bb8:	00000068 	andeq	r0, r0, r8, rrx
    3bbc:	00002984 	andeq	r2, r0, r4, lsl #19
    3bc0:	646e6514 	strbtvs	r6, [lr], #-1300	; 0x514
    3bc4:	4fc50100 	svcmi	0x00c50100
    3bc8:	a5000000 	strge	r0, [r0, #-0]
    3bcc:	16000029 	strne	r0, [r0], -r9, lsr #32
    3bd0:	00736572 	rsbseq	r6, r3, r2, ror r5
    3bd4:	0025c601 	eoreq	ip, r5, r1, lsl #12
    3bd8:	29c60000 	stmibcs	r6, {}^	; <UNPREDICTABLE>
    3bdc:	71290000 	teqvc	r9, r0
    3be0:	54000001 	strpl	r0, [r0], #-1
    3be4:	05000011 	streq	r0, [r0, #-17]
    3be8:	009fb003 	addseq	fp, pc, r3
    3bec:	9a782500 	bls	1e0cff4 <__bss_end__+0x1e02b7c>
    3bf0:	0b1e0000 	bleq	783bf8 <__bss_end__+0x779780>
    3bf4:	11020000 	mrsne	r0, (UNDEF: 2)
    3bf8:	01200000 	teqeq	r0, r0
    3bfc:	01f30352 	mvnseq	r0, r2, asr r3
    3c00:	51012052 	qaddpl	r2, r2, r1
    3c04:	5101f303 	tstpl	r1, r3, lsl #6
    3c08:	03500120 	cmpeq	r0, #32, 2
    3c0c:	205001f3 	ldrshcs	r0, [r0], #-19	; 0xffffffed
    3c10:	02007d02 	andeq	r7, r0, #2, 26	; 0x80
    3c14:	2400ff09 	strcs	pc, [r0], #-3849	; 0xf09
    3c18:	00009a84 	andeq	r9, r0, r4, lsl #21
    3c1c:	0000118f 	andeq	r1, r0, pc, lsl #3
    3c20:	009a9825 	addseq	r9, sl, r5, lsr #16
    3c24:	00119600 	andseq	r9, r1, r0, lsl #12
    3c28:	00113a00 	andseq	r3, r1, r0, lsl #20
    3c2c:	53012000 	movwpl	r2, #4096	; 0x1000
    3c30:	20c80802 	sbccs	r0, r8, r2, lsl #16
    3c34:	03055201 	movweq	r5, #20993	; 0x5201
    3c38:	00009fb0 			; <UNDEFINED> instruction: 0x00009fb0
    3c3c:	05510120 	ldrbeq	r0, [r1, #-288]	; 0x120
    3c40:	009fc803 	addseq	ip, pc, r3, lsl #16
    3c44:	50012000 	andpl	r2, r1, r0
    3c48:	a01c0305 	andsge	r0, ip, r5, lsl #6
    3c4c:	24000000 	strcs	r0, [r0], #-0
    3c50:	00009a9c 	muleq	r0, ip, sl
    3c54:	000011ac 	andeq	r1, r0, ip, lsr #3
    3c58:	00902a00 	addseq	r2, r0, r0, lsl #20
    3c5c:	11540000 	cmpne	r4, r0
    3c60:	812b0000 	teqhi	fp, r0
    3c64:	16000000 	strne	r0, [r0], -r0
    3c68:	11440700 	cmpne	r4, r0, lsl #14
    3c6c:	29310000 	ldmdbcs	r1!, {}	; <UNPREDICTABLE>
    3c70:	06000000 	streq	r0, [r0], -r0
    3c74:	00116f21 	andseq	r6, r1, r1, lsr #30
    3c78:	002c3200 	eoreq	r3, ip, r0, lsl #4
    3c7c:	2c320000 	ldccs	0, cr0, [r2], #-0
    3c80:	00000000 	andeq	r0, r0, r0
    3c84:	0005fe33 	andeq	pc, r5, r3, lsr lr	; <UNPREDICTABLE>
    3c88:	2c570700 	mrrccs	7, 0, r0, r7, cr0
    3c8c:	34000000 	strcc	r0, [r0], #-0
    3c90:	000001a3 	andeq	r0, r0, r3, lsr #3
    3c94:	00252406 	eoreq	r2, r5, r6, lsl #8
    3c98:	118f0000 	orrne	r0, pc, r0
    3c9c:	2c320000 	ldccs	0, cr0, [r2], #-0
    3ca0:	00000000 	andeq	r0, r0, r0
    3ca4:	00012e35 	andeq	r2, r1, r5, lsr lr
    3ca8:	341e0700 	ldrcc	r0, [lr], #-1792	; 0x700
    3cac:	0000032d 	andeq	r0, r0, sp, lsr #6
    3cb0:	00252907 	eoreq	r2, r5, r7, lsl #18
    3cb4:	11ac0000 			; <UNDEFINED> instruction: 0x11ac0000
    3cb8:	97320000 	ldrls	r0, [r2, -r0]!
    3cbc:	2f000000 	svccs	0x00000000
    3cc0:	01ad3500 			; <UNDEFINED> instruction: 0x01ad3500
    3cc4:	66070000 	strvs	r0, [r7], -r0
    3cc8:	00027f31 	andeq	r7, r2, r1, lsr pc
    3ccc:	c41d0600 	ldrgt	r0, [sp], #-1536	; 0x600
    3cd0:	32000011 	andcc	r0, r0, #17
    3cd4:	0000002c 	andeq	r0, r0, ip, lsr #32
    3cd8:	026b3100 	rsbeq	r3, fp, #0, 2
    3cdc:	1c060000 	stcne	0, cr0, [r6], {-0}
    3ce0:	000011d5 	ldrdeq	r1, [r0], -r5
    3ce4:	00002c32 	andeq	r2, r0, r2, lsr ip
    3ce8:	2a360000 	bcs	d83cf0 <__bss_end__+0xd79878>
    3cec:	08000003 	stmdaeq	r0, {r0, r1}
    3cf0:	00002502 	andeq	r2, r0, r2, lsl #10
    3cf4:	008a3200 	addeq	r3, sl, r0, lsl #4
    3cf8:	25320000 	ldrcs	r0, [r2, #-0]!
    3cfc:	32000000 	andcc	r0, r0, #0
    3d00:	00000097 	muleq	r0, r7, r0
    3d04:	00010632 	andeq	r0, r1, r2, lsr r6
    3d08:	ff000000 			; <UNDEFINED> instruction: 0xff000000
    3d0c:	04000003 	streq	r0, [r0], #-3
    3d10:	00105100 	andseq	r5, r0, r0, lsl #2
    3d14:	d3010400 	movwle	r0, #5120	; 0x1400
    3d18:	01000002 	tsteq	r0, r2
    3d1c:	000009dc 	ldrdeq	r0, [r0], -ip
    3d20:	0000033e 	andeq	r0, r0, lr, lsr r3
    3d24:	00009ab0 			; <UNDEFINED> instruction: 0x00009ab0
    3d28:	00000154 	andeq	r0, r0, r4, asr r1
    3d2c:	00000f20 	andeq	r0, r0, r0, lsr #30
    3d30:	69050402 	stmdbvs	r5, {r1, sl}
    3d34:	0300746e 	movweq	r7, #1134	; 0x46e
    3d38:	004d0704 	subeq	r0, sp, r4, lsl #14
    3d3c:	01030000 	mrseq	r0, (UNDEF: 3)
    3d40:	00022606 	andeq	r2, r2, r6, lsl #12
    3d44:	05020300 	streq	r0, [r2, #-768]	; 0x300
    3d48:	00000232 	andeq	r0, r0, r2, lsr r2
    3d4c:	7c050403 	cfstrsvc	mvf0, [r5], {3}
    3d50:	03000000 	movweq	r0, #0
    3d54:	00770508 	rsbseq	r0, r7, r8, lsl #10
    3d58:	01030000 	mrseq	r0, (UNDEF: 3)
    3d5c:	00022408 	andeq	r2, r2, r8, lsl #8
    3d60:	07020300 	streq	r0, [r2, -r0, lsl #6]
    3d64:	0000017e 	andeq	r0, r0, lr, ror r1
    3d68:	48070403 	stmdami	r7, {r0, r1, sl}
    3d6c:	03000000 	movweq	r0, #0
    3d70:	00430708 	subeq	r0, r3, r8, lsl #14
    3d74:	04030000 	streq	r0, [r3], #-0
    3d78:	0001c007 	andeq	ip, r1, r7
    3d7c:	08010300 	stmdaeq	r1, {r8, r9}
    3d80:	0000022d 	andeq	r0, r0, sp, lsr #4
    3d84:	0c020104 	stfeqs	f0, [r2], {4}
    3d88:	000000b2 	strheq	r0, [r0], -r2
    3d8c:	00069305 	andeq	r9, r6, r5, lsl #6
    3d90:	6f050000 	svcvs	0x00050000
    3d94:	01000007 	tsteq	r0, r7
    3d98:	0007a805 	andeq	sl, r7, r5, lsl #16
    3d9c:	b7050400 	strlt	r0, [r5, -r0, lsl #8]
    3da0:	05000007 	streq	r0, [r0, #-7]
    3da4:	0007c605 	andeq	ip, r7, r5, lsl #12
    3da8:	d5050600 	strle	r0, [r5, #-1536]	; 0x600
    3dac:	07000007 	streq	r0, [r0, -r7]
    3db0:	0007e405 	andeq	lr, r7, r5, lsl #8
    3db4:	f3050300 	vcgt.u8	d0, d5, d0
    3db8:	02000007 	andeq	r0, r0, #7
    3dbc:	079c0600 	ldreq	r0, [ip, r0, lsl #12]
    3dc0:	15020000 	strne	r0, [r2, #-0]
    3dc4:	00000079 	andeq	r0, r0, r9, ror r0
    3dc8:	00096307 	andeq	r6, r9, r7, lsl #6
    3dcc:	b0370100 	eorslt	r0, r7, r0, lsl #2
    3dd0:	9c00009a 	stcls	0, cr0, [r0], {154}	; 0x9a
    3dd4:	01000000 	mrseq	r0, (UNDEF: 0)
    3dd8:	0001c39c 	muleq	r1, ip, r3
    3ddc:	9ab80800 	bls	fee05de4 <__bss_end__+0xfedfb96c>
    3de0:	03a80000 			; <UNDEFINED> instruction: 0x03a80000
    3de4:	c4090000 	strgt	r0, [r9], #-0
    3de8:	af00009a 	svcge	0x0000009a
    3dec:	f3000003 	vhadd.u8	d0, d0, d3
    3df0:	0a000000 	beq	3df8 <_start-0x4208>
    3df4:	32015101 	andcc	r5, r1, #1073741824	; 0x40000000
    3df8:	0150010a 	cmpeq	r0, sl, lsl #2
    3dfc:	d009003e 	andle	r0, r9, lr, lsr r0
    3e00:	af00009a 	svcge	0x0000009a
    3e04:	0b000003 	bleq	3e18 <_start-0x41e8>
    3e08:	0a000001 	beq	3e14 <_start-0x41ec>
    3e0c:	32015101 	andcc	r5, r1, #1073741824	; 0x40000000
    3e10:	0150010a 	cmpeq	r0, sl, lsl #2
    3e14:	d408003f 	strle	r0, [r8], #-63	; 0x3f
    3e18:	a800009a 	stmdage	r0, {r1, r3, r4, r7}
    3e1c:	09000003 	stmdbeq	r0, {r0, r1}
    3e20:	00009ae4 	andeq	r9, r0, r4, ror #21
    3e24:	000003c5 	andeq	r0, r0, r5, asr #7
    3e28:	00000128 	andeq	r0, r0, r8, lsr #2
    3e2c:	0250010a 	subseq	r0, r0, #-2147483646	; 0x80000002
    3e30:	09000075 	stmdbeq	r0, {r0, r2, r4, r5, r6}
    3e34:	00009af0 	strdeq	r9, [r0], -r0
    3e38:	000003e6 	andeq	r0, r0, r6, ror #7
    3e3c:	0000013c 	andeq	r0, r0, ip, lsr r1
    3e40:	0250010a 	subseq	r0, r0, #-2147483646	; 0x80000002
    3e44:	08000075 	stmdaeq	r0, {r0, r2, r4, r5, r6}
    3e48:	00009af4 	strdeq	r9, [r0], -r4
    3e4c:	000003a8 	andeq	r0, r0, r8, lsr #7
    3e50:	009b0009 	addseq	r0, fp, r9
    3e54:	0003e600 	andeq	lr, r3, r0, lsl #12
    3e58:	00015800 	andeq	r5, r1, r0, lsl #16
    3e5c:	51010a00 	tstpl	r1, r0, lsl #20
    3e60:	09003001 	stmdbeq	r0, {r0, ip, sp}
    3e64:	00009b0c 	andeq	r9, r0, ip, lsl #22
    3e68:	000003e6 	andeq	r0, r0, r6, ror #7
    3e6c:	0000016b 	andeq	r0, r0, fp, ror #2
    3e70:	0151010a 	cmpeq	r1, sl, lsl #2
    3e74:	18090030 	stmdane	r9, {r4, r5}
    3e78:	e600009b 			; <UNDEFINED> instruction: 0xe600009b
    3e7c:	7e000003 	cdpvc	0, 0, cr0, cr0, cr3, {0}
    3e80:	0a000001 	beq	3e8c <_start-0x4174>
    3e84:	36015101 	strcc	r5, [r1], -r1, lsl #2
    3e88:	9b240900 	blls	906290 <__bss_end__+0x8fbe18>
    3e8c:	03e60000 	mvneq	r0, #0
    3e90:	01910000 	orrseq	r0, r1, r0
    3e94:	010a0000 	mrseq	r0, (UNDEF: 10)
    3e98:	00330151 	eorseq	r0, r3, r1, asr r1
    3e9c:	009b3009 	addseq	r3, fp, r9
    3ea0:	0003e600 	andeq	lr, r3, r0, lsl #12
    3ea4:	0001a600 	andeq	sl, r1, r0, lsl #12
    3ea8:	51010a00 	tstpl	r1, r0, lsl #20
    3eac:	010e0a03 	tsteq	lr, r3, lsl #20
    3eb0:	9b3c0900 	blls	f062b8 <__bss_end__+0xefbe40>
    3eb4:	03e60000 	mvneq	r0, #0
    3eb8:	01b90000 			; <UNDEFINED> instruction: 0x01b90000
    3ebc:	010a0000 	mrseq	r0, (UNDEF: 10)
    3ec0:	00330151 	eorseq	r0, r3, r1, asr r1
    3ec4:	009b4008 	addseq	r4, fp, r8
    3ec8:	0003a800 	andeq	sl, r3, r0, lsl #16
    3ecc:	370b0000 	strcc	r0, [fp, -r0]
    3ed0:	01000009 	tsteq	r0, r9
    3ed4:	00002557 	andeq	r2, r0, r7, asr r5
    3ed8:	009b4c00 	addseq	r4, fp, r0, lsl #24
    3edc:	00001c00 	andeq	r1, r0, r0, lsl #24
    3ee0:	e69c0100 	ldr	r0, [ip], r0, lsl #2
    3ee4:	08000001 	stmdaeq	r0, {r0}
    3ee8:	00009b5c 	andeq	r9, r0, ip, asr fp
    3eec:	000003c5 	andeq	r0, r0, r5, asr #7
    3ef0:	08540b00 	ldmdaeq	r4, {r8, r9, fp}^
    3ef4:	5d010000 	stcpl	0, cr0, [r1, #-0]
    3ef8:	00000025 	andeq	r0, r0, r5, lsr #32
    3efc:	00009b68 	andeq	r9, r0, r8, ror #22
    3f00:	00000028 	andeq	r0, r0, r8, lsr #32
    3f04:	02129c01 	andseq	r9, r2, #256	; 0x100
    3f08:	70080000 	andvc	r0, r8, r0
    3f0c:	c300009b 	movwgt	r0, #155	; 0x9b
    3f10:	08000001 	stmdaeq	r0, {r0}
    3f14:	00009b84 	andeq	r9, r0, r4, lsl #23
    3f18:	000003c5 	andeq	r0, r0, r5, asr #7
    3f1c:	098b0b00 	stmibeq	fp, {r8, r9, fp}
    3f20:	64010000 	strvs	r0, [r1], #-0
    3f24:	00000025 	andeq	r0, r0, r5, lsr #32
    3f28:	00009b90 	muleq	r0, r0, fp
    3f2c:	0000001c 	andeq	r0, r0, ip, lsl r0
    3f30:	02359c01 	eorseq	r9, r5, #256	; 0x100
    3f34:	a0080000 	andge	r0, r8, r0
    3f38:	c500009b 	strgt	r0, [r0, #-155]	; 0x9b
    3f3c:	00000003 	andeq	r0, r0, r3
    3f40:	00052507 	andeq	r2, r5, r7, lsl #10
    3f44:	ac6a0100 	stfgee	f0, [sl], #-0
    3f48:	2c00009b 	stccs	0, cr0, [r0], {155}	; 0x9b
    3f4c:	01000000 	mrseq	r0, (UNDEF: 0)
    3f50:	0002719c 	muleq	r2, ip, r1
    3f54:	00630c00 	rsbeq	r0, r3, r0, lsl #24
    3f58:	002c6a01 	eoreq	r6, ip, r1, lsl #20
    3f5c:	29e40000 	stmibcs	r4!, {}^	; <UNPREDICTABLE>
    3f60:	b8080000 	stmdalt	r8, {}	; <UNPREDICTABLE>
    3f64:	1200009b 	andne	r0, r0, #155	; 0x9b
    3f68:	0d000002 	stceq	0, cr0, [r0, #-8]
    3f6c:	00009bd0 	ldrdeq	r9, [r0], -r0
    3f70:	000003e6 	andeq	r0, r0, r6, ror #7
    3f74:	0251010a 	subseq	r0, r1, #-2147483646	; 0x80000002
    3f78:	00000074 	andeq	r0, r0, r4, ror r0
    3f7c:	0009550b 	andeq	r5, r9, fp, lsl #10
    3f80:	25740100 	ldrbcs	r0, [r4, #-256]!	; 0x100
    3f84:	d8000000 	stmdale	r0, {}	; <UNPREDICTABLE>
    3f88:	0c00009b 	stceq	0, cr0, [r0], {155}	; 0x9b
    3f8c:	01000000 	mrseq	r0, (UNDEF: 0)
    3f90:	0002949c 	muleq	r2, ip, r4
    3f94:	9be00800 	blls	ff805f9c <__bss_end__+0xff7fbb24>
    3f98:	01c30000 	biceq	r0, r3, r0
    3f9c:	0b000000 	bleq	3fa4 <_start-0x405c>
    3fa0:	00000a08 	andeq	r0, r0, r8, lsl #20
    3fa4:	00257801 	eoreq	r7, r5, r1, lsl #16
    3fa8:	9be40000 	blls	ff903fb0 <__bss_end__+0xff8f9b38>
    3fac:	00200000 	eoreq	r0, r0, r0
    3fb0:	9c010000 	stcls	0, cr0, [r1], {-0}
    3fb4:	000002c0 	andeq	r0, r0, r0, asr #5
    3fb8:	009bec08 	addseq	lr, fp, r8, lsl #24
    3fbc:	00027100 	andeq	r7, r2, r0, lsl #2
    3fc0:	9bf80800 	blls	ffe05fc8 <__bss_end__+0xffdfbb50>
    3fc4:	01e60000 	mvneq	r0, r0
    3fc8:	0e000000 	cdpeq	0, 0, cr0, cr0, cr0, {0}
    3fcc:	000009a5 	andeq	r0, r0, r5, lsr #19
    3fd0:	02d11601 	sbcseq	r1, r1, #1048576	; 0x100000
    3fd4:	03050000 	movweq	r0, #20480	; 0x5000
    3fd8:	00009d70 	andeq	r9, r0, r0, ror sp
    3fdc:	02d7040f 	sbcseq	r0, r7, #251658240	; 0xf000000
    3fe0:	2c100000 	ldccs	0, cr0, [r0], {-0}
    3fe4:	0e000000 	cdpeq	0, 0, cr0, cr0, cr0, {0}
    3fe8:	00000999 	muleq	r0, r9, r9
    3fec:	02d11701 	sbcseq	r1, r1, #262144	; 0x40000
    3ff0:	03050000 	movweq	r0, #20480	; 0x5000
    3ff4:	00009d40 	andeq	r9, r0, r0, asr #26
    3ff8:	00091a0e 	andeq	r1, r9, lr, lsl #20
    3ffc:	d11a0100 	tstle	sl, r0, lsl #2
    4000:	05000002 	streq	r0, [r0, #-2]
    4004:	009d5c03 	addseq	r5, sp, r3, lsl #24
    4008:	096d0e00 	stmdbeq	sp!, {r9, sl, fp}^
    400c:	1b010000 	blne	44014 <__bss_end__+0x39b9c>
    4010:	000002d1 	ldrdeq	r0, [r0], -r1
    4014:	9d480305 	stclls	3, cr0, [r8, #-20]	; 0xffffffec
    4018:	7c0e0000 	stcvc	0, cr0, [lr], {-0}
    401c:	01000009 	tsteq	r0, r9
    4020:	0002d11c 	andeq	sp, r2, ip, lsl r1
    4024:	4c030500 	cfstr32mi	mvfx0, [r3], {-0}
    4028:	0e00009d 	mcreq	0, 0, r0, cr0, cr13, {4}
    402c:	000009ea 	andeq	r0, r0, sl, ror #19
    4030:	02d11d01 	sbcseq	r1, r1, #1, 26	; 0x40
    4034:	03050000 	movweq	r0, #20480	; 0x5000
    4038:	00009d50 	andeq	r9, r0, r0, asr sp
    403c:	00090b0e 	andeq	r0, r9, lr, lsl #22
    4040:	d11e0100 	tstle	lr, r0, lsl #2
    4044:	05000002 	streq	r0, [r0, #-2]
    4048:	009d6c03 	addseq	r6, sp, r3, lsl #24
    404c:	09f90e00 	ldmibeq	r9!, {r9, sl, fp}^
    4050:	1f010000 	svcne	0x00010000
    4054:	000002d1 	ldrdeq	r0, [r0], -r1
    4058:	9d580305 	ldclls	3, cr0, [r8, #-20]	; 0xffffffec
    405c:	280e0000 	stmdacs	lr, {}	; <UNPREDICTABLE>
    4060:	01000009 	tsteq	r0, r9
    4064:	0002d120 	andeq	sp, r2, r0, lsr #2
    4068:	68030500 	stmdavs	r3, {r8, sl}
    406c:	0e00009d 	mcreq	0, 0, r0, cr0, cr13, {4}
    4070:	000009cd 	andeq	r0, r0, sp, asr #19
    4074:	02d12101 	sbcseq	r2, r1, #1073741824	; 0x40000000
    4078:	03050000 	movweq	r0, #20480	; 0x5000
    407c:	00009d64 	andeq	r9, r0, r4, ror #26
    4080:	0009450e 	andeq	r4, r9, lr, lsl #10
    4084:	d1220100 	teqle	r2, r0, lsl #2
    4088:	05000002 	streq	r0, [r0, #-2]
    408c:	009d4403 	addseq	r4, sp, r3, lsl #8
    4090:	09bd0e00 	ldmibeq	sp!, {r9, sl, fp}
    4094:	23010000 	movwcs	r0, #4096	; 0x1000
    4098:	000002d1 	ldrdeq	r0, [r0], -r1
    409c:	9d600305 	stclls	3, cr0, [r0, #-20]!	; 0xffffffec
    40a0:	ad0e0000 	stcge	0, cr0, [lr, #-0]
    40a4:	01000009 	tsteq	r0, r9
    40a8:	0002d124 	andeq	sp, r2, r4, lsr #2
    40ac:	54030500 	strpl	r0, [r3], #-1280	; 0x500
    40b0:	1100009d 	swpne	r0, sp, [r0]	; <UNPREDICTABLE>
    40b4:	000006cc 	andeq	r0, r0, ip, asr #13
    40b8:	ed128a03 	vldr	s16, [r2, #-12]
    40bc:	02000006 	andeq	r0, r0, #6
    40c0:	0003c519 	andeq	ip, r3, r9, lsl r5
    40c4:	002c1300 	eoreq	r1, ip, r0, lsl #6
    40c8:	b2130000 	andslt	r0, r3, #0
    40cc:	00000000 	andeq	r0, r0, r0
    40d0:	00078014 	andeq	r8, r7, r4, lsl r0
    40d4:	2ca90300 	stccs	3, cr0, [r9]
    40d8:	da000000 	ble	40e0 <_start-0x3f20>
    40dc:	13000003 	movwne	r0, #3
    40e0:	000003da 	ldrdeq	r0, [r0], -sl
    40e4:	e0040f00 	and	r0, r4, r0, lsl #30
    40e8:	15000003 	strne	r0, [r0, #-3]
    40ec:	000003e5 	andeq	r0, r0, r5, ror #7
    40f0:	06731216 			; <UNDEFINED> instruction: 0x06731216
    40f4:	9d030000 	stcls	0, cr0, [r3, #-0]
    40f8:	000003fc 	strdeq	r0, [r0], -ip
    40fc:	0003fc13 	andeq	pc, r3, r3, lsl ip	; <UNPREDICTABLE>
    4100:	002c1300 	eoreq	r1, ip, r0, lsl #6
    4104:	0f000000 	svceq	0x00000000
    4108:	0003e504 	andeq	lr, r3, r4, lsl #10
    410c:	01c30000 	biceq	r0, r3, r0
    4110:	00040000 	andeq	r0, r4, r0
    4114:	0000117f 	andeq	r1, r0, pc, ror r1
    4118:	02d30104 	sbcseq	r0, r3, #4, 2
    411c:	2d010000 	stccs	0, cr0, [r1, #-0]
    4120:	3e00000a 	cdpcc	0, 0, cr0, cr0, cr10, {0}
    4124:	68000003 	stmdavs	r0, {r0, r1}
    4128:	5000009c 	mulpl	r0, ip, r0
    412c:	25000000 	strcs	r0, [r0, #-0]
    4130:	02000010 	andeq	r0, r0, #16
    4134:	6e690504 	cdpvs	5, 6, cr0, cr9, cr4, {0}
    4138:	18030074 	stmdane	r3, {r2, r4, r5, r6}
    413c:	0200000a 	andeq	r0, r0, #10
    4140:	000037d4 	ldrdeq	r3, [r0], -r4
    4144:	07040400 	streq	r0, [r4, -r0, lsl #8]
    4148:	0000004d 	andeq	r0, r0, sp, asr #32
    414c:	26060104 	strcs	r0, [r6], -r4, lsl #2
    4150:	04000002 	streq	r0, [r0], #-2
    4154:	02320502 	eorseq	r0, r2, #8388608	; 0x800000
    4158:	04040000 	streq	r0, [r4], #-0
    415c:	00007c05 	andeq	r7, r0, r5, lsl #24
    4160:	05080400 	streq	r0, [r8, #-1024]	; 0x400
    4164:	00000077 	andeq	r0, r0, r7, ror r0
    4168:	00029c03 	andeq	r9, r2, r3, lsl #24
    416c:	652e0300 	strvs	r0, [lr, #-768]!	; 0x300
    4170:	04000000 	streq	r0, [r0], #-0
    4174:	02240801 	eoreq	r0, r4, #65536	; 0x10000
    4178:	02040000 	andeq	r0, r4, #0
    417c:	00017e07 	andeq	r7, r1, r7, lsl #28
    4180:	057e0300 	ldrbeq	r0, [lr, #-768]!	; 0x300
    4184:	34030000 	strcc	r0, [r3], #-0
    4188:	0000007e 	andeq	r0, r0, lr, ror r0
    418c:	48070404 	stmdami	r7, {r2, sl}
    4190:	04000000 	streq	r0, [r0], #-0
    4194:	00430708 	subeq	r0, r3, r8, lsl #14
    4198:	04040000 	streq	r0, [r4], #-0
    419c:	0001c007 	andeq	ip, r1, r7
    41a0:	04040500 	streq	r0, [r4], #-1280	; 0x500
    41a4:	022d0801 	eoreq	r0, sp, #65536	; 0x10000
    41a8:	0c060000 	stceq	0, cr0, [r6], {-0}
    41ac:	00d30e04 	sbcseq	r0, r3, r4, lsl #28
    41b0:	74070000 	strvc	r0, [r7], #-0
    41b4:	0f040078 	svceq	0x00040078
    41b8:	0000005a 	andeq	r0, r0, sl, asr r0
    41bc:	78720700 	ldmdavc	r2!, {r8, r9, sl}^
    41c0:	5a0f0400 	bpl	3c51c8 <__bss_end__+0x3bad50>
    41c4:	01000000 	mrseq	r0, (UNDEF: 0)
    41c8:	0004fd08 	andeq	pc, r4, r8, lsl #26
    41cc:	73100400 	tstvc	r0, #0, 8
    41d0:	04000000 	streq	r0, [r0], #-0
    41d4:	0004ae08 	andeq	sl, r4, r8, lsl #28
    41d8:	73110400 	tstvc	r1, #0, 8
    41dc:	08000000 	stmdaeq	r0, {}	; <UNPREDICTABLE>
    41e0:	04e60300 	strbteq	r0, [r6], #768	; 0x300
    41e4:	12040000 	andne	r0, r4, #0
    41e8:	0000009c 	muleq	r0, ip, r0
    41ec:	10050109 	andne	r0, r5, r9, lsl #2
    41f0:	000000f9 	strdeq	r0, [r0], -r9
    41f4:	0005020a 	andeq	r0, r5, sl, lsl #4
    41f8:	f00a0100 			; <UNDEFINED> instruction: 0xf00a0100
    41fc:	02000004 	andeq	r0, r0, #4
    4200:	0004d80a 	andeq	sp, r4, sl, lsl #16
    4204:	03000300 	movweq	r0, #768	; 0x300
    4208:	00000517 	andeq	r0, r0, r7, lsl r5
    420c:	00de1005 	sbcseq	r1, lr, r5
    4210:	14060000 	strne	r0, [r6], #-0
    4214:	01311405 	teqeq	r1, r5, lsl #8
    4218:	87080000 	strhi	r0, [r8, -r0]
    421c:	05000005 	streq	r0, [r0, #-5]
    4220:	00003715 	andeq	r3, r0, r5, lsl r7
    4224:	72080000 	andvc	r0, r8, #0
    4228:	05000005 	streq	r0, [r0, #-5]
    422c:	0000f918 	andeq	pc, r0, r8, lsl r9	; <UNPREDICTABLE>
    4230:	3d080400 	cfstrscc	mvf0, [r8, #-0]
    4234:	05000005 	streq	r0, [r0, #-5]
    4238:	0000d31b 	andeq	sp, r0, fp, lsl r3
    423c:	03000800 	movweq	r0, #2048	; 0x800
    4240:	0000052f 	andeq	r0, r0, pc, lsr #10
    4244:	01042005 	tsteq	r4, r5
    4248:	260b0000 	strcs	r0, [fp], -r0
    424c:	0100000a 	tsteq	r0, sl
    4250:	00017e05 	andeq	r7, r1, r5, lsl #28
    4254:	009c6800 	addseq	r6, ip, r0, lsl #16
    4258:	00002800 	andeq	r2, r0, r0, lsl #16
    425c:	7e9c0100 	fmlvce	f0, f4, f0
    4260:	0c000001 	stceq	0, cr0, [r0], {1}
    4264:	06010063 	streq	r0, [r1], -r3, rrx
    4268:	0000017e 	andeq	r0, r0, lr, ror r1
    426c:	09000000 	stmdbeq	r0, {}	; <UNPREDICTABLE>
    4270:	009c7c0d 	addseq	r7, ip, sp, lsl #24
    4274:	0001ab00 	andeq	sl, r1, r0, lsl #22
    4278:	52010e00 	andpl	r0, r1, #0, 28
    427c:	010e3401 	tsteq	lr, r1, lsl #8
    4280:	0e300151 	mrceq	1, 1, r0, cr0, cr1, {2}
    4284:	42035001 	andmi	r5, r3, #1
    4288:	00002447 	andeq	r2, r0, r7, asr #8
    428c:	0131040f 	teqeq	r1, pc, lsl #8
    4290:	450b0000 	strmi	r0, [fp, #-0]
    4294:	01000005 	tsteq	r0, r5
    4298:	00017e0c 	andeq	r7, r1, ip, lsl #28
    429c:	009c9000 	addseq	r9, ip, r0
    42a0:	00002800 	andeq	r2, r0, r0, lsl #16
    42a4:	ab9c0100 	blge	fe7046ac <__bss_end__+0xfe6fa234>
    42a8:	0c000001 	stceq	0, cr0, [r0], {1}
    42ac:	0d010063 	stceq	0, cr0, [r1, #-396]	; 0xfffffe74
    42b0:	0000017e 	andeq	r0, r0, lr, ror r1
    42b4:	09000000 	stmdbeq	r0, {}	; <UNPREDICTABLE>
    42b8:	0a1f1000 	beq	7c82c0 <__bss_end__+0x7bde48>
    42bc:	1b060000 	blne	1842c4 <__bss_end__+0x179e4c>
    42c0:	00000093 	muleq	r0, r3, r0
    42c4:	00009311 	andeq	r9, r0, r1, lsl r3
    42c8:	00251100 	eoreq	r1, r5, r0, lsl #2
    42cc:	2c110000 	ldccs	0, cr0, [r1], {-0}
    42d0:	00000000 	andeq	r0, r0, r0
    42d4:	0000db00 	andeq	sp, r0, r0, lsl #22
    42d8:	63000400 	movwvs	r0, #1024	; 0x400
    42dc:	04000012 	streq	r0, [r0], #-18
    42e0:	0002d301 	andeq	sp, r2, r1, lsl #6
    42e4:	0a480100 	beq	12046ec <__bss_end__+0x11fa274>
    42e8:	033e0000 	teqeq	lr, #0
    42ec:	9cb80000 	ldcls	0, cr0, [r8]
    42f0:	00200000 	eoreq	r0, r0, r0
    42f4:	11510000 	cmpne	r1, r0
    42f8:	01020000 	mrseq	r0, (UNDEF: 2)
    42fc:	00022606 	andeq	r2, r2, r6, lsl #12
    4300:	08010200 	stmdaeq	r1, {r9}
    4304:	00000224 	andeq	r0, r0, r4, lsr #4
    4308:	32050202 	andcc	r0, r5, #536870912	; 0x20000000
    430c:	02000002 	andeq	r0, r0, #2
    4310:	017e0702 	cmneq	lr, r2, lsl #14
    4314:	04030000 	streq	r0, [r3], #-0
    4318:	746e6905 	strbtvc	r6, [lr], #-2309	; 0x905
    431c:	07040200 	streq	r0, [r4, -r0, lsl #4]
    4320:	0000004d 	andeq	r0, r0, sp, asr #32
    4324:	77050802 	strvc	r0, [r5, -r2, lsl #16]
    4328:	02000000 	andeq	r0, r0, #0
    432c:	00430708 	subeq	r0, r3, r8, lsl #14
    4330:	04020000 	streq	r0, [r2], #-0
    4334:	00007c05 	andeq	r7, r0, r5, lsl #24
    4338:	07040200 	streq	r0, [r4, -r0, lsl #4]
    433c:	000001c0 	andeq	r0, r0, r0, asr #3
    4340:	04020404 	streq	r0, [r2], #-1028	; 0x404
    4344:	00004807 	andeq	r4, r0, r7, lsl #16
    4348:	7a040500 	bvc	105750 <__bss_end__+0xfb2d8>
    434c:	02000000 	andeq	r0, r0, #0
    4350:	022d0801 	eoreq	r0, sp, #65536	; 0x10000
    4354:	18060000 	stmdane	r6, {}	; <UNPREDICTABLE>
    4358:	0200000a 	andeq	r0, r0, #10
    435c:	000048d4 	ldrdeq	r4, [r0], -r4	; <UNPREDICTABLE>
    4360:	0a1f0700 	beq	7c5f68 <__bss_end__+0x7bbaf0>
    4364:	1b030000 	blne	c436c <__bss_end__+0xb9ef4>
    4368:	0000006b 	andeq	r0, r0, fp, rrx
    436c:	00009cb8 			; <UNDEFINED> instruction: 0x00009cb8
    4370:	00000020 	andeq	r0, r0, r0, lsr #32
    4374:	5f089c01 	svcpl	0x00089c01
    4378:	03010070 	movweq	r0, #4208	; 0x1070
    437c:	0000006b 	andeq	r0, r0, fp, rrx
    4380:	63085001 	movwvs	r5, #32769	; 0x8001
    4384:	41030100 	mrsmi	r0, (UNDEF: 19)
    4388:	01000000 	mrseq	r0, (UNDEF: 0)
    438c:	006e0951 	rsbeq	r0, lr, r1, asr r9
    4390:	00810301 	addeq	r0, r1, r1, lsl #6
    4394:	2a020000 	bcs	8439c <__bss_end__+0x79f24>
    4398:	700a0000 	andvc	r0, sl, r0
    439c:	74040100 	strvc	r0, [r4], #-256	; 0x100
    43a0:	23000000 	movwcs	r0, #0
    43a4:	0b00002a 	bleq	4454 <_start-0x3bac>
    43a8:	04010065 	streq	r0, [r1], #-101	; 0x65
    43ac:	00000074 	andeq	r0, r0, r4, ror r0
    43b0:	00005201 	andeq	r5, r0, r1, lsl #4

Disassembly of section .debug_abbrev:

00000000 <.debug_abbrev>:
       0:	25011101 	strcs	r1, [r1, #-257]	; 0x101
       4:	030b130e 	movweq	r1, #45838	; 0xb30e
       8:	110e1b0e 	tstne	lr, lr, lsl #22
       c:	10061201 	andne	r1, r6, r1, lsl #4
      10:	02000017 	andeq	r0, r0, #23
      14:	0b0b0024 	bleq	2c00ac <__bss_end__+0x2b5c34>
      18:	08030b3e 	stmdaeq	r3, {r1, r2, r3, r4, r5, r8, r9, fp}
      1c:	24030000 	strcs	r0, [r3], #-0
      20:	3e0b0b00 	vmlacc.f64	d0, d11, d0
      24:	000e030b 	andeq	r0, lr, fp, lsl #6
      28:	00160400 	andseq	r0, r6, r0, lsl #8
      2c:	0b3a0e03 	bleq	e83840 <__bss_end__+0xe793c8>
      30:	13490b3b 	movtne	r0, #39739	; 0x9b3b
      34:	0f050000 	svceq	0x00050000
      38:	490b0b00 	stmdbmi	fp, {r8, r9, fp}
      3c:	06000013 			; <UNDEFINED> instruction: 0x06000013
      40:	13490026 	movtne	r0, #36902	; 0x9026
      44:	2e070000 	cdpcs	0, 0, cr0, cr7, cr0, {0}
      48:	3a0e0301 	bcc	380c54 <__bss_end__+0x3767dc>
      4c:	270b3b0b 	strcs	r3, [fp, -fp, lsl #22]
      50:	010b2019 	tsteq	fp, r9, lsl r0
      54:	08000013 	stmdaeq	r0, {r0, r1, r4}
      58:	08030005 	stmdaeq	r3, {r0, r2}
      5c:	0b3b0b3a 	bleq	ec2d4c <__bss_end__+0xeb88d4>
      60:	00001349 	andeq	r1, r0, r9, asr #6
      64:	3f012e09 	svccc	0x00012e09
      68:	3a0e0319 	bcc	380cd4 <__bss_end__+0x37685c>
      6c:	270b3b0b 	strcs	r3, [fp, -fp, lsl #22]
      70:	20134919 	andscs	r4, r3, r9, lsl r9
      74:	0013010b 	andseq	r0, r3, fp, lsl #2
      78:	00340a00 	eorseq	r0, r4, r0, lsl #20
      7c:	0b3a0e03 	bleq	e83890 <__bss_end__+0xe79418>
      80:	13490b3b 	movtne	r0, #39739	; 0x9b3b
      84:	340b0000 	strcc	r0, [fp], #-0
      88:	3a080300 	bcc	200c90 <__bss_end__+0x1f6818>
      8c:	490b3b0b 	stmdbmi	fp, {r0, r1, r3, r8, r9, fp, ip, sp}
      90:	0c000013 	stceq	0, cr0, [r0], {19}
      94:	1301010b 	movwne	r0, #4363	; 0x110b
      98:	0b0d0000 	bleq	3400a0 <__bss_end__+0x335c28>
      9c:	0e000001 	cdpeq	0, 0, cr0, cr0, cr1, {0}
      a0:	1331012e 	teqne	r1, #-2147483637	; 0x8000000b
      a4:	06120111 			; <UNDEFINED> instruction: 0x06120111
      a8:	42971840 	addsmi	r1, r7, #64, 16	; 0x400000
      ac:	00130119 	andseq	r0, r3, r9, lsl r1
      b0:	00340f00 	eorseq	r0, r4, r0, lsl #30
      b4:	17021331 	smladxne	r2, r1, r3, r1
      b8:	34100000 	ldrcc	r0, [r0], #-0
      bc:	00133100 	andseq	r3, r3, r0, lsl #2
      c0:	00341100 	eorseq	r1, r4, r0, lsl #2
      c4:	18021331 	stmdane	r2, {r0, r4, r5, r8, r9, ip}
      c8:	05120000 	ldreq	r0, [r2, #-0]
      cc:	1c133100 	ldfnes	f3, [r3], {-0}
      d0:	1300000b 	movwne	r0, #11
      d4:	0111010b 	tsteq	r1, fp, lsl #2
      d8:	13010612 	movwne	r0, #5650	; 0x1612
      dc:	0b140000 	bleq	5000e4 <__bss_end__+0x4f5c6c>
      e0:	12011101 	andne	r1, r1, #1073741824	; 0x40000000
      e4:	15000006 	strne	r0, [r0, #-6]
      e8:	193f012e 	ldmdbne	pc!, {r1, r2, r3, r5, r8}	; <UNPREDICTABLE>
      ec:	0b3a0e03 	bleq	e83900 <__bss_end__+0xe79488>
      f0:	19270b3b 	stmdbne	r7!, {r0, r1, r3, r4, r5, r8, r9, fp}
      f4:	01111349 	tsteq	r1, r9, asr #6
      f8:	18400612 	stmdane	r0, {r1, r4, r9, sl}^
      fc:	01194297 			; <UNDEFINED> instruction: 0x01194297
     100:	16000013 			; <UNDEFINED> instruction: 0x16000013
     104:	08030005 	stmdaeq	r3, {r0, r2}
     108:	0b3b0b3a 	bleq	ec2df8 <__bss_end__+0xeb8980>
     10c:	17021349 	strne	r1, [r2, -r9, asr #6]
     110:	34170000 	ldrcc	r0, [r7], #-0
     114:	490e0300 	stmdbmi	lr, {r8, r9}
     118:	02193413 	andseq	r3, r9, #318767104	; 0x13000000
     11c:	18000018 	stmdane	r0, {r3, r4}
     120:	0e030034 	mcreq	0, 0, r0, cr3, cr4, {1}
     124:	0b3b0b3a 	bleq	ec2e14 <__bss_end__+0xeb899c>
     128:	17021349 	strne	r1, [r2, -r9, asr #6]
     12c:	89190000 	ldmdbhi	r9, {}	; <UNPREDICTABLE>
     130:	11010182 	smlabbne	r1, r2, r1, r0
     134:	01133101 	tsteq	r3, r1, lsl #2
     138:	1a000013 	bne	18c <_start-0x7e74>
     13c:	0001828a 	andeq	r8, r1, sl, lsl #5
     140:	42911802 	addsmi	r1, r1, #131072	; 0x20000
     144:	1b000018 	blne	1ac <_start-0x7e54>
     148:	00018289 	andeq	r8, r1, r9, lsl #5
     14c:	13310111 	teqne	r1, #1073741828	; 0x40000004
     150:	011c0000 	tsteq	ip, r0
     154:	01134901 	tsteq	r3, r1, lsl #18
     158:	1d000013 	stcne	0, cr0, [r0, #-76]	; 0xffffffb4
     15c:	13490021 	movtne	r0, #36897	; 0x9021
     160:	00000b2f 	andeq	r0, r0, pc, lsr #22
     164:	3100051e 	tstcc	r0, lr, lsl r5
     168:	00170213 	andseq	r0, r7, r3, lsl r2
     16c:	00341f00 	eorseq	r1, r4, r0, lsl #30
     170:	0b1c1331 	bleq	704e3c <__bss_end__+0x6fa9c4>
     174:	2e200000 	cdpcs	0, 2, cr0, cr0, cr0, {0}
     178:	03193f01 	tsteq	r9, #1, 30
     17c:	3b0b3a0e 	blcc	2ce9bc <__bss_end__+0x2c4544>
     180:	1119270b 	tstne	r9, fp, lsl #14
     184:	40061201 	andmi	r1, r6, r1, lsl #4
     188:	19429718 	stmdbne	r2, {r3, r4, r8, r9, sl, ip, pc}^
     18c:	00001301 	andeq	r1, r0, r1, lsl #6
     190:	03000521 	movweq	r0, #1313	; 0x521
     194:	3b0b3a0e 	blcc	2ce9d4 <__bss_end__+0x2c455c>
     198:	0213490b 	andseq	r4, r3, #180224	; 0x2c000
     19c:	22000017 	andcs	r0, r0, #23
     1a0:	08030034 	stmdaeq	r3, {r2, r4, r5}
     1a4:	0b3b0b3a 	bleq	ec2e94 <__bss_end__+0xeb8a1c>
     1a8:	0b1c1349 	bleq	704ed4 <__bss_end__+0x6faa5c>
     1ac:	1d230000 	stcne	0, cr0, [r3, #-0]
     1b0:	11133101 	tstne	r3, r1, lsl #2
     1b4:	58061201 	stmdapl	r6, {r0, r9, ip}
     1b8:	010b590b 	tsteq	fp, fp, lsl #18
     1bc:	24000013 	strcs	r0, [r0], #-19
     1c0:	1331011d 	teqne	r1, #1073741831	; 0x40000007
     1c4:	06120111 			; <UNDEFINED> instruction: 0x06120111
     1c8:	0b590b58 	bleq	1642f30 <__bss_end__+0x1638ab8>
     1cc:	05250000 	streq	r0, [r5, #-0]!
     1d0:	02133100 	andseq	r3, r3, #0, 2
     1d4:	26000018 			; <UNDEFINED> instruction: 0x26000018
     1d8:	1755010b 	ldrbne	r0, [r5, -fp, lsl #2]
     1dc:	00001301 	andeq	r1, r0, r1, lsl #6
     1e0:	31011d27 	tstcc	r1, r7, lsr #26
     1e4:	55015213 	strpl	r5, [r1, #-531]	; 0x213
     1e8:	590b5817 	stmdbpl	fp, {r0, r1, r2, r4, fp, ip, lr}
     1ec:	2800000b 	stmdacs	r0, {r0, r1, r3}
     1f0:	01018289 	smlabbeq	r1, r9, r2, r8
     1f4:	13310111 	teqne	r1, #1073741828	; 0x40000004
     1f8:	1d290000 	stcne	0, cr0, [r9, #-0]
     1fc:	52133101 	andspl	r3, r3, #1073741824	; 0x40000000
     200:	58175501 	ldmdapl	r7, {r0, r8, sl, ip, lr}
     204:	010b590b 	tsteq	fp, fp, lsl #18
     208:	2a000013 	bcs	25c <_start-0x7da4>
     20c:	0e030034 	mcreq	0, 0, r0, cr3, cr4, {1}
     210:	0b3b0b3a 	bleq	ec2f00 <__bss_end__+0xeb8a88>
     214:	061c1349 	ldreq	r1, [ip], -r9, asr #6
     218:	352b0000 	strcc	r0, [fp, #-0]!
     21c:	00134900 	andseq	r4, r3, r0, lsl #18
     220:	012e2c00 	teqeq	lr, r0, lsl #24
     224:	0e03193f 	mcreq	9, 0, r1, cr3, cr15, {1}
     228:	0b3b0b3a 	bleq	ec2f18 <__bss_end__+0xeb8aa0>
     22c:	193c1927 	ldmdbne	ip!, {r0, r1, r2, r5, r8, fp, ip}
     230:	00001301 	andeq	r1, r0, r1, lsl #6
     234:	4900052d 	stmdbmi	r0, {r0, r2, r3, r5, r8, sl}
     238:	2e000013 	mcrcs	0, 0, r0, cr0, cr3, {0}
     23c:	193f002e 	ldmdbne	pc!, {r1, r2, r3, r5}	; <UNPREDICTABLE>
     240:	0b3a0e03 	bleq	e83a54 <__bss_end__+0xe795dc>
     244:	19270b3b 	stmdbne	r7!, {r0, r1, r3, r4, r5, r8, r9, fp}
     248:	0000193c 	andeq	r1, r0, ip, lsr r9
     24c:	3f012e2f 	svccc	0x00012e2f
     250:	3a0e0319 	bcc	380ebc <__bss_end__+0x376a44>
     254:	270b3b0b 	strcs	r3, [fp, -fp, lsl #22]
     258:	3c134919 	ldccc	9, cr4, [r3], {25}
     25c:	00130119 	andseq	r0, r3, r9, lsl r1
     260:	00183000 	andseq	r3, r8, r0
     264:	2e310000 	cdpcs	0, 3, cr0, cr1, cr0, {0}
     268:	03193f01 	tsteq	r9, #1, 30
     26c:	3b0b3a0e 	blcc	2ceaac <__bss_end__+0x2c4634>
     270:	4919270b 	ldmdbmi	r9, {r0, r1, r3, r8, r9, sl, sp}
     274:	00193c13 	andseq	r3, r9, r3, lsl ip
     278:	11010000 	mrsne	r0, (UNDEF: 1)
     27c:	130e2501 	movwne	r2, #58625	; 0xe501
     280:	1b0e030b 	blne	380eb4 <__bss_end__+0x376a3c>
     284:	1201110e 	andne	r1, r1, #-2147483645	; 0x80000003
     288:	00171006 	andseq	r1, r7, r6
     28c:	00160200 	andseq	r0, r6, r0, lsl #4
     290:	0b3a0e03 	bleq	e83aa4 <__bss_end__+0xe7962c>
     294:	13490b3b 	movtne	r0, #39739	; 0x9b3b
     298:	13030000 	movwne	r0, #12288	; 0x3000
     29c:	0b0e0301 	bleq	380ea8 <__bss_end__+0x376a30>
     2a0:	3b0b3a0b 	blcc	2cead4 <__bss_end__+0x2c465c>
     2a4:	0013010b 	andseq	r0, r3, fp, lsl #2
     2a8:	000d0400 	andeq	r0, sp, r0, lsl #8
     2ac:	13490e03 	movtne	r0, #40451	; 0x9e03
     2b0:	19340b38 	ldmdbne	r4!, {r3, r4, r5, r8, r9, fp}
     2b4:	0f050000 	svceq	0x00050000
     2b8:	000b0b00 	andeq	r0, fp, r0, lsl #22
     2bc:	00240600 	eoreq	r0, r4, r0, lsl #12
     2c0:	0b3e0b0b 	bleq	f82ef4 <__bss_end__+0xf78a7c>
     2c4:	00000803 	andeq	r0, r0, r3, lsl #16
     2c8:	0b002407 	bleq	92ec <gpio_int_falling_edge+0x4>
     2cc:	030b3e0b 	movweq	r3, #48651	; 0xbe0b
     2d0:	0800000e 	stmdaeq	r0, {r1, r2, r3}
     2d4:	0b0b000f 	bleq	2c0318 <__bss_end__+0x2b5ea0>
     2d8:	00001349 	andeq	r1, r0, r9, asr #6
     2dc:	49002609 	stmdbmi	r0, {r0, r3, r9, sl, sp}
     2e0:	0a000013 	beq	334 <_start-0x7ccc>
     2e4:	193f012e 	ldmdbne	pc!, {r1, r2, r3, r5, r8}	; <UNPREDICTABLE>
     2e8:	0b3a0e03 	bleq	e83afc <__bss_end__+0xe79684>
     2ec:	19270b3b 	stmdbne	r7!, {r0, r1, r3, r4, r5, r8, r9, fp}
     2f0:	01111349 	tsteq	r1, r9, asr #6
     2f4:	18400612 	stmdane	r0, {r1, r4, r9, sl}^
     2f8:	01194297 			; <UNDEFINED> instruction: 0x01194297
     2fc:	0b000013 	bleq	350 <_start-0x7cb0>
     300:	08030005 	stmdaeq	r3, {r0, r2}
     304:	0b3b0b3a 	bleq	ec2ff4 <__bss_end__+0xeb8b7c>
     308:	18021349 	stmdane	r2, {r0, r3, r6, r8, r9, ip}
     30c:	180c0000 	stmdane	ip, {}	; <UNPREDICTABLE>
     310:	0d000000 	stceq	0, cr0, [r0, #-0]
     314:	08030034 	stmdaeq	r3, {r2, r4, r5}
     318:	0b3b0b3a 	bleq	ec3008 <__bss_end__+0xeb8b90>
     31c:	18021349 	stmdane	r2, {r0, r3, r6, r8, r9, ip}
     320:	340e0000 	strcc	r0, [lr], #-0
     324:	3a0e0300 	bcc	380f2c <__bss_end__+0x376ab4>
     328:	490b3b0b 	stmdbmi	fp, {r0, r1, r3, r8, r9, fp, ip, sp}
     32c:	00180213 	andseq	r0, r8, r3, lsl r2
     330:	00340f00 	eorseq	r0, r4, r0, lsl #30
     334:	0b3a0803 	bleq	e82348 <__bss_end__+0xe77ed0>
     338:	13490b3b 	movtne	r0, #39739	; 0x9b3b
     33c:	00001702 	andeq	r1, r0, r2, lsl #14
     340:	01828910 	orreq	r8, r2, r0, lsl r9
     344:	31011101 	tstcc	r1, r1, lsl #2
     348:	00130113 	andseq	r0, r3, r3, lsl r1
     34c:	828a1100 	addhi	r1, sl, #0, 2
     350:	18020001 	stmdane	r2, {r0}
     354:	00184291 	mulseq	r8, r1, r2
     358:	82891200 	addhi	r1, r9, #0, 4
     35c:	01110101 	tsteq	r1, r1, lsl #2
     360:	01130000 	tsteq	r3, r0
     364:	01134901 	tsteq	r3, r1, lsl #18
     368:	14000013 	strne	r0, [r0], #-19
     36c:	13490021 	movtne	r0, #36897	; 0x9021
     370:	0000052f 	andeq	r0, r0, pc, lsr #10
     374:	27011515 	smladcs	r1, r5, r5, r1
     378:	01134919 	tsteq	r3, r9, lsl r9
     37c:	16000013 			; <UNDEFINED> instruction: 0x16000013
     380:	13490005 	movtne	r0, #36869	; 0x9005
     384:	34170000 	ldrcc	r0, [r7], #-0
     388:	3a0e0300 	bcc	380f90 <__bss_end__+0x376b18>
     38c:	490b3b0b 	stmdbmi	fp, {r0, r1, r3, r8, r9, fp, ip, sp}
     390:	3c193f13 	ldccc	15, cr3, [r9], {19}
     394:	18000019 	stmdane	r0, {r0, r3, r4}
     398:	193f012e 	ldmdbne	pc!, {r1, r2, r3, r5, r8}	; <UNPREDICTABLE>
     39c:	0b3a0e03 	bleq	e83bb0 <__bss_end__+0xe79738>
     3a0:	19270b3b 	stmdbne	r7!, {r0, r1, r3, r4, r5, r8, r9, fp}
     3a4:	193c1349 	ldmdbne	ip!, {r0, r3, r6, r8, r9, ip}
     3a8:	01000000 	mrseq	r0, (UNDEF: 0)
     3ac:	0e250111 	mcreq	1, 1, r0, cr5, cr1, {0}
     3b0:	0e030b13 	vmoveq.32	d3[0], r0
     3b4:	01110e1b 	tsteq	r1, fp, lsl lr
     3b8:	17100612 			; <UNDEFINED> instruction: 0x17100612
     3bc:	24020000 	strcs	r0, [r2], #-0
     3c0:	3e0b0b00 	vmlacc.f64	d0, d11, d0
     3c4:	0008030b 	andeq	r0, r8, fp, lsl #6
     3c8:	00240300 	eoreq	r0, r4, r0, lsl #6
     3cc:	0b3e0b0b 	bleq	f83000 <__bss_end__+0xf78b88>
     3d0:	00000e03 	andeq	r0, r0, r3, lsl #28
     3d4:	03012e04 	movweq	r2, #7684	; 0x1e04
     3d8:	3b0b3a0e 	blcc	2cec18 <__bss_end__+0x2c47a0>
     3dc:	4919270b 	ldmdbmi	r9, {r0, r1, r3, r8, r9, sl, sp}
     3e0:	12011113 	andne	r1, r1, #-1073741820	; 0xc0000004
     3e4:	97184006 	ldrls	r4, [r8, -r6]
     3e8:	13011942 	movwne	r1, #6466	; 0x1942
     3ec:	05050000 	streq	r0, [r5, #-0]
     3f0:	3a080300 	bcc	200ff8 <__bss_end__+0x1f6b80>
     3f4:	490b3b0b 	stmdbmi	fp, {r0, r1, r3, r8, r9, fp, ip, sp}
     3f8:	00170213 	andseq	r0, r7, r3, lsl r2
     3fc:	82890600 	addhi	r0, r9, #0, 12
     400:	01110101 	tsteq	r1, r1, lsl #2
     404:	00001331 	andeq	r1, r0, r1, lsr r3
     408:	01828a07 	orreq	r8, r2, r7, lsl #20
     40c:	91180200 	tstls	r8, r0, lsl #4
     410:	00001842 	andeq	r1, r0, r2, asr #16
     414:	3f002e08 	svccc	0x00002e08
     418:	3a0e0319 	bcc	381084 <__bss_end__+0x376c0c>
     41c:	270b3b0b 	strcs	r3, [fp, -fp, lsl #22]
     420:	12011119 	andne	r1, r1, #1073741830	; 0x40000006
     424:	97184006 	ldrls	r4, [r8, -r6]
     428:	00001942 	andeq	r1, r0, r2, asr #18
     42c:	3f012e09 	svccc	0x00012e09
     430:	3a0e0319 	bcc	38109c <__bss_end__+0x376c24>
     434:	270b3b0b 	strcs	r3, [fp, -fp, lsl #22]
     438:	12011119 	andne	r1, r1, #1073741830	; 0x40000006
     43c:	97184006 	ldrls	r4, [r8, -r6]
     440:	13011942 	movwne	r1, #6466	; 0x1942
     444:	050a0000 	streq	r0, [sl, #-0]
     448:	3a080300 	bcc	201050 <__bss_end__+0x1f6bd8>
     44c:	490b3b0b 	stmdbmi	fp, {r0, r1, r3, r8, r9, fp, ip, sp}
     450:	00180213 	andseq	r0, r8, r3, lsl r2
     454:	01150b00 	tsteq	r5, r0, lsl #22
     458:	13491927 	movtne	r1, #39207	; 0x9927
     45c:	00001301 	andeq	r1, r0, r1, lsl #6
     460:	4900050c 	stmdbmi	r0, {r2, r3, r8, sl}
     464:	0d000013 	stceq	0, cr0, [r0, #-76]	; 0xffffffb4
     468:	0b0b000f 	bleq	2c04ac <__bss_end__+0x2b6034>
     46c:	00001349 	andeq	r1, r0, r9, asr #6
     470:	0300340e 	movweq	r3, #1038	; 0x40e
     474:	3b0b3a0e 	blcc	2cecb4 <__bss_end__+0x2c483c>
     478:	3f13490b 	svccc	0x0013490b
     47c:	00180219 	andseq	r0, r8, r9, lsl r2
     480:	012e0f00 	teqeq	lr, r0, lsl #30
     484:	0e03193f 	mcreq	9, 0, r1, cr3, cr15, {1}
     488:	0b3b0b3a 	bleq	ec3178 <__bss_end__+0xeb8d00>
     48c:	193c1927 	ldmdbne	ip!, {r0, r1, r2, r5, r8, fp, ip}
     490:	01000000 	mrseq	r0, (UNDEF: 0)
     494:	0e250111 	mcreq	1, 1, r0, cr5, cr1, {0}
     498:	0e030b13 	vmoveq.32	d3[0], r0
     49c:	01110e1b 	tsteq	r1, fp, lsl lr
     4a0:	17100612 			; <UNDEFINED> instruction: 0x17100612
     4a4:	24020000 	strcs	r0, [r2], #-0
     4a8:	3e0b0b00 	vmlacc.f64	d0, d11, d0
     4ac:	0008030b 	andeq	r0, r8, fp, lsl #6
     4b0:	00240300 	eoreq	r0, r4, r0, lsl #6
     4b4:	0b3e0b0b 	bleq	f830e8 <__bss_end__+0xf78c70>
     4b8:	00000e03 	andeq	r0, r0, r3, lsl #28
     4bc:	0b000f04 	bleq	40d4 <_start-0x3f2c>
     4c0:	0013490b 	andseq	r4, r3, fp, lsl #18
     4c4:	00260500 	eoreq	r0, r6, r0, lsl #10
     4c8:	00001349 	andeq	r1, r0, r9, asr #6
     4cc:	3f012e06 	svccc	0x00012e06
     4d0:	3a0e0319 	bcc	38113c <__bss_end__+0x376cc4>
     4d4:	270b3b0b 	strcs	r3, [fp, -fp, lsl #22]
     4d8:	11134919 	tstne	r3, r9, lsl r9
     4dc:	40061201 	andmi	r1, r6, r1, lsl #4
     4e0:	19429618 	stmdbne	r2, {r3, r4, r9, sl, ip, pc}^
     4e4:	00001301 	andeq	r1, r0, r1, lsl #6
     4e8:	03000507 	movweq	r0, #1287	; 0x507
     4ec:	3b0b3a08 	blcc	2ced14 <__bss_end__+0x2c489c>
     4f0:	0213490b 	andseq	r4, r3, #180224	; 0x2c000
     4f4:	08000017 	stmdaeq	r0, {r0, r1, r2, r4}
     4f8:	19270115 	stmdbne	r7!, {r0, r2, r4, r8}
     4fc:	13011349 	movwne	r1, #4937	; 0x1349
     500:	05090000 	streq	r0, [r9, #-0]
     504:	00134900 	andseq	r4, r3, r0, lsl #18
     508:	00340a00 	eorseq	r0, r4, r0, lsl #20
     50c:	0b3a0e03 	bleq	e83d20 <__bss_end__+0xe798a8>
     510:	13490b3b 	movtne	r0, #39739	; 0x9b3b
     514:	193c193f 	ldmdbne	ip!, {r0, r1, r2, r3, r4, r5, r8, fp, ip}
     518:	340b0000 	strcc	r0, [fp], #-0
     51c:	3a0e0300 	bcc	381124 <__bss_end__+0x376cac>
     520:	490b3b0b 	stmdbmi	fp, {r0, r1, r3, r8, r9, fp, ip, sp}
     524:	02193f13 	andseq	r3, r9, #19, 30	; 0x4c
     528:	00000018 	andeq	r0, r0, r8, lsl r0
     52c:	25011101 	strcs	r1, [r1, #-257]	; 0x101
     530:	030b130e 	movweq	r1, #45838	; 0xb30e
     534:	110e1b0e 	tstne	lr, lr, lsl #22
     538:	10061201 	andne	r1, r6, r1, lsl #4
     53c:	02000017 	andeq	r0, r0, #23
     540:	0b0b0024 	bleq	2c05d8 <__bss_end__+0x2b6160>
     544:	08030b3e 	stmdaeq	r3, {r1, r2, r3, r4, r5, r8, r9, fp}
     548:	24030000 	strcs	r0, [r3], #-0
     54c:	3e0b0b00 	vmlacc.f64	d0, d11, d0
     550:	000e030b 	andeq	r0, lr, fp, lsl #6
     554:	000f0400 	andeq	r0, pc, r0, lsl #8
     558:	00000b0b 	andeq	r0, r0, fp, lsl #22
     55c:	0b000f05 	bleq	4178 <_start-0x3e88>
     560:	0013490b 	andseq	r4, r3, fp, lsl #18
     564:	00260600 	eoreq	r0, r6, r0, lsl #12
     568:	00001349 	andeq	r1, r0, r9, asr #6
     56c:	03001607 	movweq	r1, #1543	; 0x607
     570:	3b0b3a0e 	blcc	2cedb0 <__bss_end__+0x2c4938>
     574:	0013490b 	andseq	r4, r3, fp, lsl #18
     578:	01130800 	tsteq	r3, r0, lsl #16
     57c:	0b0b0e03 	bleq	2c3d90 <__bss_end__+0x2b9918>
     580:	0b3b0b3a 	bleq	ec3270 <__bss_end__+0xeb8df8>
     584:	00001301 	andeq	r1, r0, r1, lsl #6
     588:	03000d09 	movweq	r0, #3337	; 0xd09
     58c:	3813490e 	ldmdacc	r3, {r1, r2, r3, r8, fp, lr}
     590:	0019340b 	andseq	r3, r9, fp, lsl #8
     594:	012e0a00 	teqeq	lr, r0, lsl #20
     598:	0b3a0e03 	bleq	e83dac <__bss_end__+0xe79934>
     59c:	19270b3b 	stmdbne	r7!, {r0, r1, r3, r4, r5, r8, r9, fp}
     5a0:	01111349 	tsteq	r1, r9, asr #6
     5a4:	18400612 	stmdane	r0, {r1, r4, r9, sl}^
     5a8:	01194297 			; <UNDEFINED> instruction: 0x01194297
     5ac:	0b000013 	bleq	600 <_start-0x7a00>
     5b0:	08030005 	stmdaeq	r3, {r0, r2}
     5b4:	0b3b0b3a 	bleq	ec32a4 <__bss_end__+0xeb8e2c>
     5b8:	17021349 	strne	r1, [r2, -r9, asr #6]
     5bc:	2e0c0000 	cdpcs	0, 0, cr0, cr12, cr0, {0}
     5c0:	3a080301 	bcc	2011cc <__bss_end__+0x1f6d54>
     5c4:	270b3b0b 	strcs	r3, [fp, -fp, lsl #22]
     5c8:	11134919 	tstne	r3, r9, lsl r9
     5cc:	40061201 	andmi	r1, r6, r1, lsl #4
     5d0:	19429718 	stmdbne	r2, {r3, r4, r8, r9, sl, ip, pc}^
     5d4:	00001301 	andeq	r1, r0, r1, lsl #6
     5d8:	0300050d 	movweq	r0, #1293	; 0x50d
     5dc:	3b0b3a0e 	blcc	2cee1c <__bss_end__+0x2c49a4>
     5e0:	0213490b 	andseq	r4, r3, #180224	; 0x2c000
     5e4:	0e000017 	mcreq	0, 0, r0, cr0, cr7, {0}
     5e8:	0e030005 	cdpeq	0, 0, cr0, cr3, cr5, {0}
     5ec:	0b3b0b3a 	bleq	ec32dc <__bss_end__+0xeb8e64>
     5f0:	18021349 	stmdane	r2, {r0, r3, r6, r8, r9, ip}
     5f4:	340f0000 	strcc	r0, [pc], #-0	; 5fc <_start-0x7a04>
     5f8:	3a080300 	bcc	201200 <__bss_end__+0x1f6d88>
     5fc:	490b3b0b 	stmdbmi	fp, {r0, r1, r3, r8, r9, fp, ip, sp}
     600:	00180213 	andseq	r0, r8, r3, lsl r2
     604:	00341000 	eorseq	r1, r4, r0
     608:	0b3a0803 	bleq	e8261c <__bss_end__+0xe781a4>
     60c:	13490b3b 	movtne	r0, #39739	; 0x9b3b
     610:	00001702 	andeq	r1, r0, r2, lsl #14
     614:	03003411 	movweq	r3, #1041	; 0x411
     618:	3413490e 	ldrcc	r4, [r3], #-2318	; 0x90e
     61c:	00180219 	andseq	r0, r8, r9, lsl r2
     620:	010b1200 	mrseq	r1, R11_fiq
     624:	06120111 			; <UNDEFINED> instruction: 0x06120111
     628:	00001301 	andeq	r1, r0, r1, lsl #6
     62c:	03003413 	movweq	r3, #1043	; 0x413
     630:	3b0b3a0e 	blcc	2cee70 <__bss_end__+0x2c49f8>
     634:	0213490b 	andseq	r4, r3, #180224	; 0x2c000
     638:	14000017 	strne	r0, [r0], #-23
     63c:	00018289 	andeq	r8, r1, r9, lsl #5
     640:	13310111 	teqne	r1, #1073741828	; 0x40000004
     644:	89150000 	ldmdbhi	r5, {}	; <UNPREDICTABLE>
     648:	11010182 	smlabbne	r1, r2, r1, r0
     64c:	01133101 	tsteq	r3, r1, lsl #2
     650:	16000013 			; <UNDEFINED> instruction: 0x16000013
     654:	0001828a 	andeq	r8, r1, sl, lsl #5
     658:	42911802 	addsmi	r1, r1, #131072	; 0x20000
     65c:	17000018 	smladne	r0, r8, r0, r0
     660:	01018289 	smlabbeq	r1, r9, r2, r8
     664:	13310111 	teqne	r1, #1073741828	; 0x40000004
     668:	01180000 	tsteq	r8, r0
     66c:	01134901 	tsteq	r3, r1, lsl #18
     670:	19000013 	stmdbne	r0, {r0, r1, r4}
     674:	13490021 	movtne	r0, #36897	; 0x9021
     678:	00000b2f 	andeq	r0, r0, pc, lsr #22
     67c:	3f012e1a 	svccc	0x00012e1a
     680:	3a0e0319 	bcc	3812ec <__bss_end__+0x376e74>
     684:	270b3b0b 	strcs	r3, [fp, -fp, lsl #22]
     688:	12011119 	andne	r1, r1, #1073741830	; 0x40000006
     68c:	97184006 	ldrls	r4, [r8, -r6]
     690:	13011942 	movwne	r1, #6466	; 0x1942
     694:	151b0000 	ldrne	r0, [fp, #-0]
     698:	49192701 	ldmdbmi	r9, {r0, r8, r9, sl, sp}
     69c:	00130113 	andseq	r0, r3, r3, lsl r1
     6a0:	00051c00 	andeq	r1, r5, r0, lsl #24
     6a4:	00001349 	andeq	r1, r0, r9, asr #6
     6a8:	3f012e1d 	svccc	0x00012e1d
     6ac:	3a0e0319 	bcc	381318 <__bss_end__+0x376ea0>
     6b0:	270b3b0b 	strcs	r3, [fp, -fp, lsl #22]
     6b4:	11134919 	tstne	r3, r9, lsl r9
     6b8:	40061201 	andmi	r1, r6, r1, lsl #4
     6bc:	19429718 	stmdbne	r2, {r3, r4, r8, r9, sl, ip, pc}^
     6c0:	00001301 	andeq	r1, r0, r1, lsl #6
     6c4:	55010b1e 	strpl	r0, [r1, #-2846]	; 0xb1e
     6c8:	1f000017 	svcne	0x00000017
     6cc:	0e030034 	mcreq	0, 0, r0, cr3, cr4, {1}
     6d0:	0b3b0b3a 	bleq	ec33c0 <__bss_end__+0xeb8f48>
     6d4:	193f1349 	ldmdbne	pc!, {r0, r3, r6, r8, r9, ip}	; <UNPREDICTABLE>
     6d8:	0000193c 	andeq	r1, r0, ip, lsr r9
     6dc:	3f002e20 	svccc	0x00002e20
     6e0:	3a0e0319 	bcc	38134c <__bss_end__+0x376ed4>
     6e4:	270b3b0b 	strcs	r3, [fp, -fp, lsl #22]
     6e8:	00193c19 	andseq	r3, r9, r9, lsl ip
     6ec:	012e2100 	teqeq	lr, r0, lsl #2
     6f0:	0e03193f 	mcreq	9, 0, r1, cr3, cr15, {1}
     6f4:	0b3b0b3a 	bleq	ec33e4 <__bss_end__+0xeb8f6c>
     6f8:	13491927 	movtne	r1, #39207	; 0x9927
     6fc:	1301193c 	movwne	r1, #6460	; 0x193c
     700:	18220000 	stmdane	r2!, {}	; <UNPREDICTABLE>
     704:	00000000 	andeq	r0, r0, r0
     708:	25011101 	strcs	r1, [r1, #-257]	; 0x101
     70c:	030b130e 	movweq	r1, #45838	; 0xb30e
     710:	110e1b0e 	tstne	lr, lr, lsl #22
     714:	10061201 	andne	r1, r6, r1, lsl #4
     718:	02000017 	andeq	r0, r0, #23
     71c:	0b0b0024 	bleq	2c07b4 <__bss_end__+0x2b633c>
     720:	08030b3e 	stmdaeq	r3, {r1, r2, r3, r4, r5, r8, r9, fp}
     724:	24030000 	strcs	r0, [r3], #-0
     728:	3e0b0b00 	vmlacc.f64	d0, d11, d0
     72c:	000e030b 	andeq	r0, lr, fp, lsl #6
     730:	012e0400 	teqeq	lr, r0, lsl #8
     734:	0e03193f 	mcreq	9, 0, r1, cr3, cr15, {1}
     738:	0b3b0b3a 	bleq	ec3428 <__bss_end__+0xeb8fb0>
     73c:	01111927 	tsteq	r1, r7, lsr #18
     740:	18400612 	stmdane	r0, {r1, r4, r9, sl}^
     744:	01194297 			; <UNDEFINED> instruction: 0x01194297
     748:	05000013 	streq	r0, [r0, #-19]
     74c:	08030034 	stmdaeq	r3, {r2, r4, r5}
     750:	0b3b0b3a 	bleq	ec3440 <__bss_end__+0xeb8fc8>
     754:	17021349 	strne	r1, [r2, -r9, asr #6]
     758:	2e060000 	cdpcs	0, 0, cr0, cr6, cr0, {0}
     75c:	03193f01 	tsteq	r9, #1, 30
     760:	3b0b3a0e 	blcc	2cefa0 <__bss_end__+0x2c4b28>
     764:	1119270b 	tstne	r9, fp, lsl #14
     768:	40061201 	andmi	r1, r6, r1, lsl #4
     76c:	19429718 	stmdbne	r2, {r3, r4, r8, r9, sl, ip, pc}^
     770:	01000000 	mrseq	r0, (UNDEF: 0)
     774:	0e250111 	mcreq	1, 1, r0, cr5, cr1, {0}
     778:	0e030b13 	vmoveq.32	d3[0], r0
     77c:	01110e1b 	tsteq	r1, fp, lsl lr
     780:	17100612 			; <UNDEFINED> instruction: 0x17100612
     784:	24020000 	strcs	r0, [r2], #-0
     788:	3e0b0b00 	vmlacc.f64	d0, d11, d0
     78c:	0008030b 	andeq	r0, r8, fp, lsl #6
     790:	00240300 	eoreq	r0, r4, r0, lsl #6
     794:	0b3e0b0b 	bleq	f833c8 <__bss_end__+0xf78f50>
     798:	00000e03 	andeq	r0, r0, r3, lsl #28
     79c:	0b000f04 	bleq	43b4 <_start-0x3c4c>
     7a0:	0013490b 	andseq	r4, r3, fp, lsl #18
     7a4:	00260500 	eoreq	r0, r6, r0, lsl #10
     7a8:	00001349 	andeq	r1, r0, r9, asr #6
     7ac:	3f012e06 	svccc	0x00012e06
     7b0:	3a0e0319 	bcc	38141c <__bss_end__+0x376fa4>
     7b4:	270b3b0b 	strcs	r3, [fp, -fp, lsl #22]
     7b8:	12011119 	andne	r1, r1, #1073741830	; 0x40000006
     7bc:	97184006 	ldrls	r4, [r8, -r6]
     7c0:	13011942 	movwne	r1, #6466	; 0x1942
     7c4:	89070000 	stmdbhi	r7, {}	; <UNPREDICTABLE>
     7c8:	11010182 	smlabbne	r1, r2, r1, r0
     7cc:	00130101 	andseq	r0, r3, r1, lsl #2
     7d0:	828a0800 	addhi	r0, sl, #0, 16
     7d4:	18020001 	stmdane	r2, {r0}
     7d8:	00184291 	mulseq	r8, r1, r2
     7dc:	82890900 	addhi	r0, r9, #0, 18
     7e0:	01110101 	tsteq	r1, r1, lsl #2
     7e4:	13011331 	movwne	r1, #4913	; 0x1331
     7e8:	890a0000 	stmdbhi	sl, {}	; <UNPREDICTABLE>
     7ec:	11000182 	smlabbne	r0, r2, r1, r0
     7f0:	00133101 	andseq	r3, r3, r1, lsl #2
     7f4:	01150b00 	tsteq	r5, r0, lsl #22
     7f8:	13491927 	movtne	r1, #39207	; 0x9927
     7fc:	00001301 	andeq	r1, r0, r1, lsl #6
     800:	4900050c 	stmdbmi	r0, {r2, r3, r8, sl}
     804:	0d000013 	stceq	0, cr0, [r0, #-76]	; 0xffffffb4
     808:	0e030034 	mcreq	0, 0, r0, cr3, cr4, {1}
     80c:	0b3b0b3a 	bleq	ec34fc <__bss_end__+0xeb9084>
     810:	193f1349 	ldmdbne	pc!, {r0, r3, r6, r8, r9, ip}	; <UNPREDICTABLE>
     814:	0000193c 	andeq	r1, r0, ip, lsr r9
     818:	3f012e0e 	svccc	0x00012e0e
     81c:	3a0e0319 	bcc	381488 <__bss_end__+0x377010>
     820:	270b3b0b 	strcs	r3, [fp, -fp, lsl #22]
     824:	01193c19 	tsteq	r9, r9, lsl ip
     828:	0f000013 	svceq	0x00000013
     82c:	193f002e 	ldmdbne	pc!, {r1, r2, r3, r5}	; <UNPREDICTABLE>
     830:	0b3a0e03 	bleq	e84044 <__bss_end__+0xe79bcc>
     834:	19270b3b 	stmdbne	r7!, {r0, r1, r3, r4, r5, r8, r9, fp}
     838:	0000193c 	andeq	r1, r0, ip, lsr r9
     83c:	01110100 	tsteq	r1, r0, lsl #2
     840:	0b130e25 	bleq	4c40dc <__bss_end__+0x4b9c64>
     844:	0e1b0e03 	cdpeq	14, 1, cr0, cr11, cr3, {0}
     848:	06120111 			; <UNDEFINED> instruction: 0x06120111
     84c:	00001710 	andeq	r1, r0, r0, lsl r7
     850:	0b002402 	bleq	9860 <sw_uart_gets_timeout+0x58>
     854:	030b3e0b 	movweq	r3, #48651	; 0xbe0b
     858:	03000008 	movweq	r0, #8
     85c:	0b0b0024 	bleq	2c08f4 <__bss_end__+0x2b647c>
     860:	0e030b3e 	vmoveq.16	d3[0], r0
     864:	16040000 	strne	r0, [r4], -r0
     868:	3a0e0300 	bcc	381470 <__bss_end__+0x376ff8>
     86c:	490b3b0b 	stmdbmi	fp, {r0, r1, r3, r8, r9, fp, ip, sp}
     870:	05000013 	streq	r0, [r0, #-19]
     874:	0b0b000f 	bleq	2c08b8 <__bss_end__+0x2b6440>
     878:	00001349 	andeq	r1, r0, r9, asr #6
     87c:	49002606 	stmdbmi	r0, {r1, r2, r9, sl, sp}
     880:	07000013 	smladeq	r0, r3, r0, r0
     884:	0b0b0113 	bleq	2c0cd8 <__bss_end__+0x2b6860>
     888:	0b3b0b3a 	bleq	ec3578 <__bss_end__+0xeb9100>
     88c:	00001301 	andeq	r1, r0, r1, lsl #6
     890:	03000d08 	movweq	r0, #3336	; 0xd08
     894:	3b0b3a08 	blcc	2cf0bc <__bss_end__+0x2c4c44>
     898:	3813490b 	ldmdacc	r3, {r0, r1, r3, r8, fp, lr}
     89c:	0900000b 	stmdbeq	r0, {r0, r1, r3}
     8a0:	0e03000d 	cdpeq	0, 0, cr0, cr3, cr13, {0}
     8a4:	0b3b0b3a 	bleq	ec3594 <__bss_end__+0xeb911c>
     8a8:	0b381349 	bleq	e055d4 <__bss_end__+0xdfb15c>
     8ac:	040a0000 	streq	r0, [sl], #-0
     8b0:	3a0b0b01 	bcc	2c34bc <__bss_end__+0x2b9044>
     8b4:	010b3b0b 	tsteq	fp, fp, lsl #22
     8b8:	0b000013 	bleq	90c <_start-0x76f4>
     8bc:	0e030028 	cdpeq	0, 0, cr0, cr3, cr8, {1}
     8c0:	00000d1c 	andeq	r0, r0, ip, lsl sp
     8c4:	03012e0c 	movweq	r2, #7692	; 0x1e0c
     8c8:	3b0b3a0e 	blcc	2cf108 <__bss_end__+0x2c4c90>
     8cc:	4919270b 	ldmdbmi	r9, {r0, r1, r3, r8, r9, sl, sp}
     8d0:	12011113 	andne	r1, r1, #-1073741820	; 0xc0000004
     8d4:	97184006 	ldrls	r4, [r8, -r6]
     8d8:	13011942 	movwne	r1, #6466	; 0x1942
     8dc:	050d0000 	streq	r0, [sp, #-0]
     8e0:	3a080300 	bcc	2014e8 <__bss_end__+0x1f7070>
     8e4:	490b3b0b 	stmdbmi	fp, {r0, r1, r3, r8, r9, fp, ip, sp}
     8e8:	00170213 	andseq	r0, r7, r3, lsl r2
     8ec:	82890e00 	addhi	r0, r9, #0, 28
     8f0:	01110101 	tsteq	r1, r1, lsl #2
     8f4:	00001331 	andeq	r1, r0, r1, lsr r3
     8f8:	01828a0f 	orreq	r8, r2, pc, lsl #20
     8fc:	91180200 	tstls	r8, r0, lsl #4
     900:	00001842 	andeq	r1, r0, r2, asr #16
     904:	3f012e10 	svccc	0x00012e10
     908:	3a0e0319 	bcc	381574 <__bss_end__+0x3770fc>
     90c:	110b3b0b 	tstne	fp, fp, lsl #22
     910:	40061201 	andmi	r1, r6, r1, lsl #4
     914:	19429718 	stmdbne	r2, {r3, r4, r8, r9, sl, ip, pc}^
     918:	00001301 	andeq	r1, r0, r1, lsl #6
     91c:	03003411 	movweq	r3, #1041	; 0x411
     920:	3b0b3a0e 	blcc	2cf160 <__bss_end__+0x2c4ce8>
     924:	3f13490b 	svccc	0x0013490b
     928:	00193c19 	andseq	r3, r9, r9, lsl ip
     92c:	002e1200 	eoreq	r1, lr, r0, lsl #4
     930:	0e03193f 	mcreq	9, 0, r1, cr3, cr15, {1}
     934:	0b3b0b3a 	bleq	ec3624 <__bss_end__+0xeb91ac>
     938:	193c1927 	ldmdbne	ip!, {r0, r1, r2, r5, r8, fp, ip}
     93c:	34130000 	ldrcc	r0, [r3], #-0
     940:	3a080300 	bcc	201548 <__bss_end__+0x1f70d0>
     944:	490b3b0b 	stmdbmi	fp, {r0, r1, r3, r8, r9, fp, ip, sp}
     948:	00170213 	andseq	r0, r7, r3, lsl r2
     94c:	00341400 	eorseq	r1, r4, r0, lsl #8
     950:	0b3a0e03 	bleq	e84164 <__bss_end__+0xe79cec>
     954:	13490b3b 	movtne	r0, #39739	; 0x9b3b
     958:	89150000 	ldmdbhi	r5, {}	; <UNPREDICTABLE>
     95c:	11000182 	smlabbne	r0, r2, r1, r0
     960:	00133101 	andseq	r3, r3, r1, lsl #2
     964:	82891600 	addhi	r1, r9, #0, 12
     968:	01110101 	tsteq	r1, r1, lsl #2
     96c:	13011331 	movwne	r1, #4913	; 0x1331
     970:	34170000 	ldrcc	r0, [r7], #-0
     974:	3a0e0300 	bcc	38157c <__bss_end__+0x377104>
     978:	490b3b0b 	stmdbmi	fp, {r0, r1, r3, r8, r9, fp, ip, sp}
     97c:	00180213 	andseq	r0, r8, r3, lsl r2
     980:	01151800 	tsteq	r5, r0, lsl #16
     984:	13491927 	movtne	r1, #39207	; 0x9927
     988:	00001301 	andeq	r1, r0, r1, lsl #6
     98c:	49000519 	stmdbmi	r0, {r0, r3, r4, r8, sl}
     990:	1a000013 	bne	9e4 <_start-0x761c>
     994:	193f012e 	ldmdbne	pc!, {r1, r2, r3, r5, r8}	; <UNPREDICTABLE>
     998:	0b3a0e03 	bleq	e841ac <__bss_end__+0xe79d34>
     99c:	19270b3b 	stmdbne	r7!, {r0, r1, r3, r4, r5, r8, r9, fp}
     9a0:	1301193c 	movwne	r1, #6460	; 0x193c
     9a4:	2e1b0000 	cdpcs	0, 1, cr0, cr11, cr0, {0}
     9a8:	03193f00 	tsteq	r9, #0, 30
     9ac:	3b0b3a0e 	blcc	2cf1ec <__bss_end__+0x2c4d74>
     9b0:	4919270b 	ldmdbmi	r9, {r0, r1, r3, r8, r9, sl, sp}
     9b4:	00193c13 	andseq	r3, r9, r3, lsl ip
     9b8:	012e1c00 	teqeq	lr, r0, lsl #24
     9bc:	0e03193f 	mcreq	9, 0, r1, cr3, cr15, {1}
     9c0:	0b3b0b3a 	bleq	ec36b0 <__bss_end__+0xeb9238>
     9c4:	13491927 	movtne	r1, #39207	; 0x9927
     9c8:	1301193c 	movwne	r1, #6460	; 0x193c
     9cc:	181d0000 	ldmdane	sp, {}	; <UNPREDICTABLE>
     9d0:	00000000 	andeq	r0, r0, r0
     9d4:	25011101 	strcs	r1, [r1, #-257]	; 0x101
     9d8:	030b130e 	movweq	r1, #45838	; 0xb30e
     9dc:	550e1b0e 	strpl	r1, [lr, #-2830]	; 0xb0e
     9e0:	10011117 	andne	r1, r1, r7, lsl r1
     9e4:	02000017 	andeq	r0, r0, #23
     9e8:	0b0b0024 	bleq	2c0a80 <__bss_end__+0x2b6608>
     9ec:	08030b3e 	stmdaeq	r3, {r1, r2, r3, r4, r5, r8, r9, fp}
     9f0:	24030000 	strcs	r0, [r3], #-0
     9f4:	3e0b0b00 	vmlacc.f64	d0, d11, d0
     9f8:	000e030b 	andeq	r0, lr, fp, lsl #6
     9fc:	012e0400 	teqeq	lr, r0, lsl #8
     a00:	0e03193f 	mcreq	9, 0, r1, cr3, cr15, {1}
     a04:	0b3b0b3a 	bleq	ec36f4 <__bss_end__+0xeb927c>
     a08:	13491927 	movtne	r1, #39207	; 0x9927
     a0c:	06120111 			; <UNDEFINED> instruction: 0x06120111
     a10:	42971840 	addsmi	r1, r7, #64, 16	; 0x400000
     a14:	00130119 	andseq	r0, r3, r9, lsl r1
     a18:	00340500 	eorseq	r0, r4, r0, lsl #10
     a1c:	0b3a0e03 	bleq	e84230 <__bss_end__+0xe79db8>
     a20:	13490b3b 	movtne	r0, #39739	; 0x9b3b
     a24:	00001702 	andeq	r1, r0, r2, lsl #14
     a28:	3f012e06 	svccc	0x00012e06
     a2c:	3a0e0319 	bcc	381698 <__bss_end__+0x377220>
     a30:	270b3b0b 	strcs	r3, [fp, -fp, lsl #22]
     a34:	12011119 	andne	r1, r1, #1073741830	; 0x40000006
     a38:	97184006 	ldrls	r4, [r8, -r6]
     a3c:	13011942 	movwne	r1, #6466	; 0x1942
     a40:	34070000 	strcc	r0, [r7], #-0
     a44:	3a0e0300 	bcc	38164c <__bss_end__+0x3771d4>
     a48:	490b3b0b 	stmdbmi	fp, {r0, r1, r3, r8, r9, fp, ip, sp}
     a4c:	00061c13 	andeq	r1, r6, r3, lsl ip
     a50:	00340800 	eorseq	r0, r4, r0, lsl #16
     a54:	0b3a0e03 	bleq	e84268 <__bss_end__+0xe79df0>
     a58:	13490b3b 	movtne	r0, #39739	; 0x9b3b
     a5c:	00000b1c 	andeq	r0, r0, ip, lsl fp
     a60:	01828909 	orreq	r8, r2, r9, lsl #18
     a64:	31011100 	mrscc	r1, (UNDEF: 17)
     a68:	0a000013 	beq	abc <_start-0x7544>
     a6c:	01018289 	smlabbeq	r1, r9, r2, r8
     a70:	13310111 	teqne	r1, #1073741828	; 0x40000004
     a74:	00001301 	andeq	r1, r0, r1, lsl #6
     a78:	01828a0b 	orreq	r8, r2, fp, lsl #20
     a7c:	91180200 	tstls	r8, r0, lsl #4
     a80:	00001842 	andeq	r1, r0, r2, asr #16
     a84:	0182890c 	orreq	r8, r2, ip, lsl #18
     a88:	31011101 	tstcc	r1, r1, lsl #2
     a8c:	0d000013 	stceq	0, cr0, [r0, #-76]	; 0xffffffb4
     a90:	13490026 	movtne	r0, #36902	; 0x9026
     a94:	2e0e0000 	cdpcs	0, 0, cr0, cr14, cr0, {0}
     a98:	03193f01 	tsteq	r9, #1, 30
     a9c:	3b0b3a0e 	blcc	2cf2dc <__bss_end__+0x2c4e64>
     aa0:	3c19270b 	ldccc	7, cr2, [r9], {11}
     aa4:	00130119 	andseq	r0, r3, r9, lsl r1
     aa8:	00050f00 	andeq	r0, r5, r0, lsl #30
     aac:	00001349 	andeq	r1, r0, r9, asr #6
     ab0:	3f012e10 	svccc	0x00012e10
     ab4:	3a0e0319 	bcc	381720 <__bss_end__+0x3772a8>
     ab8:	270b3b0b 	strcs	r3, [fp, -fp, lsl #22]
     abc:	00193c19 	andseq	r3, r9, r9, lsl ip
     ac0:	11010000 	mrsne	r0, (UNDEF: 1)
     ac4:	130e2501 	movwne	r2, #58625	; 0xe501
     ac8:	1b0e030b 	blne	3816fc <__bss_end__+0x377284>
     acc:	1201110e 	andne	r1, r1, #-2147483645	; 0x80000003
     ad0:	00171006 	andseq	r1, r7, r6
     ad4:	00240200 	eoreq	r0, r4, r0, lsl #4
     ad8:	0b3e0b0b 	bleq	f8370c <__bss_end__+0xf79294>
     adc:	00000803 	andeq	r0, r0, r3, lsl #16
     ae0:	0b002403 	bleq	9af4 <uart_init+0x44>
     ae4:	030b3e0b 	movweq	r3, #48651	; 0xbe0b
     ae8:	0400000e 	streq	r0, [r0], #-14
     aec:	193f012e 	ldmdbne	pc!, {r1, r2, r3, r5, r8}	; <UNPREDICTABLE>
     af0:	0b3a0e03 	bleq	e84304 <__bss_end__+0xe79e8c>
     af4:	19270b3b 	stmdbne	r7!, {r0, r1, r3, r4, r5, r8, r9, fp}
     af8:	06120111 			; <UNDEFINED> instruction: 0x06120111
     afc:	42971840 	addsmi	r1, r7, #64, 16	; 0x400000
     b00:	00130119 	andseq	r0, r3, r9, lsl r1
     b04:	00050500 	andeq	r0, r5, r0, lsl #10
     b08:	0b3a0e03 	bleq	e8431c <__bss_end__+0xe79ea4>
     b0c:	13490b3b 	movtne	r0, #39739	; 0x9b3b
     b10:	00001702 	andeq	r1, r0, r2, lsl #14
     b14:	3f012e06 	svccc	0x00012e06
     b18:	3a0e0319 	bcc	381784 <__bss_end__+0x37730c>
     b1c:	270b3b0b 	strcs	r3, [fp, -fp, lsl #22]
     b20:	11134919 	tstne	r3, r9, lsl r9
     b24:	40061201 	andmi	r1, r6, r1, lsl #4
     b28:	19429718 	stmdbne	r2, {r3, r4, r8, r9, sl, ip, pc}^
     b2c:	00001301 	andeq	r1, r0, r1, lsl #6
     b30:	01828907 	orreq	r8, r2, r7, lsl #18
     b34:	31011101 	tstcc	r1, r1, lsl #2
     b38:	08000013 	stmdaeq	r0, {r0, r1, r4}
     b3c:	0001828a 	andeq	r8, r1, sl, lsl #5
     b40:	42911802 	addsmi	r1, r1, #131072	; 0x20000
     b44:	09000018 	stmdbeq	r0, {r3, r4}
     b48:	08030034 	stmdaeq	r3, {r2, r4, r5}
     b4c:	0b3b0b3a 	bleq	ec383c <__bss_end__+0xeb93c4>
     b50:	18021349 	stmdane	r2, {r0, r3, r6, r8, r9, ip}
     b54:	890a0000 	stmdbhi	sl, {}	; <UNPREDICTABLE>
     b58:	11000182 	smlabbne	r0, r2, r1, r0
     b5c:	00133101 	andseq	r3, r3, r1, lsl #2
     b60:	00050b00 	andeq	r0, r5, r0, lsl #22
     b64:	0b3a0803 	bleq	e82b78 <__bss_end__+0xe78700>
     b68:	13490b3b 	movtne	r0, #39739	; 0x9b3b
     b6c:	00001702 	andeq	r1, r0, r2, lsl #14
     b70:	11010b0c 	tstne	r1, ip, lsl #22
     b74:	01061201 	tsteq	r6, r1, lsl #4
     b78:	0d000013 	stceq	0, cr0, [r0, #-76]	; 0xffffffb4
     b7c:	08030034 	stmdaeq	r3, {r2, r4, r5}
     b80:	0b3b0b3a 	bleq	ec3870 <__bss_end__+0xeb93f8>
     b84:	17021349 	strne	r1, [r2, -r9, asr #6]
     b88:	2e0e0000 	cdpcs	0, 0, cr0, cr14, cr0, {0}
     b8c:	03193f01 	tsteq	r9, #1, 30
     b90:	3b0b3a0e 	blcc	2cf3d0 <__bss_end__+0x2c4f58>
     b94:	4919270b 	ldmdbmi	r9, {r0, r1, r3, r8, r9, sl, sp}
     b98:	00193c13 	andseq	r3, r9, r3, lsl ip
     b9c:	00050f00 	andeq	r0, r5, r0, lsl #30
     ba0:	00001349 	andeq	r1, r0, r9, asr #6
     ba4:	01110100 	tsteq	r1, r0, lsl #2
     ba8:	0b130e25 	bleq	4c4444 <__bss_end__+0x4b9fcc>
     bac:	0e1b0e03 	cdpeq	14, 1, cr0, cr11, cr3, {0}
     bb0:	06120111 			; <UNDEFINED> instruction: 0x06120111
     bb4:	00001710 	andeq	r1, r0, r0, lsl r7
     bb8:	0b002402 	bleq	9bc8 <uart_putc+0x1c>
     bbc:	030b3e0b 	movweq	r3, #48651	; 0xbe0b
     bc0:	0300000e 	movweq	r0, #14
     bc4:	0b0b0024 	bleq	2c0c5c <__bss_end__+0x2b67e4>
     bc8:	08030b3e 	stmdaeq	r3, {r1, r2, r3, r4, r5, r8, r9, fp}
     bcc:	04040000 	streq	r0, [r4], #-0
     bd0:	3a0b0b01 	bcc	2c37dc <__bss_end__+0x2b9364>
     bd4:	010b3b0b 	tsteq	fp, fp, lsl #22
     bd8:	05000013 	streq	r0, [r0, #-19]
     bdc:	0e030028 	cdpeq	0, 0, cr0, cr3, cr8, {1}
     be0:	00000d1c 	andeq	r0, r0, ip, lsl sp
     be4:	03001606 	movweq	r1, #1542	; 0x606
     be8:	3b0b3a0e 	blcc	2cf428 <__bss_end__+0x2c4fb0>
     bec:	0013490b 	andseq	r4, r3, fp, lsl #18
     bf0:	012e0700 	teqeq	lr, r0, lsl #14
     bf4:	0e03193f 	mcreq	9, 0, r1, cr3, cr15, {1}
     bf8:	0b3b0b3a 	bleq	ec38e8 <__bss_end__+0xeb9470>
     bfc:	01111927 	tsteq	r1, r7, lsr #18
     c00:	18400612 	stmdane	r0, {r1, r4, r9, sl}^
     c04:	01194297 			; <UNDEFINED> instruction: 0x01194297
     c08:	08000013 	stmdaeq	r0, {r0, r1, r4}
     c0c:	08030005 	stmdaeq	r3, {r0, r2}
     c10:	0b3b0b3a 	bleq	ec3900 <__bss_end__+0xeb9488>
     c14:	17021349 	strne	r1, [r2, -r9, asr #6]
     c18:	34090000 	strcc	r0, [r9], #-0
     c1c:	3a0e0300 	bcc	381824 <__bss_end__+0x3773ac>
     c20:	490b3b0b 	stmdbmi	fp, {r0, r1, r3, r8, r9, fp, ip, sp}
     c24:	00170213 	andseq	r0, r7, r3, lsl r2
     c28:	82890a00 	addhi	r0, r9, #0, 20
     c2c:	01110101 	tsteq	r1, r1, lsl #2
     c30:	13011331 	movwne	r1, #4913	; 0x1331
     c34:	8a0b0000 	bhi	2c0c3c <__bss_end__+0x2b67c4>
     c38:	02000182 	andeq	r0, r0, #-2147483616	; 0x80000020
     c3c:	18429118 	stmdane	r2, {r3, r4, r8, ip, pc}^
     c40:	890c0000 	stmdbhi	ip, {}	; <UNPREDICTABLE>
     c44:	11010182 	smlabbne	r1, r2, r1, r0
     c48:	00133101 	andseq	r3, r3, r1, lsl #2
     c4c:	000f0d00 	andeq	r0, pc, r0, lsl #26
     c50:	13490b0b 	movtne	r0, #39691	; 0x9b0b
     c54:	350e0000 	strcc	r0, [lr, #-0]
     c58:	00134900 	andseq	r4, r3, r0, lsl #18
     c5c:	012e0f00 	teqeq	lr, r0, lsl #30
     c60:	0e03193f 	mcreq	9, 0, r1, cr3, cr15, {1}
     c64:	0b3b0b3a 	bleq	ec3954 <__bss_end__+0xeb94dc>
     c68:	13491927 	movtne	r1, #39207	; 0x9927
     c6c:	06120111 			; <UNDEFINED> instruction: 0x06120111
     c70:	42971840 	addsmi	r1, r7, #64, 16	; 0x400000
     c74:	00130119 	andseq	r0, r3, r9, lsl r1
     c78:	00341000 	eorseq	r1, r4, r0
     c7c:	0b3a0803 	bleq	e82c90 <__bss_end__+0xe78818>
     c80:	13490b3b 	movtne	r0, #39739	; 0x9b3b
     c84:	00001702 	andeq	r1, r0, r2, lsl #14
     c88:	01828911 	orreq	r8, r2, r1, lsl r9
     c8c:	31011100 	mrscc	r1, (UNDEF: 17)
     c90:	12000013 	andne	r0, r0, #19
     c94:	0e030005 	cdpeq	0, 0, cr0, cr3, cr5, {0}
     c98:	0b3b0b3a 	bleq	ec3988 <__bss_end__+0xeb9510>
     c9c:	17021349 	strne	r1, [r2, -r9, asr #6]
     ca0:	2e130000 	cdpcs	0, 1, cr0, cr3, cr0, {0}
     ca4:	03193f01 	tsteq	r9, #1, 30
     ca8:	3b0b3a0e 	blcc	2cf4e8 <__bss_end__+0x2c5070>
     cac:	49192705 	ldmdbmi	r9, {r0, r2, r8, r9, sl, sp}
     cb0:	12011113 	andne	r1, r1, #-1073741820	; 0xc0000004
     cb4:	97184006 	ldrls	r4, [r8, -r6]
     cb8:	13011942 	movwne	r1, #6466	; 0x1942
     cbc:	05140000 	ldreq	r0, [r4, #-0]
     cc0:	3a0e0300 	bcc	3818c8 <__bss_end__+0x377450>
     cc4:	49053b0b 	stmdbmi	r5, {r0, r1, r3, r8, r9, fp, ip, sp}
     cc8:	00170213 	andseq	r0, r7, r3, lsl r2
     ccc:	012e1500 	teqeq	lr, r0, lsl #10
     cd0:	0e03193f 	mcreq	9, 0, r1, cr3, cr15, {1}
     cd4:	053b0b3a 	ldreq	r0, [fp, #-2874]!	; 0xb3a
     cd8:	01111927 	tsteq	r1, r7, lsr #18
     cdc:	18400612 	stmdane	r0, {r1, r4, r9, sl}^
     ce0:	01194297 			; <UNDEFINED> instruction: 0x01194297
     ce4:	16000013 			; <UNDEFINED> instruction: 0x16000013
     ce8:	08030005 	stmdaeq	r3, {r0, r2}
     cec:	053b0b3a 	ldreq	r0, [fp, #-2874]!	; 0xb3a
     cf0:	17021349 	strne	r1, [r2, -r9, asr #6]
     cf4:	34170000 	ldrcc	r0, [r7], #-0
     cf8:	3a0e0300 	bcc	381900 <__bss_end__+0x377488>
     cfc:	49053b0b 	stmdbmi	r5, {r0, r1, r3, r8, r9, fp, ip, sp}
     d00:	00170213 	andseq	r0, r7, r3, lsl r2
     d04:	010b1800 	tsteq	fp, r0, lsl #16
     d08:	06120111 			; <UNDEFINED> instruction: 0x06120111
     d0c:	00001301 	andeq	r1, r0, r1, lsl #6
     d10:	03003419 	movweq	r3, #1049	; 0x419
     d14:	3b0b3a0e 	blcc	2cf554 <__bss_end__+0x2c50dc>
     d18:	3f13490b 	svccc	0x0013490b
     d1c:	00180219 	andseq	r0, r8, r9, lsl r2
     d20:	00341a00 	eorseq	r1, r4, r0, lsl #20
     d24:	0b3a0e03 	bleq	e84538 <__bss_end__+0xe7a0c0>
     d28:	1349053b 	movtne	r0, #38203	; 0x953b
     d2c:	1802193f 	stmdane	r2, {r0, r1, r2, r3, r4, r5, r8, fp, ip}
     d30:	2e1b0000 	cdpcs	0, 1, cr0, cr11, cr0, {0}
     d34:	03193f01 	tsteq	r9, #1, 30
     d38:	3b0b3a0e 	blcc	2cf578 <__bss_end__+0x2c5100>
     d3c:	4919270b 	ldmdbmi	r9, {r0, r1, r3, r8, r9, sl, sp}
     d40:	01193c13 	tsteq	r9, r3, lsl ip
     d44:	1c000013 	stcne	0, cr0, [r0], {19}
     d48:	13490005 	movtne	r0, #36869	; 0x9005
     d4c:	261d0000 	ldrcs	r0, [sp], -r0
     d50:	00134900 	andseq	r4, r3, r0, lsl #18
     d54:	00351e00 	eorseq	r1, r5, r0, lsl #28
     d58:	2e1f0000 	cdpcs	0, 1, cr0, cr15, cr0, {0}
     d5c:	03193f01 	tsteq	r9, #1, 30
     d60:	3b0b3a0e 	blcc	2cf5a0 <__bss_end__+0x2c5128>
     d64:	3c19270b 	ldccc	7, cr2, [r9], {11}
     d68:	00130119 	andseq	r0, r3, r9, lsl r1
     d6c:	002e2000 	eoreq	r2, lr, r0
     d70:	0e03193f 	mcreq	9, 0, r1, cr3, cr15, {1}
     d74:	0b3b0b3a 	bleq	ec3a64 <__bss_end__+0xeb95ec>
     d78:	193c1927 	ldmdbne	ip!, {r0, r1, r2, r5, r8, fp, ip}
     d7c:	01000000 	mrseq	r0, (UNDEF: 0)
     d80:	0e250111 	mcreq	1, 1, r0, cr5, cr1, {0}
     d84:	0e030b13 	vmoveq.32	d3[0], r0
     d88:	01110e1b 	tsteq	r1, fp, lsl lr
     d8c:	17100612 			; <UNDEFINED> instruction: 0x17100612
     d90:	24020000 	strcs	r0, [r2], #-0
     d94:	3e0b0b00 	vmlacc.f64	d0, d11, d0
     d98:	0008030b 	andeq	r0, r8, fp, lsl #6
     d9c:	00240300 	eoreq	r0, r4, r0, lsl #6
     da0:	0b3e0b0b 	bleq	f839d4 <__bss_end__+0xf7955c>
     da4:	00000e03 	andeq	r0, r0, r3, lsl #28
     da8:	03001604 	movweq	r1, #1540	; 0x604
     dac:	3b0b3a0e 	blcc	2cf5ec <__bss_end__+0x2c5174>
     db0:	0013490b 	andseq	r4, r3, fp, lsl #18
     db4:	000f0500 	andeq	r0, pc, r0, lsl #10
     db8:	00000b0b 	andeq	r0, r0, fp, lsl #22
     dbc:	0b000f06 	bleq	49dc <_start-0x3624>
     dc0:	0013490b 	andseq	r4, r3, fp, lsl #18
     dc4:	00260700 	eoreq	r0, r6, r0, lsl #14
     dc8:	00001349 	andeq	r1, r0, r9, asr #6
     dcc:	0b011308 	bleq	459f4 <__bss_end__+0x3b57c>
     dd0:	3b0b3a0b 	blcc	2cf604 <__bss_end__+0x2c518c>
     dd4:	0013010b 	andseq	r0, r3, fp, lsl #2
     dd8:	000d0900 	andeq	r0, sp, r0, lsl #18
     ddc:	0b3a0803 	bleq	e82df0 <__bss_end__+0xe78978>
     de0:	13490b3b 	movtne	r0, #39739	; 0x9b3b
     de4:	00000b38 	andeq	r0, r0, r8, lsr fp
     de8:	03000d0a 	movweq	r0, #3338	; 0xd0a
     dec:	3b0b3a0e 	blcc	2cf62c <__bss_end__+0x2c51b4>
     df0:	3813490b 	ldmdacc	r3, {r0, r1, r3, r8, fp, lr}
     df4:	0b00000b 	bleq	e28 <_start-0x71d8>
     df8:	0e030113 	mcreq	1, 0, r0, cr3, cr3, {0}
     dfc:	0b3a0b0b 	bleq	e83a30 <__bss_end__+0xe795b8>
     e00:	13010b3b 	movwne	r0, #6971	; 0x1b3b
     e04:	0d0c0000 	stceq	0, cr0, [ip, #-0]
     e08:	490e0300 	stmdbmi	lr, {r8, r9}
     e0c:	340b3813 	strcc	r3, [fp], #-2067	; 0x813
     e10:	0d000019 	stceq	0, cr0, [r0, #-100]	; 0xffffff9c
     e14:	0e03012e 	adfeqsp	f0, f3, #0.5
     e18:	0b3b0b3a 	bleq	ec3b08 <__bss_end__+0xeb9690>
     e1c:	0b201927 	bleq	8072c0 <__bss_end__+0x7fce48>
     e20:	00001301 	andeq	r1, r0, r1, lsl #6
     e24:	0300050e 	movweq	r0, #1294	; 0x50e
     e28:	3b0b3a0e 	blcc	2cf668 <__bss_end__+0x2c51f0>
     e2c:	0013490b 	andseq	r4, r3, fp, lsl #18
     e30:	00050f00 	andeq	r0, r5, r0, lsl #30
     e34:	0b3a0803 	bleq	e82e48 <__bss_end__+0xe789d0>
     e38:	13490b3b 	movtne	r0, #39739	; 0x9b3b
     e3c:	0b100000 	bleq	400e44 <__bss_end__+0x3f69cc>
     e40:	11000001 	tstne	r0, r1
     e44:	0e030034 	mcreq	0, 0, r0, cr3, cr4, {1}
     e48:	0b3b0b3a 	bleq	ec3b38 <__bss_end__+0xeb96c0>
     e4c:	00001349 	andeq	r1, r0, r9, asr #6
     e50:	3f012e12 	svccc	0x00012e12
     e54:	3a0e0319 	bcc	381ac0 <__bss_end__+0x377648>
     e58:	270b3b0b 	strcs	r3, [fp, -fp, lsl #22]
     e5c:	12011119 	andne	r1, r1, #1073741830	; 0x40000006
     e60:	97184006 	ldrls	r4, [r8, -r6]
     e64:	13011942 	movwne	r1, #6466	; 0x1942
     e68:	05130000 	ldreq	r0, [r3, #-0]
     e6c:	3a0e0300 	bcc	381a74 <__bss_end__+0x3775fc>
     e70:	490b3b0b 	stmdbmi	fp, {r0, r1, r3, r8, r9, fp, ip, sp}
     e74:	00170213 	andseq	r0, r7, r3, lsl r2
     e78:	00051400 	andeq	r1, r5, r0, lsl #8
     e7c:	0b3a0803 	bleq	e82e90 <__bss_end__+0xe78a18>
     e80:	13490b3b 	movtne	r0, #39739	; 0x9b3b
     e84:	00001702 	andeq	r1, r0, r2, lsl #14
     e88:	03003415 	movweq	r3, #1045	; 0x415
     e8c:	3b0b3a08 	blcc	2cf6b4 <__bss_end__+0x2c523c>
     e90:	0213490b 	andseq	r4, r3, #180224	; 0x2c000
     e94:	16000018 			; <UNDEFINED> instruction: 0x16000018
     e98:	08030034 	stmdaeq	r3, {r2, r4, r5}
     e9c:	0b3b0b3a 	bleq	ec3b8c <__bss_end__+0xeb9714>
     ea0:	17021349 	strne	r1, [r2, -r9, asr #6]
     ea4:	0b170000 	bleq	5c0eac <__bss_end__+0x5b6a34>
     ea8:	12011101 	andne	r1, r1, #1073741824	; 0x40000000
     eac:	00130106 	andseq	r0, r3, r6, lsl #2
     eb0:	00341800 	eorseq	r1, r4, r0, lsl #16
     eb4:	0b3a0e03 	bleq	e846c8 <__bss_end__+0xe7a250>
     eb8:	13490b3b 	movtne	r0, #39739	; 0x9b3b
     ebc:	00001802 	andeq	r1, r0, r2, lsl #16
     ec0:	31011d19 	tstcc	r1, r9, lsl sp
     ec4:	12011113 	andne	r1, r1, #-1073741820	; 0xc0000004
     ec8:	590b5806 	stmdbpl	fp, {r1, r2, fp, ip, lr}
     ecc:	0013010b 	andseq	r0, r3, fp, lsl #2
     ed0:	00051a00 	andeq	r1, r5, r0, lsl #20
     ed4:	17021331 	smladxne	r2, r1, r3, r1
     ed8:	051b0000 	ldreq	r0, [fp, #-0]
     edc:	02133100 	andseq	r3, r3, #0, 2
     ee0:	1c000018 	stcne	0, cr0, [r0], {24}
     ee4:	13310005 	teqne	r1, #5
     ee8:	00000b1c 	andeq	r0, r0, ip, lsl fp
     eec:	11010b1d 	tstne	r1, sp, lsl fp
     ef0:	00061201 	andeq	r1, r6, r1, lsl #4
     ef4:	00341e00 	eorseq	r1, r4, r0, lsl #28
     ef8:	17021331 	smladxne	r2, r1, r3, r1
     efc:	891f0000 	ldmdbhi	pc, {}	; <UNPREDICTABLE>
     f00:	11010182 	smlabbne	r1, r2, r1, r0
     f04:	00133101 	andseq	r3, r3, r1, lsl #2
     f08:	828a2000 	addhi	r2, sl, #0
     f0c:	18020001 	stmdane	r2, {r0}
     f10:	00184291 	mulseq	r8, r1, r2
     f14:	011d2100 	tsteq	sp, r0, lsl #2
     f18:	01111331 	tsteq	r1, r1, lsr r3
     f1c:	0b580612 	bleq	160276c <__bss_end__+0x15f82f4>
     f20:	00000b59 	andeq	r0, r0, r9, asr fp
     f24:	03012e22 	movweq	r2, #7714	; 0x1e22
     f28:	3b0b3a0e 	blcc	2cf768 <__bss_end__+0x2c52f0>
     f2c:	4919270b 	ldmdbmi	r9, {r0, r1, r3, r8, r9, sl, sp}
     f30:	010b2013 	tsteq	fp, r3, lsl r0
     f34:	23000013 	movwcs	r0, #19
     f38:	193f012e 	ldmdbne	pc!, {r1, r2, r3, r5, r8}	; <UNPREDICTABLE>
     f3c:	0b3a0e03 	bleq	e84750 <__bss_end__+0xe7a2d8>
     f40:	19270b3b 	stmdbne	r7!, {r0, r1, r3, r4, r5, r8, r9, fp}
     f44:	01111349 	tsteq	r1, r9, asr #6
     f48:	18400612 	stmdane	r0, {r1, r4, r9, sl}^
     f4c:	01194297 			; <UNDEFINED> instruction: 0x01194297
     f50:	24000013 	strcs	r0, [r0], #-19
     f54:	00018289 	andeq	r8, r1, r9, lsl #5
     f58:	13310111 	teqne	r1, #1073741828	; 0x40000004
     f5c:	89250000 	stmdbhi	r5!, {}	; <UNPREDICTABLE>
     f60:	11010182 	smlabbne	r1, r2, r1, r0
     f64:	01133101 	tsteq	r3, r1, lsl #2
     f68:	26000013 			; <UNDEFINED> instruction: 0x26000013
     f6c:	0e030034 	mcreq	0, 0, r0, cr3, cr4, {1}
     f70:	0b3b0b3a 	bleq	ec3c60 <__bss_end__+0xeb97e8>
     f74:	17021349 	strne	r1, [r2, -r9, asr #6]
     f78:	05270000 	streq	r0, [r7, #-0]!
     f7c:	00133100 	andseq	r3, r3, r0, lsl #2
     f80:	00052800 	andeq	r2, r5, r0, lsl #16
     f84:	0b3a0e03 	bleq	e84798 <__bss_end__+0xe7a320>
     f88:	13490b3b 	movtne	r0, #39739	; 0x9b3b
     f8c:	00001802 	andeq	r1, r0, r2, lsl #16
     f90:	03003429 	movweq	r3, #1065	; 0x429
     f94:	3413490e 	ldrcc	r4, [r3], #-2318	; 0x90e
     f98:	00180219 	andseq	r0, r8, r9, lsl r2
     f9c:	01012a00 	tsteq	r1, r0, lsl #20
     fa0:	13011349 	movwne	r1, #4937	; 0x1349
     fa4:	212b0000 	teqcs	fp, r0
     fa8:	2f134900 	svccs	0x00134900
     fac:	2c00000b 	stccs	0, cr0, [r0], {11}
     fb0:	08030034 	stmdaeq	r3, {r2, r4, r5}
     fb4:	0b3b0b3a 	bleq	ec3ca4 <__bss_end__+0xeb982c>
     fb8:	061c1349 	ldreq	r1, [ip], -r9, asr #6
     fbc:	342d0000 	strtcc	r0, [sp], #-0
     fc0:	3a080300 	bcc	201bc8 <__bss_end__+0x1f7750>
     fc4:	490b3b0b 	stmdbmi	fp, {r0, r1, r3, r8, r9, fp, ip, sp}
     fc8:	000b1c13 	andeq	r1, fp, r3, lsl ip
     fcc:	00052e00 	andeq	r2, r5, r0, lsl #28
     fd0:	0b3a0803 	bleq	e82fe4 <__bss_end__+0xe78b6c>
     fd4:	13490b3b 	movtne	r0, #39739	; 0x9b3b
     fd8:	00001802 	andeq	r1, r0, r2, lsl #16
     fdc:	0000182f 	andeq	r1, r0, pc, lsr #16
     fe0:	00213000 	eoreq	r3, r1, r0
     fe4:	052f1349 	streq	r1, [pc, #-841]!	; ca3 <_start-0x735d>
     fe8:	2e310000 	cdpcs	0, 3, cr0, cr1, cr0, {0}
     fec:	03193f01 	tsteq	r9, #1, 30
     ff0:	3b0b3a0e 	blcc	2cf830 <__bss_end__+0x2c53b8>
     ff4:	3c19270b 	ldccc	7, cr2, [r9], {11}
     ff8:	00130119 	andseq	r0, r3, r9, lsl r1
     ffc:	00053200 	andeq	r3, r5, r0, lsl #4
    1000:	00001349 	andeq	r1, r0, r9, asr #6
    1004:	3f002e33 	svccc	0x00002e33
    1008:	3a0e0319 	bcc	381c74 <__bss_end__+0x3777fc>
    100c:	270b3b0b 	strcs	r3, [fp, -fp, lsl #22]
    1010:	3c134919 	ldccc	9, cr4, [r3], {25}
    1014:	34000019 	strcc	r0, [r0], #-25
    1018:	193f012e 	ldmdbne	pc!, {r1, r2, r3, r5, r8}	; <UNPREDICTABLE>
    101c:	0b3a0e03 	bleq	e84830 <__bss_end__+0xe7a3b8>
    1020:	19270b3b 	stmdbne	r7!, {r0, r1, r3, r4, r5, r8, r9, fp}
    1024:	193c1349 	ldmdbne	ip!, {r0, r3, r6, r8, r9, ip}
    1028:	00001301 	andeq	r1, r0, r1, lsl #6
    102c:	3f002e35 	svccc	0x00002e35
    1030:	3a0e0319 	bcc	381c9c <__bss_end__+0x377824>
    1034:	270b3b0b 	strcs	r3, [fp, -fp, lsl #22]
    1038:	00193c19 	andseq	r3, r9, r9, lsl ip
    103c:	012e3600 	teqeq	lr, r0, lsl #12
    1040:	0e03193f 	mcreq	9, 0, r1, cr3, cr15, {1}
    1044:	0b3b0b3a 	bleq	ec3d34 <__bss_end__+0xeb98bc>
    1048:	13491927 	movtne	r1, #39207	; 0x9927
    104c:	0000193c 	andeq	r1, r0, ip, lsr r9
    1050:	01110100 	tsteq	r1, r0, lsl #2
    1054:	0b130e25 	bleq	4c48f0 <__bss_end__+0x4ba478>
    1058:	0e1b0e03 	cdpeq	14, 1, cr0, cr11, cr3, {0}
    105c:	06120111 			; <UNDEFINED> instruction: 0x06120111
    1060:	00001710 	andeq	r1, r0, r0, lsl r7
    1064:	0b002402 	bleq	a074 <__bss_start__+0xc>
    1068:	030b3e0b 	movweq	r3, #48651	; 0xbe0b
    106c:	03000008 	movweq	r0, #8
    1070:	0b0b0024 	bleq	2c1108 <__bss_end__+0x2b6c90>
    1074:	0e030b3e 	vmoveq.16	d3[0], r0
    1078:	04040000 	streq	r0, [r4], #-0
    107c:	3a0b0b01 	bcc	2c3c88 <__bss_end__+0x2b9810>
    1080:	010b3b0b 	tsteq	fp, fp, lsl #22
    1084:	05000013 	streq	r0, [r0, #-19]
    1088:	0e030028 	cdpeq	0, 0, cr0, cr3, cr8, {1}
    108c:	00000d1c 	andeq	r0, r0, ip, lsl sp
    1090:	03001606 	movweq	r1, #1542	; 0x606
    1094:	3b0b3a0e 	blcc	2cf8d4 <__bss_end__+0x2c545c>
    1098:	0013490b 	andseq	r4, r3, fp, lsl #18
    109c:	012e0700 	teqeq	lr, r0, lsl #14
    10a0:	0e03193f 	mcreq	9, 0, r1, cr3, cr15, {1}
    10a4:	0b3b0b3a 	bleq	ec3d94 <__bss_end__+0xeb991c>
    10a8:	01111927 	tsteq	r1, r7, lsr #18
    10ac:	18400612 	stmdane	r0, {r1, r4, r9, sl}^
    10b0:	01194297 			; <UNDEFINED> instruction: 0x01194297
    10b4:	08000013 	stmdaeq	r0, {r0, r1, r4}
    10b8:	00018289 	andeq	r8, r1, r9, lsl #5
    10bc:	13310111 	teqne	r1, #1073741828	; 0x40000004
    10c0:	89090000 	stmdbhi	r9, {}	; <UNPREDICTABLE>
    10c4:	11010182 	smlabbne	r1, r2, r1, r0
    10c8:	01133101 	tsteq	r3, r1, lsl #2
    10cc:	0a000013 	beq	1120 <_start-0x6ee0>
    10d0:	0001828a 	andeq	r8, r1, sl, lsl #5
    10d4:	42911802 	addsmi	r1, r1, #131072	; 0x20000
    10d8:	0b000018 	bleq	1140 <_start-0x6ec0>
    10dc:	193f012e 	ldmdbne	pc!, {r1, r2, r3, r5, r8}	; <UNPREDICTABLE>
    10e0:	0b3a0e03 	bleq	e848f4 <__bss_end__+0xe7a47c>
    10e4:	19270b3b 	stmdbne	r7!, {r0, r1, r3, r4, r5, r8, r9, fp}
    10e8:	01111349 	tsteq	r1, r9, asr #6
    10ec:	18400612 	stmdane	r0, {r1, r4, r9, sl}^
    10f0:	01194297 			; <UNDEFINED> instruction: 0x01194297
    10f4:	0c000013 	stceq	0, cr0, [r0], {19}
    10f8:	08030005 	stmdaeq	r3, {r0, r2}
    10fc:	0b3b0b3a 	bleq	ec3dec <__bss_end__+0xeb9974>
    1100:	17021349 	strne	r1, [r2, -r9, asr #6]
    1104:	890d0000 	stmdbhi	sp, {}	; <UNPREDICTABLE>
    1108:	11010182 	smlabbne	r1, r2, r1, r0
    110c:	00133101 	andseq	r3, r3, r1, lsl #2
    1110:	00340e00 	eorseq	r0, r4, r0, lsl #28
    1114:	0b3a0e03 	bleq	e84928 <__bss_end__+0xe7a4b0>
    1118:	13490b3b 	movtne	r0, #39739	; 0x9b3b
    111c:	1802193f 	stmdane	r2, {r0, r1, r2, r3, r4, r5, r8, fp, ip}
    1120:	0f0f0000 	svceq	0x000f0000
    1124:	490b0b00 	stmdbmi	fp, {r8, r9, fp}
    1128:	10000013 	andne	r0, r0, r3, lsl r0
    112c:	13490035 	movtne	r0, #36917	; 0x9035
    1130:	2e110000 	cdpcs	0, 1, cr0, cr1, cr0, {0}
    1134:	03193f00 	tsteq	r9, #0, 30
    1138:	3b0b3a0e 	blcc	2cf978 <__bss_end__+0x2c5500>
    113c:	3c19270b 	ldccc	7, cr2, [r9], {11}
    1140:	12000019 	andne	r0, r0, #25
    1144:	193f012e 	ldmdbne	pc!, {r1, r2, r3, r5, r8}	; <UNPREDICTABLE>
    1148:	0b3a0e03 	bleq	e8495c <__bss_end__+0xe7a4e4>
    114c:	19270b3b 	stmdbne	r7!, {r0, r1, r3, r4, r5, r8, r9, fp}
    1150:	1301193c 	movwne	r1, #6460	; 0x193c
    1154:	05130000 	ldreq	r0, [r3, #-0]
    1158:	00134900 	andseq	r4, r3, r0, lsl #18
    115c:	012e1400 	teqeq	lr, r0, lsl #8
    1160:	0e03193f 	mcreq	9, 0, r1, cr3, cr15, {1}
    1164:	0b3b0b3a 	bleq	ec3e54 <__bss_end__+0xeb99dc>
    1168:	13491927 	movtne	r1, #39207	; 0x9927
    116c:	1301193c 	movwne	r1, #6460	; 0x193c
    1170:	26150000 	ldrcs	r0, [r5], -r0
    1174:	00134900 	andseq	r4, r3, r0, lsl #18
    1178:	00351600 	eorseq	r1, r5, r0, lsl #12
    117c:	01000000 	mrseq	r0, (UNDEF: 0)
    1180:	0e250111 	mcreq	1, 1, r0, cr5, cr1, {0}
    1184:	0e030b13 	vmoveq.32	d3[0], r0
    1188:	01110e1b 	tsteq	r1, fp, lsl lr
    118c:	17100612 			; <UNDEFINED> instruction: 0x17100612
    1190:	24020000 	strcs	r0, [r2], #-0
    1194:	3e0b0b00 	vmlacc.f64	d0, d11, d0
    1198:	0008030b 	andeq	r0, r8, fp, lsl #6
    119c:	00160300 	andseq	r0, r6, r0, lsl #6
    11a0:	0b3a0e03 	bleq	e849b4 <__bss_end__+0xe7a53c>
    11a4:	13490b3b 	movtne	r0, #39739	; 0x9b3b
    11a8:	24040000 	strcs	r0, [r4], #-0
    11ac:	3e0b0b00 	vmlacc.f64	d0, d11, d0
    11b0:	000e030b 	andeq	r0, lr, fp, lsl #6
    11b4:	000f0500 	andeq	r0, pc, r0, lsl #10
    11b8:	00000b0b 	andeq	r0, r0, fp, lsl #22
    11bc:	0b011306 	bleq	45ddc <__bss_end__+0x3b964>
    11c0:	3b0b3a0b 	blcc	2cf9f4 <__bss_end__+0x2c557c>
    11c4:	0013010b 	andseq	r0, r3, fp, lsl #2
    11c8:	000d0700 	andeq	r0, sp, r0, lsl #14
    11cc:	0b3a0803 	bleq	e831e0 <__bss_end__+0xe78d68>
    11d0:	13490b3b 	movtne	r0, #39739	; 0x9b3b
    11d4:	00000b38 	andeq	r0, r0, r8, lsr fp
    11d8:	03000d08 	movweq	r0, #3336	; 0xd08
    11dc:	3b0b3a0e 	blcc	2cfa1c <__bss_end__+0x2c55a4>
    11e0:	3813490b 	ldmdacc	r3, {r0, r1, r3, r8, fp, lr}
    11e4:	0900000b 	stmdbeq	r0, {r0, r1, r3}
    11e8:	0b0b0104 	bleq	2c1600 <__bss_end__+0x2b7188>
    11ec:	0b3b0b3a 	bleq	ec3edc <__bss_end__+0xeb9a64>
    11f0:	00001301 	andeq	r1, r0, r1, lsl #6
    11f4:	0300280a 	movweq	r2, #2058	; 0x80a
    11f8:	000d1c0e 	andeq	r1, sp, lr, lsl #24
    11fc:	012e0b00 	teqeq	lr, r0, lsl #22
    1200:	0e03193f 	mcreq	9, 0, r1, cr3, cr15, {1}
    1204:	0b3b0b3a 	bleq	ec3ef4 <__bss_end__+0xeb9a7c>
    1208:	13491927 	movtne	r1, #39207	; 0x9927
    120c:	06120111 			; <UNDEFINED> instruction: 0x06120111
    1210:	42971840 	addsmi	r1, r7, #64, 16	; 0x400000
    1214:	00130119 	andseq	r0, r3, r9, lsl r1
    1218:	00340c00 	eorseq	r0, r4, r0, lsl #24
    121c:	0b3a0803 	bleq	e83230 <__bss_end__+0xe78db8>
    1220:	13490b3b 	movtne	r0, #39739	; 0x9b3b
    1224:	0000061c 	andeq	r0, r0, ip, lsl r6
    1228:	0182890d 	orreq	r8, r2, sp, lsl #18
    122c:	31011101 	tstcc	r1, r1, lsl #2
    1230:	0e000013 	mcreq	0, 0, r0, cr0, cr3, {0}
    1234:	0001828a 	andeq	r8, r1, sl, lsl #5
    1238:	42911802 	addsmi	r1, r1, #131072	; 0x20000
    123c:	0f000018 	svceq	0x00000018
    1240:	0b0b000f 	bleq	2c1284 <__bss_end__+0x2b6e0c>
    1244:	00001349 	andeq	r1, r0, r9, asr #6
    1248:	3f012e10 	svccc	0x00012e10
    124c:	3a0e0319 	bcc	381eb8 <__bss_end__+0x377a40>
    1250:	270b3b0b 	strcs	r3, [fp, -fp, lsl #22]
    1254:	3c134919 	ldccc	9, cr4, [r3], {25}
    1258:	11000019 	tstne	r0, r9, lsl r0
    125c:	13490005 	movtne	r0, #36869	; 0x9005
    1260:	01000000 	mrseq	r0, (UNDEF: 0)
    1264:	0e250111 	mcreq	1, 1, r0, cr5, cr1, {0}
    1268:	0e030b13 	vmoveq.32	d3[0], r0
    126c:	01110e1b 	tsteq	r1, fp, lsl lr
    1270:	17100612 			; <UNDEFINED> instruction: 0x17100612
    1274:	24020000 	strcs	r0, [r2], #-0
    1278:	3e0b0b00 	vmlacc.f64	d0, d11, d0
    127c:	000e030b 	andeq	r0, lr, fp, lsl #6
    1280:	00240300 	eoreq	r0, r4, r0, lsl #6
    1284:	0b3e0b0b 	bleq	f83eb8 <__bss_end__+0xf79a40>
    1288:	00000803 	andeq	r0, r0, r3, lsl #16
    128c:	0b000f04 	bleq	4ea4 <_start-0x315c>
    1290:	0500000b 	streq	r0, [r0, #-11]
    1294:	0b0b000f 	bleq	2c12d8 <__bss_end__+0x2b6e60>
    1298:	00001349 	andeq	r1, r0, r9, asr #6
    129c:	03001606 	movweq	r1, #1542	; 0x606
    12a0:	3b0b3a0e 	blcc	2cfae0 <__bss_end__+0x2c5668>
    12a4:	0013490b 	andseq	r4, r3, fp, lsl #18
    12a8:	012e0700 	teqeq	lr, r0, lsl #14
    12ac:	0e03193f 	mcreq	9, 0, r1, cr3, cr15, {1}
    12b0:	0b3b0b3a 	bleq	ec3fa0 <__bss_end__+0xeb9b28>
    12b4:	13491927 	movtne	r1, #39207	; 0x9927
    12b8:	06120111 			; <UNDEFINED> instruction: 0x06120111
    12bc:	42971840 	addsmi	r1, r7, #64, 16	; 0x400000
    12c0:	08000019 	stmdaeq	r0, {r0, r3, r4}
    12c4:	08030005 	stmdaeq	r3, {r0, r2}
    12c8:	0b3b0b3a 	bleq	ec3fb8 <__bss_end__+0xeb9b40>
    12cc:	18021349 	stmdane	r2, {r0, r3, r6, r8, r9, ip}
    12d0:	05090000 	streq	r0, [r9, #-0]
    12d4:	3a080300 	bcc	201edc <__bss_end__+0x1f7a64>
    12d8:	490b3b0b 	stmdbmi	fp, {r0, r1, r3, r8, r9, fp, ip, sp}
    12dc:	00170213 	andseq	r0, r7, r3, lsl r2
    12e0:	00340a00 	eorseq	r0, r4, r0, lsl #20
    12e4:	0b3a0803 	bleq	e832f8 <__bss_end__+0xe78e80>
    12e8:	13490b3b 	movtne	r0, #39739	; 0x9b3b
    12ec:	00001702 	andeq	r1, r0, r2, lsl #14
    12f0:	0300340b 	movweq	r3, #1035	; 0x40b
    12f4:	3b0b3a08 	blcc	2cfb1c <__bss_end__+0x2c56a4>
    12f8:	0213490b 	andseq	r4, r3, #180224	; 0x2c000
    12fc:	00000018 	andeq	r0, r0, r8, lsl r0

Disassembly of section .debug_loc:

00000000 <.debug_loc>:
       0:	0000014c 	andeq	r0, r0, ip, asr #2
       4:	00000150 	andeq	r0, r0, r0, asr r1
       8:	00750026 	rsbseq	r0, r5, r6, lsr #32
       c:	00762431 	rsbseq	r2, r6, r1, lsr r4
      10:	7c212432 	cfstrsvc	mvf2, [r1], #-200	; 0xffffff38
      14:	21243300 	teqcs	r4, r0, lsl #6
      18:	24340071 	ldrtcs	r0, [r4], #-113	; 0x71
      1c:	35007721 	strcc	r7, [r0, #-1825]	; 0x721
      20:	00792124 	rsbseq	r2, r9, r4, lsr #2
      24:	70212436 	eorvc	r2, r1, r6, lsr r4
      28:	21243700 	teqcs	r4, r0, lsl #14
      2c:	9f210074 	svcls	0x00210074
	...
      38:	00000040 	andeq	r0, r0, r0, asr #32
      3c:	00000158 	andeq	r0, r0, r8, asr r1
      40:	00540001 	subseq	r0, r4, r1
      44:	00000000 	andeq	r0, r0, r0
      48:	64000000 	strvs	r0, [r0], #-0
      4c:	54000000 	strpl	r0, [r0], #-0
      50:	01000001 	tsteq	r0, r1
      54:	00005500 	andeq	r5, r0, r0, lsl #10
      58:	00000000 	andeq	r0, r0, r0
      5c:	00880000 	addeq	r0, r8, r0
      60:	01500000 	cmpeq	r0, r0
      64:	00010000 	andeq	r0, r1, r0
      68:	00000056 	andeq	r0, r0, r6, asr r0
      6c:	00000000 	andeq	r0, r0, r0
      70:	0000ac00 	andeq	sl, r0, r0, lsl #24
      74:	00015c00 	andeq	r5, r1, r0, lsl #24
      78:	5c000100 	stfpls	f0, [r0], {-0}
	...
      84:	000000d0 	ldrdeq	r0, [r0], -r0	; <UNPREDICTABLE>
      88:	00000160 	andeq	r0, r0, r0, ror #2
      8c:	00510001 	subseq	r0, r1, r1
      90:	00000000 	andeq	r0, r0, r0
      94:	f4000000 	vst4.8	{d0-d3}, [r0], r0
      98:	64000000 	strvs	r0, [r0], #-0
      9c:	01000001 	tsteq	r0, r1
      a0:	00005700 	andeq	r5, r0, r0, lsl #14
      a4:	00000000 	andeq	r0, r0, r0
      a8:	01180000 	tsteq	r8, r0
      ac:	01680000 	cmneq	r8, r0
      b0:	00010000 	andeq	r0, r1, r0
      b4:	00000059 	andeq	r0, r0, r9, asr r0
      b8:	00000000 	andeq	r0, r0, r0
      bc:	00013c00 	andeq	r3, r1, r0, lsl #24
      c0:	00016c00 	andeq	r6, r1, r0, lsl #24
      c4:	50000100 	andpl	r0, r0, r0, lsl #2
	...
      d0:	00000020 	andeq	r0, r0, r0, lsr #32
      d4:	00000024 	andeq	r0, r0, r4, lsr #32
      d8:	00520001 	subseq	r0, r2, r1
      dc:	00000000 	andeq	r0, r0, r0
      e0:	44000000 	strmi	r0, [r0], #-0
      e4:	48000000 	stmdami	r0, {}	; <UNPREDICTABLE>
      e8:	01000000 	mrseq	r0, (UNDEF: 0)
      ec:	00005200 	andeq	r5, r0, r0, lsl #4
      f0:	00000000 	andeq	r0, r0, r0
      f4:	00680000 	rsbeq	r0, r8, r0
      f8:	006c0000 	rsbeq	r0, ip, r0
      fc:	00010000 	andeq	r0, r1, r0
     100:	00000052 	andeq	r0, r0, r2, asr r0
     104:	00000000 	andeq	r0, r0, r0
     108:	00008c00 	andeq	r8, r0, r0, lsl #24
     10c:	00009000 	andeq	r9, r0, r0
     110:	52000100 	andpl	r0, r0, #0, 2
	...
     11c:	000000b0 	strheq	r0, [r0], -r0	; <UNPREDICTABLE>
     120:	000000b4 	strheq	r0, [r0], -r4
     124:	00520001 	subseq	r0, r2, r1
     128:	00000000 	andeq	r0, r0, r0
     12c:	d4000000 	strle	r0, [r0], #-0
     130:	d8000000 	stmdale	r0, {}	; <UNPREDICTABLE>
     134:	01000000 	mrseq	r0, (UNDEF: 0)
     138:	00005200 	andeq	r5, r0, r0, lsl #4
     13c:	00000000 	andeq	r0, r0, r0
     140:	00f80000 	rscseq	r0, r8, r0
     144:	00fc0000 	rscseq	r0, ip, r0
     148:	00010000 	andeq	r0, r1, r0
     14c:	00000052 	andeq	r0, r0, r2, asr r0
     150:	00000000 	andeq	r0, r0, r0
     154:	00011c00 	andeq	r1, r1, r0, lsl #24
     158:	00012000 	andeq	r2, r1, r0
     15c:	52000100 	andpl	r0, r0, #0, 2
	...
     168:	00000140 	andeq	r0, r0, r0, asr #2
     16c:	00000144 	andeq	r0, r0, r4, asr #2
     170:	00520001 	subseq	r0, r2, r1
     174:	00000000 	andeq	r0, r0, r0
     178:	9c000000 	stcls	0, cr0, [r0], {-0}
     17c:	b4000001 	strlt	r0, [r0], #-1
     180:	01000001 	tsteq	r0, r1
     184:	01b45000 			; <UNDEFINED> instruction: 0x01b45000
     188:	01c40000 	biceq	r0, r4, r0
     18c:	00040000 	andeq	r0, r4, r0
     190:	9f5001f3 	svcls	0x005001f3
     194:	000001c4 	andeq	r0, r0, r4, asr #3
     198:	000001c7 	andeq	r0, r0, r7, asr #3
     19c:	c7500001 	ldrbgt	r0, [r0, -r1]
     1a0:	ec000001 	stc	0, cr0, [r0], {1}
     1a4:	04000001 	streq	r0, [r0], #-1
     1a8:	5001f300 	andpl	pc, r1, r0, lsl #6
     1ac:	0000009f 	muleq	r0, pc, r0	; <UNPREDICTABLE>
     1b0:	00000000 	andeq	r0, r0, r0
     1b4:	0001bc00 	andeq	fp, r1, r0, lsl #24
     1b8:	0001c000 	andeq	ip, r1, r0
     1bc:	50000100 	andpl	r0, r0, r0, lsl #2
	...
     1c8:	000001ec 	andeq	r0, r0, ip, ror #3
     1cc:	000002b0 			; <UNDEFINED> instruction: 0x000002b0
     1d0:	b0500001 	subslt	r0, r0, r1
     1d4:	88000002 	stmdahi	r0, {r1}
     1d8:	04000003 	streq	r0, [r0], #-3
     1dc:	5001f300 	andpl	pc, r1, r0, lsl #6
     1e0:	0000009f 	muleq	r0, pc, r0	; <UNPREDICTABLE>
     1e4:	00000000 	andeq	r0, r0, r0
     1e8:	0001ec00 	andeq	lr, r1, r0, lsl #24
     1ec:	00033800 	andeq	r3, r3, r0, lsl #16
     1f0:	30000200 	andcc	r0, r0, r0, lsl #4
     1f4:	0003389f 	muleq	r3, pc, r8	; <UNPREDICTABLE>
     1f8:	00033c00 	andeq	r3, r3, r0, lsl #24
     1fc:	75002600 	strvc	r2, [r0, #-1536]	; 0x600
     200:	76243100 	strtvc	r3, [r4], -r0, lsl #2
     204:	21243200 	teqcs	r4, r0, lsl #4
     208:	2433007c 	ldrtcs	r0, [r3], #-124	; 0x7c
     20c:	34007121 	strcc	r7, [r0], #-289	; 0x121
     210:	00772124 	rsbseq	r2, r7, r4, lsr #2
     214:	79212435 	stmdbvc	r1!, {r0, r2, r4, r5, sl, sp}
     218:	21243600 	teqcs	r4, r0, lsl #12
     21c:	24370070 	ldrtcs	r0, [r7], #-112	; 0x70
     220:	21007421 	tstcs	r0, r1, lsr #8
     224:	0000009f 	muleq	r0, pc, r0	; <UNPREDICTABLE>
     228:	00000000 	andeq	r0, r0, r0
     22c:	0001ec00 	andeq	lr, r1, r0, lsl #24
     230:	00022c00 	andeq	r2, r2, r0, lsl #24
     234:	30000200 	andcc	r0, r0, r0, lsl #4
     238:	00022c9f 	muleq	r2, pc, ip	; <UNPREDICTABLE>
     23c:	00034400 	andeq	r4, r3, r0, lsl #8
     240:	54000100 	strpl	r0, [r0], #-256	; 0x100
	...
     24c:	000001ec 	andeq	r0, r0, ip, ror #3
     250:	00000250 	andeq	r0, r0, r0, asr r2
     254:	9f300002 	svcls	0x00300002
     258:	00000250 	andeq	r0, r0, r0, asr r2
     25c:	00000340 	andeq	r0, r0, r0, asr #6
     260:	00550001 	subseq	r0, r5, r1
     264:	00000000 	andeq	r0, r0, r0
     268:	ec000000 	stc	0, cr0, [r0], {-0}
     26c:	74000001 	strvc	r0, [r0], #-1
     270:	02000002 	andeq	r0, r0, #2
     274:	749f3000 	ldrvc	r3, [pc], #0	; 27c <_start-0x7d84>
     278:	3c000002 	stccc	0, cr0, [r0], {2}
     27c:	01000003 	tsteq	r0, r3
     280:	00005600 	andeq	r5, r0, r0, lsl #12
     284:	00000000 	andeq	r0, r0, r0
     288:	01ec0000 	mvneq	r0, r0
     28c:	02980000 	addseq	r0, r8, #0
     290:	00020000 	andeq	r0, r2, r0
     294:	02989f30 	addseq	r9, r8, #48, 30	; 0xc0
     298:	03480000 	movteq	r0, #32768	; 0x8000
     29c:	00010000 	andeq	r0, r1, r0
     2a0:	0000005c 	andeq	r0, r0, ip, asr r0
     2a4:	00000000 	andeq	r0, r0, r0
     2a8:	0001ec00 	andeq	lr, r1, r0, lsl #24
     2ac:	0002bc00 	andeq	fp, r2, r0, lsl #24
     2b0:	30000200 	andcc	r0, r0, r0, lsl #4
     2b4:	0002bc9f 	muleq	r2, pc, ip	; <UNPREDICTABLE>
     2b8:	00034c00 	andeq	r4, r3, r0, lsl #24
     2bc:	51000100 	mrspl	r0, (UNDEF: 16)
	...
     2c8:	000001ec 	andeq	r0, r0, ip, ror #3
     2cc:	000002e0 	andeq	r0, r0, r0, ror #5
     2d0:	9f300002 	svcls	0x00300002
     2d4:	000002e0 	andeq	r0, r0, r0, ror #5
     2d8:	00000350 	andeq	r0, r0, r0, asr r3
     2dc:	00570001 	subseq	r0, r7, r1
     2e0:	00000000 	andeq	r0, r0, r0
     2e4:	ec000000 	stc	0, cr0, [r0], {-0}
     2e8:	04000001 	streq	r0, [r0], #-1
     2ec:	02000003 	andeq	r0, r0, #3
     2f0:	049f3000 	ldreq	r3, [pc], #0	; 2f8 <_start-0x7d08>
     2f4:	54000003 	strpl	r0, [r0], #-3
     2f8:	01000003 	tsteq	r0, r3
     2fc:	00005900 	andeq	r5, r0, r0, lsl #18
     300:	00000000 	andeq	r0, r0, r0
     304:	01ec0000 	mvneq	r0, r0
     308:	03280000 	teqeq	r8, #0
     30c:	00020000 	andeq	r0, r2, r0
     310:	03289f30 	teqeq	r8, #48, 30	; 0xc0
     314:	03580000 	cmpeq	r8, #0
     318:	00010000 	andeq	r0, r1, r0
     31c:	00000050 	andeq	r0, r0, r0, asr r0
     320:	00000000 	andeq	r0, r0, r0
     324:	00020c00 	andeq	r0, r2, r0, lsl #24
     328:	00021000 	andeq	r1, r2, r0
     32c:	52000100 	andpl	r0, r0, #0, 2
	...
     338:	00000230 	andeq	r0, r0, r0, lsr r2
     33c:	00000234 	andeq	r0, r0, r4, lsr r2
     340:	00520001 	subseq	r0, r2, r1
     344:	00000000 	andeq	r0, r0, r0
     348:	54000000 	strpl	r0, [r0], #-0
     34c:	58000002 	stmdapl	r0, {r1}
     350:	01000002 	tsteq	r0, r2
     354:	00005200 	andeq	r5, r0, r0, lsl #4
     358:	00000000 	andeq	r0, r0, r0
     35c:	02780000 	rsbseq	r0, r8, #0
     360:	027c0000 	rsbseq	r0, ip, #0
     364:	00010000 	andeq	r0, r1, r0
     368:	00000052 	andeq	r0, r0, r2, asr r0
     36c:	00000000 	andeq	r0, r0, r0
     370:	00029c00 	andeq	r9, r2, r0, lsl #24
     374:	0002a000 	andeq	sl, r2, r0
     378:	52000100 	andpl	r0, r0, #0, 2
	...
     384:	000002c0 	andeq	r0, r0, r0, asr #5
     388:	000002c4 	andeq	r0, r0, r4, asr #5
     38c:	00520001 	subseq	r0, r2, r1
     390:	00000000 	andeq	r0, r0, r0
     394:	e4000000 	str	r0, [r0], #-0
     398:	e8000002 	stmda	r0, {r1}
     39c:	01000002 	tsteq	r0, r2
     3a0:	00005200 	andeq	r5, r0, r0, lsl #4
     3a4:	00000000 	andeq	r0, r0, r0
     3a8:	03080000 	movweq	r0, #32768	; 0x8000
     3ac:	030c0000 	movweq	r0, #49152	; 0xc000
     3b0:	00010000 	andeq	r0, r1, r0
     3b4:	00000052 	andeq	r0, r0, r2, asr r0
     3b8:	00000000 	andeq	r0, r0, r0
     3bc:	00032c00 	andeq	r2, r3, r0, lsl #24
     3c0:	00033000 	andeq	r3, r3, r0
     3c4:	52000100 	andpl	r0, r0, #0, 2
	...
     3d0:	00000388 	andeq	r0, r0, r8, lsl #7
     3d4:	00000398 	muleq	r0, r8, r3
     3d8:	98500001 	ldmdals	r0, {r0}^
     3dc:	94000003 	strls	r0, [r0], #-3
     3e0:	04000005 	streq	r0, [r0], #-5
     3e4:	5001f300 	andpl	pc, r1, r0, lsl #6
     3e8:	0000009f 	muleq	r0, pc, r0	; <UNPREDICTABLE>
     3ec:	00000000 	andeq	r0, r0, r0
     3f0:	00038800 	andeq	r8, r3, r0, lsl #16
     3f4:	00053000 	andeq	r3, r5, r0
     3f8:	51000100 	mrspl	r0, (UNDEF: 16)
     3fc:	00000530 	andeq	r0, r0, r0, lsr r5
     400:	00000594 	muleq	r0, r4, r5
     404:	01f30004 	mvnseq	r0, r4
     408:	00009f51 	andeq	r9, r0, r1, asr pc
     40c:	00000000 	andeq	r0, r0, r0
     410:	03880000 	orreq	r0, r8, #0
     414:	05740000 	ldrbeq	r0, [r4, #-0]!
     418:	00010000 	andeq	r0, r1, r0
     41c:	00057452 	andeq	r7, r5, r2, asr r4
     420:	00059400 	andeq	r9, r5, r0, lsl #8
     424:	f3000400 	vshl.u8	d0, d0, d0
     428:	009f5201 	addseq	r5, pc, r1, lsl #4
     42c:	00000000 	andeq	r0, r0, r0
     430:	90000000 	andls	r0, r0, r0
     434:	88000003 	stmdahi	r0, {r0, r1}
     438:	01000005 	tsteq	r0, r5
     43c:	00005300 	andeq	r5, r0, r0, lsl #6
     440:	00000000 	andeq	r0, r0, r0
     444:	03900000 	orrseq	r0, r0, #0
     448:	03980000 	orrseq	r0, r8, #0
     44c:	00010000 	andeq	r0, r1, r0
     450:	00039850 	andeq	r9, r3, r0, asr r8
     454:	00059400 	andeq	r9, r5, r0, lsl #8
     458:	f3000400 	vshl.u8	d0, d0, d0
     45c:	009f5001 	addseq	r5, pc, r1
     460:	00000000 	andeq	r0, r0, r0
     464:	ac000000 	stcge	0, cr0, [r0], {-0}
     468:	b0000003 	andlt	r0, r0, r3
     46c:	01000003 	tsteq	r0, r3
     470:	00005c00 	andeq	r5, r0, r0, lsl #24
     474:	00000000 	andeq	r0, r0, r0
     478:	03b80000 			; <UNDEFINED> instruction: 0x03b80000
     47c:	05300000 	ldreq	r0, [r0, #-0]!
     480:	00080000 	andeq	r0, r8, r0
     484:	1a310071 	bne	c40650 <__bss_end__+0xc361d8>
     488:	9f1aff08 	svcls	0x001aff08
	...
     494:	000003c0 	andeq	r0, r0, r0, asr #7
     498:	000003f4 	strdeq	r0, [r0], -r4
     49c:	00710008 	rsbseq	r0, r1, r8
     4a0:	ff081a31 			; <UNDEFINED> instruction: 0xff081a31
     4a4:	03f49f1a 	mvnseq	r9, #26, 30	; 0x68
     4a8:	04280000 	strteq	r0, [r8], #-0
     4ac:	00080000 	andeq	r0, r8, r0
     4b0:	1a320071 	bne	c8067c <__bss_end__+0xc76204>
     4b4:	9f1aff08 	svcls	0x001aff08
     4b8:	00000428 	andeq	r0, r0, r8, lsr #8
     4bc:	0000045c 	andeq	r0, r0, ip, asr r4
     4c0:	00710008 	rsbseq	r0, r1, r8
     4c4:	ff081a34 			; <UNDEFINED> instruction: 0xff081a34
     4c8:	045c9f1a 	ldrbeq	r9, [ip], #-3866	; 0xf1a
     4cc:	04900000 	ldreq	r0, [r0], #0
     4d0:	00080000 	andeq	r0, r8, r0
     4d4:	1a380071 	bne	e006a0 <__bss_end__+0xdf6228>
     4d8:	9f1aff08 	svcls	0x001aff08
     4dc:	00000490 	muleq	r0, r0, r4
     4e0:	000004c8 	andeq	r0, r0, r8, asr #9
     4e4:	00710008 	rsbseq	r0, r1, r8
     4e8:	ff081a40 			; <UNDEFINED> instruction: 0xff081a40
     4ec:	04c89f1a 	strbeq	r9, [r8], #3866	; 0xf1a
     4f0:	05000000 	streq	r0, [r0, #-0]
     4f4:	00090000 	andeq	r0, r9, r0
     4f8:	20080071 	andcs	r0, r8, r1, ror r0
     4fc:	1aff081a 	bne	fffc256c <__bss_end__+0xfffb80f4>
     500:	0005009f 	muleq	r5, pc, r0	; <UNPREDICTABLE>
     504:	00053000 	andeq	r3, r5, r0
     508:	71000900 	tstvc	r0, r0, lsl #18
     50c:	1a400800 	bne	1002514 <__bss_end__+0xff809c>
     510:	9f1aff08 	svcls	0x001aff08
     514:	0000055c 	andeq	r0, r0, ip, asr r5
     518:	00000594 	muleq	r0, r4, r5
     51c:	9f310002 	svcls	0x00310002
	...
     528:	000003e0 	andeq	r0, r0, r0, ror #7
     52c:	000003e4 	andeq	r0, r0, r4, ror #7
     530:	005c0001 	subseq	r0, ip, r1
     534:	00000000 	andeq	r0, r0, r0
     538:	ec000000 	stc	0, cr0, [r0], {-0}
     53c:	30000003 	andcc	r0, r0, r3
     540:	08000005 	stmdaeq	r0, {r0, r2}
     544:	32007100 	andcc	r7, r0, #0, 2
     548:	1aff081a 	bne	fffc25b8 <__bss_end__+0xfffb8140>
     54c:	0000009f 	muleq	r0, pc, r0	; <UNPREDICTABLE>
     550:	00000000 	andeq	r0, r0, r0
     554:	0003f400 	andeq	pc, r3, r0, lsl #8
     558:	00042800 	andeq	r2, r4, r0, lsl #16
     55c:	71000800 	tstvc	r0, r0, lsl #16
     560:	081a3200 	ldmdaeq	sl, {r9, ip, sp}
     564:	289f1aff 	ldmcs	pc, {r0, r1, r2, r3, r4, r5, r6, r7, r9, fp, ip}	; <UNPREDICTABLE>
     568:	5c000004 	stcpl	0, cr0, [r0], {4}
     56c:	08000004 	stmdaeq	r0, {r2}
     570:	34007100 	strcc	r7, [r0], #-256	; 0x100
     574:	1aff081a 	bne	fffc25e4 <__bss_end__+0xfffb816c>
     578:	00045c9f 	muleq	r4, pc, ip	; <UNPREDICTABLE>
     57c:	00049000 	andeq	r9, r4, r0
     580:	71000800 	tstvc	r0, r0, lsl #16
     584:	081a3800 	ldmdaeq	sl, {fp, ip, sp}
     588:	909f1aff 			; <UNDEFINED> instruction: 0x909f1aff
     58c:	c8000004 	stmdagt	r0, {r2}
     590:	08000004 	stmdaeq	r0, {r2}
     594:	40007100 	andmi	r7, r0, r0, lsl #2
     598:	1aff081a 	bne	fffc2608 <__bss_end__+0xfffb8190>
     59c:	0004c89f 	muleq	r4, pc, r8	; <UNPREDICTABLE>
     5a0:	00050000 	andeq	r0, r5, r0
     5a4:	71000900 	tstvc	r0, r0, lsl #18
     5a8:	1a200800 	bne	8025b0 <__bss_end__+0x7f8138>
     5ac:	9f1aff08 	svcls	0x001aff08
     5b0:	00000500 	andeq	r0, r0, r0, lsl #10
     5b4:	00000530 	andeq	r0, r0, r0, lsr r5
     5b8:	00710009 	rsbseq	r0, r1, r9
     5bc:	081a4008 	ldmdaeq	sl, {r3, lr}
     5c0:	5c9f1aff 	vldmiapl	pc, {s2-s256}
     5c4:	94000005 	strls	r0, [r0], #-5
     5c8:	02000005 	andeq	r0, r0, #5
     5cc:	009f3100 	addseq	r3, pc, r0, lsl #2
     5d0:	00000000 	andeq	r0, r0, r0
     5d4:	14000000 	strne	r0, [r0], #-0
     5d8:	18000004 	stmdane	r0, {r2}
     5dc:	01000004 	tsteq	r0, r4
     5e0:	00005c00 	andeq	r5, r0, r0, lsl #24
     5e4:	00000000 	andeq	r0, r0, r0
     5e8:	04200000 	strteq	r0, [r0], #-0
     5ec:	05300000 	ldreq	r0, [r0, #-0]!
     5f0:	00080000 	andeq	r0, r8, r0
     5f4:	1a340071 	bne	d007c0 <__bss_end__+0xcf6348>
     5f8:	9f1aff08 	svcls	0x001aff08
	...
     604:	00000428 	andeq	r0, r0, r8, lsr #8
     608:	0000045c 	andeq	r0, r0, ip, asr r4
     60c:	00710008 	rsbseq	r0, r1, r8
     610:	ff081a34 			; <UNDEFINED> instruction: 0xff081a34
     614:	045c9f1a 	ldrbeq	r9, [ip], #-3866	; 0xf1a
     618:	04900000 	ldreq	r0, [r0], #0
     61c:	00080000 	andeq	r0, r8, r0
     620:	1a380071 	bne	e007ec <__bss_end__+0xdf6374>
     624:	9f1aff08 	svcls	0x001aff08
     628:	00000490 	muleq	r0, r0, r4
     62c:	000004c8 	andeq	r0, r0, r8, asr #9
     630:	00710008 	rsbseq	r0, r1, r8
     634:	ff081a40 			; <UNDEFINED> instruction: 0xff081a40
     638:	04c89f1a 	strbeq	r9, [r8], #3866	; 0xf1a
     63c:	05000000 	streq	r0, [r0, #-0]
     640:	00090000 	andeq	r0, r9, r0
     644:	20080071 	andcs	r0, r8, r1, ror r0
     648:	1aff081a 	bne	fffc26b8 <__bss_end__+0xfffb8240>
     64c:	0005009f 	muleq	r5, pc, r0	; <UNPREDICTABLE>
     650:	00053000 	andeq	r3, r5, r0
     654:	71000900 	tstvc	r0, r0, lsl #18
     658:	1a400800 	bne	1002660 <__bss_end__+0xff81e8>
     65c:	9f1aff08 	svcls	0x001aff08
     660:	0000055c 	andeq	r0, r0, ip, asr r5
     664:	00000594 	muleq	r0, r4, r5
     668:	9f310002 	svcls	0x00310002
	...
     674:	00000448 	andeq	r0, r0, r8, asr #8
     678:	0000044c 	andeq	r0, r0, ip, asr #8
     67c:	005c0001 	subseq	r0, ip, r1
     680:	00000000 	andeq	r0, r0, r0
     684:	54000000 	strpl	r0, [r0], #-0
     688:	30000004 	andcc	r0, r0, r4
     68c:	08000005 	stmdaeq	r0, {r0, r2}
     690:	38007100 	stmdacc	r0, {r8, ip, sp, lr}
     694:	1aff081a 	bne	fffc2704 <__bss_end__+0xfffb828c>
     698:	0000009f 	muleq	r0, pc, r0	; <UNPREDICTABLE>
     69c:	00000000 	andeq	r0, r0, r0
     6a0:	00045c00 	andeq	r5, r4, r0, lsl #24
     6a4:	00049000 	andeq	r9, r4, r0
     6a8:	71000800 	tstvc	r0, r0, lsl #16
     6ac:	081a3800 	ldmdaeq	sl, {fp, ip, sp}
     6b0:	909f1aff 			; <UNDEFINED> instruction: 0x909f1aff
     6b4:	c8000004 	stmdagt	r0, {r2}
     6b8:	08000004 	stmdaeq	r0, {r2}
     6bc:	40007100 	andmi	r7, r0, r0, lsl #2
     6c0:	1aff081a 	bne	fffc2730 <__bss_end__+0xfffb82b8>
     6c4:	0004c89f 	muleq	r4, pc, r8	; <UNPREDICTABLE>
     6c8:	00050000 	andeq	r0, r5, r0
     6cc:	71000900 	tstvc	r0, r0, lsl #18
     6d0:	1a200800 	bne	8026d8 <__bss_end__+0x7f8260>
     6d4:	9f1aff08 	svcls	0x001aff08
     6d8:	00000500 	andeq	r0, r0, r0, lsl #10
     6dc:	00000530 	andeq	r0, r0, r0, lsr r5
     6e0:	00710009 	rsbseq	r0, r1, r9
     6e4:	081a4008 	ldmdaeq	sl, {r3, lr}
     6e8:	5c9f1aff 	vldmiapl	pc, {s2-s256}
     6ec:	94000005 	strls	r0, [r0], #-5
     6f0:	02000005 	andeq	r0, r0, #5
     6f4:	009f3100 	addseq	r3, pc, r0, lsl #2
     6f8:	00000000 	andeq	r0, r0, r0
     6fc:	7c000000 	stcvc	0, cr0, [r0], {-0}
     700:	80000004 	andhi	r0, r0, r4
     704:	01000004 	tsteq	r0, r4
     708:	00005c00 	andeq	r5, r0, r0, lsl #24
     70c:	00000000 	andeq	r0, r0, r0
     710:	04880000 	streq	r0, [r8], #0
     714:	05300000 	ldreq	r0, [r0, #-0]!
     718:	00080000 	andeq	r0, r8, r0
     71c:	1a400071 	bne	10008e8 <__bss_end__+0xff6470>
     720:	9f1aff08 	svcls	0x001aff08
	...
     72c:	00000490 	muleq	r0, r0, r4
     730:	000004c8 	andeq	r0, r0, r8, asr #9
     734:	00710008 	rsbseq	r0, r1, r8
     738:	ff081a40 			; <UNDEFINED> instruction: 0xff081a40
     73c:	04c89f1a 	strbeq	r9, [r8], #3866	; 0xf1a
     740:	05000000 	streq	r0, [r0, #-0]
     744:	00090000 	andeq	r0, r9, r0
     748:	20080071 	andcs	r0, r8, r1, ror r0
     74c:	1aff081a 	bne	fffc27bc <__bss_end__+0xfffb8344>
     750:	0005009f 	muleq	r5, pc, r0	; <UNPREDICTABLE>
     754:	00053000 	andeq	r3, r5, r0
     758:	71000900 	tstvc	r0, r0, lsl #18
     75c:	1a400800 	bne	1002764 <__bss_end__+0xff82ec>
     760:	9f1aff08 	svcls	0x001aff08
     764:	0000055c 	andeq	r0, r0, ip, asr r5
     768:	00000594 	muleq	r0, r4, r5
     76c:	9f310002 	svcls	0x00310002
	...
     778:	000004b4 			; <UNDEFINED> instruction: 0x000004b4
     77c:	000004b8 			; <UNDEFINED> instruction: 0x000004b8
     780:	005c0001 	subseq	r0, ip, r1
     784:	00000000 	andeq	r0, r0, r0
     788:	c0000000 	andgt	r0, r0, r0
     78c:	30000004 	andcc	r0, r0, r4
     790:	09000005 	stmdbeq	r0, {r0, r2}
     794:	08007100 	stmdaeq	r0, {r8, ip, sp, lr}
     798:	ff081a20 			; <UNDEFINED> instruction: 0xff081a20
     79c:	00009f1a 	andeq	r9, r0, sl, lsl pc
     7a0:	00000000 	andeq	r0, r0, r0
     7a4:	04c80000 	strbeq	r0, [r8], #0
     7a8:	05000000 	streq	r0, [r0, #-0]
     7ac:	00090000 	andeq	r0, r9, r0
     7b0:	20080071 	andcs	r0, r8, r1, ror r0
     7b4:	1aff081a 	bne	fffc2824 <__bss_end__+0xfffb83ac>
     7b8:	0005009f 	muleq	r5, pc, r0	; <UNPREDICTABLE>
     7bc:	00053000 	andeq	r3, r5, r0
     7c0:	71000900 	tstvc	r0, r0, lsl #18
     7c4:	1a400800 	bne	10027cc <__bss_end__+0xff8354>
     7c8:	9f1aff08 	svcls	0x001aff08
     7cc:	0000055c 	andeq	r0, r0, ip, asr r5
     7d0:	00000594 	muleq	r0, r4, r5
     7d4:	9f310002 	svcls	0x00310002
	...
     7e0:	000004ec 	andeq	r0, r0, ip, ror #9
     7e4:	000004f0 	strdeq	r0, [r0], -r0	; <UNPREDICTABLE>
     7e8:	005c0001 	subseq	r0, ip, r1
     7ec:	00000000 	andeq	r0, r0, r0
     7f0:	f8000000 			; <UNDEFINED> instruction: 0xf8000000
     7f4:	30000004 	andcc	r0, r0, r4
     7f8:	09000005 	stmdbeq	r0, {r0, r2}
     7fc:	08007100 	stmdaeq	r0, {r8, ip, sp, lr}
     800:	ff081a40 			; <UNDEFINED> instruction: 0xff081a40
     804:	00009f1a 	andeq	r9, r0, sl, lsl pc
     808:	00000000 	andeq	r0, r0, r0
     80c:	05000000 	streq	r0, [r0, #-0]
     810:	05300000 	ldreq	r0, [r0, #-0]!
     814:	00090000 	andeq	r0, r9, r0
     818:	40080071 	andmi	r0, r8, r1, ror r0
     81c:	1aff081a 	bne	fffc288c <__bss_end__+0xfffb8414>
     820:	00055c9f 	muleq	r5, pc, ip	; <UNPREDICTABLE>
     824:	00059400 	andeq	r9, r5, r0, lsl #8
     828:	31000200 	mrscc	r0, R8_usr
     82c:	0000009f 	muleq	r0, pc, r0	; <UNPREDICTABLE>
     830:	00000000 	andeq	r0, r0, r0
     834:	00051c00 	andeq	r1, r5, r0, lsl #24
     838:	00052000 	andeq	r2, r5, r0
     83c:	5c000100 	stfpls	f0, [r0], {-0}
	...
     848:	00000528 	andeq	r0, r0, r8, lsr #10
     84c:	00000530 	andeq	r0, r0, r0, lsr r5
     850:	00710009 	rsbseq	r0, r1, r9
     854:	081a8009 	ldmdaeq	sl, {r0, r3, pc}
     858:	009f1aff 			; <UNDEFINED> instruction: 0x009f1aff
     85c:	00000000 	andeq	r0, r0, r0
     860:	5c000000 	stcpl	0, cr0, [r0], {-0}
     864:	94000005 	strls	r0, [r0], #-5
     868:	02000005 	andeq	r0, r0, #5
     86c:	009f3100 	addseq	r3, pc, r0, lsl #2
     870:	00000000 	andeq	r0, r0, r0
     874:	50000000 	andpl	r0, r0, r0
     878:	54000005 	strpl	r0, [r0], #-5
     87c:	01000005 	tsteq	r0, r5
     880:	00005100 	andeq	r5, r0, r0, lsl #2
     884:	00000000 	andeq	r0, r0, r0
     888:	05780000 	ldrbeq	r0, [r8, #-0]!
     88c:	057c0000 	ldrbeq	r0, [ip, #-0]!
     890:	00010000 	andeq	r0, r1, r0
     894:	00000052 	andeq	r0, r0, r2, asr r0
     898:	00000000 	andeq	r0, r0, r0
     89c:	0005c400 	andeq	ip, r5, r0, lsl #8
     8a0:	00062c00 	andeq	r2, r6, r0, lsl #24
     8a4:	45000200 	strmi	r0, [r0, #-512]	; 0x200
     8a8:	0000009f 	muleq	r0, pc, r0	; <UNPREDICTABLE>
     8ac:	00000000 	andeq	r0, r0, r0
     8b0:	0005c400 	andeq	ip, r5, r0, lsl #8
     8b4:	00062c00 	andeq	r2, r6, r0, lsl #24
     8b8:	44000200 	strmi	r0, [r0], #-512	; 0x200
     8bc:	0000009f 	muleq	r0, pc, r0	; <UNPREDICTABLE>
     8c0:	00000000 	andeq	r0, r0, r0
     8c4:	0005c400 	andeq	ip, r5, r0, lsl #8
     8c8:	00062c00 	andeq	r2, r6, r0, lsl #24
     8cc:	08000300 	stmdaeq	r0, {r8, r9}
     8d0:	00009ffe 	strdeq	r9, [r0], -lr
     8d4:	00000000 	andeq	r0, r0, r0
     8d8:	05cc0000 	strbeq	r0, [ip]
     8dc:	05e00000 	strbeq	r0, [r0, #0]!
     8e0:	00020000 	andeq	r0, r2, r0
     8e4:	05e09f30 	strbeq	r9, [r0, #3888]!	; 0xf30
     8e8:	05ec0000 	strbeq	r0, [ip, #0]!
     8ec:	00020000 	andeq	r0, r2, r0
     8f0:	06049f31 			; <UNDEFINED> instruction: 0x06049f31
     8f4:	061c0000 	ldreq	r0, [ip], -r0
     8f8:	00010000 	andeq	r0, r1, r0
     8fc:	00000056 	andeq	r0, r0, r6, asr r0
     900:	00000000 	andeq	r0, r0, r0
     904:	0005cc00 	andeq	ip, r5, r0, lsl #24
     908:	0005ec00 	andeq	lr, r5, r0, lsl #24
     90c:	31000200 	mrscc	r0, R8_usr
     910:	0005ec9f 	muleq	r5, pc, ip	; <UNPREDICTABLE>
     914:	00062c00 	andeq	r2, r6, r0, lsl #24
     918:	55000100 	strpl	r0, [r0, #-256]	; 0x100
	...
     924:	000005e0 	andeq	r0, r0, r0, ror #11
     928:	000005ec 	andeq	r0, r0, ip, ror #11
     92c:	9f300002 	svcls	0x00300002
	...
     938:	00000640 	andeq	r0, r0, r0, asr #12
     93c:	00000668 	andeq	r0, r0, r8, ror #12
     940:	9f300002 	svcls	0x00300002
     944:	00000668 	andeq	r0, r0, r8, ror #12
     948:	000006b8 			; <UNDEFINED> instruction: 0x000006b8
     94c:	00570001 	subseq	r0, r7, r1
     950:	00000000 	andeq	r0, r0, r0
     954:	40000000 	andmi	r0, r0, r0
     958:	48000006 	stmdami	r0, {r1, r2}
     95c:	02000006 	andeq	r0, r0, #6
     960:	489f3000 	ldmmi	pc, {ip, sp}	; <UNPREDICTABLE>
     964:	b8000006 	stmdalt	r0, {r1, r2}
     968:	01000006 	tsteq	r0, r6
     96c:	00005500 	andeq	r5, r0, r0, lsl #10
     970:	00000000 	andeq	r0, r0, r0
     974:	06400000 	strbeq	r0, [r0], -r0
     978:	06480000 	strbeq	r0, [r8], -r0
     97c:	00020000 	andeq	r0, r2, r0
     980:	06549f30 	uasxeq	r9, r4, r0
     984:	06600000 	strbteq	r0, [r0], -r0
     988:	00010000 	andeq	r0, r1, r0
     98c:	00066050 	andeq	r6, r6, r0, asr r0
     990:	0006b800 	andeq	fp, r6, r0, lsl #16
     994:	54000100 	strpl	r0, [r0], #-256	; 0x100
	...
     9a0:	0000002c 	andeq	r0, r0, ip, lsr #32
     9a4:	00000038 	andeq	r0, r0, r8, lsr r0
     9a8:	38500001 	ldmdacc	r0, {r0}^
     9ac:	48000000 	stmdami	r0, {}	; <UNPREDICTABLE>
     9b0:	01000000 	mrseq	r0, (UNDEF: 0)
     9b4:	00485500 	subeq	r5, r8, r0, lsl #10
     9b8:	00580000 	subseq	r0, r8, r0
     9bc:	00010000 	andeq	r0, r1, r0
     9c0:	00000050 	andeq	r0, r0, r0, asr r0
	...
     9cc:	00000b00 	andeq	r0, r0, r0, lsl #22
     9d0:	50000100 	andpl	r0, r0, r0, lsl #2
     9d4:	0000000b 	andeq	r0, r0, fp
     9d8:	00000014 	andeq	r0, r0, r4, lsl r0
     9dc:	00540001 	subseq	r0, r4, r1
	...
     9e8:	10000000 	andne	r0, r0, r0
     9ec:	01000000 	mrseq	r0, (UNDEF: 0)
     9f0:	00105000 	andseq	r5, r0, r0
     9f4:	00340000 	eorseq	r0, r4, r0
     9f8:	00010000 	andeq	r0, r1, r0
     9fc:	00000054 	andeq	r0, r0, r4, asr r0
	...
     a08:	00000400 	andeq	r0, r0, r0, lsl #8
     a0c:	50000100 	andpl	r0, r0, r0, lsl #2
     a10:	00000004 	andeq	r0, r0, r4
     a14:	0000000c 	andeq	r0, r0, ip
     a18:	30700003 	rsbscc	r0, r0, r3
     a1c:	00000c9f 	muleq	r0, pc, ip	; <UNPREDICTABLE>
     a20:	00001400 	andeq	r1, r0, r0, lsl #8
     a24:	f3000400 	vshl.u8	d0, d0, d0
     a28:	009f5001 	addseq	r5, pc, r1
     a2c:	00000000 	andeq	r0, r0, r0
     a30:	14000000 	strne	r0, [r0], #-0
     a34:	20000000 	andcs	r0, r0, r0
     a38:	01000000 	mrseq	r0, (UNDEF: 0)
     a3c:	00205000 	eoreq	r5, r0, r0
     a40:	002c0000 	eoreq	r0, ip, r0
     a44:	00030000 	andeq	r0, r3, r0
     a48:	2c9f0170 	ldfcss	f0, [pc], {112}	; 0x70
     a4c:	40000000 	andmi	r0, r0, r0
     a50:	01000000 	mrseq	r0, (UNDEF: 0)
     a54:	00005000 	andeq	r5, r0, r0
     a58:	00000000 	andeq	r0, r0, r0
     a5c:	00140000 	andseq	r0, r4, r0
     a60:	00180000 	andseq	r0, r8, r0
     a64:	00010000 	andeq	r0, r1, r0
     a68:	00001851 	andeq	r1, r0, r1, asr r8
     a6c:	00004000 	andeq	r4, r0, r0
     a70:	f3000400 	vshl.u8	d0, d0, d0
     a74:	009f5101 	addseq	r5, pc, r1, lsl #2
     a78:	00000000 	andeq	r0, r0, r0
     a7c:	40000000 	andmi	r0, r0, r0
     a80:	60000000 	andvs	r0, r0, r0
     a84:	01000000 	mrseq	r0, (UNDEF: 0)
     a88:	00605000 	rsbeq	r5, r0, r0
     a8c:	006c0000 	rsbeq	r0, ip, r0
     a90:	00030000 	andeq	r0, r3, r0
     a94:	6c9f0171 	ldfvss	f0, [pc], {113}	; 0x71
     a98:	74000000 	strvc	r0, [r0], #-0
     a9c:	01000000 	mrseq	r0, (UNDEF: 0)
     aa0:	00745100 	rsbseq	r5, r4, r0, lsl #2
     aa4:	00800000 	addeq	r0, r0, r0
     aa8:	00030000 	andeq	r0, r3, r0
     aac:	009f0171 	addseq	r0, pc, r1, ror r1	; <UNPREDICTABLE>
     ab0:	00000000 	andeq	r0, r0, r0
     ab4:	40000000 	andmi	r0, r0, r0
     ab8:	50000000 	andpl	r0, r0, r0
     abc:	01000000 	mrseq	r0, (UNDEF: 0)
     ac0:	00505100 	subseq	r5, r0, r0, lsl #2
     ac4:	00800000 	addeq	r0, r0, r0
     ac8:	00040000 	andeq	r0, r4, r0
     acc:	9f5101f3 	svcls	0x005101f3
	...
     ad8:	00000040 	andeq	r0, r0, r0, asr #32
     adc:	00000058 	andeq	r0, r0, r8, asr r0
     ae0:	58520001 	ldmdapl	r2, {r0}^
     ae4:	64000000 	strvs	r0, [r0], #-0
     ae8:	01000000 	mrseq	r0, (UNDEF: 0)
     aec:	00645200 	rsbeq	r5, r4, r0, lsl #4
     af0:	00680000 	rsbeq	r0, r8, r0
     af4:	00030000 	andeq	r0, r3, r0
     af8:	689f0172 	ldmvs	pc, {r1, r4, r5, r6, r8}	; <UNPREDICTABLE>
     afc:	80000000 	andhi	r0, r0, r0
     b00:	01000000 	mrseq	r0, (UNDEF: 0)
     b04:	00005200 	andeq	r5, r0, r0, lsl #4
     b08:	00000000 	andeq	r0, r0, r0
     b0c:	00400000 	subeq	r0, r0, r0
     b10:	00540000 	subseq	r0, r4, r0
     b14:	00010000 	andeq	r0, r1, r0
     b18:	00005453 	andeq	r5, r0, r3, asr r4
     b1c:	00007800 	andeq	r7, r0, r0, lsl #16
     b20:	53000100 	movwpl	r0, #256	; 0x100
	...
     b2c:	00000048 	andeq	r0, r0, r8, asr #32
     b30:	00000060 	andeq	r0, r0, r0, rrx
     b34:	605c0001 	subsvs	r0, ip, r1
     b38:	80000000 	andhi	r0, r0, r0
     b3c:	0a000000 	beq	b44 <_start-0x74bc>
     b40:	5201f300 	andpl	pc, r1, #0, 6
     b44:	1c5301f3 	ldfnee	f0, [r3], {243}	; 0xf3
     b48:	009f0123 	addseq	r0, pc, r3, lsr #2
     b4c:	00000000 	andeq	r0, r0, r0
     b50:	80000000 	andhi	r0, r0, r0
     b54:	a4000000 	strge	r0, [r0], #-0
     b58:	01000000 	mrseq	r0, (UNDEF: 0)
     b5c:	00a45000 	adceq	r5, r4, r0
     b60:	01180000 	tsteq	r8, r0
     b64:	00030000 	andeq	r0, r3, r0
     b68:	189f0270 	ldmne	pc, {r4, r5, r6, r9}	; <UNPREDICTABLE>
     b6c:	28000001 	stmdacs	r0, {r0}
     b70:	04000002 	streq	r0, [r0], #-2
     b74:	5001f300 	andpl	pc, r1, r0, lsl #6
     b78:	0000009f 	muleq	r0, pc, r0	; <UNPREDICTABLE>
     b7c:	00000000 	andeq	r0, r0, r0
     b80:	00008000 	andeq	r8, r0, r0
     b84:	0000f000 	andeq	pc, r0, r0
     b88:	51000100 	mrspl	r0, (UNDEF: 16)
     b8c:	000000f0 	strdeq	r0, [r0], -r0	; <UNPREDICTABLE>
     b90:	00000160 	andeq	r0, r0, r0, ror #2
     b94:	60550001 	subsvs	r0, r5, r1
     b98:	68000001 	stmdavs	r0, {r0}
     b9c:	01000001 	tsteq	r0, r1
     ba0:	01685100 	cmneq	r8, r0, lsl #2
     ba4:	01880000 	orreq	r0, r8, r0
     ba8:	00010000 	andeq	r0, r1, r0
     bac:	00018855 	andeq	r8, r1, r5, asr r8
     bb0:	00019c00 	andeq	r9, r1, r0, lsl #24
     bb4:	51000100 	mrspl	r0, (UNDEF: 16)
     bb8:	0000019c 	muleq	r0, ip, r1
     bbc:	000001bc 			; <UNDEFINED> instruction: 0x000001bc
     bc0:	bc550001 	mrrclt	0, 0, r0, r5, cr1
     bc4:	bf000001 	svclt	0x00000001
     bc8:	01000001 	tsteq	r0, r1
     bcc:	01bf5100 			; <UNDEFINED> instruction: 0x01bf5100
     bd0:	02080000 	andeq	r0, r8, #0
     bd4:	00010000 	andeq	r0, r1, r0
     bd8:	00020855 	andeq	r0, r2, r5, asr r8
     bdc:	00022800 	andeq	r2, r2, r0, lsl #16
     be0:	f3000400 	vshl.u8	d0, d0, d0
     be4:	009f5101 	addseq	r5, pc, r1, lsl #2
     be8:	00000000 	andeq	r0, r0, r0
     bec:	80000000 	andhi	r0, r0, r0
     bf0:	94000000 	strls	r0, [r0], #-0
     bf4:	01000000 	mrseq	r0, (UNDEF: 0)
     bf8:	00945200 	addseq	r5, r4, r0, lsl #4
     bfc:	02080000 	andeq	r0, r8, #0
     c00:	00010000 	andeq	r0, r1, r0
     c04:	00020854 	andeq	r0, r2, r4, asr r8
     c08:	00022800 	andeq	r2, r2, r0, lsl #16
     c0c:	f3000400 	vshl.u8	d0, d0, d0
     c10:	009f5201 	addseq	r5, pc, r1, lsl #4
     c14:	00000000 	andeq	r0, r0, r0
     c18:	80000000 	andhi	r0, r0, r0
     c1c:	00000000 	andeq	r0, r0, r0
     c20:	01000001 	tsteq	r0, r1
     c24:	01045300 	mrseq	r5, LR_abt
     c28:	01080000 	mrseq	r0, (UNDEF: 8)
     c2c:	00010000 	andeq	r0, r1, r0
     c30:	00016053 	andeq	r6, r1, r3, asr r0
     c34:	00016800 	andeq	r6, r1, r0, lsl #16
     c38:	53000100 	movwpl	r0, #256	; 0x100
     c3c:	00000168 	andeq	r0, r0, r8, ror #2
     c40:	00000188 	andeq	r0, r0, r8, lsl #3
     c44:	01f30004 	mvnseq	r0, r4
     c48:	01889f53 	orreq	r9, r8, r3, asr pc
     c4c:	01900000 	orrseq	r0, r0, r0
     c50:	00010000 	andeq	r0, r1, r0
     c54:	00019053 	andeq	r9, r1, r3, asr r0
     c58:	00019400 	andeq	r9, r1, r0, lsl #8
     c5c:	5c000100 	stfpls	f0, [r0], {-0}
     c60:	00000194 	muleq	r0, r4, r1
     c64:	0000019c 	muleq	r0, ip, r1
     c68:	9c530001 	mrrcls	0, 0, r0, r3, cr1
     c6c:	bc000001 	stclt	0, cr0, [r0], {1}
     c70:	04000001 	streq	r0, [r0], #-1
     c74:	5301f300 	movwpl	pc, #4864	; 0x1300	; <UNPREDICTABLE>
     c78:	0001bc9f 	muleq	r1, pc, ip	; <UNPREDICTABLE>
     c7c:	0001bf00 	andeq	fp, r1, r0, lsl #30
     c80:	53000100 	movwpl	r0, #256	; 0x100
     c84:	000001bf 			; <UNDEFINED> instruction: 0x000001bf
     c88:	000001e0 	andeq	r0, r0, r0, ror #3
     c8c:	01f30004 	mvnseq	r0, r4
     c90:	00009f53 	andeq	r9, r0, r3, asr pc
     c94:	00000000 	andeq	r0, r0, r0
     c98:	00800000 	addeq	r0, r0, r0
     c9c:	009c0000 	addseq	r0, ip, r0
     ca0:	00020000 	andeq	r0, r2, r0
     ca4:	009c0091 	umullseq	r0, ip, r1, r0
     ca8:	01bf0000 			; <UNDEFINED> instruction: 0x01bf0000
     cac:	00010000 	andeq	r0, r1, r0
     cb0:	0001e052 	andeq	lr, r1, r2, asr r0
     cb4:	0001eb00 	andeq	lr, r1, r0, lsl #22
     cb8:	52000100 	andpl	r0, r0, #0, 2
	...
     cc4:	0000009c 	muleq	r0, ip, r0
     cc8:	0000010c 	andeq	r0, r0, ip, lsl #2
     ccc:	a0910004 	addsge	r0, r1, r4
     cd0:	010c9f7f 	tsteq	ip, pc, ror pc
     cd4:	01180000 	tsteq	r8, r0
     cd8:	00010000 	andeq	r0, r1, r0
     cdc:	00011851 	andeq	r1, r1, r1, asr r8
     ce0:	00011c00 	andeq	r1, r1, r0, lsl #24
     ce4:	53000100 	movwpl	r0, #256	; 0x100
     ce8:	0000011c 	andeq	r0, r0, ip, lsl r1
     cec:	00000120 	andeq	r0, r0, r0, lsr #2
     cf0:	20510001 	subscs	r0, r1, r1
     cf4:	60000001 	andvs	r0, r0, r1
     cf8:	01000001 	tsteq	r0, r1
     cfc:	01605300 	cmneq	r0, r0, lsl #6
     d00:	01640000 	cmneq	r4, r0
     d04:	00040000 	andeq	r0, r4, r0
     d08:	9f7fa091 	svcls	0x007fa091
     d0c:	00000164 	andeq	r0, r0, r4, ror #2
     d10:	0000016c 	andeq	r0, r0, ip, ror #2
     d14:	6c5e0001 	mrrcvs	0, 0, r0, lr, cr1
     d18:	88000001 	stmdahi	r0, {r0}
     d1c:	01000001 	tsteq	r0, r1
     d20:	01885300 	orreq	r5, r8, r0, lsl #6
     d24:	01900000 	orrseq	r0, r0, r0
     d28:	00040000 	andeq	r0, r4, r0
     d2c:	9f7fa191 	svcls	0x007fa191
     d30:	00000190 	muleq	r0, r0, r1
     d34:	00000194 	muleq	r0, r4, r1
     d38:	94530001 	ldrbls	r0, [r3], #-1
     d3c:	98000001 	stmdals	r0, {r0}
     d40:	04000001 	streq	r0, [r0], #-1
     d44:	7fa09100 	svcvc	0x00a09100
     d48:	0001989f 	muleq	r1, pc, r8	; <UNPREDICTABLE>
     d4c:	0001a000 	andeq	sl, r1, r0
     d50:	5e000100 	adfpls	f0, f0, f0
     d54:	000001a0 	andeq	r0, r0, r0, lsr #3
     d58:	000001bc 			; <UNDEFINED> instruction: 0x000001bc
     d5c:	bc530001 	mrrclt	0, 0, r0, r3, cr1
     d60:	e0000001 	and	r0, r0, r1
     d64:	04000001 	streq	r0, [r0], #-1
     d68:	7fa09100 	svcvc	0x00a09100
     d6c:	0001e09f 	muleq	r1, pc, r0	; <UNPREDICTABLE>
     d70:	0001eb00 	andeq	lr, r1, r0, lsl #22
     d74:	53000100 	movwpl	r0, #256	; 0x100
	...
     d80:	000000a0 	andeq	r0, r0, r0, lsr #1
     d84:	000000ec 	andeq	r0, r0, ip, ror #1
     d88:	ec5c0001 	mrrc	0, 0, r0, ip, cr1
     d8c:	00000000 	andeq	r0, r0, r0
     d90:	01000001 	tsteq	r0, r1
     d94:	01005300 	mrseq	r5, LR_irq
     d98:	01040000 	mrseq	r0, (UNDEF: 4)
     d9c:	00010000 	andeq	r0, r1, r0
     da0:	0001045c 	andeq	r0, r1, ip, asr r4
     da4:	00010800 	andeq	r0, r1, r0, lsl #16
     da8:	53000100 	movwpl	r0, #256	; 0x100
     dac:	00000108 	andeq	r0, r0, r8, lsl #2
     db0:	00000118 	andeq	r0, r0, r8, lsl r1
     db4:	185c0001 	ldmdane	ip, {r0}^
     db8:	1c000001 	stcne	0, cr0, [r0], {1}
     dbc:	01000001 	tsteq	r0, r1
     dc0:	011c5000 	tsteq	ip, r0
     dc4:	013c0000 	teqeq	ip, r0
     dc8:	00010000 	andeq	r0, r1, r0
     dcc:	0001445c 	andeq	r4, r1, ip, asr r4
     dd0:	00015800 	andeq	r5, r1, r0, lsl #16
     dd4:	50000100 	andpl	r0, r0, r0, lsl #2
     dd8:	00000158 	andeq	r0, r0, r8, asr r1
     ddc:	00000160 	andeq	r0, r0, r0, ror #2
     de0:	605c0001 	subsvs	r0, ip, r1
     de4:	68000001 	stmdavs	r0, {r0}
     de8:	01000001 	tsteq	r0, r1
     dec:	01685300 	cmneq	r8, r0, lsl #6
     df0:	01780000 	cmneq	r8, r0
     df4:	00010000 	andeq	r0, r1, r0
     df8:	0001785c 	andeq	r7, r1, ip, asr r8
     dfc:	00018000 	andeq	r8, r1, r0
     e00:	7c000500 	cfstr32vc	mvfx0, [r0], {-0}
     e04:	9f253400 	svcls	0x00253400
     e08:	00000180 	andeq	r0, r0, r0, lsl #3
     e0c:	00000188 	andeq	r0, r0, r8, lsl #3
     e10:	885c0001 	ldmdahi	ip, {r0}^
     e14:	90000001 	andls	r0, r0, r1
     e18:	01000001 	tsteq	r0, r1
     e1c:	01905300 	orrseq	r5, r0, r0, lsl #6
     e20:	01940000 	orrseq	r0, r4, r0
     e24:	00010000 	andeq	r0, r1, r0
     e28:	0001945c 	andeq	r9, r1, ip, asr r4
     e2c:	00019c00 	andeq	r9, r1, r0, lsl #24
     e30:	53000100 	movwpl	r0, #256	; 0x100
     e34:	0000019c 	muleq	r0, ip, r1
     e38:	000001ac 	andeq	r0, r0, ip, lsr #3
     e3c:	ac5c0001 	mrrcge	0, 0, r0, ip, cr1
     e40:	b4000001 	strlt	r0, [r0], #-1
     e44:	05000001 	streq	r0, [r0, #-1]
     e48:	31007c00 	tstcc	r0, r0, lsl #24
     e4c:	01b49f25 			; <UNDEFINED> instruction: 0x01b49f25
     e50:	01bc0000 			; <UNDEFINED> instruction: 0x01bc0000
     e54:	00010000 	andeq	r0, r1, r0
     e58:	0001bc5c 	andeq	fp, r1, ip, asr ip
     e5c:	0001bf00 	andeq	fp, r1, r0, lsl #30
     e60:	53000100 	movwpl	r0, #256	; 0x100
     e64:	000001bf 			; <UNDEFINED> instruction: 0x000001bf
     e68:	000001e0 	andeq	r0, r0, r0, ror #3
     e6c:	01f30004 	mvnseq	r0, r4
     e70:	01e09f53 	mvneq	r9, r3, asr pc
     e74:	01eb0000 	mvneq	r0, r0
     e78:	00010000 	andeq	r0, r1, r0
     e7c:	0000005c 	andeq	r0, r0, ip, asr r0
     e80:	00000000 	andeq	r0, r0, r0
     e84:	0000ec00 	andeq	lr, r0, r0, lsl #24
     e88:	0000fc00 	andeq	pc, r0, r0, lsl #24
     e8c:	30000200 	andcc	r0, r0, r0, lsl #4
     e90:	0000fc9f 	muleq	r0, pc, ip	; <UNPREDICTABLE>
     e94:	00010400 	andeq	r0, r1, r0, lsl #8
     e98:	31000200 	mrscc	r0, R8_usr
     e9c:	0001049f 	muleq	r1, pc, r4	; <UNPREDICTABLE>
     ea0:	00010800 	andeq	r0, r1, r0, lsl #16
     ea4:	30000200 	andcc	r0, r0, r0, lsl #4
     ea8:	0000009f 	muleq	r0, pc, r0	; <UNPREDICTABLE>
     eac:	00000000 	andeq	r0, r0, r0
     eb0:	00022800 	andeq	r2, r2, r0, lsl #16
     eb4:	00023b00 	andeq	r3, r2, r0, lsl #22
     eb8:	50000100 	andpl	r0, r0, r0, lsl #2
     ebc:	0000023b 	andeq	r0, r0, fp, lsr r2
     ec0:	0000025c 	andeq	r0, r0, ip, asr r2
     ec4:	01f30004 	mvnseq	r0, r4
     ec8:	025c9f50 	subseq	r9, ip, #80, 30	; 0x140
     ecc:	02900000 	addseq	r0, r0, #0
     ed0:	00010000 	andeq	r0, r1, r0
     ed4:	00000050 	andeq	r0, r0, r0, asr r0
     ed8:	00000000 	andeq	r0, r0, r0
     edc:	00022800 	andeq	r2, r2, r0, lsl #16
     ee0:	00023b00 	andeq	r3, r2, r0, lsl #22
     ee4:	51000100 	mrspl	r0, (UNDEF: 16)
     ee8:	0000023b 	andeq	r0, r0, fp, lsr r2
     eec:	0000025c 	andeq	r0, r0, ip, asr r2
     ef0:	01f30004 	mvnseq	r0, r4
     ef4:	025c9f51 	subseq	r9, ip, #324	; 0x144
     ef8:	02900000 	addseq	r0, r0, #0
     efc:	00010000 	andeq	r0, r1, r0
     f00:	00000051 	andeq	r0, r0, r1, asr r0
     f04:	00000000 	andeq	r0, r0, r0
     f08:	00029000 	andeq	r9, r2, r0
     f0c:	0002bc00 	andeq	fp, r2, r0, lsl #24
     f10:	50000100 	andpl	r0, r0, r0, lsl #2
     f14:	000002bc 			; <UNDEFINED> instruction: 0x000002bc
     f18:	0000050c 	andeq	r0, r0, ip, lsl #10
     f1c:	0c5a0001 	mrrceq	0, 0, r0, sl, cr1
     f20:	24000005 	strcs	r0, [r0], #-5
     f24:	04000005 	streq	r0, [r0], #-5
     f28:	5001f300 	andpl	pc, r1, r0, lsl #6
     f2c:	0000009f 	muleq	r0, pc, r0	; <UNPREDICTABLE>
     f30:	00000000 	andeq	r0, r0, r0
     f34:	00029000 	andeq	r9, r2, r0
     f38:	0002a400 	andeq	sl, r2, r0, lsl #8
     f3c:	51000100 	mrspl	r0, (UNDEF: 16)
     f40:	000002a4 	andeq	r0, r0, r4, lsr #5
     f44:	000002bc 			; <UNDEFINED> instruction: 0x000002bc
     f48:	01710003 	cmneq	r1, r3
     f4c:	0002bc9f 	muleq	r2, pc, ip	; <UNPREDICTABLE>
     f50:	00052400 	andeq	r2, r5, r0, lsl #8
     f54:	f3000400 	vshl.u8	d0, d0, d0
     f58:	009f5101 	addseq	r5, pc, r1, lsl #2
     f5c:	00000000 	andeq	r0, r0, r0
     f60:	90000000 	andls	r0, r0, r0
     f64:	c4000002 	strgt	r0, [r0], #-2
     f68:	01000002 	tsteq	r0, r2
     f6c:	02c45200 	sbceq	r5, r4, #0, 4
     f70:	02ec0000 	rsceq	r0, ip, #0
     f74:	00010000 	andeq	r0, r1, r0
     f78:	0002ec52 	andeq	lr, r2, r2, asr ip
     f7c:	0004bc00 	andeq	fp, r4, r0, lsl #24
     f80:	56000100 	strpl	r0, [r0], -r0, lsl #2
     f84:	000004bc 			; <UNDEFINED> instruction: 0x000004bc
     f88:	00000524 	andeq	r0, r0, r4, lsr #10
     f8c:	00520001 	subseq	r0, r2, r1
     f90:	00000000 	andeq	r0, r0, r0
     f94:	90000000 	andls	r0, r0, r0
     f98:	ac000002 	stcge	0, cr0, [r0], {2}
     f9c:	01000002 	tsteq	r0, r2
     fa0:	00005300 	andeq	r5, r0, r0, lsl #6
     fa4:	00000000 	andeq	r0, r0, r0
     fa8:	02a00000 	adceq	r0, r0, #0
     fac:	02bc0000 	adcseq	r0, ip, #0
     fb0:	00010000 	andeq	r0, r1, r0
     fb4:	0002bc50 	andeq	fp, r2, r0, asr ip
     fb8:	0002c000 	andeq	ip, r2, r0
     fbc:	54000100 	strpl	r0, [r0], #-256	; 0x100
     fc0:	000002c0 	andeq	r0, r0, r0, asr #5
     fc4:	000002cc 	andeq	r0, r0, ip, asr #5
     fc8:	01740003 	cmneq	r4, r3
     fcc:	0002cc9f 	muleq	r2, pc, ip	; <UNPREDICTABLE>
     fd0:	0002d800 	andeq	sp, r2, r0, lsl #16
     fd4:	54000100 	strpl	r0, [r0], #-256	; 0x100
     fd8:	000002d8 	ldrdeq	r0, [r0], -r8
     fdc:	000002e4 	andeq	r0, r0, r4, ror #5
     fe0:	01740003 	cmneq	r4, r3
     fe4:	0002e49f 	muleq	r2, pc, r4	; <UNPREDICTABLE>
     fe8:	0004c000 	andeq	ip, r4, r0
     fec:	54000100 	strpl	r0, [r0], #-256	; 0x100
     ff0:	000004c0 	andeq	r0, r0, r0, asr #9
     ff4:	000004cc 	andeq	r0, r0, ip, asr #9
     ff8:	01740003 	cmneq	r4, r3
     ffc:	0004cc9f 	muleq	r4, pc, ip	; <UNPREDICTABLE>
    1000:	0004f800 	andeq	pc, r4, r0, lsl #16
    1004:	54000100 	strpl	r0, [r0], #-256	; 0x100
    1008:	000004f8 	strdeq	r0, [r0], -r8
    100c:	00000504 	andeq	r0, r0, r4, lsl #10
    1010:	04500001 	ldrbeq	r0, [r0], #-1
    1014:	0c000005 	stceq	0, cr0, [r0], {5}
    1018:	03000005 	movweq	r0, #5
    101c:	9f017400 	svcls	0x00017400
	...
    1028:	000002a8 	andeq	r0, r0, r8, lsr #5
    102c:	0000050c 	andeq	r0, r0, ip, lsl #10
    1030:	0c580001 	mrrceq	0, 0, r0, r8, cr1
    1034:	24000005 	strcs	r0, [r0], #-5
    1038:	0a000005 	beq	1054 <_start-0x6fac>
    103c:	5101f300 	mrspl	pc, SP_irq	; <UNPREDICTABLE>
    1040:	225001f3 	subscs	r0, r0, #-1073741764	; 0xc000003c
    1044:	009f1c31 	addseq	r1, pc, r1, lsr ip	; <UNPREDICTABLE>
    1048:	00000000 	andeq	r0, r0, r0
    104c:	f4000000 	vst4.8	{d0-d3}, [r0], r0
    1050:	f8000003 			; <UNDEFINED> instruction: 0xf8000003
    1054:	01000003 	tsteq	r0, r3
    1058:	04185000 	ldreq	r5, [r8], #-0
    105c:	041c0000 	ldreq	r0, [ip], #-0
    1060:	00010000 	andeq	r0, r1, r0
    1064:	00043c50 	andeq	r3, r4, r0, asr ip
    1068:	00044000 	andeq	r4, r4, r0
    106c:	50000100 	andpl	r0, r0, r0, lsl #2
    1070:	00000460 	andeq	r0, r0, r0, ror #8
    1074:	00000464 	andeq	r0, r0, r4, ror #8
    1078:	6c500001 	mrrcvs	0, 0, r0, r0, cr1	; <UNPREDICTABLE>
    107c:	70000004 	andvc	r0, r0, r4
    1080:	01000004 	tsteq	r0, r4
    1084:	04905000 	ldreq	r5, [r0], #0
    1088:	04940000 	ldreq	r0, [r4], #0
    108c:	00010000 	andeq	r0, r1, r0
    1090:	0004b850 	andeq	fp, r4, r0, asr r8
    1094:	0004e000 	andeq	lr, r4, r0
    1098:	50000100 	andpl	r0, r0, r0, lsl #2
	...
    10a4:	000002ec 	andeq	r0, r0, ip, ror #5
    10a8:	000002f4 	strdeq	r0, [r0], -r4
    10ac:	9f300002 	svcls	0x00300002
    10b0:	000002f4 	strdeq	r0, [r0], -r4
    10b4:	000002f8 	strdeq	r0, [r0], -r8
    10b8:	04570001 	ldrbeq	r0, [r7], #-1
    10bc:	e0000003 	and	r0, r0, r3
    10c0:	01000004 	tsteq	r0, r4
    10c4:	00005700 	andeq	r5, r0, r0, lsl #14
    10c8:	00000000 	andeq	r0, r0, r0
    10cc:	00040000 	andeq	r0, r4, r0
    10d0:	00080000 	andeq	r0, r8, r0
    10d4:	00070000 	andeq	r0, r7, r0
    10d8:	000a0073 	andeq	r0, sl, r3, ror r0
    10dc:	089f2110 	ldmeq	pc, {r4, r8, sp}	; <UNPREDICTABLE>
    10e0:	10000000 	andne	r0, r0, r0
    10e4:	01000000 	mrseq	r0, (UNDEF: 0)
    10e8:	00005300 	andeq	r5, r0, r0, lsl #6
    10ec:	00000000 	andeq	r0, r0, r0
    10f0:	00140000 	andseq	r0, r4, r0
    10f4:	00180000 	andseq	r0, r8, r0
    10f8:	00070000 	andeq	r0, r7, r0
    10fc:	ff0b0073 			; <UNDEFINED> instruction: 0xff0b0073
    1100:	189f1aef 	ldmne	pc, {r0, r1, r2, r3, r5, r6, r7, r9, fp, ip}	; <UNPREDICTABLE>
    1104:	20000000 	andcs	r0, r0, r0
    1108:	01000000 	mrseq	r0, (UNDEF: 0)
    110c:	00005300 	andeq	r5, r0, r0, lsl #6
	...
    1118:	000c0000 	andeq	r0, ip, r0
    111c:	00010000 	andeq	r0, r1, r0
    1120:	00000c50 	andeq	r0, r0, r0, asr ip
    1124:	00002000 	andeq	r2, r0, r0
    1128:	54000100 	strpl	r0, [r0], #-256	; 0x100
	...
    1134:	00000034 	andeq	r0, r0, r4, lsr r0
    1138:	0000003c 	andeq	r0, r0, ip, lsr r0
    113c:	04730003 	ldrbteq	r0, [r3], #-3
    1140:	00003c9f 	muleq	r0, pc, ip	; <UNPREDICTABLE>
    1144:	00004700 	andeq	r4, r0, r0, lsl #14
    1148:	53000100 	movwpl	r0, #256	; 0x100
	...
    1154:	00000048 	andeq	r0, r0, r8, asr #32
    1158:	00000074 	andeq	r0, r0, r4, ror r0
    115c:	74500001 	ldrbvc	r0, [r0], #-1
    1160:	83000000 	movwhi	r0, #0
    1164:	03000000 	movweq	r0, #0
    1168:	9f787300 	svcls	0x00787300
	...
    1174:	00008dac 	andeq	r8, r0, ip, lsr #27
    1178:	00008db0 			; <UNDEFINED> instruction: 0x00008db0
    117c:	9f300002 	svcls	0x00300002
    1180:	00008db0 			; <UNDEFINED> instruction: 0x00008db0
    1184:	00008db4 			; <UNDEFINED> instruction: 0x00008db4
    1188:	00500001 	subseq	r0, r0, r1
    118c:	00000000 	andeq	r0, r0, r0
    1190:	c4000000 	strgt	r0, [r0], #-0
    1194:	c800008d 	stmdagt	r0, {r0, r2, r3, r7}
    1198:	0200008d 	andeq	r0, r0, #141	; 0x8d
    119c:	c89f3000 	ldmgt	pc, {ip, sp}	; <UNPREDICTABLE>
    11a0:	cc00008d 	stcgt	0, cr0, [r0], {141}	; 0x8d
    11a4:	0100008d 	smlabbeq	r0, sp, r0, r0
    11a8:	8dd05300 	ldclhi	3, cr5, [r0]
    11ac:	8dd80000 	ldclhi	0, cr0, [r8]
    11b0:	00010000 	andeq	r0, r1, r0
    11b4:	00000053 	andeq	r0, r0, r3, asr r0
	...
    11c0:	00000400 	andeq	r0, r0, r0, lsl #8
    11c4:	50000100 	andpl	r0, r0, r0, lsl #2
    11c8:	00000004 	andeq	r0, r0, r4
    11cc:	0000000c 	andeq	r0, r0, ip
    11d0:	0c530001 	mrrceq	0, 0, r0, r3, cr1
    11d4:	10000000 	andne	r0, r0, r0
    11d8:	01000000 	mrseq	r0, (UNDEF: 0)
    11dc:	00105000 	andseq	r5, r0, r0
    11e0:	001c0000 	andseq	r0, ip, r0
    11e4:	00010000 	andeq	r0, r1, r0
    11e8:	00000053 	andeq	r0, r0, r3, asr r0
    11ec:	00000000 	andeq	r0, r0, r0
    11f0:	00003c00 	andeq	r3, r0, r0, lsl #24
    11f4:	00004700 	andeq	r4, r0, r0, lsl #14
    11f8:	50000100 	andpl	r0, r0, r0, lsl #2
    11fc:	00000047 	andeq	r0, r0, r7, asr #32
    1200:	00000060 	andeq	r0, r0, r0, rrx
    1204:	00550001 	subseq	r0, r5, r1
    1208:	00000000 	andeq	r0, r0, r0
    120c:	50000000 	andpl	r0, r0, r0
    1210:	54000000 	strpl	r0, [r0], #-0
    1214:	01000000 	mrseq	r0, (UNDEF: 0)
    1218:	00005000 	andeq	r5, r0, r0
    121c:	00000000 	andeq	r0, r0, r0
    1220:	00600000 	rsbeq	r0, r0, r0
    1224:	006c0000 	rsbeq	r0, ip, r0
    1228:	00010000 	andeq	r0, r1, r0
    122c:	00006c50 	andeq	r6, r0, r0, asr ip
    1230:	00007400 	andeq	r7, r0, r0, lsl #8
    1234:	f3000400 	vshl.u8	d0, d0, d0
    1238:	009f5001 	addseq	r5, pc, r1
    123c:	00000000 	andeq	r0, r0, r0
    1240:	74000000 	strvc	r0, [r0], #-0
    1244:	80000000 	andhi	r0, r0, r0
    1248:	01000000 	mrseq	r0, (UNDEF: 0)
    124c:	00805000 	addeq	r5, r0, r0
    1250:	00880000 	addeq	r0, r8, r0
    1254:	00040000 	andeq	r0, r4, r0
    1258:	9f5001f3 	svcls	0x005001f3
	...
    1268:	00000090 	muleq	r0, r0, r0
    126c:	90500001 	subsls	r0, r0, r1
    1270:	d4000000 	strle	r0, [r0], #-0
    1274:	01000000 	mrseq	r0, (UNDEF: 0)
    1278:	00005400 	andeq	r5, r0, r0, lsl #8
    127c:	00000000 	andeq	r0, r0, r0
    1280:	00480000 	subeq	r0, r8, r0
    1284:	004c0000 	subeq	r0, ip, r0
    1288:	00010000 	andeq	r0, r1, r0
    128c:	00005455 	andeq	r5, r0, r5, asr r4
    1290:	00005800 	andeq	r5, r0, r0, lsl #16
    1294:	55000100 	strpl	r0, [r0, #-256]	; 0x100
    1298:	00000060 	andeq	r0, r0, r0, rrx
    129c:	00000064 	andeq	r0, r0, r4, rrx
    12a0:	6c550001 	mrrcvs	0, 0, r0, r5, cr1
    12a4:	70000000 	andvc	r0, r0, r0
    12a8:	01000000 	mrseq	r0, (UNDEF: 0)
    12ac:	00785500 	rsbseq	r5, r8, r0, lsl #10
    12b0:	007c0000 	rsbseq	r0, ip, r0
    12b4:	00010000 	andeq	r0, r1, r0
    12b8:	00008455 	andeq	r8, r0, r5, asr r4
    12bc:	00008800 	andeq	r8, r0, r0, lsl #16
    12c0:	55000100 	strpl	r0, [r0, #-256]	; 0x100
    12c4:	0000008c 	andeq	r0, r0, ip, lsl #1
    12c8:	000000d4 	ldrdeq	r0, [r0], -r4
    12cc:	00550001 	subseq	r0, r5, r1
    12d0:	00000000 	andeq	r0, r0, r0
    12d4:	1c000000 	stcne	0, cr0, [r0], {-0}
    12d8:	44000000 	strmi	r0, [r0], #-0
    12dc:	01000000 	mrseq	r0, (UNDEF: 0)
    12e0:	00445300 	subeq	r5, r4, r0, lsl #6
    12e4:	004c0000 	subeq	r0, ip, r0
    12e8:	001c0000 	andseq	r0, ip, r0
    12ec:	2cf70070 	ldclcs	0, cr0, [r7], #448	; 0x1c0
    12f0:	25f425f7 	ldrbcs	r2, [r4, #1527]!	; 0x5f7
    12f4:	cccccd08 	stclgt	13, cr12, [ip], {8}
    12f8:	000000cc 	andeq	r0, r0, ip, asr #1
    12fc:	20081e00 	andcs	r1, r8, r0, lsl #28
    1300:	f72525f7 			; <UNDEFINED> instruction: 0xf72525f7
    1304:	9f25332c 	svcls	0x0025332c
    1308:	0000004c 	andeq	r0, r0, ip, asr #32
    130c:	00000050 	andeq	r0, r0, r0, asr r0
    1310:	50530001 	subspl	r0, r3, r1
    1314:	58000000 	stmdapl	r0, {}	; <UNPREDICTABLE>
    1318:	1c000000 	stcne	0, cr0, [r0], {-0}
    131c:	f7007000 			; <UNDEFINED> instruction: 0xf7007000
    1320:	f425f72c 	vld1.8	{d15}, [r5 :128], ip
    1324:	cccd0825 	stclgt	8, cr0, [sp], {37}	; 0x25
    1328:	0000cccc 	andeq	ip, r0, ip, asr #25
    132c:	081e0000 	ldmdaeq	lr, {}	; <UNPREDICTABLE>
    1330:	2525f720 	strcs	pc, [r5, #-1824]!	; 0x720
    1334:	25332cf7 	ldrcs	r2, [r3, #-3319]!	; 0xcf7
    1338:	0000589f 	muleq	r0, pc, r8	; <UNPREDICTABLE>
    133c:	00005c00 	andeq	r5, r0, r0, lsl #24
    1340:	53000100 	movwpl	r0, #256	; 0x100
    1344:	0000005c 	andeq	r0, r0, ip, asr r0
    1348:	00000064 	andeq	r0, r0, r4, rrx
    134c:	0070001c 	rsbseq	r0, r0, ip, lsl r0
    1350:	25f72cf7 	ldrbcs	r2, [r7, #3319]!	; 0xcf7
    1354:	cd0825f4 	cfstr32gt	mvfx2, [r8, #-976]	; 0xfffffc30
    1358:	00cccccc 	sbceq	ip, ip, ip, asr #25
    135c:	1e000000 	cdpne	0, 0, cr0, cr0, cr0, {0}
    1360:	25f72008 	ldrbcs	r2, [r7, #8]!
    1364:	332cf725 	msrcc	CPSR_fs, #9699328	; 0x940000
    1368:	00649f25 	rsbeq	r9, r4, r5, lsr #30
    136c:	00680000 	rsbeq	r0, r8, r0
    1370:	00010000 	andeq	r0, r1, r0
    1374:	00006853 	andeq	r6, r0, r3, asr r8
    1378:	00007000 	andeq	r7, r0, r0
    137c:	70001c00 	andvc	r1, r0, r0, lsl #24
    1380:	f72cf700 			; <UNDEFINED> instruction: 0xf72cf700
    1384:	0825f425 	stmdaeq	r5!, {r0, r2, r5, sl, ip, sp, lr, pc}
    1388:	cccccccd 	stclgt	12, cr12, [ip], {205}	; 0xcd
    138c:	00000000 	andeq	r0, r0, r0
    1390:	f720081e 			; <UNDEFINED> instruction: 0xf720081e
    1394:	2cf72525 	cfldr64cs	mvdx2, [r7], #148	; 0x94
    1398:	709f2533 	addsvc	r2, pc, r3, lsr r5	; <UNPREDICTABLE>
    139c:	74000000 	strvc	r0, [r0], #-0
    13a0:	01000000 	mrseq	r0, (UNDEF: 0)
    13a4:	00745300 	rsbseq	r5, r4, r0, lsl #6
    13a8:	007c0000 	rsbseq	r0, ip, r0
    13ac:	001c0000 	andseq	r0, ip, r0
    13b0:	2cf70070 	ldclcs	0, cr0, [r7], #448	; 0x1c0
    13b4:	25f425f7 	ldrbcs	r2, [r4, #1527]!	; 0x5f7
    13b8:	cccccd08 	stclgt	13, cr12, [ip], {8}
    13bc:	000000cc 	andeq	r0, r0, ip, asr #1
    13c0:	20081e00 	andcs	r1, r8, r0, lsl #28
    13c4:	f72525f7 			; <UNDEFINED> instruction: 0xf72525f7
    13c8:	9f25332c 	svcls	0x0025332c
    13cc:	0000007c 	andeq	r0, r0, ip, ror r0
    13d0:	00000080 	andeq	r0, r0, r0, lsl #1
    13d4:	80530001 	subshi	r0, r3, r1
    13d8:	88000000 	stmdahi	r0, {}	; <UNPREDICTABLE>
    13dc:	1c000000 	stcne	0, cr0, [r0], {-0}
    13e0:	f7007000 			; <UNDEFINED> instruction: 0xf7007000
    13e4:	f425f72c 	vld1.8	{d15}, [r5 :128], ip
    13e8:	cccd0825 	stclgt	8, cr0, [sp], {37}	; 0x25
    13ec:	0000cccc 	andeq	ip, r0, ip, asr #25
    13f0:	081e0000 	ldmdaeq	lr, {}	; <UNPREDICTABLE>
    13f4:	2525f720 	strcs	pc, [r5, #-1824]!	; 0x720
    13f8:	25332cf7 	ldrcs	r2, [r3, #-3319]!	; 0xcf7
    13fc:	0000889f 	muleq	r0, pc, r8	; <UNPREDICTABLE>
    1400:	00008c00 	andeq	r8, r0, r0, lsl #24
    1404:	53000100 	movwpl	r0, #256	; 0x100
    1408:	0000008c 	andeq	r0, r0, ip, lsl #1
    140c:	00000090 	muleq	r0, r0, r0
    1410:	0070001c 	rsbseq	r0, r0, ip, lsl r0
    1414:	25f72cf7 	ldrbcs	r2, [r7, #3319]!	; 0xcf7
    1418:	cd0825f4 	cfstr32gt	mvfx2, [r8, #-976]	; 0xfffffc30
    141c:	00cccccc 	sbceq	ip, ip, ip, asr #25
    1420:	1e000000 	cdpne	0, 0, cr0, cr0, cr0, {0}
    1424:	25f72008 	ldrbcs	r2, [r7, #8]!
    1428:	332cf725 	msrcc	CPSR_fs, #9699328	; 0x940000
    142c:	00909f25 	addseq	r9, r0, r5, lsr #30
    1430:	00980000 	addseq	r0, r8, r0
    1434:	001c0000 	andseq	r0, ip, r0
    1438:	2cf70074 	ldclcs	0, cr0, [r7], #464	; 0x1d0
    143c:	25f425f7 	ldrbcs	r2, [r4, #1527]!	; 0x5f7
    1440:	cccccd08 	stclgt	13, cr12, [ip], {8}
    1444:	000000cc 	andeq	r0, r0, ip, asr #1
    1448:	20081e00 	andcs	r1, r8, r0, lsl #28
    144c:	f72525f7 			; <UNDEFINED> instruction: 0xf72525f7
    1450:	9f25332c 	svcls	0x0025332c
    1454:	00000098 	muleq	r0, r8, r0
    1458:	0000009c 	muleq	r0, ip, r0
    145c:	00740017 	rsbseq	r0, r4, r7, lsl r0
    1460:	25f72cf7 	ldrbcs	r2, [r7, #3319]!	; 0xcf7
    1464:	2cf70071 	ldclcs	0, cr0, [r7], #452	; 0x1c4
    1468:	081e25f7 	ldmdaeq	lr, {r0, r1, r2, r4, r5, r6, r7, r8, sl, sp}
    146c:	2525f720 	strcs	pc, [r5, #-1824]!	; 0x720
    1470:	25332cf7 	ldrcs	r2, [r3, #-3319]!	; 0xcf7
    1474:	00009c9f 	muleq	r0, pc, ip	; <UNPREDICTABLE>
    1478:	0000d400 	andeq	sp, r0, r0, lsl #8
    147c:	74001c00 	strvc	r1, [r0], #-3072	; 0xc00
    1480:	f72cf700 			; <UNDEFINED> instruction: 0xf72cf700
    1484:	0825f425 	stmdaeq	r5!, {r0, r2, r5, sl, ip, sp, lr, pc}
    1488:	cccccccd 	stclgt	12, cr12, [ip], {205}	; 0xcd
    148c:	00000000 	andeq	r0, r0, r0
    1490:	f720081e 			; <UNDEFINED> instruction: 0xf720081e
    1494:	2cf72525 	cfldr64cs	mvdx2, [r7], #148	; 0x94
    1498:	009f2533 	addseq	r2, pc, r3, lsr r5	; <UNPREDICTABLE>
    149c:	00000000 	andeq	r0, r0, r0
    14a0:	94000000 	strls	r0, [r0], #-0
    14a4:	b8000000 	stmdalt	r0, {}	; <UNPREDICTABLE>
    14a8:	01000000 	mrseq	r0, (UNDEF: 0)
    14ac:	00b85000 	adcseq	r5, r8, r0
    14b0:	00c40000 	sbceq	r0, r4, r0
    14b4:	00080000 	andeq	r0, r8, r0
    14b8:	24007131 	strcs	r7, [r0], #-305	; 0x131
    14bc:	9f210073 	svcls	0x00210073
    14c0:	000000c4 	andeq	r0, r0, r4, asr #1
    14c4:	000000c7 	andeq	r0, r0, r7, asr #1
    14c8:	00510001 	subseq	r0, r1, r1
    14cc:	00000000 	andeq	r0, r0, r0
    14d0:	d4000000 	strle	r0, [r0], #-0
    14d4:	f8000000 			; <UNDEFINED> instruction: 0xf8000000
    14d8:	01000000 	mrseq	r0, (UNDEF: 0)
    14dc:	00f85000 	rscseq	r5, r8, r0
    14e0:	010c0000 	mrseq	r0, (UNDEF: 12)
    14e4:	00040000 	andeq	r0, r4, r0
    14e8:	9f5001f3 	svcls	0x005001f3
	...
    14f4:	000000e0 	andeq	r0, r0, r0, ror #1
    14f8:	000000e8 	andeq	r0, r0, r8, ror #1
    14fc:	9f300002 	svcls	0x00300002
    1500:	000000e8 	andeq	r0, r0, r8, ror #1
    1504:	000000e8 	andeq	r0, r0, r8, ror #1
    1508:	e8520001 	ldmda	r2, {r0}^
    150c:	f0000000 			; <UNDEFINED> instruction: 0xf0000000
    1510:	02000000 	andeq	r0, r0, #0
    1514:	f09f3000 			; <UNDEFINED> instruction: 0xf09f3000
    1518:	03000000 	movweq	r0, #0
    151c:	01000001 	tsteq	r0, r1
    1520:	00005200 	andeq	r5, r0, r0, lsl #4
    1524:	00000000 	andeq	r0, r0, r0
    1528:	00e00000 	rsceq	r0, r0, r0
    152c:	00f40000 	rscseq	r0, r4, r0
    1530:	00020000 	andeq	r0, r2, r0
    1534:	00f49f30 	rscseq	r9, r4, r0, lsr pc
    1538:	01000000 	mrseq	r0, (UNDEF: 0)
    153c:	00050000 	andeq	r0, r5, r0
    1540:	24007331 	strcs	r7, [r0], #-817	; 0x331
    1544:	0001009f 	muleq	r1, pc, r0	; <UNPREDICTABLE>
    1548:	00010300 	andeq	r0, r1, r0, lsl #6
    154c:	51000100 	mrspl	r0, (UNDEF: 16)
    1550:	00000103 	andeq	r0, r0, r3, lsl #2
    1554:	0000010c 	andeq	r0, r0, ip, lsl #2
    1558:	f3310008 	vhadd.u<illegal width 64>	d0, d1, d8
    155c:	1a4f5001 	bne	13d5568 <__bss_end__+0x13cb0f0>
    1560:	00009f24 	andeq	r9, r0, r4, lsr #30
    1564:	00000000 	andeq	r0, r0, r0
    1568:	010c0000 	mrseq	r0, (UNDEF: 12)
    156c:	01300000 	teqeq	r0, r0
    1570:	00010000 	andeq	r0, r1, r0
    1574:	00013050 	andeq	r3, r1, r0, asr r0
    1578:	00014400 	andeq	r4, r1, r0, lsl #8
    157c:	f3000400 	vshl.u8	d0, d0, d0
    1580:	009f5001 	addseq	r5, pc, r1
    1584:	00000000 	andeq	r0, r0, r0
    1588:	18000000 	stmdane	r0, {}	; <UNPREDICTABLE>
    158c:	20000001 	andcs	r0, r0, r1
    1590:	02000001 	andeq	r0, r0, #1
    1594:	209f3000 	addscs	r3, pc, r0
    1598:	20000001 	andcs	r0, r0, r1
    159c:	01000001 	tsteq	r0, r1
    15a0:	01205200 	teqeq	r0, r0, lsl #4
    15a4:	01280000 	teqeq	r8, r0
    15a8:	00020000 	andeq	r0, r2, r0
    15ac:	01289f30 	teqeq	r8, r0, lsr pc
    15b0:	013b0000 	teqeq	fp, r0
    15b4:	00010000 	andeq	r0, r1, r0
    15b8:	00000052 	andeq	r0, r0, r2, asr r0
    15bc:	00000000 	andeq	r0, r0, r0
    15c0:	00011800 	andeq	r1, r1, r0, lsl #16
    15c4:	00012c00 	andeq	r2, r1, r0, lsl #24
    15c8:	30000200 	andcc	r0, r0, r0, lsl #4
    15cc:	00012c9f 	muleq	r1, pc, ip	; <UNPREDICTABLE>
    15d0:	00013800 	andeq	r3, r1, r0, lsl #16
    15d4:	31000500 	tstcc	r0, r0, lsl #10
    15d8:	9f240073 	svcls	0x00240073
    15dc:	00000138 	andeq	r0, r0, r8, lsr r1
    15e0:	0000013b 	andeq	r0, r0, fp, lsr r1
    15e4:	3b510001 	blcc	14415f0 <__bss_end__+0x1437178>
    15e8:	44000001 	strmi	r0, [r0], #-1
    15ec:	08000001 	stmdaeq	r0, {r0}
    15f0:	01f33100 	mvnseq	r3, r0, lsl #2
    15f4:	241a4f50 	ldrcs	r4, [sl], #-3920	; 0xf50
    15f8:	0000009f 	muleq	r0, pc, r0	; <UNPREDICTABLE>
    15fc:	00000000 	andeq	r0, r0, r0
    1600:	00014400 	andeq	r4, r1, r0, lsl #8
    1604:	0001d400 	andeq	sp, r1, r0, lsl #8
    1608:	50000100 	andpl	r0, r0, r0, lsl #2
    160c:	000001d4 	ldrdeq	r0, [r0], -r4
    1610:	00000210 	andeq	r0, r0, r0, lsl r2
    1614:	00540001 	subseq	r0, r4, r1
    1618:	00000000 	andeq	r0, r0, r0
    161c:	8c000000 	stchi	0, cr0, [r0], {-0}
    1620:	90000001 	andls	r0, r0, r1
    1624:	01000001 	tsteq	r0, r1
    1628:	01985500 	orrseq	r5, r8, r0, lsl #10
    162c:	019c0000 	orrseq	r0, ip, r0
    1630:	00010000 	andeq	r0, r1, r0
    1634:	0001a455 	andeq	sl, r1, r5, asr r4
    1638:	0001a800 	andeq	sl, r1, r0, lsl #16
    163c:	55000100 	strpl	r0, [r0, #-256]	; 0x100
    1640:	000001b0 			; <UNDEFINED> instruction: 0x000001b0
    1644:	000001b4 			; <UNDEFINED> instruction: 0x000001b4
    1648:	bc550001 	mrrclt	0, 0, r0, r5, cr1
    164c:	c0000001 	andgt	r0, r0, r1
    1650:	01000001 	tsteq	r0, r1
    1654:	01c85500 	biceq	r5, r8, r0, lsl #10
    1658:	01cc0000 	biceq	r0, ip, r0
    165c:	00010000 	andeq	r0, r1, r0
    1660:	0001d055 	andeq	sp, r1, r5, asr r0
    1664:	00021000 	andeq	r1, r2, r0
    1668:	55000100 	strpl	r0, [r0, #-256]	; 0x100
	...
    1674:	00000160 	andeq	r0, r0, r0, ror #2
    1678:	00000188 	andeq	r0, r0, r8, lsl #3
    167c:	88530001 	ldmdahi	r3, {r0}^
    1680:	90000001 	andls	r0, r0, r1
    1684:	1c000001 	stcne	0, cr0, [r0], {1}
    1688:	f7007000 			; <UNDEFINED> instruction: 0xf7007000
    168c:	f425f72c 	vld1.8	{d15}, [r5 :128], ip
    1690:	cccd0825 	stclgt	8, cr0, [sp], {37}	; 0x25
    1694:	0000cccc 	andeq	ip, r0, ip, asr #25
    1698:	081e0000 	ldmdaeq	lr, {}	; <UNPREDICTABLE>
    169c:	2525f720 	strcs	pc, [r5, #-1824]!	; 0x720
    16a0:	25332cf7 	ldrcs	r2, [r3, #-3319]!	; 0xcf7
    16a4:	0001909f 	muleq	r1, pc, r0	; <UNPREDICTABLE>
    16a8:	00019400 	andeq	r9, r1, r0, lsl #8
    16ac:	53000100 	movwpl	r0, #256	; 0x100
    16b0:	00000194 	muleq	r0, r4, r1
    16b4:	0000019c 	muleq	r0, ip, r1
    16b8:	0070001c 	rsbseq	r0, r0, ip, lsl r0
    16bc:	25f72cf7 	ldrbcs	r2, [r7, #3319]!	; 0xcf7
    16c0:	cd0825f4 	cfstr32gt	mvfx2, [r8, #-976]	; 0xfffffc30
    16c4:	00cccccc 	sbceq	ip, ip, ip, asr #25
    16c8:	1e000000 	cdpne	0, 0, cr0, cr0, cr0, {0}
    16cc:	25f72008 	ldrbcs	r2, [r7, #8]!
    16d0:	332cf725 	msrcc	CPSR_fs, #9699328	; 0x940000
    16d4:	019c9f25 	orrseq	r9, ip, r5, lsr #30
    16d8:	01a00000 	moveq	r0, r0
    16dc:	00010000 	andeq	r0, r1, r0
    16e0:	0001a053 	andeq	sl, r1, r3, asr r0
    16e4:	0001a800 	andeq	sl, r1, r0, lsl #16
    16e8:	70001c00 	andvc	r1, r0, r0, lsl #24
    16ec:	f72cf700 			; <UNDEFINED> instruction: 0xf72cf700
    16f0:	0825f425 	stmdaeq	r5!, {r0, r2, r5, sl, ip, sp, lr, pc}
    16f4:	cccccccd 	stclgt	12, cr12, [ip], {205}	; 0xcd
    16f8:	00000000 	andeq	r0, r0, r0
    16fc:	f720081e 			; <UNDEFINED> instruction: 0xf720081e
    1700:	2cf72525 	cfldr64cs	mvdx2, [r7], #148	; 0x94
    1704:	a89f2533 	ldmge	pc, {r0, r1, r4, r5, r8, sl, sp}	; <UNPREDICTABLE>
    1708:	ac000001 	stcge	0, cr0, [r0], {1}
    170c:	01000001 	tsteq	r0, r1
    1710:	01ac5300 			; <UNDEFINED> instruction: 0x01ac5300
    1714:	01b40000 			; <UNDEFINED> instruction: 0x01b40000
    1718:	001c0000 	andseq	r0, ip, r0
    171c:	2cf70070 	ldclcs	0, cr0, [r7], #448	; 0x1c0
    1720:	25f425f7 	ldrbcs	r2, [r4, #1527]!	; 0x5f7
    1724:	cccccd08 	stclgt	13, cr12, [ip], {8}
    1728:	000000cc 	andeq	r0, r0, ip, asr #1
    172c:	20081e00 	andcs	r1, r8, r0, lsl #28
    1730:	f72525f7 			; <UNDEFINED> instruction: 0xf72525f7
    1734:	9f25332c 	svcls	0x0025332c
    1738:	000001b4 			; <UNDEFINED> instruction: 0x000001b4
    173c:	000001b8 			; <UNDEFINED> instruction: 0x000001b8
    1740:	b8530001 	ldmdalt	r3, {r0}^
    1744:	c0000001 	andgt	r0, r0, r1
    1748:	1c000001 	stcne	0, cr0, [r0], {1}
    174c:	f7007000 			; <UNDEFINED> instruction: 0xf7007000
    1750:	f425f72c 	vld1.8	{d15}, [r5 :128], ip
    1754:	cccd0825 	stclgt	8, cr0, [sp], {37}	; 0x25
    1758:	0000cccc 	andeq	ip, r0, ip, asr #25
    175c:	081e0000 	ldmdaeq	lr, {}	; <UNPREDICTABLE>
    1760:	2525f720 	strcs	pc, [r5, #-1824]!	; 0x720
    1764:	25332cf7 	ldrcs	r2, [r3, #-3319]!	; 0xcf7
    1768:	0001c09f 	muleq	r1, pc, r0	; <UNPREDICTABLE>
    176c:	0001c400 	andeq	ip, r1, r0, lsl #8
    1770:	53000100 	movwpl	r0, #256	; 0x100
    1774:	000001c4 	andeq	r0, r0, r4, asr #3
    1778:	000001cc 	andeq	r0, r0, ip, asr #3
    177c:	0070001c 	rsbseq	r0, r0, ip, lsl r0
    1780:	25f72cf7 	ldrbcs	r2, [r7, #3319]!	; 0xcf7
    1784:	cd0825f4 	cfstr32gt	mvfx2, [r8, #-976]	; 0xfffffc30
    1788:	00cccccc 	sbceq	ip, ip, ip, asr #25
    178c:	1e000000 	cdpne	0, 0, cr0, cr0, cr0, {0}
    1790:	25f72008 	ldrbcs	r2, [r7, #8]!
    1794:	332cf725 	msrcc	CPSR_fs, #9699328	; 0x940000
    1798:	01cc9f25 	biceq	r9, ip, r5, lsr #30
    179c:	01d00000 	bicseq	r0, r0, r0
    17a0:	00010000 	andeq	r0, r1, r0
    17a4:	0001d053 	andeq	sp, r1, r3, asr r0
    17a8:	0001d400 	andeq	sp, r1, r0, lsl #8
    17ac:	70001c00 	andvc	r1, r0, r0, lsl #24
    17b0:	f72cf700 			; <UNDEFINED> instruction: 0xf72cf700
    17b4:	0825f425 	stmdaeq	r5!, {r0, r2, r5, sl, ip, sp, lr, pc}
    17b8:	cccccccd 	stclgt	12, cr12, [ip], {205}	; 0xcd
    17bc:	00000000 	andeq	r0, r0, r0
    17c0:	f720081e 			; <UNDEFINED> instruction: 0xf720081e
    17c4:	2cf72525 	cfldr64cs	mvdx2, [r7], #148	; 0x94
    17c8:	d49f2533 	ldrle	r2, [pc], #1331	; 17d0 <_start-0x6830>
    17cc:	dc000001 	stcle	0, cr0, [r0], {1}
    17d0:	1c000001 	stcne	0, cr0, [r0], {1}
    17d4:	f7007400 			; <UNDEFINED> instruction: 0xf7007400
    17d8:	f425f72c 	vld1.8	{d15}, [r5 :128], ip
    17dc:	cccd0825 	stclgt	8, cr0, [sp], {37}	; 0x25
    17e0:	0000cccc 	andeq	ip, r0, ip, asr #25
    17e4:	081e0000 	ldmdaeq	lr, {}	; <UNPREDICTABLE>
    17e8:	2525f720 	strcs	pc, [r5, #-1824]!	; 0x720
    17ec:	25332cf7 	ldrcs	r2, [r3, #-3319]!	; 0xcf7
    17f0:	0001dc9f 	muleq	r1, pc, ip	; <UNPREDICTABLE>
    17f4:	0001e000 	andeq	lr, r1, r0
    17f8:	74001700 	strvc	r1, [r0], #-1792	; 0x700
    17fc:	f72cf700 			; <UNDEFINED> instruction: 0xf72cf700
    1800:	f7007125 			; <UNDEFINED> instruction: 0xf7007125
    1804:	1e25f72c 	cdpne	7, 2, cr15, cr5, cr12, {1}
    1808:	25f72008 	ldrbcs	r2, [r7, #8]!
    180c:	332cf725 	msrcc	CPSR_fs, #9699328	; 0x940000
    1810:	01e09f25 	mvneq	r9, r5, lsr #30
    1814:	02100000 	andseq	r0, r0, #0
    1818:	001c0000 	andseq	r0, ip, r0
    181c:	2cf70074 	ldclcs	0, cr0, [r7], #464	; 0x1d0
    1820:	25f425f7 	ldrbcs	r2, [r4, #1527]!	; 0x5f7
    1824:	cccccd08 	stclgt	13, cr12, [ip], {8}
    1828:	000000cc 	andeq	r0, r0, ip, asr #1
    182c:	20081e00 	andcs	r1, r8, r0, lsl #28
    1830:	f72525f7 			; <UNDEFINED> instruction: 0xf72525f7
    1834:	9f25332c 	svcls	0x0025332c
	...
    1840:	000001d8 	ldrdeq	r0, [r0], -r8
    1844:	000001fc 	strdeq	r0, [r0], -ip
    1848:	fc500001 	mrrc2	0, 0, r0, r0, cr1	; <UNPREDICTABLE>
    184c:	03000001 	movweq	r0, #1
    1850:	01000002 	tsteq	r0, r2
    1854:	00005100 	andeq	r5, r0, r0, lsl #2
    1858:	00000000 	andeq	r0, r0, r0
    185c:	02100000 	andseq	r0, r0, #0
    1860:	022c0000 	eoreq	r0, ip, #0
    1864:	00010000 	andeq	r0, r1, r0
    1868:	00022c50 	andeq	r2, r2, r0, asr ip
    186c:	00023400 	andeq	r3, r2, r0, lsl #8
    1870:	54000100 	strpl	r0, [r0], #-256	; 0x100
    1874:	00000234 	andeq	r0, r0, r4, lsr r2
    1878:	0000023c 	andeq	r0, r0, ip, lsr r2
    187c:	3c500001 	mrrccc	0, 0, r0, r0, cr1	; <UNPREDICTABLE>
    1880:	44000002 	strmi	r0, [r0], #-2
    1884:	01000002 	tsteq	r0, r2
    1888:	02445400 	subeq	r5, r4, #0, 8
    188c:	02500000 	subseq	r0, r0, #0
    1890:	00040000 	andeq	r0, r4, r0
    1894:	9f5001f3 	svcls	0x005001f3
    1898:	00000250 	andeq	r0, r0, r0, asr r2
    189c:	00000254 	andeq	r0, r0, r4, asr r2
    18a0:	54500001 	ldrbpl	r0, [r0], #-1
    18a4:	5c000002 	stcpl	0, cr0, [r0], {2}
    18a8:	01000002 	tsteq	r0, r2
    18ac:	00005400 	andeq	r5, r0, r0, lsl #8
    18b0:	00000000 	andeq	r0, r0, r0
    18b4:	02200000 	eoreq	r0, r0, #0
    18b8:	02300000 	eorseq	r0, r0, #0
    18bc:	00020000 	andeq	r0, r2, r0
    18c0:	02309f30 	eorseq	r9, r0, #48, 30	; 0xc0
    18c4:	02340000 	eorseq	r0, r4, #0
    18c8:	00010000 	andeq	r0, r1, r0
    18cc:	00023450 	andeq	r3, r2, r0, asr r4
    18d0:	00024000 	andeq	r4, r2, r0
    18d4:	30000200 	andcc	r0, r0, r0, lsl #4
    18d8:	0002409f 	muleq	r2, pc, r0	; <UNPREDICTABLE>
    18dc:	00024c00 	andeq	r4, r2, r0, lsl #24
    18e0:	50000100 	andpl	r0, r0, r0, lsl #2
	...
    18ec:	0000025c 	andeq	r0, r0, ip, asr r2
    18f0:	00000273 	andeq	r0, r0, r3, ror r2
    18f4:	73500001 	cmpvc	r0, #1
    18f8:	78000002 	stmdavc	r0, {r1}
    18fc:	04000002 	streq	r0, [r0], #-2
    1900:	5001f300 	andpl	pc, r1, r0, lsl #6
    1904:	0002789f 	muleq	r2, pc, r8	; <UNPREDICTABLE>
    1908:	00027b00 	andeq	r7, r2, r0, lsl #22
    190c:	50000100 	andpl	r0, r0, r0, lsl #2
    1910:	0000027b 	andeq	r0, r0, fp, ror r2
    1914:	00000280 	andeq	r0, r0, r0, lsl #5
    1918:	01f30004 	mvnseq	r0, r4
    191c:	00009f50 	andeq	r9, r0, r0, asr pc
    1920:	00000000 	andeq	r0, r0, r0
    1924:	025c0000 	subseq	r0, ip, #0
    1928:	02730000 	rsbseq	r0, r3, #0
    192c:	00010000 	andeq	r0, r1, r0
    1930:	00027351 	andeq	r7, r2, r1, asr r3
    1934:	00027800 	andeq	r7, r2, r0, lsl #16
    1938:	f3000400 	vshl.u8	d0, d0, d0
    193c:	789f5101 	ldmvc	pc, {r0, r8, ip, lr}	; <UNPREDICTABLE>
    1940:	7b000002 	blvc	1950 <_start-0x66b0>
    1944:	01000002 	tsteq	r0, r2
    1948:	027b5100 	rsbseq	r5, fp, #0, 2
    194c:	02800000 	addeq	r0, r0, #0
    1950:	00040000 	andeq	r0, r4, r0
    1954:	9f5101f3 	svcls	0x005101f3
	...
    1960:	00000280 	andeq	r0, r0, r0, lsl #5
    1964:	00000318 	andeq	r0, r0, r8, lsl r3
    1968:	18500001 	ldmdane	r0, {r0}^
    196c:	58000003 	stmdapl	r0, {r0, r1}
    1970:	01000003 	tsteq	r0, r3
    1974:	00005400 	andeq	r5, r0, r0, lsl #8
    1978:	00000000 	andeq	r0, r0, r0
    197c:	02800000 	addeq	r0, r0, #0
    1980:	031b0000 	tsteq	fp, #0
    1984:	00010000 	andeq	r0, r1, r0
    1988:	00031b51 	andeq	r1, r3, r1, asr fp
    198c:	00035800 	andeq	r5, r3, r0, lsl #16
    1990:	f3000400 	vshl.u8	d0, d0, d0
    1994:	009f5101 	addseq	r5, pc, r1, lsl #2
    1998:	00000000 	andeq	r0, r0, r0
    199c:	d0000000 	andle	r0, r0, r0
    19a0:	d4000002 	strle	r0, [r0], #-2
    19a4:	01000002 	tsteq	r0, r2
    19a8:	02dc5600 	sbcseq	r5, ip, #0, 12
    19ac:	02e00000 	rsceq	r0, r0, #0
    19b0:	00010000 	andeq	r0, r1, r0
    19b4:	0002e856 	andeq	lr, r2, r6, asr r8
    19b8:	0002ec00 	andeq	lr, r2, r0, lsl #24
    19bc:	56000100 	strpl	r0, [r0], -r0, lsl #2
    19c0:	000002f4 	strdeq	r0, [r0], -r4
    19c4:	000002f8 	strdeq	r0, [r0], -r8
    19c8:	00560001 	subseq	r0, r6, r1
    19cc:	04000003 	streq	r0, [r0], #-3
    19d0:	01000003 	tsteq	r0, r3
    19d4:	030c5600 	movweq	r5, #50688	; 0xc600
    19d8:	03100000 	tsteq	r0, #0
    19dc:	00010000 	andeq	r0, r1, r0
    19e0:	00031456 	andeq	r1, r3, r6, asr r4
    19e4:	00035800 	andeq	r5, r3, r0, lsl #16
    19e8:	56000100 	strpl	r0, [r0], -r0, lsl #2
	...
    19f4:	000002a4 	andeq	r0, r0, r4, lsr #5
    19f8:	000002cc 	andeq	r0, r0, ip, asr #5
    19fc:	cc530001 	mrrcgt	0, 0, r0, r3, cr1
    1a00:	d4000002 	strle	r0, [r0], #-2
    1a04:	1c000002 	stcne	0, cr0, [r0], {2}
    1a08:	f7007000 			; <UNDEFINED> instruction: 0xf7007000
    1a0c:	f425f72c 	vld1.8	{d15}, [r5 :128], ip
    1a10:	cccd0825 	stclgt	8, cr0, [sp], {37}	; 0x25
    1a14:	0000cccc 	andeq	ip, r0, ip, asr #25
    1a18:	081e0000 	ldmdaeq	lr, {}	; <UNPREDICTABLE>
    1a1c:	2525f720 	strcs	pc, [r5, #-1824]!	; 0x720
    1a20:	25332cf7 	ldrcs	r2, [r3, #-3319]!	; 0xcf7
    1a24:	0002d49f 	muleq	r2, pc, r4	; <UNPREDICTABLE>
    1a28:	0002d800 	andeq	sp, r2, r0, lsl #16
    1a2c:	53000100 	movwpl	r0, #256	; 0x100
    1a30:	000002d8 	ldrdeq	r0, [r0], -r8
    1a34:	000002e0 	andeq	r0, r0, r0, ror #5
    1a38:	0070001c 	rsbseq	r0, r0, ip, lsl r0
    1a3c:	25f72cf7 	ldrbcs	r2, [r7, #3319]!	; 0xcf7
    1a40:	cd0825f4 	cfstr32gt	mvfx2, [r8, #-976]	; 0xfffffc30
    1a44:	00cccccc 	sbceq	ip, ip, ip, asr #25
    1a48:	1e000000 	cdpne	0, 0, cr0, cr0, cr0, {0}
    1a4c:	25f72008 	ldrbcs	r2, [r7, #8]!
    1a50:	332cf725 	msrcc	CPSR_fs, #9699328	; 0x940000
    1a54:	02e09f25 	rsceq	r9, r0, #37, 30	; 0x94
    1a58:	02e40000 	rsceq	r0, r4, #0
    1a5c:	00010000 	andeq	r0, r1, r0
    1a60:	0002e453 	andeq	lr, r2, r3, asr r4
    1a64:	0002ec00 	andeq	lr, r2, r0, lsl #24
    1a68:	70001c00 	andvc	r1, r0, r0, lsl #24
    1a6c:	f72cf700 			; <UNDEFINED> instruction: 0xf72cf700
    1a70:	0825f425 	stmdaeq	r5!, {r0, r2, r5, sl, ip, sp, lr, pc}
    1a74:	cccccccd 	stclgt	12, cr12, [ip], {205}	; 0xcd
    1a78:	00000000 	andeq	r0, r0, r0
    1a7c:	f720081e 			; <UNDEFINED> instruction: 0xf720081e
    1a80:	2cf72525 	cfldr64cs	mvdx2, [r7], #148	; 0x94
    1a84:	ec9f2533 	cfldr32	mvfx2, [pc], {51}	; 0x33
    1a88:	f0000002 			; <UNDEFINED> instruction: 0xf0000002
    1a8c:	01000002 	tsteq	r0, r2
    1a90:	02f05300 	rscseq	r5, r0, #0, 6
    1a94:	02f80000 	rscseq	r0, r8, #0
    1a98:	001c0000 	andseq	r0, ip, r0
    1a9c:	2cf70070 	ldclcs	0, cr0, [r7], #448	; 0x1c0
    1aa0:	25f425f7 	ldrbcs	r2, [r4, #1527]!	; 0x5f7
    1aa4:	cccccd08 	stclgt	13, cr12, [ip], {8}
    1aa8:	000000cc 	andeq	r0, r0, ip, asr #1
    1aac:	20081e00 	andcs	r1, r8, r0, lsl #28
    1ab0:	f72525f7 			; <UNDEFINED> instruction: 0xf72525f7
    1ab4:	9f25332c 	svcls	0x0025332c
    1ab8:	000002f8 	strdeq	r0, [r0], -r8
    1abc:	000002fc 	strdeq	r0, [r0], -ip
    1ac0:	fc530001 	mrrc2	0, 0, r0, r3, cr1
    1ac4:	04000002 	streq	r0, [r0], #-2
    1ac8:	1c000003 	stcne	0, cr0, [r0], {3}
    1acc:	f7007000 			; <UNDEFINED> instruction: 0xf7007000
    1ad0:	f425f72c 	vld1.8	{d15}, [r5 :128], ip
    1ad4:	cccd0825 	stclgt	8, cr0, [sp], {37}	; 0x25
    1ad8:	0000cccc 	andeq	ip, r0, ip, asr #25
    1adc:	081e0000 	ldmdaeq	lr, {}	; <UNPREDICTABLE>
    1ae0:	2525f720 	strcs	pc, [r5, #-1824]!	; 0x720
    1ae4:	25332cf7 	ldrcs	r2, [r3, #-3319]!	; 0xcf7
    1ae8:	0003049f 	muleq	r3, pc, r4	; <UNPREDICTABLE>
    1aec:	00030800 	andeq	r0, r3, r0, lsl #16
    1af0:	53000100 	movwpl	r0, #256	; 0x100
    1af4:	00000308 	andeq	r0, r0, r8, lsl #6
    1af8:	00000310 	andeq	r0, r0, r0, lsl r3
    1afc:	0070001c 	rsbseq	r0, r0, ip, lsl r0
    1b00:	25f72cf7 	ldrbcs	r2, [r7, #3319]!	; 0xcf7
    1b04:	cd0825f4 	cfstr32gt	mvfx2, [r8, #-976]	; 0xfffffc30
    1b08:	00cccccc 	sbceq	ip, ip, ip, asr #25
    1b0c:	1e000000 	cdpne	0, 0, cr0, cr0, cr0, {0}
    1b10:	25f72008 	ldrbcs	r2, [r7, #8]!
    1b14:	332cf725 	msrcc	CPSR_fs, #9699328	; 0x940000
    1b18:	03109f25 	tsteq	r0, #37, 30	; 0x94
    1b1c:	03140000 	tsteq	r4, #0
    1b20:	00010000 	andeq	r0, r1, r0
    1b24:	00031453 	andeq	r1, r3, r3, asr r4
    1b28:	00031800 	andeq	r1, r3, r0, lsl #16
    1b2c:	70001c00 	andvc	r1, r0, r0, lsl #24
    1b30:	f72cf700 			; <UNDEFINED> instruction: 0xf72cf700
    1b34:	0825f425 	stmdaeq	r5!, {r0, r2, r5, sl, ip, sp, lr, pc}
    1b38:	cccccccd 	stclgt	12, cr12, [ip], {205}	; 0xcd
    1b3c:	00000000 	andeq	r0, r0, r0
    1b40:	f720081e 			; <UNDEFINED> instruction: 0xf720081e
    1b44:	2cf72525 	cfldr64cs	mvdx2, [r7], #148	; 0x94
    1b48:	189f2533 	ldmne	pc, {r0, r1, r4, r5, r8, sl, sp}	; <UNPREDICTABLE>
    1b4c:	20000003 	andcs	r0, r0, r3
    1b50:	1c000003 	stcne	0, cr0, [r0], {3}
    1b54:	f7007400 			; <UNDEFINED> instruction: 0xf7007400
    1b58:	f425f72c 	vld1.8	{d15}, [r5 :128], ip
    1b5c:	cccd0825 	stclgt	8, cr0, [sp], {37}	; 0x25
    1b60:	0000cccc 	andeq	ip, r0, ip, asr #25
    1b64:	081e0000 	ldmdaeq	lr, {}	; <UNPREDICTABLE>
    1b68:	2525f720 	strcs	pc, [r5, #-1824]!	; 0x720
    1b6c:	25332cf7 	ldrcs	r2, [r3, #-3319]!	; 0xcf7
    1b70:	0003209f 	muleq	r3, pc, r0	; <UNPREDICTABLE>
    1b74:	00032400 	andeq	r2, r3, r0, lsl #8
    1b78:	74001700 	strvc	r1, [r0], #-1792	; 0x700
    1b7c:	f72cf700 			; <UNDEFINED> instruction: 0xf72cf700
    1b80:	f7007325 			; <UNDEFINED> instruction: 0xf7007325
    1b84:	1e25f72c 	cdpne	7, 2, cr15, cr5, cr12, {1}
    1b88:	25f72008 	ldrbcs	r2, [r7, #8]!
    1b8c:	332cf725 	msrcc	CPSR_fs, #9699328	; 0x940000
    1b90:	03249f25 	teqeq	r4, #37, 30	; 0x94
    1b94:	03580000 	cmpeq	r8, #0
    1b98:	001c0000 	andseq	r0, ip, r0
    1b9c:	2cf70074 	ldclcs	0, cr0, [r7], #464	; 0x1d0
    1ba0:	25f425f7 	ldrbcs	r2, [r4, #1527]!	; 0x5f7
    1ba4:	cccccd08 	stclgt	13, cr12, [ip], {8}
    1ba8:	000000cc 	andeq	r0, r0, ip, asr #1
    1bac:	20081e00 	andcs	r1, r8, r0, lsl #28
    1bb0:	f72525f7 			; <UNDEFINED> instruction: 0xf72525f7
    1bb4:	9f25332c 	svcls	0x0025332c
	...
    1bc0:	0000031c 	andeq	r0, r0, ip, lsl r3
    1bc4:	00000340 	andeq	r0, r0, r0, asr #6
    1bc8:	40500001 	subsmi	r0, r0, r1
    1bcc:	48000003 	stmdami	r0, {r0, r1}
    1bd0:	09000003 	stmdbeq	r0, {r0, r1}
    1bd4:	73007500 	movwvc	r7, #1280	; 0x500
    1bd8:	00712400 	rsbseq	r2, r1, r0, lsl #8
    1bdc:	03489f21 	movteq	r9, #36641	; 0x8f21
    1be0:	034b0000 	movteq	r0, #45056	; 0xb000
    1be4:	00010000 	andeq	r0, r1, r0
    1be8:	00000051 	andeq	r0, r0, r1, asr r0
    1bec:	00000000 	andeq	r0, r0, r0
    1bf0:	00035800 	andeq	r5, r3, r0, lsl #16
    1bf4:	00037c00 	andeq	r7, r3, r0, lsl #24
    1bf8:	50000100 	andpl	r0, r0, r0, lsl #2
    1bfc:	0000037c 	andeq	r0, r0, ip, ror r3
    1c00:	00000390 	muleq	r0, r0, r3
    1c04:	01f30004 	mvnseq	r0, r4
    1c08:	00009f50 	andeq	r9, r0, r0, asr pc
    1c0c:	00000000 	andeq	r0, r0, r0
    1c10:	03640000 	cmneq	r4, #0
    1c14:	036c0000 	cmneq	ip, #0
    1c18:	00020000 	andeq	r0, r2, r0
    1c1c:	036c9f30 	cmneq	ip, #48, 30	; 0xc0
    1c20:	036c0000 	cmneq	ip, #0
    1c24:	00010000 	andeq	r0, r1, r0
    1c28:	00036c52 	andeq	r6, r3, r2, asr ip
    1c2c:	00037400 	andeq	r7, r3, r0, lsl #8
    1c30:	30000200 	andcc	r0, r0, r0, lsl #4
    1c34:	0003749f 	muleq	r3, pc, r4	; <UNPREDICTABLE>
    1c38:	00038700 	andeq	r8, r3, r0, lsl #14
    1c3c:	52000100 	andpl	r0, r0, #0, 2
	...
    1c48:	00000364 	andeq	r0, r0, r4, ror #6
    1c4c:	00000378 	andeq	r0, r0, r8, ror r3
    1c50:	9f300002 	svcls	0x00300002
    1c54:	00000378 	andeq	r0, r0, r8, ror r3
    1c58:	00000384 	andeq	r0, r0, r4, lsl #7
    1c5c:	73310005 	teqvc	r1, #5
    1c60:	849f2400 	ldrhi	r2, [pc], #1024	; 1c68 <_start-0x6398>
    1c64:	87000003 	strhi	r0, [r0, -r3]
    1c68:	01000003 	tsteq	r0, r3
    1c6c:	03875100 	orreq	r5, r7, #0, 2
    1c70:	03900000 	orrseq	r0, r0, #0
    1c74:	00080000 	andeq	r0, r8, r0
    1c78:	5001f331 	andpl	pc, r1, r1, lsr r3	; <UNPREDICTABLE>
    1c7c:	9f241a4f 	svcls	0x00241a4f
	...
    1c88:	00000390 	muleq	r0, r0, r3
    1c8c:	0000039c 	muleq	r0, ip, r3
    1c90:	9c500001 	mrrcls	0, 0, r0, r0, cr1	; <UNPREDICTABLE>
    1c94:	bc000003 	stclt	0, cr0, [r0], {3}
    1c98:	04000003 	streq	r0, [r0], #-3
    1c9c:	5001f300 	andpl	pc, r1, r0, lsl #6
    1ca0:	0000009f 	muleq	r0, pc, r0	; <UNPREDICTABLE>
    1ca4:	00000000 	andeq	r0, r0, r0
    1ca8:	0003bc00 	andeq	fp, r3, r0, lsl #24
    1cac:	0003cf00 	andeq	ip, r3, r0, lsl #30
    1cb0:	50000100 	andpl	r0, r0, r0, lsl #2
    1cb4:	000003cf 	andeq	r0, r0, pc, asr #7
    1cb8:	00000408 	andeq	r0, r0, r8, lsl #8
    1cbc:	08540001 	ldmdaeq	r4, {r0}^
    1cc0:	40000004 	andmi	r0, r0, r4
    1cc4:	04000004 	streq	r0, [r0], #-4
    1cc8:	5001f300 	andpl	pc, r1, r0, lsl #6
    1ccc:	0000009f 	muleq	r0, pc, r0	; <UNPREDICTABLE>
    1cd0:	00000000 	andeq	r0, r0, r0
    1cd4:	00042800 	andeq	r2, r4, r0, lsl #16
    1cd8:	00042c00 	andeq	r2, r4, r0, lsl #24
    1cdc:	50000100 	andpl	r0, r0, r0, lsl #2
    1ce0:	0000042c 	andeq	r0, r0, ip, lsr #8
    1ce4:	00000433 	andeq	r0, r0, r3, lsr r4
    1ce8:	00510001 	subseq	r0, r1, r1
    1cec:	00000000 	andeq	r0, r0, r0
    1cf0:	e4000000 	str	r0, [r0], #-0
    1cf4:	ec000003 	stc	0, cr0, [r0], {3}
    1cf8:	01000003 	tsteq	r0, r3
    1cfc:	03ec5000 	mvneq	r5, #0
    1d00:	03f30000 	mvnseq	r0, #0
    1d04:	00010000 	andeq	r0, r1, r0
    1d08:	00000051 	andeq	r0, r0, r1, asr r0
    1d0c:	00000000 	andeq	r0, r0, r0
    1d10:	00040400 	andeq	r0, r4, r0, lsl #8
    1d14:	00041000 	andeq	r1, r4, r0
    1d18:	50000100 	andpl	r0, r0, r0, lsl #2
    1d1c:	00000410 	andeq	r0, r0, r0, lsl r4
    1d20:	00000417 	andeq	r0, r0, r7, lsl r4
    1d24:	00510001 	subseq	r0, r1, r1
    1d28:	00000000 	andeq	r0, r0, r0
    1d2c:	40000000 	andmi	r0, r0, r0
    1d30:	53000004 	movwpl	r0, #4
    1d34:	01000004 	tsteq	r0, r4
    1d38:	04535000 	ldrbeq	r5, [r3], #-0
    1d3c:	048c0000 	streq	r0, [ip], #0
    1d40:	00010000 	andeq	r0, r1, r0
    1d44:	00048c54 	andeq	r8, r4, r4, asr ip
    1d48:	0004c400 	andeq	ip, r4, r0, lsl #8
    1d4c:	f3000400 	vshl.u8	d0, d0, d0
    1d50:	009f5001 	addseq	r5, pc, r1
    1d54:	00000000 	andeq	r0, r0, r0
    1d58:	ac000000 	stcge	0, cr0, [r0], {-0}
    1d5c:	b0000004 	andlt	r0, r0, r4
    1d60:	01000004 	tsteq	r0, r4
    1d64:	04b05000 	ldrteq	r5, [r0], #0
    1d68:	04b70000 	ldrteq	r0, [r7], #0
    1d6c:	00010000 	andeq	r0, r1, r0
    1d70:	00000051 	andeq	r0, r0, r1, asr r0
    1d74:	00000000 	andeq	r0, r0, r0
    1d78:	00046800 	andeq	r6, r4, r0, lsl #16
    1d7c:	00047000 	andeq	r7, r4, r0
    1d80:	50000100 	andpl	r0, r0, r0, lsl #2
    1d84:	00000470 	andeq	r0, r0, r0, ror r4
    1d88:	00000477 	andeq	r0, r0, r7, ror r4
    1d8c:	00510001 	subseq	r0, r1, r1
    1d90:	00000000 	andeq	r0, r0, r0
    1d94:	88000000 	stmdahi	r0, {}	; <UNPREDICTABLE>
    1d98:	94000004 	strls	r0, [r0], #-4
    1d9c:	01000004 	tsteq	r0, r4
    1da0:	04945000 	ldreq	r5, [r4], #0
    1da4:	049b0000 	ldreq	r0, [fp], #0
    1da8:	00010000 	andeq	r0, r1, r0
    1dac:	00000051 	andeq	r0, r0, r1, asr r0
    1db0:	00000000 	andeq	r0, r0, r0
    1db4:	0004c400 	andeq	ip, r4, r0, lsl #8
    1db8:	0004d700 	andeq	sp, r4, r0, lsl #14
    1dbc:	50000100 	andpl	r0, r0, r0, lsl #2
    1dc0:	000004d7 	ldrdeq	r0, [r0], -r7
    1dc4:	00000518 	andeq	r0, r0, r8, lsl r5
    1dc8:	18540001 	ldmdane	r4, {r0}^
    1dcc:	3c000005 	stccc	0, cr0, [r0], {5}
    1dd0:	04000005 	streq	r0, [r0], #-5
    1dd4:	5001f300 	andpl	pc, r1, r0, lsl #6
    1dd8:	00053c9f 	muleq	r5, pc, ip	; <UNPREDICTABLE>
    1ddc:	00054000 	andeq	r4, r5, r0
    1de0:	50000100 	andpl	r0, r0, r0, lsl #2
    1de4:	00000540 	andeq	r0, r0, r0, asr #10
    1de8:	00000548 	andeq	r0, r0, r8, asr #10
    1dec:	00540001 	subseq	r0, r4, r1
    1df0:	00000000 	andeq	r0, r0, r0
    1df4:	ec000000 	stc	0, cr0, [r0], {-0}
    1df8:	fb000004 	blx	1e12 <_start-0x61ee>
    1dfc:	08000004 	stmdaeq	r0, {r2}
    1e00:	00743100 	rsbseq	r3, r4, r0, lsl #2
    1e04:	1a007024 	bne	1de9c <__bss_end__+0x13a24>
    1e08:	0000009f 	muleq	r0, pc, r0	; <UNPREDICTABLE>
    1e0c:	00000000 	andeq	r0, r0, r0
    1e10:	00051800 	andeq	r1, r5, r0, lsl #16
    1e14:	00053000 	andeq	r3, r5, r0
    1e18:	54000100 	strpl	r0, [r0], #-256	; 0x100
	...
    1e24:	00000548 	andeq	r0, r0, r8, asr #10
    1e28:	0000055b 	andeq	r0, r0, fp, asr r5
    1e2c:	5b500001 	blpl	1401e38 <__bss_end__+0x13f79c0>
    1e30:	80000005 	andhi	r0, r0, r5
    1e34:	01000005 	tsteq	r0, r5
    1e38:	05805400 	streq	r5, [r0, #1024]	; 0x400
    1e3c:	05a00000 	streq	r0, [r0, #0]!
    1e40:	00040000 	andeq	r0, r4, r0
    1e44:	9f5001f3 	svcls	0x005001f3
	...
    1e54:	00000018 	andeq	r0, r0, r8, lsl r0
    1e58:	18500001 	ldmdane	r0, {r0}^
    1e5c:	54000000 	strpl	r0, [r0], #-0
    1e60:	04000001 	streq	r0, [r0], #-1
    1e64:	5001f300 	andpl	pc, r1, r0, lsl #6
    1e68:	0000009f 	muleq	r0, pc, r0	; <UNPREDICTABLE>
	...
    1e74:	00001c00 	andeq	r1, r0, r0, lsl #24
    1e78:	51000100 	mrspl	r0, (UNDEF: 16)
    1e7c:	0000001c 	andeq	r0, r0, ip, lsl r0
    1e80:	00000154 	andeq	r0, r0, r4, asr r1
    1e84:	01f30004 	mvnseq	r0, r4
    1e88:	00009f51 	andeq	r9, r0, r1, asr pc
    1e8c:	00000000 	andeq	r0, r0, r0
    1e90:	00100000 	andseq	r0, r0, r0
    1e94:	01340000 	teqeq	r4, r0
    1e98:	00010000 	andeq	r0, r1, r0
    1e9c:	00000055 	andeq	r0, r0, r5, asr r0
    1ea0:	00000000 	andeq	r0, r0, r0
    1ea4:	00001000 	andeq	r1, r0, r0
    1ea8:	00003400 	andeq	r3, r0, r0, lsl #8
    1eac:	55000100 	strpl	r0, [r0, #-256]	; 0x100
    1eb0:	00000034 	andeq	r0, r0, r4, lsr r0
    1eb4:	00000134 	andeq	r0, r0, r4, lsr r1
    1eb8:	34580001 	ldrbcc	r0, [r8], #-1
    1ebc:	54000001 	strpl	r0, [r0], #-1
    1ec0:	01000001 	tsteq	r0, r1
    1ec4:	00005500 	andeq	r5, r0, r0, lsl #10
    1ec8:	00000000 	andeq	r0, r0, r0
    1ecc:	00140000 	andseq	r0, r4, r0
    1ed0:	01340000 	teqeq	r4, r0
    1ed4:	00010000 	andeq	r0, r1, r0
    1ed8:	00000055 	andeq	r0, r0, r5, asr r0
    1edc:	00000000 	andeq	r0, r0, r0
    1ee0:	00002000 	andeq	r2, r0, r0
    1ee4:	00013400 	andeq	r3, r1, r0, lsl #8
    1ee8:	55000100 	strpl	r0, [r0, #-256]	; 0x100
	...
    1ef4:	00000024 	andeq	r0, r0, r4, lsr #32
    1ef8:	00000028 	andeq	r0, r0, r8, lsr #32
    1efc:	00530001 	subseq	r0, r3, r1
    1f00:	00000000 	andeq	r0, r0, r0
    1f04:	34000000 	strcc	r0, [r0], #-0
    1f08:	54000000 	strpl	r0, [r0], #-0
    1f0c:	01000000 	mrseq	r0, (UNDEF: 0)
    1f10:	00545800 	subseq	r5, r4, r0, lsl #16
    1f14:	01340000 	teqeq	r4, r0
    1f18:	00050000 	andeq	r0, r5, r0
    1f1c:	24310075 	ldrtcs	r0, [r1], #-117	; 0x75
    1f20:	0000009f 	muleq	r0, pc, r0	; <UNPREDICTABLE>
    1f24:	00000000 	andeq	r0, r0, r0
    1f28:	00003400 	andeq	r3, r0, r0, lsl #8
    1f2c:	00003c00 	andeq	r3, r0, r0, lsl #24
    1f30:	77000500 	strvc	r0, [r0, -r0, lsl #10]
    1f34:	9f1a3100 	svcls	0x001a3100
    1f38:	0000003c 	andeq	r0, r0, ip, lsr r0
    1f3c:	0000003f 	andeq	r0, r0, pc, lsr r0
    1f40:	3f510001 	svccc	0x00510001
    1f44:	54000000 	strpl	r0, [r0], #-0
    1f48:	05000001 	streq	r0, [r0, #-1]
    1f4c:	31007700 	tstcc	r0, r0, lsl #14
    1f50:	00009f1a 	andeq	r9, r0, sl, lsl pc
    1f54:	00000000 	andeq	r0, r0, r0
    1f58:	00400000 	subeq	r0, r0, r0
    1f5c:	00540000 	subseq	r0, r4, r0
    1f60:	00010000 	andeq	r0, r1, r0
    1f64:	00005458 	andeq	r5, r0, r8, asr r4
    1f68:	00013400 	andeq	r3, r1, r0, lsl #8
    1f6c:	75000500 	strvc	r0, [r0, #-1280]	; 0x500
    1f70:	9f243100 	svcls	0x00243100
	...
    1f7c:	00000044 	andeq	r0, r0, r4, asr #32
    1f80:	00000048 	andeq	r0, r0, r8, asr #32
    1f84:	00530001 	subseq	r0, r3, r1
    1f88:	00000000 	andeq	r0, r0, r0
    1f8c:	54000000 	strpl	r0, [r0], #-0
    1f90:	74000000 	strvc	r0, [r0], #-0
    1f94:	01000000 	mrseq	r0, (UNDEF: 0)
    1f98:	00745800 	rsbseq	r5, r4, r0, lsl #16
    1f9c:	01340000 	teqeq	r4, r0
    1fa0:	00080000 	andeq	r0, r8, r0
    1fa4:	24310075 	ldrtcs	r0, [r1], #-117	; 0x75
    1fa8:	9f220075 	svcls	0x00220075
	...
    1fb4:	00000060 	andeq	r0, r0, r0, rrx
    1fb8:	00000074 	andeq	r0, r0, r4, ror r0
    1fbc:	74580001 	ldrbvc	r0, [r8], #-1
    1fc0:	34000000 	strcc	r0, [r0], #-0
    1fc4:	08000001 	stmdaeq	r0, {r0}
    1fc8:	31007500 	tstcc	r0, r0, lsl #10
    1fcc:	22007524 	andcs	r7, r0, #36, 10	; 0x9000000
    1fd0:	0000009f 	muleq	r0, pc, r0	; <UNPREDICTABLE>
    1fd4:	00000000 	andeq	r0, r0, r0
    1fd8:	00006400 	andeq	r6, r0, r0, lsl #8
    1fdc:	00006800 	andeq	r6, r0, r0, lsl #16
    1fe0:	53000100 	movwpl	r0, #256	; 0x100
	...
    1fec:	00000074 	andeq	r0, r0, r4, ror r0
    1ff0:	00000094 	muleq	r0, r4, r0
    1ff4:	94580001 	ldrbls	r0, [r8], #-1
    1ff8:	34000000 	strcc	r0, [r0], #-0
    1ffc:	05000001 	streq	r0, [r0, #-1]
    2000:	32007500 	andcc	r7, r0, #0, 10
    2004:	00009f24 	andeq	r9, r0, r4, lsr #30
    2008:	00000000 	andeq	r0, r0, r0
    200c:	00800000 	addeq	r0, r0, r0
    2010:	00940000 	addseq	r0, r4, r0
    2014:	00010000 	andeq	r0, r1, r0
    2018:	00009458 	andeq	r9, r0, r8, asr r4
    201c:	00013400 	andeq	r3, r1, r0, lsl #8
    2020:	75000500 	strvc	r0, [r0, #-1280]	; 0x500
    2024:	9f243200 	svcls	0x00243200
	...
    2030:	00000084 	andeq	r0, r0, r4, lsl #1
    2034:	00000088 	andeq	r0, r0, r8, lsl #1
    2038:	00530001 	subseq	r0, r3, r1
    203c:	00000000 	andeq	r0, r0, r0
    2040:	94000000 	strls	r0, [r0], #-0
    2044:	b4000000 	strlt	r0, [r0], #-0
    2048:	01000000 	mrseq	r0, (UNDEF: 0)
    204c:	00b45800 	adcseq	r5, r4, r0, lsl #16
    2050:	01340000 	teqeq	r4, r0
    2054:	00080000 	andeq	r0, r8, r0
    2058:	24320075 	ldrtcs	r0, [r2], #-117	; 0x75
    205c:	9f220075 	svcls	0x00220075
	...
    2068:	000000a0 	andeq	r0, r0, r0, lsr #1
    206c:	000000b4 	strheq	r0, [r0], -r4
    2070:	b4580001 	ldrblt	r0, [r8], #-1
    2074:	34000000 	strcc	r0, [r0], #-0
    2078:	08000001 	stmdaeq	r0, {r0}
    207c:	32007500 	andcc	r7, r0, #0, 10
    2080:	22007524 	andcs	r7, r0, #36, 10	; 0x9000000
    2084:	0000009f 	muleq	r0, pc, r0	; <UNPREDICTABLE>
    2088:	00000000 	andeq	r0, r0, r0
    208c:	0000a400 	andeq	sl, r0, r0, lsl #8
    2090:	0000a800 	andeq	sl, r0, r0, lsl #16
    2094:	53000100 	movwpl	r0, #256	; 0x100
	...
    20a0:	000000b4 	strheq	r0, [r0], -r4
    20a4:	000000d4 	ldrdeq	r0, [r0], -r4
    20a8:	d4580001 	ldrble	r0, [r8], #-1
    20ac:	34000000 	strcc	r0, [r0], #-0
    20b0:	0a000001 	beq	20bc <_start-0x5f44>
    20b4:	32007500 	andcc	r7, r0, #0, 10
    20b8:	31007524 	tstcc	r0, r4, lsr #10
    20bc:	009f2224 	addseq	r2, pc, r4, lsr #4
    20c0:	00000000 	andeq	r0, r0, r0
    20c4:	c0000000 	andgt	r0, r0, r0
    20c8:	d4000000 	strle	r0, [r0], #-0
    20cc:	01000000 	mrseq	r0, (UNDEF: 0)
    20d0:	00d45800 	sbcseq	r5, r4, r0, lsl #16
    20d4:	01340000 	teqeq	r4, r0
    20d8:	000a0000 	andeq	r0, sl, r0
    20dc:	24320075 	ldrtcs	r0, [r2], #-117	; 0x75
    20e0:	24310075 	ldrtcs	r0, [r1], #-117	; 0x75
    20e4:	00009f22 	andeq	r9, r0, r2, lsr #30
    20e8:	00000000 	andeq	r0, r0, r0
    20ec:	00c40000 	sbceq	r0, r4, r0
    20f0:	00c80000 	sbceq	r0, r8, r0
    20f4:	00010000 	andeq	r0, r1, r0
    20f8:	00000053 	andeq	r0, r0, r3, asr r0
    20fc:	00000000 	andeq	r0, r0, r0
    2100:	0000d400 	andeq	sp, r0, r0, lsl #8
    2104:	0000f400 	andeq	pc, r0, r0, lsl #8
    2108:	58000100 	stmdapl	r0, {r8}
    210c:	000000f4 	strdeq	r0, [r0], -r4
    2110:	00000134 	andeq	r0, r0, r4, lsr r1
    2114:	0075000d 	rsbseq	r0, r5, sp
    2118:	00752432 	rsbseq	r2, r5, r2, lsr r4
    211c:	75222431 	strvc	r2, [r2, #-1073]!	; 0x431
    2120:	009f2200 	addseq	r2, pc, r0, lsl #4
    2124:	00000000 	andeq	r0, r0, r0
    2128:	e0000000 	and	r0, r0, r0
    212c:	f4000000 	vst4.8	{d0-d3}, [r0], r0
    2130:	01000000 	mrseq	r0, (UNDEF: 0)
    2134:	00f45800 	rscseq	r5, r4, r0, lsl #16
    2138:	01340000 	teqeq	r4, r0
    213c:	000d0000 	andeq	r0, sp, r0
    2140:	24320075 	ldrtcs	r0, [r2], #-117	; 0x75
    2144:	24310075 	ldrtcs	r0, [r1], #-117	; 0x75
    2148:	22007522 	andcs	r7, r0, #142606336	; 0x8800000
    214c:	0000009f 	muleq	r0, pc, r0	; <UNPREDICTABLE>
    2150:	00000000 	andeq	r0, r0, r0
    2154:	0000e400 	andeq	lr, r0, r0, lsl #8
    2158:	0000e800 	andeq	lr, r0, r0, lsl #16
    215c:	53000100 	movwpl	r0, #256	; 0x100
	...
    2168:	000000f4 	strdeq	r0, [r0], -r4
    216c:	00000114 	andeq	r0, r0, r4, lsl r1
    2170:	14580001 	ldrbne	r0, [r8], #-1
    2174:	34000001 	strcc	r0, [r0], #-1
    2178:	05000001 	streq	r0, [r0, #-1]
    217c:	33007500 	movwcc	r7, #1280	; 0x500
    2180:	00009f24 	andeq	r9, r0, r4, lsr #30
    2184:	00000000 	andeq	r0, r0, r0
    2188:	01000000 	mrseq	r0, (UNDEF: 0)
    218c:	01140000 	tsteq	r4, r0
    2190:	00010000 	andeq	r0, r1, r0
    2194:	00011458 	andeq	r1, r1, r8, asr r4
    2198:	00013400 	andeq	r3, r1, r0, lsl #8
    219c:	75000500 	strvc	r0, [r0, #-1280]	; 0x500
    21a0:	9f243300 	svcls	0x00243300
	...
    21ac:	00000104 	andeq	r0, r0, r4, lsl #2
    21b0:	00000108 	andeq	r0, r0, r8, lsl #2
    21b4:	00530001 	subseq	r0, r3, r1
    21b8:	00000000 	andeq	r0, r0, r0
    21bc:	14000000 	strne	r0, [r0], #-0
    21c0:	1c000001 	stcne	0, cr0, [r0], {1}
    21c4:	06000001 	streq	r0, [r0], -r1
    21c8:	08007700 	stmdaeq	r0, {r8, r9, sl, ip, sp, lr}
    21cc:	1c9f1a80 	vldmiane	pc, {s2-s129}
    21d0:	1f000001 	svcne	0x00000001
    21d4:	01000001 	tsteq	r0, r1
    21d8:	011f5100 	tsteq	pc, r0, lsl #2
    21dc:	01540000 	cmpeq	r4, r0
    21e0:	00060000 	andeq	r0, r6, r0
    21e4:	80080077 	andhi	r0, r8, r7, ror r0
    21e8:	00009f1a 	andeq	r9, r0, sl, lsl pc
    21ec:	00000000 	andeq	r0, r0, r0
    21f0:	01240000 	teqeq	r4, r0
    21f4:	01280000 	teqeq	r8, r0
    21f8:	00010000 	andeq	r0, r1, r0
    21fc:	00000053 	andeq	r0, r0, r3, asr r0
    2200:	00000000 	andeq	r0, r0, r0
    2204:	00014400 	andeq	r4, r1, r0, lsl #8
    2208:	00014800 	andeq	r4, r1, r0, lsl #16
    220c:	53000100 	movwpl	r0, #256	; 0x100
	...
    2218:	00000154 	andeq	r0, r0, r4, asr r1
    221c:	0000016b 	andeq	r0, r0, fp, ror #2
    2220:	6b500001 	blvs	140222c <__bss_end__+0x13f7db4>
    2224:	d0000001 	andle	r0, r0, r1
    2228:	01000001 	tsteq	r0, r1
    222c:	01d05900 	bicseq	r5, r0, r0, lsl #18
    2230:	030c0000 	movweq	r0, #49152	; 0xc000
    2234:	00040000 	andeq	r0, r4, r0
    2238:	9f5001f3 	svcls	0x005001f3
    223c:	0000030c 	andeq	r0, r0, ip, lsl #6
    2240:	00000314 	andeq	r0, r0, r4, lsl r3
    2244:	14590001 	ldrbne	r0, [r9], #-1
    2248:	1c000003 	stcne	0, cr0, [r0], {3}
    224c:	04000003 	streq	r0, [r0], #-3
    2250:	5001f300 	andpl	pc, r1, r0, lsl #6
    2254:	0000009f 	muleq	r0, pc, r0	; <UNPREDICTABLE>
    2258:	00000000 	andeq	r0, r0, r0
    225c:	00015400 	andeq	r5, r1, r0, lsl #8
    2260:	00016b00 	andeq	r6, r1, r0, lsl #22
    2264:	51000100 	mrspl	r0, (UNDEF: 16)
    2268:	0000016b 	andeq	r0, r0, fp, ror #2
    226c:	0000031c 	andeq	r0, r0, ip, lsl r3
    2270:	00560001 	subseq	r0, r6, r1
    2274:	00000000 	andeq	r0, r0, r0
    2278:	a8000000 	stmdage	r0, {}	; <UNPREDICTABLE>
    227c:	98000001 	stmdals	r0, {r0}
    2280:	01000002 	tsteq	r0, r2
    2284:	00005800 	andeq	r5, r0, r0, lsl #16
    2288:	00000000 	andeq	r0, r0, r0
    228c:	01ac0000 			; <UNDEFINED> instruction: 0x01ac0000
    2290:	02d00000 	sbcseq	r0, r0, #0
    2294:	00010000 	andeq	r0, r1, r0
    2298:	00000054 	andeq	r0, r0, r4, asr r0
    229c:	00000000 	andeq	r0, r0, r0
    22a0:	0001ac00 	andeq	sl, r1, r0, lsl #24
    22a4:	0002d000 	andeq	sp, r2, r0
    22a8:	74000500 	strvc	r0, [r0], #-1280	; 0x500
    22ac:	9f253100 	svcls	0x00253100
	...
    22b8:	000001ac 	andeq	r0, r0, ip, lsr #3
    22bc:	000001d0 	ldrdeq	r0, [r0], -r0	; <UNPREDICTABLE>
    22c0:	9f300002 	svcls	0x00300002
    22c4:	000001d0 	ldrdeq	r0, [r0], -r0	; <UNPREDICTABLE>
    22c8:	0000030c 	andeq	r0, r0, ip, lsl #6
    22cc:	14590001 	ldrbne	r0, [r9], #-1
    22d0:	1c000003 	stcne	0, cr0, [r0], {3}
    22d4:	01000003 	tsteq	r0, r3
    22d8:	00005900 	andeq	r5, r0, r0, lsl #18
    22dc:	00000000 	andeq	r0, r0, r0
    22e0:	01680000 	cmneq	r8, r0
    22e4:	016b0000 	cmneq	fp, r0
    22e8:	00010000 	andeq	r0, r1, r0
    22ec:	00016b51 	andeq	r6, r1, r1, asr fp
    22f0:	00031c00 	andeq	r1, r3, r0, lsl #24
    22f4:	56000100 	strpl	r0, [r0], -r0, lsl #2
	...
    2300:	00000170 	andeq	r0, r0, r0, ror r1
    2304:	000001ac 	andeq	r0, r0, ip, lsr #3
    2308:	0c540001 	mrrceq	0, 0, r0, r4, cr1
    230c:	14000003 	strne	r0, [r0], #-3
    2310:	01000003 	tsteq	r0, r3
    2314:	00005400 	andeq	r5, r0, r0, lsl #8
    2318:	00000000 	andeq	r0, r0, r0
    231c:	01a80000 			; <UNDEFINED> instruction: 0x01a80000
    2320:	01c40000 	biceq	r0, r4, r0
    2324:	00010000 	andeq	r0, r1, r0
    2328:	00000058 	andeq	r0, r0, r8, asr r0
    232c:	00000000 	andeq	r0, r0, r0
    2330:	0001b000 	andeq	fp, r1, r0
    2334:	0001cb00 	andeq	ip, r1, r0, lsl #22
    2338:	52000100 	andpl	r0, r0, #0, 2
    233c:	000001cb 	andeq	r0, r0, fp, asr #3
    2340:	000002d0 	ldrdeq	r0, [r0], -r0	; <UNPREDICTABLE>
    2344:	00740008 	rsbseq	r0, r4, r8
    2348:	00742531 	rsbseq	r2, r4, r1, lsr r5
    234c:	00009f22 	andeq	r9, r0, r2, lsr #30
    2350:	00000000 	andeq	r0, r0, r0
    2354:	01b00000 	movseq	r0, r0
    2358:	01c40000 	biceq	r0, r4, r0
    235c:	00010000 	andeq	r0, r1, r0
    2360:	00000058 	andeq	r0, r0, r8, asr r0
    2364:	00000000 	andeq	r0, r0, r0
    2368:	0001b400 	andeq	fp, r1, r0, lsl #8
    236c:	0001b800 	andeq	fp, r1, r0, lsl #16
    2370:	53000100 	movwpl	r0, #256	; 0x100
	...
    237c:	000001d0 	ldrdeq	r0, [r0], -r0	; <UNPREDICTABLE>
    2380:	000002d0 	ldrdeq	r0, [r0], -r0	; <UNPREDICTABLE>
    2384:	00540001 	subseq	r0, r4, r1
    2388:	00000000 	andeq	r0, r0, r0
    238c:	d0000000 	andle	r0, r0, r0
    2390:	e4000001 	str	r0, [r0], #-1
    2394:	01000001 	tsteq	r0, r1
    2398:	00005800 	andeq	r5, r0, r0, lsl #16
    239c:	00000000 	andeq	r0, r0, r0
    23a0:	01d40000 	bicseq	r0, r4, r0
    23a4:	01d80000 	bicseq	r0, r8, r0
    23a8:	00010000 	andeq	r0, r1, r0
    23ac:	00000053 	andeq	r0, r0, r3, asr r0
    23b0:	00000000 	andeq	r0, r0, r0
    23b4:	0001f400 	andeq	pc, r1, r0, lsl #8
    23b8:	0002d000 	andeq	sp, r2, r0
    23bc:	54000100 	strpl	r0, [r0], #-256	; 0x100
	...
    23c8:	000001f4 	strdeq	r0, [r0], -r4
    23cc:	00000208 	andeq	r0, r0, r8, lsl #4
    23d0:	00580001 	subseq	r0, r8, r1
    23d4:	00000000 	andeq	r0, r0, r0
    23d8:	f8000000 			; <UNDEFINED> instruction: 0xf8000000
    23dc:	fc000001 	stc2	0, cr0, [r0], {1}
    23e0:	01000001 	tsteq	r0, r1
    23e4:	00005300 	andeq	r5, r0, r0, lsl #6
    23e8:	00000000 	andeq	r0, r0, r0
    23ec:	02180000 	andseq	r0, r8, #0
    23f0:	02d00000 	sbcseq	r0, r0, #0
    23f4:	00010000 	andeq	r0, r1, r0
    23f8:	00000054 	andeq	r0, r0, r4, asr r0
    23fc:	00000000 	andeq	r0, r0, r0
    2400:	00021800 	andeq	r1, r2, r0, lsl #16
    2404:	00022c00 	andeq	r2, r2, r0, lsl #24
    2408:	58000100 	stmdapl	r0, {r8}
	...
    2414:	0000021c 	andeq	r0, r0, ip, lsl r2
    2418:	00000220 	andeq	r0, r0, r0, lsr #4
    241c:	00530001 	subseq	r0, r3, r1
    2420:	00000000 	andeq	r0, r0, r0
    2424:	3c000000 	stccc	0, cr0, [r0], {-0}
    2428:	d0000002 	andle	r0, r0, r2
    242c:	01000002 	tsteq	r0, r2
    2430:	00005400 	andeq	r5, r0, r0, lsl #8
    2434:	00000000 	andeq	r0, r0, r0
    2438:	023c0000 	eorseq	r0, ip, #0
    243c:	02500000 	subseq	r0, r0, #0
    2440:	00010000 	andeq	r0, r1, r0
    2444:	00000058 	andeq	r0, r0, r8, asr r0
    2448:	00000000 	andeq	r0, r0, r0
    244c:	00024000 	andeq	r4, r2, r0
    2450:	00024400 	andeq	r4, r2, r0, lsl #8
    2454:	53000100 	movwpl	r0, #256	; 0x100
	...
    2460:	00000260 	andeq	r0, r0, r0, ror #4
    2464:	000002d0 	ldrdeq	r0, [r0], -r0	; <UNPREDICTABLE>
    2468:	00540001 	subseq	r0, r4, r1
    246c:	00000000 	andeq	r0, r0, r0
    2470:	60000000 	andvs	r0, r0, r0
    2474:	74000002 	strvc	r0, [r0], #-2
    2478:	01000002 	tsteq	r0, r2
    247c:	00005800 	andeq	r5, r0, r0, lsl #16
    2480:	00000000 	andeq	r0, r0, r0
    2484:	02640000 	rsbeq	r0, r4, #0
    2488:	02680000 	rsbeq	r0, r8, #0
    248c:	00010000 	andeq	r0, r1, r0
    2490:	00000053 	andeq	r0, r0, r3, asr r0
    2494:	00000000 	andeq	r0, r0, r0
    2498:	00028400 	andeq	r8, r2, r0, lsl #8
    249c:	0002d000 	andeq	sp, r2, r0
    24a0:	54000100 	strpl	r0, [r0], #-256	; 0x100
	...
    24ac:	00000284 	andeq	r0, r0, r4, lsl #5
    24b0:	00000298 	muleq	r0, r8, r2
    24b4:	00580001 	subseq	r0, r8, r1
    24b8:	00000000 	andeq	r0, r0, r0
    24bc:	88000000 	stmdahi	r0, {}	; <UNPREDICTABLE>
    24c0:	8c000002 	stchi	0, cr0, [r0], {2}
    24c4:	01000002 	tsteq	r0, r2
    24c8:	00005300 	andeq	r5, r0, r0, lsl #6
    24cc:	00000000 	andeq	r0, r0, r0
    24d0:	02a80000 	adceq	r0, r8, #0
    24d4:	02d00000 	sbcseq	r0, r0, #0
    24d8:	00010000 	andeq	r0, r1, r0
    24dc:	00000054 	andeq	r0, r0, r4, asr r0
    24e0:	00000000 	andeq	r0, r0, r0
    24e4:	0002ac00 	andeq	sl, r2, r0, lsl #24
    24e8:	0002b000 	andeq	fp, r2, r0
    24ec:	53000100 	movwpl	r0, #256	; 0x100
	...
    24f8:	000002c8 	andeq	r0, r0, r8, asr #5
    24fc:	0000030c 	andeq	r0, r0, ip, lsl #6
    2500:	9f300002 	svcls	0x00300002
    2504:	00000314 	andeq	r0, r0, r4, lsl r3
    2508:	0000031c 	andeq	r0, r0, ip, lsl r3
    250c:	9f300002 	svcls	0x00300002
	...
    2518:	000002c8 	andeq	r0, r0, r8, asr #5
    251c:	0000030c 	andeq	r0, r0, ip, lsl #6
    2520:	14550001 	ldrbne	r0, [r5], #-1
    2524:	1c000003 	stcne	0, cr0, [r0], {3}
    2528:	01000003 	tsteq	r0, r3
    252c:	00005500 	andeq	r5, r0, r0, lsl #10
    2530:	00000000 	andeq	r0, r0, r0
    2534:	02d00000 	sbcseq	r0, r0, #0
    2538:	030c0000 	movweq	r0, #49152	; 0xc000
    253c:	00010000 	andeq	r0, r1, r0
    2540:	00031454 	andeq	r1, r3, r4, asr r4
    2544:	00031c00 	andeq	r1, r3, r0, lsl #24
    2548:	54000100 	strpl	r0, [r0], #-256	; 0x100
	...
    2554:	0000031c 	andeq	r0, r0, ip, lsl r3
    2558:	0000033f 	andeq	r0, r0, pc, lsr r3
    255c:	3f500001 	svccc	0x00500001
    2560:	60000003 	andvs	r0, r0, r3
    2564:	01000003 	tsteq	r0, r3
    2568:	03605800 	cmneq	r0, #0, 16
    256c:	03700000 	cmneq	r0, #0
    2570:	00010000 	andeq	r0, r1, r0
    2574:	00037050 	andeq	r7, r3, r0, asr r0
    2578:	0003b000 	andeq	fp, r3, r0
    257c:	58000100 	stmdapl	r0, {r8}
    2580:	000003b0 			; <UNDEFINED> instruction: 0x000003b0
    2584:	000003c0 	andeq	r0, r0, r0, asr #7
    2588:	01f30004 	mvnseq	r0, r4
    258c:	00009f50 	andeq	r9, r0, r0, asr pc
    2590:	00000000 	andeq	r0, r0, r0
    2594:	031c0000 	tsteq	ip, #0
    2598:	033f0000 	teqeq	pc, #0
    259c:	00010000 	andeq	r0, r1, r0
    25a0:	00033f51 	andeq	r3, r3, r1, asr pc
    25a4:	00036000 	andeq	r6, r3, r0
    25a8:	56000100 	strpl	r0, [r0], -r0, lsl #2
    25ac:	00000360 	andeq	r0, r0, r0, ror #6
    25b0:	00000370 	andeq	r0, r0, r0, ror r3
    25b4:	70510001 	subsvc	r0, r1, r1
    25b8:	b0000003 	andlt	r0, r0, r3
    25bc:	01000003 	tsteq	r0, r3
    25c0:	03b05600 	movseq	r5, #0, 12
    25c4:	03c00000 	biceq	r0, r0, #0
    25c8:	00040000 	andeq	r0, r4, r0
    25cc:	9f5101f3 	svcls	0x005101f3
	...
    25d8:	0000031c 	andeq	r0, r0, ip, lsl r3
    25dc:	0000033f 	andeq	r0, r0, pc, lsr r3
    25e0:	3f520001 	svccc	0x00520001
    25e4:	60000003 	andvs	r0, r0, r3
    25e8:	04000003 	streq	r0, [r0], #-3
    25ec:	5201f300 	andpl	pc, r1, #0, 6
    25f0:	0003609f 	muleq	r3, pc, r0	; <UNPREDICTABLE>
    25f4:	00037000 	andeq	r7, r3, r0
    25f8:	52000100 	andpl	r0, r0, #0, 2
    25fc:	00000370 	andeq	r0, r0, r0, ror r3
    2600:	000003b0 			; <UNDEFINED> instruction: 0x000003b0
    2604:	01770003 	cmneq	r7, r3
    2608:	0003b09f 	muleq	r3, pc, r0	; <UNPREDICTABLE>
    260c:	0003c000 	andeq	ip, r3, r0
    2610:	f3000400 	vshl.u8	d0, d0, d0
    2614:	009f5201 	addseq	r5, pc, r1, lsl #4
    2618:	00000000 	andeq	r0, r0, r0
    261c:	1c000000 	stcne	0, cr0, [r0], {-0}
    2620:	3f000003 	svccc	0x00000003
    2624:	01000003 	tsteq	r0, r3
    2628:	033f5300 	teqeq	pc, #0, 6
    262c:	03600000 	cmneq	r0, #0
    2630:	00040000 	andeq	r0, r4, r0
    2634:	9f5301f3 	svcls	0x005301f3
    2638:	00000360 	andeq	r0, r0, r0, ror #6
    263c:	00000370 	andeq	r0, r0, r0, ror r3
    2640:	70530001 	subsvc	r0, r3, r1
    2644:	c0000003 	andgt	r0, r0, r3
    2648:	04000003 	streq	r0, [r0], #-3
    264c:	5301f300 	movwpl	pc, #4864	; 0x1300	; <UNPREDICTABLE>
    2650:	0000009f 	muleq	r0, pc, r0	; <UNPREDICTABLE>
    2654:	00000000 	andeq	r0, r0, r0
    2658:	00036800 	andeq	r6, r3, r0, lsl #16
    265c:	00037000 	andeq	r7, r3, r0
    2660:	30000200 	andcc	r0, r0, r0, lsl #4
    2664:	0003709f 	muleq	r3, pc, r0	; <UNPREDICTABLE>
    2668:	0003b000 	andeq	fp, r3, r0
    266c:	54000100 	strpl	r0, [r0], #-256	; 0x100
    2670:	000003b0 			; <UNDEFINED> instruction: 0x000003b0
    2674:	000003c0 	andeq	r0, r0, r0, asr #7
    2678:	00500001 	subseq	r0, r0, r1
    267c:	00000000 	andeq	r0, r0, r0
    2680:	80000000 	andhi	r0, r0, r0
    2684:	90000003 	andls	r0, r0, r3
    2688:	01000003 	tsteq	r0, r3
    268c:	00005000 	andeq	r5, r0, r0
    2690:	00000000 	andeq	r0, r0, r0
    2694:	03c00000 	biceq	r0, r0, #0
    2698:	03df0000 	bicseq	r0, pc, #0
    269c:	00010000 	andeq	r0, r1, r0
    26a0:	0003df50 	andeq	sp, r3, r0, asr pc
    26a4:	00040000 	andeq	r0, r4, r0
    26a8:	57000100 	strpl	r0, [r0, -r0, lsl #2]
    26ac:	00000400 	andeq	r0, r0, r0, lsl #8
    26b0:	00000410 	andeq	r0, r0, r0, lsl r4
    26b4:	10500001 	subsne	r0, r0, r1
    26b8:	40000004 	andmi	r0, r0, r4
    26bc:	01000004 	tsteq	r0, r4
    26c0:	04405700 	strbeq	r5, [r0], #-1792	; 0x700
    26c4:	04500000 	ldrbeq	r0, [r0], #-0
    26c8:	00040000 	andeq	r0, r4, r0
    26cc:	9f5001f3 	svcls	0x005001f3
	...
    26d8:	000003c0 	andeq	r0, r0, r0, asr #7
    26dc:	000003df 	ldrdeq	r0, [r0], -pc	; <UNPREDICTABLE>
    26e0:	df510001 	svcle	0x00510001
    26e4:	00000003 	andeq	r0, r0, r3
    26e8:	01000004 	tsteq	r0, r4
    26ec:	04005500 	streq	r5, [r0], #-1280	; 0x500
    26f0:	04100000 	ldreq	r0, [r0], #-0
    26f4:	00010000 	andeq	r0, r1, r0
    26f8:	00041051 	andeq	r1, r4, r1, asr r0
    26fc:	00044000 	andeq	r4, r4, r0
    2700:	55000100 	strpl	r0, [r0, #-256]	; 0x100
    2704:	00000440 	andeq	r0, r0, r0, asr #8
    2708:	00000450 	andeq	r0, r0, r0, asr r4
    270c:	01f30004 	mvnseq	r0, r4
    2710:	00009f51 	andeq	r9, r0, r1, asr pc
    2714:	00000000 	andeq	r0, r0, r0
    2718:	03c00000 	biceq	r0, r0, #0
    271c:	03df0000 	bicseq	r0, pc, #0
    2720:	00010000 	andeq	r0, r1, r0
    2724:	0003df52 	andeq	sp, r3, r2, asr pc
    2728:	00040000 	andeq	r0, r4, r0
    272c:	f3000400 	vshl.u8	d0, d0, d0
    2730:	009f5201 	addseq	r5, pc, r1, lsl #4
    2734:	10000004 	andne	r0, r0, r4
    2738:	01000004 	tsteq	r0, r4
    273c:	04105200 	ldreq	r5, [r0], #-512	; 0x200
    2740:	04400000 	strbeq	r0, [r0], #-0
    2744:	00030000 	andeq	r0, r3, r0
    2748:	409f0176 	addsmi	r0, pc, r6, ror r1	; <UNPREDICTABLE>
    274c:	50000004 	andpl	r0, r0, r4
    2750:	04000004 	streq	r0, [r0], #-4
    2754:	5201f300 	andpl	pc, r1, #0, 6
    2758:	0000009f 	muleq	r0, pc, r0	; <UNPREDICTABLE>
    275c:	00000000 	andeq	r0, r0, r0
    2760:	0003c000 	andeq	ip, r3, r0
    2764:	0003df00 	andeq	sp, r3, r0, lsl #30
    2768:	53000100 	movwpl	r0, #256	; 0x100
    276c:	000003df 	ldrdeq	r0, [r0], -pc	; <UNPREDICTABLE>
    2770:	00000400 	andeq	r0, r0, r0, lsl #8
    2774:	00580001 	subseq	r0, r8, r1
    2778:	10000004 	andne	r0, r0, r4
    277c:	01000004 	tsteq	r0, r4
    2780:	04105300 	ldreq	r5, [r0], #-768	; 0x300
    2784:	04400000 	strbeq	r0, [r0], #-0
    2788:	00010000 	andeq	r0, r1, r0
    278c:	00044058 	andeq	r4, r4, r8, asr r0
    2790:	00045000 	andeq	r5, r4, r0
    2794:	f3000400 	vshl.u8	d0, d0, d0
    2798:	009f5301 	addseq	r5, pc, r1, lsl #6
    279c:	00000000 	andeq	r0, r0, r0
    27a0:	08000000 	stmdaeq	r0, {}	; <UNPREDICTABLE>
    27a4:	10000004 	andne	r0, r0, r4
    27a8:	02000004 	andeq	r0, r0, #4
    27ac:	109f3000 	addsne	r3, pc, r0
    27b0:	40000004 	andmi	r0, r0, r4
    27b4:	01000004 	tsteq	r0, r4
    27b8:	04405400 	strbeq	r5, [r0], #-1024	; 0x400
    27bc:	04500000 	ldrbeq	r0, [r0], #-0
    27c0:	00010000 	andeq	r0, r1, r0
    27c4:	00000050 	andeq	r0, r0, r0, asr r0
    27c8:	00000000 	andeq	r0, r0, r0
    27cc:	00045000 	andeq	r5, r4, r0
    27d0:	00047300 	andeq	r7, r4, r0, lsl #6
    27d4:	51000100 	mrspl	r0, (UNDEF: 16)
    27d8:	00000473 	andeq	r0, r0, r3, ror r4
    27dc:	00000524 	andeq	r0, r0, r4, lsr #10
    27e0:	01f30004 	mvnseq	r0, r4
    27e4:	00009f51 	andeq	r9, r0, r1, asr pc
    27e8:	00000000 	andeq	r0, r0, r0
    27ec:	04500000 	ldrbeq	r0, [r0], #-0
    27f0:	04730000 	ldrbteq	r0, [r3], #-0
    27f4:	00010000 	andeq	r0, r1, r0
    27f8:	00047352 	andeq	r7, r4, r2, asr r3
    27fc:	00052400 	andeq	r2, r5, r0, lsl #8
    2800:	f3000400 	vshl.u8	d0, d0, d0
    2804:	009f5201 	addseq	r5, pc, r1, lsl #4
    2808:	00000000 	andeq	r0, r0, r0
    280c:	50000000 	andpl	r0, r0, r0
    2810:	73000004 	movwvc	r0, #4
    2814:	01000004 	tsteq	r0, r4
    2818:	04735300 	ldrbteq	r5, [r3], #-768	; 0x300
    281c:	05100000 	ldreq	r0, [r0, #-0]
    2820:	00010000 	andeq	r0, r1, r0
    2824:	00051055 	andeq	r1, r5, r5, asr r0
    2828:	00052400 	andeq	r2, r5, r0, lsl #8
    282c:	70000200 	andvc	r0, r0, r0, lsl #4
    2830:	00000004 	andeq	r0, r0, r4
    2834:	00000000 	andeq	r0, r0, r0
    2838:	00049400 	andeq	r9, r4, r0, lsl #8
    283c:	0004d300 	andeq	sp, r4, r0, lsl #6
    2840:	52000100 	andpl	r0, r0, #0, 2
    2844:	000004d3 	ldrdeq	r0, [r0], -r3
    2848:	000004f4 	strdeq	r0, [r0], -r4
    284c:	00750006 	rsbseq	r0, r5, r6
    2850:	9f1e0077 	svcls	0x001e0077
    2854:	000004f4 	strdeq	r0, [r0], -r4
    2858:	00000524 	andeq	r0, r0, r4, lsr #10
    285c:	00520001 	subseq	r0, r2, r1
    2860:	00000000 	andeq	r0, r0, r0
    2864:	24000000 	strcs	r0, [r0], #-0
    2868:	2f000005 	svccs	0x00000005
    286c:	01000005 	tsteq	r0, r5
    2870:	052f5000 	streq	r5, [pc, #-0]!	; 2878 <_start-0x5788>
    2874:	05600000 	strbeq	r0, [r0, #-0]!
    2878:	00040000 	andeq	r0, r4, r0
    287c:	9f5001f3 	svcls	0x005001f3
	...
    2888:	00000530 	andeq	r0, r0, r0, lsr r5
    288c:	0000053b 	andeq	r0, r0, fp, lsr r5
    2890:	00500001 	subseq	r0, r0, r1
    2894:	00000000 	andeq	r0, r0, r0
    2898:	60000000 	andvs	r0, r0, r0
    289c:	70000005 	andvc	r0, r0, r5
    28a0:	01000005 	tsteq	r0, r5
    28a4:	05705000 	ldrbeq	r5, [r0, #-0]!
    28a8:	058c0000 	streq	r0, [ip]
    28ac:	00010000 	andeq	r0, r1, r0
    28b0:	00000055 	andeq	r0, r0, r5, asr r0
    28b4:	00000000 	andeq	r0, r0, r0
    28b8:	00056000 	andeq	r6, r5, r0
    28bc:	00057000 	andeq	r7, r5, r0
    28c0:	51000100 	mrspl	r0, (UNDEF: 16)
    28c4:	00000570 	andeq	r0, r0, r0, ror r5
    28c8:	0000058c 	andeq	r0, r0, ip, lsl #11
    28cc:	00540001 	subseq	r0, r4, r1
    28d0:	00000000 	andeq	r0, r0, r0
    28d4:	8c000000 	stchi	0, cr0, [r0], {-0}
    28d8:	a8000005 	stmdage	r0, {r0, r2}
    28dc:	01000005 	tsteq	r0, r5
    28e0:	05a85000 	streq	r5, [r8, #0]!
    28e4:	06000000 	streq	r0, [r0], -r0
    28e8:	00010000 	andeq	r0, r1, r0
    28ec:	00060055 	andeq	r0, r6, r5, asr r0
    28f0:	00061c00 	andeq	r1, r6, r0, lsl #24
    28f4:	f3000400 	vshl.u8	d0, d0, d0
    28f8:	009f5001 	addseq	r5, pc, r1
    28fc:	00000000 	andeq	r0, r0, r0
    2900:	b8000000 	stmdalt	r0, {}	; <UNPREDICTABLE>
    2904:	c7000005 	strgt	r0, [r0, -r5]
    2908:	01000005 	tsteq	r0, r5
    290c:	05c75000 	strbeq	r5, [r7]
    2910:	05e80000 	strbeq	r0, [r8, #0]!
    2914:	00010000 	andeq	r0, r1, r0
    2918:	0005e854 	andeq	lr, r5, r4, asr r8
    291c:	0005ec00 	andeq	lr, r5, r0, lsl #24
    2920:	50000100 	andpl	r0, r0, r0, lsl #2
    2924:	000005ec 	andeq	r0, r0, ip, ror #11
    2928:	00000600 	andeq	r0, r0, r0, lsl #12
    292c:	00540001 	subseq	r0, r4, r1
    2930:	1c000006 	stcne	0, cr0, [r0], {6}
    2934:	01000006 	tsteq	r0, r6
    2938:	00005000 	andeq	r5, r0, r0
    293c:	00000000 	andeq	r0, r0, r0
    2940:	061c0000 	ldreq	r0, [ip], -r0
    2944:	062f0000 	strteq	r0, [pc], -r0
    2948:	00010000 	andeq	r0, r1, r0
    294c:	00062f50 	andeq	r2, r6, r0, asr pc
    2950:	00066800 	andeq	r6, r6, r0, lsl #16
    2954:	f3000400 	vshl.u8	d0, d0, d0
    2958:	009f5001 	addseq	r5, pc, r1
    295c:	00000000 	andeq	r0, r0, r0
    2960:	1c000000 	stcne	0, cr0, [r0], {-0}
    2964:	2f000006 	svccs	0x00000006
    2968:	01000006 	tsteq	r0, r6
    296c:	062f5100 	strteq	r5, [pc], -r0, lsl #2
    2970:	06680000 	strbteq	r0, [r8], -r0
    2974:	00040000 	andeq	r0, r4, r0
    2978:	9f5101f3 	svcls	0x005101f3
	...
    2984:	0000061c 	andeq	r0, r0, ip, lsl r6
    2988:	0000062f 	andeq	r0, r0, pc, lsr #12
    298c:	2f520001 	svccs	0x00520001
    2990:	68000006 	stmdavs	r0, {r1, r2}
    2994:	04000006 	streq	r0, [r0], #-6
    2998:	5201f300 	andpl	pc, r1, #0, 6
    299c:	0000009f 	muleq	r0, pc, r0	; <UNPREDICTABLE>
    29a0:	00000000 	andeq	r0, r0, r0
    29a4:	00061c00 	andeq	r1, r6, r0, lsl #24
    29a8:	00062f00 	andeq	r2, r6, r0, lsl #30
    29ac:	53000100 	movwpl	r0, #256	; 0x100
    29b0:	0000062f 	andeq	r0, r0, pc, lsr #12
    29b4:	00000668 	andeq	r0, r0, r8, ror #12
    29b8:	01f30004 	mvnseq	r0, r4
    29bc:	00009f53 	andeq	r9, r0, r3, asr pc
    29c0:	00000000 	andeq	r0, r0, r0
    29c4:	06300000 	ldrteq	r0, [r0], -r0
    29c8:	063b0000 	ldrteq	r0, [fp], -r0
    29cc:	00010000 	andeq	r0, r1, r0
    29d0:	00065450 	andeq	r5, r6, r0, asr r4
    29d4:	00066800 	andeq	r6, r6, r0, lsl #16
    29d8:	50000100 	andpl	r0, r0, r0, lsl #2
	...
    29e4:	000000fc 	strdeq	r0, [r0], -ip
    29e8:	00000104 	andeq	r0, r0, r4, lsl #2
    29ec:	04500001 	ldrbeq	r0, [r0], #-1
    29f0:	28000001 	stmdacs	r0, {r0}
    29f4:	01000001 	tsteq	r0, r1
    29f8:	00005400 	andeq	r5, r0, r0, lsl #8
	...
    2a04:	00040000 	andeq	r0, r4, r0
    2a08:	00010000 	andeq	r0, r1, r0
    2a0c:	00000452 	andeq	r0, r0, r2, asr r4
    2a10:	00002000 	andeq	r2, r0, r0
    2a14:	f3000400 	vshl.u8	d0, d0, d0
    2a18:	009f5201 	addseq	r5, pc, r1, lsl #4
	...
    2a24:	0c000000 	stceq	0, cr0, [r0], {-0}
    2a28:	01000000 	mrseq	r0, (UNDEF: 0)
    2a2c:	000c5000 	andeq	r5, ip, r0
    2a30:	00140000 	andseq	r0, r4, r0
    2a34:	00030000 	andeq	r0, r3, r0
    2a38:	149f0173 	ldrne	r0, [pc], #371	; 2a40 <_start-0x55c0>
    2a3c:	20000000 	andcs	r0, r0, r0
    2a40:	01000000 	mrseq	r0, (UNDEF: 0)
    2a44:	00005300 	andeq	r5, r0, r0, lsl #6
    2a48:	00000000 	andeq	r0, r0, r0
	...

Disassembly of section .debug_aranges:

00000000 <.debug_aranges>:
   0:	0000001c 	andeq	r0, r0, ip, lsl r0
   4:	00000002 	andeq	r0, r0, r2
   8:	00040000 	andeq	r0, r4, r0
   c:	00000000 	andeq	r0, r0, r0
  10:	00008010 	andeq	r8, r0, r0, lsl r0
  14:	000006b8 			; <UNDEFINED> instruction: 0x000006b8
	...
  20:	0000001c 	andeq	r0, r0, ip, lsl r0
  24:	101f0002 	andsne	r0, pc, r2
  28:	00040000 	andeq	r0, r4, r0
  2c:	00000000 	andeq	r0, r0, r0
  30:	000086c8 	andeq	r8, r0, r8, asr #13
  34:	00000058 	andeq	r0, r0, r8, asr r0
	...
  40:	0000001c 	andeq	r0, r0, ip, lsl r0
  44:	11b40002 			; <UNDEFINED> instruction: 0x11b40002
  48:	00040000 	andeq	r0, r4, r0
  4c:	00000000 	andeq	r0, r0, r0
  50:	00008720 	andeq	r8, r0, r0, lsr #14
  54:	0000003c 	andeq	r0, r0, ip, lsr r0
	...
  60:	0000001c 	andeq	r0, r0, ip, lsl r0
  64:	12cb0002 	sbcne	r0, fp, #2
  68:	00040000 	andeq	r0, r4, r0
  6c:	00000000 	andeq	r0, r0, r0
  70:	0000875c 	andeq	r8, r0, ip, asr r7
  74:	00000034 	andeq	r0, r0, r4, lsr r0
	...
  80:	0000001c 	andeq	r0, r0, ip, lsl r0
  84:	13bd0002 			; <UNDEFINED> instruction: 0x13bd0002
  88:	00040000 	andeq	r0, r4, r0
  8c:	00000000 	andeq	r0, r0, r0
  90:	00008790 	muleq	r0, r0, r7
  94:	00000524 	andeq	r0, r0, r4, lsr #10
	...
  a0:	0000001c 	andeq	r0, r0, ip, lsl r0
  a4:	1a620002 	bne	18800b4 <__bss_end__+0x1875c3c>
  a8:	00040000 	andeq	r0, r4, r0
  ac:	00000000 	andeq	r0, r0, r0
  b0:	00008cb4 			; <UNDEFINED> instruction: 0x00008cb4
  b4:	00000020 	andeq	r0, r0, r0, lsr #32
	...
  c0:	0000001c 	andeq	r0, r0, ip, lsl r0
  c4:	1b1e0002 	blne	7800d4 <__bss_end__+0x775c5c>
  c8:	00040000 	andeq	r0, r4, r0
  cc:	00000000 	andeq	r0, r0, r0
  d0:	00008cd4 	ldrdeq	r8, [r0], -r4
  d4:	00000028 	andeq	r0, r0, r8, lsr #32
	...
  e0:	0000001c 	andeq	r0, r0, ip, lsl r0
  e4:	1c210002 	stcne	0, cr0, [r1], #-8
  e8:	00040000 	andeq	r0, r4, r0
  ec:	00000000 	andeq	r0, r0, r0
  f0:	00008cfc 	strdeq	r8, [r0], -ip
  f4:	000000b0 	strheq	r0, [r0], -r0	; <UNPREDICTABLE>
	...
 100:	0000001c 	andeq	r0, r0, ip, lsl r0
 104:	1f020002 	svcne	0x00020002
 108:	00040000 	andeq	r0, r4, r0
 10c:	00000000 	andeq	r0, r0, r0
 110:	00008dac 	andeq	r8, r0, ip, lsr #27
 114:	00000074 	andeq	r0, r0, r4, ror r0
	...
 120:	0000001c 	andeq	r0, r0, ip, lsl r0
 124:	20b30002 	adcscs	r0, r3, r2
 128:	00040000 	andeq	r0, r4, r0
 12c:	00000000 	andeq	r0, r0, r0
 130:	00008e20 	andeq	r8, r0, r0, lsr #28
 134:	00000088 	andeq	r0, r0, r8, lsl #1
	...
 140:	0000001c 	andeq	r0, r0, ip, lsl r0
 144:	228f0002 	addcs	r0, pc, #2
 148:	00040000 	andeq	r0, r4, r0
 14c:	00000000 	andeq	r0, r0, r0
 150:	00008ea8 	andeq	r8, r0, r8, lsr #29
 154:	000005a0 	andeq	r0, r0, r0, lsr #11
	...
 160:	0000001c 	andeq	r0, r0, ip, lsl r0
 164:	2b150002 	blcs	540174 <__bss_end__+0x535cfc>
 168:	00040000 	andeq	r0, r4, r0
 16c:	00000000 	andeq	r0, r0, r0
 170:	00009448 	andeq	r9, r0, r8, asr #8
 174:	00000668 	andeq	r0, r0, r8, ror #12
	...
 180:	0000001c 	andeq	r0, r0, ip, lsl r0
 184:	3d0b0002 	stccc	0, cr0, [fp, #-8]
 188:	00040000 	andeq	r0, r4, r0
 18c:	00000000 	andeq	r0, r0, r0
 190:	00009ab0 			; <UNDEFINED> instruction: 0x00009ab0
 194:	00000154 	andeq	r0, r0, r4, asr r1
	...
 1a0:	0000001c 	andeq	r0, r0, ip, lsl r0
 1a4:	410e0002 	tstmi	lr, r2
 1a8:	00040000 	andeq	r0, r4, r0
 1ac:	00000000 	andeq	r0, r0, r0
 1b0:	00009c68 	andeq	r9, r0, r8, ror #24
 1b4:	00000050 	andeq	r0, r0, r0, asr r0
	...
 1c0:	0000001c 	andeq	r0, r0, ip, lsl r0
 1c4:	42d50002 	sbcsmi	r0, r5, #2
 1c8:	00040000 	andeq	r0, r4, r0
 1cc:	00000000 	andeq	r0, r0, r0
 1d0:	00009cb8 			; <UNDEFINED> instruction: 0x00009cb8
 1d4:	00000020 	andeq	r0, r0, r0, lsr #32
	...

Disassembly of section .debug_ranges:

00000000 <.debug_ranges>:
   0:	000003b8 			; <UNDEFINED> instruction: 0x000003b8
   4:	000003bc 			; <UNDEFINED> instruction: 0x000003bc
   8:	000003c0 	andeq	r0, r0, r0, asr #7
   c:	000003c4 	andeq	r0, r0, r4, asr #7
  10:	000003c8 	andeq	r0, r0, r8, asr #7
  14:	000003cc 	andeq	r0, r0, ip, asr #7
  18:	000003d0 	ldrdeq	r0, [r0], -r0	; <UNPREDICTABLE>
  1c:	000003d4 	ldrdeq	r0, [r0], -r4
	...
  28:	000003c4 	andeq	r0, r0, r4, asr #7
  2c:	000003c8 	andeq	r0, r0, r8, asr #7
  30:	000003cc 	andeq	r0, r0, ip, asr #7
  34:	000003d0 	ldrdeq	r0, [r0], -r0	; <UNPREDICTABLE>
  38:	000003d4 	ldrdeq	r0, [r0], -r4
  3c:	000003dc 	ldrdeq	r0, [r0], -ip
	...
  48:	000003ec 	andeq	r0, r0, ip, ror #7
  4c:	000003f0 	strdeq	r0, [r0], -r0	; <UNPREDICTABLE>
  50:	000003f4 	strdeq	r0, [r0], -r4
  54:	000003f8 	strdeq	r0, [r0], -r8
  58:	000003fc 	strdeq	r0, [r0], -ip
  5c:	00000400 	andeq	r0, r0, r0, lsl #8
  60:	00000404 	andeq	r0, r0, r4, lsl #8
  64:	00000408 	andeq	r0, r0, r8, lsl #8
	...
  70:	000003f8 	strdeq	r0, [r0], -r8
  74:	000003fc 	strdeq	r0, [r0], -ip
  78:	00000400 	andeq	r0, r0, r0, lsl #8
  7c:	00000404 	andeq	r0, r0, r4, lsl #8
  80:	00000408 	andeq	r0, r0, r8, lsl #8
  84:	00000410 	andeq	r0, r0, r0, lsl r4
	...
  90:	00000420 	andeq	r0, r0, r0, lsr #8
  94:	00000424 	andeq	r0, r0, r4, lsr #8
  98:	00000428 	andeq	r0, r0, r8, lsr #8
  9c:	0000042c 	andeq	r0, r0, ip, lsr #8
  a0:	00000430 	andeq	r0, r0, r0, lsr r4
  a4:	00000434 	andeq	r0, r0, r4, lsr r4
  a8:	00000438 	andeq	r0, r0, r8, lsr r4
  ac:	0000043c 	andeq	r0, r0, ip, lsr r4
	...
  b8:	0000042c 	andeq	r0, r0, ip, lsr #8
  bc:	00000430 	andeq	r0, r0, r0, lsr r4
  c0:	00000434 	andeq	r0, r0, r4, lsr r4
  c4:	00000438 	andeq	r0, r0, r8, lsr r4
  c8:	0000043c 	andeq	r0, r0, ip, lsr r4
  cc:	00000444 	andeq	r0, r0, r4, asr #8
	...
  d8:	00000454 	andeq	r0, r0, r4, asr r4
  dc:	00000458 	andeq	r0, r0, r8, asr r4
  e0:	0000045c 	andeq	r0, r0, ip, asr r4
  e4:	00000460 	andeq	r0, r0, r0, ror #8
  e8:	00000464 	andeq	r0, r0, r4, ror #8
  ec:	00000468 	andeq	r0, r0, r8, ror #8
  f0:	0000046c 	andeq	r0, r0, ip, ror #8
  f4:	00000470 	andeq	r0, r0, r0, ror r4
	...
 100:	00000460 	andeq	r0, r0, r0, ror #8
 104:	00000464 	andeq	r0, r0, r4, ror #8
 108:	00000468 	andeq	r0, r0, r8, ror #8
 10c:	0000046c 	andeq	r0, r0, ip, ror #8
 110:	00000470 	andeq	r0, r0, r0, ror r4
 114:	00000478 	andeq	r0, r0, r8, ror r4
	...
 120:	00000488 	andeq	r0, r0, r8, lsl #9
 124:	0000048c 	andeq	r0, r0, ip, lsl #9
 128:	00000490 	muleq	r0, r0, r4
 12c:	00000494 	muleq	r0, r4, r4
 130:	00000498 	muleq	r0, r8, r4
 134:	0000049c 	muleq	r0, ip, r4
 138:	000004a4 	andeq	r0, r0, r4, lsr #9
 13c:	000004a8 	andeq	r0, r0, r8, lsr #9
	...
 148:	00000494 	muleq	r0, r4, r4
 14c:	00000498 	muleq	r0, r8, r4
 150:	0000049c 	muleq	r0, ip, r4
 154:	000004a4 	andeq	r0, r0, r4, lsr #9
 158:	000004a8 	andeq	r0, r0, r8, lsr #9
 15c:	000004b0 			; <UNDEFINED> instruction: 0x000004b0
	...
 168:	000004c0 	andeq	r0, r0, r0, asr #9
 16c:	000004c4 	andeq	r0, r0, r4, asr #9
 170:	000004c8 	andeq	r0, r0, r8, asr #9
 174:	000004cc 	andeq	r0, r0, ip, asr #9
 178:	000004d0 	ldrdeq	r0, [r0], -r0	; <UNPREDICTABLE>
 17c:	000004d4 	ldrdeq	r0, [r0], -r4
 180:	000004d8 	ldrdeq	r0, [r0], -r8
 184:	000004dc 	ldrdeq	r0, [r0], -ip
	...
 190:	000004cc 	andeq	r0, r0, ip, asr #9
 194:	000004d0 	ldrdeq	r0, [r0], -r0	; <UNPREDICTABLE>
 198:	000004d4 	ldrdeq	r0, [r0], -r4
 19c:	000004d8 	ldrdeq	r0, [r0], -r8
 1a0:	000004dc 	ldrdeq	r0, [r0], -ip
 1a4:	000004e8 	andeq	r0, r0, r8, ror #9
	...
 1b0:	000004f8 	strdeq	r0, [r0], -r8
 1b4:	000004fc 	strdeq	r0, [r0], -ip
 1b8:	00000500 	andeq	r0, r0, r0, lsl #10
 1bc:	00000504 	andeq	r0, r0, r4, lsl #10
 1c0:	00000508 	andeq	r0, r0, r8, lsl #10
 1c4:	0000050c 	andeq	r0, r0, ip, lsl #10
 1c8:	00000510 	andeq	r0, r0, r0, lsl r5
 1cc:	00000514 	andeq	r0, r0, r4, lsl r5
	...
 1d8:	00000504 	andeq	r0, r0, r4, lsl #10
 1dc:	00000508 	andeq	r0, r0, r8, lsl #10
 1e0:	0000050c 	andeq	r0, r0, ip, lsl #10
 1e4:	00000510 	andeq	r0, r0, r0, lsl r5
 1e8:	00000514 	andeq	r0, r0, r4, lsl r5
 1ec:	00000518 	andeq	r0, r0, r8, lsl r5
	...
 1f8:	0000052c 	andeq	r0, r0, ip, lsr #10
 1fc:	00000538 	andeq	r0, r0, r8, lsr r5
 200:	0000053c 	andeq	r0, r0, ip, lsr r5
 204:	00000540 	andeq	r0, r0, r0, asr #10
 208:	00000544 	andeq	r0, r0, r4, asr #10
 20c:	00000548 	andeq	r0, r0, r8, asr #10
	...
 218:	00000538 	andeq	r0, r0, r8, lsr r5
 21c:	0000053c 	andeq	r0, r0, ip, lsr r5
 220:	00000540 	andeq	r0, r0, r0, asr #10
 224:	00000544 	andeq	r0, r0, r4, asr #10
 228:	00000548 	andeq	r0, r0, r8, asr #10
 22c:	0000054c 	andeq	r0, r0, ip, asr #10
	...
 238:	00000640 	andeq	r0, r0, r0, asr #12
 23c:	00000644 	andeq	r0, r0, r4, asr #12
 240:	00000658 	andeq	r0, r0, r8, asr r6
 244:	0000065c 	andeq	r0, r0, ip, asr r6
 248:	00000660 	andeq	r0, r0, r0, ror #12
 24c:	00000664 	andeq	r0, r0, r4, ror #12
 250:	00000668 	andeq	r0, r0, r8, ror #12
 254:	0000066c 	andeq	r0, r0, ip, ror #12
	...
 260:	000002b4 			; <UNDEFINED> instruction: 0x000002b4
 264:	000002b8 			; <UNDEFINED> instruction: 0x000002b8
 268:	000002e8 	andeq	r0, r0, r8, ror #5
 26c:	000004e0 	andeq	r0, r0, r0, ror #9
	...
 278:	00008dac 	andeq	r8, r0, ip, lsr #27
 27c:	00008e20 	andeq	r8, r0, r0, lsr #28
	...

Disassembly of section .debug_line:

00000000 <.debug_line>:
       0:	000002f1 	strdeq	r0, [r0], -r1
       4:	01250002 	teqeq	r5, r2
       8:	01020000 	mrseq	r0, (UNDEF: 2)
       c:	000d0efb 	strdeq	r0, [sp], -fp
      10:	01010101 	tsteq	r1, r1, lsl #2
      14:	01000000 	mrseq	r0, (UNDEF: 0)
      18:	2f010000 	svccs	0x00010000
      1c:	72657355 	rsbvc	r7, r5, #1409286145	; 0x54000001
      20:	72622f73 	rsbvc	r2, r2, #460	; 0x1cc
      24:	6a6e6169 	bvs	1b985d0 <__bss_end__+0x1b8e158>
      28:	442f6e75 	strtmi	r6, [pc], #-3701	; 30 <_start-0x7fd0>
      2c:	746b7365 	strbtvc	r7, [fp], #-869	; 0x365
      30:	732f706f 	teqvc	pc, #111	; 0x6f
      34:	6f6f6863 	svcvs	0x006f6863
      38:	69572f6c 	ldmdbvs	r7, {r2, r3, r5, r6, r8, r9, sl, fp, sp}^
      3c:	7265746e 	rsbvc	r7, r5, #1845493760	; 0x6e000000
      40:	30323931 	eorscc	r3, r2, r1, lsr r9
      44:	3153432f 	cmpcc	r3, pc, lsr #6
      48:	2f453034 	svccs	0x00453034
      4c:	34317363 	ldrtcc	r7, [r1], #-867	; 0x363
      50:	322d6530 	eorcc	r6, sp, #48, 10	; 0xc000000
      54:	6e697730 	mcrvs	7, 3, r7, cr9, cr0, {1}
      58:	62696c2f 	rsbvs	r6, r9, #12032	; 0x2f00
      5c:	2f006970 	svccs	0x00006970
      60:	72657355 	rsbvc	r7, r5, #1409286145	; 0x54000001
      64:	72622f73 	rsbvc	r2, r2, #460	; 0x1cc
      68:	6a6e6169 	bvs	1b98614 <__bss_end__+0x1b8e19c>
      6c:	442f6e75 	strtmi	r6, [pc], #-3701	; 74 <_start-0x7f8c>
      70:	746b7365 	strbtvc	r7, [fp], #-869	; 0x365
      74:	732f706f 	teqvc	pc, #111	; 0x6f
      78:	6f6f6863 	svcvs	0x006f6863
      7c:	69572f6c 	ldmdbvs	r7, {r2, r3, r5, r6, r8, r9, sl, fp, sp}^
      80:	7265746e 	rsbvc	r7, r5, #1845493760	; 0x6e000000
      84:	30323931 	eorscc	r3, r2, r1, lsr r9
      88:	3153432f 	cmpcc	r3, pc, lsr #6
      8c:	2f453034 	svccs	0x00453034
      90:	34317363 	ldrtcc	r7, [r1], #-867	; 0x363
      94:	322d6530 	eorcc	r6, sp, #48, 10	; 0xc000000
      98:	6e697730 	mcrvs	7, 3, r7, cr9, cr0, {1}
      9c:	62696c2f 	rsbvs	r6, r9, #12032	; 0x2f00
      a0:	632f6970 	teqvs	pc, #112, 18	; 0x1c0000
      a4:	30343173 	eorscc	r3, r4, r3, ror r1
      a8:	72732d65 	rsbsvc	r2, r3, #6464	; 0x1940
      ac:	752f0063 	strvc	r0, [pc, #-99]!	; 51 <_start-0x7faf>
      b0:	6c2f7273 	sfmvs	f7, 4, [pc], #-460	; fffffeec <__bss_end__+0xffff5a74>
      b4:	6c61636f 	stclvs	3, cr6, [r1], #-444	; 0xfffffe44
      b8:	6c65432f 	stclvs	3, cr4, [r5], #-188	; 0xffffff44
      bc:	2f72616c 	svccs	0x0072616c
      c0:	2d6d7261 	sfmcs	f7, 2, [sp, #-388]!	; 0xfffffe7c
      c4:	656e6f6e 	strbvs	r6, [lr, #-3950]!	; 0xf6e
      c8:	6261652d 	rsbvs	r6, r1, #188743680	; 0xb400000
      cc:	2e342f69 	cdpcs	15, 3, cr2, cr4, cr9, {3}
      d0:	2d332e38 	ldccs	14, cr2, [r3, #-224]!	; 0xffffff20
      d4:	37317363 	ldrcc	r7, [r1, -r3, ror #6]!
      d8:	6c2f6530 	cfstr32vs	mvfx6, [pc], #-192	; 20 <_start-0x7fe0>
      dc:	672f6269 	strvs	r6, [pc, -r9, ror #4]!
      e0:	612f6363 	teqvs	pc, r3, ror #6
      e4:	6e2d6d72 	mcrvs	13, 1, r6, cr13, cr2, {3}
      e8:	2d656e6f 	stclcs	14, cr6, [r5, #-444]!	; 0xfffffe44
      ec:	69626165 	stmdbvs	r2!, {r0, r2, r5, r6, r8, sp, lr}^
      f0:	382e342f 	stmdacc	lr!, {r0, r1, r2, r3, r5, sl, ip, sp}
      f4:	692f332e 	stmdbvs	pc!, {r1, r2, r3, r5, r8, r9, ip, sp}	; <UNPREDICTABLE>
      f8:	756c636e 	strbvc	r6, [ip, #-878]!	; 0x36e
      fc:	00006564 	andeq	r6, r0, r4, ror #10
     100:	706f6373 	rsbvc	r6, pc, r3, ror r3	; <UNPREDICTABLE>
     104:	00632e65 	rsbeq	r2, r3, r5, ror #28
     108:	72000000 	andvc	r0, r0, #0
     10c:	682e6970 	stmdavs	lr!, {r4, r5, r6, r8, fp, sp, lr}
     110:	00000100 	andeq	r0, r0, r0, lsl #2
     114:	6f697067 	svcvs	0x00697067
     118:	0200682e 	andeq	r6, r0, #3014656	; 0x2e0000
     11c:	74730000 	ldrbtvc	r0, [r3], #-0
     120:	746e6964 	strbtvc	r6, [lr], #-2404	; 0x964
     124:	6363672d 	cmnvs	r3, #11796480	; 0xb40000
     128:	0300682e 	movweq	r6, #2094	; 0x82e
     12c:	00000000 	andeq	r0, r0, r0
     130:	80100205 	andshi	r0, r0, r5, lsl #4
     134:	c6030000 	strgt	r0, [r3], -r0
     138:	0f030100 	svceq	0x00030100
     13c:	9f2f852e 	svcls	0x002f852e
     140:	83672d2f 	cmnhi	r7, #3008	; 0xbc0
     144:	83672d2f 	cmnhi	r7, #3008	; 0xbc0
     148:	83672d2f 	cmnhi	r7, #3008	; 0xbc0
     14c:	83672d2f 	cmnhi	r7, #3008	; 0xbc0
     150:	83672d2f 	cmnhi	r7, #3008	; 0xbc0
     154:	83672d2f 	cmnhi	r7, #3008	; 0xbc0
     158:	83672d2f 	cmnhi	r7, #3008	; 0xbc0
     15c:	85672d2f 	strbhi	r2, [r7, #-3375]!	; 0xd2f
     160:	2f2f2f2c 	svccs	0x002f2f2c
     164:	03322f2f 	teqeq	r2, #47, 30	; 0xbc
     168:	13900845 	orrsne	r0, r0, #4521984	; 0x450000
     16c:	2f2f2f2d 	svccs	0x002f2f2d
     170:	02003067 	andeq	r3, r0, #103	; 0x67
     174:	03450104 	movteq	r0, #20740	; 0x5104
     178:	033c080d 	teqeq	ip, #851968	; 0xd0000
     17c:	02002e0f 	andeq	r2, r0, #15, 28	; 0xf0
     180:	2e060104 	adfcss	f0, f6, f4
     184:	002f6906 	eoreq	r6, pc, r6, lsl #18
     188:	06010402 	streq	r0, [r1], -r2, lsl #8
     18c:	2f83062e 	svccs	0x0083062e
     190:	0402002d 	streq	r0, [r2], #-45	; 0x2d
     194:	2f836701 	svccs	0x00836701
     198:	0402002d 	streq	r0, [r2], #-45	; 0x2d
     19c:	2f836701 	svccs	0x00836701
     1a0:	0402002d 	streq	r0, [r2], #-45	; 0x2d
     1a4:	2f836701 	svccs	0x00836701
     1a8:	0402002d 	streq	r0, [r2], #-45	; 0x2d
     1ac:	2f836701 	svccs	0x00836701
     1b0:	0402002d 	streq	r0, [r2], #-45	; 0x2d
     1b4:	2f836701 	svccs	0x00836701
     1b8:	0402002d 	streq	r0, [r2], #-45	; 0x2d
     1bc:	2f836701 	svccs	0x00836701
     1c0:	0402002d 	streq	r0, [r2], #-45	; 0x2d
     1c4:	2f836701 	svccs	0x00836701
     1c8:	0402002d 	streq	r0, [r2], #-45	; 0x2d
     1cc:	2c856701 	stccs	7, cr6, [r5], {1}
     1d0:	2f2f2f2f 	svccs	0x002f2f2f
     1d4:	9308322f 	movwls	r3, #33327	; 0x822f
     1d8:	7fa90330 	svcvc	0x00a90330
     1dc:	0402002e 	streq	r0, [r2], #-46	; 0x2e
     1e0:	00ec0301 	rsceq	r0, ip, r1, lsl #6
     1e4:	7f8f03ba 	svcvc	0x008f03ba
     1e8:	2e0b0382 	cdpcs	3, 0, cr0, cr11, cr2, {4}
     1ec:	332e7503 	teqcc	lr, #12582912	; 0xc00000
     1f0:	33293329 	teqcc	r9, #-1543503872	; 0xa4000000
     1f4:	01040200 	mrseq	r0, R12_usr
     1f8:	4a00ee03 	bmi	3ba0c <__bss_end__+0x31594>
     1fc:	827f8d03 	rsbshi	r8, pc, #3, 26	; 0xc0
     200:	032e0b03 	teqeq	lr, #3072	; 0xc00
     204:	29332e75 	ldmdbcs	r3!, {r0, r2, r4, r5, r6, r9, sl, fp, sp}
     208:	00332933 	eorseq	r2, r3, r3, lsr r9
     20c:	03010402 	movweq	r0, #5122	; 0x1402
     210:	034a00f0 	movteq	r0, #41200	; 0xa0f0
     214:	03827f8b 	orreq	r7, r2, #556	; 0x22c
     218:	75032e0b 	strvc	r2, [r3, #-3595]	; 0xe0b
     21c:	3329332e 	teqcc	r9, #-1207959552	; 0xb8000000
     220:	02003329 	andeq	r3, r0, #-1543503872	; 0xa4000000
     224:	f2030104 	vrhadd.s8	d0, d3, d4
     228:	89034a00 	stmdbhi	r3, {r9, fp, lr}
     22c:	0b03827f 	bleq	e0c30 <__bss_end__+0xd67b8>
     230:	2e75032e 	cdpcs	3, 7, cr0, cr5, cr14, {1}
     234:	29332933 	ldmdbcs	r3!, {r0, r1, r4, r5, r8, fp, sp}
     238:	04020033 	streq	r0, [r2], #-51	; 0x33
     23c:	00f40301 	rscseq	r0, r4, r1, lsl #6
     240:	7f87034a 	svcvc	0x0087034a
     244:	2e0b0382 	cdpcs	3, 0, cr0, cr11, cr2, {4}
     248:	332e7503 	teqcc	lr, #12582912	; 0xc00000
     24c:	33453329 	movtcc	r3, #21289	; 0x5329
     250:	01040200 	mrseq	r0, R12_usr
     254:	4a00f603 	bmi	3da68 <__bss_end__+0x335f0>
     258:	827f8503 	rsbshi	r8, pc, #12582912	; 0xc00000
     25c:	032e0b03 	teqeq	lr, #3072	; 0xc00
     260:	29332e75 	ldmdbcs	r3!, {r0, r2, r4, r5, r6, r9, sl, fp, sp}
     264:	00332933 	eorseq	r2, r3, r3, lsr r9
     268:	03010402 	movweq	r0, #5122	; 0x1402
     26c:	036600f8 	cmneq	r6, #248	; 0xf8
     270:	03827f83 	orreq	r7, r2, #524	; 0x20c
     274:	75032e0b 	strvc	r2, [r3, #-3595]	; 0xe0b
     278:	3329332e 	teqcc	r9, #-1207959552	; 0xb8000000
     27c:	02003329 	andeq	r3, r0, #-1543503872	; 0xa4000000
     280:	fa030104 	blx	c0698 <__bss_end__+0xb6220>
     284:	8c032e00 	stchi	14, cr2, [r3], {-0}
     288:	7503827f 	strvc	r8, [r3, #-639]	; 0x27f
     28c:	33296b2e 	teqcc	r9, #47104	; 0xb800
     290:	02003329 	andeq	r3, r0, #-1543503872	; 0xa4000000
     294:	fc030104 	stc2	1, cr0, [r3], {4}
     298:	ff032e00 			; <UNDEFINED> instruction: 0xff032e00
     29c:	0200827e 	andeq	r8, r0, #-536870905	; 0xe0000007
     2a0:	83030104 	movwhi	r0, #12548	; 0x3104
     2a4:	3183ba01 	orrcc	fp, r3, r1, lsl #20
     2a8:	31662c03 	cmncc	r6, r3, lsl #24
     2ac:	4c2f4b4b 	stcmi	11, cr4, [pc], #-300	; 188 <_start-0x7e78>
     2b0:	4f825003 	svcmi	0x00825003
     2b4:	4c30802d 	ldcmi	0, cr8, [r0], #-180	; 0xffffff4c
     2b8:	7d30674c 	ldcvc	7, cr6, [r0, #-304]!	; 0xfffffed0
     2bc:	03362a32 	teqeq	r6, #204800	; 0x32000
     2c0:	5d036627 	stcpl	6, cr6, [r3, #-156]	; 0xffffff64
     2c4:	e2034b2e 	and	r4, r3, #47104	; 0xb800
     2c8:	a2034a7e 	andge	r4, r3, #516096	; 0x7e000
     2cc:	03322e01 	teqeq	r2, #1, 28
     2d0:	03827eda 	orreq	r7, r2, #3488	; 0xda0
     2d4:	032e01ab 	teqeq	lr, #-1073741782	; 0xc000002a
     2d8:	032e7ed5 	teqeq	lr, #3408	; 0xd50
     2dc:	032e01a8 	teqeq	lr, #168, 2	; 0x2a
     2e0:	032e7ed8 	teqeq	lr, #216, 28	; 0xd80
     2e4:	302e01ab 	eorcc	r0, lr, fp, lsr #3
     2e8:	33827703 	orrcc	r7, r2, #786432	; 0xc0000
     2ec:	2e0c0329 	cdpcs	3, 0, cr0, cr12, cr9, {1}
     2f0:	01001602 	tsteq	r0, r2, lsl #12
     2f4:	00010201 	andeq	r0, r1, r1, lsl #4
     2f8:	eb000200 	bl	b00 <_start-0x7500>
     2fc:	02000000 	andeq	r0, r0, #0
     300:	0d0efb01 	vstreq	d15, [lr, #-4]
     304:	01010100 	mrseq	r0, (UNDEF: 17)
     308:	00000001 	andeq	r0, r0, r1
     30c:	01000001 	tsteq	r0, r1
     310:	6362696c 	cmnvs	r2, #108, 18	; 0x1b0000
     314:	73752f00 	cmnvc	r5, #0, 30
     318:	6f6c2f72 	svcvs	0x006c2f72
     31c:	2f6c6163 	svccs	0x006c6163
     320:	6c6c6543 	cfstr64vs	mvdx6, [ip], #-268	; 0xfffffef4
     324:	612f7261 	teqvs	pc, r1, ror #4
     328:	6e2d6d72 	mcrvs	13, 1, r6, cr13, cr2, {3}
     32c:	2d656e6f 	stclcs	14, cr6, [r5, #-444]!	; 0xfffffe44
     330:	69626165 	stmdbvs	r2!, {r0, r2, r5, r6, r8, sp, lr}^
     334:	382e342f 	stmdacc	lr!, {r0, r1, r2, r3, r5, sl, ip, sp}
     338:	632d332e 	teqvs	sp, #-1207959552	; 0xb8000000
     33c:	30373173 	eorscc	r3, r7, r3, ror r1
     340:	696c2f65 	stmdbvs	ip!, {r0, r2, r5, r6, r8, r9, sl, fp, sp}^
     344:	63672f62 	cmnvs	r7, #392	; 0x188
     348:	72612f63 	rsbvc	r2, r1, #396	; 0x18c
     34c:	6f6e2d6d 	svcvs	0x006e2d6d
     350:	652d656e 	strvs	r6, [sp, #-1390]!	; 0x56e
     354:	2f696261 	svccs	0x00696261
     358:	2e382e34 	mrccs	14, 1, r2, cr8, cr4, {1}
     35c:	6e692f33 	mcrvs	15, 3, r2, cr9, cr3, {1}
     360:	64756c63 	ldrbtvs	r6, [r5], #-3171	; 0xc63
     364:	552f0065 	strpl	r0, [pc, #-101]!	; 307 <_start-0x7cf9>
     368:	73726573 	cmnvc	r2, #482344960	; 0x1cc00000
     36c:	6972622f 	ldmdbvs	r2!, {r0, r1, r2, r3, r5, r9, sp, lr}^
     370:	756a6e61 	strbvc	r6, [sl, #-3681]!	; 0xe61
     374:	65442f6e 	strbvs	r2, [r4, #-3950]	; 0xf6e
     378:	6f746b73 	svcvs	0x00746b73
     37c:	63732f70 	cmnvs	r3, #112, 30	; 0x1c0
     380:	6c6f6f68 	stclvs	15, cr6, [pc], #-416	; 1e8 <_start-0x7e18>
     384:	6e69572f 	cdpvs	7, 6, cr5, cr9, cr15, {1}
     388:	31726574 	cmncc	r2, r4, ror r5
     38c:	2f303239 	svccs	0x00303239
     390:	34315343 	ldrtcc	r5, [r1], #-835	; 0x343
     394:	632f4530 	teqvs	pc, #48, 10	; 0xc000000
     398:	30343173 	eorscc	r3, r4, r3, ror r1
     39c:	30322d65 	eorscc	r2, r2, r5, ror #26
     3a0:	2f6e6977 	svccs	0x006e6977
     3a4:	7062696c 	rsbvc	r6, r2, ip, ror #18
     3a8:	70000069 	andvc	r0, r0, r9, rrx
     3ac:	746e6972 	strbtvc	r6, [lr], #-2418	; 0x972
     3b0:	00632e6b 	rsbeq	r2, r3, fp, ror #28
     3b4:	73000001 	movwvc	r0, #1
     3b8:	72616474 	rsbvc	r6, r1, #116, 8	; 0x74000000
     3bc:	00682e67 	rsbeq	r2, r8, r7, ror #28
     3c0:	3c000002 	stccc	0, cr0, [r0], {2}
     3c4:	6c697562 	cfstr64vs	mvdx7, [r9], #-392	; 0xfffffe78
     3c8:	6e692d74 	mcrvs	13, 3, r2, cr9, cr4, {3}
     3cc:	0000003e 	andeq	r0, r0, lr, lsr r0
     3d0:	69707200 	ldmdbvs	r0!, {r9, ip, sp, lr}^
     3d4:	0300682e 	movweq	r6, #2094	; 0x82e
     3d8:	61760000 	cmnvs	r6, r0
     3dc:	6972702d 	ldmdbvs	r2!, {r0, r2, r3, r5, ip, sp, lr}^
     3e0:	2e6b746e 	cdpcs	4, 6, cr7, cr11, cr14, {3}
     3e4:	00010068 	andeq	r0, r1, r8, rrx
     3e8:	05000000 	streq	r0, [r0, #-0]
     3ec:	0086c802 	addeq	ip, r6, r2, lsl #16
     3f0:	4b6b1700 	blmi	1ac5ff8 <__bss_end__+0x1abbb80>
     3f4:	0e0289bf 	mcreq	9, 0, r8, cr2, cr15, {5}
     3f8:	8a010100 	bhi	40800 <__bss_end__+0x36388>
     3fc:	02000000 	andeq	r0, r0, #0
     400:	00007200 	andeq	r7, r0, r0, lsl #4
     404:	fb010200 	blx	40c0e <__bss_end__+0x36796>
     408:	01000d0e 	tsteq	r0, lr, lsl #26
     40c:	00010101 	andeq	r0, r1, r1, lsl #2
     410:	00010000 	andeq	r0, r1, r0
     414:	696c0100 	stmdbvs	ip!, {r8}^
     418:	2f006362 	svccs	0x00006362
     41c:	72657355 	rsbvc	r7, r5, #1409286145	; 0x54000001
     420:	72622f73 	rsbvc	r2, r2, #460	; 0x1cc
     424:	6a6e6169 	bvs	1b989d0 <__bss_end__+0x1b8e558>
     428:	442f6e75 	strtmi	r6, [pc], #-3701	; 430 <_start-0x7bd0>
     42c:	746b7365 	strbtvc	r7, [fp], #-869	; 0x365
     430:	732f706f 	teqvc	pc, #111	; 0x6f
     434:	6f6f6863 	svcvs	0x006f6863
     438:	69572f6c 	ldmdbvs	r7, {r2, r3, r5, r6, r8, r9, sl, fp, sp}^
     43c:	7265746e 	rsbvc	r7, r5, #1845493760	; 0x6e000000
     440:	30323931 	eorscc	r3, r2, r1, lsr r9
     444:	3153432f 	cmpcc	r3, pc, lsr #6
     448:	2f453034 	svccs	0x00453034
     44c:	34317363 	ldrtcc	r7, [r1], #-867	; 0x363
     450:	322d6530 	eorcc	r6, sp, #48, 10	; 0xc000000
     454:	6e697730 	mcrvs	7, 3, r7, cr9, cr0, {1}
     458:	62696c2f 	rsbvs	r6, r9, #12032	; 0x2f00
     45c:	00006970 	andeq	r6, r0, r0, ror r9
     460:	63747570 	cmnvs	r4, #112, 10	; 0x1c000000
     464:	2e726168 	rpwcssz	f6, f2, #0.0
     468:	00010063 	andeq	r0, r1, r3, rrx
     46c:	69707200 	ldmdbvs	r0!, {r9, ip, sp, lr}^
     470:	0200682e 	andeq	r6, r0, #3014656	; 0x2e0000
     474:	00000000 	andeq	r0, r0, r0
     478:	87200205 	strhi	r0, [r0, -r5, lsl #4]!
     47c:	4a140000 	bmi	500484 <__bss_end__+0x4f600c>
     480:	13bc136b 			; <UNDEFINED> instruction: 0x13bc136b
     484:	01000802 	tsteq	r0, r2, lsl #16
     488:	00009601 	andeq	r9, r0, r1, lsl #12
     48c:	6f000200 	svcvs	0x00000200
     490:	02000000 	andeq	r0, r0, #0
     494:	0d0efb01 	vstreq	d15, [lr, #-4]
     498:	01010100 	mrseq	r0, (UNDEF: 17)
     49c:	00000001 	andeq	r0, r0, r1
     4a0:	01000001 	tsteq	r0, r1
     4a4:	6362696c 	cmnvs	r2, #108, 18	; 0x1b0000
     4a8:	73552f00 	cmpvc	r5, #0, 30
     4ac:	2f737265 	svccs	0x00737265
     4b0:	61697262 	cmnvs	r9, r2, ror #4
     4b4:	6e756a6e 	vsubvs.f32	s13, s10, s29
     4b8:	7365442f 	cmnvc	r5, #788529152	; 0x2f000000
     4bc:	706f746b 	rsbvc	r7, pc, fp, ror #8
     4c0:	6863732f 	stmdavs	r3!, {r0, r1, r2, r3, r5, r8, r9, ip, sp, lr}^
     4c4:	2f6c6f6f 	svccs	0x006c6f6f
     4c8:	746e6957 	strbtvc	r6, [lr], #-2391	; 0x957
     4cc:	39317265 	ldmdbcc	r1!, {r0, r2, r5, r6, r9, ip, sp, lr}
     4d0:	432f3032 	teqmi	pc, #50	; 0x32
     4d4:	30343153 	eorscc	r3, r4, r3, asr r1
     4d8:	73632f45 	cmnvc	r3, #276	; 0x114
     4dc:	65303431 	ldrvs	r3, [r0, #-1073]!	; 0x431
     4e0:	7730322d 	ldrvc	r3, [r0, -sp, lsr #4]!
     4e4:	6c2f6e69 	stcvs	14, cr6, [pc], #-420	; 348 <_start-0x7cb8>
     4e8:	69706269 	ldmdbvs	r0!, {r0, r3, r5, r6, r9, sp, lr}^
     4ec:	75700000 	ldrbvc	r0, [r0, #-0]!
     4f0:	632e6b74 	teqvs	lr, #116, 22	; 0x1d000
     4f4:	00000100 	andeq	r0, r0, r0, lsl #2
     4f8:	2e697072 	mcrcs	0, 3, r7, cr9, cr2, {3}
     4fc:	00020068 	andeq	r0, r2, r8, rrx
     500:	05000000 	streq	r0, [r0, #-0]
     504:	00875c02 	addeq	r5, r7, r2, lsl #24
     508:	2d4c1500 	cfstr64cs	mvdx1, [ip, #-0]
     50c:	02040200 	andeq	r0, r4, #0, 4
     510:	0402002f 	streq	r0, [r2], #-47	; 0x2f
     514:	02004902 	andeq	r4, r0, #32768	; 0x8000
     518:	2e060104 	adfcss	f0, f6, f4
     51c:	06026b06 	streq	r6, [r2], -r6, lsl #22
     520:	e2010100 	and	r0, r1, #0, 2
     524:	02000001 	andeq	r0, r0, #1
     528:	0000df00 	andeq	sp, r0, r0, lsl #30
     52c:	fb010200 	blx	40d36 <__bss_end__+0x368be>
     530:	01000d0e 	tsteq	r0, lr, lsl #26
     534:	00010101 	andeq	r0, r1, r1, lsl #2
     538:	00010000 	andeq	r0, r1, r0
     53c:	696c0100 	stmdbvs	ip!, {r8}^
     540:	2f006362 	svccs	0x00006362
     544:	2f727375 	svccs	0x00727375
     548:	61636f6c 	cmnvs	r3, ip, ror #30
     54c:	65432f6c 	strbvs	r2, [r3, #-3948]	; 0xf6c
     550:	72616c6c 	rsbvc	r6, r1, #108, 24	; 0x6c00
     554:	6d72612f 	ldfvse	f6, [r2, #-188]!	; 0xffffff44
     558:	6e6f6e2d 	cdpvs	14, 6, cr6, cr15, cr13, {1}
     55c:	61652d65 	cmnvs	r5, r5, ror #26
     560:	342f6962 	strtcc	r6, [pc], #-2402	; 568 <_start-0x7a98>
     564:	332e382e 	teqcc	lr, #3014656	; 0x2e0000
     568:	3173632d 	cmncc	r3, sp, lsr #6
     56c:	2f653037 	svccs	0x00653037
     570:	2f62696c 	svccs	0x0062696c
     574:	2f636367 	svccs	0x00636367
     578:	2d6d7261 	sfmcs	f7, 2, [sp, #-388]!	; 0xfffffe7c
     57c:	656e6f6e 	strbvs	r6, [lr, #-3950]!	; 0xf6e
     580:	6261652d 	rsbvs	r6, r1, #188743680	; 0xb400000
     584:	2e342f69 	cdpcs	15, 3, cr2, cr4, cr9, {3}
     588:	2f332e38 	svccs	0x00332e38
     58c:	6c636e69 	stclvs	14, cr6, [r3], #-420	; 0xfffffe5c
     590:	00656475 	rsbeq	r6, r5, r5, ror r4
     594:	6573552f 	ldrbvs	r5, [r3, #-1327]!	; 0x52f
     598:	622f7372 	eorvs	r7, pc, #-939524095	; 0xc8000001
     59c:	6e616972 	mcrvs	9, 3, r6, cr1, cr2, {3}
     5a0:	2f6e756a 	svccs	0x006e756a
     5a4:	6b736544 	blvs	1cd9abc <__bss_end__+0x1ccf644>
     5a8:	2f706f74 	svccs	0x00706f74
     5ac:	6f686373 	svcvs	0x00686373
     5b0:	572f6c6f 	strpl	r6, [pc, -pc, ror #24]!
     5b4:	65746e69 	ldrbvs	r6, [r4, #-3689]!	; 0xe69
     5b8:	32393172 	eorscc	r3, r9, #-2147483620	; 0x8000001c
     5bc:	53432f30 	movtpl	r2, #16176	; 0x3f30
     5c0:	45303431 	ldrmi	r3, [r0, #-1073]!	; 0x431
     5c4:	3173632f 	cmncc	r3, pc, lsr #6
     5c8:	2d653034 	stclcs	0, cr3, [r5, #-208]!	; 0xffffff30
     5cc:	69773032 	ldmdbvs	r7!, {r1, r4, r5, ip, sp}^
     5d0:	696c2f6e 	stmdbvs	ip!, {r1, r2, r3, r5, r6, r8, r9, sl, fp, sp}^
     5d4:	00697062 	rsbeq	r7, r9, r2, rrx
     5d8:	2d617600 	stclcs	6, cr7, [r1, #-0]
     5dc:	6e697270 	mcrvs	2, 3, r7, cr9, cr0, {3}
     5e0:	632e6b74 	teqvs	lr, #116, 22	; 0x1d000
     5e4:	00000100 	andeq	r0, r0, r0, lsl #2
     5e8:	61647473 	smcvs	18243	; 0x4743
     5ec:	682e6772 	stmdavs	lr!, {r1, r4, r5, r6, r8, r9, sl, sp, lr}
     5f0:	00000200 	andeq	r0, r0, r0, lsl #4
     5f4:	2e697072 	mcrcs	0, 3, r7, cr9, cr2, {3}
     5f8:	00030068 	andeq	r0, r3, r8, rrx
     5fc:	75623c00 	strbvc	r3, [r2, #-3072]!	; 0xc00
     600:	2d746c69 	ldclcs	12, cr6, [r4, #-420]!	; 0xfffffe5c
     604:	003e6e69 	eorseq	r6, lr, r9, ror #28
     608:	00000000 	andeq	r0, r0, r0
     60c:	90020500 	andls	r0, r2, r0, lsl #10
     610:	03000087 	movweq	r0, #135	; 0x87
     614:	a5010126 	strge	r0, [r1, #-294]	; 0x126
     618:	002d3113 	eoreq	r3, sp, r3, lsl r1
     61c:	2f020402 	svccs	0x00020402
     620:	02040200 	andeq	r0, r4, #0, 4
     624:	0402002d 	streq	r0, [r2], #-45	; 0x2d
     628:	02002f02 	andeq	r2, r0, #2, 30
     62c:	4c2d0104 	stfmis	f0, [sp], #-16
     630:	4b14304c 	blmi	50c768 <__bss_end__+0x5022f0>
     634:	02004f2f 	andeq	r4, r0, #47, 30	; 0xbc
     638:	00670204 	rsbeq	r0, r7, r4, lsl #4
     63c:	65010402 	strvs	r0, [r1, #-1026]	; 0x402
     640:	a0304d4c 	eorsge	r4, r0, ip, asr #26
     644:	0230312f 	eorseq	r3, r0, #-1073741813	; 0xc000000b
     648:	2d841626 	stccs	6, cr1, [r4, #152]	; 0x98
     64c:	0402002c 	streq	r0, [r2], #-44	; 0x2c
     650:	02003001 	andeq	r3, r0, #1
     654:	06330104 	ldrteq	r0, [r3], -r4, lsl #2
     658:	04020066 	streq	r0, [r2], #-102	; 0x66
     65c:	02002e01 	andeq	r2, r0, #1, 28
     660:	08060104 	stmdaeq	r6, {r2, r8}
     664:	032f6721 	teqeq	pc, #8650752	; 0x840000
     668:	13038273 	movwne	r8, #12915	; 0x3273
     66c:	0402002e 	streq	r0, [r2], #-46	; 0x2e
     670:	002e0601 	eoreq	r0, lr, r1, lsl #12
     674:	06010402 	streq	r0, [r1], -r2, lsl #8
     678:	034b6a9f 	movteq	r6, #47775	; 0xba9f
     67c:	21032e67 	tstcs	r3, r7, ror #28
     680:	0402002e 	streq	r0, [r2], #-46	; 0x2e
     684:	002e0601 	eoreq	r0, lr, r1, lsl #12
     688:	06010402 	streq	r0, [r1], -r2, lsl #8
     68c:	0402009f 	streq	r0, [r2], #-159	; 0x9f
     690:	23086a01 	movwcs	r6, #35329	; 0x8a01
     694:	7fa603f3 	svcvc	0x00a603f3
     698:	004b3c08 	subeq	r3, fp, r8, lsl #24
     69c:	06010402 	streq	r0, [r1], -r2, lsl #8
     6a0:	2108064a 	tstcs	r8, sl, asr #12
     6a4:	034b2f4b 	movteq	r2, #48971	; 0xbf4b
     6a8:	83f200d9 	mvnshi	r0, #217	; 0xd9
     6ac:	0e03484c 	cdpeq	8, 0, cr4, cr3, cr12, {2}
     6b0:	2e75032e 	cdpcs	3, 7, cr0, cr5, cr14, {1}
     6b4:	4b842f2f 	blmi	fe10c378 <__bss_end__+0xfe101f00>
     6b8:	314d2d2f 	cmpcc	sp, pc, lsr #26
     6bc:	00832f30 	addeq	r2, r3, r0, lsr pc
     6c0:	2c010402 	cfstrscs	mvf0, [r1], {2}
     6c4:	040200a2 	streq	r0, [r2], #-162	; 0xa2
     6c8:	064a0601 	strbeq	r0, [sl], -r1, lsl #12
     6cc:	36022208 	strcc	r2, [r2], -r8, lsl #4
     6d0:	d60e0316 			; <UNDEFINED> instruction: 0xd60e0316
     6d4:	f3302108 	vrhadd.u<illegal width 64>	d2, d0, d8
     6d8:	f330f331 	vcge.u<illegal width 64>	d15, d0, d17
     6dc:	f3304b30 			; <UNDEFINED> instruction: 0xf3304b30
     6e0:	31230830 	teqcc	r3, r0, lsr r8
     6e4:	0402002f 	streq	r0, [r2], #-47	; 0x2f
     6e8:	02006501 	andeq	r6, r0, #4194304	; 0x400000
     6ec:	4a060204 	bmi	180f04 <__bss_end__+0x176a8c>
     6f0:	01040200 	mrseq	r0, R12_usr
     6f4:	66420306 	strbvs	r0, [r2], -r6, lsl #6
     6f8:	02040200 	andeq	r0, r4, #0, 4
     6fc:	03066606 	movweq	r6, #26118	; 0x6606
     700:	684a00c2 	stmdavs	sl, {r1, r6, r7}^
     704:	01001202 	tsteq	r0, r2, lsl #4
     708:	00004301 	andeq	r4, r0, r1, lsl #6
     70c:	29000200 	stmdbcs	r0, {r9}
     710:	02000000 	andeq	r0, r0, #0
     714:	0d0efb01 	vstreq	d15, [lr, #-4]
     718:	01010100 	mrseq	r0, (UNDEF: 17)
     71c:	00000001 	andeq	r0, r0, r1
     720:	01000001 	tsteq	r0, r1
     724:	34317363 	ldrtcc	r7, [r1], #-867	; 0x363
     728:	732d6530 	teqvc	sp, #48, 10	; 0xc000000
     72c:	00006372 	andeq	r6, r0, r2, ror r3
     730:	68636163 	stmdavs	r3!, {r0, r1, r5, r6, r8, sp, lr}^
     734:	00632e65 	rsbeq	r2, r3, r5, ror #28
     738:	00000001 	andeq	r0, r0, r1
     73c:	b4020500 	strlt	r0, [r2], #-1280	; 0x500
     740:	1400008c 	strne	r0, [r0], #-140	; 0x8c
     744:	4e2f3014 	miaTTmi	acc0, r4, r3
     748:	022f3114 	eoreq	r3, pc, #20, 2
     74c:	01010004 	tsteq	r1, r4
     750:	00000093 	muleq	r0, r3, r0
     754:	007d0002 	rsbseq	r0, sp, r2
     758:	01020000 	mrseq	r0, (UNDEF: 2)
     75c:	000d0efb 	strdeq	r0, [sp], -fp
     760:	01010101 	tsteq	r1, r1, lsl #2
     764:	01000000 	mrseq	r0, (UNDEF: 0)
     768:	63010000 	movwvs	r0, #4096	; 0x1000
     76c:	30343173 	eorscc	r3, r4, r3, ror r1
     770:	72732d65 	rsbsvc	r2, r3, #6464	; 0x1940
     774:	552f0063 	strpl	r0, [pc, #-99]!	; 719 <_start-0x78e7>
     778:	73726573 	cmnvc	r2, #482344960	; 0x1cc00000
     77c:	6972622f 	ldmdbvs	r2!, {r0, r1, r2, r3, r5, r9, sp, lr}^
     780:	756a6e61 	strbvc	r6, [sl, #-3681]!	; 0xe61
     784:	65442f6e 	strbvs	r2, [r4, #-3950]	; 0xf6e
     788:	6f746b73 	svcvs	0x00746b73
     78c:	63732f70 	cmnvs	r3, #112, 30	; 0x1c0
     790:	6c6f6f68 	stclvs	15, cr6, [pc], #-416	; 5f8 <_start-0x7a08>
     794:	6e69572f 	cdpvs	7, 6, cr5, cr9, cr15, {1}
     798:	31726574 	cmncc	r2, r4, ror r5
     79c:	2f303239 	svccs	0x00303239
     7a0:	34315343 	ldrtcc	r5, [r1], #-835	; 0x343
     7a4:	632f4530 	teqvs	pc, #48, 10	; 0xc000000
     7a8:	30343173 	eorscc	r3, r4, r3, ror r1
     7ac:	30322d65 	eorscc	r2, r2, r5, ror #26
     7b0:	2f6e6977 	svccs	0x006e6977
     7b4:	7062696c 	rsbvc	r6, r2, ip, ror #18
     7b8:	63000069 	movwvs	r0, #105	; 0x69
     7bc:	6e61656c 	cdpvs	5, 6, cr6, cr1, cr12, {3}
     7c0:	6265722d 	rsbvs	r7, r5, #-805306366	; 0xd0000002
     7c4:	2e746f6f 	cdpcs	15, 7, cr6, cr4, cr15, {3}
     7c8:	00010063 	andeq	r0, r1, r3, rrx
     7cc:	69707200 	ldmdbvs	r0!, {r9, ip, sp, lr}^
     7d0:	0200682e 	andeq	r6, r0, #3014656	; 0x2e0000
     7d4:	00000000 	andeq	r0, r0, r0
     7d8:	8cd40205 	lfmhi	f0, 2, [r4], {5}
     7dc:	2f150000 	svccs	0x00150000
     7e0:	06024b83 	streq	r4, [r2], -r3, lsl #23
     7e4:	21010100 	mrscs	r0, (UNDEF: 17)
     7e8:	02000001 	andeq	r0, r0, #1
     7ec:	0000f800 	andeq	pc, r0, r0, lsl #16
     7f0:	fb010200 	blx	40ffa <__bss_end__+0x36b82>
     7f4:	01000d0e 	tsteq	r0, lr, lsl #26
     7f8:	00010101 	andeq	r0, r1, r1, lsl #2
     7fc:	00010000 	andeq	r0, r1, r0
     800:	73630100 	cmnvc	r3, #0, 2
     804:	65303431 	ldrvs	r3, [r0, #-1073]!	; 0x431
     808:	6372732d 	cmnvs	r2, #-1275068416	; 0xb4000000
     80c:	73752f00 	cmnvc	r5, #0, 30
     810:	6f6c2f72 	svcvs	0x006c2f72
     814:	2f6c6163 	svccs	0x006c6163
     818:	6c6c6543 	cfstr64vs	mvdx6, [ip], #-268	; 0xfffffef4
     81c:	612f7261 	teqvs	pc, r1, ror #4
     820:	6e2d6d72 	mcrvs	13, 1, r6, cr13, cr2, {3}
     824:	2d656e6f 	stclcs	14, cr6, [r5, #-444]!	; 0xfffffe44
     828:	69626165 	stmdbvs	r2!, {r0, r2, r5, r6, r8, sp, lr}^
     82c:	382e342f 	stmdacc	lr!, {r0, r1, r2, r3, r5, sl, ip, sp}
     830:	632d332e 	teqvs	sp, #-1207959552	; 0xb8000000
     834:	30373173 	eorscc	r3, r7, r3, ror r1
     838:	696c2f65 	stmdbvs	ip!, {r0, r2, r5, r6, r8, r9, sl, fp, sp}^
     83c:	63672f62 	cmnvs	r7, #392	; 0x188
     840:	72612f63 	rsbvc	r2, r1, #396	; 0x18c
     844:	6f6e2d6d 	svcvs	0x006e2d6d
     848:	652d656e 	strvs	r6, [sp, #-1390]!	; 0x56e
     84c:	2f696261 	svccs	0x00696261
     850:	2e382e34 	mrccs	14, 1, r2, cr8, cr4, {1}
     854:	6e692f33 	mcrvs	15, 3, r2, cr9, cr3, {1}
     858:	64756c63 	ldrbtvs	r6, [r5], #-3171	; 0xc63
     85c:	552f0065 	strpl	r0, [pc, #-101]!	; 7ff <_start-0x7801>
     860:	73726573 	cmnvc	r2, #482344960	; 0x1cc00000
     864:	6972622f 	ldmdbvs	r2!, {r0, r1, r2, r3, r5, r9, sp, lr}^
     868:	756a6e61 	strbvc	r6, [sl, #-3681]!	; 0xe61
     86c:	65442f6e 	strbvs	r2, [r4, #-3950]	; 0xf6e
     870:	6f746b73 	svcvs	0x00746b73
     874:	63732f70 	cmnvs	r3, #112, 30	; 0x1c0
     878:	6c6f6f68 	stclvs	15, cr6, [pc], #-416	; 6e0 <_start-0x7920>
     87c:	6e69572f 	cdpvs	7, 6, cr5, cr9, cr15, {1}
     880:	31726574 	cmncc	r2, r4, ror r5
     884:	2f303239 	svccs	0x00303239
     888:	34315343 	ldrtcc	r5, [r1], #-835	; 0x343
     88c:	632f4530 	teqvs	pc, #48, 10	; 0xc000000
     890:	30343173 	eorscc	r3, r4, r3, ror r1
     894:	30322d65 	eorscc	r2, r2, r5, ror #26
     898:	2f6e6977 	svccs	0x006e6977
     89c:	7062696c 	rsbvc	r6, r2, ip, ror #18
     8a0:	63000069 	movwvs	r0, #105	; 0x69
     8a4:	72617473 	rsbvc	r7, r1, #1929379840	; 0x73000000
     8a8:	00632e74 	rsbeq	r2, r3, r4, ror lr
     8ac:	73000001 	movwvc	r0, #1
     8b0:	6e696474 	mcrvs	4, 3, r6, cr9, cr4, {3}
     8b4:	63672d74 	cmnvs	r7, #116, 26	; 0x1d00
     8b8:	00682e63 	rsbeq	r2, r8, r3, ror #28
     8bc:	73000002 	movwvc	r0, #2
     8c0:	61752d77 	cmnvs	r5, r7, ror sp
     8c4:	682e7472 	stmdavs	lr!, {r1, r4, r5, r6, sl, ip, sp, lr}
     8c8:	00000100 	andeq	r0, r0, r0, lsl #2
     8cc:	746e6f63 	strbtvc	r6, [lr], #-3939	; 0xf63
     8d0:	2d6c6f72 	stclcs	15, cr6, [ip, #-456]!	; 0xfffffe38
     8d4:	636f6c62 	cmnvs	pc, #25088	; 0x6200
     8d8:	00682e6b 	rsbeq	r2, r8, fp, ror #28
     8dc:	72000001 	andvc	r0, r0, #1
     8e0:	682e6970 	stmdavs	lr!, {r4, r5, r6, r8, fp, sp, lr}
     8e4:	00000300 	andeq	r0, r0, r0, lsl #6
     8e8:	02050000 	andeq	r0, r5, #0
     8ec:	00008cfc 	strdeq	r8, [r0], -ip
     8f0:	68684b17 	stmdavs	r8!, {r0, r1, r2, r4, r8, r9, fp, lr}^
     8f4:	2d2f3132 	stfcss	f3, [pc, #-200]!	; 834 <_start-0x77cc>
     8f8:	0402002f 	streq	r0, [r2], #-47	; 0x2f
     8fc:	2f4f4901 	svccs	0x004f4901
     900:	8367674b 	cmnhi	r7, #19660800	; 0x12c0000
     904:	022f4e67 	eoreq	r4, pc, #1648	; 0x670
     908:	01010010 	tsteq	r1, r0, lsl r0
     90c:	00000099 	muleq	r0, r9, r0
     910:	00770002 	rsbseq	r0, r7, r2
     914:	01020000 	mrseq	r0, (UNDEF: 2)
     918:	000d0efb 	strdeq	r0, [sp], -fp
     91c:	01010101 	tsteq	r1, r1, lsl #2
     920:	01000000 	mrseq	r0, (UNDEF: 0)
     924:	63010000 	movwvs	r0, #4096	; 0x1000
     928:	30343173 	eorscc	r3, r4, r3, ror r1
     92c:	72732d65 	rsbsvc	r2, r3, #6464	; 0x1940
     930:	552f0063 	strpl	r0, [pc, #-99]!	; 8d5 <_start-0x772b>
     934:	73726573 	cmnvc	r2, #482344960	; 0x1cc00000
     938:	6972622f 	ldmdbvs	r2!, {r0, r1, r2, r3, r5, r9, sp, lr}^
     93c:	756a6e61 	strbvc	r6, [sl, #-3681]!	; 0xe61
     940:	65442f6e 	strbvs	r2, [r4, #-3950]	; 0xf6e
     944:	6f746b73 	svcvs	0x00746b73
     948:	63732f70 	cmnvs	r3, #112, 30	; 0x1c0
     94c:	6c6f6f68 	stclvs	15, cr6, [pc], #-416	; 7b4 <_start-0x784c>
     950:	6e69572f 	cdpvs	7, 6, cr5, cr9, cr15, {1}
     954:	31726574 	cmncc	r2, r4, ror r5
     958:	2f303239 	svccs	0x00303239
     95c:	34315343 	ldrtcc	r5, [r1], #-835	; 0x343
     960:	632f4530 	teqvs	pc, #48, 10	; 0xc000000
     964:	30343173 	eorscc	r3, r4, r3, ror r1
     968:	30322d65 	eorscc	r2, r2, r5, ror #26
     96c:	2f6e6977 	svccs	0x006e6977
     970:	7062696c 	rsbvc	r6, r2, ip, ror #18
     974:	72000069 	andvc	r0, r0, #105	; 0x69
     978:	6f6f6265 	svcvs	0x006f6265
     97c:	00632e74 	rsbeq	r2, r3, r4, ror lr
     980:	72000001 	andvc	r0, r0, #1
     984:	682e6970 	stmdavs	lr!, {r4, r5, r6, r8, fp, sp, lr}
     988:	00000200 	andeq	r0, r0, r0, lsl #4
     98c:	02050000 	andeq	r0, r5, #0
     990:	00008dac 	andeq	r8, r0, ip, lsr #27
     994:	14010d03 	strne	r0, [r1], #-3331	; 0xd03
     998:	15852f31 	strne	r2, [r5, #3889]	; 0xf31
     99c:	2f4d4b2f 	svccs	0x004d4b2f
     9a0:	67523567 	ldrbvs	r3, [r2, -r7, ror #10]
     9a4:	01001002 	tsteq	r0, r2
     9a8:	0000a301 	andeq	sl, r0, r1, lsl #6
     9ac:	76000200 	strvc	r0, [r0], -r0, lsl #4
     9b0:	02000000 	andeq	r0, r0, #0
     9b4:	0d0efb01 	vstreq	d15, [lr, #-4]
     9b8:	01010100 	mrseq	r0, (UNDEF: 17)
     9bc:	00000001 	andeq	r0, r0, r1
     9c0:	01000001 	tsteq	r0, r1
     9c4:	34317363 	ldrtcc	r7, [r1], #-867	; 0x363
     9c8:	732d6530 	teqvc	sp, #48, 10	; 0xc000000
     9cc:	2f006372 	svccs	0x00006372
     9d0:	72657355 	rsbvc	r7, r5, #1409286145	; 0x54000001
     9d4:	72622f73 	rsbvc	r2, r2, #460	; 0x1cc
     9d8:	6a6e6169 	bvs	1b98f84 <__bss_end__+0x1b8eb0c>
     9dc:	442f6e75 	strtmi	r6, [pc], #-3701	; 9e4 <_start-0x761c>
     9e0:	746b7365 	strbtvc	r7, [fp], #-869	; 0x365
     9e4:	732f706f 	teqvc	pc, #111	; 0x6f
     9e8:	6f6f6863 	svcvs	0x006f6863
     9ec:	69572f6c 	ldmdbvs	r7, {r2, r3, r5, r6, r8, r9, sl, fp, sp}^
     9f0:	7265746e 	rsbvc	r7, r5, #1845493760	; 0x6e000000
     9f4:	30323931 	eorscc	r3, r2, r1, lsr r9
     9f8:	3153432f 	cmpcc	r3, pc, lsr #6
     9fc:	2f453034 	svccs	0x00453034
     a00:	34317363 	ldrtcc	r7, [r1], #-867	; 0x363
     a04:	322d6530 	eorcc	r6, sp, #48, 10	; 0xc000000
     a08:	6e697730 	mcrvs	7, 3, r7, cr9, cr0, {1}
     a0c:	62696c2f 	rsbvs	r6, r9, #12032	; 0x2f00
     a10:	00006970 	andeq	r6, r0, r0, ror r9
     a14:	656d6974 	strbvs	r6, [sp, #-2420]!	; 0x974
     a18:	00632e72 	rsbeq	r2, r3, r2, ror lr
     a1c:	72000001 	andvc	r0, r0, #1
     a20:	682e6970 	stmdavs	lr!, {r4, r5, r6, r8, fp, sp, lr}
     a24:	00000200 	andeq	r0, r0, r0, lsl #4
     a28:	02050000 	andeq	r0, r5, #0
     a2c:	00008e20 	andeq	r8, r0, r0, lsr #28
     a30:	2d2f1316 	stccs	3, cr1, [pc, #-88]!	; 9e0 <_start-0x7620>
     a34:	01040200 	mrseq	r0, R12_usr
     a38:	68062e06 	stmdavs	r6, {r1, r2, r9, sl, fp, sp}
     a3c:	4d4b2f31 	stclmi	15, cr2, [fp, #-196]	; 0xffffff3c
     a40:	4b303132 	blmi	c0cf10 <__bss_end__+0xc02a98>
     a44:	2f6a2f4c 	svccs	0x006a2f4c
     a48:	022f842f 	eoreq	r8, pc, #788529152	; 0x2f000000
     a4c:	01010008 	tsteq	r1, r8
     a50:	0000017f 	andeq	r0, r0, pc, ror r1
     a54:	00ca0002 	sbceq	r0, sl, r2
     a58:	01020000 	mrseq	r0, (UNDEF: 2)
     a5c:	000d0efb 	strdeq	r0, [sp], -fp
     a60:	01010101 	tsteq	r1, r1, lsl #2
     a64:	01000000 	mrseq	r0, (UNDEF: 0)
     a68:	6d010000 	stcvs	0, cr0, [r1, #-0]
     a6c:	72732d79 	rsbsvc	r2, r3, #7744	; 0x1e40
     a70:	552f0063 	strpl	r0, [pc, #-99]!	; a15 <_start-0x75eb>
     a74:	73726573 	cmnvc	r2, #482344960	; 0x1cc00000
     a78:	6972622f 	ldmdbvs	r2!, {r0, r1, r2, r3, r5, r9, sp, lr}^
     a7c:	756a6e61 	strbvc	r6, [sl, #-3681]!	; 0xe61
     a80:	65442f6e 	strbvs	r2, [r4, #-3950]	; 0xf6e
     a84:	6f746b73 	svcvs	0x00746b73
     a88:	63732f70 	cmnvs	r3, #112, 30	; 0x1c0
     a8c:	6c6f6f68 	stclvs	15, cr6, [pc], #-416	; 8f4 <_start-0x770c>
     a90:	6e69572f 	cdpvs	7, 6, cr5, cr9, cr15, {1}
     a94:	31726574 	cmncc	r2, r4, ror r5
     a98:	2f303239 	svccs	0x00303239
     a9c:	34315343 	ldrtcc	r5, [r1], #-835	; 0x343
     aa0:	632f4530 	teqvs	pc, #48, 10	; 0xc000000
     aa4:	30343173 	eorscc	r3, r4, r3, ror r1
     aa8:	30322d65 	eorscc	r2, r2, r5, ror #26
     aac:	2f6e6977 	svccs	0x006e6977
     ab0:	7062696c 	rsbvc	r6, r2, ip, ror #18
     ab4:	73632f69 	cmnvc	r3, #420	; 0x1a4
     ab8:	65303431 	ldrvs	r3, [r0, #-1073]!	; 0x431
     abc:	6372732d 	cmnvs	r2, #-1275068416	; 0xb4000000
     ac0:	73552f00 	cmpvc	r5, #0, 30
     ac4:	2f737265 	svccs	0x00737265
     ac8:	61697262 	cmnvs	r9, r2, ror #4
     acc:	6e756a6e 	vsubvs.f32	s13, s10, s29
     ad0:	7365442f 	cmnvc	r5, #788529152	; 0x2f000000
     ad4:	706f746b 	rsbvc	r7, pc, fp, ror #8
     ad8:	6863732f 	stmdavs	r3!, {r0, r1, r2, r3, r5, r8, r9, ip, sp, lr}^
     adc:	2f6c6f6f 	svccs	0x006c6f6f
     ae0:	746e6957 	strbtvc	r6, [lr], #-2391	; 0x957
     ae4:	39317265 	ldmdbcc	r1!, {r0, r2, r5, r6, r9, ip, sp, lr}
     ae8:	432f3032 	teqmi	pc, #50	; 0x32
     aec:	30343153 	eorscc	r3, r4, r3, asr r1
     af0:	73632f45 	cmnvc	r3, #276	; 0x114
     af4:	65303431 	ldrvs	r3, [r0, #-1073]!	; 0x431
     af8:	7730322d 	ldrvc	r3, [r0, -sp, lsr #4]!
     afc:	6c2f6e69 	stcvs	14, cr6, [pc], #-420	; 960 <_start-0x76a0>
     b00:	69706269 	ldmdbvs	r0!, {r0, r3, r5, r6, r9, sp, lr}^
     b04:	70670000 	rsbvc	r0, r7, r0
     b08:	632e6f69 	teqvs	lr, #420	; 0x1a4
     b0c:	00000100 	andeq	r0, r0, r0, lsl #2
     b10:	6f697067 	svcvs	0x00697067
     b14:	0200682e 	andeq	r6, r0, #3014656	; 0x2e0000
     b18:	70720000 	rsbsvc	r0, r2, r0
     b1c:	00682e69 	rsbeq	r2, r8, r9, ror #28
     b20:	00000003 	andeq	r0, r0, r3
     b24:	a8020500 	stmdage	r2, {r8, sl}
     b28:	0300008e 	movweq	r0, #142	; 0x8e
     b2c:	504e013e 	subpl	r0, lr, lr, lsr r1
     b30:	67210869 	strvs	r0, [r1, -r9, ror #16]!
     b34:	67676767 	strbvs	r6, [r7, -r7, ror #14]!
     b38:	084b3267 	stmdaeq	fp, {r0, r1, r2, r5, r6, r9, ip, sp}^
     b3c:	5131dc22 	teqpl	r1, r2, lsr #24
     b40:	30504e13 	subscc	r4, r0, r3, lsl lr
     b44:	135031be 	cmpne	r0, #-2147483601	; 0x8000002f
     b48:	c0304f4d 	eorsgt	r4, r0, sp, asr #30
     b4c:	0869504c 	stmdaeq	r9!, {r2, r3, r6, ip, lr}^
     b50:	67676721 	strbvs	r6, [r7, -r1, lsr #14]!
     b54:	32676767 	rsbcc	r6, r7, #27000832	; 0x19c0000
     b58:	a421084b 	strtge	r0, [r1], #-2123	; 0x84b
     b5c:	842f504c 	strthi	r5, [pc], #-76	; b64 <_start-0x749c>
     b60:	82750369 	rsbshi	r0, r5, #-1543503871	; 0xa4000001
     b64:	4d2e0c03 	stcmi	12, cr0, [lr, #-12]!
     b68:	4c4b4e30 	mcrrmi	14, 3, r4, fp, cr0
     b6c:	696b6a4d 	stmdbvs	fp!, {r0, r2, r3, r6, r9, fp, sp, lr}^
     b70:	67672108 	strbvs	r2, [r7, -r8, lsl #2]!
     b74:	67676767 	strbvs	r6, [r7, -r7, ror #14]!
     b78:	22084b32 	andcs	r4, r8, #51200	; 0xc800
     b7c:	135130c0 	cmpne	r1, #192	; 0xc0
     b80:	0330504e 	teqeq	r0, #78	; 0x4e
     b84:	9f31ba18 	svcls	0x0031ba18
     b88:	4d522f4c 	ldclmi	15, cr2, [r2, #-304]	; 0xfffffed0
     b8c:	674b2f4e 	strbvs	r2, [fp, -lr, asr #30]
     b90:	6767684b 	strbvs	r6, [r7, -fp, asr #16]!
     b94:	2f672f4c 	svccs	0x00672f4c
     b98:	4e4c6e4b 	cdpmi	14, 4, cr6, cr12, cr11, {2}
     b9c:	4b674b2f 	blmi	19d3860 <__bss_end__+0x19c93e8>
     ba0:	4c676768 	stclmi	7, cr6, [r7], #-416	; 0xfffffe60
     ba4:	4b2f672f 	blmi	bda868 <__bss_end__+0xbd03f0>
     ba8:	2f4e4b6d 	svccs	0x004e4b6d
     bac:	0200674b 	andeq	r6, r0, #19660800	; 0x12c0000
     bb0:	66060104 	strvs	r0, [r6], -r4, lsl #2
     bb4:	2f9f6806 	svccs	0x009f6806
     bb8:	01040200 	mrseq	r0, R12_usr
     bbc:	68064a06 	stmdavs	r6, {r1, r2, r9, fp, lr}
     bc0:	4a73032f 	bmi	1cc1884 <__bss_end__+0x1cb740c>
     bc4:	4d2e0e03 	stcmi	14, cr0, [lr, #-12]!
     bc8:	4b2f4e4c 	blmi	bd4500 <__bss_end__+0xbca088>
     bcc:	0602bcbc 			; <UNDEFINED> instruction: 0x0602bcbc
     bd0:	49010100 	stmdbmi	r1, {r8}
     bd4:	02000003 	andeq	r0, r0, #3
     bd8:	0001bd00 	andeq	fp, r1, r0, lsl #26
     bdc:	fb010200 	blx	413e6 <__bss_end__+0x36f6e>
     be0:	01000d0e 	tsteq	r0, lr, lsl #26
     be4:	00010101 	andeq	r0, r1, r1, lsl #2
     be8:	00010000 	andeq	r0, r1, r0
     bec:	796d0100 	stmdbvc	sp!, {r8}^
     bf0:	6372732d 	cmnvs	r2, #-1275068416	; 0xb4000000
     bf4:	73552f00 	cmpvc	r5, #0, 30
     bf8:	2f737265 	svccs	0x00737265
     bfc:	61697262 	cmnvs	r9, r2, ror #4
     c00:	6e756a6e 	vsubvs.f32	s13, s10, s29
     c04:	7365442f 	cmnvc	r5, #788529152	; 0x2f000000
     c08:	706f746b 	rsbvc	r7, pc, fp, ror #8
     c0c:	6863732f 	stmdavs	r3!, {r0, r1, r2, r3, r5, r8, r9, ip, sp, lr}^
     c10:	2f6c6f6f 	svccs	0x006c6f6f
     c14:	746e6957 	strbtvc	r6, [lr], #-2391	; 0x957
     c18:	39317265 	ldmdbcc	r1!, {r0, r2, r5, r6, r9, ip, sp, lr}
     c1c:	432f3032 	teqmi	pc, #50	; 0x32
     c20:	30343153 	eorscc	r3, r4, r3, asr r1
     c24:	73632f45 	cmnvc	r3, #276	; 0x114
     c28:	65303431 	ldrvs	r3, [r0, #-1073]!	; 0x431
     c2c:	7730322d 	ldrvc	r3, [r0, -sp, lsr #4]!
     c30:	6c2f6e69 	stcvs	14, cr6, [pc], #-420	; a94 <_start-0x756c>
     c34:	69706269 	ldmdbvs	r0!, {r0, r3, r5, r6, r9, sp, lr}^
     c38:	3173632f 	cmncc	r3, pc, lsr #6
     c3c:	2d653034 	stclcs	0, cr3, [r5, #-208]!	; 0xffffff30
     c40:	00637273 	rsbeq	r7, r3, r3, ror r2
     c44:	7273752f 	rsbsvc	r7, r3, #197132288	; 0xbc00000
     c48:	636f6c2f 	cmnvs	pc, #12032	; 0x2f00
     c4c:	432f6c61 	teqmi	pc, #24832	; 0x6100
     c50:	616c6c65 	cmnvs	ip, r5, ror #24
     c54:	72612f72 	rsbvc	r2, r1, #456	; 0x1c8
     c58:	6f6e2d6d 	svcvs	0x006e2d6d
     c5c:	652d656e 	strvs	r6, [sp, #-1390]!	; 0x56e
     c60:	2f696261 	svccs	0x00696261
     c64:	2e382e34 	mrccs	14, 1, r2, cr8, cr4, {1}
     c68:	73632d33 	cmnvc	r3, #3264	; 0xcc0
     c6c:	65303731 	ldrvs	r3, [r0, #-1841]!	; 0x731
     c70:	62696c2f 	rsbvs	r6, r9, #12032	; 0x2f00
     c74:	6363672f 	cmnvs	r3, #12320768	; 0xbc0000
     c78:	6d72612f 	ldfvse	f6, [r2, #-188]!	; 0xffffff44
     c7c:	6e6f6e2d 	cdpvs	14, 6, cr6, cr15, cr13, {1}
     c80:	61652d65 	cmnvs	r5, r5, ror #26
     c84:	342f6962 	strtcc	r6, [pc], #-2402	; c8c <_start-0x7374>
     c88:	332e382e 	teqcc	lr, #3014656	; 0x2e0000
     c8c:	636e692f 	cmnvs	lr, #770048	; 0xbc000
     c90:	6564756c 	strbvs	r7, [r4, #-1388]!	; 0x56c
     c94:	73552f00 	cmpvc	r5, #0, 30
     c98:	2f737265 	svccs	0x00737265
     c9c:	61697262 	cmnvs	r9, r2, ror #4
     ca0:	6e756a6e 	vsubvs.f32	s13, s10, s29
     ca4:	7365442f 	cmnvc	r5, #788529152	; 0x2f000000
     ca8:	706f746b 	rsbvc	r7, pc, fp, ror #8
     cac:	6863732f 	stmdavs	r3!, {r0, r1, r2, r3, r5, r8, r9, ip, sp, lr}^
     cb0:	2f6c6f6f 	svccs	0x006c6f6f
     cb4:	746e6957 	strbtvc	r6, [lr], #-2391	; 0x957
     cb8:	39317265 	ldmdbcc	r1!, {r0, r2, r5, r6, r9, ip, sp, lr}
     cbc:	432f3032 	teqmi	pc, #50	; 0x32
     cc0:	30343153 	eorscc	r3, r4, r3, asr r1
     cc4:	73632f45 	cmnvc	r3, #276	; 0x114
     cc8:	65303431 	ldrvs	r3, [r0, #-1073]!	; 0x431
     ccc:	7730322d 	ldrvc	r3, [r0, -sp, lsr #4]!
     cd0:	6c2f6e69 	stcvs	14, cr6, [pc], #-420	; b34 <_start-0x74cc>
     cd4:	69706269 	ldmdbvs	r0!, {r0, r3, r5, r6, r9, sp, lr}^
     cd8:	73552f00 	cmpvc	r5, #0, 30
     cdc:	2f737265 	svccs	0x00737265
     ce0:	61697262 	cmnvs	r9, r2, ror #4
     ce4:	6e756a6e 	vsubvs.f32	s13, s10, s29
     ce8:	7365442f 	cmnvc	r5, #788529152	; 0x2f000000
     cec:	706f746b 	rsbvc	r7, pc, fp, ror #8
     cf0:	6863732f 	stmdavs	r3!, {r0, r1, r2, r3, r5, r8, r9, ip, sp, lr}^
     cf4:	2f6c6f6f 	svccs	0x006c6f6f
     cf8:	746e6957 	strbtvc	r6, [lr], #-2391	; 0x957
     cfc:	39317265 	ldmdbcc	r1!, {r0, r2, r5, r6, r9, ip, sp, lr}
     d00:	432f3032 	teqmi	pc, #50	; 0x32
     d04:	30343153 	eorscc	r3, r4, r3, asr r1
     d08:	73632f45 	cmnvc	r3, #276	; 0x114
     d0c:	65303431 	ldrvs	r3, [r0, #-1073]!	; 0x431
     d10:	7730322d 	ldrvc	r3, [r0, -sp, lsr #4]!
     d14:	6c2f6e69 	stcvs	14, cr6, [pc], #-420	; b78 <_start-0x7488>
     d18:	69706269 	ldmdbvs	r0!, {r0, r3, r5, r6, r9, sp, lr}^
     d1c:	62696c2f 	rsbvs	r6, r9, #12032	; 0x2f00
     d20:	73000063 	movwvc	r0, #99	; 0x63
     d24:	61752d77 	cmnvs	r5, r7, ror sp
     d28:	632e7472 	teqvs	lr, #1912602624	; 0x72000000
     d2c:	00000100 	andeq	r0, r0, r0, lsl #2
     d30:	6c637963 	stclvs	9, cr7, [r3], #-396	; 0xfffffe74
     d34:	74752d65 	ldrbtvc	r2, [r5], #-3429	; 0xd65
     d38:	682e6c69 	stmdavs	lr!, {r0, r3, r5, r6, sl, fp, sp, lr}
     d3c:	00000200 	andeq	r0, r0, r0, lsl #4
     d40:	69647473 	stmdbvs	r4!, {r0, r1, r4, r5, r6, sl, ip, sp, lr}^
     d44:	672d746e 	strvs	r7, [sp, -lr, ror #8]!
     d48:	682e6363 	stmdavs	lr!, {r0, r1, r5, r6, r8, r9, sp, lr}
     d4c:	00000300 	andeq	r0, r0, r0, lsl #6
     d50:	752d7773 	strvc	r7, [sp, #-1907]!	; 0x773
     d54:	2e747261 	cdpcs	2, 7, cr7, cr4, cr1, {3}
     d58:	00020068 	andeq	r0, r2, r8, rrx
     d5c:	64747300 	ldrbtvs	r7, [r4], #-768	; 0x300
     d60:	2e677261 	cdpcs	2, 6, cr7, cr7, cr1, {3}
     d64:	00030068 	andeq	r0, r3, r8, rrx
     d68:	69706700 	ldmdbvs	r0!, {r8, r9, sl, sp, lr}^
     d6c:	00682e6f 	rsbeq	r2, r8, pc, ror #28
     d70:	72000002 	andvc	r0, r0, #2
     d74:	682e6970 	stmdavs	lr!, {r4, r5, r6, r8, fp, sp, lr}
     d78:	00000400 	andeq	r0, r0, r0, lsl #8
     d7c:	702d6176 	eorvc	r6, sp, r6, ror r1
     d80:	746e6972 	strbtvc	r6, [lr], #-2418	; 0x972
     d84:	00682e6b 	rsbeq	r2, r8, fp, ror #28
     d88:	3c000005 	stccc	0, cr0, [r0], {5}
     d8c:	6c697562 	cfstr64vs	mvdx7, [r9], #-392	; 0xfffffe78
     d90:	6e692d74 	mcrvs	13, 3, r2, cr9, cr4, {3}
     d94:	0000003e 	andeq	r0, r0, lr, lsr r0
     d98:	05000000 	streq	r0, [r0, #-0]
     d9c:	00944802 	addseq	r4, r4, r2, lsl #16
     da0:	2f4c1a00 	svccs	0x004c1a00
     da4:	03020430 	movweq	r0, #9264	; 0x2430
     da8:	73032e0b 	movwvc	r2, #15883	; 0x3e0b
     dac:	88010466 	stmdahi	r1, {r1, r2, r5, r6, sl}
     db0:	03350204 	teqeq	r5, #4, 4	; 0x40000000
     db4:	01046673 	tsteq	r4, r3, ror r6
     db8:	3302048a 	movwcc	r0, #9354	; 0x248a
     dbc:	04667303 	strbteq	r7, [r6], #-771	; 0x303
     dc0:	820a0301 	andhi	r0, sl, #67108864	; 0x4000000
     dc4:	03310204 	teqeq	r1, #4, 4	; 0x40000000
     dc8:	01046673 	tsteq	r4, r3, ror r6
     dcc:	04820c03 	streq	r0, [r2], #3075	; 0xc03
     dd0:	73032f02 	movwvc	r2, #16130	; 0x3f02
     dd4:	03010466 	movweq	r0, #5222	; 0x1466
     dd8:	0204820e 	andeq	r8, r4, #-536870912	; 0xe0000000
     ddc:	6673032d 	ldrbtvs	r0, [r3], -sp, lsr #6
     de0:	10030104 	andne	r0, r3, r4, lsl #2
     de4:	2b020482 	blcs	81ff4 <__bss_end__+0x77b7c>
     de8:	04667303 	strbteq	r7, [r6], #-771	; 0x303
     dec:	82120301 	andshi	r0, r2, #67108864	; 0x4000000
     df0:	03290204 	teqeq	r9, #4, 4	; 0x40000000
     df4:	01046673 	tsteq	r4, r3, ror r6
     df8:	04821403 	streq	r1, [r2], #1027	; 0x403
     dfc:	2e790302 	cdpcs	3, 7, cr0, cr9, cr2, {0}
     e00:	04667303 	strbteq	r7, [r6], #-771	; 0x303
     e04:	82160301 	andshi	r0, r6, #67108864	; 0x4000000
     e08:	77030204 	strvc	r0, [r3, -r4, lsl #4]
     e0c:	6673032e 	ldrbtvs	r0, [r3], -lr, lsr #6
     e10:	18030104 	stmdane	r3, {r2, r8}
     e14:	2e100382 	cdpcs	3, 1, cr0, cr0, cr2, {4}
     e18:	70034d4b 	andvc	r4, r3, fp, asr #26
     e1c:	83844c2e 	orrhi	r4, r4, #11776	; 0x2e00
     e20:	2e0d0348 	cdpcs	3, 0, cr0, cr13, cr8, {2}
     e24:	0433314e 	ldrteq	r3, [r3], #-334	; 0x14e
     e28:	2e480302 	cdpcs	3, 4, cr0, cr8, cr2, {0}
     e2c:	3a030104 	bcc	c1244 <__bss_end__+0xb6dcc>
     e30:	02042f82 	andeq	r2, r4, #520	; 0x208
     e34:	04664503 	strbteq	r4, [r6], #-1283	; 0x503
     e38:	823d0301 	eorshi	r0, sp, #67108864	; 0x4000000
     e3c:	0302042f 	movweq	r0, #9263	; 0x242f
     e40:	01048242 	tsteq	r4, r2, asr #4
     e44:	8200c003 	andhi	ip, r0, #3
     e48:	0302042f 	movweq	r0, #9263	; 0x242f
     e4c:	04827fbf 	streq	r7, [r2], #4031	; 0xfbf
     e50:	00c30301 	sbceq	r0, r3, r1, lsl #6
     e54:	02042f82 	andeq	r2, r4, #520	; 0x208
     e58:	827fbc03 	rsbshi	fp, pc, #768	; 0x300
     e5c:	c6030104 	strgt	r0, [r3], -r4, lsl #2
     e60:	042f8200 	strteq	r8, [pc], #-512	; e68 <_start-0x7198>
     e64:	7fb90302 	svcvc	0x00b90302
     e68:	03010482 	movweq	r0, #5250	; 0x1482
     e6c:	2f8200c9 	svccs	0x008200c9
     e70:	b6030204 	strlt	r0, [r3], -r4, lsl #4
     e74:	0104827f 	tsteq	r4, pc, ror r2
     e78:	8200cc03 	andhi	ip, r0, #768	; 0x300
     e7c:	0302042f 	movweq	r0, #9263	; 0x242f
     e80:	04827fb3 	streq	r7, [r2], #4019	; 0xfb3
     e84:	00d00301 	sbcseq	r0, r0, r1, lsl #6
     e88:	824c0382 	subhi	r0, ip, #134217730	; 0x8000002
     e8c:	4883844c 	stmmi	r3, {r2, r3, r6, sl, pc}
     e90:	4e2e3603 	cfmadda32mi	mvax0, mvax3, mvfx14, mvfx3
     e94:	034a5403 	movteq	r5, #41987	; 0xa403
     e98:	34324a29 	ldrtcc	r4, [r2], #-2601	; 0xa29
     e9c:	040200bb 	streq	r0, [r2], #-187	; 0xbb
     ea0:	064a0601 	strbeq	r0, [sl], -r1, lsl #12
     ea4:	4b4e2108 	blmi	13892cc <__bss_end__+0x137ee54>
     ea8:	02002cbb 	andeq	r2, r0, #47872	; 0xbb00
     eac:	2e060104 	adfcss	f0, f6, f4
     eb0:	dc4c6d06 	mcrrle	13, 0, r6, ip, cr6
     eb4:	040200a0 	streq	r0, [r2], #-160	; 0xa0
     eb8:	064a0601 	strbeq	r0, [sl], -r1, lsl #12
     ebc:	004d2108 	subeq	r2, sp, r8, lsl #2
     ec0:	4b020402 	blmi	81ed0 <__bss_end__+0x77a58>
     ec4:	02040200 	andeq	r0, r4, #0, 4
     ec8:	04020081 	streq	r0, [r2], #-129	; 0x81
     ecc:	062e0601 	strteq	r0, [lr], -r1, lsl #12
     ed0:	d8dd4c4d 	ldmle	sp, {r0, r2, r3, r6, sl, fp, lr}^
     ed4:	6a4b4b4b 	bvs	12d3c08 <__bss_end__+0x12c9790>
     ed8:	0402002f 	streq	r0, [r2], #-47	; 0x2f
     edc:	82820601 	addhi	r0, r2, #1048576	; 0x100000
     ee0:	04040200 	streq	r0, [r4], #-512	; 0x200
     ee4:	0402009e 	streq	r0, [r2], #-158	; 0x9e
     ee8:	08064a01 	stmdaeq	r6, {r0, r9, fp, lr}
     eec:	2ff58823 	svccs	0x00f58823
     ef0:	40084b4b 	andmi	r4, r8, fp, asr #22
     ef4:	04020067 	streq	r0, [r2], #-103	; 0x67
     ef8:	02002f02 	andeq	r2, r0, #2, 30
     efc:	00490204 	subeq	r0, r9, r4, lsl #4
     f00:	06010402 	streq	r0, [r1], -r2, lsl #8
     f04:	3468062e 	strbtcc	r0, [r8], #-1582	; 0x62e
     f08:	00a04b86 	adceq	r4, r0, r6, lsl #23
     f0c:	06010402 	streq	r0, [r1], -r2, lsl #8
     f10:	21080666 	tstcs	r8, r6, ror #12
     f14:	4b3e0868 	blmi	f830bc <__bss_end__+0xf78c44>
     f18:	02d84b67 	sbcseq	r4, r8, #105472	; 0x19c00
     f1c:	0101000a 	tsteq	r1, sl
     f20:	00000101 	andeq	r0, r0, r1, lsl #2
     f24:	00ca0002 	sbceq	r0, sl, r2
     f28:	01020000 	mrseq	r0, (UNDEF: 2)
     f2c:	000d0efb 	strdeq	r0, [sp], -fp
     f30:	01010101 	tsteq	r1, r1, lsl #2
     f34:	01000000 	mrseq	r0, (UNDEF: 0)
     f38:	6d010000 	stcvs	0, cr0, [r1, #-0]
     f3c:	72732d79 	rsbsvc	r2, r3, #7744	; 0x1e40
     f40:	552f0063 	strpl	r0, [pc, #-99]!	; ee5 <_start-0x711b>
     f44:	73726573 	cmnvc	r2, #482344960	; 0x1cc00000
     f48:	6972622f 	ldmdbvs	r2!, {r0, r1, r2, r3, r5, r9, sp, lr}^
     f4c:	756a6e61 	strbvc	r6, [sl, #-3681]!	; 0xe61
     f50:	65442f6e 	strbvs	r2, [r4, #-3950]	; 0xf6e
     f54:	6f746b73 	svcvs	0x00746b73
     f58:	63732f70 	cmnvs	r3, #112, 30	; 0x1c0
     f5c:	6c6f6f68 	stclvs	15, cr6, [pc], #-416	; dc4 <_start-0x723c>
     f60:	6e69572f 	cdpvs	7, 6, cr5, cr9, cr15, {1}
     f64:	31726574 	cmncc	r2, r4, ror r5
     f68:	2f303239 	svccs	0x00303239
     f6c:	34315343 	ldrtcc	r5, [r1], #-835	; 0x343
     f70:	632f4530 	teqvs	pc, #48, 10	; 0xc000000
     f74:	30343173 	eorscc	r3, r4, r3, ror r1
     f78:	30322d65 	eorscc	r2, r2, r5, ror #26
     f7c:	2f6e6977 	svccs	0x006e6977
     f80:	7062696c 	rsbvc	r6, r2, ip, ror #18
     f84:	73632f69 	cmnvc	r3, #420	; 0x1a4
     f88:	65303431 	ldrvs	r3, [r0, #-1073]!	; 0x431
     f8c:	6372732d 	cmnvs	r2, #-1275068416	; 0xb4000000
     f90:	73552f00 	cmpvc	r5, #0, 30
     f94:	2f737265 	svccs	0x00737265
     f98:	61697262 	cmnvs	r9, r2, ror #4
     f9c:	6e756a6e 	vsubvs.f32	s13, s10, s29
     fa0:	7365442f 	cmnvc	r5, #788529152	; 0x2f000000
     fa4:	706f746b 	rsbvc	r7, pc, fp, ror #8
     fa8:	6863732f 	stmdavs	r3!, {r0, r1, r2, r3, r5, r8, r9, ip, sp, lr}^
     fac:	2f6c6f6f 	svccs	0x006c6f6f
     fb0:	746e6957 	strbtvc	r6, [lr], #-2391	; 0x957
     fb4:	39317265 	ldmdbcc	r1!, {r0, r2, r5, r6, r9, ip, sp, lr}
     fb8:	432f3032 	teqmi	pc, #50	; 0x32
     fbc:	30343153 	eorscc	r3, r4, r3, asr r1
     fc0:	73632f45 	cmnvc	r3, #276	; 0x114
     fc4:	65303431 	ldrvs	r3, [r0, #-1073]!	; 0x431
     fc8:	7730322d 	ldrvc	r3, [r0, -sp, lsr #4]!
     fcc:	6c2f6e69 	stcvs	14, cr6, [pc], #-420	; e30 <_start-0x71d0>
     fd0:	69706269 	ldmdbvs	r0!, {r0, r3, r5, r6, r9, sp, lr}^
     fd4:	61750000 	cmnvs	r5, r0
     fd8:	632e7472 	teqvs	lr, #1912602624	; 0x72000000
     fdc:	00000100 	andeq	r0, r0, r0, lsl #2
     fe0:	6f697067 	svcvs	0x00697067
     fe4:	0200682e 	andeq	r6, r0, #3014656	; 0x2e0000
     fe8:	70720000 	rsbsvc	r0, r2, r0
     fec:	00682e69 	rsbeq	r2, r8, r9, ror #28
     ff0:	00000003 	andeq	r0, r0, r3
     ff4:	b0020500 	andlt	r0, r2, r0, lsl #10
     ff8:	0300009a 	movweq	r0, #154	; 0x9a
     ffc:	33300136 	teqcc	r0, #-2147483635	; 0x8000000d
    1000:	d8306d67 	ldmdale	r0!, {r0, r1, r2, r5, r6, r8, sl, fp, sp, lr}
    1004:	67676730 			; <UNDEFINED> instruction: 0x67676730
    1008:	86686767 	strbthi	r6, [r8], -r7, ror #14
    100c:	306a672f 	rsbcc	r6, sl, pc, lsr #14
    1010:	2f696767 	svccs	0x00696767
    1014:	674c6a67 	strbvs	r6, [ip, -r7, ror #20]
    1018:	302f2fc1 	eorcc	r2, pc, r1, asr #31
    101c:	3049682f 	subcc	r6, r9, pc, lsr #16
    1020:	01000202 	tsteq	r0, r2, lsl #4
    1024:	00012801 	andeq	r2, r1, r1, lsl #16
    1028:	0d000200 	sfmeq	f0, 4, [r0, #-0]
    102c:	02000001 	andeq	r0, r0, #1
    1030:	0d0efb01 	vstreq	d15, [lr, #-4]
    1034:	01010100 	mrseq	r0, (UNDEF: 17)
    1038:	00000001 	andeq	r0, r0, r1
    103c:	01000001 	tsteq	r0, r1
    1040:	34317363 	ldrtcc	r7, [r1], #-867	; 0x363
    1044:	732d6530 	teqvc	sp, #48, 10	; 0xc000000
    1048:	2f006372 	svccs	0x00006372
    104c:	2f727375 	svccs	0x00727375
    1050:	61636f6c 	cmnvs	r3, ip, ror #30
    1054:	65432f6c 	strbvs	r2, [r3, #-3948]	; 0xf6c
    1058:	72616c6c 	rsbvc	r6, r1, #108, 24	; 0x6c00
    105c:	6d72612f 	ldfvse	f6, [r2, #-188]!	; 0xffffff44
    1060:	6e6f6e2d 	cdpvs	14, 6, cr6, cr15, cr13, {1}
    1064:	61652d65 	cmnvs	r5, r5, ror #26
    1068:	342f6962 	strtcc	r6, [pc], #-2402	; 1070 <_start-0x6f90>
    106c:	332e382e 	teqcc	lr, #3014656	; 0x2e0000
    1070:	3173632d 	cmncc	r3, sp, lsr #6
    1074:	2f653037 	svccs	0x00653037
    1078:	2f62696c 	svccs	0x0062696c
    107c:	2f636367 	svccs	0x00636367
    1080:	2d6d7261 	sfmcs	f7, 2, [sp, #-388]!	; 0xfffffe7c
    1084:	656e6f6e 	strbvs	r6, [lr, #-3950]!	; 0xf6e
    1088:	6261652d 	rsbvs	r6, r1, #188743680	; 0xb400000
    108c:	2e342f69 	cdpcs	15, 3, cr2, cr4, cr9, {3}
    1090:	2f332e38 	svccs	0x00332e38
    1094:	6c636e69 	stclvs	14, cr6, [r3], #-420	; 0xfffffe5c
    1098:	00656475 	rsbeq	r6, r5, r5, ror r4
    109c:	7273752f 	rsbsvc	r7, r3, #197132288	; 0xbc00000
    10a0:	636f6c2f 	cmnvs	pc, #12032	; 0x2f00
    10a4:	432f6c61 	teqmi	pc, #24832	; 0x6100
    10a8:	616c6c65 	cmnvs	ip, r5, ror #24
    10ac:	72612f72 	rsbvc	r2, r1, #456	; 0x1c8
    10b0:	6f6e2d6d 	svcvs	0x006e2d6d
    10b4:	652d656e 	strvs	r6, [sp, #-1390]!	; 0x56e
    10b8:	2f696261 	svccs	0x00696261
    10bc:	2e382e34 	mrccs	14, 1, r2, cr8, cr4, {1}
    10c0:	73632d33 	cmnvc	r3, #3264	; 0xcc0
    10c4:	65303731 	ldrvs	r3, [r0, #-1841]!	; 0x731
    10c8:	6d72612f 	ldfvse	f6, [r2, #-188]!	; 0xffffff44
    10cc:	6e6f6e2d 	cdpvs	14, 6, cr6, cr15, cr13, {1}
    10d0:	61652d65 	cmnvs	r5, r5, ror #26
    10d4:	692f6962 	stmdbvs	pc!, {r1, r5, r6, r8, fp, sp, lr}	; <UNPREDICTABLE>
    10d8:	756c636e 	strbvc	r6, [ip, #-878]!	; 0x36e
    10dc:	00006564 	andeq	r6, r0, r4, ror #10
    10e0:	746e6f63 	strbtvc	r6, [lr], #-3939	; 0xf63
    10e4:	2d6c6f72 	stclcs	15, cr6, [ip, #-456]!	; 0xfffffe38
    10e8:	636f6c62 	cmnvs	pc, #25088	; 0x6200
    10ec:	00632e6b 	rsbeq	r2, r3, fp, ror #28
    10f0:	73000001 	movwvc	r0, #1
    10f4:	65646474 	strbvs	r6, [r4, #-1140]!	; 0x474
    10f8:	00682e66 	rsbeq	r2, r8, r6, ror #28
    10fc:	73000002 	movwvc	r0, #2
    1100:	6e696474 	mcrvs	4, 3, r6, cr9, cr4, {3}
    1104:	63672d74 	cmnvs	r7, #116, 26	; 0x1d00
    1108:	00682e63 	rsbeq	r2, r8, r3, ror #28
    110c:	73000002 	movwvc	r0, #2
    1110:	61752d77 	cmnvs	r5, r7, ror sp
    1114:	682e7472 	stmdavs	lr!, {r1, r4, r5, r6, sl, ip, sp, lr}
    1118:	00000100 	andeq	r0, r0, r0, lsl #2
    111c:	746e6f63 	strbtvc	r6, [lr], #-3939	; 0xf63
    1120:	2d6c6f72 	stclcs	15, cr6, [ip, #-456]!	; 0xfffffe38
    1124:	636f6c62 	cmnvs	pc, #25088	; 0x6200
    1128:	00682e6b 	rsbeq	r2, r8, fp, ror #28
    112c:	73000001 	movwvc	r0, #1
    1130:	6e697274 	mcrvs	2, 3, r7, cr9, cr4, {3}
    1134:	00682e67 	rsbeq	r2, r8, r7, ror #28
    1138:	00000003 	andeq	r0, r0, r3
    113c:	68020500 	stmdavs	r2, {r8, sl}
    1140:	1600009c 			; <UNDEFINED> instruction: 0x1600009c
    1144:	4c688330 	stclmi	3, cr8, [r8], #-192	; 0xffffff40
    1148:	2f4b9f14 	svccs	0x004b9f14
    114c:	01000402 	tsteq	r0, r2, lsl #8
    1150:	0000ec01 	andeq	lr, r0, r1, lsl #24
    1154:	d0000200 	andle	r0, r0, r0, lsl #4
    1158:	02000000 	andeq	r0, r0, #0
    115c:	0d0efb01 	vstreq	d15, [lr, #-4]
    1160:	01010100 	mrseq	r0, (UNDEF: 17)
    1164:	00000001 	andeq	r0, r0, r1
    1168:	01000001 	tsteq	r0, r1
    116c:	6362696c 	cmnvs	r2, #108, 18	; 0x1b0000
    1170:	73752f00 	cmnvc	r5, #0, 30
    1174:	6f6c2f72 	svcvs	0x006c2f72
    1178:	2f6c6163 	svccs	0x006c6163
    117c:	6c6c6543 	cfstr64vs	mvdx6, [ip], #-268	; 0xfffffef4
    1180:	612f7261 	teqvs	pc, r1, ror #4
    1184:	6e2d6d72 	mcrvs	13, 1, r6, cr13, cr2, {3}
    1188:	2d656e6f 	stclcs	14, cr6, [r5, #-444]!	; 0xfffffe44
    118c:	69626165 	stmdbvs	r2!, {r0, r2, r5, r6, r8, sp, lr}^
    1190:	382e342f 	stmdacc	lr!, {r0, r1, r2, r3, r5, sl, ip, sp}
    1194:	632d332e 	teqvs	sp, #-1207959552	; 0xb8000000
    1198:	30373173 	eorscc	r3, r7, r3, ror r1
    119c:	696c2f65 	stmdbvs	ip!, {r0, r2, r5, r6, r8, r9, sl, fp, sp}^
    11a0:	63672f62 	cmnvs	r7, #392	; 0x188
    11a4:	72612f63 	rsbvc	r2, r1, #396	; 0x18c
    11a8:	6f6e2d6d 	svcvs	0x006e2d6d
    11ac:	652d656e 	strvs	r6, [sp, #-1390]!	; 0x56e
    11b0:	2f696261 	svccs	0x00696261
    11b4:	2e382e34 	mrccs	14, 1, r2, cr8, cr4, {1}
    11b8:	6e692f33 	mcrvs	15, 3, r2, cr9, cr3, {1}
    11bc:	64756c63 	ldrbtvs	r6, [r5], #-3171	; 0xc63
    11c0:	752f0065 	strvc	r0, [pc, #-101]!	; 1163 <_start-0x6e9d>
    11c4:	6c2f7273 	sfmvs	f7, 4, [pc], #-460	; 1000 <_start-0x7000>
    11c8:	6c61636f 	stclvs	3, cr6, [r1], #-444	; 0xfffffe44
    11cc:	6c65432f 	stclvs	3, cr4, [r5], #-188	; 0xffffff44
    11d0:	2f72616c 	svccs	0x0072616c
    11d4:	2d6d7261 	sfmcs	f7, 2, [sp, #-388]!	; 0xfffffe7c
    11d8:	656e6f6e 	strbvs	r6, [lr, #-3950]!	; 0xf6e
    11dc:	6261652d 	rsbvs	r6, r1, #188743680	; 0xb400000
    11e0:	2e342f69 	cdpcs	15, 3, cr2, cr4, cr9, {3}
    11e4:	2d332e38 	ldccs	14, cr2, [r3, #-224]!	; 0xffffff20
    11e8:	37317363 	ldrcc	r7, [r1, -r3, ror #6]!
    11ec:	612f6530 	teqvs	pc, r0, lsr r5	; <UNPREDICTABLE>
    11f0:	6e2d6d72 	mcrvs	13, 1, r6, cr13, cr2, {3}
    11f4:	2d656e6f 	stclcs	14, cr6, [r5, #-444]!	; 0xfffffe44
    11f8:	69626165 	stmdbvs	r2!, {r0, r2, r5, r6, r8, sp, lr}^
    11fc:	636e692f 	cmnvs	lr, #770048	; 0xbc000
    1200:	6564756c 	strbvs	r7, [r4, #-1388]!	; 0x56c
    1204:	656d0000 	strbvs	r0, [sp, #-0]!
    1208:	7465736d 	strbtvc	r7, [r5], #-877	; 0x36d
    120c:	0100632e 	tsteq	r0, lr, lsr #6
    1210:	74730000 	ldrbtvc	r0, [r3], #-0
    1214:	66656464 	strbtvs	r6, [r5], -r4, ror #8
    1218:	0200682e 	andeq	r6, r0, #3014656	; 0x2e0000
    121c:	74730000 	ldrbtvc	r0, [r3], #-0
    1220:	676e6972 			; <UNDEFINED> instruction: 0x676e6972
    1224:	0300682e 	movweq	r6, #2094	; 0x82e
    1228:	00000000 	andeq	r0, r0, r0
    122c:	9cb80205 	lfmls	f0, 4, [r8], #20
    1230:	13140000 	tstne	r4, #0
    1234:	02002f4c 	andeq	r2, r0, #76, 30	; 0x130
    1238:	4d490104 	stfmie	f0, [r9, #-16]
    123c:	01000202 	tsteq	r0, r2, lsl #4
    1240:	Address 0x0000000000001240 is out of bounds.


Disassembly of section .debug_str:

00000000 <.debug_str>:
   0:	53465047 	movtpl	r5, #24647	; 0x6047
   4:	00324c45 	eorseq	r4, r2, r5, asr #24
   8:	53465047 	movtpl	r5, #24647	; 0x6047
   c:	00344c45 	eorseq	r4, r4, r5, asr #24
  10:	30746962 	rsbscc	r6, r4, r2, ror #18
  14:	74696200 	strbtvc	r6, [r9], #-512	; 0x200
  18:	69620031 	stmdbvs	r2!, {r0, r4, r5}^
  1c:	62003274 	andvs	r3, r0, #116, 4	; 0x40000007
  20:	00337469 	eorseq	r7, r3, r9, ror #8
  24:	74736166 	ldrbtvc	r6, [r3], #-358	; 0x166
  28:	6970675f 	ldmdbvs	r0!, {r0, r1, r2, r3, r4, r6, r8, r9, sl, sp, lr}^
  2c:	72775f6f 	rsbsvc	r5, r7, #444	; 0x1bc
  30:	00657469 	rsbeq	r7, r5, r9, ror #8
  34:	35746962 	ldrbcc	r6, [r4, #-2402]!	; 0x962
  38:	74696200 	strbtvc	r6, [r9], #-512	; 0x200
  3c:	69620036 	stmdbvs	r2!, {r1, r2, r4, r5}^
  40:	6c003774 	stcvs	7, cr3, [r0], {116}	; 0x74
  44:	20676e6f 	rsbcs	r6, r7, pc, ror #28
  48:	676e6f6c 	strbvs	r6, [lr, -ip, ror #30]!
  4c:	736e7520 	cmnvc	lr, #32, 10	; 0x8000000
  50:	656e6769 	strbvs	r6, [lr, #-1897]!	; 0x769
  54:	6e692064 	cdpvs	0, 6, cr2, cr9, cr4, {3}
  58:	61660074 	smcvs	24580	; 0x6004
  5c:	675f7473 			; <UNDEFINED> instruction: 0x675f7473
  60:	5f6f6970 	svcpl	0x006f6970
  64:	5f746573 	svcpl	0x00746573
  68:	73006e6f 	movwvc	r6, #3695	; 0xe6f
  6c:	65767265 	ldrbvs	r7, [r6, #-613]!	; 0x265
  70:	69620072 	stmdbvs	r2!, {r1, r4, r5, r6}^
  74:	6c003474 	cfstrsvs	mvf3, [r0], {116}	; 0x74
  78:	20676e6f 	rsbcs	r6, r7, pc, ror #28
  7c:	676e6f6c 	strbvs	r6, [lr, -ip, ror #30]!
  80:	746e6920 	strbtvc	r6, [lr], #-2336	; 0x920
  84:	79636e00 	stmdbvc	r3!, {r9, sl, fp, sp, lr}^
  88:	00656c63 	rsbeq	r6, r5, r3, ror #24
  8c:	45535047 	ldrbmi	r5, [r3, #-71]	; 0x47
  90:	47003054 	smlsdmi	r0, r4, r0, r3
  94:	54455350 	strbpl	r5, [r5], #-848	; 0x350
  98:	50470031 	subpl	r0, r7, r1, lsr r0
  9c:	3056454c 	subscc	r4, r6, ip, asr #10
  a0:	4c504700 	mrrcmi	7, 0, r4, r0, cr0
  a4:	00315645 	eorseq	r5, r1, r5, asr #12
  a8:	74736574 	ldrbtvc	r6, [r3], #-1396	; 0x574
  ac:	6e65675f 	mcrvs	7, 3, r6, cr5, cr15, {2}
  b0:	746f6e00 	strbtvc	r6, [pc], #-3584	; b8 <_start-0x7f48>
  b4:	6e69616d 	powvsez	f6, f1, #5.0
  b8:	73616600 	cmnvc	r1, #0, 12
  bc:	70675f74 	rsbvc	r5, r7, r4, ror pc
  c0:	735f6f69 	cmpvc	pc, #420	; 0x1a4
  c4:	6f5f7465 	svcvs	0x005f7465
  c8:	47006666 	strmi	r6, [r0, -r6, ror #12]
  cc:	4320554e 	teqmi	r0, #327155712	; 0x13800000
  d0:	382e3420 	stmdacc	lr!, {r5, sl, ip, sp}
  d4:	2d20332e 	stccs	3, cr3, [r0, #-184]!	; 0xffffff48
  d8:	7570636d 	ldrbvc	r6, [r0, #-877]!	; 0x36d
  dc:	6d72613d 	ldfvse	f6, [r2, #-244]!	; 0xffffff0c
  e0:	36373131 			; <UNDEFINED> instruction: 0x36373131
  e4:	2d667a6a 	vstmdbcs	r6!, {s15-s120}
  e8:	6d2d2073 	stcvs	0, cr2, [sp, #-460]!	; 0xfffffe34
  ec:	656e7574 	strbvs	r7, [lr, #-1396]!	; 0x574
  f0:	6d72613d 	ldfvse	f6, [r2, #-244]!	; 0xffffff0c
  f4:	36373131 			; <UNDEFINED> instruction: 0x36373131
  f8:	2d667a6a 	vstmdbcs	r6!, {s15-s120}
  fc:	672d2073 			; <UNDEFINED> instruction: 0x672d2073
 100:	20626467 	rsbcs	r6, r2, r7, ror #8
 104:	20334f2d 	eorscs	r4, r3, sp, lsr #30
 108:	6474732d 	ldrbtvs	r7, [r4], #-813	; 0x32d
 10c:	756e673d 	strbvc	r6, [lr, #-1853]!	; 0x73d
 110:	2d203939 	stccs	9, cr3, [r0, #-228]!	; 0xffffff1c
 114:	65726666 	ldrbvs	r6, [r2, #-1638]!	; 0x666
 118:	61747365 	cmnvs	r4, r5, ror #6
 11c:	6e69646e 	cdpvs	4, 6, cr6, cr9, cr14, {3}
 120:	6c630067 	stclvs	0, cr0, [r3], #-412	; 0xfffffe64
 124:	746e6569 	strbtvc	r6, [lr], #-1385	; 0x569
 128:	6d657400 	cfstrdvs	mvd7, [r5, #-0]
 12c:	70720070 	rsbsvc	r0, r2, r0, ror r0
 130:	65725f69 	ldrbvs	r5, [r2, #-3945]!	; 0xf69
 134:	5f746573 	svcpl	0x00746573
 138:	63747570 	cmnvs	r4, #112, 10	; 0x1c000000
 13c:	46504700 	ldrbmi	r4, [r0], -r0, lsl #14
 140:	304c4553 	subcc	r4, ip, r3, asr r5
 144:	46504700 	ldrbmi	r4, [r0], -r0, lsl #14
 148:	314c4553 	cmpcc	ip, r3, asr r5
 14c:	46504700 	ldrbmi	r4, [r0], -r0, lsl #14
 150:	334c4553 	movtcc	r4, #50515	; 0xc553
 154:	70786500 	rsbsvc	r6, r8, r0, lsl #10
 158:	65746365 	ldrbvs	r6, [r4, #-869]!	; 0x365
 15c:	50470064 	subpl	r0, r7, r4, rrx
 160:	4c455346 	mcrrmi	3, 4, r5, r5, cr6
 164:	75630035 	strbvc	r0, [r3, #-53]!	; 0x35
 168:	765f7272 			; <UNDEFINED> instruction: 0x765f7272
 16c:	65756c61 	ldrbvs	r6, [r5, #-3169]!	; 0xc61
 170:	465f5f00 	ldrbmi	r5, [pc], -r0, lsl #30
 174:	54434e55 	strbpl	r4, [r3], #-3669	; 0xe55
 178:	5f4e4f49 	svcpl	0x004e4f49
 17c:	6873005f 	ldmdavs	r3!, {r0, r1, r2, r3, r4, r6}^
 180:	2074726f 	rsbscs	r7, r4, pc, ror #4
 184:	69736e75 	ldmdbvs	r3!, {r0, r2, r4, r5, r6, r9, sl, fp, sp, lr}^
 188:	64656e67 	strbtvs	r6, [r5], #-3687	; 0xe67
 18c:	746e6920 	strbtvc	r6, [lr], #-2336	; 0x920
 190:	69706700 	ldmdbvs	r0!, {r8, r9, sl, sp, lr}^
 194:	73665f6f 	cmnvc	r6, #444	; 0x1bc
 198:	00306c65 	eorseq	r6, r0, r5, ror #24
 19c:	4c435047 	mcrrmi	0, 4, r5, r3, cr7
 1a0:	67003152 	smlsdvs	r0, r2, r1, r3
 1a4:	5f6f6970 	svcpl	0x006f6970
 1a8:	64616572 	strbtvs	r6, [r1], #-1394	; 0x572
 1ac:	656c6300 	strbvs	r6, [ip, #-768]!	; 0x300
 1b0:	725f6e61 	subsvc	r6, pc, #1552	; 0x610
 1b4:	6f6f6265 	svcvs	0x006f6265
 1b8:	65720074 	ldrbvs	r0, [r2, #-116]!	; 0x74
 1bc:	00796c70 	rsbseq	r6, r9, r0, ror ip
 1c0:	657a6973 	ldrbvs	r6, [sl, #-2419]!	; 0x973
 1c4:	65707974 	ldrbvs	r7, [r0, #-2420]!	; 0x974
 1c8:	73552f00 	cmpvc	r5, #0, 30
 1cc:	2f737265 	svccs	0x00737265
 1d0:	61697262 	cmnvs	r9, r2, ror #4
 1d4:	6e756a6e 	vsubvs.f32	s13, s10, s29
 1d8:	7365442f 	cmnvc	r5, #788529152	; 0x2f000000
 1dc:	706f746b 	rsbvc	r7, pc, fp, ror #8
 1e0:	6863732f 	stmdavs	r3!, {r0, r1, r2, r3, r5, r8, r9, ip, sp, lr}^
 1e4:	2f6c6f6f 	svccs	0x006c6f6f
 1e8:	69727053 	ldmdbvs	r2!, {r0, r1, r4, r6, ip, sp, lr}^
 1ec:	3931676e 	ldmdbcc	r1!, {r1, r2, r3, r5, r6, r8, r9, sl, sp, lr}
 1f0:	432f3032 	teqmi	pc, #50	; 0x32
 1f4:	30343253 	eorscc	r3, r4, r3, asr r2
 1f8:	632f584c 	teqvs	pc, #76, 16	; 0x4c0000
 1fc:	30343273 	eorscc	r3, r4, r3, ror r2
 200:	322d786c 	eorcc	r7, sp, #108, 16	; 0x6c0000
 204:	72707330 	rsbsvc	r7, r0, #48, 6	; 0xc0000000
 208:	62616c2f 	rsbvs	r6, r1, #12032	; 0x2f00
 20c:	2d342f73 	ldccs	15, cr2, [r4, #-460]!	; 0xfffffe34
 210:	74726175 	ldrbtvc	r6, [r2], #-373	; 0x175
 214:	316e382d 	cmncc	lr, sp, lsr #16
 218:	6f63732f 	svcvs	0x0063732f
 21c:	5f006570 	svcpl	0x00006570
 220:	0074756f 	rsbseq	r7, r4, pc, ror #10
 224:	69736e75 	ldmdbvs	r3!, {r0, r2, r4, r5, r6, r9, sl, fp, sp, lr}^
 228:	64656e67 	strbtvs	r6, [r5], #-3687	; 0xe67
 22c:	61686320 	cmnvs	r8, r0, lsr #6
 230:	68730072 	ldmdavs	r3!, {r1, r4, r5, r6}^
 234:	2074726f 	rsbscs	r7, r4, pc, ror #4
 238:	00746e69 	rsbseq	r6, r4, r9, ror #28
 23c:	4c435047 	mcrrmi	0, 4, r5, r3, cr7
 240:	64003052 	strvs	r3, [r0], #-82	; 0x52
 244:	79616c65 	stmdbvc	r1!, {r0, r2, r5, r6, sl, fp, sp, lr}^
 248:	00736d5f 	rsbseq	r6, r3, pc, asr sp
 24c:	6c637963 	stclvs	9, cr7, [r3], #-396	; 0xfffffe74
 250:	705f7365 	subsvc	r7, pc, r5, ror #6
 254:	735f7265 	cmpvc	pc, #1342177286	; 0x50000006
 258:	67006365 	strvs	r6, [r0, -r5, ror #6]
 25c:	5f6f6970 	svcpl	0x006f6970
 260:	30746573 	rsbscc	r6, r4, r3, ror r5
 264:	72696600 	rsbvc	r6, r9, #0, 12
 268:	67007473 	smlsdxvs	r0, r3, r4, r7
 26c:	5f6f6970 	svcpl	0x006f6970
 270:	5f746573 	svcpl	0x00746573
 274:	75706e69 	ldrbvc	r6, [r0, #-3689]!	; 0xe69
 278:	616c0074 	smcvs	49156	; 0xc004
 27c:	67007473 	smlsdxvs	r0, r3, r4, r7
 280:	5f6f6970 	svcpl	0x006f6970
 284:	5f746573 	svcpl	0x00746573
 288:	7074756f 	rsbsvc	r7, r4, pc, ror #10
 28c:	65007475 	strvs	r7, [r0, #-1141]	; 0x475
 290:	6c62616e 	stfvse	f6, [r2], #-440	; 0xfffffe48
 294:	61635f65 	cmnvs	r3, r5, ror #30
 298:	00656863 	rsbeq	r6, r5, r3, ror #16
 29c:	746e6975 	strbtvc	r6, [lr], #-2421	; 0x975
 2a0:	00745f38 	rsbseq	r5, r4, r8, lsr pc
 2a4:	6f697067 	svcvs	0x00697067
 2a8:	726c635f 	rsbvc	r6, ip, #2080374785	; 0x7c000001
 2ac:	63730030 	cmnvs	r3, #48	; 0x30
 2b0:	2e65706f 	cdpcs	0, 6, cr7, cr5, cr15, {3}
 2b4:	5f5f0063 	svcpl	0x005f0063
 2b8:	63756e67 	cmnvs	r5, #1648	; 0x670
 2bc:	5f61765f 	svcpl	0x0061765f
 2c0:	7473696c 	ldrbtvc	r6, [r3], #-2412	; 0x96c
 2c4:	62696c00 	rsbvs	r6, r9, #0, 24
 2c8:	72702f63 	rsbsvc	r2, r0, #396	; 0x18c
 2cc:	6b746e69 	blvs	1d1bc78 <__bss_end__+0x1d11800>
 2d0:	4700632e 	strmi	r6, [r0, -lr, lsr #6]
 2d4:	4320554e 	teqmi	r0, #327155712	; 0x13800000
 2d8:	382e3420 	stmdacc	lr!, {r5, sl, ip, sp}
 2dc:	2d20332e 	stccs	3, cr3, [r0, #-184]!	; 0xffffff48
 2e0:	7570636d 	ldrbvc	r6, [r0, #-877]!	; 0x36d
 2e4:	6d72613d 	ldfvse	f6, [r2, #-244]!	; 0xffffff0c
 2e8:	36373131 			; <UNDEFINED> instruction: 0x36373131
 2ec:	2d667a6a 	vstmdbcs	r6!, {s15-s120}
 2f0:	6d2d2073 	stcvs	0, cr2, [sp, #-460]!	; 0xfffffe34
 2f4:	656e7574 	strbvs	r7, [lr, #-1396]!	; 0x574
 2f8:	6d72613d 	ldfvse	f6, [r2, #-244]!	; 0xffffff0c
 2fc:	36373131 			; <UNDEFINED> instruction: 0x36373131
 300:	2d667a6a 	vstmdbcs	r6!, {s15-s120}
 304:	672d2073 			; <UNDEFINED> instruction: 0x672d2073
 308:	20626467 	rsbcs	r6, r2, r7, ror #8
 30c:	20674f2d 	rsbcs	r4, r7, sp, lsr #30
 310:	6474732d 	ldrbtvs	r7, [r4], #-813	; 0x32d
 314:	756e673d 	strbvc	r6, [lr, #-1853]!	; 0x73d
 318:	2d203939 	stccs	9, cr3, [r0, #-228]!	; 0xffffff1c
 31c:	65726666 	ldrbvs	r6, [r2, #-1638]!	; 0x666
 320:	61747365 	cmnvs	r4, r5, ror #6
 324:	6e69646e 	cdpvs	4, 6, cr6, cr9, cr14, {3}
 328:	61760067 	cmnvs	r6, r7, rrx
 32c:	6972705f 	ldmdbvs	r2!, {r0, r1, r2, r3, r4, r6, ip, sp, lr}^
 330:	006b746e 	rsbeq	r7, fp, lr, ror #8
 334:	61765f5f 	cmnvs	r6, pc, asr pc
 338:	73696c5f 	cmnvc	r9, #24320	; 0x5f00
 33c:	552f0074 	strpl	r0, [pc, #-116]!	; 2d0 <_start-0x7d30>
 340:	73726573 	cmnvc	r2, #482344960	; 0x1cc00000
 344:	6972622f 	ldmdbvs	r2!, {r0, r1, r2, r3, r5, r9, sp, lr}^
 348:	756a6e61 	strbvc	r6, [sl, #-3681]!	; 0xe61
 34c:	65442f6e 	strbvs	r2, [r4, #-3950]	; 0xf6e
 350:	6f746b73 	svcvs	0x00746b73
 354:	63732f70 	cmnvs	r3, #112, 30	; 0x1c0
 358:	6c6f6f68 	stclvs	15, cr6, [pc], #-416	; 1c0 <_start-0x7e40>
 35c:	6e69572f 	cdpvs	7, 6, cr5, cr9, cr15, {1}
 360:	31726574 	cmncc	r2, r4, ror r5
 364:	2f303239 	svccs	0x00303239
 368:	34315343 	ldrtcc	r5, [r1], #-835	; 0x343
 36c:	632f4530 	teqvs	pc, #48, 10	; 0xc000000
 370:	30343173 	eorscc	r3, r4, r3, ror r1
 374:	30322d65 	eorscc	r2, r2, r5, ror #26
 378:	2f6e6977 	svccs	0x006e6977
 37c:	7062696c 	rsbvc	r6, r2, ip, ror #18
 380:	72610069 	rsbvc	r0, r1, #105	; 0x69
 384:	5f007367 	svcpl	0x00007367
 388:	0070615f 	rsbseq	r6, r0, pc, asr r1
 38c:	65746e69 	ldrbvs	r6, [r4, #-3689]!	; 0xe69
 390:	6c616e72 	stclvs	14, cr6, [r1], #-456	; 0xfffffe38
 394:	7475705f 	ldrbtvc	r7, [r5], #-95	; 0x5f
 398:	72616863 	rsbvc	r6, r1, #6488064	; 0x630000
 39c:	69707200 	ldmdbvs	r0!, {r9, ip, sp, lr}^
 3a0:	7475705f 	ldrbtvc	r7, [r5], #-95	; 0x5f
 3a4:	72616863 	rsbvc	r6, r1, #6488064	; 0x630000
 3a8:	62696c00 	rsbvs	r6, r9, #0, 24
 3ac:	75702f63 	ldrbvc	r2, [r0, #-3939]!	; 0xf63
 3b0:	61686374 	smcvs	34356	; 0x8634
 3b4:	00632e72 	rsbeq	r2, r3, r2, ror lr
 3b8:	5f697072 	svcpl	0x00697072
 3bc:	5f746573 	svcpl	0x00746573
 3c0:	63747570 	cmnvs	r4, #112, 10	; 0x1c000000
 3c4:	62696c00 	rsbvs	r6, r9, #0, 24
 3c8:	75702f63 	ldrbvc	r2, [r0, #-3939]!	; 0xf63
 3cc:	632e6b74 	teqvs	lr, #116, 22	; 0x1d000
 3d0:	746e6900 	strbtvc	r6, [lr], #-2304	; 0x900
 3d4:	616e7265 	cmnvs	lr, r5, ror #4
 3d8:	75705f6c 	ldrbvc	r5, [r0, #-3948]!	; 0xf6c
 3dc:	6e006b74 	vmovvs.16	d0[1], r6
 3e0:	705f6765 	subsvc	r6, pc, r5, ror #14
 3e4:	76657200 	strbtvc	r7, [r5], -r0, lsl #4
 3e8:	65737265 	ldrbvs	r7, [r3, #-613]!	; 0x265
 3ec:	64736900 	ldrbtvs	r6, [r3], #-2304	; 0x900
 3f0:	74696769 	strbtvc	r6, [r9], #-1897	; 0x769
 3f4:	74757000 	ldrbtvc	r7, [r5], #-0
 3f8:	70665f73 	rsbvc	r5, r6, r3, ror pc
 3fc:	73616200 	cmnvc	r1, #0, 4
 400:	69730065 	ldmdbvs	r3!, {r0, r2, r5, r6}^
 404:	64656e67 	strbtvs	r6, [r5], #-3687	; 0xe67
 408:	6c00705f 	stcvs	0, cr7, [r0], {95}	; 0x5f
 40c:	2f636269 	svccs	0x00636269
 410:	702d6176 	eorvc	r6, sp, r6, ror r1
 414:	746e6972 	strbtvc	r6, [lr], #-2418	; 0x972
 418:	00632e6b 	rsbeq	r2, r3, fp, ror #28
 41c:	5f697072 	svcpl	0x00697072
 420:	5f746573 	svcpl	0x00746573
 424:	7074756f 	rsbsvc	r7, r4, pc, ror #10
 428:	77007475 	smlsdxvc	r0, r5, r4, r7
 42c:	68746469 	ldmdavs	r4!, {r0, r3, r5, r6, sl, sp, lr}^
 430:	74757000 	ldrbtvc	r7, [r5], #-0
 434:	70665f63 	rsbvc	r5, r6, r3, ror #30
 438:	696d6500 	stmdbvs	sp!, {r8, sl, sp, lr}^
 43c:	69640074 	stmdbvs	r4!, {r2, r4, r5, r6}^
 440:	6c626173 	stfvse	f6, [r2], #-460	; 0xfffffe34
 444:	61635f65 	cmnvs	r3, r5, ror #30
 448:	00656863 	rsbeq	r6, r5, r3, ror #16
 44c:	34317363 	ldrtcc	r7, [r1], #-867	; 0x363
 450:	732d6530 	teqvc	sp, #48, 10	; 0xc000000
 454:	632f6372 	teqvs	pc, #-939524095	; 0xc8000001
 458:	65686361 	strbvs	r6, [r8, #-865]!	; 0x361
 45c:	7200632e 	andvc	r6, r0, #-1207959552	; 0xb8000000
 460:	725f6970 	subsvc	r6, pc, #112, 18	; 0x1c0000
 464:	6f6f6265 	svcvs	0x006f6265
 468:	73630074 	cmnvc	r3, #116	; 0x74
 46c:	65303431 	ldrvs	r3, [r0, #-1073]!	; 0x431
 470:	6372732d 	cmnvs	r2, #-1275068416	; 0xb4000000
 474:	656c632f 	strbvs	r6, [ip, #-815]!	; 0x32f
 478:	722d6e61 	eorvc	r6, sp, #1552	; 0x610
 47c:	6f6f6265 	svcvs	0x006f6265
 480:	00632e74 	rsbeq	r2, r3, r4, ror lr
 484:	65746e69 	ldrbvs	r6, [r4, #-3689]!	; 0xe69
 488:	6c616e72 	stclvs	14, cr6, [r1], #-456	; 0xfffffe38
 48c:	5f77735f 	svcpl	0x0077735f
 490:	63747570 	cmnvs	r4, #112, 10	; 0x1c000000
 494:	00726168 	rsbseq	r6, r2, r8, ror #2
 498:	73625f5f 	cmnvc	r2, #380	; 0x17c
 49c:	74735f73 	ldrbtvc	r5, [r3], #-3955	; 0xf73
 4a0:	5f747261 	svcpl	0x00747261
 4a4:	7362005f 	cmnvc	r2, #95	; 0x5f
 4a8:	6e655f73 	mcrvs	15, 3, r5, cr5, cr3, {3}
 4ac:	79630064 	stmdbvc	r3!, {r2, r5, r6}^
 4b0:	5f656c63 	svcpl	0x00656c63
 4b4:	5f726570 	svcpl	0x00726570
 4b8:	00746962 	rsbseq	r6, r4, r2, ror #18
 4bc:	736e6f63 	cmnvc	lr, #396	; 0x18c
 4c0:	5f656c6f 	svcpl	0x00656c6f
 4c4:	74726175 	ldrbtvc	r6, [r2], #-373	; 0x175
 4c8:	5f777300 	svcpl	0x00777300
 4cc:	74726175 	ldrbtvc	r6, [r2], #-373	; 0x175
 4d0:	6972705f 	ldmdbvs	r2!, {r0, r1, r2, r3, r4, r6, ip, sp, lr}^
 4d4:	006b746e 	rsbeq	r7, fp, lr, ror #8
 4d8:	43545550 	cmpmi	r4, #80, 10	; 0x14000000
 4dc:	5053455f 	subspl	r4, r3, pc, asr r5
 4e0:	5241555f 	subpl	r5, r1, #398458880	; 0x17c00000
 4e4:	77730054 			; <UNDEFINED> instruction: 0x77730054
 4e8:	7261755f 	rsbvc	r7, r1, #398458880	; 0x17c00000
 4ec:	00745f74 	rsbseq	r5, r4, r4, ror pc
 4f0:	43545550 	cmpmi	r4, #80, 10	; 0x14000000
 4f4:	5f57535f 	svcpl	0x0057535f
 4f8:	54524155 	ldrbpl	r4, [r2], #-341	; 0x155
 4fc:	75616200 	strbvc	r6, [r1, #-512]!	; 0x200
 500:	55500064 	ldrbpl	r0, [r0, #-100]	; 0x64
 504:	485f4354 	ldmdami	pc, {r2, r4, r6, r8, r9, lr}^	; <UNPREDICTABLE>
 508:	41555f57 	cmpmi	r5, r7, asr pc
 50c:	5f005452 	svcpl	0x00005452
 510:	61747363 	cmnvs	r4, r3, ror #6
 514:	75007472 	strvc	r7, [r0, #-1138]	; 0x472
 518:	5f747261 	svcpl	0x00747261
 51c:	5f766564 	svcpl	0x00766564
 520:	77730074 			; <UNDEFINED> instruction: 0x77730074
 524:	7261755f 	rsbvc	r7, r1, #398458880	; 0x17c00000
 528:	75705f74 	ldrbvc	r5, [r0, #-3956]!	; 0xf74
 52c:	63006374 	movwvs	r6, #884	; 0x374
 530:	72746e6f 	rsbsvc	r6, r4, #1776	; 0x6f0
 534:	625f6c6f 	subsvs	r6, pc, #28416	; 0x6f00
 538:	745f6b6c 	ldrbvc	r6, [pc], #-2924	; 540 <_start-0x7ac0>
 53c:	5f777300 	svcpl	0x00777300
 540:	74726175 	ldrbtvc	r6, [r2], #-373	; 0x175
 544:	5f626300 	svcpl	0x00626300
 548:	5f746567 	svcpl	0x00746567
 54c:	636f6c62 	cmnvs	pc, #25088	; 0x6200
 550:	5f5f006b 	svcpl	0x005f006b
 554:	5f737362 	svcpl	0x00737362
 558:	5f646e65 	svcpl	0x00646e65
 55c:	7363005f 	cmnvc	r3, #95	; 0x5f
 560:	65303431 	ldrvs	r3, [r0, #-1073]!	; 0x431
 564:	6372732d 	cmnvs	r2, #-1275068416	; 0xb4000000
 568:	7473632f 	ldrbtvc	r6, [r3], #-815	; 0x32f
 56c:	2e747261 	cdpcs	2, 7, cr7, cr4, cr1, {3}
 570:	6f630063 	svcvs	0x00630063
 574:	6c6f736e 	stclvs	3, cr7, [pc], #-440	; 3c4 <_start-0x7c3c>
 578:	65645f65 	strbvs	r5, [r4, #-3941]!	; 0xf65
 57c:	69750076 	ldmdbvs	r5!, {r1, r2, r4, r5, r6}^
 580:	3233746e 	eorscc	r7, r3, #1845493760	; 0x6e000000
 584:	6d00745f 	cfstrsvs	mvf7, [r0, #-380]	; 0xfffffe84
 588:	63696761 	cmnvs	r9, #25427968	; 0x1840000
 58c:	5f746100 	svcpl	0x00746100
 590:	72657375 	rsbvc	r7, r5, #-738197503	; 0xd4000001
 594:	76656c5f 			; <UNDEFINED> instruction: 0x76656c5f
 598:	50006c65 	andpl	r6, r0, r5, ror #24
 59c:	41505f4d 	cmpmi	r0, sp, asr #30
 5a0:	4f575353 	svcmi	0x00575353
 5a4:	63004452 	movwvs	r4, #1106	; 0x452
 5a8:	30343173 	eorscc	r3, r4, r3, ror r1
 5ac:	72732d65 	rsbsvc	r2, r3, #6464	; 0x1940
 5b0:	65722f63 	ldrbvs	r2, [r2, #-3939]!	; 0xf63
 5b4:	746f6f62 	strbtvc	r6, [pc], #-3938	; 5bc <_start-0x7a44>
 5b8:	5000632e 	andpl	r6, r0, lr, lsr #6
 5bc:	53525f4d 	cmppl	r2, #308	; 0x134
 5c0:	575f4354 			; <UNDEFINED> instruction: 0x575f4354
 5c4:	47464352 	smlsldmi	r4, r6, r2, r3
 5c8:	4c55465f 	mrrcmi	6, 5, r4, r5, cr15
 5cc:	45525f4c 	ldrbmi	r5, [r2, #-3916]	; 0xf4c
 5d0:	00544553 	subseq	r4, r4, r3, asr r5
 5d4:	575f4d50 			; <UNDEFINED> instruction: 0x575f4d50
 5d8:	00474f44 	subeq	r4, r7, r4, asr #30
 5dc:	5f746573 	svcpl	0x00746573
 5e0:	72657375 	rsbvc	r7, r5, #-738197503	; 0xd4000001
 5e4:	76656c5f 			; <UNDEFINED> instruction: 0x76656c5f
 5e8:	50006c65 	andpl	r6, r0, r5, ror #24
 5ec:	32335455 	eorscc	r5, r3, #1426063360	; 0x55000000
 5f0:	5f4d5000 	svcpl	0x004d5000
 5f4:	43545352 	cmpmi	r4, #1207959553	; 0x48000001
 5f8:	73706300 	cmnvc	r0, #0, 6
 5fc:	69740072 	ldmdbvs	r4!, {r1, r4, r5, r6}^
 600:	5f72656d 	svcpl	0x0072656d
 604:	5f746567 	svcpl	0x00746567
 608:	63657375 	cmnvs	r5, #-738197503	; 0xd4000001
 60c:	7761725f 			; <UNDEFINED> instruction: 0x7761725f
 610:	6c656400 	cfstrdvs	mvd6, [r5], #-0
 614:	735f7961 	cmpvc	pc, #1589248	; 0x184000
 618:	63006365 	movwvs	r6, #869	; 0x365
 61c:	30343173 	eorscc	r3, r4, r3, ror r1
 620:	72732d65 	rsbsvc	r2, r3, #6464	; 0x1940
 624:	69742f63 	ldmdbvs	r4!, {r0, r1, r5, r6, r8, r9, sl, fp, sp}^
 628:	2e72656d 	cdpcs	5, 7, cr6, cr2, cr13, {3}
 62c:	45470063 	strbmi	r0, [r7, #-99]	; 0x63
 630:	00323354 	eorseq	r3, r2, r4, asr r3
 634:	6b636974 	blvs	18dac0c <__bss_end__+0x18d0794>
 638:	65640073 	strbvs	r0, [r4, #-115]!	; 0x73
 63c:	5f79616c 	svcpl	0x0079616c
 640:	6c637963 	stclvs	9, cr7, [r3], #-396	; 0xfffffe74
 644:	64007365 	strvs	r7, [r0], #-869	; 0x365
 648:	79616c65 	stmdbvc	r1!, {r0, r2, r5, r6, sl, fp, sp, lr}^
 64c:	0073755f 	rsbseq	r7, r3, pc, asr r5
 650:	656d6974 	strbvs	r6, [sp, #-2420]!	; 0x974
 654:	65675f72 	strbvs	r5, [r7, #-3954]!	; 0xf72
 658:	73755f74 	cmnvc	r5, #116, 30	; 0x1d0
 65c:	67006365 	strvs	r6, [r0, -r5, ror #6]
 660:	5f6f6970 	svcpl	0x006f6970
 664:	6e657665 	cdpvs	6, 6, cr7, cr5, cr5, {3}
 668:	65645f74 	strbvs	r5, [r4, #-3956]!	; 0xf74
 66c:	74636574 	strbtvc	r6, [r3], #-1396	; 0x574
 670:	70006465 	andvc	r6, r0, r5, ror #8
 674:	32337475 	eorscc	r7, r3, #1962934272	; 0x75000000
 678:	414e4500 	cmpmi	lr, r0, lsl #10
 67c:	5f454c42 	svcpl	0x00454c42
 680:	53515249 	cmppl	r1, #-1879048188	; 0x90000004
 684:	6900325f 	stmdbvs	r0, {r0, r1, r2, r3, r4, r6, r9, ip, sp}
 688:	70675f73 	rsbvc	r5, r7, r3, ror pc
 68c:	695f6f69 	ldmdbvs	pc, {r0, r3, r5, r6, r8, r9, sl, fp, sp, lr}^	; <UNPREDICTABLE>
 690:	4700746e 	strmi	r7, [r0, -lr, ror #8]
 694:	5f4f4950 	svcpl	0x004f4950
 698:	434e5546 	movtmi	r5, #58694	; 0xe546
 69c:	504e495f 	subpl	r4, lr, pc, asr r9
 6a0:	6d005455 	cfstrsvs	mvf5, [r0, #-340]	; 0xfffffeac
 6a4:	72732d79 	rsbsvc	r2, r3, #7744	; 0x1e40
 6a8:	70672f63 	rsbvc	r2, r7, r3, ror #30
 6ac:	632e6f69 	teqvs	lr, #420	; 0x1a4
 6b0:	746e6900 	strbtvc	r6, [lr], #-2304	; 0x900
 6b4:	73616d5f 	cmnvc	r1, #6080	; 0x17c0
 6b8:	6572006b 	ldrbvs	r0, [r2, #-107]!	; 0x6b
 6bc:	74735f67 	ldrbtvc	r5, [r3], #-3943	; 0xf67
 6c0:	67007461 	strvs	r7, [r0, -r1, ror #8]
 6c4:	5f6f6970 	svcpl	0x006f6970
 6c8:	00676572 	rsbeq	r6, r7, r2, ror r5
 6cc:	5f766564 	svcpl	0x00766564
 6d0:	72726162 	rsbsvc	r6, r2, #-2147483624	; 0x80000018
 6d4:	00726569 	rsbseq	r6, r2, r9, ror #10
 6d8:	6f697067 	svcvs	0x00697067
 6dc:	746e695f 	strbtvc	r6, [lr], #-2399	; 0x95f
 6e0:	7369725f 	cmnvc	r9, #-268435451	; 0xf0000005
 6e4:	5f676e69 	svcpl	0x00676e69
 6e8:	65676465 	strbvs	r6, [r7, #-1125]!	; 0x465
 6ec:	69706700 	ldmdbvs	r0!, {r8, r9, sl, sp, lr}^
 6f0:	65735f6f 	ldrbvs	r5, [r3, #-3951]!	; 0xf6f
 6f4:	75665f74 	strbvc	r5, [r6, #-3956]!	; 0xf74
 6f8:	6974636e 	ldmdbvs	r4!, {r1, r2, r3, r5, r6, r8, r9, sp, lr}^
 6fc:	47006e6f 	strmi	r6, [r0, -pc, ror #28]
 700:	4e455250 	mcrmi	2, 2, r5, cr5, cr0, {2}
 704:	50470030 	subpl	r0, r7, r0, lsr r0
 708:	314e4552 	cmpcc	lr, r2, asr r5
 70c:	69706700 	ldmdbvs	r0!, {r8, r9, sl, sp, lr}^
 710:	76655f6f 	strbtvc	r5, [r5], -pc, ror #30
 714:	5f746e65 	svcpl	0x00746e65
 718:	61656c63 	cmnvs	r5, r3, ror #24
 71c:	52490072 	subpl	r0, r9, #114	; 0x72
 720:	45505f51 	ldrbmi	r5, [r0, #-3921]	; 0xf51
 724:	4e49444e 	cdpmi	4, 4, cr4, cr9, cr14, {2}
 728:	00315f47 	eorseq	r5, r1, r7, asr #30
 72c:	5f515249 	svcpl	0x00515249
 730:	444e4550 	strbmi	r4, [lr], #-1360	; 0x550
 734:	5f474e49 	svcpl	0x00474e49
 738:	69620032 	stmdbvs	r2!, {r1, r4, r5}^
 73c:	73616d74 	cmnvc	r1, #116, 26	; 0x1d00
 740:	7566006b 	strbvc	r0, [r6, #-107]!	; 0x6b
 744:	6700636e 	strvs	r6, [r0, -lr, ror #6]
 748:	5f6f6970 	svcpl	0x006f6970
 74c:	67676f74 			; <UNDEFINED> instruction: 0x67676f74
 750:	4700656c 	strmi	r6, [r0, -ip, ror #10]
 754:	53444550 	movtpl	r4, #17744	; 0x4550
 758:	50470030 	subpl	r0, r7, r0, lsr r0
 75c:	31534445 	cmpcc	r3, r5, asr #8
 760:	46504700 	ldrbmi	r4, [r0], -r0, lsl #14
 764:	00304e45 	eorseq	r4, r0, r5, asr #28
 768:	45465047 	strbmi	r5, [r6, #-71]	; 0x47
 76c:	4700314e 	strmi	r3, [r0, -lr, asr #2]
 770:	5f4f4950 	svcpl	0x004f4950
 774:	434e5546 	movtmi	r5, #58694	; 0xe546
 778:	54554f5f 	ldrbpl	r4, [r5], #-3935	; 0xf5f
 77c:	00545550 	subseq	r5, r4, r0, asr r5
 780:	33746567 	cmncc	r4, #432013312	; 0x19c00000
 784:	70670032 	rsbvc	r0, r7, r2, lsr r0
 788:	695f6f69 	ldmdbvs	pc, {r0, r3, r5, r6, r8, r9, sl, fp, sp, lr}^	; <UNPREDICTABLE>
 78c:	665f746e 	ldrbvs	r7, [pc], -lr, ror #8
 790:	696c6c61 	stmdbvs	ip!, {r0, r5, r6, sl, fp, sp, lr}^
 794:	655f676e 	ldrbvs	r6, [pc, #-1902]	; 2e <_start-0x7fd2>
 798:	00656764 	rsbeq	r6, r5, r4, ror #14
 79c:	6f697067 	svcvs	0x00697067
 7a0:	6e75665f 	mrcvs	6, 3, r6, cr5, cr15, {2}
 7a4:	00745f63 	rsbseq	r5, r4, r3, ror #30
 7a8:	4f495047 	svcmi	0x00495047
 7ac:	4e55465f 	mrcmi	6, 2, r4, cr5, cr15, {2}
 7b0:	4c415f43 	mcrrmi	15, 4, r5, r1, cr3
 7b4:	47003054 	smlsdmi	r0, r4, r0, r3
 7b8:	5f4f4950 	svcpl	0x004f4950
 7bc:	434e5546 	movtmi	r5, #58694	; 0xe546
 7c0:	544c415f 	strbpl	r4, [ip], #-351	; 0x15f
 7c4:	50470031 	subpl	r0, r7, r1, lsr r0
 7c8:	465f4f49 	ldrbmi	r4, [pc], -r9, asr #30
 7cc:	5f434e55 	svcpl	0x00434e55
 7d0:	32544c41 	subscc	r4, r4, #16640	; 0x4100
 7d4:	49504700 	ldmdbmi	r0, {r8, r9, sl, lr}^
 7d8:	55465f4f 	strbpl	r5, [r6, #-3919]	; 0xf4f
 7dc:	415f434e 	cmpmi	pc, lr, asr #6
 7e0:	0033544c 	eorseq	r5, r3, ip, asr #8
 7e4:	4f495047 	svcmi	0x00495047
 7e8:	4e55465f 	mrcmi	6, 2, r4, cr5, cr15, {2}
 7ec:	4c415f43 	mcrrmi	15, 4, r5, r1, cr3
 7f0:	47003454 	smlsdmi	r0, r4, r4, r3
 7f4:	5f4f4950 	svcpl	0x004f4950
 7f8:	434e5546 	movtmi	r5, #58694	; 0xe546
 7fc:	544c415f 	strbpl	r4, [ip], #-351	; 0x15f
 800:	65720035 	ldrbvs	r0, [r2, #-53]!	; 0x35
 804:	65735f67 	ldrbvs	r5, [r3, #-3943]!	; 0xf67
 808:	7463656c 	strbtvc	r6, [r3], #-1388	; 0x56c
 80c:	63796300 	cmnvs	r9, #0, 6
 810:	7265705f 	rsbvc	r7, r5, #95	; 0x5f
 814:	7469625f 	strbtvc	r6, [r9], #-607	; 0x25f
 818:	69727700 	ldmdbvs	r2!, {r8, r9, sl, ip, sp, lr}^
 81c:	635f6574 	cmpvs	pc, #116, 10	; 0x1d000000
 820:	755f6379 	ldrbvc	r6, [pc, #-889]	; 4af <_start-0x7b51>
 824:	6c69746e 	cfstrdvs	mvd7, [r9], #-440	; 0xfffffe48
 828:	5f777300 	svcpl	0x00777300
 82c:	74726175 	ldrbtvc	r6, [r2], #-373	; 0x175
 830:	7465675f 	strbtvc	r6, [r5], #-1887	; 0x75f
 834:	69745f63 	ldmdbvs	r4!, {r0, r1, r5, r6, r8, r9, sl, fp, ip, lr}^
 838:	756f656d 	strbvc	r6, [pc, #-1389]!	; 2d3 <_start-0x7d2d>
 83c:	77730074 			; <UNDEFINED> instruction: 0x77730074
 840:	7261755f 	rsbvc	r7, r1, #398458880	; 0x17c00000
 844:	65675f74 	strbvs	r5, [r7, #-3956]!	; 0xf74
 848:	755f7374 	ldrbvc	r7, [pc, #-884]	; 4dc <_start-0x7b24>
 84c:	6c69746e 	cfstrdvs	mvd7, [r9], #-440	; 0xfffffe48
 850:	5f777300 	svcpl	0x00777300
 854:	74726175 	ldrbtvc	r6, [r2], #-373	; 0x175
 858:	7465675f 	strbtvc	r6, [r5], #-1887	; 0x75f
 85c:	65640063 	strbvs	r0, [r4, #-99]!	; 0x63
 860:	65766972 	ldrbvs	r6, [r6, #-2418]!	; 0x972
 864:	65640064 	strbvs	r0, [r4, #-100]!	; 0x64
 868:	5f79616c 	svcpl	0x0079616c
 86c:	6379636e 	cmnvs	r9, #-1207959551	; 0xb8000001
 870:	0073656c 	rsbseq	r6, r3, ip, ror #10
 874:	755f7773 	ldrbvc	r7, [pc, #-1907]	; 109 <_start-0x7ef7>
 878:	5f747261 	svcpl	0x00747261
 87c:	74696e69 	strbtvc	r6, [r9], #-3689	; 0xe69
 880:	6c65685f 	stclvs	8, cr6, [r5], #-380	; 0xfffffe84
 884:	00726570 	rsbseq	r6, r2, r0, ror r5
 888:	656d6974 	strbvs	r6, [sp, #-2420]!	; 0x974
 88c:	5f74756f 	svcpl	0x0074756f
 890:	63657375 	cmnvs	r5, #-738197503	; 0xd4000001
 894:	5f777300 	svcpl	0x00777300
 898:	74726175 	ldrbtvc	r6, [r2], #-373	; 0x175
 89c:	7475705f 	ldrbtvc	r7, [r5], #-95	; 0x5f
 8a0:	796d006b 	stmdbvc	sp!, {r0, r1, r3, r5, r6}^
 8a4:	6372732d 	cmnvs	r2, #-1275068416	; 0xb4000000
 8a8:	2d77732f 	ldclcs	3, cr7, [r7, #-188]!	; 0xffffff44
 8ac:	74726175 	ldrbtvc	r6, [r2], #-373	; 0x175
 8b0:	6300632e 	movwvs	r6, #814	; 0x32e
 8b4:	5f726168 	svcpl	0x00726168
 8b8:	73006e69 	movwvc	r6, #3689	; 0xe69
 8bc:	61755f77 	cmnvs	r5, r7, ror pc
 8c0:	675f7472 			; <UNDEFINED> instruction: 0x675f7472
 8c4:	5f737465 	svcpl	0x00737465
 8c8:	656d6974 	strbvs	r6, [sp, #-2420]!	; 0x974
 8cc:	0074756f 	rsbseq	r7, r4, pc, ror #10
 8d0:	7479626e 	ldrbtvc	r6, [r9], #-622	; 0x26e
 8d4:	75007365 	strvc	r7, [r0, #-869]	; 0x365
 8d8:	5f636573 	svcpl	0x00636573
 8dc:	656d6974 	strbvs	r6, [sp, #-2420]!	; 0x974
 8e0:	0074756f 	rsbseq	r7, r4, pc, ror #10
 8e4:	755f7773 	ldrbvc	r7, [pc, #-1907]	; 179 <_start-0x7e87>
 8e8:	5f747261 	svcpl	0x00747261
 8ec:	73746567 	cmnvc	r4, #432013312	; 0x19c00000
 8f0:	746e755f 	strbtvc	r7, [lr], #-1375	; 0x55f
 8f4:	625f6c69 	subsvs	r6, pc, #26880	; 0x6900
 8f8:	77006b6c 	strvc	r6, [r0, -ip, ror #22]
 8fc:	5f746961 	svcpl	0x00746961
 900:	69746e75 	ldmdbvs	r4!, {r0, r2, r4, r5, r6, r9, sl, fp, sp, lr}^
 904:	73755f6c 	cmnvc	r5, #108, 30	; 0x1b0
 908:	41006365 	tstmi	r0, r5, ror #6
 90c:	4d5f5855 	ldclmi	8, cr5, [pc, #-340]	; 7c0 <_start-0x7840>
 910:	434d5f55 	movtmi	r5, #57173	; 0xdf55
 914:	45525f52 	ldrbmi	r5, [r2, #-3922]	; 0xf52
 918:	55410047 	strbpl	r0, [r1, #-71]	; 0x47
 91c:	554d5f58 	strbpl	r5, [sp, #-3928]	; 0xf58
 920:	5f4f495f 	svcpl	0x004f495f
 924:	00474552 	subeq	r4, r7, r2, asr r5
 928:	5f585541 	svcpl	0x00585541
 92c:	4d5f554d 	cfldr64mi	mvdx5, [pc, #-308]	; 800 <_start-0x7800>
 930:	525f5253 	subspl	r5, pc, #805306373	; 0x30000005
 934:	75004745 	strvc	r4, [r0, #-1861]	; 0x745
 938:	5f747261 	svcpl	0x00747261
 93c:	5f6e6163 	svcpl	0x006e6163
 940:	63746567 	cmnvs	r4, #432013312	; 0x19c00000
 944:	58554100 	ldmdapl	r5, {r8, lr}^
 948:	5f554d5f 	svcpl	0x00554d5f
 94c:	4c544e43 	mrrcmi	14, 4, r4, r4, cr3	; <UNPREDICTABLE>
 950:	4745525f 	smlsldmi	r5, r5, pc, r2	; <UNPREDICTABLE>
 954:	72617500 	rsbvc	r7, r1, #0, 10
 958:	61685f74 	smcvs	34292	; 0x85f4
 95c:	61645f73 	smcvs	17907	; 0x45f3
 960:	75006174 	strvc	r6, [r0, #-372]	; 0x174
 964:	5f747261 	svcpl	0x00747261
 968:	74696e69 	strbtvc	r6, [r9], #-3689	; 0xe69
 96c:	58554100 	ldmdapl	r5, {r8, lr}^
 970:	5f554d5f 	svcpl	0x00554d5f
 974:	5f524549 	svcpl	0x00524549
 978:	00474552 	subeq	r4, r7, r2, asr r5
 97c:	5f585541 	svcpl	0x00585541
 980:	495f554d 	ldmdbmi	pc, {r0, r2, r3, r6, r8, sl, ip, lr}^	; <UNPREDICTABLE>
 984:	525f5249 	subspl	r5, pc, #-1879048188	; 0x90000004
 988:	75004745 	strvc	r4, [r0, #-1861]	; 0x745
 98c:	5f747261 	svcpl	0x00747261
 990:	5f6e6163 	svcpl	0x006e6163
 994:	63747570 	cmnvs	r4, #112, 10	; 0x1c000000
 998:	58554100 	ldmdapl	r5, {r8, lr}^
 99c:	414e455f 	cmpmi	lr, pc, asr r5
 9a0:	53454c42 	movtpl	r4, #23618	; 0x5c42
 9a4:	58554100 	ldmdapl	r5, {r8, lr}^
 9a8:	5152495f 	cmppl	r2, pc, asr r9
 9ac:	58554100 	ldmdapl	r5, {r8, lr}^
 9b0:	5f554d5f 	svcpl	0x00554d5f
 9b4:	44554142 	ldrbmi	r4, [r5], #-322	; 0x142
 9b8:	4745525f 	smlsldmi	r5, r5, pc, r2	; <UNPREDICTABLE>
 9bc:	58554100 	ldmdapl	r5, {r8, lr}^
 9c0:	5f554d5f 	svcpl	0x00554d5f
 9c4:	54415453 	strbpl	r5, [r1], #-1107	; 0x453
 9c8:	4745525f 	smlsldmi	r5, r5, pc, r2	; <UNPREDICTABLE>
 9cc:	58554100 	ldmdapl	r5, {r8, lr}^
 9d0:	5f554d5f 	svcpl	0x00554d5f
 9d4:	41524353 	cmpmi	r2, r3, asr r3
 9d8:	00484354 	subeq	r4, r8, r4, asr r3
 9dc:	732d796d 	teqvc	sp, #1785856	; 0x1b4000
 9e0:	752f6372 	strvc	r6, [pc, #-882]!	; 676 <_start-0x798a>
 9e4:	2e747261 	cdpcs	2, 7, cr7, cr4, cr1, {3}
 9e8:	55410063 	strbpl	r0, [r1, #-99]	; 0x63
 9ec:	554d5f58 	strbpl	r5, [sp, #-3928]	; 0xf58
 9f0:	52434c5f 	subpl	r4, r3, #24320	; 0x5f00
 9f4:	4745525f 	smlsldmi	r5, r5, pc, r2	; <UNPREDICTABLE>
 9f8:	58554100 	ldmdapl	r5, {r8, lr}^
 9fc:	5f554d5f 	svcpl	0x00554d5f
 a00:	5f52534c 	svcpl	0x0052534c
 a04:	00474552 	subeq	r4, r7, r2, asr r5
 a08:	74726175 	ldrbtvc	r6, [r2], #-373	; 0x175
 a0c:	7465675f 	strbtvc	r6, [r5], #-1887	; 0x75f
 a10:	73615f63 	cmnvc	r1, #396	; 0x18c
 a14:	00636e79 	rsbeq	r6, r3, r9, ror lr
 a18:	657a6973 	ldrbvs	r6, [sl, #-2419]!	; 0x973
 a1c:	6d00745f 	cfstrsvs	mvf7, [r0, #-380]	; 0xfffffe84
 a20:	65736d65 	ldrbvs	r6, [r3, #-3429]!	; 0xd65
 a24:	62630074 	rsbvs	r0, r3, #116	; 0x74
 a28:	77656e5f 			; <UNDEFINED> instruction: 0x77656e5f
 a2c:	31736300 	cmncc	r3, r0, lsl #6
 a30:	2d653034 	stclcs	0, cr3, [r5, #-208]!	; 0xffffff30
 a34:	2f637273 	svccs	0x00637273
 a38:	746e6f63 	strbtvc	r6, [lr], #-3939	; 0xf63
 a3c:	2d6c6f72 	stclcs	15, cr6, [ip, #-456]!	; 0xfffffe38
 a40:	636f6c62 	cmnvs	pc, #25088	; 0x6200
 a44:	00632e6b 	rsbeq	r2, r3, fp, ror #28
 a48:	6362696c 	cmnvs	r2, #108, 18	; 0x1b0000
 a4c:	6d656d2f 	stclvs	13, cr6, [r5, #-188]!	; 0xffffff44
 a50:	2e746573 	mrccs	5, 3, r6, cr4, cr3, {3}
 a54:	Address 0x0000000000000a54 is out of bounds.


Disassembly of section .debug_frame:

00000000 <.debug_frame>:
   0:	0000000c 	andeq	r0, r0, ip
   4:	ffffffff 			; <UNDEFINED> instruction: 0xffffffff
   8:	7c020001 	stcvc	0, cr0, [r2], {1}
   c:	000d0c0e 	andeq	r0, sp, lr, lsl #24
  10:	0000001c 	andeq	r0, r0, ip, lsl r0
  14:	00000000 	andeq	r0, r0, r0
  18:	00008010 	andeq	r8, r0, r0, lsl r0
  1c:	0000019c 	muleq	r0, ip, r1
  20:	84180e42 	ldrhi	r0, [r8], #-3650	; 0xe42
  24:	86058506 	strhi	r8, [r5], -r6, lsl #10
  28:	88038704 	stmdahi	r3, {r2, r8, r9, sl, pc}
  2c:	00018902 	andeq	r8, r1, r2, lsl #18
  30:	00000014 	andeq	r0, r0, r4, lsl r0
  34:	00000000 	andeq	r0, r0, r0
  38:	000081ac 	andeq	r8, r0, ip, lsr #3
  3c:	00000050 	andeq	r0, r0, r0, asr r0
  40:	84080e44 	strhi	r0, [r8], #-3652	; 0xe44
  44:	00018e02 	andeq	r8, r1, r2, lsl #28
  48:	0000001c 	andeq	r0, r0, ip, lsl r0
  4c:	00000000 	andeq	r0, r0, r0
  50:	000081fc 	strdeq	r8, [r0], -ip
  54:	0000019c 	muleq	r0, ip, r1
  58:	84180e42 	ldrhi	r0, [r8], #-3650	; 0xe42
  5c:	86058506 	strhi	r8, [r5], -r6, lsl #10
  60:	88038704 	stmdahi	r3, {r2, r8, r9, sl, pc}
  64:	00018902 	andeq	r8, r1, r2, lsl #18
  68:	00000018 	andeq	r0, r0, r8, lsl r0
  6c:	00000000 	andeq	r0, r0, r0
  70:	00008398 	muleq	r0, r8, r3
  74:	0000020c 	andeq	r0, r0, ip, lsl #4
  78:	840c0e42 	strhi	r0, [ip], #-3650	; 0xe42
  7c:	86028503 	strhi	r8, [r2], -r3, lsl #10
  80:	00000001 	andeq	r0, r0, r1
  84:	0000001c 	andeq	r0, r0, ip, lsl r0
  88:	00000000 	andeq	r0, r0, r0
  8c:	000085a4 	andeq	r8, r0, r4, lsr #11
  90:	00000124 	andeq	r0, r0, r4, lsr #2
  94:	83180e42 	tsthi	r8, #1056	; 0x420
  98:	85058406 	strhi	r8, [r5, #-1030]	; 0x406
  9c:	87038604 	strhi	r8, [r3, -r4, lsl #12]
  a0:	00018e02 	andeq	r8, r1, r2, lsl #28
  a4:	0000000c 	andeq	r0, r0, ip
  a8:	ffffffff 			; <UNDEFINED> instruction: 0xffffffff
  ac:	7c020001 	stcvc	0, cr0, [r2], {1}
  b0:	000d0c0e 	andeq	r0, sp, lr, lsl #24
  b4:	00000024 	andeq	r0, r0, r4, lsr #32
  b8:	000000a4 	andeq	r0, r0, r4, lsr #1
  bc:	000086c8 	andeq	r8, r0, r8, asr #13
  c0:	00000058 	andeq	r0, r0, r8, asr r0
  c4:	80100e42 	andshi	r0, r0, r2, asr #28
  c8:	82038104 	andhi	r8, r3, #4, 2
  cc:	42018302 	andmi	r8, r1, #134217728	; 0x8000000
  d0:	07841c0e 	streq	r1, [r4, lr, lsl #24]
  d4:	058e0685 	streq	r0, [lr, #1669]	; 0x685
  d8:	00280e42 	eoreq	r0, r8, r2, asr #28
  dc:	0000000c 	andeq	r0, r0, ip
  e0:	ffffffff 			; <UNDEFINED> instruction: 0xffffffff
  e4:	7c020001 	stcvc	0, cr0, [r2], {1}
  e8:	000d0c0e 	andeq	r0, sp, lr, lsl #24
  ec:	00000014 	andeq	r0, r0, r4, lsl r0
  f0:	000000dc 	ldrdeq	r0, [r0], -ip
  f4:	00008720 	andeq	r8, r0, r0, lsr #14
  f8:	00000014 	andeq	r0, r0, r4, lsl r0
  fc:	84080e42 	strhi	r0, [r8], #-3650	; 0xe42
 100:	00018e02 	andeq	r8, r1, r2, lsl #28
 104:	0000000c 	andeq	r0, r0, ip
 108:	000000dc 	ldrdeq	r0, [r0], -ip
 10c:	00008734 	andeq	r8, r0, r4, lsr r7
 110:	00000018 	andeq	r0, r0, r8, lsl r0
 114:	0000000c 	andeq	r0, r0, ip
 118:	000000dc 	ldrdeq	r0, [r0], -ip
 11c:	0000874c 	andeq	r8, r0, ip, asr #14
 120:	00000010 	andeq	r0, r0, r0, lsl r0
 124:	0000000c 	andeq	r0, r0, ip
 128:	ffffffff 			; <UNDEFINED> instruction: 0xffffffff
 12c:	7c020001 	stcvc	0, cr0, [r2], {1}
 130:	000d0c0e 	andeq	r0, sp, lr, lsl #24
 134:	00000018 	andeq	r0, r0, r8, lsl r0
 138:	00000124 	andeq	r0, r0, r4, lsr #2
 13c:	0000875c 	andeq	r8, r0, ip, asr r7
 140:	00000034 	andeq	r0, r0, r4, lsr r0
 144:	83100e42 	tsthi	r0, #1056	; 0x420
 148:	85038404 	strhi	r8, [r3, #-1028]	; 0x404
 14c:	00018e02 	andeq	r8, r1, r2, lsl #28
 150:	0000000c 	andeq	r0, r0, ip
 154:	ffffffff 			; <UNDEFINED> instruction: 0xffffffff
 158:	7c020001 	stcvc	0, cr0, [r2], {1}
 15c:	000d0c0e 	andeq	r0, sp, lr, lsl #24
 160:	0000000c 	andeq	r0, r0, ip
 164:	00000150 	andeq	r0, r0, r0, asr r1
 168:	00008790 	muleq	r0, r0, r7
 16c:	00000014 	andeq	r0, r0, r4, lsl r0
 170:	0000000c 	andeq	r0, r0, ip
 174:	00000150 	andeq	r0, r0, r0, asr r1
 178:	000087a4 	andeq	r8, r0, r4, lsr #15
 17c:	0000002c 	andeq	r0, r0, ip, lsr #32
 180:	0000000c 	andeq	r0, r0, ip
 184:	00000150 	andeq	r0, r0, r0, asr r1
 188:	000087d0 	ldrdeq	r8, [r0], -r0
 18c:	00000040 	andeq	r0, r0, r0, asr #32
 190:	00000020 	andeq	r0, r0, r0, lsr #32
 194:	00000150 	andeq	r0, r0, r0, asr r1
 198:	00008810 	andeq	r8, r0, r0, lsl r8
 19c:	000001a8 	andeq	r0, r0, r8, lsr #3
 1a0:	84180e42 	ldrhi	r0, [r8], #-3650	; 0xe42
 1a4:	86058506 	strhi	r8, [r5], -r6, lsl #10
 1a8:	88038704 	stmdahi	r3, {r2, r8, r9, sl, pc}
 1ac:	42018e02 	andmi	r8, r1, #2, 28
 1b0:	0000600e 	andeq	r6, r0, lr
 1b4:	00000014 	andeq	r0, r0, r4, lsl r0
 1b8:	00000150 	andeq	r0, r0, r0, asr r1
 1bc:	000089b8 			; <UNDEFINED> instruction: 0x000089b8
 1c0:	00000068 	andeq	r0, r0, r8, rrx
 1c4:	8e040e42 	cdphi	14, 0, cr0, cr4, cr2, {2}
 1c8:	100e4201 	andne	r4, lr, r1, lsl #4
 1cc:	00000028 	andeq	r0, r0, r8, lsr #32
 1d0:	00000150 	andeq	r0, r0, r0, asr r1
 1d4:	00008a20 	andeq	r8, r0, r0, lsr #20
 1d8:	00000294 	muleq	r0, r4, r2
 1dc:	84240e42 	strthi	r0, [r4], #-3650	; 0xe42
 1e0:	86088509 	strhi	r8, [r8], -r9, lsl #10
 1e4:	88068707 	stmdahi	r6, {r0, r1, r2, r8, r9, sl, pc}
 1e8:	8a048905 	bhi	122604 <__bss_end__+0x11818c>
 1ec:	8e028b03 	vmlahi.f64	d8, d2, d3
 1f0:	b00e4201 	andlt	r4, lr, r1, lsl #4
 1f4:	00000001 	andeq	r0, r0, r1
 1f8:	0000000c 	andeq	r0, r0, ip
 1fc:	ffffffff 			; <UNDEFINED> instruction: 0xffffffff
 200:	7c020001 	stcvc	0, cr0, [r2], {1}
 204:	000d0c0e 	andeq	r0, sp, lr, lsl #24
 208:	0000000c 	andeq	r0, r0, ip
 20c:	000001f8 	strdeq	r0, [r0], -r8
 210:	00008cb4 			; <UNDEFINED> instruction: 0x00008cb4
 214:	00000010 	andeq	r0, r0, r0, lsl r0
 218:	0000000c 	andeq	r0, r0, ip
 21c:	000001f8 	strdeq	r0, [r0], -r8
 220:	00008cc4 	andeq	r8, r0, r4, asr #25
 224:	00000010 	andeq	r0, r0, r0, lsl r0
 228:	0000000c 	andeq	r0, r0, ip
 22c:	ffffffff 			; <UNDEFINED> instruction: 0xffffffff
 230:	7c020001 	stcvc	0, cr0, [r2], {1}
 234:	000d0c0e 	andeq	r0, sp, lr, lsl #24
 238:	00000014 	andeq	r0, r0, r4, lsl r0
 23c:	00000228 	andeq	r0, r0, r8, lsr #4
 240:	00008cd4 	ldrdeq	r8, [r0], -r4
 244:	00000028 	andeq	r0, r0, r8, lsr #32
 248:	83080e42 	movwhi	r0, #36418	; 0x8e42
 24c:	00018e02 	andeq	r8, r1, r2, lsl #28
 250:	0000000c 	andeq	r0, r0, ip
 254:	ffffffff 			; <UNDEFINED> instruction: 0xffffffff
 258:	7c020001 	stcvc	0, cr0, [r2], {1}
 25c:	000d0c0e 	andeq	r0, sp, lr, lsl #24
 260:	00000014 	andeq	r0, r0, r4, lsl r0
 264:	00000250 	andeq	r0, r0, r0, asr r2
 268:	00008cfc 	strdeq	r8, [r0], -ip
 26c:	00000020 	andeq	r0, r0, r0, lsr #32
 270:	84080e42 	strhi	r0, [r8], #-3650	; 0xe42
 274:	00018e02 	andeq	r8, r1, r2, lsl #28
 278:	00000014 	andeq	r0, r0, r4, lsl r0
 27c:	00000250 	andeq	r0, r0, r0, asr r2
 280:	00008d1c 	andeq	r8, r0, ip, lsl sp
 284:	00000090 	muleq	r0, r0, r0
 288:	83080e42 	movwhi	r0, #36418	; 0x8e42
 28c:	00018e02 	andeq	r8, r1, r2, lsl #28
 290:	0000000c 	andeq	r0, r0, ip
 294:	ffffffff 			; <UNDEFINED> instruction: 0xffffffff
 298:	7c020001 	stcvc	0, cr0, [r2], {1}
 29c:	000d0c0e 	andeq	r0, sp, lr, lsl #24
 2a0:	0000000c 	andeq	r0, r0, ip
 2a4:	00000290 	muleq	r0, r0, r2
 2a8:	00008dac 	andeq	r8, r0, ip, lsr #27
 2ac:	00000018 	andeq	r0, r0, r8, lsl r0
 2b0:	0000000c 	andeq	r0, r0, ip
 2b4:	00000290 	muleq	r0, r0, r2
 2b8:	00008dc4 	andeq	r8, r0, r4, asr #27
 2bc:	00000014 	andeq	r0, r0, r4, lsl r0
 2c0:	00000014 	andeq	r0, r0, r4, lsl r0
 2c4:	00000290 	muleq	r0, r0, r2
 2c8:	00008dd8 	ldrdeq	r8, [r0], -r8	; <UNPREDICTABLE>
 2cc:	00000048 	andeq	r0, r0, r8, asr #32
 2d0:	83080e42 	movwhi	r0, #36418	; 0x8e42
 2d4:	00018e02 	andeq	r8, r1, r2, lsl #28
 2d8:	0000000c 	andeq	r0, r0, ip
 2dc:	ffffffff 			; <UNDEFINED> instruction: 0xffffffff
 2e0:	7c020001 	stcvc	0, cr0, [r2], {1}
 2e4:	000d0c0e 	andeq	r0, sp, lr, lsl #24
 2e8:	0000000c 	andeq	r0, r0, ip
 2ec:	000002d8 	ldrdeq	r0, [r0], -r8
 2f0:	00008e20 	andeq	r8, r0, r0, lsr #28
 2f4:	0000001c 	andeq	r0, r0, ip, lsl r0
 2f8:	00000014 	andeq	r0, r0, r4, lsl r0
 2fc:	000002d8 	ldrdeq	r0, [r0], -r8
 300:	00008e3c 	andeq	r8, r0, ip, lsr lr
 304:	00000014 	andeq	r0, r0, r4, lsl r0
 308:	83080e42 	movwhi	r0, #36418	; 0x8e42
 30c:	00018e02 	andeq	r8, r1, r2, lsl #28
 310:	00000014 	andeq	r0, r0, r4, lsl r0
 314:	000002d8 	ldrdeq	r0, [r0], -r8
 318:	00008e50 	andeq	r8, r0, r0, asr lr
 31c:	0000000c 	andeq	r0, r0, ip
 320:	83080e42 	movwhi	r0, #36418	; 0x8e42
 324:	00018e02 	andeq	r8, r1, r2, lsl #28
 328:	00000018 	andeq	r0, r0, r8, lsl r0
 32c:	000002d8 	ldrdeq	r0, [r0], -r8
 330:	00008e5c 	andeq	r8, r0, ip, asr lr
 334:	00000024 	andeq	r0, r0, r4, lsr #32
 338:	83100e42 	tsthi	r0, #1056	; 0x420
 33c:	85038404 	strhi	r8, [r3, #-1028]	; 0x404
 340:	00018e02 	andeq	r8, r1, r2, lsl #28
 344:	00000014 	andeq	r0, r0, r4, lsl r0
 348:	000002d8 	ldrdeq	r0, [r0], -r8
 34c:	00008e80 	andeq	r8, r0, r0, lsl #29
 350:	00000014 	andeq	r0, r0, r4, lsl r0
 354:	83080e42 	movwhi	r0, #36418	; 0x8e42
 358:	00018e02 	andeq	r8, r1, r2, lsl #28
 35c:	00000014 	andeq	r0, r0, r4, lsl r0
 360:	000002d8 	ldrdeq	r0, [r0], -r8
 364:	00008e94 	muleq	r0, r4, lr
 368:	00000014 	andeq	r0, r0, r4, lsl r0
 36c:	83080e42 	movwhi	r0, #36418	; 0x8e42
 370:	00018e02 	andeq	r8, r1, r2, lsl #28
 374:	0000000c 	andeq	r0, r0, ip
 378:	ffffffff 			; <UNDEFINED> instruction: 0xffffffff
 37c:	7c020001 	stcvc	0, cr0, [r2], {1}
 380:	000d0c0e 	andeq	r0, sp, lr, lsl #24
 384:	00000018 	andeq	r0, r0, r8, lsl r0
 388:	00000374 	andeq	r0, r0, r4, ror r3
 38c:	00008ea8 	andeq	r8, r0, r8, lsr #29
 390:	000000d4 	ldrdeq	r0, [r0], -r4
 394:	83100e42 	tsthi	r0, #1056	; 0x420
 398:	85038404 	strhi	r8, [r3, #-1028]	; 0x404
 39c:	00018e02 	andeq	r8, r1, r2, lsl #28
 3a0:	00000014 	andeq	r0, r0, r4, lsl r0
 3a4:	00000374 	andeq	r0, r0, r4, ror r3
 3a8:	00008f7c 	andeq	r8, r0, ip, ror pc
 3ac:	00000038 	andeq	r0, r0, r8, lsr r0
 3b0:	83080e42 	movwhi	r0, #36418	; 0x8e42
 3b4:	00018e02 	andeq	r8, r1, r2, lsl #28
 3b8:	00000014 	andeq	r0, r0, r4, lsl r0
 3bc:	00000374 	andeq	r0, r0, r4, ror r3
 3c0:	00008fb4 			; <UNDEFINED> instruction: 0x00008fb4
 3c4:	00000038 	andeq	r0, r0, r8, lsr r0
 3c8:	83080e42 	movwhi	r0, #36418	; 0x8e42
 3cc:	00018e02 	andeq	r8, r1, r2, lsl #28
 3d0:	00000018 	andeq	r0, r0, r8, lsl r0
 3d4:	00000374 	andeq	r0, r0, r4, ror r3
 3d8:	00008fec 	andeq	r8, r0, ip, ror #31
 3dc:	000000cc 	andeq	r0, r0, ip, asr #1
 3e0:	83100e42 	tsthi	r0, #1056	; 0x420
 3e4:	85038404 	strhi	r8, [r3, #-1028]	; 0x404
 3e8:	00018e02 	andeq	r8, r1, r2, lsl #28
 3ec:	00000014 	andeq	r0, r0, r4, lsl r0
 3f0:	00000374 	andeq	r0, r0, r4, ror r3
 3f4:	000090b8 	strheq	r9, [r0], -r8
 3f8:	0000004c 	andeq	r0, r0, ip, asr #32
 3fc:	84080e42 	strhi	r0, [r8], #-3650	; 0xe42
 400:	00018e02 	andeq	r8, r1, r2, lsl #28
 404:	00000014 	andeq	r0, r0, r4, lsl r0
 408:	00000374 	andeq	r0, r0, r4, ror r3
 40c:	00009104 	andeq	r9, r0, r4, lsl #2
 410:	00000024 	andeq	r0, r0, r4, lsr #32
 414:	83080e42 	movwhi	r0, #36418	; 0x8e42
 418:	00018e02 	andeq	r8, r1, r2, lsl #28
 41c:	00000018 	andeq	r0, r0, r8, lsl r0
 420:	00000374 	andeq	r0, r0, r4, ror r3
 424:	00009128 	andeq	r9, r0, r8, lsr #2
 428:	000000d8 	ldrdeq	r0, [r0], -r8
 42c:	84100e42 	ldrhi	r0, [r0], #-3650	; 0xe42
 430:	86038504 	strhi	r8, [r3], -r4, lsl #10
 434:	00018e02 	andeq	r8, r1, r2, lsl #28
 438:	00000014 	andeq	r0, r0, r4, lsl r0
 43c:	00000374 	andeq	r0, r0, r4, ror r3
 440:	00009200 	andeq	r9, r0, r0, lsl #4
 444:	00000038 	andeq	r0, r0, r8, lsr r0
 448:	83080e42 	movwhi	r0, #36418	; 0x8e42
 44c:	00018e02 	andeq	r8, r1, r2, lsl #28
 450:	00000014 	andeq	r0, r0, r4, lsl r0
 454:	00000374 	andeq	r0, r0, r4, ror r3
 458:	00009238 	andeq	r9, r0, r8, lsr r2
 45c:	0000002c 	andeq	r0, r0, ip, lsr #32
 460:	83080e42 	movwhi	r0, #36418	; 0x8e42
 464:	00018e02 	andeq	r8, r1, r2, lsl #28
 468:	00000018 	andeq	r0, r0, r8, lsl r0
 46c:	00000374 	andeq	r0, r0, r4, ror r3
 470:	00009264 	andeq	r9, r0, r4, ror #4
 474:	00000084 	andeq	r0, r0, r4, lsl #1
 478:	83100e42 	tsthi	r0, #1056	; 0x420
 47c:	85038404 	strhi	r8, [r3, #-1028]	; 0x404
 480:	00018e02 	andeq	r8, r1, r2, lsl #28
 484:	00000018 	andeq	r0, r0, r8, lsl r0
 488:	00000374 	andeq	r0, r0, r4, ror r3
 48c:	000092e8 	andeq	r9, r0, r8, ror #5
 490:	00000084 	andeq	r0, r0, r4, lsl #1
 494:	83100e42 	tsthi	r0, #1056	; 0x420
 498:	85038404 	strhi	r8, [r3, #-1028]	; 0x404
 49c:	00018e02 	andeq	r8, r1, r2, lsl #28
 4a0:	00000014 	andeq	r0, r0, r4, lsl r0
 4a4:	00000374 	andeq	r0, r0, r4, ror r3
 4a8:	0000936c 	andeq	r9, r0, ip, ror #6
 4ac:	00000084 	andeq	r0, r0, r4, lsl #1
 4b0:	84080e42 	strhi	r0, [r8], #-3650	; 0xe42
 4b4:	00018e02 	andeq	r8, r1, r2, lsl #28
 4b8:	00000014 	andeq	r0, r0, r4, lsl r0
 4bc:	00000374 	andeq	r0, r0, r4, ror r3
 4c0:	000093f0 	strdeq	r9, [r0], -r0
 4c4:	00000058 	andeq	r0, r0, r8, asr r0
 4c8:	84080e42 	strhi	r0, [r8], #-3650	; 0xe42
 4cc:	00018e02 	andeq	r8, r1, r2, lsl #28
 4d0:	0000000c 	andeq	r0, r0, ip
 4d4:	ffffffff 			; <UNDEFINED> instruction: 0xffffffff
 4d8:	7c020001 	stcvc	0, cr0, [r2], {1}
 4dc:	000d0c0e 	andeq	r0, sp, lr, lsl #24
 4e0:	0000001c 	andeq	r0, r0, ip, lsl r0
 4e4:	000004d0 	ldrdeq	r0, [r0], -r0	; <UNPREDICTABLE>
 4e8:	00009448 	andeq	r9, r0, r8, asr #8
 4ec:	00000154 	andeq	r0, r0, r4, asr r1
 4f0:	84180e42 	ldrhi	r0, [r8], #-3650	; 0xe42
 4f4:	86058506 	strhi	r8, [r5], -r6, lsl #10
 4f8:	88038704 	stmdahi	r3, {r2, r8, r9, sl, pc}
 4fc:	00018e02 	andeq	r8, r1, r2, lsl #28
 500:	00000020 	andeq	r0, r0, r0, lsr #32
 504:	000004d0 	ldrdeq	r0, [r0], -r0	; <UNPREDICTABLE>
 508:	0000959c 	muleq	r0, ip, r5
 50c:	000001c8 	andeq	r0, r0, r8, asr #3
 510:	83200e42 	teqhi	r0, #1056	; 0x420
 514:	85078408 	strhi	r8, [r7, #-1032]	; 0x408
 518:	87058606 	strhi	r8, [r5, -r6, lsl #12]
 51c:	89038804 	stmdbhi	r3, {r2, fp, pc}
 520:	00018e02 	andeq	r8, r1, r2, lsl #28
 524:	00000024 	andeq	r0, r0, r4, lsr #32
 528:	000004d0 	ldrdeq	r0, [r0], -r0	; <UNPREDICTABLE>
 52c:	00009764 	andeq	r9, r0, r4, ror #14
 530:	000000a4 	andeq	r0, r0, r4, lsr #1
 534:	84200e42 	strthi	r0, [r0], #-3650	; 0xe42
 538:	86078508 	strhi	r8, [r7], -r8, lsl #10
 53c:	88058706 	stmdahi	r5, {r1, r2, r8, r9, sl, pc}
 540:	8a038904 	bhi	e2958 <__bss_end__+0xd84e0>
 544:	42018e02 	andmi	r8, r1, #2, 28
 548:	0000280e 	andeq	r2, r0, lr, lsl #16
 54c:	00000020 	andeq	r0, r0, r0, lsr #32
 550:	000004d0 	ldrdeq	r0, [r0], -r0	; <UNPREDICTABLE>
 554:	00009808 	andeq	r9, r0, r8, lsl #16
 558:	00000090 	muleq	r0, r0, r0
 55c:	84180e42 	ldrhi	r0, [r8], #-3650	; 0xe42
 560:	86058506 	strhi	r8, [r5], -r6, lsl #10
 564:	88038704 	stmdahi	r3, {r2, r8, r9, sl, pc}
 568:	42018e02 	andmi	r8, r1, #2, 28
 56c:	0000200e 	andeq	r2, r0, lr
 570:	00000020 	andeq	r0, r0, r0, lsr #32
 574:	000004d0 	ldrdeq	r0, [r0], -r0	; <UNPREDICTABLE>
 578:	00009898 	muleq	r0, r8, r8
 57c:	000000d4 	ldrdeq	r0, [r0], -r4
 580:	84180e42 	ldrhi	r0, [r8], #-3650	; 0xe42
 584:	86058506 	strhi	r8, [r5], -r6, lsl #10
 588:	88038704 	stmdahi	r3, {r2, r8, r9, sl, pc}
 58c:	42018e02 	andmi	r8, r1, #2, 28
 590:	0000200e 	andeq	r2, r0, lr
 594:	00000014 	andeq	r0, r0, r4, lsl r0
 598:	000004d0 	ldrdeq	r0, [r0], -r0	; <UNPREDICTABLE>
 59c:	0000996c 	andeq	r9, r0, ip, ror #18
 5a0:	0000003c 	andeq	r0, r0, ip, lsr r0
 5a4:	83080e42 	movwhi	r0, #36418	; 0x8e42
 5a8:	00018e02 	andeq	r8, r1, r2, lsl #28
 5ac:	00000018 	andeq	r0, r0, r8, lsl r0
 5b0:	000004d0 	ldrdeq	r0, [r0], -r0	; <UNPREDICTABLE>
 5b4:	000099a8 	andeq	r9, r0, r8, lsr #19
 5b8:	0000002c 	andeq	r0, r0, ip, lsr #32
 5bc:	83100e42 	tsthi	r0, #1056	; 0x420
 5c0:	85038404 	strhi	r8, [r3, #-1028]	; 0x404
 5c4:	00018e02 	andeq	r8, r1, r2, lsl #28
 5c8:	00000024 	andeq	r0, r0, r4, lsr #32
 5cc:	000004d0 	ldrdeq	r0, [r0], -r0	; <UNPREDICTABLE>
 5d0:	000099d4 	ldrdeq	r9, [r0], -r4
 5d4:	00000090 	muleq	r0, r0, r0
 5d8:	810c0e42 	tsthi	ip, r2, asr #28
 5dc:	83028203 	movwhi	r8, #8707	; 0x2203
 5e0:	180e4201 	stmdane	lr, {r0, r9, lr}
 5e4:	05850684 	streq	r0, [r5, #1668]	; 0x684
 5e8:	0e42048e 	cdpeq	4, 4, cr0, cr2, cr14, {4}
 5ec:	000003f0 	strdeq	r0, [r0], -r0	; <UNPREDICTABLE>
 5f0:	00000014 	andeq	r0, r0, r4, lsl r0
 5f4:	000004d0 	ldrdeq	r0, [r0], -r0	; <UNPREDICTABLE>
 5f8:	00009a64 	andeq	r9, r0, r4, ror #20
 5fc:	0000004c 	andeq	r0, r0, ip, asr #32
 600:	8e040e42 	cdphi	14, 0, cr0, cr4, cr2, {2}
 604:	100e4201 	andne	r4, lr, r1, lsl #4
 608:	0000000c 	andeq	r0, r0, ip
 60c:	ffffffff 			; <UNDEFINED> instruction: 0xffffffff
 610:	7c020001 	stcvc	0, cr0, [r2], {1}
 614:	000d0c0e 	andeq	r0, sp, lr, lsl #24
 618:	00000018 	andeq	r0, r0, r8, lsl r0
 61c:	00000608 	andeq	r0, r0, r8, lsl #12
 620:	00009ab0 			; <UNDEFINED> instruction: 0x00009ab0
 624:	0000009c 	muleq	r0, ip, r0
 628:	83100e42 	tsthi	r0, #1056	; 0x420
 62c:	85038404 	strhi	r8, [r3, #-1028]	; 0x404
 630:	00018e02 	andeq	r8, r1, r2, lsl #28
 634:	00000014 	andeq	r0, r0, r4, lsl r0
 638:	00000608 	andeq	r0, r0, r8, lsl #12
 63c:	00009b4c 	andeq	r9, r0, ip, asr #22
 640:	0000001c 	andeq	r0, r0, ip, lsl r0
 644:	83080e42 	movwhi	r0, #36418	; 0x8e42
 648:	00018e02 	andeq	r8, r1, r2, lsl #28
 64c:	00000014 	andeq	r0, r0, r4, lsl r0
 650:	00000608 	andeq	r0, r0, r8, lsl #12
 654:	00009b68 	andeq	r9, r0, r8, ror #22
 658:	00000028 	andeq	r0, r0, r8, lsr #32
 65c:	83080e42 	movwhi	r0, #36418	; 0x8e42
 660:	00018e02 	andeq	r8, r1, r2, lsl #28
 664:	00000014 	andeq	r0, r0, r4, lsl r0
 668:	00000608 	andeq	r0, r0, r8, lsl #12
 66c:	00009b90 	muleq	r0, r0, fp
 670:	0000001c 	andeq	r0, r0, ip, lsl r0
 674:	83080e42 	movwhi	r0, #36418	; 0x8e42
 678:	00018e02 	andeq	r8, r1, r2, lsl #28
 67c:	00000014 	andeq	r0, r0, r4, lsl r0
 680:	00000608 	andeq	r0, r0, r8, lsl #12
 684:	00009bac 	andeq	r9, r0, ip, lsr #23
 688:	0000002c 	andeq	r0, r0, ip, lsr #32
 68c:	84080e42 	strhi	r0, [r8], #-3650	; 0xe42
 690:	00018e02 	andeq	r8, r1, r2, lsl #28
 694:	00000014 	andeq	r0, r0, r4, lsl r0
 698:	00000608 	andeq	r0, r0, r8, lsl #12
 69c:	00009bd8 	ldrdeq	r9, [r0], -r8
 6a0:	0000000c 	andeq	r0, r0, ip
 6a4:	83080e42 	movwhi	r0, #36418	; 0x8e42
 6a8:	00018e02 	andeq	r8, r1, r2, lsl #28
 6ac:	00000014 	andeq	r0, r0, r4, lsl r0
 6b0:	00000608 	andeq	r0, r0, r8, lsl #12
 6b4:	00009be4 	andeq	r9, r0, r4, ror #23
 6b8:	00000020 	andeq	r0, r0, r0, lsr #32
 6bc:	83080e42 	movwhi	r0, #36418	; 0x8e42
 6c0:	00018e02 	andeq	r8, r1, r2, lsl #28
 6c4:	0000000c 	andeq	r0, r0, ip
 6c8:	ffffffff 			; <UNDEFINED> instruction: 0xffffffff
 6cc:	7c020001 	stcvc	0, cr0, [r2], {1}
 6d0:	000d0c0e 	andeq	r0, sp, lr, lsl #24
 6d4:	00000014 	andeq	r0, r0, r4, lsl r0
 6d8:	000006c4 	andeq	r0, r0, r4, asr #13
 6dc:	00009c68 	andeq	r9, r0, r8, ror #24
 6e0:	00000028 	andeq	r0, r0, r8, lsr #32
 6e4:	83080e42 	movwhi	r0, #36418	; 0x8e42
 6e8:	00018e02 	andeq	r8, r1, r2, lsl #28
 6ec:	0000000c 	andeq	r0, r0, ip
 6f0:	000006c4 	andeq	r0, r0, r4, asr #13
 6f4:	00009c90 	muleq	r0, r0, ip
 6f8:	00000028 	andeq	r0, r0, r8, lsr #32
 6fc:	0000000c 	andeq	r0, r0, ip
 700:	ffffffff 			; <UNDEFINED> instruction: 0xffffffff
 704:	7c020001 	stcvc	0, cr0, [r2], {1}
 708:	000d0c0e 	andeq	r0, sp, lr, lsl #24
 70c:	0000000c 	andeq	r0, r0, ip
 710:	000006fc 	strdeq	r0, [r0], -ip
 714:	00009cb8 			; <UNDEFINED> instruction: 0x00009cb8
 718:	00000020 	andeq	r0, r0, r0, lsr #32
